; Listing generated by Microsoft (R) Optimizing Compiler Version 19.29.30145.0 

	TITLE	D:\git\src\IBK\IBK_DRFN\#DRfn-CS\_Obj\ChartPeriodSummaryAddIn\_ChartAddInBase.obj
	.686P
	.XMM
	include listing.inc
	.model	flat

INCLUDELIB MSVCRT
INCLUDELIB OLDNAMES

PUBLIC	?__empty_global_delete@@YAXPAX@Z		; __empty_global_delete
PUBLIC	?__empty_global_delete@@YAXPAXI@Z		; __empty_global_delete
PUBLIC	?Serialize@CObject@@UAEXAAVCArchive@@@Z		; CObject::Serialize
PUBLIC	?AssertValid@CObject@@UBEXXZ			; CObject::AssertValid
PUBLIC	?Dump@CObject@@UBEXAAVCDumpContext@@@Z		; CObject::Dump
PUBLIC	?_AfxInitManaged@@YAHXZ				; _AfxInitManaged
PUBLIC	?PostConstruct@CIWUnknown@@MAEXXZ		; CIWUnknown::PostConstruct
PUBLIC	?PreDestructX@CIWUnknown@@MAEXXZ		; CIWUnknown::PreDestructX
PUBLIC	?PreDestruct@CIWUnknown@@MAEXXZ			; CIWUnknown::PreDestruct
PUBLIC	??1IChartAddIn133691@@MAE@XZ			; IChartAddIn133691::~IChartAddIn133691
PUBLIC	??_GIChartAddIn133691@@MAEPAXI@Z		; IChartAddIn133691::`scalar deleting destructor'
PUBLIC	??0CChartAddInBase133691@@IAE@PAUIChartOCX133691@@PAUIAddInDllBase@@@Z ; CChartAddInBase133691::CChartAddInBase133691
PUBLIC	??1CChartAddInBase133691@@MAE@XZ		; CChartAddInBase133691::~CChartAddInBase133691
PUBLIC	?AddRef@CChartAddInBase133691@@MAGKXZ		; CChartAddInBase133691::AddRef
PUBLIC	?Release@CChartAddInBase133691@@MAGKXZ		; CChartAddInBase133691::Release
PUBLIC	?QueryInterface@CChartAddInBase133691@@MAGJABU_GUID@@PAPAX@Z ; CChartAddInBase133691::QueryInterface
PUBLIC	?HasFullManager@CChartAddInBase133691@@MAEHXZ	; CChartAddInBase133691::HasFullManager
PUBLIC	?GetAddInCustomInterface@CChartAddInBase133691@@MAEPAUIUnknown@@XZ ; CChartAddInBase133691::GetAddInCustomInterface
PUBLIC	?InvokeAddIn@CChartAddInBase133691@@MAEHHJ@Z	; CChartAddInBase133691::InvokeAddIn
PUBLIC	?InvokeAddInStr@CChartAddInBase133691@@MAEHPBD0@Z ; CChartAddInBase133691::InvokeAddInStr
PUBLIC	?RegisterEventMap@CChartAddInBase133691@@UAEHH@Z ; CChartAddInBase133691::RegisterEventMap
PUBLIC	?UnregisterEventMap@CChartAddInBase133691@@UAEHXZ ; CChartAddInBase133691::UnregisterEventMap
PUBLIC	?OnOcxDestroyWindow@CChartAddInBase133691@@MAEXXZ ; CChartAddInBase133691::OnOcxDestroyWindow
PUBLIC	?OnGSharedDataChange@CChartAddInBase133691@@MAEXPBD0H@Z ; CChartAddInBase133691::OnGSharedDataChange
PUBLIC	?OnLSharedDataChange@CChartAddInBase133691@@MAEXPBD0@Z ; CChartAddInBase133691::OnLSharedDataChange
PUBLIC	?OnResetChart@CChartAddInBase133691@@MAEXXZ	; CChartAddInBase133691::OnResetChart
PUBLIC	?OnDrawBeforeGraph@CChartAddInBase133691@@MAEXPAUHDC__@@@Z ; CChartAddInBase133691::OnDrawBeforeGraph
PUBLIC	?OnDrawAfterGraph@CChartAddInBase133691@@MAEXPAUHDC__@@@Z ; CChartAddInBase133691::OnDrawAfterGraph
PUBLIC	?OnPacketDataMultiItem@CChartAddInBase133691@@MAEXPBD0H@Z ; CChartAddInBase133691::OnPacketDataMultiItem
PUBLIC	?OnTimer@CChartAddInBase133691@@MAEXI@Z		; CChartAddInBase133691::OnTimer
PUBLIC	?OnCaptureChanged@CChartAddInBase133691@@MAEXPAUHWND__@@QAUHBITMAP__@@@Z ; CChartAddInBase133691::OnCaptureChanged
PUBLIC	?OnResetMainBlock@CChartAddInBase133691@@MAEXXZ	; CChartAddInBase133691::OnResetMainBlock
PUBLIC	?OnUserIndiatorConditionLoaded@CChartAddInBase133691@@MAEXXZ ; CChartAddInBase133691::OnUserIndiatorConditionLoaded
PUBLIC	?OnChartItemChanged@CChartAddInBase133691@@MAEXXZ ; CChartAddInBase133691::OnChartItemChanged
PUBLIC	?OnGraphDataChanged@CChartAddInBase133691@@MAEXXZ ; CChartAddInBase133691::OnGraphDataChanged
PUBLIC	?OnBlockRemoved@CChartAddInBase133691@@MAEXHH@Z	; CChartAddInBase133691::OnBlockRemoved
PUBLIC	?OnGraphAdded@CChartAddInBase133691@@MAEXPBD0@Z	; CChartAddInBase133691::OnGraphAdded
PUBLIC	?OnManualRealData@CChartAddInBase133691@@MAEXPBDNH@Z ; CChartAddInBase133691::OnManualRealData
PUBLIC	?OnContextMenu@CChartAddInBase133691@@MAEXPAUHWND__@@AAUtagPOINT@@@Z ; CChartAddInBase133691::OnContextMenu
PUBLIC	?OnGraphDeleted@CChartAddInBase133691@@MAEXPBD0@Z ; CChartAddInBase133691::OnGraphDeleted
PUBLIC	?OnPacketTruncated@CChartAddInBase133691@@MAEXH@Z ; CChartAddInBase133691::OnPacketTruncated
PUBLIC	?OnBlockChanged@CChartAddInBase133691@@MAEXW4BLOCKBEHAVIOR@CBlockBaseData@@HHHH@Z ; CChartAddInBase133691::OnBlockChanged
PUBLIC	?OnToolCommand@CChartAddInBase133691@@MAEXHH@Z	; CChartAddInBase133691::OnToolCommand
PUBLIC	?OnRealData@CChartAddInBase133691@@MAEXPBDN0@Z	; CChartAddInBase133691::OnRealData
PUBLIC	?OnIndexedRealData@CChartAddInBase133691@@MAEXPBDHN@Z ; CChartAddInBase133691::OnIndexedRealData
PUBLIC	?OnRealPacketEnd@CChartAddInBase133691@@MAEXPBD@Z ; CChartAddInBase133691::OnRealPacketEnd
PUBLIC	?OnLoadEnvironment@CChartAddInBase133691@@MAEXPAUIPropertyMap@@@Z ; CChartAddInBase133691::OnLoadEnvironment
PUBLIC	?OnSaveEnvironment@CChartAddInBase133691@@MAEXPAUIPropertyMap@@@Z ; CChartAddInBase133691::OnSaveEnvironment
PUBLIC	?DrawCursor@CChartAddInBase133691@@MAE?AUtagRECT@@PAUHDC__@@@Z ; CChartAddInBase133691::DrawCursor
PUBLIC	?OnRecalculationComplete@CChartAddInBase133691@@MAEXXZ ; CChartAddInBase133691::OnRecalculationComplete
PUBLIC	?OnPreRealData@CChartAddInBase133691@@MAEHPBDAAN0@Z ; CChartAddInBase133691::OnPreRealData
PUBLIC	?OnPreIndexedRealData@CChartAddInBase133691@@MAEHPBDHAAN@Z ; CChartAddInBase133691::OnPreIndexedRealData
PUBLIC	?OnPreRealPacketEnd@CChartAddInBase133691@@MAEHPBD@Z ; CChartAddInBase133691::OnPreRealPacketEnd
PUBLIC	?OnCmdMsg@CChartAddInBase133691@@MAEHIHPAUICmdUI133691@@@Z ; CChartAddInBase133691::OnCmdMsg
PUBLIC	?OnAddInMsg@CChartAddInBase133691@@MAEHPBDJ@Z	; CChartAddInBase133691::OnAddInMsg
PUBLIC	?OnAddInToolCommand@CChartAddInBase133691@@MAEHW4EAICommandType@@@Z ; CChartAddInBase133691::OnAddInToolCommand
PUBLIC	?OnAddInToolCommand@CChartAddInBase133691@@MAEHW4EAICommandType@@PAUHDC__@@IAAUtagPOINT@@K@Z ; CChartAddInBase133691::OnAddInToolCommand
PUBLIC	?OnAddInToolCommand@CChartAddInBase133691@@MAEHW4EAICommandType@@PBD@Z ; CChartAddInBase133691::OnAddInToolCommand
PUBLIC	?OnAddInToolCommand@CChartAddInBase133691@@MAEHW4EAICommandType@@PBD1@Z ; CChartAddInBase133691::OnAddInToolCommand
PUBLIC	?OnAddInToolCommand@CChartAddInBase133691@@MAEHW4EAICommandType@@PBDJ@Z ; CChartAddInBase133691::OnAddInToolCommand
PUBLIC	?OnAddInToolCommand@CChartAddInBase133691@@MAEHW4EAICommandType@@PBUIAddInDllBase@@@Z ; CChartAddInBase133691::OnAddInToolCommand
PUBLIC	?OnAddInToolCommand@CChartAddInBase133691@@MAEHW4EAICommandType@@J@Z ; CChartAddInBase133691::OnAddInToolCommand
PUBLIC	?OnAddInToolCommand@CChartAddInBase133691@@MAEHW4EAICommandType@@JPBD@Z ; CChartAddInBase133691::OnAddInToolCommand
PUBLIC	?OnAddInToolCommand@CChartAddInBase133691@@MAEHW4EAICommandType@@JPBD11@Z ; CChartAddInBase133691::OnAddInToolCommand
PUBLIC	?OnAddInToolCommand@CChartAddInBase133691@@MAEHW4EAICommandType@@JJ@Z ; CChartAddInBase133691::OnAddInToolCommand
PUBLIC	?OnAddInToolCommand@CChartAddInBase133691@@MAEHW4EAICommandType@@JJJJJJJJJ@Z ; CChartAddInBase133691::OnAddInToolCommand
PUBLIC	?OnAddInToolCommand@CChartAddInBase133691@@MAEHAAJW4EAICommandType@@@Z ; CChartAddInBase133691::OnAddInToolCommand
PUBLIC	?OnAddInToolCommand@CChartAddInBase133691@@MAEHAAJW4EAICommandType@@PAUIGraphInfo133691@@@Z ; CChartAddInBase133691::OnAddInToolCommand
PUBLIC	?OnAddInToolCommand@CChartAddInBase133691@@MAEHAAJW4EAICommandType@@PBD@Z ; CChartAddInBase133691::OnAddInToolCommand
PUBLIC	?OnAddInToolCommand@CChartAddInBase133691@@MAEHAAJW4EAICommandType@@PBDPAVCObject@@@Z ; CChartAddInBase133691::OnAddInToolCommand
PUBLIC	?OnAddInToolCommand@CChartAddInBase133691@@MAEHAAJW4EAICommandType@@J@Z ; CChartAddInBase133691::OnAddInToolCommand
PUBLIC	?OnAddInToolCommand@CChartAddInBase133691@@MAEHAAJW4EAICommandType@@JJ@Z ; CChartAddInBase133691::OnAddInToolCommand
PUBLIC	?OnKeyDown@CChartAddInBase133691@@MAEHIII@Z	; CChartAddInBase133691::OnKeyDown
PUBLIC	?OnKeyUp@CChartAddInBase133691@@MAEHIII@Z	; CChartAddInBase133691::OnKeyUp
PUBLIC	?OnMouseWheel@CChartAddInBase133691@@MAEHIFUtagPOINT@@K@Z ; CChartAddInBase133691::OnMouseWheel
PUBLIC	?OnMouseMove@CChartAddInBase133691@@MAEHPAUHDC__@@IAAUtagPOINT@@KQAUHBITMAP__@@@Z ; CChartAddInBase133691::OnMouseMove
PUBLIC	?OnLButtonDown@CChartAddInBase133691@@MAEHPAUHDC__@@IAAUtagPOINT@@K@Z ; CChartAddInBase133691::OnLButtonDown
PUBLIC	?OnLButtonUp@CChartAddInBase133691@@MAEHPAUHDC__@@IAAUtagPOINT@@K@Z ; CChartAddInBase133691::OnLButtonUp
PUBLIC	?OnLButtonDblClk@CChartAddInBase133691@@MAEHPAUHDC__@@IAAUtagPOINT@@K@Z ; CChartAddInBase133691::OnLButtonDblClk
PUBLIC	?OnRButtonDown@CChartAddInBase133691@@MAEHPAUHDC__@@IAAUtagPOINT@@K@Z ; CChartAddInBase133691::OnRButtonDown
PUBLIC	?OnRButtonUp@CChartAddInBase133691@@MAEHPAUHDC__@@IAAUtagPOINT@@K@Z ; CChartAddInBase133691::OnRButtonUp
PUBLIC	?OnRButtonDblClk@CChartAddInBase133691@@MAEHPAUHDC__@@IAAUtagPOINT@@K@Z ; CChartAddInBase133691::OnRButtonDblClk
PUBLIC	??_GCChartAddInBase133691@@MAEPAXI@Z		; CChartAddInBase133691::`scalar deleting destructor'
PUBLIC	?QueryInterface@CChartAddInBase133691@@O7AGJABU_GUID@@PAPAX@Z ; [thunk]:CChartAddInBase133691::QueryInterface`adjustor{8}'
PUBLIC	?AddRef@CChartAddInBase133691@@O7AGKXZ		; [thunk]:CChartAddInBase133691::AddRef`adjustor{8}'
PUBLIC	?Release@CChartAddInBase133691@@O7AGKXZ		; [thunk]:CChartAddInBase133691::Release`adjustor{8}'
PUBLIC	??_ECChartAddInBase133691@@O7AEPAXI@Z		; [thunk]:CChartAddInBase133691::`vector deleting destructor'
PUBLIC	??_R0?AVCObject@@@8				; CObject `RTTI Type Descriptor'
PUBLIC	??_R3CObject@@8					; CObject::`RTTI Class Hierarchy Descriptor'
PUBLIC	??_R2CObject@@8					; CObject::`RTTI Base Class Array'
PUBLIC	??_R1A@?0A@EA@CObject@@8			; CObject::`RTTI Base Class Descriptor at (0,-1,0,64)'
PUBLIC	??_R0?AUIUnknown@@@8				; IUnknown `RTTI Type Descriptor'
PUBLIC	??_R3IUnknown@@8				; IUnknown::`RTTI Class Hierarchy Descriptor'
PUBLIC	??_R2IUnknown@@8				; IUnknown::`RTTI Base Class Array'
PUBLIC	??_R1A@?0A@EA@IUnknown@@8			; IUnknown::`RTTI Base Class Descriptor at (0,-1,0,64)'
PUBLIC	??_7IChartAddIn133691@@6B@			; IChartAddIn133691::`vftable'
PUBLIC	??_7CChartAddInBase133691@@6BCIWUnknown@@@	; CChartAddInBase133691::`vftable'
PUBLIC	??_7CChartAddInBase133691@@6BIChartAddIn133691@@@ ; CChartAddInBase133691::`vftable'
PUBLIC	??_C@_0CL@GPIFJCLA@CChartAddInBase133691?5Null?5Wrap@ ; `string'
PUBLIC	??_R4IChartAddIn133691@@6B@			; IChartAddIn133691::`RTTI Complete Object Locator'
PUBLIC	??_R0?AUIChartAddIn133691@@@8			; IChartAddIn133691 `RTTI Type Descriptor'
PUBLIC	??_R3IChartAddIn133691@@8			; IChartAddIn133691::`RTTI Class Hierarchy Descriptor'
PUBLIC	??_R2IChartAddIn133691@@8			; IChartAddIn133691::`RTTI Base Class Array'
PUBLIC	??_R1A@?0A@EA@IChartAddIn133691@@8		; IChartAddIn133691::`RTTI Base Class Descriptor at (0,-1,0,64)'
PUBLIC	??_R4CChartAddInBase133691@@6BCIWUnknown@@@	; CChartAddInBase133691::`RTTI Complete Object Locator'
PUBLIC	??_R0?AVCChartAddInBase133691@@@8		; CChartAddInBase133691 `RTTI Type Descriptor'
PUBLIC	??_R3CChartAddInBase133691@@8			; CChartAddInBase133691::`RTTI Class Hierarchy Descriptor'
PUBLIC	??_R2CChartAddInBase133691@@8			; CChartAddInBase133691::`RTTI Base Class Array'
PUBLIC	??_R1A@?0A@EA@CChartAddInBase133691@@8		; CChartAddInBase133691::`RTTI Base Class Descriptor at (0,-1,0,64)'
PUBLIC	??_R1A@?0A@EA@CIWUnknown@@8			; CIWUnknown::`RTTI Base Class Descriptor at (0,-1,0,64)'
PUBLIC	??_R0?AVCIWUnknown@@@8				; CIWUnknown `RTTI Type Descriptor'
PUBLIC	??_R3CIWUnknown@@8				; CIWUnknown::`RTTI Class Hierarchy Descriptor'
PUBLIC	??_R2CIWUnknown@@8				; CIWUnknown::`RTTI Base Class Array'
PUBLIC	??_R17?0A@EA@IChartAddIn133691@@8		; IChartAddIn133691::`RTTI Base Class Descriptor at (8,-1,0,64)'
PUBLIC	??_R17?0A@EA@IUnknown@@8			; IUnknown::`RTTI Base Class Descriptor at (8,-1,0,64)'
PUBLIC	??_R4CChartAddInBase133691@@6BIChartAddIn133691@@@ ; CChartAddInBase133691::`RTTI Complete Object Locator'
EXTRN	__purecall:PROC
EXTRN	??3@YAXPAX@Z:PROC				; operator delete
EXTRN	??3@YAXPAXI@Z:PROC				; operator delete
EXTRN	?__global_delete@@YAXPAXI@Z:PROC		; __global_delete
EXTRN	___std_terminate:PROC
EXTRN	?GetRuntimeClass@CObject@@UBEPAUCRuntimeClass@@XZ:PROC ; CObject::GetRuntimeClass
EXTRN	?AfxGetStaticModuleState@@YGPAVAFX_MODULE_STATE@@XZ:PROC ; AfxGetStaticModuleState
EXTRN	??0AFX_MAINTAIN_STATE2@@QAE@PAVAFX_MODULE_STATE@@@Z:PROC ; AFX_MAINTAIN_STATE2::AFX_MAINTAIN_STATE2
EXTRN	??1AFX_MAINTAIN_STATE2@@QAE@XZ:PROC		; AFX_MAINTAIN_STATE2::~AFX_MAINTAIN_STATE2
EXTRN	?FromHandle@CWnd@@SGPAV1@PAUHWND__@@@Z:PROC	; CWnd::FromHandle
EXTRN	?AfxMessageBox@@YGHPBDII@Z:PROC			; AfxMessageBox
EXTRN	??0CIWUnknown@@QAE@XZ:PROC			; CIWUnknown::CIWUnknown
EXTRN	??1CIWUnknown@@MAE@XZ:PROC			; CIWUnknown::~CIWUnknown
EXTRN	?AddRef@CIWUnknown@@MAGKXZ:PROC			; CIWUnknown::AddRef
EXTRN	?Release@CIWUnknown@@MAGKXZ:PROC		; CIWUnknown::Release
EXTRN	??_EIChartAddIn133691@@MAEPAXI@Z:PROC		; IChartAddIn133691::`vector deleting destructor'
EXTRN	??_ECChartAddInBase133691@@MAEPAXI@Z:PROC	; CChartAddInBase133691::`vector deleting destructor'
EXTRN	@__security_check_cookie@4:PROC
EXTRN	___CxxFrameHandler3:PROC
EXTRN	??_7type_info@@6B@:QWORD			; type_info::`vftable'
EXTRN	___security_cookie:DWORD
;	COMDAT ??_R4CChartAddInBase133691@@6BIChartAddIn133691@@@
rdata$r	SEGMENT
??_R4CChartAddInBase133691@@6BIChartAddIn133691@@@ DD 00H ; CChartAddInBase133691::`RTTI Complete Object Locator'
	DD	08H
	DD	00H
	DD	FLAT:??_R0?AVCChartAddInBase133691@@@8
	DD	FLAT:??_R3CChartAddInBase133691@@8
rdata$r	ENDS
;	COMDAT ??_R17?0A@EA@IUnknown@@8
rdata$r	SEGMENT
??_R17?0A@EA@IUnknown@@8 DD FLAT:??_R0?AUIUnknown@@@8	; IUnknown::`RTTI Base Class Descriptor at (8,-1,0,64)'
	DD	00H
	DD	08H
	DD	0ffffffffH
	DD	00H
	DD	040H
	DD	FLAT:??_R3IUnknown@@8
rdata$r	ENDS
;	COMDAT ??_R17?0A@EA@IChartAddIn133691@@8
rdata$r	SEGMENT
??_R17?0A@EA@IChartAddIn133691@@8 DD FLAT:??_R0?AUIChartAddIn133691@@@8 ; IChartAddIn133691::`RTTI Base Class Descriptor at (8,-1,0,64)'
	DD	01H
	DD	08H
	DD	0ffffffffH
	DD	00H
	DD	040H
	DD	FLAT:??_R3IChartAddIn133691@@8
rdata$r	ENDS
;	COMDAT ??_R2CIWUnknown@@8
rdata$r	SEGMENT
??_R2CIWUnknown@@8 DD FLAT:??_R1A@?0A@EA@CIWUnknown@@8	; CIWUnknown::`RTTI Base Class Array'
	DD	FLAT:??_R1A@?0A@EA@CObject@@8
rdata$r	ENDS
;	COMDAT ??_R3CIWUnknown@@8
rdata$r	SEGMENT
??_R3CIWUnknown@@8 DD 00H				; CIWUnknown::`RTTI Class Hierarchy Descriptor'
	DD	00H
	DD	02H
	DD	FLAT:??_R2CIWUnknown@@8
rdata$r	ENDS
;	COMDAT ??_R0?AVCIWUnknown@@@8
data$rs	SEGMENT
??_R0?AVCIWUnknown@@@8 DD FLAT:??_7type_info@@6B@	; CIWUnknown `RTTI Type Descriptor'
	DD	00H
	DB	'.?AVCIWUnknown@@', 00H
data$rs	ENDS
;	COMDAT ??_R1A@?0A@EA@CIWUnknown@@8
rdata$r	SEGMENT
??_R1A@?0A@EA@CIWUnknown@@8 DD FLAT:??_R0?AVCIWUnknown@@@8 ; CIWUnknown::`RTTI Base Class Descriptor at (0,-1,0,64)'
	DD	01H
	DD	00H
	DD	0ffffffffH
	DD	00H
	DD	040H
	DD	FLAT:??_R3CIWUnknown@@8
rdata$r	ENDS
;	COMDAT ??_R1A@?0A@EA@CChartAddInBase133691@@8
rdata$r	SEGMENT
??_R1A@?0A@EA@CChartAddInBase133691@@8 DD FLAT:??_R0?AVCChartAddInBase133691@@@8 ; CChartAddInBase133691::`RTTI Base Class Descriptor at (0,-1,0,64)'
	DD	04H
	DD	00H
	DD	0ffffffffH
	DD	00H
	DD	040H
	DD	FLAT:??_R3CChartAddInBase133691@@8
rdata$r	ENDS
;	COMDAT ??_R2CChartAddInBase133691@@8
rdata$r	SEGMENT
??_R2CChartAddInBase133691@@8 DD FLAT:??_R1A@?0A@EA@CChartAddInBase133691@@8 ; CChartAddInBase133691::`RTTI Base Class Array'
	DD	FLAT:??_R1A@?0A@EA@CIWUnknown@@8
	DD	FLAT:??_R1A@?0A@EA@CObject@@8
	DD	FLAT:??_R17?0A@EA@IChartAddIn133691@@8
	DD	FLAT:??_R17?0A@EA@IUnknown@@8
rdata$r	ENDS
;	COMDAT ??_R3CChartAddInBase133691@@8
rdata$r	SEGMENT
??_R3CChartAddInBase133691@@8 DD 00H			; CChartAddInBase133691::`RTTI Class Hierarchy Descriptor'
	DD	01H
	DD	05H
	DD	FLAT:??_R2CChartAddInBase133691@@8
rdata$r	ENDS
;	COMDAT ??_R0?AVCChartAddInBase133691@@@8
data$rs	SEGMENT
??_R0?AVCChartAddInBase133691@@@8 DD FLAT:??_7type_info@@6B@ ; CChartAddInBase133691 `RTTI Type Descriptor'
	DD	00H
	DB	'.?AVCChartAddInBase133691@@', 00H
data$rs	ENDS
;	COMDAT ??_R4CChartAddInBase133691@@6BCIWUnknown@@@
rdata$r	SEGMENT
??_R4CChartAddInBase133691@@6BCIWUnknown@@@ DD 00H	; CChartAddInBase133691::`RTTI Complete Object Locator'
	DD	00H
	DD	00H
	DD	FLAT:??_R0?AVCChartAddInBase133691@@@8
	DD	FLAT:??_R3CChartAddInBase133691@@8
rdata$r	ENDS
;	COMDAT ??_R1A@?0A@EA@IChartAddIn133691@@8
rdata$r	SEGMENT
??_R1A@?0A@EA@IChartAddIn133691@@8 DD FLAT:??_R0?AUIChartAddIn133691@@@8 ; IChartAddIn133691::`RTTI Base Class Descriptor at (0,-1,0,64)'
	DD	01H
	DD	00H
	DD	0ffffffffH
	DD	00H
	DD	040H
	DD	FLAT:??_R3IChartAddIn133691@@8
rdata$r	ENDS
;	COMDAT ??_R2IChartAddIn133691@@8
rdata$r	SEGMENT
??_R2IChartAddIn133691@@8 DD FLAT:??_R1A@?0A@EA@IChartAddIn133691@@8 ; IChartAddIn133691::`RTTI Base Class Array'
	DD	FLAT:??_R1A@?0A@EA@IUnknown@@8
rdata$r	ENDS
;	COMDAT ??_R3IChartAddIn133691@@8
rdata$r	SEGMENT
??_R3IChartAddIn133691@@8 DD 00H			; IChartAddIn133691::`RTTI Class Hierarchy Descriptor'
	DD	00H
	DD	02H
	DD	FLAT:??_R2IChartAddIn133691@@8
rdata$r	ENDS
;	COMDAT ??_R0?AUIChartAddIn133691@@@8
data$rs	SEGMENT
??_R0?AUIChartAddIn133691@@@8 DD FLAT:??_7type_info@@6B@ ; IChartAddIn133691 `RTTI Type Descriptor'
	DD	00H
	DB	'.?AUIChartAddIn133691@@', 00H
data$rs	ENDS
;	COMDAT ??_R4IChartAddIn133691@@6B@
rdata$r	SEGMENT
??_R4IChartAddIn133691@@6B@ DD 00H			; IChartAddIn133691::`RTTI Complete Object Locator'
	DD	00H
	DD	00H
	DD	FLAT:??_R0?AUIChartAddIn133691@@@8
	DD	FLAT:??_R3IChartAddIn133691@@8
rdata$r	ENDS
;	COMDAT ??_C@_0CL@GPIFJCLA@CChartAddInBase133691?5Null?5Wrap@
CONST	SEGMENT
??_C@_0CL@GPIFJCLA@CChartAddInBase133691?5Null?5Wrap@ DB 'CChartAddInBase'
	DB	'133691 Null Wrapping Error!', 00H		; `string'
CONST	ENDS
;	COMDAT ??_7CChartAddInBase133691@@6BIChartAddIn133691@@@
CONST	SEGMENT
??_7CChartAddInBase133691@@6BIChartAddIn133691@@@ DD FLAT:??_R4CChartAddInBase133691@@6BIChartAddIn133691@@@ ; CChartAddInBase133691::`vftable'
	DD	FLAT:?QueryInterface@CChartAddInBase133691@@O7AGJABU_GUID@@PAPAX@Z
	DD	FLAT:?AddRef@CChartAddInBase133691@@O7AGKXZ
	DD	FLAT:?Release@CChartAddInBase133691@@O7AGKXZ
	DD	FLAT:??_ECChartAddInBase133691@@O7AEPAXI@Z
	DD	FLAT:?HasFullManager@CChartAddInBase133691@@MAEHXZ
	DD	FLAT:?GetAddInCustomInterface@CChartAddInBase133691@@MAEPAUIUnknown@@XZ
	DD	FLAT:?InvokeAddIn@CChartAddInBase133691@@MAEHHJ@Z
	DD	FLAT:?InvokeAddInStr@CChartAddInBase133691@@MAEHPBD0@Z
	DD	FLAT:?OnOcxDestroyWindow@CChartAddInBase133691@@MAEXXZ
	DD	FLAT:?RegisterEventMap@CChartAddInBase133691@@UAEHH@Z
	DD	FLAT:?UnregisterEventMap@CChartAddInBase133691@@UAEHXZ
	DD	FLAT:?OnGSharedDataChange@CChartAddInBase133691@@MAEXPBD0H@Z
	DD	FLAT:?OnLSharedDataChange@CChartAddInBase133691@@MAEXPBD0@Z
	DD	FLAT:?OnResetChart@CChartAddInBase133691@@MAEXXZ
	DD	FLAT:?OnDrawBeforeGraph@CChartAddInBase133691@@MAEXPAUHDC__@@@Z
	DD	FLAT:?OnDrawAfterGraph@CChartAddInBase133691@@MAEXPAUHDC__@@@Z
	DD	FLAT:?OnPacketDataMultiItem@CChartAddInBase133691@@MAEXPBD0H@Z
	DD	FLAT:?OnTimer@CChartAddInBase133691@@MAEXI@Z
	DD	FLAT:?OnCaptureChanged@CChartAddInBase133691@@MAEXPAUHWND__@@QAUHBITMAP__@@@Z
	DD	FLAT:?OnResetMainBlock@CChartAddInBase133691@@MAEXXZ
	DD	FLAT:?OnUserIndiatorConditionLoaded@CChartAddInBase133691@@MAEXXZ
	DD	FLAT:?OnChartItemChanged@CChartAddInBase133691@@MAEXXZ
	DD	FLAT:?OnGraphDataChanged@CChartAddInBase133691@@MAEXXZ
	DD	FLAT:?OnBlockRemoved@CChartAddInBase133691@@MAEXHH@Z
	DD	FLAT:?OnGraphAdded@CChartAddInBase133691@@MAEXPBD0@Z
	DD	FLAT:?OnManualRealData@CChartAddInBase133691@@MAEXPBDNH@Z
	DD	FLAT:?OnContextMenu@CChartAddInBase133691@@MAEXPAUHWND__@@AAUtagPOINT@@@Z
	DD	FLAT:?OnGraphDeleted@CChartAddInBase133691@@MAEXPBD0@Z
	DD	FLAT:?OnPacketTruncated@CChartAddInBase133691@@MAEXH@Z
	DD	FLAT:?OnBlockChanged@CChartAddInBase133691@@MAEXW4BLOCKBEHAVIOR@CBlockBaseData@@HHHH@Z
	DD	FLAT:?OnToolCommand@CChartAddInBase133691@@MAEXHH@Z
	DD	FLAT:?OnRealData@CChartAddInBase133691@@MAEXPBDN0@Z
	DD	FLAT:?OnIndexedRealData@CChartAddInBase133691@@MAEXPBDHN@Z
	DD	FLAT:?OnRealPacketEnd@CChartAddInBase133691@@MAEXPBD@Z
	DD	FLAT:?OnLoadEnvironment@CChartAddInBase133691@@MAEXPAUIPropertyMap@@@Z
	DD	FLAT:?OnSaveEnvironment@CChartAddInBase133691@@MAEXPAUIPropertyMap@@@Z
	DD	FLAT:?DrawCursor@CChartAddInBase133691@@MAE?AUtagRECT@@PAUHDC__@@@Z
	DD	FLAT:?OnRecalculationComplete@CChartAddInBase133691@@MAEXXZ
	DD	FLAT:?OnPreRealData@CChartAddInBase133691@@MAEHPBDAAN0@Z
	DD	FLAT:?OnPreIndexedRealData@CChartAddInBase133691@@MAEHPBDHAAN@Z
	DD	FLAT:?OnPreRealPacketEnd@CChartAddInBase133691@@MAEHPBD@Z
	DD	FLAT:?OnCmdMsg@CChartAddInBase133691@@MAEHIHPAUICmdUI133691@@@Z
	DD	FLAT:?OnAddInMsg@CChartAddInBase133691@@MAEHPBDJ@Z
	DD	FLAT:?OnAddInToolCommand@CChartAddInBase133691@@MAEHAAJW4EAICommandType@@JJ@Z
	DD	FLAT:?OnAddInToolCommand@CChartAddInBase133691@@MAEHAAJW4EAICommandType@@J@Z
	DD	FLAT:?OnAddInToolCommand@CChartAddInBase133691@@MAEHAAJW4EAICommandType@@PBDPAVCObject@@@Z
	DD	FLAT:?OnAddInToolCommand@CChartAddInBase133691@@MAEHAAJW4EAICommandType@@PBD@Z
	DD	FLAT:?OnAddInToolCommand@CChartAddInBase133691@@MAEHAAJW4EAICommandType@@PAUIGraphInfo133691@@@Z
	DD	FLAT:?OnAddInToolCommand@CChartAddInBase133691@@MAEHAAJW4EAICommandType@@@Z
	DD	FLAT:?OnAddInToolCommand@CChartAddInBase133691@@MAEHW4EAICommandType@@JJJJJJJJJ@Z
	DD	FLAT:?OnAddInToolCommand@CChartAddInBase133691@@MAEHW4EAICommandType@@JJ@Z
	DD	FLAT:?OnAddInToolCommand@CChartAddInBase133691@@MAEHW4EAICommandType@@JPBD11@Z
	DD	FLAT:?OnAddInToolCommand@CChartAddInBase133691@@MAEHW4EAICommandType@@JPBD@Z
	DD	FLAT:?OnAddInToolCommand@CChartAddInBase133691@@MAEHW4EAICommandType@@J@Z
	DD	FLAT:?OnAddInToolCommand@CChartAddInBase133691@@MAEHW4EAICommandType@@PBUIAddInDllBase@@@Z
	DD	FLAT:?OnAddInToolCommand@CChartAddInBase133691@@MAEHW4EAICommandType@@PBDJ@Z
	DD	FLAT:?OnAddInToolCommand@CChartAddInBase133691@@MAEHW4EAICommandType@@PBD1@Z
	DD	FLAT:?OnAddInToolCommand@CChartAddInBase133691@@MAEHW4EAICommandType@@PBD@Z
	DD	FLAT:?OnAddInToolCommand@CChartAddInBase133691@@MAEHW4EAICommandType@@PAUHDC__@@IAAUtagPOINT@@K@Z
	DD	FLAT:?OnAddInToolCommand@CChartAddInBase133691@@MAEHW4EAICommandType@@@Z
	DD	FLAT:?OnKeyDown@CChartAddInBase133691@@MAEHIII@Z
	DD	FLAT:?OnKeyUp@CChartAddInBase133691@@MAEHIII@Z
	DD	FLAT:?OnMouseWheel@CChartAddInBase133691@@MAEHIFUtagPOINT@@K@Z
	DD	FLAT:?OnMouseMove@CChartAddInBase133691@@MAEHPAUHDC__@@IAAUtagPOINT@@KQAUHBITMAP__@@@Z
	DD	FLAT:?OnLButtonDown@CChartAddInBase133691@@MAEHPAUHDC__@@IAAUtagPOINT@@K@Z
	DD	FLAT:?OnLButtonUp@CChartAddInBase133691@@MAEHPAUHDC__@@IAAUtagPOINT@@K@Z
	DD	FLAT:?OnLButtonDblClk@CChartAddInBase133691@@MAEHPAUHDC__@@IAAUtagPOINT@@K@Z
	DD	FLAT:?OnRButtonDown@CChartAddInBase133691@@MAEHPAUHDC__@@IAAUtagPOINT@@K@Z
	DD	FLAT:?OnRButtonUp@CChartAddInBase133691@@MAEHPAUHDC__@@IAAUtagPOINT@@K@Z
	DD	FLAT:?OnRButtonDblClk@CChartAddInBase133691@@MAEHPAUHDC__@@IAAUtagPOINT@@K@Z
CONST	ENDS
;	COMDAT ??_7CChartAddInBase133691@@6BCIWUnknown@@@
CONST	SEGMENT
??_7CChartAddInBase133691@@6BCIWUnknown@@@ DD FLAT:??_R4CChartAddInBase133691@@6BCIWUnknown@@@ ; CChartAddInBase133691::`vftable'
	DD	FLAT:?GetRuntimeClass@CObject@@UBEPAUCRuntimeClass@@XZ
	DD	FLAT:??_ECChartAddInBase133691@@MAEPAXI@Z
	DD	FLAT:?Serialize@CObject@@UAEXAAVCArchive@@@Z
	DD	FLAT:?AssertValid@CObject@@UBEXXZ
	DD	FLAT:?Dump@CObject@@UBEXAAVCDumpContext@@@Z
	DD	FLAT:?AddRef@CChartAddInBase133691@@MAGKXZ
	DD	FLAT:?Release@CChartAddInBase133691@@MAGKXZ
	DD	FLAT:?QueryInterface@CChartAddInBase133691@@MAGJABU_GUID@@PAPAX@Z
	DD	FLAT:?PostConstruct@CIWUnknown@@MAEXXZ
	DD	FLAT:?PreDestructX@CIWUnknown@@MAEXXZ
	DD	FLAT:?PreDestruct@CIWUnknown@@MAEXXZ
	DD	FLAT:__purecall
CONST	ENDS
;	COMDAT ??_7IChartAddIn133691@@6B@
CONST	SEGMENT
??_7IChartAddIn133691@@6B@ DD FLAT:??_R4IChartAddIn133691@@6B@ ; IChartAddIn133691::`vftable'
	DD	FLAT:__purecall
	DD	FLAT:__purecall
	DD	FLAT:__purecall
	DD	FLAT:??_EIChartAddIn133691@@MAEPAXI@Z
	DD	FLAT:__purecall
	DD	FLAT:__purecall
	DD	FLAT:__purecall
	DD	FLAT:__purecall
	DD	FLAT:__purecall
	DD	FLAT:__purecall
	DD	FLAT:__purecall
	DD	FLAT:__purecall
	DD	FLAT:__purecall
	DD	FLAT:__purecall
	DD	FLAT:__purecall
	DD	FLAT:__purecall
	DD	FLAT:__purecall
	DD	FLAT:__purecall
	DD	FLAT:__purecall
	DD	FLAT:__purecall
	DD	FLAT:__purecall
	DD	FLAT:__purecall
	DD	FLAT:__purecall
	DD	FLAT:__purecall
	DD	FLAT:__purecall
	DD	FLAT:__purecall
	DD	FLAT:__purecall
	DD	FLAT:__purecall
	DD	FLAT:__purecall
	DD	FLAT:__purecall
	DD	FLAT:__purecall
	DD	FLAT:__purecall
	DD	FLAT:__purecall
	DD	FLAT:__purecall
	DD	FLAT:__purecall
	DD	FLAT:__purecall
	DD	FLAT:__purecall
	DD	FLAT:__purecall
	DD	FLAT:__purecall
	DD	FLAT:__purecall
	DD	FLAT:__purecall
	DD	FLAT:__purecall
	DD	FLAT:__purecall
	DD	FLAT:__purecall
	DD	FLAT:__purecall
	DD	FLAT:__purecall
	DD	FLAT:__purecall
	DD	FLAT:__purecall
	DD	FLAT:__purecall
	DD	FLAT:__purecall
	DD	FLAT:__purecall
	DD	FLAT:__purecall
	DD	FLAT:__purecall
	DD	FLAT:__purecall
	DD	FLAT:__purecall
	DD	FLAT:__purecall
	DD	FLAT:__purecall
	DD	FLAT:__purecall
	DD	FLAT:__purecall
	DD	FLAT:__purecall
	DD	FLAT:__purecall
	DD	FLAT:__purecall
	DD	FLAT:__purecall
	DD	FLAT:__purecall
	DD	FLAT:__purecall
	DD	FLAT:__purecall
	DD	FLAT:__purecall
	DD	FLAT:__purecall
	DD	FLAT:__purecall
	DD	FLAT:__purecall
CONST	ENDS
;	COMDAT ??_R1A@?0A@EA@IUnknown@@8
rdata$r	SEGMENT
??_R1A@?0A@EA@IUnknown@@8 DD FLAT:??_R0?AUIUnknown@@@8	; IUnknown::`RTTI Base Class Descriptor at (0,-1,0,64)'
	DD	00H
	DD	00H
	DD	0ffffffffH
	DD	00H
	DD	040H
	DD	FLAT:??_R3IUnknown@@8
rdata$r	ENDS
;	COMDAT ??_R2IUnknown@@8
rdata$r	SEGMENT
??_R2IUnknown@@8 DD FLAT:??_R1A@?0A@EA@IUnknown@@8	; IUnknown::`RTTI Base Class Array'
rdata$r	ENDS
;	COMDAT ??_R3IUnknown@@8
rdata$r	SEGMENT
??_R3IUnknown@@8 DD 00H					; IUnknown::`RTTI Class Hierarchy Descriptor'
	DD	00H
	DD	01H
	DD	FLAT:??_R2IUnknown@@8
rdata$r	ENDS
;	COMDAT ??_R0?AUIUnknown@@@8
data$rs	SEGMENT
??_R0?AUIUnknown@@@8 DD FLAT:??_7type_info@@6B@		; IUnknown `RTTI Type Descriptor'
	DD	00H
	DB	'.?AUIUnknown@@', 00H
data$rs	ENDS
;	COMDAT ??_R1A@?0A@EA@CObject@@8
rdata$r	SEGMENT
??_R1A@?0A@EA@CObject@@8 DD FLAT:??_R0?AVCObject@@@8	; CObject::`RTTI Base Class Descriptor at (0,-1,0,64)'
	DD	00H
	DD	00H
	DD	0ffffffffH
	DD	00H
	DD	040H
	DD	FLAT:??_R3CObject@@8
rdata$r	ENDS
;	COMDAT ??_R2CObject@@8
rdata$r	SEGMENT
??_R2CObject@@8 DD FLAT:??_R1A@?0A@EA@CObject@@8	; CObject::`RTTI Base Class Array'
rdata$r	ENDS
;	COMDAT ??_R3CObject@@8
rdata$r	SEGMENT
??_R3CObject@@8 DD 00H					; CObject::`RTTI Class Hierarchy Descriptor'
	DD	00H
	DD	01H
	DD	FLAT:??_R2CObject@@8
rdata$r	ENDS
;	COMDAT ??_R0?AVCObject@@@8
data$rs	SEGMENT
??_R0?AVCObject@@@8 DD FLAT:??_7type_info@@6B@		; CObject `RTTI Type Descriptor'
	DD	00H
	DB	'.?AVCObject@@', 00H
data$rs	ENDS
;	COMDAT xdata$x
xdata$x	SEGMENT
__unwindtable$??_GCChartAddInBase133691@@MAEPAXI@Z DD 0ffffffffH
	DD	FLAT:___std_terminate
__ehfuncinfo$??_GCChartAddInBase133691@@MAEPAXI@Z DD 019930522H
	DD	01H
	DD	FLAT:__unwindtable$??_GCChartAddInBase133691@@MAEPAXI@Z
	DD	2 DUP(00H)
	DD	2 DUP(00H)
	DD	00H
	DD	05H
xdata$x	ENDS
;	COMDAT xdata$x
xdata$x	SEGMENT
__ehfuncinfo$??1CChartAddInBase133691@@MAE@XZ DD 019930522H
	DD	00H
	DD	00H
	DD	2 DUP(00H)
	DD	2 DUP(00H)
	DD	00H
	DD	05H
xdata$x	ENDS
;	COMDAT xdata$x
xdata$x	SEGMENT
__unwindtable$??0CChartAddInBase133691@@IAE@PAUIChartOCX133691@@PAUIAddInDllBase@@@Z DD 0ffffffffH
	DD	FLAT:__unwindfunclet$??0CChartAddInBase133691@@IAE@PAUIChartOCX133691@@PAUIAddInDllBase@@@Z$0
	DD	00H
	DD	FLAT:__unwindfunclet$??0CChartAddInBase133691@@IAE@PAUIChartOCX133691@@PAUIAddInDllBase@@@Z$1
	DD	01H
	DD	FLAT:__unwindfunclet$??0CChartAddInBase133691@@IAE@PAUIChartOCX133691@@PAUIAddInDllBase@@@Z$2
__ehfuncinfo$??0CChartAddInBase133691@@IAE@PAUIChartOCX133691@@PAUIAddInDllBase@@@Z DD 019930522H
	DD	03H
	DD	FLAT:__unwindtable$??0CChartAddInBase133691@@IAE@PAUIChartOCX133691@@PAUIAddInDllBase@@@Z
	DD	2 DUP(00H)
	DD	2 DUP(00H)
	DD	00H
	DD	01H
xdata$x	ENDS
; Function compile flags: /Odsp
;	COMDAT ??_ECChartAddInBase133691@@O7AEPAXI@Z
_TEXT	SEGMENT
??_ECChartAddInBase133691@@O7AEPAXI@Z PROC		; [thunk]:CChartAddInBase133691::`vector deleting destructor', COMDAT
  00000	83 e9 08	 sub	 ecx, 8
  00003	e9 00 00 00 00	 jmp	 ??_ECChartAddInBase133691@@MAEPAXI@Z
??_ECChartAddInBase133691@@O7AEPAXI@Z ENDP		; [thunk]:CChartAddInBase133691::`vector deleting destructor'
_TEXT	ENDS
; Function compile flags: /Odsp
;	COMDAT ?Release@CChartAddInBase133691@@O7AGKXZ
_TEXT	SEGMENT
?Release@CChartAddInBase133691@@O7AGKXZ PROC		; [thunk]:CChartAddInBase133691::Release`adjustor{8}', COMDAT
  00000	83 6c 24 04 08	 sub	 DWORD PTR [esp+4], 8
  00005	e9 00 00 00 00	 jmp	 ?Release@CChartAddInBase133691@@MAGKXZ ; CChartAddInBase133691::Release
?Release@CChartAddInBase133691@@O7AGKXZ ENDP		; [thunk]:CChartAddInBase133691::Release`adjustor{8}'
_TEXT	ENDS
; Function compile flags: /Odsp
;	COMDAT ?AddRef@CChartAddInBase133691@@O7AGKXZ
_TEXT	SEGMENT
?AddRef@CChartAddInBase133691@@O7AGKXZ PROC		; [thunk]:CChartAddInBase133691::AddRef`adjustor{8}', COMDAT
  00000	83 6c 24 04 08	 sub	 DWORD PTR [esp+4], 8
  00005	e9 00 00 00 00	 jmp	 ?AddRef@CChartAddInBase133691@@MAGKXZ ; CChartAddInBase133691::AddRef
?AddRef@CChartAddInBase133691@@O7AGKXZ ENDP		; [thunk]:CChartAddInBase133691::AddRef`adjustor{8}'
_TEXT	ENDS
; Function compile flags: /Odsp
;	COMDAT ?QueryInterface@CChartAddInBase133691@@O7AGJABU_GUID@@PAPAX@Z
_TEXT	SEGMENT
?QueryInterface@CChartAddInBase133691@@O7AGJABU_GUID@@PAPAX@Z PROC ; [thunk]:CChartAddInBase133691::QueryInterface`adjustor{8}', COMDAT
  00000	83 6c 24 04 08	 sub	 DWORD PTR [esp+4], 8
  00005	e9 00 00 00 00	 jmp	 ?QueryInterface@CChartAddInBase133691@@MAGJABU_GUID@@PAPAX@Z ; CChartAddInBase133691::QueryInterface
?QueryInterface@CChartAddInBase133691@@O7AGJABU_GUID@@PAPAX@Z ENDP ; [thunk]:CChartAddInBase133691::QueryInterface`adjustor{8}'
_TEXT	ENDS
; Function compile flags: /Ogtp
; File D:\git\src\IBK\IBK_DRFN\ProjSrc\SrcChartEx\ChartAddIn\ChartPeriodSummaryAddIn\Include_AddIn\I133691\_ChartAddInBase.cpp
; File C:\Program Files (x86)\Microsoft Visual Studio\2019\Community\VC\Tools\MSVC\14.29.30133\atlmfc\include\afx.inl
;	COMDAT ??_GCChartAddInBase133691@@MAEPAXI@Z
_TEXT	SEGMENT
__$EHRec$ = -12						; size = 12
___flags$ = 8						; size = 4
??_GCChartAddInBase133691@@MAEPAXI@Z PROC		; CChartAddInBase133691::`scalar deleting destructor', COMDAT
; _this$ = ecx
  00000	55		 push	 ebp
  00001	8b ec		 mov	 ebp, esp
  00003	6a ff		 push	 -1
  00005	68 00 00 00 00	 push	 __ehhandler$??_GCChartAddInBase133691@@MAEPAXI@Z
  0000a	64 a1 00 00 00
	00		 mov	 eax, DWORD PTR fs:0
  00010	50		 push	 eax
  00011	56		 push	 esi
  00012	a1 00 00 00 00	 mov	 eax, DWORD PTR ___security_cookie
  00017	33 c5		 xor	 eax, ebp
  00019	50		 push	 eax
  0001a	8d 45 f4	 lea	 eax, DWORD PTR __$EHRec$[ebp]
  0001d	64 a3 00 00 00
	00		 mov	 DWORD PTR fs:0, eax
  00023	8b f1		 mov	 esi, ecx
; File D:\git\src\IBK\IBK_DRFN\ProjSrc\SrcChartEx\ChartAddIn\ChartPeriodSummaryAddIn\Include_AddIn\I133691\_ChartAddInBase.cpp

; 76   : 	if( m_pIChartOCX)

  00025	8b 4e 0c	 mov	 ecx, DWORD PTR [esi+12]
  00028	c7 45 fc 00 00
	00 00		 mov	 DWORD PTR __$EHRec$[ebp+8], 0
  0002f	c7 06 00 00 00
	00		 mov	 DWORD PTR [esi], OFFSET ??_7CChartAddInBase133691@@6BCIWUnknown@@@
  00035	c7 46 08 00 00
	00 00		 mov	 DWORD PTR [esi+8], OFFSET ??_7CChartAddInBase133691@@6BIChartAddIn133691@@@
  0003c	85 c9		 test	 ecx, ecx
  0003e	74 0d		 je	 SHORT $LN8@scalar

; 77   : 	{
; 78   : 		m_pIChartOCX->Release();

  00040	8b 01		 mov	 eax, DWORD PTR [ecx]
  00042	51		 push	 ecx
  00043	ff 50 08	 call	 DWORD PTR [eax+8]

; 79   : 		m_pIChartOCX = NULL;

  00046	c7 46 0c 00 00
	00 00		 mov	 DWORD PTR [esi+12], 0
$LN8@scalar:

; 80   : 	}
; 81   : 
; 82   : 	// (2004.10.11, 배승원) OCX로부터 주요 Manager의 Interface를 구하여 관리한다.
; 83   : 	if( m_pIPacketListManager)

  0004d	8b 4e 20	 mov	 ecx, DWORD PTR [esi+32]
  00050	85 c9		 test	 ecx, ecx
  00052	74 0d		 je	 SHORT $LN9@scalar

; 84   : 	{
; 85   : 		m_pIPacketListManager->Release();

  00054	8b 01		 mov	 eax, DWORD PTR [ecx]
  00056	51		 push	 ecx
  00057	ff 50 08	 call	 DWORD PTR [eax+8]

; 86   : 		m_pIPacketListManager = NULL;

  0005a	c7 46 20 00 00
	00 00		 mov	 DWORD PTR [esi+32], 0
$LN9@scalar:

; 87   : 	}
; 88   : 	if( m_pIDefaultPacketManager)

  00061	8b 4e 24	 mov	 ecx, DWORD PTR [esi+36]
  00064	85 c9		 test	 ecx, ecx
  00066	74 0d		 je	 SHORT $LN10@scalar

; 89   : 	{
; 90   : 		m_pIDefaultPacketManager->Release();

  00068	8b 01		 mov	 eax, DWORD PTR [ecx]
  0006a	51		 push	 ecx
  0006b	ff 50 08	 call	 DWORD PTR [eax+8]

; 91   : 		m_pIDefaultPacketManager = NULL;

  0006e	c7 46 24 00 00
	00 00		 mov	 DWORD PTR [esi+36], 0
$LN10@scalar:

; 92   : 	}
; 93   : 	if( m_pIChartManager)

  00075	8b 4e 28	 mov	 ecx, DWORD PTR [esi+40]
  00078	85 c9		 test	 ecx, ecx
  0007a	74 0d		 je	 SHORT $LN11@scalar

; 94   : 	{
; 95   : 		m_pIChartManager->Release();

  0007c	8b 01		 mov	 eax, DWORD PTR [ecx]
  0007e	51		 push	 ecx
  0007f	ff 50 08	 call	 DWORD PTR [eax+8]

; 96   : 		m_pIChartManager = NULL;

  00082	c7 46 28 00 00
	00 00		 mov	 DWORD PTR [esi+40], 0
$LN11@scalar:

; 97   : 	}
; 98   : 	if( m_pIGraphInfoManager)

  00089	8b 4e 2c	 mov	 ecx, DWORD PTR [esi+44]
  0008c	85 c9		 test	 ecx, ecx
  0008e	74 0d		 je	 SHORT $LN12@scalar

; 99   : 	{
; 100  : 		m_pIGraphInfoManager->Release();

  00090	8b 01		 mov	 eax, DWORD PTR [ecx]
  00092	51		 push	 ecx
  00093	ff 50 08	 call	 DWORD PTR [eax+8]

; 101  : 		m_pIGraphInfoManager = NULL;

  00096	c7 46 2c 00 00
	00 00		 mov	 DWORD PTR [esi+44], 0
$LN12@scalar:

; 102  : 	}
; 103  : 	if( m_pIAddInToolMgr)

  0009d	8b 4e 30	 mov	 ecx, DWORD PTR [esi+48]
  000a0	85 c9		 test	 ecx, ecx
  000a2	74 0d		 je	 SHORT $LN13@scalar

; 104  : 	{
; 105  : 		m_pIAddInToolMgr->Release();

  000a4	8b 01		 mov	 eax, DWORD PTR [ecx]
  000a6	51		 push	 ecx
  000a7	ff 50 08	 call	 DWORD PTR [eax+8]

; 106  : 		m_pIAddInToolMgr = NULL;

  000aa	c7 46 30 00 00
	00 00		 mov	 DWORD PTR [esi+48], 0
$LN13@scalar:

; 107  : 	}
; 108  : }

  000b1	8b ce		 mov	 ecx, esi
  000b3	c7 46 08 00 00
	00 00		 mov	 DWORD PTR [esi+8], OFFSET ??_7IChartAddIn133691@@6B@
  000ba	e8 00 00 00 00	 call	 ??1CIWUnknown@@MAE@XZ	; CIWUnknown::~CIWUnknown
  000bf	8b 45 08	 mov	 eax, DWORD PTR ___flags$[ebp]
  000c2	a8 01		 test	 al, 1
  000c4	74 2c		 je	 SHORT $LN18@scalar
  000c6	a8 04		 test	 al, 4
  000c8	75 1d		 jne	 SHORT $LN3@scalar
; File C:\Program Files (x86)\Microsoft Visual Studio\2019\Community\VC\Tools\MSVC\14.29.30133\atlmfc\include\afx.inl

; 112  : 	{ ::operator delete(p); }

  000ca	56		 push	 esi
  000cb	e8 00 00 00 00	 call	 ??3@YAXPAX@Z		; operator delete
  000d0	83 c4 04	 add	 esp, 4
  000d3	8b c6		 mov	 eax, esi
  000d5	8b 4d f4	 mov	 ecx, DWORD PTR __$EHRec$[ebp]
  000d8	64 89 0d 00 00
	00 00		 mov	 DWORD PTR fs:0, ecx
  000df	59		 pop	 ecx
  000e0	5e		 pop	 esi
  000e1	8b e5		 mov	 esp, ebp
  000e3	5d		 pop	 ebp
  000e4	c2 04 00	 ret	 4
$LN3@scalar:
  000e7	6a 40		 push	 64			; 00000040H
  000e9	56		 push	 esi
  000ea	e8 00 00 00 00	 call	 ?__global_delete@@YAXPAXI@Z ; __global_delete
  000ef	83 c4 08	 add	 esp, 8
$LN18@scalar:
  000f2	8b c6		 mov	 eax, esi
  000f4	8b 4d f4	 mov	 ecx, DWORD PTR __$EHRec$[ebp]
  000f7	64 89 0d 00 00
	00 00		 mov	 DWORD PTR fs:0, ecx
  000fe	59		 pop	 ecx
  000ff	5e		 pop	 esi
  00100	8b e5		 mov	 esp, ebp
  00102	5d		 pop	 ebp
  00103	c2 04 00	 ret	 4
  00106	cc		 int	 3
  00107	cc		 int	 3
  00108	cc		 int	 3
  00109	cc		 int	 3
  0010a	cc		 int	 3
_TEXT	ENDS
;	COMDAT text$x
text$x	SEGMENT
__ehhandler$??_GCChartAddInBase133691@@MAEPAXI@Z:
  00000	90		 npad	 1
  00001	90		 npad	 1
  00002	8b 54 24 08	 mov	 edx, DWORD PTR [esp+8]
  00006	8d 42 0c	 lea	 eax, DWORD PTR [edx+12]
  00009	8b 4a f8	 mov	 ecx, DWORD PTR [edx-8]
  0000c	33 c8		 xor	 ecx, eax
  0000e	e8 00 00 00 00	 call	 @__security_check_cookie@4
  00013	b8 00 00 00 00	 mov	 eax, OFFSET __ehfuncinfo$??_GCChartAddInBase133691@@MAEPAXI@Z
  00018	e9 00 00 00 00	 jmp	 ___CxxFrameHandler3
text$x	ENDS
??_GCChartAddInBase133691@@MAEPAXI@Z ENDP		; CChartAddInBase133691::`scalar deleting destructor'
; Function compile flags: /Ogtp
; File D:\git\src\IBK\IBK_DRFN\ProjSrc\SrcChartEx\ChartAddIn\ChartPeriodSummaryAddIn\Include_AddIn\I133691\_ChartAddInBase.h
;	COMDAT ?OnRButtonDblClk@CChartAddInBase133691@@MAEHPAUHDC__@@IAAUtagPOINT@@K@Z
_TEXT	SEGMENT
_p_hDC$ = 8						; size = 4
_nFlags$ = 12						; size = 4
_point$ = 16						; size = 4
_p_dwMouseActionID$ = 20				; size = 4
?OnRButtonDblClk@CChartAddInBase133691@@MAEHPAUHDC__@@IAAUtagPOINT@@K@Z PROC ; CChartAddInBase133691::OnRButtonDblClk, COMDAT
; _this$ = ecx

; 215  : 	virtual BOOL	OnRButtonDblClk(	HDC p_hDC, UINT nFlags, POINT &point, const DWORD p_dwMouseActionID)									{	return FALSE;	}

  00000	33 c0		 xor	 eax, eax
  00002	c2 10 00	 ret	 16			; 00000010H
?OnRButtonDblClk@CChartAddInBase133691@@MAEHPAUHDC__@@IAAUtagPOINT@@K@Z ENDP ; CChartAddInBase133691::OnRButtonDblClk
_TEXT	ENDS
; Function compile flags: /Ogtp
; File D:\git\src\IBK\IBK_DRFN\ProjSrc\SrcChartEx\ChartAddIn\ChartPeriodSummaryAddIn\Include_AddIn\I133691\_ChartAddInBase.h
;	COMDAT ?OnRButtonUp@CChartAddInBase133691@@MAEHPAUHDC__@@IAAUtagPOINT@@K@Z
_TEXT	SEGMENT
_p_hDC$ = 8						; size = 4
_nFlags$ = 12						; size = 4
_point$ = 16						; size = 4
_p_dwMouseActionID$ = 20				; size = 4
?OnRButtonUp@CChartAddInBase133691@@MAEHPAUHDC__@@IAAUtagPOINT@@K@Z PROC ; CChartAddInBase133691::OnRButtonUp, COMDAT
; _this$ = ecx

; 214  : 	virtual BOOL	OnRButtonUp(		HDC p_hDC, UINT nFlags, POINT &point, const DWORD p_dwMouseActionID)									{	return FALSE;	}

  00000	33 c0		 xor	 eax, eax
  00002	c2 10 00	 ret	 16			; 00000010H
?OnRButtonUp@CChartAddInBase133691@@MAEHPAUHDC__@@IAAUtagPOINT@@K@Z ENDP ; CChartAddInBase133691::OnRButtonUp
_TEXT	ENDS
; Function compile flags: /Ogtp
; File D:\git\src\IBK\IBK_DRFN\ProjSrc\SrcChartEx\ChartAddIn\ChartPeriodSummaryAddIn\Include_AddIn\I133691\_ChartAddInBase.h
;	COMDAT ?OnRButtonDown@CChartAddInBase133691@@MAEHPAUHDC__@@IAAUtagPOINT@@K@Z
_TEXT	SEGMENT
_p_hDC$ = 8						; size = 4
_nFlags$ = 12						; size = 4
_point$ = 16						; size = 4
_p_dwMouseActionID$ = 20				; size = 4
?OnRButtonDown@CChartAddInBase133691@@MAEHPAUHDC__@@IAAUtagPOINT@@K@Z PROC ; CChartAddInBase133691::OnRButtonDown, COMDAT
; _this$ = ecx

; 213  : 	virtual BOOL	OnRButtonDown(		HDC p_hDC, UINT nFlags, POINT &point, const DWORD p_dwMouseActionID)									{	return FALSE;	}

  00000	33 c0		 xor	 eax, eax
  00002	c2 10 00	 ret	 16			; 00000010H
?OnRButtonDown@CChartAddInBase133691@@MAEHPAUHDC__@@IAAUtagPOINT@@K@Z ENDP ; CChartAddInBase133691::OnRButtonDown
_TEXT	ENDS
; Function compile flags: /Ogtp
; File D:\git\src\IBK\IBK_DRFN\ProjSrc\SrcChartEx\ChartAddIn\ChartPeriodSummaryAddIn\Include_AddIn\I133691\_ChartAddInBase.h
;	COMDAT ?OnLButtonDblClk@CChartAddInBase133691@@MAEHPAUHDC__@@IAAUtagPOINT@@K@Z
_TEXT	SEGMENT
_p_hDC$ = 8						; size = 4
_nFlags$ = 12						; size = 4
_point$ = 16						; size = 4
_p_dwMouseActionID$ = 20				; size = 4
?OnLButtonDblClk@CChartAddInBase133691@@MAEHPAUHDC__@@IAAUtagPOINT@@K@Z PROC ; CChartAddInBase133691::OnLButtonDblClk, COMDAT
; _this$ = ecx

; 212  : 	virtual BOOL	OnLButtonDblClk(	HDC p_hDC, UINT nFlags, POINT &point, const DWORD p_dwMouseActionID)									{	return FALSE;	}

  00000	33 c0		 xor	 eax, eax
  00002	c2 10 00	 ret	 16			; 00000010H
?OnLButtonDblClk@CChartAddInBase133691@@MAEHPAUHDC__@@IAAUtagPOINT@@K@Z ENDP ; CChartAddInBase133691::OnLButtonDblClk
_TEXT	ENDS
; Function compile flags: /Ogtp
; File D:\git\src\IBK\IBK_DRFN\ProjSrc\SrcChartEx\ChartAddIn\ChartPeriodSummaryAddIn\Include_AddIn\I133691\_ChartAddInBase.h
;	COMDAT ?OnLButtonUp@CChartAddInBase133691@@MAEHPAUHDC__@@IAAUtagPOINT@@K@Z
_TEXT	SEGMENT
_p_hDC$ = 8						; size = 4
_nFlags$ = 12						; size = 4
_point$ = 16						; size = 4
_p_dwMouseActionID$ = 20				; size = 4
?OnLButtonUp@CChartAddInBase133691@@MAEHPAUHDC__@@IAAUtagPOINT@@K@Z PROC ; CChartAddInBase133691::OnLButtonUp, COMDAT
; _this$ = ecx

; 211  : 	virtual BOOL	OnLButtonUp(		HDC p_hDC, UINT nFlags, POINT &point, const DWORD p_dwMouseActionID)									{	return FALSE;	}

  00000	33 c0		 xor	 eax, eax
  00002	c2 10 00	 ret	 16			; 00000010H
?OnLButtonUp@CChartAddInBase133691@@MAEHPAUHDC__@@IAAUtagPOINT@@K@Z ENDP ; CChartAddInBase133691::OnLButtonUp
_TEXT	ENDS
; Function compile flags: /Ogtp
; File D:\git\src\IBK\IBK_DRFN\ProjSrc\SrcChartEx\ChartAddIn\ChartPeriodSummaryAddIn\Include_AddIn\I133691\_ChartAddInBase.h
;	COMDAT ?OnLButtonDown@CChartAddInBase133691@@MAEHPAUHDC__@@IAAUtagPOINT@@K@Z
_TEXT	SEGMENT
_p_hDC$ = 8						; size = 4
_nFlags$ = 12						; size = 4
_point$ = 16						; size = 4
_p_dwMouseActionID$ = 20				; size = 4
?OnLButtonDown@CChartAddInBase133691@@MAEHPAUHDC__@@IAAUtagPOINT@@K@Z PROC ; CChartAddInBase133691::OnLButtonDown, COMDAT
; _this$ = ecx

; 210  : 	virtual BOOL	OnLButtonDown(		HDC p_hDC, UINT nFlags, POINT &point, const DWORD p_dwMouseActionID)									{	return FALSE;	}

  00000	33 c0		 xor	 eax, eax
  00002	c2 10 00	 ret	 16			; 00000010H
?OnLButtonDown@CChartAddInBase133691@@MAEHPAUHDC__@@IAAUtagPOINT@@K@Z ENDP ; CChartAddInBase133691::OnLButtonDown
_TEXT	ENDS
; Function compile flags: /Ogtp
; File D:\git\src\IBK\IBK_DRFN\ProjSrc\SrcChartEx\ChartAddIn\ChartPeriodSummaryAddIn\Include_AddIn\I133691\_ChartAddInBase.h
;	COMDAT ?OnMouseMove@CChartAddInBase133691@@MAEHPAUHDC__@@IAAUtagPOINT@@KQAUHBITMAP__@@@Z
_TEXT	SEGMENT
_p_hDC$ = 8						; size = 4
_nFlags$ = 12						; size = 4
_point$ = 16						; size = 4
_p_dwMouseActionID$ = 20				; size = 4
_p_hbmpMainOSB$ = 24					; size = 4
?OnMouseMove@CChartAddInBase133691@@MAEHPAUHDC__@@IAAUtagPOINT@@KQAUHBITMAP__@@@Z PROC ; CChartAddInBase133691::OnMouseMove, COMDAT
; _this$ = ecx

; 209  : 	virtual BOOL	OnMouseMove(		HDC p_hDC, UINT nFlags, POINT &point, const DWORD p_dwMouseActionID, const HBITMAP p_hbmpMainOSB)		{	return FALSE;	}	// (2006/11/5 - Seung-Won, Bae) Support MainOSB

  00000	33 c0		 xor	 eax, eax
  00002	c2 14 00	 ret	 20			; 00000014H
?OnMouseMove@CChartAddInBase133691@@MAEHPAUHDC__@@IAAUtagPOINT@@KQAUHBITMAP__@@@Z ENDP ; CChartAddInBase133691::OnMouseMove
_TEXT	ENDS
; Function compile flags: /Ogtp
; File D:\git\src\IBK\IBK_DRFN\ProjSrc\SrcChartEx\ChartAddIn\ChartPeriodSummaryAddIn\Include_AddIn\I133691\_ChartAddInBase.h
;	COMDAT ?OnMouseWheel@CChartAddInBase133691@@MAEHIFUtagPOINT@@K@Z
_TEXT	SEGMENT
_nFlags$ = 8						; size = 4
_zDelta$ = 12						; size = 2
_pt$ = 16						; size = 8
_p_dwMouseActionID$ = 24				; size = 4
?OnMouseWheel@CChartAddInBase133691@@MAEHIFUtagPOINT@@K@Z PROC ; CChartAddInBase133691::OnMouseWheel, COMDAT
; _this$ = ecx

; 208  : 	virtual BOOL	OnMouseWheel(		UINT nFlags, short zDelta, POINT pt, const DWORD p_dwMouseActionID)										{	return FALSE;	}

  00000	33 c0		 xor	 eax, eax
  00002	c2 14 00	 ret	 20			; 00000014H
?OnMouseWheel@CChartAddInBase133691@@MAEHIFUtagPOINT@@K@Z ENDP ; CChartAddInBase133691::OnMouseWheel
_TEXT	ENDS
; Function compile flags: /Ogtp
; File D:\git\src\IBK\IBK_DRFN\ProjSrc\SrcChartEx\ChartAddIn\ChartPeriodSummaryAddIn\Include_AddIn\I133691\_ChartAddInBase.h
;	COMDAT ?OnKeyUp@CChartAddInBase133691@@MAEHIII@Z
_TEXT	SEGMENT
_nChar$ = 8						; size = 4
_nRepCnt$ = 12						; size = 4
_nFlags$ = 16						; size = 4
?OnKeyUp@CChartAddInBase133691@@MAEHIII@Z PROC		; CChartAddInBase133691::OnKeyUp, COMDAT
; _this$ = ecx

; 207  : 	virtual BOOL	OnKeyUp(			UINT nChar, UINT nRepCnt, UINT nFlags)																	{	return FALSE;	}

  00000	33 c0		 xor	 eax, eax
  00002	c2 0c 00	 ret	 12			; 0000000cH
?OnKeyUp@CChartAddInBase133691@@MAEHIII@Z ENDP		; CChartAddInBase133691::OnKeyUp
_TEXT	ENDS
; Function compile flags: /Ogtp
; File D:\git\src\IBK\IBK_DRFN\ProjSrc\SrcChartEx\ChartAddIn\ChartPeriodSummaryAddIn\Include_AddIn\I133691\_ChartAddInBase.h
;	COMDAT ?OnKeyDown@CChartAddInBase133691@@MAEHIII@Z
_TEXT	SEGMENT
_nChar$ = 8						; size = 4
_nRepCnt$ = 12						; size = 4
_nFlags$ = 16						; size = 4
?OnKeyDown@CChartAddInBase133691@@MAEHIII@Z PROC	; CChartAddInBase133691::OnKeyDown, COMDAT
; _this$ = ecx

; 206  : 	virtual BOOL	OnKeyDown(			UINT nChar, UINT nRepCnt, UINT nFlags)																	{	return FALSE;	}

  00000	33 c0		 xor	 eax, eax
  00002	c2 0c 00	 ret	 12			; 0000000cH
?OnKeyDown@CChartAddInBase133691@@MAEHIII@Z ENDP	; CChartAddInBase133691::OnKeyDown
_TEXT	ENDS
; Function compile flags: /Ogtp
; File D:\git\src\IBK\IBK_DRFN\ProjSrc\SrcChartEx\ChartAddIn\ChartPeriodSummaryAddIn\Include_AddIn\I133691\_ChartAddInBase.h
;	COMDAT ?OnAddInToolCommand@CChartAddInBase133691@@MAEHAAJW4EAICommandType@@JJ@Z
_TEXT	SEGMENT
_p_lResult$ = 8						; size = 4
_p_eCommandID$ = 12					; size = 4
_p_lParam1$ = 16					; size = 4
_p_lParam2$ = 20					; size = 4
?OnAddInToolCommand@CChartAddInBase133691@@MAEHAAJW4EAICommandType@@JJ@Z PROC ; CChartAddInBase133691::OnAddInToolCommand, COMDAT
; _this$ = ecx

; 204  : 	virtual BOOL	OnAddInToolCommand(	long &p_lResult, const EAICommandType p_eCommandID, const long p_lParam1, const long p_lParam2)			{	return FALSE;	}

  00000	33 c0		 xor	 eax, eax
  00002	c2 10 00	 ret	 16			; 00000010H
?OnAddInToolCommand@CChartAddInBase133691@@MAEHAAJW4EAICommandType@@JJ@Z ENDP ; CChartAddInBase133691::OnAddInToolCommand
_TEXT	ENDS
; Function compile flags: /Ogtp
; File D:\git\src\IBK\IBK_DRFN\ProjSrc\SrcChartEx\ChartAddIn\ChartPeriodSummaryAddIn\Include_AddIn\I133691\_ChartAddInBase.h
;	COMDAT ?OnAddInToolCommand@CChartAddInBase133691@@MAEHAAJW4EAICommandType@@J@Z
_TEXT	SEGMENT
_p_lResult$ = 8						; size = 4
_p_eCommandID$ = 12					; size = 4
_p_lParam$ = 16						; size = 4
?OnAddInToolCommand@CChartAddInBase133691@@MAEHAAJW4EAICommandType@@J@Z PROC ; CChartAddInBase133691::OnAddInToolCommand, COMDAT
; _this$ = ecx

; 203  : 	virtual BOOL	OnAddInToolCommand(	long &p_lResult, const EAICommandType p_eCommandID, const long p_lParam)								{	return FALSE;	}

  00000	33 c0		 xor	 eax, eax
  00002	c2 0c 00	 ret	 12			; 0000000cH
?OnAddInToolCommand@CChartAddInBase133691@@MAEHAAJW4EAICommandType@@J@Z ENDP ; CChartAddInBase133691::OnAddInToolCommand
_TEXT	ENDS
; Function compile flags: /Ogtp
; File D:\git\src\IBK\IBK_DRFN\ProjSrc\SrcChartEx\ChartAddIn\ChartPeriodSummaryAddIn\Include_AddIn\I133691\_ChartAddInBase.h
;	COMDAT ?OnAddInToolCommand@CChartAddInBase133691@@MAEHAAJW4EAICommandType@@PBDPAVCObject@@@Z
_TEXT	SEGMENT
_p_lResult$ = 8						; size = 4
_p_eCommandID$ = 12					; size = 4
_p_szParam$ = 16					; size = 4
_p_pParam$ = 20						; size = 4
?OnAddInToolCommand@CChartAddInBase133691@@MAEHAAJW4EAICommandType@@PBDPAVCObject@@@Z PROC ; CChartAddInBase133691::OnAddInToolCommand, COMDAT
; _this$ = ecx

; 202  : 	virtual BOOL	OnAddInToolCommand(	long &p_lResult, const EAICommandType p_eCommandID, const char *p_szParam, CObject *p_pParam)			{	return FALSE;	}

  00000	33 c0		 xor	 eax, eax
  00002	c2 10 00	 ret	 16			; 00000010H
?OnAddInToolCommand@CChartAddInBase133691@@MAEHAAJW4EAICommandType@@PBDPAVCObject@@@Z ENDP ; CChartAddInBase133691::OnAddInToolCommand
_TEXT	ENDS
; Function compile flags: /Ogtp
; File D:\git\src\IBK\IBK_DRFN\ProjSrc\SrcChartEx\ChartAddIn\ChartPeriodSummaryAddIn\Include_AddIn\I133691\_ChartAddInBase.h
;	COMDAT ?OnAddInToolCommand@CChartAddInBase133691@@MAEHAAJW4EAICommandType@@PBD@Z
_TEXT	SEGMENT
_p_lResult$ = 8						; size = 4
_p_eCommandID$ = 12					; size = 4
_p_szParam$ = 16					; size = 4
?OnAddInToolCommand@CChartAddInBase133691@@MAEHAAJW4EAICommandType@@PBD@Z PROC ; CChartAddInBase133691::OnAddInToolCommand, COMDAT
; _this$ = ecx

; 201  : 	virtual BOOL	OnAddInToolCommand(	long &p_lResult, const EAICommandType p_eCommandID, const char *p_szParam)								{	return FALSE;	}

  00000	33 c0		 xor	 eax, eax
  00002	c2 0c 00	 ret	 12			; 0000000cH
?OnAddInToolCommand@CChartAddInBase133691@@MAEHAAJW4EAICommandType@@PBD@Z ENDP ; CChartAddInBase133691::OnAddInToolCommand
_TEXT	ENDS
; Function compile flags: /Ogtp
; File D:\git\src\IBK\IBK_DRFN\ProjSrc\SrcChartEx\ChartAddIn\ChartPeriodSummaryAddIn\Include_AddIn\I133691\_ChartAddInBase.h
;	COMDAT ?OnAddInToolCommand@CChartAddInBase133691@@MAEHAAJW4EAICommandType@@PAUIGraphInfo133691@@@Z
_TEXT	SEGMENT
_p_lResult$ = 8						; size = 4
_p_eCommandID$ = 12					; size = 4
_p_pIGraphInfo$ = 16					; size = 4
?OnAddInToolCommand@CChartAddInBase133691@@MAEHAAJW4EAICommandType@@PAUIGraphInfo133691@@@Z PROC ; CChartAddInBase133691::OnAddInToolCommand, COMDAT
; _this$ = ecx

; 200  : 	virtual BOOL	OnAddInToolCommand(	long &p_lResult, const EAICommandType p_eCommandID, IGraphInfo *p_pIGraphInfo)							{	return FALSE;	}

  00000	33 c0		 xor	 eax, eax
  00002	c2 0c 00	 ret	 12			; 0000000cH
?OnAddInToolCommand@CChartAddInBase133691@@MAEHAAJW4EAICommandType@@PAUIGraphInfo133691@@@Z ENDP ; CChartAddInBase133691::OnAddInToolCommand
_TEXT	ENDS
; Function compile flags: /Ogtp
; File D:\git\src\IBK\IBK_DRFN\ProjSrc\SrcChartEx\ChartAddIn\ChartPeriodSummaryAddIn\Include_AddIn\I133691\_ChartAddInBase.h
;	COMDAT ?OnAddInToolCommand@CChartAddInBase133691@@MAEHAAJW4EAICommandType@@@Z
_TEXT	SEGMENT
_p_lResult$ = 8						; size = 4
_p_eCommandID$ = 12					; size = 4
?OnAddInToolCommand@CChartAddInBase133691@@MAEHAAJW4EAICommandType@@@Z PROC ; CChartAddInBase133691::OnAddInToolCommand, COMDAT
; _this$ = ecx

; 199  : 	virtual BOOL	OnAddInToolCommand(	long &p_lResult, const EAICommandType p_eCommandID)														{	return FALSE;	}

  00000	33 c0		 xor	 eax, eax
  00002	c2 08 00	 ret	 8
?OnAddInToolCommand@CChartAddInBase133691@@MAEHAAJW4EAICommandType@@@Z ENDP ; CChartAddInBase133691::OnAddInToolCommand
_TEXT	ENDS
; Function compile flags: /Ogtp
; File D:\git\src\IBK\IBK_DRFN\ProjSrc\SrcChartEx\ChartAddIn\ChartPeriodSummaryAddIn\Include_AddIn\I133691\_ChartAddInBase.h
;	COMDAT ?OnAddInToolCommand@CChartAddInBase133691@@MAEHW4EAICommandType@@JJJJJJJJJ@Z
_TEXT	SEGMENT
_p_eCommandID$ = 8					; size = 4
_p_lParam1$ = 12					; size = 4
_p_lParam2$ = 16					; size = 4
_p_lParam3$ = 20					; size = 4
_p_lParam4$ = 24					; size = 4
_p_lParam5$ = 28					; size = 4
_p_lParam6$ = 32					; size = 4
_p_lParam7$ = 36					; size = 4
_p_lParam8$ = 40					; size = 4
_p_lParam9$ = 44					; size = 4
?OnAddInToolCommand@CChartAddInBase133691@@MAEHW4EAICommandType@@JJJJJJJJJ@Z PROC ; CChartAddInBase133691::OnAddInToolCommand, COMDAT
; _this$ = ecx

; 198  : 	virtual BOOL	OnAddInToolCommand(	const EAICommandType p_eCommandID, const long p_lParam1, const long p_lParam2, const long p_lParam3, const long p_lParam4, const long p_lParam5, const long p_lParam6, const long p_lParam7, const long p_lParam8, const long p_lParam9)	{	return FALSE;	}

  00000	33 c0		 xor	 eax, eax
  00002	c2 28 00	 ret	 40			; 00000028H
?OnAddInToolCommand@CChartAddInBase133691@@MAEHW4EAICommandType@@JJJJJJJJJ@Z ENDP ; CChartAddInBase133691::OnAddInToolCommand
_TEXT	ENDS
; Function compile flags: /Ogtp
; File D:\git\src\IBK\IBK_DRFN\ProjSrc\SrcChartEx\ChartAddIn\ChartPeriodSummaryAddIn\Include_AddIn\I133691\_ChartAddInBase.h
;	COMDAT ?OnAddInToolCommand@CChartAddInBase133691@@MAEHW4EAICommandType@@JJ@Z
_TEXT	SEGMENT
_p_eCommandID$ = 8					; size = 4
_p_lParam1$ = 12					; size = 4
_p_lParam2$ = 16					; size = 4
?OnAddInToolCommand@CChartAddInBase133691@@MAEHW4EAICommandType@@JJ@Z PROC ; CChartAddInBase133691::OnAddInToolCommand, COMDAT
; _this$ = ecx

; 197  : 	virtual BOOL	OnAddInToolCommand(	const EAICommandType p_eCommandID, const long p_lParam1, const long p_lParam2)							{	return FALSE;	}

  00000	33 c0		 xor	 eax, eax
  00002	c2 0c 00	 ret	 12			; 0000000cH
?OnAddInToolCommand@CChartAddInBase133691@@MAEHW4EAICommandType@@JJ@Z ENDP ; CChartAddInBase133691::OnAddInToolCommand
_TEXT	ENDS
; Function compile flags: /Ogtp
; File D:\git\src\IBK\IBK_DRFN\ProjSrc\SrcChartEx\ChartAddIn\ChartPeriodSummaryAddIn\Include_AddIn\I133691\_ChartAddInBase.h
;	COMDAT ?OnAddInToolCommand@CChartAddInBase133691@@MAEHW4EAICommandType@@JPBD11@Z
_TEXT	SEGMENT
_p_eCommandID$ = 8					; size = 4
_p_lParam$ = 12						; size = 4
_p_szParam1$ = 16					; size = 4
_p_szParam2$ = 20					; size = 4
_p_szParam3$ = 24					; size = 4
?OnAddInToolCommand@CChartAddInBase133691@@MAEHW4EAICommandType@@JPBD11@Z PROC ; CChartAddInBase133691::OnAddInToolCommand, COMDAT
; _this$ = ecx

; 196  : 	virtual BOOL	OnAddInToolCommand( const EAICommandType p_eCommandID, const long p_lParam, const char *p_szParam1, const char *p_szParam2, const char *p_szParam3)	{	return FALSE;	}

  00000	33 c0		 xor	 eax, eax
  00002	c2 14 00	 ret	 20			; 00000014H
?OnAddInToolCommand@CChartAddInBase133691@@MAEHW4EAICommandType@@JPBD11@Z ENDP ; CChartAddInBase133691::OnAddInToolCommand
_TEXT	ENDS
; Function compile flags: /Ogtp
; File D:\git\src\IBK\IBK_DRFN\ProjSrc\SrcChartEx\ChartAddIn\ChartPeriodSummaryAddIn\Include_AddIn\I133691\_ChartAddInBase.h
;	COMDAT ?OnAddInToolCommand@CChartAddInBase133691@@MAEHW4EAICommandType@@JPBD@Z
_TEXT	SEGMENT
_p_eCommandID$ = 8					; size = 4
_p_lParam$ = 12						; size = 4
_p_szParam$ = 16					; size = 4
?OnAddInToolCommand@CChartAddInBase133691@@MAEHW4EAICommandType@@JPBD@Z PROC ; CChartAddInBase133691::OnAddInToolCommand, COMDAT
; _this$ = ecx

; 195  : 	virtual BOOL	OnAddInToolCommand( const EAICommandType p_eCommandID, const long p_lParam, const char *p_szParam)							{	return FALSE;	}

  00000	33 c0		 xor	 eax, eax
  00002	c2 0c 00	 ret	 12			; 0000000cH
?OnAddInToolCommand@CChartAddInBase133691@@MAEHW4EAICommandType@@JPBD@Z ENDP ; CChartAddInBase133691::OnAddInToolCommand
_TEXT	ENDS
; Function compile flags: /Ogtp
; File D:\git\src\IBK\IBK_DRFN\ProjSrc\SrcChartEx\ChartAddIn\ChartPeriodSummaryAddIn\Include_AddIn\I133691\_ChartAddInBase.h
;	COMDAT ?OnAddInToolCommand@CChartAddInBase133691@@MAEHW4EAICommandType@@J@Z
_TEXT	SEGMENT
_p_eCommandID$ = 8					; size = 4
_p_lParam$ = 12						; size = 4
?OnAddInToolCommand@CChartAddInBase133691@@MAEHW4EAICommandType@@J@Z PROC ; CChartAddInBase133691::OnAddInToolCommand, COMDAT
; _this$ = ecx

; 194  : 	virtual BOOL	OnAddInToolCommand(	const EAICommandType p_eCommandID, const long p_lParam)													{	return FALSE;	}

  00000	33 c0		 xor	 eax, eax
  00002	c2 08 00	 ret	 8
?OnAddInToolCommand@CChartAddInBase133691@@MAEHW4EAICommandType@@J@Z ENDP ; CChartAddInBase133691::OnAddInToolCommand
_TEXT	ENDS
; Function compile flags: /Ogtp
; File D:\git\src\IBK\IBK_DRFN\ProjSrc\SrcChartEx\ChartAddIn\ChartPeriodSummaryAddIn\Include_AddIn\I133691\_ChartAddInBase.h
;	COMDAT ?OnAddInToolCommand@CChartAddInBase133691@@MAEHW4EAICommandType@@PBUIAddInDllBase@@@Z
_TEXT	SEGMENT
_p_eCommandID$ = 8					; size = 4
_p_pParam$ = 12						; size = 4
?OnAddInToolCommand@CChartAddInBase133691@@MAEHW4EAICommandType@@PBUIAddInDllBase@@@Z PROC ; CChartAddInBase133691::OnAddInToolCommand, COMDAT
; _this$ = ecx

; 193  : 	virtual BOOL	OnAddInToolCommand(	const EAICommandType p_eCommandID, const IAddInDllBase *p_pParam)										{	return FALSE;	}

  00000	33 c0		 xor	 eax, eax
  00002	c2 08 00	 ret	 8
?OnAddInToolCommand@CChartAddInBase133691@@MAEHW4EAICommandType@@PBUIAddInDllBase@@@Z ENDP ; CChartAddInBase133691::OnAddInToolCommand
_TEXT	ENDS
; Function compile flags: /Ogtp
; File D:\git\src\IBK\IBK_DRFN\ProjSrc\SrcChartEx\ChartAddIn\ChartPeriodSummaryAddIn\Include_AddIn\I133691\_ChartAddInBase.h
;	COMDAT ?OnAddInToolCommand@CChartAddInBase133691@@MAEHW4EAICommandType@@PBDJ@Z
_TEXT	SEGMENT
_p_eCommandID$ = 8					; size = 4
_p_szParam$ = 12					; size = 4
_p_lParam$ = 16						; size = 4
?OnAddInToolCommand@CChartAddInBase133691@@MAEHW4EAICommandType@@PBDJ@Z PROC ; CChartAddInBase133691::OnAddInToolCommand, COMDAT
; _this$ = ecx

; 192  : 	virtual BOOL	OnAddInToolCommand( const EAICommandType p_eCommandID, const char *p_szParam, const long p_lParam)							{	return FALSE;	}

  00000	33 c0		 xor	 eax, eax
  00002	c2 0c 00	 ret	 12			; 0000000cH
?OnAddInToolCommand@CChartAddInBase133691@@MAEHW4EAICommandType@@PBDJ@Z ENDP ; CChartAddInBase133691::OnAddInToolCommand
_TEXT	ENDS
; Function compile flags: /Ogtp
; File D:\git\src\IBK\IBK_DRFN\ProjSrc\SrcChartEx\ChartAddIn\ChartPeriodSummaryAddIn\Include_AddIn\I133691\_ChartAddInBase.h
;	COMDAT ?OnAddInToolCommand@CChartAddInBase133691@@MAEHW4EAICommandType@@PBD1@Z
_TEXT	SEGMENT
_p_eCommandID$ = 8					; size = 4
_p_szParam1$ = 12					; size = 4
_p_szParam2$ = 16					; size = 4
?OnAddInToolCommand@CChartAddInBase133691@@MAEHW4EAICommandType@@PBD1@Z PROC ; CChartAddInBase133691::OnAddInToolCommand, COMDAT
; _this$ = ecx

; 191  : 	virtual BOOL	OnAddInToolCommand(	const EAICommandType p_eCommandID, const char *p_szParam1, const char *p_szParam2)						{	return FALSE;	}

  00000	33 c0		 xor	 eax, eax
  00002	c2 0c 00	 ret	 12			; 0000000cH
?OnAddInToolCommand@CChartAddInBase133691@@MAEHW4EAICommandType@@PBD1@Z ENDP ; CChartAddInBase133691::OnAddInToolCommand
_TEXT	ENDS
; Function compile flags: /Ogtp
; File D:\git\src\IBK\IBK_DRFN\ProjSrc\SrcChartEx\ChartAddIn\ChartPeriodSummaryAddIn\Include_AddIn\I133691\_ChartAddInBase.h
;	COMDAT ?OnAddInToolCommand@CChartAddInBase133691@@MAEHW4EAICommandType@@PBD@Z
_TEXT	SEGMENT
_p_eCommandID$ = 8					; size = 4
_p_szParam$ = 12					; size = 4
?OnAddInToolCommand@CChartAddInBase133691@@MAEHW4EAICommandType@@PBD@Z PROC ; CChartAddInBase133691::OnAddInToolCommand, COMDAT
; _this$ = ecx

; 190  : 	virtual BOOL	OnAddInToolCommand(	const EAICommandType p_eCommandID, const char *p_szParam)												{	return FALSE;	}

  00000	33 c0		 xor	 eax, eax
  00002	c2 08 00	 ret	 8
?OnAddInToolCommand@CChartAddInBase133691@@MAEHW4EAICommandType@@PBD@Z ENDP ; CChartAddInBase133691::OnAddInToolCommand
_TEXT	ENDS
; Function compile flags: /Ogtp
; File D:\git\src\IBK\IBK_DRFN\ProjSrc\SrcChartEx\ChartAddIn\ChartPeriodSummaryAddIn\Include_AddIn\I133691\_ChartAddInBase.h
;	COMDAT ?OnAddInToolCommand@CChartAddInBase133691@@MAEHW4EAICommandType@@PAUHDC__@@IAAUtagPOINT@@K@Z
_TEXT	SEGMENT
_p_eCommandID$ = 8					; size = 4
_p_hDC$ = 12						; size = 4
_nFlags$ = 16						; size = 4
_point$ = 20						; size = 4
_p_dwMouseActionID$ = 24				; size = 4
?OnAddInToolCommand@CChartAddInBase133691@@MAEHW4EAICommandType@@PAUHDC__@@IAAUtagPOINT@@K@Z PROC ; CChartAddInBase133691::OnAddInToolCommand, COMDAT
; _this$ = ecx

; 189  : 	virtual BOOL	OnAddInToolCommand(	const EAICommandType p_eCommandID, HDC p_hDC, UINT nFlags, POINT &point, const DWORD p_dwMouseActionID)	{	return FALSE;	}

  00000	33 c0		 xor	 eax, eax
  00002	c2 14 00	 ret	 20			; 00000014H
?OnAddInToolCommand@CChartAddInBase133691@@MAEHW4EAICommandType@@PAUHDC__@@IAAUtagPOINT@@K@Z ENDP ; CChartAddInBase133691::OnAddInToolCommand
_TEXT	ENDS
; Function compile flags: /Ogtp
; File D:\git\src\IBK\IBK_DRFN\ProjSrc\SrcChartEx\ChartAddIn\ChartPeriodSummaryAddIn\Include_AddIn\I133691\_ChartAddInBase.h
;	COMDAT ?OnAddInToolCommand@CChartAddInBase133691@@MAEHW4EAICommandType@@@Z
_TEXT	SEGMENT
_p_eCommandID$ = 8					; size = 4
?OnAddInToolCommand@CChartAddInBase133691@@MAEHW4EAICommandType@@@Z PROC ; CChartAddInBase133691::OnAddInToolCommand, COMDAT
; _this$ = ecx

; 188  : 	virtual BOOL	OnAddInToolCommand(	const EAICommandType p_eCommandID)																		{	return FALSE;	}

  00000	33 c0		 xor	 eax, eax
  00002	c2 04 00	 ret	 4
?OnAddInToolCommand@CChartAddInBase133691@@MAEHW4EAICommandType@@@Z ENDP ; CChartAddInBase133691::OnAddInToolCommand
_TEXT	ENDS
; Function compile flags: /Ogtp
; File D:\git\src\IBK\IBK_DRFN\ProjSrc\SrcChartEx\ChartAddIn\ChartPeriodSummaryAddIn\Include_AddIn\I133691\_ChartAddInBase.h
;	COMDAT ?OnAddInMsg@CChartAddInBase133691@@MAEHPBDJ@Z
_TEXT	SEGMENT
_p_szAddInItemName$ = 8					; size = 4
_p_lParam$ = 12						; size = 4
?OnAddInMsg@CChartAddInBase133691@@MAEHPBDJ@Z PROC	; CChartAddInBase133691::OnAddInMsg, COMDAT
; _this$ = ecx

; 187  : 	virtual BOOL	OnAddInMsg(			const char *p_szAddInItemName, const long p_lParam)														{	return FALSE;	}

  00000	33 c0		 xor	 eax, eax
  00002	c2 08 00	 ret	 8
?OnAddInMsg@CChartAddInBase133691@@MAEHPBDJ@Z ENDP	; CChartAddInBase133691::OnAddInMsg
_TEXT	ENDS
; Function compile flags: /Ogtp
; File D:\git\src\IBK\IBK_DRFN\ProjSrc\SrcChartEx\ChartAddIn\ChartPeriodSummaryAddIn\Include_AddIn\I133691\_ChartAddInBase.h
;	COMDAT ?OnCmdMsg@CChartAddInBase133691@@MAEHIHPAUICmdUI133691@@@Z
_TEXT	SEGMENT
_nID$ = 8						; size = 4
_nCode$ = 12						; size = 4
_p_pICmdUI$ = 16					; size = 4
?OnCmdMsg@CChartAddInBase133691@@MAEHIHPAUICmdUI133691@@@Z PROC ; CChartAddInBase133691::OnCmdMsg, COMDAT
; _this$ = ecx

; 186  : 	virtual BOOL	OnCmdMsg(			UINT nID, int nCode, ICmdUI *p_pICmdUI)																	{	return FALSE;	}

  00000	33 c0		 xor	 eax, eax
  00002	c2 0c 00	 ret	 12			; 0000000cH
?OnCmdMsg@CChartAddInBase133691@@MAEHIHPAUICmdUI133691@@@Z ENDP ; CChartAddInBase133691::OnCmdMsg
_TEXT	ENDS
; Function compile flags: /Ogtp
; File D:\git\src\IBK\IBK_DRFN\ProjSrc\SrcChartEx\ChartAddIn\ChartPeriodSummaryAddIn\Include_AddIn\I133691\_ChartAddInBase.h
;	COMDAT ?OnPreRealPacketEnd@CChartAddInBase133691@@MAEHPBD@Z
_TEXT	SEGMENT
_p_szRQ$ = 8						; size = 4
?OnPreRealPacketEnd@CChartAddInBase133691@@MAEHPBD@Z PROC ; CChartAddInBase133691::OnPreRealPacketEnd, COMDAT
; _this$ = ecx

; 180  : 	virtual BOOL	OnPreRealPacketEnd( const char *p_szRQ = NULL)											{	return TRUE;	}

  00000	b8 01 00 00 00	 mov	 eax, 1
  00005	c2 04 00	 ret	 4
?OnPreRealPacketEnd@CChartAddInBase133691@@MAEHPBD@Z ENDP ; CChartAddInBase133691::OnPreRealPacketEnd
_TEXT	ENDS
; Function compile flags: /Ogtp
; File D:\git\src\IBK\IBK_DRFN\ProjSrc\SrcChartEx\ChartAddIn\ChartPeriodSummaryAddIn\Include_AddIn\I133691\_ChartAddInBase.h
;	COMDAT ?OnPreIndexedRealData@CChartAddInBase133691@@MAEHPBDHAAN@Z
_TEXT	SEGMENT
_p_szPacketName$ = 8					; size = 4
_p_nIndex$ = 12						; size = 4
_p_dData$ = 16						; size = 4
?OnPreIndexedRealData@CChartAddInBase133691@@MAEHPBDHAAN@Z PROC ; CChartAddInBase133691::OnPreIndexedRealData, COMDAT
; _this$ = ecx

; 179  : 	virtual BOOL	OnPreIndexedRealData( const char *p_szPacketName, const int p_nIndex, double &p_dData)	{	return TRUE;	}

  00000	b8 01 00 00 00	 mov	 eax, 1
  00005	c2 0c 00	 ret	 12			; 0000000cH
?OnPreIndexedRealData@CChartAddInBase133691@@MAEHPBDHAAN@Z ENDP ; CChartAddInBase133691::OnPreIndexedRealData
_TEXT	ENDS
; Function compile flags: /Ogtp
; File D:\git\src\IBK\IBK_DRFN\ProjSrc\SrcChartEx\ChartAddIn\ChartPeriodSummaryAddIn\Include_AddIn\I133691\_ChartAddInBase.h
;	COMDAT ?OnPreRealData@CChartAddInBase133691@@MAEHPBDAAN0@Z
_TEXT	SEGMENT
_p_szPacketName$ = 8					; size = 4
_p_dData$ = 12						; size = 4
_p_szRQ$ = 16						; size = 4
?OnPreRealData@CChartAddInBase133691@@MAEHPBDAAN0@Z PROC ; CChartAddInBase133691::OnPreRealData, COMDAT
; _this$ = ecx

; 178  : 	virtual BOOL	OnPreRealData( const char *p_szPacketName, double &p_dData, const char *p_szRQ = NULL)	{	return TRUE;	}

  00000	b8 01 00 00 00	 mov	 eax, 1
  00005	c2 0c 00	 ret	 12			; 0000000cH
?OnPreRealData@CChartAddInBase133691@@MAEHPBDAAN0@Z ENDP ; CChartAddInBase133691::OnPreRealData
_TEXT	ENDS
; Function compile flags: /Ogtp
; File D:\git\src\IBK\IBK_DRFN\ProjSrc\SrcChartEx\ChartAddIn\ChartPeriodSummaryAddIn\Include_AddIn\I133691\_ChartAddInBase.h
;	COMDAT ?OnRecalculationComplete@CChartAddInBase133691@@MAEXXZ
_TEXT	SEGMENT
?OnRecalculationComplete@CChartAddInBase133691@@MAEXXZ PROC ; CChartAddInBase133691::OnRecalculationComplete, COMDAT
; _this$ = ecx

; 174  : 	virtual void	OnRecalculationComplete( void)						{}

  00000	c2 00 00	 ret	 0
?OnRecalculationComplete@CChartAddInBase133691@@MAEXXZ ENDP ; CChartAddInBase133691::OnRecalculationComplete
_TEXT	ENDS
; Function compile flags: /Ogtp
; File D:\git\src\IBK\IBK_DRFN\ProjSrc\SrcChartEx\ChartAddIn\ChartPeriodSummaryAddIn\Include_AddIn\I133691\_ChartAddInBase.h
;	COMDAT ?DrawCursor@CChartAddInBase133691@@MAE?AUtagRECT@@PAUHDC__@@@Z
_TEXT	SEGMENT
___$ReturnUdt$ = 8					; size = 4
_p_hDC$ = 12						; size = 4
?DrawCursor@CChartAddInBase133691@@MAE?AUtagRECT@@PAUHDC__@@@Z PROC ; CChartAddInBase133691::DrawCursor, COMDAT
; _this$ = ecx

; 172  : 	virtual RECT	DrawCursor( HDC p_hDC)								{	RECT rct = { 0, 0, 0, 0};	return rct;		}

  00000	55		 push	 ebp
  00001	8b ec		 mov	 ebp, esp
  00003	8b 45 08	 mov	 eax, DWORD PTR ___$ReturnUdt$[ebp]
  00006	c7 00 00 00 00
	00		 mov	 DWORD PTR [eax], 0
  0000c	c7 40 04 00 00
	00 00		 mov	 DWORD PTR [eax+4], 0
  00013	c7 40 08 00 00
	00 00		 mov	 DWORD PTR [eax+8], 0
  0001a	c7 40 0c 00 00
	00 00		 mov	 DWORD PTR [eax+12], 0
  00021	5d		 pop	 ebp
  00022	c2 08 00	 ret	 8
?DrawCursor@CChartAddInBase133691@@MAE?AUtagRECT@@PAUHDC__@@@Z ENDP ; CChartAddInBase133691::DrawCursor
_TEXT	ENDS
; Function compile flags: /Ogtp
; File D:\git\src\IBK\IBK_DRFN\ProjSrc\SrcChartEx\ChartAddIn\ChartPeriodSummaryAddIn\Include_AddIn\I133691\_ChartAddInBase.h
;	COMDAT ?OnSaveEnvironment@CChartAddInBase133691@@MAEXPAUIPropertyMap@@@Z
_TEXT	SEGMENT
_p_pIAddInEnvMap$ = 8					; size = 4
?OnSaveEnvironment@CChartAddInBase133691@@MAEXPAUIPropertyMap@@@Z PROC ; CChartAddInBase133691::OnSaveEnvironment, COMDAT
; _this$ = ecx

; 170  : 	virtual void	OnSaveEnvironment( IPropertyMap *p_pIAddInEnvMap)	{}

  00000	c2 04 00	 ret	 4
?OnSaveEnvironment@CChartAddInBase133691@@MAEXPAUIPropertyMap@@@Z ENDP ; CChartAddInBase133691::OnSaveEnvironment
_TEXT	ENDS
; Function compile flags: /Ogtp
; File D:\git\src\IBK\IBK_DRFN\ProjSrc\SrcChartEx\ChartAddIn\ChartPeriodSummaryAddIn\Include_AddIn\I133691\_ChartAddInBase.h
;	COMDAT ?OnLoadEnvironment@CChartAddInBase133691@@MAEXPAUIPropertyMap@@@Z
_TEXT	SEGMENT
_p_pIAddInEnvMap$ = 8					; size = 4
?OnLoadEnvironment@CChartAddInBase133691@@MAEXPAUIPropertyMap@@@Z PROC ; CChartAddInBase133691::OnLoadEnvironment, COMDAT
; _this$ = ecx

; 169  : 	virtual void	OnLoadEnvironment( IPropertyMap *p_pIAddInEnvMap)	{}

  00000	c2 04 00	 ret	 4
?OnLoadEnvironment@CChartAddInBase133691@@MAEXPAUIPropertyMap@@@Z ENDP ; CChartAddInBase133691::OnLoadEnvironment
_TEXT	ENDS
; Function compile flags: /Ogtp
; File D:\git\src\IBK\IBK_DRFN\ProjSrc\SrcChartEx\ChartAddIn\ChartPeriodSummaryAddIn\Include_AddIn\I133691\_ChartAddInBase.h
;	COMDAT ?OnRealPacketEnd@CChartAddInBase133691@@MAEXPBD@Z
_TEXT	SEGMENT
_p_szRQ$ = 8						; size = 4
?OnRealPacketEnd@CChartAddInBase133691@@MAEXPBD@Z PROC	; CChartAddInBase133691::OnRealPacketEnd, COMDAT
; _this$ = ecx

; 167  : 	virtual void	OnRealPacketEnd( const char *p_szRQ)								{}

  00000	c2 04 00	 ret	 4
?OnRealPacketEnd@CChartAddInBase133691@@MAEXPBD@Z ENDP	; CChartAddInBase133691::OnRealPacketEnd
_TEXT	ENDS
; Function compile flags: /Ogtp
; File D:\git\src\IBK\IBK_DRFN\ProjSrc\SrcChartEx\ChartAddIn\ChartPeriodSummaryAddIn\Include_AddIn\I133691\_ChartAddInBase.h
;	COMDAT ?OnIndexedRealData@CChartAddInBase133691@@MAEXPBDHN@Z
_TEXT	SEGMENT
_p_szPacketName$ = 8					; size = 4
_p_nIndex$ = 12						; size = 4
_p_dData$ = 16						; size = 8
?OnIndexedRealData@CChartAddInBase133691@@MAEXPBDHN@Z PROC ; CChartAddInBase133691::OnIndexedRealData, COMDAT
; _this$ = ecx

; 165  : 	virtual void	OnIndexedRealData( const char *p_szPacketName, const int p_nIndex, double p_dData)		{}

  00000	c2 10 00	 ret	 16			; 00000010H
?OnIndexedRealData@CChartAddInBase133691@@MAEXPBDHN@Z ENDP ; CChartAddInBase133691::OnIndexedRealData
_TEXT	ENDS
; Function compile flags: /Ogtp
; File D:\git\src\IBK\IBK_DRFN\ProjSrc\SrcChartEx\ChartAddIn\ChartPeriodSummaryAddIn\Include_AddIn\I133691\_ChartAddInBase.h
;	COMDAT ?OnRealData@CChartAddInBase133691@@MAEXPBDN0@Z
_TEXT	SEGMENT
_p_szPacketName$ = 8					; size = 4
_p_dData$ = 12						; size = 8
_p_szRQ$ = 20						; size = 4
?OnRealData@CChartAddInBase133691@@MAEXPBDN0@Z PROC	; CChartAddInBase133691::OnRealData, COMDAT
; _this$ = ecx

; 164  : 	virtual void	OnRealData( const char *p_szPacketName, double p_dData, const char *p_szRQ)			{}

  00000	c2 10 00	 ret	 16			; 00000010H
?OnRealData@CChartAddInBase133691@@MAEXPBDN0@Z ENDP	; CChartAddInBase133691::OnRealData
_TEXT	ENDS
; Function compile flags: /Ogtp
; File D:\git\src\IBK\IBK_DRFN\ProjSrc\SrcChartEx\ChartAddIn\ChartPeriodSummaryAddIn\Include_AddIn\I133691\_ChartAddInBase.h
;	COMDAT ?OnToolCommand@CChartAddInBase133691@@MAEXHH@Z
_TEXT	SEGMENT
_p_nToolType$ = 8					; size = 4
_p_nCmdOption$ = 12					; size = 4
?OnToolCommand@CChartAddInBase133691@@MAEXHH@Z PROC	; CChartAddInBase133691::OnToolCommand, COMDAT
; _this$ = ecx

; 162  : 	virtual void	OnToolCommand( const int p_nToolType, const int p_nCmdOption)	{}

  00000	c2 08 00	 ret	 8
?OnToolCommand@CChartAddInBase133691@@MAEXHH@Z ENDP	; CChartAddInBase133691::OnToolCommand
_TEXT	ENDS
; Function compile flags: /Ogtp
; File D:\git\src\IBK\IBK_DRFN\ProjSrc\SrcChartEx\ChartAddIn\ChartPeriodSummaryAddIn\Include_AddIn\I133691\_ChartAddInBase.h
;	COMDAT ?OnBlockChanged@CChartAddInBase133691@@MAEXW4BLOCKBEHAVIOR@CBlockBaseData@@HHHH@Z
_TEXT	SEGMENT
_p_eChangeType$ = 8					; size = 4
_p_nSourceRow$ = 12					; size = 4
_p_nSourceColumn$ = 16					; size = 4
_p_nTargetRow$ = 20					; size = 4
_p_nTargetColumn$ = 24					; size = 4
?OnBlockChanged@CChartAddInBase133691@@MAEXW4BLOCKBEHAVIOR@CBlockBaseData@@HHHH@Z PROC ; CChartAddInBase133691::OnBlockChanged, COMDAT
; _this$ = ecx

; 160  : 	virtual void	OnBlockChanged( const CBlockBaseData::BLOCKBEHAVIOR p_eChangeType, const int p_nSourceRow, const int p_nSourceColumn, const int p_nTargetRow, const int p_nTargetColumn)	{}

  00000	c2 14 00	 ret	 20			; 00000014H
?OnBlockChanged@CChartAddInBase133691@@MAEXW4BLOCKBEHAVIOR@CBlockBaseData@@HHHH@Z ENDP ; CChartAddInBase133691::OnBlockChanged
_TEXT	ENDS
; Function compile flags: /Ogtp
; File D:\git\src\IBK\IBK_DRFN\ProjSrc\SrcChartEx\ChartAddIn\ChartPeriodSummaryAddIn\Include_AddIn\I133691\_ChartAddInBase.h
;	COMDAT ?OnPacketTruncated@CChartAddInBase133691@@MAEXH@Z
_TEXT	SEGMENT
_p_nDataCount$ = 8					; size = 4
?OnPacketTruncated@CChartAddInBase133691@@MAEXH@Z PROC	; CChartAddInBase133691::OnPacketTruncated, COMDAT
; _this$ = ecx

; 158  : 	virtual void	OnPacketTruncated( const int p_nDataCount)			{}

  00000	c2 04 00	 ret	 4
?OnPacketTruncated@CChartAddInBase133691@@MAEXH@Z ENDP	; CChartAddInBase133691::OnPacketTruncated
_TEXT	ENDS
; Function compile flags: /Ogtp
; File D:\git\src\IBK\IBK_DRFN\ProjSrc\SrcChartEx\ChartAddIn\ChartPeriodSummaryAddIn\Include_AddIn\I133691\_ChartAddInBase.h
;	COMDAT ?OnGraphDeleted@CChartAddInBase133691@@MAEXPBD0@Z
_TEXT	SEGMENT
_p_szGraphName$ = 8					; size = 4
_p_szIndicatorName$ = 12				; size = 4
?OnGraphDeleted@CChartAddInBase133691@@MAEXPBD0@Z PROC	; CChartAddInBase133691::OnGraphDeleted, COMDAT
; _this$ = ecx

; 156  : 	virtual void	OnGraphDeleted( const char *p_szGraphName, const char *p_szIndicatorName)			{}

  00000	c2 08 00	 ret	 8
?OnGraphDeleted@CChartAddInBase133691@@MAEXPBD0@Z ENDP	; CChartAddInBase133691::OnGraphDeleted
_TEXT	ENDS
; Function compile flags: /Ogtp
; File D:\git\src\IBK\IBK_DRFN\ProjSrc\SrcChartEx\ChartAddIn\ChartPeriodSummaryAddIn\Include_AddIn\I133691\_ChartAddInBase.h
;	COMDAT ?OnContextMenu@CChartAddInBase133691@@MAEXPAUHWND__@@AAUtagPOINT@@@Z
_TEXT	SEGMENT
_p_hWnd$ = 8						; size = 4
_p_pt$ = 12						; size = 4
?OnContextMenu@CChartAddInBase133691@@MAEXPAUHWND__@@AAUtagPOINT@@@Z PROC ; CChartAddInBase133691::OnContextMenu, COMDAT
; _this$ = ecx

; 154  : 	virtual void	OnContextMenu( HWND p_hWnd, POINT &p_pt)			{}

  00000	c2 08 00	 ret	 8
?OnContextMenu@CChartAddInBase133691@@MAEXPAUHWND__@@AAUtagPOINT@@@Z ENDP ; CChartAddInBase133691::OnContextMenu
_TEXT	ENDS
; Function compile flags: /Ogtp
; File D:\git\src\IBK\IBK_DRFN\ProjSrc\SrcChartEx\ChartAddIn\ChartPeriodSummaryAddIn\Include_AddIn\I133691\_ChartAddInBase.h
;	COMDAT ?OnManualRealData@CChartAddInBase133691@@MAEXPBDNH@Z
_TEXT	SEGMENT
_p_szPacketName$ = 8					; size = 4
_p_dData$ = 12						; size = 8
_p_nOption$ = 20					; size = 4
?OnManualRealData@CChartAddInBase133691@@MAEXPBDNH@Z PROC ; CChartAddInBase133691::OnManualRealData, COMDAT
; _this$ = ecx

; 152  : 	virtual void	OnManualRealData( const char *p_szPacketName, const double p_dData, const int p_nOption)	{}

  00000	c2 10 00	 ret	 16			; 00000010H
?OnManualRealData@CChartAddInBase133691@@MAEXPBDNH@Z ENDP ; CChartAddInBase133691::OnManualRealData
_TEXT	ENDS
; Function compile flags: /Ogtp
; File D:\git\src\IBK\IBK_DRFN\ProjSrc\SrcChartEx\ChartAddIn\ChartPeriodSummaryAddIn\Include_AddIn\I133691\_ChartAddInBase.h
;	COMDAT ?OnGraphAdded@CChartAddInBase133691@@MAEXPBD0@Z
_TEXT	SEGMENT
_p_szGraphName$ = 8					; size = 4
_p_szIndicatorName$ = 12				; size = 4
?OnGraphAdded@CChartAddInBase133691@@MAEXPBD0@Z PROC	; CChartAddInBase133691::OnGraphAdded, COMDAT
; _this$ = ecx

; 150  : 	virtual void	OnGraphAdded( const char *p_szGraphName, const char *p_szIndicatorName)			{}

  00000	c2 08 00	 ret	 8
?OnGraphAdded@CChartAddInBase133691@@MAEXPBD0@Z ENDP	; CChartAddInBase133691::OnGraphAdded
_TEXT	ENDS
; Function compile flags: /Ogtp
; File D:\git\src\IBK\IBK_DRFN\ProjSrc\SrcChartEx\ChartAddIn\ChartPeriodSummaryAddIn\Include_AddIn\I133691\_ChartAddInBase.h
;	COMDAT ?OnBlockRemoved@CChartAddInBase133691@@MAEXHH@Z
_TEXT	SEGMENT
_p_nRow$ = 8						; size = 4
_p_nColumn$ = 12					; size = 4
?OnBlockRemoved@CChartAddInBase133691@@MAEXHH@Z PROC	; CChartAddInBase133691::OnBlockRemoved, COMDAT
; _this$ = ecx

; 148  : 	virtual void	OnBlockRemoved( const int p_nRow, const int p_nColumn)	{}

  00000	c2 08 00	 ret	 8
?OnBlockRemoved@CChartAddInBase133691@@MAEXHH@Z ENDP	; CChartAddInBase133691::OnBlockRemoved
_TEXT	ENDS
; Function compile flags: /Ogtp
; File D:\git\src\IBK\IBK_DRFN\ProjSrc\SrcChartEx\ChartAddIn\ChartPeriodSummaryAddIn\Include_AddIn\I133691\_ChartAddInBase.h
;	COMDAT ?OnGraphDataChanged@CChartAddInBase133691@@MAEXXZ
_TEXT	SEGMENT
?OnGraphDataChanged@CChartAddInBase133691@@MAEXXZ PROC	; CChartAddInBase133691::OnGraphDataChanged, COMDAT
; _this$ = ecx

; 146  : 	virtual void	OnGraphDataChanged( void)							{}

  00000	c2 00 00	 ret	 0
?OnGraphDataChanged@CChartAddInBase133691@@MAEXXZ ENDP	; CChartAddInBase133691::OnGraphDataChanged
_TEXT	ENDS
; Function compile flags: /Ogtp
; File D:\git\src\IBK\IBK_DRFN\ProjSrc\SrcChartEx\ChartAddIn\ChartPeriodSummaryAddIn\Include_AddIn\I133691\_ChartAddInBase.h
;	COMDAT ?OnChartItemChanged@CChartAddInBase133691@@MAEXXZ
_TEXT	SEGMENT
?OnChartItemChanged@CChartAddInBase133691@@MAEXXZ PROC	; CChartAddInBase133691::OnChartItemChanged, COMDAT
; _this$ = ecx

; 144  : 	virtual void	OnChartItemChanged( void)							{}

  00000	c2 00 00	 ret	 0
?OnChartItemChanged@CChartAddInBase133691@@MAEXXZ ENDP	; CChartAddInBase133691::OnChartItemChanged
_TEXT	ENDS
; Function compile flags: /Ogtp
; File D:\git\src\IBK\IBK_DRFN\ProjSrc\SrcChartEx\ChartAddIn\ChartPeriodSummaryAddIn\Include_AddIn\I133691\_ChartAddInBase.h
;	COMDAT ?OnUserIndiatorConditionLoaded@CChartAddInBase133691@@MAEXXZ
_TEXT	SEGMENT
?OnUserIndiatorConditionLoaded@CChartAddInBase133691@@MAEXXZ PROC ; CChartAddInBase133691::OnUserIndiatorConditionLoaded, COMDAT
; _this$ = ecx

; 142  : 	virtual void	OnUserIndiatorConditionLoaded( void)				{}

  00000	c2 00 00	 ret	 0
?OnUserIndiatorConditionLoaded@CChartAddInBase133691@@MAEXXZ ENDP ; CChartAddInBase133691::OnUserIndiatorConditionLoaded
_TEXT	ENDS
; Function compile flags: /Ogtp
; File D:\git\src\IBK\IBK_DRFN\ProjSrc\SrcChartEx\ChartAddIn\ChartPeriodSummaryAddIn\Include_AddIn\I133691\_ChartAddInBase.h
;	COMDAT ?OnResetMainBlock@CChartAddInBase133691@@MAEXXZ
_TEXT	SEGMENT
?OnResetMainBlock@CChartAddInBase133691@@MAEXXZ PROC	; CChartAddInBase133691::OnResetMainBlock, COMDAT
; _this$ = ecx

; 140  : 	virtual void	OnResetMainBlock( void)								{}

  00000	c2 00 00	 ret	 0
?OnResetMainBlock@CChartAddInBase133691@@MAEXXZ ENDP	; CChartAddInBase133691::OnResetMainBlock
_TEXT	ENDS
; Function compile flags: /Ogtp
; File D:\git\src\IBK\IBK_DRFN\ProjSrc\SrcChartEx\ChartAddIn\ChartPeriodSummaryAddIn\Include_AddIn\I133691\_ChartAddInBase.h
;	COMDAT ?OnCaptureChanged@CChartAddInBase133691@@MAEXPAUHWND__@@QAUHBITMAP__@@@Z
_TEXT	SEGMENT
_p_hWnd$ = 8						; size = 4
_p_hbmpMainOSB$ = 12					; size = 4
?OnCaptureChanged@CChartAddInBase133691@@MAEXPAUHWND__@@QAUHBITMAP__@@@Z PROC ; CChartAddInBase133691::OnCaptureChanged, COMDAT
; _this$ = ecx

; 138  : 	virtual void	OnCaptureChanged( HWND p_hWnd, const HBITMAP p_hbmpMainOSB)	{}	// (2006/11/5 - Seung-Won, Bae) Support MainOSB

  00000	c2 08 00	 ret	 8
?OnCaptureChanged@CChartAddInBase133691@@MAEXPAUHWND__@@QAUHBITMAP__@@@Z ENDP ; CChartAddInBase133691::OnCaptureChanged
_TEXT	ENDS
; Function compile flags: /Ogtp
; File D:\git\src\IBK\IBK_DRFN\ProjSrc\SrcChartEx\ChartAddIn\ChartPeriodSummaryAddIn\Include_AddIn\I133691\_ChartAddInBase.h
;	COMDAT ?OnTimer@CChartAddInBase133691@@MAEXI@Z
_TEXT	SEGMENT
_p_uTimerID$ = 8					; size = 4
?OnTimer@CChartAddInBase133691@@MAEXI@Z PROC		; CChartAddInBase133691::OnTimer, COMDAT
; _this$ = ecx

; 133  : 	virtual void	OnTimer( UINT p_uTimerID)	{}

  00000	c2 04 00	 ret	 4
?OnTimer@CChartAddInBase133691@@MAEXI@Z ENDP		; CChartAddInBase133691::OnTimer
_TEXT	ENDS
; Function compile flags: /Ogtp
; File D:\git\src\IBK\IBK_DRFN\ProjSrc\SrcChartEx\ChartAddIn\ChartPeriodSummaryAddIn\Include_AddIn\I133691\_ChartAddInBase.h
;	COMDAT ?OnPacketDataMultiItem@CChartAddInBase133691@@MAEXPBD0H@Z
_TEXT	SEGMENT
_lpszRQ$ = 8						; size = 4
_p_szPacketNames$ = 12					; size = 4
_p_bWithReset$ = 16					; size = 4
?OnPacketDataMultiItem@CChartAddInBase133691@@MAEXPBD0H@Z PROC ; CChartAddInBase133691::OnPacketDataMultiItem, COMDAT
; _this$ = ecx

; 131  : 	virtual void	OnPacketDataMultiItem(LPCTSTR lpszRQ, const char *p_szPacketNames, BOOL p_bWithReset)	{}

  00000	c2 0c 00	 ret	 12			; 0000000cH
?OnPacketDataMultiItem@CChartAddInBase133691@@MAEXPBD0H@Z ENDP ; CChartAddInBase133691::OnPacketDataMultiItem
_TEXT	ENDS
; Function compile flags: /Ogtp
; File D:\git\src\IBK\IBK_DRFN\ProjSrc\SrcChartEx\ChartAddIn\ChartPeriodSummaryAddIn\Include_AddIn\I133691\_ChartAddInBase.h
;	COMDAT ?OnDrawAfterGraph@CChartAddInBase133691@@MAEXPAUHDC__@@@Z
_TEXT	SEGMENT
_p_hDC$ = 8						; size = 4
?OnDrawAfterGraph@CChartAddInBase133691@@MAEXPAUHDC__@@@Z PROC ; CChartAddInBase133691::OnDrawAfterGraph, COMDAT
; _this$ = ecx

; 129  : 	virtual void	OnDrawAfterGraph( HDC p_hDC)	{}

  00000	c2 04 00	 ret	 4
?OnDrawAfterGraph@CChartAddInBase133691@@MAEXPAUHDC__@@@Z ENDP ; CChartAddInBase133691::OnDrawAfterGraph
_TEXT	ENDS
; Function compile flags: /Ogtp
; File D:\git\src\IBK\IBK_DRFN\ProjSrc\SrcChartEx\ChartAddIn\ChartPeriodSummaryAddIn\Include_AddIn\I133691\_ChartAddInBase.h
;	COMDAT ?OnDrawBeforeGraph@CChartAddInBase133691@@MAEXPAUHDC__@@@Z
_TEXT	SEGMENT
_p_hDC$ = 8						; size = 4
?OnDrawBeforeGraph@CChartAddInBase133691@@MAEXPAUHDC__@@@Z PROC ; CChartAddInBase133691::OnDrawBeforeGraph, COMDAT
; _this$ = ecx

; 127  : 	virtual void	OnDrawBeforeGraph( HDC p_hDC)	{}

  00000	c2 04 00	 ret	 4
?OnDrawBeforeGraph@CChartAddInBase133691@@MAEXPAUHDC__@@@Z ENDP ; CChartAddInBase133691::OnDrawBeforeGraph
_TEXT	ENDS
; Function compile flags: /Ogtp
; File D:\git\src\IBK\IBK_DRFN\ProjSrc\SrcChartEx\ChartAddIn\ChartPeriodSummaryAddIn\Include_AddIn\I133691\_ChartAddInBase.h
;	COMDAT ?OnResetChart@CChartAddInBase133691@@MAEXXZ
_TEXT	SEGMENT
?OnResetChart@CChartAddInBase133691@@MAEXXZ PROC	; CChartAddInBase133691::OnResetChart, COMDAT
; _this$ = ecx

; 125  : 	virtual void	OnResetChart( void)	{}

  00000	c2 00 00	 ret	 0
?OnResetChart@CChartAddInBase133691@@MAEXXZ ENDP	; CChartAddInBase133691::OnResetChart
_TEXT	ENDS
; Function compile flags: /Ogtp
; File D:\git\src\IBK\IBK_DRFN\ProjSrc\SrcChartEx\ChartAddIn\ChartPeriodSummaryAddIn\Include_AddIn\I133691\_ChartAddInBase.h
;	COMDAT ?OnLSharedDataChange@CChartAddInBase133691@@MAEXPBD0@Z
_TEXT	SEGMENT
_p_szLShareKey$ = 8					; size = 4
_p_szLShareValue$ = 12					; size = 4
?OnLSharedDataChange@CChartAddInBase133691@@MAEXPBD0@Z PROC ; CChartAddInBase133691::OnLSharedDataChange, COMDAT
; _this$ = ecx

; 123  : 	virtual void	OnLSharedDataChange( const char *p_szLShareKey, const char *p_szLShareValue)	{}

  00000	c2 08 00	 ret	 8
?OnLSharedDataChange@CChartAddInBase133691@@MAEXPBD0@Z ENDP ; CChartAddInBase133691::OnLSharedDataChange
_TEXT	ENDS
; Function compile flags: /Ogtp
; File D:\git\src\IBK\IBK_DRFN\ProjSrc\SrcChartEx\ChartAddIn\ChartPeriodSummaryAddIn\Include_AddIn\I133691\_ChartAddInBase.h
;	COMDAT ?OnGSharedDataChange@CChartAddInBase133691@@MAEXPBD0H@Z
_TEXT	SEGMENT
_p_szGShareKey$ = 8					; size = 4
_p_szGShareValue$ = 12					; size = 4
_p_bStartShare$ = 16					; size = 4
?OnGSharedDataChange@CChartAddInBase133691@@MAEXPBD0H@Z PROC ; CChartAddInBase133691::OnGSharedDataChange, COMDAT
; _this$ = ecx

; 121  : 	virtual void	OnGSharedDataChange( const char *p_szGShareKey, const char *p_szGShareValue, BOOL p_bStartShare)	{}

  00000	c2 0c 00	 ret	 12			; 0000000cH
?OnGSharedDataChange@CChartAddInBase133691@@MAEXPBD0H@Z ENDP ; CChartAddInBase133691::OnGSharedDataChange
_TEXT	ENDS
; Function compile flags: /Ogtp
; File D:\git\src\IBK\IBK_DRFN\ProjSrc\SrcChartEx\ChartAddIn\ChartPeriodSummaryAddIn\Include_AddIn\I133691\_ChartAddInBase.h
;	COMDAT ?OnOcxDestroyWindow@CChartAddInBase133691@@MAEXXZ
_TEXT	SEGMENT
?OnOcxDestroyWindow@CChartAddInBase133691@@MAEXXZ PROC	; CChartAddInBase133691::OnOcxDestroyWindow, COMDAT
; _this$ = ecx

; 111  : 	virtual void	OnOcxDestroyWindow( void)							{	m_bOcxDestroyed = TRUE;	}

  00000	c7 41 34 01 00
	00 00		 mov	 DWORD PTR [ecx+52], 1
  00007	c3		 ret	 0
?OnOcxDestroyWindow@CChartAddInBase133691@@MAEXXZ ENDP	; CChartAddInBase133691::OnOcxDestroyWindow
_TEXT	ENDS
; Function compile flags: /Ogtp
; File D:\git\src\IBK\IBK_DRFN\ProjSrc\SrcChartEx\ChartAddIn\ChartPeriodSummaryAddIn\Include_AddIn\I133691\_ChartAddInBase.cpp
;	COMDAT ?UnregisterEventMap@CChartAddInBase133691@@UAEHXZ
_TEXT	SEGMENT
_pRegisteredEventMap$1$ = -4				; size = 4
?UnregisterEventMap@CChartAddInBase133691@@UAEHXZ PROC	; CChartAddInBase133691::UnregisterEventMap, COMDAT
; _this$ = ecx

; 132  : {

  00000	55		 push	 ebp
  00001	8b ec		 mov	 ebp, esp
  00003	51		 push	 ecx
  00004	53		 push	 ebx
  00005	8b d9		 mov	 ebx, ecx

; 133  : 	if( !m_pIAddInToolMgr) return 0;

  00007	83 7b 28 00	 cmp	 DWORD PTR [ebx+40], 0
  0000b	75 07		 jne	 SHORT $LN5@Unregister
  0000d	33 c0		 xor	 eax, eax
  0000f	5b		 pop	 ebx

; 142  : }

  00010	8b e5		 mov	 esp, ebp
  00012	5d		 pop	 ebp
  00013	c3		 ret	 0
$LN5@Unregister:

; 134  : 
; 135  : 	const EAddInEventType *pRegisteredEventMap = GetRegisteredEventMap();

  00014	8b 43 f8	 mov	 eax, DWORD PTR [ebx-8]
  00017	8d 4b f8	 lea	 ecx, DWORD PTR [ebx-8]
  0001a	56		 push	 esi
  0001b	57		 push	 edi
  0001c	ff 50 2c	 call	 DWORD PTR [eax+44]

; 136  : 
; 137  : 	int nUnregisteredCount = 0;

  0001f	33 ff		 xor	 edi, edi
  00021	89 45 fc	 mov	 DWORD PTR _pRegisteredEventMap$1$[ebp], eax

; 138  : 	for( int i = 0; pRegisteredEventMap[ i] != EAE_END; i++)

  00024	33 f6		 xor	 esi, esi
  00026	8b 10		 mov	 edx, DWORD PTR [eax]
  00028	83 fa 3b	 cmp	 edx, 59			; 0000003bH
  0002b	74 23		 je	 SHORT $LN3@Unregister
  0002d	0f 1f 00	 npad	 3
$LL4@Unregister:

; 139  : 		if( m_pIAddInToolMgr->UnregisterEventMap( pRegisteredEventMap[ i], m_pIAddInDllBase, m_bOverExclusive)) nUnregisteredCount++;

  00030	8b 4b 28	 mov	 ecx, DWORD PTR [ebx+40]
  00033	ff 73 30	 push	 DWORD PTR [ebx+48]
  00036	ff 73 14	 push	 DWORD PTR [ebx+20]
  00039	8b 01		 mov	 eax, DWORD PTR [ecx]
  0003b	52		 push	 edx
  0003c	ff 50 14	 call	 DWORD PTR [eax+20]
  0003f	85 c0		 test	 eax, eax
  00041	74 01		 je	 SHORT $LN2@Unregister
  00043	47		 inc	 edi
$LN2@Unregister:

; 138  : 	for( int i = 0; pRegisteredEventMap[ i] != EAE_END; i++)

  00044	8b 45 fc	 mov	 eax, DWORD PTR _pRegisteredEventMap$1$[ebp]
  00047	46		 inc	 esi
  00048	8b 14 b0	 mov	 edx, DWORD PTR [eax+esi*4]
  0004b	83 fa 3b	 cmp	 edx, 59			; 0000003bH
  0004e	75 e0		 jne	 SHORT $LL4@Unregister
$LN3@Unregister:

; 140  : 
; 141  : 	return nUnregisteredCount;

  00050	8b c7		 mov	 eax, edi
  00052	5f		 pop	 edi
  00053	5e		 pop	 esi
  00054	5b		 pop	 ebx

; 142  : }

  00055	8b e5		 mov	 esp, ebp
  00057	5d		 pop	 ebp
  00058	c3		 ret	 0
?UnregisterEventMap@CChartAddInBase133691@@UAEHXZ ENDP	; CChartAddInBase133691::UnregisterEventMap
_TEXT	ENDS
; Function compile flags: /Ogtp
; File D:\git\src\IBK\IBK_DRFN\ProjSrc\SrcChartEx\ChartAddIn\ChartPeriodSummaryAddIn\Include_AddIn\I133691\_ChartAddInBase.cpp
;	COMDAT ?RegisterEventMap@CChartAddInBase133691@@UAEHH@Z
_TEXT	SEGMENT
_pRegisteredEventMap$1$ = 8				; size = 4
_p_bOverExclusive$ = 8					; size = 4
?RegisterEventMap@CChartAddInBase133691@@UAEHH@Z PROC	; CChartAddInBase133691::RegisterEventMap, COMDAT
; _this$ = ecx

; 118  : {

  00000	55		 push	 ebp
  00001	8b ec		 mov	 ebp, esp

; 119  : 	m_bOverExclusive = p_bOverExclusive;

  00003	8b 45 08	 mov	 eax, DWORD PTR _p_bOverExclusive$[ebp]
  00006	53		 push	 ebx
  00007	8b d9		 mov	 ebx, ecx

; 120  : 
; 121  : 	const EAddInEventType *pRegisteredEventMap = GetRegisteredEventMap();

  00009	8d 4b f8	 lea	 ecx, DWORD PTR [ebx-8]
  0000c	56		 push	 esi
  0000d	57		 push	 edi
  0000e	89 43 30	 mov	 DWORD PTR [ebx+48], eax
  00011	8b 01		 mov	 eax, DWORD PTR [ecx]
  00013	ff 50 2c	 call	 DWORD PTR [eax+44]

; 122  : 
; 123  : 	int nRegisteredCount = 0;

  00016	33 f6		 xor	 esi, esi
  00018	89 45 08	 mov	 DWORD PTR _pRegisteredEventMap$1$[ebp], eax

; 124  : 	for( int i = 0; pRegisteredEventMap[ i] != EAE_END; i++)

  0001b	33 ff		 xor	 edi, edi
  0001d	8b 10		 mov	 edx, DWORD PTR [eax]
  0001f	83 fa 3b	 cmp	 edx, 59			; 0000003bH
  00022	74 20		 je	 SHORT $LN11@RegisterEv
$LL4@RegisterEv:

; 125  : 		if( m_pIAddInToolMgr->RegisterEventMap( pRegisteredEventMap[ i], m_pIAddInDllBase, m_bOverExclusive)) nRegisteredCount++;

  00024	8b 4b 28	 mov	 ecx, DWORD PTR [ebx+40]
  00027	ff 73 30	 push	 DWORD PTR [ebx+48]
  0002a	ff 73 14	 push	 DWORD PTR [ebx+20]
  0002d	8b 01		 mov	 eax, DWORD PTR [ecx]
  0002f	52		 push	 edx
  00030	ff 50 10	 call	 DWORD PTR [eax+16]
  00033	85 c0		 test	 eax, eax
  00035	74 01		 je	 SHORT $LN2@RegisterEv
  00037	46		 inc	 esi
$LN2@RegisterEv:

; 124  : 	for( int i = 0; pRegisteredEventMap[ i] != EAE_END; i++)

  00038	8b 45 08	 mov	 eax, DWORD PTR _pRegisteredEventMap$1$[ebp]
  0003b	47		 inc	 edi
  0003c	8b 14 b8	 mov	 edx, DWORD PTR [eax+edi*4]
  0003f	83 fa 3b	 cmp	 edx, 59			; 0000003bH
  00042	75 e0		 jne	 SHORT $LL4@RegisterEv
$LN11@RegisterEv:
  00044	5f		 pop	 edi

; 126  : 
; 127  : 	return nRegisteredCount;
; 128  : }

  00045	8b c6		 mov	 eax, esi
  00047	5e		 pop	 esi
  00048	5b		 pop	 ebx
  00049	5d		 pop	 ebp
  0004a	c2 04 00	 ret	 4
?RegisterEventMap@CChartAddInBase133691@@UAEHH@Z ENDP	; CChartAddInBase133691::RegisterEventMap
_TEXT	ENDS
; Function compile flags: /Ogtp
; File D:\git\src\IBK\IBK_DRFN\ProjSrc\SrcChartEx\ChartAddIn\ChartPeriodSummaryAddIn\Include_AddIn\I133691\_ChartAddInBase.h
;	COMDAT ?InvokeAddInStr@CChartAddInBase133691@@MAEHPBD0@Z
_TEXT	SEGMENT
_p_szCommandName$ = 8					; size = 4
_p_szData$ = 12						; size = 4
?InvokeAddInStr@CChartAddInBase133691@@MAEHPBD0@Z PROC	; CChartAddInBase133691::InvokeAddInStr, COMDAT
; _this$ = ecx

; 96   : 	virtual BOOL	InvokeAddInStr( LPCTSTR p_szCommandName, LPCTSTR p_szData)	{	return FALSE;	}	// (2005/9/2 - Seung-Won, Bae) for String Data

  00000	33 c0		 xor	 eax, eax
  00002	c2 08 00	 ret	 8
?InvokeAddInStr@CChartAddInBase133691@@MAEHPBD0@Z ENDP	; CChartAddInBase133691::InvokeAddInStr
_TEXT	ENDS
; Function compile flags: /Ogtp
; File D:\git\src\IBK\IBK_DRFN\ProjSrc\SrcChartEx\ChartAddIn\ChartPeriodSummaryAddIn\Include_AddIn\I133691\_ChartAddInBase.h
;	COMDAT ?InvokeAddIn@CChartAddInBase133691@@MAEHHJ@Z
_TEXT	SEGMENT
_p_nCommandType$ = 8					; size = 4
_p_lData$ = 12						; size = 4
?InvokeAddIn@CChartAddInBase133691@@MAEHHJ@Z PROC	; CChartAddInBase133691::InvokeAddIn, COMDAT
; _this$ = ecx

; 95   : 	virtual BOOL	InvokeAddIn( int p_nCommandType, long p_lData)	{	return FALSE;	}

  00000	33 c0		 xor	 eax, eax
  00002	c2 08 00	 ret	 8
?InvokeAddIn@CChartAddInBase133691@@MAEHHJ@Z ENDP	; CChartAddInBase133691::InvokeAddIn
_TEXT	ENDS
; Function compile flags: /Ogtp
; File D:\git\src\IBK\IBK_DRFN\ProjSrc\SrcChartEx\ChartAddIn\ChartPeriodSummaryAddIn\Include_AddIn\I133691\_ChartAddInBase.h
;	COMDAT ?GetAddInCustomInterface@CChartAddInBase133691@@MAEPAUIUnknown@@XZ
_TEXT	SEGMENT
?GetAddInCustomInterface@CChartAddInBase133691@@MAEPAUIUnknown@@XZ PROC ; CChartAddInBase133691::GetAddInCustomInterface, COMDAT
; _this$ = ecx

; 91   : 	virtual IUnknown *	GetAddInCustomInterface( void)				{	return NULL;	}

  00000	33 c0		 xor	 eax, eax
  00002	c3		 ret	 0
?GetAddInCustomInterface@CChartAddInBase133691@@MAEPAUIUnknown@@XZ ENDP ; CChartAddInBase133691::GetAddInCustomInterface
_TEXT	ENDS
; Function compile flags: /Ogtp
; File D:\git\src\IBK\IBK_DRFN\ProjSrc\SrcChartEx\ChartAddIn\ChartPeriodSummaryAddIn\Include_AddIn\I133691\_ChartAddInBase.cpp
;	COMDAT ?HasFullManager@CChartAddInBase133691@@MAEHXZ
_TEXT	SEGMENT
?HasFullManager@CChartAddInBase133691@@MAEHXZ PROC	; CChartAddInBase133691::HasFullManager, COMDAT
; _this$ = ecx

; 113  : 	return m_pIChartOCX && m_pIPacketListManager && m_pIDefaultPacketManager && m_pIChartManager && m_pIGraphInfoManager && m_pIAddInToolMgr;

  00000	83 79 04 00	 cmp	 DWORD PTR [ecx+4], 0
  00004	74 24		 je	 SHORT $LN3@HasFullMan
  00006	83 79 18 00	 cmp	 DWORD PTR [ecx+24], 0
  0000a	74 1e		 je	 SHORT $LN3@HasFullMan
  0000c	83 79 1c 00	 cmp	 DWORD PTR [ecx+28], 0
  00010	74 18		 je	 SHORT $LN3@HasFullMan
  00012	83 79 20 00	 cmp	 DWORD PTR [ecx+32], 0
  00016	74 12		 je	 SHORT $LN3@HasFullMan
  00018	83 79 24 00	 cmp	 DWORD PTR [ecx+36], 0
  0001c	74 0c		 je	 SHORT $LN3@HasFullMan
  0001e	83 79 28 00	 cmp	 DWORD PTR [ecx+40], 0
  00022	74 06		 je	 SHORT $LN3@HasFullMan
  00024	b8 01 00 00 00	 mov	 eax, 1

; 114  : }

  00029	c3		 ret	 0
$LN3@HasFullMan:

; 113  : 	return m_pIChartOCX && m_pIPacketListManager && m_pIDefaultPacketManager && m_pIChartManager && m_pIGraphInfoManager && m_pIAddInToolMgr;

  0002a	33 c0		 xor	 eax, eax

; 114  : }

  0002c	c3		 ret	 0
?HasFullManager@CChartAddInBase133691@@MAEHXZ ENDP	; CChartAddInBase133691::HasFullManager
_TEXT	ENDS
; Function compile flags: /Ogtp
; File D:\git\src\IBK\IBK_DRFN\ProjSrc\SrcChartEx\ChartAddIn\ChartPeriodSummaryAddIn\Include_AddIn\I133691\_ChartAddInBase.h
;	COMDAT ?QueryInterface@CChartAddInBase133691@@MAGJABU_GUID@@PAPAX@Z
_TEXT	SEGMENT
_this$ = 8						; size = 4
_iid$ = 12						; size = 4
_ppvObject$ = 16					; size = 4
?QueryInterface@CChartAddInBase133691@@MAGJABU_GUID@@PAPAX@Z PROC ; CChartAddInBase133691::QueryInterface, COMDAT

; 54   : 	_IWRAPPER_IUNKNOWN_INTERFACE()

  00000	b8 02 40 00 80	 mov	 eax, -2147467262	; 80004002H
  00005	c2 0c 00	 ret	 12			; 0000000cH
?QueryInterface@CChartAddInBase133691@@MAGJABU_GUID@@PAPAX@Z ENDP ; CChartAddInBase133691::QueryInterface
_TEXT	ENDS
; Function compile flags: /Ogtp
; File D:\git\src\IBK\IBK_DRFN\ProjSrc\SrcChartEx\ChartAddIn\ChartPeriodSummaryAddIn\Include_AddIn\I133691\_ChartAddInBase.h
;	COMDAT ?Release@CChartAddInBase133691@@MAGKXZ
_TEXT	SEGMENT
_this$ = 8						; size = 4
?Release@CChartAddInBase133691@@MAGKXZ PROC		; CChartAddInBase133691::Release, COMDAT

; 54   : 	_IWRAPPER_IUNKNOWN_INTERFACE()

  00000	55		 push	 ebp
  00001	8b ec		 mov	 ebp, esp
  00003	5d		 pop	 ebp
  00004	e9 00 00 00 00	 jmp	 ?Release@CIWUnknown@@MAGKXZ ; CIWUnknown::Release
?Release@CChartAddInBase133691@@MAGKXZ ENDP		; CChartAddInBase133691::Release
_TEXT	ENDS
; Function compile flags: /Ogtp
; File D:\git\src\IBK\IBK_DRFN\ProjSrc\SrcChartEx\ChartAddIn\ChartPeriodSummaryAddIn\Include_AddIn\I133691\_ChartAddInBase.h
;	COMDAT ?AddRef@CChartAddInBase133691@@MAGKXZ
_TEXT	SEGMENT
_this$ = 8						; size = 4
?AddRef@CChartAddInBase133691@@MAGKXZ PROC		; CChartAddInBase133691::AddRef, COMDAT

; 54   : 	_IWRAPPER_IUNKNOWN_INTERFACE()

  00000	55		 push	 ebp
  00001	8b ec		 mov	 ebp, esp
  00003	5d		 pop	 ebp
  00004	e9 00 00 00 00	 jmp	 ?AddRef@CIWUnknown@@MAGKXZ ; CIWUnknown::AddRef
?AddRef@CChartAddInBase133691@@MAGKXZ ENDP		; CChartAddInBase133691::AddRef
_TEXT	ENDS
; Function compile flags: /Ogtp
; File D:\git\src\IBK\IBK_DRFN\ProjSrc\SrcChartEx\ChartAddIn\ChartPeriodSummaryAddIn\Include_AddIn\I133691\_ChartAddInBase.cpp
;	COMDAT ??1CChartAddInBase133691@@MAE@XZ
_TEXT	SEGMENT
__$EHRec$ = -12						; size = 12
??1CChartAddInBase133691@@MAE@XZ PROC			; CChartAddInBase133691::~CChartAddInBase133691, COMDAT
; _this$ = ecx

; 74   : {

  00000	55		 push	 ebp
  00001	8b ec		 mov	 ebp, esp
  00003	6a ff		 push	 -1
  00005	68 00 00 00 00	 push	 __ehhandler$??1CChartAddInBase133691@@MAE@XZ
  0000a	64 a1 00 00 00
	00		 mov	 eax, DWORD PTR fs:0
  00010	50		 push	 eax
  00011	56		 push	 esi
  00012	a1 00 00 00 00	 mov	 eax, DWORD PTR ___security_cookie
  00017	33 c5		 xor	 eax, ebp
  00019	50		 push	 eax
  0001a	8d 45 f4	 lea	 eax, DWORD PTR __$EHRec$[ebp]
  0001d	64 a3 00 00 00
	00		 mov	 DWORD PTR fs:0, eax
  00023	8b f1		 mov	 esi, ecx

; 75   : 	// (2004.10.08, 배승원) Chart OCX Interface를 관리하여, 이후 타 Object도 조회할 수 있도록 한다.
; 76   : 	if( m_pIChartOCX)

  00025	8b 4e 0c	 mov	 ecx, DWORD PTR [esi+12]
  00028	c7 06 00 00 00
	00		 mov	 DWORD PTR [esi], OFFSET ??_7CChartAddInBase133691@@6BCIWUnknown@@@
  0002e	c7 46 08 00 00
	00 00		 mov	 DWORD PTR [esi+8], OFFSET ??_7CChartAddInBase133691@@6BIChartAddIn133691@@@
  00035	85 c9		 test	 ecx, ecx
  00037	74 0d		 je	 SHORT $LN2@CChartAddI

; 77   : 	{
; 78   : 		m_pIChartOCX->Release();

  00039	8b 01		 mov	 eax, DWORD PTR [ecx]
  0003b	51		 push	 ecx
  0003c	ff 50 08	 call	 DWORD PTR [eax+8]

; 79   : 		m_pIChartOCX = NULL;

  0003f	c7 46 0c 00 00
	00 00		 mov	 DWORD PTR [esi+12], 0
$LN2@CChartAddI:

; 80   : 	}
; 81   : 
; 82   : 	// (2004.10.11, 배승원) OCX로부터 주요 Manager의 Interface를 구하여 관리한다.
; 83   : 	if( m_pIPacketListManager)

  00046	8b 4e 20	 mov	 ecx, DWORD PTR [esi+32]
  00049	85 c9		 test	 ecx, ecx
  0004b	74 0d		 je	 SHORT $LN3@CChartAddI

; 84   : 	{
; 85   : 		m_pIPacketListManager->Release();

  0004d	8b 01		 mov	 eax, DWORD PTR [ecx]
  0004f	51		 push	 ecx
  00050	ff 50 08	 call	 DWORD PTR [eax+8]

; 86   : 		m_pIPacketListManager = NULL;

  00053	c7 46 20 00 00
	00 00		 mov	 DWORD PTR [esi+32], 0
$LN3@CChartAddI:

; 87   : 	}
; 88   : 	if( m_pIDefaultPacketManager)

  0005a	8b 4e 24	 mov	 ecx, DWORD PTR [esi+36]
  0005d	85 c9		 test	 ecx, ecx
  0005f	74 0d		 je	 SHORT $LN4@CChartAddI

; 89   : 	{
; 90   : 		m_pIDefaultPacketManager->Release();

  00061	8b 01		 mov	 eax, DWORD PTR [ecx]
  00063	51		 push	 ecx
  00064	ff 50 08	 call	 DWORD PTR [eax+8]

; 91   : 		m_pIDefaultPacketManager = NULL;

  00067	c7 46 24 00 00
	00 00		 mov	 DWORD PTR [esi+36], 0
$LN4@CChartAddI:

; 92   : 	}
; 93   : 	if( m_pIChartManager)

  0006e	8b 4e 28	 mov	 ecx, DWORD PTR [esi+40]
  00071	85 c9		 test	 ecx, ecx
  00073	74 0d		 je	 SHORT $LN5@CChartAddI

; 94   : 	{
; 95   : 		m_pIChartManager->Release();

  00075	8b 01		 mov	 eax, DWORD PTR [ecx]
  00077	51		 push	 ecx
  00078	ff 50 08	 call	 DWORD PTR [eax+8]

; 96   : 		m_pIChartManager = NULL;

  0007b	c7 46 28 00 00
	00 00		 mov	 DWORD PTR [esi+40], 0
$LN5@CChartAddI:

; 97   : 	}
; 98   : 	if( m_pIGraphInfoManager)

  00082	8b 4e 2c	 mov	 ecx, DWORD PTR [esi+44]
  00085	85 c9		 test	 ecx, ecx
  00087	74 0d		 je	 SHORT $LN6@CChartAddI

; 99   : 	{
; 100  : 		m_pIGraphInfoManager->Release();

  00089	8b 01		 mov	 eax, DWORD PTR [ecx]
  0008b	51		 push	 ecx
  0008c	ff 50 08	 call	 DWORD PTR [eax+8]

; 101  : 		m_pIGraphInfoManager = NULL;

  0008f	c7 46 2c 00 00
	00 00		 mov	 DWORD PTR [esi+44], 0
$LN6@CChartAddI:

; 102  : 	}
; 103  : 	if( m_pIAddInToolMgr)

  00096	8b 4e 30	 mov	 ecx, DWORD PTR [esi+48]
  00099	85 c9		 test	 ecx, ecx
  0009b	74 0d		 je	 SHORT $LN7@CChartAddI

; 104  : 	{
; 105  : 		m_pIAddInToolMgr->Release();

  0009d	8b 01		 mov	 eax, DWORD PTR [ecx]
  0009f	51		 push	 ecx
  000a0	ff 50 08	 call	 DWORD PTR [eax+8]

; 106  : 		m_pIAddInToolMgr = NULL;

  000a3	c7 46 30 00 00
	00 00		 mov	 DWORD PTR [esi+48], 0
$LN7@CChartAddI:

; 107  : 	}
; 108  : }

  000aa	8b ce		 mov	 ecx, esi
  000ac	c7 46 08 00 00
	00 00		 mov	 DWORD PTR [esi+8], OFFSET ??_7IChartAddIn133691@@6B@
  000b3	e8 00 00 00 00	 call	 ??1CIWUnknown@@MAE@XZ	; CIWUnknown::~CIWUnknown
  000b8	8b 4d f4	 mov	 ecx, DWORD PTR __$EHRec$[ebp]
  000bb	64 89 0d 00 00
	00 00		 mov	 DWORD PTR fs:0, ecx
  000c2	59		 pop	 ecx
  000c3	5e		 pop	 esi
  000c4	8b e5		 mov	 esp, ebp
  000c6	5d		 pop	 ebp
  000c7	c3		 ret	 0
  000c8	cc		 int	 3
  000c9	cc		 int	 3
  000ca	cc		 int	 3
  000cb	cc		 int	 3
  000cc	cc		 int	 3
_TEXT	ENDS
;	COMDAT text$x
text$x	SEGMENT
__ehhandler$??1CChartAddInBase133691@@MAE@XZ:
  00000	90		 npad	 1
  00001	90		 npad	 1
  00002	8b 54 24 08	 mov	 edx, DWORD PTR [esp+8]
  00006	8d 42 0c	 lea	 eax, DWORD PTR [edx+12]
  00009	8b 4a f8	 mov	 ecx, DWORD PTR [edx-8]
  0000c	33 c8		 xor	 ecx, eax
  0000e	e8 00 00 00 00	 call	 @__security_check_cookie@4
  00013	b8 00 00 00 00	 mov	 eax, OFFSET __ehfuncinfo$??1CChartAddInBase133691@@MAE@XZ
  00018	e9 00 00 00 00	 jmp	 ___CxxFrameHandler3
text$x	ENDS
??1CChartAddInBase133691@@MAE@XZ ENDP			; CChartAddInBase133691::~CChartAddInBase133691
; Function compile flags: /Ogtp
; File D:\git\src\IBK\IBK_DRFN\ProjSrc\SrcChartEx\ChartAddIn\ChartPeriodSummaryAddIn\Include_AddIn\I133691\_ChartAddInBase.cpp
;	COMDAT ??0CChartAddInBase133691@@IAE@PAUIChartOCX133691@@PAUIAddInDllBase@@@Z
_TEXT	SEGMENT
__ctlState$ = -24					; size = 8
_this$ = -16						; size = 4
__$EHRec$ = -12						; size = 12
_p_pIChartOCX$ = 8					; size = 4
_p_pIAddInDllBase$ = 12					; size = 4
??0CChartAddInBase133691@@IAE@PAUIChartOCX133691@@PAUIAddInDllBase@@@Z PROC ; CChartAddInBase133691::CChartAddInBase133691, COMDAT
; _this$ = ecx

; 27   : {

  00000	55		 push	 ebp
  00001	8b ec		 mov	 ebp, esp
  00003	6a ff		 push	 -1
  00005	68 00 00 00 00	 push	 __ehhandler$??0CChartAddInBase133691@@IAE@PAUIChartOCX133691@@PAUIAddInDllBase@@@Z
  0000a	64 a1 00 00 00
	00		 mov	 eax, DWORD PTR fs:0
  00010	50		 push	 eax
  00011	83 ec 0c	 sub	 esp, 12			; 0000000cH
  00014	56		 push	 esi
  00015	57		 push	 edi
  00016	a1 00 00 00 00	 mov	 eax, DWORD PTR ___security_cookie
  0001b	33 c5		 xor	 eax, ebp
  0001d	50		 push	 eax
  0001e	8d 45 f4	 lea	 eax, DWORD PTR __$EHRec$[ebp]
  00021	64 a3 00 00 00
	00		 mov	 DWORD PTR fs:0, eax
  00027	8b f1		 mov	 esi, ecx
  00029	89 75 f0	 mov	 DWORD PTR _this$[ebp], esi
  0002c	e8 00 00 00 00	 call	 ??0CIWUnknown@@QAE@XZ	; CIWUnknown::CIWUnknown
  00031	c7 45 fc 00 00
	00 00		 mov	 DWORD PTR __$EHRec$[ebp+8], 0
  00038	c7 46 08 00 00
	00 00		 mov	 DWORD PTR [esi+8], OFFSET ??_7IChartAddIn133691@@6B@
  0003f	c6 45 fc 01	 mov	 BYTE PTR __$EHRec$[ebp+8], 1
  00043	c7 06 00 00 00
	00		 mov	 DWORD PTR [esi], OFFSET ??_7CChartAddInBase133691@@6BCIWUnknown@@@
  00049	c7 46 08 00 00
	00 00		 mov	 DWORD PTR [esi+8], OFFSET ??_7CChartAddInBase133691@@6BIChartAddIn133691@@@

; 28   : 	// (2006/2/10 - Seung-Won, Bae) Manage State for CWnd::FromHandle()
; 29   : 	AFX_MANAGE_STATE( AfxGetStaticModuleState());

  00050	e8 00 00 00 00	 call	 ?AfxGetStaticModuleState@@YGPAVAFX_MODULE_STATE@@XZ ; AfxGetStaticModuleState
  00055	50		 push	 eax
  00056	8d 4d e8	 lea	 ecx, DWORD PTR __ctlState$[ebp]
  00059	e8 00 00 00 00	 call	 ??0AFX_MAINTAIN_STATE2@@QAE@PAVAFX_MODULE_STATE@@@Z ; AFX_MAINTAIN_STATE2::AFX_MAINTAIN_STATE2

; 30   : 
; 31   : 	// (2006/2/12 - Seung-Won, Bae) Manage Over Exclusive Flag for Registering AddIn Event Map
; 32   : 	m_bOverExclusive = FALSE;
; 33   : 
; 34   : 	// (2004.10.15, 배승원) OCX Interface가 NULL인 경우를 대비하여, Member에 미리 NULL 초기화를 처리한다.
; 35   : 	m_pIPacketListManager		= NULL;
; 36   : 	m_pIDefaultPacketManager	= NULL;
; 37   : 	m_pIChartManager			= NULL;
; 38   : 	m_pIGraphInfoManager		= NULL;
; 39   : 	m_pChartCWnd				= NULL;
; 40   : 	m_pIAddInToolMgr			= NULL;
; 41   : 	// (2006/1/17 - Seung-Won, Bae) Manage IAddInDll for AddIn Tool Exclusive
; 42   : 	m_pIAddInDllBase		= p_pIAddInDllBase;
; 43   : 
; 44   : 	// (2004.10.08, 배승원) Chart OCX Interface를 관리하여, 이후 타 Object도 조회할 수 있도록 한다.
; 45   : 	m_pIChartOCX = p_pIChartOCX;

  0005e	8b 7d 08	 mov	 edi, DWORD PTR _p_pIChartOCX$[ebp]
  00061	8b 45 0c	 mov	 eax, DWORD PTR _p_pIAddInDllBase$[ebp]
  00064	c6 45 fc 02	 mov	 BYTE PTR __$EHRec$[ebp+8], 2
  00068	c7 46 38 00 00
	00 00		 mov	 DWORD PTR [esi+56], 0
  0006f	c7 46 20 00 00
	00 00		 mov	 DWORD PTR [esi+32], 0
  00076	c7 46 24 00 00
	00 00		 mov	 DWORD PTR [esi+36], 0
  0007d	c7 46 28 00 00
	00 00		 mov	 DWORD PTR [esi+40], 0
  00084	c7 46 2c 00 00
	00 00		 mov	 DWORD PTR [esi+44], 0
  0008b	c7 46 10 00 00
	00 00		 mov	 DWORD PTR [esi+16], 0
  00092	c7 46 30 00 00
	00 00		 mov	 DWORD PTR [esi+48], 0
  00099	89 46 1c	 mov	 DWORD PTR [esi+28], eax
  0009c	89 7e 0c	 mov	 DWORD PTR [esi+12], edi

; 46   : 	if( !m_pIChartOCX)

  0009f	85 ff		 test	 edi, edi
  000a1	75 0e		 jne	 SHORT $LN2@CChartAddI

; 47   : 	{
; 48   : 		AfxMessageBox( "CChartAddInBase" _AIVERS " Null Wrapping Error!");

  000a3	57		 push	 edi
  000a4	57		 push	 edi
  000a5	68 00 00 00 00	 push	 OFFSET ??_C@_0CL@GPIFJCLA@CChartAddInBase133691?5Null?5Wrap@
  000aa	e8 00 00 00 00	 call	 ?AfxMessageBox@@YGHPBDII@Z ; AfxMessageBox

; 49   : 		return;

  000af	eb 6c		 jmp	 SHORT $LN1@CChartAddI
$LN2@CChartAddI:

; 50   : 	}
; 51   : 	m_pIChartOCX->AddRef();

  000b1	8b 07		 mov	 eax, DWORD PTR [edi]
  000b3	57		 push	 edi
  000b4	ff 50 04	 call	 DWORD PTR [eax+4]

; 52   : 
; 53   : 	// (2004.10.11, 배승원) OCX로부터 주요 Manager의 Interface를 구하여 관리한다.
; 54   : 	m_pIDefaultPacketManager	= m_pIChartOCX->GetIDefaultPacketManager();

  000b7	8b 4e 0c	 mov	 ecx, DWORD PTR [esi+12]
  000ba	8b 01		 mov	 eax, DWORD PTR [ecx]
  000bc	ff 50 20	 call	 DWORD PTR [eax+32]

; 55   : 	m_pIPacketListManager		= m_pIChartOCX->GetIPacketListManager();

  000bf	8b 4e 0c	 mov	 ecx, DWORD PTR [esi+12]
  000c2	89 46 24	 mov	 DWORD PTR [esi+36], eax
  000c5	8b 01		 mov	 eax, DWORD PTR [ecx]
  000c7	ff 50 1c	 call	 DWORD PTR [eax+28]

; 56   : 	m_pIChartManager			= m_pIChartOCX->GetIChartManager();

  000ca	8b 4e 0c	 mov	 ecx, DWORD PTR [esi+12]
  000cd	89 46 20	 mov	 DWORD PTR [esi+32], eax
  000d0	8b 01		 mov	 eax, DWORD PTR [ecx]
  000d2	ff 50 18	 call	 DWORD PTR [eax+24]

; 57   : 	m_pIGraphInfoManager		= m_pIChartOCX->GetIGraphInfoManager();

  000d5	8b 4e 0c	 mov	 ecx, DWORD PTR [esi+12]
  000d8	89 46 28	 mov	 DWORD PTR [esi+40], eax
  000db	8b 01		 mov	 eax, DWORD PTR [ecx]
  000dd	ff 50 24	 call	 DWORD PTR [eax+36]

; 58   : 	m_pIAddInToolMgr			= m_pIChartOCX->GetIAddInToolMgr();

  000e0	8b 4e 0c	 mov	 ecx, DWORD PTR [esi+12]
  000e3	89 46 2c	 mov	 DWORD PTR [esi+44], eax
  000e6	8b 01		 mov	 eax, DWORD PTR [ecx]
  000e8	ff 50 28	 call	 DWORD PTR [eax+40]

; 59   : 
; 60   : 	// (2004.10.25, 배승원) Chart OCX Control Window Pointer를 관리하여 Windows Interface를 이용할 수 있도록 한다.
; 61   : 	m_pChartCWnd = CWnd::FromHandle( m_pIChartOCX->GetOcxHwnd());

  000eb	8b 4e 0c	 mov	 ecx, DWORD PTR [esi+12]
  000ee	89 46 30	 mov	 DWORD PTR [esi+48], eax
  000f1	8b 01		 mov	 eax, DWORD PTR [ecx]
  000f3	ff 50 40	 call	 DWORD PTR [eax+64]
  000f6	50		 push	 eax
  000f7	e8 00 00 00 00	 call	 ?FromHandle@CWnd@@SGPAV1@PAUHWND__@@@Z ; CWnd::FromHandle
  000fc	89 46 10	 mov	 DWORD PTR [esi+16], eax

; 62   : 
; 63   : 	// (2007/3/4 - Seung-Won, Bae) Notify OCX Destroying to Addin for Reset OCX's Interface
; 64   : 	m_bOcxDestroyed = FALSE;
; 65   : 
; 66   : 	// (2008/1/22 - Seung-Won, Bae) for Multi-Language
; 67   : 	m_hOcxWnd = p_pIChartOCX->GetOcxHwnd();

  000ff	8b cf		 mov	 ecx, edi
  00101	c7 46 3c 00 00
	00 00		 mov	 DWORD PTR [esi+60], 0
  00108	8b 07		 mov	 eax, DWORD PTR [edi]
  0010a	ff 50 40	 call	 DWORD PTR [eax+64]
  0010d	89 46 14	 mov	 DWORD PTR [esi+20], eax

; 68   : 
; 69   : 	// (2009/9/14 - Seung-Won, Bae) for World-On
; 70   : 	m_eChartMode = p_pIChartOCX->GetChartMode();

  00110	8b cf		 mov	 ecx, edi
  00112	8b 07		 mov	 eax, DWORD PTR [edi]
  00114	ff 90 5c 02 00
	00		 call	 DWORD PTR [eax+604]
  0011a	89 46 18	 mov	 DWORD PTR [esi+24], eax
$LN1@CChartAddI:

; 71   : }

  0011d	8d 4d e8	 lea	 ecx, DWORD PTR __ctlState$[ebp]
  00120	e8 00 00 00 00	 call	 ??1AFX_MAINTAIN_STATE2@@QAE@XZ ; AFX_MAINTAIN_STATE2::~AFX_MAINTAIN_STATE2
  00125	8b c6		 mov	 eax, esi
  00127	8b 4d f4	 mov	 ecx, DWORD PTR __$EHRec$[ebp]
  0012a	64 89 0d 00 00
	00 00		 mov	 DWORD PTR fs:0, ecx
  00131	59		 pop	 ecx
  00132	5f		 pop	 edi
  00133	5e		 pop	 esi
  00134	8b e5		 mov	 esp, ebp
  00136	5d		 pop	 ebp
  00137	c2 08 00	 ret	 8
_TEXT	ENDS
;	COMDAT text$x
text$x	SEGMENT
__unwindfunclet$??0CChartAddInBase133691@@IAE@PAUIChartOCX133691@@PAUIAddInDllBase@@@Z$0:
  00000	8b 4d f0	 mov	 ecx, DWORD PTR _this$[ebp]
  00003	e9 00 00 00 00	 jmp	 ??1CIWUnknown@@MAE@XZ	; CIWUnknown::~CIWUnknown
__unwindfunclet$??0CChartAddInBase133691@@IAE@PAUIChartOCX133691@@PAUIAddInDllBase@@@Z$1:
  00008	8b 4d f0	 mov	 ecx, DWORD PTR _this$[ebp]
  0000b	83 c1 08	 add	 ecx, 8
  0000e	e9 00 00 00 00	 jmp	 ??1IChartAddIn133691@@MAE@XZ ; IChartAddIn133691::~IChartAddIn133691
__unwindfunclet$??0CChartAddInBase133691@@IAE@PAUIChartOCX133691@@PAUIAddInDllBase@@@Z$2:
  00013	8d 4d e8	 lea	 ecx, DWORD PTR __ctlState$[ebp]
  00016	e9 00 00 00 00	 jmp	 ??1AFX_MAINTAIN_STATE2@@QAE@XZ ; AFX_MAINTAIN_STATE2::~AFX_MAINTAIN_STATE2
  0001b	cc		 int	 3
  0001c	cc		 int	 3
  0001d	cc		 int	 3
  0001e	cc		 int	 3
  0001f	cc		 int	 3
__ehhandler$??0CChartAddInBase133691@@IAE@PAUIChartOCX133691@@PAUIAddInDllBase@@@Z:
  00020	90		 npad	 1
  00021	90		 npad	 1
  00022	8b 54 24 08	 mov	 edx, DWORD PTR [esp+8]
  00026	8d 42 0c	 lea	 eax, DWORD PTR [edx+12]
  00029	8b 4a e8	 mov	 ecx, DWORD PTR [edx-24]
  0002c	33 c8		 xor	 ecx, eax
  0002e	e8 00 00 00 00	 call	 @__security_check_cookie@4
  00033	b8 00 00 00 00	 mov	 eax, OFFSET __ehfuncinfo$??0CChartAddInBase133691@@IAE@PAUIChartOCX133691@@PAUIAddInDllBase@@@Z
  00038	e9 00 00 00 00	 jmp	 ___CxxFrameHandler3
text$x	ENDS
??0CChartAddInBase133691@@IAE@PAUIChartOCX133691@@PAUIAddInDllBase@@@Z ENDP ; CChartAddInBase133691::CChartAddInBase133691
; Function compile flags: /Ogtp
;	COMDAT ??_GIChartAddIn133691@@MAEPAXI@Z
_TEXT	SEGMENT
___flags$ = 8						; size = 4
??_GIChartAddIn133691@@MAEPAXI@Z PROC			; IChartAddIn133691::`scalar deleting destructor', COMDAT
; _this$ = ecx
  00000	55		 push	 ebp
  00001	8b ec		 mov	 ebp, esp
  00003	f6 45 08 01	 test	 BYTE PTR ___flags$[ebp], 1
  00007	56		 push	 esi
  00008	8b f1		 mov	 esi, ecx
  0000a	c7 06 00 00 00
	00		 mov	 DWORD PTR [esi], OFFSET ??_7IChartAddIn133691@@6B@
  00010	74 0b		 je	 SHORT $LN4@scalar
  00012	6a 04		 push	 4
  00014	56		 push	 esi
  00015	e8 00 00 00 00	 call	 ??3@YAXPAXI@Z		; operator delete
  0001a	83 c4 08	 add	 esp, 8
$LN4@scalar:
  0001d	8b c6		 mov	 eax, esi
  0001f	5e		 pop	 esi
  00020	5d		 pop	 ebp
  00021	c2 04 00	 ret	 4
??_GIChartAddIn133691@@MAEPAXI@Z ENDP			; IChartAddIn133691::`scalar deleting destructor'
_TEXT	ENDS
; Function compile flags: /Ogtp
; File D:\git\src\IBK\IBK_DRFN\ProjSrc\SrcChartEx\ChartAddIn\ChartPeriodSummaryAddIn\Include_AddIn\I133691\_IChartAddIn.h
;	COMDAT ??1IChartAddIn133691@@MAE@XZ
_TEXT	SEGMENT
??1IChartAddIn133691@@MAE@XZ PROC			; IChartAddIn133691::~IChartAddIn133691, COMDAT
; _this$ = ecx

; 23   : 	virtual ~IChartAddIn()	{}

  00000	c7 01 00 00 00
	00		 mov	 DWORD PTR [ecx], OFFSET ??_7IChartAddIn133691@@6B@
  00006	c3		 ret	 0
??1IChartAddIn133691@@MAE@XZ ENDP			; IChartAddIn133691::~IChartAddIn133691
_TEXT	ENDS
; Function compile flags: /Ogtp
; File D:\git\src\IBK\IBK_DRFN\ProjSrc\SrcChartEx\ChartAddIn\ChartPeriodSummaryAddIn\Include_AddIn\_IWUnknown.h
;	COMDAT ?PreDestruct@CIWUnknown@@MAEXXZ
_TEXT	SEGMENT
?PreDestruct@CIWUnknown@@MAEXXZ PROC			; CIWUnknown::PreDestruct, COMDAT
; _this$ = ecx

; 48   : 	virtual void	PreDestruct( void)		{}

  00000	c2 00 00	 ret	 0
?PreDestruct@CIWUnknown@@MAEXXZ ENDP			; CIWUnknown::PreDestruct
_TEXT	ENDS
; Function compile flags: /Ogtp
; File D:\git\src\IBK\IBK_DRFN\ProjSrc\SrcChartEx\ChartAddIn\ChartPeriodSummaryAddIn\Include_AddIn\_IWUnknown.h
;	COMDAT ?PreDestructX@CIWUnknown@@MAEXXZ
_TEXT	SEGMENT
?PreDestructX@CIWUnknown@@MAEXXZ PROC			; CIWUnknown::PreDestructX, COMDAT
; _this$ = ecx

; 47   : 	virtual void	PreDestructX( void)		{}

  00000	c2 00 00	 ret	 0
?PreDestructX@CIWUnknown@@MAEXXZ ENDP			; CIWUnknown::PreDestructX
_TEXT	ENDS
; Function compile flags: /Ogtp
; File D:\git\src\IBK\IBK_DRFN\ProjSrc\SrcChartEx\ChartAddIn\ChartPeriodSummaryAddIn\Include_AddIn\_IWUnknown.h
;	COMDAT ?PostConstruct@CIWUnknown@@MAEXXZ
_TEXT	SEGMENT
?PostConstruct@CIWUnknown@@MAEXXZ PROC			; CIWUnknown::PostConstruct, COMDAT
; _this$ = ecx

; 46   : 	virtual void	PostConstruct( void)	{}

  00000	c2 00 00	 ret	 0
?PostConstruct@CIWUnknown@@MAEXXZ ENDP			; CIWUnknown::PostConstruct
_TEXT	ENDS
; Function compile flags: /Ogtp
; File C:\Program Files (x86)\Microsoft Visual Studio\2019\Community\VC\Tools\MSVC\14.29.30133\atlmfc\include\afx.inl
;	COMDAT ?_AfxInitManaged@@YAHXZ
_TEXT	SEGMENT
?_AfxInitManaged@@YAHXZ PROC				; _AfxInitManaged, COMDAT

; 87   : 	return 0;

  00000	33 c0		 xor	 eax, eax

; 88   : }

  00002	c3		 ret	 0
?_AfxInitManaged@@YAHXZ ENDP				; _AfxInitManaged
_TEXT	ENDS
; Function compile flags: /Ogtp
; File C:\Program Files (x86)\Microsoft Visual Studio\2019\Community\VC\Tools\MSVC\14.29.30133\atlmfc\include\afx.inl
;	COMDAT ?Dump@CObject@@UBEXAAVCDumpContext@@@Z
_TEXT	SEGMENT
___formal$ = 8						; size = 4
?Dump@CObject@@UBEXAAVCDumpContext@@@Z PROC		; CObject::Dump, COMDAT
; _this$ = ecx

; 122  : 	{ /* no dumping in release builds */ }

  00000	c2 04 00	 ret	 4
?Dump@CObject@@UBEXAAVCDumpContext@@@Z ENDP		; CObject::Dump
_TEXT	ENDS
; Function compile flags: /Ogtp
; File C:\Program Files (x86)\Microsoft Visual Studio\2019\Community\VC\Tools\MSVC\14.29.30133\atlmfc\include\afx.inl
;	COMDAT ?AssertValid@CObject@@UBEXXZ
_TEXT	SEGMENT
?AssertValid@CObject@@UBEXXZ PROC			; CObject::AssertValid, COMDAT
; _this$ = ecx

; 120  : 	{ /* no asserts in release builds */ }

  00000	c2 00 00	 ret	 0
?AssertValid@CObject@@UBEXXZ ENDP			; CObject::AssertValid
_TEXT	ENDS
; Function compile flags: /Ogtp
; File C:\Program Files (x86)\Microsoft Visual Studio\2019\Community\VC\Tools\MSVC\14.29.30133\atlmfc\include\afx.inl
;	COMDAT ?Serialize@CObject@@UAEXAAVCArchive@@@Z
_TEXT	SEGMENT
___formal$ = 8						; size = 4
?Serialize@CObject@@UAEXAAVCArchive@@@Z PROC		; CObject::Serialize, COMDAT
; _this$ = ecx

; 106  : 	{ /* CObject does not serialize anything by default */ }

  00000	c2 04 00	 ret	 4
?Serialize@CObject@@UAEXAAVCArchive@@@Z ENDP		; CObject::Serialize
_TEXT	ENDS
; Function compile flags: /Ogtp
; File D:\git\src\IBK\IBK_DRFN\ProjSrc\SrcChartEx\ChartAddIn\ChartPeriodSummaryAddIn\Include_AddIn\I133691\_ChartAddInBase.cpp
;	COMDAT ?__empty_global_delete@@YAXPAXI@Z
_TEXT	SEGMENT
___formal$ = 8						; size = 4
___formal$ = 12						; size = 4
?__empty_global_delete@@YAXPAXI@Z PROC			; __empty_global_delete, COMDAT

  00000	c2 00 00	 ret	 0
?__empty_global_delete@@YAXPAXI@Z ENDP			; __empty_global_delete
_TEXT	ENDS
; Function compile flags: /Ogtp
; File D:\git\src\IBK\IBK_DRFN\ProjSrc\SrcChartEx\ChartAddIn\ChartPeriodSummaryAddIn\Include_AddIn\I133691\_ChartAddInBase.cpp
;	COMDAT ?__empty_global_delete@@YAXPAX@Z
_TEXT	SEGMENT
___formal$ = 8						; size = 4
?__empty_global_delete@@YAXPAX@Z PROC			; __empty_global_delete, COMDAT

  00000	c2 00 00	 ret	 0
?__empty_global_delete@@YAXPAX@Z ENDP			; __empty_global_delete
_TEXT	ENDS
END
