; Listing generated by Microsoft (R) Optimizing Compiler Version 19.29.30145.0 

	TITLE	D:\git\src\IBK\IBK_DRFN\#DRfn-CS\_Obj\ChartPeriodSummaryAddIn\_IWUnknown.obj
	.686P
	.XMM
	include listing.inc
	.model	flat

INCLUDELIB MSVCRT
INCLUDELIB OLDNAMES

PUBLIC	?m_bTraceForDelete@CIWUnknown@@1HA		; CIWUnknown::m_bTraceForDelete
_BSS	SEGMENT
?m_bTraceForDelete@CIWUnknown@@1HA DD 01H DUP (?)	; CIWUnknown::m_bTraceForDelete
_BSS	ENDS
PUBLIC	?__empty_global_delete@@YAXPAX@Z		; __empty_global_delete
PUBLIC	?__empty_global_delete@@YAXPAXI@Z		; __empty_global_delete
PUBLIC	??1CObject@@UAE@XZ				; CObject::~CObject
PUBLIC	?Serialize@CObject@@UAEXAAVCArchive@@@Z		; CObject::Serialize
PUBLIC	?AssertValid@CObject@@UBEXXZ			; CObject::AssertValid
PUBLIC	?Dump@CObject@@UBEXAAVCDumpContext@@@Z		; CObject::Dump
PUBLIC	??0CIWUnknown@@QAE@XZ				; CIWUnknown::CIWUnknown
PUBLIC	??1CIWUnknown@@MAE@XZ				; CIWUnknown::~CIWUnknown
PUBLIC	?AddRef@CIWUnknown@@MAGKXZ			; CIWUnknown::AddRef
PUBLIC	?Release@CIWUnknown@@MAGKXZ			; CIWUnknown::Release
PUBLIC	?QueryInterface@CIWUnknown@@MAGJABU_GUID@@PAPAX@Z ; CIWUnknown::QueryInterface
PUBLIC	?PostConstruct@CIWUnknown@@MAEXXZ		; CIWUnknown::PostConstruct
PUBLIC	?PreDestructX@CIWUnknown@@MAEXXZ		; CIWUnknown::PreDestructX
PUBLIC	?PreDestruct@CIWUnknown@@MAEXXZ			; CIWUnknown::PreDestruct
PUBLIC	??_GCIWUnknown@@MAEPAXI@Z			; CIWUnknown::`scalar deleting destructor'
PUBLIC	??_R0?AVCObject@@@8				; CObject `RTTI Type Descriptor'
PUBLIC	??_R3CObject@@8					; CObject::`RTTI Class Hierarchy Descriptor'
PUBLIC	??_R2CObject@@8					; CObject::`RTTI Base Class Array'
PUBLIC	??_R1A@?0A@EA@CObject@@8			; CObject::`RTTI Base Class Descriptor at (0,-1,0,64)'
PUBLIC	??_7CIWUnknown@@6B@				; CIWUnknown::`vftable'
PUBLIC	??_R4CIWUnknown@@6B@				; CIWUnknown::`RTTI Complete Object Locator'
PUBLIC	??_R0?AVCIWUnknown@@@8				; CIWUnknown `RTTI Type Descriptor'
PUBLIC	??_R3CIWUnknown@@8				; CIWUnknown::`RTTI Class Hierarchy Descriptor'
PUBLIC	??_R2CIWUnknown@@8				; CIWUnknown::`RTTI Base Class Array'
PUBLIC	??_R1A@?0A@EA@CIWUnknown@@8			; CIWUnknown::`RTTI Base Class Descriptor at (0,-1,0,64)'
EXTRN	??3@YAXPAX@Z:PROC				; operator delete
EXTRN	?__global_delete@@YAXPAXI@Z:PROC		; __global_delete
EXTRN	?GetRuntimeClass@CObject@@UBEPAUCRuntimeClass@@XZ:PROC ; CObject::GetRuntimeClass
EXTRN	??_ECIWUnknown@@MAEPAXI@Z:PROC			; CIWUnknown::`vector deleting destructor'
EXTRN	??_7type_info@@6B@:QWORD			; type_info::`vftable'
;	COMDAT ??_R1A@?0A@EA@CIWUnknown@@8
rdata$r	SEGMENT
??_R1A@?0A@EA@CIWUnknown@@8 DD FLAT:??_R0?AVCIWUnknown@@@8 ; CIWUnknown::`RTTI Base Class Descriptor at (0,-1,0,64)'
	DD	01H
	DD	00H
	DD	0ffffffffH
	DD	00H
	DD	040H
	DD	FLAT:??_R3CIWUnknown@@8
rdata$r	ENDS
;	COMDAT ??_R2CIWUnknown@@8
rdata$r	SEGMENT
??_R2CIWUnknown@@8 DD FLAT:??_R1A@?0A@EA@CIWUnknown@@8	; CIWUnknown::`RTTI Base Class Array'
	DD	FLAT:??_R1A@?0A@EA@CObject@@8
rdata$r	ENDS
;	COMDAT ??_R3CIWUnknown@@8
rdata$r	SEGMENT
??_R3CIWUnknown@@8 DD 00H				; CIWUnknown::`RTTI Class Hierarchy Descriptor'
	DD	00H
	DD	02H
	DD	FLAT:??_R2CIWUnknown@@8
rdata$r	ENDS
;	COMDAT ??_R0?AVCIWUnknown@@@8
data$rs	SEGMENT
??_R0?AVCIWUnknown@@@8 DD FLAT:??_7type_info@@6B@	; CIWUnknown `RTTI Type Descriptor'
	DD	00H
	DB	'.?AVCIWUnknown@@', 00H
data$rs	ENDS
;	COMDAT ??_R4CIWUnknown@@6B@
rdata$r	SEGMENT
??_R4CIWUnknown@@6B@ DD 00H				; CIWUnknown::`RTTI Complete Object Locator'
	DD	00H
	DD	00H
	DD	FLAT:??_R0?AVCIWUnknown@@@8
	DD	FLAT:??_R3CIWUnknown@@8
rdata$r	ENDS
;	COMDAT ??_7CIWUnknown@@6B@
CONST	SEGMENT
??_7CIWUnknown@@6B@ DD FLAT:??_R4CIWUnknown@@6B@	; CIWUnknown::`vftable'
	DD	FLAT:?GetRuntimeClass@CObject@@UBEPAUCRuntimeClass@@XZ
	DD	FLAT:??_ECIWUnknown@@MAEPAXI@Z
	DD	FLAT:?Serialize@CObject@@UAEXAAVCArchive@@@Z
	DD	FLAT:?AssertValid@CObject@@UBEXXZ
	DD	FLAT:?Dump@CObject@@UBEXAAVCDumpContext@@@Z
	DD	FLAT:?AddRef@CIWUnknown@@MAGKXZ
	DD	FLAT:?Release@CIWUnknown@@MAGKXZ
	DD	FLAT:?QueryInterface@CIWUnknown@@MAGJABU_GUID@@PAPAX@Z
	DD	FLAT:?PostConstruct@CIWUnknown@@MAEXXZ
	DD	FLAT:?PreDestructX@CIWUnknown@@MAEXXZ
	DD	FLAT:?PreDestruct@CIWUnknown@@MAEXXZ
CONST	ENDS
;	COMDAT ??_R1A@?0A@EA@CObject@@8
rdata$r	SEGMENT
??_R1A@?0A@EA@CObject@@8 DD FLAT:??_R0?AVCObject@@@8	; CObject::`RTTI Base Class Descriptor at (0,-1,0,64)'
	DD	00H
	DD	00H
	DD	0ffffffffH
	DD	00H
	DD	040H
	DD	FLAT:??_R3CObject@@8
rdata$r	ENDS
;	COMDAT ??_R2CObject@@8
rdata$r	SEGMENT
??_R2CObject@@8 DD FLAT:??_R1A@?0A@EA@CObject@@8	; CObject::`RTTI Base Class Array'
rdata$r	ENDS
;	COMDAT ??_R3CObject@@8
rdata$r	SEGMENT
??_R3CObject@@8 DD 00H					; CObject::`RTTI Class Hierarchy Descriptor'
	DD	00H
	DD	01H
	DD	FLAT:??_R2CObject@@8
rdata$r	ENDS
;	COMDAT ??_R0?AVCObject@@@8
data$rs	SEGMENT
??_R0?AVCObject@@@8 DD FLAT:??_7type_info@@6B@		; CObject `RTTI Type Descriptor'
	DD	00H
	DB	'.?AVCObject@@', 00H
data$rs	ENDS
; Function compile flags: /Ogtp
; File C:\Program Files (x86)\Microsoft Visual Studio\2019\Community\VC\Tools\MSVC\14.29.30133\atlmfc\include\afx.inl
;	COMDAT ??_GCIWUnknown@@MAEPAXI@Z
_TEXT	SEGMENT
___flags$ = 8						; size = 4
??_GCIWUnknown@@MAEPAXI@Z PROC				; CIWUnknown::`scalar deleting destructor', COMDAT
; _this$ = ecx
  00000	55		 push	 ebp
  00001	8b ec		 mov	 ebp, esp
  00003	8b 45 08	 mov	 eax, DWORD PTR ___flags$[ebp]
  00006	56		 push	 esi
  00007	8b f1		 mov	 esi, ecx
  00009	c7 06 00 00 00
	00		 mov	 DWORD PTR [esi], OFFSET ??_7CIWUnknown@@6B@
  0000f	a8 01		 test	 al, 1
  00011	74 1f		 je	 SHORT $LN9@scalar
  00013	a8 04		 test	 al, 4
  00015	75 10		 jne	 SHORT $LN3@scalar

; 112  : 	{ ::operator delete(p); }

  00017	56		 push	 esi
  00018	e8 00 00 00 00	 call	 ??3@YAXPAX@Z		; operator delete
  0001d	83 c4 04	 add	 esp, 4
  00020	8b c6		 mov	 eax, esi
  00022	5e		 pop	 esi
  00023	5d		 pop	 ebp
  00024	c2 04 00	 ret	 4
$LN3@scalar:
  00027	6a 08		 push	 8
  00029	56		 push	 esi
  0002a	e8 00 00 00 00	 call	 ?__global_delete@@YAXPAXI@Z ; __global_delete
  0002f	83 c4 08	 add	 esp, 8
$LN9@scalar:
  00032	8b c6		 mov	 eax, esi
  00034	5e		 pop	 esi
  00035	5d		 pop	 ebp
  00036	c2 04 00	 ret	 4
??_GCIWUnknown@@MAEPAXI@Z ENDP				; CIWUnknown::`scalar deleting destructor'
_TEXT	ENDS
; Function compile flags: /Ogtp
; File D:\git\src\IBK\IBK_DRFN\ProjSrc\SrcChartEx\ChartAddIn\ChartPeriodSummaryAddIn\Include_AddIn\_IWUnknown.h
;	COMDAT ?PreDestruct@CIWUnknown@@MAEXXZ
_TEXT	SEGMENT
?PreDestruct@CIWUnknown@@MAEXXZ PROC			; CIWUnknown::PreDestruct, COMDAT
; _this$ = ecx

; 48   : 	virtual void	PreDestruct( void)		{}

  00000	c2 00 00	 ret	 0
?PreDestruct@CIWUnknown@@MAEXXZ ENDP			; CIWUnknown::PreDestruct
_TEXT	ENDS
; Function compile flags: /Ogtp
; File D:\git\src\IBK\IBK_DRFN\ProjSrc\SrcChartEx\ChartAddIn\ChartPeriodSummaryAddIn\Include_AddIn\_IWUnknown.h
;	COMDAT ?PreDestructX@CIWUnknown@@MAEXXZ
_TEXT	SEGMENT
?PreDestructX@CIWUnknown@@MAEXXZ PROC			; CIWUnknown::PreDestructX, COMDAT
; _this$ = ecx

; 47   : 	virtual void	PreDestructX( void)		{}

  00000	c2 00 00	 ret	 0
?PreDestructX@CIWUnknown@@MAEXXZ ENDP			; CIWUnknown::PreDestructX
_TEXT	ENDS
; Function compile flags: /Ogtp
; File D:\git\src\IBK\IBK_DRFN\ProjSrc\SrcChartEx\ChartAddIn\ChartPeriodSummaryAddIn\Include_AddIn\_IWUnknown.h
;	COMDAT ?PostConstruct@CIWUnknown@@MAEXXZ
_TEXT	SEGMENT
?PostConstruct@CIWUnknown@@MAEXXZ PROC			; CIWUnknown::PostConstruct, COMDAT
; _this$ = ecx

; 46   : 	virtual void	PostConstruct( void)	{}

  00000	c2 00 00	 ret	 0
?PostConstruct@CIWUnknown@@MAEXXZ ENDP			; CIWUnknown::PostConstruct
_TEXT	ENDS
; Function compile flags: /Ogtp
; File D:\git\src\IBK\IBK_DRFN\ProjSrc\SrcChartEx\ChartAddIn\ChartPeriodSummaryAddIn\Include_AddIn\_IWUnknown.h
;	COMDAT ?QueryInterface@CIWUnknown@@MAGJABU_GUID@@PAPAX@Z
_TEXT	SEGMENT
_this$ = 8						; size = 4
_iid$ = 12						; size = 4
_ppvObject$ = 16					; size = 4
?QueryInterface@CIWUnknown@@MAGJABU_GUID@@PAPAX@Z PROC	; CIWUnknown::QueryInterface, COMDAT

; 40   : 	virtual HRESULT	STDMETHODCALLTYPE QueryInterface( REFIID iid, void ** ppvObject)	{	return E_NOINTERFACE;	}

  00000	b8 02 40 00 80	 mov	 eax, -2147467262	; 80004002H
  00005	c2 0c 00	 ret	 12			; 0000000cH
?QueryInterface@CIWUnknown@@MAGJABU_GUID@@PAPAX@Z ENDP	; CIWUnknown::QueryInterface
_TEXT	ENDS
; Function compile flags: /Ogtp
; File D:\git\src\IBK\IBK_DRFN\ProjSrc\SrcChartEx\ChartAddIn\ChartPeriodSummaryAddIn\Include_AddIn\_IWUnknown.cpp
;	COMDAT ?Release@CIWUnknown@@MAGKXZ
_TEXT	SEGMENT
_this$ = 8						; size = 4
?Release@CIWUnknown@@MAGKXZ PROC			; CIWUnknown::Release, COMDAT

; 43   : {

  00000	55		 push	 ebp
  00001	8b ec		 mov	 ebp, esp

; 44   : 	m_ulReference--;

  00003	8b 4d 08	 mov	 ecx, DWORD PTR _this$[ebp]
  00006	83 41 04 ff	 add	 DWORD PTR [ecx+4], -1
  0000a	8b 41 04	 mov	 eax, DWORD PTR [ecx+4]

; 45   : 	if( m_ulReference <= 0)

  0000d	75 10		 jne	 SHORT $LN1@Release

; 46   : 	{
; 47   : 		// (2006/6/19 - Seung-Won, Bae) Cuation! Do not update after delete!
; 48   : 		m_ulReference = 0;
; 49   : 		delete this;

  0000f	8b 01		 mov	 eax, DWORD PTR [ecx]
  00011	6a 01		 push	 1
  00013	c7 41 04 00 00
	00 00		 mov	 DWORD PTR [ecx+4], 0
  0001a	ff 50 04	 call	 DWORD PTR [eax+4]

; 50   : 		// (2006/6/27 - Seung-Won, Bae) Cuation! Do not access this.
; 51   : 		return 0;

  0001d	33 c0		 xor	 eax, eax
$LN1@Release:

; 52   : 	}
; 53   : 
; 54   : 	return m_ulReference;
; 55   : }

  0001f	5d		 pop	 ebp
  00020	c2 04 00	 ret	 4
?Release@CIWUnknown@@MAGKXZ ENDP			; CIWUnknown::Release
_TEXT	ENDS
; Function compile flags: /Ogtp
; File D:\git\src\IBK\IBK_DRFN\ProjSrc\SrcChartEx\ChartAddIn\ChartPeriodSummaryAddIn\Include_AddIn\_IWUnknown.cpp
;	COMDAT ?AddRef@CIWUnknown@@MAGKXZ
_TEXT	SEGMENT
_this$ = 8						; size = 4
?AddRef@CIWUnknown@@MAGKXZ PROC				; CIWUnknown::AddRef, COMDAT

; 38   : {

  00000	55		 push	 ebp
  00001	8b ec		 mov	 ebp, esp

; 39   : 	m_ulReference++;

  00003	8b 4d 08	 mov	 ecx, DWORD PTR _this$[ebp]
  00006	8b 41 04	 mov	 eax, DWORD PTR [ecx+4]
  00009	40		 inc	 eax
  0000a	89 41 04	 mov	 DWORD PTR [ecx+4], eax

; 40   : 	return m_ulReference;
; 41   : }

  0000d	5d		 pop	 ebp
  0000e	c2 04 00	 ret	 4
?AddRef@CIWUnknown@@MAGKXZ ENDP				; CIWUnknown::AddRef
_TEXT	ENDS
; Function compile flags: /Ogtp
; File D:\git\src\IBK\IBK_DRFN\ProjSrc\SrcChartEx\ChartAddIn\ChartPeriodSummaryAddIn\Include_AddIn\_IWUnknown.cpp
;	COMDAT ??1CIWUnknown@@MAE@XZ
_TEXT	SEGMENT
??1CIWUnknown@@MAE@XZ PROC				; CIWUnknown::~CIWUnknown, COMDAT
; _this$ = ecx

; 32   : {

  00000	c7 01 00 00 00
	00		 mov	 DWORD PTR [ecx], OFFSET ??_7CIWUnknown@@6B@

; 33   : 
; 34   : }

  00006	c3		 ret	 0
??1CIWUnknown@@MAE@XZ ENDP				; CIWUnknown::~CIWUnknown
_TEXT	ENDS
; Function compile flags: /Ogtp
; File D:\git\src\IBK\IBK_DRFN\ProjSrc\SrcChartEx\ChartAddIn\ChartPeriodSummaryAddIn\Include_AddIn\_IWUnknown.cpp
;	COMDAT ??0CIWUnknown@@QAE@XZ
_TEXT	SEGMENT
??0CIWUnknown@@QAE@XZ PROC				; CIWUnknown::CIWUnknown, COMDAT
; _this$ = ecx

; 26   : {

  00000	c7 01 00 00 00
	00		 mov	 DWORD PTR [ecx], OFFSET ??_7CIWUnknown@@6B@

; 27   : 	// (2004.10.07, 배승원) AddRef()와 Release()를 제공한다. (QueryInterface()는 NULL로 등록해 놓는다.)
; 28   : 	m_ulReference = 0;
; 29   : }

  00006	8b c1		 mov	 eax, ecx
  00008	c7 41 04 00 00
	00 00		 mov	 DWORD PTR [ecx+4], 0
  0000f	c3		 ret	 0
??0CIWUnknown@@QAE@XZ ENDP				; CIWUnknown::CIWUnknown
_TEXT	ENDS
; Function compile flags: /Ogtp
; File C:\Program Files (x86)\Microsoft Visual Studio\2019\Community\VC\Tools\MSVC\14.29.30133\atlmfc\include\afx.inl
;	COMDAT ?Dump@CObject@@UBEXAAVCDumpContext@@@Z
_TEXT	SEGMENT
___formal$ = 8						; size = 4
?Dump@CObject@@UBEXAAVCDumpContext@@@Z PROC		; CObject::Dump, COMDAT
; _this$ = ecx

; 122  : 	{ /* no dumping in release builds */ }

  00000	c2 04 00	 ret	 4
?Dump@CObject@@UBEXAAVCDumpContext@@@Z ENDP		; CObject::Dump
_TEXT	ENDS
; Function compile flags: /Ogtp
; File C:\Program Files (x86)\Microsoft Visual Studio\2019\Community\VC\Tools\MSVC\14.29.30133\atlmfc\include\afx.inl
;	COMDAT ?AssertValid@CObject@@UBEXXZ
_TEXT	SEGMENT
?AssertValid@CObject@@UBEXXZ PROC			; CObject::AssertValid, COMDAT
; _this$ = ecx

; 120  : 	{ /* no asserts in release builds */ }

  00000	c2 00 00	 ret	 0
?AssertValid@CObject@@UBEXXZ ENDP			; CObject::AssertValid
_TEXT	ENDS
; Function compile flags: /Ogtp
; File C:\Program Files (x86)\Microsoft Visual Studio\2019\Community\VC\Tools\MSVC\14.29.30133\atlmfc\include\afx.inl
;	COMDAT ?Serialize@CObject@@UAEXAAVCArchive@@@Z
_TEXT	SEGMENT
___formal$ = 8						; size = 4
?Serialize@CObject@@UAEXAAVCArchive@@@Z PROC		; CObject::Serialize, COMDAT
; _this$ = ecx

; 106  : 	{ /* CObject does not serialize anything by default */ }

  00000	c2 04 00	 ret	 4
?Serialize@CObject@@UAEXAAVCArchive@@@Z ENDP		; CObject::Serialize
_TEXT	ENDS
; Function compile flags: /Ogtp
; File C:\Program Files (x86)\Microsoft Visual Studio\2019\Community\VC\Tools\MSVC\14.29.30133\atlmfc\include\afx.inl
;	COMDAT ??1CObject@@UAE@XZ
_TEXT	SEGMENT
??1CObject@@UAE@XZ PROC					; CObject::~CObject, COMDAT
; _this$ = ecx

; 104  : 	{ }

  00000	c2 00 00	 ret	 0
??1CObject@@UAE@XZ ENDP					; CObject::~CObject
_TEXT	ENDS
; Function compile flags: /Ogtp
; File D:\git\src\IBK\IBK_DRFN\ProjSrc\SrcChartEx\ChartAddIn\ChartPeriodSummaryAddIn\Include_AddIn\_IWUnknown.cpp
;	COMDAT ?__empty_global_delete@@YAXPAXI@Z
_TEXT	SEGMENT
___formal$ = 8						; size = 4
___formal$ = 12						; size = 4
?__empty_global_delete@@YAXPAXI@Z PROC			; __empty_global_delete, COMDAT

  00000	c2 00 00	 ret	 0
?__empty_global_delete@@YAXPAXI@Z ENDP			; __empty_global_delete
_TEXT	ENDS
; Function compile flags: /Ogtp
; File D:\git\src\IBK\IBK_DRFN\ProjSrc\SrcChartEx\ChartAddIn\ChartPeriodSummaryAddIn\Include_AddIn\_IWUnknown.cpp
;	COMDAT ?__empty_global_delete@@YAXPAX@Z
_TEXT	SEGMENT
___formal$ = 8						; size = 4
?__empty_global_delete@@YAXPAX@Z PROC			; __empty_global_delete, COMDAT

  00000	c2 00 00	 ret	 0
?__empty_global_delete@@YAXPAX@Z ENDP			; __empty_global_delete
_TEXT	ENDS
END
