; Listing generated by Microsoft (R) Optimizing Compiler Version 19.29.30145.0 

	TITLE	D:\git\src\IBK\IBK_DRFN\#DRfn-CS\_Obj\ChartPeriodSummaryAddIn\ChartPeriodSummaryAddInImp.obj
	.686P
	.XMM
	include listing.inc
	.model	flat

INCLUDELIB MSVCRT
INCLUDELIB OLDNAMES

PUBLIC	?m_eRegisteredEventMap@CChartPeriodSummaryAddInImp@@1QBW4EAddInEventType@IChartAddIn133691@@B ; CChartPeriodSummaryAddInImp::m_eRegisteredEventMap
PUBLIC	??_C@_0BC@MMPGLPDH@RMS_ANALYSIS_FUNC@		; `string'
PUBLIC	??_C@_01GBGANLPD@0@				; `string'
PUBLIC	??_C@_01HIHLOKLC@1@				; `string'
PUBLIC	??_C@_01FDFGLJHB@2@				; `string'
PUBLIC	??_C@_01EKENIIDA@3@				; `string'
PUBLIC	??_C@_01FAMBOPH@4@				; `string'
PUBLIC	??_C@_01BMBHCPLG@5@				; `string'
PUBLIC	??_C@_01DHDKHMHF@6@				; `string'
PUBLIC	??_C@_01COCBENDE@7@				; `string'
PUBLIC	??_C@_01KJLJFBPL@8@				; `string'
PUBLIC	??_C@_01LAKCGALK@9@				; `string'
PUBLIC	??_C@_02PKFBJPLJ@10@				; `string'
PUBLIC	??_C@_02ODEKKOPI@11@				; `string'
PUBLIC	??_C@_02MIGHPNDL@12@				; `string'
PUBLIC	??_C@_02NBHMMMHK@13@				; `string'
PUBLIC	??_C@_02JODNFKLN@14@				; `string'
PUBLIC	??_C@_02IHCGGLPM@15@				; `string'
PUBLIC	??_C@_02KMALDIDP@16@				; `string'
PUBLIC	??_C@_02LFBAAJHO@17@				; `string'
PUBLIC	??_C@_02DCIIBFLB@18@				; `string'
PUBLIC	??_C@_02CLJDCEPA@19@				; `string'
PUBLIC	??_C@_02PIBHCBOA@20@				; `string'
PUBLIC	??_C@_02OBAMBAKB@21@				; `string'
PUBLIC	??_C@_02MKCBEDGC@22@				; `string'
PUBLIC	??_C@_02NDDKHCCD@23@				; `string'
PUBLIC	??_C@_02JMHLOEOE@24@				; `string'
PUBLIC	??_C@_0P@EGLBNOFN@PERIOD_SUMMARY@		; `string'
;	COMDAT ??_C@_0P@EGLBNOFN@PERIOD_SUMMARY@
CONST	SEGMENT
??_C@_0P@EGLBNOFN@PERIOD_SUMMARY@ DB 'PERIOD_SUMMARY', 00H ; `string'
CONST	ENDS
;	COMDAT ??_C@_02JMHLOEOE@24@
CONST	SEGMENT
??_C@_02JMHLOEOE@24@ DB '24', 00H			; `string'
CONST	ENDS
;	COMDAT ??_C@_02NDDKHCCD@23@
CONST	SEGMENT
??_C@_02NDDKHCCD@23@ DB '23', 00H			; `string'
CONST	ENDS
;	COMDAT ??_C@_02MKCBEDGC@22@
CONST	SEGMENT
??_C@_02MKCBEDGC@22@ DB '22', 00H			; `string'
CONST	ENDS
;	COMDAT ??_C@_02OBAMBAKB@21@
CONST	SEGMENT
??_C@_02OBAMBAKB@21@ DB '21', 00H			; `string'
CONST	ENDS
;	COMDAT ??_C@_02PIBHCBOA@20@
CONST	SEGMENT
??_C@_02PIBHCBOA@20@ DB '20', 00H			; `string'
CONST	ENDS
;	COMDAT ??_C@_02CLJDCEPA@19@
CONST	SEGMENT
??_C@_02CLJDCEPA@19@ DB '19', 00H			; `string'
CONST	ENDS
;	COMDAT ??_C@_02DCIIBFLB@18@
CONST	SEGMENT
??_C@_02DCIIBFLB@18@ DB '18', 00H			; `string'
CONST	ENDS
;	COMDAT ??_C@_02LFBAAJHO@17@
CONST	SEGMENT
??_C@_02LFBAAJHO@17@ DB '17', 00H			; `string'
CONST	ENDS
;	COMDAT ??_C@_02KMALDIDP@16@
CONST	SEGMENT
??_C@_02KMALDIDP@16@ DB '16', 00H			; `string'
CONST	ENDS
;	COMDAT ??_C@_02IHCGGLPM@15@
CONST	SEGMENT
??_C@_02IHCGGLPM@15@ DB '15', 00H			; `string'
CONST	ENDS
;	COMDAT ??_C@_02JODNFKLN@14@
CONST	SEGMENT
??_C@_02JODNFKLN@14@ DB '14', 00H			; `string'
CONST	ENDS
;	COMDAT ??_C@_02NBHMMMHK@13@
CONST	SEGMENT
??_C@_02NBHMMMHK@13@ DB '13', 00H			; `string'
CONST	ENDS
;	COMDAT ??_C@_02MIGHPNDL@12@
CONST	SEGMENT
??_C@_02MIGHPNDL@12@ DB '12', 00H			; `string'
CONST	ENDS
;	COMDAT ??_C@_02ODEKKOPI@11@
CONST	SEGMENT
??_C@_02ODEKKOPI@11@ DB '11', 00H			; `string'
CONST	ENDS
;	COMDAT ??_C@_02PKFBJPLJ@10@
CONST	SEGMENT
??_C@_02PKFBJPLJ@10@ DB '10', 00H			; `string'
CONST	ENDS
;	COMDAT ??_C@_01LAKCGALK@9@
CONST	SEGMENT
??_C@_01LAKCGALK@9@ DB '9', 00H				; `string'
CONST	ENDS
;	COMDAT ??_C@_01KJLJFBPL@8@
CONST	SEGMENT
??_C@_01KJLJFBPL@8@ DB '8', 00H				; `string'
CONST	ENDS
;	COMDAT ??_C@_01COCBENDE@7@
CONST	SEGMENT
??_C@_01COCBENDE@7@ DB '7', 00H				; `string'
CONST	ENDS
;	COMDAT ??_C@_01DHDKHMHF@6@
CONST	SEGMENT
??_C@_01DHDKHMHF@6@ DB '6', 00H				; `string'
CONST	ENDS
;	COMDAT ??_C@_01BMBHCPLG@5@
CONST	SEGMENT
??_C@_01BMBHCPLG@5@ DB '5', 00H				; `string'
CONST	ENDS
;	COMDAT ??_C@_01FAMBOPH@4@
CONST	SEGMENT
??_C@_01FAMBOPH@4@ DB '4', 00H				; `string'
CONST	ENDS
;	COMDAT ??_C@_01EKENIIDA@3@
CONST	SEGMENT
??_C@_01EKENIIDA@3@ DB '3', 00H				; `string'
CONST	ENDS
;	COMDAT ??_C@_01FDFGLJHB@2@
CONST	SEGMENT
??_C@_01FDFGLJHB@2@ DB '2', 00H				; `string'
CONST	ENDS
;	COMDAT ??_C@_01HIHLOKLC@1@
CONST	SEGMENT
??_C@_01HIHLOKLC@1@ DB '1', 00H				; `string'
CONST	ENDS
;	COMDAT ??_C@_01GBGANLPD@0@
CONST	SEGMENT
??_C@_01GBGANLPD@0@ DB '0', 00H				; `string'
CONST	ENDS
;	COMDAT ??_C@_0BC@MMPGLPDH@RMS_ANALYSIS_FUNC@
CONST	SEGMENT
??_C@_0BC@MMPGLPDH@RMS_ANALYSIS_FUNC@ DB 'RMS_ANALYSIS_FUNC', 00H ; `string'
CONST	ENDS
CONST	SEGMENT
?m_eRegisteredEventMap@CChartPeriodSummaryAddInImp@@1QBW4EAddInEventType@IChartAddIn133691@@B DD 014H ; CChartPeriodSummaryAddInImp::m_eRegisteredEventMap
	DD	015H
	DD	037H
	DD	022H
	DD	02fH
	DD	033H
	DD	034H
	DD	035H
	DD	012H
	DD	013H
	DD	017H
	DD	01dH
	DD	01aH
	DD	01bH
	DD	019H
	DD	020H
	DD	021H
	DD	05H
	DD	03bH
	ORG $+164
CONST	ENDS
PUBLIC	?__empty_global_delete@@YAXPAX@Z		; __empty_global_delete
PUBLIC	?__empty_global_delete@@YAXPAXI@Z		; __empty_global_delete
PUBLIC	??1CObject@@UAE@XZ				; CObject::~CObject
PUBLIC	??3CObject@@SGXPAX@Z				; CObject::operator delete
PUBLIC	?Serialize@CObject@@UAEXAAVCArchive@@@Z		; CObject::Serialize
PUBLIC	?AssertValid@CObject@@UBEXXZ			; CObject::AssertValid
PUBLIC	?Dump@CObject@@UBEXAAVCDumpContext@@@Z		; CObject::Dump
PUBLIC	??1CGdiObject@@UAE@XZ				; CGdiObject::~CGdiObject
PUBLIC	??_GCGdiObject@@UAEPAXI@Z			; CGdiObject::`scalar deleting destructor'
PUBLIC	??1CRgn@@UAE@XZ					; CRgn::~CRgn
PUBLIC	??_GCRgn@@UAEPAXI@Z				; CRgn::`scalar deleting destructor'
PUBLIC	??1CMenu@@UAE@XZ				; CMenu::~CMenu
PUBLIC	??_GCMenu@@UAEPAXI@Z				; CMenu::`scalar deleting destructor'
PUBLIC	?PostConstruct@CIWUnknown@@MAEXXZ		; CIWUnknown::PostConstruct
PUBLIC	?PreDestructX@CIWUnknown@@MAEXXZ		; CIWUnknown::PreDestructX
PUBLIC	?PreDestruct@CIWUnknown@@MAEXXZ			; CIWUnknown::PreDestruct
PUBLIC	?AddRef@CChartAddInBase133691@@MAGKXZ		; CChartAddInBase133691::AddRef
PUBLIC	?Release@CChartAddInBase133691@@MAGKXZ		; CChartAddInBase133691::Release
PUBLIC	?QueryInterface@CChartAddInBase133691@@MAGJABU_GUID@@PAPAX@Z ; CChartAddInBase133691::QueryInterface
PUBLIC	?GetAddInCustomInterface@CChartAddInBase133691@@MAEPAUIUnknown@@XZ ; CChartAddInBase133691::GetAddInCustomInterface
PUBLIC	?InvokeAddInStr@CChartAddInBase133691@@MAEHPBD0@Z ; CChartAddInBase133691::InvokeAddInStr
PUBLIC	?OnOcxDestroyWindow@CChartAddInBase133691@@MAEXXZ ; CChartAddInBase133691::OnOcxDestroyWindow
PUBLIC	?OnGSharedDataChange@CChartAddInBase133691@@MAEXPBD0H@Z ; CChartAddInBase133691::OnGSharedDataChange
PUBLIC	?OnLSharedDataChange@CChartAddInBase133691@@MAEXPBD0@Z ; CChartAddInBase133691::OnLSharedDataChange
PUBLIC	?OnTimer@CChartAddInBase133691@@MAEXI@Z		; CChartAddInBase133691::OnTimer
PUBLIC	?OnResetMainBlock@CChartAddInBase133691@@MAEXXZ	; CChartAddInBase133691::OnResetMainBlock
PUBLIC	?OnUserIndiatorConditionLoaded@CChartAddInBase133691@@MAEXXZ ; CChartAddInBase133691::OnUserIndiatorConditionLoaded
PUBLIC	?OnChartItemChanged@CChartAddInBase133691@@MAEXXZ ; CChartAddInBase133691::OnChartItemChanged
PUBLIC	?OnGraphDataChanged@CChartAddInBase133691@@MAEXXZ ; CChartAddInBase133691::OnGraphDataChanged
PUBLIC	?OnBlockRemoved@CChartAddInBase133691@@MAEXHH@Z	; CChartAddInBase133691::OnBlockRemoved
PUBLIC	?OnGraphAdded@CChartAddInBase133691@@MAEXPBD0@Z	; CChartAddInBase133691::OnGraphAdded
PUBLIC	?OnManualRealData@CChartAddInBase133691@@MAEXPBDNH@Z ; CChartAddInBase133691::OnManualRealData
PUBLIC	?OnContextMenu@CChartAddInBase133691@@MAEXPAUHWND__@@AAUtagPOINT@@@Z ; CChartAddInBase133691::OnContextMenu
PUBLIC	?OnGraphDeleted@CChartAddInBase133691@@MAEXPBD0@Z ; CChartAddInBase133691::OnGraphDeleted
PUBLIC	?OnPacketTruncated@CChartAddInBase133691@@MAEXH@Z ; CChartAddInBase133691::OnPacketTruncated
PUBLIC	?OnBlockChanged@CChartAddInBase133691@@MAEXW4BLOCKBEHAVIOR@CBlockBaseData@@HHHH@Z ; CChartAddInBase133691::OnBlockChanged
PUBLIC	?OnRealData@CChartAddInBase133691@@MAEXPBDN0@Z	; CChartAddInBase133691::OnRealData
PUBLIC	?OnIndexedRealData@CChartAddInBase133691@@MAEXPBDHN@Z ; CChartAddInBase133691::OnIndexedRealData
PUBLIC	?OnRealPacketEnd@CChartAddInBase133691@@MAEXPBD@Z ; CChartAddInBase133691::OnRealPacketEnd
PUBLIC	?OnRecalculationComplete@CChartAddInBase133691@@MAEXXZ ; CChartAddInBase133691::OnRecalculationComplete
PUBLIC	?OnPreRealData@CChartAddInBase133691@@MAEHPBDAAN0@Z ; CChartAddInBase133691::OnPreRealData
PUBLIC	?OnPreIndexedRealData@CChartAddInBase133691@@MAEHPBDHAAN@Z ; CChartAddInBase133691::OnPreIndexedRealData
PUBLIC	?OnPreRealPacketEnd@CChartAddInBase133691@@MAEHPBD@Z ; CChartAddInBase133691::OnPreRealPacketEnd
PUBLIC	?OnAddInMsg@CChartAddInBase133691@@MAEHPBDJ@Z	; CChartAddInBase133691::OnAddInMsg
PUBLIC	?OnAddInToolCommand@CChartAddInBase133691@@MAEHW4EAICommandType@@@Z ; CChartAddInBase133691::OnAddInToolCommand
PUBLIC	?OnAddInToolCommand@CChartAddInBase133691@@MAEHW4EAICommandType@@PAUHDC__@@IAAUtagPOINT@@K@Z ; CChartAddInBase133691::OnAddInToolCommand
PUBLIC	?OnAddInToolCommand@CChartAddInBase133691@@MAEHW4EAICommandType@@PBD@Z ; CChartAddInBase133691::OnAddInToolCommand
PUBLIC	?OnAddInToolCommand@CChartAddInBase133691@@MAEHW4EAICommandType@@PBD1@Z ; CChartAddInBase133691::OnAddInToolCommand
PUBLIC	?OnAddInToolCommand@CChartAddInBase133691@@MAEHW4EAICommandType@@PBUIAddInDllBase@@@Z ; CChartAddInBase133691::OnAddInToolCommand
PUBLIC	?OnAddInToolCommand@CChartAddInBase133691@@MAEHW4EAICommandType@@J@Z ; CChartAddInBase133691::OnAddInToolCommand
PUBLIC	?OnAddInToolCommand@CChartAddInBase133691@@MAEHW4EAICommandType@@JPBD@Z ; CChartAddInBase133691::OnAddInToolCommand
PUBLIC	?OnAddInToolCommand@CChartAddInBase133691@@MAEHW4EAICommandType@@JPBD11@Z ; CChartAddInBase133691::OnAddInToolCommand
PUBLIC	?OnAddInToolCommand@CChartAddInBase133691@@MAEHW4EAICommandType@@JJ@Z ; CChartAddInBase133691::OnAddInToolCommand
PUBLIC	?OnAddInToolCommand@CChartAddInBase133691@@MAEHW4EAICommandType@@JJJJJJJJJ@Z ; CChartAddInBase133691::OnAddInToolCommand
PUBLIC	?OnAddInToolCommand@CChartAddInBase133691@@MAEHAAJW4EAICommandType@@@Z ; CChartAddInBase133691::OnAddInToolCommand
PUBLIC	?OnAddInToolCommand@CChartAddInBase133691@@MAEHAAJW4EAICommandType@@PAUIGraphInfo133691@@@Z ; CChartAddInBase133691::OnAddInToolCommand
PUBLIC	?OnAddInToolCommand@CChartAddInBase133691@@MAEHAAJW4EAICommandType@@PBD@Z ; CChartAddInBase133691::OnAddInToolCommand
PUBLIC	?OnAddInToolCommand@CChartAddInBase133691@@MAEHAAJW4EAICommandType@@PBDPAVCObject@@@Z ; CChartAddInBase133691::OnAddInToolCommand
PUBLIC	?OnAddInToolCommand@CChartAddInBase133691@@MAEHAAJW4EAICommandType@@J@Z ; CChartAddInBase133691::OnAddInToolCommand
PUBLIC	?OnAddInToolCommand@CChartAddInBase133691@@MAEHAAJW4EAICommandType@@JJ@Z ; CChartAddInBase133691::OnAddInToolCommand
PUBLIC	?OnKeyUp@CChartAddInBase133691@@MAEHIII@Z	; CChartAddInBase133691::OnKeyUp
PUBLIC	?OnMouseWheel@CChartAddInBase133691@@MAEHIFUtagPOINT@@K@Z ; CChartAddInBase133691::OnMouseWheel
PUBLIC	?OnRButtonDblClk@CChartAddInBase133691@@MAEHPAUHDC__@@IAAUtagPOINT@@K@Z ; CChartAddInBase133691::OnRButtonDblClk
PUBLIC	??1ILPCSTR133691@@QAE@XZ			; ILPCSTR133691::~ILPCSTR133691
PUBLIC	?UnregPS@CChartPeriodSummaryAddInImp@@QAEXJ@Z	; CChartPeriodSummaryAddInImp::UnregPS
PUBLIC	?RegPS@CChartPeriodSummaryAddInImp@@QAEXJ@Z	; CChartPeriodSummaryAddInImp::RegPS
PUBLIC	?IsValidIndex@CChartPeriodSummaryAddInImp@@QAEHPBDH@Z ; CChartPeriodSummaryAddInImp::IsValidIndex
PUBLIC	?GetDateType@CChartPeriodSummaryAddInImp@@QAEHPAVCPeriodObj@@@Z ; CChartPeriodSummaryAddInImp::GetDateType
PUBLIC	?OnDeleteLine@CChartPeriodSummaryAddInImp@@QAEXXZ ; CChartPeriodSummaryAddInImp::OnDeleteLine
PUBLIC	?OnPSConfig@CChartPeriodSummaryAddInImp@@QAEXPAVCPeriodObj@@@Z ; CChartPeriodSummaryAddInImp::OnPSConfig
PUBLIC	?OnReleaseDraw@CChartPeriodSummaryAddInImp@@QAEXXZ ; CChartPeriodSummaryAddInImp::OnReleaseDraw
PUBLIC	?GetPriceInfo@CChartPeriodSummaryAddInImp@@QAEHPBDPAVCPrice@CPeriodObj@@HH@Z ; CChartPeriodSummaryAddInImp::GetPriceInfo
PUBLIC	?GetCandleInfo@CChartPeriodSummaryAddInImp@@QAEHPBDPAVCCandle@CPeriodObj@@HH@Z ; CChartPeriodSummaryAddInImp::GetCandleInfo
PUBLIC	?GetAmountInfo@CChartPeriodSummaryAddInImp@@QAEHPBDPAVCAmount@CPeriodObj@@HH@Z ; CChartPeriodSummaryAddInImp::GetAmountInfo
PUBLIC	?GetIndexFromValue@CChartPeriodSummaryAddInImp@@QAEHPBDH_JNAAH2@Z ; CChartPeriodSummaryAddInImp::GetIndexFromValue
PUBLIC	?GetPointFromIndex@CChartPeriodSummaryAddInImp@@QAEHPBDHHAAVCPoint@@@Z ; CChartPeriodSummaryAddInImp::GetPointFromIndex
PUBLIC	?GetIndexFromPoint@CChartPeriodSummaryAddInImp@@QAEHPBDAAVCPoint@@AAH2@Z ; CChartPeriodSummaryAddInImp::GetIndexFromPoint
PUBLIC	?TokenizeEx@CChartPeriodSummaryAddInImp@@QAE?AV?$CStringT@DV?$StrTraitMFC_DLL@DV?$ChTraitsCRT@D@ATL@@@@@ATL@@V23@PBDAAH@Z ; CChartPeriodSummaryAddInImp::TokenizeEx
PUBLIC	?GetChartBasicData@CChartPeriodSummaryAddInImp@@QAEHPAVCPeriodObj@@@Z ; CChartPeriodSummaryAddInImp::GetChartBasicData
PUBLIC	??0CChartPeriodSummaryAddInImp@@QAE@PAUIChartOCX133691@@PAUIAddInDllBase@@@Z ; CChartPeriodSummaryAddInImp::CChartPeriodSummaryAddInImp
PUBLIC	??1CChartPeriodSummaryAddInImp@@UAE@XZ		; CChartPeriodSummaryAddInImp::~CChartPeriodSummaryAddInImp
PUBLIC	?GetData_X@CChartPeriodSummaryAddInImp@@QAEHABVCPoint@@AA_J@Z ; CChartPeriodSummaryAddInImp::GetData_X
PUBLIC	?DoubleToString@CChartPeriodSummaryAddInImp@@QAE?AV?$CStringT@DV?$StrTraitMFC_DLL@DV?$ChTraitsCRT@D@ATL@@@@@ATL@@ABN@Z ; CChartPeriodSummaryAddInImp::DoubleToString
PUBLIC	?RecalcLineXPoint@CChartPeriodSummaryAddInImp@@QAE_NPBDH@Z ; CChartPeriodSummaryAddInImp::RecalcLineXPoint
PUBLIC	?InvokeAddIn@CChartPeriodSummaryAddInImp@@MAEHHJ@Z ; CChartPeriodSummaryAddInImp::InvokeAddIn
PUBLIC	?GetRegisteredEventMap@CChartPeriodSummaryAddInImp@@MBEPBW4EAddInEventType@IChartAddIn133691@@XZ ; CChartPeriodSummaryAddInImp::GetRegisteredEventMap
PUBLIC	?OnDrawAfterGraph@CChartPeriodSummaryAddInImp@@MAEXPAUHDC__@@@Z ; CChartPeriodSummaryAddInImp::OnDrawAfterGraph
PUBLIC	?OnDrawBeforeGraph@CChartPeriodSummaryAddInImp@@MAEXPAUHDC__@@@Z ; CChartPeriodSummaryAddInImp::OnDrawBeforeGraph
PUBLIC	?OnPacketDataMultiItem@CChartPeriodSummaryAddInImp@@MAEXPBD0H@Z ; CChartPeriodSummaryAddInImp::OnPacketDataMultiItem
PUBLIC	?OnResetChart@CChartPeriodSummaryAddInImp@@MAEXXZ ; CChartPeriodSummaryAddInImp::OnResetChart
PUBLIC	?OnToolCommand@CChartPeriodSummaryAddInImp@@MAEXHH@Z ; CChartPeriodSummaryAddInImp::OnToolCommand
PUBLIC	?OnLoadEnvironment@CChartPeriodSummaryAddInImp@@MAEXPAUIPropertyMap@@@Z ; CChartPeriodSummaryAddInImp::OnLoadEnvironment
PUBLIC	?OnSaveEnvironment@CChartPeriodSummaryAddInImp@@MAEXPAUIPropertyMap@@@Z ; CChartPeriodSummaryAddInImp::OnSaveEnvironment
PUBLIC	?DrawCursor@CChartPeriodSummaryAddInImp@@MAE?AUtagRECT@@PAUHDC__@@@Z ; CChartPeriodSummaryAddInImp::DrawCursor
PUBLIC	?OnCaptureChanged@CChartPeriodSummaryAddInImp@@MAEXPAUHWND__@@QAUHBITMAP__@@@Z ; CChartPeriodSummaryAddInImp::OnCaptureChanged
PUBLIC	?OnCmdMsg@CChartPeriodSummaryAddInImp@@MAEHIHPAUICmdUI133691@@@Z ; CChartPeriodSummaryAddInImp::OnCmdMsg
PUBLIC	?OnAddInToolCommand@CChartPeriodSummaryAddInImp@@MAEHW4EAICommandType@@PBDJ@Z ; CChartPeriodSummaryAddInImp::OnAddInToolCommand
PUBLIC	?OnKeyDown@CChartPeriodSummaryAddInImp@@MAEHIII@Z ; CChartPeriodSummaryAddInImp::OnKeyDown
PUBLIC	?OnMouseMove@CChartPeriodSummaryAddInImp@@MAEHPAUHDC__@@IAAUtagPOINT@@KQAUHBITMAP__@@@Z ; CChartPeriodSummaryAddInImp::OnMouseMove
PUBLIC	?OnLButtonDown@CChartPeriodSummaryAddInImp@@MAEHPAUHDC__@@IAAUtagPOINT@@K@Z ; CChartPeriodSummaryAddInImp::OnLButtonDown
PUBLIC	?OnLButtonUp@CChartPeriodSummaryAddInImp@@MAEHPAUHDC__@@IAAUtagPOINT@@K@Z ; CChartPeriodSummaryAddInImp::OnLButtonUp
PUBLIC	?OnLButtonDblClk@CChartPeriodSummaryAddInImp@@MAEHPAUHDC__@@IAAUtagPOINT@@K@Z ; CChartPeriodSummaryAddInImp::OnLButtonDblClk
PUBLIC	?OnRButtonDown@CChartPeriodSummaryAddInImp@@MAEHPAUHDC__@@IAAUtagPOINT@@K@Z ; CChartPeriodSummaryAddInImp::OnRButtonDown
PUBLIC	?OnRButtonUp@CChartPeriodSummaryAddInImp@@MAEHPAUHDC__@@IAAUtagPOINT@@K@Z ; CChartPeriodSummaryAddInImp::OnRButtonUp
PUBLIC	??_GCChartPeriodSummaryAddInImp@@UAEPAXI@Z	; CChartPeriodSummaryAddInImp::`scalar deleting destructor'
PUBLIC	?LoadResourceDLL@IMetaTable@@QAEPAUHINSTANCE__@@PAUHWND__@@PAU2@@Z ; IMetaTable::LoadResourceDLL
PUBLIC	??1CMultiLanguageResourceSetter@@QAE@XZ		; CMultiLanguageResourceSetter::~CMultiLanguageResourceSetter
PUBLIC	??1CPSConfigDlg@@UAE@XZ				; CPSConfigDlg::~CPSConfigDlg
PUBLIC	?QueryInterface@CChartAddInBase133691@@O7AGJABU_GUID@@PAPAX@Z ; [thunk]:CChartAddInBase133691::QueryInterface`adjustor{8}'
PUBLIC	?AddRef@CChartAddInBase133691@@O7AGKXZ		; [thunk]:CChartAddInBase133691::AddRef`adjustor{8}'
PUBLIC	?Release@CChartAddInBase133691@@O7AGKXZ		; [thunk]:CChartAddInBase133691::Release`adjustor{8}'
PUBLIC	??_ECChartPeriodSummaryAddInImp@@W7AEPAXI@Z	; [thunk]:CChartPeriodSummaryAddInImp::`vector deleting destructor'
PUBLIC	??_R0PAVCException@@@8				; CException * `RTTI Type Descriptor'
PUBLIC	??_C@_00CNPNBAHC@@				; `string'
PUBLIC	??_7CGdiObject@@6B@				; CGdiObject::`vftable'
PUBLIC	??_7CRgn@@6B@					; CRgn::`vftable'
PUBLIC	??_7CMenu@@6B@					; CMenu::`vftable'
PUBLIC	??_C@_0HD@JJCHHHNK@C?3?2Program?5Files?5?$CIx86?$CJ?2Microsof@ ; `string'
PUBLIC	??_C@_0BP@OIEOKIDM@Exception?5thrown?5in?5destructor@ ; `string'
PUBLIC	??_C@_0BB@HBOOMJBF@?$CFTs?5?$CI?$CFTs?3?$CFd?$CJ?6?$CFTs@ ; `string'
PUBLIC	??_C@_0N@OMEMOKLE@?$CFTs?5?$CI?$CFTs?3?$CFd?$CJ@ ; `string'
PUBLIC	??_R0?AVCObject@@@8				; CObject `RTTI Type Descriptor'
PUBLIC	??_R3CObject@@8					; CObject::`RTTI Class Hierarchy Descriptor'
PUBLIC	??_R2CObject@@8					; CObject::`RTTI Base Class Array'
PUBLIC	??_R1A@?0A@EA@CObject@@8			; CObject::`RTTI Base Class Descriptor at (0,-1,0,64)'
PUBLIC	??_R0?AUIUnknown@@@8				; IUnknown `RTTI Type Descriptor'
PUBLIC	??_R3IUnknown@@8				; IUnknown::`RTTI Class Hierarchy Descriptor'
PUBLIC	??_R2IUnknown@@8				; IUnknown::`RTTI Base Class Array'
PUBLIC	??_R1A@?0A@EA@IUnknown@@8			; IUnknown::`RTTI Base Class Descriptor at (0,-1,0,64)'
PUBLIC	??_R4CGdiObject@@6B@				; CGdiObject::`RTTI Complete Object Locator'
PUBLIC	??_R0?AVCGdiObject@@@8				; CGdiObject `RTTI Type Descriptor'
PUBLIC	??_R3CGdiObject@@8				; CGdiObject::`RTTI Class Hierarchy Descriptor'
PUBLIC	??_R2CGdiObject@@8				; CGdiObject::`RTTI Base Class Array'
PUBLIC	??_R1A@?0A@EA@CGdiObject@@8			; CGdiObject::`RTTI Base Class Descriptor at (0,-1,0,64)'
PUBLIC	??_R4CRgn@@6B@					; CRgn::`RTTI Complete Object Locator'
PUBLIC	??_R0?AVCRgn@@@8				; CRgn `RTTI Type Descriptor'
PUBLIC	??_R3CRgn@@8					; CRgn::`RTTI Class Hierarchy Descriptor'
PUBLIC	??_R2CRgn@@8					; CRgn::`RTTI Base Class Array'
PUBLIC	??_R1A@?0A@EA@CRgn@@8				; CRgn::`RTTI Base Class Descriptor at (0,-1,0,64)'
PUBLIC	??_R4CMenu@@6B@					; CMenu::`RTTI Complete Object Locator'
PUBLIC	??_R0?AVCMenu@@@8				; CMenu `RTTI Type Descriptor'
PUBLIC	??_R3CMenu@@8					; CMenu::`RTTI Class Hierarchy Descriptor'
PUBLIC	??_R2CMenu@@8					; CMenu::`RTTI Base Class Array'
PUBLIC	??_R1A@?0A@EA@CMenu@@8				; CMenu::`RTTI Base Class Descriptor at (0,-1,0,64)'
PUBLIC	?m_strAddInItemName@CChartPeriodSummaryAddInImp@@2V?$CStringT@DV?$StrTraitMFC_DLL@DV?$ChTraitsCRT@D@ATL@@@@@ATL@@A ; CChartPeriodSummaryAddInImp::m_strAddInItemName
PUBLIC	??_7CChartPeriodSummaryAddInImp@@6BCIWUnknown@@@ ; CChartPeriodSummaryAddInImp::`vftable'
PUBLIC	??_7CChartPeriodSummaryAddInImp@@6BIChartAddIn133691@@@ ; CChartPeriodSummaryAddInImp::`vftable'
PUBLIC	??_C@_0BA@ENJOCHIO@LoadResourceDLL@		; `string'
PUBLIC	??_C@_07MGCPDNLD@DEFAULT@			; `string'
PUBLIC	??_R0PAVCChartPeriodSummaryAddInImp@@@8		; CChartPeriodSummaryAddInImp * `RTTI Type Descriptor'
PUBLIC	__TI7PAVCChartPeriodSummaryAddInImp@@
PUBLIC	__CTA7PAVCChartPeriodSummaryAddInImp@@
PUBLIC	__CT??_R0PAVCChartPeriodSummaryAddInImp@@@84
PUBLIC	??_R0PAVCChartAddInBase133691@@@8		; CChartAddInBase133691 * `RTTI Type Descriptor'
PUBLIC	__CT??_R0PAVCChartAddInBase133691@@@84
PUBLIC	??_R0PAVCIWUnknown@@@8				; CIWUnknown * `RTTI Type Descriptor'
PUBLIC	__CT??_R0PAVCIWUnknown@@@84
PUBLIC	??_R0PAVCObject@@@8				; CObject * `RTTI Type Descriptor'
PUBLIC	__CT??_R0PAVCObject@@@84
PUBLIC	??_R0PAUIChartAddIn133691@@@8			; IChartAddIn133691 * `RTTI Type Descriptor'
PUBLIC	__CT??_R0PAUIChartAddIn133691@@@848
PUBLIC	??_R0PAUIUnknown@@@8				; IUnknown * `RTTI Type Descriptor'
PUBLIC	__CT??_R0PAUIUnknown@@@848
PUBLIC	??_R0PAX@8					; void * `RTTI Type Descriptor'
PUBLIC	__CT??_R0PAX@84
PUBLIC	??_C@_08DKDJLCMP@YYYYMMDD@			; `string'
PUBLIC	??_C@_08KLIIINKM@MMDDHHMM@			; `string'
PUBLIC	??_C@_06MAANBBPI@HHMMSS@			; `string'
PUBLIC	??_C@_08JFMBEEDE@DDHHMMSS@			; `string'
PUBLIC	??_C@_06EBMMBHJD@YYYYMM@			; `string'
PUBLIC	??_C@_0P@IMPIBBAB@YYYYMMDDHHMMSS@		; `string'
PUBLIC	??_C@_02DKCKIIND@?$CFs@				; `string'
PUBLIC	??_C@_01ICJEACDI@?$DL@				; `string'
PUBLIC	??_C@_01IHBHIGKO@?0@				; `string'
PUBLIC	??_C@_0FD@FBONENNA@?$CFd?0?$CFd?0?$CFs?0?$CFs?0?$CFf?0?$CFf?0?$CFd?0?$CFd?0?$CFd?0?$CFd?0?$CF@ ; `string'
PUBLIC	??_C@_02NJPGOMH@?$CFf@				; `string'
PUBLIC	??_C@_01LFCBOECM@?4@				; `string'
PUBLIC	??_R0?AUIChartAddIn133691@@@8			; IChartAddIn133691 `RTTI Type Descriptor'
PUBLIC	??_R3IChartAddIn133691@@8			; IChartAddIn133691::`RTTI Class Hierarchy Descriptor'
PUBLIC	??_R2IChartAddIn133691@@8			; IChartAddIn133691::`RTTI Base Class Array'
PUBLIC	??_R1A@?0A@EA@IChartAddIn133691@@8		; IChartAddIn133691::`RTTI Base Class Descriptor at (0,-1,0,64)'
PUBLIC	??_R4CChartPeriodSummaryAddInImp@@6BCIWUnknown@@@ ; CChartPeriodSummaryAddInImp::`RTTI Complete Object Locator'
PUBLIC	??_R0?AVCChartPeriodSummaryAddInImp@@@8		; CChartPeriodSummaryAddInImp `RTTI Type Descriptor'
PUBLIC	??_R3CChartPeriodSummaryAddInImp@@8		; CChartPeriodSummaryAddInImp::`RTTI Class Hierarchy Descriptor'
PUBLIC	??_R2CChartPeriodSummaryAddInImp@@8		; CChartPeriodSummaryAddInImp::`RTTI Base Class Array'
PUBLIC	??_R1A@?0A@EA@CChartPeriodSummaryAddInImp@@8	; CChartPeriodSummaryAddInImp::`RTTI Base Class Descriptor at (0,-1,0,64)'
PUBLIC	??_R1A@?0A@EA@CChartAddInBase133691@@8		; CChartAddInBase133691::`RTTI Base Class Descriptor at (0,-1,0,64)'
PUBLIC	??_R0?AVCChartAddInBase133691@@@8		; CChartAddInBase133691 `RTTI Type Descriptor'
PUBLIC	??_R3CChartAddInBase133691@@8			; CChartAddInBase133691::`RTTI Class Hierarchy Descriptor'
PUBLIC	??_R2CChartAddInBase133691@@8			; CChartAddInBase133691::`RTTI Base Class Array'
PUBLIC	??_R1A@?0A@EA@CIWUnknown@@8			; CIWUnknown::`RTTI Base Class Descriptor at (0,-1,0,64)'
PUBLIC	??_R0?AVCIWUnknown@@@8				; CIWUnknown `RTTI Type Descriptor'
PUBLIC	??_R3CIWUnknown@@8				; CIWUnknown::`RTTI Class Hierarchy Descriptor'
PUBLIC	??_R2CIWUnknown@@8				; CIWUnknown::`RTTI Base Class Array'
PUBLIC	??_R17?0A@EA@IChartAddIn133691@@8		; IChartAddIn133691::`RTTI Base Class Descriptor at (8,-1,0,64)'
PUBLIC	??_R17?0A@EA@IUnknown@@8			; IUnknown::`RTTI Base Class Descriptor at (8,-1,0,64)'
PUBLIC	??_R4CChartPeriodSummaryAddInImp@@6BIChartAddIn133691@@@ ; CChartPeriodSummaryAddInImp::`RTTI Complete Object Locator'
PUBLIC	__real@4059000000000000
EXTRN	??2@YAPAXI@Z:PROC				; operator new
EXTRN	??3@YAXPAX@Z:PROC				; operator delete
EXTRN	?__global_delete@@YAXPAXI@Z:PROC		; __global_delete
EXTRN	_atexit:PROC
EXTRN	___std_terminate:PROC
EXTRN	__imp__GetProcAddress@8:PROC
EXTRN	__imp__CreateRectRgn@16:PROC
EXTRN	__imp__RegisterWindowMessageA@4:PROC
EXTRN	__imp__LoadMenuW@8:PROC
EXTRN	__imp__GetSubMenu@8:PROC
EXTRN	__imp__TrackPopupMenu@28:PROC
EXTRN	__imp__ClientToScreen@8:PROC
EXTRN	__imp__SetRectEmpty@4:PROC
EXTRN	__imp__CopyRect@8:PROC
EXTRN	__imp__IsRectEmpty@4:PROC
EXTRN	__imp__PtInRect@12:PROC
EXTRN	__imp__atof:PROC
EXTRN	__imp__atoi:PROC
EXTRN	__imp__atol:PROC
EXTRN	__imp___atoi64:PROC
EXTRN	?AfxThrowInvalidArgException@@YGXXZ:PROC	; AfxThrowInvalidArgException
EXTRN	?GetRuntimeClass@CObject@@UBEPAUCRuntimeClass@@XZ:PROC ; CObject::GetRuntimeClass
EXTRN	__imp_??A?$CSimpleStringT@D$00@ATL@@QBEDH@Z:PROC
EXTRN	__imp_??0?$CStringT@DV?$StrTraitMFC_DLL@DV?$ChTraitsCRT@D@ATL@@@@@ATL@@QAE@XZ:PROC
EXTRN	__imp_??0?$CStringT@DV?$StrTraitMFC_DLL@DV?$ChTraitsCRT@D@ATL@@@@@ATL@@QAE@ABV01@@Z:PROC
EXTRN	__imp_??0?$CStringT@DV?$StrTraitMFC_DLL@DV?$ChTraitsCRT@D@ATL@@@@@ATL@@QAE@PBD@Z:PROC
EXTRN	__imp_??1?$CStringT@DV?$StrTraitMFC_DLL@DV?$ChTraitsCRT@D@ATL@@@@@ATL@@QAE@XZ:PROC
EXTRN	__imp_??4?$CStringT@DV?$StrTraitMFC_DLL@DV?$ChTraitsCRT@D@ATL@@@@@ATL@@QAEAAV01@ABV01@@Z:PROC
EXTRN	__imp_??4?$CStringT@DV?$StrTraitMFC_DLL@DV?$ChTraitsCRT@D@ATL@@@@@ATL@@QAEAAV01@PBD@Z:PROC
EXTRN	__imp_??Y?$CStringT@DV?$StrTraitMFC_DLL@DV?$ChTraitsCRT@D@ATL@@@@@ATL@@QAEAAV01@ABV?$CSimpleStringT@D$00@1@@Z:PROC
EXTRN	__imp_??Y?$CStringT@DV?$StrTraitMFC_DLL@DV?$ChTraitsCRT@D@ATL@@@@@ATL@@QAEAAV01@PBD@Z:PROC
EXTRN	__imp_?Compare@?$CStringT@DV?$StrTraitMFC_DLL@DV?$ChTraitsCRT@D@ATL@@@@@ATL@@QBEHPBD@Z:PROC
EXTRN	__imp_?Find@?$CStringT@DV?$StrTraitMFC_DLL@DV?$ChTraitsCRT@D@ATL@@@@@ATL@@QBEHPBDH@Z:PROC
EXTRN	__imp_?TrimRight@?$CStringT@DV?$StrTraitMFC_DLL@DV?$ChTraitsCRT@D@ATL@@@@@ATL@@QAEAAV12@PBD@Z:PROC
EXTRN	__imp_?Mid@?$CStringT@DV?$StrTraitMFC_DLL@DV?$ChTraitsCRT@D@ATL@@@@@ATL@@QBE?AV12@HH@Z:PROC
EXTRN	__imp_?Right@?$CStringT@DV?$StrTraitMFC_DLL@DV?$ChTraitsCRT@D@ATL@@@@@ATL@@QBE?AV12@H@Z:PROC
EXTRN	__imp_?Format@?$CStringT@DV?$StrTraitMFC_DLL@DV?$ChTraitsCRT@D@ATL@@@@@ATL@@QAAXPBDZZ:PROC
EXTRN	??0CObList@@QAE@H@Z:PROC			; CObList::CObList
EXTRN	?AddTail@CObList@@QAEPAU__POSITION@@PAVCObject@@@Z:PROC ; CObList::AddTail
EXTRN	?RemoveAll@CObList@@QAEXXZ:PROC			; CObList::RemoveAll
EXTRN	?RemoveAt@CObList@@QAEXPAU__POSITION@@@Z:PROC	; CObList::RemoveAt
EXTRN	?Find@CObList@@QBEPAU__POSITION@@PAVCObject@@PAU2@@Z:PROC ; CObList::Find
EXTRN	??1CObList@@UAE@XZ:PROC				; CObList::~CObList
EXTRN	?AfxGetModuleState@@YGPAVAFX_MODULE_STATE@@XZ:PROC ; AfxGetModuleState
EXTRN	?AfxGetStaticModuleState@@YGPAVAFX_MODULE_STATE@@XZ:PROC ; AfxGetStaticModuleState
EXTRN	?GetRuntimeClass@CGdiObject@@UBEPAUCRuntimeClass@@XZ:PROC ; CGdiObject::GetRuntimeClass
EXTRN	?Attach@CGdiObject@@QAEHPAX@Z:PROC		; CGdiObject::Attach
EXTRN	?DeleteObject@CGdiObject@@QAEHXZ:PROC		; CGdiObject::DeleteObject
EXTRN	??_ECGdiObject@@UAEPAXI@Z:PROC			; CGdiObject::`vector deleting destructor'
EXTRN	?GetRuntimeClass@CRgn@@UBEPAUCRuntimeClass@@XZ:PROC ; CRgn::GetRuntimeClass
EXTRN	??_ECRgn@@UAEPAXI@Z:PROC			; CRgn::`vector deleting destructor'
EXTRN	?FromHandle@CDC@@SGPAV1@PAUHDC__@@@Z:PROC	; CDC::FromHandle
EXTRN	?SelectClipRgn@CDC@@QAEHPAVCRgn@@@Z:PROC	; CDC::SelectClipRgn
EXTRN	?GetRuntimeClass@CMenu@@UBEPAUCRuntimeClass@@XZ:PROC ; CMenu::GetRuntimeClass
EXTRN	?DestroyMenu@CMenu@@QAEHXZ:PROC			; CMenu::DestroyMenu
EXTRN	?Attach@CMenu@@QAEHPAUHMENU__@@@Z:PROC		; CMenu::Attach
EXTRN	?DrawItem@CMenu@@UAEXPAUtagDRAWITEMSTRUCT@@@Z:PROC ; CMenu::DrawItem
EXTRN	?MeasureItem@CMenu@@UAEXPAUtagMEASUREITEMSTRUCT@@@Z:PROC ; CMenu::MeasureItem
EXTRN	??_ECMenu@@UAEPAXI@Z:PROC			; CMenu::`vector deleting destructor'
EXTRN	?DoModal@CDialog@@UAEHXZ:PROC			; CDialog::DoModal
EXTRN	??1CDialog@@UAE@XZ:PROC				; CDialog::~CDialog
EXTRN	?AfxFindResourceHandle@@YGPAUHINSTANCE__@@PBD0@Z:PROC ; AfxFindResourceHandle
EXTRN	?AfxMessageBox@@YGHPBDII@Z:PROC			; AfxMessageBox
EXTRN	??1CDateTimeCtrl@@UAE@XZ:PROC			; CDateTimeCtrl::~CDateTimeCtrl
EXTRN	?AddRef@CIWUnknown@@MAGKXZ:PROC			; CIWUnknown::AddRef
EXTRN	?Release@CIWUnknown@@MAGKXZ:PROC		; CIWUnknown::Release
EXTRN	??0CChartAddInBase133691@@IAE@PAUIChartOCX133691@@PAUIAddInDllBase@@@Z:PROC ; CChartAddInBase133691::CChartAddInBase133691
EXTRN	??1CChartAddInBase133691@@MAE@XZ:PROC		; CChartAddInBase133691::~CChartAddInBase133691
EXTRN	?HasFullManager@CChartAddInBase133691@@MAEHXZ:PROC ; CChartAddInBase133691::HasFullManager
EXTRN	?RegisterEventMap@CChartAddInBase133691@@UAEHH@Z:PROC ; CChartAddInBase133691::RegisterEventMap
EXTRN	?UnregisterEventMap@CChartAddInBase133691@@UAEHXZ:PROC ; CChartAddInBase133691::UnregisterEventMap
EXTRN	??0CPeriodObj@@QAE@XZ:PROC			; CPeriodObj::CPeriodObj
EXTRN	?SetChartPeriodSummaryAddInImp@CPeriodObj@@QAEXPAVCChartPeriodSummaryAddInImp@@@Z:PROC ; CPeriodObj::SetChartPeriodSummaryAddInImp
EXTRN	?IsInRegion@CPeriodObj@@QAEHVCPoint@@@Z:PROC	; CPeriodObj::IsInRegion
EXTRN	?ButtonDownAt@CPeriodObj@@QAEXABVCPoint@@@Z:PROC ; CPeriodObj::ButtonDownAt
EXTRN	?SetPos@CPeriodObj@@QAEXVCPoint@@H@Z:PROC	; CPeriodObj::SetPos
EXTRN	?Draw@CPeriodObj@@QAEXPAVCDC@@PAUHWND__@@@Z:PROC ; CPeriodObj::Draw
EXTRN	??_ECChartPeriodSummaryAddInImp@@UAEPAXI@Z:PROC	; CChartPeriodSummaryAddInImp::`vector deleting destructor'
EXTRN	?CalcTimeDiff@CDataConversion@@SANNHHV?$CStringT@DV?$StrTraitMFC_DLL@DV?$ChTraitsCRT@D@ATL@@@@@ATL@@@Z:PROC ; CDataConversion::CalcTimeDiff
EXTRN	??1CBitmapItemComboBox@@UAE@XZ:PROC		; CBitmapItemComboBox::~CBitmapItemComboBox
EXTRN	??1CColorButton@@UAE@XZ:PROC			; CColorButton::~CColorButton
EXTRN	??0CPSConfigDlg@@QAE@PAVCWnd@@@Z:PROC		; CPSConfigDlg::CPSConfigDlg
EXTRN	@__security_check_cookie@4:PROC
EXTRN	__CxxThrowException@8:PROC
EXTRN	___CxxFrameHandler3:PROC
EXTRN	__dtol3:PROC
EXTRN	__ftol2:PROC
EXTRN	__ltod3:PROC
EXTRN	??_7type_info@@6B@:QWORD			; type_info::`vftable'
EXTRN	?g_iMetaTable@@3VIMetaTable@@A:BYTE		; g_iMetaTable
EXTRN	___security_cookie:DWORD
EXTRN	__fltused:DWORD
_BSS	SEGMENT
?m_strAddInItemName@CChartPeriodSummaryAddInImp@@2V?$CStringT@DV?$StrTraitMFC_DLL@DV?$ChTraitsCRT@D@ATL@@@@@ATL@@A DD 01H DUP (?) ; CChartPeriodSummaryAddInImp::m_strAddInItemName
?RMS_ANALYSIS_FUNC@@3IB DD 01H DUP (?)			; RMS_ANALYSIS_FUNC
_BSS	ENDS
CRT$XCU	SEGMENT
?RMS_ANALYSIS_FUNC$initializer$@@3P6AXXZA DD FLAT:??__ERMS_ANALYSIS_FUNC@@YAXXZ ; RMS_ANALYSIS_FUNC$initializer$
CRT$XCU	ENDS
;	COMDAT __real@4059000000000000
CONST	SEGMENT
__real@4059000000000000 DQ 04059000000000000r	; 100
CONST	ENDS
;	COMDAT ??_R4CChartPeriodSummaryAddInImp@@6BIChartAddIn133691@@@
rdata$r	SEGMENT
??_R4CChartPeriodSummaryAddInImp@@6BIChartAddIn133691@@@ DD 00H ; CChartPeriodSummaryAddInImp::`RTTI Complete Object Locator'
	DD	08H
	DD	00H
	DD	FLAT:??_R0?AVCChartPeriodSummaryAddInImp@@@8
	DD	FLAT:??_R3CChartPeriodSummaryAddInImp@@8
rdata$r	ENDS
;	COMDAT ??_R17?0A@EA@IUnknown@@8
rdata$r	SEGMENT
??_R17?0A@EA@IUnknown@@8 DD FLAT:??_R0?AUIUnknown@@@8	; IUnknown::`RTTI Base Class Descriptor at (8,-1,0,64)'
	DD	00H
	DD	08H
	DD	0ffffffffH
	DD	00H
	DD	040H
	DD	FLAT:??_R3IUnknown@@8
rdata$r	ENDS
;	COMDAT ??_R17?0A@EA@IChartAddIn133691@@8
rdata$r	SEGMENT
??_R17?0A@EA@IChartAddIn133691@@8 DD FLAT:??_R0?AUIChartAddIn133691@@@8 ; IChartAddIn133691::`RTTI Base Class Descriptor at (8,-1,0,64)'
	DD	01H
	DD	08H
	DD	0ffffffffH
	DD	00H
	DD	040H
	DD	FLAT:??_R3IChartAddIn133691@@8
rdata$r	ENDS
;	COMDAT ??_R2CIWUnknown@@8
rdata$r	SEGMENT
??_R2CIWUnknown@@8 DD FLAT:??_R1A@?0A@EA@CIWUnknown@@8	; CIWUnknown::`RTTI Base Class Array'
	DD	FLAT:??_R1A@?0A@EA@CObject@@8
rdata$r	ENDS
;	COMDAT ??_R3CIWUnknown@@8
rdata$r	SEGMENT
??_R3CIWUnknown@@8 DD 00H				; CIWUnknown::`RTTI Class Hierarchy Descriptor'
	DD	00H
	DD	02H
	DD	FLAT:??_R2CIWUnknown@@8
rdata$r	ENDS
;	COMDAT ??_R0?AVCIWUnknown@@@8
data$rs	SEGMENT
??_R0?AVCIWUnknown@@@8 DD FLAT:??_7type_info@@6B@	; CIWUnknown `RTTI Type Descriptor'
	DD	00H
	DB	'.?AVCIWUnknown@@', 00H
data$rs	ENDS
;	COMDAT ??_R1A@?0A@EA@CIWUnknown@@8
rdata$r	SEGMENT
??_R1A@?0A@EA@CIWUnknown@@8 DD FLAT:??_R0?AVCIWUnknown@@@8 ; CIWUnknown::`RTTI Base Class Descriptor at (0,-1,0,64)'
	DD	01H
	DD	00H
	DD	0ffffffffH
	DD	00H
	DD	040H
	DD	FLAT:??_R3CIWUnknown@@8
rdata$r	ENDS
;	COMDAT ??_R2CChartAddInBase133691@@8
rdata$r	SEGMENT
??_R2CChartAddInBase133691@@8 DD FLAT:??_R1A@?0A@EA@CChartAddInBase133691@@8 ; CChartAddInBase133691::`RTTI Base Class Array'
	DD	FLAT:??_R1A@?0A@EA@CIWUnknown@@8
	DD	FLAT:??_R1A@?0A@EA@CObject@@8
	DD	FLAT:??_R17?0A@EA@IChartAddIn133691@@8
	DD	FLAT:??_R17?0A@EA@IUnknown@@8
rdata$r	ENDS
;	COMDAT ??_R3CChartAddInBase133691@@8
rdata$r	SEGMENT
??_R3CChartAddInBase133691@@8 DD 00H			; CChartAddInBase133691::`RTTI Class Hierarchy Descriptor'
	DD	01H
	DD	05H
	DD	FLAT:??_R2CChartAddInBase133691@@8
rdata$r	ENDS
;	COMDAT ??_R0?AVCChartAddInBase133691@@@8
data$rs	SEGMENT
??_R0?AVCChartAddInBase133691@@@8 DD FLAT:??_7type_info@@6B@ ; CChartAddInBase133691 `RTTI Type Descriptor'
	DD	00H
	DB	'.?AVCChartAddInBase133691@@', 00H
data$rs	ENDS
;	COMDAT ??_R1A@?0A@EA@CChartAddInBase133691@@8
rdata$r	SEGMENT
??_R1A@?0A@EA@CChartAddInBase133691@@8 DD FLAT:??_R0?AVCChartAddInBase133691@@@8 ; CChartAddInBase133691::`RTTI Base Class Descriptor at (0,-1,0,64)'
	DD	04H
	DD	00H
	DD	0ffffffffH
	DD	00H
	DD	040H
	DD	FLAT:??_R3CChartAddInBase133691@@8
rdata$r	ENDS
;	COMDAT ??_R1A@?0A@EA@CChartPeriodSummaryAddInImp@@8
rdata$r	SEGMENT
??_R1A@?0A@EA@CChartPeriodSummaryAddInImp@@8 DD FLAT:??_R0?AVCChartPeriodSummaryAddInImp@@@8 ; CChartPeriodSummaryAddInImp::`RTTI Base Class Descriptor at (0,-1,0,64)'
	DD	05H
	DD	00H
	DD	0ffffffffH
	DD	00H
	DD	040H
	DD	FLAT:??_R3CChartPeriodSummaryAddInImp@@8
rdata$r	ENDS
;	COMDAT ??_R2CChartPeriodSummaryAddInImp@@8
rdata$r	SEGMENT
??_R2CChartPeriodSummaryAddInImp@@8 DD FLAT:??_R1A@?0A@EA@CChartPeriodSummaryAddInImp@@8 ; CChartPeriodSummaryAddInImp::`RTTI Base Class Array'
	DD	FLAT:??_R1A@?0A@EA@CChartAddInBase133691@@8
	DD	FLAT:??_R1A@?0A@EA@CIWUnknown@@8
	DD	FLAT:??_R1A@?0A@EA@CObject@@8
	DD	FLAT:??_R17?0A@EA@IChartAddIn133691@@8
	DD	FLAT:??_R17?0A@EA@IUnknown@@8
rdata$r	ENDS
;	COMDAT ??_R3CChartPeriodSummaryAddInImp@@8
rdata$r	SEGMENT
??_R3CChartPeriodSummaryAddInImp@@8 DD 00H		; CChartPeriodSummaryAddInImp::`RTTI Class Hierarchy Descriptor'
	DD	01H
	DD	06H
	DD	FLAT:??_R2CChartPeriodSummaryAddInImp@@8
rdata$r	ENDS
;	COMDAT ??_R0?AVCChartPeriodSummaryAddInImp@@@8
data$rs	SEGMENT
??_R0?AVCChartPeriodSummaryAddInImp@@@8 DD FLAT:??_7type_info@@6B@ ; CChartPeriodSummaryAddInImp `RTTI Type Descriptor'
	DD	00H
	DB	'.?AVCChartPeriodSummaryAddInImp@@', 00H
data$rs	ENDS
;	COMDAT ??_R4CChartPeriodSummaryAddInImp@@6BCIWUnknown@@@
rdata$r	SEGMENT
??_R4CChartPeriodSummaryAddInImp@@6BCIWUnknown@@@ DD 00H ; CChartPeriodSummaryAddInImp::`RTTI Complete Object Locator'
	DD	00H
	DD	00H
	DD	FLAT:??_R0?AVCChartPeriodSummaryAddInImp@@@8
	DD	FLAT:??_R3CChartPeriodSummaryAddInImp@@8
rdata$r	ENDS
;	COMDAT ??_R1A@?0A@EA@IChartAddIn133691@@8
rdata$r	SEGMENT
??_R1A@?0A@EA@IChartAddIn133691@@8 DD FLAT:??_R0?AUIChartAddIn133691@@@8 ; IChartAddIn133691::`RTTI Base Class Descriptor at (0,-1,0,64)'
	DD	01H
	DD	00H
	DD	0ffffffffH
	DD	00H
	DD	040H
	DD	FLAT:??_R3IChartAddIn133691@@8
rdata$r	ENDS
;	COMDAT ??_R2IChartAddIn133691@@8
rdata$r	SEGMENT
??_R2IChartAddIn133691@@8 DD FLAT:??_R1A@?0A@EA@IChartAddIn133691@@8 ; IChartAddIn133691::`RTTI Base Class Array'
	DD	FLAT:??_R1A@?0A@EA@IUnknown@@8
rdata$r	ENDS
;	COMDAT ??_R3IChartAddIn133691@@8
rdata$r	SEGMENT
??_R3IChartAddIn133691@@8 DD 00H			; IChartAddIn133691::`RTTI Class Hierarchy Descriptor'
	DD	00H
	DD	02H
	DD	FLAT:??_R2IChartAddIn133691@@8
rdata$r	ENDS
;	COMDAT ??_R0?AUIChartAddIn133691@@@8
data$rs	SEGMENT
??_R0?AUIChartAddIn133691@@@8 DD FLAT:??_7type_info@@6B@ ; IChartAddIn133691 `RTTI Type Descriptor'
	DD	00H
	DB	'.?AUIChartAddIn133691@@', 00H
data$rs	ENDS
;	COMDAT ??_C@_01LFCBOECM@?4@
CONST	SEGMENT
??_C@_01LFCBOECM@?4@ DB '.', 00H			; `string'
CONST	ENDS
;	COMDAT ??_C@_02NJPGOMH@?$CFf@
CONST	SEGMENT
??_C@_02NJPGOMH@?$CFf@ DB '%f', 00H			; `string'
CONST	ENDS
;	COMDAT ??_C@_0FD@FBONENNA@?$CFd?0?$CFd?0?$CFs?0?$CFs?0?$CFf?0?$CFf?0?$CFd?0?$CFd?0?$CFd?0?$CFd?0?$CF@
CONST	SEGMENT
??_C@_0FD@FBONENNA@?$CFd?0?$CFd?0?$CFs?0?$CFs?0?$CFf?0?$CFf?0?$CFd?0?$CFd?0?$CFd?0?$CFd?0?$CF@ DB '%'
	DB	'd,%d,%s,%s,%f,%f,%d,%d,%d,%d,%d,%d,%d,%d,%d,%d,%d,%d,%d,%f,%f'
	DB	',%ld,%d,%d,%d,%d,%d;', 00H			; `string'
CONST	ENDS
;	COMDAT ??_C@_01IHBHIGKO@?0@
CONST	SEGMENT
??_C@_01IHBHIGKO@?0@ DB ',', 00H			; `string'
CONST	ENDS
;	COMDAT ??_C@_01ICJEACDI@?$DL@
CONST	SEGMENT
??_C@_01ICJEACDI@?$DL@ DB ';', 00H			; `string'
CONST	ENDS
;	COMDAT ??_C@_02DKCKIIND@?$CFs@
CONST	SEGMENT
??_C@_02DKCKIIND@?$CFs@ DB '%s', 00H			; `string'
CONST	ENDS
;	COMDAT ??_C@_0P@IMPIBBAB@YYYYMMDDHHMMSS@
CONST	SEGMENT
??_C@_0P@IMPIBBAB@YYYYMMDDHHMMSS@ DB 'YYYYMMDDHHMMSS', 00H ; `string'
CONST	ENDS
;	COMDAT ??_C@_06EBMMBHJD@YYYYMM@
CONST	SEGMENT
??_C@_06EBMMBHJD@YYYYMM@ DB 'YYYYMM', 00H		; `string'
CONST	ENDS
;	COMDAT ??_C@_08JFMBEEDE@DDHHMMSS@
CONST	SEGMENT
??_C@_08JFMBEEDE@DDHHMMSS@ DB 'DDHHMMSS', 00H		; `string'
CONST	ENDS
;	COMDAT ??_C@_06MAANBBPI@HHMMSS@
CONST	SEGMENT
??_C@_06MAANBBPI@HHMMSS@ DB 'HHMMSS', 00H		; `string'
CONST	ENDS
;	COMDAT ??_C@_08KLIIINKM@MMDDHHMM@
CONST	SEGMENT
??_C@_08KLIIINKM@MMDDHHMM@ DB 'MMDDHHMM', 00H		; `string'
CONST	ENDS
;	COMDAT ??_C@_08DKDJLCMP@YYYYMMDD@
CONST	SEGMENT
??_C@_08DKDJLCMP@YYYYMMDD@ DB 'YYYYMMDD', 00H		; `string'
CONST	ENDS
;	COMDAT __CT??_R0PAX@84
xdata$x	SEGMENT
__CT??_R0PAX@84 DD 01H
	DD	FLAT:??_R0PAX@8
	DD	00H
	DD	0ffffffffH
	ORG $+4
	DD	04H
	DD	00H
xdata$x	ENDS
;	COMDAT ??_R0PAX@8
data$r	SEGMENT
??_R0PAX@8 DD	FLAT:??_7type_info@@6B@			; void * `RTTI Type Descriptor'
	DD	00H
	DB	'.PAX', 00H
data$r	ENDS
;	COMDAT __CT??_R0PAUIUnknown@@@848
xdata$x	SEGMENT
__CT??_R0PAUIUnknown@@@848 DD 01H
	DD	FLAT:??_R0PAUIUnknown@@@8
	DD	08H
	DD	0ffffffffH
	DD	00H
	DD	04H
	DD	00H
xdata$x	ENDS
;	COMDAT ??_R0PAUIUnknown@@@8
data$r	SEGMENT
??_R0PAUIUnknown@@@8 DD FLAT:??_7type_info@@6B@		; IUnknown * `RTTI Type Descriptor'
	DD	00H
	DB	'.PAUIUnknown@@', 00H
data$r	ENDS
;	COMDAT __CT??_R0PAUIChartAddIn133691@@@848
xdata$x	SEGMENT
__CT??_R0PAUIChartAddIn133691@@@848 DD 01H
	DD	FLAT:??_R0PAUIChartAddIn133691@@@8
	DD	08H
	DD	0ffffffffH
	DD	00H
	DD	04H
	DD	00H
xdata$x	ENDS
;	COMDAT ??_R0PAUIChartAddIn133691@@@8
data$r	SEGMENT
??_R0PAUIChartAddIn133691@@@8 DD FLAT:??_7type_info@@6B@ ; IChartAddIn133691 * `RTTI Type Descriptor'
	DD	00H
	DB	'.PAUIChartAddIn133691@@', 00H
data$r	ENDS
;	COMDAT __CT??_R0PAVCObject@@@84
xdata$x	SEGMENT
__CT??_R0PAVCObject@@@84 DD 01H
	DD	FLAT:??_R0PAVCObject@@@8
	DD	00H
	DD	0ffffffffH
	ORG $+4
	DD	04H
	DD	00H
xdata$x	ENDS
;	COMDAT ??_R0PAVCObject@@@8
data$r	SEGMENT
??_R0PAVCObject@@@8 DD FLAT:??_7type_info@@6B@		; CObject * `RTTI Type Descriptor'
	DD	00H
	DB	'.PAVCObject@@', 00H
data$r	ENDS
;	COMDAT __CT??_R0PAVCIWUnknown@@@84
xdata$x	SEGMENT
__CT??_R0PAVCIWUnknown@@@84 DD 01H
	DD	FLAT:??_R0PAVCIWUnknown@@@8
	DD	00H
	DD	0ffffffffH
	ORG $+4
	DD	04H
	DD	00H
xdata$x	ENDS
;	COMDAT ??_R0PAVCIWUnknown@@@8
data$r	SEGMENT
??_R0PAVCIWUnknown@@@8 DD FLAT:??_7type_info@@6B@	; CIWUnknown * `RTTI Type Descriptor'
	DD	00H
	DB	'.PAVCIWUnknown@@', 00H
data$r	ENDS
;	COMDAT __CT??_R0PAVCChartAddInBase133691@@@84
xdata$x	SEGMENT
__CT??_R0PAVCChartAddInBase133691@@@84 DD 01H
	DD	FLAT:??_R0PAVCChartAddInBase133691@@@8
	DD	00H
	DD	0ffffffffH
	ORG $+4
	DD	04H
	DD	00H
xdata$x	ENDS
;	COMDAT ??_R0PAVCChartAddInBase133691@@@8
data$r	SEGMENT
??_R0PAVCChartAddInBase133691@@@8 DD FLAT:??_7type_info@@6B@ ; CChartAddInBase133691 * `RTTI Type Descriptor'
	DD	00H
	DB	'.PAVCChartAddInBase133691@@', 00H
data$r	ENDS
;	COMDAT __CT??_R0PAVCChartPeriodSummaryAddInImp@@@84
xdata$x	SEGMENT
__CT??_R0PAVCChartPeriodSummaryAddInImp@@@84 DD 01H
	DD	FLAT:??_R0PAVCChartPeriodSummaryAddInImp@@@8
	DD	00H
	DD	0ffffffffH
	ORG $+4
	DD	04H
	DD	00H
xdata$x	ENDS
;	COMDAT __CTA7PAVCChartPeriodSummaryAddInImp@@
xdata$x	SEGMENT
__CTA7PAVCChartPeriodSummaryAddInImp@@ DD 07H
	DD	FLAT:__CT??_R0PAVCChartPeriodSummaryAddInImp@@@84
	DD	FLAT:__CT??_R0PAVCChartAddInBase133691@@@84
	DD	FLAT:__CT??_R0PAVCIWUnknown@@@84
	DD	FLAT:__CT??_R0PAVCObject@@@84
	DD	FLAT:__CT??_R0PAUIChartAddIn133691@@@848
	DD	FLAT:__CT??_R0PAUIUnknown@@@848
	DD	FLAT:__CT??_R0PAX@84
xdata$x	ENDS
;	COMDAT __TI7PAVCChartPeriodSummaryAddInImp@@
xdata$x	SEGMENT
__TI7PAVCChartPeriodSummaryAddInImp@@ DD 00H
	DD	00H
	DD	00H
	DD	FLAT:__CTA7PAVCChartPeriodSummaryAddInImp@@
xdata$x	ENDS
;	COMDAT ??_R0PAVCChartPeriodSummaryAddInImp@@@8
data$r	SEGMENT
??_R0PAVCChartPeriodSummaryAddInImp@@@8 DD FLAT:??_7type_info@@6B@ ; CChartPeriodSummaryAddInImp * `RTTI Type Descriptor'
	DD	00H
	DB	'.PAVCChartPeriodSummaryAddInImp@@', 00H
data$r	ENDS
;	COMDAT ??_C@_07MGCPDNLD@DEFAULT@
CONST	SEGMENT
??_C@_07MGCPDNLD@DEFAULT@ DB 'DEFAULT', 00H		; `string'
CONST	ENDS
;	COMDAT ??_C@_0BA@ENJOCHIO@LoadResourceDLL@
CONST	SEGMENT
??_C@_0BA@ENJOCHIO@LoadResourceDLL@ DB 'LoadResourceDLL', 00H ; `string'
CONST	ENDS
;	COMDAT ??_7CChartPeriodSummaryAddInImp@@6BIChartAddIn133691@@@
CONST	SEGMENT
??_7CChartPeriodSummaryAddInImp@@6BIChartAddIn133691@@@ DD FLAT:??_R4CChartPeriodSummaryAddInImp@@6BIChartAddIn133691@@@ ; CChartPeriodSummaryAddInImp::`vftable'
	DD	FLAT:?QueryInterface@CChartAddInBase133691@@O7AGJABU_GUID@@PAPAX@Z
	DD	FLAT:?AddRef@CChartAddInBase133691@@O7AGKXZ
	DD	FLAT:?Release@CChartAddInBase133691@@O7AGKXZ
	DD	FLAT:??_ECChartPeriodSummaryAddInImp@@W7AEPAXI@Z
	DD	FLAT:?HasFullManager@CChartAddInBase133691@@MAEHXZ
	DD	FLAT:?GetAddInCustomInterface@CChartAddInBase133691@@MAEPAUIUnknown@@XZ
	DD	FLAT:?InvokeAddIn@CChartPeriodSummaryAddInImp@@MAEHHJ@Z
	DD	FLAT:?InvokeAddInStr@CChartAddInBase133691@@MAEHPBD0@Z
	DD	FLAT:?OnOcxDestroyWindow@CChartAddInBase133691@@MAEXXZ
	DD	FLAT:?RegisterEventMap@CChartAddInBase133691@@UAEHH@Z
	DD	FLAT:?UnregisterEventMap@CChartAddInBase133691@@UAEHXZ
	DD	FLAT:?OnGSharedDataChange@CChartAddInBase133691@@MAEXPBD0H@Z
	DD	FLAT:?OnLSharedDataChange@CChartAddInBase133691@@MAEXPBD0@Z
	DD	FLAT:?OnResetChart@CChartPeriodSummaryAddInImp@@MAEXXZ
	DD	FLAT:?OnDrawBeforeGraph@CChartPeriodSummaryAddInImp@@MAEXPAUHDC__@@@Z
	DD	FLAT:?OnDrawAfterGraph@CChartPeriodSummaryAddInImp@@MAEXPAUHDC__@@@Z
	DD	FLAT:?OnPacketDataMultiItem@CChartPeriodSummaryAddInImp@@MAEXPBD0H@Z
	DD	FLAT:?OnTimer@CChartAddInBase133691@@MAEXI@Z
	DD	FLAT:?OnCaptureChanged@CChartPeriodSummaryAddInImp@@MAEXPAUHWND__@@QAUHBITMAP__@@@Z
	DD	FLAT:?OnResetMainBlock@CChartAddInBase133691@@MAEXXZ
	DD	FLAT:?OnUserIndiatorConditionLoaded@CChartAddInBase133691@@MAEXXZ
	DD	FLAT:?OnChartItemChanged@CChartAddInBase133691@@MAEXXZ
	DD	FLAT:?OnGraphDataChanged@CChartAddInBase133691@@MAEXXZ
	DD	FLAT:?OnBlockRemoved@CChartAddInBase133691@@MAEXHH@Z
	DD	FLAT:?OnGraphAdded@CChartAddInBase133691@@MAEXPBD0@Z
	DD	FLAT:?OnManualRealData@CChartAddInBase133691@@MAEXPBDNH@Z
	DD	FLAT:?OnContextMenu@CChartAddInBase133691@@MAEXPAUHWND__@@AAUtagPOINT@@@Z
	DD	FLAT:?OnGraphDeleted@CChartAddInBase133691@@MAEXPBD0@Z
	DD	FLAT:?OnPacketTruncated@CChartAddInBase133691@@MAEXH@Z
	DD	FLAT:?OnBlockChanged@CChartAddInBase133691@@MAEXW4BLOCKBEHAVIOR@CBlockBaseData@@HHHH@Z
	DD	FLAT:?OnToolCommand@CChartPeriodSummaryAddInImp@@MAEXHH@Z
	DD	FLAT:?OnRealData@CChartAddInBase133691@@MAEXPBDN0@Z
	DD	FLAT:?OnIndexedRealData@CChartAddInBase133691@@MAEXPBDHN@Z
	DD	FLAT:?OnRealPacketEnd@CChartAddInBase133691@@MAEXPBD@Z
	DD	FLAT:?OnLoadEnvironment@CChartPeriodSummaryAddInImp@@MAEXPAUIPropertyMap@@@Z
	DD	FLAT:?OnSaveEnvironment@CChartPeriodSummaryAddInImp@@MAEXPAUIPropertyMap@@@Z
	DD	FLAT:?DrawCursor@CChartPeriodSummaryAddInImp@@MAE?AUtagRECT@@PAUHDC__@@@Z
	DD	FLAT:?OnRecalculationComplete@CChartAddInBase133691@@MAEXXZ
	DD	FLAT:?OnPreRealData@CChartAddInBase133691@@MAEHPBDAAN0@Z
	DD	FLAT:?OnPreIndexedRealData@CChartAddInBase133691@@MAEHPBDHAAN@Z
	DD	FLAT:?OnPreRealPacketEnd@CChartAddInBase133691@@MAEHPBD@Z
	DD	FLAT:?OnCmdMsg@CChartPeriodSummaryAddInImp@@MAEHIHPAUICmdUI133691@@@Z
	DD	FLAT:?OnAddInMsg@CChartAddInBase133691@@MAEHPBDJ@Z
	DD	FLAT:?OnAddInToolCommand@CChartAddInBase133691@@MAEHAAJW4EAICommandType@@JJ@Z
	DD	FLAT:?OnAddInToolCommand@CChartAddInBase133691@@MAEHAAJW4EAICommandType@@J@Z
	DD	FLAT:?OnAddInToolCommand@CChartAddInBase133691@@MAEHAAJW4EAICommandType@@PBDPAVCObject@@@Z
	DD	FLAT:?OnAddInToolCommand@CChartAddInBase133691@@MAEHAAJW4EAICommandType@@PBD@Z
	DD	FLAT:?OnAddInToolCommand@CChartAddInBase133691@@MAEHAAJW4EAICommandType@@PAUIGraphInfo133691@@@Z
	DD	FLAT:?OnAddInToolCommand@CChartAddInBase133691@@MAEHAAJW4EAICommandType@@@Z
	DD	FLAT:?OnAddInToolCommand@CChartAddInBase133691@@MAEHW4EAICommandType@@JJJJJJJJJ@Z
	DD	FLAT:?OnAddInToolCommand@CChartAddInBase133691@@MAEHW4EAICommandType@@JJ@Z
	DD	FLAT:?OnAddInToolCommand@CChartAddInBase133691@@MAEHW4EAICommandType@@JPBD11@Z
	DD	FLAT:?OnAddInToolCommand@CChartAddInBase133691@@MAEHW4EAICommandType@@JPBD@Z
	DD	FLAT:?OnAddInToolCommand@CChartAddInBase133691@@MAEHW4EAICommandType@@J@Z
	DD	FLAT:?OnAddInToolCommand@CChartAddInBase133691@@MAEHW4EAICommandType@@PBUIAddInDllBase@@@Z
	DD	FLAT:?OnAddInToolCommand@CChartPeriodSummaryAddInImp@@MAEHW4EAICommandType@@PBDJ@Z
	DD	FLAT:?OnAddInToolCommand@CChartAddInBase133691@@MAEHW4EAICommandType@@PBD1@Z
	DD	FLAT:?OnAddInToolCommand@CChartAddInBase133691@@MAEHW4EAICommandType@@PBD@Z
	DD	FLAT:?OnAddInToolCommand@CChartAddInBase133691@@MAEHW4EAICommandType@@PAUHDC__@@IAAUtagPOINT@@K@Z
	DD	FLAT:?OnAddInToolCommand@CChartAddInBase133691@@MAEHW4EAICommandType@@@Z
	DD	FLAT:?OnKeyDown@CChartPeriodSummaryAddInImp@@MAEHIII@Z
	DD	FLAT:?OnKeyUp@CChartAddInBase133691@@MAEHIII@Z
	DD	FLAT:?OnMouseWheel@CChartAddInBase133691@@MAEHIFUtagPOINT@@K@Z
	DD	FLAT:?OnMouseMove@CChartPeriodSummaryAddInImp@@MAEHPAUHDC__@@IAAUtagPOINT@@KQAUHBITMAP__@@@Z
	DD	FLAT:?OnLButtonDown@CChartPeriodSummaryAddInImp@@MAEHPAUHDC__@@IAAUtagPOINT@@K@Z
	DD	FLAT:?OnLButtonUp@CChartPeriodSummaryAddInImp@@MAEHPAUHDC__@@IAAUtagPOINT@@K@Z
	DD	FLAT:?OnLButtonDblClk@CChartPeriodSummaryAddInImp@@MAEHPAUHDC__@@IAAUtagPOINT@@K@Z
	DD	FLAT:?OnRButtonDown@CChartPeriodSummaryAddInImp@@MAEHPAUHDC__@@IAAUtagPOINT@@K@Z
	DD	FLAT:?OnRButtonUp@CChartPeriodSummaryAddInImp@@MAEHPAUHDC__@@IAAUtagPOINT@@K@Z
	DD	FLAT:?OnRButtonDblClk@CChartAddInBase133691@@MAEHPAUHDC__@@IAAUtagPOINT@@K@Z
CONST	ENDS
;	COMDAT ??_7CChartPeriodSummaryAddInImp@@6BCIWUnknown@@@
CONST	SEGMENT
??_7CChartPeriodSummaryAddInImp@@6BCIWUnknown@@@ DD FLAT:??_R4CChartPeriodSummaryAddInImp@@6BCIWUnknown@@@ ; CChartPeriodSummaryAddInImp::`vftable'
	DD	FLAT:?GetRuntimeClass@CObject@@UBEPAUCRuntimeClass@@XZ
	DD	FLAT:??_ECChartPeriodSummaryAddInImp@@UAEPAXI@Z
	DD	FLAT:?Serialize@CObject@@UAEXAAVCArchive@@@Z
	DD	FLAT:?AssertValid@CObject@@UBEXXZ
	DD	FLAT:?Dump@CObject@@UBEXAAVCDumpContext@@@Z
	DD	FLAT:?AddRef@CChartAddInBase133691@@MAGKXZ
	DD	FLAT:?Release@CChartAddInBase133691@@MAGKXZ
	DD	FLAT:?QueryInterface@CChartAddInBase133691@@MAGJABU_GUID@@PAPAX@Z
	DD	FLAT:?PostConstruct@CIWUnknown@@MAEXXZ
	DD	FLAT:?PreDestructX@CIWUnknown@@MAEXXZ
	DD	FLAT:?PreDestruct@CIWUnknown@@MAEXXZ
	DD	FLAT:?GetRegisteredEventMap@CChartPeriodSummaryAddInImp@@MBEPBW4EAddInEventType@IChartAddIn133691@@XZ
CONST	ENDS
;	COMDAT ??_R1A@?0A@EA@CMenu@@8
rdata$r	SEGMENT
??_R1A@?0A@EA@CMenu@@8 DD FLAT:??_R0?AVCMenu@@@8	; CMenu::`RTTI Base Class Descriptor at (0,-1,0,64)'
	DD	01H
	DD	00H
	DD	0ffffffffH
	DD	00H
	DD	040H
	DD	FLAT:??_R3CMenu@@8
rdata$r	ENDS
;	COMDAT ??_R2CMenu@@8
rdata$r	SEGMENT
??_R2CMenu@@8 DD FLAT:??_R1A@?0A@EA@CMenu@@8		; CMenu::`RTTI Base Class Array'
	DD	FLAT:??_R1A@?0A@EA@CObject@@8
rdata$r	ENDS
;	COMDAT ??_R3CMenu@@8
rdata$r	SEGMENT
??_R3CMenu@@8 DD 00H					; CMenu::`RTTI Class Hierarchy Descriptor'
	DD	00H
	DD	02H
	DD	FLAT:??_R2CMenu@@8
rdata$r	ENDS
;	COMDAT ??_R0?AVCMenu@@@8
data$rs	SEGMENT
??_R0?AVCMenu@@@8 DD FLAT:??_7type_info@@6B@		; CMenu `RTTI Type Descriptor'
	DD	00H
	DB	'.?AVCMenu@@', 00H
data$rs	ENDS
;	COMDAT ??_R4CMenu@@6B@
rdata$r	SEGMENT
??_R4CMenu@@6B@ DD 00H					; CMenu::`RTTI Complete Object Locator'
	DD	00H
	DD	00H
	DD	FLAT:??_R0?AVCMenu@@@8
	DD	FLAT:??_R3CMenu@@8
rdata$r	ENDS
;	COMDAT ??_R1A@?0A@EA@CRgn@@8
rdata$r	SEGMENT
??_R1A@?0A@EA@CRgn@@8 DD FLAT:??_R0?AVCRgn@@@8		; CRgn::`RTTI Base Class Descriptor at (0,-1,0,64)'
	DD	02H
	DD	00H
	DD	0ffffffffH
	DD	00H
	DD	040H
	DD	FLAT:??_R3CRgn@@8
rdata$r	ENDS
;	COMDAT ??_R2CRgn@@8
rdata$r	SEGMENT
??_R2CRgn@@8 DD	FLAT:??_R1A@?0A@EA@CRgn@@8		; CRgn::`RTTI Base Class Array'
	DD	FLAT:??_R1A@?0A@EA@CGdiObject@@8
	DD	FLAT:??_R1A@?0A@EA@CObject@@8
rdata$r	ENDS
;	COMDAT ??_R3CRgn@@8
rdata$r	SEGMENT
??_R3CRgn@@8 DD	00H					; CRgn::`RTTI Class Hierarchy Descriptor'
	DD	00H
	DD	03H
	DD	FLAT:??_R2CRgn@@8
rdata$r	ENDS
;	COMDAT ??_R0?AVCRgn@@@8
data$rs	SEGMENT
??_R0?AVCRgn@@@8 DD FLAT:??_7type_info@@6B@		; CRgn `RTTI Type Descriptor'
	DD	00H
	DB	'.?AVCRgn@@', 00H
data$rs	ENDS
;	COMDAT ??_R4CRgn@@6B@
rdata$r	SEGMENT
??_R4CRgn@@6B@ DD 00H					; CRgn::`RTTI Complete Object Locator'
	DD	00H
	DD	00H
	DD	FLAT:??_R0?AVCRgn@@@8
	DD	FLAT:??_R3CRgn@@8
rdata$r	ENDS
;	COMDAT ??_R1A@?0A@EA@CGdiObject@@8
rdata$r	SEGMENT
??_R1A@?0A@EA@CGdiObject@@8 DD FLAT:??_R0?AVCGdiObject@@@8 ; CGdiObject::`RTTI Base Class Descriptor at (0,-1,0,64)'
	DD	01H
	DD	00H
	DD	0ffffffffH
	DD	00H
	DD	040H
	DD	FLAT:??_R3CGdiObject@@8
rdata$r	ENDS
;	COMDAT ??_R2CGdiObject@@8
rdata$r	SEGMENT
??_R2CGdiObject@@8 DD FLAT:??_R1A@?0A@EA@CGdiObject@@8	; CGdiObject::`RTTI Base Class Array'
	DD	FLAT:??_R1A@?0A@EA@CObject@@8
rdata$r	ENDS
;	COMDAT ??_R3CGdiObject@@8
rdata$r	SEGMENT
??_R3CGdiObject@@8 DD 00H				; CGdiObject::`RTTI Class Hierarchy Descriptor'
	DD	00H
	DD	02H
	DD	FLAT:??_R2CGdiObject@@8
rdata$r	ENDS
;	COMDAT ??_R0?AVCGdiObject@@@8
data$rs	SEGMENT
??_R0?AVCGdiObject@@@8 DD FLAT:??_7type_info@@6B@	; CGdiObject `RTTI Type Descriptor'
	DD	00H
	DB	'.?AVCGdiObject@@', 00H
data$rs	ENDS
;	COMDAT ??_R4CGdiObject@@6B@
rdata$r	SEGMENT
??_R4CGdiObject@@6B@ DD 00H				; CGdiObject::`RTTI Complete Object Locator'
	DD	00H
	DD	00H
	DD	FLAT:??_R0?AVCGdiObject@@@8
	DD	FLAT:??_R3CGdiObject@@8
rdata$r	ENDS
;	COMDAT ??_R1A@?0A@EA@IUnknown@@8
rdata$r	SEGMENT
??_R1A@?0A@EA@IUnknown@@8 DD FLAT:??_R0?AUIUnknown@@@8	; IUnknown::`RTTI Base Class Descriptor at (0,-1,0,64)'
	DD	00H
	DD	00H
	DD	0ffffffffH
	DD	00H
	DD	040H
	DD	FLAT:??_R3IUnknown@@8
rdata$r	ENDS
;	COMDAT ??_R2IUnknown@@8
rdata$r	SEGMENT
??_R2IUnknown@@8 DD FLAT:??_R1A@?0A@EA@IUnknown@@8	; IUnknown::`RTTI Base Class Array'
rdata$r	ENDS
;	COMDAT ??_R3IUnknown@@8
rdata$r	SEGMENT
??_R3IUnknown@@8 DD 00H					; IUnknown::`RTTI Class Hierarchy Descriptor'
	DD	00H
	DD	01H
	DD	FLAT:??_R2IUnknown@@8
rdata$r	ENDS
;	COMDAT ??_R0?AUIUnknown@@@8
data$rs	SEGMENT
??_R0?AUIUnknown@@@8 DD FLAT:??_7type_info@@6B@		; IUnknown `RTTI Type Descriptor'
	DD	00H
	DB	'.?AUIUnknown@@', 00H
data$rs	ENDS
;	COMDAT ??_R1A@?0A@EA@CObject@@8
rdata$r	SEGMENT
??_R1A@?0A@EA@CObject@@8 DD FLAT:??_R0?AVCObject@@@8	; CObject::`RTTI Base Class Descriptor at (0,-1,0,64)'
	DD	00H
	DD	00H
	DD	0ffffffffH
	DD	00H
	DD	040H
	DD	FLAT:??_R3CObject@@8
rdata$r	ENDS
;	COMDAT ??_R2CObject@@8
rdata$r	SEGMENT
??_R2CObject@@8 DD FLAT:??_R1A@?0A@EA@CObject@@8	; CObject::`RTTI Base Class Array'
rdata$r	ENDS
;	COMDAT ??_R3CObject@@8
rdata$r	SEGMENT
??_R3CObject@@8 DD 00H					; CObject::`RTTI Class Hierarchy Descriptor'
	DD	00H
	DD	01H
	DD	FLAT:??_R2CObject@@8
rdata$r	ENDS
;	COMDAT ??_R0?AVCObject@@@8
data$rs	SEGMENT
??_R0?AVCObject@@@8 DD FLAT:??_7type_info@@6B@		; CObject `RTTI Type Descriptor'
	DD	00H
	DB	'.?AVCObject@@', 00H
data$rs	ENDS
;	COMDAT ??_C@_0N@OMEMOKLE@?$CFTs?5?$CI?$CFTs?3?$CFd?$CJ@
CONST	SEGMENT
??_C@_0N@OMEMOKLE@?$CFTs?5?$CI?$CFTs?3?$CFd?$CJ@ DB '%Ts (%Ts:%d)', 00H ; `string'
CONST	ENDS
;	COMDAT ??_C@_0BB@HBOOMJBF@?$CFTs?5?$CI?$CFTs?3?$CFd?$CJ?6?$CFTs@
CONST	SEGMENT
??_C@_0BB@HBOOMJBF@?$CFTs?5?$CI?$CFTs?3?$CFd?$CJ?6?$CFTs@ DB '%Ts (%Ts:%d'
	DB	')', 0aH, '%Ts', 00H				; `string'
CONST	ENDS
;	COMDAT ??_C@_0BP@OIEOKIDM@Exception?5thrown?5in?5destructor@
CONST	SEGMENT
??_C@_0BP@OIEOKIDM@Exception?5thrown?5in?5destructor@ DB 'Exception throw'
	DB	'n in destructor', 00H			; `string'
CONST	ENDS
;	COMDAT ??_C@_0HD@JJCHHHNK@C?3?2Program?5Files?5?$CIx86?$CJ?2Microsof@
CONST	SEGMENT
??_C@_0HD@JJCHHHNK@C?3?2Program?5Files?5?$CIx86?$CJ?2Microsof@ DB 'C:\Pro'
	DB	'gram Files (x86)\Microsoft Visual Studio\2019\Community\VC\To'
	DB	'ols\MSVC\14.29.30133\atlmfc\include\afxwin1.inl', 00H ; `string'
CONST	ENDS
;	COMDAT ??_7CMenu@@6B@
CONST	SEGMENT
??_7CMenu@@6B@ DD FLAT:??_R4CMenu@@6B@			; CMenu::`vftable'
	DD	FLAT:?GetRuntimeClass@CMenu@@UBEPAUCRuntimeClass@@XZ
	DD	FLAT:??_ECMenu@@UAEPAXI@Z
	DD	FLAT:?Serialize@CObject@@UAEXAAVCArchive@@@Z
	DD	FLAT:?AssertValid@CObject@@UBEXXZ
	DD	FLAT:?Dump@CObject@@UBEXAAVCDumpContext@@@Z
	DD	FLAT:?DrawItem@CMenu@@UAEXPAUtagDRAWITEMSTRUCT@@@Z
	DD	FLAT:?MeasureItem@CMenu@@UAEXPAUtagMEASUREITEMSTRUCT@@@Z
CONST	ENDS
;	COMDAT ??_7CRgn@@6B@
CONST	SEGMENT
??_7CRgn@@6B@ DD FLAT:??_R4CRgn@@6B@			; CRgn::`vftable'
	DD	FLAT:?GetRuntimeClass@CRgn@@UBEPAUCRuntimeClass@@XZ
	DD	FLAT:??_ECRgn@@UAEPAXI@Z
	DD	FLAT:?Serialize@CObject@@UAEXAAVCArchive@@@Z
	DD	FLAT:?AssertValid@CObject@@UBEXXZ
	DD	FLAT:?Dump@CObject@@UBEXAAVCDumpContext@@@Z
CONST	ENDS
;	COMDAT ??_7CGdiObject@@6B@
CONST	SEGMENT
??_7CGdiObject@@6B@ DD FLAT:??_R4CGdiObject@@6B@	; CGdiObject::`vftable'
	DD	FLAT:?GetRuntimeClass@CGdiObject@@UBEPAUCRuntimeClass@@XZ
	DD	FLAT:??_ECGdiObject@@UAEPAXI@Z
	DD	FLAT:?Serialize@CObject@@UAEXAAVCArchive@@@Z
	DD	FLAT:?AssertValid@CObject@@UBEXXZ
	DD	FLAT:?Dump@CObject@@UBEXAAVCDumpContext@@@Z
CONST	ENDS
;	COMDAT ??_C@_00CNPNBAHC@@
CONST	SEGMENT
??_C@_00CNPNBAHC@@ DB 00H				; `string'
CONST	ENDS
;	COMDAT ??_R0PAVCException@@@8
data$r	SEGMENT
??_R0PAVCException@@@8 DD FLAT:??_7type_info@@6B@	; CException * `RTTI Type Descriptor'
	DD	00H
	DB	'.PAVCException@@', 00H
data$r	ENDS
;	COMDAT xdata$x
xdata$x	SEGMENT
__ehfuncinfo$??1CMultiLanguageResourceSetter@@QAE@XZ DD 019930522H
	DD	00H
	DD	00H
	DD	2 DUP(00H)
	DD	2 DUP(00H)
	DD	00H
	DD	05H
xdata$x	ENDS
;	COMDAT xdata$x
xdata$x	SEGMENT
__unwindtable$??_GCChartPeriodSummaryAddInImp@@UAEPAXI@Z DD 0ffffffffH
	DD	FLAT:___std_terminate
__ehfuncinfo$??_GCChartPeriodSummaryAddInImp@@UAEPAXI@Z DD 019930522H
	DD	01H
	DD	FLAT:__unwindtable$??_GCChartPeriodSummaryAddInImp@@UAEPAXI@Z
	DD	2 DUP(00H)
	DD	2 DUP(00H)
	DD	00H
	DD	05H
xdata$x	ENDS
;	COMDAT xdata$x
xdata$x	SEGMENT
__ehfuncinfo$?OnRButtonUp@CChartPeriodSummaryAddInImp@@MAEHPAUHDC__@@IAAUtagPOINT@@K@Z DD 019930522H
	DD	09H
	DD	FLAT:__unwindtable$?OnRButtonUp@CChartPeriodSummaryAddInImp@@MAEHPAUHDC__@@IAAUtagPOINT@@K@Z
	DD	2 DUP(00H)
	DD	2 DUP(00H)
	DD	00H
	DD	01H
__unwindtable$?OnRButtonUp@CChartPeriodSummaryAddInImp@@MAEHPAUHDC__@@IAAUtagPOINT@@K@Z DD 0ffffffffH
	DD	FLAT:__unwindfunclet$?OnRButtonUp@CChartPeriodSummaryAddInImp@@MAEHPAUHDC__@@IAAUtagPOINT@@K@Z$0
	DD	0ffffffffH
	DD	00H
	DD	00H
	DD	FLAT:__unwindfunclet$?OnRButtonUp@CChartPeriodSummaryAddInImp@@MAEHPAUHDC__@@IAAUtagPOINT@@K@Z$1
	DD	00H
	DD	00H
	DD	0ffffffffH
	DD	00H
	DD	00H
	DD	00H
	DD	0ffffffffH
	DD	00H
	DD	00H
	DD	FLAT:___std_terminate
	DD	0ffffffffH
	DD	FLAT:___std_terminate
xdata$x	ENDS
;	COMDAT xdata$x
xdata$x	SEGMENT
__ehfuncinfo$?OnRButtonDown@CChartPeriodSummaryAddInImp@@MAEHPAUHDC__@@IAAUtagPOINT@@K@Z DD 019930522H
	DD	06H
	DD	FLAT:__unwindtable$?OnRButtonDown@CChartPeriodSummaryAddInImp@@MAEHPAUHDC__@@IAAUtagPOINT@@K@Z
	DD	2 DUP(00H)
	DD	2 DUP(00H)
	DD	00H
	DD	01H
__unwindtable$?OnRButtonDown@CChartPeriodSummaryAddInImp@@MAEHPAUHDC__@@IAAUtagPOINT@@K@Z DD 0ffffffffH
	DD	FLAT:__unwindfunclet$?OnRButtonDown@CChartPeriodSummaryAddInImp@@MAEHPAUHDC__@@IAAUtagPOINT@@K@Z$0
	DD	0ffffffffH
	DD	00H
	DD	0ffffffffH
	DD	00H
	DD	0ffffffffH
	DD	00H
	DD	0ffffffffH
	DD	00H
	DD	0ffffffffH
	DD	FLAT:___std_terminate
xdata$x	ENDS
;	COMDAT xdata$x
xdata$x	SEGMENT
__unwindtable$?OnLButtonDblClk@CChartPeriodSummaryAddInImp@@MAEHPAUHDC__@@IAAUtagPOINT@@K@Z DD 0ffffffffH
	DD	FLAT:__unwindfunclet$?OnLButtonDblClk@CChartPeriodSummaryAddInImp@@MAEHPAUHDC__@@IAAUtagPOINT@@K@Z$0
	DD	0ffffffffH
	DD	00H
	DD	0ffffffffH
	DD	00H
	DD	0ffffffffH
	DD	FLAT:___std_terminate
__ehfuncinfo$?OnLButtonDblClk@CChartPeriodSummaryAddInImp@@MAEHPAUHDC__@@IAAUtagPOINT@@K@Z DD 019930522H
	DD	04H
	DD	FLAT:__unwindtable$?OnLButtonDblClk@CChartPeriodSummaryAddInImp@@MAEHPAUHDC__@@IAAUtagPOINT@@K@Z
	DD	2 DUP(00H)
	DD	2 DUP(00H)
	DD	00H
	DD	01H
xdata$x	ENDS
;	COMDAT xdata$x
xdata$x	SEGMENT
__ehfuncinfo$?OnLButtonUp@CChartPeriodSummaryAddInImp@@MAEHPAUHDC__@@IAAUtagPOINT@@K@Z DD 019930522H
	DD	06H
	DD	FLAT:__unwindtable$?OnLButtonUp@CChartPeriodSummaryAddInImp@@MAEHPAUHDC__@@IAAUtagPOINT@@K@Z
	DD	2 DUP(00H)
	DD	2 DUP(00H)
	DD	00H
	DD	01H
__unwindtable$?OnLButtonUp@CChartPeriodSummaryAddInImp@@MAEHPAUHDC__@@IAAUtagPOINT@@K@Z DD 0ffffffffH
	DD	FLAT:__unwindfunclet$?OnLButtonUp@CChartPeriodSummaryAddInImp@@MAEHPAUHDC__@@IAAUtagPOINT@@K@Z$0
	DD	0ffffffffH
	DD	00H
	DD	0ffffffffH
	DD	00H
	DD	0ffffffffH
	DD	00H
	DD	0ffffffffH
	DD	00H
	DD	0ffffffffH
	DD	FLAT:___std_terminate
xdata$x	ENDS
;	COMDAT xdata$x
xdata$x	SEGMENT
__ehfuncinfo$?OnLButtonDown@CChartPeriodSummaryAddInImp@@MAEHPAUHDC__@@IAAUtagPOINT@@K@Z DD 019930522H
	DD	015H
	DD	FLAT:__unwindtable$?OnLButtonDown@CChartPeriodSummaryAddInImp@@MAEHPAUHDC__@@IAAUtagPOINT@@K@Z
	DD	2 DUP(00H)
	DD	2 DUP(00H)
	DD	00H
	DD	01H
__unwindtable$?OnLButtonDown@CChartPeriodSummaryAddInImp@@MAEHPAUHDC__@@IAAUtagPOINT@@K@Z DD 0ffffffffH
	DD	FLAT:__unwindfunclet$?OnLButtonDown@CChartPeriodSummaryAddInImp@@MAEHPAUHDC__@@IAAUtagPOINT@@K@Z$0
	DD	0ffffffffH
	DD	00H
	DD	0ffffffffH
	DD	00H
	DD	0ffffffffH
	DD	00H
	DD	0ffffffffH
	DD	00H
	DD	0ffffffffH
	DD	00H
	DD	0ffffffffH
	DD	00H
	DD	0ffffffffH
	DD	00H
	DD	0ffffffffH
	DD	00H
	DD	00H
	DD	FLAT:__unwindfunclet$?OnLButtonDown@CChartPeriodSummaryAddInImp@@MAEHPAUHDC__@@IAAUtagPOINT@@K@Z$1
	DD	09H
	DD	FLAT:__unwindfunclet$?OnLButtonDown@CChartPeriodSummaryAddInImp@@MAEHPAUHDC__@@IAAUtagPOINT@@K@Z$2
	DD	0aH
	DD	FLAT:__unwindfunclet$?OnLButtonDown@CChartPeriodSummaryAddInImp@@MAEHPAUHDC__@@IAAUtagPOINT@@K@Z$3
	DD	0ffffffffH
	DD	00H
	DD	0ffffffffH
	DD	00H
	DD	0ffffffffH
	DD	00H
	DD	0ffffffffH
	DD	00H
	DD	0bH
	DD	FLAT:__unwindfunclet$?OnLButtonDown@CChartPeriodSummaryAddInImp@@MAEHPAUHDC__@@IAAUtagPOINT@@K@Z$4
	DD	0ffffffffH
	DD	00H
	DD	0ffffffffH
	DD	00H
	DD	0ffffffffH
	DD	00H
	DD	0ffffffffH
	DD	FLAT:___std_terminate
xdata$x	ENDS
;	COMDAT xdata$x
xdata$x	SEGMENT
__ehfuncinfo$?OnMouseMove@CChartPeriodSummaryAddInImp@@MAEHPAUHDC__@@IAAUtagPOINT@@KQAUHBITMAP__@@@Z DD 019930522H
	DD	08H
	DD	FLAT:__unwindtable$?OnMouseMove@CChartPeriodSummaryAddInImp@@MAEHPAUHDC__@@IAAUtagPOINT@@KQAUHBITMAP__@@@Z
	DD	2 DUP(00H)
	DD	2 DUP(00H)
	DD	00H
	DD	01H
__unwindtable$?OnMouseMove@CChartPeriodSummaryAddInImp@@MAEHPAUHDC__@@IAAUtagPOINT@@KQAUHBITMAP__@@@Z DD 0ffffffffH
	DD	FLAT:__unwindfunclet$?OnMouseMove@CChartPeriodSummaryAddInImp@@MAEHPAUHDC__@@IAAUtagPOINT@@KQAUHBITMAP__@@@Z$0
	DD	0ffffffffH
	DD	00H
	DD	0ffffffffH
	DD	00H
	DD	0ffffffffH
	DD	00H
	DD	0ffffffffH
	DD	00H
	DD	0ffffffffH
	DD	00H
	DD	0ffffffffH
	DD	00H
	DD	0ffffffffH
	DD	FLAT:___std_terminate
xdata$x	ENDS
;	COMDAT xdata$x
xdata$x	SEGMENT
__ehfuncinfo$?OnKeyDown@CChartPeriodSummaryAddInImp@@MAEHIII@Z DD 019930522H
	DD	05H
	DD	FLAT:__unwindtable$?OnKeyDown@CChartPeriodSummaryAddInImp@@MAEHIII@Z
	DD	2 DUP(00H)
	DD	2 DUP(00H)
	DD	00H
	DD	01H
__unwindtable$?OnKeyDown@CChartPeriodSummaryAddInImp@@MAEHIII@Z DD 0ffffffffH
	DD	FLAT:__unwindfunclet$?OnKeyDown@CChartPeriodSummaryAddInImp@@MAEHIII@Z$0
	DD	0ffffffffH
	DD	00H
	DD	0ffffffffH
	DD	00H
	DD	0ffffffffH
	DD	00H
	DD	0ffffffffH
	DD	FLAT:___std_terminate
xdata$x	ENDS
;	COMDAT xdata$x
xdata$x	SEGMENT
__ehfuncinfo$?OnCmdMsg@CChartPeriodSummaryAddInImp@@MAEHIHPAUICmdUI133691@@@Z DD 019930522H
	DD	05H
	DD	FLAT:__unwindtable$?OnCmdMsg@CChartPeriodSummaryAddInImp@@MAEHIHPAUICmdUI133691@@@Z
	DD	2 DUP(00H)
	DD	2 DUP(00H)
	DD	00H
	DD	01H
__unwindtable$?OnCmdMsg@CChartPeriodSummaryAddInImp@@MAEHIHPAUICmdUI133691@@@Z DD 0ffffffffH
	DD	FLAT:__unwindfunclet$?OnCmdMsg@CChartPeriodSummaryAddInImp@@MAEHIHPAUICmdUI133691@@@Z$0
	DD	0ffffffffH
	DD	00H
	DD	0ffffffffH
	DD	00H
	DD	0ffffffffH
	DD	00H
	DD	0ffffffffH
	DD	FLAT:___std_terminate
xdata$x	ENDS
;	COMDAT xdata$x
xdata$x	SEGMENT
__ehfuncinfo$?DrawCursor@CChartPeriodSummaryAddInImp@@MAE?AUtagRECT@@PAUHDC__@@@Z DD 019930522H
	DD	08H
	DD	FLAT:__unwindtable$?DrawCursor@CChartPeriodSummaryAddInImp@@MAE?AUtagRECT@@PAUHDC__@@@Z
	DD	2 DUP(00H)
	DD	2 DUP(00H)
	DD	00H
	DD	01H
__unwindtable$?DrawCursor@CChartPeriodSummaryAddInImp@@MAE?AUtagRECT@@PAUHDC__@@@Z DD 0ffffffffH
	DD	FLAT:__unwindfunclet$?DrawCursor@CChartPeriodSummaryAddInImp@@MAE?AUtagRECT@@PAUHDC__@@@Z$6
	DD	0ffffffffH
	DD	FLAT:___std_terminate
	DD	0ffffffffH
	DD	FLAT:___std_terminate
	DD	00H
	DD	FLAT:__unwindfunclet$?DrawCursor@CChartPeriodSummaryAddInImp@@MAE?AUtagRECT@@PAUHDC__@@@Z$7
	DD	0ffffffffH
	DD	FLAT:___std_terminate
	DD	0ffffffffH
	DD	FLAT:___std_terminate
	DD	0ffffffffH
	DD	FLAT:___std_terminate
	DD	0ffffffffH
	DD	FLAT:___std_terminate
xdata$x	ENDS
;	COMDAT xdata$x
xdata$x	SEGMENT
__unwindtable$?OnSaveEnvironment@CChartPeriodSummaryAddInImp@@MAEXPAUIPropertyMap@@@Z DD 0ffffffffH
	DD	FLAT:__unwindfunclet$?OnSaveEnvironment@CChartPeriodSummaryAddInImp@@MAEXPAUIPropertyMap@@@Z$0
	DD	00H
	DD	FLAT:__unwindfunclet$?OnSaveEnvironment@CChartPeriodSummaryAddInImp@@MAEXPAUIPropertyMap@@@Z$1
	DD	01H
	DD	FLAT:__unwindfunclet$?OnSaveEnvironment@CChartPeriodSummaryAddInImp@@MAEXPAUIPropertyMap@@@Z$2
	DD	02H
	DD	FLAT:__unwindfunclet$?OnSaveEnvironment@CChartPeriodSummaryAddInImp@@MAEXPAUIPropertyMap@@@Z$3
__ehfuncinfo$?OnSaveEnvironment@CChartPeriodSummaryAddInImp@@MAEXPAUIPropertyMap@@@Z DD 019930522H
	DD	04H
	DD	FLAT:__unwindtable$?OnSaveEnvironment@CChartPeriodSummaryAddInImp@@MAEXPAUIPropertyMap@@@Z
	DD	2 DUP(00H)
	DD	2 DUP(00H)
	DD	00H
	DD	01H
xdata$x	ENDS
;	COMDAT xdata$x
xdata$x	SEGMENT
__unwindtable$?OnLoadEnvironment@CChartPeriodSummaryAddInImp@@MAEXPAUIPropertyMap@@@Z DD 0ffffffffH
	DD	FLAT:__unwindfunclet$?OnLoadEnvironment@CChartPeriodSummaryAddInImp@@MAEXPAUIPropertyMap@@@Z$0
	DD	00H
	DD	FLAT:__unwindfunclet$?OnLoadEnvironment@CChartPeriodSummaryAddInImp@@MAEXPAUIPropertyMap@@@Z$1
	DD	01H
	DD	FLAT:__unwindfunclet$?OnLoadEnvironment@CChartPeriodSummaryAddInImp@@MAEXPAUIPropertyMap@@@Z$3
	DD	01H
	DD	FLAT:__unwindfunclet$?OnLoadEnvironment@CChartPeriodSummaryAddInImp@@MAEXPAUIPropertyMap@@@Z$4
__ehfuncinfo$?OnLoadEnvironment@CChartPeriodSummaryAddInImp@@MAEXPAUIPropertyMap@@@Z DD 019930522H
	DD	04H
	DD	FLAT:__unwindtable$?OnLoadEnvironment@CChartPeriodSummaryAddInImp@@MAEXPAUIPropertyMap@@@Z
	DD	2 DUP(00H)
	DD	2 DUP(00H)
	DD	00H
	DD	01H
xdata$x	ENDS
;	COMDAT xdata$x
xdata$x	SEGMENT
__unwindtable$?OnResetChart@CChartPeriodSummaryAddInImp@@MAEXXZ DD 0ffffffffH
	DD	FLAT:__unwindfunclet$?OnResetChart@CChartPeriodSummaryAddInImp@@MAEXXZ$0
	DD	0ffffffffH
	DD	FLAT:___std_terminate
__ehfuncinfo$?OnResetChart@CChartPeriodSummaryAddInImp@@MAEXXZ DD 019930522H
	DD	02H
	DD	FLAT:__unwindtable$?OnResetChart@CChartPeriodSummaryAddInImp@@MAEXXZ
	DD	2 DUP(00H)
	DD	2 DUP(00H)
	DD	00H
	DD	01H
xdata$x	ENDS
;	COMDAT xdata$x
xdata$x	SEGMENT
__unwindtable$?OnPacketDataMultiItem@CChartPeriodSummaryAddInImp@@MAEXPBD0H@Z DD 0ffffffffH
	DD	FLAT:__unwindfunclet$?OnPacketDataMultiItem@CChartPeriodSummaryAddInImp@@MAEXPBD0H@Z$0
	DD	0ffffffffH
	DD	FLAT:___std_terminate
__ehfuncinfo$?OnPacketDataMultiItem@CChartPeriodSummaryAddInImp@@MAEXPBD0H@Z DD 019930522H
	DD	02H
	DD	FLAT:__unwindtable$?OnPacketDataMultiItem@CChartPeriodSummaryAddInImp@@MAEXPBD0H@Z
	DD	2 DUP(00H)
	DD	2 DUP(00H)
	DD	00H
	DD	01H
xdata$x	ENDS
;	COMDAT xdata$x
xdata$x	SEGMENT
__unwindtable$?OnDrawBeforeGraph@CChartPeriodSummaryAddInImp@@MAEXPAUHDC__@@@Z DD 0ffffffffH
	DD	FLAT:___std_terminate
__ehfuncinfo$?OnDrawBeforeGraph@CChartPeriodSummaryAddInImp@@MAEXPAUHDC__@@@Z DD 019930522H
	DD	01H
	DD	FLAT:__unwindtable$?OnDrawBeforeGraph@CChartPeriodSummaryAddInImp@@MAEXPAUHDC__@@@Z
	DD	2 DUP(00H)
	DD	2 DUP(00H)
	DD	00H
	DD	01H
xdata$x	ENDS
;	COMDAT xdata$x
xdata$x	SEGMENT
__catchsym$?OnDrawAfterGraph@CChartPeriodSummaryAddInImp@@MAEXPAUHDC__@@@Z$11 DD 00H
	DD	FLAT:??_R0PAVCChartPeriodSummaryAddInImp@@@8
	DD	00H
	DD	FLAT:__catch$?OnDrawAfterGraph@CChartPeriodSummaryAddInImp@@MAEXPAUHDC__@@@Z$3
__tryblocktable$?OnDrawAfterGraph@CChartPeriodSummaryAddInImp@@MAEXPAUHDC__@@@Z DD 01H
	DD	02H
	DD	03H
	DD	01H
	DD	FLAT:__catchsym$?OnDrawAfterGraph@CChartPeriodSummaryAddInImp@@MAEXPAUHDC__@@@Z$11
__ehfuncinfo$?OnDrawAfterGraph@CChartPeriodSummaryAddInImp@@MAEXPAUHDC__@@@Z DD 019930522H
	DD	05H
	DD	FLAT:__unwindtable$?OnDrawAfterGraph@CChartPeriodSummaryAddInImp@@MAEXPAUHDC__@@@Z
	DD	01H
	DD	FLAT:__tryblocktable$?OnDrawAfterGraph@CChartPeriodSummaryAddInImp@@MAEXPAUHDC__@@@Z
	DD	2 DUP(00H)
	DD	00H
	DD	01H
__unwindtable$?OnDrawAfterGraph@CChartPeriodSummaryAddInImp@@MAEXPAUHDC__@@@Z DD 0ffffffffH
	DD	FLAT:__unwindfunclet$?OnDrawAfterGraph@CChartPeriodSummaryAddInImp@@MAEXPAUHDC__@@@Z$5
	DD	00H
	DD	00H
	DD	01H
	DD	FLAT:__unwindfunclet$?OnDrawAfterGraph@CChartPeriodSummaryAddInImp@@MAEXPAUHDC__@@@Z$6
	DD	00H
	DD	00H
	DD	0ffffffffH
	DD	FLAT:___std_terminate
xdata$x	ENDS
;	COMDAT xdata$x
xdata$x	SEGMENT
__unwindtable$?InvokeAddIn@CChartPeriodSummaryAddInImp@@MAEHHJ@Z DD 0ffffffffH
	DD	FLAT:___std_terminate
__ehfuncinfo$?InvokeAddIn@CChartPeriodSummaryAddInImp@@MAEHHJ@Z DD 019930522H
	DD	01H
	DD	FLAT:__unwindtable$?InvokeAddIn@CChartPeriodSummaryAddInImp@@MAEHHJ@Z
	DD	2 DUP(00H)
	DD	2 DUP(00H)
	DD	00H
	DD	01H
xdata$x	ENDS
;	COMDAT xdata$x
xdata$x	SEGMENT
__unwindtable$?RecalcLineXPoint@CChartPeriodSummaryAddInImp@@QAE_NPBDH@Z DD 0ffffffffH
	DD	FLAT:__unwindfunclet$?RecalcLineXPoint@CChartPeriodSummaryAddInImp@@QAE_NPBDH@Z$0
	DD	00H
	DD	FLAT:__unwindfunclet$?RecalcLineXPoint@CChartPeriodSummaryAddInImp@@QAE_NPBDH@Z$1
	DD	01H
	DD	FLAT:__unwindfunclet$?RecalcLineXPoint@CChartPeriodSummaryAddInImp@@QAE_NPBDH@Z$2
	DD	0ffffffffH
	DD	FLAT:___std_terminate
__ehfuncinfo$?RecalcLineXPoint@CChartPeriodSummaryAddInImp@@QAE_NPBDH@Z DD 019930522H
	DD	04H
	DD	FLAT:__unwindtable$?RecalcLineXPoint@CChartPeriodSummaryAddInImp@@QAE_NPBDH@Z
	DD	2 DUP(00H)
	DD	2 DUP(00H)
	DD	00H
	DD	01H
xdata$x	ENDS
;	COMDAT xdata$x
xdata$x	SEGMENT
__unwindtable$?DoubleToString@CChartPeriodSummaryAddInImp@@QAE?AV?$CStringT@DV?$StrTraitMFC_DLL@DV?$ChTraitsCRT@D@ATL@@@@@ATL@@ABN@Z DD 0ffffffffH
	DD	FLAT:__unwindfunclet$?DoubleToString@CChartPeriodSummaryAddInImp@@QAE?AV?$CStringT@DV?$StrTraitMFC_DLL@DV?$ChTraitsCRT@D@ATL@@@@@ATL@@ABN@Z$0
__ehfuncinfo$?DoubleToString@CChartPeriodSummaryAddInImp@@QAE?AV?$CStringT@DV?$StrTraitMFC_DLL@DV?$ChTraitsCRT@D@ATL@@@@@ATL@@ABN@Z DD 019930522H
	DD	01H
	DD	FLAT:__unwindtable$?DoubleToString@CChartPeriodSummaryAddInImp@@QAE?AV?$CStringT@DV?$StrTraitMFC_DLL@DV?$ChTraitsCRT@D@ATL@@@@@ATL@@ABN@Z
	DD	2 DUP(00H)
	DD	2 DUP(00H)
	DD	00H
	DD	01H
xdata$x	ENDS
;	COMDAT xdata$x
xdata$x	SEGMENT
__ehfuncinfo$??1CChartPeriodSummaryAddInImp@@UAE@XZ DD 019930522H
	DD	00H
	DD	00H
	DD	2 DUP(00H)
	DD	2 DUP(00H)
	DD	00H
	DD	05H
xdata$x	ENDS
;	COMDAT xdata$x
xdata$x	SEGMENT
__ehfuncinfo$??0CChartPeriodSummaryAddInImp@@QAE@PAUIChartOCX133691@@PAUIAddInDllBase@@@Z DD 019930522H
	DD	05H
	DD	FLAT:__unwindtable$??0CChartPeriodSummaryAddInImp@@QAE@PAUIChartOCX133691@@PAUIAddInDllBase@@@Z
	DD	2 DUP(00H)
	DD	2 DUP(00H)
	DD	00H
	DD	01H
__unwindtable$??0CChartPeriodSummaryAddInImp@@QAE@PAUIChartOCX133691@@PAUIAddInDllBase@@@Z DD 0ffffffffH
	DD	FLAT:__unwindfunclet$??0CChartPeriodSummaryAddInImp@@QAE@PAUIChartOCX133691@@PAUIAddInDllBase@@@Z$0
	DD	00H
	DD	FLAT:__unwindfunclet$??0CChartPeriodSummaryAddInImp@@QAE@PAUIChartOCX133691@@PAUIAddInDllBase@@@Z$1
	DD	01H
	DD	FLAT:__unwindfunclet$??0CChartPeriodSummaryAddInImp@@QAE@PAUIChartOCX133691@@PAUIAddInDllBase@@@Z$2
	DD	02H
	DD	FLAT:__unwindfunclet$??0CChartPeriodSummaryAddInImp@@QAE@PAUIChartOCX133691@@PAUIAddInDllBase@@@Z$3
	DD	03H
	DD	FLAT:__unwindfunclet$??0CChartPeriodSummaryAddInImp@@QAE@PAUIChartOCX133691@@PAUIAddInDllBase@@@Z$4
xdata$x	ENDS
;	COMDAT xdata$x
xdata$x	SEGMENT
__unwindtable$?GetChartBasicData@CChartPeriodSummaryAddInImp@@QAEHPAVCPeriodObj@@@Z DD 0ffffffffH
	DD	FLAT:__unwindfunclet$?GetChartBasicData@CChartPeriodSummaryAddInImp@@QAEHPAVCPeriodObj@@@Z$0
	DD	0ffffffffH
	DD	FLAT:___std_terminate
__ehfuncinfo$?GetChartBasicData@CChartPeriodSummaryAddInImp@@QAEHPAVCPeriodObj@@@Z DD 019930522H
	DD	02H
	DD	FLAT:__unwindtable$?GetChartBasicData@CChartPeriodSummaryAddInImp@@QAEHPAVCPeriodObj@@@Z
	DD	2 DUP(00H)
	DD	2 DUP(00H)
	DD	00H
	DD	01H
xdata$x	ENDS
;	COMDAT xdata$x
xdata$x	SEGMENT
__unwindtable$?TokenizeEx@CChartPeriodSummaryAddInImp@@QAE?AV?$CStringT@DV?$StrTraitMFC_DLL@DV?$ChTraitsCRT@D@ATL@@@@@ATL@@V23@PBDAAH@Z DD 0ffffffffH
	DD	FLAT:__unwindfunclet$?TokenizeEx@CChartPeriodSummaryAddInImp@@QAE?AV?$CStringT@DV?$StrTraitMFC_DLL@DV?$ChTraitsCRT@D@ATL@@@@@ATL@@V23@PBDAAH@Z$0
	DD	00H
	DD	FLAT:__unwindfunclet$?TokenizeEx@CChartPeriodSummaryAddInImp@@QAE?AV?$CStringT@DV?$StrTraitMFC_DLL@DV?$ChTraitsCRT@D@ATL@@@@@ATL@@V23@PBDAAH@Z$1
	DD	01H
	DD	FLAT:__unwindfunclet$?TokenizeEx@CChartPeriodSummaryAddInImp@@QAE?AV?$CStringT@DV?$StrTraitMFC_DLL@DV?$ChTraitsCRT@D@ATL@@@@@ATL@@V23@PBDAAH@Z$2
__ehfuncinfo$?TokenizeEx@CChartPeriodSummaryAddInImp@@QAE?AV?$CStringT@DV?$StrTraitMFC_DLL@DV?$ChTraitsCRT@D@ATL@@@@@ATL@@V23@PBDAAH@Z DD 019930522H
	DD	03H
	DD	FLAT:__unwindtable$?TokenizeEx@CChartPeriodSummaryAddInImp@@QAE?AV?$CStringT@DV?$StrTraitMFC_DLL@DV?$ChTraitsCRT@D@ATL@@@@@ATL@@V23@PBDAAH@Z
	DD	2 DUP(00H)
	DD	2 DUP(00H)
	DD	00H
	DD	01H
xdata$x	ENDS
;	COMDAT xdata$x
xdata$x	SEGMENT
__catchsym$?GetIndexFromValue@CChartPeriodSummaryAddInImp@@QAEHPBDH_JNAAH2@Z$2 DD 00H
	DD	FLAT:??_R0PAVCChartPeriodSummaryAddInImp@@@8
	DD	00H
	DD	FLAT:__catch$?GetIndexFromValue@CChartPeriodSummaryAddInImp@@QAEHPBDH_JNAAH2@Z$0
__unwindtable$?GetIndexFromValue@CChartPeriodSummaryAddInImp@@QAEHPBDH_JNAAH2@Z DD 0ffffffffH
	DD	00H
	DD	0ffffffffH
	DD	00H
__tryblocktable$?GetIndexFromValue@CChartPeriodSummaryAddInImp@@QAEHPBDH_JNAAH2@Z DD 00H
	DD	00H
	DD	01H
	DD	01H
	DD	FLAT:__catchsym$?GetIndexFromValue@CChartPeriodSummaryAddInImp@@QAEHPBDH_JNAAH2@Z$2
__ehfuncinfo$?GetIndexFromValue@CChartPeriodSummaryAddInImp@@QAEHPBDH_JNAAH2@Z DD 019930522H
	DD	02H
	DD	FLAT:__unwindtable$?GetIndexFromValue@CChartPeriodSummaryAddInImp@@QAEHPBDH_JNAAH2@Z
	DD	01H
	DD	FLAT:__tryblocktable$?GetIndexFromValue@CChartPeriodSummaryAddInImp@@QAEHPBDH_JNAAH2@Z
	DD	2 DUP(00H)
	DD	00H
	DD	01H
xdata$x	ENDS
;	COMDAT xdata$x
xdata$x	SEGMENT
__catchsym$?GetAmountInfo@CChartPeriodSummaryAddInImp@@QAEHPBDPAVCAmount@CPeriodObj@@HH@Z$2 DD 00H
	DD	FLAT:??_R0PAVCChartPeriodSummaryAddInImp@@@8
	DD	00H
	DD	FLAT:__catch$?GetAmountInfo@CChartPeriodSummaryAddInImp@@QAEHPBDPAVCAmount@CPeriodObj@@HH@Z$0
__unwindtable$?GetAmountInfo@CChartPeriodSummaryAddInImp@@QAEHPBDPAVCAmount@CPeriodObj@@HH@Z DD 0ffffffffH
	DD	00H
	DD	0ffffffffH
	DD	00H
__tryblocktable$?GetAmountInfo@CChartPeriodSummaryAddInImp@@QAEHPBDPAVCAmount@CPeriodObj@@HH@Z DD 00H
	DD	00H
	DD	01H
	DD	01H
	DD	FLAT:__catchsym$?GetAmountInfo@CChartPeriodSummaryAddInImp@@QAEHPBDPAVCAmount@CPeriodObj@@HH@Z$2
__ehfuncinfo$?GetAmountInfo@CChartPeriodSummaryAddInImp@@QAEHPBDPAVCAmount@CPeriodObj@@HH@Z DD 019930522H
	DD	02H
	DD	FLAT:__unwindtable$?GetAmountInfo@CChartPeriodSummaryAddInImp@@QAEHPBDPAVCAmount@CPeriodObj@@HH@Z
	DD	01H
	DD	FLAT:__tryblocktable$?GetAmountInfo@CChartPeriodSummaryAddInImp@@QAEHPBDPAVCAmount@CPeriodObj@@HH@Z
	DD	2 DUP(00H)
	DD	00H
	DD	01H
xdata$x	ENDS
;	COMDAT xdata$x
xdata$x	SEGMENT
__catchsym$?GetCandleInfo@CChartPeriodSummaryAddInImp@@QAEHPBDPAVCCandle@CPeriodObj@@HH@Z$2 DD 00H
	DD	FLAT:??_R0PAVCChartPeriodSummaryAddInImp@@@8
	DD	00H
	DD	FLAT:__catch$?GetCandleInfo@CChartPeriodSummaryAddInImp@@QAEHPBDPAVCCandle@CPeriodObj@@HH@Z$0
__unwindtable$?GetCandleInfo@CChartPeriodSummaryAddInImp@@QAEHPBDPAVCCandle@CPeriodObj@@HH@Z DD 0ffffffffH
	DD	00H
	DD	0ffffffffH
	DD	00H
__tryblocktable$?GetCandleInfo@CChartPeriodSummaryAddInImp@@QAEHPBDPAVCCandle@CPeriodObj@@HH@Z DD 00H
	DD	00H
	DD	01H
	DD	01H
	DD	FLAT:__catchsym$?GetCandleInfo@CChartPeriodSummaryAddInImp@@QAEHPBDPAVCCandle@CPeriodObj@@HH@Z$2
__ehfuncinfo$?GetCandleInfo@CChartPeriodSummaryAddInImp@@QAEHPBDPAVCCandle@CPeriodObj@@HH@Z DD 019930522H
	DD	02H
	DD	FLAT:__unwindtable$?GetCandleInfo@CChartPeriodSummaryAddInImp@@QAEHPBDPAVCCandle@CPeriodObj@@HH@Z
	DD	01H
	DD	FLAT:__tryblocktable$?GetCandleInfo@CChartPeriodSummaryAddInImp@@QAEHPBDPAVCCandle@CPeriodObj@@HH@Z
	DD	2 DUP(00H)
	DD	00H
	DD	01H
xdata$x	ENDS
;	COMDAT xdata$x
xdata$x	SEGMENT
__catchsym$?GetPriceInfo@CChartPeriodSummaryAddInImp@@QAEHPBDPAVCPrice@CPeriodObj@@HH@Z$2 DD 00H
	DD	FLAT:??_R0PAVCChartPeriodSummaryAddInImp@@@8
	DD	00H
	DD	FLAT:__catch$?GetPriceInfo@CChartPeriodSummaryAddInImp@@QAEHPBDPAVCPrice@CPeriodObj@@HH@Z$0
__unwindtable$?GetPriceInfo@CChartPeriodSummaryAddInImp@@QAEHPBDPAVCPrice@CPeriodObj@@HH@Z DD 0ffffffffH
	DD	00H
	DD	0ffffffffH
	DD	00H
__tryblocktable$?GetPriceInfo@CChartPeriodSummaryAddInImp@@QAEHPBDPAVCPrice@CPeriodObj@@HH@Z DD 00H
	DD	00H
	DD	01H
	DD	01H
	DD	FLAT:__catchsym$?GetPriceInfo@CChartPeriodSummaryAddInImp@@QAEHPBDPAVCPrice@CPeriodObj@@HH@Z$2
__ehfuncinfo$?GetPriceInfo@CChartPeriodSummaryAddInImp@@QAEHPBDPAVCPrice@CPeriodObj@@HH@Z DD 019930522H
	DD	02H
	DD	FLAT:__unwindtable$?GetPriceInfo@CChartPeriodSummaryAddInImp@@QAEHPBDPAVCPrice@CPeriodObj@@HH@Z
	DD	01H
	DD	FLAT:__tryblocktable$?GetPriceInfo@CChartPeriodSummaryAddInImp@@QAEHPBDPAVCPrice@CPeriodObj@@HH@Z
	DD	2 DUP(00H)
	DD	00H
	DD	01H
xdata$x	ENDS
;	COMDAT xdata$x
xdata$x	SEGMENT
__unwindtable$?OnPSConfig@CChartPeriodSummaryAddInImp@@QAEXPAVCPeriodObj@@@Z DD 0ffffffffH
	DD	FLAT:__unwindfunclet$?OnPSConfig@CChartPeriodSummaryAddInImp@@QAEXPAVCPeriodObj@@@Z$0
__ehfuncinfo$?OnPSConfig@CChartPeriodSummaryAddInImp@@QAEXPAVCPeriodObj@@@Z DD 019930522H
	DD	01H
	DD	FLAT:__unwindtable$?OnPSConfig@CChartPeriodSummaryAddInImp@@QAEXPAVCPeriodObj@@@Z
	DD	2 DUP(00H)
	DD	2 DUP(00H)
	DD	00H
	DD	01H
xdata$x	ENDS
;	COMDAT xdata$x
xdata$x	SEGMENT
__catchsym$?GetDateType@CChartPeriodSummaryAddInImp@@QAEHPAVCPeriodObj@@@Z$5 DD 00H
	DD	FLAT:??_R0PAVCChartPeriodSummaryAddInImp@@@8
	DD	00H
	DD	FLAT:__catch$?GetDateType@CChartPeriodSummaryAddInImp@@QAEHPAVCPeriodObj@@@Z$0
__tryblocktable$?GetDateType@CChartPeriodSummaryAddInImp@@QAEHPAVCPeriodObj@@@Z DD 00H
	DD	03H
	DD	04H
	DD	01H
	DD	FLAT:__catchsym$?GetDateType@CChartPeriodSummaryAddInImp@@QAEHPAVCPeriodObj@@@Z$5
__ehfuncinfo$?GetDateType@CChartPeriodSummaryAddInImp@@QAEHPAVCPeriodObj@@@Z DD 019930522H
	DD	05H
	DD	FLAT:__unwindtable$?GetDateType@CChartPeriodSummaryAddInImp@@QAEHPAVCPeriodObj@@@Z
	DD	01H
	DD	FLAT:__tryblocktable$?GetDateType@CChartPeriodSummaryAddInImp@@QAEHPAVCPeriodObj@@@Z
	DD	2 DUP(00H)
	DD	00H
	DD	01H
__unwindtable$?GetDateType@CChartPeriodSummaryAddInImp@@QAEHPAVCPeriodObj@@@Z DD 0ffffffffH
	DD	00H
	DD	00H
	DD	FLAT:__unwindfunclet$?GetDateType@CChartPeriodSummaryAddInImp@@QAEHPAVCPeriodObj@@@Z$2
	DD	01H
	DD	FLAT:__unwindfunclet$?GetDateType@CChartPeriodSummaryAddInImp@@QAEHPAVCPeriodObj@@@Z$3
	DD	00H
	DD	FLAT:___std_terminate
	DD	0ffffffffH
	DD	00H
xdata$x	ENDS
;	COMDAT xdata$x
xdata$x	SEGMENT
__catchsym$?IsValidIndex@CChartPeriodSummaryAddInImp@@QAEHPBDH@Z$2 DD 00H
	DD	FLAT:??_R0PAVCChartPeriodSummaryAddInImp@@@8
	DD	00H
	DD	FLAT:__catch$?IsValidIndex@CChartPeriodSummaryAddInImp@@QAEHPBDH@Z$0
__unwindtable$?IsValidIndex@CChartPeriodSummaryAddInImp@@QAEHPBDH@Z DD 0ffffffffH
	DD	00H
	DD	0ffffffffH
	DD	00H
__tryblocktable$?IsValidIndex@CChartPeriodSummaryAddInImp@@QAEHPBDH@Z DD 00H
	DD	00H
	DD	01H
	DD	01H
	DD	FLAT:__catchsym$?IsValidIndex@CChartPeriodSummaryAddInImp@@QAEHPBDH@Z$2
__ehfuncinfo$?IsValidIndex@CChartPeriodSummaryAddInImp@@QAEHPBDH@Z DD 019930522H
	DD	02H
	DD	FLAT:__unwindtable$?IsValidIndex@CChartPeriodSummaryAddInImp@@QAEHPBDH@Z
	DD	01H
	DD	FLAT:__tryblocktable$?IsValidIndex@CChartPeriodSummaryAddInImp@@QAEHPBDH@Z
	DD	2 DUP(00H)
	DD	00H
	DD	01H
xdata$x	ENDS
;	COMDAT xdata$x
xdata$x	SEGMENT
__ehfuncinfo$??1ILPCSTR133691@@QAE@XZ DD 019930522H
	DD	00H
	DD	00H
	DD	2 DUP(00H)
	DD	2 DUP(00H)
	DD	00H
	DD	05H
xdata$x	ENDS
;	COMDAT xdata$x
xdata$x	SEGMENT
__unwindtable$??_GCMenu@@UAEPAXI@Z DD 0ffffffffH
	DD	FLAT:___std_terminate
__ehfuncinfo$??_GCMenu@@UAEPAXI@Z DD 019930522H
	DD	01H
	DD	FLAT:__unwindtable$??_GCMenu@@UAEPAXI@Z
	DD	2 DUP(00H)
	DD	2 DUP(00H)
	DD	00H
	DD	05H
xdata$x	ENDS
;	COMDAT xdata$x
xdata$x	SEGMENT
__ehfuncinfo$??1CMenu@@UAE@XZ DD 019930522H
	DD	00H
	DD	00H
	DD	2 DUP(00H)
	DD	2 DUP(00H)
	DD	00H
	DD	05H
xdata$x	ENDS
;	COMDAT xdata$x
xdata$x	SEGMENT
__catchsym$??1CGdiObject@@UAE@XZ$3 DD 00H
	DD	FLAT:??_R0PAVCException@@@8
	DD	0fffffde4H
	DD	FLAT:__catch$??1CGdiObject@@UAE@XZ$0
__tryblocktable$??1CGdiObject@@UAE@XZ DD 00H
	DD	00H
	DD	02H
	DD	01H
	DD	FLAT:__catchsym$??1CGdiObject@@UAE@XZ$3
__unwindtable$??1CGdiObject@@UAE@XZ DD 0ffffffffH
	DD	00H
	DD	0ffffffffH
	DD	00H
	DD	01H
	DD	FLAT:__unwindfunclet$??1CGdiObject@@UAE@XZ$2
__ehfuncinfo$??1CGdiObject@@UAE@XZ DD 019930522H
	DD	03H
	DD	FLAT:__unwindtable$??1CGdiObject@@UAE@XZ
	DD	01H
	DD	FLAT:__tryblocktable$??1CGdiObject@@UAE@XZ
	DD	2 DUP(00H)
	DD	00H
	DD	05H
xdata$x	ENDS
CRT$XCU	SEGMENT
??m_strAddInItemName$initializer$@CChartPeriodSummaryAddInImp@@2P6AXXZA@@3P6AXXZA DD FLAT:??__E?m_strAddInItemName@CChartPeriodSummaryAddInImp@@2V?$CStringT@DV?$StrTraitMFC_DLL@DV?$ChTraitsCRT@D@ATL@@@@@ATL@@A@@YAXXZ ; ??m_strAddInItemName$initializer$@CChartPeriodSummaryAddInImp@@2P6AXXZA@@3P6AXXZA
CRT$XCU	ENDS
; Function compile flags: /Odsp
;	COMDAT ??_ECChartPeriodSummaryAddInImp@@W7AEPAXI@Z
_TEXT	SEGMENT
??_ECChartPeriodSummaryAddInImp@@W7AEPAXI@Z PROC	; [thunk]:CChartPeriodSummaryAddInImp::`vector deleting destructor', COMDAT
  00000	83 e9 08	 sub	 ecx, 8
  00003	e9 00 00 00 00	 jmp	 ??_ECChartPeriodSummaryAddInImp@@UAEPAXI@Z
??_ECChartPeriodSummaryAddInImp@@W7AEPAXI@Z ENDP	; [thunk]:CChartPeriodSummaryAddInImp::`vector deleting destructor'
_TEXT	ENDS
; Function compile flags: /Odsp
;	COMDAT ?Release@CChartAddInBase133691@@O7AGKXZ
_TEXT	SEGMENT
?Release@CChartAddInBase133691@@O7AGKXZ PROC		; [thunk]:CChartAddInBase133691::Release`adjustor{8}', COMDAT
  00000	83 6c 24 04 08	 sub	 DWORD PTR [esp+4], 8
  00005	e9 00 00 00 00	 jmp	 ?Release@CChartAddInBase133691@@MAGKXZ ; CChartAddInBase133691::Release
?Release@CChartAddInBase133691@@O7AGKXZ ENDP		; [thunk]:CChartAddInBase133691::Release`adjustor{8}'
_TEXT	ENDS
; Function compile flags: /Odsp
;	COMDAT ?AddRef@CChartAddInBase133691@@O7AGKXZ
_TEXT	SEGMENT
?AddRef@CChartAddInBase133691@@O7AGKXZ PROC		; [thunk]:CChartAddInBase133691::AddRef`adjustor{8}', COMDAT
  00000	83 6c 24 04 08	 sub	 DWORD PTR [esp+4], 8
  00005	e9 00 00 00 00	 jmp	 ?AddRef@CChartAddInBase133691@@MAGKXZ ; CChartAddInBase133691::AddRef
?AddRef@CChartAddInBase133691@@O7AGKXZ ENDP		; [thunk]:CChartAddInBase133691::AddRef`adjustor{8}'
_TEXT	ENDS
; Function compile flags: /Odsp
;	COMDAT ?QueryInterface@CChartAddInBase133691@@O7AGJABU_GUID@@PAPAX@Z
_TEXT	SEGMENT
?QueryInterface@CChartAddInBase133691@@O7AGJABU_GUID@@PAPAX@Z PROC ; [thunk]:CChartAddInBase133691::QueryInterface`adjustor{8}', COMDAT
  00000	83 6c 24 04 08	 sub	 DWORD PTR [esp+4], 8
  00005	e9 00 00 00 00	 jmp	 ?QueryInterface@CChartAddInBase133691@@MAGJABU_GUID@@PAPAX@Z ; CChartAddInBase133691::QueryInterface
?QueryInterface@CChartAddInBase133691@@O7AGJABU_GUID@@PAPAX@Z ENDP ; [thunk]:CChartAddInBase133691::QueryInterface`adjustor{8}'
_TEXT	ENDS
; Function compile flags: /Ogtp
;	COMDAT ??__F?m_strAddInItemName@CChartPeriodSummaryAddInImp@@2V?$CStringT@DV?$StrTraitMFC_DLL@DV?$ChTraitsCRT@D@ATL@@@@@ATL@@A@@YAXXZ
text$yd	SEGMENT
??__F?m_strAddInItemName@CChartPeriodSummaryAddInImp@@2V?$CStringT@DV?$StrTraitMFC_DLL@DV?$ChTraitsCRT@D@ATL@@@@@ATL@@A@@YAXXZ PROC ; `dynamic atexit destructor for 'CChartPeriodSummaryAddInImp::m_strAddInItemName'', COMDAT
  00000	b9 00 00 00 00	 mov	 ecx, OFFSET ?m_strAddInItemName@CChartPeriodSummaryAddInImp@@2V?$CStringT@DV?$StrTraitMFC_DLL@DV?$ChTraitsCRT@D@ATL@@@@@ATL@@A ; CChartPeriodSummaryAddInImp::m_strAddInItemName
  00005	ff 25 00 00 00
	00		 jmp	 DWORD PTR __imp_??1?$CStringT@DV?$StrTraitMFC_DLL@DV?$ChTraitsCRT@D@ATL@@@@@ATL@@QAE@XZ
??__F?m_strAddInItemName@CChartPeriodSummaryAddInImp@@2V?$CStringT@DV?$StrTraitMFC_DLL@DV?$ChTraitsCRT@D@ATL@@@@@ATL@@A@@YAXXZ ENDP ; `dynamic atexit destructor for 'CChartPeriodSummaryAddInImp::m_strAddInItemName''
text$yd	ENDS
; Function compile flags: /Ogtp
; File D:\git\src\IBK\IBK_DRFN\ProjSrc\SrcChartEx\ChartAddIn\ChartPeriodSummaryAddIn\ChartPeriodSummaryAddInImp.cpp
;	COMDAT ??__E?m_strAddInItemName@CChartPeriodSummaryAddInImp@@2V?$CStringT@DV?$StrTraitMFC_DLL@DV?$ChTraitsCRT@D@ATL@@@@@ATL@@A@@YAXXZ
text$di	SEGMENT
??__E?m_strAddInItemName@CChartPeriodSummaryAddInImp@@2V?$CStringT@DV?$StrTraitMFC_DLL@DV?$ChTraitsCRT@D@ATL@@@@@ATL@@A@@YAXXZ PROC ; `dynamic initializer for 'CChartPeriodSummaryAddInImp::m_strAddInItemName'', COMDAT

; 59   : CString CChartPeriodSummaryAddInImp::m_strAddInItemName = "PERIOD_SUMMARY";

  00000	68 00 00 00 00	 push	 OFFSET ??_C@_0P@EGLBNOFN@PERIOD_SUMMARY@
  00005	b9 00 00 00 00	 mov	 ecx, OFFSET ?m_strAddInItemName@CChartPeriodSummaryAddInImp@@2V?$CStringT@DV?$StrTraitMFC_DLL@DV?$ChTraitsCRT@D@ATL@@@@@ATL@@A ; CChartPeriodSummaryAddInImp::m_strAddInItemName
  0000a	ff 15 00 00 00
	00		 call	 DWORD PTR __imp_??0?$CStringT@DV?$StrTraitMFC_DLL@DV?$ChTraitsCRT@D@ATL@@@@@ATL@@QAE@PBD@Z
  00010	68 00 00 00 00	 push	 OFFSET ??__F?m_strAddInItemName@CChartPeriodSummaryAddInImp@@2V?$CStringT@DV?$StrTraitMFC_DLL@DV?$ChTraitsCRT@D@ATL@@@@@ATL@@A@@YAXXZ ; `dynamic atexit destructor for 'CChartPeriodSummaryAddInImp::m_strAddInItemName''
  00015	e8 00 00 00 00	 call	 _atexit
  0001a	59		 pop	 ecx
  0001b	c3		 ret	 0
??__E?m_strAddInItemName@CChartPeriodSummaryAddInImp@@2V?$CStringT@DV?$StrTraitMFC_DLL@DV?$ChTraitsCRT@D@ATL@@@@@ATL@@A@@YAXXZ ENDP ; `dynamic initializer for 'CChartPeriodSummaryAddInImp::m_strAddInItemName''
text$di	ENDS
; Function compile flags: /Ogtp
;	COMDAT ??1CPSConfigDlg@@UAE@XZ
_TEXT	SEGMENT
??1CPSConfigDlg@@UAE@XZ PROC				; CPSConfigDlg::~CPSConfigDlg, COMDAT
; _this$ = ecx
  00000	56		 push	 esi
  00001	8b f1		 mov	 esi, ecx
  00003	8d 8e c0 02 00
	00		 lea	 ecx, DWORD PTR [esi+704]
  00009	e8 00 00 00 00	 call	 ??1CColorButton@@UAE@XZ	; CColorButton::~CColorButton
  0000e	8d 8e 38 02 00
	00		 lea	 ecx, DWORD PTR [esi+568]
  00014	e8 00 00 00 00	 call	 ??1CBitmapItemComboBox@@UAE@XZ ; CBitmapItemComboBox::~CBitmapItemComboBox
  00019	8d 8e b0 01 00
	00		 lea	 ecx, DWORD PTR [esi+432]
  0001f	e8 00 00 00 00	 call	 ??1CBitmapItemComboBox@@UAE@XZ ; CBitmapItemComboBox::~CBitmapItemComboBox
  00024	8d 8e 30 01 00
	00		 lea	 ecx, DWORD PTR [esi+304]
  0002a	e8 00 00 00 00	 call	 ??1CDateTimeCtrl@@UAE@XZ ; CDateTimeCtrl::~CDateTimeCtrl
  0002f	8d 8e b0 00 00
	00		 lea	 ecx, DWORD PTR [esi+176]
  00035	e8 00 00 00 00	 call	 ??1CDateTimeCtrl@@UAE@XZ ; CDateTimeCtrl::~CDateTimeCtrl
  0003a	8b ce		 mov	 ecx, esi
  0003c	5e		 pop	 esi
  0003d	e9 00 00 00 00	 jmp	 ??1CDialog@@UAE@XZ	; CDialog::~CDialog
??1CPSConfigDlg@@UAE@XZ ENDP				; CPSConfigDlg::~CPSConfigDlg
_TEXT	ENDS
; Function compile flags: /Ogtp
; File D:\git\src\IBK\IBK_DRFN\ProjSrc\SrcChartEx\ChartAddIn\ChartPeriodSummaryAddIn\Include_Chart\Dll_Load\IMetaTable.h
; File C:\Program Files (x86)\Microsoft Visual Studio\2019\Community\VC\Tools\MSVC\14.29.30133\atlmfc\include\afxwin1.inl
; File D:\git\src\IBK\IBK_DRFN\ProjSrc\SrcChartEx\ChartAddIn\ChartPeriodSummaryAddIn\Include_Chart\Dll_Load\IMetaTable.h
;	COMDAT ??1CMultiLanguageResourceSetter@@QAE@XZ
_TEXT	SEGMENT
__$EHRec$ = -12						; size = 12
??1CMultiLanguageResourceSetter@@QAE@XZ PROC		; CMultiLanguageResourceSetter::~CMultiLanguageResourceSetter, COMDAT
; _this$ = ecx

; 1036 : 	{

  00000	55		 push	 ebp
  00001	8b ec		 mov	 ebp, esp
  00003	6a ff		 push	 -1
  00005	68 00 00 00 00	 push	 __ehhandler$??1CMultiLanguageResourceSetter@@QAE@XZ
  0000a	64 a1 00 00 00
	00		 mov	 eax, DWORD PTR fs:0
  00010	50		 push	 eax
  00011	56		 push	 esi
  00012	a1 00 00 00 00	 mov	 eax, DWORD PTR ___security_cookie
  00017	33 c5		 xor	 eax, ebp
  00019	50		 push	 eax
  0001a	8d 45 f4	 lea	 eax, DWORD PTR __$EHRec$[ebp]
  0001d	64 a3 00 00 00
	00		 mov	 DWORD PTR fs:0, eax

; 1037 : 		AfxSetResourceHandle( m_hInstance);

  00023	8b 31		 mov	 esi, DWORD PTR [ecx]
; File C:\Program Files (x86)\Microsoft Visual Studio\2019\Community\VC\Tools\MSVC\14.29.30133\atlmfc\include\afxwin1.inl

; 27   : 	{ ASSERT(hInstResource != NULL); afxCurrentResourceHandle = hInstResource; }

  00025	e8 00 00 00 00	 call	 ?AfxGetModuleState@@YGPAVAFX_MODULE_STATE@@XZ ; AfxGetModuleState
  0002a	89 70 0c	 mov	 DWORD PTR [eax+12], esi
; File D:\git\src\IBK\IBK_DRFN\ProjSrc\SrcChartEx\ChartAddIn\ChartPeriodSummaryAddIn\Include_Chart\Dll_Load\IMetaTable.h

; 1038 : 	}

  0002d	8b 4d f4	 mov	 ecx, DWORD PTR __$EHRec$[ebp]
  00030	64 89 0d 00 00
	00 00		 mov	 DWORD PTR fs:0, ecx
  00037	59		 pop	 ecx
  00038	5e		 pop	 esi
  00039	8b e5		 mov	 esp, ebp
  0003b	5d		 pop	 ebp
  0003c	c3		 ret	 0
  0003d	cc		 int	 3
  0003e	cc		 int	 3
  0003f	cc		 int	 3
  00040	cc		 int	 3
  00041	cc		 int	 3
_TEXT	ENDS
;	COMDAT text$x
text$x	SEGMENT
__ehhandler$??1CMultiLanguageResourceSetter@@QAE@XZ:
  00000	90		 npad	 1
  00001	90		 npad	 1
  00002	8b 54 24 08	 mov	 edx, DWORD PTR [esp+8]
  00006	8d 42 0c	 lea	 eax, DWORD PTR [edx+12]
  00009	8b 4a f8	 mov	 ecx, DWORD PTR [edx-8]
  0000c	33 c8		 xor	 ecx, eax
  0000e	e8 00 00 00 00	 call	 @__security_check_cookie@4
  00013	b8 00 00 00 00	 mov	 eax, OFFSET __ehfuncinfo$??1CMultiLanguageResourceSetter@@QAE@XZ
  00018	e9 00 00 00 00	 jmp	 ___CxxFrameHandler3
text$x	ENDS
??1CMultiLanguageResourceSetter@@QAE@XZ ENDP		; CMultiLanguageResourceSetter::~CMultiLanguageResourceSetter
; Function compile flags: /Ogtp
; File D:\git\src\IBK\IBK_DRFN\ProjSrc\SrcChartEx\ChartAddIn\ChartPeriodSummaryAddIn\Include_Chart\Dll_Load\IMetaTable.h
;	COMDAT ?LoadResourceDLL@IMetaTable@@QAEPAUHINSTANCE__@@PAUHWND__@@PAU2@@Z
_TEXT	SEGMENT
_p1$ = 8						; size = 4
_p2$ = 12						; size = 4
?LoadResourceDLL@IMetaTable@@QAEPAUHINSTANCE__@@PAUHWND__@@PAU2@@Z PROC ; IMetaTable::LoadResourceDLL, COMDAT
; _this$ = ecx

; 936  : 	DECLARE_FUNCTION2(	LoadResourceDLL,				HMODULE, AfxGetStaticModuleState()->m_hCurrentInstanceHandle, HWND, HMODULE);

  00000	55		 push	 ebp
  00001	8b ec		 mov	 ebp, esp
  00003	56		 push	 esi
  00004	8b f1		 mov	 esi, ecx
  00006	8b 46 04	 mov	 eax, DWORD PTR [esi+4]
  00009	85 c0		 test	 eax, eax
  0000b	74 4d		 je	 SHORT $LN4@LoadResour
  0000d	57		 push	 edi
  0000e	bf 80 0d 00 00	 mov	 edi, 3456		; 00000d80H
  00013	66 3b be 94 00
	00 00		 cmp	 di, WORD PTR [esi+148]
  0001a	74 23		 je	 SHORT $LN3@LoadResour
  0001c	68 00 00 00 00	 push	 OFFSET ??_C@_0BA@ENJOCHIO@LoadResourceDLL@
  00021	50		 push	 eax
  00022	c7 86 90 00 00
	00 00 00 00 00	 mov	 DWORD PTR [esi+144], 0
  0002c	ff 15 00 00 00
	00		 call	 DWORD PTR __imp__GetProcAddress@8
  00032	89 86 90 00 00
	00		 mov	 DWORD PTR [esi+144], eax
  00038	66 89 be 94 00
	00 00		 mov	 WORD PTR [esi+148], di
$LN3@LoadResour:
  0003f	8b 86 90 00 00
	00		 mov	 eax, DWORD PTR [esi+144]
  00045	5f		 pop	 edi
  00046	85 c0		 test	 eax, eax
  00048	74 10		 je	 SHORT $LN4@LoadResour
  0004a	ff 75 0c	 push	 DWORD PTR _p2$[ebp]
  0004d	ff 75 08	 push	 DWORD PTR _p1$[ebp]
  00050	ff d0		 call	 eax
  00052	83 c4 08	 add	 esp, 8
  00055	5e		 pop	 esi
  00056	5d		 pop	 ebp
  00057	c2 08 00	 ret	 8
$LN4@LoadResour:
  0005a	e8 00 00 00 00	 call	 ?AfxGetStaticModuleState@@YGPAVAFX_MODULE_STATE@@XZ ; AfxGetStaticModuleState
  0005f	5e		 pop	 esi
  00060	8b 40 08	 mov	 eax, DWORD PTR [eax+8]
  00063	5d		 pop	 ebp
  00064	c2 08 00	 ret	 8
?LoadResourceDLL@IMetaTable@@QAEPAUHINSTANCE__@@PAUHWND__@@PAU2@@Z ENDP ; IMetaTable::LoadResourceDLL
_TEXT	ENDS
; Function compile flags: /Ogtp
; File D:\git\src\IBK\IBK_DRFN\ProjSrc\SrcChartEx\ChartAddIn\ChartPeriodSummaryAddIn\Include_Chart\MessageDefine.h
;	COMDAT ??__ERMS_ANALYSIS_FUNC@@YAXXZ
text$di	SEGMENT
??__ERMS_ANALYSIS_FUNC@@YAXXZ PROC			; `dynamic initializer for 'RMS_ANALYSIS_FUNC'', COMDAT

; 5    : const UINT RMS_ANALYSIS_FUNC = ::RegisterWindowMessage(_T("RMS_ANALYSIS_FUNC"));

  00000	68 00 00 00 00	 push	 OFFSET ??_C@_0BC@MMPGLPDH@RMS_ANALYSIS_FUNC@
  00005	ff 15 00 00 00
	00		 call	 DWORD PTR __imp__RegisterWindowMessageA@4
  0000b	a3 00 00 00 00	 mov	 DWORD PTR ?RMS_ANALYSIS_FUNC@@3IB, eax
  00010	c3		 ret	 0
??__ERMS_ANALYSIS_FUNC@@YAXXZ ENDP			; `dynamic initializer for 'RMS_ANALYSIS_FUNC''
text$di	ENDS
; Function compile flags: /Ogtp
; File D:\git\src\IBK\IBK_DRFN\ProjSrc\SrcChartEx\ChartAddIn\ChartPeriodSummaryAddIn\ChartPeriodSummaryAddInImp.cpp
; File C:\Program Files (x86)\Microsoft Visual Studio\2019\Community\VC\Tools\MSVC\14.29.30133\atlmfc\include\afxcoll.inl
; File D:\git\src\IBK\IBK_DRFN\ProjSrc\SrcChartEx\ChartAddIn\ChartPeriodSummaryAddIn\ChartPeriodSummaryAddInImp.cpp
; File C:\Program Files (x86)\Microsoft Visual Studio\2019\Community\VC\Tools\MSVC\14.29.30133\atlmfc\include\afx.inl
;	COMDAT ??_GCChartPeriodSummaryAddInImp@@UAEPAXI@Z
_TEXT	SEGMENT
__$EHRec$ = -12						; size = 12
___flags$ = 8						; size = 4
??_GCChartPeriodSummaryAddInImp@@UAEPAXI@Z PROC		; CChartPeriodSummaryAddInImp::`scalar deleting destructor', COMDAT
; _this$ = ecx
  00000	55		 push	 ebp
  00001	8b ec		 mov	 ebp, esp
  00003	6a ff		 push	 -1
  00005	68 00 00 00 00	 push	 __ehhandler$??_GCChartPeriodSummaryAddInImp@@UAEPAXI@Z
  0000a	64 a1 00 00 00
	00		 mov	 eax, DWORD PTR fs:0
  00010	50		 push	 eax
  00011	56		 push	 esi
  00012	57		 push	 edi
  00013	a1 00 00 00 00	 mov	 eax, DWORD PTR ___security_cookie
  00018	33 c5		 xor	 eax, ebp
  0001a	50		 push	 eax
  0001b	8d 45 f4	 lea	 eax, DWORD PTR __$EHRec$[ebp]
  0001e	64 a3 00 00 00
	00		 mov	 DWORD PTR fs:0, eax
  00024	8b f9		 mov	 edi, ecx
; File D:\git\src\IBK\IBK_DRFN\ProjSrc\SrcChartEx\ChartAddIn\ChartPeriodSummaryAddIn\ChartPeriodSummaryAddInImp.cpp

; 47   : 	POSITION pos = m_LineList.GetHeadPosition();

  00026	8b b7 90 00 00
	00		 mov	 esi, DWORD PTR [edi+144]
  0002c	c7 45 fc 00 00
	00 00		 mov	 DWORD PTR __$EHRec$[ebp+8], 0
  00033	c7 07 00 00 00
	00		 mov	 DWORD PTR [edi], OFFSET ??_7CChartPeriodSummaryAddInImp@@6BCIWUnknown@@@
  00039	c7 47 08 00 00
	00 00		 mov	 DWORD PTR [edi+8], OFFSET ??_7CChartPeriodSummaryAddInImp@@6BIChartAddIn133691@@@

; 48   : 	while (pos)

  00040	85 f6		 test	 esi, esi
  00042	74 14		 je	 SHORT $LN9@scalar
$LL8@scalar:

; 51   : 		delete pLine;

  00044	8b 4e 08	 mov	 ecx, DWORD PTR [esi+8]
; File C:\Program Files (x86)\Microsoft Visual Studio\2019\Community\VC\Tools\MSVC\14.29.30133\atlmfc\include\afxcoll.inl

; 432  : 		rPosition = (POSITION) pNode->pNext;

  00047	8b 36		 mov	 esi, DWORD PTR [esi]
; File D:\git\src\IBK\IBK_DRFN\ProjSrc\SrcChartEx\ChartAddIn\ChartPeriodSummaryAddIn\ChartPeriodSummaryAddInImp.cpp

; 51   : 		delete pLine;

  00049	85 c9		 test	 ecx, ecx
  0004b	74 07		 je	 SHORT $LN11@scalar
  0004d	8b 01		 mov	 eax, DWORD PTR [ecx]
  0004f	6a 01		 push	 1
  00051	ff 50 04	 call	 DWORD PTR [eax+4]
$LN11@scalar:

; 48   : 	while (pos)

  00054	85 f6		 test	 esi, esi
  00056	75 ec		 jne	 SHORT $LL8@scalar
$LN9@scalar:

; 52   : 		pLine = NULL;
; 53   : 	}
; 54   : 	m_LineList.RemoveAll();

  00058	8d 8f 8c 00 00
	00		 lea	 ecx, DWORD PTR [edi+140]
  0005e	e8 00 00 00 00	 call	 ?RemoveAll@CObList@@QAEXXZ ; CObList::RemoveAll

; 55   : //	delete m_pBmp;
; 56   : }

  00063	8d 8f dc 00 00
	00		 lea	 ecx, DWORD PTR [edi+220]
  00069	ff 15 00 00 00
	00		 call	 DWORD PTR __imp_??1?$CStringT@DV?$StrTraitMFC_DLL@DV?$ChTraitsCRT@D@ATL@@@@@ATL@@QAE@XZ
  0006f	8d 8f d8 00 00
	00		 lea	 ecx, DWORD PTR [edi+216]
  00075	ff 15 00 00 00
	00		 call	 DWORD PTR __imp_??1?$CStringT@DV?$StrTraitMFC_DLL@DV?$ChTraitsCRT@D@ATL@@@@@ATL@@QAE@XZ
  0007b	8d 8f 8c 00 00
	00		 lea	 ecx, DWORD PTR [edi+140]
  00081	e8 00 00 00 00	 call	 ??1CObList@@UAE@XZ	; CObList::~CObList
  00086	8d 4f 40	 lea	 ecx, DWORD PTR [edi+64]
  00089	ff 15 00 00 00
	00		 call	 DWORD PTR __imp_??1?$CStringT@DV?$StrTraitMFC_DLL@DV?$ChTraitsCRT@D@ATL@@@@@ATL@@QAE@XZ
  0008f	8b cf		 mov	 ecx, edi
  00091	e8 00 00 00 00	 call	 ??1CChartAddInBase133691@@MAE@XZ ; CChartAddInBase133691::~CChartAddInBase133691
  00096	8b 45 08	 mov	 eax, DWORD PTR ___flags$[ebp]
  00099	a8 01		 test	 al, 1
  0009b	74 1d		 je	 SHORT $LN26@scalar
  0009d	a8 04		 test	 al, 4
  0009f	75 0b		 jne	 SHORT $LN3@scalar
; File C:\Program Files (x86)\Microsoft Visual Studio\2019\Community\VC\Tools\MSVC\14.29.30133\atlmfc\include\afx.inl

; 112  : 	{ ::operator delete(p); }

  000a1	57		 push	 edi
  000a2	e8 00 00 00 00	 call	 ??3@YAXPAX@Z		; operator delete
  000a7	83 c4 04	 add	 esp, 4
  000aa	eb 0e		 jmp	 SHORT $LN26@scalar
$LN3@scalar:
  000ac	68 e0 00 00 00	 push	 224			; 000000e0H
  000b1	57		 push	 edi
  000b2	e8 00 00 00 00	 call	 ?__global_delete@@YAXPAXI@Z ; __global_delete
  000b7	83 c4 08	 add	 esp, 8
$LN26@scalar:
  000ba	8b c7		 mov	 eax, edi
  000bc	8b 4d f4	 mov	 ecx, DWORD PTR __$EHRec$[ebp]
  000bf	64 89 0d 00 00
	00 00		 mov	 DWORD PTR fs:0, ecx
  000c6	59		 pop	 ecx
  000c7	5f		 pop	 edi
  000c8	5e		 pop	 esi
  000c9	8b e5		 mov	 esp, ebp
  000cb	5d		 pop	 ebp
  000cc	c2 04 00	 ret	 4
  000cf	cc		 int	 3
  000d0	cc		 int	 3
  000d1	cc		 int	 3
  000d2	cc		 int	 3
  000d3	cc		 int	 3
_TEXT	ENDS
;	COMDAT text$x
text$x	SEGMENT
__ehhandler$??_GCChartPeriodSummaryAddInImp@@UAEPAXI@Z:
  00000	90		 npad	 1
  00001	90		 npad	 1
  00002	8b 54 24 08	 mov	 edx, DWORD PTR [esp+8]
  00006	8d 42 0c	 lea	 eax, DWORD PTR [edx+12]
  00009	8b 4a f4	 mov	 ecx, DWORD PTR [edx-12]
  0000c	33 c8		 xor	 ecx, eax
  0000e	e8 00 00 00 00	 call	 @__security_check_cookie@4
  00013	b8 00 00 00 00	 mov	 eax, OFFSET __ehfuncinfo$??_GCChartPeriodSummaryAddInImp@@UAEPAXI@Z
  00018	e9 00 00 00 00	 jmp	 ___CxxFrameHandler3
text$x	ENDS
??_GCChartPeriodSummaryAddInImp@@UAEPAXI@Z ENDP		; CChartPeriodSummaryAddInImp::`scalar deleting destructor'
; Function compile flags: /Ogtp
; File D:\git\src\IBK\IBK_DRFN\ProjSrc\SrcChartEx\ChartAddIn\ChartPeriodSummaryAddIn\ChartPeriodSummaryAddInImp.cpp
; File C:\Program Files (x86)\Microsoft Visual Studio\2019\Community\VC\Tools\MSVC\14.29.30133\atlmfc\include\afxwin1.inl
; File D:\git\src\IBK\IBK_DRFN\ProjSrc\SrcChartEx\ChartAddIn\ChartPeriodSummaryAddIn\Include_Chart\Dll_Load\IMetaTable.h
; File C:\Program Files (x86)\Microsoft Visual Studio\2019\Community\VC\Tools\MSVC\14.29.30133\atlmfc\include\afxwin1.inl
; File D:\git\src\IBK\IBK_DRFN\ProjSrc\SrcChartEx\ChartAddIn\ChartPeriodSummaryAddIn\ChartPeriodSummaryAddInImp.cpp
; File C:\Program Files (x86)\Microsoft Visual Studio\2019\Community\VC\Tools\MSVC\14.29.30133\atlmfc\include\atltypes.h
; File C:\Program Files (x86)\Microsoft Visual Studio\2019\Community\VC\Tools\MSVC\14.29.30133\atlmfc\include\afxwin1.inl
; File C:\Program Files (x86)\Microsoft Visual Studio\2019\Community\VC\Tools\MSVC\14.29.30133\atlmfc\include\atltypes.h
; File C:\Program Files (x86)\Microsoft Visual Studio\2019\Community\VC\Tools\MSVC\14.29.30133\atlmfc\include\afxwin1.inl
; File D:\git\src\IBK\IBK_DRFN\ProjSrc\SrcChartEx\ChartAddIn\ChartPeriodSummaryAddIn\ChartPeriodSummaryAddInImp.cpp
; File C:\Program Files (x86)\Microsoft Visual Studio\2019\Community\VC\Tools\MSVC\14.29.30133\atlmfc\include\afxwin1.inl
; File D:\git\src\IBK\IBK_DRFN\ProjSrc\SrcChartEx\ChartAddIn\ChartPeriodSummaryAddIn\ChartPeriodSummaryAddInImp.cpp
; File C:\Program Files (x86)\Microsoft Visual Studio\2019\Community\VC\Tools\MSVC\14.29.30133\atlmfc\include\afxcoll.inl
; File D:\git\src\IBK\IBK_DRFN\ProjSrc\SrcChartEx\ChartAddIn\ChartPeriodSummaryAddIn\ChartPeriodSummaryAddInImp.cpp
; File C:\Program Files (x86)\Microsoft Visual Studio\2019\Community\VC\Tools\MSVC\14.29.30133\atlmfc\include\afxwin1.inl
; File D:\git\src\IBK\IBK_DRFN\ProjSrc\SrcChartEx\ChartAddIn\ChartPeriodSummaryAddIn\Include_Chart\Dll_Load\IMetaTable.h
; File C:\Program Files (x86)\Microsoft Visual Studio\2019\Community\VC\Tools\MSVC\14.29.30133\atlmfc\include\afxwin1.inl
; File D:\git\src\IBK\IBK_DRFN\ProjSrc\SrcChartEx\ChartAddIn\ChartPeriodSummaryAddIn\ChartPeriodSummaryAddInImp.cpp
;	COMDAT ?OnRButtonUp@CChartPeriodSummaryAddInImp@@MAEHPAUHDC__@@IAAUtagPOINT@@K@Z
_TEXT	SEGMENT
_menu$ = -36						; size = 8
_clPoint$ = -28						; size = 8
___mlrs__$ = -20					; size = 4
_pLine$1$ = -16						; size = 4
__$EHRec$ = -12						; size = 12
_p_hDC$ = 8						; size = 4
_nFlags$ = 12						; size = 4
_tmpPos$1$ = 16						; size = 4
_point$ = 16						; size = 4
_p_dwMouseActionID$ = 20				; size = 4
?OnRButtonUp@CChartPeriodSummaryAddInImp@@MAEHPAUHDC__@@IAAUtagPOINT@@K@Z PROC ; CChartPeriodSummaryAddInImp::OnRButtonUp, COMDAT
; _this$ = ecx

; 573  : {

  00000	55		 push	 ebp
  00001	8b ec		 mov	 ebp, esp
  00003	6a ff		 push	 -1
  00005	68 00 00 00 00	 push	 __ehhandler$?OnRButtonUp@CChartPeriodSummaryAddInImp@@MAEHPAUHDC__@@IAAUtagPOINT@@K@Z
  0000a	64 a1 00 00 00
	00		 mov	 eax, DWORD PTR fs:0
  00010	50		 push	 eax
  00011	83 ec 18	 sub	 esp, 24			; 00000018H
  00014	53		 push	 ebx
  00015	56		 push	 esi
  00016	57		 push	 edi
  00017	a1 00 00 00 00	 mov	 eax, DWORD PTR ___security_cookie
  0001c	33 c5		 xor	 eax, ebp
  0001e	50		 push	 eax
  0001f	8d 45 f4	 lea	 eax, DWORD PTR __$EHRec$[ebp]
  00022	64 a3 00 00 00
	00		 mov	 DWORD PTR fs:0, eax
  00028	8b d9		 mov	 ebx, ecx

; 574  : 	ML_SET_LANGUAGE_RES();

  0002a	e8 00 00 00 00	 call	 ?AfxGetStaticModuleState@@YGPAVAFX_MODULE_STATE@@XZ ; AfxGetStaticModuleState
  0002f	b9 00 00 00 00	 mov	 ecx, OFFSET ?g_iMetaTable@@3VIMetaTable@@A ; g_iMetaTable
  00034	8b 40 08	 mov	 eax, DWORD PTR [eax+8]
  00037	50		 push	 eax
  00038	ff 73 0c	 push	 DWORD PTR [ebx+12]
  0003b	e8 00 00 00 00	 call	 ?LoadResourceDLL@IMetaTable@@QAEPAUHINSTANCE__@@PAUHWND__@@PAU2@@Z ; IMetaTable::LoadResourceDLL
  00040	8b f8		 mov	 edi, eax
; File C:\Program Files (x86)\Microsoft Visual Studio\2019\Community\VC\Tools\MSVC\14.29.30133\atlmfc\include\afxwin1.inl

; 25   : 		return afxCurrentResourceHandle; }

  00042	e8 00 00 00 00	 call	 ?AfxGetModuleState@@YGPAVAFX_MODULE_STATE@@XZ ; AfxGetModuleState
; File D:\git\src\IBK\IBK_DRFN\ProjSrc\SrcChartEx\ChartAddIn\ChartPeriodSummaryAddIn\Include_Chart\Dll_Load\IMetaTable.h

; 1032 : 		m_hInstance = AfxGetResourceHandle();

  00047	8b 70 0c	 mov	 esi, DWORD PTR [eax+12]
  0004a	89 75 ec	 mov	 DWORD PTR ___mlrs__$[ebp], esi
; File C:\Program Files (x86)\Microsoft Visual Studio\2019\Community\VC\Tools\MSVC\14.29.30133\atlmfc\include\afxwin1.inl

; 27   : 	{ ASSERT(hInstResource != NULL); afxCurrentResourceHandle = hInstResource; }

  0004d	e8 00 00 00 00	 call	 ?AfxGetModuleState@@YGPAVAFX_MODULE_STATE@@XZ ; AfxGetModuleState
  00052	89 78 0c	 mov	 DWORD PTR [eax+12], edi
; File D:\git\src\IBK\IBK_DRFN\ProjSrc\SrcChartEx\ChartAddIn\ChartPeriodSummaryAddIn\ChartPeriodSummaryAddInImp.cpp

; 575  : 	if(!m_nCommandType) return FALSE;

  00055	83 7b 68 00	 cmp	 DWORD PTR [ebx+104], 0
  00059	c7 45 fc 00 00
	00 00		 mov	 DWORD PTR __$EHRec$[ebp+8], 0
  00060	75 07		 jne	 SHORT $LN6@OnRButtonU
  00062	33 ff		 xor	 edi, edi
  00064	e9 1c 01 00 00	 jmp	 $LN65@OnRButtonU
$LN6@OnRButtonU:
; File C:\Program Files (x86)\Microsoft Visual Studio\2019\Community\VC\Tools\MSVC\14.29.30133\atlmfc\include\atltypes.h

; 414  : 	*(POINT*)this = initPt;

  00069	8b 45 10	 mov	 eax, DWORD PTR _point$[ebp]
; File C:\Program Files (x86)\Microsoft Visual Studio\2019\Community\VC\Tools\MSVC\14.29.30133\atlmfc\include\afxwin1.inl

; 903  : 	{ m_hMenu = NULL; }

  0006c	c7 45 dc 00 00
	00 00		 mov	 DWORD PTR _menu$[ebp], OFFSET ??_7CMenu@@6B@
  00073	c7 45 e0 00 00
	00 00		 mov	 DWORD PTR _menu$[ebp+4], 0
; File C:\Program Files (x86)\Microsoft Visual Studio\2019\Community\VC\Tools\MSVC\14.29.30133\atlmfc\include\atltypes.h

; 414  : 	*(POINT*)this = initPt;

  0007a	8b 08		 mov	 ecx, DWORD PTR [eax]
  0007c	8b 40 04	 mov	 eax, DWORD PTR [eax+4]
  0007f	89 4d e4	 mov	 DWORD PTR _clPoint$[ebp], ecx
  00082	89 45 e8	 mov	 DWORD PTR _clPoint$[ebp+4], eax
; File C:\Program Files (x86)\Microsoft Visual Studio\2019\Community\VC\Tools\MSVC\14.29.30133\atlmfc\include\afxwin1.inl

; 977  : 	{ return Attach(::LoadMenuW(AfxFindResourceHandle(

  00085	68 d1 07 00 00	 push	 2001			; 000007d1H
  0008a	6a 04		 push	 4
  0008c	68 d1 07 00 00	 push	 2001			; 000007d1H
; File D:\git\src\IBK\IBK_DRFN\ProjSrc\SrcChartEx\ChartAddIn\ChartPeriodSummaryAddIn\ChartPeriodSummaryAddInImp.cpp

; 582  : 		CMenu menu;

  00091	c6 45 fc 02	 mov	 BYTE PTR __$EHRec$[ebp+8], 2
; File C:\Program Files (x86)\Microsoft Visual Studio\2019\Community\VC\Tools\MSVC\14.29.30133\atlmfc\include\afxwin1.inl

; 977  : 	{ return Attach(::LoadMenuW(AfxFindResourceHandle(

  00095	e8 00 00 00 00	 call	 ?AfxFindResourceHandle@@YGPAUHINSTANCE__@@PBD0@Z ; AfxFindResourceHandle
  0009a	50		 push	 eax
  0009b	ff 15 00 00 00
	00		 call	 DWORD PTR __imp__LoadMenuW@8
  000a1	50		 push	 eax
  000a2	8d 4d dc	 lea	 ecx, DWORD PTR _menu$[ebp]
  000a5	e8 00 00 00 00	 call	 ?Attach@CMenu@@QAEHPAUHMENU__@@@Z ; CMenu::Attach
; File D:\git\src\IBK\IBK_DRFN\ProjSrc\SrcChartEx\ChartAddIn\ChartPeriodSummaryAddIn\ChartPeriodSummaryAddInImp.cpp

; 585  : 		switch(m_nCommandType)

  000aa	8b 43 68	 mov	 eax, DWORD PTR [ebx+104]
  000ad	83 e8 01	 sub	 eax, 1
  000b0	74 7c		 je	 SHORT $LN7@OnRButtonU
  000b2	83 e8 01	 sub	 eax, 1
  000b5	75 73		 jne	 SHORT $LN10@OnRButtonU

; 590  : 			break;
; 591  : 		case 2: // modify mode
; 592  : 			{
; 593  : 				POSITION tmpPos;
; 594  : 				POSITION pos = m_LineList.GetHeadPosition();

  000b7	8b bb 88 00 00
	00		 mov	 edi, DWORD PTR [ebx+136]

; 595  : 				while(pos)

  000bd	85 ff		 test	 edi, edi
  000bf	74 47		 je	 SHORT $LN5@OnRButtonU
$LL4@OnRButtonU:

; 599  : 					if( pLine->IsInRegion(clPoint) )

  000c1	ff 75 e8	 push	 DWORD PTR _clPoint$[ebp+4]
  000c4	8b 47 08	 mov	 eax, DWORD PTR [edi+8]
  000c7	8b c8		 mov	 ecx, eax
  000c9	ff 75 e4	 push	 DWORD PTR _clPoint$[ebp]
  000cc	89 7d 10	 mov	 DWORD PTR _tmpPos$1$[ebp], edi
; File C:\Program Files (x86)\Microsoft Visual Studio\2019\Community\VC\Tools\MSVC\14.29.30133\atlmfc\include\afxcoll.inl

; 432  : 		rPosition = (POSITION) pNode->pNext;

  000cf	8b 3f		 mov	 edi, DWORD PTR [edi]
; File D:\git\src\IBK\IBK_DRFN\ProjSrc\SrcChartEx\ChartAddIn\ChartPeriodSummaryAddIn\ChartPeriodSummaryAddInImp.cpp

; 598  : 					CPeriodObj* pLine = (CPeriodObj*)m_LineList.GetNext(pos);

  000d1	89 45 f0	 mov	 DWORD PTR _pLine$1$[ebp], eax

; 599  : 					if( pLine->IsInRegion(clPoint) )

  000d4	e8 00 00 00 00	 call	 ?IsInRegion@CPeriodObj@@QAEHVCPoint@@@Z ; CPeriodObj::IsInRegion
  000d9	85 c0		 test	 eax, eax
  000db	75 06		 jne	 SHORT $LN74@OnRButtonU

; 595  : 				while(pos)

  000dd	85 ff		 test	 edi, edi
  000df	75 e0		 jne	 SHORT $LL4@OnRButtonU

; 599  : 					if( pLine->IsInRegion(clPoint) )

  000e1	eb 25		 jmp	 SHORT $LN5@OnRButtonU
$LN74@OnRButtonU:

; 600  : 					{
; 601  : 						m_PosForRemove = tmpPos;

  000e3	8b 45 10	 mov	 eax, DWORD PTR _tmpPos$1$[ebp]

; 602  : 						m_dwMouseActionID = p_dwMouseActionID;
; 603  : 						m_bNewDraw = FALSE;
; 604  : 						m_pCurSelectedLine = pLine;

  000e6	8b 4d f0	 mov	 ecx, DWORD PTR _pLine$1$[ebp]
  000e9	89 43 7c	 mov	 DWORD PTR [ebx+124], eax
  000ec	8b 45 14	 mov	 eax, DWORD PTR _p_dwMouseActionID$[ebp]
  000ef	89 83 80 00 00
	00		 mov	 DWORD PTR [ebx+128], eax

; 605  : 						m_pCurSelectedLine->ButtonDownAt(clPoint);			

  000f5	8d 45 e4	 lea	 eax, DWORD PTR _clPoint$[ebp]
  000f8	50		 push	 eax
  000f9	c7 43 74 00 00
	00 00		 mov	 DWORD PTR [ebx+116], 0
  00100	89 4b 78	 mov	 DWORD PTR [ebx+120], ecx
  00103	e8 00 00 00 00	 call	 ?ButtonDownAt@CPeriodObj@@QAEXABVCPoint@@@Z ; CPeriodObj::ButtonDownAt
$LN5@OnRButtonU:

; 606  : 						break;
; 607  : 					}
; 608  : 				}	
; 609  : 
; 610  : 				if(p_dwMouseActionID == m_dwMouseActionID)

  00108	8b 45 14	 mov	 eax, DWORD PTR _p_dwMouseActionID$[ebp]
  0010b	3b 83 80 00 00
	00		 cmp	 eax, DWORD PTR [ebx+128]
  00111	75 17		 jne	 SHORT $LN10@OnRButtonU

; 611  : 				{
; 612  : 					::ClientToScreen(m_pIChartOCX->GetOcxHwnd(),&clPoint);

  00113	8b 4b 04	 mov	 ecx, DWORD PTR [ebx+4]
  00116	8d 45 e4	 lea	 eax, DWORD PTR _clPoint$[ebp]
  00119	50		 push	 eax
  0011a	8b 01		 mov	 eax, DWORD PTR [ecx]
  0011c	ff 50 40	 call	 DWORD PTR [eax+64]
  0011f	50		 push	 eax
  00120	ff 15 00 00 00
	00		 call	 DWORD PTR __imp__ClientToScreen@8

; 613  : 					m_hPopupMenu = GetSubMenu(menu.GetSafeHmenu(),1);

  00126	6a 01		 push	 1

; 614  : 				}
; 615  : 				else
; 616  : 					return FALSE;
; 617  : 				
; 618  : 			}
; 619  : 			break;

  00128	eb 19		 jmp	 SHORT $LN78@OnRButtonU
$LN10@OnRButtonU:
  0012a	33 ff		 xor	 edi, edi
  0012c	eb 44		 jmp	 SHORT $LN18@OnRButtonU
$LN7@OnRButtonU:

; 586  : 		{
; 587  : 		case 1:	// draw mode
; 588  : 			::ClientToScreen(m_pIChartOCX->GetOcxHwnd(),&clPoint);

  0012e	8b 4b 04	 mov	 ecx, DWORD PTR [ebx+4]
  00131	8d 45 e4	 lea	 eax, DWORD PTR _clPoint$[ebp]
  00134	50		 push	 eax
  00135	8b 01		 mov	 eax, DWORD PTR [ecx]
  00137	ff 50 40	 call	 DWORD PTR [eax+64]
  0013a	50		 push	 eax
  0013b	ff 15 00 00 00
	00		 call	 DWORD PTR __imp__ClientToScreen@8

; 589  : 			m_hPopupMenu = GetSubMenu(menu.GetSafeHmenu(),0);

  00141	6a 00		 push	 0
$LN78@OnRButtonU:

; 620  : 		default:
; 621  : 			return FALSE;
; 622  : 		}
; 623  : 		
; 624  : 		TrackPopupMenu(m_hPopupMenu, TPM_LEFTALIGN | TPM_RIGHTBUTTON, clPoint.x, clPoint.y,	0, m_pIChartOCX->GetOcxHwnd(), NULL);

  00143	ff 75 e0	 push	 DWORD PTR _menu$[ebp+4]
  00146	ff 15 00 00 00
	00		 call	 DWORD PTR __imp__GetSubMenu@8
  0014c	89 43 64	 mov	 DWORD PTR [ebx+100], eax
  0014f	8b 4b 04	 mov	 ecx, DWORD PTR [ebx+4]
  00152	6a 00		 push	 0
  00154	8b 01		 mov	 eax, DWORD PTR [ecx]
  00156	ff 50 40	 call	 DWORD PTR [eax+64]
  00159	50		 push	 eax
  0015a	6a 00		 push	 0
  0015c	ff 75 e8	 push	 DWORD PTR _clPoint$[ebp+4]
  0015f	ff 75 e4	 push	 DWORD PTR _clPoint$[ebp]
  00162	6a 02		 push	 2
  00164	ff 73 64	 push	 DWORD PTR [ebx+100]
  00167	ff 15 00 00 00
	00		 call	 DWORD PTR __imp__TrackPopupMenu@28

; 628  : 		return TRUE;

  0016d	bf 01 00 00 00	 mov	 edi, 1
$LN18@OnRButtonU:
; File C:\Program Files (x86)\Microsoft Visual Studio\2019\Community\VC\Tools\MSVC\14.29.30133\atlmfc\include\afxwin1.inl

; 905  : 	{ DestroyMenu(); }

  00172	8d 4d dc	 lea	 ecx, DWORD PTR _menu$[ebp]
  00175	c6 45 fc 07	 mov	 BYTE PTR __$EHRec$[ebp+8], 7
  00179	c7 45 dc 00 00
	00 00		 mov	 DWORD PTR _menu$[ebp], OFFSET ??_7CMenu@@6B@
  00180	e8 00 00 00 00	 call	 ?DestroyMenu@CMenu@@QAEHXZ ; CMenu::DestroyMenu
$LN65@OnRButtonU:
; File D:\git\src\IBK\IBK_DRFN\ProjSrc\SrcChartEx\ChartAddIn\ChartPeriodSummaryAddIn\Include_Chart\Dll_Load\IMetaTable.h

; 1036 : 	{

  00185	c7 45 fc 08 00
	00 00		 mov	 DWORD PTR __$EHRec$[ebp+8], 8
; File C:\Program Files (x86)\Microsoft Visual Studio\2019\Community\VC\Tools\MSVC\14.29.30133\atlmfc\include\afxwin1.inl

; 27   : 	{ ASSERT(hInstResource != NULL); afxCurrentResourceHandle = hInstResource; }

  0018c	e8 00 00 00 00	 call	 ?AfxGetModuleState@@YGPAVAFX_MODULE_STATE@@XZ ; AfxGetModuleState
  00191	89 70 0c	 mov	 DWORD PTR [eax+12], esi
; File D:\git\src\IBK\IBK_DRFN\ProjSrc\SrcChartEx\ChartAddIn\ChartPeriodSummaryAddIn\ChartPeriodSummaryAddInImp.cpp

; 628  : 		return TRUE;

  00194	8b c7		 mov	 eax, edi

; 629  : //	}
; 630  : //	return FALSE;
; 631  : }

  00196	8b 4d f4	 mov	 ecx, DWORD PTR __$EHRec$[ebp]
  00199	64 89 0d 00 00
	00 00		 mov	 DWORD PTR fs:0, ecx
  001a0	59		 pop	 ecx
  001a1	5f		 pop	 edi
  001a2	5e		 pop	 esi
  001a3	5b		 pop	 ebx
  001a4	8b e5		 mov	 esp, ebp
  001a6	5d		 pop	 ebp
  001a7	c2 10 00	 ret	 16			; 00000010H
_TEXT	ENDS
;	COMDAT text$x
text$x	SEGMENT
__unwindfunclet$?OnRButtonUp@CChartPeriodSummaryAddInImp@@MAEHPAUHDC__@@IAAUtagPOINT@@K@Z$0:
  00000	8d 4d ec	 lea	 ecx, DWORD PTR ___mlrs__$[ebp]
  00003	e9 00 00 00 00	 jmp	 ??1CMultiLanguageResourceSetter@@QAE@XZ ; CMultiLanguageResourceSetter::~CMultiLanguageResourceSetter
__unwindfunclet$?OnRButtonUp@CChartPeriodSummaryAddInImp@@MAEHPAUHDC__@@IAAUtagPOINT@@K@Z$1:
  00008	8d 4d dc	 lea	 ecx, DWORD PTR _menu$[ebp]
  0000b	e9 00 00 00 00	 jmp	 ??1CMenu@@UAE@XZ	; CMenu::~CMenu
  00010	cc		 int	 3
  00011	cc		 int	 3
  00012	cc		 int	 3
  00013	cc		 int	 3
  00014	cc		 int	 3
__ehhandler$?OnRButtonUp@CChartPeriodSummaryAddInImp@@MAEHPAUHDC__@@IAAUtagPOINT@@K@Z:
  00015	90		 npad	 1
  00016	90		 npad	 1
  00017	8b 54 24 08	 mov	 edx, DWORD PTR [esp+8]
  0001b	8d 42 0c	 lea	 eax, DWORD PTR [edx+12]
  0001e	8b 4a d8	 mov	 ecx, DWORD PTR [edx-40]
  00021	33 c8		 xor	 ecx, eax
  00023	e8 00 00 00 00	 call	 @__security_check_cookie@4
  00028	b8 00 00 00 00	 mov	 eax, OFFSET __ehfuncinfo$?OnRButtonUp@CChartPeriodSummaryAddInImp@@MAEHPAUHDC__@@IAAUtagPOINT@@K@Z
  0002d	e9 00 00 00 00	 jmp	 ___CxxFrameHandler3
text$x	ENDS
?OnRButtonUp@CChartPeriodSummaryAddInImp@@MAEHPAUHDC__@@IAAUtagPOINT@@K@Z ENDP ; CChartPeriodSummaryAddInImp::OnRButtonUp
; Function compile flags: /Ogtp
; File D:\git\src\IBK\IBK_DRFN\ProjSrc\SrcChartEx\ChartAddIn\ChartPeriodSummaryAddIn\ChartPeriodSummaryAddInImp.cpp
; File C:\Program Files (x86)\Microsoft Visual Studio\2019\Community\VC\Tools\MSVC\14.29.30133\atlmfc\include\afxwin1.inl
; File D:\git\src\IBK\IBK_DRFN\ProjSrc\SrcChartEx\ChartAddIn\ChartPeriodSummaryAddIn\Include_Chart\Dll_Load\IMetaTable.h
; File C:\Program Files (x86)\Microsoft Visual Studio\2019\Community\VC\Tools\MSVC\14.29.30133\atlmfc\include\afxwin1.inl
; File D:\git\src\IBK\IBK_DRFN\ProjSrc\SrcChartEx\ChartAddIn\ChartPeriodSummaryAddIn\ChartPeriodSummaryAddInImp.cpp
; File C:\Program Files (x86)\Microsoft Visual Studio\2019\Community\VC\Tools\MSVC\14.29.30133\atlmfc\include\afxcoll.inl
; File D:\git\src\IBK\IBK_DRFN\ProjSrc\SrcChartEx\ChartAddIn\ChartPeriodSummaryAddIn\ChartPeriodSummaryAddInImp.cpp
; File C:\Program Files (x86)\Microsoft Visual Studio\2019\Community\VC\Tools\MSVC\14.29.30133\atlmfc\include\atltypes.h
; File D:\git\src\IBK\IBK_DRFN\ProjSrc\SrcChartEx\ChartAddIn\ChartPeriodSummaryAddIn\ChartPeriodSummaryAddInImp.cpp
; File C:\Program Files (x86)\Microsoft Visual Studio\2019\Community\VC\Tools\MSVC\14.29.30133\atlmfc\include\atltypes.h
; File D:\git\src\IBK\IBK_DRFN\ProjSrc\SrcChartEx\ChartAddIn\ChartPeriodSummaryAddIn\ChartPeriodSummaryAddInImp.cpp
; File D:\git\src\IBK\IBK_DRFN\ProjSrc\SrcChartEx\ChartAddIn\ChartPeriodSummaryAddIn\Include_Chart\Dll_Load\IMetaTable.h
; File C:\Program Files (x86)\Microsoft Visual Studio\2019\Community\VC\Tools\MSVC\14.29.30133\atlmfc\include\afxwin1.inl
; File D:\git\src\IBK\IBK_DRFN\ProjSrc\SrcChartEx\ChartAddIn\ChartPeriodSummaryAddIn\ChartPeriodSummaryAddInImp.cpp
; File C:\Program Files (x86)\Microsoft Visual Studio\2019\Community\VC\Tools\MSVC\14.29.30133\atlmfc\include\atltypes.h
; File D:\git\src\IBK\IBK_DRFN\ProjSrc\SrcChartEx\ChartAddIn\ChartPeriodSummaryAddIn\ChartPeriodSummaryAddInImp.cpp
; File C:\Program Files (x86)\Microsoft Visual Studio\2019\Community\VC\Tools\MSVC\14.29.30133\atlmfc\include\atltypes.h
; File D:\git\src\IBK\IBK_DRFN\ProjSrc\SrcChartEx\ChartAddIn\ChartPeriodSummaryAddIn\ChartPeriodSummaryAddInImp.cpp
; File C:\Program Files (x86)\Microsoft Visual Studio\2019\Community\VC\Tools\MSVC\14.29.30133\atlmfc\include\atltypes.h
; File D:\git\src\IBK\IBK_DRFN\ProjSrc\SrcChartEx\ChartAddIn\ChartPeriodSummaryAddIn\ChartPeriodSummaryAddInImp.cpp
; File D:\git\src\IBK\IBK_DRFN\ProjSrc\SrcChartEx\ChartAddIn\ChartPeriodSummaryAddIn\Include_Chart\Dll_Load\IMetaTable.h
; File D:\git\src\IBK\IBK_DRFN\ProjSrc\SrcChartEx\ChartAddIn\ChartPeriodSummaryAddIn\ChartPeriodSummaryAddInImp.cpp
;	COMDAT ?OnRButtonDown@CChartPeriodSummaryAddInImp@@MAEHPAUHDC__@@IAAUtagPOINT@@K@Z
_TEXT	SEGMENT
$T2 = -32						; size = 8
___mlrs__$ = -24					; size = 4
_tmpPos$1$ = -20					; size = 4
_pLine$1$ = -16						; size = 4
__$EHRec$ = -12						; size = 12
_p_hDC$ = 8						; size = 4
_nFlags$ = 12						; size = 4
_point$ = 16						; size = 4
_p_dwMouseActionID$ = 20				; size = 4
?OnRButtonDown@CChartPeriodSummaryAddInImp@@MAEHPAUHDC__@@IAAUtagPOINT@@K@Z PROC ; CChartPeriodSummaryAddInImp::OnRButtonDown, COMDAT
; _this$ = ecx

; 539  : {

  00000	55		 push	 ebp
  00001	8b ec		 mov	 ebp, esp
  00003	6a ff		 push	 -1
  00005	68 00 00 00 00	 push	 __ehhandler$?OnRButtonDown@CChartPeriodSummaryAddInImp@@MAEHPAUHDC__@@IAAUtagPOINT@@K@Z
  0000a	64 a1 00 00 00
	00		 mov	 eax, DWORD PTR fs:0
  00010	50		 push	 eax
  00011	83 ec 14	 sub	 esp, 20			; 00000014H
  00014	53		 push	 ebx
  00015	56		 push	 esi
  00016	57		 push	 edi
  00017	a1 00 00 00 00	 mov	 eax, DWORD PTR ___security_cookie
  0001c	33 c5		 xor	 eax, ebp
  0001e	50		 push	 eax
  0001f	8d 45 f4	 lea	 eax, DWORD PTR __$EHRec$[ebp]
  00022	64 a3 00 00 00
	00		 mov	 DWORD PTR fs:0, eax
  00028	8b d9		 mov	 ebx, ecx

; 540  : 	ML_SET_LANGUAGE_RES();

  0002a	e8 00 00 00 00	 call	 ?AfxGetStaticModuleState@@YGPAVAFX_MODULE_STATE@@XZ ; AfxGetStaticModuleState
  0002f	b9 00 00 00 00	 mov	 ecx, OFFSET ?g_iMetaTable@@3VIMetaTable@@A ; g_iMetaTable
  00034	8b 40 08	 mov	 eax, DWORD PTR [eax+8]
  00037	50		 push	 eax
  00038	ff 73 0c	 push	 DWORD PTR [ebx+12]
  0003b	e8 00 00 00 00	 call	 ?LoadResourceDLL@IMetaTable@@QAEPAUHINSTANCE__@@PAUHWND__@@PAU2@@Z ; IMetaTable::LoadResourceDLL
  00040	8b f8		 mov	 edi, eax
; File C:\Program Files (x86)\Microsoft Visual Studio\2019\Community\VC\Tools\MSVC\14.29.30133\atlmfc\include\afxwin1.inl

; 25   : 		return afxCurrentResourceHandle; }

  00042	e8 00 00 00 00	 call	 ?AfxGetModuleState@@YGPAVAFX_MODULE_STATE@@XZ ; AfxGetModuleState
; File D:\git\src\IBK\IBK_DRFN\ProjSrc\SrcChartEx\ChartAddIn\ChartPeriodSummaryAddIn\Include_Chart\Dll_Load\IMetaTable.h

; 1032 : 		m_hInstance = AfxGetResourceHandle();

  00047	8b 70 0c	 mov	 esi, DWORD PTR [eax+12]
  0004a	89 75 e8	 mov	 DWORD PTR ___mlrs__$[ebp], esi
; File C:\Program Files (x86)\Microsoft Visual Studio\2019\Community\VC\Tools\MSVC\14.29.30133\atlmfc\include\afxwin1.inl

; 27   : 	{ ASSERT(hInstResource != NULL); afxCurrentResourceHandle = hInstResource; }

  0004d	e8 00 00 00 00	 call	 ?AfxGetModuleState@@YGPAVAFX_MODULE_STATE@@XZ ; AfxGetModuleState
  00052	89 78 0c	 mov	 DWORD PTR [eax+12], edi
; File D:\git\src\IBK\IBK_DRFN\ProjSrc\SrcChartEx\ChartAddIn\ChartPeriodSummaryAddIn\ChartPeriodSummaryAddInImp.cpp

; 542  : 	switch(m_nCommandType)

  00055	8b 43 68	 mov	 eax, DWORD PTR [ebx+104]
  00058	c7 45 fc 00 00
	00 00		 mov	 DWORD PTR __$EHRec$[ebp+8], 0
  0005f	83 e8 00	 sub	 eax, 0
  00062	74 49		 je	 SHORT $LN6@OnRButtonD
  00064	83 e8 01	 sub	 eax, 1
  00067	0f 84 9a 00 00
	00		 je	 $LN7@OnRButtonD
  0006d	83 e8 01	 sub	 eax, 1
  00070	75 3b		 jne	 SHORT $LN6@OnRButtonD

; 543  : 	{
; 544  : 	case 0:	// stop
; 545  : 		return FALSE;
; 546  : 	case 1:	// draw
; 547  : 		return TRUE;
; 548  : 		break;
; 549  : 	case 2: // modify
; 550  : 		POSITION tmpPos;
; 551  : 		POSITION pos = m_LineList.GetHeadPosition();

  00072	8b bb 88 00 00
	00		 mov	 edi, DWORD PTR [ebx+136]

; 552  : 		while(pos)

  00078	85 ff		 test	 edi, edi
  0007a	74 31		 je	 SHORT $LN6@OnRButtonD
  0007c	0f 1f 40 00	 npad	 4
$LL4@OnRButtonD:

; 553  : 		{
; 554  : 			tmpPos = pos;
; 555  : 			CPeriodObj* pLine = (CPeriodObj*)m_LineList.GetNext(pos);

  00080	8b 47 08	 mov	 eax, DWORD PTR [edi+8]

; 556  : 			if( pLine->IsInRegion(point) )

  00083	83 ec 08	 sub	 esp, 8
  00086	89 45 f0	 mov	 DWORD PTR _pLine$1$[ebp], eax
  00089	8b 45 10	 mov	 eax, DWORD PTR _point$[ebp]
  0008c	89 7d ec	 mov	 DWORD PTR _tmpPos$1$[ebp], edi
; File C:\Program Files (x86)\Microsoft Visual Studio\2019\Community\VC\Tools\MSVC\14.29.30133\atlmfc\include\afxcoll.inl

; 432  : 		rPosition = (POSITION) pNode->pNext;

  0008f	8b 3f		 mov	 edi, DWORD PTR [edi]
; File D:\git\src\IBK\IBK_DRFN\ProjSrc\SrcChartEx\ChartAddIn\ChartPeriodSummaryAddIn\ChartPeriodSummaryAddInImp.cpp

; 556  : 			if( pLine->IsInRegion(point) )

  00091	8b 08		 mov	 ecx, DWORD PTR [eax]
  00093	8b 50 04	 mov	 edx, DWORD PTR [eax+4]
  00096	8b c4		 mov	 eax, esp
; File C:\Program Files (x86)\Microsoft Visual Studio\2019\Community\VC\Tools\MSVC\14.29.30133\atlmfc\include\atltypes.h

; 414  : 	*(POINT*)this = initPt;

  00098	89 08		 mov	 DWORD PTR [eax], ecx
; File D:\git\src\IBK\IBK_DRFN\ProjSrc\SrcChartEx\ChartAddIn\ChartPeriodSummaryAddIn\ChartPeriodSummaryAddInImp.cpp

; 556  : 			if( pLine->IsInRegion(point) )

  0009a	8b 4d f0	 mov	 ecx, DWORD PTR _pLine$1$[ebp]
; File C:\Program Files (x86)\Microsoft Visual Studio\2019\Community\VC\Tools\MSVC\14.29.30133\atlmfc\include\atltypes.h

; 414  : 	*(POINT*)this = initPt;

  0009d	89 50 04	 mov	 DWORD PTR [eax+4], edx
; File D:\git\src\IBK\IBK_DRFN\ProjSrc\SrcChartEx\ChartAddIn\ChartPeriodSummaryAddIn\ChartPeriodSummaryAddInImp.cpp

; 556  : 			if( pLine->IsInRegion(point) )

  000a0	e8 00 00 00 00	 call	 ?IsInRegion@CPeriodObj@@QAEHVCPoint@@@Z ; CPeriodObj::IsInRegion
  000a5	85 c0		 test	 eax, eax
  000a7	75 2b		 jne	 SHORT $LN57@OnRButtonD

; 552  : 		while(pos)

  000a9	85 ff		 test	 edi, edi
  000ab	75 d3		 jne	 SHORT $LL4@OnRButtonD
$LN6@OnRButtonD:
; File D:\git\src\IBK\IBK_DRFN\ProjSrc\SrcChartEx\ChartAddIn\ChartPeriodSummaryAddIn\Include_Chart\Dll_Load\IMetaTable.h

; 1036 : 	{

  000ad	33 ff		 xor	 edi, edi
$LN15@OnRButtonD:
  000af	c7 45 fc 05 00
	00 00		 mov	 DWORD PTR __$EHRec$[ebp+8], 5
; File C:\Program Files (x86)\Microsoft Visual Studio\2019\Community\VC\Tools\MSVC\14.29.30133\atlmfc\include\afxwin1.inl

; 27   : 	{ ASSERT(hInstResource != NULL); afxCurrentResourceHandle = hInstResource; }

  000b6	e8 00 00 00 00	 call	 ?AfxGetModuleState@@YGPAVAFX_MODULE_STATE@@XZ ; AfxGetModuleState
  000bb	89 70 0c	 mov	 DWORD PTR [eax+12], esi
; File D:\git\src\IBK\IBK_DRFN\ProjSrc\SrcChartEx\ChartAddIn\ChartPeriodSummaryAddIn\ChartPeriodSummaryAddInImp.cpp

; 569  : 	return FALSE;

  000be	8b c7		 mov	 eax, edi

; 570  : }

  000c0	8b 4d f4	 mov	 ecx, DWORD PTR __$EHRec$[ebp]
  000c3	64 89 0d 00 00
	00 00		 mov	 DWORD PTR fs:0, ecx
  000ca	59		 pop	 ecx
  000cb	5f		 pop	 edi
  000cc	5e		 pop	 esi
  000cd	5b		 pop	 ebx
  000ce	8b e5		 mov	 esp, ebp
  000d0	5d		 pop	 ebp
  000d1	c2 10 00	 ret	 16			; 00000010H
$LN57@OnRButtonD:
; File C:\Program Files (x86)\Microsoft Visual Studio\2019\Community\VC\Tools\MSVC\14.29.30133\atlmfc\include\atltypes.h

; 414  : 	*(POINT*)this = initPt;

  000d4	8b 55 10	 mov	 edx, DWORD PTR _point$[ebp]
; File D:\git\src\IBK\IBK_DRFN\ProjSrc\SrcChartEx\ChartAddIn\ChartPeriodSummaryAddIn\ChartPeriodSummaryAddInImp.cpp

; 558  : 				m_PosForRemove = tmpPos;

  000d7	8b 45 ec	 mov	 eax, DWORD PTR _tmpPos$1$[ebp]

; 559  : 				m_dwMouseActionID = p_dwMouseActionID;
; 560  : 				m_bNewDraw = FALSE;
; 561  : 				m_pCurSelectedLine = pLine;

  000da	8b 4d f0	 mov	 ecx, DWORD PTR _pLine$1$[ebp]
  000dd	89 43 7c	 mov	 DWORD PTR [ebx+124], eax
  000e0	8b 45 14	 mov	 eax, DWORD PTR _p_dwMouseActionID$[ebp]
  000e3	89 83 80 00 00
	00		 mov	 DWORD PTR [ebx+128], eax
  000e9	c7 43 74 00 00
	00 00		 mov	 DWORD PTR [ebx+116], 0
  000f0	89 4b 78	 mov	 DWORD PTR [ebx+120], ecx
; File C:\Program Files (x86)\Microsoft Visual Studio\2019\Community\VC\Tools\MSVC\14.29.30133\atlmfc\include\atltypes.h

; 414  : 	*(POINT*)this = initPt;

  000f3	8b 02		 mov	 eax, DWORD PTR [edx]
  000f5	8b 52 04	 mov	 edx, DWORD PTR [edx+4]
  000f8	89 45 e0	 mov	 DWORD PTR $T2[ebp], eax
; File D:\git\src\IBK\IBK_DRFN\ProjSrc\SrcChartEx\ChartAddIn\ChartPeriodSummaryAddIn\ChartPeriodSummaryAddInImp.cpp

; 562  : 				m_pCurSelectedLine->ButtonDownAt(point);			

  000fb	8d 45 e0	 lea	 eax, DWORD PTR $T2[ebp]
  000fe	50		 push	 eax
; File C:\Program Files (x86)\Microsoft Visual Studio\2019\Community\VC\Tools\MSVC\14.29.30133\atlmfc\include\atltypes.h

; 414  : 	*(POINT*)this = initPt;

  000ff	89 55 e4	 mov	 DWORD PTR $T2[ebp+4], edx
; File D:\git\src\IBK\IBK_DRFN\ProjSrc\SrcChartEx\ChartAddIn\ChartPeriodSummaryAddIn\ChartPeriodSummaryAddInImp.cpp

; 562  : 				m_pCurSelectedLine->ButtonDownAt(point);			

  00102	e8 00 00 00 00	 call	 ?ButtonDownAt@CPeriodObj@@QAEXABVCPoint@@@Z ; CPeriodObj::ButtonDownAt
$LN7@OnRButtonD:
; File D:\git\src\IBK\IBK_DRFN\ProjSrc\SrcChartEx\ChartAddIn\ChartPeriodSummaryAddIn\Include_Chart\Dll_Load\IMetaTable.h

; 1036 : 	{

  00107	bf 01 00 00 00	 mov	 edi, 1
  0010c	eb a1		 jmp	 SHORT $LN15@OnRButtonD
_TEXT	ENDS
;	COMDAT text$x
text$x	SEGMENT
__unwindfunclet$?OnRButtonDown@CChartPeriodSummaryAddInImp@@MAEHPAUHDC__@@IAAUtagPOINT@@K@Z$0:
  00000	8d 4d e8	 lea	 ecx, DWORD PTR ___mlrs__$[ebp]
  00003	e9 00 00 00 00	 jmp	 ??1CMultiLanguageResourceSetter@@QAE@XZ ; CMultiLanguageResourceSetter::~CMultiLanguageResourceSetter
  00008	cc		 int	 3
  00009	cc		 int	 3
  0000a	cc		 int	 3
  0000b	cc		 int	 3
  0000c	cc		 int	 3
__ehhandler$?OnRButtonDown@CChartPeriodSummaryAddInImp@@MAEHPAUHDC__@@IAAUtagPOINT@@K@Z:
  0000d	90		 npad	 1
  0000e	90		 npad	 1
  0000f	8b 54 24 08	 mov	 edx, DWORD PTR [esp+8]
  00013	8d 42 0c	 lea	 eax, DWORD PTR [edx+12]
  00016	8b 4a dc	 mov	 ecx, DWORD PTR [edx-36]
  00019	33 c8		 xor	 ecx, eax
  0001b	e8 00 00 00 00	 call	 @__security_check_cookie@4
  00020	b8 00 00 00 00	 mov	 eax, OFFSET __ehfuncinfo$?OnRButtonDown@CChartPeriodSummaryAddInImp@@MAEHPAUHDC__@@IAAUtagPOINT@@K@Z
  00025	e9 00 00 00 00	 jmp	 ___CxxFrameHandler3
text$x	ENDS
?OnRButtonDown@CChartPeriodSummaryAddInImp@@MAEHPAUHDC__@@IAAUtagPOINT@@K@Z ENDP ; CChartPeriodSummaryAddInImp::OnRButtonDown
; Function compile flags: /Ogtp
; File D:\git\src\IBK\IBK_DRFN\ProjSrc\SrcChartEx\ChartAddIn\ChartPeriodSummaryAddIn\ChartPeriodSummaryAddInImp.cpp
; File C:\Program Files (x86)\Microsoft Visual Studio\2019\Community\VC\Tools\MSVC\14.29.30133\atlmfc\include\afxwin1.inl
; File D:\git\src\IBK\IBK_DRFN\ProjSrc\SrcChartEx\ChartAddIn\ChartPeriodSummaryAddIn\Include_Chart\Dll_Load\IMetaTable.h
; File C:\Program Files (x86)\Microsoft Visual Studio\2019\Community\VC\Tools\MSVC\14.29.30133\atlmfc\include\afxwin1.inl
; File D:\git\src\IBK\IBK_DRFN\ProjSrc\SrcChartEx\ChartAddIn\ChartPeriodSummaryAddIn\ChartPeriodSummaryAddInImp.cpp
; File C:\Program Files (x86)\Microsoft Visual Studio\2019\Community\VC\Tools\MSVC\14.29.30133\atlmfc\include\afxcoll.inl
; File D:\git\src\IBK\IBK_DRFN\ProjSrc\SrcChartEx\ChartAddIn\ChartPeriodSummaryAddIn\ChartPeriodSummaryAddInImp.cpp
; File C:\Program Files (x86)\Microsoft Visual Studio\2019\Community\VC\Tools\MSVC\14.29.30133\atlmfc\include\atltypes.h
; File D:\git\src\IBK\IBK_DRFN\ProjSrc\SrcChartEx\ChartAddIn\ChartPeriodSummaryAddIn\ChartPeriodSummaryAddInImp.cpp
; File C:\Program Files (x86)\Microsoft Visual Studio\2019\Community\VC\Tools\MSVC\14.29.30133\atlmfc\include\atltypes.h
; File D:\git\src\IBK\IBK_DRFN\ProjSrc\SrcChartEx\ChartAddIn\ChartPeriodSummaryAddIn\ChartPeriodSummaryAddInImp.cpp
; File D:\git\src\IBK\IBK_DRFN\ProjSrc\SrcChartEx\ChartAddIn\ChartPeriodSummaryAddIn\Include_Chart\Dll_Load\IMetaTable.h
; File C:\Program Files (x86)\Microsoft Visual Studio\2019\Community\VC\Tools\MSVC\14.29.30133\atlmfc\include\afxwin1.inl
; File D:\git\src\IBK\IBK_DRFN\ProjSrc\SrcChartEx\ChartAddIn\ChartPeriodSummaryAddIn\ChartPeriodSummaryAddInImp.cpp
;	COMDAT ?OnLButtonDblClk@CChartPeriodSummaryAddInImp@@MAEHPAUHDC__@@IAAUtagPOINT@@K@Z
_TEXT	SEGMENT
___mlrs__$ = -20					; size = 4
_pLine$1$ = -16						; size = 4
__$EHRec$ = -12						; size = 12
_p_hDC$ = 8						; size = 4
_nFlags$ = 12						; size = 4
_point$ = 16						; size = 4
_p_dwMouseActionID$ = 20				; size = 4
?OnLButtonDblClk@CChartPeriodSummaryAddInImp@@MAEHPAUHDC__@@IAAUtagPOINT@@K@Z PROC ; CChartPeriodSummaryAddInImp::OnLButtonDblClk, COMDAT
; _this$ = ecx

; 635  : {

  00000	55		 push	 ebp
  00001	8b ec		 mov	 ebp, esp
  00003	6a ff		 push	 -1
  00005	68 00 00 00 00	 push	 __ehhandler$?OnLButtonDblClk@CChartPeriodSummaryAddInImp@@MAEHPAUHDC__@@IAAUtagPOINT@@K@Z
  0000a	64 a1 00 00 00
	00		 mov	 eax, DWORD PTR fs:0
  00010	50		 push	 eax
  00011	83 ec 0c	 sub	 esp, 12			; 0000000cH
  00014	53		 push	 ebx
  00015	56		 push	 esi
  00016	57		 push	 edi
  00017	a1 00 00 00 00	 mov	 eax, DWORD PTR ___security_cookie
  0001c	33 c5		 xor	 eax, ebp
  0001e	50		 push	 eax
  0001f	8d 45 f4	 lea	 eax, DWORD PTR __$EHRec$[ebp]
  00022	64 a3 00 00 00
	00		 mov	 DWORD PTR fs:0, eax
  00028	8b d9		 mov	 ebx, ecx

; 636  : 	ML_SET_LANGUAGE_RES();

  0002a	e8 00 00 00 00	 call	 ?AfxGetStaticModuleState@@YGPAVAFX_MODULE_STATE@@XZ ; AfxGetStaticModuleState
  0002f	b9 00 00 00 00	 mov	 ecx, OFFSET ?g_iMetaTable@@3VIMetaTable@@A ; g_iMetaTable
  00034	8b 40 08	 mov	 eax, DWORD PTR [eax+8]
  00037	50		 push	 eax
  00038	ff 73 0c	 push	 DWORD PTR [ebx+12]
  0003b	e8 00 00 00 00	 call	 ?LoadResourceDLL@IMetaTable@@QAEPAUHINSTANCE__@@PAUHWND__@@PAU2@@Z ; IMetaTable::LoadResourceDLL
  00040	8b f8		 mov	 edi, eax
; File C:\Program Files (x86)\Microsoft Visual Studio\2019\Community\VC\Tools\MSVC\14.29.30133\atlmfc\include\afxwin1.inl

; 25   : 		return afxCurrentResourceHandle; }

  00042	e8 00 00 00 00	 call	 ?AfxGetModuleState@@YGPAVAFX_MODULE_STATE@@XZ ; AfxGetModuleState
; File D:\git\src\IBK\IBK_DRFN\ProjSrc\SrcChartEx\ChartAddIn\ChartPeriodSummaryAddIn\Include_Chart\Dll_Load\IMetaTable.h

; 1032 : 		m_hInstance = AfxGetResourceHandle();

  00047	8b 70 0c	 mov	 esi, DWORD PTR [eax+12]
  0004a	89 75 ec	 mov	 DWORD PTR ___mlrs__$[ebp], esi
; File C:\Program Files (x86)\Microsoft Visual Studio\2019\Community\VC\Tools\MSVC\14.29.30133\atlmfc\include\afxwin1.inl

; 27   : 	{ ASSERT(hInstResource != NULL); afxCurrentResourceHandle = hInstResource; }

  0004d	e8 00 00 00 00	 call	 ?AfxGetModuleState@@YGPAVAFX_MODULE_STATE@@XZ ; AfxGetModuleState
  00052	89 78 0c	 mov	 DWORD PTR [eax+12], edi
; File D:\git\src\IBK\IBK_DRFN\ProjSrc\SrcChartEx\ChartAddIn\ChartPeriodSummaryAddIn\ChartPeriodSummaryAddInImp.cpp

; 637  : 	if(!m_nCommandType) return FALSE;

  00055	83 7b 68 00	 cmp	 DWORD PTR [ebx+104], 0
  00059	c7 45 fc 00 00
	00 00		 mov	 DWORD PTR __$EHRec$[ebp+8], 0
  00060	74 3e		 je	 SHORT $LN42@OnLButtonD

; 638  : 
; 639  : 	POSITION pos = m_LineList.GetHeadPosition();

  00062	8b bb 88 00 00
	00		 mov	 edi, DWORD PTR [ebx+136]

; 640  : 	while(pos)

  00068	85 ff		 test	 edi, edi
  0006a	74 34		 je	 SHORT $LN42@OnLButtonD
  0006c	0f 1f 40 00	 npad	 4
$LL2@OnLButtonD:

; 642  : 		CPeriodObj* pLine = (CPeriodObj*)m_LineList.GetNext(pos);

  00070	8b 47 08	 mov	 eax, DWORD PTR [edi+8]

; 643  : 		if( pLine->IsInRegion(point) && m_nCommandType == 2)

  00073	83 ec 08	 sub	 esp, 8
; File C:\Program Files (x86)\Microsoft Visual Studio\2019\Community\VC\Tools\MSVC\14.29.30133\atlmfc\include\afxcoll.inl

; 432  : 		rPosition = (POSITION) pNode->pNext;

  00076	8b 3f		 mov	 edi, DWORD PTR [edi]
; File D:\git\src\IBK\IBK_DRFN\ProjSrc\SrcChartEx\ChartAddIn\ChartPeriodSummaryAddIn\ChartPeriodSummaryAddInImp.cpp

; 642  : 		CPeriodObj* pLine = (CPeriodObj*)m_LineList.GetNext(pos);

  00078	89 45 f0	 mov	 DWORD PTR _pLine$1$[ebp], eax

; 643  : 		if( pLine->IsInRegion(point) && m_nCommandType == 2)

  0007b	8b 45 10	 mov	 eax, DWORD PTR _point$[ebp]
  0007e	8b 08		 mov	 ecx, DWORD PTR [eax]
  00080	8b 50 04	 mov	 edx, DWORD PTR [eax+4]
  00083	8b c4		 mov	 eax, esp
; File C:\Program Files (x86)\Microsoft Visual Studio\2019\Community\VC\Tools\MSVC\14.29.30133\atlmfc\include\atltypes.h

; 414  : 	*(POINT*)this = initPt;

  00085	89 08		 mov	 DWORD PTR [eax], ecx
; File D:\git\src\IBK\IBK_DRFN\ProjSrc\SrcChartEx\ChartAddIn\ChartPeriodSummaryAddIn\ChartPeriodSummaryAddInImp.cpp

; 643  : 		if( pLine->IsInRegion(point) && m_nCommandType == 2)

  00087	8b 4d f0	 mov	 ecx, DWORD PTR _pLine$1$[ebp]
; File C:\Program Files (x86)\Microsoft Visual Studio\2019\Community\VC\Tools\MSVC\14.29.30133\atlmfc\include\atltypes.h

; 414  : 	*(POINT*)this = initPt;

  0008a	89 50 04	 mov	 DWORD PTR [eax+4], edx
; File D:\git\src\IBK\IBK_DRFN\ProjSrc\SrcChartEx\ChartAddIn\ChartPeriodSummaryAddIn\ChartPeriodSummaryAddInImp.cpp

; 643  : 		if( pLine->IsInRegion(point) && m_nCommandType == 2)

  0008d	e8 00 00 00 00	 call	 ?IsInRegion@CPeriodObj@@QAEHVCPoint@@@Z ; CPeriodObj::IsInRegion
  00092	85 c0		 test	 eax, eax
  00094	74 06		 je	 SHORT $LN5@OnLButtonD
  00096	83 7b 68 02	 cmp	 DWORD PTR [ebx+104], 2
  0009a	74 2b		 je	 SHORT $LN39@OnLButtonD
$LN5@OnLButtonD:

; 640  : 	while(pos)

  0009c	85 ff		 test	 edi, edi
  0009e	75 d0		 jne	 SHORT $LL2@OnLButtonD
$LN42@OnLButtonD:
; File D:\git\src\IBK\IBK_DRFN\ProjSrc\SrcChartEx\ChartAddIn\ChartPeriodSummaryAddIn\Include_Chart\Dll_Load\IMetaTable.h

; 1036 : 	{

  000a0	33 ff		 xor	 edi, edi
$LN9@OnLButtonD:
  000a2	c7 45 fc 03 00
	00 00		 mov	 DWORD PTR __$EHRec$[ebp+8], 3
; File C:\Program Files (x86)\Microsoft Visual Studio\2019\Community\VC\Tools\MSVC\14.29.30133\atlmfc\include\afxwin1.inl

; 27   : 	{ ASSERT(hInstResource != NULL); afxCurrentResourceHandle = hInstResource; }

  000a9	e8 00 00 00 00	 call	 ?AfxGetModuleState@@YGPAVAFX_MODULE_STATE@@XZ ; AfxGetModuleState
  000ae	89 70 0c	 mov	 DWORD PTR [eax+12], esi
; File D:\git\src\IBK\IBK_DRFN\ProjSrc\SrcChartEx\ChartAddIn\ChartPeriodSummaryAddIn\ChartPeriodSummaryAddInImp.cpp

; 649  : 	return FALSE;

  000b1	8b c7		 mov	 eax, edi

; 650  : }

  000b3	8b 4d f4	 mov	 ecx, DWORD PTR __$EHRec$[ebp]
  000b6	64 89 0d 00 00
	00 00		 mov	 DWORD PTR fs:0, ecx
  000bd	59		 pop	 ecx
  000be	5f		 pop	 edi
  000bf	5e		 pop	 esi
  000c0	5b		 pop	 ebx
  000c1	8b e5		 mov	 esp, ebp
  000c3	5d		 pop	 ebp
  000c4	c2 10 00	 ret	 16			; 00000010H
$LN39@OnLButtonD:

; 644  : 		{
; 645  : 			OnPSConfig(pLine);

  000c7	ff 75 f0	 push	 DWORD PTR _pLine$1$[ebp]
  000ca	8d 4b f8	 lea	 ecx, DWORD PTR [ebx-8]
  000cd	e8 00 00 00 00	 call	 ?OnPSConfig@CChartPeriodSummaryAddInImp@@QAEXPAVCPeriodObj@@@Z ; CChartPeriodSummaryAddInImp::OnPSConfig

; 646  : 			return TRUE;

  000d2	bf 01 00 00 00	 mov	 edi, 1
  000d7	eb c9		 jmp	 SHORT $LN9@OnLButtonD
_TEXT	ENDS
;	COMDAT text$x
text$x	SEGMENT
__unwindfunclet$?OnLButtonDblClk@CChartPeriodSummaryAddInImp@@MAEHPAUHDC__@@IAAUtagPOINT@@K@Z$0:
  00000	8d 4d ec	 lea	 ecx, DWORD PTR ___mlrs__$[ebp]
  00003	e9 00 00 00 00	 jmp	 ??1CMultiLanguageResourceSetter@@QAE@XZ ; CMultiLanguageResourceSetter::~CMultiLanguageResourceSetter
  00008	cc		 int	 3
  00009	cc		 int	 3
  0000a	cc		 int	 3
  0000b	cc		 int	 3
  0000c	cc		 int	 3
__ehhandler$?OnLButtonDblClk@CChartPeriodSummaryAddInImp@@MAEHPAUHDC__@@IAAUtagPOINT@@K@Z:
  0000d	90		 npad	 1
  0000e	90		 npad	 1
  0000f	8b 54 24 08	 mov	 edx, DWORD PTR [esp+8]
  00013	8d 42 0c	 lea	 eax, DWORD PTR [edx+12]
  00016	8b 4a e4	 mov	 ecx, DWORD PTR [edx-28]
  00019	33 c8		 xor	 ecx, eax
  0001b	e8 00 00 00 00	 call	 @__security_check_cookie@4
  00020	b8 00 00 00 00	 mov	 eax, OFFSET __ehfuncinfo$?OnLButtonDblClk@CChartPeriodSummaryAddInImp@@MAEHPAUHDC__@@IAAUtagPOINT@@K@Z
  00025	e9 00 00 00 00	 jmp	 ___CxxFrameHandler3
text$x	ENDS
?OnLButtonDblClk@CChartPeriodSummaryAddInImp@@MAEHPAUHDC__@@IAAUtagPOINT@@K@Z ENDP ; CChartPeriodSummaryAddInImp::OnLButtonDblClk
; Function compile flags: /Ogtp
; File D:\git\src\IBK\IBK_DRFN\ProjSrc\SrcChartEx\ChartAddIn\ChartPeriodSummaryAddIn\ChartPeriodSummaryAddInImp.cpp
; File C:\Program Files (x86)\Microsoft Visual Studio\2019\Community\VC\Tools\MSVC\14.29.30133\atlmfc\include\afxwin1.inl
; File D:\git\src\IBK\IBK_DRFN\ProjSrc\SrcChartEx\ChartAddIn\ChartPeriodSummaryAddIn\Include_Chart\Dll_Load\IMetaTable.h
; File C:\Program Files (x86)\Microsoft Visual Studio\2019\Community\VC\Tools\MSVC\14.29.30133\atlmfc\include\afxwin1.inl
; File D:\git\src\IBK\IBK_DRFN\ProjSrc\SrcChartEx\ChartAddIn\ChartPeriodSummaryAddIn\ChartPeriodSummaryAddInImp.cpp
; File D:\git\src\IBK\IBK_DRFN\ProjSrc\SrcChartEx\ChartAddIn\ChartPeriodSummaryAddIn\Include_Chart\Dll_Load\IMetaTable.h
; File C:\Program Files (x86)\Microsoft Visual Studio\2019\Community\VC\Tools\MSVC\14.29.30133\atlmfc\include\afxwin1.inl
; File D:\git\src\IBK\IBK_DRFN\ProjSrc\SrcChartEx\ChartAddIn\ChartPeriodSummaryAddIn\ChartPeriodSummaryAddInImp.cpp
;	COMDAT ?OnLButtonUp@CChartPeriodSummaryAddInImp@@MAEHPAUHDC__@@IAAUtagPOINT@@K@Z
_TEXT	SEGMENT
___mlrs__$ = -16					; size = 4
__$EHRec$ = -12						; size = 12
_p_hDC$ = 8						; size = 4
_nFlags$ = 12						; size = 4
_point$ = 16						; size = 4
_p_dwMouseActionID$ = 20				; size = 4
?OnLButtonUp@CChartPeriodSummaryAddInImp@@MAEHPAUHDC__@@IAAUtagPOINT@@K@Z PROC ; CChartPeriodSummaryAddInImp::OnLButtonUp, COMDAT
; _this$ = ecx

; 502  : {

  00000	55		 push	 ebp
  00001	8b ec		 mov	 ebp, esp
  00003	6a ff		 push	 -1
  00005	68 00 00 00 00	 push	 __ehhandler$?OnLButtonUp@CChartPeriodSummaryAddInImp@@MAEHPAUHDC__@@IAAUtagPOINT@@K@Z
  0000a	64 a1 00 00 00
	00		 mov	 eax, DWORD PTR fs:0
  00010	50		 push	 eax
  00011	51		 push	 ecx
  00012	53		 push	 ebx
  00013	56		 push	 esi
  00014	57		 push	 edi
  00015	a1 00 00 00 00	 mov	 eax, DWORD PTR ___security_cookie
  0001a	33 c5		 xor	 eax, ebp
  0001c	50		 push	 eax
  0001d	8d 45 f4	 lea	 eax, DWORD PTR __$EHRec$[ebp]
  00020	64 a3 00 00 00
	00		 mov	 DWORD PTR fs:0, eax
  00026	8b d9		 mov	 ebx, ecx

; 503  : 	ML_SET_LANGUAGE_RES();

  00028	e8 00 00 00 00	 call	 ?AfxGetStaticModuleState@@YGPAVAFX_MODULE_STATE@@XZ ; AfxGetStaticModuleState
  0002d	b9 00 00 00 00	 mov	 ecx, OFFSET ?g_iMetaTable@@3VIMetaTable@@A ; g_iMetaTable
  00032	8b 40 08	 mov	 eax, DWORD PTR [eax+8]
  00035	50		 push	 eax
  00036	ff 73 0c	 push	 DWORD PTR [ebx+12]
  00039	e8 00 00 00 00	 call	 ?LoadResourceDLL@IMetaTable@@QAEPAUHINSTANCE__@@PAUHWND__@@PAU2@@Z ; IMetaTable::LoadResourceDLL
  0003e	8b f8		 mov	 edi, eax
; File C:\Program Files (x86)\Microsoft Visual Studio\2019\Community\VC\Tools\MSVC\14.29.30133\atlmfc\include\afxwin1.inl

; 25   : 		return afxCurrentResourceHandle; }

  00040	e8 00 00 00 00	 call	 ?AfxGetModuleState@@YGPAVAFX_MODULE_STATE@@XZ ; AfxGetModuleState
; File D:\git\src\IBK\IBK_DRFN\ProjSrc\SrcChartEx\ChartAddIn\ChartPeriodSummaryAddIn\Include_Chart\Dll_Load\IMetaTable.h

; 1032 : 		m_hInstance = AfxGetResourceHandle();

  00045	8b 70 0c	 mov	 esi, DWORD PTR [eax+12]
  00048	89 75 f0	 mov	 DWORD PTR ___mlrs__$[ebp], esi
; File C:\Program Files (x86)\Microsoft Visual Studio\2019\Community\VC\Tools\MSVC\14.29.30133\atlmfc\include\afxwin1.inl

; 27   : 	{ ASSERT(hInstResource != NULL); afxCurrentResourceHandle = hInstResource; }

  0004b	e8 00 00 00 00	 call	 ?AfxGetModuleState@@YGPAVAFX_MODULE_STATE@@XZ ; AfxGetModuleState
  00050	89 78 0c	 mov	 DWORD PTR [eax+12], edi
; File D:\git\src\IBK\IBK_DRFN\ProjSrc\SrcChartEx\ChartAddIn\ChartPeriodSummaryAddIn\ChartPeriodSummaryAddInImp.cpp

; 504  : 	if(!m_nCommandType) return FALSE;

  00053	83 7b 68 00	 cmp	 DWORD PTR [ebx+104], 0
  00057	c7 45 fc 00 00
	00 00		 mov	 DWORD PTR __$EHRec$[ebp+8], 0
  0005e	0f 84 8b 00 00
	00		 je	 $LN14@OnLButtonU

; 505  : 
; 506  : 	CDC * pDC = CDC::FromHandle(p_hDC);

  00064	ff 75 08	 push	 DWORD PTR _p_hDC$[ebp]
  00067	e8 00 00 00 00	 call	 ?FromHandle@CDC@@SGPAV1@PAUHDC__@@@Z ; CDC::FromHandle

; 507  : 	if( !pDC) return FALSE;

  0006c	85 c0		 test	 eax, eax
  0006e	74 7f		 je	 SHORT $LN14@OnLButtonU

; 508  : 
; 509  : 	// (2006/2/6 - Seung-Won, Bae) Manage Mouse Action ID for Serial Action.
; 510  : 	if( !m_pIAddInToolMgr->ReleaseLButtonExclusive( m_pIAddInDllBase)) return FALSE;

  00070	8b 4b 28	 mov	 ecx, DWORD PTR [ebx+40]
  00073	ff 73 14	 push	 DWORD PTR [ebx+20]
  00076	8b 01		 mov	 eax, DWORD PTR [ecx]
  00078	ff 50 38	 call	 DWORD PTR [eax+56]
  0007b	85 c0		 test	 eax, eax
  0007d	74 70		 je	 SHORT $LN14@OnLButtonU

; 511  : 
; 512  : 
; 513  : 	if(p_dwMouseActionID == m_dwMouseActionID)

  0007f	8b 45 14	 mov	 eax, DWORD PTR _p_dwMouseActionID$[ebp]
  00082	3b 83 80 00 00
	00		 cmp	 eax, DWORD PTR [ebx+128]
  00088	75 5e		 jne	 SHORT $LN5@OnLButtonU

; 514  : 	{
; 515  : 		m_bDrag = FALSE;
; 516  :  		int ix = 0, iy = 0;
; 517  : // 		double dDummy;
; 518  :  		if(!m_pCurSelectedLine) return FALSE;

  0008a	8b 4b 78	 mov	 ecx, DWORD PTR [ebx+120]
  0008d	c7 43 4c 00 00
	00 00		 mov	 DWORD PTR [ebx+76], 0
  00094	85 c9		 test	 ecx, ecx
  00096	74 57		 je	 SHORT $LN14@OnLButtonU

; 519  : 		if(m_pCurSelectedLine->m_nStartIndex == m_pCurSelectedLine->m_nEndIndex)

  00098	8b 81 54 01 00
	00		 mov	 eax, DWORD PTR [ecx+340]
  0009e	3b 81 58 01 00
	00		 cmp	 eax, DWORD PTR [ecx+344]
  000a4	75 3a		 jne	 SHORT $LN7@OnLButtonU

; 520  : 		{
; 521  : 		//	m_pCurSelectedLine->Erase(&m_dcMem);
; 522  : 			POSITION pos = m_LineList.Find(m_pCurSelectedLine);

  000a6	6a 00		 push	 0
  000a8	51		 push	 ecx
  000a9	8d 8b 84 00 00
	00		 lea	 ecx, DWORD PTR [ebx+132]
  000af	e8 00 00 00 00	 call	 ?Find@CObList@@QBEPAU__POSITION@@PAVCObject@@PAU2@@Z ; CObList::Find

; 523  : 			m_LineList.RemoveAt(pos);

  000b4	50		 push	 eax
  000b5	8d 8b 84 00 00
	00		 lea	 ecx, DWORD PTR [ebx+132]
  000bb	e8 00 00 00 00	 call	 ?RemoveAt@CObList@@QAEXPAU__POSITION@@@Z ; CObList::RemoveAt

; 524  : 			UnregPS((long)m_pCurSelectedLine);

  000c0	ff 73 78	 push	 DWORD PTR [ebx+120]
  000c3	8d 4b f8	 lea	 ecx, DWORD PTR [ebx-8]
  000c6	e8 00 00 00 00	 call	 ?UnregPS@CChartPeriodSummaryAddInImp@@QAEXJ@Z ; CChartPeriodSummaryAddInImp::UnregPS

; 525  : 			delete m_pCurSelectedLine;

  000cb	8b 4b 78	 mov	 ecx, DWORD PTR [ebx+120]
  000ce	85 c9		 test	 ecx, ecx
  000d0	74 07		 je	 SHORT $LN9@OnLButtonU
  000d2	8b 01		 mov	 eax, DWORD PTR [ecx]
  000d4	6a 01		 push	 1
  000d6	ff 50 04	 call	 DWORD PTR [eax+4]
$LN9@OnLButtonU:

; 526  : 			m_pCurSelectedLine = NULL;

  000d9	c7 43 78 00 00
	00 00		 mov	 DWORD PTR [ebx+120], 0
$LN7@OnLButtonU:

; 527  : 	//		return TRUE;
; 528  : 		}
; 529  : 		m_pIChartOCX->InvalidateControl();

  000e0	8b 4b 04	 mov	 ecx, DWORD PTR [ebx+4]
  000e3	8b 01		 mov	 eax, DWORD PTR [ecx]
  000e5	ff 50 38	 call	 DWORD PTR [eax+56]
$LN5@OnLButtonU:

; 533  : 	return TRUE;

  000e8	bf 01 00 00 00	 mov	 edi, 1
  000ed	eb 02		 jmp	 SHORT $LN15@OnLButtonU
$LN14@OnLButtonU:
  000ef	33 ff		 xor	 edi, edi
$LN15@OnLButtonU:
; File D:\git\src\IBK\IBK_DRFN\ProjSrc\SrcChartEx\ChartAddIn\ChartPeriodSummaryAddIn\Include_Chart\Dll_Load\IMetaTable.h

; 1036 : 	{

  000f1	c7 45 fc 05 00
	00 00		 mov	 DWORD PTR __$EHRec$[ebp+8], 5
; File C:\Program Files (x86)\Microsoft Visual Studio\2019\Community\VC\Tools\MSVC\14.29.30133\atlmfc\include\afxwin1.inl

; 27   : 	{ ASSERT(hInstResource != NULL); afxCurrentResourceHandle = hInstResource; }

  000f8	e8 00 00 00 00	 call	 ?AfxGetModuleState@@YGPAVAFX_MODULE_STATE@@XZ ; AfxGetModuleState
  000fd	89 70 0c	 mov	 DWORD PTR [eax+12], esi
; File D:\git\src\IBK\IBK_DRFN\ProjSrc\SrcChartEx\ChartAddIn\ChartPeriodSummaryAddIn\ChartPeriodSummaryAddInImp.cpp

; 533  : 	return TRUE;

  00100	8b c7		 mov	 eax, edi

; 534  : 
; 535  : 
; 536  : }

  00102	8b 4d f4	 mov	 ecx, DWORD PTR __$EHRec$[ebp]
  00105	64 89 0d 00 00
	00 00		 mov	 DWORD PTR fs:0, ecx
  0010c	59		 pop	 ecx
  0010d	5f		 pop	 edi
  0010e	5e		 pop	 esi
  0010f	5b		 pop	 ebx
  00110	8b e5		 mov	 esp, ebp
  00112	5d		 pop	 ebp
  00113	c2 10 00	 ret	 16			; 00000010H
_TEXT	ENDS
;	COMDAT text$x
text$x	SEGMENT
__unwindfunclet$?OnLButtonUp@CChartPeriodSummaryAddInImp@@MAEHPAUHDC__@@IAAUtagPOINT@@K@Z$0:
  00000	8d 4d f0	 lea	 ecx, DWORD PTR ___mlrs__$[ebp]
  00003	e9 00 00 00 00	 jmp	 ??1CMultiLanguageResourceSetter@@QAE@XZ ; CMultiLanguageResourceSetter::~CMultiLanguageResourceSetter
  00008	cc		 int	 3
  00009	cc		 int	 3
  0000a	cc		 int	 3
  0000b	cc		 int	 3
  0000c	cc		 int	 3
__ehhandler$?OnLButtonUp@CChartPeriodSummaryAddInImp@@MAEHPAUHDC__@@IAAUtagPOINT@@K@Z:
  0000d	90		 npad	 1
  0000e	90		 npad	 1
  0000f	8b 54 24 08	 mov	 edx, DWORD PTR [esp+8]
  00013	8d 42 0c	 lea	 eax, DWORD PTR [edx+12]
  00016	8b 4a ec	 mov	 ecx, DWORD PTR [edx-20]
  00019	33 c8		 xor	 ecx, eax
  0001b	e8 00 00 00 00	 call	 @__security_check_cookie@4
  00020	b8 00 00 00 00	 mov	 eax, OFFSET __ehfuncinfo$?OnLButtonUp@CChartPeriodSummaryAddInImp@@MAEHPAUHDC__@@IAAUtagPOINT@@K@Z
  00025	e9 00 00 00 00	 jmp	 ___CxxFrameHandler3
text$x	ENDS
?OnLButtonUp@CChartPeriodSummaryAddInImp@@MAEHPAUHDC__@@IAAUtagPOINT@@K@Z ENDP ; CChartPeriodSummaryAddInImp::OnLButtonUp
; Function compile flags: /Ogtp
; File D:\git\src\IBK\IBK_DRFN\ProjSrc\SrcChartEx\ChartAddIn\ChartPeriodSummaryAddIn\ChartPeriodSummaryAddInImp.cpp
; File C:\Program Files (x86)\Microsoft Visual Studio\2019\Community\VC\Tools\MSVC\14.29.30133\atlmfc\include\afxwin1.inl
; File D:\git\src\IBK\IBK_DRFN\ProjSrc\SrcChartEx\ChartAddIn\ChartPeriodSummaryAddIn\Include_Chart\Dll_Load\IMetaTable.h
; File C:\Program Files (x86)\Microsoft Visual Studio\2019\Community\VC\Tools\MSVC\14.29.30133\atlmfc\include\afxwin1.inl
; File D:\git\src\IBK\IBK_DRFN\ProjSrc\SrcChartEx\ChartAddIn\ChartPeriodSummaryAddIn\ChartPeriodSummaryAddInImp.cpp
; File C:\Program Files (x86)\Microsoft Visual Studio\2019\Community\VC\Tools\MSVC\14.29.30133\atlmfc\include\atltypes.h
; File D:\git\src\IBK\IBK_DRFN\ProjSrc\SrcChartEx\ChartAddIn\ChartPeriodSummaryAddIn\ChartPeriodSummaryAddInImp.cpp
; File C:\Program Files (x86)\Microsoft Visual Studio\2019\Community\VC\Tools\MSVC\14.29.30133\atlmfc\include\atltypes.h
; File D:\git\src\IBK\IBK_DRFN\ProjSrc\SrcChartEx\ChartAddIn\ChartPeriodSummaryAddIn\ChartPeriodSummaryAddInImp.cpp
; File C:\Program Files (x86)\Microsoft Visual Studio\2019\Community\VC\Tools\MSVC\14.29.30133\atlmfc\include\atltypes.h
; File D:\git\src\IBK\IBK_DRFN\ProjSrc\SrcChartEx\ChartAddIn\ChartPeriodSummaryAddIn\ChartPeriodSummaryAddInImp.cpp
; File C:\Program Files (x86)\Microsoft Visual Studio\2019\Community\VC\Tools\MSVC\14.29.30133\atlmfc\include\atltypes.h
; File D:\git\src\IBK\IBK_DRFN\ProjSrc\SrcChartEx\ChartAddIn\ChartPeriodSummaryAddIn\ChartPeriodSummaryAddInImp.cpp
; File C:\Program Files (x86)\Microsoft Visual Studio\2019\Community\VC\Tools\MSVC\14.29.30133\atlmfc\include\afxcoll.inl
; File D:\git\src\IBK\IBK_DRFN\ProjSrc\SrcChartEx\ChartAddIn\ChartPeriodSummaryAddIn\ChartPeriodSummaryAddInImp.cpp
; File C:\Program Files (x86)\Microsoft Visual Studio\2019\Community\VC\Tools\MSVC\14.29.30133\atlmfc\include\atltypes.h
; File D:\git\src\IBK\IBK_DRFN\ProjSrc\SrcChartEx\ChartAddIn\ChartPeriodSummaryAddIn\ChartPeriodSummaryAddInImp.cpp
; File C:\Program Files (x86)\Microsoft Visual Studio\2019\Community\VC\Tools\MSVC\14.29.30133\atlmfc\include\atltypes.h
; File D:\git\src\IBK\IBK_DRFN\ProjSrc\SrcChartEx\ChartAddIn\ChartPeriodSummaryAddIn\ChartPeriodSummaryAddInImp.cpp
; File C:\Program Files (x86)\Microsoft Visual Studio\2019\Community\VC\Tools\MSVC\14.29.30133\atlmfc\include\atltypes.h
; File D:\git\src\IBK\IBK_DRFN\ProjSrc\SrcChartEx\ChartAddIn\ChartPeriodSummaryAddIn\ChartPeriodSummaryAddInImp.cpp
; File C:\Program Files (x86)\Microsoft Visual Studio\2019\Community\VC\Tools\MSVC\14.29.30133\atlmfc\include\atltypes.h
; File D:\git\src\IBK\IBK_DRFN\ProjSrc\SrcChartEx\ChartAddIn\ChartPeriodSummaryAddIn\ChartPeriodSummaryAddInImp.cpp
; File C:\Program Files (x86)\Microsoft Visual Studio\2019\Community\VC\Tools\MSVC\14.29.30133\atlmfc\include\atltypes.h
; File D:\git\src\IBK\IBK_DRFN\ProjSrc\SrcChartEx\ChartAddIn\ChartPeriodSummaryAddIn\ChartPeriodSummaryAddInImp.cpp
; File D:\git\src\IBK\IBK_DRFN\ProjSrc\SrcChartEx\ChartAddIn\ChartPeriodSummaryAddIn\Include_AddIn\I133691\_IString.h
; File D:\git\src\IBK\IBK_DRFN\ProjSrc\SrcChartEx\ChartAddIn\ChartPeriodSummaryAddIn\ChartPeriodSummaryAddInImp.cpp
; File C:\Program Files (x86)\Microsoft Visual Studio\2019\Community\VC\Tools\MSVC\14.29.30133\atlmfc\include\atltypes.h
; File D:\git\src\IBK\IBK_DRFN\ProjSrc\SrcChartEx\ChartAddIn\ChartPeriodSummaryAddIn\ChartPeriodSummaryAddInImp.cpp
; File C:\Program Files (x86)\Microsoft Visual Studio\2019\Community\VC\Tools\MSVC\14.29.30133\atlmfc\include\atltypes.h
; File D:\git\src\IBK\IBK_DRFN\ProjSrc\SrcChartEx\ChartAddIn\ChartPeriodSummaryAddIn\ChartPeriodSummaryAddInImp.cpp
; File C:\Program Files (x86)\Microsoft Visual Studio\2019\Community\VC\Tools\MSVC\14.29.30133\atlmfc\include\atltypes.h
; File D:\git\src\IBK\IBK_DRFN\ProjSrc\SrcChartEx\ChartAddIn\ChartPeriodSummaryAddIn\ChartPeriodSummaryAddInImp.cpp
; File C:\Program Files (x86)\Microsoft Visual Studio\2019\Community\VC\Tools\MSVC\14.29.30133\atlmfc\include\atltypes.h
; File D:\git\src\IBK\IBK_DRFN\ProjSrc\SrcChartEx\ChartAddIn\ChartPeriodSummaryAddIn\ChartPeriodSummaryAddInImp.cpp
; File C:\Program Files (x86)\Microsoft Visual Studio\2019\Community\VC\Tools\MSVC\14.29.30133\atlmfc\include\atltypes.h
; File D:\git\src\IBK\IBK_DRFN\ProjSrc\SrcChartEx\ChartAddIn\ChartPeriodSummaryAddIn\ChartPeriodSummaryAddInImp.cpp
; File D:\git\src\IBK\IBK_DRFN\ProjSrc\SrcChartEx\ChartAddIn\ChartPeriodSummaryAddIn\Include_AddIn\I133691\_IString.h
; File D:\git\src\IBK\IBK_DRFN\ProjSrc\SrcChartEx\ChartAddIn\ChartPeriodSummaryAddIn\ChartPeriodSummaryAddInImp.cpp
; File D:\git\src\IBK\IBK_DRFN\ProjSrc\SrcChartEx\ChartAddIn\ChartPeriodSummaryAddIn\Include_AddIn\I133691\_IString.h
; File D:\git\src\IBK\IBK_DRFN\ProjSrc\SrcChartEx\ChartAddIn\ChartPeriodSummaryAddIn\ChartPeriodSummaryAddInImp.cpp
; File D:\git\src\IBK\IBK_DRFN\ProjSrc\SrcChartEx\ChartAddIn\ChartPeriodSummaryAddIn\Include_AddIn\I133691\_IString.h
; File D:\git\src\IBK\IBK_DRFN\ProjSrc\SrcChartEx\ChartAddIn\ChartPeriodSummaryAddIn\ChartPeriodSummaryAddInImp.cpp
; File D:\git\src\IBK\IBK_DRFN\ProjSrc\SrcChartEx\ChartAddIn\ChartPeriodSummaryAddIn\Include_AddIn\I133691\_IString.h
; File D:\git\src\IBK\IBK_DRFN\ProjSrc\SrcChartEx\ChartAddIn\ChartPeriodSummaryAddIn\ChartPeriodSummaryAddInImp.cpp
; File C:\Program Files (x86)\Microsoft Visual Studio\2019\Community\VC\Tools\MSVC\14.29.30133\atlmfc\include\afx.inl
; File D:\git\src\IBK\IBK_DRFN\ProjSrc\SrcChartEx\ChartAddIn\ChartPeriodSummaryAddIn\ChartPeriodSummaryAddInImp.cpp
; File D:\git\src\IBK\IBK_DRFN\ProjSrc\SrcChartEx\ChartAddIn\ChartPeriodSummaryAddIn\Include_Chart\Dll_Load\IMetaTable.h
; File C:\Program Files (x86)\Microsoft Visual Studio\2019\Community\VC\Tools\MSVC\14.29.30133\atlmfc\include\afxwin1.inl
; File D:\git\src\IBK\IBK_DRFN\ProjSrc\SrcChartEx\ChartAddIn\ChartPeriodSummaryAddIn\ChartPeriodSummaryAddInImp.cpp
;	COMDAT ?OnLButtonDown@CChartPeriodSummaryAddInImp@@MAEHPAUHDC__@@IAAUtagPOINT@@K@Z
_TEXT	SEGMENT
_dRef$2 = -136						; size = 8
___mlrs__$ = -128					; size = 4
_nG$3 = -124						; size = 4
_ptAt$4 = -120						; size = 8
_nV$5 = -112						; size = 4
_dClickedValue$6 = -108					; size = 8
$T7 = -104						; size = 4
_iy$8 = -104						; size = 4
_nC$9 = -100						; size = 4
_nR$10 = -96						; size = 4
_szGraphName$11 = -92					; size = 8
$T12 = -92						; size = 8
_szMainRQ$13 = -84					; size = 8
_nCol$14 = -76						; size = 4
_nRow$15 = -72						; size = 4
_ptTemp$1$ = -68					; size = 4
_pIPacketForCur$1$ = -68				; size = 4
_strRQ$16 = -64						; size = 4
_p_hDC$GSCopy$1$ = -60					; size = 4
_pIPacketManager$1$ = -60				; size = 4
_pIBlock$1$ = -60					; size = 4
_ix$17 = -60						; size = 4
_ptTemp$2$ = -56					; size = 4
_pIPacketTime$1$ = -56					; size = 4
_pLine$1$ = -56						; size = 4
_point$GSCopy$1$ = -52					; size = 4
_pIPacketForRef$1$ = -52				; size = 4
_rctRegion$ = -48					; size = 16
$T18 = -32						; size = 16
_dCur$19 = -24						; size = 8
__$ArrayPad$ = -16					; size = 4
__$EHRec$ = -12						; size = 12
_p_hDC$ = 8						; size = 4
_nFlags$ = 12						; size = 4
_point$ = 16						; size = 4
_p_dwMouseActionID$ = 20				; size = 4
?OnLButtonDown@CChartPeriodSummaryAddInImp@@MAEHPAUHDC__@@IAAUtagPOINT@@K@Z PROC ; CChartPeriodSummaryAddInImp::OnLButtonDown, COMDAT
; _this$ = ecx

; 326  : {

  00000	55		 push	 ebp
  00001	8b ec		 mov	 ebp, esp
  00003	6a ff		 push	 -1
  00005	68 00 00 00 00	 push	 __ehhandler$?OnLButtonDown@CChartPeriodSummaryAddInImp@@MAEHPAUHDC__@@IAAUtagPOINT@@K@Z
  0000a	64 a1 00 00 00
	00		 mov	 eax, DWORD PTR fs:0
  00010	50		 push	 eax
  00011	83 ec 7c	 sub	 esp, 124		; 0000007cH
  00014	a1 00 00 00 00	 mov	 eax, DWORD PTR ___security_cookie
  00019	33 c5		 xor	 eax, ebp
  0001b	89 45 f0	 mov	 DWORD PTR __$ArrayPad$[ebp], eax
  0001e	53		 push	 ebx
  0001f	56		 push	 esi
  00020	57		 push	 edi
  00021	50		 push	 eax
  00022	8d 45 f4	 lea	 eax, DWORD PTR __$EHRec$[ebp]
  00025	64 a3 00 00 00
	00		 mov	 DWORD PTR fs:0, eax
  0002b	8b d9		 mov	 ebx, ecx
  0002d	8b 45 08	 mov	 eax, DWORD PTR _p_hDC$[ebp]
  00030	89 45 c4	 mov	 DWORD PTR _p_hDC$GSCopy$1$[ebp], eax
  00033	8b 45 10	 mov	 eax, DWORD PTR _point$[ebp]
  00036	89 45 cc	 mov	 DWORD PTR _point$GSCopy$1$[ebp], eax

; 327  : 	ML_SET_LANGUAGE_RES();

  00039	e8 00 00 00 00	 call	 ?AfxGetStaticModuleState@@YGPAVAFX_MODULE_STATE@@XZ ; AfxGetStaticModuleState
  0003e	b9 00 00 00 00	 mov	 ecx, OFFSET ?g_iMetaTable@@3VIMetaTable@@A ; g_iMetaTable
  00043	8b 40 08	 mov	 eax, DWORD PTR [eax+8]
  00046	50		 push	 eax
  00047	ff 73 0c	 push	 DWORD PTR [ebx+12]
  0004a	e8 00 00 00 00	 call	 ?LoadResourceDLL@IMetaTable@@QAEPAUHINSTANCE__@@PAUHWND__@@PAU2@@Z ; IMetaTable::LoadResourceDLL
  0004f	8b f8		 mov	 edi, eax
; File C:\Program Files (x86)\Microsoft Visual Studio\2019\Community\VC\Tools\MSVC\14.29.30133\atlmfc\include\afxwin1.inl

; 25   : 		return afxCurrentResourceHandle; }

  00051	e8 00 00 00 00	 call	 ?AfxGetModuleState@@YGPAVAFX_MODULE_STATE@@XZ ; AfxGetModuleState
; File D:\git\src\IBK\IBK_DRFN\ProjSrc\SrcChartEx\ChartAddIn\ChartPeriodSummaryAddIn\Include_Chart\Dll_Load\IMetaTable.h

; 1032 : 		m_hInstance = AfxGetResourceHandle();

  00056	8b 70 0c	 mov	 esi, DWORD PTR [eax+12]
  00059	89 75 80	 mov	 DWORD PTR ___mlrs__$[ebp], esi
; File C:\Program Files (x86)\Microsoft Visual Studio\2019\Community\VC\Tools\MSVC\14.29.30133\atlmfc\include\afxwin1.inl

; 27   : 	{ ASSERT(hInstResource != NULL); afxCurrentResourceHandle = hInstResource; }

  0005c	e8 00 00 00 00	 call	 ?AfxGetModuleState@@YGPAVAFX_MODULE_STATE@@XZ ; AfxGetModuleState
  00061	89 78 0c	 mov	 DWORD PTR [eax+12], edi
; File D:\git\src\IBK\IBK_DRFN\ProjSrc\SrcChartEx\ChartAddIn\ChartPeriodSummaryAddIn\ChartPeriodSummaryAddInImp.cpp

; 329  : 	if(!m_nCommandType) return FALSE;

  00064	83 7b 68 00	 cmp	 DWORD PTR [ebx+104], 0
  00068	c7 45 fc 00 00
	00 00		 mov	 DWORD PTR __$EHRec$[ebp+8], 0
  0006f	0f 84 d7 05 00
	00		 je	 $LN6@OnLButtonD

; 330  : 	POINT ptTemp = point;

  00075	8b 7d cc	 mov	 edi, DWORD PTR _point$GSCopy$1$[ebp]

; 331  : 
; 332  : 	// (2006/2/13 - Seung-Won, Bae) Check Empty Chart!
; 333  : 	if( !m_pIChartOCX->IsUseToolScrollBar() || m_pIChartOCX->IsOnSpecialChart() || m_pIChartManager->IsEmpty()) return FALSE;

  00078	8b 4b 04	 mov	 ecx, DWORD PTR [ebx+4]
  0007b	8b 07		 mov	 eax, DWORD PTR [edi]
  0007d	89 45 bc	 mov	 DWORD PTR _ptTemp$1$[ebp], eax
  00080	8b 47 04	 mov	 eax, DWORD PTR [edi+4]
  00083	89 45 c8	 mov	 DWORD PTR _ptTemp$2$[ebp], eax
  00086	8b 01		 mov	 eax, DWORD PTR [ecx]
  00088	ff 90 ac 00 00
	00		 call	 DWORD PTR [eax+172]
  0008e	85 c0		 test	 eax, eax
  00090	0f 84 b6 05 00
	00		 je	 $LN6@OnLButtonD
  00096	8b 4b 04	 mov	 ecx, DWORD PTR [ebx+4]
  00099	8b 01		 mov	 eax, DWORD PTR [ecx]
  0009b	ff 90 84 00 00
	00		 call	 DWORD PTR [eax+132]
  000a1	85 c0		 test	 eax, eax
  000a3	0f 85 a3 05 00
	00		 jne	 $LN6@OnLButtonD
  000a9	8b 4b 20	 mov	 ecx, DWORD PTR [ebx+32]
  000ac	8b 01		 mov	 eax, DWORD PTR [ecx]
  000ae	ff 50 2c	 call	 DWORD PTR [eax+44]
  000b1	85 c0		 test	 eax, eax
  000b3	0f 85 93 05 00
	00		 jne	 $LN6@OnLButtonD

; 334  : 	CRect rctRegion = m_pIChartManager->GetGraphRegionSumInColumn( ptTemp);

  000b9	8b 4b 20	 mov	 ecx, DWORD PTR [ebx+32]
  000bc	8d 55 e0	 lea	 edx, DWORD PTR $T18[ebp]
  000bf	ff 75 c8	 push	 DWORD PTR _ptTemp$2$[ebp]
  000c2	ff 75 bc	 push	 DWORD PTR _ptTemp$1$[ebp]
  000c5	8b 01		 mov	 eax, DWORD PTR [ecx]
  000c7	52		 push	 edx
  000c8	ff 90 88 00 00
	00		 call	 DWORD PTR [eax+136]
; File C:\Program Files (x86)\Microsoft Visual Studio\2019\Community\VC\Tools\MSVC\14.29.30133\atlmfc\include\atltypes.h

; 548  : 	::CopyRect(this, &srcRect);

  000ce	50		 push	 eax
  000cf	8d 45 d0	 lea	 eax, DWORD PTR _rctRegion$[ebp]
  000d2	50		 push	 eax
  000d3	ff 15 00 00 00
	00		 call	 DWORD PTR __imp__CopyRect@8

; 638  : 	return ::IsRectEmpty(this);

  000d9	8d 45 d0	 lea	 eax, DWORD PTR _rctRegion$[ebp]
  000dc	50		 push	 eax
  000dd	ff 15 00 00 00
	00		 call	 DWORD PTR __imp__IsRectEmpty@4
; File D:\git\src\IBK\IBK_DRFN\ProjSrc\SrcChartEx\ChartAddIn\ChartPeriodSummaryAddIn\ChartPeriodSummaryAddInImp.cpp

; 335  : 	if( rctRegion.IsRectEmpty()) return FALSE;

  000e3	85 c0		 test	 eax, eax
  000e5	0f 85 61 05 00
	00		 jne	 $LN6@OnLButtonD
; File C:\Program Files (x86)\Microsoft Visual Studio\2019\Community\VC\Tools\MSVC\14.29.30133\atlmfc\include\atltypes.h

; 648  : 	return ::PtInRect(this, point);

  000eb	ff 75 c8	 push	 DWORD PTR _ptTemp$2$[ebp]

; 414  : 	*(POINT*)this = initPt;

  000ee	8b 07		 mov	 eax, DWORD PTR [edi]
  000f0	8b 4f 04	 mov	 ecx, DWORD PTR [edi+4]

; 648  : 	return ::PtInRect(this, point);

  000f3	ff 75 bc	 push	 DWORD PTR _ptTemp$1$[ebp]
; File D:\git\src\IBK\IBK_DRFN\ProjSrc\SrcChartEx\ChartAddIn\ChartPeriodSummaryAddIn\ChartPeriodSummaryAddInImp.cpp

; 337  : 	m_ptInit = point;

  000f6	89 43 44	 mov	 DWORD PTR [ebx+68], eax
; File C:\Program Files (x86)\Microsoft Visual Studio\2019\Community\VC\Tools\MSVC\14.29.30133\atlmfc\include\atltypes.h

; 648  : 	return ::PtInRect(this, point);

  000f9	8d 45 d0	 lea	 eax, DWORD PTR _rctRegion$[ebp]
  000fc	50		 push	 eax
; File D:\git\src\IBK\IBK_DRFN\ProjSrc\SrcChartEx\ChartAddIn\ChartPeriodSummaryAddIn\ChartPeriodSummaryAddInImp.cpp

; 337  : 	m_ptInit = point;

  000fd	89 4b 48	 mov	 DWORD PTR [ebx+72], ecx
; File C:\Program Files (x86)\Microsoft Visual Studio\2019\Community\VC\Tools\MSVC\14.29.30133\atlmfc\include\atltypes.h

; 648  : 	return ::PtInRect(this, point);

  00100	ff 15 00 00 00
	00		 call	 DWORD PTR __imp__PtInRect@12
; File D:\git\src\IBK\IBK_DRFN\ProjSrc\SrcChartEx\ChartAddIn\ChartPeriodSummaryAddIn\ChartPeriodSummaryAddInImp.cpp

; 338  : 	if(!rctRegion.PtInRect(ptTemp)) return FALSE;

  00106	85 c0		 test	 eax, eax
  00108	0f 84 3e 05 00
	00		 je	 $LN6@OnLButtonD

; 339  : 
; 340  : 	CDC * pDC = CDC::FromHandle(p_hDC);

  0010e	ff 75 c4	 push	 DWORD PTR _p_hDC$GSCopy$1$[ebp]
  00111	e8 00 00 00 00	 call	 ?FromHandle@CDC@@SGPAV1@PAUHDC__@@@Z ; CDC::FromHandle

; 341  : //	m_pIChartOCX->SetCursorHandle(::LoadCursor(NULL, IDC_HAND));
; 342  : 	
; 343  : 	m_dwMouseActionID = p_dwMouseActionID;
; 344  : 	
; 345  : 	BOOL bSpace=TRUE;
; 346  : 	
; 347  : 	POSITION pos = m_LineList.GetHeadPosition();

  00116	8b bb 88 00 00
	00		 mov	 edi, DWORD PTR [ebx+136]
  0011c	8b 45 14	 mov	 eax, DWORD PTR _p_dwMouseActionID$[ebp]
  0011f	89 83 80 00 00
	00		 mov	 DWORD PTR [ebx+128], eax

; 348  : 	while(pos)

  00125	85 ff		 test	 edi, edi
  00127	74 3b		 je	 SHORT $LN210@OnLButtonD
  00129	0f 1f 80 00 00
	00 00		 npad	 7
$LL2@OnLButtonD:

; 350  : 		CPeriodObj* pLine = (CPeriodObj*)m_LineList.GetNext(pos);

  00130	8b 47 08	 mov	 eax, DWORD PTR [edi+8]

; 351  : 		if( pLine->IsInRegion(point) && m_nCommandType == 2)

  00133	83 ec 08	 sub	 esp, 8
; File C:\Program Files (x86)\Microsoft Visual Studio\2019\Community\VC\Tools\MSVC\14.29.30133\atlmfc\include\afxcoll.inl

; 432  : 		rPosition = (POSITION) pNode->pNext;

  00136	8b 3f		 mov	 edi, DWORD PTR [edi]
; File D:\git\src\IBK\IBK_DRFN\ProjSrc\SrcChartEx\ChartAddIn\ChartPeriodSummaryAddIn\ChartPeriodSummaryAddInImp.cpp

; 350  : 		CPeriodObj* pLine = (CPeriodObj*)m_LineList.GetNext(pos);

  00138	89 45 c8	 mov	 DWORD PTR _pLine$1$[ebp], eax

; 351  : 		if( pLine->IsInRegion(point) && m_nCommandType == 2)

  0013b	8b 45 cc	 mov	 eax, DWORD PTR _point$GSCopy$1$[ebp]
  0013e	8b 08		 mov	 ecx, DWORD PTR [eax]
  00140	8b 50 04	 mov	 edx, DWORD PTR [eax+4]
  00143	8b c4		 mov	 eax, esp
; File C:\Program Files (x86)\Microsoft Visual Studio\2019\Community\VC\Tools\MSVC\14.29.30133\atlmfc\include\atltypes.h

; 414  : 	*(POINT*)this = initPt;

  00145	89 08		 mov	 DWORD PTR [eax], ecx
; File D:\git\src\IBK\IBK_DRFN\ProjSrc\SrcChartEx\ChartAddIn\ChartPeriodSummaryAddIn\ChartPeriodSummaryAddInImp.cpp

; 351  : 		if( pLine->IsInRegion(point) && m_nCommandType == 2)

  00147	8b 4d c8	 mov	 ecx, DWORD PTR _pLine$1$[ebp]
; File C:\Program Files (x86)\Microsoft Visual Studio\2019\Community\VC\Tools\MSVC\14.29.30133\atlmfc\include\atltypes.h

; 414  : 	*(POINT*)this = initPt;

  0014a	89 50 04	 mov	 DWORD PTR [eax+4], edx
; File D:\git\src\IBK\IBK_DRFN\ProjSrc\SrcChartEx\ChartAddIn\ChartPeriodSummaryAddIn\ChartPeriodSummaryAddInImp.cpp

; 351  : 		if( pLine->IsInRegion(point) && m_nCommandType == 2)

  0014d	e8 00 00 00 00	 call	 ?IsInRegion@CPeriodObj@@QAEHVCPoint@@@Z ; CPeriodObj::IsInRegion
  00152	85 c0		 test	 eax, eax
  00154	74 0a		 je	 SHORT $LN209@OnLButtonD
  00156	83 7b 68 02	 cmp	 DWORD PTR [ebx+104], 2
  0015a	0f 84 b6 00 00
	00		 je	 $LN203@OnLButtonD
$LN209@OnLButtonD:

; 348  : 	while(pos)

  00160	85 ff		 test	 edi, edi
  00162	75 cc		 jne	 SHORT $LL2@OnLButtonD
$LN210@OnLButtonD:

; 378  : 			break;
; 379  : 		}
; 380  : 		else
; 381  : 		{
; 382  : 			bSpace = TRUE;
; 383  : 		}
; 384  : 	}
; 385  : 
; 386  : 	if(bSpace && (m_nCommandType == 1))

  00164	83 7b 68 01	 cmp	 DWORD PTR [ebx+104], 1
  00168	0f 85 c9 04 00
	00		 jne	 $LN206@OnLButtonD

; 387  : 	{
; 388  : 		if( !m_pIAddInToolMgr->IsLButtonExclusive( m_pIAddInDllBase))

  0016e	8b 4b 28	 mov	 ecx, DWORD PTR [ebx+40]
  00171	ff 73 14	 push	 DWORD PTR [ebx+20]
  00174	8b 01		 mov	 eax, DWORD PTR [ecx]
  00176	ff 50 34	 call	 DWORD PTR [eax+52]
  00179	85 c0		 test	 eax, eax
  0017b	75 13		 jne	 SHORT $LN18@OnLButtonD

; 389  : 		{
; 390  : 			if( !m_pIAddInToolMgr->GetLButtonExclusive( m_pIAddInDllBase)) return FALSE;

  0017d	8b 4b 28	 mov	 ecx, DWORD PTR [ebx+40]
  00180	ff 73 14	 push	 DWORD PTR [ebx+20]
  00183	8b 01		 mov	 eax, DWORD PTR [ecx]
  00185	ff 50 30	 call	 DWORD PTR [eax+48]
  00188	85 c0		 test	 eax, eax
  0018a	0f 84 bc 04 00
	00		 je	 $LN6@OnLButtonD
$LN18@OnLButtonD:
; File C:\Program Files (x86)\Microsoft Visual Studio\2019\Community\VC\Tools\MSVC\14.29.30133\atlmfc\include\atltypes.h

; 414  : 	*(POINT*)this = initPt;

  00190	8b 55 cc	 mov	 edx, DWORD PTR _point$GSCopy$1$[ebp]
; File D:\git\src\IBK\IBK_DRFN\ProjSrc\SrcChartEx\ChartAddIn\ChartPeriodSummaryAddIn\ChartPeriodSummaryAddInImp.cpp

; 392  : 		m_bMouseCaptured = TRUE;

  00193	c7 43 50 01 00
	00 00		 mov	 DWORD PTR [ebx+80], 1

; 394  : 		m_bNewDraw = TRUE;
; 395  :  		int ix, iy;
; 396  : 
; 397  : 		// Get Main RQ.
; 398  :  		CPoint ptAt = point;
; 399  : 		int nRow = -1, nCol = -1;

  0019a	c7 45 b8 ff ff
	ff ff		 mov	 DWORD PTR _nRow$15[ebp], -1
  001a1	c7 45 b4 ff ff
	ff ff		 mov	 DWORD PTR _nCol$14[ebp], -1
; File C:\Program Files (x86)\Microsoft Visual Studio\2019\Community\VC\Tools\MSVC\14.29.30133\atlmfc\include\atltypes.h

; 414  : 	*(POINT*)this = initPt;

  001a8	8b 02		 mov	 eax, DWORD PTR [edx]
  001aa	8b 4a 04	 mov	 ecx, DWORD PTR [edx+4]
; File D:\git\src\IBK\IBK_DRFN\ProjSrc\SrcChartEx\ChartAddIn\ChartPeriodSummaryAddIn\ChartPeriodSummaryAddInImp.cpp

; 393  : 		m_ptCursor = point;

  001ad	89 4b 58	 mov	 DWORD PTR [ebx+88], ecx

; 400  : 		if( !m_pIChartManager->GetBlockIndex( ptAt, nRow, nCol)) return FALSE;

  001b0	8b 4b 20	 mov	 ecx, DWORD PTR [ebx+32]
  001b3	89 43 54	 mov	 DWORD PTR [ebx+84], eax
  001b6	c7 43 74 01 00
	00 00		 mov	 DWORD PTR [ebx+116], 1
; File C:\Program Files (x86)\Microsoft Visual Studio\2019\Community\VC\Tools\MSVC\14.29.30133\atlmfc\include\atltypes.h

; 414  : 	*(POINT*)this = initPt;

  001bd	8b 3a		 mov	 edi, DWORD PTR [edx]
  001bf	8b 52 04	 mov	 edx, DWORD PTR [edx+4]
  001c2	89 7d 88	 mov	 DWORD PTR _ptAt$4[ebp], edi
  001c5	89 55 8c	 mov	 DWORD PTR _ptAt$4[ebp+4], edx
; File D:\git\src\IBK\IBK_DRFN\ProjSrc\SrcChartEx\ChartAddIn\ChartPeriodSummaryAddIn\ChartPeriodSummaryAddInImp.cpp

; 400  : 		if( !m_pIChartManager->GetBlockIndex( ptAt, nRow, nCol)) return FALSE;

  001c8	8b 01		 mov	 eax, DWORD PTR [ecx]
  001ca	8d 4d b4	 lea	 ecx, DWORD PTR _nCol$14[ebp]
  001cd	51		 push	 ecx
  001ce	8d 4d b8	 lea	 ecx, DWORD PTR _nRow$15[ebp]
  001d1	51		 push	 ecx
  001d2	8b 4b 20	 mov	 ecx, DWORD PTR [ebx+32]
  001d5	52		 push	 edx
  001d6	57		 push	 edi
  001d7	ff 90 8c 00 00
	00		 call	 DWORD PTR [eax+140]
  001dd	85 c0		 test	 eax, eax
  001df	0f 84 67 04 00
	00		 je	 $LN6@OnLButtonD

; 401  : 		
; 402  : 		CString strRQ;

  001e5	8d 4d c0	 lea	 ecx, DWORD PTR _strRQ$16[ebp]
  001e8	ff 15 00 00 00
	00		 call	 DWORD PTR __imp_??0?$CStringT@DV?$StrTraitMFC_DLL@DV?$ChTraitsCRT@D@ATL@@@@@ATL@@QAE@XZ

; 403  : 		ILPCSTR szMainRQ = m_pIChartOCX->GetCurrentRQ();

  001ee	8b 4b 04	 mov	 ecx, DWORD PTR [ebx+4]
  001f1	c6 45 fc 09	 mov	 BYTE PTR __$EHRec$[ebp+8], 9
  001f5	8b 01		 mov	 eax, DWORD PTR [ecx]
  001f7	ff 90 40 02 00
	00		 call	 DWORD PTR [eax+576]
; File D:\git\src\IBK\IBK_DRFN\ProjSrc\SrcChartEx\ChartAddIn\ChartPeriodSummaryAddIn\Include_AddIn\I133691\_IString.h

; 39   : 		m_pIStrData = p_pIString;	// Do not AddRef(). Because It must be Return Value.

  001fd	89 45 b0	 mov	 DWORD PTR _szMainRQ$13[ebp+4], eax

; 40   : 		if( m_pIStrData) m_szData = m_pIStrData->GetData();

  00200	85 c0		 test	 eax, eax
  00202	0f 84 c1 00 00
	00		 je	 $LN140@OnLButtonD
  00208	8b 10		 mov	 edx, DWORD PTR [eax]
  0020a	8b c8		 mov	 ecx, eax
  0020c	ff 52 10	 call	 DWORD PTR [edx+16]
  0020f	8b f8		 mov	 edi, eax
  00211	e9 b5 00 00 00	 jmp	 $LN212@OnLButtonD
$LN203@OnLButtonD:
; File D:\git\src\IBK\IBK_DRFN\ProjSrc\SrcChartEx\ChartAddIn\ChartPeriodSummaryAddIn\ChartPeriodSummaryAddInImp.cpp

; 353  : 			if( !m_pIAddInToolMgr->IsLButtonExclusive( m_pIAddInDllBase))

  00216	8b 4b 28	 mov	 ecx, DWORD PTR [ebx+40]
  00219	ff 73 14	 push	 DWORD PTR [ebx+20]
  0021c	8b 01		 mov	 eax, DWORD PTR [ecx]
  0021e	ff 50 34	 call	 DWORD PTR [eax+52]
  00221	85 c0		 test	 eax, eax
  00223	75 13		 jne	 SHORT $LN12@OnLButtonD

; 354  : 			{
; 355  : 				if( !m_pIAddInToolMgr->GetLButtonExclusive( m_pIAddInDllBase)) return FALSE;

  00225	8b 4b 28	 mov	 ecx, DWORD PTR [ebx+40]
  00228	ff 73 14	 push	 DWORD PTR [ebx+20]
  0022b	8b 01		 mov	 eax, DWORD PTR [ecx]
  0022d	ff 50 30	 call	 DWORD PTR [eax+48]
  00230	85 c0		 test	 eax, eax
  00232	0f 84 14 04 00
	00		 je	 $LN6@OnLButtonD
$LN12@OnLButtonD:

; 356  : 			}
; 357  : 
; 358  : 			m_bNewDraw = FALSE;
; 359  : 			if(m_pCurSelectedLine)

  00238	8b 43 78	 mov	 eax, DWORD PTR [ebx+120]
  0023b	c7 43 74 00 00
	00 00		 mov	 DWORD PTR [ebx+116], 0
  00242	85 c0		 test	 eax, eax
  00244	74 07		 je	 SHORT $LN13@OnLButtonD

; 360  : 				m_pCurSelectedLine->m_bSelected = FALSE;

  00246	c7 40 20 00 00
	00 00		 mov	 DWORD PTR [eax+32], 0
$LN13@OnLButtonD:
; File C:\Program Files (x86)\Microsoft Visual Studio\2019\Community\VC\Tools\MSVC\14.29.30133\atlmfc\include\atltypes.h

; 414  : 	*(POINT*)this = initPt;

  0024d	8b 55 cc	 mov	 edx, DWORD PTR _point$GSCopy$1$[ebp]
; File D:\git\src\IBK\IBK_DRFN\ProjSrc\SrcChartEx\ChartAddIn\ChartPeriodSummaryAddIn\ChartPeriodSummaryAddInImp.cpp

; 361  : 			m_pCurSelectedLine = pLine;

  00250	8b 4d c8	 mov	 ecx, DWORD PTR _pLine$1$[ebp]
  00253	89 4b 78	 mov	 DWORD PTR [ebx+120], ecx
; File C:\Program Files (x86)\Microsoft Visual Studio\2019\Community\VC\Tools\MSVC\14.29.30133\atlmfc\include\atltypes.h

; 414  : 	*(POINT*)this = initPt;

  00256	8b 02		 mov	 eax, DWORD PTR [edx]
  00258	8b 52 04	 mov	 edx, DWORD PTR [edx+4]
  0025b	89 45 a4	 mov	 DWORD PTR $T12[ebp], eax
; File D:\git\src\IBK\IBK_DRFN\ProjSrc\SrcChartEx\ChartAddIn\ChartPeriodSummaryAddIn\ChartPeriodSummaryAddInImp.cpp

; 362  : 			m_pCurSelectedLine->ButtonDownAt(point);

  0025e	8d 45 a4	 lea	 eax, DWORD PTR $T12[ebp]
  00261	50		 push	 eax
; File C:\Program Files (x86)\Microsoft Visual Studio\2019\Community\VC\Tools\MSVC\14.29.30133\atlmfc\include\atltypes.h

; 414  : 	*(POINT*)this = initPt;

  00262	89 55 a8	 mov	 DWORD PTR $T12[ebp+4], edx
; File D:\git\src\IBK\IBK_DRFN\ProjSrc\SrcChartEx\ChartAddIn\ChartPeriodSummaryAddIn\ChartPeriodSummaryAddInImp.cpp

; 362  : 			m_pCurSelectedLine->ButtonDownAt(point);

  00265	e8 00 00 00 00	 call	 ?ButtonDownAt@CPeriodObj@@QAEXABVCPoint@@@Z ; CPeriodObj::ButtonDownAt

; 363  : 			POSITION pos2 = m_LineList.Find(m_pCurSelectedLine);

  0026a	6a 00		 push	 0
  0026c	ff 73 78	 push	 DWORD PTR [ebx+120]
  0026f	8d 8b 84 00 00
	00		 lea	 ecx, DWORD PTR [ebx+132]
  00275	e8 00 00 00 00	 call	 ?Find@CObList@@QBEPAU__POSITION@@PAVCObject@@PAU2@@Z ; CObList::Find

; 364  : 			m_LineList.RemoveAt(pos2);

  0027a	50		 push	 eax
  0027b	8d 8b 84 00 00
	00		 lea	 ecx, DWORD PTR [ebx+132]
  00281	e8 00 00 00 00	 call	 ?RemoveAt@CObList@@QAEXPAU__POSITION@@@Z ; CObList::RemoveAt

; 365  : 			m_LineList.AddTail(m_pCurSelectedLine);

  00286	ff 73 78	 push	 DWORD PTR [ebx+120]
  00289	8d 8b 84 00 00
	00		 lea	 ecx, DWORD PTR [ebx+132]
  0028f	e8 00 00 00 00	 call	 ?AddTail@CObList@@QAEPAU__POSITION@@PAVCObject@@@Z ; CObList::AddTail

; 366  : 			m_pCurSelectedLine->m_bSelected = TRUE;

  00294	8b 43 78	 mov	 eax, DWORD PTR [ebx+120]
; File C:\Program Files (x86)\Microsoft Visual Studio\2019\Community\VC\Tools\MSVC\14.29.30133\atlmfc\include\atltypes.h

; 414  : 	*(POINT*)this = initPt;

  00297	8b 4d cc	 mov	 ecx, DWORD PTR _point$GSCopy$1$[ebp]
; File D:\git\src\IBK\IBK_DRFN\ProjSrc\SrcChartEx\ChartAddIn\ChartPeriodSummaryAddIn\ChartPeriodSummaryAddInImp.cpp

; 366  : 			m_pCurSelectedLine->m_bSelected = TRUE;

  0029a	c7 40 20 01 00
	00 00		 mov	 DWORD PTR [eax+32], 1
; File C:\Program Files (x86)\Microsoft Visual Studio\2019\Community\VC\Tools\MSVC\14.29.30133\atlmfc\include\atltypes.h

; 414  : 	*(POINT*)this = initPt;

  002a1	8b 01		 mov	 eax, DWORD PTR [ecx]
  002a3	8b 49 04	 mov	 ecx, DWORD PTR [ecx+4]
; File D:\git\src\IBK\IBK_DRFN\ProjSrc\SrcChartEx\ChartAddIn\ChartPeriodSummaryAddIn\ChartPeriodSummaryAddInImp.cpp

; 367  : 			m_ptCursor = point;

  002a6	89 4b 58	 mov	 DWORD PTR [ebx+88], ecx

; 368  : //			TRACE2("\n%d, %d\n", m_ptCursor.x, m_ptCursor.y);
; 369  : 			if( m_pIChartOCX != NULL )

  002a9	8b 4b 04	 mov	 ecx, DWORD PTR [ebx+4]
  002ac	89 43 54	 mov	 DWORD PTR [ebx+84], eax
  002af	85 c9		 test	 ecx, ecx
  002b1	74 0c		 je	 SHORT $LN14@OnLButtonD

; 370  : 			{
; 371  : 
; 372  : 				m_pIChartOCX->RunToolCommand( CToolOptionInfo::T_TOOL_SELECTION,	

  002b3	8b 01		 mov	 eax, DWORD PTR [ecx]
  002b5	6a 67		 push	 103			; 00000067H
  002b7	6a 20		 push	 32			; 00000020H
  002b9	ff 90 b0 01 00
	00		 call	 DWORD PTR [eax+432]
$LN14@OnLButtonD:

; 373  : 													CToolOptionInfo::T_TOOL_PERIOD_SUMMARY );	
; 374  : 			}
; 375  : 
; 376  : 			bSpace = FALSE;
; 377  : 			return TRUE;

  002bf	bf 01 00 00 00	 mov	 edi, 1
  002c4	e9 85 03 00 00	 jmp	 $LN60@OnLButtonD
$LN140@OnLButtonD:
; File D:\git\src\IBK\IBK_DRFN\ProjSrc\SrcChartEx\ChartAddIn\ChartPeriodSummaryAddIn\Include_AddIn\I133691\_IString.h

; 41   : 		else m_szData = NULL;

  002c9	33 ff		 xor	 edi, edi
$LN212@OnLButtonD:
; File D:\git\src\IBK\IBK_DRFN\ProjSrc\SrcChartEx\ChartAddIn\ChartPeriodSummaryAddIn\ChartPeriodSummaryAddInImp.cpp

; 403  : 		ILPCSTR szMainRQ = m_pIChartOCX->GetCurrentRQ();

  002cb	89 7d ac	 mov	 DWORD PTR _szMainRQ$13[ebp], edi

; 404  : 		int nR = nRow - 1, nC = nCol, nV = -1, nG = -1;

  002ce	8b 45 b8	 mov	 eax, DWORD PTR _nRow$15[ebp]

; 405  : 		ILPCSTR szGraphName = m_pIChartManager->FindFirstIndicator( _MTEXT( C2_PRICE_CHART), nR, nC, nV, nG, szMainRQ);

  002d1	8b 4b 20	 mov	 ecx, DWORD PTR [ebx+32]
  002d4	48		 dec	 eax
  002d5	89 45 a0	 mov	 DWORD PTR _nR$10[ebp], eax
  002d8	8b 45 b4	 mov	 eax, DWORD PTR _nCol$14[ebp]
  002db	89 45 9c	 mov	 DWORD PTR _nC$9[ebp], eax
  002de	8d 45 84	 lea	 eax, DWORD PTR _nG$3[ebp]
  002e1	57		 push	 edi
  002e2	50		 push	 eax
  002e3	8d 45 90	 lea	 eax, DWORD PTR _nV$5[ebp]
  002e6	c7 45 90 ff ff
	ff ff		 mov	 DWORD PTR _nV$5[ebp], -1
  002ed	50		 push	 eax
  002ee	8d 45 9c	 lea	 eax, DWORD PTR _nC$9[ebp]
  002f1	c7 45 84 ff ff
	ff ff		 mov	 DWORD PTR _nG$3[ebp], -1
  002f8	8b 11		 mov	 edx, DWORD PTR [ecx]
  002fa	50		 push	 eax
  002fb	8d 45 a0	 lea	 eax, DWORD PTR _nR$10[ebp]
  002fe	c6 45 fc 0a	 mov	 BYTE PTR __$EHRec$[ebp+8], 10 ; 0000000aH
  00302	50		 push	 eax
  00303	a1 54 00 00 00	 mov	 eax, DWORD PTR ?g_iMetaTable@@3VIMetaTable@@A+84
  00308	ff b0 28 03 00
	00		 push	 DWORD PTR [eax+808]
  0030e	ff 52 70	 call	 DWORD PTR [edx+112]
; File D:\git\src\IBK\IBK_DRFN\ProjSrc\SrcChartEx\ChartAddIn\ChartPeriodSummaryAddIn\Include_AddIn\I133691\_IString.h

; 39   : 		m_pIStrData = p_pIString;	// Do not AddRef(). Because It must be Return Value.

  00311	89 45 a8	 mov	 DWORD PTR _szGraphName$11[ebp+4], eax

; 40   : 		if( m_pIStrData) m_szData = m_pIStrData->GetData();

  00314	85 c0		 test	 eax, eax
  00316	74 0c		 je	 SHORT $LN144@OnLButtonD
  00318	8b 10		 mov	 edx, DWORD PTR [eax]
  0031a	8b c8		 mov	 ecx, eax
  0031c	ff 52 10	 call	 DWORD PTR [edx+16]
  0031f	89 45 a4	 mov	 DWORD PTR _szGraphName$11[ebp], eax
  00322	eb 07		 jmp	 SHORT $LN145@OnLButtonD
$LN144@OnLButtonD:

; 41   : 		else m_szData = NULL;

  00324	c7 45 a4 00 00
	00 00		 mov	 DWORD PTR _szGraphName$11[ebp], 0
$LN145@OnLButtonD:
; File D:\git\src\IBK\IBK_DRFN\ProjSrc\SrcChartEx\ChartAddIn\ChartPeriodSummaryAddIn\ChartPeriodSummaryAddInImp.cpp

; 406  : 		if( nR != nRow || nC != nCol)

  0032b	8b 45 b8	 mov	 eax, DWORD PTR _nRow$15[ebp]
  0032e	8b 55 b4	 mov	 edx, DWORD PTR _nCol$14[ebp]
  00331	c6 45 fc 0b	 mov	 BYTE PTR __$EHRec$[ebp+8], 11 ; 0000000bH
  00335	39 45 a0	 cmp	 DWORD PTR _nR$10[ebp], eax
  00338	75 05		 jne	 SHORT $LN21@OnLButtonD
  0033a	39 55 9c	 cmp	 DWORD PTR _nC$9[ebp], edx
  0033d	74 49		 je	 SHORT $LN22@OnLButtonD
$LN21@OnLButtonD:

; 407  : 		{
; 408  : 			IBlock *pIBlock = m_pIChartManager->GetBlock( nRow, nCol);

  0033f	8b 4b 20	 mov	 ecx, DWORD PTR [ebx+32]
  00342	52		 push	 edx
  00343	ff 75 b8	 push	 DWORD PTR _nRow$15[ebp]
  00346	8b 01		 mov	 eax, DWORD PTR [ecx]
  00348	ff 50 38	 call	 DWORD PTR [eax+56]
  0034b	89 45 c4	 mov	 DWORD PTR _pIBlock$1$[ebp], eax

; 409  : 			if( pIBlock)

  0034e	85 c0		 test	 eax, eax
  00350	74 36		 je	 SHORT $LN22@OnLButtonD

; 410  : 			{
; 411  : 				szMainRQ = pIBlock->GetMainRQ();

  00352	8b 10		 mov	 edx, DWORD PTR [eax]
  00354	8b c8		 mov	 ecx, eax
  00356	ff 52 78	 call	 DWORD PTR [edx+120]
  00359	8b f8		 mov	 edi, eax
; File D:\git\src\IBK\IBK_DRFN\ProjSrc\SrcChartEx\ChartAddIn\ChartPeriodSummaryAddIn\Include_AddIn\I133691\_IString.h

; 67   : 		if( m_pIStrData) m_pIStrData->Release();

  0035b	8b 45 b0	 mov	 eax, DWORD PTR _szMainRQ$13[ebp+4]
  0035e	85 c0		 test	 eax, eax
  00360	74 06		 je	 SHORT $LN148@OnLButtonD
  00362	8b 08		 mov	 ecx, DWORD PTR [eax]
  00364	50		 push	 eax
  00365	ff 51 08	 call	 DWORD PTR [ecx+8]
$LN148@OnLButtonD:

; 68   : 		m_pIStrData = stringSrc;	// Do not AddRef(). Because It must be Return Value.

  00368	89 7d b0	 mov	 DWORD PTR _szMainRQ$13[ebp+4], edi
  0036b	85 ff		 test	 edi, edi

; 69   : 		if( m_pIStrData) m_szData = m_pIStrData->GetData();

  0036d	74 0b		 je	 SHORT $LN149@OnLButtonD
  0036f	8b 07		 mov	 eax, DWORD PTR [edi]
  00371	8b cf		 mov	 ecx, edi
  00373	ff 50 10	 call	 DWORD PTR [eax+16]
  00376	8b f8		 mov	 edi, eax
  00378	eb 02		 jmp	 SHORT $LN213@OnLButtonD
$LN149@OnLButtonD:

; 70   : 		else m_szData = NULL;

  0037a	33 ff		 xor	 edi, edi
$LN213@OnLButtonD:
; File D:\git\src\IBK\IBK_DRFN\ProjSrc\SrcChartEx\ChartAddIn\ChartPeriodSummaryAddIn\ChartPeriodSummaryAddInImp.cpp

; 412  : 				pIBlock->Release();

  0037c	8b 4d c4	 mov	 ecx, DWORD PTR _pIBlock$1$[ebp]
  0037f	51		 push	 ecx
  00380	89 7d ac	 mov	 DWORD PTR _szMainRQ$13[ebp], edi
  00383	8b 01		 mov	 eax, DWORD PTR [ecx]
  00385	ff 50 08	 call	 DWORD PTR [eax+8]
$LN22@OnLButtonD:
; File D:\git\src\IBK\IBK_DRFN\ProjSrc\SrcChartEx\ChartAddIn\ChartPeriodSummaryAddIn\Include_AddIn\I133691\_IString.h

; 57   : 		if( !m_szData) return TRUE;

  00388	85 ff		 test	 edi, edi
  0038a	74 08		 je	 SHORT $LN208@OnLButtonD
; File D:\git\src\IBK\IBK_DRFN\ProjSrc\SrcChartEx\ChartAddIn\ChartPeriodSummaryAddIn\ChartPeriodSummaryAddInImp.cpp

; 415  : 		if( szMainRQ.IsEmpty()) strRQ = "DEFAULT";

  0038c	80 3f 00	 cmp	 BYTE PTR [edi], 0
  0038f	74 03		 je	 SHORT $LN208@OnLButtonD

; 416  : 		else strRQ = szMainRQ;

  00391	57		 push	 edi
  00392	eb 05		 jmp	 SHORT $LN214@OnLButtonD
$LN208@OnLButtonD:

; 415  : 		if( szMainRQ.IsEmpty()) strRQ = "DEFAULT";

  00394	68 00 00 00 00	 push	 OFFSET ??_C@_07MGCPDNLD@DEFAULT@
$LN214@OnLButtonD:

; 417  : 
; 418  : 		//   
; 419  :  		if( GetIndexFromPoint( strRQ, ptAt, ix, iy) == R_ERROR)

  00399	8d 4d c0	 lea	 ecx, DWORD PTR _strRQ$16[ebp]
  0039c	ff 15 00 00 00
	00		 call	 DWORD PTR __imp_??4?$CStringT@DV?$StrTraitMFC_DLL@DV?$ChTraitsCRT@D@ATL@@@@@ATL@@QAEAAV01@PBD@Z
  003a2	8d 4d 98	 lea	 ecx, DWORD PTR _iy$8[ebp]
  003a5	51		 push	 ecx
  003a6	8d 4d c4	 lea	 ecx, DWORD PTR _ix$17[ebp]
  003a9	51		 push	 ecx
  003aa	8d 4d 88	 lea	 ecx, DWORD PTR _ptAt$4[ebp]
  003ad	51		 push	 ecx
  003ae	ff 75 c0	 push	 DWORD PTR _strRQ$16[ebp]
  003b1	8d 4b f8	 lea	 ecx, DWORD PTR [ebx-8]
  003b4	e8 00 00 00 00	 call	 ?GetIndexFromPoint@CChartPeriodSummaryAddInImp@@QAEHPBDAAVCPoint@@AAH2@Z ; CChartPeriodSummaryAddInImp::GetIndexFromPoint
  003b9	83 f8 ff	 cmp	 eax, -1
  003bc	0f 84 58 02 00
	00		 je	 $LN65@OnLButtonD

; 420  : 			return FALSE;
; 421  : 
; 422  : 		IPacketManager *pIPacketManager = m_pIPacketListManager->GetPacketManager( strRQ);

  003c2	8b 4b 18	 mov	 ecx, DWORD PTR [ebx+24]
  003c5	ff 75 c0	 push	 DWORD PTR _strRQ$16[ebp]
  003c8	8b 01		 mov	 eax, DWORD PTR [ecx]
  003ca	ff 50 10	 call	 DWORD PTR [eax+16]
  003cd	8b f8		 mov	 edi, eax
  003cf	89 7d c4	 mov	 DWORD PTR _pIPacketManager$1$[ebp], edi

; 423  : 		if( !pIPacketManager) return FALSE;

  003d2	85 ff		 test	 edi, edi
  003d4	0f 84 40 02 00
	00		 je	 $LN65@OnLButtonD

; 424  : 
; 425  : 		IPacket *pIPacketForCur = pIPacketManager->GetPacket( _MTEXT(C0_CLOSE));

  003da	8b 0d 54 00 00
	00		 mov	 ecx, DWORD PTR ?g_iMetaTable@@3VIMetaTable@@A+84
  003e0	8b 17		 mov	 edx, DWORD PTR [edi]
  003e2	ff 71 14	 push	 DWORD PTR [ecx+20]
  003e5	8b cf		 mov	 ecx, edi
  003e7	ff 52 10	 call	 DWORD PTR [edx+16]

; 426  : 		IPacket *pIPacketForRef = pIPacketManager->GetPacket( _MTEXT(C0_OPEN));

  003ea	8b 0d 54 00 00
	00		 mov	 ecx, DWORD PTR ?g_iMetaTable@@3VIMetaTable@@A+84
  003f0	8b 17		 mov	 edx, DWORD PTR [edi]
  003f2	89 45 bc	 mov	 DWORD PTR _pIPacketForCur$1$[ebp], eax
  003f5	ff 71 08	 push	 DWORD PTR [ecx+8]
  003f8	8b cf		 mov	 ecx, edi
  003fa	ff 52 10	 call	 DWORD PTR [edx+16]

; 427  : 		IPacket *pIPacketTime = pIPacketManager->GetPacket( _MTEXT( C0_DATE_TIME));

  003fd	8b 0d 54 00 00
	00		 mov	 ecx, DWORD PTR ?g_iMetaTable@@3VIMetaTable@@A+84
  00403	8b 17		 mov	 edx, DWORD PTR [edi]
  00405	89 45 cc	 mov	 DWORD PTR _pIPacketForRef$1$[ebp], eax
  00408	ff 31		 push	 DWORD PTR [ecx]
  0040a	8b cf		 mov	 ecx, edi
  0040c	ff 52 10	 call	 DWORD PTR [edx+16]

; 428  : 		if( !pIPacketForCur || !pIPacketForRef || !pIPacketTime)

  0040f	8b 4d bc	 mov	 ecx, DWORD PTR _pIPacketForCur$1$[ebp]
  00412	89 45 c8	 mov	 DWORD PTR _pIPacketTime$1$[ebp], eax
  00415	85 c9		 test	 ecx, ecx
  00417	0f 84 dd 01 00
	00		 je	 $LN29@OnLButtonD
  0041d	83 7d cc 00	 cmp	 DWORD PTR _pIPacketForRef$1$[ebp], 0
  00421	0f 84 cd 01 00
	00		 je	 $LN28@OnLButtonD
  00427	85 c0		 test	 eax, eax
  00429	0f 84 c5 01 00
	00		 je	 $LN28@OnLButtonD

; 434  : 			return FALSE;
; 435  : 		}
; 436  : 
; 437  : 		double dCur, dRef;
; 438  : 		if( !pIPacketForCur->GetData( iy, dCur) || !pIPacketForRef->GetData( iy, dRef))

  0042f	8b 01		 mov	 eax, DWORD PTR [ecx]
  00431	8d 55 e8	 lea	 edx, DWORD PTR _dCur$19[ebp]
  00434	52		 push	 edx
  00435	ff 75 98	 push	 DWORD PTR _iy$8[ebp]
  00438	ff 50 40	 call	 DWORD PTR [eax+64]
  0043b	85 c0		 test	 eax, eax
  0043d	0f 84 9a 01 00
	00		 je	 $LN33@OnLButtonD
  00443	8b 4d cc	 mov	 ecx, DWORD PTR _pIPacketForRef$1$[ebp]
  00446	8d 95 78 ff ff
	ff		 lea	 edx, DWORD PTR _dRef$2[ebp]
  0044c	52		 push	 edx
  0044d	ff 75 98	 push	 DWORD PTR _iy$8[ebp]
  00450	8b 01		 mov	 eax, DWORD PTR [ecx]
  00452	ff 50 40	 call	 DWORD PTR [eax+64]
  00455	85 c0		 test	 eax, eax
  00457	0f 84 80 01 00
	00		 je	 $LN33@OnLButtonD
; File C:\Program Files (x86)\Microsoft Visual Studio\2019\Community\VC\Tools\MSVC\14.29.30133\atlmfc\include\afx.inl

; 116  : 	{ return ::operator new(nSize); }

  0045d	68 48 02 00 00	 push	 584			; 00000248H
  00462	e8 00 00 00 00	 call	 ??2@YAPAXI@Z		; operator new
  00467	83 c4 04	 add	 esp, 4
; File D:\git\src\IBK\IBK_DRFN\ProjSrc\SrcChartEx\ChartAddIn\ChartPeriodSummaryAddIn\ChartPeriodSummaryAddInImp.cpp

; 447  : 		CPeriodObj* pLine = new CPeriodObj;

  0046a	89 45 98	 mov	 DWORD PTR $T7[ebp], eax
  0046d	c6 45 fc 10	 mov	 BYTE PTR __$EHRec$[ebp+8], 16 ; 00000010H
  00471	85 c0		 test	 eax, eax
  00473	74 0b		 je	 SHORT $LN43@OnLButtonD
  00475	8b c8		 mov	 ecx, eax
  00477	e8 00 00 00 00	 call	 ??0CPeriodObj@@QAE@XZ	; CPeriodObj::CPeriodObj
  0047c	8b f8		 mov	 edi, eax
  0047e	eb 02		 jmp	 SHORT $LN44@OnLButtonD
$LN43@OnLButtonD:
  00480	33 ff		 xor	 edi, edi
$LN44@OnLButtonD:

; 448  : 		pLine->SetChartPeriodSummaryAddInImp(this);

  00482	8d 43 f8	 lea	 eax, DWORD PTR [ebx-8]
  00485	c6 45 fc 0b	 mov	 BYTE PTR __$EHRec$[ebp+8], 11 ; 0000000bH
  00489	50		 push	 eax
  0048a	8b cf		 mov	 ecx, edi
  0048c	e8 00 00 00 00	 call	 ?SetChartPeriodSummaryAddInImp@CPeriodObj@@QAEXPAVCChartPeriodSummaryAddInImp@@@Z ; CPeriodObj::SetChartPeriodSummaryAddInImp

; 449  :  		pLine->m_Num = m_LineList.GetCount();

  00491	8b 83 90 00 00
	00		 mov	 eax, DWORD PTR [ebx+144]

; 450  : //		pLine->m_nDateType = m_nDateType;
; 451  : 
; 452  : 		// (2008/11/5 - Seung-Won, Bae) for Multiple Item.
; 453  : 		pLine->m_strRQ = strRQ;

  00497	8d 8f f4 01 00
	00		 lea	 ecx, DWORD PTR [edi+500]
  0049d	89 47 24	 mov	 DWORD PTR [edi+36], eax
  004a0	8d 45 c0	 lea	 eax, DWORD PTR _strRQ$16[ebp]
  004a3	50		 push	 eax
  004a4	ff 15 00 00 00
	00		 call	 DWORD PTR __imp_??4?$CStringT@DV?$StrTraitMFC_DLL@DV?$ChTraitsCRT@D@ATL@@@@@ATL@@QAEAAV01@ABV01@@Z

; 454  : 		GetDateType( pLine);

  004aa	57		 push	 edi
  004ab	8d 4b f8	 lea	 ecx, DWORD PTR [ebx-8]
  004ae	e8 00 00 00 00	 call	 ?GetDateType@CChartPeriodSummaryAddInImp@@QAEHPAVCPeriodObj@@@Z ; CChartPeriodSummaryAddInImp::GetDateType

; 455  : 
; 456  : 		pLine->m_nRow = nRow;

  004b3	8b 45 b8	 mov	 eax, DWORD PTR _nRow$15[ebp]

; 457  : 		pLine->m_nCol = nCol;
; 458  : 		if( !GetChartBasicData( pLine))

  004b6	8d 4b f8	 lea	 ecx, DWORD PTR [ebx-8]
  004b9	89 87 f8 01 00
	00		 mov	 DWORD PTR [edi+504], eax
  004bf	8b 45 b4	 mov	 eax, DWORD PTR _nCol$14[ebp]
  004c2	57		 push	 edi
  004c3	89 87 fc 01 00
	00		 mov	 DWORD PTR [edi+508], eax
  004c9	e8 00 00 00 00	 call	 ?GetChartBasicData@CChartPeriodSummaryAddInImp@@QAEHPAVCPeriodObj@@@Z ; CChartPeriodSummaryAddInImp::GetChartBasicData
  004ce	85 c0		 test	 eax, eax
  004d0	75 0e		 jne	 SHORT $LN34@OnLButtonD

; 459  : 		{
; 460  : 			delete pLine;

  004d2	8b 07		 mov	 eax, DWORD PTR [edi]
  004d4	8b cf		 mov	 ecx, edi
  004d6	6a 01		 push	 1
  004d8	ff 50 04	 call	 DWORD PTR [eax+4]

; 461  : 			return FALSE;

  004db	e9 3a 01 00 00	 jmp	 $LN65@OnLButtonD
$LN34@OnLButtonD:

; 462  : 		}
; 463  : 
; 464  : 		double dClickedValue = m_pIChartOCX->ConvertYPositionToData(ptAt.y, pLine->m_rctGraphRegion.top, pLine->m_rctGraphRegion.bottom, pLine->m_dViewMax, pLine->m_dViewMin, pLine->m_bLog, pLine->m_bReverse);

  004e0	ff b7 24 02 00
	00		 push	 DWORD PTR [edi+548]
  004e6	f2 0f 10 87 28
	02 00 00	 movsd	 xmm0, QWORD PTR [edi+552]
  004ee	ff b7 20 02 00
	00		 push	 DWORD PTR [edi+544]
  004f4	8b 4b 04	 mov	 ecx, DWORD PTR [ebx+4]
  004f7	83 ec 10	 sub	 esp, 16			; 00000010H
  004fa	8b 01		 mov	 eax, DWORD PTR [ecx]
  004fc	f2 0f 11 44 24
	08		 movsd	 QWORD PTR [esp+8], xmm0
  00502	f2 0f 10 87 30
	02 00 00	 movsd	 xmm0, QWORD PTR [edi+560]
  0050a	f2 0f 11 04 24	 movsd	 QWORD PTR [esp], xmm0
  0050f	ff b7 0c 02 00
	00		 push	 DWORD PTR [edi+524]
  00515	8b 80 2c 01 00
	00		 mov	 eax, DWORD PTR [eax+300]
  0051b	ff b7 04 02 00
	00		 push	 DWORD PTR [edi+516]
  00521	ff 75 8c	 push	 DWORD PTR _ptAt$4[ebp+4]
  00524	ff d0		 call	 eax

; 465  : 		if( dClickedValue >= max(dRef, dCur)) pLine->SetUpDown(UP);

  00526	f2 0f 10 8d 78
	ff ff ff	 movsd	 xmm1, QWORD PTR _dRef$2[ebp]
  0052e	f2 0f 10 55 e8	 movsd	 xmm2, QWORD PTR _dCur$19[ebp]
  00533	0f 28 c1	 movaps	 xmm0, xmm1
  00536	f2 0f 5f c2	 maxsd	 xmm0, xmm2
  0053a	dd 5d 94	 fstp	 QWORD PTR _dClickedValue$6[ebp]
  0053d	f2 0f 10 5d 94	 movsd	 xmm3, QWORD PTR _dClickedValue$6[ebp]
  00542	66 0f 2f d8	 comisd	 xmm3, xmm0
  00546	73 11		 jae	 SHORT $LN37@OnLButtonD

; 466  : 		else if(dClickedValue <= min(dRef, dCur)) pLine->SetUpDown(DOWN);

  00548	f2 0f 5d ca	 minsd	 xmm1, xmm2
  0054c	66 0f 2f cb	 comisd	 xmm1, xmm3
  00550	72 07		 jb	 SHORT $LN37@OnLButtonD
  00552	b9 01 00 00 00	 mov	 ecx, 1
  00557	eb 03		 jmp	 SHORT $LN38@OnLButtonD
$LN37@OnLButtonD:

; 467  : 		else pLine->SetUpDown(UP);

  00559	83 c9 ff	 or	 ecx, -1
$LN38@OnLButtonD:

; 468  : 
; 469  :  		pLine->ButtonDownAt(ptAt);

  0055c	8d 45 88	 lea	 eax, DWORD PTR _ptAt$4[ebp]
  0055f	89 8f e4 01 00
	00		 mov	 DWORD PTR [edi+484], ecx
  00565	50		 push	 eax
  00566	8b cf		 mov	 ecx, edi
  00568	e8 00 00 00 00	 call	 ?ButtonDownAt@CPeriodObj@@QAEXABVCPoint@@@Z ; CPeriodObj::ButtonDownAt

; 470  : 		pLine->m_CurClickedPosition = E_PT;

  0056d	c7 87 10 01 00
	00 02 00 00 00	 mov	 DWORD PTR [edi+272], 2

; 471  : 		
; 472  : 		if(m_pCurSelectedLine)	m_pCurSelectedLine->m_bSelected = FALSE;	//      

  00577	8b 43 78	 mov	 eax, DWORD PTR [ebx+120]
  0057a	85 c0		 test	 eax, eax
  0057c	74 07		 je	 SHORT $LN39@OnLButtonD
  0057e	c7 40 20 00 00
	00 00		 mov	 DWORD PTR [eax+32], 0
$LN39@OnLButtonD:

; 473  : 
; 474  : 		m_pCurSelectedLine = pLine;
; 475  : 		m_pCurSelectedLine->m_bSelected = TRUE;
; 476  : 
; 477  : 		// 20081007 JS.Kim	  <<
; 478  : 		pLine->m_nTimeDiff = pIPacketManager->GetBaseTimeDifference();

  00585	8b 4d c4	 mov	 ecx, DWORD PTR _pIPacketManager$1$[ebp]
  00588	89 7b 78	 mov	 DWORD PTR [ebx+120], edi
  0058b	c7 47 20 01 00
	00 00		 mov	 DWORD PTR [edi+32], 1
  00592	8b 01		 mov	 eax, DWORD PTR [ecx]
  00594	ff 50 44	 call	 DWORD PTR [eax+68]

; 479  : 
; 480  : 		m_LineList.AddTail(pLine);

  00597	57		 push	 edi
  00598	8d 8b 84 00 00
	00		 lea	 ecx, DWORD PTR [ebx+132]
  0059e	89 87 e0 01 00
	00		 mov	 DWORD PTR [edi+480], eax
  005a4	e8 00 00 00 00	 call	 ?AddTail@CObList@@QAEPAU__POSITION@@PAVCObject@@@Z ; CObList::AddTail

; 481  : 		RegPS((long)pLine);

  005a9	57		 push	 edi
  005aa	8d 4b f8	 lea	 ecx, DWORD PTR [ebx-8]
  005ad	e8 00 00 00 00	 call	 ?RegPS@CChartPeriodSummaryAddInImp@@QAEXJ@Z ; CChartPeriodSummaryAddInImp::RegPS

; 482  : 		
; 483  : 		pIPacketForCur->Release();

  005b2	8b 4d bc	 mov	 ecx, DWORD PTR _pIPacketForCur$1$[ebp]
  005b5	51		 push	 ecx
  005b6	8b 01		 mov	 eax, DWORD PTR [ecx]
  005b8	ff 50 08	 call	 DWORD PTR [eax+8]

; 484  : 		pIPacketForRef->Release();

  005bb	8b 4d cc	 mov	 ecx, DWORD PTR _pIPacketForRef$1$[ebp]
  005be	51		 push	 ecx
  005bf	8b 01		 mov	 eax, DWORD PTR [ecx]
  005c1	ff 50 08	 call	 DWORD PTR [eax+8]

; 485  : 		pIPacketTime->Release();

  005c4	8b 4d c8	 mov	 ecx, DWORD PTR _pIPacketTime$1$[ebp]
  005c7	51		 push	 ecx
  005c8	8b 01		 mov	 eax, DWORD PTR [ecx]
  005ca	ff 50 08	 call	 DWORD PTR [eax+8]

; 486  : 		pIPacketManager->Release();

  005cd	8b 4d c4	 mov	 ecx, DWORD PTR _pIPacketManager$1$[ebp]
  005d0	51		 push	 ecx
  005d1	8b 01		 mov	 eax, DWORD PTR [ecx]
  005d3	ff 50 08	 call	 DWORD PTR [eax+8]

; 487  : 
; 488  : 		return TRUE;

  005d6	bf 01 00 00 00	 mov	 edi, 1
  005db	eb 3f		 jmp	 SHORT $LN68@OnLButtonD
$LN33@OnLButtonD:

; 439  : 		{
; 440  : 			pIPacketForCur->Release();

  005dd	8b 4d bc	 mov	 ecx, DWORD PTR _pIPacketForCur$1$[ebp]
  005e0	51		 push	 ecx
  005e1	8b 01		 mov	 eax, DWORD PTR [ecx]
  005e3	ff 50 08	 call	 DWORD PTR [eax+8]

; 441  : 			pIPacketForRef->Release();

  005e6	8b 4d cc	 mov	 ecx, DWORD PTR _pIPacketForRef$1$[ebp]
  005e9	51		 push	 ecx
  005ea	8b 01		 mov	 eax, DWORD PTR [ecx]
  005ec	ff 50 08	 call	 DWORD PTR [eax+8]

; 442  : 			pIPacketTime->Release();

  005ef	8b 4d c8	 mov	 ecx, DWORD PTR _pIPacketTime$1$[ebp]

; 443  : 			pIPacketManager->Release();
; 444  : 			return FALSE;

  005f2	eb 1a		 jmp	 SHORT $LN215@OnLButtonD
$LN28@OnLButtonD:

; 429  : 		{
; 430  : 			if( pIPacketForCur) pIPacketForCur->Release();

  005f4	8b 01		 mov	 eax, DWORD PTR [ecx]
  005f6	51		 push	 ecx
  005f7	ff 50 08	 call	 DWORD PTR [eax+8]
$LN29@OnLButtonD:

; 431  : 			if( pIPacketForRef) pIPacketForRef->Release();

  005fa	8b 4d cc	 mov	 ecx, DWORD PTR _pIPacketForRef$1$[ebp]
  005fd	85 c9		 test	 ecx, ecx
  005ff	74 06		 je	 SHORT $LN30@OnLButtonD
  00601	8b 01		 mov	 eax, DWORD PTR [ecx]
  00603	51		 push	 ecx
  00604	ff 50 08	 call	 DWORD PTR [eax+8]
$LN30@OnLButtonD:

; 432  : 			if( pIPacketTime) pIPacketTime->Release();

  00607	8b 4d c8	 mov	 ecx, DWORD PTR _pIPacketTime$1$[ebp]
  0060a	85 c9		 test	 ecx, ecx
  0060c	74 06		 je	 SHORT $LN31@OnLButtonD
$LN215@OnLButtonD:
  0060e	8b 01		 mov	 eax, DWORD PTR [ecx]
  00610	51		 push	 ecx
  00611	ff 50 08	 call	 DWORD PTR [eax+8]
$LN31@OnLButtonD:

; 433  : 			pIPacketManager->Release();

  00614	8b 07		 mov	 eax, DWORD PTR [edi]
  00616	57		 push	 edi
  00617	ff 50 08	 call	 DWORD PTR [eax+8]
$LN65@OnLButtonD:
  0061a	33 ff		 xor	 edi, edi
$LN68@OnLButtonD:

; 487  : 
; 488  : 		return TRUE;

  0061c	8d 4d a4	 lea	 ecx, DWORD PTR _szGraphName$11[ebp]
  0061f	e8 00 00 00 00	 call	 ??1ILPCSTR133691@@QAE@XZ ; ILPCSTR133691::~ILPCSTR133691
  00624	8d 4d ac	 lea	 ecx, DWORD PTR _szMainRQ$13[ebp]
  00627	e8 00 00 00 00	 call	 ??1ILPCSTR133691@@QAE@XZ ; ILPCSTR133691::~ILPCSTR133691
  0062c	8d 4d c0	 lea	 ecx, DWORD PTR _strRQ$16[ebp]
  0062f	ff 15 00 00 00
	00		 call	 DWORD PTR __imp_??1?$CStringT@DV?$StrTraitMFC_DLL@DV?$ChTraitsCRT@D@ATL@@@@@ATL@@QAE@XZ
  00635	eb 17		 jmp	 SHORT $LN60@OnLButtonD
$LN206@OnLButtonD:

; 489  : 	}
; 490  : 	else if(bSpace && (m_nCommandType != 1))	// no action
; 491  :  	{
; 492  : 		if(m_pCurSelectedLine)

  00637	8b 43 78	 mov	 eax, DWORD PTR [ebx+120]
  0063a	85 c0		 test	 eax, eax
  0063c	74 07		 je	 SHORT $LN41@OnLButtonD

; 493  : 			m_pCurSelectedLine->m_bSelected = FALSE;

  0063e	c7 40 20 00 00
	00 00		 mov	 DWORD PTR [eax+32], 0
$LN41@OnLButtonD:

; 494  : 		m_pCurSelectedLine = NULL;

  00645	c7 43 78 00 00
	00 00		 mov	 DWORD PTR [ebx+120], 0
$LN6@OnLButtonD:
; File D:\git\src\IBK\IBK_DRFN\ProjSrc\SrcChartEx\ChartAddIn\ChartPeriodSummaryAddIn\Include_Chart\Dll_Load\IMetaTable.h

; 1036 : 	{

  0064c	33 ff		 xor	 edi, edi
$LN60@OnLButtonD:
  0064e	c7 45 fc 14 00
	00 00		 mov	 DWORD PTR __$EHRec$[ebp+8], 20 ; 00000014H
; File C:\Program Files (x86)\Microsoft Visual Studio\2019\Community\VC\Tools\MSVC\14.29.30133\atlmfc\include\afxwin1.inl

; 27   : 	{ ASSERT(hInstResource != NULL); afxCurrentResourceHandle = hInstResource; }

  00655	e8 00 00 00 00	 call	 ?AfxGetModuleState@@YGPAVAFX_MODULE_STATE@@XZ ; AfxGetModuleState
  0065a	89 70 0c	 mov	 DWORD PTR [eax+12], esi
; File D:\git\src\IBK\IBK_DRFN\ProjSrc\SrcChartEx\ChartAddIn\ChartPeriodSummaryAddIn\ChartPeriodSummaryAddInImp.cpp

; 498  : 	return FALSE;

  0065d	8b c7		 mov	 eax, edi

; 499  : }

  0065f	8b 4d f4	 mov	 ecx, DWORD PTR __$EHRec$[ebp]
  00662	64 89 0d 00 00
	00 00		 mov	 DWORD PTR fs:0, ecx
  00669	59		 pop	 ecx
  0066a	5f		 pop	 edi
  0066b	5e		 pop	 esi
  0066c	5b		 pop	 ebx
  0066d	8b 4d f0	 mov	 ecx, DWORD PTR __$ArrayPad$[ebp]
  00670	33 cd		 xor	 ecx, ebp
  00672	e8 00 00 00 00	 call	 @__security_check_cookie@4
  00677	8b e5		 mov	 esp, ebp
  00679	5d		 pop	 ebp
  0067a	c2 10 00	 ret	 16			; 00000010H
_TEXT	ENDS
;	COMDAT text$x
text$x	SEGMENT
__unwindfunclet$?OnLButtonDown@CChartPeriodSummaryAddInImp@@MAEHPAUHDC__@@IAAUtagPOINT@@K@Z$0:
  00000	8d 4d 80	 lea	 ecx, DWORD PTR ___mlrs__$[ebp]
  00003	e9 00 00 00 00	 jmp	 ??1CMultiLanguageResourceSetter@@QAE@XZ ; CMultiLanguageResourceSetter::~CMultiLanguageResourceSetter
__unwindfunclet$?OnLButtonDown@CChartPeriodSummaryAddInImp@@MAEHPAUHDC__@@IAAUtagPOINT@@K@Z$1:
  00008	8d 4d c0	 lea	 ecx, DWORD PTR _strRQ$16[ebp]
  0000b	ff 25 00 00 00
	00		 jmp	 DWORD PTR __imp_??1?$CStringT@DV?$StrTraitMFC_DLL@DV?$ChTraitsCRT@D@ATL@@@@@ATL@@QAE@XZ
__unwindfunclet$?OnLButtonDown@CChartPeriodSummaryAddInImp@@MAEHPAUHDC__@@IAAUtagPOINT@@K@Z$2:
  00011	8d 4d ac	 lea	 ecx, DWORD PTR _szMainRQ$13[ebp]
  00014	e9 00 00 00 00	 jmp	 ??1ILPCSTR133691@@QAE@XZ ; ILPCSTR133691::~ILPCSTR133691
__unwindfunclet$?OnLButtonDown@CChartPeriodSummaryAddInImp@@MAEHPAUHDC__@@IAAUtagPOINT@@K@Z$3:
  00019	8d 4d a4	 lea	 ecx, DWORD PTR _szGraphName$11[ebp]
  0001c	e9 00 00 00 00	 jmp	 ??1ILPCSTR133691@@QAE@XZ ; ILPCSTR133691::~ILPCSTR133691
__unwindfunclet$?OnLButtonDown@CChartPeriodSummaryAddInImp@@MAEHPAUHDC__@@IAAUtagPOINT@@K@Z$4:
  00021	8b 45 98	 mov	 eax, DWORD PTR $T7[ebp]
  00024	50		 push	 eax
  00025	e8 00 00 00 00	 call	 ??3CObject@@SGXPAX@Z	; CObject::operator delete
  0002a	c3		 ret	 0
  0002b	cc		 int	 3
  0002c	cc		 int	 3
  0002d	cc		 int	 3
  0002e	cc		 int	 3
  0002f	cc		 int	 3
__ehhandler$?OnLButtonDown@CChartPeriodSummaryAddInImp@@MAEHPAUHDC__@@IAAUtagPOINT@@K@Z:
  00030	90		 npad	 1
  00031	90		 npad	 1
  00032	8b 54 24 08	 mov	 edx, DWORD PTR [esp+8]
  00036	8d 42 0c	 lea	 eax, DWORD PTR [edx+12]
  00039	8b 8a 74 ff ff
	ff		 mov	 ecx, DWORD PTR [edx-140]
  0003f	33 c8		 xor	 ecx, eax
  00041	e8 00 00 00 00	 call	 @__security_check_cookie@4
  00046	8b 4a fc	 mov	 ecx, DWORD PTR [edx-4]
  00049	33 c8		 xor	 ecx, eax
  0004b	e8 00 00 00 00	 call	 @__security_check_cookie@4
  00050	b8 00 00 00 00	 mov	 eax, OFFSET __ehfuncinfo$?OnLButtonDown@CChartPeriodSummaryAddInImp@@MAEHPAUHDC__@@IAAUtagPOINT@@K@Z
  00055	e9 00 00 00 00	 jmp	 ___CxxFrameHandler3
text$x	ENDS
?OnLButtonDown@CChartPeriodSummaryAddInImp@@MAEHPAUHDC__@@IAAUtagPOINT@@K@Z ENDP ; CChartPeriodSummaryAddInImp::OnLButtonDown
; Function compile flags: /Ogtp
; File D:\git\src\IBK\IBK_DRFN\ProjSrc\SrcChartEx\ChartAddIn\ChartPeriodSummaryAddIn\ChartPeriodSummaryAddInImp.cpp
; File C:\Program Files (x86)\Microsoft Visual Studio\2019\Community\VC\Tools\MSVC\14.29.30133\atlmfc\include\afxwin1.inl
; File D:\git\src\IBK\IBK_DRFN\ProjSrc\SrcChartEx\ChartAddIn\ChartPeriodSummaryAddIn\Include_Chart\Dll_Load\IMetaTable.h
; File C:\Program Files (x86)\Microsoft Visual Studio\2019\Community\VC\Tools\MSVC\14.29.30133\atlmfc\include\afxwin1.inl
; File D:\git\src\IBK\IBK_DRFN\ProjSrc\SrcChartEx\ChartAddIn\ChartPeriodSummaryAddIn\ChartPeriodSummaryAddInImp.cpp
; File C:\Program Files (x86)\Microsoft Visual Studio\2019\Community\VC\Tools\MSVC\14.29.30133\atlmfc\include\atltypes.h
; File D:\git\src\IBK\IBK_DRFN\ProjSrc\SrcChartEx\ChartAddIn\ChartPeriodSummaryAddIn\ChartPeriodSummaryAddInImp.cpp
; File C:\Program Files (x86)\Microsoft Visual Studio\2019\Community\VC\Tools\MSVC\14.29.30133\atlmfc\include\atltypes.h
; File D:\git\src\IBK\IBK_DRFN\ProjSrc\SrcChartEx\ChartAddIn\ChartPeriodSummaryAddIn\ChartPeriodSummaryAddInImp.cpp
; File C:\Program Files (x86)\Microsoft Visual Studio\2019\Community\VC\Tools\MSVC\14.29.30133\atlmfc\include\atltypes.h
; File D:\git\src\IBK\IBK_DRFN\ProjSrc\SrcChartEx\ChartAddIn\ChartPeriodSummaryAddIn\ChartPeriodSummaryAddInImp.cpp
; File C:\Program Files (x86)\Microsoft Visual Studio\2019\Community\VC\Tools\MSVC\14.29.30133\atlmfc\include\atlsimpstr.h
; File D:\git\src\IBK\IBK_DRFN\ProjSrc\SrcChartEx\ChartAddIn\ChartPeriodSummaryAddIn\ChartPeriodSummaryAddInImp.cpp
; File C:\Program Files (x86)\Microsoft Visual Studio\2019\Community\VC\Tools\MSVC\14.29.30133\atlmfc\include\atlsimpstr.h
; File D:\git\src\IBK\IBK_DRFN\ProjSrc\SrcChartEx\ChartAddIn\ChartPeriodSummaryAddIn\ChartPeriodSummaryAddInImp.cpp
; File C:\Program Files (x86)\Microsoft Visual Studio\2019\Community\VC\Tools\MSVC\14.29.30133\atlmfc\include\atlsimpstr.h
; File D:\git\src\IBK\IBK_DRFN\ProjSrc\SrcChartEx\ChartAddIn\ChartPeriodSummaryAddIn\ChartPeriodSummaryAddInImp.cpp
; File C:\Program Files (x86)\Microsoft Visual Studio\2019\Community\VC\Tools\MSVC\14.29.30133\atlmfc\include\atlsimpstr.h
; File D:\git\src\IBK\IBK_DRFN\ProjSrc\SrcChartEx\ChartAddIn\ChartPeriodSummaryAddIn\ChartPeriodSummaryAddInImp.cpp
; File C:\Program Files (x86)\Microsoft Visual Studio\2019\Community\VC\Tools\MSVC\14.29.30133\atlmfc\include\atlsimpstr.h
; File D:\git\src\IBK\IBK_DRFN\ProjSrc\SrcChartEx\ChartAddIn\ChartPeriodSummaryAddIn\ChartPeriodSummaryAddInImp.cpp
; File C:\Program Files (x86)\Microsoft Visual Studio\2019\Community\VC\Tools\MSVC\14.29.30133\atlmfc\include\atlsimpstr.h
; File D:\git\src\IBK\IBK_DRFN\ProjSrc\SrcChartEx\ChartAddIn\ChartPeriodSummaryAddIn\ChartPeriodSummaryAddInImp.cpp
; File C:\Program Files (x86)\Microsoft Visual Studio\2019\Community\VC\Tools\MSVC\14.29.30133\atlmfc\include\atlsimpstr.h
; File D:\git\src\IBK\IBK_DRFN\ProjSrc\SrcChartEx\ChartAddIn\ChartPeriodSummaryAddIn\ChartPeriodSummaryAddInImp.cpp
; File C:\Program Files (x86)\Microsoft Visual Studio\2019\Community\VC\Tools\MSVC\14.29.30133\atlmfc\include\atlsimpstr.h
; File D:\git\src\IBK\IBK_DRFN\ProjSrc\SrcChartEx\ChartAddIn\ChartPeriodSummaryAddIn\ChartPeriodSummaryAddInImp.cpp
; File C:\Program Files (x86)\Microsoft Visual Studio\2019\Community\VC\Tools\MSVC\14.29.30133\atlmfc\include\atltypes.h
; File D:\git\src\IBK\IBK_DRFN\ProjSrc\SrcChartEx\ChartAddIn\ChartPeriodSummaryAddIn\ChartPeriodSummaryAddInImp.cpp
; File D:\git\src\IBK\IBK_DRFN\ProjSrc\SrcChartEx\ChartAddIn\ChartPeriodSummaryAddIn\Include_Chart\Dll_Load\IMetaTable.h
; File D:\git\src\IBK\IBK_DRFN\ProjSrc\SrcChartEx\ChartAddIn\ChartPeriodSummaryAddIn\ChartPeriodSummaryAddInImp.cpp
; File C:\Program Files (x86)\Microsoft Visual Studio\2019\Community\VC\Tools\MSVC\14.29.30133\atlmfc\include\afxcoll.inl
; File D:\git\src\IBK\IBK_DRFN\ProjSrc\SrcChartEx\ChartAddIn\ChartPeriodSummaryAddIn\ChartPeriodSummaryAddInImp.cpp
; File C:\Program Files (x86)\Microsoft Visual Studio\2019\Community\VC\Tools\MSVC\14.29.30133\atlmfc\include\atltypes.h
; File D:\git\src\IBK\IBK_DRFN\ProjSrc\SrcChartEx\ChartAddIn\ChartPeriodSummaryAddIn\ChartPeriodSummaryAddInImp.cpp
; File D:\git\src\IBK\IBK_DRFN\ProjSrc\SrcChartEx\ChartAddIn\ChartPeriodSummaryAddIn\Include_Chart\Dll_Load\IMetaTable.h
; File C:\Program Files (x86)\Microsoft Visual Studio\2019\Community\VC\Tools\MSVC\14.29.30133\atlmfc\include\afxwin1.inl
; File D:\git\src\IBK\IBK_DRFN\ProjSrc\SrcChartEx\ChartAddIn\ChartPeriodSummaryAddIn\ChartPeriodSummaryAddInImp.cpp
;	COMDAT ?OnMouseMove@CChartPeriodSummaryAddInImp@@MAEHPAUHDC__@@IAAUtagPOINT@@KQAUHBITMAP__@@@Z
_TEXT	SEGMENT
_pt$ = -32						; size = 8
___mlrs__$ = -24					; size = 4
_pt$1$ = -20						; size = 4
_pt$2$ = -16						; size = 4
_ie$2 = -16						; size = 4
__$EHRec$ = -12						; size = 12
_p_hDC$ = 8						; size = 4
_nFlags$ = 12						; size = 4
_ix$3 = 16						; size = 4
_point$ = 16						; size = 4
_is$4 = 20						; size = 4
_p_dwMouseActionID$ = 20				; size = 4
_p_hbmpMainOSB$ = 24					; size = 4
?OnMouseMove@CChartPeriodSummaryAddInImp@@MAEHPAUHDC__@@IAAUtagPOINT@@KQAUHBITMAP__@@@Z PROC ; CChartPeriodSummaryAddInImp::OnMouseMove, COMDAT
; _this$ = ecx

; 269  : {

  00000	55		 push	 ebp
  00001	8b ec		 mov	 ebp, esp
  00003	6a ff		 push	 -1
  00005	68 00 00 00 00	 push	 __ehhandler$?OnMouseMove@CChartPeriodSummaryAddInImp@@MAEHPAUHDC__@@IAAUtagPOINT@@KQAUHBITMAP__@@@Z
  0000a	64 a1 00 00 00
	00		 mov	 eax, DWORD PTR fs:0
  00010	50		 push	 eax
  00011	83 ec 14	 sub	 esp, 20			; 00000014H
  00014	53		 push	 ebx
  00015	56		 push	 esi
  00016	57		 push	 edi
  00017	a1 00 00 00 00	 mov	 eax, DWORD PTR ___security_cookie
  0001c	33 c5		 xor	 eax, ebp
  0001e	50		 push	 eax
  0001f	8d 45 f4	 lea	 eax, DWORD PTR __$EHRec$[ebp]
  00022	64 a3 00 00 00
	00		 mov	 DWORD PTR fs:0, eax
  00028	8b d9		 mov	 ebx, ecx

; 270  : 	ML_SET_LANGUAGE_RES();

  0002a	e8 00 00 00 00	 call	 ?AfxGetStaticModuleState@@YGPAVAFX_MODULE_STATE@@XZ ; AfxGetStaticModuleState
  0002f	b9 00 00 00 00	 mov	 ecx, OFFSET ?g_iMetaTable@@3VIMetaTable@@A ; g_iMetaTable
  00034	8b 40 08	 mov	 eax, DWORD PTR [eax+8]
  00037	50		 push	 eax
  00038	ff 73 0c	 push	 DWORD PTR [ebx+12]
  0003b	e8 00 00 00 00	 call	 ?LoadResourceDLL@IMetaTable@@QAEPAUHINSTANCE__@@PAUHWND__@@PAU2@@Z ; IMetaTable::LoadResourceDLL
  00040	8b f8		 mov	 edi, eax
; File C:\Program Files (x86)\Microsoft Visual Studio\2019\Community\VC\Tools\MSVC\14.29.30133\atlmfc\include\afxwin1.inl

; 25   : 		return afxCurrentResourceHandle; }

  00042	e8 00 00 00 00	 call	 ?AfxGetModuleState@@YGPAVAFX_MODULE_STATE@@XZ ; AfxGetModuleState
; File D:\git\src\IBK\IBK_DRFN\ProjSrc\SrcChartEx\ChartAddIn\ChartPeriodSummaryAddIn\Include_Chart\Dll_Load\IMetaTable.h

; 1032 : 		m_hInstance = AfxGetResourceHandle();

  00047	8b 70 0c	 mov	 esi, DWORD PTR [eax+12]
  0004a	89 75 e8	 mov	 DWORD PTR ___mlrs__$[ebp], esi
; File C:\Program Files (x86)\Microsoft Visual Studio\2019\Community\VC\Tools\MSVC\14.29.30133\atlmfc\include\afxwin1.inl

; 27   : 	{ ASSERT(hInstResource != NULL); afxCurrentResourceHandle = hInstResource; }

  0004d	e8 00 00 00 00	 call	 ?AfxGetModuleState@@YGPAVAFX_MODULE_STATE@@XZ ; AfxGetModuleState
  00052	89 78 0c	 mov	 DWORD PTR [eax+12], edi
; File D:\git\src\IBK\IBK_DRFN\ProjSrc\SrcChartEx\ChartAddIn\ChartPeriodSummaryAddIn\ChartPeriodSummaryAddInImp.cpp

; 271  : 	if(!m_nCommandType) return FALSE;

  00055	83 7b 68 00	 cmp	 DWORD PTR [ebx+104], 0
  00059	c7 45 fc 00 00
	00 00		 mov	 DWORD PTR __$EHRec$[ebp+8], 0
  00060	0f 84 53 01 00
	00		 je	 $LN17@OnMouseMov

; 276  : 	if(!m_pCurSelectedLine) return FALSE;

  00066	83 7b 78 00	 cmp	 DWORD PTR [ebx+120], 0
  0006a	8b 7d 10	 mov	 edi, DWORD PTR _point$[ebp]
  0006d	8b 17		 mov	 edx, DWORD PTR [edi]
  0006f	8b 4f 04	 mov	 ecx, DWORD PTR [edi+4]
  00072	89 55 ec	 mov	 DWORD PTR _pt$1$[ebp], edx
  00075	89 4d f0	 mov	 DWORD PTR _pt$2$[ebp], ecx
; File C:\Program Files (x86)\Microsoft Visual Studio\2019\Community\VC\Tools\MSVC\14.29.30133\atlmfc\include\atltypes.h

; 414  : 	*(POINT*)this = initPt;

  00078	89 55 e0	 mov	 DWORD PTR _pt$[ebp], edx
  0007b	89 4d e4	 mov	 DWORD PTR _pt$[ebp+4], ecx
; File D:\git\src\IBK\IBK_DRFN\ProjSrc\SrcChartEx\ChartAddIn\ChartPeriodSummaryAddIn\ChartPeriodSummaryAddInImp.cpp

; 276  : 	if(!m_pCurSelectedLine) return FALSE;

  0007e	0f 84 35 01 00
	00		 je	 $LN17@OnMouseMov

; 277  : 	if( p_dwMouseActionID == m_dwMouseActionID)

  00084	8b 45 14	 mov	 eax, DWORD PTR _p_dwMouseActionID$[ebp]
  00087	3b 83 80 00 00
	00		 cmp	 eax, DWORD PTR [ebx+128]
  0008d	0f 85 f2 00 00
	00		 jne	 $LN6@OnMouseMov

; 282  : 		if( m_pCurSelectedLine->m_rctGraphRegion.PtInRect(ptTemp))

  00093	8b 43 78	 mov	 eax, DWORD PTR [ebx+120]
; File C:\Program Files (x86)\Microsoft Visual Studio\2019\Community\VC\Tools\MSVC\14.29.30133\atlmfc\include\atltypes.h

; 648  : 	return ::PtInRect(this, point);

  00096	51		 push	 ecx
; File D:\git\src\IBK\IBK_DRFN\ProjSrc\SrcChartEx\ChartAddIn\ChartPeriodSummaryAddIn\ChartPeriodSummaryAddInImp.cpp

; 282  : 		if( m_pCurSelectedLine->m_rctGraphRegion.PtInRect(ptTemp))

  00097	05 00 02 00 00	 add	 eax, 512		; 00000200H
  0009c	c7 43 4c 01 00
	00 00		 mov	 DWORD PTR [ebx+76], 1
; File C:\Program Files (x86)\Microsoft Visual Studio\2019\Community\VC\Tools\MSVC\14.29.30133\atlmfc\include\atltypes.h

; 648  : 	return ::PtInRect(this, point);

  000a3	52		 push	 edx
  000a4	50		 push	 eax
  000a5	ff 15 00 00 00
	00		 call	 DWORD PTR __imp__PtInRect@12
; File D:\git\src\IBK\IBK_DRFN\ProjSrc\SrcChartEx\ChartAddIn\ChartPeriodSummaryAddIn\ChartPeriodSummaryAddInImp.cpp

; 282  : 		if( m_pCurSelectedLine->m_rctGraphRegion.PtInRect(ptTemp))

  000ab	85 c0		 test	 eax, eax
  000ad	0f 84 cb 00 00
	00		 je	 $LN10@OnMouseMov

; 283  : 		{
; 284  : 			m_pCurSelectedLine->SetPos(pt, m_pCurSelectedLine->m_CurClickedPosition);

  000b3	8b 4b 78	 mov	 ecx, DWORD PTR [ebx+120]
  000b6	ff b1 10 01 00
	00		 push	 DWORD PTR [ecx+272]
  000bc	ff 75 f0	 push	 DWORD PTR _pt$2$[ebp]
  000bf	ff 75 ec	 push	 DWORD PTR _pt$1$[ebp]
  000c2	e8 00 00 00 00	 call	 ?SetPos@CPeriodObj@@QAEXVCPoint@@H@Z ; CPeriodObj::SetPos
; File C:\Program Files (x86)\Microsoft Visual Studio\2019\Community\VC\Tools\MSVC\14.29.30133\atlmfc\include\atlsimpstr.h

; 377  : 		return( m_pszData );

  000c7	8b 43 78	 mov	 eax, DWORD PTR [ebx+120]
; File D:\git\src\IBK\IBK_DRFN\ProjSrc\SrcChartEx\ChartAddIn\ChartPeriodSummaryAddIn\ChartPeriodSummaryAddInImp.cpp

; 287  : 				&&	(GetIndexFromPoint( m_pCurSelectedLine->m_strRQ, m_pCurSelectedLine->m_ptAEnd, ie, ie) == R_OK) 

  000ca	8d 55 10	 lea	 edx, DWORD PTR _ix$3[ebp]
  000cd	52		 push	 edx
  000ce	52		 push	 edx
  000cf	8d 55 e0	 lea	 edx, DWORD PTR _pt$[ebp]
  000d2	52		 push	 edx
  000d3	ff b0 f4 01 00
	00		 push	 DWORD PTR [eax+500]
  000d9	8d 4b f8	 lea	 ecx, DWORD PTR [ebx-8]
  000dc	e8 00 00 00 00	 call	 ?GetIndexFromPoint@CChartPeriodSummaryAddInImp@@QAEHPBDAAVCPoint@@AAH2@Z ; CChartPeriodSummaryAddInImp::GetIndexFromPoint
  000e1	85 c0		 test	 eax, eax
  000e3	0f 85 95 00 00
	00		 jne	 $LN10@OnMouseMov
; File C:\Program Files (x86)\Microsoft Visual Studio\2019\Community\VC\Tools\MSVC\14.29.30133\atlmfc\include\atlsimpstr.h

; 377  : 		return( m_pszData );

  000e9	8b 43 78	 mov	 eax, DWORD PTR [ebx+120]
; File D:\git\src\IBK\IBK_DRFN\ProjSrc\SrcChartEx\ChartAddIn\ChartPeriodSummaryAddIn\ChartPeriodSummaryAddInImp.cpp

; 287  : 				&&	(GetIndexFromPoint( m_pCurSelectedLine->m_strRQ, m_pCurSelectedLine->m_ptAEnd, ie, ie) == R_OK) 

  000ec	8d 55 14	 lea	 edx, DWORD PTR _is$4[ebp]
  000ef	52		 push	 edx
  000f0	52		 push	 edx
; File C:\Program Files (x86)\Microsoft Visual Studio\2019\Community\VC\Tools\MSVC\14.29.30133\atlmfc\include\atlsimpstr.h

; 377  : 		return( m_pszData );

  000f1	8b 88 f4 01 00
	00		 mov	 ecx, DWORD PTR [eax+500]
; File D:\git\src\IBK\IBK_DRFN\ProjSrc\SrcChartEx\ChartAddIn\ChartPeriodSummaryAddIn\ChartPeriodSummaryAddInImp.cpp

; 287  : 				&&	(GetIndexFromPoint( m_pCurSelectedLine->m_strRQ, m_pCurSelectedLine->m_ptAEnd, ie, ie) == R_OK) 

  000f7	05 e8 00 00 00	 add	 eax, 232		; 000000e8H
  000fc	50		 push	 eax
  000fd	51		 push	 ecx
  000fe	8d 4b f8	 lea	 ecx, DWORD PTR [ebx-8]
  00101	e8 00 00 00 00	 call	 ?GetIndexFromPoint@CChartPeriodSummaryAddInImp@@QAEHPBDAAVCPoint@@AAH2@Z ; CChartPeriodSummaryAddInImp::GetIndexFromPoint
  00106	85 c0		 test	 eax, eax
  00108	75 74		 jne	 SHORT $LN10@OnMouseMov
; File C:\Program Files (x86)\Microsoft Visual Studio\2019\Community\VC\Tools\MSVC\14.29.30133\atlmfc\include\atlsimpstr.h

; 377  : 		return( m_pszData );

  0010a	8b 43 78	 mov	 eax, DWORD PTR [ebx+120]
; File D:\git\src\IBK\IBK_DRFN\ProjSrc\SrcChartEx\ChartAddIn\ChartPeriodSummaryAddIn\ChartPeriodSummaryAddInImp.cpp

; 287  : 				&&	(GetIndexFromPoint( m_pCurSelectedLine->m_strRQ, m_pCurSelectedLine->m_ptAEnd, ie, ie) == R_OK) 

  0010d	8d 55 f0	 lea	 edx, DWORD PTR _ie$2[ebp]
  00110	52		 push	 edx
  00111	52		 push	 edx
; File C:\Program Files (x86)\Microsoft Visual Studio\2019\Community\VC\Tools\MSVC\14.29.30133\atlmfc\include\atlsimpstr.h

; 377  : 		return( m_pszData );

  00112	8b 88 f4 01 00
	00		 mov	 ecx, DWORD PTR [eax+500]
; File D:\git\src\IBK\IBK_DRFN\ProjSrc\SrcChartEx\ChartAddIn\ChartPeriodSummaryAddIn\ChartPeriodSummaryAddInImp.cpp

; 287  : 				&&	(GetIndexFromPoint( m_pCurSelectedLine->m_strRQ, m_pCurSelectedLine->m_ptAEnd, ie, ie) == R_OK) 

  00118	05 f0 00 00 00	 add	 eax, 240		; 000000f0H
  0011d	50		 push	 eax
  0011e	51		 push	 ecx
  0011f	8d 4b f8	 lea	 ecx, DWORD PTR [ebx-8]
  00122	e8 00 00 00 00	 call	 ?GetIndexFromPoint@CChartPeriodSummaryAddInImp@@QAEHPBDAAVCPoint@@AAH2@Z ; CChartPeriodSummaryAddInImp::GetIndexFromPoint
  00127	85 c0		 test	 eax, eax
  00129	75 53		 jne	 SHORT $LN10@OnMouseMov
; File C:\Program Files (x86)\Microsoft Visual Studio\2019\Community\VC\Tools\MSVC\14.29.30133\atlmfc\include\atlsimpstr.h

; 377  : 		return( m_pszData );

  0012b	8b 43 78	 mov	 eax, DWORD PTR [ebx+120]
; File D:\git\src\IBK\IBK_DRFN\ProjSrc\SrcChartEx\ChartAddIn\ChartPeriodSummaryAddIn\ChartPeriodSummaryAddInImp.cpp

; 290  : 				if(IsValidIndex( m_pCurSelectedLine->m_strRQ, ix) && IsValidIndex( m_pCurSelectedLine->m_strRQ, is) && IsValidIndex( m_pCurSelectedLine->m_strRQ, ie))

  0012e	8d 4b f8	 lea	 ecx, DWORD PTR [ebx-8]
  00131	ff 75 10	 push	 DWORD PTR _ix$3[ebp]
  00134	ff b0 f4 01 00
	00		 push	 DWORD PTR [eax+500]
  0013a	e8 00 00 00 00	 call	 ?IsValidIndex@CChartPeriodSummaryAddInImp@@QAEHPBDH@Z ; CChartPeriodSummaryAddInImp::IsValidIndex
  0013f	85 c0		 test	 eax, eax
  00141	74 3b		 je	 SHORT $LN10@OnMouseMov
; File C:\Program Files (x86)\Microsoft Visual Studio\2019\Community\VC\Tools\MSVC\14.29.30133\atlmfc\include\atlsimpstr.h

; 377  : 		return( m_pszData );

  00143	8b 43 78	 mov	 eax, DWORD PTR [ebx+120]
; File D:\git\src\IBK\IBK_DRFN\ProjSrc\SrcChartEx\ChartAddIn\ChartPeriodSummaryAddIn\ChartPeriodSummaryAddInImp.cpp

; 290  : 				if(IsValidIndex( m_pCurSelectedLine->m_strRQ, ix) && IsValidIndex( m_pCurSelectedLine->m_strRQ, is) && IsValidIndex( m_pCurSelectedLine->m_strRQ, ie))

  00146	8d 4b f8	 lea	 ecx, DWORD PTR [ebx-8]
  00149	ff 75 14	 push	 DWORD PTR _is$4[ebp]
  0014c	ff b0 f4 01 00
	00		 push	 DWORD PTR [eax+500]
  00152	e8 00 00 00 00	 call	 ?IsValidIndex@CChartPeriodSummaryAddInImp@@QAEHPBDH@Z ; CChartPeriodSummaryAddInImp::IsValidIndex
  00157	85 c0		 test	 eax, eax
  00159	74 23		 je	 SHORT $LN10@OnMouseMov
; File C:\Program Files (x86)\Microsoft Visual Studio\2019\Community\VC\Tools\MSVC\14.29.30133\atlmfc\include\atlsimpstr.h

; 377  : 		return( m_pszData );

  0015b	8b 43 78	 mov	 eax, DWORD PTR [ebx+120]
; File D:\git\src\IBK\IBK_DRFN\ProjSrc\SrcChartEx\ChartAddIn\ChartPeriodSummaryAddIn\ChartPeriodSummaryAddInImp.cpp

; 290  : 				if(IsValidIndex( m_pCurSelectedLine->m_strRQ, ix) && IsValidIndex( m_pCurSelectedLine->m_strRQ, is) && IsValidIndex( m_pCurSelectedLine->m_strRQ, ie))

  0015e	8d 4b f8	 lea	 ecx, DWORD PTR [ebx-8]
  00161	ff 75 f0	 push	 DWORD PTR _ie$2[ebp]
  00164	ff b0 f4 01 00
	00		 push	 DWORD PTR [eax+500]
  0016a	e8 00 00 00 00	 call	 ?IsValidIndex@CChartPeriodSummaryAddInImp@@QAEHPBDH@Z ; CChartPeriodSummaryAddInImp::IsValidIndex
  0016f	85 c0		 test	 eax, eax
  00171	74 0b		 je	 SHORT $LN10@OnMouseMov
; File C:\Program Files (x86)\Microsoft Visual Studio\2019\Community\VC\Tools\MSVC\14.29.30133\atlmfc\include\atltypes.h

; 414  : 	*(POINT*)this = initPt;

  00173	8b 07		 mov	 eax, DWORD PTR [edi]
  00175	8b 4f 04	 mov	 ecx, DWORD PTR [edi+4]
; File D:\git\src\IBK\IBK_DRFN\ProjSrc\SrcChartEx\ChartAddIn\ChartPeriodSummaryAddIn\ChartPeriodSummaryAddInImp.cpp

; 291  : 					m_ptCursor = point;

  00178	89 43 54	 mov	 DWORD PTR [ebx+84], eax
  0017b	89 4b 58	 mov	 DWORD PTR [ebx+88], ecx
$LN10@OnMouseMov:
; File D:\git\src\IBK\IBK_DRFN\ProjSrc\SrcChartEx\ChartAddIn\ChartPeriodSummaryAddIn\Include_Chart\Dll_Load\IMetaTable.h

; 1036 : 	{

  0017e	bf 01 00 00 00	 mov	 edi, 1
  00183	eb 36		 jmp	 SHORT $LN22@OnMouseMov
$LN6@OnMouseMov:
; File D:\git\src\IBK\IBK_DRFN\ProjSrc\SrcChartEx\ChartAddIn\ChartPeriodSummaryAddIn\ChartPeriodSummaryAddInImp.cpp

; 302  : 	else if(m_nCommandType != 1)

  00185	83 7b 68 01	 cmp	 DWORD PTR [ebx+104], 1
  00189	74 2e		 je	 SHORT $LN17@OnMouseMov

; 303  : 	{
; 304  : 	//	SetCursor(::LoadCursor(NULL, IDC_ARROW));
; 305  : 
; 306  : 		POSITION pos = m_LineList.GetHeadPosition();

  0018b	8b 9b 88 00 00
	00		 mov	 ebx, DWORD PTR [ebx+136]

; 307  : 		while(pos)

  00191	85 db		 test	 ebx, ebx
  00193	74 24		 je	 SHORT $LN17@OnMouseMov
$LL2@OnMouseMov:

; 308  : 		{
; 309  : 			CPeriodObj* pLine = (CPeriodObj*)m_LineList.GetNext(pos);

  00195	8b 4b 08	 mov	 ecx, DWORD PTR [ebx+8]

; 310  : 			if( pLine->IsInRegion(point) )

  00198	83 ec 08	 sub	 esp, 8
  0019b	8b 17		 mov	 edx, DWORD PTR [edi]
  0019d	8b c4		 mov	 eax, esp
; File C:\Program Files (x86)\Microsoft Visual Studio\2019\Community\VC\Tools\MSVC\14.29.30133\atlmfc\include\afxcoll.inl

; 432  : 		rPosition = (POSITION) pNode->pNext;

  0019f	8b 1b		 mov	 ebx, DWORD PTR [ebx]
; File D:\git\src\IBK\IBK_DRFN\ProjSrc\SrcChartEx\ChartAddIn\ChartPeriodSummaryAddIn\ChartPeriodSummaryAddInImp.cpp

; 310  : 			if( pLine->IsInRegion(point) )

  001a1	8b 7f 04	 mov	 edi, DWORD PTR [edi+4]
; File C:\Program Files (x86)\Microsoft Visual Studio\2019\Community\VC\Tools\MSVC\14.29.30133\atlmfc\include\atltypes.h

; 414  : 	*(POINT*)this = initPt;

  001a4	89 10		 mov	 DWORD PTR [eax], edx
  001a6	89 78 04	 mov	 DWORD PTR [eax+4], edi
; File D:\git\src\IBK\IBK_DRFN\ProjSrc\SrcChartEx\ChartAddIn\ChartPeriodSummaryAddIn\ChartPeriodSummaryAddInImp.cpp

; 310  : 			if( pLine->IsInRegion(point) )

  001a9	e8 00 00 00 00	 call	 ?IsInRegion@CPeriodObj@@QAEHVCPoint@@@Z ; CPeriodObj::IsInRegion
  001ae	85 c0		 test	 eax, eax
  001b0	75 cc		 jne	 SHORT $LN10@OnMouseMov

; 307  : 		while(pos)

  001b2	8b 7d 10	 mov	 edi, DWORD PTR _point$[ebp]
  001b5	85 db		 test	 ebx, ebx
  001b7	75 dc		 jne	 SHORT $LL2@OnMouseMov
$LN17@OnMouseMov:
; File D:\git\src\IBK\IBK_DRFN\ProjSrc\SrcChartEx\ChartAddIn\ChartPeriodSummaryAddIn\Include_Chart\Dll_Load\IMetaTable.h

; 1036 : 	{

  001b9	33 ff		 xor	 edi, edi
$LN22@OnMouseMov:
  001bb	c7 45 fc 07 00
	00 00		 mov	 DWORD PTR __$EHRec$[ebp+8], 7
; File C:\Program Files (x86)\Microsoft Visual Studio\2019\Community\VC\Tools\MSVC\14.29.30133\atlmfc\include\afxwin1.inl

; 27   : 	{ ASSERT(hInstResource != NULL); afxCurrentResourceHandle = hInstResource; }

  001c2	e8 00 00 00 00	 call	 ?AfxGetModuleState@@YGPAVAFX_MODULE_STATE@@XZ ; AfxGetModuleState
  001c7	89 70 0c	 mov	 DWORD PTR [eax+12], esi
; File D:\git\src\IBK\IBK_DRFN\ProjSrc\SrcChartEx\ChartAddIn\ChartPeriodSummaryAddIn\ChartPeriodSummaryAddInImp.cpp

; 321  : 	return FALSE;

  001ca	8b c7		 mov	 eax, edi

; 322  : 	
; 323  : }

  001cc	8b 4d f4	 mov	 ecx, DWORD PTR __$EHRec$[ebp]
  001cf	64 89 0d 00 00
	00 00		 mov	 DWORD PTR fs:0, ecx
  001d6	59		 pop	 ecx
  001d7	5f		 pop	 edi
  001d8	5e		 pop	 esi
  001d9	5b		 pop	 ebx
  001da	8b e5		 mov	 esp, ebp
  001dc	5d		 pop	 ebp
  001dd	c2 14 00	 ret	 20			; 00000014H
_TEXT	ENDS
;	COMDAT text$x
text$x	SEGMENT
__unwindfunclet$?OnMouseMove@CChartPeriodSummaryAddInImp@@MAEHPAUHDC__@@IAAUtagPOINT@@KQAUHBITMAP__@@@Z$0:
  00000	8d 4d e8	 lea	 ecx, DWORD PTR ___mlrs__$[ebp]
  00003	e9 00 00 00 00	 jmp	 ??1CMultiLanguageResourceSetter@@QAE@XZ ; CMultiLanguageResourceSetter::~CMultiLanguageResourceSetter
  00008	cc		 int	 3
  00009	cc		 int	 3
  0000a	cc		 int	 3
  0000b	cc		 int	 3
  0000c	cc		 int	 3
__ehhandler$?OnMouseMove@CChartPeriodSummaryAddInImp@@MAEHPAUHDC__@@IAAUtagPOINT@@KQAUHBITMAP__@@@Z:
  0000d	90		 npad	 1
  0000e	90		 npad	 1
  0000f	8b 54 24 08	 mov	 edx, DWORD PTR [esp+8]
  00013	8d 42 0c	 lea	 eax, DWORD PTR [edx+12]
  00016	8b 4a dc	 mov	 ecx, DWORD PTR [edx-36]
  00019	33 c8		 xor	 ecx, eax
  0001b	e8 00 00 00 00	 call	 @__security_check_cookie@4
  00020	b8 00 00 00 00	 mov	 eax, OFFSET __ehfuncinfo$?OnMouseMove@CChartPeriodSummaryAddInImp@@MAEHPAUHDC__@@IAAUtagPOINT@@KQAUHBITMAP__@@@Z
  00025	e9 00 00 00 00	 jmp	 ___CxxFrameHandler3
text$x	ENDS
?OnMouseMove@CChartPeriodSummaryAddInImp@@MAEHPAUHDC__@@IAAUtagPOINT@@KQAUHBITMAP__@@@Z ENDP ; CChartPeriodSummaryAddInImp::OnMouseMove
; Function compile flags: /Ogtp
; File D:\git\src\IBK\IBK_DRFN\ProjSrc\SrcChartEx\ChartAddIn\ChartPeriodSummaryAddIn\ChartPeriodSummaryAddInImp.cpp
; File C:\Program Files (x86)\Microsoft Visual Studio\2019\Community\VC\Tools\MSVC\14.29.30133\atlmfc\include\afxwin1.inl
; File D:\git\src\IBK\IBK_DRFN\ProjSrc\SrcChartEx\ChartAddIn\ChartPeriodSummaryAddIn\Include_Chart\Dll_Load\IMetaTable.h
; File C:\Program Files (x86)\Microsoft Visual Studio\2019\Community\VC\Tools\MSVC\14.29.30133\atlmfc\include\afxwin1.inl
; File D:\git\src\IBK\IBK_DRFN\ProjSrc\SrcChartEx\ChartAddIn\ChartPeriodSummaryAddIn\ChartPeriodSummaryAddInImp.cpp
; File D:\git\src\IBK\IBK_DRFN\ProjSrc\SrcChartEx\ChartAddIn\ChartPeriodSummaryAddIn\Include_Chart\Dll_Load\IMetaTable.h
; File C:\Program Files (x86)\Microsoft Visual Studio\2019\Community\VC\Tools\MSVC\14.29.30133\atlmfc\include\afxwin1.inl
; File D:\git\src\IBK\IBK_DRFN\ProjSrc\SrcChartEx\ChartAddIn\ChartPeriodSummaryAddIn\ChartPeriodSummaryAddInImp.cpp
;	COMDAT ?OnKeyDown@CChartPeriodSummaryAddInImp@@MAEHIII@Z
_TEXT	SEGMENT
___mlrs__$ = -16					; size = 4
__$EHRec$ = -12						; size = 12
_nChar$ = 8						; size = 4
_nRepCnt$ = 12						; size = 4
_nFlags$ = 16						; size = 4
?OnKeyDown@CChartPeriodSummaryAddInImp@@MAEHIII@Z PROC	; CChartPeriodSummaryAddInImp::OnKeyDown, COMDAT
; _this$ = ecx

; 653  : {

  00000	55		 push	 ebp
  00001	8b ec		 mov	 ebp, esp
  00003	6a ff		 push	 -1
  00005	68 00 00 00 00	 push	 __ehhandler$?OnKeyDown@CChartPeriodSummaryAddInImp@@MAEHIII@Z
  0000a	64 a1 00 00 00
	00		 mov	 eax, DWORD PTR fs:0
  00010	50		 push	 eax
  00011	51		 push	 ecx
  00012	53		 push	 ebx
  00013	56		 push	 esi
  00014	57		 push	 edi
  00015	a1 00 00 00 00	 mov	 eax, DWORD PTR ___security_cookie
  0001a	33 c5		 xor	 eax, ebp
  0001c	50		 push	 eax
  0001d	8d 45 f4	 lea	 eax, DWORD PTR __$EHRec$[ebp]
  00020	64 a3 00 00 00
	00		 mov	 DWORD PTR fs:0, eax
  00026	8b d9		 mov	 ebx, ecx

; 654  : 	ML_SET_LANGUAGE_RES();

  00028	e8 00 00 00 00	 call	 ?AfxGetStaticModuleState@@YGPAVAFX_MODULE_STATE@@XZ ; AfxGetStaticModuleState
  0002d	b9 00 00 00 00	 mov	 ecx, OFFSET ?g_iMetaTable@@3VIMetaTable@@A ; g_iMetaTable
  00032	8b 40 08	 mov	 eax, DWORD PTR [eax+8]
  00035	50		 push	 eax
  00036	ff 73 0c	 push	 DWORD PTR [ebx+12]
  00039	e8 00 00 00 00	 call	 ?LoadResourceDLL@IMetaTable@@QAEPAUHINSTANCE__@@PAUHWND__@@PAU2@@Z ; IMetaTable::LoadResourceDLL
  0003e	8b f8		 mov	 edi, eax
; File C:\Program Files (x86)\Microsoft Visual Studio\2019\Community\VC\Tools\MSVC\14.29.30133\atlmfc\include\afxwin1.inl

; 25   : 		return afxCurrentResourceHandle; }

  00040	e8 00 00 00 00	 call	 ?AfxGetModuleState@@YGPAVAFX_MODULE_STATE@@XZ ; AfxGetModuleState
; File D:\git\src\IBK\IBK_DRFN\ProjSrc\SrcChartEx\ChartAddIn\ChartPeriodSummaryAddIn\Include_Chart\Dll_Load\IMetaTable.h

; 1032 : 		m_hInstance = AfxGetResourceHandle();

  00045	8b 70 0c	 mov	 esi, DWORD PTR [eax+12]
  00048	89 75 f0	 mov	 DWORD PTR ___mlrs__$[ebp], esi
; File C:\Program Files (x86)\Microsoft Visual Studio\2019\Community\VC\Tools\MSVC\14.29.30133\atlmfc\include\afxwin1.inl

; 27   : 	{ ASSERT(hInstResource != NULL); afxCurrentResourceHandle = hInstResource; }

  0004b	e8 00 00 00 00	 call	 ?AfxGetModuleState@@YGPAVAFX_MODULE_STATE@@XZ ; AfxGetModuleState
  00050	89 78 0c	 mov	 DWORD PTR [eax+12], edi
; File D:\git\src\IBK\IBK_DRFN\ProjSrc\SrcChartEx\ChartAddIn\ChartPeriodSummaryAddIn\ChartPeriodSummaryAddInImp.cpp

; 655  : 	if(!m_nCommandType) return FALSE;

  00053	83 7b 68 00	 cmp	 DWORD PTR [ebx+104], 0
  00057	c7 45 fc 00 00
	00 00		 mov	 DWORD PTR __$EHRec$[ebp+8], 0
  0005e	74 68		 je	 SHORT $LN9@OnKeyDown

; 656  : 	
; 657  : 	if(nChar == 46)

  00060	83 7d 08 2e	 cmp	 DWORD PTR _nChar$[ebp], 46 ; 0000002eH
  00064	75 62		 jne	 SHORT $LN9@OnKeyDown

; 658  : 	{
; 659  : 		if(!m_pCurSelectedLine) return FALSE;

  00066	8b 43 78	 mov	 eax, DWORD PTR [ebx+120]
  00069	85 c0		 test	 eax, eax
  0006b	74 5b		 je	 SHORT $LN9@OnKeyDown

; 660  : //		m_pCurSelectedLine->Erase(&m_dcMem);
; 661  : 		POSITION pos = m_LineList.Find(m_pCurSelectedLine);

  0006d	6a 00		 push	 0
  0006f	50		 push	 eax
  00070	8d 8b 84 00 00
	00		 lea	 ecx, DWORD PTR [ebx+132]
  00076	e8 00 00 00 00	 call	 ?Find@CObList@@QBEPAU__POSITION@@PAVCObject@@PAU2@@Z ; CObList::Find

; 662  : 		m_LineList.RemoveAt(pos);

  0007b	50		 push	 eax
  0007c	8d 8b 84 00 00
	00		 lea	 ecx, DWORD PTR [ebx+132]
  00082	e8 00 00 00 00	 call	 ?RemoveAt@CObList@@QAEXPAU__POSITION@@@Z ; CObList::RemoveAt

; 1647 : 	if( m_pIAddInToolMgr != NULL )

  00087	8b 53 28	 mov	 edx, DWORD PTR [ebx+40]

; 663  : 		UnregPS((long)m_pCurSelectedLine);

  0008a	8b 4b 78	 mov	 ecx, DWORD PTR [ebx+120]

; 1647 : 	if( m_pIAddInToolMgr != NULL )

  0008d	85 d2		 test	 edx, edx
  0008f	74 16		 je	 SHORT $LN29@OnKeyDown

; 1648 : 	{
; 1649 : 		m_pIAddInToolMgr->OnAddInToolCommand( EAI_TOOLORDERMGR_DELETE_TOOL_FROM_ORDERMANAGER,	

  00091	8b 02		 mov	 eax, DWORD PTR [edx]
  00093	51		 push	 ecx
  00094	ff 35 00 00 00
	00		 push	 DWORD PTR ?m_strAddInItemName@CChartPeriodSummaryAddInImp@@2V?$CStringT@DV?$StrTraitMFC_DLL@DV?$ChTraitsCRT@D@ATL@@@@@ATL@@A ; CChartPeriodSummaryAddInImp::m_strAddInItemName
  0009a	8b ca		 mov	 ecx, edx
  0009c	6a 32		 push	 50			; 00000032H
  0009e	ff 90 a0 00 00
	00		 call	 DWORD PTR [eax+160]
  000a4	8b 4b 78	 mov	 ecx, DWORD PTR [ebx+120]
$LN29@OnKeyDown:

; 664  : 		delete m_pCurSelectedLine;

  000a7	85 c9		 test	 ecx, ecx
  000a9	74 07		 je	 SHORT $LN6@OnKeyDown
  000ab	8b 01		 mov	 eax, DWORD PTR [ecx]
  000ad	6a 01		 push	 1
  000af	ff 50 04	 call	 DWORD PTR [eax+4]
$LN6@OnKeyDown:

; 665  : 		m_pCurSelectedLine = NULL;
; 666  : 		m_pIChartOCX->InvalidateControl();

  000b2	8b 4b 04	 mov	 ecx, DWORD PTR [ebx+4]
  000b5	c7 43 78 00 00
	00 00		 mov	 DWORD PTR [ebx+120], 0
  000bc	8b 01		 mov	 eax, DWORD PTR [ecx]
  000be	ff 50 38	 call	 DWORD PTR [eax+56]

; 667  : 		return TRUE;

  000c1	bf 01 00 00 00	 mov	 edi, 1
  000c6	eb 02		 jmp	 SHORT $LN11@OnKeyDown
$LN9@OnKeyDown:
; File D:\git\src\IBK\IBK_DRFN\ProjSrc\SrcChartEx\ChartAddIn\ChartPeriodSummaryAddIn\Include_Chart\Dll_Load\IMetaTable.h

; 1036 : 	{

  000c8	33 ff		 xor	 edi, edi
$LN11@OnKeyDown:
  000ca	c7 45 fc 04 00
	00 00		 mov	 DWORD PTR __$EHRec$[ebp+8], 4
; File C:\Program Files (x86)\Microsoft Visual Studio\2019\Community\VC\Tools\MSVC\14.29.30133\atlmfc\include\afxwin1.inl

; 27   : 	{ ASSERT(hInstResource != NULL); afxCurrentResourceHandle = hInstResource; }

  000d1	e8 00 00 00 00	 call	 ?AfxGetModuleState@@YGPAVAFX_MODULE_STATE@@XZ ; AfxGetModuleState
  000d6	89 70 0c	 mov	 DWORD PTR [eax+12], esi
; File D:\git\src\IBK\IBK_DRFN\ProjSrc\SrcChartEx\ChartAddIn\ChartPeriodSummaryAddIn\ChartPeriodSummaryAddInImp.cpp

; 670  : 	return FALSE;

  000d9	8b c7		 mov	 eax, edi

; 671  : }

  000db	8b 4d f4	 mov	 ecx, DWORD PTR __$EHRec$[ebp]
  000de	64 89 0d 00 00
	00 00		 mov	 DWORD PTR fs:0, ecx
  000e5	59		 pop	 ecx
  000e6	5f		 pop	 edi
  000e7	5e		 pop	 esi
  000e8	5b		 pop	 ebx
  000e9	8b e5		 mov	 esp, ebp
  000eb	5d		 pop	 ebp
  000ec	c2 0c 00	 ret	 12			; 0000000cH
_TEXT	ENDS
;	COMDAT text$x
text$x	SEGMENT
__unwindfunclet$?OnKeyDown@CChartPeriodSummaryAddInImp@@MAEHIII@Z$0:
  00000	8d 4d f0	 lea	 ecx, DWORD PTR ___mlrs__$[ebp]
  00003	e9 00 00 00 00	 jmp	 ??1CMultiLanguageResourceSetter@@QAE@XZ ; CMultiLanguageResourceSetter::~CMultiLanguageResourceSetter
  00008	cc		 int	 3
  00009	cc		 int	 3
  0000a	cc		 int	 3
  0000b	cc		 int	 3
  0000c	cc		 int	 3
__ehhandler$?OnKeyDown@CChartPeriodSummaryAddInImp@@MAEHIII@Z:
  0000d	90		 npad	 1
  0000e	90		 npad	 1
  0000f	8b 54 24 08	 mov	 edx, DWORD PTR [esp+8]
  00013	8d 42 0c	 lea	 eax, DWORD PTR [edx+12]
  00016	8b 4a ec	 mov	 ecx, DWORD PTR [edx-20]
  00019	33 c8		 xor	 ecx, eax
  0001b	e8 00 00 00 00	 call	 @__security_check_cookie@4
  00020	b8 00 00 00 00	 mov	 eax, OFFSET __ehfuncinfo$?OnKeyDown@CChartPeriodSummaryAddInImp@@MAEHIII@Z
  00025	e9 00 00 00 00	 jmp	 ___CxxFrameHandler3
text$x	ENDS
?OnKeyDown@CChartPeriodSummaryAddInImp@@MAEHIII@Z ENDP	; CChartPeriodSummaryAddInImp::OnKeyDown
; Function compile flags: /Ogtp
; File D:\git\src\IBK\IBK_DRFN\ProjSrc\SrcChartEx\ChartAddIn\ChartPeriodSummaryAddIn\ChartPeriodSummaryAddInImp.cpp
;	COMDAT ?OnAddInToolCommand@CChartPeriodSummaryAddInImp@@MAEHW4EAICommandType@@PBDJ@Z
_TEXT	SEGMENT
_p_eCommandID$ = 8					; size = 4
_p_szParam$ = 12					; size = 4
_p_lParam$ = 16						; size = 4
?OnAddInToolCommand@CChartPeriodSummaryAddInImp@@MAEHW4EAICommandType@@PBDJ@Z PROC ; CChartPeriodSummaryAddInImp::OnAddInToolCommand, COMDAT
; _this$ = ecx

; 159  : {

  00000	55		 push	 ebp
  00001	8b ec		 mov	 ebp, esp

; 160  : 	if(p_eCommandID == EAI_TOOLORDERMGR_DELETE_THIS_TOOL)

  00003	8b 45 08	 mov	 eax, DWORD PTR _p_eCommandID$[ebp]
  00006	53		 push	 ebx
  00007	8b d9		 mov	 ebx, ecx
  00009	83 f8 33	 cmp	 eax, 51			; 00000033H
  0000c	75 6d		 jne	 SHORT $LN2@OnAddInToo

; 161  : 	{
; 162  : 		if(strcmp(p_szParam, "PERIOD_SUMMARY")) return FALSE;

  0000e	8b 55 0c	 mov	 edx, DWORD PTR _p_szParam$[ebp]
  00011	b8 00 00 00 00	 mov	 eax, OFFSET ??_C@_0P@EGLBNOFN@PERIOD_SUMMARY@
$LL10@OnAddInToo:
  00016	8a 0a		 mov	 cl, BYTE PTR [edx]
  00018	3a 08		 cmp	 cl, BYTE PTR [eax]
  0001a	75 1a		 jne	 SHORT $LN11@OnAddInToo
  0001c	84 c9		 test	 cl, cl
  0001e	74 12		 je	 SHORT $LN12@OnAddInToo
  00020	8a 4a 01	 mov	 cl, BYTE PTR [edx+1]
  00023	3a 48 01	 cmp	 cl, BYTE PTR [eax+1]
  00026	75 0e		 jne	 SHORT $LN11@OnAddInToo
  00028	83 c2 02	 add	 edx, 2
  0002b	83 c0 02	 add	 eax, 2
  0002e	84 c9		 test	 cl, cl
  00030	75 e4		 jne	 SHORT $LL10@OnAddInToo
$LN12@OnAddInToo:
  00032	33 c0		 xor	 eax, eax
  00034	eb 05		 jmp	 SHORT $LN13@OnAddInToo
$LN11@OnAddInToo:
  00036	1b c0		 sbb	 eax, eax
  00038	83 c8 01	 or	 eax, 1
$LN13@OnAddInToo:
  0003b	85 c0		 test	 eax, eax
  0003d	75 35		 jne	 SHORT $LN6@OnAddInToo

; 163  : 		CPeriodObj * pLine = (CPeriodObj *)p_lParam;
; 164  : 		if(!pLine) return FALSE;

  0003f	57		 push	 edi
  00040	8b 7d 10	 mov	 edi, DWORD PTR _p_lParam$[ebp]
  00043	85 ff		 test	 edi, edi
  00045	74 2c		 je	 SHORT $LN14@OnAddInToo

; 165  : 		POSITION pos = m_LineList.Find(pLine);

  00047	56		 push	 esi
  00048	50		 push	 eax
  00049	57		 push	 edi
  0004a	8d 8b 84 00 00
	00		 lea	 ecx, DWORD PTR [ebx+132]
  00050	e8 00 00 00 00	 call	 ?Find@CObList@@QBEPAU__POSITION@@PAVCObject@@PAU2@@Z ; CObList::Find

; 166  : 		m_LineList.RemoveAt(pos);

  00055	50		 push	 eax
  00056	8d 8b 84 00 00
	00		 lea	 ecx, DWORD PTR [ebx+132]
  0005c	e8 00 00 00 00	 call	 ?RemoveAt@CObList@@QAEXPAU__POSITION@@@Z ; CObList::RemoveAt

; 167  : 		delete pLine;

  00061	8b 07		 mov	 eax, DWORD PTR [edi]
  00063	8b cf		 mov	 ecx, edi
  00065	6a 01		 push	 1
  00067	ff 50 04	 call	 DWORD PTR [eax+4]

; 168  : 		pLine = NULL;
; 169  : 		m_pIChartOCX->InvalidateControl();

  0006a	8b 4b 04	 mov	 ecx, DWORD PTR [ebx+4]
  0006d	8b 01		 mov	 eax, DWORD PTR [ecx]
  0006f	ff 50 38	 call	 DWORD PTR [eax+56]
  00072	5e		 pop	 esi
$LN14@OnAddInToo:
  00073	5f		 pop	 edi
$LN6@OnAddInToo:

; 175  : 		return FALSE;		//  AddIn    FALSE return.
; 176  : 	}
; 177  : 
; 178  : 	return FALSE;
; 179  : }

  00074	33 c0		 xor	 eax, eax
  00076	5b		 pop	 ebx
  00077	5d		 pop	 ebp
  00078	c2 0c 00	 ret	 12			; 0000000cH
$LN2@OnAddInToo:

; 170  : 	}
; 171  : 	// 20081007 JS.Kim	 
; 172  : 	else if( p_eCommandID == EAI_USER_CHANGE_TIMEDIFF )

  0007b	83 f8 3d	 cmp	 eax, 61			; 0000003dH
  0007e	75 f4		 jne	 SHORT $LN6@OnAddInToo

; 173  : 	{
; 174  : 		RecalcLineXPoint(p_szParam, (int)p_lParam);

  00080	ff 75 10	 push	 DWORD PTR _p_lParam$[ebp]
  00083	8d 4b f8	 lea	 ecx, DWORD PTR [ebx-8]
  00086	ff 75 0c	 push	 DWORD PTR _p_szParam$[ebp]
  00089	e8 00 00 00 00	 call	 ?RecalcLineXPoint@CChartPeriodSummaryAddInImp@@QAE_NPBDH@Z ; CChartPeriodSummaryAddInImp::RecalcLineXPoint

; 175  : 		return FALSE;		//  AddIn    FALSE return.
; 176  : 	}
; 177  : 
; 178  : 	return FALSE;
; 179  : }

  0008e	33 c0		 xor	 eax, eax
  00090	5b		 pop	 ebx
  00091	5d		 pop	 ebp
  00092	c2 0c 00	 ret	 12			; 0000000cH
?OnAddInToolCommand@CChartPeriodSummaryAddInImp@@MAEHW4EAICommandType@@PBDJ@Z ENDP ; CChartPeriodSummaryAddInImp::OnAddInToolCommand
_TEXT	ENDS
; Function compile flags: /Ogtp
; File D:\git\src\IBK\IBK_DRFN\ProjSrc\SrcChartEx\ChartAddIn\ChartPeriodSummaryAddIn\ChartPeriodSummaryAddInImp.cpp
; File C:\Program Files (x86)\Microsoft Visual Studio\2019\Community\VC\Tools\MSVC\14.29.30133\atlmfc\include\afxwin1.inl
; File D:\git\src\IBK\IBK_DRFN\ProjSrc\SrcChartEx\ChartAddIn\ChartPeriodSummaryAddIn\Include_Chart\Dll_Load\IMetaTable.h
; File C:\Program Files (x86)\Microsoft Visual Studio\2019\Community\VC\Tools\MSVC\14.29.30133\atlmfc\include\afxwin1.inl
; File D:\git\src\IBK\IBK_DRFN\ProjSrc\SrcChartEx\ChartAddIn\ChartPeriodSummaryAddIn\ChartPeriodSummaryAddInImp.cpp
; File D:\git\src\IBK\IBK_DRFN\ProjSrc\SrcChartEx\ChartAddIn\ChartPeriodSummaryAddIn\Include_Chart\Dll_Load\IMetaTable.h
; File C:\Program Files (x86)\Microsoft Visual Studio\2019\Community\VC\Tools\MSVC\14.29.30133\atlmfc\include\afxwin1.inl
; File D:\git\src\IBK\IBK_DRFN\ProjSrc\SrcChartEx\ChartAddIn\ChartPeriodSummaryAddIn\ChartPeriodSummaryAddInImp.cpp
;	COMDAT ?OnCmdMsg@CChartPeriodSummaryAddInImp@@MAEHIHPAUICmdUI133691@@@Z
_TEXT	SEGMENT
___mlrs__$ = -16					; size = 4
__$EHRec$ = -12						; size = 12
_nID$ = 8						; size = 4
_nCode$ = 12						; size = 4
_p_pICmdUI$ = 16					; size = 4
?OnCmdMsg@CChartPeriodSummaryAddInImp@@MAEHIHPAUICmdUI133691@@@Z PROC ; CChartPeriodSummaryAddInImp::OnCmdMsg, COMDAT
; _this$ = ecx

; 223  : {

  00000	55		 push	 ebp
  00001	8b ec		 mov	 ebp, esp
  00003	6a ff		 push	 -1
  00005	68 00 00 00 00	 push	 __ehhandler$?OnCmdMsg@CChartPeriodSummaryAddInImp@@MAEHIHPAUICmdUI133691@@@Z
  0000a	64 a1 00 00 00
	00		 mov	 eax, DWORD PTR fs:0
  00010	50		 push	 eax
  00011	51		 push	 ecx
  00012	53		 push	 ebx
  00013	56		 push	 esi
  00014	57		 push	 edi
  00015	a1 00 00 00 00	 mov	 eax, DWORD PTR ___security_cookie
  0001a	33 c5		 xor	 eax, ebp
  0001c	50		 push	 eax
  0001d	8d 45 f4	 lea	 eax, DWORD PTR __$EHRec$[ebp]
  00020	64 a3 00 00 00
	00		 mov	 DWORD PTR fs:0, eax
  00026	8b d9		 mov	 ebx, ecx

; 224  : 	ML_SET_LANGUAGE_RES();

  00028	e8 00 00 00 00	 call	 ?AfxGetStaticModuleState@@YGPAVAFX_MODULE_STATE@@XZ ; AfxGetStaticModuleState
  0002d	b9 00 00 00 00	 mov	 ecx, OFFSET ?g_iMetaTable@@3VIMetaTable@@A ; g_iMetaTable
  00032	8b 40 08	 mov	 eax, DWORD PTR [eax+8]
  00035	50		 push	 eax
  00036	ff 73 0c	 push	 DWORD PTR [ebx+12]
  00039	e8 00 00 00 00	 call	 ?LoadResourceDLL@IMetaTable@@QAEPAUHINSTANCE__@@PAUHWND__@@PAU2@@Z ; IMetaTable::LoadResourceDLL
  0003e	8b f8		 mov	 edi, eax
; File C:\Program Files (x86)\Microsoft Visual Studio\2019\Community\VC\Tools\MSVC\14.29.30133\atlmfc\include\afxwin1.inl

; 25   : 		return afxCurrentResourceHandle; }

  00040	e8 00 00 00 00	 call	 ?AfxGetModuleState@@YGPAVAFX_MODULE_STATE@@XZ ; AfxGetModuleState
; File D:\git\src\IBK\IBK_DRFN\ProjSrc\SrcChartEx\ChartAddIn\ChartPeriodSummaryAddIn\Include_Chart\Dll_Load\IMetaTable.h

; 1032 : 		m_hInstance = AfxGetResourceHandle();

  00045	8b 70 0c	 mov	 esi, DWORD PTR [eax+12]
  00048	89 75 f0	 mov	 DWORD PTR ___mlrs__$[ebp], esi
; File C:\Program Files (x86)\Microsoft Visual Studio\2019\Community\VC\Tools\MSVC\14.29.30133\atlmfc\include\afxwin1.inl

; 27   : 	{ ASSERT(hInstResource != NULL); afxCurrentResourceHandle = hInstResource; }

  0004b	e8 00 00 00 00	 call	 ?AfxGetModuleState@@YGPAVAFX_MODULE_STATE@@XZ ; AfxGetModuleState
  00050	89 78 0c	 mov	 DWORD PTR [eax+12], edi
; File D:\git\src\IBK\IBK_DRFN\ProjSrc\SrcChartEx\ChartAddIn\ChartPeriodSummaryAddIn\ChartPeriodSummaryAddInImp.cpp

; 225  : 	if(!m_nCommandType) return FALSE;

  00053	83 7b 68 00	 cmp	 DWORD PTR [ebx+104], 0
  00057	c7 45 fc 00 00
	00 00		 mov	 DWORD PTR __$EHRec$[ebp+8], 0
  0005e	0f 84 fc 00 00
	00		 je	 $LN19@OnCmdMsg

; 226  : 
; 227  : 	if( CN_UPDATE_COMMAND_UI == nCode)

  00064	8b 45 08	 mov	 eax, DWORD PTR _nID$[ebp]
  00067	8b 4d 0c	 mov	 ecx, DWORD PTR _nCode$[ebp]
  0006a	05 aa 5e ff ff	 add	 eax, -41302		; ffff5eaaH
  0006f	83 f9 ff	 cmp	 ecx, -1
  00072	75 2c		 jne	 SHORT $LN64@OnCmdMsg

; 228  : 	{
; 229  : 		switch( nID)

  00074	83 f8 03	 cmp	 eax, 3
  00077	0f 87 e3 00 00
	00		 ja	 $LN19@OnCmdMsg
  0007d	ff 24 85 00 00
	00 00		 jmp	 DWORD PTR $LN65@OnCmdMsg[eax*4]
$LN8@OnCmdMsg:

; 230  : 		{
; 231  : 		case ID_KSA_PERIODSUMMARY_CONFIG:
; 232  : 		case ID_KSA_PERIODSUMMARY_DELETE:
; 233  : 		case ID_KSA_COMMON_RELEASE:
; 234  : 		case ID_KSA_PERIODSUMMARY_EXECUTE:
; 235  : 			if( p_pICmdUI)

  00084	8b 4d 10	 mov	 ecx, DWORD PTR _p_pICmdUI$[ebp]
  00087	85 c9		 test	 ecx, ecx
  00089	0f 84 ca 00 00
	00		 je	 $LN4@OnCmdMsg

; 236  : 			{
; 237  : 				p_pICmdUI->Enable(TRUE);

  0008f	8b 01		 mov	 eax, DWORD PTR [ecx]
  00091	6a 01		 push	 1
  00093	ff 50 10	 call	 DWORD PTR [eax+16]

; 265  : 	return TRUE;

  00096	bf 01 00 00 00	 mov	 edi, 1
  0009b	e9 c2 00 00 00	 jmp	 $LN24@OnCmdMsg
$LN64@OnCmdMsg:

; 238  : 			}
; 239  : 			break;
; 240  : 		default:
; 241  : 			return FALSE;
; 242  : 		}
; 243  : 	}
; 244  : 
; 245  : 	if( CN_COMMAND == nCode)

  000a0	85 c9		 test	 ecx, ecx
  000a2	0f 85 b1 00 00
	00		 jne	 $LN4@OnCmdMsg

; 246  : 	{
; 247  : 		switch(nID)

  000a8	83 f8 03	 cmp	 eax, 3
  000ab	0f 87 af 00 00
	00		 ja	 $LN19@OnCmdMsg
  000b1	ff 24 85 00 00
	00 00		 jmp	 DWORD PTR $LN66@OnCmdMsg[eax*4]
$LN15@OnCmdMsg:

; 248  : 		{
; 249  : 		case ID_KSA_PERIODSUMMARY_CONFIG:
; 250  : 			OnPSConfig(m_pCurSelectedLine);

  000b8	ff 73 78	 push	 DWORD PTR [ebx+120]
  000bb	8d 4b f8	 lea	 ecx, DWORD PTR [ebx-8]
  000be	e8 00 00 00 00	 call	 ?OnPSConfig@CChartPeriodSummaryAddInImp@@QAEXPAVCPeriodObj@@@Z ; CChartPeriodSummaryAddInImp::OnPSConfig

; 265  : 	return TRUE;

  000c3	bf 01 00 00 00	 mov	 edi, 1
  000c8	e9 95 00 00 00	 jmp	 $LN24@OnCmdMsg
$LN16@OnCmdMsg:

; 1647 : 	if( m_pIAddInToolMgr != NULL )

  000cd	8b 4b 28	 mov	 ecx, DWORD PTR [ebx+40]

; 1270 : 		UnregPS((long)m_pCurSelectedLine);

  000d0	8b 53 78	 mov	 edx, DWORD PTR [ebx+120]

; 1647 : 	if( m_pIAddInToolMgr != NULL )

  000d3	85 c9		 test	 ecx, ecx
  000d5	74 14		 je	 SHORT $LN47@OnCmdMsg

; 1648 : 	{
; 1649 : 		m_pIAddInToolMgr->OnAddInToolCommand( EAI_TOOLORDERMGR_DELETE_TOOL_FROM_ORDERMANAGER,	

  000d7	8b 01		 mov	 eax, DWORD PTR [ecx]
  000d9	52		 push	 edx
  000da	ff 35 00 00 00
	00		 push	 DWORD PTR ?m_strAddInItemName@CChartPeriodSummaryAddInImp@@2V?$CStringT@DV?$StrTraitMFC_DLL@DV?$ChTraitsCRT@D@ATL@@@@@ATL@@A ; CChartPeriodSummaryAddInImp::m_strAddInItemName
  000e0	6a 32		 push	 50			; 00000032H
  000e2	ff 90 a0 00 00
	00		 call	 DWORD PTR [eax+160]
  000e8	8b 53 78	 mov	 edx, DWORD PTR [ebx+120]
$LN47@OnCmdMsg:

; 1272 : 		POSITION psn = m_LineList.Find( m_pCurSelectedLine);

  000eb	6a 00		 push	 0
  000ed	52		 push	 edx
  000ee	8d 8b 84 00 00
	00		 lea	 ecx, DWORD PTR [ebx+132]
  000f4	e8 00 00 00 00	 call	 ?Find@CObList@@QBEPAU__POSITION@@PAVCObject@@PAU2@@Z ; CObList::Find

; 1273 : 		if( psn) m_LineList.RemoveAt( psn);

  000f9	85 c0		 test	 eax, eax
  000fb	74 0c		 je	 SHORT $LN42@OnCmdMsg
  000fd	50		 push	 eax
  000fe	8d 8b 84 00 00
	00		 lea	 ecx, DWORD PTR [ebx+132]
  00104	e8 00 00 00 00	 call	 ?RemoveAt@CObList@@QAEXPAU__POSITION@@@Z ; CObList::RemoveAt
$LN42@OnCmdMsg:

; 1274 : 		
; 1275 : 		delete m_pCurSelectedLine;

  00109	8b 4b 78	 mov	 ecx, DWORD PTR [ebx+120]
  0010c	85 c9		 test	 ecx, ecx
  0010e	74 07		 je	 SHORT $LN44@OnCmdMsg
  00110	8b 01		 mov	 eax, DWORD PTR [ecx]
  00112	6a 01		 push	 1
  00114	ff 50 04	 call	 DWORD PTR [eax+4]
$LN44@OnCmdMsg:

; 1276 : 		m_pCurSelectedLine = NULL;
; 1277 : 
; 1278 : 		m_pIChartOCX->InvalidateControl();

  00117	8b 4b 04	 mov	 ecx, DWORD PTR [ebx+4]
  0011a	c7 43 78 00 00
	00 00		 mov	 DWORD PTR [ebx+120], 0
  00121	8b 01		 mov	 eax, DWORD PTR [ecx]
  00123	ff 50 38	 call	 DWORD PTR [eax+56]

; 265  : 	return TRUE;

  00126	bf 01 00 00 00	 mov	 edi, 1
  0012b	eb 35		 jmp	 SHORT $LN24@OnCmdMsg
$LN17@OnCmdMsg:

; 1283 : 	m_nCommandType = 2;

  0012d	c7 43 68 02 00
	00 00		 mov	 DWORD PTR [ebx+104], 2

; 1284 : 	if( m_pIChartOCX != NULL )

  00134	8b 4b 04	 mov	 ecx, DWORD PTR [ebx+4]
  00137	85 c9		 test	 ecx, ecx
  00139	74 1e		 je	 SHORT $LN4@OnCmdMsg

; 1285 : 		m_pIChartOCX->OnToolStateChanged( CToolOptionInfo::T_TOOL_PERIOD_SUMMARY, FALSE );	

  0013b	8b 01		 mov	 eax, DWORD PTR [ecx]
  0013d	6a 00		 push	 0
  0013f	6a 67		 push	 103			; 00000067H
  00141	ff 90 ac 01 00
	00		 call	 DWORD PTR [eax+428]

; 265  : 	return TRUE;

  00147	bf 01 00 00 00	 mov	 edi, 1
  0014c	eb 14		 jmp	 SHORT $LN24@OnCmdMsg
$LN18@OnCmdMsg:

; 251  : 			break;
; 252  : 		case ID_KSA_PERIODSUMMARY_DELETE:
; 253  : 			OnDeleteLine();
; 254  : 			break;
; 255  : 		case ID_KSA_COMMON_RELEASE:
; 256  : 			OnReleaseDraw();
; 257  : 			break;
; 258  : 		case ID_KSA_PERIODSUMMARY_EXECUTE:
; 259  : 			OnToolCommand( CToolOptionInfo::T_TOOL_PERIOD_SUMMARY, 1);

  0014e	8b 03		 mov	 eax, DWORD PTR [ebx]
  00150	8b cb		 mov	 ecx, ebx
  00152	6a 01		 push	 1
  00154	6a 67		 push	 103			; 00000067H
  00156	ff 50 78	 call	 DWORD PTR [eax+120]
$LN4@OnCmdMsg:

; 265  : 	return TRUE;

  00159	bf 01 00 00 00	 mov	 edi, 1
  0015e	eb 02		 jmp	 SHORT $LN24@OnCmdMsg
$LN19@OnCmdMsg:
  00160	33 ff		 xor	 edi, edi
$LN24@OnCmdMsg:
; File D:\git\src\IBK\IBK_DRFN\ProjSrc\SrcChartEx\ChartAddIn\ChartPeriodSummaryAddIn\Include_Chart\Dll_Load\IMetaTable.h

; 1036 : 	{

  00162	c7 45 fc 04 00
	00 00		 mov	 DWORD PTR __$EHRec$[ebp+8], 4
; File C:\Program Files (x86)\Microsoft Visual Studio\2019\Community\VC\Tools\MSVC\14.29.30133\atlmfc\include\afxwin1.inl

; 27   : 	{ ASSERT(hInstResource != NULL); afxCurrentResourceHandle = hInstResource; }

  00169	e8 00 00 00 00	 call	 ?AfxGetModuleState@@YGPAVAFX_MODULE_STATE@@XZ ; AfxGetModuleState
  0016e	89 70 0c	 mov	 DWORD PTR [eax+12], esi
; File D:\git\src\IBK\IBK_DRFN\ProjSrc\SrcChartEx\ChartAddIn\ChartPeriodSummaryAddIn\ChartPeriodSummaryAddInImp.cpp

; 265  : 	return TRUE;

  00171	8b c7		 mov	 eax, edi

; 266  : }

  00173	8b 4d f4	 mov	 ecx, DWORD PTR __$EHRec$[ebp]
  00176	64 89 0d 00 00
	00 00		 mov	 DWORD PTR fs:0, ecx
  0017d	59		 pop	 ecx
  0017e	5f		 pop	 edi
  0017f	5e		 pop	 esi
  00180	5b		 pop	 ebx
  00181	8b e5		 mov	 esp, ebp
  00183	5d		 pop	 ebp
  00184	c2 0c 00	 ret	 12			; 0000000cH
  00187	90		 npad	 1
$LN65@OnCmdMsg:
  00188	00 00 00 00	 DD	 $LN8@OnCmdMsg
  0018c	00 00 00 00	 DD	 $LN8@OnCmdMsg
  00190	00 00 00 00	 DD	 $LN8@OnCmdMsg
  00194	00 00 00 00	 DD	 $LN8@OnCmdMsg
$LN66@OnCmdMsg:
  00198	00 00 00 00	 DD	 $LN16@OnCmdMsg
  0019c	00 00 00 00	 DD	 $LN15@OnCmdMsg
  001a0	00 00 00 00	 DD	 $LN17@OnCmdMsg
  001a4	00 00 00 00	 DD	 $LN18@OnCmdMsg
_TEXT	ENDS
;	COMDAT text$x
text$x	SEGMENT
__unwindfunclet$?OnCmdMsg@CChartPeriodSummaryAddInImp@@MAEHIHPAUICmdUI133691@@@Z$0:
  00000	8d 4d f0	 lea	 ecx, DWORD PTR ___mlrs__$[ebp]
  00003	e9 00 00 00 00	 jmp	 ??1CMultiLanguageResourceSetter@@QAE@XZ ; CMultiLanguageResourceSetter::~CMultiLanguageResourceSetter
  00008	cc		 int	 3
  00009	cc		 int	 3
  0000a	cc		 int	 3
  0000b	cc		 int	 3
  0000c	cc		 int	 3
__ehhandler$?OnCmdMsg@CChartPeriodSummaryAddInImp@@MAEHIHPAUICmdUI133691@@@Z:
  0000d	90		 npad	 1
  0000e	90		 npad	 1
  0000f	8b 54 24 08	 mov	 edx, DWORD PTR [esp+8]
  00013	8d 42 0c	 lea	 eax, DWORD PTR [edx+12]
  00016	8b 4a ec	 mov	 ecx, DWORD PTR [edx-20]
  00019	33 c8		 xor	 ecx, eax
  0001b	e8 00 00 00 00	 call	 @__security_check_cookie@4
  00020	b8 00 00 00 00	 mov	 eax, OFFSET __ehfuncinfo$?OnCmdMsg@CChartPeriodSummaryAddInImp@@MAEHIHPAUICmdUI133691@@@Z
  00025	e9 00 00 00 00	 jmp	 ___CxxFrameHandler3
text$x	ENDS
?OnCmdMsg@CChartPeriodSummaryAddInImp@@MAEHIHPAUICmdUI133691@@@Z ENDP ; CChartPeriodSummaryAddInImp::OnCmdMsg
; Function compile flags: /Ogtp
; File D:\git\src\IBK\IBK_DRFN\ProjSrc\SrcChartEx\ChartAddIn\ChartPeriodSummaryAddIn\ChartPeriodSummaryAddInImp.cpp
;	COMDAT ?OnCaptureChanged@CChartPeriodSummaryAddInImp@@MAEXPAUHWND__@@QAUHBITMAP__@@@Z
_TEXT	SEGMENT
_p_hWnd$ = 8						; size = 4
_p_hbmpMainOSB$ = 12					; size = 4
?OnCaptureChanged@CChartPeriodSummaryAddInImp@@MAEXPAUHWND__@@QAUHBITMAP__@@@Z PROC ; CChartPeriodSummaryAddInImp::OnCaptureChanged, COMDAT
; _this$ = ecx

; 1502 : 	m_bMouseCaptured = FALSE;

  00000	c7 41 50 00 00
	00 00		 mov	 DWORD PTR [ecx+80], 0

; 1503 : }

  00007	c2 08 00	 ret	 8
?OnCaptureChanged@CChartPeriodSummaryAddInImp@@MAEXPAUHWND__@@QAUHBITMAP__@@@Z ENDP ; CChartPeriodSummaryAddInImp::OnCaptureChanged
_TEXT	ENDS
; Function compile flags: /Ogtp
; File D:\git\src\IBK\IBK_DRFN\ProjSrc\SrcChartEx\ChartAddIn\ChartPeriodSummaryAddIn\ChartPeriodSummaryAddInImp.cpp
; File C:\Program Files (x86)\Microsoft Visual Studio\2019\Community\VC\Tools\MSVC\14.29.30133\atlmfc\include\atltypes.h
; File D:\git\src\IBK\IBK_DRFN\ProjSrc\SrcChartEx\ChartAddIn\ChartPeriodSummaryAddIn\ChartPeriodSummaryAddInImp.cpp
; File C:\Program Files (x86)\Microsoft Visual Studio\2019\Community\VC\Tools\MSVC\14.29.30133\atlmfc\include\afxwin1.inl
; File D:\git\src\IBK\IBK_DRFN\ProjSrc\SrcChartEx\ChartAddIn\ChartPeriodSummaryAddIn\Include_Chart\Dll_Load\IMetaTable.h
; File C:\Program Files (x86)\Microsoft Visual Studio\2019\Community\VC\Tools\MSVC\14.29.30133\atlmfc\include\afxwin1.inl
; File D:\git\src\IBK\IBK_DRFN\ProjSrc\SrcChartEx\ChartAddIn\ChartPeriodSummaryAddIn\ChartPeriodSummaryAddInImp.cpp
; File D:\git\src\IBK\IBK_DRFN\ProjSrc\SrcChartEx\ChartAddIn\ChartPeriodSummaryAddIn\Include_Chart\Dll_Load\IMetaTable.h
; File D:\git\src\IBK\IBK_DRFN\ProjSrc\SrcChartEx\ChartAddIn\ChartPeriodSummaryAddIn\ChartPeriodSummaryAddInImp.cpp
; File D:\git\src\IBK\IBK_DRFN\ProjSrc\SrcChartEx\ChartAddIn\ChartPeriodSummaryAddIn\Include_Chart\Dll_Load\IMetaTable.h
; File D:\git\src\IBK\IBK_DRFN\ProjSrc\SrcChartEx\ChartAddIn\ChartPeriodSummaryAddIn\ChartPeriodSummaryAddInImp.cpp
; File C:\Program Files (x86)\Microsoft Visual Studio\2019\Community\VC\Tools\MSVC\14.29.30133\atlmfc\include\afxwin1.inl
; File D:\git\src\IBK\IBK_DRFN\ProjSrc\SrcChartEx\ChartAddIn\ChartPeriodSummaryAddIn\ChartPeriodSummaryAddInImp.cpp
; File C:\Program Files (x86)\Microsoft Visual Studio\2019\Community\VC\Tools\MSVC\14.29.30133\atlmfc\include\afxwin1.inl
; File D:\git\src\IBK\IBK_DRFN\ProjSrc\SrcChartEx\ChartAddIn\ChartPeriodSummaryAddIn\ChartPeriodSummaryAddInImp.cpp
; File C:\Program Files (x86)\Microsoft Visual Studio\2019\Community\VC\Tools\MSVC\14.29.30133\atlmfc\include\atlsimpstr.h
; File D:\git\src\IBK\IBK_DRFN\ProjSrc\SrcChartEx\ChartAddIn\ChartPeriodSummaryAddIn\ChartPeriodSummaryAddInImp.cpp
; File C:\Program Files (x86)\Microsoft Visual Studio\2019\Community\VC\Tools\MSVC\14.29.30133\atlmfc\include\atlsimpstr.h
; File D:\git\src\IBK\IBK_DRFN\ProjSrc\SrcChartEx\ChartAddIn\ChartPeriodSummaryAddIn\ChartPeriodSummaryAddInImp.cpp
; File C:\Program Files (x86)\Microsoft Visual Studio\2019\Community\VC\Tools\MSVC\14.29.30133\atlmfc\include\atlsimpstr.h
; File D:\git\src\IBK\IBK_DRFN\ProjSrc\SrcChartEx\ChartAddIn\ChartPeriodSummaryAddIn\ChartPeriodSummaryAddInImp.cpp
; File C:\Program Files (x86)\Microsoft Visual Studio\2019\Community\VC\Tools\MSVC\14.29.30133\atlmfc\include\atlsimpstr.h
; File D:\git\src\IBK\IBK_DRFN\ProjSrc\SrcChartEx\ChartAddIn\ChartPeriodSummaryAddIn\ChartPeriodSummaryAddInImp.cpp
; File C:\Program Files (x86)\Microsoft Visual Studio\2019\Community\VC\Tools\MSVC\14.29.30133\atlmfc\include\atlsimpstr.h
; File D:\git\src\IBK\IBK_DRFN\ProjSrc\SrcChartEx\ChartAddIn\ChartPeriodSummaryAddIn\ChartPeriodSummaryAddInImp.cpp
; File C:\Program Files (x86)\Microsoft Visual Studio\2019\Community\VC\Tools\MSVC\14.29.30133\atlmfc\include\atlsimpstr.h
; File D:\git\src\IBK\IBK_DRFN\ProjSrc\SrcChartEx\ChartAddIn\ChartPeriodSummaryAddIn\ChartPeriodSummaryAddInImp.cpp
; File C:\Program Files (x86)\Microsoft Visual Studio\2019\Community\VC\Tools\MSVC\14.29.30133\atlmfc\include\atlsimpstr.h
; File D:\git\src\IBK\IBK_DRFN\ProjSrc\SrcChartEx\ChartAddIn\ChartPeriodSummaryAddIn\ChartPeriodSummaryAddInImp.cpp
; File C:\Program Files (x86)\Microsoft Visual Studio\2019\Community\VC\Tools\MSVC\14.29.30133\atlmfc\include\atlsimpstr.h
; File D:\git\src\IBK\IBK_DRFN\ProjSrc\SrcChartEx\ChartAddIn\ChartPeriodSummaryAddIn\ChartPeriodSummaryAddInImp.cpp
; File C:\Program Files (x86)\Microsoft Visual Studio\2019\Community\VC\Tools\MSVC\14.29.30133\atlmfc\include\atlsimpstr.h
; File D:\git\src\IBK\IBK_DRFN\ProjSrc\SrcChartEx\ChartAddIn\ChartPeriodSummaryAddIn\ChartPeriodSummaryAddInImp.cpp
; File C:\Program Files (x86)\Microsoft Visual Studio\2019\Community\VC\Tools\MSVC\14.29.30133\atlmfc\include\afxwin1.inl
; File D:\git\src\IBK\IBK_DRFN\ProjSrc\SrcChartEx\ChartAddIn\ChartPeriodSummaryAddIn\ChartPeriodSummaryAddInImp.cpp
; File C:\Program Files (x86)\Microsoft Visual Studio\2019\Community\VC\Tools\MSVC\14.29.30133\atlmfc\include\afxwin1.inl
; File D:\git\src\IBK\IBK_DRFN\ProjSrc\SrcChartEx\ChartAddIn\ChartPeriodSummaryAddIn\Include_Chart\Dll_Load\IMetaTable.h
; File D:\git\src\IBK\IBK_DRFN\ProjSrc\SrcChartEx\ChartAddIn\ChartPeriodSummaryAddIn\ChartPeriodSummaryAddInImp.cpp
; File C:\Program Files (x86)\Microsoft Visual Studio\2019\Community\VC\Tools\MSVC\14.29.30133\atlmfc\include\atlsimpstr.h
; File D:\git\src\IBK\IBK_DRFN\ProjSrc\SrcChartEx\ChartAddIn\ChartPeriodSummaryAddIn\ChartPeriodSummaryAddInImp.cpp
; File C:\Program Files (x86)\Microsoft Visual Studio\2019\Community\VC\Tools\MSVC\14.29.30133\atlmfc\include\atlsimpstr.h
; File D:\git\src\IBK\IBK_DRFN\ProjSrc\SrcChartEx\ChartAddIn\ChartPeriodSummaryAddIn\ChartPeriodSummaryAddInImp.cpp
; File C:\Program Files (x86)\Microsoft Visual Studio\2019\Community\VC\Tools\MSVC\14.29.30133\atlmfc\include\afxwin1.inl
; File D:\git\src\IBK\IBK_DRFN\ProjSrc\SrcChartEx\ChartAddIn\ChartPeriodSummaryAddIn\ChartPeriodSummaryAddInImp.cpp
; File C:\Program Files (x86)\Microsoft Visual Studio\2019\Community\VC\Tools\MSVC\14.29.30133\atlmfc\include\afxwin1.inl
; File D:\git\src\IBK\IBK_DRFN\ProjSrc\SrcChartEx\ChartAddIn\ChartPeriodSummaryAddIn\Include_Chart\Dll_Load\IMetaTable.h
; File D:\git\src\IBK\IBK_DRFN\ProjSrc\SrcChartEx\ChartAddIn\ChartPeriodSummaryAddIn\ChartPeriodSummaryAddInImp.cpp
; File C:\Program Files (x86)\Microsoft Visual Studio\2019\Community\VC\Tools\MSVC\14.29.30133\atlmfc\include\atlsimpstr.h
; File D:\git\src\IBK\IBK_DRFN\ProjSrc\SrcChartEx\ChartAddIn\ChartPeriodSummaryAddIn\ChartPeriodSummaryAddInImp.cpp
; File C:\Program Files (x86)\Microsoft Visual Studio\2019\Community\VC\Tools\MSVC\14.29.30133\atlmfc\include\atlsimpstr.h
; File D:\git\src\IBK\IBK_DRFN\ProjSrc\SrcChartEx\ChartAddIn\ChartPeriodSummaryAddIn\ChartPeriodSummaryAddInImp.cpp
; File C:\Program Files (x86)\Microsoft Visual Studio\2019\Community\VC\Tools\MSVC\14.29.30133\atlmfc\include\afxwin1.inl
; File D:\git\src\IBK\IBK_DRFN\ProjSrc\SrcChartEx\ChartAddIn\ChartPeriodSummaryAddIn\ChartPeriodSummaryAddInImp.cpp
; File C:\Program Files (x86)\Microsoft Visual Studio\2019\Community\VC\Tools\MSVC\14.29.30133\atlmfc\include\afxwin1.inl
; File D:\git\src\IBK\IBK_DRFN\ProjSrc\SrcChartEx\ChartAddIn\ChartPeriodSummaryAddIn\Include_Chart\Dll_Load\IMetaTable.h
; File D:\git\src\IBK\IBK_DRFN\ProjSrc\SrcChartEx\ChartAddIn\ChartPeriodSummaryAddIn\ChartPeriodSummaryAddInImp.cpp
; File C:\Program Files (x86)\Microsoft Visual Studio\2019\Community\VC\Tools\MSVC\14.29.30133\atlmfc\include\afxwin1.inl
; File D:\git\src\IBK\IBK_DRFN\ProjSrc\SrcChartEx\ChartAddIn\ChartPeriodSummaryAddIn\ChartPeriodSummaryAddInImp.cpp
; File D:\git\src\IBK\IBK_DRFN\ProjSrc\SrcChartEx\ChartAddIn\ChartPeriodSummaryAddIn\Include_Chart\Dll_Load\IMetaTable.h
; File D:\git\src\IBK\IBK_DRFN\ProjSrc\SrcChartEx\ChartAddIn\ChartPeriodSummaryAddIn\ChartPeriodSummaryAddInImp.cpp
;	COMDAT ?DrawCursor@CChartPeriodSummaryAddInImp@@MAE?AUtagRECT@@PAUHDC__@@@Z
_TEXT	SEGMENT
___mlrs__$ = -64					; size = 4
_pDC$1$ = -60						; size = 4
tv552 = -56						; size = 8
tv492 = -56						; size = 8
_ptTemp$2$ = -52					; size = 4
_p_hDC$GSCopy$1$ = -52					; size = 4
_iy$2 = -52						; size = 4
_rgn$3 = -48						; size = 8
___$ReturnUdt$GSCopy$1$ = -40				; size = 4
_this$GSCopy$1$ = -36					; size = 4
_ix$4 = -36						; size = 4
_rct$ = -32						; size = 16
__$ArrayPad$ = -16					; size = 4
__$EHRec$ = -12						; size = 12
___$ReturnUdt$ = 8					; size = 4
_p_hDC$ = 12						; size = 4
?DrawCursor@CChartPeriodSummaryAddInImp@@MAE?AUtagRECT@@PAUHDC__@@@Z PROC ; CChartPeriodSummaryAddInImp::DrawCursor, COMDAT
; _this$ = ecx

; 1370 : {

  00000	55		 push	 ebp
  00001	8b ec		 mov	 ebp, esp
  00003	6a ff		 push	 -1
  00005	68 00 00 00 00	 push	 __ehhandler$?DrawCursor@CChartPeriodSummaryAddInImp@@MAE?AUtagRECT@@PAUHDC__@@@Z
  0000a	64 a1 00 00 00
	00		 mov	 eax, DWORD PTR fs:0
  00010	50		 push	 eax
  00011	83 ec 34	 sub	 esp, 52			; 00000034H
  00014	a1 00 00 00 00	 mov	 eax, DWORD PTR ___security_cookie
  00019	33 c5		 xor	 eax, ebp
  0001b	89 45 f0	 mov	 DWORD PTR __$ArrayPad$[ebp], eax
  0001e	56		 push	 esi
  0001f	57		 push	 edi
  00020	50		 push	 eax
  00021	8d 45 f4	 lea	 eax, DWORD PTR __$EHRec$[ebp]
  00024	64 a3 00 00 00
	00		 mov	 DWORD PTR fs:0, eax
  0002a	8b f1		 mov	 esi, ecx
  0002c	89 75 dc	 mov	 DWORD PTR _this$GSCopy$1$[ebp], esi
  0002f	8b 45 08	 mov	 eax, DWORD PTR ___$ReturnUdt$[ebp]
  00032	0f 57 c0	 xorps	 xmm0, xmm0
  00035	89 45 d8	 mov	 DWORD PTR ___$ReturnUdt$GSCopy$1$[ebp], eax
  00038	8b 45 0c	 mov	 eax, DWORD PTR _p_hDC$[ebp]
  0003b	89 45 cc	 mov	 DWORD PTR _p_hDC$GSCopy$1$[ebp], eax
; File C:\Program Files (x86)\Microsoft Visual Studio\2019\Community\VC\Tools\MSVC\14.29.30133\atlmfc\include\atltypes.h

; 669  : 	::SetRectEmpty(this);

  0003e	8d 45 e0	 lea	 eax, DWORD PTR _rct$[ebp]
  00041	50		 push	 eax

; 528  : 	left = 0;

  00042	0f 11 45 e0	 movups	 XMMWORD PTR _rct$[ebp], xmm0

; 669  : 	::SetRectEmpty(this);

  00046	ff 15 00 00 00
	00		 call	 DWORD PTR __imp__SetRectEmpty@4
; File D:\git\src\IBK\IBK_DRFN\ProjSrc\SrcChartEx\ChartAddIn\ChartPeriodSummaryAddIn\ChartPeriodSummaryAddInImp.cpp

; 1374 : 	ML_SET_LANGUAGE_RES();

  0004c	e8 00 00 00 00	 call	 ?AfxGetStaticModuleState@@YGPAVAFX_MODULE_STATE@@XZ ; AfxGetStaticModuleState
  00051	b9 00 00 00 00	 mov	 ecx, OFFSET ?g_iMetaTable@@3VIMetaTable@@A ; g_iMetaTable
  00056	8b 40 08	 mov	 eax, DWORD PTR [eax+8]
  00059	50		 push	 eax
  0005a	ff 76 0c	 push	 DWORD PTR [esi+12]
  0005d	e8 00 00 00 00	 call	 ?LoadResourceDLL@IMetaTable@@QAEPAUHINSTANCE__@@PAUHWND__@@PAU2@@Z ; IMetaTable::LoadResourceDLL
  00062	8b f8		 mov	 edi, eax
; File C:\Program Files (x86)\Microsoft Visual Studio\2019\Community\VC\Tools\MSVC\14.29.30133\atlmfc\include\afxwin1.inl

; 25   : 		return afxCurrentResourceHandle; }

  00064	e8 00 00 00 00	 call	 ?AfxGetModuleState@@YGPAVAFX_MODULE_STATE@@XZ ; AfxGetModuleState
; File D:\git\src\IBK\IBK_DRFN\ProjSrc\SrcChartEx\ChartAddIn\ChartPeriodSummaryAddIn\Include_Chart\Dll_Load\IMetaTable.h

; 1032 : 		m_hInstance = AfxGetResourceHandle();

  00069	8b 70 0c	 mov	 esi, DWORD PTR [eax+12]
  0006c	89 75 c0	 mov	 DWORD PTR ___mlrs__$[ebp], esi
; File C:\Program Files (x86)\Microsoft Visual Studio\2019\Community\VC\Tools\MSVC\14.29.30133\atlmfc\include\afxwin1.inl

; 27   : 	{ ASSERT(hInstResource != NULL); afxCurrentResourceHandle = hInstResource; }

  0006f	e8 00 00 00 00	 call	 ?AfxGetModuleState@@YGPAVAFX_MODULE_STATE@@XZ ; AfxGetModuleState
  00074	89 78 0c	 mov	 DWORD PTR [eax+12], edi
; File D:\git\src\IBK\IBK_DRFN\ProjSrc\SrcChartEx\ChartAddIn\ChartPeriodSummaryAddIn\ChartPeriodSummaryAddInImp.cpp

; 1377 : 	CDC *pDC = CDC::FromHandle( p_hDC);

  00077	ff 75 cc	 push	 DWORD PTR _p_hDC$GSCopy$1$[ebp]
  0007a	c7 45 fc 00 00
	00 00		 mov	 DWORD PTR __$EHRec$[ebp+8], 0
  00081	e8 00 00 00 00	 call	 ?FromHandle@CDC@@SGPAV1@PAUHDC__@@@Z ; CDC::FromHandle
  00086	89 45 c4	 mov	 DWORD PTR _pDC$1$[ebp], eax

; 1378 : 	if( !pDC) return rct;

  00089	85 c0		 test	 eax, eax
  0008b	75 16		 jne	 SHORT $LN2@DrawCursor
  0008d	8b 7d d8	 mov	 edi, DWORD PTR ___$ReturnUdt$GSCopy$1$[ebp]
  00090	0f 10 45 e0	 movups	 xmm0, XMMWORD PTR _rct$[ebp]
  00094	0f 11 07	 movups	 XMMWORD PTR [edi], xmm0
; File D:\git\src\IBK\IBK_DRFN\ProjSrc\SrcChartEx\ChartAddIn\ChartPeriodSummaryAddIn\Include_Chart\Dll_Load\IMetaTable.h

; 1036 : 	{

  00097	c7 45 fc 01 00
	00 00		 mov	 DWORD PTR __$EHRec$[ebp+8], 1
; File D:\git\src\IBK\IBK_DRFN\ProjSrc\SrcChartEx\ChartAddIn\ChartPeriodSummaryAddIn\ChartPeriodSummaryAddInImp.cpp

; 1378 : 	if( !pDC) return rct;

  0009e	e9 12 04 00 00	 jmp	 $LN109@DrawCursor
$LN2@DrawCursor:

; 1379 : 
; 1380 : 	if( m_pIAddInToolMgr->IsLButtonExclusive( m_pIAddInDllBase))

  000a3	8b 7d dc	 mov	 edi, DWORD PTR _this$GSCopy$1$[ebp]
  000a6	8b 4f 28	 mov	 ecx, DWORD PTR [edi+40]
  000a9	ff 77 14	 push	 DWORD PTR [edi+20]
  000ac	8b 01		 mov	 eax, DWORD PTR [ecx]
  000ae	8b 40 34	 mov	 eax, DWORD PTR [eax+52]
  000b1	ff d0		 call	 eax
  000b3	85 c0		 test	 eax, eax
  000b5	0f 84 e9 03 00
	00		 je	 $LN101@DrawCursor

; 1382 : 		if(!m_pCurSelectedLine) return rct;

  000bb	8b 47 78	 mov	 eax, DWORD PTR [edi+120]
  000be	85 c0		 test	 eax, eax
  000c0	75 16		 jne	 SHORT $LN4@DrawCursor
  000c2	8b 7d d8	 mov	 edi, DWORD PTR ___$ReturnUdt$GSCopy$1$[ebp]
  000c5	0f 10 45 e0	 movups	 xmm0, XMMWORD PTR _rct$[ebp]
  000c9	0f 11 07	 movups	 XMMWORD PTR [edi], xmm0
; File D:\git\src\IBK\IBK_DRFN\ProjSrc\SrcChartEx\ChartAddIn\ChartPeriodSummaryAddIn\Include_Chart\Dll_Load\IMetaTable.h

; 1036 : 	{

  000cc	c7 45 fc 02 00
	00 00		 mov	 DWORD PTR __$EHRec$[ebp+8], 2
; File D:\git\src\IBK\IBK_DRFN\ProjSrc\SrcChartEx\ChartAddIn\ChartPeriodSummaryAddIn\ChartPeriodSummaryAddInImp.cpp

; 1382 : 		if(!m_pCurSelectedLine) return rct;

  000d3	e9 dd 03 00 00	 jmp	 $LN109@DrawCursor
$LN4@DrawCursor:
; File C:\Program Files (x86)\Microsoft Visual Studio\2019\Community\VC\Tools\MSVC\14.29.30133\atlmfc\include\afxwin1.inl

; 70   : 	{ m_hObject = NULL; }

  000d8	c7 45 d4 00 00
	00 00		 mov	 DWORD PTR _rgn$3[ebp+4], 0

; 264  : 	{ }

  000df	c7 45 d0 00 00
	00 00		 mov	 DWORD PTR _rgn$3[ebp], OFFSET ??_7CRgn@@6B@

; 268  : 	{ return Attach(::CreateRectRgn(x1, y1, x2, y2)); }

  000e6	ff b0 0c 02 00
	00		 push	 DWORD PTR [eax+524]
; File D:\git\src\IBK\IBK_DRFN\ProjSrc\SrcChartEx\ChartAddIn\ChartPeriodSummaryAddIn\ChartPeriodSummaryAddInImp.cpp

; 1383 : 		CRgn rgn;

  000ec	c6 45 fc 03	 mov	 BYTE PTR __$EHRec$[ebp+8], 3
; File C:\Program Files (x86)\Microsoft Visual Studio\2019\Community\VC\Tools\MSVC\14.29.30133\atlmfc\include\afxwin1.inl

; 268  : 	{ return Attach(::CreateRectRgn(x1, y1, x2, y2)); }

  000f0	ff b0 08 02 00
	00		 push	 DWORD PTR [eax+520]
  000f6	ff b0 04 02 00
	00		 push	 DWORD PTR [eax+516]
  000fc	ff b0 00 02 00
	00		 push	 DWORD PTR [eax+512]
  00102	ff 15 00 00 00
	00		 call	 DWORD PTR __imp__CreateRectRgn@16
  00108	50		 push	 eax
  00109	8d 4d d0	 lea	 ecx, DWORD PTR _rgn$3[ebp]
  0010c	e8 00 00 00 00	 call	 ?Attach@CGdiObject@@QAEHPAX@Z ; CGdiObject::Attach
; File D:\git\src\IBK\IBK_DRFN\ProjSrc\SrcChartEx\ChartAddIn\ChartPeriodSummaryAddIn\ChartPeriodSummaryAddInImp.cpp

; 1388 : 		pDC->SelectClipRgn(&rgn);

  00111	8b 4d c4	 mov	 ecx, DWORD PTR _pDC$1$[ebp]
  00114	8d 45 d0	 lea	 eax, DWORD PTR _rgn$3[ebp]
  00117	50		 push	 eax
  00118	e8 00 00 00 00	 call	 ?SelectClipRgn@CDC@@QAEHPAVCRgn@@@Z ; CDC::SelectClipRgn

; 1389 : 
; 1390 : 		m_pCurSelectedLine->SetPos(m_ptCursor, m_pCurSelectedLine->m_CurClickedPosition);

  0011d	8b 4f 78	 mov	 ecx, DWORD PTR [edi+120]
  00120	ff b1 10 01 00
	00		 push	 DWORD PTR [ecx+272]
  00126	ff 77 58	 push	 DWORD PTR [edi+88]
  00129	ff 77 54	 push	 DWORD PTR [edi+84]
  0012c	e8 00 00 00 00	 call	 ?SetPos@CPeriodObj@@QAEXVCPoint@@H@Z ; CPeriodObj::SetPos

; 1391 : 
; 1392 : 		//////////////////////////////////////////////////////////////////////////
; 1393 : 		//    
; 1394 : 		if(m_pCurSelectedLine->m_ptAStart.x > m_pCurSelectedLine->m_ptAEnd.x)	//  

  00131	8b 57 78	 mov	 edx, DWORD PTR [edi+120]
  00134	8b 82 e8 00 00
	00		 mov	 eax, DWORD PTR [edx+232]
  0013a	3b 82 f0 00 00
	00		 cmp	 eax, DWORD PTR [edx+240]
  00140	7e 6b		 jle	 SHORT $LN5@DrawCursor

; 1395 : 		{
; 1396 : 			CPoint ptTemp;
; 1397 : 			if(m_pCurSelectedLine->m_CurClickedPosition == E_PT)

  00142	8b 82 10 01 00
	00		 mov	 eax, DWORD PTR [edx+272]
  00148	83 f8 02	 cmp	 eax, 2
  0014b	75 0c		 jne	 SHORT $LN6@DrawCursor

; 1398 : 			{
; 1399 : 				m_pCurSelectedLine->m_CurClickedPosition = S_PT;

  0014d	c7 82 10 01 00
	00 01 00 00 00	 mov	 DWORD PTR [edx+272], 1

; 1400 : 			}

  00157	eb 0f		 jmp	 SHORT $LN8@DrawCursor
$LN6@DrawCursor:

; 1401 : 			else if(m_pCurSelectedLine->m_CurClickedPosition == S_PT)

  00159	83 f8 01	 cmp	 eax, 1
  0015c	75 0a		 jne	 SHORT $LN8@DrawCursor

; 1402 : 			{
; 1403 : 				m_pCurSelectedLine->m_CurClickedPosition = E_PT;

  0015e	c7 82 10 01 00
	00 02 00 00 00	 mov	 DWORD PTR [edx+272], 2
$LN8@DrawCursor:

; 1404 : 			}
; 1405 : 			ptTemp = m_pCurSelectedLine->m_ptAStart;

  00168	8b 57 78	 mov	 edx, DWORD PTR [edi+120]
  0016b	8b 82 ec 00 00
	00		 mov	 eax, DWORD PTR [edx+236]
  00171	8b ba e8 00 00
	00		 mov	 edi, DWORD PTR [edx+232]

; 1406 : 			m_pCurSelectedLine->m_ptAStart = m_pCurSelectedLine->m_ptAEnd;

  00177	8b 8a f4 00 00
	00		 mov	 ecx, DWORD PTR [edx+244]
  0017d	89 45 cc	 mov	 DWORD PTR _ptTemp$2$[ebp], eax
  00180	8b 82 f0 00 00
	00		 mov	 eax, DWORD PTR [edx+240]
  00186	89 82 e8 00 00
	00		 mov	 DWORD PTR [edx+232], eax

; 1407 : 			m_pCurSelectedLine->m_ptAEnd = ptTemp;

  0018c	8b 45 dc	 mov	 eax, DWORD PTR _this$GSCopy$1$[ebp]
  0018f	89 8a ec 00 00
	00		 mov	 DWORD PTR [edx+236], ecx
  00195	8b 4d cc	 mov	 ecx, DWORD PTR _ptTemp$2$[ebp]
  00198	8b 40 78	 mov	 eax, DWORD PTR [eax+120]
  0019b	89 b8 f0 00 00
	00		 mov	 DWORD PTR [eax+240], edi
  001a1	8b 7d dc	 mov	 edi, DWORD PTR _this$GSCopy$1$[ebp]
  001a4	89 88 f4 00 00
	00		 mov	 DWORD PTR [eax+244], ecx
  001aa	8b 57 78	 mov	 edx, DWORD PTR [edi+120]
$LN5@DrawCursor:

; 1408 : 
; 1409 : 		}
; 1410 : 	
; 1411 : 		int ix, iy;
; 1412 : 		double dDummy = 0;
; 1413 : //		m_pCurSelectedLine->m_nDateType = m_nDateType;
; 1414 : 		//   
; 1415 : 		if(GetIndexFromPoint( m_pCurSelectedLine->m_strRQ, m_pCurSelectedLine->m_ptAStart, ix, iy) == R_ERROR) goto Drawing;

  001ad	8d 45 cc	 lea	 eax, DWORD PTR _iy$2[ebp]
  001b0	50		 push	 eax
  001b1	8d 45 dc	 lea	 eax, DWORD PTR _ix$4[ebp]
  001b4	50		 push	 eax
  001b5	8d 82 e8 00 00
	00		 lea	 eax, DWORD PTR [edx+232]
  001bb	50		 push	 eax
  001bc	ff b2 f4 01 00
	00		 push	 DWORD PTR [edx+500]
  001c2	8d 4f f8	 lea	 ecx, DWORD PTR [edi-8]
  001c5	e8 00 00 00 00	 call	 ?GetIndexFromPoint@CChartPeriodSummaryAddInImp@@QAEHPBDAAVCPoint@@AAH2@Z ; CChartPeriodSummaryAddInImp::GetIndexFromPoint
  001ca	83 f8 ff	 cmp	 eax, -1
  001cd	0f 84 a2 02 00
	00		 je	 $Drawing$111
; File C:\Program Files (x86)\Microsoft Visual Studio\2019\Community\VC\Tools\MSVC\14.29.30133\atlmfc\include\atlsimpstr.h

; 377  : 		return( m_pszData );

  001d3	8b 47 78	 mov	 eax, DWORD PTR [edi+120]
; File D:\git\src\IBK\IBK_DRFN\ProjSrc\SrcChartEx\ChartAddIn\ChartPeriodSummaryAddIn\ChartPeriodSummaryAddInImp.cpp

; 1416 : 		if( IsValidIndex( m_pCurSelectedLine->m_strRQ, ix))

  001d6	8d 4f f8	 lea	 ecx, DWORD PTR [edi-8]
  001d9	ff 75 dc	 push	 DWORD PTR _ix$4[ebp]
  001dc	ff b0 f4 01 00
	00		 push	 DWORD PTR [eax+500]
  001e2	e8 00 00 00 00	 call	 ?IsValidIndex@CChartPeriodSummaryAddInImp@@QAEHPBDH@Z ; CChartPeriodSummaryAddInImp::IsValidIndex
  001e7	85 c0		 test	 eax, eax
  001e9	74 0c		 je	 SHORT $LN11@DrawCursor

; 1417 : 			m_pCurSelectedLine->m_nStartIndex = ix;

  001eb	8b 47 78	 mov	 eax, DWORD PTR [edi+120]
  001ee	8b 4d dc	 mov	 ecx, DWORD PTR _ix$4[ebp]
  001f1	89 88 54 01 00
	00		 mov	 DWORD PTR [eax+340], ecx
$LN11@DrawCursor:

; 1418 :  		//if(GetValueFromIndex(ix, iy, m_pCurSelectedLine->m_lSDate, dDummy) == R_ERROR) goto Drawing;
; 1419 : 		if(GetData_X(m_pCurSelectedLine->m_ptAStart, m_pCurSelectedLine->m_lSDate) == R_ERROR) goto Drawing;

  001f7	8b 4f 78	 mov	 ecx, DWORD PTR [edi+120]
  001fa	8d 81 68 01 00
	00		 lea	 eax, DWORD PTR [ecx+360]
  00200	50		 push	 eax
  00201	8d 81 e8 00 00
	00		 lea	 eax, DWORD PTR [ecx+232]
  00207	50		 push	 eax
  00208	8d 4f f8	 lea	 ecx, DWORD PTR [edi-8]
  0020b	e8 00 00 00 00	 call	 ?GetData_X@CChartPeriodSummaryAddInImp@@QAEHABVCPoint@@AA_J@Z ; CChartPeriodSummaryAddInImp::GetData_X
  00210	83 f8 ff	 cmp	 eax, -1
  00213	0f 84 5c 02 00
	00		 je	 $Drawing$111
; File C:\Program Files (x86)\Microsoft Visual Studio\2019\Community\VC\Tools\MSVC\14.29.30133\atlmfc\include\atlsimpstr.h

; 377  : 		return( m_pszData );

  00219	8b 47 78	 mov	 eax, DWORD PTR [edi+120]
; File D:\git\src\IBK\IBK_DRFN\ProjSrc\SrcChartEx\ChartAddIn\ChartPeriodSummaryAddIn\ChartPeriodSummaryAddInImp.cpp

; 1421 : 		if(GetIndexFromPoint( m_pCurSelectedLine->m_strRQ, m_pCurSelectedLine->m_ptAEnd, ix, iy) == R_ERROR) goto Drawing;

  0021c	8d 55 cc	 lea	 edx, DWORD PTR _iy$2[ebp]
  0021f	52		 push	 edx
  00220	8d 55 dc	 lea	 edx, DWORD PTR _ix$4[ebp]
  00223	52		 push	 edx
; File C:\Program Files (x86)\Microsoft Visual Studio\2019\Community\VC\Tools\MSVC\14.29.30133\atlmfc\include\atlsimpstr.h

; 377  : 		return( m_pszData );

  00224	8b 88 f4 01 00
	00		 mov	 ecx, DWORD PTR [eax+500]
; File D:\git\src\IBK\IBK_DRFN\ProjSrc\SrcChartEx\ChartAddIn\ChartPeriodSummaryAddIn\ChartPeriodSummaryAddInImp.cpp

; 1421 : 		if(GetIndexFromPoint( m_pCurSelectedLine->m_strRQ, m_pCurSelectedLine->m_ptAEnd, ix, iy) == R_ERROR) goto Drawing;

  0022a	05 f0 00 00 00	 add	 eax, 240		; 000000f0H
  0022f	50		 push	 eax
  00230	51		 push	 ecx
  00231	8d 4f f8	 lea	 ecx, DWORD PTR [edi-8]
  00234	e8 00 00 00 00	 call	 ?GetIndexFromPoint@CChartPeriodSummaryAddInImp@@QAEHPBDAAVCPoint@@AAH2@Z ; CChartPeriodSummaryAddInImp::GetIndexFromPoint
  00239	83 f8 ff	 cmp	 eax, -1
  0023c	0f 84 33 02 00
	00		 je	 $Drawing$111
; File C:\Program Files (x86)\Microsoft Visual Studio\2019\Community\VC\Tools\MSVC\14.29.30133\atlmfc\include\atlsimpstr.h

; 377  : 		return( m_pszData );

  00242	8b 47 78	 mov	 eax, DWORD PTR [edi+120]
; File D:\git\src\IBK\IBK_DRFN\ProjSrc\SrcChartEx\ChartAddIn\ChartPeriodSummaryAddIn\ChartPeriodSummaryAddInImp.cpp

; 1422 : 		if( IsValidIndex( m_pCurSelectedLine->m_strRQ, ix))

  00245	8d 4f f8	 lea	 ecx, DWORD PTR [edi-8]
  00248	ff 75 dc	 push	 DWORD PTR _ix$4[ebp]
  0024b	ff b0 f4 01 00
	00		 push	 DWORD PTR [eax+500]
  00251	e8 00 00 00 00	 call	 ?IsValidIndex@CChartPeriodSummaryAddInImp@@QAEHPBDH@Z ; CChartPeriodSummaryAddInImp::IsValidIndex
  00256	85 c0		 test	 eax, eax
  00258	74 0c		 je	 SHORT $LN16@DrawCursor

; 1423 : 			m_pCurSelectedLine->m_nEndIndex = ix;

  0025a	8b 47 78	 mov	 eax, DWORD PTR [edi+120]
  0025d	8b 4d dc	 mov	 ecx, DWORD PTR _ix$4[ebp]
  00260	89 88 58 01 00
	00		 mov	 DWORD PTR [eax+344], ecx
$LN16@DrawCursor:

; 1424 :  		//if(GetValueFromIndex(ix, iy, m_pCurSelectedLine->m_lEDate, dDummy) == R_ERROR) goto Drawing;
; 1425 : 		//m_pCurSelectedLine->m_lEDate = GetData_X(m_pCurSelectedLine->m_ptAEnd);
; 1426 : 		if(GetData_X(m_pCurSelectedLine->m_ptAEnd, m_pCurSelectedLine->m_lEDate) == R_ERROR) goto Drawing;

  00266	8b 4f 78	 mov	 ecx, DWORD PTR [edi+120]
  00269	8d 81 70 01 00
	00		 lea	 eax, DWORD PTR [ecx+368]
  0026f	50		 push	 eax
  00270	8d 81 f0 00 00
	00		 lea	 eax, DWORD PTR [ecx+240]
  00276	50		 push	 eax
  00277	8d 4f f8	 lea	 ecx, DWORD PTR [edi-8]
  0027a	e8 00 00 00 00	 call	 ?GetData_X@CChartPeriodSummaryAddInImp@@QAEHABVCPoint@@AA_J@Z ; CChartPeriodSummaryAddInImp::GetData_X
  0027f	83 f8 ff	 cmp	 eax, -1
  00282	0f 84 ed 01 00
	00		 je	 $Drawing$111

; 1427 : 		if(m_bNewDraw == FALSE)

  00288	83 7f 74 00	 cmp	 DWORD PTR [edi+116], 0
  0028c	75 45		 jne	 SHORT $LN22@DrawCursor
; File C:\Program Files (x86)\Microsoft Visual Studio\2019\Community\VC\Tools\MSVC\14.29.30133\atlmfc\include\atlsimpstr.h

; 377  : 		return( m_pszData );

  0028e	8b 47 78	 mov	 eax, DWORD PTR [edi+120]
; File D:\git\src\IBK\IBK_DRFN\ProjSrc\SrcChartEx\ChartAddIn\ChartPeriodSummaryAddIn\ChartPeriodSummaryAddInImp.cpp

; 1430 : 			if(GetIndexFromPoint( m_pCurSelectedLine->m_strRQ, m_pCurSelectedLine->m_ptAt, ix, iy) == R_ERROR) goto Drawing;

  00291	8d 55 cc	 lea	 edx, DWORD PTR _iy$2[ebp]
  00294	52		 push	 edx
  00295	8d 55 dc	 lea	 edx, DWORD PTR _ix$4[ebp]
  00298	52		 push	 edx
; File C:\Program Files (x86)\Microsoft Visual Studio\2019\Community\VC\Tools\MSVC\14.29.30133\atlmfc\include\atlsimpstr.h

; 377  : 		return( m_pszData );

  00299	8b 88 f4 01 00
	00		 mov	 ecx, DWORD PTR [eax+500]
; File D:\git\src\IBK\IBK_DRFN\ProjSrc\SrcChartEx\ChartAddIn\ChartPeriodSummaryAddIn\ChartPeriodSummaryAddInImp.cpp

; 1430 : 			if(GetIndexFromPoint( m_pCurSelectedLine->m_strRQ, m_pCurSelectedLine->m_ptAt, ix, iy) == R_ERROR) goto Drawing;

  0029f	05 08 01 00 00	 add	 eax, 264		; 00000108H
  002a4	50		 push	 eax
  002a5	51		 push	 ecx
  002a6	8d 4f f8	 lea	 ecx, DWORD PTR [edi-8]
  002a9	e8 00 00 00 00	 call	 ?GetIndexFromPoint@CChartPeriodSummaryAddInImp@@QAEHPBDAAVCPoint@@AAH2@Z ; CChartPeriodSummaryAddInImp::GetIndexFromPoint
  002ae	83 f8 ff	 cmp	 eax, -1
  002b1	0f 84 be 01 00
	00		 je	 $Drawing$111
; File C:\Program Files (x86)\Microsoft Visual Studio\2019\Community\VC\Tools\MSVC\14.29.30133\atlmfc\include\atlsimpstr.h

; 377  : 		return( m_pszData );

  002b7	8b 47 78	 mov	 eax, DWORD PTR [edi+120]
; File D:\git\src\IBK\IBK_DRFN\ProjSrc\SrcChartEx\ChartAddIn\ChartPeriodSummaryAddIn\ChartPeriodSummaryAddInImp.cpp

; 1431 : 			if( !IsValidIndex( m_pCurSelectedLine->m_strRQ, ix)) goto Drawing;

  002ba	8d 4f f8	 lea	 ecx, DWORD PTR [edi-8]
  002bd	ff 75 dc	 push	 DWORD PTR _ix$4[ebp]
  002c0	ff b0 f4 01 00
	00		 push	 DWORD PTR [eax+500]
  002c6	e8 00 00 00 00	 call	 ?IsValidIndex@CChartPeriodSummaryAddInImp@@QAEHPBDH@Z ; CChartPeriodSummaryAddInImp::IsValidIndex
  002cb	85 c0		 test	 eax, eax
  002cd	0f 84 a2 01 00
	00		 je	 $Drawing$111
$LN22@DrawCursor:
; File C:\Program Files (x86)\Microsoft Visual Studio\2019\Community\VC\Tools\MSVC\14.29.30133\atlmfc\include\atlsimpstr.h

; 377  : 		return( m_pszData );

  002d3	8b 47 78	 mov	 eax, DWORD PTR [edi+120]
; File D:\git\src\IBK\IBK_DRFN\ProjSrc\SrcChartEx\ChartAddIn\ChartPeriodSummaryAddIn\ChartPeriodSummaryAddInImp.cpp

; 1434 : 		if(GetPriceInfo( m_pCurSelectedLine->m_strRQ, &m_pCurSelectedLine->m_Price, m_pCurSelectedLine->m_nStartIndex, m_pCurSelectedLine->m_nEndIndex) == R_ERROR) return rct;

  002d6	ff b0 58 01 00
	00		 push	 DWORD PTR [eax+344]
; File C:\Program Files (x86)\Microsoft Visual Studio\2019\Community\VC\Tools\MSVC\14.29.30133\atlmfc\include\atlsimpstr.h

; 377  : 		return( m_pszData );

  002dc	8b 88 f4 01 00
	00		 mov	 ecx, DWORD PTR [eax+500]
; File D:\git\src\IBK\IBK_DRFN\ProjSrc\SrcChartEx\ChartAddIn\ChartPeriodSummaryAddIn\ChartPeriodSummaryAddInImp.cpp

; 1434 : 		if(GetPriceInfo( m_pCurSelectedLine->m_strRQ, &m_pCurSelectedLine->m_Price, m_pCurSelectedLine->m_nStartIndex, m_pCurSelectedLine->m_nEndIndex) == R_ERROR) return rct;

  002e2	ff b0 54 01 00
	00		 push	 DWORD PTR [eax+340]
  002e8	05 88 01 00 00	 add	 eax, 392		; 00000188H
  002ed	50		 push	 eax
  002ee	51		 push	 ecx
  002ef	8d 4f f8	 lea	 ecx, DWORD PTR [edi-8]
  002f2	e8 00 00 00 00	 call	 ?GetPriceInfo@CChartPeriodSummaryAddInImp@@QAEHPBDPAVCPrice@CPeriodObj@@HH@Z ; CChartPeriodSummaryAddInImp::GetPriceInfo
  002f7	83 f8 ff	 cmp	 eax, -1
  002fa	75 25		 jne	 SHORT $LN24@DrawCursor
  002fc	0f 10 45 e0	 movups	 xmm0, XMMWORD PTR _rct$[ebp]
  00300	8b 7d d8	 mov	 edi, DWORD PTR ___$ReturnUdt$GSCopy$1$[ebp]
; File C:\Program Files (x86)\Microsoft Visual Studio\2019\Community\VC\Tools\MSVC\14.29.30133\atlmfc\include\afxwin1.inl

; 266  : 	{ }

  00303	8d 4d d0	 lea	 ecx, DWORD PTR _rgn$3[ebp]
  00306	c7 45 d0 00 00
	00 00		 mov	 DWORD PTR _rgn$3[ebp], OFFSET ??_7CRgn@@6B@
; File D:\git\src\IBK\IBK_DRFN\ProjSrc\SrcChartEx\ChartAddIn\ChartPeriodSummaryAddIn\ChartPeriodSummaryAddInImp.cpp

; 1434 : 		if(GetPriceInfo( m_pCurSelectedLine->m_strRQ, &m_pCurSelectedLine->m_Price, m_pCurSelectedLine->m_nStartIndex, m_pCurSelectedLine->m_nEndIndex) == R_ERROR) return rct;

  0030d	0f 11 07	 movups	 XMMWORD PTR [edi], xmm0
; File C:\Program Files (x86)\Microsoft Visual Studio\2019\Community\VC\Tools\MSVC\14.29.30133\atlmfc\include\afxwin1.inl

; 266  : 	{ }

  00310	e8 00 00 00 00	 call	 ??1CGdiObject@@UAE@XZ	; CGdiObject::~CGdiObject
; File D:\git\src\IBK\IBK_DRFN\ProjSrc\SrcChartEx\ChartAddIn\ChartPeriodSummaryAddIn\Include_Chart\Dll_Load\IMetaTable.h

; 1036 : 	{

  00315	c7 45 fc 04 00
	00 00		 mov	 DWORD PTR __$EHRec$[ebp+8], 4
; File D:\git\src\IBK\IBK_DRFN\ProjSrc\SrcChartEx\ChartAddIn\ChartPeriodSummaryAddIn\ChartPeriodSummaryAddInImp.cpp

; 1434 : 		if(GetPriceInfo( m_pCurSelectedLine->m_strRQ, &m_pCurSelectedLine->m_Price, m_pCurSelectedLine->m_nStartIndex, m_pCurSelectedLine->m_nEndIndex) == R_ERROR) return rct;

  0031c	e9 94 01 00 00	 jmp	 $LN109@DrawCursor
$LN24@DrawCursor:
; File C:\Program Files (x86)\Microsoft Visual Studio\2019\Community\VC\Tools\MSVC\14.29.30133\atlmfc\include\atlsimpstr.h

; 377  : 		return( m_pszData );

  00321	8b 47 78	 mov	 eax, DWORD PTR [edi+120]
; File D:\git\src\IBK\IBK_DRFN\ProjSrc\SrcChartEx\ChartAddIn\ChartPeriodSummaryAddIn\ChartPeriodSummaryAddInImp.cpp

; 1435 : 		if(GetCandleInfo( m_pCurSelectedLine->m_strRQ, &m_pCurSelectedLine->m_Candle, m_pCurSelectedLine->m_nStartIndex, m_pCurSelectedLine->m_nEndIndex) == R_ERROR) return rct;

  00324	ff b0 58 01 00
	00		 push	 DWORD PTR [eax+344]
; File C:\Program Files (x86)\Microsoft Visual Studio\2019\Community\VC\Tools\MSVC\14.29.30133\atlmfc\include\atlsimpstr.h

; 377  : 		return( m_pszData );

  0032a	8b 88 f4 01 00
	00		 mov	 ecx, DWORD PTR [eax+500]
; File D:\git\src\IBK\IBK_DRFN\ProjSrc\SrcChartEx\ChartAddIn\ChartPeriodSummaryAddIn\ChartPeriodSummaryAddInImp.cpp

; 1435 : 		if(GetCandleInfo( m_pCurSelectedLine->m_strRQ, &m_pCurSelectedLine->m_Candle, m_pCurSelectedLine->m_nStartIndex, m_pCurSelectedLine->m_nEndIndex) == R_ERROR) return rct;

  00330	ff b0 54 01 00
	00		 push	 DWORD PTR [eax+340]
  00336	05 c8 01 00 00	 add	 eax, 456		; 000001c8H
  0033b	50		 push	 eax
  0033c	51		 push	 ecx
  0033d	8d 4f f8	 lea	 ecx, DWORD PTR [edi-8]
  00340	e8 00 00 00 00	 call	 ?GetCandleInfo@CChartPeriodSummaryAddInImp@@QAEHPBDPAVCCandle@CPeriodObj@@HH@Z ; CChartPeriodSummaryAddInImp::GetCandleInfo
  00345	83 f8 ff	 cmp	 eax, -1
  00348	75 25		 jne	 SHORT $LN25@DrawCursor
  0034a	0f 10 45 e0	 movups	 xmm0, XMMWORD PTR _rct$[ebp]
  0034e	8b 7d d8	 mov	 edi, DWORD PTR ___$ReturnUdt$GSCopy$1$[ebp]
; File C:\Program Files (x86)\Microsoft Visual Studio\2019\Community\VC\Tools\MSVC\14.29.30133\atlmfc\include\afxwin1.inl

; 266  : 	{ }

  00351	8d 4d d0	 lea	 ecx, DWORD PTR _rgn$3[ebp]
  00354	c7 45 d0 00 00
	00 00		 mov	 DWORD PTR _rgn$3[ebp], OFFSET ??_7CRgn@@6B@
; File D:\git\src\IBK\IBK_DRFN\ProjSrc\SrcChartEx\ChartAddIn\ChartPeriodSummaryAddIn\ChartPeriodSummaryAddInImp.cpp

; 1435 : 		if(GetCandleInfo( m_pCurSelectedLine->m_strRQ, &m_pCurSelectedLine->m_Candle, m_pCurSelectedLine->m_nStartIndex, m_pCurSelectedLine->m_nEndIndex) == R_ERROR) return rct;

  0035b	0f 11 07	 movups	 XMMWORD PTR [edi], xmm0
; File C:\Program Files (x86)\Microsoft Visual Studio\2019\Community\VC\Tools\MSVC\14.29.30133\atlmfc\include\afxwin1.inl

; 266  : 	{ }

  0035e	e8 00 00 00 00	 call	 ??1CGdiObject@@UAE@XZ	; CGdiObject::~CGdiObject
; File D:\git\src\IBK\IBK_DRFN\ProjSrc\SrcChartEx\ChartAddIn\ChartPeriodSummaryAddIn\Include_Chart\Dll_Load\IMetaTable.h

; 1036 : 	{

  00363	c7 45 fc 05 00
	00 00		 mov	 DWORD PTR __$EHRec$[ebp+8], 5
; File D:\git\src\IBK\IBK_DRFN\ProjSrc\SrcChartEx\ChartAddIn\ChartPeriodSummaryAddIn\ChartPeriodSummaryAddInImp.cpp

; 1435 : 		if(GetCandleInfo( m_pCurSelectedLine->m_strRQ, &m_pCurSelectedLine->m_Candle, m_pCurSelectedLine->m_nStartIndex, m_pCurSelectedLine->m_nEndIndex) == R_ERROR) return rct;

  0036a	e9 46 01 00 00	 jmp	 $LN109@DrawCursor
$LN25@DrawCursor:
; File C:\Program Files (x86)\Microsoft Visual Studio\2019\Community\VC\Tools\MSVC\14.29.30133\atlmfc\include\atlsimpstr.h

; 377  : 		return( m_pszData );

  0036f	8b 47 78	 mov	 eax, DWORD PTR [edi+120]
; File D:\git\src\IBK\IBK_DRFN\ProjSrc\SrcChartEx\ChartAddIn\ChartPeriodSummaryAddIn\ChartPeriodSummaryAddInImp.cpp

; 1436 : 		if(GetAmountInfo( m_pCurSelectedLine->m_strRQ, &m_pCurSelectedLine->m_Amount, m_pCurSelectedLine->m_nStartIndex, m_pCurSelectedLine->m_nEndIndex) == R_ERROR) return rct;

  00372	8d 4f f8	 lea	 ecx, DWORD PTR [edi-8]
  00375	ff b0 58 01 00
	00		 push	 DWORD PTR [eax+344]
; File C:\Program Files (x86)\Microsoft Visual Studio\2019\Community\VC\Tools\MSVC\14.29.30133\atlmfc\include\atlsimpstr.h

; 377  : 		return( m_pszData );

  0037b	8b 90 f4 01 00
	00		 mov	 edx, DWORD PTR [eax+500]
; File D:\git\src\IBK\IBK_DRFN\ProjSrc\SrcChartEx\ChartAddIn\ChartPeriodSummaryAddIn\ChartPeriodSummaryAddInImp.cpp

; 1436 : 		if(GetAmountInfo( m_pCurSelectedLine->m_strRQ, &m_pCurSelectedLine->m_Amount, m_pCurSelectedLine->m_nStartIndex, m_pCurSelectedLine->m_nEndIndex) == R_ERROR) return rct;

  00381	ff b0 54 01 00
	00		 push	 DWORD PTR [eax+340]
  00387	05 b0 01 00 00	 add	 eax, 432		; 000001b0H
  0038c	50		 push	 eax
  0038d	52		 push	 edx
  0038e	e8 00 00 00 00	 call	 ?GetAmountInfo@CChartPeriodSummaryAddInImp@@QAEHPBDPAVCAmount@CPeriodObj@@HH@Z ; CChartPeriodSummaryAddInImp::GetAmountInfo
  00393	83 f8 ff	 cmp	 eax, -1
  00396	75 25		 jne	 SHORT $LN26@DrawCursor
  00398	0f 10 45 e0	 movups	 xmm0, XMMWORD PTR _rct$[ebp]
  0039c	8b 7d d8	 mov	 edi, DWORD PTR ___$ReturnUdt$GSCopy$1$[ebp]
; File C:\Program Files (x86)\Microsoft Visual Studio\2019\Community\VC\Tools\MSVC\14.29.30133\atlmfc\include\afxwin1.inl

; 266  : 	{ }

  0039f	8d 4d d0	 lea	 ecx, DWORD PTR _rgn$3[ebp]
  003a2	c7 45 d0 00 00
	00 00		 mov	 DWORD PTR _rgn$3[ebp], OFFSET ??_7CRgn@@6B@
; File D:\git\src\IBK\IBK_DRFN\ProjSrc\SrcChartEx\ChartAddIn\ChartPeriodSummaryAddIn\ChartPeriodSummaryAddInImp.cpp

; 1436 : 		if(GetAmountInfo( m_pCurSelectedLine->m_strRQ, &m_pCurSelectedLine->m_Amount, m_pCurSelectedLine->m_nStartIndex, m_pCurSelectedLine->m_nEndIndex) == R_ERROR) return rct;

  003a9	0f 11 07	 movups	 XMMWORD PTR [edi], xmm0
; File C:\Program Files (x86)\Microsoft Visual Studio\2019\Community\VC\Tools\MSVC\14.29.30133\atlmfc\include\afxwin1.inl

; 266  : 	{ }

  003ac	e8 00 00 00 00	 call	 ??1CGdiObject@@UAE@XZ	; CGdiObject::~CGdiObject
; File D:\git\src\IBK\IBK_DRFN\ProjSrc\SrcChartEx\ChartAddIn\ChartPeriodSummaryAddIn\Include_Chart\Dll_Load\IMetaTable.h

; 1036 : 	{

  003b1	c7 45 fc 06 00
	00 00		 mov	 DWORD PTR __$EHRec$[ebp+8], 6
; File D:\git\src\IBK\IBK_DRFN\ProjSrc\SrcChartEx\ChartAddIn\ChartPeriodSummaryAddIn\ChartPeriodSummaryAddInImp.cpp

; 1436 : 		if(GetAmountInfo( m_pCurSelectedLine->m_strRQ, &m_pCurSelectedLine->m_Amount, m_pCurSelectedLine->m_nStartIndex, m_pCurSelectedLine->m_nEndIndex) == R_ERROR) return rct;

  003b8	e9 f8 00 00 00	 jmp	 $LN109@DrawCursor
$LN26@DrawCursor:

; 1437 : 
; 1438 : 		//   
; 1439 : 		m_pCurSelectedLine->m_dSClicked = m_pIChartOCX->ConvertYPositionToData(m_pCurSelectedLine->m_ptAStart.y, m_pCurSelectedLine->m_rctGraphRegion.top, m_pCurSelectedLine->m_rctGraphRegion.bottom, m_pCurSelectedLine->m_dViewMax, m_pCurSelectedLine->m_dViewMin, m_pCurSelectedLine->m_bLog, m_pCurSelectedLine->m_bReverse);

  003bd	8b 47 78	 mov	 eax, DWORD PTR [edi+120]
  003c0	8b 4f 04	 mov	 ecx, DWORD PTR [edi+4]
  003c3	ff b0 24 02 00
	00		 push	 DWORD PTR [eax+548]
  003c9	f2 0f 10 80 28
	02 00 00	 movsd	 xmm0, QWORD PTR [eax+552]
  003d1	ff b0 20 02 00
	00		 push	 DWORD PTR [eax+544]
  003d7	8b 11		 mov	 edx, DWORD PTR [ecx]
  003d9	83 ec 10	 sub	 esp, 16			; 00000010H
  003dc	f2 0f 11 44 24
	08		 movsd	 QWORD PTR [esp+8], xmm0
  003e2	f2 0f 10 80 30
	02 00 00	 movsd	 xmm0, QWORD PTR [eax+560]
  003ea	f2 0f 11 04 24	 movsd	 QWORD PTR [esp], xmm0
  003ef	ff b0 0c 02 00
	00		 push	 DWORD PTR [eax+524]
  003f5	ff b0 04 02 00
	00		 push	 DWORD PTR [eax+516]
  003fb	ff b0 ec 00 00
	00		 push	 DWORD PTR [eax+236]
  00401	8b 82 2c 01 00
	00		 mov	 eax, DWORD PTR [edx+300]
  00407	ff d0		 call	 eax
  00409	8b 47 78	 mov	 eax, DWORD PTR [edi+120]
  0040c	dd 5d c8	 fstp	 QWORD PTR tv492[ebp]
  0040f	f2 0f 10 45 c8	 movsd	 xmm0, QWORD PTR tv492[ebp]
  00414	f2 0f 11 40 10	 movsd	 QWORD PTR [eax+16], xmm0

; 1440 : 		m_pCurSelectedLine->m_dEClicked = m_pIChartOCX->ConvertYPositionToData(m_pCurSelectedLine->m_ptAEnd.y, m_pCurSelectedLine->m_rctGraphRegion.top, m_pCurSelectedLine->m_rctGraphRegion.bottom, m_pCurSelectedLine->m_dViewMax, m_pCurSelectedLine->m_dViewMin, m_pCurSelectedLine->m_bLog, m_pCurSelectedLine->m_bReverse);

  00419	8b 47 78	 mov	 eax, DWORD PTR [edi+120]
  0041c	8b 4f 04	 mov	 ecx, DWORD PTR [edi+4]
  0041f	ff b0 24 02 00
	00		 push	 DWORD PTR [eax+548]
  00425	f2 0f 10 80 28
	02 00 00	 movsd	 xmm0, QWORD PTR [eax+552]
  0042d	ff b0 20 02 00
	00		 push	 DWORD PTR [eax+544]
  00433	8b 11		 mov	 edx, DWORD PTR [ecx]
  00435	83 ec 10	 sub	 esp, 16			; 00000010H
  00438	f2 0f 11 44 24
	08		 movsd	 QWORD PTR [esp+8], xmm0
  0043e	f2 0f 10 80 30
	02 00 00	 movsd	 xmm0, QWORD PTR [eax+560]
  00446	f2 0f 11 04 24	 movsd	 QWORD PTR [esp], xmm0
  0044b	ff b0 0c 02 00
	00		 push	 DWORD PTR [eax+524]
  00451	ff b0 04 02 00
	00		 push	 DWORD PTR [eax+516]
  00457	ff b0 f4 00 00
	00		 push	 DWORD PTR [eax+244]
  0045d	8b 82 2c 01 00
	00		 mov	 eax, DWORD PTR [edx+300]
  00463	ff d0		 call	 eax
  00465	8b 47 78	 mov	 eax, DWORD PTR [edi+120]
  00468	dd 5d c8	 fstp	 QWORD PTR tv552[ebp]
  0046b	f2 0f 10 45 c8	 movsd	 xmm0, QWORD PTR tv552[ebp]
  00470	f2 0f 11 40 08	 movsd	 QWORD PTR [eax+8], xmm0
$Drawing$111:

; 1441 : 
; 1442 : Drawing:
; 1443 : 		m_pCurSelectedLine->Draw(pDC, m_hOcxWnd);

  00475	ff 77 0c	 push	 DWORD PTR [edi+12]
  00478	8b 4f 78	 mov	 ecx, DWORD PTR [edi+120]
  0047b	ff 75 c4	 push	 DWORD PTR _pDC$1$[ebp]
  0047e	e8 00 00 00 00	 call	 ?Draw@CPeriodObj@@QAEXPAVCDC@@PAUHWND__@@@Z ; CPeriodObj::Draw

; 1444 : 		//pDC->SelectClipRgn(&rgn, NULLREGION);
; 1445 : 		pDC->SelectClipRgn(NULL);

  00483	8b 4d c4	 mov	 ecx, DWORD PTR _pDC$1$[ebp]
  00486	6a 00		 push	 0
  00488	e8 00 00 00 00	 call	 ?SelectClipRgn@CDC@@QAEHPAVCRgn@@@Z ; CDC::SelectClipRgn

; 1446 : 		rgn.DeleteObject();

  0048d	8d 4d d0	 lea	 ecx, DWORD PTR _rgn$3[ebp]
  00490	e8 00 00 00 00	 call	 ?DeleteObject@CGdiObject@@QAEHXZ ; CGdiObject::DeleteObject
; File C:\Program Files (x86)\Microsoft Visual Studio\2019\Community\VC\Tools\MSVC\14.29.30133\atlmfc\include\afxwin1.inl

; 266  : 	{ }

  00495	8d 4d d0	 lea	 ecx, DWORD PTR _rgn$3[ebp]
  00498	c7 45 d0 00 00
	00 00		 mov	 DWORD PTR _rgn$3[ebp], OFFSET ??_7CRgn@@6B@
  0049f	e8 00 00 00 00	 call	 ??1CGdiObject@@UAE@XZ	; CGdiObject::~CGdiObject
$LN101@DrawCursor:
; File D:\git\src\IBK\IBK_DRFN\ProjSrc\SrcChartEx\ChartAddIn\ChartPeriodSummaryAddIn\ChartPeriodSummaryAddInImp.cpp

; 1450 : 	return rct;

  004a4	8b 7d d8	 mov	 edi, DWORD PTR ___$ReturnUdt$GSCopy$1$[ebp]
  004a7	0f 10 45 e0	 movups	 xmm0, XMMWORD PTR _rct$[ebp]
  004ab	0f 11 07	 movups	 XMMWORD PTR [edi], xmm0
; File D:\git\src\IBK\IBK_DRFN\ProjSrc\SrcChartEx\ChartAddIn\ChartPeriodSummaryAddIn\Include_Chart\Dll_Load\IMetaTable.h

; 1036 : 	{

  004ae	c7 45 fc 07 00
	00 00		 mov	 DWORD PTR __$EHRec$[ebp+8], 7
$LN109@DrawCursor:
; File D:\git\src\IBK\IBK_DRFN\ProjSrc\SrcChartEx\ChartAddIn\ChartPeriodSummaryAddIn\ChartPeriodSummaryAddInImp.cpp

; 1451 : }

  004b5	e8 00 00 00 00	 call	 ?AfxGetModuleState@@YGPAVAFX_MODULE_STATE@@XZ ; AfxGetModuleState
  004ba	89 70 0c	 mov	 DWORD PTR [eax+12], esi
  004bd	8b c7		 mov	 eax, edi
  004bf	8b 4d f4	 mov	 ecx, DWORD PTR __$EHRec$[ebp]
  004c2	64 89 0d 00 00
	00 00		 mov	 DWORD PTR fs:0, ecx
  004c9	59		 pop	 ecx
  004ca	5f		 pop	 edi
  004cb	5e		 pop	 esi
  004cc	8b 4d f0	 mov	 ecx, DWORD PTR __$ArrayPad$[ebp]
  004cf	33 cd		 xor	 ecx, ebp
  004d1	e8 00 00 00 00	 call	 @__security_check_cookie@4
  004d6	8b e5		 mov	 esp, ebp
  004d8	5d		 pop	 ebp
  004d9	c2 08 00	 ret	 8
_TEXT	ENDS
;	COMDAT text$x
text$x	SEGMENT
__unwindfunclet$?DrawCursor@CChartPeriodSummaryAddInImp@@MAE?AUtagRECT@@PAUHDC__@@@Z$6:
  00000	8d 4d c0	 lea	 ecx, DWORD PTR ___mlrs__$[ebp]
  00003	e9 00 00 00 00	 jmp	 ??1CMultiLanguageResourceSetter@@QAE@XZ ; CMultiLanguageResourceSetter::~CMultiLanguageResourceSetter
__unwindfunclet$?DrawCursor@CChartPeriodSummaryAddInImp@@MAE?AUtagRECT@@PAUHDC__@@@Z$7:
  00008	8d 4d d0	 lea	 ecx, DWORD PTR _rgn$3[ebp]
  0000b	e9 00 00 00 00	 jmp	 ??1CRgn@@UAE@XZ		; CRgn::~CRgn
  00010	cc		 int	 3
  00011	cc		 int	 3
  00012	cc		 int	 3
  00013	cc		 int	 3
  00014	cc		 int	 3
__ehhandler$?DrawCursor@CChartPeriodSummaryAddInImp@@MAE?AUtagRECT@@PAUHDC__@@@Z:
  00015	90		 npad	 1
  00016	90		 npad	 1
  00017	8b 54 24 08	 mov	 edx, DWORD PTR [esp+8]
  0001b	8d 42 0c	 lea	 eax, DWORD PTR [edx+12]
  0001e	8b 4a c0	 mov	 ecx, DWORD PTR [edx-64]
  00021	33 c8		 xor	 ecx, eax
  00023	e8 00 00 00 00	 call	 @__security_check_cookie@4
  00028	8b 4a fc	 mov	 ecx, DWORD PTR [edx-4]
  0002b	33 c8		 xor	 ecx, eax
  0002d	e8 00 00 00 00	 call	 @__security_check_cookie@4
  00032	b8 00 00 00 00	 mov	 eax, OFFSET __ehfuncinfo$?DrawCursor@CChartPeriodSummaryAddInImp@@MAE?AUtagRECT@@PAUHDC__@@@Z
  00037	e9 00 00 00 00	 jmp	 ___CxxFrameHandler3
text$x	ENDS
?DrawCursor@CChartPeriodSummaryAddInImp@@MAE?AUtagRECT@@PAUHDC__@@@Z ENDP ; CChartPeriodSummaryAddInImp::DrawCursor
; Function compile flags: /Ogtp
; File D:\git\src\IBK\IBK_DRFN\ProjSrc\SrcChartEx\ChartAddIn\ChartPeriodSummaryAddIn\ChartPeriodSummaryAddInImp.cpp
; File C:\Program Files (x86)\Microsoft Visual Studio\2019\Community\VC\Tools\MSVC\14.29.30133\atlmfc\include\afxcoll.inl
; File D:\git\src\IBK\IBK_DRFN\ProjSrc\SrcChartEx\ChartAddIn\ChartPeriodSummaryAddIn\ChartPeriodSummaryAddInImp.cpp
;	COMDAT ?OnSaveEnvironment@CChartPeriodSummaryAddInImp@@MAEXPAUIPropertyMap@@@Z
_TEXT	SEGMENT
$T2 = -52						; size = 8
$T3 = -44						; size = 8
_this$1$ = -36						; size = 4
_pos$1$ = -32						; size = 4
$T4 = -28						; size = 4
$T5 = -24						; size = 4
_strSaveToolList$ = -20					; size = 4
_strTemp$ = -16						; size = 4
__$EHRec$ = -12						; size = 12
_p_pIAddInEnvMap$ = 8					; size = 4
?OnSaveEnvironment@CChartPeriodSummaryAddInImp@@MAEXPAUIPropertyMap@@@Z PROC ; CChartPeriodSummaryAddInImp::OnSaveEnvironment, COMDAT
; _this$ = ecx

; 1738 : {

  00000	55		 push	 ebp
  00001	8b ec		 mov	 ebp, esp
  00003	6a ff		 push	 -1
  00005	68 00 00 00 00	 push	 __ehhandler$?OnSaveEnvironment@CChartPeriodSummaryAddInImp@@MAEXPAUIPropertyMap@@@Z
  0000a	64 a1 00 00 00
	00		 mov	 eax, DWORD PTR fs:0
  00010	50		 push	 eax
  00011	83 ec 28	 sub	 esp, 40			; 00000028H
  00014	53		 push	 ebx
  00015	56		 push	 esi
  00016	57		 push	 edi
  00017	a1 00 00 00 00	 mov	 eax, DWORD PTR ___security_cookie
  0001c	33 c5		 xor	 eax, ebp
  0001e	50		 push	 eax
  0001f	8d 45 f4	 lea	 eax, DWORD PTR __$EHRec$[ebp]
  00022	64 a3 00 00 00
	00		 mov	 DWORD PTR fs:0, eax
  00028	8b f1		 mov	 esi, ecx
  0002a	89 75 dc	 mov	 DWORD PTR _this$1$[ebp], esi

; 1739 : 	CString strSaveToolList = "";// = m_pAnalysisTool->GetSavedElementsData();

  0002d	68 00 00 00 00	 push	 OFFSET ??_C@_00CNPNBAHC@@
  00032	8d 4d ec	 lea	 ecx, DWORD PTR _strSaveToolList$[ebp]
  00035	ff 15 00 00 00
	00		 call	 DWORD PTR __imp_??0?$CStringT@DV?$StrTraitMFC_DLL@DV?$ChTraitsCRT@D@ATL@@@@@ATL@@QAE@PBD@Z

; 1740 : 	CString strTemp;

  0003b	8d 4d f0	 lea	 ecx, DWORD PTR _strTemp$[ebp]
  0003e	c7 45 fc 00 00
	00 00		 mov	 DWORD PTR __$EHRec$[ebp+8], 0
  00045	ff 15 00 00 00
	00		 call	 DWORD PTR __imp_??0?$CStringT@DV?$StrTraitMFC_DLL@DV?$ChTraitsCRT@D@ATL@@@@@ATL@@QAE@XZ

; 1741 : 
; 1742 : 	POSITION pos = m_LineList.GetHeadPosition();

  0004b	8b 8e 88 00 00
	00		 mov	 ecx, DWORD PTR [esi+136]
  00051	c6 45 fc 01	 mov	 BYTE PTR __$EHRec$[ebp+8], 1

; 1743 : 	while(pos)

  00055	85 c9		 test	 ecx, ecx
  00057	0f 84 4c 01 00
	00		 je	 $LN3@OnSaveEnvi
  0005d	0f 1f 00	 npad	 3
$LL2@OnSaveEnvi:

; 1744 : 	{
; 1745 : 		CPeriodObj* pLine = (CPeriodObj*)m_LineList.GetNext(pos);

  00060	8b 59 08	 mov	 ebx, DWORD PTR [ecx+8]
; File C:\Program Files (x86)\Microsoft Visual Studio\2019\Community\VC\Tools\MSVC\14.29.30133\atlmfc\include\afxcoll.inl

; 432  : 		rPosition = (POSITION) pNode->pNext;

  00063	8b 09		 mov	 ecx, DWORD PTR [ecx]
  00065	89 4d e0	 mov	 DWORD PTR _pos$1$[ebp], ecx
; File D:\git\src\IBK\IBK_DRFN\ProjSrc\SrcChartEx\ChartAddIn\ChartPeriodSummaryAddIn\ChartPeriodSummaryAddInImp.cpp

; 1748 : 		strTemp.Format(_T("%d,%d,%s,%s,%f,%f,%d,%d,%d,%d,%d,%d,%d,%d,%d,%d,%d,%d,%d,%f,%f,%ld,%d,%d,%d,%d,%d;")

  00068	8b 93 74 01 00
	00		 mov	 edx, DWORD PTR [ebx+372]
  0006e	8b 8b 70 01 00
	00		 mov	 ecx, DWORD PTR [ebx+368]
  00074	e8 00 00 00 00	 call	 __ltod3
  00079	8b 93 6c 01 00
	00		 mov	 edx, DWORD PTR [ebx+364]
  0007f	8b 8b 68 01 00
	00		 mov	 ecx, DWORD PTR [ebx+360]
  00085	f2 0f 11 45 d4	 movsd	 QWORD PTR $T3[ebp], xmm0
  0008a	e8 00 00 00 00	 call	 __ltod3
  0008f	8d 45 d4	 lea	 eax, DWORD PTR $T3[ebp]
  00092	f2 0f 11 45 cc	 movsd	 QWORD PTR $T2[ebp], xmm0
  00097	50		 push	 eax
  00098	8d 45 e4	 lea	 eax, DWORD PTR $T4[ebp]
  0009b	50		 push	 eax
  0009c	8d 4e f8	 lea	 ecx, DWORD PTR [esi-8]
  0009f	e8 00 00 00 00	 call	 ?DoubleToString@CChartPeriodSummaryAddInImp@@QAE?AV?$CStringT@DV?$StrTraitMFC_DLL@DV?$ChTraitsCRT@D@ATL@@@@@ATL@@ABN@Z ; CChartPeriodSummaryAddInImp::DoubleToString
  000a4	8b f8		 mov	 edi, eax
  000a6	8d 45 cc	 lea	 eax, DWORD PTR $T2[ebp]
  000a9	c6 45 fc 02	 mov	 BYTE PTR __$EHRec$[ebp+8], 2
  000ad	50		 push	 eax
  000ae	8d 45 e8	 lea	 eax, DWORD PTR $T5[ebp]
  000b1	50		 push	 eax
  000b2	8d 4e f8	 lea	 ecx, DWORD PTR [esi-8]
  000b5	e8 00 00 00 00	 call	 ?DoubleToString@CChartPeriodSummaryAddInImp@@QAE?AV?$CStringT@DV?$StrTraitMFC_DLL@DV?$ChTraitsCRT@D@ATL@@@@@ATL@@ABN@Z ; CChartPeriodSummaryAddInImp::DoubleToString
  000ba	ff b3 fc 01 00
	00		 push	 DWORD PTR [ebx+508]
  000c0	f2 0f 10 43 08	 movsd	 xmm0, QWORD PTR [ebx+8]
  000c5	ff b3 f8 01 00
	00		 push	 DWORD PTR [ebx+504]
  000cb	c6 45 fc 03	 mov	 BYTE PTR __$EHRec$[ebp+8], 3
  000cf	ff b3 e0 01 00
	00		 push	 DWORD PTR [ebx+480]
  000d5	ff b3 44 01 00
	00		 push	 DWORD PTR [ebx+324]
  000db	ff b3 14 01 00
	00		 push	 DWORD PTR [ebx+276]
  000e1	ff b3 50 01 00
	00		 push	 DWORD PTR [ebx+336]
  000e7	83 ec 10	 sub	 esp, 16			; 00000010H
  000ea	f2 0f 11 44 24
	08		 movsd	 QWORD PTR [esp+8], xmm0
  000f0	f2 0f 10 43 10	 movsd	 xmm0, QWORD PTR [ebx+16]
  000f5	f2 0f 11 04 24	 movsd	 QWORD PTR [esp], xmm0
  000fa	ff b3 40 01 00
	00		 push	 DWORD PTR [ebx+320]
  00100	0f 10 83 88 01
	00 00		 movups	 xmm0, XMMWORD PTR [ebx+392]
  00107	ff b3 3c 01 00
	00		 push	 DWORD PTR [ebx+316]
  0010d	ff b3 38 01 00
	00		 push	 DWORD PTR [ebx+312]
  00113	ff b3 34 01 00
	00		 push	 DWORD PTR [ebx+308]
  00119	ff b3 30 01 00
	00		 push	 DWORD PTR [ebx+304]
  0011f	ff b3 2c 01 00
	00		 push	 DWORD PTR [ebx+300]
  00125	ff b3 28 01 00
	00		 push	 DWORD PTR [ebx+296]
  0012b	ff b3 24 01 00
	00		 push	 DWORD PTR [ebx+292]
  00131	ff b3 20 01 00
	00		 push	 DWORD PTR [ebx+288]
  00137	ff b3 1c 01 00
	00		 push	 DWORD PTR [ebx+284]
  0013d	ff b3 18 01 00
	00		 push	 DWORD PTR [ebx+280]
  00143	ff b3 4c 01 00
	00		 push	 DWORD PTR [ebx+332]
  00149	ff b3 48 01 00
	00		 push	 DWORD PTR [ebx+328]
  0014f	83 ec 10	 sub	 esp, 16			; 00000010H
  00152	0f 11 04 24	 movups	 XMMWORD PTR [esp], xmm0
  00156	ff 37		 push	 DWORD PTR [edi]
  00158	ff 30		 push	 DWORD PTR [eax]
  0015a	8d 45 f0	 lea	 eax, DWORD PTR _strTemp$[ebp]
  0015d	ff b3 e4 01 00
	00		 push	 DWORD PTR [ebx+484]
  00163	ff 73 1c	 push	 DWORD PTR [ebx+28]
  00166	68 00 00 00 00	 push	 OFFSET ??_C@_0FD@FBONENNA@?$CFd?0?$CFd?0?$CFs?0?$CFs?0?$CFf?0?$CFf?0?$CFd?0?$CFd?0?$CFd?0?$CFd?0?$CF@
  0016b	50		 push	 eax
  0016c	ff 15 00 00 00
	00		 call	 DWORD PTR __imp_?Format@?$CStringT@DV?$StrTraitMFC_DLL@DV?$ChTraitsCRT@D@ATL@@@@@ATL@@QAAXPBDZZ
  00172	81 c4 84 00 00
	00		 add	 esp, 132		; 00000084H
  00178	8d 4d e8	 lea	 ecx, DWORD PTR $T5[ebp]
  0017b	ff 15 00 00 00
	00		 call	 DWORD PTR __imp_??1?$CStringT@DV?$StrTraitMFC_DLL@DV?$ChTraitsCRT@D@ATL@@@@@ATL@@QAE@XZ
  00181	8d 4d e4	 lea	 ecx, DWORD PTR $T4[ebp]
  00184	c6 45 fc 01	 mov	 BYTE PTR __$EHRec$[ebp+8], 1
  00188	ff 15 00 00 00
	00		 call	 DWORD PTR __imp_??1?$CStringT@DV?$StrTraitMFC_DLL@DV?$ChTraitsCRT@D@ATL@@@@@ATL@@QAE@XZ

; 1749 : 						, pLine->m_nDateType
; 1750 : 						, pLine->m_nUpDown				
; 1751 : 						, DoubleToString((double)pLine->m_lSDate)
; 1752 : 						, DoubleToString((double)pLine->m_lEDate)
; 1753 : 						, pLine->m_Price.sPrice
; 1754 : 						, pLine->m_Price.ePrice
; 1755 : 						, pLine->m_nLineThickness
; 1756 : 						, pLine->m_nLineStyle
; 1757 : 						, pLine->m_bSEPrice			//  
; 1758 : 						, pLine->m_bEEPrice			//  
; 1759 : 						, pLine->m_bHPrice				// 
; 1760 : 						, pLine->m_bLPrice				// 
; 1761 : 						, pLine->m_bMPrice				// 
; 1762 : 						, pLine->m_bHAmount			// 
; 1763 : 						, pLine->m_bLAmount			//  
; 1764 : 						, pLine->m_bMAmount			//  
; 1765 : 						, pLine->m_bPCNum				// 
; 1766 : 						, pLine->m_bMCNum				//  
; 1767 : 						, pLine->m_bPMRatio			// 
; 1768 : 						, pLine->m_dSClicked
; 1769 : 						, pLine->m_dEClicked
; 1770 : 						, pLine->m_clrLineColor
; 1771 : 						, pLine->m_nRowCnt
; 1772 : 						, pLine->m_nTextAlignment
; 1773 : 						, pLine->m_nTimeDiff		// 20081007 JS.Kim	 
; 1774 : 						, pLine->m_nRow				// (2009/10/15 - Seung-Won, Bae) Save and Load the Block Position.
; 1775 : 						, pLine->m_nCol);
; 1776 : 	strSaveToolList += strTemp;

  0018e	8d 45 f0	 lea	 eax, DWORD PTR _strTemp$[ebp]
  00191	50		 push	 eax
  00192	8d 4d ec	 lea	 ecx, DWORD PTR _strSaveToolList$[ebp]
  00195	ff 15 00 00 00
	00		 call	 DWORD PTR __imp_??Y?$CStringT@DV?$StrTraitMFC_DLL@DV?$ChTraitsCRT@D@ATL@@@@@ATL@@QAEAAV01@ABV?$CSimpleStringT@D$00@1@@Z
  0019b	8b 4d e0	 mov	 ecx, DWORD PTR _pos$1$[ebp]
  0019e	8b 75 dc	 mov	 esi, DWORD PTR _this$1$[ebp]
  001a1	85 c9		 test	 ecx, ecx
  001a3	0f 85 b7 fe ff
	ff		 jne	 $LL2@OnSaveEnvi
$LN3@OnSaveEnvi:

; 1777 : 
; 1778 : 	}
; 1779 : 	p_pIAddInEnvMap->SetAt(m_strAddInItemName,strSaveToolList);

  001a9	8b 4d 08	 mov	 ecx, DWORD PTR _p_pIAddInEnvMap$[ebp]
  001ac	ff 75 ec	 push	 DWORD PTR _strSaveToolList$[ebp]
  001af	ff 35 00 00 00
	00		 push	 DWORD PTR ?m_strAddInItemName@CChartPeriodSummaryAddInImp@@2V?$CStringT@DV?$StrTraitMFC_DLL@DV?$ChTraitsCRT@D@ATL@@@@@ATL@@A ; CChartPeriodSummaryAddInImp::m_strAddInItemName
  001b5	8b 01		 mov	 eax, DWORD PTR [ecx]
  001b7	ff 50 14	 call	 DWORD PTR [eax+20]

; 1780 : }

  001ba	8d 4d f0	 lea	 ecx, DWORD PTR _strTemp$[ebp]
  001bd	ff 15 00 00 00
	00		 call	 DWORD PTR __imp_??1?$CStringT@DV?$StrTraitMFC_DLL@DV?$ChTraitsCRT@D@ATL@@@@@ATL@@QAE@XZ
  001c3	8d 4d ec	 lea	 ecx, DWORD PTR _strSaveToolList$[ebp]
  001c6	ff 15 00 00 00
	00		 call	 DWORD PTR __imp_??1?$CStringT@DV?$StrTraitMFC_DLL@DV?$ChTraitsCRT@D@ATL@@@@@ATL@@QAE@XZ
  001cc	8b 4d f4	 mov	 ecx, DWORD PTR __$EHRec$[ebp]
  001cf	64 89 0d 00 00
	00 00		 mov	 DWORD PTR fs:0, ecx
  001d6	59		 pop	 ecx
  001d7	5f		 pop	 edi
  001d8	5e		 pop	 esi
  001d9	5b		 pop	 ebx
  001da	8b e5		 mov	 esp, ebp
  001dc	5d		 pop	 ebp
  001dd	c2 04 00	 ret	 4
_TEXT	ENDS
;	COMDAT text$x
text$x	SEGMENT
__unwindfunclet$?OnSaveEnvironment@CChartPeriodSummaryAddInImp@@MAEXPAUIPropertyMap@@@Z$0:
  00000	8d 4d ec	 lea	 ecx, DWORD PTR _strSaveToolList$[ebp]
  00003	ff 25 00 00 00
	00		 jmp	 DWORD PTR __imp_??1?$CStringT@DV?$StrTraitMFC_DLL@DV?$ChTraitsCRT@D@ATL@@@@@ATL@@QAE@XZ
__unwindfunclet$?OnSaveEnvironment@CChartPeriodSummaryAddInImp@@MAEXPAUIPropertyMap@@@Z$1:
  00009	8d 4d f0	 lea	 ecx, DWORD PTR _strTemp$[ebp]
  0000c	ff 25 00 00 00
	00		 jmp	 DWORD PTR __imp_??1?$CStringT@DV?$StrTraitMFC_DLL@DV?$ChTraitsCRT@D@ATL@@@@@ATL@@QAE@XZ
__unwindfunclet$?OnSaveEnvironment@CChartPeriodSummaryAddInImp@@MAEXPAUIPropertyMap@@@Z$2:
  00012	8d 4d e4	 lea	 ecx, DWORD PTR $T4[ebp]
  00015	ff 25 00 00 00
	00		 jmp	 DWORD PTR __imp_??1?$CStringT@DV?$StrTraitMFC_DLL@DV?$ChTraitsCRT@D@ATL@@@@@ATL@@QAE@XZ
__unwindfunclet$?OnSaveEnvironment@CChartPeriodSummaryAddInImp@@MAEXPAUIPropertyMap@@@Z$3:
  0001b	8d 4d e8	 lea	 ecx, DWORD PTR $T5[ebp]
  0001e	ff 25 00 00 00
	00		 jmp	 DWORD PTR __imp_??1?$CStringT@DV?$StrTraitMFC_DLL@DV?$ChTraitsCRT@D@ATL@@@@@ATL@@QAE@XZ
  00024	cc		 int	 3
  00025	cc		 int	 3
  00026	cc		 int	 3
  00027	cc		 int	 3
  00028	cc		 int	 3
__ehhandler$?OnSaveEnvironment@CChartPeriodSummaryAddInImp@@MAEXPAUIPropertyMap@@@Z:
  00029	90		 npad	 1
  0002a	90		 npad	 1
  0002b	8b 54 24 08	 mov	 edx, DWORD PTR [esp+8]
  0002f	8d 42 0c	 lea	 eax, DWORD PTR [edx+12]
  00032	8b 4a c8	 mov	 ecx, DWORD PTR [edx-56]
  00035	33 c8		 xor	 ecx, eax
  00037	e8 00 00 00 00	 call	 @__security_check_cookie@4
  0003c	b8 00 00 00 00	 mov	 eax, OFFSET __ehfuncinfo$?OnSaveEnvironment@CChartPeriodSummaryAddInImp@@MAEXPAUIPropertyMap@@@Z
  00041	e9 00 00 00 00	 jmp	 ___CxxFrameHandler3
text$x	ENDS
?OnSaveEnvironment@CChartPeriodSummaryAddInImp@@MAEXPAUIPropertyMap@@@Z ENDP ; CChartPeriodSummaryAddInImp::OnSaveEnvironment
; Function compile flags: /Ogtp
; File D:\git\src\IBK\IBK_DRFN\ProjSrc\SrcChartEx\ChartAddIn\ChartPeriodSummaryAddIn\ChartPeriodSummaryAddInImp.cpp
; File C:\Program Files (x86)\Microsoft Visual Studio\2019\Community\VC\Tools\MSVC\14.29.30133\atlmfc\include\atlsimpstr.h
; File D:\git\src\IBK\IBK_DRFN\ProjSrc\SrcChartEx\ChartAddIn\ChartPeriodSummaryAddIn\ChartPeriodSummaryAddInImp.cpp
; File C:\Program Files (x86)\Microsoft Visual Studio\2019\Community\VC\Tools\MSVC\14.29.30133\atlmfc\include\atlsimpstr.h
; File D:\git\src\IBK\IBK_DRFN\ProjSrc\SrcChartEx\ChartAddIn\ChartPeriodSummaryAddIn\ChartPeriodSummaryAddInImp.cpp
; File C:\Program Files (x86)\Microsoft Visual Studio\2019\Community\VC\Tools\MSVC\14.29.30133\atlmfc\include\afxcoll.inl
; File D:\git\src\IBK\IBK_DRFN\ProjSrc\SrcChartEx\ChartAddIn\ChartPeriodSummaryAddIn\ChartPeriodSummaryAddInImp.cpp
; File C:\Program Files (x86)\Microsoft Visual Studio\2019\Community\VC\Tools\MSVC\14.29.30133\atlmfc\include\cstringt.h
; File D:\git\src\IBK\IBK_DRFN\ProjSrc\SrcChartEx\ChartAddIn\ChartPeriodSummaryAddIn\ChartPeriodSummaryAddInImp.cpp
; File C:\Program Files (x86)\Microsoft Visual Studio\2019\Community\VC\Tools\MSVC\14.29.30133\atlmfc\include\afx.inl
; File D:\git\src\IBK\IBK_DRFN\ProjSrc\SrcChartEx\ChartAddIn\ChartPeriodSummaryAddIn\ChartPeriodSummaryAddInImp.cpp
;	COMDAT ?OnLoadEnvironment@CChartPeriodSummaryAddInImp@@MAEXPAUIPropertyMap@@@Z
_TEXT	SEGMENT
$T2 = -148						; size = 4
$T3 = -144						; size = 4
$T4 = -140						; size = 4
$T5 = -136						; size = 4
$T6 = -132						; size = 4
$T7 = -128						; size = 4
$T8 = -124						; size = 4
$T9 = -120						; size = 4
$T10 = -116						; size = 4
$T11 = -112						; size = 4
$T12 = -108						; size = 4
$T13 = -104						; size = 4
$T14 = -100						; size = 4
$T15 = -96						; size = 4
$T16 = -92						; size = 4
$T17 = -88						; size = 4
$T18 = -84						; size = 4
$T19 = -80						; size = 4
$T20 = -76						; size = 4
$T21 = -72						; size = 4
$T22 = -68						; size = 4
$T23 = -64						; size = 4
$T24 = -60						; size = 4
$T25 = -56						; size = 4
$T26 = -52						; size = 4
$T27 = -48						; size = 4
$T28 = -44						; size = 4
$T29 = -40						; size = 4
$T30 = -36						; size = 4
_chToolLoading$ = -32					; size = 4
_iStart$ = -28						; size = 4
_strLineInfoPrev$ = -24					; size = 4
_iStart2$31 = -16					; size = 4
__$EHRec$ = -12						; size = 12
_strLineInfo$ = 8					; size = 4
_p_pIAddInEnvMap$ = 8					; size = 4
?OnLoadEnvironment@CChartPeriodSummaryAddInImp@@MAEXPAUIPropertyMap@@@Z PROC ; CChartPeriodSummaryAddInImp::OnLoadEnvironment, COMDAT
; _this$ = ecx

; 1656 : {

  00000	55		 push	 ebp
  00001	8b ec		 mov	 ebp, esp
  00003	6a ff		 push	 -1
  00005	68 00 00 00 00	 push	 __ehhandler$?OnLoadEnvironment@CChartPeriodSummaryAddInImp@@MAEXPAUIPropertyMap@@@Z
  0000a	64 a1 00 00 00
	00		 mov	 eax, DWORD PTR fs:0
  00010	50		 push	 eax
  00011	81 ec 88 00 00
	00		 sub	 esp, 136		; 00000088H
  00017	53		 push	 ebx
  00018	56		 push	 esi
  00019	57		 push	 edi
  0001a	a1 00 00 00 00	 mov	 eax, DWORD PTR ___security_cookie
  0001f	33 c5		 xor	 eax, ebp
  00021	50		 push	 eax
  00022	8d 45 f4	 lea	 eax, DWORD PTR __$EHRec$[ebp]
  00025	64 a3 00 00 00
	00		 mov	 DWORD PTR fs:0, eax
  0002b	8b d9		 mov	 ebx, ecx

; 1657 : 	if(p_pIAddInEnvMap->GetCount() <= 0)

  0002d	8b 75 08	 mov	 esi, DWORD PTR _p_pIAddInEnvMap$[ebp]
  00030	8b ce		 mov	 ecx, esi
  00032	8b 06		 mov	 eax, DWORD PTR [esi]
  00034	ff 50 04	 call	 DWORD PTR [eax+4]
  00037	85 c0		 test	 eax, eax
  00039	0f 8e e8 07 00
	00		 jle	 $LN1@OnLoadEnvi

; 1658 : 		return;
; 1659 : 
; 1660 : 	const char *chToolLoading;
; 1661 : 	p_pIAddInEnvMap->Lookup(m_strAddInItemName,chToolLoading);

  0003f	8b 06		 mov	 eax, DWORD PTR [esi]
  00041	8d 4d e0	 lea	 ecx, DWORD PTR _chToolLoading$[ebp]
  00044	51		 push	 ecx
  00045	ff 35 00 00 00
	00		 push	 DWORD PTR ?m_strAddInItemName@CChartPeriodSummaryAddInImp@@2V?$CStringT@DV?$StrTraitMFC_DLL@DV?$ChTraitsCRT@D@ATL@@@@@ATL@@A ; CChartPeriodSummaryAddInImp::m_strAddInItemName
  0004b	8b ce		 mov	 ecx, esi
  0004d	ff 50 0c	 call	 DWORD PTR [eax+12]

; 1662 : 	m_strToolLoading.Format("%s",chToolLoading);

  00050	ff 75 e0	 push	 DWORD PTR _chToolLoading$[ebp]
  00053	8d 7b 38	 lea	 edi, DWORD PTR [ebx+56]
  00056	68 00 00 00 00	 push	 OFFSET ??_C@_02DKCKIIND@?$CFs@
  0005b	57		 push	 edi
  0005c	ff 15 00 00 00
	00		 call	 DWORD PTR __imp_?Format@?$CStringT@DV?$StrTraitMFC_DLL@DV?$ChTraitsCRT@D@ATL@@@@@ATL@@QAAXPBDZZ
; File C:\Program Files (x86)\Microsoft Visual Studio\2019\Community\VC\Tools\MSVC\14.29.30133\atlmfc\include\atlsimpstr.h

; 519  : 		return( GetData()->nDataLength );

  00062	8b 07		 mov	 eax, DWORD PTR [edi]
; File D:\git\src\IBK\IBK_DRFN\ProjSrc\SrcChartEx\ChartAddIn\ChartPeriodSummaryAddIn\ChartPeriodSummaryAddInImp.cpp

; 1662 : 	m_strToolLoading.Format("%s",chToolLoading);

  00064	83 c4 0c	 add	 esp, 12			; 0000000cH
; File C:\Program Files (x86)\Microsoft Visual Studio\2019\Community\VC\Tools\MSVC\14.29.30133\atlmfc\include\atlsimpstr.h

; 533  : 		return( GetLength() == 0 );

  00067	83 78 f4 00	 cmp	 DWORD PTR [eax-12], 0
; File D:\git\src\IBK\IBK_DRFN\ProjSrc\SrcChartEx\ChartAddIn\ChartPeriodSummaryAddIn\ChartPeriodSummaryAddInImp.cpp

; 1663 : 	if(m_strToolLoading.IsEmpty() == TRUE)

  0006b	0f 84 b6 07 00
	00		 je	 $LN1@OnLoadEnvi

; 1664 : 		return;
; 1665 : 
; 1666 : 	POSITION pos = m_LineList.GetHeadPosition();

  00071	8b b3 88 00 00
	00		 mov	 esi, DWORD PTR [ebx+136]

; 1667 : 	while (pos)

  00077	85 f6		 test	 esi, esi
  00079	74 19		 je	 SHORT $LN3@OnLoadEnvi
  0007b	0f 1f 44 00 00	 npad	 5
$LL2@OnLoadEnvi:

; 1670 : 		delete pLine;

  00080	8b 4e 08	 mov	 ecx, DWORD PTR [esi+8]
; File C:\Program Files (x86)\Microsoft Visual Studio\2019\Community\VC\Tools\MSVC\14.29.30133\atlmfc\include\afxcoll.inl

; 432  : 		rPosition = (POSITION) pNode->pNext;

  00083	8b 36		 mov	 esi, DWORD PTR [esi]
; File D:\git\src\IBK\IBK_DRFN\ProjSrc\SrcChartEx\ChartAddIn\ChartPeriodSummaryAddIn\ChartPeriodSummaryAddInImp.cpp

; 1670 : 		delete pLine;

  00085	85 c9		 test	 ecx, ecx
  00087	74 07		 je	 SHORT $LN12@OnLoadEnvi
  00089	8b 01		 mov	 eax, DWORD PTR [ecx]
  0008b	6a 01		 push	 1
  0008d	ff 50 04	 call	 DWORD PTR [eax+4]
$LN12@OnLoadEnvi:

; 1667 : 	while (pos)

  00090	85 f6		 test	 esi, esi
  00092	75 ec		 jne	 SHORT $LL2@OnLoadEnvi
$LN3@OnLoadEnvi:

; 1671 : 		pLine = NULL;
; 1672 : 	}
; 1673 : 	m_LineList.RemoveAll();

  00094	8d 8b 84 00 00
	00		 lea	 ecx, DWORD PTR [ebx+132]
  0009a	e8 00 00 00 00	 call	 ?RemoveAll@CObList@@QAEXXZ ; CObList::RemoveAll

; 1674 : 
; 1675 : 	//  
; 1676 : 	CString strLineInfo, strLineInfoPrev;

  0009f	8d 4d 08	 lea	 ecx, DWORD PTR _strLineInfo$[ebp]
  000a2	ff 15 00 00 00
	00		 call	 DWORD PTR __imp_??0?$CStringT@DV?$StrTraitMFC_DLL@DV?$ChTraitsCRT@D@ATL@@@@@ATL@@QAE@XZ
  000a8	8d 4d e8	 lea	 ecx, DWORD PTR _strLineInfoPrev$[ebp]
  000ab	c7 45 fc 00 00
	00 00		 mov	 DWORD PTR __$EHRec$[ebp+8], 0
  000b2	ff 15 00 00 00
	00		 call	 DWORD PTR __imp_??0?$CStringT@DV?$StrTraitMFC_DLL@DV?$ChTraitsCRT@D@ATL@@@@@ATL@@QAE@XZ
  000b8	c6 45 fc 01	 mov	 BYTE PTR __$EHRec$[ebp+8], 1
  000bc	8d 73 f8	 lea	 esi, DWORD PTR [ebx-8]

; 1677 : 	int iStart = 0;

  000bf	c7 45 e4 00 00
	00 00		 mov	 DWORD PTR _iStart$[ebp], 0
$LL4@OnLoadEnvi:

; 1680 : 	{
; 1681 : 		strLineInfo = TokenizeEx(m_strToolLoading, ";", iStart);

  000c6	8d 45 e4	 lea	 eax, DWORD PTR _iStart$[ebp]
  000c9	50		 push	 eax
  000ca	68 00 00 00 00	 push	 OFFSET ??_C@_01ICJEACDI@?$DL@
  000cf	51		 push	 ecx
  000d0	8b cc		 mov	 ecx, esp
  000d2	57		 push	 edi
  000d3	ff 15 00 00 00
	00		 call	 DWORD PTR __imp_??0?$CStringT@DV?$StrTraitMFC_DLL@DV?$ChTraitsCRT@D@ATL@@@@@ATL@@QAE@ABV01@@Z
  000d9	8d 45 dc	 lea	 eax, DWORD PTR $T30[ebp]
  000dc	8b ce		 mov	 ecx, esi
  000de	50		 push	 eax
  000df	e8 00 00 00 00	 call	 ?TokenizeEx@CChartPeriodSummaryAddInImp@@QAE?AV?$CStringT@DV?$StrTraitMFC_DLL@DV?$ChTraitsCRT@D@ATL@@@@@ATL@@V23@PBDAAH@Z ; CChartPeriodSummaryAddInImp::TokenizeEx
  000e4	50		 push	 eax
  000e5	8d 4d 08	 lea	 ecx, DWORD PTR _strLineInfo$[ebp]
  000e8	c6 45 fc 02	 mov	 BYTE PTR __$EHRec$[ebp+8], 2
  000ec	ff 15 00 00 00
	00		 call	 DWORD PTR __imp_??4?$CStringT@DV?$StrTraitMFC_DLL@DV?$ChTraitsCRT@D@ATL@@@@@ATL@@QAEAAV01@ABV01@@Z
  000f2	8d 4d dc	 lea	 ecx, DWORD PTR $T30[ebp]
  000f5	c6 45 fc 01	 mov	 BYTE PTR __$EHRec$[ebp+8], 1
  000f9	ff 15 00 00 00
	00		 call	 DWORD PTR __imp_??1?$CStringT@DV?$StrTraitMFC_DLL@DV?$ChTraitsCRT@D@ATL@@@@@ATL@@QAE@XZ

; 1682 : 		if(iStart == -1)	// No data

  000ff	8b 75 e4	 mov	 esi, DWORD PTR _iStart$[ebp]
  00102	83 fe ff	 cmp	 esi, -1
  00105	0f 84 fd 06 00
	00		 je	 $LN151@OnLoadEnvi

; 1683 : 			break;
; 1684 : 		strLineInfo += ",";

  0010b	68 00 00 00 00	 push	 OFFSET ??_C@_01IHBHIGKO@?0@
  00110	8d 4d 08	 lea	 ecx, DWORD PTR _strLineInfo$[ebp]
  00113	ff 15 00 00 00
	00		 call	 DWORD PTR __imp_??Y?$CStringT@DV?$StrTraitMFC_DLL@DV?$ChTraitsCRT@D@ATL@@@@@ATL@@QAEAAV01@PBD@Z
; File C:\Program Files (x86)\Microsoft Visual Studio\2019\Community\VC\Tools\MSVC\14.29.30133\atlmfc\include\cstringt.h

; 2479 : 		return(str1.Compare(str2) == 0);

  00119	ff 75 08	 push	 DWORD PTR _strLineInfo$[ebp]
  0011c	8d 4d e8	 lea	 ecx, DWORD PTR _strLineInfoPrev$[ebp]
  0011f	ff 15 00 00 00
	00		 call	 DWORD PTR __imp_?Compare@?$CStringT@DV?$StrTraitMFC_DLL@DV?$ChTraitsCRT@D@ATL@@@@@ATL@@QBEHPBD@Z
  00125	85 c0		 test	 eax, eax
; File D:\git\src\IBK\IBK_DRFN\ProjSrc\SrcChartEx\ChartAddIn\ChartPeriodSummaryAddIn\ChartPeriodSummaryAddInImp.cpp

; 1686 : 		if( strLineInfoPrev == strLineInfo )

  00127	0f 84 d0 06 00
	00		 je	 $LN156@OnLoadEnvi
; File C:\Program Files (x86)\Microsoft Visual Studio\2019\Community\VC\Tools\MSVC\14.29.30133\atlmfc\include\afx.inl

; 116  : 	{ return ::operator new(nSize); }

  0012d	68 48 02 00 00	 push	 584			; 00000248H
  00132	e8 00 00 00 00	 call	 ??2@YAPAXI@Z		; operator new
  00137	83 c4 04	 add	 esp, 4
; File D:\git\src\IBK\IBK_DRFN\ProjSrc\SrcChartEx\ChartAddIn\ChartPeriodSummaryAddIn\ChartPeriodSummaryAddInImp.cpp

; 1690 : 		pLine = new CPeriodObj;

  0013a	89 85 6c ff ff
	ff		 mov	 DWORD PTR $T2[ebp], eax
  00140	c6 45 fc 03	 mov	 BYTE PTR __$EHRec$[ebp+8], 3
  00144	85 c0		 test	 eax, eax
  00146	74 0b		 je	 SHORT $LN14@OnLoadEnvi
  00148	8b c8		 mov	 ecx, eax
  0014a	e8 00 00 00 00	 call	 ??0CPeriodObj@@QAE@XZ	; CPeriodObj::CPeriodObj
  0014f	8b f8		 mov	 edi, eax
  00151	eb 02		 jmp	 SHORT $LN15@OnLoadEnvi
$LN14@OnLoadEnvi:
  00153	33 ff		 xor	 edi, edi
$LN15@OnLoadEnvi:

; 1691 : 		int iStart2 = 0;
; 1692 : 		pLine->m_bSaved = TRUE;
; 1693 : 		// 20081009  >>
; 1694 : 		pLine->SetChartPeriodSummaryAddInImp(this);

  00155	8d 43 f8	 lea	 eax, DWORD PTR [ebx-8]
  00158	c6 45 fc 01	 mov	 BYTE PTR __$EHRec$[ebp+8], 1
  0015c	50		 push	 eax
  0015d	8b cf		 mov	 ecx, edi
  0015f	c7 45 f0 00 00
	00 00		 mov	 DWORD PTR _iStart2$31[ebp], 0
  00166	c7 47 04 01 00
	00 00		 mov	 DWORD PTR [edi+4], 1
  0016d	e8 00 00 00 00	 call	 ?SetChartPeriodSummaryAddInImp@CPeriodObj@@QAEXPAVCChartPeriodSummaryAddInImp@@@Z ; CPeriodObj::SetChartPeriodSummaryAddInImp

; 1695 : 		// 20081009  <<
; 1696 : 		pLine->m_nDateType = atoi(TokenizeEx(strLineInfo, ",", iStart2));

  00172	8d 45 f0	 lea	 eax, DWORD PTR _iStart2$31[ebp]
  00175	50		 push	 eax
  00176	68 00 00 00 00	 push	 OFFSET ??_C@_01IHBHIGKO@?0@
  0017b	51		 push	 ecx
  0017c	8d 45 08	 lea	 eax, DWORD PTR _strLineInfo$[ebp]
  0017f	8b cc		 mov	 ecx, esp
  00181	50		 push	 eax
  00182	ff 15 00 00 00
	00		 call	 DWORD PTR __imp_??0?$CStringT@DV?$StrTraitMFC_DLL@DV?$ChTraitsCRT@D@ATL@@@@@ATL@@QAE@ABV01@@Z
  00188	8d 45 d8	 lea	 eax, DWORD PTR $T29[ebp]
  0018b	50		 push	 eax
  0018c	8d 4b f8	 lea	 ecx, DWORD PTR [ebx-8]
  0018f	e8 00 00 00 00	 call	 ?TokenizeEx@CChartPeriodSummaryAddInImp@@QAE?AV?$CStringT@DV?$StrTraitMFC_DLL@DV?$ChTraitsCRT@D@ATL@@@@@ATL@@V23@PBDAAH@Z ; CChartPeriodSummaryAddInImp::TokenizeEx
  00194	ff 30		 push	 DWORD PTR [eax]
  00196	ff 15 00 00 00
	00		 call	 DWORD PTR __imp__atoi
  0019c	83 c4 04	 add	 esp, 4
  0019f	89 47 1c	 mov	 DWORD PTR [edi+28], eax
  001a2	8d 4d d8	 lea	 ecx, DWORD PTR $T29[ebp]
  001a5	ff 15 00 00 00
	00		 call	 DWORD PTR __imp_??1?$CStringT@DV?$StrTraitMFC_DLL@DV?$ChTraitsCRT@D@ATL@@@@@ATL@@QAE@XZ

; 1697 : 		pLine->m_nUpDown = atoi(TokenizeEx(strLineInfo, ",", iStart2));

  001ab	8d 45 f0	 lea	 eax, DWORD PTR _iStart2$31[ebp]
  001ae	50		 push	 eax
  001af	68 00 00 00 00	 push	 OFFSET ??_C@_01IHBHIGKO@?0@
  001b4	51		 push	 ecx
  001b5	8d 45 08	 lea	 eax, DWORD PTR _strLineInfo$[ebp]
  001b8	8b cc		 mov	 ecx, esp
  001ba	50		 push	 eax
  001bb	ff 15 00 00 00
	00		 call	 DWORD PTR __imp_??0?$CStringT@DV?$StrTraitMFC_DLL@DV?$ChTraitsCRT@D@ATL@@@@@ATL@@QAE@ABV01@@Z
  001c1	8d 45 d4	 lea	 eax, DWORD PTR $T28[ebp]
  001c4	50		 push	 eax
  001c5	8d 4b f8	 lea	 ecx, DWORD PTR [ebx-8]
  001c8	e8 00 00 00 00	 call	 ?TokenizeEx@CChartPeriodSummaryAddInImp@@QAE?AV?$CStringT@DV?$StrTraitMFC_DLL@DV?$ChTraitsCRT@D@ATL@@@@@ATL@@V23@PBDAAH@Z ; CChartPeriodSummaryAddInImp::TokenizeEx
  001cd	ff 30		 push	 DWORD PTR [eax]
  001cf	ff 15 00 00 00
	00		 call	 DWORD PTR __imp__atoi
  001d5	83 c4 04	 add	 esp, 4
  001d8	89 87 e4 01 00
	00		 mov	 DWORD PTR [edi+484], eax
  001de	8d 4d d4	 lea	 ecx, DWORD PTR $T28[ebp]
  001e1	ff 15 00 00 00
	00		 call	 DWORD PTR __imp_??1?$CStringT@DV?$StrTraitMFC_DLL@DV?$ChTraitsCRT@D@ATL@@@@@ATL@@QAE@XZ

; 1698 : 		pLine->m_lSDate = _atoi64(TokenizeEx(strLineInfo, ",", iStart2));

  001e7	8d 45 f0	 lea	 eax, DWORD PTR _iStart2$31[ebp]
  001ea	50		 push	 eax
  001eb	68 00 00 00 00	 push	 OFFSET ??_C@_01IHBHIGKO@?0@
  001f0	51		 push	 ecx
  001f1	8d 45 08	 lea	 eax, DWORD PTR _strLineInfo$[ebp]
  001f4	8b cc		 mov	 ecx, esp
  001f6	50		 push	 eax
  001f7	ff 15 00 00 00
	00		 call	 DWORD PTR __imp_??0?$CStringT@DV?$StrTraitMFC_DLL@DV?$ChTraitsCRT@D@ATL@@@@@ATL@@QAE@ABV01@@Z
  001fd	8d 45 d0	 lea	 eax, DWORD PTR $T27[ebp]
  00200	50		 push	 eax
  00201	8d 4b f8	 lea	 ecx, DWORD PTR [ebx-8]
  00204	e8 00 00 00 00	 call	 ?TokenizeEx@CChartPeriodSummaryAddInImp@@QAE?AV?$CStringT@DV?$StrTraitMFC_DLL@DV?$ChTraitsCRT@D@ATL@@@@@ATL@@V23@PBDAAH@Z ; CChartPeriodSummaryAddInImp::TokenizeEx
  00209	ff 30		 push	 DWORD PTR [eax]
  0020b	ff 15 00 00 00
	00		 call	 DWORD PTR __imp___atoi64
  00211	83 c4 04	 add	 esp, 4
  00214	89 87 68 01 00
	00		 mov	 DWORD PTR [edi+360], eax
  0021a	8d 4d d0	 lea	 ecx, DWORD PTR $T27[ebp]
  0021d	89 97 6c 01 00
	00		 mov	 DWORD PTR [edi+364], edx
  00223	ff 15 00 00 00
	00		 call	 DWORD PTR __imp_??1?$CStringT@DV?$StrTraitMFC_DLL@DV?$ChTraitsCRT@D@ATL@@@@@ATL@@QAE@XZ

; 1699 : 		pLine->m_lEDate = _atoi64(TokenizeEx(strLineInfo, ",", iStart2));

  00229	8d 45 f0	 lea	 eax, DWORD PTR _iStart2$31[ebp]
  0022c	50		 push	 eax
  0022d	68 00 00 00 00	 push	 OFFSET ??_C@_01IHBHIGKO@?0@
  00232	51		 push	 ecx
  00233	8d 45 08	 lea	 eax, DWORD PTR _strLineInfo$[ebp]
  00236	8b cc		 mov	 ecx, esp
  00238	50		 push	 eax
  00239	ff 15 00 00 00
	00		 call	 DWORD PTR __imp_??0?$CStringT@DV?$StrTraitMFC_DLL@DV?$ChTraitsCRT@D@ATL@@@@@ATL@@QAE@ABV01@@Z
  0023f	8d 45 cc	 lea	 eax, DWORD PTR $T26[ebp]
  00242	50		 push	 eax
  00243	8d 4b f8	 lea	 ecx, DWORD PTR [ebx-8]
  00246	e8 00 00 00 00	 call	 ?TokenizeEx@CChartPeriodSummaryAddInImp@@QAE?AV?$CStringT@DV?$StrTraitMFC_DLL@DV?$ChTraitsCRT@D@ATL@@@@@ATL@@V23@PBDAAH@Z ; CChartPeriodSummaryAddInImp::TokenizeEx
  0024b	ff 30		 push	 DWORD PTR [eax]
  0024d	ff 15 00 00 00
	00		 call	 DWORD PTR __imp___atoi64
  00253	83 c4 04	 add	 esp, 4
  00256	89 87 70 01 00
	00		 mov	 DWORD PTR [edi+368], eax
  0025c	8d 4d cc	 lea	 ecx, DWORD PTR $T26[ebp]
  0025f	89 97 74 01 00
	00		 mov	 DWORD PTR [edi+372], edx
  00265	ff 15 00 00 00
	00		 call	 DWORD PTR __imp_??1?$CStringT@DV?$StrTraitMFC_DLL@DV?$ChTraitsCRT@D@ATL@@@@@ATL@@QAE@XZ

; 1700 : 		pLine->m_Price.sPrice = atof(TokenizeEx(strLineInfo, ",", iStart2));

  0026b	8d 45 f0	 lea	 eax, DWORD PTR _iStart2$31[ebp]
  0026e	50		 push	 eax
  0026f	68 00 00 00 00	 push	 OFFSET ??_C@_01IHBHIGKO@?0@
  00274	51		 push	 ecx
  00275	8d 45 08	 lea	 eax, DWORD PTR _strLineInfo$[ebp]
  00278	8b cc		 mov	 ecx, esp
  0027a	50		 push	 eax
  0027b	ff 15 00 00 00
	00		 call	 DWORD PTR __imp_??0?$CStringT@DV?$StrTraitMFC_DLL@DV?$ChTraitsCRT@D@ATL@@@@@ATL@@QAE@ABV01@@Z
  00281	8d 45 c8	 lea	 eax, DWORD PTR $T25[ebp]
  00284	50		 push	 eax
  00285	8d 4b f8	 lea	 ecx, DWORD PTR [ebx-8]
  00288	e8 00 00 00 00	 call	 ?TokenizeEx@CChartPeriodSummaryAddInImp@@QAE?AV?$CStringT@DV?$StrTraitMFC_DLL@DV?$ChTraitsCRT@D@ATL@@@@@ATL@@V23@PBDAAH@Z ; CChartPeriodSummaryAddInImp::TokenizeEx
  0028d	ff 30		 push	 DWORD PTR [eax]
  0028f	ff 15 00 00 00
	00		 call	 DWORD PTR __imp__atof
  00295	83 c4 04	 add	 esp, 4
  00298	8d 4d c8	 lea	 ecx, DWORD PTR $T25[ebp]
  0029b	dd 9f 88 01 00
	00		 fstp	 QWORD PTR [edi+392]
  002a1	ff 15 00 00 00
	00		 call	 DWORD PTR __imp_??1?$CStringT@DV?$StrTraitMFC_DLL@DV?$ChTraitsCRT@D@ATL@@@@@ATL@@QAE@XZ

; 1701 : 		pLine->m_Price.ePrice = atof(TokenizeEx(strLineInfo, ",", iStart2));

  002a7	8d 45 f0	 lea	 eax, DWORD PTR _iStart2$31[ebp]
  002aa	50		 push	 eax
  002ab	68 00 00 00 00	 push	 OFFSET ??_C@_01IHBHIGKO@?0@
  002b0	51		 push	 ecx
  002b1	8d 45 08	 lea	 eax, DWORD PTR _strLineInfo$[ebp]
  002b4	8b cc		 mov	 ecx, esp
  002b6	50		 push	 eax
  002b7	ff 15 00 00 00
	00		 call	 DWORD PTR __imp_??0?$CStringT@DV?$StrTraitMFC_DLL@DV?$ChTraitsCRT@D@ATL@@@@@ATL@@QAE@ABV01@@Z
  002bd	8d 45 c4	 lea	 eax, DWORD PTR $T24[ebp]
  002c0	50		 push	 eax
  002c1	8d 4b f8	 lea	 ecx, DWORD PTR [ebx-8]
  002c4	e8 00 00 00 00	 call	 ?TokenizeEx@CChartPeriodSummaryAddInImp@@QAE?AV?$CStringT@DV?$StrTraitMFC_DLL@DV?$ChTraitsCRT@D@ATL@@@@@ATL@@V23@PBDAAH@Z ; CChartPeriodSummaryAddInImp::TokenizeEx
  002c9	ff 30		 push	 DWORD PTR [eax]
  002cb	ff 15 00 00 00
	00		 call	 DWORD PTR __imp__atof
  002d1	83 c4 04	 add	 esp, 4
  002d4	8d 4d c4	 lea	 ecx, DWORD PTR $T24[ebp]
  002d7	dd 9f 90 01 00
	00		 fstp	 QWORD PTR [edi+400]
  002dd	ff 15 00 00 00
	00		 call	 DWORD PTR __imp_??1?$CStringT@DV?$StrTraitMFC_DLL@DV?$ChTraitsCRT@D@ATL@@@@@ATL@@QAE@XZ

; 1702 : 		pLine->m_nLineThickness = atoi(TokenizeEx(strLineInfo, ",", iStart2));

  002e3	8d 45 f0	 lea	 eax, DWORD PTR _iStart2$31[ebp]
  002e6	50		 push	 eax
  002e7	68 00 00 00 00	 push	 OFFSET ??_C@_01IHBHIGKO@?0@
  002ec	51		 push	 ecx
  002ed	8d 45 08	 lea	 eax, DWORD PTR _strLineInfo$[ebp]
  002f0	8b cc		 mov	 ecx, esp
  002f2	50		 push	 eax
  002f3	ff 15 00 00 00
	00		 call	 DWORD PTR __imp_??0?$CStringT@DV?$StrTraitMFC_DLL@DV?$ChTraitsCRT@D@ATL@@@@@ATL@@QAE@ABV01@@Z
  002f9	8d 45 c0	 lea	 eax, DWORD PTR $T23[ebp]
  002fc	50		 push	 eax
  002fd	8d 4b f8	 lea	 ecx, DWORD PTR [ebx-8]
  00300	e8 00 00 00 00	 call	 ?TokenizeEx@CChartPeriodSummaryAddInImp@@QAE?AV?$CStringT@DV?$StrTraitMFC_DLL@DV?$ChTraitsCRT@D@ATL@@@@@ATL@@V23@PBDAAH@Z ; CChartPeriodSummaryAddInImp::TokenizeEx
  00305	ff 30		 push	 DWORD PTR [eax]
  00307	ff 15 00 00 00
	00		 call	 DWORD PTR __imp__atoi
  0030d	83 c4 04	 add	 esp, 4
  00310	89 87 48 01 00
	00		 mov	 DWORD PTR [edi+328], eax
  00316	8d 4d c0	 lea	 ecx, DWORD PTR $T23[ebp]
  00319	ff 15 00 00 00
	00		 call	 DWORD PTR __imp_??1?$CStringT@DV?$StrTraitMFC_DLL@DV?$ChTraitsCRT@D@ATL@@@@@ATL@@QAE@XZ

; 1703 : 		pLine->m_nLineStyle = atoi(TokenizeEx(strLineInfo, ",", iStart2));

  0031f	8d 45 f0	 lea	 eax, DWORD PTR _iStart2$31[ebp]
  00322	50		 push	 eax
  00323	68 00 00 00 00	 push	 OFFSET ??_C@_01IHBHIGKO@?0@
  00328	51		 push	 ecx
  00329	8d 45 08	 lea	 eax, DWORD PTR _strLineInfo$[ebp]
  0032c	8b cc		 mov	 ecx, esp
  0032e	50		 push	 eax
  0032f	ff 15 00 00 00
	00		 call	 DWORD PTR __imp_??0?$CStringT@DV?$StrTraitMFC_DLL@DV?$ChTraitsCRT@D@ATL@@@@@ATL@@QAE@ABV01@@Z
  00335	8d 45 bc	 lea	 eax, DWORD PTR $T22[ebp]
  00338	50		 push	 eax
  00339	8d 4b f8	 lea	 ecx, DWORD PTR [ebx-8]
  0033c	e8 00 00 00 00	 call	 ?TokenizeEx@CChartPeriodSummaryAddInImp@@QAE?AV?$CStringT@DV?$StrTraitMFC_DLL@DV?$ChTraitsCRT@D@ATL@@@@@ATL@@V23@PBDAAH@Z ; CChartPeriodSummaryAddInImp::TokenizeEx
  00341	ff 30		 push	 DWORD PTR [eax]
  00343	ff 15 00 00 00
	00		 call	 DWORD PTR __imp__atoi
  00349	83 c4 04	 add	 esp, 4
  0034c	89 87 4c 01 00
	00		 mov	 DWORD PTR [edi+332], eax
  00352	8d 4d bc	 lea	 ecx, DWORD PTR $T22[ebp]
  00355	ff 15 00 00 00
	00		 call	 DWORD PTR __imp_??1?$CStringT@DV?$StrTraitMFC_DLL@DV?$ChTraitsCRT@D@ATL@@@@@ATL@@QAE@XZ

; 1704 : 		pLine->m_bSEPrice = atoi(TokenizeEx(strLineInfo, ",", iStart2));			//  

  0035b	8d 45 f0	 lea	 eax, DWORD PTR _iStart2$31[ebp]
  0035e	50		 push	 eax
  0035f	68 00 00 00 00	 push	 OFFSET ??_C@_01IHBHIGKO@?0@
  00364	51		 push	 ecx
  00365	8d 45 08	 lea	 eax, DWORD PTR _strLineInfo$[ebp]
  00368	8b cc		 mov	 ecx, esp
  0036a	50		 push	 eax
  0036b	ff 15 00 00 00
	00		 call	 DWORD PTR __imp_??0?$CStringT@DV?$StrTraitMFC_DLL@DV?$ChTraitsCRT@D@ATL@@@@@ATL@@QAE@ABV01@@Z
  00371	8d 45 b8	 lea	 eax, DWORD PTR $T21[ebp]
  00374	50		 push	 eax
  00375	8d 4b f8	 lea	 ecx, DWORD PTR [ebx-8]
  00378	e8 00 00 00 00	 call	 ?TokenizeEx@CChartPeriodSummaryAddInImp@@QAE?AV?$CStringT@DV?$StrTraitMFC_DLL@DV?$ChTraitsCRT@D@ATL@@@@@ATL@@V23@PBDAAH@Z ; CChartPeriodSummaryAddInImp::TokenizeEx
  0037d	ff 30		 push	 DWORD PTR [eax]
  0037f	ff 15 00 00 00
	00		 call	 DWORD PTR __imp__atoi
  00385	83 c4 04	 add	 esp, 4
  00388	89 87 18 01 00
	00		 mov	 DWORD PTR [edi+280], eax
  0038e	8d 4d b8	 lea	 ecx, DWORD PTR $T21[ebp]
  00391	ff 15 00 00 00
	00		 call	 DWORD PTR __imp_??1?$CStringT@DV?$StrTraitMFC_DLL@DV?$ChTraitsCRT@D@ATL@@@@@ATL@@QAE@XZ

; 1705 : 		pLine->m_bEEPrice = atoi(TokenizeEx(strLineInfo, ",", iStart2));			//  

  00397	8d 45 f0	 lea	 eax, DWORD PTR _iStart2$31[ebp]
  0039a	50		 push	 eax
  0039b	68 00 00 00 00	 push	 OFFSET ??_C@_01IHBHIGKO@?0@
  003a0	51		 push	 ecx
  003a1	8d 45 08	 lea	 eax, DWORD PTR _strLineInfo$[ebp]
  003a4	8b cc		 mov	 ecx, esp
  003a6	50		 push	 eax
  003a7	ff 15 00 00 00
	00		 call	 DWORD PTR __imp_??0?$CStringT@DV?$StrTraitMFC_DLL@DV?$ChTraitsCRT@D@ATL@@@@@ATL@@QAE@ABV01@@Z
  003ad	8d 45 b4	 lea	 eax, DWORD PTR $T20[ebp]
  003b0	50		 push	 eax
  003b1	8d 4b f8	 lea	 ecx, DWORD PTR [ebx-8]
  003b4	e8 00 00 00 00	 call	 ?TokenizeEx@CChartPeriodSummaryAddInImp@@QAE?AV?$CStringT@DV?$StrTraitMFC_DLL@DV?$ChTraitsCRT@D@ATL@@@@@ATL@@V23@PBDAAH@Z ; CChartPeriodSummaryAddInImp::TokenizeEx
  003b9	ff 30		 push	 DWORD PTR [eax]
  003bb	ff 15 00 00 00
	00		 call	 DWORD PTR __imp__atoi
  003c1	83 c4 04	 add	 esp, 4
  003c4	89 87 1c 01 00
	00		 mov	 DWORD PTR [edi+284], eax
  003ca	8d 4d b4	 lea	 ecx, DWORD PTR $T20[ebp]
  003cd	ff 15 00 00 00
	00		 call	 DWORD PTR __imp_??1?$CStringT@DV?$StrTraitMFC_DLL@DV?$ChTraitsCRT@D@ATL@@@@@ATL@@QAE@XZ

; 1706 : 		pLine->m_bHPrice = atoi(TokenizeEx(strLineInfo, ",", iStart2));				// 

  003d3	8d 45 f0	 lea	 eax, DWORD PTR _iStart2$31[ebp]
  003d6	50		 push	 eax
  003d7	68 00 00 00 00	 push	 OFFSET ??_C@_01IHBHIGKO@?0@
  003dc	51		 push	 ecx
  003dd	8d 45 08	 lea	 eax, DWORD PTR _strLineInfo$[ebp]
  003e0	8b cc		 mov	 ecx, esp
  003e2	50		 push	 eax
  003e3	ff 15 00 00 00
	00		 call	 DWORD PTR __imp_??0?$CStringT@DV?$StrTraitMFC_DLL@DV?$ChTraitsCRT@D@ATL@@@@@ATL@@QAE@ABV01@@Z
  003e9	8d 45 b0	 lea	 eax, DWORD PTR $T19[ebp]
  003ec	50		 push	 eax
  003ed	8d 4b f8	 lea	 ecx, DWORD PTR [ebx-8]
  003f0	e8 00 00 00 00	 call	 ?TokenizeEx@CChartPeriodSummaryAddInImp@@QAE?AV?$CStringT@DV?$StrTraitMFC_DLL@DV?$ChTraitsCRT@D@ATL@@@@@ATL@@V23@PBDAAH@Z ; CChartPeriodSummaryAddInImp::TokenizeEx
  003f5	ff 30		 push	 DWORD PTR [eax]
  003f7	ff 15 00 00 00
	00		 call	 DWORD PTR __imp__atoi
  003fd	83 c4 04	 add	 esp, 4
  00400	89 87 20 01 00
	00		 mov	 DWORD PTR [edi+288], eax
  00406	8d 4d b0	 lea	 ecx, DWORD PTR $T19[ebp]
  00409	ff 15 00 00 00
	00		 call	 DWORD PTR __imp_??1?$CStringT@DV?$StrTraitMFC_DLL@DV?$ChTraitsCRT@D@ATL@@@@@ATL@@QAE@XZ

; 1707 : 		pLine->m_bLPrice = atoi(TokenizeEx(strLineInfo, ",", iStart2));				// 

  0040f	8d 45 f0	 lea	 eax, DWORD PTR _iStart2$31[ebp]
  00412	50		 push	 eax
  00413	68 00 00 00 00	 push	 OFFSET ??_C@_01IHBHIGKO@?0@
  00418	51		 push	 ecx
  00419	8d 45 08	 lea	 eax, DWORD PTR _strLineInfo$[ebp]
  0041c	8b cc		 mov	 ecx, esp
  0041e	50		 push	 eax
  0041f	ff 15 00 00 00
	00		 call	 DWORD PTR __imp_??0?$CStringT@DV?$StrTraitMFC_DLL@DV?$ChTraitsCRT@D@ATL@@@@@ATL@@QAE@ABV01@@Z
  00425	8d 45 ac	 lea	 eax, DWORD PTR $T18[ebp]
  00428	50		 push	 eax
  00429	8d 4b f8	 lea	 ecx, DWORD PTR [ebx-8]
  0042c	e8 00 00 00 00	 call	 ?TokenizeEx@CChartPeriodSummaryAddInImp@@QAE?AV?$CStringT@DV?$StrTraitMFC_DLL@DV?$ChTraitsCRT@D@ATL@@@@@ATL@@V23@PBDAAH@Z ; CChartPeriodSummaryAddInImp::TokenizeEx
  00431	ff 30		 push	 DWORD PTR [eax]
  00433	ff 15 00 00 00
	00		 call	 DWORD PTR __imp__atoi
  00439	83 c4 04	 add	 esp, 4
  0043c	89 87 24 01 00
	00		 mov	 DWORD PTR [edi+292], eax
  00442	8d 4d ac	 lea	 ecx, DWORD PTR $T18[ebp]
  00445	ff 15 00 00 00
	00		 call	 DWORD PTR __imp_??1?$CStringT@DV?$StrTraitMFC_DLL@DV?$ChTraitsCRT@D@ATL@@@@@ATL@@QAE@XZ

; 1708 : 		pLine->m_bMPrice = atoi(TokenizeEx(strLineInfo, ",", iStart2));				// 

  0044b	8d 45 f0	 lea	 eax, DWORD PTR _iStart2$31[ebp]
  0044e	50		 push	 eax
  0044f	68 00 00 00 00	 push	 OFFSET ??_C@_01IHBHIGKO@?0@
  00454	51		 push	 ecx
  00455	8d 45 08	 lea	 eax, DWORD PTR _strLineInfo$[ebp]
  00458	8b cc		 mov	 ecx, esp
  0045a	50		 push	 eax
  0045b	ff 15 00 00 00
	00		 call	 DWORD PTR __imp_??0?$CStringT@DV?$StrTraitMFC_DLL@DV?$ChTraitsCRT@D@ATL@@@@@ATL@@QAE@ABV01@@Z
  00461	8d 85 70 ff ff
	ff		 lea	 eax, DWORD PTR $T3[ebp]
  00467	50		 push	 eax
  00468	8d 4b f8	 lea	 ecx, DWORD PTR [ebx-8]
  0046b	e8 00 00 00 00	 call	 ?TokenizeEx@CChartPeriodSummaryAddInImp@@QAE?AV?$CStringT@DV?$StrTraitMFC_DLL@DV?$ChTraitsCRT@D@ATL@@@@@ATL@@V23@PBDAAH@Z ; CChartPeriodSummaryAddInImp::TokenizeEx
  00470	ff 30		 push	 DWORD PTR [eax]
  00472	ff 15 00 00 00
	00		 call	 DWORD PTR __imp__atoi
  00478	83 c4 04	 add	 esp, 4
  0047b	89 87 28 01 00
	00		 mov	 DWORD PTR [edi+296], eax
  00481	8d 8d 70 ff ff
	ff		 lea	 ecx, DWORD PTR $T3[ebp]
  00487	ff 15 00 00 00
	00		 call	 DWORD PTR __imp_??1?$CStringT@DV?$StrTraitMFC_DLL@DV?$ChTraitsCRT@D@ATL@@@@@ATL@@QAE@XZ

; 1709 : 		pLine->m_bHAmount = atoi(TokenizeEx(strLineInfo, ",", iStart2));			// 

  0048d	8d 45 f0	 lea	 eax, DWORD PTR _iStart2$31[ebp]
  00490	50		 push	 eax
  00491	68 00 00 00 00	 push	 OFFSET ??_C@_01IHBHIGKO@?0@
  00496	51		 push	 ecx
  00497	8d 45 08	 lea	 eax, DWORD PTR _strLineInfo$[ebp]
  0049a	8b cc		 mov	 ecx, esp
  0049c	50		 push	 eax
  0049d	ff 15 00 00 00
	00		 call	 DWORD PTR __imp_??0?$CStringT@DV?$StrTraitMFC_DLL@DV?$ChTraitsCRT@D@ATL@@@@@ATL@@QAE@ABV01@@Z
  004a3	8d 45 a8	 lea	 eax, DWORD PTR $T17[ebp]
  004a6	50		 push	 eax
  004a7	8d 4b f8	 lea	 ecx, DWORD PTR [ebx-8]
  004aa	e8 00 00 00 00	 call	 ?TokenizeEx@CChartPeriodSummaryAddInImp@@QAE?AV?$CStringT@DV?$StrTraitMFC_DLL@DV?$ChTraitsCRT@D@ATL@@@@@ATL@@V23@PBDAAH@Z ; CChartPeriodSummaryAddInImp::TokenizeEx
  004af	ff 30		 push	 DWORD PTR [eax]
  004b1	ff 15 00 00 00
	00		 call	 DWORD PTR __imp__atoi
  004b7	83 c4 04	 add	 esp, 4
  004ba	89 87 2c 01 00
	00		 mov	 DWORD PTR [edi+300], eax
  004c0	8d 4d a8	 lea	 ecx, DWORD PTR $T17[ebp]
  004c3	ff 15 00 00 00
	00		 call	 DWORD PTR __imp_??1?$CStringT@DV?$StrTraitMFC_DLL@DV?$ChTraitsCRT@D@ATL@@@@@ATL@@QAE@XZ

; 1710 : 		pLine->m_bLAmount = atoi(TokenizeEx(strLineInfo, ",", iStart2));			//  

  004c9	8d 45 f0	 lea	 eax, DWORD PTR _iStart2$31[ebp]
  004cc	50		 push	 eax
  004cd	68 00 00 00 00	 push	 OFFSET ??_C@_01IHBHIGKO@?0@
  004d2	51		 push	 ecx
  004d3	8d 45 08	 lea	 eax, DWORD PTR _strLineInfo$[ebp]
  004d6	8b cc		 mov	 ecx, esp
  004d8	50		 push	 eax
  004d9	ff 15 00 00 00
	00		 call	 DWORD PTR __imp_??0?$CStringT@DV?$StrTraitMFC_DLL@DV?$ChTraitsCRT@D@ATL@@@@@ATL@@QAE@ABV01@@Z
  004df	8d 45 a4	 lea	 eax, DWORD PTR $T16[ebp]
  004e2	50		 push	 eax
  004e3	8d 4b f8	 lea	 ecx, DWORD PTR [ebx-8]
  004e6	e8 00 00 00 00	 call	 ?TokenizeEx@CChartPeriodSummaryAddInImp@@QAE?AV?$CStringT@DV?$StrTraitMFC_DLL@DV?$ChTraitsCRT@D@ATL@@@@@ATL@@V23@PBDAAH@Z ; CChartPeriodSummaryAddInImp::TokenizeEx
  004eb	ff 30		 push	 DWORD PTR [eax]
  004ed	ff 15 00 00 00
	00		 call	 DWORD PTR __imp__atoi
  004f3	83 c4 04	 add	 esp, 4
  004f6	89 87 30 01 00
	00		 mov	 DWORD PTR [edi+304], eax
  004fc	8d 4d a4	 lea	 ecx, DWORD PTR $T16[ebp]
  004ff	ff 15 00 00 00
	00		 call	 DWORD PTR __imp_??1?$CStringT@DV?$StrTraitMFC_DLL@DV?$ChTraitsCRT@D@ATL@@@@@ATL@@QAE@XZ

; 1711 : 		pLine->m_bMAmount = atoi(TokenizeEx(strLineInfo, ",", iStart2));			//  

  00505	8d 45 f0	 lea	 eax, DWORD PTR _iStart2$31[ebp]
  00508	50		 push	 eax
  00509	68 00 00 00 00	 push	 OFFSET ??_C@_01IHBHIGKO@?0@
  0050e	51		 push	 ecx
  0050f	8d 45 08	 lea	 eax, DWORD PTR _strLineInfo$[ebp]
  00512	8b cc		 mov	 ecx, esp
  00514	50		 push	 eax
  00515	ff 15 00 00 00
	00		 call	 DWORD PTR __imp_??0?$CStringT@DV?$StrTraitMFC_DLL@DV?$ChTraitsCRT@D@ATL@@@@@ATL@@QAE@ABV01@@Z
  0051b	8d 45 a0	 lea	 eax, DWORD PTR $T15[ebp]
  0051e	50		 push	 eax
  0051f	8d 4b f8	 lea	 ecx, DWORD PTR [ebx-8]
  00522	e8 00 00 00 00	 call	 ?TokenizeEx@CChartPeriodSummaryAddInImp@@QAE?AV?$CStringT@DV?$StrTraitMFC_DLL@DV?$ChTraitsCRT@D@ATL@@@@@ATL@@V23@PBDAAH@Z ; CChartPeriodSummaryAddInImp::TokenizeEx
  00527	ff 30		 push	 DWORD PTR [eax]
  00529	ff 15 00 00 00
	00		 call	 DWORD PTR __imp__atoi
  0052f	83 c4 04	 add	 esp, 4
  00532	89 87 34 01 00
	00		 mov	 DWORD PTR [edi+308], eax
  00538	8d 4d a0	 lea	 ecx, DWORD PTR $T15[ebp]
  0053b	ff 15 00 00 00
	00		 call	 DWORD PTR __imp_??1?$CStringT@DV?$StrTraitMFC_DLL@DV?$ChTraitsCRT@D@ATL@@@@@ATL@@QAE@XZ

; 1712 : 		pLine->m_bPCNum = atoi(TokenizeEx(strLineInfo, ",", iStart2));				// 

  00541	8d 45 f0	 lea	 eax, DWORD PTR _iStart2$31[ebp]
  00544	50		 push	 eax
  00545	68 00 00 00 00	 push	 OFFSET ??_C@_01IHBHIGKO@?0@
  0054a	51		 push	 ecx
  0054b	8d 45 08	 lea	 eax, DWORD PTR _strLineInfo$[ebp]
  0054e	8b cc		 mov	 ecx, esp
  00550	50		 push	 eax
  00551	ff 15 00 00 00
	00		 call	 DWORD PTR __imp_??0?$CStringT@DV?$StrTraitMFC_DLL@DV?$ChTraitsCRT@D@ATL@@@@@ATL@@QAE@ABV01@@Z
  00557	8d 45 9c	 lea	 eax, DWORD PTR $T14[ebp]
  0055a	50		 push	 eax
  0055b	8d 4b f8	 lea	 ecx, DWORD PTR [ebx-8]
  0055e	e8 00 00 00 00	 call	 ?TokenizeEx@CChartPeriodSummaryAddInImp@@QAE?AV?$CStringT@DV?$StrTraitMFC_DLL@DV?$ChTraitsCRT@D@ATL@@@@@ATL@@V23@PBDAAH@Z ; CChartPeriodSummaryAddInImp::TokenizeEx
  00563	ff 30		 push	 DWORD PTR [eax]
  00565	ff 15 00 00 00
	00		 call	 DWORD PTR __imp__atoi
  0056b	83 c4 04	 add	 esp, 4
  0056e	89 87 38 01 00
	00		 mov	 DWORD PTR [edi+312], eax
  00574	8d 4d 9c	 lea	 ecx, DWORD PTR $T14[ebp]
  00577	ff 15 00 00 00
	00		 call	 DWORD PTR __imp_??1?$CStringT@DV?$StrTraitMFC_DLL@DV?$ChTraitsCRT@D@ATL@@@@@ATL@@QAE@XZ

; 1713 : 		pLine->m_bMCNum = atoi(TokenizeEx(strLineInfo, ",", iStart2));				//  

  0057d	8d 45 f0	 lea	 eax, DWORD PTR _iStart2$31[ebp]
  00580	50		 push	 eax
  00581	68 00 00 00 00	 push	 OFFSET ??_C@_01IHBHIGKO@?0@
  00586	51		 push	 ecx
  00587	8d 45 08	 lea	 eax, DWORD PTR _strLineInfo$[ebp]
  0058a	8b cc		 mov	 ecx, esp
  0058c	50		 push	 eax
  0058d	ff 15 00 00 00
	00		 call	 DWORD PTR __imp_??0?$CStringT@DV?$StrTraitMFC_DLL@DV?$ChTraitsCRT@D@ATL@@@@@ATL@@QAE@ABV01@@Z
  00593	8d 45 98	 lea	 eax, DWORD PTR $T13[ebp]
  00596	50		 push	 eax
  00597	8d 4b f8	 lea	 ecx, DWORD PTR [ebx-8]
  0059a	e8 00 00 00 00	 call	 ?TokenizeEx@CChartPeriodSummaryAddInImp@@QAE?AV?$CStringT@DV?$StrTraitMFC_DLL@DV?$ChTraitsCRT@D@ATL@@@@@ATL@@V23@PBDAAH@Z ; CChartPeriodSummaryAddInImp::TokenizeEx
  0059f	ff 30		 push	 DWORD PTR [eax]
  005a1	ff 15 00 00 00
	00		 call	 DWORD PTR __imp__atoi
  005a7	83 c4 04	 add	 esp, 4
  005aa	89 87 3c 01 00
	00		 mov	 DWORD PTR [edi+316], eax
  005b0	8d 4d 98	 lea	 ecx, DWORD PTR $T13[ebp]
  005b3	ff 15 00 00 00
	00		 call	 DWORD PTR __imp_??1?$CStringT@DV?$StrTraitMFC_DLL@DV?$ChTraitsCRT@D@ATL@@@@@ATL@@QAE@XZ

; 1714 : 		pLine->m_bPMRatio = atoi(TokenizeEx(strLineInfo, ",", iStart2));			// 

  005b9	8d 45 f0	 lea	 eax, DWORD PTR _iStart2$31[ebp]
  005bc	50		 push	 eax
  005bd	68 00 00 00 00	 push	 OFFSET ??_C@_01IHBHIGKO@?0@
  005c2	51		 push	 ecx
  005c3	8d 45 08	 lea	 eax, DWORD PTR _strLineInfo$[ebp]
  005c6	8b cc		 mov	 ecx, esp
  005c8	50		 push	 eax
  005c9	ff 15 00 00 00
	00		 call	 DWORD PTR __imp_??0?$CStringT@DV?$StrTraitMFC_DLL@DV?$ChTraitsCRT@D@ATL@@@@@ATL@@QAE@ABV01@@Z
  005cf	8d 45 94	 lea	 eax, DWORD PTR $T12[ebp]
  005d2	50		 push	 eax
  005d3	8d 4b f8	 lea	 ecx, DWORD PTR [ebx-8]
  005d6	e8 00 00 00 00	 call	 ?TokenizeEx@CChartPeriodSummaryAddInImp@@QAE?AV?$CStringT@DV?$StrTraitMFC_DLL@DV?$ChTraitsCRT@D@ATL@@@@@ATL@@V23@PBDAAH@Z ; CChartPeriodSummaryAddInImp::TokenizeEx
  005db	ff 30		 push	 DWORD PTR [eax]
  005dd	ff 15 00 00 00
	00		 call	 DWORD PTR __imp__atoi
  005e3	83 c4 04	 add	 esp, 4
  005e6	89 87 40 01 00
	00		 mov	 DWORD PTR [edi+320], eax
  005ec	8d 4d 94	 lea	 ecx, DWORD PTR $T12[ebp]
  005ef	ff 15 00 00 00
	00		 call	 DWORD PTR __imp_??1?$CStringT@DV?$StrTraitMFC_DLL@DV?$ChTraitsCRT@D@ATL@@@@@ATL@@QAE@XZ

; 1715 : 		pLine->m_dSClicked = atof(TokenizeEx(strLineInfo, ",", iStart2));

  005f5	8d 45 f0	 lea	 eax, DWORD PTR _iStart2$31[ebp]
  005f8	50		 push	 eax
  005f9	68 00 00 00 00	 push	 OFFSET ??_C@_01IHBHIGKO@?0@
  005fe	51		 push	 ecx
  005ff	8d 45 08	 lea	 eax, DWORD PTR _strLineInfo$[ebp]
  00602	8b cc		 mov	 ecx, esp
  00604	50		 push	 eax
  00605	ff 15 00 00 00
	00		 call	 DWORD PTR __imp_??0?$CStringT@DV?$StrTraitMFC_DLL@DV?$ChTraitsCRT@D@ATL@@@@@ATL@@QAE@ABV01@@Z
  0060b	8d 45 90	 lea	 eax, DWORD PTR $T11[ebp]
  0060e	50		 push	 eax
  0060f	8d 4b f8	 lea	 ecx, DWORD PTR [ebx-8]
  00612	e8 00 00 00 00	 call	 ?TokenizeEx@CChartPeriodSummaryAddInImp@@QAE?AV?$CStringT@DV?$StrTraitMFC_DLL@DV?$ChTraitsCRT@D@ATL@@@@@ATL@@V23@PBDAAH@Z ; CChartPeriodSummaryAddInImp::TokenizeEx
  00617	ff 30		 push	 DWORD PTR [eax]
  00619	ff 15 00 00 00
	00		 call	 DWORD PTR __imp__atof
  0061f	83 c4 04	 add	 esp, 4
  00622	8d 4d 90	 lea	 ecx, DWORD PTR $T11[ebp]
  00625	dd 5f 10	 fstp	 QWORD PTR [edi+16]
  00628	ff 15 00 00 00
	00		 call	 DWORD PTR __imp_??1?$CStringT@DV?$StrTraitMFC_DLL@DV?$ChTraitsCRT@D@ATL@@@@@ATL@@QAE@XZ

; 1716 : 		pLine->m_dEClicked = atof(TokenizeEx(strLineInfo, ",", iStart2));

  0062e	8d 45 f0	 lea	 eax, DWORD PTR _iStart2$31[ebp]
  00631	50		 push	 eax
  00632	68 00 00 00 00	 push	 OFFSET ??_C@_01IHBHIGKO@?0@
  00637	51		 push	 ecx
  00638	8d 45 08	 lea	 eax, DWORD PTR _strLineInfo$[ebp]
  0063b	8b cc		 mov	 ecx, esp
  0063d	50		 push	 eax
  0063e	ff 15 00 00 00
	00		 call	 DWORD PTR __imp_??0?$CStringT@DV?$StrTraitMFC_DLL@DV?$ChTraitsCRT@D@ATL@@@@@ATL@@QAE@ABV01@@Z
  00644	8d 45 8c	 lea	 eax, DWORD PTR $T10[ebp]
  00647	50		 push	 eax
  00648	8d 4b f8	 lea	 ecx, DWORD PTR [ebx-8]
  0064b	e8 00 00 00 00	 call	 ?TokenizeEx@CChartPeriodSummaryAddInImp@@QAE?AV?$CStringT@DV?$StrTraitMFC_DLL@DV?$ChTraitsCRT@D@ATL@@@@@ATL@@V23@PBDAAH@Z ; CChartPeriodSummaryAddInImp::TokenizeEx
  00650	ff 30		 push	 DWORD PTR [eax]
  00652	ff 15 00 00 00
	00		 call	 DWORD PTR __imp__atof
  00658	83 c4 04	 add	 esp, 4
  0065b	8d 4d 8c	 lea	 ecx, DWORD PTR $T10[ebp]
  0065e	dd 5f 08	 fstp	 QWORD PTR [edi+8]
  00661	ff 15 00 00 00
	00		 call	 DWORD PTR __imp_??1?$CStringT@DV?$StrTraitMFC_DLL@DV?$ChTraitsCRT@D@ATL@@@@@ATL@@QAE@XZ

; 1717 : 		pLine->m_clrLineColor = atol(TokenizeEx(strLineInfo, ",", iStart2));

  00667	8d 45 f0	 lea	 eax, DWORD PTR _iStart2$31[ebp]
  0066a	50		 push	 eax
  0066b	68 00 00 00 00	 push	 OFFSET ??_C@_01IHBHIGKO@?0@
  00670	51		 push	 ecx
  00671	8d 45 08	 lea	 eax, DWORD PTR _strLineInfo$[ebp]
  00674	8b cc		 mov	 ecx, esp
  00676	50		 push	 eax
  00677	ff 15 00 00 00
	00		 call	 DWORD PTR __imp_??0?$CStringT@DV?$StrTraitMFC_DLL@DV?$ChTraitsCRT@D@ATL@@@@@ATL@@QAE@ABV01@@Z
  0067d	8d 45 88	 lea	 eax, DWORD PTR $T9[ebp]
  00680	50		 push	 eax
  00681	8d 4b f8	 lea	 ecx, DWORD PTR [ebx-8]
  00684	e8 00 00 00 00	 call	 ?TokenizeEx@CChartPeriodSummaryAddInImp@@QAE?AV?$CStringT@DV?$StrTraitMFC_DLL@DV?$ChTraitsCRT@D@ATL@@@@@ATL@@V23@PBDAAH@Z ; CChartPeriodSummaryAddInImp::TokenizeEx
  00689	ff 30		 push	 DWORD PTR [eax]
  0068b	ff 15 00 00 00
	00		 call	 DWORD PTR __imp__atol
  00691	83 c4 04	 add	 esp, 4
  00694	89 87 50 01 00
	00		 mov	 DWORD PTR [edi+336], eax
  0069a	8d 4d 88	 lea	 ecx, DWORD PTR $T9[ebp]
  0069d	ff 15 00 00 00
	00		 call	 DWORD PTR __imp_??1?$CStringT@DV?$StrTraitMFC_DLL@DV?$ChTraitsCRT@D@ATL@@@@@ATL@@QAE@XZ

; 1718 : 		pLine->m_nRowCnt = atoi(TokenizeEx(strLineInfo, ",", iStart2)); 

  006a3	8d 45 f0	 lea	 eax, DWORD PTR _iStart2$31[ebp]
  006a6	50		 push	 eax
  006a7	68 00 00 00 00	 push	 OFFSET ??_C@_01IHBHIGKO@?0@
  006ac	51		 push	 ecx
  006ad	8d 45 08	 lea	 eax, DWORD PTR _strLineInfo$[ebp]
  006b0	8b cc		 mov	 ecx, esp
  006b2	50		 push	 eax
  006b3	ff 15 00 00 00
	00		 call	 DWORD PTR __imp_??0?$CStringT@DV?$StrTraitMFC_DLL@DV?$ChTraitsCRT@D@ATL@@@@@ATL@@QAE@ABV01@@Z
  006b9	8d 45 84	 lea	 eax, DWORD PTR $T8[ebp]
  006bc	50		 push	 eax
  006bd	8d 4b f8	 lea	 ecx, DWORD PTR [ebx-8]
  006c0	e8 00 00 00 00	 call	 ?TokenizeEx@CChartPeriodSummaryAddInImp@@QAE?AV?$CStringT@DV?$StrTraitMFC_DLL@DV?$ChTraitsCRT@D@ATL@@@@@ATL@@V23@PBDAAH@Z ; CChartPeriodSummaryAddInImp::TokenizeEx
  006c5	ff 30		 push	 DWORD PTR [eax]
  006c7	ff 15 00 00 00
	00		 call	 DWORD PTR __imp__atoi
  006cd	83 c4 04	 add	 esp, 4
  006d0	89 87 14 01 00
	00		 mov	 DWORD PTR [edi+276], eax
  006d6	8d 4d 84	 lea	 ecx, DWORD PTR $T8[ebp]
  006d9	ff 15 00 00 00
	00		 call	 DWORD PTR __imp_??1?$CStringT@DV?$StrTraitMFC_DLL@DV?$ChTraitsCRT@D@ATL@@@@@ATL@@QAE@XZ

; 1719 : 		pLine->m_nTextAlignment = atoi(TokenizeEx(strLineInfo, ",", iStart2)); 

  006df	8d 45 f0	 lea	 eax, DWORD PTR _iStart2$31[ebp]
  006e2	50		 push	 eax
  006e3	68 00 00 00 00	 push	 OFFSET ??_C@_01IHBHIGKO@?0@
  006e8	51		 push	 ecx
  006e9	8d 45 08	 lea	 eax, DWORD PTR _strLineInfo$[ebp]
  006ec	8b cc		 mov	 ecx, esp
  006ee	50		 push	 eax
  006ef	ff 15 00 00 00
	00		 call	 DWORD PTR __imp_??0?$CStringT@DV?$StrTraitMFC_DLL@DV?$ChTraitsCRT@D@ATL@@@@@ATL@@QAE@ABV01@@Z
  006f5	8d 45 80	 lea	 eax, DWORD PTR $T7[ebp]
  006f8	50		 push	 eax
  006f9	8d 4b f8	 lea	 ecx, DWORD PTR [ebx-8]
  006fc	e8 00 00 00 00	 call	 ?TokenizeEx@CChartPeriodSummaryAddInImp@@QAE?AV?$CStringT@DV?$StrTraitMFC_DLL@DV?$ChTraitsCRT@D@ATL@@@@@ATL@@V23@PBDAAH@Z ; CChartPeriodSummaryAddInImp::TokenizeEx
  00701	ff 30		 push	 DWORD PTR [eax]
  00703	ff 15 00 00 00
	00		 call	 DWORD PTR __imp__atoi
  00709	83 c4 04	 add	 esp, 4
  0070c	89 87 44 01 00
	00		 mov	 DWORD PTR [edi+324], eax
  00712	8d 4d 80	 lea	 ecx, DWORD PTR $T7[ebp]
  00715	ff 15 00 00 00
	00		 call	 DWORD PTR __imp_??1?$CStringT@DV?$StrTraitMFC_DLL@DV?$ChTraitsCRT@D@ATL@@@@@ATL@@QAE@XZ

; 1720 : 		// 20081007 JS.Kim	 
; 1721 : 		pLine->m_nTimeDiff = atoi(TokenizeEx(strLineInfo, ",", iStart2));	

  0071b	8d 45 f0	 lea	 eax, DWORD PTR _iStart2$31[ebp]
  0071e	50		 push	 eax
  0071f	68 00 00 00 00	 push	 OFFSET ??_C@_01IHBHIGKO@?0@
  00724	51		 push	 ecx
  00725	8d 45 08	 lea	 eax, DWORD PTR _strLineInfo$[ebp]
  00728	8b cc		 mov	 ecx, esp
  0072a	50		 push	 eax
  0072b	ff 15 00 00 00
	00		 call	 DWORD PTR __imp_??0?$CStringT@DV?$StrTraitMFC_DLL@DV?$ChTraitsCRT@D@ATL@@@@@ATL@@QAE@ABV01@@Z
  00731	8d 85 7c ff ff
	ff		 lea	 eax, DWORD PTR $T6[ebp]
  00737	50		 push	 eax
  00738	8d 4b f8	 lea	 ecx, DWORD PTR [ebx-8]
  0073b	e8 00 00 00 00	 call	 ?TokenizeEx@CChartPeriodSummaryAddInImp@@QAE?AV?$CStringT@DV?$StrTraitMFC_DLL@DV?$ChTraitsCRT@D@ATL@@@@@ATL@@V23@PBDAAH@Z ; CChartPeriodSummaryAddInImp::TokenizeEx
  00740	ff 30		 push	 DWORD PTR [eax]
  00742	ff 15 00 00 00
	00		 call	 DWORD PTR __imp__atoi
  00748	83 c4 04	 add	 esp, 4
  0074b	89 87 e0 01 00
	00		 mov	 DWORD PTR [edi+480], eax
  00751	8d 8d 7c ff ff
	ff		 lea	 ecx, DWORD PTR $T6[ebp]
  00757	ff 15 00 00 00
	00		 call	 DWORD PTR __imp_??1?$CStringT@DV?$StrTraitMFC_DLL@DV?$ChTraitsCRT@D@ATL@@@@@ATL@@QAE@XZ

; 1722 : 		// (2009/10/15 - Seung-Won, Bae) Save and Load the Block Position.
; 1723 : 		pLine->m_nRow = atoi(TokenizeEx(strLineInfo, ",", iStart2));

  0075d	8d 45 f0	 lea	 eax, DWORD PTR _iStart2$31[ebp]
  00760	50		 push	 eax
  00761	68 00 00 00 00	 push	 OFFSET ??_C@_01IHBHIGKO@?0@
  00766	51		 push	 ecx
  00767	8d 45 08	 lea	 eax, DWORD PTR _strLineInfo$[ebp]
  0076a	8b cc		 mov	 ecx, esp
  0076c	50		 push	 eax
  0076d	ff 15 00 00 00
	00		 call	 DWORD PTR __imp_??0?$CStringT@DV?$StrTraitMFC_DLL@DV?$ChTraitsCRT@D@ATL@@@@@ATL@@QAE@ABV01@@Z
  00773	8d 85 78 ff ff
	ff		 lea	 eax, DWORD PTR $T5[ebp]
  00779	50		 push	 eax
  0077a	8d 4b f8	 lea	 ecx, DWORD PTR [ebx-8]
  0077d	e8 00 00 00 00	 call	 ?TokenizeEx@CChartPeriodSummaryAddInImp@@QAE?AV?$CStringT@DV?$StrTraitMFC_DLL@DV?$ChTraitsCRT@D@ATL@@@@@ATL@@V23@PBDAAH@Z ; CChartPeriodSummaryAddInImp::TokenizeEx
  00782	ff 30		 push	 DWORD PTR [eax]
  00784	ff 15 00 00 00
	00		 call	 DWORD PTR __imp__atoi
  0078a	83 c4 04	 add	 esp, 4
  0078d	89 87 f8 01 00
	00		 mov	 DWORD PTR [edi+504], eax
  00793	8d 8d 78 ff ff
	ff		 lea	 ecx, DWORD PTR $T5[ebp]
  00799	ff 15 00 00 00
	00		 call	 DWORD PTR __imp_??1?$CStringT@DV?$StrTraitMFC_DLL@DV?$ChTraitsCRT@D@ATL@@@@@ATL@@QAE@XZ

; 1724 : 		pLine->m_nCol = atoi(TokenizeEx(strLineInfo, ",", iStart2));

  0079f	8d 45 f0	 lea	 eax, DWORD PTR _iStart2$31[ebp]
  007a2	50		 push	 eax
  007a3	68 00 00 00 00	 push	 OFFSET ??_C@_01IHBHIGKO@?0@
  007a8	51		 push	 ecx
  007a9	8d 45 08	 lea	 eax, DWORD PTR _strLineInfo$[ebp]
  007ac	8b cc		 mov	 ecx, esp
  007ae	50		 push	 eax
  007af	ff 15 00 00 00
	00		 call	 DWORD PTR __imp_??0?$CStringT@DV?$StrTraitMFC_DLL@DV?$ChTraitsCRT@D@ATL@@@@@ATL@@QAE@ABV01@@Z
  007b5	8d 85 74 ff ff
	ff		 lea	 eax, DWORD PTR $T4[ebp]
  007bb	50		 push	 eax
  007bc	8d 4b f8	 lea	 ecx, DWORD PTR [ebx-8]
  007bf	e8 00 00 00 00	 call	 ?TokenizeEx@CChartPeriodSummaryAddInImp@@QAE?AV?$CStringT@DV?$StrTraitMFC_DLL@DV?$ChTraitsCRT@D@ATL@@@@@ATL@@V23@PBDAAH@Z ; CChartPeriodSummaryAddInImp::TokenizeEx
  007c4	ff 30		 push	 DWORD PTR [eax]
  007c6	ff 15 00 00 00
	00		 call	 DWORD PTR __imp__atoi
  007cc	83 c4 04	 add	 esp, 4
  007cf	89 87 fc 01 00
	00		 mov	 DWORD PTR [edi+508], eax
  007d5	8d 8d 74 ff ff
	ff		 lea	 ecx, DWORD PTR $T4[ebp]
  007db	ff 15 00 00 00
	00		 call	 DWORD PTR __imp_??1?$CStringT@DV?$StrTraitMFC_DLL@DV?$ChTraitsCRT@D@ATL@@@@@ATL@@QAE@XZ

; 1725 : 	
; 1726 : 		m_LineList.AddTail(pLine);

  007e1	57		 push	 edi
  007e2	8d 8b 84 00 00
	00		 lea	 ecx, DWORD PTR [ebx+132]
  007e8	e8 00 00 00 00	 call	 ?AddTail@CObList@@QAEPAU__POSITION@@PAVCObject@@@Z ; CObList::AddTail

; 1727 : 
; 1728 : 		strLineInfoPrev = strLineInfo;

  007ed	8d 45 08	 lea	 eax, DWORD PTR _strLineInfo$[ebp]
  007f0	50		 push	 eax
  007f1	8d 4d e8	 lea	 ecx, DWORD PTR _strLineInfoPrev$[ebp]
  007f4	ff 15 00 00 00
	00		 call	 DWORD PTR __imp_??4?$CStringT@DV?$StrTraitMFC_DLL@DV?$ChTraitsCRT@D@ATL@@@@@ATL@@QAEAAV01@ABV01@@Z
  007fa	8d 7b 38	 lea	 edi, DWORD PTR [ebx+56]
$LN156@OnLoadEnvi:

; 1678 : 
; 1679 : 	while(iStart >= 0)

  007fd	85 f6		 test	 esi, esi
  007ff	8d 73 f8	 lea	 esi, DWORD PTR [ebx-8]
  00802	0f 89 be f8 ff
	ff		 jns	 $LL4@OnLoadEnvi
$LN151@OnLoadEnvi:

; 1729 : 	}
; 1730 : 
; 1731 : 	//m_pIChartOCX->InvalidateControl();
; 1732 : 	if(m_nCommandType == 0)

  00808	83 7b 68 00	 cmp	 DWORD PTR [ebx+104], 0
  0080c	75 07		 jne	 SHORT $LN10@OnLoadEnvi

; 1733 : 		m_nCommandType = 2;

  0080e	c7 43 68 02 00
	00 00		 mov	 DWORD PTR [ebx+104], 2
$LN10@OnLoadEnvi:

; 1734 : //	m_pIChartOCX->OnToolStateChanged( CToolOptionInfo::T_TOOL_PERIOD_SUMMARY, FALSE );
; 1735 : }

  00815	8d 4d e8	 lea	 ecx, DWORD PTR _strLineInfoPrev$[ebp]
  00818	ff 15 00 00 00
	00		 call	 DWORD PTR __imp_??1?$CStringT@DV?$StrTraitMFC_DLL@DV?$ChTraitsCRT@D@ATL@@@@@ATL@@QAE@XZ
  0081e	8d 4d 08	 lea	 ecx, DWORD PTR _strLineInfo$[ebp]
  00821	ff 15 00 00 00
	00		 call	 DWORD PTR __imp_??1?$CStringT@DV?$StrTraitMFC_DLL@DV?$ChTraitsCRT@D@ATL@@@@@ATL@@QAE@XZ
$LN1@OnLoadEnvi:
  00827	8b 4d f4	 mov	 ecx, DWORD PTR __$EHRec$[ebp]
  0082a	64 89 0d 00 00
	00 00		 mov	 DWORD PTR fs:0, ecx
  00831	59		 pop	 ecx
  00832	5f		 pop	 edi
  00833	5e		 pop	 esi
  00834	5b		 pop	 ebx
  00835	8b e5		 mov	 esp, ebp
  00837	5d		 pop	 ebp
  00838	c2 04 00	 ret	 4
_TEXT	ENDS
;	COMDAT text$x
text$x	SEGMENT
__unwindfunclet$?OnLoadEnvironment@CChartPeriodSummaryAddInImp@@MAEXPAUIPropertyMap@@@Z$0:
  00000	8d 4d 08	 lea	 ecx, DWORD PTR _strLineInfo$[ebp]
  00003	ff 25 00 00 00
	00		 jmp	 DWORD PTR __imp_??1?$CStringT@DV?$StrTraitMFC_DLL@DV?$ChTraitsCRT@D@ATL@@@@@ATL@@QAE@XZ
__unwindfunclet$?OnLoadEnvironment@CChartPeriodSummaryAddInImp@@MAEXPAUIPropertyMap@@@Z$1:
  00009	8d 4d e8	 lea	 ecx, DWORD PTR _strLineInfoPrev$[ebp]
  0000c	ff 25 00 00 00
	00		 jmp	 DWORD PTR __imp_??1?$CStringT@DV?$StrTraitMFC_DLL@DV?$ChTraitsCRT@D@ATL@@@@@ATL@@QAE@XZ
__unwindfunclet$?OnLoadEnvironment@CChartPeriodSummaryAddInImp@@MAEXPAUIPropertyMap@@@Z$3:
  00012	8d 4d dc	 lea	 ecx, DWORD PTR $T30[ebp]
  00015	ff 25 00 00 00
	00		 jmp	 DWORD PTR __imp_??1?$CStringT@DV?$StrTraitMFC_DLL@DV?$ChTraitsCRT@D@ATL@@@@@ATL@@QAE@XZ
__unwindfunclet$?OnLoadEnvironment@CChartPeriodSummaryAddInImp@@MAEXPAUIPropertyMap@@@Z$4:
  0001b	8b 85 6c ff ff
	ff		 mov	 eax, DWORD PTR $T2[ebp]
  00021	50		 push	 eax
  00022	e8 00 00 00 00	 call	 ??3CObject@@SGXPAX@Z	; CObject::operator delete
  00027	c3		 ret	 0
  00028	cc		 int	 3
  00029	cc		 int	 3
  0002a	cc		 int	 3
  0002b	cc		 int	 3
  0002c	cc		 int	 3
__ehhandler$?OnLoadEnvironment@CChartPeriodSummaryAddInImp@@MAEXPAUIPropertyMap@@@Z:
  0002d	90		 npad	 1
  0002e	90		 npad	 1
  0002f	8b 54 24 08	 mov	 edx, DWORD PTR [esp+8]
  00033	8d 42 0c	 lea	 eax, DWORD PTR [edx+12]
  00036	8b 8a 68 ff ff
	ff		 mov	 ecx, DWORD PTR [edx-152]
  0003c	33 c8		 xor	 ecx, eax
  0003e	e8 00 00 00 00	 call	 @__security_check_cookie@4
  00043	b8 00 00 00 00	 mov	 eax, OFFSET __ehfuncinfo$?OnLoadEnvironment@CChartPeriodSummaryAddInImp@@MAEXPAUIPropertyMap@@@Z
  00048	e9 00 00 00 00	 jmp	 ___CxxFrameHandler3
text$x	ENDS
?OnLoadEnvironment@CChartPeriodSummaryAddInImp@@MAEXPAUIPropertyMap@@@Z ENDP ; CChartPeriodSummaryAddInImp::OnLoadEnvironment
; Function compile flags: /Ogtp
; File D:\git\src\IBK\IBK_DRFN\ProjSrc\SrcChartEx\ChartAddIn\ChartPeriodSummaryAddIn\ChartPeriodSummaryAddInImp.cpp
; File C:\Program Files (x86)\Microsoft Visual Studio\2019\Community\VC\Tools\MSVC\14.29.30133\atlmfc\include\afxcoll.inl
; File D:\git\src\IBK\IBK_DRFN\ProjSrc\SrcChartEx\ChartAddIn\ChartPeriodSummaryAddIn\ChartPeriodSummaryAddInImp.cpp
;	COMDAT ?OnToolCommand@CChartPeriodSummaryAddInImp@@MAEXHH@Z
_TEXT	SEGMENT
_p_nToolType$ = 8					; size = 4
_p_nCmdOption$ = 12					; size = 4
?OnToolCommand@CChartPeriodSummaryAddInImp@@MAEXHH@Z PROC ; CChartPeriodSummaryAddInImp::OnToolCommand, COMDAT
; _this$ = ecx

; 92   : {

  00000	55		 push	 ebp
  00001	8b ec		 mov	 ebp, esp

; 93   : 	CToolOptionInfo::TOOLOPTION eToolOption = (CToolOptionInfo::TOOLOPTION)p_nToolType;
; 94   : 	
; 95   : 	if( eToolOption == CToolOptionInfo::T_DELETE_ALL )

  00003	8b 45 08	 mov	 eax, DWORD PTR _p_nToolType$[ebp]
  00006	57		 push	 edi
  00007	8b f9		 mov	 edi, ecx
  00009	83 f8 3d	 cmp	 eax, 61			; 0000003dH
  0000c	75 37		 jne	 SHORT $LN6@OnToolComm

; 96   : 	{
; 97   : 		POSITION pos = m_LineList.GetHeadPosition();

  0000e	56		 push	 esi
  0000f	8b b7 88 00 00
	00		 mov	 esi, DWORD PTR [edi+136]

; 98   : 		while (pos)

  00015	85 f6		 test	 esi, esi
  00017	74 1b		 je	 SHORT $LN3@OnToolComm
  00019	0f 1f 80 00 00
	00 00		 npad	 7
$LL2@OnToolComm:

; 101  : 			delete pLine;

  00020	8b 4e 08	 mov	 ecx, DWORD PTR [esi+8]
; File C:\Program Files (x86)\Microsoft Visual Studio\2019\Community\VC\Tools\MSVC\14.29.30133\atlmfc\include\afxcoll.inl

; 432  : 		rPosition = (POSITION) pNode->pNext;

  00023	8b 36		 mov	 esi, DWORD PTR [esi]
; File D:\git\src\IBK\IBK_DRFN\ProjSrc\SrcChartEx\ChartAddIn\ChartPeriodSummaryAddIn\ChartPeriodSummaryAddInImp.cpp

; 101  : 			delete pLine;

  00025	85 c9		 test	 ecx, ecx
  00027	74 07		 je	 SHORT $LN19@OnToolComm
  00029	8b 01		 mov	 eax, DWORD PTR [ecx]
  0002b	6a 01		 push	 1
  0002d	ff 50 04	 call	 DWORD PTR [eax+4]
$LN19@OnToolComm:

; 98   : 		while (pos)

  00030	85 f6		 test	 esi, esi
  00032	75 ec		 jne	 SHORT $LL2@OnToolComm
$LN3@OnToolComm:

; 102  : 			pLine = NULL;
; 103  : 		}
; 104  : 		m_LineList.RemoveAll();

  00034	8d 8f 84 00 00
	00		 lea	 ecx, DWORD PTR [edi+132]
  0003a	e8 00 00 00 00	 call	 ?RemoveAll@CObList@@QAEXXZ ; CObList::RemoveAll
  0003f	5e		 pop	 esi
  00040	5f		 pop	 edi

; 154  : 		return;
; 155  : 	}
; 156  : }

  00041	5d		 pop	 ebp
  00042	c2 08 00	 ret	 8
$LN6@OnToolComm:

; 105  : 		return;
; 106  : 	}
; 107  : 	
; 108  : 	if(eToolOption == CToolOptionInfo::T_TOOL_PERIOD_SUMMARY)

  00045	83 f8 67	 cmp	 eax, 103		; 00000067H
  00048	75 39		 jne	 SHORT $LN7@OnToolComm

; 109  : 	{
; 110  : 		if(p_nCmdOption != 3)

  0004a	8b 45 0c	 mov	 eax, DWORD PTR _p_nCmdOption$[ebp]
  0004d	83 f8 03	 cmp	 eax, 3
  00050	74 07		 je	 SHORT $LN29@OnToolComm

; 111  : 			m_nCommandType = p_nCmdOption;

  00052	89 47 68	 mov	 DWORD PTR [edi+104], eax
  00055	8b c8		 mov	 ecx, eax
  00057	eb 03		 jmp	 SHORT $LN8@OnToolComm
$LN29@OnToolComm:
  00059	8b 4f 68	 mov	 ecx, DWORD PTR [edi+104]
$LN8@OnToolComm:

; 112  : 		switch(m_nCommandType)

  0005c	83 e9 01	 sub	 ecx, 1
  0005f	0f 85 a2 00 00
	00		 jne	 $LN17@OnToolComm

; 113  : 		{
; 114  : 		case 1:			// draw mode
; 115  : 			{
; 116  : 				m_nCommandType = p_nCmdOption;
; 117  : //				int		nR, nC ;
; 118  : //				if( !GetChartBasicData(m_nStartIndex, m_nEndIndex, nR, nC, m_rctBlockRegion, m_rctGraphRegion))
; 119  : //					return FALSE;
; 120  : 
; 121  : 				m_pIChartOCX->OnToolStateChanged( CToolOptionInfo::T_TOOL_PERIOD_SUMMARY, TRUE );	

  00065	8b 4f 04	 mov	 ecx, DWORD PTR [edi+4]
  00068	89 47 68	 mov	 DWORD PTR [edi+104], eax
  0006b	5f		 pop	 edi
  0006c	8b 01		 mov	 eax, DWORD PTR [ecx]
  0006e	c7 45 0c 01 00
	00 00		 mov	 DWORD PTR _p_nCmdOption$[ebp], 1
  00075	c7 45 08 67 00
	00 00		 mov	 DWORD PTR _p_nToolType$[ebp], 103 ; 00000067H

; 154  : 		return;
; 155  : 	}
; 156  : }

  0007c	5d		 pop	 ebp

; 113  : 		{
; 114  : 		case 1:			// draw mode
; 115  : 			{
; 116  : 				m_nCommandType = p_nCmdOption;
; 117  : //				int		nR, nC ;
; 118  : //				if( !GetChartBasicData(m_nStartIndex, m_nEndIndex, nR, nC, m_rctBlockRegion, m_rctGraphRegion))
; 119  : //					return FALSE;
; 120  : 
; 121  : 				m_pIChartOCX->OnToolStateChanged( CToolOptionInfo::T_TOOL_PERIOD_SUMMARY, TRUE );	

  0007d	ff a0 ac 01 00
	00		 jmp	 DWORD PTR [eax+428]
$LN7@OnToolComm:

; 122  : 			}
; 123  : 			break;
; 124  : 		case 2:			// modify mode
; 125  : 			break;
; 126  : 		}
; 127  : 		return;
; 128  : 	}
; 129  : 
; 130  : 	if(eToolOption == CToolOptionInfo::T_TOOL_SELECTION)

  00083	83 f8 20	 cmp	 eax, 32			; 00000020H
  00086	75 45		 jne	 SHORT $LN11@OnToolComm

; 131  : 	{
; 132  : 		if( p_nCmdOption == CToolOptionInfo::T_TOOL_PERIOD_SUMMARY || p_nCmdOption == CToolOptionInfo::T_DELETE_INORDER) return;

  00088	8b 45 0c	 mov	 eax, DWORD PTR _p_nCmdOption$[ebp]
  0008b	83 f8 67	 cmp	 eax, 103		; 00000067H
  0008e	74 77		 je	 SHORT $LN17@OnToolComm
  00090	83 f8 3c	 cmp	 eax, 60			; 0000003cH
  00093	74 72		 je	 SHORT $LN17@OnToolComm

; 133  : 		m_nCommandType = 2;
; 134  : 		m_pIChartOCX->OnToolStateChanged( CToolOptionInfo::T_TOOL_PERIOD_SUMMARY, FALSE );

  00095	8b 4f 04	 mov	 ecx, DWORD PTR [edi+4]
  00098	c7 47 68 02 00
	00 00		 mov	 DWORD PTR [edi+104], 2
  0009f	6a 00		 push	 0
  000a1	6a 67		 push	 103			; 00000067H
  000a3	8b 01		 mov	 eax, DWORD PTR [ecx]
  000a5	ff 90 ac 01 00
	00		 call	 DWORD PTR [eax+428]

; 135  : 		if(m_pCurSelectedLine)

  000ab	8b 47 78	 mov	 eax, DWORD PTR [edi+120]
  000ae	85 c0		 test	 eax, eax
  000b0	74 55		 je	 SHORT $LN17@OnToolComm

; 136  : 		{
; 137  : 			m_pCurSelectedLine->m_bSelected = FALSE;

  000b2	c7 40 20 00 00
	00 00		 mov	 DWORD PTR [eax+32], 0

; 138  : 			m_pCurSelectedLine = NULL;
; 139  : 			m_pIChartOCX->InvalidateControl();

  000b9	8b 4f 04	 mov	 ecx, DWORD PTR [edi+4]
  000bc	c7 47 78 00 00
	00 00		 mov	 DWORD PTR [edi+120], 0
  000c3	8b 01		 mov	 eax, DWORD PTR [ecx]
  000c5	ff 50 38	 call	 DWORD PTR [eax+56]
  000c8	5f		 pop	 edi

; 154  : 		return;
; 155  : 	}
; 156  : }

  000c9	5d		 pop	 ebp
  000ca	c2 08 00	 ret	 8
$LN11@OnToolComm:

; 140  : 		}
; 141  : 		return;
; 142  : 	}
; 143  : 
; 144  : 	if(eToolOption == CToolOptionInfo::T_ALL_TOOL_TRUE_QUERY)

  000cd	3d fc 03 00 00	 cmp	 eax, 1020		; 000003fcH
  000d2	75 25		 jne	 SHORT $LN15@OnToolComm

; 145  : 	{
; 146  : 		if( (m_pIChartOCX != NULL) && (m_nCommandType == 1))

  000d4	8b 4f 04	 mov	 ecx, DWORD PTR [edi+4]
  000d7	85 c9		 test	 ecx, ecx
  000d9	74 2c		 je	 SHORT $LN17@OnToolComm
  000db	83 7f 68 01	 cmp	 DWORD PTR [edi+104], 1
  000df	75 26		 jne	 SHORT $LN17@OnToolComm

; 147  : 			m_pIChartOCX->OnToolStateChanged( CToolOptionInfo::T_TOOL_PERIOD_SUMMARY, TRUE );	

  000e1	8b 01		 mov	 eax, DWORD PTR [ecx]
  000e3	5f		 pop	 edi
  000e4	c7 45 0c 01 00
	00 00		 mov	 DWORD PTR _p_nCmdOption$[ebp], 1
  000eb	c7 45 08 67 00
	00 00		 mov	 DWORD PTR _p_nToolType$[ebp], 103 ; 00000067H

; 154  : 		return;
; 155  : 	}
; 156  : }

  000f2	5d		 pop	 ebp

; 147  : 			m_pIChartOCX->OnToolStateChanged( CToolOptionInfo::T_TOOL_PERIOD_SUMMARY, TRUE );	

  000f3	ff a0 ac 01 00
	00		 jmp	 DWORD PTR [eax+428]
$LN15@OnToolComm:

; 148  : 		return;
; 149  : 	}
; 150  : 	
; 151  : 	if(eToolOption == CToolOptionInfo::T_ALL_TOOL_RESET_STATE)

  000f9	3d fd 03 00 00	 cmp	 eax, 1021		; 000003fdH
  000fe	75 07		 jne	 SHORT $LN17@OnToolComm

; 152  : 	{
; 153  : 		m_nCommandType = 2;

  00100	c7 47 68 02 00
	00 00		 mov	 DWORD PTR [edi+104], 2
$LN17@OnToolComm:
  00107	5f		 pop	 edi

; 154  : 		return;
; 155  : 	}
; 156  : }

  00108	5d		 pop	 ebp
  00109	c2 08 00	 ret	 8
?OnToolCommand@CChartPeriodSummaryAddInImp@@MAEXHH@Z ENDP ; CChartPeriodSummaryAddInImp::OnToolCommand
_TEXT	ENDS
; Function compile flags: /Ogtp
; File D:\git\src\IBK\IBK_DRFN\ProjSrc\SrcChartEx\ChartAddIn\ChartPeriodSummaryAddIn\ChartPeriodSummaryAddInImp.cpp
; File C:\Program Files (x86)\Microsoft Visual Studio\2019\Community\VC\Tools\MSVC\14.29.30133\atlmfc\include\afxwin1.inl
; File D:\git\src\IBK\IBK_DRFN\ProjSrc\SrcChartEx\ChartAddIn\ChartPeriodSummaryAddIn\Include_Chart\Dll_Load\IMetaTable.h
; File C:\Program Files (x86)\Microsoft Visual Studio\2019\Community\VC\Tools\MSVC\14.29.30133\atlmfc\include\afxwin1.inl
; File D:\git\src\IBK\IBK_DRFN\ProjSrc\SrcChartEx\ChartAddIn\ChartPeriodSummaryAddIn\ChartPeriodSummaryAddInImp.cpp
; File C:\Program Files (x86)\Microsoft Visual Studio\2019\Community\VC\Tools\MSVC\14.29.30133\atlmfc\include\afxcoll.inl
; File D:\git\src\IBK\IBK_DRFN\ProjSrc\SrcChartEx\ChartAddIn\ChartPeriodSummaryAddIn\ChartPeriodSummaryAddInImp.cpp
; File D:\git\src\IBK\IBK_DRFN\ProjSrc\SrcChartEx\ChartAddIn\ChartPeriodSummaryAddIn\Include_Chart\Dll_Load\IMetaTable.h
; File C:\Program Files (x86)\Microsoft Visual Studio\2019\Community\VC\Tools\MSVC\14.29.30133\atlmfc\include\afxwin1.inl
; File D:\git\src\IBK\IBK_DRFN\ProjSrc\SrcChartEx\ChartAddIn\ChartPeriodSummaryAddIn\ChartPeriodSummaryAddInImp.cpp
;	COMDAT ?OnResetChart@CChartPeriodSummaryAddInImp@@MAEXXZ
_TEXT	SEGMENT
___mlrs__$ = -16					; size = 4
__$EHRec$ = -12						; size = 12
?OnResetChart@CChartPeriodSummaryAddInImp@@MAEXXZ PROC	; CChartPeriodSummaryAddInImp::OnResetChart, COMDAT
; _this$ = ecx

; 183  : {

  00000	55		 push	 ebp
  00001	8b ec		 mov	 ebp, esp
  00003	6a ff		 push	 -1
  00005	68 00 00 00 00	 push	 __ehhandler$?OnResetChart@CChartPeriodSummaryAddInImp@@MAEXXZ
  0000a	64 a1 00 00 00
	00		 mov	 eax, DWORD PTR fs:0
  00010	50		 push	 eax
  00011	51		 push	 ecx
  00012	53		 push	 ebx
  00013	56		 push	 esi
  00014	57		 push	 edi
  00015	a1 00 00 00 00	 mov	 eax, DWORD PTR ___security_cookie
  0001a	33 c5		 xor	 eax, ebp
  0001c	50		 push	 eax
  0001d	8d 45 f4	 lea	 eax, DWORD PTR __$EHRec$[ebp]
  00020	64 a3 00 00 00
	00		 mov	 DWORD PTR fs:0, eax
  00026	8b d9		 mov	 ebx, ecx

; 184  : 	ML_SET_LANGUAGE_RES();

  00028	e8 00 00 00 00	 call	 ?AfxGetStaticModuleState@@YGPAVAFX_MODULE_STATE@@XZ ; AfxGetStaticModuleState
  0002d	b9 00 00 00 00	 mov	 ecx, OFFSET ?g_iMetaTable@@3VIMetaTable@@A ; g_iMetaTable
  00032	8b 40 08	 mov	 eax, DWORD PTR [eax+8]
  00035	50		 push	 eax
  00036	ff 73 0c	 push	 DWORD PTR [ebx+12]
  00039	e8 00 00 00 00	 call	 ?LoadResourceDLL@IMetaTable@@QAEPAUHINSTANCE__@@PAUHWND__@@PAU2@@Z ; IMetaTable::LoadResourceDLL
  0003e	8b f8		 mov	 edi, eax
; File C:\Program Files (x86)\Microsoft Visual Studio\2019\Community\VC\Tools\MSVC\14.29.30133\atlmfc\include\afxwin1.inl

; 25   : 		return afxCurrentResourceHandle; }

  00040	e8 00 00 00 00	 call	 ?AfxGetModuleState@@YGPAVAFX_MODULE_STATE@@XZ ; AfxGetModuleState
; File D:\git\src\IBK\IBK_DRFN\ProjSrc\SrcChartEx\ChartAddIn\ChartPeriodSummaryAddIn\Include_Chart\Dll_Load\IMetaTable.h

; 1032 : 		m_hInstance = AfxGetResourceHandle();

  00045	8b 70 0c	 mov	 esi, DWORD PTR [eax+12]
  00048	89 75 f0	 mov	 DWORD PTR ___mlrs__$[ebp], esi
; File C:\Program Files (x86)\Microsoft Visual Studio\2019\Community\VC\Tools\MSVC\14.29.30133\atlmfc\include\afxwin1.inl

; 27   : 	{ ASSERT(hInstResource != NULL); afxCurrentResourceHandle = hInstResource; }

  0004b	e8 00 00 00 00	 call	 ?AfxGetModuleState@@YGPAVAFX_MODULE_STATE@@XZ ; AfxGetModuleState
  00050	89 78 0c	 mov	 DWORD PTR [eax+12], edi
; File D:\git\src\IBK\IBK_DRFN\ProjSrc\SrcChartEx\ChartAddIn\ChartPeriodSummaryAddIn\ChartPeriodSummaryAddInImp.cpp

; 188  : 	POSITION pos = m_LineList.GetHeadPosition();

  00053	8b bb 88 00 00
	00		 mov	 edi, DWORD PTR [ebx+136]
  00059	c7 45 fc 00 00
	00 00		 mov	 DWORD PTR __$EHRec$[ebp+8], 0

; 189  : 	while (pos)

  00060	85 ff		 test	 edi, edi
  00062	74 14		 je	 SHORT $LN3@OnResetCha
$LL2@OnResetCha:

; 192  : 		delete pLine;

  00064	8b 4f 08	 mov	 ecx, DWORD PTR [edi+8]
; File C:\Program Files (x86)\Microsoft Visual Studio\2019\Community\VC\Tools\MSVC\14.29.30133\atlmfc\include\afxcoll.inl

; 432  : 		rPosition = (POSITION) pNode->pNext;

  00067	8b 3f		 mov	 edi, DWORD PTR [edi]
; File D:\git\src\IBK\IBK_DRFN\ProjSrc\SrcChartEx\ChartAddIn\ChartPeriodSummaryAddIn\ChartPeriodSummaryAddInImp.cpp

; 192  : 		delete pLine;

  00069	85 c9		 test	 ecx, ecx
  0006b	74 07		 je	 SHORT $LN6@OnResetCha
  0006d	8b 01		 mov	 eax, DWORD PTR [ecx]
  0006f	6a 01		 push	 1
  00071	ff 50 04	 call	 DWORD PTR [eax+4]
$LN6@OnResetCha:

; 189  : 	while (pos)

  00074	85 ff		 test	 edi, edi
  00076	75 ec		 jne	 SHORT $LL2@OnResetCha
$LN3@OnResetCha:

; 193  : 		pLine = NULL;
; 194  : 	}
; 195  : 	m_LineList.RemoveAll();

  00078	8d 8b 84 00 00
	00		 lea	 ecx, DWORD PTR [ebx+132]
  0007e	e8 00 00 00 00	 call	 ?RemoveAll@CObList@@QAEXXZ ; CObList::RemoveAll

; 196  : 
; 197  : 	m_nCommandType = 0;
; 198  : 
; 199  : 	if( m_pIChartOCX != NULL )

  00083	8b 4b 04	 mov	 ecx, DWORD PTR [ebx+4]
  00086	c7 43 68 00 00
	00 00		 mov	 DWORD PTR [ebx+104], 0
  0008d	85 c9		 test	 ecx, ecx
  0008f	74 0c		 je	 SHORT $LN4@OnResetCha

; 200  : 		m_pIChartOCX->OnToolStateChanged( CToolOptionInfo::T_TOOL_PERIOD_SUMMARY, FALSE );	

  00091	8b 01		 mov	 eax, DWORD PTR [ecx]
  00093	6a 00		 push	 0
  00095	6a 67		 push	 103			; 00000067H
  00097	ff 90 ac 01 00
	00		 call	 DWORD PTR [eax+428]
$LN4@OnResetCha:
; File D:\git\src\IBK\IBK_DRFN\ProjSrc\SrcChartEx\ChartAddIn\ChartPeriodSummaryAddIn\Include_Chart\Dll_Load\IMetaTable.h

; 1036 : 	{

  0009d	c7 45 fc 01 00
	00 00		 mov	 DWORD PTR __$EHRec$[ebp+8], 1
; File C:\Program Files (x86)\Microsoft Visual Studio\2019\Community\VC\Tools\MSVC\14.29.30133\atlmfc\include\afxwin1.inl

; 27   : 	{ ASSERT(hInstResource != NULL); afxCurrentResourceHandle = hInstResource; }

  000a4	e8 00 00 00 00	 call	 ?AfxGetModuleState@@YGPAVAFX_MODULE_STATE@@XZ ; AfxGetModuleState
  000a9	89 70 0c	 mov	 DWORD PTR [eax+12], esi
; File D:\git\src\IBK\IBK_DRFN\ProjSrc\SrcChartEx\ChartAddIn\ChartPeriodSummaryAddIn\ChartPeriodSummaryAddInImp.cpp

; 203  : }

  000ac	8b 4d f4	 mov	 ecx, DWORD PTR __$EHRec$[ebp]
  000af	64 89 0d 00 00
	00 00		 mov	 DWORD PTR fs:0, ecx
  000b6	59		 pop	 ecx
  000b7	5f		 pop	 edi
  000b8	5e		 pop	 esi
  000b9	5b		 pop	 ebx
  000ba	8b e5		 mov	 esp, ebp
  000bc	5d		 pop	 ebp
  000bd	c3		 ret	 0
_TEXT	ENDS
;	COMDAT text$x
text$x	SEGMENT
__unwindfunclet$?OnResetChart@CChartPeriodSummaryAddInImp@@MAEXXZ$0:
  00000	8d 4d f0	 lea	 ecx, DWORD PTR ___mlrs__$[ebp]
  00003	e9 00 00 00 00	 jmp	 ??1CMultiLanguageResourceSetter@@QAE@XZ ; CMultiLanguageResourceSetter::~CMultiLanguageResourceSetter
  00008	cc		 int	 3
  00009	cc		 int	 3
  0000a	cc		 int	 3
  0000b	cc		 int	 3
  0000c	cc		 int	 3
__ehhandler$?OnResetChart@CChartPeriodSummaryAddInImp@@MAEXXZ:
  0000d	90		 npad	 1
  0000e	90		 npad	 1
  0000f	8b 54 24 08	 mov	 edx, DWORD PTR [esp+8]
  00013	8d 42 0c	 lea	 eax, DWORD PTR [edx+12]
  00016	8b 4a ec	 mov	 ecx, DWORD PTR [edx-20]
  00019	33 c8		 xor	 ecx, eax
  0001b	e8 00 00 00 00	 call	 @__security_check_cookie@4
  00020	b8 00 00 00 00	 mov	 eax, OFFSET __ehfuncinfo$?OnResetChart@CChartPeriodSummaryAddInImp@@MAEXXZ
  00025	e9 00 00 00 00	 jmp	 ___CxxFrameHandler3
text$x	ENDS
?OnResetChart@CChartPeriodSummaryAddInImp@@MAEXXZ ENDP	; CChartPeriodSummaryAddInImp::OnResetChart
; Function compile flags: /Ogtp
; File D:\git\src\IBK\IBK_DRFN\ProjSrc\SrcChartEx\ChartAddIn\ChartPeriodSummaryAddIn\ChartPeriodSummaryAddInImp.cpp
; File C:\Program Files (x86)\Microsoft Visual Studio\2019\Community\VC\Tools\MSVC\14.29.30133\atlmfc\include\afxwin1.inl
; File D:\git\src\IBK\IBK_DRFN\ProjSrc\SrcChartEx\ChartAddIn\ChartPeriodSummaryAddIn\Include_Chart\Dll_Load\IMetaTable.h
; File C:\Program Files (x86)\Microsoft Visual Studio\2019\Community\VC\Tools\MSVC\14.29.30133\atlmfc\include\afxwin1.inl
; File D:\git\src\IBK\IBK_DRFN\ProjSrc\SrcChartEx\ChartAddIn\ChartPeriodSummaryAddIn\ChartPeriodSummaryAddInImp.cpp
; File C:\Program Files (x86)\Microsoft Visual Studio\2019\Community\VC\Tools\MSVC\14.29.30133\atlmfc\include\afxcoll.inl
; File D:\git\src\IBK\IBK_DRFN\ProjSrc\SrcChartEx\ChartAddIn\ChartPeriodSummaryAddIn\ChartPeriodSummaryAddInImp.cpp
; File D:\git\src\IBK\IBK_DRFN\ProjSrc\SrcChartEx\ChartAddIn\ChartPeriodSummaryAddIn\Include_Chart\Dll_Load\IMetaTable.h
; File C:\Program Files (x86)\Microsoft Visual Studio\2019\Community\VC\Tools\MSVC\14.29.30133\atlmfc\include\afxwin1.inl
; File D:\git\src\IBK\IBK_DRFN\ProjSrc\SrcChartEx\ChartAddIn\ChartPeriodSummaryAddIn\ChartPeriodSummaryAddInImp.cpp
;	COMDAT ?OnPacketDataMultiItem@CChartPeriodSummaryAddInImp@@MAEXPBD0H@Z
_TEXT	SEGMENT
___mlrs__$ = -16					; size = 4
__$EHRec$ = -12						; size = 12
_lpszRQ$ = 8						; size = 4
_p_szPacketNames$ = 12					; size = 4
_p_bWithReset$ = 16					; size = 4
?OnPacketDataMultiItem@CChartPeriodSummaryAddInImp@@MAEXPBD0H@Z PROC ; CChartPeriodSummaryAddInImp::OnPacketDataMultiItem, COMDAT
; _this$ = ecx

; 207  : {

  00000	55		 push	 ebp
  00001	8b ec		 mov	 ebp, esp
  00003	6a ff		 push	 -1
  00005	68 00 00 00 00	 push	 __ehhandler$?OnPacketDataMultiItem@CChartPeriodSummaryAddInImp@@MAEXPBD0H@Z
  0000a	64 a1 00 00 00
	00		 mov	 eax, DWORD PTR fs:0
  00010	50		 push	 eax
  00011	51		 push	 ecx
  00012	53		 push	 ebx
  00013	56		 push	 esi
  00014	57		 push	 edi
  00015	a1 00 00 00 00	 mov	 eax, DWORD PTR ___security_cookie
  0001a	33 c5		 xor	 eax, ebp
  0001c	50		 push	 eax
  0001d	8d 45 f4	 lea	 eax, DWORD PTR __$EHRec$[ebp]
  00020	64 a3 00 00 00
	00		 mov	 DWORD PTR fs:0, eax
  00026	8b d9		 mov	 ebx, ecx

; 208  : 	ML_SET_LANGUAGE_RES();

  00028	e8 00 00 00 00	 call	 ?AfxGetStaticModuleState@@YGPAVAFX_MODULE_STATE@@XZ ; AfxGetStaticModuleState
  0002d	b9 00 00 00 00	 mov	 ecx, OFFSET ?g_iMetaTable@@3VIMetaTable@@A ; g_iMetaTable
  00032	8b 40 08	 mov	 eax, DWORD PTR [eax+8]
  00035	50		 push	 eax
  00036	ff 73 0c	 push	 DWORD PTR [ebx+12]
  00039	e8 00 00 00 00	 call	 ?LoadResourceDLL@IMetaTable@@QAEPAUHINSTANCE__@@PAUHWND__@@PAU2@@Z ; IMetaTable::LoadResourceDLL
  0003e	8b f8		 mov	 edi, eax
; File C:\Program Files (x86)\Microsoft Visual Studio\2019\Community\VC\Tools\MSVC\14.29.30133\atlmfc\include\afxwin1.inl

; 25   : 		return afxCurrentResourceHandle; }

  00040	e8 00 00 00 00	 call	 ?AfxGetModuleState@@YGPAVAFX_MODULE_STATE@@XZ ; AfxGetModuleState
; File D:\git\src\IBK\IBK_DRFN\ProjSrc\SrcChartEx\ChartAddIn\ChartPeriodSummaryAddIn\Include_Chart\Dll_Load\IMetaTable.h

; 1032 : 		m_hInstance = AfxGetResourceHandle();

  00045	8b 70 0c	 mov	 esi, DWORD PTR [eax+12]
  00048	89 75 f0	 mov	 DWORD PTR ___mlrs__$[ebp], esi
; File C:\Program Files (x86)\Microsoft Visual Studio\2019\Community\VC\Tools\MSVC\14.29.30133\atlmfc\include\afxwin1.inl

; 27   : 	{ ASSERT(hInstResource != NULL); afxCurrentResourceHandle = hInstResource; }

  0004b	e8 00 00 00 00	 call	 ?AfxGetModuleState@@YGPAVAFX_MODULE_STATE@@XZ ; AfxGetModuleState
  00050	89 78 0c	 mov	 DWORD PTR [eax+12], edi
; File D:\git\src\IBK\IBK_DRFN\ProjSrc\SrcChartEx\ChartAddIn\ChartPeriodSummaryAddIn\ChartPeriodSummaryAddInImp.cpp

; 212  : 	POSITION pos = m_LineList.GetHeadPosition();

  00053	8b bb 88 00 00
	00		 mov	 edi, DWORD PTR [ebx+136]
  00059	c7 45 fc 00 00
	00 00		 mov	 DWORD PTR __$EHRec$[ebp+8], 0

; 213  : 	while (pos)

  00060	85 ff		 test	 edi, edi
  00062	74 14		 je	 SHORT $LN3@OnPacketDa
$LL2@OnPacketDa:

; 216  : 		delete pLine;

  00064	8b 4f 08	 mov	 ecx, DWORD PTR [edi+8]
; File C:\Program Files (x86)\Microsoft Visual Studio\2019\Community\VC\Tools\MSVC\14.29.30133\atlmfc\include\afxcoll.inl

; 432  : 		rPosition = (POSITION) pNode->pNext;

  00067	8b 3f		 mov	 edi, DWORD PTR [edi]
; File D:\git\src\IBK\IBK_DRFN\ProjSrc\SrcChartEx\ChartAddIn\ChartPeriodSummaryAddIn\ChartPeriodSummaryAddInImp.cpp

; 216  : 		delete pLine;

  00069	85 c9		 test	 ecx, ecx
  0006b	74 07		 je	 SHORT $LN5@OnPacketDa
  0006d	8b 01		 mov	 eax, DWORD PTR [ecx]
  0006f	6a 01		 push	 1
  00071	ff 50 04	 call	 DWORD PTR [eax+4]
$LN5@OnPacketDa:

; 213  : 	while (pos)

  00074	85 ff		 test	 edi, edi
  00076	75 ec		 jne	 SHORT $LL2@OnPacketDa
$LN3@OnPacketDa:

; 217  : 		pLine = NULL;
; 218  : 	}
; 219  : 	m_LineList.RemoveAll();

  00078	8d 8b 84 00 00
	00		 lea	 ecx, DWORD PTR [ebx+132]
  0007e	e8 00 00 00 00	 call	 ?RemoveAll@CObList@@QAEXXZ ; CObList::RemoveAll
; File D:\git\src\IBK\IBK_DRFN\ProjSrc\SrcChartEx\ChartAddIn\ChartPeriodSummaryAddIn\Include_Chart\Dll_Load\IMetaTable.h

; 1036 : 	{

  00083	c7 45 fc 01 00
	00 00		 mov	 DWORD PTR __$EHRec$[ebp+8], 1
; File C:\Program Files (x86)\Microsoft Visual Studio\2019\Community\VC\Tools\MSVC\14.29.30133\atlmfc\include\afxwin1.inl

; 27   : 	{ ASSERT(hInstResource != NULL); afxCurrentResourceHandle = hInstResource; }

  0008a	e8 00 00 00 00	 call	 ?AfxGetModuleState@@YGPAVAFX_MODULE_STATE@@XZ ; AfxGetModuleState
  0008f	89 70 0c	 mov	 DWORD PTR [eax+12], esi
; File D:\git\src\IBK\IBK_DRFN\ProjSrc\SrcChartEx\ChartAddIn\ChartPeriodSummaryAddIn\ChartPeriodSummaryAddInImp.cpp

; 220  : }

  00092	8b 4d f4	 mov	 ecx, DWORD PTR __$EHRec$[ebp]
  00095	64 89 0d 00 00
	00 00		 mov	 DWORD PTR fs:0, ecx
  0009c	59		 pop	 ecx
  0009d	5f		 pop	 edi
  0009e	5e		 pop	 esi
  0009f	5b		 pop	 ebx
  000a0	8b e5		 mov	 esp, ebp
  000a2	5d		 pop	 ebp
  000a3	c2 0c 00	 ret	 12			; 0000000cH
_TEXT	ENDS
;	COMDAT text$x
text$x	SEGMENT
__unwindfunclet$?OnPacketDataMultiItem@CChartPeriodSummaryAddInImp@@MAEXPBD0H@Z$0:
  00000	8d 4d f0	 lea	 ecx, DWORD PTR ___mlrs__$[ebp]
  00003	e9 00 00 00 00	 jmp	 ??1CMultiLanguageResourceSetter@@QAE@XZ ; CMultiLanguageResourceSetter::~CMultiLanguageResourceSetter
  00008	cc		 int	 3
  00009	cc		 int	 3
  0000a	cc		 int	 3
  0000b	cc		 int	 3
  0000c	cc		 int	 3
__ehhandler$?OnPacketDataMultiItem@CChartPeriodSummaryAddInImp@@MAEXPBD0H@Z:
  0000d	90		 npad	 1
  0000e	90		 npad	 1
  0000f	8b 54 24 08	 mov	 edx, DWORD PTR [esp+8]
  00013	8d 42 0c	 lea	 eax, DWORD PTR [edx+12]
  00016	8b 4a ec	 mov	 ecx, DWORD PTR [edx-20]
  00019	33 c8		 xor	 ecx, eax
  0001b	e8 00 00 00 00	 call	 @__security_check_cookie@4
  00020	b8 00 00 00 00	 mov	 eax, OFFSET __ehfuncinfo$?OnPacketDataMultiItem@CChartPeriodSummaryAddInImp@@MAEXPBD0H@Z
  00025	e9 00 00 00 00	 jmp	 ___CxxFrameHandler3
text$x	ENDS
?OnPacketDataMultiItem@CChartPeriodSummaryAddInImp@@MAEXPBD0H@Z ENDP ; CChartPeriodSummaryAddInImp::OnPacketDataMultiItem
; Function compile flags: /Ogtp
; File D:\git\src\IBK\IBK_DRFN\ProjSrc\SrcChartEx\ChartAddIn\ChartPeriodSummaryAddIn\ChartPeriodSummaryAddInImp.cpp
; File C:\Program Files (x86)\Microsoft Visual Studio\2019\Community\VC\Tools\MSVC\14.29.30133\atlmfc\include\afxwin1.inl
; File D:\git\src\IBK\IBK_DRFN\ProjSrc\SrcChartEx\ChartAddIn\ChartPeriodSummaryAddIn\Include_Chart\Dll_Load\IMetaTable.h
; File C:\Program Files (x86)\Microsoft Visual Studio\2019\Community\VC\Tools\MSVC\14.29.30133\atlmfc\include\afxwin1.inl
; File D:\git\src\IBK\IBK_DRFN\ProjSrc\SrcChartEx\ChartAddIn\ChartPeriodSummaryAddIn\Include_Chart\Dll_Load\IMetaTable.h
; File C:\Program Files (x86)\Microsoft Visual Studio\2019\Community\VC\Tools\MSVC\14.29.30133\atlmfc\include\afxwin1.inl
; File D:\git\src\IBK\IBK_DRFN\ProjSrc\SrcChartEx\ChartAddIn\ChartPeriodSummaryAddIn\ChartPeriodSummaryAddInImp.cpp
;	COMDAT ?OnDrawBeforeGraph@CChartPeriodSummaryAddInImp@@MAEXPAUHDC__@@@Z
_TEXT	SEGMENT
__$EHRec$ = -12						; size = 12
_p_hDC$ = 8						; size = 4
?OnDrawBeforeGraph@CChartPeriodSummaryAddInImp@@MAEXPAUHDC__@@@Z PROC ; CChartPeriodSummaryAddInImp::OnDrawBeforeGraph, COMDAT
; _this$ = ecx

; 674  : {

  00000	55		 push	 ebp
  00001	8b ec		 mov	 ebp, esp
  00003	6a ff		 push	 -1
  00005	68 00 00 00 00	 push	 __ehhandler$?OnDrawBeforeGraph@CChartPeriodSummaryAddInImp@@MAEXPAUHDC__@@@Z
  0000a	64 a1 00 00 00
	00		 mov	 eax, DWORD PTR fs:0
  00010	50		 push	 eax
  00011	56		 push	 esi
  00012	57		 push	 edi
  00013	a1 00 00 00 00	 mov	 eax, DWORD PTR ___security_cookie
  00018	33 c5		 xor	 eax, ebp
  0001a	50		 push	 eax
  0001b	8d 45 f4	 lea	 eax, DWORD PTR __$EHRec$[ebp]
  0001e	64 a3 00 00 00
	00		 mov	 DWORD PTR fs:0, eax
  00024	8b f1		 mov	 esi, ecx

; 675  : 	ML_SET_LANGUAGE_RES();

  00026	e8 00 00 00 00	 call	 ?AfxGetStaticModuleState@@YGPAVAFX_MODULE_STATE@@XZ ; AfxGetStaticModuleState
  0002b	b9 00 00 00 00	 mov	 ecx, OFFSET ?g_iMetaTable@@3VIMetaTable@@A ; g_iMetaTable
  00030	8b 40 08	 mov	 eax, DWORD PTR [eax+8]
  00033	50		 push	 eax
  00034	ff 76 0c	 push	 DWORD PTR [esi+12]
  00037	e8 00 00 00 00	 call	 ?LoadResourceDLL@IMetaTable@@QAEPAUHINSTANCE__@@PAUHWND__@@PAU2@@Z ; IMetaTable::LoadResourceDLL
  0003c	8b f8		 mov	 edi, eax
; File C:\Program Files (x86)\Microsoft Visual Studio\2019\Community\VC\Tools\MSVC\14.29.30133\atlmfc\include\afxwin1.inl

; 25   : 		return afxCurrentResourceHandle; }

  0003e	e8 00 00 00 00	 call	 ?AfxGetModuleState@@YGPAVAFX_MODULE_STATE@@XZ ; AfxGetModuleState
; File D:\git\src\IBK\IBK_DRFN\ProjSrc\SrcChartEx\ChartAddIn\ChartPeriodSummaryAddIn\Include_Chart\Dll_Load\IMetaTable.h

; 1032 : 		m_hInstance = AfxGetResourceHandle();

  00043	8b 70 0c	 mov	 esi, DWORD PTR [eax+12]
; File C:\Program Files (x86)\Microsoft Visual Studio\2019\Community\VC\Tools\MSVC\14.29.30133\atlmfc\include\afxwin1.inl

; 27   : 	{ ASSERT(hInstResource != NULL); afxCurrentResourceHandle = hInstResource; }

  00046	e8 00 00 00 00	 call	 ?AfxGetModuleState@@YGPAVAFX_MODULE_STATE@@XZ ; AfxGetModuleState
  0004b	89 78 0c	 mov	 DWORD PTR [eax+12], edi
; File D:\git\src\IBK\IBK_DRFN\ProjSrc\SrcChartEx\ChartAddIn\ChartPeriodSummaryAddIn\Include_Chart\Dll_Load\IMetaTable.h

; 1036 : 	{

  0004e	c7 45 fc 00 00
	00 00		 mov	 DWORD PTR __$EHRec$[ebp+8], 0
; File C:\Program Files (x86)\Microsoft Visual Studio\2019\Community\VC\Tools\MSVC\14.29.30133\atlmfc\include\afxwin1.inl

; 27   : 	{ ASSERT(hInstResource != NULL); afxCurrentResourceHandle = hInstResource; }

  00055	e8 00 00 00 00	 call	 ?AfxGetModuleState@@YGPAVAFX_MODULE_STATE@@XZ ; AfxGetModuleState
  0005a	89 70 0c	 mov	 DWORD PTR [eax+12], esi
; File D:\git\src\IBK\IBK_DRFN\ProjSrc\SrcChartEx\ChartAddIn\ChartPeriodSummaryAddIn\ChartPeriodSummaryAddInImp.cpp

; 676  : }

  0005d	8b 4d f4	 mov	 ecx, DWORD PTR __$EHRec$[ebp]
  00060	64 89 0d 00 00
	00 00		 mov	 DWORD PTR fs:0, ecx
  00067	59		 pop	 ecx
  00068	5f		 pop	 edi
  00069	5e		 pop	 esi
  0006a	8b e5		 mov	 esp, ebp
  0006c	5d		 pop	 ebp
  0006d	c2 04 00	 ret	 4
  00070	cc		 int	 3
  00071	cc		 int	 3
  00072	cc		 int	 3
  00073	cc		 int	 3
  00074	cc		 int	 3
_TEXT	ENDS
;	COMDAT text$x
text$x	SEGMENT
__ehhandler$?OnDrawBeforeGraph@CChartPeriodSummaryAddInImp@@MAEXPAUHDC__@@@Z:
  00000	90		 npad	 1
  00001	90		 npad	 1
  00002	8b 54 24 08	 mov	 edx, DWORD PTR [esp+8]
  00006	8d 42 0c	 lea	 eax, DWORD PTR [edx+12]
  00009	8b 4a f4	 mov	 ecx, DWORD PTR [edx-12]
  0000c	33 c8		 xor	 ecx, eax
  0000e	e8 00 00 00 00	 call	 @__security_check_cookie@4
  00013	b8 00 00 00 00	 mov	 eax, OFFSET __ehfuncinfo$?OnDrawBeforeGraph@CChartPeriodSummaryAddInImp@@MAEXPAUHDC__@@@Z
  00018	e9 00 00 00 00	 jmp	 ___CxxFrameHandler3
text$x	ENDS
?OnDrawBeforeGraph@CChartPeriodSummaryAddInImp@@MAEXPAUHDC__@@@Z ENDP ; CChartPeriodSummaryAddInImp::OnDrawBeforeGraph
; Function compile flags: /Ogtp
; File D:\git\src\IBK\IBK_DRFN\ProjSrc\SrcChartEx\ChartAddIn\ChartPeriodSummaryAddIn\ChartPeriodSummaryAddInImp.cpp
; File C:\Program Files (x86)\Microsoft Visual Studio\2019\Community\VC\Tools\MSVC\14.29.30133\atlmfc\include\afxwin1.inl
; File D:\git\src\IBK\IBK_DRFN\ProjSrc\SrcChartEx\ChartAddIn\ChartPeriodSummaryAddIn\Include_Chart\Dll_Load\IMetaTable.h
; File C:\Program Files (x86)\Microsoft Visual Studio\2019\Community\VC\Tools\MSVC\14.29.30133\atlmfc\include\afxwin1.inl
; File D:\git\src\IBK\IBK_DRFN\ProjSrc\SrcChartEx\ChartAddIn\ChartPeriodSummaryAddIn\ChartPeriodSummaryAddInImp.cpp
; File C:\Program Files (x86)\Microsoft Visual Studio\2019\Community\VC\Tools\MSVC\14.29.30133\atlmfc\include\afxcoll.inl
; File D:\git\src\IBK\IBK_DRFN\ProjSrc\SrcChartEx\ChartAddIn\ChartPeriodSummaryAddIn\ChartPeriodSummaryAddInImp.cpp
; File C:\Program Files (x86)\Microsoft Visual Studio\2019\Community\VC\Tools\MSVC\14.29.30133\atlmfc\include\afxwin1.inl
; File D:\git\src\IBK\IBK_DRFN\ProjSrc\SrcChartEx\ChartAddIn\ChartPeriodSummaryAddIn\ChartPeriodSummaryAddInImp.cpp
; File C:\Program Files (x86)\Microsoft Visual Studio\2019\Community\VC\Tools\MSVC\14.29.30133\atlmfc\include\afxwin1.inl
; File D:\git\src\IBK\IBK_DRFN\ProjSrc\SrcChartEx\ChartAddIn\ChartPeriodSummaryAddIn\ChartPeriodSummaryAddInImp.cpp
; File D:\git\src\IBK\IBK_DRFN\ProjSrc\SrcChartEx\ChartAddIn\ChartPeriodSummaryAddIn\Include_Chart\Dll_Load\IMetaTable.h
; File C:\Program Files (x86)\Microsoft Visual Studio\2019\Community\VC\Tools\MSVC\14.29.30133\atlmfc\include\afxwin1.inl
; File D:\git\src\IBK\IBK_DRFN\ProjSrc\SrcChartEx\ChartAddIn\ChartPeriodSummaryAddIn\ChartPeriodSummaryAddInImp.cpp
;	COMDAT ?OnDrawAfterGraph@CChartPeriodSummaryAddInImp@@MAEXPAUHDC__@@@Z
_TEXT	SEGMENT
tv665 = -60						; size = 8
tv664 = -60						; size = 8
_rgn$2 = -52						; size = 8
___mlrs__$ = -44					; size = 4
_iDummy$3 = -40						; size = 4
_pIPacketManager$1$ = -36				; size = 4
_this$1$ = -32						; size = 4
_nPckTimeDiff$1$ = -28					; size = 4
_pDC$1$ = -24						; size = 4
_pos$1$ = -20						; size = 4
__$EHRec$ = -16						; size = 16
_pIPacket$1$ = 8					; size = 4
_p_hDC$ = 8						; size = 4
?OnDrawAfterGraph@CChartPeriodSummaryAddInImp@@MAEXPAUHDC__@@@Z PROC ; CChartPeriodSummaryAddInImp::OnDrawAfterGraph, COMDAT
; _this$ = ecx

; 679  : {

  00000	55		 push	 ebp
  00001	8b ec		 mov	 ebp, esp
  00003	6a ff		 push	 -1
  00005	68 00 00 00 00	 push	 __ehhandler$?OnDrawAfterGraph@CChartPeriodSummaryAddInImp@@MAEXPAUHDC__@@@Z
  0000a	64 a1 00 00 00
	00		 mov	 eax, DWORD PTR fs:0
  00010	50		 push	 eax
  00011	83 ec 30	 sub	 esp, 48			; 00000030H
  00014	53		 push	 ebx
  00015	56		 push	 esi
  00016	57		 push	 edi
  00017	a1 00 00 00 00	 mov	 eax, DWORD PTR ___security_cookie
  0001c	33 c5		 xor	 eax, ebp
  0001e	50		 push	 eax
  0001f	8d 45 f4	 lea	 eax, DWORD PTR __$EHRec$[ebp+4]
  00022	64 a3 00 00 00
	00		 mov	 DWORD PTR fs:0, eax
  00028	89 65 f0	 mov	 DWORD PTR __$EHRec$[ebp], esp
  0002b	8b f1		 mov	 esi, ecx
  0002d	89 75 e0	 mov	 DWORD PTR _this$1$[ebp], esi

; 680  : 	ML_SET_LANGUAGE_RES();

  00030	e8 00 00 00 00	 call	 ?AfxGetStaticModuleState@@YGPAVAFX_MODULE_STATE@@XZ ; AfxGetStaticModuleState
  00035	b9 00 00 00 00	 mov	 ecx, OFFSET ?g_iMetaTable@@3VIMetaTable@@A ; g_iMetaTable
  0003a	8b 40 08	 mov	 eax, DWORD PTR [eax+8]
  0003d	50		 push	 eax
  0003e	ff 76 0c	 push	 DWORD PTR [esi+12]
  00041	e8 00 00 00 00	 call	 ?LoadResourceDLL@IMetaTable@@QAEPAUHINSTANCE__@@PAUHWND__@@PAU2@@Z ; IMetaTable::LoadResourceDLL
  00046	8b f8		 mov	 edi, eax
; File C:\Program Files (x86)\Microsoft Visual Studio\2019\Community\VC\Tools\MSVC\14.29.30133\atlmfc\include\afxwin1.inl

; 25   : 		return afxCurrentResourceHandle; }

  00048	e8 00 00 00 00	 call	 ?AfxGetModuleState@@YGPAVAFX_MODULE_STATE@@XZ ; AfxGetModuleState
; File D:\git\src\IBK\IBK_DRFN\ProjSrc\SrcChartEx\ChartAddIn\ChartPeriodSummaryAddIn\Include_Chart\Dll_Load\IMetaTable.h

; 1032 : 		m_hInstance = AfxGetResourceHandle();

  0004d	8b 70 0c	 mov	 esi, DWORD PTR [eax+12]
  00050	89 75 d4	 mov	 DWORD PTR ___mlrs__$[ebp], esi
; File C:\Program Files (x86)\Microsoft Visual Studio\2019\Community\VC\Tools\MSVC\14.29.30133\atlmfc\include\afxwin1.inl

; 27   : 	{ ASSERT(hInstResource != NULL); afxCurrentResourceHandle = hInstResource; }

  00053	e8 00 00 00 00	 call	 ?AfxGetModuleState@@YGPAVAFX_MODULE_STATE@@XZ ; AfxGetModuleState
  00058	89 78 0c	 mov	 DWORD PTR [eax+12], edi
; File D:\git\src\IBK\IBK_DRFN\ProjSrc\SrcChartEx\ChartAddIn\ChartPeriodSummaryAddIn\ChartPeriodSummaryAddInImp.cpp

; 683  : 		CDC * pDC = CDC::FromHandle(p_hDC);

  0005b	ff 75 08	 push	 DWORD PTR _p_hDC$[ebp]
  0005e	c7 45 fc 00 00
	00 00		 mov	 DWORD PTR __$EHRec$[ebp+12], 0
  00065	c6 45 fc 01	 mov	 BYTE PTR __$EHRec$[ebp+12], 1
  00069	e8 00 00 00 00	 call	 ?FromHandle@CDC@@SGPAV1@PAUHDC__@@@Z ; CDC::FromHandle

; 684  : 
; 685  : 		// 20081007 JS.Kim	 
; 686  : 		POSITION pos = m_LineList.GetHeadPosition();

  0006e	8b 7d e0	 mov	 edi, DWORD PTR _this$1$[ebp]
  00071	89 45 e8	 mov	 DWORD PTR _pDC$1$[ebp], eax
  00074	8b 8f 88 00 00
	00		 mov	 ecx, DWORD PTR [edi+136]
  0007a	66 0f 1f 44 00
	00		 npad	 6
$LL2@OnDrawAfte:

; 687  : 		while(pos)

  00080	85 c9		 test	 ecx, ecx
  00082	0f 84 8a 03 00
	00		 je	 $LN3@OnDrawAfte

; 688  : 		{
; 689  : 			CPeriodObj* pLine = (CPeriodObj*)m_LineList.GetNext(pos);

  00088	8b 59 08	 mov	 ebx, DWORD PTR [ecx+8]
; File C:\Program Files (x86)\Microsoft Visual Studio\2019\Community\VC\Tools\MSVC\14.29.30133\atlmfc\include\afxcoll.inl

; 432  : 		rPosition = (POSITION) pNode->pNext;

  0008b	8b 09		 mov	 ecx, DWORD PTR [ecx]
  0008d	89 4d ec	 mov	 DWORD PTR _pos$1$[ebp], ecx
; File D:\git\src\IBK\IBK_DRFN\ProjSrc\SrcChartEx\ChartAddIn\ChartPeriodSummaryAddIn\ChartPeriodSummaryAddInImp.cpp

; 690  : 			if( !pLine) continue;

  00090	85 db		 test	 ebx, ebx
  00092	74 ec		 je	 SHORT $LL2@OnDrawAfte
; File C:\Program Files (x86)\Microsoft Visual Studio\2019\Community\VC\Tools\MSVC\14.29.30133\atlmfc\include\afxwin1.inl

; 70   : 	{ m_hObject = NULL; }

  00094	c7 45 d0 00 00
	00 00		 mov	 DWORD PTR _rgn$2[ebp+4], 0

; 264  : 	{ }

  0009b	c7 45 cc 00 00
	00 00		 mov	 DWORD PTR _rgn$2[ebp], OFFSET ??_7CRgn@@6B@

; 268  : 	{ return Attach(::CreateRectRgn(x1, y1, x2, y2)); }

  000a2	ff b3 0c 02 00
	00		 push	 DWORD PTR [ebx+524]
; File D:\git\src\IBK\IBK_DRFN\ProjSrc\SrcChartEx\ChartAddIn\ChartPeriodSummaryAddIn\ChartPeriodSummaryAddInImp.cpp

; 692  : 			CRgn rgn;

  000a8	c6 45 fc 02	 mov	 BYTE PTR __$EHRec$[ebp+12], 2
; File C:\Program Files (x86)\Microsoft Visual Studio\2019\Community\VC\Tools\MSVC\14.29.30133\atlmfc\include\afxwin1.inl

; 268  : 	{ return Attach(::CreateRectRgn(x1, y1, x2, y2)); }

  000ac	ff b3 08 02 00
	00		 push	 DWORD PTR [ebx+520]
  000b2	ff b3 04 02 00
	00		 push	 DWORD PTR [ebx+516]
  000b8	ff b3 00 02 00
	00		 push	 DWORD PTR [ebx+512]
  000be	ff 15 00 00 00
	00		 call	 DWORD PTR __imp__CreateRectRgn@16
  000c4	50		 push	 eax
  000c5	8d 4d cc	 lea	 ecx, DWORD PTR _rgn$2[ebp]
  000c8	e8 00 00 00 00	 call	 ?Attach@CGdiObject@@QAEHPAX@Z ; CGdiObject::Attach
; File D:\git\src\IBK\IBK_DRFN\ProjSrc\SrcChartEx\ChartAddIn\ChartPeriodSummaryAddIn\ChartPeriodSummaryAddInImp.cpp

; 697  : 			pDC->SelectClipRgn(&rgn);

  000cd	8b 4d e8	 mov	 ecx, DWORD PTR _pDC$1$[ebp]
  000d0	8d 45 cc	 lea	 eax, DWORD PTR _rgn$2[ebp]
  000d3	50		 push	 eax
  000d4	e8 00 00 00 00	 call	 ?SelectClipRgn@CDC@@QAEHPAVCRgn@@@Z ; CDC::SelectClipRgn

; 698  : 
; 699  : 			CRect rcPrev = pLine->m_rctBlockRegion;
; 700  : 			if( !GetChartBasicData( pLine))

  000d9	8d 4f f8	 lea	 ecx, DWORD PTR [edi-8]
  000dc	53		 push	 ebx
  000dd	e8 00 00 00 00	 call	 ?GetChartBasicData@CChartPeriodSummaryAddInImp@@QAEHPAVCPeriodObj@@@Z ; CChartPeriodSummaryAddInImp::GetChartBasicData
  000e2	85 c0		 test	 eax, eax
  000e4	75 18		 jne	 SHORT $LN6@OnDrawAfte
$LN87@OnDrawAfte:

; 687  : 		while(pos)

  000e6	8d 4d cc	 lea	 ecx, DWORD PTR _rgn$2[ebp]
  000e9	c6 45 fc 01	 mov	 BYTE PTR __$EHRec$[ebp+12], 1
  000ed	c7 45 cc 00 00
	00 00		 mov	 DWORD PTR _rgn$2[ebp], OFFSET ??_7CRgn@@6B@
  000f4	e8 00 00 00 00	 call	 ??1CGdiObject@@UAE@XZ	; CGdiObject::~CGdiObject
  000f9	8b 4d ec	 mov	 ecx, DWORD PTR _pos$1$[ebp]
  000fc	eb 82		 jmp	 SHORT $LL2@OnDrawAfte
$LN6@OnDrawAfte:

; 701  : 				continue;
; 702  : 
; 703  : 			if(pLine->m_bSaved)

  000fe	83 7b 04 00	 cmp	 DWORD PTR [ebx+4], 0
  00102	0f 84 89 01 00
	00		 je	 $LN51@OnDrawAfte

; 704  : 			{
; 705  : 				int iDummy=0;
; 706  : 				pLine->m_bSaved = FALSE;
; 707  : 				// 20081007 JS.Kim	 <<
; 708  : 				IPacketManager *pIPacketManager = m_pIPacketListManager->GetPacketManager( pLine->m_strRQ);

  00108	ff b3 f4 01 00
	00		 push	 DWORD PTR [ebx+500]
  0010e	c7 43 04 00 00
	00 00		 mov	 DWORD PTR [ebx+4], 0
  00115	8b 4f 18	 mov	 ecx, DWORD PTR [edi+24]
  00118	c7 45 d8 00 00
	00 00		 mov	 DWORD PTR _iDummy$3[ebp], 0
  0011f	8b 01		 mov	 eax, DWORD PTR [ecx]
  00121	ff 50 10	 call	 DWORD PTR [eax+16]
  00124	89 45 dc	 mov	 DWORD PTR _pIPacketManager$1$[ebp], eax

; 709  : 				if( pIPacketManager)

  00127	85 c0		 test	 eax, eax
  00129	0f 84 de 00 00
	00		 je	 $LN8@OnDrawAfte

; 710  : 				{
; 711  : 					IPacket *pIPacket = pIPacketManager->GetPacket(  _MTEXT( C0_DATE_TIME));

  0012f	8b 0d 54 00 00
	00		 mov	 ecx, DWORD PTR ?g_iMetaTable@@3VIMetaTable@@A+84
  00135	8b 10		 mov	 edx, DWORD PTR [eax]
  00137	ff 31		 push	 DWORD PTR [ecx]
  00139	8b c8		 mov	 ecx, eax
  0013b	ff 52 10	 call	 DWORD PTR [edx+16]
  0013e	89 45 08	 mov	 DWORD PTR _pIPacket$1$[ebp], eax

; 712  : 					if( pIPacket)

  00141	85 c0		 test	 eax, eax
  00143	0f 84 bb 00 00
	00		 je	 $LN9@OnDrawAfte

; 713  : 					{
; 714  : 						int nPckTimeDiff = pIPacketManager->GetBaseTimeDifference();

  00149	8b 45 dc	 mov	 eax, DWORD PTR _pIPacketManager$1$[ebp]
  0014c	8b c8		 mov	 ecx, eax
  0014e	8b 10		 mov	 edx, DWORD PTR [eax]
  00150	ff 52 44	 call	 DWORD PTR [edx+68]

; 715  : 						if( nPckTimeDiff != pLine->m_nTimeDiff )

  00153	8b 8b e0 01 00
	00		 mov	 ecx, DWORD PTR [ebx+480]
  00159	89 45 e4	 mov	 DWORD PTR _nPckTimeDiff$1$[ebp], eax
  0015c	3b c1		 cmp	 eax, ecx
  0015e	0f 84 97 00 00
	00		 je	 $LN84@OnDrawAfte

; 716  : 						{
; 717  : 							pLine->m_lSDate = (__int64)pIPacket->CalcTimeDiff((double)pLine->m_lSDate, nPckTimeDiff - pLine->m_nTimeDiff);

  00164	8b 7d 08	 mov	 edi, DWORD PTR _pIPacket$1$[ebp]
  00167	2b c1		 sub	 eax, ecx
  00169	8b 93 6c 01 00
	00		 mov	 edx, DWORD PTR [ebx+364]
  0016f	8b 8b 68 01 00
	00		 mov	 ecx, DWORD PTR [ebx+360]
  00175	50		 push	 eax
  00176	8b 3f		 mov	 edi, DWORD PTR [edi]
  00178	e8 00 00 00 00	 call	 __ltod3
  0017d	8b 4d 08	 mov	 ecx, DWORD PTR _pIPacket$1$[ebp]
  00180	83 ec 08	 sub	 esp, 8
  00183	8b 47 68	 mov	 eax, DWORD PTR [edi+104]
  00186	f2 0f 11 04 24	 movsd	 QWORD PTR [esp], xmm0
  0018b	ff d0		 call	 eax
  0018d	dd 5d c4	 fstp	 QWORD PTR tv664[ebp]
  00190	f2 0f 10 45 c4	 movsd	 xmm0, QWORD PTR tv664[ebp]
  00195	e8 00 00 00 00	 call	 __dtol3

; 718  : 							pLine->m_lEDate = (__int64)pIPacket->CalcTimeDiff((double)pLine->m_lEDate, nPckTimeDiff - pLine->m_nTimeDiff);

  0019a	8b 8b 70 01 00
	00		 mov	 ecx, DWORD PTR [ebx+368]
  001a0	89 83 68 01 00
	00		 mov	 DWORD PTR [ebx+360], eax
  001a6	8b 45 08	 mov	 eax, DWORD PTR _pIPacket$1$[ebp]
  001a9	89 93 6c 01 00
	00		 mov	 DWORD PTR [ebx+364], edx
  001af	8b 93 74 01 00
	00		 mov	 edx, DWORD PTR [ebx+372]
  001b5	8b 38		 mov	 edi, DWORD PTR [eax]
  001b7	8b 45 e4	 mov	 eax, DWORD PTR _nPckTimeDiff$1$[ebp]
  001ba	2b 83 e0 01 00
	00		 sub	 eax, DWORD PTR [ebx+480]
  001c0	50		 push	 eax
  001c1	e8 00 00 00 00	 call	 __ltod3
  001c6	8b 4d 08	 mov	 ecx, DWORD PTR _pIPacket$1$[ebp]
  001c9	83 ec 08	 sub	 esp, 8
  001cc	8b 47 68	 mov	 eax, DWORD PTR [edi+104]
  001cf	f2 0f 11 04 24	 movsd	 QWORD PTR [esp], xmm0
  001d4	ff d0		 call	 eax
  001d6	dd 5d c4	 fstp	 QWORD PTR tv665[ebp]
  001d9	f2 0f 10 45 c4	 movsd	 xmm0, QWORD PTR tv665[ebp]
  001de	e8 00 00 00 00	 call	 __dtol3
  001e3	8b 7d e0	 mov	 edi, DWORD PTR _this$1$[ebp]
  001e6	89 83 70 01 00
	00		 mov	 DWORD PTR [ebx+368], eax

; 719  : 							pLine->m_nTimeDiff = nPckTimeDiff;

  001ec	8b 45 e4	 mov	 eax, DWORD PTR _nPckTimeDiff$1$[ebp]
  001ef	89 93 74 01 00
	00		 mov	 DWORD PTR [ebx+372], edx
  001f5	89 83 e0 01 00
	00		 mov	 DWORD PTR [ebx+480], eax
$LN84@OnDrawAfte:

; 720  : 						}
; 721  : 						pIPacket->Release();

  001fb	8b 4d 08	 mov	 ecx, DWORD PTR _pIPacket$1$[ebp]
  001fe	51		 push	 ecx
  001ff	8b 01		 mov	 eax, DWORD PTR [ecx]
  00201	ff 50 08	 call	 DWORD PTR [eax+8]
$LN9@OnDrawAfte:

; 722  : 					}
; 723  : 					pIPacketManager->Release();

  00204	8b 4d dc	 mov	 ecx, DWORD PTR _pIPacketManager$1$[ebp]
  00207	51		 push	 ecx
  00208	8b 01		 mov	 eax, DWORD PTR [ecx]
  0020a	ff 50 08	 call	 DWORD PTR [eax+8]
$LN8@OnDrawAfte:

; 724  : 				}
; 725  : 				//>>
; 726  : 				GetIndexFromValue( pLine->m_strRQ, pLine->m_nEndIndexOfView, pLine->m_lSDate, 0, pLine->m_nStartIndex, iDummy);

  0020d	8d 45 d8	 lea	 eax, DWORD PTR _iDummy$3[ebp]
  00210	0f 57 c0	 xorps	 xmm0, xmm0
  00213	50		 push	 eax
  00214	8d 83 54 01 00
	00		 lea	 eax, DWORD PTR [ebx+340]
  0021a	50		 push	 eax
  0021b	83 ec 08	 sub	 esp, 8
  0021e	8d 4f f8	 lea	 ecx, DWORD PTR [edi-8]
  00221	f2 0f 11 04 24	 movsd	 QWORD PTR [esp], xmm0
  00226	ff b3 6c 01 00
	00		 push	 DWORD PTR [ebx+364]
  0022c	ff b3 68 01 00
	00		 push	 DWORD PTR [ebx+360]
  00232	ff b3 3c 02 00
	00		 push	 DWORD PTR [ebx+572]
  00238	ff b3 f4 01 00
	00		 push	 DWORD PTR [ebx+500]
  0023e	e8 00 00 00 00	 call	 ?GetIndexFromValue@CChartPeriodSummaryAddInImp@@QAEHPBDH_JNAAH2@Z ; CChartPeriodSummaryAddInImp::GetIndexFromValue

; 727  : 				GetIndexFromValue( pLine->m_strRQ, pLine->m_nEndIndexOfView, pLine->m_lEDate, 0, pLine->m_nEndIndex, iDummy);

  00243	8d 45 d8	 lea	 eax, DWORD PTR _iDummy$3[ebp]
  00246	0f 57 c0	 xorps	 xmm0, xmm0
  00249	50		 push	 eax
  0024a	8d 83 58 01 00
	00		 lea	 eax, DWORD PTR [ebx+344]
  00250	50		 push	 eax
  00251	83 ec 08	 sub	 esp, 8
  00254	8d 4f f8	 lea	 ecx, DWORD PTR [edi-8]
  00257	f2 0f 11 04 24	 movsd	 QWORD PTR [esp], xmm0
  0025c	ff b3 74 01 00
	00		 push	 DWORD PTR [ebx+372]
  00262	ff b3 70 01 00
	00		 push	 DWORD PTR [ebx+368]
  00268	ff b3 3c 02 00
	00		 push	 DWORD PTR [ebx+572]
  0026e	ff b3 f4 01 00
	00		 push	 DWORD PTR [ebx+500]
  00274	e8 00 00 00 00	 call	 ?GetIndexFromValue@CChartPeriodSummaryAddInImp@@QAEHPBDH_JNAAH2@Z ; CChartPeriodSummaryAddInImp::GetIndexFromValue

; 1637 : 	if( m_pIAddInToolMgr != NULL )

  00279	8b 4f 28	 mov	 ecx, DWORD PTR [edi+40]
  0027c	85 c9		 test	 ecx, ecx
  0027e	74 11		 je	 SHORT $LN51@OnDrawAfte

; 1638 : 	{
; 1639 : 		m_pIAddInToolMgr->OnAddInToolCommand( EAI_TOOLORDERMGR_ADD_TOOL_TO_ORDERMANAGER,	

  00280	8b 01		 mov	 eax, DWORD PTR [ecx]
  00282	53		 push	 ebx
  00283	ff 35 00 00 00
	00		 push	 DWORD PTR ?m_strAddInItemName@CChartPeriodSummaryAddInImp@@2V?$CStringT@DV?$StrTraitMFC_DLL@DV?$ChTraitsCRT@D@ATL@@@@@ATL@@A ; CChartPeriodSummaryAddInImp::m_strAddInItemName
  00289	6a 31		 push	 49			; 00000031H
  0028b	ff 90 a0 00 00
	00		 call	 DWORD PTR [eax+160]
$LN51@OnDrawAfte:

; 728  : 				RegPS((long)pLine);
; 729  : 			}
; 730  : 	
; 731  : 			if((pLine == m_pCurSelectedLine) && (m_pIAddInToolMgr->IsLButtonExclusive( m_pIAddInDllBase))) 

  00291	3b 5f 78	 cmp	 ebx, DWORD PTR [edi+120]
  00294	75 13		 jne	 SHORT $LN11@OnDrawAfte
  00296	8b 4f 28	 mov	 ecx, DWORD PTR [edi+40]
  00299	ff 77 14	 push	 DWORD PTR [edi+20]
  0029c	8b 01		 mov	 eax, DWORD PTR [ecx]
  0029e	ff 50 34	 call	 DWORD PTR [eax+52]
  002a1	85 c0		 test	 eax, eax
  002a3	0f 85 3d fe ff
	ff		 jne	 $LN87@OnDrawAfte
$LN11@OnDrawAfte:

; 913  : 	ptIndex.x = m_pIChartManager->GetXPosition( p_szRQ, x, y);

  002a9	8b 4f 20	 mov	 ecx, DWORD PTR [edi+32]
  002ac	6a 00		 push	 0
  002ae	ff b3 54 01 00
	00		 push	 DWORD PTR [ebx+340]
  002b4	8b 01		 mov	 eax, DWORD PTR [ecx]
  002b6	ff b3 f4 01 00
	00		 push	 DWORD PTR [ebx+500]
  002bc	ff 90 e8 00 00
	00		 call	 DWORD PTR [eax+232]
  002c2	89 83 e8 00 00
	00		 mov	 DWORD PTR [ebx+232], eax
  002c8	8b 4f 20	 mov	 ecx, DWORD PTR [edi+32]
  002cb	6a 00		 push	 0
  002cd	ff b3 58 01 00
	00		 push	 DWORD PTR [ebx+344]
  002d3	8b 01		 mov	 eax, DWORD PTR [ecx]
  002d5	ff b3 f4 01 00
	00		 push	 DWORD PTR [ebx+500]
  002db	ff 90 e8 00 00
	00		 call	 DWORD PTR [eax+232]

; 732  : 			{
; 733  : 				continue;
; 734  : 			}
; 735  :  			GetPointFromIndex( pLine->m_strRQ, pLine->m_nStartIndex,0,pLine->m_ptAStart);
; 736  :  			GetPointFromIndex( pLine->m_strRQ, pLine->m_nEndIndex,0,pLine->m_ptAEnd);
; 737  :  			pLine->m_ptAStart.y = m_pIChartOCX->ConvertDataToYPosition( pLine->m_dSClicked, pLine->m_dViewMax, pLine->m_dViewMin, pLine->m_rctGraphRegion.top, pLine->m_rctGraphRegion.bottom, pLine->m_bLog, pLine->m_bReverse);

  002e1	ff b3 24 02 00
	00		 push	 DWORD PTR [ebx+548]
  002e7	f2 0f 10 83 28
	02 00 00	 movsd	 xmm0, QWORD PTR [ebx+552]
  002ef	ff b3 20 02 00
	00		 push	 DWORD PTR [ebx+544]

; 913  : 	ptIndex.x = m_pIChartManager->GetXPosition( p_szRQ, x, y);

  002f5	89 83 f0 00 00
	00		 mov	 DWORD PTR [ebx+240], eax

; 732  : 			{
; 733  : 				continue;
; 734  : 			}
; 735  :  			GetPointFromIndex( pLine->m_strRQ, pLine->m_nStartIndex,0,pLine->m_ptAStart);
; 736  :  			GetPointFromIndex( pLine->m_strRQ, pLine->m_nEndIndex,0,pLine->m_ptAEnd);
; 737  :  			pLine->m_ptAStart.y = m_pIChartOCX->ConvertDataToYPosition( pLine->m_dSClicked, pLine->m_dViewMax, pLine->m_dViewMin, pLine->m_rctGraphRegion.top, pLine->m_rctGraphRegion.bottom, pLine->m_bLog, pLine->m_bReverse);

  002fb	ff b3 0c 02 00
	00		 push	 DWORD PTR [ebx+524]
  00301	8b 4f 04	 mov	 ecx, DWORD PTR [edi+4]
  00304	ff b3 04 02 00
	00		 push	 DWORD PTR [ebx+516]
  0030a	83 ec 18	 sub	 esp, 24			; 00000018H
  0030d	8b 01		 mov	 eax, DWORD PTR [ecx]
  0030f	f2 0f 11 44 24
	10		 movsd	 QWORD PTR [esp+16], xmm0
  00315	f2 0f 10 83 30
	02 00 00	 movsd	 xmm0, QWORD PTR [ebx+560]
  0031d	f2 0f 11 44 24
	08		 movsd	 QWORD PTR [esp+8], xmm0
  00323	f2 0f 10 43 10	 movsd	 xmm0, QWORD PTR [ebx+16]
  00328	f2 0f 11 04 24	 movsd	 QWORD PTR [esp], xmm0
  0032d	ff 90 28 01 00
	00		 call	 DWORD PTR [eax+296]

; 738  :  			pLine->m_ptAEnd.y = m_pIChartOCX->ConvertDataToYPosition( pLine->m_dEClicked, pLine->m_dViewMax, pLine->m_dViewMin, pLine->m_rctGraphRegion.top, pLine->m_rctGraphRegion.bottom, pLine->m_bLog, pLine->m_bReverse);

  00333	ff b3 24 02 00
	00		 push	 DWORD PTR [ebx+548]
  00339	f2 0f 10 83 28
	02 00 00	 movsd	 xmm0, QWORD PTR [ebx+552]
  00341	ff b3 20 02 00
	00		 push	 DWORD PTR [ebx+544]
  00347	89 83 ec 00 00
	00		 mov	 DWORD PTR [ebx+236], eax
  0034d	ff b3 0c 02 00
	00		 push	 DWORD PTR [ebx+524]
  00353	8b 4f 04	 mov	 ecx, DWORD PTR [edi+4]
  00356	ff b3 04 02 00
	00		 push	 DWORD PTR [ebx+516]
  0035c	83 ec 18	 sub	 esp, 24			; 00000018H
  0035f	8b 01		 mov	 eax, DWORD PTR [ecx]
  00361	f2 0f 11 44 24
	10		 movsd	 QWORD PTR [esp+16], xmm0
  00367	f2 0f 10 83 30
	02 00 00	 movsd	 xmm0, QWORD PTR [ebx+560]
  0036f	f2 0f 11 44 24
	08		 movsd	 QWORD PTR [esp+8], xmm0
  00375	f2 0f 10 43 08	 movsd	 xmm0, QWORD PTR [ebx+8]
  0037a	f2 0f 11 04 24	 movsd	 QWORD PTR [esp], xmm0
  0037f	ff 90 28 01 00
	00		 call	 DWORD PTR [eax+296]

; 739  : 	
; 740  : 			if( GetPriceInfo( pLine->m_strRQ, &pLine->m_Price, pLine->m_nStartIndex, pLine->m_nEndIndex) == R_ERROR) goto Drawing;

  00385	ff b3 58 01 00
	00		 push	 DWORD PTR [ebx+344]
  0038b	89 83 f4 00 00
	00		 mov	 DWORD PTR [ebx+244], eax
  00391	8d 4f f8	 lea	 ecx, DWORD PTR [edi-8]
  00394	ff b3 54 01 00
	00		 push	 DWORD PTR [ebx+340]
  0039a	8d 83 88 01 00
	00		 lea	 eax, DWORD PTR [ebx+392]
  003a0	50		 push	 eax
  003a1	ff b3 f4 01 00
	00		 push	 DWORD PTR [ebx+500]
  003a7	e8 00 00 00 00	 call	 ?GetPriceInfo@CChartPeriodSummaryAddInImp@@QAEHPBDPAVCPrice@CPeriodObj@@HH@Z ; CChartPeriodSummaryAddInImp::GetPriceInfo
  003ac	83 f8 ff	 cmp	 eax, -1
  003af	74 47		 je	 SHORT $Drawing$89

; 741  : 			if( GetCandleInfo( pLine->m_strRQ, &pLine->m_Candle, pLine->m_nStartIndex, pLine->m_nEndIndex) == R_ERROR) goto Drawing;

  003b1	ff b3 58 01 00
	00		 push	 DWORD PTR [ebx+344]
  003b7	8d 83 c8 01 00
	00		 lea	 eax, DWORD PTR [ebx+456]
  003bd	ff b3 54 01 00
	00		 push	 DWORD PTR [ebx+340]
  003c3	8d 4f f8	 lea	 ecx, DWORD PTR [edi-8]
  003c6	50		 push	 eax
  003c7	ff b3 f4 01 00
	00		 push	 DWORD PTR [ebx+500]
  003cd	e8 00 00 00 00	 call	 ?GetCandleInfo@CChartPeriodSummaryAddInImp@@QAEHPBDPAVCCandle@CPeriodObj@@HH@Z ; CChartPeriodSummaryAddInImp::GetCandleInfo
  003d2	83 f8 ff	 cmp	 eax, -1
  003d5	74 21		 je	 SHORT $Drawing$89

; 742  : 			if( GetAmountInfo( pLine->m_strRQ, &pLine->m_Amount, pLine->m_nStartIndex, pLine->m_nEndIndex) == R_ERROR) goto Drawing;

  003d7	ff b3 58 01 00
	00		 push	 DWORD PTR [ebx+344]
  003dd	8d 83 b0 01 00
	00		 lea	 eax, DWORD PTR [ebx+432]
  003e3	ff b3 54 01 00
	00		 push	 DWORD PTR [ebx+340]
  003e9	8d 4f f8	 lea	 ecx, DWORD PTR [edi-8]
  003ec	50		 push	 eax
  003ed	ff b3 f4 01 00
	00		 push	 DWORD PTR [ebx+500]
  003f3	e8 00 00 00 00	 call	 ?GetAmountInfo@CChartPeriodSummaryAddInImp@@QAEHPBDPAVCAmount@CPeriodObj@@HH@Z ; CChartPeriodSummaryAddInImp::GetAmountInfo
$Drawing$89:

; 743  : 			
; 744  : //			TRACE2("\n\nsidx : %d, eidx : %d\n\n",pLine->m_nStartIndex,pLine->m_nEndIndex);
; 745  : Drawing:
; 746  : 			pLine->Draw(pDC, m_hOcxWnd);

  003f8	ff 77 0c	 push	 DWORD PTR [edi+12]
  003fb	8b cb		 mov	 ecx, ebx
  003fd	ff 75 e8	 push	 DWORD PTR _pDC$1$[ebp]
  00400	e8 00 00 00 00	 call	 ?Draw@CPeriodObj@@QAEXPAVCDC@@PAUHWND__@@@Z ; CPeriodObj::Draw

; 747  : 
; 748  : 			rgn.DeleteObject();

  00405	8d 4d cc	 lea	 ecx, DWORD PTR _rgn$2[ebp]
  00408	e8 00 00 00 00	 call	 ?DeleteObject@CGdiObject@@QAEHXZ ; CGdiObject::DeleteObject

; 749  : 		}

  0040d	e9 d4 fc ff ff	 jmp	 $LN87@OnDrawAfte
$LN3@OnDrawAfte:

; 750  : 		
; 751  : 		//pDC->SelectClipRgn(&rgn, NULLREGION);
; 752  : 		pDC->SelectClipRgn(NULL);

  00412	8b 4d e8	 mov	 ecx, DWORD PTR _pDC$1$[ebp]
  00415	6a 00		 push	 0
  00417	e8 00 00 00 00	 call	 ?SelectClipRgn@CDC@@QAEHPAVCRgn@@@Z ; CDC::SelectClipRgn

; 753  : 	}

  0041c	eb 09		 jmp	 SHORT $LN24@OnDrawAfte
__catch$?OnDrawAfterGraph@CChartPeriodSummaryAddInImp@@MAEXPAUHDC__@@@Z$3:

; 754  : 	catch (CChartPeriodSummaryAddInImp* )
; 755  : 		{
; 756  : 		
; 757  : 	}

  0041e	b8 00 00 00 00	 mov	 eax, $LN85@OnDrawAfte
  00423	c3		 ret	 0
$LN85@OnDrawAfte:
  00424	8b 75 d4	 mov	 esi, DWORD PTR ___mlrs__$[ebp]
$LN24@OnDrawAfte:
; File D:\git\src\IBK\IBK_DRFN\ProjSrc\SrcChartEx\ChartAddIn\ChartPeriodSummaryAddIn\Include_Chart\Dll_Load\IMetaTable.h

; 1036 : 	{

  00427	c7 45 fc 04 00
	00 00		 mov	 DWORD PTR __$EHRec$[ebp+12], 4
; File C:\Program Files (x86)\Microsoft Visual Studio\2019\Community\VC\Tools\MSVC\14.29.30133\atlmfc\include\afxwin1.inl

; 27   : 	{ ASSERT(hInstResource != NULL); afxCurrentResourceHandle = hInstResource; }

  0042e	e8 00 00 00 00	 call	 ?AfxGetModuleState@@YGPAVAFX_MODULE_STATE@@XZ ; AfxGetModuleState
  00433	89 70 0c	 mov	 DWORD PTR [eax+12], esi
; File D:\git\src\IBK\IBK_DRFN\ProjSrc\SrcChartEx\ChartAddIn\ChartPeriodSummaryAddIn\ChartPeriodSummaryAddInImp.cpp

; 758  : }

  00436	8b 4d f4	 mov	 ecx, DWORD PTR __$EHRec$[ebp+4]
  00439	64 89 0d 00 00
	00 00		 mov	 DWORD PTR fs:0, ecx
  00440	59		 pop	 ecx
  00441	5f		 pop	 edi
  00442	5e		 pop	 esi
  00443	5b		 pop	 ebx
  00444	8b e5		 mov	 esp, ebp
  00446	5d		 pop	 ebp
  00447	c2 04 00	 ret	 4
_TEXT	ENDS
;	COMDAT text$x
text$x	SEGMENT
__unwindfunclet$?OnDrawAfterGraph@CChartPeriodSummaryAddInImp@@MAEXPAUHDC__@@@Z$5:
  00000	8d 4d d4	 lea	 ecx, DWORD PTR ___mlrs__$[ebp]
  00003	e9 00 00 00 00	 jmp	 ??1CMultiLanguageResourceSetter@@QAE@XZ ; CMultiLanguageResourceSetter::~CMultiLanguageResourceSetter
__unwindfunclet$?OnDrawAfterGraph@CChartPeriodSummaryAddInImp@@MAEXPAUHDC__@@@Z$6:
  00008	8d 4d cc	 lea	 ecx, DWORD PTR _rgn$2[ebp]
  0000b	e9 00 00 00 00	 jmp	 ??1CRgn@@UAE@XZ		; CRgn::~CRgn
  00010	cc		 int	 3
  00011	cc		 int	 3
  00012	cc		 int	 3
  00013	cc		 int	 3
  00014	cc		 int	 3
__ehhandler$?OnDrawAfterGraph@CChartPeriodSummaryAddInImp@@MAEXPAUHDC__@@@Z:
  00015	90		 npad	 1
  00016	90		 npad	 1
  00017	8b 54 24 08	 mov	 edx, DWORD PTR [esp+8]
  0001b	8d 42 0c	 lea	 eax, DWORD PTR [edx+12]
  0001e	8b 4a c0	 mov	 ecx, DWORD PTR [edx-64]
  00021	33 c8		 xor	 ecx, eax
  00023	e8 00 00 00 00	 call	 @__security_check_cookie@4
  00028	b8 00 00 00 00	 mov	 eax, OFFSET __ehfuncinfo$?OnDrawAfterGraph@CChartPeriodSummaryAddInImp@@MAEXPAUHDC__@@@Z
  0002d	e9 00 00 00 00	 jmp	 ___CxxFrameHandler3
text$x	ENDS
?OnDrawAfterGraph@CChartPeriodSummaryAddInImp@@MAEXPAUHDC__@@@Z ENDP ; CChartPeriodSummaryAddInImp::OnDrawAfterGraph
; Function compile flags: /Ogtp
; File D:\git\src\IBK\IBK_DRFN\ProjSrc\SrcChartEx\ChartAddIn\ChartPeriodSummaryAddIn\ChartPeriodSummaryAddInImp.h
;	COMDAT ?GetRegisteredEventMap@CChartPeriodSummaryAddInImp@@MBEPBW4EAddInEventType@IChartAddIn133691@@XZ
_TEXT	SEGMENT
?GetRegisteredEventMap@CChartPeriodSummaryAddInImp@@MBEPBW4EAddInEventType@IChartAddIn133691@@XZ PROC ; CChartPeriodSummaryAddInImp::GetRegisteredEventMap, COMDAT
; _this$ = ecx

; 125  : 	DECLARE_ADDIN_EVENT_MAP()

  00000	b8 00 00 00 00	 mov	 eax, OFFSET ?m_eRegisteredEventMap@CChartPeriodSummaryAddInImp@@1QBW4EAddInEventType@IChartAddIn133691@@B ; CChartPeriodSummaryAddInImp::m_eRegisteredEventMap
  00005	c3		 ret	 0
?GetRegisteredEventMap@CChartPeriodSummaryAddInImp@@MBEPBW4EAddInEventType@IChartAddIn133691@@XZ ENDP ; CChartPeriodSummaryAddInImp::GetRegisteredEventMap
_TEXT	ENDS
; Function compile flags: /Ogtp
; File D:\git\src\IBK\IBK_DRFN\ProjSrc\SrcChartEx\ChartAddIn\ChartPeriodSummaryAddIn\ChartPeriodSummaryAddInImp.cpp
; File C:\Program Files (x86)\Microsoft Visual Studio\2019\Community\VC\Tools\MSVC\14.29.30133\atlmfc\include\afxwin1.inl
; File D:\git\src\IBK\IBK_DRFN\ProjSrc\SrcChartEx\ChartAddIn\ChartPeriodSummaryAddIn\Include_Chart\Dll_Load\IMetaTable.h
; File C:\Program Files (x86)\Microsoft Visual Studio\2019\Community\VC\Tools\MSVC\14.29.30133\atlmfc\include\afxwin1.inl
; File D:\git\src\IBK\IBK_DRFN\ProjSrc\SrcChartEx\ChartAddIn\ChartPeriodSummaryAddIn\ChartPeriodSummaryAddInImp.cpp
; File D:\git\src\IBK\IBK_DRFN\ProjSrc\SrcChartEx\ChartAddIn\ChartPeriodSummaryAddIn\Include_Chart\Dll_Load\IMetaTable.h
; File C:\Program Files (x86)\Microsoft Visual Studio\2019\Community\VC\Tools\MSVC\14.29.30133\atlmfc\include\afxwin1.inl
; File D:\git\src\IBK\IBK_DRFN\ProjSrc\SrcChartEx\ChartAddIn\ChartPeriodSummaryAddIn\ChartPeriodSummaryAddInImp.cpp
;	COMDAT ?InvokeAddIn@CChartPeriodSummaryAddInImp@@MAEHHJ@Z
_TEXT	SEGMENT
__$EHRec$ = -12						; size = 12
_p_nCommandType$ = 8					; size = 4
_p_lData$ = 12						; size = 4
?InvokeAddIn@CChartPeriodSummaryAddInImp@@MAEHHJ@Z PROC	; CChartPeriodSummaryAddInImp::InvokeAddIn, COMDAT
; _this$ = ecx

; 761  : {

  00000	55		 push	 ebp
  00001	8b ec		 mov	 ebp, esp
  00003	6a ff		 push	 -1
  00005	68 00 00 00 00	 push	 __ehhandler$?InvokeAddIn@CChartPeriodSummaryAddInImp@@MAEHHJ@Z
  0000a	64 a1 00 00 00
	00		 mov	 eax, DWORD PTR fs:0
  00010	50		 push	 eax
  00011	53		 push	 ebx
  00012	56		 push	 esi
  00013	57		 push	 edi
  00014	a1 00 00 00 00	 mov	 eax, DWORD PTR ___security_cookie
  00019	33 c5		 xor	 eax, ebp
  0001b	50		 push	 eax
  0001c	8d 45 f4	 lea	 eax, DWORD PTR __$EHRec$[ebp]
  0001f	64 a3 00 00 00
	00		 mov	 DWORD PTR fs:0, eax
  00025	8b d9		 mov	 ebx, ecx

; 762  : 	ML_SET_LANGUAGE_RES();

  00027	e8 00 00 00 00	 call	 ?AfxGetStaticModuleState@@YGPAVAFX_MODULE_STATE@@XZ ; AfxGetStaticModuleState
  0002c	b9 00 00 00 00	 mov	 ecx, OFFSET ?g_iMetaTable@@3VIMetaTable@@A ; g_iMetaTable
  00031	8b 40 08	 mov	 eax, DWORD PTR [eax+8]
  00034	50		 push	 eax
  00035	ff 73 0c	 push	 DWORD PTR [ebx+12]
  00038	e8 00 00 00 00	 call	 ?LoadResourceDLL@IMetaTable@@QAEPAUHINSTANCE__@@PAUHWND__@@PAU2@@Z ; IMetaTable::LoadResourceDLL
  0003d	8b f8		 mov	 edi, eax
; File C:\Program Files (x86)\Microsoft Visual Studio\2019\Community\VC\Tools\MSVC\14.29.30133\atlmfc\include\afxwin1.inl

; 25   : 		return afxCurrentResourceHandle; }

  0003f	e8 00 00 00 00	 call	 ?AfxGetModuleState@@YGPAVAFX_MODULE_STATE@@XZ ; AfxGetModuleState
; File D:\git\src\IBK\IBK_DRFN\ProjSrc\SrcChartEx\ChartAddIn\ChartPeriodSummaryAddIn\Include_Chart\Dll_Load\IMetaTable.h

; 1032 : 		m_hInstance = AfxGetResourceHandle();

  00044	8b 70 0c	 mov	 esi, DWORD PTR [eax+12]
; File C:\Program Files (x86)\Microsoft Visual Studio\2019\Community\VC\Tools\MSVC\14.29.30133\atlmfc\include\afxwin1.inl

; 27   : 	{ ASSERT(hInstResource != NULL); afxCurrentResourceHandle = hInstResource; }

  00047	e8 00 00 00 00	 call	 ?AfxGetModuleState@@YGPAVAFX_MODULE_STATE@@XZ ; AfxGetModuleState
  0004c	89 78 0c	 mov	 DWORD PTR [eax+12], edi
; File D:\git\src\IBK\IBK_DRFN\ProjSrc\SrcChartEx\ChartAddIn\ChartPeriodSummaryAddIn\ChartPeriodSummaryAddInImp.cpp

; 763  : 	m_nCommandType = p_nCommandType;

  0004f	8b 45 08	 mov	 eax, DWORD PTR _p_nCommandType$[ebp]
  00052	89 43 68	 mov	 DWORD PTR [ebx+104], eax
; File D:\git\src\IBK\IBK_DRFN\ProjSrc\SrcChartEx\ChartAddIn\ChartPeriodSummaryAddIn\Include_Chart\Dll_Load\IMetaTable.h

; 1036 : 	{

  00055	c7 45 fc 00 00
	00 00		 mov	 DWORD PTR __$EHRec$[ebp+8], 0
; File C:\Program Files (x86)\Microsoft Visual Studio\2019\Community\VC\Tools\MSVC\14.29.30133\atlmfc\include\afxwin1.inl

; 27   : 	{ ASSERT(hInstResource != NULL); afxCurrentResourceHandle = hInstResource; }

  0005c	e8 00 00 00 00	 call	 ?AfxGetModuleState@@YGPAVAFX_MODULE_STATE@@XZ ; AfxGetModuleState
  00061	89 70 0c	 mov	 DWORD PTR [eax+12], esi
; File D:\git\src\IBK\IBK_DRFN\ProjSrc\SrcChartEx\ChartAddIn\ChartPeriodSummaryAddIn\ChartPeriodSummaryAddInImp.cpp

; 778  : 	return TRUE;

  00064	b8 01 00 00 00	 mov	 eax, 1

; 779  : }

  00069	8b 4d f4	 mov	 ecx, DWORD PTR __$EHRec$[ebp]
  0006c	64 89 0d 00 00
	00 00		 mov	 DWORD PTR fs:0, ecx
  00073	59		 pop	 ecx
  00074	5f		 pop	 edi
  00075	5e		 pop	 esi
  00076	5b		 pop	 ebx
  00077	8b e5		 mov	 esp, ebp
  00079	5d		 pop	 ebp
  0007a	c2 08 00	 ret	 8
  0007d	cc		 int	 3
  0007e	cc		 int	 3
  0007f	cc		 int	 3
  00080	cc		 int	 3
  00081	cc		 int	 3
_TEXT	ENDS
;	COMDAT text$x
text$x	SEGMENT
__ehhandler$?InvokeAddIn@CChartPeriodSummaryAddInImp@@MAEHHJ@Z:
  00000	90		 npad	 1
  00001	90		 npad	 1
  00002	8b 54 24 08	 mov	 edx, DWORD PTR [esp+8]
  00006	8d 42 0c	 lea	 eax, DWORD PTR [edx+12]
  00009	8b 4a f0	 mov	 ecx, DWORD PTR [edx-16]
  0000c	33 c8		 xor	 ecx, eax
  0000e	e8 00 00 00 00	 call	 @__security_check_cookie@4
  00013	b8 00 00 00 00	 mov	 eax, OFFSET __ehfuncinfo$?InvokeAddIn@CChartPeriodSummaryAddInImp@@MAEHHJ@Z
  00018	e9 00 00 00 00	 jmp	 ___CxxFrameHandler3
text$x	ENDS
?InvokeAddIn@CChartPeriodSummaryAddInImp@@MAEHHJ@Z ENDP	; CChartPeriodSummaryAddInImp::InvokeAddIn
; Function compile flags: /Ogtp
; File D:\git\src\IBK\IBK_DRFN\ProjSrc\SrcChartEx\ChartAddIn\ChartPeriodSummaryAddIn\ChartPeriodSummaryAddInImp.cpp
; File D:\git\src\IBK\IBK_DRFN\ProjSrc\SrcChartEx\ChartAddIn\ChartPeriodSummaryAddIn\Include_AddIn\I133691\_IString.h
; File D:\git\src\IBK\IBK_DRFN\ProjSrc\SrcChartEx\ChartAddIn\ChartPeriodSummaryAddIn\ChartPeriodSummaryAddInImp.cpp
; File C:\Program Files (x86)\Microsoft Visual Studio\2019\Community\VC\Tools\MSVC\14.29.30133\atlmfc\include\afxcoll.inl
; File D:\git\src\IBK\IBK_DRFN\ProjSrc\SrcChartEx\ChartAddIn\ChartPeriodSummaryAddIn\ChartPeriodSummaryAddInImp.cpp
; File D:\git\src\IBK\IBK_DRFN\ProjSrc\SrcChartEx\ChartAddIn\ChartPeriodSummaryAddIn\Include_AddIn\I133691\_IString.h
; File D:\git\src\IBK\IBK_DRFN\ProjSrc\SrcChartEx\ChartAddIn\ChartPeriodSummaryAddIn\ChartPeriodSummaryAddInImp.cpp
;	COMDAT ?RecalcLineXPoint@CChartPeriodSummaryAddInImp@@QAE_NPBDH@Z
_TEXT	SEGMENT
tv289 = -40						; size = 8
tv200 = -40						; size = 8
_is$ = -32						; size = 8
_pos$1$ = -24						; size = 4
_strType$ = -20						; size = 4
_pPacket$1$ = -16					; size = 4
__$EHRec$ = -12						; size = 12
tv129 = 8						; size = 4
_nBaseTimeDiff$1$ = 8					; size = 4
_szName$ = 8						; size = 4
tv319 = 12						; size = 4
$T2 = 12						; size = 4
_nTimeDiff$ = 12					; size = 4
?RecalcLineXPoint@CChartPeriodSummaryAddInImp@@QAE_NPBDH@Z PROC ; CChartPeriodSummaryAddInImp::RecalcLineXPoint, COMDAT
; _this$ = ecx

; 1839 : {

  00000	55		 push	 ebp
  00001	8b ec		 mov	 ebp, esp
  00003	6a ff		 push	 -1
  00005	68 00 00 00 00	 push	 __ehhandler$?RecalcLineXPoint@CChartPeriodSummaryAddInImp@@QAE_NPBDH@Z
  0000a	64 a1 00 00 00
	00		 mov	 eax, DWORD PTR fs:0
  00010	50		 push	 eax
  00011	83 ec 1c	 sub	 esp, 28			; 0000001cH
  00014	53		 push	 ebx
  00015	56		 push	 esi
  00016	57		 push	 edi
  00017	a1 00 00 00 00	 mov	 eax, DWORD PTR ___security_cookie
  0001c	33 c5		 xor	 eax, ebp
  0001e	50		 push	 eax
  0001f	8d 45 f4	 lea	 eax, DWORD PTR __$EHRec$[ebp]
  00022	64 a3 00 00 00
	00		 mov	 DWORD PTR fs:0, eax
  00028	8b d9		 mov	 ebx, ecx

; 1840 : //	CString strRQ = m_pIChartManager->GetCurrentRQ();
; 1841 : //	IPacket* pPacket= m_pIDefaultPacketManager->GetDatePacket(strRQ);
; 1842 : 	IPacket *pPacket = m_pIDefaultPacketManager->GetPacket( _MTEXT( C0_DATE_TIME));

  0002a	8b 4b 24	 mov	 ecx, DWORD PTR [ebx+36]
  0002d	a1 54 00 00 00	 mov	 eax, DWORD PTR ?g_iMetaTable@@3VIMetaTable@@A+84
  00032	8b 11		 mov	 edx, DWORD PTR [ecx]
  00034	ff 30		 push	 DWORD PTR [eax]
  00036	ff 52 10	 call	 DWORD PTR [edx+16]
  00039	8b f0		 mov	 esi, eax
  0003b	89 75 f0	 mov	 DWORD PTR _pPacket$1$[ebp], esi

; 1843 : 	if( !pPacket )		return false;

  0003e	85 f6		 test	 esi, esi
  00040	75 16		 jne	 SHORT $LN7@RecalcLine
  00042	32 c0		 xor	 al, al

; 1881 : }

  00044	8b 4d f4	 mov	 ecx, DWORD PTR __$EHRec$[ebp]
  00047	64 89 0d 00 00
	00 00		 mov	 DWORD PTR fs:0, ecx
  0004e	59		 pop	 ecx
  0004f	5f		 pop	 edi
  00050	5e		 pop	 esi
  00051	5b		 pop	 ebx
  00052	8b e5		 mov	 esp, ebp
  00054	5d		 pop	 ebp
  00055	c2 08 00	 ret	 8
$LN7@RecalcLine:

; 1845 : 	ILPCSTR is = pPacket->GetType();

  00058	8b 06		 mov	 eax, DWORD PTR [esi]
  0005a	8b ce		 mov	 ecx, esi
  0005c	6a 01		 push	 1
  0005e	ff 50 1c	 call	 DWORD PTR [eax+28]
; File D:\git\src\IBK\IBK_DRFN\ProjSrc\SrcChartEx\ChartAddIn\ChartPeriodSummaryAddIn\Include_AddIn\I133691\_IString.h

; 39   : 		m_pIStrData = p_pIString;	// Do not AddRef(). Because It must be Return Value.

  00061	8b f8		 mov	 edi, eax
  00063	89 7d e4	 mov	 DWORD PTR _is$[ebp+4], edi

; 40   : 		if( m_pIStrData) m_szData = m_pIStrData->GetData();

  00066	85 ff		 test	 edi, edi
  00068	74 09		 je	 SHORT $LN22@RecalcLine
  0006a	8b 17		 mov	 edx, DWORD PTR [edi]
  0006c	8b cf		 mov	 ecx, edi
  0006e	ff 52 10	 call	 DWORD PTR [edx+16]
  00071	eb 02		 jmp	 SHORT $LN47@RecalcLine
$LN22@RecalcLine:

; 41   : 		else m_szData = NULL;

  00073	33 c0		 xor	 eax, eax
$LN47@RecalcLine:
; File D:\git\src\IBK\IBK_DRFN\ProjSrc\SrcChartEx\ChartAddIn\ChartPeriodSummaryAddIn\ChartPeriodSummaryAddInImp.cpp

; 1845 : 	ILPCSTR is = pPacket->GetType();

  00075	89 45 e0	 mov	 DWORD PTR _is$[ebp], eax

; 1846 : 	CString strType = is;

  00078	50		 push	 eax
  00079	8d 4d ec	 lea	 ecx, DWORD PTR _strType$[ebp]
  0007c	c7 45 fc 00 00
	00 00		 mov	 DWORD PTR __$EHRec$[ebp+8], 0
  00083	ff 15 00 00 00
	00		 call	 DWORD PTR __imp_??0?$CStringT@DV?$StrTraitMFC_DLL@DV?$ChTraitsCRT@D@ATL@@@@@ATL@@QAE@PBD@Z

; 1847 : 
; 1848 : 	int	nBaseTimeDiff;
; 1849 : 	if( strlen(szName) == 0 )	nBaseTimeDiff = pPacket->GetOrgBaseTimeDifference();		//   

  00089	8b 4d 08	 mov	 ecx, DWORD PTR _szName$[ebp]
  0008c	c6 45 fc 01	 mov	 BYTE PTR __$EHRec$[ebp+8], 1
  00090	8d 51 01	 lea	 edx, DWORD PTR [ecx+1]
$LL44@RecalcLine:
  00093	8a 01		 mov	 al, BYTE PTR [ecx]
  00095	41		 inc	 ecx
  00096	84 c0		 test	 al, al
  00098	75 f9		 jne	 SHORT $LL44@RecalcLine
  0009a	2b ca		 sub	 ecx, edx
  0009c	75 0e		 jne	 SHORT $LN8@RecalcLine
  0009e	8b 06		 mov	 eax, DWORD PTR [esi]
  000a0	8b ce		 mov	 ecx, esi
  000a2	ff 50 64	 call	 DWORD PTR [eax+100]
  000a5	8b c8		 mov	 ecx, eax
  000a7	89 45 08	 mov	 DWORD PTR _nBaseTimeDiff$1$[ebp], eax
  000aa	eb 06		 jmp	 SHORT $LN9@RecalcLine
$LN8@RecalcLine:

; 1850 : 	else						nBaseTimeDiff = nTimeDiff;

  000ac	8b 4d 0c	 mov	 ecx, DWORD PTR _nTimeDiff$[ebp]
  000af	89 4d 08	 mov	 DWORD PTR _nBaseTimeDiff$1$[ebp], ecx
$LN9@RecalcLine:

; 1851 : 
; 1852 : 	double dXDate, oldXDate;
; 1853 : 	int oldTimeDiff;
; 1854 : 
; 1855 : 	CPeriodObj *pLine = NULL;
; 1856 : 	POSITION pos = m_LineList.GetHeadPosition();

  000b2	8b 9b 90 00 00
	00		 mov	 ebx, DWORD PTR [ebx+144]

; 1857 : 	while( pos)

  000b8	85 db		 test	 ebx, ebx
  000ba	0f 84 d1 00 00
	00		 je	 $LN36@RecalcLine
$LL2@RecalcLine:

; 1859 : 		if( !(pLine = (CPeriodObj *)m_LineList.GetNext( pos)) )	break;

  000c0	8b 73 08	 mov	 esi, DWORD PTR [ebx+8]
; File C:\Program Files (x86)\Microsoft Visual Studio\2019\Community\VC\Tools\MSVC\14.29.30133\atlmfc\include\afxcoll.inl

; 432  : 		rPosition = (POSITION) pNode->pNext;

  000c3	8b 1b		 mov	 ebx, DWORD PTR [ebx]
  000c5	89 5d e8	 mov	 DWORD PTR _pos$1$[ebp], ebx
; File D:\git\src\IBK\IBK_DRFN\ProjSrc\SrcChartEx\ChartAddIn\ChartPeriodSummaryAddIn\ChartPeriodSummaryAddInImp.cpp

; 1859 : 		if( !(pLine = (CPeriodObj *)m_LineList.GetNext( pos)) )	break;

  000c8	85 f6		 test	 esi, esi
  000ca	0f 84 bb 00 00
	00		 je	 $LN45@RecalcLine

; 1860 : 
; 1861 : 		oldTimeDiff = pLine->m_nTimeDiff;

  000d0	8b 86 e0 01 00
	00		 mov	 eax, DWORD PTR [esi+480]

; 1862 : 		if( oldTimeDiff != nBaseTimeDiff )

  000d6	3b c1		 cmp	 eax, ecx
  000d8	0f 84 a5 00 00
	00		 je	 $LN43@RecalcLine

; 1863 : 		{
; 1864 : 
; 1865 : 			for( int i=0; i<2; i++ )

  000de	33 ff		 xor	 edi, edi
  000e0	2b c8		 sub	 ecx, eax
  000e2	89 4d 0c	 mov	 DWORD PTR tv319[ebp], ecx
  000e5	8b d9		 mov	 ebx, ecx
$LL6@RecalcLine:

; 1866 : 			{
; 1867 : 				if( i == 0 )		oldXDate = (double)pLine->m_lSDate;

  000e7	85 ff		 test	 edi, edi
  000e9	75 0e		 jne	 SHORT $LN12@RecalcLine
  000eb	8b 8e 68 01 00
	00		 mov	 ecx, DWORD PTR [esi+360]
  000f1	8b 96 6c 01 00
	00		 mov	 edx, DWORD PTR [esi+364]
  000f7	eb 0c		 jmp	 SHORT $LN13@RecalcLine
$LN12@RecalcLine:

; 1868 : 				else				oldXDate = (double)pLine->m_lEDate;

  000f9	8b 8e 70 01 00
	00		 mov	 ecx, DWORD PTR [esi+368]
  000ff	8b 96 74 01 00
	00		 mov	 edx, DWORD PTR [esi+372]
$LN13@RecalcLine:

; 1869 : 
; 1870 : 				dXDate = CDataConversion::CalcTimeDiff(oldXDate, nBaseTimeDiff - oldTimeDiff, pPacket->GetOrgBaseTimeDifference(), strType);

  00105	e8 00 00 00 00	 call	 __ltod3
  0010a	51		 push	 ecx
  0010b	8d 45 ec	 lea	 eax, DWORD PTR _strType$[ebp]
  0010e	89 65 0c	 mov	 DWORD PTR $T2[ebp], esp
  00111	8b cc		 mov	 ecx, esp
  00113	f2 0f 11 45 d8	 movsd	 QWORD PTR tv289[ebp], xmm0
  00118	50		 push	 eax
  00119	ff 15 00 00 00
	00		 call	 DWORD PTR __imp_??0?$CStringT@DV?$StrTraitMFC_DLL@DV?$ChTraitsCRT@D@ATL@@@@@ATL@@QAE@ABV01@@Z
  0011f	8b 4d f0	 mov	 ecx, DWORD PTR _pPacket$1$[ebp]
  00122	c6 45 fc 02	 mov	 BYTE PTR __$EHRec$[ebp+8], 2
  00126	8b 01		 mov	 eax, DWORD PTR [ecx]
  00128	ff 50 64	 call	 DWORD PTR [eax+100]
  0012b	f2 0f 10 45 d8	 movsd	 xmm0, QWORD PTR tv289[ebp]
  00130	50		 push	 eax
  00131	53		 push	 ebx
  00132	83 ec 08	 sub	 esp, 8
  00135	c6 45 fc 01	 mov	 BYTE PTR __$EHRec$[ebp+8], 1
  00139	f2 0f 11 04 24	 movsd	 QWORD PTR [esp], xmm0
  0013e	e8 00 00 00 00	 call	 ?CalcTimeDiff@CDataConversion@@SANNHHV?$CStringT@DV?$StrTraitMFC_DLL@DV?$ChTraitsCRT@D@ATL@@@@@ATL@@@Z ; CDataConversion::CalcTimeDiff
  00143	dd 5d d8	 fstp	 QWORD PTR tv200[ebp]
  00146	f2 0f 2c 45 d8	 cvttsd2si eax, QWORD PTR tv200[ebp]
  0014b	83 c4 14	 add	 esp, 20			; 00000014H
  0014e	99		 cdq

; 1871 : 
; 1872 : 				if( i == 0 )		pLine->m_lSDate = (long)dXDate;

  0014f	85 ff		 test	 edi, edi
  00151	75 0e		 jne	 SHORT $LN14@RecalcLine
  00153	89 86 68 01 00
	00		 mov	 DWORD PTR [esi+360], eax
  00159	89 96 6c 01 00
	00		 mov	 DWORD PTR [esi+364], edx
  0015f	eb 0c		 jmp	 SHORT $LN4@RecalcLine
$LN14@RecalcLine:

; 1873 : 				else				pLine->m_lEDate = (long)dXDate;

  00161	89 86 70 01 00
	00		 mov	 DWORD PTR [esi+368], eax
  00167	89 96 74 01 00
	00		 mov	 DWORD PTR [esi+372], edx
$LN4@RecalcLine:

; 1863 : 		{
; 1864 : 
; 1865 : 			for( int i=0; i<2; i++ )

  0016d	47		 inc	 edi
  0016e	83 ff 02	 cmp	 edi, 2
  00171	0f 8c 70 ff ff
	ff		 jl	 $LL6@RecalcLine

; 1874 : 			}
; 1875 : 			pLine->m_nTimeDiff = nBaseTimeDiff;

  00177	8b 4d 08	 mov	 ecx, DWORD PTR _nBaseTimeDiff$1$[ebp]
  0017a	8b 5d e8	 mov	 ebx, DWORD PTR _pos$1$[ebp]
  0017d	89 8e e0 01 00
	00		 mov	 DWORD PTR [esi+480], ecx
$LN43@RecalcLine:

; 1857 : 	while( pos)

  00183	85 db		 test	 ebx, ebx
  00185	0f 85 35 ff ff
	ff		 jne	 $LL2@RecalcLine
$LN45@RecalcLine:
  0018b	8b 75 f0	 mov	 esi, DWORD PTR _pPacket$1$[ebp]
  0018e	8b 7d e4	 mov	 edi, DWORD PTR _is$[ebp+4]
$LN36@RecalcLine:

; 1876 : 		}
; 1877 : 	}
; 1878 : 	if( pPacket) pPacket->Release();

  00191	8b 06		 mov	 eax, DWORD PTR [esi]
  00193	56		 push	 esi
  00194	ff 50 08	 call	 DWORD PTR [eax+8]

; 1880 : 	return true;

  00197	8d 4d ec	 lea	 ecx, DWORD PTR _strType$[ebp]
  0019a	ff 15 00 00 00
	00		 call	 DWORD PTR __imp_??1?$CStringT@DV?$StrTraitMFC_DLL@DV?$ChTraitsCRT@D@ATL@@@@@ATL@@QAE@XZ
; File D:\git\src\IBK\IBK_DRFN\ProjSrc\SrcChartEx\ChartAddIn\ChartPeriodSummaryAddIn\Include_AddIn\I133691\_IString.h

; 44   : 	{

  001a0	c7 45 fc 03 00
	00 00		 mov	 DWORD PTR __$EHRec$[ebp+8], 3

; 45   : 		if( m_pIStrData)

  001a7	85 ff		 test	 edi, edi
  001a9	74 06		 je	 SHORT $LN30@RecalcLine

; 46   : 		{
; 47   : 			m_pIStrData->Release();

  001ab	8b 07		 mov	 eax, DWORD PTR [edi]
  001ad	57		 push	 edi
  001ae	ff 50 08	 call	 DWORD PTR [eax+8]
$LN30@RecalcLine:
; File D:\git\src\IBK\IBK_DRFN\ProjSrc\SrcChartEx\ChartAddIn\ChartPeriodSummaryAddIn\ChartPeriodSummaryAddInImp.cpp

; 1880 : 	return true;

  001b1	b0 01		 mov	 al, 1

; 1881 : }

  001b3	8b 4d f4	 mov	 ecx, DWORD PTR __$EHRec$[ebp]
  001b6	64 89 0d 00 00
	00 00		 mov	 DWORD PTR fs:0, ecx
  001bd	59		 pop	 ecx
  001be	5f		 pop	 edi
  001bf	5e		 pop	 esi
  001c0	5b		 pop	 ebx
  001c1	8b e5		 mov	 esp, ebp
  001c3	5d		 pop	 ebp
  001c4	c2 08 00	 ret	 8
_TEXT	ENDS
;	COMDAT text$x
text$x	SEGMENT
__unwindfunclet$?RecalcLineXPoint@CChartPeriodSummaryAddInImp@@QAE_NPBDH@Z$0:
  00000	8d 4d e0	 lea	 ecx, DWORD PTR _is$[ebp]
  00003	e9 00 00 00 00	 jmp	 ??1ILPCSTR133691@@QAE@XZ ; ILPCSTR133691::~ILPCSTR133691
__unwindfunclet$?RecalcLineXPoint@CChartPeriodSummaryAddInImp@@QAE_NPBDH@Z$1:
  00008	8d 4d ec	 lea	 ecx, DWORD PTR _strType$[ebp]
  0000b	ff 25 00 00 00
	00		 jmp	 DWORD PTR __imp_??1?$CStringT@DV?$StrTraitMFC_DLL@DV?$ChTraitsCRT@D@ATL@@@@@ATL@@QAE@XZ
__unwindfunclet$?RecalcLineXPoint@CChartPeriodSummaryAddInImp@@QAE_NPBDH@Z$2:
  00011	8b 4d 0c	 mov	 ecx, DWORD PTR $T2[ebp]
  00014	ff 25 00 00 00
	00		 jmp	 DWORD PTR __imp_??1?$CStringT@DV?$StrTraitMFC_DLL@DV?$ChTraitsCRT@D@ATL@@@@@ATL@@QAE@XZ
  0001a	cc		 int	 3
  0001b	cc		 int	 3
  0001c	cc		 int	 3
  0001d	cc		 int	 3
  0001e	cc		 int	 3
__ehhandler$?RecalcLineXPoint@CChartPeriodSummaryAddInImp@@QAE_NPBDH@Z:
  0001f	90		 npad	 1
  00020	90		 npad	 1
  00021	8b 54 24 08	 mov	 edx, DWORD PTR [esp+8]
  00025	8d 42 0c	 lea	 eax, DWORD PTR [edx+12]
  00028	8b 4a d4	 mov	 ecx, DWORD PTR [edx-44]
  0002b	33 c8		 xor	 ecx, eax
  0002d	e8 00 00 00 00	 call	 @__security_check_cookie@4
  00032	b8 00 00 00 00	 mov	 eax, OFFSET __ehfuncinfo$?RecalcLineXPoint@CChartPeriodSummaryAddInImp@@QAE_NPBDH@Z
  00037	e9 00 00 00 00	 jmp	 ___CxxFrameHandler3
text$x	ENDS
?RecalcLineXPoint@CChartPeriodSummaryAddInImp@@QAE_NPBDH@Z ENDP ; CChartPeriodSummaryAddInImp::RecalcLineXPoint
; Function compile flags: /Ogtp
; File D:\git\src\IBK\IBK_DRFN\ProjSrc\SrcChartEx\ChartAddIn\ChartPeriodSummaryAddIn\ChartPeriodSummaryAddInImp.cpp
; File C:\Program Files (x86)\Microsoft Visual Studio\2019\Community\VC\Tools\MSVC\14.29.30133\atlmfc\include\cstringt.h
; File D:\git\src\IBK\IBK_DRFN\ProjSrc\SrcChartEx\ChartAddIn\ChartPeriodSummaryAddIn\ChartPeriodSummaryAddInImp.cpp
; File C:\Program Files (x86)\Microsoft Visual Studio\2019\Community\VC\Tools\MSVC\14.29.30133\atlmfc\include\cstringt.h
; File D:\git\src\IBK\IBK_DRFN\ProjSrc\SrcChartEx\ChartAddIn\ChartPeriodSummaryAddIn\ChartPeriodSummaryAddInImp.cpp
;	COMDAT ?DoubleToString@CChartPeriodSummaryAddInImp@@QAE?AV?$CStringT@DV?$StrTraitMFC_DLL@DV?$ChTraitsCRT@D@ATL@@@@@ATL@@ABN@Z
_TEXT	SEGMENT
$T2 = -16						; size = 4
__$EHRec$ = -12						; size = 12
___$ReturnUdt$ = 8					; size = 4
$T3 = 12						; size = 4
_Num$ = 12						; size = 4
?DoubleToString@CChartPeriodSummaryAddInImp@@QAE?AV?$CStringT@DV?$StrTraitMFC_DLL@DV?$ChTraitsCRT@D@ATL@@@@@ATL@@ABN@Z PROC ; CChartPeriodSummaryAddInImp::DoubleToString, COMDAT
; _this$ = ecx

; 1885 : {

  00000	55		 push	 ebp
  00001	8b ec		 mov	 ebp, esp
  00003	6a ff		 push	 -1
  00005	68 00 00 00 00	 push	 __ehhandler$?DoubleToString@CChartPeriodSummaryAddInImp@@QAE?AV?$CStringT@DV?$StrTraitMFC_DLL@DV?$ChTraitsCRT@D@ATL@@@@@ATL@@ABN@Z
  0000a	64 a1 00 00 00
	00		 mov	 eax, DWORD PTR fs:0
  00010	50		 push	 eax
  00011	51		 push	 ecx
  00012	56		 push	 esi
  00013	a1 00 00 00 00	 mov	 eax, DWORD PTR ___security_cookie
  00018	33 c5		 xor	 eax, ebp
  0001a	50		 push	 eax
  0001b	8d 45 f4	 lea	 eax, DWORD PTR __$EHRec$[ebp]
  0001e	64 a3 00 00 00
	00		 mov	 DWORD PTR fs:0, eax
  00024	c7 45 f0 00 00
	00 00		 mov	 DWORD PTR $T2[ebp], 0

; 1886 : 	//assert(Num != DBL_MAX);
; 1887 : 	//assert(Num != -DBL_MAX);
; 1888 : 	
; 1889 : 	CString strData;

  0002b	8b 75 08	 mov	 esi, DWORD PTR ___$ReturnUdt$[ebp]
  0002e	8b ce		 mov	 ecx, esi
  00030	ff 15 00 00 00
	00		 call	 DWORD PTR __imp_??0?$CStringT@DV?$StrTraitMFC_DLL@DV?$ChTraitsCRT@D@ATL@@@@@ATL@@QAE@XZ

; 1894 : 	
; 1895 : 	return strData;

  00036	8b 45 0c	 mov	 eax, DWORD PTR _Num$[ebp]
  00039	83 ec 08	 sub	 esp, 8
  0003c	c7 45 fc 00 00
	00 00		 mov	 DWORD PTR __$EHRec$[ebp+8], 0
  00043	c7 45 f0 01 00
	00 00		 mov	 DWORD PTR $T2[ebp], 1
  0004a	f2 0f 10 00	 movsd	 xmm0, QWORD PTR [eax]
  0004e	f2 0f 11 04 24	 movsd	 QWORD PTR [esp], xmm0
  00053	68 00 00 00 00	 push	 OFFSET ??_C@_02NJPGOMH@?$CFf@
  00058	56		 push	 esi
  00059	ff 15 00 00 00
	00		 call	 DWORD PTR __imp_?Format@?$CStringT@DV?$StrTraitMFC_DLL@DV?$ChTraitsCRT@D@ATL@@@@@ATL@@QAAXPBDZZ
  0005f	83 c4 10	 add	 esp, 16			; 00000010H
  00062	8b ce		 mov	 ecx, esi
  00064	68 00 00 00 00	 push	 OFFSET ??_C@_01GBGANLPD@0@
  00069	ff 15 00 00 00
	00		 call	 DWORD PTR __imp_?TrimRight@?$CStringT@DV?$StrTraitMFC_DLL@DV?$ChTraitsCRT@D@ATL@@@@@ATL@@QAEAAV12@PBD@Z
  0006f	6a 01		 push	 1
  00071	8d 45 0c	 lea	 eax, DWORD PTR $T3[ebp]
  00074	8b ce		 mov	 ecx, esi
  00076	50		 push	 eax
  00077	ff 15 00 00 00
	00		 call	 DWORD PTR __imp_?Right@?$CStringT@DV?$StrTraitMFC_DLL@DV?$ChTraitsCRT@D@ATL@@@@@ATL@@QBE?AV12@H@Z
  0007d	8b c8		 mov	 ecx, eax
; File C:\Program Files (x86)\Microsoft Visual Studio\2019\Community\VC\Tools\MSVC\14.29.30133\atlmfc\include\cstringt.h

; 2510 : 		return((str1.GetLength() == 1) && (str1[0] == ch2));

  0007f	8b 01		 mov	 eax, DWORD PTR [ecx]
  00081	83 78 f4 01	 cmp	 DWORD PTR [eax-12], 1
  00085	75 36		 jne	 SHORT $LN9@DoubleToSt
  00087	6a 00		 push	 0
  00089	ff 15 00 00 00
	00		 call	 DWORD PTR __imp_??A?$CSimpleStringT@D$00@ATL@@QBEDH@Z
  0008f	3c 2e		 cmp	 al, 46			; 0000002eH
  00091	75 2a		 jne	 SHORT $LN9@DoubleToSt
  00093	8d 4d 0c	 lea	 ecx, DWORD PTR $T3[ebp]
  00096	ff 15 00 00 00
	00		 call	 DWORD PTR __imp_??1?$CStringT@DV?$StrTraitMFC_DLL@DV?$ChTraitsCRT@D@ATL@@@@@ATL@@QAE@XZ
; File D:\git\src\IBK\IBK_DRFN\ProjSrc\SrcChartEx\ChartAddIn\ChartPeriodSummaryAddIn\ChartPeriodSummaryAddInImp.cpp

; 1893 : 		strData.TrimRight(".");

  0009c	68 00 00 00 00	 push	 OFFSET ??_C@_01LFCBOECM@?4@
  000a1	8b ce		 mov	 ecx, esi
  000a3	ff 15 00 00 00
	00		 call	 DWORD PTR __imp_?TrimRight@?$CStringT@DV?$StrTraitMFC_DLL@DV?$ChTraitsCRT@D@ATL@@@@@ATL@@QAEAAV12@PBD@Z

; 1896 : }

  000a9	8b c6		 mov	 eax, esi
  000ab	8b 4d f4	 mov	 ecx, DWORD PTR __$EHRec$[ebp]
  000ae	64 89 0d 00 00
	00 00		 mov	 DWORD PTR fs:0, ecx
  000b5	59		 pop	 ecx
  000b6	5e		 pop	 esi
  000b7	8b e5		 mov	 esp, ebp
  000b9	5d		 pop	 ebp
  000ba	c2 08 00	 ret	 8
$LN9@DoubleToSt:
; File C:\Program Files (x86)\Microsoft Visual Studio\2019\Community\VC\Tools\MSVC\14.29.30133\atlmfc\include\cstringt.h

; 2510 : 		return((str1.GetLength() == 1) && (str1[0] == ch2));

  000bd	8d 4d 0c	 lea	 ecx, DWORD PTR $T3[ebp]
  000c0	ff 15 00 00 00
	00		 call	 DWORD PTR __imp_??1?$CStringT@DV?$StrTraitMFC_DLL@DV?$ChTraitsCRT@D@ATL@@@@@ATL@@QAE@XZ
; File D:\git\src\IBK\IBK_DRFN\ProjSrc\SrcChartEx\ChartAddIn\ChartPeriodSummaryAddIn\ChartPeriodSummaryAddInImp.cpp

; 1896 : }

  000c6	8b c6		 mov	 eax, esi
  000c8	8b 4d f4	 mov	 ecx, DWORD PTR __$EHRec$[ebp]
  000cb	64 89 0d 00 00
	00 00		 mov	 DWORD PTR fs:0, ecx
  000d2	59		 pop	 ecx
  000d3	5e		 pop	 esi
  000d4	8b e5		 mov	 esp, ebp
  000d6	5d		 pop	 ebp
  000d7	c2 08 00	 ret	 8
_TEXT	ENDS
;	COMDAT text$x
text$x	SEGMENT
__unwindfunclet$?DoubleToString@CChartPeriodSummaryAddInImp@@QAE?AV?$CStringT@DV?$StrTraitMFC_DLL@DV?$ChTraitsCRT@D@ATL@@@@@ATL@@ABN@Z$0:
  00000	8b 45 f0	 mov	 eax, DWORD PTR $T2[ebp]
  00003	83 e0 01	 and	 eax, 1
  00006	0f 84 0d 00 00
	00		 je	 $LN5@DoubleToSt
  0000c	83 65 f0 fe	 and	 DWORD PTR $T2[ebp], -2	; fffffffeH
  00010	8b 4d 08	 mov	 ecx, DWORD PTR ___$ReturnUdt$[ebp]
  00013	ff 25 00 00 00
	00		 jmp	 DWORD PTR __imp_??1?$CStringT@DV?$StrTraitMFC_DLL@DV?$ChTraitsCRT@D@ATL@@@@@ATL@@QAE@XZ
$LN5@DoubleToSt:
  00019	c3		 ret	 0
  0001a	cc		 int	 3
  0001b	cc		 int	 3
  0001c	cc		 int	 3
  0001d	cc		 int	 3
  0001e	cc		 int	 3
__ehhandler$?DoubleToString@CChartPeriodSummaryAddInImp@@QAE?AV?$CStringT@DV?$StrTraitMFC_DLL@DV?$ChTraitsCRT@D@ATL@@@@@ATL@@ABN@Z:
  0001f	90		 npad	 1
  00020	90		 npad	 1
  00021	8b 54 24 08	 mov	 edx, DWORD PTR [esp+8]
  00025	8d 42 0c	 lea	 eax, DWORD PTR [edx+12]
  00028	8b 4a f4	 mov	 ecx, DWORD PTR [edx-12]
  0002b	33 c8		 xor	 ecx, eax
  0002d	e8 00 00 00 00	 call	 @__security_check_cookie@4
  00032	b8 00 00 00 00	 mov	 eax, OFFSET __ehfuncinfo$?DoubleToString@CChartPeriodSummaryAddInImp@@QAE?AV?$CStringT@DV?$StrTraitMFC_DLL@DV?$ChTraitsCRT@D@ATL@@@@@ATL@@ABN@Z
  00037	e9 00 00 00 00	 jmp	 ___CxxFrameHandler3
text$x	ENDS
?DoubleToString@CChartPeriodSummaryAddInImp@@QAE?AV?$CStringT@DV?$StrTraitMFC_DLL@DV?$ChTraitsCRT@D@ATL@@@@@ATL@@ABN@Z ENDP ; CChartPeriodSummaryAddInImp::DoubleToString
; Function compile flags: /Ogtp
; File D:\git\src\IBK\IBK_DRFN\ProjSrc\SrcChartEx\ChartAddIn\ChartPeriodSummaryAddIn\ChartPeriodSummaryAddInImp.cpp
;	COMDAT ?GetData_X@CChartPeriodSummaryAddInImp@@QAEHABVCPoint@@AA_J@Z
_TEXT	SEGMENT
_nBlockColumn$ = -12					; size = 4
_nCenter_x$ = -8					; size = 4
_nCol$ = -4						; size = 4
_nRow$ = 8						; size = 4
_point$ = 8						; size = 4
_lx$ = 12						; size = 4
?GetData_X@CChartPeriodSummaryAddInImp@@QAEHABVCPoint@@AA_J@Z PROC ; CChartPeriodSummaryAddInImp::GetData_X, COMDAT
; _this$ = ecx

; 1822 : {

  00000	55		 push	 ebp
  00001	8b ec		 mov	 ebp, esp
  00003	83 ec 0c	 sub	 esp, 12			; 0000000cH
  00006	56		 push	 esi

; 1823 : 	int nBlockColumn, nCenter_x;
; 1824 : 	int nRow, nCol;
; 1825 : 	m_pIChartManager->GetBlockIndex(point, nRow, nCol);

  00007	8b 75 08	 mov	 esi, DWORD PTR _point$[ebp]
  0000a	8d 55 fc	 lea	 edx, DWORD PTR _nCol$[ebp]
  0000d	57		 push	 edi
  0000e	8b f9		 mov	 edi, ecx
  00010	52		 push	 edx
  00011	8d 55 08	 lea	 edx, DWORD PTR _nRow$[ebp]
  00014	52		 push	 edx
  00015	8b 4f 28	 mov	 ecx, DWORD PTR [edi+40]
  00018	ff 76 04	 push	 DWORD PTR [esi+4]
  0001b	ff 36		 push	 DWORD PTR [esi]
  0001d	8b 01		 mov	 eax, DWORD PTR [ecx]
  0001f	ff 90 8c 00 00
	00		 call	 DWORD PTR [eax+140]

; 1826 : 	if(nRow<0 || nCol<0)

  00025	83 7d 08 00	 cmp	 DWORD PTR _nRow$[ebp], 0
  00029	7c 3b		 jl	 SHORT $LN4@GetData_X
  0002b	8b 55 fc	 mov	 edx, DWORD PTR _nCol$[ebp]
  0002e	85 d2		 test	 edx, edx
  00030	78 34		 js	 SHORT $LN4@GetData_X

; 1828 : 	else
; 1829 : 		// 2011.01.06 by LYH >>  YYYY() 
; 1830 : 		//lx = ( long)m_pIChartManager->GetDoubleFromX(nRow, nCol, point.x, &nBlockColumn, nCenter_x);
; 1831 : 		lx = ( __int64)m_pIChartManager->GetDoubleFromX(nRow, nCol, point.x, &nBlockColumn, nCenter_x);

  00032	8b 4f 28	 mov	 ecx, DWORD PTR [edi+40]
  00035	8d 7d f8	 lea	 edi, DWORD PTR _nCenter_x$[ebp]
  00038	6a 00		 push	 0
  0003a	57		 push	 edi
  0003b	8d 7d f4	 lea	 edi, DWORD PTR _nBlockColumn$[ebp]
  0003e	8b 01		 mov	 eax, DWORD PTR [ecx]
  00040	57		 push	 edi
  00041	ff 36		 push	 DWORD PTR [esi]
  00043	8b 80 10 01 00
	00		 mov	 eax, DWORD PTR [eax+272]
  00049	52		 push	 edx
  0004a	ff 75 08	 push	 DWORD PTR _nRow$[ebp]
  0004d	ff d0		 call	 eax
  0004f	e8 00 00 00 00	 call	 __ftol2
  00054	8b 4d 0c	 mov	 ecx, DWORD PTR _lx$[ebp]
  00057	5f		 pop	 edi

; 1832 : 		// 2011.01.06 by LYH <<
; 1833 : 	return R_OK;
; 1834 : }

  00058	5e		 pop	 esi
  00059	89 01		 mov	 DWORD PTR [ecx], eax
  0005b	33 c0		 xor	 eax, eax
  0005d	89 51 04	 mov	 DWORD PTR [ecx+4], edx
  00060	8b e5		 mov	 esp, ebp
  00062	5d		 pop	 ebp
  00063	c2 08 00	 ret	 8
$LN4@GetData_X:
  00066	5f		 pop	 edi

; 1827 : 		return R_ERROR;

  00067	83 c8 ff	 or	 eax, -1

; 1832 : 		// 2011.01.06 by LYH <<
; 1833 : 	return R_OK;
; 1834 : }

  0006a	5e		 pop	 esi
  0006b	8b e5		 mov	 esp, ebp
  0006d	5d		 pop	 ebp
  0006e	c2 08 00	 ret	 8
?GetData_X@CChartPeriodSummaryAddInImp@@QAEHABVCPoint@@AA_J@Z ENDP ; CChartPeriodSummaryAddInImp::GetData_X
_TEXT	ENDS
; Function compile flags: /Ogtp
; File D:\git\src\IBK\IBK_DRFN\ProjSrc\SrcChartEx\ChartAddIn\ChartPeriodSummaryAddIn\ChartPeriodSummaryAddInImp.cpp
; File C:\Program Files (x86)\Microsoft Visual Studio\2019\Community\VC\Tools\MSVC\14.29.30133\atlmfc\include\afxcoll.inl
; File D:\git\src\IBK\IBK_DRFN\ProjSrc\SrcChartEx\ChartAddIn\ChartPeriodSummaryAddIn\ChartPeriodSummaryAddInImp.cpp
;	COMDAT ??1CChartPeriodSummaryAddInImp@@UAE@XZ
_TEXT	SEGMENT
__$EHRec$ = -12						; size = 12
??1CChartPeriodSummaryAddInImp@@UAE@XZ PROC		; CChartPeriodSummaryAddInImp::~CChartPeriodSummaryAddInImp, COMDAT
; _this$ = ecx

; 46   : {

  00000	55		 push	 ebp
  00001	8b ec		 mov	 ebp, esp
  00003	6a ff		 push	 -1
  00005	68 00 00 00 00	 push	 __ehhandler$??1CChartPeriodSummaryAddInImp@@UAE@XZ
  0000a	64 a1 00 00 00
	00		 mov	 eax, DWORD PTR fs:0
  00010	50		 push	 eax
  00011	56		 push	 esi
  00012	57		 push	 edi
  00013	a1 00 00 00 00	 mov	 eax, DWORD PTR ___security_cookie
  00018	33 c5		 xor	 eax, ebp
  0001a	50		 push	 eax
  0001b	8d 45 f4	 lea	 eax, DWORD PTR __$EHRec$[ebp]
  0001e	64 a3 00 00 00
	00		 mov	 DWORD PTR fs:0, eax
  00024	8b f9		 mov	 edi, ecx

; 47   : 	POSITION pos = m_LineList.GetHeadPosition();

  00026	8b b7 90 00 00
	00		 mov	 esi, DWORD PTR [edi+144]
  0002c	c7 07 00 00 00
	00		 mov	 DWORD PTR [edi], OFFSET ??_7CChartPeriodSummaryAddInImp@@6BCIWUnknown@@@
  00032	c7 47 08 00 00
	00 00		 mov	 DWORD PTR [edi+8], OFFSET ??_7CChartPeriodSummaryAddInImp@@6BIChartAddIn133691@@@

; 48   : 	while (pos)

  00039	85 f6		 test	 esi, esi
  0003b	74 17		 je	 SHORT $LN3@CChartPeri
  0003d	0f 1f 00	 npad	 3
$LL2@CChartPeri:

; 51   : 		delete pLine;

  00040	8b 4e 08	 mov	 ecx, DWORD PTR [esi+8]
; File C:\Program Files (x86)\Microsoft Visual Studio\2019\Community\VC\Tools\MSVC\14.29.30133\atlmfc\include\afxcoll.inl

; 432  : 		rPosition = (POSITION) pNode->pNext;

  00043	8b 36		 mov	 esi, DWORD PTR [esi]
; File D:\git\src\IBK\IBK_DRFN\ProjSrc\SrcChartEx\ChartAddIn\ChartPeriodSummaryAddIn\ChartPeriodSummaryAddInImp.cpp

; 51   : 		delete pLine;

  00045	85 c9		 test	 ecx, ecx
  00047	74 07		 je	 SHORT $LN5@CChartPeri
  00049	8b 01		 mov	 eax, DWORD PTR [ecx]
  0004b	6a 01		 push	 1
  0004d	ff 50 04	 call	 DWORD PTR [eax+4]
$LN5@CChartPeri:

; 48   : 	while (pos)

  00050	85 f6		 test	 esi, esi
  00052	75 ec		 jne	 SHORT $LL2@CChartPeri
$LN3@CChartPeri:

; 52   : 		pLine = NULL;
; 53   : 	}
; 54   : 	m_LineList.RemoveAll();

  00054	8d 8f 8c 00 00
	00		 lea	 ecx, DWORD PTR [edi+140]
  0005a	e8 00 00 00 00	 call	 ?RemoveAll@CObList@@QAEXXZ ; CObList::RemoveAll

; 55   : //	delete m_pBmp;
; 56   : }

  0005f	8d 8f dc 00 00
	00		 lea	 ecx, DWORD PTR [edi+220]
  00065	ff 15 00 00 00
	00		 call	 DWORD PTR __imp_??1?$CStringT@DV?$StrTraitMFC_DLL@DV?$ChTraitsCRT@D@ATL@@@@@ATL@@QAE@XZ
  0006b	8d 8f d8 00 00
	00		 lea	 ecx, DWORD PTR [edi+216]
  00071	ff 15 00 00 00
	00		 call	 DWORD PTR __imp_??1?$CStringT@DV?$StrTraitMFC_DLL@DV?$ChTraitsCRT@D@ATL@@@@@ATL@@QAE@XZ
  00077	8d 8f 8c 00 00
	00		 lea	 ecx, DWORD PTR [edi+140]
  0007d	e8 00 00 00 00	 call	 ??1CObList@@UAE@XZ	; CObList::~CObList
  00082	8d 4f 40	 lea	 ecx, DWORD PTR [edi+64]
  00085	ff 15 00 00 00
	00		 call	 DWORD PTR __imp_??1?$CStringT@DV?$StrTraitMFC_DLL@DV?$ChTraitsCRT@D@ATL@@@@@ATL@@QAE@XZ
  0008b	8b cf		 mov	 ecx, edi
  0008d	e8 00 00 00 00	 call	 ??1CChartAddInBase133691@@MAE@XZ ; CChartAddInBase133691::~CChartAddInBase133691
  00092	8b 4d f4	 mov	 ecx, DWORD PTR __$EHRec$[ebp]
  00095	64 89 0d 00 00
	00 00		 mov	 DWORD PTR fs:0, ecx
  0009c	59		 pop	 ecx
  0009d	5f		 pop	 edi
  0009e	5e		 pop	 esi
  0009f	8b e5		 mov	 esp, ebp
  000a1	5d		 pop	 ebp
  000a2	c3		 ret	 0
  000a3	cc		 int	 3
  000a4	cc		 int	 3
  000a5	cc		 int	 3
  000a6	cc		 int	 3
  000a7	cc		 int	 3
_TEXT	ENDS
;	COMDAT text$x
text$x	SEGMENT
__ehhandler$??1CChartPeriodSummaryAddInImp@@UAE@XZ:
  00000	90		 npad	 1
  00001	90		 npad	 1
  00002	8b 54 24 08	 mov	 edx, DWORD PTR [esp+8]
  00006	8d 42 0c	 lea	 eax, DWORD PTR [edx+12]
  00009	8b 4a f4	 mov	 ecx, DWORD PTR [edx-12]
  0000c	33 c8		 xor	 ecx, eax
  0000e	e8 00 00 00 00	 call	 @__security_check_cookie@4
  00013	b8 00 00 00 00	 mov	 eax, OFFSET __ehfuncinfo$??1CChartPeriodSummaryAddInImp@@UAE@XZ
  00018	e9 00 00 00 00	 jmp	 ___CxxFrameHandler3
text$x	ENDS
??1CChartPeriodSummaryAddInImp@@UAE@XZ ENDP		; CChartPeriodSummaryAddInImp::~CChartPeriodSummaryAddInImp
; Function compile flags: /Ogtp
; File D:\git\src\IBK\IBK_DRFN\ProjSrc\SrcChartEx\ChartAddIn\ChartPeriodSummaryAddIn\ChartPeriodSummaryAddInImp.cpp
; File C:\Program Files (x86)\Microsoft Visual Studio\2019\Community\VC\Tools\MSVC\14.29.30133\atlmfc\include\atltypes.h
; File D:\git\src\IBK\IBK_DRFN\ProjSrc\SrcChartEx\ChartAddIn\ChartPeriodSummaryAddIn\ChartPeriodSummaryAddInImp.cpp
; File C:\Program Files (x86)\Microsoft Visual Studio\2019\Community\VC\Tools\MSVC\14.29.30133\atlmfc\include\atltypes.h
; File D:\git\src\IBK\IBK_DRFN\ProjSrc\SrcChartEx\ChartAddIn\ChartPeriodSummaryAddIn\ChartPeriodSummaryAddInImp.cpp
; File C:\Program Files (x86)\Microsoft Visual Studio\2019\Community\VC\Tools\MSVC\14.29.30133\atlmfc\include\atltypes.h
; File D:\git\src\IBK\IBK_DRFN\ProjSrc\SrcChartEx\ChartAddIn\ChartPeriodSummaryAddIn\ChartPeriodSummaryAddInImp.cpp
; File C:\Program Files (x86)\Microsoft Visual Studio\2019\Community\VC\Tools\MSVC\14.29.30133\atlmfc\include\atltypes.h
; File D:\git\src\IBK\IBK_DRFN\ProjSrc\SrcChartEx\ChartAddIn\ChartPeriodSummaryAddIn\ChartPeriodSummaryAddInImp.cpp
;	COMDAT ??0CChartPeriodSummaryAddInImp@@QAE@PAUIChartOCX133691@@PAUIAddInDllBase@@@Z
_TEXT	SEGMENT
_this$ = -16						; size = 4
__$EHRec$ = -12						; size = 12
_p_pIChartOCX$ = 8					; size = 4
_p_pIAddInDllBase$ = 12					; size = 4
??0CChartPeriodSummaryAddInImp@@QAE@PAUIChartOCX133691@@PAUIAddInDllBase@@@Z PROC ; CChartPeriodSummaryAddInImp::CChartPeriodSummaryAddInImp, COMDAT
; _this$ = ecx

; 38   : {

  00000	55		 push	 ebp
  00001	8b ec		 mov	 ebp, esp
  00003	6a ff		 push	 -1
  00005	68 00 00 00 00	 push	 __ehhandler$??0CChartPeriodSummaryAddInImp@@QAE@PAUIChartOCX133691@@PAUIAddInDllBase@@@Z
  0000a	64 a1 00 00 00
	00		 mov	 eax, DWORD PTR fs:0
  00010	50		 push	 eax
  00011	51		 push	 ecx
  00012	56		 push	 esi
  00013	57		 push	 edi
  00014	a1 00 00 00 00	 mov	 eax, DWORD PTR ___security_cookie
  00019	33 c5		 xor	 eax, ebp
  0001b	50		 push	 eax
  0001c	8d 45 f4	 lea	 eax, DWORD PTR __$EHRec$[ebp]
  0001f	64 a3 00 00 00
	00		 mov	 DWORD PTR fs:0, eax
  00025	8b f1		 mov	 esi, ecx
  00027	89 75 f0	 mov	 DWORD PTR _this$[ebp], esi

; 29   : 	: CChartAddInBase( p_pIChartOCX, p_pIAddInDllBase)

  0002a	ff 75 0c	 push	 DWORD PTR _p_pIAddInDllBase$[ebp]
  0002d	8b 7d 08	 mov	 edi, DWORD PTR _p_pIChartOCX$[ebp]
  00030	57		 push	 edi
  00031	e8 00 00 00 00	 call	 ??0CChartAddInBase133691@@IAE@PAUIChartOCX133691@@PAUIAddInDllBase@@@Z ; CChartAddInBase133691::CChartAddInBase133691

; 38   : {

  00036	8d 4e 40	 lea	 ecx, DWORD PTR [esi+64]
  00039	c7 45 fc 00 00
	00 00		 mov	 DWORD PTR __$EHRec$[ebp+8], 0
  00040	c7 06 00 00 00
	00		 mov	 DWORD PTR [esi], OFFSET ??_7CChartPeriodSummaryAddInImp@@6BCIWUnknown@@@
  00046	c7 46 08 00 00
	00 00		 mov	 DWORD PTR [esi+8], OFFSET ??_7CChartPeriodSummaryAddInImp@@6BIChartAddIn133691@@@
  0004d	ff 15 00 00 00
	00		 call	 DWORD PTR __imp_??0?$CStringT@DV?$StrTraitMFC_DLL@DV?$ChTraitsCRT@D@ATL@@@@@ATL@@QAE@XZ

; 37   : ,	m_bLoadData(FALSE)

  00053	c7 46 44 00 00
	00 00		 mov	 DWORD PTR [esi+68], 0

; 38   : {

  0005a	8d 8e 8c 00 00
	00		 lea	 ecx, DWORD PTR [esi+140]
  00060	c7 46 48 00 00
	00 00		 mov	 DWORD PTR [esi+72], 0
; File C:\Program Files (x86)\Microsoft Visual Studio\2019\Community\VC\Tools\MSVC\14.29.30133\atlmfc\include\atltypes.h

; 400  : 	x = 0;

  00067	c7 46 4c 00 00
	00 00		 mov	 DWORD PTR [esi+76], 0

; 401  : 	y = 0;

  0006e	c7 46 50 00 00
	00 00		 mov	 DWORD PTR [esi+80], 0
; File D:\git\src\IBK\IBK_DRFN\ProjSrc\SrcChartEx\ChartAddIn\ChartPeriodSummaryAddIn\ChartPeriodSummaryAddInImp.cpp

; 36   : ,	m_bDrag(FALSE)

  00075	c7 46 54 00 00
	00 00		 mov	 DWORD PTR [esi+84], 0

; 30   : ,	m_nMouseClickStatus(0)	// No click
; 31   : ,	m_bCentered(TRUE)
; 32   : ,	m_nCommandType(0)
; 33   : ,	m_bAttachData(FALSE)
; 34   : ,	m_bMouseCaptured(FALSE)

  0007c	c7 46 58 00 00
	00 00		 mov	 DWORD PTR [esi+88], 0
; File C:\Program Files (x86)\Microsoft Visual Studio\2019\Community\VC\Tools\MSVC\14.29.30133\atlmfc\include\atltypes.h

; 400  : 	x = 0;

  00083	c7 46 5c 00 00
	00 00		 mov	 DWORD PTR [esi+92], 0

; 401  : 	y = 0;

  0008a	c7 46 60 00 00
	00 00		 mov	 DWORD PTR [esi+96], 0
; File D:\git\src\IBK\IBK_DRFN\ProjSrc\SrcChartEx\ChartAddIn\ChartPeriodSummaryAddIn\ChartPeriodSummaryAddInImp.cpp

; 38   : {

  00091	6a 0a		 push	 10			; 0000000aH
  00093	c6 45 fc 01	 mov	 BYTE PTR __$EHRec$[ebp+8], 1
  00097	c7 46 70 00 00
	00 00		 mov	 DWORD PTR [esi+112], 0
  0009e	c7 46 74 01 00
	00 00		 mov	 DWORD PTR [esi+116], 1
  000a5	c7 46 78 00 00
	00 00		 mov	 DWORD PTR [esi+120], 0
  000ac	c7 86 80 00 00
	00 00 00 00 00	 mov	 DWORD PTR [esi+128], 0
  000b6	e8 00 00 00 00	 call	 ??0CObList@@QAE@H@Z	; CObList::CObList
; File C:\Program Files (x86)\Microsoft Visual Studio\2019\Community\VC\Tools\MSVC\14.29.30133\atlmfc\include\atltypes.h

; 528  : 	left = 0;

  000bb	c7 86 a8 00 00
	00 00 00 00 00	 mov	 DWORD PTR [esi+168], 0
; File D:\git\src\IBK\IBK_DRFN\ProjSrc\SrcChartEx\ChartAddIn\ChartPeriodSummaryAddIn\ChartPeriodSummaryAddInImp.cpp

; 38   : {

  000c5	8d 8e d8 00 00
	00		 lea	 ecx, DWORD PTR [esi+216]
; File C:\Program Files (x86)\Microsoft Visual Studio\2019\Community\VC\Tools\MSVC\14.29.30133\atlmfc\include\atltypes.h

; 529  : 	top = 0;

  000cb	c7 86 ac 00 00
	00 00 00 00 00	 mov	 DWORD PTR [esi+172], 0

; 530  : 	right = 0;

  000d5	c7 86 b0 00 00
	00 00 00 00 00	 mov	 DWORD PTR [esi+176], 0

; 531  : 	bottom = 0;

  000df	c7 86 b4 00 00
	00 00 00 00 00	 mov	 DWORD PTR [esi+180], 0

; 400  : 	x = 0;

  000e9	c7 86 b8 00 00
	00 00 00 00 00	 mov	 DWORD PTR [esi+184], 0

; 401  : 	y = 0;

  000f3	c7 86 bc 00 00
	00 00 00 00 00	 mov	 DWORD PTR [esi+188], 0

; 400  : 	x = 0;

  000fd	c7 86 c0 00 00
	00 00 00 00 00	 mov	 DWORD PTR [esi+192], 0

; 401  : 	y = 0;

  00107	c7 86 c4 00 00
	00 00 00 00 00	 mov	 DWORD PTR [esi+196], 0
; File D:\git\src\IBK\IBK_DRFN\ProjSrc\SrcChartEx\ChartAddIn\ChartPeriodSummaryAddIn\ChartPeriodSummaryAddInImp.cpp

; 38   : {

  00111	ff 15 00 00 00
	00		 call	 DWORD PTR __imp_??0?$CStringT@DV?$StrTraitMFC_DLL@DV?$ChTraitsCRT@D@ATL@@@@@ATL@@QAE@XZ
  00117	8d 8e dc 00 00
	00		 lea	 ecx, DWORD PTR [esi+220]
  0011d	ff 15 00 00 00
	00		 call	 DWORD PTR __imp_??0?$CStringT@DV?$StrTraitMFC_DLL@DV?$ChTraitsCRT@D@ATL@@@@@ATL@@QAE@XZ
  00123	c6 45 fc 04	 mov	 BYTE PTR __$EHRec$[ebp+8], 4

; 39   : 	//{{2008.01.30 by LYH
; 40   : 	m_hOcxWnd = NULL;

  00127	c7 46 14 00 00
	00 00		 mov	 DWORD PTR [esi+20], 0

; 41   : 	if( p_pIChartOCX) m_hOcxWnd = p_pIChartOCX->GetOcxHwnd();

  0012e	85 ff		 test	 edi, edi
  00130	74 0a		 je	 SHORT $LN19@CChartPeri
  00132	8b 07		 mov	 eax, DWORD PTR [edi]
  00134	8b cf		 mov	 ecx, edi
  00136	ff 50 40	 call	 DWORD PTR [eax+64]
  00139	89 46 14	 mov	 DWORD PTR [esi+20], eax
$LN19@CChartPeri:

; 42   : 	//}}
; 43   : }

  0013c	8b c6		 mov	 eax, esi
  0013e	8b 4d f4	 mov	 ecx, DWORD PTR __$EHRec$[ebp]
  00141	64 89 0d 00 00
	00 00		 mov	 DWORD PTR fs:0, ecx
  00148	59		 pop	 ecx
  00149	5f		 pop	 edi
  0014a	5e		 pop	 esi
  0014b	8b e5		 mov	 esp, ebp
  0014d	5d		 pop	 ebp
  0014e	c2 08 00	 ret	 8
_TEXT	ENDS
;	COMDAT text$x
text$x	SEGMENT
__unwindfunclet$??0CChartPeriodSummaryAddInImp@@QAE@PAUIChartOCX133691@@PAUIAddInDllBase@@@Z$0:
  00000	8b 4d f0	 mov	 ecx, DWORD PTR _this$[ebp]
  00003	e9 00 00 00 00	 jmp	 ??1CChartAddInBase133691@@MAE@XZ ; CChartAddInBase133691::~CChartAddInBase133691
__unwindfunclet$??0CChartPeriodSummaryAddInImp@@QAE@PAUIChartOCX133691@@PAUIAddInDllBase@@@Z$1:
  00008	8b 4d f0	 mov	 ecx, DWORD PTR _this$[ebp]
  0000b	83 c1 40	 add	 ecx, 64			; 00000040H
  0000e	ff 25 00 00 00
	00		 jmp	 DWORD PTR __imp_??1?$CStringT@DV?$StrTraitMFC_DLL@DV?$ChTraitsCRT@D@ATL@@@@@ATL@@QAE@XZ
__unwindfunclet$??0CChartPeriodSummaryAddInImp@@QAE@PAUIChartOCX133691@@PAUIAddInDllBase@@@Z$2:
  00014	8b 4d f0	 mov	 ecx, DWORD PTR _this$[ebp]
  00017	81 c1 8c 00 00
	00		 add	 ecx, 140		; 0000008cH
  0001d	e9 00 00 00 00	 jmp	 ??1CObList@@UAE@XZ	; CObList::~CObList
__unwindfunclet$??0CChartPeriodSummaryAddInImp@@QAE@PAUIChartOCX133691@@PAUIAddInDllBase@@@Z$3:
  00022	8b 4d f0	 mov	 ecx, DWORD PTR _this$[ebp]
  00025	81 c1 d8 00 00
	00		 add	 ecx, 216		; 000000d8H
  0002b	ff 25 00 00 00
	00		 jmp	 DWORD PTR __imp_??1?$CStringT@DV?$StrTraitMFC_DLL@DV?$ChTraitsCRT@D@ATL@@@@@ATL@@QAE@XZ
__unwindfunclet$??0CChartPeriodSummaryAddInImp@@QAE@PAUIChartOCX133691@@PAUIAddInDllBase@@@Z$4:
  00031	8b 4d f0	 mov	 ecx, DWORD PTR _this$[ebp]
  00034	81 c1 dc 00 00
	00		 add	 ecx, 220		; 000000dcH
  0003a	ff 25 00 00 00
	00		 jmp	 DWORD PTR __imp_??1?$CStringT@DV?$StrTraitMFC_DLL@DV?$ChTraitsCRT@D@ATL@@@@@ATL@@QAE@XZ
  00040	cc		 int	 3
  00041	cc		 int	 3
  00042	cc		 int	 3
  00043	cc		 int	 3
  00044	cc		 int	 3
__ehhandler$??0CChartPeriodSummaryAddInImp@@QAE@PAUIChartOCX133691@@PAUIAddInDllBase@@@Z:
  00045	90		 npad	 1
  00046	90		 npad	 1
  00047	8b 54 24 08	 mov	 edx, DWORD PTR [esp+8]
  0004b	8d 42 0c	 lea	 eax, DWORD PTR [edx+12]
  0004e	8b 4a f0	 mov	 ecx, DWORD PTR [edx-16]
  00051	33 c8		 xor	 ecx, eax
  00053	e8 00 00 00 00	 call	 @__security_check_cookie@4
  00058	b8 00 00 00 00	 mov	 eax, OFFSET __ehfuncinfo$??0CChartPeriodSummaryAddInImp@@QAE@PAUIChartOCX133691@@PAUIAddInDllBase@@@Z
  0005d	e9 00 00 00 00	 jmp	 ___CxxFrameHandler3
text$x	ENDS
??0CChartPeriodSummaryAddInImp@@QAE@PAUIChartOCX133691@@PAUIAddInDllBase@@@Z ENDP ; CChartPeriodSummaryAddInImp::CChartPeriodSummaryAddInImp
; Function compile flags: /Ogtp
; File D:\git\src\IBK\IBK_DRFN\ProjSrc\SrcChartEx\ChartAddIn\ChartPeriodSummaryAddIn\ChartPeriodSummaryAddInImp.cpp
; File D:\git\src\IBK\IBK_DRFN\ProjSrc\SrcChartEx\ChartAddIn\ChartPeriodSummaryAddIn\Include_AddIn\I133691\_IString.h
; File D:\git\src\IBK\IBK_DRFN\ProjSrc\SrcChartEx\ChartAddIn\ChartPeriodSummaryAddIn\ChartPeriodSummaryAddInImp.cpp
; File D:\git\src\IBK\IBK_DRFN\ProjSrc\SrcChartEx\ChartAddIn\ChartPeriodSummaryAddIn\Include_AddIn\I133691\_IString.h
; File D:\git\src\IBK\IBK_DRFN\ProjSrc\SrcChartEx\ChartAddIn\ChartPeriodSummaryAddIn\ChartPeriodSummaryAddInImp.cpp
; File C:\Program Files (x86)\Microsoft Visual Studio\2019\Community\VC\Tools\MSVC\14.29.30133\atlmfc\include\atltypes.h
; File D:\git\src\IBK\IBK_DRFN\ProjSrc\SrcChartEx\ChartAddIn\ChartPeriodSummaryAddIn\ChartPeriodSummaryAddInImp.cpp
; File D:\git\src\IBK\IBK_DRFN\ProjSrc\SrcChartEx\ChartAddIn\ChartPeriodSummaryAddIn\Include_AddIn\I133691\_IString.h
; File D:\git\src\IBK\IBK_DRFN\ProjSrc\SrcChartEx\ChartAddIn\ChartPeriodSummaryAddIn\ChartPeriodSummaryAddInImp.cpp
;	COMDAT ?GetChartBasicData@CChartPeriodSummaryAddInImp@@QAEHPAVCPeriodObj@@@Z
_TEXT	SEGMENT
_nG$ = -56						; size = 4
_szGraphName$ = -52					; size = 8
_nR$ = -44						; size = 4
_pIBlock$1$ = -40					; size = 4
_nV$ = -36						; size = 4
$T2 = -32						; size = 16
__$ArrayPad$ = -16					; size = 4
__$EHRec$ = -12						; size = 12
_p_pLine$ = 8						; size = 4
?GetChartBasicData@CChartPeriodSummaryAddInImp@@QAEHPAVCPeriodObj@@@Z PROC ; CChartPeriodSummaryAddInImp::GetChartBasicData, COMDAT
; _this$ = ecx

; 782  : {

  00000	55		 push	 ebp
  00001	8b ec		 mov	 ebp, esp
  00003	6a ff		 push	 -1
  00005	68 00 00 00 00	 push	 __ehhandler$?GetChartBasicData@CChartPeriodSummaryAddInImp@@QAEHPAVCPeriodObj@@@Z
  0000a	64 a1 00 00 00
	00		 mov	 eax, DWORD PTR fs:0
  00010	50		 push	 eax
  00011	83 ec 2c	 sub	 esp, 44			; 0000002cH
  00014	a1 00 00 00 00	 mov	 eax, DWORD PTR ___security_cookie
  00019	33 c5		 xor	 eax, ebp
  0001b	89 45 f0	 mov	 DWORD PTR __$ArrayPad$[ebp], eax
  0001e	53		 push	 ebx
  0001f	56		 push	 esi
  00020	57		 push	 edi
  00021	50		 push	 eax
  00022	8d 45 f4	 lea	 eax, DWORD PTR __$EHRec$[ebp]
  00025	64 a3 00 00 00
	00		 mov	 DWORD PTR fs:0, eax
  0002b	8b f1		 mov	 esi, ecx
  0002d	8b 5d 08	 mov	 ebx, DWORD PTR _p_pLine$[ebp]

; 785  : 	ILPCSTR szGraphName = m_pIChartManager->FindFirstIndicator( _MTEXT( C2_PRICE_CHART), nR, p_pLine->m_nCol, nV, nG, p_pLine->m_strRQ);

  00030	8d 7d c8	 lea	 edi, DWORD PTR _nG$[ebp]
  00033	8b 4e 28	 mov	 ecx, DWORD PTR [esi+40]
  00036	ff b3 f4 01 00
	00		 push	 DWORD PTR [ebx+500]
  0003c	8b 83 f8 01 00
	00		 mov	 eax, DWORD PTR [ebx+504]
  00042	57		 push	 edi
  00043	48		 dec	 eax
  00044	8d 7d dc	 lea	 edi, DWORD PTR _nV$[ebp]
  00047	89 45 d4	 mov	 DWORD PTR _nR$[ebp], eax
  0004a	8d 83 fc 01 00
	00		 lea	 eax, DWORD PTR [ebx+508]
  00050	8b 11		 mov	 edx, DWORD PTR [ecx]
  00052	57		 push	 edi
  00053	50		 push	 eax
  00054	8d 45 d4	 lea	 eax, DWORD PTR _nR$[ebp]
  00057	50		 push	 eax
  00058	a1 54 00 00 00	 mov	 eax, DWORD PTR ?g_iMetaTable@@3VIMetaTable@@A+84
  0005d	ff b0 28 03 00
	00		 push	 DWORD PTR [eax+808]
  00063	ff 52 70	 call	 DWORD PTR [edx+112]
; File D:\git\src\IBK\IBK_DRFN\ProjSrc\SrcChartEx\ChartAddIn\ChartPeriodSummaryAddIn\Include_AddIn\I133691\_IString.h

; 39   : 		m_pIStrData = p_pIString;	// Do not AddRef(). Because It must be Return Value.

  00066	8b f8		 mov	 edi, eax
  00068	89 7d d0	 mov	 DWORD PTR _szGraphName$[ebp+4], edi

; 40   : 		if( m_pIStrData) m_szData = m_pIStrData->GetData();

  0006b	85 ff		 test	 edi, edi
  0006d	74 09		 je	 SHORT $LN12@GetChartBa
  0006f	8b 17		 mov	 edx, DWORD PTR [edi]
  00071	8b cf		 mov	 ecx, edi
  00073	ff 52 10	 call	 DWORD PTR [edx+16]
  00076	eb 02		 jmp	 SHORT $LN28@GetChartBa
$LN12@GetChartBa:

; 41   : 		else m_szData = NULL;

  00078	33 c0		 xor	 eax, eax
$LN28@GetChartBa:
; File D:\git\src\IBK\IBK_DRFN\ProjSrc\SrcChartEx\ChartAddIn\ChartPeriodSummaryAddIn\ChartPeriodSummaryAddInImp.cpp

; 785  : 	ILPCSTR szGraphName = m_pIChartManager->FindFirstIndicator( _MTEXT( C2_PRICE_CHART), nR, p_pLine->m_nCol, nV, nG, p_pLine->m_strRQ);

  0007a	89 45 cc	 mov	 DWORD PTR _szGraphName$[ebp], eax
  0007d	c7 45 fc 00 00
	00 00		 mov	 DWORD PTR __$EHRec$[ebp+8], 0
; File D:\git\src\IBK\IBK_DRFN\ProjSrc\SrcChartEx\ChartAddIn\ChartPeriodSummaryAddIn\Include_AddIn\I133691\_IString.h

; 57   : 		if( !m_szData) return TRUE;

  00084	85 c0		 test	 eax, eax
  00086	0f 84 bf 00 00
	00		 je	 $LN7@GetChartBa
; File D:\git\src\IBK\IBK_DRFN\ProjSrc\SrcChartEx\ChartAddIn\ChartPeriodSummaryAddIn\ChartPeriodSummaryAddInImp.cpp

; 786  : 	if( szGraphName.IsEmpty()) return FALSE;

  0008c	80 38 00	 cmp	 BYTE PTR [eax], 0
  0008f	0f 84 b6 00 00
	00		 je	 $LN7@GetChartBa

; 787  : 
; 788  : 	//  Data View Start/End Index .
; 789  : 	if( !m_pIChartManager->GetStartEndDrawIdx_Cur( p_pLine->m_strRQ, p_pLine->m_nStartIndexOfView, p_pLine->m_nEndIndexOfView)) return FALSE;

  00095	8b 4e 28	 mov	 ecx, DWORD PTR [esi+40]
  00098	8d 83 3c 02 00
	00		 lea	 eax, DWORD PTR [ebx+572]
  0009e	50		 push	 eax
  0009f	8d 83 38 02 00
	00		 lea	 eax, DWORD PTR [ebx+568]
  000a5	50		 push	 eax
  000a6	8b 11		 mov	 edx, DWORD PTR [ecx]
  000a8	ff b3 f4 01 00
	00		 push	 DWORD PTR [ebx+500]
  000ae	ff 92 e0 00 00
	00		 call	 DWORD PTR [edx+224]
  000b4	85 c0		 test	 eax, eax
  000b6	0f 84 8f 00 00
	00		 je	 $LN7@GetChartBa

; 790  : 	
; 791  : 	// Block Log/    Data . (<->Y Pos)
; 792  : 	IBlock *pIBlock = m_pIChartManager->GetBlock( p_pLine->m_nRow, p_pLine->m_nCol);

  000bc	8b 4e 28	 mov	 ecx, DWORD PTR [esi+40]
  000bf	ff b3 fc 01 00
	00		 push	 DWORD PTR [ebx+508]
  000c5	ff b3 f8 01 00
	00		 push	 DWORD PTR [ebx+504]
  000cb	8b 01		 mov	 eax, DWORD PTR [ecx]
  000cd	ff 50 38	 call	 DWORD PTR [eax+56]
  000d0	8b f0		 mov	 esi, eax
  000d2	89 75 d8	 mov	 DWORD PTR _pIBlock$1$[ebp], esi

; 793  : 	if( pIBlock)

  000d5	85 f6		 test	 esi, esi
  000d7	74 6b		 je	 SHORT $LN4@GetChartBa

; 794  : 	{
; 795  : 		p_pLine->m_bLog = pIBlock->IsLogScale();

  000d9	8b 16		 mov	 edx, DWORD PTR [esi]
  000db	8b ce		 mov	 ecx, esi
  000dd	ff 52 24	 call	 DWORD PTR [edx+36]

; 796  : 		p_pLine->m_bReverse = pIBlock->IsVScaleInvert( nV);

  000e0	ff 75 dc	 push	 DWORD PTR _nV$[ebp]
  000e3	89 83 20 02 00
	00		 mov	 DWORD PTR [ebx+544], eax
  000e9	8b ce		 mov	 ecx, esi
  000eb	8b 16		 mov	 edx, DWORD PTR [esi]
  000ed	ff 52 58	 call	 DWORD PTR [edx+88]
  000f0	89 83 24 02 00
	00		 mov	 DWORD PTR [ebx+548], eax

; 797  : 		pIBlock->GetVScaleGroupMinMax( nV, p_pLine->m_dViewMin, p_pLine->m_dViewMax);

  000f6	8b ce		 mov	 ecx, esi
  000f8	8b 16		 mov	 edx, DWORD PTR [esi]
  000fa	8d 83 30 02 00
	00		 lea	 eax, DWORD PTR [ebx+560]
  00100	50		 push	 eax
  00101	8d 83 28 02 00
	00		 lea	 eax, DWORD PTR [ebx+552]
  00107	50		 push	 eax
  00108	ff 75 dc	 push	 DWORD PTR _nV$[ebp]
  0010b	ff 52 48	 call	 DWORD PTR [edx+72]

; 798  : 	   	pIBlock->GetGraphRegions( p_pLine->m_rctGraphRegion, p_pLine->m_rctBlockRegion);

  0010e	8b 55 d8	 mov	 edx, DWORD PTR _pIBlock$1$[ebp]
  00111	8d 83 10 02 00
	00		 lea	 eax, DWORD PTR [ebx+528]
  00117	8d b3 00 02 00
	00		 lea	 esi, DWORD PTR [ebx+512]
  0011d	8b 5d d8	 mov	 ebx, DWORD PTR _pIBlock$1$[ebp]
  00120	50		 push	 eax
  00121	56		 push	 esi
  00122	8b 12		 mov	 edx, DWORD PTR [edx]
  00124	8b cb		 mov	 ecx, ebx
  00126	ff 52 10	 call	 DWORD PTR [edx+16]

; 799  : 		p_pLine->m_rctGraphRegion = pIBlock->GetGraphDrwingRegion();

  00129	8b 03		 mov	 eax, DWORD PTR [ebx]
  0012b	8d 4d e0	 lea	 ecx, DWORD PTR $T2[ebp]
  0012e	6a 00		 push	 0
  00130	51		 push	 ecx
  00131	8b cb		 mov	 ecx, ebx
  00133	ff 50 1c	 call	 DWORD PTR [eax+28]
; File C:\Program Files (x86)\Microsoft Visual Studio\2019\Community\VC\Tools\MSVC\14.29.30133\atlmfc\include\atltypes.h

; 765  : 	::CopyRect(this, &srcRect);

  00136	50		 push	 eax
  00137	56		 push	 esi
  00138	ff 15 00 00 00
	00		 call	 DWORD PTR __imp__CopyRect@8
; File D:\git\src\IBK\IBK_DRFN\ProjSrc\SrcChartEx\ChartAddIn\ChartPeriodSummaryAddIn\ChartPeriodSummaryAddInImp.cpp

; 803  : 		pIBlock->Release();

  0013e	8b 03		 mov	 eax, DWORD PTR [ebx]
  00140	53		 push	 ebx
  00141	ff 50 08	 call	 DWORD PTR [eax+8]
$LN4@GetChartBa:

; 804  : 		pIBlock = NULL;
; 805  : 
; 806  : 	}
; 807  : 
; 808  : 	return TRUE;

  00144	be 01 00 00 00	 mov	 esi, 1
  00149	eb 02		 jmp	 SHORT $LN8@GetChartBa
$LN7@GetChartBa:
  0014b	33 f6		 xor	 esi, esi
$LN8@GetChartBa:
; File D:\git\src\IBK\IBK_DRFN\ProjSrc\SrcChartEx\ChartAddIn\ChartPeriodSummaryAddIn\Include_AddIn\I133691\_IString.h

; 44   : 	{

  0014d	c7 45 fc 01 00
	00 00		 mov	 DWORD PTR __$EHRec$[ebp+8], 1

; 45   : 		if( m_pIStrData)

  00154	85 ff		 test	 edi, edi
  00156	74 06		 je	 SHORT $LN26@GetChartBa

; 46   : 		{
; 47   : 			m_pIStrData->Release();

  00158	8b 0f		 mov	 ecx, DWORD PTR [edi]
  0015a	57		 push	 edi
  0015b	ff 51 08	 call	 DWORD PTR [ecx+8]
$LN26@GetChartBa:
; File D:\git\src\IBK\IBK_DRFN\ProjSrc\SrcChartEx\ChartAddIn\ChartPeriodSummaryAddIn\ChartPeriodSummaryAddInImp.cpp

; 809  : }

  0015e	8b c6		 mov	 eax, esi
  00160	8b 4d f4	 mov	 ecx, DWORD PTR __$EHRec$[ebp]
  00163	64 89 0d 00 00
	00 00		 mov	 DWORD PTR fs:0, ecx
  0016a	59		 pop	 ecx
  0016b	5f		 pop	 edi
  0016c	5e		 pop	 esi
  0016d	5b		 pop	 ebx
  0016e	8b 4d f0	 mov	 ecx, DWORD PTR __$ArrayPad$[ebp]
  00171	33 cd		 xor	 ecx, ebp
  00173	e8 00 00 00 00	 call	 @__security_check_cookie@4
  00178	8b e5		 mov	 esp, ebp
  0017a	5d		 pop	 ebp
  0017b	c2 04 00	 ret	 4
_TEXT	ENDS
;	COMDAT text$x
text$x	SEGMENT
__unwindfunclet$?GetChartBasicData@CChartPeriodSummaryAddInImp@@QAEHPAVCPeriodObj@@@Z$0:
  00000	8d 4d cc	 lea	 ecx, DWORD PTR _szGraphName$[ebp]
  00003	e9 00 00 00 00	 jmp	 ??1ILPCSTR133691@@QAE@XZ ; ILPCSTR133691::~ILPCSTR133691
  00008	cc		 int	 3
  00009	cc		 int	 3
  0000a	cc		 int	 3
  0000b	cc		 int	 3
  0000c	cc		 int	 3
__ehhandler$?GetChartBasicData@CChartPeriodSummaryAddInImp@@QAEHPAVCPeriodObj@@@Z:
  0000d	90		 npad	 1
  0000e	90		 npad	 1
  0000f	8b 54 24 08	 mov	 edx, DWORD PTR [esp+8]
  00013	8d 42 0c	 lea	 eax, DWORD PTR [edx+12]
  00016	8b 4a c4	 mov	 ecx, DWORD PTR [edx-60]
  00019	33 c8		 xor	 ecx, eax
  0001b	e8 00 00 00 00	 call	 @__security_check_cookie@4
  00020	8b 4a fc	 mov	 ecx, DWORD PTR [edx-4]
  00023	33 c8		 xor	 ecx, eax
  00025	e8 00 00 00 00	 call	 @__security_check_cookie@4
  0002a	b8 00 00 00 00	 mov	 eax, OFFSET __ehfuncinfo$?GetChartBasicData@CChartPeriodSummaryAddInImp@@QAEHPAVCPeriodObj@@@Z
  0002f	e9 00 00 00 00	 jmp	 ___CxxFrameHandler3
text$x	ENDS
?GetChartBasicData@CChartPeriodSummaryAddInImp@@QAEHPAVCPeriodObj@@@Z ENDP ; CChartPeriodSummaryAddInImp::GetChartBasicData
; Function compile flags: /Ogtp
; File D:\git\src\IBK\IBK_DRFN\ProjSrc\SrcChartEx\ChartAddIn\ChartPeriodSummaryAddIn\ChartPeriodSummaryAddInImp.cpp
;	COMDAT ?TokenizeEx@CChartPeriodSummaryAddInImp@@QAE?AV?$CStringT@DV?$StrTraitMFC_DLL@DV?$ChTraitsCRT@D@ATL@@@@@ATL@@V23@PBDAAH@Z
_TEXT	SEGMENT
_strRes$ = -16						; size = 4
__$EHRec$ = -12						; size = 12
___$ReturnUdt$ = 8					; size = 4
_strSrc$ = 12						; size = 4
_pszTokens$ = 16					; size = 4
$T2 = 20						; size = 4
_iStart$ = 20						; size = 4
?TokenizeEx@CChartPeriodSummaryAddInImp@@QAE?AV?$CStringT@DV?$StrTraitMFC_DLL@DV?$ChTraitsCRT@D@ATL@@@@@ATL@@V23@PBDAAH@Z PROC ; CChartPeriodSummaryAddInImp::TokenizeEx, COMDAT
; _this$ = ecx

; 1783 : {

  00000	55		 push	 ebp
  00001	8b ec		 mov	 ebp, esp
  00003	6a ff		 push	 -1
  00005	68 00 00 00 00	 push	 __ehhandler$?TokenizeEx@CChartPeriodSummaryAddInImp@@QAE?AV?$CStringT@DV?$StrTraitMFC_DLL@DV?$ChTraitsCRT@D@ATL@@@@@ATL@@V23@PBDAAH@Z
  0000a	64 a1 00 00 00
	00		 mov	 eax, DWORD PTR fs:0
  00010	50		 push	 eax
  00011	51		 push	 ecx
  00012	56		 push	 esi
  00013	57		 push	 edi
  00014	a1 00 00 00 00	 mov	 eax, DWORD PTR ___security_cookie
  00019	33 c5		 xor	 eax, ebp
  0001b	50		 push	 eax
  0001c	8d 45 f4	 lea	 eax, DWORD PTR __$EHRec$[ebp]
  0001f	64 a3 00 00 00
	00		 mov	 DWORD PTR fs:0, eax

; 1784 : 	CString strRes = _T("");

  00025	68 00 00 00 00	 push	 OFFSET ??_C@_00CNPNBAHC@@
  0002a	8d 4d f0	 lea	 ecx, DWORD PTR _strRes$[ebp]
  0002d	c7 45 fc 00 00
	00 00		 mov	 DWORD PTR __$EHRec$[ebp+8], 0
  00034	ff 15 00 00 00
	00		 call	 DWORD PTR __imp_??0?$CStringT@DV?$StrTraitMFC_DLL@DV?$ChTraitsCRT@D@ATL@@@@@ATL@@QAE@PBD@Z

; 1785 : 	int iCur = iStart;

  0003a	8b 75 14	 mov	 esi, DWORD PTR _iStart$[ebp]

; 1786 : 	iStart = strSrc.Find(pszTokens, iCur);

  0003d	8d 4d 0c	 lea	 ecx, DWORD PTR _strSrc$[ebp]
  00040	c6 45 fc 01	 mov	 BYTE PTR __$EHRec$[ebp+8], 1
  00044	8b 3e		 mov	 edi, DWORD PTR [esi]
  00046	57		 push	 edi
  00047	ff 75 10	 push	 DWORD PTR _pszTokens$[ebp]
  0004a	ff 15 00 00 00
	00		 call	 DWORD PTR __imp_?Find@?$CStringT@DV?$StrTraitMFC_DLL@DV?$ChTraitsCRT@D@ATL@@@@@ATL@@QBEHPBDH@Z
  00050	89 06		 mov	 DWORD PTR [esi], eax

; 1787 : 	if(iStart != -1)

  00052	83 f8 ff	 cmp	 eax, -1
  00055	74 2e		 je	 SHORT $LN2@TokenizeEx

; 1788 : 	{
; 1789 : 		strRes = strSrc.Mid(iCur, iStart-iCur);

  00057	2b c7		 sub	 eax, edi
  00059	8d 4d 0c	 lea	 ecx, DWORD PTR _strSrc$[ebp]
  0005c	50		 push	 eax
  0005d	57		 push	 edi
  0005e	8d 45 14	 lea	 eax, DWORD PTR $T2[ebp]
  00061	50		 push	 eax
  00062	ff 15 00 00 00
	00		 call	 DWORD PTR __imp_?Mid@?$CStringT@DV?$StrTraitMFC_DLL@DV?$ChTraitsCRT@D@ATL@@@@@ATL@@QBE?AV12@HH@Z
  00068	50		 push	 eax
  00069	8d 4d f0	 lea	 ecx, DWORD PTR _strRes$[ebp]
  0006c	c6 45 fc 02	 mov	 BYTE PTR __$EHRec$[ebp+8], 2
  00070	ff 15 00 00 00
	00		 call	 DWORD PTR __imp_??4?$CStringT@DV?$StrTraitMFC_DLL@DV?$ChTraitsCRT@D@ATL@@@@@ATL@@QAEAAV01@ABV01@@Z
  00076	8d 4d 14	 lea	 ecx, DWORD PTR $T2[ebp]
  00079	c6 45 fc 01	 mov	 BYTE PTR __$EHRec$[ebp+8], 1
  0007d	ff 15 00 00 00
	00		 call	 DWORD PTR __imp_??1?$CStringT@DV?$StrTraitMFC_DLL@DV?$ChTraitsCRT@D@ATL@@@@@ATL@@QAE@XZ

; 1790 : 		iStart++;

  00083	ff 06		 inc	 DWORD PTR [esi]
$LN2@TokenizeEx:

; 1791 : 		return strRes;
; 1792 : 	}
; 1793 : 	return strRes;
; 1794 : }

  00085	8b 4d 08	 mov	 ecx, DWORD PTR ___$ReturnUdt$[ebp]
  00088	8d 45 f0	 lea	 eax, DWORD PTR _strRes$[ebp]
  0008b	50		 push	 eax
  0008c	ff 15 00 00 00
	00		 call	 DWORD PTR __imp_??0?$CStringT@DV?$StrTraitMFC_DLL@DV?$ChTraitsCRT@D@ATL@@@@@ATL@@QAE@ABV01@@Z
  00092	8d 4d f0	 lea	 ecx, DWORD PTR _strRes$[ebp]
  00095	ff 15 00 00 00
	00		 call	 DWORD PTR __imp_??1?$CStringT@DV?$StrTraitMFC_DLL@DV?$ChTraitsCRT@D@ATL@@@@@ATL@@QAE@XZ
  0009b	8d 4d 0c	 lea	 ecx, DWORD PTR _strSrc$[ebp]
  0009e	ff 15 00 00 00
	00		 call	 DWORD PTR __imp_??1?$CStringT@DV?$StrTraitMFC_DLL@DV?$ChTraitsCRT@D@ATL@@@@@ATL@@QAE@XZ
  000a4	8b 45 08	 mov	 eax, DWORD PTR ___$ReturnUdt$[ebp]
  000a7	8b 4d f4	 mov	 ecx, DWORD PTR __$EHRec$[ebp]
  000aa	64 89 0d 00 00
	00 00		 mov	 DWORD PTR fs:0, ecx
  000b1	59		 pop	 ecx
  000b2	5f		 pop	 edi
  000b3	5e		 pop	 esi
  000b4	8b e5		 mov	 esp, ebp
  000b6	5d		 pop	 ebp
  000b7	c2 10 00	 ret	 16			; 00000010H
_TEXT	ENDS
;	COMDAT text$x
text$x	SEGMENT
__unwindfunclet$?TokenizeEx@CChartPeriodSummaryAddInImp@@QAE?AV?$CStringT@DV?$StrTraitMFC_DLL@DV?$ChTraitsCRT@D@ATL@@@@@ATL@@V23@PBDAAH@Z$0:
  00000	8d 4d 0c	 lea	 ecx, DWORD PTR _strSrc$[ebp]
  00003	ff 25 00 00 00
	00		 jmp	 DWORD PTR __imp_??1?$CStringT@DV?$StrTraitMFC_DLL@DV?$ChTraitsCRT@D@ATL@@@@@ATL@@QAE@XZ
__unwindfunclet$?TokenizeEx@CChartPeriodSummaryAddInImp@@QAE?AV?$CStringT@DV?$StrTraitMFC_DLL@DV?$ChTraitsCRT@D@ATL@@@@@ATL@@V23@PBDAAH@Z$1:
  00009	8d 4d f0	 lea	 ecx, DWORD PTR _strRes$[ebp]
  0000c	ff 25 00 00 00
	00		 jmp	 DWORD PTR __imp_??1?$CStringT@DV?$StrTraitMFC_DLL@DV?$ChTraitsCRT@D@ATL@@@@@ATL@@QAE@XZ
__unwindfunclet$?TokenizeEx@CChartPeriodSummaryAddInImp@@QAE?AV?$CStringT@DV?$StrTraitMFC_DLL@DV?$ChTraitsCRT@D@ATL@@@@@ATL@@V23@PBDAAH@Z$2:
  00012	8d 4d 14	 lea	 ecx, DWORD PTR $T2[ebp]
  00015	ff 25 00 00 00
	00		 jmp	 DWORD PTR __imp_??1?$CStringT@DV?$StrTraitMFC_DLL@DV?$ChTraitsCRT@D@ATL@@@@@ATL@@QAE@XZ
  0001b	cc		 int	 3
  0001c	cc		 int	 3
  0001d	cc		 int	 3
  0001e	cc		 int	 3
  0001f	cc		 int	 3
__ehhandler$?TokenizeEx@CChartPeriodSummaryAddInImp@@QAE?AV?$CStringT@DV?$StrTraitMFC_DLL@DV?$ChTraitsCRT@D@ATL@@@@@ATL@@V23@PBDAAH@Z:
  00020	90		 npad	 1
  00021	90		 npad	 1
  00022	8b 54 24 08	 mov	 edx, DWORD PTR [esp+8]
  00026	8d 42 0c	 lea	 eax, DWORD PTR [edx+12]
  00029	8b 4a f0	 mov	 ecx, DWORD PTR [edx-16]
  0002c	33 c8		 xor	 ecx, eax
  0002e	e8 00 00 00 00	 call	 @__security_check_cookie@4
  00033	b8 00 00 00 00	 mov	 eax, OFFSET __ehfuncinfo$?TokenizeEx@CChartPeriodSummaryAddInImp@@QAE?AV?$CStringT@DV?$StrTraitMFC_DLL@DV?$ChTraitsCRT@D@ATL@@@@@ATL@@V23@PBDAAH@Z
  00038	e9 00 00 00 00	 jmp	 ___CxxFrameHandler3
text$x	ENDS
?TokenizeEx@CChartPeriodSummaryAddInImp@@QAE?AV?$CStringT@DV?$StrTraitMFC_DLL@DV?$ChTraitsCRT@D@ATL@@@@@ATL@@V23@PBDAAH@Z ENDP ; CChartPeriodSummaryAddInImp::TokenizeEx
; Function compile flags: /Ogtp
; File D:\git\src\IBK\IBK_DRFN\ProjSrc\SrcChartEx\ChartAddIn\ChartPeriodSummaryAddIn\ChartPeriodSummaryAddInImp.cpp
;	COMDAT ?GetIndexFromPoint@CChartPeriodSummaryAddInImp@@QAEHPBDAAVCPoint@@AAH2@Z
_TEXT	SEGMENT
_nStartIndex$ = -8					; size = 4
_nEndIndex$ = -4					; size = 4
_p_szRQ$ = 8						; size = 4
_pt$ = 12						; size = 4
_x$ = 16						; size = 4
_y$ = 20						; size = 4
?GetIndexFromPoint@CChartPeriodSummaryAddInImp@@QAEHPBDAAVCPoint@@AAH2@Z PROC ; CChartPeriodSummaryAddInImp::GetIndexFromPoint, COMDAT
; _this$ = ecx

; 820  : {

  00000	55		 push	 ebp
  00001	8b ec		 mov	 ebp, esp
  00003	83 ec 08	 sub	 esp, 8

; 821  : //	POINT ptTemp = pt;
; 822  : //	ptTemp.x += m_ptOffSet.x;
; 823  : //	ptTemp.y += m_ptOffSet.y;
; 824  : //
; 825  : //	int nStartIndex, nEndIndex;
; 826  : //	if( !m_pIChartOCX->GetViewStartEndIndex( nStartIndex, nEndIndex)) return R_ERROR;
; 827  : //	// 1.3  Mouse Point Data Index .
; 828  : //	x = y = nStartIndex + ( ( pt.x - m_rctBlockRegion.left) * ( nEndIndex - nStartIndex + 1)) / m_rctBlockRegion.Width();
; 829  : //
; 830  : //	if(m_bAttachData)
; 831  : //	{
; 832  : //		if(m_bCentered)	//  
; 833  : //			ptTemp.x = (x*m_rctBlockRegion.Width() -m_nStartIndex*m_rctBlockRegion.Width() + m_rctBlockRegion.Width()/2.)/
; 834  : //						( m_nEndIndex - m_nStartIndex + 1) + m_rctBlockRegion.left;
; 835  : //		else
; 836  : //			ptTemp.x = (x*m_rctBlockRegion.Width() - m_nStartIndex*m_rctBlockRegion.Width())/
; 837  : //						( m_nEndIndex - m_nStartIndex + 1) + m_rctBlockRegion.left;
; 838  : //	}
; 839  : //
; 840  : //	POINT ptAt;
; 841  : //	ptAt.x = pt.x;
; 842  : //	ptAt.y = pt.y;
; 843  : 
; 844  : 	int nStartIndex, nEndIndex;
; 845  : 	if( !m_pIChartManager->GetStartEndDrawIdx_Cur( p_szRQ, nStartIndex, nEndIndex)) return R_ERROR;

  00006	8d 55 fc	 lea	 edx, DWORD PTR _nEndIndex$[ebp]
  00009	56		 push	 esi
  0000a	8b f1		 mov	 esi, ecx
  0000c	52		 push	 edx
  0000d	8d 55 f8	 lea	 edx, DWORD PTR _nStartIndex$[ebp]
  00010	52		 push	 edx
  00011	8b 4e 28	 mov	 ecx, DWORD PTR [esi+40]
  00014	ff 75 08	 push	 DWORD PTR _p_szRQ$[ebp]
  00017	8b 01		 mov	 eax, DWORD PTR [ecx]
  00019	ff 90 e0 00 00
	00		 call	 DWORD PTR [eax+224]
  0001f	85 c0		 test	 eax, eax
  00021	75 0a		 jne	 SHORT $LN2@GetIndexFr
  00023	83 c8 ff	 or	 eax, -1
  00026	5e		 pop	 esi

; 866  : }

  00027	8b e5		 mov	 esp, ebp
  00029	5d		 pop	 ebp
  0002a	c2 10 00	 ret	 16			; 00000010H
$LN2@GetIndexFr:

; 846  : 	// 1.3  Mouse Point Data Index .
; 847  : 	//x = y = nStartIndex + ( ( pt.x - m_rctBlockRegion.left) * ( nEndIndex - nStartIndex + 1)) / m_rctBlockRegion.Width();
; 848  : 	x = y = m_pIChartManager->FindViewDataIndex_Pt( p_szRQ, pt.x, 0, TRUE);

  0002d	8b 45 0c	 mov	 eax, DWORD PTR _pt$[ebp]
  00030	8b 4e 28	 mov	 ecx, DWORD PTR [esi+40]
  00033	6a 01		 push	 1
  00035	6a 00		 push	 0
  00037	ff 30		 push	 DWORD PTR [eax]
  00039	8b 11		 mov	 edx, DWORD PTR [ecx]
  0003b	ff 75 08	 push	 DWORD PTR _p_szRQ$[ebp]
  0003e	ff 92 04 01 00
	00		 call	 DWORD PTR [edx+260]
  00044	8b 4d 14	 mov	 ecx, DWORD PTR _y$[ebp]
  00047	5e		 pop	 esi
  00048	89 01		 mov	 DWORD PTR [ecx], eax
  0004a	8b 4d 10	 mov	 ecx, DWORD PTR _x$[ebp]
  0004d	89 01		 mov	 DWORD PTR [ecx], eax

; 849  : 
; 850  : //	if(m_bAttachData)
; 851  : //	{
; 852  : //		if(m_bCentered)	//  
; 853  : //			ptTemp.x = (x*m_rctBlockRegion.Width() -m_nStartIndex*m_rctBlockRegion.Width() + m_rctBlockRegion.Width()/2.)/
; 854  : //						( m_nEndIndex - m_nStartIndex + 1) + m_rctBlockRegion.left;
; 855  : //		else
; 856  : //			ptTemp.x = (x*m_rctBlockRegion.Width() - m_nStartIndex*m_rctBlockRegion.Width())/
; 857  : //						( m_nEndIndex - m_nStartIndex + 1) + m_rctBlockRegion.left;
; 858  : //	}
; 859  : 
; 860  : //	POINT ptAt;
; 861  : //	ptAt.x = pt.x;
; 862  : //	ptAt.y = pt.y;
; 863  : 
; 864  : 
; 865  : 	return R_OK;

  0004f	33 c0		 xor	 eax, eax

; 866  : }

  00051	8b e5		 mov	 esp, ebp
  00053	5d		 pop	 ebp
  00054	c2 10 00	 ret	 16			; 00000010H
?GetIndexFromPoint@CChartPeriodSummaryAddInImp@@QAEHPBDAAVCPoint@@AAH2@Z ENDP ; CChartPeriodSummaryAddInImp::GetIndexFromPoint
_TEXT	ENDS
; Function compile flags: /Ogtp
; File D:\git\src\IBK\IBK_DRFN\ProjSrc\SrcChartEx\ChartAddIn\ChartPeriodSummaryAddIn\ChartPeriodSummaryAddInImp.cpp
;	COMDAT ?GetPointFromIndex@CChartPeriodSummaryAddInImp@@QAEHPBDHHAAVCPoint@@@Z
_TEXT	SEGMENT
_p_szRQ$ = 8						; size = 4
_x$ = 12						; size = 4
_y$ = 16						; size = 4
_ptIndex$ = 20						; size = 4
?GetPointFromIndex@CChartPeriodSummaryAddInImp@@QAEHPBDHHAAVCPoint@@@Z PROC ; CChartPeriodSummaryAddInImp::GetPointFromIndex, COMDAT
; _this$ = ecx

; 905  : {

  00000	55		 push	 ebp
  00001	8b ec		 mov	 ebp, esp

; 906  : //	if(m_bCentered)	//   
; 907  : //		ptIndex.x = (x*(m_rctBlockRegion.Width()+1) -m_nStartIndex*( m_rctBlockRegion.Width()+1) + (m_rctBlockRegion.Width())/2.)/
; 908  : //					( m_nEndIndex - m_nStartIndex + 1) + m_rctBlockRegion.left+2;
; 909  : //	else
; 910  : //		ptIndex.x = (x*m_rctBlockRegion.Width() - m_nStartIndex*m_rctBlockRegion.Width())/
; 911  : //					( m_nEndIndex - m_nStartIndex + 1) + m_rctBlockRegion.left-1;
; 912  : 
; 913  : 	ptIndex.x = m_pIChartManager->GetXPosition( p_szRQ, x, y);

  00003	8b 49 28	 mov	 ecx, DWORD PTR [ecx+40]
  00006	ff 75 10	 push	 DWORD PTR _y$[ebp]
  00009	ff 75 0c	 push	 DWORD PTR _x$[ebp]
  0000c	8b 01		 mov	 eax, DWORD PTR [ecx]
  0000e	ff 75 08	 push	 DWORD PTR _p_szRQ$[ebp]
  00011	ff 90 e8 00 00
	00		 call	 DWORD PTR [eax+232]
  00017	8b 4d 14	 mov	 ecx, DWORD PTR _ptIndex$[ebp]
  0001a	89 01		 mov	 DWORD PTR [ecx], eax

; 914  : 	return R_OK;

  0001c	33 c0		 xor	 eax, eax

; 915  : }

  0001e	5d		 pop	 ebp
  0001f	c2 10 00	 ret	 16			; 00000010H
?GetPointFromIndex@CChartPeriodSummaryAddInImp@@QAEHPBDHHAAVCPoint@@@Z ENDP ; CChartPeriodSummaryAddInImp::GetPointFromIndex
_TEXT	ENDS
; Function compile flags: /Ogtp
; File D:\git\src\IBK\IBK_DRFN\ProjSrc\SrcChartEx\ChartAddIn\ChartPeriodSummaryAddIn\ChartPeriodSummaryAddInImp.cpp
;	COMDAT ?GetIndexFromValue@CChartPeriodSummaryAddInImp@@QAEHPBDH_JNAAH2@Z
_TEXT	SEGMENT
_dTime$2 = -32						; size = 8
$T3 = -24						; size = 4
_this$1$ = -20						; size = 4
__$EHRec$ = -16						; size = 16
_pIPacket$ = 8						; size = 4
_p_szRQ$ = 8						; size = 4
_p_nEndIndex$ = 12					; size = 4
_lx$ = 16						; size = 8
_dy$ = 24						; size = 8
_ix$ = 32						; size = 4
_iy$ = 36						; size = 4
?GetIndexFromValue@CChartPeriodSummaryAddInImp@@QAEHPBDH_JNAAH2@Z PROC ; CChartPeriodSummaryAddInImp::GetIndexFromValue, COMDAT
; _this$ = ecx

; 920  : {

  00000	55		 push	 ebp
  00001	8b ec		 mov	 ebp, esp
  00003	6a ff		 push	 -1
  00005	68 00 00 00 00	 push	 __ehhandler$?GetIndexFromValue@CChartPeriodSummaryAddInImp@@QAEHPBDH_JNAAH2@Z
  0000a	64 a1 00 00 00
	00		 mov	 eax, DWORD PTR fs:0
  00010	50		 push	 eax
  00011	83 ec 14	 sub	 esp, 20			; 00000014H
  00014	53		 push	 ebx
  00015	56		 push	 esi
  00016	57		 push	 edi
  00017	a1 00 00 00 00	 mov	 eax, DWORD PTR ___security_cookie
  0001c	33 c5		 xor	 eax, ebp
  0001e	50		 push	 eax
  0001f	8d 45 f4	 lea	 eax, DWORD PTR __$EHRec$[ebp+4]
  00022	64 a3 00 00 00
	00		 mov	 DWORD PTR fs:0, eax
  00028	89 65 f0	 mov	 DWORD PTR __$EHRec$[ebp], esp
  0002b	8b c1		 mov	 eax, ecx
  0002d	89 45 ec	 mov	 DWORD PTR _this$1$[ebp], eax

; 921  : 	IPacketManager *pIPacketManager = m_pIPacketListManager->GetPacketManager( p_szRQ);

  00030	8b 48 20	 mov	 ecx, DWORD PTR [eax+32]
  00033	ff 75 08	 push	 DWORD PTR _p_szRQ$[ebp]
  00036	8b 01		 mov	 eax, DWORD PTR [ecx]
  00038	ff 50 10	 call	 DWORD PTR [eax+16]
  0003b	8b f0		 mov	 esi, eax

; 922  : 	if( !pIPacketManager) return R_ERROR;

  0003d	85 f6		 test	 esi, esi
  0003f	0f 84 ac 00 00
	00		 je	 $LN15@GetIndexFr

; 923  : 
; 924  : 	//IPacket *pIPacket = m_pIDefaultPacketManager->GetPacket( "");
; 925  : 	IPacket *pIPacket = pIPacketManager->GetPacket( _MTEXT(C0_DATE_TIME));

  00045	8b 0d 54 00 00
	00		 mov	 ecx, DWORD PTR ?g_iMetaTable@@3VIMetaTable@@A+84
  0004b	8b 16		 mov	 edx, DWORD PTR [esi]
  0004d	ff 31		 push	 DWORD PTR [ecx]
  0004f	8b ce		 mov	 ecx, esi
  00051	ff 52 10	 call	 DWORD PTR [edx+16]

; 926  : 	pIPacketManager->Release();

  00054	8b 0e		 mov	 ecx, DWORD PTR [esi]
  00056	8b f8		 mov	 edi, eax
  00058	56		 push	 esi
  00059	89 7d 08	 mov	 DWORD PTR _pIPacket$[ebp], edi
  0005c	ff 51 08	 call	 DWORD PTR [ecx+8]

; 927  : 
; 928  : 	try
; 929  : 	{
; 930  : 		double dTime;
; 931  : 		for( iy = 0; iy <= p_nEndIndex; iy++)

  0005f	8b 75 24	 mov	 esi, DWORD PTR _iy$[ebp]
  00062	33 c9		 xor	 ecx, ecx
  00064	8b 5d 14	 mov	 ebx, DWORD PTR _lx$[ebp+4]
  00067	c7 45 fc 00 00
	00 00		 mov	 DWORD PTR __$EHRec$[ebp+12], 0
  0006e	c7 06 00 00 00
	00		 mov	 DWORD PTR [esi], 0
$LL4@GetIndexFr:
  00074	8b 07		 mov	 eax, DWORD PTR [edi]
  00076	3b 4d 0c	 cmp	 ecx, DWORD PTR _p_nEndIndex$[ebp]
  00079	7f 6b		 jg	 SHORT $LN3@GetIndexFr

; 932  : 		{
; 933  : 			if( !pIPacket->GetData( iy, dTime)) throw this;

  0007b	8d 55 e0	 lea	 edx, DWORD PTR _dTime$2[ebp]
  0007e	52		 push	 edx
  0007f	51		 push	 ecx
  00080	8b cf		 mov	 ecx, edi
  00082	ff 50 40	 call	 DWORD PTR [eax+64]
  00085	85 c0		 test	 eax, eax
  00087	74 7f		 je	 SHORT $LN25@GetIndexFr

; 934  : 			
; 935  : 			// 2011.01.06 by SYS >>  YYYY() 
; 936  : 			//if(lx == ( long)dTime)	// ...
; 937  : 			if(lx == ( __int64)dTime)	// ...

  00089	f2 0f 10 45 e0	 movsd	 xmm0, QWORD PTR _dTime$2[ebp]
  0008e	e8 00 00 00 00	 call	 __dtol3
  00093	8b 4d 10	 mov	 ecx, DWORD PTR _lx$[ebp]
  00096	3b c8		 cmp	 ecx, eax
  00098	75 29		 jne	 SHORT $LN8@GetIndexFr
  0009a	3b da		 cmp	 ebx, edx
  0009c	75 27		 jne	 SHORT $LN22@GetIndexFr

; 938  : 			// 2011.01.06 by SYS <<
; 939  : 			{
; 940  : 				ix = iy;

  0009e	8b 45 20	 mov	 eax, DWORD PTR _ix$[ebp]
  000a1	8b 0e		 mov	 ecx, DWORD PTR [esi]

; 941  : 				pIPacket->Release();

  000a3	57		 push	 edi
  000a4	89 08		 mov	 DWORD PTR [eax], ecx
  000a6	8b 07		 mov	 eax, DWORD PTR [edi]
  000a8	ff 50 08	 call	 DWORD PTR [eax+8]

; 942  : 				iy++;

  000ab	ff 06		 inc	 DWORD PTR [esi]

; 943  : 				return R_OK;

  000ad	33 c0		 xor	 eax, eax

; 961  : 	}
; 962  : 
; 963  : 	pIPacket->Release();
; 964  : 	return R_ERROR; 
; 965  : }

  000af	8b 4d f4	 mov	 ecx, DWORD PTR __$EHRec$[ebp+4]
  000b2	64 89 0d 00 00
	00 00		 mov	 DWORD PTR fs:0, ecx
  000b9	59		 pop	 ecx
  000ba	5f		 pop	 edi
  000bb	5e		 pop	 esi
  000bc	5b		 pop	 ebx
  000bd	8b e5		 mov	 esp, ebp
  000bf	5d		 pop	 ebp
  000c0	c2 20 00	 ret	 32			; 00000020H
$LN8@GetIndexFr:

; 944  : 			}
; 945  : 			// 2011.01.06 by SYS >>  YYYY() 
; 946  : 			//else if(lx < ( long)dTime)
; 947  : 			else if(lx < ( __int64)dTime)

  000c3	3b da		 cmp	 ebx, edx
$LN22@GetIndexFr:
  000c5	7f 0a		 jg	 SHORT $LN2@GetIndexFr
  000c7	7c 04		 jl	 SHORT $LN19@GetIndexFr
  000c9	3b c8		 cmp	 ecx, eax
  000cb	73 04		 jae	 SHORT $LN2@GetIndexFr
$LN19@GetIndexFr:

; 948  : 			// 2011.01.06 by SYS <<
; 949  : 			{
; 950  : 				//iy++;
; 951  : 				pIPacket->Release();

  000cd	8b 07		 mov	 eax, DWORD PTR [edi]

; 952  : 				return R_ERROR;

  000cf	eb 1c		 jmp	 SHORT $LN23@GetIndexFr
$LN2@GetIndexFr:

; 927  : 
; 928  : 	try
; 929  : 	{
; 930  : 		double dTime;
; 931  : 		for( iy = 0; iy <= p_nEndIndex; iy++)

  000d1	ff 06		 inc	 DWORD PTR [esi]
  000d3	8b 0e		 mov	 ecx, DWORD PTR [esi]
  000d5	eb 9d		 jmp	 SHORT $LL4@GetIndexFr
__catch$?GetIndexFromValue@CChartPeriodSummaryAddInImp@@QAEHPBDH_JNAAH2@Z$0:

; 953  : 			}
; 954  : 		}
; 955  : 		
; 956  : 	}
; 957  : 	catch( CChartPeriodSummaryAddInImp *)
; 958  : 	{
; 959  : 		pIPacket->Release();

  000d7	8b 45 08	 mov	 eax, DWORD PTR _pIPacket$[ebp]
  000da	50		 push	 eax
  000db	8b 08		 mov	 ecx, DWORD PTR [eax]
  000dd	ff 51 08	 call	 DWORD PTR [ecx+8]

; 960  : 		return R_ERROR;

  000e0	b8 00 00 00 00	 mov	 eax, $LN15@GetIndexFr
  000e5	c3		 ret	 0
$LN3@GetIndexFr:
  000e6	c7 45 fc ff ff
	ff ff		 mov	 DWORD PTR __$EHRec$[ebp+12], -1
$LN23@GetIndexFr:

; 961  : 	}
; 962  : 
; 963  : 	pIPacket->Release();
; 964  : 	return R_ERROR; 
; 965  : }

  000ed	57		 push	 edi
  000ee	ff 50 08	 call	 DWORD PTR [eax+8]
$LN15@GetIndexFr:
  000f1	83 c8 ff	 or	 eax, -1
  000f4	8b 4d f4	 mov	 ecx, DWORD PTR __$EHRec$[ebp+4]
  000f7	64 89 0d 00 00
	00 00		 mov	 DWORD PTR fs:0, ecx
  000fe	59		 pop	 ecx
  000ff	5f		 pop	 edi
  00100	5e		 pop	 esi
  00101	5b		 pop	 ebx
  00102	8b e5		 mov	 esp, ebp
  00104	5d		 pop	 ebp
  00105	c2 20 00	 ret	 32			; 00000020H
$LN25@GetIndexFr:

; 932  : 		{
; 933  : 			if( !pIPacket->GetData( iy, dTime)) throw this;

  00108	8b 45 ec	 mov	 eax, DWORD PTR _this$1$[ebp]
  0010b	89 45 e8	 mov	 DWORD PTR $T3[ebp], eax
  0010e	8d 45 e8	 lea	 eax, DWORD PTR $T3[ebp]
  00111	68 00 00 00 00	 push	 OFFSET __TI7PAVCChartPeriodSummaryAddInImp@@
  00116	50		 push	 eax
  00117	e8 00 00 00 00	 call	 __CxxThrowException@8
$LN21@GetIndexFr:
  0011c	cc		 int	 3
  0011d	cc		 int	 3
  0011e	cc		 int	 3
  0011f	cc		 int	 3
  00120	cc		 int	 3
  00121	cc		 int	 3
_TEXT	ENDS
;	COMDAT text$x
text$x	SEGMENT
__ehhandler$?GetIndexFromValue@CChartPeriodSummaryAddInImp@@QAEHPBDH_JNAAH2@Z:
  00000	90		 npad	 1
  00001	90		 npad	 1
  00002	8b 54 24 08	 mov	 edx, DWORD PTR [esp+8]
  00006	8d 42 0c	 lea	 eax, DWORD PTR [edx+12]
  00009	8b 4a dc	 mov	 ecx, DWORD PTR [edx-36]
  0000c	33 c8		 xor	 ecx, eax
  0000e	e8 00 00 00 00	 call	 @__security_check_cookie@4
  00013	b8 00 00 00 00	 mov	 eax, OFFSET __ehfuncinfo$?GetIndexFromValue@CChartPeriodSummaryAddInImp@@QAEHPBDH_JNAAH2@Z
  00018	e9 00 00 00 00	 jmp	 ___CxxFrameHandler3
text$x	ENDS
?GetIndexFromValue@CChartPeriodSummaryAddInImp@@QAEHPBDH_JNAAH2@Z ENDP ; CChartPeriodSummaryAddInImp::GetIndexFromValue
; Function compile flags: /Ogtp
; File D:\git\src\IBK\IBK_DRFN\ProjSrc\SrcChartEx\ChartAddIn\ChartPeriodSummaryAddIn\ChartPeriodSummaryAddInImp.cpp
;	COMDAT ?GetAmountInfo@CChartPeriodSummaryAddInImp@@QAEHPBDPAVCAmount@CPeriodObj@@HH@Z
_TEXT	SEGMENT
_dAmount$2 = -32					; size = 8
_szItemName$ = -24					; size = 4
tv342 = -20						; size = 4
__$EHRec$ = -16						; size = 16
_pIPacketForAmount$ = 8					; size = 4
_p_szRQ$ = 8						; size = 4
_pAmountInfo$ = 12					; size = 4
_nSIndex$ = 16						; size = 4
_szItemCode$ = 20					; size = 4
_nEIndex$ = 20						; size = 4
?GetAmountInfo@CChartPeriodSummaryAddInImp@@QAEHPBDPAVCAmount@CPeriodObj@@HH@Z PROC ; CChartPeriodSummaryAddInImp::GetAmountInfo, COMDAT
; _this$ = ecx

; 1103 : {

  00000	55		 push	 ebp
  00001	8b ec		 mov	 ebp, esp
  00003	6a ff		 push	 -1
  00005	68 00 00 00 00	 push	 __ehhandler$?GetAmountInfo@CChartPeriodSummaryAddInImp@@QAEHPBDPAVCAmount@CPeriodObj@@HH@Z
  0000a	64 a1 00 00 00
	00		 mov	 eax, DWORD PTR fs:0
  00010	50		 push	 eax
  00011	83 ec 14	 sub	 esp, 20			; 00000014H
  00014	53		 push	 ebx
  00015	56		 push	 esi
  00016	57		 push	 edi
  00017	a1 00 00 00 00	 mov	 eax, DWORD PTR ___security_cookie
  0001c	33 c5		 xor	 eax, ebp
  0001e	50		 push	 eax
  0001f	8d 45 f4	 lea	 eax, DWORD PTR __$EHRec$[ebp+4]
  00022	64 a3 00 00 00
	00		 mov	 DWORD PTR fs:0, eax
  00028	89 65 f0	 mov	 DWORD PTR __$EHRec$[ebp], esp
  0002b	8b f1		 mov	 esi, ecx

; 1104 : 	if(nSIndex>nEIndex)
; 1105 : 	{
; 1106 : 		int nTemp = nEIndex;
; 1107 : 		nEIndex = nSIndex;
; 1108 : 		nSIndex = nTemp;
; 1109 : 	}
; 1110 : 
; 1111 : 	IPacketManager *pIPacketManager = m_pIPacketListManager->GetPacketManager( p_szRQ);

  0002d	8b 45 14	 mov	 eax, DWORD PTR _nEIndex$[ebp]
  00030	8b d0		 mov	 edx, eax
  00032	8b 4d 10	 mov	 ecx, DWORD PTR _nSIndex$[ebp]
  00035	3b c8		 cmp	 ecx, eax
  00037	8b 5d 08	 mov	 ebx, DWORD PTR _p_szRQ$[ebp]
  0003a	0f 4e d1	 cmovle	 edx, ecx
  0003d	0f 4e c8	 cmovle	 ecx, eax
  00040	89 4d 10	 mov	 DWORD PTR _nSIndex$[ebp], ecx
  00043	8b 4e 20	 mov	 ecx, DWORD PTR [esi+32]
  00046	53		 push	 ebx
  00047	89 55 ec	 mov	 DWORD PTR tv342[ebp], edx
  0004a	8b 01		 mov	 eax, DWORD PTR [ecx]
  0004c	ff 50 10	 call	 DWORD PTR [eax+16]
  0004f	8b f8		 mov	 edi, eax

; 1112 : 	if( !pIPacketManager) return R_ERROR;

  00051	85 ff		 test	 edi, edi
  00053	0f 84 37 01 00
	00		 je	 $LN23@GetAmountI

; 1113 : 
; 1114 : 	LPCSTR szItemCode = NULL, szItemName = NULL;
; 1115 : 	m_pIPacketListManager->GetItemCode( p_szRQ, szItemCode, szItemName);

  00059	8b 4e 20	 mov	 ecx, DWORD PTR [esi+32]
  0005c	8d 45 e8	 lea	 eax, DWORD PTR _szItemName$[ebp]
  0005f	50		 push	 eax
  00060	c7 45 14 00 00
	00 00		 mov	 DWORD PTR _szItemCode$[ebp], 0
  00067	8d 45 14	 lea	 eax, DWORD PTR _szItemCode$[ebp]
  0006a	c7 45 e8 00 00
	00 00		 mov	 DWORD PTR _szItemName$[ebp], 0
  00071	8b 11		 mov	 edx, DWORD PTR [ecx]
  00073	50		 push	 eax
  00074	53		 push	 ebx
  00075	ff 52 20	 call	 DWORD PTR [edx+32]

; 1116 : 	if( szItemCode) if( '|' == *( const char *)szItemCode)

  00078	8b 45 14	 mov	 eax, DWORD PTR _szItemCode$[ebp]
  0007b	85 c0		 test	 eax, eax
  0007d	74 21		 je	 SHORT $LN8@GetAmountI
  0007f	80 38 7c	 cmp	 BYTE PTR [eax], 124	; 0000007cH
  00082	75 1c		 jne	 SHORT $LN8@GetAmountI

; 1117 : 	{
; 1118 : 		pIPacketManager->Release();

  00084	8b 07		 mov	 eax, DWORD PTR [edi]
  00086	57		 push	 edi
  00087	ff 50 08	 call	 DWORD PTR [eax+8]

; 1119 : 		return R_OK;

  0008a	33 c0		 xor	 eax, eax

; 1161 : 	return R_OK;
; 1162 : }

  0008c	8b 4d f4	 mov	 ecx, DWORD PTR __$EHRec$[ebp+4]
  0008f	64 89 0d 00 00
	00 00		 mov	 DWORD PTR fs:0, ecx
  00096	59		 pop	 ecx
  00097	5f		 pop	 edi
  00098	5e		 pop	 esi
  00099	5b		 pop	 ebx
  0009a	8b e5		 mov	 esp, ebp
  0009c	5d		 pop	 ebp
  0009d	c2 10 00	 ret	 16			; 00000010H
$LN8@GetAmountI:

; 1120 : 	}
; 1121 : 
; 1122 : 	//  
; 1123 : 	IPacket *pIPacketForAmount = pIPacketManager->GetPacket( _MTEXT(C0_VOLUME));

  000a0	a1 54 00 00 00	 mov	 eax, DWORD PTR ?g_iMetaTable@@3VIMetaTable@@A+84
  000a5	8b cf		 mov	 ecx, edi
  000a7	8b 17		 mov	 edx, DWORD PTR [edi]
  000a9	ff 70 1c	 push	 DWORD PTR [eax+28]
  000ac	ff 52 10	 call	 DWORD PTR [edx+16]
  000af	8b f0		 mov	 esi, eax
  000b1	89 75 08	 mov	 DWORD PTR _pIPacketForAmount$[ebp], esi

; 1124 : 	if( !pIPacketForAmount)

  000b4	85 f6		 test	 esi, esi
  000b6	75 14		 jne	 SHORT $LN9@GetAmountI

; 1125 : 		pIPacketForAmount = pIPacketManager->GetPacket( _MTEXT(C0_ACCUMULATED_VOLUME));

  000b8	a1 54 00 00 00	 mov	 eax, DWORD PTR ?g_iMetaTable@@3VIMetaTable@@A+84
  000bd	8b cf		 mov	 ecx, edi
  000bf	8b 17		 mov	 edx, DWORD PTR [edi]
  000c1	ff 70 20	 push	 DWORD PTR [eax+32]
  000c4	ff 52 10	 call	 DWORD PTR [edx+16]
  000c7	8b f0		 mov	 esi, eax
  000c9	89 45 08	 mov	 DWORD PTR _pIPacketForAmount$[ebp], eax
$LN9@GetAmountI:

; 1126 : 
; 1127 : 	pIPacketManager->Release();

  000cc	8b 07		 mov	 eax, DWORD PTR [edi]
  000ce	57		 push	 edi
  000cf	ff 50 08	 call	 DWORD PTR [eax+8]

; 1128 : 	if( !pIPacketForAmount) return R_ERROR;

  000d2	85 f6		 test	 esi, esi
  000d4	0f 84 b6 00 00
	00		 je	 $LN23@GetAmountI

; 1129 : 
; 1130 : 	pAmountInfo->avg = 0;

  000da	8b 5d 0c	 mov	 ebx, DWORD PTR _pAmountInfo$[ebp]
  000dd	0f 57 c0	 xorps	 xmm0, xmm0

; 1131 : 
; 1132 : 	try
; 1133 : 	{
; 1134 : 		double dAmount=0;
; 1135 : 		if( !pIPacketForAmount->GetData( nSIndex, pAmountInfo->max) || !pIPacketForAmount->GetData( nSIndex, pAmountInfo->min))

  000e0	8b 06		 mov	 eax, DWORD PTR [esi]
  000e2	8b ce		 mov	 ecx, esi
  000e4	8b 7d ec	 mov	 edi, DWORD PTR tv342[ebp]
  000e7	53		 push	 ebx
  000e8	57		 push	 edi
  000e9	f2 0f 11 43 10	 movsd	 QWORD PTR [ebx+16], xmm0
  000ee	c7 45 fc 00 00
	00 00		 mov	 DWORD PTR __$EHRec$[ebp+12], 0
  000f5	f2 0f 11 45 e0	 movsd	 QWORD PTR _dAmount$2[ebp], xmm0
  000fa	ff 50 40	 call	 DWORD PTR [eax+64]
  000fd	85 c0		 test	 eax, eax
  000ff	0f 84 85 00 00
	00		 je	 $LN13@GetAmountI
  00105	8b 06		 mov	 eax, DWORD PTR [esi]
  00107	8d 4b 08	 lea	 ecx, DWORD PTR [ebx+8]
  0010a	51		 push	 ecx
  0010b	57		 push	 edi
  0010c	8b ce		 mov	 ecx, esi
  0010e	ff 50 40	 call	 DWORD PTR [eax+64]
  00111	85 c0		 test	 eax, eax
  00113	74 75		 je	 SHORT $LN13@GetAmountI
$LL4@GetAmountI:

; 1139 : 		}
; 1140 : 
; 1141 : 		for(int i=nSIndex; i<=nEIndex;i++)

  00115	8b 06		 mov	 eax, DWORD PTR [esi]
  00117	3b 7d 10	 cmp	 edi, DWORD PTR _nSIndex$[ebp]
  0011a	7f 4d		 jg	 SHORT $LN3@GetAmountI

; 1142 : 		{
; 1143 : 			// min max 
; 1144 : 			if( !pIPacketForAmount->GetData( i, dAmount))

  0011c	8d 4d e0	 lea	 ecx, DWORD PTR _dAmount$2[ebp]
  0011f	51		 push	 ecx
  00120	57		 push	 edi
  00121	8b ce		 mov	 ecx, esi
  00123	ff 50 40	 call	 DWORD PTR [eax+64]
  00126	85 c0		 test	 eax, eax
  00128	74 60		 je	 SHORT $LN13@GetAmountI

; 1145 : 			{
; 1146 : 				pIPacketForAmount->Release();
; 1147 : 				return R_ERROR;
; 1148 : 			}
; 1149 : 			pAmountInfo->max = max(pAmountInfo->max, dAmount);

  0012a	f2 0f 10 03	 movsd	 xmm0, QWORD PTR [ebx]
  0012e	f2 0f 10 4d e0	 movsd	 xmm1, QWORD PTR _dAmount$2[ebp]

; 1150 : 			pAmountInfo->min = min(pAmountInfo->min, dAmount);
; 1151 : 			pAmountInfo->avg += dAmount/(nEIndex-nSIndex+1);

  00133	8b 45 10	 mov	 eax, DWORD PTR _nSIndex$[ebp]
  00136	f2 0f 5f c1	 maxsd	 xmm0, xmm1
  0013a	2b 45 ec	 sub	 eax, DWORD PTR tv342[ebp]
  0013d	40		 inc	 eax
  0013e	47		 inc	 edi
  0013f	f2 0f 11 03	 movsd	 QWORD PTR [ebx], xmm0
  00143	f2 0f 10 43 08	 movsd	 xmm0, QWORD PTR [ebx+8]
  00148	f2 0f 5d c1	 minsd	 xmm0, xmm1
  0014c	f2 0f 11 43 08	 movsd	 QWORD PTR [ebx+8], xmm0
  00151	66 0f 6e c0	 movd	 xmm0, eax
  00155	f3 0f e6 c0	 cvtdq2pd xmm0, xmm0
  00159	f2 0f 5e c8	 divsd	 xmm1, xmm0
  0015d	f2 0f 58 4b 10	 addsd	 xmm1, QWORD PTR [ebx+16]
  00162	f2 0f 11 4b 10	 movsd	 QWORD PTR [ebx+16], xmm1
  00167	eb ac		 jmp	 SHORT $LL4@GetAmountI
$LN3@GetAmountI:

; 1158 : 	}
; 1159 : 
; 1160 : 	pIPacketForAmount->Release();

  00169	56		 push	 esi
  0016a	c7 45 fc ff ff
	ff ff		 mov	 DWORD PTR __$EHRec$[ebp+12], -1
  00171	ff 50 08	 call	 DWORD PTR [eax+8]
  00174	33 c0		 xor	 eax, eax

; 1161 : 	return R_OK;
; 1162 : }

  00176	8b 4d f4	 mov	 ecx, DWORD PTR __$EHRec$[ebp+4]
  00179	64 89 0d 00 00
	00 00		 mov	 DWORD PTR fs:0, ecx
  00180	59		 pop	 ecx
  00181	5f		 pop	 edi
  00182	5e		 pop	 esi
  00183	5b		 pop	 ebx
  00184	8b e5		 mov	 esp, ebp
  00186	5d		 pop	 ebp
  00187	c2 10 00	 ret	 16			; 00000010H
$LN13@GetAmountI:

; 1136 : 		{
; 1137 : 			pIPacketForAmount->Release();
; 1138 : 			return R_ERROR;

  0018a	8b 06		 mov	 eax, DWORD PTR [esi]
  0018c	56		 push	 esi
  0018d	ff 50 08	 call	 DWORD PTR [eax+8]
$LN23@GetAmountI:

; 1161 : 	return R_OK;
; 1162 : }

  00190	83 c8 ff	 or	 eax, -1
  00193	8b 4d f4	 mov	 ecx, DWORD PTR __$EHRec$[ebp+4]
  00196	64 89 0d 00 00
	00 00		 mov	 DWORD PTR fs:0, ecx
  0019d	59		 pop	 ecx
  0019e	5f		 pop	 edi
  0019f	5e		 pop	 esi
  001a0	5b		 pop	 ebx
  001a1	8b e5		 mov	 esp, ebp
  001a3	5d		 pop	 ebp
  001a4	c2 10 00	 ret	 16			; 00000010H
__catch$?GetAmountInfo@CChartPeriodSummaryAddInImp@@QAEHPBDPAVCAmount@CPeriodObj@@HH@Z$0:

; 1152 : 		}
; 1153 : 	}
; 1154 : 	catch( CChartPeriodSummaryAddInImp *)
; 1155 : 	{
; 1156 : 		pIPacketForAmount->Release();

  001a7	8b 45 08	 mov	 eax, DWORD PTR _pIPacketForAmount$[ebp]
  001aa	50		 push	 eax
  001ab	8b 08		 mov	 ecx, DWORD PTR [eax]
  001ad	ff 51 08	 call	 DWORD PTR [ecx+8]

; 1157 : 		return R_ERROR;

  001b0	b8 00 00 00 00	 mov	 eax, $LN23@GetAmountI
  001b5	c3		 ret	 0
  001b6	cc		 int	 3
  001b7	cc		 int	 3
  001b8	cc		 int	 3
  001b9	cc		 int	 3
  001ba	cc		 int	 3
_TEXT	ENDS
;	COMDAT text$x
text$x	SEGMENT
__ehhandler$?GetAmountInfo@CChartPeriodSummaryAddInImp@@QAEHPBDPAVCAmount@CPeriodObj@@HH@Z:
  00000	90		 npad	 1
  00001	90		 npad	 1
  00002	8b 54 24 08	 mov	 edx, DWORD PTR [esp+8]
  00006	8d 42 0c	 lea	 eax, DWORD PTR [edx+12]
  00009	8b 4a dc	 mov	 ecx, DWORD PTR [edx-36]
  0000c	33 c8		 xor	 ecx, eax
  0000e	e8 00 00 00 00	 call	 @__security_check_cookie@4
  00013	b8 00 00 00 00	 mov	 eax, OFFSET __ehfuncinfo$?GetAmountInfo@CChartPeriodSummaryAddInImp@@QAEHPBDPAVCAmount@CPeriodObj@@HH@Z
  00018	e9 00 00 00 00	 jmp	 ___CxxFrameHandler3
text$x	ENDS
?GetAmountInfo@CChartPeriodSummaryAddInImp@@QAEHPBDPAVCAmount@CPeriodObj@@HH@Z ENDP ; CChartPeriodSummaryAddInImp::GetAmountInfo
; Function compile flags: /Ogtp
; File D:\git\src\IBK\IBK_DRFN\ProjSrc\SrcChartEx\ChartAddIn\ChartPeriodSummaryAddIn\ChartPeriodSummaryAddInImp.cpp
; File D:\git\src\IBK\IBK_DRFN\ProjSrc\SrcChartEx\ChartAddIn\ChartPeriodSummaryAddIn\PeriodObj.h
; File D:\git\src\IBK\IBK_DRFN\ProjSrc\SrcChartEx\ChartAddIn\ChartPeriodSummaryAddIn\ChartPeriodSummaryAddInImp.cpp
;	COMDAT ?GetCandleInfo@CChartPeriodSummaryAddInImp@@QAEHPBDPAVCCandle@CPeriodObj@@HH@Z
_TEXT	SEGMENT
_dCur$2 = -32						; size = 8
_dRef$3 = -24						; size = 8
__$EHRec$ = -16						; size = 16
_pIPacketForCur$ = 8					; size = 4
_p_szRQ$ = 8						; size = 4
_pIPacketForRef$ = 12					; size = 4
_pCandleInfo$ = 12					; size = 4
_nSIndex$ = 16						; size = 4
_pIPacketManager$1$ = 20				; size = 4
_nEIndex$ = 20						; size = 4
?GetCandleInfo@CChartPeriodSummaryAddInImp@@QAEHPBDPAVCCandle@CPeriodObj@@HH@Z PROC ; CChartPeriodSummaryAddInImp::GetCandleInfo, COMDAT
; _this$ = ecx

; 1041 : {

  00000	55		 push	 ebp
  00001	8b ec		 mov	 ebp, esp
  00003	6a ff		 push	 -1
  00005	68 00 00 00 00	 push	 __ehhandler$?GetCandleInfo@CChartPeriodSummaryAddInImp@@QAEHPBDPAVCCandle@CPeriodObj@@HH@Z
  0000a	64 a1 00 00 00
	00		 mov	 eax, DWORD PTR fs:0
  00010	50		 push	 eax
  00011	83 ec 14	 sub	 esp, 20			; 00000014H
  00014	53		 push	 ebx
  00015	56		 push	 esi
  00016	57		 push	 edi
  00017	a1 00 00 00 00	 mov	 eax, DWORD PTR ___security_cookie
  0001c	33 c5		 xor	 eax, ebp
  0001e	50		 push	 eax
  0001f	8d 45 f4	 lea	 eax, DWORD PTR __$EHRec$[ebp+4]
  00022	64 a3 00 00 00
	00		 mov	 DWORD PTR fs:0, eax
  00028	89 65 f0	 mov	 DWORD PTR __$EHRec$[ebp], esp

; 1042 : 	if(nSIndex>nEIndex)
; 1043 : 	{
; 1044 : 		int nTemp = nEIndex;
; 1045 : 		nEIndex = nSIndex;
; 1046 : 		nSIndex = nTemp;
; 1047 : 	}
; 1048 : 
; 1049 : 	IPacketManager *pIPacketManager = m_pIPacketListManager->GetPacketManager( p_szRQ);

  0002b	8b 45 14	 mov	 eax, DWORD PTR _nEIndex$[ebp]
  0002e	8b f8		 mov	 edi, eax
  00030	8b 55 10	 mov	 edx, DWORD PTR _nSIndex$[ebp]
  00033	3b d0		 cmp	 edx, eax
  00035	8b 49 20	 mov	 ecx, DWORD PTR [ecx+32]
  00038	ff 75 08	 push	 DWORD PTR _p_szRQ$[ebp]
  0003b	8b 75 0c	 mov	 esi, DWORD PTR _pCandleInfo$[ebp]
  0003e	0f 4e fa	 cmovle	 edi, edx
  00041	0f 4e d0	 cmovle	 edx, eax
  00044	8b 01		 mov	 eax, DWORD PTR [ecx]
  00046	89 55 10	 mov	 DWORD PTR _nSIndex$[ebp], edx
  00049	ff 50 10	 call	 DWORD PTR [eax+16]
  0004c	8b d8		 mov	 ebx, eax
  0004e	89 5d 14	 mov	 DWORD PTR _pIPacketManager$1$[ebp], ebx

; 1050 : 	if( !pIPacketManager) return R_ERROR;

  00051	85 db		 test	 ebx, ebx
  00053	0f 84 46 01 00
	00		 je	 $LN10@GetCandleI

; 1051 : 	//  
; 1052 : 	IPacket *pIPacketForRef = pIPacketManager->GetPacket( _MTEXT(C0_OPEN));

  00059	8b 0d 54 00 00
	00		 mov	 ecx, DWORD PTR ?g_iMetaTable@@3VIMetaTable@@A+84
  0005f	8b 13		 mov	 edx, DWORD PTR [ebx]
  00061	ff 71 08	 push	 DWORD PTR [ecx+8]
  00064	8b cb		 mov	 ecx, ebx
  00066	ff 52 10	 call	 DWORD PTR [edx+16]

; 1053 : 	IPacket *pIPacketForCur = pIPacketManager->GetPacket( _MTEXT(C0_CLOSE));

  00069	8b 0d 54 00 00
	00		 mov	 ecx, DWORD PTR ?g_iMetaTable@@3VIMetaTable@@A+84
  0006f	8b 13		 mov	 edx, DWORD PTR [ebx]
  00071	89 45 0c	 mov	 DWORD PTR _pIPacketForRef$[ebp], eax
  00074	ff 71 14	 push	 DWORD PTR [ecx+20]
  00077	8b cb		 mov	 ecx, ebx
  00079	ff 52 10	 call	 DWORD PTR [edx+16]
  0007c	8b d8		 mov	 ebx, eax

; 1054 : 	pIPacketManager->Release();

  0007e	8b 45 14	 mov	 eax, DWORD PTR _pIPacketManager$1$[ebp]
  00081	50		 push	 eax
  00082	89 5d 08	 mov	 DWORD PTR _pIPacketForCur$[ebp], ebx
  00085	8b 08		 mov	 ecx, DWORD PTR [eax]
  00087	ff 51 08	 call	 DWORD PTR [ecx+8]

; 1055 : 
; 1056 : 	if( !pIPacketForRef || !pIPacketForCur)

  0008a	8b 4d 0c	 mov	 ecx, DWORD PTR _pIPacketForRef$[ebp]
  0008d	85 c9		 test	 ecx, ecx
  0008f	0f 84 00 01 00
	00		 je	 $LN9@GetCandleI
  00095	85 db		 test	 ebx, ebx
  00097	0f 84 f3 00 00
	00		 je	 $LN8@GetCandleI

; 1060 : 		return R_ERROR;
; 1061 : 	}
; 1062 : 
; 1063 : 	try
; 1064 : 	{
; 1065 : 		double dRef=0, dCur=0;
; 1066 : 		pCandleInfo->minus = 0;
; 1067 : 		pCandleInfo->plus = 0;
; 1068 : 		pCandleInfo->count = abs(nEIndex - nSIndex) + 1;

  0009d	8b 45 10	 mov	 eax, DWORD PTR _nSIndex$[ebp]
  000a0	0f 57 c0	 xorps	 xmm0, xmm0
  000a3	2b c7		 sub	 eax, edi
  000a5	c7 45 fc 00 00
	00 00		 mov	 DWORD PTR __$EHRec$[ebp+12], 0
  000ac	99		 cdq
  000ad	33 c2		 xor	 eax, edx
  000af	f2 0f 11 45 e8	 movsd	 QWORD PTR _dRef$3[ebp], xmm0
  000b4	2b c2		 sub	 eax, edx
  000b6	f2 0f 11 45 e0	 movsd	 QWORD PTR _dCur$2[ebp], xmm0
  000bb	40		 inc	 eax
  000bc	c7 46 08 00 00
	00 00		 mov	 DWORD PTR [esi+8], 0
  000c3	c7 46 04 00 00
	00 00		 mov	 DWORD PTR [esi+4], 0
  000ca	89 06		 mov	 DWORD PTR [esi], eax
  000cc	0f 1f 40 00	 npad	 4
$LL4@GetCandleI:

; 1069 : 		for(int i=nSIndex; i<=nEIndex;i++)

  000d0	3b 7d 10	 cmp	 edi, DWORD PTR _nSIndex$[ebp]
  000d3	7f 5f		 jg	 SHORT $LN3@GetCandleI

; 1070 : 		{
; 1071 : 			//  
; 1072 : 			if( !pIPacketForRef->GetData( i, dRef) || !pIPacketForCur->GetData( i, dCur))

  000d5	8b 01		 mov	 eax, DWORD PTR [ecx]
  000d7	8d 55 e8	 lea	 edx, DWORD PTR _dRef$3[ebp]
  000da	52		 push	 edx
  000db	57		 push	 edi
  000dc	ff 50 40	 call	 DWORD PTR [eax+64]
  000df	85 c0		 test	 eax, eax
  000e1	74 2e		 je	 SHORT $LN13@GetCandleI
  000e3	8b 03		 mov	 eax, DWORD PTR [ebx]
  000e5	8d 4d e0	 lea	 ecx, DWORD PTR _dCur$2[ebp]
  000e8	51		 push	 ecx
  000e9	57		 push	 edi
  000ea	8b cb		 mov	 ecx, ebx
  000ec	ff 50 40	 call	 DWORD PTR [eax+64]
  000ef	85 c0		 test	 eax, eax
  000f1	74 1e		 je	 SHORT $LN13@GetCandleI

; 1077 : 			}
; 1078 : 			if(dCur < dRef)	// 

  000f3	f2 0f 10 45 e8	 movsd	 xmm0, QWORD PTR _dRef$3[ebp]
  000f8	66 0f 2f 45 e0	 comisd	 xmm0, QWORD PTR _dCur$2[ebp]
  000fd	76 09		 jbe	 SHORT $LN14@GetCandleI

; 1079 : 				pCandleInfo->minus++;

  000ff	ff 46 08	 inc	 DWORD PTR [esi+8]
  00102	47		 inc	 edi
  00103	8b 4d 0c	 mov	 ecx, DWORD PTR _pIPacketForRef$[ebp]
  00106	eb c8		 jmp	 SHORT $LL4@GetCandleI
$LN14@GetCandleI:

; 1080 : 			else
; 1081 : 				pCandleInfo->plus++;				

  00108	ff 46 04	 inc	 DWORD PTR [esi+4]
  0010b	47		 inc	 edi
  0010c	8b 4d 0c	 mov	 ecx, DWORD PTR _pIPacketForRef$[ebp]
  0010f	eb bf		 jmp	 SHORT $LL4@GetCandleI
$LN13@GetCandleI:

; 1073 : 			{
; 1074 : 				pIPacketForRef->Release();

  00111	8b 4d 0c	 mov	 ecx, DWORD PTR _pIPacketForRef$[ebp]
  00114	51		 push	 ecx
  00115	8b 01		 mov	 eax, DWORD PTR [ecx]
  00117	ff 50 08	 call	 DWORD PTR [eax+8]

; 1075 : 				pIPacketForCur->Release();
; 1076 : 				return R_ERROR;

  0011a	eb 7d		 jmp	 SHORT $LN29@GetCandleI
__catch$?GetCandleInfo@CChartPeriodSummaryAddInImp@@QAEHPBDPAVCCandle@CPeriodObj@@HH@Z$0:

; 1087 : 	catch( CChartPeriodSummaryAddInImp *)
; 1088 : 	{
; 1089 : 		pIPacketForRef->Release();

  0011c	8b 45 0c	 mov	 eax, DWORD PTR _pIPacketForRef$[ebp]
  0011f	50		 push	 eax
  00120	8b 08		 mov	 ecx, DWORD PTR [eax]
  00122	ff 51 08	 call	 DWORD PTR [ecx+8]

; 1090 : 		pIPacketForCur->Release();

  00125	8b 45 08	 mov	 eax, DWORD PTR _pIPacketForCur$[ebp]
  00128	50		 push	 eax
  00129	8b 08		 mov	 ecx, DWORD PTR [eax]
  0012b	ff 51 08	 call	 DWORD PTR [ecx+8]

; 1091 : 		return R_ERROR;

  0012e	b8 00 00 00 00	 mov	 eax, $LN10@GetCandleI
  00133	c3		 ret	 0
$LN3@GetCandleI:
; File D:\git\src\IBK\IBK_DRFN\ProjSrc\SrcChartEx\ChartAddIn\ChartPeriodSummaryAddIn\PeriodObj.h

; 84   : 			if(!minus) ratio = 100.;

  00134	8b 46 08	 mov	 eax, DWORD PTR [esi+8]
  00137	85 c0		 test	 eax, eax
  00139	75 0a		 jne	 SHORT $LN22@GetCandleI
  0013b	f2 0f 10 0d 00
	00 00 00	 movsd	 xmm1, QWORD PTR __real@4059000000000000
  00143	eb 1d		 jmp	 SHORT $LN23@GetCandleI
$LN22@GetCandleI:
  00145	66 0f 6e 4e 04	 movd	 xmm1, DWORD PTR [esi+4]
  0014a	66 0f 6e c0	 movd	 xmm0, eax

; 85   : 			else ratio = (double)plus/(double)minus*100.;

  0014e	f3 0f e6 c9	 cvtdq2pd xmm1, xmm1
  00152	f3 0f e6 c0	 cvtdq2pd xmm0, xmm0
  00156	f2 0f 5e c8	 divsd	 xmm1, xmm0
  0015a	f2 0f 59 0d 00
	00 00 00	 mulsd	 xmm1, QWORD PTR __real@4059000000000000
$LN23@GetCandleI:
; File D:\git\src\IBK\IBK_DRFN\ProjSrc\SrcChartEx\ChartAddIn\ChartPeriodSummaryAddIn\ChartPeriodSummaryAddInImp.cpp

; 1086 : 	}

  00162	f2 0f 11 4e 10	 movsd	 QWORD PTR [esi+16], xmm1

; 1092 : 	}
; 1093 : 
; 1094 : 
; 1095 : 	pIPacketForRef->Release();

  00167	8b 01		 mov	 eax, DWORD PTR [ecx]
  00169	51		 push	 ecx
  0016a	c7 45 fc ff ff
	ff ff		 mov	 DWORD PTR __$EHRec$[ebp+12], -1
  00171	ff 50 08	 call	 DWORD PTR [eax+8]
  00174	8b 03		 mov	 eax, DWORD PTR [ebx]
  00176	53		 push	 ebx
  00177	ff 50 08	 call	 DWORD PTR [eax+8]
  0017a	33 c0		 xor	 eax, eax

; 1096 : 	pIPacketForCur->Release();
; 1097 : 	return R_OK;
; 1098 : }

  0017c	8b 4d f4	 mov	 ecx, DWORD PTR __$EHRec$[ebp+4]
  0017f	64 89 0d 00 00
	00 00		 mov	 DWORD PTR fs:0, ecx
  00186	59		 pop	 ecx
  00187	5f		 pop	 edi
  00188	5e		 pop	 esi
  00189	5b		 pop	 ebx
  0018a	8b e5		 mov	 esp, ebp
  0018c	5d		 pop	 ebp
  0018d	c2 10 00	 ret	 16			; 00000010H
$LN8@GetCandleI:

; 1057 : 	{
; 1058 : 		if( pIPacketForRef) pIPacketForRef->Release();

  00190	8b 01		 mov	 eax, DWORD PTR [ecx]
  00192	51		 push	 ecx

; 1059 : 		if( pIPacketForCur) pIPacketForCur->Release();

  00193	eb 07		 jmp	 SHORT $LN30@GetCandleI
$LN9@GetCandleI:
  00195	85 db		 test	 ebx, ebx
  00197	74 06		 je	 SHORT $LN10@GetCandleI
$LN29@GetCandleI:

; 1096 : 	pIPacketForCur->Release();
; 1097 : 	return R_OK;
; 1098 : }

  00199	8b 03		 mov	 eax, DWORD PTR [ebx]
  0019b	53		 push	 ebx
$LN30@GetCandleI:
  0019c	ff 50 08	 call	 DWORD PTR [eax+8]
$LN10@GetCandleI:
  0019f	83 c8 ff	 or	 eax, -1
  001a2	8b 4d f4	 mov	 ecx, DWORD PTR __$EHRec$[ebp+4]
  001a5	64 89 0d 00 00
	00 00		 mov	 DWORD PTR fs:0, ecx
  001ac	59		 pop	 ecx
  001ad	5f		 pop	 edi
  001ae	5e		 pop	 esi
  001af	5b		 pop	 ebx
  001b0	8b e5		 mov	 esp, ebp
  001b2	5d		 pop	 ebp
  001b3	c2 10 00	 ret	 16			; 00000010H
  001b6	cc		 int	 3
  001b7	cc		 int	 3
  001b8	cc		 int	 3
  001b9	cc		 int	 3
  001ba	cc		 int	 3
_TEXT	ENDS
;	COMDAT text$x
text$x	SEGMENT
__ehhandler$?GetCandleInfo@CChartPeriodSummaryAddInImp@@QAEHPBDPAVCCandle@CPeriodObj@@HH@Z:
  00000	90		 npad	 1
  00001	90		 npad	 1
  00002	8b 54 24 08	 mov	 edx, DWORD PTR [esp+8]
  00006	8d 42 0c	 lea	 eax, DWORD PTR [edx+12]
  00009	8b 4a dc	 mov	 ecx, DWORD PTR [edx-36]
  0000c	33 c8		 xor	 ecx, eax
  0000e	e8 00 00 00 00	 call	 @__security_check_cookie@4
  00013	b8 00 00 00 00	 mov	 eax, OFFSET __ehfuncinfo$?GetCandleInfo@CChartPeriodSummaryAddInImp@@QAEHPBDPAVCCandle@CPeriodObj@@HH@Z
  00018	e9 00 00 00 00	 jmp	 ___CxxFrameHandler3
text$x	ENDS
?GetCandleInfo@CChartPeriodSummaryAddInImp@@QAEHPBDPAVCCandle@CPeriodObj@@HH@Z ENDP ; CChartPeriodSummaryAddInImp::GetCandleInfo
; Function compile flags: /Ogtp
; File D:\git\src\IBK\IBK_DRFN\ProjSrc\SrcChartEx\ChartAddIn\ChartPeriodSummaryAddIn\ChartPeriodSummaryAddInImp.cpp
;	COMDAT ?GetPriceInfo@CChartPeriodSummaryAddInImp@@QAEHPBDPAVCPrice@CPeriodObj@@HH@Z
_TEXT	SEGMENT
_dCur$2 = -76						; size = 8
_dMin$3 = -68						; size = 8
_dMax$4 = -60						; size = 8
_pIPacketForCur$ = -52					; size = 4
_pIPacketForMin$ = -48					; size = 4
tv438 = -44						; size = 4
$T5 = -40						; size = 4
$T6 = -36						; size = 4
$T7 = -32						; size = 4
$T8 = -28						; size = 4
tv439 = -24						; size = 4
_pIPacketManager$1$ = -24				; size = 4
_this$1$ = -20						; size = 4
__$EHRec$ = -16						; size = 16
_pIPacketForMax$ = 8					; size = 4
_p_szRQ$ = 8						; size = 4
_pPriceInfo$ = 12					; size = 4
_nSIndex$ = 16						; size = 4
tv450 = 20						; size = 4
_nEIndex$ = 20						; size = 4
?GetPriceInfo@CChartPeriodSummaryAddInImp@@QAEHPBDPAVCPrice@CPeriodObj@@HH@Z PROC ; CChartPeriodSummaryAddInImp::GetPriceInfo, COMDAT
; _this$ = ecx

; 970  : {

  00000	55		 push	 ebp
  00001	8b ec		 mov	 ebp, esp
  00003	6a ff		 push	 -1
  00005	68 00 00 00 00	 push	 __ehhandler$?GetPriceInfo@CChartPeriodSummaryAddInImp@@QAEHPBDPAVCPrice@CPeriodObj@@HH@Z
  0000a	64 a1 00 00 00
	00		 mov	 eax, DWORD PTR fs:0
  00010	50		 push	 eax
  00011	83 ec 40	 sub	 esp, 64			; 00000040H
  00014	53		 push	 ebx
  00015	56		 push	 esi
  00016	57		 push	 edi
  00017	a1 00 00 00 00	 mov	 eax, DWORD PTR ___security_cookie
  0001c	33 c5		 xor	 eax, ebp
  0001e	50		 push	 eax
  0001f	8d 45 f4	 lea	 eax, DWORD PTR __$EHRec$[ebp+4]
  00022	64 a3 00 00 00
	00		 mov	 DWORD PTR fs:0, eax
  00028	89 65 f0	 mov	 DWORD PTR __$EHRec$[ebp], esp
  0002b	8b c1		 mov	 eax, ecx
  0002d	89 45 ec	 mov	 DWORD PTR _this$1$[ebp], eax

; 971  : 	IPacketManager *pIPacketManager = m_pIPacketListManager->GetPacketManager( p_szRQ);

  00030	8b 48 20	 mov	 ecx, DWORD PTR [eax+32]
  00033	ff 75 08	 push	 DWORD PTR _p_szRQ$[ebp]
  00036	8b 01		 mov	 eax, DWORD PTR [ecx]
  00038	ff 50 10	 call	 DWORD PTR [eax+16]
  0003b	8b f8		 mov	 edi, eax
  0003d	89 7d e8	 mov	 DWORD PTR _pIPacketManager$1$[ebp], edi

; 972  : 	if( !pIPacketManager) return R_ERROR;

  00040	85 ff		 test	 edi, edi
  00042	0f 84 fd 01 00
	00		 je	 $LN10@GetPriceIn

; 973  : 
; 974  : 	//  
; 975  : 	IPacket *pIPacketForMax = pIPacketManager->GetPacket( _MTEXT(C0_HIGH));

  00048	8b 0d 54 00 00
	00		 mov	 ecx, DWORD PTR ?g_iMetaTable@@3VIMetaTable@@A+84
  0004e	8b 17		 mov	 edx, DWORD PTR [edi]
  00050	ff 71 0c	 push	 DWORD PTR [ecx+12]
  00053	8b cf		 mov	 ecx, edi
  00055	ff 52 10	 call	 DWORD PTR [edx+16]

; 976  : 	IPacket *pIPacketForMin = pIPacketManager->GetPacket( _MTEXT(C0_LOW));

  00058	8b 0d 54 00 00
	00		 mov	 ecx, DWORD PTR ?g_iMetaTable@@3VIMetaTable@@A+84
  0005e	8b f0		 mov	 esi, eax
  00060	8b 17		 mov	 edx, DWORD PTR [edi]
  00062	89 75 08	 mov	 DWORD PTR _pIPacketForMax$[ebp], esi
  00065	ff 71 10	 push	 DWORD PTR [ecx+16]
  00068	8b cf		 mov	 ecx, edi
  0006a	ff 52 10	 call	 DWORD PTR [edx+16]

; 977  : 	IPacket *pIPacketForCur = pIPacketManager->GetPacket( _MTEXT(C0_CLOSE));

  0006d	8b 0d 54 00 00
	00		 mov	 ecx, DWORD PTR ?g_iMetaTable@@3VIMetaTable@@A+84
  00073	8b d8		 mov	 ebx, eax
  00075	8b 17		 mov	 edx, DWORD PTR [edi]
  00077	89 5d d0	 mov	 DWORD PTR _pIPacketForMin$[ebp], ebx
  0007a	ff 71 14	 push	 DWORD PTR [ecx+20]
  0007d	8b cf		 mov	 ecx, edi
  0007f	ff 52 10	 call	 DWORD PTR [edx+16]
  00082	8b f8		 mov	 edi, eax

; 978  : 	pIPacketManager->Release();

  00084	8b 45 e8	 mov	 eax, DWORD PTR _pIPacketManager$1$[ebp]
  00087	50		 push	 eax
  00088	89 7d cc	 mov	 DWORD PTR _pIPacketForCur$[ebp], edi
  0008b	8b 08		 mov	 ecx, DWORD PTR [eax]
  0008d	ff 51 08	 call	 DWORD PTR [ecx+8]

; 979  : 	
; 980  : 	if( !pIPacketForMax || !pIPacketForMin || !pIPacketForCur)

  00090	85 f6		 test	 esi, esi
  00092	0f 84 99 01 00
	00		 je	 $LN8@GetPriceIn
  00098	85 db		 test	 ebx, ebx
  0009a	0f 84 8b 01 00
	00		 je	 $LN7@GetPriceIn
  000a0	85 ff		 test	 edi, edi
  000a2	0f 84 83 01 00
	00		 je	 $LN7@GetPriceIn

; 985  : 		return R_ERROR;
; 986  : 	}
; 987  : 
; 988  : 	pPriceInfo->avg = 0;

  000a8	8b 4d 0c	 mov	 ecx, DWORD PTR _pPriceInfo$[ebp]
  000ab	0f 57 c0	 xorps	 xmm0, xmm0

; 989  : 	
; 990  : 	try
; 991  : 	{
; 992  : 		double dMax=0, dMin=0, dCur=0;
; 993  : 
; 994  : 		//  
; 995  : 		if( !pIPacketForCur->GetData( nSIndex, pPriceInfo->sPrice)) throw this;	//  

  000ae	51		 push	 ecx
  000af	ff 75 10	 push	 DWORD PTR _nSIndex$[ebp]
  000b2	c7 45 fc 00 00
	00 00		 mov	 DWORD PTR __$EHRec$[ebp+12], 0
  000b9	f2 0f 11 41 20	 movsd	 QWORD PTR [ecx+32], xmm0
  000be	8b cf		 mov	 ecx, edi
  000c0	8b 07		 mov	 eax, DWORD PTR [edi]
  000c2	f2 0f 11 45 c4	 movsd	 QWORD PTR _dMax$4[ebp], xmm0
  000c7	f2 0f 11 45 bc	 movsd	 QWORD PTR _dMin$3[ebp], xmm0
  000cc	f2 0f 11 45 b4	 movsd	 QWORD PTR _dCur$2[ebp], xmm0
  000d1	ff 50 40	 call	 DWORD PTR [eax+64]
  000d4	85 c0		 test	 eax, eax
  000d6	0f 84 80 01 00
	00		 je	 $LN35@GetPriceIn

; 996  : 		if( !pIPacketForCur->GetData( nEIndex, pPriceInfo->ePrice)) throw this;	//  

  000dc	8b 45 0c	 mov	 eax, DWORD PTR _pPriceInfo$[ebp]
  000df	8b cf		 mov	 ecx, edi
  000e1	8b 17		 mov	 edx, DWORD PTR [edi]
  000e3	83 c0 08	 add	 eax, 8
  000e6	50		 push	 eax
  000e7	ff 75 14	 push	 DWORD PTR _nEIndex$[ebp]
  000ea	ff 52 40	 call	 DWORD PTR [edx+64]
  000ed	85 c0		 test	 eax, eax
  000ef	0f 84 7b 01 00
	00		 je	 $LN36@GetPriceIn

; 997  : 		if( !pIPacketForMax->GetData( nSIndex, pPriceInfo->max)) throw this;	// 

  000f5	8b 4d 0c	 mov	 ecx, DWORD PTR _pPriceInfo$[ebp]
  000f8	8b 06		 mov	 eax, DWORD PTR [esi]
  000fa	83 c1 10	 add	 ecx, 16			; 00000010H
  000fd	51		 push	 ecx
  000fe	ff 75 10	 push	 DWORD PTR _nSIndex$[ebp]
  00101	89 4d e8	 mov	 DWORD PTR tv439[ebp], ecx
  00104	8b ce		 mov	 ecx, esi
  00106	ff 50 40	 call	 DWORD PTR [eax+64]
  00109	85 c0		 test	 eax, eax
  0010b	0f 84 73 01 00
	00		 je	 $LN37@GetPriceIn

; 998  : 		if( !pIPacketForMin->GetData( nSIndex, pPriceInfo->min)) throw this;	// 

  00111	8b 4d 0c	 mov	 ecx, DWORD PTR _pPriceInfo$[ebp]
  00114	8b 03		 mov	 eax, DWORD PTR [ebx]
  00116	83 c1 18	 add	 ecx, 24			; 00000018H
  00119	51		 push	 ecx
  0011a	ff 75 10	 push	 DWORD PTR _nSIndex$[ebp]
  0011d	89 4d d4	 mov	 DWORD PTR tv438[ebp], ecx
  00120	8b cb		 mov	 ecx, ebx
  00122	ff 50 40	 call	 DWORD PTR [eax+64]
  00125	85 c0		 test	 eax, eax
  00127	0f 84 6b 01 00
	00		 je	 $LN38@GetPriceIn

; 999  : 
; 1000 : 		if(nSIndex>nEIndex)
; 1001 : 		{
; 1002 : 			int nTemp = nEIndex;
; 1003 : 			nEIndex = nSIndex;
; 1004 : 			nSIndex = nTemp;
; 1005 : 		}
; 1006 : 		for(int i=nSIndex; i<=nEIndex;i++)

  0012d	8b 4d 14	 mov	 ecx, DWORD PTR _nEIndex$[ebp]
  00130	8b d1		 mov	 edx, ecx
  00132	8b 45 10	 mov	 eax, DWORD PTR _nSIndex$[ebp]
  00135	3b c1		 cmp	 eax, ecx
  00137	0f 4e d0	 cmovle	 edx, eax
  0013a	0f 4e c1	 cmovle	 eax, ecx
  0013d	89 55 14	 mov	 DWORD PTR tv450[ebp], edx
  00140	8b f2		 mov	 esi, edx
  00142	89 45 10	 mov	 DWORD PTR _nSIndex$[ebp], eax
$LL4@GetPriceIn:
  00145	8b 4d 08	 mov	 ecx, DWORD PTR _pIPacketForMax$[ebp]
  00148	3b f0		 cmp	 esi, eax
  0014a	8b 01		 mov	 eax, DWORD PTR [ecx]
  0014c	0f 8f 8b 00 00
	00		 jg	 $LN3@GetPriceIn

; 1007 : 		{
; 1008 : 			//  
; 1009 : 			if( !pIPacketForMax->GetData( i, dMax) || !pIPacketForMin->GetData( i, dMin) || !pIPacketForCur->GetData( i, dCur))

  00152	8d 55 c4	 lea	 edx, DWORD PTR _dMax$4[ebp]
  00155	52		 push	 edx
  00156	56		 push	 esi
  00157	ff 50 40	 call	 DWORD PTR [eax+64]
  0015a	85 c0		 test	 eax, eax
  0015c	74 6e		 je	 SHORT $LN18@GetPriceIn
  0015e	8b 03		 mov	 eax, DWORD PTR [ebx]
  00160	8d 4d bc	 lea	 ecx, DWORD PTR _dMin$3[ebp]
  00163	51		 push	 ecx
  00164	56		 push	 esi
  00165	8b cb		 mov	 ecx, ebx
  00167	ff 50 40	 call	 DWORD PTR [eax+64]
  0016a	85 c0		 test	 eax, eax
  0016c	74 5e		 je	 SHORT $LN18@GetPriceIn
  0016e	8b 07		 mov	 eax, DWORD PTR [edi]
  00170	8d 4d b4	 lea	 ecx, DWORD PTR _dCur$2[ebp]
  00173	51		 push	 ecx
  00174	56		 push	 esi
  00175	8b cf		 mov	 ecx, edi
  00177	ff 50 40	 call	 DWORD PTR [eax+64]
  0017a	85 c0		 test	 eax, eax
  0017c	74 4e		 je	 SHORT $LN18@GetPriceIn

; 1015 : 			}
; 1016 : 			pPriceInfo->max = max(pPriceInfo->max, dMax);

  0017e	8b 45 e8	 mov	 eax, DWORD PTR tv439[ebp]

; 1017 : 			//  
; 1018 : 			pPriceInfo->min = min(pPriceInfo->min, dMin);
; 1019 : 			//  
; 1020 : 			pPriceInfo->avg += dCur/(nEIndex-nSIndex+1);

  00181	f2 0f 10 4d b4	 movsd	 xmm1, QWORD PTR _dCur$2[ebp]
  00186	f2 0f 10 00	 movsd	 xmm0, QWORD PTR [eax]
  0018a	f2 0f 5f 45 c4	 maxsd	 xmm0, QWORD PTR _dMax$4[ebp]
  0018f	f2 0f 11 00	 movsd	 QWORD PTR [eax], xmm0
  00193	8b 45 d4	 mov	 eax, DWORD PTR tv438[ebp]
  00196	f2 0f 10 00	 movsd	 xmm0, QWORD PTR [eax]
  0019a	f2 0f 5d 45 bc	 minsd	 xmm0, QWORD PTR _dMin$3[ebp]
  0019f	f2 0f 11 00	 movsd	 QWORD PTR [eax], xmm0
  001a3	8b 45 10	 mov	 eax, DWORD PTR _nSIndex$[ebp]
  001a6	2b 45 14	 sub	 eax, DWORD PTR tv450[ebp]
  001a9	40		 inc	 eax
  001aa	46		 inc	 esi
  001ab	66 0f 6e c0	 movd	 xmm0, eax
  001af	f3 0f e6 c0	 cvtdq2pd xmm0, xmm0
  001b3	8b 45 0c	 mov	 eax, DWORD PTR _pPriceInfo$[ebp]
  001b6	f2 0f 5e c8	 divsd	 xmm1, xmm0
  001ba	f2 0f 58 48 20	 addsd	 xmm1, QWORD PTR [eax+32]
  001bf	f2 0f 11 48 20	 movsd	 QWORD PTR [eax+32], xmm1
  001c4	8b 45 10	 mov	 eax, DWORD PTR _nSIndex$[ebp]
  001c7	e9 79 ff ff ff	 jmp	 $LL4@GetPriceIn
$LN18@GetPriceIn:

; 1010 : 			{
; 1011 : 				pIPacketForMax->Release();

  001cc	8b 4d 08	 mov	 ecx, DWORD PTR _pIPacketForMax$[ebp]
  001cf	51		 push	 ecx
  001d0	8b 01		 mov	 eax, DWORD PTR [ecx]
  001d2	ff 50 08	 call	 DWORD PTR [eax+8]

; 1012 : 				pIPacketForMin->Release();

  001d5	8b 03		 mov	 eax, DWORD PTR [ebx]
  001d7	53		 push	 ebx
  001d8	ff 50 08	 call	 DWORD PTR [eax+8]

; 1013 : 				pIPacketForCur->Release();
; 1014 : 				return R_ERROR;

  001db	eb 62		 jmp	 SHORT $LN33@GetPriceIn
$LN3@GetPriceIn:

; 1029 : 	}
; 1030 : 
; 1031 : 	pIPacketForMax->Release();

  001dd	51		 push	 ecx
  001de	c7 45 fc ff ff
	ff ff		 mov	 DWORD PTR __$EHRec$[ebp+12], -1
  001e5	ff 50 08	 call	 DWORD PTR [eax+8]
  001e8	8b 03		 mov	 eax, DWORD PTR [ebx]
  001ea	53		 push	 ebx
  001eb	ff 50 08	 call	 DWORD PTR [eax+8]
  001ee	8b 07		 mov	 eax, DWORD PTR [edi]
  001f0	57		 push	 edi
  001f1	ff 50 08	 call	 DWORD PTR [eax+8]
  001f4	33 c0		 xor	 eax, eax

; 1032 : 	pIPacketForMin->Release();
; 1033 : 	pIPacketForCur->Release();
; 1034 : 	return R_OK;
; 1035 : 
; 1036 : }

  001f6	8b 4d f4	 mov	 ecx, DWORD PTR __$EHRec$[ebp+4]
  001f9	64 89 0d 00 00
	00 00		 mov	 DWORD PTR fs:0, ecx
  00200	59		 pop	 ecx
  00201	5f		 pop	 edi
  00202	5e		 pop	 esi
  00203	5b		 pop	 ebx
  00204	8b e5		 mov	 esp, ebp
  00206	5d		 pop	 ebp
  00207	c2 10 00	 ret	 16			; 00000010H
__catch$?GetPriceInfo@CChartPeriodSummaryAddInImp@@QAEHPBDPAVCPrice@CPeriodObj@@HH@Z$0:

; 1021 : 		}		
; 1022 : 	}
; 1023 : 	catch( CChartPeriodSummaryAddInImp *)
; 1024 : 	{
; 1025 : 		pIPacketForMax->Release();

  0020a	8b 45 08	 mov	 eax, DWORD PTR _pIPacketForMax$[ebp]
  0020d	50		 push	 eax
  0020e	8b 08		 mov	 ecx, DWORD PTR [eax]
  00210	ff 51 08	 call	 DWORD PTR [ecx+8]

; 1026 : 		pIPacketForMin->Release();

  00213	8b 45 d0	 mov	 eax, DWORD PTR _pIPacketForMin$[ebp]
  00216	50		 push	 eax
  00217	8b 08		 mov	 ecx, DWORD PTR [eax]
  00219	ff 51 08	 call	 DWORD PTR [ecx+8]

; 1027 : 		pIPacketForCur->Release();

  0021c	8b 45 cc	 mov	 eax, DWORD PTR _pIPacketForCur$[ebp]
  0021f	50		 push	 eax
  00220	8b 08		 mov	 ecx, DWORD PTR [eax]
  00222	ff 51 08	 call	 DWORD PTR [ecx+8]

; 1028 : 		return R_ERROR;

  00225	b8 00 00 00 00	 mov	 eax, $LN10@GetPriceIn
  0022a	c3		 ret	 0
$LN7@GetPriceIn:

; 981  : 	{
; 982  : 		if( pIPacketForMax) pIPacketForMax->Release();

  0022b	8b 06		 mov	 eax, DWORD PTR [esi]
  0022d	56		 push	 esi
  0022e	ff 50 08	 call	 DWORD PTR [eax+8]
$LN8@GetPriceIn:

; 983  : 		if( pIPacketForMin) pIPacketForMin->Release();

  00231	85 db		 test	 ebx, ebx
  00233	74 06		 je	 SHORT $LN9@GetPriceIn
  00235	8b 03		 mov	 eax, DWORD PTR [ebx]
  00237	53		 push	 ebx
  00238	ff 50 08	 call	 DWORD PTR [eax+8]
$LN9@GetPriceIn:

; 984  : 		if( pIPacketForCur) pIPacketForCur->Release();

  0023b	85 ff		 test	 edi, edi
  0023d	74 06		 je	 SHORT $LN10@GetPriceIn
$LN33@GetPriceIn:

; 1032 : 	pIPacketForMin->Release();
; 1033 : 	pIPacketForCur->Release();
; 1034 : 	return R_OK;
; 1035 : 
; 1036 : }

  0023f	8b 07		 mov	 eax, DWORD PTR [edi]
  00241	57		 push	 edi
  00242	ff 50 08	 call	 DWORD PTR [eax+8]
$LN10@GetPriceIn:
  00245	83 c8 ff	 or	 eax, -1
  00248	8b 4d f4	 mov	 ecx, DWORD PTR __$EHRec$[ebp+4]
  0024b	64 89 0d 00 00
	00 00		 mov	 DWORD PTR fs:0, ecx
  00252	59		 pop	 ecx
  00253	5f		 pop	 edi
  00254	5e		 pop	 esi
  00255	5b		 pop	 ebx
  00256	8b e5		 mov	 esp, ebp
  00258	5d		 pop	 ebp
  00259	c2 10 00	 ret	 16			; 00000010H
$LN35@GetPriceIn:

; 989  : 	
; 990  : 	try
; 991  : 	{
; 992  : 		double dMax=0, dMin=0, dCur=0;
; 993  : 
; 994  : 		//  
; 995  : 		if( !pIPacketForCur->GetData( nSIndex, pPriceInfo->sPrice)) throw this;	//  

  0025c	8b 45 ec	 mov	 eax, DWORD PTR _this$1$[ebp]
  0025f	89 45 e4	 mov	 DWORD PTR $T8[ebp], eax
  00262	8d 45 e4	 lea	 eax, DWORD PTR $T8[ebp]
  00265	68 00 00 00 00	 push	 OFFSET __TI7PAVCChartPeriodSummaryAddInImp@@
  0026a	50		 push	 eax
  0026b	e8 00 00 00 00	 call	 __CxxThrowException@8
$LN36@GetPriceIn:

; 996  : 		if( !pIPacketForCur->GetData( nEIndex, pPriceInfo->ePrice)) throw this;	//  

  00270	8b 45 ec	 mov	 eax, DWORD PTR _this$1$[ebp]
  00273	89 45 e0	 mov	 DWORD PTR $T7[ebp], eax
  00276	8d 45 e0	 lea	 eax, DWORD PTR $T7[ebp]
  00279	68 00 00 00 00	 push	 OFFSET __TI7PAVCChartPeriodSummaryAddInImp@@
  0027e	50		 push	 eax
  0027f	e8 00 00 00 00	 call	 __CxxThrowException@8
$LN37@GetPriceIn:

; 997  : 		if( !pIPacketForMax->GetData( nSIndex, pPriceInfo->max)) throw this;	// 

  00284	8b 45 ec	 mov	 eax, DWORD PTR _this$1$[ebp]
  00287	89 45 dc	 mov	 DWORD PTR $T6[ebp], eax
  0028a	8d 45 dc	 lea	 eax, DWORD PTR $T6[ebp]
  0028d	68 00 00 00 00	 push	 OFFSET __TI7PAVCChartPeriodSummaryAddInImp@@
  00292	50		 push	 eax
  00293	e8 00 00 00 00	 call	 __CxxThrowException@8
$LN38@GetPriceIn:

; 998  : 		if( !pIPacketForMin->GetData( nSIndex, pPriceInfo->min)) throw this;	// 

  00298	8b 45 ec	 mov	 eax, DWORD PTR _this$1$[ebp]
  0029b	89 45 d8	 mov	 DWORD PTR $T5[ebp], eax
  0029e	8d 45 d8	 lea	 eax, DWORD PTR $T5[ebp]
  002a1	68 00 00 00 00	 push	 OFFSET __TI7PAVCChartPeriodSummaryAddInImp@@
  002a6	50		 push	 eax
  002a7	e8 00 00 00 00	 call	 __CxxThrowException@8
$LN32@GetPriceIn:
  002ac	cc		 int	 3
  002ad	cc		 int	 3
  002ae	cc		 int	 3
  002af	cc		 int	 3
  002b0	cc		 int	 3
  002b1	cc		 int	 3
_TEXT	ENDS
;	COMDAT text$x
text$x	SEGMENT
__ehhandler$?GetPriceInfo@CChartPeriodSummaryAddInImp@@QAEHPBDPAVCPrice@CPeriodObj@@HH@Z:
  00000	90		 npad	 1
  00001	90		 npad	 1
  00002	8b 54 24 08	 mov	 edx, DWORD PTR [esp+8]
  00006	8d 42 0c	 lea	 eax, DWORD PTR [edx+12]
  00009	8b 4a b0	 mov	 ecx, DWORD PTR [edx-80]
  0000c	33 c8		 xor	 ecx, eax
  0000e	e8 00 00 00 00	 call	 @__security_check_cookie@4
  00013	b8 00 00 00 00	 mov	 eax, OFFSET __ehfuncinfo$?GetPriceInfo@CChartPeriodSummaryAddInImp@@QAEHPBDPAVCPrice@CPeriodObj@@HH@Z
  00018	e9 00 00 00 00	 jmp	 ___CxxFrameHandler3
text$x	ENDS
?GetPriceInfo@CChartPeriodSummaryAddInImp@@QAEHPBDPAVCPrice@CPeriodObj@@HH@Z ENDP ; CChartPeriodSummaryAddInImp::GetPriceInfo
; Function compile flags: /Ogtp
; File D:\git\src\IBK\IBK_DRFN\ProjSrc\SrcChartEx\ChartAddIn\ChartPeriodSummaryAddIn\ChartPeriodSummaryAddInImp.cpp
;	COMDAT ?OnReleaseDraw@CChartPeriodSummaryAddInImp@@QAEXXZ
_TEXT	SEGMENT
?OnReleaseDraw@CChartPeriodSummaryAddInImp@@QAEXXZ PROC	; CChartPeriodSummaryAddInImp::OnReleaseDraw, COMDAT
; _this$ = ecx

; 1283 : 	m_nCommandType = 2;

  00000	c7 41 70 02 00
	00 00		 mov	 DWORD PTR [ecx+112], 2

; 1284 : 	if( m_pIChartOCX != NULL )

  00007	8b 49 0c	 mov	 ecx, DWORD PTR [ecx+12]
  0000a	85 c9		 test	 ecx, ecx
  0000c	74 0c		 je	 SHORT $LN2@OnReleaseD

; 1285 : 		m_pIChartOCX->OnToolStateChanged( CToolOptionInfo::T_TOOL_PERIOD_SUMMARY, FALSE );	

  0000e	8b 01		 mov	 eax, DWORD PTR [ecx]
  00010	6a 00		 push	 0
  00012	6a 67		 push	 103			; 00000067H
  00014	ff 90 ac 01 00
	00		 call	 DWORD PTR [eax+428]
$LN2@OnReleaseD:

; 1286 : }

  0001a	c3		 ret	 0
?OnReleaseDraw@CChartPeriodSummaryAddInImp@@QAEXXZ ENDP	; CChartPeriodSummaryAddInImp::OnReleaseDraw
_TEXT	ENDS
; Function compile flags: /Ogtp
; File D:\git\src\IBK\IBK_DRFN\ProjSrc\SrcChartEx\ChartAddIn\ChartPeriodSummaryAddIn\ChartPeriodSummaryAddInImp.cpp
; File C:\Program Files (x86)\Microsoft Visual Studio\2019\Community\VC\Tools\MSVC\14.29.30133\atlmfc\include\afxcoll.inl
; File D:\git\src\IBK\IBK_DRFN\ProjSrc\SrcChartEx\ChartAddIn\ChartPeriodSummaryAddIn\ChartPeriodSummaryAddInImp.cpp
; File C:\Program Files (x86)\Microsoft Visual Studio\2019\Community\VC\Tools\MSVC\14.29.30133\atlmfc\include\afxcoll.inl
; File D:\git\src\IBK\IBK_DRFN\ProjSrc\SrcChartEx\ChartAddIn\ChartPeriodSummaryAddIn\ChartPeriodSummaryAddInImp.cpp
; File C:\Program Files (x86)\Microsoft Visual Studio\2019\Community\VC\Tools\MSVC\14.29.30133\atlmfc\include\atlsimpstr.h
; File D:\git\src\IBK\IBK_DRFN\ProjSrc\SrcChartEx\ChartAddIn\ChartPeriodSummaryAddIn\ChartPeriodSummaryAddInImp.cpp
; File C:\Program Files (x86)\Microsoft Visual Studio\2019\Community\VC\Tools\MSVC\14.29.30133\atlmfc\include\atlsimpstr.h
; File D:\git\src\IBK\IBK_DRFN\ProjSrc\SrcChartEx\ChartAddIn\ChartPeriodSummaryAddIn\ChartPeriodSummaryAddInImp.cpp
;	COMDAT ?OnPSConfig@CChartPeriodSummaryAddInImp@@QAEXPAVCPeriodObj@@@Z
_TEXT	SEGMENT
_dlg$ = -972						; size = 960
__$EHRec$ = -12						; size = 12
_iDummy$2 = 8						; size = 4
_pLine$ = 8						; size = 4
?OnPSConfig@CChartPeriodSummaryAddInImp@@QAEXPAVCPeriodObj@@@Z PROC ; CChartPeriodSummaryAddInImp::OnPSConfig, COMDAT
; _this$ = ecx

; 1165 : {

  00000	55		 push	 ebp
  00001	8b ec		 mov	 ebp, esp
  00003	6a ff		 push	 -1
  00005	68 00 00 00 00	 push	 __ehhandler$?OnPSConfig@CChartPeriodSummaryAddInImp@@QAEXPAVCPeriodObj@@@Z
  0000a	64 a1 00 00 00
	00		 mov	 eax, DWORD PTR fs:0
  00010	50		 push	 eax
  00011	81 ec c0 03 00
	00		 sub	 esp, 960		; 000003c0H
  00017	56		 push	 esi
  00018	57		 push	 edi
  00019	a1 00 00 00 00	 mov	 eax, DWORD PTR ___security_cookie
  0001e	33 c5		 xor	 eax, ebp
  00020	50		 push	 eax
  00021	8d 45 f4	 lea	 eax, DWORD PTR __$EHRec$[ebp]
  00024	64 a3 00 00 00
	00		 mov	 DWORD PTR fs:0, eax
  0002a	8b f9		 mov	 edi, ecx

; 1166 : 	//100125-alzioyes.
; 1167 : 	if(!m_pCurSelectedLine) return;

  0002c	83 bf 80 00 00
	00 00		 cmp	 DWORD PTR [edi+128], 0
  00033	0f 84 70 05 00
	00		 je	 $LN27@OnPSConfig

; 1168 : 
; 1169 : 	CPSConfigDlg dlg;

  00039	6a 00		 push	 0
  0003b	8d 8d 34 fc ff
	ff		 lea	 ecx, DWORD PTR _dlg$[ebp]
  00041	e8 00 00 00 00	 call	 ??0CPSConfigDlg@@QAE@PAVCWnd@@@Z ; CPSConfigDlg::CPSConfigDlg

; 1170 : 
; 1171 : 	m_pCurSelectedLine = pLine;

  00046	8b 55 08	 mov	 edx, DWORD PTR _pLine$[ebp]
  00049	89 97 80 00 00
	00		 mov	 DWORD PTR [edi+128], edx
  0004f	c7 45 fc 00 00
	00 00		 mov	 DWORD PTR __$EHRec$[ebp+8], 0

; 1172 : 
; 1173 : 	//  
; 1174 : 	dlg.m_SPrice = m_pCurSelectedLine->m_Price.sPrice;

  00056	f2 0f 10 82 88
	01 00 00	 movsd	 xmm0, QWORD PTR [edx+392]
  0005e	f2 0f 11 45 8c	 movsd	 QWORD PTR _dlg$[ebp+856], xmm0

; 1175 : 	dlg.m_EPrice = m_pCurSelectedLine->m_Price.ePrice;

  00063	f2 0f 10 82 90
	01 00 00	 movsd	 xmm0, QWORD PTR [edx+400]
  0006b	f2 0f 11 45 94	 movsd	 QWORD PTR _dlg$[ebp+864], xmm0

; 1176 : 	dlg.m_bSEPrice = m_pCurSelectedLine->m_bSEPrice;

  00070	8b 82 18 01 00
	00		 mov	 eax, DWORD PTR [edx+280]
  00076	89 45 9c	 mov	 DWORD PTR _dlg$[ebp+872], eax

; 1177 : 	dlg.m_bEEPrice = m_pCurSelectedLine->m_bEEPrice;

  00079	8b 82 1c 01 00
	00		 mov	 eax, DWORD PTR [edx+284]
  0007f	89 45 a0	 mov	 DWORD PTR _dlg$[ebp+876], eax

; 1178 : 	dlg.m_bHPrice = m_pCurSelectedLine->m_bHPrice;

  00082	8b 82 20 01 00
	00		 mov	 eax, DWORD PTR [edx+288]
  00088	89 45 a4	 mov	 DWORD PTR _dlg$[ebp+880], eax

; 1179 : 	dlg.m_bLPrice = m_pCurSelectedLine->m_bLPrice;

  0008b	8b 82 24 01 00
	00		 mov	 eax, DWORD PTR [edx+292]
  00091	89 45 a8	 mov	 DWORD PTR _dlg$[ebp+884], eax

; 1180 : 	dlg.m_bMPrice = m_pCurSelectedLine->m_bMPrice;

  00094	8b 82 28 01 00
	00		 mov	 eax, DWORD PTR [edx+296]
  0009a	89 45 ac	 mov	 DWORD PTR _dlg$[ebp+888], eax

; 1181 : 	dlg.m_bHAmount = m_pCurSelectedLine->m_bHAmount;

  0009d	8b 82 2c 01 00
	00		 mov	 eax, DWORD PTR [edx+300]
  000a3	89 45 b0	 mov	 DWORD PTR _dlg$[ebp+892], eax

; 1182 : 	dlg.m_bLAmount = m_pCurSelectedLine->m_bLAmount;

  000a6	8b 82 30 01 00
	00		 mov	 eax, DWORD PTR [edx+304]
  000ac	89 45 b4	 mov	 DWORD PTR _dlg$[ebp+896], eax

; 1183 : 	dlg.m_bMAmount = m_pCurSelectedLine->m_bMAmount;

  000af	8b 82 34 01 00
	00		 mov	 eax, DWORD PTR [edx+308]
  000b5	89 45 b8	 mov	 DWORD PTR _dlg$[ebp+900], eax

; 1184 : 	dlg.m_bPCandle = m_pCurSelectedLine->m_bPCNum;

  000b8	8b 82 38 01 00
	00		 mov	 eax, DWORD PTR [edx+312]
  000be	89 45 bc	 mov	 DWORD PTR _dlg$[ebp+904], eax

; 1185 : 	dlg.m_bMCandle = m_pCurSelectedLine->m_bMCNum;

  000c1	8b 82 3c 01 00
	00		 mov	 eax, DWORD PTR [edx+316]
  000c7	89 45 c0	 mov	 DWORD PTR _dlg$[ebp+908], eax

; 1186 : 	dlg.m_bPMRatio = m_pCurSelectedLine->m_bPMRatio;

  000ca	8b 82 40 01 00
	00		 mov	 eax, DWORD PTR [edx+320]
  000d0	89 45 c4	 mov	 DWORD PTR _dlg$[ebp+912], eax

; 1187 : 
; 1188 : 	// 
; 1189 : 	dlg.m_lSDate = m_pCurSelectedLine->m_lSDate;

  000d3	8b 82 68 01 00
	00		 mov	 eax, DWORD PTR [edx+360]
  000d9	8b 8a 6c 01 00
	00		 mov	 ecx, DWORD PTR [edx+364]
  000df	89 45 dc	 mov	 DWORD PTR _dlg$[ebp+936], eax
  000e2	89 4d e0	 mov	 DWORD PTR _dlg$[ebp+940], ecx

; 1190 : 	dlg.m_lEDate = m_pCurSelectedLine->m_lEDate;

  000e5	8b 82 70 01 00
	00		 mov	 eax, DWORD PTR [edx+368]
  000eb	8b 8a 74 01 00
	00		 mov	 ecx, DWORD PTR [edx+372]
  000f1	89 45 e4	 mov	 DWORD PTR _dlg$[ebp+944], eax
  000f4	89 4d e8	 mov	 DWORD PTR _dlg$[ebp+948], ecx

; 1191 : 
; 1192 : 	//   
; 1193 : 	dlg.m_SPrice = m_pIChartOCX->ConvertYPositionToData(m_pCurSelectedLine->m_ptAStart.y, m_pCurSelectedLine->m_rctGraphRegion.top, m_pCurSelectedLine->m_rctGraphRegion.bottom, m_pCurSelectedLine->m_dViewMax, m_pCurSelectedLine->m_dViewMin, m_pCurSelectedLine->m_bLog, m_pCurSelectedLine->m_bReverse);

  000f7	ff b2 24 02 00
	00		 push	 DWORD PTR [edx+548]
  000fd	f2 0f 10 82 28
	02 00 00	 movsd	 xmm0, QWORD PTR [edx+552]
  00105	ff b2 20 02 00
	00		 push	 DWORD PTR [edx+544]
  0010b	8b 4f 0c	 mov	 ecx, DWORD PTR [edi+12]
  0010e	83 ec 10	 sub	 esp, 16			; 00000010H
  00111	8b 01		 mov	 eax, DWORD PTR [ecx]
  00113	f2 0f 11 44 24
	08		 movsd	 QWORD PTR [esp+8], xmm0
  00119	f2 0f 10 82 30
	02 00 00	 movsd	 xmm0, QWORD PTR [edx+560]
  00121	f2 0f 11 04 24	 movsd	 QWORD PTR [esp], xmm0
  00126	ff b2 0c 02 00
	00		 push	 DWORD PTR [edx+524]
  0012c	8b 80 2c 01 00
	00		 mov	 eax, DWORD PTR [eax+300]
  00132	ff b2 04 02 00
	00		 push	 DWORD PTR [edx+516]
  00138	ff b2 ec 00 00
	00		 push	 DWORD PTR [edx+236]
  0013e	ff d0		 call	 eax

; 1194 : 	dlg.m_EPrice = m_pIChartOCX->ConvertYPositionToData(m_pCurSelectedLine->m_ptAEnd.y, m_pCurSelectedLine->m_rctGraphRegion.top, m_pCurSelectedLine->m_rctGraphRegion.bottom, m_pCurSelectedLine->m_dViewMax, m_pCurSelectedLine->m_dViewMin, m_pCurSelectedLine->m_bLog, m_pCurSelectedLine->m_bReverse);

  00140	8b 87 80 00 00
	00		 mov	 eax, DWORD PTR [edi+128]
  00146	8b 4f 0c	 mov	 ecx, DWORD PTR [edi+12]
  00149	dd 5d 8c	 fstp	 QWORD PTR _dlg$[ebp+856]
  0014c	ff b0 24 02 00
	00		 push	 DWORD PTR [eax+548]
  00152	f2 0f 10 80 28
	02 00 00	 movsd	 xmm0, QWORD PTR [eax+552]
  0015a	ff b0 20 02 00
	00		 push	 DWORD PTR [eax+544]
  00160	8b 11		 mov	 edx, DWORD PTR [ecx]
  00162	83 ec 10	 sub	 esp, 16			; 00000010H
  00165	f2 0f 11 44 24
	08		 movsd	 QWORD PTR [esp+8], xmm0
  0016b	f2 0f 10 80 30
	02 00 00	 movsd	 xmm0, QWORD PTR [eax+560]
  00173	f2 0f 11 04 24	 movsd	 QWORD PTR [esp], xmm0
  00178	ff b0 0c 02 00
	00		 push	 DWORD PTR [eax+524]
  0017e	ff b0 04 02 00
	00		 push	 DWORD PTR [eax+516]
  00184	ff b0 f4 00 00
	00		 push	 DWORD PTR [eax+244]
  0018a	8b 82 2c 01 00
	00		 mov	 eax, DWORD PTR [edx+300]
  00190	ff d0		 call	 eax

; 1195 : 
; 1196 : 	//  
; 1197 : 	dlg.m_clrLineColor = m_pCurSelectedLine->m_clrLineColor;

  00192	8b 8f 80 00 00
	00		 mov	 ecx, DWORD PTR [edi+128]
  00198	dd 5d 94	 fstp	 QWORD PTR _dlg$[ebp+864]
  0019b	8b 81 50 01 00
	00		 mov	 eax, DWORD PTR [ecx+336]
  001a1	89 85 e0 fc ff
	ff		 mov	 DWORD PTR _dlg$[ebp+172], eax

; 1198 : 	//  
; 1199 : 	dlg.m_nLineThickness = m_pCurSelectedLine->m_nLineThickness-1;

  001a7	8b 81 48 01 00
	00		 mov	 eax, DWORD PTR [ecx+328]
  001ad	48		 dec	 eax
  001ae	89 45 d0	 mov	 DWORD PTR _dlg$[ebp+924], eax

; 1200 : 	dlg.m_nLineStyle = m_pCurSelectedLine->m_nLineStyle;

  001b1	8b 81 4c 01 00
	00		 mov	 eax, DWORD PTR [ecx+332]
  001b7	89 45 cc	 mov	 DWORD PTR _dlg$[ebp+920], eax

; 1201 : 	dlg.m_nDateType = m_pCurSelectedLine->m_nDateType;

  001ba	8b 41 1c	 mov	 eax, DWORD PTR [ecx+28]
  001bd	89 85 dc fc ff
	ff		 mov	 DWORD PTR _dlg$[ebp+168], eax

; 1202 : 
; 1203 : 	dlg.m_nTextAlignment = m_pCurSelectedLine->m_nTextAlignment;

  001c3	8b 81 44 01 00
	00		 mov	 eax, DWORD PTR [ecx+324]

; 1204 : 	if(dlg.DoModal() == IDOK)

  001c9	8d 8d 34 fc ff
	ff		 lea	 ecx, DWORD PTR _dlg$[ebp]
  001cf	89 45 d4	 mov	 DWORD PTR _dlg$[ebp+928], eax
  001d2	e8 00 00 00 00	 call	 ?DoModal@CDialog@@UAEHXZ ; CDialog::DoModal
  001d7	83 f8 01	 cmp	 eax, 1
  001da	0f 85 87 03 00
	00		 jne	 $LN5@OnPSConfig

; 1205 : 	{
; 1206 : 		if(dlg.m_bAllChange)

  001e0	83 7d c8 00	 cmp	 DWORD PTR _dlg$[ebp+916], 0
  001e4	0f 84 d9 00 00
	00		 je	 $LN6@OnPSConfig

; 1207 : 		{
; 1208 : 			POSITION pos = m_LineList.GetHeadPosition();

  001ea	8b b7 90 00 00
	00		 mov	 esi, DWORD PTR [edi+144]

; 1209 : 			while (pos)

  001f0	85 f6		 test	 esi, esi
  001f2	0f 84 f0 01 00
	00		 je	 $LN7@OnPSConfig
$LL2@OnPSConfig:

; 1210 : 			{
; 1211 : 				CPeriodObj* pLine = (CPeriodObj*)m_LineList.GetNext(pos);

  001f8	8b 56 08	 mov	 edx, DWORD PTR [esi+8]

; 1212 : 				pLine->m_nRowCnt		= dlg.m_nCnt + 1;

  001fb	8b 45 d8	 mov	 eax, DWORD PTR _dlg$[ebp+932]
; File C:\Program Files (x86)\Microsoft Visual Studio\2019\Community\VC\Tools\MSVC\14.29.30133\atlmfc\include\afxcoll.inl

; 432  : 		rPosition = (POSITION) pNode->pNext;

  001fe	8b 36		 mov	 esi, DWORD PTR [esi]
; File D:\git\src\IBK\IBK_DRFN\ProjSrc\SrcChartEx\ChartAddIn\ChartPeriodSummaryAddIn\ChartPeriodSummaryAddInImp.cpp

; 1212 : 				pLine->m_nRowCnt		= dlg.m_nCnt + 1;

  00200	40		 inc	 eax
  00201	89 82 14 01 00
	00		 mov	 DWORD PTR [edx+276], eax

; 1213 : 				pLine->m_bSEPrice		= dlg.m_bSEPrice;

  00207	8b 45 9c	 mov	 eax, DWORD PTR _dlg$[ebp+872]
  0020a	89 82 18 01 00
	00		 mov	 DWORD PTR [edx+280], eax

; 1214 : 				pLine->m_bEEPrice		= dlg.m_bEEPrice;

  00210	8b 45 a0	 mov	 eax, DWORD PTR _dlg$[ebp+876]
  00213	89 82 1c 01 00
	00		 mov	 DWORD PTR [edx+284], eax

; 1215 : 				pLine->m_bHPrice		= dlg.m_bHPrice;

  00219	8b 45 a4	 mov	 eax, DWORD PTR _dlg$[ebp+880]
  0021c	89 82 20 01 00
	00		 mov	 DWORD PTR [edx+288], eax

; 1216 : 				pLine->m_bLPrice		= dlg.m_bLPrice;

  00222	8b 45 a8	 mov	 eax, DWORD PTR _dlg$[ebp+884]
  00225	89 82 24 01 00
	00		 mov	 DWORD PTR [edx+292], eax

; 1217 : 				pLine->m_bMPrice		= dlg.m_bMPrice;

  0022b	8b 45 ac	 mov	 eax, DWORD PTR _dlg$[ebp+888]
  0022e	89 82 28 01 00
	00		 mov	 DWORD PTR [edx+296], eax

; 1218 : 				pLine->m_bHAmount		= dlg.m_bHAmount;

  00234	8b 45 b0	 mov	 eax, DWORD PTR _dlg$[ebp+892]
  00237	89 82 2c 01 00
	00		 mov	 DWORD PTR [edx+300], eax

; 1219 : 				pLine->m_bLAmount		= dlg.m_bLAmount;

  0023d	8b 45 b4	 mov	 eax, DWORD PTR _dlg$[ebp+896]
  00240	89 82 30 01 00
	00		 mov	 DWORD PTR [edx+304], eax

; 1220 : 				pLine->m_bMAmount		= dlg.m_bMAmount;

  00246	8b 45 b8	 mov	 eax, DWORD PTR _dlg$[ebp+900]
  00249	89 82 34 01 00
	00		 mov	 DWORD PTR [edx+308], eax

; 1221 : 				pLine->m_bPCNum			= dlg.m_bPCandle;

  0024f	8b 45 bc	 mov	 eax, DWORD PTR _dlg$[ebp+904]
  00252	89 82 38 01 00
	00		 mov	 DWORD PTR [edx+312], eax

; 1222 : 				pLine->m_bMCNum			= dlg.m_bMCandle;

  00258	8b 45 c0	 mov	 eax, DWORD PTR _dlg$[ebp+908]
  0025b	89 82 3c 01 00
	00		 mov	 DWORD PTR [edx+316], eax

; 1223 : 				pLine->m_bPMRatio		= dlg.m_bPMRatio;

  00261	8b 45 c4	 mov	 eax, DWORD PTR _dlg$[ebp+912]
  00264	89 82 40 01 00
	00		 mov	 DWORD PTR [edx+320], eax

; 1224 : 				pLine->m_nLineThickness	= dlg.m_nLineThickness+1;

  0026a	8b 45 d0	 mov	 eax, DWORD PTR _dlg$[ebp+924]
  0026d	40		 inc	 eax
  0026e	89 82 48 01 00
	00		 mov	 DWORD PTR [edx+328], eax

; 1225 : 				pLine->m_nLineStyle		= dlg.m_nLineStyle;

  00274	8b 45 cc	 mov	 eax, DWORD PTR _dlg$[ebp+920]
  00277	89 82 4c 01 00
	00		 mov	 DWORD PTR [edx+332], eax

; 1226 : 				pLine->m_lSDate			= dlg.m_lSDate;

  0027d	8b 45 dc	 mov	 eax, DWORD PTR _dlg$[ebp+936]
  00280	8b 4d e0	 mov	 ecx, DWORD PTR _dlg$[ebp+940]
  00283	89 82 68 01 00
	00		 mov	 DWORD PTR [edx+360], eax
  00289	89 8a 6c 01 00
	00		 mov	 DWORD PTR [edx+364], ecx

; 1227 : 				pLine->m_lEDate			= dlg.m_lEDate;

  0028f	8b 45 e4	 mov	 eax, DWORD PTR _dlg$[ebp+944]
  00292	8b 4d e8	 mov	 ecx, DWORD PTR _dlg$[ebp+948]
  00295	89 82 70 01 00
	00		 mov	 DWORD PTR [edx+368], eax
  0029b	89 8a 74 01 00
	00		 mov	 DWORD PTR [edx+372], ecx

; 1228 : 
; 1229 : 				pLine->m_clrLineColor	= dlg.m_clrLineColor;

  002a1	8b 85 e0 fc ff
	ff		 mov	 eax, DWORD PTR _dlg$[ebp+172]
  002a7	89 82 50 01 00
	00		 mov	 DWORD PTR [edx+336], eax

; 1230 : 				pLine->m_nTextAlignment	= dlg.m_nTextAlignment;

  002ad	8b 45 d4	 mov	 eax, DWORD PTR _dlg$[ebp+928]
  002b0	89 82 44 01 00
	00		 mov	 DWORD PTR [edx+324], eax
  002b6	85 f6		 test	 esi, esi
  002b8	0f 85 3a ff ff
	ff		 jne	 $LL2@OnPSConfig
; File C:\Program Files (x86)\Microsoft Visual Studio\2019\Community\VC\Tools\MSVC\14.29.30133\atlmfc\include\afxcoll.inl

; 430  : 		if( pNode == NULL )

  002be	e9 25 01 00 00	 jmp	 $LN7@OnPSConfig
$LN6@OnPSConfig:
; File D:\git\src\IBK\IBK_DRFN\ProjSrc\SrcChartEx\ChartAddIn\ChartPeriodSummaryAddIn\ChartPeriodSummaryAddInImp.cpp

; 1235 : 			m_pCurSelectedLine->m_nRowCnt			= dlg.m_nCnt + 1;

  002c3	8b 87 80 00 00
	00		 mov	 eax, DWORD PTR [edi+128]
  002c9	8b 4d d8	 mov	 ecx, DWORD PTR _dlg$[ebp+932]
  002cc	41		 inc	 ecx
  002cd	89 88 14 01 00
	00		 mov	 DWORD PTR [eax+276], ecx

; 1236 : 			m_pCurSelectedLine->m_bSEPrice			= dlg.m_bSEPrice;

  002d3	8b 8f 80 00 00
	00		 mov	 ecx, DWORD PTR [edi+128]
  002d9	8b 45 9c	 mov	 eax, DWORD PTR _dlg$[ebp+872]
  002dc	89 81 18 01 00
	00		 mov	 DWORD PTR [ecx+280], eax

; 1237 : 			m_pCurSelectedLine->m_bEEPrice			= dlg.m_bEEPrice;

  002e2	8b 8f 80 00 00
	00		 mov	 ecx, DWORD PTR [edi+128]
  002e8	8b 45 a0	 mov	 eax, DWORD PTR _dlg$[ebp+876]
  002eb	89 81 1c 01 00
	00		 mov	 DWORD PTR [ecx+284], eax

; 1238 : 			m_pCurSelectedLine->m_bHPrice			= dlg.m_bHPrice;

  002f1	8b 8f 80 00 00
	00		 mov	 ecx, DWORD PTR [edi+128]
  002f7	8b 45 a4	 mov	 eax, DWORD PTR _dlg$[ebp+880]
  002fa	89 81 20 01 00
	00		 mov	 DWORD PTR [ecx+288], eax

; 1239 : 			m_pCurSelectedLine->m_bLPrice			= dlg.m_bLPrice;

  00300	8b 8f 80 00 00
	00		 mov	 ecx, DWORD PTR [edi+128]
  00306	8b 45 a8	 mov	 eax, DWORD PTR _dlg$[ebp+884]
  00309	89 81 24 01 00
	00		 mov	 DWORD PTR [ecx+292], eax

; 1240 : 			m_pCurSelectedLine->m_bMPrice			= dlg.m_bMPrice;

  0030f	8b 8f 80 00 00
	00		 mov	 ecx, DWORD PTR [edi+128]
  00315	8b 45 ac	 mov	 eax, DWORD PTR _dlg$[ebp+888]
  00318	89 81 28 01 00
	00		 mov	 DWORD PTR [ecx+296], eax

; 1241 : 			m_pCurSelectedLine->m_bHAmount			= dlg.m_bHAmount;

  0031e	8b 8f 80 00 00
	00		 mov	 ecx, DWORD PTR [edi+128]
  00324	8b 45 b0	 mov	 eax, DWORD PTR _dlg$[ebp+892]
  00327	89 81 2c 01 00
	00		 mov	 DWORD PTR [ecx+300], eax

; 1242 : 			m_pCurSelectedLine->m_bLAmount			= dlg.m_bLAmount;

  0032d	8b 8f 80 00 00
	00		 mov	 ecx, DWORD PTR [edi+128]
  00333	8b 45 b4	 mov	 eax, DWORD PTR _dlg$[ebp+896]
  00336	89 81 30 01 00
	00		 mov	 DWORD PTR [ecx+304], eax

; 1243 : 			m_pCurSelectedLine->m_bMAmount			= dlg.m_bMAmount;

  0033c	8b 8f 80 00 00
	00		 mov	 ecx, DWORD PTR [edi+128]
  00342	8b 45 b8	 mov	 eax, DWORD PTR _dlg$[ebp+900]
  00345	89 81 34 01 00
	00		 mov	 DWORD PTR [ecx+308], eax

; 1244 : 			m_pCurSelectedLine->m_bPCNum			= dlg.m_bPCandle;

  0034b	8b 8f 80 00 00
	00		 mov	 ecx, DWORD PTR [edi+128]
  00351	8b 45 bc	 mov	 eax, DWORD PTR _dlg$[ebp+904]
  00354	89 81 38 01 00
	00		 mov	 DWORD PTR [ecx+312], eax

; 1245 : 			m_pCurSelectedLine->m_bMCNum			= dlg.m_bMCandle;

  0035a	8b 8f 80 00 00
	00		 mov	 ecx, DWORD PTR [edi+128]
  00360	8b 45 c0	 mov	 eax, DWORD PTR _dlg$[ebp+908]
  00363	89 81 3c 01 00
	00		 mov	 DWORD PTR [ecx+316], eax

; 1246 : 			m_pCurSelectedLine->m_bPMRatio			= dlg.m_bPMRatio;

  00369	8b 8f 80 00 00
	00		 mov	 ecx, DWORD PTR [edi+128]
  0036f	8b 45 c4	 mov	 eax, DWORD PTR _dlg$[ebp+912]
  00372	89 81 40 01 00
	00		 mov	 DWORD PTR [ecx+320], eax

; 1247 : 			m_pCurSelectedLine->m_nLineThickness	= dlg.m_nLineThickness+1;

  00378	8b 87 80 00 00
	00		 mov	 eax, DWORD PTR [edi+128]
  0037e	8b 4d d0	 mov	 ecx, DWORD PTR _dlg$[ebp+924]
  00381	41		 inc	 ecx
  00382	89 88 48 01 00
	00		 mov	 DWORD PTR [eax+328], ecx

; 1248 : 			m_pCurSelectedLine->m_nLineStyle		= dlg.m_nLineStyle;

  00388	8b 8f 80 00 00
	00		 mov	 ecx, DWORD PTR [edi+128]
  0038e	8b 45 cc	 mov	 eax, DWORD PTR _dlg$[ebp+920]
  00391	89 81 4c 01 00
	00		 mov	 DWORD PTR [ecx+332], eax

; 1249 : 			m_pCurSelectedLine->m_lSDate			= dlg.m_lSDate;

  00397	8b 87 80 00 00
	00		 mov	 eax, DWORD PTR [edi+128]
  0039d	8b 4d dc	 mov	 ecx, DWORD PTR _dlg$[ebp+936]
  003a0	8b 55 e0	 mov	 edx, DWORD PTR _dlg$[ebp+940]
  003a3	89 88 68 01 00
	00		 mov	 DWORD PTR [eax+360], ecx
  003a9	89 90 6c 01 00
	00		 mov	 DWORD PTR [eax+364], edx

; 1250 : 			m_pCurSelectedLine->m_lEDate			= dlg.m_lEDate;

  003af	8b 87 80 00 00
	00		 mov	 eax, DWORD PTR [edi+128]
  003b5	8b 4d e4	 mov	 ecx, DWORD PTR _dlg$[ebp+944]
  003b8	8b 55 e8	 mov	 edx, DWORD PTR _dlg$[ebp+948]
  003bb	89 88 70 01 00
	00		 mov	 DWORD PTR [eax+368], ecx
  003c1	89 90 74 01 00
	00		 mov	 DWORD PTR [eax+372], edx

; 1251 : 			m_pCurSelectedLine->m_clrLineColor		= dlg.m_clrLineColor;

  003c7	8b 8f 80 00 00
	00		 mov	 ecx, DWORD PTR [edi+128]
  003cd	8b 85 e0 fc ff
	ff		 mov	 eax, DWORD PTR _dlg$[ebp+172]
  003d3	89 81 50 01 00
	00		 mov	 DWORD PTR [ecx+336], eax

; 1252 : 			m_pCurSelectedLine->m_nTextAlignment	= dlg.m_nTextAlignment;

  003d9	8b 8f 80 00 00
	00		 mov	 ecx, DWORD PTR [edi+128]
  003df	8b 45 d4	 mov	 eax, DWORD PTR _dlg$[ebp+928]
  003e2	89 81 44 01 00
	00		 mov	 DWORD PTR [ecx+324], eax
$LN7@OnPSConfig:

; 1253 : 		}
; 1254 : 
; 1255 : 		//   (X)
; 1256 : 		int iDummy=0;
; 1257 : 		GetIndexFromValue( m_pCurSelectedLine->m_strRQ, m_pCurSelectedLine->m_nEndIndexOfView, dlg.m_lSDate, 0, m_pCurSelectedLine->m_nStartIndex, iDummy);

  003e8	8b 8f 80 00 00
	00		 mov	 ecx, DWORD PTR [edi+128]
  003ee	8d 45 08	 lea	 eax, DWORD PTR _iDummy$2[ebp]
  003f1	50		 push	 eax
  003f2	0f 57 c0	 xorps	 xmm0, xmm0
  003f5	c7 45 08 00 00
	00 00		 mov	 DWORD PTR _iDummy$2[ebp], 0
  003fc	8d 81 54 01 00
	00		 lea	 eax, DWORD PTR [ecx+340]
  00402	50		 push	 eax
  00403	83 ec 08	 sub	 esp, 8
  00406	f2 0f 11 04 24	 movsd	 QWORD PTR [esp], xmm0
  0040b	ff 75 e0	 push	 DWORD PTR _dlg$[ebp+940]
  0040e	ff 75 dc	 push	 DWORD PTR _dlg$[ebp+936]
  00411	ff b1 3c 02 00
	00		 push	 DWORD PTR [ecx+572]
  00417	ff b1 f4 01 00
	00		 push	 DWORD PTR [ecx+500]
  0041d	8b cf		 mov	 ecx, edi
  0041f	e8 00 00 00 00	 call	 ?GetIndexFromValue@CChartPeriodSummaryAddInImp@@QAEHPBDH_JNAAH2@Z ; CChartPeriodSummaryAddInImp::GetIndexFromValue
; File C:\Program Files (x86)\Microsoft Visual Studio\2019\Community\VC\Tools\MSVC\14.29.30133\atlmfc\include\atlsimpstr.h

; 377  : 		return( m_pszData );

  00424	8b b7 80 00 00
	00		 mov	 esi, DWORD PTR [edi+128]
; File D:\git\src\IBK\IBK_DRFN\ProjSrc\SrcChartEx\ChartAddIn\ChartPeriodSummaryAddIn\ChartPeriodSummaryAddInImp.cpp

; 913  : 	ptIndex.x = m_pIChartManager->GetXPosition( p_szRQ, x, y);

  0042a	8b 4f 28	 mov	 ecx, DWORD PTR [edi+40]
  0042d	6a 00		 push	 0
  0042f	ff b6 54 01 00
	00		 push	 DWORD PTR [esi+340]
  00435	8b 01		 mov	 eax, DWORD PTR [ecx]
  00437	ff b6 f4 01 00
	00		 push	 DWORD PTR [esi+500]
  0043d	ff 90 e8 00 00
	00		 call	 DWORD PTR [eax+232]
  00443	89 86 e8 00 00
	00		 mov	 DWORD PTR [esi+232], eax
  00449	0f 57 c0	 xorps	 xmm0, xmm0

; 1258 : 		GetPointFromIndex( m_pCurSelectedLine->m_strRQ, m_pCurSelectedLine->m_nStartIndex, 0,m_pCurSelectedLine->m_ptAStart);
; 1259 : 		GetIndexFromValue( m_pCurSelectedLine->m_strRQ, m_pCurSelectedLine->m_nEndIndexOfView, dlg.m_lEDate, 0, m_pCurSelectedLine->m_nEndIndex, iDummy);

  0044c	8b 8f 80 00 00
	00		 mov	 ecx, DWORD PTR [edi+128]
  00452	8d 45 08	 lea	 eax, DWORD PTR _iDummy$2[ebp]
  00455	50		 push	 eax
  00456	8d 81 58 01 00
	00		 lea	 eax, DWORD PTR [ecx+344]
  0045c	50		 push	 eax
  0045d	83 ec 08	 sub	 esp, 8
  00460	f2 0f 11 04 24	 movsd	 QWORD PTR [esp], xmm0
  00465	ff 75 e8	 push	 DWORD PTR _dlg$[ebp+948]
  00468	ff 75 e4	 push	 DWORD PTR _dlg$[ebp+944]
  0046b	ff b1 3c 02 00
	00		 push	 DWORD PTR [ecx+572]
  00471	ff b1 f4 01 00
	00		 push	 DWORD PTR [ecx+500]
  00477	8b cf		 mov	 ecx, edi
  00479	e8 00 00 00 00	 call	 ?GetIndexFromValue@CChartPeriodSummaryAddInImp@@QAEHPBDH_JNAAH2@Z ; CChartPeriodSummaryAddInImp::GetIndexFromValue
; File C:\Program Files (x86)\Microsoft Visual Studio\2019\Community\VC\Tools\MSVC\14.29.30133\atlmfc\include\atlsimpstr.h

; 377  : 		return( m_pszData );

  0047e	8b b7 80 00 00
	00		 mov	 esi, DWORD PTR [edi+128]
; File D:\git\src\IBK\IBK_DRFN\ProjSrc\SrcChartEx\ChartAddIn\ChartPeriodSummaryAddIn\ChartPeriodSummaryAddInImp.cpp

; 913  : 	ptIndex.x = m_pIChartManager->GetXPosition( p_szRQ, x, y);

  00484	8b 4f 28	 mov	 ecx, DWORD PTR [edi+40]
  00487	6a 00		 push	 0
  00489	ff b6 58 01 00
	00		 push	 DWORD PTR [esi+344]
  0048f	8b 01		 mov	 eax, DWORD PTR [ecx]
  00491	ff b6 f4 01 00
	00		 push	 DWORD PTR [esi+500]
  00497	ff 90 e8 00 00
	00		 call	 DWORD PTR [eax+232]
  0049d	89 86 f0 00 00
	00		 mov	 DWORD PTR [esi+240], eax

; 1260 : 		GetPointFromIndex( m_pCurSelectedLine->m_strRQ, m_pCurSelectedLine->m_nEndIndex, 0,m_pCurSelectedLine->m_ptAEnd);
; 1261 : 		//  (Y)
; 1262 : 		m_pCurSelectedLine->m_ptAStart.y = m_pIChartOCX->ConvertDataToYPosition(dlg.m_SPrice, m_pCurSelectedLine->m_dViewMax, m_pCurSelectedLine->m_dViewMin, m_pCurSelectedLine->m_rctGraphRegion.top, m_pCurSelectedLine->m_rctGraphRegion.bottom, m_pCurSelectedLine->m_bLog, m_pCurSelectedLine->m_bReverse);

  004a3	8b 87 80 00 00
	00		 mov	 eax, DWORD PTR [edi+128]
  004a9	8b 4f 0c	 mov	 ecx, DWORD PTR [edi+12]
  004ac	ff b0 24 02 00
	00		 push	 DWORD PTR [eax+548]
  004b2	f2 0f 10 80 28
	02 00 00	 movsd	 xmm0, QWORD PTR [eax+552]
  004ba	ff b0 20 02 00
	00		 push	 DWORD PTR [eax+544]
  004c0	8b 11		 mov	 edx, DWORD PTR [ecx]
  004c2	ff b0 0c 02 00
	00		 push	 DWORD PTR [eax+524]
  004c8	ff b0 04 02 00
	00		 push	 DWORD PTR [eax+516]
  004ce	83 ec 18	 sub	 esp, 24			; 00000018H
  004d1	f2 0f 11 44 24
	10		 movsd	 QWORD PTR [esp+16], xmm0
  004d7	f2 0f 10 80 30
	02 00 00	 movsd	 xmm0, QWORD PTR [eax+560]
  004df	f2 0f 11 44 24
	08		 movsd	 QWORD PTR [esp+8], xmm0
  004e5	f2 0f 10 45 8c	 movsd	 xmm0, QWORD PTR _dlg$[ebp+856]
  004ea	f2 0f 11 04 24	 movsd	 QWORD PTR [esp], xmm0
  004ef	ff 92 28 01 00
	00		 call	 DWORD PTR [edx+296]
  004f5	8b 8f 80 00 00
	00		 mov	 ecx, DWORD PTR [edi+128]
  004fb	89 81 ec 00 00
	00		 mov	 DWORD PTR [ecx+236], eax

; 1263 : 		m_pCurSelectedLine->m_ptAEnd.y = m_pIChartOCX->ConvertDataToYPosition(dlg.m_EPrice, m_pCurSelectedLine->m_dViewMax, m_pCurSelectedLine->m_dViewMin, m_pCurSelectedLine->m_rctGraphRegion.top, m_pCurSelectedLine->m_rctGraphRegion.bottom, m_pCurSelectedLine->m_bLog, m_pCurSelectedLine->m_bReverse);

  00501	8b 87 80 00 00
	00		 mov	 eax, DWORD PTR [edi+128]
  00507	8b 4f 0c	 mov	 ecx, DWORD PTR [edi+12]
  0050a	ff b0 24 02 00
	00		 push	 DWORD PTR [eax+548]
  00510	f2 0f 10 80 28
	02 00 00	 movsd	 xmm0, QWORD PTR [eax+552]
  00518	ff b0 20 02 00
	00		 push	 DWORD PTR [eax+544]
  0051e	8b 11		 mov	 edx, DWORD PTR [ecx]
  00520	ff b0 0c 02 00
	00		 push	 DWORD PTR [eax+524]
  00526	ff b0 04 02 00
	00		 push	 DWORD PTR [eax+516]
  0052c	83 ec 18	 sub	 esp, 24			; 00000018H
  0052f	f2 0f 11 44 24
	10		 movsd	 QWORD PTR [esp+16], xmm0
  00535	f2 0f 10 80 30
	02 00 00	 movsd	 xmm0, QWORD PTR [eax+560]
  0053d	f2 0f 11 44 24
	08		 movsd	 QWORD PTR [esp+8], xmm0
  00543	f2 0f 10 45 94	 movsd	 xmm0, QWORD PTR _dlg$[ebp+864]
  00548	f2 0f 11 04 24	 movsd	 QWORD PTR [esp], xmm0
  0054d	ff 92 28 01 00
	00		 call	 DWORD PTR [edx+296]
  00553	8b 8f 80 00 00
	00		 mov	 ecx, DWORD PTR [edi+128]
  00559	89 81 f4 00 00
	00		 mov	 DWORD PTR [ecx+244], eax

; 1264 : 		m_pIChartOCX->InvalidateControl();

  0055f	8b 4f 0c	 mov	 ecx, DWORD PTR [edi+12]
  00562	8b 01		 mov	 eax, DWORD PTR [ecx]
  00564	ff 50 38	 call	 DWORD PTR [eax+56]
$LN5@OnPSConfig:
  00567	8d 8d f4 fe ff
	ff		 lea	 ecx, DWORD PTR _dlg$[ebp+704]
  0056d	e8 00 00 00 00	 call	 ??1CColorButton@@UAE@XZ	; CColorButton::~CColorButton
  00572	8d 8d 6c fe ff
	ff		 lea	 ecx, DWORD PTR _dlg$[ebp+568]
  00578	e8 00 00 00 00	 call	 ??1CBitmapItemComboBox@@UAE@XZ ; CBitmapItemComboBox::~CBitmapItemComboBox
  0057d	8d 8d e4 fd ff
	ff		 lea	 ecx, DWORD PTR _dlg$[ebp+432]
  00583	e8 00 00 00 00	 call	 ??1CBitmapItemComboBox@@UAE@XZ ; CBitmapItemComboBox::~CBitmapItemComboBox
  00588	8d 8d 64 fd ff
	ff		 lea	 ecx, DWORD PTR _dlg$[ebp+304]
  0058e	e8 00 00 00 00	 call	 ??1CDateTimeCtrl@@UAE@XZ ; CDateTimeCtrl::~CDateTimeCtrl
  00593	8d 8d e4 fc ff
	ff		 lea	 ecx, DWORD PTR _dlg$[ebp+176]
  00599	e8 00 00 00 00	 call	 ??1CDateTimeCtrl@@UAE@XZ ; CDateTimeCtrl::~CDateTimeCtrl
  0059e	8d 8d 34 fc ff
	ff		 lea	 ecx, DWORD PTR _dlg$[ebp]
  005a4	e8 00 00 00 00	 call	 ??1CDialog@@UAE@XZ	; CDialog::~CDialog
$LN27@OnPSConfig:

; 1265 : 	}
; 1266 : }

  005a9	8b 4d f4	 mov	 ecx, DWORD PTR __$EHRec$[ebp]
  005ac	64 89 0d 00 00
	00 00		 mov	 DWORD PTR fs:0, ecx
  005b3	59		 pop	 ecx
  005b4	5f		 pop	 edi
  005b5	5e		 pop	 esi
  005b6	8b e5		 mov	 esp, ebp
  005b8	5d		 pop	 ebp
  005b9	c2 04 00	 ret	 4
_TEXT	ENDS
;	COMDAT text$x
text$x	SEGMENT
__unwindfunclet$?OnPSConfig@CChartPeriodSummaryAddInImp@@QAEXPAVCPeriodObj@@@Z$0:
  00000	8d 8d 34 fc ff
	ff		 lea	 ecx, DWORD PTR _dlg$[ebp]
  00006	e9 00 00 00 00	 jmp	 ??1CPSConfigDlg@@UAE@XZ
  0000b	cc		 int	 3
  0000c	cc		 int	 3
  0000d	cc		 int	 3
  0000e	cc		 int	 3
  0000f	cc		 int	 3
__ehhandler$?OnPSConfig@CChartPeriodSummaryAddInImp@@QAEXPAVCPeriodObj@@@Z:
  00010	90		 npad	 1
  00011	90		 npad	 1
  00012	8b 54 24 08	 mov	 edx, DWORD PTR [esp+8]
  00016	8d 42 0c	 lea	 eax, DWORD PTR [edx+12]
  00019	8b 8a 34 fc ff
	ff		 mov	 ecx, DWORD PTR [edx-972]
  0001f	33 c8		 xor	 ecx, eax
  00021	e8 00 00 00 00	 call	 @__security_check_cookie@4
  00026	b8 00 00 00 00	 mov	 eax, OFFSET __ehfuncinfo$?OnPSConfig@CChartPeriodSummaryAddInImp@@QAEXPAVCPeriodObj@@@Z
  0002b	e9 00 00 00 00	 jmp	 ___CxxFrameHandler3
text$x	ENDS
?OnPSConfig@CChartPeriodSummaryAddInImp@@QAEXPAVCPeriodObj@@@Z ENDP ; CChartPeriodSummaryAddInImp::OnPSConfig
; Function compile flags: /Ogtp
; File D:\git\src\IBK\IBK_DRFN\ProjSrc\SrcChartEx\ChartAddIn\ChartPeriodSummaryAddIn\ChartPeriodSummaryAddInImp.cpp
;	COMDAT ?OnDeleteLine@CChartPeriodSummaryAddInImp@@QAEXXZ
_TEXT	SEGMENT
?OnDeleteLine@CChartPeriodSummaryAddInImp@@QAEXXZ PROC	; CChartPeriodSummaryAddInImp::OnDeleteLine, COMDAT
; _this$ = ecx

; 1269 : {

  00000	56		 push	 esi
  00001	8b f1		 mov	 esi, ecx

; 1647 : 	if( m_pIAddInToolMgr != NULL )

  00003	8b 4e 30	 mov	 ecx, DWORD PTR [esi+48]
  00006	85 c9		 test	 ecx, ecx
  00008	74 16		 je	 SHORT $LN7@OnDeleteLi

; 1648 : 	{
; 1649 : 		m_pIAddInToolMgr->OnAddInToolCommand( EAI_TOOLORDERMGR_DELETE_TOOL_FROM_ORDERMANAGER,	

  0000a	ff b6 80 00 00
	00		 push	 DWORD PTR [esi+128]
  00010	8b 01		 mov	 eax, DWORD PTR [ecx]
  00012	ff 35 00 00 00
	00		 push	 DWORD PTR ?m_strAddInItemName@CChartPeriodSummaryAddInImp@@2V?$CStringT@DV?$StrTraitMFC_DLL@DV?$ChTraitsCRT@D@ATL@@@@@ATL@@A ; CChartPeriodSummaryAddInImp::m_strAddInItemName
  00018	6a 32		 push	 50			; 00000032H
  0001a	ff 90 a0 00 00
	00		 call	 DWORD PTR [eax+160]
$LN7@OnDeleteLi:
  00020	57		 push	 edi

; 1270 : 		UnregPS((long)m_pCurSelectedLine);
; 1271 : 
; 1272 : 		POSITION psn = m_LineList.Find( m_pCurSelectedLine);

  00021	6a 00		 push	 0
  00023	ff b6 80 00 00
	00		 push	 DWORD PTR [esi+128]
  00029	8d 8e 8c 00 00
	00		 lea	 ecx, DWORD PTR [esi+140]
  0002f	e8 00 00 00 00	 call	 ?Find@CObList@@QBEPAU__POSITION@@PAVCObject@@PAU2@@Z ; CObList::Find

; 1273 : 		if( psn) m_LineList.RemoveAt( psn);

  00034	85 c0		 test	 eax, eax
  00036	74 0c		 je	 SHORT $LN2@OnDeleteLi
  00038	50		 push	 eax
  00039	8d 8e 8c 00 00
	00		 lea	 ecx, DWORD PTR [esi+140]
  0003f	e8 00 00 00 00	 call	 ?RemoveAt@CObList@@QAEXPAU__POSITION@@@Z ; CObList::RemoveAt
$LN2@OnDeleteLi:

; 1274 : 		
; 1275 : 		delete m_pCurSelectedLine;

  00044	8b 8e 80 00 00
	00		 mov	 ecx, DWORD PTR [esi+128]
  0004a	5f		 pop	 edi
  0004b	85 c9		 test	 ecx, ecx
  0004d	74 07		 je	 SHORT $LN4@OnDeleteLi
  0004f	8b 01		 mov	 eax, DWORD PTR [ecx]
  00051	6a 01		 push	 1
  00053	ff 50 04	 call	 DWORD PTR [eax+4]
$LN4@OnDeleteLi:

; 1276 : 		m_pCurSelectedLine = NULL;
; 1277 : 
; 1278 : 		m_pIChartOCX->InvalidateControl();

  00056	8b 4e 0c	 mov	 ecx, DWORD PTR [esi+12]
  00059	c7 86 80 00 00
	00 00 00 00 00	 mov	 DWORD PTR [esi+128], 0
  00063	5e		 pop	 esi
  00064	8b 01		 mov	 eax, DWORD PTR [ecx]
  00066	ff 60 38	 jmp	 DWORD PTR [eax+56]
?OnDeleteLine@CChartPeriodSummaryAddInImp@@QAEXXZ ENDP	; CChartPeriodSummaryAddInImp::OnDeleteLine
_TEXT	ENDS
; Function compile flags: /Ogtp
; File D:\git\src\IBK\IBK_DRFN\ProjSrc\SrcChartEx\ChartAddIn\ChartPeriodSummaryAddIn\ChartPeriodSummaryAddInImp.cpp
; File D:\git\src\IBK\IBK_DRFN\ProjSrc\SrcChartEx\ChartAddIn\ChartPeriodSummaryAddIn\Include_AddIn\I133691\_IString.h
; File D:\git\src\IBK\IBK_DRFN\ProjSrc\SrcChartEx\ChartAddIn\ChartPeriodSummaryAddIn\ChartPeriodSummaryAddInImp.cpp
; File C:\Program Files (x86)\Microsoft Visual Studio\2019\Community\VC\Tools\MSVC\14.29.30133\atlmfc\include\cstringt.h
; File D:\git\src\IBK\IBK_DRFN\ProjSrc\SrcChartEx\ChartAddIn\ChartPeriodSummaryAddIn\ChartPeriodSummaryAddInImp.cpp
; File C:\Program Files (x86)\Microsoft Visual Studio\2019\Community\VC\Tools\MSVC\14.29.30133\atlmfc\include\cstringt.h
; File D:\git\src\IBK\IBK_DRFN\ProjSrc\SrcChartEx\ChartAddIn\ChartPeriodSummaryAddIn\ChartPeriodSummaryAddInImp.cpp
; File C:\Program Files (x86)\Microsoft Visual Studio\2019\Community\VC\Tools\MSVC\14.29.30133\atlmfc\include\cstringt.h
; File D:\git\src\IBK\IBK_DRFN\ProjSrc\SrcChartEx\ChartAddIn\ChartPeriodSummaryAddIn\ChartPeriodSummaryAddInImp.cpp
; File C:\Program Files (x86)\Microsoft Visual Studio\2019\Community\VC\Tools\MSVC\14.29.30133\atlmfc\include\cstringt.h
; File D:\git\src\IBK\IBK_DRFN\ProjSrc\SrcChartEx\ChartAddIn\ChartPeriodSummaryAddIn\ChartPeriodSummaryAddInImp.cpp
; File C:\Program Files (x86)\Microsoft Visual Studio\2019\Community\VC\Tools\MSVC\14.29.30133\atlmfc\include\cstringt.h
; File D:\git\src\IBK\IBK_DRFN\ProjSrc\SrcChartEx\ChartAddIn\ChartPeriodSummaryAddIn\ChartPeriodSummaryAddInImp.cpp
; File C:\Program Files (x86)\Microsoft Visual Studio\2019\Community\VC\Tools\MSVC\14.29.30133\atlmfc\include\cstringt.h
; File D:\git\src\IBK\IBK_DRFN\ProjSrc\SrcChartEx\ChartAddIn\ChartPeriodSummaryAddIn\ChartPeriodSummaryAddInImp.cpp
; File C:\Program Files (x86)\Microsoft Visual Studio\2019\Community\VC\Tools\MSVC\14.29.30133\atlmfc\include\cstringt.h
; File D:\git\src\IBK\IBK_DRFN\ProjSrc\SrcChartEx\ChartAddIn\ChartPeriodSummaryAddIn\ChartPeriodSummaryAddInImp.cpp
; File D:\git\src\IBK\IBK_DRFN\ProjSrc\SrcChartEx\ChartAddIn\ChartPeriodSummaryAddIn\Include_AddIn\I133691\_IString.h
; File D:\git\src\IBK\IBK_DRFN\ProjSrc\SrcChartEx\ChartAddIn\ChartPeriodSummaryAddIn\ChartPeriodSummaryAddInImp.cpp
;	COMDAT ?GetDateType@CChartPeriodSummaryAddInImp@@QAEHPAVCPeriodObj@@@Z
_TEXT	SEGMENT
_is$2 = -28						; size = 8
_pIPacket$ = -20					; size = 4
__$EHRec$ = -16						; size = 16
_s$3 = 8						; size = 4
_p_pLine$ = 8						; size = 4
?GetDateType@CChartPeriodSummaryAddInImp@@QAEHPAVCPeriodObj@@@Z PROC ; CChartPeriodSummaryAddInImp::GetDateType, COMDAT
; _this$ = ecx

; 1294 : {

  00000	55		 push	 ebp
  00001	8b ec		 mov	 ebp, esp
  00003	6a ff		 push	 -1
  00005	68 00 00 00 00	 push	 __ehhandler$?GetDateType@CChartPeriodSummaryAddInImp@@QAEHPAVCPeriodObj@@@Z
  0000a	64 a1 00 00 00
	00		 mov	 eax, DWORD PTR fs:0
  00010	50		 push	 eax
  00011	83 ec 10	 sub	 esp, 16			; 00000010H
  00014	53		 push	 ebx
  00015	56		 push	 esi
  00016	57		 push	 edi
  00017	a1 00 00 00 00	 mov	 eax, DWORD PTR ___security_cookie
  0001c	33 c5		 xor	 eax, ebp
  0001e	50		 push	 eax
  0001f	8d 45 f4	 lea	 eax, DWORD PTR __$EHRec$[ebp+4]
  00022	64 a3 00 00 00
	00		 mov	 DWORD PTR fs:0, eax
  00028	89 65 f0	 mov	 DWORD PTR __$EHRec$[ebp], esp

; 1295 : 	if( !p_pLine) return FALSE;

  0002b	8b 75 08	 mov	 esi, DWORD PTR _p_pLine$[ebp]
  0002e	85 f6		 test	 esi, esi
  00030	0f 84 46 01 00
	00		 je	 $LN54@GetDateTyp

; 1296 : 
; 1297 : 	IPacketManager *pIPacketManager = m_pIPacketListManager->GetPacketManager( p_pLine->m_strRQ);

  00036	8b 49 20	 mov	 ecx, DWORD PTR [ecx+32]
  00039	ff b6 f4 01 00
	00		 push	 DWORD PTR [esi+500]
  0003f	8b 01		 mov	 eax, DWORD PTR [ecx]
  00041	ff 50 10	 call	 DWORD PTR [eax+16]
  00044	8b f8		 mov	 edi, eax

; 1298 : 	if( !pIPacketManager) return FALSE;

  00046	85 ff		 test	 edi, edi
  00048	0f 84 2e 01 00
	00		 je	 $LN54@GetDateTyp

; 1299 : 	IPacket *pIPacket = pIPacketManager->GetPacket( _MTEXT(C0_DATE_TIME));

  0004e	8b 0d 54 00 00
	00		 mov	 ecx, DWORD PTR ?g_iMetaTable@@3VIMetaTable@@A+84
  00054	8b 17		 mov	 edx, DWORD PTR [edi]
  00056	ff 31		 push	 DWORD PTR [ecx]
  00058	8b cf		 mov	 ecx, edi
  0005a	ff 52 10	 call	 DWORD PTR [edx+16]

; 1300 : 	pIPacketManager->Release();

  0005d	8b 0f		 mov	 ecx, DWORD PTR [edi]
  0005f	8b d8		 mov	 ebx, eax
  00061	57		 push	 edi
  00062	89 5d ec	 mov	 DWORD PTR _pIPacket$[ebp], ebx
  00065	ff 51 08	 call	 DWORD PTR [ecx+8]

; 1301 : 	if( !pIPacket) return FALSE;

  00068	85 db		 test	 ebx, ebx
  0006a	0f 84 0c 01 00
	00		 je	 $LN54@GetDateTyp

; 1306 : 		ILPCSTR is = pIPacket->GetType();

  00070	8b 03		 mov	 eax, DWORD PTR [ebx]
  00072	8b cb		 mov	 ecx, ebx
  00074	6a 01		 push	 1
  00076	c7 45 fc 00 00
	00 00		 mov	 DWORD PTR __$EHRec$[ebp+12], 0
  0007d	ff 50 1c	 call	 DWORD PTR [eax+28]
  00080	8b f8		 mov	 edi, eax
; File D:\git\src\IBK\IBK_DRFN\ProjSrc\SrcChartEx\ChartAddIn\ChartPeriodSummaryAddIn\Include_AddIn\I133691\_IString.h

; 39   : 		m_pIStrData = p_pIString;	// Do not AddRef(). Because It must be Return Value.

  00082	89 7d e8	 mov	 DWORD PTR _is$2[ebp+4], edi
  00085	85 ff		 test	 edi, edi

; 40   : 		if( m_pIStrData) m_szData = m_pIStrData->GetData();

  00087	74 09		 je	 SHORT $LN35@GetDateTyp
  00089	8b 17		 mov	 edx, DWORD PTR [edi]
  0008b	8b cf		 mov	 ecx, edi
  0008d	ff 52 10	 call	 DWORD PTR [edx+16]
  00090	eb 02		 jmp	 SHORT $LN57@GetDateTyp
$LN35@GetDateTyp:

; 41   : 		else m_szData = NULL;

  00092	33 c0		 xor	 eax, eax
$LN57@GetDateTyp:
; File D:\git\src\IBK\IBK_DRFN\ProjSrc\SrcChartEx\ChartAddIn\ChartPeriodSummaryAddIn\ChartPeriodSummaryAddInImp.cpp

; 1306 : 		ILPCSTR is = pIPacket->GetType();

  00094	89 45 e4	 mov	 DWORD PTR _is$2[ebp], eax

; 1307 : 		CString s = is;

  00097	50		 push	 eax
  00098	8d 4d 08	 lea	 ecx, DWORD PTR _s$3[ebp]
  0009b	c6 45 fc 01	 mov	 BYTE PTR __$EHRec$[ebp+12], 1
  0009f	ff 15 00 00 00
	00		 call	 DWORD PTR __imp_??0?$CStringT@DV?$StrTraitMFC_DLL@DV?$ChTraitsCRT@D@ATL@@@@@ATL@@QAE@PBD@Z
; File C:\Program Files (x86)\Microsoft Visual Studio\2019\Community\VC\Tools\MSVC\14.29.30133\atlmfc\include\cstringt.h

; 2486 : 		return(str1.Compare(psz2) == 0);

  000a5	68 00 00 00 00	 push	 OFFSET ??_C@_08DKDJLCMP@YYYYMMDD@
  000aa	8d 4d 08	 lea	 ecx, DWORD PTR _s$3[ebp]
; File D:\git\src\IBK\IBK_DRFN\ProjSrc\SrcChartEx\ChartAddIn\ChartPeriodSummaryAddIn\ChartPeriodSummaryAddInImp.cpp

; 1307 : 		CString s = is;

  000ad	c6 45 fc 02	 mov	 BYTE PTR __$EHRec$[ebp+12], 2
; File C:\Program Files (x86)\Microsoft Visual Studio\2019\Community\VC\Tools\MSVC\14.29.30133\atlmfc\include\cstringt.h

; 2486 : 		return(str1.Compare(psz2) == 0);

  000b1	ff 15 00 00 00
	00		 call	 DWORD PTR __imp_?Compare@?$CStringT@DV?$StrTraitMFC_DLL@DV?$ChTraitsCRT@D@ATL@@@@@ATL@@QBEHPBD@Z
  000b7	85 c0		 test	 eax, eax
; File D:\git\src\IBK\IBK_DRFN\ProjSrc\SrcChartEx\ChartAddIn\ChartPeriodSummaryAddIn\ChartPeriodSummaryAddInImp.cpp

; 1309 : 		if(s == "YYYYMMDD")

  000b9	0f 84 92 00 00
	00		 je	 $LN19@GetDateTyp
; File C:\Program Files (x86)\Microsoft Visual Studio\2019\Community\VC\Tools\MSVC\14.29.30133\atlmfc\include\cstringt.h

; 2486 : 		return(str1.Compare(psz2) == 0);

  000bf	68 00 00 00 00	 push	 OFFSET ??_C@_08KLIIINKM@MMDDHHMM@
  000c4	8d 4d 08	 lea	 ecx, DWORD PTR _s$3[ebp]
  000c7	ff 15 00 00 00
	00		 call	 DWORD PTR __imp_?Compare@?$CStringT@DV?$StrTraitMFC_DLL@DV?$ChTraitsCRT@D@ATL@@@@@ATL@@QBEHPBD@Z
  000cd	85 c0		 test	 eax, eax
; File D:\git\src\IBK\IBK_DRFN\ProjSrc\SrcChartEx\ChartAddIn\ChartPeriodSummaryAddIn\ChartPeriodSummaryAddInImp.cpp

; 1313 : 		else if(s == "MMDDHHMM")

  000cf	74 77		 je	 SHORT $LN22@GetDateTyp
; File C:\Program Files (x86)\Microsoft Visual Studio\2019\Community\VC\Tools\MSVC\14.29.30133\atlmfc\include\cstringt.h

; 2486 : 		return(str1.Compare(psz2) == 0);

  000d1	68 00 00 00 00	 push	 OFFSET ??_C@_06MAANBBPI@HHMMSS@
  000d6	8d 4d 08	 lea	 ecx, DWORD PTR _s$3[ebp]
  000d9	ff 15 00 00 00
	00		 call	 DWORD PTR __imp_?Compare@?$CStringT@DV?$StrTraitMFC_DLL@DV?$ChTraitsCRT@D@ATL@@@@@ATL@@QBEHPBD@Z
  000df	85 c0		 test	 eax, eax
; File D:\git\src\IBK\IBK_DRFN\ProjSrc\SrcChartEx\ChartAddIn\ChartPeriodSummaryAddIn\ChartPeriodSummaryAddInImp.cpp

; 1317 : 		else if(s == "HHMMSS")

  000e1	75 09		 jne	 SHORT $LN12@GetDateTyp

; 1318 : 		{
; 1319 : 			p_pLine->m_nDateType = 2;

  000e3	c7 46 1c 02 00
	00 00		 mov	 DWORD PTR [esi+28], 2

; 1320 : 		}

  000ea	eb 6c		 jmp	 SHORT $LN2@GetDateTyp
$LN12@GetDateTyp:
; File C:\Program Files (x86)\Microsoft Visual Studio\2019\Community\VC\Tools\MSVC\14.29.30133\atlmfc\include\cstringt.h

; 2486 : 		return(str1.Compare(psz2) == 0);

  000ec	68 00 00 00 00	 push	 OFFSET ??_C@_08JFMBEEDE@DDHHMMSS@
  000f1	8d 4d 08	 lea	 ecx, DWORD PTR _s$3[ebp]
  000f4	ff 15 00 00 00
	00		 call	 DWORD PTR __imp_?Compare@?$CStringT@DV?$StrTraitMFC_DLL@DV?$ChTraitsCRT@D@ATL@@@@@ATL@@QBEHPBD@Z
  000fa	85 c0		 test	 eax, eax
; File D:\git\src\IBK\IBK_DRFN\ProjSrc\SrcChartEx\ChartAddIn\ChartPeriodSummaryAddIn\ChartPeriodSummaryAddInImp.cpp

; 1321 : 		else if(s == "DDHHMMSS")

  000fc	74 41		 je	 SHORT $LN24@GetDateTyp
; File C:\Program Files (x86)\Microsoft Visual Studio\2019\Community\VC\Tools\MSVC\14.29.30133\atlmfc\include\cstringt.h

; 2486 : 		return(str1.Compare(psz2) == 0);

  000fe	68 00 00 00 00	 push	 OFFSET ??_C@_06EBMMBHJD@YYYYMM@
  00103	8d 4d 08	 lea	 ecx, DWORD PTR _s$3[ebp]
  00106	ff 15 00 00 00
	00		 call	 DWORD PTR __imp_?Compare@?$CStringT@DV?$StrTraitMFC_DLL@DV?$ChTraitsCRT@D@ATL@@@@@ATL@@QBEHPBD@Z
  0010c	85 c0		 test	 eax, eax
; File D:\git\src\IBK\IBK_DRFN\ProjSrc\SrcChartEx\ChartAddIn\ChartPeriodSummaryAddIn\ChartPeriodSummaryAddInImp.cpp

; 1325 : 		else if(s == "YYYYMM")

  0010e	74 26		 je	 SHORT $LN21@GetDateTyp
; File C:\Program Files (x86)\Microsoft Visual Studio\2019\Community\VC\Tools\MSVC\14.29.30133\atlmfc\include\cstringt.h

; 2486 : 		return(str1.Compare(psz2) == 0);

  00110	68 00 00 00 00	 push	 OFFSET ??_C@_0P@IMPIBBAB@YYYYMMDDHHMMSS@
  00115	8d 4d 08	 lea	 ecx, DWORD PTR _s$3[ebp]
  00118	ff 15 00 00 00
	00		 call	 DWORD PTR __imp_?Compare@?$CStringT@DV?$StrTraitMFC_DLL@DV?$ChTraitsCRT@D@ATL@@@@@ATL@@QBEHPBD@Z
  0011e	85 c0		 test	 eax, eax
; File D:\git\src\IBK\IBK_DRFN\ProjSrc\SrcChartEx\ChartAddIn\ChartPeriodSummaryAddIn\ChartPeriodSummaryAddInImp.cpp

; 1330 : 		else if(s == "YYYYMMDDHHMMSS")

  00120	75 36		 jne	 SHORT $LN2@GetDateTyp

; 1331 : 		{
; 1332 : 			// nDataUnit (0:nontype, 1:, 2:, 3:, 4:, 5:, 6:Text)
; 1333 : 			int nDateUnit = pIPacket->GetDateUnitType();

  00122	8b 03		 mov	 eax, DWORD PTR [ebx]
  00124	8b cb		 mov	 ecx, ebx
  00126	ff 50 28	 call	 DWORD PTR [eax+40]

; 1334 : 			switch(nDateUnit)

  00129	48		 dec	 eax
  0012a	83 f8 05	 cmp	 eax, 5
  0012d	77 29		 ja	 SHORT $LN2@GetDateTyp
  0012f	ff 24 85 00 00
	00 00		 jmp	 DWORD PTR $LN55@GetDateTyp[eax*4]
$LN21@GetDateTyp:

; 1340 : 					break;
; 1341 : 			case 3:	//  
; 1342 : 					// _T("YYYYMM"); 
; 1343 : 					p_pLine->m_nDateType = 4;

  00136	c7 46 1c 04 00
	00 00		 mov	 DWORD PTR [esi+28], 4

; 1344 : 					break;

  0013d	eb 19		 jmp	 SHORT $LN2@GetDateTyp
$LN24@GetDateTyp:

; 1350 : 			case 5:	//  
; 1351 : 					// _T("DDHHMMSS"); 
; 1352 : 					p_pLine->m_nDateType = 3;

  0013f	c7 46 1c 03 00
	00 00		 mov	 DWORD PTR [esi+28], 3
  00146	eb 10		 jmp	 SHORT $LN2@GetDateTyp
$LN22@GetDateTyp:

; 1345 : 			case 4:	// 
; 1346 : 			case 6:
; 1347 : 					// _T("MMDDHHMM"); 
; 1348 : 					p_pLine->m_nDateType = 1;

  00148	c7 46 1c 01 00
	00 00		 mov	 DWORD PTR [esi+28], 1

; 1349 : 					break;

  0014f	eb 07		 jmp	 SHORT $LN2@GetDateTyp
$LN19@GetDateTyp:

; 1335 : 			{
; 1336 : 			case 1:	// 
; 1337 : 			case 2:	//  
; 1338 : 					// _T("YYYYMMDD"); 
; 1339 : 					p_pLine->m_nDateType = 0;

  00151	c7 46 1c 00 00
	00 00		 mov	 DWORD PTR [esi+28], 0
$LN2@GetDateTyp:

; 1353 : 					break;
; 1354 : 			}
; 1355 : 		}
; 1356 : 		// 2011.01.24 by SYS <<
; 1357 : 	}

  00158	8d 4d 08	 lea	 ecx, DWORD PTR _s$3[ebp]
  0015b	ff 15 00 00 00
	00		 call	 DWORD PTR __imp_??1?$CStringT@DV?$StrTraitMFC_DLL@DV?$ChTraitsCRT@D@ATL@@@@@ATL@@QAE@XZ
; File D:\git\src\IBK\IBK_DRFN\ProjSrc\SrcChartEx\ChartAddIn\ChartPeriodSummaryAddIn\Include_AddIn\I133691\_IString.h

; 44   : 	{

  00161	c6 45 fc 03	 mov	 BYTE PTR __$EHRec$[ebp+12], 3

; 45   : 		if( m_pIStrData)

  00165	85 ff		 test	 edi, edi
  00167	74 06		 je	 SHORT $LN51@GetDateTyp

; 46   : 		{
; 47   : 			m_pIStrData->Release();

  00169	8b 07		 mov	 eax, DWORD PTR [edi]
  0016b	57		 push	 edi
  0016c	ff 50 08	 call	 DWORD PTR [eax+8]
$LN51@GetDateTyp:
; File D:\git\src\IBK\IBK_DRFN\ProjSrc\SrcChartEx\ChartAddIn\ChartPeriodSummaryAddIn\ChartPeriodSummaryAddInImp.cpp

; 1364 : 	pIPacket->Release();

  0016f	8b 03		 mov	 eax, DWORD PTR [ebx]
  00171	53		 push	 ebx
  00172	c7 45 fc ff ff
	ff ff		 mov	 DWORD PTR __$EHRec$[ebp+12], -1
  00179	ff 50 08	 call	 DWORD PTR [eax+8]
$LN54@GetDateTyp:

; 1365 : 
; 1366 : 	return R_OK;
; 1367 : }

  0017c	33 c0		 xor	 eax, eax
  0017e	8b 4d f4	 mov	 ecx, DWORD PTR __$EHRec$[ebp+4]
  00181	64 89 0d 00 00
	00 00		 mov	 DWORD PTR fs:0, ecx
  00188	59		 pop	 ecx
  00189	5f		 pop	 edi
  0018a	5e		 pop	 esi
  0018b	5b		 pop	 ebx
  0018c	8b e5		 mov	 esp, ebp
  0018e	5d		 pop	 ebp
  0018f	c2 04 00	 ret	 4
__catch$?GetDateType@CChartPeriodSummaryAddInImp@@QAEHPAVCPeriodObj@@@Z$0:

; 1358 : 	catch( CChartPeriodSummaryAddInImp *)
; 1359 : 	{
; 1360 : 		pIPacket->Release();

  00192	8b 45 ec	 mov	 eax, DWORD PTR _pIPacket$[ebp]
  00195	50		 push	 eax
  00196	8b 08		 mov	 ecx, DWORD PTR [eax]
  00198	ff 51 08	 call	 DWORD PTR [ecx+8]

; 1361 : 		return R_ERROR;

  0019b	b8 00 00 00 00	 mov	 eax, $LN31@GetDateTyp
  001a0	c3		 ret	 0
$LN31@GetDateTyp:
  001a1	83 c8 ff	 or	 eax, -1

; 1365 : 
; 1366 : 	return R_OK;
; 1367 : }

  001a4	8b 4d f4	 mov	 ecx, DWORD PTR __$EHRec$[ebp+4]
  001a7	64 89 0d 00 00
	00 00		 mov	 DWORD PTR fs:0, ecx
  001ae	59		 pop	 ecx
  001af	5f		 pop	 edi
  001b0	5e		 pop	 esi
  001b1	5b		 pop	 ebx
  001b2	8b e5		 mov	 esp, ebp
  001b4	5d		 pop	 ebp
  001b5	c2 04 00	 ret	 4
$LN55@GetDateTyp:
  001b8	00 00 00 00	 DD	 $LN19@GetDateTyp
  001bc	00 00 00 00	 DD	 $LN19@GetDateTyp
  001c0	00 00 00 00	 DD	 $LN21@GetDateTyp
  001c4	00 00 00 00	 DD	 $LN22@GetDateTyp
  001c8	00 00 00 00	 DD	 $LN24@GetDateTyp
  001cc	00 00 00 00	 DD	 $LN22@GetDateTyp
_TEXT	ENDS
;	COMDAT text$x
text$x	SEGMENT
__unwindfunclet$?GetDateType@CChartPeriodSummaryAddInImp@@QAEHPAVCPeriodObj@@@Z$2:
  00000	8d 4d e4	 lea	 ecx, DWORD PTR _is$2[ebp]
  00003	e9 00 00 00 00	 jmp	 ??1ILPCSTR133691@@QAE@XZ ; ILPCSTR133691::~ILPCSTR133691
__unwindfunclet$?GetDateType@CChartPeriodSummaryAddInImp@@QAEHPAVCPeriodObj@@@Z$3:
  00008	8d 4d 08	 lea	 ecx, DWORD PTR _s$3[ebp]
  0000b	ff 25 00 00 00
	00		 jmp	 DWORD PTR __imp_??1?$CStringT@DV?$StrTraitMFC_DLL@DV?$ChTraitsCRT@D@ATL@@@@@ATL@@QAE@XZ
  00011	cc		 int	 3
  00012	cc		 int	 3
  00013	cc		 int	 3
  00014	cc		 int	 3
  00015	cc		 int	 3
__ehhandler$?GetDateType@CChartPeriodSummaryAddInImp@@QAEHPAVCPeriodObj@@@Z:
  00016	90		 npad	 1
  00017	90		 npad	 1
  00018	8b 54 24 08	 mov	 edx, DWORD PTR [esp+8]
  0001c	8d 42 0c	 lea	 eax, DWORD PTR [edx+12]
  0001f	8b 4a e0	 mov	 ecx, DWORD PTR [edx-32]
  00022	33 c8		 xor	 ecx, eax
  00024	e8 00 00 00 00	 call	 @__security_check_cookie@4
  00029	b8 00 00 00 00	 mov	 eax, OFFSET __ehfuncinfo$?GetDateType@CChartPeriodSummaryAddInImp@@QAEHPAVCPeriodObj@@@Z
  0002e	e9 00 00 00 00	 jmp	 ___CxxFrameHandler3
text$x	ENDS
?GetDateType@CChartPeriodSummaryAddInImp@@QAEHPAVCPeriodObj@@@Z ENDP ; CChartPeriodSummaryAddInImp::GetDateType
; Function compile flags: /Ogtp
; File D:\git\src\IBK\IBK_DRFN\ProjSrc\SrcChartEx\ChartAddIn\ChartPeriodSummaryAddIn\ChartPeriodSummaryAddInImp.cpp
;	COMDAT ?IsValidIndex@CChartPeriodSummaryAddInImp@@QAEHPBDH@Z
_TEXT	SEGMENT
_dCur$2 = -28						; size = 8
$T3 = -20						; size = 4
__$EHRec$ = -16						; size = 16
_pIPacketForCur$ = 8					; size = 4
_p_szRQ$ = 8						; size = 4
_nIndex$ = 12						; size = 4
?IsValidIndex@CChartPeriodSummaryAddInImp@@QAEHPBDH@Z PROC ; CChartPeriodSummaryAddInImp::IsValidIndex, COMDAT
; _this$ = ecx

; 1797 : {

  00000	55		 push	 ebp
  00001	8b ec		 mov	 ebp, esp
  00003	6a ff		 push	 -1
  00005	68 00 00 00 00	 push	 __ehhandler$?IsValidIndex@CChartPeriodSummaryAddInImp@@QAEHPBDH@Z
  0000a	64 a1 00 00 00
	00		 mov	 eax, DWORD PTR fs:0
  00010	50		 push	 eax
  00011	83 ec 10	 sub	 esp, 16			; 00000010H
  00014	53		 push	 ebx
  00015	56		 push	 esi
  00016	57		 push	 edi
  00017	a1 00 00 00 00	 mov	 eax, DWORD PTR ___security_cookie
  0001c	33 c5		 xor	 eax, ebp
  0001e	50		 push	 eax
  0001f	8d 45 f4	 lea	 eax, DWORD PTR __$EHRec$[ebp+4]
  00022	64 a3 00 00 00
	00		 mov	 DWORD PTR fs:0, eax
  00028	89 65 f0	 mov	 DWORD PTR __$EHRec$[ebp], esp
  0002b	8b d9		 mov	 ebx, ecx

; 1798 : 	IPacketManager *pIPacketManager = m_pIPacketListManager->GetPacketManager( p_szRQ);

  0002d	8b 4b 20	 mov	 ecx, DWORD PTR [ebx+32]
  00030	ff 75 08	 push	 DWORD PTR _p_szRQ$[ebp]
  00033	8b 01		 mov	 eax, DWORD PTR [ecx]
  00035	ff 50 10	 call	 DWORD PTR [eax+16]
  00038	8b f8		 mov	 edi, eax

; 1799 : 	if( !pIPacketManager) return FALSE;

  0003a	85 ff		 test	 edi, edi
  0003c	74 75		 je	 SHORT $LN10@IsValidInd

; 1800 : 	IPacket *pIPacketForCur = pIPacketManager->GetPacket( _MTEXT(C0_CLOSE));

  0003e	8b 0d 54 00 00
	00		 mov	 ecx, DWORD PTR ?g_iMetaTable@@3VIMetaTable@@A+84
  00044	8b 17		 mov	 edx, DWORD PTR [edi]
  00046	ff 71 14	 push	 DWORD PTR [ecx+20]
  00049	8b cf		 mov	 ecx, edi
  0004b	ff 52 10	 call	 DWORD PTR [edx+16]

; 1801 : 	pIPacketManager->Release();

  0004e	8b 0f		 mov	 ecx, DWORD PTR [edi]
  00050	8b f0		 mov	 esi, eax
  00052	57		 push	 edi
  00053	89 75 08	 mov	 DWORD PTR _pIPacketForCur$[ebp], esi
  00056	ff 51 08	 call	 DWORD PTR [ecx+8]

; 1802 : 	if( !pIPacketForCur) return FALSE;

  00059	85 f6		 test	 esi, esi
  0005b	74 56		 je	 SHORT $LN10@IsValidInd

; 1803 : 	try
; 1804 : 	{
; 1805 : 		double dCur=0;
; 1806 : 		if( !pIPacketForCur->GetData( nIndex, dCur)) throw this;	//  

  0005d	8b 06		 mov	 eax, DWORD PTR [esi]
  0005f	8d 4d e4	 lea	 ecx, DWORD PTR _dCur$2[ebp]
  00062	51		 push	 ecx
  00063	ff 75 0c	 push	 DWORD PTR _nIndex$[ebp]
  00066	0f 57 c0	 xorps	 xmm0, xmm0
  00069	c7 45 fc 00 00
	00 00		 mov	 DWORD PTR __$EHRec$[ebp+12], 0
  00070	8b ce		 mov	 ecx, esi
  00072	f2 0f 11 45 e4	 movsd	 QWORD PTR _dCur$2[ebp], xmm0
  00077	ff 50 40	 call	 DWORD PTR [eax+64]
  0007a	85 c0		 test	 eax, eax
  0007c	74 4b		 je	 SHORT $LN14@IsValidInd

; 1812 : 	}
; 1813 : 	pIPacketForCur->Release();

  0007e	8b 06		 mov	 eax, DWORD PTR [esi]
  00080	56		 push	 esi
  00081	c7 45 fc ff ff
	ff ff		 mov	 DWORD PTR __$EHRec$[ebp+12], -1
  00088	ff 50 08	 call	 DWORD PTR [eax+8]
  0008b	b8 01 00 00 00	 mov	 eax, 1

; 1814 : 	return TRUE;
; 1815 : }

  00090	8b 4d f4	 mov	 ecx, DWORD PTR __$EHRec$[ebp+4]
  00093	64 89 0d 00 00
	00 00		 mov	 DWORD PTR fs:0, ecx
  0009a	59		 pop	 ecx
  0009b	5f		 pop	 edi
  0009c	5e		 pop	 esi
  0009d	5b		 pop	 ebx
  0009e	8b e5		 mov	 esp, ebp
  000a0	5d		 pop	 ebp
  000a1	c2 08 00	 ret	 8
__catch$?IsValidIndex@CChartPeriodSummaryAddInImp@@QAEHPBDH@Z$0:

; 1807 : 	}
; 1808 : 	catch( CChartPeriodSummaryAddInImp *)
; 1809 : 	{
; 1810 : 		pIPacketForCur->Release();

  000a4	8b 45 08	 mov	 eax, DWORD PTR _pIPacketForCur$[ebp]
  000a7	50		 push	 eax
  000a8	8b 08		 mov	 ecx, DWORD PTR [eax]
  000aa	ff 51 08	 call	 DWORD PTR [ecx+8]

; 1811 : 		return FALSE;

  000ad	b8 00 00 00 00	 mov	 eax, $LN10@IsValidInd
  000b2	c3		 ret	 0
$LN10@IsValidInd:
  000b3	33 c0		 xor	 eax, eax

; 1814 : 	return TRUE;
; 1815 : }

  000b5	8b 4d f4	 mov	 ecx, DWORD PTR __$EHRec$[ebp+4]
  000b8	64 89 0d 00 00
	00 00		 mov	 DWORD PTR fs:0, ecx
  000bf	59		 pop	 ecx
  000c0	5f		 pop	 edi
  000c1	5e		 pop	 esi
  000c2	5b		 pop	 ebx
  000c3	8b e5		 mov	 esp, ebp
  000c5	5d		 pop	 ebp
  000c6	c2 08 00	 ret	 8
$LN14@IsValidInd:

; 1803 : 	try
; 1804 : 	{
; 1805 : 		double dCur=0;
; 1806 : 		if( !pIPacketForCur->GetData( nIndex, dCur)) throw this;	//  

  000c9	68 00 00 00 00	 push	 OFFSET __TI7PAVCChartPeriodSummaryAddInImp@@
  000ce	8d 45 ec	 lea	 eax, DWORD PTR $T3[ebp]
  000d1	89 5d ec	 mov	 DWORD PTR $T3[ebp], ebx
  000d4	50		 push	 eax
  000d5	e8 00 00 00 00	 call	 __CxxThrowException@8
$LN12@IsValidInd:
  000da	cc		 int	 3
  000db	cc		 int	 3
  000dc	cc		 int	 3
  000dd	cc		 int	 3
  000de	cc		 int	 3
  000df	cc		 int	 3
_TEXT	ENDS
;	COMDAT text$x
text$x	SEGMENT
__ehhandler$?IsValidIndex@CChartPeriodSummaryAddInImp@@QAEHPBDH@Z:
  00000	90		 npad	 1
  00001	90		 npad	 1
  00002	8b 54 24 08	 mov	 edx, DWORD PTR [esp+8]
  00006	8d 42 0c	 lea	 eax, DWORD PTR [edx+12]
  00009	8b 4a e0	 mov	 ecx, DWORD PTR [edx-32]
  0000c	33 c8		 xor	 ecx, eax
  0000e	e8 00 00 00 00	 call	 @__security_check_cookie@4
  00013	b8 00 00 00 00	 mov	 eax, OFFSET __ehfuncinfo$?IsValidIndex@CChartPeriodSummaryAddInImp@@QAEHPBDH@Z
  00018	e9 00 00 00 00	 jmp	 ___CxxFrameHandler3
text$x	ENDS
?IsValidIndex@CChartPeriodSummaryAddInImp@@QAEHPBDH@Z ENDP ; CChartPeriodSummaryAddInImp::IsValidIndex
; Function compile flags: /Ogtp
; File D:\git\src\IBK\IBK_DRFN\ProjSrc\SrcChartEx\ChartAddIn\ChartPeriodSummaryAddIn\ChartPeriodSummaryAddInImp.cpp
;	COMDAT ?RegPS@CChartPeriodSummaryAddInImp@@QAEXJ@Z
_TEXT	SEGMENT
_pLine$ = 8						; size = 4
?RegPS@CChartPeriodSummaryAddInImp@@QAEXJ@Z PROC	; CChartPeriodSummaryAddInImp::RegPS, COMDAT
; _this$ = ecx

; 1636 : {

  00000	55		 push	 ebp
  00001	8b ec		 mov	 ebp, esp

; 1637 : 	if( m_pIAddInToolMgr != NULL )

  00003	8b 49 30	 mov	 ecx, DWORD PTR [ecx+48]
  00006	85 c9		 test	 ecx, ecx
  00008	74 13		 je	 SHORT $LN2@RegPS

; 1638 : 	{
; 1639 : 		m_pIAddInToolMgr->OnAddInToolCommand( EAI_TOOLORDERMGR_ADD_TOOL_TO_ORDERMANAGER,	

  0000a	ff 75 08	 push	 DWORD PTR _pLine$[ebp]
  0000d	8b 01		 mov	 eax, DWORD PTR [ecx]
  0000f	ff 35 00 00 00
	00		 push	 DWORD PTR ?m_strAddInItemName@CChartPeriodSummaryAddInImp@@2V?$CStringT@DV?$StrTraitMFC_DLL@DV?$ChTraitsCRT@D@ATL@@@@@ATL@@A ; CChartPeriodSummaryAddInImp::m_strAddInItemName
  00015	6a 31		 push	 49			; 00000031H
  00017	ff 90 a0 00 00
	00		 call	 DWORD PTR [eax+160]
$LN2@RegPS:

; 1640 : 											  m_strAddInItemName,		
; 1641 : 											  pLine );	
; 1642 : 	}
; 1643 : }

  0001d	5d		 pop	 ebp
  0001e	c2 04 00	 ret	 4
?RegPS@CChartPeriodSummaryAddInImp@@QAEXJ@Z ENDP	; CChartPeriodSummaryAddInImp::RegPS
_TEXT	ENDS
; Function compile flags: /Ogtp
; File D:\git\src\IBK\IBK_DRFN\ProjSrc\SrcChartEx\ChartAddIn\ChartPeriodSummaryAddIn\ChartPeriodSummaryAddInImp.cpp
;	COMDAT ?UnregPS@CChartPeriodSummaryAddInImp@@QAEXJ@Z
_TEXT	SEGMENT
_pLine$ = 8						; size = 4
?UnregPS@CChartPeriodSummaryAddInImp@@QAEXJ@Z PROC	; CChartPeriodSummaryAddInImp::UnregPS, COMDAT
; _this$ = ecx

; 1646 : {

  00000	55		 push	 ebp
  00001	8b ec		 mov	 ebp, esp

; 1647 : 	if( m_pIAddInToolMgr != NULL )

  00003	8b 49 30	 mov	 ecx, DWORD PTR [ecx+48]
  00006	85 c9		 test	 ecx, ecx
  00008	74 13		 je	 SHORT $LN2@UnregPS

; 1648 : 	{
; 1649 : 		m_pIAddInToolMgr->OnAddInToolCommand( EAI_TOOLORDERMGR_DELETE_TOOL_FROM_ORDERMANAGER,	

  0000a	ff 75 08	 push	 DWORD PTR _pLine$[ebp]
  0000d	8b 01		 mov	 eax, DWORD PTR [ecx]
  0000f	ff 35 00 00 00
	00		 push	 DWORD PTR ?m_strAddInItemName@CChartPeriodSummaryAddInImp@@2V?$CStringT@DV?$StrTraitMFC_DLL@DV?$ChTraitsCRT@D@ATL@@@@@ATL@@A ; CChartPeriodSummaryAddInImp::m_strAddInItemName
  00015	6a 32		 push	 50			; 00000032H
  00017	ff 90 a0 00 00
	00		 call	 DWORD PTR [eax+160]
$LN2@UnregPS:

; 1650 : 											  m_strAddInItemName,		
; 1651 : 											  pLine );	
; 1652 : 	}
; 1653 : }

  0001d	5d		 pop	 ebp
  0001e	c2 04 00	 ret	 4
?UnregPS@CChartPeriodSummaryAddInImp@@QAEXJ@Z ENDP	; CChartPeriodSummaryAddInImp::UnregPS
_TEXT	ENDS
; Function compile flags: /Ogtp
; File D:\git\src\IBK\IBK_DRFN\ProjSrc\SrcChartEx\ChartAddIn\ChartPeriodSummaryAddIn\Include_AddIn\I133691\_IString.h
;	COMDAT ??1ILPCSTR133691@@QAE@XZ
_TEXT	SEGMENT
__$EHRec$ = -12						; size = 12
??1ILPCSTR133691@@QAE@XZ PROC				; ILPCSTR133691::~ILPCSTR133691, COMDAT
; _this$ = ecx

; 44   : 	{

  00000	55		 push	 ebp
  00001	8b ec		 mov	 ebp, esp
  00003	6a ff		 push	 -1
  00005	68 00 00 00 00	 push	 __ehhandler$??1ILPCSTR133691@@QAE@XZ
  0000a	64 a1 00 00 00
	00		 mov	 eax, DWORD PTR fs:0
  00010	50		 push	 eax
  00011	56		 push	 esi
  00012	a1 00 00 00 00	 mov	 eax, DWORD PTR ___security_cookie
  00017	33 c5		 xor	 eax, ebp
  00019	50		 push	 eax
  0001a	8d 45 f4	 lea	 eax, DWORD PTR __$EHRec$[ebp]
  0001d	64 a3 00 00 00
	00		 mov	 DWORD PTR fs:0, eax
  00023	8b f1		 mov	 esi, ecx

; 45   : 		if( m_pIStrData)

  00025	8b 4e 04	 mov	 ecx, DWORD PTR [esi+4]
  00028	85 c9		 test	 ecx, ecx
  0002a	74 13		 je	 SHORT $LN2@ILPCSTR133

; 46   : 		{
; 47   : 			m_pIStrData->Release();

  0002c	8b 01		 mov	 eax, DWORD PTR [ecx]
  0002e	51		 push	 ecx
  0002f	ff 50 08	 call	 DWORD PTR [eax+8]

; 48   : 			m_pIStrData = NULL;

  00032	c7 46 04 00 00
	00 00		 mov	 DWORD PTR [esi+4], 0

; 49   : 			m_szData = NULL;

  00039	c7 06 00 00 00
	00		 mov	 DWORD PTR [esi], 0
$LN2@ILPCSTR133:

; 50   : 		}
; 51   : 	}

  0003f	8b 4d f4	 mov	 ecx, DWORD PTR __$EHRec$[ebp]
  00042	64 89 0d 00 00
	00 00		 mov	 DWORD PTR fs:0, ecx
  00049	59		 pop	 ecx
  0004a	5e		 pop	 esi
  0004b	8b e5		 mov	 esp, ebp
  0004d	5d		 pop	 ebp
  0004e	c3		 ret	 0
  0004f	cc		 int	 3
  00050	cc		 int	 3
  00051	cc		 int	 3
  00052	cc		 int	 3
  00053	cc		 int	 3
_TEXT	ENDS
;	COMDAT text$x
text$x	SEGMENT
__ehhandler$??1ILPCSTR133691@@QAE@XZ:
  00000	90		 npad	 1
  00001	90		 npad	 1
  00002	8b 54 24 08	 mov	 edx, DWORD PTR [esp+8]
  00006	8d 42 0c	 lea	 eax, DWORD PTR [edx+12]
  00009	8b 4a f8	 mov	 ecx, DWORD PTR [edx-8]
  0000c	33 c8		 xor	 ecx, eax
  0000e	e8 00 00 00 00	 call	 @__security_check_cookie@4
  00013	b8 00 00 00 00	 mov	 eax, OFFSET __ehfuncinfo$??1ILPCSTR133691@@QAE@XZ
  00018	e9 00 00 00 00	 jmp	 ___CxxFrameHandler3
text$x	ENDS
??1ILPCSTR133691@@QAE@XZ ENDP				; ILPCSTR133691::~ILPCSTR133691
; Function compile flags: /Ogtp
; File D:\git\src\IBK\IBK_DRFN\ProjSrc\SrcChartEx\ChartAddIn\ChartPeriodSummaryAddIn\Include_AddIn\I133691\_ChartAddInBase.h
;	COMDAT ?OnRButtonDblClk@CChartAddInBase133691@@MAEHPAUHDC__@@IAAUtagPOINT@@K@Z
_TEXT	SEGMENT
_p_hDC$ = 8						; size = 4
_nFlags$ = 12						; size = 4
_point$ = 16						; size = 4
_p_dwMouseActionID$ = 20				; size = 4
?OnRButtonDblClk@CChartAddInBase133691@@MAEHPAUHDC__@@IAAUtagPOINT@@K@Z PROC ; CChartAddInBase133691::OnRButtonDblClk, COMDAT
; _this$ = ecx

; 215  : 	virtual BOOL	OnRButtonDblClk(	HDC p_hDC, UINT nFlags, POINT &point, const DWORD p_dwMouseActionID)									{	return FALSE;	}

  00000	33 c0		 xor	 eax, eax
  00002	c2 10 00	 ret	 16			; 00000010H
?OnRButtonDblClk@CChartAddInBase133691@@MAEHPAUHDC__@@IAAUtagPOINT@@K@Z ENDP ; CChartAddInBase133691::OnRButtonDblClk
_TEXT	ENDS
; Function compile flags: /Ogtp
; File D:\git\src\IBK\IBK_DRFN\ProjSrc\SrcChartEx\ChartAddIn\ChartPeriodSummaryAddIn\Include_AddIn\I133691\_ChartAddInBase.h
;	COMDAT ?OnMouseWheel@CChartAddInBase133691@@MAEHIFUtagPOINT@@K@Z
_TEXT	SEGMENT
_nFlags$ = 8						; size = 4
_zDelta$ = 12						; size = 2
_pt$ = 16						; size = 8
_p_dwMouseActionID$ = 24				; size = 4
?OnMouseWheel@CChartAddInBase133691@@MAEHIFUtagPOINT@@K@Z PROC ; CChartAddInBase133691::OnMouseWheel, COMDAT
; _this$ = ecx

; 208  : 	virtual BOOL	OnMouseWheel(		UINT nFlags, short zDelta, POINT pt, const DWORD p_dwMouseActionID)										{	return FALSE;	}

  00000	33 c0		 xor	 eax, eax
  00002	c2 14 00	 ret	 20			; 00000014H
?OnMouseWheel@CChartAddInBase133691@@MAEHIFUtagPOINT@@K@Z ENDP ; CChartAddInBase133691::OnMouseWheel
_TEXT	ENDS
; Function compile flags: /Ogtp
; File D:\git\src\IBK\IBK_DRFN\ProjSrc\SrcChartEx\ChartAddIn\ChartPeriodSummaryAddIn\Include_AddIn\I133691\_ChartAddInBase.h
;	COMDAT ?OnKeyUp@CChartAddInBase133691@@MAEHIII@Z
_TEXT	SEGMENT
_nChar$ = 8						; size = 4
_nRepCnt$ = 12						; size = 4
_nFlags$ = 16						; size = 4
?OnKeyUp@CChartAddInBase133691@@MAEHIII@Z PROC		; CChartAddInBase133691::OnKeyUp, COMDAT
; _this$ = ecx

; 207  : 	virtual BOOL	OnKeyUp(			UINT nChar, UINT nRepCnt, UINT nFlags)																	{	return FALSE;	}

  00000	33 c0		 xor	 eax, eax
  00002	c2 0c 00	 ret	 12			; 0000000cH
?OnKeyUp@CChartAddInBase133691@@MAEHIII@Z ENDP		; CChartAddInBase133691::OnKeyUp
_TEXT	ENDS
; Function compile flags: /Ogtp
; File D:\git\src\IBK\IBK_DRFN\ProjSrc\SrcChartEx\ChartAddIn\ChartPeriodSummaryAddIn\Include_AddIn\I133691\_ChartAddInBase.h
;	COMDAT ?OnAddInToolCommand@CChartAddInBase133691@@MAEHAAJW4EAICommandType@@JJ@Z
_TEXT	SEGMENT
_p_lResult$ = 8						; size = 4
_p_eCommandID$ = 12					; size = 4
_p_lParam1$ = 16					; size = 4
_p_lParam2$ = 20					; size = 4
?OnAddInToolCommand@CChartAddInBase133691@@MAEHAAJW4EAICommandType@@JJ@Z PROC ; CChartAddInBase133691::OnAddInToolCommand, COMDAT
; _this$ = ecx

; 204  : 	virtual BOOL	OnAddInToolCommand(	long &p_lResult, const EAICommandType p_eCommandID, const long p_lParam1, const long p_lParam2)			{	return FALSE;	}

  00000	33 c0		 xor	 eax, eax
  00002	c2 10 00	 ret	 16			; 00000010H
?OnAddInToolCommand@CChartAddInBase133691@@MAEHAAJW4EAICommandType@@JJ@Z ENDP ; CChartAddInBase133691::OnAddInToolCommand
_TEXT	ENDS
; Function compile flags: /Ogtp
; File D:\git\src\IBK\IBK_DRFN\ProjSrc\SrcChartEx\ChartAddIn\ChartPeriodSummaryAddIn\Include_AddIn\I133691\_ChartAddInBase.h
;	COMDAT ?OnAddInToolCommand@CChartAddInBase133691@@MAEHAAJW4EAICommandType@@J@Z
_TEXT	SEGMENT
_p_lResult$ = 8						; size = 4
_p_eCommandID$ = 12					; size = 4
_p_lParam$ = 16						; size = 4
?OnAddInToolCommand@CChartAddInBase133691@@MAEHAAJW4EAICommandType@@J@Z PROC ; CChartAddInBase133691::OnAddInToolCommand, COMDAT
; _this$ = ecx

; 203  : 	virtual BOOL	OnAddInToolCommand(	long &p_lResult, const EAICommandType p_eCommandID, const long p_lParam)								{	return FALSE;	}

  00000	33 c0		 xor	 eax, eax
  00002	c2 0c 00	 ret	 12			; 0000000cH
?OnAddInToolCommand@CChartAddInBase133691@@MAEHAAJW4EAICommandType@@J@Z ENDP ; CChartAddInBase133691::OnAddInToolCommand
_TEXT	ENDS
; Function compile flags: /Ogtp
; File D:\git\src\IBK\IBK_DRFN\ProjSrc\SrcChartEx\ChartAddIn\ChartPeriodSummaryAddIn\Include_AddIn\I133691\_ChartAddInBase.h
;	COMDAT ?OnAddInToolCommand@CChartAddInBase133691@@MAEHAAJW4EAICommandType@@PBDPAVCObject@@@Z
_TEXT	SEGMENT
_p_lResult$ = 8						; size = 4
_p_eCommandID$ = 12					; size = 4
_p_szParam$ = 16					; size = 4
_p_pParam$ = 20						; size = 4
?OnAddInToolCommand@CChartAddInBase133691@@MAEHAAJW4EAICommandType@@PBDPAVCObject@@@Z PROC ; CChartAddInBase133691::OnAddInToolCommand, COMDAT
; _this$ = ecx

; 202  : 	virtual BOOL	OnAddInToolCommand(	long &p_lResult, const EAICommandType p_eCommandID, const char *p_szParam, CObject *p_pParam)			{	return FALSE;	}

  00000	33 c0		 xor	 eax, eax
  00002	c2 10 00	 ret	 16			; 00000010H
?OnAddInToolCommand@CChartAddInBase133691@@MAEHAAJW4EAICommandType@@PBDPAVCObject@@@Z ENDP ; CChartAddInBase133691::OnAddInToolCommand
_TEXT	ENDS
; Function compile flags: /Ogtp
; File D:\git\src\IBK\IBK_DRFN\ProjSrc\SrcChartEx\ChartAddIn\ChartPeriodSummaryAddIn\Include_AddIn\I133691\_ChartAddInBase.h
;	COMDAT ?OnAddInToolCommand@CChartAddInBase133691@@MAEHAAJW4EAICommandType@@PBD@Z
_TEXT	SEGMENT
_p_lResult$ = 8						; size = 4
_p_eCommandID$ = 12					; size = 4
_p_szParam$ = 16					; size = 4
?OnAddInToolCommand@CChartAddInBase133691@@MAEHAAJW4EAICommandType@@PBD@Z PROC ; CChartAddInBase133691::OnAddInToolCommand, COMDAT
; _this$ = ecx

; 201  : 	virtual BOOL	OnAddInToolCommand(	long &p_lResult, const EAICommandType p_eCommandID, const char *p_szParam)								{	return FALSE;	}

  00000	33 c0		 xor	 eax, eax
  00002	c2 0c 00	 ret	 12			; 0000000cH
?OnAddInToolCommand@CChartAddInBase133691@@MAEHAAJW4EAICommandType@@PBD@Z ENDP ; CChartAddInBase133691::OnAddInToolCommand
_TEXT	ENDS
; Function compile flags: /Ogtp
; File D:\git\src\IBK\IBK_DRFN\ProjSrc\SrcChartEx\ChartAddIn\ChartPeriodSummaryAddIn\Include_AddIn\I133691\_ChartAddInBase.h
;	COMDAT ?OnAddInToolCommand@CChartAddInBase133691@@MAEHAAJW4EAICommandType@@PAUIGraphInfo133691@@@Z
_TEXT	SEGMENT
_p_lResult$ = 8						; size = 4
_p_eCommandID$ = 12					; size = 4
_p_pIGraphInfo$ = 16					; size = 4
?OnAddInToolCommand@CChartAddInBase133691@@MAEHAAJW4EAICommandType@@PAUIGraphInfo133691@@@Z PROC ; CChartAddInBase133691::OnAddInToolCommand, COMDAT
; _this$ = ecx

; 200  : 	virtual BOOL	OnAddInToolCommand(	long &p_lResult, const EAICommandType p_eCommandID, IGraphInfo *p_pIGraphInfo)							{	return FALSE;	}

  00000	33 c0		 xor	 eax, eax
  00002	c2 0c 00	 ret	 12			; 0000000cH
?OnAddInToolCommand@CChartAddInBase133691@@MAEHAAJW4EAICommandType@@PAUIGraphInfo133691@@@Z ENDP ; CChartAddInBase133691::OnAddInToolCommand
_TEXT	ENDS
; Function compile flags: /Ogtp
; File D:\git\src\IBK\IBK_DRFN\ProjSrc\SrcChartEx\ChartAddIn\ChartPeriodSummaryAddIn\Include_AddIn\I133691\_ChartAddInBase.h
;	COMDAT ?OnAddInToolCommand@CChartAddInBase133691@@MAEHAAJW4EAICommandType@@@Z
_TEXT	SEGMENT
_p_lResult$ = 8						; size = 4
_p_eCommandID$ = 12					; size = 4
?OnAddInToolCommand@CChartAddInBase133691@@MAEHAAJW4EAICommandType@@@Z PROC ; CChartAddInBase133691::OnAddInToolCommand, COMDAT
; _this$ = ecx

; 199  : 	virtual BOOL	OnAddInToolCommand(	long &p_lResult, const EAICommandType p_eCommandID)														{	return FALSE;	}

  00000	33 c0		 xor	 eax, eax
  00002	c2 08 00	 ret	 8
?OnAddInToolCommand@CChartAddInBase133691@@MAEHAAJW4EAICommandType@@@Z ENDP ; CChartAddInBase133691::OnAddInToolCommand
_TEXT	ENDS
; Function compile flags: /Ogtp
; File D:\git\src\IBK\IBK_DRFN\ProjSrc\SrcChartEx\ChartAddIn\ChartPeriodSummaryAddIn\Include_AddIn\I133691\_ChartAddInBase.h
;	COMDAT ?OnAddInToolCommand@CChartAddInBase133691@@MAEHW4EAICommandType@@JJJJJJJJJ@Z
_TEXT	SEGMENT
_p_eCommandID$ = 8					; size = 4
_p_lParam1$ = 12					; size = 4
_p_lParam2$ = 16					; size = 4
_p_lParam3$ = 20					; size = 4
_p_lParam4$ = 24					; size = 4
_p_lParam5$ = 28					; size = 4
_p_lParam6$ = 32					; size = 4
_p_lParam7$ = 36					; size = 4
_p_lParam8$ = 40					; size = 4
_p_lParam9$ = 44					; size = 4
?OnAddInToolCommand@CChartAddInBase133691@@MAEHW4EAICommandType@@JJJJJJJJJ@Z PROC ; CChartAddInBase133691::OnAddInToolCommand, COMDAT
; _this$ = ecx

; 198  : 	virtual BOOL	OnAddInToolCommand(	const EAICommandType p_eCommandID, const long p_lParam1, const long p_lParam2, const long p_lParam3, const long p_lParam4, const long p_lParam5, const long p_lParam6, const long p_lParam7, const long p_lParam8, const long p_lParam9)	{	return FALSE;	}

  00000	33 c0		 xor	 eax, eax
  00002	c2 28 00	 ret	 40			; 00000028H
?OnAddInToolCommand@CChartAddInBase133691@@MAEHW4EAICommandType@@JJJJJJJJJ@Z ENDP ; CChartAddInBase133691::OnAddInToolCommand
_TEXT	ENDS
; Function compile flags: /Ogtp
; File D:\git\src\IBK\IBK_DRFN\ProjSrc\SrcChartEx\ChartAddIn\ChartPeriodSummaryAddIn\Include_AddIn\I133691\_ChartAddInBase.h
;	COMDAT ?OnAddInToolCommand@CChartAddInBase133691@@MAEHW4EAICommandType@@JJ@Z
_TEXT	SEGMENT
_p_eCommandID$ = 8					; size = 4
_p_lParam1$ = 12					; size = 4
_p_lParam2$ = 16					; size = 4
?OnAddInToolCommand@CChartAddInBase133691@@MAEHW4EAICommandType@@JJ@Z PROC ; CChartAddInBase133691::OnAddInToolCommand, COMDAT
; _this$ = ecx

; 197  : 	virtual BOOL	OnAddInToolCommand(	const EAICommandType p_eCommandID, const long p_lParam1, const long p_lParam2)							{	return FALSE;	}

  00000	33 c0		 xor	 eax, eax
  00002	c2 0c 00	 ret	 12			; 0000000cH
?OnAddInToolCommand@CChartAddInBase133691@@MAEHW4EAICommandType@@JJ@Z ENDP ; CChartAddInBase133691::OnAddInToolCommand
_TEXT	ENDS
; Function compile flags: /Ogtp
; File D:\git\src\IBK\IBK_DRFN\ProjSrc\SrcChartEx\ChartAddIn\ChartPeriodSummaryAddIn\Include_AddIn\I133691\_ChartAddInBase.h
;	COMDAT ?OnAddInToolCommand@CChartAddInBase133691@@MAEHW4EAICommandType@@JPBD11@Z
_TEXT	SEGMENT
_p_eCommandID$ = 8					; size = 4
_p_lParam$ = 12						; size = 4
_p_szParam1$ = 16					; size = 4
_p_szParam2$ = 20					; size = 4
_p_szParam3$ = 24					; size = 4
?OnAddInToolCommand@CChartAddInBase133691@@MAEHW4EAICommandType@@JPBD11@Z PROC ; CChartAddInBase133691::OnAddInToolCommand, COMDAT
; _this$ = ecx

; 196  : 	virtual BOOL	OnAddInToolCommand( const EAICommandType p_eCommandID, const long p_lParam, const char *p_szParam1, const char *p_szParam2, const char *p_szParam3)	{	return FALSE;	}

  00000	33 c0		 xor	 eax, eax
  00002	c2 14 00	 ret	 20			; 00000014H
?OnAddInToolCommand@CChartAddInBase133691@@MAEHW4EAICommandType@@JPBD11@Z ENDP ; CChartAddInBase133691::OnAddInToolCommand
_TEXT	ENDS
; Function compile flags: /Ogtp
; File D:\git\src\IBK\IBK_DRFN\ProjSrc\SrcChartEx\ChartAddIn\ChartPeriodSummaryAddIn\Include_AddIn\I133691\_ChartAddInBase.h
;	COMDAT ?OnAddInToolCommand@CChartAddInBase133691@@MAEHW4EAICommandType@@JPBD@Z
_TEXT	SEGMENT
_p_eCommandID$ = 8					; size = 4
_p_lParam$ = 12						; size = 4
_p_szParam$ = 16					; size = 4
?OnAddInToolCommand@CChartAddInBase133691@@MAEHW4EAICommandType@@JPBD@Z PROC ; CChartAddInBase133691::OnAddInToolCommand, COMDAT
; _this$ = ecx

; 195  : 	virtual BOOL	OnAddInToolCommand( const EAICommandType p_eCommandID, const long p_lParam, const char *p_szParam)							{	return FALSE;	}

  00000	33 c0		 xor	 eax, eax
  00002	c2 0c 00	 ret	 12			; 0000000cH
?OnAddInToolCommand@CChartAddInBase133691@@MAEHW4EAICommandType@@JPBD@Z ENDP ; CChartAddInBase133691::OnAddInToolCommand
_TEXT	ENDS
; Function compile flags: /Ogtp
; File D:\git\src\IBK\IBK_DRFN\ProjSrc\SrcChartEx\ChartAddIn\ChartPeriodSummaryAddIn\Include_AddIn\I133691\_ChartAddInBase.h
;	COMDAT ?OnAddInToolCommand@CChartAddInBase133691@@MAEHW4EAICommandType@@J@Z
_TEXT	SEGMENT
_p_eCommandID$ = 8					; size = 4
_p_lParam$ = 12						; size = 4
?OnAddInToolCommand@CChartAddInBase133691@@MAEHW4EAICommandType@@J@Z PROC ; CChartAddInBase133691::OnAddInToolCommand, COMDAT
; _this$ = ecx

; 194  : 	virtual BOOL	OnAddInToolCommand(	const EAICommandType p_eCommandID, const long p_lParam)													{	return FALSE;	}

  00000	33 c0		 xor	 eax, eax
  00002	c2 08 00	 ret	 8
?OnAddInToolCommand@CChartAddInBase133691@@MAEHW4EAICommandType@@J@Z ENDP ; CChartAddInBase133691::OnAddInToolCommand
_TEXT	ENDS
; Function compile flags: /Ogtp
; File D:\git\src\IBK\IBK_DRFN\ProjSrc\SrcChartEx\ChartAddIn\ChartPeriodSummaryAddIn\Include_AddIn\I133691\_ChartAddInBase.h
;	COMDAT ?OnAddInToolCommand@CChartAddInBase133691@@MAEHW4EAICommandType@@PBUIAddInDllBase@@@Z
_TEXT	SEGMENT
_p_eCommandID$ = 8					; size = 4
_p_pParam$ = 12						; size = 4
?OnAddInToolCommand@CChartAddInBase133691@@MAEHW4EAICommandType@@PBUIAddInDllBase@@@Z PROC ; CChartAddInBase133691::OnAddInToolCommand, COMDAT
; _this$ = ecx

; 193  : 	virtual BOOL	OnAddInToolCommand(	const EAICommandType p_eCommandID, const IAddInDllBase *p_pParam)										{	return FALSE;	}

  00000	33 c0		 xor	 eax, eax
  00002	c2 08 00	 ret	 8
?OnAddInToolCommand@CChartAddInBase133691@@MAEHW4EAICommandType@@PBUIAddInDllBase@@@Z ENDP ; CChartAddInBase133691::OnAddInToolCommand
_TEXT	ENDS
; Function compile flags: /Ogtp
; File D:\git\src\IBK\IBK_DRFN\ProjSrc\SrcChartEx\ChartAddIn\ChartPeriodSummaryAddIn\Include_AddIn\I133691\_ChartAddInBase.h
;	COMDAT ?OnAddInToolCommand@CChartAddInBase133691@@MAEHW4EAICommandType@@PBD1@Z
_TEXT	SEGMENT
_p_eCommandID$ = 8					; size = 4
_p_szParam1$ = 12					; size = 4
_p_szParam2$ = 16					; size = 4
?OnAddInToolCommand@CChartAddInBase133691@@MAEHW4EAICommandType@@PBD1@Z PROC ; CChartAddInBase133691::OnAddInToolCommand, COMDAT
; _this$ = ecx

; 191  : 	virtual BOOL	OnAddInToolCommand(	const EAICommandType p_eCommandID, const char *p_szParam1, const char *p_szParam2)						{	return FALSE;	}

  00000	33 c0		 xor	 eax, eax
  00002	c2 0c 00	 ret	 12			; 0000000cH
?OnAddInToolCommand@CChartAddInBase133691@@MAEHW4EAICommandType@@PBD1@Z ENDP ; CChartAddInBase133691::OnAddInToolCommand
_TEXT	ENDS
; Function compile flags: /Ogtp
; File D:\git\src\IBK\IBK_DRFN\ProjSrc\SrcChartEx\ChartAddIn\ChartPeriodSummaryAddIn\Include_AddIn\I133691\_ChartAddInBase.h
;	COMDAT ?OnAddInToolCommand@CChartAddInBase133691@@MAEHW4EAICommandType@@PBD@Z
_TEXT	SEGMENT
_p_eCommandID$ = 8					; size = 4
_p_szParam$ = 12					; size = 4
?OnAddInToolCommand@CChartAddInBase133691@@MAEHW4EAICommandType@@PBD@Z PROC ; CChartAddInBase133691::OnAddInToolCommand, COMDAT
; _this$ = ecx

; 190  : 	virtual BOOL	OnAddInToolCommand(	const EAICommandType p_eCommandID, const char *p_szParam)												{	return FALSE;	}

  00000	33 c0		 xor	 eax, eax
  00002	c2 08 00	 ret	 8
?OnAddInToolCommand@CChartAddInBase133691@@MAEHW4EAICommandType@@PBD@Z ENDP ; CChartAddInBase133691::OnAddInToolCommand
_TEXT	ENDS
; Function compile flags: /Ogtp
; File D:\git\src\IBK\IBK_DRFN\ProjSrc\SrcChartEx\ChartAddIn\ChartPeriodSummaryAddIn\Include_AddIn\I133691\_ChartAddInBase.h
;	COMDAT ?OnAddInToolCommand@CChartAddInBase133691@@MAEHW4EAICommandType@@PAUHDC__@@IAAUtagPOINT@@K@Z
_TEXT	SEGMENT
_p_eCommandID$ = 8					; size = 4
_p_hDC$ = 12						; size = 4
_nFlags$ = 16						; size = 4
_point$ = 20						; size = 4
_p_dwMouseActionID$ = 24				; size = 4
?OnAddInToolCommand@CChartAddInBase133691@@MAEHW4EAICommandType@@PAUHDC__@@IAAUtagPOINT@@K@Z PROC ; CChartAddInBase133691::OnAddInToolCommand, COMDAT
; _this$ = ecx

; 189  : 	virtual BOOL	OnAddInToolCommand(	const EAICommandType p_eCommandID, HDC p_hDC, UINT nFlags, POINT &point, const DWORD p_dwMouseActionID)	{	return FALSE;	}

  00000	33 c0		 xor	 eax, eax
  00002	c2 14 00	 ret	 20			; 00000014H
?OnAddInToolCommand@CChartAddInBase133691@@MAEHW4EAICommandType@@PAUHDC__@@IAAUtagPOINT@@K@Z ENDP ; CChartAddInBase133691::OnAddInToolCommand
_TEXT	ENDS
; Function compile flags: /Ogtp
; File D:\git\src\IBK\IBK_DRFN\ProjSrc\SrcChartEx\ChartAddIn\ChartPeriodSummaryAddIn\Include_AddIn\I133691\_ChartAddInBase.h
;	COMDAT ?OnAddInToolCommand@CChartAddInBase133691@@MAEHW4EAICommandType@@@Z
_TEXT	SEGMENT
_p_eCommandID$ = 8					; size = 4
?OnAddInToolCommand@CChartAddInBase133691@@MAEHW4EAICommandType@@@Z PROC ; CChartAddInBase133691::OnAddInToolCommand, COMDAT
; _this$ = ecx

; 188  : 	virtual BOOL	OnAddInToolCommand(	const EAICommandType p_eCommandID)																		{	return FALSE;	}

  00000	33 c0		 xor	 eax, eax
  00002	c2 04 00	 ret	 4
?OnAddInToolCommand@CChartAddInBase133691@@MAEHW4EAICommandType@@@Z ENDP ; CChartAddInBase133691::OnAddInToolCommand
_TEXT	ENDS
; Function compile flags: /Ogtp
; File D:\git\src\IBK\IBK_DRFN\ProjSrc\SrcChartEx\ChartAddIn\ChartPeriodSummaryAddIn\Include_AddIn\I133691\_ChartAddInBase.h
;	COMDAT ?OnAddInMsg@CChartAddInBase133691@@MAEHPBDJ@Z
_TEXT	SEGMENT
_p_szAddInItemName$ = 8					; size = 4
_p_lParam$ = 12						; size = 4
?OnAddInMsg@CChartAddInBase133691@@MAEHPBDJ@Z PROC	; CChartAddInBase133691::OnAddInMsg, COMDAT
; _this$ = ecx

; 187  : 	virtual BOOL	OnAddInMsg(			const char *p_szAddInItemName, const long p_lParam)														{	return FALSE;	}

  00000	33 c0		 xor	 eax, eax
  00002	c2 08 00	 ret	 8
?OnAddInMsg@CChartAddInBase133691@@MAEHPBDJ@Z ENDP	; CChartAddInBase133691::OnAddInMsg
_TEXT	ENDS
; Function compile flags: /Ogtp
; File D:\git\src\IBK\IBK_DRFN\ProjSrc\SrcChartEx\ChartAddIn\ChartPeriodSummaryAddIn\Include_AddIn\I133691\_ChartAddInBase.h
;	COMDAT ?OnPreRealPacketEnd@CChartAddInBase133691@@MAEHPBD@Z
_TEXT	SEGMENT
_p_szRQ$ = 8						; size = 4
?OnPreRealPacketEnd@CChartAddInBase133691@@MAEHPBD@Z PROC ; CChartAddInBase133691::OnPreRealPacketEnd, COMDAT
; _this$ = ecx

; 180  : 	virtual BOOL	OnPreRealPacketEnd( const char *p_szRQ = NULL)											{	return TRUE;	}

  00000	b8 01 00 00 00	 mov	 eax, 1
  00005	c2 04 00	 ret	 4
?OnPreRealPacketEnd@CChartAddInBase133691@@MAEHPBD@Z ENDP ; CChartAddInBase133691::OnPreRealPacketEnd
_TEXT	ENDS
; Function compile flags: /Ogtp
; File D:\git\src\IBK\IBK_DRFN\ProjSrc\SrcChartEx\ChartAddIn\ChartPeriodSummaryAddIn\Include_AddIn\I133691\_ChartAddInBase.h
;	COMDAT ?OnPreIndexedRealData@CChartAddInBase133691@@MAEHPBDHAAN@Z
_TEXT	SEGMENT
_p_szPacketName$ = 8					; size = 4
_p_nIndex$ = 12						; size = 4
_p_dData$ = 16						; size = 4
?OnPreIndexedRealData@CChartAddInBase133691@@MAEHPBDHAAN@Z PROC ; CChartAddInBase133691::OnPreIndexedRealData, COMDAT
; _this$ = ecx

; 179  : 	virtual BOOL	OnPreIndexedRealData( const char *p_szPacketName, const int p_nIndex, double &p_dData)	{	return TRUE;	}

  00000	b8 01 00 00 00	 mov	 eax, 1
  00005	c2 0c 00	 ret	 12			; 0000000cH
?OnPreIndexedRealData@CChartAddInBase133691@@MAEHPBDHAAN@Z ENDP ; CChartAddInBase133691::OnPreIndexedRealData
_TEXT	ENDS
; Function compile flags: /Ogtp
; File D:\git\src\IBK\IBK_DRFN\ProjSrc\SrcChartEx\ChartAddIn\ChartPeriodSummaryAddIn\Include_AddIn\I133691\_ChartAddInBase.h
;	COMDAT ?OnPreRealData@CChartAddInBase133691@@MAEHPBDAAN0@Z
_TEXT	SEGMENT
_p_szPacketName$ = 8					; size = 4
_p_dData$ = 12						; size = 4
_p_szRQ$ = 16						; size = 4
?OnPreRealData@CChartAddInBase133691@@MAEHPBDAAN0@Z PROC ; CChartAddInBase133691::OnPreRealData, COMDAT
; _this$ = ecx

; 178  : 	virtual BOOL	OnPreRealData( const char *p_szPacketName, double &p_dData, const char *p_szRQ = NULL)	{	return TRUE;	}

  00000	b8 01 00 00 00	 mov	 eax, 1
  00005	c2 0c 00	 ret	 12			; 0000000cH
?OnPreRealData@CChartAddInBase133691@@MAEHPBDAAN0@Z ENDP ; CChartAddInBase133691::OnPreRealData
_TEXT	ENDS
; Function compile flags: /Ogtp
; File D:\git\src\IBK\IBK_DRFN\ProjSrc\SrcChartEx\ChartAddIn\ChartPeriodSummaryAddIn\Include_AddIn\I133691\_ChartAddInBase.h
;	COMDAT ?OnRecalculationComplete@CChartAddInBase133691@@MAEXXZ
_TEXT	SEGMENT
?OnRecalculationComplete@CChartAddInBase133691@@MAEXXZ PROC ; CChartAddInBase133691::OnRecalculationComplete, COMDAT
; _this$ = ecx

; 174  : 	virtual void	OnRecalculationComplete( void)						{}

  00000	c2 00 00	 ret	 0
?OnRecalculationComplete@CChartAddInBase133691@@MAEXXZ ENDP ; CChartAddInBase133691::OnRecalculationComplete
_TEXT	ENDS
; Function compile flags: /Ogtp
; File D:\git\src\IBK\IBK_DRFN\ProjSrc\SrcChartEx\ChartAddIn\ChartPeriodSummaryAddIn\Include_AddIn\I133691\_ChartAddInBase.h
;	COMDAT ?OnRealPacketEnd@CChartAddInBase133691@@MAEXPBD@Z
_TEXT	SEGMENT
_p_szRQ$ = 8						; size = 4
?OnRealPacketEnd@CChartAddInBase133691@@MAEXPBD@Z PROC	; CChartAddInBase133691::OnRealPacketEnd, COMDAT
; _this$ = ecx

; 167  : 	virtual void	OnRealPacketEnd( const char *p_szRQ)								{}

  00000	c2 04 00	 ret	 4
?OnRealPacketEnd@CChartAddInBase133691@@MAEXPBD@Z ENDP	; CChartAddInBase133691::OnRealPacketEnd
_TEXT	ENDS
; Function compile flags: /Ogtp
; File D:\git\src\IBK\IBK_DRFN\ProjSrc\SrcChartEx\ChartAddIn\ChartPeriodSummaryAddIn\Include_AddIn\I133691\_ChartAddInBase.h
;	COMDAT ?OnIndexedRealData@CChartAddInBase133691@@MAEXPBDHN@Z
_TEXT	SEGMENT
_p_szPacketName$ = 8					; size = 4
_p_nIndex$ = 12						; size = 4
_p_dData$ = 16						; size = 8
?OnIndexedRealData@CChartAddInBase133691@@MAEXPBDHN@Z PROC ; CChartAddInBase133691::OnIndexedRealData, COMDAT
; _this$ = ecx

; 165  : 	virtual void	OnIndexedRealData( const char *p_szPacketName, const int p_nIndex, double p_dData)		{}

  00000	c2 10 00	 ret	 16			; 00000010H
?OnIndexedRealData@CChartAddInBase133691@@MAEXPBDHN@Z ENDP ; CChartAddInBase133691::OnIndexedRealData
_TEXT	ENDS
; Function compile flags: /Ogtp
; File D:\git\src\IBK\IBK_DRFN\ProjSrc\SrcChartEx\ChartAddIn\ChartPeriodSummaryAddIn\Include_AddIn\I133691\_ChartAddInBase.h
;	COMDAT ?OnRealData@CChartAddInBase133691@@MAEXPBDN0@Z
_TEXT	SEGMENT
_p_szPacketName$ = 8					; size = 4
_p_dData$ = 12						; size = 8
_p_szRQ$ = 20						; size = 4
?OnRealData@CChartAddInBase133691@@MAEXPBDN0@Z PROC	; CChartAddInBase133691::OnRealData, COMDAT
; _this$ = ecx

; 164  : 	virtual void	OnRealData( const char *p_szPacketName, double p_dData, const char *p_szRQ)			{}

  00000	c2 10 00	 ret	 16			; 00000010H
?OnRealData@CChartAddInBase133691@@MAEXPBDN0@Z ENDP	; CChartAddInBase133691::OnRealData
_TEXT	ENDS
; Function compile flags: /Ogtp
; File D:\git\src\IBK\IBK_DRFN\ProjSrc\SrcChartEx\ChartAddIn\ChartPeriodSummaryAddIn\Include_AddIn\I133691\_ChartAddInBase.h
;	COMDAT ?OnBlockChanged@CChartAddInBase133691@@MAEXW4BLOCKBEHAVIOR@CBlockBaseData@@HHHH@Z
_TEXT	SEGMENT
_p_eChangeType$ = 8					; size = 4
_p_nSourceRow$ = 12					; size = 4
_p_nSourceColumn$ = 16					; size = 4
_p_nTargetRow$ = 20					; size = 4
_p_nTargetColumn$ = 24					; size = 4
?OnBlockChanged@CChartAddInBase133691@@MAEXW4BLOCKBEHAVIOR@CBlockBaseData@@HHHH@Z PROC ; CChartAddInBase133691::OnBlockChanged, COMDAT
; _this$ = ecx

; 160  : 	virtual void	OnBlockChanged( const CBlockBaseData::BLOCKBEHAVIOR p_eChangeType, const int p_nSourceRow, const int p_nSourceColumn, const int p_nTargetRow, const int p_nTargetColumn)	{}

  00000	c2 14 00	 ret	 20			; 00000014H
?OnBlockChanged@CChartAddInBase133691@@MAEXW4BLOCKBEHAVIOR@CBlockBaseData@@HHHH@Z ENDP ; CChartAddInBase133691::OnBlockChanged
_TEXT	ENDS
; Function compile flags: /Ogtp
; File D:\git\src\IBK\IBK_DRFN\ProjSrc\SrcChartEx\ChartAddIn\ChartPeriodSummaryAddIn\Include_AddIn\I133691\_ChartAddInBase.h
;	COMDAT ?OnPacketTruncated@CChartAddInBase133691@@MAEXH@Z
_TEXT	SEGMENT
_p_nDataCount$ = 8					; size = 4
?OnPacketTruncated@CChartAddInBase133691@@MAEXH@Z PROC	; CChartAddInBase133691::OnPacketTruncated, COMDAT
; _this$ = ecx

; 158  : 	virtual void	OnPacketTruncated( const int p_nDataCount)			{}

  00000	c2 04 00	 ret	 4
?OnPacketTruncated@CChartAddInBase133691@@MAEXH@Z ENDP	; CChartAddInBase133691::OnPacketTruncated
_TEXT	ENDS
; Function compile flags: /Ogtp
; File D:\git\src\IBK\IBK_DRFN\ProjSrc\SrcChartEx\ChartAddIn\ChartPeriodSummaryAddIn\Include_AddIn\I133691\_ChartAddInBase.h
;	COMDAT ?OnGraphDeleted@CChartAddInBase133691@@MAEXPBD0@Z
_TEXT	SEGMENT
_p_szGraphName$ = 8					; size = 4
_p_szIndicatorName$ = 12				; size = 4
?OnGraphDeleted@CChartAddInBase133691@@MAEXPBD0@Z PROC	; CChartAddInBase133691::OnGraphDeleted, COMDAT
; _this$ = ecx

; 156  : 	virtual void	OnGraphDeleted( const char *p_szGraphName, const char *p_szIndicatorName)			{}

  00000	c2 08 00	 ret	 8
?OnGraphDeleted@CChartAddInBase133691@@MAEXPBD0@Z ENDP	; CChartAddInBase133691::OnGraphDeleted
_TEXT	ENDS
; Function compile flags: /Ogtp
; File D:\git\src\IBK\IBK_DRFN\ProjSrc\SrcChartEx\ChartAddIn\ChartPeriodSummaryAddIn\Include_AddIn\I133691\_ChartAddInBase.h
;	COMDAT ?OnContextMenu@CChartAddInBase133691@@MAEXPAUHWND__@@AAUtagPOINT@@@Z
_TEXT	SEGMENT
_p_hWnd$ = 8						; size = 4
_p_pt$ = 12						; size = 4
?OnContextMenu@CChartAddInBase133691@@MAEXPAUHWND__@@AAUtagPOINT@@@Z PROC ; CChartAddInBase133691::OnContextMenu, COMDAT
; _this$ = ecx

; 154  : 	virtual void	OnContextMenu( HWND p_hWnd, POINT &p_pt)			{}

  00000	c2 08 00	 ret	 8
?OnContextMenu@CChartAddInBase133691@@MAEXPAUHWND__@@AAUtagPOINT@@@Z ENDP ; CChartAddInBase133691::OnContextMenu
_TEXT	ENDS
; Function compile flags: /Ogtp
; File D:\git\src\IBK\IBK_DRFN\ProjSrc\SrcChartEx\ChartAddIn\ChartPeriodSummaryAddIn\Include_AddIn\I133691\_ChartAddInBase.h
;	COMDAT ?OnManualRealData@CChartAddInBase133691@@MAEXPBDNH@Z
_TEXT	SEGMENT
_p_szPacketName$ = 8					; size = 4
_p_dData$ = 12						; size = 8
_p_nOption$ = 20					; size = 4
?OnManualRealData@CChartAddInBase133691@@MAEXPBDNH@Z PROC ; CChartAddInBase133691::OnManualRealData, COMDAT
; _this$ = ecx

; 152  : 	virtual void	OnManualRealData( const char *p_szPacketName, const double p_dData, const int p_nOption)	{}

  00000	c2 10 00	 ret	 16			; 00000010H
?OnManualRealData@CChartAddInBase133691@@MAEXPBDNH@Z ENDP ; CChartAddInBase133691::OnManualRealData
_TEXT	ENDS
; Function compile flags: /Ogtp
; File D:\git\src\IBK\IBK_DRFN\ProjSrc\SrcChartEx\ChartAddIn\ChartPeriodSummaryAddIn\Include_AddIn\I133691\_ChartAddInBase.h
;	COMDAT ?OnGraphAdded@CChartAddInBase133691@@MAEXPBD0@Z
_TEXT	SEGMENT
_p_szGraphName$ = 8					; size = 4
_p_szIndicatorName$ = 12				; size = 4
?OnGraphAdded@CChartAddInBase133691@@MAEXPBD0@Z PROC	; CChartAddInBase133691::OnGraphAdded, COMDAT
; _this$ = ecx

; 150  : 	virtual void	OnGraphAdded( const char *p_szGraphName, const char *p_szIndicatorName)			{}

  00000	c2 08 00	 ret	 8
?OnGraphAdded@CChartAddInBase133691@@MAEXPBD0@Z ENDP	; CChartAddInBase133691::OnGraphAdded
_TEXT	ENDS
; Function compile flags: /Ogtp
; File D:\git\src\IBK\IBK_DRFN\ProjSrc\SrcChartEx\ChartAddIn\ChartPeriodSummaryAddIn\Include_AddIn\I133691\_ChartAddInBase.h
;	COMDAT ?OnBlockRemoved@CChartAddInBase133691@@MAEXHH@Z
_TEXT	SEGMENT
_p_nRow$ = 8						; size = 4
_p_nColumn$ = 12					; size = 4
?OnBlockRemoved@CChartAddInBase133691@@MAEXHH@Z PROC	; CChartAddInBase133691::OnBlockRemoved, COMDAT
; _this$ = ecx

; 148  : 	virtual void	OnBlockRemoved( const int p_nRow, const int p_nColumn)	{}

  00000	c2 08 00	 ret	 8
?OnBlockRemoved@CChartAddInBase133691@@MAEXHH@Z ENDP	; CChartAddInBase133691::OnBlockRemoved
_TEXT	ENDS
; Function compile flags: /Ogtp
; File D:\git\src\IBK\IBK_DRFN\ProjSrc\SrcChartEx\ChartAddIn\ChartPeriodSummaryAddIn\Include_AddIn\I133691\_ChartAddInBase.h
;	COMDAT ?OnGraphDataChanged@CChartAddInBase133691@@MAEXXZ
_TEXT	SEGMENT
?OnGraphDataChanged@CChartAddInBase133691@@MAEXXZ PROC	; CChartAddInBase133691::OnGraphDataChanged, COMDAT
; _this$ = ecx

; 146  : 	virtual void	OnGraphDataChanged( void)							{}

  00000	c2 00 00	 ret	 0
?OnGraphDataChanged@CChartAddInBase133691@@MAEXXZ ENDP	; CChartAddInBase133691::OnGraphDataChanged
_TEXT	ENDS
; Function compile flags: /Ogtp
; File D:\git\src\IBK\IBK_DRFN\ProjSrc\SrcChartEx\ChartAddIn\ChartPeriodSummaryAddIn\Include_AddIn\I133691\_ChartAddInBase.h
;	COMDAT ?OnChartItemChanged@CChartAddInBase133691@@MAEXXZ
_TEXT	SEGMENT
?OnChartItemChanged@CChartAddInBase133691@@MAEXXZ PROC	; CChartAddInBase133691::OnChartItemChanged, COMDAT
; _this$ = ecx

; 144  : 	virtual void	OnChartItemChanged( void)							{}

  00000	c2 00 00	 ret	 0
?OnChartItemChanged@CChartAddInBase133691@@MAEXXZ ENDP	; CChartAddInBase133691::OnChartItemChanged
_TEXT	ENDS
; Function compile flags: /Ogtp
; File D:\git\src\IBK\IBK_DRFN\ProjSrc\SrcChartEx\ChartAddIn\ChartPeriodSummaryAddIn\Include_AddIn\I133691\_ChartAddInBase.h
;	COMDAT ?OnUserIndiatorConditionLoaded@CChartAddInBase133691@@MAEXXZ
_TEXT	SEGMENT
?OnUserIndiatorConditionLoaded@CChartAddInBase133691@@MAEXXZ PROC ; CChartAddInBase133691::OnUserIndiatorConditionLoaded, COMDAT
; _this$ = ecx

; 142  : 	virtual void	OnUserIndiatorConditionLoaded( void)				{}

  00000	c2 00 00	 ret	 0
?OnUserIndiatorConditionLoaded@CChartAddInBase133691@@MAEXXZ ENDP ; CChartAddInBase133691::OnUserIndiatorConditionLoaded
_TEXT	ENDS
; Function compile flags: /Ogtp
; File D:\git\src\IBK\IBK_DRFN\ProjSrc\SrcChartEx\ChartAddIn\ChartPeriodSummaryAddIn\Include_AddIn\I133691\_ChartAddInBase.h
;	COMDAT ?OnResetMainBlock@CChartAddInBase133691@@MAEXXZ
_TEXT	SEGMENT
?OnResetMainBlock@CChartAddInBase133691@@MAEXXZ PROC	; CChartAddInBase133691::OnResetMainBlock, COMDAT
; _this$ = ecx

; 140  : 	virtual void	OnResetMainBlock( void)								{}

  00000	c2 00 00	 ret	 0
?OnResetMainBlock@CChartAddInBase133691@@MAEXXZ ENDP	; CChartAddInBase133691::OnResetMainBlock
_TEXT	ENDS
; Function compile flags: /Ogtp
; File D:\git\src\IBK\IBK_DRFN\ProjSrc\SrcChartEx\ChartAddIn\ChartPeriodSummaryAddIn\Include_AddIn\I133691\_ChartAddInBase.h
;	COMDAT ?OnTimer@CChartAddInBase133691@@MAEXI@Z
_TEXT	SEGMENT
_p_uTimerID$ = 8					; size = 4
?OnTimer@CChartAddInBase133691@@MAEXI@Z PROC		; CChartAddInBase133691::OnTimer, COMDAT
; _this$ = ecx

; 133  : 	virtual void	OnTimer( UINT p_uTimerID)	{}

  00000	c2 04 00	 ret	 4
?OnTimer@CChartAddInBase133691@@MAEXI@Z ENDP		; CChartAddInBase133691::OnTimer
_TEXT	ENDS
; Function compile flags: /Ogtp
; File D:\git\src\IBK\IBK_DRFN\ProjSrc\SrcChartEx\ChartAddIn\ChartPeriodSummaryAddIn\Include_AddIn\I133691\_ChartAddInBase.h
;	COMDAT ?OnLSharedDataChange@CChartAddInBase133691@@MAEXPBD0@Z
_TEXT	SEGMENT
_p_szLShareKey$ = 8					; size = 4
_p_szLShareValue$ = 12					; size = 4
?OnLSharedDataChange@CChartAddInBase133691@@MAEXPBD0@Z PROC ; CChartAddInBase133691::OnLSharedDataChange, COMDAT
; _this$ = ecx

; 123  : 	virtual void	OnLSharedDataChange( const char *p_szLShareKey, const char *p_szLShareValue)	{}

  00000	c2 08 00	 ret	 8
?OnLSharedDataChange@CChartAddInBase133691@@MAEXPBD0@Z ENDP ; CChartAddInBase133691::OnLSharedDataChange
_TEXT	ENDS
; Function compile flags: /Ogtp
; File D:\git\src\IBK\IBK_DRFN\ProjSrc\SrcChartEx\ChartAddIn\ChartPeriodSummaryAddIn\Include_AddIn\I133691\_ChartAddInBase.h
;	COMDAT ?OnGSharedDataChange@CChartAddInBase133691@@MAEXPBD0H@Z
_TEXT	SEGMENT
_p_szGShareKey$ = 8					; size = 4
_p_szGShareValue$ = 12					; size = 4
_p_bStartShare$ = 16					; size = 4
?OnGSharedDataChange@CChartAddInBase133691@@MAEXPBD0H@Z PROC ; CChartAddInBase133691::OnGSharedDataChange, COMDAT
; _this$ = ecx

; 121  : 	virtual void	OnGSharedDataChange( const char *p_szGShareKey, const char *p_szGShareValue, BOOL p_bStartShare)	{}

  00000	c2 0c 00	 ret	 12			; 0000000cH
?OnGSharedDataChange@CChartAddInBase133691@@MAEXPBD0H@Z ENDP ; CChartAddInBase133691::OnGSharedDataChange
_TEXT	ENDS
; Function compile flags: /Ogtp
; File D:\git\src\IBK\IBK_DRFN\ProjSrc\SrcChartEx\ChartAddIn\ChartPeriodSummaryAddIn\Include_AddIn\I133691\_ChartAddInBase.h
;	COMDAT ?OnOcxDestroyWindow@CChartAddInBase133691@@MAEXXZ
_TEXT	SEGMENT
?OnOcxDestroyWindow@CChartAddInBase133691@@MAEXXZ PROC	; CChartAddInBase133691::OnOcxDestroyWindow, COMDAT
; _this$ = ecx

; 111  : 	virtual void	OnOcxDestroyWindow( void)							{	m_bOcxDestroyed = TRUE;	}

  00000	c7 41 34 01 00
	00 00		 mov	 DWORD PTR [ecx+52], 1
  00007	c3		 ret	 0
?OnOcxDestroyWindow@CChartAddInBase133691@@MAEXXZ ENDP	; CChartAddInBase133691::OnOcxDestroyWindow
_TEXT	ENDS
; Function compile flags: /Ogtp
; File D:\git\src\IBK\IBK_DRFN\ProjSrc\SrcChartEx\ChartAddIn\ChartPeriodSummaryAddIn\Include_AddIn\I133691\_ChartAddInBase.h
;	COMDAT ?InvokeAddInStr@CChartAddInBase133691@@MAEHPBD0@Z
_TEXT	SEGMENT
_p_szCommandName$ = 8					; size = 4
_p_szData$ = 12						; size = 4
?InvokeAddInStr@CChartAddInBase133691@@MAEHPBD0@Z PROC	; CChartAddInBase133691::InvokeAddInStr, COMDAT
; _this$ = ecx

; 96   : 	virtual BOOL	InvokeAddInStr( LPCTSTR p_szCommandName, LPCTSTR p_szData)	{	return FALSE;	}	// (2005/9/2 - Seung-Won, Bae) for String Data

  00000	33 c0		 xor	 eax, eax
  00002	c2 08 00	 ret	 8
?InvokeAddInStr@CChartAddInBase133691@@MAEHPBD0@Z ENDP	; CChartAddInBase133691::InvokeAddInStr
_TEXT	ENDS
; Function compile flags: /Ogtp
; File D:\git\src\IBK\IBK_DRFN\ProjSrc\SrcChartEx\ChartAddIn\ChartPeriodSummaryAddIn\Include_AddIn\I133691\_ChartAddInBase.h
;	COMDAT ?GetAddInCustomInterface@CChartAddInBase133691@@MAEPAUIUnknown@@XZ
_TEXT	SEGMENT
?GetAddInCustomInterface@CChartAddInBase133691@@MAEPAUIUnknown@@XZ PROC ; CChartAddInBase133691::GetAddInCustomInterface, COMDAT
; _this$ = ecx

; 91   : 	virtual IUnknown *	GetAddInCustomInterface( void)				{	return NULL;	}

  00000	33 c0		 xor	 eax, eax
  00002	c3		 ret	 0
?GetAddInCustomInterface@CChartAddInBase133691@@MAEPAUIUnknown@@XZ ENDP ; CChartAddInBase133691::GetAddInCustomInterface
_TEXT	ENDS
; Function compile flags: /Ogtp
; File D:\git\src\IBK\IBK_DRFN\ProjSrc\SrcChartEx\ChartAddIn\ChartPeriodSummaryAddIn\Include_AddIn\I133691\_ChartAddInBase.h
;	COMDAT ?QueryInterface@CChartAddInBase133691@@MAGJABU_GUID@@PAPAX@Z
_TEXT	SEGMENT
_this$ = 8						; size = 4
_iid$ = 12						; size = 4
_ppvObject$ = 16					; size = 4
?QueryInterface@CChartAddInBase133691@@MAGJABU_GUID@@PAPAX@Z PROC ; CChartAddInBase133691::QueryInterface, COMDAT

; 54   : 	_IWRAPPER_IUNKNOWN_INTERFACE()

  00000	b8 02 40 00 80	 mov	 eax, -2147467262	; 80004002H
  00005	c2 0c 00	 ret	 12			; 0000000cH
?QueryInterface@CChartAddInBase133691@@MAGJABU_GUID@@PAPAX@Z ENDP ; CChartAddInBase133691::QueryInterface
_TEXT	ENDS
; Function compile flags: /Ogtp
; File D:\git\src\IBK\IBK_DRFN\ProjSrc\SrcChartEx\ChartAddIn\ChartPeriodSummaryAddIn\Include_AddIn\I133691\_ChartAddInBase.h
;	COMDAT ?Release@CChartAddInBase133691@@MAGKXZ
_TEXT	SEGMENT
_this$ = 8						; size = 4
?Release@CChartAddInBase133691@@MAGKXZ PROC		; CChartAddInBase133691::Release, COMDAT

; 54   : 	_IWRAPPER_IUNKNOWN_INTERFACE()

  00000	55		 push	 ebp
  00001	8b ec		 mov	 ebp, esp
  00003	5d		 pop	 ebp
  00004	e9 00 00 00 00	 jmp	 ?Release@CIWUnknown@@MAGKXZ ; CIWUnknown::Release
?Release@CChartAddInBase133691@@MAGKXZ ENDP		; CChartAddInBase133691::Release
_TEXT	ENDS
; Function compile flags: /Ogtp
; File D:\git\src\IBK\IBK_DRFN\ProjSrc\SrcChartEx\ChartAddIn\ChartPeriodSummaryAddIn\Include_AddIn\I133691\_ChartAddInBase.h
;	COMDAT ?AddRef@CChartAddInBase133691@@MAGKXZ
_TEXT	SEGMENT
_this$ = 8						; size = 4
?AddRef@CChartAddInBase133691@@MAGKXZ PROC		; CChartAddInBase133691::AddRef, COMDAT

; 54   : 	_IWRAPPER_IUNKNOWN_INTERFACE()

  00000	55		 push	 ebp
  00001	8b ec		 mov	 ebp, esp
  00003	5d		 pop	 ebp
  00004	e9 00 00 00 00	 jmp	 ?AddRef@CIWUnknown@@MAGKXZ ; CIWUnknown::AddRef
?AddRef@CChartAddInBase133691@@MAGKXZ ENDP		; CChartAddInBase133691::AddRef
_TEXT	ENDS
; Function compile flags: /Ogtp
; File D:\git\src\IBK\IBK_DRFN\ProjSrc\SrcChartEx\ChartAddIn\ChartPeriodSummaryAddIn\Include_AddIn\_IWUnknown.h
;	COMDAT ?PreDestruct@CIWUnknown@@MAEXXZ
_TEXT	SEGMENT
?PreDestruct@CIWUnknown@@MAEXXZ PROC			; CIWUnknown::PreDestruct, COMDAT
; _this$ = ecx

; 48   : 	virtual void	PreDestruct( void)		{}

  00000	c2 00 00	 ret	 0
?PreDestruct@CIWUnknown@@MAEXXZ ENDP			; CIWUnknown::PreDestruct
_TEXT	ENDS
; Function compile flags: /Ogtp
; File D:\git\src\IBK\IBK_DRFN\ProjSrc\SrcChartEx\ChartAddIn\ChartPeriodSummaryAddIn\Include_AddIn\_IWUnknown.h
;	COMDAT ?PreDestructX@CIWUnknown@@MAEXXZ
_TEXT	SEGMENT
?PreDestructX@CIWUnknown@@MAEXXZ PROC			; CIWUnknown::PreDestructX, COMDAT
; _this$ = ecx

; 47   : 	virtual void	PreDestructX( void)		{}

  00000	c2 00 00	 ret	 0
?PreDestructX@CIWUnknown@@MAEXXZ ENDP			; CIWUnknown::PreDestructX
_TEXT	ENDS
; Function compile flags: /Ogtp
; File D:\git\src\IBK\IBK_DRFN\ProjSrc\SrcChartEx\ChartAddIn\ChartPeriodSummaryAddIn\Include_AddIn\_IWUnknown.h
;	COMDAT ?PostConstruct@CIWUnknown@@MAEXXZ
_TEXT	SEGMENT
?PostConstruct@CIWUnknown@@MAEXXZ PROC			; CIWUnknown::PostConstruct, COMDAT
; _this$ = ecx

; 46   : 	virtual void	PostConstruct( void)	{}

  00000	c2 00 00	 ret	 0
?PostConstruct@CIWUnknown@@MAEXXZ ENDP			; CIWUnknown::PostConstruct
_TEXT	ENDS
; Function compile flags: /Ogtp
; File C:\Program Files (x86)\Microsoft Visual Studio\2019\Community\VC\Tools\MSVC\14.29.30133\atlmfc\include\afxwin1.inl
; File C:\Program Files (x86)\Microsoft Visual Studio\2019\Community\VC\Tools\MSVC\14.29.30133\atlmfc\include\afx.inl
;	COMDAT ??_GCMenu@@UAEPAXI@Z
_TEXT	SEGMENT
__$EHRec$ = -12						; size = 12
___flags$ = 8						; size = 4
??_GCMenu@@UAEPAXI@Z PROC				; CMenu::`scalar deleting destructor', COMDAT
; _this$ = ecx
  00000	55		 push	 ebp
  00001	8b ec		 mov	 ebp, esp
  00003	6a ff		 push	 -1
  00005	68 00 00 00 00	 push	 __ehhandler$??_GCMenu@@UAEPAXI@Z
  0000a	64 a1 00 00 00
	00		 mov	 eax, DWORD PTR fs:0
  00010	50		 push	 eax
  00011	56		 push	 esi
  00012	a1 00 00 00 00	 mov	 eax, DWORD PTR ___security_cookie
  00017	33 c5		 xor	 eax, ebp
  00019	50		 push	 eax
  0001a	8d 45 f4	 lea	 eax, DWORD PTR __$EHRec$[ebp]
  0001d	64 a3 00 00 00
	00		 mov	 DWORD PTR fs:0, eax
  00023	8b f1		 mov	 esi, ecx
; File C:\Program Files (x86)\Microsoft Visual Studio\2019\Community\VC\Tools\MSVC\14.29.30133\atlmfc\include\afxwin1.inl

; 905  : 	{ DestroyMenu(); }

  00025	c7 45 fc 00 00
	00 00		 mov	 DWORD PTR __$EHRec$[ebp+8], 0
  0002c	c7 06 00 00 00
	00		 mov	 DWORD PTR [esi], OFFSET ??_7CMenu@@6B@
  00032	e8 00 00 00 00	 call	 ?DestroyMenu@CMenu@@QAEHXZ ; CMenu::DestroyMenu
  00037	8b 45 08	 mov	 eax, DWORD PTR ___flags$[ebp]
  0003a	a8 01		 test	 al, 1
  0003c	74 2c		 je	 SHORT $LN12@scalar
  0003e	a8 04		 test	 al, 4
  00040	75 1d		 jne	 SHORT $LN3@scalar
; File C:\Program Files (x86)\Microsoft Visual Studio\2019\Community\VC\Tools\MSVC\14.29.30133\atlmfc\include\afx.inl

; 112  : 	{ ::operator delete(p); }

  00042	56		 push	 esi
  00043	e8 00 00 00 00	 call	 ??3@YAXPAX@Z		; operator delete
  00048	83 c4 04	 add	 esp, 4
  0004b	8b c6		 mov	 eax, esi
  0004d	8b 4d f4	 mov	 ecx, DWORD PTR __$EHRec$[ebp]
  00050	64 89 0d 00 00
	00 00		 mov	 DWORD PTR fs:0, ecx
  00057	59		 pop	 ecx
  00058	5e		 pop	 esi
  00059	8b e5		 mov	 esp, ebp
  0005b	5d		 pop	 ebp
  0005c	c2 04 00	 ret	 4
$LN3@scalar:
  0005f	6a 08		 push	 8
  00061	56		 push	 esi
  00062	e8 00 00 00 00	 call	 ?__global_delete@@YAXPAXI@Z ; __global_delete
  00067	83 c4 08	 add	 esp, 8
$LN12@scalar:
  0006a	8b c6		 mov	 eax, esi
  0006c	8b 4d f4	 mov	 ecx, DWORD PTR __$EHRec$[ebp]
  0006f	64 89 0d 00 00
	00 00		 mov	 DWORD PTR fs:0, ecx
  00076	59		 pop	 ecx
  00077	5e		 pop	 esi
  00078	8b e5		 mov	 esp, ebp
  0007a	5d		 pop	 ebp
  0007b	c2 04 00	 ret	 4
  0007e	cc		 int	 3
  0007f	cc		 int	 3
  00080	cc		 int	 3
  00081	cc		 int	 3
  00082	cc		 int	 3
_TEXT	ENDS
;	COMDAT text$x
text$x	SEGMENT
__ehhandler$??_GCMenu@@UAEPAXI@Z:
  00000	90		 npad	 1
  00001	90		 npad	 1
  00002	8b 54 24 08	 mov	 edx, DWORD PTR [esp+8]
  00006	8d 42 0c	 lea	 eax, DWORD PTR [edx+12]
  00009	8b 4a f8	 mov	 ecx, DWORD PTR [edx-8]
  0000c	33 c8		 xor	 ecx, eax
  0000e	e8 00 00 00 00	 call	 @__security_check_cookie@4
  00013	b8 00 00 00 00	 mov	 eax, OFFSET __ehfuncinfo$??_GCMenu@@UAEPAXI@Z
  00018	e9 00 00 00 00	 jmp	 ___CxxFrameHandler3
text$x	ENDS
??_GCMenu@@UAEPAXI@Z ENDP				; CMenu::`scalar deleting destructor'
; Function compile flags: /Ogtp
; File C:\Program Files (x86)\Microsoft Visual Studio\2019\Community\VC\Tools\MSVC\14.29.30133\atlmfc\include\afxwin1.inl
;	COMDAT ??1CMenu@@UAE@XZ
_TEXT	SEGMENT
__$EHRec$ = -12						; size = 12
??1CMenu@@UAE@XZ PROC					; CMenu::~CMenu, COMDAT
; _this$ = ecx

; 905  : 	{ DestroyMenu(); }

  00000	55		 push	 ebp
  00001	8b ec		 mov	 ebp, esp
  00003	6a ff		 push	 -1
  00005	68 00 00 00 00	 push	 __ehhandler$??1CMenu@@UAE@XZ
  0000a	64 a1 00 00 00
	00		 mov	 eax, DWORD PTR fs:0
  00010	50		 push	 eax
  00011	a1 00 00 00 00	 mov	 eax, DWORD PTR ___security_cookie
  00016	33 c5		 xor	 eax, ebp
  00018	50		 push	 eax
  00019	8d 45 f4	 lea	 eax, DWORD PTR __$EHRec$[ebp]
  0001c	64 a3 00 00 00
	00		 mov	 DWORD PTR fs:0, eax
  00022	c7 01 00 00 00
	00		 mov	 DWORD PTR [ecx], OFFSET ??_7CMenu@@6B@
  00028	e8 00 00 00 00	 call	 ?DestroyMenu@CMenu@@QAEHXZ ; CMenu::DestroyMenu
  0002d	8b 4d f4	 mov	 ecx, DWORD PTR __$EHRec$[ebp]
  00030	64 89 0d 00 00
	00 00		 mov	 DWORD PTR fs:0, ecx
  00037	59		 pop	 ecx
  00038	8b e5		 mov	 esp, ebp
  0003a	5d		 pop	 ebp
  0003b	c3		 ret	 0
  0003c	cc		 int	 3
  0003d	cc		 int	 3
  0003e	cc		 int	 3
  0003f	cc		 int	 3
  00040	cc		 int	 3
_TEXT	ENDS
;	COMDAT text$x
text$x	SEGMENT
__ehhandler$??1CMenu@@UAE@XZ:
  00000	90		 npad	 1
  00001	90		 npad	 1
  00002	8b 54 24 08	 mov	 edx, DWORD PTR [esp+8]
  00006	8d 42 0c	 lea	 eax, DWORD PTR [edx+12]
  00009	8b 4a fc	 mov	 ecx, DWORD PTR [edx-4]
  0000c	33 c8		 xor	 ecx, eax
  0000e	e8 00 00 00 00	 call	 @__security_check_cookie@4
  00013	b8 00 00 00 00	 mov	 eax, OFFSET __ehfuncinfo$??1CMenu@@UAE@XZ
  00018	e9 00 00 00 00	 jmp	 ___CxxFrameHandler3
text$x	ENDS
??1CMenu@@UAE@XZ ENDP					; CMenu::~CMenu
; Function compile flags: /Ogtp
; File C:\Program Files (x86)\Microsoft Visual Studio\2019\Community\VC\Tools\MSVC\14.29.30133\atlmfc\include\afxwin1.inl
; File C:\Program Files (x86)\Microsoft Visual Studio\2019\Community\VC\Tools\MSVC\14.29.30133\atlmfc\include\afx.inl
;	COMDAT ??_GCRgn@@UAEPAXI@Z
_TEXT	SEGMENT
___flags$ = 8						; size = 4
??_GCRgn@@UAEPAXI@Z PROC				; CRgn::`scalar deleting destructor', COMDAT
; _this$ = ecx
  00000	55		 push	 ebp
  00001	8b ec		 mov	 ebp, esp
; File C:\Program Files (x86)\Microsoft Visual Studio\2019\Community\VC\Tools\MSVC\14.29.30133\atlmfc\include\afxwin1.inl

; 266  : 	{ }

  00003	56		 push	 esi
  00004	8b f1		 mov	 esi, ecx
  00006	c7 06 00 00 00
	00		 mov	 DWORD PTR [esi], OFFSET ??_7CRgn@@6B@
  0000c	e8 00 00 00 00	 call	 ??1CGdiObject@@UAE@XZ	; CGdiObject::~CGdiObject
  00011	8b 45 08	 mov	 eax, DWORD PTR ___flags$[ebp]
  00014	a8 01		 test	 al, 1
  00016	74 1f		 je	 SHORT $LN12@scalar
  00018	a8 04		 test	 al, 4
  0001a	75 10		 jne	 SHORT $LN3@scalar
; File C:\Program Files (x86)\Microsoft Visual Studio\2019\Community\VC\Tools\MSVC\14.29.30133\atlmfc\include\afx.inl

; 112  : 	{ ::operator delete(p); }

  0001c	56		 push	 esi
  0001d	e8 00 00 00 00	 call	 ??3@YAXPAX@Z		; operator delete
  00022	83 c4 04	 add	 esp, 4
  00025	8b c6		 mov	 eax, esi
  00027	5e		 pop	 esi
  00028	5d		 pop	 ebp
  00029	c2 04 00	 ret	 4
$LN3@scalar:
  0002c	6a 08		 push	 8
  0002e	56		 push	 esi
  0002f	e8 00 00 00 00	 call	 ?__global_delete@@YAXPAXI@Z ; __global_delete
  00034	83 c4 08	 add	 esp, 8
$LN12@scalar:
  00037	8b c6		 mov	 eax, esi
  00039	5e		 pop	 esi
  0003a	5d		 pop	 ebp
  0003b	c2 04 00	 ret	 4
??_GCRgn@@UAEPAXI@Z ENDP				; CRgn::`scalar deleting destructor'
_TEXT	ENDS
; Function compile flags: /Ogtp
; File C:\Program Files (x86)\Microsoft Visual Studio\2019\Community\VC\Tools\MSVC\14.29.30133\atlmfc\include\afxwin1.inl
;	COMDAT ??1CRgn@@UAE@XZ
_TEXT	SEGMENT
??1CRgn@@UAE@XZ PROC					; CRgn::~CRgn, COMDAT
; _this$ = ecx

; 266  : 	{ }

  00000	c7 01 00 00 00
	00		 mov	 DWORD PTR [ecx], OFFSET ??_7CRgn@@6B@
  00006	e9 00 00 00 00	 jmp	 ??1CGdiObject@@UAE@XZ	; CGdiObject::~CGdiObject
??1CRgn@@UAE@XZ ENDP					; CRgn::~CRgn
_TEXT	ENDS
; Function compile flags: /Ogtp
; File C:\Program Files (x86)\Microsoft Visual Studio\2019\Community\VC\Tools\MSVC\14.29.30133\atlmfc\include\afx.inl
;	COMDAT ??_GCGdiObject@@UAEPAXI@Z
_TEXT	SEGMENT
___flags$ = 8						; size = 4
??_GCGdiObject@@UAEPAXI@Z PROC				; CGdiObject::`scalar deleting destructor', COMDAT
; _this$ = ecx
  00000	55		 push	 ebp
  00001	8b ec		 mov	 ebp, esp
  00003	56		 push	 esi
  00004	8b f1		 mov	 esi, ecx
  00006	e8 00 00 00 00	 call	 ??1CGdiObject@@UAE@XZ	; CGdiObject::~CGdiObject
  0000b	8b 45 08	 mov	 eax, DWORD PTR ___flags$[ebp]
  0000e	a8 01		 test	 al, 1
  00010	74 1f		 je	 SHORT $LN9@scalar
  00012	a8 04		 test	 al, 4
  00014	75 10		 jne	 SHORT $LN3@scalar

; 112  : 	{ ::operator delete(p); }

  00016	56		 push	 esi
  00017	e8 00 00 00 00	 call	 ??3@YAXPAX@Z		; operator delete
  0001c	83 c4 04	 add	 esp, 4
  0001f	8b c6		 mov	 eax, esi
  00021	5e		 pop	 esi
  00022	5d		 pop	 ebp
  00023	c2 04 00	 ret	 4
$LN3@scalar:
  00026	6a 08		 push	 8
  00028	56		 push	 esi
  00029	e8 00 00 00 00	 call	 ?__global_delete@@YAXPAXI@Z ; __global_delete
  0002e	83 c4 08	 add	 esp, 8
$LN9@scalar:
  00031	8b c6		 mov	 eax, esi
  00033	5e		 pop	 esi
  00034	5d		 pop	 ebp
  00035	c2 04 00	 ret	 4
??_GCGdiObject@@UAEPAXI@Z ENDP				; CGdiObject::`scalar deleting destructor'
_TEXT	ENDS
; Function compile flags: /Ogtp
; File C:\Program Files (x86)\Microsoft Visual Studio\2019\Community\VC\Tools\MSVC\14.29.30133\atlmfc\include\afxwin1.inl
;	COMDAT ??1CGdiObject@@UAE@XZ
_TEXT	SEGMENT
_pException$2 = -540					; size = 4
_strMsg$3 = -536					; size = 4
_szErrorMessage$4 = -532				; size = 512
__$ArrayPad$ = -20					; size = 4
__$EHRec$ = -16						; size = 16
??1CGdiObject@@UAE@XZ PROC				; CGdiObject::~CGdiObject, COMDAT
; _this$ = ecx

; 74   : {

  00000	55		 push	 ebp
  00001	8b ec		 mov	 ebp, esp
  00003	6a ff		 push	 -1
  00005	68 00 00 00 00	 push	 __ehhandler$??1CGdiObject@@UAE@XZ
  0000a	64 a1 00 00 00
	00		 mov	 eax, DWORD PTR fs:0
  00010	50		 push	 eax
  00011	81 ec 10 02 00
	00		 sub	 esp, 528		; 00000210H
  00017	a1 00 00 00 00	 mov	 eax, DWORD PTR ___security_cookie
  0001c	33 c5		 xor	 eax, ebp
  0001e	89 45 ec	 mov	 DWORD PTR __$ArrayPad$[ebp], eax
  00021	53		 push	 ebx
  00022	56		 push	 esi
  00023	57		 push	 edi
  00024	50		 push	 eax
  00025	8d 45 f4	 lea	 eax, DWORD PTR __$EHRec$[ebp+4]
  00028	64 a3 00 00 00
	00		 mov	 DWORD PTR fs:0, eax
  0002e	89 65 f0	 mov	 DWORD PTR __$EHRec$[ebp], esp
  00031	c7 01 00 00 00
	00		 mov	 DWORD PTR [ecx], OFFSET ??_7CGdiObject@@6B@

; 75   : 	AFX_BEGIN_DESTRUCTOR

  00037	c7 45 fc 00 00
	00 00		 mov	 DWORD PTR __$EHRec$[ebp+12], 0

; 76   : 	DeleteObject();

  0003e	e8 00 00 00 00	 call	 ?DeleteObject@CGdiObject@@QAEHXZ ; CGdiObject::DeleteObject
$LN18@CGdiObject:

; 78   : }

  00043	8b 4d f4	 mov	 ecx, DWORD PTR __$EHRec$[ebp+4]
  00046	64 89 0d 00 00
	00 00		 mov	 DWORD PTR fs:0, ecx
  0004d	59		 pop	 ecx
  0004e	5f		 pop	 edi
  0004f	5e		 pop	 esi
  00050	5b		 pop	 ebx
  00051	8b 4d ec	 mov	 ecx, DWORD PTR __$ArrayPad$[ebp]
  00054	33 cd		 xor	 ecx, ebp
  00056	e8 00 00 00 00	 call	 @__security_check_cookie@4
  0005b	8b e5		 mov	 esp, ebp
  0005d	5d		 pop	 ebp
  0005e	c3		 ret	 0
__catch$??1CGdiObject@@UAE@XZ$0:

; 77   : 	AFX_END_DESTRUCTOR

  0005f	8d 8d e8 fd ff
	ff		 lea	 ecx, DWORD PTR _strMsg$3[ebp]
  00065	ff 15 00 00 00
	00		 call	 DWORD PTR __imp_??0?$CStringT@DV?$StrTraitMFC_DLL@DV?$ChTraitsCRT@D@ATL@@@@@ATL@@QAE@XZ
  0006b	8b b5 e4 fd ff
	ff		 mov	 esi, DWORD PTR _pException$2[ebp]
  00071	8d 8d ec fd ff
	ff		 lea	 ecx, DWORD PTR _szErrorMessage$4[ebp]
  00077	6a 00		 push	 0
  00079	68 00 02 00 00	 push	 512			; 00000200H
  0007e	51		 push	 ecx
  0007f	8b 06		 mov	 eax, DWORD PTR [esi]
  00081	8b ce		 mov	 ecx, esi
  00083	c6 45 fc 02	 mov	 BYTE PTR __$EHRec$[ebp+12], 2
  00087	ff 50 14	 call	 DWORD PTR [eax+20]
  0008a	85 c0		 test	 eax, eax
  0008c	74 2a		 je	 SHORT $LN9@CGdiObject
  0008e	8d 85 ec fd ff
	ff		 lea	 eax, DWORD PTR _szErrorMessage$4[ebp]
  00094	50		 push	 eax
  00095	6a 4d		 push	 77			; 0000004dH
  00097	68 00 00 00 00	 push	 OFFSET ??_C@_0HD@JJCHHHNK@C?3?2Program?5Files?5?$CIx86?$CJ?2Microsof@
  0009c	68 00 00 00 00	 push	 OFFSET ??_C@_0BP@OIEOKIDM@Exception?5thrown?5in?5destructor@
  000a1	8d 85 e8 fd ff
	ff		 lea	 eax, DWORD PTR _strMsg$3[ebp]
  000a7	68 00 00 00 00	 push	 OFFSET ??_C@_0BB@HBOOMJBF@?$CFTs?5?$CI?$CFTs?3?$CFd?$CJ?6?$CFTs@
  000ac	50		 push	 eax
  000ad	ff 15 00 00 00
	00		 call	 DWORD PTR __imp_?Format@?$CStringT@DV?$StrTraitMFC_DLL@DV?$ChTraitsCRT@D@ATL@@@@@ATL@@QAAXPBDZZ
  000b3	83 c4 18	 add	 esp, 24			; 00000018H
  000b6	eb 21		 jmp	 SHORT $LN10@CGdiObject
$LN9@CGdiObject:
  000b8	6a 4d		 push	 77			; 0000004dH
  000ba	68 00 00 00 00	 push	 OFFSET ??_C@_0HD@JJCHHHNK@C?3?2Program?5Files?5?$CIx86?$CJ?2Microsof@
  000bf	68 00 00 00 00	 push	 OFFSET ??_C@_0BP@OIEOKIDM@Exception?5thrown?5in?5destructor@
  000c4	8d 85 e8 fd ff
	ff		 lea	 eax, DWORD PTR _strMsg$3[ebp]
  000ca	68 00 00 00 00	 push	 OFFSET ??_C@_0N@OMEMOKLE@?$CFTs?5?$CI?$CFTs?3?$CFd?$CJ@
  000cf	50		 push	 eax
  000d0	ff 15 00 00 00
	00		 call	 DWORD PTR __imp_?Format@?$CStringT@DV?$StrTraitMFC_DLL@DV?$ChTraitsCRT@D@ATL@@@@@ATL@@QAAXPBDZZ
  000d6	83 c4 14	 add	 esp, 20			; 00000014H
$LN10@CGdiObject:
  000d9	6a 00		 push	 0
  000db	6a 00		 push	 0
  000dd	ff b5 e8 fd ff
	ff		 push	 DWORD PTR _strMsg$3[ebp]
  000e3	e8 00 00 00 00	 call	 ?AfxMessageBox@@YGHPBDII@Z ; AfxMessageBox
  000e8	8d 8d e8 fd ff
	ff		 lea	 ecx, DWORD PTR _strMsg$3[ebp]
  000ee	ff 15 00 00 00
	00		 call	 DWORD PTR __imp_??1?$CStringT@DV?$StrTraitMFC_DLL@DV?$ChTraitsCRT@D@ATL@@@@@ATL@@QAE@XZ
  000f4	8b 06		 mov	 eax, DWORD PTR [esi]
  000f6	8b ce		 mov	 ecx, esi
  000f8	6a 01		 push	 1
  000fa	ff 50 04	 call	 DWORD PTR [eax+4]
  000fd	b8 00 00 00 00	 mov	 eax, $LN18@CGdiObject
  00102	c3		 ret	 0
_TEXT	ENDS
;	COMDAT text$x
text$x	SEGMENT
__unwindfunclet$??1CGdiObject@@UAE@XZ$2:
  00000	8d 8d e8 fd ff
	ff		 lea	 ecx, DWORD PTR _strMsg$3[ebp]
  00006	ff 25 00 00 00
	00		 jmp	 DWORD PTR __imp_??1?$CStringT@DV?$StrTraitMFC_DLL@DV?$ChTraitsCRT@D@ATL@@@@@ATL@@QAE@XZ
  0000c	cc		 int	 3
  0000d	cc		 int	 3
  0000e	cc		 int	 3
  0000f	cc		 int	 3
  00010	cc		 int	 3
__ehhandler$??1CGdiObject@@UAE@XZ:
  00011	90		 npad	 1
  00012	90		 npad	 1
  00013	8b 54 24 08	 mov	 edx, DWORD PTR [esp+8]
  00017	8d 42 0c	 lea	 eax, DWORD PTR [edx+12]
  0001a	8b 8a e0 fd ff
	ff		 mov	 ecx, DWORD PTR [edx-544]
  00020	33 c8		 xor	 ecx, eax
  00022	e8 00 00 00 00	 call	 @__security_check_cookie@4
  00027	8b 4a f8	 mov	 ecx, DWORD PTR [edx-8]
  0002a	33 c8		 xor	 ecx, eax
  0002c	e8 00 00 00 00	 call	 @__security_check_cookie@4
  00031	b8 00 00 00 00	 mov	 eax, OFFSET __ehfuncinfo$??1CGdiObject@@UAE@XZ
  00036	e9 00 00 00 00	 jmp	 ___CxxFrameHandler3
text$x	ENDS
??1CGdiObject@@UAE@XZ ENDP				; CGdiObject::~CGdiObject
; Function compile flags: /Ogtp
; File C:\Program Files (x86)\Microsoft Visual Studio\2019\Community\VC\Tools\MSVC\14.29.30133\atlmfc\include\afx.inl
;	COMDAT ?Dump@CObject@@UBEXAAVCDumpContext@@@Z
_TEXT	SEGMENT
___formal$ = 8						; size = 4
?Dump@CObject@@UBEXAAVCDumpContext@@@Z PROC		; CObject::Dump, COMDAT
; _this$ = ecx

; 122  : 	{ /* no dumping in release builds */ }

  00000	c2 04 00	 ret	 4
?Dump@CObject@@UBEXAAVCDumpContext@@@Z ENDP		; CObject::Dump
_TEXT	ENDS
; Function compile flags: /Ogtp
; File C:\Program Files (x86)\Microsoft Visual Studio\2019\Community\VC\Tools\MSVC\14.29.30133\atlmfc\include\afx.inl
;	COMDAT ?AssertValid@CObject@@UBEXXZ
_TEXT	SEGMENT
?AssertValid@CObject@@UBEXXZ PROC			; CObject::AssertValid, COMDAT
; _this$ = ecx

; 120  : 	{ /* no asserts in release builds */ }

  00000	c2 00 00	 ret	 0
?AssertValid@CObject@@UBEXXZ ENDP			; CObject::AssertValid
_TEXT	ENDS
; Function compile flags: /Ogtp
; File C:\Program Files (x86)\Microsoft Visual Studio\2019\Community\VC\Tools\MSVC\14.29.30133\atlmfc\include\afx.inl
;	COMDAT ?Serialize@CObject@@UAEXAAVCArchive@@@Z
_TEXT	SEGMENT
___formal$ = 8						; size = 4
?Serialize@CObject@@UAEXAAVCArchive@@@Z PROC		; CObject::Serialize, COMDAT
; _this$ = ecx

; 106  : 	{ /* CObject does not serialize anything by default */ }

  00000	c2 04 00	 ret	 4
?Serialize@CObject@@UAEXAAVCArchive@@@Z ENDP		; CObject::Serialize
_TEXT	ENDS
; Function compile flags: /Ogtp
; File C:\Program Files (x86)\Microsoft Visual Studio\2019\Community\VC\Tools\MSVC\14.29.30133\atlmfc\include\afx.inl
;	COMDAT ??3CObject@@SGXPAX@Z
_TEXT	SEGMENT
_p$ = 8							; size = 4
??3CObject@@SGXPAX@Z PROC				; CObject::operator delete, COMDAT

; 112  : 	{ ::operator delete(p); }

  00000	55		 push	 ebp
  00001	8b ec		 mov	 ebp, esp
  00003	ff 75 08	 push	 DWORD PTR _p$[ebp]
  00006	e8 00 00 00 00	 call	 ??3@YAXPAX@Z		; operator delete
  0000b	83 c4 04	 add	 esp, 4
  0000e	5d		 pop	 ebp
  0000f	c2 04 00	 ret	 4
??3CObject@@SGXPAX@Z ENDP				; CObject::operator delete
_TEXT	ENDS
; Function compile flags: /Ogtp
; File C:\Program Files (x86)\Microsoft Visual Studio\2019\Community\VC\Tools\MSVC\14.29.30133\atlmfc\include\afx.inl
;	COMDAT ??1CObject@@UAE@XZ
_TEXT	SEGMENT
??1CObject@@UAE@XZ PROC					; CObject::~CObject, COMDAT
; _this$ = ecx

; 104  : 	{ }

  00000	c2 00 00	 ret	 0
??1CObject@@UAE@XZ ENDP					; CObject::~CObject
_TEXT	ENDS
; Function compile flags: /Ogtp
; File D:\git\src\IBK\IBK_DRFN\ProjSrc\SrcChartEx\ChartAddIn\ChartPeriodSummaryAddIn\ChartPeriodSummaryAddInImp.cpp
;	COMDAT ?__empty_global_delete@@YAXPAXI@Z
_TEXT	SEGMENT
___formal$ = 8						; size = 4
___formal$ = 12						; size = 4
?__empty_global_delete@@YAXPAXI@Z PROC			; __empty_global_delete, COMDAT

  00000	c2 00 00	 ret	 0
?__empty_global_delete@@YAXPAXI@Z ENDP			; __empty_global_delete
_TEXT	ENDS
; Function compile flags: /Ogtp
; File D:\git\src\IBK\IBK_DRFN\ProjSrc\SrcChartEx\ChartAddIn\ChartPeriodSummaryAddIn\ChartPeriodSummaryAddInImp.cpp
;	COMDAT ?__empty_global_delete@@YAXPAX@Z
_TEXT	SEGMENT
___formal$ = 8						; size = 4
?__empty_global_delete@@YAXPAX@Z PROC			; __empty_global_delete, COMDAT

  00000	c2 00 00	 ret	 0
?__empty_global_delete@@YAXPAX@Z ENDP			; __empty_global_delete
_TEXT	ENDS
END
