; Listing generated by Microsoft (R) Optimizing Compiler Version 19.29.30145.0 

	TITLE	D:\git\src\IBK\IBK_DRFN\#DRfn-CS\_Obj\ChartPeriodSummaryAddIn\ChartDragCandleAnalAddInImp.obj
	.686P
	.XMM
	include listing.inc
	.model	flat

INCLUDELIB MSVCRT
INCLUDELIB OLDNAMES

PUBLIC	?m_eRegisteredEventMap@CChartDragCandleAnalAddInImp@@1QBW4EAddInEventType@IChartAddIn133691@@B ; CChartDragCandleAnalAddInImp::m_eRegisteredEventMap
PUBLIC	??_C@_0BC@MMPGLPDH@RMS_ANALYSIS_FUNC@		; `string'
PUBLIC	??_C@_0BB@NLAKPGPO@DRAG_CANDLE_ANAL@		; `string'
;	COMDAT ??_C@_0BB@NLAKPGPO@DRAG_CANDLE_ANAL@
CONST	SEGMENT
??_C@_0BB@NLAKPGPO@DRAG_CANDLE_ANAL@ DB 'DRAG_CANDLE_ANAL', 00H ; `string'
CONST	ENDS
;	COMDAT ??_C@_0BC@MMPGLPDH@RMS_ANALYSIS_FUNC@
CONST	SEGMENT
??_C@_0BC@MMPGLPDH@RMS_ANALYSIS_FUNC@ DB 'RMS_ANALYSIS_FUNC', 00H ; `string'
CONST	ENDS
CONST	SEGMENT
?m_eRegisteredEventMap@CChartDragCandleAnalAddInImp@@1QBW4EAddInEventType@IChartAddIn133691@@B DD 014H ; CChartDragCandleAnalAddInImp::m_eRegisteredEventMap
	DD	035H
	DD	01dH
	DD	01aH
	DD	01bH
	DD	037H
	DD	022H
	DD	03bH
	ORG $+208
CONST	ENDS
PUBLIC	?__empty_global_delete@@YAXPAX@Z		; __empty_global_delete
PUBLIC	?__empty_global_delete@@YAXPAXI@Z		; __empty_global_delete
PUBLIC	??1CObject@@UAE@XZ				; CObject::~CObject
PUBLIC	?Serialize@CObject@@UAEXAAVCArchive@@@Z		; CObject::Serialize
PUBLIC	?AssertValid@CObject@@UBEXXZ			; CObject::AssertValid
PUBLIC	?Dump@CObject@@UBEXAAVCDumpContext@@@Z		; CObject::Dump
PUBLIC	?_AfxInitManaged@@YAHXZ				; _AfxInitManaged
PUBLIC	??1CGdiObject@@UAE@XZ				; CGdiObject::~CGdiObject
PUBLIC	??_GCGdiObject@@UAEPAXI@Z			; CGdiObject::`scalar deleting destructor'
PUBLIC	??1CBitmap@@UAE@XZ				; CBitmap::~CBitmap
PUBLIC	??_GCBitmap@@UAEPAXI@Z				; CBitmap::`scalar deleting destructor'
PUBLIC	??1CRgn@@UAE@XZ					; CRgn::~CRgn
PUBLIC	??_GCRgn@@UAEPAXI@Z				; CRgn::`scalar deleting destructor'
PUBLIC	?PostConstruct@CIWUnknown@@MAEXXZ		; CIWUnknown::PostConstruct
PUBLIC	?PreDestructX@CIWUnknown@@MAEXXZ		; CIWUnknown::PreDestructX
PUBLIC	?PreDestruct@CIWUnknown@@MAEXXZ			; CIWUnknown::PreDestruct
PUBLIC	?AddRef@CChartAddInBase133691@@MAGKXZ		; CChartAddInBase133691::AddRef
PUBLIC	?Release@CChartAddInBase133691@@MAGKXZ		; CChartAddInBase133691::Release
PUBLIC	?QueryInterface@CChartAddInBase133691@@MAGJABU_GUID@@PAPAX@Z ; CChartAddInBase133691::QueryInterface
PUBLIC	?GetAddInCustomInterface@CChartAddInBase133691@@MAEPAUIUnknown@@XZ ; CChartAddInBase133691::GetAddInCustomInterface
PUBLIC	?InvokeAddIn@CChartAddInBase133691@@MAEHHJ@Z	; CChartAddInBase133691::InvokeAddIn
PUBLIC	?OnOcxDestroyWindow@CChartAddInBase133691@@MAEXXZ ; CChartAddInBase133691::OnOcxDestroyWindow
PUBLIC	?OnGSharedDataChange@CChartAddInBase133691@@MAEXPBD0H@Z ; CChartAddInBase133691::OnGSharedDataChange
PUBLIC	?OnLSharedDataChange@CChartAddInBase133691@@MAEXPBD0@Z ; CChartAddInBase133691::OnLSharedDataChange
PUBLIC	?OnDrawBeforeGraph@CChartAddInBase133691@@MAEXPAUHDC__@@@Z ; CChartAddInBase133691::OnDrawBeforeGraph
PUBLIC	?OnTimer@CChartAddInBase133691@@MAEXI@Z		; CChartAddInBase133691::OnTimer
PUBLIC	?OnCaptureChanged@CChartAddInBase133691@@MAEXPAUHWND__@@QAUHBITMAP__@@@Z ; CChartAddInBase133691::OnCaptureChanged
PUBLIC	?OnResetMainBlock@CChartAddInBase133691@@MAEXXZ	; CChartAddInBase133691::OnResetMainBlock
PUBLIC	?OnUserIndiatorConditionLoaded@CChartAddInBase133691@@MAEXXZ ; CChartAddInBase133691::OnUserIndiatorConditionLoaded
PUBLIC	?OnChartItemChanged@CChartAddInBase133691@@MAEXXZ ; CChartAddInBase133691::OnChartItemChanged
PUBLIC	?OnGraphDataChanged@CChartAddInBase133691@@MAEXXZ ; CChartAddInBase133691::OnGraphDataChanged
PUBLIC	?OnBlockRemoved@CChartAddInBase133691@@MAEXHH@Z	; CChartAddInBase133691::OnBlockRemoved
PUBLIC	?OnGraphAdded@CChartAddInBase133691@@MAEXPBD0@Z	; CChartAddInBase133691::OnGraphAdded
PUBLIC	?OnManualRealData@CChartAddInBase133691@@MAEXPBDNH@Z ; CChartAddInBase133691::OnManualRealData
PUBLIC	?OnContextMenu@CChartAddInBase133691@@MAEXPAUHWND__@@AAUtagPOINT@@@Z ; CChartAddInBase133691::OnContextMenu
PUBLIC	?OnGraphDeleted@CChartAddInBase133691@@MAEXPBD0@Z ; CChartAddInBase133691::OnGraphDeleted
PUBLIC	?OnPacketTruncated@CChartAddInBase133691@@MAEXH@Z ; CChartAddInBase133691::OnPacketTruncated
PUBLIC	?OnBlockChanged@CChartAddInBase133691@@MAEXW4BLOCKBEHAVIOR@CBlockBaseData@@HHHH@Z ; CChartAddInBase133691::OnBlockChanged
PUBLIC	?OnToolCommand@CChartAddInBase133691@@MAEXHH@Z	; CChartAddInBase133691::OnToolCommand
PUBLIC	?OnRealData@CChartAddInBase133691@@MAEXPBDN0@Z	; CChartAddInBase133691::OnRealData
PUBLIC	?OnIndexedRealData@CChartAddInBase133691@@MAEXPBDHN@Z ; CChartAddInBase133691::OnIndexedRealData
PUBLIC	?OnRealPacketEnd@CChartAddInBase133691@@MAEXPBD@Z ; CChartAddInBase133691::OnRealPacketEnd
PUBLIC	?OnLoadEnvironment@CChartAddInBase133691@@MAEXPAUIPropertyMap@@@Z ; CChartAddInBase133691::OnLoadEnvironment
PUBLIC	?OnSaveEnvironment@CChartAddInBase133691@@MAEXPAUIPropertyMap@@@Z ; CChartAddInBase133691::OnSaveEnvironment
PUBLIC	?OnRecalculationComplete@CChartAddInBase133691@@MAEXXZ ; CChartAddInBase133691::OnRecalculationComplete
PUBLIC	?OnPreRealData@CChartAddInBase133691@@MAEHPBDAAN0@Z ; CChartAddInBase133691::OnPreRealData
PUBLIC	?OnPreIndexedRealData@CChartAddInBase133691@@MAEHPBDHAAN@Z ; CChartAddInBase133691::OnPreIndexedRealData
PUBLIC	?OnPreRealPacketEnd@CChartAddInBase133691@@MAEHPBD@Z ; CChartAddInBase133691::OnPreRealPacketEnd
PUBLIC	?OnCmdMsg@CChartAddInBase133691@@MAEHIHPAUICmdUI133691@@@Z ; CChartAddInBase133691::OnCmdMsg
PUBLIC	?OnAddInMsg@CChartAddInBase133691@@MAEHPBDJ@Z	; CChartAddInBase133691::OnAddInMsg
PUBLIC	?OnAddInToolCommand@CChartAddInBase133691@@MAEHW4EAICommandType@@@Z ; CChartAddInBase133691::OnAddInToolCommand
PUBLIC	?OnAddInToolCommand@CChartAddInBase133691@@MAEHW4EAICommandType@@PAUHDC__@@IAAUtagPOINT@@K@Z ; CChartAddInBase133691::OnAddInToolCommand
PUBLIC	?OnAddInToolCommand@CChartAddInBase133691@@MAEHW4EAICommandType@@PBD@Z ; CChartAddInBase133691::OnAddInToolCommand
PUBLIC	?OnAddInToolCommand@CChartAddInBase133691@@MAEHW4EAICommandType@@PBD1@Z ; CChartAddInBase133691::OnAddInToolCommand
PUBLIC	?OnAddInToolCommand@CChartAddInBase133691@@MAEHW4EAICommandType@@PBDJ@Z ; CChartAddInBase133691::OnAddInToolCommand
PUBLIC	?OnAddInToolCommand@CChartAddInBase133691@@MAEHW4EAICommandType@@PBUIAddInDllBase@@@Z ; CChartAddInBase133691::OnAddInToolCommand
PUBLIC	?OnAddInToolCommand@CChartAddInBase133691@@MAEHW4EAICommandType@@J@Z ; CChartAddInBase133691::OnAddInToolCommand
PUBLIC	?OnAddInToolCommand@CChartAddInBase133691@@MAEHW4EAICommandType@@JPBD@Z ; CChartAddInBase133691::OnAddInToolCommand
PUBLIC	?OnAddInToolCommand@CChartAddInBase133691@@MAEHW4EAICommandType@@JPBD11@Z ; CChartAddInBase133691::OnAddInToolCommand
PUBLIC	?OnAddInToolCommand@CChartAddInBase133691@@MAEHW4EAICommandType@@JJ@Z ; CChartAddInBase133691::OnAddInToolCommand
PUBLIC	?OnAddInToolCommand@CChartAddInBase133691@@MAEHW4EAICommandType@@JJJJJJJJJ@Z ; CChartAddInBase133691::OnAddInToolCommand
PUBLIC	?OnAddInToolCommand@CChartAddInBase133691@@MAEHAAJW4EAICommandType@@@Z ; CChartAddInBase133691::OnAddInToolCommand
PUBLIC	?OnAddInToolCommand@CChartAddInBase133691@@MAEHAAJW4EAICommandType@@PAUIGraphInfo133691@@@Z ; CChartAddInBase133691::OnAddInToolCommand
PUBLIC	?OnAddInToolCommand@CChartAddInBase133691@@MAEHAAJW4EAICommandType@@PBD@Z ; CChartAddInBase133691::OnAddInToolCommand
PUBLIC	?OnAddInToolCommand@CChartAddInBase133691@@MAEHAAJW4EAICommandType@@PBDPAVCObject@@@Z ; CChartAddInBase133691::OnAddInToolCommand
PUBLIC	?OnAddInToolCommand@CChartAddInBase133691@@MAEHAAJW4EAICommandType@@J@Z ; CChartAddInBase133691::OnAddInToolCommand
PUBLIC	?OnAddInToolCommand@CChartAddInBase133691@@MAEHAAJW4EAICommandType@@JJ@Z ; CChartAddInBase133691::OnAddInToolCommand
PUBLIC	?OnKeyDown@CChartAddInBase133691@@MAEHIII@Z	; CChartAddInBase133691::OnKeyDown
PUBLIC	?OnKeyUp@CChartAddInBase133691@@MAEHIII@Z	; CChartAddInBase133691::OnKeyUp
PUBLIC	?OnMouseWheel@CChartAddInBase133691@@MAEHIFUtagPOINT@@K@Z ; CChartAddInBase133691::OnMouseWheel
PUBLIC	?OnLButtonDblClk@CChartAddInBase133691@@MAEHPAUHDC__@@IAAUtagPOINT@@K@Z ; CChartAddInBase133691::OnLButtonDblClk
PUBLIC	?OnRButtonDown@CChartAddInBase133691@@MAEHPAUHDC__@@IAAUtagPOINT@@K@Z ; CChartAddInBase133691::OnRButtonDown
PUBLIC	?OnRButtonUp@CChartAddInBase133691@@MAEHPAUHDC__@@IAAUtagPOINT@@K@Z ; CChartAddInBase133691::OnRButtonUp
PUBLIC	?OnRButtonDblClk@CChartAddInBase133691@@MAEHPAUHDC__@@IAAUtagPOINT@@K@Z ; CChartAddInBase133691::OnRButtonDblClk
PUBLIC	??1ILPCSTR133691@@QAE@XZ			; ILPCSTR133691::~ILPCSTR133691
PUBLIC	??0CChartDragCandleAnalAddInImp@@QAE@PAUIChartOCX133691@@PAUIAddInDllBase@@@Z ; CChartDragCandleAnalAddInImp::CChartDragCandleAnalAddInImp
PUBLIC	??1CChartDragCandleAnalAddInImp@@UAE@XZ		; CChartDragCandleAnalAddInImp::~CChartDragCandleAnalAddInImp
PUBLIC	?GetRegisteredEventMap@CChartDragCandleAnalAddInImp@@MBEPBW4EAddInEventType@IChartAddIn133691@@XZ ; CChartDragCandleAnalAddInImp::GetRegisteredEventMap
PUBLIC	?InvokeAddInStr@CChartDragCandleAnalAddInImp@@UAEHPBD0@Z ; CChartDragCandleAnalAddInImp::InvokeAddInStr
PUBLIC	?DrawDragRect@CChartDragCandleAnalAddInImp@@IAE?AVCRect@@PAVCDC@@VCPoint@@1H@Z ; CChartDragCandleAnalAddInImp::DrawDragRect
PUBLIC	?DrawCursor@CChartDragCandleAnalAddInImp@@MAE?AUtagRECT@@PAUHDC__@@@Z ; CChartDragCandleAnalAddInImp::DrawCursor
PUBLIC	?OnDrawAfterGraph@CChartDragCandleAnalAddInImp@@MAEXPAUHDC__@@@Z ; CChartDragCandleAnalAddInImp::OnDrawAfterGraph
PUBLIC	?OnMouseMove@CChartDragCandleAnalAddInImp@@MAEHPAUHDC__@@IAAUtagPOINT@@KQAUHBITMAP__@@@Z ; CChartDragCandleAnalAddInImp::OnMouseMove
PUBLIC	?OnLButtonDown@CChartDragCandleAnalAddInImp@@MAEHPAUHDC__@@IAAUtagPOINT@@K@Z ; CChartDragCandleAnalAddInImp::OnLButtonDown
PUBLIC	?OnLButtonUp@CChartDragCandleAnalAddInImp@@MAEHPAUHDC__@@IAAUtagPOINT@@K@Z ; CChartDragCandleAnalAddInImp::OnLButtonUp
PUBLIC	?OnPacketDataMultiItem@CChartDragCandleAnalAddInImp@@MAEXPBD0H@Z ; CChartDragCandleAnalAddInImp::OnPacketDataMultiItem
PUBLIC	?OnResetChart@CChartDragCandleAnalAddInImp@@MAEXXZ ; CChartDragCandleAnalAddInImp::OnResetChart
PUBLIC	?DrawFill@CChartDragCandleAnalAddInImp@@IAE?AVCRect@@PAVCDC@@ABVCPoint@@1ABV2@@Z ; CChartDragCandleAnalAddInImp::DrawFill
PUBLIC	?SelectClipRegion@CChartDragCandleAnalAddInImp@@IAEXPAVCDC@@ABVCRect@@@Z ; CChartDragCandleAnalAddInImp::SelectClipRegion
PUBLIC	?SelectClipRegion@CChartDragCandleAnalAddInImp@@IAEXPAVCDC@@@Z ; CChartDragCandleAnalAddInImp::SelectClipRegion
PUBLIC	?GetChartBasicData@CChartDragCandleAnalAddInImp@@IAEHAAH000AAVCRect@@1@Z ; CChartDragCandleAnalAddInImp::GetChartBasicData
PUBLIC	?GetIndexFromPoint@CChartDragCandleAnalAddInImp@@IAEHHHHVCRect@@@Z ; CChartDragCandleAnalAddInImp::GetIndexFromPoint
PUBLIC	?GetIndexFromValue@CChartDragCandleAnalAddInImp@@IAEHV?$CStringT@DV?$StrTraitMFC_DLL@DV?$ChTraitsCRT@D@ATL@@@@@ATL@@HH@Z ; CChartDragCandleAnalAddInImp::GetIndexFromValue
PUBLIC	?GetXPositoin@CChartDragCandleAnalAddInImp@@IAEHNNVCRect@@@Z ; CChartDragCandleAnalAddInImp::GetXPositoin
PUBLIC	??0?$CList@V?$CStringT@DV?$StrTraitMFC_DLL@DV?$ChTraitsCRT@D@ATL@@@@@ATL@@AAV12@@@QAE@H@Z ; CList<ATL::CStringT<char,StrTraitMFC_DLL<char,ATL::ChTraitsCRT<char> > >,ATL::CStringT<char,StrTraitMFC_DLL<char,ATL::ChTraitsCRT<char> > > &>::CList<ATL::CStringT<char,StrTraitMFC_DLL<char,ATL::ChTraitsCRT<char> > >,ATL::CStringT<char,StrTraitMFC_DLL<char,ATL::ChTraitsCRT<char> > > &>
PUBLIC	?AddTail@?$CList@V?$CStringT@DV?$StrTraitMFC_DLL@DV?$ChTraitsCRT@D@ATL@@@@@ATL@@AAV12@@@QAEPAU__POSITION@@AAV?$CStringT@DV?$StrTraitMFC_DLL@DV?$ChTraitsCRT@D@ATL@@@@@ATL@@@Z ; CList<ATL::CStringT<char,StrTraitMFC_DLL<char,ATL::ChTraitsCRT<char> > >,ATL::CStringT<char,StrTraitMFC_DLL<char,ATL::ChTraitsCRT<char> > > &>::AddTail
PUBLIC	?RemoveAll@?$CList@V?$CStringT@DV?$StrTraitMFC_DLL@DV?$ChTraitsCRT@D@ATL@@@@@ATL@@AAV12@@@QAEXXZ ; CList<ATL::CStringT<char,StrTraitMFC_DLL<char,ATL::ChTraitsCRT<char> > >,ATL::CStringT<char,StrTraitMFC_DLL<char,ATL::ChTraitsCRT<char> > > &>::RemoveAll
PUBLIC	?NewNode@?$CList@V?$CStringT@DV?$StrTraitMFC_DLL@DV?$ChTraitsCRT@D@ATL@@@@@ATL@@AAV12@@@IAEPAUCNode@1@PAU21@0@Z ; CList<ATL::CStringT<char,StrTraitMFC_DLL<char,ATL::ChTraitsCRT<char> > >,ATL::CStringT<char,StrTraitMFC_DLL<char,ATL::ChTraitsCRT<char> > > &>::NewNode
PUBLIC	??1?$CList@V?$CStringT@DV?$StrTraitMFC_DLL@DV?$ChTraitsCRT@D@ATL@@@@@ATL@@AAV12@@@UAE@XZ ; CList<ATL::CStringT<char,StrTraitMFC_DLL<char,ATL::ChTraitsCRT<char> > >,ATL::CStringT<char,StrTraitMFC_DLL<char,ATL::ChTraitsCRT<char> > > &>::~CList<ATL::CStringT<char,StrTraitMFC_DLL<char,ATL::ChTraitsCRT<char> > >,ATL::CStringT<char,StrTraitMFC_DLL<char,ATL::ChTraitsCRT<char> > > &>
PUBLIC	?Serialize@?$CList@V?$CStringT@DV?$StrTraitMFC_DLL@DV?$ChTraitsCRT@D@ATL@@@@@ATL@@AAV12@@@UAEXAAVCArchive@@@Z ; CList<ATL::CStringT<char,StrTraitMFC_DLL<char,ATL::ChTraitsCRT<char> > >,ATL::CStringT<char,StrTraitMFC_DLL<char,ATL::ChTraitsCRT<char> > > &>::Serialize
PUBLIC	??_G?$CList@V?$CStringT@DV?$StrTraitMFC_DLL@DV?$ChTraitsCRT@D@ATL@@@@@ATL@@AAV12@@@UAEPAXI@Z ; CList<ATL::CStringT<char,StrTraitMFC_DLL<char,ATL::ChTraitsCRT<char> > >,ATL::CStringT<char,StrTraitMFC_DLL<char,ATL::ChTraitsCRT<char> > > &>::`scalar deleting destructor'
PUBLIC	?AddData@CChartDragCandleAnalAddInImp@@IAEHHH@Z	; CChartDragCandleAnalAddInImp::AddData
PUBLIC	?TokenizeEx@CChartDragCandleAnalAddInImp@@IAE?AV?$CStringT@DV?$StrTraitMFC_DLL@DV?$ChTraitsCRT@D@ATL@@@@@ATL@@V23@PBDAAH@Z ; CChartDragCandleAnalAddInImp::TokenizeEx
PUBLIC	??_GCChartDragCandleAnalAddInImp@@UAEPAXI@Z	; CChartDragCandleAnalAddInImp::`scalar deleting destructor'
PUBLIC	?QueryInterface@CChartAddInBase133691@@O7AGJABU_GUID@@PAPAX@Z ; [thunk]:CChartAddInBase133691::QueryInterface`adjustor{8}'
PUBLIC	?AddRef@CChartAddInBase133691@@O7AGKXZ		; [thunk]:CChartAddInBase133691::AddRef`adjustor{8}'
PUBLIC	?Release@CChartAddInBase133691@@O7AGKXZ		; [thunk]:CChartAddInBase133691::Release`adjustor{8}'
PUBLIC	??_ECChartDragCandleAnalAddInImp@@W7AEPAXI@Z	; [thunk]:CChartDragCandleAnalAddInImp::`vector deleting destructor'
PUBLIC	??_R0PAVCException@@@8				; CException * `RTTI Type Descriptor'
PUBLIC	??_C@_00CNPNBAHC@@				; `string'
PUBLIC	??_7CGdiObject@@6B@				; CGdiObject::`vftable'
PUBLIC	??_7CBitmap@@6B@				; CBitmap::`vftable'
PUBLIC	??_7CRgn@@6B@					; CRgn::`vftable'
PUBLIC	??_C@_0HD@JJCHHHNK@C?3?2Program?5Files?5?$CIx86?$CJ?2Microsof@ ; `string'
PUBLIC	??_C@_0BP@OIEOKIDM@Exception?5thrown?5in?5destructor@ ; `string'
PUBLIC	??_C@_0BB@HBOOMJBF@?$CFTs?5?$CI?$CFTs?3?$CFd?$CJ?6?$CFTs@ ; `string'
PUBLIC	??_C@_0N@OMEMOKLE@?$CFTs?5?$CI?$CFTs?3?$CFd?$CJ@ ; `string'
PUBLIC	??_R0?AVCObject@@@8				; CObject `RTTI Type Descriptor'
PUBLIC	??_R3CObject@@8					; CObject::`RTTI Class Hierarchy Descriptor'
PUBLIC	??_R2CObject@@8					; CObject::`RTTI Base Class Array'
PUBLIC	??_R1A@?0A@EA@CObject@@8			; CObject::`RTTI Base Class Descriptor at (0,-1,0,64)'
PUBLIC	??_R0?AUIUnknown@@@8				; IUnknown `RTTI Type Descriptor'
PUBLIC	??_R3IUnknown@@8				; IUnknown::`RTTI Class Hierarchy Descriptor'
PUBLIC	??_R2IUnknown@@8				; IUnknown::`RTTI Base Class Array'
PUBLIC	??_R1A@?0A@EA@IUnknown@@8			; IUnknown::`RTTI Base Class Descriptor at (0,-1,0,64)'
PUBLIC	??_R4CGdiObject@@6B@				; CGdiObject::`RTTI Complete Object Locator'
PUBLIC	??_R0?AVCGdiObject@@@8				; CGdiObject `RTTI Type Descriptor'
PUBLIC	??_R3CGdiObject@@8				; CGdiObject::`RTTI Class Hierarchy Descriptor'
PUBLIC	??_R2CGdiObject@@8				; CGdiObject::`RTTI Base Class Array'
PUBLIC	??_R1A@?0A@EA@CGdiObject@@8			; CGdiObject::`RTTI Base Class Descriptor at (0,-1,0,64)'
PUBLIC	??_R4CBitmap@@6B@				; CBitmap::`RTTI Complete Object Locator'
PUBLIC	??_R0?AVCBitmap@@@8				; CBitmap `RTTI Type Descriptor'
PUBLIC	??_R3CBitmap@@8					; CBitmap::`RTTI Class Hierarchy Descriptor'
PUBLIC	??_R2CBitmap@@8					; CBitmap::`RTTI Base Class Array'
PUBLIC	??_R1A@?0A@EA@CBitmap@@8			; CBitmap::`RTTI Base Class Descriptor at (0,-1,0,64)'
PUBLIC	??_R4CRgn@@6B@					; CRgn::`RTTI Complete Object Locator'
PUBLIC	??_R0?AVCRgn@@@8				; CRgn `RTTI Type Descriptor'
PUBLIC	??_R3CRgn@@8					; CRgn::`RTTI Class Hierarchy Descriptor'
PUBLIC	??_R2CRgn@@8					; CRgn::`RTTI Base Class Array'
PUBLIC	??_R1A@?0A@EA@CRgn@@8				; CRgn::`RTTI Base Class Descriptor at (0,-1,0,64)'
PUBLIC	?m_strAddInItemName@CChartDragCandleAnalAddInImp@@2V?$CStringT@DV?$StrTraitMFC_DLL@DV?$ChTraitsCRT@D@ATL@@@@@ATL@@A ; CChartDragCandleAnalAddInImp::m_strAddInItemName
PUBLIC	??_7?$CList@V?$CStringT@DV?$StrTraitMFC_DLL@DV?$ChTraitsCRT@D@ATL@@@@@ATL@@AAV12@@@6B@ ; CList<ATL::CStringT<char,StrTraitMFC_DLL<char,ATL::ChTraitsCRT<char> > >,ATL::CStringT<char,StrTraitMFC_DLL<char,ATL::ChTraitsCRT<char> > > &>::`vftable'
PUBLIC	??_7CChartDragCandleAnalAddInImp@@6BCIWUnknown@@@ ; CChartDragCandleAnalAddInImp::`vftable'
PUBLIC	??_7CChartDragCandleAnalAddInImp@@6BIChartAddIn133691@@@ ; CChartDragCandleAnalAddInImp::`vftable'
PUBLIC	??_C@_08DKDJLCMP@YYYYMMDD@			; `string'
PUBLIC	??_C@_06EBMMBHJD@YYYYMM@			; `string'
PUBLIC	??_C@_08KLIIINKM@MMDDHHMM@			; `string'
PUBLIC	__TI7PAVCChartDragCandleAnalAddInImp@@
PUBLIC	__CTA7PAVCChartDragCandleAnalAddInImp@@
PUBLIC	??_R0PAVCChartDragCandleAnalAddInImp@@@8	; CChartDragCandleAnalAddInImp * `RTTI Type Descriptor'
PUBLIC	__CT??_R0PAVCChartDragCandleAnalAddInImp@@@84
PUBLIC	??_R0PAVCChartAddInBase133691@@@8		; CChartAddInBase133691 * `RTTI Type Descriptor'
PUBLIC	__CT??_R0PAVCChartAddInBase133691@@@84
PUBLIC	??_R0PAVCIWUnknown@@@8				; CIWUnknown * `RTTI Type Descriptor'
PUBLIC	__CT??_R0PAVCIWUnknown@@@84
PUBLIC	??_R0PAVCObject@@@8				; CObject * `RTTI Type Descriptor'
PUBLIC	__CT??_R0PAVCObject@@@84
PUBLIC	??_R0PAUIChartAddIn133691@@@8			; IChartAddIn133691 * `RTTI Type Descriptor'
PUBLIC	__CT??_R0PAUIChartAddIn133691@@@848
PUBLIC	??_R0PAUIUnknown@@@8				; IUnknown * `RTTI Type Descriptor'
PUBLIC	__CT??_R0PAUIUnknown@@@848
PUBLIC	??_R0PAX@8					; void * `RTTI Type Descriptor'
PUBLIC	__CT??_R0PAX@84
PUBLIC	??_C@_04GHNNFJCK@?$CF?40f@			; `string'
PUBLIC	??_C@_01JLIPDDHJ@?3@				; `string'
PUBLIC	??_R0?AUIChartAddIn133691@@@8			; IChartAddIn133691 `RTTI Type Descriptor'
PUBLIC	??_R3IChartAddIn133691@@8			; IChartAddIn133691::`RTTI Class Hierarchy Descriptor'
PUBLIC	??_R2IChartAddIn133691@@8			; IChartAddIn133691::`RTTI Base Class Array'
PUBLIC	??_R1A@?0A@EA@IChartAddIn133691@@8		; IChartAddIn133691::`RTTI Base Class Descriptor at (0,-1,0,64)'
PUBLIC	??_R4CChartDragCandleAnalAddInImp@@6BCIWUnknown@@@ ; CChartDragCandleAnalAddInImp::`RTTI Complete Object Locator'
PUBLIC	??_R0?AVCChartDragCandleAnalAddInImp@@@8	; CChartDragCandleAnalAddInImp `RTTI Type Descriptor'
PUBLIC	??_R3CChartDragCandleAnalAddInImp@@8		; CChartDragCandleAnalAddInImp::`RTTI Class Hierarchy Descriptor'
PUBLIC	??_R2CChartDragCandleAnalAddInImp@@8		; CChartDragCandleAnalAddInImp::`RTTI Base Class Array'
PUBLIC	??_R1A@?0A@EA@CChartDragCandleAnalAddInImp@@8	; CChartDragCandleAnalAddInImp::`RTTI Base Class Descriptor at (0,-1,0,64)'
PUBLIC	??_R1A@?0A@EA@CChartAddInBase133691@@8		; CChartAddInBase133691::`RTTI Base Class Descriptor at (0,-1,0,64)'
PUBLIC	??_R0?AVCChartAddInBase133691@@@8		; CChartAddInBase133691 `RTTI Type Descriptor'
PUBLIC	??_R3CChartAddInBase133691@@8			; CChartAddInBase133691::`RTTI Class Hierarchy Descriptor'
PUBLIC	??_R2CChartAddInBase133691@@8			; CChartAddInBase133691::`RTTI Base Class Array'
PUBLIC	??_R1A@?0A@EA@CIWUnknown@@8			; CIWUnknown::`RTTI Base Class Descriptor at (0,-1,0,64)'
PUBLIC	??_R0?AVCIWUnknown@@@8				; CIWUnknown `RTTI Type Descriptor'
PUBLIC	??_R3CIWUnknown@@8				; CIWUnknown::`RTTI Class Hierarchy Descriptor'
PUBLIC	??_R2CIWUnknown@@8				; CIWUnknown::`RTTI Base Class Array'
PUBLIC	??_R17?0A@EA@IChartAddIn133691@@8		; IChartAddIn133691::`RTTI Base Class Descriptor at (8,-1,0,64)'
PUBLIC	??_R17?0A@EA@IUnknown@@8			; IUnknown::`RTTI Base Class Descriptor at (8,-1,0,64)'
PUBLIC	??_R4CChartDragCandleAnalAddInImp@@6BIChartAddIn133691@@@ ; CChartDragCandleAnalAddInImp::`RTTI Complete Object Locator'
PUBLIC	??_R4?$CList@V?$CStringT@DV?$StrTraitMFC_DLL@DV?$ChTraitsCRT@D@ATL@@@@@ATL@@AAV12@@@6B@ ; CList<ATL::CStringT<char,StrTraitMFC_DLL<char,ATL::ChTraitsCRT<char> > >,ATL::CStringT<char,StrTraitMFC_DLL<char,ATL::ChTraitsCRT<char> > > &>::`RTTI Complete Object Locator'
PUBLIC	??_R0?AV?$CList@V?$CStringT@DV?$StrTraitMFC_DLL@DV?$ChTraitsCRT@D@ATL@@@@@ATL@@AAV12@@@@8 ; CList<ATL::CStringT<char,StrTraitMFC_DLL<char,ATL::ChTraitsCRT<char> > >,ATL::CStringT<char,StrTraitMFC_DLL<char,ATL::ChTraitsCRT<char> > > &> `RTTI Type Descriptor'
PUBLIC	??_R3?$CList@V?$CStringT@DV?$StrTraitMFC_DLL@DV?$ChTraitsCRT@D@ATL@@@@@ATL@@AAV12@@@8 ; CList<ATL::CStringT<char,StrTraitMFC_DLL<char,ATL::ChTraitsCRT<char> > >,ATL::CStringT<char,StrTraitMFC_DLL<char,ATL::ChTraitsCRT<char> > > &>::`RTTI Class Hierarchy Descriptor'
PUBLIC	??_R2?$CList@V?$CStringT@DV?$StrTraitMFC_DLL@DV?$ChTraitsCRT@D@ATL@@@@@ATL@@AAV12@@@8 ; CList<ATL::CStringT<char,StrTraitMFC_DLL<char,ATL::ChTraitsCRT<char> > >,ATL::CStringT<char,StrTraitMFC_DLL<char,ATL::ChTraitsCRT<char> > > &>::`RTTI Base Class Array'
PUBLIC	??_R1A@?0A@EA@?$CList@V?$CStringT@DV?$StrTraitMFC_DLL@DV?$ChTraitsCRT@D@ATL@@@@@ATL@@AAV12@@@8 ; CList<ATL::CStringT<char,StrTraitMFC_DLL<char,ATL::ChTraitsCRT<char> > >,ATL::CStringT<char,StrTraitMFC_DLL<char,ATL::ChTraitsCRT<char> > > &>::`RTTI Base Class Descriptor at (0,-1,0,64)'
PUBLIC	__real@3fe0000000000000
PUBLIC	__real@3ff0000000000000
PUBLIC	__real@4059000000000000
PUBLIC	__real@412e848000000000
EXTRN	??_L@YGXPAXIIP6EX0@Z1@Z:PROC			; `eh vector constructor iterator'
EXTRN	??_M@YGXPAXIIP6EX0@Z@Z:PROC			; `eh vector destructor iterator'
EXTRN	??3@YAXPAX@Z:PROC				; operator delete
EXTRN	??3@YAXPAXI@Z:PROC				; operator delete
EXTRN	?__global_delete@@YAXPAXI@Z:PROC		; __global_delete
EXTRN	_atexit:PROC
EXTRN	___std_terminate:PROC
EXTRN	__imp__BitBlt@36:PROC
EXTRN	__imp__CreateCompatibleBitmap@12:PROC
EXTRN	__imp__CreateCompatibleDC@4:PROC
EXTRN	__imp__CreateRectRgn@16:PROC
EXTRN	__imp__RegisterWindowMessageA@4:PROC
EXTRN	__imp__SendMessageA@16:PROC
EXTRN	__imp__SetRectEmpty@4:PROC
EXTRN	__imp__CopyRect@8:PROC
EXTRN	__imp__IsRectEmpty@4:PROC
EXTRN	__imp__atoi:PROC
EXTRN	__imp__atol:PROC
EXTRN	?AfxThrowInvalidArgException@@YGXXZ:PROC	; AfxThrowInvalidArgException
EXTRN	?GetRuntimeClass@CObject@@UBEPAUCRuntimeClass@@XZ:PROC ; CObject::GetRuntimeClass
EXTRN	__imp_??0?$CStringT@DV?$StrTraitMFC_DLL@DV?$ChTraitsCRT@D@ATL@@@@@ATL@@QAE@XZ:PROC
EXTRN	__imp_??0?$CStringT@DV?$StrTraitMFC_DLL@DV?$ChTraitsCRT@D@ATL@@@@@ATL@@QAE@ABV01@@Z:PROC
EXTRN	__imp_??0?$CStringT@DV?$StrTraitMFC_DLL@DV?$ChTraitsCRT@D@ATL@@@@@ATL@@QAE@PBD@Z:PROC
EXTRN	__imp_??1?$CStringT@DV?$StrTraitMFC_DLL@DV?$ChTraitsCRT@D@ATL@@@@@ATL@@QAE@XZ:PROC
EXTRN	__imp_??4?$CStringT@DV?$StrTraitMFC_DLL@DV?$ChTraitsCRT@D@ATL@@@@@ATL@@QAEAAV01@ABV01@@Z:PROC
EXTRN	__imp_??Y?$CStringT@DV?$StrTraitMFC_DLL@DV?$ChTraitsCRT@D@ATL@@@@@ATL@@QAEAAV01@PBD@Z:PROC
EXTRN	__imp_?Compare@?$CStringT@DV?$StrTraitMFC_DLL@DV?$ChTraitsCRT@D@ATL@@@@@ATL@@QBEHPBD@Z:PROC
EXTRN	__imp_?Find@?$CStringT@DV?$StrTraitMFC_DLL@DV?$ChTraitsCRT@D@ATL@@@@@ATL@@QBEHPBDH@Z:PROC
EXTRN	__imp_?Mid@?$CStringT@DV?$StrTraitMFC_DLL@DV?$ChTraitsCRT@D@ATL@@@@@ATL@@QBE?AV12@HH@Z:PROC
EXTRN	__imp_?Left@?$CStringT@DV?$StrTraitMFC_DLL@DV?$ChTraitsCRT@D@ATL@@@@@ATL@@QBE?AV12@H@Z:PROC
EXTRN	__imp_?Format@?$CStringT@DV?$StrTraitMFC_DLL@DV?$ChTraitsCRT@D@ATL@@@@@ATL@@QAAXPBDZZ:PROC
EXTRN	?ReadCount@CArchive@@QAEKXZ:PROC		; CArchive::ReadCount
EXTRN	?WriteCount@CArchive@@QAEXK@Z:PROC		; CArchive::WriteCount
EXTRN	?AfxGetStaticModuleState@@YGPAVAFX_MODULE_STATE@@XZ:PROC ; AfxGetStaticModuleState
EXTRN	??0AFX_MAINTAIN_STATE2@@QAE@PAVAFX_MODULE_STATE@@@Z:PROC ; AFX_MAINTAIN_STATE2::AFX_MAINTAIN_STATE2
EXTRN	??1AFX_MAINTAIN_STATE2@@QAE@XZ:PROC		; AFX_MAINTAIN_STATE2::~AFX_MAINTAIN_STATE2
EXTRN	?Create@CPlex@@SGPAU1@AAPAU1@II@Z:PROC		; CPlex::Create
EXTRN	?FreeDataChain@CPlex@@QAEXXZ:PROC		; CPlex::FreeDataChain
EXTRN	??$SerializeElements@V?$CStringT@DV?$StrTraitMFC_DLL@DV?$ChTraitsCRT@D@ATL@@@@@ATL@@@@YGXAAVCArchive@@PAV?$CStringT@DV?$StrTraitMFC_DLL@DV?$ChTraitsCRT@D@ATL@@@@@ATL@@H@Z:PROC ; SerializeElements<ATL::CStringT<char,StrTraitMFC_DLL<char,ATL::ChTraitsCRT<char> > > >
EXTRN	?GetRuntimeClass@CGdiObject@@UBEPAUCRuntimeClass@@XZ:PROC ; CGdiObject::GetRuntimeClass
EXTRN	?Attach@CGdiObject@@QAEHPAX@Z:PROC		; CGdiObject::Attach
EXTRN	?DeleteObject@CGdiObject@@QAEHXZ:PROC		; CGdiObject::DeleteObject
EXTRN	??_ECGdiObject@@UAEPAXI@Z:PROC			; CGdiObject::`vector deleting destructor'
EXTRN	?GetRuntimeClass@CBitmap@@UBEPAUCRuntimeClass@@XZ:PROC ; CBitmap::GetRuntimeClass
EXTRN	??_ECBitmap@@UAEPAXI@Z:PROC			; CBitmap::`vector deleting destructor'
EXTRN	?GetRuntimeClass@CRgn@@UBEPAUCRuntimeClass@@XZ:PROC ; CRgn::GetRuntimeClass
EXTRN	??_ECRgn@@UAEPAXI@Z:PROC			; CRgn::`vector deleting destructor'
EXTRN	?FromHandle@CDC@@SGPAV1@PAUHDC__@@@Z:PROC	; CDC::FromHandle
EXTRN	?Attach@CDC@@QAEHPAUHDC__@@@Z:PROC		; CDC::Attach
EXTRN	??0CDC@@QAE@XZ:PROC				; CDC::CDC
EXTRN	?DeleteDC@CDC@@QAEHXZ:PROC			; CDC::DeleteDC
EXTRN	?SelectClipRgn@CDC@@QAEHPAVCRgn@@@Z:PROC	; CDC::SelectClipRgn
EXTRN	?DrawDragRect@CDC@@QAEXPBUtagRECT@@UtagSIZE@@01PAVCBrush@@2@Z:PROC ; CDC::DrawDragRect
EXTRN	?FillSolidRect@CDC@@QAEXPBUtagRECT@@K@Z:PROC	; CDC::FillSolidRect
EXTRN	??1CDC@@UAE@XZ:PROC				; CDC::~CDC
EXTRN	?SelectGdiObject@CDC@@KGPAVCGdiObject@@PAUHDC__@@PAX@Z:PROC ; CDC::SelectGdiObject
EXTRN	?AfxMessageBox@@YGHPBDII@Z:PROC			; AfxMessageBox
EXTRN	?AddRef@CIWUnknown@@MAGKXZ:PROC			; CIWUnknown::AddRef
EXTRN	?Release@CIWUnknown@@MAGKXZ:PROC		; CIWUnknown::Release
EXTRN	??0CChartAddInBase133691@@IAE@PAUIChartOCX133691@@PAUIAddInDllBase@@@Z:PROC ; CChartAddInBase133691::CChartAddInBase133691
EXTRN	??1CChartAddInBase133691@@MAE@XZ:PROC		; CChartAddInBase133691::~CChartAddInBase133691
EXTRN	?HasFullManager@CChartAddInBase133691@@MAEHXZ:PROC ; CChartAddInBase133691::HasFullManager
EXTRN	?RegisterEventMap@CChartAddInBase133691@@UAEHH@Z:PROC ; CChartAddInBase133691::RegisterEventMap
EXTRN	?UnregisterEventMap@CChartAddInBase133691@@UAEHXZ:PROC ; CChartAddInBase133691::UnregisterEventMap
EXTRN	??_E?$CList@V?$CStringT@DV?$StrTraitMFC_DLL@DV?$ChTraitsCRT@D@ATL@@@@@ATL@@AAV12@@@UAEPAXI@Z:PROC ; CList<ATL::CStringT<char,StrTraitMFC_DLL<char,ATL::ChTraitsCRT<char> > >,ATL::CStringT<char,StrTraitMFC_DLL<char,ATL::ChTraitsCRT<char> > > &>::`vector deleting destructor'
EXTRN	??_ECChartDragCandleAnalAddInImp@@UAEPAXI@Z:PROC ; CChartDragCandleAnalAddInImp::`vector deleting destructor'
EXTRN	??0COutsideCommonInterfaceFunction@@QAE@XZ:PROC	; COutsideCommonInterfaceFunction::COutsideCommonInterfaceFunction
EXTRN	??1COutsideCommonInterfaceFunction@@UAE@XZ:PROC	; COutsideCommonInterfaceFunction::~COutsideCommonInterfaceFunction
EXTRN	?SetOutsideCommonInterface@COutsideCommonInterfaceFunction@@QAEXPAVCOutsideCommonInterface@@V?$CStringT@DV?$StrTraitMFC_DLL@DV?$ChTraitsCRT@D@ATL@@@@@ATL@@@Z:PROC ; COutsideCommonInterfaceFunction::SetOutsideCommonInterface
EXTRN	?MChart_SetDataWindowData@COutsideCommonInterfaceFunction@@QAEXPAV?$CList@V?$CStringT@DV?$StrTraitMFC_DLL@DV?$ChTraitsCRT@D@ATL@@@@@ATL@@AAV12@@@@Z:PROC ; COutsideCommonInterfaceFunction::MChart_SetDataWindowData
EXTRN	@__security_check_cookie@4:PROC
EXTRN	__CxxThrowException@8:PROC
EXTRN	___CxxFrameHandler3:PROC
EXTRN	??_7type_info@@6B@:QWORD			; type_info::`vftable'
EXTRN	?g_iMetaTable@@3VIMetaTable@@A:BYTE		; g_iMetaTable
EXTRN	___security_cookie:DWORD
EXTRN	__fltused:DWORD
_BSS	SEGMENT
?m_strAddInItemName@CChartDragCandleAnalAddInImp@@2V?$CStringT@DV?$StrTraitMFC_DLL@DV?$ChTraitsCRT@D@ATL@@@@@ATL@@A DD 01H DUP (?) ; CChartDragCandleAnalAddInImp::m_strAddInItemName
?RMS_ANALYSIS_FUNC@@3IB DD 01H DUP (?)			; RMS_ANALYSIS_FUNC
_BSS	ENDS
CRT$XCU	SEGMENT
?RMS_ANALYSIS_FUNC$initializer$@@3P6AXXZA DD FLAT:??__ERMS_ANALYSIS_FUNC@@YAXXZ ; RMS_ANALYSIS_FUNC$initializer$
CRT$XCU	ENDS
;	COMDAT __real@412e848000000000
CONST	SEGMENT
__real@412e848000000000 DQ 0412e848000000000r	; 1e+06
CONST	ENDS
;	COMDAT __real@4059000000000000
CONST	SEGMENT
__real@4059000000000000 DQ 04059000000000000r	; 100
CONST	ENDS
;	COMDAT __real@3ff0000000000000
CONST	SEGMENT
__real@3ff0000000000000 DQ 03ff0000000000000r	; 1
CONST	ENDS
;	COMDAT __real@3fe0000000000000
CONST	SEGMENT
__real@3fe0000000000000 DQ 03fe0000000000000r	; 0.5
CONST	ENDS
;	COMDAT ??_R1A@?0A@EA@?$CList@V?$CStringT@DV?$StrTraitMFC_DLL@DV?$ChTraitsCRT@D@ATL@@@@@ATL@@AAV12@@@8
rdata$r	SEGMENT
??_R1A@?0A@EA@?$CList@V?$CStringT@DV?$StrTraitMFC_DLL@DV?$ChTraitsCRT@D@ATL@@@@@ATL@@AAV12@@@8 DD FLAT:??_R0?AV?$CList@V?$CStringT@DV?$StrTraitMFC_DLL@DV?$ChTraitsCRT@D@ATL@@@@@ATL@@AAV12@@@@8 ; CList<ATL::CStringT<char,StrTraitMFC_DLL<char,ATL::ChTraitsCRT<char> > >,ATL::CStringT<char,StrTraitMFC_DLL<char,ATL::ChTraitsCRT<char> > > &>::`RTTI Base Class Descriptor at (0,-1,0,64)'
	DD	01H
	DD	00H
	DD	0ffffffffH
	DD	00H
	DD	040H
	DD	FLAT:??_R3?$CList@V?$CStringT@DV?$StrTraitMFC_DLL@DV?$ChTraitsCRT@D@ATL@@@@@ATL@@AAV12@@@8
rdata$r	ENDS
;	COMDAT ??_R2?$CList@V?$CStringT@DV?$StrTraitMFC_DLL@DV?$ChTraitsCRT@D@ATL@@@@@ATL@@AAV12@@@8
rdata$r	SEGMENT
??_R2?$CList@V?$CStringT@DV?$StrTraitMFC_DLL@DV?$ChTraitsCRT@D@ATL@@@@@ATL@@AAV12@@@8 DD FLAT:??_R1A@?0A@EA@?$CList@V?$CStringT@DV?$StrTraitMFC_DLL@DV?$ChTraitsCRT@D@ATL@@@@@ATL@@AAV12@@@8 ; CList<ATL::CStringT<char,StrTraitMFC_DLL<char,ATL::ChTraitsCRT<char> > >,ATL::CStringT<char,StrTraitMFC_DLL<char,ATL::ChTraitsCRT<char> > > &>::`RTTI Base Class Array'
	DD	FLAT:??_R1A@?0A@EA@CObject@@8
rdata$r	ENDS
;	COMDAT ??_R3?$CList@V?$CStringT@DV?$StrTraitMFC_DLL@DV?$ChTraitsCRT@D@ATL@@@@@ATL@@AAV12@@@8
rdata$r	SEGMENT
??_R3?$CList@V?$CStringT@DV?$StrTraitMFC_DLL@DV?$ChTraitsCRT@D@ATL@@@@@ATL@@AAV12@@@8 DD 00H ; CList<ATL::CStringT<char,StrTraitMFC_DLL<char,ATL::ChTraitsCRT<char> > >,ATL::CStringT<char,StrTraitMFC_DLL<char,ATL::ChTraitsCRT<char> > > &>::`RTTI Class Hierarchy Descriptor'
	DD	00H
	DD	02H
	DD	FLAT:??_R2?$CList@V?$CStringT@DV?$StrTraitMFC_DLL@DV?$ChTraitsCRT@D@ATL@@@@@ATL@@AAV12@@@8
rdata$r	ENDS
;	COMDAT ??_R0?AV?$CList@V?$CStringT@DV?$StrTraitMFC_DLL@DV?$ChTraitsCRT@D@ATL@@@@@ATL@@AAV12@@@@8
data$rs	SEGMENT
??_R0?AV?$CList@V?$CStringT@DV?$StrTraitMFC_DLL@DV?$ChTraitsCRT@D@ATL@@@@@ATL@@AAV12@@@@8 DD FLAT:??_7type_info@@6B@ ; CList<ATL::CStringT<char,StrTraitMFC_DLL<char,ATL::ChTraitsCRT<char> > >,ATL::CStringT<char,StrTraitMFC_DLL<char,ATL::ChTraitsCRT<char> > > &> `RTTI Type Descriptor'
	DD	00H
	DB	'.?AV?$CList@V?$CStringT@DV?$StrTraitMFC_DLL@DV?$ChTraits'
	DB	'CRT@D@ATL@@@@@ATL@@AAV12@@@', 00H
data$rs	ENDS
;	COMDAT ??_R4?$CList@V?$CStringT@DV?$StrTraitMFC_DLL@DV?$ChTraitsCRT@D@ATL@@@@@ATL@@AAV12@@@6B@
rdata$r	SEGMENT
??_R4?$CList@V?$CStringT@DV?$StrTraitMFC_DLL@DV?$ChTraitsCRT@D@ATL@@@@@ATL@@AAV12@@@6B@ DD 00H ; CList<ATL::CStringT<char,StrTraitMFC_DLL<char,ATL::ChTraitsCRT<char> > >,ATL::CStringT<char,StrTraitMFC_DLL<char,ATL::ChTraitsCRT<char> > > &>::`RTTI Complete Object Locator'
	DD	00H
	DD	00H
	DD	FLAT:??_R0?AV?$CList@V?$CStringT@DV?$StrTraitMFC_DLL@DV?$ChTraitsCRT@D@ATL@@@@@ATL@@AAV12@@@@8
	DD	FLAT:??_R3?$CList@V?$CStringT@DV?$StrTraitMFC_DLL@DV?$ChTraitsCRT@D@ATL@@@@@ATL@@AAV12@@@8
rdata$r	ENDS
;	COMDAT ??_R4CChartDragCandleAnalAddInImp@@6BIChartAddIn133691@@@
rdata$r	SEGMENT
??_R4CChartDragCandleAnalAddInImp@@6BIChartAddIn133691@@@ DD 00H ; CChartDragCandleAnalAddInImp::`RTTI Complete Object Locator'
	DD	08H
	DD	00H
	DD	FLAT:??_R0?AVCChartDragCandleAnalAddInImp@@@8
	DD	FLAT:??_R3CChartDragCandleAnalAddInImp@@8
rdata$r	ENDS
;	COMDAT ??_R17?0A@EA@IUnknown@@8
rdata$r	SEGMENT
??_R17?0A@EA@IUnknown@@8 DD FLAT:??_R0?AUIUnknown@@@8	; IUnknown::`RTTI Base Class Descriptor at (8,-1,0,64)'
	DD	00H
	DD	08H
	DD	0ffffffffH
	DD	00H
	DD	040H
	DD	FLAT:??_R3IUnknown@@8
rdata$r	ENDS
;	COMDAT ??_R17?0A@EA@IChartAddIn133691@@8
rdata$r	SEGMENT
??_R17?0A@EA@IChartAddIn133691@@8 DD FLAT:??_R0?AUIChartAddIn133691@@@8 ; IChartAddIn133691::`RTTI Base Class Descriptor at (8,-1,0,64)'
	DD	01H
	DD	08H
	DD	0ffffffffH
	DD	00H
	DD	040H
	DD	FLAT:??_R3IChartAddIn133691@@8
rdata$r	ENDS
;	COMDAT ??_R2CIWUnknown@@8
rdata$r	SEGMENT
??_R2CIWUnknown@@8 DD FLAT:??_R1A@?0A@EA@CIWUnknown@@8	; CIWUnknown::`RTTI Base Class Array'
	DD	FLAT:??_R1A@?0A@EA@CObject@@8
rdata$r	ENDS
;	COMDAT ??_R3CIWUnknown@@8
rdata$r	SEGMENT
??_R3CIWUnknown@@8 DD 00H				; CIWUnknown::`RTTI Class Hierarchy Descriptor'
	DD	00H
	DD	02H
	DD	FLAT:??_R2CIWUnknown@@8
rdata$r	ENDS
;	COMDAT ??_R0?AVCIWUnknown@@@8
data$rs	SEGMENT
??_R0?AVCIWUnknown@@@8 DD FLAT:??_7type_info@@6B@	; CIWUnknown `RTTI Type Descriptor'
	DD	00H
	DB	'.?AVCIWUnknown@@', 00H
data$rs	ENDS
;	COMDAT ??_R1A@?0A@EA@CIWUnknown@@8
rdata$r	SEGMENT
??_R1A@?0A@EA@CIWUnknown@@8 DD FLAT:??_R0?AVCIWUnknown@@@8 ; CIWUnknown::`RTTI Base Class Descriptor at (0,-1,0,64)'
	DD	01H
	DD	00H
	DD	0ffffffffH
	DD	00H
	DD	040H
	DD	FLAT:??_R3CIWUnknown@@8
rdata$r	ENDS
;	COMDAT ??_R2CChartAddInBase133691@@8
rdata$r	SEGMENT
??_R2CChartAddInBase133691@@8 DD FLAT:??_R1A@?0A@EA@CChartAddInBase133691@@8 ; CChartAddInBase133691::`RTTI Base Class Array'
	DD	FLAT:??_R1A@?0A@EA@CIWUnknown@@8
	DD	FLAT:??_R1A@?0A@EA@CObject@@8
	DD	FLAT:??_R17?0A@EA@IChartAddIn133691@@8
	DD	FLAT:??_R17?0A@EA@IUnknown@@8
rdata$r	ENDS
;	COMDAT ??_R3CChartAddInBase133691@@8
rdata$r	SEGMENT
??_R3CChartAddInBase133691@@8 DD 00H			; CChartAddInBase133691::`RTTI Class Hierarchy Descriptor'
	DD	01H
	DD	05H
	DD	FLAT:??_R2CChartAddInBase133691@@8
rdata$r	ENDS
;	COMDAT ??_R0?AVCChartAddInBase133691@@@8
data$rs	SEGMENT
??_R0?AVCChartAddInBase133691@@@8 DD FLAT:??_7type_info@@6B@ ; CChartAddInBase133691 `RTTI Type Descriptor'
	DD	00H
	DB	'.?AVCChartAddInBase133691@@', 00H
data$rs	ENDS
;	COMDAT ??_R1A@?0A@EA@CChartAddInBase133691@@8
rdata$r	SEGMENT
??_R1A@?0A@EA@CChartAddInBase133691@@8 DD FLAT:??_R0?AVCChartAddInBase133691@@@8 ; CChartAddInBase133691::`RTTI Base Class Descriptor at (0,-1,0,64)'
	DD	04H
	DD	00H
	DD	0ffffffffH
	DD	00H
	DD	040H
	DD	FLAT:??_R3CChartAddInBase133691@@8
rdata$r	ENDS
;	COMDAT ??_R1A@?0A@EA@CChartDragCandleAnalAddInImp@@8
rdata$r	SEGMENT
??_R1A@?0A@EA@CChartDragCandleAnalAddInImp@@8 DD FLAT:??_R0?AVCChartDragCandleAnalAddInImp@@@8 ; CChartDragCandleAnalAddInImp::`RTTI Base Class Descriptor at (0,-1,0,64)'
	DD	05H
	DD	00H
	DD	0ffffffffH
	DD	00H
	DD	040H
	DD	FLAT:??_R3CChartDragCandleAnalAddInImp@@8
rdata$r	ENDS
;	COMDAT ??_R2CChartDragCandleAnalAddInImp@@8
rdata$r	SEGMENT
??_R2CChartDragCandleAnalAddInImp@@8 DD FLAT:??_R1A@?0A@EA@CChartDragCandleAnalAddInImp@@8 ; CChartDragCandleAnalAddInImp::`RTTI Base Class Array'
	DD	FLAT:??_R1A@?0A@EA@CChartAddInBase133691@@8
	DD	FLAT:??_R1A@?0A@EA@CIWUnknown@@8
	DD	FLAT:??_R1A@?0A@EA@CObject@@8
	DD	FLAT:??_R17?0A@EA@IChartAddIn133691@@8
	DD	FLAT:??_R17?0A@EA@IUnknown@@8
rdata$r	ENDS
;	COMDAT ??_R3CChartDragCandleAnalAddInImp@@8
rdata$r	SEGMENT
??_R3CChartDragCandleAnalAddInImp@@8 DD 00H		; CChartDragCandleAnalAddInImp::`RTTI Class Hierarchy Descriptor'
	DD	01H
	DD	06H
	DD	FLAT:??_R2CChartDragCandleAnalAddInImp@@8
rdata$r	ENDS
;	COMDAT ??_R0?AVCChartDragCandleAnalAddInImp@@@8
data$rs	SEGMENT
??_R0?AVCChartDragCandleAnalAddInImp@@@8 DD FLAT:??_7type_info@@6B@ ; CChartDragCandleAnalAddInImp `RTTI Type Descriptor'
	DD	00H
	DB	'.?AVCChartDragCandleAnalAddInImp@@', 00H
data$rs	ENDS
;	COMDAT ??_R4CChartDragCandleAnalAddInImp@@6BCIWUnknown@@@
rdata$r	SEGMENT
??_R4CChartDragCandleAnalAddInImp@@6BCIWUnknown@@@ DD 00H ; CChartDragCandleAnalAddInImp::`RTTI Complete Object Locator'
	DD	00H
	DD	00H
	DD	FLAT:??_R0?AVCChartDragCandleAnalAddInImp@@@8
	DD	FLAT:??_R3CChartDragCandleAnalAddInImp@@8
rdata$r	ENDS
;	COMDAT ??_R1A@?0A@EA@IChartAddIn133691@@8
rdata$r	SEGMENT
??_R1A@?0A@EA@IChartAddIn133691@@8 DD FLAT:??_R0?AUIChartAddIn133691@@@8 ; IChartAddIn133691::`RTTI Base Class Descriptor at (0,-1,0,64)'
	DD	01H
	DD	00H
	DD	0ffffffffH
	DD	00H
	DD	040H
	DD	FLAT:??_R3IChartAddIn133691@@8
rdata$r	ENDS
;	COMDAT ??_R2IChartAddIn133691@@8
rdata$r	SEGMENT
??_R2IChartAddIn133691@@8 DD FLAT:??_R1A@?0A@EA@IChartAddIn133691@@8 ; IChartAddIn133691::`RTTI Base Class Array'
	DD	FLAT:??_R1A@?0A@EA@IUnknown@@8
rdata$r	ENDS
;	COMDAT ??_R3IChartAddIn133691@@8
rdata$r	SEGMENT
??_R3IChartAddIn133691@@8 DD 00H			; IChartAddIn133691::`RTTI Class Hierarchy Descriptor'
	DD	00H
	DD	02H
	DD	FLAT:??_R2IChartAddIn133691@@8
rdata$r	ENDS
;	COMDAT ??_R0?AUIChartAddIn133691@@@8
data$rs	SEGMENT
??_R0?AUIChartAddIn133691@@@8 DD FLAT:??_7type_info@@6B@ ; IChartAddIn133691 `RTTI Type Descriptor'
	DD	00H
	DB	'.?AUIChartAddIn133691@@', 00H
data$rs	ENDS
;	COMDAT ??_C@_01JLIPDDHJ@?3@
CONST	SEGMENT
??_C@_01JLIPDDHJ@?3@ DB ':', 00H			; `string'
CONST	ENDS
;	COMDAT ??_C@_04GHNNFJCK@?$CF?40f@
CONST	SEGMENT
??_C@_04GHNNFJCK@?$CF?40f@ DB '%.0f', 00H		; `string'
CONST	ENDS
;	COMDAT __CT??_R0PAX@84
xdata$x	SEGMENT
__CT??_R0PAX@84 DD 01H
	DD	FLAT:??_R0PAX@8
	DD	00H
	DD	0ffffffffH
	ORG $+4
	DD	04H
	DD	00H
xdata$x	ENDS
;	COMDAT ??_R0PAX@8
data$r	SEGMENT
??_R0PAX@8 DD	FLAT:??_7type_info@@6B@			; void * `RTTI Type Descriptor'
	DD	00H
	DB	'.PAX', 00H
data$r	ENDS
;	COMDAT __CT??_R0PAUIUnknown@@@848
xdata$x	SEGMENT
__CT??_R0PAUIUnknown@@@848 DD 01H
	DD	FLAT:??_R0PAUIUnknown@@@8
	DD	08H
	DD	0ffffffffH
	DD	00H
	DD	04H
	DD	00H
xdata$x	ENDS
;	COMDAT ??_R0PAUIUnknown@@@8
data$r	SEGMENT
??_R0PAUIUnknown@@@8 DD FLAT:??_7type_info@@6B@		; IUnknown * `RTTI Type Descriptor'
	DD	00H
	DB	'.PAUIUnknown@@', 00H
data$r	ENDS
;	COMDAT __CT??_R0PAUIChartAddIn133691@@@848
xdata$x	SEGMENT
__CT??_R0PAUIChartAddIn133691@@@848 DD 01H
	DD	FLAT:??_R0PAUIChartAddIn133691@@@8
	DD	08H
	DD	0ffffffffH
	DD	00H
	DD	04H
	DD	00H
xdata$x	ENDS
;	COMDAT ??_R0PAUIChartAddIn133691@@@8
data$r	SEGMENT
??_R0PAUIChartAddIn133691@@@8 DD FLAT:??_7type_info@@6B@ ; IChartAddIn133691 * `RTTI Type Descriptor'
	DD	00H
	DB	'.PAUIChartAddIn133691@@', 00H
data$r	ENDS
;	COMDAT __CT??_R0PAVCObject@@@84
xdata$x	SEGMENT
__CT??_R0PAVCObject@@@84 DD 01H
	DD	FLAT:??_R0PAVCObject@@@8
	DD	00H
	DD	0ffffffffH
	ORG $+4
	DD	04H
	DD	00H
xdata$x	ENDS
;	COMDAT ??_R0PAVCObject@@@8
data$r	SEGMENT
??_R0PAVCObject@@@8 DD FLAT:??_7type_info@@6B@		; CObject * `RTTI Type Descriptor'
	DD	00H
	DB	'.PAVCObject@@', 00H
data$r	ENDS
;	COMDAT __CT??_R0PAVCIWUnknown@@@84
xdata$x	SEGMENT
__CT??_R0PAVCIWUnknown@@@84 DD 01H
	DD	FLAT:??_R0PAVCIWUnknown@@@8
	DD	00H
	DD	0ffffffffH
	ORG $+4
	DD	04H
	DD	00H
xdata$x	ENDS
;	COMDAT ??_R0PAVCIWUnknown@@@8
data$r	SEGMENT
??_R0PAVCIWUnknown@@@8 DD FLAT:??_7type_info@@6B@	; CIWUnknown * `RTTI Type Descriptor'
	DD	00H
	DB	'.PAVCIWUnknown@@', 00H
data$r	ENDS
;	COMDAT __CT??_R0PAVCChartAddInBase133691@@@84
xdata$x	SEGMENT
__CT??_R0PAVCChartAddInBase133691@@@84 DD 01H
	DD	FLAT:??_R0PAVCChartAddInBase133691@@@8
	DD	00H
	DD	0ffffffffH
	ORG $+4
	DD	04H
	DD	00H
xdata$x	ENDS
;	COMDAT ??_R0PAVCChartAddInBase133691@@@8
data$r	SEGMENT
??_R0PAVCChartAddInBase133691@@@8 DD FLAT:??_7type_info@@6B@ ; CChartAddInBase133691 * `RTTI Type Descriptor'
	DD	00H
	DB	'.PAVCChartAddInBase133691@@', 00H
data$r	ENDS
;	COMDAT __CT??_R0PAVCChartDragCandleAnalAddInImp@@@84
xdata$x	SEGMENT
__CT??_R0PAVCChartDragCandleAnalAddInImp@@@84 DD 01H
	DD	FLAT:??_R0PAVCChartDragCandleAnalAddInImp@@@8
	DD	00H
	DD	0ffffffffH
	ORG $+4
	DD	04H
	DD	00H
xdata$x	ENDS
;	COMDAT ??_R0PAVCChartDragCandleAnalAddInImp@@@8
data$r	SEGMENT
??_R0PAVCChartDragCandleAnalAddInImp@@@8 DD FLAT:??_7type_info@@6B@ ; CChartDragCandleAnalAddInImp * `RTTI Type Descriptor'
	DD	00H
	DB	'.PAVCChartDragCandleAnalAddInImp@@', 00H
data$r	ENDS
;	COMDAT __CTA7PAVCChartDragCandleAnalAddInImp@@
xdata$x	SEGMENT
__CTA7PAVCChartDragCandleAnalAddInImp@@ DD 07H
	DD	FLAT:__CT??_R0PAVCChartDragCandleAnalAddInImp@@@84
	DD	FLAT:__CT??_R0PAVCChartAddInBase133691@@@84
	DD	FLAT:__CT??_R0PAVCIWUnknown@@@84
	DD	FLAT:__CT??_R0PAVCObject@@@84
	DD	FLAT:__CT??_R0PAUIChartAddIn133691@@@848
	DD	FLAT:__CT??_R0PAUIUnknown@@@848
	DD	FLAT:__CT??_R0PAX@84
xdata$x	ENDS
;	COMDAT __TI7PAVCChartDragCandleAnalAddInImp@@
xdata$x	SEGMENT
__TI7PAVCChartDragCandleAnalAddInImp@@ DD 00H
	DD	00H
	DD	00H
	DD	FLAT:__CTA7PAVCChartDragCandleAnalAddInImp@@
xdata$x	ENDS
;	COMDAT ??_C@_08KLIIINKM@MMDDHHMM@
CONST	SEGMENT
??_C@_08KLIIINKM@MMDDHHMM@ DB 'MMDDHHMM', 00H		; `string'
CONST	ENDS
;	COMDAT ??_C@_06EBMMBHJD@YYYYMM@
CONST	SEGMENT
??_C@_06EBMMBHJD@YYYYMM@ DB 'YYYYMM', 00H		; `string'
CONST	ENDS
;	COMDAT ??_C@_08DKDJLCMP@YYYYMMDD@
CONST	SEGMENT
??_C@_08DKDJLCMP@YYYYMMDD@ DB 'YYYYMMDD', 00H		; `string'
CONST	ENDS
;	COMDAT ??_7CChartDragCandleAnalAddInImp@@6BIChartAddIn133691@@@
CONST	SEGMENT
??_7CChartDragCandleAnalAddInImp@@6BIChartAddIn133691@@@ DD FLAT:??_R4CChartDragCandleAnalAddInImp@@6BIChartAddIn133691@@@ ; CChartDragCandleAnalAddInImp::`vftable'
	DD	FLAT:?QueryInterface@CChartAddInBase133691@@O7AGJABU_GUID@@PAPAX@Z
	DD	FLAT:?AddRef@CChartAddInBase133691@@O7AGKXZ
	DD	FLAT:?Release@CChartAddInBase133691@@O7AGKXZ
	DD	FLAT:??_ECChartDragCandleAnalAddInImp@@W7AEPAXI@Z
	DD	FLAT:?HasFullManager@CChartAddInBase133691@@MAEHXZ
	DD	FLAT:?GetAddInCustomInterface@CChartAddInBase133691@@MAEPAUIUnknown@@XZ
	DD	FLAT:?InvokeAddIn@CChartAddInBase133691@@MAEHHJ@Z
	DD	FLAT:?InvokeAddInStr@CChartDragCandleAnalAddInImp@@UAEHPBD0@Z
	DD	FLAT:?OnOcxDestroyWindow@CChartAddInBase133691@@MAEXXZ
	DD	FLAT:?RegisterEventMap@CChartAddInBase133691@@UAEHH@Z
	DD	FLAT:?UnregisterEventMap@CChartAddInBase133691@@UAEHXZ
	DD	FLAT:?OnGSharedDataChange@CChartAddInBase133691@@MAEXPBD0H@Z
	DD	FLAT:?OnLSharedDataChange@CChartAddInBase133691@@MAEXPBD0@Z
	DD	FLAT:?OnResetChart@CChartDragCandleAnalAddInImp@@MAEXXZ
	DD	FLAT:?OnDrawBeforeGraph@CChartAddInBase133691@@MAEXPAUHDC__@@@Z
	DD	FLAT:?OnDrawAfterGraph@CChartDragCandleAnalAddInImp@@MAEXPAUHDC__@@@Z
	DD	FLAT:?OnPacketDataMultiItem@CChartDragCandleAnalAddInImp@@MAEXPBD0H@Z
	DD	FLAT:?OnTimer@CChartAddInBase133691@@MAEXI@Z
	DD	FLAT:?OnCaptureChanged@CChartAddInBase133691@@MAEXPAUHWND__@@QAUHBITMAP__@@@Z
	DD	FLAT:?OnResetMainBlock@CChartAddInBase133691@@MAEXXZ
	DD	FLAT:?OnUserIndiatorConditionLoaded@CChartAddInBase133691@@MAEXXZ
	DD	FLAT:?OnChartItemChanged@CChartAddInBase133691@@MAEXXZ
	DD	FLAT:?OnGraphDataChanged@CChartAddInBase133691@@MAEXXZ
	DD	FLAT:?OnBlockRemoved@CChartAddInBase133691@@MAEXHH@Z
	DD	FLAT:?OnGraphAdded@CChartAddInBase133691@@MAEXPBD0@Z
	DD	FLAT:?OnManualRealData@CChartAddInBase133691@@MAEXPBDNH@Z
	DD	FLAT:?OnContextMenu@CChartAddInBase133691@@MAEXPAUHWND__@@AAUtagPOINT@@@Z
	DD	FLAT:?OnGraphDeleted@CChartAddInBase133691@@MAEXPBD0@Z
	DD	FLAT:?OnPacketTruncated@CChartAddInBase133691@@MAEXH@Z
	DD	FLAT:?OnBlockChanged@CChartAddInBase133691@@MAEXW4BLOCKBEHAVIOR@CBlockBaseData@@HHHH@Z
	DD	FLAT:?OnToolCommand@CChartAddInBase133691@@MAEXHH@Z
	DD	FLAT:?OnRealData@CChartAddInBase133691@@MAEXPBDN0@Z
	DD	FLAT:?OnIndexedRealData@CChartAddInBase133691@@MAEXPBDHN@Z
	DD	FLAT:?OnRealPacketEnd@CChartAddInBase133691@@MAEXPBD@Z
	DD	FLAT:?OnLoadEnvironment@CChartAddInBase133691@@MAEXPAUIPropertyMap@@@Z
	DD	FLAT:?OnSaveEnvironment@CChartAddInBase133691@@MAEXPAUIPropertyMap@@@Z
	DD	FLAT:?DrawCursor@CChartDragCandleAnalAddInImp@@MAE?AUtagRECT@@PAUHDC__@@@Z
	DD	FLAT:?OnRecalculationComplete@CChartAddInBase133691@@MAEXXZ
	DD	FLAT:?OnPreRealData@CChartAddInBase133691@@MAEHPBDAAN0@Z
	DD	FLAT:?OnPreIndexedRealData@CChartAddInBase133691@@MAEHPBDHAAN@Z
	DD	FLAT:?OnPreRealPacketEnd@CChartAddInBase133691@@MAEHPBD@Z
	DD	FLAT:?OnCmdMsg@CChartAddInBase133691@@MAEHIHPAUICmdUI133691@@@Z
	DD	FLAT:?OnAddInMsg@CChartAddInBase133691@@MAEHPBDJ@Z
	DD	FLAT:?OnAddInToolCommand@CChartAddInBase133691@@MAEHAAJW4EAICommandType@@JJ@Z
	DD	FLAT:?OnAddInToolCommand@CChartAddInBase133691@@MAEHAAJW4EAICommandType@@J@Z
	DD	FLAT:?OnAddInToolCommand@CChartAddInBase133691@@MAEHAAJW4EAICommandType@@PBDPAVCObject@@@Z
	DD	FLAT:?OnAddInToolCommand@CChartAddInBase133691@@MAEHAAJW4EAICommandType@@PBD@Z
	DD	FLAT:?OnAddInToolCommand@CChartAddInBase133691@@MAEHAAJW4EAICommandType@@PAUIGraphInfo133691@@@Z
	DD	FLAT:?OnAddInToolCommand@CChartAddInBase133691@@MAEHAAJW4EAICommandType@@@Z
	DD	FLAT:?OnAddInToolCommand@CChartAddInBase133691@@MAEHW4EAICommandType@@JJJJJJJJJ@Z
	DD	FLAT:?OnAddInToolCommand@CChartAddInBase133691@@MAEHW4EAICommandType@@JJ@Z
	DD	FLAT:?OnAddInToolCommand@CChartAddInBase133691@@MAEHW4EAICommandType@@JPBD11@Z
	DD	FLAT:?OnAddInToolCommand@CChartAddInBase133691@@MAEHW4EAICommandType@@JPBD@Z
	DD	FLAT:?OnAddInToolCommand@CChartAddInBase133691@@MAEHW4EAICommandType@@J@Z
	DD	FLAT:?OnAddInToolCommand@CChartAddInBase133691@@MAEHW4EAICommandType@@PBUIAddInDllBase@@@Z
	DD	FLAT:?OnAddInToolCommand@CChartAddInBase133691@@MAEHW4EAICommandType@@PBDJ@Z
	DD	FLAT:?OnAddInToolCommand@CChartAddInBase133691@@MAEHW4EAICommandType@@PBD1@Z
	DD	FLAT:?OnAddInToolCommand@CChartAddInBase133691@@MAEHW4EAICommandType@@PBD@Z
	DD	FLAT:?OnAddInToolCommand@CChartAddInBase133691@@MAEHW4EAICommandType@@PAUHDC__@@IAAUtagPOINT@@K@Z
	DD	FLAT:?OnAddInToolCommand@CChartAddInBase133691@@MAEHW4EAICommandType@@@Z
	DD	FLAT:?OnKeyDown@CChartAddInBase133691@@MAEHIII@Z
	DD	FLAT:?OnKeyUp@CChartAddInBase133691@@MAEHIII@Z
	DD	FLAT:?OnMouseWheel@CChartAddInBase133691@@MAEHIFUtagPOINT@@K@Z
	DD	FLAT:?OnMouseMove@CChartDragCandleAnalAddInImp@@MAEHPAUHDC__@@IAAUtagPOINT@@KQAUHBITMAP__@@@Z
	DD	FLAT:?OnLButtonDown@CChartDragCandleAnalAddInImp@@MAEHPAUHDC__@@IAAUtagPOINT@@K@Z
	DD	FLAT:?OnLButtonUp@CChartDragCandleAnalAddInImp@@MAEHPAUHDC__@@IAAUtagPOINT@@K@Z
	DD	FLAT:?OnLButtonDblClk@CChartAddInBase133691@@MAEHPAUHDC__@@IAAUtagPOINT@@K@Z
	DD	FLAT:?OnRButtonDown@CChartAddInBase133691@@MAEHPAUHDC__@@IAAUtagPOINT@@K@Z
	DD	FLAT:?OnRButtonUp@CChartAddInBase133691@@MAEHPAUHDC__@@IAAUtagPOINT@@K@Z
	DD	FLAT:?OnRButtonDblClk@CChartAddInBase133691@@MAEHPAUHDC__@@IAAUtagPOINT@@K@Z
CONST	ENDS
;	COMDAT ??_7CChartDragCandleAnalAddInImp@@6BCIWUnknown@@@
CONST	SEGMENT
??_7CChartDragCandleAnalAddInImp@@6BCIWUnknown@@@ DD FLAT:??_R4CChartDragCandleAnalAddInImp@@6BCIWUnknown@@@ ; CChartDragCandleAnalAddInImp::`vftable'
	DD	FLAT:?GetRuntimeClass@CObject@@UBEPAUCRuntimeClass@@XZ
	DD	FLAT:??_ECChartDragCandleAnalAddInImp@@UAEPAXI@Z
	DD	FLAT:?Serialize@CObject@@UAEXAAVCArchive@@@Z
	DD	FLAT:?AssertValid@CObject@@UBEXXZ
	DD	FLAT:?Dump@CObject@@UBEXAAVCDumpContext@@@Z
	DD	FLAT:?AddRef@CChartAddInBase133691@@MAGKXZ
	DD	FLAT:?Release@CChartAddInBase133691@@MAGKXZ
	DD	FLAT:?QueryInterface@CChartAddInBase133691@@MAGJABU_GUID@@PAPAX@Z
	DD	FLAT:?PostConstruct@CIWUnknown@@MAEXXZ
	DD	FLAT:?PreDestructX@CIWUnknown@@MAEXXZ
	DD	FLAT:?PreDestruct@CIWUnknown@@MAEXXZ
	DD	FLAT:?GetRegisteredEventMap@CChartDragCandleAnalAddInImp@@MBEPBW4EAddInEventType@IChartAddIn133691@@XZ
CONST	ENDS
;	COMDAT ??_7?$CList@V?$CStringT@DV?$StrTraitMFC_DLL@DV?$ChTraitsCRT@D@ATL@@@@@ATL@@AAV12@@@6B@
CONST	SEGMENT
??_7?$CList@V?$CStringT@DV?$StrTraitMFC_DLL@DV?$ChTraitsCRT@D@ATL@@@@@ATL@@AAV12@@@6B@ DD FLAT:??_R4?$CList@V?$CStringT@DV?$StrTraitMFC_DLL@DV?$ChTraitsCRT@D@ATL@@@@@ATL@@AAV12@@@6B@ ; CList<ATL::CStringT<char,StrTraitMFC_DLL<char,ATL::ChTraitsCRT<char> > >,ATL::CStringT<char,StrTraitMFC_DLL<char,ATL::ChTraitsCRT<char> > > &>::`vftable'
	DD	FLAT:?GetRuntimeClass@CObject@@UBEPAUCRuntimeClass@@XZ
	DD	FLAT:??_E?$CList@V?$CStringT@DV?$StrTraitMFC_DLL@DV?$ChTraitsCRT@D@ATL@@@@@ATL@@AAV12@@@UAEPAXI@Z
	DD	FLAT:?Serialize@?$CList@V?$CStringT@DV?$StrTraitMFC_DLL@DV?$ChTraitsCRT@D@ATL@@@@@ATL@@AAV12@@@UAEXAAVCArchive@@@Z
	DD	FLAT:?AssertValid@CObject@@UBEXXZ
	DD	FLAT:?Dump@CObject@@UBEXAAVCDumpContext@@@Z
CONST	ENDS
;	COMDAT ??_R1A@?0A@EA@CRgn@@8
rdata$r	SEGMENT
??_R1A@?0A@EA@CRgn@@8 DD FLAT:??_R0?AVCRgn@@@8		; CRgn::`RTTI Base Class Descriptor at (0,-1,0,64)'
	DD	02H
	DD	00H
	DD	0ffffffffH
	DD	00H
	DD	040H
	DD	FLAT:??_R3CRgn@@8
rdata$r	ENDS
;	COMDAT ??_R2CRgn@@8
rdata$r	SEGMENT
??_R2CRgn@@8 DD	FLAT:??_R1A@?0A@EA@CRgn@@8		; CRgn::`RTTI Base Class Array'
	DD	FLAT:??_R1A@?0A@EA@CGdiObject@@8
	DD	FLAT:??_R1A@?0A@EA@CObject@@8
rdata$r	ENDS
;	COMDAT ??_R3CRgn@@8
rdata$r	SEGMENT
??_R3CRgn@@8 DD	00H					; CRgn::`RTTI Class Hierarchy Descriptor'
	DD	00H
	DD	03H
	DD	FLAT:??_R2CRgn@@8
rdata$r	ENDS
;	COMDAT ??_R0?AVCRgn@@@8
data$rs	SEGMENT
??_R0?AVCRgn@@@8 DD FLAT:??_7type_info@@6B@		; CRgn `RTTI Type Descriptor'
	DD	00H
	DB	'.?AVCRgn@@', 00H
data$rs	ENDS
;	COMDAT ??_R4CRgn@@6B@
rdata$r	SEGMENT
??_R4CRgn@@6B@ DD 00H					; CRgn::`RTTI Complete Object Locator'
	DD	00H
	DD	00H
	DD	FLAT:??_R0?AVCRgn@@@8
	DD	FLAT:??_R3CRgn@@8
rdata$r	ENDS
;	COMDAT ??_R1A@?0A@EA@CBitmap@@8
rdata$r	SEGMENT
??_R1A@?0A@EA@CBitmap@@8 DD FLAT:??_R0?AVCBitmap@@@8	; CBitmap::`RTTI Base Class Descriptor at (0,-1,0,64)'
	DD	02H
	DD	00H
	DD	0ffffffffH
	DD	00H
	DD	040H
	DD	FLAT:??_R3CBitmap@@8
rdata$r	ENDS
;	COMDAT ??_R2CBitmap@@8
rdata$r	SEGMENT
??_R2CBitmap@@8 DD FLAT:??_R1A@?0A@EA@CBitmap@@8	; CBitmap::`RTTI Base Class Array'
	DD	FLAT:??_R1A@?0A@EA@CGdiObject@@8
	DD	FLAT:??_R1A@?0A@EA@CObject@@8
rdata$r	ENDS
;	COMDAT ??_R3CBitmap@@8
rdata$r	SEGMENT
??_R3CBitmap@@8 DD 00H					; CBitmap::`RTTI Class Hierarchy Descriptor'
	DD	00H
	DD	03H
	DD	FLAT:??_R2CBitmap@@8
rdata$r	ENDS
;	COMDAT ??_R0?AVCBitmap@@@8
data$rs	SEGMENT
??_R0?AVCBitmap@@@8 DD FLAT:??_7type_info@@6B@		; CBitmap `RTTI Type Descriptor'
	DD	00H
	DB	'.?AVCBitmap@@', 00H
data$rs	ENDS
;	COMDAT ??_R4CBitmap@@6B@
rdata$r	SEGMENT
??_R4CBitmap@@6B@ DD 00H				; CBitmap::`RTTI Complete Object Locator'
	DD	00H
	DD	00H
	DD	FLAT:??_R0?AVCBitmap@@@8
	DD	FLAT:??_R3CBitmap@@8
rdata$r	ENDS
;	COMDAT ??_R1A@?0A@EA@CGdiObject@@8
rdata$r	SEGMENT
??_R1A@?0A@EA@CGdiObject@@8 DD FLAT:??_R0?AVCGdiObject@@@8 ; CGdiObject::`RTTI Base Class Descriptor at (0,-1,0,64)'
	DD	01H
	DD	00H
	DD	0ffffffffH
	DD	00H
	DD	040H
	DD	FLAT:??_R3CGdiObject@@8
rdata$r	ENDS
;	COMDAT ??_R2CGdiObject@@8
rdata$r	SEGMENT
??_R2CGdiObject@@8 DD FLAT:??_R1A@?0A@EA@CGdiObject@@8	; CGdiObject::`RTTI Base Class Array'
	DD	FLAT:??_R1A@?0A@EA@CObject@@8
rdata$r	ENDS
;	COMDAT ??_R3CGdiObject@@8
rdata$r	SEGMENT
??_R3CGdiObject@@8 DD 00H				; CGdiObject::`RTTI Class Hierarchy Descriptor'
	DD	00H
	DD	02H
	DD	FLAT:??_R2CGdiObject@@8
rdata$r	ENDS
;	COMDAT ??_R0?AVCGdiObject@@@8
data$rs	SEGMENT
??_R0?AVCGdiObject@@@8 DD FLAT:??_7type_info@@6B@	; CGdiObject `RTTI Type Descriptor'
	DD	00H
	DB	'.?AVCGdiObject@@', 00H
data$rs	ENDS
;	COMDAT ??_R4CGdiObject@@6B@
rdata$r	SEGMENT
??_R4CGdiObject@@6B@ DD 00H				; CGdiObject::`RTTI Complete Object Locator'
	DD	00H
	DD	00H
	DD	FLAT:??_R0?AVCGdiObject@@@8
	DD	FLAT:??_R3CGdiObject@@8
rdata$r	ENDS
;	COMDAT ??_R1A@?0A@EA@IUnknown@@8
rdata$r	SEGMENT
??_R1A@?0A@EA@IUnknown@@8 DD FLAT:??_R0?AUIUnknown@@@8	; IUnknown::`RTTI Base Class Descriptor at (0,-1,0,64)'
	DD	00H
	DD	00H
	DD	0ffffffffH
	DD	00H
	DD	040H
	DD	FLAT:??_R3IUnknown@@8
rdata$r	ENDS
;	COMDAT ??_R2IUnknown@@8
rdata$r	SEGMENT
??_R2IUnknown@@8 DD FLAT:??_R1A@?0A@EA@IUnknown@@8	; IUnknown::`RTTI Base Class Array'
rdata$r	ENDS
;	COMDAT ??_R3IUnknown@@8
rdata$r	SEGMENT
??_R3IUnknown@@8 DD 00H					; IUnknown::`RTTI Class Hierarchy Descriptor'
	DD	00H
	DD	01H
	DD	FLAT:??_R2IUnknown@@8
rdata$r	ENDS
;	COMDAT ??_R0?AUIUnknown@@@8
data$rs	SEGMENT
??_R0?AUIUnknown@@@8 DD FLAT:??_7type_info@@6B@		; IUnknown `RTTI Type Descriptor'
	DD	00H
	DB	'.?AUIUnknown@@', 00H
data$rs	ENDS
;	COMDAT ??_R1A@?0A@EA@CObject@@8
rdata$r	SEGMENT
??_R1A@?0A@EA@CObject@@8 DD FLAT:??_R0?AVCObject@@@8	; CObject::`RTTI Base Class Descriptor at (0,-1,0,64)'
	DD	00H
	DD	00H
	DD	0ffffffffH
	DD	00H
	DD	040H
	DD	FLAT:??_R3CObject@@8
rdata$r	ENDS
;	COMDAT ??_R2CObject@@8
rdata$r	SEGMENT
??_R2CObject@@8 DD FLAT:??_R1A@?0A@EA@CObject@@8	; CObject::`RTTI Base Class Array'
rdata$r	ENDS
;	COMDAT ??_R3CObject@@8
rdata$r	SEGMENT
??_R3CObject@@8 DD 00H					; CObject::`RTTI Class Hierarchy Descriptor'
	DD	00H
	DD	01H
	DD	FLAT:??_R2CObject@@8
rdata$r	ENDS
;	COMDAT ??_R0?AVCObject@@@8
data$rs	SEGMENT
??_R0?AVCObject@@@8 DD FLAT:??_7type_info@@6B@		; CObject `RTTI Type Descriptor'
	DD	00H
	DB	'.?AVCObject@@', 00H
data$rs	ENDS
;	COMDAT ??_C@_0N@OMEMOKLE@?$CFTs?5?$CI?$CFTs?3?$CFd?$CJ@
CONST	SEGMENT
??_C@_0N@OMEMOKLE@?$CFTs?5?$CI?$CFTs?3?$CFd?$CJ@ DB '%Ts (%Ts:%d)', 00H ; `string'
CONST	ENDS
;	COMDAT ??_C@_0BB@HBOOMJBF@?$CFTs?5?$CI?$CFTs?3?$CFd?$CJ?6?$CFTs@
CONST	SEGMENT
??_C@_0BB@HBOOMJBF@?$CFTs?5?$CI?$CFTs?3?$CFd?$CJ?6?$CFTs@ DB '%Ts (%Ts:%d'
	DB	')', 0aH, '%Ts', 00H				; `string'
CONST	ENDS
;	COMDAT ??_C@_0BP@OIEOKIDM@Exception?5thrown?5in?5destructor@
CONST	SEGMENT
??_C@_0BP@OIEOKIDM@Exception?5thrown?5in?5destructor@ DB 'Exception throw'
	DB	'n in destructor', 00H			; `string'
CONST	ENDS
;	COMDAT ??_C@_0HD@JJCHHHNK@C?3?2Program?5Files?5?$CIx86?$CJ?2Microsof@
CONST	SEGMENT
??_C@_0HD@JJCHHHNK@C?3?2Program?5Files?5?$CIx86?$CJ?2Microsof@ DB 'C:\Pro'
	DB	'gram Files (x86)\Microsoft Visual Studio\2019\Community\VC\To'
	DB	'ols\MSVC\14.29.30133\atlmfc\include\afxwin1.inl', 00H ; `string'
CONST	ENDS
;	COMDAT ??_7CRgn@@6B@
CONST	SEGMENT
??_7CRgn@@6B@ DD FLAT:??_R4CRgn@@6B@			; CRgn::`vftable'
	DD	FLAT:?GetRuntimeClass@CRgn@@UBEPAUCRuntimeClass@@XZ
	DD	FLAT:??_ECRgn@@UAEPAXI@Z
	DD	FLAT:?Serialize@CObject@@UAEXAAVCArchive@@@Z
	DD	FLAT:?AssertValid@CObject@@UBEXXZ
	DD	FLAT:?Dump@CObject@@UBEXAAVCDumpContext@@@Z
CONST	ENDS
;	COMDAT ??_7CBitmap@@6B@
CONST	SEGMENT
??_7CBitmap@@6B@ DD FLAT:??_R4CBitmap@@6B@		; CBitmap::`vftable'
	DD	FLAT:?GetRuntimeClass@CBitmap@@UBEPAUCRuntimeClass@@XZ
	DD	FLAT:??_ECBitmap@@UAEPAXI@Z
	DD	FLAT:?Serialize@CObject@@UAEXAAVCArchive@@@Z
	DD	FLAT:?AssertValid@CObject@@UBEXXZ
	DD	FLAT:?Dump@CObject@@UBEXAAVCDumpContext@@@Z
CONST	ENDS
;	COMDAT ??_7CGdiObject@@6B@
CONST	SEGMENT
??_7CGdiObject@@6B@ DD FLAT:??_R4CGdiObject@@6B@	; CGdiObject::`vftable'
	DD	FLAT:?GetRuntimeClass@CGdiObject@@UBEPAUCRuntimeClass@@XZ
	DD	FLAT:??_ECGdiObject@@UAEPAXI@Z
	DD	FLAT:?Serialize@CObject@@UAEXAAVCArchive@@@Z
	DD	FLAT:?AssertValid@CObject@@UBEXXZ
	DD	FLAT:?Dump@CObject@@UBEXAAVCDumpContext@@@Z
CONST	ENDS
;	COMDAT ??_C@_00CNPNBAHC@@
CONST	SEGMENT
??_C@_00CNPNBAHC@@ DB 00H				; `string'
CONST	ENDS
;	COMDAT ??_R0PAVCException@@@8
data$r	SEGMENT
??_R0PAVCException@@@8 DD FLAT:??_7type_info@@6B@	; CException * `RTTI Type Descriptor'
	DD	00H
	DB	'.PAVCException@@', 00H
data$r	ENDS
;	COMDAT xdata$x
xdata$x	SEGMENT
__unwindtable$??_GCChartDragCandleAnalAddInImp@@UAEPAXI@Z DD 0ffffffffH
	DD	FLAT:___std_terminate
__ehfuncinfo$??_GCChartDragCandleAnalAddInImp@@UAEPAXI@Z DD 019930522H
	DD	01H
	DD	FLAT:__unwindtable$??_GCChartDragCandleAnalAddInImp@@UAEPAXI@Z
	DD	2 DUP(00H)
	DD	2 DUP(00H)
	DD	00H
	DD	05H
xdata$x	ENDS
;	COMDAT xdata$x
xdata$x	SEGMENT
__unwindtable$?TokenizeEx@CChartDragCandleAnalAddInImp@@IAE?AV?$CStringT@DV?$StrTraitMFC_DLL@DV?$ChTraitsCRT@D@ATL@@@@@ATL@@V23@PBDAAH@Z DD 0ffffffffH
	DD	FLAT:__unwindfunclet$?TokenizeEx@CChartDragCandleAnalAddInImp@@IAE?AV?$CStringT@DV?$StrTraitMFC_DLL@DV?$ChTraitsCRT@D@ATL@@@@@ATL@@V23@PBDAAH@Z$0
	DD	00H
	DD	FLAT:__unwindfunclet$?TokenizeEx@CChartDragCandleAnalAddInImp@@IAE?AV?$CStringT@DV?$StrTraitMFC_DLL@DV?$ChTraitsCRT@D@ATL@@@@@ATL@@V23@PBDAAH@Z$1
	DD	01H
	DD	FLAT:__unwindfunclet$?TokenizeEx@CChartDragCandleAnalAddInImp@@IAE?AV?$CStringT@DV?$StrTraitMFC_DLL@DV?$ChTraitsCRT@D@ATL@@@@@ATL@@V23@PBDAAH@Z$2
__ehfuncinfo$?TokenizeEx@CChartDragCandleAnalAddInImp@@IAE?AV?$CStringT@DV?$StrTraitMFC_DLL@DV?$ChTraitsCRT@D@ATL@@@@@ATL@@V23@PBDAAH@Z DD 019930522H
	DD	03H
	DD	FLAT:__unwindtable$?TokenizeEx@CChartDragCandleAnalAddInImp@@IAE?AV?$CStringT@DV?$StrTraitMFC_DLL@DV?$ChTraitsCRT@D@ATL@@@@@ATL@@V23@PBDAAH@Z
	DD	2 DUP(00H)
	DD	2 DUP(00H)
	DD	00H
	DD	01H
xdata$x	ENDS
;	COMDAT xdata$x
xdata$x	SEGMENT
__catchsym$?AddData@CChartDragCandleAnalAddInImp@@IAEHHH@Z$6 DD 00H
	DD	FLAT:??_R0PAVCChartDragCandleAnalAddInImp@@@8
	DD	00H
	DD	FLAT:__catch$?AddData@CChartDragCandleAnalAddInImp@@IAEHHH@Z$0
__tryblocktable$?AddData@CChartDragCandleAnalAddInImp@@IAEHHH@Z DD 00H
	DD	04H
	DD	05H
	DD	01H
	DD	FLAT:__catchsym$?AddData@CChartDragCandleAnalAddInImp@@IAEHHH@Z$6
__ehfuncinfo$?AddData@CChartDragCandleAnalAddInImp@@IAEHHH@Z DD 019930522H
	DD	06H
	DD	FLAT:__unwindtable$?AddData@CChartDragCandleAnalAddInImp@@IAEHHH@Z
	DD	01H
	DD	FLAT:__tryblocktable$?AddData@CChartDragCandleAnalAddInImp@@IAEHHH@Z
	DD	2 DUP(00H)
	DD	00H
	DD	01H
__unwindtable$?AddData@CChartDragCandleAnalAddInImp@@IAEHHH@Z DD 0ffffffffH
	DD	00H
	DD	00H
	DD	FLAT:__unwindfunclet$?AddData@CChartDragCandleAnalAddInImp@@IAEHHH@Z$2
	DD	01H
	DD	FLAT:__unwindfunclet$?AddData@CChartDragCandleAnalAddInImp@@IAEHHH@Z$3
	DD	02H
	DD	FLAT:__unwindfunclet$?AddData@CChartDragCandleAnalAddInImp@@IAEHHH@Z$4
	DD	03H
	DD	FLAT:__unwindfunclet$?AddData@CChartDragCandleAnalAddInImp@@IAEHHH@Z$5
	DD	0ffffffffH
	DD	00H
xdata$x	ENDS
;	COMDAT xdata$x
xdata$x	SEGMENT
__unwindtable$??_G?$CList@V?$CStringT@DV?$StrTraitMFC_DLL@DV?$ChTraitsCRT@D@ATL@@@@@ATL@@AAV12@@@UAEPAXI@Z DD 0ffffffffH
	DD	FLAT:___std_terminate
__ehfuncinfo$??_G?$CList@V?$CStringT@DV?$StrTraitMFC_DLL@DV?$ChTraitsCRT@D@ATL@@@@@ATL@@AAV12@@@UAEPAXI@Z DD 019930522H
	DD	01H
	DD	FLAT:__unwindtable$??_G?$CList@V?$CStringT@DV?$StrTraitMFC_DLL@DV?$ChTraitsCRT@D@ATL@@@@@ATL@@AAV12@@@UAEPAXI@Z
	DD	2 DUP(00H)
	DD	2 DUP(00H)
	DD	00H
	DD	05H
xdata$x	ENDS
;	COMDAT xdata$x
xdata$x	SEGMENT
__unwindtable$?Serialize@?$CList@V?$CStringT@DV?$StrTraitMFC_DLL@DV?$ChTraitsCRT@D@ATL@@@@@ATL@@AAV12@@@UAEXAAVCArchive@@@Z DD 0ffffffffH
	DD	FLAT:__unwindfunclet$?Serialize@?$CList@V?$CStringT@DV?$StrTraitMFC_DLL@DV?$ChTraitsCRT@D@ATL@@@@@ATL@@AAV12@@@UAEXAAVCArchive@@@Z$0
__ehfuncinfo$?Serialize@?$CList@V?$CStringT@DV?$StrTraitMFC_DLL@DV?$ChTraitsCRT@D@ATL@@@@@ATL@@AAV12@@@UAEXAAVCArchive@@@Z DD 019930522H
	DD	01H
	DD	FLAT:__unwindtable$?Serialize@?$CList@V?$CStringT@DV?$StrTraitMFC_DLL@DV?$ChTraitsCRT@D@ATL@@@@@ATL@@AAV12@@@UAEXAAVCArchive@@@Z
	DD	2 DUP(00H)
	DD	2 DUP(00H)
	DD	00H
	DD	01H
xdata$x	ENDS
;	COMDAT xdata$x
xdata$x	SEGMENT
__ehfuncinfo$??1?$CList@V?$CStringT@DV?$StrTraitMFC_DLL@DV?$ChTraitsCRT@D@ATL@@@@@ATL@@AAV12@@@UAE@XZ DD 019930522H
	DD	00H
	DD	00H
	DD	2 DUP(00H)
	DD	2 DUP(00H)
	DD	00H
	DD	05H
xdata$x	ENDS
;	COMDAT xdata$x
xdata$x	SEGMENT
__catchsym$?GetIndexFromValue@CChartDragCandleAnalAddInImp@@IAEHV?$CStringT@DV?$StrTraitMFC_DLL@DV?$ChTraitsCRT@D@ATL@@@@@ATL@@HH@Z$11 DD 00H
	DD	FLAT:??_R0PAVCChartDragCandleAnalAddInImp@@@8
	DD	00H
	DD	FLAT:__catch$?GetIndexFromValue@CChartDragCandleAnalAddInImp@@IAEHV?$CStringT@DV?$StrTraitMFC_DLL@DV?$ChTraitsCRT@D@ATL@@@@@ATL@@HH@Z$0
__tryblocktable$?GetIndexFromValue@CChartDragCandleAnalAddInImp@@IAEHV?$CStringT@DV?$StrTraitMFC_DLL@DV?$ChTraitsCRT@D@ATL@@@@@ATL@@HH@Z DD 01H
	DD	06H
	DD	07H
	DD	01H
	DD	FLAT:__catchsym$?GetIndexFromValue@CChartDragCandleAnalAddInImp@@IAEHV?$CStringT@DV?$StrTraitMFC_DLL@DV?$ChTraitsCRT@D@ATL@@@@@ATL@@HH@Z$11
__ehfuncinfo$?GetIndexFromValue@CChartDragCandleAnalAddInImp@@IAEHV?$CStringT@DV?$StrTraitMFC_DLL@DV?$ChTraitsCRT@D@ATL@@@@@ATL@@HH@Z DD 019930522H
	DD	08H
	DD	FLAT:__unwindtable$?GetIndexFromValue@CChartDragCandleAnalAddInImp@@IAEHV?$CStringT@DV?$StrTraitMFC_DLL@DV?$ChTraitsCRT@D@ATL@@@@@ATL@@HH@Z
	DD	01H
	DD	FLAT:__tryblocktable$?GetIndexFromValue@CChartDragCandleAnalAddInImp@@IAEHV?$CStringT@DV?$StrTraitMFC_DLL@DV?$ChTraitsCRT@D@ATL@@@@@ATL@@HH@Z
	DD	2 DUP(00H)
	DD	00H
	DD	01H
__unwindtable$?GetIndexFromValue@CChartDragCandleAnalAddInImp@@IAEHV?$CStringT@DV?$StrTraitMFC_DLL@DV?$ChTraitsCRT@D@ATL@@@@@ATL@@HH@Z DD 0ffffffffH
	DD	FLAT:__unwindfunclet$?GetIndexFromValue@CChartDragCandleAnalAddInImp@@IAEHV?$CStringT@DV?$StrTraitMFC_DLL@DV?$ChTraitsCRT@D@ATL@@@@@ATL@@HH@Z$2
	DD	00H
	DD	00H
	DD	01H
	DD	FLAT:__unwindfunclet$?GetIndexFromValue@CChartDragCandleAnalAddInImp@@IAEHV?$CStringT@DV?$StrTraitMFC_DLL@DV?$ChTraitsCRT@D@ATL@@@@@ATL@@HH@Z$3
	DD	02H
	DD	FLAT:__unwindfunclet$?GetIndexFromValue@CChartDragCandleAnalAddInImp@@IAEHV?$CStringT@DV?$StrTraitMFC_DLL@DV?$ChTraitsCRT@D@ATL@@@@@ATL@@HH@Z$4
	DD	01H
	DD	FLAT:___std_terminate
	DD	01H
	DD	FLAT:___std_terminate
	DD	01H
	DD	FLAT:___std_terminate
	DD	00H
	DD	00H
xdata$x	ENDS
;	COMDAT xdata$x
xdata$x	SEGMENT
__unwindtable$?SelectClipRegion@CChartDragCandleAnalAddInImp@@IAEXPAVCDC@@ABVCRect@@@Z DD 0ffffffffH
	DD	FLAT:__unwindfunclet$?SelectClipRegion@CChartDragCandleAnalAddInImp@@IAEXPAVCDC@@ABVCRect@@@Z$0
__ehfuncinfo$?SelectClipRegion@CChartDragCandleAnalAddInImp@@IAEXPAVCDC@@ABVCRect@@@Z DD 019930522H
	DD	01H
	DD	FLAT:__unwindtable$?SelectClipRegion@CChartDragCandleAnalAddInImp@@IAEXPAVCDC@@ABVCRect@@@Z
	DD	2 DUP(00H)
	DD	2 DUP(00H)
	DD	00H
	DD	01H
xdata$x	ENDS
;	COMDAT xdata$x
xdata$x	SEGMENT
__unwindtable$?DrawFill@CChartDragCandleAnalAddInImp@@IAE?AVCRect@@PAVCDC@@ABVCPoint@@1ABV2@@Z DD 0ffffffffH
	DD	FLAT:__unwindfunclet$?DrawFill@CChartDragCandleAnalAddInImp@@IAE?AVCRect@@PAVCDC@@ABVCPoint@@1ABV2@@Z$0
	DD	00H
	DD	FLAT:__unwindfunclet$?DrawFill@CChartDragCandleAnalAddInImp@@IAE?AVCRect@@PAVCDC@@ABVCPoint@@1ABV2@@Z$1
	DD	01H
	DD	FLAT:__unwindfunclet$?DrawFill@CChartDragCandleAnalAddInImp@@IAE?AVCRect@@PAVCDC@@ABVCPoint@@1ABV2@@Z$2
__ehfuncinfo$?DrawFill@CChartDragCandleAnalAddInImp@@IAE?AVCRect@@PAVCDC@@ABVCPoint@@1ABV2@@Z DD 019930522H
	DD	03H
	DD	FLAT:__unwindtable$?DrawFill@CChartDragCandleAnalAddInImp@@IAE?AVCRect@@PAVCDC@@ABVCPoint@@1ABV2@@Z
	DD	2 DUP(00H)
	DD	2 DUP(00H)
	DD	00H
	DD	01H
xdata$x	ENDS
;	COMDAT xdata$x
xdata$x	SEGMENT
__unwindtable$?OnLButtonUp@CChartDragCandleAnalAddInImp@@MAEHPAUHDC__@@IAAUtagPOINT@@K@Z DD 0ffffffffH
	DD	FLAT:__unwindfunclet$?OnLButtonUp@CChartDragCandleAnalAddInImp@@MAEHPAUHDC__@@IAAUtagPOINT@@K@Z$0
	DD	00H
	DD	FLAT:__unwindfunclet$?OnLButtonUp@CChartDragCandleAnalAddInImp@@MAEHPAUHDC__@@IAAUtagPOINT@@K@Z$1
	DD	01H
	DD	FLAT:__unwindfunclet$?OnLButtonUp@CChartDragCandleAnalAddInImp@@MAEHPAUHDC__@@IAAUtagPOINT@@K@Z$2
	DD	01H
	DD	FLAT:___std_terminate
__ehfuncinfo$?OnLButtonUp@CChartDragCandleAnalAddInImp@@MAEHPAUHDC__@@IAAUtagPOINT@@K@Z DD 019930522H
	DD	04H
	DD	FLAT:__unwindtable$?OnLButtonUp@CChartDragCandleAnalAddInImp@@MAEHPAUHDC__@@IAAUtagPOINT@@K@Z
	DD	2 DUP(00H)
	DD	2 DUP(00H)
	DD	00H
	DD	01H
xdata$x	ENDS
;	COMDAT xdata$x
xdata$x	SEGMENT
__unwindtable$?OnLButtonDown@CChartDragCandleAnalAddInImp@@MAEHPAUHDC__@@IAAUtagPOINT@@K@Z DD 0ffffffffH
	DD	FLAT:__unwindfunclet$?OnLButtonDown@CChartDragCandleAnalAddInImp@@MAEHPAUHDC__@@IAAUtagPOINT@@K@Z$0
__ehfuncinfo$?OnLButtonDown@CChartDragCandleAnalAddInImp@@MAEHPAUHDC__@@IAAUtagPOINT@@K@Z DD 019930522H
	DD	01H
	DD	FLAT:__unwindtable$?OnLButtonDown@CChartDragCandleAnalAddInImp@@MAEHPAUHDC__@@IAAUtagPOINT@@K@Z
	DD	2 DUP(00H)
	DD	2 DUP(00H)
	DD	00H
	DD	01H
xdata$x	ENDS
;	COMDAT xdata$x
xdata$x	SEGMENT
__unwindtable$?OnMouseMove@CChartDragCandleAnalAddInImp@@MAEHPAUHDC__@@IAAUtagPOINT@@KQAUHBITMAP__@@@Z DD 0ffffffffH
	DD	FLAT:__unwindfunclet$?OnMouseMove@CChartDragCandleAnalAddInImp@@MAEHPAUHDC__@@IAAUtagPOINT@@KQAUHBITMAP__@@@Z$0
__ehfuncinfo$?OnMouseMove@CChartDragCandleAnalAddInImp@@MAEHPAUHDC__@@IAAUtagPOINT@@KQAUHBITMAP__@@@Z DD 019930522H
	DD	01H
	DD	FLAT:__unwindtable$?OnMouseMove@CChartDragCandleAnalAddInImp@@MAEHPAUHDC__@@IAAUtagPOINT@@KQAUHBITMAP__@@@Z
	DD	2 DUP(00H)
	DD	2 DUP(00H)
	DD	00H
	DD	01H
xdata$x	ENDS
;	COMDAT xdata$x
xdata$x	SEGMENT
__unwindtable$?OnDrawAfterGraph@CChartDragCandleAnalAddInImp@@MAEXPAUHDC__@@@Z DD 0ffffffffH
	DD	FLAT:__unwindfunclet$?OnDrawAfterGraph@CChartDragCandleAnalAddInImp@@MAEXPAUHDC__@@@Z$0
__ehfuncinfo$?OnDrawAfterGraph@CChartDragCandleAnalAddInImp@@MAEXPAUHDC__@@@Z DD 019930522H
	DD	01H
	DD	FLAT:__unwindtable$?OnDrawAfterGraph@CChartDragCandleAnalAddInImp@@MAEXPAUHDC__@@@Z
	DD	2 DUP(00H)
	DD	2 DUP(00H)
	DD	00H
	DD	01H
xdata$x	ENDS
;	COMDAT xdata$x
xdata$x	SEGMENT
__unwindtable$?DrawCursor@CChartDragCandleAnalAddInImp@@MAE?AUtagRECT@@PAUHDC__@@@Z DD 0ffffffffH
	DD	FLAT:__unwindfunclet$?DrawCursor@CChartDragCandleAnalAddInImp@@MAE?AUtagRECT@@PAUHDC__@@@Z$0
__ehfuncinfo$?DrawCursor@CChartDragCandleAnalAddInImp@@MAE?AUtagRECT@@PAUHDC__@@@Z DD 019930522H
	DD	01H
	DD	FLAT:__unwindtable$?DrawCursor@CChartDragCandleAnalAddInImp@@MAE?AUtagRECT@@PAUHDC__@@@Z
	DD	2 DUP(00H)
	DD	2 DUP(00H)
	DD	00H
	DD	01H
xdata$x	ENDS
;	COMDAT xdata$x
xdata$x	SEGMENT
__unwindtable$?InvokeAddInStr@CChartDragCandleAnalAddInImp@@UAEHPBD0@Z DD 0ffffffffH
	DD	FLAT:__unwindfunclet$?InvokeAddInStr@CChartDragCandleAnalAddInImp@@UAEHPBD0@Z$0
	DD	00H
	DD	FLAT:__unwindfunclet$?InvokeAddInStr@CChartDragCandleAnalAddInImp@@UAEHPBD0@Z$1
	DD	01H
	DD	FLAT:__unwindfunclet$?InvokeAddInStr@CChartDragCandleAnalAddInImp@@UAEHPBD0@Z$3
	DD	02H
	DD	FLAT:__unwindfunclet$?InvokeAddInStr@CChartDragCandleAnalAddInImp@@UAEHPBD0@Z$5
__ehfuncinfo$?InvokeAddInStr@CChartDragCandleAnalAddInImp@@UAEHPBD0@Z DD 019930522H
	DD	04H
	DD	FLAT:__unwindtable$?InvokeAddInStr@CChartDragCandleAnalAddInImp@@UAEHPBD0@Z
	DD	2 DUP(00H)
	DD	2 DUP(00H)
	DD	00H
	DD	01H
xdata$x	ENDS
;	COMDAT xdata$x
xdata$x	SEGMENT
__unwindtable$??1CChartDragCandleAnalAddInImp@@UAE@XZ DD 0ffffffffH
	DD	FLAT:___std_terminate
__ehfuncinfo$??1CChartDragCandleAnalAddInImp@@UAE@XZ DD 019930522H
	DD	01H
	DD	FLAT:__unwindtable$??1CChartDragCandleAnalAddInImp@@UAE@XZ
	DD	2 DUP(00H)
	DD	2 DUP(00H)
	DD	00H
	DD	05H
xdata$x	ENDS
;	COMDAT xdata$x
xdata$x	SEGMENT
__ehfuncinfo$??1ILPCSTR133691@@QAE@XZ DD 019930522H
	DD	00H
	DD	00H
	DD	2 DUP(00H)
	DD	2 DUP(00H)
	DD	00H
	DD	05H
xdata$x	ENDS
;	COMDAT xdata$x
xdata$x	SEGMENT
__catchsym$??1CGdiObject@@UAE@XZ$3 DD 00H
	DD	FLAT:??_R0PAVCException@@@8
	DD	0fffffde4H
	DD	FLAT:__catch$??1CGdiObject@@UAE@XZ$0
__tryblocktable$??1CGdiObject@@UAE@XZ DD 00H
	DD	00H
	DD	02H
	DD	01H
	DD	FLAT:__catchsym$??1CGdiObject@@UAE@XZ$3
__unwindtable$??1CGdiObject@@UAE@XZ DD 0ffffffffH
	DD	00H
	DD	0ffffffffH
	DD	00H
	DD	01H
	DD	FLAT:__unwindfunclet$??1CGdiObject@@UAE@XZ$2
__ehfuncinfo$??1CGdiObject@@UAE@XZ DD 019930522H
	DD	03H
	DD	FLAT:__unwindtable$??1CGdiObject@@UAE@XZ
	DD	01H
	DD	FLAT:__tryblocktable$??1CGdiObject@@UAE@XZ
	DD	2 DUP(00H)
	DD	00H
	DD	05H
xdata$x	ENDS
CRT$XCU	SEGMENT
??m_strAddInItemName$initializer$@CChartDragCandleAnalAddInImp@@2P6AXXZA@@3P6AXXZA DD FLAT:??__E?m_strAddInItemName@CChartDragCandleAnalAddInImp@@2V?$CStringT@DV?$StrTraitMFC_DLL@DV?$ChTraitsCRT@D@ATL@@@@@ATL@@A@@YAXXZ ; ??m_strAddInItemName$initializer$@CChartDragCandleAnalAddInImp@@2P6AXXZA@@3P6AXXZA
CRT$XCU	ENDS
; Function compile flags: /Odsp
;	COMDAT ??_ECChartDragCandleAnalAddInImp@@W7AEPAXI@Z
_TEXT	SEGMENT
??_ECChartDragCandleAnalAddInImp@@W7AEPAXI@Z PROC	; [thunk]:CChartDragCandleAnalAddInImp::`vector deleting destructor', COMDAT
  00000	83 e9 08	 sub	 ecx, 8
  00003	e9 00 00 00 00	 jmp	 ??_ECChartDragCandleAnalAddInImp@@UAEPAXI@Z
??_ECChartDragCandleAnalAddInImp@@W7AEPAXI@Z ENDP	; [thunk]:CChartDragCandleAnalAddInImp::`vector deleting destructor'
_TEXT	ENDS
; Function compile flags: /Odsp
;	COMDAT ?Release@CChartAddInBase133691@@O7AGKXZ
_TEXT	SEGMENT
?Release@CChartAddInBase133691@@O7AGKXZ PROC		; [thunk]:CChartAddInBase133691::Release`adjustor{8}', COMDAT
  00000	83 6c 24 04 08	 sub	 DWORD PTR [esp+4], 8
  00005	e9 00 00 00 00	 jmp	 ?Release@CChartAddInBase133691@@MAGKXZ ; CChartAddInBase133691::Release
?Release@CChartAddInBase133691@@O7AGKXZ ENDP		; [thunk]:CChartAddInBase133691::Release`adjustor{8}'
_TEXT	ENDS
; Function compile flags: /Odsp
;	COMDAT ?AddRef@CChartAddInBase133691@@O7AGKXZ
_TEXT	SEGMENT
?AddRef@CChartAddInBase133691@@O7AGKXZ PROC		; [thunk]:CChartAddInBase133691::AddRef`adjustor{8}', COMDAT
  00000	83 6c 24 04 08	 sub	 DWORD PTR [esp+4], 8
  00005	e9 00 00 00 00	 jmp	 ?AddRef@CChartAddInBase133691@@MAGKXZ ; CChartAddInBase133691::AddRef
?AddRef@CChartAddInBase133691@@O7AGKXZ ENDP		; [thunk]:CChartAddInBase133691::AddRef`adjustor{8}'
_TEXT	ENDS
; Function compile flags: /Odsp
;	COMDAT ?QueryInterface@CChartAddInBase133691@@O7AGJABU_GUID@@PAPAX@Z
_TEXT	SEGMENT
?QueryInterface@CChartAddInBase133691@@O7AGJABU_GUID@@PAPAX@Z PROC ; [thunk]:CChartAddInBase133691::QueryInterface`adjustor{8}', COMDAT
  00000	83 6c 24 04 08	 sub	 DWORD PTR [esp+4], 8
  00005	e9 00 00 00 00	 jmp	 ?QueryInterface@CChartAddInBase133691@@MAGJABU_GUID@@PAPAX@Z ; CChartAddInBase133691::QueryInterface
?QueryInterface@CChartAddInBase133691@@O7AGJABU_GUID@@PAPAX@Z ENDP ; [thunk]:CChartAddInBase133691::QueryInterface`adjustor{8}'
_TEXT	ENDS
; Function compile flags: /Ogtp
;	COMDAT ??__F?m_strAddInItemName@CChartDragCandleAnalAddInImp@@2V?$CStringT@DV?$StrTraitMFC_DLL@DV?$ChTraitsCRT@D@ATL@@@@@ATL@@A@@YAXXZ
text$yd	SEGMENT
??__F?m_strAddInItemName@CChartDragCandleAnalAddInImp@@2V?$CStringT@DV?$StrTraitMFC_DLL@DV?$ChTraitsCRT@D@ATL@@@@@ATL@@A@@YAXXZ PROC ; `dynamic atexit destructor for 'CChartDragCandleAnalAddInImp::m_strAddInItemName'', COMDAT
  00000	b9 00 00 00 00	 mov	 ecx, OFFSET ?m_strAddInItemName@CChartDragCandleAnalAddInImp@@2V?$CStringT@DV?$StrTraitMFC_DLL@DV?$ChTraitsCRT@D@ATL@@@@@ATL@@A ; CChartDragCandleAnalAddInImp::m_strAddInItemName
  00005	ff 25 00 00 00
	00		 jmp	 DWORD PTR __imp_??1?$CStringT@DV?$StrTraitMFC_DLL@DV?$ChTraitsCRT@D@ATL@@@@@ATL@@QAE@XZ
??__F?m_strAddInItemName@CChartDragCandleAnalAddInImp@@2V?$CStringT@DV?$StrTraitMFC_DLL@DV?$ChTraitsCRT@D@ATL@@@@@ATL@@A@@YAXXZ ENDP ; `dynamic atexit destructor for 'CChartDragCandleAnalAddInImp::m_strAddInItemName''
text$yd	ENDS
; Function compile flags: /Ogtp
; File D:\git\src\IBK\IBK_DRFN\ProjSrc\SrcChartEx\ChartAddIn\ChartPeriodSummaryAddIn\ChartDragCandleAnalAddInImp.cpp
;	COMDAT ??__E?m_strAddInItemName@CChartDragCandleAnalAddInImp@@2V?$CStringT@DV?$StrTraitMFC_DLL@DV?$ChTraitsCRT@D@ATL@@@@@ATL@@A@@YAXXZ
text$di	SEGMENT
??__E?m_strAddInItemName@CChartDragCandleAnalAddInImp@@2V?$CStringT@DV?$StrTraitMFC_DLL@DV?$ChTraitsCRT@D@ATL@@@@@ATL@@A@@YAXXZ PROC ; `dynamic initializer for 'CChartDragCandleAnalAddInImp::m_strAddInItemName'', COMDAT

; 53   : CString CChartDragCandleAnalAddInImp::m_strAddInItemName = "DRAG_CANDLE_ANAL";

  00000	68 00 00 00 00	 push	 OFFSET ??_C@_0BB@NLAKPGPO@DRAG_CANDLE_ANAL@
  00005	b9 00 00 00 00	 mov	 ecx, OFFSET ?m_strAddInItemName@CChartDragCandleAnalAddInImp@@2V?$CStringT@DV?$StrTraitMFC_DLL@DV?$ChTraitsCRT@D@ATL@@@@@ATL@@A ; CChartDragCandleAnalAddInImp::m_strAddInItemName
  0000a	ff 15 00 00 00
	00		 call	 DWORD PTR __imp_??0?$CStringT@DV?$StrTraitMFC_DLL@DV?$ChTraitsCRT@D@ATL@@@@@ATL@@QAE@PBD@Z
  00010	68 00 00 00 00	 push	 OFFSET ??__F?m_strAddInItemName@CChartDragCandleAnalAddInImp@@2V?$CStringT@DV?$StrTraitMFC_DLL@DV?$ChTraitsCRT@D@ATL@@@@@ATL@@A@@YAXXZ ; `dynamic atexit destructor for 'CChartDragCandleAnalAddInImp::m_strAddInItemName''
  00015	e8 00 00 00 00	 call	 _atexit
  0001a	59		 pop	 ecx
  0001b	c3		 ret	 0
??__E?m_strAddInItemName@CChartDragCandleAnalAddInImp@@2V?$CStringT@DV?$StrTraitMFC_DLL@DV?$ChTraitsCRT@D@ATL@@@@@ATL@@A@@YAXXZ ENDP ; `dynamic initializer for 'CChartDragCandleAnalAddInImp::m_strAddInItemName''
text$di	ENDS
; Function compile flags: /Ogtp
; File D:\git\src\IBK\IBK_DRFN\ProjSrc\SrcChartEx\ChartAddIn\ChartPeriodSummaryAddIn\Include_Chart\MessageDefine.h
;	COMDAT ??__ERMS_ANALYSIS_FUNC@@YAXXZ
text$di	SEGMENT
??__ERMS_ANALYSIS_FUNC@@YAXXZ PROC			; `dynamic initializer for 'RMS_ANALYSIS_FUNC'', COMDAT

; 5    : const UINT RMS_ANALYSIS_FUNC = ::RegisterWindowMessage(_T("RMS_ANALYSIS_FUNC"));

  00000	68 00 00 00 00	 push	 OFFSET ??_C@_0BC@MMPGLPDH@RMS_ANALYSIS_FUNC@
  00005	ff 15 00 00 00
	00		 call	 DWORD PTR __imp__RegisterWindowMessageA@4
  0000b	a3 00 00 00 00	 mov	 DWORD PTR ?RMS_ANALYSIS_FUNC@@3IB, eax
  00010	c3		 ret	 0
??__ERMS_ANALYSIS_FUNC@@YAXXZ ENDP			; `dynamic initializer for 'RMS_ANALYSIS_FUNC''
text$di	ENDS
; Function compile flags: /Ogtp
; File D:\git\src\IBK\IBK_DRFN\ProjSrc\SrcChartEx\ChartAddIn\ChartPeriodSummaryAddIn\ChartDragCandleAnalAddInImp.cpp
; File C:\Program Files (x86)\Microsoft Visual Studio\2019\Community\VC\Tools\MSVC\14.29.30133\atlmfc\include\afxtempl.h
; File D:\git\src\IBK\IBK_DRFN\ProjSrc\SrcChartEx\ChartAddIn\ChartPeriodSummaryAddIn\ChartDragCandleAnalAddInImp.cpp
; File C:\Program Files (x86)\Microsoft Visual Studio\2019\Community\VC\Tools\MSVC\14.29.30133\atlmfc\include\afx.inl
;	COMDAT ??_GCChartDragCandleAnalAddInImp@@UAEPAXI@Z
_TEXT	SEGMENT
__$EHRec$ = -12						; size = 12
___flags$ = 8						; size = 4
??_GCChartDragCandleAnalAddInImp@@UAEPAXI@Z PROC	; CChartDragCandleAnalAddInImp::`scalar deleting destructor', COMDAT
; _this$ = ecx
  00000	55		 push	 ebp
  00001	8b ec		 mov	 ebp, esp
  00003	6a ff		 push	 -1
  00005	68 00 00 00 00	 push	 __ehhandler$??_GCChartDragCandleAnalAddInImp@@UAEPAXI@Z
  0000a	64 a1 00 00 00
	00		 mov	 eax, DWORD PTR fs:0
  00010	50		 push	 eax
  00011	56		 push	 esi
  00012	a1 00 00 00 00	 mov	 eax, DWORD PTR ___security_cookie
  00017	33 c5		 xor	 eax, ebp
  00019	50		 push	 eax
  0001a	8d 45 f4	 lea	 eax, DWORD PTR __$EHRec$[ebp]
  0001d	64 a3 00 00 00
	00		 mov	 DWORD PTR fs:0, eax
  00023	8b f1		 mov	 esi, ecx
; File D:\git\src\IBK\IBK_DRFN\ProjSrc\SrcChartEx\ChartAddIn\ChartPeriodSummaryAddIn\ChartDragCandleAnalAddInImp.cpp

; 49   : {

  00025	c7 06 00 00 00
	00		 mov	 DWORD PTR [esi], OFFSET ??_7CChartDragCandleAnalAddInImp@@6BCIWUnknown@@@

; 50   : }

  0002b	8d 8e 90 00 00
	00		 lea	 ecx, DWORD PTR [esi+144]
  00031	c7 46 08 00 00
	00 00		 mov	 DWORD PTR [esi+8], OFFSET ??_7CChartDragCandleAnalAddInImp@@6BIChartAddIn133691@@@
; File C:\Program Files (x86)\Microsoft Visual Studio\2019\Community\VC\Tools\MSVC\14.29.30133\atlmfc\include\afxtempl.h

; 878  : {

  00038	c7 45 fc 00 00
	00 00		 mov	 DWORD PTR __$EHRec$[ebp+8], 0
  0003f	c7 01 00 00 00
	00		 mov	 DWORD PTR [ecx], OFFSET ??_7?$CList@V?$CStringT@DV?$StrTraitMFC_DLL@DV?$ChTraitsCRT@D@ATL@@@@@ATL@@AAV12@@@6B@

; 879  : 	RemoveAll();

  00045	e8 00 00 00 00	 call	 ?RemoveAll@?$CList@V?$CStringT@DV?$StrTraitMFC_DLL@DV?$ChTraitsCRT@D@ATL@@@@@ATL@@AAV12@@@QAEXXZ ; CList<ATL::CStringT<char,StrTraitMFC_DLL<char,ATL::ChTraitsCRT<char> > >,ATL::CStringT<char,StrTraitMFC_DLL<char,ATL::ChTraitsCRT<char> > > &>::RemoveAll
; File D:\git\src\IBK\IBK_DRFN\ProjSrc\SrcChartEx\ChartAddIn\ChartPeriodSummaryAddIn\ChartDragCandleAnalAddInImp.cpp

; 50   : }

  0004a	8b ce		 mov	 ecx, esi
  0004c	e8 00 00 00 00	 call	 ??1CChartAddInBase133691@@MAE@XZ ; CChartAddInBase133691::~CChartAddInBase133691
  00051	8b 45 08	 mov	 eax, DWORD PTR ___flags$[ebp]
  00054	a8 01		 test	 al, 1
  00056	74 2f		 je	 SHORT $LN15@scalar
  00058	a8 04		 test	 al, 4
  0005a	75 1d		 jne	 SHORT $LN3@scalar
; File C:\Program Files (x86)\Microsoft Visual Studio\2019\Community\VC\Tools\MSVC\14.29.30133\atlmfc\include\afx.inl

; 112  : 	{ ::operator delete(p); }

  0005c	56		 push	 esi
  0005d	e8 00 00 00 00	 call	 ??3@YAXPAX@Z		; operator delete
  00062	83 c4 04	 add	 esp, 4
  00065	8b c6		 mov	 eax, esi
  00067	8b 4d f4	 mov	 ecx, DWORD PTR __$EHRec$[ebp]
  0006a	64 89 0d 00 00
	00 00		 mov	 DWORD PTR fs:0, ecx
  00071	59		 pop	 ecx
  00072	5e		 pop	 esi
  00073	8b e5		 mov	 esp, ebp
  00075	5d		 pop	 ebp
  00076	c2 04 00	 ret	 4
$LN3@scalar:
  00079	68 b0 00 00 00	 push	 176			; 000000b0H
  0007e	56		 push	 esi
  0007f	e8 00 00 00 00	 call	 ?__global_delete@@YAXPAXI@Z ; __global_delete
  00084	83 c4 08	 add	 esp, 8
$LN15@scalar:
  00087	8b c6		 mov	 eax, esi
  00089	8b 4d f4	 mov	 ecx, DWORD PTR __$EHRec$[ebp]
  0008c	64 89 0d 00 00
	00 00		 mov	 DWORD PTR fs:0, ecx
  00093	59		 pop	 ecx
  00094	5e		 pop	 esi
  00095	8b e5		 mov	 esp, ebp
  00097	5d		 pop	 ebp
  00098	c2 04 00	 ret	 4
  0009b	cc		 int	 3
  0009c	cc		 int	 3
  0009d	cc		 int	 3
  0009e	cc		 int	 3
  0009f	cc		 int	 3
_TEXT	ENDS
;	COMDAT text$x
text$x	SEGMENT
__ehhandler$??_GCChartDragCandleAnalAddInImp@@UAEPAXI@Z:
  00000	90		 npad	 1
  00001	90		 npad	 1
  00002	8b 54 24 08	 mov	 edx, DWORD PTR [esp+8]
  00006	8d 42 0c	 lea	 eax, DWORD PTR [edx+12]
  00009	8b 4a f8	 mov	 ecx, DWORD PTR [edx-8]
  0000c	33 c8		 xor	 ecx, eax
  0000e	e8 00 00 00 00	 call	 @__security_check_cookie@4
  00013	b8 00 00 00 00	 mov	 eax, OFFSET __ehfuncinfo$??_GCChartDragCandleAnalAddInImp@@UAEPAXI@Z
  00018	e9 00 00 00 00	 jmp	 ___CxxFrameHandler3
text$x	ENDS
??_GCChartDragCandleAnalAddInImp@@UAEPAXI@Z ENDP	; CChartDragCandleAnalAddInImp::`scalar deleting destructor'
; Function compile flags: /Ogtp
; File D:\git\src\IBK\IBK_DRFN\ProjSrc\SrcChartEx\ChartAddIn\ChartPeriodSummaryAddIn\ChartDragCandleAnalAddInImp.cpp
;	COMDAT ?TokenizeEx@CChartDragCandleAnalAddInImp@@IAE?AV?$CStringT@DV?$StrTraitMFC_DLL@DV?$ChTraitsCRT@D@ATL@@@@@ATL@@V23@PBDAAH@Z
_TEXT	SEGMENT
_strRes$ = -16						; size = 4
__$EHRec$ = -12						; size = 12
___$ReturnUdt$ = 8					; size = 4
_strSrc$ = 12						; size = 4
_pszTokens$ = 16					; size = 4
$T2 = 20						; size = 4
_iStart$ = 20						; size = 4
?TokenizeEx@CChartDragCandleAnalAddInImp@@IAE?AV?$CStringT@DV?$StrTraitMFC_DLL@DV?$ChTraitsCRT@D@ATL@@@@@ATL@@V23@PBDAAH@Z PROC ; CChartDragCandleAnalAddInImp::TokenizeEx, COMDAT
; _this$ = ecx

; 546  : {

  00000	55		 push	 ebp
  00001	8b ec		 mov	 ebp, esp
  00003	6a ff		 push	 -1
  00005	68 00 00 00 00	 push	 __ehhandler$?TokenizeEx@CChartDragCandleAnalAddInImp@@IAE?AV?$CStringT@DV?$StrTraitMFC_DLL@DV?$ChTraitsCRT@D@ATL@@@@@ATL@@V23@PBDAAH@Z
  0000a	64 a1 00 00 00
	00		 mov	 eax, DWORD PTR fs:0
  00010	50		 push	 eax
  00011	51		 push	 ecx
  00012	56		 push	 esi
  00013	57		 push	 edi
  00014	a1 00 00 00 00	 mov	 eax, DWORD PTR ___security_cookie
  00019	33 c5		 xor	 eax, ebp
  0001b	50		 push	 eax
  0001c	8d 45 f4	 lea	 eax, DWORD PTR __$EHRec$[ebp]
  0001f	64 a3 00 00 00
	00		 mov	 DWORD PTR fs:0, eax

; 547  : 	CString strRes = _T("");

  00025	68 00 00 00 00	 push	 OFFSET ??_C@_00CNPNBAHC@@
  0002a	8d 4d f0	 lea	 ecx, DWORD PTR _strRes$[ebp]
  0002d	c7 45 fc 00 00
	00 00		 mov	 DWORD PTR __$EHRec$[ebp+8], 0
  00034	ff 15 00 00 00
	00		 call	 DWORD PTR __imp_??0?$CStringT@DV?$StrTraitMFC_DLL@DV?$ChTraitsCRT@D@ATL@@@@@ATL@@QAE@PBD@Z

; 548  : 	int iCur = iStart;

  0003a	8b 75 14	 mov	 esi, DWORD PTR _iStart$[ebp]

; 549  : 	iStart = strSrc.Find(pszTokens, iCur);

  0003d	8d 4d 0c	 lea	 ecx, DWORD PTR _strSrc$[ebp]
  00040	c6 45 fc 01	 mov	 BYTE PTR __$EHRec$[ebp+8], 1
  00044	8b 3e		 mov	 edi, DWORD PTR [esi]
  00046	57		 push	 edi
  00047	ff 75 10	 push	 DWORD PTR _pszTokens$[ebp]
  0004a	ff 15 00 00 00
	00		 call	 DWORD PTR __imp_?Find@?$CStringT@DV?$StrTraitMFC_DLL@DV?$ChTraitsCRT@D@ATL@@@@@ATL@@QBEHPBDH@Z
  00050	89 06		 mov	 DWORD PTR [esi], eax

; 550  : 	if(iStart != -1)

  00052	83 f8 ff	 cmp	 eax, -1
  00055	74 2e		 je	 SHORT $LN2@TokenizeEx

; 551  : 	{
; 552  : 		strRes = strSrc.Mid(iCur, iStart-iCur);

  00057	2b c7		 sub	 eax, edi
  00059	8d 4d 0c	 lea	 ecx, DWORD PTR _strSrc$[ebp]
  0005c	50		 push	 eax
  0005d	57		 push	 edi
  0005e	8d 45 14	 lea	 eax, DWORD PTR $T2[ebp]
  00061	50		 push	 eax
  00062	ff 15 00 00 00
	00		 call	 DWORD PTR __imp_?Mid@?$CStringT@DV?$StrTraitMFC_DLL@DV?$ChTraitsCRT@D@ATL@@@@@ATL@@QBE?AV12@HH@Z
  00068	50		 push	 eax
  00069	8d 4d f0	 lea	 ecx, DWORD PTR _strRes$[ebp]
  0006c	c6 45 fc 02	 mov	 BYTE PTR __$EHRec$[ebp+8], 2
  00070	ff 15 00 00 00
	00		 call	 DWORD PTR __imp_??4?$CStringT@DV?$StrTraitMFC_DLL@DV?$ChTraitsCRT@D@ATL@@@@@ATL@@QAEAAV01@ABV01@@Z
  00076	8d 4d 14	 lea	 ecx, DWORD PTR $T2[ebp]
  00079	c6 45 fc 01	 mov	 BYTE PTR __$EHRec$[ebp+8], 1
  0007d	ff 15 00 00 00
	00		 call	 DWORD PTR __imp_??1?$CStringT@DV?$StrTraitMFC_DLL@DV?$ChTraitsCRT@D@ATL@@@@@ATL@@QAE@XZ

; 553  : 		iStart++;

  00083	ff 06		 inc	 DWORD PTR [esi]
$LN2@TokenizeEx:

; 554  : 		return strRes;
; 555  : 	}
; 556  : 	return strRes;
; 557  : }

  00085	8b 4d 08	 mov	 ecx, DWORD PTR ___$ReturnUdt$[ebp]
  00088	8d 45 f0	 lea	 eax, DWORD PTR _strRes$[ebp]
  0008b	50		 push	 eax
  0008c	ff 15 00 00 00
	00		 call	 DWORD PTR __imp_??0?$CStringT@DV?$StrTraitMFC_DLL@DV?$ChTraitsCRT@D@ATL@@@@@ATL@@QAE@ABV01@@Z
  00092	8d 4d f0	 lea	 ecx, DWORD PTR _strRes$[ebp]
  00095	ff 15 00 00 00
	00		 call	 DWORD PTR __imp_??1?$CStringT@DV?$StrTraitMFC_DLL@DV?$ChTraitsCRT@D@ATL@@@@@ATL@@QAE@XZ
  0009b	8d 4d 0c	 lea	 ecx, DWORD PTR _strSrc$[ebp]
  0009e	ff 15 00 00 00
	00		 call	 DWORD PTR __imp_??1?$CStringT@DV?$StrTraitMFC_DLL@DV?$ChTraitsCRT@D@ATL@@@@@ATL@@QAE@XZ
  000a4	8b 45 08	 mov	 eax, DWORD PTR ___$ReturnUdt$[ebp]
  000a7	8b 4d f4	 mov	 ecx, DWORD PTR __$EHRec$[ebp]
  000aa	64 89 0d 00 00
	00 00		 mov	 DWORD PTR fs:0, ecx
  000b1	59		 pop	 ecx
  000b2	5f		 pop	 edi
  000b3	5e		 pop	 esi
  000b4	8b e5		 mov	 esp, ebp
  000b6	5d		 pop	 ebp
  000b7	c2 10 00	 ret	 16			; 00000010H
_TEXT	ENDS
;	COMDAT text$x
text$x	SEGMENT
__unwindfunclet$?TokenizeEx@CChartDragCandleAnalAddInImp@@IAE?AV?$CStringT@DV?$StrTraitMFC_DLL@DV?$ChTraitsCRT@D@ATL@@@@@ATL@@V23@PBDAAH@Z$0:
  00000	8d 4d 0c	 lea	 ecx, DWORD PTR _strSrc$[ebp]
  00003	ff 25 00 00 00
	00		 jmp	 DWORD PTR __imp_??1?$CStringT@DV?$StrTraitMFC_DLL@DV?$ChTraitsCRT@D@ATL@@@@@ATL@@QAE@XZ
__unwindfunclet$?TokenizeEx@CChartDragCandleAnalAddInImp@@IAE?AV?$CStringT@DV?$StrTraitMFC_DLL@DV?$ChTraitsCRT@D@ATL@@@@@ATL@@V23@PBDAAH@Z$1:
  00009	8d 4d f0	 lea	 ecx, DWORD PTR _strRes$[ebp]
  0000c	ff 25 00 00 00
	00		 jmp	 DWORD PTR __imp_??1?$CStringT@DV?$StrTraitMFC_DLL@DV?$ChTraitsCRT@D@ATL@@@@@ATL@@QAE@XZ
__unwindfunclet$?TokenizeEx@CChartDragCandleAnalAddInImp@@IAE?AV?$CStringT@DV?$StrTraitMFC_DLL@DV?$ChTraitsCRT@D@ATL@@@@@ATL@@V23@PBDAAH@Z$2:
  00012	8d 4d 14	 lea	 ecx, DWORD PTR $T2[ebp]
  00015	ff 25 00 00 00
	00		 jmp	 DWORD PTR __imp_??1?$CStringT@DV?$StrTraitMFC_DLL@DV?$ChTraitsCRT@D@ATL@@@@@ATL@@QAE@XZ
  0001b	cc		 int	 3
  0001c	cc		 int	 3
  0001d	cc		 int	 3
  0001e	cc		 int	 3
  0001f	cc		 int	 3
__ehhandler$?TokenizeEx@CChartDragCandleAnalAddInImp@@IAE?AV?$CStringT@DV?$StrTraitMFC_DLL@DV?$ChTraitsCRT@D@ATL@@@@@ATL@@V23@PBDAAH@Z:
  00020	90		 npad	 1
  00021	90		 npad	 1
  00022	8b 54 24 08	 mov	 edx, DWORD PTR [esp+8]
  00026	8d 42 0c	 lea	 eax, DWORD PTR [edx+12]
  00029	8b 4a f0	 mov	 ecx, DWORD PTR [edx-16]
  0002c	33 c8		 xor	 ecx, eax
  0002e	e8 00 00 00 00	 call	 @__security_check_cookie@4
  00033	b8 00 00 00 00	 mov	 eax, OFFSET __ehfuncinfo$?TokenizeEx@CChartDragCandleAnalAddInImp@@IAE?AV?$CStringT@DV?$StrTraitMFC_DLL@DV?$ChTraitsCRT@D@ATL@@@@@ATL@@V23@PBDAAH@Z
  00038	e9 00 00 00 00	 jmp	 ___CxxFrameHandler3
text$x	ENDS
?TokenizeEx@CChartDragCandleAnalAddInImp@@IAE?AV?$CStringT@DV?$StrTraitMFC_DLL@DV?$ChTraitsCRT@D@ATL@@@@@ATL@@V23@PBDAAH@Z ENDP ; CChartDragCandleAnalAddInImp::TokenizeEx
; Function compile flags: /Ogtp
; File D:\git\src\IBK\IBK_DRFN\ProjSrc\SrcChartEx\ChartAddIn\ChartPeriodSummaryAddIn\ChartDragCandleAnalAddInImp.cpp
;	COMDAT ?AddData@CChartDragCandleAnalAddInImp@@IAEHHH@Z
_TEXT	SEGMENT
_dLow$2 = -80						; size = 8
_dHigh$3 = -72						; size = 8
_dOpen$4 = -64						; size = 8
_dCur$5 = -56						; size = 8
_pIPacketForCur$ = -48					; size = 4
_pIPacketForLow$ = -44					; size = 4
_pIPacketForHigh$ = -40					; size = 4
_pIPacketForOpen$ = -36					; size = 4
_strOpen$6 = -32					; size = 4
_strHigh$7 = -28					; size = 4
_strLow$8 = -24						; size = 4
_strClose$9 = -20					; size = 4
__$EHRec$ = -16						; size = 16
_nStart$ = 8						; size = 4
_nEnd$ = 12						; size = 4
?AddData@CChartDragCandleAnalAddInImp@@IAEHHH@Z PROC	; CChartDragCandleAnalAddInImp::AddData, COMDAT
; _this$ = ecx

; 410  : {

  00000	55		 push	 ebp
  00001	8b ec		 mov	 ebp, esp
  00003	6a ff		 push	 -1
  00005	68 00 00 00 00	 push	 __ehhandler$?AddData@CChartDragCandleAnalAddInImp@@IAEHHH@Z
  0000a	64 a1 00 00 00
	00		 mov	 eax, DWORD PTR fs:0
  00010	50		 push	 eax
  00011	83 ec 44	 sub	 esp, 68			; 00000044H
  00014	53		 push	 ebx
  00015	56		 push	 esi
  00016	57		 push	 edi
  00017	a1 00 00 00 00	 mov	 eax, DWORD PTR ___security_cookie
  0001c	33 c5		 xor	 eax, ebp
  0001e	50		 push	 eax
  0001f	8d 45 f4	 lea	 eax, DWORD PTR __$EHRec$[ebp+4]
  00022	64 a3 00 00 00
	00		 mov	 DWORD PTR fs:0, eax
  00028	89 65 f0	 mov	 DWORD PTR __$EHRec$[ebp], esp
  0002b	8b f9		 mov	 edi, ecx

; 411  : 	IPacket *pIPacketForOpen = m_pIDefaultPacketManager->GetPacket( _MTEXT( C0_OPEN));

  0002d	8b 4f 24	 mov	 ecx, DWORD PTR [edi+36]
  00030	a1 54 00 00 00	 mov	 eax, DWORD PTR ?g_iMetaTable@@3VIMetaTable@@A+84
  00035	8b 11		 mov	 edx, DWORD PTR [ecx]
  00037	ff 70 08	 push	 DWORD PTR [eax+8]
  0003a	ff 52 10	 call	 DWORD PTR [edx+16]

; 412  : 	IPacket *pIPacketForHigh = m_pIDefaultPacketManager->GetPacket( _MTEXT( C0_HIGH));

  0003d	8b 4f 24	 mov	 ecx, DWORD PTR [edi+36]
  00040	8b 15 54 00 00
	00		 mov	 edx, DWORD PTR ?g_iMetaTable@@3VIMetaTable@@A+84
  00046	89 45 dc	 mov	 DWORD PTR _pIPacketForOpen$[ebp], eax
  00049	8b 31		 mov	 esi, DWORD PTR [ecx]
  0004b	ff 72 0c	 push	 DWORD PTR [edx+12]
  0004e	ff 56 10	 call	 DWORD PTR [esi+16]

; 413  : 	IPacket *pIPacketForLow = m_pIDefaultPacketManager->GetPacket( _MTEXT( C0_LOW));

  00051	8b 4f 24	 mov	 ecx, DWORD PTR [edi+36]
  00054	8b 15 54 00 00
	00		 mov	 edx, DWORD PTR ?g_iMetaTable@@3VIMetaTable@@A+84
  0005a	89 45 d8	 mov	 DWORD PTR _pIPacketForHigh$[ebp], eax
  0005d	8b 31		 mov	 esi, DWORD PTR [ecx]
  0005f	ff 72 10	 push	 DWORD PTR [edx+16]
  00062	ff 56 10	 call	 DWORD PTR [esi+16]

; 414  : 	IPacket *pIPacketForCur = m_pIDefaultPacketManager->GetPacket( _MTEXT( C0_CLOSE));

  00065	8b 4f 24	 mov	 ecx, DWORD PTR [edi+36]
  00068	8b 15 54 00 00
	00		 mov	 edx, DWORD PTR ?g_iMetaTable@@3VIMetaTable@@A+84
  0006e	89 45 d4	 mov	 DWORD PTR _pIPacketForLow$[ebp], eax
  00071	8b 31		 mov	 esi, DWORD PTR [ecx]
  00073	ff 72 14	 push	 DWORD PTR [edx+20]
  00076	ff 56 10	 call	 DWORD PTR [esi+16]
  00079	8b c8		 mov	 ecx, eax
  0007b	89 4d d0	 mov	 DWORD PTR _pIPacketForCur$[ebp], ecx

; 415  : 
; 416  : // 	IPacket *pIPacketForOpen = m_pIPacketManager->GetPacket( "");
; 417  : // 	IPacket *pIPacketForHigh = m_pIPacketManager->GetPacket( "");
; 418  : // 	IPacket *pIPacketForLow = m_pIPacketManager->GetPacket( "");
; 419  : // 	IPacket *pIPacketForCur = m_pIPacketManager->GetPacket( "");
; 420  : 	if(pIPacketForCur == NULL)

  0007e	85 c9		 test	 ecx, ecx
  00080	0f 84 ba 01 00
	00		 je	 $LN15@AddData

; 421  : 		return FALSE;
; 422  : 	try
; 423  : 	{
; 424  : 		m_listDataWindow.RemoveAll();

  00086	81 c7 90 00 00
	00		 add	 edi, 144		; 00000090H
  0008c	c7 45 fc 00 00
	00 00		 mov	 DWORD PTR __$EHRec$[ebp+12], 0
  00093	8b cf		 mov	 ecx, edi
  00095	e8 00 00 00 00	 call	 ?RemoveAll@?$CList@V?$CStringT@DV?$StrTraitMFC_DLL@DV?$ChTraitsCRT@D@ATL@@@@@ATL@@AAV12@@@QAEXXZ ; CList<ATL::CStringT<char,StrTraitMFC_DLL<char,ATL::ChTraitsCRT<char> > >,ATL::CStringT<char,StrTraitMFC_DLL<char,ATL::ChTraitsCRT<char> > > &>::RemoveAll
  0009a	0f 57 c0	 xorps	 xmm0, xmm0

; 425  : 		double dOpen, dHigh, dLow, dCur=0;
; 426  : 		CString strOpen, strHigh, strLow, strClose;

  0009d	8d 4d e0	 lea	 ecx, DWORD PTR _strOpen$6[ebp]
  000a0	f2 0f 11 45 c8	 movsd	 QWORD PTR _dCur$5[ebp], xmm0
  000a5	ff 15 00 00 00
	00		 call	 DWORD PTR __imp_??0?$CStringT@DV?$StrTraitMFC_DLL@DV?$ChTraitsCRT@D@ATL@@@@@ATL@@QAE@XZ
  000ab	8d 4d e4	 lea	 ecx, DWORD PTR _strHigh$7[ebp]
  000ae	ff 15 00 00 00
	00		 call	 DWORD PTR __imp_??0?$CStringT@DV?$StrTraitMFC_DLL@DV?$ChTraitsCRT@D@ATL@@@@@ATL@@QAE@XZ
  000b4	8d 4d e8	 lea	 ecx, DWORD PTR _strLow$8[ebp]
  000b7	ff 15 00 00 00
	00		 call	 DWORD PTR __imp_??0?$CStringT@DV?$StrTraitMFC_DLL@DV?$ChTraitsCRT@D@ATL@@@@@ATL@@QAE@XZ
  000bd	8d 4d ec	 lea	 ecx, DWORD PTR _strClose$9[ebp]
  000c0	ff 15 00 00 00
	00		 call	 DWORD PTR __imp_??0?$CStringT@DV?$StrTraitMFC_DLL@DV?$ChTraitsCRT@D@ATL@@@@@ATL@@QAE@XZ

; 427  : 		for(int i=nStart; i<=nEnd; i++)

  000c6	8b 75 08	 mov	 esi, DWORD PTR _nStart$[ebp]
  000c9	8b 1d 00 00 00
	00		 mov	 ebx, DWORD PTR __imp_?Format@?$CStringT@DV?$StrTraitMFC_DLL@DV?$ChTraitsCRT@D@ATL@@@@@ATL@@QAAXPBDZZ
  000cf	c6 45 fc 04	 mov	 BYTE PTR __$EHRec$[ebp+12], 4
$LL4@AddData:
  000d3	3b 75 0c	 cmp	 esi, DWORD PTR _nEnd$[ebp]
  000d6	0f 8f d2 00 00
	00		 jg	 $LN3@AddData

; 428  : 		{
; 429  : 			pIPacketForOpen->GetData( i, dOpen);

  000dc	8b 4d dc	 mov	 ecx, DWORD PTR _pIPacketForOpen$[ebp]
  000df	8d 55 c0	 lea	 edx, DWORD PTR _dOpen$4[ebp]
  000e2	52		 push	 edx
  000e3	56		 push	 esi
  000e4	8b 01		 mov	 eax, DWORD PTR [ecx]
  000e6	ff 50 40	 call	 DWORD PTR [eax+64]

; 430  : 			strOpen.Format("%.0f", dOpen);

  000e9	f2 0f 10 45 c0	 movsd	 xmm0, QWORD PTR _dOpen$4[ebp]
  000ee	8d 45 e0	 lea	 eax, DWORD PTR _strOpen$6[ebp]
  000f1	83 ec 08	 sub	 esp, 8
  000f4	f2 0f 11 04 24	 movsd	 QWORD PTR [esp], xmm0
  000f9	68 00 00 00 00	 push	 OFFSET ??_C@_04GHNNFJCK@?$CF?40f@
  000fe	50		 push	 eax
  000ff	ff d3		 call	 ebx
  00101	83 c4 10	 add	 esp, 16			; 00000010H

; 431  : 			m_listDataWindow.AddTail(strOpen);

  00104	8d 45 e0	 lea	 eax, DWORD PTR _strOpen$6[ebp]
  00107	8b cf		 mov	 ecx, edi
  00109	50		 push	 eax
  0010a	e8 00 00 00 00	 call	 ?AddTail@?$CList@V?$CStringT@DV?$StrTraitMFC_DLL@DV?$ChTraitsCRT@D@ATL@@@@@ATL@@AAV12@@@QAEPAU__POSITION@@AAV?$CStringT@DV?$StrTraitMFC_DLL@DV?$ChTraitsCRT@D@ATL@@@@@ATL@@@Z ; CList<ATL::CStringT<char,StrTraitMFC_DLL<char,ATL::ChTraitsCRT<char> > >,ATL::CStringT<char,StrTraitMFC_DLL<char,ATL::ChTraitsCRT<char> > > &>::AddTail

; 432  : 
; 433  : 			pIPacketForHigh->GetData( i, dHigh);

  0010f	8b 4d d8	 mov	 ecx, DWORD PTR _pIPacketForHigh$[ebp]
  00112	8d 55 b8	 lea	 edx, DWORD PTR _dHigh$3[ebp]
  00115	52		 push	 edx
  00116	56		 push	 esi
  00117	8b 01		 mov	 eax, DWORD PTR [ecx]
  00119	ff 50 40	 call	 DWORD PTR [eax+64]

; 434  : 			strHigh.Format("%.0f", dHigh);

  0011c	f2 0f 10 45 b8	 movsd	 xmm0, QWORD PTR _dHigh$3[ebp]
  00121	8d 45 e4	 lea	 eax, DWORD PTR _strHigh$7[ebp]
  00124	83 ec 08	 sub	 esp, 8
  00127	f2 0f 11 04 24	 movsd	 QWORD PTR [esp], xmm0
  0012c	68 00 00 00 00	 push	 OFFSET ??_C@_04GHNNFJCK@?$CF?40f@
  00131	50		 push	 eax
  00132	ff d3		 call	 ebx
  00134	83 c4 10	 add	 esp, 16			; 00000010H

; 435  : 			m_listDataWindow.AddTail(strHigh);

  00137	8d 45 e4	 lea	 eax, DWORD PTR _strHigh$7[ebp]
  0013a	8b cf		 mov	 ecx, edi
  0013c	50		 push	 eax
  0013d	e8 00 00 00 00	 call	 ?AddTail@?$CList@V?$CStringT@DV?$StrTraitMFC_DLL@DV?$ChTraitsCRT@D@ATL@@@@@ATL@@AAV12@@@QAEPAU__POSITION@@AAV?$CStringT@DV?$StrTraitMFC_DLL@DV?$ChTraitsCRT@D@ATL@@@@@ATL@@@Z ; CList<ATL::CStringT<char,StrTraitMFC_DLL<char,ATL::ChTraitsCRT<char> > >,ATL::CStringT<char,StrTraitMFC_DLL<char,ATL::ChTraitsCRT<char> > > &>::AddTail

; 436  : 
; 437  : 			pIPacketForLow->GetData( i, dLow);

  00142	8b 4d d4	 mov	 ecx, DWORD PTR _pIPacketForLow$[ebp]
  00145	8d 55 b0	 lea	 edx, DWORD PTR _dLow$2[ebp]
  00148	52		 push	 edx
  00149	56		 push	 esi
  0014a	8b 01		 mov	 eax, DWORD PTR [ecx]
  0014c	ff 50 40	 call	 DWORD PTR [eax+64]

; 438  : 			strLow.Format("%.0f", dLow);

  0014f	f2 0f 10 45 b0	 movsd	 xmm0, QWORD PTR _dLow$2[ebp]
  00154	8d 45 e8	 lea	 eax, DWORD PTR _strLow$8[ebp]
  00157	83 ec 08	 sub	 esp, 8
  0015a	f2 0f 11 04 24	 movsd	 QWORD PTR [esp], xmm0
  0015f	68 00 00 00 00	 push	 OFFSET ??_C@_04GHNNFJCK@?$CF?40f@
  00164	50		 push	 eax
  00165	ff d3		 call	 ebx
  00167	83 c4 10	 add	 esp, 16			; 00000010H

; 439  : 			m_listDataWindow.AddTail(strLow);

  0016a	8d 45 e8	 lea	 eax, DWORD PTR _strLow$8[ebp]
  0016d	8b cf		 mov	 ecx, edi
  0016f	50		 push	 eax
  00170	e8 00 00 00 00	 call	 ?AddTail@?$CList@V?$CStringT@DV?$StrTraitMFC_DLL@DV?$ChTraitsCRT@D@ATL@@@@@ATL@@AAV12@@@QAEPAU__POSITION@@AAV?$CStringT@DV?$StrTraitMFC_DLL@DV?$ChTraitsCRT@D@ATL@@@@@ATL@@@Z ; CList<ATL::CStringT<char,StrTraitMFC_DLL<char,ATL::ChTraitsCRT<char> > >,ATL::CStringT<char,StrTraitMFC_DLL<char,ATL::ChTraitsCRT<char> > > &>::AddTail

; 440  : 
; 441  : 			pIPacketForCur->GetData( i, dCur);

  00175	8b 4d d0	 mov	 ecx, DWORD PTR _pIPacketForCur$[ebp]
  00178	8d 55 c8	 lea	 edx, DWORD PTR _dCur$5[ebp]
  0017b	52		 push	 edx
  0017c	56		 push	 esi
  0017d	8b 01		 mov	 eax, DWORD PTR [ecx]
  0017f	ff 50 40	 call	 DWORD PTR [eax+64]

; 442  : 			strClose.Format("%.0f", dCur);

  00182	f2 0f 10 45 c8	 movsd	 xmm0, QWORD PTR _dCur$5[ebp]
  00187	8d 45 ec	 lea	 eax, DWORD PTR _strClose$9[ebp]
  0018a	83 ec 08	 sub	 esp, 8
  0018d	f2 0f 11 04 24	 movsd	 QWORD PTR [esp], xmm0
  00192	68 00 00 00 00	 push	 OFFSET ??_C@_04GHNNFJCK@?$CF?40f@
  00197	50		 push	 eax
  00198	ff d3		 call	 ebx
  0019a	83 c4 10	 add	 esp, 16			; 00000010H

; 443  : 			m_listDataWindow.AddTail(strClose);

  0019d	8d 45 ec	 lea	 eax, DWORD PTR _strClose$9[ebp]
  001a0	8b cf		 mov	 ecx, edi
  001a2	50		 push	 eax
  001a3	e8 00 00 00 00	 call	 ?AddTail@?$CList@V?$CStringT@DV?$StrTraitMFC_DLL@DV?$ChTraitsCRT@D@ATL@@@@@ATL@@AAV12@@@QAEPAU__POSITION@@AAV?$CStringT@DV?$StrTraitMFC_DLL@DV?$ChTraitsCRT@D@ATL@@@@@ATL@@@Z ; CList<ATL::CStringT<char,StrTraitMFC_DLL<char,ATL::ChTraitsCRT<char> > >,ATL::CStringT<char,StrTraitMFC_DLL<char,ATL::ChTraitsCRT<char> > > &>::AddTail
  001a8	46		 inc	 esi
  001a9	e9 25 ff ff ff	 jmp	 $LL4@AddData
$LN3@AddData:

; 444  : 		}
; 445  : 	}

  001ae	8d 4d ec	 lea	 ecx, DWORD PTR _strClose$9[ebp]
  001b1	ff 15 00 00 00
	00		 call	 DWORD PTR __imp_??1?$CStringT@DV?$StrTraitMFC_DLL@DV?$ChTraitsCRT@D@ATL@@@@@ATL@@QAE@XZ
  001b7	8d 4d e8	 lea	 ecx, DWORD PTR _strLow$8[ebp]
  001ba	ff 15 00 00 00
	00		 call	 DWORD PTR __imp_??1?$CStringT@DV?$StrTraitMFC_DLL@DV?$ChTraitsCRT@D@ATL@@@@@ATL@@QAE@XZ
  001c0	8d 4d e4	 lea	 ecx, DWORD PTR _strHigh$7[ebp]
  001c3	ff 15 00 00 00
	00		 call	 DWORD PTR __imp_??1?$CStringT@DV?$StrTraitMFC_DLL@DV?$ChTraitsCRT@D@ATL@@@@@ATL@@QAE@XZ
  001c9	8d 4d e0	 lea	 ecx, DWORD PTR _strOpen$6[ebp]
  001cc	ff 15 00 00 00
	00		 call	 DWORD PTR __imp_??1?$CStringT@DV?$StrTraitMFC_DLL@DV?$ChTraitsCRT@D@ATL@@@@@ATL@@QAE@XZ

; 453  : 	}
; 454  : 	pIPacketForOpen->Release();

  001d2	8b 4d dc	 mov	 ecx, DWORD PTR _pIPacketForOpen$[ebp]
  001d5	51		 push	 ecx
  001d6	c7 45 fc ff ff
	ff ff		 mov	 DWORD PTR __$EHRec$[ebp+12], -1
  001dd	8b 01		 mov	 eax, DWORD PTR [ecx]
  001df	ff 50 08	 call	 DWORD PTR [eax+8]
  001e2	8b 4d d8	 mov	 ecx, DWORD PTR _pIPacketForHigh$[ebp]
  001e5	51		 push	 ecx
  001e6	8b 01		 mov	 eax, DWORD PTR [ecx]
  001e8	ff 50 08	 call	 DWORD PTR [eax+8]
  001eb	8b 4d d4	 mov	 ecx, DWORD PTR _pIPacketForLow$[ebp]
  001ee	51		 push	 ecx
  001ef	8b 01		 mov	 eax, DWORD PTR [ecx]
  001f1	ff 50 08	 call	 DWORD PTR [eax+8]
  001f4	8b 4d d0	 mov	 ecx, DWORD PTR _pIPacketForCur$[ebp]
  001f7	51		 push	 ecx
  001f8	8b 01		 mov	 eax, DWORD PTR [ecx]
  001fa	ff 50 08	 call	 DWORD PTR [eax+8]
  001fd	b8 01 00 00 00	 mov	 eax, 1

; 455  : 	pIPacketForHigh->Release();
; 456  : 	pIPacketForLow->Release();
; 457  : 	pIPacketForCur->Release();
; 458  : 	return TRUE;
; 459  : }

  00202	8b 4d f4	 mov	 ecx, DWORD PTR __$EHRec$[ebp+4]
  00205	64 89 0d 00 00
	00 00		 mov	 DWORD PTR fs:0, ecx
  0020c	59		 pop	 ecx
  0020d	5f		 pop	 edi
  0020e	5e		 pop	 esi
  0020f	5b		 pop	 ebx
  00210	8b e5		 mov	 esp, ebp
  00212	5d		 pop	 ebp
  00213	c2 08 00	 ret	 8
__catch$?AddData@CChartDragCandleAnalAddInImp@@IAEHHH@Z$0:

; 446  : 	catch( CChartDragCandleAnalAddInImp *)
; 447  : 	{
; 448  : 		pIPacketForOpen->Release();

  00216	8b 45 dc	 mov	 eax, DWORD PTR _pIPacketForOpen$[ebp]
  00219	50		 push	 eax
  0021a	8b 08		 mov	 ecx, DWORD PTR [eax]
  0021c	ff 51 08	 call	 DWORD PTR [ecx+8]

; 449  : 		pIPacketForHigh->Release();

  0021f	8b 45 d8	 mov	 eax, DWORD PTR _pIPacketForHigh$[ebp]
  00222	50		 push	 eax
  00223	8b 08		 mov	 ecx, DWORD PTR [eax]
  00225	ff 51 08	 call	 DWORD PTR [ecx+8]

; 450  : 		pIPacketForLow->Release();

  00228	8b 45 d4	 mov	 eax, DWORD PTR _pIPacketForLow$[ebp]
  0022b	50		 push	 eax
  0022c	8b 08		 mov	 ecx, DWORD PTR [eax]
  0022e	ff 51 08	 call	 DWORD PTR [ecx+8]

; 451  : 		pIPacketForCur->Release();

  00231	8b 45 d0	 mov	 eax, DWORD PTR _pIPacketForCur$[ebp]
  00234	50		 push	 eax
  00235	8b 08		 mov	 ecx, DWORD PTR [eax]
  00237	ff 51 08	 call	 DWORD PTR [ecx+8]

; 452  : 		return FALSE;

  0023a	b8 00 00 00 00	 mov	 eax, $LN15@AddData
  0023f	c3		 ret	 0
$LN15@AddData:
  00240	33 c0		 xor	 eax, eax

; 455  : 	pIPacketForHigh->Release();
; 456  : 	pIPacketForLow->Release();
; 457  : 	pIPacketForCur->Release();
; 458  : 	return TRUE;
; 459  : }

  00242	8b 4d f4	 mov	 ecx, DWORD PTR __$EHRec$[ebp+4]
  00245	64 89 0d 00 00
	00 00		 mov	 DWORD PTR fs:0, ecx
  0024c	59		 pop	 ecx
  0024d	5f		 pop	 edi
  0024e	5e		 pop	 esi
  0024f	5b		 pop	 ebx
  00250	8b e5		 mov	 esp, ebp
  00252	5d		 pop	 ebp
  00253	c2 08 00	 ret	 8
_TEXT	ENDS
;	COMDAT text$x
text$x	SEGMENT
__unwindfunclet$?AddData@CChartDragCandleAnalAddInImp@@IAEHHH@Z$2:
  00000	8d 4d e0	 lea	 ecx, DWORD PTR _strOpen$6[ebp]
  00003	ff 25 00 00 00
	00		 jmp	 DWORD PTR __imp_??1?$CStringT@DV?$StrTraitMFC_DLL@DV?$ChTraitsCRT@D@ATL@@@@@ATL@@QAE@XZ
__unwindfunclet$?AddData@CChartDragCandleAnalAddInImp@@IAEHHH@Z$3:
  00009	8d 4d e4	 lea	 ecx, DWORD PTR _strHigh$7[ebp]
  0000c	ff 25 00 00 00
	00		 jmp	 DWORD PTR __imp_??1?$CStringT@DV?$StrTraitMFC_DLL@DV?$ChTraitsCRT@D@ATL@@@@@ATL@@QAE@XZ
__unwindfunclet$?AddData@CChartDragCandleAnalAddInImp@@IAEHHH@Z$4:
  00012	8d 4d e8	 lea	 ecx, DWORD PTR _strLow$8[ebp]
  00015	ff 25 00 00 00
	00		 jmp	 DWORD PTR __imp_??1?$CStringT@DV?$StrTraitMFC_DLL@DV?$ChTraitsCRT@D@ATL@@@@@ATL@@QAE@XZ
__unwindfunclet$?AddData@CChartDragCandleAnalAddInImp@@IAEHHH@Z$5:
  0001b	8d 4d ec	 lea	 ecx, DWORD PTR _strClose$9[ebp]
  0001e	ff 25 00 00 00
	00		 jmp	 DWORD PTR __imp_??1?$CStringT@DV?$StrTraitMFC_DLL@DV?$ChTraitsCRT@D@ATL@@@@@ATL@@QAE@XZ
  00024	cc		 int	 3
  00025	cc		 int	 3
  00026	cc		 int	 3
  00027	cc		 int	 3
  00028	cc		 int	 3
__ehhandler$?AddData@CChartDragCandleAnalAddInImp@@IAEHHH@Z:
  00029	90		 npad	 1
  0002a	90		 npad	 1
  0002b	8b 54 24 08	 mov	 edx, DWORD PTR [esp+8]
  0002f	8d 42 0c	 lea	 eax, DWORD PTR [edx+12]
  00032	8b 4a ac	 mov	 ecx, DWORD PTR [edx-84]
  00035	33 c8		 xor	 ecx, eax
  00037	e8 00 00 00 00	 call	 @__security_check_cookie@4
  0003c	b8 00 00 00 00	 mov	 eax, OFFSET __ehfuncinfo$?AddData@CChartDragCandleAnalAddInImp@@IAEHHH@Z
  00041	e9 00 00 00 00	 jmp	 ___CxxFrameHandler3
text$x	ENDS
?AddData@CChartDragCandleAnalAddInImp@@IAEHHH@Z ENDP	; CChartDragCandleAnalAddInImp::AddData
; Function compile flags: /Ogtp
; File C:\Program Files (x86)\Microsoft Visual Studio\2019\Community\VC\Tools\MSVC\14.29.30133\atlmfc\include\afxtempl.h
; File C:\Program Files (x86)\Microsoft Visual Studio\2019\Community\VC\Tools\MSVC\14.29.30133\atlmfc\include\afx.inl
;	COMDAT ??_G?$CList@V?$CStringT@DV?$StrTraitMFC_DLL@DV?$ChTraitsCRT@D@ATL@@@@@ATL@@AAV12@@@UAEPAXI@Z
_TEXT	SEGMENT
__$EHRec$ = -12						; size = 12
___flags$ = 8						; size = 4
??_G?$CList@V?$CStringT@DV?$StrTraitMFC_DLL@DV?$ChTraitsCRT@D@ATL@@@@@ATL@@AAV12@@@UAEPAXI@Z PROC ; CList<ATL::CStringT<char,StrTraitMFC_DLL<char,ATL::ChTraitsCRT<char> > >,ATL::CStringT<char,StrTraitMFC_DLL<char,ATL::ChTraitsCRT<char> > > &>::`scalar deleting destructor', COMDAT
; _this$ = ecx
  00000	55		 push	 ebp
  00001	8b ec		 mov	 ebp, esp
  00003	6a ff		 push	 -1
  00005	68 00 00 00 00	 push	 __ehhandler$??_G?$CList@V?$CStringT@DV?$StrTraitMFC_DLL@DV?$ChTraitsCRT@D@ATL@@@@@ATL@@AAV12@@@UAEPAXI@Z
  0000a	64 a1 00 00 00
	00		 mov	 eax, DWORD PTR fs:0
  00010	50		 push	 eax
  00011	56		 push	 esi
  00012	a1 00 00 00 00	 mov	 eax, DWORD PTR ___security_cookie
  00017	33 c5		 xor	 eax, ebp
  00019	50		 push	 eax
  0001a	8d 45 f4	 lea	 eax, DWORD PTR __$EHRec$[ebp]
  0001d	64 a3 00 00 00
	00		 mov	 DWORD PTR fs:0, eax
  00023	8b f1		 mov	 esi, ecx
; File C:\Program Files (x86)\Microsoft Visual Studio\2019\Community\VC\Tools\MSVC\14.29.30133\atlmfc\include\afxtempl.h

; 878  : {

  00025	c7 45 fc 00 00
	00 00		 mov	 DWORD PTR __$EHRec$[ebp+8], 0
  0002c	c7 06 00 00 00
	00		 mov	 DWORD PTR [esi], OFFSET ??_7?$CList@V?$CStringT@DV?$StrTraitMFC_DLL@DV?$ChTraitsCRT@D@ATL@@@@@ATL@@AAV12@@@6B@

; 879  : 	RemoveAll();

  00032	e8 00 00 00 00	 call	 ?RemoveAll@?$CList@V?$CStringT@DV?$StrTraitMFC_DLL@DV?$ChTraitsCRT@D@ATL@@@@@ATL@@AAV12@@@QAEXXZ ; CList<ATL::CStringT<char,StrTraitMFC_DLL<char,ATL::ChTraitsCRT<char> > >,ATL::CStringT<char,StrTraitMFC_DLL<char,ATL::ChTraitsCRT<char> > > &>::RemoveAll
  00037	8b 45 08	 mov	 eax, DWORD PTR ___flags$[ebp]
  0003a	a8 01		 test	 al, 1
  0003c	74 2c		 je	 SHORT $LN12@scalar
  0003e	a8 04		 test	 al, 4
  00040	75 1d		 jne	 SHORT $LN3@scalar
; File C:\Program Files (x86)\Microsoft Visual Studio\2019\Community\VC\Tools\MSVC\14.29.30133\atlmfc\include\afx.inl

; 112  : 	{ ::operator delete(p); }

  00042	56		 push	 esi
  00043	e8 00 00 00 00	 call	 ??3@YAXPAX@Z		; operator delete
  00048	83 c4 04	 add	 esp, 4
  0004b	8b c6		 mov	 eax, esi
  0004d	8b 4d f4	 mov	 ecx, DWORD PTR __$EHRec$[ebp]
  00050	64 89 0d 00 00
	00 00		 mov	 DWORD PTR fs:0, ecx
  00057	59		 pop	 ecx
  00058	5e		 pop	 esi
  00059	8b e5		 mov	 esp, ebp
  0005b	5d		 pop	 ebp
  0005c	c2 04 00	 ret	 4
$LN3@scalar:
  0005f	6a 1c		 push	 28			; 0000001cH
  00061	56		 push	 esi
  00062	e8 00 00 00 00	 call	 ?__global_delete@@YAXPAXI@Z ; __global_delete
  00067	83 c4 08	 add	 esp, 8
$LN12@scalar:
  0006a	8b c6		 mov	 eax, esi
  0006c	8b 4d f4	 mov	 ecx, DWORD PTR __$EHRec$[ebp]
  0006f	64 89 0d 00 00
	00 00		 mov	 DWORD PTR fs:0, ecx
  00076	59		 pop	 ecx
  00077	5e		 pop	 esi
  00078	8b e5		 mov	 esp, ebp
  0007a	5d		 pop	 ebp
  0007b	c2 04 00	 ret	 4
  0007e	cc		 int	 3
  0007f	cc		 int	 3
  00080	cc		 int	 3
  00081	cc		 int	 3
  00082	cc		 int	 3
_TEXT	ENDS
;	COMDAT text$x
text$x	SEGMENT
__ehhandler$??_G?$CList@V?$CStringT@DV?$StrTraitMFC_DLL@DV?$ChTraitsCRT@D@ATL@@@@@ATL@@AAV12@@@UAEPAXI@Z:
  00000	90		 npad	 1
  00001	90		 npad	 1
  00002	8b 54 24 08	 mov	 edx, DWORD PTR [esp+8]
  00006	8d 42 0c	 lea	 eax, DWORD PTR [edx+12]
  00009	8b 4a f8	 mov	 ecx, DWORD PTR [edx-8]
  0000c	33 c8		 xor	 ecx, eax
  0000e	e8 00 00 00 00	 call	 @__security_check_cookie@4
  00013	b8 00 00 00 00	 mov	 eax, OFFSET __ehfuncinfo$??_G?$CList@V?$CStringT@DV?$StrTraitMFC_DLL@DV?$ChTraitsCRT@D@ATL@@@@@ATL@@AAV12@@@UAEPAXI@Z
  00018	e9 00 00 00 00	 jmp	 ___CxxFrameHandler3
text$x	ENDS
??_G?$CList@V?$CStringT@DV?$StrTraitMFC_DLL@DV?$ChTraitsCRT@D@ATL@@@@@ATL@@AAV12@@@UAEPAXI@Z ENDP ; CList<ATL::CStringT<char,StrTraitMFC_DLL<char,ATL::ChTraitsCRT<char> > >,ATL::CStringT<char,StrTraitMFC_DLL<char,ATL::ChTraitsCRT<char> > > &>::`scalar deleting destructor'
; Function compile flags: /Ogtp
; File C:\Program Files (x86)\Microsoft Visual Studio\2019\Community\VC\Tools\MSVC\14.29.30133\atlmfc\include\afxtempl.h
; File C:\Program Files (x86)\Microsoft Visual Studio\2019\Community\VC\Tools\MSVC\14.29.30133\atlmfc\include\afx.inl
; File C:\Program Files (x86)\Microsoft Visual Studio\2019\Community\VC\Tools\MSVC\14.29.30133\atlmfc\include\afxtempl.h
; File C:\Program Files (x86)\Microsoft Visual Studio\2019\Community\VC\Tools\MSVC\14.29.30133\atlmfc\include\afx.inl
; File C:\Program Files (x86)\Microsoft Visual Studio\2019\Community\VC\Tools\MSVC\14.29.30133\atlmfc\include\afxtempl.h
;	COMDAT ?Serialize@?$CList@V?$CStringT@DV?$StrTraitMFC_DLL@DV?$ChTraitsCRT@D@ATL@@@@@ATL@@AAV12@@@UAEXAAVCArchive@@@Z
_TEXT	SEGMENT
_nNewCount$1$ = -20					; size = 4
_newData$2 = -16					; size = 4
__$EHRec$ = -12						; size = 12
_ar$ = 8						; size = 4
?Serialize@?$CList@V?$CStringT@DV?$StrTraitMFC_DLL@DV?$ChTraitsCRT@D@ATL@@@@@ATL@@AAV12@@@UAEXAAVCArchive@@@Z PROC ; CList<ATL::CStringT<char,StrTraitMFC_DLL<char,ATL::ChTraitsCRT<char> > >,ATL::CStringT<char,StrTraitMFC_DLL<char,ATL::ChTraitsCRT<char> > > &>::Serialize, COMDAT
; _this$ = ecx

; 1169 : {

  00000	55		 push	 ebp
  00001	8b ec		 mov	 ebp, esp
  00003	6a ff		 push	 -1
  00005	68 00 00 00 00	 push	 __ehhandler$?Serialize@?$CList@V?$CStringT@DV?$StrTraitMFC_DLL@DV?$ChTraitsCRT@D@ATL@@@@@ATL@@AAV12@@@UAEXAAVCArchive@@@Z
  0000a	64 a1 00 00 00
	00		 mov	 eax, DWORD PTR fs:0
  00010	50		 push	 eax
  00011	83 ec 08	 sub	 esp, 8
  00014	53		 push	 ebx
  00015	56		 push	 esi
  00016	57		 push	 edi
  00017	a1 00 00 00 00	 mov	 eax, DWORD PTR ___security_cookie
  0001c	33 c5		 xor	 eax, ebp
  0001e	50		 push	 eax
  0001f	8d 45 f4	 lea	 eax, DWORD PTR __$EHRec$[ebp]
  00022	64 a3 00 00 00
	00		 mov	 DWORD PTR fs:0, eax
  00028	8b f9		 mov	 edi, ecx
; File C:\Program Files (x86)\Microsoft Visual Studio\2019\Community\VC\Tools\MSVC\14.29.30133\atlmfc\include\afx.inl

; 212  : 	{ return (m_nMode & CArchive::load) == 0; }

  0002a	8b 5d 08	 mov	 ebx, DWORD PTR _ar$[ebp]
; File C:\Program Files (x86)\Microsoft Visual Studio\2019\Community\VC\Tools\MSVC\14.29.30133\atlmfc\include\afxtempl.h

; 1174 : 	if (ar.IsStoring())

  0002d	8b cb		 mov	 ecx, ebx
; File C:\Program Files (x86)\Microsoft Visual Studio\2019\Community\VC\Tools\MSVC\14.29.30133\atlmfc\include\afx.inl

; 212  : 	{ return (m_nMode & CArchive::load) == 0; }

  0002f	8b 43 18	 mov	 eax, DWORD PTR [ebx+24]
  00032	f7 d0		 not	 eax
  00034	a8 01		 test	 al, 1
; File C:\Program Files (x86)\Microsoft Visual Studio\2019\Community\VC\Tools\MSVC\14.29.30133\atlmfc\include\afxtempl.h

; 1174 : 	if (ar.IsStoring())

  00036	74 35		 je	 SHORT $LN7@Serialize

; 1175 : 	{
; 1176 : 		ar.WriteCount(m_nCount);

  00038	ff 77 0c	 push	 DWORD PTR [edi+12]
  0003b	e8 00 00 00 00	 call	 ?WriteCount@CArchive@@QAEXK@Z ; CArchive::WriteCount

; 1177 : 		for (CNode* pNode = m_pNodeHead; pNode != NULL; pNode = pNode->pNext)

  00040	8b 77 04	 mov	 esi, DWORD PTR [edi+4]
  00043	85 f6		 test	 esi, esi
  00045	74 12		 je	 SHORT $LN46@Serialize
$LL4@Serialize:

; 1178 : 		{
; 1179 : 			ASSERT(AfxIsValidAddress(pNode, sizeof(CNode)));
; 1180 : 			TYPE* pData;
; 1181 : 			/*
; 1182 : 			 * in some cases the & operator might be overloaded, and we cannot use it to obtain
; 1183 : 			 * the address of a given object.  We then use the following trick to get the address
; 1184 : 			 */
; 1185 : 			pData = reinterpret_cast< TYPE* >( &reinterpret_cast< int& >( static_cast< TYPE& >( pNode->data ) ) );
; 1186 : 			SerializeElements<TYPE>(ar, pData, 1);

  00047	6a 01		 push	 1
  00049	8d 46 08	 lea	 eax, DWORD PTR [esi+8]
  0004c	50		 push	 eax
  0004d	53		 push	 ebx
  0004e	e8 00 00 00 00	 call	 ??$SerializeElements@V?$CStringT@DV?$StrTraitMFC_DLL@DV?$ChTraitsCRT@D@ATL@@@@@ATL@@@@YGXAAVCArchive@@PAV?$CStringT@DV?$StrTraitMFC_DLL@DV?$ChTraitsCRT@D@ATL@@@@@ATL@@H@Z ; SerializeElements<ATL::CStringT<char,StrTraitMFC_DLL<char,ATL::ChTraitsCRT<char> > > >
  00053	8b 36		 mov	 esi, DWORD PTR [esi]
  00055	85 f6		 test	 esi, esi
  00057	75 ee		 jne	 SHORT $LL4@Serialize
$LN46@Serialize:

; 1198 : 	}
; 1199 : }

  00059	8b 4d f4	 mov	 ecx, DWORD PTR __$EHRec$[ebp]
  0005c	64 89 0d 00 00
	00 00		 mov	 DWORD PTR fs:0, ecx
  00063	59		 pop	 ecx
  00064	5f		 pop	 edi
  00065	5e		 pop	 esi
  00066	5b		 pop	 ebx
  00067	8b e5		 mov	 esp, ebp
  00069	5d		 pop	 ebp
  0006a	c2 04 00	 ret	 4
$LN7@Serialize:

; 1187 : 		}
; 1188 : 	}
; 1189 : 	else
; 1190 : 	{
; 1191 : 		DWORD_PTR nNewCount = ar.ReadCount();

  0006d	e8 00 00 00 00	 call	 ?ReadCount@CArchive@@QAEKXZ ; CArchive::ReadCount

; 1192 : 		while (nNewCount--)

  00072	85 c0		 test	 eax, eax
  00074	74 e3		 je	 SHORT $LN46@Serialize
  00076	66 66 0f 1f 84
	00 00 00 00 00	 npad	 10
$LL5@Serialize:

; 1193 : 		{
; 1194 : 			TYPE newData[1];

  00080	ff 35 00 00 00
	00		 push	 DWORD PTR __imp_??1?$CStringT@DV?$StrTraitMFC_DLL@DV?$ChTraitsCRT@D@ATL@@@@@ATL@@QAE@XZ
  00086	48		 dec	 eax
  00087	ff 35 00 00 00
	00		 push	 DWORD PTR __imp_??0?$CStringT@DV?$StrTraitMFC_DLL@DV?$ChTraitsCRT@D@ATL@@@@@ATL@@QAE@XZ
  0008d	89 45 ec	 mov	 DWORD PTR _nNewCount$1$[ebp], eax
  00090	8d 45 f0	 lea	 eax, DWORD PTR _newData$2[ebp]
  00093	6a 01		 push	 1
  00095	6a 04		 push	 4
  00097	50		 push	 eax
  00098	e8 00 00 00 00	 call	 ??_L@YGXPAXIIP6EX0@Z1@Z

; 1195 : 			SerializeElements<TYPE>(ar, newData, 1);

  0009d	6a 01		 push	 1
  0009f	8d 45 f0	 lea	 eax, DWORD PTR _newData$2[ebp]
  000a2	c7 45 fc 00 00
	00 00		 mov	 DWORD PTR __$EHRec$[ebp+8], 0
  000a9	50		 push	 eax
  000aa	53		 push	 ebx
  000ab	e8 00 00 00 00	 call	 ??$SerializeElements@V?$CStringT@DV?$StrTraitMFC_DLL@DV?$ChTraitsCRT@D@ATL@@@@@ATL@@@@YGXAAVCArchive@@PAV?$CStringT@DV?$StrTraitMFC_DLL@DV?$ChTraitsCRT@D@ATL@@@@@ATL@@H@Z ; SerializeElements<ATL::CStringT<char,StrTraitMFC_DLL<char,ATL::ChTraitsCRT<char> > > >

; 902  : 	if (m_pNodeFree == NULL)

  000b0	8b 5f 10	 mov	 ebx, DWORD PTR [edi+16]

; 968  : 	CNode* pNewNode = NewNode(m_pNodeTail, NULL);

  000b3	8b 77 08	 mov	 esi, DWORD PTR [edi+8]

; 902  : 	if (m_pNodeFree == NULL)

  000b6	85 db		 test	 ebx, ebx
  000b8	75 41		 jne	 SHORT $LN44@Serialize

; 903  : 	{
; 904  : 		// add another block
; 905  : 		CPlex* pNewBlock = CPlex::Create(m_pBlocks, m_nBlockSize,

  000ba	6a 0c		 push	 12			; 0000000cH
  000bc	ff 77 18	 push	 DWORD PTR [edi+24]
  000bf	8d 47 14	 lea	 eax, DWORD PTR [edi+20]
  000c2	50		 push	 eax
  000c3	e8 00 00 00 00	 call	 ?Create@CPlex@@SGPAU1@AAPAU1@II@Z ; CPlex::Create

; 906  : 				 sizeof(CNode));
; 907  : 
; 908  : 		// chain them into free list
; 909  : 		CNode* pNode = (CNode*) pNewBlock->data();
; 910  : 		// free in reverse order to make it easier to debug
; 911  : 		pNode += m_nBlockSize - 1;

  000c8	8b 57 18	 mov	 edx, DWORD PTR [edi+24]
  000cb	8d 0c 52	 lea	 ecx, DWORD PTR [edx+edx*2]
  000ce	8d 04 88	 lea	 eax, DWORD PTR [eax+ecx*4]
  000d1	83 c0 fc	 add	 eax, -4			; fffffffcH

; 912  : 		for (INT_PTR i = m_nBlockSize-1; i >= 0; i--, pNode--)

  000d4	83 c2 ff	 add	 edx, -1
  000d7	78 1b		 js	 SHORT $LN45@Serialize
  000d9	0f 1f 80 00 00
	00 00		 npad	 7
$LL20@Serialize:

; 913  : 		{
; 914  : 			pNode->pNext = m_pNodeFree;

  000e0	8b 4f 10	 mov	 ecx, DWORD PTR [edi+16]
  000e3	8b d8		 mov	 ebx, eax
  000e5	89 08		 mov	 DWORD PTR [eax], ecx

; 915  : 			m_pNodeFree = pNode;

  000e7	89 47 10	 mov	 DWORD PTR [edi+16], eax
  000ea	83 e8 0c	 sub	 eax, 12			; 0000000cH
  000ed	83 ea 01	 sub	 edx, 1
  000f0	79 ee		 jns	 SHORT $LL20@Serialize
  000f2	eb 03		 jmp	 SHORT $LN23@Serialize
$LN45@Serialize:
  000f4	8b 5f 10	 mov	 ebx, DWORD PTR [edi+16]
$LN23@Serialize:

; 916  : 		}
; 917  : 	}
; 918  : 	ENSURE(m_pNodeFree != NULL);  // we must have something

  000f7	85 db		 test	 ebx, ebx
  000f9	74 65		 je	 SHORT $LN32@Serialize
$LN44@Serialize:

; 919  : 
; 920  : 	CList::CNode* pNode = m_pNodeFree;
; 921  : 	m_pNodeFree = m_pNodeFree->pNext;

  000fb	8b 03		 mov	 eax, DWORD PTR [ebx]

; 922  : 	pNode->pPrev = pPrev;
; 923  : 	pNode->pNext = pNext;
; 924  : 	m_nCount++;
; 925  : 	ASSERT(m_nCount > 0);  // make sure we don't overflow
; 926  : 
; 927  : #pragma push_macro("new")
; 928  : #undef new
; 929  : 	::new( (void*)( &pNode->data ) ) TYPE;

  000fd	8d 4b 08	 lea	 ecx, DWORD PTR [ebx+8]
  00100	89 47 10	 mov	 DWORD PTR [edi+16], eax
  00103	89 73 04	 mov	 DWORD PTR [ebx+4], esi
  00106	c7 03 00 00 00
	00		 mov	 DWORD PTR [ebx], 0
  0010c	ff 47 0c	 inc	 DWORD PTR [edi+12]
  0010f	ff 15 00 00 00
	00		 call	 DWORD PTR __imp_??0?$CStringT@DV?$StrTraitMFC_DLL@DV?$ChTraitsCRT@D@ATL@@@@@ATL@@QAE@XZ

; 969  : 	pNewNode->data = newElement;

  00115	8d 45 f0	 lea	 eax, DWORD PTR _newData$2[ebp]
  00118	50		 push	 eax
  00119	8d 4b 08	 lea	 ecx, DWORD PTR [ebx+8]
  0011c	ff 15 00 00 00
	00		 call	 DWORD PTR __imp_??4?$CStringT@DV?$StrTraitMFC_DLL@DV?$ChTraitsCRT@D@ATL@@@@@ATL@@QAEAAV01@ABV01@@Z

; 970  : 	if (m_pNodeTail != NULL)

  00122	8b 47 08	 mov	 eax, DWORD PTR [edi+8]
  00125	85 c0		 test	 eax, eax
  00127	74 04		 je	 SHORT $LN14@Serialize

; 971  : 		m_pNodeTail->pNext = pNewNode;

  00129	89 18		 mov	 DWORD PTR [eax], ebx
  0012b	eb 03		 jmp	 SHORT $LN15@Serialize
$LN14@Serialize:

; 972  : 	else
; 973  : 		m_pNodeHead = pNewNode;

  0012d	89 5f 04	 mov	 DWORD PTR [edi+4], ebx
$LN15@Serialize:

; 1196 : 			AddTail(newData[0]);
; 1197 : 		}

  00130	ff 35 00 00 00
	00		 push	 DWORD PTR __imp_??1?$CStringT@DV?$StrTraitMFC_DLL@DV?$ChTraitsCRT@D@ATL@@@@@ATL@@QAE@XZ
  00136	8d 45 f0	 lea	 eax, DWORD PTR _newData$2[ebp]

; 974  : 	m_pNodeTail = pNewNode;

  00139	89 5f 08	 mov	 DWORD PTR [edi+8], ebx

; 1196 : 			AddTail(newData[0]);
; 1197 : 		}

  0013c	6a 01		 push	 1
  0013e	6a 04		 push	 4
  00140	50		 push	 eax
  00141	c7 45 fc ff ff
	ff ff		 mov	 DWORD PTR __$EHRec$[ebp+8], -1
  00148	e8 00 00 00 00	 call	 ??_M@YGXPAXIIP6EX0@Z@Z
  0014d	8b 45 ec	 mov	 eax, DWORD PTR _nNewCount$1$[ebp]
  00150	85 c0		 test	 eax, eax
  00152	0f 84 01 ff ff
	ff		 je	 $LN46@Serialize

; 1192 : 		while (nNewCount--)

  00158	8b 5d 08	 mov	 ebx, DWORD PTR _ar$[ebp]
  0015b	e9 20 ff ff ff	 jmp	 $LL5@Serialize
$LN32@Serialize:

; 918  : 	ENSURE(m_pNodeFree != NULL);  // we must have something

  00160	e8 00 00 00 00	 call	 ?AfxThrowInvalidArgException@@YGXXZ ; AfxThrowInvalidArgException
$LN48@Serialize:
  00165	cc		 int	 3
_TEXT	ENDS
;	COMDAT text$x
text$x	SEGMENT
__unwindfunclet$?Serialize@?$CList@V?$CStringT@DV?$StrTraitMFC_DLL@DV?$ChTraitsCRT@D@ATL@@@@@ATL@@AAV12@@@UAEXAAVCArchive@@@Z$0:
  00000	a1 00 00 00 00	 mov	 eax, DWORD PTR __imp_??1?$CStringT@DV?$StrTraitMFC_DLL@DV?$ChTraitsCRT@D@ATL@@@@@ATL@@QAE@XZ
  00005	50		 push	 eax
  00006	6a 01		 push	 1
  00008	6a 04		 push	 4
  0000a	8d 45 f0	 lea	 eax, DWORD PTR _newData$2[ebp]
  0000d	50		 push	 eax
  0000e	e8 00 00 00 00	 call	 ??_M@YGXPAXIIP6EX0@Z@Z
  00013	c3		 ret	 0
  00014	cc		 int	 3
  00015	cc		 int	 3
  00016	cc		 int	 3
  00017	cc		 int	 3
  00018	cc		 int	 3
__ehhandler$?Serialize@?$CList@V?$CStringT@DV?$StrTraitMFC_DLL@DV?$ChTraitsCRT@D@ATL@@@@@ATL@@AAV12@@@UAEXAAVCArchive@@@Z:
  00019	90		 npad	 1
  0001a	90		 npad	 1
  0001b	8b 54 24 08	 mov	 edx, DWORD PTR [esp+8]
  0001f	8d 42 0c	 lea	 eax, DWORD PTR [edx+12]
  00022	8b 4a e8	 mov	 ecx, DWORD PTR [edx-24]
  00025	33 c8		 xor	 ecx, eax
  00027	e8 00 00 00 00	 call	 @__security_check_cookie@4
  0002c	b8 00 00 00 00	 mov	 eax, OFFSET __ehfuncinfo$?Serialize@?$CList@V?$CStringT@DV?$StrTraitMFC_DLL@DV?$ChTraitsCRT@D@ATL@@@@@ATL@@AAV12@@@UAEXAAVCArchive@@@Z
  00031	e9 00 00 00 00	 jmp	 ___CxxFrameHandler3
text$x	ENDS
?Serialize@?$CList@V?$CStringT@DV?$StrTraitMFC_DLL@DV?$ChTraitsCRT@D@ATL@@@@@ATL@@AAV12@@@UAEXAAVCArchive@@@Z ENDP ; CList<ATL::CStringT<char,StrTraitMFC_DLL<char,ATL::ChTraitsCRT<char> > >,ATL::CStringT<char,StrTraitMFC_DLL<char,ATL::ChTraitsCRT<char> > > &>::Serialize
; Function compile flags: /Ogtp
; File C:\Program Files (x86)\Microsoft Visual Studio\2019\Community\VC\Tools\MSVC\14.29.30133\atlmfc\include\afxtempl.h
;	COMDAT ??1?$CList@V?$CStringT@DV?$StrTraitMFC_DLL@DV?$ChTraitsCRT@D@ATL@@@@@ATL@@AAV12@@@UAE@XZ
_TEXT	SEGMENT
__$EHRec$ = -12						; size = 12
??1?$CList@V?$CStringT@DV?$StrTraitMFC_DLL@DV?$ChTraitsCRT@D@ATL@@@@@ATL@@AAV12@@@UAE@XZ PROC ; CList<ATL::CStringT<char,StrTraitMFC_DLL<char,ATL::ChTraitsCRT<char> > >,ATL::CStringT<char,StrTraitMFC_DLL<char,ATL::ChTraitsCRT<char> > > &>::~CList<ATL::CStringT<char,StrTraitMFC_DLL<char,ATL::ChTraitsCRT<char> > >,ATL::CStringT<char,StrTraitMFC_DLL<char,ATL::ChTraitsCRT<char> > > &>, COMDAT
; _this$ = ecx

; 878  : {

  00000	55		 push	 ebp
  00001	8b ec		 mov	 ebp, esp
  00003	6a ff		 push	 -1
  00005	68 00 00 00 00	 push	 __ehhandler$??1?$CList@V?$CStringT@DV?$StrTraitMFC_DLL@DV?$ChTraitsCRT@D@ATL@@@@@ATL@@AAV12@@@UAE@XZ
  0000a	64 a1 00 00 00
	00		 mov	 eax, DWORD PTR fs:0
  00010	50		 push	 eax
  00011	a1 00 00 00 00	 mov	 eax, DWORD PTR ___security_cookie
  00016	33 c5		 xor	 eax, ebp
  00018	50		 push	 eax
  00019	8d 45 f4	 lea	 eax, DWORD PTR __$EHRec$[ebp]
  0001c	64 a3 00 00 00
	00		 mov	 DWORD PTR fs:0, eax
  00022	c7 01 00 00 00
	00		 mov	 DWORD PTR [ecx], OFFSET ??_7?$CList@V?$CStringT@DV?$StrTraitMFC_DLL@DV?$ChTraitsCRT@D@ATL@@@@@ATL@@AAV12@@@6B@

; 879  : 	RemoveAll();

  00028	e8 00 00 00 00	 call	 ?RemoveAll@?$CList@V?$CStringT@DV?$StrTraitMFC_DLL@DV?$ChTraitsCRT@D@ATL@@@@@ATL@@AAV12@@@QAEXXZ ; CList<ATL::CStringT<char,StrTraitMFC_DLL<char,ATL::ChTraitsCRT<char> > >,ATL::CStringT<char,StrTraitMFC_DLL<char,ATL::ChTraitsCRT<char> > > &>::RemoveAll

; 880  : 	ASSERT(m_nCount == 0);
; 881  : }

  0002d	8b 4d f4	 mov	 ecx, DWORD PTR __$EHRec$[ebp]
  00030	64 89 0d 00 00
	00 00		 mov	 DWORD PTR fs:0, ecx
  00037	59		 pop	 ecx
  00038	8b e5		 mov	 esp, ebp
  0003a	5d		 pop	 ebp
  0003b	c3		 ret	 0
  0003c	cc		 int	 3
  0003d	cc		 int	 3
  0003e	cc		 int	 3
  0003f	cc		 int	 3
  00040	cc		 int	 3
_TEXT	ENDS
;	COMDAT text$x
text$x	SEGMENT
__ehhandler$??1?$CList@V?$CStringT@DV?$StrTraitMFC_DLL@DV?$ChTraitsCRT@D@ATL@@@@@ATL@@AAV12@@@UAE@XZ:
  00000	90		 npad	 1
  00001	90		 npad	 1
  00002	8b 54 24 08	 mov	 edx, DWORD PTR [esp+8]
  00006	8d 42 0c	 lea	 eax, DWORD PTR [edx+12]
  00009	8b 4a fc	 mov	 ecx, DWORD PTR [edx-4]
  0000c	33 c8		 xor	 ecx, eax
  0000e	e8 00 00 00 00	 call	 @__security_check_cookie@4
  00013	b8 00 00 00 00	 mov	 eax, OFFSET __ehfuncinfo$??1?$CList@V?$CStringT@DV?$StrTraitMFC_DLL@DV?$ChTraitsCRT@D@ATL@@@@@ATL@@AAV12@@@UAE@XZ
  00018	e9 00 00 00 00	 jmp	 ___CxxFrameHandler3
text$x	ENDS
??1?$CList@V?$CStringT@DV?$StrTraitMFC_DLL@DV?$ChTraitsCRT@D@ATL@@@@@ATL@@AAV12@@@UAE@XZ ENDP ; CList<ATL::CStringT<char,StrTraitMFC_DLL<char,ATL::ChTraitsCRT<char> > >,ATL::CStringT<char,StrTraitMFC_DLL<char,ATL::ChTraitsCRT<char> > > &>::~CList<ATL::CStringT<char,StrTraitMFC_DLL<char,ATL::ChTraitsCRT<char> > >,ATL::CStringT<char,StrTraitMFC_DLL<char,ATL::ChTraitsCRT<char> > > &>
; Function compile flags: /Ogtp
; File C:\Program Files (x86)\Microsoft Visual Studio\2019\Community\VC\Tools\MSVC\14.29.30133\atlmfc\include\afxtempl.h
;	COMDAT ?NewNode@?$CList@V?$CStringT@DV?$StrTraitMFC_DLL@DV?$ChTraitsCRT@D@ATL@@@@@ATL@@AAV12@@@IAEPAUCNode@1@PAU21@0@Z
_TEXT	SEGMENT
_pPrev$ = 8						; size = 4
_pNext$ = 12						; size = 4
?NewNode@?$CList@V?$CStringT@DV?$StrTraitMFC_DLL@DV?$ChTraitsCRT@D@ATL@@@@@ATL@@AAV12@@@IAEPAUCNode@1@PAU21@0@Z PROC ; CList<ATL::CStringT<char,StrTraitMFC_DLL<char,ATL::ChTraitsCRT<char> > >,ATL::CStringT<char,StrTraitMFC_DLL<char,ATL::ChTraitsCRT<char> > > &>::NewNode, COMDAT
; _this$ = ecx

; 901  : {

  00000	55		 push	 ebp
  00001	8b ec		 mov	 ebp, esp
  00003	56		 push	 esi
  00004	8b f1		 mov	 esi, ecx
  00006	57		 push	 edi

; 902  : 	if (m_pNodeFree == NULL)

  00007	83 7e 10 00	 cmp	 DWORD PTR [esi+16], 0
  0000b	75 33		 jne	 SHORT $LN7@NewNode

; 903  : 	{
; 904  : 		// add another block
; 905  : 		CPlex* pNewBlock = CPlex::Create(m_pBlocks, m_nBlockSize,

  0000d	6a 0c		 push	 12			; 0000000cH
  0000f	ff 76 18	 push	 DWORD PTR [esi+24]
  00012	8d 46 14	 lea	 eax, DWORD PTR [esi+20]
  00015	50		 push	 eax
  00016	e8 00 00 00 00	 call	 ?Create@CPlex@@SGPAU1@AAPAU1@II@Z ; CPlex::Create

; 906  : 				 sizeof(CNode));
; 907  : 
; 908  : 		// chain them into free list
; 909  : 		CNode* pNode = (CNode*) pNewBlock->data();
; 910  : 		// free in reverse order to make it easier to debug
; 911  : 		pNode += m_nBlockSize - 1;

  0001b	8b 56 18	 mov	 edx, DWORD PTR [esi+24]
  0001e	83 c0 08	 add	 eax, 8
  00021	8d 0c 52	 lea	 ecx, DWORD PTR [edx+edx*2]
  00024	8d 04 88	 lea	 eax, DWORD PTR [eax+ecx*4]
  00027	83 c0 f4	 add	 eax, -12		; fffffff4H

; 912  : 		for (INT_PTR i = m_nBlockSize-1; i >= 0; i--, pNode--)

  0002a	83 c2 ff	 add	 edx, -1
  0002d	78 11		 js	 SHORT $LN7@NewNode
  0002f	90		 npad	 1
$LL4@NewNode:

; 913  : 		{
; 914  : 			pNode->pNext = m_pNodeFree;

  00030	8b 4e 10	 mov	 ecx, DWORD PTR [esi+16]
  00033	89 08		 mov	 DWORD PTR [eax], ecx

; 915  : 			m_pNodeFree = pNode;

  00035	89 46 10	 mov	 DWORD PTR [esi+16], eax
  00038	83 e8 0c	 sub	 eax, 12			; 0000000cH
  0003b	83 ea 01	 sub	 edx, 1
  0003e	79 f0		 jns	 SHORT $LL4@NewNode
$LN7@NewNode:

; 916  : 		}
; 917  : 	}
; 918  : 	ENSURE(m_pNodeFree != NULL);  // we must have something

  00040	8b 7e 10	 mov	 edi, DWORD PTR [esi+16]
  00043	85 ff		 test	 edi, edi
  00045	74 24		 je	 SHORT $LN17@NewNode

; 919  : 
; 920  : 	CList::CNode* pNode = m_pNodeFree;
; 921  : 	m_pNodeFree = m_pNodeFree->pNext;

  00047	8b 07		 mov	 eax, DWORD PTR [edi]

; 922  : 	pNode->pPrev = pPrev;

  00049	8b 4d 08	 mov	 ecx, DWORD PTR _pPrev$[ebp]
  0004c	89 46 10	 mov	 DWORD PTR [esi+16], eax
  0004f	89 4f 04	 mov	 DWORD PTR [edi+4], ecx

; 923  : 	pNode->pNext = pNext;

  00052	8b 4d 0c	 mov	 ecx, DWORD PTR _pNext$[ebp]
  00055	89 0f		 mov	 DWORD PTR [edi], ecx

; 924  : 	m_nCount++;
; 925  : 	ASSERT(m_nCount > 0);  // make sure we don't overflow
; 926  : 
; 927  : #pragma push_macro("new")
; 928  : #undef new
; 929  : 	::new( (void*)( &pNode->data ) ) TYPE;

  00057	8d 4f 08	 lea	 ecx, DWORD PTR [edi+8]
  0005a	ff 46 0c	 inc	 DWORD PTR [esi+12]
  0005d	ff 15 00 00 00
	00		 call	 DWORD PTR __imp_??0?$CStringT@DV?$StrTraitMFC_DLL@DV?$ChTraitsCRT@D@ATL@@@@@ATL@@QAE@XZ

; 930  : #pragma pop_macro("new")
; 931  : 	return pNode;

  00063	8b c7		 mov	 eax, edi
  00065	5f		 pop	 edi
  00066	5e		 pop	 esi

; 932  : }

  00067	5d		 pop	 ebp
  00068	c2 08 00	 ret	 8
$LN17@NewNode:

; 916  : 		}
; 917  : 	}
; 918  : 	ENSURE(m_pNodeFree != NULL);  // we must have something

  0006b	e8 00 00 00 00	 call	 ?AfxThrowInvalidArgException@@YGXXZ ; AfxThrowInvalidArgException
$LN15@NewNode:
  00070	cc		 int	 3
?NewNode@?$CList@V?$CStringT@DV?$StrTraitMFC_DLL@DV?$ChTraitsCRT@D@ATL@@@@@ATL@@AAV12@@@IAEPAUCNode@1@PAU21@0@Z ENDP ; CList<ATL::CStringT<char,StrTraitMFC_DLL<char,ATL::ChTraitsCRT<char> > >,ATL::CStringT<char,StrTraitMFC_DLL<char,ATL::ChTraitsCRT<char> > > &>::NewNode
_TEXT	ENDS
; Function compile flags: /Ogtp
; File C:\Program Files (x86)\Microsoft Visual Studio\2019\Community\VC\Tools\MSVC\14.29.30133\atlmfc\include\afxtempl.h
;	COMDAT ?RemoveAll@?$CList@V?$CStringT@DV?$StrTraitMFC_DLL@DV?$ChTraitsCRT@D@ATL@@@@@ATL@@AAV12@@@QAEXXZ
_TEXT	SEGMENT
?RemoveAll@?$CList@V?$CStringT@DV?$StrTraitMFC_DLL@DV?$ChTraitsCRT@D@ATL@@@@@ATL@@AAV12@@@QAEXXZ PROC ; CList<ATL::CStringT<char,StrTraitMFC_DLL<char,ATL::ChTraitsCRT<char> > >,ATL::CStringT<char,StrTraitMFC_DLL<char,ATL::ChTraitsCRT<char> > > &>::RemoveAll, COMDAT
; _this$ = ecx

; 862  : {

  00000	56		 push	 esi
  00001	57		 push	 edi
  00002	8b f9		 mov	 edi, ecx

; 863  : 	ASSERT_VALID(this);
; 864  : 
; 865  : 	// destroy elements
; 866  : 	CNode* pNode;
; 867  : 	for (pNode = m_pNodeHead; pNode != NULL; pNode = pNode->pNext)

  00004	8b 77 04	 mov	 esi, DWORD PTR [edi+4]
  00007	85 f6		 test	 esi, esi
  00009	74 14		 je	 SHORT $LN3@RemoveAll
  0000b	0f 1f 44 00 00	 npad	 5
$LL4@RemoveAll:

; 868  : 		pNode->data.~TYPE();

  00010	8d 4e 08	 lea	 ecx, DWORD PTR [esi+8]
  00013	ff 15 00 00 00
	00		 call	 DWORD PTR __imp_??1?$CStringT@DV?$StrTraitMFC_DLL@DV?$ChTraitsCRT@D@ATL@@@@@ATL@@QAE@XZ
  00019	8b 36		 mov	 esi, DWORD PTR [esi]
  0001b	85 f6		 test	 esi, esi
  0001d	75 f1		 jne	 SHORT $LL4@RemoveAll
$LN3@RemoveAll:

; 869  : 
; 870  : 	m_nCount = 0;
; 871  : 	m_pNodeHead = m_pNodeTail = m_pNodeFree = NULL;
; 872  : 	m_pBlocks->FreeDataChain();

  0001f	8b 4f 14	 mov	 ecx, DWORD PTR [edi+20]
  00022	c7 47 0c 00 00
	00 00		 mov	 DWORD PTR [edi+12], 0
  00029	c7 47 10 00 00
	00 00		 mov	 DWORD PTR [edi+16], 0
  00030	c7 47 08 00 00
	00 00		 mov	 DWORD PTR [edi+8], 0
  00037	c7 47 04 00 00
	00 00		 mov	 DWORD PTR [edi+4], 0
  0003e	e8 00 00 00 00	 call	 ?FreeDataChain@CPlex@@QAEXXZ ; CPlex::FreeDataChain

; 873  : 	m_pBlocks = NULL;

  00043	c7 47 14 00 00
	00 00		 mov	 DWORD PTR [edi+20], 0
  0004a	5f		 pop	 edi
  0004b	5e		 pop	 esi

; 874  : }

  0004c	c3		 ret	 0
?RemoveAll@?$CList@V?$CStringT@DV?$StrTraitMFC_DLL@DV?$ChTraitsCRT@D@ATL@@@@@ATL@@AAV12@@@QAEXXZ ENDP ; CList<ATL::CStringT<char,StrTraitMFC_DLL<char,ATL::ChTraitsCRT<char> > >,ATL::CStringT<char,StrTraitMFC_DLL<char,ATL::ChTraitsCRT<char> > > &>::RemoveAll
_TEXT	ENDS
; Function compile flags: /Ogtp
; File C:\Program Files (x86)\Microsoft Visual Studio\2019\Community\VC\Tools\MSVC\14.29.30133\atlmfc\include\afxtempl.h
;	COMDAT ?AddTail@?$CList@V?$CStringT@DV?$StrTraitMFC_DLL@DV?$ChTraitsCRT@D@ATL@@@@@ATL@@AAV12@@@QAEPAU__POSITION@@AAV?$CStringT@DV?$StrTraitMFC_DLL@DV?$ChTraitsCRT@D@ATL@@@@@ATL@@@Z
_TEXT	SEGMENT
_newElement$ = 8					; size = 4
?AddTail@?$CList@V?$CStringT@DV?$StrTraitMFC_DLL@DV?$ChTraitsCRT@D@ATL@@@@@ATL@@AAV12@@@QAEPAU__POSITION@@AAV?$CStringT@DV?$StrTraitMFC_DLL@DV?$ChTraitsCRT@D@ATL@@@@@ATL@@@Z PROC ; CList<ATL::CStringT<char,StrTraitMFC_DLL<char,ATL::ChTraitsCRT<char> > >,ATL::CStringT<char,StrTraitMFC_DLL<char,ATL::ChTraitsCRT<char> > > &>::AddTail, COMDAT
; _this$ = ecx

; 965  : {

  00000	55		 push	 ebp
  00001	8b ec		 mov	 ebp, esp
  00003	53		 push	 ebx
  00004	56		 push	 esi
  00005	8b f1		 mov	 esi, ecx
  00007	57		 push	 edi

; 902  : 	if (m_pNodeFree == NULL)

  00008	83 7e 10 00	 cmp	 DWORD PTR [esi+16], 0

; 966  : 	ASSERT_VALID(this);
; 967  : 
; 968  : 	CNode* pNewNode = NewNode(m_pNodeTail, NULL);

  0000c	8b 7e 08	 mov	 edi, DWORD PTR [esi+8]

; 902  : 	if (m_pNodeFree == NULL)

  0000f	75 32		 jne	 SHORT $LN11@AddTail

; 903  : 	{
; 904  : 		// add another block
; 905  : 		CPlex* pNewBlock = CPlex::Create(m_pBlocks, m_nBlockSize,

  00011	6a 0c		 push	 12			; 0000000cH
  00013	ff 76 18	 push	 DWORD PTR [esi+24]
  00016	8d 46 14	 lea	 eax, DWORD PTR [esi+20]
  00019	50		 push	 eax
  0001a	e8 00 00 00 00	 call	 ?Create@CPlex@@SGPAU1@AAPAU1@II@Z ; CPlex::Create

; 906  : 				 sizeof(CNode));
; 907  : 
; 908  : 		// chain them into free list
; 909  : 		CNode* pNode = (CNode*) pNewBlock->data();
; 910  : 		// free in reverse order to make it easier to debug
; 911  : 		pNode += m_nBlockSize - 1;

  0001f	8b 56 18	 mov	 edx, DWORD PTR [esi+24]
  00022	83 c0 08	 add	 eax, 8
  00025	8d 4a ff	 lea	 ecx, DWORD PTR [edx-1]

; 912  : 		for (INT_PTR i = m_nBlockSize-1; i >= 0; i--, pNode--)

  00028	83 c2 ff	 add	 edx, -1
  0002b	8d 0c 49	 lea	 ecx, DWORD PTR [ecx+ecx*2]
  0002e	8d 0c 88	 lea	 ecx, DWORD PTR [eax+ecx*4]
  00031	78 10		 js	 SHORT $LN11@AddTail
$LL8@AddTail:

; 913  : 		{
; 914  : 			pNode->pNext = m_pNodeFree;

  00033	8b 46 10	 mov	 eax, DWORD PTR [esi+16]
  00036	89 01		 mov	 DWORD PTR [ecx], eax

; 915  : 			m_pNodeFree = pNode;

  00038	89 4e 10	 mov	 DWORD PTR [esi+16], ecx
  0003b	83 e9 0c	 sub	 ecx, 12			; 0000000cH
  0003e	83 ea 01	 sub	 edx, 1
  00041	79 f0		 jns	 SHORT $LL8@AddTail
$LN11@AddTail:

; 916  : 		}
; 917  : 	}
; 918  : 	ENSURE(m_pNodeFree != NULL);  // we must have something

  00043	8b 5e 10	 mov	 ebx, DWORD PTR [esi+16]
  00046	85 db		 test	 ebx, ebx
  00048	74 4a		 je	 SHORT $LN22@AddTail

; 919  : 
; 920  : 	CList::CNode* pNode = m_pNodeFree;
; 921  : 	m_pNodeFree = m_pNodeFree->pNext;

  0004a	8b 03		 mov	 eax, DWORD PTR [ebx]

; 922  : 	pNode->pPrev = pPrev;
; 923  : 	pNode->pNext = pNext;
; 924  : 	m_nCount++;
; 925  : 	ASSERT(m_nCount > 0);  // make sure we don't overflow
; 926  : 
; 927  : #pragma push_macro("new")
; 928  : #undef new
; 929  : 	::new( (void*)( &pNode->data ) ) TYPE;

  0004c	8d 4b 08	 lea	 ecx, DWORD PTR [ebx+8]
  0004f	89 46 10	 mov	 DWORD PTR [esi+16], eax
  00052	89 7b 04	 mov	 DWORD PTR [ebx+4], edi
  00055	c7 03 00 00 00
	00		 mov	 DWORD PTR [ebx], 0
  0005b	ff 46 0c	 inc	 DWORD PTR [esi+12]
  0005e	ff 15 00 00 00
	00		 call	 DWORD PTR __imp_??0?$CStringT@DV?$StrTraitMFC_DLL@DV?$ChTraitsCRT@D@ATL@@@@@ATL@@QAE@XZ

; 969  : 	pNewNode->data = newElement;

  00064	ff 75 08	 push	 DWORD PTR _newElement$[ebp]
  00067	8d 4b 08	 lea	 ecx, DWORD PTR [ebx+8]
  0006a	ff 15 00 00 00
	00		 call	 DWORD PTR __imp_??4?$CStringT@DV?$StrTraitMFC_DLL@DV?$ChTraitsCRT@D@ATL@@@@@ATL@@QAEAAV01@ABV01@@Z

; 970  : 	if (m_pNodeTail != NULL)

  00070	8b 46 08	 mov	 eax, DWORD PTR [esi+8]
  00073	85 c0		 test	 eax, eax
  00075	74 0e		 je	 SHORT $LN2@AddTail

; 971  : 		m_pNodeTail->pNext = pNewNode;

  00077	89 18		 mov	 DWORD PTR [eax], ebx

; 972  : 	else
; 973  : 		m_pNodeHead = pNewNode;
; 974  : 	m_pNodeTail = pNewNode;
; 975  : 	return (POSITION) pNewNode;

  00079	8b c3		 mov	 eax, ebx
  0007b	5f		 pop	 edi
  0007c	89 5e 08	 mov	 DWORD PTR [esi+8], ebx
  0007f	5e		 pop	 esi
  00080	5b		 pop	 ebx

; 976  : }

  00081	5d		 pop	 ebp
  00082	c2 04 00	 ret	 4
$LN2@AddTail:

; 972  : 	else
; 973  : 		m_pNodeHead = pNewNode;
; 974  : 	m_pNodeTail = pNewNode;
; 975  : 	return (POSITION) pNewNode;

  00085	5f		 pop	 edi
  00086	89 5e 04	 mov	 DWORD PTR [esi+4], ebx
  00089	8b c3		 mov	 eax, ebx
  0008b	89 5e 08	 mov	 DWORD PTR [esi+8], ebx
  0008e	5e		 pop	 esi
  0008f	5b		 pop	 ebx

; 976  : }

  00090	5d		 pop	 ebp
  00091	c2 04 00	 ret	 4
$LN22@AddTail:

; 918  : 	ENSURE(m_pNodeFree != NULL);  // we must have something

  00094	e8 00 00 00 00	 call	 ?AfxThrowInvalidArgException@@YGXXZ ; AfxThrowInvalidArgException
$LN20@AddTail:
  00099	cc		 int	 3
?AddTail@?$CList@V?$CStringT@DV?$StrTraitMFC_DLL@DV?$ChTraitsCRT@D@ATL@@@@@ATL@@AAV12@@@QAEPAU__POSITION@@AAV?$CStringT@DV?$StrTraitMFC_DLL@DV?$ChTraitsCRT@D@ATL@@@@@ATL@@@Z ENDP ; CList<ATL::CStringT<char,StrTraitMFC_DLL<char,ATL::ChTraitsCRT<char> > >,ATL::CStringT<char,StrTraitMFC_DLL<char,ATL::ChTraitsCRT<char> > > &>::AddTail
_TEXT	ENDS
; Function compile flags: /Ogtp
; File C:\Program Files (x86)\Microsoft Visual Studio\2019\Community\VC\Tools\MSVC\14.29.30133\atlmfc\include\afxtempl.h
;	COMDAT ??0?$CList@V?$CStringT@DV?$StrTraitMFC_DLL@DV?$ChTraitsCRT@D@ATL@@@@@ATL@@AAV12@@@QAE@H@Z
_TEXT	SEGMENT
_nBlockSize$ = 8					; size = 4
??0?$CList@V?$CStringT@DV?$StrTraitMFC_DLL@DV?$ChTraitsCRT@D@ATL@@@@@ATL@@AAV12@@@QAE@H@Z PROC ; CList<ATL::CStringT<char,StrTraitMFC_DLL<char,ATL::ChTraitsCRT<char> > >,ATL::CStringT<char,StrTraitMFC_DLL<char,ATL::ChTraitsCRT<char> > > &>::CList<ATL::CStringT<char,StrTraitMFC_DLL<char,ATL::ChTraitsCRT<char> > >,ATL::CStringT<char,StrTraitMFC_DLL<char,ATL::ChTraitsCRT<char> > > &>, COMDAT
; _this$ = ecx

; 851  : {

  00000	55		 push	 ebp
  00001	8b ec		 mov	 ebp, esp

; 852  : 	ASSERT(nBlockSize > 0);
; 853  : 
; 854  : 	m_nCount = 0;
; 855  : 	m_pNodeHead = m_pNodeTail = m_pNodeFree = NULL;
; 856  : 	m_pBlocks = NULL;
; 857  : 	m_nBlockSize = nBlockSize;

  00003	8b 45 08	 mov	 eax, DWORD PTR _nBlockSize$[ebp]
  00006	89 41 18	 mov	 DWORD PTR [ecx+24], eax

; 858  : }

  00009	8b c1		 mov	 eax, ecx
  0000b	c7 01 00 00 00
	00		 mov	 DWORD PTR [ecx], OFFSET ??_7?$CList@V?$CStringT@DV?$StrTraitMFC_DLL@DV?$ChTraitsCRT@D@ATL@@@@@ATL@@AAV12@@@6B@
  00011	c7 41 0c 00 00
	00 00		 mov	 DWORD PTR [ecx+12], 0
  00018	c7 41 10 00 00
	00 00		 mov	 DWORD PTR [ecx+16], 0
  0001f	c7 41 08 00 00
	00 00		 mov	 DWORD PTR [ecx+8], 0
  00026	c7 41 04 00 00
	00 00		 mov	 DWORD PTR [ecx+4], 0
  0002d	c7 41 14 00 00
	00 00		 mov	 DWORD PTR [ecx+20], 0
  00034	5d		 pop	 ebp
  00035	c2 04 00	 ret	 4
??0?$CList@V?$CStringT@DV?$StrTraitMFC_DLL@DV?$ChTraitsCRT@D@ATL@@@@@ATL@@AAV12@@@QAE@H@Z ENDP ; CList<ATL::CStringT<char,StrTraitMFC_DLL<char,ATL::ChTraitsCRT<char> > >,ATL::CStringT<char,StrTraitMFC_DLL<char,ATL::ChTraitsCRT<char> > > &>::CList<ATL::CStringT<char,StrTraitMFC_DLL<char,ATL::ChTraitsCRT<char> > >,ATL::CStringT<char,StrTraitMFC_DLL<char,ATL::ChTraitsCRT<char> > > &>
_TEXT	ENDS
; Function compile flags: /Ogtp
; File D:\git\src\IBK\IBK_DRFN\ProjSrc\SrcChartEx\ChartAddIn\ChartPeriodSummaryAddIn\ChartDragCandleAnalAddInImp.cpp
;	COMDAT ?GetXPositoin@CChartDragCandleAnalAddInImp@@IAEHNNVCRect@@@Z
_TEXT	SEGMENT
_dDataOffset$ = 8					; size = 8
_dCandleWidth$ = 16					; size = 8
_rctGraphRegion$ = 24					; size = 16
?GetXPositoin@CChartDragCandleAnalAddInImp@@IAEHNNVCRect@@@Z PROC ; CChartDragCandleAnalAddInImp::GetXPositoin, COMDAT
; _this$ = ecx

; 462  : {

  00000	55		 push	 ebp
  00001	8b ec		 mov	 ebp, esp

; 463  : 	int	nLeftBorder, nRightBorder, nDataOffset, nXPos, nAdd;
; 464  : 	double dDecimalFrac;
; 465  : 
; 466  : 	nDataOffset = int(dDataOffset);

  00003	f2 0f 10 5d 08	 movsd	 xmm3, QWORD PTR _dDataOffset$[ebp]

; 467  : 	dDecimalFrac = dDataOffset - nDataOffset;
; 468  : 
; 469  : 	if((int)dCandleWidth > 2)

  00008	f2 0f 10 55 10	 movsd	 xmm2, QWORD PTR _dCandleWidth$[ebp]
  0000d	f2 0f 10 25 00
	00 00 00	 movsd	 xmm4, QWORD PTR __real@3fe0000000000000
  00015	f2 0f 2c d3	 cvttsd2si edx, xmm3
  00019	56		 push	 esi
  0001a	8b 75 18	 mov	 esi, DWORD PTR _rctGraphRegion$[ebp]
  0001d	8d 42 01	 lea	 eax, DWORD PTR [edx+1]
  00020	66 0f 6e c0	 movd	 xmm0, eax
  00024	f3 0f e6 c0	 cvtdq2pd xmm0, xmm0
  00028	f2 0f 2c c2	 cvttsd2si eax, xmm2
  0002c	f2 0f 59 c2	 mulsd	 xmm0, xmm2
  00030	f2 0f 58 c4	 addsd	 xmm0, xmm4
  00034	f2 0f 2c c8	 cvttsd2si ecx, xmm0
  00038	83 f8 02	 cmp	 eax, 2
  0003b	7e 44		 jle	 SHORT $LN2@GetXPosito

; 470  : 	{
; 471  : 		//   . (   1 Pixcel() .)
; 472  : 		nLeftBorder = rctGraphRegion.left + int( dCandleWidth * double( nDataOffset) + 0.5) + 1;

  0003d	66 0f 6e ca	 movd	 xmm1, edx
  00041	f3 0f e6 c9	 cvtdq2pd xmm1, xmm1
  00045	0f 28 c1	 movaps	 xmm0, xmm1
  00048	f2 0f 5c d9	 subsd	 xmm3, xmm1
  0004c	f2 0f 59 c2	 mulsd	 xmm0, xmm2

; 473  : 		
; 474  : 		//   . (    1 Pixcel() .)
; 475  : 		nRightBorder = rctGraphRegion.left + int( dCandleWidth * double( nDataOffset + 1) + 0.5) - 1;
; 476  : 		//    Pixel
; 477  : 		nAdd = int(dDecimalFrac * dCandleWidth);

  00050	f2 0f 59 da	 mulsd	 xmm3, xmm2
  00054	f2 0f 58 c4	 addsd	 xmm0, xmm4
  00058	f2 0f 2c c0	 cvttsd2si eax, xmm0

; 478  : 
; 479  : 		//   . ( .)
; 480  : 		nXPos = ( nLeftBorder + nRightBorder) / 2 + nAdd;

  0005c	03 c1		 add	 eax, ecx
  0005e	8d 04 70	 lea	 eax, DWORD PTR [eax+esi*2]
  00061	99		 cdq
  00062	2b c2		 sub	 eax, edx
  00064	8b d0		 mov	 edx, eax
  00066	f2 0f 2c c3	 cvttsd2si eax, xmm3
  0006a	d1 fa		 sar	 edx, 1
  0006c	03 d0		 add	 edx, eax

; 485  : 	}
; 486  : 
; 487  : 	if( nXPos > rctGraphRegion.right)

  0006e	3b 55 20	 cmp	 edx, DWORD PTR _rctGraphRegion$[ebp+8]
  00071	0f 4f 55 20	 cmovg	 edx, DWORD PTR _rctGraphRegion$[ebp+8]

; 488  : 		nXPos = rctGraphRegion.right;
; 489  : 	if( nXPos < rctGraphRegion.left)

  00075	3b d6		 cmp	 edx, esi
  00077	0f 4c d6	 cmovl	 edx, esi

; 490  : 		nXPos = rctGraphRegion.left;
; 491  : 	return nXPos;

  0007a	8b c2		 mov	 eax, edx
  0007c	5e		 pop	 esi

; 492  : }

  0007d	5d		 pop	 ebp
  0007e	c2 20 00	 ret	 32			; 00000020H
$LN2@GetXPosito:

; 481  : 	}
; 482  : 	else
; 483  : 	{
; 484  : 		nXPos = rctGraphRegion.left + int( dCandleWidth * double( nDataOffset + 1) + 0.5);

  00081	8d 14 31	 lea	 edx, DWORD PTR [ecx+esi]

; 485  : 	}
; 486  : 
; 487  : 	if( nXPos > rctGraphRegion.right)

  00084	3b 55 20	 cmp	 edx, DWORD PTR _rctGraphRegion$[ebp+8]
  00087	0f 4f 55 20	 cmovg	 edx, DWORD PTR _rctGraphRegion$[ebp+8]

; 488  : 		nXPos = rctGraphRegion.right;
; 489  : 	if( nXPos < rctGraphRegion.left)

  0008b	3b d6		 cmp	 edx, esi
  0008d	0f 4c d6	 cmovl	 edx, esi

; 490  : 		nXPos = rctGraphRegion.left;
; 491  : 	return nXPos;

  00090	8b c2		 mov	 eax, edx
  00092	5e		 pop	 esi

; 492  : }

  00093	5d		 pop	 ebp
  00094	c2 20 00	 ret	 32			; 00000020H
?GetXPositoin@CChartDragCandleAnalAddInImp@@IAEHNNVCRect@@@Z ENDP ; CChartDragCandleAnalAddInImp::GetXPositoin
_TEXT	ENDS
; Function compile flags: /Ogtp
; File D:\git\src\IBK\IBK_DRFN\ProjSrc\SrcChartEx\ChartAddIn\ChartPeriodSummaryAddIn\ChartDragCandleAnalAddInImp.cpp
; File D:\git\src\IBK\IBK_DRFN\ProjSrc\SrcChartEx\ChartAddIn\ChartPeriodSummaryAddIn\Include_AddIn\I133691\_IString.h
; File D:\git\src\IBK\IBK_DRFN\ProjSrc\SrcChartEx\ChartAddIn\ChartPeriodSummaryAddIn\ChartDragCandleAnalAddInImp.cpp
; File C:\Program Files (x86)\Microsoft Visual Studio\2019\Community\VC\Tools\MSVC\14.29.30133\atlmfc\include\cstringt.h
; File D:\git\src\IBK\IBK_DRFN\ProjSrc\SrcChartEx\ChartAddIn\ChartPeriodSummaryAddIn\ChartDragCandleAnalAddInImp.cpp
; File C:\Program Files (x86)\Microsoft Visual Studio\2019\Community\VC\Tools\MSVC\14.29.30133\atlmfc\include\cstringt.h
; File D:\git\src\IBK\IBK_DRFN\ProjSrc\SrcChartEx\ChartAddIn\ChartPeriodSummaryAddIn\ChartDragCandleAnalAddInImp.cpp
; File C:\Program Files (x86)\Microsoft Visual Studio\2019\Community\VC\Tools\MSVC\14.29.30133\atlmfc\include\cstringt.h
; File D:\git\src\IBK\IBK_DRFN\ProjSrc\SrcChartEx\ChartAddIn\ChartPeriodSummaryAddIn\ChartDragCandleAnalAddInImp.cpp
; File C:\Program Files (x86)\Microsoft Visual Studio\2019\Community\VC\Tools\MSVC\14.29.30133\atlmfc\include\cstringt.h
; File D:\git\src\IBK\IBK_DRFN\ProjSrc\SrcChartEx\ChartAddIn\ChartPeriodSummaryAddIn\ChartDragCandleAnalAddInImp.cpp
; File C:\Program Files (x86)\Microsoft Visual Studio\2019\Community\VC\Tools\MSVC\14.29.30133\atlmfc\include\atlsimpstr.h
; File D:\git\src\IBK\IBK_DRFN\ProjSrc\SrcChartEx\ChartAddIn\ChartPeriodSummaryAddIn\ChartDragCandleAnalAddInImp.cpp
; File C:\Program Files (x86)\Microsoft Visual Studio\2019\Community\VC\Tools\MSVC\14.29.30133\atlmfc\include\cstringt.h
; File D:\git\src\IBK\IBK_DRFN\ProjSrc\SrcChartEx\ChartAddIn\ChartPeriodSummaryAddIn\ChartDragCandleAnalAddInImp.cpp
; File C:\Program Files (x86)\Microsoft Visual Studio\2019\Community\VC\Tools\MSVC\14.29.30133\atlmfc\include\cstringt.h
; File D:\git\src\IBK\IBK_DRFN\ProjSrc\SrcChartEx\ChartAddIn\ChartPeriodSummaryAddIn\ChartDragCandleAnalAddInImp.cpp
; File D:\git\src\IBK\IBK_DRFN\ProjSrc\SrcChartEx\ChartAddIn\ChartPeriodSummaryAddIn\Include_AddIn\I133691\_IString.h
; File D:\git\src\IBK\IBK_DRFN\ProjSrc\SrcChartEx\ChartAddIn\ChartPeriodSummaryAddIn\ChartDragCandleAnalAddInImp.cpp
; File D:\git\src\IBK\IBK_DRFN\ProjSrc\SrcChartEx\ChartAddIn\ChartPeriodSummaryAddIn\Include_AddIn\I133691\_IString.h
; File D:\git\src\IBK\IBK_DRFN\ProjSrc\SrcChartEx\ChartAddIn\ChartPeriodSummaryAddIn\ChartDragCandleAnalAddInImp.cpp
; File D:\git\src\IBK\IBK_DRFN\ProjSrc\SrcChartEx\ChartAddIn\ChartPeriodSummaryAddIn\Include_AddIn\I133691\_IString.h
; File D:\git\src\IBK\IBK_DRFN\ProjSrc\SrcChartEx\ChartAddIn\ChartPeriodSummaryAddIn\ChartDragCandleAnalAddInImp.cpp
;	COMDAT ?GetIndexFromValue@CChartDragCandleAnalAddInImp@@IAEHV?$CStringT@DV?$StrTraitMFC_DLL@DV?$ChTraitsCRT@D@ATL@@@@@ATL@@HH@Z
_TEXT	SEGMENT
_is$2 = -56						; size = 8
_dTime$3 = -48						; size = 8
_pIPacket$ = -40					; size = 4
$T4 = -36						; size = 4
_this$1$ = -32						; size = 4
$T5 = -28						; size = 4
$T6 = -28						; size = 4
$T7 = -28						; size = 4
_lx$1$ = -24						; size = 4
_s$8 = -20						; size = 4
__$EHRec$ = -16						; size = 16
_strTime$ = 8						; size = 4
_nStartIndex$ = 12					; size = 4
_nEndIndex$ = 16					; size = 4
?GetIndexFromValue@CChartDragCandleAnalAddInImp@@IAEHV?$CStringT@DV?$StrTraitMFC_DLL@DV?$ChTraitsCRT@D@ATL@@@@@ATL@@HH@Z PROC ; CChartDragCandleAnalAddInImp::GetIndexFromValue, COMDAT
; _this$ = ecx

; 355  : {

  00000	55		 push	 ebp
  00001	8b ec		 mov	 ebp, esp
  00003	6a ff		 push	 -1
  00005	68 00 00 00 00	 push	 __ehhandler$?GetIndexFromValue@CChartDragCandleAnalAddInImp@@IAEHV?$CStringT@DV?$StrTraitMFC_DLL@DV?$ChTraitsCRT@D@ATL@@@@@ATL@@HH@Z
  0000a	64 a1 00 00 00
	00		 mov	 eax, DWORD PTR fs:0
  00010	50		 push	 eax
  00011	83 ec 2c	 sub	 esp, 44			; 0000002cH
  00014	53		 push	 ebx
  00015	56		 push	 esi
  00016	57		 push	 edi
  00017	a1 00 00 00 00	 mov	 eax, DWORD PTR ___security_cookie
  0001c	33 c5		 xor	 eax, ebp
  0001e	50		 push	 eax
  0001f	8d 45 f4	 lea	 eax, DWORD PTR __$EHRec$[ebp+4]
  00022	64 a3 00 00 00
	00		 mov	 DWORD PTR fs:0, eax
  00028	89 65 f0	 mov	 DWORD PTR __$EHRec$[ebp], esp
  0002b	8b c1		 mov	 eax, ecx
  0002d	89 45 e0	 mov	 DWORD PTR _this$1$[ebp], eax

; 356  : 	IPacket *pIPacket = m_pIDefaultPacketManager->GetPacket( _MTEXT( C0_DATE_TIME));

  00030	8b 48 24	 mov	 ecx, DWORD PTR [eax+36]
  00033	a1 54 00 00 00	 mov	 eax, DWORD PTR ?g_iMetaTable@@3VIMetaTable@@A+84
  00038	c7 45 fc 00 00
	00 00		 mov	 DWORD PTR __$EHRec$[ebp+12], 0
  0003f	8b 11		 mov	 edx, DWORD PTR [ecx]
  00041	ff 30		 push	 DWORD PTR [eax]
  00043	ff 52 10	 call	 DWORD PTR [edx+16]
  00046	8b f8		 mov	 edi, eax

; 357  : //	IPacket *pIPacket = m_pIPacketManager->GetPacket( "");
; 358  : 	int lx = 0;
; 359  : 	try

  00048	c6 45 fc 01	 mov	 BYTE PTR __$EHRec$[ebp+12], 1
  0004c	33 c0		 xor	 eax, eax
  0004e	89 7d d8	 mov	 DWORD PTR _pIPacket$[ebp], edi

; 361  : 		ILPCSTR is = pIPacket->GetType();

  00051	6a 01		 push	 1
  00053	8b cf		 mov	 ecx, edi
  00055	89 45 e8	 mov	 DWORD PTR _lx$1$[ebp], eax
  00058	8b 17		 mov	 edx, DWORD PTR [edi]
  0005a	ff 52 1c	 call	 DWORD PTR [edx+28]
  0005d	8b f0		 mov	 esi, eax
; File D:\git\src\IBK\IBK_DRFN\ProjSrc\SrcChartEx\ChartAddIn\ChartPeriodSummaryAddIn\Include_AddIn\I133691\_IString.h

; 39   : 		m_pIStrData = p_pIString;	// Do not AddRef(). Because It must be Return Value.

  0005f	89 75 cc	 mov	 DWORD PTR _is$2[ebp+4], esi
  00062	85 f6		 test	 esi, esi

; 40   : 		if( m_pIStrData) m_szData = m_pIStrData->GetData();

  00064	74 09		 je	 SHORT $LN29@GetIndexFr
  00066	8b 16		 mov	 edx, DWORD PTR [esi]
  00068	8b ce		 mov	 ecx, esi
  0006a	ff 52 10	 call	 DWORD PTR [edx+16]
  0006d	eb 02		 jmp	 SHORT $LN70@GetIndexFr
$LN29@GetIndexFr:

; 41   : 		else m_szData = NULL;

  0006f	33 c0		 xor	 eax, eax
$LN70@GetIndexFr:
; File D:\git\src\IBK\IBK_DRFN\ProjSrc\SrcChartEx\ChartAddIn\ChartPeriodSummaryAddIn\ChartDragCandleAnalAddInImp.cpp

; 361  : 		ILPCSTR is = pIPacket->GetType();

  00071	89 45 c8	 mov	 DWORD PTR _is$2[ebp], eax

; 362  : 		CString s = is;

  00074	50		 push	 eax
  00075	8d 4d ec	 lea	 ecx, DWORD PTR _s$8[ebp]
  00078	c6 45 fc 02	 mov	 BYTE PTR __$EHRec$[ebp+12], 2
  0007c	ff 15 00 00 00
	00		 call	 DWORD PTR __imp_??0?$CStringT@DV?$StrTraitMFC_DLL@DV?$ChTraitsCRT@D@ATL@@@@@ATL@@QAE@PBD@Z
; File C:\Program Files (x86)\Microsoft Visual Studio\2019\Community\VC\Tools\MSVC\14.29.30133\atlmfc\include\cstringt.h

; 2486 : 		return(str1.Compare(psz2) == 0);

  00082	68 00 00 00 00	 push	 OFFSET ??_C@_08DKDJLCMP@YYYYMMDD@
  00087	8d 4d ec	 lea	 ecx, DWORD PTR _s$8[ebp]
; File D:\git\src\IBK\IBK_DRFN\ProjSrc\SrcChartEx\ChartAddIn\ChartPeriodSummaryAddIn\ChartDragCandleAnalAddInImp.cpp

; 362  : 		CString s = is;

  0008a	c6 45 fc 03	 mov	 BYTE PTR __$EHRec$[ebp+12], 3
; File C:\Program Files (x86)\Microsoft Visual Studio\2019\Community\VC\Tools\MSVC\14.29.30133\atlmfc\include\cstringt.h

; 2486 : 		return(str1.Compare(psz2) == 0);

  0008e	ff 15 00 00 00
	00		 call	 DWORD PTR __imp_?Compare@?$CStringT@DV?$StrTraitMFC_DLL@DV?$ChTraitsCRT@D@ATL@@@@@ATL@@QBEHPBD@Z
  00094	85 c0		 test	 eax, eax
; File D:\git\src\IBK\IBK_DRFN\ProjSrc\SrcChartEx\ChartAddIn\ChartPeriodSummaryAddIn\ChartDragCandleAnalAddInImp.cpp

; 363  : 		if(s == "YYYYMMDD")

  00096	75 11		 jne	 SHORT $LN6@GetIndexFr

; 364  : 		{
; 365  : 			lx = atol(strTime.Left(8));

  00098	6a 08		 push	 8
  0009a	8d 45 e4	 lea	 eax, DWORD PTR $T7[ebp]
  0009d	50		 push	 eax
  0009e	8d 4d 08	 lea	 ecx, DWORD PTR _strTime$[ebp]
  000a1	ff 15 00 00 00
	00		 call	 DWORD PTR __imp_?Left@?$CStringT@DV?$StrTraitMFC_DLL@DV?$ChTraitsCRT@D@ATL@@@@@ATL@@QBE?AV12@H@Z

; 366  : 		}

  000a7	eb 4f		 jmp	 SHORT $LN71@GetIndexFr
$LN6@GetIndexFr:
; File C:\Program Files (x86)\Microsoft Visual Studio\2019\Community\VC\Tools\MSVC\14.29.30133\atlmfc\include\cstringt.h

; 2486 : 		return(str1.Compare(psz2) == 0);

  000a9	68 00 00 00 00	 push	 OFFSET ??_C@_06EBMMBHJD@YYYYMM@
  000ae	8d 4d ec	 lea	 ecx, DWORD PTR _s$8[ebp]
  000b1	ff 15 00 00 00
	00		 call	 DWORD PTR __imp_?Compare@?$CStringT@DV?$StrTraitMFC_DLL@DV?$ChTraitsCRT@D@ATL@@@@@ATL@@QBEHPBD@Z
  000b7	85 c0		 test	 eax, eax
; File D:\git\src\IBK\IBK_DRFN\ProjSrc\SrcChartEx\ChartAddIn\ChartPeriodSummaryAddIn\ChartDragCandleAnalAddInImp.cpp

; 367  : 		else if(s == "YYYYMM")

  000b9	75 11		 jne	 SHORT $LN8@GetIndexFr

; 368  : 		{
; 369  : 			lx = atol(strTime.Left(6));

  000bb	6a 06		 push	 6
  000bd	8d 45 e4	 lea	 eax, DWORD PTR $T6[ebp]
  000c0	50		 push	 eax
  000c1	8d 4d 08	 lea	 ecx, DWORD PTR _strTime$[ebp]
  000c4	ff 15 00 00 00
	00		 call	 DWORD PTR __imp_?Left@?$CStringT@DV?$StrTraitMFC_DLL@DV?$ChTraitsCRT@D@ATL@@@@@ATL@@QBE?AV12@H@Z

; 370  : 		}

  000ca	eb 2c		 jmp	 SHORT $LN71@GetIndexFr
$LN8@GetIndexFr:
; File C:\Program Files (x86)\Microsoft Visual Studio\2019\Community\VC\Tools\MSVC\14.29.30133\atlmfc\include\cstringt.h

; 2486 : 		return(str1.Compare(psz2) == 0);

  000cc	68 00 00 00 00	 push	 OFFSET ??_C@_08KLIIINKM@MMDDHHMM@
  000d1	8d 4d ec	 lea	 ecx, DWORD PTR _s$8[ebp]
  000d4	ff 15 00 00 00
	00		 call	 DWORD PTR __imp_?Compare@?$CStringT@DV?$StrTraitMFC_DLL@DV?$ChTraitsCRT@D@ATL@@@@@ATL@@QBEHPBD@Z
  000da	85 c0		 test	 eax, eax
; File D:\git\src\IBK\IBK_DRFN\ProjSrc\SrcChartEx\ChartAddIn\ChartPeriodSummaryAddIn\ChartDragCandleAnalAddInImp.cpp

; 371  : 		else if(s == "MMDDHHMM")

  000dc	75 31		 jne	 SHORT $LN11@GetIndexFr
; File C:\Program Files (x86)\Microsoft Visual Studio\2019\Community\VC\Tools\MSVC\14.29.30133\atlmfc\include\atlsimpstr.h

; 519  : 		return( GetData()->nDataLength );

  000de	8b 45 08	 mov	 eax, DWORD PTR _strTime$[ebp]
; File D:\git\src\IBK\IBK_DRFN\ProjSrc\SrcChartEx\ChartAddIn\ChartPeriodSummaryAddIn\ChartDragCandleAnalAddInImp.cpp

; 373  : 			if(strTime.GetLength()>=12)

  000e1	83 78 f4 0c	 cmp	 DWORD PTR [eax-12], 12	; 0000000cH
  000e5	7c 28		 jl	 SHORT $LN11@GetIndexFr

; 374  : 				lx = atol(strTime.Mid(4,8));

  000e7	6a 08		 push	 8
  000e9	6a 04		 push	 4
  000eb	8d 45 e4	 lea	 eax, DWORD PTR $T5[ebp]
  000ee	50		 push	 eax
  000ef	8d 4d 08	 lea	 ecx, DWORD PTR _strTime$[ebp]
  000f2	ff 15 00 00 00
	00		 call	 DWORD PTR __imp_?Mid@?$CStringT@DV?$StrTraitMFC_DLL@DV?$ChTraitsCRT@D@ATL@@@@@ATL@@QBE?AV12@HH@Z
$LN71@GetIndexFr:

; 375  : 		}
; 376  : 		double dTime;
; 377  : 		for(int i=0; i <= nEndIndex ;i++)

  000f8	ff 30		 push	 DWORD PTR [eax]
  000fa	ff 15 00 00 00
	00		 call	 DWORD PTR __imp__atol
  00100	83 c4 04	 add	 esp, 4
  00103	89 45 e8	 mov	 DWORD PTR _lx$1$[ebp], eax
  00106	8d 4d e4	 lea	 ecx, DWORD PTR $T5[ebp]
  00109	ff 15 00 00 00
	00		 call	 DWORD PTR __imp_??1?$CStringT@DV?$StrTraitMFC_DLL@DV?$ChTraitsCRT@D@ATL@@@@@ATL@@QAE@XZ
$LN11@GetIndexFr:
  0010f	33 db		 xor	 ebx, ebx
$LL4@GetIndexFr:
  00111	3b 5d 10	 cmp	 ebx, DWORD PTR _nEndIndex$[ebp]
  00114	0f 8f cc 00 00
	00		 jg	 $LN3@GetIndexFr

; 378  : 		{
; 379  : 			if( !pIPacket->GetData( i, dTime)) throw this;

  0011a	8b 07		 mov	 eax, DWORD PTR [edi]
  0011c	8d 4d d0	 lea	 ecx, DWORD PTR _dTime$3[ebp]
  0011f	51		 push	 ecx
  00120	53		 push	 ebx
  00121	8b cf		 mov	 ecx, edi
  00123	ff 50 40	 call	 DWORD PTR [eax+64]
  00126	85 c0		 test	 eax, eax
  00128	0f 84 ea 00 00
	00		 je	 $LN74@GetIndexFr
; File C:\Program Files (x86)\Microsoft Visual Studio\2019\Community\VC\Tools\MSVC\14.29.30133\atlmfc\include\cstringt.h

; 2486 : 		return(str1.Compare(psz2) == 0);

  0012e	68 00 00 00 00	 push	 OFFSET ??_C@_06EBMMBHJD@YYYYMM@
  00133	8d 4d ec	 lea	 ecx, DWORD PTR _s$8[ebp]
  00136	ff 15 00 00 00
	00		 call	 DWORD PTR __imp_?Compare@?$CStringT@DV?$StrTraitMFC_DLL@DV?$ChTraitsCRT@D@ATL@@@@@ATL@@QBEHPBD@Z
; File D:\git\src\IBK\IBK_DRFN\ProjSrc\SrcChartEx\ChartAddIn\ChartPeriodSummaryAddIn\ChartDragCandleAnalAddInImp.cpp

; 380  : 			if(s == "YYYYMM" && dTime >= 1000000)

  0013c	f2 0f 10 45 d0	 movsd	 xmm0, QWORD PTR _dTime$3[ebp]
; File C:\Program Files (x86)\Microsoft Visual Studio\2019\Community\VC\Tools\MSVC\14.29.30133\atlmfc\include\cstringt.h

; 2486 : 		return(str1.Compare(psz2) == 0);

  00141	85 c0		 test	 eax, eax
; File D:\git\src\IBK\IBK_DRFN\ProjSrc\SrcChartEx\ChartAddIn\ChartPeriodSummaryAddIn\ChartDragCandleAnalAddInImp.cpp

; 380  : 			if(s == "YYYYMM" && dTime >= 1000000)

  00143	75 17		 jne	 SHORT $LN13@GetIndexFr
  00145	66 0f 2f 05 00
	00 00 00	 comisd	 xmm0, QWORD PTR __real@412e848000000000
  0014d	72 0d		 jb	 SHORT $LN13@GetIndexFr

; 381  : 			{
; 382  : 				dTime = dTime/100;

  0014f	f2 0f 5e 05 00
	00 00 00	 divsd	 xmm0, QWORD PTR __real@4059000000000000
  00157	f2 0f 11 45 d0	 movsd	 QWORD PTR _dTime$3[ebp], xmm0
$LN13@GetIndexFr:

; 383  : 			}
; 384  : 			if(lx == ( long)dTime)	// ...

  0015c	f2 0f 2c c0	 cvttsd2si eax, xmm0
  00160	39 45 e8	 cmp	 DWORD PTR _lx$1$[ebp], eax
  00163	75 3c		 jne	 SHORT $LN14@GetIndexFr

; 385  : 			{
; 386  : 				pIPacket->Release();

  00165	8b 07		 mov	 eax, DWORD PTR [edi]
  00167	57		 push	 edi
  00168	ff 50 08	 call	 DWORD PTR [eax+8]

; 387  : 				return (i);

  0016b	8d 4d ec	 lea	 ecx, DWORD PTR _s$8[ebp]
  0016e	ff 15 00 00 00
	00		 call	 DWORD PTR __imp_??1?$CStringT@DV?$StrTraitMFC_DLL@DV?$ChTraitsCRT@D@ATL@@@@@ATL@@QAE@XZ
; File D:\git\src\IBK\IBK_DRFN\ProjSrc\SrcChartEx\ChartAddIn\ChartPeriodSummaryAddIn\Include_AddIn\I133691\_IString.h

; 44   : 	{

  00174	c6 45 fc 04	 mov	 BYTE PTR __$EHRec$[ebp+12], 4

; 45   : 		if( m_pIStrData)

  00178	85 f6		 test	 esi, esi
  0017a	74 06		 je	 SHORT $LN51@GetIndexFr

; 46   : 		{
; 47   : 			m_pIStrData->Release();

  0017c	8b 0e		 mov	 ecx, DWORD PTR [esi]
  0017e	56		 push	 esi
  0017f	ff 51 08	 call	 DWORD PTR [ecx+8]
$LN51@GetIndexFr:
; File D:\git\src\IBK\IBK_DRFN\ProjSrc\SrcChartEx\ChartAddIn\ChartPeriodSummaryAddIn\ChartDragCandleAnalAddInImp.cpp

; 387  : 				return (i);

  00182	8d 4d 08	 lea	 ecx, DWORD PTR _strTime$[ebp]
  00185	ff 15 00 00 00
	00		 call	 DWORD PTR __imp_??1?$CStringT@DV?$StrTraitMFC_DLL@DV?$ChTraitsCRT@D@ATL@@@@@ATL@@QAE@XZ
  0018b	8b c3		 mov	 eax, ebx

; 405  : }

  0018d	8b 4d f4	 mov	 ecx, DWORD PTR __$EHRec$[ebp+4]
  00190	64 89 0d 00 00
	00 00		 mov	 DWORD PTR fs:0, ecx
  00197	59		 pop	 ecx
  00198	5f		 pop	 edi
  00199	5e		 pop	 esi
  0019a	5b		 pop	 ebx
  0019b	8b e5		 mov	 esp, ebp
  0019d	5d		 pop	 ebp
  0019e	c2 0c 00	 ret	 12			; 0000000cH
$LN14@GetIndexFr:

; 388  : 			}
; 389  : 			else if(lx < ( long)dTime)

  001a1	7d 3d		 jge	 SHORT $LN2@GetIndexFr

; 390  : 			{
; 391  : 				pIPacket->Release();

  001a3	8b 07		 mov	 eax, DWORD PTR [edi]
  001a5	57		 push	 edi
  001a6	ff 50 08	 call	 DWORD PTR [eax+8]

; 392  : 				return -1;

  001a9	8d 4d ec	 lea	 ecx, DWORD PTR _s$8[ebp]
  001ac	ff 15 00 00 00
	00		 call	 DWORD PTR __imp_??1?$CStringT@DV?$StrTraitMFC_DLL@DV?$ChTraitsCRT@D@ATL@@@@@ATL@@QAE@XZ
; File D:\git\src\IBK\IBK_DRFN\ProjSrc\SrcChartEx\ChartAddIn\ChartPeriodSummaryAddIn\Include_AddIn\I133691\_IString.h

; 44   : 	{

  001b2	c6 45 fc 05	 mov	 BYTE PTR __$EHRec$[ebp+12], 5

; 45   : 		if( m_pIStrData)

  001b6	85 f6		 test	 esi, esi
  001b8	74 06		 je	 SHORT $LN27@GetIndexFr

; 46   : 		{
; 47   : 			m_pIStrData->Release();

  001ba	8b 06		 mov	 eax, DWORD PTR [esi]
  001bc	56		 push	 esi
$LN72@GetIndexFr:
; File D:\git\src\IBK\IBK_DRFN\ProjSrc\SrcChartEx\ChartAddIn\ChartPeriodSummaryAddIn\ChartDragCandleAnalAddInImp.cpp

; 405  : }

  001bd	ff 50 08	 call	 DWORD PTR [eax+8]
$LN27@GetIndexFr:
  001c0	8d 4d 08	 lea	 ecx, DWORD PTR _strTime$[ebp]
  001c3	ff 15 00 00 00
	00		 call	 DWORD PTR __imp_??1?$CStringT@DV?$StrTraitMFC_DLL@DV?$ChTraitsCRT@D@ATL@@@@@ATL@@QAE@XZ
  001c9	83 c8 ff	 or	 eax, -1
  001cc	8b 4d f4	 mov	 ecx, DWORD PTR __$EHRec$[ebp+4]
  001cf	64 89 0d 00 00
	00 00		 mov	 DWORD PTR fs:0, ecx
  001d6	59		 pop	 ecx
  001d7	5f		 pop	 edi
  001d8	5e		 pop	 esi
  001d9	5b		 pop	 ebx
  001da	8b e5		 mov	 esp, ebp
  001dc	5d		 pop	 ebp
  001dd	c2 0c 00	 ret	 12			; 0000000cH
$LN2@GetIndexFr:

; 375  : 		}
; 376  : 		double dTime;
; 377  : 		for(int i=0; i <= nEndIndex ;i++)

  001e0	43		 inc	 ebx
  001e1	e9 2b ff ff ff	 jmp	 $LL4@GetIndexFr
$LN3@GetIndexFr:

; 393  : 			}
; 394  : 		}
; 395  : 		
; 396  : 	}

  001e6	8d 4d ec	 lea	 ecx, DWORD PTR _s$8[ebp]
  001e9	ff 15 00 00 00
	00		 call	 DWORD PTR __imp_??1?$CStringT@DV?$StrTraitMFC_DLL@DV?$ChTraitsCRT@D@ATL@@@@@ATL@@QAE@XZ
; File D:\git\src\IBK\IBK_DRFN\ProjSrc\SrcChartEx\ChartAddIn\ChartPeriodSummaryAddIn\Include_AddIn\I133691\_IString.h

; 44   : 	{

  001ef	c6 45 fc 06	 mov	 BYTE PTR __$EHRec$[ebp+12], 6

; 45   : 		if( m_pIStrData)

  001f3	85 f6		 test	 esi, esi
  001f5	74 06		 je	 SHORT $LN59@GetIndexFr

; 46   : 		{
; 47   : 			m_pIStrData->Release();

  001f7	8b 06		 mov	 eax, DWORD PTR [esi]
  001f9	56		 push	 esi
  001fa	ff 50 08	 call	 DWORD PTR [eax+8]
$LN59@GetIndexFr:
; File D:\git\src\IBK\IBK_DRFN\ProjSrc\SrcChartEx\ChartAddIn\ChartPeriodSummaryAddIn\ChartDragCandleAnalAddInImp.cpp

; 403  : 	pIPacket->Release();

  001fd	8b 07		 mov	 eax, DWORD PTR [edi]
  001ff	c7 45 fc 00 00
	00 00		 mov	 DWORD PTR __$EHRec$[ebp+12], 0
  00206	57		 push	 edi
  00207	eb b4		 jmp	 SHORT $LN72@GetIndexFr
__catch$?GetIndexFromValue@CChartDragCandleAnalAddInImp@@IAEHV?$CStringT@DV?$StrTraitMFC_DLL@DV?$ChTraitsCRT@D@ATL@@@@@ATL@@HH@Z$0:

; 397  : 	catch( CChartDragCandleAnalAddInImp *)
; 398  : 	{
; 399  : 		pIPacket->Release();

  00209	8b 45 d8	 mov	 eax, DWORD PTR _pIPacket$[ebp]
  0020c	50		 push	 eax
  0020d	8b 08		 mov	 ecx, DWORD PTR [eax]
  0020f	ff 51 08	 call	 DWORD PTR [ecx+8]

; 400  : 		return -1;

  00212	b8 00 00 00 00	 mov	 eax, $LN27@GetIndexFr
  00217	c3		 ret	 0
$LN74@GetIndexFr:

; 378  : 		{
; 379  : 			if( !pIPacket->GetData( i, dTime)) throw this;

  00218	8b 45 e0	 mov	 eax, DWORD PTR _this$1$[ebp]
  0021b	89 45 dc	 mov	 DWORD PTR $T4[ebp], eax
  0021e	8d 45 dc	 lea	 eax, DWORD PTR $T4[ebp]
  00221	68 00 00 00 00	 push	 OFFSET __TI7PAVCChartDragCandleAnalAddInImp@@
  00226	50		 push	 eax
  00227	e8 00 00 00 00	 call	 __CxxThrowException@8
$LN69@GetIndexFr:
  0022c	cc		 int	 3
_TEXT	ENDS
;	COMDAT text$x
text$x	SEGMENT
__unwindfunclet$?GetIndexFromValue@CChartDragCandleAnalAddInImp@@IAEHV?$CStringT@DV?$StrTraitMFC_DLL@DV?$ChTraitsCRT@D@ATL@@@@@ATL@@HH@Z$2:
  00000	8d 4d 08	 lea	 ecx, DWORD PTR _strTime$[ebp]
  00003	ff 25 00 00 00
	00		 jmp	 DWORD PTR __imp_??1?$CStringT@DV?$StrTraitMFC_DLL@DV?$ChTraitsCRT@D@ATL@@@@@ATL@@QAE@XZ
__unwindfunclet$?GetIndexFromValue@CChartDragCandleAnalAddInImp@@IAEHV?$CStringT@DV?$StrTraitMFC_DLL@DV?$ChTraitsCRT@D@ATL@@@@@ATL@@HH@Z$3:
  00009	8d 4d c8	 lea	 ecx, DWORD PTR _is$2[ebp]
  0000c	e9 00 00 00 00	 jmp	 ??1ILPCSTR133691@@QAE@XZ ; ILPCSTR133691::~ILPCSTR133691
__unwindfunclet$?GetIndexFromValue@CChartDragCandleAnalAddInImp@@IAEHV?$CStringT@DV?$StrTraitMFC_DLL@DV?$ChTraitsCRT@D@ATL@@@@@ATL@@HH@Z$4:
  00011	8d 4d ec	 lea	 ecx, DWORD PTR _s$8[ebp]
  00014	ff 25 00 00 00
	00		 jmp	 DWORD PTR __imp_??1?$CStringT@DV?$StrTraitMFC_DLL@DV?$ChTraitsCRT@D@ATL@@@@@ATL@@QAE@XZ
  0001a	cc		 int	 3
  0001b	cc		 int	 3
  0001c	cc		 int	 3
  0001d	cc		 int	 3
  0001e	cc		 int	 3
__ehhandler$?GetIndexFromValue@CChartDragCandleAnalAddInImp@@IAEHV?$CStringT@DV?$StrTraitMFC_DLL@DV?$ChTraitsCRT@D@ATL@@@@@ATL@@HH@Z:
  0001f	90		 npad	 1
  00020	90		 npad	 1
  00021	8b 54 24 08	 mov	 edx, DWORD PTR [esp+8]
  00025	8d 42 0c	 lea	 eax, DWORD PTR [edx+12]
  00028	8b 4a c4	 mov	 ecx, DWORD PTR [edx-60]
  0002b	33 c8		 xor	 ecx, eax
  0002d	e8 00 00 00 00	 call	 @__security_check_cookie@4
  00032	b8 00 00 00 00	 mov	 eax, OFFSET __ehfuncinfo$?GetIndexFromValue@CChartDragCandleAnalAddInImp@@IAEHV?$CStringT@DV?$StrTraitMFC_DLL@DV?$ChTraitsCRT@D@ATL@@@@@ATL@@HH@Z
  00037	e9 00 00 00 00	 jmp	 ___CxxFrameHandler3
text$x	ENDS
?GetIndexFromValue@CChartDragCandleAnalAddInImp@@IAEHV?$CStringT@DV?$StrTraitMFC_DLL@DV?$ChTraitsCRT@D@ATL@@@@@ATL@@HH@Z ENDP ; CChartDragCandleAnalAddInImp::GetIndexFromValue
; Function compile flags: /Ogtp
; File D:\git\src\IBK\IBK_DRFN\ProjSrc\SrcChartEx\ChartAddIn\ChartPeriodSummaryAddIn\ChartDragCandleAnalAddInImp.cpp
; File C:\Program Files (x86)\Microsoft Visual Studio\2019\Community\VC\Tools\MSVC\14.29.30133\atlmfc\include\atltypes.h
; File D:\git\src\IBK\IBK_DRFN\ProjSrc\SrcChartEx\ChartAddIn\ChartPeriodSummaryAddIn\ChartDragCandleAnalAddInImp.cpp
;	COMDAT ?GetIndexFromPoint@CChartDragCandleAnalAddInImp@@IAEHHHHVCRect@@@Z
_TEXT	SEGMENT
_x$ = 8							; size = 4
_nStartIndex$ = 12					; size = 4
_nEndIndex$ = 16					; size = 4
_rctBlockRegion$ = 20					; size = 16
?GetIndexFromPoint@CChartDragCandleAnalAddInImp@@IAEHHHHVCRect@@@Z PROC ; CChartDragCandleAnalAddInImp::GetIndexFromPoint, COMDAT
; _this$ = ecx

; 342  : {

  00000	55		 push	 ebp
  00001	8b ec		 mov	 ebp, esp

; 344  : 	int nRet = nStartIndex + ( ( x - rctBlockRegion.left) * ( nEndIndex - nStartIndex + 1)) / nBlockWidth;

  00003	8b 4d 08	 mov	 ecx, DWORD PTR _x$[ebp]
  00006	2b 4d 14	 sub	 ecx, DWORD PTR _rctBlockRegion$[ebp]
  00009	56		 push	 esi
  0000a	8b 75 10	 mov	 esi, DWORD PTR _nEndIndex$[ebp]
  0000d	8b c6		 mov	 eax, esi
  0000f	57		 push	 edi
  00010	8b 7d 0c	 mov	 edi, DWORD PTR _nStartIndex$[ebp]
  00013	2b c7		 sub	 eax, edi
  00015	40		 inc	 eax
  00016	0f af c1	 imul	 eax, ecx
; File C:\Program Files (x86)\Microsoft Visual Studio\2019\Community\VC\Tools\MSVC\14.29.30133\atlmfc\include\atltypes.h

; 576  : 	return right - left;

  00019	8b 4d 1c	 mov	 ecx, DWORD PTR _rctBlockRegion$[ebp+8]
  0001c	2b 4d 14	 sub	 ecx, DWORD PTR _rctBlockRegion$[ebp]
; File D:\git\src\IBK\IBK_DRFN\ProjSrc\SrcChartEx\ChartAddIn\ChartPeriodSummaryAddIn\ChartDragCandleAnalAddInImp.cpp

; 344  : 	int nRet = nStartIndex + ( ( x - rctBlockRegion.left) * ( nEndIndex - nStartIndex + 1)) / nBlockWidth;

  0001f	99		 cdq
  00020	f7 f9		 idiv	 ecx
  00022	03 c7		 add	 eax, edi

; 345  : 	if(nRet > nEndIndex)

  00024	3b c6		 cmp	 eax, esi
  00026	0f 4f c6	 cmovg	 eax, esi

; 346  : 		nRet = nEndIndex;
; 347  : 	if(nRet < nStartIndex)

  00029	3b c7		 cmp	 eax, edi
  0002b	0f 4c c7	 cmovl	 eax, edi

; 348  : 		nRet = nStartIndex;
; 349  : 	return nRet;

  0002e	5f		 pop	 edi
  0002f	5e		 pop	 esi

; 350  : }

  00030	5d		 pop	 ebp
  00031	c2 1c 00	 ret	 28			; 0000001cH
?GetIndexFromPoint@CChartDragCandleAnalAddInImp@@IAEHHHHVCRect@@@Z ENDP ; CChartDragCandleAnalAddInImp::GetIndexFromPoint
_TEXT	ENDS
; Function compile flags: /Ogtp
; File D:\git\src\IBK\IBK_DRFN\ProjSrc\SrcChartEx\ChartAddIn\ChartPeriodSummaryAddIn\ChartDragCandleAnalAddInImp.cpp
; File C:\Program Files (x86)\Microsoft Visual Studio\2019\Community\VC\Tools\MSVC\14.29.30133\atlmfc\include\atltypes.h
; File D:\git\src\IBK\IBK_DRFN\ProjSrc\SrcChartEx\ChartAddIn\ChartPeriodSummaryAddIn\ChartDragCandleAnalAddInImp.cpp
;	COMDAT ?GetChartBasicData@CChartDragCandleAnalAddInImp@@IAEHAAH000AAVCRect@@1@Z
_TEXT	SEGMENT
_nG$ = -40						; size = 4
_p_rctGraphRegion$GSCopy$1$ = -36			; size = 4
_p_rctBlockRegion$GSCopy$1$ = -32			; size = 4
_p_nC$GSCopy$1$ = -28					; size = 4
_nV$ = -24						; size = 4
$T1 = -20						; size = 16
__$ArrayPad$ = -4					; size = 4
_p_nStartIndex$ = 8					; size = 4
_p_nEndIndex$ = 12					; size = 4
_p_nR$ = 16						; size = 4
_p_nC$ = 20						; size = 4
_p_rctBlockRegion$ = 24					; size = 4
_p_rctGraphRegion$ = 28					; size = 4
?GetChartBasicData@CChartDragCandleAnalAddInImp@@IAEHAAH000AAVCRect@@1@Z PROC ; CChartDragCandleAnalAddInImp::GetChartBasicData, COMDAT
; _this$ = ecx

; 309  : {

  00000	55		 push	 ebp
  00001	8b ec		 mov	 ebp, esp
  00003	83 ec 28	 sub	 esp, 40			; 00000028H
  00006	a1 00 00 00 00	 mov	 eax, DWORD PTR ___security_cookie
  0000b	33 c5		 xor	 eax, ebp
  0000d	89 45 fc	 mov	 DWORD PTR __$ArrayPad$[ebp], eax
  00010	8b 45 14	 mov	 eax, DWORD PTR _p_nC$[ebp]
  00013	8b 55 0c	 mov	 edx, DWORD PTR _p_nEndIndex$[ebp]
  00016	53		 push	 ebx
  00017	8b 5d 10	 mov	 ebx, DWORD PTR _p_nR$[ebp]
  0001a	56		 push	 esi
  0001b	8b 75 08	 mov	 esi, DWORD PTR _p_nStartIndex$[ebp]
  0001e	57		 push	 edi
  0001f	8b f9		 mov	 edi, ecx
  00021	89 45 e4	 mov	 DWORD PTR _p_nC$GSCopy$1$[ebp], eax
  00024	8b 45 18	 mov	 eax, DWORD PTR _p_rctBlockRegion$[ebp]
  00027	89 45 e0	 mov	 DWORD PTR _p_rctBlockRegion$GSCopy$1$[ebp], eax
  0002a	8b 45 1c	 mov	 eax, DWORD PTR _p_rctGraphRegion$[ebp]

; 310  : 	//  Data View Start/End Index .
; 311  : 	if( !m_pIChartOCX->GetViewStartEndIndex( p_nStartIndex, p_nEndIndex)) return FALSE;

  0002d	8b 4f 0c	 mov	 ecx, DWORD PTR [edi+12]
  00030	89 45 dc	 mov	 DWORD PTR _p_rctGraphRegion$GSCopy$1$[ebp], eax
  00033	52		 push	 edx
  00034	56		 push	 esi
  00035	8b 01		 mov	 eax, DWORD PTR [ecx]
  00037	ff 90 20 01 00
	00		 call	 DWORD PTR [eax+288]
  0003d	85 c0		 test	 eax, eax
  0003f	0f 84 aa 00 00
	00		 je	 $LN8@GetChartBa

; 312  : 	int nV, nG;
; 313  : 	
; 314  : 
; 315  : 	//   Block Index .
; 316  : 	if( !m_pIChartManager->GetIndexOfGraph(  _MTEXT(C2_PRICE_CHART), p_nR, p_nC, nV, nG)) return FALSE;

  00045	8b 4f 28	 mov	 ecx, DWORD PTR [edi+40]
  00048	8d 45 d8	 lea	 eax, DWORD PTR _nG$[ebp]
  0004b	8b 75 e4	 mov	 esi, DWORD PTR _p_nC$GSCopy$1$[ebp]
  0004e	50		 push	 eax
  0004f	8d 45 e8	 lea	 eax, DWORD PTR _nV$[ebp]
  00052	8b 11		 mov	 edx, DWORD PTR [ecx]
  00054	50		 push	 eax
  00055	a1 54 00 00 00	 mov	 eax, DWORD PTR ?g_iMetaTable@@3VIMetaTable@@A+84
  0005a	56		 push	 esi
  0005b	53		 push	 ebx
  0005c	ff b0 28 03 00
	00		 push	 DWORD PTR [eax+808]
  00062	ff 52 60	 call	 DWORD PTR [edx+96]
  00065	85 c0		 test	 eax, eax
  00067	0f 84 82 00 00
	00		 je	 $LN8@GetChartBa

; 317  : 	
; 318  : 	// Block Log/    Data . (<->Y Pos)
; 319  : 	IBlock *pIBlock = m_pIChartManager->GetBlock(p_nR, p_nC);

  0006d	8b 4f 28	 mov	 ecx, DWORD PTR [edi+40]
  00070	ff 36		 push	 DWORD PTR [esi]
  00072	ff 33		 push	 DWORD PTR [ebx]
  00074	8b 01		 mov	 eax, DWORD PTR [ecx]
  00076	ff 50 38	 call	 DWORD PTR [eax+56]
  00079	8b f0		 mov	 esi, eax

; 320  : 	if( pIBlock)

  0007b	85 f6		 test	 esi, esi
  0007d	74 58		 je	 SHORT $LN4@GetChartBa

; 321  : 		{
; 322  : 			//20100407 SJ_KIM  !!Start!!
; 323  : 			//pIBlock->GetLogAndReverseScaleFlag( m_bLog, m_bReverse);
; 324  : 			m_bLog     = pIBlock->IsLogScale();

  0007f	8b 16		 mov	 edx, DWORD PTR [esi]
  00081	8b ce		 mov	 ecx, esi
  00083	ff 52 24	 call	 DWORD PTR [edx+36]

; 325  : 			m_bReverse = pIBlock->IsVScaleInvert(nV);

  00086	ff 75 e8	 push	 DWORD PTR _nV$[ebp]
  00089	89 47 78	 mov	 DWORD PTR [edi+120], eax
  0008c	8b ce		 mov	 ecx, esi
  0008e	8b 16		 mov	 edx, DWORD PTR [esi]
  00090	ff 52 58	 call	 DWORD PTR [edx+88]
  00093	89 47 7c	 mov	 DWORD PTR [edi+124], eax

; 326  : 			//20100407 SJ_KIM !!End!!	
; 327  : 			pIBlock->GetVScaleGroupMinMax(nV, m_dViewMin, m_dViewMax);

  00096	8b ce		 mov	 ecx, esi
  00098	8b 16		 mov	 edx, DWORD PTR [esi]
  0009a	8d 87 88 00 00
	00		 lea	 eax, DWORD PTR [edi+136]
  000a0	50		 push	 eax
  000a1	8d 87 80 00 00
	00		 lea	 eax, DWORD PTR [edi+128]
  000a7	50		 push	 eax
  000a8	ff 75 e8	 push	 DWORD PTR _nV$[ebp]
  000ab	ff 52 48	 call	 DWORD PTR [edx+72]

; 328  : 	   		pIBlock->GetGraphRegions(p_rctGraphRegion, p_rctBlockRegion );

  000ae	ff 75 e0	 push	 DWORD PTR _p_rctBlockRegion$GSCopy$1$[ebp]
  000b1	8b 06		 mov	 eax, DWORD PTR [esi]
  000b3	8b ce		 mov	 ecx, esi
  000b5	8b 7d dc	 mov	 edi, DWORD PTR _p_rctGraphRegion$GSCopy$1$[ebp]
  000b8	57		 push	 edi
  000b9	ff 50 10	 call	 DWORD PTR [eax+16]

; 329  : 
; 330  : 			// Scale  offset //////////////////////////////////
; 331  : 			p_rctGraphRegion = pIBlock->GetGraphDrwingRegion();

  000bc	8b 06		 mov	 eax, DWORD PTR [esi]
  000be	8d 4d ec	 lea	 ecx, DWORD PTR $T1[ebp]
  000c1	6a 00		 push	 0
  000c3	51		 push	 ecx
  000c4	8b ce		 mov	 ecx, esi
  000c6	ff 50 1c	 call	 DWORD PTR [eax+28]
; File C:\Program Files (x86)\Microsoft Visual Studio\2019\Community\VC\Tools\MSVC\14.29.30133\atlmfc\include\atltypes.h

; 765  : 	::CopyRect(this, &srcRect);

  000c9	50		 push	 eax
  000ca	57		 push	 edi
  000cb	ff 15 00 00 00
	00		 call	 DWORD PTR __imp__CopyRect@8
; File D:\git\src\IBK\IBK_DRFN\ProjSrc\SrcChartEx\ChartAddIn\ChartPeriodSummaryAddIn\ChartDragCandleAnalAddInImp.cpp

; 334  : 			pIBlock->Release();

  000d1	8b 06		 mov	 eax, DWORD PTR [esi]
  000d3	56		 push	 esi
  000d4	ff 50 08	 call	 DWORD PTR [eax+8]
$LN4@GetChartBa:

; 335  : 			pIBlock = NULL;
; 336  : 
; 337  : 		}
; 338  : 	return TRUE;
; 339  : }

  000d7	5f		 pop	 edi
  000d8	5e		 pop	 esi
  000d9	b8 01 00 00 00	 mov	 eax, 1
  000de	5b		 pop	 ebx
  000df	8b 4d fc	 mov	 ecx, DWORD PTR __$ArrayPad$[ebp]
  000e2	33 cd		 xor	 ecx, ebp
  000e4	e8 00 00 00 00	 call	 @__security_check_cookie@4
  000e9	8b e5		 mov	 esp, ebp
  000eb	5d		 pop	 ebp
  000ec	c2 18 00	 ret	 24			; 00000018H
$LN8@GetChartBa:
  000ef	8b 4d fc	 mov	 ecx, DWORD PTR __$ArrayPad$[ebp]
  000f2	33 c0		 xor	 eax, eax
  000f4	5f		 pop	 edi
  000f5	5e		 pop	 esi
  000f6	33 cd		 xor	 ecx, ebp
  000f8	5b		 pop	 ebx
  000f9	e8 00 00 00 00	 call	 @__security_check_cookie@4
  000fe	8b e5		 mov	 esp, ebp
  00100	5d		 pop	 ebp
  00101	c2 18 00	 ret	 24			; 00000018H
?GetChartBasicData@CChartDragCandleAnalAddInImp@@IAEHAAH000AAVCRect@@1@Z ENDP ; CChartDragCandleAnalAddInImp::GetChartBasicData
_TEXT	ENDS
; Function compile flags: /Ogtp
; File D:\git\src\IBK\IBK_DRFN\ProjSrc\SrcChartEx\ChartAddIn\ChartPeriodSummaryAddIn\ChartDragCandleAnalAddInImp.cpp
;	COMDAT ?SelectClipRegion@CChartDragCandleAnalAddInImp@@IAEXPAVCDC@@@Z
_TEXT	SEGMENT
_pDC$ = 8						; size = 4
?SelectClipRegion@CChartDragCandleAnalAddInImp@@IAEXPAVCDC@@@Z PROC ; CChartDragCandleAnalAddInImp::SelectClipRegion, COMDAT
; _this$ = ecx

; 304  : {

  00000	55		 push	 ebp
  00001	8b ec		 mov	 ebp, esp

; 305  : 	pDC->SelectClipRgn(NULL);

  00003	8b 4d 08	 mov	 ecx, DWORD PTR _pDC$[ebp]
  00006	6a 00		 push	 0
  00008	e8 00 00 00 00	 call	 ?SelectClipRgn@CDC@@QAEHPAVCRgn@@@Z ; CDC::SelectClipRgn

; 306  : }

  0000d	5d		 pop	 ebp
  0000e	c2 04 00	 ret	 4
?SelectClipRegion@CChartDragCandleAnalAddInImp@@IAEXPAVCDC@@@Z ENDP ; CChartDragCandleAnalAddInImp::SelectClipRegion
_TEXT	ENDS
; Function compile flags: /Ogtp
; File D:\git\src\IBK\IBK_DRFN\ProjSrc\SrcChartEx\ChartAddIn\ChartPeriodSummaryAddIn\ChartDragCandleAnalAddInImp.cpp
; File C:\Program Files (x86)\Microsoft Visual Studio\2019\Community\VC\Tools\MSVC\14.29.30133\atlmfc\include\afxwin1.inl
; File D:\git\src\IBK\IBK_DRFN\ProjSrc\SrcChartEx\ChartAddIn\ChartPeriodSummaryAddIn\ChartDragCandleAnalAddInImp.cpp
; File C:\Program Files (x86)\Microsoft Visual Studio\2019\Community\VC\Tools\MSVC\14.29.30133\atlmfc\include\afxwin1.inl
; File D:\git\src\IBK\IBK_DRFN\ProjSrc\SrcChartEx\ChartAddIn\ChartPeriodSummaryAddIn\ChartDragCandleAnalAddInImp.cpp
; File C:\Program Files (x86)\Microsoft Visual Studio\2019\Community\VC\Tools\MSVC\14.29.30133\atlmfc\include\afxwin1.inl
; File D:\git\src\IBK\IBK_DRFN\ProjSrc\SrcChartEx\ChartAddIn\ChartPeriodSummaryAddIn\ChartDragCandleAnalAddInImp.cpp
;	COMDAT ?SelectClipRegion@CChartDragCandleAnalAddInImp@@IAEXPAVCDC@@ABVCRect@@@Z
_TEXT	SEGMENT
_rgn$ = -20						; size = 8
__$EHRec$ = -12						; size = 12
_pDC$ = 8						; size = 4
_rect$ = 12						; size = 4
?SelectClipRegion@CChartDragCandleAnalAddInImp@@IAEXPAVCDC@@ABVCRect@@@Z PROC ; CChartDragCandleAnalAddInImp::SelectClipRegion, COMDAT
; _this$ = ecx

; 296  : {

  00000	55		 push	 ebp
  00001	8b ec		 mov	 ebp, esp
  00003	6a ff		 push	 -1
  00005	68 00 00 00 00	 push	 __ehhandler$?SelectClipRegion@CChartDragCandleAnalAddInImp@@IAEXPAVCDC@@ABVCRect@@@Z
  0000a	64 a1 00 00 00
	00		 mov	 eax, DWORD PTR fs:0
  00010	50		 push	 eax
  00011	83 ec 08	 sub	 esp, 8
  00014	a1 00 00 00 00	 mov	 eax, DWORD PTR ___security_cookie
  00019	33 c5		 xor	 eax, ebp
  0001b	50		 push	 eax
  0001c	8d 45 f4	 lea	 eax, DWORD PTR __$EHRec$[ebp]
  0001f	64 a3 00 00 00
	00		 mov	 DWORD PTR fs:0, eax
; File C:\Program Files (x86)\Microsoft Visual Studio\2019\Community\VC\Tools\MSVC\14.29.30133\atlmfc\include\afxwin1.inl

; 70   : 	{ m_hObject = NULL; }

  00025	c7 45 f0 00 00
	00 00		 mov	 DWORD PTR _rgn$[ebp+4], 0

; 264  : 	{ }

  0002c	c7 45 ec 00 00
	00 00		 mov	 DWORD PTR _rgn$[ebp], OFFSET ??_7CRgn@@6B@
; File D:\git\src\IBK\IBK_DRFN\ProjSrc\SrcChartEx\ChartAddIn\ChartPeriodSummaryAddIn\ChartDragCandleAnalAddInImp.cpp

; 298  : 	rgn.CreateRectRgn((int)rect.left, (int)rect.top, (int)rect.right, (int)rect.bottom);

  00033	8b 45 0c	 mov	 eax, DWORD PTR _rect$[ebp]
  00036	c7 45 fc 00 00
	00 00		 mov	 DWORD PTR __$EHRec$[ebp+8], 0
; File C:\Program Files (x86)\Microsoft Visual Studio\2019\Community\VC\Tools\MSVC\14.29.30133\atlmfc\include\afxwin1.inl

; 268  : 	{ return Attach(::CreateRectRgn(x1, y1, x2, y2)); }

  0003d	ff 70 0c	 push	 DWORD PTR [eax+12]
  00040	ff 70 08	 push	 DWORD PTR [eax+8]
  00043	ff 70 04	 push	 DWORD PTR [eax+4]
  00046	ff 30		 push	 DWORD PTR [eax]
  00048	ff 15 00 00 00
	00		 call	 DWORD PTR __imp__CreateRectRgn@16
  0004e	50		 push	 eax
  0004f	8d 4d ec	 lea	 ecx, DWORD PTR _rgn$[ebp]
  00052	e8 00 00 00 00	 call	 ?Attach@CGdiObject@@QAEHPAX@Z ; CGdiObject::Attach
; File D:\git\src\IBK\IBK_DRFN\ProjSrc\SrcChartEx\ChartAddIn\ChartPeriodSummaryAddIn\ChartDragCandleAnalAddInImp.cpp

; 299  : 	pDC->SelectClipRgn(&rgn);

  00057	8b 4d 08	 mov	 ecx, DWORD PTR _pDC$[ebp]
  0005a	8d 45 ec	 lea	 eax, DWORD PTR _rgn$[ebp]
  0005d	50		 push	 eax
  0005e	e8 00 00 00 00	 call	 ?SelectClipRgn@CDC@@QAEHPAVCRgn@@@Z ; CDC::SelectClipRgn
; File C:\Program Files (x86)\Microsoft Visual Studio\2019\Community\VC\Tools\MSVC\14.29.30133\atlmfc\include\afxwin1.inl

; 266  : 	{ }

  00063	8d 4d ec	 lea	 ecx, DWORD PTR _rgn$[ebp]
  00066	c7 45 ec 00 00
	00 00		 mov	 DWORD PTR _rgn$[ebp], OFFSET ??_7CRgn@@6B@
  0006d	e8 00 00 00 00	 call	 ??1CGdiObject@@UAE@XZ	; CGdiObject::~CGdiObject
; File D:\git\src\IBK\IBK_DRFN\ProjSrc\SrcChartEx\ChartAddIn\ChartPeriodSummaryAddIn\ChartDragCandleAnalAddInImp.cpp

; 300  : }

  00072	8b 4d f4	 mov	 ecx, DWORD PTR __$EHRec$[ebp]
  00075	64 89 0d 00 00
	00 00		 mov	 DWORD PTR fs:0, ecx
  0007c	59		 pop	 ecx
  0007d	8b e5		 mov	 esp, ebp
  0007f	5d		 pop	 ebp
  00080	c2 08 00	 ret	 8
_TEXT	ENDS
;	COMDAT text$x
text$x	SEGMENT
__unwindfunclet$?SelectClipRegion@CChartDragCandleAnalAddInImp@@IAEXPAVCDC@@ABVCRect@@@Z$0:
  00000	8d 4d ec	 lea	 ecx, DWORD PTR _rgn$[ebp]
  00003	e9 00 00 00 00	 jmp	 ??1CRgn@@UAE@XZ		; CRgn::~CRgn
  00008	cc		 int	 3
  00009	cc		 int	 3
  0000a	cc		 int	 3
  0000b	cc		 int	 3
  0000c	cc		 int	 3
__ehhandler$?SelectClipRegion@CChartDragCandleAnalAddInImp@@IAEXPAVCDC@@ABVCRect@@@Z:
  0000d	90		 npad	 1
  0000e	90		 npad	 1
  0000f	8b 54 24 08	 mov	 edx, DWORD PTR [esp+8]
  00013	8d 42 0c	 lea	 eax, DWORD PTR [edx+12]
  00016	8b 4a f4	 mov	 ecx, DWORD PTR [edx-12]
  00019	33 c8		 xor	 ecx, eax
  0001b	e8 00 00 00 00	 call	 @__security_check_cookie@4
  00020	b8 00 00 00 00	 mov	 eax, OFFSET __ehfuncinfo$?SelectClipRegion@CChartDragCandleAnalAddInImp@@IAEXPAVCDC@@ABVCRect@@@Z
  00025	e9 00 00 00 00	 jmp	 ___CxxFrameHandler3
text$x	ENDS
?SelectClipRegion@CChartDragCandleAnalAddInImp@@IAEXPAVCDC@@ABVCRect@@@Z ENDP ; CChartDragCandleAnalAddInImp::SelectClipRegion
; Function compile flags: /Ogtp
; File D:\git\src\IBK\IBK_DRFN\ProjSrc\SrcChartEx\ChartAddIn\ChartPeriodSummaryAddIn\ChartDragCandleAnalAddInImp.cpp
; File C:\Program Files (x86)\Microsoft Visual Studio\2019\Community\VC\Tools\MSVC\14.29.30133\atlmfc\include\afxwin1.inl
; File D:\git\src\IBK\IBK_DRFN\ProjSrc\SrcChartEx\ChartAddIn\ChartPeriodSummaryAddIn\ChartDragCandleAnalAddInImp.cpp
; File C:\Program Files (x86)\Microsoft Visual Studio\2019\Community\VC\Tools\MSVC\14.29.30133\atlmfc\include\afxwin1.inl
; File D:\git\src\IBK\IBK_DRFN\ProjSrc\SrcChartEx\ChartAddIn\ChartPeriodSummaryAddIn\ChartDragCandleAnalAddInImp.cpp
; File C:\Program Files (x86)\Microsoft Visual Studio\2019\Community\VC\Tools\MSVC\14.29.30133\atlmfc\include\afxwin1.inl
; File D:\git\src\IBK\IBK_DRFN\ProjSrc\SrcChartEx\ChartAddIn\ChartPeriodSummaryAddIn\ChartDragCandleAnalAddInImp.cpp
; File C:\Program Files (x86)\Microsoft Visual Studio\2019\Community\VC\Tools\MSVC\14.29.30133\atlmfc\include\atltypes.h
; File D:\git\src\IBK\IBK_DRFN\ProjSrc\SrcChartEx\ChartAddIn\ChartPeriodSummaryAddIn\ChartDragCandleAnalAddInImp.cpp
; File C:\Program Files (x86)\Microsoft Visual Studio\2019\Community\VC\Tools\MSVC\14.29.30133\atlmfc\include\atltypes.h
; File D:\git\src\IBK\IBK_DRFN\ProjSrc\SrcChartEx\ChartAddIn\ChartPeriodSummaryAddIn\ChartDragCandleAnalAddInImp.cpp
; File C:\Program Files (x86)\Microsoft Visual Studio\2019\Community\VC\Tools\MSVC\14.29.30133\atlmfc\include\atltypes.h
; File D:\git\src\IBK\IBK_DRFN\ProjSrc\SrcChartEx\ChartAddIn\ChartPeriodSummaryAddIn\ChartDragCandleAnalAddInImp.cpp
; File C:\Program Files (x86)\Microsoft Visual Studio\2019\Community\VC\Tools\MSVC\14.29.30133\atlmfc\include\afxwin1.inl
; File D:\git\src\IBK\IBK_DRFN\ProjSrc\SrcChartEx\ChartAddIn\ChartPeriodSummaryAddIn\ChartDragCandleAnalAddInImp.cpp
; File C:\Program Files (x86)\Microsoft Visual Studio\2019\Community\VC\Tools\MSVC\14.29.30133\atlmfc\include\afxwin1.inl
; File D:\git\src\IBK\IBK_DRFN\ProjSrc\SrcChartEx\ChartAddIn\ChartPeriodSummaryAddIn\ChartDragCandleAnalAddInImp.cpp
; File C:\Program Files (x86)\Microsoft Visual Studio\2019\Community\VC\Tools\MSVC\14.29.30133\atlmfc\include\afxwin1.inl
; File D:\git\src\IBK\IBK_DRFN\ProjSrc\SrcChartEx\ChartAddIn\ChartPeriodSummaryAddIn\ChartDragCandleAnalAddInImp.cpp
; File C:\Program Files (x86)\Microsoft Visual Studio\2019\Community\VC\Tools\MSVC\14.29.30133\atlmfc\include\afxwin1.inl
; File D:\git\src\IBK\IBK_DRFN\ProjSrc\SrcChartEx\ChartAddIn\ChartPeriodSummaryAddIn\ChartDragCandleAnalAddInImp.cpp
; File C:\Program Files (x86)\Microsoft Visual Studio\2019\Community\VC\Tools\MSVC\14.29.30133\atlmfc\include\afxwin1.inl
; File D:\git\src\IBK\IBK_DRFN\ProjSrc\SrcChartEx\ChartAddIn\ChartPeriodSummaryAddIn\ChartDragCandleAnalAddInImp.cpp
; File C:\Program Files (x86)\Microsoft Visual Studio\2019\Community\VC\Tools\MSVC\14.29.30133\atlmfc\include\afxwin1.inl
; File D:\git\src\IBK\IBK_DRFN\ProjSrc\SrcChartEx\ChartAddIn\ChartPeriodSummaryAddIn\ChartDragCandleAnalAddInImp.cpp
; File C:\Program Files (x86)\Microsoft Visual Studio\2019\Community\VC\Tools\MSVC\14.29.30133\atlmfc\include\afxwin1.inl
; File D:\git\src\IBK\IBK_DRFN\ProjSrc\SrcChartEx\ChartAddIn\ChartPeriodSummaryAddIn\ChartDragCandleAnalAddInImp.cpp
; File C:\Program Files (x86)\Microsoft Visual Studio\2019\Community\VC\Tools\MSVC\14.29.30133\atlmfc\include\afxwin1.inl
; File D:\git\src\IBK\IBK_DRFN\ProjSrc\SrcChartEx\ChartAddIn\ChartPeriodSummaryAddIn\ChartDragCandleAnalAddInImp.cpp
; File C:\Program Files (x86)\Microsoft Visual Studio\2019\Community\VC\Tools\MSVC\14.29.30133\atlmfc\include\atltypes.h
; File D:\git\src\IBK\IBK_DRFN\ProjSrc\SrcChartEx\ChartAddIn\ChartPeriodSummaryAddIn\ChartDragCandleAnalAddInImp.cpp
; File C:\Program Files (x86)\Microsoft Visual Studio\2019\Community\VC\Tools\MSVC\14.29.30133\atlmfc\include\atltypes.h
; File C:\Program Files (x86)\Microsoft Visual Studio\2019\Community\VC\Tools\MSVC\14.29.30133\atlmfc\include\afxwin1.inl
; File C:\Program Files (x86)\Microsoft Visual Studio\2019\Community\VC\Tools\MSVC\14.29.30133\atlmfc\include\atltypes.h
; File C:\Program Files (x86)\Microsoft Visual Studio\2019\Community\VC\Tools\MSVC\14.29.30133\atlmfc\include\afxwin1.inl
; File D:\git\src\IBK\IBK_DRFN\ProjSrc\SrcChartEx\ChartAddIn\ChartPeriodSummaryAddIn\ChartDragCandleAnalAddInImp.cpp
;	COMDAT ?DrawFill@CChartDragCandleAnalAddInImp@@IAE?AVCRect@@PAVCDC@@ABVCPoint@@1ABV2@@Z
_TEXT	SEGMENT
_dcCompatible$ = -72					; size = 16
_pBitmapOld$1$ = -56					; size = 4
_drawingRegion$GSCopy$1$ = -52				; size = 4
_Startpt$GSCopy$1$ = -48				; size = 4
_bm$ = -44						; size = 8
_Endpt$GSCopy$1$ = -36					; size = 4
$T2 = -32						; size = 16
_rgn$3 = -24						; size = 8
__$ArrayPad$ = -16					; size = 4
__$EHRec$ = -12						; size = 12
___$ReturnUdt$ = 8					; size = 4
_pDC$ = 12						; size = 4
_Startpt$ = 16						; size = 4
_Endpt$ = 20						; size = 4
_drawingRegion$ = 24					; size = 4
?DrawFill@CChartDragCandleAnalAddInImp@@IAE?AVCRect@@PAVCDC@@ABVCPoint@@1ABV2@@Z PROC ; CChartDragCandleAnalAddInImp::DrawFill, COMDAT
; _this$ = ecx

; 272  : {

  00000	55		 push	 ebp
  00001	8b ec		 mov	 ebp, esp
  00003	6a ff		 push	 -1
  00005	68 00 00 00 00	 push	 __ehhandler$?DrawFill@CChartDragCandleAnalAddInImp@@IAE?AVCRect@@PAVCDC@@ABVCPoint@@1ABV2@@Z
  0000a	64 a1 00 00 00
	00		 mov	 eax, DWORD PTR fs:0
  00010	50		 push	 eax
  00011	83 ec 3c	 sub	 esp, 60			; 0000003cH
  00014	a1 00 00 00 00	 mov	 eax, DWORD PTR ___security_cookie
  00019	33 c5		 xor	 eax, ebp
  0001b	89 45 f0	 mov	 DWORD PTR __$ArrayPad$[ebp], eax
  0001e	53		 push	 ebx
  0001f	56		 push	 esi
  00020	57		 push	 edi
  00021	50		 push	 eax
  00022	8d 45 f4	 lea	 eax, DWORD PTR __$EHRec$[ebp]
  00025	64 a3 00 00 00
	00		 mov	 DWORD PTR fs:0, eax
  0002b	8b 45 14	 mov	 eax, DWORD PTR _Endpt$[ebp]

; 273  : 	CDC dcCompatible;

  0002e	8d 4d b8	 lea	 ecx, DWORD PTR _dcCompatible$[ebp]
  00031	8b 75 10	 mov	 esi, DWORD PTR _Startpt$[ebp]
  00034	8b 5d 08	 mov	 ebx, DWORD PTR ___$ReturnUdt$[ebp]
  00037	8b 7d 0c	 mov	 edi, DWORD PTR _pDC$[ebp]
  0003a	89 45 dc	 mov	 DWORD PTR _Endpt$GSCopy$1$[ebp], eax
  0003d	8b 45 18	 mov	 eax, DWORD PTR _drawingRegion$[ebp]
  00040	89 75 d0	 mov	 DWORD PTR _Startpt$GSCopy$1$[ebp], esi
  00043	89 45 cc	 mov	 DWORD PTR _drawingRegion$GSCopy$1$[ebp], eax
  00046	e8 00 00 00 00	 call	 ??0CDC@@QAE@XZ		; CDC::CDC
  0004b	c7 45 fc 00 00
	00 00		 mov	 DWORD PTR __$EHRec$[ebp+8], 0
; File C:\Program Files (x86)\Microsoft Visual Studio\2019\Community\VC\Tools\MSVC\14.29.30133\atlmfc\include\afxwin1.inl

; 70   : 	{ m_hObject = NULL; }

  00052	c7 45 d8 00 00
	00 00		 mov	 DWORD PTR _bm$[ebp+4], 0

; 177  : 	{ }

  00059	c7 45 d4 00 00
	00 00		 mov	 DWORD PTR _bm$[ebp], OFFSET ??_7CBitmap@@6B@
; File D:\git\src\IBK\IBK_DRFN\ProjSrc\SrcChartEx\ChartAddIn\ChartPeriodSummaryAddIn\ChartDragCandleAnalAddInImp.cpp

; 274  :     CBitmap bm;

  00060	c6 45 fc 01	 mov	 BYTE PTR __$EHRec$[ebp+8], 1
; File C:\Program Files (x86)\Microsoft Visual Studio\2019\Community\VC\Tools\MSVC\14.29.30133\atlmfc\include\afxwin1.inl

; 316  : 	{ return this == NULL ? NULL : m_hDC; }

  00064	85 ff		 test	 edi, edi
  00066	75 04		 jne	 SHORT $LN13@DrawFill
  00068	33 c0		 xor	 eax, eax
  0006a	eb 03		 jmp	 SHORT $LN14@DrawFill
$LN13@DrawFill:
  0006c	8b 47 04	 mov	 eax, DWORD PTR [edi+4]
$LN14@DrawFill:

; 330  : 	{ return Attach(::CreateCompatibleDC(pDC->GetSafeHdc())); }

  0006f	50		 push	 eax
  00070	ff 15 00 00 00
	00		 call	 DWORD PTR __imp__CreateCompatibleDC@4
  00076	50		 push	 eax
  00077	8d 4d b8	 lea	 ecx, DWORD PTR _dcCompatible$[ebp]
  0007a	e8 00 00 00 00	 call	 ?Attach@CDC@@QAEHPAUHDC__@@@Z ; CDC::Attach
; File D:\git\src\IBK\IBK_DRFN\ProjSrc\SrcChartEx\ChartAddIn\ChartPeriodSummaryAddIn\ChartDragCandleAnalAddInImp.cpp

; 277  :     bm.CreateCompatibleBitmap(pDC, Endpt.x - Startpt.x, Endpt.y - Startpt.y);

  0007f	8b 45 dc	 mov	 eax, DWORD PTR _Endpt$GSCopy$1$[ebp]
  00082	8b 48 04	 mov	 ecx, DWORD PTR [eax+4]
  00085	2b 4e 04	 sub	 ecx, DWORD PTR [esi+4]
  00088	8b 00		 mov	 eax, DWORD PTR [eax]
  0008a	2b 06		 sub	 eax, DWORD PTR [esi]
; File C:\Program Files (x86)\Microsoft Visual Studio\2019\Community\VC\Tools\MSVC\14.29.30133\atlmfc\include\afxwin1.inl

; 217  : 	{ return Attach(::CreateCompatibleBitmap(pDC->m_hDC, nWidth, nHeight)); }

  0008c	51		 push	 ecx
  0008d	50		 push	 eax
  0008e	ff 77 04	 push	 DWORD PTR [edi+4]
  00091	ff 15 00 00 00
	00		 call	 DWORD PTR __imp__CreateCompatibleBitmap@12
  00097	50		 push	 eax
  00098	8d 4d d4	 lea	 ecx, DWORD PTR _bm$[ebp]
  0009b	e8 00 00 00 00	 call	 ?Attach@CGdiObject@@QAEHPAX@Z ; CGdiObject::Attach

; 361  : 	{ ASSERT(m_hDC != NULL); return (CBitmap*) SelectGdiObject(m_hDC, pBitmap->GetSafeHandle()); }

  000a0	ff 75 d8	 push	 DWORD PTR _bm$[ebp+4]
  000a3	ff 75 bc	 push	 DWORD PTR _dcCompatible$[ebp+4]
  000a6	e8 00 00 00 00	 call	 ?SelectGdiObject@CDC@@KGPAVCGdiObject@@PAUHDC__@@PAX@Z ; CDC::SelectGdiObject
; File D:\git\src\IBK\IBK_DRFN\ProjSrc\SrcChartEx\ChartAddIn\ChartPeriodSummaryAddIn\ChartDragCandleAnalAddInImp.cpp

; 278  :     CBitmap *pBitmapOld = dcCompatible.SelectObject(&bm);

  000ab	89 45 c8	 mov	 DWORD PTR _pBitmapOld$1$[ebp], eax

; 281  : 	dcCompatible.FillSolidRect(CRect(0, 0, Endpt.x - Startpt.x, Endpt.y - Startpt.y), RGB(188,218,244)); //RGB(0,200,255));//RGB(0x7F, 0x7F, 0x7F)

  000ae	8b 45 dc	 mov	 eax, DWORD PTR _Endpt$GSCopy$1$[ebp]
  000b1	68 bc da f4 00	 push	 16046780		; 00f4dabcH
; File C:\Program Files (x86)\Microsoft Visual Studio\2019\Community\VC\Tools\MSVC\14.29.30133\atlmfc\include\atltypes.h

; 540  : 	left = l;

  000b6	c7 45 e0 00 00
	00 00		 mov	 DWORD PTR $T2[ebp], 0

; 541  : 	top = t;

  000bd	c7 45 e4 00 00
	00 00		 mov	 DWORD PTR $T2[ebp+4], 0
; File D:\git\src\IBK\IBK_DRFN\ProjSrc\SrcChartEx\ChartAddIn\ChartPeriodSummaryAddIn\ChartDragCandleAnalAddInImp.cpp

; 281  : 	dcCompatible.FillSolidRect(CRect(0, 0, Endpt.x - Startpt.x, Endpt.y - Startpt.y), RGB(188,218,244)); //RGB(0,200,255));//RGB(0x7F, 0x7F, 0x7F)

  000c4	8b 48 04	 mov	 ecx, DWORD PTR [eax+4]
  000c7	8b 00		 mov	 eax, DWORD PTR [eax]
  000c9	2b 06		 sub	 eax, DWORD PTR [esi]
  000cb	2b 4e 04	 sub	 ecx, DWORD PTR [esi+4]
; File C:\Program Files (x86)\Microsoft Visual Studio\2019\Community\VC\Tools\MSVC\14.29.30133\atlmfc\include\atltypes.h

; 542  : 	right = r;

  000ce	89 45 e8	 mov	 DWORD PTR $T2[ebp+8], eax
; File D:\git\src\IBK\IBK_DRFN\ProjSrc\SrcChartEx\ChartAddIn\ChartPeriodSummaryAddIn\ChartDragCandleAnalAddInImp.cpp

; 281  : 	dcCompatible.FillSolidRect(CRect(0, 0, Endpt.x - Startpt.x, Endpt.y - Startpt.y), RGB(188,218,244)); //RGB(0,200,255));//RGB(0x7F, 0x7F, 0x7F)

  000d1	8d 45 e0	 lea	 eax, DWORD PTR $T2[ebp]
; File C:\Program Files (x86)\Microsoft Visual Studio\2019\Community\VC\Tools\MSVC\14.29.30133\atlmfc\include\atltypes.h

; 543  : 	bottom = b;

  000d4	89 4d ec	 mov	 DWORD PTR $T2[ebp+12], ecx
; File D:\git\src\IBK\IBK_DRFN\ProjSrc\SrcChartEx\ChartAddIn\ChartPeriodSummaryAddIn\ChartDragCandleAnalAddInImp.cpp

; 281  : 	dcCompatible.FillSolidRect(CRect(0, 0, Endpt.x - Startpt.x, Endpt.y - Startpt.y), RGB(188,218,244)); //RGB(0,200,255));//RGB(0x7F, 0x7F, 0x7F)

  000d7	8d 4d b8	 lea	 ecx, DWORD PTR _dcCompatible$[ebp]
  000da	50		 push	 eax
  000db	e8 00 00 00 00	 call	 ?FillSolidRect@CDC@@QAEXPBUtagRECT@@K@Z ; CDC::FillSolidRect
; File C:\Program Files (x86)\Microsoft Visual Studio\2019\Community\VC\Tools\MSVC\14.29.30133\atlmfc\include\afxwin1.inl

; 70   : 	{ m_hObject = NULL; }

  000e0	c7 45 ec 00 00
	00 00		 mov	 DWORD PTR _rgn$3[ebp+4], 0

; 264  : 	{ }

  000e7	c7 45 e8 00 00
	00 00		 mov	 DWORD PTR _rgn$3[ebp], OFFSET ??_7CRgn@@6B@

; 268  : 	{ return Attach(::CreateRectRgn(x1, y1, x2, y2)); }

  000ee	8b 45 cc	 mov	 eax, DWORD PTR _drawingRegion$GSCopy$1$[ebp]
; File D:\git\src\IBK\IBK_DRFN\ProjSrc\SrcChartEx\ChartAddIn\ChartPeriodSummaryAddIn\ChartDragCandleAnalAddInImp.cpp

; 297  : 	CRgn rgn;

  000f1	c6 45 fc 02	 mov	 BYTE PTR __$EHRec$[ebp+8], 2
; File C:\Program Files (x86)\Microsoft Visual Studio\2019\Community\VC\Tools\MSVC\14.29.30133\atlmfc\include\afxwin1.inl

; 268  : 	{ return Attach(::CreateRectRgn(x1, y1, x2, y2)); }

  000f5	ff 70 0c	 push	 DWORD PTR [eax+12]
  000f8	ff 70 08	 push	 DWORD PTR [eax+8]
  000fb	ff 70 04	 push	 DWORD PTR [eax+4]
  000fe	ff 30		 push	 DWORD PTR [eax]
  00100	ff 15 00 00 00
	00		 call	 DWORD PTR __imp__CreateRectRgn@16
  00106	50		 push	 eax
  00107	8d 4d e8	 lea	 ecx, DWORD PTR _rgn$3[ebp]
  0010a	e8 00 00 00 00	 call	 ?Attach@CGdiObject@@QAEHPAX@Z ; CGdiObject::Attach
; File D:\git\src\IBK\IBK_DRFN\ProjSrc\SrcChartEx\ChartAddIn\ChartPeriodSummaryAddIn\ChartDragCandleAnalAddInImp.cpp

; 299  : 	pDC->SelectClipRgn(&rgn);

  0010f	8d 45 e8	 lea	 eax, DWORD PTR _rgn$3[ebp]
  00112	8b cf		 mov	 ecx, edi
  00114	50		 push	 eax
  00115	e8 00 00 00 00	 call	 ?SelectClipRgn@CDC@@QAEHPAVCRgn@@@Z ; CDC::SelectClipRgn
; File C:\Program Files (x86)\Microsoft Visual Studio\2019\Community\VC\Tools\MSVC\14.29.30133\atlmfc\include\afxwin1.inl

; 266  : 	{ }

  0011a	8d 4d e8	 lea	 ecx, DWORD PTR _rgn$3[ebp]
; File D:\git\src\IBK\IBK_DRFN\ProjSrc\SrcChartEx\ChartAddIn\ChartPeriodSummaryAddIn\ChartDragCandleAnalAddInImp.cpp

; 300  : }

  0011d	c6 45 fc 01	 mov	 BYTE PTR __$EHRec$[ebp+8], 1
; File C:\Program Files (x86)\Microsoft Visual Studio\2019\Community\VC\Tools\MSVC\14.29.30133\atlmfc\include\afxwin1.inl

; 266  : 	{ }

  00121	c7 45 e8 00 00
	00 00		 mov	 DWORD PTR _rgn$3[ebp], OFFSET ??_7CRgn@@6B@
  00128	e8 00 00 00 00	 call	 ??1CGdiObject@@UAE@XZ	; CGdiObject::~CGdiObject
; File D:\git\src\IBK\IBK_DRFN\ProjSrc\SrcChartEx\ChartAddIn\ChartPeriodSummaryAddIn\ChartDragCandleAnalAddInImp.cpp

; 286  :     pDC->BitBlt(Startpt.x, Startpt.y, Endpt.x - Startpt.x, Endpt.y - Startpt.y, &dcCompatible, 0, 0, SRCAND);

  0012d	8b 45 dc	 mov	 eax, DWORD PTR _Endpt$GSCopy$1$[ebp]
  00130	8b 55 d0	 mov	 edx, DWORD PTR _Startpt$GSCopy$1$[ebp]
  00133	8b 76 04	 mov	 esi, DWORD PTR [esi+4]
; File C:\Program Files (x86)\Microsoft Visual Studio\2019\Community\VC\Tools\MSVC\14.29.30133\atlmfc\include\afxwin1.inl

; 552  : 	{ ASSERT(m_hDC != NULL); return ::BitBlt(m_hDC, x, y, nWidth, nHeight,

  00136	68 c6 00 88 00	 push	 8913094			; 008800c6H
; File D:\git\src\IBK\IBK_DRFN\ProjSrc\SrcChartEx\ChartAddIn\ChartPeriodSummaryAddIn\ChartDragCandleAnalAddInImp.cpp

; 286  :     pDC->BitBlt(Startpt.x, Startpt.y, Endpt.x - Startpt.x, Endpt.y - Startpt.y, &dcCompatible, 0, 0, SRCAND);

  0013b	8b 48 04	 mov	 ecx, DWORD PTR [eax+4]
  0013e	8b 12		 mov	 edx, DWORD PTR [edx]
  00140	2b ce		 sub	 ecx, esi
  00142	8b 00		 mov	 eax, DWORD PTR [eax]
; File C:\Program Files (x86)\Microsoft Visual Studio\2019\Community\VC\Tools\MSVC\14.29.30133\atlmfc\include\afxwin1.inl

; 552  : 	{ ASSERT(m_hDC != NULL); return ::BitBlt(m_hDC, x, y, nWidth, nHeight,

  00144	6a 00		 push	 0
  00146	6a 00		 push	 0
  00148	ff 75 bc	 push	 DWORD PTR _dcCompatible$[ebp+4]
; File D:\git\src\IBK\IBK_DRFN\ProjSrc\SrcChartEx\ChartAddIn\ChartPeriodSummaryAddIn\ChartDragCandleAnalAddInImp.cpp

; 286  :     pDC->BitBlt(Startpt.x, Startpt.y, Endpt.x - Startpt.x, Endpt.y - Startpt.y, &dcCompatible, 0, 0, SRCAND);

  0014b	2b c2		 sub	 eax, edx
; File C:\Program Files (x86)\Microsoft Visual Studio\2019\Community\VC\Tools\MSVC\14.29.30133\atlmfc\include\afxwin1.inl

; 552  : 	{ ASSERT(m_hDC != NULL); return ::BitBlt(m_hDC, x, y, nWidth, nHeight,

  0014d	51		 push	 ecx
  0014e	50		 push	 eax
  0014f	56		 push	 esi
  00150	52		 push	 edx
  00151	ff 77 04	 push	 DWORD PTR [edi+4]
  00154	ff 15 00 00 00
	00		 call	 DWORD PTR __imp__BitBlt@36

; 68   : 	{ return this == NULL ? NULL : m_hObject; }

  0015a	8b 45 c8	 mov	 eax, DWORD PTR _pBitmapOld$1$[ebp]
  0015d	85 c0		 test	 eax, eax
  0015f	74 03		 je	 SHORT $LN48@DrawFill
$LN47@DrawFill:
  00161	8b 40 04	 mov	 eax, DWORD PTR [eax+4]
$LN48@DrawFill:

; 361  : 	{ ASSERT(m_hDC != NULL); return (CBitmap*) SelectGdiObject(m_hDC, pBitmap->GetSafeHandle()); }

  00164	50		 push	 eax
  00165	ff 75 bc	 push	 DWORD PTR _dcCompatible$[ebp+4]
  00168	e8 00 00 00 00	 call	 ?SelectGdiObject@CDC@@KGPAVCGdiObject@@PAUHDC__@@PAX@Z ; CDC::SelectGdiObject
; File D:\git\src\IBK\IBK_DRFN\ProjSrc\SrcChartEx\ChartAddIn\ChartPeriodSummaryAddIn\ChartDragCandleAnalAddInImp.cpp

; 289  : 	bm.DeleteObject();

  0016d	8d 4d d4	 lea	 ecx, DWORD PTR _bm$[ebp]
  00170	e8 00 00 00 00	 call	 ?DeleteObject@CGdiObject@@QAEHXZ ; CGdiObject::DeleteObject

; 290  : 	dcCompatible.DeleteDC();

  00175	8d 4d b8	 lea	 ecx, DWORD PTR _dcCompatible$[ebp]
  00178	e8 00 00 00 00	 call	 ?DeleteDC@CDC@@QAEHXZ	; CDC::DeleteDC

; 292  : 	return CRect(Startpt.x, Startpt.y, Endpt.x, Endpt.y);

  0017d	8b 45 dc	 mov	 eax, DWORD PTR _Endpt$GSCopy$1$[ebp]
; File C:\Program Files (x86)\Microsoft Visual Studio\2019\Community\VC\Tools\MSVC\14.29.30133\atlmfc\include\afxwin1.inl

; 179  : 	{ }

  00180	c7 45 d4 00 00
	00 00		 mov	 DWORD PTR _bm$[ebp], OFFSET ??_7CBitmap@@6B@
; File D:\git\src\IBK\IBK_DRFN\ProjSrc\SrcChartEx\ChartAddIn\ChartPeriodSummaryAddIn\ChartDragCandleAnalAddInImp.cpp

; 292  : 	return CRect(Startpt.x, Startpt.y, Endpt.x, Endpt.y);

  00187	8b 78 04	 mov	 edi, DWORD PTR [eax+4]
  0018a	8b 30		 mov	 esi, DWORD PTR [eax]
  0018c	8b 45 d0	 mov	 eax, DWORD PTR _Startpt$GSCopy$1$[ebp]
; File C:\Program Files (x86)\Microsoft Visual Studio\2019\Community\VC\Tools\MSVC\14.29.30133\atlmfc\include\atltypes.h

; 540  : 	left = l;

  0018f	8b 08		 mov	 ecx, DWORD PTR [eax]
; File D:\git\src\IBK\IBK_DRFN\ProjSrc\SrcChartEx\ChartAddIn\ChartPeriodSummaryAddIn\ChartDragCandleAnalAddInImp.cpp

; 292  : 	return CRect(Startpt.x, Startpt.y, Endpt.x, Endpt.y);

  00191	8b 50 04	 mov	 edx, DWORD PTR [eax+4]
; File C:\Program Files (x86)\Microsoft Visual Studio\2019\Community\VC\Tools\MSVC\14.29.30133\atlmfc\include\atltypes.h

; 540  : 	left = l;

  00194	89 0b		 mov	 DWORD PTR [ebx], ecx
; File C:\Program Files (x86)\Microsoft Visual Studio\2019\Community\VC\Tools\MSVC\14.29.30133\atlmfc\include\afxwin1.inl

; 179  : 	{ }

  00196	8d 4d d4	 lea	 ecx, DWORD PTR _bm$[ebp]
; File C:\Program Files (x86)\Microsoft Visual Studio\2019\Community\VC\Tools\MSVC\14.29.30133\atlmfc\include\atltypes.h

; 541  : 	top = t;

  00199	89 53 04	 mov	 DWORD PTR [ebx+4], edx

; 542  : 	right = r;

  0019c	89 73 08	 mov	 DWORD PTR [ebx+8], esi

; 543  : 	bottom = b;

  0019f	89 7b 0c	 mov	 DWORD PTR [ebx+12], edi
; File C:\Program Files (x86)\Microsoft Visual Studio\2019\Community\VC\Tools\MSVC\14.29.30133\atlmfc\include\afxwin1.inl

; 179  : 	{ }

  001a2	e8 00 00 00 00	 call	 ??1CGdiObject@@UAE@XZ	; CGdiObject::~CGdiObject
; File D:\git\src\IBK\IBK_DRFN\ProjSrc\SrcChartEx\ChartAddIn\ChartPeriodSummaryAddIn\ChartDragCandleAnalAddInImp.cpp

; 292  : 	return CRect(Startpt.x, Startpt.y, Endpt.x, Endpt.y);

  001a7	8d 4d b8	 lea	 ecx, DWORD PTR _dcCompatible$[ebp]
  001aa	e8 00 00 00 00	 call	 ??1CDC@@UAE@XZ		; CDC::~CDC
  001af	8b c3		 mov	 eax, ebx

; 293  : }

  001b1	8b 4d f4	 mov	 ecx, DWORD PTR __$EHRec$[ebp]
  001b4	64 89 0d 00 00
	00 00		 mov	 DWORD PTR fs:0, ecx
  001bb	59		 pop	 ecx
  001bc	5f		 pop	 edi
  001bd	5e		 pop	 esi
  001be	5b		 pop	 ebx
  001bf	8b 4d f0	 mov	 ecx, DWORD PTR __$ArrayPad$[ebp]
  001c2	33 cd		 xor	 ecx, ebp
  001c4	e8 00 00 00 00	 call	 @__security_check_cookie@4
  001c9	8b e5		 mov	 esp, ebp
  001cb	5d		 pop	 ebp
  001cc	c2 14 00	 ret	 20			; 00000014H
_TEXT	ENDS
;	COMDAT text$x
text$x	SEGMENT
__unwindfunclet$?DrawFill@CChartDragCandleAnalAddInImp@@IAE?AVCRect@@PAVCDC@@ABVCPoint@@1ABV2@@Z$0:
  00000	8d 4d b8	 lea	 ecx, DWORD PTR _dcCompatible$[ebp]
  00003	e9 00 00 00 00	 jmp	 ??1CDC@@UAE@XZ		; CDC::~CDC
__unwindfunclet$?DrawFill@CChartDragCandleAnalAddInImp@@IAE?AVCRect@@PAVCDC@@ABVCPoint@@1ABV2@@Z$1:
  00008	8d 4d d4	 lea	 ecx, DWORD PTR _bm$[ebp]
  0000b	e9 00 00 00 00	 jmp	 ??1CBitmap@@UAE@XZ	; CBitmap::~CBitmap
__unwindfunclet$?DrawFill@CChartDragCandleAnalAddInImp@@IAE?AVCRect@@PAVCDC@@ABVCPoint@@1ABV2@@Z$2:
  00010	8d 4d e8	 lea	 ecx, DWORD PTR _rgn$3[ebp]
  00013	e9 00 00 00 00	 jmp	 ??1CRgn@@UAE@XZ		; CRgn::~CRgn
  00018	cc		 int	 3
  00019	cc		 int	 3
  0001a	cc		 int	 3
  0001b	cc		 int	 3
  0001c	cc		 int	 3
__ehhandler$?DrawFill@CChartDragCandleAnalAddInImp@@IAE?AVCRect@@PAVCDC@@ABVCPoint@@1ABV2@@Z:
  0001d	90		 npad	 1
  0001e	90		 npad	 1
  0001f	8b 54 24 08	 mov	 edx, DWORD PTR [esp+8]
  00023	8d 42 0c	 lea	 eax, DWORD PTR [edx+12]
  00026	8b 4a b4	 mov	 ecx, DWORD PTR [edx-76]
  00029	33 c8		 xor	 ecx, eax
  0002b	e8 00 00 00 00	 call	 @__security_check_cookie@4
  00030	8b 4a fc	 mov	 ecx, DWORD PTR [edx-4]
  00033	33 c8		 xor	 ecx, eax
  00035	e8 00 00 00 00	 call	 @__security_check_cookie@4
  0003a	b8 00 00 00 00	 mov	 eax, OFFSET __ehfuncinfo$?DrawFill@CChartDragCandleAnalAddInImp@@IAE?AVCRect@@PAVCDC@@ABVCPoint@@1ABV2@@Z
  0003f	e9 00 00 00 00	 jmp	 ___CxxFrameHandler3
text$x	ENDS
?DrawFill@CChartDragCandleAnalAddInImp@@IAE?AVCRect@@PAVCDC@@ABVCPoint@@1ABV2@@Z ENDP ; CChartDragCandleAnalAddInImp::DrawFill
; Function compile flags: /Ogtp
; File D:\git\src\IBK\IBK_DRFN\ProjSrc\SrcChartEx\ChartAddIn\ChartPeriodSummaryAddIn\ChartDragCandleAnalAddInImp.cpp
;	COMDAT ?OnResetChart@CChartDragCandleAnalAddInImp@@MAEXXZ
_TEXT	SEGMENT
__ctlState$ = -8					; size = 8
?OnResetChart@CChartDragCandleAnalAddInImp@@MAEXXZ PROC	; CChartDragCandleAnalAddInImp::OnResetChart, COMDAT
; _this$ = ecx

; 495  : {

  00000	55		 push	 ebp
  00001	8b ec		 mov	 ebp, esp
  00003	83 ec 08	 sub	 esp, 8
  00006	56		 push	 esi
  00007	8b f1		 mov	 esi, ecx

; 496  : 	AFX_MANAGE_STATE( AfxGetStaticModuleState());

  00009	e8 00 00 00 00	 call	 ?AfxGetStaticModuleState@@YGPAVAFX_MODULE_STATE@@XZ ; AfxGetStaticModuleState
  0000e	50		 push	 eax
  0000f	8d 4d f8	 lea	 ecx, DWORD PTR __ctlState$[ebp]
  00012	e8 00 00 00 00	 call	 ??0AFX_MAINTAIN_STATE2@@QAE@PAVAFX_MODULE_STATE@@@Z ; AFX_MAINTAIN_STATE2::AFX_MAINTAIN_STATE2

; 497  : 
; 498  : 	//////////////////////////////////////////////////////////////////////////
; 499  : 	m_nStartIndex = -1;
; 500  : 	m_nEndIndex = -1;
; 501  : 	//////////////////////////////////////////////////////////////////////////
; 502  : }

  00017	8d 4d f8	 lea	 ecx, DWORD PTR __ctlState$[ebp]
  0001a	c7 46 60 ff ff
	ff ff		 mov	 DWORD PTR [esi+96], -1
  00021	c7 46 64 ff ff
	ff ff		 mov	 DWORD PTR [esi+100], -1
  00028	e8 00 00 00 00	 call	 ??1AFX_MAINTAIN_STATE2@@QAE@XZ ; AFX_MAINTAIN_STATE2::~AFX_MAINTAIN_STATE2
  0002d	5e		 pop	 esi
  0002e	8b e5		 mov	 esp, ebp
  00030	5d		 pop	 ebp
  00031	c3		 ret	 0
?OnResetChart@CChartDragCandleAnalAddInImp@@MAEXXZ ENDP	; CChartDragCandleAnalAddInImp::OnResetChart
_TEXT	ENDS
; Function compile flags: /Ogtp
; File D:\git\src\IBK\IBK_DRFN\ProjSrc\SrcChartEx\ChartAddIn\ChartPeriodSummaryAddIn\ChartDragCandleAnalAddInImp.cpp
;	COMDAT ?OnPacketDataMultiItem@CChartDragCandleAnalAddInImp@@MAEXPBD0H@Z
_TEXT	SEGMENT
__ctlState$ = -8					; size = 8
_lpszRQ$ = 8						; size = 4
_p_szPacketNames$ = 12					; size = 4
_p_bWithReset$ = 16					; size = 4
?OnPacketDataMultiItem@CChartDragCandleAnalAddInImp@@MAEXPBD0H@Z PROC ; CChartDragCandleAnalAddInImp::OnPacketDataMultiItem, COMDAT
; _this$ = ecx

; 504  : {

  00000	55		 push	 ebp
  00001	8b ec		 mov	 ebp, esp
  00003	83 ec 08	 sub	 esp, 8
  00006	56		 push	 esi
  00007	8b f1		 mov	 esi, ecx

; 505  : 	AFX_MANAGE_STATE( AfxGetStaticModuleState());

  00009	e8 00 00 00 00	 call	 ?AfxGetStaticModuleState@@YGPAVAFX_MODULE_STATE@@XZ ; AfxGetStaticModuleState
  0000e	50		 push	 eax
  0000f	8d 4d f8	 lea	 ecx, DWORD PTR __ctlState$[ebp]
  00012	e8 00 00 00 00	 call	 ??0AFX_MAINTAIN_STATE2@@QAE@PAVAFX_MODULE_STATE@@@Z ; AFX_MAINTAIN_STATE2::AFX_MAINTAIN_STATE2

; 506  : 
; 507  : 	//////////////////////////////////////////////////////////////////////////
; 508  : 	m_nStartIndex = -1;
; 509  : 	m_nEndIndex = -1;
; 510  : 	//////////////////////////////////////////////////////////////////////////
; 511  : }

  00017	8d 4d f8	 lea	 ecx, DWORD PTR __ctlState$[ebp]
  0001a	c7 46 60 ff ff
	ff ff		 mov	 DWORD PTR [esi+96], -1
  00021	c7 46 64 ff ff
	ff ff		 mov	 DWORD PTR [esi+100], -1
  00028	e8 00 00 00 00	 call	 ??1AFX_MAINTAIN_STATE2@@QAE@XZ ; AFX_MAINTAIN_STATE2::~AFX_MAINTAIN_STATE2
  0002d	5e		 pop	 esi
  0002e	8b e5		 mov	 esp, ebp
  00030	5d		 pop	 ebp
  00031	c2 0c 00	 ret	 12			; 0000000cH
?OnPacketDataMultiItem@CChartDragCandleAnalAddInImp@@MAEXPBD0H@Z ENDP ; CChartDragCandleAnalAddInImp::OnPacketDataMultiItem
_TEXT	ENDS
; Function compile flags: /Ogtp
; File D:\git\src\IBK\IBK_DRFN\ProjSrc\SrcChartEx\ChartAddIn\ChartPeriodSummaryAddIn\ChartDragCandleAnalAddInImp.cpp
; File C:\Program Files (x86)\Microsoft Visual Studio\2019\Community\VC\Tools\MSVC\14.29.30133\atlmfc\include\afxwin2.inl
; File D:\git\src\IBK\IBK_DRFN\ProjSrc\SrcChartEx\ChartAddIn\ChartPeriodSummaryAddIn\ChartDragCandleAnalAddInImp.cpp
; File C:\Program Files (x86)\Microsoft Visual Studio\2019\Community\VC\Tools\MSVC\14.29.30133\atlmfc\include\atltypes.h
; File D:\git\src\IBK\IBK_DRFN\ProjSrc\SrcChartEx\ChartAddIn\ChartPeriodSummaryAddIn\ChartDragCandleAnalAddInImp.cpp
; File C:\Program Files (x86)\Microsoft Visual Studio\2019\Community\VC\Tools\MSVC\14.29.30133\atlmfc\include\atltypes.h
; File D:\git\src\IBK\IBK_DRFN\ProjSrc\SrcChartEx\ChartAddIn\ChartPeriodSummaryAddIn\ChartDragCandleAnalAddInImp.cpp
; File D:\git\src\IBK\IBK_DRFN\ProjSrc\SrcChartEx\ChartAddIn\ChartPeriodSummaryAddIn\Include_AddIn\I133691\_IString.h
; File D:\git\src\IBK\IBK_DRFN\ProjSrc\SrcChartEx\ChartAddIn\ChartPeriodSummaryAddIn\ChartDragCandleAnalAddInImp.cpp
; File D:\git\src\IBK\IBK_DRFN\ProjSrc\SrcChartEx\ChartAddIn\ChartPeriodSummaryAddIn\Include_AddIn\I133691\_IString.h
; File D:\git\src\IBK\IBK_DRFN\ProjSrc\SrcChartEx\ChartAddIn\ChartPeriodSummaryAddIn\ChartDragCandleAnalAddInImp.cpp
;	COMDAT ?OnLButtonUp@CChartDragCandleAnalAddInImp@@MAEHPAUHDC__@@IAAUtagPOINT@@K@Z
_TEXT	SEGMENT
_outsideIF$2 = -120					; size = 36
__ctlState$ = -84					; size = 8
_nR$3 = -76						; size = 4
_nC$4 = -72						; size = 4
_nRet$3$ = -68						; size = 4
_nEndIndex$5 = -64					; size = 4
_szDataPath$6 = -60					; size = 8
_this$GSCopy$1$ = -56					; size = 4
_nStartIndex$7 = -52					; size = 4
_rctBlockRegion$8 = -48					; size = 16
_rctGraphRegion$9 = -32					; size = 16
__$ArrayPad$ = -16					; size = 4
__$EHRec$ = -12						; size = 12
_p_hDC$ = 8						; size = 4
_nFlags$ = 12						; size = 4
_point$ = 16						; size = 4
_p_dwMouseActionID$ = 20				; size = 4
?OnLButtonUp@CChartDragCandleAnalAddInImp@@MAEHPAUHDC__@@IAAUtagPOINT@@K@Z PROC ; CChartDragCandleAnalAddInImp::OnLButtonUp, COMDAT
; _this$ = ecx

; 156  : {

  00000	55		 push	 ebp
  00001	8b ec		 mov	 ebp, esp
  00003	6a ff		 push	 -1
  00005	68 00 00 00 00	 push	 __ehhandler$?OnLButtonUp@CChartDragCandleAnalAddInImp@@MAEHPAUHDC__@@IAAUtagPOINT@@K@Z
  0000a	64 a1 00 00 00
	00		 mov	 eax, DWORD PTR fs:0
  00010	50		 push	 eax
  00011	83 ec 6c	 sub	 esp, 108		; 0000006cH
  00014	a1 00 00 00 00	 mov	 eax, DWORD PTR ___security_cookie
  00019	33 c5		 xor	 eax, ebp
  0001b	89 45 f0	 mov	 DWORD PTR __$ArrayPad$[ebp], eax
  0001e	53		 push	 ebx
  0001f	56		 push	 esi
  00020	57		 push	 edi
  00021	50		 push	 eax
  00022	8d 45 f4	 lea	 eax, DWORD PTR __$EHRec$[ebp]
  00025	64 a3 00 00 00
	00		 mov	 DWORD PTR fs:0, eax
  0002b	8b d9		 mov	 ebx, ecx
  0002d	89 5d c8	 mov	 DWORD PTR _this$GSCopy$1$[ebp], ebx
  00030	8b 75 08	 mov	 esi, DWORD PTR _p_hDC$[ebp]

; 157  : 	AFX_MANAGE_STATE( AfxGetStaticModuleState());

  00033	e8 00 00 00 00	 call	 ?AfxGetStaticModuleState@@YGPAVAFX_MODULE_STATE@@XZ ; AfxGetStaticModuleState
  00038	50		 push	 eax
  00039	8d 4d ac	 lea	 ecx, DWORD PTR __ctlState$[ebp]
  0003c	e8 00 00 00 00	 call	 ??0AFX_MAINTAIN_STATE2@@QAE@PAVAFX_MODULE_STATE@@@Z ; AFX_MAINTAIN_STATE2::AFX_MAINTAIN_STATE2

; 158  : 	// ( 2006 / 11 / 27 - Sang-Woo, Cho ) 
; 159  : 	if( !m_bRun )

  00041	83 7b 6c 00	 cmp	 DWORD PTR [ebx+108], 0
  00045	c7 45 fc 00 00
	00 00		 mov	 DWORD PTR __$EHRec$[ebp+8], 0
  0004c	0f 84 d5 01 00
	00		 je	 $LN20@OnLButtonU

; 160  : 		return FALSE;
; 161  : 
; 162  : 	CDC *pDC = CDC::FromHandle( p_hDC);

  00052	56		 push	 esi
  00053	e8 00 00 00 00	 call	 ?FromHandle@CDC@@SGPAV1@PAUHDC__@@@Z ; CDC::FromHandle

; 163  : 	if( !pDC) return FALSE;

  00058	85 c0		 test	 eax, eax
  0005a	0f 84 c7 01 00
	00		 je	 $LN20@OnLButtonU

; 164  : 
; 165  : 	// (2006/2/6 - Seung-Won, Bae) Manage Mouse Action ID for Serial Action.
; 166  : 	if( !m_pIAddInToolMgr->ReleaseLButtonExclusive( m_pIAddInDllBase)) return FALSE;

  00060	8b 4b 28	 mov	 ecx, DWORD PTR [ebx+40]
  00063	ff 73 14	 push	 DWORD PTR [ebx+20]
  00066	8b 01		 mov	 eax, DWORD PTR [ecx]
  00068	ff 50 38	 call	 DWORD PTR [eax+56]
  0006b	85 c0		 test	 eax, eax
  0006d	0f 84 b4 01 00
	00		 je	 $LN20@OnLButtonU

; 167  : 
; 168  : 	// save point & draw for inflate when mouse drag & drop
; 169  : 	// 09.21.2001	
; 170  : 	// MODIFY: (04/04/18) DoubleClick-Drag ZoomIn .
; 171  : 	// (2006/3/4 - Seung-Won, Bae) Make Real Effect Gap 5 Pixcel.
; 172  : 	//if( 0 <= abs(m_ptStartDragDrop.x - point.x))
; 173  : 	{
; 174  : 
; 175  : 		//nami 8.30
; 176  : 		m_pChartCWnd->SendMessage( UM_CURSOR_EXCHANGE, ( WPARAM)CCursorShape::OBJECT_NONE, NULL);

  00073	8b 43 08	 mov	 eax, DWORD PTR [ebx+8]
; File C:\Program Files (x86)\Microsoft Visual Studio\2019\Community\VC\Tools\MSVC\14.29.30133\atlmfc\include\afxwin2.inl

; 32   : 	{ ASSERT(::IsWindow(m_hWnd)); return ::SendMessage(m_hWnd, message, wParam, lParam); }

  00076	6a 00		 push	 0
  00078	6a 00		 push	 0
  0007a	68 09 06 00 00	 push	 1545			; 00000609H
  0007f	ff 70 20	 push	 DWORD PTR [eax+32]
  00082	ff 15 00 00 00
	00		 call	 DWORD PTR __imp__SendMessageA@16
; File D:\git\src\IBK\IBK_DRFN\ProjSrc\SrcChartEx\ChartAddIn\ChartPeriodSummaryAddIn\ChartDragCandleAnalAddInImp.cpp

; 180  : 		m_ptStart.x = m_ptStartDragDrop.x;

  00088	8b 43 38	 mov	 eax, DWORD PTR [ebx+56]

; 187  : 		GetChartBasicData( nStartIndex, nEndIndex, nR, nC, rctBlockRegion, rctGraphRegion);

  0008b	8d 4d e0	 lea	 ecx, DWORD PTR _rctGraphRegion$9[ebp]
  0008e	51		 push	 ecx
  0008f	8d 4d d0	 lea	 ecx, DWORD PTR _rctBlockRegion$8[ebp]
  00092	89 43 48	 mov	 DWORD PTR [ebx+72], eax
  00095	8b 43 40	 mov	 eax, DWORD PTR [ebx+64]
  00098	0f 57 c0	 xorps	 xmm0, xmm0
  0009b	51		 push	 ecx
  0009c	8d 4d b8	 lea	 ecx, DWORD PTR _nC$4[ebp]
  0009f	89 43 50	 mov	 DWORD PTR [ebx+80], eax
  000a2	51		 push	 ecx
  000a3	8d 4d b4	 lea	 ecx, DWORD PTR _nR$3[ebp]
  000a6	c7 45 cc 00 00
	00 00		 mov	 DWORD PTR _nStartIndex$7[ebp], 0
  000ad	51		 push	 ecx
  000ae	8d 4d c0	 lea	 ecx, DWORD PTR _nEndIndex$5[ebp]
  000b1	c7 45 c0 00 00
	00 00		 mov	 DWORD PTR _nEndIndex$5[ebp], 0
  000b8	51		 push	 ecx
  000b9	8d 4d cc	 lea	 ecx, DWORD PTR _nStartIndex$7[ebp]
  000bc	51		 push	 ecx
  000bd	8d 4b f8	 lea	 ecx, DWORD PTR [ebx-8]
; File C:\Program Files (x86)\Microsoft Visual Studio\2019\Community\VC\Tools\MSVC\14.29.30133\atlmfc\include\atltypes.h

; 528  : 	left = 0;

  000c0	0f 11 45 d0	 movups	 XMMWORD PTR _rctBlockRegion$8[ebp], xmm0
  000c4	0f 11 45 e0	 movups	 XMMWORD PTR _rctGraphRegion$9[ebp], xmm0
; File D:\git\src\IBK\IBK_DRFN\ProjSrc\SrcChartEx\ChartAddIn\ChartPeriodSummaryAddIn\ChartDragCandleAnalAddInImp.cpp

; 187  : 		GetChartBasicData( nStartIndex, nEndIndex, nR, nC, rctBlockRegion, rctGraphRegion);

  000c8	e8 00 00 00 00	 call	 ?GetChartBasicData@CChartDragCandleAnalAddInImp@@IAEHAAH000AAVCRect@@1@Z ; CChartDragCandleAnalAddInImp::GetChartBasicData

; 344  : 	int nRet = nStartIndex + ( ( x - rctBlockRegion.left) * ( nEndIndex - nStartIndex + 1)) / nBlockWidth;

  000cd	8b 5d c0	 mov	 ebx, DWORD PTR _nEndIndex$5[ebp]
  000d0	8b cb		 mov	 ecx, ebx
  000d2	2b 4d cc	 sub	 ecx, DWORD PTR _nStartIndex$7[ebp]
  000d5	8b 45 c8	 mov	 eax, DWORD PTR _this$GSCopy$1$[ebp]
  000d8	41		 inc	 ecx
; File C:\Program Files (x86)\Microsoft Visual Studio\2019\Community\VC\Tools\MSVC\14.29.30133\atlmfc\include\atltypes.h

; 576  : 	return right - left;

  000d9	8b 75 e0	 mov	 esi, DWORD PTR _rctGraphRegion$9[ebp]
  000dc	8b 7d e8	 mov	 edi, DWORD PTR _rctGraphRegion$9[ebp+8]
  000df	2b fe		 sub	 edi, esi
; File D:\git\src\IBK\IBK_DRFN\ProjSrc\SrcChartEx\ChartAddIn\ChartPeriodSummaryAddIn\ChartDragCandleAnalAddInImp.cpp

; 344  : 	int nRet = nStartIndex + ( ( x - rctBlockRegion.left) * ( nEndIndex - nStartIndex + 1)) / nBlockWidth;

  000e1	8b 40 48	 mov	 eax, DWORD PTR [eax+72]
  000e4	2b c6		 sub	 eax, esi
  000e6	0f af c1	 imul	 eax, ecx
  000e9	99		 cdq
  000ea	f7 ff		 idiv	 edi
  000ec	8b d0		 mov	 edx, eax
  000ee	8b 45 cc	 mov	 eax, DWORD PTR _nStartIndex$7[ebp]
  000f1	03 d0		 add	 edx, eax

; 345  : 	if(nRet > nEndIndex)

  000f3	3b d3		 cmp	 edx, ebx
  000f5	0f 4f d3	 cmovg	 edx, ebx

; 346  : 		nRet = nEndIndex;
; 347  : 	if(nRet < nStartIndex)

  000f8	3b d0		 cmp	 edx, eax
  000fa	0f 4c d0	 cmovl	 edx, eax

; 188  : 		m_nStartIndex = GetIndexFromPoint(m_ptStart.x, nStartIndex, nEndIndex, rctGraphRegion);

  000fd	8b 45 c8	 mov	 eax, DWORD PTR _this$GSCopy$1$[ebp]

; 347  : 	if(nRet < nStartIndex)

  00100	89 55 bc	 mov	 DWORD PTR _nRet$3$[ebp], edx

; 188  : 		m_nStartIndex = GetIndexFromPoint(m_ptStart.x, nStartIndex, nEndIndex, rctGraphRegion);

  00103	89 50 60	 mov	 DWORD PTR [eax+96], edx

; 344  : 	int nRet = nStartIndex + ( ( x - rctBlockRegion.left) * ( nEndIndex - nStartIndex + 1)) / nBlockWidth;

  00106	8b 40 50	 mov	 eax, DWORD PTR [eax+80]
  00109	2b c6		 sub	 eax, esi
  0010b	0f af c1	 imul	 eax, ecx
  0010e	99		 cdq
  0010f	f7 ff		 idiv	 edi

; 190  : 
; 191  : 
; 192  : 		if(m_nStartIndex <= m_nEndIndex)

  00111	8b 55 bc	 mov	 edx, DWORD PTR _nRet$3$[ebp]

; 344  : 	int nRet = nStartIndex + ( ( x - rctBlockRegion.left) * ( nEndIndex - nStartIndex + 1)) / nBlockWidth;

  00114	8b c8		 mov	 ecx, eax
  00116	8b 45 cc	 mov	 eax, DWORD PTR _nStartIndex$7[ebp]
  00119	03 c8		 add	 ecx, eax

; 345  : 	if(nRet > nEndIndex)

  0011b	3b cb		 cmp	 ecx, ebx
  0011d	0f 4f cb	 cmovg	 ecx, ebx

; 189  : 		m_nEndIndex = GetIndexFromPoint(m_ptEnd.x, nStartIndex, nEndIndex, rctGraphRegion);

  00120	8b 5d c8	 mov	 ebx, DWORD PTR _this$GSCopy$1$[ebp]

; 347  : 	if(nRet < nStartIndex)

  00123	3b c8		 cmp	 ecx, eax
  00125	0f 4c c8	 cmovl	 ecx, eax

; 189  : 		m_nEndIndex = GetIndexFromPoint(m_ptEnd.x, nStartIndex, nEndIndex, rctGraphRegion);

  00128	89 4b 64	 mov	 DWORD PTR [ebx+100], ecx

; 190  : 
; 191  : 
; 192  : 		if(m_nStartIndex <= m_nEndIndex)

  0012b	3b d1		 cmp	 edx, ecx
  0012d	7f 0f		 jg	 SHORT $LN5@OnLButtonU

; 193  : 		{
; 194  : 			if(m_nEndIndex - m_nStartIndex >= 5)

  0012f	2b ca		 sub	 ecx, edx
  00131	83 f9 05	 cmp	 ecx, 5
  00134	7c 1a		 jl	 SHORT $LN6@OnLButtonU

; 195  : 				m_nEndIndex = m_nStartIndex + 4;

  00136	8d 42 04	 lea	 eax, DWORD PTR [edx+4]
  00139	89 43 64	 mov	 DWORD PTR [ebx+100], eax

; 196  : 		}

  0013c	eb 12		 jmp	 SHORT $LN6@OnLButtonU
$LN5@OnLButtonU:

; 197  : 		else
; 198  : 		{	
; 199  : 			if(m_nStartIndex - m_nEndIndex >= 5)

  0013e	8b c2		 mov	 eax, edx
  00140	2b c1		 sub	 eax, ecx
  00142	83 f8 05	 cmp	 eax, 5
  00145	7c 03		 jl	 SHORT $LN8@OnLButtonU

; 200  : 				m_nEndIndex = m_nStartIndex - 4;

  00147	8d 4a fc	 lea	 ecx, DWORD PTR [edx-4]
$LN8@OnLButtonU:

; 201  : 
; 202  : 			int nTemp = m_nStartIndex;
; 203  : 			m_nStartIndex = m_nEndIndex;

  0014a	89 4b 60	 mov	 DWORD PTR [ebx+96], ecx

; 204  : 			m_nEndIndex = nTemp;

  0014d	89 53 64	 mov	 DWORD PTR [ebx+100], edx
$LN6@OnLButtonU:

; 205  : 		}
; 206  : 
; 207  : //		IPacket *pIPacket = m_pIPacketManager->GetPacket( "");
; 208  : 		IPacket *pIPacket = m_pIDefaultPacketManager->GetPacket( _MTEXT( C0_DATE_TIME));

  00150	8b 4b 1c	 mov	 ecx, DWORD PTR [ebx+28]
  00153	a1 54 00 00 00	 mov	 eax, DWORD PTR ?g_iMetaTable@@3VIMetaTable@@A+84
  00158	8b 11		 mov	 edx, DWORD PTR [ecx]
  0015a	ff 30		 push	 DWORD PTR [eax]
  0015c	ff 52 10	 call	 DWORD PTR [edx+16]
  0015f	8b f0		 mov	 esi, eax

; 209  : 		if(pIPacket)

  00161	85 f6		 test	 esi, esi
  00163	74 17		 je	 SHORT $LN10@OnLButtonU

; 210  : 		{
; 211  : 			if(m_nEndIndex >= pIPacket->GetDataCount())

  00165	8b 16		 mov	 edx, DWORD PTR [esi]
  00167	8b ce		 mov	 ecx, esi
  00169	ff 52 2c	 call	 DWORD PTR [edx+44]
  0016c	39 43 64	 cmp	 DWORD PTR [ebx+100], eax
  0016f	7c 0b		 jl	 SHORT $LN10@OnLButtonU

; 212  : 				m_nEndIndex = pIPacket->GetDataCount() -1;

  00171	8b 06		 mov	 eax, DWORD PTR [esi]
  00173	8b ce		 mov	 ecx, esi
  00175	ff 50 2c	 call	 DWORD PTR [eax+44]
  00178	48		 dec	 eax
  00179	89 43 64	 mov	 DWORD PTR [ebx+100], eax
$LN10@OnLButtonU:

; 213  : 		}
; 214  : 
; 215  : 		m_pIChartOCX->InvalidateControl();

  0017c	8b 4b 04	 mov	 ecx, DWORD PTR [ebx+4]
  0017f	8b 01		 mov	 eax, DWORD PTR [ecx]
  00181	ff 50 38	 call	 DWORD PTR [eax+56]

; 216  : 
; 217  : 		//20100408 SJ_KIM   !!Start!!
; 218  : 		COutsideCommonInterface *pOutsideI = m_pIChartOCX->GetMChartInterface();

  00184	8b 4b 04	 mov	 ecx, DWORD PTR [ebx+4]
  00187	8b 01		 mov	 eax, DWORD PTR [ecx]
  00189	ff 50 14	 call	 DWORD PTR [eax+20]
  0018c	8b f8		 mov	 edi, eax

; 219  : 		
; 220  : 		if(pOutsideI)

  0018e	85 ff		 test	 edi, edi
  00190	74 79		 je	 SHORT $LN11@OnLButtonU

; 221  : 		{
; 222  : 			COutsideCommonInterfaceFunction outsideIF;

  00192	8d 4d 88	 lea	 ecx, DWORD PTR _outsideIF$2[ebp]
  00195	e8 00 00 00 00	 call	 ??0COutsideCommonInterfaceFunction@@QAE@XZ ; COutsideCommonInterfaceFunction::COutsideCommonInterfaceFunction

; 223  : 			ILPCSTR szDataPath = m_pIChartOCX->GetDefaultPathString();

  0019a	8b 4b 04	 mov	 ecx, DWORD PTR [ebx+4]
  0019d	c6 45 fc 01	 mov	 BYTE PTR __$EHRec$[ebp+8], 1
  001a1	8b 11		 mov	 edx, DWORD PTR [ecx]
  001a3	ff 52 70	 call	 DWORD PTR [edx+112]
; File D:\git\src\IBK\IBK_DRFN\ProjSrc\SrcChartEx\ChartAddIn\ChartPeriodSummaryAddIn\Include_AddIn\I133691\_IString.h

; 39   : 		m_pIStrData = p_pIString;	// Do not AddRef(). Because It must be Return Value.

  001a6	8b f0		 mov	 esi, eax
  001a8	89 75 c8	 mov	 DWORD PTR _szDataPath$6[ebp+4], esi

; 40   : 		if( m_pIStrData) m_szData = m_pIStrData->GetData();

  001ab	85 f6		 test	 esi, esi
  001ad	74 09		 je	 SHORT $LN40@OnLButtonU
  001af	8b 16		 mov	 edx, DWORD PTR [esi]
  001b1	8b ce		 mov	 ecx, esi
  001b3	ff 52 10	 call	 DWORD PTR [edx+16]
  001b6	eb 02		 jmp	 SHORT $LN63@OnLButtonU
$LN40@OnLButtonU:

; 41   : 		else m_szData = NULL;

  001b8	33 c0		 xor	 eax, eax
$LN63@OnLButtonU:
; File D:\git\src\IBK\IBK_DRFN\ProjSrc\SrcChartEx\ChartAddIn\ChartPeriodSummaryAddIn\ChartDragCandleAnalAddInImp.cpp

; 223  : 			ILPCSTR szDataPath = m_pIChartOCX->GetDefaultPathString();

  001ba	89 45 c4	 mov	 DWORD PTR _szDataPath$6[ebp], eax

; 224  : 			outsideIF.SetOutsideCommonInterface(pOutsideI, CString( szDataPath));

  001bd	51		 push	 ecx
  001be	8b cc		 mov	 ecx, esp
  001c0	c6 45 fc 02	 mov	 BYTE PTR __$EHRec$[ebp+8], 2
  001c4	50		 push	 eax
  001c5	ff 15 00 00 00
	00		 call	 DWORD PTR __imp_??0?$CStringT@DV?$StrTraitMFC_DLL@DV?$ChTraitsCRT@D@ATL@@@@@ATL@@QAE@PBD@Z
  001cb	57		 push	 edi
  001cc	8d 4d 88	 lea	 ecx, DWORD PTR _outsideIF$2[ebp]
  001cf	e8 00 00 00 00	 call	 ?SetOutsideCommonInterface@COutsideCommonInterfaceFunction@@QAEXPAVCOutsideCommonInterface@@V?$CStringT@DV?$StrTraitMFC_DLL@DV?$ChTraitsCRT@D@ATL@@@@@ATL@@@Z ; COutsideCommonInterfaceFunction::SetOutsideCommonInterface

; 225  : 			
; 226  : 			if(AddData(m_nStartIndex, m_nEndIndex))

  001d4	ff 73 64	 push	 DWORD PTR [ebx+100]
  001d7	8d 4b f8	 lea	 ecx, DWORD PTR [ebx-8]
  001da	ff 73 60	 push	 DWORD PTR [ebx+96]
  001dd	e8 00 00 00 00	 call	 ?AddData@CChartDragCandleAnalAddInImp@@IAEHHH@Z ; CChartDragCandleAnalAddInImp::AddData
  001e2	85 c0		 test	 eax, eax
  001e4	74 0f		 je	 SHORT $LN12@OnLButtonU

; 227  : 				outsideIF.MChart_SetDataWindowData(&m_listDataWindow);

  001e6	8d 83 88 00 00
	00		 lea	 eax, DWORD PTR [ebx+136]
  001ec	50		 push	 eax
  001ed	8d 4d 88	 lea	 ecx, DWORD PTR _outsideIF$2[ebp]
  001f0	e8 00 00 00 00	 call	 ?MChart_SetDataWindowData@COutsideCommonInterfaceFunction@@QAEXPAV?$CList@V?$CStringT@DV?$StrTraitMFC_DLL@DV?$ChTraitsCRT@D@ATL@@@@@ATL@@AAV12@@@@Z ; COutsideCommonInterfaceFunction::MChart_SetDataWindowData
$LN12@OnLButtonU:
; File D:\git\src\IBK\IBK_DRFN\ProjSrc\SrcChartEx\ChartAddIn\ChartPeriodSummaryAddIn\Include_AddIn\I133691\_IString.h

; 44   : 	{

  001f5	c6 45 fc 03	 mov	 BYTE PTR __$EHRec$[ebp+8], 3

; 45   : 		if( m_pIStrData)

  001f9	85 f6		 test	 esi, esi
  001fb	74 06		 je	 SHORT $LN44@OnLButtonU

; 46   : 		{
; 47   : 			m_pIStrData->Release();

  001fd	8b 06		 mov	 eax, DWORD PTR [esi]
  001ff	56		 push	 esi
  00200	ff 50 08	 call	 DWORD PTR [eax+8]
$LN44@OnLButtonU:
; File D:\git\src\IBK\IBK_DRFN\ProjSrc\SrcChartEx\ChartAddIn\ChartPeriodSummaryAddIn\ChartDragCandleAnalAddInImp.cpp

; 229  : 		}

  00203	8d 4d 88	 lea	 ecx, DWORD PTR _outsideIF$2[ebp]
  00206	e8 00 00 00 00	 call	 ??1COutsideCommonInterfaceFunction@@UAE@XZ ; COutsideCommonInterfaceFunction::~COutsideCommonInterfaceFunction
$LN11@OnLButtonU:

; 230  : 		//20100408 SJ_KIM   !!End!!
; 231  : 	}
; 232  : 
; 233  : 	m_ptStartDragDrop = CPoint(-1, -1);

  0020b	c7 43 38 ff ff
	ff ff		 mov	 DWORD PTR [ebx+56], -1
  00212	c7 43 3c ff ff
	ff ff		 mov	 DWORD PTR [ebx+60], -1

; 234  : 	m_ptCurrDragDrop = CPoint(-1, -1);

  00219	c7 43 40 ff ff
	ff ff		 mov	 DWORD PTR [ebx+64], -1
  00220	c7 43 44 ff ff
	ff ff		 mov	 DWORD PTR [ebx+68], -1
$LN20@OnLButtonU:

; 235  : 	//return TRUE;
; 236  : 	return 0L;

  00227	8d 4d ac	 lea	 ecx, DWORD PTR __ctlState$[ebp]
  0022a	e8 00 00 00 00	 call	 ??1AFX_MAINTAIN_STATE2@@QAE@XZ ; AFX_MAINTAIN_STATE2::~AFX_MAINTAIN_STATE2
  0022f	33 c0		 xor	 eax, eax

; 237  : }

  00231	8b 4d f4	 mov	 ecx, DWORD PTR __$EHRec$[ebp]
  00234	64 89 0d 00 00
	00 00		 mov	 DWORD PTR fs:0, ecx
  0023b	59		 pop	 ecx
  0023c	5f		 pop	 edi
  0023d	5e		 pop	 esi
  0023e	5b		 pop	 ebx
  0023f	8b 4d f0	 mov	 ecx, DWORD PTR __$ArrayPad$[ebp]
  00242	33 cd		 xor	 ecx, ebp
  00244	e8 00 00 00 00	 call	 @__security_check_cookie@4
  00249	8b e5		 mov	 esp, ebp
  0024b	5d		 pop	 ebp
  0024c	c2 10 00	 ret	 16			; 00000010H
_TEXT	ENDS
;	COMDAT text$x
text$x	SEGMENT
__unwindfunclet$?OnLButtonUp@CChartDragCandleAnalAddInImp@@MAEHPAUHDC__@@IAAUtagPOINT@@K@Z$0:
  00000	8d 4d ac	 lea	 ecx, DWORD PTR __ctlState$[ebp]
  00003	e9 00 00 00 00	 jmp	 ??1AFX_MAINTAIN_STATE2@@QAE@XZ ; AFX_MAINTAIN_STATE2::~AFX_MAINTAIN_STATE2
__unwindfunclet$?OnLButtonUp@CChartDragCandleAnalAddInImp@@MAEHPAUHDC__@@IAAUtagPOINT@@K@Z$1:
  00008	8d 4d 88	 lea	 ecx, DWORD PTR _outsideIF$2[ebp]
  0000b	e9 00 00 00 00	 jmp	 ??1COutsideCommonInterfaceFunction@@UAE@XZ ; COutsideCommonInterfaceFunction::~COutsideCommonInterfaceFunction
__unwindfunclet$?OnLButtonUp@CChartDragCandleAnalAddInImp@@MAEHPAUHDC__@@IAAUtagPOINT@@K@Z$2:
  00010	8d 4d c4	 lea	 ecx, DWORD PTR _szDataPath$6[ebp]
  00013	e9 00 00 00 00	 jmp	 ??1ILPCSTR133691@@QAE@XZ ; ILPCSTR133691::~ILPCSTR133691
  00018	cc		 int	 3
  00019	cc		 int	 3
  0001a	cc		 int	 3
  0001b	cc		 int	 3
  0001c	cc		 int	 3
__ehhandler$?OnLButtonUp@CChartDragCandleAnalAddInImp@@MAEHPAUHDC__@@IAAUtagPOINT@@K@Z:
  0001d	90		 npad	 1
  0001e	90		 npad	 1
  0001f	8b 54 24 08	 mov	 edx, DWORD PTR [esp+8]
  00023	8d 42 0c	 lea	 eax, DWORD PTR [edx+12]
  00026	8b 4a 84	 mov	 ecx, DWORD PTR [edx-124]
  00029	33 c8		 xor	 ecx, eax
  0002b	e8 00 00 00 00	 call	 @__security_check_cookie@4
  00030	8b 4a fc	 mov	 ecx, DWORD PTR [edx-4]
  00033	33 c8		 xor	 ecx, eax
  00035	e8 00 00 00 00	 call	 @__security_check_cookie@4
  0003a	b8 00 00 00 00	 mov	 eax, OFFSET __ehfuncinfo$?OnLButtonUp@CChartDragCandleAnalAddInImp@@MAEHPAUHDC__@@IAAUtagPOINT@@K@Z
  0003f	e9 00 00 00 00	 jmp	 ___CxxFrameHandler3
text$x	ENDS
?OnLButtonUp@CChartDragCandleAnalAddInImp@@MAEHPAUHDC__@@IAAUtagPOINT@@K@Z ENDP ; CChartDragCandleAnalAddInImp::OnLButtonUp
; Function compile flags: /Ogtp
; File D:\git\src\IBK\IBK_DRFN\ProjSrc\SrcChartEx\ChartAddIn\ChartPeriodSummaryAddIn\ChartDragCandleAnalAddInImp.cpp
; File C:\Program Files (x86)\Microsoft Visual Studio\2019\Community\VC\Tools\MSVC\14.29.30133\atlmfc\include\atltypes.h
; File D:\git\src\IBK\IBK_DRFN\ProjSrc\SrcChartEx\ChartAddIn\ChartPeriodSummaryAddIn\ChartDragCandleAnalAddInImp.cpp
;	COMDAT ?OnLButtonDown@CChartDragCandleAnalAddInImp@@MAEHPAUHDC__@@IAAUtagPOINT@@K@Z
_TEXT	SEGMENT
__ctlState$ = -56					; size = 8
$T2 = -48						; size = 16
_rctRegion$ = -32					; size = 16
__$ArrayPad$ = -16					; size = 4
__$EHRec$ = -12						; size = 12
_p_hDC$ = 8						; size = 4
_nFlags$ = 12						; size = 4
_point$ = 16						; size = 4
_p_dwMouseActionID$ = 20				; size = 4
?OnLButtonDown@CChartDragCandleAnalAddInImp@@MAEHPAUHDC__@@IAAUtagPOINT@@K@Z PROC ; CChartDragCandleAnalAddInImp::OnLButtonDown, COMDAT
; _this$ = ecx

; 133  : {

  00000	55		 push	 ebp
  00001	8b ec		 mov	 ebp, esp
  00003	6a ff		 push	 -1
  00005	68 00 00 00 00	 push	 __ehhandler$?OnLButtonDown@CChartDragCandleAnalAddInImp@@MAEHPAUHDC__@@IAAUtagPOINT@@K@Z
  0000a	64 a1 00 00 00
	00		 mov	 eax, DWORD PTR fs:0
  00010	50		 push	 eax
  00011	83 ec 2c	 sub	 esp, 44			; 0000002cH
  00014	a1 00 00 00 00	 mov	 eax, DWORD PTR ___security_cookie
  00019	33 c5		 xor	 eax, ebp
  0001b	89 45 f0	 mov	 DWORD PTR __$ArrayPad$[ebp], eax
  0001e	56		 push	 esi
  0001f	57		 push	 edi
  00020	50		 push	 eax
  00021	8d 45 f4	 lea	 eax, DWORD PTR __$EHRec$[ebp]
  00024	64 a3 00 00 00
	00		 mov	 DWORD PTR fs:0, eax
  0002a	8b f1		 mov	 esi, ecx
  0002c	8b 7d 10	 mov	 edi, DWORD PTR _point$[ebp]

; 134  : 	AFX_MANAGE_STATE( AfxGetStaticModuleState());

  0002f	e8 00 00 00 00	 call	 ?AfxGetStaticModuleState@@YGPAVAFX_MODULE_STATE@@XZ ; AfxGetStaticModuleState
  00034	50		 push	 eax
  00035	8d 4d c8	 lea	 ecx, DWORD PTR __ctlState$[ebp]
  00038	e8 00 00 00 00	 call	 ??0AFX_MAINTAIN_STATE2@@QAE@PAVAFX_MODULE_STATE@@@Z ; AFX_MAINTAIN_STATE2::AFX_MAINTAIN_STATE2

; 135  : 	// ( 2006 / 11 / 27 - Sang-Woo, Cho ) 
; 136  : 	if( !m_bRun )

  0003d	83 7e 6c 00	 cmp	 DWORD PTR [esi+108], 0
  00041	c7 45 fc 00 00
	00 00		 mov	 DWORD PTR __$EHRec$[ebp+8], 0
  00048	74 67		 je	 SHORT $LN4@OnLButtonD

; 137  : 		return FALSE;
; 138  : 
; 139  : 	// (2006/2/13 - Seung-Won, Bae) Check Empty Chart!
; 140  : 	//if( !m_pIChartOCX->IsUseToolScrollBar() || m_pIChartOCX->IsOnSpecialChart() || m_pIChartManager->IsEmpty()) return FALSE;
; 141  : 	if( m_pIChartOCX->IsOnSpecialChart() || m_pIChartManager->IsEmpty()) return FALSE;

  0004a	8b 4e 04	 mov	 ecx, DWORD PTR [esi+4]
  0004d	8b 01		 mov	 eax, DWORD PTR [ecx]
  0004f	ff 90 84 00 00
	00		 call	 DWORD PTR [eax+132]
  00055	85 c0		 test	 eax, eax
  00057	75 58		 jne	 SHORT $LN4@OnLButtonD
  00059	8b 4e 20	 mov	 ecx, DWORD PTR [esi+32]
  0005c	8b 01		 mov	 eax, DWORD PTR [ecx]
  0005e	ff 50 2c	 call	 DWORD PTR [eax+44]
  00061	85 c0		 test	 eax, eax
  00063	75 4c		 jne	 SHORT $LN4@OnLButtonD

; 142  : 	CRect rctRegion = m_pIChartManager->GetGraphRegionSumInColumn( point);

  00065	8b 4e 20	 mov	 ecx, DWORD PTR [esi+32]
  00068	8d 55 d0	 lea	 edx, DWORD PTR $T2[ebp]
  0006b	ff 77 04	 push	 DWORD PTR [edi+4]
  0006e	ff 37		 push	 DWORD PTR [edi]
  00070	8b 01		 mov	 eax, DWORD PTR [ecx]
  00072	52		 push	 edx
  00073	ff 90 88 00 00
	00		 call	 DWORD PTR [eax+136]
; File C:\Program Files (x86)\Microsoft Visual Studio\2019\Community\VC\Tools\MSVC\14.29.30133\atlmfc\include\atltypes.h

; 548  : 	::CopyRect(this, &srcRect);

  00079	50		 push	 eax
  0007a	8d 45 e0	 lea	 eax, DWORD PTR _rctRegion$[ebp]
  0007d	50		 push	 eax
  0007e	ff 15 00 00 00
	00		 call	 DWORD PTR __imp__CopyRect@8

; 638  : 	return ::IsRectEmpty(this);

  00084	8d 45 e0	 lea	 eax, DWORD PTR _rctRegion$[ebp]
  00087	50		 push	 eax
  00088	ff 15 00 00 00
	00		 call	 DWORD PTR __imp__IsRectEmpty@4
; File D:\git\src\IBK\IBK_DRFN\ProjSrc\SrcChartEx\ChartAddIn\ChartPeriodSummaryAddIn\ChartDragCandleAnalAddInImp.cpp

; 143  : 	if( rctRegion.IsRectEmpty()) return FALSE;

  0008e	85 c0		 test	 eax, eax
  00090	75 1f		 jne	 SHORT $LN4@OnLButtonD

; 144  : 
; 145  : 	// (2006/2/6 - Seung-Won, Bae) Manage Mouse Action ID for Serial Action.
; 146  : 	m_dwMouseActionID = p_dwMouseActionID;

  00092	8b 45 14	 mov	 eax, DWORD PTR _p_dwMouseActionID$[ebp]
  00095	89 46 68	 mov	 DWORD PTR [esi+104], eax

; 147  : 
; 148  : 	m_ptStartDragDrop = point;

  00098	8b 07		 mov	 eax, DWORD PTR [edi]
  0009a	8b 4f 04	 mov	 ecx, DWORD PTR [edi+4]
  0009d	89 46 38	 mov	 DWORD PTR [esi+56], eax
  000a0	89 4e 3c	 mov	 DWORD PTR [esi+60], ecx

; 149  : 	m_ptCurrDragDrop = CPoint(-1, -1);

  000a3	c7 46 40 ff ff
	ff ff		 mov	 DWORD PTR [esi+64], -1
  000aa	c7 46 44 ff ff
	ff ff		 mov	 DWORD PTR [esi+68], -1
$LN4@OnLButtonD:

; 150  : 
; 151  : 	//return TRUE;
; 152  : 	return 0L;

  000b1	8d 4d c8	 lea	 ecx, DWORD PTR __ctlState$[ebp]
  000b4	e8 00 00 00 00	 call	 ??1AFX_MAINTAIN_STATE2@@QAE@XZ ; AFX_MAINTAIN_STATE2::~AFX_MAINTAIN_STATE2
  000b9	33 c0		 xor	 eax, eax

; 153  : }

  000bb	8b 4d f4	 mov	 ecx, DWORD PTR __$EHRec$[ebp]
  000be	64 89 0d 00 00
	00 00		 mov	 DWORD PTR fs:0, ecx
  000c5	59		 pop	 ecx
  000c6	5f		 pop	 edi
  000c7	5e		 pop	 esi
  000c8	8b 4d f0	 mov	 ecx, DWORD PTR __$ArrayPad$[ebp]
  000cb	33 cd		 xor	 ecx, ebp
  000cd	e8 00 00 00 00	 call	 @__security_check_cookie@4
  000d2	8b e5		 mov	 esp, ebp
  000d4	5d		 pop	 ebp
  000d5	c2 10 00	 ret	 16			; 00000010H
_TEXT	ENDS
;	COMDAT text$x
text$x	SEGMENT
__unwindfunclet$?OnLButtonDown@CChartDragCandleAnalAddInImp@@MAEHPAUHDC__@@IAAUtagPOINT@@K@Z$0:
  00000	8d 4d c8	 lea	 ecx, DWORD PTR __ctlState$[ebp]
  00003	e9 00 00 00 00	 jmp	 ??1AFX_MAINTAIN_STATE2@@QAE@XZ ; AFX_MAINTAIN_STATE2::~AFX_MAINTAIN_STATE2
  00008	cc		 int	 3
  00009	cc		 int	 3
  0000a	cc		 int	 3
  0000b	cc		 int	 3
  0000c	cc		 int	 3
__ehhandler$?OnLButtonDown@CChartDragCandleAnalAddInImp@@MAEHPAUHDC__@@IAAUtagPOINT@@K@Z:
  0000d	90		 npad	 1
  0000e	90		 npad	 1
  0000f	8b 54 24 08	 mov	 edx, DWORD PTR [esp+8]
  00013	8d 42 0c	 lea	 eax, DWORD PTR [edx+12]
  00016	8b 4a c8	 mov	 ecx, DWORD PTR [edx-56]
  00019	33 c8		 xor	 ecx, eax
  0001b	e8 00 00 00 00	 call	 @__security_check_cookie@4
  00020	8b 4a fc	 mov	 ecx, DWORD PTR [edx-4]
  00023	33 c8		 xor	 ecx, eax
  00025	e8 00 00 00 00	 call	 @__security_check_cookie@4
  0002a	b8 00 00 00 00	 mov	 eax, OFFSET __ehfuncinfo$?OnLButtonDown@CChartDragCandleAnalAddInImp@@MAEHPAUHDC__@@IAAUtagPOINT@@K@Z
  0002f	e9 00 00 00 00	 jmp	 ___CxxFrameHandler3
text$x	ENDS
?OnLButtonDown@CChartDragCandleAnalAddInImp@@MAEHPAUHDC__@@IAAUtagPOINT@@K@Z ENDP ; CChartDragCandleAnalAddInImp::OnLButtonDown
; Function compile flags: /Ogtp
; File D:\git\src\IBK\IBK_DRFN\ProjSrc\SrcChartEx\ChartAddIn\ChartPeriodSummaryAddIn\ChartDragCandleAnalAddInImp.cpp
; File C:\Program Files (x86)\Microsoft Visual Studio\2019\Community\VC\Tools\MSVC\14.29.30133\atlmfc\include\atltypes.h
; File D:\git\src\IBK\IBK_DRFN\ProjSrc\SrcChartEx\ChartAddIn\ChartPeriodSummaryAddIn\ChartDragCandleAnalAddInImp.cpp
;	COMDAT ?OnMouseMove@CChartDragCandleAnalAddInImp@@MAEHPAUHDC__@@IAAUtagPOINT@@KQAUHBITMAP__@@@Z
_TEXT	SEGMENT
__ctlState$ = -20					; size = 8
__$EHRec$ = -12						; size = 12
_p_hDC$ = 8						; size = 4
_nFlags$ = 12						; size = 4
_point$ = 16						; size = 4
_p_dwMouseActionID$ = 20				; size = 4
_p_hbmpMainOSB$ = 24					; size = 4
?OnMouseMove@CChartDragCandleAnalAddInImp@@MAEHPAUHDC__@@IAAUtagPOINT@@KQAUHBITMAP__@@@Z PROC ; CChartDragCandleAnalAddInImp::OnMouseMove, COMDAT
; _this$ = ecx

; 109  : {

  00000	55		 push	 ebp
  00001	8b ec		 mov	 ebp, esp
  00003	6a ff		 push	 -1
  00005	68 00 00 00 00	 push	 __ehhandler$?OnMouseMove@CChartDragCandleAnalAddInImp@@MAEHPAUHDC__@@IAAUtagPOINT@@KQAUHBITMAP__@@@Z
  0000a	64 a1 00 00 00
	00		 mov	 eax, DWORD PTR fs:0
  00010	50		 push	 eax
  00011	83 ec 08	 sub	 esp, 8
  00014	56		 push	 esi
  00015	a1 00 00 00 00	 mov	 eax, DWORD PTR ___security_cookie
  0001a	33 c5		 xor	 eax, ebp
  0001c	50		 push	 eax
  0001d	8d 45 f4	 lea	 eax, DWORD PTR __$EHRec$[ebp]
  00020	64 a3 00 00 00
	00		 mov	 DWORD PTR fs:0, eax
  00026	8b f1		 mov	 esi, ecx

; 110  : 	AFX_MANAGE_STATE( AfxGetStaticModuleState());

  00028	e8 00 00 00 00	 call	 ?AfxGetStaticModuleState@@YGPAVAFX_MODULE_STATE@@XZ ; AfxGetStaticModuleState
  0002d	50		 push	 eax
  0002e	8d 4d ec	 lea	 ecx, DWORD PTR __ctlState$[ebp]
  00031	e8 00 00 00 00	 call	 ??0AFX_MAINTAIN_STATE2@@QAE@PAVAFX_MODULE_STATE@@@Z ; AFX_MAINTAIN_STATE2::AFX_MAINTAIN_STATE2

; 111  : 	// ( 2006 / 11 / 27 - Sang-Woo, Cho ) 
; 112  : 	if( !m_bRun ) return FALSE;

  00036	83 7e 6c 00	 cmp	 DWORD PTR [esi+108], 0
  0003a	c7 45 fc 00 00
	00 00		 mov	 DWORD PTR __$EHRec$[ebp+8], 0
  00041	74 5d		 je	 SHORT $LN12@OnMouseMov

; 113  : 
; 114  : 	CDC *pDC = CDC::FromHandle( p_hDC);

  00043	ff 75 08	 push	 DWORD PTR _p_hDC$[ebp]
  00046	e8 00 00 00 00	 call	 ?FromHandle@CDC@@SGPAV1@PAUHDC__@@@Z ; CDC::FromHandle

; 115  : 	if( !pDC) return FALSE;

  0004b	85 c0		 test	 eax, eax
  0004d	74 51		 je	 SHORT $LN12@OnMouseMov

; 116  : 
; 117  : 	// (2006/2/6 - Seung-Won, Bae) Manage Mouse Action ID for Serial Action.
; 118  : 	if( !m_pIAddInToolMgr->IsLButtonExclusive( m_pIAddInDllBase))

  0004f	8b 4e 28	 mov	 ecx, DWORD PTR [esi+40]
  00052	ff 76 14	 push	 DWORD PTR [esi+20]
  00055	8b 01		 mov	 eax, DWORD PTR [ecx]
  00057	ff 50 34	 call	 DWORD PTR [eax+52]
  0005a	85 c0		 test	 eax, eax
  0005c	75 23		 jne	 SHORT $LN23@OnMouseMov

; 119  : 	{
; 120  : 		if( p_dwMouseActionID != m_dwMouseActionID) return FALSE;

  0005e	8b 45 14	 mov	 eax, DWORD PTR _p_dwMouseActionID$[ebp]
  00061	3b 46 68	 cmp	 eax, DWORD PTR [esi+104]
  00064	75 3a		 jne	 SHORT $LN12@OnMouseMov

; 121  : 		if( !m_pIAddInToolMgr->GetLButtonExclusive( m_pIAddInDllBase)) return FALSE;

  00066	8b 4e 28	 mov	 ecx, DWORD PTR [esi+40]
  00069	ff 76 14	 push	 DWORD PTR [esi+20]
  0006c	8b 01		 mov	 eax, DWORD PTR [ecx]
  0006e	ff 50 30	 call	 DWORD PTR [eax+48]
  00071	85 c0		 test	 eax, eax
  00073	74 2b		 je	 SHORT $LN12@OnMouseMov

; 122  : 		m_ptCurrDragDrop = m_ptStartDragDrop;

  00075	8b 46 38	 mov	 eax, DWORD PTR [esi+56]
  00078	8b 4e 3c	 mov	 ecx, DWORD PTR [esi+60]
  0007b	89 46 40	 mov	 DWORD PTR [esi+64], eax
  0007e	89 4e 44	 mov	 DWORD PTR [esi+68], ecx
$LN23@OnMouseMov:

; 123  : 	}
; 124  : 
; 125  : 	if( m_ptStartDragDrop == point)	return TRUE;

  00081	8b 45 10	 mov	 eax, DWORD PTR _point$[ebp]
  00084	8b 08		 mov	 ecx, DWORD PTR [eax]
  00086	8b 40 04	 mov	 eax, DWORD PTR [eax+4]
; File C:\Program Files (x86)\Microsoft Visual Studio\2019\Community\VC\Tools\MSVC\14.29.30133\atlmfc\include\atltypes.h

; 458  : 	return (x == point.x && y == point.y);

  00089	39 4e 38	 cmp	 DWORD PTR [esi+56], ecx
  0008c	75 05		 jne	 SHORT $LN7@OnMouseMov
  0008e	39 46 3c	 cmp	 DWORD PTR [esi+60], eax
  00091	74 06		 je	 SHORT $LN25@OnMouseMov
$LN7@OnMouseMov:
; File D:\git\src\IBK\IBK_DRFN\ProjSrc\SrcChartEx\ChartAddIn\ChartPeriodSummaryAddIn\ChartDragCandleAnalAddInImp.cpp

; 128  : 	m_ptCurrDragDrop = point;

  00093	89 4e 40	 mov	 DWORD PTR [esi+64], ecx
  00096	89 46 44	 mov	 DWORD PTR [esi+68], eax
$LN25@OnMouseMov:

; 129  : 	return TRUE;

  00099	be 01 00 00 00	 mov	 esi, 1
  0009e	eb 02		 jmp	 SHORT $LN14@OnMouseMov
$LN12@OnMouseMov:
  000a0	33 f6		 xor	 esi, esi
$LN14@OnMouseMov:
  000a2	8d 4d ec	 lea	 ecx, DWORD PTR __ctlState$[ebp]
  000a5	e8 00 00 00 00	 call	 ??1AFX_MAINTAIN_STATE2@@QAE@XZ ; AFX_MAINTAIN_STATE2::~AFX_MAINTAIN_STATE2
  000aa	8b c6		 mov	 eax, esi

; 130  : }

  000ac	8b 4d f4	 mov	 ecx, DWORD PTR __$EHRec$[ebp]
  000af	64 89 0d 00 00
	00 00		 mov	 DWORD PTR fs:0, ecx
  000b6	59		 pop	 ecx
  000b7	5e		 pop	 esi
  000b8	8b e5		 mov	 esp, ebp
  000ba	5d		 pop	 ebp
  000bb	c2 14 00	 ret	 20			; 00000014H
_TEXT	ENDS
;	COMDAT text$x
text$x	SEGMENT
__unwindfunclet$?OnMouseMove@CChartDragCandleAnalAddInImp@@MAEHPAUHDC__@@IAAUtagPOINT@@KQAUHBITMAP__@@@Z$0:
  00000	8d 4d ec	 lea	 ecx, DWORD PTR __ctlState$[ebp]
  00003	e9 00 00 00 00	 jmp	 ??1AFX_MAINTAIN_STATE2@@QAE@XZ ; AFX_MAINTAIN_STATE2::~AFX_MAINTAIN_STATE2
  00008	cc		 int	 3
  00009	cc		 int	 3
  0000a	cc		 int	 3
  0000b	cc		 int	 3
  0000c	cc		 int	 3
__ehhandler$?OnMouseMove@CChartDragCandleAnalAddInImp@@MAEHPAUHDC__@@IAAUtagPOINT@@KQAUHBITMAP__@@@Z:
  0000d	90		 npad	 1
  0000e	90		 npad	 1
  0000f	8b 54 24 08	 mov	 edx, DWORD PTR [esp+8]
  00013	8d 42 0c	 lea	 eax, DWORD PTR [edx+12]
  00016	8b 4a f0	 mov	 ecx, DWORD PTR [edx-16]
  00019	33 c8		 xor	 ecx, eax
  0001b	e8 00 00 00 00	 call	 @__security_check_cookie@4
  00020	b8 00 00 00 00	 mov	 eax, OFFSET __ehfuncinfo$?OnMouseMove@CChartDragCandleAnalAddInImp@@MAEHPAUHDC__@@IAAUtagPOINT@@KQAUHBITMAP__@@@Z
  00025	e9 00 00 00 00	 jmp	 ___CxxFrameHandler3
text$x	ENDS
?OnMouseMove@CChartDragCandleAnalAddInImp@@MAEHPAUHDC__@@IAAUtagPOINT@@KQAUHBITMAP__@@@Z ENDP ; CChartDragCandleAnalAddInImp::OnMouseMove
; Function compile flags: /Ogtp
; File D:\git\src\IBK\IBK_DRFN\ProjSrc\SrcChartEx\ChartAddIn\ChartPeriodSummaryAddIn\ChartDragCandleAnalAddInImp.cpp
; File C:\Program Files (x86)\Microsoft Visual Studio\2019\Community\VC\Tools\MSVC\14.29.30133\atlmfc\include\atltypes.h
; File D:\git\src\IBK\IBK_DRFN\ProjSrc\SrcChartEx\ChartAddIn\ChartPeriodSummaryAddIn\ChartDragCandleAnalAddInImp.cpp
; File C:\Program Files (x86)\Microsoft Visual Studio\2019\Community\VC\Tools\MSVC\14.29.30133\atlmfc\include\atltypes.h
; File D:\git\src\IBK\IBK_DRFN\ProjSrc\SrcChartEx\ChartAddIn\ChartPeriodSummaryAddIn\ChartDragCandleAnalAddInImp.cpp
; File C:\Program Files (x86)\Microsoft Visual Studio\2019\Community\VC\Tools\MSVC\14.29.30133\atlmfc\include\atltypes.h
; File D:\git\src\IBK\IBK_DRFN\ProjSrc\SrcChartEx\ChartAddIn\ChartPeriodSummaryAddIn\ChartDragCandleAnalAddInImp.cpp
; File C:\Program Files (x86)\Microsoft Visual Studio\2019\Community\VC\Tools\MSVC\14.29.30133\atlmfc\include\atltypes.h
; File D:\git\src\IBK\IBK_DRFN\ProjSrc\SrcChartEx\ChartAddIn\ChartPeriodSummaryAddIn\ChartDragCandleAnalAddInImp.cpp
; File C:\Program Files (x86)\Microsoft Visual Studio\2019\Community\VC\Tools\MSVC\14.29.30133\atlmfc\include\atltypes.h
; File D:\git\src\IBK\IBK_DRFN\ProjSrc\SrcChartEx\ChartAddIn\ChartPeriodSummaryAddIn\ChartDragCandleAnalAddInImp.cpp
; File C:\Program Files (x86)\Microsoft Visual Studio\2019\Community\VC\Tools\MSVC\14.29.30133\atlmfc\include\atltypes.h
; File D:\git\src\IBK\IBK_DRFN\ProjSrc\SrcChartEx\ChartAddIn\ChartPeriodSummaryAddIn\ChartDragCandleAnalAddInImp.cpp
; File C:\Program Files (x86)\Microsoft Visual Studio\2019\Community\VC\Tools\MSVC\14.29.30133\atlmfc\include\atltypes.h
; File D:\git\src\IBK\IBK_DRFN\ProjSrc\SrcChartEx\ChartAddIn\ChartPeriodSummaryAddIn\ChartDragCandleAnalAddInImp.cpp
; File C:\Program Files (x86)\Microsoft Visual Studio\2019\Community\VC\Tools\MSVC\14.29.30133\atlmfc\include\atltypes.h
; File D:\git\src\IBK\IBK_DRFN\ProjSrc\SrcChartEx\ChartAddIn\ChartPeriodSummaryAddIn\ChartDragCandleAnalAddInImp.cpp
; File C:\Program Files (x86)\Microsoft Visual Studio\2019\Community\VC\Tools\MSVC\14.29.30133\atlmfc\include\atltypes.h
; File D:\git\src\IBK\IBK_DRFN\ProjSrc\SrcChartEx\ChartAddIn\ChartPeriodSummaryAddIn\ChartDragCandleAnalAddInImp.cpp
; File C:\Program Files (x86)\Microsoft Visual Studio\2019\Community\VC\Tools\MSVC\14.29.30133\atlmfc\include\atltypes.h
; File D:\git\src\IBK\IBK_DRFN\ProjSrc\SrcChartEx\ChartAddIn\ChartPeriodSummaryAddIn\ChartDragCandleAnalAddInImp.cpp
; File C:\Program Files (x86)\Microsoft Visual Studio\2019\Community\VC\Tools\MSVC\14.29.30133\atlmfc\include\atltypes.h
; File D:\git\src\IBK\IBK_DRFN\ProjSrc\SrcChartEx\ChartAddIn\ChartPeriodSummaryAddIn\ChartDragCandleAnalAddInImp.cpp
; File C:\Program Files (x86)\Microsoft Visual Studio\2019\Community\VC\Tools\MSVC\14.29.30133\atlmfc\include\atltypes.h
; File D:\git\src\IBK\IBK_DRFN\ProjSrc\SrcChartEx\ChartAddIn\ChartPeriodSummaryAddIn\ChartDragCandleAnalAddInImp.cpp
;	COMDAT ?OnDrawAfterGraph@CChartDragCandleAnalAddInImp@@MAEXPAUHDC__@@@Z
_TEXT	SEGMENT
$T2 = -136						; size = 16
__ctlState$ = -120					; size = 8
_nR$ = -112						; size = 4
_nC$ = -108						; size = 4
_pDC$1$ = -104						; size = 4
tv535 = -100						; size = 4
tv534 = -96						; size = 4
_nStartIndex$ = -92					; size = 4
_nEndIndex$ = -88					; size = 4
_this$GSCopy$1$ = -84					; size = 4
_rctBlockRegion$ = -80					; size = 16
_rctGraphRegion$ = -64					; size = 16
_rc$3 = -48						; size = 16
_dCandleWidth$1$ = -40					; size = 8
$T4 = -32						; size = 16
$T5 = -32						; size = 16
$T6 = -32						; size = 16
tv526 = -24						; size = 8
__$ArrayPad$ = -16					; size = 4
__$EHRec$ = -12						; size = 12
_p_hDC$ = 8						; size = 4
?OnDrawAfterGraph@CChartDragCandleAnalAddInImp@@MAEXPAUHDC__@@@Z PROC ; CChartDragCandleAnalAddInImp::OnDrawAfterGraph, COMDAT
; _this$ = ecx

; 239  : {

  00000	55		 push	 ebp
  00001	8b ec		 mov	 ebp, esp
  00003	6a ff		 push	 -1
  00005	68 00 00 00 00	 push	 __ehhandler$?OnDrawAfterGraph@CChartDragCandleAnalAddInImp@@MAEXPAUHDC__@@@Z
  0000a	64 a1 00 00 00
	00		 mov	 eax, DWORD PTR fs:0
  00010	50		 push	 eax
  00011	83 ec 7c	 sub	 esp, 124		; 0000007cH
  00014	a1 00 00 00 00	 mov	 eax, DWORD PTR ___security_cookie
  00019	33 c5		 xor	 eax, ebp
  0001b	89 45 f0	 mov	 DWORD PTR __$ArrayPad$[ebp], eax
  0001e	56		 push	 esi
  0001f	57		 push	 edi
  00020	50		 push	 eax
  00021	8d 45 f4	 lea	 eax, DWORD PTR __$EHRec$[ebp]
  00024	64 a3 00 00 00
	00		 mov	 DWORD PTR fs:0, eax
  0002a	8b f9		 mov	 edi, ecx
  0002c	89 7d ac	 mov	 DWORD PTR _this$GSCopy$1$[ebp], edi
  0002f	8b 75 08	 mov	 esi, DWORD PTR _p_hDC$[ebp]

; 240  : 	AFX_MANAGE_STATE( AfxGetStaticModuleState());

  00032	e8 00 00 00 00	 call	 ?AfxGetStaticModuleState@@YGPAVAFX_MODULE_STATE@@XZ ; AfxGetStaticModuleState
  00037	50		 push	 eax
  00038	8d 4d 88	 lea	 ecx, DWORD PTR __ctlState$[ebp]
  0003b	e8 00 00 00 00	 call	 ??0AFX_MAINTAIN_STATE2@@QAE@PAVAFX_MODULE_STATE@@@Z ; AFX_MAINTAIN_STATE2::AFX_MAINTAIN_STATE2

; 241  : 	CDC *pDC = CDC::FromHandle( p_hDC);

  00040	56		 push	 esi
  00041	c7 45 fc 00 00
	00 00		 mov	 DWORD PTR __$EHRec$[ebp+8], 0
  00048	e8 00 00 00 00	 call	 ?FromHandle@CDC@@SGPAV1@PAUHDC__@@@Z ; CDC::FromHandle

; 242  : 
; 243  : //	if(m_nStartIndex == m_nEndIndex)
; 244  : //		return;
; 245  : 	if(m_nStartIndex == -1 || m_nEndIndex == -1)

  0004d	83 7f 60 ff	 cmp	 DWORD PTR [edi+96], -1
  00051	89 45 98	 mov	 DWORD PTR _pDC$1$[ebp], eax
  00054	0f 84 c7 01 00
	00		 je	 $LN3@OnDrawAfte
  0005a	83 7f 64 ff	 cmp	 DWORD PTR [edi+100], -1
  0005e	0f 84 bd 01 00
	00		 je	 $LN3@OnDrawAfte

; 252  : 	GetChartBasicData( nStartIndex, nEndIndex, nR, nC, rctBlockRegion, rctGraphRegion);

  00064	8d 45 c0	 lea	 eax, DWORD PTR _rctGraphRegion$[ebp]
  00067	c7 45 a4 00 00
	00 00		 mov	 DWORD PTR _nStartIndex$[ebp], 0
  0006e	50		 push	 eax
  0006f	8d 45 b0	 lea	 eax, DWORD PTR _rctBlockRegion$[ebp]
  00072	c7 45 a8 00 00
	00 00		 mov	 DWORD PTR _nEndIndex$[ebp], 0
  00079	50		 push	 eax
  0007a	8d 45 94	 lea	 eax, DWORD PTR _nC$[ebp]
  0007d	0f 57 c0	 xorps	 xmm0, xmm0
  00080	50		 push	 eax
  00081	8d 45 90	 lea	 eax, DWORD PTR _nR$[ebp]
  00084	50		 push	 eax
  00085	8d 45 a8	 lea	 eax, DWORD PTR _nEndIndex$[ebp]
  00088	50		 push	 eax
  00089	8d 77 f8	 lea	 esi, DWORD PTR [edi-8]
  0008c	8d 45 a4	 lea	 eax, DWORD PTR _nStartIndex$[ebp]
  0008f	89 75 9c	 mov	 DWORD PTR tv535[ebp], esi
  00092	50		 push	 eax
  00093	8b ce		 mov	 ecx, esi
; File C:\Program Files (x86)\Microsoft Visual Studio\2019\Community\VC\Tools\MSVC\14.29.30133\atlmfc\include\atltypes.h

; 528  : 	left = 0;

  00095	0f 11 45 b0	 movups	 XMMWORD PTR _rctBlockRegion$[ebp], xmm0
  00099	0f 11 45 c0	 movups	 XMMWORD PTR _rctGraphRegion$[ebp], xmm0
; File D:\git\src\IBK\IBK_DRFN\ProjSrc\SrcChartEx\ChartAddIn\ChartPeriodSummaryAddIn\ChartDragCandleAnalAddInImp.cpp

; 252  : 	GetChartBasicData( nStartIndex, nEndIndex, nR, nC, rctBlockRegion, rctGraphRegion);

  0009d	e8 00 00 00 00	 call	 ?GetChartBasicData@CChartDragCandleAnalAddInImp@@IAEHAAH000AAVCRect@@1@Z ; CChartDragCandleAnalAddInImp::GetChartBasicData
; File C:\Program Files (x86)\Microsoft Visual Studio\2019\Community\VC\Tools\MSVC\14.29.30133\atlmfc\include\atltypes.h

; 576  : 	return right - left;

  000a2	8b 45 c8	 mov	 eax, DWORD PTR _rctGraphRegion$[ebp+8]
; File D:\git\src\IBK\IBK_DRFN\ProjSrc\SrcChartEx\ChartAddIn\ChartPeriodSummaryAddIn\ChartDragCandleAnalAddInImp.cpp

; 257  : 	m_ptStart.x = long( GetXPositoin(m_nStartIndex-nStartIndex, dCandleWidth, rctGraphRegion)-dCandleWidth/2 + 1);

  000a5	83 ec 10	 sub	 esp, 16			; 00000010H
; File C:\Program Files (x86)\Microsoft Visual Studio\2019\Community\VC\Tools\MSVC\14.29.30133\atlmfc\include\atltypes.h

; 576  : 	return right - left;

  000a8	2b 45 c0	 sub	 eax, DWORD PTR _rctGraphRegion$[ebp]
; File D:\git\src\IBK\IBK_DRFN\ProjSrc\SrcChartEx\ChartAddIn\ChartPeriodSummaryAddIn\ChartDragCandleAnalAddInImp.cpp

; 255  : 	double	dCandleWidth = double( rctGraphRegion.Width()) / double( nDataOnePage);	//   

  000ab	8b 7d a4	 mov	 edi, DWORD PTR _nStartIndex$[ebp]

; 257  : 	m_ptStart.x = long( GetXPositoin(m_nStartIndex-nStartIndex, dCandleWidth, rctGraphRegion)-dCandleWidth/2 + 1);

  000ae	8b 4d ac	 mov	 ecx, DWORD PTR _this$GSCopy$1$[ebp]
  000b1	66 0f 6e c8	 movd	 xmm1, eax
  000b5	8b 45 a8	 mov	 eax, DWORD PTR _nEndIndex$[ebp]
  000b8	2b c7		 sub	 eax, edi
  000ba	40		 inc	 eax
  000bb	f3 0f e6 c9	 cvtdq2pd xmm1, xmm1
  000bf	66 0f 6e c0	 movd	 xmm0, eax
  000c3	8b c4		 mov	 eax, esp
  000c5	f3 0f e6 c0	 cvtdq2pd xmm0, xmm0
  000c9	83 ec 10	 sub	 esp, 16			; 00000010H
  000cc	f2 0f 5e c8	 divsd	 xmm1, xmm0
  000d0	0f 28 c1	 movaps	 xmm0, xmm1
  000d3	f2 0f 11 4d d8	 movsd	 QWORD PTR _dCandleWidth$1$[ebp], xmm1
  000d8	f2 0f 59 05 00
	00 00 00	 mulsd	 xmm0, QWORD PTR __real@3fe0000000000000
  000e0	f2 0f 11 45 e8	 movsd	 QWORD PTR tv526[ebp], xmm0
  000e5	0f 10 45 c0	 movups	 xmm0, XMMWORD PTR _rctGraphRegion$[ebp]
  000e9	0f 11 00	 movups	 XMMWORD PTR [eax], xmm0
  000ec	8b 41 60	 mov	 eax, DWORD PTR [ecx+96]
  000ef	8b ce		 mov	 ecx, esi
  000f1	2b c7		 sub	 eax, edi
  000f3	f2 0f 11 4c 24
	08		 movsd	 QWORD PTR [esp+8], xmm1
  000f9	66 0f 6e c0	 movd	 xmm0, eax
  000fd	f3 0f e6 c0	 cvtdq2pd xmm0, xmm0
  00101	f2 0f 11 04 24	 movsd	 QWORD PTR [esp], xmm0
  00106	e8 00 00 00 00	 call	 ?GetXPositoin@CChartDragCandleAnalAddInImp@@IAEHNNVCRect@@@Z ; CChartDragCandleAnalAddInImp::GetXPositoin
  0010b	8b 4d ac	 mov	 ecx, DWORD PTR _this$GSCopy$1$[ebp]

; 258  : 	m_ptEnd.x = long( GetXPositoin(m_nEndIndex-nStartIndex, dCandleWidth, rctGraphRegion)+dCandleWidth/2);

  0010e	83 ec 10	 sub	 esp, 16			; 00000010H
  00111	66 0f 6e c0	 movd	 xmm0, eax
  00115	8d 41 48	 lea	 eax, DWORD PTR [ecx+72]
  00118	f3 0f e6 c0	 cvtdq2pd xmm0, xmm0
  0011c	89 45 a0	 mov	 DWORD PTR tv534[ebp], eax
  0011f	f2 0f 5c 45 e8	 subsd	 xmm0, QWORD PTR tv526[ebp]
  00124	f2 0f 58 05 00
	00 00 00	 addsd	 xmm0, QWORD PTR __real@3ff0000000000000
  0012c	f2 0f 2c f0	 cvttsd2si esi, xmm0
  00130	0f 10 45 c0	 movups	 xmm0, XMMWORD PTR _rctGraphRegion$[ebp]
  00134	89 30		 mov	 DWORD PTR [eax], esi
  00136	8b c4		 mov	 eax, esp
  00138	83 ec 10	 sub	 esp, 16			; 00000010H
  0013b	0f 11 00	 movups	 XMMWORD PTR [eax], xmm0
  0013e	8b 41 64	 mov	 eax, DWORD PTR [ecx+100]
  00141	f2 0f 10 45 d8	 movsd	 xmm0, QWORD PTR _dCandleWidth$1$[ebp]
  00146	2b c7		 sub	 eax, edi
  00148	8b 4d 9c	 mov	 ecx, DWORD PTR tv535[ebp]
  0014b	f2 0f 11 44 24
	08		 movsd	 QWORD PTR [esp+8], xmm0
  00151	66 0f 6e c0	 movd	 xmm0, eax
  00155	f3 0f e6 c0	 cvtdq2pd xmm0, xmm0
  00159	f2 0f 11 04 24	 movsd	 QWORD PTR [esp], xmm0
  0015e	e8 00 00 00 00	 call	 ?GetXPositoin@CChartDragCandleAnalAddInImp@@IAEHNNVCRect@@@Z ; CChartDragCandleAnalAddInImp::GetXPositoin
  00163	8b 4d ac	 mov	 ecx, DWORD PTR _this$GSCopy$1$[ebp]
  00166	66 0f 6e c0	 movd	 xmm0, eax
  0016a	f3 0f e6 c0	 cvtdq2pd xmm0, xmm0
  0016e	f2 0f 58 45 e8	 addsd	 xmm0, QWORD PTR tv526[ebp]
  00173	f2 0f 2c c0	 cvttsd2si eax, xmm0
  00177	89 41 50	 mov	 DWORD PTR [ecx+80], eax

; 259  : 
; 260  : 	if(m_ptStart.x<m_ptEnd.x)

  0017a	3b f0		 cmp	 esi, eax
  0017c	0f 8d 9f 00 00
	00		 jge	 $LN3@OnDrawAfte

; 261  : 	{
; 262  : 		m_ptEnd.x +=1;

  00182	40		 inc	 eax

; 263  : 		CRect rc = m_pIChartOCX->GetOcxRegion();

  00183	8d 55 e0	 lea	 edx, DWORD PTR $T6[ebp]
  00186	89 41 50	 mov	 DWORD PTR [ecx+80], eax
  00189	8b 49 04	 mov	 ecx, DWORD PTR [ecx+4]
  0018c	52		 push	 edx
  0018d	8b 01		 mov	 eax, DWORD PTR [ecx]
  0018f	8b 80 a8 00 00
	00		 mov	 eax, DWORD PTR [eax+168]
  00195	ff d0		 call	 eax
; File C:\Program Files (x86)\Microsoft Visual Studio\2019\Community\VC\Tools\MSVC\14.29.30133\atlmfc\include\atltypes.h

; 548  : 	::CopyRect(this, &srcRect);

  00197	8b 3d 00 00 00
	00		 mov	 edi, DWORD PTR __imp__CopyRect@8
  0019d	50		 push	 eax
  0019e	8d 45 d0	 lea	 eax, DWORD PTR _rc$3[ebp]
  001a1	50		 push	 eax
  001a2	ff d7		 call	 edi

; 611  : 	return CPoint((left+right)/2, (top+bottom)/2);

  001a4	8b 45 d8	 mov	 eax, DWORD PTR _rc$3[ebp+8]
  001a7	03 45 d0	 add	 eax, DWORD PTR _rc$3[ebp]
; File D:\git\src\IBK\IBK_DRFN\ProjSrc\SrcChartEx\ChartAddIn\ChartPeriodSummaryAddIn\ChartDragCandleAnalAddInImp.cpp

; 264  : 		rc = m_pIChartManager->GetGraphRegionSumInColumn(rc.CenterPoint());

  001aa	8b 4d ac	 mov	 ecx, DWORD PTR _this$GSCopy$1$[ebp]
; File C:\Program Files (x86)\Microsoft Visual Studio\2019\Community\VC\Tools\MSVC\14.29.30133\atlmfc\include\atltypes.h

; 611  : 	return CPoint((left+right)/2, (top+bottom)/2);

  001ad	99		 cdq
  001ae	2b c2		 sub	 eax, edx
  001b0	8b 55 d4	 mov	 edx, DWORD PTR _rc$3[ebp+4]
  001b3	8b f0		 mov	 esi, eax
  001b5	8b 45 dc	 mov	 eax, DWORD PTR _rc$3[ebp+12]
; File D:\git\src\IBK\IBK_DRFN\ProjSrc\SrcChartEx\ChartAddIn\ChartPeriodSummaryAddIn\ChartDragCandleAnalAddInImp.cpp

; 264  : 		rc = m_pIChartManager->GetGraphRegionSumInColumn(rc.CenterPoint());

  001b8	8b 49 20	 mov	 ecx, DWORD PTR [ecx+32]
; File C:\Program Files (x86)\Microsoft Visual Studio\2019\Community\VC\Tools\MSVC\14.29.30133\atlmfc\include\atltypes.h

; 611  : 	return CPoint((left+right)/2, (top+bottom)/2);

  001bb	d1 fe		 sar	 esi, 1
  001bd	8d 04 10	 lea	 eax, DWORD PTR [eax+edx]
  001c0	99		 cdq
  001c1	2b c2		 sub	 eax, edx
; File D:\git\src\IBK\IBK_DRFN\ProjSrc\SrcChartEx\ChartAddIn\ChartPeriodSummaryAddIn\ChartDragCandleAnalAddInImp.cpp

; 264  : 		rc = m_pIChartManager->GetGraphRegionSumInColumn(rc.CenterPoint());

  001c3	8b 11		 mov	 edx, DWORD PTR [ecx]
; File C:\Program Files (x86)\Microsoft Visual Studio\2019\Community\VC\Tools\MSVC\14.29.30133\atlmfc\include\atltypes.h

; 611  : 	return CPoint((left+right)/2, (top+bottom)/2);

  001c5	d1 f8		 sar	 eax, 1
; File D:\git\src\IBK\IBK_DRFN\ProjSrc\SrcChartEx\ChartAddIn\ChartPeriodSummaryAddIn\ChartDragCandleAnalAddInImp.cpp

; 264  : 		rc = m_pIChartManager->GetGraphRegionSumInColumn(rc.CenterPoint());

  001c7	50		 push	 eax
  001c8	56		 push	 esi
  001c9	8d 45 e0	 lea	 eax, DWORD PTR $T5[ebp]
  001cc	50		 push	 eax
  001cd	8b 82 88 00 00
	00		 mov	 eax, DWORD PTR [edx+136]
  001d3	ff d0		 call	 eax
; File C:\Program Files (x86)\Microsoft Visual Studio\2019\Community\VC\Tools\MSVC\14.29.30133\atlmfc\include\atltypes.h

; 765  : 	::CopyRect(this, &srcRect);

  001d5	50		 push	 eax
  001d6	8d 45 d0	 lea	 eax, DWORD PTR _rc$3[ebp]
  001d9	50		 push	 eax
  001da	ff d7		 call	 edi
; File D:\git\src\IBK\IBK_DRFN\ProjSrc\SrcChartEx\ChartAddIn\ChartPeriodSummaryAddIn\ChartDragCandleAnalAddInImp.cpp

; 265  : 		m_ptStart.y = rc.top;

  001dc	8b 4d ac	 mov	 ecx, DWORD PTR _this$GSCopy$1$[ebp]
  001df	8b 45 d4	 mov	 eax, DWORD PTR _rc$3[ebp+4]

; 267  : 		DrawFill(pDC, m_ptStart, m_ptEnd, CRect(m_ptStart, m_ptEnd));

  001e2	8d 79 50	 lea	 edi, DWORD PTR [ecx+80]
  001e5	8b 17		 mov	 edx, DWORD PTR [edi]
; File C:\Program Files (x86)\Microsoft Visual Studio\2019\Community\VC\Tools\MSVC\14.29.30133\atlmfc\include\atltypes.h

; 570  : 	right = bottomRight.x;

  001e7	89 55 e8	 mov	 DWORD PTR $T4[ebp+8], edx
; File D:\git\src\IBK\IBK_DRFN\ProjSrc\SrcChartEx\ChartAddIn\ChartPeriodSummaryAddIn\ChartDragCandleAnalAddInImp.cpp

; 265  : 		m_ptStart.y = rc.top;

  001ea	89 41 4c	 mov	 DWORD PTR [ecx+76], eax

; 266  : 		m_ptEnd.y = rc.bottom;

  001ed	8b 45 dc	 mov	 eax, DWORD PTR _rc$3[ebp+12]
  001f0	89 41 54	 mov	 DWORD PTR [ecx+84], eax

; 267  : 		DrawFill(pDC, m_ptStart, m_ptEnd, CRect(m_ptStart, m_ptEnd));

  001f3	8b 4d a0	 mov	 ecx, DWORD PTR tv534[ebp]
  001f6	8b 77 04	 mov	 esi, DWORD PTR [edi+4]
; File C:\Program Files (x86)\Microsoft Visual Studio\2019\Community\VC\Tools\MSVC\14.29.30133\atlmfc\include\atltypes.h

; 571  : 	bottom = bottomRight.y;

  001f9	89 75 ec	 mov	 DWORD PTR $T4[ebp+12], esi
; File D:\git\src\IBK\IBK_DRFN\ProjSrc\SrcChartEx\ChartAddIn\ChartPeriodSummaryAddIn\ChartDragCandleAnalAddInImp.cpp

; 267  : 		DrawFill(pDC, m_ptStart, m_ptEnd, CRect(m_ptStart, m_ptEnd));

  001fc	8b 01		 mov	 eax, DWORD PTR [ecx]
  001fe	8b 49 04	 mov	 ecx, DWORD PTR [ecx+4]
; File C:\Program Files (x86)\Microsoft Visual Studio\2019\Community\VC\Tools\MSVC\14.29.30133\atlmfc\include\atltypes.h

; 568  : 	left = topLeft.x;

  00201	89 45 e0	 mov	 DWORD PTR $T4[ebp], eax
; File D:\git\src\IBK\IBK_DRFN\ProjSrc\SrcChartEx\ChartAddIn\ChartPeriodSummaryAddIn\ChartDragCandleAnalAddInImp.cpp

; 267  : 		DrawFill(pDC, m_ptStart, m_ptEnd, CRect(m_ptStart, m_ptEnd));

  00204	8d 45 e0	 lea	 eax, DWORD PTR $T4[ebp]
  00207	50		 push	 eax
  00208	57		 push	 edi
  00209	ff 75 a0	 push	 DWORD PTR tv534[ebp]
  0020c	8d 85 78 ff ff
	ff		 lea	 eax, DWORD PTR $T2[ebp]
; File C:\Program Files (x86)\Microsoft Visual Studio\2019\Community\VC\Tools\MSVC\14.29.30133\atlmfc\include\atltypes.h

; 569  : 	top = topLeft.y;

  00212	89 4d e4	 mov	 DWORD PTR $T4[ebp+4], ecx
; File D:\git\src\IBK\IBK_DRFN\ProjSrc\SrcChartEx\ChartAddIn\ChartPeriodSummaryAddIn\ChartDragCandleAnalAddInImp.cpp

; 267  : 		DrawFill(pDC, m_ptStart, m_ptEnd, CRect(m_ptStart, m_ptEnd));

  00215	ff 75 98	 push	 DWORD PTR _pDC$1$[ebp]
  00218	8b 4d 9c	 mov	 ecx, DWORD PTR tv535[ebp]
  0021b	50		 push	 eax
  0021c	e8 00 00 00 00	 call	 ?DrawFill@CChartDragCandleAnalAddInImp@@IAE?AVCRect@@PAVCDC@@ABVCPoint@@1ABV2@@Z ; CChartDragCandleAnalAddInImp::DrawFill
$LN3@OnDrawAfte:

; 268  : 	}
; 269  : }

  00221	8d 4d 88	 lea	 ecx, DWORD PTR __ctlState$[ebp]
  00224	e8 00 00 00 00	 call	 ??1AFX_MAINTAIN_STATE2@@QAE@XZ ; AFX_MAINTAIN_STATE2::~AFX_MAINTAIN_STATE2
  00229	8b 4d f4	 mov	 ecx, DWORD PTR __$EHRec$[ebp]
  0022c	64 89 0d 00 00
	00 00		 mov	 DWORD PTR fs:0, ecx
  00233	59		 pop	 ecx
  00234	5f		 pop	 edi
  00235	5e		 pop	 esi
  00236	8b 4d f0	 mov	 ecx, DWORD PTR __$ArrayPad$[ebp]
  00239	33 cd		 xor	 ecx, ebp
  0023b	e8 00 00 00 00	 call	 @__security_check_cookie@4
  00240	8b e5		 mov	 esp, ebp
  00242	5d		 pop	 ebp
  00243	c2 04 00	 ret	 4
_TEXT	ENDS
;	COMDAT text$x
text$x	SEGMENT
__unwindfunclet$?OnDrawAfterGraph@CChartDragCandleAnalAddInImp@@MAEXPAUHDC__@@@Z$0:
  00000	8d 4d 88	 lea	 ecx, DWORD PTR __ctlState$[ebp]
  00003	e9 00 00 00 00	 jmp	 ??1AFX_MAINTAIN_STATE2@@QAE@XZ ; AFX_MAINTAIN_STATE2::~AFX_MAINTAIN_STATE2
  00008	cc		 int	 3
  00009	cc		 int	 3
  0000a	cc		 int	 3
  0000b	cc		 int	 3
  0000c	cc		 int	 3
__ehhandler$?OnDrawAfterGraph@CChartDragCandleAnalAddInImp@@MAEXPAUHDC__@@@Z:
  0000d	90		 npad	 1
  0000e	90		 npad	 1
  0000f	8b 54 24 08	 mov	 edx, DWORD PTR [esp+8]
  00013	8d 42 0c	 lea	 eax, DWORD PTR [edx+12]
  00016	8b 8a 78 ff ff
	ff		 mov	 ecx, DWORD PTR [edx-136]
  0001c	33 c8		 xor	 ecx, eax
  0001e	e8 00 00 00 00	 call	 @__security_check_cookie@4
  00023	8b 4a fc	 mov	 ecx, DWORD PTR [edx-4]
  00026	33 c8		 xor	 ecx, eax
  00028	e8 00 00 00 00	 call	 @__security_check_cookie@4
  0002d	b8 00 00 00 00	 mov	 eax, OFFSET __ehfuncinfo$?OnDrawAfterGraph@CChartDragCandleAnalAddInImp@@MAEXPAUHDC__@@@Z
  00032	e9 00 00 00 00	 jmp	 ___CxxFrameHandler3
text$x	ENDS
?OnDrawAfterGraph@CChartDragCandleAnalAddInImp@@MAEXPAUHDC__@@@Z ENDP ; CChartDragCandleAnalAddInImp::OnDrawAfterGraph
; Function compile flags: /Ogtp
; File D:\git\src\IBK\IBK_DRFN\ProjSrc\SrcChartEx\ChartAddIn\ChartPeriodSummaryAddIn\ChartDragCandleAnalAddInImp.cpp
; File C:\Program Files (x86)\Microsoft Visual Studio\2019\Community\VC\Tools\MSVC\14.29.30133\atlmfc\include\atltypes.h
; File D:\git\src\IBK\IBK_DRFN\ProjSrc\SrcChartEx\ChartAddIn\ChartPeriodSummaryAddIn\ChartDragCandleAnalAddInImp.cpp
; File C:\Program Files (x86)\Microsoft Visual Studio\2019\Community\VC\Tools\MSVC\14.29.30133\atlmfc\include\atltypes.h
; File D:\git\src\IBK\IBK_DRFN\ProjSrc\SrcChartEx\ChartAddIn\ChartPeriodSummaryAddIn\ChartDragCandleAnalAddInImp.cpp
; File C:\Program Files (x86)\Microsoft Visual Studio\2019\Community\VC\Tools\MSVC\14.29.30133\atlmfc\include\atltypes.h
; File D:\git\src\IBK\IBK_DRFN\ProjSrc\SrcChartEx\ChartAddIn\ChartPeriodSummaryAddIn\ChartDragCandleAnalAddInImp.cpp
; File C:\Program Files (x86)\Microsoft Visual Studio\2019\Community\VC\Tools\MSVC\14.29.30133\atlmfc\include\atltypes.h
; File D:\git\src\IBK\IBK_DRFN\ProjSrc\SrcChartEx\ChartAddIn\ChartPeriodSummaryAddIn\ChartDragCandleAnalAddInImp.cpp
; File C:\Program Files (x86)\Microsoft Visual Studio\2019\Community\VC\Tools\MSVC\14.29.30133\atlmfc\include\atltypes.h
; File D:\git\src\IBK\IBK_DRFN\ProjSrc\SrcChartEx\ChartAddIn\ChartPeriodSummaryAddIn\ChartDragCandleAnalAddInImp.cpp
; File C:\Program Files (x86)\Microsoft Visual Studio\2019\Community\VC\Tools\MSVC\14.29.30133\atlmfc\include\atltypes.h
; File D:\git\src\IBK\IBK_DRFN\ProjSrc\SrcChartEx\ChartAddIn\ChartPeriodSummaryAddIn\ChartDragCandleAnalAddInImp.cpp
; File C:\Program Files (x86)\Microsoft Visual Studio\2019\Community\VC\Tools\MSVC\14.29.30133\atlmfc\include\atltypes.h
; File D:\git\src\IBK\IBK_DRFN\ProjSrc\SrcChartEx\ChartAddIn\ChartPeriodSummaryAddIn\ChartDragCandleAnalAddInImp.cpp
; File C:\Program Files (x86)\Microsoft Visual Studio\2019\Community\VC\Tools\MSVC\14.29.30133\atlmfc\include\atltypes.h
; File D:\git\src\IBK\IBK_DRFN\ProjSrc\SrcChartEx\ChartAddIn\ChartPeriodSummaryAddIn\ChartDragCandleAnalAddInImp.cpp
; File C:\Program Files (x86)\Microsoft Visual Studio\2019\Community\VC\Tools\MSVC\14.29.30133\atlmfc\include\atltypes.h
; File D:\git\src\IBK\IBK_DRFN\ProjSrc\SrcChartEx\ChartAddIn\ChartPeriodSummaryAddIn\ChartDragCandleAnalAddInImp.cpp
; File C:\Program Files (x86)\Microsoft Visual Studio\2019\Community\VC\Tools\MSVC\14.29.30133\atlmfc\include\atltypes.h
; File D:\git\src\IBK\IBK_DRFN\ProjSrc\SrcChartEx\ChartAddIn\ChartPeriodSummaryAddIn\ChartDragCandleAnalAddInImp.cpp
; File C:\Program Files (x86)\Microsoft Visual Studio\2019\Community\VC\Tools\MSVC\14.29.30133\atlmfc\include\atltypes.h
; File D:\git\src\IBK\IBK_DRFN\ProjSrc\SrcChartEx\ChartAddIn\ChartPeriodSummaryAddIn\ChartDragCandleAnalAddInImp.cpp
; File C:\Program Files (x86)\Microsoft Visual Studio\2019\Community\VC\Tools\MSVC\14.29.30133\atlmfc\include\atltypes.h
; File D:\git\src\IBK\IBK_DRFN\ProjSrc\SrcChartEx\ChartAddIn\ChartPeriodSummaryAddIn\ChartDragCandleAnalAddInImp.cpp
;	COMDAT ?DrawCursor@CChartDragCandleAnalAddInImp@@MAE?AUtagRECT@@PAUHDC__@@@Z
_TEXT	SEGMENT
__ctlState$ = -112					; size = 8
___$ReturnUdt$GSCopy$1$ = -104				; size = 4
_pDC$1$ = -100						; size = 4
_this$GSCopy$1$ = -96					; size = 4
_ptEnd$4$sroa$647$1$ = -92				; size = 4
tv817 = -88						; size = 4
tv768 = -84						; size = 4
$T8 = -80						; size = 16
$T9 = -64						; size = 16
tv510 = -56						; size = 8
tv764 = -52						; size = 4
_rc$10 = -48						; size = 16
$T11 = -32						; size = 16
$T12 = -32						; size = 16
__$ArrayPad$ = -16					; size = 4
__$EHRec$ = -12						; size = 12
___$ReturnUdt$ = 8					; size = 4
_p_hDC$ = 12						; size = 4
?DrawCursor@CChartDragCandleAnalAddInImp@@MAE?AUtagRECT@@PAUHDC__@@@Z PROC ; CChartDragCandleAnalAddInImp::DrawCursor, COMDAT
; _this$ = ecx

; 102  : {

  00000	55		 push	 ebp
  00001	8b ec		 mov	 ebp, esp
  00003	6a ff		 push	 -1
  00005	68 00 00 00 00	 push	 __ehhandler$?DrawCursor@CChartDragCandleAnalAddInImp@@MAE?AUtagRECT@@PAUHDC__@@@Z
  0000a	64 a1 00 00 00
	00		 mov	 eax, DWORD PTR fs:0
  00010	50		 push	 eax
  00011	83 ec 64	 sub	 esp, 100		; 00000064H
  00014	a1 00 00 00 00	 mov	 eax, DWORD PTR ___security_cookie
  00019	33 c5		 xor	 eax, ebp
  0001b	89 45 f0	 mov	 DWORD PTR __$ArrayPad$[ebp], eax
  0001e	56		 push	 esi
  0001f	57		 push	 edi
  00020	50		 push	 eax
  00021	8d 45 f4	 lea	 eax, DWORD PTR __$EHRec$[ebp]
  00024	64 a3 00 00 00
	00		 mov	 DWORD PTR fs:0, eax
  0002a	89 4d a0	 mov	 DWORD PTR _this$GSCopy$1$[ebp], ecx
  0002d	8b 7d 08	 mov	 edi, DWORD PTR ___$ReturnUdt$[ebp]
  00030	8b 75 0c	 mov	 esi, DWORD PTR _p_hDC$[ebp]
  00033	89 7d 98	 mov	 DWORD PTR ___$ReturnUdt$GSCopy$1$[ebp], edi

; 103  : 	AFX_MANAGE_STATE( AfxGetStaticModuleState());

  00036	e8 00 00 00 00	 call	 ?AfxGetStaticModuleState@@YGPAVAFX_MODULE_STATE@@XZ ; AfxGetStaticModuleState
  0003b	50		 push	 eax
  0003c	8d 4d 90	 lea	 ecx, DWORD PTR __ctlState$[ebp]
  0003f	e8 00 00 00 00	 call	 ??0AFX_MAINTAIN_STATE2@@QAE@PAVAFX_MODULE_STATE@@@Z ; AFX_MAINTAIN_STATE2::AFX_MAINTAIN_STATE2

; 104  : 	CDC *pDC = CDC::FromHandle( p_hDC);

  00044	56		 push	 esi
  00045	c7 45 fc 00 00
	00 00		 mov	 DWORD PTR __$EHRec$[ebp+8], 0
  0004c	e8 00 00 00 00	 call	 ?FromHandle@CDC@@SGPAV1@PAUHDC__@@@Z ; CDC::FromHandle
  00051	89 45 9c	 mov	 DWORD PTR _pDC$1$[ebp], eax
  00054	0f 57 c0	 xorps	 xmm0, xmm0

; 105  : 	return DrawDragRect( pDC, m_ptStartDragDrop, m_ptCurrDragDrop, 4);

  00057	8b 45 a0	 mov	 eax, DWORD PTR _this$GSCopy$1$[ebp]
; File C:\Program Files (x86)\Microsoft Visual Studio\2019\Community\VC\Tools\MSVC\14.29.30133\atlmfc\include\atltypes.h

; 528  : 	left = 0;

  0005a	0f 11 45 e0	 movups	 XMMWORD PTR $T12[ebp], xmm0
; File D:\git\src\IBK\IBK_DRFN\ProjSrc\SrcChartEx\ChartAddIn\ChartPeriodSummaryAddIn\ChartDragCandleAnalAddInImp.cpp

; 105  : 	return DrawDragRect( pDC, m_ptStartDragDrop, m_ptCurrDragDrop, 4);

  0005e	8b 48 40	 mov	 ecx, DWORD PTR [eax+64]
  00061	8b 70 44	 mov	 esi, DWORD PTR [eax+68]
  00064	89 4d a8	 mov	 DWORD PTR tv817[ebp], ecx
  00067	89 4d c8	 mov	 DWORD PTR tv510[ebp], ecx
  0006a	8b 48 38	 mov	 ecx, DWORD PTR [eax+56]
  0006d	8b 40 3c	 mov	 eax, DWORD PTR [eax+60]
  00070	89 45 ac	 mov	 DWORD PTR tv768[ebp], eax
; File C:\Program Files (x86)\Microsoft Visual Studio\2019\Community\VC\Tools\MSVC\14.29.30133\atlmfc\include\atltypes.h

; 669  : 	::SetRectEmpty(this);

  00073	8d 45 e0	 lea	 eax, DWORD PTR $T12[ebp]
  00076	50		 push	 eax
; File D:\git\src\IBK\IBK_DRFN\ProjSrc\SrcChartEx\ChartAddIn\ChartPeriodSummaryAddIn\ChartDragCandleAnalAddInImp.cpp

; 105  : 	return DrawDragRect( pDC, m_ptStartDragDrop, m_ptCurrDragDrop, 4);

  00077	89 75 a4	 mov	 DWORD PTR _ptEnd$4$sroa$647$1$[ebp], esi
  0007a	89 4d cc	 mov	 DWORD PTR tv764[ebp], ecx
; File C:\Program Files (x86)\Microsoft Visual Studio\2019\Community\VC\Tools\MSVC\14.29.30133\atlmfc\include\atltypes.h

; 669  : 	::SetRectEmpty(this);

  0007d	ff 15 00 00 00
	00		 call	 DWORD PTR __imp__SetRectEmpty@4
; File D:\git\src\IBK\IBK_DRFN\ProjSrc\SrcChartEx\ChartAddIn\ChartPeriodSummaryAddIn\ChartDragCandleAnalAddInImp.cpp

; 77   : 	if( ptCurr == CPoint(-1, -1)) return rccurr;

  00083	8b 55 a8	 mov	 edx, DWORD PTR tv817[ebp]
  00086	83 fa ff	 cmp	 edx, -1
; File C:\Program Files (x86)\Microsoft Visual Studio\2019\Community\VC\Tools\MSVC\14.29.30133\atlmfc\include\atltypes.h

; 458  : 	return (x == point.x && y == point.y);

  00089	75 08		 jne	 SHORT $LN15@DrawCursor
  0008b	3b f2		 cmp	 esi, edx
  0008d	0f 84 dd 00 00
	00		 je	 $LN4@DrawCursor
$LN15@DrawCursor:
; File D:\git\src\IBK\IBK_DRFN\ProjSrc\SrcChartEx\ChartAddIn\ChartPeriodSummaryAddIn\ChartDragCandleAnalAddInImp.cpp

; 81   : 	ptStart.x = ptFirst.x < ptCurr.x ? ptFirst.x : ptCurr.x;

  00093	8b 4d cc	 mov	 ecx, DWORD PTR tv764[ebp]
  00096	83 fa ff	 cmp	 edx, -1
  00099	8b c1		 mov	 eax, ecx
  0009b	8b fa		 mov	 edi, edx
  0009d	0f 45 c1	 cmovne	 eax, ecx
  000a0	3b c2		 cmp	 eax, edx
  000a2	8b 45 ac	 mov	 eax, DWORD PTR tv768[ebp]
  000a5	0f 4c f9	 cmovl	 edi, ecx
  000a8	83 fa ff	 cmp	 edx, -1
  000ab	8b ce		 mov	 ecx, esi
; File C:\Program Files (x86)\Microsoft Visual Studio\2019\Community\VC\Tools\MSVC\14.29.30133\atlmfc\include\atltypes.h

; 568  : 	left = topLeft.x;

  000ad	89 7d e0	 mov	 DWORD PTR $T11[ebp], edi
; File D:\git\src\IBK\IBK_DRFN\ProjSrc\SrcChartEx\ChartAddIn\ChartPeriodSummaryAddIn\ChartDragCandleAnalAddInImp.cpp

; 81   : 	ptStart.x = ptFirst.x < ptCurr.x ? ptFirst.x : ptCurr.x;

  000b0	0f 45 c0	 cmovne	 eax, eax
  000b3	0f 45 ce	 cmovne	 ecx, esi
  000b6	3b c1		 cmp	 eax, ecx

; 82   : 	ptStart.y = ptFirst.y < ptCurr.y ? ptFirst.y : ptCurr.y;

  000b8	8b 4d ac	 mov	 ecx, DWORD PTR tv768[ebp]

; 83   : 	ptEnd.x = ptFirst.x > ptCurr.x ? ptFirst.x : ptCurr.x;

  000bb	8b c2		 mov	 eax, edx
  000bd	0f 4c f1	 cmovl	 esi, ecx
  000c0	39 45 cc	 cmp	 DWORD PTR tv764[ebp], eax
; File C:\Program Files (x86)\Microsoft Visual Studio\2019\Community\VC\Tools\MSVC\14.29.30133\atlmfc\include\atltypes.h

; 569  : 	top = topLeft.y;

  000c3	89 75 e4	 mov	 DWORD PTR $T11[ebp+4], esi
; File D:\git\src\IBK\IBK_DRFN\ProjSrc\SrcChartEx\ChartAddIn\ChartPeriodSummaryAddIn\ChartDragCandleAnalAddInImp.cpp

; 83   : 	ptEnd.x = ptFirst.x > ptCurr.x ? ptFirst.x : ptCurr.x;

  000c6	0f 4f 55 cc	 cmovg	 edx, DWORD PTR tv764[ebp]
  000ca	83 f8 ff	 cmp	 eax, -1
  000cd	8b 45 a4	 mov	 eax, DWORD PTR _ptEnd$4$sroa$647$1$[ebp]
  000d0	0f 45 c9	 cmovne	 ecx, ecx
; File C:\Program Files (x86)\Microsoft Visual Studio\2019\Community\VC\Tools\MSVC\14.29.30133\atlmfc\include\atltypes.h

; 570  : 	right = bottomRight.x;

  000d3	89 55 e8	 mov	 DWORD PTR $T11[ebp+8], edx
; File D:\git\src\IBK\IBK_DRFN\ProjSrc\SrcChartEx\ChartAddIn\ChartPeriodSummaryAddIn\ChartDragCandleAnalAddInImp.cpp

; 81   : 	ptStart.x = ptFirst.x < ptCurr.x ? ptFirst.x : ptCurr.x;

  000d6	83 7d a8 ff	 cmp	 DWORD PTR tv817[ebp], -1

; 87   : 	CRect rc = m_pIChartOCX->GetOcxRegion();

  000da	8d 55 c0	 lea	 edx, DWORD PTR $T9[ebp]
  000dd	52		 push	 edx
  000de	0f 45 c0	 cmovne	 eax, eax
  000e1	3b c8		 cmp	 ecx, eax
  000e3	8b 45 a4	 mov	 eax, DWORD PTR _ptEnd$4$sroa$647$1$[ebp]
  000e6	0f 4f 45 ac	 cmovg	 eax, DWORD PTR tv768[ebp]
; File C:\Program Files (x86)\Microsoft Visual Studio\2019\Community\VC\Tools\MSVC\14.29.30133\atlmfc\include\atltypes.h

; 571  : 	bottom = bottomRight.y;

  000ea	89 45 ec	 mov	 DWORD PTR $T11[ebp+12], eax
; File D:\git\src\IBK\IBK_DRFN\ProjSrc\SrcChartEx\ChartAddIn\ChartPeriodSummaryAddIn\ChartDragCandleAnalAddInImp.cpp

; 87   : 	CRect rc = m_pIChartOCX->GetOcxRegion();

  000ed	8b 45 a0	 mov	 eax, DWORD PTR _this$GSCopy$1$[ebp]
  000f0	0f 10 45 e0	 movups	 xmm0, XMMWORD PTR $T11[ebp]
  000f4	8b 48 04	 mov	 ecx, DWORD PTR [eax+4]
  000f7	0f 11 45 e0	 movups	 XMMWORD PTR $T12[ebp], xmm0
  000fb	8b 01		 mov	 eax, DWORD PTR [ecx]
  000fd	8b 80 a8 00 00
	00		 mov	 eax, DWORD PTR [eax+168]
  00103	ff d0		 call	 eax
; File C:\Program Files (x86)\Microsoft Visual Studio\2019\Community\VC\Tools\MSVC\14.29.30133\atlmfc\include\atltypes.h

; 548  : 	::CopyRect(this, &srcRect);

  00105	8b 3d 00 00 00
	00		 mov	 edi, DWORD PTR __imp__CopyRect@8
  0010b	50		 push	 eax
  0010c	8d 45 d0	 lea	 eax, DWORD PTR _rc$10[ebp]
  0010f	50		 push	 eax
  00110	ff d7		 call	 edi

; 611  : 	return CPoint((left+right)/2, (top+bottom)/2);

  00112	8b 45 d8	 mov	 eax, DWORD PTR _rc$10[ebp+8]
  00115	03 45 d0	 add	 eax, DWORD PTR _rc$10[ebp]
; File D:\git\src\IBK\IBK_DRFN\ProjSrc\SrcChartEx\ChartAddIn\ChartPeriodSummaryAddIn\ChartDragCandleAnalAddInImp.cpp

; 88   : 	rc = m_pIChartManager->GetGraphRegionSumInColumn(rc.CenterPoint());

  00118	8b 4d a0	 mov	 ecx, DWORD PTR _this$GSCopy$1$[ebp]
; File C:\Program Files (x86)\Microsoft Visual Studio\2019\Community\VC\Tools\MSVC\14.29.30133\atlmfc\include\atltypes.h

; 611  : 	return CPoint((left+right)/2, (top+bottom)/2);

  0011b	99		 cdq
  0011c	2b c2		 sub	 eax, edx
  0011e	8b f0		 mov	 esi, eax
  00120	8b 45 dc	 mov	 eax, DWORD PTR _rc$10[ebp+12]
  00123	03 45 d4	 add	 eax, DWORD PTR _rc$10[ebp+4]
; File D:\git\src\IBK\IBK_DRFN\ProjSrc\SrcChartEx\ChartAddIn\ChartPeriodSummaryAddIn\ChartDragCandleAnalAddInImp.cpp

; 88   : 	rc = m_pIChartManager->GetGraphRegionSumInColumn(rc.CenterPoint());

  00126	8b 49 20	 mov	 ecx, DWORD PTR [ecx+32]
; File C:\Program Files (x86)\Microsoft Visual Studio\2019\Community\VC\Tools\MSVC\14.29.30133\atlmfc\include\atltypes.h

; 611  : 	return CPoint((left+right)/2, (top+bottom)/2);

  00129	99		 cdq
  0012a	2b c2		 sub	 eax, edx
  0012c	d1 fe		 sar	 esi, 1
  0012e	d1 f8		 sar	 eax, 1
; File D:\git\src\IBK\IBK_DRFN\ProjSrc\SrcChartEx\ChartAddIn\ChartPeriodSummaryAddIn\ChartDragCandleAnalAddInImp.cpp

; 88   : 	rc = m_pIChartManager->GetGraphRegionSumInColumn(rc.CenterPoint());

  00130	8b 11		 mov	 edx, DWORD PTR [ecx]
  00132	50		 push	 eax
  00133	56		 push	 esi
  00134	8d 45 b0	 lea	 eax, DWORD PTR $T8[ebp]
  00137	50		 push	 eax
  00138	8b 82 88 00 00
	00		 mov	 eax, DWORD PTR [edx+136]
  0013e	ff d0		 call	 eax
; File C:\Program Files (x86)\Microsoft Visual Studio\2019\Community\VC\Tools\MSVC\14.29.30133\atlmfc\include\atltypes.h

; 765  : 	::CopyRect(this, &srcRect);

  00140	50		 push	 eax
  00141	8d 45 d0	 lea	 eax, DWORD PTR _rc$10[ebp]
  00144	50		 push	 eax
  00145	ff d7		 call	 edi
; File D:\git\src\IBK\IBK_DRFN\ProjSrc\SrcChartEx\ChartAddIn\ChartPeriodSummaryAddIn\ChartDragCandleAnalAddInImp.cpp

; 89   : 	rccurr.top = rc.top;

  00147	8b 45 d4	 mov	 eax, DWORD PTR _rc$10[ebp+4]

; 90   : 	rccurr.bottom = rc.bottom;
; 91   : 
; 92   : 	SIZE size;
; 93   : 	size.cx = nWeight; size.cy = nWeight;
; 94   : 
; 95   : 	pdc->DrawDragRect(rccurr, size, NULL, size);

  0014a	6a 00		 push	 0
  0014c	6a 00		 push	 0
  0014e	6a 04		 push	 4
  00150	6a 04		 push	 4
  00152	6a 00		 push	 0
  00154	89 45 e4	 mov	 DWORD PTR $T12[ebp+4], eax
  00157	8b 45 dc	 mov	 eax, DWORD PTR _rc$10[ebp+12]
  0015a	6a 04		 push	 4
  0015c	89 45 ec	 mov	 DWORD PTR $T12[ebp+12], eax
  0015f	8d 45 e0	 lea	 eax, DWORD PTR $T12[ebp]
  00162	6a 04		 push	 4
  00164	50		 push	 eax
  00165	8b 4d 9c	 mov	 ecx, DWORD PTR _pDC$1$[ebp]
  00168	e8 00 00 00 00	 call	 ?DrawDragRect@CDC@@QAEXPBUtagRECT@@UtagSIZE@@01PAVCBrush@@2@Z ; CDC::DrawDragRect
  0016d	8b 7d 98	 mov	 edi, DWORD PTR ___$ReturnUdt$GSCopy$1$[ebp]
$LN4@DrawCursor:

; 105  : 	return DrawDragRect( pDC, m_ptStartDragDrop, m_ptCurrDragDrop, 4);

  00170	0f 10 45 e0	 movups	 xmm0, XMMWORD PTR $T12[ebp]
  00174	8d 4d 90	 lea	 ecx, DWORD PTR __ctlState$[ebp]
  00177	0f 11 07	 movups	 XMMWORD PTR [edi], xmm0
  0017a	e8 00 00 00 00	 call	 ??1AFX_MAINTAIN_STATE2@@QAE@XZ ; AFX_MAINTAIN_STATE2::~AFX_MAINTAIN_STATE2
  0017f	8b c7		 mov	 eax, edi

; 106  : }

  00181	8b 4d f4	 mov	 ecx, DWORD PTR __$EHRec$[ebp]
  00184	64 89 0d 00 00
	00 00		 mov	 DWORD PTR fs:0, ecx
  0018b	59		 pop	 ecx
  0018c	5f		 pop	 edi
  0018d	5e		 pop	 esi
  0018e	8b 4d f0	 mov	 ecx, DWORD PTR __$ArrayPad$[ebp]
  00191	33 cd		 xor	 ecx, ebp
  00193	e8 00 00 00 00	 call	 @__security_check_cookie@4
  00198	8b e5		 mov	 esp, ebp
  0019a	5d		 pop	 ebp
  0019b	c2 08 00	 ret	 8
_TEXT	ENDS
;	COMDAT text$x
text$x	SEGMENT
__unwindfunclet$?DrawCursor@CChartDragCandleAnalAddInImp@@MAE?AUtagRECT@@PAUHDC__@@@Z$0:
  00000	8d 4d 90	 lea	 ecx, DWORD PTR __ctlState$[ebp]
  00003	e9 00 00 00 00	 jmp	 ??1AFX_MAINTAIN_STATE2@@QAE@XZ ; AFX_MAINTAIN_STATE2::~AFX_MAINTAIN_STATE2
  00008	cc		 int	 3
  00009	cc		 int	 3
  0000a	cc		 int	 3
  0000b	cc		 int	 3
  0000c	cc		 int	 3
__ehhandler$?DrawCursor@CChartDragCandleAnalAddInImp@@MAE?AUtagRECT@@PAUHDC__@@@Z:
  0000d	90		 npad	 1
  0000e	90		 npad	 1
  0000f	8b 54 24 08	 mov	 edx, DWORD PTR [esp+8]
  00013	8d 42 0c	 lea	 eax, DWORD PTR [edx+12]
  00016	8b 4a 90	 mov	 ecx, DWORD PTR [edx-112]
  00019	33 c8		 xor	 ecx, eax
  0001b	e8 00 00 00 00	 call	 @__security_check_cookie@4
  00020	8b 4a fc	 mov	 ecx, DWORD PTR [edx-4]
  00023	33 c8		 xor	 ecx, eax
  00025	e8 00 00 00 00	 call	 @__security_check_cookie@4
  0002a	b8 00 00 00 00	 mov	 eax, OFFSET __ehfuncinfo$?DrawCursor@CChartDragCandleAnalAddInImp@@MAE?AUtagRECT@@PAUHDC__@@@Z
  0002f	e9 00 00 00 00	 jmp	 ___CxxFrameHandler3
text$x	ENDS
?DrawCursor@CChartDragCandleAnalAddInImp@@MAE?AUtagRECT@@PAUHDC__@@@Z ENDP ; CChartDragCandleAnalAddInImp::DrawCursor
; Function compile flags: /Ogtp
; File D:\git\src\IBK\IBK_DRFN\ProjSrc\SrcChartEx\ChartAddIn\ChartPeriodSummaryAddIn\ChartDragCandleAnalAddInImp.cpp
; File C:\Program Files (x86)\Microsoft Visual Studio\2019\Community\VC\Tools\MSVC\14.29.30133\atlmfc\include\atltypes.h
; File D:\git\src\IBK\IBK_DRFN\ProjSrc\SrcChartEx\ChartAddIn\ChartPeriodSummaryAddIn\ChartDragCandleAnalAddInImp.cpp
; File C:\Program Files (x86)\Microsoft Visual Studio\2019\Community\VC\Tools\MSVC\14.29.30133\atlmfc\include\atltypes.h
; File D:\git\src\IBK\IBK_DRFN\ProjSrc\SrcChartEx\ChartAddIn\ChartPeriodSummaryAddIn\ChartDragCandleAnalAddInImp.cpp
; File C:\Program Files (x86)\Microsoft Visual Studio\2019\Community\VC\Tools\MSVC\14.29.30133\atlmfc\include\atltypes.h
; File D:\git\src\IBK\IBK_DRFN\ProjSrc\SrcChartEx\ChartAddIn\ChartPeriodSummaryAddIn\ChartDragCandleAnalAddInImp.cpp
; File C:\Program Files (x86)\Microsoft Visual Studio\2019\Community\VC\Tools\MSVC\14.29.30133\atlmfc\include\atltypes.h
; File D:\git\src\IBK\IBK_DRFN\ProjSrc\SrcChartEx\ChartAddIn\ChartPeriodSummaryAddIn\ChartDragCandleAnalAddInImp.cpp
; File C:\Program Files (x86)\Microsoft Visual Studio\2019\Community\VC\Tools\MSVC\14.29.30133\atlmfc\include\atltypes.h
; File D:\git\src\IBK\IBK_DRFN\ProjSrc\SrcChartEx\ChartAddIn\ChartPeriodSummaryAddIn\ChartDragCandleAnalAddInImp.cpp
; File C:\Program Files (x86)\Microsoft Visual Studio\2019\Community\VC\Tools\MSVC\14.29.30133\atlmfc\include\atltypes.h
; File D:\git\src\IBK\IBK_DRFN\ProjSrc\SrcChartEx\ChartAddIn\ChartPeriodSummaryAddIn\ChartDragCandleAnalAddInImp.cpp
; File C:\Program Files (x86)\Microsoft Visual Studio\2019\Community\VC\Tools\MSVC\14.29.30133\atlmfc\include\atltypes.h
; File D:\git\src\IBK\IBK_DRFN\ProjSrc\SrcChartEx\ChartAddIn\ChartPeriodSummaryAddIn\ChartDragCandleAnalAddInImp.cpp
; File C:\Program Files (x86)\Microsoft Visual Studio\2019\Community\VC\Tools\MSVC\14.29.30133\atlmfc\include\atltypes.h
; File D:\git\src\IBK\IBK_DRFN\ProjSrc\SrcChartEx\ChartAddIn\ChartPeriodSummaryAddIn\ChartDragCandleAnalAddInImp.cpp
; File C:\Program Files (x86)\Microsoft Visual Studio\2019\Community\VC\Tools\MSVC\14.29.30133\atlmfc\include\atltypes.h
; File D:\git\src\IBK\IBK_DRFN\ProjSrc\SrcChartEx\ChartAddIn\ChartPeriodSummaryAddIn\ChartDragCandleAnalAddInImp.cpp
; File C:\Program Files (x86)\Microsoft Visual Studio\2019\Community\VC\Tools\MSVC\14.29.30133\atlmfc\include\atltypes.h
; File D:\git\src\IBK\IBK_DRFN\ProjSrc\SrcChartEx\ChartAddIn\ChartPeriodSummaryAddIn\ChartDragCandleAnalAddInImp.cpp
; File C:\Program Files (x86)\Microsoft Visual Studio\2019\Community\VC\Tools\MSVC\14.29.30133\atlmfc\include\atltypes.h
; File D:\git\src\IBK\IBK_DRFN\ProjSrc\SrcChartEx\ChartAddIn\ChartPeriodSummaryAddIn\ChartDragCandleAnalAddInImp.cpp
;	COMDAT ?DrawDragRect@CChartDragCandleAnalAddInImp@@IAE?AVCRect@@PAVCDC@@VCPoint@@1H@Z
_TEXT	SEGMENT
_pdc$GSCopy$1$ = -48					; size = 4
_this$GSCopy$1$ = -40					; size = 4
$T5 = -36						; size = 16
$T6 = -36						; size = 16
$T7 = -36						; size = 16
_rc$ = -20						; size = 16
__$ArrayPad$ = -4					; size = 4
___$ReturnUdt$ = 8					; size = 4
_pdc$ = 12						; size = 4
_ptFirst$ = 16						; size = 8
_ptCurr$ = 24						; size = 8
_nWeight$ = 32						; size = 4
?DrawDragRect@CChartDragCandleAnalAddInImp@@IAE?AVCRect@@PAVCDC@@VCPoint@@1H@Z PROC ; CChartDragCandleAnalAddInImp::DrawDragRect, COMDAT
; _this$ = ecx

; 74   : {

  00000	55		 push	 ebp
  00001	8b ec		 mov	 ebp, esp
  00003	83 ec 30	 sub	 esp, 48			; 00000030H
  00006	a1 00 00 00 00	 mov	 eax, DWORD PTR ___security_cookie
  0000b	33 c5		 xor	 eax, ebp
  0000d	89 45 fc	 mov	 DWORD PTR __$ArrayPad$[ebp], eax
  00010	8b 45 0c	 mov	 eax, DWORD PTR _pdc$[ebp]
  00013	53		 push	 ebx
  00014	8b 5d 08	 mov	 ebx, DWORD PTR ___$ReturnUdt$[ebp]
  00017	57		 push	 edi
; File C:\Program Files (x86)\Microsoft Visual Studio\2019\Community\VC\Tools\MSVC\14.29.30133\atlmfc\include\atltypes.h

; 669  : 	::SetRectEmpty(this);

  00018	53		 push	 ebx
; File D:\git\src\IBK\IBK_DRFN\ProjSrc\SrcChartEx\ChartAddIn\ChartPeriodSummaryAddIn\ChartDragCandleAnalAddInImp.cpp

; 74   : {

  00019	89 4d d8	 mov	 DWORD PTR _this$GSCopy$1$[ebp], ecx
  0001c	89 45 d0	 mov	 DWORD PTR _pdc$GSCopy$1$[ebp], eax
; File C:\Program Files (x86)\Microsoft Visual Studio\2019\Community\VC\Tools\MSVC\14.29.30133\atlmfc\include\atltypes.h

; 528  : 	left = 0;

  0001f	c7 03 00 00 00
	00		 mov	 DWORD PTR [ebx], 0

; 529  : 	top = 0;

  00025	c7 43 04 00 00
	00 00		 mov	 DWORD PTR [ebx+4], 0

; 530  : 	right = 0;

  0002c	c7 43 08 00 00
	00 00		 mov	 DWORD PTR [ebx+8], 0

; 531  : 	bottom = 0;

  00033	c7 43 0c 00 00
	00 00		 mov	 DWORD PTR [ebx+12], 0

; 669  : 	::SetRectEmpty(this);

  0003a	ff 15 00 00 00
	00		 call	 DWORD PTR __imp__SetRectEmpty@4

; 458  : 	return (x == point.x && y == point.y);

  00040	8b 45 18	 mov	 eax, DWORD PTR _ptCurr$[ebp]
  00043	8b 7d 1c	 mov	 edi, DWORD PTR _ptCurr$[ebp+4]
  00046	83 f8 ff	 cmp	 eax, -1
  00049	75 09		 jne	 SHORT $LN2@DrawDragRe
  0004b	83 ff ff	 cmp	 edi, -1
  0004e	0f 84 af 00 00
	00		 je	 $LN29@DrawDragRe
$LN2@DrawDragRe:
; File D:\git\src\IBK\IBK_DRFN\ProjSrc\SrcChartEx\ChartAddIn\ChartPeriodSummaryAddIn\ChartDragCandleAnalAddInImp.cpp

; 81   : 	ptStart.x = ptFirst.x < ptCurr.x ? ptFirst.x : ptCurr.x;

  00054	8b 4d 10	 mov	 ecx, DWORD PTR _ptFirst$[ebp]

; 82   : 	ptStart.y = ptFirst.y < ptCurr.y ? ptFirst.y : ptCurr.y;

  00057	8b d7		 mov	 edx, edi
  00059	3b c8		 cmp	 ecx, eax
  0005b	56		 push	 esi
  0005c	8b f0		 mov	 esi, eax

; 83   : 	ptEnd.x = ptFirst.x > ptCurr.x ? ptFirst.x : ptCurr.x;

  0005e	8b 45 18	 mov	 eax, DWORD PTR _ptCurr$[ebp]
  00061	0f 4c f1	 cmovl	 esi, ecx
  00064	39 7d 14	 cmp	 DWORD PTR _ptFirst$[ebp+4], edi
; File C:\Program Files (x86)\Microsoft Visual Studio\2019\Community\VC\Tools\MSVC\14.29.30133\atlmfc\include\atltypes.h

; 568  : 	left = topLeft.x;

  00067	89 75 dc	 mov	 DWORD PTR $T7[ebp], esi
; File D:\git\src\IBK\IBK_DRFN\ProjSrc\SrcChartEx\ChartAddIn\ChartPeriodSummaryAddIn\ChartDragCandleAnalAddInImp.cpp

; 82   : 	ptStart.y = ptFirst.y < ptCurr.y ? ptFirst.y : ptCurr.y;

  0006a	0f 4c 55 14	 cmovl	 edx, DWORD PTR _ptFirst$[ebp+4]

; 83   : 	ptEnd.x = ptFirst.x > ptCurr.x ? ptFirst.x : ptCurr.x;

  0006e	3b 4d 18	 cmp	 ecx, DWORD PTR _ptCurr$[ebp]
; File C:\Program Files (x86)\Microsoft Visual Studio\2019\Community\VC\Tools\MSVC\14.29.30133\atlmfc\include\atltypes.h

; 569  : 	top = topLeft.y;

  00071	89 55 e0	 mov	 DWORD PTR $T7[ebp+4], edx
; File D:\git\src\IBK\IBK_DRFN\ProjSrc\SrcChartEx\ChartAddIn\ChartPeriodSummaryAddIn\ChartDragCandleAnalAddInImp.cpp

; 87   : 	CRect rc = m_pIChartOCX->GetOcxRegion();

  00074	8d 55 dc	 lea	 edx, DWORD PTR $T6[ebp]
  00077	0f 4f c1	 cmovg	 eax, ecx
  0007a	39 7d 14	 cmp	 DWORD PTR _ptFirst$[ebp+4], edi
; File C:\Program Files (x86)\Microsoft Visual Studio\2019\Community\VC\Tools\MSVC\14.29.30133\atlmfc\include\atltypes.h

; 570  : 	right = bottomRight.x;

  0007d	89 45 e4	 mov	 DWORD PTR $T7[ebp+8], eax
; File D:\git\src\IBK\IBK_DRFN\ProjSrc\SrcChartEx\ChartAddIn\ChartPeriodSummaryAddIn\ChartDragCandleAnalAddInImp.cpp

; 84   : 	ptEnd.y = ptFirst.y > ptCurr.y ? ptFirst.y : ptCurr.y;

  00080	0f 4f 7d 14	 cmovg	 edi, DWORD PTR _ptFirst$[ebp+4]

; 87   : 	CRect rc = m_pIChartOCX->GetOcxRegion();

  00084	8b 45 d8	 mov	 eax, DWORD PTR _this$GSCopy$1$[ebp]
; File C:\Program Files (x86)\Microsoft Visual Studio\2019\Community\VC\Tools\MSVC\14.29.30133\atlmfc\include\atltypes.h

; 571  : 	bottom = bottomRight.y;

  00087	89 7d e8	 mov	 DWORD PTR $T7[ebp+12], edi
; File D:\git\src\IBK\IBK_DRFN\ProjSrc\SrcChartEx\ChartAddIn\ChartPeriodSummaryAddIn\ChartDragCandleAnalAddInImp.cpp

; 86   : 	rccurr = CRect(ptStart, ptEnd);

  0008a	0f 10 45 dc	 movups	 xmm0, XMMWORD PTR $T7[ebp]

; 87   : 	CRect rc = m_pIChartOCX->GetOcxRegion();

  0008e	52		 push	 edx
  0008f	0f 11 03	 movups	 XMMWORD PTR [ebx], xmm0
  00092	8b 48 0c	 mov	 ecx, DWORD PTR [eax+12]
  00095	8b 01		 mov	 eax, DWORD PTR [ecx]
  00097	ff 90 a8 00 00
	00		 call	 DWORD PTR [eax+168]
; File C:\Program Files (x86)\Microsoft Visual Studio\2019\Community\VC\Tools\MSVC\14.29.30133\atlmfc\include\atltypes.h

; 548  : 	::CopyRect(this, &srcRect);

  0009d	8b 3d 00 00 00
	00		 mov	 edi, DWORD PTR __imp__CopyRect@8
  000a3	50		 push	 eax
  000a4	8d 45 ec	 lea	 eax, DWORD PTR _rc$[ebp]
  000a7	50		 push	 eax
  000a8	ff d7		 call	 edi

; 611  : 	return CPoint((left+right)/2, (top+bottom)/2);

  000aa	8b 45 f4	 mov	 eax, DWORD PTR _rc$[ebp+8]
  000ad	03 45 ec	 add	 eax, DWORD PTR _rc$[ebp]
; File D:\git\src\IBK\IBK_DRFN\ProjSrc\SrcChartEx\ChartAddIn\ChartPeriodSummaryAddIn\ChartDragCandleAnalAddInImp.cpp

; 88   : 	rc = m_pIChartManager->GetGraphRegionSumInColumn(rc.CenterPoint());

  000b0	8b 4d d8	 mov	 ecx, DWORD PTR _this$GSCopy$1$[ebp]
; File C:\Program Files (x86)\Microsoft Visual Studio\2019\Community\VC\Tools\MSVC\14.29.30133\atlmfc\include\atltypes.h

; 611  : 	return CPoint((left+right)/2, (top+bottom)/2);

  000b3	99		 cdq
  000b4	2b c2		 sub	 eax, edx
  000b6	8b 55 f0	 mov	 edx, DWORD PTR _rc$[ebp+4]
  000b9	8b f0		 mov	 esi, eax
  000bb	8b 45 f8	 mov	 eax, DWORD PTR _rc$[ebp+12]
; File D:\git\src\IBK\IBK_DRFN\ProjSrc\SrcChartEx\ChartAddIn\ChartPeriodSummaryAddIn\ChartDragCandleAnalAddInImp.cpp

; 88   : 	rc = m_pIChartManager->GetGraphRegionSumInColumn(rc.CenterPoint());

  000be	8b 49 28	 mov	 ecx, DWORD PTR [ecx+40]
; File C:\Program Files (x86)\Microsoft Visual Studio\2019\Community\VC\Tools\MSVC\14.29.30133\atlmfc\include\atltypes.h

; 611  : 	return CPoint((left+right)/2, (top+bottom)/2);

  000c1	d1 fe		 sar	 esi, 1
  000c3	8d 04 10	 lea	 eax, DWORD PTR [eax+edx]
  000c6	99		 cdq
  000c7	2b c2		 sub	 eax, edx
; File D:\git\src\IBK\IBK_DRFN\ProjSrc\SrcChartEx\ChartAddIn\ChartPeriodSummaryAddIn\ChartDragCandleAnalAddInImp.cpp

; 88   : 	rc = m_pIChartManager->GetGraphRegionSumInColumn(rc.CenterPoint());

  000c9	8b 11		 mov	 edx, DWORD PTR [ecx]
; File C:\Program Files (x86)\Microsoft Visual Studio\2019\Community\VC\Tools\MSVC\14.29.30133\atlmfc\include\atltypes.h

; 611  : 	return CPoint((left+right)/2, (top+bottom)/2);

  000cb	d1 f8		 sar	 eax, 1
; File D:\git\src\IBK\IBK_DRFN\ProjSrc\SrcChartEx\ChartAddIn\ChartPeriodSummaryAddIn\ChartDragCandleAnalAddInImp.cpp

; 88   : 	rc = m_pIChartManager->GetGraphRegionSumInColumn(rc.CenterPoint());

  000cd	50		 push	 eax
  000ce	56		 push	 esi
  000cf	8d 45 dc	 lea	 eax, DWORD PTR $T5[ebp]
  000d2	50		 push	 eax
  000d3	ff 92 88 00 00
	00		 call	 DWORD PTR [edx+136]
; File C:\Program Files (x86)\Microsoft Visual Studio\2019\Community\VC\Tools\MSVC\14.29.30133\atlmfc\include\atltypes.h

; 765  : 	::CopyRect(this, &srcRect);

  000d9	50		 push	 eax
  000da	8d 45 ec	 lea	 eax, DWORD PTR _rc$[ebp]
  000dd	50		 push	 eax
  000de	ff d7		 call	 edi
; File D:\git\src\IBK\IBK_DRFN\ProjSrc\SrcChartEx\ChartAddIn\ChartPeriodSummaryAddIn\ChartDragCandleAnalAddInImp.cpp

; 89   : 	rccurr.top = rc.top;

  000e0	8b 45 f0	 mov	 eax, DWORD PTR _rc$[ebp+4]

; 90   : 	rccurr.bottom = rc.bottom;
; 91   : 
; 92   : 	SIZE size;
; 93   : 	size.cx = nWeight; size.cy = nWeight;
; 94   : 
; 95   : 	pdc->DrawDragRect(rccurr, size, NULL, size);

  000e3	8b 4d d0	 mov	 ecx, DWORD PTR _pdc$GSCopy$1$[ebp]
  000e6	6a 00		 push	 0
  000e8	6a 00		 push	 0
  000ea	89 43 04	 mov	 DWORD PTR [ebx+4], eax
  000ed	8b 45 f8	 mov	 eax, DWORD PTR _rc$[ebp+12]
  000f0	89 43 0c	 mov	 DWORD PTR [ebx+12], eax
  000f3	8b 45 20	 mov	 eax, DWORD PTR _nWeight$[ebp]
  000f6	50		 push	 eax
  000f7	50		 push	 eax
  000f8	6a 00		 push	 0
  000fa	50		 push	 eax
  000fb	50		 push	 eax
  000fc	53		 push	 ebx
  000fd	e8 00 00 00 00	 call	 ?DrawDragRect@CDC@@QAEXPBUtagRECT@@UtagSIZE@@01PAVCBrush@@2@Z ; CDC::DrawDragRect

; 96   : 	
; 97   : 	return rccurr;

  00102	5e		 pop	 esi
$LN29@DrawDragRe:

; 98   : }

  00103	8b 4d fc	 mov	 ecx, DWORD PTR __$ArrayPad$[ebp]
  00106	8b c3		 mov	 eax, ebx
  00108	5f		 pop	 edi
  00109	33 cd		 xor	 ecx, ebp
  0010b	5b		 pop	 ebx
  0010c	e8 00 00 00 00	 call	 @__security_check_cookie@4
  00111	8b e5		 mov	 esp, ebp
  00113	5d		 pop	 ebp
  00114	c2 1c 00	 ret	 28			; 0000001cH
?DrawDragRect@CChartDragCandleAnalAddInImp@@IAE?AVCRect@@PAVCDC@@VCPoint@@1H@Z ENDP ; CChartDragCandleAnalAddInImp::DrawDragRect
_TEXT	ENDS
; Function compile flags: /Ogtp
; File D:\git\src\IBK\IBK_DRFN\ProjSrc\SrcChartEx\ChartAddIn\ChartPeriodSummaryAddIn\ChartDragCandleAnalAddInImp.cpp
;	COMDAT ?InvokeAddInStr@CChartDragCandleAnalAddInImp@@UAEHPBD0@Z
_TEXT	SEGMENT
__ctlState$ = -40					; size = 8
_nStartIndex$2 = -28					; size = 4
_nEndIndex$3 = -24					; size = 4
_iStart$4 = -20						; size = 4
_strStartDate$5 = -16					; size = 4
__$EHRec$ = -12						; size = 12
_strData$6 = 8						; size = 4
_p_szCommandName$ = 8					; size = 4
_strEndDate$7 = 12					; size = 4
_p_szData$ = 12						; size = 4
?InvokeAddInStr@CChartDragCandleAnalAddInImp@@UAEHPBD0@Z PROC ; CChartDragCandleAnalAddInImp::InvokeAddInStr, COMDAT
; _this$ = ecx

; 514  : {

  00000	55		 push	 ebp
  00001	8b ec		 mov	 ebp, esp
  00003	6a ff		 push	 -1
  00005	68 00 00 00 00	 push	 __ehhandler$?InvokeAddInStr@CChartDragCandleAnalAddInImp@@UAEHPBD0@Z
  0000a	64 a1 00 00 00
	00		 mov	 eax, DWORD PTR fs:0
  00010	50		 push	 eax
  00011	83 ec 1c	 sub	 esp, 28			; 0000001cH
  00014	56		 push	 esi
  00015	57		 push	 edi
  00016	a1 00 00 00 00	 mov	 eax, DWORD PTR ___security_cookie
  0001b	33 c5		 xor	 eax, ebp
  0001d	50		 push	 eax
  0001e	8d 45 f4	 lea	 eax, DWORD PTR __$EHRec$[ebp]
  00021	64 a3 00 00 00
	00		 mov	 DWORD PTR fs:0, eax
  00027	8b f1		 mov	 esi, ecx

; 515  : 	AFX_MANAGE_STATE( AfxGetStaticModuleState());

  00029	e8 00 00 00 00	 call	 ?AfxGetStaticModuleState@@YGPAVAFX_MODULE_STATE@@XZ ; AfxGetStaticModuleState
  0002e	50		 push	 eax
  0002f	8d 4d d8	 lea	 ecx, DWORD PTR __ctlState$[ebp]
  00032	e8 00 00 00 00	 call	 ??0AFX_MAINTAIN_STATE2@@QAE@PAVAFX_MODULE_STATE@@@Z ; AFX_MAINTAIN_STATE2::AFX_MAINTAIN_STATE2

; 516  : 	
; 517  : 	int nCommandType = atoi(p_szCommandName);

  00037	ff 75 08	 push	 DWORD PTR _p_szCommandName$[ebp]
  0003a	c7 45 fc 00 00
	00 00		 mov	 DWORD PTR __$EHRec$[ebp+8], 0
  00041	ff 15 00 00 00
	00		 call	 DWORD PTR __imp__atoi
  00047	83 c4 04	 add	 esp, 4

; 518  : 	
; 519  : 	switch(nCommandType)

  0004a	85 c0		 test	 eax, eax
  0004c	0f 85 05 01 00
	00		 jne	 $LN6@InvokeAddI

; 520  : 	{
; 521  : 	case 0:	//  
; 522  : 		{
; 523  : 			CString strData = p_szData;

  00052	ff 75 0c	 push	 DWORD PTR _p_szData$[ebp]
  00055	8d 4d 08	 lea	 ecx, DWORD PTR _strData$6[ebp]
  00058	ff 15 00 00 00
	00		 call	 DWORD PTR __imp_??0?$CStringT@DV?$StrTraitMFC_DLL@DV?$ChTraitsCRT@D@ATL@@@@@ATL@@QAE@PBD@Z

; 524  : 			strData += ":";

  0005e	68 00 00 00 00	 push	 OFFSET ??_C@_01JLIPDDHJ@?3@
  00063	8d 4d 08	 lea	 ecx, DWORD PTR _strData$6[ebp]
  00066	c6 45 fc 01	 mov	 BYTE PTR __$EHRec$[ebp+8], 1
  0006a	ff 15 00 00 00
	00		 call	 DWORD PTR __imp_??Y?$CStringT@DV?$StrTraitMFC_DLL@DV?$ChTraitsCRT@D@ATL@@@@@ATL@@QAEAAV01@PBD@Z

; 525  : 			int iStart = 0;
; 526  : 			CString strStartDate = TokenizeEx(strData, ":",iStart);		// 

  00070	8d 45 ec	 lea	 eax, DWORD PTR _iStart$4[ebp]
  00073	c7 45 ec 00 00
	00 00		 mov	 DWORD PTR _iStart$4[ebp], 0
  0007a	50		 push	 eax
  0007b	68 00 00 00 00	 push	 OFFSET ??_C@_01JLIPDDHJ@?3@
  00080	51		 push	 ecx
  00081	8d 45 08	 lea	 eax, DWORD PTR _strData$6[ebp]
  00084	8b cc		 mov	 ecx, esp
  00086	50		 push	 eax
  00087	ff 15 00 00 00
	00		 call	 DWORD PTR __imp_??0?$CStringT@DV?$StrTraitMFC_DLL@DV?$ChTraitsCRT@D@ATL@@@@@ATL@@QAE@ABV01@@Z
  0008d	8d 45 f0	 lea	 eax, DWORD PTR _strStartDate$5[ebp]
  00090	50		 push	 eax
  00091	8d 4e f8	 lea	 ecx, DWORD PTR [esi-8]
  00094	e8 00 00 00 00	 call	 ?TokenizeEx@CChartDragCandleAnalAddInImp@@IAE?AV?$CStringT@DV?$StrTraitMFC_DLL@DV?$ChTraitsCRT@D@ATL@@@@@ATL@@V23@PBDAAH@Z ; CChartDragCandleAnalAddInImp::TokenizeEx

; 527  : 			CString strEndDate = TokenizeEx(strData, ":",iStart);	// 

  00099	8d 45 ec	 lea	 eax, DWORD PTR _iStart$4[ebp]
  0009c	c6 45 fc 02	 mov	 BYTE PTR __$EHRec$[ebp+8], 2
  000a0	50		 push	 eax
  000a1	68 00 00 00 00	 push	 OFFSET ??_C@_01JLIPDDHJ@?3@
  000a6	51		 push	 ecx
  000a7	8d 45 08	 lea	 eax, DWORD PTR _strData$6[ebp]
  000aa	8b cc		 mov	 ecx, esp
  000ac	50		 push	 eax
  000ad	ff 15 00 00 00
	00		 call	 DWORD PTR __imp_??0?$CStringT@DV?$StrTraitMFC_DLL@DV?$ChTraitsCRT@D@ATL@@@@@ATL@@QAE@ABV01@@Z
  000b3	8d 45 0c	 lea	 eax, DWORD PTR _strEndDate$7[ebp]
  000b6	50		 push	 eax
  000b7	8d 4e f8	 lea	 ecx, DWORD PTR [esi-8]
  000ba	e8 00 00 00 00	 call	 ?TokenizeEx@CChartDragCandleAnalAddInImp@@IAE?AV?$CStringT@DV?$StrTraitMFC_DLL@DV?$ChTraitsCRT@D@ATL@@@@@ATL@@V23@PBDAAH@Z ; CChartDragCandleAnalAddInImp::TokenizeEx

; 528  : 			int nStartIndex, nEndIndex;
; 529  : 			if( !m_pIChartOCX->GetViewStartEndIndex( nStartIndex, nEndIndex))

  000bf	8b 4e 04	 mov	 ecx, DWORD PTR [esi+4]
  000c2	8d 55 e8	 lea	 edx, DWORD PTR _nEndIndex$3[ebp]
  000c5	52		 push	 edx
  000c6	8d 55 e4	 lea	 edx, DWORD PTR _nStartIndex$2[ebp]
  000c9	c6 45 fc 03	 mov	 BYTE PTR __$EHRec$[ebp+8], 3
  000cd	52		 push	 edx
  000ce	8b 01		 mov	 eax, DWORD PTR [ecx]
  000d0	ff 90 20 01 00
	00		 call	 DWORD PTR [eax+288]
  000d6	85 c0		 test	 eax, eax
  000d8	75 1f		 jne	 SHORT $LN5@InvokeAddI

; 530  : 				return 0;

  000da	8d 4d 0c	 lea	 ecx, DWORD PTR _strEndDate$7[ebp]
  000dd	ff 15 00 00 00
	00		 call	 DWORD PTR __imp_??1?$CStringT@DV?$StrTraitMFC_DLL@DV?$ChTraitsCRT@D@ATL@@@@@ATL@@QAE@XZ
  000e3	8d 4d f0	 lea	 ecx, DWORD PTR _strStartDate$5[ebp]
  000e6	ff 15 00 00 00
	00		 call	 DWORD PTR __imp_??1?$CStringT@DV?$StrTraitMFC_DLL@DV?$ChTraitsCRT@D@ATL@@@@@ATL@@QAE@XZ
  000ec	8d 4d 08	 lea	 ecx, DWORD PTR _strData$6[ebp]
  000ef	ff 15 00 00 00
	00		 call	 DWORD PTR __imp_??1?$CStringT@DV?$StrTraitMFC_DLL@DV?$ChTraitsCRT@D@ATL@@@@@ATL@@QAE@XZ
  000f5	33 f6		 xor	 esi, esi
  000f7	eb 63		 jmp	 SHORT $LN16@InvokeAddI
$LN5@InvokeAddI:

; 531  : 			m_nStartIndex = GetIndexFromValue(strStartDate, nStartIndex, nEndIndex);

  000f9	ff 75 e8	 push	 DWORD PTR _nEndIndex$3[ebp]
  000fc	8d 45 f0	 lea	 eax, DWORD PTR _strStartDate$5[ebp]
  000ff	ff 75 e4	 push	 DWORD PTR _nStartIndex$2[ebp]
  00102	51		 push	 ecx
  00103	8b cc		 mov	 ecx, esp
  00105	50		 push	 eax
  00106	ff 15 00 00 00
	00		 call	 DWORD PTR __imp_??0?$CStringT@DV?$StrTraitMFC_DLL@DV?$ChTraitsCRT@D@ATL@@@@@ATL@@QAE@ABV01@@Z
  0010c	8d 4e f8	 lea	 ecx, DWORD PTR [esi-8]
  0010f	e8 00 00 00 00	 call	 ?GetIndexFromValue@CChartDragCandleAnalAddInImp@@IAEHV?$CStringT@DV?$StrTraitMFC_DLL@DV?$ChTraitsCRT@D@ATL@@@@@ATL@@HH@Z ; CChartDragCandleAnalAddInImp::GetIndexFromValue

; 532  : 			m_nEndIndex = GetIndexFromValue(strEndDate, nStartIndex, nEndIndex);

  00114	ff 75 e8	 push	 DWORD PTR _nEndIndex$3[ebp]
  00117	89 46 60	 mov	 DWORD PTR [esi+96], eax
  0011a	8d 45 0c	 lea	 eax, DWORD PTR _strEndDate$7[ebp]
  0011d	ff 75 e4	 push	 DWORD PTR _nStartIndex$2[ebp]
  00120	51		 push	 ecx
  00121	8b cc		 mov	 ecx, esp
  00123	50		 push	 eax
  00124	ff 15 00 00 00
	00		 call	 DWORD PTR __imp_??0?$CStringT@DV?$StrTraitMFC_DLL@DV?$ChTraitsCRT@D@ATL@@@@@ATL@@QAE@ABV01@@Z
  0012a	8d 4e f8	 lea	 ecx, DWORD PTR [esi-8]
  0012d	e8 00 00 00 00	 call	 ?GetIndexFromValue@CChartDragCandleAnalAddInImp@@IAEHV?$CStringT@DV?$StrTraitMFC_DLL@DV?$ChTraitsCRT@D@ATL@@@@@ATL@@HH@Z ; CChartDragCandleAnalAddInImp::GetIndexFromValue

; 533  : 			m_bRun = FALSE;
; 534  : 		}

  00132	8d 4d 0c	 lea	 ecx, DWORD PTR _strEndDate$7[ebp]
  00135	89 46 64	 mov	 DWORD PTR [esi+100], eax
  00138	c7 46 6c 00 00
	00 00		 mov	 DWORD PTR [esi+108], 0
  0013f	ff 15 00 00 00
	00		 call	 DWORD PTR __imp_??1?$CStringT@DV?$StrTraitMFC_DLL@DV?$ChTraitsCRT@D@ATL@@@@@ATL@@QAE@XZ
  00145	8d 4d f0	 lea	 ecx, DWORD PTR _strStartDate$5[ebp]
  00148	ff 15 00 00 00
	00		 call	 DWORD PTR __imp_??1?$CStringT@DV?$StrTraitMFC_DLL@DV?$ChTraitsCRT@D@ATL@@@@@ATL@@QAE@XZ
  0014e	8d 4d 08	 lea	 ecx, DWORD PTR _strData$6[ebp]
  00151	ff 15 00 00 00
	00		 call	 DWORD PTR __imp_??1?$CStringT@DV?$StrTraitMFC_DLL@DV?$ChTraitsCRT@D@ATL@@@@@ATL@@QAE@XZ
$LN6@InvokeAddI:

; 535  : 		break;
; 536  : 	case 1:	// draw
; 537  : 		{
; 538  : 		}
; 539  : 		break;
; 540  : 	}
; 541  : 
; 542  : 	return TRUE;

  00157	be 01 00 00 00	 mov	 esi, 1
$LN16@InvokeAddI:
  0015c	8d 4d d8	 lea	 ecx, DWORD PTR __ctlState$[ebp]
  0015f	e8 00 00 00 00	 call	 ??1AFX_MAINTAIN_STATE2@@QAE@XZ ; AFX_MAINTAIN_STATE2::~AFX_MAINTAIN_STATE2
  00164	8b c6		 mov	 eax, esi

; 543  : }

  00166	8b 4d f4	 mov	 ecx, DWORD PTR __$EHRec$[ebp]
  00169	64 89 0d 00 00
	00 00		 mov	 DWORD PTR fs:0, ecx
  00170	59		 pop	 ecx
  00171	5f		 pop	 edi
  00172	5e		 pop	 esi
  00173	8b e5		 mov	 esp, ebp
  00175	5d		 pop	 ebp
  00176	c2 08 00	 ret	 8
_TEXT	ENDS
;	COMDAT text$x
text$x	SEGMENT
__unwindfunclet$?InvokeAddInStr@CChartDragCandleAnalAddInImp@@UAEHPBD0@Z$0:
  00000	8d 4d d8	 lea	 ecx, DWORD PTR __ctlState$[ebp]
  00003	e9 00 00 00 00	 jmp	 ??1AFX_MAINTAIN_STATE2@@QAE@XZ ; AFX_MAINTAIN_STATE2::~AFX_MAINTAIN_STATE2
__unwindfunclet$?InvokeAddInStr@CChartDragCandleAnalAddInImp@@UAEHPBD0@Z$1:
  00008	8d 4d 08	 lea	 ecx, DWORD PTR _strData$6[ebp]
  0000b	ff 25 00 00 00
	00		 jmp	 DWORD PTR __imp_??1?$CStringT@DV?$StrTraitMFC_DLL@DV?$ChTraitsCRT@D@ATL@@@@@ATL@@QAE@XZ
__unwindfunclet$?InvokeAddInStr@CChartDragCandleAnalAddInImp@@UAEHPBD0@Z$3:
  00011	8d 4d f0	 lea	 ecx, DWORD PTR _strStartDate$5[ebp]
  00014	ff 25 00 00 00
	00		 jmp	 DWORD PTR __imp_??1?$CStringT@DV?$StrTraitMFC_DLL@DV?$ChTraitsCRT@D@ATL@@@@@ATL@@QAE@XZ
__unwindfunclet$?InvokeAddInStr@CChartDragCandleAnalAddInImp@@UAEHPBD0@Z$5:
  0001a	8d 4d 0c	 lea	 ecx, DWORD PTR _strEndDate$7[ebp]
  0001d	ff 25 00 00 00
	00		 jmp	 DWORD PTR __imp_??1?$CStringT@DV?$StrTraitMFC_DLL@DV?$ChTraitsCRT@D@ATL@@@@@ATL@@QAE@XZ
  00023	cc		 int	 3
  00024	cc		 int	 3
  00025	cc		 int	 3
  00026	cc		 int	 3
  00027	cc		 int	 3
__ehhandler$?InvokeAddInStr@CChartDragCandleAnalAddInImp@@UAEHPBD0@Z:
  00028	90		 npad	 1
  00029	90		 npad	 1
  0002a	8b 54 24 08	 mov	 edx, DWORD PTR [esp+8]
  0002e	8d 42 0c	 lea	 eax, DWORD PTR [edx+12]
  00031	8b 4a d8	 mov	 ecx, DWORD PTR [edx-40]
  00034	33 c8		 xor	 ecx, eax
  00036	e8 00 00 00 00	 call	 @__security_check_cookie@4
  0003b	b8 00 00 00 00	 mov	 eax, OFFSET __ehfuncinfo$?InvokeAddInStr@CChartDragCandleAnalAddInImp@@UAEHPBD0@Z
  00040	e9 00 00 00 00	 jmp	 ___CxxFrameHandler3
text$x	ENDS
?InvokeAddInStr@CChartDragCandleAnalAddInImp@@UAEHPBD0@Z ENDP ; CChartDragCandleAnalAddInImp::InvokeAddInStr
; Function compile flags: /Ogtp
; File D:\git\src\IBK\IBK_DRFN\ProjSrc\SrcChartEx\ChartAddIn\ChartPeriodSummaryAddIn\ChartDragCandleAnalAddInImp.h
;	COMDAT ?GetRegisteredEventMap@CChartDragCandleAnalAddInImp@@MBEPBW4EAddInEventType@IChartAddIn133691@@XZ
_TEXT	SEGMENT
?GetRegisteredEventMap@CChartDragCandleAnalAddInImp@@MBEPBW4EAddInEventType@IChartAddIn133691@@XZ PROC ; CChartDragCandleAnalAddInImp::GetRegisteredEventMap, COMDAT
; _this$ = ecx

; 22   : 	DECLARE_ADDIN_EVENT_MAP()

  00000	b8 00 00 00 00	 mov	 eax, OFFSET ?m_eRegisteredEventMap@CChartDragCandleAnalAddInImp@@1QBW4EAddInEventType@IChartAddIn133691@@B ; CChartDragCandleAnalAddInImp::m_eRegisteredEventMap
  00005	c3		 ret	 0
?GetRegisteredEventMap@CChartDragCandleAnalAddInImp@@MBEPBW4EAddInEventType@IChartAddIn133691@@XZ ENDP ; CChartDragCandleAnalAddInImp::GetRegisteredEventMap
_TEXT	ENDS
; Function compile flags: /Ogtp
; File D:\git\src\IBK\IBK_DRFN\ProjSrc\SrcChartEx\ChartAddIn\ChartPeriodSummaryAddIn\ChartDragCandleAnalAddInImp.cpp
; File C:\Program Files (x86)\Microsoft Visual Studio\2019\Community\VC\Tools\MSVC\14.29.30133\atlmfc\include\afxtempl.h
; File D:\git\src\IBK\IBK_DRFN\ProjSrc\SrcChartEx\ChartAddIn\ChartPeriodSummaryAddIn\ChartDragCandleAnalAddInImp.cpp
;	COMDAT ??1CChartDragCandleAnalAddInImp@@UAE@XZ
_TEXT	SEGMENT
__$EHRec$ = -12						; size = 12
??1CChartDragCandleAnalAddInImp@@UAE@XZ PROC		; CChartDragCandleAnalAddInImp::~CChartDragCandleAnalAddInImp, COMDAT
; _this$ = ecx

; 49   : {

  00000	55		 push	 ebp
  00001	8b ec		 mov	 ebp, esp
  00003	6a ff		 push	 -1
  00005	68 00 00 00 00	 push	 __ehhandler$??1CChartDragCandleAnalAddInImp@@UAE@XZ
  0000a	64 a1 00 00 00
	00		 mov	 eax, DWORD PTR fs:0
  00010	50		 push	 eax
  00011	56		 push	 esi
  00012	a1 00 00 00 00	 mov	 eax, DWORD PTR ___security_cookie
  00017	33 c5		 xor	 eax, ebp
  00019	50		 push	 eax
  0001a	8d 45 f4	 lea	 eax, DWORD PTR __$EHRec$[ebp]
  0001d	64 a3 00 00 00
	00		 mov	 DWORD PTR fs:0, eax
  00023	8b f1		 mov	 esi, ecx
  00025	c7 06 00 00 00
	00		 mov	 DWORD PTR [esi], OFFSET ??_7CChartDragCandleAnalAddInImp@@6BCIWUnknown@@@

; 50   : }

  0002b	8d 8e 90 00 00
	00		 lea	 ecx, DWORD PTR [esi+144]
  00031	c7 46 08 00 00
	00 00		 mov	 DWORD PTR [esi+8], OFFSET ??_7CChartDragCandleAnalAddInImp@@6BIChartAddIn133691@@@
; File C:\Program Files (x86)\Microsoft Visual Studio\2019\Community\VC\Tools\MSVC\14.29.30133\atlmfc\include\afxtempl.h

; 878  : {

  00038	c7 45 fc 00 00
	00 00		 mov	 DWORD PTR __$EHRec$[ebp+8], 0
  0003f	c7 01 00 00 00
	00		 mov	 DWORD PTR [ecx], OFFSET ??_7?$CList@V?$CStringT@DV?$StrTraitMFC_DLL@DV?$ChTraitsCRT@D@ATL@@@@@ATL@@AAV12@@@6B@

; 879  : 	RemoveAll();

  00045	e8 00 00 00 00	 call	 ?RemoveAll@?$CList@V?$CStringT@DV?$StrTraitMFC_DLL@DV?$ChTraitsCRT@D@ATL@@@@@ATL@@AAV12@@@QAEXXZ ; CList<ATL::CStringT<char,StrTraitMFC_DLL<char,ATL::ChTraitsCRT<char> > >,ATL::CStringT<char,StrTraitMFC_DLL<char,ATL::ChTraitsCRT<char> > > &>::RemoveAll
; File D:\git\src\IBK\IBK_DRFN\ProjSrc\SrcChartEx\ChartAddIn\ChartPeriodSummaryAddIn\ChartDragCandleAnalAddInImp.cpp

; 50   : }

  0004a	8b ce		 mov	 ecx, esi
  0004c	e8 00 00 00 00	 call	 ??1CChartAddInBase133691@@MAE@XZ ; CChartAddInBase133691::~CChartAddInBase133691
  00051	8b 4d f4	 mov	 ecx, DWORD PTR __$EHRec$[ebp]
  00054	64 89 0d 00 00
	00 00		 mov	 DWORD PTR fs:0, ecx
  0005b	59		 pop	 ecx
  0005c	5e		 pop	 esi
  0005d	8b e5		 mov	 esp, ebp
  0005f	5d		 pop	 ebp
  00060	c3		 ret	 0
  00061	cc		 int	 3
  00062	cc		 int	 3
  00063	cc		 int	 3
  00064	cc		 int	 3
  00065	cc		 int	 3
_TEXT	ENDS
;	COMDAT text$x
text$x	SEGMENT
__ehhandler$??1CChartDragCandleAnalAddInImp@@UAE@XZ:
  00000	90		 npad	 1
  00001	90		 npad	 1
  00002	8b 54 24 08	 mov	 edx, DWORD PTR [esp+8]
  00006	8d 42 0c	 lea	 eax, DWORD PTR [edx+12]
  00009	8b 4a f8	 mov	 ecx, DWORD PTR [edx-8]
  0000c	33 c8		 xor	 ecx, eax
  0000e	e8 00 00 00 00	 call	 @__security_check_cookie@4
  00013	b8 00 00 00 00	 mov	 eax, OFFSET __ehfuncinfo$??1CChartDragCandleAnalAddInImp@@UAE@XZ
  00018	e9 00 00 00 00	 jmp	 ___CxxFrameHandler3
text$x	ENDS
??1CChartDragCandleAnalAddInImp@@UAE@XZ ENDP		; CChartDragCandleAnalAddInImp::~CChartDragCandleAnalAddInImp
; Function compile flags: /Ogtp
; File D:\git\src\IBK\IBK_DRFN\ProjSrc\SrcChartEx\ChartAddIn\ChartPeriodSummaryAddIn\ChartDragCandleAnalAddInImp.cpp
; File C:\Program Files (x86)\Microsoft Visual Studio\2019\Community\VC\Tools\MSVC\14.29.30133\atlmfc\include\atltypes.h
; File C:\Program Files (x86)\Microsoft Visual Studio\2019\Community\VC\Tools\MSVC\14.29.30133\atlmfc\include\afxtempl.h
; File D:\git\src\IBK\IBK_DRFN\ProjSrc\SrcChartEx\ChartAddIn\ChartPeriodSummaryAddIn\ChartDragCandleAnalAddInImp.cpp
;	COMDAT ??0CChartDragCandleAnalAddInImp@@QAE@PAUIChartOCX133691@@PAUIAddInDllBase@@@Z
_TEXT	SEGMENT
_this$ = -4						; size = 4
_p_pIChartOCX$ = 8					; size = 4
_p_pIAddInDllBase$ = 12					; size = 4
??0CChartDragCandleAnalAddInImp@@QAE@PAUIChartOCX133691@@PAUIAddInDllBase@@@Z PROC ; CChartDragCandleAnalAddInImp::CChartDragCandleAnalAddInImp, COMDAT
; _this$ = ecx

; 30   : {

  00000	55		 push	 ebp
  00001	8b ec		 mov	 ebp, esp
  00003	51		 push	 ecx
  00004	56		 push	 esi
  00005	ff 75 0c	 push	 DWORD PTR _p_pIAddInDllBase$[ebp]
  00008	8b f1		 mov	 esi, ecx
  0000a	ff 75 08	 push	 DWORD PTR _p_pIChartOCX$[ebp]
  0000d	89 75 fc	 mov	 DWORD PTR _this$[ebp], esi
  00010	e8 00 00 00 00	 call	 ??0CChartAddInBase133691@@IAE@PAUIChartOCX133691@@PAUIAddInDllBase@@@Z ; CChartAddInBase133691::CChartAddInBase133691
  00015	c7 06 00 00 00
	00		 mov	 DWORD PTR [esi], OFFSET ??_7CChartDragCandleAnalAddInImp@@6BCIWUnknown@@@

; 46   : }

  0001b	8b c6		 mov	 eax, esi
  0001d	c7 46 08 00 00
	00 00		 mov	 DWORD PTR [esi+8], OFFSET ??_7CChartDragCandleAnalAddInImp@@6BIChartAddIn133691@@@
; File C:\Program Files (x86)\Microsoft Visual Studio\2019\Community\VC\Tools\MSVC\14.29.30133\atlmfc\include\atltypes.h

; 400  : 	x = 0;

  00024	c7 46 40 00 00
	00 00		 mov	 DWORD PTR [esi+64], 0

; 401  : 	y = 0;

  0002b	c7 46 44 00 00
	00 00		 mov	 DWORD PTR [esi+68], 0

; 400  : 	x = 0;

  00032	c7 46 48 00 00
	00 00		 mov	 DWORD PTR [esi+72], 0

; 401  : 	y = 0;

  00039	c7 46 4c 00 00
	00 00		 mov	 DWORD PTR [esi+76], 0

; 400  : 	x = 0;

  00040	c7 46 50 00 00
	00 00		 mov	 DWORD PTR [esi+80], 0

; 401  : 	y = 0;

  00047	c7 46 54 00 00
	00 00		 mov	 DWORD PTR [esi+84], 0

; 400  : 	x = 0;

  0004e	c7 46 58 00 00
	00 00		 mov	 DWORD PTR [esi+88], 0

; 401  : 	y = 0;

  00055	c7 46 5c 00 00
	00 00		 mov	 DWORD PTR [esi+92], 0
; File C:\Program Files (x86)\Microsoft Visual Studio\2019\Community\VC\Tools\MSVC\14.29.30133\atlmfc\include\afxtempl.h

; 851  : {

  0005c	c7 86 90 00 00
	00 00 00 00 00	 mov	 DWORD PTR [esi+144], OFFSET ??_7?$CList@V?$CStringT@DV?$StrTraitMFC_DLL@DV?$ChTraitsCRT@D@ATL@@@@@ATL@@AAV12@@@6B@

; 852  : 	ASSERT(nBlockSize > 0);
; 853  : 
; 854  : 	m_nCount = 0;

  00066	c7 86 9c 00 00
	00 00 00 00 00	 mov	 DWORD PTR [esi+156], 0

; 855  : 	m_pNodeHead = m_pNodeTail = m_pNodeFree = NULL;

  00070	c7 86 a0 00 00
	00 00 00 00 00	 mov	 DWORD PTR [esi+160], 0
  0007a	c7 86 98 00 00
	00 00 00 00 00	 mov	 DWORD PTR [esi+152], 0
  00084	c7 86 94 00 00
	00 00 00 00 00	 mov	 DWORD PTR [esi+148], 0

; 856  : 	m_pBlocks = NULL;

  0008e	c7 86 a4 00 00
	00 00 00 00 00	 mov	 DWORD PTR [esi+164], 0

; 857  : 	m_nBlockSize = nBlockSize;

  00098	c7 86 a8 00 00
	00 0a 00 00 00	 mov	 DWORD PTR [esi+168], 10	; 0000000aH
; File D:\git\src\IBK\IBK_DRFN\ProjSrc\SrcChartEx\ChartAddIn\ChartPeriodSummaryAddIn\ChartDragCandleAnalAddInImp.cpp

; 33   : 	m_ptStartDragDrop = CPoint(-1, -1);

  000a2	c7 46 40 ff ff
	ff ff		 mov	 DWORD PTR [esi+64], -1
  000a9	c7 46 44 ff ff
	ff ff		 mov	 DWORD PTR [esi+68], -1

; 34   : 	m_ptCurrDragDrop = CPoint(-1, -1);

  000b0	c7 46 48 ff ff
	ff ff		 mov	 DWORD PTR [esi+72], -1
  000b7	c7 46 4c ff ff
	ff ff		 mov	 DWORD PTR [esi+76], -1

; 35   : 
; 36   : 	m_ptStart = CPoint(-1, -1);

  000be	c7 46 50 ff ff
	ff ff		 mov	 DWORD PTR [esi+80], -1
  000c5	c7 46 54 ff ff
	ff ff		 mov	 DWORD PTR [esi+84], -1

; 37   : 	m_ptEnd = CPoint(-1, -1);

  000cc	c7 46 58 ff ff
	ff ff		 mov	 DWORD PTR [esi+88], -1
  000d3	c7 46 5c ff ff
	ff ff		 mov	 DWORD PTR [esi+92], -1

; 38   : 
; 39   : 	// (2006/2/6 - Seung-Won, Bae) Manage Mouse Action ID for Serial Action.
; 40   : 	m_dwMouseActionID = UINT_MAX;

  000da	c7 46 70 ff ff
	ff ff		 mov	 DWORD PTR [esi+112], -1

; 41   : 
; 42   : 	// ( 2006 / 11 / 27 - Sang-Woo, Cho ) ADDIN .
; 43   : 	m_bRun = TRUE;

  000e1	c7 46 74 01 00
	00 00		 mov	 DWORD PTR [esi+116], 1

; 44   : 	m_nStartIndex = -1;

  000e8	c7 46 68 ff ff
	ff ff		 mov	 DWORD PTR [esi+104], -1

; 45   : 	m_nEndIndex = -1;

  000ef	c7 46 6c ff ff
	ff ff		 mov	 DWORD PTR [esi+108], -1

; 46   : }

  000f6	5e		 pop	 esi
  000f7	8b e5		 mov	 esp, ebp
  000f9	5d		 pop	 ebp
  000fa	c2 08 00	 ret	 8
??0CChartDragCandleAnalAddInImp@@QAE@PAUIChartOCX133691@@PAUIAddInDllBase@@@Z ENDP ; CChartDragCandleAnalAddInImp::CChartDragCandleAnalAddInImp
_TEXT	ENDS
; Function compile flags: /Ogtp
; File D:\git\src\IBK\IBK_DRFN\ProjSrc\SrcChartEx\ChartAddIn\ChartPeriodSummaryAddIn\Include_AddIn\I133691\_IString.h
;	COMDAT ??1ILPCSTR133691@@QAE@XZ
_TEXT	SEGMENT
__$EHRec$ = -12						; size = 12
??1ILPCSTR133691@@QAE@XZ PROC				; ILPCSTR133691::~ILPCSTR133691, COMDAT
; _this$ = ecx

; 44   : 	{

  00000	55		 push	 ebp
  00001	8b ec		 mov	 ebp, esp
  00003	6a ff		 push	 -1
  00005	68 00 00 00 00	 push	 __ehhandler$??1ILPCSTR133691@@QAE@XZ
  0000a	64 a1 00 00 00
	00		 mov	 eax, DWORD PTR fs:0
  00010	50		 push	 eax
  00011	56		 push	 esi
  00012	a1 00 00 00 00	 mov	 eax, DWORD PTR ___security_cookie
  00017	33 c5		 xor	 eax, ebp
  00019	50		 push	 eax
  0001a	8d 45 f4	 lea	 eax, DWORD PTR __$EHRec$[ebp]
  0001d	64 a3 00 00 00
	00		 mov	 DWORD PTR fs:0, eax
  00023	8b f1		 mov	 esi, ecx

; 45   : 		if( m_pIStrData)

  00025	8b 4e 04	 mov	 ecx, DWORD PTR [esi+4]
  00028	85 c9		 test	 ecx, ecx
  0002a	74 13		 je	 SHORT $LN2@ILPCSTR133

; 46   : 		{
; 47   : 			m_pIStrData->Release();

  0002c	8b 01		 mov	 eax, DWORD PTR [ecx]
  0002e	51		 push	 ecx
  0002f	ff 50 08	 call	 DWORD PTR [eax+8]

; 48   : 			m_pIStrData = NULL;

  00032	c7 46 04 00 00
	00 00		 mov	 DWORD PTR [esi+4], 0

; 49   : 			m_szData = NULL;

  00039	c7 06 00 00 00
	00		 mov	 DWORD PTR [esi], 0
$LN2@ILPCSTR133:

; 50   : 		}
; 51   : 	}

  0003f	8b 4d f4	 mov	 ecx, DWORD PTR __$EHRec$[ebp]
  00042	64 89 0d 00 00
	00 00		 mov	 DWORD PTR fs:0, ecx
  00049	59		 pop	 ecx
  0004a	5e		 pop	 esi
  0004b	8b e5		 mov	 esp, ebp
  0004d	5d		 pop	 ebp
  0004e	c3		 ret	 0
  0004f	cc		 int	 3
  00050	cc		 int	 3
  00051	cc		 int	 3
  00052	cc		 int	 3
  00053	cc		 int	 3
_TEXT	ENDS
;	COMDAT text$x
text$x	SEGMENT
__ehhandler$??1ILPCSTR133691@@QAE@XZ:
  00000	90		 npad	 1
  00001	90		 npad	 1
  00002	8b 54 24 08	 mov	 edx, DWORD PTR [esp+8]
  00006	8d 42 0c	 lea	 eax, DWORD PTR [edx+12]
  00009	8b 4a f8	 mov	 ecx, DWORD PTR [edx-8]
  0000c	33 c8		 xor	 ecx, eax
  0000e	e8 00 00 00 00	 call	 @__security_check_cookie@4
  00013	b8 00 00 00 00	 mov	 eax, OFFSET __ehfuncinfo$??1ILPCSTR133691@@QAE@XZ
  00018	e9 00 00 00 00	 jmp	 ___CxxFrameHandler3
text$x	ENDS
??1ILPCSTR133691@@QAE@XZ ENDP				; ILPCSTR133691::~ILPCSTR133691
; Function compile flags: /Ogtp
; File D:\git\src\IBK\IBK_DRFN\ProjSrc\SrcChartEx\ChartAddIn\ChartPeriodSummaryAddIn\Include_AddIn\I133691\_ChartAddInBase.h
;	COMDAT ?OnRButtonDblClk@CChartAddInBase133691@@MAEHPAUHDC__@@IAAUtagPOINT@@K@Z
_TEXT	SEGMENT
_p_hDC$ = 8						; size = 4
_nFlags$ = 12						; size = 4
_point$ = 16						; size = 4
_p_dwMouseActionID$ = 20				; size = 4
?OnRButtonDblClk@CChartAddInBase133691@@MAEHPAUHDC__@@IAAUtagPOINT@@K@Z PROC ; CChartAddInBase133691::OnRButtonDblClk, COMDAT
; _this$ = ecx

; 215  : 	virtual BOOL	OnRButtonDblClk(	HDC p_hDC, UINT nFlags, POINT &point, const DWORD p_dwMouseActionID)									{	return FALSE;	}

  00000	33 c0		 xor	 eax, eax
  00002	c2 10 00	 ret	 16			; 00000010H
?OnRButtonDblClk@CChartAddInBase133691@@MAEHPAUHDC__@@IAAUtagPOINT@@K@Z ENDP ; CChartAddInBase133691::OnRButtonDblClk
_TEXT	ENDS
; Function compile flags: /Ogtp
; File D:\git\src\IBK\IBK_DRFN\ProjSrc\SrcChartEx\ChartAddIn\ChartPeriodSummaryAddIn\Include_AddIn\I133691\_ChartAddInBase.h
;	COMDAT ?OnRButtonUp@CChartAddInBase133691@@MAEHPAUHDC__@@IAAUtagPOINT@@K@Z
_TEXT	SEGMENT
_p_hDC$ = 8						; size = 4
_nFlags$ = 12						; size = 4
_point$ = 16						; size = 4
_p_dwMouseActionID$ = 20				; size = 4
?OnRButtonUp@CChartAddInBase133691@@MAEHPAUHDC__@@IAAUtagPOINT@@K@Z PROC ; CChartAddInBase133691::OnRButtonUp, COMDAT
; _this$ = ecx

; 214  : 	virtual BOOL	OnRButtonUp(		HDC p_hDC, UINT nFlags, POINT &point, const DWORD p_dwMouseActionID)									{	return FALSE;	}

  00000	33 c0		 xor	 eax, eax
  00002	c2 10 00	 ret	 16			; 00000010H
?OnRButtonUp@CChartAddInBase133691@@MAEHPAUHDC__@@IAAUtagPOINT@@K@Z ENDP ; CChartAddInBase133691::OnRButtonUp
_TEXT	ENDS
; Function compile flags: /Ogtp
; File D:\git\src\IBK\IBK_DRFN\ProjSrc\SrcChartEx\ChartAddIn\ChartPeriodSummaryAddIn\Include_AddIn\I133691\_ChartAddInBase.h
;	COMDAT ?OnRButtonDown@CChartAddInBase133691@@MAEHPAUHDC__@@IAAUtagPOINT@@K@Z
_TEXT	SEGMENT
_p_hDC$ = 8						; size = 4
_nFlags$ = 12						; size = 4
_point$ = 16						; size = 4
_p_dwMouseActionID$ = 20				; size = 4
?OnRButtonDown@CChartAddInBase133691@@MAEHPAUHDC__@@IAAUtagPOINT@@K@Z PROC ; CChartAddInBase133691::OnRButtonDown, COMDAT
; _this$ = ecx

; 213  : 	virtual BOOL	OnRButtonDown(		HDC p_hDC, UINT nFlags, POINT &point, const DWORD p_dwMouseActionID)									{	return FALSE;	}

  00000	33 c0		 xor	 eax, eax
  00002	c2 10 00	 ret	 16			; 00000010H
?OnRButtonDown@CChartAddInBase133691@@MAEHPAUHDC__@@IAAUtagPOINT@@K@Z ENDP ; CChartAddInBase133691::OnRButtonDown
_TEXT	ENDS
; Function compile flags: /Ogtp
; File D:\git\src\IBK\IBK_DRFN\ProjSrc\SrcChartEx\ChartAddIn\ChartPeriodSummaryAddIn\Include_AddIn\I133691\_ChartAddInBase.h
;	COMDAT ?OnLButtonDblClk@CChartAddInBase133691@@MAEHPAUHDC__@@IAAUtagPOINT@@K@Z
_TEXT	SEGMENT
_p_hDC$ = 8						; size = 4
_nFlags$ = 12						; size = 4
_point$ = 16						; size = 4
_p_dwMouseActionID$ = 20				; size = 4
?OnLButtonDblClk@CChartAddInBase133691@@MAEHPAUHDC__@@IAAUtagPOINT@@K@Z PROC ; CChartAddInBase133691::OnLButtonDblClk, COMDAT
; _this$ = ecx

; 212  : 	virtual BOOL	OnLButtonDblClk(	HDC p_hDC, UINT nFlags, POINT &point, const DWORD p_dwMouseActionID)									{	return FALSE;	}

  00000	33 c0		 xor	 eax, eax
  00002	c2 10 00	 ret	 16			; 00000010H
?OnLButtonDblClk@CChartAddInBase133691@@MAEHPAUHDC__@@IAAUtagPOINT@@K@Z ENDP ; CChartAddInBase133691::OnLButtonDblClk
_TEXT	ENDS
; Function compile flags: /Ogtp
; File D:\git\src\IBK\IBK_DRFN\ProjSrc\SrcChartEx\ChartAddIn\ChartPeriodSummaryAddIn\Include_AddIn\I133691\_ChartAddInBase.h
;	COMDAT ?OnMouseWheel@CChartAddInBase133691@@MAEHIFUtagPOINT@@K@Z
_TEXT	SEGMENT
_nFlags$ = 8						; size = 4
_zDelta$ = 12						; size = 2
_pt$ = 16						; size = 8
_p_dwMouseActionID$ = 24				; size = 4
?OnMouseWheel@CChartAddInBase133691@@MAEHIFUtagPOINT@@K@Z PROC ; CChartAddInBase133691::OnMouseWheel, COMDAT
; _this$ = ecx

; 208  : 	virtual BOOL	OnMouseWheel(		UINT nFlags, short zDelta, POINT pt, const DWORD p_dwMouseActionID)										{	return FALSE;	}

  00000	33 c0		 xor	 eax, eax
  00002	c2 14 00	 ret	 20			; 00000014H
?OnMouseWheel@CChartAddInBase133691@@MAEHIFUtagPOINT@@K@Z ENDP ; CChartAddInBase133691::OnMouseWheel
_TEXT	ENDS
; Function compile flags: /Ogtp
; File D:\git\src\IBK\IBK_DRFN\ProjSrc\SrcChartEx\ChartAddIn\ChartPeriodSummaryAddIn\Include_AddIn\I133691\_ChartAddInBase.h
;	COMDAT ?OnKeyUp@CChartAddInBase133691@@MAEHIII@Z
_TEXT	SEGMENT
_nChar$ = 8						; size = 4
_nRepCnt$ = 12						; size = 4
_nFlags$ = 16						; size = 4
?OnKeyUp@CChartAddInBase133691@@MAEHIII@Z PROC		; CChartAddInBase133691::OnKeyUp, COMDAT
; _this$ = ecx

; 207  : 	virtual BOOL	OnKeyUp(			UINT nChar, UINT nRepCnt, UINT nFlags)																	{	return FALSE;	}

  00000	33 c0		 xor	 eax, eax
  00002	c2 0c 00	 ret	 12			; 0000000cH
?OnKeyUp@CChartAddInBase133691@@MAEHIII@Z ENDP		; CChartAddInBase133691::OnKeyUp
_TEXT	ENDS
; Function compile flags: /Ogtp
; File D:\git\src\IBK\IBK_DRFN\ProjSrc\SrcChartEx\ChartAddIn\ChartPeriodSummaryAddIn\Include_AddIn\I133691\_ChartAddInBase.h
;	COMDAT ?OnKeyDown@CChartAddInBase133691@@MAEHIII@Z
_TEXT	SEGMENT
_nChar$ = 8						; size = 4
_nRepCnt$ = 12						; size = 4
_nFlags$ = 16						; size = 4
?OnKeyDown@CChartAddInBase133691@@MAEHIII@Z PROC	; CChartAddInBase133691::OnKeyDown, COMDAT
; _this$ = ecx

; 206  : 	virtual BOOL	OnKeyDown(			UINT nChar, UINT nRepCnt, UINT nFlags)																	{	return FALSE;	}

  00000	33 c0		 xor	 eax, eax
  00002	c2 0c 00	 ret	 12			; 0000000cH
?OnKeyDown@CChartAddInBase133691@@MAEHIII@Z ENDP	; CChartAddInBase133691::OnKeyDown
_TEXT	ENDS
; Function compile flags: /Ogtp
; File D:\git\src\IBK\IBK_DRFN\ProjSrc\SrcChartEx\ChartAddIn\ChartPeriodSummaryAddIn\Include_AddIn\I133691\_ChartAddInBase.h
;	COMDAT ?OnAddInToolCommand@CChartAddInBase133691@@MAEHAAJW4EAICommandType@@JJ@Z
_TEXT	SEGMENT
_p_lResult$ = 8						; size = 4
_p_eCommandID$ = 12					; size = 4
_p_lParam1$ = 16					; size = 4
_p_lParam2$ = 20					; size = 4
?OnAddInToolCommand@CChartAddInBase133691@@MAEHAAJW4EAICommandType@@JJ@Z PROC ; CChartAddInBase133691::OnAddInToolCommand, COMDAT
; _this$ = ecx

; 204  : 	virtual BOOL	OnAddInToolCommand(	long &p_lResult, const EAICommandType p_eCommandID, const long p_lParam1, const long p_lParam2)			{	return FALSE;	}

  00000	33 c0		 xor	 eax, eax
  00002	c2 10 00	 ret	 16			; 00000010H
?OnAddInToolCommand@CChartAddInBase133691@@MAEHAAJW4EAICommandType@@JJ@Z ENDP ; CChartAddInBase133691::OnAddInToolCommand
_TEXT	ENDS
; Function compile flags: /Ogtp
; File D:\git\src\IBK\IBK_DRFN\ProjSrc\SrcChartEx\ChartAddIn\ChartPeriodSummaryAddIn\Include_AddIn\I133691\_ChartAddInBase.h
;	COMDAT ?OnAddInToolCommand@CChartAddInBase133691@@MAEHAAJW4EAICommandType@@J@Z
_TEXT	SEGMENT
_p_lResult$ = 8						; size = 4
_p_eCommandID$ = 12					; size = 4
_p_lParam$ = 16						; size = 4
?OnAddInToolCommand@CChartAddInBase133691@@MAEHAAJW4EAICommandType@@J@Z PROC ; CChartAddInBase133691::OnAddInToolCommand, COMDAT
; _this$ = ecx

; 203  : 	virtual BOOL	OnAddInToolCommand(	long &p_lResult, const EAICommandType p_eCommandID, const long p_lParam)								{	return FALSE;	}

  00000	33 c0		 xor	 eax, eax
  00002	c2 0c 00	 ret	 12			; 0000000cH
?OnAddInToolCommand@CChartAddInBase133691@@MAEHAAJW4EAICommandType@@J@Z ENDP ; CChartAddInBase133691::OnAddInToolCommand
_TEXT	ENDS
; Function compile flags: /Ogtp
; File D:\git\src\IBK\IBK_DRFN\ProjSrc\SrcChartEx\ChartAddIn\ChartPeriodSummaryAddIn\Include_AddIn\I133691\_ChartAddInBase.h
;	COMDAT ?OnAddInToolCommand@CChartAddInBase133691@@MAEHAAJW4EAICommandType@@PBDPAVCObject@@@Z
_TEXT	SEGMENT
_p_lResult$ = 8						; size = 4
_p_eCommandID$ = 12					; size = 4
_p_szParam$ = 16					; size = 4
_p_pParam$ = 20						; size = 4
?OnAddInToolCommand@CChartAddInBase133691@@MAEHAAJW4EAICommandType@@PBDPAVCObject@@@Z PROC ; CChartAddInBase133691::OnAddInToolCommand, COMDAT
; _this$ = ecx

; 202  : 	virtual BOOL	OnAddInToolCommand(	long &p_lResult, const EAICommandType p_eCommandID, const char *p_szParam, CObject *p_pParam)			{	return FALSE;	}

  00000	33 c0		 xor	 eax, eax
  00002	c2 10 00	 ret	 16			; 00000010H
?OnAddInToolCommand@CChartAddInBase133691@@MAEHAAJW4EAICommandType@@PBDPAVCObject@@@Z ENDP ; CChartAddInBase133691::OnAddInToolCommand
_TEXT	ENDS
; Function compile flags: /Ogtp
; File D:\git\src\IBK\IBK_DRFN\ProjSrc\SrcChartEx\ChartAddIn\ChartPeriodSummaryAddIn\Include_AddIn\I133691\_ChartAddInBase.h
;	COMDAT ?OnAddInToolCommand@CChartAddInBase133691@@MAEHAAJW4EAICommandType@@PBD@Z
_TEXT	SEGMENT
_p_lResult$ = 8						; size = 4
_p_eCommandID$ = 12					; size = 4
_p_szParam$ = 16					; size = 4
?OnAddInToolCommand@CChartAddInBase133691@@MAEHAAJW4EAICommandType@@PBD@Z PROC ; CChartAddInBase133691::OnAddInToolCommand, COMDAT
; _this$ = ecx

; 201  : 	virtual BOOL	OnAddInToolCommand(	long &p_lResult, const EAICommandType p_eCommandID, const char *p_szParam)								{	return FALSE;	}

  00000	33 c0		 xor	 eax, eax
  00002	c2 0c 00	 ret	 12			; 0000000cH
?OnAddInToolCommand@CChartAddInBase133691@@MAEHAAJW4EAICommandType@@PBD@Z ENDP ; CChartAddInBase133691::OnAddInToolCommand
_TEXT	ENDS
; Function compile flags: /Ogtp
; File D:\git\src\IBK\IBK_DRFN\ProjSrc\SrcChartEx\ChartAddIn\ChartPeriodSummaryAddIn\Include_AddIn\I133691\_ChartAddInBase.h
;	COMDAT ?OnAddInToolCommand@CChartAddInBase133691@@MAEHAAJW4EAICommandType@@PAUIGraphInfo133691@@@Z
_TEXT	SEGMENT
_p_lResult$ = 8						; size = 4
_p_eCommandID$ = 12					; size = 4
_p_pIGraphInfo$ = 16					; size = 4
?OnAddInToolCommand@CChartAddInBase133691@@MAEHAAJW4EAICommandType@@PAUIGraphInfo133691@@@Z PROC ; CChartAddInBase133691::OnAddInToolCommand, COMDAT
; _this$ = ecx

; 200  : 	virtual BOOL	OnAddInToolCommand(	long &p_lResult, const EAICommandType p_eCommandID, IGraphInfo *p_pIGraphInfo)							{	return FALSE;	}

  00000	33 c0		 xor	 eax, eax
  00002	c2 0c 00	 ret	 12			; 0000000cH
?OnAddInToolCommand@CChartAddInBase133691@@MAEHAAJW4EAICommandType@@PAUIGraphInfo133691@@@Z ENDP ; CChartAddInBase133691::OnAddInToolCommand
_TEXT	ENDS
; Function compile flags: /Ogtp
; File D:\git\src\IBK\IBK_DRFN\ProjSrc\SrcChartEx\ChartAddIn\ChartPeriodSummaryAddIn\Include_AddIn\I133691\_ChartAddInBase.h
;	COMDAT ?OnAddInToolCommand@CChartAddInBase133691@@MAEHAAJW4EAICommandType@@@Z
_TEXT	SEGMENT
_p_lResult$ = 8						; size = 4
_p_eCommandID$ = 12					; size = 4
?OnAddInToolCommand@CChartAddInBase133691@@MAEHAAJW4EAICommandType@@@Z PROC ; CChartAddInBase133691::OnAddInToolCommand, COMDAT
; _this$ = ecx

; 199  : 	virtual BOOL	OnAddInToolCommand(	long &p_lResult, const EAICommandType p_eCommandID)														{	return FALSE;	}

  00000	33 c0		 xor	 eax, eax
  00002	c2 08 00	 ret	 8
?OnAddInToolCommand@CChartAddInBase133691@@MAEHAAJW4EAICommandType@@@Z ENDP ; CChartAddInBase133691::OnAddInToolCommand
_TEXT	ENDS
; Function compile flags: /Ogtp
; File D:\git\src\IBK\IBK_DRFN\ProjSrc\SrcChartEx\ChartAddIn\ChartPeriodSummaryAddIn\Include_AddIn\I133691\_ChartAddInBase.h
;	COMDAT ?OnAddInToolCommand@CChartAddInBase133691@@MAEHW4EAICommandType@@JJJJJJJJJ@Z
_TEXT	SEGMENT
_p_eCommandID$ = 8					; size = 4
_p_lParam1$ = 12					; size = 4
_p_lParam2$ = 16					; size = 4
_p_lParam3$ = 20					; size = 4
_p_lParam4$ = 24					; size = 4
_p_lParam5$ = 28					; size = 4
_p_lParam6$ = 32					; size = 4
_p_lParam7$ = 36					; size = 4
_p_lParam8$ = 40					; size = 4
_p_lParam9$ = 44					; size = 4
?OnAddInToolCommand@CChartAddInBase133691@@MAEHW4EAICommandType@@JJJJJJJJJ@Z PROC ; CChartAddInBase133691::OnAddInToolCommand, COMDAT
; _this$ = ecx

; 198  : 	virtual BOOL	OnAddInToolCommand(	const EAICommandType p_eCommandID, const long p_lParam1, const long p_lParam2, const long p_lParam3, const long p_lParam4, const long p_lParam5, const long p_lParam6, const long p_lParam7, const long p_lParam8, const long p_lParam9)	{	return FALSE;	}

  00000	33 c0		 xor	 eax, eax
  00002	c2 28 00	 ret	 40			; 00000028H
?OnAddInToolCommand@CChartAddInBase133691@@MAEHW4EAICommandType@@JJJJJJJJJ@Z ENDP ; CChartAddInBase133691::OnAddInToolCommand
_TEXT	ENDS
; Function compile flags: /Ogtp
; File D:\git\src\IBK\IBK_DRFN\ProjSrc\SrcChartEx\ChartAddIn\ChartPeriodSummaryAddIn\Include_AddIn\I133691\_ChartAddInBase.h
;	COMDAT ?OnAddInToolCommand@CChartAddInBase133691@@MAEHW4EAICommandType@@JJ@Z
_TEXT	SEGMENT
_p_eCommandID$ = 8					; size = 4
_p_lParam1$ = 12					; size = 4
_p_lParam2$ = 16					; size = 4
?OnAddInToolCommand@CChartAddInBase133691@@MAEHW4EAICommandType@@JJ@Z PROC ; CChartAddInBase133691::OnAddInToolCommand, COMDAT
; _this$ = ecx

; 197  : 	virtual BOOL	OnAddInToolCommand(	const EAICommandType p_eCommandID, const long p_lParam1, const long p_lParam2)							{	return FALSE;	}

  00000	33 c0		 xor	 eax, eax
  00002	c2 0c 00	 ret	 12			; 0000000cH
?OnAddInToolCommand@CChartAddInBase133691@@MAEHW4EAICommandType@@JJ@Z ENDP ; CChartAddInBase133691::OnAddInToolCommand
_TEXT	ENDS
; Function compile flags: /Ogtp
; File D:\git\src\IBK\IBK_DRFN\ProjSrc\SrcChartEx\ChartAddIn\ChartPeriodSummaryAddIn\Include_AddIn\I133691\_ChartAddInBase.h
;	COMDAT ?OnAddInToolCommand@CChartAddInBase133691@@MAEHW4EAICommandType@@JPBD11@Z
_TEXT	SEGMENT
_p_eCommandID$ = 8					; size = 4
_p_lParam$ = 12						; size = 4
_p_szParam1$ = 16					; size = 4
_p_szParam2$ = 20					; size = 4
_p_szParam3$ = 24					; size = 4
?OnAddInToolCommand@CChartAddInBase133691@@MAEHW4EAICommandType@@JPBD11@Z PROC ; CChartAddInBase133691::OnAddInToolCommand, COMDAT
; _this$ = ecx

; 196  : 	virtual BOOL	OnAddInToolCommand( const EAICommandType p_eCommandID, const long p_lParam, const char *p_szParam1, const char *p_szParam2, const char *p_szParam3)	{	return FALSE;	}

  00000	33 c0		 xor	 eax, eax
  00002	c2 14 00	 ret	 20			; 00000014H
?OnAddInToolCommand@CChartAddInBase133691@@MAEHW4EAICommandType@@JPBD11@Z ENDP ; CChartAddInBase133691::OnAddInToolCommand
_TEXT	ENDS
; Function compile flags: /Ogtp
; File D:\git\src\IBK\IBK_DRFN\ProjSrc\SrcChartEx\ChartAddIn\ChartPeriodSummaryAddIn\Include_AddIn\I133691\_ChartAddInBase.h
;	COMDAT ?OnAddInToolCommand@CChartAddInBase133691@@MAEHW4EAICommandType@@JPBD@Z
_TEXT	SEGMENT
_p_eCommandID$ = 8					; size = 4
_p_lParam$ = 12						; size = 4
_p_szParam$ = 16					; size = 4
?OnAddInToolCommand@CChartAddInBase133691@@MAEHW4EAICommandType@@JPBD@Z PROC ; CChartAddInBase133691::OnAddInToolCommand, COMDAT
; _this$ = ecx

; 195  : 	virtual BOOL	OnAddInToolCommand( const EAICommandType p_eCommandID, const long p_lParam, const char *p_szParam)							{	return FALSE;	}

  00000	33 c0		 xor	 eax, eax
  00002	c2 0c 00	 ret	 12			; 0000000cH
?OnAddInToolCommand@CChartAddInBase133691@@MAEHW4EAICommandType@@JPBD@Z ENDP ; CChartAddInBase133691::OnAddInToolCommand
_TEXT	ENDS
; Function compile flags: /Ogtp
; File D:\git\src\IBK\IBK_DRFN\ProjSrc\SrcChartEx\ChartAddIn\ChartPeriodSummaryAddIn\Include_AddIn\I133691\_ChartAddInBase.h
;	COMDAT ?OnAddInToolCommand@CChartAddInBase133691@@MAEHW4EAICommandType@@J@Z
_TEXT	SEGMENT
_p_eCommandID$ = 8					; size = 4
_p_lParam$ = 12						; size = 4
?OnAddInToolCommand@CChartAddInBase133691@@MAEHW4EAICommandType@@J@Z PROC ; CChartAddInBase133691::OnAddInToolCommand, COMDAT
; _this$ = ecx

; 194  : 	virtual BOOL	OnAddInToolCommand(	const EAICommandType p_eCommandID, const long p_lParam)													{	return FALSE;	}

  00000	33 c0		 xor	 eax, eax
  00002	c2 08 00	 ret	 8
?OnAddInToolCommand@CChartAddInBase133691@@MAEHW4EAICommandType@@J@Z ENDP ; CChartAddInBase133691::OnAddInToolCommand
_TEXT	ENDS
; Function compile flags: /Ogtp
; File D:\git\src\IBK\IBK_DRFN\ProjSrc\SrcChartEx\ChartAddIn\ChartPeriodSummaryAddIn\Include_AddIn\I133691\_ChartAddInBase.h
;	COMDAT ?OnAddInToolCommand@CChartAddInBase133691@@MAEHW4EAICommandType@@PBUIAddInDllBase@@@Z
_TEXT	SEGMENT
_p_eCommandID$ = 8					; size = 4
_p_pParam$ = 12						; size = 4
?OnAddInToolCommand@CChartAddInBase133691@@MAEHW4EAICommandType@@PBUIAddInDllBase@@@Z PROC ; CChartAddInBase133691::OnAddInToolCommand, COMDAT
; _this$ = ecx

; 193  : 	virtual BOOL	OnAddInToolCommand(	const EAICommandType p_eCommandID, const IAddInDllBase *p_pParam)										{	return FALSE;	}

  00000	33 c0		 xor	 eax, eax
  00002	c2 08 00	 ret	 8
?OnAddInToolCommand@CChartAddInBase133691@@MAEHW4EAICommandType@@PBUIAddInDllBase@@@Z ENDP ; CChartAddInBase133691::OnAddInToolCommand
_TEXT	ENDS
; Function compile flags: /Ogtp
; File D:\git\src\IBK\IBK_DRFN\ProjSrc\SrcChartEx\ChartAddIn\ChartPeriodSummaryAddIn\Include_AddIn\I133691\_ChartAddInBase.h
;	COMDAT ?OnAddInToolCommand@CChartAddInBase133691@@MAEHW4EAICommandType@@PBDJ@Z
_TEXT	SEGMENT
_p_eCommandID$ = 8					; size = 4
_p_szParam$ = 12					; size = 4
_p_lParam$ = 16						; size = 4
?OnAddInToolCommand@CChartAddInBase133691@@MAEHW4EAICommandType@@PBDJ@Z PROC ; CChartAddInBase133691::OnAddInToolCommand, COMDAT
; _this$ = ecx

; 192  : 	virtual BOOL	OnAddInToolCommand( const EAICommandType p_eCommandID, const char *p_szParam, const long p_lParam)							{	return FALSE;	}

  00000	33 c0		 xor	 eax, eax
  00002	c2 0c 00	 ret	 12			; 0000000cH
?OnAddInToolCommand@CChartAddInBase133691@@MAEHW4EAICommandType@@PBDJ@Z ENDP ; CChartAddInBase133691::OnAddInToolCommand
_TEXT	ENDS
; Function compile flags: /Ogtp
; File D:\git\src\IBK\IBK_DRFN\ProjSrc\SrcChartEx\ChartAddIn\ChartPeriodSummaryAddIn\Include_AddIn\I133691\_ChartAddInBase.h
;	COMDAT ?OnAddInToolCommand@CChartAddInBase133691@@MAEHW4EAICommandType@@PBD1@Z
_TEXT	SEGMENT
_p_eCommandID$ = 8					; size = 4
_p_szParam1$ = 12					; size = 4
_p_szParam2$ = 16					; size = 4
?OnAddInToolCommand@CChartAddInBase133691@@MAEHW4EAICommandType@@PBD1@Z PROC ; CChartAddInBase133691::OnAddInToolCommand, COMDAT
; _this$ = ecx

; 191  : 	virtual BOOL	OnAddInToolCommand(	const EAICommandType p_eCommandID, const char *p_szParam1, const char *p_szParam2)						{	return FALSE;	}

  00000	33 c0		 xor	 eax, eax
  00002	c2 0c 00	 ret	 12			; 0000000cH
?OnAddInToolCommand@CChartAddInBase133691@@MAEHW4EAICommandType@@PBD1@Z ENDP ; CChartAddInBase133691::OnAddInToolCommand
_TEXT	ENDS
; Function compile flags: /Ogtp
; File D:\git\src\IBK\IBK_DRFN\ProjSrc\SrcChartEx\ChartAddIn\ChartPeriodSummaryAddIn\Include_AddIn\I133691\_ChartAddInBase.h
;	COMDAT ?OnAddInToolCommand@CChartAddInBase133691@@MAEHW4EAICommandType@@PBD@Z
_TEXT	SEGMENT
_p_eCommandID$ = 8					; size = 4
_p_szParam$ = 12					; size = 4
?OnAddInToolCommand@CChartAddInBase133691@@MAEHW4EAICommandType@@PBD@Z PROC ; CChartAddInBase133691::OnAddInToolCommand, COMDAT
; _this$ = ecx

; 190  : 	virtual BOOL	OnAddInToolCommand(	const EAICommandType p_eCommandID, const char *p_szParam)												{	return FALSE;	}

  00000	33 c0		 xor	 eax, eax
  00002	c2 08 00	 ret	 8
?OnAddInToolCommand@CChartAddInBase133691@@MAEHW4EAICommandType@@PBD@Z ENDP ; CChartAddInBase133691::OnAddInToolCommand
_TEXT	ENDS
; Function compile flags: /Ogtp
; File D:\git\src\IBK\IBK_DRFN\ProjSrc\SrcChartEx\ChartAddIn\ChartPeriodSummaryAddIn\Include_AddIn\I133691\_ChartAddInBase.h
;	COMDAT ?OnAddInToolCommand@CChartAddInBase133691@@MAEHW4EAICommandType@@PAUHDC__@@IAAUtagPOINT@@K@Z
_TEXT	SEGMENT
_p_eCommandID$ = 8					; size = 4
_p_hDC$ = 12						; size = 4
_nFlags$ = 16						; size = 4
_point$ = 20						; size = 4
_p_dwMouseActionID$ = 24				; size = 4
?OnAddInToolCommand@CChartAddInBase133691@@MAEHW4EAICommandType@@PAUHDC__@@IAAUtagPOINT@@K@Z PROC ; CChartAddInBase133691::OnAddInToolCommand, COMDAT
; _this$ = ecx

; 189  : 	virtual BOOL	OnAddInToolCommand(	const EAICommandType p_eCommandID, HDC p_hDC, UINT nFlags, POINT &point, const DWORD p_dwMouseActionID)	{	return FALSE;	}

  00000	33 c0		 xor	 eax, eax
  00002	c2 14 00	 ret	 20			; 00000014H
?OnAddInToolCommand@CChartAddInBase133691@@MAEHW4EAICommandType@@PAUHDC__@@IAAUtagPOINT@@K@Z ENDP ; CChartAddInBase133691::OnAddInToolCommand
_TEXT	ENDS
; Function compile flags: /Ogtp
; File D:\git\src\IBK\IBK_DRFN\ProjSrc\SrcChartEx\ChartAddIn\ChartPeriodSummaryAddIn\Include_AddIn\I133691\_ChartAddInBase.h
;	COMDAT ?OnAddInToolCommand@CChartAddInBase133691@@MAEHW4EAICommandType@@@Z
_TEXT	SEGMENT
_p_eCommandID$ = 8					; size = 4
?OnAddInToolCommand@CChartAddInBase133691@@MAEHW4EAICommandType@@@Z PROC ; CChartAddInBase133691::OnAddInToolCommand, COMDAT
; _this$ = ecx

; 188  : 	virtual BOOL	OnAddInToolCommand(	const EAICommandType p_eCommandID)																		{	return FALSE;	}

  00000	33 c0		 xor	 eax, eax
  00002	c2 04 00	 ret	 4
?OnAddInToolCommand@CChartAddInBase133691@@MAEHW4EAICommandType@@@Z ENDP ; CChartAddInBase133691::OnAddInToolCommand
_TEXT	ENDS
; Function compile flags: /Ogtp
; File D:\git\src\IBK\IBK_DRFN\ProjSrc\SrcChartEx\ChartAddIn\ChartPeriodSummaryAddIn\Include_AddIn\I133691\_ChartAddInBase.h
;	COMDAT ?OnAddInMsg@CChartAddInBase133691@@MAEHPBDJ@Z
_TEXT	SEGMENT
_p_szAddInItemName$ = 8					; size = 4
_p_lParam$ = 12						; size = 4
?OnAddInMsg@CChartAddInBase133691@@MAEHPBDJ@Z PROC	; CChartAddInBase133691::OnAddInMsg, COMDAT
; _this$ = ecx

; 187  : 	virtual BOOL	OnAddInMsg(			const char *p_szAddInItemName, const long p_lParam)														{	return FALSE;	}

  00000	33 c0		 xor	 eax, eax
  00002	c2 08 00	 ret	 8
?OnAddInMsg@CChartAddInBase133691@@MAEHPBDJ@Z ENDP	; CChartAddInBase133691::OnAddInMsg
_TEXT	ENDS
; Function compile flags: /Ogtp
; File D:\git\src\IBK\IBK_DRFN\ProjSrc\SrcChartEx\ChartAddIn\ChartPeriodSummaryAddIn\Include_AddIn\I133691\_ChartAddInBase.h
;	COMDAT ?OnCmdMsg@CChartAddInBase133691@@MAEHIHPAUICmdUI133691@@@Z
_TEXT	SEGMENT
_nID$ = 8						; size = 4
_nCode$ = 12						; size = 4
_p_pICmdUI$ = 16					; size = 4
?OnCmdMsg@CChartAddInBase133691@@MAEHIHPAUICmdUI133691@@@Z PROC ; CChartAddInBase133691::OnCmdMsg, COMDAT
; _this$ = ecx

; 186  : 	virtual BOOL	OnCmdMsg(			UINT nID, int nCode, ICmdUI *p_pICmdUI)																	{	return FALSE;	}

  00000	33 c0		 xor	 eax, eax
  00002	c2 0c 00	 ret	 12			; 0000000cH
?OnCmdMsg@CChartAddInBase133691@@MAEHIHPAUICmdUI133691@@@Z ENDP ; CChartAddInBase133691::OnCmdMsg
_TEXT	ENDS
; Function compile flags: /Ogtp
; File D:\git\src\IBK\IBK_DRFN\ProjSrc\SrcChartEx\ChartAddIn\ChartPeriodSummaryAddIn\Include_AddIn\I133691\_ChartAddInBase.h
;	COMDAT ?OnPreRealPacketEnd@CChartAddInBase133691@@MAEHPBD@Z
_TEXT	SEGMENT
_p_szRQ$ = 8						; size = 4
?OnPreRealPacketEnd@CChartAddInBase133691@@MAEHPBD@Z PROC ; CChartAddInBase133691::OnPreRealPacketEnd, COMDAT
; _this$ = ecx

; 180  : 	virtual BOOL	OnPreRealPacketEnd( const char *p_szRQ = NULL)											{	return TRUE;	}

  00000	b8 01 00 00 00	 mov	 eax, 1
  00005	c2 04 00	 ret	 4
?OnPreRealPacketEnd@CChartAddInBase133691@@MAEHPBD@Z ENDP ; CChartAddInBase133691::OnPreRealPacketEnd
_TEXT	ENDS
; Function compile flags: /Ogtp
; File D:\git\src\IBK\IBK_DRFN\ProjSrc\SrcChartEx\ChartAddIn\ChartPeriodSummaryAddIn\Include_AddIn\I133691\_ChartAddInBase.h
;	COMDAT ?OnPreIndexedRealData@CChartAddInBase133691@@MAEHPBDHAAN@Z
_TEXT	SEGMENT
_p_szPacketName$ = 8					; size = 4
_p_nIndex$ = 12						; size = 4
_p_dData$ = 16						; size = 4
?OnPreIndexedRealData@CChartAddInBase133691@@MAEHPBDHAAN@Z PROC ; CChartAddInBase133691::OnPreIndexedRealData, COMDAT
; _this$ = ecx

; 179  : 	virtual BOOL	OnPreIndexedRealData( const char *p_szPacketName, const int p_nIndex, double &p_dData)	{	return TRUE;	}

  00000	b8 01 00 00 00	 mov	 eax, 1
  00005	c2 0c 00	 ret	 12			; 0000000cH
?OnPreIndexedRealData@CChartAddInBase133691@@MAEHPBDHAAN@Z ENDP ; CChartAddInBase133691::OnPreIndexedRealData
_TEXT	ENDS
; Function compile flags: /Ogtp
; File D:\git\src\IBK\IBK_DRFN\ProjSrc\SrcChartEx\ChartAddIn\ChartPeriodSummaryAddIn\Include_AddIn\I133691\_ChartAddInBase.h
;	COMDAT ?OnPreRealData@CChartAddInBase133691@@MAEHPBDAAN0@Z
_TEXT	SEGMENT
_p_szPacketName$ = 8					; size = 4
_p_dData$ = 12						; size = 4
_p_szRQ$ = 16						; size = 4
?OnPreRealData@CChartAddInBase133691@@MAEHPBDAAN0@Z PROC ; CChartAddInBase133691::OnPreRealData, COMDAT
; _this$ = ecx

; 178  : 	virtual BOOL	OnPreRealData( const char *p_szPacketName, double &p_dData, const char *p_szRQ = NULL)	{	return TRUE;	}

  00000	b8 01 00 00 00	 mov	 eax, 1
  00005	c2 0c 00	 ret	 12			; 0000000cH
?OnPreRealData@CChartAddInBase133691@@MAEHPBDAAN0@Z ENDP ; CChartAddInBase133691::OnPreRealData
_TEXT	ENDS
; Function compile flags: /Ogtp
; File D:\git\src\IBK\IBK_DRFN\ProjSrc\SrcChartEx\ChartAddIn\ChartPeriodSummaryAddIn\Include_AddIn\I133691\_ChartAddInBase.h
;	COMDAT ?OnRecalculationComplete@CChartAddInBase133691@@MAEXXZ
_TEXT	SEGMENT
?OnRecalculationComplete@CChartAddInBase133691@@MAEXXZ PROC ; CChartAddInBase133691::OnRecalculationComplete, COMDAT
; _this$ = ecx

; 174  : 	virtual void	OnRecalculationComplete( void)						{}

  00000	c2 00 00	 ret	 0
?OnRecalculationComplete@CChartAddInBase133691@@MAEXXZ ENDP ; CChartAddInBase133691::OnRecalculationComplete
_TEXT	ENDS
; Function compile flags: /Ogtp
; File D:\git\src\IBK\IBK_DRFN\ProjSrc\SrcChartEx\ChartAddIn\ChartPeriodSummaryAddIn\Include_AddIn\I133691\_ChartAddInBase.h
;	COMDAT ?OnSaveEnvironment@CChartAddInBase133691@@MAEXPAUIPropertyMap@@@Z
_TEXT	SEGMENT
_p_pIAddInEnvMap$ = 8					; size = 4
?OnSaveEnvironment@CChartAddInBase133691@@MAEXPAUIPropertyMap@@@Z PROC ; CChartAddInBase133691::OnSaveEnvironment, COMDAT
; _this$ = ecx

; 170  : 	virtual void	OnSaveEnvironment( IPropertyMap *p_pIAddInEnvMap)	{}

  00000	c2 04 00	 ret	 4
?OnSaveEnvironment@CChartAddInBase133691@@MAEXPAUIPropertyMap@@@Z ENDP ; CChartAddInBase133691::OnSaveEnvironment
_TEXT	ENDS
; Function compile flags: /Ogtp
; File D:\git\src\IBK\IBK_DRFN\ProjSrc\SrcChartEx\ChartAddIn\ChartPeriodSummaryAddIn\Include_AddIn\I133691\_ChartAddInBase.h
;	COMDAT ?OnLoadEnvironment@CChartAddInBase133691@@MAEXPAUIPropertyMap@@@Z
_TEXT	SEGMENT
_p_pIAddInEnvMap$ = 8					; size = 4
?OnLoadEnvironment@CChartAddInBase133691@@MAEXPAUIPropertyMap@@@Z PROC ; CChartAddInBase133691::OnLoadEnvironment, COMDAT
; _this$ = ecx

; 169  : 	virtual void	OnLoadEnvironment( IPropertyMap *p_pIAddInEnvMap)	{}

  00000	c2 04 00	 ret	 4
?OnLoadEnvironment@CChartAddInBase133691@@MAEXPAUIPropertyMap@@@Z ENDP ; CChartAddInBase133691::OnLoadEnvironment
_TEXT	ENDS
; Function compile flags: /Ogtp
; File D:\git\src\IBK\IBK_DRFN\ProjSrc\SrcChartEx\ChartAddIn\ChartPeriodSummaryAddIn\Include_AddIn\I133691\_ChartAddInBase.h
;	COMDAT ?OnRealPacketEnd@CChartAddInBase133691@@MAEXPBD@Z
_TEXT	SEGMENT
_p_szRQ$ = 8						; size = 4
?OnRealPacketEnd@CChartAddInBase133691@@MAEXPBD@Z PROC	; CChartAddInBase133691::OnRealPacketEnd, COMDAT
; _this$ = ecx

; 167  : 	virtual void	OnRealPacketEnd( const char *p_szRQ)								{}

  00000	c2 04 00	 ret	 4
?OnRealPacketEnd@CChartAddInBase133691@@MAEXPBD@Z ENDP	; CChartAddInBase133691::OnRealPacketEnd
_TEXT	ENDS
; Function compile flags: /Ogtp
; File D:\git\src\IBK\IBK_DRFN\ProjSrc\SrcChartEx\ChartAddIn\ChartPeriodSummaryAddIn\Include_AddIn\I133691\_ChartAddInBase.h
;	COMDAT ?OnIndexedRealData@CChartAddInBase133691@@MAEXPBDHN@Z
_TEXT	SEGMENT
_p_szPacketName$ = 8					; size = 4
_p_nIndex$ = 12						; size = 4
_p_dData$ = 16						; size = 8
?OnIndexedRealData@CChartAddInBase133691@@MAEXPBDHN@Z PROC ; CChartAddInBase133691::OnIndexedRealData, COMDAT
; _this$ = ecx

; 165  : 	virtual void	OnIndexedRealData( const char *p_szPacketName, const int p_nIndex, double p_dData)		{}

  00000	c2 10 00	 ret	 16			; 00000010H
?OnIndexedRealData@CChartAddInBase133691@@MAEXPBDHN@Z ENDP ; CChartAddInBase133691::OnIndexedRealData
_TEXT	ENDS
; Function compile flags: /Ogtp
; File D:\git\src\IBK\IBK_DRFN\ProjSrc\SrcChartEx\ChartAddIn\ChartPeriodSummaryAddIn\Include_AddIn\I133691\_ChartAddInBase.h
;	COMDAT ?OnRealData@CChartAddInBase133691@@MAEXPBDN0@Z
_TEXT	SEGMENT
_p_szPacketName$ = 8					; size = 4
_p_dData$ = 12						; size = 8
_p_szRQ$ = 20						; size = 4
?OnRealData@CChartAddInBase133691@@MAEXPBDN0@Z PROC	; CChartAddInBase133691::OnRealData, COMDAT
; _this$ = ecx

; 164  : 	virtual void	OnRealData( const char *p_szPacketName, double p_dData, const char *p_szRQ)			{}

  00000	c2 10 00	 ret	 16			; 00000010H
?OnRealData@CChartAddInBase133691@@MAEXPBDN0@Z ENDP	; CChartAddInBase133691::OnRealData
_TEXT	ENDS
; Function compile flags: /Ogtp
; File D:\git\src\IBK\IBK_DRFN\ProjSrc\SrcChartEx\ChartAddIn\ChartPeriodSummaryAddIn\Include_AddIn\I133691\_ChartAddInBase.h
;	COMDAT ?OnToolCommand@CChartAddInBase133691@@MAEXHH@Z
_TEXT	SEGMENT
_p_nToolType$ = 8					; size = 4
_p_nCmdOption$ = 12					; size = 4
?OnToolCommand@CChartAddInBase133691@@MAEXHH@Z PROC	; CChartAddInBase133691::OnToolCommand, COMDAT
; _this$ = ecx

; 162  : 	virtual void	OnToolCommand( const int p_nToolType, const int p_nCmdOption)	{}

  00000	c2 08 00	 ret	 8
?OnToolCommand@CChartAddInBase133691@@MAEXHH@Z ENDP	; CChartAddInBase133691::OnToolCommand
_TEXT	ENDS
; Function compile flags: /Ogtp
; File D:\git\src\IBK\IBK_DRFN\ProjSrc\SrcChartEx\ChartAddIn\ChartPeriodSummaryAddIn\Include_AddIn\I133691\_ChartAddInBase.h
;	COMDAT ?OnBlockChanged@CChartAddInBase133691@@MAEXW4BLOCKBEHAVIOR@CBlockBaseData@@HHHH@Z
_TEXT	SEGMENT
_p_eChangeType$ = 8					; size = 4
_p_nSourceRow$ = 12					; size = 4
_p_nSourceColumn$ = 16					; size = 4
_p_nTargetRow$ = 20					; size = 4
_p_nTargetColumn$ = 24					; size = 4
?OnBlockChanged@CChartAddInBase133691@@MAEXW4BLOCKBEHAVIOR@CBlockBaseData@@HHHH@Z PROC ; CChartAddInBase133691::OnBlockChanged, COMDAT
; _this$ = ecx

; 160  : 	virtual void	OnBlockChanged( const CBlockBaseData::BLOCKBEHAVIOR p_eChangeType, const int p_nSourceRow, const int p_nSourceColumn, const int p_nTargetRow, const int p_nTargetColumn)	{}

  00000	c2 14 00	 ret	 20			; 00000014H
?OnBlockChanged@CChartAddInBase133691@@MAEXW4BLOCKBEHAVIOR@CBlockBaseData@@HHHH@Z ENDP ; CChartAddInBase133691::OnBlockChanged
_TEXT	ENDS
; Function compile flags: /Ogtp
; File D:\git\src\IBK\IBK_DRFN\ProjSrc\SrcChartEx\ChartAddIn\ChartPeriodSummaryAddIn\Include_AddIn\I133691\_ChartAddInBase.h
;	COMDAT ?OnPacketTruncated@CChartAddInBase133691@@MAEXH@Z
_TEXT	SEGMENT
_p_nDataCount$ = 8					; size = 4
?OnPacketTruncated@CChartAddInBase133691@@MAEXH@Z PROC	; CChartAddInBase133691::OnPacketTruncated, COMDAT
; _this$ = ecx

; 158  : 	virtual void	OnPacketTruncated( const int p_nDataCount)			{}

  00000	c2 04 00	 ret	 4
?OnPacketTruncated@CChartAddInBase133691@@MAEXH@Z ENDP	; CChartAddInBase133691::OnPacketTruncated
_TEXT	ENDS
; Function compile flags: /Ogtp
; File D:\git\src\IBK\IBK_DRFN\ProjSrc\SrcChartEx\ChartAddIn\ChartPeriodSummaryAddIn\Include_AddIn\I133691\_ChartAddInBase.h
;	COMDAT ?OnGraphDeleted@CChartAddInBase133691@@MAEXPBD0@Z
_TEXT	SEGMENT
_p_szGraphName$ = 8					; size = 4
_p_szIndicatorName$ = 12				; size = 4
?OnGraphDeleted@CChartAddInBase133691@@MAEXPBD0@Z PROC	; CChartAddInBase133691::OnGraphDeleted, COMDAT
; _this$ = ecx

; 156  : 	virtual void	OnGraphDeleted( const char *p_szGraphName, const char *p_szIndicatorName)			{}

  00000	c2 08 00	 ret	 8
?OnGraphDeleted@CChartAddInBase133691@@MAEXPBD0@Z ENDP	; CChartAddInBase133691::OnGraphDeleted
_TEXT	ENDS
; Function compile flags: /Ogtp
; File D:\git\src\IBK\IBK_DRFN\ProjSrc\SrcChartEx\ChartAddIn\ChartPeriodSummaryAddIn\Include_AddIn\I133691\_ChartAddInBase.h
;	COMDAT ?OnContextMenu@CChartAddInBase133691@@MAEXPAUHWND__@@AAUtagPOINT@@@Z
_TEXT	SEGMENT
_p_hWnd$ = 8						; size = 4
_p_pt$ = 12						; size = 4
?OnContextMenu@CChartAddInBase133691@@MAEXPAUHWND__@@AAUtagPOINT@@@Z PROC ; CChartAddInBase133691::OnContextMenu, COMDAT
; _this$ = ecx

; 154  : 	virtual void	OnContextMenu( HWND p_hWnd, POINT &p_pt)			{}

  00000	c2 08 00	 ret	 8
?OnContextMenu@CChartAddInBase133691@@MAEXPAUHWND__@@AAUtagPOINT@@@Z ENDP ; CChartAddInBase133691::OnContextMenu
_TEXT	ENDS
; Function compile flags: /Ogtp
; File D:\git\src\IBK\IBK_DRFN\ProjSrc\SrcChartEx\ChartAddIn\ChartPeriodSummaryAddIn\Include_AddIn\I133691\_ChartAddInBase.h
;	COMDAT ?OnManualRealData@CChartAddInBase133691@@MAEXPBDNH@Z
_TEXT	SEGMENT
_p_szPacketName$ = 8					; size = 4
_p_dData$ = 12						; size = 8
_p_nOption$ = 20					; size = 4
?OnManualRealData@CChartAddInBase133691@@MAEXPBDNH@Z PROC ; CChartAddInBase133691::OnManualRealData, COMDAT
; _this$ = ecx

; 152  : 	virtual void	OnManualRealData( const char *p_szPacketName, const double p_dData, const int p_nOption)	{}

  00000	c2 10 00	 ret	 16			; 00000010H
?OnManualRealData@CChartAddInBase133691@@MAEXPBDNH@Z ENDP ; CChartAddInBase133691::OnManualRealData
_TEXT	ENDS
; Function compile flags: /Ogtp
; File D:\git\src\IBK\IBK_DRFN\ProjSrc\SrcChartEx\ChartAddIn\ChartPeriodSummaryAddIn\Include_AddIn\I133691\_ChartAddInBase.h
;	COMDAT ?OnGraphAdded@CChartAddInBase133691@@MAEXPBD0@Z
_TEXT	SEGMENT
_p_szGraphName$ = 8					; size = 4
_p_szIndicatorName$ = 12				; size = 4
?OnGraphAdded@CChartAddInBase133691@@MAEXPBD0@Z PROC	; CChartAddInBase133691::OnGraphAdded, COMDAT
; _this$ = ecx

; 150  : 	virtual void	OnGraphAdded( const char *p_szGraphName, const char *p_szIndicatorName)			{}

  00000	c2 08 00	 ret	 8
?OnGraphAdded@CChartAddInBase133691@@MAEXPBD0@Z ENDP	; CChartAddInBase133691::OnGraphAdded
_TEXT	ENDS
; Function compile flags: /Ogtp
; File D:\git\src\IBK\IBK_DRFN\ProjSrc\SrcChartEx\ChartAddIn\ChartPeriodSummaryAddIn\Include_AddIn\I133691\_ChartAddInBase.h
;	COMDAT ?OnBlockRemoved@CChartAddInBase133691@@MAEXHH@Z
_TEXT	SEGMENT
_p_nRow$ = 8						; size = 4
_p_nColumn$ = 12					; size = 4
?OnBlockRemoved@CChartAddInBase133691@@MAEXHH@Z PROC	; CChartAddInBase133691::OnBlockRemoved, COMDAT
; _this$ = ecx

; 148  : 	virtual void	OnBlockRemoved( const int p_nRow, const int p_nColumn)	{}

  00000	c2 08 00	 ret	 8
?OnBlockRemoved@CChartAddInBase133691@@MAEXHH@Z ENDP	; CChartAddInBase133691::OnBlockRemoved
_TEXT	ENDS
; Function compile flags: /Ogtp
; File D:\git\src\IBK\IBK_DRFN\ProjSrc\SrcChartEx\ChartAddIn\ChartPeriodSummaryAddIn\Include_AddIn\I133691\_ChartAddInBase.h
;	COMDAT ?OnGraphDataChanged@CChartAddInBase133691@@MAEXXZ
_TEXT	SEGMENT
?OnGraphDataChanged@CChartAddInBase133691@@MAEXXZ PROC	; CChartAddInBase133691::OnGraphDataChanged, COMDAT
; _this$ = ecx

; 146  : 	virtual void	OnGraphDataChanged( void)							{}

  00000	c2 00 00	 ret	 0
?OnGraphDataChanged@CChartAddInBase133691@@MAEXXZ ENDP	; CChartAddInBase133691::OnGraphDataChanged
_TEXT	ENDS
; Function compile flags: /Ogtp
; File D:\git\src\IBK\IBK_DRFN\ProjSrc\SrcChartEx\ChartAddIn\ChartPeriodSummaryAddIn\Include_AddIn\I133691\_ChartAddInBase.h
;	COMDAT ?OnChartItemChanged@CChartAddInBase133691@@MAEXXZ
_TEXT	SEGMENT
?OnChartItemChanged@CChartAddInBase133691@@MAEXXZ PROC	; CChartAddInBase133691::OnChartItemChanged, COMDAT
; _this$ = ecx

; 144  : 	virtual void	OnChartItemChanged( void)							{}

  00000	c2 00 00	 ret	 0
?OnChartItemChanged@CChartAddInBase133691@@MAEXXZ ENDP	; CChartAddInBase133691::OnChartItemChanged
_TEXT	ENDS
; Function compile flags: /Ogtp
; File D:\git\src\IBK\IBK_DRFN\ProjSrc\SrcChartEx\ChartAddIn\ChartPeriodSummaryAddIn\Include_AddIn\I133691\_ChartAddInBase.h
;	COMDAT ?OnUserIndiatorConditionLoaded@CChartAddInBase133691@@MAEXXZ
_TEXT	SEGMENT
?OnUserIndiatorConditionLoaded@CChartAddInBase133691@@MAEXXZ PROC ; CChartAddInBase133691::OnUserIndiatorConditionLoaded, COMDAT
; _this$ = ecx

; 142  : 	virtual void	OnUserIndiatorConditionLoaded( void)				{}

  00000	c2 00 00	 ret	 0
?OnUserIndiatorConditionLoaded@CChartAddInBase133691@@MAEXXZ ENDP ; CChartAddInBase133691::OnUserIndiatorConditionLoaded
_TEXT	ENDS
; Function compile flags: /Ogtp
; File D:\git\src\IBK\IBK_DRFN\ProjSrc\SrcChartEx\ChartAddIn\ChartPeriodSummaryAddIn\Include_AddIn\I133691\_ChartAddInBase.h
;	COMDAT ?OnResetMainBlock@CChartAddInBase133691@@MAEXXZ
_TEXT	SEGMENT
?OnResetMainBlock@CChartAddInBase133691@@MAEXXZ PROC	; CChartAddInBase133691::OnResetMainBlock, COMDAT
; _this$ = ecx

; 140  : 	virtual void	OnResetMainBlock( void)								{}

  00000	c2 00 00	 ret	 0
?OnResetMainBlock@CChartAddInBase133691@@MAEXXZ ENDP	; CChartAddInBase133691::OnResetMainBlock
_TEXT	ENDS
; Function compile flags: /Ogtp
; File D:\git\src\IBK\IBK_DRFN\ProjSrc\SrcChartEx\ChartAddIn\ChartPeriodSummaryAddIn\Include_AddIn\I133691\_ChartAddInBase.h
;	COMDAT ?OnCaptureChanged@CChartAddInBase133691@@MAEXPAUHWND__@@QAUHBITMAP__@@@Z
_TEXT	SEGMENT
_p_hWnd$ = 8						; size = 4
_p_hbmpMainOSB$ = 12					; size = 4
?OnCaptureChanged@CChartAddInBase133691@@MAEXPAUHWND__@@QAUHBITMAP__@@@Z PROC ; CChartAddInBase133691::OnCaptureChanged, COMDAT
; _this$ = ecx

; 138  : 	virtual void	OnCaptureChanged( HWND p_hWnd, const HBITMAP p_hbmpMainOSB)	{}	// (2006/11/5 - Seung-Won, Bae) Support MainOSB

  00000	c2 08 00	 ret	 8
?OnCaptureChanged@CChartAddInBase133691@@MAEXPAUHWND__@@QAUHBITMAP__@@@Z ENDP ; CChartAddInBase133691::OnCaptureChanged
_TEXT	ENDS
; Function compile flags: /Ogtp
; File D:\git\src\IBK\IBK_DRFN\ProjSrc\SrcChartEx\ChartAddIn\ChartPeriodSummaryAddIn\Include_AddIn\I133691\_ChartAddInBase.h
;	COMDAT ?OnTimer@CChartAddInBase133691@@MAEXI@Z
_TEXT	SEGMENT
_p_uTimerID$ = 8					; size = 4
?OnTimer@CChartAddInBase133691@@MAEXI@Z PROC		; CChartAddInBase133691::OnTimer, COMDAT
; _this$ = ecx

; 133  : 	virtual void	OnTimer( UINT p_uTimerID)	{}

  00000	c2 04 00	 ret	 4
?OnTimer@CChartAddInBase133691@@MAEXI@Z ENDP		; CChartAddInBase133691::OnTimer
_TEXT	ENDS
; Function compile flags: /Ogtp
; File D:\git\src\IBK\IBK_DRFN\ProjSrc\SrcChartEx\ChartAddIn\ChartPeriodSummaryAddIn\Include_AddIn\I133691\_ChartAddInBase.h
;	COMDAT ?OnDrawBeforeGraph@CChartAddInBase133691@@MAEXPAUHDC__@@@Z
_TEXT	SEGMENT
_p_hDC$ = 8						; size = 4
?OnDrawBeforeGraph@CChartAddInBase133691@@MAEXPAUHDC__@@@Z PROC ; CChartAddInBase133691::OnDrawBeforeGraph, COMDAT
; _this$ = ecx

; 127  : 	virtual void	OnDrawBeforeGraph( HDC p_hDC)	{}

  00000	c2 04 00	 ret	 4
?OnDrawBeforeGraph@CChartAddInBase133691@@MAEXPAUHDC__@@@Z ENDP ; CChartAddInBase133691::OnDrawBeforeGraph
_TEXT	ENDS
; Function compile flags: /Ogtp
; File D:\git\src\IBK\IBK_DRFN\ProjSrc\SrcChartEx\ChartAddIn\ChartPeriodSummaryAddIn\Include_AddIn\I133691\_ChartAddInBase.h
;	COMDAT ?OnLSharedDataChange@CChartAddInBase133691@@MAEXPBD0@Z
_TEXT	SEGMENT
_p_szLShareKey$ = 8					; size = 4
_p_szLShareValue$ = 12					; size = 4
?OnLSharedDataChange@CChartAddInBase133691@@MAEXPBD0@Z PROC ; CChartAddInBase133691::OnLSharedDataChange, COMDAT
; _this$ = ecx

; 123  : 	virtual void	OnLSharedDataChange( const char *p_szLShareKey, const char *p_szLShareValue)	{}

  00000	c2 08 00	 ret	 8
?OnLSharedDataChange@CChartAddInBase133691@@MAEXPBD0@Z ENDP ; CChartAddInBase133691::OnLSharedDataChange
_TEXT	ENDS
; Function compile flags: /Ogtp
; File D:\git\src\IBK\IBK_DRFN\ProjSrc\SrcChartEx\ChartAddIn\ChartPeriodSummaryAddIn\Include_AddIn\I133691\_ChartAddInBase.h
;	COMDAT ?OnGSharedDataChange@CChartAddInBase133691@@MAEXPBD0H@Z
_TEXT	SEGMENT
_p_szGShareKey$ = 8					; size = 4
_p_szGShareValue$ = 12					; size = 4
_p_bStartShare$ = 16					; size = 4
?OnGSharedDataChange@CChartAddInBase133691@@MAEXPBD0H@Z PROC ; CChartAddInBase133691::OnGSharedDataChange, COMDAT
; _this$ = ecx

; 121  : 	virtual void	OnGSharedDataChange( const char *p_szGShareKey, const char *p_szGShareValue, BOOL p_bStartShare)	{}

  00000	c2 0c 00	 ret	 12			; 0000000cH
?OnGSharedDataChange@CChartAddInBase133691@@MAEXPBD0H@Z ENDP ; CChartAddInBase133691::OnGSharedDataChange
_TEXT	ENDS
; Function compile flags: /Ogtp
; File D:\git\src\IBK\IBK_DRFN\ProjSrc\SrcChartEx\ChartAddIn\ChartPeriodSummaryAddIn\Include_AddIn\I133691\_ChartAddInBase.h
;	COMDAT ?OnOcxDestroyWindow@CChartAddInBase133691@@MAEXXZ
_TEXT	SEGMENT
?OnOcxDestroyWindow@CChartAddInBase133691@@MAEXXZ PROC	; CChartAddInBase133691::OnOcxDestroyWindow, COMDAT
; _this$ = ecx

; 111  : 	virtual void	OnOcxDestroyWindow( void)							{	m_bOcxDestroyed = TRUE;	}

  00000	c7 41 34 01 00
	00 00		 mov	 DWORD PTR [ecx+52], 1
  00007	c3		 ret	 0
?OnOcxDestroyWindow@CChartAddInBase133691@@MAEXXZ ENDP	; CChartAddInBase133691::OnOcxDestroyWindow
_TEXT	ENDS
; Function compile flags: /Ogtp
; File D:\git\src\IBK\IBK_DRFN\ProjSrc\SrcChartEx\ChartAddIn\ChartPeriodSummaryAddIn\Include_AddIn\I133691\_ChartAddInBase.h
;	COMDAT ?InvokeAddIn@CChartAddInBase133691@@MAEHHJ@Z
_TEXT	SEGMENT
_p_nCommandType$ = 8					; size = 4
_p_lData$ = 12						; size = 4
?InvokeAddIn@CChartAddInBase133691@@MAEHHJ@Z PROC	; CChartAddInBase133691::InvokeAddIn, COMDAT
; _this$ = ecx

; 95   : 	virtual BOOL	InvokeAddIn( int p_nCommandType, long p_lData)	{	return FALSE;	}

  00000	33 c0		 xor	 eax, eax
  00002	c2 08 00	 ret	 8
?InvokeAddIn@CChartAddInBase133691@@MAEHHJ@Z ENDP	; CChartAddInBase133691::InvokeAddIn
_TEXT	ENDS
; Function compile flags: /Ogtp
; File D:\git\src\IBK\IBK_DRFN\ProjSrc\SrcChartEx\ChartAddIn\ChartPeriodSummaryAddIn\Include_AddIn\I133691\_ChartAddInBase.h
;	COMDAT ?GetAddInCustomInterface@CChartAddInBase133691@@MAEPAUIUnknown@@XZ
_TEXT	SEGMENT
?GetAddInCustomInterface@CChartAddInBase133691@@MAEPAUIUnknown@@XZ PROC ; CChartAddInBase133691::GetAddInCustomInterface, COMDAT
; _this$ = ecx

; 91   : 	virtual IUnknown *	GetAddInCustomInterface( void)				{	return NULL;	}

  00000	33 c0		 xor	 eax, eax
  00002	c3		 ret	 0
?GetAddInCustomInterface@CChartAddInBase133691@@MAEPAUIUnknown@@XZ ENDP ; CChartAddInBase133691::GetAddInCustomInterface
_TEXT	ENDS
; Function compile flags: /Ogtp
; File D:\git\src\IBK\IBK_DRFN\ProjSrc\SrcChartEx\ChartAddIn\ChartPeriodSummaryAddIn\Include_AddIn\I133691\_ChartAddInBase.h
;	COMDAT ?QueryInterface@CChartAddInBase133691@@MAGJABU_GUID@@PAPAX@Z
_TEXT	SEGMENT
_this$ = 8						; size = 4
_iid$ = 12						; size = 4
_ppvObject$ = 16					; size = 4
?QueryInterface@CChartAddInBase133691@@MAGJABU_GUID@@PAPAX@Z PROC ; CChartAddInBase133691::QueryInterface, COMDAT

; 54   : 	_IWRAPPER_IUNKNOWN_INTERFACE()

  00000	b8 02 40 00 80	 mov	 eax, -2147467262	; 80004002H
  00005	c2 0c 00	 ret	 12			; 0000000cH
?QueryInterface@CChartAddInBase133691@@MAGJABU_GUID@@PAPAX@Z ENDP ; CChartAddInBase133691::QueryInterface
_TEXT	ENDS
; Function compile flags: /Ogtp
; File D:\git\src\IBK\IBK_DRFN\ProjSrc\SrcChartEx\ChartAddIn\ChartPeriodSummaryAddIn\Include_AddIn\I133691\_ChartAddInBase.h
;	COMDAT ?Release@CChartAddInBase133691@@MAGKXZ
_TEXT	SEGMENT
_this$ = 8						; size = 4
?Release@CChartAddInBase133691@@MAGKXZ PROC		; CChartAddInBase133691::Release, COMDAT

; 54   : 	_IWRAPPER_IUNKNOWN_INTERFACE()

  00000	55		 push	 ebp
  00001	8b ec		 mov	 ebp, esp
  00003	5d		 pop	 ebp
  00004	e9 00 00 00 00	 jmp	 ?Release@CIWUnknown@@MAGKXZ ; CIWUnknown::Release
?Release@CChartAddInBase133691@@MAGKXZ ENDP		; CChartAddInBase133691::Release
_TEXT	ENDS
; Function compile flags: /Ogtp
; File D:\git\src\IBK\IBK_DRFN\ProjSrc\SrcChartEx\ChartAddIn\ChartPeriodSummaryAddIn\Include_AddIn\I133691\_ChartAddInBase.h
;	COMDAT ?AddRef@CChartAddInBase133691@@MAGKXZ
_TEXT	SEGMENT
_this$ = 8						; size = 4
?AddRef@CChartAddInBase133691@@MAGKXZ PROC		; CChartAddInBase133691::AddRef, COMDAT

; 54   : 	_IWRAPPER_IUNKNOWN_INTERFACE()

  00000	55		 push	 ebp
  00001	8b ec		 mov	 ebp, esp
  00003	5d		 pop	 ebp
  00004	e9 00 00 00 00	 jmp	 ?AddRef@CIWUnknown@@MAGKXZ ; CIWUnknown::AddRef
?AddRef@CChartAddInBase133691@@MAGKXZ ENDP		; CChartAddInBase133691::AddRef
_TEXT	ENDS
; Function compile flags: /Ogtp
; File D:\git\src\IBK\IBK_DRFN\ProjSrc\SrcChartEx\ChartAddIn\ChartPeriodSummaryAddIn\Include_AddIn\_IWUnknown.h
;	COMDAT ?PreDestruct@CIWUnknown@@MAEXXZ
_TEXT	SEGMENT
?PreDestruct@CIWUnknown@@MAEXXZ PROC			; CIWUnknown::PreDestruct, COMDAT
; _this$ = ecx

; 48   : 	virtual void	PreDestruct( void)		{}

  00000	c2 00 00	 ret	 0
?PreDestruct@CIWUnknown@@MAEXXZ ENDP			; CIWUnknown::PreDestruct
_TEXT	ENDS
; Function compile flags: /Ogtp
; File D:\git\src\IBK\IBK_DRFN\ProjSrc\SrcChartEx\ChartAddIn\ChartPeriodSummaryAddIn\Include_AddIn\_IWUnknown.h
;	COMDAT ?PreDestructX@CIWUnknown@@MAEXXZ
_TEXT	SEGMENT
?PreDestructX@CIWUnknown@@MAEXXZ PROC			; CIWUnknown::PreDestructX, COMDAT
; _this$ = ecx

; 47   : 	virtual void	PreDestructX( void)		{}

  00000	c2 00 00	 ret	 0
?PreDestructX@CIWUnknown@@MAEXXZ ENDP			; CIWUnknown::PreDestructX
_TEXT	ENDS
; Function compile flags: /Ogtp
; File D:\git\src\IBK\IBK_DRFN\ProjSrc\SrcChartEx\ChartAddIn\ChartPeriodSummaryAddIn\Include_AddIn\_IWUnknown.h
;	COMDAT ?PostConstruct@CIWUnknown@@MAEXXZ
_TEXT	SEGMENT
?PostConstruct@CIWUnknown@@MAEXXZ PROC			; CIWUnknown::PostConstruct, COMDAT
; _this$ = ecx

; 46   : 	virtual void	PostConstruct( void)	{}

  00000	c2 00 00	 ret	 0
?PostConstruct@CIWUnknown@@MAEXXZ ENDP			; CIWUnknown::PostConstruct
_TEXT	ENDS
; Function compile flags: /Ogtp
; File C:\Program Files (x86)\Microsoft Visual Studio\2019\Community\VC\Tools\MSVC\14.29.30133\atlmfc\include\afxwin1.inl
; File C:\Program Files (x86)\Microsoft Visual Studio\2019\Community\VC\Tools\MSVC\14.29.30133\atlmfc\include\afx.inl
;	COMDAT ??_GCRgn@@UAEPAXI@Z
_TEXT	SEGMENT
___flags$ = 8						; size = 4
??_GCRgn@@UAEPAXI@Z PROC				; CRgn::`scalar deleting destructor', COMDAT
; _this$ = ecx
  00000	55		 push	 ebp
  00001	8b ec		 mov	 ebp, esp
; File C:\Program Files (x86)\Microsoft Visual Studio\2019\Community\VC\Tools\MSVC\14.29.30133\atlmfc\include\afxwin1.inl

; 266  : 	{ }

  00003	56		 push	 esi
  00004	8b f1		 mov	 esi, ecx
  00006	c7 06 00 00 00
	00		 mov	 DWORD PTR [esi], OFFSET ??_7CRgn@@6B@
  0000c	e8 00 00 00 00	 call	 ??1CGdiObject@@UAE@XZ	; CGdiObject::~CGdiObject
  00011	8b 45 08	 mov	 eax, DWORD PTR ___flags$[ebp]
  00014	a8 01		 test	 al, 1
  00016	74 1f		 je	 SHORT $LN12@scalar
  00018	a8 04		 test	 al, 4
  0001a	75 10		 jne	 SHORT $LN3@scalar
; File C:\Program Files (x86)\Microsoft Visual Studio\2019\Community\VC\Tools\MSVC\14.29.30133\atlmfc\include\afx.inl

; 112  : 	{ ::operator delete(p); }

  0001c	56		 push	 esi
  0001d	e8 00 00 00 00	 call	 ??3@YAXPAX@Z		; operator delete
  00022	83 c4 04	 add	 esp, 4
  00025	8b c6		 mov	 eax, esi
  00027	5e		 pop	 esi
  00028	5d		 pop	 ebp
  00029	c2 04 00	 ret	 4
$LN3@scalar:
  0002c	6a 08		 push	 8
  0002e	56		 push	 esi
  0002f	e8 00 00 00 00	 call	 ?__global_delete@@YAXPAXI@Z ; __global_delete
  00034	83 c4 08	 add	 esp, 8
$LN12@scalar:
  00037	8b c6		 mov	 eax, esi
  00039	5e		 pop	 esi
  0003a	5d		 pop	 ebp
  0003b	c2 04 00	 ret	 4
??_GCRgn@@UAEPAXI@Z ENDP				; CRgn::`scalar deleting destructor'
_TEXT	ENDS
; Function compile flags: /Ogtp
; File C:\Program Files (x86)\Microsoft Visual Studio\2019\Community\VC\Tools\MSVC\14.29.30133\atlmfc\include\afxwin1.inl
;	COMDAT ??1CRgn@@UAE@XZ
_TEXT	SEGMENT
??1CRgn@@UAE@XZ PROC					; CRgn::~CRgn, COMDAT
; _this$ = ecx

; 266  : 	{ }

  00000	c7 01 00 00 00
	00		 mov	 DWORD PTR [ecx], OFFSET ??_7CRgn@@6B@
  00006	e9 00 00 00 00	 jmp	 ??1CGdiObject@@UAE@XZ	; CGdiObject::~CGdiObject
??1CRgn@@UAE@XZ ENDP					; CRgn::~CRgn
_TEXT	ENDS
; Function compile flags: /Ogtp
; File C:\Program Files (x86)\Microsoft Visual Studio\2019\Community\VC\Tools\MSVC\14.29.30133\atlmfc\include\afxwin1.inl
; File C:\Program Files (x86)\Microsoft Visual Studio\2019\Community\VC\Tools\MSVC\14.29.30133\atlmfc\include\afx.inl
;	COMDAT ??_GCBitmap@@UAEPAXI@Z
_TEXT	SEGMENT
___flags$ = 8						; size = 4
??_GCBitmap@@UAEPAXI@Z PROC				; CBitmap::`scalar deleting destructor', COMDAT
; _this$ = ecx
  00000	55		 push	 ebp
  00001	8b ec		 mov	 ebp, esp
; File C:\Program Files (x86)\Microsoft Visual Studio\2019\Community\VC\Tools\MSVC\14.29.30133\atlmfc\include\afxwin1.inl

; 179  : 	{ }

  00003	56		 push	 esi
  00004	8b f1		 mov	 esi, ecx
  00006	c7 06 00 00 00
	00		 mov	 DWORD PTR [esi], OFFSET ??_7CBitmap@@6B@
  0000c	e8 00 00 00 00	 call	 ??1CGdiObject@@UAE@XZ	; CGdiObject::~CGdiObject
  00011	8b 45 08	 mov	 eax, DWORD PTR ___flags$[ebp]
  00014	a8 01		 test	 al, 1
  00016	74 1f		 je	 SHORT $LN12@scalar
  00018	a8 04		 test	 al, 4
  0001a	75 10		 jne	 SHORT $LN3@scalar
; File C:\Program Files (x86)\Microsoft Visual Studio\2019\Community\VC\Tools\MSVC\14.29.30133\atlmfc\include\afx.inl

; 112  : 	{ ::operator delete(p); }

  0001c	56		 push	 esi
  0001d	e8 00 00 00 00	 call	 ??3@YAXPAX@Z		; operator delete
  00022	83 c4 04	 add	 esp, 4
  00025	8b c6		 mov	 eax, esi
  00027	5e		 pop	 esi
  00028	5d		 pop	 ebp
  00029	c2 04 00	 ret	 4
$LN3@scalar:
  0002c	6a 08		 push	 8
  0002e	56		 push	 esi
  0002f	e8 00 00 00 00	 call	 ?__global_delete@@YAXPAXI@Z ; __global_delete
  00034	83 c4 08	 add	 esp, 8
$LN12@scalar:
  00037	8b c6		 mov	 eax, esi
  00039	5e		 pop	 esi
  0003a	5d		 pop	 ebp
  0003b	c2 04 00	 ret	 4
??_GCBitmap@@UAEPAXI@Z ENDP				; CBitmap::`scalar deleting destructor'
_TEXT	ENDS
; Function compile flags: /Ogtp
; File C:\Program Files (x86)\Microsoft Visual Studio\2019\Community\VC\Tools\MSVC\14.29.30133\atlmfc\include\afxwin1.inl
;	COMDAT ??1CBitmap@@UAE@XZ
_TEXT	SEGMENT
??1CBitmap@@UAE@XZ PROC					; CBitmap::~CBitmap, COMDAT
; _this$ = ecx

; 179  : 	{ }

  00000	c7 01 00 00 00
	00		 mov	 DWORD PTR [ecx], OFFSET ??_7CBitmap@@6B@
  00006	e9 00 00 00 00	 jmp	 ??1CGdiObject@@UAE@XZ	; CGdiObject::~CGdiObject
??1CBitmap@@UAE@XZ ENDP					; CBitmap::~CBitmap
_TEXT	ENDS
; Function compile flags: /Ogtp
; File C:\Program Files (x86)\Microsoft Visual Studio\2019\Community\VC\Tools\MSVC\14.29.30133\atlmfc\include\afx.inl
;	COMDAT ??_GCGdiObject@@UAEPAXI@Z
_TEXT	SEGMENT
___flags$ = 8						; size = 4
??_GCGdiObject@@UAEPAXI@Z PROC				; CGdiObject::`scalar deleting destructor', COMDAT
; _this$ = ecx
  00000	55		 push	 ebp
  00001	8b ec		 mov	 ebp, esp
  00003	56		 push	 esi
  00004	8b f1		 mov	 esi, ecx
  00006	e8 00 00 00 00	 call	 ??1CGdiObject@@UAE@XZ	; CGdiObject::~CGdiObject
  0000b	8b 45 08	 mov	 eax, DWORD PTR ___flags$[ebp]
  0000e	a8 01		 test	 al, 1
  00010	74 1f		 je	 SHORT $LN9@scalar
  00012	a8 04		 test	 al, 4
  00014	75 10		 jne	 SHORT $LN3@scalar

; 112  : 	{ ::operator delete(p); }

  00016	56		 push	 esi
  00017	e8 00 00 00 00	 call	 ??3@YAXPAX@Z		; operator delete
  0001c	83 c4 04	 add	 esp, 4
  0001f	8b c6		 mov	 eax, esi
  00021	5e		 pop	 esi
  00022	5d		 pop	 ebp
  00023	c2 04 00	 ret	 4
$LN3@scalar:
  00026	6a 08		 push	 8
  00028	56		 push	 esi
  00029	e8 00 00 00 00	 call	 ?__global_delete@@YAXPAXI@Z ; __global_delete
  0002e	83 c4 08	 add	 esp, 8
$LN9@scalar:
  00031	8b c6		 mov	 eax, esi
  00033	5e		 pop	 esi
  00034	5d		 pop	 ebp
  00035	c2 04 00	 ret	 4
??_GCGdiObject@@UAEPAXI@Z ENDP				; CGdiObject::`scalar deleting destructor'
_TEXT	ENDS
; Function compile flags: /Ogtp
; File C:\Program Files (x86)\Microsoft Visual Studio\2019\Community\VC\Tools\MSVC\14.29.30133\atlmfc\include\afxwin1.inl
;	COMDAT ??1CGdiObject@@UAE@XZ
_TEXT	SEGMENT
_pException$2 = -540					; size = 4
_strMsg$3 = -536					; size = 4
_szErrorMessage$4 = -532				; size = 512
__$ArrayPad$ = -20					; size = 4
__$EHRec$ = -16						; size = 16
??1CGdiObject@@UAE@XZ PROC				; CGdiObject::~CGdiObject, COMDAT
; _this$ = ecx

; 74   : {

  00000	55		 push	 ebp
  00001	8b ec		 mov	 ebp, esp
  00003	6a ff		 push	 -1
  00005	68 00 00 00 00	 push	 __ehhandler$??1CGdiObject@@UAE@XZ
  0000a	64 a1 00 00 00
	00		 mov	 eax, DWORD PTR fs:0
  00010	50		 push	 eax
  00011	81 ec 10 02 00
	00		 sub	 esp, 528		; 00000210H
  00017	a1 00 00 00 00	 mov	 eax, DWORD PTR ___security_cookie
  0001c	33 c5		 xor	 eax, ebp
  0001e	89 45 ec	 mov	 DWORD PTR __$ArrayPad$[ebp], eax
  00021	53		 push	 ebx
  00022	56		 push	 esi
  00023	57		 push	 edi
  00024	50		 push	 eax
  00025	8d 45 f4	 lea	 eax, DWORD PTR __$EHRec$[ebp+4]
  00028	64 a3 00 00 00
	00		 mov	 DWORD PTR fs:0, eax
  0002e	89 65 f0	 mov	 DWORD PTR __$EHRec$[ebp], esp
  00031	c7 01 00 00 00
	00		 mov	 DWORD PTR [ecx], OFFSET ??_7CGdiObject@@6B@

; 75   : 	AFX_BEGIN_DESTRUCTOR

  00037	c7 45 fc 00 00
	00 00		 mov	 DWORD PTR __$EHRec$[ebp+12], 0

; 76   : 	DeleteObject();

  0003e	e8 00 00 00 00	 call	 ?DeleteObject@CGdiObject@@QAEHXZ ; CGdiObject::DeleteObject
$LN18@CGdiObject:

; 78   : }

  00043	8b 4d f4	 mov	 ecx, DWORD PTR __$EHRec$[ebp+4]
  00046	64 89 0d 00 00
	00 00		 mov	 DWORD PTR fs:0, ecx
  0004d	59		 pop	 ecx
  0004e	5f		 pop	 edi
  0004f	5e		 pop	 esi
  00050	5b		 pop	 ebx
  00051	8b 4d ec	 mov	 ecx, DWORD PTR __$ArrayPad$[ebp]
  00054	33 cd		 xor	 ecx, ebp
  00056	e8 00 00 00 00	 call	 @__security_check_cookie@4
  0005b	8b e5		 mov	 esp, ebp
  0005d	5d		 pop	 ebp
  0005e	c3		 ret	 0
__catch$??1CGdiObject@@UAE@XZ$0:

; 77   : 	AFX_END_DESTRUCTOR

  0005f	8d 8d e8 fd ff
	ff		 lea	 ecx, DWORD PTR _strMsg$3[ebp]
  00065	ff 15 00 00 00
	00		 call	 DWORD PTR __imp_??0?$CStringT@DV?$StrTraitMFC_DLL@DV?$ChTraitsCRT@D@ATL@@@@@ATL@@QAE@XZ
  0006b	8b b5 e4 fd ff
	ff		 mov	 esi, DWORD PTR _pException$2[ebp]
  00071	8d 8d ec fd ff
	ff		 lea	 ecx, DWORD PTR _szErrorMessage$4[ebp]
  00077	6a 00		 push	 0
  00079	68 00 02 00 00	 push	 512			; 00000200H
  0007e	51		 push	 ecx
  0007f	8b 06		 mov	 eax, DWORD PTR [esi]
  00081	8b ce		 mov	 ecx, esi
  00083	c6 45 fc 02	 mov	 BYTE PTR __$EHRec$[ebp+12], 2
  00087	ff 50 14	 call	 DWORD PTR [eax+20]
  0008a	85 c0		 test	 eax, eax
  0008c	74 2a		 je	 SHORT $LN9@CGdiObject
  0008e	8d 85 ec fd ff
	ff		 lea	 eax, DWORD PTR _szErrorMessage$4[ebp]
  00094	50		 push	 eax
  00095	6a 4d		 push	 77			; 0000004dH
  00097	68 00 00 00 00	 push	 OFFSET ??_C@_0HD@JJCHHHNK@C?3?2Program?5Files?5?$CIx86?$CJ?2Microsof@
  0009c	68 00 00 00 00	 push	 OFFSET ??_C@_0BP@OIEOKIDM@Exception?5thrown?5in?5destructor@
  000a1	8d 85 e8 fd ff
	ff		 lea	 eax, DWORD PTR _strMsg$3[ebp]
  000a7	68 00 00 00 00	 push	 OFFSET ??_C@_0BB@HBOOMJBF@?$CFTs?5?$CI?$CFTs?3?$CFd?$CJ?6?$CFTs@
  000ac	50		 push	 eax
  000ad	ff 15 00 00 00
	00		 call	 DWORD PTR __imp_?Format@?$CStringT@DV?$StrTraitMFC_DLL@DV?$ChTraitsCRT@D@ATL@@@@@ATL@@QAAXPBDZZ
  000b3	83 c4 18	 add	 esp, 24			; 00000018H
  000b6	eb 21		 jmp	 SHORT $LN10@CGdiObject
$LN9@CGdiObject:
  000b8	6a 4d		 push	 77			; 0000004dH
  000ba	68 00 00 00 00	 push	 OFFSET ??_C@_0HD@JJCHHHNK@C?3?2Program?5Files?5?$CIx86?$CJ?2Microsof@
  000bf	68 00 00 00 00	 push	 OFFSET ??_C@_0BP@OIEOKIDM@Exception?5thrown?5in?5destructor@
  000c4	8d 85 e8 fd ff
	ff		 lea	 eax, DWORD PTR _strMsg$3[ebp]
  000ca	68 00 00 00 00	 push	 OFFSET ??_C@_0N@OMEMOKLE@?$CFTs?5?$CI?$CFTs?3?$CFd?$CJ@
  000cf	50		 push	 eax
  000d0	ff 15 00 00 00
	00		 call	 DWORD PTR __imp_?Format@?$CStringT@DV?$StrTraitMFC_DLL@DV?$ChTraitsCRT@D@ATL@@@@@ATL@@QAAXPBDZZ
  000d6	83 c4 14	 add	 esp, 20			; 00000014H
$LN10@CGdiObject:
  000d9	6a 00		 push	 0
  000db	6a 00		 push	 0
  000dd	ff b5 e8 fd ff
	ff		 push	 DWORD PTR _strMsg$3[ebp]
  000e3	e8 00 00 00 00	 call	 ?AfxMessageBox@@YGHPBDII@Z ; AfxMessageBox
  000e8	8d 8d e8 fd ff
	ff		 lea	 ecx, DWORD PTR _strMsg$3[ebp]
  000ee	ff 15 00 00 00
	00		 call	 DWORD PTR __imp_??1?$CStringT@DV?$StrTraitMFC_DLL@DV?$ChTraitsCRT@D@ATL@@@@@ATL@@QAE@XZ
  000f4	8b 06		 mov	 eax, DWORD PTR [esi]
  000f6	8b ce		 mov	 ecx, esi
  000f8	6a 01		 push	 1
  000fa	ff 50 04	 call	 DWORD PTR [eax+4]
  000fd	b8 00 00 00 00	 mov	 eax, $LN18@CGdiObject
  00102	c3		 ret	 0
_TEXT	ENDS
;	COMDAT text$x
text$x	SEGMENT
__unwindfunclet$??1CGdiObject@@UAE@XZ$2:
  00000	8d 8d e8 fd ff
	ff		 lea	 ecx, DWORD PTR _strMsg$3[ebp]
  00006	ff 25 00 00 00
	00		 jmp	 DWORD PTR __imp_??1?$CStringT@DV?$StrTraitMFC_DLL@DV?$ChTraitsCRT@D@ATL@@@@@ATL@@QAE@XZ
  0000c	cc		 int	 3
  0000d	cc		 int	 3
  0000e	cc		 int	 3
  0000f	cc		 int	 3
  00010	cc		 int	 3
__ehhandler$??1CGdiObject@@UAE@XZ:
  00011	90		 npad	 1
  00012	90		 npad	 1
  00013	8b 54 24 08	 mov	 edx, DWORD PTR [esp+8]
  00017	8d 42 0c	 lea	 eax, DWORD PTR [edx+12]
  0001a	8b 8a e0 fd ff
	ff		 mov	 ecx, DWORD PTR [edx-544]
  00020	33 c8		 xor	 ecx, eax
  00022	e8 00 00 00 00	 call	 @__security_check_cookie@4
  00027	8b 4a f8	 mov	 ecx, DWORD PTR [edx-8]
  0002a	33 c8		 xor	 ecx, eax
  0002c	e8 00 00 00 00	 call	 @__security_check_cookie@4
  00031	b8 00 00 00 00	 mov	 eax, OFFSET __ehfuncinfo$??1CGdiObject@@UAE@XZ
  00036	e9 00 00 00 00	 jmp	 ___CxxFrameHandler3
text$x	ENDS
??1CGdiObject@@UAE@XZ ENDP				; CGdiObject::~CGdiObject
; Function compile flags: /Ogtp
; File C:\Program Files (x86)\Microsoft Visual Studio\2019\Community\VC\Tools\MSVC\14.29.30133\atlmfc\include\afx.inl
;	COMDAT ?_AfxInitManaged@@YAHXZ
_TEXT	SEGMENT
?_AfxInitManaged@@YAHXZ PROC				; _AfxInitManaged, COMDAT

; 87   : 	return 0;

  00000	33 c0		 xor	 eax, eax

; 88   : }

  00002	c3		 ret	 0
?_AfxInitManaged@@YAHXZ ENDP				; _AfxInitManaged
_TEXT	ENDS
; Function compile flags: /Ogtp
; File C:\Program Files (x86)\Microsoft Visual Studio\2019\Community\VC\Tools\MSVC\14.29.30133\atlmfc\include\afx.inl
;	COMDAT ?Dump@CObject@@UBEXAAVCDumpContext@@@Z
_TEXT	SEGMENT
___formal$ = 8						; size = 4
?Dump@CObject@@UBEXAAVCDumpContext@@@Z PROC		; CObject::Dump, COMDAT
; _this$ = ecx

; 122  : 	{ /* no dumping in release builds */ }

  00000	c2 04 00	 ret	 4
?Dump@CObject@@UBEXAAVCDumpContext@@@Z ENDP		; CObject::Dump
_TEXT	ENDS
; Function compile flags: /Ogtp
; File C:\Program Files (x86)\Microsoft Visual Studio\2019\Community\VC\Tools\MSVC\14.29.30133\atlmfc\include\afx.inl
;	COMDAT ?AssertValid@CObject@@UBEXXZ
_TEXT	SEGMENT
?AssertValid@CObject@@UBEXXZ PROC			; CObject::AssertValid, COMDAT
; _this$ = ecx

; 120  : 	{ /* no asserts in release builds */ }

  00000	c2 00 00	 ret	 0
?AssertValid@CObject@@UBEXXZ ENDP			; CObject::AssertValid
_TEXT	ENDS
; Function compile flags: /Ogtp
; File C:\Program Files (x86)\Microsoft Visual Studio\2019\Community\VC\Tools\MSVC\14.29.30133\atlmfc\include\afx.inl
;	COMDAT ?Serialize@CObject@@UAEXAAVCArchive@@@Z
_TEXT	SEGMENT
___formal$ = 8						; size = 4
?Serialize@CObject@@UAEXAAVCArchive@@@Z PROC		; CObject::Serialize, COMDAT
; _this$ = ecx

; 106  : 	{ /* CObject does not serialize anything by default */ }

  00000	c2 04 00	 ret	 4
?Serialize@CObject@@UAEXAAVCArchive@@@Z ENDP		; CObject::Serialize
_TEXT	ENDS
; Function compile flags: /Ogtp
; File C:\Program Files (x86)\Microsoft Visual Studio\2019\Community\VC\Tools\MSVC\14.29.30133\atlmfc\include\afx.inl
;	COMDAT ??1CObject@@UAE@XZ
_TEXT	SEGMENT
??1CObject@@UAE@XZ PROC					; CObject::~CObject, COMDAT
; _this$ = ecx

; 104  : 	{ }

  00000	c2 00 00	 ret	 0
??1CObject@@UAE@XZ ENDP					; CObject::~CObject
_TEXT	ENDS
; Function compile flags: /Ogtp
; File D:\git\src\IBK\IBK_DRFN\ProjSrc\SrcChartEx\ChartAddIn\ChartPeriodSummaryAddIn\ChartDragCandleAnalAddInImp.cpp
;	COMDAT ?__empty_global_delete@@YAXPAXI@Z
_TEXT	SEGMENT
___formal$ = 8						; size = 4
___formal$ = 12						; size = 4
?__empty_global_delete@@YAXPAXI@Z PROC			; __empty_global_delete, COMDAT

  00000	c2 00 00	 ret	 0
?__empty_global_delete@@YAXPAXI@Z ENDP			; __empty_global_delete
_TEXT	ENDS
; Function compile flags: /Ogtp
; File D:\git\src\IBK\IBK_DRFN\ProjSrc\SrcChartEx\ChartAddIn\ChartPeriodSummaryAddIn\ChartDragCandleAnalAddInImp.cpp
;	COMDAT ?__empty_global_delete@@YAXPAX@Z
_TEXT	SEGMENT
___formal$ = 8						; size = 4
?__empty_global_delete@@YAXPAX@Z PROC			; __empty_global_delete, COMDAT

  00000	c2 00 00	 ret	 0
?__empty_global_delete@@YAXPAX@Z ENDP			; __empty_global_delete
_TEXT	ENDS
END
