; Listing generated by Microsoft (R) Optimizing Compiler Version 19.29.30145.0 

	TITLE	D:\git\src\IBK\IBK_DRFN\#DRfn-CS\_Obj\ChartPeriodSummaryAddIn\DlgConfirm.obj
	.686P
	.XMM
	include listing.inc
	.model	flat

INCLUDELIB MSVCRT
INCLUDELIB OLDNAMES

PUBLIC	?__empty_global_delete@@YAXPAX@Z		; __empty_global_delete
PUBLIC	?__empty_global_delete@@YAXPAXI@Z		; __empty_global_delete
PUBLIC	??1CObject@@UAE@XZ				; CObject::~CObject
PUBLIC	?Serialize@CObject@@UAEXAAVCArchive@@@Z		; CObject::Serialize
PUBLIC	?AssertValid@CObject@@UBEXXZ			; CObject::AssertValid
PUBLIC	?Dump@CObject@@UBEXAAVCDumpContext@@@Z		; CObject::Dump
PUBLIC	?DoDataExchange@CWnd@@MAEXPAVCDataExchange@@@Z	; CWnd::DoDataExchange
PUBLIC	?BeginModalState@CWnd@@UAEXXZ			; CWnd::BeginModalState
PUBLIC	?EndModalState@CWnd@@UAEXXZ			; CWnd::EndModalState
PUBLIC	?Create@CDialog@@UAEHIPAVCWnd@@@Z		; CDialog::Create
PUBLIC	??_GCListBox@@UAEPAXI@Z				; CListBox::`scalar deleting destructor'
PUBLIC	??0CDlgConfirm@@QAE@PAVCWnd@@@Z			; CDlgConfirm::CDlgConfirm
PUBLIC	?SetData@CDlgConfirm@@QAEXV?$CStringT@DV?$StrTraitMFC_DLL@DV?$ChTraitsCRT@D@ATL@@@@@ATL@@HH@Z ; CDlgConfirm::SetData
PUBLIC	?DoDataExchange@CDlgConfirm@@MAEXPAVCDataExchange@@@Z ; CDlgConfirm::DoDataExchange
PUBLIC	?OnInitDialog@CDlgConfirm@@MAEHXZ		; CDlgConfirm::OnInitDialog
PUBLIC	?GetThisMessageMap@CDlgConfirm@@KGPBUAFX_MSGMAP@@XZ ; CDlgConfirm::GetThisMessageMap
PUBLIC	?GetMessageMap@CDlgConfirm@@MBEPBUAFX_MSGMAP@@XZ ; CDlgConfirm::GetMessageMap
PUBLIC	??_GCDlgConfirm@@UAEPAXI@Z			; CDlgConfirm::`scalar deleting destructor'
PUBLIC	??0CDlgConfirmList@@QAE@PAVCWnd@@@Z		; CDlgConfirmList::CDlgConfirmList
PUBLIC	??1CDlgConfirmList@@UAE@XZ			; CDlgConfirmList::~CDlgConfirmList
PUBLIC	?SetData@CDlgConfirmList@@QAEXV?$CStringT@DV?$StrTraitMFC_DLL@DV?$ChTraitsCRT@D@ATL@@@@@ATL@@HH@Z ; CDlgConfirmList::SetData
PUBLIC	?ExSetData@CDlgConfirmList@@QAEXV?$CStringT@DV?$StrTraitMFC_DLL@DV?$ChTraitsCRT@D@ATL@@@@@ATL@@HH@Z ; CDlgConfirmList::ExSetData
PUBLIC	?DoDataExchange@CDlgConfirmList@@MAEXPAVCDataExchange@@@Z ; CDlgConfirmList::DoDataExchange
PUBLIC	??0?$CList@PAUstCDlgConfirmList_Item@@PAU1@@@QAE@H@Z ; CList<stCDlgConfirmList_Item *,stCDlgConfirmList_Item *>::CList<stCDlgConfirmList_Item *,stCDlgConfirmList_Item *>
PUBLIC	?AddTail@?$CList@PAUstCDlgConfirmList_Item@@PAU1@@@QAEPAU__POSITION@@PAUstCDlgConfirmList_Item@@@Z ; CList<stCDlgConfirmList_Item *,stCDlgConfirmList_Item *>::AddTail
PUBLIC	?RemoveAll@?$CList@PAUstCDlgConfirmList_Item@@PAU1@@@QAEXXZ ; CList<stCDlgConfirmList_Item *,stCDlgConfirmList_Item *>::RemoveAll
PUBLIC	?NewNode@?$CList@PAUstCDlgConfirmList_Item@@PAU1@@@IAEPAUCNode@1@PAU21@0@Z ; CList<stCDlgConfirmList_Item *,stCDlgConfirmList_Item *>::NewNode
PUBLIC	??1?$CList@PAUstCDlgConfirmList_Item@@PAU1@@@UAE@XZ ; CList<stCDlgConfirmList_Item *,stCDlgConfirmList_Item *>::~CList<stCDlgConfirmList_Item *,stCDlgConfirmList_Item *>
PUBLIC	?Serialize@?$CList@PAUstCDlgConfirmList_Item@@PAU1@@@UAEXAAVCArchive@@@Z ; CList<stCDlgConfirmList_Item *,stCDlgConfirmList_Item *>::Serialize
PUBLIC	??_G?$CList@PAUstCDlgConfirmList_Item@@PAU1@@@UAEPAXI@Z ; CList<stCDlgConfirmList_Item *,stCDlgConfirmList_Item *>::`scalar deleting destructor'
PUBLIC	?_DoShowIndex@CDlgConfirmList@@AAEHH@Z		; CDlgConfirmList::_DoShowIndex
PUBLIC	?OnInitDialog@CDlgConfirmList@@MAEHXZ		; CDlgConfirmList::OnInitDialog
PUBLIC	?OnSelchangeList1@CDlgConfirmList@@IAEXXZ	; CDlgConfirmList::OnSelchangeList1
PUBLIC	?GetThisMessageMap@CDlgConfirmList@@KGPBUAFX_MSGMAP@@XZ ; CDlgConfirmList::GetThisMessageMap
PUBLIC	?GetMessageMap@CDlgConfirmList@@MBEPBUAFX_MSGMAP@@XZ ; CDlgConfirmList::GetMessageMap
PUBLIC	??_GCDlgConfirmList@@UAEPAXI@Z			; CDlgConfirmList::`scalar deleting destructor'
PUBLIC	??$SerializeElements@PAUstCDlgConfirmList_Item@@@@YGXAAVCArchive@@PAPAUstCDlgConfirmList_Item@@H@Z ; SerializeElements<stCDlgConfirmList_Item *>
PUBLIC	??_C@_00CNPNBAHC@@				; `string'
PUBLIC	??_7CListBox@@6B@				; CListBox::`vftable'
PUBLIC	??_R0?AVCObject@@@8				; CObject `RTTI Type Descriptor'
PUBLIC	??_R3CObject@@8					; CObject::`RTTI Class Hierarchy Descriptor'
PUBLIC	??_R2CObject@@8					; CObject::`RTTI Base Class Array'
PUBLIC	??_R1A@?0A@EA@CObject@@8			; CObject::`RTTI Base Class Descriptor at (0,-1,0,64)'
PUBLIC	??_R1A@?0A@EA@CWnd@@8				; CWnd::`RTTI Base Class Descriptor at (0,-1,0,64)'
PUBLIC	??_R0?AVCWnd@@@8				; CWnd `RTTI Type Descriptor'
PUBLIC	??_R3CWnd@@8					; CWnd::`RTTI Class Hierarchy Descriptor'
PUBLIC	??_R2CWnd@@8					; CWnd::`RTTI Base Class Array'
PUBLIC	??_R1A@?0A@EA@CCmdTarget@@8			; CCmdTarget::`RTTI Base Class Descriptor at (0,-1,0,64)'
PUBLIC	??_R0?AVCCmdTarget@@@8				; CCmdTarget `RTTI Type Descriptor'
PUBLIC	??_R3CCmdTarget@@8				; CCmdTarget::`RTTI Class Hierarchy Descriptor'
PUBLIC	??_R2CCmdTarget@@8				; CCmdTarget::`RTTI Base Class Array'
PUBLIC	??_R4CListBox@@6B@				; CListBox::`RTTI Complete Object Locator'
PUBLIC	??_R0?AVCListBox@@@8				; CListBox `RTTI Type Descriptor'
PUBLIC	??_R3CListBox@@8				; CListBox::`RTTI Class Hierarchy Descriptor'
PUBLIC	??_R2CListBox@@8				; CListBox::`RTTI Base Class Array'
PUBLIC	??_R1A@?0A@EA@CListBox@@8			; CListBox::`RTTI Base Class Descriptor at (0,-1,0,64)'
PUBLIC	??_R1A@?0A@EA@CDialog@@8			; CDialog::`RTTI Base Class Descriptor at (0,-1,0,64)'
PUBLIC	??_R0?AVCDialog@@@8				; CDialog `RTTI Type Descriptor'
PUBLIC	??_R3CDialog@@8					; CDialog::`RTTI Class Hierarchy Descriptor'
PUBLIC	??_R2CDialog@@8					; CDialog::`RTTI Base Class Array'
PUBLIC	??_7CDlgConfirm@@6B@				; CDlgConfirm::`vftable'
PUBLIC	??_7?$CList@PAUstCDlgConfirmList_Item@@PAU1@@@6B@ ; CList<stCDlgConfirmList_Item *,stCDlgConfirmList_Item *>::`vftable'
PUBLIC	??_7CDlgConfirmList@@6B@			; CDlgConfirmList::`vftable'
PUBLIC	??_C@_0BN@INKFMAMD@?$CD?$CD?$CD?$CD?$CD?$CD?$CDOnInitDialog?3?3?$CFs?$CD?$CD?$CD?$AN?6@ ; `string'
PUBLIC	??_C@_0BI@FAGCCAND@?$CD?$CD?$CD?$CD?$CD?$CD?$CDSetData?3?3?$CFs?$CD?$CD?$CD?$AN?6@ ; `string'
PUBLIC	??_C@_0P@LBBLONKC@?$CF02i?3?$CF02i?3?$CF02i@	; `string'
PUBLIC	??_C@_0O@KNGKIJOE@?$CI?$CFs?$CJ?$CFs?5?5?$CFs?1?$CFs@ ; `string'
PUBLIC	??_R4CDlgConfirm@@6B@				; CDlgConfirm::`RTTI Complete Object Locator'
PUBLIC	??_R0?AVCDlgConfirm@@@8				; CDlgConfirm `RTTI Type Descriptor'
PUBLIC	??_R3CDlgConfirm@@8				; CDlgConfirm::`RTTI Class Hierarchy Descriptor'
PUBLIC	??_R2CDlgConfirm@@8				; CDlgConfirm::`RTTI Base Class Array'
PUBLIC	??_R1A@?0A@EA@CDlgConfirm@@8			; CDlgConfirm::`RTTI Base Class Descriptor at (0,-1,0,64)'
PUBLIC	??_R4?$CList@PAUstCDlgConfirmList_Item@@PAU1@@@6B@ ; CList<stCDlgConfirmList_Item *,stCDlgConfirmList_Item *>::`RTTI Complete Object Locator'
PUBLIC	??_R0?AV?$CList@PAUstCDlgConfirmList_Item@@PAU1@@@@8 ; CList<stCDlgConfirmList_Item *,stCDlgConfirmList_Item *> `RTTI Type Descriptor'
PUBLIC	??_R3?$CList@PAUstCDlgConfirmList_Item@@PAU1@@@8 ; CList<stCDlgConfirmList_Item *,stCDlgConfirmList_Item *>::`RTTI Class Hierarchy Descriptor'
PUBLIC	??_R2?$CList@PAUstCDlgConfirmList_Item@@PAU1@@@8 ; CList<stCDlgConfirmList_Item *,stCDlgConfirmList_Item *>::`RTTI Base Class Array'
PUBLIC	??_R1A@?0A@EA@?$CList@PAUstCDlgConfirmList_Item@@PAU1@@@8 ; CList<stCDlgConfirmList_Item *,stCDlgConfirmList_Item *>::`RTTI Base Class Descriptor at (0,-1,0,64)'
PUBLIC	??_R4CDlgConfirmList@@6B@			; CDlgConfirmList::`RTTI Complete Object Locator'
PUBLIC	??_R0?AVCDlgConfirmList@@@8			; CDlgConfirmList `RTTI Type Descriptor'
PUBLIC	??_R3CDlgConfirmList@@8				; CDlgConfirmList::`RTTI Class Hierarchy Descriptor'
PUBLIC	??_R2CDlgConfirmList@@8				; CDlgConfirmList::`RTTI Base Class Array'
PUBLIC	??_R1A@?0A@EA@CDlgConfirmList@@8		; CDlgConfirmList::`RTTI Base Class Descriptor at (0,-1,0,64)'
EXTRN	??_L@YGXPAXIIP6EX0@Z1@Z:PROC			; `eh vector constructor iterator'
EXTRN	??_M@YGXPAXIIP6EX0@Z@Z:PROC			; `eh vector destructor iterator'
EXTRN	??2@YAPAXI@Z:PROC				; operator new
EXTRN	??3@YAXPAX@Z:PROC				; operator delete
EXTRN	??3@YAXPAXI@Z:PROC				; operator delete
EXTRN	?__global_delete@@YAXPAXI@Z:PROC		; __global_delete
EXTRN	___std_terminate:PROC
EXTRN	__imp__OutputDebugStringA@4:PROC
EXTRN	__imp__SendMessageA@16:PROC
EXTRN	__imp__EnableWindow@8:PROC
EXTRN	__imp___localtime64_s:PROC
EXTRN	__imp___time64:PROC
EXTRN	?AfxThrowMemoryException@@YGXXZ:PROC		; AfxThrowMemoryException
EXTRN	?AfxThrowInvalidArgException@@YGXXZ:PROC	; AfxThrowInvalidArgException
EXTRN	?AfxThrowArchiveException@@YGXHPBD@Z:PROC	; AfxThrowArchiveException
EXTRN	?AfxThrowOleException@@YGXJ@Z:PROC		; AfxThrowOleException
EXTRN	?GetRuntimeClass@CObject@@UBEPAUCRuntimeClass@@XZ:PROC ; CObject::GetRuntimeClass
EXTRN	__imp_??0?$CStringT@DV?$StrTraitMFC_DLL@DV?$ChTraitsCRT@D@ATL@@@@@ATL@@QAE@XZ:PROC
EXTRN	__imp_??1?$CStringT@DV?$StrTraitMFC_DLL@DV?$ChTraitsCRT@D@ATL@@@@@ATL@@QAE@XZ:PROC
EXTRN	__imp_??4?$CStringT@DV?$StrTraitMFC_DLL@DV?$ChTraitsCRT@D@ATL@@@@@ATL@@QAEAAV01@ABV01@@Z:PROC
EXTRN	__imp_??4?$CStringT@DV?$StrTraitMFC_DLL@DV?$ChTraitsCRT@D@ATL@@@@@ATL@@QAEAAV01@PBD@Z:PROC
EXTRN	__imp_?Format@?$CStringT@DV?$StrTraitMFC_DLL@DV?$ChTraitsCRT@D@ATL@@@@@ATL@@QAAXPBDZZ:PROC
EXTRN	__imp_?LoadStringA@?$CStringT@DV?$StrTraitMFC_DLL@DV?$ChTraitsCRT@D@ATL@@@@@ATL@@QAEHI@Z:PROC
EXTRN	?Read@CArchive@@QAEIPAXI@Z:PROC			; CArchive::Read
EXTRN	?Write@CArchive@@QAEXPBXI@Z:PROC		; CArchive::Write
EXTRN	?ReadCount@CArchive@@QAEKXZ:PROC		; CArchive::ReadCount
EXTRN	?WriteCount@CArchive@@QAEXK@Z:PROC		; CArchive::WriteCount
EXTRN	?Create@CPlex@@SGPAU1@AAPAU1@II@Z:PROC		; CPlex::Create
EXTRN	?FreeDataChain@CPlex@@QAEXXZ:PROC		; CPlex::FreeDataChain
EXTRN	?DDX_Control@@YGXPAVCDataExchange@@HAAVCWnd@@@Z:PROC ; DDX_Control
EXTRN	?OnCmdMsg@CCmdTarget@@UAEHIHPAXPAUAFX_CMDHANDLERINFO@@@Z:PROC ; CCmdTarget::OnCmdMsg
EXTRN	?IsInvokeAllowed@CCmdTarget@@UAEHJ@Z:PROC	; CCmdTarget::IsInvokeAllowed
EXTRN	?GetDispatchIID@CCmdTarget@@UAEHPAU_GUID@@@Z:PROC ; CCmdTarget::GetDispatchIID
EXTRN	?GetTypeInfoCount@CCmdTarget@@UAEIXZ:PROC	; CCmdTarget::GetTypeInfoCount
EXTRN	?GetTypeLibCache@CCmdTarget@@UAEPAVCTypeLibCache@@XZ:PROC ; CCmdTarget::GetTypeLibCache
EXTRN	?GetTypeLib@CCmdTarget@@UAEJKPAPAUITypeLib@@@Z:PROC ; CCmdTarget::GetTypeLib
EXTRN	?GetCommandMap@CCmdTarget@@MBEPBUAFX_OLECMDMAP@@XZ:PROC ; CCmdTarget::GetCommandMap
EXTRN	?GetDispatchMap@CCmdTarget@@MBEPBUAFX_DISPMAP@@XZ:PROC ; CCmdTarget::GetDispatchMap
EXTRN	?GetConnectionMap@CCmdTarget@@MBEPBUAFX_CONNECTIONMAP@@XZ:PROC ; CCmdTarget::GetConnectionMap
EXTRN	?GetEventSinkMap@CCmdTarget@@MBEPBUAFX_EVENTSINKMAP@@XZ:PROC ; CCmdTarget::GetEventSinkMap
EXTRN	?OnCreateAggregates@CCmdTarget@@UAEHXZ:PROC	; CCmdTarget::OnCreateAggregates
EXTRN	?GetInterfaceHook@CCmdTarget@@UAEPAUIUnknown@@PBX@Z:PROC ; CCmdTarget::GetInterfaceHook
EXTRN	?GetExtraConnectionPoints@CCmdTarget@@MAEHPAVCPtrArray@@@Z:PROC ; CCmdTarget::GetExtraConnectionPoints
EXTRN	?GetConnectionHook@CCmdTarget@@MAEPAUIConnectionPoint@@ABU_GUID@@@Z:PROC ; CCmdTarget::GetConnectionHook
EXTRN	??0CWnd@@QAE@XZ:PROC				; CWnd::CWnd
EXTRN	?PreSubclassWindow@CWnd@@UAEXXZ:PROC		; CWnd::PreSubclassWindow
EXTRN	?Create@CWnd@@UAEHPBD0KABUtagRECT@@PAV1@IPAUCCreateContext@@@Z:PROC ; CWnd::Create
EXTRN	?CreateEx@CWnd@@UAEHKPBD0KHHHHPAUHWND__@@PAUHMENU__@@PAX@Z:PROC ; CWnd::CreateEx
EXTRN	?CreateEx@CWnd@@UAEHKPBD0KABUtagRECT@@PAV1@IPAX@Z:PROC ; CWnd::CreateEx
EXTRN	?DestroyWindow@CWnd@@UAEHXZ:PROC		; CWnd::DestroyWindow
EXTRN	?PreCreateWindow@CWnd@@UAEHAAUtagCREATESTRUCTA@@@Z:PROC ; CWnd::PreCreateWindow
EXTRN	?CalcWindowRect@CWnd@@UAEXPAUtagRECT@@I@Z:PROC	; CWnd::CalcWindowRect
EXTRN	?GetDlgItem@CWnd@@QBEPAV1@H@Z:PROC		; CWnd::GetDlgItem
EXTRN	?SetWindowTextA@CWnd@@QAEXPBD@Z:PROC		; CWnd::SetWindowTextA
EXTRN	?GetMenu@CWnd@@UBEPAVCMenu@@XZ:PROC		; CWnd::GetMenu
EXTRN	?SetMenu@CWnd@@UAEHPAVCMenu@@@Z:PROC		; CWnd::SetMenu
EXTRN	?OnToolHitTest@CWnd@@UBEHVCPoint@@PAUtagTOOLINFOA@@@Z:PROC ; CWnd::OnToolHitTest
EXTRN	?GetScrollBarCtrl@CWnd@@UBEPAVCScrollBar@@H@Z:PROC ; CWnd::GetScrollBarCtrl
EXTRN	?WinHelpA@CWnd@@UAEXKI@Z:PROC			; CWnd::WinHelpA
EXTRN	?HtmlHelpA@CWnd@@UAEXKI@Z:PROC			; CWnd::HtmlHelpA
EXTRN	?WinHelpInternal@CWnd@@UAEXKI@Z:PROC		; CWnd::WinHelpInternal
EXTRN	?ContinueModal@CWnd@@UAEHXZ:PROC		; CWnd::ContinueModal
EXTRN	?EndModalLoop@CWnd@@UAEXH@Z:PROC		; CWnd::EndModalLoop
EXTRN	?OnDrawIconicThumbnailOrLivePreview@CWnd@@UAEXAAVCDC@@VCRect@@VCSize@@HAAH@Z:PROC ; CWnd::OnDrawIconicThumbnailOrLivePreview
EXTRN	?GetInterfaceMap@CWnd@@MBEPBUAFX_INTERFACEMAP@@XZ:PROC ; CWnd::GetInterfaceMap
EXTRN	?EnsureStdObj@CWnd@@UAEJXZ:PROC			; CWnd::EnsureStdObj
EXTRN	?get_accParent@CWnd@@UAEJPAPAUIDispatch@@@Z:PROC ; CWnd::get_accParent
EXTRN	?get_accChildCount@CWnd@@UAEJPAJ@Z:PROC		; CWnd::get_accChildCount
EXTRN	?get_accChild@CWnd@@UAEJUtagVARIANT@@PAPAUIDispatch@@@Z:PROC ; CWnd::get_accChild
EXTRN	?get_accName@CWnd@@UAEJUtagVARIANT@@PAPA_W@Z:PROC ; CWnd::get_accName
EXTRN	?get_accValue@CWnd@@UAEJUtagVARIANT@@PAPA_W@Z:PROC ; CWnd::get_accValue
EXTRN	?get_accDescription@CWnd@@UAEJUtagVARIANT@@PAPA_W@Z:PROC ; CWnd::get_accDescription
EXTRN	?get_accRole@CWnd@@UAEJUtagVARIANT@@PAU2@@Z:PROC ; CWnd::get_accRole
EXTRN	?get_accState@CWnd@@UAEJUtagVARIANT@@PAU2@@Z:PROC ; CWnd::get_accState
EXTRN	?get_accHelp@CWnd@@UAEJUtagVARIANT@@PAPA_W@Z:PROC ; CWnd::get_accHelp
EXTRN	?get_accHelpTopic@CWnd@@UAEJPAPA_WUtagVARIANT@@PAJ@Z:PROC ; CWnd::get_accHelpTopic
EXTRN	?get_accKeyboardShortcut@CWnd@@UAEJUtagVARIANT@@PAPA_W@Z:PROC ; CWnd::get_accKeyboardShortcut
EXTRN	?get_accFocus@CWnd@@UAEJPAUtagVARIANT@@@Z:PROC	; CWnd::get_accFocus
EXTRN	?get_accSelection@CWnd@@UAEJPAUtagVARIANT@@@Z:PROC ; CWnd::get_accSelection
EXTRN	?get_accDefaultAction@CWnd@@UAEJUtagVARIANT@@PAPA_W@Z:PROC ; CWnd::get_accDefaultAction
EXTRN	?accSelect@CWnd@@UAEJJUtagVARIANT@@@Z:PROC	; CWnd::accSelect
EXTRN	?accLocation@CWnd@@UAEJPAJ000UtagVARIANT@@@Z:PROC ; CWnd::accLocation
EXTRN	?accNavigate@CWnd@@UAEJJUtagVARIANT@@PAU2@@Z:PROC ; CWnd::accNavigate
EXTRN	?accHitTest@CWnd@@UAEJJJPAUtagVARIANT@@@Z:PROC	; CWnd::accHitTest
EXTRN	?accDoDefaultAction@CWnd@@UAEJUtagVARIANT@@@Z:PROC ; CWnd::accDoDefaultAction
EXTRN	?put_accName@CWnd@@UAEJUtagVARIANT@@PA_W@Z:PROC	; CWnd::put_accName
EXTRN	?put_accValue@CWnd@@UAEJUtagVARIANT@@PA_W@Z:PROC ; CWnd::put_accValue
EXTRN	?SetProxy@CWnd@@UAEJPAUIAccessibleProxy@@@Z:PROC ; CWnd::SetProxy
EXTRN	?CreateAccessibleProxy@CWnd@@UAEJIJPAJ@Z:PROC	; CWnd::CreateAccessibleProxy
EXTRN	?OnCommand@CWnd@@MAEHIJ@Z:PROC			; CWnd::OnCommand
EXTRN	?OnNotify@CWnd@@MAEHIJPAJ@Z:PROC		; CWnd::OnNotify
EXTRN	?GetSuperWndProcAddr@CWnd@@MAEPAP6GJPAUHWND__@@IIJ@ZXZ:PROC ; CWnd::GetSuperWndProcAddr
EXTRN	?PreTranslateMessage@CWnd@@UAEHPAUtagMSG@@@Z:PROC ; CWnd::PreTranslateMessage
EXTRN	?OnAmbientProperty@CWnd@@UAEHPAVCOleControlSite@@JPAUtagVARIANT@@@Z:PROC ; CWnd::OnAmbientProperty
EXTRN	?WindowProc@CWnd@@MAEJIIJ@Z:PROC		; CWnd::WindowProc
EXTRN	?OnWndMsg@CWnd@@MAEHIIJPAJ@Z:PROC		; CWnd::OnWndMsg
EXTRN	?DefWindowProcA@CWnd@@MAEJIIJ@Z:PROC		; CWnd::DefWindowProcA
EXTRN	?PostNcDestroy@CWnd@@MAEXXZ:PROC		; CWnd::PostNcDestroy
EXTRN	?OnChildNotify@CWnd@@MAEHIIJPAJ@Z:PROC		; CWnd::OnChildNotify
EXTRN	?OnTouchInputs@CWnd@@MAEHIPAUtagTOUCHINPUT@@@Z:PROC ; CWnd::OnTouchInputs
EXTRN	?OnTouchInput@CWnd@@MAEHVCPoint@@HHPAUtagTOUCHINPUT@@@Z:PROC ; CWnd::OnTouchInput
EXTRN	?GetGestureStatus@CWnd@@MAEKVCPoint@@@Z:PROC	; CWnd::GetGestureStatus
EXTRN	?OnGestureZoom@CWnd@@MAEHVCPoint@@J@Z:PROC	; CWnd::OnGestureZoom
EXTRN	?OnGesturePan@CWnd@@MAEHVCPoint@@0@Z:PROC	; CWnd::OnGesturePan
EXTRN	?OnGestureRotate@CWnd@@MAEHVCPoint@@N@Z:PROC	; CWnd::OnGestureRotate
EXTRN	?OnGestureTwoFingerTap@CWnd@@MAEHVCPoint@@@Z:PROC ; CWnd::OnGestureTwoFingerTap
EXTRN	?OnGesturePressAndTap@CWnd@@MAEHVCPoint@@J@Z:PROC ; CWnd::OnGesturePressAndTap
EXTRN	?ResizeDynamicLayout@CWnd@@MAEXXZ:PROC		; CWnd::ResizeDynamicLayout
EXTRN	?CheckAutoCenter@CWnd@@UAEHXZ:PROC		; CWnd::CheckAutoCenter
EXTRN	?IsFrameWnd@CWnd@@UBEHXZ:PROC			; CWnd::IsFrameWnd
EXTRN	?OnFinalRelease@CWnd@@UAEXXZ:PROC		; CWnd::OnFinalRelease
EXTRN	?CreateControlContainer@CWnd@@MAEHPAPAVCOleControlContainer@@@Z:PROC ; CWnd::CreateControlContainer
EXTRN	?CreateControlSite@CWnd@@MAEHPAVCOleControlContainer@@PAPAVCOleControlSite@@IABU_GUID@@@Z:PROC ; CWnd::CreateControlSite
EXTRN	?SetOccDialogInfo@CWnd@@MAEHPAU_AFX_OCC_DIALOG_INFO@@@Z:PROC ; CWnd::SetOccDialogInfo
EXTRN	?GetOccDialogInfo@CWnd@@MAEPAU_AFX_OCC_DIALOG_INFO@@XZ:PROC ; CWnd::GetOccDialogInfo
EXTRN	?GetMessageMap@CWnd@@MBEPBUAFX_MSGMAP@@XZ:PROC	; CWnd::GetMessageMap
EXTRN	?GetRuntimeClass@CDialog@@UBEPAUCRuntimeClass@@XZ:PROC ; CDialog::GetRuntimeClass
EXTRN	?Create@CDialog@@UAEHPBDPAVCWnd@@@Z:PROC	; CDialog::Create
EXTRN	?CreateIndirect@CDialog@@UAEHPBUDLGTEMPLATE@@PAVCWnd@@PAX@Z:PROC ; CDialog::CreateIndirect
EXTRN	?CreateIndirect@CDialog@@UAEHPAXPAVCWnd@@@Z:PROC ; CDialog::CreateIndirect
EXTRN	??0CDialog@@QAE@IPAVCWnd@@@Z:PROC		; CDialog::CDialog
EXTRN	?DoModal@CDialog@@UAEHXZ:PROC			; CDialog::DoModal
EXTRN	?OnInitDialog@CDialog@@UAEHXZ:PROC		; CDialog::OnInitDialog
EXTRN	?OnSetFont@CDialog@@UAEXPAVCFont@@@Z:PROC	; CDialog::OnSetFont
EXTRN	?OnOK@CDialog@@MAEXXZ:PROC			; CDialog::OnOK
EXTRN	?OnCancel@CDialog@@MAEXXZ:PROC			; CDialog::OnCancel
EXTRN	??1CDialog@@UAE@XZ:PROC				; CDialog::~CDialog
EXTRN	?PreTranslateMessage@CDialog@@UAEHPAUtagMSG@@@Z:PROC ; CDialog::PreTranslateMessage
EXTRN	?OnCmdMsg@CDialog@@UAEHIHPAXPAUAFX_CMDHANDLERINFO@@@Z:PROC ; CDialog::OnCmdMsg
EXTRN	?CheckAutoCenter@CDialog@@UAEHXZ:PROC		; CDialog::CheckAutoCenter
EXTRN	?SetOccDialogInfo@CDialog@@MAEHPAU_AFX_OCC_DIALOG_INFO@@@Z:PROC ; CDialog::SetOccDialogInfo
EXTRN	?GetOccDialogInfo@CDialog@@MAEPAU_AFX_OCC_DIALOG_INFO@@XZ:PROC ; CDialog::GetOccDialogInfo
EXTRN	?PreInitDialog@CDialog@@MAEXXZ:PROC		; CDialog::PreInitDialog
EXTRN	?GetThisMessageMap@CDialog@@KGPBUAFX_MSGMAP@@XZ:PROC ; CDialog::GetThisMessageMap
EXTRN	?GetRuntimeClass@CListBox@@UBEPAUCRuntimeClass@@XZ:PROC ; CListBox::GetRuntimeClass
EXTRN	?Create@CListBox@@UAEHKABUtagRECT@@PAVCWnd@@I@Z:PROC ; CListBox::Create
EXTRN	?DrawItem@CListBox@@UAEXPAUtagDRAWITEMSTRUCT@@@Z:PROC ; CListBox::DrawItem
EXTRN	?MeasureItem@CListBox@@UAEXPAUtagMEASUREITEMSTRUCT@@@Z:PROC ; CListBox::MeasureItem
EXTRN	?CompareItem@CListBox@@UAEHPAUtagCOMPAREITEMSTRUCT@@@Z:PROC ; CListBox::CompareItem
EXTRN	?DeleteItem@CListBox@@UAEXPAUtagDELETEITEMSTRUCT@@@Z:PROC ; CListBox::DeleteItem
EXTRN	?VKeyToItem@CListBox@@UAEHII@Z:PROC		; CListBox::VKeyToItem
EXTRN	?CharToItem@CListBox@@UAEHII@Z:PROC		; CListBox::CharToItem
EXTRN	??1CListBox@@UAE@XZ:PROC			; CListBox::~CListBox
EXTRN	?OnChildNotify@CListBox@@MAEHIIJPAJ@Z:PROC	; CListBox::OnChildNotify
EXTRN	??_ECListBox@@UAEPAXI@Z:PROC			; CListBox::`vector deleting destructor'
EXTRN	??_ECDlgConfirm@@UAEPAXI@Z:PROC			; CDlgConfirm::`vector deleting destructor'
EXTRN	??_E?$CList@PAUstCDlgConfirmList_Item@@PAU1@@@UAEPAXI@Z:PROC ; CList<stCDlgConfirmList_Item *,stCDlgConfirmList_Item *>::`vector deleting destructor'
EXTRN	??_ECDlgConfirmList@@UAEPAXI@Z:PROC		; CDlgConfirmList::`vector deleting destructor'
EXTRN	@__security_check_cookie@4:PROC
EXTRN	___CxxFrameHandler3:PROC
EXTRN	_memcpy:PROC
EXTRN	??_7type_info@@6B@:QWORD			; type_info::`vftable'
EXTRN	___security_cookie:DWORD
;	COMDAT ??_R1A@?0A@EA@CDlgConfirmList@@8
rdata$r	SEGMENT
??_R1A@?0A@EA@CDlgConfirmList@@8 DD FLAT:??_R0?AVCDlgConfirmList@@@8 ; CDlgConfirmList::`RTTI Base Class Descriptor at (0,-1,0,64)'
	DD	04H
	DD	00H
	DD	0ffffffffH
	DD	00H
	DD	040H
	DD	FLAT:??_R3CDlgConfirmList@@8
rdata$r	ENDS
;	COMDAT ??_R2CDlgConfirmList@@8
rdata$r	SEGMENT
??_R2CDlgConfirmList@@8 DD FLAT:??_R1A@?0A@EA@CDlgConfirmList@@8 ; CDlgConfirmList::`RTTI Base Class Array'
	DD	FLAT:??_R1A@?0A@EA@CDialog@@8
	DD	FLAT:??_R1A@?0A@EA@CWnd@@8
	DD	FLAT:??_R1A@?0A@EA@CCmdTarget@@8
	DD	FLAT:??_R1A@?0A@EA@CObject@@8
rdata$r	ENDS
;	COMDAT ??_R3CDlgConfirmList@@8
rdata$r	SEGMENT
??_R3CDlgConfirmList@@8 DD 00H				; CDlgConfirmList::`RTTI Class Hierarchy Descriptor'
	DD	00H
	DD	05H
	DD	FLAT:??_R2CDlgConfirmList@@8
rdata$r	ENDS
;	COMDAT ??_R0?AVCDlgConfirmList@@@8
data$rs	SEGMENT
??_R0?AVCDlgConfirmList@@@8 DD FLAT:??_7type_info@@6B@	; CDlgConfirmList `RTTI Type Descriptor'
	DD	00H
	DB	'.?AVCDlgConfirmList@@', 00H
data$rs	ENDS
;	COMDAT ??_R4CDlgConfirmList@@6B@
rdata$r	SEGMENT
??_R4CDlgConfirmList@@6B@ DD 00H			; CDlgConfirmList::`RTTI Complete Object Locator'
	DD	00H
	DD	00H
	DD	FLAT:??_R0?AVCDlgConfirmList@@@8
	DD	FLAT:??_R3CDlgConfirmList@@8
rdata$r	ENDS
;	COMDAT ??_R1A@?0A@EA@?$CList@PAUstCDlgConfirmList_Item@@PAU1@@@8
rdata$r	SEGMENT
??_R1A@?0A@EA@?$CList@PAUstCDlgConfirmList_Item@@PAU1@@@8 DD FLAT:??_R0?AV?$CList@PAUstCDlgConfirmList_Item@@PAU1@@@@8 ; CList<stCDlgConfirmList_Item *,stCDlgConfirmList_Item *>::`RTTI Base Class Descriptor at (0,-1,0,64)'
	DD	01H
	DD	00H
	DD	0ffffffffH
	DD	00H
	DD	040H
	DD	FLAT:??_R3?$CList@PAUstCDlgConfirmList_Item@@PAU1@@@8
rdata$r	ENDS
;	COMDAT ??_R2?$CList@PAUstCDlgConfirmList_Item@@PAU1@@@8
rdata$r	SEGMENT
??_R2?$CList@PAUstCDlgConfirmList_Item@@PAU1@@@8 DD FLAT:??_R1A@?0A@EA@?$CList@PAUstCDlgConfirmList_Item@@PAU1@@@8 ; CList<stCDlgConfirmList_Item *,stCDlgConfirmList_Item *>::`RTTI Base Class Array'
	DD	FLAT:??_R1A@?0A@EA@CObject@@8
rdata$r	ENDS
;	COMDAT ??_R3?$CList@PAUstCDlgConfirmList_Item@@PAU1@@@8
rdata$r	SEGMENT
??_R3?$CList@PAUstCDlgConfirmList_Item@@PAU1@@@8 DD 00H	; CList<stCDlgConfirmList_Item *,stCDlgConfirmList_Item *>::`RTTI Class Hierarchy Descriptor'
	DD	00H
	DD	02H
	DD	FLAT:??_R2?$CList@PAUstCDlgConfirmList_Item@@PAU1@@@8
rdata$r	ENDS
;	COMDAT ??_R0?AV?$CList@PAUstCDlgConfirmList_Item@@PAU1@@@@8
data$rs	SEGMENT
??_R0?AV?$CList@PAUstCDlgConfirmList_Item@@PAU1@@@@8 DD FLAT:??_7type_info@@6B@ ; CList<stCDlgConfirmList_Item *,stCDlgConfirmList_Item *> `RTTI Type Descriptor'
	DD	00H
	DB	'.?AV?$CList@PAUstCDlgConfirmList_Item@@PAU1@@@', 00H
data$rs	ENDS
;	COMDAT ??_R4?$CList@PAUstCDlgConfirmList_Item@@PAU1@@@6B@
rdata$r	SEGMENT
??_R4?$CList@PAUstCDlgConfirmList_Item@@PAU1@@@6B@ DD 00H ; CList<stCDlgConfirmList_Item *,stCDlgConfirmList_Item *>::`RTTI Complete Object Locator'
	DD	00H
	DD	00H
	DD	FLAT:??_R0?AV?$CList@PAUstCDlgConfirmList_Item@@PAU1@@@@8
	DD	FLAT:??_R3?$CList@PAUstCDlgConfirmList_Item@@PAU1@@@8
rdata$r	ENDS
;	COMDAT ??_R1A@?0A@EA@CDlgConfirm@@8
rdata$r	SEGMENT
??_R1A@?0A@EA@CDlgConfirm@@8 DD FLAT:??_R0?AVCDlgConfirm@@@8 ; CDlgConfirm::`RTTI Base Class Descriptor at (0,-1,0,64)'
	DD	04H
	DD	00H
	DD	0ffffffffH
	DD	00H
	DD	040H
	DD	FLAT:??_R3CDlgConfirm@@8
rdata$r	ENDS
;	COMDAT ??_R2CDlgConfirm@@8
rdata$r	SEGMENT
??_R2CDlgConfirm@@8 DD FLAT:??_R1A@?0A@EA@CDlgConfirm@@8 ; CDlgConfirm::`RTTI Base Class Array'
	DD	FLAT:??_R1A@?0A@EA@CDialog@@8
	DD	FLAT:??_R1A@?0A@EA@CWnd@@8
	DD	FLAT:??_R1A@?0A@EA@CCmdTarget@@8
	DD	FLAT:??_R1A@?0A@EA@CObject@@8
rdata$r	ENDS
;	COMDAT ??_R3CDlgConfirm@@8
rdata$r	SEGMENT
??_R3CDlgConfirm@@8 DD 00H				; CDlgConfirm::`RTTI Class Hierarchy Descriptor'
	DD	00H
	DD	05H
	DD	FLAT:??_R2CDlgConfirm@@8
rdata$r	ENDS
;	COMDAT ??_R0?AVCDlgConfirm@@@8
data$rs	SEGMENT
??_R0?AVCDlgConfirm@@@8 DD FLAT:??_7type_info@@6B@	; CDlgConfirm `RTTI Type Descriptor'
	DD	00H
	DB	'.?AVCDlgConfirm@@', 00H
data$rs	ENDS
;	COMDAT ??_R4CDlgConfirm@@6B@
rdata$r	SEGMENT
??_R4CDlgConfirm@@6B@ DD 00H				; CDlgConfirm::`RTTI Complete Object Locator'
	DD	00H
	DD	00H
	DD	FLAT:??_R0?AVCDlgConfirm@@@8
	DD	FLAT:??_R3CDlgConfirm@@8
rdata$r	ENDS
;	COMDAT ??_C@_0O@KNGKIJOE@?$CI?$CFs?$CJ?$CFs?5?5?$CFs?1?$CFs@
CONST	SEGMENT
??_C@_0O@KNGKIJOE@?$CI?$CFs?$CJ?$CFs?5?5?$CFs?1?$CFs@ DB '(%s)%s  %s/%s', 00H ; `string'
CONST	ENDS
;	COMDAT ??_C@_0P@LBBLONKC@?$CF02i?3?$CF02i?3?$CF02i@
CONST	SEGMENT
??_C@_0P@LBBLONKC@?$CF02i?3?$CF02i?3?$CF02i@ DB '%02i:%02i:%02i', 00H ; `string'
CONST	ENDS
;	COMDAT ?messageMap@?1??GetThisMessageMap@CDlgConfirmList@@KGPBUAFX_MSGMAP@@XZ@4U3@B
CONST	SEGMENT
?messageMap@?1??GetThisMessageMap@CDlgConfirmList@@KGPBUAFX_MSGMAP@@XZ@4U3@B DD FLAT:?GetThisMessageMap@CDialog@@KGPBUAFX_MSGMAP@@XZ ; `CDlgConfirmList::GetThisMessageMap'::`2'::messageMap
	DD	FLAT:?_messageEntries@?1??GetThisMessageMap@CDlgConfirmList@@KGPBUAFX_MSGMAP@@XZ@4QBUAFX_MSGMAP_ENTRY@@B
CONST	ENDS
;	COMDAT ?_messageEntries@?1??GetThisMessageMap@CDlgConfirmList@@KGPBUAFX_MSGMAP@@XZ@4QBUAFX_MSGMAP_ENTRY@@B
CONST	SEGMENT
?_messageEntries@?1??GetThisMessageMap@CDlgConfirmList@@KGPBUAFX_MSGMAP@@XZ@4QBUAFX_MSGMAP_ENTRY@@B DD 0111H ; `CDlgConfirmList::GetThisMessageMap'::`2'::_messageEntries
	DD	01H
	DD	07e9H
	DD	07e9H
	DD	03aH
	DD	FLAT:?OnSelchangeList1@CDlgConfirmList@@IAEXXZ
	DD	00H
	DD	00H
	DD	00H
	DD	00H
	DD	00H
	DD	00H
CONST	ENDS
;	COMDAT ??_C@_0BI@FAGCCAND@?$CD?$CD?$CD?$CD?$CD?$CD?$CDSetData?3?3?$CFs?$CD?$CD?$CD?$AN?6@
CONST	SEGMENT
??_C@_0BI@FAGCCAND@?$CD?$CD?$CD?$CD?$CD?$CD?$CDSetData?3?3?$CFs?$CD?$CD?$CD?$AN?6@ DB '#'
	DB	'######SetData::%s###', 0dH, 0aH, 00H	; `string'
CONST	ENDS
;	COMDAT ??_C@_0BN@INKFMAMD@?$CD?$CD?$CD?$CD?$CD?$CD?$CDOnInitDialog?3?3?$CFs?$CD?$CD?$CD?$AN?6@
CONST	SEGMENT
??_C@_0BN@INKFMAMD@?$CD?$CD?$CD?$CD?$CD?$CD?$CDOnInitDialog?3?3?$CFs?$CD?$CD?$CD?$AN?6@ DB '#'
	DB	'######OnInitDialog::%s###', 0dH, 0aH, 00H	; `string'
CONST	ENDS
;	COMDAT ?messageMap@?1??GetThisMessageMap@CDlgConfirm@@KGPBUAFX_MSGMAP@@XZ@4U3@B
CONST	SEGMENT
?messageMap@?1??GetThisMessageMap@CDlgConfirm@@KGPBUAFX_MSGMAP@@XZ@4U3@B DD FLAT:?GetThisMessageMap@CDialog@@KGPBUAFX_MSGMAP@@XZ ; `CDlgConfirm::GetThisMessageMap'::`2'::messageMap
	DD	FLAT:?_messageEntries@?1??GetThisMessageMap@CDlgConfirm@@KGPBUAFX_MSGMAP@@XZ@4QBUAFX_MSGMAP_ENTRY@@B
CONST	ENDS
;	COMDAT ?_messageEntries@?1??GetThisMessageMap@CDlgConfirm@@KGPBUAFX_MSGMAP@@XZ@4QBUAFX_MSGMAP_ENTRY@@B
CONST	SEGMENT
?_messageEntries@?1??GetThisMessageMap@CDlgConfirm@@KGPBUAFX_MSGMAP@@XZ@4QBUAFX_MSGMAP_ENTRY@@B DD 00H ; `CDlgConfirm::GetThisMessageMap'::`2'::_messageEntries
	DD	00H
	DD	00H
	DD	00H
	DD	00H
	DD	00H
CONST	ENDS
;	COMDAT ??_7CDlgConfirmList@@6B@
CONST	SEGMENT
??_7CDlgConfirmList@@6B@ DD FLAT:??_R4CDlgConfirmList@@6B@ ; CDlgConfirmList::`vftable'
	DD	FLAT:?GetRuntimeClass@CDialog@@UBEPAUCRuntimeClass@@XZ
	DD	FLAT:??_ECDlgConfirmList@@UAEPAXI@Z
	DD	FLAT:?Serialize@CObject@@UAEXAAVCArchive@@@Z
	DD	FLAT:?AssertValid@CObject@@UBEXXZ
	DD	FLAT:?Dump@CObject@@UBEXAAVCDumpContext@@@Z
	DD	FLAT:?OnCmdMsg@CDialog@@UAEHIHPAXPAUAFX_CMDHANDLERINFO@@@Z
	DD	FLAT:?OnFinalRelease@CWnd@@UAEXXZ
	DD	FLAT:?IsInvokeAllowed@CCmdTarget@@UAEHJ@Z
	DD	FLAT:?GetDispatchIID@CCmdTarget@@UAEHPAU_GUID@@@Z
	DD	FLAT:?GetTypeInfoCount@CCmdTarget@@UAEIXZ
	DD	FLAT:?GetTypeLibCache@CCmdTarget@@UAEPAVCTypeLibCache@@XZ
	DD	FLAT:?GetTypeLib@CCmdTarget@@UAEJKPAPAUITypeLib@@@Z
	DD	FLAT:?GetMessageMap@CDlgConfirmList@@MBEPBUAFX_MSGMAP@@XZ
	DD	FLAT:?GetCommandMap@CCmdTarget@@MBEPBUAFX_OLECMDMAP@@XZ
	DD	FLAT:?GetDispatchMap@CCmdTarget@@MBEPBUAFX_DISPMAP@@XZ
	DD	FLAT:?GetConnectionMap@CCmdTarget@@MBEPBUAFX_CONNECTIONMAP@@XZ
	DD	FLAT:?GetInterfaceMap@CWnd@@MBEPBUAFX_INTERFACEMAP@@XZ
	DD	FLAT:?GetEventSinkMap@CCmdTarget@@MBEPBUAFX_EVENTSINKMAP@@XZ
	DD	FLAT:?OnCreateAggregates@CCmdTarget@@UAEHXZ
	DD	FLAT:?GetInterfaceHook@CCmdTarget@@UAEPAUIUnknown@@PBX@Z
	DD	FLAT:?GetExtraConnectionPoints@CCmdTarget@@MAEHPAVCPtrArray@@@Z
	DD	FLAT:?GetConnectionHook@CCmdTarget@@MAEPAUIConnectionPoint@@ABU_GUID@@@Z
	DD	FLAT:?PreSubclassWindow@CWnd@@UAEXXZ
	DD	FLAT:?Create@CWnd@@UAEHPBD0KABUtagRECT@@PAV1@IPAUCCreateContext@@@Z
	DD	FLAT:?CreateEx@CWnd@@UAEHKPBD0KABUtagRECT@@PAV1@IPAX@Z
	DD	FLAT:?CreateEx@CWnd@@UAEHKPBD0KHHHHPAUHWND__@@PAUHMENU__@@PAX@Z
	DD	FLAT:?DestroyWindow@CWnd@@UAEHXZ
	DD	FLAT:?PreCreateWindow@CWnd@@UAEHAAUtagCREATESTRUCTA@@@Z
	DD	FLAT:?CalcWindowRect@CWnd@@UAEXPAUtagRECT@@I@Z
	DD	FLAT:?GetMenu@CWnd@@UBEPAVCMenu@@XZ
	DD	FLAT:?SetMenu@CWnd@@UAEHPAVCMenu@@@Z
	DD	FLAT:?OnToolHitTest@CWnd@@UBEHVCPoint@@PAUtagTOOLINFOA@@@Z
	DD	FLAT:?GetScrollBarCtrl@CWnd@@UBEPAVCScrollBar@@H@Z
	DD	FLAT:?WinHelpA@CWnd@@UAEXKI@Z
	DD	FLAT:?HtmlHelpA@CWnd@@UAEXKI@Z
	DD	FLAT:?WinHelpInternal@CWnd@@UAEXKI@Z
	DD	FLAT:?ContinueModal@CWnd@@UAEHXZ
	DD	FLAT:?EndModalLoop@CWnd@@UAEXH@Z
	DD	FLAT:?OnDrawIconicThumbnailOrLivePreview@CWnd@@UAEXAAVCDC@@VCRect@@VCSize@@HAAH@Z
	DD	FLAT:?EnsureStdObj@CWnd@@UAEJXZ
	DD	FLAT:?get_accParent@CWnd@@UAEJPAPAUIDispatch@@@Z
	DD	FLAT:?get_accChildCount@CWnd@@UAEJPAJ@Z
	DD	FLAT:?get_accChild@CWnd@@UAEJUtagVARIANT@@PAPAUIDispatch@@@Z
	DD	FLAT:?get_accName@CWnd@@UAEJUtagVARIANT@@PAPA_W@Z
	DD	FLAT:?get_accValue@CWnd@@UAEJUtagVARIANT@@PAPA_W@Z
	DD	FLAT:?get_accDescription@CWnd@@UAEJUtagVARIANT@@PAPA_W@Z
	DD	FLAT:?get_accRole@CWnd@@UAEJUtagVARIANT@@PAU2@@Z
	DD	FLAT:?get_accState@CWnd@@UAEJUtagVARIANT@@PAU2@@Z
	DD	FLAT:?get_accHelp@CWnd@@UAEJUtagVARIANT@@PAPA_W@Z
	DD	FLAT:?get_accHelpTopic@CWnd@@UAEJPAPA_WUtagVARIANT@@PAJ@Z
	DD	FLAT:?get_accKeyboardShortcut@CWnd@@UAEJUtagVARIANT@@PAPA_W@Z
	DD	FLAT:?get_accFocus@CWnd@@UAEJPAUtagVARIANT@@@Z
	DD	FLAT:?get_accSelection@CWnd@@UAEJPAUtagVARIANT@@@Z
	DD	FLAT:?get_accDefaultAction@CWnd@@UAEJUtagVARIANT@@PAPA_W@Z
	DD	FLAT:?accSelect@CWnd@@UAEJJUtagVARIANT@@@Z
	DD	FLAT:?accLocation@CWnd@@UAEJPAJ000UtagVARIANT@@@Z
	DD	FLAT:?accNavigate@CWnd@@UAEJJUtagVARIANT@@PAU2@@Z
	DD	FLAT:?accHitTest@CWnd@@UAEJJJPAUtagVARIANT@@@Z
	DD	FLAT:?accDoDefaultAction@CWnd@@UAEJUtagVARIANT@@@Z
	DD	FLAT:?put_accName@CWnd@@UAEJUtagVARIANT@@PA_W@Z
	DD	FLAT:?put_accValue@CWnd@@UAEJUtagVARIANT@@PA_W@Z
	DD	FLAT:?SetProxy@CWnd@@UAEJPAUIAccessibleProxy@@@Z
	DD	FLAT:?CreateAccessibleProxy@CWnd@@UAEJIJPAJ@Z
	DD	FLAT:?OnCommand@CWnd@@MAEHIJ@Z
	DD	FLAT:?OnNotify@CWnd@@MAEHIJPAJ@Z
	DD	FLAT:?GetSuperWndProcAddr@CWnd@@MAEPAP6GJPAUHWND__@@IIJ@ZXZ
	DD	FLAT:?DoDataExchange@CDlgConfirmList@@MAEXPAVCDataExchange@@@Z
	DD	FLAT:?BeginModalState@CWnd@@UAEXXZ
	DD	FLAT:?EndModalState@CWnd@@UAEXXZ
	DD	FLAT:?PreTranslateMessage@CDialog@@UAEHPAUtagMSG@@@Z
	DD	FLAT:?OnAmbientProperty@CWnd@@UAEHPAVCOleControlSite@@JPAUtagVARIANT@@@Z
	DD	FLAT:?WindowProc@CWnd@@MAEJIIJ@Z
	DD	FLAT:?OnWndMsg@CWnd@@MAEHIIJPAJ@Z
	DD	FLAT:?DefWindowProcA@CWnd@@MAEJIIJ@Z
	DD	FLAT:?PostNcDestroy@CWnd@@MAEXXZ
	DD	FLAT:?OnChildNotify@CWnd@@MAEHIIJPAJ@Z
	DD	FLAT:?OnTouchInputs@CWnd@@MAEHIPAUtagTOUCHINPUT@@@Z
	DD	FLAT:?OnTouchInput@CWnd@@MAEHVCPoint@@HHPAUtagTOUCHINPUT@@@Z
	DD	FLAT:?GetGestureStatus@CWnd@@MAEKVCPoint@@@Z
	DD	FLAT:?OnGestureZoom@CWnd@@MAEHVCPoint@@J@Z
	DD	FLAT:?OnGesturePan@CWnd@@MAEHVCPoint@@0@Z
	DD	FLAT:?OnGestureRotate@CWnd@@MAEHVCPoint@@N@Z
	DD	FLAT:?OnGestureTwoFingerTap@CWnd@@MAEHVCPoint@@@Z
	DD	FLAT:?OnGesturePressAndTap@CWnd@@MAEHVCPoint@@J@Z
	DD	FLAT:?ResizeDynamicLayout@CWnd@@MAEXXZ
	DD	FLAT:?CheckAutoCenter@CDialog@@UAEHXZ
	DD	FLAT:?IsFrameWnd@CWnd@@UBEHXZ
	DD	FLAT:?CreateControlContainer@CWnd@@MAEHPAPAVCOleControlContainer@@@Z
	DD	FLAT:?CreateControlSite@CWnd@@MAEHPAVCOleControlContainer@@PAPAVCOleControlSite@@IABU_GUID@@@Z
	DD	FLAT:?SetOccDialogInfo@CDialog@@MAEHPAU_AFX_OCC_DIALOG_INFO@@@Z
	DD	FLAT:?GetOccDialogInfo@CDialog@@MAEPAU_AFX_OCC_DIALOG_INFO@@XZ
	DD	FLAT:?Create@CDialog@@UAEHIPAVCWnd@@@Z
	DD	FLAT:?Create@CDialog@@UAEHPBDPAVCWnd@@@Z
	DD	FLAT:?CreateIndirect@CDialog@@UAEHPAXPAVCWnd@@@Z
	DD	FLAT:?CreateIndirect@CDialog@@UAEHPBUDLGTEMPLATE@@PAVCWnd@@PAX@Z
	DD	FLAT:?DoModal@CDialog@@UAEHXZ
	DD	FLAT:?OnInitDialog@CDlgConfirmList@@MAEHXZ
	DD	FLAT:?OnSetFont@CDialog@@UAEXPAVCFont@@@Z
	DD	FLAT:?OnOK@CDialog@@MAEXXZ
	DD	FLAT:?OnCancel@CDialog@@MAEXXZ
	DD	FLAT:?PreInitDialog@CDialog@@MAEXXZ
CONST	ENDS
;	COMDAT ??_7?$CList@PAUstCDlgConfirmList_Item@@PAU1@@@6B@
CONST	SEGMENT
??_7?$CList@PAUstCDlgConfirmList_Item@@PAU1@@@6B@ DD FLAT:??_R4?$CList@PAUstCDlgConfirmList_Item@@PAU1@@@6B@ ; CList<stCDlgConfirmList_Item *,stCDlgConfirmList_Item *>::`vftable'
	DD	FLAT:?GetRuntimeClass@CObject@@UBEPAUCRuntimeClass@@XZ
	DD	FLAT:??_E?$CList@PAUstCDlgConfirmList_Item@@PAU1@@@UAEPAXI@Z
	DD	FLAT:?Serialize@?$CList@PAUstCDlgConfirmList_Item@@PAU1@@@UAEXAAVCArchive@@@Z
	DD	FLAT:?AssertValid@CObject@@UBEXXZ
	DD	FLAT:?Dump@CObject@@UBEXAAVCDumpContext@@@Z
CONST	ENDS
;	COMDAT ??_7CDlgConfirm@@6B@
CONST	SEGMENT
??_7CDlgConfirm@@6B@ DD FLAT:??_R4CDlgConfirm@@6B@	; CDlgConfirm::`vftable'
	DD	FLAT:?GetRuntimeClass@CDialog@@UBEPAUCRuntimeClass@@XZ
	DD	FLAT:??_ECDlgConfirm@@UAEPAXI@Z
	DD	FLAT:?Serialize@CObject@@UAEXAAVCArchive@@@Z
	DD	FLAT:?AssertValid@CObject@@UBEXXZ
	DD	FLAT:?Dump@CObject@@UBEXAAVCDumpContext@@@Z
	DD	FLAT:?OnCmdMsg@CDialog@@UAEHIHPAXPAUAFX_CMDHANDLERINFO@@@Z
	DD	FLAT:?OnFinalRelease@CWnd@@UAEXXZ
	DD	FLAT:?IsInvokeAllowed@CCmdTarget@@UAEHJ@Z
	DD	FLAT:?GetDispatchIID@CCmdTarget@@UAEHPAU_GUID@@@Z
	DD	FLAT:?GetTypeInfoCount@CCmdTarget@@UAEIXZ
	DD	FLAT:?GetTypeLibCache@CCmdTarget@@UAEPAVCTypeLibCache@@XZ
	DD	FLAT:?GetTypeLib@CCmdTarget@@UAEJKPAPAUITypeLib@@@Z
	DD	FLAT:?GetMessageMap@CDlgConfirm@@MBEPBUAFX_MSGMAP@@XZ
	DD	FLAT:?GetCommandMap@CCmdTarget@@MBEPBUAFX_OLECMDMAP@@XZ
	DD	FLAT:?GetDispatchMap@CCmdTarget@@MBEPBUAFX_DISPMAP@@XZ
	DD	FLAT:?GetConnectionMap@CCmdTarget@@MBEPBUAFX_CONNECTIONMAP@@XZ
	DD	FLAT:?GetInterfaceMap@CWnd@@MBEPBUAFX_INTERFACEMAP@@XZ
	DD	FLAT:?GetEventSinkMap@CCmdTarget@@MBEPBUAFX_EVENTSINKMAP@@XZ
	DD	FLAT:?OnCreateAggregates@CCmdTarget@@UAEHXZ
	DD	FLAT:?GetInterfaceHook@CCmdTarget@@UAEPAUIUnknown@@PBX@Z
	DD	FLAT:?GetExtraConnectionPoints@CCmdTarget@@MAEHPAVCPtrArray@@@Z
	DD	FLAT:?GetConnectionHook@CCmdTarget@@MAEPAUIConnectionPoint@@ABU_GUID@@@Z
	DD	FLAT:?PreSubclassWindow@CWnd@@UAEXXZ
	DD	FLAT:?Create@CWnd@@UAEHPBD0KABUtagRECT@@PAV1@IPAUCCreateContext@@@Z
	DD	FLAT:?CreateEx@CWnd@@UAEHKPBD0KABUtagRECT@@PAV1@IPAX@Z
	DD	FLAT:?CreateEx@CWnd@@UAEHKPBD0KHHHHPAUHWND__@@PAUHMENU__@@PAX@Z
	DD	FLAT:?DestroyWindow@CWnd@@UAEHXZ
	DD	FLAT:?PreCreateWindow@CWnd@@UAEHAAUtagCREATESTRUCTA@@@Z
	DD	FLAT:?CalcWindowRect@CWnd@@UAEXPAUtagRECT@@I@Z
	DD	FLAT:?GetMenu@CWnd@@UBEPAVCMenu@@XZ
	DD	FLAT:?SetMenu@CWnd@@UAEHPAVCMenu@@@Z
	DD	FLAT:?OnToolHitTest@CWnd@@UBEHVCPoint@@PAUtagTOOLINFOA@@@Z
	DD	FLAT:?GetScrollBarCtrl@CWnd@@UBEPAVCScrollBar@@H@Z
	DD	FLAT:?WinHelpA@CWnd@@UAEXKI@Z
	DD	FLAT:?HtmlHelpA@CWnd@@UAEXKI@Z
	DD	FLAT:?WinHelpInternal@CWnd@@UAEXKI@Z
	DD	FLAT:?ContinueModal@CWnd@@UAEHXZ
	DD	FLAT:?EndModalLoop@CWnd@@UAEXH@Z
	DD	FLAT:?OnDrawIconicThumbnailOrLivePreview@CWnd@@UAEXAAVCDC@@VCRect@@VCSize@@HAAH@Z
	DD	FLAT:?EnsureStdObj@CWnd@@UAEJXZ
	DD	FLAT:?get_accParent@CWnd@@UAEJPAPAUIDispatch@@@Z
	DD	FLAT:?get_accChildCount@CWnd@@UAEJPAJ@Z
	DD	FLAT:?get_accChild@CWnd@@UAEJUtagVARIANT@@PAPAUIDispatch@@@Z
	DD	FLAT:?get_accName@CWnd@@UAEJUtagVARIANT@@PAPA_W@Z
	DD	FLAT:?get_accValue@CWnd@@UAEJUtagVARIANT@@PAPA_W@Z
	DD	FLAT:?get_accDescription@CWnd@@UAEJUtagVARIANT@@PAPA_W@Z
	DD	FLAT:?get_accRole@CWnd@@UAEJUtagVARIANT@@PAU2@@Z
	DD	FLAT:?get_accState@CWnd@@UAEJUtagVARIANT@@PAU2@@Z
	DD	FLAT:?get_accHelp@CWnd@@UAEJUtagVARIANT@@PAPA_W@Z
	DD	FLAT:?get_accHelpTopic@CWnd@@UAEJPAPA_WUtagVARIANT@@PAJ@Z
	DD	FLAT:?get_accKeyboardShortcut@CWnd@@UAEJUtagVARIANT@@PAPA_W@Z
	DD	FLAT:?get_accFocus@CWnd@@UAEJPAUtagVARIANT@@@Z
	DD	FLAT:?get_accSelection@CWnd@@UAEJPAUtagVARIANT@@@Z
	DD	FLAT:?get_accDefaultAction@CWnd@@UAEJUtagVARIANT@@PAPA_W@Z
	DD	FLAT:?accSelect@CWnd@@UAEJJUtagVARIANT@@@Z
	DD	FLAT:?accLocation@CWnd@@UAEJPAJ000UtagVARIANT@@@Z
	DD	FLAT:?accNavigate@CWnd@@UAEJJUtagVARIANT@@PAU2@@Z
	DD	FLAT:?accHitTest@CWnd@@UAEJJJPAUtagVARIANT@@@Z
	DD	FLAT:?accDoDefaultAction@CWnd@@UAEJUtagVARIANT@@@Z
	DD	FLAT:?put_accName@CWnd@@UAEJUtagVARIANT@@PA_W@Z
	DD	FLAT:?put_accValue@CWnd@@UAEJUtagVARIANT@@PA_W@Z
	DD	FLAT:?SetProxy@CWnd@@UAEJPAUIAccessibleProxy@@@Z
	DD	FLAT:?CreateAccessibleProxy@CWnd@@UAEJIJPAJ@Z
	DD	FLAT:?OnCommand@CWnd@@MAEHIJ@Z
	DD	FLAT:?OnNotify@CWnd@@MAEHIJPAJ@Z
	DD	FLAT:?GetSuperWndProcAddr@CWnd@@MAEPAP6GJPAUHWND__@@IIJ@ZXZ
	DD	FLAT:?DoDataExchange@CDlgConfirm@@MAEXPAVCDataExchange@@@Z
	DD	FLAT:?BeginModalState@CWnd@@UAEXXZ
	DD	FLAT:?EndModalState@CWnd@@UAEXXZ
	DD	FLAT:?PreTranslateMessage@CDialog@@UAEHPAUtagMSG@@@Z
	DD	FLAT:?OnAmbientProperty@CWnd@@UAEHPAVCOleControlSite@@JPAUtagVARIANT@@@Z
	DD	FLAT:?WindowProc@CWnd@@MAEJIIJ@Z
	DD	FLAT:?OnWndMsg@CWnd@@MAEHIIJPAJ@Z
	DD	FLAT:?DefWindowProcA@CWnd@@MAEJIIJ@Z
	DD	FLAT:?PostNcDestroy@CWnd@@MAEXXZ
	DD	FLAT:?OnChildNotify@CWnd@@MAEHIIJPAJ@Z
	DD	FLAT:?OnTouchInputs@CWnd@@MAEHIPAUtagTOUCHINPUT@@@Z
	DD	FLAT:?OnTouchInput@CWnd@@MAEHVCPoint@@HHPAUtagTOUCHINPUT@@@Z
	DD	FLAT:?GetGestureStatus@CWnd@@MAEKVCPoint@@@Z
	DD	FLAT:?OnGestureZoom@CWnd@@MAEHVCPoint@@J@Z
	DD	FLAT:?OnGesturePan@CWnd@@MAEHVCPoint@@0@Z
	DD	FLAT:?OnGestureRotate@CWnd@@MAEHVCPoint@@N@Z
	DD	FLAT:?OnGestureTwoFingerTap@CWnd@@MAEHVCPoint@@@Z
	DD	FLAT:?OnGesturePressAndTap@CWnd@@MAEHVCPoint@@J@Z
	DD	FLAT:?ResizeDynamicLayout@CWnd@@MAEXXZ
	DD	FLAT:?CheckAutoCenter@CDialog@@UAEHXZ
	DD	FLAT:?IsFrameWnd@CWnd@@UBEHXZ
	DD	FLAT:?CreateControlContainer@CWnd@@MAEHPAPAVCOleControlContainer@@@Z
	DD	FLAT:?CreateControlSite@CWnd@@MAEHPAVCOleControlContainer@@PAPAVCOleControlSite@@IABU_GUID@@@Z
	DD	FLAT:?SetOccDialogInfo@CDialog@@MAEHPAU_AFX_OCC_DIALOG_INFO@@@Z
	DD	FLAT:?GetOccDialogInfo@CDialog@@MAEPAU_AFX_OCC_DIALOG_INFO@@XZ
	DD	FLAT:?Create@CDialog@@UAEHIPAVCWnd@@@Z
	DD	FLAT:?Create@CDialog@@UAEHPBDPAVCWnd@@@Z
	DD	FLAT:?CreateIndirect@CDialog@@UAEHPAXPAVCWnd@@@Z
	DD	FLAT:?CreateIndirect@CDialog@@UAEHPBUDLGTEMPLATE@@PAVCWnd@@PAX@Z
	DD	FLAT:?DoModal@CDialog@@UAEHXZ
	DD	FLAT:?OnInitDialog@CDlgConfirm@@MAEHXZ
	DD	FLAT:?OnSetFont@CDialog@@UAEXPAVCFont@@@Z
	DD	FLAT:?OnOK@CDialog@@MAEXXZ
	DD	FLAT:?OnCancel@CDialog@@MAEXXZ
	DD	FLAT:?PreInitDialog@CDialog@@MAEXXZ
CONST	ENDS
;	COMDAT ??_R2CDialog@@8
rdata$r	SEGMENT
??_R2CDialog@@8 DD FLAT:??_R1A@?0A@EA@CDialog@@8	; CDialog::`RTTI Base Class Array'
	DD	FLAT:??_R1A@?0A@EA@CWnd@@8
	DD	FLAT:??_R1A@?0A@EA@CCmdTarget@@8
	DD	FLAT:??_R1A@?0A@EA@CObject@@8
rdata$r	ENDS
;	COMDAT ??_R3CDialog@@8
rdata$r	SEGMENT
??_R3CDialog@@8 DD 00H					; CDialog::`RTTI Class Hierarchy Descriptor'
	DD	00H
	DD	04H
	DD	FLAT:??_R2CDialog@@8
rdata$r	ENDS
;	COMDAT ??_R0?AVCDialog@@@8
data$rs	SEGMENT
??_R0?AVCDialog@@@8 DD FLAT:??_7type_info@@6B@		; CDialog `RTTI Type Descriptor'
	DD	00H
	DB	'.?AVCDialog@@', 00H
data$rs	ENDS
;	COMDAT ??_R1A@?0A@EA@CDialog@@8
rdata$r	SEGMENT
??_R1A@?0A@EA@CDialog@@8 DD FLAT:??_R0?AVCDialog@@@8	; CDialog::`RTTI Base Class Descriptor at (0,-1,0,64)'
	DD	03H
	DD	00H
	DD	0ffffffffH
	DD	00H
	DD	040H
	DD	FLAT:??_R3CDialog@@8
rdata$r	ENDS
;	COMDAT ??_R1A@?0A@EA@CListBox@@8
rdata$r	SEGMENT
??_R1A@?0A@EA@CListBox@@8 DD FLAT:??_R0?AVCListBox@@@8	; CListBox::`RTTI Base Class Descriptor at (0,-1,0,64)'
	DD	03H
	DD	00H
	DD	0ffffffffH
	DD	00H
	DD	040H
	DD	FLAT:??_R3CListBox@@8
rdata$r	ENDS
;	COMDAT ??_R2CListBox@@8
rdata$r	SEGMENT
??_R2CListBox@@8 DD FLAT:??_R1A@?0A@EA@CListBox@@8	; CListBox::`RTTI Base Class Array'
	DD	FLAT:??_R1A@?0A@EA@CWnd@@8
	DD	FLAT:??_R1A@?0A@EA@CCmdTarget@@8
	DD	FLAT:??_R1A@?0A@EA@CObject@@8
rdata$r	ENDS
;	COMDAT ??_R3CListBox@@8
rdata$r	SEGMENT
??_R3CListBox@@8 DD 00H					; CListBox::`RTTI Class Hierarchy Descriptor'
	DD	00H
	DD	04H
	DD	FLAT:??_R2CListBox@@8
rdata$r	ENDS
;	COMDAT ??_R0?AVCListBox@@@8
data$rs	SEGMENT
??_R0?AVCListBox@@@8 DD FLAT:??_7type_info@@6B@		; CListBox `RTTI Type Descriptor'
	DD	00H
	DB	'.?AVCListBox@@', 00H
data$rs	ENDS
;	COMDAT ??_R4CListBox@@6B@
rdata$r	SEGMENT
??_R4CListBox@@6B@ DD 00H				; CListBox::`RTTI Complete Object Locator'
	DD	00H
	DD	00H
	DD	FLAT:??_R0?AVCListBox@@@8
	DD	FLAT:??_R3CListBox@@8
rdata$r	ENDS
;	COMDAT ??_R2CCmdTarget@@8
rdata$r	SEGMENT
??_R2CCmdTarget@@8 DD FLAT:??_R1A@?0A@EA@CCmdTarget@@8	; CCmdTarget::`RTTI Base Class Array'
	DD	FLAT:??_R1A@?0A@EA@CObject@@8
rdata$r	ENDS
;	COMDAT ??_R3CCmdTarget@@8
rdata$r	SEGMENT
??_R3CCmdTarget@@8 DD 00H				; CCmdTarget::`RTTI Class Hierarchy Descriptor'
	DD	00H
	DD	02H
	DD	FLAT:??_R2CCmdTarget@@8
rdata$r	ENDS
;	COMDAT ??_R0?AVCCmdTarget@@@8
data$rs	SEGMENT
??_R0?AVCCmdTarget@@@8 DD FLAT:??_7type_info@@6B@	; CCmdTarget `RTTI Type Descriptor'
	DD	00H
	DB	'.?AVCCmdTarget@@', 00H
data$rs	ENDS
;	COMDAT ??_R1A@?0A@EA@CCmdTarget@@8
rdata$r	SEGMENT
??_R1A@?0A@EA@CCmdTarget@@8 DD FLAT:??_R0?AVCCmdTarget@@@8 ; CCmdTarget::`RTTI Base Class Descriptor at (0,-1,0,64)'
	DD	01H
	DD	00H
	DD	0ffffffffH
	DD	00H
	DD	040H
	DD	FLAT:??_R3CCmdTarget@@8
rdata$r	ENDS
;	COMDAT ??_R2CWnd@@8
rdata$r	SEGMENT
??_R2CWnd@@8 DD	FLAT:??_R1A@?0A@EA@CWnd@@8		; CWnd::`RTTI Base Class Array'
	DD	FLAT:??_R1A@?0A@EA@CCmdTarget@@8
	DD	FLAT:??_R1A@?0A@EA@CObject@@8
rdata$r	ENDS
;	COMDAT ??_R3CWnd@@8
rdata$r	SEGMENT
??_R3CWnd@@8 DD	00H					; CWnd::`RTTI Class Hierarchy Descriptor'
	DD	00H
	DD	03H
	DD	FLAT:??_R2CWnd@@8
rdata$r	ENDS
;	COMDAT ??_R0?AVCWnd@@@8
data$rs	SEGMENT
??_R0?AVCWnd@@@8 DD FLAT:??_7type_info@@6B@		; CWnd `RTTI Type Descriptor'
	DD	00H
	DB	'.?AVCWnd@@', 00H
data$rs	ENDS
;	COMDAT ??_R1A@?0A@EA@CWnd@@8
rdata$r	SEGMENT
??_R1A@?0A@EA@CWnd@@8 DD FLAT:??_R0?AVCWnd@@@8		; CWnd::`RTTI Base Class Descriptor at (0,-1,0,64)'
	DD	02H
	DD	00H
	DD	0ffffffffH
	DD	00H
	DD	040H
	DD	FLAT:??_R3CWnd@@8
rdata$r	ENDS
;	COMDAT ??_R1A@?0A@EA@CObject@@8
rdata$r	SEGMENT
??_R1A@?0A@EA@CObject@@8 DD FLAT:??_R0?AVCObject@@@8	; CObject::`RTTI Base Class Descriptor at (0,-1,0,64)'
	DD	00H
	DD	00H
	DD	0ffffffffH
	DD	00H
	DD	040H
	DD	FLAT:??_R3CObject@@8
rdata$r	ENDS
;	COMDAT ??_R2CObject@@8
rdata$r	SEGMENT
??_R2CObject@@8 DD FLAT:??_R1A@?0A@EA@CObject@@8	; CObject::`RTTI Base Class Array'
rdata$r	ENDS
;	COMDAT ??_R3CObject@@8
rdata$r	SEGMENT
??_R3CObject@@8 DD 00H					; CObject::`RTTI Class Hierarchy Descriptor'
	DD	00H
	DD	01H
	DD	FLAT:??_R2CObject@@8
rdata$r	ENDS
;	COMDAT ??_R0?AVCObject@@@8
data$rs	SEGMENT
??_R0?AVCObject@@@8 DD FLAT:??_7type_info@@6B@		; CObject `RTTI Type Descriptor'
	DD	00H
	DB	'.?AVCObject@@', 00H
data$rs	ENDS
;	COMDAT ??_7CListBox@@6B@
CONST	SEGMENT
??_7CListBox@@6B@ DD FLAT:??_R4CListBox@@6B@		; CListBox::`vftable'
	DD	FLAT:?GetRuntimeClass@CListBox@@UBEPAUCRuntimeClass@@XZ
	DD	FLAT:??_ECListBox@@UAEPAXI@Z
	DD	FLAT:?Serialize@CObject@@UAEXAAVCArchive@@@Z
	DD	FLAT:?AssertValid@CObject@@UBEXXZ
	DD	FLAT:?Dump@CObject@@UBEXAAVCDumpContext@@@Z
	DD	FLAT:?OnCmdMsg@CCmdTarget@@UAEHIHPAXPAUAFX_CMDHANDLERINFO@@@Z
	DD	FLAT:?OnFinalRelease@CWnd@@UAEXXZ
	DD	FLAT:?IsInvokeAllowed@CCmdTarget@@UAEHJ@Z
	DD	FLAT:?GetDispatchIID@CCmdTarget@@UAEHPAU_GUID@@@Z
	DD	FLAT:?GetTypeInfoCount@CCmdTarget@@UAEIXZ
	DD	FLAT:?GetTypeLibCache@CCmdTarget@@UAEPAVCTypeLibCache@@XZ
	DD	FLAT:?GetTypeLib@CCmdTarget@@UAEJKPAPAUITypeLib@@@Z
	DD	FLAT:?GetMessageMap@CWnd@@MBEPBUAFX_MSGMAP@@XZ
	DD	FLAT:?GetCommandMap@CCmdTarget@@MBEPBUAFX_OLECMDMAP@@XZ
	DD	FLAT:?GetDispatchMap@CCmdTarget@@MBEPBUAFX_DISPMAP@@XZ
	DD	FLAT:?GetConnectionMap@CCmdTarget@@MBEPBUAFX_CONNECTIONMAP@@XZ
	DD	FLAT:?GetInterfaceMap@CWnd@@MBEPBUAFX_INTERFACEMAP@@XZ
	DD	FLAT:?GetEventSinkMap@CCmdTarget@@MBEPBUAFX_EVENTSINKMAP@@XZ
	DD	FLAT:?OnCreateAggregates@CCmdTarget@@UAEHXZ
	DD	FLAT:?GetInterfaceHook@CCmdTarget@@UAEPAUIUnknown@@PBX@Z
	DD	FLAT:?GetExtraConnectionPoints@CCmdTarget@@MAEHPAVCPtrArray@@@Z
	DD	FLAT:?GetConnectionHook@CCmdTarget@@MAEPAUIConnectionPoint@@ABU_GUID@@@Z
	DD	FLAT:?PreSubclassWindow@CWnd@@UAEXXZ
	DD	FLAT:?Create@CWnd@@UAEHPBD0KABUtagRECT@@PAV1@IPAUCCreateContext@@@Z
	DD	FLAT:?CreateEx@CWnd@@UAEHKPBD0KABUtagRECT@@PAV1@IPAX@Z
	DD	FLAT:?CreateEx@CWnd@@UAEHKPBD0KHHHHPAUHWND__@@PAUHMENU__@@PAX@Z
	DD	FLAT:?DestroyWindow@CWnd@@UAEHXZ
	DD	FLAT:?PreCreateWindow@CWnd@@UAEHAAUtagCREATESTRUCTA@@@Z
	DD	FLAT:?CalcWindowRect@CWnd@@UAEXPAUtagRECT@@I@Z
	DD	FLAT:?GetMenu@CWnd@@UBEPAVCMenu@@XZ
	DD	FLAT:?SetMenu@CWnd@@UAEHPAVCMenu@@@Z
	DD	FLAT:?OnToolHitTest@CWnd@@UBEHVCPoint@@PAUtagTOOLINFOA@@@Z
	DD	FLAT:?GetScrollBarCtrl@CWnd@@UBEPAVCScrollBar@@H@Z
	DD	FLAT:?WinHelpA@CWnd@@UAEXKI@Z
	DD	FLAT:?HtmlHelpA@CWnd@@UAEXKI@Z
	DD	FLAT:?WinHelpInternal@CWnd@@UAEXKI@Z
	DD	FLAT:?ContinueModal@CWnd@@UAEHXZ
	DD	FLAT:?EndModalLoop@CWnd@@UAEXH@Z
	DD	FLAT:?OnDrawIconicThumbnailOrLivePreview@CWnd@@UAEXAAVCDC@@VCRect@@VCSize@@HAAH@Z
	DD	FLAT:?EnsureStdObj@CWnd@@UAEJXZ
	DD	FLAT:?get_accParent@CWnd@@UAEJPAPAUIDispatch@@@Z
	DD	FLAT:?get_accChildCount@CWnd@@UAEJPAJ@Z
	DD	FLAT:?get_accChild@CWnd@@UAEJUtagVARIANT@@PAPAUIDispatch@@@Z
	DD	FLAT:?get_accName@CWnd@@UAEJUtagVARIANT@@PAPA_W@Z
	DD	FLAT:?get_accValue@CWnd@@UAEJUtagVARIANT@@PAPA_W@Z
	DD	FLAT:?get_accDescription@CWnd@@UAEJUtagVARIANT@@PAPA_W@Z
	DD	FLAT:?get_accRole@CWnd@@UAEJUtagVARIANT@@PAU2@@Z
	DD	FLAT:?get_accState@CWnd@@UAEJUtagVARIANT@@PAU2@@Z
	DD	FLAT:?get_accHelp@CWnd@@UAEJUtagVARIANT@@PAPA_W@Z
	DD	FLAT:?get_accHelpTopic@CWnd@@UAEJPAPA_WUtagVARIANT@@PAJ@Z
	DD	FLAT:?get_accKeyboardShortcut@CWnd@@UAEJUtagVARIANT@@PAPA_W@Z
	DD	FLAT:?get_accFocus@CWnd@@UAEJPAUtagVARIANT@@@Z
	DD	FLAT:?get_accSelection@CWnd@@UAEJPAUtagVARIANT@@@Z
	DD	FLAT:?get_accDefaultAction@CWnd@@UAEJUtagVARIANT@@PAPA_W@Z
	DD	FLAT:?accSelect@CWnd@@UAEJJUtagVARIANT@@@Z
	DD	FLAT:?accLocation@CWnd@@UAEJPAJ000UtagVARIANT@@@Z
	DD	FLAT:?accNavigate@CWnd@@UAEJJUtagVARIANT@@PAU2@@Z
	DD	FLAT:?accHitTest@CWnd@@UAEJJJPAUtagVARIANT@@@Z
	DD	FLAT:?accDoDefaultAction@CWnd@@UAEJUtagVARIANT@@@Z
	DD	FLAT:?put_accName@CWnd@@UAEJUtagVARIANT@@PA_W@Z
	DD	FLAT:?put_accValue@CWnd@@UAEJUtagVARIANT@@PA_W@Z
	DD	FLAT:?SetProxy@CWnd@@UAEJPAUIAccessibleProxy@@@Z
	DD	FLAT:?CreateAccessibleProxy@CWnd@@UAEJIJPAJ@Z
	DD	FLAT:?OnCommand@CWnd@@MAEHIJ@Z
	DD	FLAT:?OnNotify@CWnd@@MAEHIJPAJ@Z
	DD	FLAT:?GetSuperWndProcAddr@CWnd@@MAEPAP6GJPAUHWND__@@IIJ@ZXZ
	DD	FLAT:?DoDataExchange@CWnd@@MAEXPAVCDataExchange@@@Z
	DD	FLAT:?BeginModalState@CWnd@@UAEXXZ
	DD	FLAT:?EndModalState@CWnd@@UAEXXZ
	DD	FLAT:?PreTranslateMessage@CWnd@@UAEHPAUtagMSG@@@Z
	DD	FLAT:?OnAmbientProperty@CWnd@@UAEHPAVCOleControlSite@@JPAUtagVARIANT@@@Z
	DD	FLAT:?WindowProc@CWnd@@MAEJIIJ@Z
	DD	FLAT:?OnWndMsg@CWnd@@MAEHIIJPAJ@Z
	DD	FLAT:?DefWindowProcA@CWnd@@MAEJIIJ@Z
	DD	FLAT:?PostNcDestroy@CWnd@@MAEXXZ
	DD	FLAT:?OnChildNotify@CListBox@@MAEHIIJPAJ@Z
	DD	FLAT:?OnTouchInputs@CWnd@@MAEHIPAUtagTOUCHINPUT@@@Z
	DD	FLAT:?OnTouchInput@CWnd@@MAEHVCPoint@@HHPAUtagTOUCHINPUT@@@Z
	DD	FLAT:?GetGestureStatus@CWnd@@MAEKVCPoint@@@Z
	DD	FLAT:?OnGestureZoom@CWnd@@MAEHVCPoint@@J@Z
	DD	FLAT:?OnGesturePan@CWnd@@MAEHVCPoint@@0@Z
	DD	FLAT:?OnGestureRotate@CWnd@@MAEHVCPoint@@N@Z
	DD	FLAT:?OnGestureTwoFingerTap@CWnd@@MAEHVCPoint@@@Z
	DD	FLAT:?OnGesturePressAndTap@CWnd@@MAEHVCPoint@@J@Z
	DD	FLAT:?ResizeDynamicLayout@CWnd@@MAEXXZ
	DD	FLAT:?CheckAutoCenter@CWnd@@UAEHXZ
	DD	FLAT:?IsFrameWnd@CWnd@@UBEHXZ
	DD	FLAT:?CreateControlContainer@CWnd@@MAEHPAPAVCOleControlContainer@@@Z
	DD	FLAT:?CreateControlSite@CWnd@@MAEHPAVCOleControlContainer@@PAPAVCOleControlSite@@IABU_GUID@@@Z
	DD	FLAT:?SetOccDialogInfo@CWnd@@MAEHPAU_AFX_OCC_DIALOG_INFO@@@Z
	DD	FLAT:?GetOccDialogInfo@CWnd@@MAEPAU_AFX_OCC_DIALOG_INFO@@XZ
	DD	FLAT:?Create@CListBox@@UAEHKABUtagRECT@@PAVCWnd@@I@Z
	DD	FLAT:?DrawItem@CListBox@@UAEXPAUtagDRAWITEMSTRUCT@@@Z
	DD	FLAT:?MeasureItem@CListBox@@UAEXPAUtagMEASUREITEMSTRUCT@@@Z
	DD	FLAT:?CompareItem@CListBox@@UAEHPAUtagCOMPAREITEMSTRUCT@@@Z
	DD	FLAT:?DeleteItem@CListBox@@UAEXPAUtagDELETEITEMSTRUCT@@@Z
	DD	FLAT:?VKeyToItem@CListBox@@UAEHII@Z
	DD	FLAT:?CharToItem@CListBox@@UAEHII@Z
CONST	ENDS
;	COMDAT ??_C@_00CNPNBAHC@@
CONST	SEGMENT
??_C@_00CNPNBAHC@@ DB 00H				; `string'
CONST	ENDS
;	COMDAT xdata$x
xdata$x	SEGMENT
__unwindtable$??_GCDlgConfirmList@@UAEPAXI@Z DD 0ffffffffH
	DD	FLAT:___std_terminate
	DD	00H
	DD	FLAT:___std_terminate
__ehfuncinfo$??_GCDlgConfirmList@@UAEPAXI@Z DD 019930522H
	DD	02H
	DD	FLAT:__unwindtable$??_GCDlgConfirmList@@UAEPAXI@Z
	DD	2 DUP(00H)
	DD	2 DUP(00H)
	DD	00H
	DD	05H
xdata$x	ENDS
;	COMDAT xdata$x
xdata$x	SEGMENT
__unwindtable$?OnInitDialog@CDlgConfirmList@@MAEHXZ DD 0ffffffffH
	DD	FLAT:__unwindfunclet$?OnInitDialog@CDlgConfirmList@@MAEHXZ$0
	DD	00H
	DD	FLAT:__unwindfunclet$?OnInitDialog@CDlgConfirmList@@MAEHXZ$1
	DD	01H
	DD	FLAT:__unwindfunclet$?OnInitDialog@CDlgConfirmList@@MAEHXZ$2
	DD	02H
	DD	FLAT:__unwindfunclet$?OnInitDialog@CDlgConfirmList@@MAEHXZ$3
__ehfuncinfo$?OnInitDialog@CDlgConfirmList@@MAEHXZ DD 019930522H
	DD	04H
	DD	FLAT:__unwindtable$?OnInitDialog@CDlgConfirmList@@MAEHXZ
	DD	2 DUP(00H)
	DD	2 DUP(00H)
	DD	00H
	DD	01H
xdata$x	ENDS
;	COMDAT xdata$x
xdata$x	SEGMENT
__unwindtable$??_G?$CList@PAUstCDlgConfirmList_Item@@PAU1@@@UAEPAXI@Z DD 0ffffffffH
	DD	FLAT:___std_terminate
__ehfuncinfo$??_G?$CList@PAUstCDlgConfirmList_Item@@PAU1@@@UAEPAXI@Z DD 019930522H
	DD	01H
	DD	FLAT:__unwindtable$??_G?$CList@PAUstCDlgConfirmList_Item@@PAU1@@@UAEPAXI@Z
	DD	2 DUP(00H)
	DD	2 DUP(00H)
	DD	00H
	DD	05H
xdata$x	ENDS
;	COMDAT xdata$x
xdata$x	SEGMENT
__ehfuncinfo$??1?$CList@PAUstCDlgConfirmList_Item@@PAU1@@@UAE@XZ DD 019930522H
	DD	00H
	DD	00H
	DD	2 DUP(00H)
	DD	2 DUP(00H)
	DD	00H
	DD	05H
xdata$x	ENDS
;	COMDAT xdata$x
xdata$x	SEGMENT
__unwindtable$?ExSetData@CDlgConfirmList@@QAEXV?$CStringT@DV?$StrTraitMFC_DLL@DV?$ChTraitsCRT@D@ATL@@@@@ATL@@HH@Z DD 0ffffffffH
	DD	FLAT:__unwindfunclet$?ExSetData@CDlgConfirmList@@QAEXV?$CStringT@DV?$StrTraitMFC_DLL@DV?$ChTraitsCRT@D@ATL@@@@@ATL@@HH@Z$0
	DD	00H
	DD	FLAT:__unwindfunclet$?ExSetData@CDlgConfirmList@@QAEXV?$CStringT@DV?$StrTraitMFC_DLL@DV?$ChTraitsCRT@D@ATL@@@@@ATL@@HH@Z$1
	DD	01H
	DD	FLAT:__unwindfunclet$?ExSetData@CDlgConfirmList@@QAEXV?$CStringT@DV?$StrTraitMFC_DLL@DV?$ChTraitsCRT@D@ATL@@@@@ATL@@HH@Z$2
__ehfuncinfo$?ExSetData@CDlgConfirmList@@QAEXV?$CStringT@DV?$StrTraitMFC_DLL@DV?$ChTraitsCRT@D@ATL@@@@@ATL@@HH@Z DD 019930522H
	DD	03H
	DD	FLAT:__unwindtable$?ExSetData@CDlgConfirmList@@QAEXV?$CStringT@DV?$StrTraitMFC_DLL@DV?$ChTraitsCRT@D@ATL@@@@@ATL@@HH@Z
	DD	2 DUP(00H)
	DD	2 DUP(00H)
	DD	00H
	DD	01H
xdata$x	ENDS
;	COMDAT xdata$x
xdata$x	SEGMENT
__unwindtable$?SetData@CDlgConfirmList@@QAEXV?$CStringT@DV?$StrTraitMFC_DLL@DV?$ChTraitsCRT@D@ATL@@@@@ATL@@HH@Z DD 0ffffffffH
	DD	FLAT:__unwindfunclet$?SetData@CDlgConfirmList@@QAEXV?$CStringT@DV?$StrTraitMFC_DLL@DV?$ChTraitsCRT@D@ATL@@@@@ATL@@HH@Z$0
	DD	00H
	DD	FLAT:__unwindfunclet$?SetData@CDlgConfirmList@@QAEXV?$CStringT@DV?$StrTraitMFC_DLL@DV?$ChTraitsCRT@D@ATL@@@@@ATL@@HH@Z$1
__ehfuncinfo$?SetData@CDlgConfirmList@@QAEXV?$CStringT@DV?$StrTraitMFC_DLL@DV?$ChTraitsCRT@D@ATL@@@@@ATL@@HH@Z DD 019930522H
	DD	02H
	DD	FLAT:__unwindtable$?SetData@CDlgConfirmList@@QAEXV?$CStringT@DV?$StrTraitMFC_DLL@DV?$ChTraitsCRT@D@ATL@@@@@ATL@@HH@Z
	DD	2 DUP(00H)
	DD	2 DUP(00H)
	DD	00H
	DD	01H
xdata$x	ENDS
;	COMDAT xdata$x
xdata$x	SEGMENT
__unwindtable$??1CDlgConfirmList@@UAE@XZ DD 0ffffffffH
	DD	FLAT:___std_terminate
__ehfuncinfo$??1CDlgConfirmList@@UAE@XZ DD 019930522H
	DD	01H
	DD	FLAT:__unwindtable$??1CDlgConfirmList@@UAE@XZ
	DD	2 DUP(00H)
	DD	2 DUP(00H)
	DD	00H
	DD	05H
xdata$x	ENDS
;	COMDAT xdata$x
xdata$x	SEGMENT
__ehfuncinfo$??0CDlgConfirmList@@QAE@PAVCWnd@@@Z DD 019930522H
	DD	06H
	DD	FLAT:__unwindtable$??0CDlgConfirmList@@QAE@PAVCWnd@@@Z
	DD	2 DUP(00H)
	DD	2 DUP(00H)
	DD	00H
	DD	01H
__unwindtable$??0CDlgConfirmList@@QAE@PAVCWnd@@@Z DD 0ffffffffH
	DD	FLAT:__unwindfunclet$??0CDlgConfirmList@@QAE@PAVCWnd@@@Z$0
	DD	00H
	DD	FLAT:__unwindfunclet$??0CDlgConfirmList@@QAE@PAVCWnd@@@Z$1
	DD	01H
	DD	FLAT:__unwindfunclet$??0CDlgConfirmList@@QAE@PAVCWnd@@@Z$2
	DD	02H
	DD	FLAT:__unwindfunclet$??0CDlgConfirmList@@QAE@PAVCWnd@@@Z$3
	DD	03H
	DD	FLAT:__unwindfunclet$??0CDlgConfirmList@@QAE@PAVCWnd@@@Z$4
	DD	04H
	DD	FLAT:__unwindfunclet$??0CDlgConfirmList@@QAE@PAVCWnd@@@Z$5
xdata$x	ENDS
;	COMDAT xdata$x
xdata$x	SEGMENT
__ehfuncinfo$?OnInitDialog@CDlgConfirm@@MAEHXZ DD 019930522H
	DD	05H
	DD	FLAT:__unwindtable$?OnInitDialog@CDlgConfirm@@MAEHXZ
	DD	2 DUP(00H)
	DD	2 DUP(00H)
	DD	00H
	DD	01H
__unwindtable$?OnInitDialog@CDlgConfirm@@MAEHXZ DD 0ffffffffH
	DD	FLAT:__unwindfunclet$?OnInitDialog@CDlgConfirm@@MAEHXZ$0
	DD	00H
	DD	FLAT:__unwindfunclet$?OnInitDialog@CDlgConfirm@@MAEHXZ$1
	DD	01H
	DD	FLAT:__unwindfunclet$?OnInitDialog@CDlgConfirm@@MAEHXZ$2
	DD	02H
	DD	FLAT:__unwindfunclet$?OnInitDialog@CDlgConfirm@@MAEHXZ$3
	DD	03H
	DD	FLAT:__unwindfunclet$?OnInitDialog@CDlgConfirm@@MAEHXZ$4
xdata$x	ENDS
;	COMDAT xdata$x
xdata$x	SEGMENT
__unwindtable$?SetData@CDlgConfirm@@QAEXV?$CStringT@DV?$StrTraitMFC_DLL@DV?$ChTraitsCRT@D@ATL@@@@@ATL@@HH@Z DD 0ffffffffH
	DD	FLAT:__unwindfunclet$?SetData@CDlgConfirm@@QAEXV?$CStringT@DV?$StrTraitMFC_DLL@DV?$ChTraitsCRT@D@ATL@@@@@ATL@@HH@Z$0
	DD	00H
	DD	FLAT:__unwindfunclet$?SetData@CDlgConfirm@@QAEXV?$CStringT@DV?$StrTraitMFC_DLL@DV?$ChTraitsCRT@D@ATL@@@@@ATL@@HH@Z$1
__ehfuncinfo$?SetData@CDlgConfirm@@QAEXV?$CStringT@DV?$StrTraitMFC_DLL@DV?$ChTraitsCRT@D@ATL@@@@@ATL@@HH@Z DD 019930522H
	DD	02H
	DD	FLAT:__unwindtable$?SetData@CDlgConfirm@@QAEXV?$CStringT@DV?$StrTraitMFC_DLL@DV?$ChTraitsCRT@D@ATL@@@@@ATL@@HH@Z
	DD	2 DUP(00H)
	DD	2 DUP(00H)
	DD	00H
	DD	01H
xdata$x	ENDS
;	COMDAT xdata$x
xdata$x	SEGMENT
__unwindtable$??0CDlgConfirm@@QAE@PAVCWnd@@@Z DD 0ffffffffH
	DD	FLAT:__unwindfunclet$??0CDlgConfirm@@QAE@PAVCWnd@@@Z$0
	DD	00H
	DD	FLAT:__unwindfunclet$??0CDlgConfirm@@QAE@PAVCWnd@@@Z$1
__ehfuncinfo$??0CDlgConfirm@@QAE@PAVCWnd@@@Z DD 019930522H
	DD	02H
	DD	FLAT:__unwindtable$??0CDlgConfirm@@QAE@PAVCWnd@@@Z
	DD	2 DUP(00H)
	DD	2 DUP(00H)
	DD	00H
	DD	01H
xdata$x	ENDS
; Function compile flags: /Ogtp
; File C:\Program Files (x86)\Microsoft Visual Studio\2019\Community\VC\Tools\MSVC\14.29.30133\atlmfc\include\afxtempl.h
; File C:\Program Files (x86)\Microsoft Visual Studio\2019\Community\VC\Tools\MSVC\14.29.30133\atlmfc\include\afx.inl
; File C:\Program Files (x86)\Microsoft Visual Studio\2019\Community\VC\Tools\MSVC\14.29.30133\atlmfc\include\afxtempl.h
; File C:\Program Files (x86)\Microsoft Visual Studio\2019\Community\VC\Tools\MSVC\14.29.30133\atlmfc\include\afx.inl
; File C:\Program Files (x86)\Microsoft Visual Studio\2019\Community\VC\Tools\MSVC\14.29.30133\atlmfc\include\afxtempl.h
; File C:\Program Files (x86)\Microsoft Visual Studio\2019\Community\VC\Tools\MSVC\14.29.30133\atlmfc\include\afx.inl
; File C:\Program Files (x86)\Microsoft Visual Studio\2019\Community\VC\Tools\MSVC\14.29.30133\atlmfc\include\afxtempl.h
;	COMDAT ??$SerializeElements@PAUstCDlgConfirmList_Item@@@@YGXAAVCArchive@@PAPAUstCDlgConfirmList_Item@@H@Z
_TEXT	SEGMENT
_ar$ = 8						; size = 4
_pElements$ = 12					; size = 4
_nCount$ = 16						; size = 4
??$SerializeElements@PAUstCDlgConfirmList_Item@@@@YGXAAVCArchive@@PAPAUstCDlgConfirmList_Item@@H@Z PROC ; SerializeElements<stCDlgConfirmList_Item *>, COMDAT

; 67   : {

  00000	55		 push	 ebp
  00001	8b ec		 mov	 ebp, esp

; 68   : 	ENSURE(nCount == 0 || pElements != NULL);

  00003	8b 4d 0c	 mov	 ecx, DWORD PTR _pElements$[ebp]
  00006	53		 push	 ebx
  00007	56		 push	 esi
  00008	8b 75 10	 mov	 esi, DWORD PTR _nCount$[ebp]
  0000b	57		 push	 edi
  0000c	85 f6		 test	 esi, esi
  0000e	74 08		 je	 SHORT $LN2@SerializeE
  00010	85 c9		 test	 ecx, ecx
  00012	0f 84 89 00 00
	00		 je	 $LN34@SerializeE
$LN2@SerializeE:
; File C:\Program Files (x86)\Microsoft Visual Studio\2019\Community\VC\Tools\MSVC\14.29.30133\atlmfc\include\afx.inl

; 212  : 	{ return (m_nMode & CArchive::load) == 0; }

  00018	8b 55 08	 mov	 edx, DWORD PTR _ar$[ebp]
  0001b	8b 42 18	 mov	 eax, DWORD PTR [edx+24]
  0001e	f7 d0		 not	 eax
  00020	a8 01		 test	 al, 1
; File C:\Program Files (x86)\Microsoft Visual Studio\2019\Community\VC\Tools\MSVC\14.29.30133\atlmfc\include\afxtempl.h

; 73   : 	if (ar.IsStoring())

  00022	74 3c		 je	 SHORT $LN10@SerializeE

; 74   : 	{
; 75   : 		TYPE* pData;
; 76   : 		UINT_PTR nElementsLeft;
; 77   : 
; 78   : 		nElementsLeft = nCount;
; 79   : 		pData = pElements;
; 80   : 		while( nElementsLeft > 0 )

  00024	85 f6		 test	 esi, esi
  00026	74 31		 je	 SHORT $LN8@SerializeE
  00028	0f 1f 84 00 00
	00 00 00	 npad	 8
$LL5@SerializeE:

; 81   : 		{
; 82   : 			UINT nElementsToWrite;
; 83   : 
; 84   : 			nElementsToWrite = UINT(__min(nElementsLeft, INT_MAX/sizeof(TYPE)));

  00030	bb ff ff ff 1f	 mov	 ebx, 536870911		; 1fffffffH
  00035	3b f3		 cmp	 esi, ebx
  00037	0f 42 de	 cmovb	 ebx, esi

; 85   : 			ar.Write(pData, nElementsToWrite*sizeof(TYPE));

  0003a	8d 3c 9d 00 00
	00 00		 lea	 edi, DWORD PTR [ebx*4]
  00041	57		 push	 edi
  00042	51		 push	 ecx
  00043	8b ca		 mov	 ecx, edx
  00045	e8 00 00 00 00	 call	 ?Write@CArchive@@QAEXPBXI@Z ; CArchive::Write

; 86   : 			nElementsLeft -= nElementsToWrite;
; 87   : 			pData += nElementsToWrite;

  0004a	8b 4d 0c	 mov	 ecx, DWORD PTR _pElements$[ebp]
  0004d	8b 55 08	 mov	 edx, DWORD PTR _ar$[ebp]
  00050	03 cf		 add	 ecx, edi
  00052	89 4d 0c	 mov	 DWORD PTR _pElements$[ebp], ecx
  00055	2b f3		 sub	 esi, ebx
  00057	75 d7		 jne	 SHORT $LL5@SerializeE
$LN8@SerializeE:
  00059	5f		 pop	 edi

; 105  : 		}
; 106  : 	}
; 107  : }

  0005a	5e		 pop	 esi
  0005b	5b		 pop	 ebx
  0005c	5d		 pop	 ebp
  0005d	c2 0c 00	 ret	 12			; 0000000cH
$LN10@SerializeE:

; 97   : 		while( nElementsLeft > 0 )

  00060	85 f6		 test	 esi, esi
  00062	74 f5		 je	 SHORT $LN8@SerializeE
$LL7@SerializeE:

; 98   : 		{
; 99   : 			UINT nElementsToRead;
; 100  : 
; 101  : 			nElementsToRead = UINT(__min(nElementsLeft, INT_MAX/sizeof(TYPE)));

  00064	bf ff ff ff 1f	 mov	 edi, 536870911		; 1fffffffH
  00069	3b f7		 cmp	 esi, edi
  0006b	0f 42 fe	 cmovb	 edi, esi

; 102  : 			ar.EnsureRead(pData, nElementsToRead*sizeof(TYPE));

  0006e	8d 1c bd 00 00
	00 00		 lea	 ebx, DWORD PTR [edi*4]
; File C:\Program Files (x86)\Microsoft Visual Studio\2019\Community\VC\Tools\MSVC\14.29.30133\atlmfc\include\afx.inl

; 399  : 	UINT nRead=Read(lpBuf, nCount);

  00075	53		 push	 ebx
  00076	51		 push	 ecx
  00077	8b ca		 mov	 ecx, edx
  00079	e8 00 00 00 00	 call	 ?Read@CArchive@@QAEIPAXI@Z ; CArchive::Read

; 400  : 	if(nRead!=nCount)

  0007e	3b c3		 cmp	 eax, ebx
  00080	75 16		 jne	 SHORT $LN23@SerializeE
; File C:\Program Files (x86)\Microsoft Visual Studio\2019\Community\VC\Tools\MSVC\14.29.30133\atlmfc\include\afxtempl.h

; 97   : 		while( nElementsLeft > 0 )

  00082	8b 4d 0c	 mov	 ecx, DWORD PTR _pElements$[ebp]
  00085	8b 55 08	 mov	 edx, DWORD PTR _ar$[ebp]

; 103  : 			nElementsLeft -= nElementsToRead;
; 104  : 			pData += nElementsToRead;

  00088	03 cb		 add	 ecx, ebx
  0008a	89 4d 0c	 mov	 DWORD PTR _pElements$[ebp], ecx
  0008d	2b f7		 sub	 esi, edi
  0008f	75 d3		 jne	 SHORT $LL7@SerializeE

; 105  : 		}
; 106  : 	}
; 107  : }

  00091	5f		 pop	 edi
  00092	5e		 pop	 esi
  00093	5b		 pop	 ebx
  00094	5d		 pop	 ebp
  00095	c2 0c 00	 ret	 12			; 0000000cH
$LN23@SerializeE:
; File C:\Program Files (x86)\Microsoft Visual Studio\2019\Community\VC\Tools\MSVC\14.29.30133\atlmfc\include\afx.inl

; 402  : 		AfxThrowArchiveException(CArchiveException::endOfFile);

  00098	6a 00		 push	 0
  0009a	6a 03		 push	 3
  0009c	e8 00 00 00 00	 call	 ?AfxThrowArchiveException@@YGXHPBD@Z ; AfxThrowArchiveException
$LN34@SerializeE:
; File C:\Program Files (x86)\Microsoft Visual Studio\2019\Community\VC\Tools\MSVC\14.29.30133\atlmfc\include\afxtempl.h

; 68   : 	ENSURE(nCount == 0 || pElements != NULL);

  000a1	e8 00 00 00 00	 call	 ?AfxThrowInvalidArgException@@YGXXZ ; AfxThrowInvalidArgException
$LN32@SerializeE:
  000a6	cc		 int	 3
??$SerializeElements@PAUstCDlgConfirmList_Item@@@@YGXAAVCArchive@@PAPAUstCDlgConfirmList_Item@@H@Z ENDP ; SerializeElements<stCDlgConfirmList_Item *>
_TEXT	ENDS
; Function compile flags: /Ogtp
; File D:\git\src\IBK\IBK_DRFN\ProjSrc\SrcChartEx\ChartAddIn\ChartPeriodSummaryAddIn\DlgConfirm.cpp
; File C:\Program Files (x86)\Microsoft Visual Studio\2019\Community\VC\Tools\MSVC\14.29.30133\atlmfc\include\afxtempl.h
; File D:\git\src\IBK\IBK_DRFN\ProjSrc\SrcChartEx\ChartAddIn\ChartPeriodSummaryAddIn\DlgConfirm.cpp
; File C:\Program Files (x86)\Microsoft Visual Studio\2019\Community\VC\Tools\MSVC\14.29.30133\atlmfc\include\afxtempl.h
; File D:\git\src\IBK\IBK_DRFN\ProjSrc\SrcChartEx\ChartAddIn\ChartPeriodSummaryAddIn\DlgConfirm.cpp
; File C:\Program Files (x86)\Microsoft Visual Studio\2019\Community\VC\Tools\MSVC\14.29.30133\atlmfc\include\afxtempl.h
; File D:\git\src\IBK\IBK_DRFN\ProjSrc\SrcChartEx\ChartAddIn\ChartPeriodSummaryAddIn\DlgConfirm.cpp
; File C:\Program Files (x86)\Microsoft Visual Studio\2019\Community\VC\Tools\MSVC\14.29.30133\atlmfc\include\afxtempl.h
; File D:\git\src\IBK\IBK_DRFN\ProjSrc\SrcChartEx\ChartAddIn\ChartPeriodSummaryAddIn\DlgConfirm.cpp
; File C:\Program Files (x86)\Microsoft Visual Studio\2019\Community\VC\Tools\MSVC\14.29.30133\atlmfc\include\afx.inl
;	COMDAT ??_GCDlgConfirmList@@UAEPAXI@Z
_TEXT	SEGMENT
__$EHRec$ = -12						; size = 12
___flags$ = 8						; size = 4
??_GCDlgConfirmList@@UAEPAXI@Z PROC			; CDlgConfirmList::`scalar deleting destructor', COMDAT
; _this$ = ecx
  00000	55		 push	 ebp
  00001	8b ec		 mov	 ebp, esp
  00003	6a ff		 push	 -1
  00005	68 00 00 00 00	 push	 __ehhandler$??_GCDlgConfirmList@@UAEPAXI@Z
  0000a	64 a1 00 00 00
	00		 mov	 eax, DWORD PTR fs:0
  00010	50		 push	 eax
  00011	53		 push	 ebx
  00012	56		 push	 esi
  00013	57		 push	 edi
  00014	a1 00 00 00 00	 mov	 eax, DWORD PTR ___security_cookie
  00019	33 c5		 xor	 eax, ebp
  0001b	50		 push	 eax
  0001c	8d 45 f4	 lea	 eax, DWORD PTR __$EHRec$[ebp]
  0001f	64 a3 00 00 00
	00		 mov	 DWORD PTR fs:0, eax
  00025	8b d9		 mov	 ebx, ecx
; File D:\git\src\IBK\IBK_DRFN\ProjSrc\SrcChartEx\ChartAddIn\ChartPeriodSummaryAddIn\DlgConfirm.cpp

; 111  : 	POSITION pos=m_ItemList.GetHeadPosition();

  00027	8b b3 48 01 00
	00		 mov	 esi, DWORD PTR [ebx+328]
  0002d	c7 45 fc 00 00
	00 00		 mov	 DWORD PTR __$EHRec$[ebp+8], 0
  00034	c7 03 00 00 00
	00		 mov	 DWORD PTR [ebx], OFFSET ??_7CDlgConfirmList@@6B@

; 112  : 	while(pos) delete m_ItemList.GetNext(pos);

  0003a	85 f6		 test	 esi, esi
  0003c	74 23		 je	 SHORT $LN24@scalar
  0003e	66 90		 npad	 2
$LL8@scalar:
  00040	8b 7e 08	 mov	 edi, DWORD PTR [esi+8]
; File C:\Program Files (x86)\Microsoft Visual Studio\2019\Community\VC\Tools\MSVC\14.29.30133\atlmfc\include\afxtempl.h

; 813  : 		rPosition = (POSITION) pNode->pNext;

  00043	8b 36		 mov	 esi, DWORD PTR [esi]
; File D:\git\src\IBK\IBK_DRFN\ProjSrc\SrcChartEx\ChartAddIn\ChartPeriodSummaryAddIn\DlgConfirm.cpp

; 112  : 	while(pos) delete m_ItemList.GetNext(pos);

  00045	85 ff		 test	 edi, edi
  00047	74 14		 je	 SHORT $LN17@scalar
  00049	8d 4f 0c	 lea	 ecx, DWORD PTR [edi+12]
  0004c	ff 15 00 00 00
	00		 call	 DWORD PTR __imp_??1?$CStringT@DV?$StrTraitMFC_DLL@DV?$ChTraitsCRT@D@ATL@@@@@ATL@@QAE@XZ
  00052	6a 18		 push	 24			; 00000018H
  00054	57		 push	 edi
  00055	e8 00 00 00 00	 call	 ??3@YAXPAXI@Z		; operator delete
  0005a	83 c4 08	 add	 esp, 8
$LN17@scalar:
  0005d	85 f6		 test	 esi, esi
  0005f	75 df		 jne	 SHORT $LL8@scalar
$LN24@scalar:
; File C:\Program Files (x86)\Microsoft Visual Studio\2019\Community\VC\Tools\MSVC\14.29.30133\atlmfc\include\afxtempl.h

; 872  : 	m_pBlocks->FreeDataChain();

  00061	8b 8b 58 01 00
	00		 mov	 ecx, DWORD PTR [ebx+344]
  00067	c7 83 50 01 00
	00 00 00 00 00	 mov	 DWORD PTR [ebx+336], 0
  00071	c7 83 54 01 00
	00 00 00 00 00	 mov	 DWORD PTR [ebx+340], 0
  0007b	c7 83 4c 01 00
	00 00 00 00 00	 mov	 DWORD PTR [ebx+332], 0
  00085	c7 83 48 01 00
	00 00 00 00 00	 mov	 DWORD PTR [ebx+328], 0
  0008f	e8 00 00 00 00	 call	 ?FreeDataChain@CPlex@@QAEXXZ ; CPlex::FreeDataChain

; 873  : 	m_pBlocks = NULL;

  00094	c7 83 58 01 00
	00 00 00 00 00	 mov	 DWORD PTR [ebx+344], 0

; 872  : 	m_pBlocks->FreeDataChain();

  0009e	8b 8b 58 01 00
	00		 mov	 ecx, DWORD PTR [ebx+344]

; 878  : {

  000a4	c6 45 fc 01	 mov	 BYTE PTR __$EHRec$[ebp+8], 1
  000a8	c7 83 44 01 00
	00 00 00 00 00	 mov	 DWORD PTR [ebx+324], OFFSET ??_7?$CList@PAUstCDlgConfirmList_Item@@PAU1@@@6B@

; 870  : 	m_nCount = 0;

  000b2	c7 83 50 01 00
	00 00 00 00 00	 mov	 DWORD PTR [ebx+336], 0

; 871  : 	m_pNodeHead = m_pNodeTail = m_pNodeFree = NULL;

  000bc	c7 83 54 01 00
	00 00 00 00 00	 mov	 DWORD PTR [ebx+340], 0
  000c6	c7 83 4c 01 00
	00 00 00 00 00	 mov	 DWORD PTR [ebx+332], 0
  000d0	c7 83 48 01 00
	00 00 00 00 00	 mov	 DWORD PTR [ebx+328], 0

; 872  : 	m_pBlocks->FreeDataChain();

  000da	e8 00 00 00 00	 call	 ?FreeDataChain@CPlex@@QAEXXZ ; CPlex::FreeDataChain
; File D:\git\src\IBK\IBK_DRFN\ProjSrc\SrcChartEx\ChartAddIn\ChartPeriodSummaryAddIn\DlgConfirm.cpp

; 114  : }

  000df	ff 35 00 00 00
	00		 push	 DWORD PTR __imp_??1?$CStringT@DV?$StrTraitMFC_DLL@DV?$ChTraitsCRT@D@ATL@@@@@ATL@@QAE@XZ
  000e5	8d 83 3c 01 00
	00		 lea	 eax, DWORD PTR [ebx+316]
; File C:\Program Files (x86)\Microsoft Visual Studio\2019\Community\VC\Tools\MSVC\14.29.30133\atlmfc\include\afxtempl.h

; 873  : 	m_pBlocks = NULL;

  000eb	c7 83 58 01 00
	00 00 00 00 00	 mov	 DWORD PTR [ebx+344], 0
; File D:\git\src\IBK\IBK_DRFN\ProjSrc\SrcChartEx\ChartAddIn\ChartPeriodSummaryAddIn\DlgConfirm.cpp

; 114  : }

  000f5	6a 02		 push	 2
  000f7	6a 04		 push	 4
  000f9	50		 push	 eax
; File C:\Program Files (x86)\Microsoft Visual Studio\2019\Community\VC\Tools\MSVC\14.29.30133\atlmfc\include\afxtempl.h

; 881  : }

  000fa	c6 45 fc 00	 mov	 BYTE PTR __$EHRec$[ebp+8], 0
; File D:\git\src\IBK\IBK_DRFN\ProjSrc\SrcChartEx\ChartAddIn\ChartPeriodSummaryAddIn\DlgConfirm.cpp

; 114  : }

  000fe	e8 00 00 00 00	 call	 ??_M@YGXPAXIIP6EX0@Z@Z
  00103	ff 35 00 00 00
	00		 push	 DWORD PTR __imp_??1?$CStringT@DV?$StrTraitMFC_DLL@DV?$ChTraitsCRT@D@ATL@@@@@ATL@@QAE@XZ
  00109	8d 83 34 01 00
	00		 lea	 eax, DWORD PTR [ebx+308]
  0010f	6a 02		 push	 2
  00111	6a 04		 push	 4
  00113	50		 push	 eax
  00114	e8 00 00 00 00	 call	 ??_M@YGXPAXIIP6EX0@Z@Z
  00119	8d 8b 28 01 00
	00		 lea	 ecx, DWORD PTR [ebx+296]
  0011f	ff 15 00 00 00
	00		 call	 DWORD PTR __imp_??1?$CStringT@DV?$StrTraitMFC_DLL@DV?$ChTraitsCRT@D@ATL@@@@@ATL@@QAE@XZ
  00125	8d 8b a8 00 00
	00		 lea	 ecx, DWORD PTR [ebx+168]
  0012b	e8 00 00 00 00	 call	 ??1CListBox@@UAE@XZ	; CListBox::~CListBox
  00130	8b cb		 mov	 ecx, ebx
  00132	e8 00 00 00 00	 call	 ??1CDialog@@UAE@XZ	; CDialog::~CDialog
  00137	8b 45 08	 mov	 eax, DWORD PTR ___flags$[ebp]
  0013a	a8 01		 test	 al, 1
  0013c	74 1d		 je	 SHORT $LN50@scalar
  0013e	a8 04		 test	 al, 4
  00140	75 0b		 jne	 SHORT $LN3@scalar
; File C:\Program Files (x86)\Microsoft Visual Studio\2019\Community\VC\Tools\MSVC\14.29.30133\atlmfc\include\afx.inl

; 112  : 	{ ::operator delete(p); }

  00142	53		 push	 ebx
  00143	e8 00 00 00 00	 call	 ??3@YAXPAX@Z		; operator delete
  00148	83 c4 04	 add	 esp, 4
  0014b	eb 0e		 jmp	 SHORT $LN50@scalar
$LN3@scalar:
  0014d	68 60 01 00 00	 push	 352			; 00000160H
  00152	53		 push	 ebx
  00153	e8 00 00 00 00	 call	 ?__global_delete@@YAXPAXI@Z ; __global_delete
  00158	83 c4 08	 add	 esp, 8
$LN50@scalar:
  0015b	8b c3		 mov	 eax, ebx
  0015d	8b 4d f4	 mov	 ecx, DWORD PTR __$EHRec$[ebp]
  00160	64 89 0d 00 00
	00 00		 mov	 DWORD PTR fs:0, ecx
  00167	59		 pop	 ecx
  00168	5f		 pop	 edi
  00169	5e		 pop	 esi
  0016a	5b		 pop	 ebx
  0016b	8b e5		 mov	 esp, ebp
  0016d	5d		 pop	 ebp
  0016e	c2 04 00	 ret	 4
  00171	cc		 int	 3
  00172	cc		 int	 3
  00173	cc		 int	 3
  00174	cc		 int	 3
  00175	cc		 int	 3
_TEXT	ENDS
;	COMDAT text$x
text$x	SEGMENT
__ehhandler$??_GCDlgConfirmList@@UAEPAXI@Z:
  00000	90		 npad	 1
  00001	90		 npad	 1
  00002	8b 54 24 08	 mov	 edx, DWORD PTR [esp+8]
  00006	8d 42 0c	 lea	 eax, DWORD PTR [edx+12]
  00009	8b 4a f0	 mov	 ecx, DWORD PTR [edx-16]
  0000c	33 c8		 xor	 ecx, eax
  0000e	e8 00 00 00 00	 call	 @__security_check_cookie@4
  00013	b8 00 00 00 00	 mov	 eax, OFFSET __ehfuncinfo$??_GCDlgConfirmList@@UAEPAXI@Z
  00018	e9 00 00 00 00	 jmp	 ___CxxFrameHandler3
text$x	ENDS
??_GCDlgConfirmList@@UAEPAXI@Z ENDP			; CDlgConfirmList::`scalar deleting destructor'
; Function compile flags: /Ogtp
; File D:\git\src\IBK\IBK_DRFN\ProjSrc\SrcChartEx\ChartAddIn\ChartPeriodSummaryAddIn\DlgConfirm.cpp
;	COMDAT ?GetMessageMap@CDlgConfirmList@@MBEPBUAFX_MSGMAP@@XZ
_TEXT	SEGMENT
?GetMessageMap@CDlgConfirmList@@MBEPBUAFX_MSGMAP@@XZ PROC ; CDlgConfirmList::GetMessageMap, COMDAT
; _this$ = ecx

; 125  : BEGIN_MESSAGE_MAP(CDlgConfirmList, CDialog)

  00000	b8 00 00 00 00	 mov	 eax, OFFSET ?messageMap@?1??GetThisMessageMap@CDlgConfirmList@@KGPBUAFX_MSGMAP@@XZ@4U3@B
  00005	c3		 ret	 0
?GetMessageMap@CDlgConfirmList@@MBEPBUAFX_MSGMAP@@XZ ENDP ; CDlgConfirmList::GetMessageMap
_TEXT	ENDS
; Function compile flags: /Ogtp
; File D:\git\src\IBK\IBK_DRFN\ProjSrc\SrcChartEx\ChartAddIn\ChartPeriodSummaryAddIn\DlgConfirm.cpp
;	COMDAT ?GetThisMessageMap@CDlgConfirmList@@KGPBUAFX_MSGMAP@@XZ
_TEXT	SEGMENT
?GetThisMessageMap@CDlgConfirmList@@KGPBUAFX_MSGMAP@@XZ PROC ; CDlgConfirmList::GetThisMessageMap, COMDAT

; 126  : //{{AFX_MSG_MAP(CDlgConfirmList)
; 127  : 	ON_LBN_SELCHANGE(IDC_LIST1, OnSelchangeList1)
; 128  : 	//}}AFX_MSG_MAP
; 129  : END_MESSAGE_MAP()

  00000	b8 00 00 00 00	 mov	 eax, OFFSET ?messageMap@?1??GetThisMessageMap@CDlgConfirmList@@KGPBUAFX_MSGMAP@@XZ@4U3@B
  00005	c3		 ret	 0
?GetThisMessageMap@CDlgConfirmList@@KGPBUAFX_MSGMAP@@XZ ENDP ; CDlgConfirmList::GetThisMessageMap
_TEXT	ENDS
; Function compile flags: /Ogtp
; File D:\git\src\IBK\IBK_DRFN\ProjSrc\SrcChartEx\ChartAddIn\ChartPeriodSummaryAddIn\DlgConfirm.cpp
; File C:\Program Files (x86)\Microsoft Visual Studio\2019\Community\VC\Tools\MSVC\14.29.30133\atlmfc\include\afxwin2.inl
; File D:\git\src\IBK\IBK_DRFN\ProjSrc\SrcChartEx\ChartAddIn\ChartPeriodSummaryAddIn\DlgConfirm.cpp
; File C:\Program Files (x86)\Microsoft Visual Studio\2019\Community\VC\Tools\MSVC\14.29.30133\atlmfc\include\afxwin2.inl
; File D:\git\src\IBK\IBK_DRFN\ProjSrc\SrcChartEx\ChartAddIn\ChartPeriodSummaryAddIn\DlgConfirm.cpp
;	COMDAT ?OnSelchangeList1@CDlgConfirmList@@IAEXXZ
_TEXT	SEGMENT
?OnSelchangeList1@CDlgConfirmList@@IAEXXZ PROC		; CDlgConfirmList::OnSelchangeList1, COMDAT
; _this$ = ecx

; 218  : {

  00000	56		 push	 esi
; File C:\Program Files (x86)\Microsoft Visual Studio\2019\Community\VC\Tools\MSVC\14.29.30133\atlmfc\include\afxwin2.inl

; 666  : 	{ ASSERT(::IsWindow(m_hWnd)); return (int)::SendMessage(m_hWnd, LB_GETCURSEL, 0, 0); }

  00001	6a 00		 push	 0
; File D:\git\src\IBK\IBK_DRFN\ProjSrc\SrcChartEx\ChartAddIn\ChartPeriodSummaryAddIn\DlgConfirm.cpp

; 218  : {

  00003	8b f1		 mov	 esi, ecx
; File C:\Program Files (x86)\Microsoft Visual Studio\2019\Community\VC\Tools\MSVC\14.29.30133\atlmfc\include\afxwin2.inl

; 666  : 	{ ASSERT(::IsWindow(m_hWnd)); return (int)::SendMessage(m_hWnd, LB_GETCURSEL, 0, 0); }

  00005	6a 00		 push	 0
  00007	68 88 01 00 00	 push	 392			; 00000188H
  0000c	ff b6 c8 00 00
	00		 push	 DWORD PTR [esi+200]
  00012	ff 15 00 00 00
	00		 call	 DWORD PTR __imp__SendMessageA@16
; File D:\git\src\IBK\IBK_DRFN\ProjSrc\SrcChartEx\ChartAddIn\ChartPeriodSummaryAddIn\DlgConfirm.cpp

; 220  : 	_DoShowIndex(nIndex);

  00018	50		 push	 eax
  00019	8b ce		 mov	 ecx, esi
  0001b	e8 00 00 00 00	 call	 ?_DoShowIndex@CDlgConfirmList@@AAEHH@Z ; CDlgConfirmList::_DoShowIndex
  00020	5e		 pop	 esi

; 221  : }

  00021	c3		 ret	 0
?OnSelchangeList1@CDlgConfirmList@@IAEXXZ ENDP		; CDlgConfirmList::OnSelchangeList1
_TEXT	ENDS
; Function compile flags: /Ogtp
; File D:\git\src\IBK\IBK_DRFN\ProjSrc\SrcChartEx\ChartAddIn\ChartPeriodSummaryAddIn\DlgConfirm.cpp
;	COMDAT ?OnInitDialog@CDlgConfirmList@@MAEHXZ
_TEXT	SEGMENT
_strRise$ = -28						; size = 4
_strFall$ = -24						; size = 4
_strSell$ = -20						; size = 4
_strBuy$ = -16						; size = 4
__$EHRec$ = -12						; size = 12
?OnInitDialog@CDlgConfirmList@@MAEHXZ PROC		; CDlgConfirmList::OnInitDialog, COMDAT
; _this$ = ecx

; 135  : {

  00000	55		 push	 ebp
  00001	8b ec		 mov	 ebp, esp
  00003	6a ff		 push	 -1
  00005	68 00 00 00 00	 push	 __ehhandler$?OnInitDialog@CDlgConfirmList@@MAEHXZ
  0000a	64 a1 00 00 00
	00		 mov	 eax, DWORD PTR fs:0
  00010	50		 push	 eax
  00011	83 ec 10	 sub	 esp, 16			; 00000010H
  00014	56		 push	 esi
  00015	a1 00 00 00 00	 mov	 eax, DWORD PTR ___security_cookie
  0001a	33 c5		 xor	 eax, ebp
  0001c	50		 push	 eax
  0001d	8d 45 f4	 lea	 eax, DWORD PTR __$EHRec$[ebp]
  00020	64 a3 00 00 00
	00		 mov	 DWORD PTR fs:0, eax
  00026	8b f1		 mov	 esi, ecx

; 136  : 	CDialog::OnInitDialog();

  00028	e8 00 00 00 00	 call	 ?OnInitDialog@CDialog@@UAEHXZ ; CDialog::OnInitDialog

; 137  : 
; 138  : 	CString strRise, strFall;	//m_nUpDown

  0002d	8d 4d e4	 lea	 ecx, DWORD PTR _strRise$[ebp]
  00030	ff 15 00 00 00
	00		 call	 DWORD PTR __imp_??0?$CStringT@DV?$StrTraitMFC_DLL@DV?$ChTraitsCRT@D@ATL@@@@@ATL@@QAE@XZ
  00036	8d 4d e8	 lea	 ecx, DWORD PTR _strFall$[ebp]
  00039	c7 45 fc 00 00
	00 00		 mov	 DWORD PTR __$EHRec$[ebp+8], 0
  00040	ff 15 00 00 00
	00		 call	 DWORD PTR __imp_??0?$CStringT@DV?$StrTraitMFC_DLL@DV?$ChTraitsCRT@D@ATL@@@@@ATL@@QAE@XZ

; 139  : 	strRise.LoadString(IDS_STRING_RISE);

  00046	68 70 a1 00 00	 push	 41328			; 0000a170H
  0004b	8d 4d e4	 lea	 ecx, DWORD PTR _strRise$[ebp]
  0004e	c6 45 fc 01	 mov	 BYTE PTR __$EHRec$[ebp+8], 1
  00052	ff 15 00 00 00
	00		 call	 DWORD PTR __imp_?LoadStringA@?$CStringT@DV?$StrTraitMFC_DLL@DV?$ChTraitsCRT@D@ATL@@@@@ATL@@QAEHI@Z

; 140  : 	strFall.LoadString(IDS_STRING_FALL);

  00058	68 71 a1 00 00	 push	 41329			; 0000a171H
  0005d	8d 4d e8	 lea	 ecx, DWORD PTR _strFall$[ebp]
  00060	ff 15 00 00 00
	00		 call	 DWORD PTR __imp_?LoadStringA@?$CStringT@DV?$StrTraitMFC_DLL@DV?$ChTraitsCRT@D@ATL@@@@@ATL@@QAEHI@Z

; 141  : 	m_szUpDown[0] = strRise;

  00066	8d 45 e4	 lea	 eax, DWORD PTR _strRise$[ebp]
  00069	50		 push	 eax
  0006a	8d 8e 34 01 00
	00		 lea	 ecx, DWORD PTR [esi+308]
  00070	ff 15 00 00 00
	00		 call	 DWORD PTR __imp_??4?$CStringT@DV?$StrTraitMFC_DLL@DV?$ChTraitsCRT@D@ATL@@@@@ATL@@QAEAAV01@ABV01@@Z

; 142  : 	m_szUpDown[1] = strFall;

  00076	8d 45 e8	 lea	 eax, DWORD PTR _strFall$[ebp]
  00079	50		 push	 eax
  0007a	8d 8e 38 01 00
	00		 lea	 ecx, DWORD PTR [esi+312]
  00080	ff 15 00 00 00
	00		 call	 DWORD PTR __imp_??4?$CStringT@DV?$StrTraitMFC_DLL@DV?$ChTraitsCRT@D@ATL@@@@@ATL@@QAEAAV01@ABV01@@Z

; 143  : 
; 144  : 	CString strSell, strBuy;	//m_nSellBuy

  00086	8d 4d ec	 lea	 ecx, DWORD PTR _strSell$[ebp]
  00089	ff 15 00 00 00
	00		 call	 DWORD PTR __imp_??0?$CStringT@DV?$StrTraitMFC_DLL@DV?$ChTraitsCRT@D@ATL@@@@@ATL@@QAE@XZ
  0008f	8d 4d f0	 lea	 ecx, DWORD PTR _strBuy$[ebp]
  00092	ff 15 00 00 00
	00		 call	 DWORD PTR __imp_??0?$CStringT@DV?$StrTraitMFC_DLL@DV?$ChTraitsCRT@D@ATL@@@@@ATL@@QAE@XZ

; 145  : 	strSell.LoadString(IDS_STRING_SELL);

  00098	68 72 a1 00 00	 push	 41330			; 0000a172H
  0009d	8d 4d ec	 lea	 ecx, DWORD PTR _strSell$[ebp]
  000a0	c6 45 fc 03	 mov	 BYTE PTR __$EHRec$[ebp+8], 3
  000a4	ff 15 00 00 00
	00		 call	 DWORD PTR __imp_?LoadStringA@?$CStringT@DV?$StrTraitMFC_DLL@DV?$ChTraitsCRT@D@ATL@@@@@ATL@@QAEHI@Z

; 146  : 	strBuy.LoadString(IDS_STRING_BUY);

  000aa	68 73 a1 00 00	 push	 41331			; 0000a173H
  000af	8d 4d f0	 lea	 ecx, DWORD PTR _strBuy$[ebp]
  000b2	ff 15 00 00 00
	00		 call	 DWORD PTR __imp_?LoadStringA@?$CStringT@DV?$StrTraitMFC_DLL@DV?$ChTraitsCRT@D@ATL@@@@@ATL@@QAEHI@Z

; 147  : 	m_szSellBuy[0] = strSell;

  000b8	8d 45 ec	 lea	 eax, DWORD PTR _strSell$[ebp]
  000bb	50		 push	 eax
  000bc	8d 8e 3c 01 00
	00		 lea	 ecx, DWORD PTR [esi+316]
  000c2	ff 15 00 00 00
	00		 call	 DWORD PTR __imp_??4?$CStringT@DV?$StrTraitMFC_DLL@DV?$ChTraitsCRT@D@ATL@@@@@ATL@@QAEAAV01@ABV01@@Z

; 148  : 	m_szSellBuy[1] = strBuy;

  000c8	8d 45 f0	 lea	 eax, DWORD PTR _strBuy$[ebp]
  000cb	50		 push	 eax
  000cc	8d 8e 40 01 00
	00		 lea	 ecx, DWORD PTR [esi+320]
  000d2	ff 15 00 00 00
	00		 call	 DWORD PTR __imp_??4?$CStringT@DV?$StrTraitMFC_DLL@DV?$ChTraitsCRT@D@ATL@@@@@ATL@@QAEAAV01@ABV01@@Z

; 149  : 
; 150  : // 	CString strDebug;
; 151  : // 	strDebug.Format("#######OnInitDialog::%s###\r\n", m_strName);
; 152  : // 	OutputDebugString(strDebug);
; 153  : // 	// TODO: Add extra initialization here
; 154  : // 
; 155  : // 	
; 156  : // 	if(m_nUpDown == 1)
; 157  : // 		// GetDlgItem(IDC_STATIC_TYPE)->SetWindowText("");
; 158  : // 		GetDlgItem(IDC_STATIC_TYPE)->SetWindowText(strRise);
; 159  : // 	else if(m_nUpDown == 2)
; 160  : // 		// GetDlgItem(IDC_STATIC_TYPE)->SetWindowText("");
; 161  : // 		GetDlgItem(IDC_STATIC_TYPE)->SetWindowText(strFall);
; 162  : // 	GetDlgItem(IDC_STATIC_NAME)->SetWindowText(m_strName);
; 163  : // 	
; 164  : // 	if(m_nSellBuy == 1)
; 165  : // 		// GetDlgItem(IDC_STATIC_PRICE)->SetWindowText("");
; 166  : // 		GetDlgItem(IDC_STATIC_PRICE)->SetWindowText(strSell);
; 167  : // 	else if(m_nSellBuy == 2)
; 168  : // 		// GetDlgItem(IDC_STATIC_PRICE)->SetWindowText("");
; 169  : // 		GetDlgItem(IDC_STATIC_PRICE)->SetWindowText(strBuy);
; 170  : 
; 171  : 	return TRUE;  // return TRUE unless you set the focus to a control

  000d8	8d 4d f0	 lea	 ecx, DWORD PTR _strBuy$[ebp]
  000db	ff 15 00 00 00
	00		 call	 DWORD PTR __imp_??1?$CStringT@DV?$StrTraitMFC_DLL@DV?$ChTraitsCRT@D@ATL@@@@@ATL@@QAE@XZ
  000e1	8d 4d ec	 lea	 ecx, DWORD PTR _strSell$[ebp]
  000e4	ff 15 00 00 00
	00		 call	 DWORD PTR __imp_??1?$CStringT@DV?$StrTraitMFC_DLL@DV?$ChTraitsCRT@D@ATL@@@@@ATL@@QAE@XZ
  000ea	8d 4d e8	 lea	 ecx, DWORD PTR _strFall$[ebp]
  000ed	ff 15 00 00 00
	00		 call	 DWORD PTR __imp_??1?$CStringT@DV?$StrTraitMFC_DLL@DV?$ChTraitsCRT@D@ATL@@@@@ATL@@QAE@XZ
  000f3	8d 4d e4	 lea	 ecx, DWORD PTR _strRise$[ebp]
  000f6	ff 15 00 00 00
	00		 call	 DWORD PTR __imp_??1?$CStringT@DV?$StrTraitMFC_DLL@DV?$ChTraitsCRT@D@ATL@@@@@ATL@@QAE@XZ
  000fc	b8 01 00 00 00	 mov	 eax, 1

; 172  : 	// EXCEPTION: OCX Property Pages should return FALSE
; 173  : }

  00101	8b 4d f4	 mov	 ecx, DWORD PTR __$EHRec$[ebp]
  00104	64 89 0d 00 00
	00 00		 mov	 DWORD PTR fs:0, ecx
  0010b	59		 pop	 ecx
  0010c	5e		 pop	 esi
  0010d	8b e5		 mov	 esp, ebp
  0010f	5d		 pop	 ebp
  00110	c3		 ret	 0
_TEXT	ENDS
;	COMDAT text$x
text$x	SEGMENT
__unwindfunclet$?OnInitDialog@CDlgConfirmList@@MAEHXZ$0:
  00000	8d 4d e4	 lea	 ecx, DWORD PTR _strRise$[ebp]
  00003	ff 25 00 00 00
	00		 jmp	 DWORD PTR __imp_??1?$CStringT@DV?$StrTraitMFC_DLL@DV?$ChTraitsCRT@D@ATL@@@@@ATL@@QAE@XZ
__unwindfunclet$?OnInitDialog@CDlgConfirmList@@MAEHXZ$1:
  00009	8d 4d e8	 lea	 ecx, DWORD PTR _strFall$[ebp]
  0000c	ff 25 00 00 00
	00		 jmp	 DWORD PTR __imp_??1?$CStringT@DV?$StrTraitMFC_DLL@DV?$ChTraitsCRT@D@ATL@@@@@ATL@@QAE@XZ
__unwindfunclet$?OnInitDialog@CDlgConfirmList@@MAEHXZ$2:
  00012	8d 4d ec	 lea	 ecx, DWORD PTR _strSell$[ebp]
  00015	ff 25 00 00 00
	00		 jmp	 DWORD PTR __imp_??1?$CStringT@DV?$StrTraitMFC_DLL@DV?$ChTraitsCRT@D@ATL@@@@@ATL@@QAE@XZ
__unwindfunclet$?OnInitDialog@CDlgConfirmList@@MAEHXZ$3:
  0001b	8d 4d f0	 lea	 ecx, DWORD PTR _strBuy$[ebp]
  0001e	ff 25 00 00 00
	00		 jmp	 DWORD PTR __imp_??1?$CStringT@DV?$StrTraitMFC_DLL@DV?$ChTraitsCRT@D@ATL@@@@@ATL@@QAE@XZ
  00024	cc		 int	 3
  00025	cc		 int	 3
  00026	cc		 int	 3
  00027	cc		 int	 3
  00028	cc		 int	 3
__ehhandler$?OnInitDialog@CDlgConfirmList@@MAEHXZ:
  00029	90		 npad	 1
  0002a	90		 npad	 1
  0002b	8b 54 24 08	 mov	 edx, DWORD PTR [esp+8]
  0002f	8d 42 0c	 lea	 eax, DWORD PTR [edx+12]
  00032	8b 4a e8	 mov	 ecx, DWORD PTR [edx-24]
  00035	33 c8		 xor	 ecx, eax
  00037	e8 00 00 00 00	 call	 @__security_check_cookie@4
  0003c	b8 00 00 00 00	 mov	 eax, OFFSET __ehfuncinfo$?OnInitDialog@CDlgConfirmList@@MAEHXZ
  00041	e9 00 00 00 00	 jmp	 ___CxxFrameHandler3
text$x	ENDS
?OnInitDialog@CDlgConfirmList@@MAEHXZ ENDP		; CDlgConfirmList::OnInitDialog
; Function compile flags: /Ogtp
; File D:\git\src\IBK\IBK_DRFN\ProjSrc\SrcChartEx\ChartAddIn\ChartPeriodSummaryAddIn\DlgConfirm.cpp
; File C:\Program Files (x86)\Microsoft Visual Studio\2019\Community\VC\Tools\MSVC\14.29.30133\atlmfc\include\afxwin2.inl
; File D:\git\src\IBK\IBK_DRFN\ProjSrc\SrcChartEx\ChartAddIn\ChartPeriodSummaryAddIn\DlgConfirm.cpp
; File C:\Program Files (x86)\Microsoft Visual Studio\2019\Community\VC\Tools\MSVC\14.29.30133\atlmfc\include\afxwin2.inl
; File D:\git\src\IBK\IBK_DRFN\ProjSrc\SrcChartEx\ChartAddIn\ChartPeriodSummaryAddIn\DlgConfirm.cpp
; File C:\Program Files (x86)\Microsoft Visual Studio\2019\Community\VC\Tools\MSVC\14.29.30133\atlmfc\include\atlsimpstr.h
; File D:\git\src\IBK\IBK_DRFN\ProjSrc\SrcChartEx\ChartAddIn\ChartPeriodSummaryAddIn\DlgConfirm.cpp
;	COMDAT ?_DoShowIndex@CDlgConfirmList@@AAEHH@Z
_TEXT	SEGMENT
_nIndex$ = 8						; size = 4
?_DoShowIndex@CDlgConfirmList@@AAEHH@Z PROC		; CDlgConfirmList::_DoShowIndex, COMDAT
; _this$ = ecx

; 224  : {

  00000	55		 push	 ebp
  00001	8b ec		 mov	 ebp, esp
  00003	56		 push	 esi
  00004	57		 push	 edi

; 225  : 	if(nIndex<0 || m_ctlListbox.GetCount()<=nIndex) return FALSE;

  00005	8b 7d 08	 mov	 edi, DWORD PTR _nIndex$[ebp]
  00008	8b f1		 mov	 esi, ecx
  0000a	85 ff		 test	 edi, edi
  0000c	0f 88 c8 00 00
	00		 js	 $LN3@DoShowInde
; File C:\Program Files (x86)\Microsoft Visual Studio\2019\Community\VC\Tools\MSVC\14.29.30133\atlmfc\include\afxwin2.inl

; 664  : 	{ ASSERT(::IsWindow(m_hWnd)); return (int)::SendMessage(m_hWnd, LB_GETCOUNT, 0, 0); }

  00012	6a 00		 push	 0
  00014	6a 00		 push	 0
  00016	68 8b 01 00 00	 push	 395			; 0000018bH
  0001b	ff b6 c8 00 00
	00		 push	 DWORD PTR [esi+200]
  00021	ff 15 00 00 00
	00		 call	 DWORD PTR __imp__SendMessageA@16
; File D:\git\src\IBK\IBK_DRFN\ProjSrc\SrcChartEx\ChartAddIn\ChartPeriodSummaryAddIn\DlgConfirm.cpp

; 225  : 	if(nIndex<0 || m_ctlListbox.GetCount()<=nIndex) return FALSE;

  00027	3b c7		 cmp	 eax, edi
  00029	0f 8e ab 00 00
	00		 jle	 $LN3@DoShowInde
; File C:\Program Files (x86)\Microsoft Visual Studio\2019\Community\VC\Tools\MSVC\14.29.30133\atlmfc\include\afxwin2.inl

; 683  : 	{ ASSERT(::IsWindow(m_hWnd)); return ::SendMessage(m_hWnd, LB_GETITEMDATA, nIndex, 0); }

  0002f	6a 00		 push	 0
  00031	57		 push	 edi
  00032	68 99 01 00 00	 push	 409			; 00000199H
  00037	ff b6 c8 00 00
	00		 push	 DWORD PTR [esi+200]
  0003d	ff 15 00 00 00
	00		 call	 DWORD PTR __imp__SendMessageA@16
; File D:\git\src\IBK\IBK_DRFN\ProjSrc\SrcChartEx\ChartAddIn\ChartPeriodSummaryAddIn\DlgConfirm.cpp

; 227  : 	stCDlgConfirmList_Item* pItemData = (stCDlgConfirmList_Item*)m_ctlListbox.GetItemData(nIndex);

  00043	8b f8		 mov	 edi, eax

; 228  : 	if(pItemData)

  00045	8b ce		 mov	 ecx, esi
  00047	85 ff		 test	 edi, edi
  00049	74 3d		 je	 SHORT $LN4@DoShowInde

; 229  : 	{
; 230  : 		GetDlgItem(IDC_STATIC_NAME)->SetWindowText(pItemData->strName);

  0004b	ff 77 0c	 push	 DWORD PTR [edi+12]
  0004e	68 f5 07 00 00	 push	 2037			; 000007f5H
  00053	e8 00 00 00 00	 call	 ?GetDlgItem@CWnd@@QBEPAV1@H@Z ; CWnd::GetDlgItem
  00058	8b c8		 mov	 ecx, eax
  0005a	e8 00 00 00 00	 call	 ?SetWindowTextA@CWnd@@QAEXPBD@Z ; CWnd::SetWindowTextA
; File C:\Program Files (x86)\Microsoft Visual Studio\2019\Community\VC\Tools\MSVC\14.29.30133\atlmfc\include\atlsimpstr.h

; 377  : 		return( m_pszData );

  0005f	8b 47 10	 mov	 eax, DWORD PTR [edi+16]
; File D:\git\src\IBK\IBK_DRFN\ProjSrc\SrcChartEx\ChartAddIn\ChartPeriodSummaryAddIn\DlgConfirm.cpp

; 231  : 		GetDlgItem(IDC_STATIC_TYPE)->SetWindowText(m_szUpDown[pItemData->nUpDown-1]);

  00062	8b ce		 mov	 ecx, esi
  00064	ff b4 86 30 01
	00 00		 push	 DWORD PTR [esi+eax*4+304]
  0006b	68 f4 07 00 00	 push	 2036			; 000007f4H
  00070	e8 00 00 00 00	 call	 ?GetDlgItem@CWnd@@QBEPAV1@H@Z ; CWnd::GetDlgItem
  00075	8b c8		 mov	 ecx, eax
  00077	e8 00 00 00 00	 call	 ?SetWindowTextA@CWnd@@QAEXPBD@Z ; CWnd::SetWindowTextA

; 232  : 		GetDlgItem(IDC_STATIC_PRICE)->SetWindowText(m_szSellBuy[pItemData->nSellBuy-1]);

  0007c	8b 47 14	 mov	 eax, DWORD PTR [edi+20]
  0007f	8b bc 86 38 01
	00 00		 mov	 edi, DWORD PTR [esi+eax*4+312]

; 233  : 	}

  00086	eb 33		 jmp	 SHORT $LN5@DoShowInde
$LN4@DoShowInde:

; 234  : 	else
; 235  : 	{
; 236  : 		GetDlgItem(IDC_STATIC_NAME)->SetWindowText("");

  00088	68 00 00 00 00	 push	 OFFSET ??_C@_00CNPNBAHC@@
  0008d	68 f5 07 00 00	 push	 2037			; 000007f5H
  00092	e8 00 00 00 00	 call	 ?GetDlgItem@CWnd@@QBEPAV1@H@Z ; CWnd::GetDlgItem
  00097	8b c8		 mov	 ecx, eax
  00099	e8 00 00 00 00	 call	 ?SetWindowTextA@CWnd@@QAEXPBD@Z ; CWnd::SetWindowTextA

; 237  : 		GetDlgItem(IDC_STATIC_TYPE)->SetWindowText("");

  0009e	68 00 00 00 00	 push	 OFFSET ??_C@_00CNPNBAHC@@
  000a3	68 f4 07 00 00	 push	 2036			; 000007f4H
  000a8	8b ce		 mov	 ecx, esi
  000aa	e8 00 00 00 00	 call	 ?GetDlgItem@CWnd@@QBEPAV1@H@Z ; CWnd::GetDlgItem
  000af	8b c8		 mov	 ecx, eax
  000b1	e8 00 00 00 00	 call	 ?SetWindowTextA@CWnd@@QAEXPBD@Z ; CWnd::SetWindowTextA

; 238  : 		GetDlgItem(IDC_STATIC_PRICE)->SetWindowText("");

  000b6	bf 00 00 00 00	 mov	 edi, OFFSET ??_C@_00CNPNBAHC@@
$LN5@DoShowInde:

; 239  : 	}
; 240  : 	return TRUE;

  000bb	68 f6 07 00 00	 push	 2038			; 000007f6H
  000c0	8b ce		 mov	 ecx, esi
  000c2	e8 00 00 00 00	 call	 ?GetDlgItem@CWnd@@QBEPAV1@H@Z ; CWnd::GetDlgItem
  000c7	57		 push	 edi
  000c8	8b c8		 mov	 ecx, eax
  000ca	e8 00 00 00 00	 call	 ?SetWindowTextA@CWnd@@QAEXPBD@Z ; CWnd::SetWindowTextA
  000cf	5f		 pop	 edi
  000d0	b8 01 00 00 00	 mov	 eax, 1

; 241  : }

  000d5	5e		 pop	 esi
  000d6	5d		 pop	 ebp
  000d7	c2 04 00	 ret	 4
$LN3@DoShowInde:
  000da	5f		 pop	 edi

; 225  : 	if(nIndex<0 || m_ctlListbox.GetCount()<=nIndex) return FALSE;

  000db	33 c0		 xor	 eax, eax

; 241  : }

  000dd	5e		 pop	 esi
  000de	5d		 pop	 ebp
  000df	c2 04 00	 ret	 4
?_DoShowIndex@CDlgConfirmList@@AAEHH@Z ENDP		; CDlgConfirmList::_DoShowIndex
_TEXT	ENDS
; Function compile flags: /Ogtp
; File C:\Program Files (x86)\Microsoft Visual Studio\2019\Community\VC\Tools\MSVC\14.29.30133\atlmfc\include\afxtempl.h
; File C:\Program Files (x86)\Microsoft Visual Studio\2019\Community\VC\Tools\MSVC\14.29.30133\atlmfc\include\afx.inl
;	COMDAT ??_G?$CList@PAUstCDlgConfirmList_Item@@PAU1@@@UAEPAXI@Z
_TEXT	SEGMENT
__$EHRec$ = -12						; size = 12
___flags$ = 8						; size = 4
??_G?$CList@PAUstCDlgConfirmList_Item@@PAU1@@@UAEPAXI@Z PROC ; CList<stCDlgConfirmList_Item *,stCDlgConfirmList_Item *>::`scalar deleting destructor', COMDAT
; _this$ = ecx
  00000	55		 push	 ebp
  00001	8b ec		 mov	 ebp, esp
  00003	6a ff		 push	 -1
  00005	68 00 00 00 00	 push	 __ehhandler$??_G?$CList@PAUstCDlgConfirmList_Item@@PAU1@@@UAEPAXI@Z
  0000a	64 a1 00 00 00
	00		 mov	 eax, DWORD PTR fs:0
  00010	50		 push	 eax
  00011	56		 push	 esi
  00012	a1 00 00 00 00	 mov	 eax, DWORD PTR ___security_cookie
  00017	33 c5		 xor	 eax, ebp
  00019	50		 push	 eax
  0001a	8d 45 f4	 lea	 eax, DWORD PTR __$EHRec$[ebp]
  0001d	64 a3 00 00 00
	00		 mov	 DWORD PTR fs:0, eax
  00023	8b f1		 mov	 esi, ecx
; File C:\Program Files (x86)\Microsoft Visual Studio\2019\Community\VC\Tools\MSVC\14.29.30133\atlmfc\include\afxtempl.h

; 872  : 	m_pBlocks->FreeDataChain();

  00025	8b 4e 14	 mov	 ecx, DWORD PTR [esi+20]

; 878  : {

  00028	c7 45 fc 00 00
	00 00		 mov	 DWORD PTR __$EHRec$[ebp+8], 0
  0002f	c7 06 00 00 00
	00		 mov	 DWORD PTR [esi], OFFSET ??_7?$CList@PAUstCDlgConfirmList_Item@@PAU1@@@6B@

; 870  : 	m_nCount = 0;

  00035	c7 46 0c 00 00
	00 00		 mov	 DWORD PTR [esi+12], 0

; 871  : 	m_pNodeHead = m_pNodeTail = m_pNodeFree = NULL;

  0003c	c7 46 10 00 00
	00 00		 mov	 DWORD PTR [esi+16], 0
  00043	c7 46 08 00 00
	00 00		 mov	 DWORD PTR [esi+8], 0
  0004a	c7 46 04 00 00
	00 00		 mov	 DWORD PTR [esi+4], 0

; 872  : 	m_pBlocks->FreeDataChain();

  00051	e8 00 00 00 00	 call	 ?FreeDataChain@CPlex@@QAEXXZ ; CPlex::FreeDataChain

; 873  : 	m_pBlocks = NULL;

  00056	8b 45 08	 mov	 eax, DWORD PTR ___flags$[ebp]
  00059	c7 46 14 00 00
	00 00		 mov	 DWORD PTR [esi+20], 0
  00060	a8 01		 test	 al, 1
  00062	74 2c		 je	 SHORT $LN22@scalar
  00064	a8 04		 test	 al, 4
  00066	75 1d		 jne	 SHORT $LN3@scalar
; File C:\Program Files (x86)\Microsoft Visual Studio\2019\Community\VC\Tools\MSVC\14.29.30133\atlmfc\include\afx.inl

; 112  : 	{ ::operator delete(p); }

  00068	56		 push	 esi
  00069	e8 00 00 00 00	 call	 ??3@YAXPAX@Z		; operator delete
  0006e	83 c4 04	 add	 esp, 4
  00071	8b c6		 mov	 eax, esi
  00073	8b 4d f4	 mov	 ecx, DWORD PTR __$EHRec$[ebp]
  00076	64 89 0d 00 00
	00 00		 mov	 DWORD PTR fs:0, ecx
  0007d	59		 pop	 ecx
  0007e	5e		 pop	 esi
  0007f	8b e5		 mov	 esp, ebp
  00081	5d		 pop	 ebp
  00082	c2 04 00	 ret	 4
$LN3@scalar:
  00085	6a 1c		 push	 28			; 0000001cH
  00087	56		 push	 esi
  00088	e8 00 00 00 00	 call	 ?__global_delete@@YAXPAXI@Z ; __global_delete
  0008d	83 c4 08	 add	 esp, 8
$LN22@scalar:
  00090	8b c6		 mov	 eax, esi
  00092	8b 4d f4	 mov	 ecx, DWORD PTR __$EHRec$[ebp]
  00095	64 89 0d 00 00
	00 00		 mov	 DWORD PTR fs:0, ecx
  0009c	59		 pop	 ecx
  0009d	5e		 pop	 esi
  0009e	8b e5		 mov	 esp, ebp
  000a0	5d		 pop	 ebp
  000a1	c2 04 00	 ret	 4
  000a4	cc		 int	 3
  000a5	cc		 int	 3
  000a6	cc		 int	 3
  000a7	cc		 int	 3
  000a8	cc		 int	 3
_TEXT	ENDS
;	COMDAT text$x
text$x	SEGMENT
__ehhandler$??_G?$CList@PAUstCDlgConfirmList_Item@@PAU1@@@UAEPAXI@Z:
  00000	90		 npad	 1
  00001	90		 npad	 1
  00002	8b 54 24 08	 mov	 edx, DWORD PTR [esp+8]
  00006	8d 42 0c	 lea	 eax, DWORD PTR [edx+12]
  00009	8b 4a f8	 mov	 ecx, DWORD PTR [edx-8]
  0000c	33 c8		 xor	 ecx, eax
  0000e	e8 00 00 00 00	 call	 @__security_check_cookie@4
  00013	b8 00 00 00 00	 mov	 eax, OFFSET __ehfuncinfo$??_G?$CList@PAUstCDlgConfirmList_Item@@PAU1@@@UAEPAXI@Z
  00018	e9 00 00 00 00	 jmp	 ___CxxFrameHandler3
text$x	ENDS
??_G?$CList@PAUstCDlgConfirmList_Item@@PAU1@@@UAEPAXI@Z ENDP ; CList<stCDlgConfirmList_Item *,stCDlgConfirmList_Item *>::`scalar deleting destructor'
; Function compile flags: /Ogtp
; File C:\Program Files (x86)\Microsoft Visual Studio\2019\Community\VC\Tools\MSVC\14.29.30133\atlmfc\include\afxtempl.h
; File C:\Program Files (x86)\Microsoft Visual Studio\2019\Community\VC\Tools\MSVC\14.29.30133\atlmfc\include\afx.inl
; File C:\Program Files (x86)\Microsoft Visual Studio\2019\Community\VC\Tools\MSVC\14.29.30133\atlmfc\include\afxtempl.h
; File C:\Program Files (x86)\Microsoft Visual Studio\2019\Community\VC\Tools\MSVC\14.29.30133\atlmfc\include\afx.inl
; File C:\Program Files (x86)\Microsoft Visual Studio\2019\Community\VC\Tools\MSVC\14.29.30133\atlmfc\include\afxtempl.h
; File C:\Program Files (x86)\Microsoft Visual Studio\2019\Community\VC\Tools\MSVC\14.29.30133\atlmfc\include\afx.inl
; File C:\Program Files (x86)\Microsoft Visual Studio\2019\Community\VC\Tools\MSVC\14.29.30133\atlmfc\include\afxtempl.h
; File C:\Program Files (x86)\Microsoft Visual Studio\2019\Community\VC\Tools\MSVC\14.29.30133\atlmfc\include\afx.inl
; File C:\Program Files (x86)\Microsoft Visual Studio\2019\Community\VC\Tools\MSVC\14.29.30133\atlmfc\include\afxtempl.h
; File C:\Program Files (x86)\Microsoft Visual Studio\2019\Community\VC\Tools\MSVC\14.29.30133\atlmfc\include\afx.inl
; File C:\Program Files (x86)\Microsoft Visual Studio\2019\Community\VC\Tools\MSVC\14.29.30133\atlmfc\include\afxtempl.h
; File C:\Program Files (x86)\Microsoft Visual Studio\2019\Community\VC\Tools\MSVC\14.29.30133\atlmfc\include\afx.inl
; File C:\Program Files (x86)\Microsoft Visual Studio\2019\Community\VC\Tools\MSVC\14.29.30133\atlmfc\include\afxtempl.h
;	COMDAT ?Serialize@?$CList@PAUstCDlgConfirmList_Item@@PAU1@@@UAEXAAVCArchive@@@Z
_TEXT	SEGMENT
_nNewCount$1$ = -16					; size = 4
_newData$1 = -12					; size = 4
_pData$1$ = -8						; size = 4
_pNode$1$ = -8						; size = 4
_nElementsLeft$1$ = -4					; size = 4
_this$1$ = -4						; size = 4
_ar$ = 8						; size = 4
?Serialize@?$CList@PAUstCDlgConfirmList_Item@@PAU1@@@UAEXAAVCArchive@@@Z PROC ; CList<stCDlgConfirmList_Item *,stCDlgConfirmList_Item *>::Serialize, COMDAT
; _this$ = ecx

; 1169 : {

  00000	55		 push	 ebp
  00001	8b ec		 mov	 ebp, esp
  00003	83 ec 10	 sub	 esp, 16			; 00000010H
  00006	53		 push	 ebx
  00007	8b d9		 mov	 ebx, ecx
; File C:\Program Files (x86)\Microsoft Visual Studio\2019\Community\VC\Tools\MSVC\14.29.30133\atlmfc\include\afx.inl

; 212  : 	{ return (m_nMode & CArchive::load) == 0; }

  00009	8b 4d 08	 mov	 ecx, DWORD PTR _ar$[ebp]
; File C:\Program Files (x86)\Microsoft Visual Studio\2019\Community\VC\Tools\MSVC\14.29.30133\atlmfc\include\afxtempl.h

; 1169 : {

  0000c	56		 push	 esi
  0000d	57		 push	 edi
  0000e	89 5d fc	 mov	 DWORD PTR _this$1$[ebp], ebx
; File C:\Program Files (x86)\Microsoft Visual Studio\2019\Community\VC\Tools\MSVC\14.29.30133\atlmfc\include\afx.inl

; 212  : 	{ return (m_nMode & CArchive::load) == 0; }

  00011	8b 41 18	 mov	 eax, DWORD PTR [ecx+24]
  00014	f7 d0		 not	 eax
  00016	a8 01		 test	 al, 1
; File C:\Program Files (x86)\Microsoft Visual Studio\2019\Community\VC\Tools\MSVC\14.29.30133\atlmfc\include\afxtempl.h

; 1174 : 	if (ar.IsStoring())

  00018	0f 84 ae 00 00
	00		 je	 $LN7@Serialize

; 1175 : 	{
; 1176 : 		ar.WriteCount(m_nCount);

  0001e	ff 73 0c	 push	 DWORD PTR [ebx+12]
  00021	e8 00 00 00 00	 call	 ?WriteCount@CArchive@@QAEXK@Z ; CArchive::WriteCount

; 1177 : 		for (CNode* pNode = m_pNodeHead; pNode != NULL; pNode = pNode->pNext)

  00026	8b 43 04	 mov	 eax, DWORD PTR [ebx+4]
  00029	89 45 f8	 mov	 DWORD PTR _pNode$1$[ebp], eax
  0002c	85 c0		 test	 eax, eax
  0002e	0f 84 43 01 00
	00		 je	 $LN68@Serialize
$LL4@Serialize:

; 1178 : 		{
; 1179 : 			ASSERT(AfxIsValidAddress(pNode, sizeof(CNode)));
; 1180 : 			TYPE* pData;
; 1181 : 			/*
; 1182 : 			 * in some cases the & operator might be overloaded, and we cannot use it to obtain
; 1183 : 			 * the address of a given object.  We then use the following trick to get the address
; 1184 : 			 */
; 1185 : 			pData = reinterpret_cast< TYPE* >( &reinterpret_cast< int& >( static_cast< TYPE& >( pNode->data ) ) );

  00034	8d 70 08	 lea	 esi, DWORD PTR [eax+8]

; 68   : 	ENSURE(nCount == 0 || pElements != NULL);

  00037	85 f6		 test	 esi, esi
  00039	0f 84 4a 01 00
	00		 je	 $LN60@Serialize
; File C:\Program Files (x86)\Microsoft Visual Studio\2019\Community\VC\Tools\MSVC\14.29.30133\atlmfc\include\afx.inl

; 212  : 	{ return (m_nMode & CArchive::load) == 0; }

  0003f	8b 4d 08	 mov	 ecx, DWORD PTR _ar$[ebp]
  00042	8b 41 18	 mov	 eax, DWORD PTR [ecx+24]
  00045	f7 d0		 not	 eax
  00047	a8 01		 test	 al, 1
; File C:\Program Files (x86)\Microsoft Visual Studio\2019\Community\VC\Tools\MSVC\14.29.30133\atlmfc\include\afxtempl.h

; 73   : 	if (ar.IsStoring())

  00049	74 33		 je	 SHORT $LN21@Serialize

; 74   : 	{
; 75   : 		TYPE* pData;
; 76   : 		UINT_PTR nElementsLeft;
; 77   : 
; 78   : 		nElementsLeft = nCount;

  0004b	b8 01 00 00 00	 mov	 eax, 1
  00050	89 45 fc	 mov	 DWORD PTR _nElementsLeft$1$[ebp], eax
$LL16@Serialize:

; 80   : 		while( nElementsLeft > 0 )
; 81   : 		{
; 82   : 			UINT nElementsToWrite;
; 83   : 
; 84   : 			nElementsToWrite = UINT(__min(nElementsLeft, INT_MAX/sizeof(TYPE)));

  00053	bb ff ff ff 1f	 mov	 ebx, 536870911		; 1fffffffH
  00058	3b c3		 cmp	 eax, ebx
  0005a	0f 42 d8	 cmovb	 ebx, eax

; 85   : 			ar.Write(pData, nElementsToWrite*sizeof(TYPE));

  0005d	8d 3c 9d 00 00
	00 00		 lea	 edi, DWORD PTR [ebx*4]
  00064	57		 push	 edi
  00065	56		 push	 esi
  00066	e8 00 00 00 00	 call	 ?Write@CArchive@@QAEXPBXI@Z ; CArchive::Write

; 86   : 			nElementsLeft -= nElementsToWrite;

  0006b	8b 45 fc	 mov	 eax, DWORD PTR _nElementsLeft$1$[ebp]

; 87   : 			pData += nElementsToWrite;

  0006e	03 f7		 add	 esi, edi
  00070	8b 4d 08	 mov	 ecx, DWORD PTR _ar$[ebp]
  00073	2b c3		 sub	 eax, ebx
  00075	89 45 fc	 mov	 DWORD PTR _nElementsLeft$1$[ebp], eax
  00078	85 c0		 test	 eax, eax
  0007a	75 d7		 jne	 SHORT $LL16@Serialize

; 88   : 		}
; 89   : 	}

  0007c	eb 35		 jmp	 SHORT $LN2@Serialize
$LN21@Serialize:

; 90   : 	else
; 91   : 	{
; 92   : 		TYPE* pData;
; 93   : 		UINT_PTR nElementsLeft;
; 94   : 
; 95   : 		nElementsLeft = nCount;

  0007e	bf 01 00 00 00	 mov	 edi, 1
$LL18@Serialize:

; 98   : 		{
; 99   : 			UINT nElementsToRead;
; 100  : 
; 101  : 			nElementsToRead = UINT(__min(nElementsLeft, INT_MAX/sizeof(TYPE)));

  00083	bb ff ff ff 1f	 mov	 ebx, 536870911		; 1fffffffH
  00088	3b fb		 cmp	 edi, ebx
  0008a	0f 42 df	 cmovb	 ebx, edi

; 102  : 			ar.EnsureRead(pData, nElementsToRead*sizeof(TYPE));

  0008d	8d 04 9d 00 00
	00 00		 lea	 eax, DWORD PTR [ebx*4]
; File C:\Program Files (x86)\Microsoft Visual Studio\2019\Community\VC\Tools\MSVC\14.29.30133\atlmfc\include\afx.inl

; 399  : 	UINT nRead=Read(lpBuf, nCount);

  00094	50		 push	 eax
  00095	56		 push	 esi
  00096	e8 00 00 00 00	 call	 ?Read@CArchive@@QAEIPAXI@Z ; CArchive::Read

; 400  : 	if(nRead!=nCount)

  0009b	8d 0c 9d 00 00
	00 00		 lea	 ecx, DWORD PTR [ebx*4]
  000a2	3b c1		 cmp	 eax, ecx
  000a4	0f 85 d6 00 00
	00		 jne	 $LN59@Serialize
; File C:\Program Files (x86)\Microsoft Visual Studio\2019\Community\VC\Tools\MSVC\14.29.30133\atlmfc\include\afxtempl.h

; 97   : 		while( nElementsLeft > 0 )

  000aa	03 f1		 add	 esi, ecx
  000ac	8b 4d 08	 mov	 ecx, DWORD PTR _ar$[ebp]

; 103  : 			nElementsLeft -= nElementsToRead;

  000af	2b fb		 sub	 edi, ebx
  000b1	75 d0		 jne	 SHORT $LL18@Serialize
$LN2@Serialize:

; 1177 : 		for (CNode* pNode = m_pNodeHead; pNode != NULL; pNode = pNode->pNext)

  000b3	8b 45 f8	 mov	 eax, DWORD PTR _pNode$1$[ebp]
  000b6	8b 00		 mov	 eax, DWORD PTR [eax]
  000b8	89 45 f8	 mov	 DWORD PTR _pNode$1$[ebp], eax
  000bb	85 c0		 test	 eax, eax
  000bd	0f 85 71 ff ff
	ff		 jne	 $LL4@Serialize

; 1197 : 		}
; 1198 : 	}
; 1199 : }

  000c3	5f		 pop	 edi
  000c4	5e		 pop	 esi
  000c5	5b		 pop	 ebx
  000c6	8b e5		 mov	 esp, ebp
  000c8	5d		 pop	 ebp
  000c9	c2 04 00	 ret	 4
$LN7@Serialize:

; 1186 : 			SerializeElements<TYPE>(ar, pData, 1);
; 1187 : 		}
; 1188 : 	}
; 1189 : 	else
; 1190 : 	{
; 1191 : 		DWORD_PTR nNewCount = ar.ReadCount();

  000cc	e8 00 00 00 00	 call	 ?ReadCount@CArchive@@QAEKXZ ; CArchive::ReadCount

; 1192 : 		while (nNewCount--)

  000d1	85 c0		 test	 eax, eax
  000d3	0f 84 9e 00 00
	00		 je	 $LN68@Serialize
  000d9	0f 1f 80 00 00
	00 00		 npad	 7
$LL5@Serialize:
  000e0	48		 dec	 eax
  000e1	89 45 f0	 mov	 DWORD PTR _nNewCount$1$[ebp], eax
; File C:\Program Files (x86)\Microsoft Visual Studio\2019\Community\VC\Tools\MSVC\14.29.30133\atlmfc\include\afx.inl

; 212  : 	{ return (m_nMode & CArchive::load) == 0; }

  000e4	8b 45 08	 mov	 eax, DWORD PTR _ar$[ebp]
  000e7	8b 48 18	 mov	 ecx, DWORD PTR [eax+24]
  000ea	f7 d1		 not	 ecx
  000ec	f6 c1 01	 test	 cl, 1
; File C:\Program Files (x86)\Microsoft Visual Studio\2019\Community\VC\Tools\MSVC\14.29.30133\atlmfc\include\afxtempl.h

; 73   : 	if (ar.IsStoring())

  000ef	74 3a		 je	 SHORT $LN42@Serialize

; 79   : 		pData = pElements;

  000f1	8d 4d f4	 lea	 ecx, DWORD PTR _newData$1[ebp]
  000f4	bb 01 00 00 00	 mov	 ebx, 1
  000f9	89 4d f8	 mov	 DWORD PTR _pData$1$[ebp], ecx
  000fc	0f 1f 40 00	 npad	 4
$LL37@Serialize:

; 80   : 		while( nElementsLeft > 0 )
; 81   : 		{
; 82   : 			UINT nElementsToWrite;
; 83   : 
; 84   : 			nElementsToWrite = UINT(__min(nElementsLeft, INT_MAX/sizeof(TYPE)));

  00100	bf ff ff ff 1f	 mov	 edi, 536870911		; 1fffffffH
  00105	3b df		 cmp	 ebx, edi
  00107	0f 42 fb	 cmovb	 edi, ebx

; 85   : 			ar.Write(pData, nElementsToWrite*sizeof(TYPE));

  0010a	8d 34 bd 00 00
	00 00		 lea	 esi, DWORD PTR [edi*4]
  00111	56		 push	 esi
  00112	51		 push	 ecx
  00113	8b c8		 mov	 ecx, eax
  00115	e8 00 00 00 00	 call	 ?Write@CArchive@@QAEXPBXI@Z ; CArchive::Write

; 87   : 			pData += nElementsToWrite;

  0011a	8b 4d f8	 mov	 ecx, DWORD PTR _pData$1$[ebp]
  0011d	8b 45 08	 mov	 eax, DWORD PTR _ar$[ebp]
  00120	03 ce		 add	 ecx, esi
  00122	89 4d f8	 mov	 DWORD PTR _pData$1$[ebp], ecx
  00125	2b df		 sub	 ebx, edi
  00127	75 d7		 jne	 SHORT $LL37@Serialize

; 88   : 		}
; 89   : 	}

  00129	eb 36		 jmp	 SHORT $LN40@Serialize
$LN42@Serialize:

; 90   : 	else
; 91   : 	{
; 92   : 		TYPE* pData;
; 93   : 		UINT_PTR nElementsLeft;
; 94   : 
; 95   : 		nElementsLeft = nCount;

  0012b	be 01 00 00 00	 mov	 esi, 1

; 96   : 		pData = pElements;

  00130	8d 5d f4	 lea	 ebx, DWORD PTR _newData$1[ebp]
$LL39@Serialize:

; 98   : 		{
; 99   : 			UINT nElementsToRead;
; 100  : 
; 101  : 			nElementsToRead = UINT(__min(nElementsLeft, INT_MAX/sizeof(TYPE)));

  00133	bf ff ff ff 1f	 mov	 edi, 536870911		; 1fffffffH
  00138	3b f7		 cmp	 esi, edi
  0013a	0f 42 fe	 cmovb	 edi, esi

; 102  : 			ar.EnsureRead(pData, nElementsToRead*sizeof(TYPE));

  0013d	8d 0c bd 00 00
	00 00		 lea	 ecx, DWORD PTR [edi*4]
; File C:\Program Files (x86)\Microsoft Visual Studio\2019\Community\VC\Tools\MSVC\14.29.30133\atlmfc\include\afx.inl

; 399  : 	UINT nRead=Read(lpBuf, nCount);

  00144	51		 push	 ecx
  00145	53		 push	 ebx
  00146	8b c8		 mov	 ecx, eax
  00148	e8 00 00 00 00	 call	 ?Read@CArchive@@QAEIPAXI@Z ; CArchive::Read

; 400  : 	if(nRead!=nCount)

  0014d	8d 0c bd 00 00
	00 00		 lea	 ecx, DWORD PTR [edi*4]
  00154	3b c1		 cmp	 eax, ecx
  00156	75 28		 jne	 SHORT $LN59@Serialize
; File C:\Program Files (x86)\Microsoft Visual Studio\2019\Community\VC\Tools\MSVC\14.29.30133\atlmfc\include\afxtempl.h

; 104  : 			pData += nElementsToRead;

  00158	8b 45 08	 mov	 eax, DWORD PTR _ar$[ebp]
  0015b	03 d9		 add	 ebx, ecx
  0015d	2b f7		 sub	 esi, edi
  0015f	75 d2		 jne	 SHORT $LL39@Serialize
$LN40@Serialize:

; 1193 : 		{
; 1194 : 			TYPE newData[1];
; 1195 : 			SerializeElements<TYPE>(ar, newData, 1);
; 1196 : 			AddTail(newData[0]);

  00161	ff 75 f4	 push	 DWORD PTR _newData$1[ebp]
  00164	8b 4d fc	 mov	 ecx, DWORD PTR _this$1$[ebp]
  00167	e8 00 00 00 00	 call	 ?AddTail@?$CList@PAUstCDlgConfirmList_Item@@PAU1@@@QAEPAU__POSITION@@PAUstCDlgConfirmList_Item@@@Z ; CList<stCDlgConfirmList_Item *,stCDlgConfirmList_Item *>::AddTail
  0016c	8b 45 f0	 mov	 eax, DWORD PTR _nNewCount$1$[ebp]
  0016f	85 c0		 test	 eax, eax
  00171	0f 85 69 ff ff
	ff		 jne	 $LL5@Serialize
$LN68@Serialize:
  00177	5f		 pop	 edi

; 1197 : 		}
; 1198 : 	}
; 1199 : }

  00178	5e		 pop	 esi
  00179	5b		 pop	 ebx
  0017a	8b e5		 mov	 esp, ebp
  0017c	5d		 pop	 ebp
  0017d	c2 04 00	 ret	 4
$LN59@Serialize:
  00180	6a 00		 push	 0
  00182	6a 03		 push	 3
  00184	e8 00 00 00 00	 call	 ?AfxThrowArchiveException@@YGXHPBD@Z ; AfxThrowArchiveException
$LN60@Serialize:

; 68   : 	ENSURE(nCount == 0 || pElements != NULL);

  00189	e8 00 00 00 00	 call	 ?AfxThrowInvalidArgException@@YGXXZ ; AfxThrowInvalidArgException
$LN85@Serialize:
  0018e	cc		 int	 3
?Serialize@?$CList@PAUstCDlgConfirmList_Item@@PAU1@@@UAEXAAVCArchive@@@Z ENDP ; CList<stCDlgConfirmList_Item *,stCDlgConfirmList_Item *>::Serialize
_TEXT	ENDS
; Function compile flags: /Ogtp
; File C:\Program Files (x86)\Microsoft Visual Studio\2019\Community\VC\Tools\MSVC\14.29.30133\atlmfc\include\afxtempl.h
;	COMDAT ??1?$CList@PAUstCDlgConfirmList_Item@@PAU1@@@UAE@XZ
_TEXT	SEGMENT
__$EHRec$ = -12						; size = 12
??1?$CList@PAUstCDlgConfirmList_Item@@PAU1@@@UAE@XZ PROC ; CList<stCDlgConfirmList_Item *,stCDlgConfirmList_Item *>::~CList<stCDlgConfirmList_Item *,stCDlgConfirmList_Item *>, COMDAT
; _this$ = ecx

; 878  : {

  00000	55		 push	 ebp
  00001	8b ec		 mov	 ebp, esp
  00003	6a ff		 push	 -1
  00005	68 00 00 00 00	 push	 __ehhandler$??1?$CList@PAUstCDlgConfirmList_Item@@PAU1@@@UAE@XZ
  0000a	64 a1 00 00 00
	00		 mov	 eax, DWORD PTR fs:0
  00010	50		 push	 eax
  00011	56		 push	 esi
  00012	a1 00 00 00 00	 mov	 eax, DWORD PTR ___security_cookie
  00017	33 c5		 xor	 eax, ebp
  00019	50		 push	 eax
  0001a	8d 45 f4	 lea	 eax, DWORD PTR __$EHRec$[ebp]
  0001d	64 a3 00 00 00
	00		 mov	 DWORD PTR fs:0, eax
  00023	8b f1		 mov	 esi, ecx

; 872  : 	m_pBlocks->FreeDataChain();

  00025	8b 4e 14	 mov	 ecx, DWORD PTR [esi+20]

; 878  : {

  00028	c7 06 00 00 00
	00		 mov	 DWORD PTR [esi], OFFSET ??_7?$CList@PAUstCDlgConfirmList_Item@@PAU1@@@6B@

; 870  : 	m_nCount = 0;

  0002e	c7 46 0c 00 00
	00 00		 mov	 DWORD PTR [esi+12], 0

; 871  : 	m_pNodeHead = m_pNodeTail = m_pNodeFree = NULL;

  00035	c7 46 10 00 00
	00 00		 mov	 DWORD PTR [esi+16], 0
  0003c	c7 46 08 00 00
	00 00		 mov	 DWORD PTR [esi+8], 0
  00043	c7 46 04 00 00
	00 00		 mov	 DWORD PTR [esi+4], 0

; 872  : 	m_pBlocks->FreeDataChain();

  0004a	e8 00 00 00 00	 call	 ?FreeDataChain@CPlex@@QAEXXZ ; CPlex::FreeDataChain

; 873  : 	m_pBlocks = NULL;

  0004f	c7 46 14 00 00
	00 00		 mov	 DWORD PTR [esi+20], 0

; 879  : 	RemoveAll();
; 880  : 	ASSERT(m_nCount == 0);
; 881  : }

  00056	8b 4d f4	 mov	 ecx, DWORD PTR __$EHRec$[ebp]
  00059	64 89 0d 00 00
	00 00		 mov	 DWORD PTR fs:0, ecx
  00060	59		 pop	 ecx
  00061	5e		 pop	 esi
  00062	8b e5		 mov	 esp, ebp
  00064	5d		 pop	 ebp
  00065	c3		 ret	 0
  00066	cc		 int	 3
  00067	cc		 int	 3
  00068	cc		 int	 3
  00069	cc		 int	 3
  0006a	cc		 int	 3
_TEXT	ENDS
;	COMDAT text$x
text$x	SEGMENT
__ehhandler$??1?$CList@PAUstCDlgConfirmList_Item@@PAU1@@@UAE@XZ:
  00000	90		 npad	 1
  00001	90		 npad	 1
  00002	8b 54 24 08	 mov	 edx, DWORD PTR [esp+8]
  00006	8d 42 0c	 lea	 eax, DWORD PTR [edx+12]
  00009	8b 4a f8	 mov	 ecx, DWORD PTR [edx-8]
  0000c	33 c8		 xor	 ecx, eax
  0000e	e8 00 00 00 00	 call	 @__security_check_cookie@4
  00013	b8 00 00 00 00	 mov	 eax, OFFSET __ehfuncinfo$??1?$CList@PAUstCDlgConfirmList_Item@@PAU1@@@UAE@XZ
  00018	e9 00 00 00 00	 jmp	 ___CxxFrameHandler3
text$x	ENDS
??1?$CList@PAUstCDlgConfirmList_Item@@PAU1@@@UAE@XZ ENDP ; CList<stCDlgConfirmList_Item *,stCDlgConfirmList_Item *>::~CList<stCDlgConfirmList_Item *,stCDlgConfirmList_Item *>
; Function compile flags: /Ogtp
; File C:\Program Files (x86)\Microsoft Visual Studio\2019\Community\VC\Tools\MSVC\14.29.30133\atlmfc\include\afxtempl.h
;	COMDAT ?NewNode@?$CList@PAUstCDlgConfirmList_Item@@PAU1@@@IAEPAUCNode@1@PAU21@0@Z
_TEXT	SEGMENT
_pPrev$ = 8						; size = 4
_pNext$ = 12						; size = 4
?NewNode@?$CList@PAUstCDlgConfirmList_Item@@PAU1@@@IAEPAUCNode@1@PAU21@0@Z PROC ; CList<stCDlgConfirmList_Item *,stCDlgConfirmList_Item *>::NewNode, COMDAT
; _this$ = ecx

; 901  : {

  00000	55		 push	 ebp
  00001	8b ec		 mov	 ebp, esp
  00003	56		 push	 esi
  00004	8b f1		 mov	 esi, ecx

; 902  : 	if (m_pNodeFree == NULL)

  00006	83 7e 10 00	 cmp	 DWORD PTR [esi+16], 0
  0000a	75 34		 jne	 SHORT $LN7@NewNode

; 903  : 	{
; 904  : 		// add another block
; 905  : 		CPlex* pNewBlock = CPlex::Create(m_pBlocks, m_nBlockSize,

  0000c	6a 0c		 push	 12			; 0000000cH
  0000e	ff 76 18	 push	 DWORD PTR [esi+24]
  00011	8d 46 14	 lea	 eax, DWORD PTR [esi+20]
  00014	50		 push	 eax
  00015	e8 00 00 00 00	 call	 ?Create@CPlex@@SGPAU1@AAPAU1@II@Z ; CPlex::Create

; 906  : 				 sizeof(CNode));
; 907  : 
; 908  : 		// chain them into free list
; 909  : 		CNode* pNode = (CNode*) pNewBlock->data();
; 910  : 		// free in reverse order to make it easier to debug
; 911  : 		pNode += m_nBlockSize - 1;

  0001a	8b 56 18	 mov	 edx, DWORD PTR [esi+24]
  0001d	83 c0 08	 add	 eax, 8
  00020	8d 0c 52	 lea	 ecx, DWORD PTR [edx+edx*2]
  00023	8d 04 88	 lea	 eax, DWORD PTR [eax+ecx*4]
  00026	83 c0 f4	 add	 eax, -12		; fffffff4H

; 912  : 		for (INT_PTR i = m_nBlockSize-1; i >= 0; i--, pNode--)

  00029	83 c2 ff	 add	 edx, -1
  0002c	78 12		 js	 SHORT $LN7@NewNode
  0002e	66 90		 npad	 2
$LL4@NewNode:

; 913  : 		{
; 914  : 			pNode->pNext = m_pNodeFree;

  00030	8b 4e 10	 mov	 ecx, DWORD PTR [esi+16]
  00033	89 08		 mov	 DWORD PTR [eax], ecx

; 915  : 			m_pNodeFree = pNode;

  00035	89 46 10	 mov	 DWORD PTR [esi+16], eax
  00038	83 e8 0c	 sub	 eax, 12			; 0000000cH
  0003b	83 ea 01	 sub	 edx, 1
  0003e	79 f0		 jns	 SHORT $LL4@NewNode
$LN7@NewNode:

; 916  : 		}
; 917  : 	}
; 918  : 	ENSURE(m_pNodeFree != NULL);  // we must have something

  00040	8b 46 10	 mov	 eax, DWORD PTR [esi+16]
  00043	85 c0		 test	 eax, eax
  00045	74 18		 je	 SHORT $LN17@NewNode

; 919  : 
; 920  : 	CList::CNode* pNode = m_pNodeFree;
; 921  : 	m_pNodeFree = m_pNodeFree->pNext;

  00047	8b 08		 mov	 ecx, DWORD PTR [eax]
  00049	89 4e 10	 mov	 DWORD PTR [esi+16], ecx

; 922  : 	pNode->pPrev = pPrev;

  0004c	8b 4d 08	 mov	 ecx, DWORD PTR _pPrev$[ebp]
  0004f	89 48 04	 mov	 DWORD PTR [eax+4], ecx

; 923  : 	pNode->pNext = pNext;

  00052	8b 4d 0c	 mov	 ecx, DWORD PTR _pNext$[ebp]
  00055	89 08		 mov	 DWORD PTR [eax], ecx

; 924  : 	m_nCount++;

  00057	ff 46 0c	 inc	 DWORD PTR [esi+12]

; 925  : 	ASSERT(m_nCount > 0);  // make sure we don't overflow
; 926  : 
; 927  : #pragma push_macro("new")
; 928  : #undef new
; 929  : 	::new( (void*)( &pNode->data ) ) TYPE;
; 930  : #pragma pop_macro("new")
; 931  : 	return pNode;

  0005a	5e		 pop	 esi

; 932  : }

  0005b	5d		 pop	 ebp
  0005c	c2 08 00	 ret	 8
$LN17@NewNode:

; 916  : 		}
; 917  : 	}
; 918  : 	ENSURE(m_pNodeFree != NULL);  // we must have something

  0005f	e8 00 00 00 00	 call	 ?AfxThrowInvalidArgException@@YGXXZ ; AfxThrowInvalidArgException
$LN15@NewNode:
  00064	cc		 int	 3
?NewNode@?$CList@PAUstCDlgConfirmList_Item@@PAU1@@@IAEPAUCNode@1@PAU21@0@Z ENDP ; CList<stCDlgConfirmList_Item *,stCDlgConfirmList_Item *>::NewNode
_TEXT	ENDS
; Function compile flags: /Ogtp
; File C:\Program Files (x86)\Microsoft Visual Studio\2019\Community\VC\Tools\MSVC\14.29.30133\atlmfc\include\afxtempl.h
;	COMDAT ?RemoveAll@?$CList@PAUstCDlgConfirmList_Item@@PAU1@@@QAEXXZ
_TEXT	SEGMENT
?RemoveAll@?$CList@PAUstCDlgConfirmList_Item@@PAU1@@@QAEXXZ PROC ; CList<stCDlgConfirmList_Item *,stCDlgConfirmList_Item *>::RemoveAll, COMDAT
; _this$ = ecx

; 862  : {

  00000	56		 push	 esi
  00001	8b f1		 mov	 esi, ecx

; 863  : 	ASSERT_VALID(this);
; 864  : 
; 865  : 	// destroy elements
; 866  : 	CNode* pNode;
; 867  : 	for (pNode = m_pNodeHead; pNode != NULL; pNode = pNode->pNext)
; 868  : 		pNode->data.~TYPE();
; 869  : 
; 870  : 	m_nCount = 0;
; 871  : 	m_pNodeHead = m_pNodeTail = m_pNodeFree = NULL;
; 872  : 	m_pBlocks->FreeDataChain();

  00003	8b 4e 14	 mov	 ecx, DWORD PTR [esi+20]
  00006	c7 46 0c 00 00
	00 00		 mov	 DWORD PTR [esi+12], 0
  0000d	c7 46 10 00 00
	00 00		 mov	 DWORD PTR [esi+16], 0
  00014	c7 46 08 00 00
	00 00		 mov	 DWORD PTR [esi+8], 0
  0001b	c7 46 04 00 00
	00 00		 mov	 DWORD PTR [esi+4], 0
  00022	e8 00 00 00 00	 call	 ?FreeDataChain@CPlex@@QAEXXZ ; CPlex::FreeDataChain

; 873  : 	m_pBlocks = NULL;

  00027	c7 46 14 00 00
	00 00		 mov	 DWORD PTR [esi+20], 0
  0002e	5e		 pop	 esi

; 874  : }

  0002f	c3		 ret	 0
?RemoveAll@?$CList@PAUstCDlgConfirmList_Item@@PAU1@@@QAEXXZ ENDP ; CList<stCDlgConfirmList_Item *,stCDlgConfirmList_Item *>::RemoveAll
_TEXT	ENDS
; Function compile flags: /Ogtp
; File C:\Program Files (x86)\Microsoft Visual Studio\2019\Community\VC\Tools\MSVC\14.29.30133\atlmfc\include\afxtempl.h
;	COMDAT ?AddTail@?$CList@PAUstCDlgConfirmList_Item@@PAU1@@@QAEPAU__POSITION@@PAUstCDlgConfirmList_Item@@@Z
_TEXT	SEGMENT
_newElement$ = 8					; size = 4
?AddTail@?$CList@PAUstCDlgConfirmList_Item@@PAU1@@@QAEPAU__POSITION@@PAUstCDlgConfirmList_Item@@@Z PROC ; CList<stCDlgConfirmList_Item *,stCDlgConfirmList_Item *>::AddTail, COMDAT
; _this$ = ecx

; 965  : {

  00000	55		 push	 ebp
  00001	8b ec		 mov	 ebp, esp
  00003	56		 push	 esi
  00004	8b f1		 mov	 esi, ecx
  00006	57		 push	 edi

; 902  : 	if (m_pNodeFree == NULL)

  00007	83 7e 10 00	 cmp	 DWORD PTR [esi+16], 0

; 966  : 	ASSERT_VALID(this);
; 967  : 
; 968  : 	CNode* pNewNode = NewNode(m_pNodeTail, NULL);

  0000b	8b 7e 08	 mov	 edi, DWORD PTR [esi+8]

; 902  : 	if (m_pNodeFree == NULL)

  0000e	75 32		 jne	 SHORT $LN11@AddTail

; 903  : 	{
; 904  : 		// add another block
; 905  : 		CPlex* pNewBlock = CPlex::Create(m_pBlocks, m_nBlockSize,

  00010	6a 0c		 push	 12			; 0000000cH
  00012	ff 76 18	 push	 DWORD PTR [esi+24]
  00015	8d 46 14	 lea	 eax, DWORD PTR [esi+20]
  00018	50		 push	 eax
  00019	e8 00 00 00 00	 call	 ?Create@CPlex@@SGPAU1@AAPAU1@II@Z ; CPlex::Create

; 906  : 				 sizeof(CNode));
; 907  : 
; 908  : 		// chain them into free list
; 909  : 		CNode* pNode = (CNode*) pNewBlock->data();
; 910  : 		// free in reverse order to make it easier to debug
; 911  : 		pNode += m_nBlockSize - 1;

  0001e	8b 56 18	 mov	 edx, DWORD PTR [esi+24]
  00021	83 c0 08	 add	 eax, 8
  00024	8d 4a ff	 lea	 ecx, DWORD PTR [edx-1]

; 912  : 		for (INT_PTR i = m_nBlockSize-1; i >= 0; i--, pNode--)

  00027	83 c2 ff	 add	 edx, -1
  0002a	8d 0c 49	 lea	 ecx, DWORD PTR [ecx+ecx*2]
  0002d	8d 0c 88	 lea	 ecx, DWORD PTR [eax+ecx*4]
  00030	78 10		 js	 SHORT $LN11@AddTail
$LL8@AddTail:

; 913  : 		{
; 914  : 			pNode->pNext = m_pNodeFree;

  00032	8b 46 10	 mov	 eax, DWORD PTR [esi+16]
  00035	89 01		 mov	 DWORD PTR [ecx], eax

; 915  : 			m_pNodeFree = pNode;

  00037	89 4e 10	 mov	 DWORD PTR [esi+16], ecx
  0003a	83 e9 0c	 sub	 ecx, 12			; 0000000cH
  0003d	83 ea 01	 sub	 edx, 1
  00040	79 f0		 jns	 SHORT $LL8@AddTail
$LN11@AddTail:

; 916  : 		}
; 917  : 	}
; 918  : 	ENSURE(m_pNodeFree != NULL);  // we must have something

  00042	8b 4e 10	 mov	 ecx, DWORD PTR [esi+16]
  00045	85 c9		 test	 ecx, ecx
  00047	74 39		 je	 SHORT $LN22@AddTail

; 919  : 
; 920  : 	CList::CNode* pNode = m_pNodeFree;
; 921  : 	m_pNodeFree = m_pNodeFree->pNext;

  00049	8b 01		 mov	 eax, DWORD PTR [ecx]
  0004b	89 46 10	 mov	 DWORD PTR [esi+16], eax

; 969  : 	pNewNode->data = newElement;

  0004e	8b 45 08	 mov	 eax, DWORD PTR _newElement$[ebp]

; 922  : 	pNode->pPrev = pPrev;

  00051	89 79 04	 mov	 DWORD PTR [ecx+4], edi

; 923  : 	pNode->pNext = pNext;

  00054	c7 01 00 00 00
	00		 mov	 DWORD PTR [ecx], 0

; 924  : 	m_nCount++;

  0005a	ff 46 0c	 inc	 DWORD PTR [esi+12]

; 969  : 	pNewNode->data = newElement;

  0005d	89 41 08	 mov	 DWORD PTR [ecx+8], eax

; 970  : 	if (m_pNodeTail != NULL)

  00060	8b 46 08	 mov	 eax, DWORD PTR [esi+8]
  00063	85 c0		 test	 eax, eax
  00065	74 0d		 je	 SHORT $LN2@AddTail

; 971  : 		m_pNodeTail->pNext = pNewNode;

  00067	89 08		 mov	 DWORD PTR [eax], ecx

; 972  : 	else
; 973  : 		m_pNodeHead = pNewNode;
; 974  : 	m_pNodeTail = pNewNode;
; 975  : 	return (POSITION) pNewNode;

  00069	8b c1		 mov	 eax, ecx
  0006b	5f		 pop	 edi
  0006c	89 4e 08	 mov	 DWORD PTR [esi+8], ecx
  0006f	5e		 pop	 esi

; 976  : }

  00070	5d		 pop	 ebp
  00071	c2 04 00	 ret	 4
$LN2@AddTail:

; 972  : 	else
; 973  : 		m_pNodeHead = pNewNode;
; 974  : 	m_pNodeTail = pNewNode;
; 975  : 	return (POSITION) pNewNode;

  00074	5f		 pop	 edi
  00075	89 4e 04	 mov	 DWORD PTR [esi+4], ecx
  00078	8b c1		 mov	 eax, ecx
  0007a	89 4e 08	 mov	 DWORD PTR [esi+8], ecx
  0007d	5e		 pop	 esi

; 976  : }

  0007e	5d		 pop	 ebp
  0007f	c2 04 00	 ret	 4
$LN22@AddTail:

; 918  : 	ENSURE(m_pNodeFree != NULL);  // we must have something

  00082	e8 00 00 00 00	 call	 ?AfxThrowInvalidArgException@@YGXXZ ; AfxThrowInvalidArgException
$LN20@AddTail:
  00087	cc		 int	 3
?AddTail@?$CList@PAUstCDlgConfirmList_Item@@PAU1@@@QAEPAU__POSITION@@PAUstCDlgConfirmList_Item@@@Z ENDP ; CList<stCDlgConfirmList_Item *,stCDlgConfirmList_Item *>::AddTail
_TEXT	ENDS
; Function compile flags: /Ogtp
; File C:\Program Files (x86)\Microsoft Visual Studio\2019\Community\VC\Tools\MSVC\14.29.30133\atlmfc\include\afxtempl.h
;	COMDAT ??0?$CList@PAUstCDlgConfirmList_Item@@PAU1@@@QAE@H@Z
_TEXT	SEGMENT
_nBlockSize$ = 8					; size = 4
??0?$CList@PAUstCDlgConfirmList_Item@@PAU1@@@QAE@H@Z PROC ; CList<stCDlgConfirmList_Item *,stCDlgConfirmList_Item *>::CList<stCDlgConfirmList_Item *,stCDlgConfirmList_Item *>, COMDAT
; _this$ = ecx

; 851  : {

  00000	55		 push	 ebp
  00001	8b ec		 mov	 ebp, esp

; 852  : 	ASSERT(nBlockSize > 0);
; 853  : 
; 854  : 	m_nCount = 0;
; 855  : 	m_pNodeHead = m_pNodeTail = m_pNodeFree = NULL;
; 856  : 	m_pBlocks = NULL;
; 857  : 	m_nBlockSize = nBlockSize;

  00003	8b 45 08	 mov	 eax, DWORD PTR _nBlockSize$[ebp]
  00006	89 41 18	 mov	 DWORD PTR [ecx+24], eax

; 858  : }

  00009	8b c1		 mov	 eax, ecx
  0000b	c7 01 00 00 00
	00		 mov	 DWORD PTR [ecx], OFFSET ??_7?$CList@PAUstCDlgConfirmList_Item@@PAU1@@@6B@
  00011	c7 41 0c 00 00
	00 00		 mov	 DWORD PTR [ecx+12], 0
  00018	c7 41 10 00 00
	00 00		 mov	 DWORD PTR [ecx+16], 0
  0001f	c7 41 08 00 00
	00 00		 mov	 DWORD PTR [ecx+8], 0
  00026	c7 41 04 00 00
	00 00		 mov	 DWORD PTR [ecx+4], 0
  0002d	c7 41 14 00 00
	00 00		 mov	 DWORD PTR [ecx+20], 0
  00034	5d		 pop	 ebp
  00035	c2 04 00	 ret	 4
??0?$CList@PAUstCDlgConfirmList_Item@@PAU1@@@QAE@H@Z ENDP ; CList<stCDlgConfirmList_Item *,stCDlgConfirmList_Item *>::CList<stCDlgConfirmList_Item *,stCDlgConfirmList_Item *>
_TEXT	ENDS
; Function compile flags: /Ogtp
; File D:\git\src\IBK\IBK_DRFN\ProjSrc\SrcChartEx\ChartAddIn\ChartPeriodSummaryAddIn\DlgConfirm.cpp
;	COMDAT ?DoDataExchange@CDlgConfirmList@@MAEXPAVCDataExchange@@@Z
_TEXT	SEGMENT
_pDX$ = 8						; size = 4
?DoDataExchange@CDlgConfirmList@@MAEXPAVCDataExchange@@@Z PROC ; CDlgConfirmList::DoDataExchange, COMDAT
; _this$ = ecx

; 117  : {

  00000	55		 push	 ebp
  00001	8b ec		 mov	 ebp, esp

; 118  : 	CDialog::DoDataExchange(pDX);
; 119  : 	//{{AFX_DATA_MAP(CDlgConfirmList)
; 120  : 	DDX_Control(pDX, IDC_LIST1, m_ctlListbox);

  00003	8d 81 a8 00 00
	00		 lea	 eax, DWORD PTR [ecx+168]
  00009	50		 push	 eax
  0000a	68 e9 07 00 00	 push	 2025			; 000007e9H
  0000f	ff 75 08	 push	 DWORD PTR _pDX$[ebp]
  00012	e8 00 00 00 00	 call	 ?DDX_Control@@YGXPAVCDataExchange@@HAAVCWnd@@@Z ; DDX_Control

; 121  : 	//}}AFX_DATA_MAP
; 122  : }

  00017	5d		 pop	 ebp
  00018	c2 04 00	 ret	 4
?DoDataExchange@CDlgConfirmList@@MAEXPAVCDataExchange@@@Z ENDP ; CDlgConfirmList::DoDataExchange
_TEXT	ENDS
; Function compile flags: /Ogtp
; File D:\git\src\IBK\IBK_DRFN\ProjSrc\SrcChartEx\ChartAddIn\ChartPeriodSummaryAddIn\DlgConfirm.cpp
; File C:\Program Files (x86)\Microsoft Visual Studio\2019\Community\VC\Tools\MSVC\14.29.30133\atlmfc\include\atltime.h
; File D:\git\src\IBK\IBK_DRFN\ProjSrc\SrcChartEx\ChartAddIn\ChartPeriodSummaryAddIn\DlgConfirm.cpp
; File C:\Program Files (x86)\Microsoft Visual Studio\2019\Community\VC\Tools\MSVC\14.29.30133\atlmfc\include\atltime.h
; File D:\git\src\IBK\IBK_DRFN\ProjSrc\SrcChartEx\ChartAddIn\ChartPeriodSummaryAddIn\DlgConfirm.cpp
; File C:\Program Files (x86)\Microsoft Visual Studio\2019\Community\VC\Tools\MSVC\14.29.30133\atlmfc\include\atltime.h
; File D:\git\src\IBK\IBK_DRFN\ProjSrc\SrcChartEx\ChartAddIn\ChartPeriodSummaryAddIn\DlgConfirm.cpp
; File C:\Program Files (x86)\Microsoft Visual Studio\2019\Community\VC\Tools\MSVC\14.29.30133\atlmfc\include\afxwin2.inl
; File D:\git\src\IBK\IBK_DRFN\ProjSrc\SrcChartEx\ChartAddIn\ChartPeriodSummaryAddIn\DlgConfirm.cpp
; File C:\Program Files (x86)\Microsoft Visual Studio\2019\Community\VC\Tools\MSVC\14.29.30133\atlmfc\include\afxwin2.inl
; File D:\git\src\IBK\IBK_DRFN\ProjSrc\SrcChartEx\ChartAddIn\ChartPeriodSummaryAddIn\DlgConfirm.cpp
; File C:\Program Files (x86)\Microsoft Visual Studio\2019\Community\VC\Tools\MSVC\14.29.30133\atlmfc\include\afxwin2.inl
; File D:\git\src\IBK\IBK_DRFN\ProjSrc\SrcChartEx\ChartAddIn\ChartPeriodSummaryAddIn\DlgConfirm.cpp
; File C:\Program Files (x86)\Microsoft Visual Studio\2019\Community\VC\Tools\MSVC\14.29.30133\atlmfc\include\afxwin2.inl
; File D:\git\src\IBK\IBK_DRFN\ProjSrc\SrcChartEx\ChartAddIn\ChartPeriodSummaryAddIn\DlgConfirm.cpp
;	COMDAT ?ExSetData@CDlgConfirmList@@QAEXV?$CStringT@DV?$StrTraitMFC_DLL@DV?$ChTraitsCRT@D@ATL@@@@@ATL@@HH@Z
_TEXT	SEGMENT
_this$GSCopy$1$ = -84					; size = 4
_nHour$1$ = -80						; size = 4
_t$ = -76						; size = 8
_nSellBuy$GSCopy$1$ = -68				; size = 4
_nUpDown$GSCopy$1$ = -64				; size = 4
_nIndex$1$ = -64					; size = 4
_szData$ = -60						; size = 4
_szTime$ = -56						; size = 4
_ptmTemp$2 = -52					; size = 36
_ptmTemp$3 = -52					; size = 36
_ptmTemp$4 = -52					; size = 36
_ptmTemp$5 = -52					; size = 36
__$ArrayPad$ = -16					; size = 4
__$EHRec$ = -12						; size = 12
_strName$ = 8						; size = 4
_nUpDown$ = 12						; size = 4
_nSellBuy$ = 16						; size = 4
?ExSetData@CDlgConfirmList@@QAEXV?$CStringT@DV?$StrTraitMFC_DLL@DV?$ChTraitsCRT@D@ATL@@@@@ATL@@HH@Z PROC ; CDlgConfirmList::ExSetData, COMDAT
; _this$ = ecx

; 187  : {

  00000	55		 push	 ebp
  00001	8b ec		 mov	 ebp, esp
  00003	6a ff		 push	 -1
  00005	68 00 00 00 00	 push	 __ehhandler$?ExSetData@CDlgConfirmList@@QAEXV?$CStringT@DV?$StrTraitMFC_DLL@DV?$ChTraitsCRT@D@ATL@@@@@ATL@@HH@Z
  0000a	64 a1 00 00 00
	00		 mov	 eax, DWORD PTR fs:0
  00010	50		 push	 eax
  00011	83 ec 48	 sub	 esp, 72			; 00000048H
  00014	a1 00 00 00 00	 mov	 eax, DWORD PTR ___security_cookie
  00019	33 c5		 xor	 eax, ebp
  0001b	89 45 f0	 mov	 DWORD PTR __$ArrayPad$[ebp], eax
  0001e	53		 push	 ebx
  0001f	56		 push	 esi
  00020	57		 push	 edi
  00021	50		 push	 eax
  00022	8d 45 f4	 lea	 eax, DWORD PTR __$EHRec$[ebp]
  00025	64 a3 00 00 00
	00		 mov	 DWORD PTR fs:0, eax
  0002b	89 4d ac	 mov	 DWORD PTR _this$GSCopy$1$[ebp], ecx
  0002e	8b 45 0c	 mov	 eax, DWORD PTR _nUpDown$[ebp]
  00031	89 45 c0	 mov	 DWORD PTR _nUpDown$GSCopy$1$[ebp], eax
  00034	8b 45 10	 mov	 eax, DWORD PTR _nSellBuy$[ebp]
  00037	89 45 bc	 mov	 DWORD PTR _nSellBuy$GSCopy$1$[ebp], eax
; File C:\Program Files (x86)\Microsoft Visual Studio\2019\Community\VC\Tools\MSVC\14.29.30133\atlmfc\include\atltime.h

; 374  : 	return( CTime( ::_time64( NULL ) ) );

  0003a	6a 00		 push	 0
; File D:\git\src\IBK\IBK_DRFN\ProjSrc\SrcChartEx\ChartAddIn\ChartPeriodSummaryAddIn\DlgConfirm.cpp

; 187  : {

  0003c	c7 45 fc 00 00
	00 00		 mov	 DWORD PTR __$EHRec$[ebp+8], 0
; File C:\Program Files (x86)\Microsoft Visual Studio\2019\Community\VC\Tools\MSVC\14.29.30133\atlmfc\include\atltime.h

; 374  : 	return( CTime( ::_time64( NULL ) ) );

  00043	ff 15 00 00 00
	00		 call	 DWORD PTR __imp___time64

; 614  : 		errno_t err = _localtime64_s(&ptmTemp, &m_time);

  00049	8b 3d 00 00 00
	00		 mov	 edi, DWORD PTR __imp___localtime64_s

; 417  : 	m_time( time )

  0004f	89 45 b4	 mov	 DWORD PTR _t$[ebp], eax

; 614  : 		errno_t err = _localtime64_s(&ptmTemp, &m_time);

  00052	8d 45 b4	 lea	 eax, DWORD PTR _t$[ebp]
  00055	50		 push	 eax
  00056	8d 45 cc	 lea	 eax, DWORD PTR _ptmTemp$5[ebp]

; 417  : 	m_time( time )

  00059	89 55 b8	 mov	 DWORD PTR _t$[ebp+4], edx

; 614  : 		errno_t err = _localtime64_s(&ptmTemp, &m_time);

  0005c	50		 push	 eax
  0005d	ff d7		 call	 edi
  0005f	8d 45 b4	 lea	 eax, DWORD PTR _t$[ebp]
  00062	50		 push	 eax
  00063	8d 45 cc	 lea	 eax, DWORD PTR _ptmTemp$4[ebp]
  00066	50		 push	 eax
  00067	ff d7		 call	 edi

; 616  : 		if (err != 0)

  00069	83 cb ff	 or	 ebx, -1
  0006c	85 c0		 test	 eax, eax

; 614  : 		errno_t err = _localtime64_s(&ptmTemp, &m_time);

  0006e	8d 45 b4	 lea	 eax, DWORD PTR _t$[ebp]

; 616  : 		if (err != 0)

  00071	8b cb		 mov	 ecx, ebx
  00073	0f 44 4d d4	 cmove	 ecx, DWORD PTR _ptmTemp$4[ebp+8]

; 614  : 		errno_t err = _localtime64_s(&ptmTemp, &m_time);

  00077	50		 push	 eax
  00078	8d 45 cc	 lea	 eax, DWORD PTR _ptmTemp$3[ebp]

; 616  : 		if (err != 0)

  0007b	89 4d b0	 mov	 DWORD PTR _nHour$1$[ebp], ecx

; 614  : 		errno_t err = _localtime64_s(&ptmTemp, &m_time);

  0007e	50		 push	 eax
  0007f	ff d7		 call	 edi

; 616  : 		if (err != 0)

  00081	85 c0		 test	 eax, eax
  00083	8b f3		 mov	 esi, ebx

; 614  : 		errno_t err = _localtime64_s(&ptmTemp, &m_time);

  00085	8d 45 b4	 lea	 eax, DWORD PTR _t$[ebp]

; 616  : 		if (err != 0)

  00088	0f 44 75 d0	 cmove	 esi, DWORD PTR _ptmTemp$3[ebp+4]

; 614  : 		errno_t err = _localtime64_s(&ptmTemp, &m_time);

  0008c	50		 push	 eax
  0008d	8d 45 cc	 lea	 eax, DWORD PTR _ptmTemp$2[ebp]
  00090	50		 push	 eax
  00091	ff d7		 call	 edi
  00093	83 c4 24	 add	 esp, 36			; 00000024H
; File D:\git\src\IBK\IBK_DRFN\ProjSrc\SrcChartEx\ChartAddIn\ChartPeriodSummaryAddIn\DlgConfirm.cpp

; 194  : 	CString szTime;

  00096	8d 4d c8	 lea	 ecx, DWORD PTR _szTime$[ebp]
; File C:\Program Files (x86)\Microsoft Visual Studio\2019\Community\VC\Tools\MSVC\14.29.30133\atlmfc\include\atltime.h

; 616  : 		if (err != 0)

  00099	85 c0		 test	 eax, eax
  0009b	0f 44 5d cc	 cmove	 ebx, DWORD PTR _ptmTemp$2[ebp]
; File D:\git\src\IBK\IBK_DRFN\ProjSrc\SrcChartEx\ChartAddIn\ChartPeriodSummaryAddIn\DlgConfirm.cpp

; 194  : 	CString szTime;

  0009f	ff 15 00 00 00
	00		 call	 DWORD PTR __imp_??0?$CStringT@DV?$StrTraitMFC_DLL@DV?$ChTraitsCRT@D@ATL@@@@@ATL@@QAE@XZ

; 195  : 	szTime.Format("%02i:%02i:%02i",

  000a5	53		 push	 ebx
  000a6	56		 push	 esi
  000a7	ff 75 b0	 push	 DWORD PTR _nHour$1$[ebp]
  000aa	8b 35 00 00 00
	00		 mov	 esi, DWORD PTR __imp_?Format@?$CStringT@DV?$StrTraitMFC_DLL@DV?$ChTraitsCRT@D@ATL@@@@@ATL@@QAAXPBDZZ
  000b0	8d 45 c8	 lea	 eax, DWORD PTR _szTime$[ebp]
  000b3	68 00 00 00 00	 push	 OFFSET ??_C@_0P@LBBLONKC@?$CF02i?3?$CF02i?3?$CF02i@
  000b8	50		 push	 eax
  000b9	c6 45 fc 01	 mov	 BYTE PTR __$EHRec$[ebp+8], 1
  000bd	ff d6		 call	 esi
  000bf	83 c4 14	 add	 esp, 20			; 00000014H

; 196  : 		nHour,
; 197  : 		nMinute,
; 198  : 		nSecond);
; 199  : 
; 200  : 	CString szData;

  000c2	8d 4d c4	 lea	 ecx, DWORD PTR _szData$[ebp]
  000c5	ff 15 00 00 00
	00		 call	 DWORD PTR __imp_??0?$CStringT@DV?$StrTraitMFC_DLL@DV?$ChTraitsCRT@D@ATL@@@@@ATL@@QAE@XZ

; 201  : 	szData.Format("(%s)%s  %s/%s", szTime, strName, m_szUpDown[nUpDown-1], m_szSellBuy[nSellBuy-1]);

  000cb	8b 5d ac	 mov	 ebx, DWORD PTR _this$GSCopy$1$[ebp]
  000ce	8b 45 bc	 mov	 eax, DWORD PTR _nSellBuy$GSCopy$1$[ebp]
  000d1	8b 7d c0	 mov	 edi, DWORD PTR _nUpDown$GSCopy$1$[ebp]
  000d4	c6 45 fc 02	 mov	 BYTE PTR __$EHRec$[ebp+8], 2
  000d8	ff b4 83 38 01
	00 00		 push	 DWORD PTR [ebx+eax*4+312]
  000df	8d 45 c4	 lea	 eax, DWORD PTR _szData$[ebp]
  000e2	ff b4 bb 30 01
	00 00		 push	 DWORD PTR [ebx+edi*4+304]
  000e9	ff 75 08	 push	 DWORD PTR _strName$[ebp]
  000ec	ff 75 c8	 push	 DWORD PTR _szTime$[ebp]
  000ef	68 00 00 00 00	 push	 OFFSET ??_C@_0O@KNGKIJOE@?$CI?$CFs?$CJ?$CFs?5?5?$CFs?1?$CFs@
  000f4	50		 push	 eax
  000f5	ff d6		 call	 esi

; 202  : 
; 203  : 	stCDlgConfirmList_Item* pItemData = new stCDlgConfirmList_Item;

  000f7	6a 18		 push	 24			; 00000018H
  000f9	e8 00 00 00 00	 call	 ??2@YAPAXI@Z		; operator new
  000fe	8b f0		 mov	 esi, eax
  00100	83 c4 1c	 add	 esp, 28			; 0000001cH
  00103	85 f6		 test	 esi, esi
  00105	74 0b		 je	 SHORT $LN4@ExSetData
  00107	8d 4e 0c	 lea	 ecx, DWORD PTR [esi+12]
  0010a	ff 15 00 00 00
	00		 call	 DWORD PTR __imp_??0?$CStringT@DV?$StrTraitMFC_DLL@DV?$ChTraitsCRT@D@ATL@@@@@ATL@@QAE@XZ
  00110	eb 02		 jmp	 SHORT $LN5@ExSetData
$LN4@ExSetData:
  00112	33 f6		 xor	 esi, esi
$LN5@ExSetData:

; 204  : 	memcpy(pItemData->aTime, szTime, szTime.GetLength());

  00114	8b 45 c8	 mov	 eax, DWORD PTR _szTime$[ebp]
  00117	ff 70 f4	 push	 DWORD PTR [eax-12]
  0011a	50		 push	 eax
  0011b	56		 push	 esi
  0011c	e8 00 00 00 00	 call	 _memcpy
  00121	83 c4 0c	 add	 esp, 12			; 0000000cH

; 205  : 	pItemData->aTime[8]=0;

  00124	c6 46 08 00	 mov	 BYTE PTR [esi+8], 0

; 206  : 	pItemData->strName = strName;

  00128	8d 45 08	 lea	 eax, DWORD PTR _strName$[ebp]
  0012b	8d 4e 0c	 lea	 ecx, DWORD PTR [esi+12]
  0012e	50		 push	 eax
  0012f	ff 15 00 00 00
	00		 call	 DWORD PTR __imp_??4?$CStringT@DV?$StrTraitMFC_DLL@DV?$ChTraitsCRT@D@ATL@@@@@ATL@@QAEAAV01@ABV01@@Z

; 208  : 	pItemData->nSellBuy = nSellBuy;

  00135	8b 45 bc	 mov	 eax, DWORD PTR _nSellBuy$GSCopy$1$[ebp]
  00138	89 7e 10	 mov	 DWORD PTR [esi+16], edi
; File C:\Program Files (x86)\Microsoft Visual Studio\2019\Community\VC\Tools\MSVC\14.29.30133\atlmfc\include\afxwin2.inl

; 725  : 	{ ASSERT(::IsWindow(m_hWnd)); return (int)::SendMessage(m_hWnd, LB_ADDSTRING, 0, (LPARAM)lpszItem); }

  0013b	8b 3d 00 00 00
	00		 mov	 edi, DWORD PTR __imp__SendMessageA@16
; File D:\git\src\IBK\IBK_DRFN\ProjSrc\SrcChartEx\ChartAddIn\ChartPeriodSummaryAddIn\DlgConfirm.cpp

; 208  : 	pItemData->nSellBuy = nSellBuy;

  00141	89 46 14	 mov	 DWORD PTR [esi+20], eax
; File C:\Program Files (x86)\Microsoft Visual Studio\2019\Community\VC\Tools\MSVC\14.29.30133\atlmfc\include\afxwin2.inl

; 725  : 	{ ASSERT(::IsWindow(m_hWnd)); return (int)::SendMessage(m_hWnd, LB_ADDSTRING, 0, (LPARAM)lpszItem); }

  00144	ff 75 c4	 push	 DWORD PTR _szData$[ebp]
  00147	6a 00		 push	 0
  00149	68 80 01 00 00	 push	 384			; 00000180H
  0014e	ff b3 c8 00 00
	00		 push	 DWORD PTR [ebx+200]
  00154	ff d7		 call	 edi

; 685  : 	{ ASSERT(::IsWindow(m_hWnd)); return (int)::SendMessage(m_hWnd, LB_SETITEMDATA, nIndex, (LPARAM)dwItemData); }

  00156	56		 push	 esi
  00157	50		 push	 eax
  00158	68 9a 01 00 00	 push	 410			; 0000019aH
  0015d	ff b3 c8 00 00
	00		 push	 DWORD PTR [ebx+200]
; File D:\git\src\IBK\IBK_DRFN\ProjSrc\SrcChartEx\ChartAddIn\ChartPeriodSummaryAddIn\DlgConfirm.cpp

; 210  : 	int nIndex = m_ctlListbox.AddString(szData);

  00163	89 45 c0	 mov	 DWORD PTR _nIndex$1$[ebp], eax
; File C:\Program Files (x86)\Microsoft Visual Studio\2019\Community\VC\Tools\MSVC\14.29.30133\atlmfc\include\afxwin2.inl

; 685  : 	{ ASSERT(::IsWindow(m_hWnd)); return (int)::SendMessage(m_hWnd, LB_SETITEMDATA, nIndex, (LPARAM)dwItemData); }

  00166	ff d7		 call	 edi
; File D:\git\src\IBK\IBK_DRFN\ProjSrc\SrcChartEx\ChartAddIn\ChartPeriodSummaryAddIn\DlgConfirm.cpp

; 213  : 	m_ItemList.AddTail(pItemData);

  00168	56		 push	 esi
  00169	8d 8b 44 01 00
	00		 lea	 ecx, DWORD PTR [ebx+324]
  0016f	e8 00 00 00 00	 call	 ?AddTail@?$CList@PAUstCDlgConfirmList_Item@@PAU1@@@QAEPAU__POSITION@@PAUstCDlgConfirmList_Item@@@Z ; CList<stCDlgConfirmList_Item *,stCDlgConfirmList_Item *>::AddTail

; 214  : 	if(_DoShowIndex(nIndex)) m_ctlListbox.SetCurSel(nIndex);

  00174	8b 75 c0	 mov	 esi, DWORD PTR _nIndex$1$[ebp]
  00177	8b cb		 mov	 ecx, ebx
  00179	56		 push	 esi
  0017a	e8 00 00 00 00	 call	 ?_DoShowIndex@CDlgConfirmList@@AAEHH@Z ; CDlgConfirmList::_DoShowIndex
  0017f	85 c0		 test	 eax, eax
  00181	74 10		 je	 SHORT $LN2@ExSetData
; File C:\Program Files (x86)\Microsoft Visual Studio\2019\Community\VC\Tools\MSVC\14.29.30133\atlmfc\include\afxwin2.inl

; 668  : 	{ ASSERT(::IsWindow(m_hWnd)); return (int)::SendMessage(m_hWnd, LB_SETCURSEL, nSelect, 0); }

  00183	6a 00		 push	 0
  00185	56		 push	 esi
  00186	68 86 01 00 00	 push	 390			; 00000186H
  0018b	ff b3 c8 00 00
	00		 push	 DWORD PTR [ebx+200]
  00191	ff d7		 call	 edi
$LN2@ExSetData:
; File D:\git\src\IBK\IBK_DRFN\ProjSrc\SrcChartEx\ChartAddIn\ChartPeriodSummaryAddIn\DlgConfirm.cpp

; 215  : }

  00193	8d 4d c4	 lea	 ecx, DWORD PTR _szData$[ebp]
  00196	ff 15 00 00 00
	00		 call	 DWORD PTR __imp_??1?$CStringT@DV?$StrTraitMFC_DLL@DV?$ChTraitsCRT@D@ATL@@@@@ATL@@QAE@XZ
  0019c	8d 4d c8	 lea	 ecx, DWORD PTR _szTime$[ebp]
  0019f	ff 15 00 00 00
	00		 call	 DWORD PTR __imp_??1?$CStringT@DV?$StrTraitMFC_DLL@DV?$ChTraitsCRT@D@ATL@@@@@ATL@@QAE@XZ
  001a5	8d 4d 08	 lea	 ecx, DWORD PTR _strName$[ebp]
  001a8	ff 15 00 00 00
	00		 call	 DWORD PTR __imp_??1?$CStringT@DV?$StrTraitMFC_DLL@DV?$ChTraitsCRT@D@ATL@@@@@ATL@@QAE@XZ
  001ae	8b 4d f4	 mov	 ecx, DWORD PTR __$EHRec$[ebp]
  001b1	64 89 0d 00 00
	00 00		 mov	 DWORD PTR fs:0, ecx
  001b8	59		 pop	 ecx
  001b9	5f		 pop	 edi
  001ba	5e		 pop	 esi
  001bb	5b		 pop	 ebx
  001bc	8b 4d f0	 mov	 ecx, DWORD PTR __$ArrayPad$[ebp]
  001bf	33 cd		 xor	 ecx, ebp
  001c1	e8 00 00 00 00	 call	 @__security_check_cookie@4
  001c6	8b e5		 mov	 esp, ebp
  001c8	5d		 pop	 ebp
  001c9	c2 0c 00	 ret	 12			; 0000000cH
_TEXT	ENDS
;	COMDAT text$x
text$x	SEGMENT
__unwindfunclet$?ExSetData@CDlgConfirmList@@QAEXV?$CStringT@DV?$StrTraitMFC_DLL@DV?$ChTraitsCRT@D@ATL@@@@@ATL@@HH@Z$0:
  00000	8d 4d 08	 lea	 ecx, DWORD PTR _strName$[ebp]
  00003	ff 25 00 00 00
	00		 jmp	 DWORD PTR __imp_??1?$CStringT@DV?$StrTraitMFC_DLL@DV?$ChTraitsCRT@D@ATL@@@@@ATL@@QAE@XZ
__unwindfunclet$?ExSetData@CDlgConfirmList@@QAEXV?$CStringT@DV?$StrTraitMFC_DLL@DV?$ChTraitsCRT@D@ATL@@@@@ATL@@HH@Z$1:
  00009	8d 4d c8	 lea	 ecx, DWORD PTR _szTime$[ebp]
  0000c	ff 25 00 00 00
	00		 jmp	 DWORD PTR __imp_??1?$CStringT@DV?$StrTraitMFC_DLL@DV?$ChTraitsCRT@D@ATL@@@@@ATL@@QAE@XZ
__unwindfunclet$?ExSetData@CDlgConfirmList@@QAEXV?$CStringT@DV?$StrTraitMFC_DLL@DV?$ChTraitsCRT@D@ATL@@@@@ATL@@HH@Z$2:
  00012	8d 4d c4	 lea	 ecx, DWORD PTR _szData$[ebp]
  00015	ff 25 00 00 00
	00		 jmp	 DWORD PTR __imp_??1?$CStringT@DV?$StrTraitMFC_DLL@DV?$ChTraitsCRT@D@ATL@@@@@ATL@@QAE@XZ
  0001b	cc		 int	 3
  0001c	cc		 int	 3
  0001d	cc		 int	 3
  0001e	cc		 int	 3
  0001f	cc		 int	 3
__ehhandler$?ExSetData@CDlgConfirmList@@QAEXV?$CStringT@DV?$StrTraitMFC_DLL@DV?$ChTraitsCRT@D@ATL@@@@@ATL@@HH@Z:
  00020	90		 npad	 1
  00021	90		 npad	 1
  00022	8b 54 24 08	 mov	 edx, DWORD PTR [esp+8]
  00026	8d 42 0c	 lea	 eax, DWORD PTR [edx+12]
  00029	8b 4a a8	 mov	 ecx, DWORD PTR [edx-88]
  0002c	33 c8		 xor	 ecx, eax
  0002e	e8 00 00 00 00	 call	 @__security_check_cookie@4
  00033	8b 4a fc	 mov	 ecx, DWORD PTR [edx-4]
  00036	33 c8		 xor	 ecx, eax
  00038	e8 00 00 00 00	 call	 @__security_check_cookie@4
  0003d	b8 00 00 00 00	 mov	 eax, OFFSET __ehfuncinfo$?ExSetData@CDlgConfirmList@@QAEXV?$CStringT@DV?$StrTraitMFC_DLL@DV?$ChTraitsCRT@D@ATL@@@@@ATL@@HH@Z
  00042	e9 00 00 00 00	 jmp	 ___CxxFrameHandler3
text$x	ENDS
?ExSetData@CDlgConfirmList@@QAEXV?$CStringT@DV?$StrTraitMFC_DLL@DV?$ChTraitsCRT@D@ATL@@@@@ATL@@HH@Z ENDP ; CDlgConfirmList::ExSetData
; Function compile flags: /Ogtp
; File D:\git\src\IBK\IBK_DRFN\ProjSrc\SrcChartEx\ChartAddIn\ChartPeriodSummaryAddIn\DlgConfirm.cpp
;	COMDAT ?SetData@CDlgConfirmList@@QAEXV?$CStringT@DV?$StrTraitMFC_DLL@DV?$ChTraitsCRT@D@ATL@@@@@ATL@@HH@Z
_TEXT	SEGMENT
_strDebug$ = -16					; size = 4
__$EHRec$ = -12						; size = 12
_strName$ = 8						; size = 4
_nUpDown$ = 12						; size = 4
_nSellBuy$ = 16						; size = 4
?SetData@CDlgConfirmList@@QAEXV?$CStringT@DV?$StrTraitMFC_DLL@DV?$ChTraitsCRT@D@ATL@@@@@ATL@@HH@Z PROC ; CDlgConfirmList::SetData, COMDAT
; _this$ = ecx

; 176  : {

  00000	55		 push	 ebp
  00001	8b ec		 mov	 ebp, esp
  00003	6a ff		 push	 -1
  00005	68 00 00 00 00	 push	 __ehhandler$?SetData@CDlgConfirmList@@QAEXV?$CStringT@DV?$StrTraitMFC_DLL@DV?$ChTraitsCRT@D@ATL@@@@@ATL@@HH@Z
  0000a	64 a1 00 00 00
	00		 mov	 eax, DWORD PTR fs:0
  00010	50		 push	 eax
  00011	51		 push	 ecx
  00012	56		 push	 esi
  00013	57		 push	 edi
  00014	a1 00 00 00 00	 mov	 eax, DWORD PTR ___security_cookie
  00019	33 c5		 xor	 eax, ebp
  0001b	50		 push	 eax
  0001c	8d 45 f4	 lea	 eax, DWORD PTR __$EHRec$[ebp]
  0001f	64 a3 00 00 00
	00		 mov	 DWORD PTR fs:0, eax
  00025	8b f1		 mov	 esi, ecx

; 177  : 	m_strName = strName;

  00027	8d 45 08	 lea	 eax, DWORD PTR _strName$[ebp]
  0002a	c7 45 fc 00 00
	00 00		 mov	 DWORD PTR __$EHRec$[ebp+8], 0
  00031	50		 push	 eax
  00032	8d 8e 28 01 00
	00		 lea	 ecx, DWORD PTR [esi+296]
  00038	ff 15 00 00 00
	00		 call	 DWORD PTR __imp_??4?$CStringT@DV?$StrTraitMFC_DLL@DV?$ChTraitsCRT@D@ATL@@@@@ATL@@QAEAAV01@ABV01@@Z

; 178  : 	m_nUpDown = nUpDown;

  0003e	8b 45 0c	 mov	 eax, DWORD PTR _nUpDown$[ebp]

; 179  : 	m_nSellBuy = nSellBuy;
; 180  : 	
; 181  : 	CString strDebug;

  00041	8d 4d f0	 lea	 ecx, DWORD PTR _strDebug$[ebp]
  00044	89 86 2c 01 00
	00		 mov	 DWORD PTR [esi+300], eax
  0004a	8b 45 10	 mov	 eax, DWORD PTR _nSellBuy$[ebp]
  0004d	89 86 30 01 00
	00		 mov	 DWORD PTR [esi+304], eax
  00053	ff 15 00 00 00
	00		 call	 DWORD PTR __imp_??0?$CStringT@DV?$StrTraitMFC_DLL@DV?$ChTraitsCRT@D@ATL@@@@@ATL@@QAE@XZ

; 182  : 	strDebug.Format("#######SetData::%s###\r\n", m_strName);

  00059	ff b6 28 01 00
	00		 push	 DWORD PTR [esi+296]
  0005f	8d 45 f0	 lea	 eax, DWORD PTR _strDebug$[ebp]
  00062	c6 45 fc 01	 mov	 BYTE PTR __$EHRec$[ebp+8], 1
  00066	68 00 00 00 00	 push	 OFFSET ??_C@_0BI@FAGCCAND@?$CD?$CD?$CD?$CD?$CD?$CD?$CDSetData?3?3?$CFs?$CD?$CD?$CD?$AN?6@
  0006b	50		 push	 eax
  0006c	ff 15 00 00 00
	00		 call	 DWORD PTR __imp_?Format@?$CStringT@DV?$StrTraitMFC_DLL@DV?$ChTraitsCRT@D@ATL@@@@@ATL@@QAAXPBDZZ
  00072	83 c4 0c	 add	 esp, 12			; 0000000cH

; 183  : 	OutputDebugString(strDebug);

  00075	ff 75 f0	 push	 DWORD PTR _strDebug$[ebp]
  00078	ff 15 00 00 00
	00		 call	 DWORD PTR __imp__OutputDebugStringA@4

; 184  : }

  0007e	8d 4d f0	 lea	 ecx, DWORD PTR _strDebug$[ebp]
  00081	ff 15 00 00 00
	00		 call	 DWORD PTR __imp_??1?$CStringT@DV?$StrTraitMFC_DLL@DV?$ChTraitsCRT@D@ATL@@@@@ATL@@QAE@XZ
  00087	8d 4d 08	 lea	 ecx, DWORD PTR _strName$[ebp]
  0008a	ff 15 00 00 00
	00		 call	 DWORD PTR __imp_??1?$CStringT@DV?$StrTraitMFC_DLL@DV?$ChTraitsCRT@D@ATL@@@@@ATL@@QAE@XZ
  00090	8b 4d f4	 mov	 ecx, DWORD PTR __$EHRec$[ebp]
  00093	64 89 0d 00 00
	00 00		 mov	 DWORD PTR fs:0, ecx
  0009a	59		 pop	 ecx
  0009b	5f		 pop	 edi
  0009c	5e		 pop	 esi
  0009d	8b e5		 mov	 esp, ebp
  0009f	5d		 pop	 ebp
  000a0	c2 0c 00	 ret	 12			; 0000000cH
_TEXT	ENDS
;	COMDAT text$x
text$x	SEGMENT
__unwindfunclet$?SetData@CDlgConfirmList@@QAEXV?$CStringT@DV?$StrTraitMFC_DLL@DV?$ChTraitsCRT@D@ATL@@@@@ATL@@HH@Z$0:
  00000	8d 4d 08	 lea	 ecx, DWORD PTR _strName$[ebp]
  00003	ff 25 00 00 00
	00		 jmp	 DWORD PTR __imp_??1?$CStringT@DV?$StrTraitMFC_DLL@DV?$ChTraitsCRT@D@ATL@@@@@ATL@@QAE@XZ
__unwindfunclet$?SetData@CDlgConfirmList@@QAEXV?$CStringT@DV?$StrTraitMFC_DLL@DV?$ChTraitsCRT@D@ATL@@@@@ATL@@HH@Z$1:
  00009	8d 4d f0	 lea	 ecx, DWORD PTR _strDebug$[ebp]
  0000c	ff 25 00 00 00
	00		 jmp	 DWORD PTR __imp_??1?$CStringT@DV?$StrTraitMFC_DLL@DV?$ChTraitsCRT@D@ATL@@@@@ATL@@QAE@XZ
  00012	cc		 int	 3
  00013	cc		 int	 3
  00014	cc		 int	 3
  00015	cc		 int	 3
  00016	cc		 int	 3
__ehhandler$?SetData@CDlgConfirmList@@QAEXV?$CStringT@DV?$StrTraitMFC_DLL@DV?$ChTraitsCRT@D@ATL@@@@@ATL@@HH@Z:
  00017	90		 npad	 1
  00018	90		 npad	 1
  00019	8b 54 24 08	 mov	 edx, DWORD PTR [esp+8]
  0001d	8d 42 0c	 lea	 eax, DWORD PTR [edx+12]
  00020	8b 4a f0	 mov	 ecx, DWORD PTR [edx-16]
  00023	33 c8		 xor	 ecx, eax
  00025	e8 00 00 00 00	 call	 @__security_check_cookie@4
  0002a	b8 00 00 00 00	 mov	 eax, OFFSET __ehfuncinfo$?SetData@CDlgConfirmList@@QAEXV?$CStringT@DV?$StrTraitMFC_DLL@DV?$ChTraitsCRT@D@ATL@@@@@ATL@@HH@Z
  0002f	e9 00 00 00 00	 jmp	 ___CxxFrameHandler3
text$x	ENDS
?SetData@CDlgConfirmList@@QAEXV?$CStringT@DV?$StrTraitMFC_DLL@DV?$ChTraitsCRT@D@ATL@@@@@ATL@@HH@Z ENDP ; CDlgConfirmList::SetData
; Function compile flags: /Ogtp
; File D:\git\src\IBK\IBK_DRFN\ProjSrc\SrcChartEx\ChartAddIn\ChartPeriodSummaryAddIn\DlgConfirm.cpp
; File C:\Program Files (x86)\Microsoft Visual Studio\2019\Community\VC\Tools\MSVC\14.29.30133\atlmfc\include\afxtempl.h
; File D:\git\src\IBK\IBK_DRFN\ProjSrc\SrcChartEx\ChartAddIn\ChartPeriodSummaryAddIn\DlgConfirm.cpp
; File C:\Program Files (x86)\Microsoft Visual Studio\2019\Community\VC\Tools\MSVC\14.29.30133\atlmfc\include\afxtempl.h
; File D:\git\src\IBK\IBK_DRFN\ProjSrc\SrcChartEx\ChartAddIn\ChartPeriodSummaryAddIn\DlgConfirm.cpp
; File C:\Program Files (x86)\Microsoft Visual Studio\2019\Community\VC\Tools\MSVC\14.29.30133\atlmfc\include\afxtempl.h
; File D:\git\src\IBK\IBK_DRFN\ProjSrc\SrcChartEx\ChartAddIn\ChartPeriodSummaryAddIn\DlgConfirm.cpp
; File C:\Program Files (x86)\Microsoft Visual Studio\2019\Community\VC\Tools\MSVC\14.29.30133\atlmfc\include\afxtempl.h
; File D:\git\src\IBK\IBK_DRFN\ProjSrc\SrcChartEx\ChartAddIn\ChartPeriodSummaryAddIn\DlgConfirm.cpp
;	COMDAT ??1CDlgConfirmList@@UAE@XZ
_TEXT	SEGMENT
__$EHRec$ = -12						; size = 12
??1CDlgConfirmList@@UAE@XZ PROC				; CDlgConfirmList::~CDlgConfirmList, COMDAT
; _this$ = ecx

; 110  : {

  00000	55		 push	 ebp
  00001	8b ec		 mov	 ebp, esp
  00003	6a ff		 push	 -1
  00005	68 00 00 00 00	 push	 __ehhandler$??1CDlgConfirmList@@UAE@XZ
  0000a	64 a1 00 00 00
	00		 mov	 eax, DWORD PTR fs:0
  00010	50		 push	 eax
  00011	53		 push	 ebx
  00012	56		 push	 esi
  00013	57		 push	 edi
  00014	a1 00 00 00 00	 mov	 eax, DWORD PTR ___security_cookie
  00019	33 c5		 xor	 eax, ebp
  0001b	50		 push	 eax
  0001c	8d 45 f4	 lea	 eax, DWORD PTR __$EHRec$[ebp]
  0001f	64 a3 00 00 00
	00		 mov	 DWORD PTR fs:0, eax
  00025	8b d9		 mov	 ebx, ecx

; 111  : 	POSITION pos=m_ItemList.GetHeadPosition();

  00027	8b b3 48 01 00
	00		 mov	 esi, DWORD PTR [ebx+328]
  0002d	c7 03 00 00 00
	00		 mov	 DWORD PTR [ebx], OFFSET ??_7CDlgConfirmList@@6B@

; 112  : 	while(pos) delete m_ItemList.GetNext(pos);

  00033	85 f6		 test	 esi, esi
  00035	74 21		 je	 SHORT $LN17@CDlgConfir
$LL2@CDlgConfir:
  00037	8b 7e 08	 mov	 edi, DWORD PTR [esi+8]
; File C:\Program Files (x86)\Microsoft Visual Studio\2019\Community\VC\Tools\MSVC\14.29.30133\atlmfc\include\afxtempl.h

; 813  : 		rPosition = (POSITION) pNode->pNext;

  0003a	8b 36		 mov	 esi, DWORD PTR [esi]
; File D:\git\src\IBK\IBK_DRFN\ProjSrc\SrcChartEx\ChartAddIn\ChartPeriodSummaryAddIn\DlgConfirm.cpp

; 112  : 	while(pos) delete m_ItemList.GetNext(pos);

  0003c	85 ff		 test	 edi, edi
  0003e	74 14		 je	 SHORT $LN10@CDlgConfir
  00040	8d 4f 0c	 lea	 ecx, DWORD PTR [edi+12]
  00043	ff 15 00 00 00
	00		 call	 DWORD PTR __imp_??1?$CStringT@DV?$StrTraitMFC_DLL@DV?$ChTraitsCRT@D@ATL@@@@@ATL@@QAE@XZ
  00049	6a 18		 push	 24			; 00000018H
  0004b	57		 push	 edi
  0004c	e8 00 00 00 00	 call	 ??3@YAXPAXI@Z		; operator delete
  00051	83 c4 08	 add	 esp, 8
$LN10@CDlgConfir:
  00054	85 f6		 test	 esi, esi
  00056	75 df		 jne	 SHORT $LL2@CDlgConfir
$LN17@CDlgConfir:
; File C:\Program Files (x86)\Microsoft Visual Studio\2019\Community\VC\Tools\MSVC\14.29.30133\atlmfc\include\afxtempl.h

; 872  : 	m_pBlocks->FreeDataChain();

  00058	8b 8b 58 01 00
	00		 mov	 ecx, DWORD PTR [ebx+344]
  0005e	c7 83 50 01 00
	00 00 00 00 00	 mov	 DWORD PTR [ebx+336], 0
  00068	c7 83 54 01 00
	00 00 00 00 00	 mov	 DWORD PTR [ebx+340], 0
  00072	c7 83 4c 01 00
	00 00 00 00 00	 mov	 DWORD PTR [ebx+332], 0
  0007c	c7 83 48 01 00
	00 00 00 00 00	 mov	 DWORD PTR [ebx+328], 0
  00086	e8 00 00 00 00	 call	 ?FreeDataChain@CPlex@@QAEXXZ ; CPlex::FreeDataChain

; 873  : 	m_pBlocks = NULL;

  0008b	c7 83 58 01 00
	00 00 00 00 00	 mov	 DWORD PTR [ebx+344], 0

; 872  : 	m_pBlocks->FreeDataChain();

  00095	8b 8b 58 01 00
	00		 mov	 ecx, DWORD PTR [ebx+344]

; 878  : {

  0009b	c7 45 fc 00 00
	00 00		 mov	 DWORD PTR __$EHRec$[ebp+8], 0
  000a2	c7 83 44 01 00
	00 00 00 00 00	 mov	 DWORD PTR [ebx+324], OFFSET ??_7?$CList@PAUstCDlgConfirmList_Item@@PAU1@@@6B@

; 870  : 	m_nCount = 0;

  000ac	c7 83 50 01 00
	00 00 00 00 00	 mov	 DWORD PTR [ebx+336], 0

; 871  : 	m_pNodeHead = m_pNodeTail = m_pNodeFree = NULL;

  000b6	c7 83 54 01 00
	00 00 00 00 00	 mov	 DWORD PTR [ebx+340], 0
  000c0	c7 83 4c 01 00
	00 00 00 00 00	 mov	 DWORD PTR [ebx+332], 0
  000ca	c7 83 48 01 00
	00 00 00 00 00	 mov	 DWORD PTR [ebx+328], 0

; 872  : 	m_pBlocks->FreeDataChain();

  000d4	e8 00 00 00 00	 call	 ?FreeDataChain@CPlex@@QAEXXZ ; CPlex::FreeDataChain
; File D:\git\src\IBK\IBK_DRFN\ProjSrc\SrcChartEx\ChartAddIn\ChartPeriodSummaryAddIn\DlgConfirm.cpp

; 114  : }

  000d9	ff 35 00 00 00
	00		 push	 DWORD PTR __imp_??1?$CStringT@DV?$StrTraitMFC_DLL@DV?$ChTraitsCRT@D@ATL@@@@@ATL@@QAE@XZ
  000df	8d 83 3c 01 00
	00		 lea	 eax, DWORD PTR [ebx+316]
; File C:\Program Files (x86)\Microsoft Visual Studio\2019\Community\VC\Tools\MSVC\14.29.30133\atlmfc\include\afxtempl.h

; 873  : 	m_pBlocks = NULL;

  000e5	c7 83 58 01 00
	00 00 00 00 00	 mov	 DWORD PTR [ebx+344], 0
; File D:\git\src\IBK\IBK_DRFN\ProjSrc\SrcChartEx\ChartAddIn\ChartPeriodSummaryAddIn\DlgConfirm.cpp

; 114  : }

  000ef	6a 02		 push	 2
  000f1	6a 04		 push	 4
  000f3	50		 push	 eax
; File C:\Program Files (x86)\Microsoft Visual Studio\2019\Community\VC\Tools\MSVC\14.29.30133\atlmfc\include\afxtempl.h

; 881  : }

  000f4	c7 45 fc ff ff
	ff ff		 mov	 DWORD PTR __$EHRec$[ebp+8], -1
; File D:\git\src\IBK\IBK_DRFN\ProjSrc\SrcChartEx\ChartAddIn\ChartPeriodSummaryAddIn\DlgConfirm.cpp

; 114  : }

  000fb	e8 00 00 00 00	 call	 ??_M@YGXPAXIIP6EX0@Z@Z
  00100	ff 35 00 00 00
	00		 push	 DWORD PTR __imp_??1?$CStringT@DV?$StrTraitMFC_DLL@DV?$ChTraitsCRT@D@ATL@@@@@ATL@@QAE@XZ
  00106	8d 83 34 01 00
	00		 lea	 eax, DWORD PTR [ebx+308]
  0010c	6a 02		 push	 2
  0010e	6a 04		 push	 4
  00110	50		 push	 eax
  00111	e8 00 00 00 00	 call	 ??_M@YGXPAXIIP6EX0@Z@Z
  00116	8d 8b 28 01 00
	00		 lea	 ecx, DWORD PTR [ebx+296]
  0011c	ff 15 00 00 00
	00		 call	 DWORD PTR __imp_??1?$CStringT@DV?$StrTraitMFC_DLL@DV?$ChTraitsCRT@D@ATL@@@@@ATL@@QAE@XZ
  00122	8d 8b a8 00 00
	00		 lea	 ecx, DWORD PTR [ebx+168]
  00128	e8 00 00 00 00	 call	 ??1CListBox@@UAE@XZ	; CListBox::~CListBox
  0012d	8b cb		 mov	 ecx, ebx
  0012f	e8 00 00 00 00	 call	 ??1CDialog@@UAE@XZ	; CDialog::~CDialog
  00134	8b 4d f4	 mov	 ecx, DWORD PTR __$EHRec$[ebp]
  00137	64 89 0d 00 00
	00 00		 mov	 DWORD PTR fs:0, ecx
  0013e	59		 pop	 ecx
  0013f	5f		 pop	 edi
  00140	5e		 pop	 esi
  00141	5b		 pop	 ebx
  00142	8b e5		 mov	 esp, ebp
  00144	5d		 pop	 ebp
  00145	c3		 ret	 0
  00146	cc		 int	 3
  00147	cc		 int	 3
  00148	cc		 int	 3
  00149	cc		 int	 3
  0014a	cc		 int	 3
_TEXT	ENDS
;	COMDAT text$x
text$x	SEGMENT
__ehhandler$??1CDlgConfirmList@@UAE@XZ:
  00000	90		 npad	 1
  00001	90		 npad	 1
  00002	8b 54 24 08	 mov	 edx, DWORD PTR [esp+8]
  00006	8d 42 0c	 lea	 eax, DWORD PTR [edx+12]
  00009	8b 4a f0	 mov	 ecx, DWORD PTR [edx-16]
  0000c	33 c8		 xor	 ecx, eax
  0000e	e8 00 00 00 00	 call	 @__security_check_cookie@4
  00013	b8 00 00 00 00	 mov	 eax, OFFSET __ehfuncinfo$??1CDlgConfirmList@@UAE@XZ
  00018	e9 00 00 00 00	 jmp	 ___CxxFrameHandler3
text$x	ENDS
??1CDlgConfirmList@@UAE@XZ ENDP				; CDlgConfirmList::~CDlgConfirmList
; Function compile flags: /Ogtp
; File D:\git\src\IBK\IBK_DRFN\ProjSrc\SrcChartEx\ChartAddIn\ChartPeriodSummaryAddIn\DlgConfirm.cpp
; File C:\Program Files (x86)\Microsoft Visual Studio\2019\Community\VC\Tools\MSVC\14.29.30133\atlmfc\include\afxwin2.inl
; File D:\git\src\IBK\IBK_DRFN\ProjSrc\SrcChartEx\ChartAddIn\ChartPeriodSummaryAddIn\DlgConfirm.cpp
; File C:\Program Files (x86)\Microsoft Visual Studio\2019\Community\VC\Tools\MSVC\14.29.30133\atlmfc\include\afxwin2.inl
; File D:\git\src\IBK\IBK_DRFN\ProjSrc\SrcChartEx\ChartAddIn\ChartPeriodSummaryAddIn\DlgConfirm.cpp
; File C:\Program Files (x86)\Microsoft Visual Studio\2019\Community\VC\Tools\MSVC\14.29.30133\atlmfc\include\afxtempl.h
; File D:\git\src\IBK\IBK_DRFN\ProjSrc\SrcChartEx\ChartAddIn\ChartPeriodSummaryAddIn\DlgConfirm.cpp
;	COMDAT ??0CDlgConfirmList@@QAE@PAVCWnd@@@Z
_TEXT	SEGMENT
_this$ = -16						; size = 4
__$EHRec$ = -12						; size = 12
_this$ = 8						; size = 4
_pParent$ = 8						; size = 4
??0CDlgConfirmList@@QAE@PAVCWnd@@@Z PROC		; CDlgConfirmList::CDlgConfirmList, COMDAT
; _this$ = ecx

; 100  : {

  00000	55		 push	 ebp
  00001	8b ec		 mov	 ebp, esp
  00003	6a ff		 push	 -1
  00005	68 00 00 00 00	 push	 __ehhandler$??0CDlgConfirmList@@QAE@PAVCWnd@@@Z
  0000a	64 a1 00 00 00
	00		 mov	 eax, DWORD PTR fs:0
  00010	50		 push	 eax
  00011	51		 push	 ecx
  00012	56		 push	 esi
  00013	57		 push	 edi
  00014	a1 00 00 00 00	 mov	 eax, DWORD PTR ___security_cookie
  00019	33 c5		 xor	 eax, ebp
  0001b	50		 push	 eax
  0001c	8d 45 f4	 lea	 eax, DWORD PTR __$EHRec$[ebp]
  0001f	64 a3 00 00 00
	00		 mov	 DWORD PTR fs:0, eax
  00025	8b f9		 mov	 edi, ecx
  00027	89 7d f0	 mov	 DWORD PTR _this$[ebp], edi

; 99   : : CDialog(CDlgConfirmList::IDD, pParent)

  0002a	ff 75 08	 push	 DWORD PTR _pParent$[ebp]
  0002d	68 dd 07 00 00	 push	 2013			; 000007ddH
  00032	e8 00 00 00 00	 call	 ??0CDialog@@QAE@IPAVCWnd@@@Z ; CDialog::CDialog

; 100  : {

  00037	8d b7 a8 00 00
	00		 lea	 esi, DWORD PTR [edi+168]
  0003d	c7 45 fc 00 00
	00 00		 mov	 DWORD PTR __$EHRec$[ebp+8], 0
; File C:\Program Files (x86)\Microsoft Visual Studio\2019\Community\VC\Tools\MSVC\14.29.30133\atlmfc\include\afxwin2.inl

; 662  : 	{ }

  00044	8b ce		 mov	 ecx, esi
; File D:\git\src\IBK\IBK_DRFN\ProjSrc\SrcChartEx\ChartAddIn\ChartPeriodSummaryAddIn\DlgConfirm.cpp

; 100  : {

  00046	c7 07 00 00 00
	00		 mov	 DWORD PTR [edi], OFFSET ??_7CDlgConfirmList@@6B@
  0004c	89 75 08	 mov	 DWORD PTR _this$[ebp], esi
; File C:\Program Files (x86)\Microsoft Visual Studio\2019\Community\VC\Tools\MSVC\14.29.30133\atlmfc\include\afxwin2.inl

; 662  : 	{ }

  0004f	e8 00 00 00 00	 call	 ??0CWnd@@QAE@XZ		; CWnd::CWnd
  00054	c7 06 00 00 00
	00		 mov	 DWORD PTR [esi], OFFSET ??_7CListBox@@6B@
; File D:\git\src\IBK\IBK_DRFN\ProjSrc\SrcChartEx\ChartAddIn\ChartPeriodSummaryAddIn\DlgConfirm.cpp

; 100  : {

  0005a	8d 8f 28 01 00
	00		 lea	 ecx, DWORD PTR [edi+296]
  00060	ff 15 00 00 00
	00		 call	 DWORD PTR __imp_??0?$CStringT@DV?$StrTraitMFC_DLL@DV?$ChTraitsCRT@D@ATL@@@@@ATL@@QAE@XZ
  00066	ff 35 00 00 00
	00		 push	 DWORD PTR __imp_??1?$CStringT@DV?$StrTraitMFC_DLL@DV?$ChTraitsCRT@D@ATL@@@@@ATL@@QAE@XZ
  0006c	8d 87 34 01 00
	00		 lea	 eax, DWORD PTR [edi+308]
  00072	c6 45 fc 02	 mov	 BYTE PTR __$EHRec$[ebp+8], 2
  00076	ff 35 00 00 00
	00		 push	 DWORD PTR __imp_??0?$CStringT@DV?$StrTraitMFC_DLL@DV?$ChTraitsCRT@D@ATL@@@@@ATL@@QAE@XZ
  0007c	6a 02		 push	 2
  0007e	6a 04		 push	 4
  00080	50		 push	 eax
  00081	e8 00 00 00 00	 call	 ??_L@YGXPAXIIP6EX0@Z1@Z
  00086	ff 35 00 00 00
	00		 push	 DWORD PTR __imp_??1?$CStringT@DV?$StrTraitMFC_DLL@DV?$ChTraitsCRT@D@ATL@@@@@ATL@@QAE@XZ
  0008c	8d 87 3c 01 00
	00		 lea	 eax, DWORD PTR [edi+316]
  00092	c6 45 fc 03	 mov	 BYTE PTR __$EHRec$[ebp+8], 3
  00096	ff 35 00 00 00
	00		 push	 DWORD PTR __imp_??0?$CStringT@DV?$StrTraitMFC_DLL@DV?$ChTraitsCRT@D@ATL@@@@@ATL@@QAE@XZ
  0009c	6a 02		 push	 2
  0009e	6a 04		 push	 4
  000a0	50		 push	 eax
  000a1	e8 00 00 00 00	 call	 ??_L@YGXPAXIIP6EX0@Z1@Z
; File C:\Program Files (x86)\Microsoft Visual Studio\2019\Community\VC\Tools\MSVC\14.29.30133\atlmfc\include\afxtempl.h

; 851  : {

  000a6	c7 87 44 01 00
	00 00 00 00 00	 mov	 DWORD PTR [edi+324], OFFSET ??_7?$CList@PAUstCDlgConfirmList_Item@@PAU1@@@6B@

; 852  : 	ASSERT(nBlockSize > 0);
; 853  : 
; 854  : 	m_nCount = 0;

  000b0	c7 87 50 01 00
	00 00 00 00 00	 mov	 DWORD PTR [edi+336], 0

; 855  : 	m_pNodeHead = m_pNodeTail = m_pNodeFree = NULL;

  000ba	c7 87 54 01 00
	00 00 00 00 00	 mov	 DWORD PTR [edi+340], 0
  000c4	c7 87 4c 01 00
	00 00 00 00 00	 mov	 DWORD PTR [edi+332], 0
  000ce	c7 87 48 01 00
	00 00 00 00 00	 mov	 DWORD PTR [edi+328], 0

; 856  : 	m_pBlocks = NULL;

  000d8	c7 87 58 01 00
	00 00 00 00 00	 mov	 DWORD PTR [edi+344], 0

; 857  : 	m_nBlockSize = nBlockSize;

  000e2	c7 87 5c 01 00
	00 0a 00 00 00	 mov	 DWORD PTR [edi+348], 10	; 0000000aH
; File D:\git\src\IBK\IBK_DRFN\ProjSrc\SrcChartEx\ChartAddIn\ChartPeriodSummaryAddIn\DlgConfirm.cpp

; 103  : 	m_strName = "";

  000ec	68 00 00 00 00	 push	 OFFSET ??_C@_00CNPNBAHC@@
  000f1	8d 8f 28 01 00
	00		 lea	 ecx, DWORD PTR [edi+296]
  000f7	c6 45 fc 05	 mov	 BYTE PTR __$EHRec$[ebp+8], 5
  000fb	ff 15 00 00 00
	00		 call	 DWORD PTR __imp_??4?$CStringT@DV?$StrTraitMFC_DLL@DV?$ChTraitsCRT@D@ATL@@@@@ATL@@QAEAAV01@PBD@Z

; 104  : 	m_nUpDown = 0;

  00101	c7 87 2c 01 00
	00 00 00 00 00	 mov	 DWORD PTR [edi+300], 0

; 105  : 	m_nSellBuy = 0;
; 106  : 	//}}AFX_DATA_INIT
; 107  : }

  0010b	8b c7		 mov	 eax, edi
  0010d	c7 87 30 01 00
	00 00 00 00 00	 mov	 DWORD PTR [edi+304], 0
  00117	8b 4d f4	 mov	 ecx, DWORD PTR __$EHRec$[ebp]
  0011a	64 89 0d 00 00
	00 00		 mov	 DWORD PTR fs:0, ecx
  00121	59		 pop	 ecx
  00122	5f		 pop	 edi
  00123	5e		 pop	 esi
  00124	8b e5		 mov	 esp, ebp
  00126	5d		 pop	 ebp
  00127	c2 04 00	 ret	 4
_TEXT	ENDS
;	COMDAT text$x
text$x	SEGMENT
__unwindfunclet$??0CDlgConfirmList@@QAE@PAVCWnd@@@Z$0:
  00000	8b 4d f0	 mov	 ecx, DWORD PTR _this$[ebp]
  00003	e9 00 00 00 00	 jmp	 ??1CDialog@@UAE@XZ	; CDialog::~CDialog
__unwindfunclet$??0CDlgConfirmList@@QAE@PAVCWnd@@@Z$1:
  00008	8b 4d f0	 mov	 ecx, DWORD PTR _this$[ebp]
  0000b	81 c1 a8 00 00
	00		 add	 ecx, 168		; 000000a8H
  00011	e9 00 00 00 00	 jmp	 ??1CListBox@@UAE@XZ	; CListBox::~CListBox
__unwindfunclet$??0CDlgConfirmList@@QAE@PAVCWnd@@@Z$2:
  00016	8b 4d f0	 mov	 ecx, DWORD PTR _this$[ebp]
  00019	81 c1 28 01 00
	00		 add	 ecx, 296		; 00000128H
  0001f	ff 25 00 00 00
	00		 jmp	 DWORD PTR __imp_??1?$CStringT@DV?$StrTraitMFC_DLL@DV?$ChTraitsCRT@D@ATL@@@@@ATL@@QAE@XZ
__unwindfunclet$??0CDlgConfirmList@@QAE@PAVCWnd@@@Z$3:
  00025	a1 00 00 00 00	 mov	 eax, DWORD PTR __imp_??1?$CStringT@DV?$StrTraitMFC_DLL@DV?$ChTraitsCRT@D@ATL@@@@@ATL@@QAE@XZ
  0002a	50		 push	 eax
  0002b	6a 02		 push	 2
  0002d	6a 04		 push	 4
  0002f	8b 45 f0	 mov	 eax, DWORD PTR _this$[ebp]
  00032	05 34 01 00 00	 add	 eax, 308		; 00000134H
  00037	50		 push	 eax
  00038	e8 00 00 00 00	 call	 ??_M@YGXPAXIIP6EX0@Z@Z
  0003d	c3		 ret	 0
__unwindfunclet$??0CDlgConfirmList@@QAE@PAVCWnd@@@Z$4:
  0003e	a1 00 00 00 00	 mov	 eax, DWORD PTR __imp_??1?$CStringT@DV?$StrTraitMFC_DLL@DV?$ChTraitsCRT@D@ATL@@@@@ATL@@QAE@XZ
  00043	50		 push	 eax
  00044	6a 02		 push	 2
  00046	6a 04		 push	 4
  00048	8b 45 f0	 mov	 eax, DWORD PTR _this$[ebp]
  0004b	05 3c 01 00 00	 add	 eax, 316		; 0000013cH
  00050	50		 push	 eax
  00051	e8 00 00 00 00	 call	 ??_M@YGXPAXIIP6EX0@Z@Z
  00056	c3		 ret	 0
__unwindfunclet$??0CDlgConfirmList@@QAE@PAVCWnd@@@Z$5:
  00057	8b 4d f0	 mov	 ecx, DWORD PTR _this$[ebp]
  0005a	81 c1 44 01 00
	00		 add	 ecx, 324		; 00000144H
  00060	e9 00 00 00 00	 jmp	 ??1?$CList@PAUstCDlgConfirmList_Item@@PAU1@@@UAE@XZ ; CList<stCDlgConfirmList_Item *,stCDlgConfirmList_Item *>::~CList<stCDlgConfirmList_Item *,stCDlgConfirmList_Item *>
  00065	cc		 int	 3
  00066	cc		 int	 3
  00067	cc		 int	 3
  00068	cc		 int	 3
  00069	cc		 int	 3
__ehhandler$??0CDlgConfirmList@@QAE@PAVCWnd@@@Z:
  0006a	90		 npad	 1
  0006b	90		 npad	 1
  0006c	8b 54 24 08	 mov	 edx, DWORD PTR [esp+8]
  00070	8d 42 0c	 lea	 eax, DWORD PTR [edx+12]
  00073	8b 4a f0	 mov	 ecx, DWORD PTR [edx-16]
  00076	33 c8		 xor	 ecx, eax
  00078	e8 00 00 00 00	 call	 @__security_check_cookie@4
  0007d	b8 00 00 00 00	 mov	 eax, OFFSET __ehfuncinfo$??0CDlgConfirmList@@QAE@PAVCWnd@@@Z
  00082	e9 00 00 00 00	 jmp	 ___CxxFrameHandler3
text$x	ENDS
??0CDlgConfirmList@@QAE@PAVCWnd@@@Z ENDP		; CDlgConfirmList::CDlgConfirmList
; Function compile flags: /Ogtp
; File C:\Program Files (x86)\Microsoft Visual Studio\2019\Community\VC\Tools\MSVC\14.29.30133\atlmfc\include\afx.inl
;	COMDAT ??_GCDlgConfirm@@UAEPAXI@Z
_TEXT	SEGMENT
___flags$ = 8						; size = 4
??_GCDlgConfirm@@UAEPAXI@Z PROC				; CDlgConfirm::`scalar deleting destructor', COMDAT
; _this$ = ecx
  00000	55		 push	 ebp
  00001	8b ec		 mov	 ebp, esp
  00003	56		 push	 esi
  00004	8b f1		 mov	 esi, ecx
  00006	8d 8e a8 00 00
	00		 lea	 ecx, DWORD PTR [esi+168]
  0000c	ff 15 00 00 00
	00		 call	 DWORD PTR __imp_??1?$CStringT@DV?$StrTraitMFC_DLL@DV?$ChTraitsCRT@D@ATL@@@@@ATL@@QAE@XZ
  00012	8b ce		 mov	 ecx, esi
  00014	e8 00 00 00 00	 call	 ??1CDialog@@UAE@XZ	; CDialog::~CDialog
  00019	8b 45 08	 mov	 eax, DWORD PTR ___flags$[ebp]
  0001c	a8 01		 test	 al, 1
  0001e	74 22		 je	 SHORT $LN12@scalar
  00020	a8 04		 test	 al, 4
  00022	75 10		 jne	 SHORT $LN3@scalar

; 112  : 	{ ::operator delete(p); }

  00024	56		 push	 esi
  00025	e8 00 00 00 00	 call	 ??3@YAXPAX@Z		; operator delete
  0002a	83 c4 04	 add	 esp, 4
  0002d	8b c6		 mov	 eax, esi
  0002f	5e		 pop	 esi
  00030	5d		 pop	 ebp
  00031	c2 04 00	 ret	 4
$LN3@scalar:
  00034	68 b8 00 00 00	 push	 184			; 000000b8H
  00039	56		 push	 esi
  0003a	e8 00 00 00 00	 call	 ?__global_delete@@YAXPAXI@Z ; __global_delete
  0003f	83 c4 08	 add	 esp, 8
$LN12@scalar:
  00042	8b c6		 mov	 eax, esi
  00044	5e		 pop	 esi
  00045	5d		 pop	 ebp
  00046	c2 04 00	 ret	 4
??_GCDlgConfirm@@UAEPAXI@Z ENDP				; CDlgConfirm::`scalar deleting destructor'
_TEXT	ENDS
; Function compile flags: /Ogtp
; File D:\git\src\IBK\IBK_DRFN\ProjSrc\SrcChartEx\ChartAddIn\ChartPeriodSummaryAddIn\DlgConfirm.cpp
;	COMDAT ?GetMessageMap@CDlgConfirm@@MBEPBUAFX_MSGMAP@@XZ
_TEXT	SEGMENT
?GetMessageMap@CDlgConfirm@@MBEPBUAFX_MSGMAP@@XZ PROC	; CDlgConfirm::GetMessageMap, COMDAT
; _this$ = ecx

; 39   : BEGIN_MESSAGE_MAP(CDlgConfirm, CDialog)

  00000	b8 00 00 00 00	 mov	 eax, OFFSET ?messageMap@?1??GetThisMessageMap@CDlgConfirm@@KGPBUAFX_MSGMAP@@XZ@4U3@B
  00005	c3		 ret	 0
?GetMessageMap@CDlgConfirm@@MBEPBUAFX_MSGMAP@@XZ ENDP	; CDlgConfirm::GetMessageMap
_TEXT	ENDS
; Function compile flags: /Ogtp
; File D:\git\src\IBK\IBK_DRFN\ProjSrc\SrcChartEx\ChartAddIn\ChartPeriodSummaryAddIn\DlgConfirm.cpp
;	COMDAT ?GetThisMessageMap@CDlgConfirm@@KGPBUAFX_MSGMAP@@XZ
_TEXT	SEGMENT
?GetThisMessageMap@CDlgConfirm@@KGPBUAFX_MSGMAP@@XZ PROC ; CDlgConfirm::GetThisMessageMap, COMDAT

; 40   : 	//{{AFX_MSG_MAP(CDlgConfirm)
; 41   : 	//}}AFX_MSG_MAP
; 42   : END_MESSAGE_MAP()

  00000	b8 00 00 00 00	 mov	 eax, OFFSET ?messageMap@?1??GetThisMessageMap@CDlgConfirm@@KGPBUAFX_MSGMAP@@XZ@4U3@B
  00005	c3		 ret	 0
?GetThisMessageMap@CDlgConfirm@@KGPBUAFX_MSGMAP@@XZ ENDP ; CDlgConfirm::GetThisMessageMap
_TEXT	ENDS
; Function compile flags: /Ogtp
; File D:\git\src\IBK\IBK_DRFN\ProjSrc\SrcChartEx\ChartAddIn\ChartPeriodSummaryAddIn\DlgConfirm.cpp
;	COMDAT ?OnInitDialog@CDlgConfirm@@MAEHXZ
_TEXT	SEGMENT
_strDebug$ = -32					; size = 4
_strRise$ = -28						; size = 4
_strFall$ = -24						; size = 4
_strSell$ = -20						; size = 4
_strBuy$ = -16						; size = 4
__$EHRec$ = -12						; size = 12
?OnInitDialog@CDlgConfirm@@MAEHXZ PROC			; CDlgConfirm::OnInitDialog, COMDAT
; _this$ = ecx

; 48   : {

  00000	55		 push	 ebp
  00001	8b ec		 mov	 ebp, esp
  00003	6a ff		 push	 -1
  00005	68 00 00 00 00	 push	 __ehhandler$?OnInitDialog@CDlgConfirm@@MAEHXZ
  0000a	64 a1 00 00 00
	00		 mov	 eax, DWORD PTR fs:0
  00010	50		 push	 eax
  00011	83 ec 14	 sub	 esp, 20			; 00000014H
  00014	56		 push	 esi
  00015	a1 00 00 00 00	 mov	 eax, DWORD PTR ___security_cookie
  0001a	33 c5		 xor	 eax, ebp
  0001c	50		 push	 eax
  0001d	8d 45 f4	 lea	 eax, DWORD PTR __$EHRec$[ebp]
  00020	64 a3 00 00 00
	00		 mov	 DWORD PTR fs:0, eax
  00026	8b f1		 mov	 esi, ecx

; 49   : 	CDialog::OnInitDialog();

  00028	e8 00 00 00 00	 call	 ?OnInitDialog@CDialog@@UAEHXZ ; CDialog::OnInitDialog

; 50   : 	
; 51   : 	CString strDebug;

  0002d	8d 4d e0	 lea	 ecx, DWORD PTR _strDebug$[ebp]
  00030	ff 15 00 00 00
	00		 call	 DWORD PTR __imp_??0?$CStringT@DV?$StrTraitMFC_DLL@DV?$ChTraitsCRT@D@ATL@@@@@ATL@@QAE@XZ

; 52   : 	strDebug.Format("#######OnInitDialog::%s###\r\n", m_strName);

  00036	ff b6 a8 00 00
	00		 push	 DWORD PTR [esi+168]
  0003c	8d 45 e0	 lea	 eax, DWORD PTR _strDebug$[ebp]
  0003f	c7 45 fc 00 00
	00 00		 mov	 DWORD PTR __$EHRec$[ebp+8], 0
  00046	68 00 00 00 00	 push	 OFFSET ??_C@_0BN@INKFMAMD@?$CD?$CD?$CD?$CD?$CD?$CD?$CDOnInitDialog?3?3?$CFs?$CD?$CD?$CD?$AN?6@
  0004b	50		 push	 eax
  0004c	ff 15 00 00 00
	00		 call	 DWORD PTR __imp_?Format@?$CStringT@DV?$StrTraitMFC_DLL@DV?$ChTraitsCRT@D@ATL@@@@@ATL@@QAAXPBDZZ
  00052	83 c4 0c	 add	 esp, 12			; 0000000cH

; 53   : 	OutputDebugString(strDebug);

  00055	ff 75 e0	 push	 DWORD PTR _strDebug$[ebp]
  00058	ff 15 00 00 00
	00		 call	 DWORD PTR __imp__OutputDebugStringA@4

; 54   : 	// TODO: Add extra initialization here
; 55   : 	
; 56   : 	CString strRise, strFall;

  0005e	8d 4d e4	 lea	 ecx, DWORD PTR _strRise$[ebp]
  00061	ff 15 00 00 00
	00		 call	 DWORD PTR __imp_??0?$CStringT@DV?$StrTraitMFC_DLL@DV?$ChTraitsCRT@D@ATL@@@@@ATL@@QAE@XZ
  00067	8d 4d e8	 lea	 ecx, DWORD PTR _strFall$[ebp]
  0006a	ff 15 00 00 00
	00		 call	 DWORD PTR __imp_??0?$CStringT@DV?$StrTraitMFC_DLL@DV?$ChTraitsCRT@D@ATL@@@@@ATL@@QAE@XZ

; 57   : 	strRise.LoadString(IDS_STRING_RISE);

  00070	68 70 a1 00 00	 push	 41328			; 0000a170H
  00075	8d 4d e4	 lea	 ecx, DWORD PTR _strRise$[ebp]
  00078	c6 45 fc 02	 mov	 BYTE PTR __$EHRec$[ebp+8], 2
  0007c	ff 15 00 00 00
	00		 call	 DWORD PTR __imp_?LoadStringA@?$CStringT@DV?$StrTraitMFC_DLL@DV?$ChTraitsCRT@D@ATL@@@@@ATL@@QAEHI@Z

; 58   : 	strFall.LoadString(IDS_STRING_FALL);

  00082	68 71 a1 00 00	 push	 41329			; 0000a171H
  00087	8d 4d e8	 lea	 ecx, DWORD PTR _strFall$[ebp]
  0008a	ff 15 00 00 00
	00		 call	 DWORD PTR __imp_?LoadStringA@?$CStringT@DV?$StrTraitMFC_DLL@DV?$ChTraitsCRT@D@ATL@@@@@ATL@@QAEHI@Z

; 59   : 	
; 60   : 	if(m_nUpDown == 1)

  00090	8b 86 ac 00 00
	00		 mov	 eax, DWORD PTR [esi+172]
  00096	83 f8 01	 cmp	 eax, 1
  00099	75 05		 jne	 SHORT $LN2@OnInitDial

; 61   : 		// GetDlgItem(IDC_STATIC_TYPE)->SetWindowText("");
; 62   : 		GetDlgItem(IDC_STATIC_TYPE)->SetWindowText(strRise);

  0009b	ff 75 e4	 push	 DWORD PTR _strRise$[ebp]
  0009e	eb 08		 jmp	 SHORT $LN27@OnInitDial
$LN2@OnInitDial:

; 63   : 	else if(m_nUpDown == 2)

  000a0	83 f8 02	 cmp	 eax, 2
  000a3	75 16		 jne	 SHORT $LN4@OnInitDial

; 64   : 		// GetDlgItem(IDC_STATIC_TYPE)->SetWindowText("");
; 65   : 		GetDlgItem(IDC_STATIC_TYPE)->SetWindowText(strFall);

  000a5	ff 75 e8	 push	 DWORD PTR _strFall$[ebp]
$LN27@OnInitDial:

; 66   : 	GetDlgItem(IDC_STATIC_NAME)->SetWindowText(m_strName);

  000a8	68 f4 07 00 00	 push	 2036			; 000007f4H
  000ad	8b ce		 mov	 ecx, esi
  000af	e8 00 00 00 00	 call	 ?GetDlgItem@CWnd@@QBEPAV1@H@Z ; CWnd::GetDlgItem
  000b4	8b c8		 mov	 ecx, eax
  000b6	e8 00 00 00 00	 call	 ?SetWindowTextA@CWnd@@QAEXPBD@Z ; CWnd::SetWindowTextA
$LN4@OnInitDial:
  000bb	ff b6 a8 00 00
	00		 push	 DWORD PTR [esi+168]
  000c1	8b ce		 mov	 ecx, esi
  000c3	68 f5 07 00 00	 push	 2037			; 000007f5H
  000c8	e8 00 00 00 00	 call	 ?GetDlgItem@CWnd@@QBEPAV1@H@Z ; CWnd::GetDlgItem
  000cd	8b c8		 mov	 ecx, eax
  000cf	e8 00 00 00 00	 call	 ?SetWindowTextA@CWnd@@QAEXPBD@Z ; CWnd::SetWindowTextA

; 67   : 	
; 68   : 	CString strSell, strBuy;

  000d4	8d 4d ec	 lea	 ecx, DWORD PTR _strSell$[ebp]
  000d7	ff 15 00 00 00
	00		 call	 DWORD PTR __imp_??0?$CStringT@DV?$StrTraitMFC_DLL@DV?$ChTraitsCRT@D@ATL@@@@@ATL@@QAE@XZ
  000dd	8d 4d f0	 lea	 ecx, DWORD PTR _strBuy$[ebp]
  000e0	ff 15 00 00 00
	00		 call	 DWORD PTR __imp_??0?$CStringT@DV?$StrTraitMFC_DLL@DV?$ChTraitsCRT@D@ATL@@@@@ATL@@QAE@XZ

; 69   : 	strSell.LoadString(IDS_STRING_SELL);

  000e6	68 72 a1 00 00	 push	 41330			; 0000a172H
  000eb	8d 4d ec	 lea	 ecx, DWORD PTR _strSell$[ebp]
  000ee	c6 45 fc 04	 mov	 BYTE PTR __$EHRec$[ebp+8], 4
  000f2	ff 15 00 00 00
	00		 call	 DWORD PTR __imp_?LoadStringA@?$CStringT@DV?$StrTraitMFC_DLL@DV?$ChTraitsCRT@D@ATL@@@@@ATL@@QAEHI@Z

; 70   : 	strBuy.LoadString(IDS_STRING_BUY);

  000f8	68 73 a1 00 00	 push	 41331			; 0000a173H
  000fd	8d 4d f0	 lea	 ecx, DWORD PTR _strBuy$[ebp]
  00100	ff 15 00 00 00
	00		 call	 DWORD PTR __imp_?LoadStringA@?$CStringT@DV?$StrTraitMFC_DLL@DV?$ChTraitsCRT@D@ATL@@@@@ATL@@QAEHI@Z

; 71   : 	
; 72   : 	if(m_nSellBuy == 1)

  00106	8b 86 b0 00 00
	00		 mov	 eax, DWORD PTR [esi+176]
  0010c	83 f8 01	 cmp	 eax, 1
  0010f	75 05		 jne	 SHORT $LN5@OnInitDial

; 73   : 		// GetDlgItem(IDC_STATIC_PRICE)->SetWindowText("");
; 74   : 		GetDlgItem(IDC_STATIC_PRICE)->SetWindowText(strSell);

  00111	ff 75 ec	 push	 DWORD PTR _strSell$[ebp]
  00114	eb 08		 jmp	 SHORT $LN28@OnInitDial
$LN5@OnInitDial:

; 75   : 	else if(m_nSellBuy == 2)

  00116	83 f8 02	 cmp	 eax, 2
  00119	75 16		 jne	 SHORT $LN7@OnInitDial

; 76   : 		// GetDlgItem(IDC_STATIC_PRICE)->SetWindowText("");
; 77   : 		GetDlgItem(IDC_STATIC_PRICE)->SetWindowText(strBuy);

  0011b	ff 75 f0	 push	 DWORD PTR _strBuy$[ebp]
$LN28@OnInitDial:

; 78   : 	return TRUE;  // return TRUE unless you set the focus to a control

  0011e	68 f6 07 00 00	 push	 2038			; 000007f6H
  00123	8b ce		 mov	 ecx, esi
  00125	e8 00 00 00 00	 call	 ?GetDlgItem@CWnd@@QBEPAV1@H@Z ; CWnd::GetDlgItem
  0012a	8b c8		 mov	 ecx, eax
  0012c	e8 00 00 00 00	 call	 ?SetWindowTextA@CWnd@@QAEXPBD@Z ; CWnd::SetWindowTextA
$LN7@OnInitDial:
  00131	8d 4d f0	 lea	 ecx, DWORD PTR _strBuy$[ebp]
  00134	ff 15 00 00 00
	00		 call	 DWORD PTR __imp_??1?$CStringT@DV?$StrTraitMFC_DLL@DV?$ChTraitsCRT@D@ATL@@@@@ATL@@QAE@XZ
  0013a	8d 4d ec	 lea	 ecx, DWORD PTR _strSell$[ebp]
  0013d	ff 15 00 00 00
	00		 call	 DWORD PTR __imp_??1?$CStringT@DV?$StrTraitMFC_DLL@DV?$ChTraitsCRT@D@ATL@@@@@ATL@@QAE@XZ
  00143	8d 4d e8	 lea	 ecx, DWORD PTR _strFall$[ebp]
  00146	ff 15 00 00 00
	00		 call	 DWORD PTR __imp_??1?$CStringT@DV?$StrTraitMFC_DLL@DV?$ChTraitsCRT@D@ATL@@@@@ATL@@QAE@XZ
  0014c	8d 4d e4	 lea	 ecx, DWORD PTR _strRise$[ebp]
  0014f	ff 15 00 00 00
	00		 call	 DWORD PTR __imp_??1?$CStringT@DV?$StrTraitMFC_DLL@DV?$ChTraitsCRT@D@ATL@@@@@ATL@@QAE@XZ
  00155	8d 4d e0	 lea	 ecx, DWORD PTR _strDebug$[ebp]
  00158	ff 15 00 00 00
	00		 call	 DWORD PTR __imp_??1?$CStringT@DV?$StrTraitMFC_DLL@DV?$ChTraitsCRT@D@ATL@@@@@ATL@@QAE@XZ
  0015e	b8 01 00 00 00	 mov	 eax, 1

; 79   : 	              // EXCEPTION: OCX Property Pages should return FALSE
; 80   : }

  00163	8b 4d f4	 mov	 ecx, DWORD PTR __$EHRec$[ebp]
  00166	64 89 0d 00 00
	00 00		 mov	 DWORD PTR fs:0, ecx
  0016d	59		 pop	 ecx
  0016e	5e		 pop	 esi
  0016f	8b e5		 mov	 esp, ebp
  00171	5d		 pop	 ebp
  00172	c3		 ret	 0
_TEXT	ENDS
;	COMDAT text$x
text$x	SEGMENT
__unwindfunclet$?OnInitDialog@CDlgConfirm@@MAEHXZ$0:
  00000	8d 4d e0	 lea	 ecx, DWORD PTR _strDebug$[ebp]
  00003	ff 25 00 00 00
	00		 jmp	 DWORD PTR __imp_??1?$CStringT@DV?$StrTraitMFC_DLL@DV?$ChTraitsCRT@D@ATL@@@@@ATL@@QAE@XZ
__unwindfunclet$?OnInitDialog@CDlgConfirm@@MAEHXZ$1:
  00009	8d 4d e4	 lea	 ecx, DWORD PTR _strRise$[ebp]
  0000c	ff 25 00 00 00
	00		 jmp	 DWORD PTR __imp_??1?$CStringT@DV?$StrTraitMFC_DLL@DV?$ChTraitsCRT@D@ATL@@@@@ATL@@QAE@XZ
__unwindfunclet$?OnInitDialog@CDlgConfirm@@MAEHXZ$2:
  00012	8d 4d e8	 lea	 ecx, DWORD PTR _strFall$[ebp]
  00015	ff 25 00 00 00
	00		 jmp	 DWORD PTR __imp_??1?$CStringT@DV?$StrTraitMFC_DLL@DV?$ChTraitsCRT@D@ATL@@@@@ATL@@QAE@XZ
__unwindfunclet$?OnInitDialog@CDlgConfirm@@MAEHXZ$3:
  0001b	8d 4d ec	 lea	 ecx, DWORD PTR _strSell$[ebp]
  0001e	ff 25 00 00 00
	00		 jmp	 DWORD PTR __imp_??1?$CStringT@DV?$StrTraitMFC_DLL@DV?$ChTraitsCRT@D@ATL@@@@@ATL@@QAE@XZ
__unwindfunclet$?OnInitDialog@CDlgConfirm@@MAEHXZ$4:
  00024	8d 4d f0	 lea	 ecx, DWORD PTR _strBuy$[ebp]
  00027	ff 25 00 00 00
	00		 jmp	 DWORD PTR __imp_??1?$CStringT@DV?$StrTraitMFC_DLL@DV?$ChTraitsCRT@D@ATL@@@@@ATL@@QAE@XZ
  0002d	cc		 int	 3
  0002e	cc		 int	 3
  0002f	cc		 int	 3
  00030	cc		 int	 3
  00031	cc		 int	 3
__ehhandler$?OnInitDialog@CDlgConfirm@@MAEHXZ:
  00032	90		 npad	 1
  00033	90		 npad	 1
  00034	8b 54 24 08	 mov	 edx, DWORD PTR [esp+8]
  00038	8d 42 0c	 lea	 eax, DWORD PTR [edx+12]
  0003b	8b 4a e4	 mov	 ecx, DWORD PTR [edx-28]
  0003e	33 c8		 xor	 ecx, eax
  00040	e8 00 00 00 00	 call	 @__security_check_cookie@4
  00045	b8 00 00 00 00	 mov	 eax, OFFSET __ehfuncinfo$?OnInitDialog@CDlgConfirm@@MAEHXZ
  0004a	e9 00 00 00 00	 jmp	 ___CxxFrameHandler3
text$x	ENDS
?OnInitDialog@CDlgConfirm@@MAEHXZ ENDP			; CDlgConfirm::OnInitDialog
; Function compile flags: /Ogtp
; File D:\git\src\IBK\IBK_DRFN\ProjSrc\SrcChartEx\ChartAddIn\ChartPeriodSummaryAddIn\DlgConfirm.cpp
;	COMDAT ?DoDataExchange@CDlgConfirm@@MAEXPAVCDataExchange@@@Z
_TEXT	SEGMENT
_pDX$ = 8						; size = 4
?DoDataExchange@CDlgConfirm@@MAEXPAVCDataExchange@@@Z PROC ; CDlgConfirm::DoDataExchange, COMDAT
; _this$ = ecx

; 32   : 	CDialog::DoDataExchange(pDX);
; 33   : 	//{{AFX_DATA_MAP(CDlgConfirm)
; 34   : 		// NOTE: the ClassWizard will add DDX and DDV calls here
; 35   : 	//}}AFX_DATA_MAP
; 36   : }

  00000	c2 04 00	 ret	 4
?DoDataExchange@CDlgConfirm@@MAEXPAVCDataExchange@@@Z ENDP ; CDlgConfirm::DoDataExchange
_TEXT	ENDS
; Function compile flags: /Ogtp
; File D:\git\src\IBK\IBK_DRFN\ProjSrc\SrcChartEx\ChartAddIn\ChartPeriodSummaryAddIn\DlgConfirm.cpp
;	COMDAT ?SetData@CDlgConfirm@@QAEXV?$CStringT@DV?$StrTraitMFC_DLL@DV?$ChTraitsCRT@D@ATL@@@@@ATL@@HH@Z
_TEXT	SEGMENT
_strDebug$ = -16					; size = 4
__$EHRec$ = -12						; size = 12
_strName$ = 8						; size = 4
_nUpDown$ = 12						; size = 4
_nSellBuy$ = 16						; size = 4
?SetData@CDlgConfirm@@QAEXV?$CStringT@DV?$StrTraitMFC_DLL@DV?$ChTraitsCRT@D@ATL@@@@@ATL@@HH@Z PROC ; CDlgConfirm::SetData, COMDAT
; _this$ = ecx

; 83   : {

  00000	55		 push	 ebp
  00001	8b ec		 mov	 ebp, esp
  00003	6a ff		 push	 -1
  00005	68 00 00 00 00	 push	 __ehhandler$?SetData@CDlgConfirm@@QAEXV?$CStringT@DV?$StrTraitMFC_DLL@DV?$ChTraitsCRT@D@ATL@@@@@ATL@@HH@Z
  0000a	64 a1 00 00 00
	00		 mov	 eax, DWORD PTR fs:0
  00010	50		 push	 eax
  00011	51		 push	 ecx
  00012	56		 push	 esi
  00013	57		 push	 edi
  00014	a1 00 00 00 00	 mov	 eax, DWORD PTR ___security_cookie
  00019	33 c5		 xor	 eax, ebp
  0001b	50		 push	 eax
  0001c	8d 45 f4	 lea	 eax, DWORD PTR __$EHRec$[ebp]
  0001f	64 a3 00 00 00
	00		 mov	 DWORD PTR fs:0, eax
  00025	8b f1		 mov	 esi, ecx

; 84   : 	m_strName = strName;

  00027	8d 45 08	 lea	 eax, DWORD PTR _strName$[ebp]
  0002a	c7 45 fc 00 00
	00 00		 mov	 DWORD PTR __$EHRec$[ebp+8], 0
  00031	50		 push	 eax
  00032	8d 8e a8 00 00
	00		 lea	 ecx, DWORD PTR [esi+168]
  00038	ff 15 00 00 00
	00		 call	 DWORD PTR __imp_??4?$CStringT@DV?$StrTraitMFC_DLL@DV?$ChTraitsCRT@D@ATL@@@@@ATL@@QAEAAV01@ABV01@@Z

; 85   : 	m_nUpDown = nUpDown;

  0003e	8b 45 0c	 mov	 eax, DWORD PTR _nUpDown$[ebp]

; 86   : 	m_nSellBuy = nSellBuy;
; 87   : 
; 88   : 	CString strDebug;

  00041	8d 4d f0	 lea	 ecx, DWORD PTR _strDebug$[ebp]
  00044	89 86 ac 00 00
	00		 mov	 DWORD PTR [esi+172], eax
  0004a	8b 45 10	 mov	 eax, DWORD PTR _nSellBuy$[ebp]
  0004d	89 86 b0 00 00
	00		 mov	 DWORD PTR [esi+176], eax
  00053	ff 15 00 00 00
	00		 call	 DWORD PTR __imp_??0?$CStringT@DV?$StrTraitMFC_DLL@DV?$ChTraitsCRT@D@ATL@@@@@ATL@@QAE@XZ

; 89   : 	strDebug.Format("#######SetData::%s###\r\n", m_strName);

  00059	ff b6 a8 00 00
	00		 push	 DWORD PTR [esi+168]
  0005f	8d 45 f0	 lea	 eax, DWORD PTR _strDebug$[ebp]
  00062	c6 45 fc 01	 mov	 BYTE PTR __$EHRec$[ebp+8], 1
  00066	68 00 00 00 00	 push	 OFFSET ??_C@_0BI@FAGCCAND@?$CD?$CD?$CD?$CD?$CD?$CD?$CDSetData?3?3?$CFs?$CD?$CD?$CD?$AN?6@
  0006b	50		 push	 eax
  0006c	ff 15 00 00 00
	00		 call	 DWORD PTR __imp_?Format@?$CStringT@DV?$StrTraitMFC_DLL@DV?$ChTraitsCRT@D@ATL@@@@@ATL@@QAAXPBDZZ
  00072	83 c4 0c	 add	 esp, 12			; 0000000cH

; 90   : 	OutputDebugString(strDebug);

  00075	ff 75 f0	 push	 DWORD PTR _strDebug$[ebp]
  00078	ff 15 00 00 00
	00		 call	 DWORD PTR __imp__OutputDebugStringA@4

; 91   : }

  0007e	8d 4d f0	 lea	 ecx, DWORD PTR _strDebug$[ebp]
  00081	ff 15 00 00 00
	00		 call	 DWORD PTR __imp_??1?$CStringT@DV?$StrTraitMFC_DLL@DV?$ChTraitsCRT@D@ATL@@@@@ATL@@QAE@XZ
  00087	8d 4d 08	 lea	 ecx, DWORD PTR _strName$[ebp]
  0008a	ff 15 00 00 00
	00		 call	 DWORD PTR __imp_??1?$CStringT@DV?$StrTraitMFC_DLL@DV?$ChTraitsCRT@D@ATL@@@@@ATL@@QAE@XZ
  00090	8b 4d f4	 mov	 ecx, DWORD PTR __$EHRec$[ebp]
  00093	64 89 0d 00 00
	00 00		 mov	 DWORD PTR fs:0, ecx
  0009a	59		 pop	 ecx
  0009b	5f		 pop	 edi
  0009c	5e		 pop	 esi
  0009d	8b e5		 mov	 esp, ebp
  0009f	5d		 pop	 ebp
  000a0	c2 0c 00	 ret	 12			; 0000000cH
_TEXT	ENDS
;	COMDAT text$x
text$x	SEGMENT
__unwindfunclet$?SetData@CDlgConfirm@@QAEXV?$CStringT@DV?$StrTraitMFC_DLL@DV?$ChTraitsCRT@D@ATL@@@@@ATL@@HH@Z$0:
  00000	8d 4d 08	 lea	 ecx, DWORD PTR _strName$[ebp]
  00003	ff 25 00 00 00
	00		 jmp	 DWORD PTR __imp_??1?$CStringT@DV?$StrTraitMFC_DLL@DV?$ChTraitsCRT@D@ATL@@@@@ATL@@QAE@XZ
__unwindfunclet$?SetData@CDlgConfirm@@QAEXV?$CStringT@DV?$StrTraitMFC_DLL@DV?$ChTraitsCRT@D@ATL@@@@@ATL@@HH@Z$1:
  00009	8d 4d f0	 lea	 ecx, DWORD PTR _strDebug$[ebp]
  0000c	ff 25 00 00 00
	00		 jmp	 DWORD PTR __imp_??1?$CStringT@DV?$StrTraitMFC_DLL@DV?$ChTraitsCRT@D@ATL@@@@@ATL@@QAE@XZ
  00012	cc		 int	 3
  00013	cc		 int	 3
  00014	cc		 int	 3
  00015	cc		 int	 3
  00016	cc		 int	 3
__ehhandler$?SetData@CDlgConfirm@@QAEXV?$CStringT@DV?$StrTraitMFC_DLL@DV?$ChTraitsCRT@D@ATL@@@@@ATL@@HH@Z:
  00017	90		 npad	 1
  00018	90		 npad	 1
  00019	8b 54 24 08	 mov	 edx, DWORD PTR [esp+8]
  0001d	8d 42 0c	 lea	 eax, DWORD PTR [edx+12]
  00020	8b 4a f0	 mov	 ecx, DWORD PTR [edx-16]
  00023	33 c8		 xor	 ecx, eax
  00025	e8 00 00 00 00	 call	 @__security_check_cookie@4
  0002a	b8 00 00 00 00	 mov	 eax, OFFSET __ehfuncinfo$?SetData@CDlgConfirm@@QAEXV?$CStringT@DV?$StrTraitMFC_DLL@DV?$ChTraitsCRT@D@ATL@@@@@ATL@@HH@Z
  0002f	e9 00 00 00 00	 jmp	 ___CxxFrameHandler3
text$x	ENDS
?SetData@CDlgConfirm@@QAEXV?$CStringT@DV?$StrTraitMFC_DLL@DV?$ChTraitsCRT@D@ATL@@@@@ATL@@HH@Z ENDP ; CDlgConfirm::SetData
; Function compile flags: /Ogtp
; File D:\git\src\IBK\IBK_DRFN\ProjSrc\SrcChartEx\ChartAddIn\ChartPeriodSummaryAddIn\DlgConfirm.cpp
;	COMDAT ??0CDlgConfirm@@QAE@PAVCWnd@@@Z
_TEXT	SEGMENT
_this$ = -16						; size = 4
__$EHRec$ = -12						; size = 12
_pParent$ = 8						; size = 4
??0CDlgConfirm@@QAE@PAVCWnd@@@Z PROC			; CDlgConfirm::CDlgConfirm, COMDAT
; _this$ = ecx

; 20   : {

  00000	55		 push	 ebp
  00001	8b ec		 mov	 ebp, esp
  00003	6a ff		 push	 -1
  00005	68 00 00 00 00	 push	 __ehhandler$??0CDlgConfirm@@QAE@PAVCWnd@@@Z
  0000a	64 a1 00 00 00
	00		 mov	 eax, DWORD PTR fs:0
  00010	50		 push	 eax
  00011	51		 push	 ecx
  00012	56		 push	 esi
  00013	57		 push	 edi
  00014	a1 00 00 00 00	 mov	 eax, DWORD PTR ___security_cookie
  00019	33 c5		 xor	 eax, ebp
  0001b	50		 push	 eax
  0001c	8d 45 f4	 lea	 eax, DWORD PTR __$EHRec$[ebp]
  0001f	64 a3 00 00 00
	00		 mov	 DWORD PTR fs:0, eax
  00025	8b f9		 mov	 edi, ecx
  00027	89 7d f0	 mov	 DWORD PTR _this$[ebp], edi

; 19   : 	: CDialog(CDlgConfirm::IDD, pParent)

  0002a	ff 75 08	 push	 DWORD PTR _pParent$[ebp]
  0002d	68 dc 07 00 00	 push	 2012			; 000007dcH
  00032	e8 00 00 00 00	 call	 ??0CDialog@@QAE@IPAVCWnd@@@Z ; CDialog::CDialog

; 20   : {

  00037	8d 8f a8 00 00
	00		 lea	 ecx, DWORD PTR [edi+168]
  0003d	c7 45 fc 00 00
	00 00		 mov	 DWORD PTR __$EHRec$[ebp+8], 0
  00044	c7 07 00 00 00
	00		 mov	 DWORD PTR [edi], OFFSET ??_7CDlgConfirm@@6B@
  0004a	ff 15 00 00 00
	00		 call	 DWORD PTR __imp_??0?$CStringT@DV?$StrTraitMFC_DLL@DV?$ChTraitsCRT@D@ATL@@@@@ATL@@QAE@XZ

; 21   : 	//{{AFX_DATA_INIT(CDlgConfirm)
; 22   : 		// NOTE: the ClassWizard will add member initialization here
; 23   : 	m_strName = "";

  00050	68 00 00 00 00	 push	 OFFSET ??_C@_00CNPNBAHC@@
  00055	8d 8f a8 00 00
	00		 lea	 ecx, DWORD PTR [edi+168]
  0005b	c6 45 fc 01	 mov	 BYTE PTR __$EHRec$[ebp+8], 1
  0005f	ff 15 00 00 00
	00		 call	 DWORD PTR __imp_??4?$CStringT@DV?$StrTraitMFC_DLL@DV?$ChTraitsCRT@D@ATL@@@@@ATL@@QAEAAV01@PBD@Z

; 24   : 	m_nUpDown = 0;

  00065	c7 87 ac 00 00
	00 00 00 00 00	 mov	 DWORD PTR [edi+172], 0

; 25   : 	m_nSellBuy = 0;
; 26   : 	//}}AFX_DATA_INIT
; 27   : }

  0006f	8b c7		 mov	 eax, edi
  00071	c7 87 b0 00 00
	00 00 00 00 00	 mov	 DWORD PTR [edi+176], 0
  0007b	8b 4d f4	 mov	 ecx, DWORD PTR __$EHRec$[ebp]
  0007e	64 89 0d 00 00
	00 00		 mov	 DWORD PTR fs:0, ecx
  00085	59		 pop	 ecx
  00086	5f		 pop	 edi
  00087	5e		 pop	 esi
  00088	8b e5		 mov	 esp, ebp
  0008a	5d		 pop	 ebp
  0008b	c2 04 00	 ret	 4
_TEXT	ENDS
;	COMDAT text$x
text$x	SEGMENT
__unwindfunclet$??0CDlgConfirm@@QAE@PAVCWnd@@@Z$0:
  00000	8b 4d f0	 mov	 ecx, DWORD PTR _this$[ebp]
  00003	e9 00 00 00 00	 jmp	 ??1CDialog@@UAE@XZ	; CDialog::~CDialog
__unwindfunclet$??0CDlgConfirm@@QAE@PAVCWnd@@@Z$1:
  00008	8b 4d f0	 mov	 ecx, DWORD PTR _this$[ebp]
  0000b	81 c1 a8 00 00
	00		 add	 ecx, 168		; 000000a8H
  00011	ff 25 00 00 00
	00		 jmp	 DWORD PTR __imp_??1?$CStringT@DV?$StrTraitMFC_DLL@DV?$ChTraitsCRT@D@ATL@@@@@ATL@@QAE@XZ
  00017	cc		 int	 3
  00018	cc		 int	 3
  00019	cc		 int	 3
  0001a	cc		 int	 3
  0001b	cc		 int	 3
__ehhandler$??0CDlgConfirm@@QAE@PAVCWnd@@@Z:
  0001c	90		 npad	 1
  0001d	90		 npad	 1
  0001e	8b 54 24 08	 mov	 edx, DWORD PTR [esp+8]
  00022	8d 42 0c	 lea	 eax, DWORD PTR [edx+12]
  00025	8b 4a f0	 mov	 ecx, DWORD PTR [edx-16]
  00028	33 c8		 xor	 ecx, eax
  0002a	e8 00 00 00 00	 call	 @__security_check_cookie@4
  0002f	b8 00 00 00 00	 mov	 eax, OFFSET __ehfuncinfo$??0CDlgConfirm@@QAE@PAVCWnd@@@Z
  00034	e9 00 00 00 00	 jmp	 ___CxxFrameHandler3
text$x	ENDS
??0CDlgConfirm@@QAE@PAVCWnd@@@Z ENDP			; CDlgConfirm::CDlgConfirm
; Function compile flags: /Ogtp
; File C:\Program Files (x86)\Microsoft Visual Studio\2019\Community\VC\Tools\MSVC\14.29.30133\atlmfc\include\afx.inl
;	COMDAT ??_GCListBox@@UAEPAXI@Z
_TEXT	SEGMENT
___flags$ = 8						; size = 4
??_GCListBox@@UAEPAXI@Z PROC				; CListBox::`scalar deleting destructor', COMDAT
; _this$ = ecx
  00000	55		 push	 ebp
  00001	8b ec		 mov	 ebp, esp
  00003	56		 push	 esi
  00004	8b f1		 mov	 esi, ecx
  00006	e8 00 00 00 00	 call	 ??1CListBox@@UAE@XZ	; CListBox::~CListBox
  0000b	8b 45 08	 mov	 eax, DWORD PTR ___flags$[ebp]
  0000e	a8 01		 test	 al, 1
  00010	74 22		 je	 SHORT $LN9@scalar
  00012	a8 04		 test	 al, 4
  00014	75 10		 jne	 SHORT $LN3@scalar

; 112  : 	{ ::operator delete(p); }

  00016	56		 push	 esi
  00017	e8 00 00 00 00	 call	 ??3@YAXPAX@Z		; operator delete
  0001c	83 c4 04	 add	 esp, 4
  0001f	8b c6		 mov	 eax, esi
  00021	5e		 pop	 esi
  00022	5d		 pop	 ebp
  00023	c2 04 00	 ret	 4
$LN3@scalar:
  00026	68 80 00 00 00	 push	 128			; 00000080H
  0002b	56		 push	 esi
  0002c	e8 00 00 00 00	 call	 ?__global_delete@@YAXPAXI@Z ; __global_delete
  00031	83 c4 08	 add	 esp, 8
$LN9@scalar:
  00034	8b c6		 mov	 eax, esi
  00036	5e		 pop	 esi
  00037	5d		 pop	 ebp
  00038	c2 04 00	 ret	 4
??_GCListBox@@UAEPAXI@Z ENDP				; CListBox::`scalar deleting destructor'
_TEXT	ENDS
; Function compile flags: /Ogtp
; File C:\Program Files (x86)\Microsoft Visual Studio\2019\Community\VC\Tools\MSVC\14.29.30133\atlmfc\include\afxwin2.inl
;	COMDAT ?Create@CDialog@@UAEHIPAVCWnd@@@Z
_TEXT	SEGMENT
_nIDTemplate$ = 8					; size = 4
_pParentWnd$ = 12					; size = 4
?Create@CDialog@@UAEHIPAVCWnd@@@Z PROC			; CDialog::Create, COMDAT
; _this$ = ecx

; 585  : 	{ return CDialog::Create(ATL_MAKEINTRESOURCE(nIDTemplate), pParentWnd); }

  00000	55		 push	 ebp
  00001	8b ec		 mov	 ebp, esp
  00003	0f b7 45 08	 movzx	 eax, WORD PTR _nIDTemplate$[ebp]
  00007	89 45 08	 mov	 DWORD PTR _nIDTemplate$[ebp], eax
  0000a	5d		 pop	 ebp
  0000b	e9 00 00 00 00	 jmp	 ?Create@CDialog@@UAEHPBDPAVCWnd@@@Z ; CDialog::Create
?Create@CDialog@@UAEHIPAVCWnd@@@Z ENDP			; CDialog::Create
_TEXT	ENDS
; Function compile flags: /Ogtp
; File C:\Program Files (x86)\Microsoft Visual Studio\2019\Community\VC\Tools\MSVC\14.29.30133\atlmfc\include\afxwin2.inl
;	COMDAT ?EndModalState@CWnd@@UAEXXZ
_TEXT	SEGMENT
?EndModalState@CWnd@@UAEXXZ PROC			; CWnd::EndModalState, COMDAT
; _this$ = ecx

; 567  : 	{ ::EnableWindow(m_hWnd, TRUE); }

  00000	6a 01		 push	 1
  00002	ff 71 20	 push	 DWORD PTR [ecx+32]
  00005	ff 15 00 00 00
	00		 call	 DWORD PTR __imp__EnableWindow@8
  0000b	c3		 ret	 0
?EndModalState@CWnd@@UAEXXZ ENDP			; CWnd::EndModalState
_TEXT	ENDS
; Function compile flags: /Ogtp
; File C:\Program Files (x86)\Microsoft Visual Studio\2019\Community\VC\Tools\MSVC\14.29.30133\atlmfc\include\afxwin2.inl
;	COMDAT ?BeginModalState@CWnd@@UAEXXZ
_TEXT	SEGMENT
?BeginModalState@CWnd@@UAEXXZ PROC			; CWnd::BeginModalState, COMDAT
; _this$ = ecx

; 565  : 	{ ::EnableWindow(m_hWnd, FALSE); }

  00000	6a 00		 push	 0
  00002	ff 71 20	 push	 DWORD PTR [ecx+32]
  00005	ff 15 00 00 00
	00		 call	 DWORD PTR __imp__EnableWindow@8
  0000b	c3		 ret	 0
?BeginModalState@CWnd@@UAEXXZ ENDP			; CWnd::BeginModalState
_TEXT	ENDS
; Function compile flags: /Ogtp
; File C:\Program Files (x86)\Microsoft Visual Studio\2019\Community\VC\Tools\MSVC\14.29.30133\atlmfc\include\afxwin2.inl
;	COMDAT ?DoDataExchange@CWnd@@MAEXPAVCDataExchange@@@Z
_TEXT	SEGMENT
___formal$ = 8						; size = 4
?DoDataExchange@CWnd@@MAEXPAVCDataExchange@@@Z PROC	; CWnd::DoDataExchange, COMDAT
; _this$ = ecx

; 561  : 	{ } // default does nothing

  00000	c2 04 00	 ret	 4
?DoDataExchange@CWnd@@MAEXPAVCDataExchange@@@Z ENDP	; CWnd::DoDataExchange
_TEXT	ENDS
; Function compile flags: /Ogtp
; File C:\Program Files (x86)\Microsoft Visual Studio\2019\Community\VC\Tools\MSVC\14.29.30133\atlmfc\include\afx.inl
;	COMDAT ?Dump@CObject@@UBEXAAVCDumpContext@@@Z
_TEXT	SEGMENT
___formal$ = 8						; size = 4
?Dump@CObject@@UBEXAAVCDumpContext@@@Z PROC		; CObject::Dump, COMDAT
; _this$ = ecx

; 122  : 	{ /* no dumping in release builds */ }

  00000	c2 04 00	 ret	 4
?Dump@CObject@@UBEXAAVCDumpContext@@@Z ENDP		; CObject::Dump
_TEXT	ENDS
; Function compile flags: /Ogtp
; File C:\Program Files (x86)\Microsoft Visual Studio\2019\Community\VC\Tools\MSVC\14.29.30133\atlmfc\include\afx.inl
;	COMDAT ?AssertValid@CObject@@UBEXXZ
_TEXT	SEGMENT
?AssertValid@CObject@@UBEXXZ PROC			; CObject::AssertValid, COMDAT
; _this$ = ecx

; 120  : 	{ /* no asserts in release builds */ }

  00000	c2 00 00	 ret	 0
?AssertValid@CObject@@UBEXXZ ENDP			; CObject::AssertValid
_TEXT	ENDS
; Function compile flags: /Ogtp
; File C:\Program Files (x86)\Microsoft Visual Studio\2019\Community\VC\Tools\MSVC\14.29.30133\atlmfc\include\afx.inl
;	COMDAT ?Serialize@CObject@@UAEXAAVCArchive@@@Z
_TEXT	SEGMENT
___formal$ = 8						; size = 4
?Serialize@CObject@@UAEXAAVCArchive@@@Z PROC		; CObject::Serialize, COMDAT
; _this$ = ecx

; 106  : 	{ /* CObject does not serialize anything by default */ }

  00000	c2 04 00	 ret	 4
?Serialize@CObject@@UAEXAAVCArchive@@@Z ENDP		; CObject::Serialize
_TEXT	ENDS
; Function compile flags: /Ogtp
; File C:\Program Files (x86)\Microsoft Visual Studio\2019\Community\VC\Tools\MSVC\14.29.30133\atlmfc\include\afx.inl
;	COMDAT ??1CObject@@UAE@XZ
_TEXT	SEGMENT
??1CObject@@UAE@XZ PROC					; CObject::~CObject, COMDAT
; _this$ = ecx

; 104  : 	{ }

  00000	c2 00 00	 ret	 0
??1CObject@@UAE@XZ ENDP					; CObject::~CObject
_TEXT	ENDS
; Function compile flags: /Ogtp
; File D:\git\src\IBK\IBK_DRFN\ProjSrc\SrcChartEx\ChartAddIn\ChartPeriodSummaryAddIn\DlgConfirm.cpp
;	COMDAT ?__empty_global_delete@@YAXPAXI@Z
_TEXT	SEGMENT
___formal$ = 8						; size = 4
___formal$ = 12						; size = 4
?__empty_global_delete@@YAXPAXI@Z PROC			; __empty_global_delete, COMDAT

  00000	c2 00 00	 ret	 0
?__empty_global_delete@@YAXPAXI@Z ENDP			; __empty_global_delete
_TEXT	ENDS
; Function compile flags: /Ogtp
; File D:\git\src\IBK\IBK_DRFN\ProjSrc\SrcChartEx\ChartAddIn\ChartPeriodSummaryAddIn\DlgConfirm.cpp
;	COMDAT ?__empty_global_delete@@YAXPAX@Z
_TEXT	SEGMENT
___formal$ = 8						; size = 4
?__empty_global_delete@@YAXPAX@Z PROC			; __empty_global_delete, COMDAT

  00000	c2 00 00	 ret	 0
?__empty_global_delete@@YAXPAX@Z ENDP			; __empty_global_delete
_TEXT	ENDS
END
