; Listing generated by Microsoft (R) Optimizing Compiler Version 19.29.30145.0 

	TITLE	D:\git\src\IBK\IBK_DRFN\#DRfn-CS\_Obj\ChartPeriodSummaryAddIn\OrderLineManDlg.obj
	.686P
	.XMM
	include listing.inc
	.model	flat

INCLUDELIB MSVCRT
INCLUDELIB OLDNAMES

PUBLIC	?__empty_global_delete@@YAXPAX@Z		; __empty_global_delete
PUBLIC	?__empty_global_delete@@YAXPAXI@Z		; __empty_global_delete
PUBLIC	?Serialize@CObject@@UAEXAAVCArchive@@@Z		; CObject::Serialize
PUBLIC	?AssertValid@CObject@@UBEXXZ			; CObject::AssertValid
PUBLIC	?Dump@CObject@@UBEXAAVCDumpContext@@@Z		; CObject::Dump
PUBLIC	??HATL@@YA?AV?$CStringT@DV?$StrTraitMFC_DLL@DV?$ChTraitsCRT@D@ATL@@@@@0@ABV10@PBD@Z ; ATL::operator+
PUBLIC	?DoDataExchange@CWnd@@MAEXPAVCDataExchange@@@Z	; CWnd::DoDataExchange
PUBLIC	?BeginModalState@CWnd@@UAEXXZ			; CWnd::BeginModalState
PUBLIC	?EndModalState@CWnd@@UAEXXZ			; CWnd::EndModalState
PUBLIC	?Create@CDialog@@UAEHIPAVCWnd@@@Z		; CDialog::Create
PUBLIC	??_GCListCtrl@@UAEPAXI@Z			; CListCtrl::`scalar deleting destructor'
PUBLIC	?RemoveLIneFromObList@COrderLineManDlg@@QAEXV?$CStringT@DV?$StrTraitMFC_DLL@DV?$ChTraitsCRT@D@ATL@@@@@ATL@@@Z ; COrderLineManDlg::RemoveLIneFromObList
PUBLIC	?FindListItem@COrderLineManDlg@@QAEHV?$CStringT@DV?$StrTraitMFC_DLL@DV?$ChTraitsCRT@D@ATL@@@@@ATL@@@Z ; COrderLineManDlg::FindListItem
PUBLIC	?TokenizeEx@COrderLineManDlg@@QAE?AV?$CStringT@DV?$StrTraitMFC_DLL@DV?$ChTraitsCRT@D@ATL@@@@@ATL@@V23@PBDAAH@Z ; COrderLineManDlg::TokenizeEx
PUBLIC	??0COrderLineManDlg@@QAE@PAVCWnd@@@Z		; COrderLineManDlg::COrderLineManDlg
PUBLIC	?DoDataExchange@COrderLineManDlg@@MAEXPAVCDataExchange@@@Z ; COrderLineManDlg::DoDataExchange
PUBLIC	?OnInitDialog@COrderLineManDlg@@MAEHXZ		; COrderLineManDlg::OnInitDialog
PUBLIC	?OnBtnDel@COrderLineManDlg@@IAEXXZ		; COrderLineManDlg::OnBtnDel
PUBLIC	?OnKeyDown@COrderLineManDlg@@IAEXIII@Z		; COrderLineManDlg::OnKeyDown
PUBLIC	?OnKeydownList@COrderLineManDlg@@IAEXPAUtagNMHDR@@PAJ@Z ; COrderLineManDlg::OnKeydownList
PUBLIC	?GetThisMessageMap@COrderLineManDlg@@KGPBUAFX_MSGMAP@@XZ ; COrderLineManDlg::GetThisMessageMap
PUBLIC	?GetMessageMap@COrderLineManDlg@@MBEPBUAFX_MSGMAP@@XZ ; COrderLineManDlg::GetMessageMap
PUBLIC	??_GCOrderLineManDlg@@UAEPAXI@Z			; COrderLineManDlg::`scalar deleting destructor'
PUBLIC	??_C@_02DPKJAMEF@?$CFd@				; `string'
PUBLIC	??_C@_00CNPNBAHC@@				; `string'
PUBLIC	??_7CListCtrl@@6B@				; CListCtrl::`vftable'
PUBLIC	??_R0?AVCObject@@@8				; CObject `RTTI Type Descriptor'
PUBLIC	??_R3CObject@@8					; CObject::`RTTI Class Hierarchy Descriptor'
PUBLIC	??_R2CObject@@8					; CObject::`RTTI Base Class Array'
PUBLIC	??_R1A@?0A@EA@CObject@@8			; CObject::`RTTI Base Class Descriptor at (0,-1,0,64)'
PUBLIC	??_R1A@?0A@EA@CWnd@@8				; CWnd::`RTTI Base Class Descriptor at (0,-1,0,64)'
PUBLIC	??_R0?AVCWnd@@@8				; CWnd `RTTI Type Descriptor'
PUBLIC	??_R3CWnd@@8					; CWnd::`RTTI Class Hierarchy Descriptor'
PUBLIC	??_R2CWnd@@8					; CWnd::`RTTI Base Class Array'
PUBLIC	??_R1A@?0A@EA@CCmdTarget@@8			; CCmdTarget::`RTTI Base Class Descriptor at (0,-1,0,64)'
PUBLIC	??_R0?AVCCmdTarget@@@8				; CCmdTarget `RTTI Type Descriptor'
PUBLIC	??_R3CCmdTarget@@8				; CCmdTarget::`RTTI Class Hierarchy Descriptor'
PUBLIC	??_R2CCmdTarget@@8				; CCmdTarget::`RTTI Base Class Array'
PUBLIC	??_R1A@?0A@EA@CDialog@@8			; CDialog::`RTTI Base Class Descriptor at (0,-1,0,64)'
PUBLIC	??_R0?AVCDialog@@@8				; CDialog `RTTI Type Descriptor'
PUBLIC	??_R3CDialog@@8					; CDialog::`RTTI Class Hierarchy Descriptor'
PUBLIC	??_R2CDialog@@8					; CDialog::`RTTI Base Class Array'
PUBLIC	??_R4CListCtrl@@6B@				; CListCtrl::`RTTI Complete Object Locator'
PUBLIC	??_R0?AVCListCtrl@@@8				; CListCtrl `RTTI Type Descriptor'
PUBLIC	??_R3CListCtrl@@8				; CListCtrl::`RTTI Class Hierarchy Descriptor'
PUBLIC	??_R2CListCtrl@@8				; CListCtrl::`RTTI Base Class Array'
PUBLIC	??_R1A@?0A@EA@CListCtrl@@8			; CListCtrl::`RTTI Base Class Descriptor at (0,-1,0,64)'
PUBLIC	??_7COrderLineManDlg@@6B@			; COrderLineManDlg::`vftable'
PUBLIC	??_C@_02NFLNFON@NO@				; `string'
PUBLIC	??_C@_01IHBHIGKO@?0@				; `string'
PUBLIC	??_C@_0O@FOJMFFPA@OrderLine?4cfg@		; `string'
PUBLIC	??_R4COrderLineManDlg@@6B@			; COrderLineManDlg::`RTTI Complete Object Locator'
PUBLIC	??_R0?AVCOrderLineManDlg@@@8			; COrderLineManDlg `RTTI Type Descriptor'
PUBLIC	??_R3COrderLineManDlg@@8			; COrderLineManDlg::`RTTI Class Hierarchy Descriptor'
PUBLIC	??_R2COrderLineManDlg@@8			; COrderLineManDlg::`RTTI Base Class Array'
PUBLIC	??_R1A@?0A@EA@COrderLineManDlg@@8		; COrderLineManDlg::`RTTI Base Class Descriptor at (0,-1,0,64)'
EXTRN	??3@YAXPAX@Z:PROC				; operator delete
EXTRN	?__global_delete@@YAXPAXI@Z:PROC		; __global_delete
EXTRN	__imp__SendMessageA@16:PROC
EXTRN	__imp__EnableWindow@8:PROC
EXTRN	__imp__atoi:PROC
EXTRN	?AfxThrowInvalidArgException@@YGXXZ:PROC	; AfxThrowInvalidArgException
EXTRN	__imp_?Concatenate@?$CSimpleStringT@D$00@ATL@@KAXAAV12@PBDH1H@Z:PROC
EXTRN	__imp_??0?$CStringT@DV?$StrTraitMFC_DLL@DV?$ChTraitsCRT@D@ATL@@@@@ATL@@QAE@XZ:PROC
EXTRN	__imp_??0?$CStringT@DV?$StrTraitMFC_DLL@DV?$ChTraitsCRT@D@ATL@@@@@ATL@@QAE@PAUIAtlStringMgr@1@@Z:PROC
EXTRN	__imp_??0?$CStringT@DV?$StrTraitMFC_DLL@DV?$ChTraitsCRT@D@ATL@@@@@ATL@@QAE@ABV01@@Z:PROC
EXTRN	__imp_??0?$CStringT@DV?$StrTraitMFC_DLL@DV?$ChTraitsCRT@D@ATL@@@@@ATL@@QAE@PBD@Z:PROC
EXTRN	__imp_??1?$CStringT@DV?$StrTraitMFC_DLL@DV?$ChTraitsCRT@D@ATL@@@@@ATL@@QAE@XZ:PROC
EXTRN	__imp_??4?$CStringT@DV?$StrTraitMFC_DLL@DV?$ChTraitsCRT@D@ATL@@@@@ATL@@QAEAAV01@ABV01@@Z:PROC
EXTRN	__imp_??Y?$CStringT@DV?$StrTraitMFC_DLL@DV?$ChTraitsCRT@D@ATL@@@@@ATL@@QAEAAV01@PBD@Z:PROC
EXTRN	__imp_?GetManager@?$CStringT@DV?$StrTraitMFC_DLL@DV?$ChTraitsCRT@D@ATL@@@@@ATL@@QBEPAUIAtlStringMgr@2@XZ:PROC
EXTRN	__imp_?Compare@?$CStringT@DV?$StrTraitMFC_DLL@DV?$ChTraitsCRT@D@ATL@@@@@ATL@@QBEHPBD@Z:PROC
EXTRN	__imp_?Delete@?$CStringT@DV?$StrTraitMFC_DLL@DV?$ChTraitsCRT@D@ATL@@@@@ATL@@QAEHHH@Z:PROC
EXTRN	__imp_?Find@?$CStringT@DV?$StrTraitMFC_DLL@DV?$ChTraitsCRT@D@ATL@@@@@ATL@@QBEHPBDH@Z:PROC
EXTRN	__imp_?Mid@?$CStringT@DV?$StrTraitMFC_DLL@DV?$ChTraitsCRT@D@ATL@@@@@ATL@@QBE?AV12@HH@Z:PROC
EXTRN	__imp_?Format@?$CStringT@DV?$StrTraitMFC_DLL@DV?$ChTraitsCRT@D@ATL@@@@@ATL@@QAAXPBDZZ:PROC
EXTRN	__imp_?LoadStringA@?$CStringT@DV?$StrTraitMFC_DLL@DV?$ChTraitsCRT@D@ATL@@@@@ATL@@QAEHI@Z:PROC
EXTRN	??0CFile@@QAE@XZ:PROC				; CFile::CFile
EXTRN	?Open@CFile@@UAEHPBDIPAVCFileException@@@Z:PROC	; CFile::Open
EXTRN	??1CFile@@UAE@XZ:PROC				; CFile::~CFile
EXTRN	??0CArchive@@QAE@PAVCFile@@IHPAX@Z:PROC		; CArchive::CArchive
EXTRN	??1CArchive@@QAE@XZ:PROC			; CArchive::~CArchive
EXTRN	?RemoveAt@CObList@@QAEXPAU__POSITION@@@Z:PROC	; CObList::RemoveAt
EXTRN	?RemoveAt@CStringList@@QAEXPAU__POSITION@@@Z:PROC ; CStringList::RemoveAt
EXTRN	?Serialize@CStringList@@UAEXAAVCArchive@@@Z:PROC ; CStringList::Serialize
EXTRN	?DDX_Control@@YGXPAVCDataExchange@@HAAVCWnd@@@Z:PROC ; DDX_Control
EXTRN	?OnCmdMsg@CCmdTarget@@UAEHIHPAXPAUAFX_CMDHANDLERINFO@@@Z:PROC ; CCmdTarget::OnCmdMsg
EXTRN	?IsInvokeAllowed@CCmdTarget@@UAEHJ@Z:PROC	; CCmdTarget::IsInvokeAllowed
EXTRN	?GetDispatchIID@CCmdTarget@@UAEHPAU_GUID@@@Z:PROC ; CCmdTarget::GetDispatchIID
EXTRN	?GetTypeInfoCount@CCmdTarget@@UAEIXZ:PROC	; CCmdTarget::GetTypeInfoCount
EXTRN	?GetTypeLibCache@CCmdTarget@@UAEPAVCTypeLibCache@@XZ:PROC ; CCmdTarget::GetTypeLibCache
EXTRN	?GetTypeLib@CCmdTarget@@UAEJKPAPAUITypeLib@@@Z:PROC ; CCmdTarget::GetTypeLib
EXTRN	?GetCommandMap@CCmdTarget@@MBEPBUAFX_OLECMDMAP@@XZ:PROC ; CCmdTarget::GetCommandMap
EXTRN	?GetDispatchMap@CCmdTarget@@MBEPBUAFX_DISPMAP@@XZ:PROC ; CCmdTarget::GetDispatchMap
EXTRN	?GetConnectionMap@CCmdTarget@@MBEPBUAFX_CONNECTIONMAP@@XZ:PROC ; CCmdTarget::GetConnectionMap
EXTRN	?GetEventSinkMap@CCmdTarget@@MBEPBUAFX_EVENTSINKMAP@@XZ:PROC ; CCmdTarget::GetEventSinkMap
EXTRN	?OnCreateAggregates@CCmdTarget@@UAEHXZ:PROC	; CCmdTarget::OnCreateAggregates
EXTRN	?GetInterfaceHook@CCmdTarget@@UAEPAUIUnknown@@PBX@Z:PROC ; CCmdTarget::GetInterfaceHook
EXTRN	?GetExtraConnectionPoints@CCmdTarget@@MAEHPAVCPtrArray@@@Z:PROC ; CCmdTarget::GetExtraConnectionPoints
EXTRN	?GetConnectionHook@CCmdTarget@@MAEPAUIConnectionPoint@@ABU_GUID@@@Z:PROC ; CCmdTarget::GetConnectionHook
EXTRN	??0CWnd@@QAE@XZ:PROC				; CWnd::CWnd
EXTRN	?PreSubclassWindow@CWnd@@UAEXXZ:PROC		; CWnd::PreSubclassWindow
EXTRN	?Create@CWnd@@UAEHPBD0KABUtagRECT@@PAV1@IPAUCCreateContext@@@Z:PROC ; CWnd::Create
EXTRN	?CreateEx@CWnd@@UAEHKPBD0KHHHHPAUHWND__@@PAUHMENU__@@PAX@Z:PROC ; CWnd::CreateEx
EXTRN	?CreateEx@CWnd@@UAEHKPBD0KABUtagRECT@@PAV1@IPAX@Z:PROC ; CWnd::CreateEx
EXTRN	?DestroyWindow@CWnd@@UAEHXZ:PROC		; CWnd::DestroyWindow
EXTRN	?PreCreateWindow@CWnd@@UAEHAAUtagCREATESTRUCTA@@@Z:PROC ; CWnd::PreCreateWindow
EXTRN	?CalcWindowRect@CWnd@@UAEXPAUtagRECT@@I@Z:PROC	; CWnd::CalcWindowRect
EXTRN	?GetMenu@CWnd@@UBEPAVCMenu@@XZ:PROC		; CWnd::GetMenu
EXTRN	?SetMenu@CWnd@@UAEHPAVCMenu@@@Z:PROC		; CWnd::SetMenu
EXTRN	?OnToolHitTest@CWnd@@UBEHVCPoint@@PAUtagTOOLINFOA@@@Z:PROC ; CWnd::OnToolHitTest
EXTRN	?GetScrollBarCtrl@CWnd@@UBEPAVCScrollBar@@H@Z:PROC ; CWnd::GetScrollBarCtrl
EXTRN	?WinHelpA@CWnd@@UAEXKI@Z:PROC			; CWnd::WinHelpA
EXTRN	?HtmlHelpA@CWnd@@UAEXKI@Z:PROC			; CWnd::HtmlHelpA
EXTRN	?WinHelpInternal@CWnd@@UAEXKI@Z:PROC		; CWnd::WinHelpInternal
EXTRN	?ContinueModal@CWnd@@UAEHXZ:PROC		; CWnd::ContinueModal
EXTRN	?EndModalLoop@CWnd@@UAEXH@Z:PROC		; CWnd::EndModalLoop
EXTRN	?OnDrawIconicThumbnailOrLivePreview@CWnd@@UAEXAAVCDC@@VCRect@@VCSize@@HAAH@Z:PROC ; CWnd::OnDrawIconicThumbnailOrLivePreview
EXTRN	?GetInterfaceMap@CWnd@@MBEPBUAFX_INTERFACEMAP@@XZ:PROC ; CWnd::GetInterfaceMap
EXTRN	?EnsureStdObj@CWnd@@UAEJXZ:PROC			; CWnd::EnsureStdObj
EXTRN	?get_accParent@CWnd@@UAEJPAPAUIDispatch@@@Z:PROC ; CWnd::get_accParent
EXTRN	?get_accChildCount@CWnd@@UAEJPAJ@Z:PROC		; CWnd::get_accChildCount
EXTRN	?get_accChild@CWnd@@UAEJUtagVARIANT@@PAPAUIDispatch@@@Z:PROC ; CWnd::get_accChild
EXTRN	?get_accName@CWnd@@UAEJUtagVARIANT@@PAPA_W@Z:PROC ; CWnd::get_accName
EXTRN	?get_accValue@CWnd@@UAEJUtagVARIANT@@PAPA_W@Z:PROC ; CWnd::get_accValue
EXTRN	?get_accDescription@CWnd@@UAEJUtagVARIANT@@PAPA_W@Z:PROC ; CWnd::get_accDescription
EXTRN	?get_accRole@CWnd@@UAEJUtagVARIANT@@PAU2@@Z:PROC ; CWnd::get_accRole
EXTRN	?get_accState@CWnd@@UAEJUtagVARIANT@@PAU2@@Z:PROC ; CWnd::get_accState
EXTRN	?get_accHelp@CWnd@@UAEJUtagVARIANT@@PAPA_W@Z:PROC ; CWnd::get_accHelp
EXTRN	?get_accHelpTopic@CWnd@@UAEJPAPA_WUtagVARIANT@@PAJ@Z:PROC ; CWnd::get_accHelpTopic
EXTRN	?get_accKeyboardShortcut@CWnd@@UAEJUtagVARIANT@@PAPA_W@Z:PROC ; CWnd::get_accKeyboardShortcut
EXTRN	?get_accFocus@CWnd@@UAEJPAUtagVARIANT@@@Z:PROC	; CWnd::get_accFocus
EXTRN	?get_accSelection@CWnd@@UAEJPAUtagVARIANT@@@Z:PROC ; CWnd::get_accSelection
EXTRN	?get_accDefaultAction@CWnd@@UAEJUtagVARIANT@@PAPA_W@Z:PROC ; CWnd::get_accDefaultAction
EXTRN	?accSelect@CWnd@@UAEJJUtagVARIANT@@@Z:PROC	; CWnd::accSelect
EXTRN	?accLocation@CWnd@@UAEJPAJ000UtagVARIANT@@@Z:PROC ; CWnd::accLocation
EXTRN	?accNavigate@CWnd@@UAEJJUtagVARIANT@@PAU2@@Z:PROC ; CWnd::accNavigate
EXTRN	?accHitTest@CWnd@@UAEJJJPAUtagVARIANT@@@Z:PROC	; CWnd::accHitTest
EXTRN	?accDoDefaultAction@CWnd@@UAEJUtagVARIANT@@@Z:PROC ; CWnd::accDoDefaultAction
EXTRN	?put_accName@CWnd@@UAEJUtagVARIANT@@PA_W@Z:PROC	; CWnd::put_accName
EXTRN	?put_accValue@CWnd@@UAEJUtagVARIANT@@PA_W@Z:PROC ; CWnd::put_accValue
EXTRN	?SetProxy@CWnd@@UAEJPAUIAccessibleProxy@@@Z:PROC ; CWnd::SetProxy
EXTRN	?CreateAccessibleProxy@CWnd@@UAEJIJPAJ@Z:PROC	; CWnd::CreateAccessibleProxy
EXTRN	?OnCommand@CWnd@@MAEHIJ@Z:PROC			; CWnd::OnCommand
EXTRN	?OnNotify@CWnd@@MAEHIJPAJ@Z:PROC		; CWnd::OnNotify
EXTRN	?GetSuperWndProcAddr@CWnd@@MAEPAP6GJPAUHWND__@@IIJ@ZXZ:PROC ; CWnd::GetSuperWndProcAddr
EXTRN	?PreTranslateMessage@CWnd@@UAEHPAUtagMSG@@@Z:PROC ; CWnd::PreTranslateMessage
EXTRN	?OnAmbientProperty@CWnd@@UAEHPAVCOleControlSite@@JPAUtagVARIANT@@@Z:PROC ; CWnd::OnAmbientProperty
EXTRN	?WindowProc@CWnd@@MAEJIIJ@Z:PROC		; CWnd::WindowProc
EXTRN	?OnWndMsg@CWnd@@MAEHIIJPAJ@Z:PROC		; CWnd::OnWndMsg
EXTRN	?Default@CWnd@@IAEJXZ:PROC			; CWnd::Default
EXTRN	?DefWindowProcA@CWnd@@MAEJIIJ@Z:PROC		; CWnd::DefWindowProcA
EXTRN	?PostNcDestroy@CWnd@@MAEXXZ:PROC		; CWnd::PostNcDestroy
EXTRN	?OnChildNotify@CWnd@@MAEHIIJPAJ@Z:PROC		; CWnd::OnChildNotify
EXTRN	?OnTouchInputs@CWnd@@MAEHIPAUtagTOUCHINPUT@@@Z:PROC ; CWnd::OnTouchInputs
EXTRN	?OnTouchInput@CWnd@@MAEHVCPoint@@HHPAUtagTOUCHINPUT@@@Z:PROC ; CWnd::OnTouchInput
EXTRN	?GetGestureStatus@CWnd@@MAEKVCPoint@@@Z:PROC	; CWnd::GetGestureStatus
EXTRN	?OnGestureZoom@CWnd@@MAEHVCPoint@@J@Z:PROC	; CWnd::OnGestureZoom
EXTRN	?OnGesturePan@CWnd@@MAEHVCPoint@@0@Z:PROC	; CWnd::OnGesturePan
EXTRN	?OnGestureRotate@CWnd@@MAEHVCPoint@@N@Z:PROC	; CWnd::OnGestureRotate
EXTRN	?OnGestureTwoFingerTap@CWnd@@MAEHVCPoint@@@Z:PROC ; CWnd::OnGestureTwoFingerTap
EXTRN	?OnGesturePressAndTap@CWnd@@MAEHVCPoint@@J@Z:PROC ; CWnd::OnGesturePressAndTap
EXTRN	?ResizeDynamicLayout@CWnd@@MAEXXZ:PROC		; CWnd::ResizeDynamicLayout
EXTRN	?CheckAutoCenter@CWnd@@UAEHXZ:PROC		; CWnd::CheckAutoCenter
EXTRN	?IsFrameWnd@CWnd@@UBEHXZ:PROC			; CWnd::IsFrameWnd
EXTRN	?OnFinalRelease@CWnd@@UAEXXZ:PROC		; CWnd::OnFinalRelease
EXTRN	?CreateControlContainer@CWnd@@MAEHPAPAVCOleControlContainer@@@Z:PROC ; CWnd::CreateControlContainer
EXTRN	?CreateControlSite@CWnd@@MAEHPAVCOleControlContainer@@PAPAVCOleControlSite@@IABU_GUID@@@Z:PROC ; CWnd::CreateControlSite
EXTRN	?SetOccDialogInfo@CWnd@@MAEHPAU_AFX_OCC_DIALOG_INFO@@@Z:PROC ; CWnd::SetOccDialogInfo
EXTRN	?GetOccDialogInfo@CWnd@@MAEPAU_AFX_OCC_DIALOG_INFO@@XZ:PROC ; CWnd::GetOccDialogInfo
EXTRN	?GetRuntimeClass@CDialog@@UBEPAUCRuntimeClass@@XZ:PROC ; CDialog::GetRuntimeClass
EXTRN	?Create@CDialog@@UAEHPBDPAVCWnd@@@Z:PROC	; CDialog::Create
EXTRN	?CreateIndirect@CDialog@@UAEHPBUDLGTEMPLATE@@PAVCWnd@@PAX@Z:PROC ; CDialog::CreateIndirect
EXTRN	?CreateIndirect@CDialog@@UAEHPAXPAVCWnd@@@Z:PROC ; CDialog::CreateIndirect
EXTRN	??0CDialog@@QAE@IPAVCWnd@@@Z:PROC		; CDialog::CDialog
EXTRN	?DoModal@CDialog@@UAEHXZ:PROC			; CDialog::DoModal
EXTRN	?OnInitDialog@CDialog@@UAEHXZ:PROC		; CDialog::OnInitDialog
EXTRN	?OnSetFont@CDialog@@UAEXPAVCFont@@@Z:PROC	; CDialog::OnSetFont
EXTRN	?OnOK@CDialog@@MAEXXZ:PROC			; CDialog::OnOK
EXTRN	?OnCancel@CDialog@@MAEXXZ:PROC			; CDialog::OnCancel
EXTRN	??1CDialog@@UAE@XZ:PROC				; CDialog::~CDialog
EXTRN	?PreTranslateMessage@CDialog@@UAEHPAUtagMSG@@@Z:PROC ; CDialog::PreTranslateMessage
EXTRN	?OnCmdMsg@CDialog@@UAEHIHPAXPAUAFX_CMDHANDLERINFO@@@Z:PROC ; CDialog::OnCmdMsg
EXTRN	?CheckAutoCenter@CDialog@@UAEHXZ:PROC		; CDialog::CheckAutoCenter
EXTRN	?SetOccDialogInfo@CDialog@@MAEHPAU_AFX_OCC_DIALOG_INFO@@@Z:PROC ; CDialog::SetOccDialogInfo
EXTRN	?GetOccDialogInfo@CDialog@@MAEPAU_AFX_OCC_DIALOG_INFO@@XZ:PROC ; CDialog::GetOccDialogInfo
EXTRN	?PreInitDialog@CDialog@@MAEXXZ:PROC		; CDialog::PreInitDialog
EXTRN	?GetThisMessageMap@CDialog@@KGPBUAFX_MSGMAP@@XZ:PROC ; CDialog::GetThisMessageMap
EXTRN	?GetRuntimeClass@CListCtrl@@UBEPAUCRuntimeClass@@XZ:PROC ; CListCtrl::GetRuntimeClass
EXTRN	?GetItemText@CListCtrl@@QBE?AV?$CStringT@DV?$StrTraitMFC_DLL@DV?$ChTraitsCRT@D@ATL@@@@@ATL@@HH@Z:PROC ; CListCtrl::GetItemText
EXTRN	?SetItemText@CListCtrl@@QAEHHHPBD@Z:PROC	; CListCtrl::SetItemText
EXTRN	?InsertColumn@CListCtrl@@QAEHHPBDHHH@Z:PROC	; CListCtrl::InsertColumn
EXTRN	?DrawItem@CListCtrl@@UAEXPAUtagDRAWITEMSTRUCT@@@Z:PROC ; CListCtrl::DrawItem
EXTRN	?InsertItem@CListCtrl@@QAEHIHPBDIIHJ@Z:PROC	; CListCtrl::InsertItem
EXTRN	??1CListCtrl@@UAE@XZ:PROC			; CListCtrl::~CListCtrl
EXTRN	?OnChildNotify@CListCtrl@@MAEHIIJPAJ@Z:PROC	; CListCtrl::OnChildNotify
EXTRN	?GetMessageMap@CListCtrl@@MBEPBUAFX_MSGMAP@@XZ:PROC ; CListCtrl::GetMessageMap
EXTRN	??_ECListCtrl@@UAEPAXI@Z:PROC			; CListCtrl::`vector deleting destructor'
EXTRN	??_ECOrderLineManDlg@@UAEPAXI@Z:PROC		; COrderLineManDlg::`vector deleting destructor'
EXTRN	@__security_check_cookie@4:PROC
EXTRN	___CxxFrameHandler3:PROC
EXTRN	??_7type_info@@6B@:QWORD			; type_info::`vftable'
EXTRN	?m_slSavedOrderLines@CChartOrderLineAddInImp@@2VCStringList@@A:BYTE ; CChartOrderLineAddInImp::m_slSavedOrderLines
EXTRN	?m_alOrderLineAddInManager@CChartOrderLineAddInImp@@2V?$CTypedPtrList@VCObList@@PAVCChartOrderLineAddInImp@@@@A:BYTE ; CChartOrderLineAddInImp::m_alOrderLineAddInManager
EXTRN	___security_cookie:DWORD
;	COMDAT ??_R1A@?0A@EA@COrderLineManDlg@@8
rdata$r	SEGMENT
??_R1A@?0A@EA@COrderLineManDlg@@8 DD FLAT:??_R0?AVCOrderLineManDlg@@@8 ; COrderLineManDlg::`RTTI Base Class Descriptor at (0,-1,0,64)'
	DD	04H
	DD	00H
	DD	0ffffffffH
	DD	00H
	DD	040H
	DD	FLAT:??_R3COrderLineManDlg@@8
rdata$r	ENDS
;	COMDAT ??_R2COrderLineManDlg@@8
rdata$r	SEGMENT
??_R2COrderLineManDlg@@8 DD FLAT:??_R1A@?0A@EA@COrderLineManDlg@@8 ; COrderLineManDlg::`RTTI Base Class Array'
	DD	FLAT:??_R1A@?0A@EA@CDialog@@8
	DD	FLAT:??_R1A@?0A@EA@CWnd@@8
	DD	FLAT:??_R1A@?0A@EA@CCmdTarget@@8
	DD	FLAT:??_R1A@?0A@EA@CObject@@8
rdata$r	ENDS
;	COMDAT ??_R3COrderLineManDlg@@8
rdata$r	SEGMENT
??_R3COrderLineManDlg@@8 DD 00H				; COrderLineManDlg::`RTTI Class Hierarchy Descriptor'
	DD	00H
	DD	05H
	DD	FLAT:??_R2COrderLineManDlg@@8
rdata$r	ENDS
;	COMDAT ??_R0?AVCOrderLineManDlg@@@8
data$rs	SEGMENT
??_R0?AVCOrderLineManDlg@@@8 DD FLAT:??_7type_info@@6B@	; COrderLineManDlg `RTTI Type Descriptor'
	DD	00H
	DB	'.?AVCOrderLineManDlg@@', 00H
data$rs	ENDS
;	COMDAT ??_R4COrderLineManDlg@@6B@
rdata$r	SEGMENT
??_R4COrderLineManDlg@@6B@ DD 00H			; COrderLineManDlg::`RTTI Complete Object Locator'
	DD	00H
	DD	00H
	DD	FLAT:??_R0?AVCOrderLineManDlg@@@8
	DD	FLAT:??_R3COrderLineManDlg@@8
rdata$r	ENDS
;	COMDAT ??_C@_0O@FOJMFFPA@OrderLine?4cfg@
CONST	SEGMENT
??_C@_0O@FOJMFFPA@OrderLine?4cfg@ DB 'OrderLine.cfg', 00H ; `string'
CONST	ENDS
;	COMDAT ??_C@_01IHBHIGKO@?0@
CONST	SEGMENT
??_C@_01IHBHIGKO@?0@ DB ',', 00H			; `string'
CONST	ENDS
;	COMDAT ??_C@_02NFLNFON@NO@
CONST	SEGMENT
??_C@_02NFLNFON@NO@ DB 'NO', 00H			; `string'
CONST	ENDS
;	COMDAT ?messageMap@?1??GetThisMessageMap@COrderLineManDlg@@KGPBUAFX_MSGMAP@@XZ@4U3@B
CONST	SEGMENT
?messageMap@?1??GetThisMessageMap@COrderLineManDlg@@KGPBUAFX_MSGMAP@@XZ@4U3@B DD FLAT:?GetThisMessageMap@CDialog@@KGPBUAFX_MSGMAP@@XZ ; `COrderLineManDlg::GetThisMessageMap'::`2'::messageMap
	DD	FLAT:?_messageEntries@?1??GetThisMessageMap@COrderLineManDlg@@KGPBUAFX_MSGMAP@@XZ@4QBUAFX_MSGMAP_ENTRY@@B
CONST	ENDS
;	COMDAT ?_messageEntries@?1??GetThisMessageMap@COrderLineManDlg@@KGPBUAFX_MSGMAP@@XZ@4QBUAFX_MSGMAP_ENTRY@@B
CONST	SEGMENT
?_messageEntries@?1??GetThisMessageMap@COrderLineManDlg@@KGPBUAFX_MSGMAP@@XZ@4QBUAFX_MSGMAP_ENTRY@@B DD 0111H ; `COrderLineManDlg::GetThisMessageMap'::`2'::_messageEntries
	DD	00H
	DD	07e8H
	DD	07e8H
	DD	03aH
	DD	FLAT:?OnBtnDel@COrderLineManDlg@@IAEXXZ
	DD	0100H
	DD	00H
	DD	00H
	DD	00H
	DD	019H
	DD	FLAT:?OnKeyDown@COrderLineManDlg@@IAEXIII@Z
	DD	04eH
	DD	0ff65H
	DD	07e9H
	DD	07e9H
	DD	03eH
	DD	FLAT:?OnKeydownList@COrderLineManDlg@@IAEXPAUtagNMHDR@@PAJ@Z
	DD	00H
	DD	00H
	DD	00H
	DD	00H
	DD	00H
	DD	00H
CONST	ENDS
;	COMDAT ??_7COrderLineManDlg@@6B@
CONST	SEGMENT
??_7COrderLineManDlg@@6B@ DD FLAT:??_R4COrderLineManDlg@@6B@ ; COrderLineManDlg::`vftable'
	DD	FLAT:?GetRuntimeClass@CDialog@@UBEPAUCRuntimeClass@@XZ
	DD	FLAT:??_ECOrderLineManDlg@@UAEPAXI@Z
	DD	FLAT:?Serialize@CObject@@UAEXAAVCArchive@@@Z
	DD	FLAT:?AssertValid@CObject@@UBEXXZ
	DD	FLAT:?Dump@CObject@@UBEXAAVCDumpContext@@@Z
	DD	FLAT:?OnCmdMsg@CDialog@@UAEHIHPAXPAUAFX_CMDHANDLERINFO@@@Z
	DD	FLAT:?OnFinalRelease@CWnd@@UAEXXZ
	DD	FLAT:?IsInvokeAllowed@CCmdTarget@@UAEHJ@Z
	DD	FLAT:?GetDispatchIID@CCmdTarget@@UAEHPAU_GUID@@@Z
	DD	FLAT:?GetTypeInfoCount@CCmdTarget@@UAEIXZ
	DD	FLAT:?GetTypeLibCache@CCmdTarget@@UAEPAVCTypeLibCache@@XZ
	DD	FLAT:?GetTypeLib@CCmdTarget@@UAEJKPAPAUITypeLib@@@Z
	DD	FLAT:?GetMessageMap@COrderLineManDlg@@MBEPBUAFX_MSGMAP@@XZ
	DD	FLAT:?GetCommandMap@CCmdTarget@@MBEPBUAFX_OLECMDMAP@@XZ
	DD	FLAT:?GetDispatchMap@CCmdTarget@@MBEPBUAFX_DISPMAP@@XZ
	DD	FLAT:?GetConnectionMap@CCmdTarget@@MBEPBUAFX_CONNECTIONMAP@@XZ
	DD	FLAT:?GetInterfaceMap@CWnd@@MBEPBUAFX_INTERFACEMAP@@XZ
	DD	FLAT:?GetEventSinkMap@CCmdTarget@@MBEPBUAFX_EVENTSINKMAP@@XZ
	DD	FLAT:?OnCreateAggregates@CCmdTarget@@UAEHXZ
	DD	FLAT:?GetInterfaceHook@CCmdTarget@@UAEPAUIUnknown@@PBX@Z
	DD	FLAT:?GetExtraConnectionPoints@CCmdTarget@@MAEHPAVCPtrArray@@@Z
	DD	FLAT:?GetConnectionHook@CCmdTarget@@MAEPAUIConnectionPoint@@ABU_GUID@@@Z
	DD	FLAT:?PreSubclassWindow@CWnd@@UAEXXZ
	DD	FLAT:?Create@CWnd@@UAEHPBD0KABUtagRECT@@PAV1@IPAUCCreateContext@@@Z
	DD	FLAT:?CreateEx@CWnd@@UAEHKPBD0KABUtagRECT@@PAV1@IPAX@Z
	DD	FLAT:?CreateEx@CWnd@@UAEHKPBD0KHHHHPAUHWND__@@PAUHMENU__@@PAX@Z
	DD	FLAT:?DestroyWindow@CWnd@@UAEHXZ
	DD	FLAT:?PreCreateWindow@CWnd@@UAEHAAUtagCREATESTRUCTA@@@Z
	DD	FLAT:?CalcWindowRect@CWnd@@UAEXPAUtagRECT@@I@Z
	DD	FLAT:?GetMenu@CWnd@@UBEPAVCMenu@@XZ
	DD	FLAT:?SetMenu@CWnd@@UAEHPAVCMenu@@@Z
	DD	FLAT:?OnToolHitTest@CWnd@@UBEHVCPoint@@PAUtagTOOLINFOA@@@Z
	DD	FLAT:?GetScrollBarCtrl@CWnd@@UBEPAVCScrollBar@@H@Z
	DD	FLAT:?WinHelpA@CWnd@@UAEXKI@Z
	DD	FLAT:?HtmlHelpA@CWnd@@UAEXKI@Z
	DD	FLAT:?WinHelpInternal@CWnd@@UAEXKI@Z
	DD	FLAT:?ContinueModal@CWnd@@UAEHXZ
	DD	FLAT:?EndModalLoop@CWnd@@UAEXH@Z
	DD	FLAT:?OnDrawIconicThumbnailOrLivePreview@CWnd@@UAEXAAVCDC@@VCRect@@VCSize@@HAAH@Z
	DD	FLAT:?EnsureStdObj@CWnd@@UAEJXZ
	DD	FLAT:?get_accParent@CWnd@@UAEJPAPAUIDispatch@@@Z
	DD	FLAT:?get_accChildCount@CWnd@@UAEJPAJ@Z
	DD	FLAT:?get_accChild@CWnd@@UAEJUtagVARIANT@@PAPAUIDispatch@@@Z
	DD	FLAT:?get_accName@CWnd@@UAEJUtagVARIANT@@PAPA_W@Z
	DD	FLAT:?get_accValue@CWnd@@UAEJUtagVARIANT@@PAPA_W@Z
	DD	FLAT:?get_accDescription@CWnd@@UAEJUtagVARIANT@@PAPA_W@Z
	DD	FLAT:?get_accRole@CWnd@@UAEJUtagVARIANT@@PAU2@@Z
	DD	FLAT:?get_accState@CWnd@@UAEJUtagVARIANT@@PAU2@@Z
	DD	FLAT:?get_accHelp@CWnd@@UAEJUtagVARIANT@@PAPA_W@Z
	DD	FLAT:?get_accHelpTopic@CWnd@@UAEJPAPA_WUtagVARIANT@@PAJ@Z
	DD	FLAT:?get_accKeyboardShortcut@CWnd@@UAEJUtagVARIANT@@PAPA_W@Z
	DD	FLAT:?get_accFocus@CWnd@@UAEJPAUtagVARIANT@@@Z
	DD	FLAT:?get_accSelection@CWnd@@UAEJPAUtagVARIANT@@@Z
	DD	FLAT:?get_accDefaultAction@CWnd@@UAEJUtagVARIANT@@PAPA_W@Z
	DD	FLAT:?accSelect@CWnd@@UAEJJUtagVARIANT@@@Z
	DD	FLAT:?accLocation@CWnd@@UAEJPAJ000UtagVARIANT@@@Z
	DD	FLAT:?accNavigate@CWnd@@UAEJJUtagVARIANT@@PAU2@@Z
	DD	FLAT:?accHitTest@CWnd@@UAEJJJPAUtagVARIANT@@@Z
	DD	FLAT:?accDoDefaultAction@CWnd@@UAEJUtagVARIANT@@@Z
	DD	FLAT:?put_accName@CWnd@@UAEJUtagVARIANT@@PA_W@Z
	DD	FLAT:?put_accValue@CWnd@@UAEJUtagVARIANT@@PA_W@Z
	DD	FLAT:?SetProxy@CWnd@@UAEJPAUIAccessibleProxy@@@Z
	DD	FLAT:?CreateAccessibleProxy@CWnd@@UAEJIJPAJ@Z
	DD	FLAT:?OnCommand@CWnd@@MAEHIJ@Z
	DD	FLAT:?OnNotify@CWnd@@MAEHIJPAJ@Z
	DD	FLAT:?GetSuperWndProcAddr@CWnd@@MAEPAP6GJPAUHWND__@@IIJ@ZXZ
	DD	FLAT:?DoDataExchange@COrderLineManDlg@@MAEXPAVCDataExchange@@@Z
	DD	FLAT:?BeginModalState@CWnd@@UAEXXZ
	DD	FLAT:?EndModalState@CWnd@@UAEXXZ
	DD	FLAT:?PreTranslateMessage@CDialog@@UAEHPAUtagMSG@@@Z
	DD	FLAT:?OnAmbientProperty@CWnd@@UAEHPAVCOleControlSite@@JPAUtagVARIANT@@@Z
	DD	FLAT:?WindowProc@CWnd@@MAEJIIJ@Z
	DD	FLAT:?OnWndMsg@CWnd@@MAEHIIJPAJ@Z
	DD	FLAT:?DefWindowProcA@CWnd@@MAEJIIJ@Z
	DD	FLAT:?PostNcDestroy@CWnd@@MAEXXZ
	DD	FLAT:?OnChildNotify@CWnd@@MAEHIIJPAJ@Z
	DD	FLAT:?OnTouchInputs@CWnd@@MAEHIPAUtagTOUCHINPUT@@@Z
	DD	FLAT:?OnTouchInput@CWnd@@MAEHVCPoint@@HHPAUtagTOUCHINPUT@@@Z
	DD	FLAT:?GetGestureStatus@CWnd@@MAEKVCPoint@@@Z
	DD	FLAT:?OnGestureZoom@CWnd@@MAEHVCPoint@@J@Z
	DD	FLAT:?OnGesturePan@CWnd@@MAEHVCPoint@@0@Z
	DD	FLAT:?OnGestureRotate@CWnd@@MAEHVCPoint@@N@Z
	DD	FLAT:?OnGestureTwoFingerTap@CWnd@@MAEHVCPoint@@@Z
	DD	FLAT:?OnGesturePressAndTap@CWnd@@MAEHVCPoint@@J@Z
	DD	FLAT:?ResizeDynamicLayout@CWnd@@MAEXXZ
	DD	FLAT:?CheckAutoCenter@CDialog@@UAEHXZ
	DD	FLAT:?IsFrameWnd@CWnd@@UBEHXZ
	DD	FLAT:?CreateControlContainer@CWnd@@MAEHPAPAVCOleControlContainer@@@Z
	DD	FLAT:?CreateControlSite@CWnd@@MAEHPAVCOleControlContainer@@PAPAVCOleControlSite@@IABU_GUID@@@Z
	DD	FLAT:?SetOccDialogInfo@CDialog@@MAEHPAU_AFX_OCC_DIALOG_INFO@@@Z
	DD	FLAT:?GetOccDialogInfo@CDialog@@MAEPAU_AFX_OCC_DIALOG_INFO@@XZ
	DD	FLAT:?Create@CDialog@@UAEHIPAVCWnd@@@Z
	DD	FLAT:?Create@CDialog@@UAEHPBDPAVCWnd@@@Z
	DD	FLAT:?CreateIndirect@CDialog@@UAEHPAXPAVCWnd@@@Z
	DD	FLAT:?CreateIndirect@CDialog@@UAEHPBUDLGTEMPLATE@@PAVCWnd@@PAX@Z
	DD	FLAT:?DoModal@CDialog@@UAEHXZ
	DD	FLAT:?OnInitDialog@COrderLineManDlg@@MAEHXZ
	DD	FLAT:?OnSetFont@CDialog@@UAEXPAVCFont@@@Z
	DD	FLAT:?OnOK@CDialog@@MAEXXZ
	DD	FLAT:?OnCancel@CDialog@@MAEXXZ
	DD	FLAT:?PreInitDialog@CDialog@@MAEXXZ
CONST	ENDS
;	COMDAT ??_R1A@?0A@EA@CListCtrl@@8
rdata$r	SEGMENT
??_R1A@?0A@EA@CListCtrl@@8 DD FLAT:??_R0?AVCListCtrl@@@8 ; CListCtrl::`RTTI Base Class Descriptor at (0,-1,0,64)'
	DD	03H
	DD	00H
	DD	0ffffffffH
	DD	00H
	DD	040H
	DD	FLAT:??_R3CListCtrl@@8
rdata$r	ENDS
;	COMDAT ??_R2CListCtrl@@8
rdata$r	SEGMENT
??_R2CListCtrl@@8 DD FLAT:??_R1A@?0A@EA@CListCtrl@@8	; CListCtrl::`RTTI Base Class Array'
	DD	FLAT:??_R1A@?0A@EA@CWnd@@8
	DD	FLAT:??_R1A@?0A@EA@CCmdTarget@@8
	DD	FLAT:??_R1A@?0A@EA@CObject@@8
rdata$r	ENDS
;	COMDAT ??_R3CListCtrl@@8
rdata$r	SEGMENT
??_R3CListCtrl@@8 DD 00H				; CListCtrl::`RTTI Class Hierarchy Descriptor'
	DD	00H
	DD	04H
	DD	FLAT:??_R2CListCtrl@@8
rdata$r	ENDS
;	COMDAT ??_R0?AVCListCtrl@@@8
data$rs	SEGMENT
??_R0?AVCListCtrl@@@8 DD FLAT:??_7type_info@@6B@	; CListCtrl `RTTI Type Descriptor'
	DD	00H
	DB	'.?AVCListCtrl@@', 00H
data$rs	ENDS
;	COMDAT ??_R4CListCtrl@@6B@
rdata$r	SEGMENT
??_R4CListCtrl@@6B@ DD 00H				; CListCtrl::`RTTI Complete Object Locator'
	DD	00H
	DD	00H
	DD	FLAT:??_R0?AVCListCtrl@@@8
	DD	FLAT:??_R3CListCtrl@@8
rdata$r	ENDS
;	COMDAT ??_R2CDialog@@8
rdata$r	SEGMENT
??_R2CDialog@@8 DD FLAT:??_R1A@?0A@EA@CDialog@@8	; CDialog::`RTTI Base Class Array'
	DD	FLAT:??_R1A@?0A@EA@CWnd@@8
	DD	FLAT:??_R1A@?0A@EA@CCmdTarget@@8
	DD	FLAT:??_R1A@?0A@EA@CObject@@8
rdata$r	ENDS
;	COMDAT ??_R3CDialog@@8
rdata$r	SEGMENT
??_R3CDialog@@8 DD 00H					; CDialog::`RTTI Class Hierarchy Descriptor'
	DD	00H
	DD	04H
	DD	FLAT:??_R2CDialog@@8
rdata$r	ENDS
;	COMDAT ??_R0?AVCDialog@@@8
data$rs	SEGMENT
??_R0?AVCDialog@@@8 DD FLAT:??_7type_info@@6B@		; CDialog `RTTI Type Descriptor'
	DD	00H
	DB	'.?AVCDialog@@', 00H
data$rs	ENDS
;	COMDAT ??_R1A@?0A@EA@CDialog@@8
rdata$r	SEGMENT
??_R1A@?0A@EA@CDialog@@8 DD FLAT:??_R0?AVCDialog@@@8	; CDialog::`RTTI Base Class Descriptor at (0,-1,0,64)'
	DD	03H
	DD	00H
	DD	0ffffffffH
	DD	00H
	DD	040H
	DD	FLAT:??_R3CDialog@@8
rdata$r	ENDS
;	COMDAT ??_R2CCmdTarget@@8
rdata$r	SEGMENT
??_R2CCmdTarget@@8 DD FLAT:??_R1A@?0A@EA@CCmdTarget@@8	; CCmdTarget::`RTTI Base Class Array'
	DD	FLAT:??_R1A@?0A@EA@CObject@@8
rdata$r	ENDS
;	COMDAT ??_R3CCmdTarget@@8
rdata$r	SEGMENT
??_R3CCmdTarget@@8 DD 00H				; CCmdTarget::`RTTI Class Hierarchy Descriptor'
	DD	00H
	DD	02H
	DD	FLAT:??_R2CCmdTarget@@8
rdata$r	ENDS
;	COMDAT ??_R0?AVCCmdTarget@@@8
data$rs	SEGMENT
??_R0?AVCCmdTarget@@@8 DD FLAT:??_7type_info@@6B@	; CCmdTarget `RTTI Type Descriptor'
	DD	00H
	DB	'.?AVCCmdTarget@@', 00H
data$rs	ENDS
;	COMDAT ??_R1A@?0A@EA@CCmdTarget@@8
rdata$r	SEGMENT
??_R1A@?0A@EA@CCmdTarget@@8 DD FLAT:??_R0?AVCCmdTarget@@@8 ; CCmdTarget::`RTTI Base Class Descriptor at (0,-1,0,64)'
	DD	01H
	DD	00H
	DD	0ffffffffH
	DD	00H
	DD	040H
	DD	FLAT:??_R3CCmdTarget@@8
rdata$r	ENDS
;	COMDAT ??_R2CWnd@@8
rdata$r	SEGMENT
??_R2CWnd@@8 DD	FLAT:??_R1A@?0A@EA@CWnd@@8		; CWnd::`RTTI Base Class Array'
	DD	FLAT:??_R1A@?0A@EA@CCmdTarget@@8
	DD	FLAT:??_R1A@?0A@EA@CObject@@8
rdata$r	ENDS
;	COMDAT ??_R3CWnd@@8
rdata$r	SEGMENT
??_R3CWnd@@8 DD	00H					; CWnd::`RTTI Class Hierarchy Descriptor'
	DD	00H
	DD	03H
	DD	FLAT:??_R2CWnd@@8
rdata$r	ENDS
;	COMDAT ??_R0?AVCWnd@@@8
data$rs	SEGMENT
??_R0?AVCWnd@@@8 DD FLAT:??_7type_info@@6B@		; CWnd `RTTI Type Descriptor'
	DD	00H
	DB	'.?AVCWnd@@', 00H
data$rs	ENDS
;	COMDAT ??_R1A@?0A@EA@CWnd@@8
rdata$r	SEGMENT
??_R1A@?0A@EA@CWnd@@8 DD FLAT:??_R0?AVCWnd@@@8		; CWnd::`RTTI Base Class Descriptor at (0,-1,0,64)'
	DD	02H
	DD	00H
	DD	0ffffffffH
	DD	00H
	DD	040H
	DD	FLAT:??_R3CWnd@@8
rdata$r	ENDS
;	COMDAT ??_R1A@?0A@EA@CObject@@8
rdata$r	SEGMENT
??_R1A@?0A@EA@CObject@@8 DD FLAT:??_R0?AVCObject@@@8	; CObject::`RTTI Base Class Descriptor at (0,-1,0,64)'
	DD	00H
	DD	00H
	DD	0ffffffffH
	DD	00H
	DD	040H
	DD	FLAT:??_R3CObject@@8
rdata$r	ENDS
;	COMDAT ??_R2CObject@@8
rdata$r	SEGMENT
??_R2CObject@@8 DD FLAT:??_R1A@?0A@EA@CObject@@8	; CObject::`RTTI Base Class Array'
rdata$r	ENDS
;	COMDAT ??_R3CObject@@8
rdata$r	SEGMENT
??_R3CObject@@8 DD 00H					; CObject::`RTTI Class Hierarchy Descriptor'
	DD	00H
	DD	01H
	DD	FLAT:??_R2CObject@@8
rdata$r	ENDS
;	COMDAT ??_R0?AVCObject@@@8
data$rs	SEGMENT
??_R0?AVCObject@@@8 DD FLAT:??_7type_info@@6B@		; CObject `RTTI Type Descriptor'
	DD	00H
	DB	'.?AVCObject@@', 00H
data$rs	ENDS
;	COMDAT ??_7CListCtrl@@6B@
CONST	SEGMENT
??_7CListCtrl@@6B@ DD FLAT:??_R4CListCtrl@@6B@		; CListCtrl::`vftable'
	DD	FLAT:?GetRuntimeClass@CListCtrl@@UBEPAUCRuntimeClass@@XZ
	DD	FLAT:??_ECListCtrl@@UAEPAXI@Z
	DD	FLAT:?Serialize@CObject@@UAEXAAVCArchive@@@Z
	DD	FLAT:?AssertValid@CObject@@UBEXXZ
	DD	FLAT:?Dump@CObject@@UBEXAAVCDumpContext@@@Z
	DD	FLAT:?OnCmdMsg@CCmdTarget@@UAEHIHPAXPAUAFX_CMDHANDLERINFO@@@Z
	DD	FLAT:?OnFinalRelease@CWnd@@UAEXXZ
	DD	FLAT:?IsInvokeAllowed@CCmdTarget@@UAEHJ@Z
	DD	FLAT:?GetDispatchIID@CCmdTarget@@UAEHPAU_GUID@@@Z
	DD	FLAT:?GetTypeInfoCount@CCmdTarget@@UAEIXZ
	DD	FLAT:?GetTypeLibCache@CCmdTarget@@UAEPAVCTypeLibCache@@XZ
	DD	FLAT:?GetTypeLib@CCmdTarget@@UAEJKPAPAUITypeLib@@@Z
	DD	FLAT:?GetMessageMap@CListCtrl@@MBEPBUAFX_MSGMAP@@XZ
	DD	FLAT:?GetCommandMap@CCmdTarget@@MBEPBUAFX_OLECMDMAP@@XZ
	DD	FLAT:?GetDispatchMap@CCmdTarget@@MBEPBUAFX_DISPMAP@@XZ
	DD	FLAT:?GetConnectionMap@CCmdTarget@@MBEPBUAFX_CONNECTIONMAP@@XZ
	DD	FLAT:?GetInterfaceMap@CWnd@@MBEPBUAFX_INTERFACEMAP@@XZ
	DD	FLAT:?GetEventSinkMap@CCmdTarget@@MBEPBUAFX_EVENTSINKMAP@@XZ
	DD	FLAT:?OnCreateAggregates@CCmdTarget@@UAEHXZ
	DD	FLAT:?GetInterfaceHook@CCmdTarget@@UAEPAUIUnknown@@PBX@Z
	DD	FLAT:?GetExtraConnectionPoints@CCmdTarget@@MAEHPAVCPtrArray@@@Z
	DD	FLAT:?GetConnectionHook@CCmdTarget@@MAEPAUIConnectionPoint@@ABU_GUID@@@Z
	DD	FLAT:?PreSubclassWindow@CWnd@@UAEXXZ
	DD	FLAT:?Create@CWnd@@UAEHPBD0KABUtagRECT@@PAV1@IPAUCCreateContext@@@Z
	DD	FLAT:?CreateEx@CWnd@@UAEHKPBD0KABUtagRECT@@PAV1@IPAX@Z
	DD	FLAT:?CreateEx@CWnd@@UAEHKPBD0KHHHHPAUHWND__@@PAUHMENU__@@PAX@Z
	DD	FLAT:?DestroyWindow@CWnd@@UAEHXZ
	DD	FLAT:?PreCreateWindow@CWnd@@UAEHAAUtagCREATESTRUCTA@@@Z
	DD	FLAT:?CalcWindowRect@CWnd@@UAEXPAUtagRECT@@I@Z
	DD	FLAT:?GetMenu@CWnd@@UBEPAVCMenu@@XZ
	DD	FLAT:?SetMenu@CWnd@@UAEHPAVCMenu@@@Z
	DD	FLAT:?OnToolHitTest@CWnd@@UBEHVCPoint@@PAUtagTOOLINFOA@@@Z
	DD	FLAT:?GetScrollBarCtrl@CWnd@@UBEPAVCScrollBar@@H@Z
	DD	FLAT:?WinHelpA@CWnd@@UAEXKI@Z
	DD	FLAT:?HtmlHelpA@CWnd@@UAEXKI@Z
	DD	FLAT:?WinHelpInternal@CWnd@@UAEXKI@Z
	DD	FLAT:?ContinueModal@CWnd@@UAEHXZ
	DD	FLAT:?EndModalLoop@CWnd@@UAEXH@Z
	DD	FLAT:?OnDrawIconicThumbnailOrLivePreview@CWnd@@UAEXAAVCDC@@VCRect@@VCSize@@HAAH@Z
	DD	FLAT:?EnsureStdObj@CWnd@@UAEJXZ
	DD	FLAT:?get_accParent@CWnd@@UAEJPAPAUIDispatch@@@Z
	DD	FLAT:?get_accChildCount@CWnd@@UAEJPAJ@Z
	DD	FLAT:?get_accChild@CWnd@@UAEJUtagVARIANT@@PAPAUIDispatch@@@Z
	DD	FLAT:?get_accName@CWnd@@UAEJUtagVARIANT@@PAPA_W@Z
	DD	FLAT:?get_accValue@CWnd@@UAEJUtagVARIANT@@PAPA_W@Z
	DD	FLAT:?get_accDescription@CWnd@@UAEJUtagVARIANT@@PAPA_W@Z
	DD	FLAT:?get_accRole@CWnd@@UAEJUtagVARIANT@@PAU2@@Z
	DD	FLAT:?get_accState@CWnd@@UAEJUtagVARIANT@@PAU2@@Z
	DD	FLAT:?get_accHelp@CWnd@@UAEJUtagVARIANT@@PAPA_W@Z
	DD	FLAT:?get_accHelpTopic@CWnd@@UAEJPAPA_WUtagVARIANT@@PAJ@Z
	DD	FLAT:?get_accKeyboardShortcut@CWnd@@UAEJUtagVARIANT@@PAPA_W@Z
	DD	FLAT:?get_accFocus@CWnd@@UAEJPAUtagVARIANT@@@Z
	DD	FLAT:?get_accSelection@CWnd@@UAEJPAUtagVARIANT@@@Z
	DD	FLAT:?get_accDefaultAction@CWnd@@UAEJUtagVARIANT@@PAPA_W@Z
	DD	FLAT:?accSelect@CWnd@@UAEJJUtagVARIANT@@@Z
	DD	FLAT:?accLocation@CWnd@@UAEJPAJ000UtagVARIANT@@@Z
	DD	FLAT:?accNavigate@CWnd@@UAEJJUtagVARIANT@@PAU2@@Z
	DD	FLAT:?accHitTest@CWnd@@UAEJJJPAUtagVARIANT@@@Z
	DD	FLAT:?accDoDefaultAction@CWnd@@UAEJUtagVARIANT@@@Z
	DD	FLAT:?put_accName@CWnd@@UAEJUtagVARIANT@@PA_W@Z
	DD	FLAT:?put_accValue@CWnd@@UAEJUtagVARIANT@@PA_W@Z
	DD	FLAT:?SetProxy@CWnd@@UAEJPAUIAccessibleProxy@@@Z
	DD	FLAT:?CreateAccessibleProxy@CWnd@@UAEJIJPAJ@Z
	DD	FLAT:?OnCommand@CWnd@@MAEHIJ@Z
	DD	FLAT:?OnNotify@CWnd@@MAEHIJPAJ@Z
	DD	FLAT:?GetSuperWndProcAddr@CWnd@@MAEPAP6GJPAUHWND__@@IIJ@ZXZ
	DD	FLAT:?DoDataExchange@CWnd@@MAEXPAVCDataExchange@@@Z
	DD	FLAT:?BeginModalState@CWnd@@UAEXXZ
	DD	FLAT:?EndModalState@CWnd@@UAEXXZ
	DD	FLAT:?PreTranslateMessage@CWnd@@UAEHPAUtagMSG@@@Z
	DD	FLAT:?OnAmbientProperty@CWnd@@UAEHPAVCOleControlSite@@JPAUtagVARIANT@@@Z
	DD	FLAT:?WindowProc@CWnd@@MAEJIIJ@Z
	DD	FLAT:?OnWndMsg@CWnd@@MAEHIIJPAJ@Z
	DD	FLAT:?DefWindowProcA@CWnd@@MAEJIIJ@Z
	DD	FLAT:?PostNcDestroy@CWnd@@MAEXXZ
	DD	FLAT:?OnChildNotify@CListCtrl@@MAEHIIJPAJ@Z
	DD	FLAT:?OnTouchInputs@CWnd@@MAEHIPAUtagTOUCHINPUT@@@Z
	DD	FLAT:?OnTouchInput@CWnd@@MAEHVCPoint@@HHPAUtagTOUCHINPUT@@@Z
	DD	FLAT:?GetGestureStatus@CWnd@@MAEKVCPoint@@@Z
	DD	FLAT:?OnGestureZoom@CWnd@@MAEHVCPoint@@J@Z
	DD	FLAT:?OnGesturePan@CWnd@@MAEHVCPoint@@0@Z
	DD	FLAT:?OnGestureRotate@CWnd@@MAEHVCPoint@@N@Z
	DD	FLAT:?OnGestureTwoFingerTap@CWnd@@MAEHVCPoint@@@Z
	DD	FLAT:?OnGesturePressAndTap@CWnd@@MAEHVCPoint@@J@Z
	DD	FLAT:?ResizeDynamicLayout@CWnd@@MAEXXZ
	DD	FLAT:?CheckAutoCenter@CWnd@@UAEHXZ
	DD	FLAT:?IsFrameWnd@CWnd@@UBEHXZ
	DD	FLAT:?CreateControlContainer@CWnd@@MAEHPAPAVCOleControlContainer@@@Z
	DD	FLAT:?CreateControlSite@CWnd@@MAEHPAVCOleControlContainer@@PAPAVCOleControlSite@@IABU_GUID@@@Z
	DD	FLAT:?SetOccDialogInfo@CWnd@@MAEHPAU_AFX_OCC_DIALOG_INFO@@@Z
	DD	FLAT:?GetOccDialogInfo@CWnd@@MAEPAU_AFX_OCC_DIALOG_INFO@@XZ
	DD	FLAT:?DrawItem@CListCtrl@@UAEXPAUtagDRAWITEMSTRUCT@@@Z
CONST	ENDS
;	COMDAT ??_C@_00CNPNBAHC@@
CONST	SEGMENT
??_C@_00CNPNBAHC@@ DB 00H				; `string'
CONST	ENDS
;	COMDAT ??_C@_02DPKJAMEF@?$CFd@
CONST	SEGMENT
??_C@_02DPKJAMEF@?$CFd@ DB '%d', 00H			; `string'
CONST	ENDS
;	COMDAT xdata$x
xdata$x	SEGMENT
__ehfuncinfo$?OnBtnDel@COrderLineManDlg@@IAEXXZ DD 019930522H
	DD	0aH
	DD	FLAT:__unwindtable$?OnBtnDel@COrderLineManDlg@@IAEXXZ
	DD	2 DUP(00H)
	DD	2 DUP(00H)
	DD	00H
	DD	01H
__unwindtable$?OnBtnDel@COrderLineManDlg@@IAEXXZ DD 0ffffffffH
	DD	FLAT:__unwindfunclet$?OnBtnDel@COrderLineManDlg@@IAEXXZ$0
	DD	00H
	DD	FLAT:__unwindfunclet$?OnBtnDel@COrderLineManDlg@@IAEXXZ$1
	DD	01H
	DD	FLAT:__unwindfunclet$?OnBtnDel@COrderLineManDlg@@IAEXXZ$8
	DD	00H
	DD	FLAT:__unwindfunclet$?OnBtnDel@COrderLineManDlg@@IAEXXZ$8
	DD	0ffffffffH
	DD	FLAT:__unwindfunclet$?OnBtnDel@COrderLineManDlg@@IAEXXZ$8
	DD	04H
	DD	FLAT:__unwindfunclet$?OnBtnDel@COrderLineManDlg@@IAEXXZ$3
	DD	05H
	DD	FLAT:__unwindfunclet$?OnBtnDel@COrderLineManDlg@@IAEXXZ$9
	DD	0ffffffffH
	DD	FLAT:__unwindfunclet$?OnBtnDel@COrderLineManDlg@@IAEXXZ$5
	DD	07H
	DD	FLAT:__unwindfunclet$?OnBtnDel@COrderLineManDlg@@IAEXXZ$6
	DD	08H
	DD	FLAT:__unwindfunclet$?OnBtnDel@COrderLineManDlg@@IAEXXZ$7
xdata$x	ENDS
;	COMDAT xdata$x
xdata$x	SEGMENT
__ehfuncinfo$?OnInitDialog@COrderLineManDlg@@MAEHXZ DD 019930522H
	DD	0dH
	DD	FLAT:__unwindtable$?OnInitDialog@COrderLineManDlg@@MAEHXZ
	DD	2 DUP(00H)
	DD	2 DUP(00H)
	DD	00H
	DD	01H
__unwindtable$?OnInitDialog@COrderLineManDlg@@MAEHXZ DD 0ffffffffH
	DD	FLAT:__unwindfunclet$?OnInitDialog@COrderLineManDlg@@MAEHXZ$0
	DD	00H
	DD	FLAT:__unwindfunclet$?OnInitDialog@COrderLineManDlg@@MAEHXZ$1
	DD	01H
	DD	FLAT:__unwindfunclet$?OnInitDialog@COrderLineManDlg@@MAEHXZ$2
	DD	02H
	DD	FLAT:__unwindfunclet$?OnInitDialog@COrderLineManDlg@@MAEHXZ$4
	DD	03H
	DD	FLAT:__unwindfunclet$?OnInitDialog@COrderLineManDlg@@MAEHXZ$15
	DD	04H
	DD	FLAT:__unwindfunclet$?OnInitDialog@COrderLineManDlg@@MAEHXZ$16
	DD	05H
	DD	FLAT:__unwindfunclet$?OnInitDialog@COrderLineManDlg@@MAEHXZ$17
	DD	06H
	DD	FLAT:__unwindfunclet$?OnInitDialog@COrderLineManDlg@@MAEHXZ$19
	DD	03H
	DD	FLAT:__unwindfunclet$?OnInitDialog@COrderLineManDlg@@MAEHXZ$6
	DD	03H
	DD	FLAT:__unwindfunclet$?OnInitDialog@COrderLineManDlg@@MAEHXZ$8
	DD	03H
	DD	FLAT:__unwindfunclet$?OnInitDialog@COrderLineManDlg@@MAEHXZ$10
	DD	03H
	DD	FLAT:__unwindfunclet$?OnInitDialog@COrderLineManDlg@@MAEHXZ$12
	DD	03H
	DD	FLAT:__unwindfunclet$?OnInitDialog@COrderLineManDlg@@MAEHXZ$14
xdata$x	ENDS
;	COMDAT xdata$x
xdata$x	SEGMENT
__unwindtable$??0COrderLineManDlg@@QAE@PAVCWnd@@@Z DD 0ffffffffH
	DD	FLAT:__unwindfunclet$??0COrderLineManDlg@@QAE@PAVCWnd@@@Z$0
	DD	00H
	DD	FLAT:__unwindfunclet$??0COrderLineManDlg@@QAE@PAVCWnd@@@Z$1
__ehfuncinfo$??0COrderLineManDlg@@QAE@PAVCWnd@@@Z DD 019930522H
	DD	02H
	DD	FLAT:__unwindtable$??0COrderLineManDlg@@QAE@PAVCWnd@@@Z
	DD	2 DUP(00H)
	DD	2 DUP(00H)
	DD	00H
	DD	01H
xdata$x	ENDS
;	COMDAT xdata$x
xdata$x	SEGMENT
__unwindtable$?TokenizeEx@COrderLineManDlg@@QAE?AV?$CStringT@DV?$StrTraitMFC_DLL@DV?$ChTraitsCRT@D@ATL@@@@@ATL@@V23@PBDAAH@Z DD 0ffffffffH
	DD	FLAT:__unwindfunclet$?TokenizeEx@COrderLineManDlg@@QAE?AV?$CStringT@DV?$StrTraitMFC_DLL@DV?$ChTraitsCRT@D@ATL@@@@@ATL@@V23@PBDAAH@Z$0
	DD	00H
	DD	FLAT:__unwindfunclet$?TokenizeEx@COrderLineManDlg@@QAE?AV?$CStringT@DV?$StrTraitMFC_DLL@DV?$ChTraitsCRT@D@ATL@@@@@ATL@@V23@PBDAAH@Z$1
	DD	01H
	DD	FLAT:__unwindfunclet$?TokenizeEx@COrderLineManDlg@@QAE?AV?$CStringT@DV?$StrTraitMFC_DLL@DV?$ChTraitsCRT@D@ATL@@@@@ATL@@V23@PBDAAH@Z$2
__ehfuncinfo$?TokenizeEx@COrderLineManDlg@@QAE?AV?$CStringT@DV?$StrTraitMFC_DLL@DV?$ChTraitsCRT@D@ATL@@@@@ATL@@V23@PBDAAH@Z DD 019930522H
	DD	03H
	DD	FLAT:__unwindtable$?TokenizeEx@COrderLineManDlg@@QAE?AV?$CStringT@DV?$StrTraitMFC_DLL@DV?$ChTraitsCRT@D@ATL@@@@@ATL@@V23@PBDAAH@Z
	DD	2 DUP(00H)
	DD	2 DUP(00H)
	DD	00H
	DD	01H
xdata$x	ENDS
;	COMDAT xdata$x
xdata$x	SEGMENT
__unwindtable$?FindListItem@COrderLineManDlg@@QAEHV?$CStringT@DV?$StrTraitMFC_DLL@DV?$ChTraitsCRT@D@ATL@@@@@ATL@@@Z DD 0ffffffffH
	DD	FLAT:__unwindfunclet$?FindListItem@COrderLineManDlg@@QAEHV?$CStringT@DV?$StrTraitMFC_DLL@DV?$ChTraitsCRT@D@ATL@@@@@ATL@@@Z$0
	DD	00H
	DD	FLAT:__unwindfunclet$?FindListItem@COrderLineManDlg@@QAEHV?$CStringT@DV?$StrTraitMFC_DLL@DV?$ChTraitsCRT@D@ATL@@@@@ATL@@@Z$1
	DD	01H
	DD	FLAT:__unwindfunclet$?FindListItem@COrderLineManDlg@@QAEHV?$CStringT@DV?$StrTraitMFC_DLL@DV?$ChTraitsCRT@D@ATL@@@@@ATL@@@Z$2
	DD	02H
	DD	FLAT:__unwindfunclet$?FindListItem@COrderLineManDlg@@QAEHV?$CStringT@DV?$StrTraitMFC_DLL@DV?$ChTraitsCRT@D@ATL@@@@@ATL@@@Z$4
__ehfuncinfo$?FindListItem@COrderLineManDlg@@QAEHV?$CStringT@DV?$StrTraitMFC_DLL@DV?$ChTraitsCRT@D@ATL@@@@@ATL@@@Z DD 019930522H
	DD	04H
	DD	FLAT:__unwindtable$?FindListItem@COrderLineManDlg@@QAEHV?$CStringT@DV?$StrTraitMFC_DLL@DV?$ChTraitsCRT@D@ATL@@@@@ATL@@@Z
	DD	2 DUP(00H)
	DD	2 DUP(00H)
	DD	00H
	DD	01H
xdata$x	ENDS
;	COMDAT xdata$x
xdata$x	SEGMENT
__unwindtable$?RemoveLIneFromObList@COrderLineManDlg@@QAEXV?$CStringT@DV?$StrTraitMFC_DLL@DV?$ChTraitsCRT@D@ATL@@@@@ATL@@@Z DD 0ffffffffH
	DD	FLAT:__unwindfunclet$?RemoveLIneFromObList@COrderLineManDlg@@QAEXV?$CStringT@DV?$StrTraitMFC_DLL@DV?$ChTraitsCRT@D@ATL@@@@@ATL@@@Z$0
__ehfuncinfo$?RemoveLIneFromObList@COrderLineManDlg@@QAEXV?$CStringT@DV?$StrTraitMFC_DLL@DV?$ChTraitsCRT@D@ATL@@@@@ATL@@@Z DD 019930522H
	DD	01H
	DD	FLAT:__unwindtable$?RemoveLIneFromObList@COrderLineManDlg@@QAEXV?$CStringT@DV?$StrTraitMFC_DLL@DV?$ChTraitsCRT@D@ATL@@@@@ATL@@@Z
	DD	2 DUP(00H)
	DD	2 DUP(00H)
	DD	00H
	DD	01H
xdata$x	ENDS
;	COMDAT xdata$x
xdata$x	SEGMENT
__unwindtable$??HATL@@YA?AV?$CStringT@DV?$StrTraitMFC_DLL@DV?$ChTraitsCRT@D@ATL@@@@@0@ABV10@PBD@Z DD 0ffffffffH
	DD	FLAT:__unwindfunclet$??HATL@@YA?AV?$CStringT@DV?$StrTraitMFC_DLL@DV?$ChTraitsCRT@D@ATL@@@@@0@ABV10@PBD@Z$0
__ehfuncinfo$??HATL@@YA?AV?$CStringT@DV?$StrTraitMFC_DLL@DV?$ChTraitsCRT@D@ATL@@@@@0@ABV10@PBD@Z DD 019930522H
	DD	01H
	DD	FLAT:__unwindtable$??HATL@@YA?AV?$CStringT@DV?$StrTraitMFC_DLL@DV?$ChTraitsCRT@D@ATL@@@@@0@ABV10@PBD@Z
	DD	2 DUP(00H)
	DD	2 DUP(00H)
	DD	00H
	DD	01H
xdata$x	ENDS
;	COMDAT xdata$x
xdata$x	SEGMENT
__unwindtable$??HATL@@YA?AV?$CStringT@DV?$StrTraitMFC_DLL@DV?$ChTraitsCRT@D@ATL@@@@@0@ABV10@0@Z DD 0ffffffffH
	DD	FLAT:__unwindfunclet$??HATL@@YA?AV?$CStringT@DV?$StrTraitMFC_DLL@DV?$ChTraitsCRT@D@ATL@@@@@0@ABV10@0@Z$0
__ehfuncinfo$??HATL@@YA?AV?$CStringT@DV?$StrTraitMFC_DLL@DV?$ChTraitsCRT@D@ATL@@@@@0@ABV10@0@Z DD 019930522H
	DD	01H
	DD	FLAT:__unwindtable$??HATL@@YA?AV?$CStringT@DV?$StrTraitMFC_DLL@DV?$ChTraitsCRT@D@ATL@@@@@0@ABV10@0@Z
	DD	2 DUP(00H)
	DD	2 DUP(00H)
	DD	00H
	DD	01H
xdata$x	ENDS
; Function compile flags: /Ogtp
; File C:\Program Files (x86)\Microsoft Visual Studio\2019\Community\VC\Tools\MSVC\14.29.30133\atlmfc\include\afx.inl
;	COMDAT ??_GCOrderLineManDlg@@UAEPAXI@Z
_TEXT	SEGMENT
___flags$ = 8						; size = 4
??_GCOrderLineManDlg@@UAEPAXI@Z PROC			; COrderLineManDlg::`scalar deleting destructor', COMDAT
; _this$ = ecx
  00000	55		 push	 ebp
  00001	8b ec		 mov	 ebp, esp
  00003	56		 push	 esi
  00004	8b f1		 mov	 esi, ecx
  00006	8d 8e b0 00 00
	00		 lea	 ecx, DWORD PTR [esi+176]
  0000c	e8 00 00 00 00	 call	 ??1CListCtrl@@UAE@XZ	; CListCtrl::~CListCtrl
  00011	8d 8e a8 00 00
	00		 lea	 ecx, DWORD PTR [esi+168]
  00017	ff 15 00 00 00
	00		 call	 DWORD PTR __imp_??1?$CStringT@DV?$StrTraitMFC_DLL@DV?$ChTraitsCRT@D@ATL@@@@@ATL@@QAE@XZ
  0001d	8b ce		 mov	 ecx, esi
  0001f	e8 00 00 00 00	 call	 ??1CDialog@@UAE@XZ	; CDialog::~CDialog
  00024	8b 45 08	 mov	 eax, DWORD PTR ___flags$[ebp]
  00027	a8 01		 test	 al, 1
  00029	74 22		 je	 SHORT $LN12@scalar
  0002b	a8 04		 test	 al, 4
  0002d	75 10		 jne	 SHORT $LN3@scalar

; 112  : 	{ ::operator delete(p); }

  0002f	56		 push	 esi
  00030	e8 00 00 00 00	 call	 ??3@YAXPAX@Z		; operator delete
  00035	83 c4 04	 add	 esp, 4
  00038	8b c6		 mov	 eax, esi
  0003a	5e		 pop	 esi
  0003b	5d		 pop	 ebp
  0003c	c2 04 00	 ret	 4
$LN3@scalar:
  0003f	68 30 01 00 00	 push	 304			; 00000130H
  00044	56		 push	 esi
  00045	e8 00 00 00 00	 call	 ?__global_delete@@YAXPAXI@Z ; __global_delete
  0004a	83 c4 08	 add	 esp, 8
$LN12@scalar:
  0004d	8b c6		 mov	 eax, esi
  0004f	5e		 pop	 esi
  00050	5d		 pop	 ebp
  00051	c2 04 00	 ret	 4
??_GCOrderLineManDlg@@UAEPAXI@Z ENDP			; COrderLineManDlg::`scalar deleting destructor'
_TEXT	ENDS
; Function compile flags: /Ogtp
; File D:\git\src\IBK\IBK_DRFN\ProjSrc\SrcChartEx\ChartAddIn\ChartPeriodSummaryAddIn\OrderLineManDlg.cpp
;	COMDAT ?GetMessageMap@COrderLineManDlg@@MBEPBUAFX_MSGMAP@@XZ
_TEXT	SEGMENT
?GetMessageMap@COrderLineManDlg@@MBEPBUAFX_MSGMAP@@XZ PROC ; COrderLineManDlg::GetMessageMap, COMDAT
; _this$ = ecx

; 37   : BEGIN_MESSAGE_MAP(COrderLineManDlg, CDialog)

  00000	b8 00 00 00 00	 mov	 eax, OFFSET ?messageMap@?1??GetThisMessageMap@COrderLineManDlg@@KGPBUAFX_MSGMAP@@XZ@4U3@B
  00005	c3		 ret	 0
?GetMessageMap@COrderLineManDlg@@MBEPBUAFX_MSGMAP@@XZ ENDP ; COrderLineManDlg::GetMessageMap
_TEXT	ENDS
; Function compile flags: /Ogtp
; File D:\git\src\IBK\IBK_DRFN\ProjSrc\SrcChartEx\ChartAddIn\ChartPeriodSummaryAddIn\OrderLineManDlg.cpp
;	COMDAT ?GetThisMessageMap@COrderLineManDlg@@KGPBUAFX_MSGMAP@@XZ
_TEXT	SEGMENT
?GetThisMessageMap@COrderLineManDlg@@KGPBUAFX_MSGMAP@@XZ PROC ; COrderLineManDlg::GetThisMessageMap, COMDAT

; 38   : 	//{{AFX_MSG_MAP(COrderLineManDlg)
; 39   : 	ON_BN_CLICKED(IDC_BTN_DEL, OnBtnDel)
; 40   : 	ON_WM_KEYDOWN()
; 41   : 	ON_NOTIFY(LVN_KEYDOWN, IDC_LIST1, OnKeydownList)
; 42   : 	//}}AFX_MSG_MAP
; 43   : END_MESSAGE_MAP()

  00000	b8 00 00 00 00	 mov	 eax, OFFSET ?messageMap@?1??GetThisMessageMap@COrderLineManDlg@@KGPBUAFX_MSGMAP@@XZ@4U3@B
  00005	c3		 ret	 0
?GetThisMessageMap@COrderLineManDlg@@KGPBUAFX_MSGMAP@@XZ ENDP ; COrderLineManDlg::GetThisMessageMap
_TEXT	ENDS
; Function compile flags: /Ogtp
; File D:\git\src\IBK\IBK_DRFN\ProjSrc\SrcChartEx\ChartAddIn\ChartPeriodSummaryAddIn\OrderLineManDlg.cpp
;	COMDAT ?OnKeydownList@COrderLineManDlg@@IAEXPAUtagNMHDR@@PAJ@Z
_TEXT	SEGMENT
_pNMHDR$ = 8						; size = 4
_pResult$ = 12						; size = 4
?OnKeydownList@COrderLineManDlg@@IAEXPAUtagNMHDR@@PAJ@Z PROC ; COrderLineManDlg::OnKeydownList, COMDAT
; _this$ = ecx

; 207  : {

  00000	55		 push	 ebp
  00001	8b ec		 mov	 ebp, esp

; 208  : 	LV_KEYDOWN* pLVKeyDow = (LV_KEYDOWN*)pNMHDR;
; 209  : 
; 210  : 	if(pLVKeyDow->wVKey == 46)

  00003	8b 45 08	 mov	 eax, DWORD PTR _pNMHDR$[ebp]
  00006	66 83 78 0c 2e	 cmp	 WORD PTR [eax+12], 46	; 0000002eH
  0000b	75 05		 jne	 SHORT $LN4@OnKeydownL

; 211  : 		OnBtnDel();

  0000d	e8 00 00 00 00	 call	 ?OnBtnDel@COrderLineManDlg@@IAEXXZ ; COrderLineManDlg::OnBtnDel
$LN4@OnKeydownL:

; 212  : 	
; 213  : 	*pResult = 0;
; 214  : }

  00012	8b 45 0c	 mov	 eax, DWORD PTR _pResult$[ebp]
  00015	c7 00 00 00 00
	00		 mov	 DWORD PTR [eax], 0
  0001b	5d		 pop	 ebp
  0001c	c2 08 00	 ret	 8
?OnKeydownList@COrderLineManDlg@@IAEXPAUtagNMHDR@@PAJ@Z ENDP ; COrderLineManDlg::OnKeydownList
_TEXT	ENDS
; Function compile flags: /Ogtp
; File D:\git\src\IBK\IBK_DRFN\ProjSrc\SrcChartEx\ChartAddIn\ChartPeriodSummaryAddIn\OrderLineManDlg.cpp
; File C:\Program Files (x86)\Microsoft Visual Studio\2019\Community\VC\Tools\MSVC\14.29.30133\atlmfc\include\afxwin2.inl
; File D:\git\src\IBK\IBK_DRFN\ProjSrc\SrcChartEx\ChartAddIn\ChartPeriodSummaryAddIn\OrderLineManDlg.cpp
;	COMDAT ?OnKeyDown@COrderLineManDlg@@IAEXIII@Z
_TEXT	SEGMENT
_nChar$ = 8						; size = 4
_nRepCnt$ = 12						; size = 4
_nFlags$ = 16						; size = 4
?OnKeyDown@COrderLineManDlg@@IAEXIII@Z PROC		; COrderLineManDlg::OnKeyDown, COMDAT
; _this$ = ecx

; 199  : {

  00000	55		 push	 ebp
  00001	8b ec		 mov	 ebp, esp

; 200  : 	if(nChar == 46)

  00003	83 7d 08 2e	 cmp	 DWORD PTR _nChar$[ebp], 46 ; 0000002eH
  00007	56		 push	 esi
  00008	8b f1		 mov	 esi, ecx
  0000a	75 05		 jne	 SHORT $LN2@OnKeyDown

; 201  : 		OnBtnDel();

  0000c	e8 00 00 00 00	 call	 ?OnBtnDel@COrderLineManDlg@@IAEXXZ ; COrderLineManDlg::OnBtnDel
$LN2@OnKeyDown:
; File C:\Program Files (x86)\Microsoft Visual Studio\2019\Community\VC\Tools\MSVC\14.29.30133\atlmfc\include\afxwin2.inl

; 424  : 	{ Default(); }

  00011	8b ce		 mov	 ecx, esi
  00013	e8 00 00 00 00	 call	 ?Default@CWnd@@IAEJXZ	; CWnd::Default
  00018	5e		 pop	 esi
; File D:\git\src\IBK\IBK_DRFN\ProjSrc\SrcChartEx\ChartAddIn\ChartPeriodSummaryAddIn\OrderLineManDlg.cpp

; 204  : }

  00019	5d		 pop	 ebp
  0001a	c2 0c 00	 ret	 12			; 0000000cH
?OnKeyDown@COrderLineManDlg@@IAEXIII@Z ENDP		; COrderLineManDlg::OnKeyDown
_TEXT	ENDS
; Function compile flags: /Ogtp
; File D:\git\src\IBK\IBK_DRFN\ProjSrc\SrcChartEx\ChartAddIn\ChartPeriodSummaryAddIn\OrderLineManDlg.cpp
; File C:\Program Files (x86)\Microsoft Visual Studio\2019\Community\VC\Tools\MSVC\14.29.30133\atlmfc\include\afxcmn.inl
; File D:\git\src\IBK\IBK_DRFN\ProjSrc\SrcChartEx\ChartAddIn\ChartPeriodSummaryAddIn\OrderLineManDlg.cpp
; File C:\Program Files (x86)\Microsoft Visual Studio\2019\Community\VC\Tools\MSVC\14.29.30133\atlmfc\include\afxcmn.inl
; File D:\git\src\IBK\IBK_DRFN\ProjSrc\SrcChartEx\ChartAddIn\ChartPeriodSummaryAddIn\OrderLineManDlg.cpp
; File C:\Program Files (x86)\Microsoft Visual Studio\2019\Community\VC\Tools\MSVC\14.29.30133\atlmfc\include\afxcmn.inl
; File D:\git\src\IBK\IBK_DRFN\ProjSrc\SrcChartEx\ChartAddIn\ChartPeriodSummaryAddIn\OrderLineManDlg.cpp
; File C:\Program Files (x86)\Microsoft Visual Studio\2019\Community\VC\Tools\MSVC\14.29.30133\atlmfc\include\afxcmn.inl
; File D:\git\src\IBK\IBK_DRFN\ProjSrc\SrcChartEx\ChartAddIn\ChartPeriodSummaryAddIn\OrderLineManDlg.cpp
; File C:\Program Files (x86)\Microsoft Visual Studio\2019\Community\VC\Tools\MSVC\14.29.30133\atlmfc\include\afxcmn.inl
; File D:\git\src\IBK\IBK_DRFN\ProjSrc\SrcChartEx\ChartAddIn\ChartPeriodSummaryAddIn\OrderLineManDlg.cpp
; File C:\Program Files (x86)\Microsoft Visual Studio\2019\Community\VC\Tools\MSVC\14.29.30133\atlmfc\include\cstringt.h
; File D:\git\src\IBK\IBK_DRFN\ProjSrc\SrcChartEx\ChartAddIn\ChartPeriodSummaryAddIn\OrderLineManDlg.cpp
; File C:\Program Files (x86)\Microsoft Visual Studio\2019\Community\VC\Tools\MSVC\14.29.30133\atlmfc\include\cstringt.h
; File C:\Program Files (x86)\Microsoft Visual Studio\2019\Community\VC\Tools\MSVC\14.29.30133\atlmfc\include\atlsimpstr.h
; File C:\Program Files (x86)\Microsoft Visual Studio\2019\Community\VC\Tools\MSVC\14.29.30133\atlmfc\include\cstringt.h
; File C:\Program Files (x86)\Microsoft Visual Studio\2019\Community\VC\Tools\MSVC\14.29.30133\atlmfc\include\atlsimpstr.h
; File C:\Program Files (x86)\Microsoft Visual Studio\2019\Community\VC\Tools\MSVC\14.29.30133\atlmfc\include\cstringt.h
; File D:\git\src\IBK\IBK_DRFN\ProjSrc\SrcChartEx\ChartAddIn\ChartPeriodSummaryAddIn\OrderLineManDlg.cpp
; File C:\Program Files (x86)\Microsoft Visual Studio\2019\Community\VC\Tools\MSVC\14.29.30133\atlmfc\include\afxcoll.inl
; File D:\git\src\IBK\IBK_DRFN\ProjSrc\SrcChartEx\ChartAddIn\ChartPeriodSummaryAddIn\OrderLineManDlg.cpp
; File C:\Program Files (x86)\Microsoft Visual Studio\2019\Community\VC\Tools\MSVC\14.29.30133\atlmfc\include\afxcoll.inl
; File D:\git\src\IBK\IBK_DRFN\ProjSrc\SrcChartEx\ChartAddIn\ChartPeriodSummaryAddIn\OrderLineManDlg.cpp
; File C:\Program Files (x86)\Microsoft Visual Studio\2019\Community\VC\Tools\MSVC\14.29.30133\atlmfc\include\afxcoll.inl
; File D:\git\src\IBK\IBK_DRFN\ProjSrc\SrcChartEx\ChartAddIn\ChartPeriodSummaryAddIn\OrderLineManDlg.cpp
; File C:\Program Files (x86)\Microsoft Visual Studio\2019\Community\VC\Tools\MSVC\14.29.30133\atlmfc\include\afxcoll.inl
; File D:\git\src\IBK\IBK_DRFN\ProjSrc\SrcChartEx\ChartAddIn\ChartPeriodSummaryAddIn\OrderLineManDlg.cpp
; File C:\Program Files (x86)\Microsoft Visual Studio\2019\Community\VC\Tools\MSVC\14.29.30133\atlmfc\include\afxcoll.inl
; File D:\git\src\IBK\IBK_DRFN\ProjSrc\SrcChartEx\ChartAddIn\ChartPeriodSummaryAddIn\OrderLineManDlg.cpp
; File C:\Program Files (x86)\Microsoft Visual Studio\2019\Community\VC\Tools\MSVC\14.29.30133\atlmfc\include\afxcoll.inl
; File D:\git\src\IBK\IBK_DRFN\ProjSrc\SrcChartEx\ChartAddIn\ChartPeriodSummaryAddIn\OrderLineManDlg.cpp
; File C:\Program Files (x86)\Microsoft Visual Studio\2019\Community\VC\Tools\MSVC\14.29.30133\atlmfc\include\afxcoll.inl
; File D:\git\src\IBK\IBK_DRFN\ProjSrc\SrcChartEx\ChartAddIn\ChartPeriodSummaryAddIn\OrderLineManDlg.cpp
; File D:\git\src\IBK\IBK_DRFN\ProjSrc\SrcChartEx\ChartAddIn\ChartPeriodSummaryAddIn\ChartOrderLineAddInImp.h
; File D:\git\src\IBK\IBK_DRFN\ProjSrc\SrcChartEx\ChartAddIn\ChartPeriodSummaryAddIn\OrderLineManDlg.cpp
; File C:\Program Files (x86)\Microsoft Visual Studio\2019\Community\VC\Tools\MSVC\14.29.30133\atlmfc\include\afxcmn.inl
; File D:\git\src\IBK\IBK_DRFN\ProjSrc\SrcChartEx\ChartAddIn\ChartPeriodSummaryAddIn\OrderLineManDlg.cpp
;	COMDAT ?OnBtnDel@COrderLineManDlg@@IAEXXZ
_TEXT	SEGMENT
_ar$ = -168						; size = 72
_f$ = -96						; size = 20
_pos$1$ = -76						; size = 4
_this$1$ = -72						; size = 4
$T2 = -68						; size = 4
_pos2$1$ = -64						; size = 4
_pAddIn$1$ = -60					; size = 4
_pLineList$1$ = -56					; size = 4
$T3 = -52						; size = 4
$T4 = -48						; size = 4
$T5 = -44						; size = 4
_strFileName$ = -40					; size = 4
_nOldPos$1$ = -36					; size = 4
_strOrderLine$6 = -32					; size = 4
$T7 = -28						; size = 4
_psnAddIn$1$ = -24					; size = 4
tv651 = -20						; size = 4
_strCodeAndDateType$8 = -16				; size = 4
__$EHRec$ = -12						; size = 12
?OnBtnDel@COrderLineManDlg@@IAEXXZ PROC			; COrderLineManDlg::OnBtnDel, COMDAT
; _this$ = ecx

; 134  : {

  00000	55		 push	 ebp
  00001	8b ec		 mov	 ebp, esp
  00003	6a ff		 push	 -1
  00005	68 00 00 00 00	 push	 __ehhandler$?OnBtnDel@COrderLineManDlg@@IAEXXZ
  0000a	64 a1 00 00 00
	00		 mov	 eax, DWORD PTR fs:0
  00010	50		 push	 eax
  00011	81 ec 9c 00 00
	00		 sub	 esp, 156		; 0000009cH
  00017	53		 push	 ebx
  00018	56		 push	 esi
  00019	57		 push	 edi
  0001a	a1 00 00 00 00	 mov	 eax, DWORD PTR ___security_cookie
  0001f	33 c5		 xor	 eax, ebp
  00021	50		 push	 eax
  00022	8d 45 f4	 lea	 eax, DWORD PTR __$EHRec$[ebp]
  00025	64 a3 00 00 00
	00		 mov	 DWORD PTR fs:0, eax
  0002b	8b f1		 mov	 esi, ecx
  0002d	89 75 b8	 mov	 DWORD PTR _this$1$[ebp], esi
; File C:\Program Files (x86)\Microsoft Visual Studio\2019\Community\VC\Tools\MSVC\14.29.30133\atlmfc\include\afxcmn.inl

; 177  : 	{ ASSERT(::IsWindow(m_hWnd)); return (int) ::SendMessage(m_hWnd, LVM_GETNEXTITEM, nItem, MAKELPARAM(nFlags, 0)); }

  00030	6a 02		 push	 2
  00032	6a ff		 push	 -1
; File D:\git\src\IBK\IBK_DRFN\ProjSrc\SrcChartEx\ChartAddIn\ChartPeriodSummaryAddIn\OrderLineManDlg.cpp

; 134  : {

  00034	33 db		 xor	 ebx, ebx
  00036	89 5d d4	 mov	 DWORD PTR $T5[ebp], ebx
; File C:\Program Files (x86)\Microsoft Visual Studio\2019\Community\VC\Tools\MSVC\14.29.30133\atlmfc\include\afxcmn.inl

; 177  : 	{ ASSERT(::IsWindow(m_hWnd)); return (int) ::SendMessage(m_hWnd, LVM_GETNEXTITEM, nItem, MAKELPARAM(nFlags, 0)); }

  00039	8b 3d 00 00 00
	00		 mov	 edi, DWORD PTR __imp__SendMessageA@16
  0003f	68 0c 10 00 00	 push	 4108			; 0000100cH
  00044	ff b6 d0 00 00
	00		 push	 DWORD PTR [esi+208]
  0004a	ff d7		 call	 edi

; 179  : 	{ ASSERT(::IsWindow(m_hWnd)); return (POSITION)(DWORD_PTR)(1+GetNextItem(-1, LVIS_SELECTED)); }

  0004c	83 c0 01	 add	 eax, 1
; File D:\git\src\IBK\IBK_DRFN\ProjSrc\SrcChartEx\ChartAddIn\ChartPeriodSummaryAddIn\OrderLineManDlg.cpp

; 137  : 	while(pos)

  0004f	0f 84 cc 01 00
	00		 je	 $LN3@OnBtnDel
  00055	8d 8e b0 00 00
	00		 lea	 ecx, DWORD PTR [esi+176]
  0005b	89 4d ec	 mov	 DWORD PTR tv651[ebp], ecx
  0005e	66 90		 npad	 2
$LL2@OnBtnDel:
; File C:\Program Files (x86)\Microsoft Visual Studio\2019\Community\VC\Tools\MSVC\14.29.30133\atlmfc\include\afxcmn.inl

; 177  : 	{ ASSERT(::IsWindow(m_hWnd)); return (int) ::SendMessage(m_hWnd, LVM_GETNEXTITEM, nItem, MAKELPARAM(nFlags, 0)); }

  00060	6a 02		 push	 2

; 181  : 	{ ASSERT(::IsWindow(m_hWnd)); DWORD_PTR nOldPos = (DWORD_PTR)pos-1; pos = (POSITION)(DWORD_PTR)(1+GetNextItem((UINT)nOldPos, LVIS_SELECTED)); return (UINT)nOldPos; }

  00062	48		 dec	 eax

; 177  : 	{ ASSERT(::IsWindow(m_hWnd)); return (int) ::SendMessage(m_hWnd, LVM_GETNEXTITEM, nItem, MAKELPARAM(nFlags, 0)); }

  00063	50		 push	 eax
  00064	68 0c 10 00 00	 push	 4108			; 0000100cH
  00069	ff b6 d0 00 00
	00		 push	 DWORD PTR [esi+208]

; 181  : 	{ ASSERT(::IsWindow(m_hWnd)); DWORD_PTR nOldPos = (DWORD_PTR)pos-1; pos = (POSITION)(DWORD_PTR)(1+GetNextItem((UINT)nOldPos, LVIS_SELECTED)); return (UINT)nOldPos; }

  0006f	89 45 dc	 mov	 DWORD PTR _nOldPos$1$[ebp], eax

; 177  : 	{ ASSERT(::IsWindow(m_hWnd)); return (int) ::SendMessage(m_hWnd, LVM_GETNEXTITEM, nItem, MAKELPARAM(nFlags, 0)); }

  00072	ff d7		 call	 edi
; File D:\git\src\IBK\IBK_DRFN\ProjSrc\SrcChartEx\ChartAddIn\ChartPeriodSummaryAddIn\OrderLineManDlg.cpp

; 140  : 		CString strCodeAndDateType = m_ctrlOLList.GetItemText(nItem, 1) + m_ctrlOLList.GetItemText(nItem, 3);

  00074	8b 75 dc	 mov	 esi, DWORD PTR _nOldPos$1$[ebp]
; File C:\Program Files (x86)\Microsoft Visual Studio\2019\Community\VC\Tools\MSVC\14.29.30133\atlmfc\include\afxcmn.inl

; 181  : 	{ ASSERT(::IsWindow(m_hWnd)); DWORD_PTR nOldPos = (DWORD_PTR)pos-1; pos = (POSITION)(DWORD_PTR)(1+GetNextItem((UINT)nOldPos, LVIS_SELECTED)); return (UINT)nOldPos; }

  00077	40		 inc	 eax
; File D:\git\src\IBK\IBK_DRFN\ProjSrc\SrcChartEx\ChartAddIn\ChartPeriodSummaryAddIn\OrderLineManDlg.cpp

; 140  : 		CString strCodeAndDateType = m_ctrlOLList.GetItemText(nItem, 1) + m_ctrlOLList.GetItemText(nItem, 3);

  00078	8b 4d ec	 mov	 ecx, DWORD PTR tv651[ebp]
  0007b	6a 03		 push	 3
; File C:\Program Files (x86)\Microsoft Visual Studio\2019\Community\VC\Tools\MSVC\14.29.30133\atlmfc\include\afxcmn.inl

; 181  : 	{ ASSERT(::IsWindow(m_hWnd)); DWORD_PTR nOldPos = (DWORD_PTR)pos-1; pos = (POSITION)(DWORD_PTR)(1+GetNextItem((UINT)nOldPos, LVIS_SELECTED)); return (UINT)nOldPos; }

  0007d	89 45 b4	 mov	 DWORD PTR _pos$1$[ebp], eax
; File D:\git\src\IBK\IBK_DRFN\ProjSrc\SrcChartEx\ChartAddIn\ChartPeriodSummaryAddIn\OrderLineManDlg.cpp

; 140  : 		CString strCodeAndDateType = m_ctrlOLList.GetItemText(nItem, 1) + m_ctrlOLList.GetItemText(nItem, 3);

  00080	8d 45 cc	 lea	 eax, DWORD PTR $T3[ebp]
  00083	56		 push	 esi
  00084	50		 push	 eax
  00085	e8 00 00 00 00	 call	 ?GetItemText@CListCtrl@@QBE?AV?$CStringT@DV?$StrTraitMFC_DLL@DV?$ChTraitsCRT@D@ATL@@@@@ATL@@HH@Z ; CListCtrl::GetItemText
  0008a	8b f8		 mov	 edi, eax
  0008c	8b 4d ec	 mov	 ecx, DWORD PTR tv651[ebp]
  0008f	8d 45 d0	 lea	 eax, DWORD PTR $T4[ebp]
  00092	6a 01		 push	 1
  00094	56		 push	 esi
  00095	50		 push	 eax
  00096	c7 45 fc 00 00
	00 00		 mov	 DWORD PTR __$EHRec$[ebp+8], 0
  0009d	e8 00 00 00 00	 call	 ?GetItemText@CListCtrl@@QBE?AV?$CStringT@DV?$StrTraitMFC_DLL@DV?$ChTraitsCRT@D@ATL@@@@@ATL@@HH@Z ; CListCtrl::GetItemText
  000a2	8b f0		 mov	 esi, eax
; File C:\Program Files (x86)\Microsoft Visual Studio\2019\Community\VC\Tools\MSVC\14.29.30133\atlmfc\include\cstringt.h

; 2390 : 		CStringT strResult( str1.GetManager() );

  000a4	8b ce		 mov	 ecx, esi
; File D:\git\src\IBK\IBK_DRFN\ProjSrc\SrcChartEx\ChartAddIn\ChartPeriodSummaryAddIn\OrderLineManDlg.cpp

; 140  : 		CString strCodeAndDateType = m_ctrlOLList.GetItemText(nItem, 1) + m_ctrlOLList.GetItemText(nItem, 3);

  000a6	c6 45 fc 02	 mov	 BYTE PTR __$EHRec$[ebp+8], 2
; File C:\Program Files (x86)\Microsoft Visual Studio\2019\Community\VC\Tools\MSVC\14.29.30133\atlmfc\include\cstringt.h

; 2390 : 		CStringT strResult( str1.GetManager() );

  000aa	ff 15 00 00 00
	00		 call	 DWORD PTR __imp_?GetManager@?$CStringT@DV?$StrTraitMFC_DLL@DV?$ChTraitsCRT@D@ATL@@@@@ATL@@QBEPAUIAtlStringMgr@2@XZ
  000b0	50		 push	 eax
  000b1	8d 4d f0	 lea	 ecx, DWORD PTR _strCodeAndDateType$8[ebp]
  000b4	ff 15 00 00 00
	00		 call	 DWORD PTR __imp_??0?$CStringT@DV?$StrTraitMFC_DLL@DV?$ChTraitsCRT@D@ATL@@@@@ATL@@QAE@PAUIAtlStringMgr@1@@Z
; File C:\Program Files (x86)\Microsoft Visual Studio\2019\Community\VC\Tools\MSVC\14.29.30133\atlmfc\include\atlsimpstr.h

; 519  : 		return( GetData()->nDataLength );

  000ba	8b 07		 mov	 eax, DWORD PTR [edi]
; File C:\Program Files (x86)\Microsoft Visual Studio\2019\Community\VC\Tools\MSVC\14.29.30133\atlmfc\include\cstringt.h

; 2394 : 		return( strResult );

  000bc	83 cb 01	 or	 ebx, 1
; File C:\Program Files (x86)\Microsoft Visual Studio\2019\Community\VC\Tools\MSVC\14.29.30133\atlmfc\include\atlsimpstr.h

; 519  : 		return( GetData()->nDataLength );

  000bf	8b 0e		 mov	 ecx, DWORD PTR [esi]
; File C:\Program Files (x86)\Microsoft Visual Studio\2019\Community\VC\Tools\MSVC\14.29.30133\atlmfc\include\cstringt.h

; 2394 : 		return( strResult );

  000c1	89 5d bc	 mov	 DWORD PTR $T2[ebp], ebx
  000c4	89 5d d4	 mov	 DWORD PTR $T5[ebp], ebx
  000c7	ff 70 f4	 push	 DWORD PTR [eax-12]
  000ca	50		 push	 eax
  000cb	ff 71 f4	 push	 DWORD PTR [ecx-12]
  000ce	8d 45 f0	 lea	 eax, DWORD PTR _strCodeAndDateType$8[ebp]
  000d1	51		 push	 ecx
  000d2	50		 push	 eax
  000d3	ff 15 00 00 00
	00		 call	 DWORD PTR __imp_?Concatenate@?$CSimpleStringT@D$00@ATL@@KAXAAV12@PBDH1H@Z
  000d9	83 c4 14	 add	 esp, 20			; 00000014H
; File D:\git\src\IBK\IBK_DRFN\ProjSrc\SrcChartEx\ChartAddIn\ChartPeriodSummaryAddIn\OrderLineManDlg.cpp

; 140  : 		CString strCodeAndDateType = m_ctrlOLList.GetItemText(nItem, 1) + m_ctrlOLList.GetItemText(nItem, 3);

  000dc	8d 4d d0	 lea	 ecx, DWORD PTR $T4[ebp]
  000df	ff 15 00 00 00
	00		 call	 DWORD PTR __imp_??1?$CStringT@DV?$StrTraitMFC_DLL@DV?$ChTraitsCRT@D@ATL@@@@@ATL@@QAE@XZ
  000e5	8d 4d cc	 lea	 ecx, DWORD PTR $T3[ebp]
  000e8	c6 45 fc 04	 mov	 BYTE PTR __$EHRec$[ebp+8], 4
  000ec	ff 15 00 00 00
	00		 call	 DWORD PTR __imp_??1?$CStringT@DV?$StrTraitMFC_DLL@DV?$ChTraitsCRT@D@ATL@@@@@ATL@@QAE@XZ

; 141  : 		POSITION pos2 = CChartOrderLineAddInImp::m_slSavedOrderLines.GetTailPosition();

  000f2	8b 3d 08 00 00
	00		 mov	 edi, DWORD PTR ?m_slSavedOrderLines@CChartOrderLineAddInImp@@2VCStringList@@A+8

; 142  : 		while(pos2)

  000f8	85 ff		 test	 edi, edi
  000fa	0f 84 e8 00 00
	00		 je	 $LN5@OnBtnDel
$LL4@OnBtnDel:
; File C:\Program Files (x86)\Microsoft Visual Studio\2019\Community\VC\Tools\MSVC\14.29.30133\atlmfc\include\afxcoll.inl

; 515  : 	{ CNode* pNode = (CNode*) rPosition;

  00100	8b c7		 mov	 eax, edi
; File D:\git\src\IBK\IBK_DRFN\ProjSrc\SrcChartEx\ChartAddIn\ChartPeriodSummaryAddIn\OrderLineManDlg.cpp

; 145  : 			CString strOrderLine = CChartOrderLineAddInImp::m_slSavedOrderLines.GetPrev(pos2);

  00102	8d 4d e0	 lea	 ecx, DWORD PTR _strOrderLine$6[ebp]
; File C:\Program Files (x86)\Microsoft Visual Studio\2019\Community\VC\Tools\MSVC\14.29.30133\atlmfc\include\afxcoll.inl

; 520  : 		return pNode->data; }

  00105	83 c0 08	 add	 eax, 8
; File D:\git\src\IBK\IBK_DRFN\ProjSrc\SrcChartEx\ChartAddIn\ChartPeriodSummaryAddIn\OrderLineManDlg.cpp

; 144  : 			POSITION posForDel = pos2;

  00108	8b f7		 mov	 esi, edi
; File C:\Program Files (x86)\Microsoft Visual Studio\2019\Community\VC\Tools\MSVC\14.29.30133\atlmfc\include\afxcoll.inl

; 519  : 		rPosition = (POSITION) pNode->pPrev;

  0010a	8b 7f 04	 mov	 edi, DWORD PTR [edi+4]
; File D:\git\src\IBK\IBK_DRFN\ProjSrc\SrcChartEx\ChartAddIn\ChartPeriodSummaryAddIn\OrderLineManDlg.cpp

; 145  : 			CString strOrderLine = CChartOrderLineAddInImp::m_slSavedOrderLines.GetPrev(pos2);

  0010d	50		 push	 eax
; File C:\Program Files (x86)\Microsoft Visual Studio\2019\Community\VC\Tools\MSVC\14.29.30133\atlmfc\include\afxcoll.inl

; 519  : 		rPosition = (POSITION) pNode->pPrev;

  0010e	89 7d c0	 mov	 DWORD PTR _pos2$1$[ebp], edi
; File D:\git\src\IBK\IBK_DRFN\ProjSrc\SrcChartEx\ChartAddIn\ChartPeriodSummaryAddIn\OrderLineManDlg.cpp

; 145  : 			CString strOrderLine = CChartOrderLineAddInImp::m_slSavedOrderLines.GetPrev(pos2);

  00111	ff 15 00 00 00
	00		 call	 DWORD PTR __imp_??0?$CStringT@DV?$StrTraitMFC_DLL@DV?$ChTraitsCRT@D@ATL@@@@@ATL@@QAE@ABV01@@Z

; 146  : 			if(strOrderLine.Find(strCodeAndDateType) >= 0)

  00117	6a 00		 push	 0
  00119	ff 75 f0	 push	 DWORD PTR _strCodeAndDateType$8[ebp]
  0011c	8d 4d e0	 lea	 ecx, DWORD PTR _strOrderLine$6[ebp]
  0011f	c6 45 fc 05	 mov	 BYTE PTR __$EHRec$[ebp+8], 5
  00123	ff 15 00 00 00
	00		 call	 DWORD PTR __imp_?Find@?$CStringT@DV?$StrTraitMFC_DLL@DV?$ChTraitsCRT@D@ATL@@@@@ATL@@QBEHPBDH@Z
  00129	85 c0		 test	 eax, eax
  0012b	0f 88 9f 00 00
	00		 js	 $LN48@OnBtnDel

; 147  : 			{
; 148  : 				CChartOrderLineAddInImp::m_slSavedOrderLines.RemoveAt(posForDel);

  00131	56		 push	 esi
  00132	b9 00 00 00 00	 mov	 ecx, OFFSET ?m_slSavedOrderLines@CChartOrderLineAddInImp@@2VCStringList@@A ; CChartOrderLineAddInImp::m_slSavedOrderLines
  00137	e8 00 00 00 00	 call	 ?RemoveAt@CStringList@@QAEXPAU__POSITION@@@Z ; CStringList::RemoveAt

; 149  : 				RemoveLIneFromObList(strCodeAndDateType);

  0013c	8d 45 f0	 lea	 eax, DWORD PTR _strCodeAndDateType$8[ebp]
  0013f	50		 push	 eax
  00140	8d 4d e4	 lea	 ecx, DWORD PTR $T7[ebp]
  00143	ff 15 00 00 00
	00		 call	 DWORD PTR __imp_??0?$CStringT@DV?$StrTraitMFC_DLL@DV?$ChTraitsCRT@D@ATL@@@@@ATL@@QAE@ABV01@@Z

; 219  : 	POSITION psnAddIn = CChartOrderLineAddInImp::m_alOrderLineAddInManager.GetHeadPosition();

  00149	8b 1d 04 00 00
	00		 mov	 ebx, DWORD PTR ?m_alOrderLineAddInManager@CChartOrderLineAddInImp@@2V?$CTypedPtrList@VCObList@@PAVCChartOrderLineAddInImp@@@@A+4
  0014f	c6 45 fc 06	 mov	 BYTE PTR __$EHRec$[ebp+8], 6

; 220  : 	while( psnAddIn)

  00153	85 db		 test	 ebx, ebx
  00155	74 70		 je	 SHORT $LN50@OnBtnDel
$LL49@OnBtnDel:

; 222  : 		CChartOrderLineAddInImp *pAddIn = CChartOrderLineAddInImp::m_alOrderLineAddInManager.GetNext( psnAddIn);

  00157	8b 73 08	 mov	 esi, DWORD PTR [ebx+8]
; File C:\Program Files (x86)\Microsoft Visual Studio\2019\Community\VC\Tools\MSVC\14.29.30133\atlmfc\include\afxcoll.inl

; 432  : 		rPosition = (POSITION) pNode->pNext;

  0015a	8b 1b		 mov	 ebx, DWORD PTR [ebx]
  0015c	89 5d e8	 mov	 DWORD PTR _psnAddIn$1$[ebp], ebx
; File D:\git\src\IBK\IBK_DRFN\ProjSrc\SrcChartEx\ChartAddIn\ChartPeriodSummaryAddIn\OrderLineManDlg.cpp

; 222  : 		CChartOrderLineAddInImp *pAddIn = CChartOrderLineAddInImp::m_alOrderLineAddInManager.GetNext( psnAddIn);

  0015f	89 75 c4	 mov	 DWORD PTR _pAddIn$1$[ebp], esi

; 223  : 		if( !pAddIn) return;

  00162	85 f6		 test	 esi, esi
  00164	74 5e		 je	 SHORT $LN113@OnBtnDel

; 224  : 		COLList *pLineList = pAddIn->GetLineList();						//  

  00166	8d 86 b4 00 00
	00		 lea	 eax, DWORD PTR [esi+180]

; 225  : 		POSITION pos = pLineList->GetHeadPosition();

  0016c	8b 70 04	 mov	 esi, DWORD PTR [eax+4]
  0016f	89 45 c8	 mov	 DWORD PTR _pLineList$1$[ebp], eax

; 226  : 		while (pos)

  00172	85 f6		 test	 esi, esi
  00174	74 3b		 je	 SHORT $LN52@OnBtnDel
$LL51@OnBtnDel:

; 227  : 		{
; 228  : 			POSITION pos2 = pos;	// 
; 229  : 			CLineObj* pLine = pLineList->GetNext(pos);

  00176	8b 7e 08	 mov	 edi, DWORD PTR [esi+8]
  00179	8b de		 mov	 ebx, esi
; File C:\Program Files (x86)\Microsoft Visual Studio\2019\Community\VC\Tools\MSVC\14.29.30133\atlmfc\include\afxcoll.inl

; 432  : 		rPosition = (POSITION) pNode->pNext;

  0017b	8b 36		 mov	 esi, DWORD PTR [esi]
; File D:\git\src\IBK\IBK_DRFN\ProjSrc\SrcChartEx\ChartAddIn\ChartPeriodSummaryAddIn\OrderLineManDlg.cpp

; 230  : 			if(pLine->m_strSerial.Find(strSerial) >= 0)

  0017d	6a 00		 push	 0
  0017f	ff 75 e4	 push	 DWORD PTR $T7[ebp]
  00182	8d 8f 30 01 00
	00		 lea	 ecx, DWORD PTR [edi+304]
  00188	ff 15 00 00 00
	00		 call	 DWORD PTR __imp_?Find@?$CStringT@DV?$StrTraitMFC_DLL@DV?$ChTraitsCRT@D@ATL@@@@@ATL@@QBEHPBDH@Z
  0018e	85 c0		 test	 eax, eax
  00190	79 06		 jns	 SHORT $LN99@OnBtnDel

; 226  : 		while (pos)

  00192	85 f6		 test	 esi, esi
  00194	75 e0		 jne	 SHORT $LL51@OnBtnDel
; File C:\Program Files (x86)\Microsoft Visual Studio\2019\Community\VC\Tools\MSVC\14.29.30133\atlmfc\include\afxcoll.inl

; 517  : 		if( pNode == NULL )

  00196	eb 16		 jmp	 SHORT $LN115@OnBtnDel
$LN99@OnBtnDel:
; File D:\git\src\IBK\IBK_DRFN\ProjSrc\SrcChartEx\ChartAddIn\ChartPeriodSummaryAddIn\OrderLineManDlg.cpp

; 232  : 				delete pLine;

  00198	85 ff		 test	 edi, edi
  0019a	74 09		 je	 SHORT $LN56@OnBtnDel
  0019c	8b 07		 mov	 eax, DWORD PTR [edi]
  0019e	8b cf		 mov	 ecx, edi
  001a0	6a 01		 push	 1
  001a2	ff 50 04	 call	 DWORD PTR [eax+4]
$LN56@OnBtnDel:

; 233  : 				pLine = NULL;
; 234  : 				pLineList->RemoveAt(pos2);

  001a5	8b 4d c8	 mov	 ecx, DWORD PTR _pLineList$1$[ebp]
  001a8	53		 push	 ebx
  001a9	e8 00 00 00 00	 call	 ?RemoveAt@CObList@@QAEXPAU__POSITION@@@Z ; CObList::RemoveAt
$LN115@OnBtnDel:
; File D:\git\src\IBK\IBK_DRFN\ProjSrc\SrcChartEx\ChartAddIn\ChartPeriodSummaryAddIn\ChartOrderLineAddInImp.h

; 74   : 	void		InvalidateControl( void)	{	if( m_pIChartOCX) m_pIChartOCX->InvalidateControl();	}

  001ae	8b 5d e8	 mov	 ebx, DWORD PTR _psnAddIn$1$[ebp]
$LN52@OnBtnDel:
  001b1	8b 4d c4	 mov	 ecx, DWORD PTR _pAddIn$1$[ebp]
  001b4	8b 49 0c	 mov	 ecx, DWORD PTR [ecx+12]
  001b7	85 c9		 test	 ecx, ecx
  001b9	74 05		 je	 SHORT $LN75@OnBtnDel
  001bb	8b 01		 mov	 eax, DWORD PTR [ecx]
  001bd	ff 50 38	 call	 DWORD PTR [eax+56]
$LN75@OnBtnDel:
; File D:\git\src\IBK\IBK_DRFN\ProjSrc\SrcChartEx\ChartAddIn\ChartPeriodSummaryAddIn\OrderLineManDlg.cpp

; 220  : 	while( psnAddIn)

  001c0	85 db		 test	 ebx, ebx
  001c2	75 93		 jne	 SHORT $LL49@OnBtnDel
$LN113@OnBtnDel:
  001c4	8b 7d c0	 mov	 edi, DWORD PTR _pos2$1$[ebp]
$LN50@OnBtnDel:

; 235  : 				break;
; 236  : 			}
; 237  : 		}
; 238  : 
; 239  : 		pAddIn->InvalidateControl();
; 240  : 	}
; 241  : }

  001c7	8d 4d e4	 lea	 ecx, DWORD PTR $T7[ebp]
  001ca	ff 15 00 00 00
	00		 call	 DWORD PTR __imp_??1?$CStringT@DV?$StrTraitMFC_DLL@DV?$ChTraitsCRT@D@ATL@@@@@ATL@@QAE@XZ
$LN48@OnBtnDel:

; 150  : 			}
; 151  : 		}			

  001d0	8d 4d e0	 lea	 ecx, DWORD PTR _strOrderLine$6[ebp]
  001d3	c6 45 fc 04	 mov	 BYTE PTR __$EHRec$[ebp+8], 4
  001d7	ff 15 00 00 00
	00		 call	 DWORD PTR __imp_??1?$CStringT@DV?$StrTraitMFC_DLL@DV?$ChTraitsCRT@D@ATL@@@@@ATL@@QAE@XZ
  001dd	85 ff		 test	 edi, edi
  001df	0f 85 1b ff ff
	ff		 jne	 $LL4@OnBtnDel
  001e5	8b 5d bc	 mov	 ebx, DWORD PTR $T2[ebp]
$LN5@OnBtnDel:
; File C:\Program Files (x86)\Microsoft Visual Studio\2019\Community\VC\Tools\MSVC\14.29.30133\atlmfc\include\afxcmn.inl

; 169  : 	{ ASSERT(::IsWindow(m_hWnd)); return (BOOL) ::SendMessage(m_hWnd, LVM_DELETEITEM, nItem, 0L); }

  001e8	8b 75 b8	 mov	 esi, DWORD PTR _this$1$[ebp]
  001eb	8b 3d 00 00 00
	00		 mov	 edi, DWORD PTR __imp__SendMessageA@16
  001f1	6a 00		 push	 0
  001f3	ff 75 dc	 push	 DWORD PTR _nOldPos$1$[ebp]
  001f6	68 08 10 00 00	 push	 4104			; 00001008H
  001fb	ff b6 d0 00 00
	00		 push	 DWORD PTR [esi+208]
  00201	ff d7		 call	 edi
; File D:\git\src\IBK\IBK_DRFN\ProjSrc\SrcChartEx\ChartAddIn\ChartPeriodSummaryAddIn\OrderLineManDlg.cpp

; 153  : 	}

  00203	8d 4d f0	 lea	 ecx, DWORD PTR _strCodeAndDateType$8[ebp]
  00206	c7 45 fc ff ff
	ff ff		 mov	 DWORD PTR __$EHRec$[ebp+8], -1
  0020d	83 e3 fe	 and	 ebx, -2			; fffffffeH
  00210	ff 15 00 00 00
	00		 call	 DWORD PTR __imp_??1?$CStringT@DV?$StrTraitMFC_DLL@DV?$ChTraitsCRT@D@ATL@@@@@ATL@@QAE@XZ
  00216	8b 45 b4	 mov	 eax, DWORD PTR _pos$1$[ebp]
  00219	85 c0		 test	 eax, eax
  0021b	0f 85 3f fe ff
	ff		 jne	 $LL2@OnBtnDel
$LN3@OnBtnDel:

; 154  : 
; 155  : 	CString strFileName = m_strUserPath + OL_FILE;

  00221	68 00 00 00 00	 push	 OFFSET ??_C@_0O@FOJMFFPA@OrderLine?4cfg@
  00226	8d 86 a8 00 00
	00		 lea	 eax, DWORD PTR [esi+168]
  0022c	50		 push	 eax
  0022d	8d 45 d8	 lea	 eax, DWORD PTR _strFileName$[ebp]
  00230	50		 push	 eax
  00231	e8 00 00 00 00	 call	 ??HATL@@YA?AV?$CStringT@DV?$StrTraitMFC_DLL@DV?$ChTraitsCRT@D@ATL@@@@@0@ABV10@PBD@Z ; ATL::operator+
  00236	83 c4 0c	 add	 esp, 12			; 0000000cH

; 156  : 
; 157  : 	CFile f;

  00239	8d 4d a0	 lea	 ecx, DWORD PTR _f$[ebp]
  0023c	c7 45 fc 07 00
	00 00		 mov	 DWORD PTR __$EHRec$[ebp+8], 7
  00243	e8 00 00 00 00	 call	 ??0CFile@@QAE@XZ	; CFile::CFile

; 158  : 	//if( !f.Open( strFileName, CFile::modeWrite ) ) {
; 159  : 	if( !f.Open( strFileName, CFile::modeCreate | CFile::modeWrite ) ) {

  00248	6a 00		 push	 0
  0024a	68 01 10 00 00	 push	 4097			; 00001001H
  0024f	ff 75 d8	 push	 DWORD PTR _strFileName$[ebp]
  00252	8d 4d a0	 lea	 ecx, DWORD PTR _f$[ebp]
  00255	c6 45 fc 08	 mov	 BYTE PTR __$EHRec$[ebp+8], 8
  00259	e8 00 00 00 00	 call	 ?Open@CFile@@UAEHPBDIPAVCFileException@@@Z ; CFile::Open
  0025e	85 c0		 test	 eax, eax
  00260	74 38		 je	 SHORT $LN17@OnBtnDel

; 160  : 		  return;
; 161  : 	}
; 162  : 	CArchive ar( &f, CArchive::store);

  00262	6a 00		 push	 0
  00264	68 00 10 00 00	 push	 4096			; 00001000H
  00269	6a 00		 push	 0
  0026b	8d 45 a0	 lea	 eax, DWORD PTR _f$[ebp]
  0026e	50		 push	 eax
  0026f	8d 8d 58 ff ff
	ff		 lea	 ecx, DWORD PTR _ar$[ebp]
  00275	e8 00 00 00 00	 call	 ??0CArchive@@QAE@PAVCFile@@IHPAX@Z ; CArchive::CArchive

; 163  : 
; 164  : 	CChartOrderLineAddInImp::m_slSavedOrderLines.Serialize(ar);

  0027a	8d 85 58 ff ff
	ff		 lea	 eax, DWORD PTR _ar$[ebp]
  00280	c6 45 fc 09	 mov	 BYTE PTR __$EHRec$[ebp+8], 9
  00284	50		 push	 eax
  00285	b9 00 00 00 00	 mov	 ecx, OFFSET ?m_slSavedOrderLines@CChartOrderLineAddInImp@@2VCStringList@@A ; CChartOrderLineAddInImp::m_slSavedOrderLines
  0028a	e8 00 00 00 00	 call	 ?Serialize@CStringList@@UAEXAAVCArchive@@@Z ; CStringList::Serialize

; 165  : 	
; 166  : }

  0028f	8d 8d 58 ff ff
	ff		 lea	 ecx, DWORD PTR _ar$[ebp]
  00295	e8 00 00 00 00	 call	 ??1CArchive@@QAE@XZ	; CArchive::~CArchive
$LN17@OnBtnDel:
  0029a	8d 4d a0	 lea	 ecx, DWORD PTR _f$[ebp]
  0029d	e8 00 00 00 00	 call	 ??1CFile@@UAE@XZ	; CFile::~CFile
  002a2	8d 4d d8	 lea	 ecx, DWORD PTR _strFileName$[ebp]
  002a5	ff 15 00 00 00
	00		 call	 DWORD PTR __imp_??1?$CStringT@DV?$StrTraitMFC_DLL@DV?$ChTraitsCRT@D@ATL@@@@@ATL@@QAE@XZ
  002ab	8b 4d f4	 mov	 ecx, DWORD PTR __$EHRec$[ebp]
  002ae	64 89 0d 00 00
	00 00		 mov	 DWORD PTR fs:0, ecx
  002b5	59		 pop	 ecx
  002b6	5f		 pop	 edi
  002b7	5e		 pop	 esi
  002b8	5b		 pop	 ebx
  002b9	8b e5		 mov	 esp, ebp
  002bb	5d		 pop	 ebp
  002bc	c3		 ret	 0
_TEXT	ENDS
;	COMDAT text$x
text$x	SEGMENT
__unwindfunclet$?OnBtnDel@COrderLineManDlg@@IAEXXZ$0:
  00000	8d 4d cc	 lea	 ecx, DWORD PTR $T3[ebp]
  00003	ff 25 00 00 00
	00		 jmp	 DWORD PTR __imp_??1?$CStringT@DV?$StrTraitMFC_DLL@DV?$ChTraitsCRT@D@ATL@@@@@ATL@@QAE@XZ
__unwindfunclet$?OnBtnDel@COrderLineManDlg@@IAEXXZ$1:
  00009	8d 4d d0	 lea	 ecx, DWORD PTR $T4[ebp]
  0000c	ff 25 00 00 00
	00		 jmp	 DWORD PTR __imp_??1?$CStringT@DV?$StrTraitMFC_DLL@DV?$ChTraitsCRT@D@ATL@@@@@ATL@@QAE@XZ
__unwindfunclet$?OnBtnDel@COrderLineManDlg@@IAEXXZ$8:
  00012	8b 45 d4	 mov	 eax, DWORD PTR $T5[ebp]
  00015	83 e0 01	 and	 eax, 1
  00018	0f 84 0d 00 00
	00		 je	 $LN29@OnBtnDel
  0001e	83 65 d4 fe	 and	 DWORD PTR $T5[ebp], -2	; fffffffeH
  00022	8d 4d f0	 lea	 ecx, DWORD PTR _strCodeAndDateType$8[ebp]
  00025	ff 25 00 00 00
	00		 jmp	 DWORD PTR __imp_??1?$CStringT@DV?$StrTraitMFC_DLL@DV?$ChTraitsCRT@D@ATL@@@@@ATL@@QAE@XZ
$LN29@OnBtnDel:
  0002b	c3		 ret	 0
__unwindfunclet$?OnBtnDel@COrderLineManDlg@@IAEXXZ$3:
  0002c	8d 4d e0	 lea	 ecx, DWORD PTR _strOrderLine$6[ebp]
  0002f	ff 25 00 00 00
	00		 jmp	 DWORD PTR __imp_??1?$CStringT@DV?$StrTraitMFC_DLL@DV?$ChTraitsCRT@D@ATL@@@@@ATL@@QAE@XZ
__unwindfunclet$?OnBtnDel@COrderLineManDlg@@IAEXXZ$9:
  00035	8d 4d e4	 lea	 ecx, DWORD PTR $T7[ebp]
  00038	ff 25 00 00 00
	00		 jmp	 DWORD PTR __imp_??1?$CStringT@DV?$StrTraitMFC_DLL@DV?$ChTraitsCRT@D@ATL@@@@@ATL@@QAE@XZ
__unwindfunclet$?OnBtnDel@COrderLineManDlg@@IAEXXZ$5:
  0003e	8d 4d d8	 lea	 ecx, DWORD PTR _strFileName$[ebp]
  00041	ff 25 00 00 00
	00		 jmp	 DWORD PTR __imp_??1?$CStringT@DV?$StrTraitMFC_DLL@DV?$ChTraitsCRT@D@ATL@@@@@ATL@@QAE@XZ
__unwindfunclet$?OnBtnDel@COrderLineManDlg@@IAEXXZ$6:
  00047	8d 4d a0	 lea	 ecx, DWORD PTR _f$[ebp]
  0004a	e9 00 00 00 00	 jmp	 ??1CFile@@UAE@XZ	; CFile::~CFile
__unwindfunclet$?OnBtnDel@COrderLineManDlg@@IAEXXZ$7:
  0004f	8d 8d 58 ff ff
	ff		 lea	 ecx, DWORD PTR _ar$[ebp]
  00055	e9 00 00 00 00	 jmp	 ??1CArchive@@QAE@XZ	; CArchive::~CArchive
  0005a	cc		 int	 3
  0005b	cc		 int	 3
  0005c	cc		 int	 3
  0005d	cc		 int	 3
  0005e	cc		 int	 3
__ehhandler$?OnBtnDel@COrderLineManDlg@@IAEXXZ:
  0005f	90		 npad	 1
  00060	90		 npad	 1
  00061	8b 54 24 08	 mov	 edx, DWORD PTR [esp+8]
  00065	8d 42 0c	 lea	 eax, DWORD PTR [edx+12]
  00068	8b 8a 54 ff ff
	ff		 mov	 ecx, DWORD PTR [edx-172]
  0006e	33 c8		 xor	 ecx, eax
  00070	e8 00 00 00 00	 call	 @__security_check_cookie@4
  00075	b8 00 00 00 00	 mov	 eax, OFFSET __ehfuncinfo$?OnBtnDel@COrderLineManDlg@@IAEXXZ
  0007a	e9 00 00 00 00	 jmp	 ___CxxFrameHandler3
text$x	ENDS
?OnBtnDel@COrderLineManDlg@@IAEXXZ ENDP			; COrderLineManDlg::OnBtnDel
; Function compile flags: /Ogtp
; File D:\git\src\IBK\IBK_DRFN\ProjSrc\SrcChartEx\ChartAddIn\ChartPeriodSummaryAddIn\OrderLineManDlg.cpp
; File C:\Program Files (x86)\Microsoft Visual Studio\2019\Community\VC\Tools\MSVC\14.29.30133\atlmfc\include\afxcmn2.inl
; File D:\git\src\IBK\IBK_DRFN\ProjSrc\SrcChartEx\ChartAddIn\ChartPeriodSummaryAddIn\OrderLineManDlg.cpp
; File C:\Program Files (x86)\Microsoft Visual Studio\2019\Community\VC\Tools\MSVC\14.29.30133\atlmfc\include\afxcmn2.inl
; File D:\git\src\IBK\IBK_DRFN\ProjSrc\SrcChartEx\ChartAddIn\ChartPeriodSummaryAddIn\OrderLineManDlg.cpp
; File C:\Program Files (x86)\Microsoft Visual Studio\2019\Community\VC\Tools\MSVC\14.29.30133\atlmfc\include\afxcmn.inl
; File D:\git\src\IBK\IBK_DRFN\ProjSrc\SrcChartEx\ChartAddIn\ChartPeriodSummaryAddIn\OrderLineManDlg.cpp
; File C:\Program Files (x86)\Microsoft Visual Studio\2019\Community\VC\Tools\MSVC\14.29.30133\atlmfc\include\afxcoll.inl
; File D:\git\src\IBK\IBK_DRFN\ProjSrc\SrcChartEx\ChartAddIn\ChartPeriodSummaryAddIn\OrderLineManDlg.cpp
; File C:\Program Files (x86)\Microsoft Visual Studio\2019\Community\VC\Tools\MSVC\14.29.30133\atlmfc\include\afxcoll.inl
; File D:\git\src\IBK\IBK_DRFN\ProjSrc\SrcChartEx\ChartAddIn\ChartPeriodSummaryAddIn\OrderLineManDlg.cpp
; File C:\Program Files (x86)\Microsoft Visual Studio\2019\Community\VC\Tools\MSVC\14.29.30133\atlmfc\include\afxcoll.inl
; File D:\git\src\IBK\IBK_DRFN\ProjSrc\SrcChartEx\ChartAddIn\ChartPeriodSummaryAddIn\OrderLineManDlg.cpp
; File C:\Program Files (x86)\Microsoft Visual Studio\2019\Community\VC\Tools\MSVC\14.29.30133\atlmfc\include\atlsimpstr.h
; File D:\git\src\IBK\IBK_DRFN\ProjSrc\SrcChartEx\ChartAddIn\ChartPeriodSummaryAddIn\OrderLineManDlg.cpp
; File C:\Program Files (x86)\Microsoft Visual Studio\2019\Community\VC\Tools\MSVC\14.29.30133\atlmfc\include\atlsimpstr.h
; File D:\git\src\IBK\IBK_DRFN\ProjSrc\SrcChartEx\ChartAddIn\ChartPeriodSummaryAddIn\OrderLineManDlg.cpp
; File C:\Program Files (x86)\Microsoft Visual Studio\2019\Community\VC\Tools\MSVC\14.29.30133\atlmfc\include\afxcmn.inl
; File D:\git\src\IBK\IBK_DRFN\ProjSrc\SrcChartEx\ChartAddIn\ChartPeriodSummaryAddIn\OrderLineManDlg.cpp
; File C:\Program Files (x86)\Microsoft Visual Studio\2019\Community\VC\Tools\MSVC\14.29.30133\atlmfc\include\afxcmn.inl
; File D:\git\src\IBK\IBK_DRFN\ProjSrc\SrcChartEx\ChartAddIn\ChartPeriodSummaryAddIn\OrderLineManDlg.cpp
; File C:\Program Files (x86)\Microsoft Visual Studio\2019\Community\VC\Tools\MSVC\14.29.30133\atlmfc\include\afxcmn.inl
; File D:\git\src\IBK\IBK_DRFN\ProjSrc\SrcChartEx\ChartAddIn\ChartPeriodSummaryAddIn\OrderLineManDlg.cpp
; File C:\Program Files (x86)\Microsoft Visual Studio\2019\Community\VC\Tools\MSVC\14.29.30133\atlmfc\include\cstringt.h
; File D:\git\src\IBK\IBK_DRFN\ProjSrc\SrcChartEx\ChartAddIn\ChartPeriodSummaryAddIn\OrderLineManDlg.cpp
; File C:\Program Files (x86)\Microsoft Visual Studio\2019\Community\VC\Tools\MSVC\14.29.30133\atlmfc\include\cstringt.h
; File C:\Program Files (x86)\Microsoft Visual Studio\2019\Community\VC\Tools\MSVC\14.29.30133\atlmfc\include\atlsimpstr.h
; File C:\Program Files (x86)\Microsoft Visual Studio\2019\Community\VC\Tools\MSVC\14.29.30133\atlmfc\include\cstringt.h
; File C:\Program Files (x86)\Microsoft Visual Studio\2019\Community\VC\Tools\MSVC\14.29.30133\atlmfc\include\atlsimpstr.h
; File C:\Program Files (x86)\Microsoft Visual Studio\2019\Community\VC\Tools\MSVC\14.29.30133\atlmfc\include\cstringt.h
; File D:\git\src\IBK\IBK_DRFN\ProjSrc\SrcChartEx\ChartAddIn\ChartPeriodSummaryAddIn\OrderLineManDlg.cpp
; File C:\Program Files (x86)\Microsoft Visual Studio\2019\Community\VC\Tools\MSVC\14.29.30133\atlmfc\include\cstringt.h
; File D:\git\src\IBK\IBK_DRFN\ProjSrc\SrcChartEx\ChartAddIn\ChartPeriodSummaryAddIn\OrderLineManDlg.cpp
; File C:\Program Files (x86)\Microsoft Visual Studio\2019\Community\VC\Tools\MSVC\14.29.30133\atlmfc\include\afxcmn.inl
; File D:\git\src\IBK\IBK_DRFN\ProjSrc\SrcChartEx\ChartAddIn\ChartPeriodSummaryAddIn\OrderLineManDlg.cpp
; File C:\Program Files (x86)\Microsoft Visual Studio\2019\Community\VC\Tools\MSVC\14.29.30133\atlmfc\include\afxcmn.inl
; File D:\git\src\IBK\IBK_DRFN\ProjSrc\SrcChartEx\ChartAddIn\ChartPeriodSummaryAddIn\OrderLineManDlg.cpp
; File C:\Program Files (x86)\Microsoft Visual Studio\2019\Community\VC\Tools\MSVC\14.29.30133\atlmfc\include\afxcmn.inl
; File D:\git\src\IBK\IBK_DRFN\ProjSrc\SrcChartEx\ChartAddIn\ChartPeriodSummaryAddIn\OrderLineManDlg.cpp
; File C:\Program Files (x86)\Microsoft Visual Studio\2019\Community\VC\Tools\MSVC\14.29.30133\atlmfc\include\afxcmn.inl
; File D:\git\src\IBK\IBK_DRFN\ProjSrc\SrcChartEx\ChartAddIn\ChartPeriodSummaryAddIn\OrderLineManDlg.cpp
; File C:\Program Files (x86)\Microsoft Visual Studio\2019\Community\VC\Tools\MSVC\14.29.30133\atlmfc\include\afxcmn.inl
; File D:\git\src\IBK\IBK_DRFN\ProjSrc\SrcChartEx\ChartAddIn\ChartPeriodSummaryAddIn\OrderLineManDlg.cpp
;	COMDAT ?OnInitDialog@COrderLineManDlg@@MAEHXZ
_TEXT	SEGMENT
_pos$1$ = -92						; size = 4
$T2 = -88						; size = 4
$T3 = -84						; size = 4
$T4 = -80						; size = 4
$T5 = -76						; size = 4
$T6 = -72						; size = 4
$T7 = -68						; size = 4
$T8 = -64						; size = 4
$T9 = -60						; size = 4
_strSerial$10 = -56					; size = 4
_i$1$ = -52						; size = 4
_nCnt$1$ = -52						; size = 4
tv805 = -48						; size = 4
$T11 = -44						; size = 4
_this$1$ = -40						; size = 4
$T12 = -36						; size = 4
$T13 = -32						; size = 4
_iStart$14 = -28					; size = 4
_s$15 = -24						; size = 4
_strLineInfo$ = -20					; size = 4
_strTemp$ = -16						; size = 4
__$EHRec$ = -12						; size = 12
?OnInitDialog@COrderLineManDlg@@MAEHXZ PROC		; COrderLineManDlg::OnInitDialog, COMDAT
; _this$ = ecx

; 49   : {

  00000	55		 push	 ebp
  00001	8b ec		 mov	 ebp, esp
  00003	6a ff		 push	 -1
  00005	68 00 00 00 00	 push	 __ehhandler$?OnInitDialog@COrderLineManDlg@@MAEHXZ
  0000a	64 a1 00 00 00
	00		 mov	 eax, DWORD PTR fs:0
  00010	50		 push	 eax
  00011	83 ec 50	 sub	 esp, 80			; 00000050H
  00014	53		 push	 ebx
  00015	56		 push	 esi
  00016	57		 push	 edi
  00017	a1 00 00 00 00	 mov	 eax, DWORD PTR ___security_cookie
  0001c	33 c5		 xor	 eax, ebp
  0001e	50		 push	 eax
  0001f	8d 45 f4	 lea	 eax, DWORD PTR __$EHRec$[ebp]
  00022	64 a3 00 00 00
	00		 mov	 DWORD PTR fs:0, eax
  00028	8b f9		 mov	 edi, ecx
  0002a	89 7d d8	 mov	 DWORD PTR _this$1$[ebp], edi
  0002d	33 c0		 xor	 eax, eax
  0002f	89 45 e0	 mov	 DWORD PTR $T13[ebp], eax
  00032	89 45 c4	 mov	 DWORD PTR $T9[ebp], eax

; 50   : 	CDialog::OnInitDialog();

  00035	e8 00 00 00 00	 call	 ?OnInitDialog@CDialog@@UAEHXZ ; CDialog::OnInitDialog
; File C:\Program Files (x86)\Microsoft Visual Studio\2019\Community\VC\Tools\MSVC\14.29.30133\atlmfc\include\afxcmn2.inl

; 131  : 	{ ASSERT(::IsWindow(m_hWnd)); return (DWORD) ::SendMessage(m_hWnd, LVM_GETEXTENDEDLISTVIEWSTYLE, 0, 0); }

  0003a	8b 35 00 00 00
	00		 mov	 esi, DWORD PTR __imp__SendMessageA@16
  00040	6a 00		 push	 0
  00042	6a 00		 push	 0
  00044	68 37 10 00 00	 push	 4151			; 00001037H
  00049	ff b7 d0 00 00
	00		 push	 DWORD PTR [edi+208]
  0004f	ff d6		 call	 esi
; File D:\git\src\IBK\IBK_DRFN\ProjSrc\SrcChartEx\ChartAddIn\ChartPeriodSummaryAddIn\OrderLineManDlg.cpp

; 54   : 	dwNewStyle |= LVS_EX_FULLROWSELECT;

  00051	83 c8 20	 or	 eax, 32			; 00000020H
; File C:\Program Files (x86)\Microsoft Visual Studio\2019\Community\VC\Tools\MSVC\14.29.30133\atlmfc\include\afxcmn2.inl

; 117  : 	{ ASSERT(::IsWindow(m_hWnd)); return (DWORD) ::SendMessage(m_hWnd, LVM_SETEXTENDEDLISTVIEWSTYLE, 0, (LPARAM) dwNewStyle); }

  00054	50		 push	 eax
  00055	6a 00		 push	 0
  00057	68 36 10 00 00	 push	 4150			; 00001036H
  0005c	ff b7 d0 00 00
	00		 push	 DWORD PTR [edi+208]
  00062	ff d6		 call	 esi
; File D:\git\src\IBK\IBK_DRFN\ProjSrc\SrcChartEx\ChartAddIn\ChartPeriodSummaryAddIn\OrderLineManDlg.cpp

; 57   : 	CString strTemp;

  00064	8d 4d f0	 lea	 ecx, DWORD PTR _strTemp$[ebp]
  00067	ff 15 00 00 00
	00		 call	 DWORD PTR __imp_??0?$CStringT@DV?$StrTraitMFC_DLL@DV?$ChTraitsCRT@D@ATL@@@@@ATL@@QAE@XZ

; 58   : 
; 59   : 	m_ctrlOLList.InsertColumn(0, "NO");

  0006d	6a ff		 push	 -1
  0006f	6a ff		 push	 -1
  00071	6a 00		 push	 0
  00073	8d 9f b0 00 00
	00		 lea	 ebx, DWORD PTR [edi+176]
  00079	c7 45 fc 00 00
	00 00		 mov	 DWORD PTR __$EHRec$[ebp+8], 0
  00080	68 00 00 00 00	 push	 OFFSET ??_C@_02NFLNFON@NO@
  00085	6a 00		 push	 0
  00087	8b cb		 mov	 ecx, ebx
  00089	89 5d d0	 mov	 DWORD PTR tv805[ebp], ebx
  0008c	e8 00 00 00 00	 call	 ?InsertColumn@CListCtrl@@QAEHHPBDHHH@Z ; CListCtrl::InsertColumn

; 60   : 
; 61   : 	// m_ctrlOLList.InsertColumn(1, "");
; 62   : 	strTemp.LoadString(IDS_ISSUE_CODE);

  00091	68 67 a1 00 00	 push	 41319			; 0000a167H
  00096	8d 4d f0	 lea	 ecx, DWORD PTR _strTemp$[ebp]
  00099	ff 15 00 00 00
	00		 call	 DWORD PTR __imp_?LoadStringA@?$CStringT@DV?$StrTraitMFC_DLL@DV?$ChTraitsCRT@D@ATL@@@@@ATL@@QAEHI@Z

; 63   : 	m_ctrlOLList.InsertColumn(1, strTemp);

  0009f	6a ff		 push	 -1
  000a1	6a ff		 push	 -1
  000a3	6a 00		 push	 0
  000a5	ff 75 f0	 push	 DWORD PTR _strTemp$[ebp]
  000a8	8b cb		 mov	 ecx, ebx
  000aa	6a 01		 push	 1
  000ac	e8 00 00 00 00	 call	 ?InsertColumn@CListCtrl@@QAEHHPBDHHH@Z ; CListCtrl::InsertColumn

; 64   : 	// m_ctrlOLList.InsertColumn(2, "");
; 65   : 	strTemp.LoadString(IDS_ISSUE_NAME);

  000b1	68 66 a1 00 00	 push	 41318			; 0000a166H
  000b6	8d 4d f0	 lea	 ecx, DWORD PTR _strTemp$[ebp]
  000b9	ff 15 00 00 00
	00		 call	 DWORD PTR __imp_?LoadStringA@?$CStringT@DV?$StrTraitMFC_DLL@DV?$ChTraitsCRT@D@ATL@@@@@ATL@@QAEHI@Z

; 66   : 	m_ctrlOLList.InsertColumn(2, strTemp);

  000bf	6a ff		 push	 -1
  000c1	6a ff		 push	 -1
  000c3	6a 00		 push	 0
  000c5	ff 75 f0	 push	 DWORD PTR _strTemp$[ebp]
  000c8	8b cb		 mov	 ecx, ebx
  000ca	6a 02		 push	 2
  000cc	e8 00 00 00 00	 call	 ?InsertColumn@CListCtrl@@QAEHHPBDHHH@Z ; CListCtrl::InsertColumn

; 67   : 	// m_ctrlOLList.InsertColumn(3, "");
; 68   : 	strTemp.LoadString(IDS_BASIC_BONG);

  000d1	68 5f a1 00 00	 push	 41311			; 0000a15fH
  000d6	8d 4d f0	 lea	 ecx, DWORD PTR _strTemp$[ebp]
  000d9	ff 15 00 00 00
	00		 call	 DWORD PTR __imp_?LoadStringA@?$CStringT@DV?$StrTraitMFC_DLL@DV?$ChTraitsCRT@D@ATL@@@@@ATL@@QAEHI@Z

; 69   : 	m_ctrlOLList.InsertColumn(3, strTemp);

  000df	6a ff		 push	 -1
  000e1	6a ff		 push	 -1
  000e3	6a 00		 push	 0
  000e5	ff 75 f0	 push	 DWORD PTR _strTemp$[ebp]
  000e8	8b cb		 mov	 ecx, ebx
  000ea	6a 03		 push	 3
  000ec	e8 00 00 00 00	 call	 ?InsertColumn@CListCtrl@@QAEHHPBDHHH@Z ; CListCtrl::InsertColumn

; 70   : 	// m_ctrlOLList.InsertColumn(4, "");
; 71   : 	strTemp.LoadString(IDS_NUMBER);

  000f1	68 5e a1 00 00	 push	 41310			; 0000a15eH
  000f6	8d 4d f0	 lea	 ecx, DWORD PTR _strTemp$[ebp]
  000f9	ff 15 00 00 00
	00		 call	 DWORD PTR __imp_?LoadStringA@?$CStringT@DV?$StrTraitMFC_DLL@DV?$ChTraitsCRT@D@ATL@@@@@ATL@@QAEHI@Z

; 72   : 	m_ctrlOLList.InsertColumn(4, strTemp);

  000ff	6a ff		 push	 -1
  00101	6a ff		 push	 -1
  00103	6a 00		 push	 0
  00105	ff 75 f0	 push	 DWORD PTR _strTemp$[ebp]
  00108	8b cb		 mov	 ecx, ebx
  0010a	6a 04		 push	 4
  0010c	e8 00 00 00 00	 call	 ?InsertColumn@CListCtrl@@QAEHHPBDHHH@Z ; CListCtrl::InsertColumn
; File C:\Program Files (x86)\Microsoft Visual Studio\2019\Community\VC\Tools\MSVC\14.29.30133\atlmfc\include\afxcmn.inl

; 215  : 	{ ASSERT(::IsWindow(m_hWnd)); return (BOOL) ::SendMessage(m_hWnd, LVM_SETCOLUMNWIDTH, nCol, MAKELPARAM(cx, 0)); }

  00111	6a 1e		 push	 30			; 0000001eH
  00113	6a 00		 push	 0
  00115	68 1e 10 00 00	 push	 4126			; 0000101eH
  0011a	ff b7 d0 00 00
	00		 push	 DWORD PTR [edi+208]
  00120	ff d6		 call	 esi
  00122	6a 46		 push	 70			; 00000046H
  00124	6a 01		 push	 1
  00126	68 1e 10 00 00	 push	 4126			; 0000101eH
  0012b	ff b7 d0 00 00
	00		 push	 DWORD PTR [edi+208]
  00131	ff d6		 call	 esi
  00133	6a 45		 push	 69			; 00000045H
  00135	6a 02		 push	 2
  00137	68 1e 10 00 00	 push	 4126			; 0000101eH
  0013c	ff b7 d0 00 00
	00		 push	 DWORD PTR [edi+208]
  00142	ff d6		 call	 esi
  00144	6a 32		 push	 50			; 00000032H
  00146	6a 03		 push	 3
  00148	68 1e 10 00 00	 push	 4126			; 0000101eH
  0014d	ff b7 d0 00 00
	00		 push	 DWORD PTR [edi+208]
  00153	ff d6		 call	 esi
  00155	6a 28		 push	 40			; 00000028H
  00157	6a 04		 push	 4
  00159	68 1e 10 00 00	 push	 4126			; 0000101eH
  0015e	ff b7 d0 00 00
	00		 push	 DWORD PTR [edi+208]
  00164	ff d6		 call	 esi
; File D:\git\src\IBK\IBK_DRFN\ProjSrc\SrcChartEx\ChartAddIn\ChartPeriodSummaryAddIn\OrderLineManDlg.cpp

; 85   : 	CString strLineInfo;

  00166	8d 4d ec	 lea	 ecx, DWORD PTR _strLineInfo$[ebp]
  00169	ff 15 00 00 00
	00		 call	 DWORD PTR __imp_??0?$CStringT@DV?$StrTraitMFC_DLL@DV?$ChTraitsCRT@D@ATL@@@@@ATL@@QAE@XZ

; 86   : 
; 87   : 	int nCnt = 0;
; 88   : 
; 89   : //	CString strFileName = m_strUserPath + OL_FILE;
; 90   : 
; 91   : //	CFile f;
; 92   : //	if( !f.Open( strFileName, CFile::modeRead ) ) {
; 93   : //		  return FALSE;
; 94   : //	}
; 95   : //	CArchive ar( &f, CArchive::load);
; 96   : 
; 97   : //	CChartOrderLineAddInImp::m_slSavedOrderLines.Serialize(ar);
; 98   : 	//  
; 99   : 	POSITION pos = CChartOrderLineAddInImp::m_slSavedOrderLines.GetHeadPosition();

  0016f	8b 35 04 00 00
	00		 mov	 esi, DWORD PTR ?m_slSavedOrderLines@CChartOrderLineAddInImp@@2VCStringList@@A+4
  00175	c6 45 fc 01	 mov	 BYTE PTR __$EHRec$[ebp+8], 1

; 100  : 	while (pos)

  00179	85 f6		 test	 esi, esi
  0017b	0f 84 49 03 00
	00		 je	 $LN3@OnInitDial
  00181	0f 1f 40 00 66
	66 66 0f 1f 84
	00 00 00 00 00	 npad	 15
$LL2@OnInitDial:

; 103  : 		CString s;

  00190	8d 4d e8	 lea	 ecx, DWORD PTR _s$15[ebp]
  00193	c7 45 e4 00 00
	00 00		 mov	 DWORD PTR _iStart$14[ebp], 0
  0019a	ff 15 00 00 00
	00		 call	 DWORD PTR __imp_??0?$CStringT@DV?$StrTraitMFC_DLL@DV?$ChTraitsCRT@D@ATL@@@@@ATL@@QAE@XZ
; File C:\Program Files (x86)\Microsoft Visual Studio\2019\Community\VC\Tools\MSVC\14.29.30133\atlmfc\include\afxcoll.inl

; 501  : 	{ CNode* pNode = (CNode*) rPosition;

  001a0	8b c6		 mov	 eax, esi
; File D:\git\src\IBK\IBK_DRFN\ProjSrc\SrcChartEx\ChartAddIn\ChartPeriodSummaryAddIn\OrderLineManDlg.cpp

; 103  : 		CString s;

  001a2	c6 45 fc 02	 mov	 BYTE PTR __$EHRec$[ebp+8], 2
; File C:\Program Files (x86)\Microsoft Visual Studio\2019\Community\VC\Tools\MSVC\14.29.30133\atlmfc\include\afxcoll.inl

; 505  : 		rPosition = (POSITION) pNode->pNext;

  001a6	8b 36		 mov	 esi, DWORD PTR [esi]
; File D:\git\src\IBK\IBK_DRFN\ProjSrc\SrcChartEx\ChartAddIn\ChartPeriodSummaryAddIn\OrderLineManDlg.cpp

; 104  : 		strLineInfo = CChartOrderLineAddInImp::m_slSavedOrderLines.GetNext(pos);

  001a8	8d 4d ec	 lea	 ecx, DWORD PTR _strLineInfo$[ebp]
; File C:\Program Files (x86)\Microsoft Visual Studio\2019\Community\VC\Tools\MSVC\14.29.30133\atlmfc\include\afxcoll.inl

; 506  : 		return pNode->data; }

  001ab	83 c0 08	 add	 eax, 8
  001ae	89 75 a4	 mov	 DWORD PTR _pos$1$[ebp], esi
; File D:\git\src\IBK\IBK_DRFN\ProjSrc\SrcChartEx\ChartAddIn\ChartPeriodSummaryAddIn\OrderLineManDlg.cpp

; 104  : 		strLineInfo = CChartOrderLineAddInImp::m_slSavedOrderLines.GetNext(pos);

  001b1	50		 push	 eax
  001b2	ff 15 00 00 00
	00		 call	 DWORD PTR __imp_??4?$CStringT@DV?$StrTraitMFC_DLL@DV?$ChTraitsCRT@D@ATL@@@@@ATL@@QAEAAV01@ABV01@@Z

; 105  : 		strLineInfo += ",";

  001b8	68 00 00 00 00	 push	 OFFSET ??_C@_01IHBHIGKO@?0@
  001bd	8d 4d ec	 lea	 ecx, DWORD PTR _strLineInfo$[ebp]
  001c0	ff 15 00 00 00
	00		 call	 DWORD PTR __imp_??Y?$CStringT@DV?$StrTraitMFC_DLL@DV?$ChTraitsCRT@D@ATL@@@@@ATL@@QAEAAV01@PBD@Z

; 106  : 		CString strSerial = TokenizeEx(strLineInfo, ",", iStart);

  001c6	8d 45 e4	 lea	 eax, DWORD PTR _iStart$14[ebp]
  001c9	50		 push	 eax
  001ca	68 00 00 00 00	 push	 OFFSET ??_C@_01IHBHIGKO@?0@
  001cf	51		 push	 ecx
  001d0	8d 45 ec	 lea	 eax, DWORD PTR _strLineInfo$[ebp]
  001d3	8b cc		 mov	 ecx, esp
  001d5	50		 push	 eax
  001d6	ff 15 00 00 00
	00		 call	 DWORD PTR __imp_??0?$CStringT@DV?$StrTraitMFC_DLL@DV?$ChTraitsCRT@D@ATL@@@@@ATL@@QAE@ABV01@@Z
  001dc	8d 45 c8	 lea	 eax, DWORD PTR _strSerial$10[ebp]
  001df	8b cf		 mov	 ecx, edi
  001e1	50		 push	 eax
  001e2	e8 00 00 00 00	 call	 ?TokenizeEx@COrderLineManDlg@@QAE?AV?$CStringT@DV?$StrTraitMFC_DLL@DV?$ChTraitsCRT@D@ATL@@@@@ATL@@V23@PBDAAH@Z ; COrderLineManDlg::TokenizeEx

; 107  : 		int nIndex = FindListItem(strSerial);

  001e7	8d 45 c8	 lea	 eax, DWORD PTR _strSerial$10[ebp]
  001ea	c6 45 fc 03	 mov	 BYTE PTR __$EHRec$[ebp+8], 3
  001ee	50		 push	 eax
  001ef	8d 4d dc	 lea	 ecx, DWORD PTR $T12[ebp]
  001f2	ff 15 00 00 00
	00		 call	 DWORD PTR __imp_??0?$CStringT@DV?$StrTraitMFC_DLL@DV?$ChTraitsCRT@D@ATL@@@@@ATL@@QAE@ABV01@@Z
; File C:\Program Files (x86)\Microsoft Visual Studio\2019\Community\VC\Tools\MSVC\14.29.30133\atlmfc\include\atlsimpstr.h

; 519  : 		return( GetData()->nDataLength );

  001f8	8b 45 dc	 mov	 eax, DWORD PTR $T12[ebp]
; File D:\git\src\IBK\IBK_DRFN\ProjSrc\SrcChartEx\ChartAddIn\ChartPeriodSummaryAddIn\OrderLineManDlg.cpp

; 171  : 	strSerial.Delete(strSerial.GetLength() - 14, 14);

  001fb	8d 4d dc	 lea	 ecx, DWORD PTR $T12[ebp]
  001fe	6a 0e		 push	 14			; 0000000eH
  00200	c6 45 fc 04	 mov	 BYTE PTR __$EHRec$[ebp+8], 4
  00204	83 ce ff	 or	 esi, -1
; File C:\Program Files (x86)\Microsoft Visual Studio\2019\Community\VC\Tools\MSVC\14.29.30133\atlmfc\include\atlsimpstr.h

; 519  : 		return( GetData()->nDataLength );

  00207	8b 40 f4	 mov	 eax, DWORD PTR [eax-12]
; File D:\git\src\IBK\IBK_DRFN\ProjSrc\SrcChartEx\ChartAddIn\ChartPeriodSummaryAddIn\OrderLineManDlg.cpp

; 171  : 	strSerial.Delete(strSerial.GetLength() - 14, 14);

  0020a	83 c0 f2	 add	 eax, -14		; fffffff2H
  0020d	50		 push	 eax
  0020e	ff 15 00 00 00
	00		 call	 DWORD PTR __imp_?Delete@?$CStringT@DV?$StrTraitMFC_DLL@DV?$ChTraitsCRT@D@ATL@@@@@ATL@@QAEHHH@Z
; File C:\Program Files (x86)\Microsoft Visual Studio\2019\Community\VC\Tools\MSVC\14.29.30133\atlmfc\include\afxcmn.inl

; 155  : 	{ ASSERT(::IsWindow(m_hWnd)); return (int) ::SendMessage(m_hWnd, LVM_GETITEMCOUNT, 0, 0L); }

  00214	8b 45 d8	 mov	 eax, DWORD PTR _this$1$[ebp]
; File D:\git\src\IBK\IBK_DRFN\ProjSrc\SrcChartEx\ChartAddIn\ChartPeriodSummaryAddIn\OrderLineManDlg.cpp

; 172  : 	for(int i=0;i<m_ctrlOLList.GetItemCount();i++)

  00217	33 ff		 xor	 edi, edi
; File C:\Program Files (x86)\Microsoft Visual Studio\2019\Community\VC\Tools\MSVC\14.29.30133\atlmfc\include\afxcmn.inl

; 155  : 	{ ASSERT(::IsWindow(m_hWnd)); return (int) ::SendMessage(m_hWnd, LVM_GETITEMCOUNT, 0, 0L); }

  00219	57		 push	 edi
  0021a	57		 push	 edi
  0021b	68 04 10 00 00	 push	 4100			; 00001004H
  00220	ff b0 d0 00 00
	00		 push	 DWORD PTR [eax+208]
; File D:\git\src\IBK\IBK_DRFN\ProjSrc\SrcChartEx\ChartAddIn\ChartPeriodSummaryAddIn\OrderLineManDlg.cpp

; 172  : 	for(int i=0;i<m_ctrlOLList.GetItemCount();i++)

  00226	89 7d cc	 mov	 DWORD PTR _i$1$[ebp], edi
; File C:\Program Files (x86)\Microsoft Visual Studio\2019\Community\VC\Tools\MSVC\14.29.30133\atlmfc\include\afxcmn.inl

; 155  : 	{ ASSERT(::IsWindow(m_hWnd)); return (int) ::SendMessage(m_hWnd, LVM_GETITEMCOUNT, 0, 0L); }

  00229	ff 15 00 00 00
	00		 call	 DWORD PTR __imp__SendMessageA@16
; File D:\git\src\IBK\IBK_DRFN\ProjSrc\SrcChartEx\ChartAddIn\ChartPeriodSummaryAddIn\OrderLineManDlg.cpp

; 172  : 	for(int i=0;i<m_ctrlOLList.GetItemCount();i++)

  0022f	85 c0		 test	 eax, eax
  00231	0f 8e c0 00 00
	00		 jle	 $LN50@OnInitDial
$LL51@OnInitDial:

; 174  : 		if( strSerial == m_ctrlOLList.GetItemText(i,1) + m_ctrlOLList.GetItemText(i,3))

  00237	6a 03		 push	 3
  00239	57		 push	 edi
  0023a	8d 45 bc	 lea	 eax, DWORD PTR $T7[ebp]
  0023d	8b cb		 mov	 ecx, ebx
  0023f	50		 push	 eax
  00240	e8 00 00 00 00	 call	 ?GetItemText@CListCtrl@@QBE?AV?$CStringT@DV?$StrTraitMFC_DLL@DV?$ChTraitsCRT@D@ATL@@@@@ATL@@HH@Z ; CListCtrl::GetItemText
  00245	8b d8		 mov	 ebx, eax
  00247	8b 4d d0	 mov	 ecx, DWORD PTR tv805[ebp]
  0024a	8d 45 c0	 lea	 eax, DWORD PTR $T8[ebp]
  0024d	6a 01		 push	 1
  0024f	57		 push	 edi
  00250	50		 push	 eax
  00251	c6 45 fc 05	 mov	 BYTE PTR __$EHRec$[ebp+8], 5
  00255	e8 00 00 00 00	 call	 ?GetItemText@CListCtrl@@QBE?AV?$CStringT@DV?$StrTraitMFC_DLL@DV?$ChTraitsCRT@D@ATL@@@@@ATL@@HH@Z ; CListCtrl::GetItemText
  0025a	8b f8		 mov	 edi, eax
; File C:\Program Files (x86)\Microsoft Visual Studio\2019\Community\VC\Tools\MSVC\14.29.30133\atlmfc\include\cstringt.h

; 2390 : 		CStringT strResult( str1.GetManager() );

  0025c	8b cf		 mov	 ecx, edi
; File D:\git\src\IBK\IBK_DRFN\ProjSrc\SrcChartEx\ChartAddIn\ChartPeriodSummaryAddIn\OrderLineManDlg.cpp

; 174  : 		if( strSerial == m_ctrlOLList.GetItemText(i,1) + m_ctrlOLList.GetItemText(i,3))

  0025e	c6 45 fc 07	 mov	 BYTE PTR __$EHRec$[ebp+8], 7
; File C:\Program Files (x86)\Microsoft Visual Studio\2019\Community\VC\Tools\MSVC\14.29.30133\atlmfc\include\cstringt.h

; 2390 : 		CStringT strResult( str1.GetManager() );

  00262	ff 15 00 00 00
	00		 call	 DWORD PTR __imp_?GetManager@?$CStringT@DV?$StrTraitMFC_DLL@DV?$ChTraitsCRT@D@ATL@@@@@ATL@@QBEPAUIAtlStringMgr@2@XZ
  00268	50		 push	 eax
  00269	8d 4d d4	 lea	 ecx, DWORD PTR $T11[ebp]
  0026c	ff 15 00 00 00
	00		 call	 DWORD PTR __imp_??0?$CStringT@DV?$StrTraitMFC_DLL@DV?$ChTraitsCRT@D@ATL@@@@@ATL@@QAE@PAUIAtlStringMgr@1@@Z

; 2394 : 		return( strResult );

  00272	8b 45 e0	 mov	 eax, DWORD PTR $T13[ebp]
; File C:\Program Files (x86)\Microsoft Visual Studio\2019\Community\VC\Tools\MSVC\14.29.30133\atlmfc\include\atlsimpstr.h

; 519  : 		return( GetData()->nDataLength );

  00275	8b 0f		 mov	 ecx, DWORD PTR [edi]
; File C:\Program Files (x86)\Microsoft Visual Studio\2019\Community\VC\Tools\MSVC\14.29.30133\atlmfc\include\cstringt.h

; 2394 : 		return( strResult );

  00277	83 c8 01	 or	 eax, 1
  0027a	89 45 e0	 mov	 DWORD PTR $T13[ebp], eax
  0027d	89 45 c4	 mov	 DWORD PTR $T9[ebp], eax
; File C:\Program Files (x86)\Microsoft Visual Studio\2019\Community\VC\Tools\MSVC\14.29.30133\atlmfc\include\atlsimpstr.h

; 519  : 		return( GetData()->nDataLength );

  00280	8b 03		 mov	 eax, DWORD PTR [ebx]
; File C:\Program Files (x86)\Microsoft Visual Studio\2019\Community\VC\Tools\MSVC\14.29.30133\atlmfc\include\cstringt.h

; 2392 : 		CThisSimpleString::Concatenate( strResult, str1, str1.GetLength(), str2, str2.GetLength() );

  00282	ff 70 f4	 push	 DWORD PTR [eax-12]
  00285	50		 push	 eax
  00286	ff 71 f4	 push	 DWORD PTR [ecx-12]
  00289	8d 45 d4	 lea	 eax, DWORD PTR $T11[ebp]
  0028c	51		 push	 ecx
  0028d	50		 push	 eax
  0028e	ff 15 00 00 00
	00		 call	 DWORD PTR __imp_?Concatenate@?$CSimpleStringT@D$00@ATL@@KAXAAV12@PBDH1H@Z
  00294	83 c4 14	 add	 esp, 20			; 00000014H

; 2479 : 		return(str1.Compare(str2) == 0);

  00297	8d 4d dc	 lea	 ecx, DWORD PTR $T12[ebp]
  0029a	ff 75 d4	 push	 DWORD PTR $T11[ebp]
  0029d	ff 15 00 00 00
	00		 call	 DWORD PTR __imp_?Compare@?$CStringT@DV?$StrTraitMFC_DLL@DV?$ChTraitsCRT@D@ATL@@@@@ATL@@QBEHPBD@Z
; File D:\git\src\IBK\IBK_DRFN\ProjSrc\SrcChartEx\ChartAddIn\ChartPeriodSummaryAddIn\OrderLineManDlg.cpp

; 174  : 		if( strSerial == m_ctrlOLList.GetItemText(i,1) + m_ctrlOLList.GetItemText(i,3))

  002a3	83 65 e0 fe	 and	 DWORD PTR $T13[ebp], -2	; fffffffeH
  002a7	8d 4d d4	 lea	 ecx, DWORD PTR $T11[ebp]
; File C:\Program Files (x86)\Microsoft Visual Studio\2019\Community\VC\Tools\MSVC\14.29.30133\atlmfc\include\cstringt.h

; 2479 : 		return(str1.Compare(str2) == 0);

  002aa	8b f8		 mov	 edi, eax
; File D:\git\src\IBK\IBK_DRFN\ProjSrc\SrcChartEx\ChartAddIn\ChartPeriodSummaryAddIn\OrderLineManDlg.cpp

; 174  : 		if( strSerial == m_ctrlOLList.GetItemText(i,1) + m_ctrlOLList.GetItemText(i,3))

  002ac	ff 15 00 00 00
	00		 call	 DWORD PTR __imp_??1?$CStringT@DV?$StrTraitMFC_DLL@DV?$ChTraitsCRT@D@ATL@@@@@ATL@@QAE@XZ
  002b2	8d 4d c0	 lea	 ecx, DWORD PTR $T8[ebp]
  002b5	ff 15 00 00 00
	00		 call	 DWORD PTR __imp_??1?$CStringT@DV?$StrTraitMFC_DLL@DV?$ChTraitsCRT@D@ATL@@@@@ATL@@QAE@XZ
  002bb	8d 4d bc	 lea	 ecx, DWORD PTR $T7[ebp]
  002be	c6 45 fc 04	 mov	 BYTE PTR __$EHRec$[ebp+8], 4
  002c2	ff 15 00 00 00
	00		 call	 DWORD PTR __imp_??1?$CStringT@DV?$StrTraitMFC_DLL@DV?$ChTraitsCRT@D@ATL@@@@@ATL@@QAE@XZ
; File C:\Program Files (x86)\Microsoft Visual Studio\2019\Community\VC\Tools\MSVC\14.29.30133\atlmfc\include\afxcmn.inl

; 155  : 	{ ASSERT(::IsWindow(m_hWnd)); return (int) ::SendMessage(m_hWnd, LVM_GETITEMCOUNT, 0, 0L); }

  002c8	8b 45 d8	 mov	 eax, DWORD PTR _this$1$[ebp]
; File D:\git\src\IBK\IBK_DRFN\ProjSrc\SrcChartEx\ChartAddIn\ChartPeriodSummaryAddIn\OrderLineManDlg.cpp

; 174  : 		if( strSerial == m_ctrlOLList.GetItemText(i,1) + m_ctrlOLList.GetItemText(i,3))

  002cb	85 ff		 test	 edi, edi
  002cd	8b 7d cc	 mov	 edi, DWORD PTR _i$1$[ebp]
; File C:\Program Files (x86)\Microsoft Visual Studio\2019\Community\VC\Tools\MSVC\14.29.30133\atlmfc\include\afxcmn.inl

; 155  : 	{ ASSERT(::IsWindow(m_hWnd)); return (int) ::SendMessage(m_hWnd, LVM_GETITEMCOUNT, 0, 0L); }

  002d0	6a 00		 push	 0
  002d2	6a 00		 push	 0
  002d4	68 04 10 00 00	 push	 4100			; 00001004H
  002d9	ff b0 d0 00 00
	00		 push	 DWORD PTR [eax+208]
; File D:\git\src\IBK\IBK_DRFN\ProjSrc\SrcChartEx\ChartAddIn\ChartPeriodSummaryAddIn\OrderLineManDlg.cpp

; 174  : 		if( strSerial == m_ctrlOLList.GetItemText(i,1) + m_ctrlOLList.GetItemText(i,3))

  002df	0f 44 f7	 cmove	 esi, edi
  002e2	47		 inc	 edi
  002e3	89 7d cc	 mov	 DWORD PTR _i$1$[ebp], edi
; File C:\Program Files (x86)\Microsoft Visual Studio\2019\Community\VC\Tools\MSVC\14.29.30133\atlmfc\include\afxcmn.inl

; 155  : 	{ ASSERT(::IsWindow(m_hWnd)); return (int) ::SendMessage(m_hWnd, LVM_GETITEMCOUNT, 0, 0L); }

  002e6	ff 15 00 00 00
	00		 call	 DWORD PTR __imp__SendMessageA@16
; File D:\git\src\IBK\IBK_DRFN\ProjSrc\SrcChartEx\ChartAddIn\ChartPeriodSummaryAddIn\OrderLineManDlg.cpp

; 172  : 	for(int i=0;i<m_ctrlOLList.GetItemCount();i++)

  002ec	8b 5d d0	 mov	 ebx, DWORD PTR tv805[ebp]
  002ef	3b f8		 cmp	 edi, eax
  002f1	0f 8c 40 ff ff
	ff		 jl	 $LL51@OnInitDial
$LN50@OnInitDial:

; 175  : 		{
; 176  : 			nIndex = i;
; 177  : 		}
; 178  : 	}
; 179  : 	return nIndex;

  002f7	8d 4d dc	 lea	 ecx, DWORD PTR $T12[ebp]
  002fa	c6 45 fc 03	 mov	 BYTE PTR __$EHRec$[ebp+8], 3
  002fe	ff 15 00 00 00
	00		 call	 DWORD PTR __imp_??1?$CStringT@DV?$StrTraitMFC_DLL@DV?$ChTraitsCRT@D@ATL@@@@@ATL@@QAE@XZ

; 108  : 		if(nIndex == -1)

  00304	83 fe ff	 cmp	 esi, -1
  00307	75 4e		 jne	 SHORT $LN4@OnInitDial
; File C:\Program Files (x86)\Microsoft Visual Studio\2019\Community\VC\Tools\MSVC\14.29.30133\atlmfc\include\afxcmn.inl

; 155  : 	{ ASSERT(::IsWindow(m_hWnd)); return (int) ::SendMessage(m_hWnd, LVM_GETITEMCOUNT, 0, 0L); }

  00309	8b 7d d8	 mov	 edi, DWORD PTR _this$1$[ebp]
  0030c	6a 00		 push	 0
  0030e	6a 00		 push	 0
  00310	68 04 10 00 00	 push	 4100			; 00001004H
  00315	ff b7 d0 00 00
	00		 push	 DWORD PTR [edi+208]
  0031b	ff 15 00 00 00
	00		 call	 DWORD PTR __imp__SendMessageA@16
; File D:\git\src\IBK\IBK_DRFN\ProjSrc\SrcChartEx\ChartAddIn\ChartPeriodSummaryAddIn\OrderLineManDlg.cpp

; 110  : 			nIndex = m_ctrlOLList.GetItemCount();

  00321	8b f0		 mov	 esi, eax

; 111  : 			s.Format("%d",(nIndex+1));

  00323	8d 46 01	 lea	 eax, DWORD PTR [esi+1]
  00326	50		 push	 eax
  00327	8d 45 e8	 lea	 eax, DWORD PTR _s$15[ebp]
  0032a	68 00 00 00 00	 push	 OFFSET ??_C@_02DPKJAMEF@?$CFd@
  0032f	50		 push	 eax
  00330	ff 15 00 00 00
	00		 call	 DWORD PTR __imp_?Format@?$CStringT@DV?$StrTraitMFC_DLL@DV?$ChTraitsCRT@D@ATL@@@@@ATL@@QAAXPBDZZ
  00336	83 c4 0c	 add	 esp, 12			; 0000000cH
; File C:\Program Files (x86)\Microsoft Visual Studio\2019\Community\VC\Tools\MSVC\14.29.30133\atlmfc\include\afxcmn.inl

; 165  : 	{ ASSERT(::IsWindow(m_hWnd)); return InsertItem(LVIF_TEXT, nItem, lpszItem, 0, 0, 0, 0); }

  00339	8b cb		 mov	 ecx, ebx
  0033b	6a 00		 push	 0
  0033d	6a 00		 push	 0
  0033f	6a 00		 push	 0
  00341	6a 00		 push	 0
  00343	ff 75 e8	 push	 DWORD PTR _s$15[ebp]
  00346	56		 push	 esi
  00347	6a 01		 push	 1
  00349	e8 00 00 00 00	 call	 ?InsertItem@CListCtrl@@QAEHIHPBDIIHJ@Z ; CListCtrl::InsertItem
; File D:\git\src\IBK\IBK_DRFN\ProjSrc\SrcChartEx\ChartAddIn\ChartPeriodSummaryAddIn\OrderLineManDlg.cpp

; 113  : 			nCnt = 1;

  0034e	c7 45 cc 01 00
	00 00		 mov	 DWORD PTR _nCnt$1$[ebp], 1

; 114  : 		}

  00355	eb 3c		 jmp	 SHORT $LN5@OnInitDial
$LN4@OnInitDial:

; 115  : 		else
; 116  : 		{
; 117  : 			s = m_ctrlOLList.GetItemText(nIndex, 4);

  00357	6a 04		 push	 4
  00359	56		 push	 esi
  0035a	8d 45 b8	 lea	 eax, DWORD PTR $T6[ebp]
  0035d	8b cb		 mov	 ecx, ebx
  0035f	50		 push	 eax
  00360	e8 00 00 00 00	 call	 ?GetItemText@CListCtrl@@QBE?AV?$CStringT@DV?$StrTraitMFC_DLL@DV?$ChTraitsCRT@D@ATL@@@@@ATL@@HH@Z ; CListCtrl::GetItemText
  00365	50		 push	 eax
  00366	8d 4d e8	 lea	 ecx, DWORD PTR _s$15[ebp]
  00369	c6 45 fc 08	 mov	 BYTE PTR __$EHRec$[ebp+8], 8
  0036d	ff 15 00 00 00
	00		 call	 DWORD PTR __imp_??4?$CStringT@DV?$StrTraitMFC_DLL@DV?$ChTraitsCRT@D@ATL@@@@@ATL@@QAEAAV01@ABV01@@Z
  00373	8d 4d b8	 lea	 ecx, DWORD PTR $T6[ebp]
  00376	c6 45 fc 03	 mov	 BYTE PTR __$EHRec$[ebp+8], 3
  0037a	ff 15 00 00 00
	00		 call	 DWORD PTR __imp_??1?$CStringT@DV?$StrTraitMFC_DLL@DV?$ChTraitsCRT@D@ATL@@@@@ATL@@QAE@XZ

; 118  : 			nCnt = atoi(s) + 1;

  00380	ff 75 e8	 push	 DWORD PTR _s$15[ebp]
  00383	ff 15 00 00 00
	00		 call	 DWORD PTR __imp__atoi
  00389	8b 7d d8	 mov	 edi, DWORD PTR _this$1$[ebp]
  0038c	83 c4 04	 add	 esp, 4
  0038f	40		 inc	 eax
  00390	89 45 cc	 mov	 DWORD PTR _nCnt$1$[ebp], eax
$LN5@OnInitDial:

; 119  : 		}
; 120  : 		m_ctrlOLList.SetItemText(nIndex, 1, TokenizeEx(strLineInfo, ",", iStart));	// 

  00393	8d 45 e4	 lea	 eax, DWORD PTR _iStart$14[ebp]
  00396	50		 push	 eax
  00397	68 00 00 00 00	 push	 OFFSET ??_C@_01IHBHIGKO@?0@
  0039c	51		 push	 ecx
  0039d	8d 45 ec	 lea	 eax, DWORD PTR _strLineInfo$[ebp]
  003a0	8b cc		 mov	 ecx, esp
  003a2	50		 push	 eax
  003a3	ff 15 00 00 00
	00		 call	 DWORD PTR __imp_??0?$CStringT@DV?$StrTraitMFC_DLL@DV?$ChTraitsCRT@D@ATL@@@@@ATL@@QAE@ABV01@@Z
  003a9	8d 45 b4	 lea	 eax, DWORD PTR $T5[ebp]
  003ac	8b cf		 mov	 ecx, edi
  003ae	50		 push	 eax
  003af	e8 00 00 00 00	 call	 ?TokenizeEx@COrderLineManDlg@@QAE?AV?$CStringT@DV?$StrTraitMFC_DLL@DV?$ChTraitsCRT@D@ATL@@@@@ATL@@V23@PBDAAH@Z ; COrderLineManDlg::TokenizeEx
  003b4	ff 30		 push	 DWORD PTR [eax]
  003b6	8b cb		 mov	 ecx, ebx
  003b8	c6 45 fc 09	 mov	 BYTE PTR __$EHRec$[ebp+8], 9
  003bc	6a 01		 push	 1
  003be	56		 push	 esi
  003bf	e8 00 00 00 00	 call	 ?SetItemText@CListCtrl@@QAEHHHPBD@Z ; CListCtrl::SetItemText
  003c4	8d 4d b4	 lea	 ecx, DWORD PTR $T5[ebp]
  003c7	c6 45 fc 03	 mov	 BYTE PTR __$EHRec$[ebp+8], 3
  003cb	ff 15 00 00 00
	00		 call	 DWORD PTR __imp_??1?$CStringT@DV?$StrTraitMFC_DLL@DV?$ChTraitsCRT@D@ATL@@@@@ATL@@QAE@XZ

; 121  : 		m_ctrlOLList.SetItemText(nIndex, 2, TokenizeEx(strLineInfo, ",", iStart));	// 

  003d1	8d 45 e4	 lea	 eax, DWORD PTR _iStart$14[ebp]
  003d4	50		 push	 eax
  003d5	68 00 00 00 00	 push	 OFFSET ??_C@_01IHBHIGKO@?0@
  003da	51		 push	 ecx
  003db	8d 45 ec	 lea	 eax, DWORD PTR _strLineInfo$[ebp]
  003de	8b cc		 mov	 ecx, esp
  003e0	50		 push	 eax
  003e1	ff 15 00 00 00
	00		 call	 DWORD PTR __imp_??0?$CStringT@DV?$StrTraitMFC_DLL@DV?$ChTraitsCRT@D@ATL@@@@@ATL@@QAE@ABV01@@Z
  003e7	8d 45 b0	 lea	 eax, DWORD PTR $T4[ebp]
  003ea	8b cf		 mov	 ecx, edi
  003ec	50		 push	 eax
  003ed	e8 00 00 00 00	 call	 ?TokenizeEx@COrderLineManDlg@@QAE?AV?$CStringT@DV?$StrTraitMFC_DLL@DV?$ChTraitsCRT@D@ATL@@@@@ATL@@V23@PBDAAH@Z ; COrderLineManDlg::TokenizeEx
  003f2	ff 30		 push	 DWORD PTR [eax]
  003f4	8b cb		 mov	 ecx, ebx
  003f6	c6 45 fc 0a	 mov	 BYTE PTR __$EHRec$[ebp+8], 10 ; 0000000aH
  003fa	6a 02		 push	 2
  003fc	56		 push	 esi
  003fd	e8 00 00 00 00	 call	 ?SetItemText@CListCtrl@@QAEHHHPBD@Z ; CListCtrl::SetItemText
  00402	8d 4d b0	 lea	 ecx, DWORD PTR $T4[ebp]
  00405	c6 45 fc 03	 mov	 BYTE PTR __$EHRec$[ebp+8], 3
  00409	ff 15 00 00 00
	00		 call	 DWORD PTR __imp_??1?$CStringT@DV?$StrTraitMFC_DLL@DV?$ChTraitsCRT@D@ATL@@@@@ATL@@QAE@XZ

; 122  : 		m_ctrlOLList.SetItemText(nIndex, 3, TokenizeEx(strLineInfo, ",", iStart));	// 

  0040f	8d 45 e4	 lea	 eax, DWORD PTR _iStart$14[ebp]
  00412	50		 push	 eax
  00413	68 00 00 00 00	 push	 OFFSET ??_C@_01IHBHIGKO@?0@
  00418	51		 push	 ecx
  00419	8d 45 ec	 lea	 eax, DWORD PTR _strLineInfo$[ebp]
  0041c	8b cc		 mov	 ecx, esp
  0041e	50		 push	 eax
  0041f	ff 15 00 00 00
	00		 call	 DWORD PTR __imp_??0?$CStringT@DV?$StrTraitMFC_DLL@DV?$ChTraitsCRT@D@ATL@@@@@ATL@@QAE@ABV01@@Z
  00425	8d 45 ac	 lea	 eax, DWORD PTR $T3[ebp]
  00428	8b cf		 mov	 ecx, edi
  0042a	50		 push	 eax
  0042b	e8 00 00 00 00	 call	 ?TokenizeEx@COrderLineManDlg@@QAE?AV?$CStringT@DV?$StrTraitMFC_DLL@DV?$ChTraitsCRT@D@ATL@@@@@ATL@@V23@PBDAAH@Z ; COrderLineManDlg::TokenizeEx
  00430	ff 30		 push	 DWORD PTR [eax]
  00432	8b cb		 mov	 ecx, ebx
  00434	c6 45 fc 0b	 mov	 BYTE PTR __$EHRec$[ebp+8], 11 ; 0000000bH
  00438	6a 03		 push	 3
  0043a	56		 push	 esi
  0043b	e8 00 00 00 00	 call	 ?SetItemText@CListCtrl@@QAEHHHPBD@Z ; CListCtrl::SetItemText
  00440	8d 4d ac	 lea	 ecx, DWORD PTR $T3[ebp]
  00443	c6 45 fc 03	 mov	 BYTE PTR __$EHRec$[ebp+8], 3
  00447	ff 15 00 00 00
	00		 call	 DWORD PTR __imp_??1?$CStringT@DV?$StrTraitMFC_DLL@DV?$ChTraitsCRT@D@ATL@@@@@ATL@@QAE@XZ

; 123  : 		s.Format("%d", nCnt);

  0044d	ff 75 cc	 push	 DWORD PTR _nCnt$1$[ebp]
  00450	8d 45 e8	 lea	 eax, DWORD PTR _s$15[ebp]
  00453	68 00 00 00 00	 push	 OFFSET ??_C@_02DPKJAMEF@?$CFd@
  00458	50		 push	 eax
  00459	ff 15 00 00 00
	00		 call	 DWORD PTR __imp_?Format@?$CStringT@DV?$StrTraitMFC_DLL@DV?$ChTraitsCRT@D@ATL@@@@@ATL@@QAAXPBDZZ
  0045f	83 c4 0c	 add	 esp, 12			; 0000000cH

; 124  : 		m_ctrlOLList.SetItemText(nIndex, 4, s);	// 

  00462	8b cb		 mov	 ecx, ebx
  00464	ff 75 e8	 push	 DWORD PTR _s$15[ebp]
  00467	6a 04		 push	 4
  00469	56		 push	 esi
  0046a	e8 00 00 00 00	 call	 ?SetItemText@CListCtrl@@QAEHHHPBD@Z ; CListCtrl::SetItemText

; 125  : 		m_ctrlOLList.SetItemText(nIndex, 6, TokenizeEx(strLineInfo, ",", iStart));	//  (hidden)

  0046f	8d 45 e4	 lea	 eax, DWORD PTR _iStart$14[ebp]
  00472	50		 push	 eax
  00473	68 00 00 00 00	 push	 OFFSET ??_C@_01IHBHIGKO@?0@
  00478	51		 push	 ecx
  00479	8d 45 ec	 lea	 eax, DWORD PTR _strLineInfo$[ebp]
  0047c	8b cc		 mov	 ecx, esp
  0047e	50		 push	 eax
  0047f	ff 15 00 00 00
	00		 call	 DWORD PTR __imp_??0?$CStringT@DV?$StrTraitMFC_DLL@DV?$ChTraitsCRT@D@ATL@@@@@ATL@@QAE@ABV01@@Z
  00485	8d 45 a8	 lea	 eax, DWORD PTR $T2[ebp]
  00488	8b cf		 mov	 ecx, edi
  0048a	50		 push	 eax
  0048b	e8 00 00 00 00	 call	 ?TokenizeEx@COrderLineManDlg@@QAE?AV?$CStringT@DV?$StrTraitMFC_DLL@DV?$ChTraitsCRT@D@ATL@@@@@ATL@@V23@PBDAAH@Z ; COrderLineManDlg::TokenizeEx
  00490	ff 30		 push	 DWORD PTR [eax]
  00492	8b cb		 mov	 ecx, ebx
  00494	c6 45 fc 0c	 mov	 BYTE PTR __$EHRec$[ebp+8], 12 ; 0000000cH
  00498	6a 06		 push	 6
  0049a	56		 push	 esi
  0049b	e8 00 00 00 00	 call	 ?SetItemText@CListCtrl@@QAEHHHPBD@Z ; CListCtrl::SetItemText
  004a0	8d 4d a8	 lea	 ecx, DWORD PTR $T2[ebp]
  004a3	ff 15 00 00 00
	00		 call	 DWORD PTR __imp_??1?$CStringT@DV?$StrTraitMFC_DLL@DV?$ChTraitsCRT@D@ATL@@@@@ATL@@QAE@XZ

; 126  : 	}

  004a9	8d 4d c8	 lea	 ecx, DWORD PTR _strSerial$10[ebp]
  004ac	ff 15 00 00 00
	00		 call	 DWORD PTR __imp_??1?$CStringT@DV?$StrTraitMFC_DLL@DV?$ChTraitsCRT@D@ATL@@@@@ATL@@QAE@XZ
  004b2	8d 4d e8	 lea	 ecx, DWORD PTR _s$15[ebp]
  004b5	c6 45 fc 01	 mov	 BYTE PTR __$EHRec$[ebp+8], 1
  004b9	ff 15 00 00 00
	00		 call	 DWORD PTR __imp_??1?$CStringT@DV?$StrTraitMFC_DLL@DV?$ChTraitsCRT@D@ATL@@@@@ATL@@QAE@XZ
  004bf	8b 75 a4	 mov	 esi, DWORD PTR _pos$1$[ebp]
  004c2	85 f6		 test	 esi, esi
  004c4	0f 85 c6 fc ff
	ff		 jne	 $LL2@OnInitDial
$LN3@OnInitDial:

; 127  : 	//////////////////////////////////////////////////////////////////////////
; 128  : 
; 129  : 	return TRUE;  // return TRUE unless you set the focus to a control

  004ca	8d 4d ec	 lea	 ecx, DWORD PTR _strLineInfo$[ebp]
  004cd	ff 15 00 00 00
	00		 call	 DWORD PTR __imp_??1?$CStringT@DV?$StrTraitMFC_DLL@DV?$ChTraitsCRT@D@ATL@@@@@ATL@@QAE@XZ
  004d3	8d 4d f0	 lea	 ecx, DWORD PTR _strTemp$[ebp]
  004d6	ff 15 00 00 00
	00		 call	 DWORD PTR __imp_??1?$CStringT@DV?$StrTraitMFC_DLL@DV?$ChTraitsCRT@D@ATL@@@@@ATL@@QAE@XZ
  004dc	b8 01 00 00 00	 mov	 eax, 1

; 130  : 	              // EXCEPTION: OCX Property Pages should return FALSE
; 131  : }

  004e1	8b 4d f4	 mov	 ecx, DWORD PTR __$EHRec$[ebp]
  004e4	64 89 0d 00 00
	00 00		 mov	 DWORD PTR fs:0, ecx
  004eb	59		 pop	 ecx
  004ec	5f		 pop	 edi
  004ed	5e		 pop	 esi
  004ee	5b		 pop	 ebx
  004ef	8b e5		 mov	 esp, ebp
  004f1	5d		 pop	 ebp
  004f2	c3		 ret	 0
_TEXT	ENDS
;	COMDAT text$x
text$x	SEGMENT
__unwindfunclet$?OnInitDialog@COrderLineManDlg@@MAEHXZ$0:
  00000	8d 4d f0	 lea	 ecx, DWORD PTR _strTemp$[ebp]
  00003	ff 25 00 00 00
	00		 jmp	 DWORD PTR __imp_??1?$CStringT@DV?$StrTraitMFC_DLL@DV?$ChTraitsCRT@D@ATL@@@@@ATL@@QAE@XZ
__unwindfunclet$?OnInitDialog@COrderLineManDlg@@MAEHXZ$1:
  00009	8d 4d ec	 lea	 ecx, DWORD PTR _strLineInfo$[ebp]
  0000c	ff 25 00 00 00
	00		 jmp	 DWORD PTR __imp_??1?$CStringT@DV?$StrTraitMFC_DLL@DV?$ChTraitsCRT@D@ATL@@@@@ATL@@QAE@XZ
__unwindfunclet$?OnInitDialog@COrderLineManDlg@@MAEHXZ$2:
  00012	8d 4d e8	 lea	 ecx, DWORD PTR _s$15[ebp]
  00015	ff 25 00 00 00
	00		 jmp	 DWORD PTR __imp_??1?$CStringT@DV?$StrTraitMFC_DLL@DV?$ChTraitsCRT@D@ATL@@@@@ATL@@QAE@XZ
__unwindfunclet$?OnInitDialog@COrderLineManDlg@@MAEHXZ$4:
  0001b	8d 4d c8	 lea	 ecx, DWORD PTR _strSerial$10[ebp]
  0001e	ff 25 00 00 00
	00		 jmp	 DWORD PTR __imp_??1?$CStringT@DV?$StrTraitMFC_DLL@DV?$ChTraitsCRT@D@ATL@@@@@ATL@@QAE@XZ
__unwindfunclet$?OnInitDialog@COrderLineManDlg@@MAEHXZ$15:
  00024	8d 4d dc	 lea	 ecx, DWORD PTR $T12[ebp]
  00027	ff 25 00 00 00
	00		 jmp	 DWORD PTR __imp_??1?$CStringT@DV?$StrTraitMFC_DLL@DV?$ChTraitsCRT@D@ATL@@@@@ATL@@QAE@XZ
__unwindfunclet$?OnInitDialog@COrderLineManDlg@@MAEHXZ$16:
  0002d	8d 4d bc	 lea	 ecx, DWORD PTR $T7[ebp]
  00030	ff 25 00 00 00
	00		 jmp	 DWORD PTR __imp_??1?$CStringT@DV?$StrTraitMFC_DLL@DV?$ChTraitsCRT@D@ATL@@@@@ATL@@QAE@XZ
__unwindfunclet$?OnInitDialog@COrderLineManDlg@@MAEHXZ$17:
  00036	8d 4d c0	 lea	 ecx, DWORD PTR $T8[ebp]
  00039	ff 25 00 00 00
	00		 jmp	 DWORD PTR __imp_??1?$CStringT@DV?$StrTraitMFC_DLL@DV?$ChTraitsCRT@D@ATL@@@@@ATL@@QAE@XZ
__unwindfunclet$?OnInitDialog@COrderLineManDlg@@MAEHXZ$19:
  0003f	8b 45 c4	 mov	 eax, DWORD PTR $T9[ebp]
  00042	83 e0 01	 and	 eax, 1
  00045	0f 84 0d 00 00
	00		 je	 $LN67@OnInitDial
  0004b	83 65 c4 fe	 and	 DWORD PTR $T9[ebp], -2	; fffffffeH
  0004f	8d 4d d4	 lea	 ecx, DWORD PTR $T11[ebp]
  00052	ff 25 00 00 00
	00		 jmp	 DWORD PTR __imp_??1?$CStringT@DV?$StrTraitMFC_DLL@DV?$ChTraitsCRT@D@ATL@@@@@ATL@@QAE@XZ
$LN67@OnInitDial:
  00058	c3		 ret	 0
__unwindfunclet$?OnInitDialog@COrderLineManDlg@@MAEHXZ$6:
  00059	8d 4d b8	 lea	 ecx, DWORD PTR $T6[ebp]
  0005c	ff 25 00 00 00
	00		 jmp	 DWORD PTR __imp_??1?$CStringT@DV?$StrTraitMFC_DLL@DV?$ChTraitsCRT@D@ATL@@@@@ATL@@QAE@XZ
__unwindfunclet$?OnInitDialog@COrderLineManDlg@@MAEHXZ$8:
  00062	8d 4d b4	 lea	 ecx, DWORD PTR $T5[ebp]
  00065	ff 25 00 00 00
	00		 jmp	 DWORD PTR __imp_??1?$CStringT@DV?$StrTraitMFC_DLL@DV?$ChTraitsCRT@D@ATL@@@@@ATL@@QAE@XZ
__unwindfunclet$?OnInitDialog@COrderLineManDlg@@MAEHXZ$10:
  0006b	8d 4d b0	 lea	 ecx, DWORD PTR $T4[ebp]
  0006e	ff 25 00 00 00
	00		 jmp	 DWORD PTR __imp_??1?$CStringT@DV?$StrTraitMFC_DLL@DV?$ChTraitsCRT@D@ATL@@@@@ATL@@QAE@XZ
__unwindfunclet$?OnInitDialog@COrderLineManDlg@@MAEHXZ$12:
  00074	8d 4d ac	 lea	 ecx, DWORD PTR $T3[ebp]
  00077	ff 25 00 00 00
	00		 jmp	 DWORD PTR __imp_??1?$CStringT@DV?$StrTraitMFC_DLL@DV?$ChTraitsCRT@D@ATL@@@@@ATL@@QAE@XZ
__unwindfunclet$?OnInitDialog@COrderLineManDlg@@MAEHXZ$14:
  0007d	8d 4d a8	 lea	 ecx, DWORD PTR $T2[ebp]
  00080	ff 25 00 00 00
	00		 jmp	 DWORD PTR __imp_??1?$CStringT@DV?$StrTraitMFC_DLL@DV?$ChTraitsCRT@D@ATL@@@@@ATL@@QAE@XZ
  00086	cc		 int	 3
  00087	cc		 int	 3
  00088	cc		 int	 3
  00089	cc		 int	 3
  0008a	cc		 int	 3
__ehhandler$?OnInitDialog@COrderLineManDlg@@MAEHXZ:
  0008b	90		 npad	 1
  0008c	90		 npad	 1
  0008d	8b 54 24 08	 mov	 edx, DWORD PTR [esp+8]
  00091	8d 42 0c	 lea	 eax, DWORD PTR [edx+12]
  00094	8b 4a a0	 mov	 ecx, DWORD PTR [edx-96]
  00097	33 c8		 xor	 ecx, eax
  00099	e8 00 00 00 00	 call	 @__security_check_cookie@4
  0009e	b8 00 00 00 00	 mov	 eax, OFFSET __ehfuncinfo$?OnInitDialog@COrderLineManDlg@@MAEHXZ
  000a3	e9 00 00 00 00	 jmp	 ___CxxFrameHandler3
text$x	ENDS
?OnInitDialog@COrderLineManDlg@@MAEHXZ ENDP		; COrderLineManDlg::OnInitDialog
; Function compile flags: /Ogtp
; File D:\git\src\IBK\IBK_DRFN\ProjSrc\SrcChartEx\ChartAddIn\ChartPeriodSummaryAddIn\OrderLineManDlg.cpp
;	COMDAT ?DoDataExchange@COrderLineManDlg@@MAEXPAVCDataExchange@@@Z
_TEXT	SEGMENT
_pDX$ = 8						; size = 4
?DoDataExchange@COrderLineManDlg@@MAEXPAVCDataExchange@@@Z PROC ; COrderLineManDlg::DoDataExchange, COMDAT
; _this$ = ecx

; 29   : {

  00000	55		 push	 ebp
  00001	8b ec		 mov	 ebp, esp

; 30   : 	CDialog::DoDataExchange(pDX);
; 31   : 	//{{AFX_DATA_MAP(COrderLineManDlg)
; 32   : 	DDX_Control(pDX, IDC_LIST1, m_ctrlOLList);

  00003	8d 81 b0 00 00
	00		 lea	 eax, DWORD PTR [ecx+176]
  00009	50		 push	 eax
  0000a	68 e9 07 00 00	 push	 2025			; 000007e9H
  0000f	ff 75 08	 push	 DWORD PTR _pDX$[ebp]
  00012	e8 00 00 00 00	 call	 ?DDX_Control@@YGXPAVCDataExchange@@HAAVCWnd@@@Z ; DDX_Control

; 33   : 	//}}AFX_DATA_MAP
; 34   : }

  00017	5d		 pop	 ebp
  00018	c2 04 00	 ret	 4
?DoDataExchange@COrderLineManDlg@@MAEXPAVCDataExchange@@@Z ENDP ; COrderLineManDlg::DoDataExchange
_TEXT	ENDS
; Function compile flags: /Ogtp
; File D:\git\src\IBK\IBK_DRFN\ProjSrc\SrcChartEx\ChartAddIn\ChartPeriodSummaryAddIn\OrderLineManDlg.cpp
; File C:\Program Files (x86)\Microsoft Visual Studio\2019\Community\VC\Tools\MSVC\14.29.30133\atlmfc\include\afxcmn.inl
; File D:\git\src\IBK\IBK_DRFN\ProjSrc\SrcChartEx\ChartAddIn\ChartPeriodSummaryAddIn\OrderLineManDlg.cpp
; File C:\Program Files (x86)\Microsoft Visual Studio\2019\Community\VC\Tools\MSVC\14.29.30133\atlmfc\include\afxcmn.inl
; File D:\git\src\IBK\IBK_DRFN\ProjSrc\SrcChartEx\ChartAddIn\ChartPeriodSummaryAddIn\OrderLineManDlg.cpp
;	COMDAT ??0COrderLineManDlg@@QAE@PAVCWnd@@@Z
_TEXT	SEGMENT
_this$ = -16						; size = 4
__$EHRec$ = -12						; size = 12
_this$ = 8						; size = 4
_pParent$ = 8						; size = 4
??0COrderLineManDlg@@QAE@PAVCWnd@@@Z PROC		; COrderLineManDlg::COrderLineManDlg, COMDAT
; _this$ = ecx

; 21   : {

  00000	55		 push	 ebp
  00001	8b ec		 mov	 ebp, esp
  00003	6a ff		 push	 -1
  00005	68 00 00 00 00	 push	 __ehhandler$??0COrderLineManDlg@@QAE@PAVCWnd@@@Z
  0000a	64 a1 00 00 00
	00		 mov	 eax, DWORD PTR fs:0
  00010	50		 push	 eax
  00011	51		 push	 ecx
  00012	56		 push	 esi
  00013	57		 push	 edi
  00014	a1 00 00 00 00	 mov	 eax, DWORD PTR ___security_cookie
  00019	33 c5		 xor	 eax, ebp
  0001b	50		 push	 eax
  0001c	8d 45 f4	 lea	 eax, DWORD PTR __$EHRec$[ebp]
  0001f	64 a3 00 00 00
	00		 mov	 DWORD PTR fs:0, eax
  00025	8b f9		 mov	 edi, ecx
  00027	89 7d f0	 mov	 DWORD PTR _this$[ebp], edi

; 20   : 	: CDialog(COrderLineManDlg::IDD, pParent)

  0002a	ff 75 08	 push	 DWORD PTR _pParent$[ebp]
  0002d	68 d5 07 00 00	 push	 2005			; 000007d5H
  00032	e8 00 00 00 00	 call	 ??0CDialog@@QAE@IPAVCWnd@@@Z ; CDialog::CDialog

; 21   : {

  00037	8d 8f a8 00 00
	00		 lea	 ecx, DWORD PTR [edi+168]
  0003d	c7 45 fc 00 00
	00 00		 mov	 DWORD PTR __$EHRec$[ebp+8], 0
  00044	c7 07 00 00 00
	00		 mov	 DWORD PTR [edi], OFFSET ??_7COrderLineManDlg@@6B@
  0004a	ff 15 00 00 00
	00		 call	 DWORD PTR __imp_??0?$CStringT@DV?$StrTraitMFC_DLL@DV?$ChTraitsCRT@D@ATL@@@@@ATL@@QAE@XZ
  00050	8d b7 b0 00 00
	00		 lea	 esi, DWORD PTR [edi+176]
  00056	c6 45 fc 01	 mov	 BYTE PTR __$EHRec$[ebp+8], 1
; File C:\Program Files (x86)\Microsoft Visual Studio\2019\Community\VC\Tools\MSVC\14.29.30133\atlmfc\include\afxcmn.inl

; 141  : 	{ }

  0005a	8b ce		 mov	 ecx, esi
; File D:\git\src\IBK\IBK_DRFN\ProjSrc\SrcChartEx\ChartAddIn\ChartPeriodSummaryAddIn\OrderLineManDlg.cpp

; 21   : {

  0005c	89 75 08	 mov	 DWORD PTR _this$[ebp], esi
; File C:\Program Files (x86)\Microsoft Visual Studio\2019\Community\VC\Tools\MSVC\14.29.30133\atlmfc\include\afxcmn.inl

; 141  : 	{ }

  0005f	e8 00 00 00 00	 call	 ??0CWnd@@QAE@XZ		; CWnd::CWnd
  00064	c7 06 00 00 00
	00		 mov	 DWORD PTR [esi], OFFSET ??_7CListCtrl@@6B@
; File D:\git\src\IBK\IBK_DRFN\ProjSrc\SrcChartEx\ChartAddIn\ChartPeriodSummaryAddIn\OrderLineManDlg.cpp

; 25   : }

  0006a	8b c7		 mov	 eax, edi
  0006c	8b 4d f4	 mov	 ecx, DWORD PTR __$EHRec$[ebp]
  0006f	64 89 0d 00 00
	00 00		 mov	 DWORD PTR fs:0, ecx
  00076	59		 pop	 ecx
  00077	5f		 pop	 edi
  00078	5e		 pop	 esi
  00079	8b e5		 mov	 esp, ebp
  0007b	5d		 pop	 ebp
  0007c	c2 04 00	 ret	 4
_TEXT	ENDS
;	COMDAT text$x
text$x	SEGMENT
__unwindfunclet$??0COrderLineManDlg@@QAE@PAVCWnd@@@Z$0:
  00000	8b 4d f0	 mov	 ecx, DWORD PTR _this$[ebp]
  00003	e9 00 00 00 00	 jmp	 ??1CDialog@@UAE@XZ	; CDialog::~CDialog
__unwindfunclet$??0COrderLineManDlg@@QAE@PAVCWnd@@@Z$1:
  00008	8b 4d f0	 mov	 ecx, DWORD PTR _this$[ebp]
  0000b	81 c1 a8 00 00
	00		 add	 ecx, 168		; 000000a8H
  00011	ff 25 00 00 00
	00		 jmp	 DWORD PTR __imp_??1?$CStringT@DV?$StrTraitMFC_DLL@DV?$ChTraitsCRT@D@ATL@@@@@ATL@@QAE@XZ
  00017	cc		 int	 3
  00018	cc		 int	 3
  00019	cc		 int	 3
  0001a	cc		 int	 3
  0001b	cc		 int	 3
__ehhandler$??0COrderLineManDlg@@QAE@PAVCWnd@@@Z:
  0001c	90		 npad	 1
  0001d	90		 npad	 1
  0001e	8b 54 24 08	 mov	 edx, DWORD PTR [esp+8]
  00022	8d 42 0c	 lea	 eax, DWORD PTR [edx+12]
  00025	8b 4a f0	 mov	 ecx, DWORD PTR [edx-16]
  00028	33 c8		 xor	 ecx, eax
  0002a	e8 00 00 00 00	 call	 @__security_check_cookie@4
  0002f	b8 00 00 00 00	 mov	 eax, OFFSET __ehfuncinfo$??0COrderLineManDlg@@QAE@PAVCWnd@@@Z
  00034	e9 00 00 00 00	 jmp	 ___CxxFrameHandler3
text$x	ENDS
??0COrderLineManDlg@@QAE@PAVCWnd@@@Z ENDP		; COrderLineManDlg::COrderLineManDlg
; Function compile flags: /Ogtp
; File D:\git\src\IBK\IBK_DRFN\ProjSrc\SrcChartEx\ChartAddIn\ChartPeriodSummaryAddIn\OrderLineManDlg.cpp
;	COMDAT ?TokenizeEx@COrderLineManDlg@@QAE?AV?$CStringT@DV?$StrTraitMFC_DLL@DV?$ChTraitsCRT@D@ATL@@@@@ATL@@V23@PBDAAH@Z
_TEXT	SEGMENT
_strRes$ = -16						; size = 4
__$EHRec$ = -12						; size = 12
___$ReturnUdt$ = 8					; size = 4
_strSrc$ = 12						; size = 4
_pszTokens$ = 16					; size = 4
$T2 = 20						; size = 4
_iStart$ = 20						; size = 4
?TokenizeEx@COrderLineManDlg@@QAE?AV?$CStringT@DV?$StrTraitMFC_DLL@DV?$ChTraitsCRT@D@ATL@@@@@ATL@@V23@PBDAAH@Z PROC ; COrderLineManDlg::TokenizeEx, COMDAT
; _this$ = ecx

; 185  : {

  00000	55		 push	 ebp
  00001	8b ec		 mov	 ebp, esp
  00003	6a ff		 push	 -1
  00005	68 00 00 00 00	 push	 __ehhandler$?TokenizeEx@COrderLineManDlg@@QAE?AV?$CStringT@DV?$StrTraitMFC_DLL@DV?$ChTraitsCRT@D@ATL@@@@@ATL@@V23@PBDAAH@Z
  0000a	64 a1 00 00 00
	00		 mov	 eax, DWORD PTR fs:0
  00010	50		 push	 eax
  00011	51		 push	 ecx
  00012	56		 push	 esi
  00013	57		 push	 edi
  00014	a1 00 00 00 00	 mov	 eax, DWORD PTR ___security_cookie
  00019	33 c5		 xor	 eax, ebp
  0001b	50		 push	 eax
  0001c	8d 45 f4	 lea	 eax, DWORD PTR __$EHRec$[ebp]
  0001f	64 a3 00 00 00
	00		 mov	 DWORD PTR fs:0, eax

; 186  : 	CString strRes = _T("");

  00025	68 00 00 00 00	 push	 OFFSET ??_C@_00CNPNBAHC@@
  0002a	8d 4d f0	 lea	 ecx, DWORD PTR _strRes$[ebp]
  0002d	c7 45 fc 00 00
	00 00		 mov	 DWORD PTR __$EHRec$[ebp+8], 0
  00034	ff 15 00 00 00
	00		 call	 DWORD PTR __imp_??0?$CStringT@DV?$StrTraitMFC_DLL@DV?$ChTraitsCRT@D@ATL@@@@@ATL@@QAE@PBD@Z

; 187  : 	int iCur = iStart;

  0003a	8b 75 14	 mov	 esi, DWORD PTR _iStart$[ebp]

; 188  : 	iStart = strSrc.Find(pszTokens, iCur);

  0003d	8d 4d 0c	 lea	 ecx, DWORD PTR _strSrc$[ebp]
  00040	c6 45 fc 01	 mov	 BYTE PTR __$EHRec$[ebp+8], 1
  00044	8b 3e		 mov	 edi, DWORD PTR [esi]
  00046	57		 push	 edi
  00047	ff 75 10	 push	 DWORD PTR _pszTokens$[ebp]
  0004a	ff 15 00 00 00
	00		 call	 DWORD PTR __imp_?Find@?$CStringT@DV?$StrTraitMFC_DLL@DV?$ChTraitsCRT@D@ATL@@@@@ATL@@QBEHPBDH@Z
  00050	89 06		 mov	 DWORD PTR [esi], eax

; 189  : 	if(iStart != -1)

  00052	83 f8 ff	 cmp	 eax, -1
  00055	74 2e		 je	 SHORT $LN2@TokenizeEx

; 190  : 	{
; 191  : 		strRes = strSrc.Mid(iCur, iStart-iCur);

  00057	2b c7		 sub	 eax, edi
  00059	8d 4d 0c	 lea	 ecx, DWORD PTR _strSrc$[ebp]
  0005c	50		 push	 eax
  0005d	57		 push	 edi
  0005e	8d 45 14	 lea	 eax, DWORD PTR $T2[ebp]
  00061	50		 push	 eax
  00062	ff 15 00 00 00
	00		 call	 DWORD PTR __imp_?Mid@?$CStringT@DV?$StrTraitMFC_DLL@DV?$ChTraitsCRT@D@ATL@@@@@ATL@@QBE?AV12@HH@Z
  00068	50		 push	 eax
  00069	8d 4d f0	 lea	 ecx, DWORD PTR _strRes$[ebp]
  0006c	c6 45 fc 02	 mov	 BYTE PTR __$EHRec$[ebp+8], 2
  00070	ff 15 00 00 00
	00		 call	 DWORD PTR __imp_??4?$CStringT@DV?$StrTraitMFC_DLL@DV?$ChTraitsCRT@D@ATL@@@@@ATL@@QAEAAV01@ABV01@@Z
  00076	8d 4d 14	 lea	 ecx, DWORD PTR $T2[ebp]
  00079	c6 45 fc 01	 mov	 BYTE PTR __$EHRec$[ebp+8], 1
  0007d	ff 15 00 00 00
	00		 call	 DWORD PTR __imp_??1?$CStringT@DV?$StrTraitMFC_DLL@DV?$ChTraitsCRT@D@ATL@@@@@ATL@@QAE@XZ

; 192  : 		iStart++;

  00083	ff 06		 inc	 DWORD PTR [esi]
$LN2@TokenizeEx:

; 193  : 		return strRes;
; 194  : 	}
; 195  : 	return strRes;
; 196  : }

  00085	8b 4d 08	 mov	 ecx, DWORD PTR ___$ReturnUdt$[ebp]
  00088	8d 45 f0	 lea	 eax, DWORD PTR _strRes$[ebp]
  0008b	50		 push	 eax
  0008c	ff 15 00 00 00
	00		 call	 DWORD PTR __imp_??0?$CStringT@DV?$StrTraitMFC_DLL@DV?$ChTraitsCRT@D@ATL@@@@@ATL@@QAE@ABV01@@Z
  00092	8d 4d f0	 lea	 ecx, DWORD PTR _strRes$[ebp]
  00095	ff 15 00 00 00
	00		 call	 DWORD PTR __imp_??1?$CStringT@DV?$StrTraitMFC_DLL@DV?$ChTraitsCRT@D@ATL@@@@@ATL@@QAE@XZ
  0009b	8d 4d 0c	 lea	 ecx, DWORD PTR _strSrc$[ebp]
  0009e	ff 15 00 00 00
	00		 call	 DWORD PTR __imp_??1?$CStringT@DV?$StrTraitMFC_DLL@DV?$ChTraitsCRT@D@ATL@@@@@ATL@@QAE@XZ
  000a4	8b 45 08	 mov	 eax, DWORD PTR ___$ReturnUdt$[ebp]
  000a7	8b 4d f4	 mov	 ecx, DWORD PTR __$EHRec$[ebp]
  000aa	64 89 0d 00 00
	00 00		 mov	 DWORD PTR fs:0, ecx
  000b1	59		 pop	 ecx
  000b2	5f		 pop	 edi
  000b3	5e		 pop	 esi
  000b4	8b e5		 mov	 esp, ebp
  000b6	5d		 pop	 ebp
  000b7	c2 10 00	 ret	 16			; 00000010H
_TEXT	ENDS
;	COMDAT text$x
text$x	SEGMENT
__unwindfunclet$?TokenizeEx@COrderLineManDlg@@QAE?AV?$CStringT@DV?$StrTraitMFC_DLL@DV?$ChTraitsCRT@D@ATL@@@@@ATL@@V23@PBDAAH@Z$0:
  00000	8d 4d 0c	 lea	 ecx, DWORD PTR _strSrc$[ebp]
  00003	ff 25 00 00 00
	00		 jmp	 DWORD PTR __imp_??1?$CStringT@DV?$StrTraitMFC_DLL@DV?$ChTraitsCRT@D@ATL@@@@@ATL@@QAE@XZ
__unwindfunclet$?TokenizeEx@COrderLineManDlg@@QAE?AV?$CStringT@DV?$StrTraitMFC_DLL@DV?$ChTraitsCRT@D@ATL@@@@@ATL@@V23@PBDAAH@Z$1:
  00009	8d 4d f0	 lea	 ecx, DWORD PTR _strRes$[ebp]
  0000c	ff 25 00 00 00
	00		 jmp	 DWORD PTR __imp_??1?$CStringT@DV?$StrTraitMFC_DLL@DV?$ChTraitsCRT@D@ATL@@@@@ATL@@QAE@XZ
__unwindfunclet$?TokenizeEx@COrderLineManDlg@@QAE?AV?$CStringT@DV?$StrTraitMFC_DLL@DV?$ChTraitsCRT@D@ATL@@@@@ATL@@V23@PBDAAH@Z$2:
  00012	8d 4d 14	 lea	 ecx, DWORD PTR $T2[ebp]
  00015	ff 25 00 00 00
	00		 jmp	 DWORD PTR __imp_??1?$CStringT@DV?$StrTraitMFC_DLL@DV?$ChTraitsCRT@D@ATL@@@@@ATL@@QAE@XZ
  0001b	cc		 int	 3
  0001c	cc		 int	 3
  0001d	cc		 int	 3
  0001e	cc		 int	 3
  0001f	cc		 int	 3
__ehhandler$?TokenizeEx@COrderLineManDlg@@QAE?AV?$CStringT@DV?$StrTraitMFC_DLL@DV?$ChTraitsCRT@D@ATL@@@@@ATL@@V23@PBDAAH@Z:
  00020	90		 npad	 1
  00021	90		 npad	 1
  00022	8b 54 24 08	 mov	 edx, DWORD PTR [esp+8]
  00026	8d 42 0c	 lea	 eax, DWORD PTR [edx+12]
  00029	8b 4a f0	 mov	 ecx, DWORD PTR [edx-16]
  0002c	33 c8		 xor	 ecx, eax
  0002e	e8 00 00 00 00	 call	 @__security_check_cookie@4
  00033	b8 00 00 00 00	 mov	 eax, OFFSET __ehfuncinfo$?TokenizeEx@COrderLineManDlg@@QAE?AV?$CStringT@DV?$StrTraitMFC_DLL@DV?$ChTraitsCRT@D@ATL@@@@@ATL@@V23@PBDAAH@Z
  00038	e9 00 00 00 00	 jmp	 ___CxxFrameHandler3
text$x	ENDS
?TokenizeEx@COrderLineManDlg@@QAE?AV?$CStringT@DV?$StrTraitMFC_DLL@DV?$ChTraitsCRT@D@ATL@@@@@ATL@@V23@PBDAAH@Z ENDP ; COrderLineManDlg::TokenizeEx
; Function compile flags: /Ogtp
; File D:\git\src\IBK\IBK_DRFN\ProjSrc\SrcChartEx\ChartAddIn\ChartPeriodSummaryAddIn\OrderLineManDlg.cpp
; File C:\Program Files (x86)\Microsoft Visual Studio\2019\Community\VC\Tools\MSVC\14.29.30133\atlmfc\include\atlsimpstr.h
; File D:\git\src\IBK\IBK_DRFN\ProjSrc\SrcChartEx\ChartAddIn\ChartPeriodSummaryAddIn\OrderLineManDlg.cpp
; File C:\Program Files (x86)\Microsoft Visual Studio\2019\Community\VC\Tools\MSVC\14.29.30133\atlmfc\include\atlsimpstr.h
; File D:\git\src\IBK\IBK_DRFN\ProjSrc\SrcChartEx\ChartAddIn\ChartPeriodSummaryAddIn\OrderLineManDlg.cpp
; File C:\Program Files (x86)\Microsoft Visual Studio\2019\Community\VC\Tools\MSVC\14.29.30133\atlmfc\include\afxcmn.inl
; File D:\git\src\IBK\IBK_DRFN\ProjSrc\SrcChartEx\ChartAddIn\ChartPeriodSummaryAddIn\OrderLineManDlg.cpp
; File C:\Program Files (x86)\Microsoft Visual Studio\2019\Community\VC\Tools\MSVC\14.29.30133\atlmfc\include\afxcmn.inl
; File D:\git\src\IBK\IBK_DRFN\ProjSrc\SrcChartEx\ChartAddIn\ChartPeriodSummaryAddIn\OrderLineManDlg.cpp
; File C:\Program Files (x86)\Microsoft Visual Studio\2019\Community\VC\Tools\MSVC\14.29.30133\atlmfc\include\afxcmn.inl
; File D:\git\src\IBK\IBK_DRFN\ProjSrc\SrcChartEx\ChartAddIn\ChartPeriodSummaryAddIn\OrderLineManDlg.cpp
; File C:\Program Files (x86)\Microsoft Visual Studio\2019\Community\VC\Tools\MSVC\14.29.30133\atlmfc\include\cstringt.h
; File D:\git\src\IBK\IBK_DRFN\ProjSrc\SrcChartEx\ChartAddIn\ChartPeriodSummaryAddIn\OrderLineManDlg.cpp
; File C:\Program Files (x86)\Microsoft Visual Studio\2019\Community\VC\Tools\MSVC\14.29.30133\atlmfc\include\cstringt.h
; File C:\Program Files (x86)\Microsoft Visual Studio\2019\Community\VC\Tools\MSVC\14.29.30133\atlmfc\include\atlsimpstr.h
; File C:\Program Files (x86)\Microsoft Visual Studio\2019\Community\VC\Tools\MSVC\14.29.30133\atlmfc\include\cstringt.h
; File C:\Program Files (x86)\Microsoft Visual Studio\2019\Community\VC\Tools\MSVC\14.29.30133\atlmfc\include\atlsimpstr.h
; File C:\Program Files (x86)\Microsoft Visual Studio\2019\Community\VC\Tools\MSVC\14.29.30133\atlmfc\include\cstringt.h
; File D:\git\src\IBK\IBK_DRFN\ProjSrc\SrcChartEx\ChartAddIn\ChartPeriodSummaryAddIn\OrderLineManDlg.cpp
; File C:\Program Files (x86)\Microsoft Visual Studio\2019\Community\VC\Tools\MSVC\14.29.30133\atlmfc\include\cstringt.h
; File D:\git\src\IBK\IBK_DRFN\ProjSrc\SrcChartEx\ChartAddIn\ChartPeriodSummaryAddIn\OrderLineManDlg.cpp
; File C:\Program Files (x86)\Microsoft Visual Studio\2019\Community\VC\Tools\MSVC\14.29.30133\atlmfc\include\afxcmn.inl
; File D:\git\src\IBK\IBK_DRFN\ProjSrc\SrcChartEx\ChartAddIn\ChartPeriodSummaryAddIn\OrderLineManDlg.cpp
; File C:\Program Files (x86)\Microsoft Visual Studio\2019\Community\VC\Tools\MSVC\14.29.30133\atlmfc\include\afxcmn.inl
; File D:\git\src\IBK\IBK_DRFN\ProjSrc\SrcChartEx\ChartAddIn\ChartPeriodSummaryAddIn\OrderLineManDlg.cpp
; File C:\Program Files (x86)\Microsoft Visual Studio\2019\Community\VC\Tools\MSVC\14.29.30133\atlmfc\include\afxcmn.inl
; File D:\git\src\IBK\IBK_DRFN\ProjSrc\SrcChartEx\ChartAddIn\ChartPeriodSummaryAddIn\OrderLineManDlg.cpp
;	COMDAT ?FindListItem@COrderLineManDlg@@QAEHV?$CStringT@DV?$StrTraitMFC_DLL@DV?$ChTraitsCRT@D@ATL@@@@@ATL@@@Z
_TEXT	SEGMENT
$T2 = -44						; size = 4
$T3 = -40						; size = 4
$T4 = -36						; size = 4
tv289 = -32						; size = 4
_i$1$ = -28						; size = 4
_nIndex$1$ = -24					; size = 4
_this$1$ = -20						; size = 4
$T5 = -16						; size = 4
__$EHRec$ = -12						; size = 12
_strSerial$ = 8						; size = 4
?FindListItem@COrderLineManDlg@@QAEHV?$CStringT@DV?$StrTraitMFC_DLL@DV?$ChTraitsCRT@D@ATL@@@@@ATL@@@Z PROC ; COrderLineManDlg::FindListItem, COMDAT
; _this$ = ecx

; 169  : {

  00000	55		 push	 ebp
  00001	8b ec		 mov	 ebp, esp
  00003	6a ff		 push	 -1
  00005	68 00 00 00 00	 push	 __ehhandler$?FindListItem@COrderLineManDlg@@QAEHV?$CStringT@DV?$StrTraitMFC_DLL@DV?$ChTraitsCRT@D@ATL@@@@@ATL@@@Z
  0000a	64 a1 00 00 00
	00		 mov	 eax, DWORD PTR fs:0
  00010	50		 push	 eax
  00011	83 ec 20	 sub	 esp, 32			; 00000020H
  00014	53		 push	 ebx
  00015	56		 push	 esi
  00016	57		 push	 edi
  00017	a1 00 00 00 00	 mov	 eax, DWORD PTR ___security_cookie
  0001c	33 c5		 xor	 eax, ebp
  0001e	50		 push	 eax
  0001f	8d 45 f4	 lea	 eax, DWORD PTR __$EHRec$[ebp]
  00022	64 a3 00 00 00
	00		 mov	 DWORD PTR fs:0, eax
  00028	89 4d ec	 mov	 DWORD PTR _this$1$[ebp], ecx
  0002b	33 db		 xor	 ebx, ebx
  0002d	89 5d dc	 mov	 DWORD PTR $T4[ebp], ebx
; File C:\Program Files (x86)\Microsoft Visual Studio\2019\Community\VC\Tools\MSVC\14.29.30133\atlmfc\include\atlsimpstr.h

; 519  : 		return( GetData()->nDataLength );

  00030	8b 45 08	 mov	 eax, DWORD PTR _strSerial$[ebp]
; File D:\git\src\IBK\IBK_DRFN\ProjSrc\SrcChartEx\ChartAddIn\ChartPeriodSummaryAddIn\OrderLineManDlg.cpp

; 171  : 	strSerial.Delete(strSerial.GetLength() - 14, 14);

  00033	8d 4d 08	 lea	 ecx, DWORD PTR _strSerial$[ebp]
  00036	6a 0e		 push	 14			; 0000000eH
  00038	83 cf ff	 or	 edi, -1
  0003b	89 5d fc	 mov	 DWORD PTR __$EHRec$[ebp+8], ebx
  0003e	89 7d e8	 mov	 DWORD PTR _nIndex$1$[ebp], edi
; File C:\Program Files (x86)\Microsoft Visual Studio\2019\Community\VC\Tools\MSVC\14.29.30133\atlmfc\include\atlsimpstr.h

; 519  : 		return( GetData()->nDataLength );

  00041	8b 40 f4	 mov	 eax, DWORD PTR [eax-12]
; File D:\git\src\IBK\IBK_DRFN\ProjSrc\SrcChartEx\ChartAddIn\ChartPeriodSummaryAddIn\OrderLineManDlg.cpp

; 171  : 	strSerial.Delete(strSerial.GetLength() - 14, 14);

  00044	83 c0 f2	 add	 eax, -14		; fffffff2H
  00047	50		 push	 eax
  00048	ff 15 00 00 00
	00		 call	 DWORD PTR __imp_?Delete@?$CStringT@DV?$StrTraitMFC_DLL@DV?$ChTraitsCRT@D@ATL@@@@@ATL@@QAEHHH@Z
; File C:\Program Files (x86)\Microsoft Visual Studio\2019\Community\VC\Tools\MSVC\14.29.30133\atlmfc\include\afxcmn.inl

; 155  : 	{ ASSERT(::IsWindow(m_hWnd)); return (int) ::SendMessage(m_hWnd, LVM_GETITEMCOUNT, 0, 0L); }

  0004e	8b 45 ec	 mov	 eax, DWORD PTR _this$1$[ebp]
; File D:\git\src\IBK\IBK_DRFN\ProjSrc\SrcChartEx\ChartAddIn\ChartPeriodSummaryAddIn\OrderLineManDlg.cpp

; 172  : 	for(int i=0;i<m_ctrlOLList.GetItemCount();i++)

  00051	33 f6		 xor	 esi, esi
; File C:\Program Files (x86)\Microsoft Visual Studio\2019\Community\VC\Tools\MSVC\14.29.30133\atlmfc\include\afxcmn.inl

; 155  : 	{ ASSERT(::IsWindow(m_hWnd)); return (int) ::SendMessage(m_hWnd, LVM_GETITEMCOUNT, 0, 0L); }

  00053	56		 push	 esi
  00054	56		 push	 esi
  00055	68 04 10 00 00	 push	 4100			; 00001004H
  0005a	ff b0 d0 00 00
	00		 push	 DWORD PTR [eax+208]
; File D:\git\src\IBK\IBK_DRFN\ProjSrc\SrcChartEx\ChartAddIn\ChartPeriodSummaryAddIn\OrderLineManDlg.cpp

; 172  : 	for(int i=0;i<m_ctrlOLList.GetItemCount();i++)

  00060	89 75 e4	 mov	 DWORD PTR _i$1$[ebp], esi
; File C:\Program Files (x86)\Microsoft Visual Studio\2019\Community\VC\Tools\MSVC\14.29.30133\atlmfc\include\afxcmn.inl

; 155  : 	{ ASSERT(::IsWindow(m_hWnd)); return (int) ::SendMessage(m_hWnd, LVM_GETITEMCOUNT, 0, 0L); }

  00063	ff 15 00 00 00
	00		 call	 DWORD PTR __imp__SendMessageA@16
; File D:\git\src\IBK\IBK_DRFN\ProjSrc\SrcChartEx\ChartAddIn\ChartPeriodSummaryAddIn\OrderLineManDlg.cpp

; 172  : 	for(int i=0;i<m_ctrlOLList.GetItemCount();i++)

  00069	85 c0		 test	 eax, eax
  0006b	0f 8e ce 00 00
	00		 jle	 $LN3@FindListIt
  00071	8b 45 ec	 mov	 eax, DWORD PTR _this$1$[ebp]
  00074	05 b0 00 00 00	 add	 eax, 176		; 000000b0H
  00079	89 45 e0	 mov	 DWORD PTR tv289[ebp], eax
  0007c	0f 1f 40 00	 npad	 4
$LL4@FindListIt:

; 174  : 		if( strSerial == m_ctrlOLList.GetItemText(i,1) + m_ctrlOLList.GetItemText(i,3))

  00080	6a 03		 push	 3
  00082	56		 push	 esi
  00083	8d 4d d4	 lea	 ecx, DWORD PTR $T2[ebp]
  00086	51		 push	 ecx
  00087	8b c8		 mov	 ecx, eax
  00089	e8 00 00 00 00	 call	 ?GetItemText@CListCtrl@@QBE?AV?$CStringT@DV?$StrTraitMFC_DLL@DV?$ChTraitsCRT@D@ATL@@@@@ATL@@HH@Z ; CListCtrl::GetItemText
  0008e	8b f8		 mov	 edi, eax
  00090	8b 4d e0	 mov	 ecx, DWORD PTR tv289[ebp]
  00093	8d 45 d8	 lea	 eax, DWORD PTR $T3[ebp]
  00096	6a 01		 push	 1
  00098	56		 push	 esi
  00099	50		 push	 eax
  0009a	c6 45 fc 01	 mov	 BYTE PTR __$EHRec$[ebp+8], 1
  0009e	e8 00 00 00 00	 call	 ?GetItemText@CListCtrl@@QBE?AV?$CStringT@DV?$StrTraitMFC_DLL@DV?$ChTraitsCRT@D@ATL@@@@@ATL@@HH@Z ; CListCtrl::GetItemText
  000a3	8b f0		 mov	 esi, eax
; File C:\Program Files (x86)\Microsoft Visual Studio\2019\Community\VC\Tools\MSVC\14.29.30133\atlmfc\include\cstringt.h

; 2390 : 		CStringT strResult( str1.GetManager() );

  000a5	8b ce		 mov	 ecx, esi
; File D:\git\src\IBK\IBK_DRFN\ProjSrc\SrcChartEx\ChartAddIn\ChartPeriodSummaryAddIn\OrderLineManDlg.cpp

; 174  : 		if( strSerial == m_ctrlOLList.GetItemText(i,1) + m_ctrlOLList.GetItemText(i,3))

  000a7	c6 45 fc 03	 mov	 BYTE PTR __$EHRec$[ebp+8], 3
; File C:\Program Files (x86)\Microsoft Visual Studio\2019\Community\VC\Tools\MSVC\14.29.30133\atlmfc\include\cstringt.h

; 2390 : 		CStringT strResult( str1.GetManager() );

  000ab	ff 15 00 00 00
	00		 call	 DWORD PTR __imp_?GetManager@?$CStringT@DV?$StrTraitMFC_DLL@DV?$ChTraitsCRT@D@ATL@@@@@ATL@@QBEPAUIAtlStringMgr@2@XZ
  000b1	50		 push	 eax
  000b2	8d 4d f0	 lea	 ecx, DWORD PTR $T5[ebp]
  000b5	ff 15 00 00 00
	00		 call	 DWORD PTR __imp_??0?$CStringT@DV?$StrTraitMFC_DLL@DV?$ChTraitsCRT@D@ATL@@@@@ATL@@QAE@PAUIAtlStringMgr@1@@Z
; File C:\Program Files (x86)\Microsoft Visual Studio\2019\Community\VC\Tools\MSVC\14.29.30133\atlmfc\include\atlsimpstr.h

; 519  : 		return( GetData()->nDataLength );

  000bb	8b 07		 mov	 eax, DWORD PTR [edi]
; File C:\Program Files (x86)\Microsoft Visual Studio\2019\Community\VC\Tools\MSVC\14.29.30133\atlmfc\include\cstringt.h

; 2394 : 		return( strResult );

  000bd	83 cb 01	 or	 ebx, 1
; File C:\Program Files (x86)\Microsoft Visual Studio\2019\Community\VC\Tools\MSVC\14.29.30133\atlmfc\include\atlsimpstr.h

; 519  : 		return( GetData()->nDataLength );

  000c0	8b 0e		 mov	 ecx, DWORD PTR [esi]
; File C:\Program Files (x86)\Microsoft Visual Studio\2019\Community\VC\Tools\MSVC\14.29.30133\atlmfc\include\cstringt.h

; 2394 : 		return( strResult );

  000c2	89 5d dc	 mov	 DWORD PTR $T4[ebp], ebx
  000c5	ff 70 f4	 push	 DWORD PTR [eax-12]
  000c8	50		 push	 eax
  000c9	ff 71 f4	 push	 DWORD PTR [ecx-12]
  000cc	8d 45 f0	 lea	 eax, DWORD PTR $T5[ebp]
  000cf	51		 push	 ecx
  000d0	50		 push	 eax
  000d1	ff 15 00 00 00
	00		 call	 DWORD PTR __imp_?Concatenate@?$CSimpleStringT@D$00@ATL@@KAXAAV12@PBDH1H@Z
  000d7	83 c4 14	 add	 esp, 20			; 00000014H

; 2479 : 		return(str1.Compare(str2) == 0);

  000da	8d 4d 08	 lea	 ecx, DWORD PTR _strSerial$[ebp]
  000dd	ff 75 f0	 push	 DWORD PTR $T5[ebp]
  000e0	ff 15 00 00 00
	00		 call	 DWORD PTR __imp_?Compare@?$CStringT@DV?$StrTraitMFC_DLL@DV?$ChTraitsCRT@D@ATL@@@@@ATL@@QBEHPBD@Z
; File D:\git\src\IBK\IBK_DRFN\ProjSrc\SrcChartEx\ChartAddIn\ChartPeriodSummaryAddIn\OrderLineManDlg.cpp

; 174  : 		if( strSerial == m_ctrlOLList.GetItemText(i,1) + m_ctrlOLList.GetItemText(i,3))

  000e6	8d 4d f0	 lea	 ecx, DWORD PTR $T5[ebp]
; File C:\Program Files (x86)\Microsoft Visual Studio\2019\Community\VC\Tools\MSVC\14.29.30133\atlmfc\include\cstringt.h

; 2479 : 		return(str1.Compare(str2) == 0);

  000e9	8b f0		 mov	 esi, eax
; File D:\git\src\IBK\IBK_DRFN\ProjSrc\SrcChartEx\ChartAddIn\ChartPeriodSummaryAddIn\OrderLineManDlg.cpp

; 174  : 		if( strSerial == m_ctrlOLList.GetItemText(i,1) + m_ctrlOLList.GetItemText(i,3))

  000eb	83 e3 fe	 and	 ebx, -2			; fffffffeH
  000ee	ff 15 00 00 00
	00		 call	 DWORD PTR __imp_??1?$CStringT@DV?$StrTraitMFC_DLL@DV?$ChTraitsCRT@D@ATL@@@@@ATL@@QAE@XZ
  000f4	8d 4d d8	 lea	 ecx, DWORD PTR $T3[ebp]
  000f7	ff 15 00 00 00
	00		 call	 DWORD PTR __imp_??1?$CStringT@DV?$StrTraitMFC_DLL@DV?$ChTraitsCRT@D@ATL@@@@@ATL@@QAE@XZ
  000fd	8d 4d d4	 lea	 ecx, DWORD PTR $T2[ebp]
  00100	c6 45 fc 00	 mov	 BYTE PTR __$EHRec$[ebp+8], 0
  00104	ff 15 00 00 00
	00		 call	 DWORD PTR __imp_??1?$CStringT@DV?$StrTraitMFC_DLL@DV?$ChTraitsCRT@D@ATL@@@@@ATL@@QAE@XZ
; File C:\Program Files (x86)\Microsoft Visual Studio\2019\Community\VC\Tools\MSVC\14.29.30133\atlmfc\include\afxcmn.inl

; 155  : 	{ ASSERT(::IsWindow(m_hWnd)); return (int) ::SendMessage(m_hWnd, LVM_GETITEMCOUNT, 0, 0L); }

  0010a	8b 45 ec	 mov	 eax, DWORD PTR _this$1$[ebp]
; File D:\git\src\IBK\IBK_DRFN\ProjSrc\SrcChartEx\ChartAddIn\ChartPeriodSummaryAddIn\OrderLineManDlg.cpp

; 174  : 		if( strSerial == m_ctrlOLList.GetItemText(i,1) + m_ctrlOLList.GetItemText(i,3))

  0010d	85 f6		 test	 esi, esi
  0010f	8b 7d e8	 mov	 edi, DWORD PTR _nIndex$1$[ebp]
  00112	8b 75 e4	 mov	 esi, DWORD PTR _i$1$[ebp]
  00115	0f 44 fe	 cmove	 edi, esi
; File C:\Program Files (x86)\Microsoft Visual Studio\2019\Community\VC\Tools\MSVC\14.29.30133\atlmfc\include\afxcmn.inl

; 155  : 	{ ASSERT(::IsWindow(m_hWnd)); return (int) ::SendMessage(m_hWnd, LVM_GETITEMCOUNT, 0, 0L); }

  00118	6a 00		 push	 0
  0011a	6a 00		 push	 0
  0011c	68 04 10 00 00	 push	 4100			; 00001004H
  00121	ff b0 d0 00 00
	00		 push	 DWORD PTR [eax+208]
; File D:\git\src\IBK\IBK_DRFN\ProjSrc\SrcChartEx\ChartAddIn\ChartPeriodSummaryAddIn\OrderLineManDlg.cpp

; 172  : 	for(int i=0;i<m_ctrlOLList.GetItemCount();i++)

  00127	46		 inc	 esi

; 174  : 		if( strSerial == m_ctrlOLList.GetItemText(i,1) + m_ctrlOLList.GetItemText(i,3))

  00128	89 7d e8	 mov	 DWORD PTR _nIndex$1$[ebp], edi
  0012b	89 75 e4	 mov	 DWORD PTR _i$1$[ebp], esi
; File C:\Program Files (x86)\Microsoft Visual Studio\2019\Community\VC\Tools\MSVC\14.29.30133\atlmfc\include\afxcmn.inl

; 155  : 	{ ASSERT(::IsWindow(m_hWnd)); return (int) ::SendMessage(m_hWnd, LVM_GETITEMCOUNT, 0, 0L); }

  0012e	ff 15 00 00 00
	00		 call	 DWORD PTR __imp__SendMessageA@16
; File D:\git\src\IBK\IBK_DRFN\ProjSrc\SrcChartEx\ChartAddIn\ChartPeriodSummaryAddIn\OrderLineManDlg.cpp

; 172  : 	for(int i=0;i<m_ctrlOLList.GetItemCount();i++)

  00134	3b f0		 cmp	 esi, eax
  00136	8b 45 e0	 mov	 eax, DWORD PTR tv289[ebp]
  00139	0f 8c 41 ff ff
	ff		 jl	 $LL4@FindListIt
$LN3@FindListIt:

; 175  : 		{
; 176  : 			nIndex = i;
; 177  : 		}
; 178  : 	}
; 179  : 	return nIndex;

  0013f	8d 4d 08	 lea	 ecx, DWORD PTR _strSerial$[ebp]
  00142	ff 15 00 00 00
	00		 call	 DWORD PTR __imp_??1?$CStringT@DV?$StrTraitMFC_DLL@DV?$ChTraitsCRT@D@ATL@@@@@ATL@@QAE@XZ
  00148	8b c7		 mov	 eax, edi

; 180  : 
; 181  : 
; 182  : }

  0014a	8b 4d f4	 mov	 ecx, DWORD PTR __$EHRec$[ebp]
  0014d	64 89 0d 00 00
	00 00		 mov	 DWORD PTR fs:0, ecx
  00154	59		 pop	 ecx
  00155	5f		 pop	 edi
  00156	5e		 pop	 esi
  00157	5b		 pop	 ebx
  00158	8b e5		 mov	 esp, ebp
  0015a	5d		 pop	 ebp
  0015b	c2 04 00	 ret	 4
_TEXT	ENDS
;	COMDAT text$x
text$x	SEGMENT
__unwindfunclet$?FindListItem@COrderLineManDlg@@QAEHV?$CStringT@DV?$StrTraitMFC_DLL@DV?$ChTraitsCRT@D@ATL@@@@@ATL@@@Z$0:
  00000	8d 4d 08	 lea	 ecx, DWORD PTR _strSerial$[ebp]
  00003	ff 25 00 00 00
	00		 jmp	 DWORD PTR __imp_??1?$CStringT@DV?$StrTraitMFC_DLL@DV?$ChTraitsCRT@D@ATL@@@@@ATL@@QAE@XZ
__unwindfunclet$?FindListItem@COrderLineManDlg@@QAEHV?$CStringT@DV?$StrTraitMFC_DLL@DV?$ChTraitsCRT@D@ATL@@@@@ATL@@@Z$1:
  00009	8d 4d d4	 lea	 ecx, DWORD PTR $T2[ebp]
  0000c	ff 25 00 00 00
	00		 jmp	 DWORD PTR __imp_??1?$CStringT@DV?$StrTraitMFC_DLL@DV?$ChTraitsCRT@D@ATL@@@@@ATL@@QAE@XZ
__unwindfunclet$?FindListItem@COrderLineManDlg@@QAEHV?$CStringT@DV?$StrTraitMFC_DLL@DV?$ChTraitsCRT@D@ATL@@@@@ATL@@@Z$2:
  00012	8d 4d d8	 lea	 ecx, DWORD PTR $T3[ebp]
  00015	ff 25 00 00 00
	00		 jmp	 DWORD PTR __imp_??1?$CStringT@DV?$StrTraitMFC_DLL@DV?$ChTraitsCRT@D@ATL@@@@@ATL@@QAE@XZ
__unwindfunclet$?FindListItem@COrderLineManDlg@@QAEHV?$CStringT@DV?$StrTraitMFC_DLL@DV?$ChTraitsCRT@D@ATL@@@@@ATL@@@Z$4:
  0001b	8b 45 dc	 mov	 eax, DWORD PTR $T4[ebp]
  0001e	83 e0 01	 and	 eax, 1
  00021	0f 84 0d 00 00
	00		 je	 $LN20@FindListIt
  00027	83 65 dc fe	 and	 DWORD PTR $T4[ebp], -2	; fffffffeH
  0002b	8d 4d f0	 lea	 ecx, DWORD PTR $T5[ebp]
  0002e	ff 25 00 00 00
	00		 jmp	 DWORD PTR __imp_??1?$CStringT@DV?$StrTraitMFC_DLL@DV?$ChTraitsCRT@D@ATL@@@@@ATL@@QAE@XZ
$LN20@FindListIt:
  00034	c3		 ret	 0
  00035	cc		 int	 3
  00036	cc		 int	 3
  00037	cc		 int	 3
  00038	cc		 int	 3
  00039	cc		 int	 3
__ehhandler$?FindListItem@COrderLineManDlg@@QAEHV?$CStringT@DV?$StrTraitMFC_DLL@DV?$ChTraitsCRT@D@ATL@@@@@ATL@@@Z:
  0003a	90		 npad	 1
  0003b	90		 npad	 1
  0003c	8b 54 24 08	 mov	 edx, DWORD PTR [esp+8]
  00040	8d 42 0c	 lea	 eax, DWORD PTR [edx+12]
  00043	8b 4a d0	 mov	 ecx, DWORD PTR [edx-48]
  00046	33 c8		 xor	 ecx, eax
  00048	e8 00 00 00 00	 call	 @__security_check_cookie@4
  0004d	b8 00 00 00 00	 mov	 eax, OFFSET __ehfuncinfo$?FindListItem@COrderLineManDlg@@QAEHV?$CStringT@DV?$StrTraitMFC_DLL@DV?$ChTraitsCRT@D@ATL@@@@@ATL@@@Z
  00052	e9 00 00 00 00	 jmp	 ___CxxFrameHandler3
text$x	ENDS
?FindListItem@COrderLineManDlg@@QAEHV?$CStringT@DV?$StrTraitMFC_DLL@DV?$ChTraitsCRT@D@ATL@@@@@ATL@@@Z ENDP ; COrderLineManDlg::FindListItem
; Function compile flags: /Ogtp
; File D:\git\src\IBK\IBK_DRFN\ProjSrc\SrcChartEx\ChartAddIn\ChartPeriodSummaryAddIn\OrderLineManDlg.cpp
; File C:\Program Files (x86)\Microsoft Visual Studio\2019\Community\VC\Tools\MSVC\14.29.30133\atlmfc\include\afxcoll.inl
; File D:\git\src\IBK\IBK_DRFN\ProjSrc\SrcChartEx\ChartAddIn\ChartPeriodSummaryAddIn\OrderLineManDlg.cpp
; File C:\Program Files (x86)\Microsoft Visual Studio\2019\Community\VC\Tools\MSVC\14.29.30133\atlmfc\include\afxcoll.inl
; File D:\git\src\IBK\IBK_DRFN\ProjSrc\SrcChartEx\ChartAddIn\ChartPeriodSummaryAddIn\OrderLineManDlg.cpp
; File D:\git\src\IBK\IBK_DRFN\ProjSrc\SrcChartEx\ChartAddIn\ChartPeriodSummaryAddIn\ChartOrderLineAddInImp.h
; File D:\git\src\IBK\IBK_DRFN\ProjSrc\SrcChartEx\ChartAddIn\ChartPeriodSummaryAddIn\OrderLineManDlg.cpp
;	COMDAT ?RemoveLIneFromObList@COrderLineManDlg@@QAEXV?$CStringT@DV?$StrTraitMFC_DLL@DV?$ChTraitsCRT@D@ATL@@@@@ATL@@@Z
_TEXT	SEGMENT
_pAddIn$1$ = -24					; size = 4
_pLineList$1$ = -20					; size = 4
_pos2$1$ = -16						; size = 4
__$EHRec$ = -12						; size = 12
_strSerial$ = 8						; size = 4
?RemoveLIneFromObList@COrderLineManDlg@@QAEXV?$CStringT@DV?$StrTraitMFC_DLL@DV?$ChTraitsCRT@D@ATL@@@@@ATL@@@Z PROC ; COrderLineManDlg::RemoveLIneFromObList, COMDAT
; _this$ = ecx

; 217  : {

  00000	55		 push	 ebp
  00001	8b ec		 mov	 ebp, esp
  00003	6a ff		 push	 -1
  00005	68 00 00 00 00	 push	 __ehhandler$?RemoveLIneFromObList@COrderLineManDlg@@QAEXV?$CStringT@DV?$StrTraitMFC_DLL@DV?$ChTraitsCRT@D@ATL@@@@@ATL@@@Z
  0000a	64 a1 00 00 00
	00		 mov	 eax, DWORD PTR fs:0
  00010	50		 push	 eax
  00011	83 ec 0c	 sub	 esp, 12			; 0000000cH
  00014	53		 push	 ebx
  00015	56		 push	 esi
  00016	57		 push	 edi
  00017	a1 00 00 00 00	 mov	 eax, DWORD PTR ___security_cookie
  0001c	33 c5		 xor	 eax, ebp
  0001e	50		 push	 eax
  0001f	8d 45 f4	 lea	 eax, DWORD PTR __$EHRec$[ebp]
  00022	64 a3 00 00 00
	00		 mov	 DWORD PTR fs:0, eax

; 218  : 	// (2010/4/17 - Seung-Won, Bae) Make it static to share the Order Line Info within all Chart.
; 219  : 	POSITION psnAddIn = CChartOrderLineAddInImp::m_alOrderLineAddInManager.GetHeadPosition();

  00028	8b 1d 04 00 00
	00		 mov	 ebx, DWORD PTR ?m_alOrderLineAddInManager@CChartOrderLineAddInImp@@2V?$CTypedPtrList@VCObList@@PAVCChartOrderLineAddInImp@@@@A+4
  0002e	c7 45 fc 00 00
	00 00		 mov	 DWORD PTR __$EHRec$[ebp+8], 0

; 220  : 	while( psnAddIn)

  00035	85 db		 test	 ebx, ebx
  00037	74 75		 je	 SHORT $LN3@RemoveLIne
  00039	0f 1f 80 00 00
	00 00		 npad	 7
$LL2@RemoveLIne:

; 222  : 		CChartOrderLineAddInImp *pAddIn = CChartOrderLineAddInImp::m_alOrderLineAddInManager.GetNext( psnAddIn);

  00040	8b 73 08	 mov	 esi, DWORD PTR [ebx+8]
; File C:\Program Files (x86)\Microsoft Visual Studio\2019\Community\VC\Tools\MSVC\14.29.30133\atlmfc\include\afxcoll.inl

; 432  : 		rPosition = (POSITION) pNode->pNext;

  00043	8b 1b		 mov	 ebx, DWORD PTR [ebx]
; File D:\git\src\IBK\IBK_DRFN\ProjSrc\SrcChartEx\ChartAddIn\ChartPeriodSummaryAddIn\OrderLineManDlg.cpp

; 222  : 		CChartOrderLineAddInImp *pAddIn = CChartOrderLineAddInImp::m_alOrderLineAddInManager.GetNext( psnAddIn);

  00045	89 75 e8	 mov	 DWORD PTR _pAddIn$1$[ebp], esi

; 223  : 		if( !pAddIn) return;

  00048	85 f6		 test	 esi, esi
  0004a	74 62		 je	 SHORT $LN3@RemoveLIne

; 224  : 		COLList *pLineList = pAddIn->GetLineList();						//  

  0004c	8d 86 b4 00 00
	00		 lea	 eax, DWORD PTR [esi+180]

; 225  : 		POSITION pos = pLineList->GetHeadPosition();

  00052	8b 70 04	 mov	 esi, DWORD PTR [eax+4]
  00055	89 45 ec	 mov	 DWORD PTR _pLineList$1$[ebp], eax

; 226  : 		while (pos)

  00058	85 f6		 test	 esi, esi
  0005a	74 3f		 je	 SHORT $LN5@RemoveLIne
  0005c	0f 1f 40 00	 npad	 4
$LL4@RemoveLIne:

; 227  : 		{
; 228  : 			POSITION pos2 = pos;	// 
; 229  : 			CLineObj* pLine = pLineList->GetNext(pos);

  00060	8b 7e 08	 mov	 edi, DWORD PTR [esi+8]

; 230  : 			if(pLine->m_strSerial.Find(strSerial) >= 0)

  00063	6a 00		 push	 0
  00065	ff 75 08	 push	 DWORD PTR _strSerial$[ebp]
  00068	89 75 f0	 mov	 DWORD PTR _pos2$1$[ebp], esi
; File C:\Program Files (x86)\Microsoft Visual Studio\2019\Community\VC\Tools\MSVC\14.29.30133\atlmfc\include\afxcoll.inl

; 432  : 		rPosition = (POSITION) pNode->pNext;

  0006b	8b 36		 mov	 esi, DWORD PTR [esi]
; File D:\git\src\IBK\IBK_DRFN\ProjSrc\SrcChartEx\ChartAddIn\ChartPeriodSummaryAddIn\OrderLineManDlg.cpp

; 230  : 			if(pLine->m_strSerial.Find(strSerial) >= 0)

  0006d	8d 8f 30 01 00
	00		 lea	 ecx, DWORD PTR [edi+304]
  00073	ff 15 00 00 00
	00		 call	 DWORD PTR __imp_?Find@?$CStringT@DV?$StrTraitMFC_DLL@DV?$ChTraitsCRT@D@ATL@@@@@ATL@@QBEHPBDH@Z
  00079	85 c0		 test	 eax, eax
  0007b	79 06		 jns	 SHORT $LN34@RemoveLIne

; 226  : 		while (pos)

  0007d	85 f6		 test	 esi, esi
  0007f	75 df		 jne	 SHORT $LL4@RemoveLIne

; 223  : 		if( !pAddIn) return;

  00081	eb 18		 jmp	 SHORT $LN5@RemoveLIne
$LN34@RemoveLIne:

; 231  : 			{
; 232  : 				delete pLine;

  00083	85 ff		 test	 edi, edi
  00085	74 09		 je	 SHORT $LN9@RemoveLIne
  00087	8b 07		 mov	 eax, DWORD PTR [edi]
  00089	8b cf		 mov	 ecx, edi
  0008b	6a 01		 push	 1
  0008d	ff 50 04	 call	 DWORD PTR [eax+4]
$LN9@RemoveLIne:

; 233  : 				pLine = NULL;
; 234  : 				pLineList->RemoveAt(pos2);

  00090	ff 75 f0	 push	 DWORD PTR _pos2$1$[ebp]
  00093	8b 4d ec	 mov	 ecx, DWORD PTR _pLineList$1$[ebp]
  00096	e8 00 00 00 00	 call	 ?RemoveAt@CObList@@QAEXPAU__POSITION@@@Z ; CObList::RemoveAt
$LN5@RemoveLIne:
; File D:\git\src\IBK\IBK_DRFN\ProjSrc\SrcChartEx\ChartAddIn\ChartPeriodSummaryAddIn\ChartOrderLineAddInImp.h

; 74   : 	void		InvalidateControl( void)	{	if( m_pIChartOCX) m_pIChartOCX->InvalidateControl();	}

  0009b	8b 4d e8	 mov	 ecx, DWORD PTR _pAddIn$1$[ebp]
  0009e	8b 49 0c	 mov	 ecx, DWORD PTR [ecx+12]
  000a1	85 c9		 test	 ecx, ecx
  000a3	74 05		 je	 SHORT $LN29@RemoveLIne
  000a5	8b 01		 mov	 eax, DWORD PTR [ecx]
  000a7	ff 50 38	 call	 DWORD PTR [eax+56]
$LN29@RemoveLIne:
; File D:\git\src\IBK\IBK_DRFN\ProjSrc\SrcChartEx\ChartAddIn\ChartPeriodSummaryAddIn\OrderLineManDlg.cpp

; 220  : 	while( psnAddIn)

  000aa	85 db		 test	 ebx, ebx
  000ac	75 92		 jne	 SHORT $LL2@RemoveLIne
$LN3@RemoveLIne:

; 235  : 				break;
; 236  : 			}
; 237  : 		}
; 238  : 
; 239  : 		pAddIn->InvalidateControl();
; 240  : 	}
; 241  : }

  000ae	8d 4d 08	 lea	 ecx, DWORD PTR _strSerial$[ebp]
  000b1	ff 15 00 00 00
	00		 call	 DWORD PTR __imp_??1?$CStringT@DV?$StrTraitMFC_DLL@DV?$ChTraitsCRT@D@ATL@@@@@ATL@@QAE@XZ
  000b7	8b 4d f4	 mov	 ecx, DWORD PTR __$EHRec$[ebp]
  000ba	64 89 0d 00 00
	00 00		 mov	 DWORD PTR fs:0, ecx
  000c1	59		 pop	 ecx
  000c2	5f		 pop	 edi
  000c3	5e		 pop	 esi
  000c4	5b		 pop	 ebx
  000c5	8b e5		 mov	 esp, ebp
  000c7	5d		 pop	 ebp
  000c8	c2 04 00	 ret	 4
_TEXT	ENDS
;	COMDAT text$x
text$x	SEGMENT
__unwindfunclet$?RemoveLIneFromObList@COrderLineManDlg@@QAEXV?$CStringT@DV?$StrTraitMFC_DLL@DV?$ChTraitsCRT@D@ATL@@@@@ATL@@@Z$0:
  00000	8d 4d 08	 lea	 ecx, DWORD PTR _strSerial$[ebp]
  00003	ff 25 00 00 00
	00		 jmp	 DWORD PTR __imp_??1?$CStringT@DV?$StrTraitMFC_DLL@DV?$ChTraitsCRT@D@ATL@@@@@ATL@@QAE@XZ
  00009	cc		 int	 3
  0000a	cc		 int	 3
  0000b	cc		 int	 3
  0000c	cc		 int	 3
  0000d	cc		 int	 3
__ehhandler$?RemoveLIneFromObList@COrderLineManDlg@@QAEXV?$CStringT@DV?$StrTraitMFC_DLL@DV?$ChTraitsCRT@D@ATL@@@@@ATL@@@Z:
  0000e	90		 npad	 1
  0000f	90		 npad	 1
  00010	8b 54 24 08	 mov	 edx, DWORD PTR [esp+8]
  00014	8d 42 0c	 lea	 eax, DWORD PTR [edx+12]
  00017	8b 4a e4	 mov	 ecx, DWORD PTR [edx-28]
  0001a	33 c8		 xor	 ecx, eax
  0001c	e8 00 00 00 00	 call	 @__security_check_cookie@4
  00021	b8 00 00 00 00	 mov	 eax, OFFSET __ehfuncinfo$?RemoveLIneFromObList@COrderLineManDlg@@QAEXV?$CStringT@DV?$StrTraitMFC_DLL@DV?$ChTraitsCRT@D@ATL@@@@@ATL@@@Z
  00026	e9 00 00 00 00	 jmp	 ___CxxFrameHandler3
text$x	ENDS
?RemoveLIneFromObList@COrderLineManDlg@@QAEXV?$CStringT@DV?$StrTraitMFC_DLL@DV?$ChTraitsCRT@D@ATL@@@@@ATL@@@Z ENDP ; COrderLineManDlg::RemoveLIneFromObList
; Function compile flags: /Ogtp
; File C:\Program Files (x86)\Microsoft Visual Studio\2019\Community\VC\Tools\MSVC\14.29.30133\atlmfc\include\afx.inl
;	COMDAT ??_GCListCtrl@@UAEPAXI@Z
_TEXT	SEGMENT
___flags$ = 8						; size = 4
??_GCListCtrl@@UAEPAXI@Z PROC				; CListCtrl::`scalar deleting destructor', COMDAT
; _this$ = ecx
  00000	55		 push	 ebp
  00001	8b ec		 mov	 ebp, esp
  00003	56		 push	 esi
  00004	8b f1		 mov	 esi, ecx
  00006	e8 00 00 00 00	 call	 ??1CListCtrl@@UAE@XZ	; CListCtrl::~CListCtrl
  0000b	8b 45 08	 mov	 eax, DWORD PTR ___flags$[ebp]
  0000e	a8 01		 test	 al, 1
  00010	74 22		 je	 SHORT $LN9@scalar
  00012	a8 04		 test	 al, 4
  00014	75 10		 jne	 SHORT $LN3@scalar

; 112  : 	{ ::operator delete(p); }

  00016	56		 push	 esi
  00017	e8 00 00 00 00	 call	 ??3@YAXPAX@Z		; operator delete
  0001c	83 c4 04	 add	 esp, 4
  0001f	8b c6		 mov	 eax, esi
  00021	5e		 pop	 esi
  00022	5d		 pop	 ebp
  00023	c2 04 00	 ret	 4
$LN3@scalar:
  00026	68 80 00 00 00	 push	 128			; 00000080H
  0002b	56		 push	 esi
  0002c	e8 00 00 00 00	 call	 ?__global_delete@@YAXPAXI@Z ; __global_delete
  00031	83 c4 08	 add	 esp, 8
$LN9@scalar:
  00034	8b c6		 mov	 eax, esi
  00036	5e		 pop	 esi
  00037	5d		 pop	 ebp
  00038	c2 04 00	 ret	 4
??_GCListCtrl@@UAEPAXI@Z ENDP				; CListCtrl::`scalar deleting destructor'
_TEXT	ENDS
; Function compile flags: /Ogtp
; File C:\Program Files (x86)\Microsoft Visual Studio\2019\Community\VC\Tools\MSVC\14.29.30133\atlmfc\include\afxwin2.inl
;	COMDAT ?Create@CDialog@@UAEHIPAVCWnd@@@Z
_TEXT	SEGMENT
_nIDTemplate$ = 8					; size = 4
_pParentWnd$ = 12					; size = 4
?Create@CDialog@@UAEHIPAVCWnd@@@Z PROC			; CDialog::Create, COMDAT
; _this$ = ecx

; 585  : 	{ return CDialog::Create(ATL_MAKEINTRESOURCE(nIDTemplate), pParentWnd); }

  00000	55		 push	 ebp
  00001	8b ec		 mov	 ebp, esp
  00003	0f b7 45 08	 movzx	 eax, WORD PTR _nIDTemplate$[ebp]
  00007	89 45 08	 mov	 DWORD PTR _nIDTemplate$[ebp], eax
  0000a	5d		 pop	 ebp
  0000b	e9 00 00 00 00	 jmp	 ?Create@CDialog@@UAEHPBDPAVCWnd@@@Z ; CDialog::Create
?Create@CDialog@@UAEHIPAVCWnd@@@Z ENDP			; CDialog::Create
_TEXT	ENDS
; Function compile flags: /Ogtp
; File C:\Program Files (x86)\Microsoft Visual Studio\2019\Community\VC\Tools\MSVC\14.29.30133\atlmfc\include\afxwin2.inl
;	COMDAT ?EndModalState@CWnd@@UAEXXZ
_TEXT	SEGMENT
?EndModalState@CWnd@@UAEXXZ PROC			; CWnd::EndModalState, COMDAT
; _this$ = ecx

; 567  : 	{ ::EnableWindow(m_hWnd, TRUE); }

  00000	6a 01		 push	 1
  00002	ff 71 20	 push	 DWORD PTR [ecx+32]
  00005	ff 15 00 00 00
	00		 call	 DWORD PTR __imp__EnableWindow@8
  0000b	c3		 ret	 0
?EndModalState@CWnd@@UAEXXZ ENDP			; CWnd::EndModalState
_TEXT	ENDS
; Function compile flags: /Ogtp
; File C:\Program Files (x86)\Microsoft Visual Studio\2019\Community\VC\Tools\MSVC\14.29.30133\atlmfc\include\afxwin2.inl
;	COMDAT ?BeginModalState@CWnd@@UAEXXZ
_TEXT	SEGMENT
?BeginModalState@CWnd@@UAEXXZ PROC			; CWnd::BeginModalState, COMDAT
; _this$ = ecx

; 565  : 	{ ::EnableWindow(m_hWnd, FALSE); }

  00000	6a 00		 push	 0
  00002	ff 71 20	 push	 DWORD PTR [ecx+32]
  00005	ff 15 00 00 00
	00		 call	 DWORD PTR __imp__EnableWindow@8
  0000b	c3		 ret	 0
?BeginModalState@CWnd@@UAEXXZ ENDP			; CWnd::BeginModalState
_TEXT	ENDS
; Function compile flags: /Ogtp
; File C:\Program Files (x86)\Microsoft Visual Studio\2019\Community\VC\Tools\MSVC\14.29.30133\atlmfc\include\afxwin2.inl
;	COMDAT ?DoDataExchange@CWnd@@MAEXPAVCDataExchange@@@Z
_TEXT	SEGMENT
___formal$ = 8						; size = 4
?DoDataExchange@CWnd@@MAEXPAVCDataExchange@@@Z PROC	; CWnd::DoDataExchange, COMDAT
; _this$ = ecx

; 561  : 	{ } // default does nothing

  00000	c2 04 00	 ret	 4
?DoDataExchange@CWnd@@MAEXPAVCDataExchange@@@Z ENDP	; CWnd::DoDataExchange
_TEXT	ENDS
; Function compile flags: /Ogtp
; File C:\Program Files (x86)\Microsoft Visual Studio\2019\Community\VC\Tools\MSVC\14.29.30133\atlmfc\include\cstringt.h
; File C:\Program Files (x86)\Microsoft Visual Studio\2019\Community\VC\Tools\MSVC\14.29.30133\atlmfc\include\atlsimpstr.h
; File C:\Program Files (x86)\Microsoft Visual Studio\2019\Community\VC\Tools\MSVC\14.29.30133\atlmfc\include\cstringt.h
; File C:\Program Files (x86)\Microsoft Visual Studio\2019\Community\VC\Tools\MSVC\14.29.30133\atlmfc\include\atlsimpstr.h
; File C:\Program Files (x86)\Microsoft Visual Studio\2019\Community\VC\Tools\MSVC\14.29.30133\atlmfc\include\cstringt.h
;	COMDAT ??HATL@@YA?AV?$CStringT@DV?$StrTraitMFC_DLL@DV?$ChTraitsCRT@D@ATL@@@@@0@ABV10@PBD@Z
_TEXT	SEGMENT
$T2 = -16						; size = 4
__$EHRec$ = -12						; size = 12
___$ReturnUdt$ = 8					; size = 4
_str1$ = 12						; size = 4
_psz2$ = 16						; size = 4
??HATL@@YA?AV?$CStringT@DV?$StrTraitMFC_DLL@DV?$ChTraitsCRT@D@ATL@@@@@0@ABV10@PBD@Z PROC ; ATL::operator+, COMDAT

; 2400 : 	{

  00000	55		 push	 ebp
  00001	8b ec		 mov	 ebp, esp
  00003	6a ff		 push	 -1
  00005	68 00 00 00 00	 push	 __ehhandler$??HATL@@YA?AV?$CStringT@DV?$StrTraitMFC_DLL@DV?$ChTraitsCRT@D@ATL@@@@@0@ABV10@PBD@Z
  0000a	64 a1 00 00 00
	00		 mov	 eax, DWORD PTR fs:0
  00010	50		 push	 eax
  00011	51		 push	 ecx
  00012	53		 push	 ebx
  00013	56		 push	 esi
  00014	57		 push	 edi
  00015	a1 00 00 00 00	 mov	 eax, DWORD PTR ___security_cookie
  0001a	33 c5		 xor	 eax, ebp
  0001c	50		 push	 eax
  0001d	8d 45 f4	 lea	 eax, DWORD PTR __$EHRec$[ebp]
  00020	64 a3 00 00 00
	00		 mov	 DWORD PTR fs:0, eax

; 2401 : 		CStringT strResult( str1.GetManager() );

  00026	8b 5d 0c	 mov	 ebx, DWORD PTR _str1$[ebp]
  00029	8b cb		 mov	 ecx, ebx
  0002b	c7 45 f0 00 00
	00 00		 mov	 DWORD PTR $T2[ebp], 0
  00032	ff 15 00 00 00
	00		 call	 DWORD PTR __imp_?GetManager@?$CStringT@DV?$StrTraitMFC_DLL@DV?$ChTraitsCRT@D@ATL@@@@@ATL@@QBEPAUIAtlStringMgr@2@XZ
  00038	8b 7d 08	 mov	 edi, DWORD PTR ___$ReturnUdt$[ebp]
  0003b	8b cf		 mov	 ecx, edi
  0003d	50		 push	 eax
  0003e	ff 15 00 00 00
	00		 call	 DWORD PTR __imp_??0?$CStringT@DV?$StrTraitMFC_DLL@DV?$ChTraitsCRT@D@ATL@@@@@ATL@@QAE@PAUIAtlStringMgr@1@@Z
; File C:\Program Files (x86)\Microsoft Visual Studio\2019\Community\VC\Tools\MSVC\14.29.30133\atlmfc\include\atlsimpstr.h

; 722  : 		if( psz == NULL )

  00044	8b 75 10	 mov	 esi, DWORD PTR _psz2$[ebp]
; File C:\Program Files (x86)\Microsoft Visual Studio\2019\Community\VC\Tools\MSVC\14.29.30133\atlmfc\include\cstringt.h

; 2405 : 		return( strResult );

  00047	c7 45 fc 00 00
	00 00		 mov	 DWORD PTR __$EHRec$[ebp+8], 0
  0004e	c7 45 f0 01 00
	00 00		 mov	 DWORD PTR $T2[ebp], 1
; File C:\Program Files (x86)\Microsoft Visual Studio\2019\Community\VC\Tools\MSVC\14.29.30133\atlmfc\include\atlsimpstr.h

; 722  : 		if( psz == NULL )

  00055	85 f6		 test	 esi, esi
  00057	75 04		 jne	 SHORT $LN6@operator

; 723  : 		{
; 724  : 			return( 0 );

  00059	33 d2		 xor	 edx, edx
  0005b	eb 0e		 jmp	 SHORT $LN5@operator
$LN6@operator:

; 725  : 		}
; 726  : 		return( int( strlen( psz ) ) );

  0005d	8b d6		 mov	 edx, esi
  0005f	8d 4a 01	 lea	 ecx, DWORD PTR [edx+1]
$LL14@operator:
  00062	8a 02		 mov	 al, BYTE PTR [edx]
  00064	42		 inc	 edx
  00065	84 c0		 test	 al, al
  00067	75 f9		 jne	 SHORT $LL14@operator
  00069	2b d1		 sub	 edx, ecx
$LN5@operator:

; 519  : 		return( GetData()->nDataLength );

  0006b	8b 0b		 mov	 ecx, DWORD PTR [ebx]
; File C:\Program Files (x86)\Microsoft Visual Studio\2019\Community\VC\Tools\MSVC\14.29.30133\atlmfc\include\cstringt.h

; 2403 : 		CThisSimpleString::Concatenate( strResult, str1, str1.GetLength(), psz2, CThisSimpleString::StringLength( psz2 ) );

  0006d	52		 push	 edx
  0006e	56		 push	 esi
  0006f	ff 71 f4	 push	 DWORD PTR [ecx-12]
  00072	51		 push	 ecx
  00073	57		 push	 edi
  00074	ff 15 00 00 00
	00		 call	 DWORD PTR __imp_?Concatenate@?$CSimpleStringT@D$00@ATL@@KAXAAV12@PBDH1H@Z
  0007a	83 c4 14	 add	 esp, 20			; 00000014H

; 2405 : 		return( strResult );

  0007d	8b c7		 mov	 eax, edi

; 2406 : 	}

  0007f	8b 4d f4	 mov	 ecx, DWORD PTR __$EHRec$[ebp]
  00082	64 89 0d 00 00
	00 00		 mov	 DWORD PTR fs:0, ecx
  00089	59		 pop	 ecx
  0008a	5f		 pop	 edi
  0008b	5e		 pop	 esi
  0008c	5b		 pop	 ebx
  0008d	8b e5		 mov	 esp, ebp
  0008f	5d		 pop	 ebp
  00090	c3		 ret	 0
_TEXT	ENDS
;	COMDAT text$x
text$x	SEGMENT
__unwindfunclet$??HATL@@YA?AV?$CStringT@DV?$StrTraitMFC_DLL@DV?$ChTraitsCRT@D@ATL@@@@@0@ABV10@PBD@Z$0:
  00000	8b 45 f0	 mov	 eax, DWORD PTR $T2[ebp]
  00003	83 e0 01	 and	 eax, 1
  00006	0f 84 0d 00 00
	00		 je	 $LN4@operator
  0000c	83 65 f0 fe	 and	 DWORD PTR $T2[ebp], -2	; fffffffeH
  00010	8b 4d 08	 mov	 ecx, DWORD PTR ___$ReturnUdt$[ebp]
  00013	ff 25 00 00 00
	00		 jmp	 DWORD PTR __imp_??1?$CStringT@DV?$StrTraitMFC_DLL@DV?$ChTraitsCRT@D@ATL@@@@@ATL@@QAE@XZ
$LN4@operator:
  00019	c3		 ret	 0
  0001a	cc		 int	 3
  0001b	cc		 int	 3
  0001c	cc		 int	 3
  0001d	cc		 int	 3
  0001e	cc		 int	 3
__ehhandler$??HATL@@YA?AV?$CStringT@DV?$StrTraitMFC_DLL@DV?$ChTraitsCRT@D@ATL@@@@@0@ABV10@PBD@Z:
  0001f	90		 npad	 1
  00020	90		 npad	 1
  00021	8b 54 24 08	 mov	 edx, DWORD PTR [esp+8]
  00025	8d 42 0c	 lea	 eax, DWORD PTR [edx+12]
  00028	8b 4a ec	 mov	 ecx, DWORD PTR [edx-20]
  0002b	33 c8		 xor	 ecx, eax
  0002d	e8 00 00 00 00	 call	 @__security_check_cookie@4
  00032	b8 00 00 00 00	 mov	 eax, OFFSET __ehfuncinfo$??HATL@@YA?AV?$CStringT@DV?$StrTraitMFC_DLL@DV?$ChTraitsCRT@D@ATL@@@@@0@ABV10@PBD@Z
  00037	e9 00 00 00 00	 jmp	 ___CxxFrameHandler3
text$x	ENDS
??HATL@@YA?AV?$CStringT@DV?$StrTraitMFC_DLL@DV?$ChTraitsCRT@D@ATL@@@@@0@ABV10@PBD@Z ENDP ; ATL::operator+
; Function compile flags: /Ogtp
; File C:\Program Files (x86)\Microsoft Visual Studio\2019\Community\VC\Tools\MSVC\14.29.30133\atlmfc\include\afx.inl
;	COMDAT ?Dump@CObject@@UBEXAAVCDumpContext@@@Z
_TEXT	SEGMENT
___formal$ = 8						; size = 4
?Dump@CObject@@UBEXAAVCDumpContext@@@Z PROC		; CObject::Dump, COMDAT
; _this$ = ecx

; 122  : 	{ /* no dumping in release builds */ }

  00000	c2 04 00	 ret	 4
?Dump@CObject@@UBEXAAVCDumpContext@@@Z ENDP		; CObject::Dump
_TEXT	ENDS
; Function compile flags: /Ogtp
; File C:\Program Files (x86)\Microsoft Visual Studio\2019\Community\VC\Tools\MSVC\14.29.30133\atlmfc\include\afx.inl
;	COMDAT ?AssertValid@CObject@@UBEXXZ
_TEXT	SEGMENT
?AssertValid@CObject@@UBEXXZ PROC			; CObject::AssertValid, COMDAT
; _this$ = ecx

; 120  : 	{ /* no asserts in release builds */ }

  00000	c2 00 00	 ret	 0
?AssertValid@CObject@@UBEXXZ ENDP			; CObject::AssertValid
_TEXT	ENDS
; Function compile flags: /Ogtp
; File C:\Program Files (x86)\Microsoft Visual Studio\2019\Community\VC\Tools\MSVC\14.29.30133\atlmfc\include\afx.inl
;	COMDAT ?Serialize@CObject@@UAEXAAVCArchive@@@Z
_TEXT	SEGMENT
___formal$ = 8						; size = 4
?Serialize@CObject@@UAEXAAVCArchive@@@Z PROC		; CObject::Serialize, COMDAT
; _this$ = ecx

; 106  : 	{ /* CObject does not serialize anything by default */ }

  00000	c2 04 00	 ret	 4
?Serialize@CObject@@UAEXAAVCArchive@@@Z ENDP		; CObject::Serialize
_TEXT	ENDS
; Function compile flags: /Ogtp
; File D:\git\src\IBK\IBK_DRFN\ProjSrc\SrcChartEx\ChartAddIn\ChartPeriodSummaryAddIn\OrderLineManDlg.cpp
;	COMDAT ?__empty_global_delete@@YAXPAXI@Z
_TEXT	SEGMENT
___formal$ = 8						; size = 4
___formal$ = 12						; size = 4
?__empty_global_delete@@YAXPAXI@Z PROC			; __empty_global_delete, COMDAT

  00000	c2 00 00	 ret	 0
?__empty_global_delete@@YAXPAXI@Z ENDP			; __empty_global_delete
_TEXT	ENDS
; Function compile flags: /Ogtp
; File D:\git\src\IBK\IBK_DRFN\ProjSrc\SrcChartEx\ChartAddIn\ChartPeriodSummaryAddIn\OrderLineManDlg.cpp
;	COMDAT ?__empty_global_delete@@YAXPAX@Z
_TEXT	SEGMENT
___formal$ = 8						; size = 4
?__empty_global_delete@@YAXPAX@Z PROC			; __empty_global_delete, COMDAT

  00000	c2 00 00	 ret	 0
?__empty_global_delete@@YAXPAX@Z ENDP			; __empty_global_delete
_TEXT	ENDS
END
