; Listing generated by Microsoft (R) Optimizing Compiler Version 19.29.30145.0 

	TITLE	D:\git\src\IBK\IBK_DRFN\#DRfn-CS\_Obj\ChartObject\BaseToolSingleton.obj
	.686P
	.XMM
	include listing.inc
	.model	flat

INCLUDELIB MSVCRT
INCLUDELIB OLDNAMES

PUBLIC	?__empty_global_delete@@YAXPAX@Z		; __empty_global_delete
PUBLIC	?__empty_global_delete@@YAXPAXI@Z		; __empty_global_delete
PUBLIC	??0exception@std@@QAE@ABV01@@Z			; std::exception::exception
PUBLIC	??1exception@std@@UAE@XZ			; std::exception::~exception
PUBLIC	?what@exception@std@@UBEPBDXZ			; std::exception::what
PUBLIC	??_Gexception@std@@UAEPAXI@Z			; std::exception::`scalar deleting destructor'
PUBLIC	??0bad_alloc@std@@QAE@ABV01@@Z			; std::bad_alloc::bad_alloc
PUBLIC	??_Gbad_alloc@std@@UAEPAXI@Z			; std::bad_alloc::`scalar deleting destructor'
PUBLIC	??0bad_array_new_length@std@@QAE@XZ		; std::bad_array_new_length::bad_array_new_length
PUBLIC	??1bad_array_new_length@std@@UAE@XZ		; std::bad_array_new_length::~bad_array_new_length
PUBLIC	??0bad_array_new_length@std@@QAE@ABV01@@Z	; std::bad_array_new_length::bad_array_new_length
PUBLIC	??_Gbad_array_new_length@std@@UAEPAXI@Z		; std::bad_array_new_length::`scalar deleting destructor'
PUBLIC	?_Throw_bad_array_new_length@std@@YAXXZ		; std::_Throw_bad_array_new_length
PUBLIC	??0CBlockToolSingleton@@QAE@_N00@Z		; CBlockToolSingleton::CBlockToolSingleton
PUBLIC	?SetIChartCtrl@CBlockToolSingleton@@QAEXPAUIChartCtrl@@@Z ; CBlockToolSingleton::SetIChartCtrl
PUBLIC	?SetUsingTool@CBlockToolSingleton@@QAEXW4TOOLTYPE@CBlockBaseData@@_N@Z ; CBlockToolSingleton::SetUsingTool
PUBLIC	?GetTool@CBlockToolSingleton@@QAEPAVCBlockTool@@PAVCMainBlock@@ABVCPoint@@@Z ; CBlockToolSingleton::GetTool
PUBLIC	?OnDraw@CBlockToolSingleton@@QAEXPAVCDC@@PAVCMainBlock@@@Z ; CBlockToolSingleton::OnDraw
PUBLIC	??0CScaleToolSingleton@@QAE@_N0@Z		; CScaleToolSingleton::CScaleToolSingleton
PUBLIC	?SetIChartCtrl@CScaleToolSingleton@@QAEXPAUIChartCtrl@@@Z ; CScaleToolSingleton::SetIChartCtrl
PUBLIC	?SetUsingTool@CScaleToolSingleton@@QAEXW4TOOLTYPE@CBlockBaseData@@_N@Z ; CScaleToolSingleton::SetUsingTool
PUBLIC	?GetTool@CScaleToolSingleton@@QAEPAVCScaleTool@@PAVCMainBlock@@ABVCPoint@@@Z ; CScaleToolSingleton::GetTool
PUBLIC	??0CGraphToolSingleton@@QAE@_N0@Z		; CGraphToolSingleton::CGraphToolSingleton
PUBLIC	?SetIChartCtrl@CGraphToolSingleton@@QAEXPAUIChartCtrl@@@Z ; CGraphToolSingleton::SetIChartCtrl
PUBLIC	?SetUsingTool@CGraphToolSingleton@@QAEXW4TOOLTYPE@CBlockBaseData@@_N@Z ; CGraphToolSingleton::SetUsingTool
PUBLIC	?GetTitleTool@CGraphToolSingleton@@QAEPAVCGraphTool@@PAVCDC@@PAVCMainBlock@@ABVCPoint@@_N@Z ; CGraphToolSingleton::GetTitleTool
PUBLIC	?GetShapeTool@CGraphToolSingleton@@QAEPAVCGraphTool@@PAVCDC@@PAVCMainBlock@@ABVCPoint@@_N@Z ; CGraphToolSingleton::GetShapeTool
PUBLIC	??0CBaseToolSingleton@@QAE@XZ			; CBaseToolSingleton::CBaseToolSingleton
PUBLIC	?SetIChartCtrl@CBaseToolSingleton@@QAEXPAUIChartCtrl@@@Z ; CBaseToolSingleton::SetIChartCtrl
PUBLIC	?SetUsingTool@CBaseToolSingleton@@QAEXW4TOOLTYPE@CBlockBaseData@@_N@Z ; CBaseToolSingleton::SetUsingTool
PUBLIC	?GetTool@CBaseToolSingleton@@QAEPAVCBaseTool@@PAVCDC@@PAVCMainBlock@@ABVCPoint@@_N3@Z ; CBaseToolSingleton::GetTool
PUBLIC	?OnDraw@CBaseToolSingleton@@QAEXPAVCDC@@PAVCMainBlock@@@Z ; CBaseToolSingleton::OnDraw
PUBLIC	??$_Allocate_manually_vector_aligned@U_Default_allocate_traits@std@@@std@@YAPAXI@Z ; std::_Allocate_manually_vector_aligned<std::_Default_allocate_traits>
PUBLIC	??_7CBlockTool@@6B@				; CBlockTool::`vftable'
PUBLIC	??_7CBlockMoveTool@@6B@				; CBlockMoveTool::`vftable'
PUBLIC	??_7CBlockDeleteTool@@6B@			; CBlockDeleteTool::`vftable'
PUBLIC	??_7CCompartLineTool@@6B@			; CCompartLineTool::`vftable'
PUBLIC	??_7exception@std@@6B@				; std::exception::`vftable'
PUBLIC	??_C@_0BC@EOODALEL@Unknown?5exception@		; `string'
PUBLIC	??_7bad_alloc@std@@6B@				; std::bad_alloc::`vftable'
PUBLIC	??_7bad_array_new_length@std@@6B@		; std::bad_array_new_length::`vftable'
PUBLIC	??_C@_0BF@KINCDENJ@bad?5array?5new?5length@	; `string'
PUBLIC	__TI3?AVbad_array_new_length@std@@
PUBLIC	__CTA3?AVbad_array_new_length@std@@
PUBLIC	??_R0?AVbad_array_new_length@std@@@8		; std::bad_array_new_length `RTTI Type Descriptor'
PUBLIC	__CT??_R0?AVbad_array_new_length@std@@@8??0bad_array_new_length@std@@QAE@ABV01@@Z12
PUBLIC	??_R0?AVbad_alloc@std@@@8			; std::bad_alloc `RTTI Type Descriptor'
PUBLIC	__CT??_R0?AVbad_alloc@std@@@8??0bad_alloc@std@@QAE@ABV01@@Z12
PUBLIC	??_R0?AVexception@std@@@8			; std::exception `RTTI Type Descriptor'
PUBLIC	__CT??_R0?AVexception@std@@@8??0exception@std@@QAE@ABV01@@Z12
PUBLIC	??_7CSubGraphTool@@6B@				; CSubGraphTool::`vftable'
PUBLIC	??_R4CBlockTool@@6B@				; CBlockTool::`RTTI Complete Object Locator'
PUBLIC	??_R0?AVCBlockTool@@@8				; CBlockTool `RTTI Type Descriptor'
PUBLIC	??_R3CBlockTool@@8				; CBlockTool::`RTTI Class Hierarchy Descriptor'
PUBLIC	??_R2CBlockTool@@8				; CBlockTool::`RTTI Base Class Array'
PUBLIC	??_R1A@?0A@EA@CBlockTool@@8			; CBlockTool::`RTTI Base Class Descriptor at (0,-1,0,64)'
PUBLIC	??_R1A@?0A@EA@CBaseTool@@8			; CBaseTool::`RTTI Base Class Descriptor at (0,-1,0,64)'
PUBLIC	??_R0?AVCBaseTool@@@8				; CBaseTool `RTTI Type Descriptor'
PUBLIC	??_R3CBaseTool@@8				; CBaseTool::`RTTI Class Hierarchy Descriptor'
PUBLIC	??_R2CBaseTool@@8				; CBaseTool::`RTTI Base Class Array'
PUBLIC	??_R4CBlockMoveTool@@6B@			; CBlockMoveTool::`RTTI Complete Object Locator'
PUBLIC	??_R0?AVCBlockMoveTool@@@8			; CBlockMoveTool `RTTI Type Descriptor'
PUBLIC	??_R3CBlockMoveTool@@8				; CBlockMoveTool::`RTTI Class Hierarchy Descriptor'
PUBLIC	??_R2CBlockMoveTool@@8				; CBlockMoveTool::`RTTI Base Class Array'
PUBLIC	??_R1A@?0A@EA@CBlockMoveTool@@8			; CBlockMoveTool::`RTTI Base Class Descriptor at (0,-1,0,64)'
PUBLIC	??_R4CBlockDeleteTool@@6B@			; CBlockDeleteTool::`RTTI Complete Object Locator'
PUBLIC	??_R0?AVCBlockDeleteTool@@@8			; CBlockDeleteTool `RTTI Type Descriptor'
PUBLIC	??_R3CBlockDeleteTool@@8			; CBlockDeleteTool::`RTTI Class Hierarchy Descriptor'
PUBLIC	??_R2CBlockDeleteTool@@8			; CBlockDeleteTool::`RTTI Base Class Array'
PUBLIC	??_R1A@?0A@EA@CBlockDeleteTool@@8		; CBlockDeleteTool::`RTTI Base Class Descriptor at (0,-1,0,64)'
PUBLIC	??_R4CCompartLineTool@@6B@			; CCompartLineTool::`RTTI Complete Object Locator'
PUBLIC	??_R0?AVCCompartLineTool@@@8			; CCompartLineTool `RTTI Type Descriptor'
PUBLIC	??_R3CCompartLineTool@@8			; CCompartLineTool::`RTTI Class Hierarchy Descriptor'
PUBLIC	??_R2CCompartLineTool@@8			; CCompartLineTool::`RTTI Base Class Array'
PUBLIC	??_R1A@?0A@EA@CCompartLineTool@@8		; CCompartLineTool::`RTTI Base Class Descriptor at (0,-1,0,64)'
PUBLIC	??_R4exception@std@@6B@				; std::exception::`RTTI Complete Object Locator'
PUBLIC	??_R3exception@std@@8				; std::exception::`RTTI Class Hierarchy Descriptor'
PUBLIC	??_R2exception@std@@8				; std::exception::`RTTI Base Class Array'
PUBLIC	??_R1A@?0A@EA@exception@std@@8			; std::exception::`RTTI Base Class Descriptor at (0,-1,0,64)'
PUBLIC	??_R4bad_alloc@std@@6B@				; std::bad_alloc::`RTTI Complete Object Locator'
PUBLIC	??_R3bad_alloc@std@@8				; std::bad_alloc::`RTTI Class Hierarchy Descriptor'
PUBLIC	??_R2bad_alloc@std@@8				; std::bad_alloc::`RTTI Base Class Array'
PUBLIC	??_R1A@?0A@EA@bad_alloc@std@@8			; std::bad_alloc::`RTTI Base Class Descriptor at (0,-1,0,64)'
PUBLIC	??_R4bad_array_new_length@std@@6B@		; std::bad_array_new_length::`RTTI Complete Object Locator'
PUBLIC	??_R3bad_array_new_length@std@@8		; std::bad_array_new_length::`RTTI Class Hierarchy Descriptor'
PUBLIC	??_R2bad_array_new_length@std@@8		; std::bad_array_new_length::`RTTI Base Class Array'
PUBLIC	??_R1A@?0A@EA@bad_array_new_length@std@@8	; std::bad_array_new_length::`RTTI Base Class Descriptor at (0,-1,0,64)'
PUBLIC	??_R4CSubGraphTool@@6B@				; CSubGraphTool::`RTTI Complete Object Locator'
PUBLIC	??_R0?AVCSubGraphTool@@@8			; CSubGraphTool `RTTI Type Descriptor'
PUBLIC	??_R3CSubGraphTool@@8				; CSubGraphTool::`RTTI Class Hierarchy Descriptor'
PUBLIC	??_R2CSubGraphTool@@8				; CSubGraphTool::`RTTI Base Class Array'
PUBLIC	??_R1A@?0A@EA@CSubGraphTool@@8			; CSubGraphTool::`RTTI Base Class Descriptor at (0,-1,0,64)'
PUBLIC	??_R1A@?0A@EA@CGraphTool@@8			; CGraphTool::`RTTI Base Class Descriptor at (0,-1,0,64)'
PUBLIC	??_R0?AVCGraphTool@@@8				; CGraphTool `RTTI Type Descriptor'
PUBLIC	??_R3CGraphTool@@8				; CGraphTool::`RTTI Class Hierarchy Descriptor'
PUBLIC	??_R2CGraphTool@@8				; CGraphTool::`RTTI Base Class Array'
EXTRN	__purecall:PROC
EXTRN	??2@YAPAXI@Z:PROC				; operator new
EXTRN	??3@YAXPAXI@Z:PROC				; operator delete
EXTRN	__imp___invalid_parameter_noinfo_noreturn:PROC
EXTRN	??0CBaseTool@@QAE@XZ:PROC			; CBaseTool::CBaseTool
EXTRN	?SetIChartCtrl@CBaseTool@@QAEXPAUIChartCtrl@@@Z:PROC ; CBaseTool::SetIChartCtrl
EXTRN	?OnLButtonDblClk@CBaseTool@@UAE_NPAVCDC@@PAVCMainBlock@@ABVCPoint@@@Z:PROC ; CBaseTool::OnLButtonDblClk
EXTRN	?OnRButtonUp@CBaseTool@@UAE?AW4MENUTYPE@CMenuType@@PAVCDC@@PAVCMainBlock@@ABVCPoint@@@Z:PROC ; CBaseTool::OnRButtonUp
EXTRN	?OnMenu@CBaseTool@@UAE_NPAVCMainBlock@@W4ELEMENTMENU@CMenuType@@I@Z:PROC ; CBaseTool::OnMenu
EXTRN	?GetMenuCheck@CBaseTool@@UAE_NPAVCMainBlock@@W4ELEMENTMENU@CMenuType@@I@Z:PROC ; CBaseTool::GetMenuCheck
EXTRN	?InitializeAllData@CBlockTool@@UAEXXZ:PROC	; CBlockTool::InitializeAllData
EXTRN	?OnLButtonDown@CBlockTool@@UAE_NPAVCDC@@PAVCMainBlock@@IABVCPoint@@@Z:PROC ; CBlockTool::OnLButtonDown
EXTRN	?OnLButtonUp@CBlockTool@@UAE_NPAVCDC@@PAVCMainBlock@@ABVCPoint@@@Z:PROC ; CBlockTool::OnLButtonUp
EXTRN	?OnMouseMove@CBlockTool@@UAEXPAVCDC@@PAVCMainBlock@@IABVCPoint@@@Z:PROC ; CBlockTool::OnMouseMove
EXTRN	?OnDraw@CBlockTool@@UAEXPAVCDC@@PAVCMainBlock@@@Z:PROC ; CBlockTool::OnDraw
EXTRN	?DrawSelectionButton@CBlockTool@@QAEXPAVCDC@@PAVCMainBlock@@@Z:PROC ; CBlockTool::DrawSelectionButton
EXTRN	?Find@CBlockTool@@QAE_NPAVCMainBlock@@ABVCPoint@@@Z:PROC ; CBlockTool::Find
EXTRN	?GetToolType@CBlockMoveTool@@UBE?AW4TOOLTYPE@CBlockBaseData@@XZ:PROC ; CBlockMoveTool::GetToolType
EXTRN	?FindBlock@CBlockMoveTool@@MAE_NPAVCMainBlock@@ABVCPoint@@AAVCBlockIndex@@@Z:PROC ; CBlockMoveTool::FindBlock
EXTRN	?DrawSelectionBlock@CBlockMoveTool@@MAEXPAVCDC@@ABVCRect@@ABK2@Z:PROC ; CBlockMoveTool::DrawSelectionBlock
EXTRN	?Executing@CBlockMoveTool@@MAE_NPAVCMainBlock@@ABVCBlockIndex@@@Z:PROC ; CBlockMoveTool::Executing
EXTRN	?GetToolType@CBlockDeleteTool@@UBE?AW4TOOLTYPE@CBlockBaseData@@XZ:PROC ; CBlockDeleteTool::GetToolType
EXTRN	?FindBlock@CBlockDeleteTool@@MAE_NPAVCMainBlock@@ABVCPoint@@AAVCBlockIndex@@@Z:PROC ; CBlockDeleteTool::FindBlock
EXTRN	?DrawSelectionBlock@CBlockDeleteTool@@MAEXPAVCDC@@ABVCRect@@ABK2@Z:PROC ; CBlockDeleteTool::DrawSelectionBlock
EXTRN	?Executing@CBlockDeleteTool@@MAE_NPAVCMainBlock@@ABVCBlockIndex@@@Z:PROC ; CBlockDeleteTool::Executing
EXTRN	??0CBlockSizeTool@@QAE@XZ:PROC			; CBlockSizeTool::CBlockSizeTool
EXTRN	?InitializeAllData@CCompartLineTool@@UAEXXZ:PROC ; CCompartLineTool::InitializeAllData
EXTRN	?GetToolType@CCompartLineTool@@UBE?AW4TOOLTYPE@CBlockBaseData@@XZ:PROC ; CCompartLineTool::GetToolType
EXTRN	?OnLButtonDown@CCompartLineTool@@UAE_NPAVCDC@@PAVCMainBlock@@IABVCPoint@@@Z:PROC ; CCompartLineTool::OnLButtonDown
EXTRN	?OnLButtonUp@CCompartLineTool@@UAE_NPAVCDC@@PAVCMainBlock@@ABVCPoint@@@Z:PROC ; CCompartLineTool::OnLButtonUp
EXTRN	?OnMouseMove@CCompartLineTool@@UAEXPAVCDC@@PAVCMainBlock@@IABVCPoint@@@Z:PROC ; CCompartLineTool::OnMouseMove
EXTRN	?OnDraw@CCompartLineTool@@UAEXPAVCDC@@PAVCMainBlock@@@Z:PROC ; CCompartLineTool::OnDraw
EXTRN	?Find@CCompartLineTool@@QAE_NPAVCMainBlock@@ABVCPoint@@@Z:PROC ; CCompartLineTool::Find
EXTRN	?Find@CScaleTool@@QAE_NPAVCMainBlock@@ABVCPoint@@@Z:PROC ; CScaleTool::Find
EXTRN	??0CHorzScaleTool@@QAE@XZ:PROC			; CHorzScaleTool::CHorzScaleTool
EXTRN	??0CVertScaleTool@@QAE@XZ:PROC			; CVertScaleTool::CVertScaleTool
EXTRN	___std_exception_copy:PROC
EXTRN	___std_exception_destroy:PROC
EXTRN	??_Eexception@std@@UAEPAXI@Z:PROC		; std::exception::`vector deleting destructor'
EXTRN	??_Ebad_alloc@std@@UAEPAXI@Z:PROC		; std::bad_alloc::`vector deleting destructor'
EXTRN	??_Ebad_array_new_length@std@@UAEPAXI@Z:PROC	; std::bad_array_new_length::`vector deleting destructor'
EXTRN	??0CGraphTool@@QAE@XZ:PROC			; CGraphTool::CGraphTool
EXTRN	?SetIChartCtrl@CGraphTool@@QAEXPAUIChartCtrl@@@Z:PROC ; CGraphTool::SetIChartCtrl
EXTRN	?SetGraphMove@CGraphTool@@QAEX_N@Z:PROC		; CGraphTool::SetGraphMove
EXTRN	?SetGraphDelete@CGraphTool@@QAEX_N@Z:PROC	; CGraphTool::SetGraphDelete
EXTRN	?OnLButtonDown@CGraphTool@@UAE_NPAVCDC@@PAVCMainBlock@@IABVCPoint@@@Z:PROC ; CGraphTool::OnLButtonDown
EXTRN	?OnLButtonUp@CGraphTool@@UAE_NPAVCDC@@PAVCMainBlock@@ABVCPoint@@@Z:PROC ; CGraphTool::OnLButtonUp
EXTRN	?OnMouseMove@CGraphTool@@UAEXPAVCDC@@PAVCMainBlock@@IABVCPoint@@@Z:PROC ; CGraphTool::OnMouseMove
EXTRN	?OnMenu@CGraphTool@@UAE_NPAVCMainBlock@@W4ELEMENTMENU@CMenuType@@I@Z:PROC ; CGraphTool::OnMenu
EXTRN	?GetMenuCheck@CGraphTool@@UAE_NPAVCMainBlock@@W4ELEMENTMENU@CMenuType@@I@Z:PROC ; CGraphTool::GetMenuCheck
EXTRN	?OnMenu_SubGraphInvert@CGraphTool@@UAE_NPAVCMainBlock@@PAVCSubGraph@@@Z:PROC ; CGraphTool::OnMenu_SubGraphInvert
EXTRN	?IsGeneralGraph@CGraphTool@@UAEPAVCGraphImp@@PAV2@PAVCVertScaleGroup@@@Z:PROC ; CGraphTool::IsGeneralGraph
EXTRN	?GetMenuCheck_SubGraphInvert@CGraphTool@@UAE_NPAVCMainBlock@@PAVCSubGraph@@@Z:PROC ; CGraphTool::GetMenuCheck_SubGraphInvert
EXTRN	?OnMenu_SubGraphSelectTimeDiff@CGraphTool@@UAE_NPAVCMainBlock@@PAVCSubGraph@@PAVCTimeDiffInfo@@@Z:PROC ; CGraphTool::OnMenu_SubGraphSelectTimeDiff
EXTRN	?GetMenuCheck_SubGraphSelectTimeDiff@CGraphTool@@UAE_NPAVCMainBlock@@PAVCSubGraph@@PAVCTimeDiffInfo@@@Z:PROC ; CGraphTool::GetMenuCheck_SubGraphSelectTimeDiff
EXTRN	??0CSubGraphTitleTool@@QAE@XZ:PROC		; CSubGraphTitleTool::CSubGraphTitleTool
EXTRN	?Find@CSubGraphTitleTool@@QAE_NPAVCDC@@PAVCMainBlock@@ABVCPoint@@@Z:PROC ; CSubGraphTitleTool::Find
EXTRN	?InitializeAllData@CSubGraphTool@@UAEXXZ:PROC	; CSubGraphTool::InitializeAllData
EXTRN	?GetToolType@CSubGraphTool@@UBE?AW4TOOLTYPE@CBlockBaseData@@XZ:PROC ; CSubGraphTool::GetToolType
EXTRN	?OnLButtonDblClk@CSubGraphTool@@UAE_NPAVCDC@@PAVCMainBlock@@ABVCPoint@@@Z:PROC ; CSubGraphTool::OnLButtonDblClk
EXTRN	?OnRButtonUp@CSubGraphTool@@UAE?AW4MENUTYPE@CMenuType@@PAVCDC@@PAVCMainBlock@@ABVCPoint@@@Z:PROC ; CSubGraphTool::OnRButtonUp
EXTRN	?OnDraw@CSubGraphTool@@UAEXPAVCDC@@PAVCMainBlock@@@Z:PROC ; CSubGraphTool::OnDraw
EXTRN	?Find@CSubGraphTool@@QAE_NPAVCDC@@PAVCMainBlock@@ABVCPoint@@@Z:PROC ; CSubGraphTool::Find
EXTRN	?OnLButtonDown_Real@CSubGraphTool@@MAEXPAVCDC@@PAVCMainBlock@@IABVCPoint@@@Z:PROC ; CSubGraphTool::OnLButtonDown_Real
EXTRN	?OnLButtonUp@CSubGraphTool@@MAE_NXZ:PROC	; CSubGraphTool::OnLButtonUp
EXTRN	?OnMouseMove@CSubGraphTool@@MAEXPAVCDC@@PAVCMainBlock@@@Z:PROC ; CSubGraphTool::OnMouseMove
EXTRN	?OnMenu_SubGraph@CSubGraphTool@@MAE_NPAVCMainBlock@@W4ELEMENTMENU@CMenuType@@I@Z:PROC ; CSubGraphTool::OnMenu_SubGraph
EXTRN	?GetMenuCheck_SubGraph@CSubGraphTool@@MAE_NPAVCMainBlock@@W4ELEMENTMENU@CMenuType@@I@Z:PROC ; CSubGraphTool::GetMenuCheck_SubGraph
EXTRN	?IsSelectedSubGraph@CSubGraphTool@@MBE_NXZ:PROC	; CSubGraphTool::IsSelectedSubGraph
EXTRN	?IsSendMessage_SubGraph@CSubGraphTool@@MBE_NXZ:PROC ; CSubGraphTool::IsSendMessage_SubGraph
EXTRN	?GetGraphMoving@CSubGraphTool@@MAEPAVCGraphImp@@XZ:PROC ; CSubGraphTool::GetGraphMoving
EXTRN	?GraphMoving_Ended@CSubGraphTool@@MAEX_N@Z:PROC	; CSubGraphTool::GraphMoving_Ended
EXTRN	__CxxThrowException@8:PROC
EXTRN	??_7type_info@@6B@:QWORD			; type_info::`vftable'
;	COMDAT ??_R2CGraphTool@@8
rdata$r	SEGMENT
??_R2CGraphTool@@8 DD FLAT:??_R1A@?0A@EA@CGraphTool@@8	; CGraphTool::`RTTI Base Class Array'
	DD	FLAT:??_R1A@?0A@EA@CBaseTool@@8
rdata$r	ENDS
;	COMDAT ??_R3CGraphTool@@8
rdata$r	SEGMENT
??_R3CGraphTool@@8 DD 00H				; CGraphTool::`RTTI Class Hierarchy Descriptor'
	DD	00H
	DD	02H
	DD	FLAT:??_R2CGraphTool@@8
rdata$r	ENDS
;	COMDAT ??_R0?AVCGraphTool@@@8
data$rs	SEGMENT
??_R0?AVCGraphTool@@@8 DD FLAT:??_7type_info@@6B@	; CGraphTool `RTTI Type Descriptor'
	DD	00H
	DB	'.?AVCGraphTool@@', 00H
data$rs	ENDS
;	COMDAT ??_R1A@?0A@EA@CGraphTool@@8
rdata$r	SEGMENT
??_R1A@?0A@EA@CGraphTool@@8 DD FLAT:??_R0?AVCGraphTool@@@8 ; CGraphTool::`RTTI Base Class Descriptor at (0,-1,0,64)'
	DD	01H
	DD	00H
	DD	0ffffffffH
	DD	00H
	DD	040H
	DD	FLAT:??_R3CGraphTool@@8
rdata$r	ENDS
;	COMDAT ??_R1A@?0A@EA@CSubGraphTool@@8
rdata$r	SEGMENT
??_R1A@?0A@EA@CSubGraphTool@@8 DD FLAT:??_R0?AVCSubGraphTool@@@8 ; CSubGraphTool::`RTTI Base Class Descriptor at (0,-1,0,64)'
	DD	02H
	DD	00H
	DD	0ffffffffH
	DD	00H
	DD	040H
	DD	FLAT:??_R3CSubGraphTool@@8
rdata$r	ENDS
;	COMDAT ??_R2CSubGraphTool@@8
rdata$r	SEGMENT
??_R2CSubGraphTool@@8 DD FLAT:??_R1A@?0A@EA@CSubGraphTool@@8 ; CSubGraphTool::`RTTI Base Class Array'
	DD	FLAT:??_R1A@?0A@EA@CGraphTool@@8
	DD	FLAT:??_R1A@?0A@EA@CBaseTool@@8
rdata$r	ENDS
;	COMDAT ??_R3CSubGraphTool@@8
rdata$r	SEGMENT
??_R3CSubGraphTool@@8 DD 00H				; CSubGraphTool::`RTTI Class Hierarchy Descriptor'
	DD	00H
	DD	03H
	DD	FLAT:??_R2CSubGraphTool@@8
rdata$r	ENDS
;	COMDAT ??_R0?AVCSubGraphTool@@@8
data$rs	SEGMENT
??_R0?AVCSubGraphTool@@@8 DD FLAT:??_7type_info@@6B@	; CSubGraphTool `RTTI Type Descriptor'
	DD	00H
	DB	'.?AVCSubGraphTool@@', 00H
data$rs	ENDS
;	COMDAT ??_R4CSubGraphTool@@6B@
rdata$r	SEGMENT
??_R4CSubGraphTool@@6B@ DD 00H				; CSubGraphTool::`RTTI Complete Object Locator'
	DD	00H
	DD	00H
	DD	FLAT:??_R0?AVCSubGraphTool@@@8
	DD	FLAT:??_R3CSubGraphTool@@8
rdata$r	ENDS
;	COMDAT ??_R1A@?0A@EA@bad_array_new_length@std@@8
rdata$r	SEGMENT
??_R1A@?0A@EA@bad_array_new_length@std@@8 DD FLAT:??_R0?AVbad_array_new_length@std@@@8 ; std::bad_array_new_length::`RTTI Base Class Descriptor at (0,-1,0,64)'
	DD	02H
	DD	00H
	DD	0ffffffffH
	DD	00H
	DD	040H
	DD	FLAT:??_R3bad_array_new_length@std@@8
rdata$r	ENDS
;	COMDAT ??_R2bad_array_new_length@std@@8
rdata$r	SEGMENT
??_R2bad_array_new_length@std@@8 DD FLAT:??_R1A@?0A@EA@bad_array_new_length@std@@8 ; std::bad_array_new_length::`RTTI Base Class Array'
	DD	FLAT:??_R1A@?0A@EA@bad_alloc@std@@8
	DD	FLAT:??_R1A@?0A@EA@exception@std@@8
rdata$r	ENDS
;	COMDAT ??_R3bad_array_new_length@std@@8
rdata$r	SEGMENT
??_R3bad_array_new_length@std@@8 DD 00H			; std::bad_array_new_length::`RTTI Class Hierarchy Descriptor'
	DD	00H
	DD	03H
	DD	FLAT:??_R2bad_array_new_length@std@@8
rdata$r	ENDS
;	COMDAT ??_R4bad_array_new_length@std@@6B@
rdata$r	SEGMENT
??_R4bad_array_new_length@std@@6B@ DD 00H		; std::bad_array_new_length::`RTTI Complete Object Locator'
	DD	00H
	DD	00H
	DD	FLAT:??_R0?AVbad_array_new_length@std@@@8
	DD	FLAT:??_R3bad_array_new_length@std@@8
rdata$r	ENDS
;	COMDAT ??_R1A@?0A@EA@bad_alloc@std@@8
rdata$r	SEGMENT
??_R1A@?0A@EA@bad_alloc@std@@8 DD FLAT:??_R0?AVbad_alloc@std@@@8 ; std::bad_alloc::`RTTI Base Class Descriptor at (0,-1,0,64)'
	DD	01H
	DD	00H
	DD	0ffffffffH
	DD	00H
	DD	040H
	DD	FLAT:??_R3bad_alloc@std@@8
rdata$r	ENDS
;	COMDAT ??_R2bad_alloc@std@@8
rdata$r	SEGMENT
??_R2bad_alloc@std@@8 DD FLAT:??_R1A@?0A@EA@bad_alloc@std@@8 ; std::bad_alloc::`RTTI Base Class Array'
	DD	FLAT:??_R1A@?0A@EA@exception@std@@8
rdata$r	ENDS
;	COMDAT ??_R3bad_alloc@std@@8
rdata$r	SEGMENT
??_R3bad_alloc@std@@8 DD 00H				; std::bad_alloc::`RTTI Class Hierarchy Descriptor'
	DD	00H
	DD	02H
	DD	FLAT:??_R2bad_alloc@std@@8
rdata$r	ENDS
;	COMDAT ??_R4bad_alloc@std@@6B@
rdata$r	SEGMENT
??_R4bad_alloc@std@@6B@ DD 00H				; std::bad_alloc::`RTTI Complete Object Locator'
	DD	00H
	DD	00H
	DD	FLAT:??_R0?AVbad_alloc@std@@@8
	DD	FLAT:??_R3bad_alloc@std@@8
rdata$r	ENDS
;	COMDAT ??_R1A@?0A@EA@exception@std@@8
rdata$r	SEGMENT
??_R1A@?0A@EA@exception@std@@8 DD FLAT:??_R0?AVexception@std@@@8 ; std::exception::`RTTI Base Class Descriptor at (0,-1,0,64)'
	DD	00H
	DD	00H
	DD	0ffffffffH
	DD	00H
	DD	040H
	DD	FLAT:??_R3exception@std@@8
rdata$r	ENDS
;	COMDAT ??_R2exception@std@@8
rdata$r	SEGMENT
??_R2exception@std@@8 DD FLAT:??_R1A@?0A@EA@exception@std@@8 ; std::exception::`RTTI Base Class Array'
rdata$r	ENDS
;	COMDAT ??_R3exception@std@@8
rdata$r	SEGMENT
??_R3exception@std@@8 DD 00H				; std::exception::`RTTI Class Hierarchy Descriptor'
	DD	00H
	DD	01H
	DD	FLAT:??_R2exception@std@@8
rdata$r	ENDS
;	COMDAT ??_R4exception@std@@6B@
rdata$r	SEGMENT
??_R4exception@std@@6B@ DD 00H				; std::exception::`RTTI Complete Object Locator'
	DD	00H
	DD	00H
	DD	FLAT:??_R0?AVexception@std@@@8
	DD	FLAT:??_R3exception@std@@8
rdata$r	ENDS
;	COMDAT ??_R1A@?0A@EA@CCompartLineTool@@8
rdata$r	SEGMENT
??_R1A@?0A@EA@CCompartLineTool@@8 DD FLAT:??_R0?AVCCompartLineTool@@@8 ; CCompartLineTool::`RTTI Base Class Descriptor at (0,-1,0,64)'
	DD	01H
	DD	00H
	DD	0ffffffffH
	DD	00H
	DD	040H
	DD	FLAT:??_R3CCompartLineTool@@8
rdata$r	ENDS
;	COMDAT ??_R2CCompartLineTool@@8
rdata$r	SEGMENT
??_R2CCompartLineTool@@8 DD FLAT:??_R1A@?0A@EA@CCompartLineTool@@8 ; CCompartLineTool::`RTTI Base Class Array'
	DD	FLAT:??_R1A@?0A@EA@CBaseTool@@8
rdata$r	ENDS
;	COMDAT ??_R3CCompartLineTool@@8
rdata$r	SEGMENT
??_R3CCompartLineTool@@8 DD 00H				; CCompartLineTool::`RTTI Class Hierarchy Descriptor'
	DD	00H
	DD	02H
	DD	FLAT:??_R2CCompartLineTool@@8
rdata$r	ENDS
;	COMDAT ??_R0?AVCCompartLineTool@@@8
data$rs	SEGMENT
??_R0?AVCCompartLineTool@@@8 DD FLAT:??_7type_info@@6B@	; CCompartLineTool `RTTI Type Descriptor'
	DD	00H
	DB	'.?AVCCompartLineTool@@', 00H
data$rs	ENDS
;	COMDAT ??_R4CCompartLineTool@@6B@
rdata$r	SEGMENT
??_R4CCompartLineTool@@6B@ DD 00H			; CCompartLineTool::`RTTI Complete Object Locator'
	DD	00H
	DD	00H
	DD	FLAT:??_R0?AVCCompartLineTool@@@8
	DD	FLAT:??_R3CCompartLineTool@@8
rdata$r	ENDS
;	COMDAT ??_R1A@?0A@EA@CBlockDeleteTool@@8
rdata$r	SEGMENT
??_R1A@?0A@EA@CBlockDeleteTool@@8 DD FLAT:??_R0?AVCBlockDeleteTool@@@8 ; CBlockDeleteTool::`RTTI Base Class Descriptor at (0,-1,0,64)'
	DD	02H
	DD	00H
	DD	0ffffffffH
	DD	00H
	DD	040H
	DD	FLAT:??_R3CBlockDeleteTool@@8
rdata$r	ENDS
;	COMDAT ??_R2CBlockDeleteTool@@8
rdata$r	SEGMENT
??_R2CBlockDeleteTool@@8 DD FLAT:??_R1A@?0A@EA@CBlockDeleteTool@@8 ; CBlockDeleteTool::`RTTI Base Class Array'
	DD	FLAT:??_R1A@?0A@EA@CBlockTool@@8
	DD	FLAT:??_R1A@?0A@EA@CBaseTool@@8
rdata$r	ENDS
;	COMDAT ??_R3CBlockDeleteTool@@8
rdata$r	SEGMENT
??_R3CBlockDeleteTool@@8 DD 00H				; CBlockDeleteTool::`RTTI Class Hierarchy Descriptor'
	DD	00H
	DD	03H
	DD	FLAT:??_R2CBlockDeleteTool@@8
rdata$r	ENDS
;	COMDAT ??_R0?AVCBlockDeleteTool@@@8
data$rs	SEGMENT
??_R0?AVCBlockDeleteTool@@@8 DD FLAT:??_7type_info@@6B@	; CBlockDeleteTool `RTTI Type Descriptor'
	DD	00H
	DB	'.?AVCBlockDeleteTool@@', 00H
data$rs	ENDS
;	COMDAT ??_R4CBlockDeleteTool@@6B@
rdata$r	SEGMENT
??_R4CBlockDeleteTool@@6B@ DD 00H			; CBlockDeleteTool::`RTTI Complete Object Locator'
	DD	00H
	DD	00H
	DD	FLAT:??_R0?AVCBlockDeleteTool@@@8
	DD	FLAT:??_R3CBlockDeleteTool@@8
rdata$r	ENDS
;	COMDAT ??_R1A@?0A@EA@CBlockMoveTool@@8
rdata$r	SEGMENT
??_R1A@?0A@EA@CBlockMoveTool@@8 DD FLAT:??_R0?AVCBlockMoveTool@@@8 ; CBlockMoveTool::`RTTI Base Class Descriptor at (0,-1,0,64)'
	DD	02H
	DD	00H
	DD	0ffffffffH
	DD	00H
	DD	040H
	DD	FLAT:??_R3CBlockMoveTool@@8
rdata$r	ENDS
;	COMDAT ??_R2CBlockMoveTool@@8
rdata$r	SEGMENT
??_R2CBlockMoveTool@@8 DD FLAT:??_R1A@?0A@EA@CBlockMoveTool@@8 ; CBlockMoveTool::`RTTI Base Class Array'
	DD	FLAT:??_R1A@?0A@EA@CBlockTool@@8
	DD	FLAT:??_R1A@?0A@EA@CBaseTool@@8
rdata$r	ENDS
;	COMDAT ??_R3CBlockMoveTool@@8
rdata$r	SEGMENT
??_R3CBlockMoveTool@@8 DD 00H				; CBlockMoveTool::`RTTI Class Hierarchy Descriptor'
	DD	00H
	DD	03H
	DD	FLAT:??_R2CBlockMoveTool@@8
rdata$r	ENDS
;	COMDAT ??_R0?AVCBlockMoveTool@@@8
data$rs	SEGMENT
??_R0?AVCBlockMoveTool@@@8 DD FLAT:??_7type_info@@6B@	; CBlockMoveTool `RTTI Type Descriptor'
	DD	00H
	DB	'.?AVCBlockMoveTool@@', 00H
data$rs	ENDS
;	COMDAT ??_R4CBlockMoveTool@@6B@
rdata$r	SEGMENT
??_R4CBlockMoveTool@@6B@ DD 00H				; CBlockMoveTool::`RTTI Complete Object Locator'
	DD	00H
	DD	00H
	DD	FLAT:??_R0?AVCBlockMoveTool@@@8
	DD	FLAT:??_R3CBlockMoveTool@@8
rdata$r	ENDS
;	COMDAT ??_R2CBaseTool@@8
rdata$r	SEGMENT
??_R2CBaseTool@@8 DD FLAT:??_R1A@?0A@EA@CBaseTool@@8	; CBaseTool::`RTTI Base Class Array'
rdata$r	ENDS
;	COMDAT ??_R3CBaseTool@@8
rdata$r	SEGMENT
??_R3CBaseTool@@8 DD 00H				; CBaseTool::`RTTI Class Hierarchy Descriptor'
	DD	00H
	DD	01H
	DD	FLAT:??_R2CBaseTool@@8
rdata$r	ENDS
;	COMDAT ??_R0?AVCBaseTool@@@8
data$rs	SEGMENT
??_R0?AVCBaseTool@@@8 DD FLAT:??_7type_info@@6B@	; CBaseTool `RTTI Type Descriptor'
	DD	00H
	DB	'.?AVCBaseTool@@', 00H
data$rs	ENDS
;	COMDAT ??_R1A@?0A@EA@CBaseTool@@8
rdata$r	SEGMENT
??_R1A@?0A@EA@CBaseTool@@8 DD FLAT:??_R0?AVCBaseTool@@@8 ; CBaseTool::`RTTI Base Class Descriptor at (0,-1,0,64)'
	DD	00H
	DD	00H
	DD	0ffffffffH
	DD	00H
	DD	040H
	DD	FLAT:??_R3CBaseTool@@8
rdata$r	ENDS
;	COMDAT ??_R1A@?0A@EA@CBlockTool@@8
rdata$r	SEGMENT
??_R1A@?0A@EA@CBlockTool@@8 DD FLAT:??_R0?AVCBlockTool@@@8 ; CBlockTool::`RTTI Base Class Descriptor at (0,-1,0,64)'
	DD	01H
	DD	00H
	DD	0ffffffffH
	DD	00H
	DD	040H
	DD	FLAT:??_R3CBlockTool@@8
rdata$r	ENDS
;	COMDAT ??_R2CBlockTool@@8
rdata$r	SEGMENT
??_R2CBlockTool@@8 DD FLAT:??_R1A@?0A@EA@CBlockTool@@8	; CBlockTool::`RTTI Base Class Array'
	DD	FLAT:??_R1A@?0A@EA@CBaseTool@@8
rdata$r	ENDS
;	COMDAT ??_R3CBlockTool@@8
rdata$r	SEGMENT
??_R3CBlockTool@@8 DD 00H				; CBlockTool::`RTTI Class Hierarchy Descriptor'
	DD	00H
	DD	02H
	DD	FLAT:??_R2CBlockTool@@8
rdata$r	ENDS
;	COMDAT ??_R0?AVCBlockTool@@@8
data$rs	SEGMENT
??_R0?AVCBlockTool@@@8 DD FLAT:??_7type_info@@6B@	; CBlockTool `RTTI Type Descriptor'
	DD	00H
	DB	'.?AVCBlockTool@@', 00H
data$rs	ENDS
;	COMDAT ??_R4CBlockTool@@6B@
rdata$r	SEGMENT
??_R4CBlockTool@@6B@ DD 00H				; CBlockTool::`RTTI Complete Object Locator'
	DD	00H
	DD	00H
	DD	FLAT:??_R0?AVCBlockTool@@@8
	DD	FLAT:??_R3CBlockTool@@8
rdata$r	ENDS
;	COMDAT ??_7CSubGraphTool@@6B@
CONST	SEGMENT
??_7CSubGraphTool@@6B@ DD FLAT:??_R4CSubGraphTool@@6B@	; CSubGraphTool::`vftable'
	DD	FLAT:?InitializeAllData@CSubGraphTool@@UAEXXZ
	DD	FLAT:?GetToolType@CSubGraphTool@@UBE?AW4TOOLTYPE@CBlockBaseData@@XZ
	DD	FLAT:?OnLButtonDown@CGraphTool@@UAE_NPAVCDC@@PAVCMainBlock@@IABVCPoint@@@Z
	DD	FLAT:?OnLButtonUp@CGraphTool@@UAE_NPAVCDC@@PAVCMainBlock@@ABVCPoint@@@Z
	DD	FLAT:?OnLButtonDblClk@CSubGraphTool@@UAE_NPAVCDC@@PAVCMainBlock@@ABVCPoint@@@Z
	DD	FLAT:?OnRButtonUp@CSubGraphTool@@UAE?AW4MENUTYPE@CMenuType@@PAVCDC@@PAVCMainBlock@@ABVCPoint@@@Z
	DD	FLAT:?OnMouseMove@CGraphTool@@UAEXPAVCDC@@PAVCMainBlock@@IABVCPoint@@@Z
	DD	FLAT:?OnMenu@CGraphTool@@UAE_NPAVCMainBlock@@W4ELEMENTMENU@CMenuType@@I@Z
	DD	FLAT:?GetMenuCheck@CGraphTool@@UAE_NPAVCMainBlock@@W4ELEMENTMENU@CMenuType@@I@Z
	DD	FLAT:?OnDraw@CSubGraphTool@@UAEXPAVCDC@@PAVCMainBlock@@@Z
	DD	FLAT:?OnLButtonUp@CSubGraphTool@@MAE_NXZ
	DD	FLAT:?OnMouseMove@CSubGraphTool@@MAEXPAVCDC@@PAVCMainBlock@@@Z
	DD	FLAT:?OnMenu_SubGraphInvert@CGraphTool@@UAE_NPAVCMainBlock@@PAVCSubGraph@@@Z
	DD	FLAT:?IsGeneralGraph@CGraphTool@@UAEPAVCGraphImp@@PAV2@PAVCVertScaleGroup@@@Z
	DD	FLAT:?GetMenuCheck_SubGraphInvert@CGraphTool@@UAE_NPAVCMainBlock@@PAVCSubGraph@@@Z
	DD	FLAT:?OnMenu_SubGraphSelectTimeDiff@CGraphTool@@UAE_NPAVCMainBlock@@PAVCSubGraph@@PAVCTimeDiffInfo@@@Z
	DD	FLAT:?GetMenuCheck_SubGraphSelectTimeDiff@CGraphTool@@UAE_NPAVCMainBlock@@PAVCSubGraph@@PAVCTimeDiffInfo@@@Z
	DD	FLAT:?OnLButtonDown_Real@CSubGraphTool@@MAEXPAVCDC@@PAVCMainBlock@@IABVCPoint@@@Z
	DD	FLAT:?OnMenu_SubGraph@CSubGraphTool@@MAE_NPAVCMainBlock@@W4ELEMENTMENU@CMenuType@@I@Z
	DD	FLAT:?GetMenuCheck_SubGraph@CSubGraphTool@@MAE_NPAVCMainBlock@@W4ELEMENTMENU@CMenuType@@I@Z
	DD	FLAT:?IsSelectedSubGraph@CSubGraphTool@@MBE_NXZ
	DD	FLAT:?IsSendMessage_SubGraph@CSubGraphTool@@MBE_NXZ
	DD	FLAT:?GetGraphMoving@CSubGraphTool@@MAEPAVCGraphImp@@XZ
	DD	FLAT:?GraphMoving_Ended@CSubGraphTool@@MAEX_N@Z
CONST	ENDS
;	COMDAT __CT??_R0?AVexception@std@@@8??0exception@std@@QAE@ABV01@@Z12
xdata$x	SEGMENT
__CT??_R0?AVexception@std@@@8??0exception@std@@QAE@ABV01@@Z12 DD 00H
	DD	FLAT:??_R0?AVexception@std@@@8
	DD	00H
	DD	0ffffffffH
	ORG $+4
	DD	0cH
	DD	FLAT:??0exception@std@@QAE@ABV01@@Z
xdata$x	ENDS
;	COMDAT ??_R0?AVexception@std@@@8
data$r	SEGMENT
??_R0?AVexception@std@@@8 DD FLAT:??_7type_info@@6B@	; std::exception `RTTI Type Descriptor'
	DD	00H
	DB	'.?AVexception@std@@', 00H
data$r	ENDS
;	COMDAT __CT??_R0?AVbad_alloc@std@@@8??0bad_alloc@std@@QAE@ABV01@@Z12
xdata$x	SEGMENT
__CT??_R0?AVbad_alloc@std@@@8??0bad_alloc@std@@QAE@ABV01@@Z12 DD 010H
	DD	FLAT:??_R0?AVbad_alloc@std@@@8
	DD	00H
	DD	0ffffffffH
	ORG $+4
	DD	0cH
	DD	FLAT:??0bad_alloc@std@@QAE@ABV01@@Z
xdata$x	ENDS
;	COMDAT ??_R0?AVbad_alloc@std@@@8
data$r	SEGMENT
??_R0?AVbad_alloc@std@@@8 DD FLAT:??_7type_info@@6B@	; std::bad_alloc `RTTI Type Descriptor'
	DD	00H
	DB	'.?AVbad_alloc@std@@', 00H
data$r	ENDS
;	COMDAT __CT??_R0?AVbad_array_new_length@std@@@8??0bad_array_new_length@std@@QAE@ABV01@@Z12
xdata$x	SEGMENT
__CT??_R0?AVbad_array_new_length@std@@@8??0bad_array_new_length@std@@QAE@ABV01@@Z12 DD 00H
	DD	FLAT:??_R0?AVbad_array_new_length@std@@@8
	DD	00H
	DD	0ffffffffH
	ORG $+4
	DD	0cH
	DD	FLAT:??0bad_array_new_length@std@@QAE@ABV01@@Z
xdata$x	ENDS
;	COMDAT ??_R0?AVbad_array_new_length@std@@@8
data$r	SEGMENT
??_R0?AVbad_array_new_length@std@@@8 DD FLAT:??_7type_info@@6B@ ; std::bad_array_new_length `RTTI Type Descriptor'
	DD	00H
	DB	'.?AVbad_array_new_length@std@@', 00H
data$r	ENDS
;	COMDAT __CTA3?AVbad_array_new_length@std@@
xdata$x	SEGMENT
__CTA3?AVbad_array_new_length@std@@ DD 03H
	DD	FLAT:__CT??_R0?AVbad_array_new_length@std@@@8??0bad_array_new_length@std@@QAE@ABV01@@Z12
	DD	FLAT:__CT??_R0?AVbad_alloc@std@@@8??0bad_alloc@std@@QAE@ABV01@@Z12
	DD	FLAT:__CT??_R0?AVexception@std@@@8??0exception@std@@QAE@ABV01@@Z12
xdata$x	ENDS
;	COMDAT __TI3?AVbad_array_new_length@std@@
xdata$x	SEGMENT
__TI3?AVbad_array_new_length@std@@ DD 00H
	DD	FLAT:??1bad_array_new_length@std@@UAE@XZ
	DD	00H
	DD	FLAT:__CTA3?AVbad_array_new_length@std@@
xdata$x	ENDS
;	COMDAT ??_C@_0BF@KINCDENJ@bad?5array?5new?5length@
CONST	SEGMENT
??_C@_0BF@KINCDENJ@bad?5array?5new?5length@ DB 'bad array new length', 00H ; `string'
CONST	ENDS
;	COMDAT ??_7bad_array_new_length@std@@6B@
CONST	SEGMENT
??_7bad_array_new_length@std@@6B@ DD FLAT:??_R4bad_array_new_length@std@@6B@ ; std::bad_array_new_length::`vftable'
	DD	FLAT:??_Ebad_array_new_length@std@@UAEPAXI@Z
	DD	FLAT:?what@exception@std@@UBEPBDXZ
CONST	ENDS
;	COMDAT ??_7bad_alloc@std@@6B@
CONST	SEGMENT
??_7bad_alloc@std@@6B@ DD FLAT:??_R4bad_alloc@std@@6B@	; std::bad_alloc::`vftable'
	DD	FLAT:??_Ebad_alloc@std@@UAEPAXI@Z
	DD	FLAT:?what@exception@std@@UBEPBDXZ
CONST	ENDS
;	COMDAT ??_C@_0BC@EOODALEL@Unknown?5exception@
CONST	SEGMENT
??_C@_0BC@EOODALEL@Unknown?5exception@ DB 'Unknown exception', 00H ; `string'
CONST	ENDS
;	COMDAT ??_7exception@std@@6B@
CONST	SEGMENT
??_7exception@std@@6B@ DD FLAT:??_R4exception@std@@6B@	; std::exception::`vftable'
	DD	FLAT:??_Eexception@std@@UAEPAXI@Z
	DD	FLAT:?what@exception@std@@UBEPBDXZ
CONST	ENDS
;	COMDAT ??_7CCompartLineTool@@6B@
CONST	SEGMENT
??_7CCompartLineTool@@6B@ DD FLAT:??_R4CCompartLineTool@@6B@ ; CCompartLineTool::`vftable'
	DD	FLAT:?InitializeAllData@CCompartLineTool@@UAEXXZ
	DD	FLAT:?GetToolType@CCompartLineTool@@UBE?AW4TOOLTYPE@CBlockBaseData@@XZ
	DD	FLAT:?OnLButtonDown@CCompartLineTool@@UAE_NPAVCDC@@PAVCMainBlock@@IABVCPoint@@@Z
	DD	FLAT:?OnLButtonUp@CCompartLineTool@@UAE_NPAVCDC@@PAVCMainBlock@@ABVCPoint@@@Z
	DD	FLAT:?OnLButtonDblClk@CBaseTool@@UAE_NPAVCDC@@PAVCMainBlock@@ABVCPoint@@@Z
	DD	FLAT:?OnRButtonUp@CBaseTool@@UAE?AW4MENUTYPE@CMenuType@@PAVCDC@@PAVCMainBlock@@ABVCPoint@@@Z
	DD	FLAT:?OnMouseMove@CCompartLineTool@@UAEXPAVCDC@@PAVCMainBlock@@IABVCPoint@@@Z
	DD	FLAT:?OnMenu@CBaseTool@@UAE_NPAVCMainBlock@@W4ELEMENTMENU@CMenuType@@I@Z
	DD	FLAT:?GetMenuCheck@CBaseTool@@UAE_NPAVCMainBlock@@W4ELEMENTMENU@CMenuType@@I@Z
	DD	FLAT:?OnDraw@CCompartLineTool@@UAEXPAVCDC@@PAVCMainBlock@@@Z
CONST	ENDS
;	COMDAT ??_7CBlockDeleteTool@@6B@
CONST	SEGMENT
??_7CBlockDeleteTool@@6B@ DD FLAT:??_R4CBlockDeleteTool@@6B@ ; CBlockDeleteTool::`vftable'
	DD	FLAT:?InitializeAllData@CBlockTool@@UAEXXZ
	DD	FLAT:?GetToolType@CBlockDeleteTool@@UBE?AW4TOOLTYPE@CBlockBaseData@@XZ
	DD	FLAT:?OnLButtonDown@CBlockTool@@UAE_NPAVCDC@@PAVCMainBlock@@IABVCPoint@@@Z
	DD	FLAT:?OnLButtonUp@CBlockTool@@UAE_NPAVCDC@@PAVCMainBlock@@ABVCPoint@@@Z
	DD	FLAT:?OnLButtonDblClk@CBaseTool@@UAE_NPAVCDC@@PAVCMainBlock@@ABVCPoint@@@Z
	DD	FLAT:?OnRButtonUp@CBaseTool@@UAE?AW4MENUTYPE@CMenuType@@PAVCDC@@PAVCMainBlock@@ABVCPoint@@@Z
	DD	FLAT:?OnMouseMove@CBlockTool@@UAEXPAVCDC@@PAVCMainBlock@@IABVCPoint@@@Z
	DD	FLAT:?OnMenu@CBaseTool@@UAE_NPAVCMainBlock@@W4ELEMENTMENU@CMenuType@@I@Z
	DD	FLAT:?GetMenuCheck@CBaseTool@@UAE_NPAVCMainBlock@@W4ELEMENTMENU@CMenuType@@I@Z
	DD	FLAT:?OnDraw@CBlockTool@@UAEXPAVCDC@@PAVCMainBlock@@@Z
	DD	FLAT:?FindBlock@CBlockDeleteTool@@MAE_NPAVCMainBlock@@ABVCPoint@@AAVCBlockIndex@@@Z
	DD	FLAT:?DrawSelectionBlock@CBlockDeleteTool@@MAEXPAVCDC@@ABVCRect@@ABK2@Z
	DD	FLAT:?Executing@CBlockDeleteTool@@MAE_NPAVCMainBlock@@ABVCBlockIndex@@@Z
CONST	ENDS
;	COMDAT ??_7CBlockMoveTool@@6B@
CONST	SEGMENT
??_7CBlockMoveTool@@6B@ DD FLAT:??_R4CBlockMoveTool@@6B@ ; CBlockMoveTool::`vftable'
	DD	FLAT:?InitializeAllData@CBlockTool@@UAEXXZ
	DD	FLAT:?GetToolType@CBlockMoveTool@@UBE?AW4TOOLTYPE@CBlockBaseData@@XZ
	DD	FLAT:?OnLButtonDown@CBlockTool@@UAE_NPAVCDC@@PAVCMainBlock@@IABVCPoint@@@Z
	DD	FLAT:?OnLButtonUp@CBlockTool@@UAE_NPAVCDC@@PAVCMainBlock@@ABVCPoint@@@Z
	DD	FLAT:?OnLButtonDblClk@CBaseTool@@UAE_NPAVCDC@@PAVCMainBlock@@ABVCPoint@@@Z
	DD	FLAT:?OnRButtonUp@CBaseTool@@UAE?AW4MENUTYPE@CMenuType@@PAVCDC@@PAVCMainBlock@@ABVCPoint@@@Z
	DD	FLAT:?OnMouseMove@CBlockTool@@UAEXPAVCDC@@PAVCMainBlock@@IABVCPoint@@@Z
	DD	FLAT:?OnMenu@CBaseTool@@UAE_NPAVCMainBlock@@W4ELEMENTMENU@CMenuType@@I@Z
	DD	FLAT:?GetMenuCheck@CBaseTool@@UAE_NPAVCMainBlock@@W4ELEMENTMENU@CMenuType@@I@Z
	DD	FLAT:?OnDraw@CBlockTool@@UAEXPAVCDC@@PAVCMainBlock@@@Z
	DD	FLAT:?FindBlock@CBlockMoveTool@@MAE_NPAVCMainBlock@@ABVCPoint@@AAVCBlockIndex@@@Z
	DD	FLAT:?DrawSelectionBlock@CBlockMoveTool@@MAEXPAVCDC@@ABVCRect@@ABK2@Z
	DD	FLAT:?Executing@CBlockMoveTool@@MAE_NPAVCMainBlock@@ABVCBlockIndex@@@Z
CONST	ENDS
;	COMDAT ??_7CBlockTool@@6B@
CONST	SEGMENT
??_7CBlockTool@@6B@ DD FLAT:??_R4CBlockTool@@6B@	; CBlockTool::`vftable'
	DD	FLAT:?InitializeAllData@CBlockTool@@UAEXXZ
	DD	FLAT:__purecall
	DD	FLAT:?OnLButtonDown@CBlockTool@@UAE_NPAVCDC@@PAVCMainBlock@@IABVCPoint@@@Z
	DD	FLAT:?OnLButtonUp@CBlockTool@@UAE_NPAVCDC@@PAVCMainBlock@@ABVCPoint@@@Z
	DD	FLAT:?OnLButtonDblClk@CBaseTool@@UAE_NPAVCDC@@PAVCMainBlock@@ABVCPoint@@@Z
	DD	FLAT:?OnRButtonUp@CBaseTool@@UAE?AW4MENUTYPE@CMenuType@@PAVCDC@@PAVCMainBlock@@ABVCPoint@@@Z
	DD	FLAT:?OnMouseMove@CBlockTool@@UAEXPAVCDC@@PAVCMainBlock@@IABVCPoint@@@Z
	DD	FLAT:?OnMenu@CBaseTool@@UAE_NPAVCMainBlock@@W4ELEMENTMENU@CMenuType@@I@Z
	DD	FLAT:?GetMenuCheck@CBaseTool@@UAE_NPAVCMainBlock@@W4ELEMENTMENU@CMenuType@@I@Z
	DD	FLAT:?OnDraw@CBlockTool@@UAEXPAVCDC@@PAVCMainBlock@@@Z
	DD	FLAT:__purecall
	DD	FLAT:__purecall
	DD	FLAT:__purecall
CONST	ENDS
; Function compile flags: /Ogtp
; File C:\Program Files (x86)\Microsoft Visual Studio\2019\Community\VC\Tools\MSVC\14.29.30133\include\xmemory
;	COMDAT ??$_Allocate_manually_vector_aligned@U_Default_allocate_traits@std@@@std@@YAPAXI@Z
_TEXT	SEGMENT
__Bytes$ = 8						; size = 4
??$_Allocate_manually_vector_aligned@U_Default_allocate_traits@std@@@std@@YAPAXI@Z PROC ; std::_Allocate_manually_vector_aligned<std::_Default_allocate_traits>, COMDAT

; 127  : __declspec(allocator) void* _Allocate_manually_vector_aligned(const size_t _Bytes) {

  00000	55		 push	 ebp
  00001	8b ec		 mov	 ebp, esp

; 128  :     // allocate _Bytes manually aligned to at least _Big_allocation_alignment
; 129  :     const size_t _Block_size = _Non_user_size + _Bytes;

  00003	8b 45 08	 mov	 eax, DWORD PTR __Bytes$[ebp]
  00006	8d 48 23	 lea	 ecx, DWORD PTR [eax+35]

; 130  :     if (_Block_size <= _Bytes) {

  00009	3b c8		 cmp	 ecx, eax
  0000b	0f 86 00 00 00
	00		 jbe	 ?_Throw_bad_array_new_length@std@@YAXXZ ; std::_Throw_bad_array_new_length

; 79   :         return ::operator new(_Bytes);

  00011	51		 push	 ecx
  00012	e8 00 00 00 00	 call	 ??2@YAPAXI@Z		; operator new

; 131  :         _Throw_bad_array_new_length(); // add overflow
; 132  :     }
; 133  : 
; 134  :     const uintptr_t _Ptr_container = reinterpret_cast<uintptr_t>(_Traits::_Allocate(_Block_size));

  00017	8b c8		 mov	 ecx, eax

; 79   :         return ::operator new(_Bytes);

  00019	83 c4 04	 add	 esp, 4

; 135  :     _STL_VERIFY(_Ptr_container != 0, "invalid argument"); // validate even in release since we're doing p[-1]

  0001c	85 c9		 test	 ecx, ecx
  0001e	74 0b		 je	 SHORT $LN7@Allocate_m

; 136  :     void* const _Ptr = reinterpret_cast<void*>((_Ptr_container + _Non_user_size) & ~(_Big_allocation_alignment - 1));

  00020	8d 41 23	 lea	 eax, DWORD PTR [ecx+35]
  00023	83 e0 e0	 and	 eax, -32		; ffffffe0H

; 137  :     static_cast<uintptr_t*>(_Ptr)[-1] = _Ptr_container;

  00026	89 48 fc	 mov	 DWORD PTR [eax-4], ecx

; 138  : 
; 139  : #ifdef _DEBUG
; 140  :     static_cast<uintptr_t*>(_Ptr)[-2] = _Big_allocation_sentinel;
; 141  : #endif // _DEBUG
; 142  :     return _Ptr;
; 143  : }

  00029	5d		 pop	 ebp
  0002a	c3		 ret	 0
$LN7@Allocate_m:

; 135  :     _STL_VERIFY(_Ptr_container != 0, "invalid argument"); // validate even in release since we're doing p[-1]

  0002b	ff 25 00 00 00
	00		 jmp	 DWORD PTR __imp___invalid_parameter_noinfo_noreturn
??$_Allocate_manually_vector_aligned@U_Default_allocate_traits@std@@@std@@YAPAXI@Z ENDP ; std::_Allocate_manually_vector_aligned<std::_Default_allocate_traits>
_TEXT	ENDS
; Function compile flags: /Ogtp
; File D:\git\src\IBK\IBK_DRFN\ProjSrc\SrcChartEx\ChartOCX\ChartObject\BaseToolSingleton.cpp
;	COMDAT ?OnDraw@CBaseToolSingleton@@QAEXPAVCDC@@PAVCMainBlock@@@Z
_TEXT	SEGMENT
_pDC$ = 8						; size = 4
_pMainBlock$ = 12					; size = 4
?OnDraw@CBaseToolSingleton@@QAEXPAVCDC@@PAVCMainBlock@@@Z PROC ; CBaseToolSingleton::OnDraw, COMDAT
; _this$ = ecx

; 249  : {

  00000	55		 push	 ebp
  00001	8b ec		 mov	 ebp, esp
  00003	56		 push	 esi
  00004	57		 push	 edi

; 250  : 	if(pMainBlock == NULL)

  00005	8b 7d 0c	 mov	 edi, DWORD PTR _pMainBlock$[ebp]
  00008	8b f1		 mov	 esi, ecx
  0000a	85 ff		 test	 edi, edi
  0000c	74 35		 je	 SHORT $LN8@OnDraw

; 74   : 	if(m_bUsingMoveTool)

  0000e	80 7e 2c 00	 cmp	 BYTE PTR [esi+44], 0
  00012	53		 push	 ebx
  00013	8b 5d 08	 mov	 ebx, DWORD PTR _pDC$[ebp]
  00016	74 0a		 je	 SHORT $LN6@OnDraw

; 75   : 		m_blockMoveTool.DrawSelectionButton(pDC, pMainBlock);

  00018	57		 push	 edi
  00019	53		 push	 ebx
  0001a	8d 4e 30	 lea	 ecx, DWORD PTR [esi+48]
  0001d	e8 00 00 00 00	 call	 ?DrawSelectionButton@CBlockTool@@QAEXPAVCDC@@PAVCMainBlock@@@Z ; CBlockTool::DrawSelectionButton
$LN6@OnDraw:

; 76   : 
; 77   : 	if(m_bUsingDeleteTool)

  00022	80 7e 2d 00	 cmp	 BYTE PTR [esi+45], 0
  00026	74 0a		 je	 SHORT $LN7@OnDraw

; 78   : 		m_blockDeleteTool.DrawSelectionButton(pDC, pMainBlock);

  00028	57		 push	 edi
  00029	53		 push	 ebx
  0002a	8d 4e 44	 lea	 ecx, DWORD PTR [esi+68]
  0002d	e8 00 00 00 00	 call	 ?DrawSelectionButton@CBlockTool@@QAEXPAVCDC@@PAVCMainBlock@@@Z ; CBlockTool::DrawSelectionButton
$LN7@OnDraw:

; 79   : 
; 80   : 	// 블럭 최대화 추가 - ojtaso (20080519)
; 81   : 	if(m_bUsingSizeTool)

  00032	80 7e 2e 00	 cmp	 BYTE PTR [esi+46], 0
  00036	74 0a		 je	 SHORT $LN10@OnDraw

; 82   : 		m_blockSizeTool.DrawSelectionButton(pDC, pMainBlock);

  00038	57		 push	 edi
  00039	53		 push	 ebx
  0003a	8d 4e 58	 lea	 ecx, DWORD PTR [esi+88]
  0003d	e8 00 00 00 00	 call	 ?DrawSelectionButton@CBlockTool@@QAEXPAVCDC@@PAVCMainBlock@@@Z ; CBlockTool::DrawSelectionButton
$LN10@OnDraw:
  00042	5b		 pop	 ebx
$LN8@OnDraw:
  00043	5f		 pop	 edi

; 251  : 		return;
; 252  : 
; 253  : 	m_blockTool.OnDraw(pDC, pMainBlock);
; 254  : }

  00044	5e		 pop	 esi
  00045	5d		 pop	 ebp
  00046	c2 08 00	 ret	 8
?OnDraw@CBaseToolSingleton@@QAEXPAVCDC@@PAVCMainBlock@@@Z ENDP ; CBaseToolSingleton::OnDraw
_TEXT	ENDS
; Function compile flags: /Ogtp
; File D:\git\src\IBK\IBK_DRFN\ProjSrc\SrcChartEx\ChartOCX\ChartObject\BaseToolSingleton.cpp
;	COMDAT ?GetTool@CBaseToolSingleton@@QAEPAVCBaseTool@@PAVCDC@@PAVCMainBlock@@ABVCPoint@@_N3@Z
_TEXT	SEGMENT
_pDC$ = 8						; size = 4
_pMainBlock$ = 12					; size = 4
_point$ = 16						; size = 4
_pBaseTool$3$ = 20					; size = 4
_useScaleTool$ = 20					; size = 1
_useSubGraphTool$ = 24					; size = 1
?GetTool@CBaseToolSingleton@@QAEPAVCBaseTool@@PAVCDC@@PAVCMainBlock@@ABVCPoint@@_N3@Z PROC ; CBaseToolSingleton::GetTool, COMDAT
; _this$ = ecx

; 220  : {

  00000	55		 push	 ebp
  00001	8b ec		 mov	 ebp, esp
  00003	53		 push	 ebx
  00004	56		 push	 esi
  00005	57		 push	 edi

; 221  : 	if(pMainBlock == NULL)

  00006	8b 7d 0c	 mov	 edi, DWORD PTR _pMainBlock$[ebp]
  00009	8b f1		 mov	 esi, ecx
  0000b	85 ff		 test	 edi, edi
  0000d	0f 84 25 01 00
	00		 je	 $LN25@GetTool

; 222  : 		return NULL;
; 223  : 
; 224  : 	if(m_bUsingComparLineTool && m_compartLineTool.Find(pMainBlock, point))

  00013	80 3e 00	 cmp	 BYTE PTR [esi], 0
  00016	8b 45 10	 mov	 eax, DWORD PTR _point$[ebp]
  00019	74 1b		 je	 SHORT $LN3@GetTool
  0001b	50		 push	 eax
  0001c	57		 push	 edi
  0001d	8d 4e 04	 lea	 ecx, DWORD PTR [esi+4]
  00020	e8 00 00 00 00	 call	 ?Find@CCompartLineTool@@QAE_NPAVCMainBlock@@ABVCPoint@@@Z ; CCompartLineTool::Find
  00025	84 c0		 test	 al, al
  00027	74 0a		 je	 SHORT $LN27@GetTool

; 225  : 		return &m_compartLineTool;

  00029	5f		 pop	 edi
  0002a	8d 46 04	 lea	 eax, DWORD PTR [esi+4]

; 245  : }

  0002d	5e		 pop	 esi
  0002e	5b		 pop	 ebx
  0002f	5d		 pop	 ebp
  00030	c2 14 00	 ret	 20			; 00000014H
$LN27@GetTool:

; 222  : 		return NULL;
; 223  : 
; 224  : 	if(m_bUsingComparLineTool && m_compartLineTool.Find(pMainBlock, point))

  00033	8b 45 10	 mov	 eax, DWORD PTR _point$[ebp]
$LN3@GetTool:

; 164  : 	if( m_bUsingTitleTool && m_subGraphTitleTool.Find(pDC, pMainBlock, point)) return &m_subGraphTitleTool;

  00036	80 be 98 00 00
	00 00		 cmp	 BYTE PTR [esi+152], 0
  0003d	74 23		 je	 SHORT $LN4@GetTool
  0003f	50		 push	 eax
  00040	57		 push	 edi
  00041	ff 75 08	 push	 DWORD PTR _pDC$[ebp]
  00044	8d 9e 9c 00 00
	00		 lea	 ebx, DWORD PTR [esi+156]
  0004a	8b cb		 mov	 ecx, ebx
  0004c	e8 00 00 00 00	 call	 ?Find@CSubGraphTitleTool@@QAE_NPAVCDC@@PAVCMainBlock@@ABVCPoint@@@Z ; CSubGraphTitleTool::Find
  00051	84 c0		 test	 al, al
  00053	74 0d		 je	 SHORT $LN4@GetTool

; 226  : 
; 227  : 	// 디자인 모드일 경우엔 compartLine Tool 만 사용된다!!
; 228  : 	// (2006/10/24 - Seung-Won, Bae) Support Graph Tool in Design Time.
; 229  : 	// (2006/11/1 - Seung-Won, Bae) Support Graph Title First in RunTime.
; 230  : 	CBaseTool* pBaseTool = m_graphTool.GetTitleTool(pDC, pMainBlock, point, FALSE);
; 231  : 	if( pBaseTool) return pBaseTool;

  00055	85 db		 test	 ebx, ebx
  00057	74 09		 je	 SHORT $LN4@GetTool
$LN28@GetTool:
  00059	5f		 pop	 edi

; 245  : }

  0005a	5e		 pop	 esi
  0005b	8b c3		 mov	 eax, ebx
  0005d	5b		 pop	 ebx
  0005e	5d		 pop	 ebp
  0005f	c2 14 00	 ret	 20			; 00000014H
$LN4@GetTool:

; 232  : 	if( pMainBlock->GetDesignMode()) return NULL;

  00062	8b 07		 mov	 eax, DWORD PTR [edi]
  00064	8b cf		 mov	 ecx, edi
  00066	8b 80 7c 01 00
	00		 mov	 eax, DWORD PTR [eax+380]
  0006c	ff d0		 call	 eax
  0006e	84 c0		 test	 al, al
  00070	0f 85 c2 00 00
	00		 jne	 $LN25@GetTool

; 57   : 	if(m_bUsingMoveTool && m_blockMoveTool.Find(pMainBlock, point))

  00076	38 46 2c	 cmp	 BYTE PTR [esi+44], al
  00079	74 12		 je	 SHORT $LN14@GetTool
  0007b	ff 75 10	 push	 DWORD PTR _point$[ebp]
  0007e	8d 5e 30	 lea	 ebx, DWORD PTR [esi+48]
  00081	57		 push	 edi
  00082	8b cb		 mov	 ecx, ebx
  00084	e8 00 00 00 00	 call	 ?Find@CBlockTool@@QAE_NPAVCMainBlock@@ABVCPoint@@@Z ; CBlockTool::Find
  00089	84 c0		 test	 al, al
  0008b	75 30		 jne	 SHORT $LN13@GetTool
$LN14@GetTool:

; 58   : 		return &m_blockMoveTool;
; 59   : 	if(m_bUsingDeleteTool && m_blockDeleteTool.Find(pMainBlock, point))

  0008d	80 7e 2d 00	 cmp	 BYTE PTR [esi+45], 0
  00091	74 12		 je	 SHORT $LN15@GetTool
  00093	ff 75 10	 push	 DWORD PTR _point$[ebp]
  00096	8d 5e 44	 lea	 ebx, DWORD PTR [esi+68]
  00099	57		 push	 edi
  0009a	8b cb		 mov	 ecx, ebx
  0009c	e8 00 00 00 00	 call	 ?Find@CBlockTool@@QAE_NPAVCMainBlock@@ABVCPoint@@@Z ; CBlockTool::Find
  000a1	84 c0		 test	 al, al
  000a3	75 18		 jne	 SHORT $LN13@GetTool
$LN15@GetTool:

; 60   : 		return &m_blockDeleteTool;
; 61   : 	// 블럭 최대화 추가 - ojtaso (20080519)
; 62   : 	if(m_bUsingSizeTool && m_blockSizeTool.Find(pMainBlock, point))

  000a5	80 7e 2e 00	 cmp	 BYTE PTR [esi+46], 0
  000a9	74 16		 je	 SHORT $LN6@GetTool
  000ab	ff 75 10	 push	 DWORD PTR _point$[ebp]
  000ae	8d 5e 58	 lea	 ebx, DWORD PTR [esi+88]
  000b1	57		 push	 edi
  000b2	8b cb		 mov	 ecx, ebx
  000b4	e8 00 00 00 00	 call	 ?Find@CBlockTool@@QAE_NPAVCMainBlock@@ABVCPoint@@@Z ; CBlockTool::Find
  000b9	84 c0		 test	 al, al
  000bb	74 04		 je	 SHORT $LN6@GetTool
$LN13@GetTool:

; 233  : 
; 234  : 	pBaseTool = m_blockTool.GetTool(pMainBlock, point);
; 235  : 	if( pBaseTool) return pBaseTool;

  000bd	85 db		 test	 ebx, ebx
  000bf	75 98		 jne	 SHORT $LN28@GetTool
$LN6@GetTool:

; 236  : 	
; 237  : 	// scale쪽은 mousemove 와 상관이 없음 -> RButton Click 시만 사용함
; 238  : 	if( useScaleTool)

  000c1	80 7d 14 00	 cmp	 BYTE PTR _useScaleTool$[ebp], 0
  000c5	74 3f		 je	 SHORT $LN8@GetTool

; 116  : 	if(m_bUsingHorzTool && m_horzScaleTool.Find(pMainBlock, point))

  000c7	80 7e 6c 00	 cmp	 BYTE PTR [esi+108], 0
  000cb	8b 5d 10	 mov	 ebx, DWORD PTR _point$[ebp]
  000ce	74 13		 je	 SHORT $LN19@GetTool
  000d0	8d 46 70	 lea	 eax, DWORD PTR [esi+112]
  000d3	53		 push	 ebx
  000d4	57		 push	 edi
  000d5	8b c8		 mov	 ecx, eax
  000d7	89 45 14	 mov	 DWORD PTR _pBaseTool$3$[ebp], eax
  000da	e8 00 00 00 00	 call	 ?Find@CScaleTool@@QAE_NPAVCMainBlock@@ABVCPoint@@@Z ; CScaleTool::Find
  000df	84 c0		 test	 al, al
  000e1	75 1c		 jne	 SHORT $LN18@GetTool
$LN19@GetTool:

; 117  : 		return &m_horzScaleTool;
; 118  : 	if(m_bUsingVertTool && m_vertScaleTool.Find(pMainBlock, point))

  000e3	80 7e 6d 00	 cmp	 BYTE PTR [esi+109], 0
  000e7	74 1d		 je	 SHORT $LN8@GetTool
  000e9	8d 86 80 00 00
	00		 lea	 eax, DWORD PTR [esi+128]
  000ef	53		 push	 ebx
  000f0	57		 push	 edi
  000f1	8b c8		 mov	 ecx, eax
  000f3	89 45 14	 mov	 DWORD PTR _pBaseTool$3$[ebp], eax
  000f6	e8 00 00 00 00	 call	 ?Find@CScaleTool@@QAE_NPAVCMainBlock@@ABVCPoint@@@Z ; CScaleTool::Find
  000fb	84 c0		 test	 al, al
  000fd	74 07		 je	 SHORT $LN8@GetTool
$LN18@GetTool:

; 239  : 	{
; 240  : 		pBaseTool = m_scaleTool.GetTool(pMainBlock, point);
; 241  : 		if( pBaseTool) return pBaseTool;

  000ff	8b 45 14	 mov	 eax, DWORD PTR _pBaseTool$3$[ebp]
  00102	85 c0		 test	 eax, eax
  00104	75 34		 jne	 SHORT $LN1@GetTool
$LN8@GetTool:

; 170  : 	if( m_bUsingSubGraphTool && useSubGraphTool && m_subGraphTool.Find(pDC, pMainBlock, point)) return &m_subGraphTool;

  00106	80 be 99 00 00
	00 00		 cmp	 BYTE PTR [esi+153], 0
  0010d	74 1e		 je	 SHORT $LN23@GetTool
  0010f	80 7d 18 00	 cmp	 BYTE PTR _useSubGraphTool$[ebp], 0
  00113	74 18		 je	 SHORT $LN23@GetTool
  00115	ff 75 10	 push	 DWORD PTR _point$[ebp]
  00118	81 c6 e8 00 00
	00		 add	 esi, 232		; 000000e8H
  0011e	57		 push	 edi
  0011f	ff 75 08	 push	 DWORD PTR _pDC$[ebp]
  00122	8b ce		 mov	 ecx, esi
  00124	e8 00 00 00 00	 call	 ?Find@CSubGraphTool@@QAE_NPAVCDC@@PAVCMainBlock@@ABVCPoint@@@Z ; CSubGraphTool::Find
  00129	84 c0		 test	 al, al
  0012b	75 02		 jne	 SHORT $LN22@GetTool
$LN23@GetTool:

; 171  : 	return NULL;

  0012d	33 f6		 xor	 esi, esi
$LN22@GetTool:
  0012f	5f		 pop	 edi

; 242  : 	}
; 243  : 
; 244  : 	return m_graphTool.GetShapeTool(pDC, pMainBlock, point, useSubGraphTool);

  00130	8b c6		 mov	 eax, esi

; 245  : }

  00132	5e		 pop	 esi
  00133	5b		 pop	 ebx
  00134	5d		 pop	 ebp
  00135	c2 14 00	 ret	 20			; 00000014H
$LN25@GetTool:

; 232  : 	if( pMainBlock->GetDesignMode()) return NULL;

  00138	33 c0		 xor	 eax, eax
$LN1@GetTool:
  0013a	5f		 pop	 edi

; 245  : }

  0013b	5e		 pop	 esi
  0013c	5b		 pop	 ebx
  0013d	5d		 pop	 ebp
  0013e	c2 14 00	 ret	 20			; 00000014H
?GetTool@CBaseToolSingleton@@QAEPAVCBaseTool@@PAVCDC@@PAVCMainBlock@@ABVCPoint@@_N3@Z ENDP ; CBaseToolSingleton::GetTool
_TEXT	ENDS
; Function compile flags: /Ogtp
; File D:\git\src\IBK\IBK_DRFN\ProjSrc\SrcChartEx\ChartOCX\ChartObject\BaseToolSingleton.cpp
;	COMDAT ?SetUsingTool@CBaseToolSingleton@@QAEXW4TOOLTYPE@CBlockBaseData@@_N@Z
_TEXT	SEGMENT
_eToolType$ = 8						; size = 4
_bIsUsing$ = 12						; size = 1
?SetUsingTool@CBaseToolSingleton@@QAEXW4TOOLTYPE@CBlockBaseData@@_N@Z PROC ; CBaseToolSingleton::SetUsingTool, COMDAT
; _this$ = ecx

; 195  : {

  00000	55		 push	 ebp
  00001	8b ec		 mov	 ebp, esp

; 196  : 	switch(eToolType){

  00003	8b 55 08	 mov	 edx, DWORD PTR _eToolType$[ebp]
  00006	57		 push	 edi
  00007	8b f9		 mov	 edi, ecx
  00009	83 fa 09	 cmp	 edx, 9
  0000c	0f 87 db 00 00
	00		 ja	 $LN29@SetUsingTo
  00012	0f b6 82 00 00
	00 00		 movzx	 eax, BYTE PTR $LN36@SetUsingTo[edx]
  00019	ff 24 85 00 00
	00 00		 jmp	 DWORD PTR $LN37@SetUsingTo[eax*4]
$LN4@SetUsingTo:

; 197  : 	case CBlockBaseData::TOOL_COMPARTLINE:	// block 크기 tool
; 198  : 		m_bUsingComparLineTool = bIsUsing;

  00020	8a 45 0c	 mov	 al, BYTE PTR _bIsUsing$[ebp]
  00023	88 07		 mov	 BYTE PTR [edi], al
  00025	5f		 pop	 edi

; 199  : 		break;
; 200  : 	case CBlockBaseData::TOOL_BLOCKMOVE:	// block 이동 tool		
; 201  : 	case CBlockBaseData::TOOL_BLOCKDELETE:	// block 삭제 tool
; 202  : 	case CBlockBaseData::TOOL_BLOCKSIZE:	// 블럭 최대화 추가 - ojtaso (20080519)
; 203  : 		m_blockTool.SetUsingTool(eToolType, bIsUsing);
; 204  : 		break;
; 205  : 	case CBlockBaseData::TOOL_HORZSCALE:	// x축 scale tool
; 206  : 	case CBlockBaseData::TOOL_VERTSCALE:	// y축 scale tool
; 207  : 		m_scaleTool.SetUsingTool(eToolType, bIsUsing);
; 208  : 		break;
; 209  : 	case CBlockBaseData::TOOL_GRAPHTITLE:	// graph title tool
; 210  : 	case CBlockBaseData::TOOL_SUBGRAPH:		// subGraph 선택 tool
; 211  : 	case CBlockBaseData::TOOL_GRAPHMOVE:	// graph title / subGraph tool 의 이동
; 212  : 	case CBlockBaseData::TOOL_GRAPHDELETE:	// graph title / subGraph tool 의 삭제
; 213  : 		m_graphTool.SetUsingTool(eToolType, bIsUsing);
; 214  : 		break;
; 215  : 	}
; 216  : }

  00026	5d		 pop	 ebp
  00027	c2 08 00	 ret	 8
$LN5@SetUsingTo:

; 41   : 	switch(eToolType){

  0002a	83 ea 01	 sub	 edx, 1
  0002d	74 24		 je	 SHORT $LN18@SetUsingTo
  0002f	83 ea 01	 sub	 edx, 1
  00032	74 14		 je	 SHORT $LN19@SetUsingTo
  00034	83 ea 07	 sub	 edx, 7
  00037	0f 85 b0 00 00
	00		 jne	 $LN29@SetUsingTo

; 47   : 		break;
; 48   : 	case CBlockBaseData::TOOL_BLOCKSIZE:	// 블럭 최대화 추가 - ojtaso (20080519)
; 49   : 		m_bUsingSizeTool = bIsUsing;

  0003d	8a 45 0c	 mov	 al, BYTE PTR _bIsUsing$[ebp]
  00040	88 47 2e	 mov	 BYTE PTR [edi+46], al
  00043	5f		 pop	 edi

; 199  : 		break;
; 200  : 	case CBlockBaseData::TOOL_BLOCKMOVE:	// block 이동 tool		
; 201  : 	case CBlockBaseData::TOOL_BLOCKDELETE:	// block 삭제 tool
; 202  : 	case CBlockBaseData::TOOL_BLOCKSIZE:	// 블럭 최대화 추가 - ojtaso (20080519)
; 203  : 		m_blockTool.SetUsingTool(eToolType, bIsUsing);
; 204  : 		break;
; 205  : 	case CBlockBaseData::TOOL_HORZSCALE:	// x축 scale tool
; 206  : 	case CBlockBaseData::TOOL_VERTSCALE:	// y축 scale tool
; 207  : 		m_scaleTool.SetUsingTool(eToolType, bIsUsing);
; 208  : 		break;
; 209  : 	case CBlockBaseData::TOOL_GRAPHTITLE:	// graph title tool
; 210  : 	case CBlockBaseData::TOOL_SUBGRAPH:		// subGraph 선택 tool
; 211  : 	case CBlockBaseData::TOOL_GRAPHMOVE:	// graph title / subGraph tool 의 이동
; 212  : 	case CBlockBaseData::TOOL_GRAPHDELETE:	// graph title / subGraph tool 의 삭제
; 213  : 		m_graphTool.SetUsingTool(eToolType, bIsUsing);
; 214  : 		break;
; 215  : 	}
; 216  : }

  00044	5d		 pop	 ebp
  00045	c2 08 00	 ret	 8
$LN19@SetUsingTo:

; 46   : 		m_bUsingDeleteTool = bIsUsing;

  00048	8a 45 0c	 mov	 al, BYTE PTR _bIsUsing$[ebp]
  0004b	88 47 2d	 mov	 BYTE PTR [edi+45], al
  0004e	5f		 pop	 edi

; 199  : 		break;
; 200  : 	case CBlockBaseData::TOOL_BLOCKMOVE:	// block 이동 tool		
; 201  : 	case CBlockBaseData::TOOL_BLOCKDELETE:	// block 삭제 tool
; 202  : 	case CBlockBaseData::TOOL_BLOCKSIZE:	// 블럭 최대화 추가 - ojtaso (20080519)
; 203  : 		m_blockTool.SetUsingTool(eToolType, bIsUsing);
; 204  : 		break;
; 205  : 	case CBlockBaseData::TOOL_HORZSCALE:	// x축 scale tool
; 206  : 	case CBlockBaseData::TOOL_VERTSCALE:	// y축 scale tool
; 207  : 		m_scaleTool.SetUsingTool(eToolType, bIsUsing);
; 208  : 		break;
; 209  : 	case CBlockBaseData::TOOL_GRAPHTITLE:	// graph title tool
; 210  : 	case CBlockBaseData::TOOL_SUBGRAPH:		// subGraph 선택 tool
; 211  : 	case CBlockBaseData::TOOL_GRAPHMOVE:	// graph title / subGraph tool 의 이동
; 212  : 	case CBlockBaseData::TOOL_GRAPHDELETE:	// graph title / subGraph tool 의 삭제
; 213  : 		m_graphTool.SetUsingTool(eToolType, bIsUsing);
; 214  : 		break;
; 215  : 	}
; 216  : }

  0004f	5d		 pop	 ebp
  00050	c2 08 00	 ret	 8
$LN18@SetUsingTo:

; 43   : 		m_bUsingMoveTool = bIsUsing;

  00053	8a 45 0c	 mov	 al, BYTE PTR _bIsUsing$[ebp]
  00056	88 47 2c	 mov	 BYTE PTR [edi+44], al
  00059	5f		 pop	 edi

; 199  : 		break;
; 200  : 	case CBlockBaseData::TOOL_BLOCKMOVE:	// block 이동 tool		
; 201  : 	case CBlockBaseData::TOOL_BLOCKDELETE:	// block 삭제 tool
; 202  : 	case CBlockBaseData::TOOL_BLOCKSIZE:	// 블럭 최대화 추가 - ojtaso (20080519)
; 203  : 		m_blockTool.SetUsingTool(eToolType, bIsUsing);
; 204  : 		break;
; 205  : 	case CBlockBaseData::TOOL_HORZSCALE:	// x축 scale tool
; 206  : 	case CBlockBaseData::TOOL_VERTSCALE:	// y축 scale tool
; 207  : 		m_scaleTool.SetUsingTool(eToolType, bIsUsing);
; 208  : 		break;
; 209  : 	case CBlockBaseData::TOOL_GRAPHTITLE:	// graph title tool
; 210  : 	case CBlockBaseData::TOOL_SUBGRAPH:		// subGraph 선택 tool
; 211  : 	case CBlockBaseData::TOOL_GRAPHMOVE:	// graph title / subGraph tool 의 이동
; 212  : 	case CBlockBaseData::TOOL_GRAPHDELETE:	// graph title / subGraph tool 의 삭제
; 213  : 		m_graphTool.SetUsingTool(eToolType, bIsUsing);
; 214  : 		break;
; 215  : 	}
; 216  : }

  0005a	5d		 pop	 ebp
  0005b	c2 08 00	 ret	 8
$LN8@SetUsingTo:

; 103  : 	switch(eToolType){

  0005e	83 ea 03	 sub	 edx, 3
  00061	74 14		 je	 SHORT $LN25@SetUsingTo
  00063	83 ea 01	 sub	 edx, 1
  00066	0f 85 81 00 00
	00		 jne	 $LN29@SetUsingTo

; 106  : 		break;
; 107  : 	case CBlockBaseData::TOOL_VERTSCALE:	// y축 scale tool
; 108  : 		m_bUsingVertTool = bIsUsing;

  0006c	8a 45 0c	 mov	 al, BYTE PTR _bIsUsing$[ebp]
  0006f	88 47 6d	 mov	 BYTE PTR [edi+109], al
  00072	5f		 pop	 edi

; 199  : 		break;
; 200  : 	case CBlockBaseData::TOOL_BLOCKMOVE:	// block 이동 tool		
; 201  : 	case CBlockBaseData::TOOL_BLOCKDELETE:	// block 삭제 tool
; 202  : 	case CBlockBaseData::TOOL_BLOCKSIZE:	// 블럭 최대화 추가 - ojtaso (20080519)
; 203  : 		m_blockTool.SetUsingTool(eToolType, bIsUsing);
; 204  : 		break;
; 205  : 	case CBlockBaseData::TOOL_HORZSCALE:	// x축 scale tool
; 206  : 	case CBlockBaseData::TOOL_VERTSCALE:	// y축 scale tool
; 207  : 		m_scaleTool.SetUsingTool(eToolType, bIsUsing);
; 208  : 		break;
; 209  : 	case CBlockBaseData::TOOL_GRAPHTITLE:	// graph title tool
; 210  : 	case CBlockBaseData::TOOL_SUBGRAPH:		// subGraph 선택 tool
; 211  : 	case CBlockBaseData::TOOL_GRAPHMOVE:	// graph title / subGraph tool 의 이동
; 212  : 	case CBlockBaseData::TOOL_GRAPHDELETE:	// graph title / subGraph tool 의 삭제
; 213  : 		m_graphTool.SetUsingTool(eToolType, bIsUsing);
; 214  : 		break;
; 215  : 	}
; 216  : }

  00073	5d		 pop	 ebp
  00074	c2 08 00	 ret	 8
$LN25@SetUsingTo:

; 105  : 		m_bUsingHorzTool = bIsUsing;

  00077	8a 45 0c	 mov	 al, BYTE PTR _bIsUsing$[ebp]
  0007a	88 47 6c	 mov	 BYTE PTR [edi+108], al
  0007d	5f		 pop	 edi

; 199  : 		break;
; 200  : 	case CBlockBaseData::TOOL_BLOCKMOVE:	// block 이동 tool		
; 201  : 	case CBlockBaseData::TOOL_BLOCKDELETE:	// block 삭제 tool
; 202  : 	case CBlockBaseData::TOOL_BLOCKSIZE:	// 블럭 최대화 추가 - ojtaso (20080519)
; 203  : 		m_blockTool.SetUsingTool(eToolType, bIsUsing);
; 204  : 		break;
; 205  : 	case CBlockBaseData::TOOL_HORZSCALE:	// x축 scale tool
; 206  : 	case CBlockBaseData::TOOL_VERTSCALE:	// y축 scale tool
; 207  : 		m_scaleTool.SetUsingTool(eToolType, bIsUsing);
; 208  : 		break;
; 209  : 	case CBlockBaseData::TOOL_GRAPHTITLE:	// graph title tool
; 210  : 	case CBlockBaseData::TOOL_SUBGRAPH:		// subGraph 선택 tool
; 211  : 	case CBlockBaseData::TOOL_GRAPHMOVE:	// graph title / subGraph tool 의 이동
; 212  : 	case CBlockBaseData::TOOL_GRAPHDELETE:	// graph title / subGraph tool 의 삭제
; 213  : 		m_graphTool.SetUsingTool(eToolType, bIsUsing);
; 214  : 		break;
; 215  : 	}
; 216  : }

  0007e	5d		 pop	 ebp
  0007f	c2 08 00	 ret	 8
$LN10@SetUsingTo:

; 142  : 	switch(eToolType){

  00082	83 c2 fb	 add	 edx, -5			; fffffffbH
  00085	83 fa 03	 cmp	 edx, 3
  00088	77 63		 ja	 SHORT $LN29@SetUsingTo
  0008a	56		 push	 esi
  0008b	ff 24 95 00 00
	00 00		 jmp	 DWORD PTR $LN38@SetUsingTo[edx*4]
$LN31@SetUsingTo:

; 143  : 	case CBlockBaseData::TOOL_GRAPHTITLE:	// graph title tool
; 144  : 		m_bUsingTitleTool = bIsUsing;

  00092	8a 45 0c	 mov	 al, BYTE PTR _bIsUsing$[ebp]
  00095	5e		 pop	 esi
  00096	88 87 98 00 00
	00		 mov	 BYTE PTR [edi+152], al
  0009c	5f		 pop	 edi

; 199  : 		break;
; 200  : 	case CBlockBaseData::TOOL_BLOCKMOVE:	// block 이동 tool		
; 201  : 	case CBlockBaseData::TOOL_BLOCKDELETE:	// block 삭제 tool
; 202  : 	case CBlockBaseData::TOOL_BLOCKSIZE:	// 블럭 최대화 추가 - ojtaso (20080519)
; 203  : 		m_blockTool.SetUsingTool(eToolType, bIsUsing);
; 204  : 		break;
; 205  : 	case CBlockBaseData::TOOL_HORZSCALE:	// x축 scale tool
; 206  : 	case CBlockBaseData::TOOL_VERTSCALE:	// y축 scale tool
; 207  : 		m_scaleTool.SetUsingTool(eToolType, bIsUsing);
; 208  : 		break;
; 209  : 	case CBlockBaseData::TOOL_GRAPHTITLE:	// graph title tool
; 210  : 	case CBlockBaseData::TOOL_SUBGRAPH:		// subGraph 선택 tool
; 211  : 	case CBlockBaseData::TOOL_GRAPHMOVE:	// graph title / subGraph tool 의 이동
; 212  : 	case CBlockBaseData::TOOL_GRAPHDELETE:	// graph title / subGraph tool 의 삭제
; 213  : 		m_graphTool.SetUsingTool(eToolType, bIsUsing);
; 214  : 		break;
; 215  : 	}
; 216  : }

  0009d	5d		 pop	 ebp
  0009e	c2 08 00	 ret	 8
$LN32@SetUsingTo:

; 147  : 		m_bUsingSubGraphTool = bIsUsing;

  000a1	8a 45 0c	 mov	 al, BYTE PTR _bIsUsing$[ebp]
  000a4	5e		 pop	 esi
  000a5	88 87 99 00 00
	00		 mov	 BYTE PTR [edi+153], al
  000ab	5f		 pop	 edi

; 199  : 		break;
; 200  : 	case CBlockBaseData::TOOL_BLOCKMOVE:	// block 이동 tool		
; 201  : 	case CBlockBaseData::TOOL_BLOCKDELETE:	// block 삭제 tool
; 202  : 	case CBlockBaseData::TOOL_BLOCKSIZE:	// 블럭 최대화 추가 - ojtaso (20080519)
; 203  : 		m_blockTool.SetUsingTool(eToolType, bIsUsing);
; 204  : 		break;
; 205  : 	case CBlockBaseData::TOOL_HORZSCALE:	// x축 scale tool
; 206  : 	case CBlockBaseData::TOOL_VERTSCALE:	// y축 scale tool
; 207  : 		m_scaleTool.SetUsingTool(eToolType, bIsUsing);
; 208  : 		break;
; 209  : 	case CBlockBaseData::TOOL_GRAPHTITLE:	// graph title tool
; 210  : 	case CBlockBaseData::TOOL_SUBGRAPH:		// subGraph 선택 tool
; 211  : 	case CBlockBaseData::TOOL_GRAPHMOVE:	// graph title / subGraph tool 의 이동
; 212  : 	case CBlockBaseData::TOOL_GRAPHDELETE:	// graph title / subGraph tool 의 삭제
; 213  : 		m_graphTool.SetUsingTool(eToolType, bIsUsing);
; 214  : 		break;
; 215  : 	}
; 216  : }

  000ac	5d		 pop	 ebp
  000ad	c2 08 00	 ret	 8
$LN33@SetUsingTo:

; 150  : 		m_subGraphTitleTool.SetGraphMove(bIsUsing);

  000b0	8b 75 0c	 mov	 esi, DWORD PTR _bIsUsing$[ebp]
  000b3	8d 8f 9c 00 00
	00		 lea	 ecx, DWORD PTR [edi+156]
  000b9	56		 push	 esi
  000ba	e8 00 00 00 00	 call	 ?SetGraphMove@CGraphTool@@QAEX_N@Z ; CGraphTool::SetGraphMove

; 151  : 		m_subGraphTool.SetGraphMove(bIsUsing);

  000bf	56		 push	 esi
  000c0	8d 8f e8 00 00
	00		 lea	 ecx, DWORD PTR [edi+232]
  000c6	e8 00 00 00 00	 call	 ?SetGraphMove@CGraphTool@@QAEX_N@Z ; CGraphTool::SetGraphMove
  000cb	5e		 pop	 esi
  000cc	5f		 pop	 edi

; 199  : 		break;
; 200  : 	case CBlockBaseData::TOOL_BLOCKMOVE:	// block 이동 tool		
; 201  : 	case CBlockBaseData::TOOL_BLOCKDELETE:	// block 삭제 tool
; 202  : 	case CBlockBaseData::TOOL_BLOCKSIZE:	// 블럭 최대화 추가 - ojtaso (20080519)
; 203  : 		m_blockTool.SetUsingTool(eToolType, bIsUsing);
; 204  : 		break;
; 205  : 	case CBlockBaseData::TOOL_HORZSCALE:	// x축 scale tool
; 206  : 	case CBlockBaseData::TOOL_VERTSCALE:	// y축 scale tool
; 207  : 		m_scaleTool.SetUsingTool(eToolType, bIsUsing);
; 208  : 		break;
; 209  : 	case CBlockBaseData::TOOL_GRAPHTITLE:	// graph title tool
; 210  : 	case CBlockBaseData::TOOL_SUBGRAPH:		// subGraph 선택 tool
; 211  : 	case CBlockBaseData::TOOL_GRAPHMOVE:	// graph title / subGraph tool 의 이동
; 212  : 	case CBlockBaseData::TOOL_GRAPHDELETE:	// graph title / subGraph tool 의 삭제
; 213  : 		m_graphTool.SetUsingTool(eToolType, bIsUsing);
; 214  : 		break;
; 215  : 	}
; 216  : }

  000cd	5d		 pop	 ebp
  000ce	c2 08 00	 ret	 8
$LN34@SetUsingTo:

; 154  : 		m_subGraphTitleTool.SetGraphDelete(bIsUsing);

  000d1	8b 75 0c	 mov	 esi, DWORD PTR _bIsUsing$[ebp]
  000d4	8d 8f 9c 00 00
	00		 lea	 ecx, DWORD PTR [edi+156]
  000da	56		 push	 esi
  000db	e8 00 00 00 00	 call	 ?SetGraphDelete@CGraphTool@@QAEX_N@Z ; CGraphTool::SetGraphDelete

; 155  : 		m_subGraphTool.SetGraphDelete(bIsUsing);

  000e0	56		 push	 esi
  000e1	8d 8f e8 00 00
	00		 lea	 ecx, DWORD PTR [edi+232]
  000e7	e8 00 00 00 00	 call	 ?SetGraphDelete@CGraphTool@@QAEX_N@Z ; CGraphTool::SetGraphDelete
$LN39@SetUsingTo:
  000ec	5e		 pop	 esi
$LN29@SetUsingTo:
  000ed	5f		 pop	 edi

; 199  : 		break;
; 200  : 	case CBlockBaseData::TOOL_BLOCKMOVE:	// block 이동 tool		
; 201  : 	case CBlockBaseData::TOOL_BLOCKDELETE:	// block 삭제 tool
; 202  : 	case CBlockBaseData::TOOL_BLOCKSIZE:	// 블럭 최대화 추가 - ojtaso (20080519)
; 203  : 		m_blockTool.SetUsingTool(eToolType, bIsUsing);
; 204  : 		break;
; 205  : 	case CBlockBaseData::TOOL_HORZSCALE:	// x축 scale tool
; 206  : 	case CBlockBaseData::TOOL_VERTSCALE:	// y축 scale tool
; 207  : 		m_scaleTool.SetUsingTool(eToolType, bIsUsing);
; 208  : 		break;
; 209  : 	case CBlockBaseData::TOOL_GRAPHTITLE:	// graph title tool
; 210  : 	case CBlockBaseData::TOOL_SUBGRAPH:		// subGraph 선택 tool
; 211  : 	case CBlockBaseData::TOOL_GRAPHMOVE:	// graph title / subGraph tool 의 이동
; 212  : 	case CBlockBaseData::TOOL_GRAPHDELETE:	// graph title / subGraph tool 의 삭제
; 213  : 		m_graphTool.SetUsingTool(eToolType, bIsUsing);
; 214  : 		break;
; 215  : 	}
; 216  : }

  000ee	5d		 pop	 ebp
  000ef	c2 08 00	 ret	 8
  000f2	66 90		 npad	 2
$LN37@SetUsingTo:
  000f4	00 00 00 00	 DD	 $LN4@SetUsingTo
  000f8	00 00 00 00	 DD	 $LN5@SetUsingTo
  000fc	00 00 00 00	 DD	 $LN8@SetUsingTo
  00100	00 00 00 00	 DD	 $LN10@SetUsingTo
$LN36@SetUsingTo:
  00104	00		 DB	 0
  00105	01		 DB	 1
  00106	01		 DB	 1
  00107	02		 DB	 2
  00108	02		 DB	 2
  00109	03		 DB	 3
  0010a	03		 DB	 3
  0010b	03		 DB	 3
  0010c	03		 DB	 3
  0010d	01		 DB	 1
  0010e	66 90		 npad	 2
$LN38@SetUsingTo:
  00110	00 00 00 00	 DD	 $LN31@SetUsingTo
  00114	00 00 00 00	 DD	 $LN32@SetUsingTo
  00118	00 00 00 00	 DD	 $LN33@SetUsingTo
  0011c	00 00 00 00	 DD	 $LN34@SetUsingTo
?SetUsingTool@CBaseToolSingleton@@QAEXW4TOOLTYPE@CBlockBaseData@@_N@Z ENDP ; CBaseToolSingleton::SetUsingTool
_TEXT	ENDS
; Function compile flags: /Ogtp
; File D:\git\src\IBK\IBK_DRFN\ProjSrc\SrcChartEx\ChartOCX\ChartObject\BaseToolSingleton.cpp
;	COMDAT ?SetIChartCtrl@CBaseToolSingleton@@QAEXPAUIChartCtrl@@@Z
_TEXT	SEGMENT
_p_pICharetCtrl$ = 8					; size = 4
?SetIChartCtrl@CBaseToolSingleton@@QAEXPAUIChartCtrl@@@Z PROC ; CBaseToolSingleton::SetIChartCtrl, COMDAT
; _this$ = ecx

; 187  : {

  00000	55		 push	 ebp
  00001	8b ec		 mov	 ebp, esp
  00003	56		 push	 esi

; 188  : 	m_compartLineTool.SetIChartCtrl(p_pICharetCtrl);

  00004	8b 75 08	 mov	 esi, DWORD PTR _p_pICharetCtrl$[ebp]
  00007	57		 push	 edi
  00008	8b f9		 mov	 edi, ecx
  0000a	56		 push	 esi
  0000b	8d 4f 04	 lea	 ecx, DWORD PTR [edi+4]
  0000e	e8 00 00 00 00	 call	 ?SetIChartCtrl@CBaseTool@@QAEXPAUIChartCtrl@@@Z ; CBaseTool::SetIChartCtrl

; 33   : 	m_blockMoveTool.SetIChartCtrl(p_pICharetCtrl);

  00013	56		 push	 esi
  00014	8d 4f 30	 lea	 ecx, DWORD PTR [edi+48]
  00017	e8 00 00 00 00	 call	 ?SetIChartCtrl@CBaseTool@@QAEXPAUIChartCtrl@@@Z ; CBaseTool::SetIChartCtrl

; 34   : 	m_blockDeleteTool.SetIChartCtrl(p_pICharetCtrl);

  0001c	56		 push	 esi
  0001d	8d 4f 44	 lea	 ecx, DWORD PTR [edi+68]
  00020	e8 00 00 00 00	 call	 ?SetIChartCtrl@CBaseTool@@QAEXPAUIChartCtrl@@@Z ; CBaseTool::SetIChartCtrl

; 35   : 	// 블럭 최대화 추가 - ojtaso (20080519)
; 36   : 	m_blockSizeTool.SetIChartCtrl(p_pICharetCtrl);

  00025	56		 push	 esi
  00026	8d 4f 58	 lea	 ecx, DWORD PTR [edi+88]
  00029	e8 00 00 00 00	 call	 ?SetIChartCtrl@CBaseTool@@QAEXPAUIChartCtrl@@@Z ; CBaseTool::SetIChartCtrl

; 97   : 	m_horzScaleTool.SetIChartCtrl(p_pICharetCtrl);

  0002e	56		 push	 esi
  0002f	8d 4f 70	 lea	 ecx, DWORD PTR [edi+112]
  00032	e8 00 00 00 00	 call	 ?SetIChartCtrl@CBaseTool@@QAEXPAUIChartCtrl@@@Z ; CBaseTool::SetIChartCtrl

; 98   : 	m_vertScaleTool.SetIChartCtrl(p_pICharetCtrl);

  00037	56		 push	 esi
  00038	8d 8f 80 00 00
	00		 lea	 ecx, DWORD PTR [edi+128]
  0003e	e8 00 00 00 00	 call	 ?SetIChartCtrl@CBaseTool@@QAEXPAUIChartCtrl@@@Z ; CBaseTool::SetIChartCtrl

; 136  : 	m_subGraphTitleTool.SetIChartCtrl(p_pICharetCtrl);

  00043	56		 push	 esi
  00044	8d 8f 9c 00 00
	00		 lea	 ecx, DWORD PTR [edi+156]
  0004a	e8 00 00 00 00	 call	 ?SetIChartCtrl@CGraphTool@@QAEXPAUIChartCtrl@@@Z ; CGraphTool::SetIChartCtrl

; 137  : 	m_subGraphTool.SetIChartCtrl(p_pICharetCtrl);

  0004f	56		 push	 esi
  00050	8d 8f e8 00 00
	00		 lea	 ecx, DWORD PTR [edi+232]
  00056	e8 00 00 00 00	 call	 ?SetIChartCtrl@CGraphTool@@QAEXPAUIChartCtrl@@@Z ; CGraphTool::SetIChartCtrl
  0005b	5f		 pop	 edi
  0005c	5e		 pop	 esi

; 189  : 	m_blockTool.SetIChartCtrl(p_pICharetCtrl);
; 190  : 	m_scaleTool.SetIChartCtrl(p_pICharetCtrl);
; 191  : 	m_graphTool.SetIChartCtrl(p_pICharetCtrl);
; 192  : }

  0005d	5d		 pop	 ebp
  0005e	c2 04 00	 ret	 4
?SetIChartCtrl@CBaseToolSingleton@@QAEXPAUIChartCtrl@@@Z ENDP ; CBaseToolSingleton::SetIChartCtrl
_TEXT	ENDS
; Function compile flags: /Ogtp
; File D:\git\src\IBK\IBK_DRFN\ProjSrc\SrcChartEx\ChartOCX\ChartObject\BaseToolSingleton.cpp
; File C:\Program Files (x86)\Microsoft Visual Studio\2019\Community\VC\Tools\MSVC\14.29.30133\atlmfc\include\atltypes.h
; File D:\git\src\IBK\IBK_DRFN\ProjSrc\SrcChartEx\ChartOCX\Include_Chart\BlockBaseData.h
; File D:\git\src\IBK\IBK_DRFN\ProjSrc\SrcChartEx\ChartOCX\ChartObject\BaseToolSingleton.cpp
; File D:\git\src\IBK\IBK_DRFN\ProjSrc\SrcChartEx\ChartOCX\Include_Chart\BlockBaseData.h
; File D:\git\src\IBK\IBK_DRFN\ProjSrc\SrcChartEx\ChartOCX\ChartObject\BaseToolSingleton.cpp
; File D:\git\src\IBK\IBK_DRFN\ProjSrc\SrcChartEx\ChartOCX\Include_Chart\BlockBaseData.h
; File D:\git\src\IBK\IBK_DRFN\ProjSrc\SrcChartEx\ChartOCX\ChartObject\BaseToolSingleton.cpp
; File C:\Program Files (x86)\Microsoft Visual Studio\2019\Community\VC\Tools\MSVC\14.29.30133\include\xmemory
; File C:\Program Files (x86)\Microsoft Visual Studio\2019\Community\VC\Tools\MSVC\14.29.30133\include\deque
; File C:\Program Files (x86)\Microsoft Visual Studio\2019\Community\VC\Tools\MSVC\14.29.30133\include\xmemory
; File D:\git\src\IBK\IBK_DRFN\ProjSrc\SrcChartEx\ChartOCX\ChartObject\BaseToolSingleton.cpp
;	COMDAT ??0CBaseToolSingleton@@QAE@XZ
_TEXT	SEGMENT
_this$1 = -4						; size = 4
_this$ = -4						; size = 4
_this$ = -4						; size = 4
_this$ = -4						; size = 4
??0CBaseToolSingleton@@QAE@XZ PROC			; CBaseToolSingleton::CBaseToolSingleton, COMDAT
; _this$ = ecx

; 183  : {

  00000	55		 push	 ebp
  00001	8b ec		 mov	 ebp, esp
  00003	51		 push	 ecx
  00004	56		 push	 esi
  00005	57		 push	 edi
  00006	8b f9		 mov	 edi, ecx
  00008	89 7d fc	 mov	 DWORD PTR _this$[ebp], edi
  0000b	8d 4f 04	 lea	 ecx, DWORD PTR [edi+4]

; 132  : }
; 133  : 
; 134  : void CGraphToolSingleton::SetIChartCtrl(IChartCtrl* p_pICharetCtrl)
; 135  : {
; 136  : 	m_subGraphTitleTool.SetIChartCtrl(p_pICharetCtrl);
; 137  : 	m_subGraphTool.SetIChartCtrl(p_pICharetCtrl);
; 138  : }
; 139  : 
; 140  : void CGraphToolSingleton::SetUsingTool(const CBlockBaseData::TOOLTYPE eToolType, const bool bIsUsing)
; 141  : {
; 142  : 	switch(eToolType){
; 143  : 	case CBlockBaseData::TOOL_GRAPHTITLE:	// graph title tool
; 144  : 		m_bUsingTitleTool = bIsUsing;
; 145  : 		break;
; 146  : 	case CBlockBaseData::TOOL_SUBGRAPH:		// subGraph 선택 tool
; 147  : 		m_bUsingSubGraphTool = bIsUsing;
; 148  : 		break;
; 149  : 	case CBlockBaseData::TOOL_GRAPHMOVE:	// graph title / subGraph tool 의 이동
; 150  : 		m_subGraphTitleTool.SetGraphMove(bIsUsing);
; 151  : 		m_subGraphTool.SetGraphMove(bIsUsing);
; 152  : 		break;
; 153  : 	case CBlockBaseData::TOOL_GRAPHDELETE:	// graph title / subGraph tool 의 삭제
; 154  : 		m_subGraphTitleTool.SetGraphDelete(bIsUsing);
; 155  : 		m_subGraphTool.SetGraphDelete(bIsUsing);
; 156  : 		break;
; 157  : 	}
; 158  : }
; 159  : 
; 160  : // ----------------------------------------------------------------------------
; 161  : // (2006/11/1 - Seung-Won, Bae) Support Graph Title First.
; 162  : CGraphTool* CGraphToolSingleton::GetTitleTool(CDC* pDC, CMainBlock* pMainBlock, const CPoint& point, const bool useSubGraphTool)
; 163  : {
; 164  : 	if( m_bUsingTitleTool && m_subGraphTitleTool.Find(pDC, pMainBlock, point)) return &m_subGraphTitleTool;
; 165  : 	return NULL;
; 166  : }
; 167  : 
; 168  : CGraphTool* CGraphToolSingleton::GetShapeTool(CDC* pDC, CMainBlock* pMainBlock, const CPoint& point, const bool useSubGraphTool)
; 169  : {
; 170  : 	if( m_bUsingSubGraphTool && useSubGraphTool && m_subGraphTool.Find(pDC, pMainBlock, point)) return &m_subGraphTool;
; 171  : 	return NULL;
; 172  : }
; 173  : 
; 174  : ///////////////////////////////////////////////////////////////////////////////
; 175  : // class CBaseToolSingleton
; 176  : 
; 177  : CBaseToolSingleton::CBaseToolSingleton():
; 178  : 	m_bUsingComparLineTool(true),

  0000e	c6 07 01	 mov	 BYTE PTR [edi], 1
  00011	e8 00 00 00 00	 call	 ??0CBaseTool@@QAE@XZ	; CBaseTool::CBaseTool
  00016	c7 47 04 00 00
	00 00		 mov	 DWORD PTR [edi+4], OFFSET ??_7CCompartLineTool@@6B@
  0001d	8d 4f 30	 lea	 ecx, DWORD PTR [edi+48]
; File C:\Program Files (x86)\Microsoft Visual Studio\2019\Community\VC\Tools\MSVC\14.29.30133\atlmfc\include\atltypes.h

; 400  : 	x = 0;

  00020	c7 47 14 00 00
	00 00		 mov	 DWORD PTR [edi+20], 0

; 401  : 	y = 0;

  00027	c7 47 18 00 00
	00 00		 mov	 DWORD PTR [edi+24], 0

; 400  : 	x = 0;

  0002e	c7 47 1c 00 00
	00 00		 mov	 DWORD PTR [edi+28], 0

; 401  : 	y = 0;

  00035	c7 47 20 00 00
	00 00		 mov	 DWORD PTR [edi+32], 0
; File D:\git\src\IBK\IBK_DRFN\ProjSrc\SrcChartEx\ChartOCX\Include_Chart\BlockBaseData.h

; 19   : 	CBlockIndex()										{	m_nRow = m_nColumn = -1;				}

  0003c	c7 47 28 ff ff
	ff ff		 mov	 DWORD PTR [edi+40], -1
  00043	c7 47 24 ff ff
	ff ff		 mov	 DWORD PTR [edi+36], -1
; File D:\git\src\IBK\IBK_DRFN\ProjSrc\SrcChartEx\ChartOCX\ChartObject\BaseToolSingleton.cpp

; 25   : 	m_bUsingMoveTool(bUsingMoveTool),

  0004a	66 c7 47 2c 00
	00		 mov	 WORD PTR [edi+44], 0

; 26   : 	m_bUsingDeleteTool(bUsingDeleteTool),
; 27   : 	m_bUsingSizeTool(bUsingSizeTool)

  00050	c6 47 2e 00	 mov	 BYTE PTR [edi+46], 0
  00054	e8 00 00 00 00	 call	 ??0CBaseTool@@QAE@XZ	; CBaseTool::CBaseTool
  00059	8d 4f 44	 lea	 ecx, DWORD PTR [edi+68]
; File D:\git\src\IBK\IBK_DRFN\ProjSrc\SrcChartEx\ChartOCX\Include_Chart\BlockBaseData.h

; 19   : 	CBlockIndex()										{	m_nRow = m_nColumn = -1;				}

  0005c	c7 47 40 ff ff
	ff ff		 mov	 DWORD PTR [edi+64], -1
  00063	c7 47 3c ff ff
	ff ff		 mov	 DWORD PTR [edi+60], -1
  0006a	c7 47 30 00 00
	00 00		 mov	 DWORD PTR [edi+48], OFFSET ??_7CBlockMoveTool@@6B@
  00071	e8 00 00 00 00	 call	 ??0CBaseTool@@QAE@XZ	; CBaseTool::CBaseTool
; File D:\git\src\IBK\IBK_DRFN\ProjSrc\SrcChartEx\ChartOCX\ChartObject\BaseToolSingleton.cpp

; 28   : {

  00076	8d 4f 58	 lea	 ecx, DWORD PTR [edi+88]
; File D:\git\src\IBK\IBK_DRFN\ProjSrc\SrcChartEx\ChartOCX\Include_Chart\BlockBaseData.h

; 19   : 	CBlockIndex()										{	m_nRow = m_nColumn = -1;				}

  00079	c7 47 54 ff ff
	ff ff		 mov	 DWORD PTR [edi+84], -1
  00080	c7 47 50 ff ff
	ff ff		 mov	 DWORD PTR [edi+80], -1
  00087	c7 47 44 00 00
	00 00		 mov	 DWORD PTR [edi+68], OFFSET ??_7CBlockDeleteTool@@6B@
; File D:\git\src\IBK\IBK_DRFN\ProjSrc\SrcChartEx\ChartOCX\ChartObject\BaseToolSingleton.cpp

; 28   : {

  0008e	e8 00 00 00 00	 call	 ??0CBlockSizeTool@@QAE@XZ ; CBlockSizeTool::CBlockSizeTool

; 92   : {

  00093	8d 4f 70	 lea	 ecx, DWORD PTR [edi+112]
  00096	66 c7 47 6c 01
	01		 mov	 WORD PTR [edi+108], 257	; 00000101H
  0009c	e8 00 00 00 00	 call	 ??0CHorzScaleTool@@QAE@XZ ; CHorzScaleTool::CHorzScaleTool
  000a1	8d 8f 80 00 00
	00		 lea	 ecx, DWORD PTR [edi+128]
  000a7	e8 00 00 00 00	 call	 ??0CVertScaleTool@@QAE@XZ ; CVertScaleTool::CVertScaleTool

; 179  : 	// 블럭 최대화 추가 - ojtaso (20080519)
; 180  : 	m_blockTool(false, false, false),
; 181  : 	m_scaleTool(true, true),
; 182  : 	m_graphTool(false, false)

  000ac	8d b7 98 00 00
	00		 lea	 esi, DWORD PTR [edi+152]

; 131  : {

  000b2	8d 4e 04	 lea	 ecx, DWORD PTR [esi+4]
  000b5	66 c7 06 00 00	 mov	 WORD PTR [esi], 0

; 179  : 	// 블럭 최대화 추가 - ojtaso (20080519)
; 180  : 	m_blockTool(false, false, false),
; 181  : 	m_scaleTool(true, true),
; 182  : 	m_graphTool(false, false)

  000ba	89 75 fc	 mov	 DWORD PTR _this$[ebp], esi

; 131  : {

  000bd	e8 00 00 00 00	 call	 ??0CSubGraphTitleTool@@QAE@XZ ; CSubGraphTitleTool::CSubGraphTitleTool
  000c2	83 c6 50	 add	 esi, 80			; 00000050H
  000c5	8b ce		 mov	 ecx, esi
  000c7	89 75 fc	 mov	 DWORD PTR _this$[ebp], esi
  000ca	e8 00 00 00 00	 call	 ??0CGraphTool@@QAE@XZ	; CGraphTool::CGraphTool
  000cf	c7 06 00 00 00
	00		 mov	 DWORD PTR [esi], OFFSET ??_7CSubGraphTool@@6B@
  000d5	83 c6 24	 add	 esi, 36			; 00000024H
; File C:\Program Files (x86)\Microsoft Visual Studio\2019\Community\VC\Tools\MSVC\14.29.30133\include\xmemory

; 79   :         return ::operator new(_Bytes);

  000d8	6a 08		 push	 8
  000da	89 75 fc	 mov	 DWORD PTR _this$1[ebp], esi

; 1033 :     _Container_proxy* _Myproxy = nullptr;

  000dd	c7 06 00 00 00
	00		 mov	 DWORD PTR [esi], 0
; File C:\Program Files (x86)\Microsoft Visual Studio\2019\Community\VC\Tools\MSVC\14.29.30133\include\deque

; 555  :     _Deque_val() noexcept : _Map(), _Mapsize(0), _Myoff(0), _Mysize(0) {}

  000e3	c7 46 04 00 00
	00 00		 mov	 DWORD PTR [esi+4], 0
  000ea	c7 46 08 00 00
	00 00		 mov	 DWORD PTR [esi+8], 0
  000f1	c7 46 0c 00 00
	00 00		 mov	 DWORD PTR [esi+12], 0
  000f8	c7 46 10 00 00
	00 00		 mov	 DWORD PTR [esi+16], 0
; File C:\Program Files (x86)\Microsoft Visual Studio\2019\Community\VC\Tools\MSVC\14.29.30133\include\xmemory

; 79   :         return ::operator new(_Bytes);

  000ff	e8 00 00 00 00	 call	 ??2@YAPAXI@Z		; operator new
  00104	83 c4 04	 add	 esp, 4

; 1003 :     mutable _Iterator_base12* _Myfirstiter = nullptr;

  00107	c7 40 04 00 00
	00 00		 mov	 DWORD PTR [eax+4], 0

; 1020 :         _Myproxy            = _New_proxy;

  0010e	89 06		 mov	 DWORD PTR [esi], eax

; 1021 :         _New_proxy->_Mycont = this;

  00110	89 30		 mov	 DWORD PTR [eax], esi
; File D:\git\src\IBK\IBK_DRFN\ProjSrc\SrcChartEx\ChartOCX\ChartObject\BaseToolSingleton.cpp

; 184  : }

  00112	8b c7		 mov	 eax, edi
  00114	5f		 pop	 edi
  00115	5e		 pop	 esi
  00116	8b e5		 mov	 esp, ebp
  00118	5d		 pop	 ebp
  00119	c3		 ret	 0
??0CBaseToolSingleton@@QAE@XZ ENDP			; CBaseToolSingleton::CBaseToolSingleton
_TEXT	ENDS
; Function compile flags: /Ogtp
; File D:\git\src\IBK\IBK_DRFN\ProjSrc\SrcChartEx\ChartOCX\ChartObject\BaseToolSingleton.cpp
;	COMDAT ?GetShapeTool@CGraphToolSingleton@@QAEPAVCGraphTool@@PAVCDC@@PAVCMainBlock@@ABVCPoint@@_N@Z
_TEXT	SEGMENT
_pDC$ = 8						; size = 4
_pMainBlock$ = 12					; size = 4
_point$ = 16						; size = 4
_useSubGraphTool$ = 20					; size = 1
?GetShapeTool@CGraphToolSingleton@@QAEPAVCGraphTool@@PAVCDC@@PAVCMainBlock@@ABVCPoint@@_N@Z PROC ; CGraphToolSingleton::GetShapeTool, COMDAT
; _this$ = ecx

; 169  : {

  00000	55		 push	 ebp
  00001	8b ec		 mov	 ebp, esp

; 170  : 	if( m_bUsingSubGraphTool && useSubGraphTool && m_subGraphTool.Find(pDC, pMainBlock, point)) return &m_subGraphTool;

  00003	80 79 01 00	 cmp	 BYTE PTR [ecx+1], 0
  00007	56		 push	 esi
  00008	74 24		 je	 SHORT $LN2@GetShapeTo
  0000a	80 7d 14 00	 cmp	 BYTE PTR _useSubGraphTool$[ebp], 0
  0000e	74 1e		 je	 SHORT $LN2@GetShapeTo
  00010	ff 75 10	 push	 DWORD PTR _point$[ebp]
  00013	8d 71 50	 lea	 esi, DWORD PTR [ecx+80]
  00016	ff 75 0c	 push	 DWORD PTR _pMainBlock$[ebp]
  00019	8b ce		 mov	 ecx, esi
  0001b	ff 75 08	 push	 DWORD PTR _pDC$[ebp]
  0001e	e8 00 00 00 00	 call	 ?Find@CSubGraphTool@@QAE_NPAVCDC@@PAVCMainBlock@@ABVCPoint@@@Z ; CSubGraphTool::Find
  00023	84 c0		 test	 al, al
  00025	74 07		 je	 SHORT $LN2@GetShapeTo
  00027	8b c6		 mov	 eax, esi
  00029	5e		 pop	 esi

; 172  : }

  0002a	5d		 pop	 ebp
  0002b	c2 10 00	 ret	 16			; 00000010H
$LN2@GetShapeTo:

; 171  : 	return NULL;

  0002e	33 c0		 xor	 eax, eax
  00030	5e		 pop	 esi

; 172  : }

  00031	5d		 pop	 ebp
  00032	c2 10 00	 ret	 16			; 00000010H
?GetShapeTool@CGraphToolSingleton@@QAEPAVCGraphTool@@PAVCDC@@PAVCMainBlock@@ABVCPoint@@_N@Z ENDP ; CGraphToolSingleton::GetShapeTool
_TEXT	ENDS
; Function compile flags: /Ogtp
; File D:\git\src\IBK\IBK_DRFN\ProjSrc\SrcChartEx\ChartOCX\ChartObject\BaseToolSingleton.cpp
;	COMDAT ?GetTitleTool@CGraphToolSingleton@@QAEPAVCGraphTool@@PAVCDC@@PAVCMainBlock@@ABVCPoint@@_N@Z
_TEXT	SEGMENT
_pDC$ = 8						; size = 4
_pMainBlock$ = 12					; size = 4
_point$ = 16						; size = 4
_useSubGraphTool$ = 20					; size = 1
?GetTitleTool@CGraphToolSingleton@@QAEPAVCGraphTool@@PAVCDC@@PAVCMainBlock@@ABVCPoint@@_N@Z PROC ; CGraphToolSingleton::GetTitleTool, COMDAT
; _this$ = ecx

; 163  : {

  00000	55		 push	 ebp
  00001	8b ec		 mov	 ebp, esp

; 164  : 	if( m_bUsingTitleTool && m_subGraphTitleTool.Find(pDC, pMainBlock, point)) return &m_subGraphTitleTool;

  00003	80 39 00	 cmp	 BYTE PTR [ecx], 0
  00006	56		 push	 esi
  00007	74 1e		 je	 SHORT $LN2@GetTitleTo
  00009	ff 75 10	 push	 DWORD PTR _point$[ebp]
  0000c	8d 71 04	 lea	 esi, DWORD PTR [ecx+4]
  0000f	ff 75 0c	 push	 DWORD PTR _pMainBlock$[ebp]
  00012	8b ce		 mov	 ecx, esi
  00014	ff 75 08	 push	 DWORD PTR _pDC$[ebp]
  00017	e8 00 00 00 00	 call	 ?Find@CSubGraphTitleTool@@QAE_NPAVCDC@@PAVCMainBlock@@ABVCPoint@@@Z ; CSubGraphTitleTool::Find
  0001c	84 c0		 test	 al, al
  0001e	74 07		 je	 SHORT $LN2@GetTitleTo
  00020	8b c6		 mov	 eax, esi
  00022	5e		 pop	 esi

; 166  : }

  00023	5d		 pop	 ebp
  00024	c2 10 00	 ret	 16			; 00000010H
$LN2@GetTitleTo:

; 165  : 	return NULL;

  00027	33 c0		 xor	 eax, eax
  00029	5e		 pop	 esi

; 166  : }

  0002a	5d		 pop	 ebp
  0002b	c2 10 00	 ret	 16			; 00000010H
?GetTitleTool@CGraphToolSingleton@@QAEPAVCGraphTool@@PAVCDC@@PAVCMainBlock@@ABVCPoint@@_N@Z ENDP ; CGraphToolSingleton::GetTitleTool
_TEXT	ENDS
; Function compile flags: /Ogtp
; File D:\git\src\IBK\IBK_DRFN\ProjSrc\SrcChartEx\ChartOCX\ChartObject\BaseToolSingleton.cpp
;	COMDAT ?SetUsingTool@CGraphToolSingleton@@QAEXW4TOOLTYPE@CBlockBaseData@@_N@Z
_TEXT	SEGMENT
_eToolType$ = 8						; size = 4
_bIsUsing$ = 12						; size = 1
?SetUsingTool@CGraphToolSingleton@@QAEXW4TOOLTYPE@CBlockBaseData@@_N@Z PROC ; CGraphToolSingleton::SetUsingTool, COMDAT
; _this$ = ecx

; 141  : {

  00000	55		 push	 ebp
  00001	8b ec		 mov	 ebp, esp

; 142  : 	switch(eToolType){

  00003	8b 45 08	 mov	 eax, DWORD PTR _eToolType$[ebp]
  00006	83 c0 fb	 add	 eax, -5			; fffffffbH
  00009	57		 push	 edi
  0000a	8b f9		 mov	 edi, ecx
  0000c	83 f8 03	 cmp	 eax, 3
  0000f	77 50		 ja	 SHORT $LN2@SetUsingTo
  00011	56		 push	 esi
  00012	ff 24 85 00 00
	00 00		 jmp	 DWORD PTR $LN9@SetUsingTo[eax*4]
$LN4@SetUsingTo:

; 143  : 	case CBlockBaseData::TOOL_GRAPHTITLE:	// graph title tool
; 144  : 		m_bUsingTitleTool = bIsUsing;

  00019	8a 45 0c	 mov	 al, BYTE PTR _bIsUsing$[ebp]
  0001c	5e		 pop	 esi
  0001d	88 07		 mov	 BYTE PTR [edi], al
  0001f	5f		 pop	 edi

; 156  : 		break;
; 157  : 	}
; 158  : }

  00020	5d		 pop	 ebp
  00021	c2 08 00	 ret	 8
$LN5@SetUsingTo:

; 145  : 		break;
; 146  : 	case CBlockBaseData::TOOL_SUBGRAPH:		// subGraph 선택 tool
; 147  : 		m_bUsingSubGraphTool = bIsUsing;

  00024	8a 45 0c	 mov	 al, BYTE PTR _bIsUsing$[ebp]
  00027	5e		 pop	 esi
  00028	88 47 01	 mov	 BYTE PTR [edi+1], al
  0002b	5f		 pop	 edi

; 156  : 		break;
; 157  : 	}
; 158  : }

  0002c	5d		 pop	 ebp
  0002d	c2 08 00	 ret	 8
$LN6@SetUsingTo:

; 148  : 		break;
; 149  : 	case CBlockBaseData::TOOL_GRAPHMOVE:	// graph title / subGraph tool 의 이동
; 150  : 		m_subGraphTitleTool.SetGraphMove(bIsUsing);

  00030	8b 75 0c	 mov	 esi, DWORD PTR _bIsUsing$[ebp]
  00033	8d 4f 04	 lea	 ecx, DWORD PTR [edi+4]
  00036	56		 push	 esi
  00037	e8 00 00 00 00	 call	 ?SetGraphMove@CGraphTool@@QAEX_N@Z ; CGraphTool::SetGraphMove

; 151  : 		m_subGraphTool.SetGraphMove(bIsUsing);

  0003c	56		 push	 esi
  0003d	8d 4f 50	 lea	 ecx, DWORD PTR [edi+80]
  00040	e8 00 00 00 00	 call	 ?SetGraphMove@CGraphTool@@QAEX_N@Z ; CGraphTool::SetGraphMove
  00045	5e		 pop	 esi
  00046	5f		 pop	 edi

; 156  : 		break;
; 157  : 	}
; 158  : }

  00047	5d		 pop	 ebp
  00048	c2 08 00	 ret	 8
$LN7@SetUsingTo:

; 152  : 		break;
; 153  : 	case CBlockBaseData::TOOL_GRAPHDELETE:	// graph title / subGraph tool 의 삭제
; 154  : 		m_subGraphTitleTool.SetGraphDelete(bIsUsing);

  0004b	8b 75 0c	 mov	 esi, DWORD PTR _bIsUsing$[ebp]
  0004e	8d 4f 04	 lea	 ecx, DWORD PTR [edi+4]
  00051	56		 push	 esi
  00052	e8 00 00 00 00	 call	 ?SetGraphDelete@CGraphTool@@QAEX_N@Z ; CGraphTool::SetGraphDelete

; 155  : 		m_subGraphTool.SetGraphDelete(bIsUsing);

  00057	56		 push	 esi
  00058	8d 4f 50	 lea	 ecx, DWORD PTR [edi+80]
  0005b	e8 00 00 00 00	 call	 ?SetGraphDelete@CGraphTool@@QAEX_N@Z ; CGraphTool::SetGraphDelete
$LN10@SetUsingTo:
  00060	5e		 pop	 esi
$LN2@SetUsingTo:
  00061	5f		 pop	 edi

; 156  : 		break;
; 157  : 	}
; 158  : }

  00062	5d		 pop	 ebp
  00063	c2 08 00	 ret	 8
  00066	66 90		 npad	 2
$LN9@SetUsingTo:
  00068	00 00 00 00	 DD	 $LN4@SetUsingTo
  0006c	00 00 00 00	 DD	 $LN5@SetUsingTo
  00070	00 00 00 00	 DD	 $LN6@SetUsingTo
  00074	00 00 00 00	 DD	 $LN7@SetUsingTo
?SetUsingTool@CGraphToolSingleton@@QAEXW4TOOLTYPE@CBlockBaseData@@_N@Z ENDP ; CGraphToolSingleton::SetUsingTool
_TEXT	ENDS
; Function compile flags: /Ogtp
; File D:\git\src\IBK\IBK_DRFN\ProjSrc\SrcChartEx\ChartOCX\ChartObject\BaseToolSingleton.cpp
;	COMDAT ?SetIChartCtrl@CGraphToolSingleton@@QAEXPAUIChartCtrl@@@Z
_TEXT	SEGMENT
_p_pICharetCtrl$ = 8					; size = 4
?SetIChartCtrl@CGraphToolSingleton@@QAEXPAUIChartCtrl@@@Z PROC ; CGraphToolSingleton::SetIChartCtrl, COMDAT
; _this$ = ecx

; 135  : {

  00000	55		 push	 ebp
  00001	8b ec		 mov	 ebp, esp
  00003	57		 push	 edi

; 136  : 	m_subGraphTitleTool.SetIChartCtrl(p_pICharetCtrl);

  00004	ff 75 08	 push	 DWORD PTR _p_pICharetCtrl$[ebp]
  00007	8b f9		 mov	 edi, ecx
  00009	8d 4f 04	 lea	 ecx, DWORD PTR [edi+4]
  0000c	e8 00 00 00 00	 call	 ?SetIChartCtrl@CGraphTool@@QAEXPAUIChartCtrl@@@Z ; CGraphTool::SetIChartCtrl

; 137  : 	m_subGraphTool.SetIChartCtrl(p_pICharetCtrl);

  00011	ff 75 08	 push	 DWORD PTR _p_pICharetCtrl$[ebp]
  00014	8d 4f 50	 lea	 ecx, DWORD PTR [edi+80]
  00017	e8 00 00 00 00	 call	 ?SetIChartCtrl@CGraphTool@@QAEXPAUIChartCtrl@@@Z ; CGraphTool::SetIChartCtrl
  0001c	5f		 pop	 edi

; 138  : }

  0001d	5d		 pop	 ebp
  0001e	c2 04 00	 ret	 4
?SetIChartCtrl@CGraphToolSingleton@@QAEXPAUIChartCtrl@@@Z ENDP ; CGraphToolSingleton::SetIChartCtrl
_TEXT	ENDS
; Function compile flags: /Ogtp
; File D:\git\src\IBK\IBK_DRFN\ProjSrc\SrcChartEx\ChartOCX\ChartObject\BaseToolSingleton.cpp
; File C:\Program Files (x86)\Microsoft Visual Studio\2019\Community\VC\Tools\MSVC\14.29.30133\include\xmemory
; File C:\Program Files (x86)\Microsoft Visual Studio\2019\Community\VC\Tools\MSVC\14.29.30133\include\deque
; File C:\Program Files (x86)\Microsoft Visual Studio\2019\Community\VC\Tools\MSVC\14.29.30133\include\xmemory
; File D:\git\src\IBK\IBK_DRFN\ProjSrc\SrcChartEx\ChartOCX\ChartObject\BaseToolSingleton.cpp
;	COMDAT ??0CGraphToolSingleton@@QAE@_N0@Z
_TEXT	SEGMENT
_this$ = -4						; size = 4
_this$ = 8						; size = 4
_this$ = 8						; size = 4
_bUsingTitleTool$ = 8					; size = 1
_bUsingSubGraphTool$ = 12				; size = 1
??0CGraphToolSingleton@@QAE@_N0@Z PROC			; CGraphToolSingleton::CGraphToolSingleton, COMDAT
; _this$ = ecx

; 131  : {

  00000	55		 push	 ebp
  00001	8b ec		 mov	 ebp, esp
  00003	51		 push	 ecx

; 129  : 	m_bUsingTitleTool(bUsingTitleTool),

  00004	8a 45 08	 mov	 al, BYTE PTR _bUsingTitleTool$[ebp]
  00007	56		 push	 esi
  00008	57		 push	 edi
  00009	8b f9		 mov	 edi, ecx
  0000b	89 7d fc	 mov	 DWORD PTR _this$[ebp], edi
  0000e	88 07		 mov	 BYTE PTR [edi], al

; 131  : {

  00010	8d 4f 04	 lea	 ecx, DWORD PTR [edi+4]
  00013	8a 45 0c	 mov	 al, BYTE PTR _bUsingSubGraphTool$[ebp]
  00016	88 47 01	 mov	 BYTE PTR [edi+1], al
  00019	e8 00 00 00 00	 call	 ??0CSubGraphTitleTool@@QAE@XZ ; CSubGraphTitleTool::CSubGraphTitleTool
  0001e	8d 77 50	 lea	 esi, DWORD PTR [edi+80]
  00021	8b ce		 mov	 ecx, esi
  00023	89 75 08	 mov	 DWORD PTR _this$[ebp], esi
  00026	e8 00 00 00 00	 call	 ??0CGraphTool@@QAE@XZ	; CGraphTool::CGraphTool
  0002b	c7 06 00 00 00
	00		 mov	 DWORD PTR [esi], OFFSET ??_7CSubGraphTool@@6B@
  00031	83 c6 24	 add	 esi, 36			; 00000024H
; File C:\Program Files (x86)\Microsoft Visual Studio\2019\Community\VC\Tools\MSVC\14.29.30133\include\xmemory

; 79   :         return ::operator new(_Bytes);

  00034	6a 08		 push	 8
  00036	89 75 08	 mov	 DWORD PTR _this$[ebp], esi

; 1033 :     _Container_proxy* _Myproxy = nullptr;

  00039	c7 06 00 00 00
	00		 mov	 DWORD PTR [esi], 0
; File C:\Program Files (x86)\Microsoft Visual Studio\2019\Community\VC\Tools\MSVC\14.29.30133\include\deque

; 555  :     _Deque_val() noexcept : _Map(), _Mapsize(0), _Myoff(0), _Mysize(0) {}

  0003f	c7 46 04 00 00
	00 00		 mov	 DWORD PTR [esi+4], 0
  00046	c7 46 08 00 00
	00 00		 mov	 DWORD PTR [esi+8], 0
  0004d	c7 46 0c 00 00
	00 00		 mov	 DWORD PTR [esi+12], 0
  00054	c7 46 10 00 00
	00 00		 mov	 DWORD PTR [esi+16], 0
; File C:\Program Files (x86)\Microsoft Visual Studio\2019\Community\VC\Tools\MSVC\14.29.30133\include\xmemory

; 79   :         return ::operator new(_Bytes);

  0005b	e8 00 00 00 00	 call	 ??2@YAPAXI@Z		; operator new
  00060	83 c4 04	 add	 esp, 4

; 1003 :     mutable _Iterator_base12* _Myfirstiter = nullptr;

  00063	c7 40 04 00 00
	00 00		 mov	 DWORD PTR [eax+4], 0

; 1020 :         _Myproxy            = _New_proxy;

  0006a	89 06		 mov	 DWORD PTR [esi], eax

; 1021 :         _New_proxy->_Mycont = this;

  0006c	89 30		 mov	 DWORD PTR [eax], esi
; File D:\git\src\IBK\IBK_DRFN\ProjSrc\SrcChartEx\ChartOCX\ChartObject\BaseToolSingleton.cpp

; 132  : }

  0006e	8b c7		 mov	 eax, edi
  00070	5f		 pop	 edi
  00071	5e		 pop	 esi
  00072	8b e5		 mov	 esp, ebp
  00074	5d		 pop	 ebp
  00075	c2 08 00	 ret	 8
??0CGraphToolSingleton@@QAE@_N0@Z ENDP			; CGraphToolSingleton::CGraphToolSingleton
_TEXT	ENDS
; Function compile flags: /Ogtp
; File D:\git\src\IBK\IBK_DRFN\ProjSrc\SrcChartEx\ChartOCX\ChartObject\BaseToolSingleton.cpp
;	COMDAT ?GetTool@CScaleToolSingleton@@QAEPAVCScaleTool@@PAVCMainBlock@@ABVCPoint@@@Z
_TEXT	SEGMENT
_pMainBlock$ = 8					; size = 4
_point$ = 12						; size = 4
?GetTool@CScaleToolSingleton@@QAEPAVCScaleTool@@PAVCMainBlock@@ABVCPoint@@@Z PROC ; CScaleToolSingleton::GetTool, COMDAT
; _this$ = ecx

; 115  : {

  00000	55		 push	 ebp
  00001	8b ec		 mov	 ebp, esp

; 116  : 	if(m_bUsingHorzTool && m_horzScaleTool.Find(pMainBlock, point))

  00003	8b 45 08	 mov	 eax, DWORD PTR _pMainBlock$[ebp]
  00006	56		 push	 esi
  00007	8b f1		 mov	 esi, ecx
  00009	57		 push	 edi
  0000a	80 3e 00	 cmp	 BYTE PTR [esi], 0
  0000d	74 1c		 je	 SHORT $LN2@GetTool
  0000f	ff 75 0c	 push	 DWORD PTR _point$[ebp]
  00012	8d 4e 04	 lea	 ecx, DWORD PTR [esi+4]
  00015	50		 push	 eax
  00016	e8 00 00 00 00	 call	 ?Find@CScaleTool@@QAE_NPAVCMainBlock@@ABVCPoint@@@Z ; CScaleTool::Find
  0001b	84 c0		 test	 al, al
  0001d	74 09		 je	 SHORT $LN5@GetTool

; 117  : 		return &m_horzScaleTool;

  0001f	5f		 pop	 edi
  00020	8d 46 04	 lea	 eax, DWORD PTR [esi+4]

; 122  : }

  00023	5e		 pop	 esi
  00024	5d		 pop	 ebp
  00025	c2 08 00	 ret	 8
$LN5@GetTool:

; 116  : 	if(m_bUsingHorzTool && m_horzScaleTool.Find(pMainBlock, point))

  00028	8b 45 08	 mov	 eax, DWORD PTR _pMainBlock$[ebp]
$LN2@GetTool:

; 118  : 	if(m_bUsingVertTool && m_vertScaleTool.Find(pMainBlock, point))

  0002b	80 7e 01 00	 cmp	 BYTE PTR [esi+1], 0
  0002f	74 19		 je	 SHORT $LN3@GetTool
  00031	ff 75 0c	 push	 DWORD PTR _point$[ebp]
  00034	8d 4e 14	 lea	 ecx, DWORD PTR [esi+20]
  00037	50		 push	 eax
  00038	e8 00 00 00 00	 call	 ?Find@CScaleTool@@QAE_NPAVCMainBlock@@ABVCPoint@@@Z ; CScaleTool::Find
  0003d	84 c0		 test	 al, al
  0003f	74 09		 je	 SHORT $LN3@GetTool

; 119  : 		return &m_vertScaleTool;

  00041	5f		 pop	 edi
  00042	8d 46 14	 lea	 eax, DWORD PTR [esi+20]

; 122  : }

  00045	5e		 pop	 esi
  00046	5d		 pop	 ebp
  00047	c2 08 00	 ret	 8
$LN3@GetTool:
  0004a	5f		 pop	 edi

; 120  : 
; 121  : 	return NULL;

  0004b	33 c0		 xor	 eax, eax

; 122  : }

  0004d	5e		 pop	 esi
  0004e	5d		 pop	 ebp
  0004f	c2 08 00	 ret	 8
?GetTool@CScaleToolSingleton@@QAEPAVCScaleTool@@PAVCMainBlock@@ABVCPoint@@@Z ENDP ; CScaleToolSingleton::GetTool
_TEXT	ENDS
; Function compile flags: /Ogtp
; File D:\git\src\IBK\IBK_DRFN\ProjSrc\SrcChartEx\ChartOCX\ChartObject\BaseToolSingleton.cpp
;	COMDAT ?SetUsingTool@CScaleToolSingleton@@QAEXW4TOOLTYPE@CBlockBaseData@@_N@Z
_TEXT	SEGMENT
_eToolType$ = 8						; size = 4
_bIsUsing$ = 12						; size = 1
?SetUsingTool@CScaleToolSingleton@@QAEXW4TOOLTYPE@CBlockBaseData@@_N@Z PROC ; CScaleToolSingleton::SetUsingTool, COMDAT
; _this$ = ecx

; 102  : {

  00000	55		 push	 ebp
  00001	8b ec		 mov	 ebp, esp

; 103  : 	switch(eToolType){

  00003	8b 45 08	 mov	 eax, DWORD PTR _eToolType$[ebp]
  00006	83 e8 03	 sub	 eax, 3
  00009	74 0f		 je	 SHORT $LN4@SetUsingTo
  0000b	83 e8 01	 sub	 eax, 1
  0000e	75 0f		 jne	 SHORT $LN2@SetUsingTo

; 106  : 		break;
; 107  : 	case CBlockBaseData::TOOL_VERTSCALE:	// y축 scale tool
; 108  : 		m_bUsingVertTool = bIsUsing;

  00010	8a 45 0c	 mov	 al, BYTE PTR _bIsUsing$[ebp]
  00013	88 41 01	 mov	 BYTE PTR [ecx+1], al

; 109  : 		break;
; 110  : 	}
; 111  : }

  00016	5d		 pop	 ebp
  00017	c2 08 00	 ret	 8
$LN4@SetUsingTo:

; 104  : 	case CBlockBaseData::TOOL_HORZSCALE:	// x축 scale tool
; 105  : 		m_bUsingHorzTool = bIsUsing;

  0001a	8a 45 0c	 mov	 al, BYTE PTR _bIsUsing$[ebp]
  0001d	88 01		 mov	 BYTE PTR [ecx], al
$LN2@SetUsingTo:

; 109  : 		break;
; 110  : 	}
; 111  : }

  0001f	5d		 pop	 ebp
  00020	c2 08 00	 ret	 8
?SetUsingTool@CScaleToolSingleton@@QAEXW4TOOLTYPE@CBlockBaseData@@_N@Z ENDP ; CScaleToolSingleton::SetUsingTool
_TEXT	ENDS
; Function compile flags: /Ogtp
; File D:\git\src\IBK\IBK_DRFN\ProjSrc\SrcChartEx\ChartOCX\ChartObject\BaseToolSingleton.cpp
;	COMDAT ?SetIChartCtrl@CScaleToolSingleton@@QAEXPAUIChartCtrl@@@Z
_TEXT	SEGMENT
_p_pICharetCtrl$ = 8					; size = 4
?SetIChartCtrl@CScaleToolSingleton@@QAEXPAUIChartCtrl@@@Z PROC ; CScaleToolSingleton::SetIChartCtrl, COMDAT
; _this$ = ecx

; 96   : {

  00000	55		 push	 ebp
  00001	8b ec		 mov	 ebp, esp
  00003	57		 push	 edi

; 97   : 	m_horzScaleTool.SetIChartCtrl(p_pICharetCtrl);

  00004	ff 75 08	 push	 DWORD PTR _p_pICharetCtrl$[ebp]
  00007	8b f9		 mov	 edi, ecx
  00009	8d 4f 04	 lea	 ecx, DWORD PTR [edi+4]
  0000c	e8 00 00 00 00	 call	 ?SetIChartCtrl@CBaseTool@@QAEXPAUIChartCtrl@@@Z ; CBaseTool::SetIChartCtrl

; 98   : 	m_vertScaleTool.SetIChartCtrl(p_pICharetCtrl);

  00011	ff 75 08	 push	 DWORD PTR _p_pICharetCtrl$[ebp]
  00014	8d 4f 14	 lea	 ecx, DWORD PTR [edi+20]
  00017	e8 00 00 00 00	 call	 ?SetIChartCtrl@CBaseTool@@QAEXPAUIChartCtrl@@@Z ; CBaseTool::SetIChartCtrl
  0001c	5f		 pop	 edi

; 99   : }

  0001d	5d		 pop	 ebp
  0001e	c2 04 00	 ret	 4
?SetIChartCtrl@CScaleToolSingleton@@QAEXPAUIChartCtrl@@@Z ENDP ; CScaleToolSingleton::SetIChartCtrl
_TEXT	ENDS
; Function compile flags: /Ogtp
; File D:\git\src\IBK\IBK_DRFN\ProjSrc\SrcChartEx\ChartOCX\ChartObject\BaseToolSingleton.cpp
;	COMDAT ??0CScaleToolSingleton@@QAE@_N0@Z
_TEXT	SEGMENT
_bUsingHorzTool$ = 8					; size = 1
_bUsingVertTool$ = 12					; size = 1
??0CScaleToolSingleton@@QAE@_N0@Z PROC			; CScaleToolSingleton::CScaleToolSingleton, COMDAT
; _this$ = ecx

; 92   : {

  00000	55		 push	 ebp
  00001	8b ec		 mov	 ebp, esp

; 90   : 	m_bUsingHorzTool(bUsingHorzTool),

  00003	8a 45 08	 mov	 al, BYTE PTR _bUsingHorzTool$[ebp]
  00006	56		 push	 esi
  00007	8b f1		 mov	 esi, ecx
  00009	88 06		 mov	 BYTE PTR [esi], al

; 92   : {

  0000b	8d 4e 04	 lea	 ecx, DWORD PTR [esi+4]
  0000e	8a 45 0c	 mov	 al, BYTE PTR _bUsingVertTool$[ebp]
  00011	88 46 01	 mov	 BYTE PTR [esi+1], al
  00014	e8 00 00 00 00	 call	 ??0CHorzScaleTool@@QAE@XZ ; CHorzScaleTool::CHorzScaleTool
  00019	8d 4e 14	 lea	 ecx, DWORD PTR [esi+20]
  0001c	e8 00 00 00 00	 call	 ??0CVertScaleTool@@QAE@XZ ; CVertScaleTool::CVertScaleTool

; 93   : }

  00021	8b c6		 mov	 eax, esi
  00023	5e		 pop	 esi
  00024	5d		 pop	 ebp
  00025	c2 08 00	 ret	 8
??0CScaleToolSingleton@@QAE@_N0@Z ENDP			; CScaleToolSingleton::CScaleToolSingleton
_TEXT	ENDS
; Function compile flags: /Ogtp
; File D:\git\src\IBK\IBK_DRFN\ProjSrc\SrcChartEx\ChartOCX\ChartObject\BaseToolSingleton.cpp
;	COMDAT ?OnDraw@CBlockToolSingleton@@QAEXPAVCDC@@PAVCMainBlock@@@Z
_TEXT	SEGMENT
_pDC$ = 8						; size = 4
_pMainBlock$ = 12					; size = 4
?OnDraw@CBlockToolSingleton@@QAEXPAVCDC@@PAVCMainBlock@@@Z PROC ; CBlockToolSingleton::OnDraw, COMDAT
; _this$ = ecx

; 70   : {

  00000	55		 push	 ebp
  00001	8b ec		 mov	 ebp, esp
  00003	56		 push	 esi
  00004	57		 push	 edi

; 71   : 	if(pMainBlock == NULL)

  00005	8b 7d 0c	 mov	 edi, DWORD PTR _pMainBlock$[ebp]
  00008	8b f1		 mov	 esi, ecx
  0000a	85 ff		 test	 edi, edi
  0000c	74 34		 je	 SHORT $LN5@OnDraw

; 72   : 		return;
; 73   : 
; 74   : 	if(m_bUsingMoveTool)

  0000e	80 3e 00	 cmp	 BYTE PTR [esi], 0
  00011	53		 push	 ebx
  00012	8b 5d 08	 mov	 ebx, DWORD PTR _pDC$[ebp]
  00015	74 0a		 je	 SHORT $LN3@OnDraw

; 75   : 		m_blockMoveTool.DrawSelectionButton(pDC, pMainBlock);

  00017	57		 push	 edi
  00018	53		 push	 ebx
  00019	8d 4e 04	 lea	 ecx, DWORD PTR [esi+4]
  0001c	e8 00 00 00 00	 call	 ?DrawSelectionButton@CBlockTool@@QAEXPAVCDC@@PAVCMainBlock@@@Z ; CBlockTool::DrawSelectionButton
$LN3@OnDraw:

; 76   : 
; 77   : 	if(m_bUsingDeleteTool)

  00021	80 7e 01 00	 cmp	 BYTE PTR [esi+1], 0
  00025	74 0a		 je	 SHORT $LN4@OnDraw

; 78   : 		m_blockDeleteTool.DrawSelectionButton(pDC, pMainBlock);

  00027	57		 push	 edi
  00028	53		 push	 ebx
  00029	8d 4e 18	 lea	 ecx, DWORD PTR [esi+24]
  0002c	e8 00 00 00 00	 call	 ?DrawSelectionButton@CBlockTool@@QAEXPAVCDC@@PAVCMainBlock@@@Z ; CBlockTool::DrawSelectionButton
$LN4@OnDraw:

; 79   : 
; 80   : 	// 블럭 최대화 추가 - ojtaso (20080519)
; 81   : 	if(m_bUsingSizeTool)

  00031	80 7e 02 00	 cmp	 BYTE PTR [esi+2], 0
  00035	74 0a		 je	 SHORT $LN7@OnDraw

; 82   : 		m_blockSizeTool.DrawSelectionButton(pDC, pMainBlock);

  00037	57		 push	 edi
  00038	53		 push	 ebx
  00039	8d 4e 2c	 lea	 ecx, DWORD PTR [esi+44]
  0003c	e8 00 00 00 00	 call	 ?DrawSelectionButton@CBlockTool@@QAEXPAVCDC@@PAVCMainBlock@@@Z ; CBlockTool::DrawSelectionButton
$LN7@OnDraw:
  00041	5b		 pop	 ebx
$LN5@OnDraw:
  00042	5f		 pop	 edi

; 83   : }

  00043	5e		 pop	 esi
  00044	5d		 pop	 ebp
  00045	c2 08 00	 ret	 8
?OnDraw@CBlockToolSingleton@@QAEXPAVCDC@@PAVCMainBlock@@@Z ENDP ; CBlockToolSingleton::OnDraw
_TEXT	ENDS
; Function compile flags: /Ogtp
; File D:\git\src\IBK\IBK_DRFN\ProjSrc\SrcChartEx\ChartOCX\ChartObject\BaseToolSingleton.cpp
;	COMDAT ?GetTool@CBlockToolSingleton@@QAEPAVCBlockTool@@PAVCMainBlock@@ABVCPoint@@@Z
_TEXT	SEGMENT
_pMainBlock$ = 8					; size = 4
tv174 = 12						; size = 4
tv173 = 12						; size = 4
_point$ = 12						; size = 4
?GetTool@CBlockToolSingleton@@QAEPAVCBlockTool@@PAVCMainBlock@@ABVCPoint@@@Z PROC ; CBlockToolSingleton::GetTool, COMDAT
; _this$ = ecx

; 56   : {

  00000	55		 push	 ebp
  00001	8b ec		 mov	 ebp, esp
  00003	53		 push	 ebx

; 57   : 	if(m_bUsingMoveTool && m_blockMoveTool.Find(pMainBlock, point))

  00004	8b 5d 08	 mov	 ebx, DWORD PTR _pMainBlock$[ebp]
  00007	56		 push	 esi
  00008	8b f1		 mov	 esi, ecx
  0000a	57		 push	 edi
  0000b	8b 7d 0c	 mov	 edi, DWORD PTR _point$[ebp]
  0000e	80 3e 00	 cmp	 BYTE PTR [esi], 0
  00011	74 1d		 je	 SHORT $LN2@GetTool
  00013	8d 46 04	 lea	 eax, DWORD PTR [esi+4]
  00016	57		 push	 edi
  00017	53		 push	 ebx
  00018	8b c8		 mov	 ecx, eax
  0001a	89 45 0c	 mov	 DWORD PTR tv174[ebp], eax
  0001d	e8 00 00 00 00	 call	 ?Find@CBlockTool@@QAE_NPAVCMainBlock@@ABVCPoint@@@Z ; CBlockTool::Find
  00022	84 c0		 test	 al, al
  00024	74 0a		 je	 SHORT $LN2@GetTool

; 58   : 		return &m_blockMoveTool;

  00026	8b 45 0c	 mov	 eax, DWORD PTR tv174[ebp]
  00029	5f		 pop	 edi

; 64   : 
; 65   : 	return NULL;
; 66   : }

  0002a	5e		 pop	 esi
  0002b	5b		 pop	 ebx
  0002c	5d		 pop	 ebp
  0002d	c2 08 00	 ret	 8
$LN2@GetTool:

; 59   : 	if(m_bUsingDeleteTool && m_blockDeleteTool.Find(pMainBlock, point))

  00030	80 7e 01 00	 cmp	 BYTE PTR [esi+1], 0
  00034	74 1d		 je	 SHORT $LN3@GetTool
  00036	8d 46 18	 lea	 eax, DWORD PTR [esi+24]
  00039	57		 push	 edi
  0003a	53		 push	 ebx
  0003b	8b c8		 mov	 ecx, eax
  0003d	89 45 0c	 mov	 DWORD PTR tv173[ebp], eax
  00040	e8 00 00 00 00	 call	 ?Find@CBlockTool@@QAE_NPAVCMainBlock@@ABVCPoint@@@Z ; CBlockTool::Find
  00045	84 c0		 test	 al, al
  00047	74 0a		 je	 SHORT $LN3@GetTool

; 60   : 		return &m_blockDeleteTool;

  00049	8b 45 0c	 mov	 eax, DWORD PTR tv173[ebp]
  0004c	5f		 pop	 edi

; 64   : 
; 65   : 	return NULL;
; 66   : }

  0004d	5e		 pop	 esi
  0004e	5b		 pop	 ebx
  0004f	5d		 pop	 ebp
  00050	c2 08 00	 ret	 8
$LN3@GetTool:

; 61   : 	// 블럭 최대화 추가 - ojtaso (20080519)
; 62   : 	if(m_bUsingSizeTool && m_blockSizeTool.Find(pMainBlock, point))

  00053	80 7e 02 00	 cmp	 BYTE PTR [esi+2], 0
  00057	74 18		 je	 SHORT $LN4@GetTool
  00059	57		 push	 edi
  0005a	53		 push	 ebx
  0005b	8d 4e 2c	 lea	 ecx, DWORD PTR [esi+44]
  0005e	e8 00 00 00 00	 call	 ?Find@CBlockTool@@QAE_NPAVCMainBlock@@ABVCPoint@@@Z ; CBlockTool::Find
  00063	84 c0		 test	 al, al
  00065	74 0a		 je	 SHORT $LN4@GetTool

; 63   : 		return &m_blockSizeTool;

  00067	5f		 pop	 edi
  00068	8d 46 2c	 lea	 eax, DWORD PTR [esi+44]

; 64   : 
; 65   : 	return NULL;
; 66   : }

  0006b	5e		 pop	 esi
  0006c	5b		 pop	 ebx
  0006d	5d		 pop	 ebp
  0006e	c2 08 00	 ret	 8
$LN4@GetTool:
  00071	5f		 pop	 edi
  00072	5e		 pop	 esi
  00073	33 c0		 xor	 eax, eax
  00075	5b		 pop	 ebx
  00076	5d		 pop	 ebp
  00077	c2 08 00	 ret	 8
?GetTool@CBlockToolSingleton@@QAEPAVCBlockTool@@PAVCMainBlock@@ABVCPoint@@@Z ENDP ; CBlockToolSingleton::GetTool
_TEXT	ENDS
; Function compile flags: /Ogtp
; File D:\git\src\IBK\IBK_DRFN\ProjSrc\SrcChartEx\ChartOCX\ChartObject\BaseToolSingleton.cpp
;	COMDAT ?SetUsingTool@CBlockToolSingleton@@QAEXW4TOOLTYPE@CBlockBaseData@@_N@Z
_TEXT	SEGMENT
_eToolType$ = 8						; size = 4
_bIsUsing$ = 12						; size = 1
?SetUsingTool@CBlockToolSingleton@@QAEXW4TOOLTYPE@CBlockBaseData@@_N@Z PROC ; CBlockToolSingleton::SetUsingTool, COMDAT
; _this$ = ecx

; 40   : {

  00000	55		 push	 ebp
  00001	8b ec		 mov	 ebp, esp

; 41   : 	switch(eToolType){

  00003	8b 45 08	 mov	 eax, DWORD PTR _eToolType$[ebp]
  00006	83 e8 01	 sub	 eax, 1
  00009	74 1e		 je	 SHORT $LN4@SetUsingTo
  0000b	83 e8 01	 sub	 eax, 1
  0000e	74 0f		 je	 SHORT $LN5@SetUsingTo
  00010	83 e8 07	 sub	 eax, 7
  00013	75 19		 jne	 SHORT $LN2@SetUsingTo

; 47   : 		break;
; 48   : 	case CBlockBaseData::TOOL_BLOCKSIZE:	// 블럭 최대화 추가 - ojtaso (20080519)
; 49   : 		m_bUsingSizeTool = bIsUsing;

  00015	8a 45 0c	 mov	 al, BYTE PTR _bIsUsing$[ebp]
  00018	88 41 02	 mov	 BYTE PTR [ecx+2], al

; 50   : 		break;
; 51   : 	}
; 52   : }

  0001b	5d		 pop	 ebp
  0001c	c2 08 00	 ret	 8
$LN5@SetUsingTo:

; 44   : 		break;	
; 45   : 	case CBlockBaseData::TOOL_BLOCKDELETE:	// block 삭제 tool
; 46   : 		m_bUsingDeleteTool = bIsUsing;

  0001f	8a 45 0c	 mov	 al, BYTE PTR _bIsUsing$[ebp]
  00022	88 41 01	 mov	 BYTE PTR [ecx+1], al

; 50   : 		break;
; 51   : 	}
; 52   : }

  00025	5d		 pop	 ebp
  00026	c2 08 00	 ret	 8
$LN4@SetUsingTo:

; 42   : 	case CBlockBaseData::TOOL_BLOCKMOVE:	// block 이동 tool	
; 43   : 		m_bUsingMoveTool = bIsUsing;

  00029	8a 45 0c	 mov	 al, BYTE PTR _bIsUsing$[ebp]
  0002c	88 01		 mov	 BYTE PTR [ecx], al
$LN2@SetUsingTo:

; 50   : 		break;
; 51   : 	}
; 52   : }

  0002e	5d		 pop	 ebp
  0002f	c2 08 00	 ret	 8
?SetUsingTool@CBlockToolSingleton@@QAEXW4TOOLTYPE@CBlockBaseData@@_N@Z ENDP ; CBlockToolSingleton::SetUsingTool
_TEXT	ENDS
; Function compile flags: /Ogtp
; File D:\git\src\IBK\IBK_DRFN\ProjSrc\SrcChartEx\ChartOCX\ChartObject\BaseToolSingleton.cpp
;	COMDAT ?SetIChartCtrl@CBlockToolSingleton@@QAEXPAUIChartCtrl@@@Z
_TEXT	SEGMENT
_p_pICharetCtrl$ = 8					; size = 4
?SetIChartCtrl@CBlockToolSingleton@@QAEXPAUIChartCtrl@@@Z PROC ; CBlockToolSingleton::SetIChartCtrl, COMDAT
; _this$ = ecx

; 32   : {

  00000	55		 push	 ebp
  00001	8b ec		 mov	 ebp, esp
  00003	56		 push	 esi

; 33   : 	m_blockMoveTool.SetIChartCtrl(p_pICharetCtrl);

  00004	8b 75 08	 mov	 esi, DWORD PTR _p_pICharetCtrl$[ebp]
  00007	57		 push	 edi
  00008	8b f9		 mov	 edi, ecx
  0000a	56		 push	 esi
  0000b	8d 4f 04	 lea	 ecx, DWORD PTR [edi+4]
  0000e	e8 00 00 00 00	 call	 ?SetIChartCtrl@CBaseTool@@QAEXPAUIChartCtrl@@@Z ; CBaseTool::SetIChartCtrl

; 34   : 	m_blockDeleteTool.SetIChartCtrl(p_pICharetCtrl);

  00013	56		 push	 esi
  00014	8d 4f 18	 lea	 ecx, DWORD PTR [edi+24]
  00017	e8 00 00 00 00	 call	 ?SetIChartCtrl@CBaseTool@@QAEXPAUIChartCtrl@@@Z ; CBaseTool::SetIChartCtrl

; 35   : 	// 블럭 최대화 추가 - ojtaso (20080519)
; 36   : 	m_blockSizeTool.SetIChartCtrl(p_pICharetCtrl);

  0001c	56		 push	 esi
  0001d	8d 4f 2c	 lea	 ecx, DWORD PTR [edi+44]
  00020	e8 00 00 00 00	 call	 ?SetIChartCtrl@CBaseTool@@QAEXPAUIChartCtrl@@@Z ; CBaseTool::SetIChartCtrl
  00025	5f		 pop	 edi
  00026	5e		 pop	 esi

; 37   : }

  00027	5d		 pop	 ebp
  00028	c2 04 00	 ret	 4
?SetIChartCtrl@CBlockToolSingleton@@QAEXPAUIChartCtrl@@@Z ENDP ; CBlockToolSingleton::SetIChartCtrl
_TEXT	ENDS
; Function compile flags: /Ogtp
; File D:\git\src\IBK\IBK_DRFN\ProjSrc\SrcChartEx\ChartOCX\ChartObject\BaseToolSingleton.cpp
; File D:\git\src\IBK\IBK_DRFN\ProjSrc\SrcChartEx\ChartOCX\Include_Chart\BlockBaseData.h
; File D:\git\src\IBK\IBK_DRFN\ProjSrc\SrcChartEx\ChartOCX\ChartObject\BaseToolSingleton.cpp
; File D:\git\src\IBK\IBK_DRFN\ProjSrc\SrcChartEx\ChartOCX\Include_Chart\BlockBaseData.h
; File D:\git\src\IBK\IBK_DRFN\ProjSrc\SrcChartEx\ChartOCX\ChartObject\BaseToolSingleton.cpp
;	COMDAT ??0CBlockToolSingleton@@QAE@_N00@Z
_TEXT	SEGMENT
_bUsingMoveTool$ = 8					; size = 1
_bUsingDeleteTool$ = 12					; size = 1
_bUsingSizeTool$ = 16					; size = 1
??0CBlockToolSingleton@@QAE@_N00@Z PROC			; CBlockToolSingleton::CBlockToolSingleton, COMDAT
; _this$ = ecx

; 28   : {

  00000	55		 push	 ebp
  00001	8b ec		 mov	 ebp, esp

; 25   : 	m_bUsingMoveTool(bUsingMoveTool),

  00003	8a 45 08	 mov	 al, BYTE PTR _bUsingMoveTool$[ebp]
  00006	56		 push	 esi
  00007	57		 push	 edi
  00008	8b f9		 mov	 edi, ecx
  0000a	88 07		 mov	 BYTE PTR [edi], al
  0000c	8d 4f 04	 lea	 ecx, DWORD PTR [edi+4]

; 26   : 	m_bUsingDeleteTool(bUsingDeleteTool),

  0000f	8a 45 0c	 mov	 al, BYTE PTR _bUsingDeleteTool$[ebp]
  00012	88 47 01	 mov	 BYTE PTR [edi+1], al

; 27   : 	m_bUsingSizeTool(bUsingSizeTool)

  00015	8a 45 10	 mov	 al, BYTE PTR _bUsingSizeTool$[ebp]
  00018	88 47 02	 mov	 BYTE PTR [edi+2], al
  0001b	e8 00 00 00 00	 call	 ??0CBaseTool@@QAE@XZ	; CBaseTool::CBaseTool
  00020	8d 4f 18	 lea	 ecx, DWORD PTR [edi+24]
; File D:\git\src\IBK\IBK_DRFN\ProjSrc\SrcChartEx\ChartOCX\Include_Chart\BlockBaseData.h

; 19   : 	CBlockIndex()										{	m_nRow = m_nColumn = -1;				}

  00023	c7 47 14 ff ff
	ff ff		 mov	 DWORD PTR [edi+20], -1
  0002a	c7 47 10 ff ff
	ff ff		 mov	 DWORD PTR [edi+16], -1
  00031	c7 47 04 00 00
	00 00		 mov	 DWORD PTR [edi+4], OFFSET ??_7CBlockMoveTool@@6B@
  00038	e8 00 00 00 00	 call	 ??0CBaseTool@@QAE@XZ	; CBaseTool::CBaseTool
; File D:\git\src\IBK\IBK_DRFN\ProjSrc\SrcChartEx\ChartOCX\ChartObject\BaseToolSingleton.cpp

; 28   : {

  0003d	8d 4f 2c	 lea	 ecx, DWORD PTR [edi+44]
; File D:\git\src\IBK\IBK_DRFN\ProjSrc\SrcChartEx\ChartOCX\Include_Chart\BlockBaseData.h

; 19   : 	CBlockIndex()										{	m_nRow = m_nColumn = -1;				}

  00040	c7 47 28 ff ff
	ff ff		 mov	 DWORD PTR [edi+40], -1
  00047	c7 47 24 ff ff
	ff ff		 mov	 DWORD PTR [edi+36], -1
  0004e	c7 47 18 00 00
	00 00		 mov	 DWORD PTR [edi+24], OFFSET ??_7CBlockDeleteTool@@6B@
; File D:\git\src\IBK\IBK_DRFN\ProjSrc\SrcChartEx\ChartOCX\ChartObject\BaseToolSingleton.cpp

; 28   : {

  00055	e8 00 00 00 00	 call	 ??0CBlockSizeTool@@QAE@XZ ; CBlockSizeTool::CBlockSizeTool

; 29   : }

  0005a	8b c7		 mov	 eax, edi
  0005c	5f		 pop	 edi
  0005d	5e		 pop	 esi
  0005e	5d		 pop	 ebp
  0005f	c2 0c 00	 ret	 12			; 0000000cH
??0CBlockToolSingleton@@QAE@_N00@Z ENDP			; CBlockToolSingleton::CBlockToolSingleton
_TEXT	ENDS
; Function compile flags: /Ogtp
; File C:\Program Files (x86)\Microsoft Visual Studio\2019\Community\VC\Tools\MSVC\14.29.30133\include\exception
;	COMDAT ?_Throw_bad_array_new_length@std@@YAXXZ
_TEXT	SEGMENT
$T1 = -12						; size = 12
?_Throw_bad_array_new_length@std@@YAXXZ PROC		; std::_Throw_bad_array_new_length, COMDAT

; 315  : [[noreturn]] inline void _Throw_bad_array_new_length() {

  00000	55		 push	 ebp
  00001	8b ec		 mov	 ebp, esp
  00003	83 ec 0c	 sub	 esp, 12			; 0000000cH

; 316  :     _THROW(bad_array_new_length{});

  00006	8d 4d f4	 lea	 ecx, DWORD PTR $T1[ebp]
  00009	e8 00 00 00 00	 call	 ??0bad_array_new_length@std@@QAE@XZ ; std::bad_array_new_length::bad_array_new_length
  0000e	68 00 00 00 00	 push	 OFFSET __TI3?AVbad_array_new_length@std@@
  00013	8d 45 f4	 lea	 eax, DWORD PTR $T1[ebp]
  00016	50		 push	 eax
  00017	e8 00 00 00 00	 call	 __CxxThrowException@8
$LN3@Throw_bad_:
  0001c	cc		 int	 3
?_Throw_bad_array_new_length@std@@YAXXZ ENDP		; std::_Throw_bad_array_new_length
_TEXT	ENDS
; Function compile flags: /Ogtp
; File C:\Program Files (x86)\Microsoft Visual Studio\2019\Community\VC\Tools\MSVC\14.29.30133\include\vcruntime_exception.h
;	COMDAT ??_Gbad_array_new_length@std@@UAEPAXI@Z
_TEXT	SEGMENT
___flags$ = 8						; size = 4
??_Gbad_array_new_length@std@@UAEPAXI@Z PROC		; std::bad_array_new_length::`scalar deleting destructor', COMDAT
; _this$ = ecx
  00000	55		 push	 ebp
  00001	8b ec		 mov	 ebp, esp

; 89   :     {

  00003	56		 push	 esi
  00004	8b f1		 mov	 esi, ecx

; 90   :         __std_exception_destroy(&_Data);

  00006	8d 46 04	 lea	 eax, DWORD PTR [esi+4]
  00009	c7 06 00 00 00
	00		 mov	 DWORD PTR [esi], OFFSET ??_7exception@std@@6B@
  0000f	50		 push	 eax
  00010	e8 00 00 00 00	 call	 ___std_exception_destroy
  00015	83 c4 04	 add	 esp, 4
  00018	f6 45 08 01	 test	 BYTE PTR ___flags$[ebp], 1
  0001c	74 0b		 je	 SHORT $LN12@scalar
  0001e	6a 0c		 push	 12			; 0000000cH
  00020	56		 push	 esi
  00021	e8 00 00 00 00	 call	 ??3@YAXPAXI@Z		; operator delete
  00026	83 c4 08	 add	 esp, 8
$LN12@scalar:
  00029	8b c6		 mov	 eax, esi
  0002b	5e		 pop	 esi
  0002c	5d		 pop	 ebp
  0002d	c2 04 00	 ret	 4
??_Gbad_array_new_length@std@@UAEPAXI@Z ENDP		; std::bad_array_new_length::`scalar deleting destructor'
_TEXT	ENDS
; Function compile flags: /Ogtp
; File C:\Program Files (x86)\Microsoft Visual Studio\2019\Community\VC\Tools\MSVC\14.29.30133\include\vcruntime_exception.h
;	COMDAT ??0bad_array_new_length@std@@QAE@ABV01@@Z
_TEXT	SEGMENT
___that$ = 8						; size = 4
??0bad_array_new_length@std@@QAE@ABV01@@Z PROC		; std::bad_array_new_length::bad_array_new_length, COMDAT
; _this$ = ecx
  00000	55		 push	 ebp
  00001	8b ec		 mov	 ebp, esp

; 72   :     {

  00003	56		 push	 esi
  00004	8b f1		 mov	 esi, ecx
  00006	0f 57 c0	 xorps	 xmm0, xmm0

; 71   :         : _Data()

  00009	8d 46 04	 lea	 eax, DWORD PTR [esi+4]

; 73   :         __std_exception_copy(&_Other._Data, &_Data);

  0000c	50		 push	 eax
  0000d	c7 06 00 00 00
	00		 mov	 DWORD PTR [esi], OFFSET ??_7exception@std@@6B@
  00013	66 0f d6 00	 movq	 QWORD PTR [eax], xmm0
  00017	8b 45 08	 mov	 eax, DWORD PTR ___that$[ebp]
  0001a	83 c0 04	 add	 eax, 4
  0001d	50		 push	 eax
  0001e	e8 00 00 00 00	 call	 ___std_exception_copy
  00023	83 c4 08	 add	 esp, 8
  00026	c7 06 00 00 00
	00		 mov	 DWORD PTR [esi], OFFSET ??_7bad_array_new_length@std@@6B@
  0002c	8b c6		 mov	 eax, esi
  0002e	5e		 pop	 esi
  0002f	5d		 pop	 ebp
  00030	c2 04 00	 ret	 4
??0bad_array_new_length@std@@QAE@ABV01@@Z ENDP		; std::bad_array_new_length::bad_array_new_length
_TEXT	ENDS
; Function compile flags: /Ogtp
; File C:\Program Files (x86)\Microsoft Visual Studio\2019\Community\VC\Tools\MSVC\14.29.30133\include\vcruntime_exception.h
;	COMDAT ??1bad_array_new_length@std@@UAE@XZ
_TEXT	SEGMENT
??1bad_array_new_length@std@@UAE@XZ PROC		; std::bad_array_new_length::~bad_array_new_length, COMDAT
; _this$ = ecx

; 90   :         __std_exception_destroy(&_Data);

  00000	8d 41 04	 lea	 eax, DWORD PTR [ecx+4]
  00003	c7 01 00 00 00
	00		 mov	 DWORD PTR [ecx], OFFSET ??_7exception@std@@6B@
  00009	50		 push	 eax
  0000a	e8 00 00 00 00	 call	 ___std_exception_destroy
  0000f	59		 pop	 ecx
  00010	c3		 ret	 0
??1bad_array_new_length@std@@UAE@XZ ENDP		; std::bad_array_new_length::~bad_array_new_length
_TEXT	ENDS
; Function compile flags: /Ogtp
; File C:\Program Files (x86)\Microsoft Visual Studio\2019\Community\VC\Tools\MSVC\14.29.30133\include\vcruntime_exception.h
;	COMDAT ??0bad_array_new_length@std@@QAE@XZ
_TEXT	SEGMENT
??0bad_array_new_length@std@@QAE@XZ PROC		; std::bad_array_new_length::bad_array_new_length, COMDAT
; _this$ = ecx

; 141  :     {

  00000	0f 57 c0	 xorps	 xmm0, xmm0

; 142  :     }

  00003	8b c1		 mov	 eax, ecx

; 65   :         : _Data()

  00005	66 0f d6 41 04	 movq	 QWORD PTR [ecx+4], xmm0

; 66   :     {
; 67   :         _Data._What = _Message;

  0000a	c7 41 04 00 00
	00 00		 mov	 DWORD PTR [ecx+4], OFFSET ??_C@_0BF@KINCDENJ@bad?5array?5new?5length@

; 141  :     {

  00011	c7 01 00 00 00
	00		 mov	 DWORD PTR [ecx], OFFSET ??_7bad_array_new_length@std@@6B@

; 142  :     }

  00017	c3		 ret	 0
??0bad_array_new_length@std@@QAE@XZ ENDP		; std::bad_array_new_length::bad_array_new_length
_TEXT	ENDS
; Function compile flags: /Ogtp
; File C:\Program Files (x86)\Microsoft Visual Studio\2019\Community\VC\Tools\MSVC\14.29.30133\include\vcruntime_exception.h
;	COMDAT ??_Gbad_alloc@std@@UAEPAXI@Z
_TEXT	SEGMENT
___flags$ = 8						; size = 4
??_Gbad_alloc@std@@UAEPAXI@Z PROC			; std::bad_alloc::`scalar deleting destructor', COMDAT
; _this$ = ecx
  00000	55		 push	 ebp
  00001	8b ec		 mov	 ebp, esp

; 89   :     {

  00003	56		 push	 esi
  00004	8b f1		 mov	 esi, ecx

; 90   :         __std_exception_destroy(&_Data);

  00006	8d 46 04	 lea	 eax, DWORD PTR [esi+4]
  00009	c7 06 00 00 00
	00		 mov	 DWORD PTR [esi], OFFSET ??_7exception@std@@6B@
  0000f	50		 push	 eax
  00010	e8 00 00 00 00	 call	 ___std_exception_destroy
  00015	83 c4 04	 add	 esp, 4
  00018	f6 45 08 01	 test	 BYTE PTR ___flags$[ebp], 1
  0001c	74 0b		 je	 SHORT $LN9@scalar
  0001e	6a 0c		 push	 12			; 0000000cH
  00020	56		 push	 esi
  00021	e8 00 00 00 00	 call	 ??3@YAXPAXI@Z		; operator delete
  00026	83 c4 08	 add	 esp, 8
$LN9@scalar:
  00029	8b c6		 mov	 eax, esi
  0002b	5e		 pop	 esi
  0002c	5d		 pop	 ebp
  0002d	c2 04 00	 ret	 4
??_Gbad_alloc@std@@UAEPAXI@Z ENDP			; std::bad_alloc::`scalar deleting destructor'
_TEXT	ENDS
; Function compile flags: /Ogtp
; File C:\Program Files (x86)\Microsoft Visual Studio\2019\Community\VC\Tools\MSVC\14.29.30133\include\vcruntime_exception.h
;	COMDAT ??0bad_alloc@std@@QAE@ABV01@@Z
_TEXT	SEGMENT
___that$ = 8						; size = 4
??0bad_alloc@std@@QAE@ABV01@@Z PROC			; std::bad_alloc::bad_alloc, COMDAT
; _this$ = ecx
  00000	55		 push	 ebp
  00001	8b ec		 mov	 ebp, esp

; 72   :     {

  00003	56		 push	 esi
  00004	8b f1		 mov	 esi, ecx
  00006	0f 57 c0	 xorps	 xmm0, xmm0

; 71   :         : _Data()

  00009	8d 46 04	 lea	 eax, DWORD PTR [esi+4]

; 73   :         __std_exception_copy(&_Other._Data, &_Data);

  0000c	50		 push	 eax
  0000d	c7 06 00 00 00
	00		 mov	 DWORD PTR [esi], OFFSET ??_7exception@std@@6B@
  00013	66 0f d6 00	 movq	 QWORD PTR [eax], xmm0
  00017	8b 45 08	 mov	 eax, DWORD PTR ___that$[ebp]
  0001a	83 c0 04	 add	 eax, 4
  0001d	50		 push	 eax
  0001e	e8 00 00 00 00	 call	 ___std_exception_copy
  00023	83 c4 08	 add	 esp, 8
  00026	c7 06 00 00 00
	00		 mov	 DWORD PTR [esi], OFFSET ??_7bad_alloc@std@@6B@
  0002c	8b c6		 mov	 eax, esi
  0002e	5e		 pop	 esi
  0002f	5d		 pop	 ebp
  00030	c2 04 00	 ret	 4
??0bad_alloc@std@@QAE@ABV01@@Z ENDP			; std::bad_alloc::bad_alloc
_TEXT	ENDS
; Function compile flags: /Ogtp
; File C:\Program Files (x86)\Microsoft Visual Studio\2019\Community\VC\Tools\MSVC\14.29.30133\include\vcruntime_exception.h
;	COMDAT ??_Gexception@std@@UAEPAXI@Z
_TEXT	SEGMENT
___flags$ = 8						; size = 4
??_Gexception@std@@UAEPAXI@Z PROC			; std::exception::`scalar deleting destructor', COMDAT
; _this$ = ecx
  00000	55		 push	 ebp
  00001	8b ec		 mov	 ebp, esp

; 89   :     {

  00003	56		 push	 esi
  00004	8b f1		 mov	 esi, ecx

; 90   :         __std_exception_destroy(&_Data);

  00006	8d 46 04	 lea	 eax, DWORD PTR [esi+4]
  00009	c7 06 00 00 00
	00		 mov	 DWORD PTR [esi], OFFSET ??_7exception@std@@6B@
  0000f	50		 push	 eax
  00010	e8 00 00 00 00	 call	 ___std_exception_destroy
  00015	83 c4 04	 add	 esp, 4
  00018	f6 45 08 01	 test	 BYTE PTR ___flags$[ebp], 1
  0001c	74 0b		 je	 SHORT $LN6@scalar
  0001e	6a 0c		 push	 12			; 0000000cH
  00020	56		 push	 esi
  00021	e8 00 00 00 00	 call	 ??3@YAXPAXI@Z		; operator delete
  00026	83 c4 08	 add	 esp, 8
$LN6@scalar:
  00029	8b c6		 mov	 eax, esi
  0002b	5e		 pop	 esi
  0002c	5d		 pop	 ebp
  0002d	c2 04 00	 ret	 4
??_Gexception@std@@UAEPAXI@Z ENDP			; std::exception::`scalar deleting destructor'
_TEXT	ENDS
; Function compile flags: /Ogtp
; File C:\Program Files (x86)\Microsoft Visual Studio\2019\Community\VC\Tools\MSVC\14.29.30133\include\vcruntime_exception.h
;	COMDAT ?what@exception@std@@UBEPBDXZ
_TEXT	SEGMENT
?what@exception@std@@UBEPBDXZ PROC			; std::exception::what, COMDAT
; _this$ = ecx

; 95   :         return _Data._What ? _Data._What : "Unknown exception";

  00000	8b 49 04	 mov	 ecx, DWORD PTR [ecx+4]
  00003	b8 00 00 00 00	 mov	 eax, OFFSET ??_C@_0BC@EOODALEL@Unknown?5exception@
  00008	85 c9		 test	 ecx, ecx
  0000a	0f 45 c1	 cmovne	 eax, ecx

; 96   :     }

  0000d	c3		 ret	 0
?what@exception@std@@UBEPBDXZ ENDP			; std::exception::what
_TEXT	ENDS
; Function compile flags: /Ogtp
; File C:\Program Files (x86)\Microsoft Visual Studio\2019\Community\VC\Tools\MSVC\14.29.30133\include\vcruntime_exception.h
;	COMDAT ??1exception@std@@UAE@XZ
_TEXT	SEGMENT
??1exception@std@@UAE@XZ PROC				; std::exception::~exception, COMDAT
; _this$ = ecx

; 90   :         __std_exception_destroy(&_Data);

  00000	8d 41 04	 lea	 eax, DWORD PTR [ecx+4]
  00003	c7 01 00 00 00
	00		 mov	 DWORD PTR [ecx], OFFSET ??_7exception@std@@6B@
  00009	50		 push	 eax
  0000a	e8 00 00 00 00	 call	 ___std_exception_destroy
  0000f	59		 pop	 ecx

; 91   :     }

  00010	c3		 ret	 0
??1exception@std@@UAE@XZ ENDP				; std::exception::~exception
_TEXT	ENDS
; Function compile flags: /Ogtp
; File C:\Program Files (x86)\Microsoft Visual Studio\2019\Community\VC\Tools\MSVC\14.29.30133\include\vcruntime_exception.h
;	COMDAT ??0exception@std@@QAE@ABV01@@Z
_TEXT	SEGMENT
__Other$ = 8						; size = 4
??0exception@std@@QAE@ABV01@@Z PROC			; std::exception::exception, COMDAT
; _this$ = ecx

; 72   :     {

  00000	55		 push	 ebp
  00001	8b ec		 mov	 ebp, esp
  00003	56		 push	 esi
  00004	8b f1		 mov	 esi, ecx
  00006	0f 57 c0	 xorps	 xmm0, xmm0
  00009	8d 46 04	 lea	 eax, DWORD PTR [esi+4]

; 73   :         __std_exception_copy(&_Other._Data, &_Data);

  0000c	50		 push	 eax
  0000d	c7 06 00 00 00
	00		 mov	 DWORD PTR [esi], OFFSET ??_7exception@std@@6B@
  00013	66 0f d6 00	 movq	 QWORD PTR [eax], xmm0
  00017	8b 45 08	 mov	 eax, DWORD PTR __Other$[ebp]
  0001a	83 c0 04	 add	 eax, 4
  0001d	50		 push	 eax
  0001e	e8 00 00 00 00	 call	 ___std_exception_copy
  00023	83 c4 08	 add	 esp, 8

; 74   :     }

  00026	8b c6		 mov	 eax, esi
  00028	5e		 pop	 esi
  00029	5d		 pop	 ebp
  0002a	c2 04 00	 ret	 4
??0exception@std@@QAE@ABV01@@Z ENDP			; std::exception::exception
_TEXT	ENDS
; Function compile flags: /Ogtp
; File D:\git\src\IBK\IBK_DRFN\ProjSrc\SrcChartEx\ChartOCX\ChartObject\BaseToolSingleton.cpp
;	COMDAT ?__empty_global_delete@@YAXPAXI@Z
_TEXT	SEGMENT
___formal$ = 8						; size = 4
___formal$ = 12						; size = 4
?__empty_global_delete@@YAXPAXI@Z PROC			; __empty_global_delete, COMDAT

  00000	c2 00 00	 ret	 0
?__empty_global_delete@@YAXPAXI@Z ENDP			; __empty_global_delete
_TEXT	ENDS
; Function compile flags: /Ogtp
; File D:\git\src\IBK\IBK_DRFN\ProjSrc\SrcChartEx\ChartOCX\ChartObject\BaseToolSingleton.cpp
;	COMDAT ?__empty_global_delete@@YAXPAX@Z
_TEXT	SEGMENT
___formal$ = 8						; size = 4
?__empty_global_delete@@YAXPAX@Z PROC			; __empty_global_delete, COMDAT

  00000	c2 00 00	 ret	 0
?__empty_global_delete@@YAXPAX@Z ENDP			; __empty_global_delete
_TEXT	ENDS
END
