; Listing generated by Microsoft (R) Optimizing Compiler Version 19.29.30145.0 

	TITLE	D:\git\src\IBK\IBK_DRFN\#DRfn-CS\_Obj\ChartObject\BlocksPosition.obj
	.686P
	.XMM
	include listing.inc
	.model	flat

INCLUDELIB MSVCRT
INCLUDELIB OLDNAMES

PUBLIC	?__empty_global_delete@@YAXPAX@Z		; __empty_global_delete
PUBLIC	?__empty_global_delete@@YAXPAXI@Z		; __empty_global_delete
PUBLIC	??1CObject@@UAE@XZ				; CObject::~CObject
PUBLIC	?Serialize@CObject@@UAEXAAVCArchive@@@Z		; CObject::Serialize
PUBLIC	?AssertValid@CObject@@UBEXXZ			; CObject::AssertValid
PUBLIC	?Dump@CObject@@UBEXAAVCDumpContext@@@Z		; CObject::Dump
PUBLIC	??0CBlocksPositionBase@@IAE@XZ			; CBlocksPositionBase::CBlocksPositionBase
PUBLIC	??1CBlocksPositionBase@@IAE@XZ			; CBlocksPositionBase::~CBlocksPositionBase
PUBLIC	??0?$CList@NN@@QAE@H@Z				; CList<double,double>::CList<double,double>
PUBLIC	?RemoveTail@?$CList@NN@@QAENXZ			; CList<double,double>::RemoveTail
PUBLIC	?AddTail@?$CList@NN@@QAEPAU__POSITION@@N@Z	; CList<double,double>::AddTail
PUBLIC	?AddTail@?$CList@NN@@QAEXPAV1@@Z		; CList<double,double>::AddTail
PUBLIC	?RemoveAll@?$CList@NN@@QAEXXZ			; CList<double,double>::RemoveAll
PUBLIC	?NewNode@?$CList@NN@@IAEPAUCNode@1@PAU21@0@Z	; CList<double,double>::NewNode
PUBLIC	?FreeNode@?$CList@NN@@IAEXPAUCNode@1@@Z		; CList<double,double>::FreeNode
PUBLIC	??1?$CList@NN@@UAE@XZ				; CList<double,double>::~CList<double,double>
PUBLIC	?Serialize@?$CList@NN@@UAEXAAVCArchive@@@Z	; CList<double,double>::Serialize
PUBLIC	??_G?$CList@NN@@UAEPAXI@Z			; CList<double,double>::`scalar deleting destructor'
PUBLIC	?GetRowRate@CBlocksPositionBase@@IAEAAV?$CList@NN@@XZ ; CBlocksPositionBase::GetRowRate
PUBLIC	?GetRowCount@CBlocksPositionBase@@IBEHXZ	; CBlocksPositionBase::GetRowCount
PUBLIC	?UpdateRowRealFromRowRate@CBlocksPositionBase@@IAEXXZ ; CBlocksPositionBase::UpdateRowRealFromRowRate
PUBLIC	?GetRowReal@CBlocksPositionBase@@IAEAAV?$CList@NN@@XZ ; CBlocksPositionBase::GetRowReal
PUBLIC	?GetConstRowReal@CBlocksPositionBase@@IBEABV?$CList@NN@@XZ ; CBlocksPositionBase::GetConstRowReal
PUBLIC	?MoveBlocksPosition@CBlocksPositionBase@@IAE_NAAV?$CList@NN@@ABVCPoint@@HH@Z ; CBlocksPositionBase::MoveBlocksPosition
PUBLIC	?BlockPositionReset@CBlocksPositionBase@@QAEXXZ	; CBlocksPositionBase::BlockPositionReset
PUBLIC	?SetMaximizedBlock@CBlocksPositionBase@@QAEXABVCBlockIndex@@@Z ; CBlocksPositionBase::SetMaximizedBlock
PUBLIC	?GetMaximizedBlock@CBlocksPositionBase@@QBE?AVCBlockIndex@@XZ ; CBlocksPositionBase::GetMaximizedBlock
PUBLIC	?ClearRowReal@CBlocksPositionBase@@QAEXXZ	; CBlocksPositionBase::ClearRowReal
PUBLIC	??0CBlocksPosition@@QAE@XZ			; CBlocksPosition::CBlocksPosition
PUBLIC	??1CBlocksPosition@@QAE@XZ			; CBlocksPosition::~CBlocksPosition
PUBLIC	?Set@CBlocksPosition@@QAE_NABVCRect@@ABVCBlockIndex@@1HH@Z ; CBlocksPosition::Set
PUBLIC	?SetBlockCount@CBlocksPosition@@QAE_NABVCBlockIndex@@0@Z ; CBlocksPosition::SetBlockCount
PUBLIC	?SetRowBlockCount@CBlocksPosition@@QAE_NHH@Z	; CBlocksPosition::SetRowBlockCount
PUBLIC	?SetColumnBlockCount@CBlocksPosition@@QAE_NHH@Z	; CBlocksPosition::SetColumnBlockCount
PUBLIC	?InitializeNormalSizeBlockNumber@CBlocksPosition@@QAEXXZ ; CBlocksPosition::InitializeNormalSizeBlockNumber
PUBLIC	?RecalculateBlockRegions@CBlocksPosition@@QAE_NABVCRect@@@Z ; CBlocksPosition::RecalculateBlockRegions
PUBLIC	?SetBlocksPosition@CBlocksPosition@@QAEXABV?$CStringT@DV?$StrTraitMFC_DLL@DV?$ChTraitsCRT@D@ATL@@@@@ATL@@@Z ; CBlocksPosition::SetBlocksPosition
PUBLIC	?SetInterBlockHalfGap@CBlocksPosition@@QAEXH@Z	; CBlocksPosition::SetInterBlockHalfGap
PUBLIC	?SetCompartLineThickness@CBlocksPosition@@QAEXH@Z ; CBlocksPosition::SetCompartLineThickness
PUBLIC	?SetDoubleSizeBlockNumber@CBlocksPosition@@QAEXABVCBlockIndex@@@Z ; CBlocksPosition::SetDoubleSizeBlockNumber
PUBLIC	?GetBlocksPosition@CBlocksPosition@@QBE?AV?$CStringT@DV?$StrTraitMFC_DLL@DV?$ChTraitsCRT@D@ATL@@@@@ATL@@XZ ; CBlocksPosition::GetBlocksPosition
PUBLIC	?GetAllBlockRegion@CBlocksPosition@@QBE?AVCRect@@XZ ; CBlocksPosition::GetAllBlockRegion
PUBLIC	?GetBlocksColumnRegion@CBlocksPosition@@QBE?AVCRect@@H@Z ; CBlocksPosition::GetBlocksColumnRegion
PUBLIC	?GetBlockRegion@CBlocksPosition@@QBE?AVCRect@@ABVCBlockIndex@@@Z ; CBlocksPosition::GetBlockRegion
PUBLIC	?GetBlockCount@CBlocksPosition@@QBEHXZ		; CBlocksPosition::GetBlockCount
PUBLIC	?GetRowBlockCount@CBlocksPosition@@QBEHXZ	; CBlocksPosition::GetRowBlockCount
PUBLIC	?GetColumnBlockCount@CBlocksPosition@@QBEHXZ	; CBlocksPosition::GetColumnBlockCount
PUBLIC	?GetRowAndColumn@CBlocksPosition@@QBE_NABVCPoint@@AAVCBlockIndex@@@Z ; CBlocksPosition::GetRowAndColumn
PUBLIC	?GetRowAndColumn@CBlocksPosition@@QBE_NABVCRect@@AAVCBlockIndex@@@Z ; CBlocksPosition::GetRowAndColumn
PUBLIC	?GetInterBlockHalfGap@CBlocksPosition@@QBEHXZ	; CBlocksPosition::GetInterBlockHalfGap
PUBLIC	?DrawBlockCompartLine@CBlocksPosition@@QAEXPAVCDC@@ABK@Z ; CBlocksPosition::DrawBlockCompartLine
PUBLIC	?FindCompartLine@CBlocksPosition@@QBE?AVCBlockIndex@@ABVCPoint@@@Z ; CBlocksPosition::FindCompartLine
PUBLIC	?MoveBlocksPosition@CBlocksPosition@@QAE_NABVCPoint@@ABVCBlockIndex@@@Z ; CBlocksPosition::MoveBlocksPosition
PUBLIC	?MoveBlockPosition@CBlocksPosition@@QAE_NHHW4BLOCKTYPE@CBlockBaseData@@@Z ; CBlocksPosition::MoveBlockPosition
PUBLIC	?IsBiggerThanMinMainRegion@CBlocksPosition@@ABE_NABVCRect@@ABVCBlockIndex@@H@Z ; CBlocksPosition::IsBiggerThanMinMainRegion
PUBLIC	?IsBiggerThanMinMainRegion@CBlocksPosition@@ABE_NHHH@Z ; CBlocksPosition::IsBiggerThanMinMainRegion
PUBLIC	?Add@CBlocksPosition@@AAEXAAV?$CList@NN@@HHH@Z	; CBlocksPosition::Add
PUBLIC	?IsEqualityPartition@CBlocksPosition@@ABE_NHH@Z	; CBlocksPosition::IsEqualityPartition
PUBLIC	?DrawRowCompartLine@CBlocksPosition@@AAEXPAVCDC@@ABK@Z ; CBlocksPosition::DrawRowCompartLine
PUBLIC	?DrawColumnCompartLine@CBlocksPosition@@AAEXPAVCDC@@ABK@Z ; CBlocksPosition::DrawColumnCompartLine
PUBLIC	?SetHorzScalePosition@CBlocksPosition@@QAEXAAVCHorizontalScale@@W4HORZSCALEPOSITION@CScaleBaseData@@@Z ; CBlocksPosition::SetHorzScalePosition
PUBLIC	??0?$CList@HH@@QAE@H@Z				; CList<int,int>::CList<int,int>
PUBLIC	?AddTail@?$CList@HH@@QAEPAU__POSITION@@H@Z	; CList<int,int>::AddTail
PUBLIC	?RemoveAll@?$CList@HH@@QAEXXZ			; CList<int,int>::RemoveAll
PUBLIC	?NewNode@?$CList@HH@@IAEPAUCNode@1@PAU21@0@Z	; CList<int,int>::NewNode
PUBLIC	??1?$CList@HH@@UAE@XZ				; CList<int,int>::~CList<int,int>
PUBLIC	?Serialize@?$CList@HH@@UAEXAAVCArchive@@@Z	; CList<int,int>::Serialize
PUBLIC	??_G?$CList@HH@@UAEPAXI@Z			; CList<int,int>::`scalar deleting destructor'
PUBLIC	??$SerializeElements@N@@YGXAAVCArchive@@PANH@Z	; SerializeElements<double>
PUBLIC	??$SerializeElements@H@@YGXAAVCArchive@@PAHH@Z	; SerializeElements<int>
PUBLIC	??_R0?AVCObject@@@8				; CObject `RTTI Type Descriptor'
PUBLIC	??_R3CObject@@8					; CObject::`RTTI Class Hierarchy Descriptor'
PUBLIC	??_R2CObject@@8					; CObject::`RTTI Base Class Array'
PUBLIC	??_R1A@?0A@EA@CObject@@8			; CObject::`RTTI Base Class Descriptor at (0,-1,0,64)'
PUBLIC	??_7?$CList@NN@@6B@				; CList<double,double>::`vftable'
PUBLIC	??_7?$CList@HH@@6B@				; CList<int,int>::`vftable'
PUBLIC	??_C@_02PCIJFNDE@?$AN?6@			; `string'
PUBLIC	??_C@_04LEIGMNPF@row?$DL@			; `string'
PUBLIC	??_C@_07EAPEDNJA@column?$DL@			; `string'
PUBLIC	??_R4?$CList@NN@@6B@				; CList<double,double>::`RTTI Complete Object Locator'
PUBLIC	??_R0?AV?$CList@NN@@@8				; CList<double,double> `RTTI Type Descriptor'
PUBLIC	??_R3?$CList@NN@@8				; CList<double,double>::`RTTI Class Hierarchy Descriptor'
PUBLIC	??_R2?$CList@NN@@8				; CList<double,double>::`RTTI Base Class Array'
PUBLIC	??_R1A@?0A@EA@?$CList@NN@@8			; CList<double,double>::`RTTI Base Class Descriptor at (0,-1,0,64)'
PUBLIC	??_R4?$CList@HH@@6B@				; CList<int,int>::`RTTI Complete Object Locator'
PUBLIC	??_R0?AV?$CList@HH@@@8				; CList<int,int> `RTTI Type Descriptor'
PUBLIC	??_R3?$CList@HH@@8				; CList<int,int>::`RTTI Class Hierarchy Descriptor'
PUBLIC	??_R2?$CList@HH@@8				; CList<int,int>::`RTTI Base Class Array'
PUBLIC	??_R1A@?0A@EA@?$CList@HH@@8			; CList<int,int>::`RTTI Base Class Descriptor at (0,-1,0,64)'
EXTRN	??3@YAXPAX@Z:PROC				; operator delete
EXTRN	?__global_delete@@YAXPAXI@Z:PROC		; __global_delete
EXTRN	___std_terminate:PROC
EXTRN	__imp__EqualRect@8:PROC
EXTRN	__imp__PtInRect@12:PROC
EXTRN	?AfxThrowInvalidArgException@@YGXXZ:PROC	; AfxThrowInvalidArgException
EXTRN	?AfxThrowArchiveException@@YGXHPBD@Z:PROC	; AfxThrowArchiveException
EXTRN	?GetRuntimeClass@CObject@@UBEPAUCRuntimeClass@@XZ:PROC ; CObject::GetRuntimeClass
EXTRN	__imp_?Concatenate@?$CSimpleStringT@D$00@ATL@@KAXAAV12@PBDH1H@Z:PROC
EXTRN	__imp_??0?$CStringT@DV?$StrTraitMFC_DLL@DV?$ChTraitsCRT@D@ATL@@@@@ATL@@QAE@PAUIAtlStringMgr@1@@Z:PROC
EXTRN	__imp_??0?$CStringT@DV?$StrTraitMFC_DLL@DV?$ChTraitsCRT@D@ATL@@@@@ATL@@QAE@PBD@Z:PROC
EXTRN	__imp_??1?$CStringT@DV?$StrTraitMFC_DLL@DV?$ChTraitsCRT@D@ATL@@@@@ATL@@QAE@XZ:PROC
EXTRN	__imp_?GetManager@?$CStringT@DV?$StrTraitMFC_DLL@DV?$ChTraitsCRT@D@ATL@@@@@ATL@@QBEPAUIAtlStringMgr@2@XZ:PROC
EXTRN	?Read@CArchive@@QAEIPAXI@Z:PROC			; CArchive::Read
EXTRN	?Write@CArchive@@QAEXPBXI@Z:PROC		; CArchive::Write
EXTRN	?ReadCount@CArchive@@QAEKXZ:PROC		; CArchive::ReadCount
EXTRN	?WriteCount@CArchive@@QAEXK@Z:PROC		; CArchive::WriteCount
EXTRN	?Create@CPlex@@SGPAU1@AAPAU1@II@Z:PROC		; CPlex::Create
EXTRN	?FreeDataChain@CPlex@@QAEXXZ:PROC		; CPlex::FreeDataChain
EXTRN	??_E?$CList@NN@@UAEPAXI@Z:PROC			; CList<double,double>::`vector deleting destructor'
EXTRN	?GetMidToTrimDataIndex@CDataConversion@@SA?AV?$CStringT@DV?$StrTraitMFC_DLL@DV?$ChTraitsCRT@D@ATL@@@@@ATL@@ABV23@00H_N@Z:PROC ; CDataConversion::GetMidToTrimDataIndex
EXTRN	?IsBiggerThanMinMainRegion@CBlocksPositionCalculator@@SA_NHHHH@Z:PROC ; CBlocksPositionCalculator::IsBiggerThanMinMainRegion
EXTRN	?IsRectInRect@CBlocksPositionCalculator@@SA_NABVCRect@@0@Z:PROC ; CBlocksPositionCalculator::IsRectInRect
EXTRN	?Add_EqualityPartition@CBlocksPositionCalculator@@SAXAAV?$CList@NN@@HHHH@Z:PROC ; CBlocksPositionCalculator::Add_EqualityPartition
EXTRN	?Add_DoubleSize@CBlocksPositionCalculator@@SAXAAV?$CList@NN@@HHHHH@Z:PROC ; CBlocksPositionCalculator::Add_DoubleSize
EXTRN	?SetBlocksPosition@CBlocksPositionCalculator@@SAXAAV?$CList@NN@@HABV?$CStringT@DV?$StrTraitMFC_DLL@DV?$ChTraitsCRT@D@ATL@@@@@ATL@@@Z:PROC ; CBlocksPositionCalculator::SetBlocksPosition
EXTRN	?GetSavedPosition@CBlocksPositionCalculator@@SA?AV?$CStringT@DV?$StrTraitMFC_DLL@DV?$ChTraitsCRT@D@ATL@@@@@ATL@@ABV?$CList@NN@@ABV23@@Z:PROC ; CBlocksPositionCalculator::GetSavedPosition
EXTRN	?GetBlockRegion@CBlocksPositionCalculator@@SAXHHHABV?$CList@NN@@HAAN1@Z:PROC ; CBlocksPositionCalculator::GetBlockRegion
EXTRN	?GetAbsolutePoint@CBlocksPositionCalculator@@SA?AVCPoint@@ABV2@ABV?$CList@NN@@1HH@Z:PROC ; CBlocksPositionCalculator::GetAbsolutePoint
EXTRN	?FindCompartLine@CBlocksPositionCalculator@@SA_NABVCPoint@@ABV?$CList@NN@@10AAH2@Z:PROC ; CBlocksPositionCalculator::FindCompartLine
EXTRN	?MoveBlocksPosition@CBlocksPositionCalculator@@SA_NAAV?$CList@NN@@0ABVCPoint@@HH@Z:PROC ; CBlocksPositionCalculator::MoveBlocksPosition
EXTRN	?MoveBlockPosition@CBlocksPositionCalculator@@SA_NAAV?$CList@NN@@HH@Z:PROC ; CBlocksPositionCalculator::MoveBlockPosition
EXTRN	?RecalculatePositions@CBlocksPositionCalculator@@SAXAAV?$CList@NN@@HH@Z:PROC ; CBlocksPositionCalculator::RecalculatePositions
EXTRN	__imp_?SetHorzScalePosition@CHorizontalScale@@IAEXW4HORZSCALEPOSITION@CScaleBaseData@@@Z:PROC
EXTRN	?GetSumOfHorzScaleHeightForEachBlock@CMainBlockImp@@QAEXAAV?$CList@HH@@@Z:PROC ; CMainBlockImp::GetSumOfHorzScaleHeightForEachBlock
EXTRN	__imp_??0CGraphFrameDrawer@@QAE@XZ:PROC
EXTRN	__imp_??1CGraphFrameDrawer@@UAE@XZ:PROC
EXTRN	__imp_?DrawBlockCompartLine@CGraphFrameDrawer@@QAEXPAVCDC@@ABVCPoint@@1ABK@Z:PROC
EXTRN	??_E?$CList@HH@@UAEPAXI@Z:PROC			; CList<int,int>::`vector deleting destructor'
EXTRN	@__security_check_cookie@4:PROC
EXTRN	___CxxFrameHandler3:PROC
EXTRN	??_7type_info@@6B@:QWORD			; type_info::`vftable'
EXTRN	___security_cookie:DWORD
EXTRN	__fltused:DWORD
;	COMDAT ??_R1A@?0A@EA@?$CList@HH@@8
rdata$r	SEGMENT
??_R1A@?0A@EA@?$CList@HH@@8 DD FLAT:??_R0?AV?$CList@HH@@@8 ; CList<int,int>::`RTTI Base Class Descriptor at (0,-1,0,64)'
	DD	01H
	DD	00H
	DD	0ffffffffH
	DD	00H
	DD	040H
	DD	FLAT:??_R3?$CList@HH@@8
rdata$r	ENDS
;	COMDAT ??_R2?$CList@HH@@8
rdata$r	SEGMENT
??_R2?$CList@HH@@8 DD FLAT:??_R1A@?0A@EA@?$CList@HH@@8	; CList<int,int>::`RTTI Base Class Array'
	DD	FLAT:??_R1A@?0A@EA@CObject@@8
rdata$r	ENDS
;	COMDAT ??_R3?$CList@HH@@8
rdata$r	SEGMENT
??_R3?$CList@HH@@8 DD 00H				; CList<int,int>::`RTTI Class Hierarchy Descriptor'
	DD	00H
	DD	02H
	DD	FLAT:??_R2?$CList@HH@@8
rdata$r	ENDS
;	COMDAT ??_R0?AV?$CList@HH@@@8
data$rs	SEGMENT
??_R0?AV?$CList@HH@@@8 DD FLAT:??_7type_info@@6B@	; CList<int,int> `RTTI Type Descriptor'
	DD	00H
	DB	'.?AV?$CList@HH@@', 00H
data$rs	ENDS
;	COMDAT ??_R4?$CList@HH@@6B@
rdata$r	SEGMENT
??_R4?$CList@HH@@6B@ DD 00H				; CList<int,int>::`RTTI Complete Object Locator'
	DD	00H
	DD	00H
	DD	FLAT:??_R0?AV?$CList@HH@@@8
	DD	FLAT:??_R3?$CList@HH@@8
rdata$r	ENDS
;	COMDAT ??_R1A@?0A@EA@?$CList@NN@@8
rdata$r	SEGMENT
??_R1A@?0A@EA@?$CList@NN@@8 DD FLAT:??_R0?AV?$CList@NN@@@8 ; CList<double,double>::`RTTI Base Class Descriptor at (0,-1,0,64)'
	DD	01H
	DD	00H
	DD	0ffffffffH
	DD	00H
	DD	040H
	DD	FLAT:??_R3?$CList@NN@@8
rdata$r	ENDS
;	COMDAT ??_R2?$CList@NN@@8
rdata$r	SEGMENT
??_R2?$CList@NN@@8 DD FLAT:??_R1A@?0A@EA@?$CList@NN@@8	; CList<double,double>::`RTTI Base Class Array'
	DD	FLAT:??_R1A@?0A@EA@CObject@@8
rdata$r	ENDS
;	COMDAT ??_R3?$CList@NN@@8
rdata$r	SEGMENT
??_R3?$CList@NN@@8 DD 00H				; CList<double,double>::`RTTI Class Hierarchy Descriptor'
	DD	00H
	DD	02H
	DD	FLAT:??_R2?$CList@NN@@8
rdata$r	ENDS
;	COMDAT ??_R0?AV?$CList@NN@@@8
data$rs	SEGMENT
??_R0?AV?$CList@NN@@@8 DD FLAT:??_7type_info@@6B@	; CList<double,double> `RTTI Type Descriptor'
	DD	00H
	DB	'.?AV?$CList@NN@@', 00H
data$rs	ENDS
;	COMDAT ??_R4?$CList@NN@@6B@
rdata$r	SEGMENT
??_R4?$CList@NN@@6B@ DD 00H				; CList<double,double>::`RTTI Complete Object Locator'
	DD	00H
	DD	00H
	DD	FLAT:??_R0?AV?$CList@NN@@@8
	DD	FLAT:??_R3?$CList@NN@@8
rdata$r	ENDS
;	COMDAT ??_C@_07EAPEDNJA@column?$DL@
CONST	SEGMENT
??_C@_07EAPEDNJA@column?$DL@ DB 'column;', 00H		; `string'
CONST	ENDS
;	COMDAT ??_C@_04LEIGMNPF@row?$DL@
CONST	SEGMENT
??_C@_04LEIGMNPF@row?$DL@ DB 'row;', 00H		; `string'
CONST	ENDS
;	COMDAT ??_C@_02PCIJFNDE@?$AN?6@
CONST	SEGMENT
??_C@_02PCIJFNDE@?$AN?6@ DB 0dH, 0aH, 00H		; `string'
CONST	ENDS
;	COMDAT ??_7?$CList@HH@@6B@
CONST	SEGMENT
??_7?$CList@HH@@6B@ DD FLAT:??_R4?$CList@HH@@6B@	; CList<int,int>::`vftable'
	DD	FLAT:?GetRuntimeClass@CObject@@UBEPAUCRuntimeClass@@XZ
	DD	FLAT:??_E?$CList@HH@@UAEPAXI@Z
	DD	FLAT:?Serialize@?$CList@HH@@UAEXAAVCArchive@@@Z
	DD	FLAT:?AssertValid@CObject@@UBEXXZ
	DD	FLAT:?Dump@CObject@@UBEXAAVCDumpContext@@@Z
CONST	ENDS
;	COMDAT ??_7?$CList@NN@@6B@
CONST	SEGMENT
??_7?$CList@NN@@6B@ DD FLAT:??_R4?$CList@NN@@6B@	; CList<double,double>::`vftable'
	DD	FLAT:?GetRuntimeClass@CObject@@UBEPAUCRuntimeClass@@XZ
	DD	FLAT:??_E?$CList@NN@@UAEPAXI@Z
	DD	FLAT:?Serialize@?$CList@NN@@UAEXAAVCArchive@@@Z
	DD	FLAT:?AssertValid@CObject@@UBEXXZ
	DD	FLAT:?Dump@CObject@@UBEXAAVCDumpContext@@@Z
CONST	ENDS
;	COMDAT ??_R1A@?0A@EA@CObject@@8
rdata$r	SEGMENT
??_R1A@?0A@EA@CObject@@8 DD FLAT:??_R0?AVCObject@@@8	; CObject::`RTTI Base Class Descriptor at (0,-1,0,64)'
	DD	00H
	DD	00H
	DD	0ffffffffH
	DD	00H
	DD	040H
	DD	FLAT:??_R3CObject@@8
rdata$r	ENDS
;	COMDAT ??_R2CObject@@8
rdata$r	SEGMENT
??_R2CObject@@8 DD FLAT:??_R1A@?0A@EA@CObject@@8	; CObject::`RTTI Base Class Array'
rdata$r	ENDS
;	COMDAT ??_R3CObject@@8
rdata$r	SEGMENT
??_R3CObject@@8 DD 00H					; CObject::`RTTI Class Hierarchy Descriptor'
	DD	00H
	DD	01H
	DD	FLAT:??_R2CObject@@8
rdata$r	ENDS
;	COMDAT ??_R0?AVCObject@@@8
data$rs	SEGMENT
??_R0?AVCObject@@@8 DD FLAT:??_7type_info@@6B@		; CObject `RTTI Type Descriptor'
	DD	00H
	DB	'.?AVCObject@@', 00H
data$rs	ENDS
;	COMDAT xdata$x
xdata$x	SEGMENT
__unwindtable$??_G?$CList@HH@@UAEPAXI@Z DD 0ffffffffH
	DD	FLAT:___std_terminate
__ehfuncinfo$??_G?$CList@HH@@UAEPAXI@Z DD 019930522H
	DD	01H
	DD	FLAT:__unwindtable$??_G?$CList@HH@@UAEPAXI@Z
	DD	2 DUP(00H)
	DD	2 DUP(00H)
	DD	00H
	DD	05H
xdata$x	ENDS
;	COMDAT xdata$x
xdata$x	SEGMENT
__ehfuncinfo$??1?$CList@HH@@UAE@XZ DD 019930522H
	DD	00H
	DD	00H
	DD	2 DUP(00H)
	DD	2 DUP(00H)
	DD	00H
	DD	05H
xdata$x	ENDS
;	COMDAT xdata$x
xdata$x	SEGMENT
__unwindtable$?DrawColumnCompartLine@CBlocksPosition@@AAEXPAVCDC@@ABK@Z DD 0ffffffffH
	DD	FLAT:__unwindfunclet$?DrawColumnCompartLine@CBlocksPosition@@AAEXPAVCDC@@ABK@Z$0
__ehfuncinfo$?DrawColumnCompartLine@CBlocksPosition@@AAEXPAVCDC@@ABK@Z DD 019930522H
	DD	01H
	DD	FLAT:__unwindtable$?DrawColumnCompartLine@CBlocksPosition@@AAEXPAVCDC@@ABK@Z
	DD	2 DUP(00H)
	DD	2 DUP(00H)
	DD	00H
	DD	01H
xdata$x	ENDS
;	COMDAT xdata$x
xdata$x	SEGMENT
__unwindtable$?DrawRowCompartLine@CBlocksPosition@@AAEXPAVCDC@@ABK@Z DD 0ffffffffH
	DD	FLAT:__unwindfunclet$?DrawRowCompartLine@CBlocksPosition@@AAEXPAVCDC@@ABK@Z$0
__ehfuncinfo$?DrawRowCompartLine@CBlocksPosition@@AAEXPAVCDC@@ABK@Z DD 019930522H
	DD	01H
	DD	FLAT:__unwindtable$?DrawRowCompartLine@CBlocksPosition@@AAEXPAVCDC@@ABK@Z
	DD	2 DUP(00H)
	DD	2 DUP(00H)
	DD	00H
	DD	01H
xdata$x	ENDS
;	COMDAT xdata$x
xdata$x	SEGMENT
__unwindtable$?MoveBlocksPosition@CBlocksPosition@@QAE_NABVCPoint@@ABVCBlockIndex@@@Z DD 0ffffffffH
	DD	FLAT:__unwindfunclet$?MoveBlocksPosition@CBlocksPosition@@QAE_NABVCPoint@@ABVCBlockIndex@@@Z$0
	DD	0ffffffffH
	DD	FLAT:___std_terminate
__ehfuncinfo$?MoveBlocksPosition@CBlocksPosition@@QAE_NABVCPoint@@ABVCBlockIndex@@@Z DD 019930522H
	DD	02H
	DD	FLAT:__unwindtable$?MoveBlocksPosition@CBlocksPosition@@QAE_NABVCPoint@@ABVCBlockIndex@@@Z
	DD	2 DUP(00H)
	DD	2 DUP(00H)
	DD	00H
	DD	01H
xdata$x	ENDS
;	COMDAT xdata$x
xdata$x	SEGMENT
__unwindtable$?DrawBlockCompartLine@CBlocksPosition@@QAEXPAVCDC@@ABK@Z DD 0ffffffffH
	DD	FLAT:__unwindfunclet$?DrawBlockCompartLine@CBlocksPosition@@QAEXPAVCDC@@ABK@Z$0
	DD	0ffffffffH
	DD	FLAT:__unwindfunclet$?DrawBlockCompartLine@CBlocksPosition@@QAEXPAVCDC@@ABK@Z$1
__ehfuncinfo$?DrawBlockCompartLine@CBlocksPosition@@QAEXPAVCDC@@ABK@Z DD 019930522H
	DD	02H
	DD	FLAT:__unwindtable$?DrawBlockCompartLine@CBlocksPosition@@QAEXPAVCDC@@ABK@Z
	DD	2 DUP(00H)
	DD	2 DUP(00H)
	DD	00H
	DD	01H
xdata$x	ENDS
;	COMDAT xdata$x
xdata$x	SEGMENT
__ehfuncinfo$?GetBlocksPosition@CBlocksPosition@@QBE?AV?$CStringT@DV?$StrTraitMFC_DLL@DV?$ChTraitsCRT@D@ATL@@@@@ATL@@XZ DD 019930522H
	DD	07H
	DD	FLAT:__unwindtable$?GetBlocksPosition@CBlocksPosition@@QBE?AV?$CStringT@DV?$StrTraitMFC_DLL@DV?$ChTraitsCRT@D@ATL@@@@@ATL@@XZ
	DD	2 DUP(00H)
	DD	2 DUP(00H)
	DD	00H
	DD	01H
__unwindtable$?GetBlocksPosition@CBlocksPosition@@QBE?AV?$CStringT@DV?$StrTraitMFC_DLL@DV?$ChTraitsCRT@D@ATL@@@@@ATL@@XZ DD 0ffffffffH
	DD	FLAT:__unwindfunclet$?GetBlocksPosition@CBlocksPosition@@QBE?AV?$CStringT@DV?$StrTraitMFC_DLL@DV?$ChTraitsCRT@D@ATL@@@@@ATL@@XZ$0
	DD	00H
	DD	FLAT:__unwindfunclet$?GetBlocksPosition@CBlocksPosition@@QBE?AV?$CStringT@DV?$StrTraitMFC_DLL@DV?$ChTraitsCRT@D@ATL@@@@@ATL@@XZ$1
	DD	0ffffffffH
	DD	FLAT:__unwindfunclet$?GetBlocksPosition@CBlocksPosition@@QBE?AV?$CStringT@DV?$StrTraitMFC_DLL@DV?$ChTraitsCRT@D@ATL@@@@@ATL@@XZ$1
	DD	02H
	DD	FLAT:__unwindfunclet$?GetBlocksPosition@CBlocksPosition@@QBE?AV?$CStringT@DV?$StrTraitMFC_DLL@DV?$ChTraitsCRT@D@ATL@@@@@ATL@@XZ$2
	DD	03H
	DD	FLAT:__unwindfunclet$?GetBlocksPosition@CBlocksPosition@@QBE?AV?$CStringT@DV?$StrTraitMFC_DLL@DV?$ChTraitsCRT@D@ATL@@@@@ATL@@XZ$3
	DD	02H
	DD	FLAT:__unwindfunclet$?GetBlocksPosition@CBlocksPosition@@QBE?AV?$CStringT@DV?$StrTraitMFC_DLL@DV?$ChTraitsCRT@D@ATL@@@@@ATL@@XZ$3
	DD	05H
	DD	FLAT:__unwindfunclet$?GetBlocksPosition@CBlocksPosition@@QBE?AV?$CStringT@DV?$StrTraitMFC_DLL@DV?$ChTraitsCRT@D@ATL@@@@@ATL@@XZ$5
xdata$x	ENDS
;	COMDAT xdata$x
xdata$x	SEGMENT
__ehfuncinfo$?SetBlocksPosition@CBlocksPosition@@QAEXABV?$CStringT@DV?$StrTraitMFC_DLL@DV?$ChTraitsCRT@D@ATL@@@@@ATL@@@Z DD 019930522H
	DD	06H
	DD	FLAT:__unwindtable$?SetBlocksPosition@CBlocksPosition@@QAEXABV?$CStringT@DV?$StrTraitMFC_DLL@DV?$ChTraitsCRT@D@ATL@@@@@ATL@@@Z
	DD	2 DUP(00H)
	DD	2 DUP(00H)
	DD	00H
	DD	01H
__unwindtable$?SetBlocksPosition@CBlocksPosition@@QAEXABV?$CStringT@DV?$StrTraitMFC_DLL@DV?$ChTraitsCRT@D@ATL@@@@@ATL@@@Z DD 0ffffffffH
	DD	FLAT:__unwindfunclet$?SetBlocksPosition@CBlocksPosition@@QAEXABV?$CStringT@DV?$StrTraitMFC_DLL@DV?$ChTraitsCRT@D@ATL@@@@@ATL@@@Z$0
	DD	00H
	DD	FLAT:__unwindfunclet$?SetBlocksPosition@CBlocksPosition@@QAEXABV?$CStringT@DV?$StrTraitMFC_DLL@DV?$ChTraitsCRT@D@ATL@@@@@ATL@@@Z$1
	DD	01H
	DD	FLAT:__unwindfunclet$?SetBlocksPosition@CBlocksPosition@@QAEXABV?$CStringT@DV?$StrTraitMFC_DLL@DV?$ChTraitsCRT@D@ATL@@@@@ATL@@@Z$2
	DD	0ffffffffH
	DD	FLAT:__unwindfunclet$?SetBlocksPosition@CBlocksPosition@@QAEXABV?$CStringT@DV?$StrTraitMFC_DLL@DV?$ChTraitsCRT@D@ATL@@@@@ATL@@@Z$3
	DD	03H
	DD	FLAT:__unwindfunclet$?SetBlocksPosition@CBlocksPosition@@QAEXABV?$CStringT@DV?$StrTraitMFC_DLL@DV?$ChTraitsCRT@D@ATL@@@@@ATL@@@Z$4
	DD	04H
	DD	FLAT:__unwindfunclet$?SetBlocksPosition@CBlocksPosition@@QAEXABV?$CStringT@DV?$StrTraitMFC_DLL@DV?$ChTraitsCRT@D@ATL@@@@@ATL@@@Z$5
xdata$x	ENDS
;	COMDAT xdata$x
xdata$x	SEGMENT
__ehfuncinfo$??1CBlocksPosition@@QAE@XZ DD 019930522H
	DD	00H
	DD	00H
	DD	2 DUP(00H)
	DD	2 DUP(00H)
	DD	00H
	DD	05H
xdata$x	ENDS
;	COMDAT xdata$x
xdata$x	SEGMENT
__unwindtable$?MoveBlocksPosition@CBlocksPositionBase@@IAE_NAAV?$CList@NN@@ABVCPoint@@HH@Z DD 0ffffffffH
	DD	FLAT:__unwindfunclet$?MoveBlocksPosition@CBlocksPositionBase@@IAE_NAAV?$CList@NN@@ABVCPoint@@HH@Z$0
	DD	0ffffffffH
	DD	FLAT:___std_terminate
__ehfuncinfo$?MoveBlocksPosition@CBlocksPositionBase@@IAE_NAAV?$CList@NN@@ABVCPoint@@HH@Z DD 019930522H
	DD	02H
	DD	FLAT:__unwindtable$?MoveBlocksPosition@CBlocksPositionBase@@IAE_NAAV?$CList@NN@@ABVCPoint@@HH@Z
	DD	2 DUP(00H)
	DD	2 DUP(00H)
	DD	00H
	DD	01H
xdata$x	ENDS
;	COMDAT xdata$x
xdata$x	SEGMENT
__unwindtable$?UpdateRowRealFromRowRate@CBlocksPositionBase@@IAEXXZ DD 0ffffffffH
	DD	FLAT:__unwindfunclet$?UpdateRowRealFromRowRate@CBlocksPositionBase@@IAEXXZ$0
	DD	0ffffffffH
	DD	FLAT:___std_terminate
__ehfuncinfo$?UpdateRowRealFromRowRate@CBlocksPositionBase@@IAEXXZ DD 019930522H
	DD	02H
	DD	FLAT:__unwindtable$?UpdateRowRealFromRowRate@CBlocksPositionBase@@IAEXXZ
	DD	2 DUP(00H)
	DD	2 DUP(00H)
	DD	00H
	DD	01H
xdata$x	ENDS
;	COMDAT xdata$x
xdata$x	SEGMENT
__unwindtable$??_G?$CList@NN@@UAEPAXI@Z DD 0ffffffffH
	DD	FLAT:___std_terminate
__ehfuncinfo$??_G?$CList@NN@@UAEPAXI@Z DD 019930522H
	DD	01H
	DD	FLAT:__unwindtable$??_G?$CList@NN@@UAEPAXI@Z
	DD	2 DUP(00H)
	DD	2 DUP(00H)
	DD	00H
	DD	05H
xdata$x	ENDS
;	COMDAT xdata$x
xdata$x	SEGMENT
__ehfuncinfo$??1?$CList@NN@@UAE@XZ DD 019930522H
	DD	00H
	DD	00H
	DD	2 DUP(00H)
	DD	2 DUP(00H)
	DD	00H
	DD	05H
xdata$x	ENDS
;	COMDAT xdata$x
xdata$x	SEGMENT
__unwindtable$??1CBlocksPositionBase@@IAE@XZ DD 0ffffffffH
	DD	FLAT:___std_terminate
	DD	0ffffffffH
	DD	FLAT:___std_terminate
	DD	0ffffffffH
	DD	FLAT:___std_terminate
__ehfuncinfo$??1CBlocksPositionBase@@IAE@XZ DD 019930522H
	DD	03H
	DD	FLAT:__unwindtable$??1CBlocksPositionBase@@IAE@XZ
	DD	2 DUP(00H)
	DD	2 DUP(00H)
	DD	00H
	DD	05H
xdata$x	ENDS
;	COMDAT xdata$x
xdata$x	SEGMENT
__unwindtable$??HATL@@YA?AV?$CStringT@DV?$StrTraitMFC_DLL@DV?$ChTraitsCRT@D@ATL@@@@@0@ABV10@0@Z DD 0ffffffffH
	DD	FLAT:__unwindfunclet$??HATL@@YA?AV?$CStringT@DV?$StrTraitMFC_DLL@DV?$ChTraitsCRT@D@ATL@@@@@0@ABV10@0@Z$0
__ehfuncinfo$??HATL@@YA?AV?$CStringT@DV?$StrTraitMFC_DLL@DV?$ChTraitsCRT@D@ATL@@@@@0@ABV10@0@Z DD 019930522H
	DD	01H
	DD	FLAT:__unwindtable$??HATL@@YA?AV?$CStringT@DV?$StrTraitMFC_DLL@DV?$ChTraitsCRT@D@ATL@@@@@0@ABV10@0@Z
	DD	2 DUP(00H)
	DD	2 DUP(00H)
	DD	00H
	DD	01H
xdata$x	ENDS
; Function compile flags: /Ogtp
; File C:\Program Files (x86)\Microsoft Visual Studio\2019\Community\VC\Tools\MSVC\14.29.30133\atlmfc\include\afxtempl.h
; File C:\Program Files (x86)\Microsoft Visual Studio\2019\Community\VC\Tools\MSVC\14.29.30133\atlmfc\include\afx.inl
; File C:\Program Files (x86)\Microsoft Visual Studio\2019\Community\VC\Tools\MSVC\14.29.30133\atlmfc\include\afxtempl.h
; File C:\Program Files (x86)\Microsoft Visual Studio\2019\Community\VC\Tools\MSVC\14.29.30133\atlmfc\include\afx.inl
; File C:\Program Files (x86)\Microsoft Visual Studio\2019\Community\VC\Tools\MSVC\14.29.30133\atlmfc\include\afxtempl.h
; File C:\Program Files (x86)\Microsoft Visual Studio\2019\Community\VC\Tools\MSVC\14.29.30133\atlmfc\include\afx.inl
; File C:\Program Files (x86)\Microsoft Visual Studio\2019\Community\VC\Tools\MSVC\14.29.30133\atlmfc\include\afxtempl.h
;	COMDAT ??$SerializeElements@H@@YGXAAVCArchive@@PAHH@Z
_TEXT	SEGMENT
_ar$ = 8						; size = 4
_pElements$ = 12					; size = 4
_nCount$ = 16						; size = 4
??$SerializeElements@H@@YGXAAVCArchive@@PAHH@Z PROC	; SerializeElements<int>, COMDAT

; 67   : {

  00000	55		 push	 ebp
  00001	8b ec		 mov	 ebp, esp

; 68   : 	ENSURE(nCount == 0 || pElements != NULL);

  00003	8b 4d 0c	 mov	 ecx, DWORD PTR _pElements$[ebp]
  00006	53		 push	 ebx
  00007	56		 push	 esi
  00008	8b 75 10	 mov	 esi, DWORD PTR _nCount$[ebp]
  0000b	57		 push	 edi
  0000c	85 f6		 test	 esi, esi
  0000e	74 08		 je	 SHORT $LN2@SerializeE
  00010	85 c9		 test	 ecx, ecx
  00012	0f 84 89 00 00
	00		 je	 $LN34@SerializeE
$LN2@SerializeE:
; File C:\Program Files (x86)\Microsoft Visual Studio\2019\Community\VC\Tools\MSVC\14.29.30133\atlmfc\include\afx.inl

; 212  : 	{ return (m_nMode & CArchive::load) == 0; }

  00018	8b 55 08	 mov	 edx, DWORD PTR _ar$[ebp]
  0001b	8b 42 18	 mov	 eax, DWORD PTR [edx+24]
  0001e	f7 d0		 not	 eax
  00020	a8 01		 test	 al, 1
; File C:\Program Files (x86)\Microsoft Visual Studio\2019\Community\VC\Tools\MSVC\14.29.30133\atlmfc\include\afxtempl.h

; 73   : 	if (ar.IsStoring())

  00022	74 3c		 je	 SHORT $LN10@SerializeE

; 74   : 	{
; 75   : 		TYPE* pData;
; 76   : 		UINT_PTR nElementsLeft;
; 77   : 
; 78   : 		nElementsLeft = nCount;
; 79   : 		pData = pElements;
; 80   : 		while( nElementsLeft > 0 )

  00024	85 f6		 test	 esi, esi
  00026	74 31		 je	 SHORT $LN8@SerializeE
  00028	0f 1f 84 00 00
	00 00 00	 npad	 8
$LL5@SerializeE:

; 81   : 		{
; 82   : 			UINT nElementsToWrite;
; 83   : 
; 84   : 			nElementsToWrite = UINT(__min(nElementsLeft, INT_MAX/sizeof(TYPE)));

  00030	bb ff ff ff 1f	 mov	 ebx, 536870911		; 1fffffffH
  00035	3b f3		 cmp	 esi, ebx
  00037	0f 42 de	 cmovb	 ebx, esi

; 85   : 			ar.Write(pData, nElementsToWrite*sizeof(TYPE));

  0003a	8d 3c 9d 00 00
	00 00		 lea	 edi, DWORD PTR [ebx*4]
  00041	57		 push	 edi
  00042	51		 push	 ecx
  00043	8b ca		 mov	 ecx, edx
  00045	e8 00 00 00 00	 call	 ?Write@CArchive@@QAEXPBXI@Z ; CArchive::Write

; 86   : 			nElementsLeft -= nElementsToWrite;
; 87   : 			pData += nElementsToWrite;

  0004a	8b 4d 0c	 mov	 ecx, DWORD PTR _pElements$[ebp]
  0004d	8b 55 08	 mov	 edx, DWORD PTR _ar$[ebp]
  00050	03 cf		 add	 ecx, edi
  00052	89 4d 0c	 mov	 DWORD PTR _pElements$[ebp], ecx
  00055	2b f3		 sub	 esi, ebx
  00057	75 d7		 jne	 SHORT $LL5@SerializeE
$LN8@SerializeE:
  00059	5f		 pop	 edi

; 105  : 		}
; 106  : 	}
; 107  : }

  0005a	5e		 pop	 esi
  0005b	5b		 pop	 ebx
  0005c	5d		 pop	 ebp
  0005d	c2 0c 00	 ret	 12			; 0000000cH
$LN10@SerializeE:

; 97   : 		while( nElementsLeft > 0 )

  00060	85 f6		 test	 esi, esi
  00062	74 f5		 je	 SHORT $LN8@SerializeE
$LL7@SerializeE:

; 98   : 		{
; 99   : 			UINT nElementsToRead;
; 100  : 
; 101  : 			nElementsToRead = UINT(__min(nElementsLeft, INT_MAX/sizeof(TYPE)));

  00064	bf ff ff ff 1f	 mov	 edi, 536870911		; 1fffffffH
  00069	3b f7		 cmp	 esi, edi
  0006b	0f 42 fe	 cmovb	 edi, esi

; 102  : 			ar.EnsureRead(pData, nElementsToRead*sizeof(TYPE));

  0006e	8d 1c bd 00 00
	00 00		 lea	 ebx, DWORD PTR [edi*4]
; File C:\Program Files (x86)\Microsoft Visual Studio\2019\Community\VC\Tools\MSVC\14.29.30133\atlmfc\include\afx.inl

; 399  : 	UINT nRead=Read(lpBuf, nCount);

  00075	53		 push	 ebx
  00076	51		 push	 ecx
  00077	8b ca		 mov	 ecx, edx
  00079	e8 00 00 00 00	 call	 ?Read@CArchive@@QAEIPAXI@Z ; CArchive::Read

; 400  : 	if(nRead!=nCount)

  0007e	3b c3		 cmp	 eax, ebx
  00080	75 16		 jne	 SHORT $LN23@SerializeE
; File C:\Program Files (x86)\Microsoft Visual Studio\2019\Community\VC\Tools\MSVC\14.29.30133\atlmfc\include\afxtempl.h

; 97   : 		while( nElementsLeft > 0 )

  00082	8b 4d 0c	 mov	 ecx, DWORD PTR _pElements$[ebp]
  00085	8b 55 08	 mov	 edx, DWORD PTR _ar$[ebp]

; 103  : 			nElementsLeft -= nElementsToRead;
; 104  : 			pData += nElementsToRead;

  00088	03 cb		 add	 ecx, ebx
  0008a	89 4d 0c	 mov	 DWORD PTR _pElements$[ebp], ecx
  0008d	2b f7		 sub	 esi, edi
  0008f	75 d3		 jne	 SHORT $LL7@SerializeE

; 105  : 		}
; 106  : 	}
; 107  : }

  00091	5f		 pop	 edi
  00092	5e		 pop	 esi
  00093	5b		 pop	 ebx
  00094	5d		 pop	 ebp
  00095	c2 0c 00	 ret	 12			; 0000000cH
$LN23@SerializeE:
; File C:\Program Files (x86)\Microsoft Visual Studio\2019\Community\VC\Tools\MSVC\14.29.30133\atlmfc\include\afx.inl

; 402  : 		AfxThrowArchiveException(CArchiveException::endOfFile);

  00098	6a 00		 push	 0
  0009a	6a 03		 push	 3
  0009c	e8 00 00 00 00	 call	 ?AfxThrowArchiveException@@YGXHPBD@Z ; AfxThrowArchiveException
$LN34@SerializeE:
; File C:\Program Files (x86)\Microsoft Visual Studio\2019\Community\VC\Tools\MSVC\14.29.30133\atlmfc\include\afxtempl.h

; 68   : 	ENSURE(nCount == 0 || pElements != NULL);

  000a1	e8 00 00 00 00	 call	 ?AfxThrowInvalidArgException@@YGXXZ ; AfxThrowInvalidArgException
$LN32@SerializeE:
  000a6	cc		 int	 3
??$SerializeElements@H@@YGXAAVCArchive@@PAHH@Z ENDP	; SerializeElements<int>
_TEXT	ENDS
; Function compile flags: /Ogtp
; File C:\Program Files (x86)\Microsoft Visual Studio\2019\Community\VC\Tools\MSVC\14.29.30133\atlmfc\include\afxtempl.h
; File C:\Program Files (x86)\Microsoft Visual Studio\2019\Community\VC\Tools\MSVC\14.29.30133\atlmfc\include\afx.inl
; File C:\Program Files (x86)\Microsoft Visual Studio\2019\Community\VC\Tools\MSVC\14.29.30133\atlmfc\include\afxtempl.h
; File C:\Program Files (x86)\Microsoft Visual Studio\2019\Community\VC\Tools\MSVC\14.29.30133\atlmfc\include\afx.inl
; File C:\Program Files (x86)\Microsoft Visual Studio\2019\Community\VC\Tools\MSVC\14.29.30133\atlmfc\include\afxtempl.h
; File C:\Program Files (x86)\Microsoft Visual Studio\2019\Community\VC\Tools\MSVC\14.29.30133\atlmfc\include\afx.inl
; File C:\Program Files (x86)\Microsoft Visual Studio\2019\Community\VC\Tools\MSVC\14.29.30133\atlmfc\include\afxtempl.h
;	COMDAT ??$SerializeElements@N@@YGXAAVCArchive@@PANH@Z
_TEXT	SEGMENT
_ar$ = 8						; size = 4
_pElements$ = 12					; size = 4
_nCount$ = 16						; size = 4
??$SerializeElements@N@@YGXAAVCArchive@@PANH@Z PROC	; SerializeElements<double>, COMDAT

; 67   : {

  00000	55		 push	 ebp
  00001	8b ec		 mov	 ebp, esp

; 68   : 	ENSURE(nCount == 0 || pElements != NULL);

  00003	8b 4d 0c	 mov	 ecx, DWORD PTR _pElements$[ebp]
  00006	53		 push	 ebx
  00007	56		 push	 esi
  00008	8b 75 10	 mov	 esi, DWORD PTR _nCount$[ebp]
  0000b	57		 push	 edi
  0000c	85 f6		 test	 esi, esi
  0000e	74 08		 je	 SHORT $LN2@SerializeE
  00010	85 c9		 test	 ecx, ecx
  00012	0f 84 89 00 00
	00		 je	 $LN34@SerializeE
$LN2@SerializeE:
; File C:\Program Files (x86)\Microsoft Visual Studio\2019\Community\VC\Tools\MSVC\14.29.30133\atlmfc\include\afx.inl

; 212  : 	{ return (m_nMode & CArchive::load) == 0; }

  00018	8b 55 08	 mov	 edx, DWORD PTR _ar$[ebp]
  0001b	8b 42 18	 mov	 eax, DWORD PTR [edx+24]
  0001e	f7 d0		 not	 eax
  00020	a8 01		 test	 al, 1
; File C:\Program Files (x86)\Microsoft Visual Studio\2019\Community\VC\Tools\MSVC\14.29.30133\atlmfc\include\afxtempl.h

; 73   : 	if (ar.IsStoring())

  00022	74 3c		 je	 SHORT $LN10@SerializeE

; 74   : 	{
; 75   : 		TYPE* pData;
; 76   : 		UINT_PTR nElementsLeft;
; 77   : 
; 78   : 		nElementsLeft = nCount;
; 79   : 		pData = pElements;
; 80   : 		while( nElementsLeft > 0 )

  00024	85 f6		 test	 esi, esi
  00026	74 31		 je	 SHORT $LN8@SerializeE
  00028	0f 1f 84 00 00
	00 00 00	 npad	 8
$LL5@SerializeE:

; 81   : 		{
; 82   : 			UINT nElementsToWrite;
; 83   : 
; 84   : 			nElementsToWrite = UINT(__min(nElementsLeft, INT_MAX/sizeof(TYPE)));

  00030	bb ff ff ff 0f	 mov	 ebx, 268435455		; 0fffffffH
  00035	3b f3		 cmp	 esi, ebx
  00037	0f 42 de	 cmovb	 ebx, esi

; 85   : 			ar.Write(pData, nElementsToWrite*sizeof(TYPE));

  0003a	8d 3c dd 00 00
	00 00		 lea	 edi, DWORD PTR [ebx*8]
  00041	57		 push	 edi
  00042	51		 push	 ecx
  00043	8b ca		 mov	 ecx, edx
  00045	e8 00 00 00 00	 call	 ?Write@CArchive@@QAEXPBXI@Z ; CArchive::Write

; 86   : 			nElementsLeft -= nElementsToWrite;
; 87   : 			pData += nElementsToWrite;

  0004a	8b 4d 0c	 mov	 ecx, DWORD PTR _pElements$[ebp]
  0004d	8b 55 08	 mov	 edx, DWORD PTR _ar$[ebp]
  00050	03 cf		 add	 ecx, edi
  00052	89 4d 0c	 mov	 DWORD PTR _pElements$[ebp], ecx
  00055	2b f3		 sub	 esi, ebx
  00057	75 d7		 jne	 SHORT $LL5@SerializeE
$LN8@SerializeE:
  00059	5f		 pop	 edi

; 105  : 		}
; 106  : 	}
; 107  : }

  0005a	5e		 pop	 esi
  0005b	5b		 pop	 ebx
  0005c	5d		 pop	 ebp
  0005d	c2 0c 00	 ret	 12			; 0000000cH
$LN10@SerializeE:

; 97   : 		while( nElementsLeft > 0 )

  00060	85 f6		 test	 esi, esi
  00062	74 f5		 je	 SHORT $LN8@SerializeE
$LL7@SerializeE:

; 98   : 		{
; 99   : 			UINT nElementsToRead;
; 100  : 
; 101  : 			nElementsToRead = UINT(__min(nElementsLeft, INT_MAX/sizeof(TYPE)));

  00064	bf ff ff ff 0f	 mov	 edi, 268435455		; 0fffffffH
  00069	3b f7		 cmp	 esi, edi
  0006b	0f 42 fe	 cmovb	 edi, esi

; 102  : 			ar.EnsureRead(pData, nElementsToRead*sizeof(TYPE));

  0006e	8d 1c fd 00 00
	00 00		 lea	 ebx, DWORD PTR [edi*8]
; File C:\Program Files (x86)\Microsoft Visual Studio\2019\Community\VC\Tools\MSVC\14.29.30133\atlmfc\include\afx.inl

; 399  : 	UINT nRead=Read(lpBuf, nCount);

  00075	53		 push	 ebx
  00076	51		 push	 ecx
  00077	8b ca		 mov	 ecx, edx
  00079	e8 00 00 00 00	 call	 ?Read@CArchive@@QAEIPAXI@Z ; CArchive::Read

; 400  : 	if(nRead!=nCount)

  0007e	3b c3		 cmp	 eax, ebx
  00080	75 16		 jne	 SHORT $LN23@SerializeE
; File C:\Program Files (x86)\Microsoft Visual Studio\2019\Community\VC\Tools\MSVC\14.29.30133\atlmfc\include\afxtempl.h

; 97   : 		while( nElementsLeft > 0 )

  00082	8b 4d 0c	 mov	 ecx, DWORD PTR _pElements$[ebp]
  00085	8b 55 08	 mov	 edx, DWORD PTR _ar$[ebp]

; 103  : 			nElementsLeft -= nElementsToRead;
; 104  : 			pData += nElementsToRead;

  00088	03 cb		 add	 ecx, ebx
  0008a	89 4d 0c	 mov	 DWORD PTR _pElements$[ebp], ecx
  0008d	2b f7		 sub	 esi, edi
  0008f	75 d3		 jne	 SHORT $LL7@SerializeE

; 105  : 		}
; 106  : 	}
; 107  : }

  00091	5f		 pop	 edi
  00092	5e		 pop	 esi
  00093	5b		 pop	 ebx
  00094	5d		 pop	 ebp
  00095	c2 0c 00	 ret	 12			; 0000000cH
$LN23@SerializeE:
; File C:\Program Files (x86)\Microsoft Visual Studio\2019\Community\VC\Tools\MSVC\14.29.30133\atlmfc\include\afx.inl

; 402  : 		AfxThrowArchiveException(CArchiveException::endOfFile);

  00098	6a 00		 push	 0
  0009a	6a 03		 push	 3
  0009c	e8 00 00 00 00	 call	 ?AfxThrowArchiveException@@YGXHPBD@Z ; AfxThrowArchiveException
$LN34@SerializeE:
; File C:\Program Files (x86)\Microsoft Visual Studio\2019\Community\VC\Tools\MSVC\14.29.30133\atlmfc\include\afxtempl.h

; 68   : 	ENSURE(nCount == 0 || pElements != NULL);

  000a1	e8 00 00 00 00	 call	 ?AfxThrowInvalidArgException@@YGXXZ ; AfxThrowInvalidArgException
$LN32@SerializeE:
  000a6	cc		 int	 3
??$SerializeElements@N@@YGXAAVCArchive@@PANH@Z ENDP	; SerializeElements<double>
_TEXT	ENDS
; Function compile flags: /Ogtp
; File C:\Program Files (x86)\Microsoft Visual Studio\2019\Community\VC\Tools\MSVC\14.29.30133\atlmfc\include\afxtempl.h
; File C:\Program Files (x86)\Microsoft Visual Studio\2019\Community\VC\Tools\MSVC\14.29.30133\atlmfc\include\afx.inl
;	COMDAT ??_G?$CList@HH@@UAEPAXI@Z
_TEXT	SEGMENT
__$EHRec$ = -12						; size = 12
___flags$ = 8						; size = 4
??_G?$CList@HH@@UAEPAXI@Z PROC				; CList<int,int>::`scalar deleting destructor', COMDAT
; _this$ = ecx
  00000	55		 push	 ebp
  00001	8b ec		 mov	 ebp, esp
  00003	6a ff		 push	 -1
  00005	68 00 00 00 00	 push	 __ehhandler$??_G?$CList@HH@@UAEPAXI@Z
  0000a	64 a1 00 00 00
	00		 mov	 eax, DWORD PTR fs:0
  00010	50		 push	 eax
  00011	56		 push	 esi
  00012	a1 00 00 00 00	 mov	 eax, DWORD PTR ___security_cookie
  00017	33 c5		 xor	 eax, ebp
  00019	50		 push	 eax
  0001a	8d 45 f4	 lea	 eax, DWORD PTR __$EHRec$[ebp]
  0001d	64 a3 00 00 00
	00		 mov	 DWORD PTR fs:0, eax
  00023	8b f1		 mov	 esi, ecx
; File C:\Program Files (x86)\Microsoft Visual Studio\2019\Community\VC\Tools\MSVC\14.29.30133\atlmfc\include\afxtempl.h

; 872  : 	m_pBlocks->FreeDataChain();

  00025	8b 4e 14	 mov	 ecx, DWORD PTR [esi+20]

; 878  : {

  00028	c7 45 fc 00 00
	00 00		 mov	 DWORD PTR __$EHRec$[ebp+8], 0
  0002f	c7 06 00 00 00
	00		 mov	 DWORD PTR [esi], OFFSET ??_7?$CList@HH@@6B@

; 870  : 	m_nCount = 0;

  00035	c7 46 0c 00 00
	00 00		 mov	 DWORD PTR [esi+12], 0

; 871  : 	m_pNodeHead = m_pNodeTail = m_pNodeFree = NULL;

  0003c	c7 46 10 00 00
	00 00		 mov	 DWORD PTR [esi+16], 0
  00043	c7 46 08 00 00
	00 00		 mov	 DWORD PTR [esi+8], 0
  0004a	c7 46 04 00 00
	00 00		 mov	 DWORD PTR [esi+4], 0

; 872  : 	m_pBlocks->FreeDataChain();

  00051	e8 00 00 00 00	 call	 ?FreeDataChain@CPlex@@QAEXXZ ; CPlex::FreeDataChain

; 873  : 	m_pBlocks = NULL;

  00056	8b 45 08	 mov	 eax, DWORD PTR ___flags$[ebp]
  00059	c7 46 14 00 00
	00 00		 mov	 DWORD PTR [esi+20], 0
  00060	a8 01		 test	 al, 1
  00062	74 2c		 je	 SHORT $LN22@scalar
  00064	a8 04		 test	 al, 4
  00066	75 1d		 jne	 SHORT $LN3@scalar
; File C:\Program Files (x86)\Microsoft Visual Studio\2019\Community\VC\Tools\MSVC\14.29.30133\atlmfc\include\afx.inl

; 112  : 	{ ::operator delete(p); }

  00068	56		 push	 esi
  00069	e8 00 00 00 00	 call	 ??3@YAXPAX@Z		; operator delete
  0006e	83 c4 04	 add	 esp, 4
  00071	8b c6		 mov	 eax, esi
  00073	8b 4d f4	 mov	 ecx, DWORD PTR __$EHRec$[ebp]
  00076	64 89 0d 00 00
	00 00		 mov	 DWORD PTR fs:0, ecx
  0007d	59		 pop	 ecx
  0007e	5e		 pop	 esi
  0007f	8b e5		 mov	 esp, ebp
  00081	5d		 pop	 ebp
  00082	c2 04 00	 ret	 4
$LN3@scalar:
  00085	6a 1c		 push	 28			; 0000001cH
  00087	56		 push	 esi
  00088	e8 00 00 00 00	 call	 ?__global_delete@@YAXPAXI@Z ; __global_delete
  0008d	83 c4 08	 add	 esp, 8
$LN22@scalar:
  00090	8b c6		 mov	 eax, esi
  00092	8b 4d f4	 mov	 ecx, DWORD PTR __$EHRec$[ebp]
  00095	64 89 0d 00 00
	00 00		 mov	 DWORD PTR fs:0, ecx
  0009c	59		 pop	 ecx
  0009d	5e		 pop	 esi
  0009e	8b e5		 mov	 esp, ebp
  000a0	5d		 pop	 ebp
  000a1	c2 04 00	 ret	 4
  000a4	cc		 int	 3
  000a5	cc		 int	 3
  000a6	cc		 int	 3
  000a7	cc		 int	 3
  000a8	cc		 int	 3
_TEXT	ENDS
;	COMDAT text$x
text$x	SEGMENT
__ehhandler$??_G?$CList@HH@@UAEPAXI@Z:
  00000	90		 npad	 1
  00001	90		 npad	 1
  00002	8b 54 24 08	 mov	 edx, DWORD PTR [esp+8]
  00006	8d 42 0c	 lea	 eax, DWORD PTR [edx+12]
  00009	8b 4a f8	 mov	 ecx, DWORD PTR [edx-8]
  0000c	33 c8		 xor	 ecx, eax
  0000e	e8 00 00 00 00	 call	 @__security_check_cookie@4
  00013	b8 00 00 00 00	 mov	 eax, OFFSET __ehfuncinfo$??_G?$CList@HH@@UAEPAXI@Z
  00018	e9 00 00 00 00	 jmp	 ___CxxFrameHandler3
text$x	ENDS
??_G?$CList@HH@@UAEPAXI@Z ENDP				; CList<int,int>::`scalar deleting destructor'
; Function compile flags: /Ogtp
; File C:\Program Files (x86)\Microsoft Visual Studio\2019\Community\VC\Tools\MSVC\14.29.30133\atlmfc\include\afxtempl.h
; File C:\Program Files (x86)\Microsoft Visual Studio\2019\Community\VC\Tools\MSVC\14.29.30133\atlmfc\include\afx.inl
; File C:\Program Files (x86)\Microsoft Visual Studio\2019\Community\VC\Tools\MSVC\14.29.30133\atlmfc\include\afxtempl.h
; File C:\Program Files (x86)\Microsoft Visual Studio\2019\Community\VC\Tools\MSVC\14.29.30133\atlmfc\include\afx.inl
; File C:\Program Files (x86)\Microsoft Visual Studio\2019\Community\VC\Tools\MSVC\14.29.30133\atlmfc\include\afxtempl.h
; File C:\Program Files (x86)\Microsoft Visual Studio\2019\Community\VC\Tools\MSVC\14.29.30133\atlmfc\include\afx.inl
; File C:\Program Files (x86)\Microsoft Visual Studio\2019\Community\VC\Tools\MSVC\14.29.30133\atlmfc\include\afxtempl.h
; File C:\Program Files (x86)\Microsoft Visual Studio\2019\Community\VC\Tools\MSVC\14.29.30133\atlmfc\include\afx.inl
; File C:\Program Files (x86)\Microsoft Visual Studio\2019\Community\VC\Tools\MSVC\14.29.30133\atlmfc\include\afxtempl.h
; File C:\Program Files (x86)\Microsoft Visual Studio\2019\Community\VC\Tools\MSVC\14.29.30133\atlmfc\include\afx.inl
; File C:\Program Files (x86)\Microsoft Visual Studio\2019\Community\VC\Tools\MSVC\14.29.30133\atlmfc\include\afxtempl.h
; File C:\Program Files (x86)\Microsoft Visual Studio\2019\Community\VC\Tools\MSVC\14.29.30133\atlmfc\include\afx.inl
; File C:\Program Files (x86)\Microsoft Visual Studio\2019\Community\VC\Tools\MSVC\14.29.30133\atlmfc\include\afxtempl.h
;	COMDAT ?Serialize@?$CList@HH@@UAEXAAVCArchive@@@Z
_TEXT	SEGMENT
_nNewCount$1$ = -16					; size = 4
_newData$1 = -12					; size = 4
_pData$1$ = -8						; size = 4
_pData$1$ = -8						; size = 4
_pNode$1$ = -8						; size = 4
_nElementsLeft$1$ = -4					; size = 4
_this$1$ = -4						; size = 4
_ar$ = 8						; size = 4
?Serialize@?$CList@HH@@UAEXAAVCArchive@@@Z PROC		; CList<int,int>::Serialize, COMDAT
; _this$ = ecx

; 1169 : {

  00000	55		 push	 ebp
  00001	8b ec		 mov	 ebp, esp
  00003	83 ec 10	 sub	 esp, 16			; 00000010H
  00006	53		 push	 ebx
  00007	8b d9		 mov	 ebx, ecx
; File C:\Program Files (x86)\Microsoft Visual Studio\2019\Community\VC\Tools\MSVC\14.29.30133\atlmfc\include\afx.inl

; 212  : 	{ return (m_nMode & CArchive::load) == 0; }

  00009	8b 4d 08	 mov	 ecx, DWORD PTR _ar$[ebp]
; File C:\Program Files (x86)\Microsoft Visual Studio\2019\Community\VC\Tools\MSVC\14.29.30133\atlmfc\include\afxtempl.h

; 1169 : {

  0000c	56		 push	 esi
  0000d	57		 push	 edi
  0000e	89 5d fc	 mov	 DWORD PTR _this$1$[ebp], ebx
; File C:\Program Files (x86)\Microsoft Visual Studio\2019\Community\VC\Tools\MSVC\14.29.30133\atlmfc\include\afx.inl

; 212  : 	{ return (m_nMode & CArchive::load) == 0; }

  00011	8b 41 18	 mov	 eax, DWORD PTR [ecx+24]
  00014	f7 d0		 not	 eax
  00016	a8 01		 test	 al, 1
; File C:\Program Files (x86)\Microsoft Visual Studio\2019\Community\VC\Tools\MSVC\14.29.30133\atlmfc\include\afxtempl.h

; 1174 : 	if (ar.IsStoring())

  00018	0f 84 ae 00 00
	00		 je	 $LN7@Serialize

; 1175 : 	{
; 1176 : 		ar.WriteCount(m_nCount);

  0001e	ff 73 0c	 push	 DWORD PTR [ebx+12]
  00021	e8 00 00 00 00	 call	 ?WriteCount@CArchive@@QAEXK@Z ; CArchive::WriteCount

; 1177 : 		for (CNode* pNode = m_pNodeHead; pNode != NULL; pNode = pNode->pNext)

  00026	8b 43 04	 mov	 eax, DWORD PTR [ebx+4]
  00029	89 45 f8	 mov	 DWORD PTR _pNode$1$[ebp], eax
  0002c	85 c0		 test	 eax, eax
  0002e	0f 84 b9 01 00
	00		 je	 $LN86@Serialize
$LL4@Serialize:

; 1178 : 		{
; 1179 : 			ASSERT(AfxIsValidAddress(pNode, sizeof(CNode)));
; 1180 : 			TYPE* pData;
; 1181 : 			/*
; 1182 : 			 * in some cases the & operator might be overloaded, and we cannot use it to obtain
; 1183 : 			 * the address of a given object.  We then use the following trick to get the address
; 1184 : 			 */
; 1185 : 			pData = reinterpret_cast< TYPE* >( &reinterpret_cast< int& >( static_cast< TYPE& >( pNode->data ) ) );

  00034	8d 70 08	 lea	 esi, DWORD PTR [eax+8]

; 68   : 	ENSURE(nCount == 0 || pElements != NULL);

  00037	85 f6		 test	 esi, esi
  00039	0f 84 c0 01 00
	00		 je	 $LN76@Serialize
; File C:\Program Files (x86)\Microsoft Visual Studio\2019\Community\VC\Tools\MSVC\14.29.30133\atlmfc\include\afx.inl

; 212  : 	{ return (m_nMode & CArchive::load) == 0; }

  0003f	8b 4d 08	 mov	 ecx, DWORD PTR _ar$[ebp]
  00042	8b 41 18	 mov	 eax, DWORD PTR [ecx+24]
  00045	f7 d0		 not	 eax
  00047	a8 01		 test	 al, 1
; File C:\Program Files (x86)\Microsoft Visual Studio\2019\Community\VC\Tools\MSVC\14.29.30133\atlmfc\include\afxtempl.h

; 73   : 	if (ar.IsStoring())

  00049	74 33		 je	 SHORT $LN21@Serialize

; 74   : 	{
; 75   : 		TYPE* pData;
; 76   : 		UINT_PTR nElementsLeft;
; 77   : 
; 78   : 		nElementsLeft = nCount;

  0004b	b8 01 00 00 00	 mov	 eax, 1
  00050	89 45 fc	 mov	 DWORD PTR _nElementsLeft$1$[ebp], eax
$LL16@Serialize:

; 80   : 		while( nElementsLeft > 0 )
; 81   : 		{
; 82   : 			UINT nElementsToWrite;
; 83   : 
; 84   : 			nElementsToWrite = UINT(__min(nElementsLeft, INT_MAX/sizeof(TYPE)));

  00053	bb ff ff ff 1f	 mov	 ebx, 536870911		; 1fffffffH
  00058	3b c3		 cmp	 eax, ebx
  0005a	0f 42 d8	 cmovb	 ebx, eax

; 85   : 			ar.Write(pData, nElementsToWrite*sizeof(TYPE));

  0005d	8d 3c 9d 00 00
	00 00		 lea	 edi, DWORD PTR [ebx*4]
  00064	57		 push	 edi
  00065	56		 push	 esi
  00066	e8 00 00 00 00	 call	 ?Write@CArchive@@QAEXPBXI@Z ; CArchive::Write

; 86   : 			nElementsLeft -= nElementsToWrite;

  0006b	8b 45 fc	 mov	 eax, DWORD PTR _nElementsLeft$1$[ebp]

; 87   : 			pData += nElementsToWrite;

  0006e	03 f7		 add	 esi, edi
  00070	8b 4d 08	 mov	 ecx, DWORD PTR _ar$[ebp]
  00073	2b c3		 sub	 eax, ebx
  00075	89 45 fc	 mov	 DWORD PTR _nElementsLeft$1$[ebp], eax
  00078	85 c0		 test	 eax, eax
  0007a	75 d7		 jne	 SHORT $LL16@Serialize

; 88   : 		}
; 89   : 	}

  0007c	eb 35		 jmp	 SHORT $LN2@Serialize
$LN21@Serialize:

; 90   : 	else
; 91   : 	{
; 92   : 		TYPE* pData;
; 93   : 		UINT_PTR nElementsLeft;
; 94   : 
; 95   : 		nElementsLeft = nCount;

  0007e	bf 01 00 00 00	 mov	 edi, 1
$LL18@Serialize:

; 98   : 		{
; 99   : 			UINT nElementsToRead;
; 100  : 
; 101  : 			nElementsToRead = UINT(__min(nElementsLeft, INT_MAX/sizeof(TYPE)));

  00083	bb ff ff ff 1f	 mov	 ebx, 536870911		; 1fffffffH
  00088	3b fb		 cmp	 edi, ebx
  0008a	0f 42 df	 cmovb	 ebx, edi

; 102  : 			ar.EnsureRead(pData, nElementsToRead*sizeof(TYPE));

  0008d	8d 04 9d 00 00
	00 00		 lea	 eax, DWORD PTR [ebx*4]
; File C:\Program Files (x86)\Microsoft Visual Studio\2019\Community\VC\Tools\MSVC\14.29.30133\atlmfc\include\afx.inl

; 399  : 	UINT nRead=Read(lpBuf, nCount);

  00094	50		 push	 eax
  00095	56		 push	 esi
  00096	e8 00 00 00 00	 call	 ?Read@CArchive@@QAEIPAXI@Z ; CArchive::Read

; 400  : 	if(nRead!=nCount)

  0009b	8d 0c 9d 00 00
	00 00		 lea	 ecx, DWORD PTR [ebx*4]
  000a2	3b c1		 cmp	 eax, ecx
  000a4	0f 85 4c 01 00
	00		 jne	 $LN75@Serialize
; File C:\Program Files (x86)\Microsoft Visual Studio\2019\Community\VC\Tools\MSVC\14.29.30133\atlmfc\include\afxtempl.h

; 97   : 		while( nElementsLeft > 0 )

  000aa	03 f1		 add	 esi, ecx
  000ac	8b 4d 08	 mov	 ecx, DWORD PTR _ar$[ebp]

; 103  : 			nElementsLeft -= nElementsToRead;

  000af	2b fb		 sub	 edi, ebx
  000b1	75 d0		 jne	 SHORT $LL18@Serialize
$LN2@Serialize:

; 1177 : 		for (CNode* pNode = m_pNodeHead; pNode != NULL; pNode = pNode->pNext)

  000b3	8b 45 f8	 mov	 eax, DWORD PTR _pNode$1$[ebp]
  000b6	8b 00		 mov	 eax, DWORD PTR [eax]
  000b8	89 45 f8	 mov	 DWORD PTR _pNode$1$[ebp], eax
  000bb	85 c0		 test	 eax, eax
  000bd	0f 85 71 ff ff
	ff		 jne	 $LL4@Serialize

; 1197 : 		}
; 1198 : 	}
; 1199 : }

  000c3	5f		 pop	 edi
  000c4	5e		 pop	 esi
  000c5	5b		 pop	 ebx
  000c6	8b e5		 mov	 esp, ebp
  000c8	5d		 pop	 ebp
  000c9	c2 04 00	 ret	 4
$LN7@Serialize:

; 1186 : 			SerializeElements<TYPE>(ar, pData, 1);
; 1187 : 		}
; 1188 : 	}
; 1189 : 	else
; 1190 : 	{
; 1191 : 		DWORD_PTR nNewCount = ar.ReadCount();

  000cc	e8 00 00 00 00	 call	 ?ReadCount@CArchive@@QAEKXZ ; CArchive::ReadCount

; 1192 : 		while (nNewCount--)

  000d1	85 c0		 test	 eax, eax
  000d3	0f 84 14 01 00
	00		 je	 $LN86@Serialize
  000d9	0f 1f 80 00 00
	00 00		 npad	 7
$LL5@Serialize:
  000e0	48		 dec	 eax
  000e1	89 45 f0	 mov	 DWORD PTR _nNewCount$1$[ebp], eax
; File C:\Program Files (x86)\Microsoft Visual Studio\2019\Community\VC\Tools\MSVC\14.29.30133\atlmfc\include\afx.inl

; 212  : 	{ return (m_nMode & CArchive::load) == 0; }

  000e4	8b 45 08	 mov	 eax, DWORD PTR _ar$[ebp]
  000e7	8b 48 18	 mov	 ecx, DWORD PTR [eax+24]
  000ea	f7 d1		 not	 ecx
  000ec	f6 c1 01	 test	 cl, 1
; File C:\Program Files (x86)\Microsoft Visual Studio\2019\Community\VC\Tools\MSVC\14.29.30133\atlmfc\include\afxtempl.h

; 73   : 	if (ar.IsStoring())

  000ef	74 3d		 je	 SHORT $LN42@Serialize

; 79   : 		pData = pElements;

  000f1	8d 4d f4	 lea	 ecx, DWORD PTR _newData$1[ebp]
  000f4	bb 01 00 00 00	 mov	 ebx, 1
  000f9	89 4d f8	 mov	 DWORD PTR _pData$1$[ebp], ecx
  000fc	0f 1f 40 00	 npad	 4
$LL37@Serialize:

; 80   : 		while( nElementsLeft > 0 )
; 81   : 		{
; 82   : 			UINT nElementsToWrite;
; 83   : 
; 84   : 			nElementsToWrite = UINT(__min(nElementsLeft, INT_MAX/sizeof(TYPE)));

  00100	bf ff ff ff 1f	 mov	 edi, 536870911		; 1fffffffH
  00105	3b df		 cmp	 ebx, edi
  00107	0f 42 fb	 cmovb	 edi, ebx

; 85   : 			ar.Write(pData, nElementsToWrite*sizeof(TYPE));

  0010a	8d 34 bd 00 00
	00 00		 lea	 esi, DWORD PTR [edi*4]
  00111	56		 push	 esi
  00112	51		 push	 ecx
  00113	8b c8		 mov	 ecx, eax
  00115	e8 00 00 00 00	 call	 ?Write@CArchive@@QAEXPBXI@Z ; CArchive::Write

; 87   : 			pData += nElementsToWrite;

  0011a	8b 4d f8	 mov	 ecx, DWORD PTR _pData$1$[ebp]
  0011d	8b 45 08	 mov	 eax, DWORD PTR _ar$[ebp]
  00120	03 ce		 add	 ecx, esi
  00122	89 4d f8	 mov	 DWORD PTR _pData$1$[ebp], ecx
  00125	2b df		 sub	 ebx, edi
  00127	75 d7		 jne	 SHORT $LL37@Serialize

; 88   : 		}
; 89   : 	}

  00129	8b 5d fc	 mov	 ebx, DWORD PTR _this$1$[ebp]
  0012c	eb 4a		 jmp	 SHORT $LN40@Serialize
$LN42@Serialize:

; 96   : 		pData = pElements;

  0012e	8d 55 f4	 lea	 edx, DWORD PTR _newData$1[ebp]
  00131	be 01 00 00 00	 mov	 esi, 1
  00136	89 55 f8	 mov	 DWORD PTR _pData$1$[ebp], edx
  00139	0f 1f 80 00 00
	00 00		 npad	 7
$LL39@Serialize:

; 98   : 		{
; 99   : 			UINT nElementsToRead;
; 100  : 
; 101  : 			nElementsToRead = UINT(__min(nElementsLeft, INT_MAX/sizeof(TYPE)));

  00140	bf ff ff ff 1f	 mov	 edi, 536870911		; 1fffffffH
  00145	3b f7		 cmp	 esi, edi
  00147	0f 42 fe	 cmovb	 edi, esi

; 102  : 			ar.EnsureRead(pData, nElementsToRead*sizeof(TYPE));

  0014a	8d 0c bd 00 00
	00 00		 lea	 ecx, DWORD PTR [edi*4]
; File C:\Program Files (x86)\Microsoft Visual Studio\2019\Community\VC\Tools\MSVC\14.29.30133\atlmfc\include\afx.inl

; 399  : 	UINT nRead=Read(lpBuf, nCount);

  00151	51		 push	 ecx
  00152	52		 push	 edx
  00153	8b c8		 mov	 ecx, eax
  00155	e8 00 00 00 00	 call	 ?Read@CArchive@@QAEIPAXI@Z ; CArchive::Read

; 400  : 	if(nRead!=nCount)

  0015a	8d 0c bd 00 00
	00 00		 lea	 ecx, DWORD PTR [edi*4]
  00161	3b c1		 cmp	 eax, ecx
  00163	0f 85 8d 00 00
	00		 jne	 $LN75@Serialize
; File C:\Program Files (x86)\Microsoft Visual Studio\2019\Community\VC\Tools\MSVC\14.29.30133\atlmfc\include\afxtempl.h

; 97   : 		while( nElementsLeft > 0 )

  00169	8b 55 f8	 mov	 edx, DWORD PTR _pData$1$[ebp]
  0016c	8b 45 08	 mov	 eax, DWORD PTR _ar$[ebp]

; 104  : 			pData += nElementsToRead;

  0016f	03 d1		 add	 edx, ecx
  00171	89 55 f8	 mov	 DWORD PTR _pData$1$[ebp], edx
  00174	2b f7		 sub	 esi, edi
  00176	75 c8		 jne	 SHORT $LL39@Serialize
$LN40@Serialize:

; 902  : 	if (m_pNodeFree == NULL)

  00178	83 7b 10 00	 cmp	 DWORD PTR [ebx+16], 0

; 1193 : 		{
; 1194 : 			TYPE newData[1];
; 1195 : 			SerializeElements<TYPE>(ar, newData, 1);
; 1196 : 			AddTail(newData[0]);

  0017c	8b 75 f4	 mov	 esi, DWORD PTR _newData$1[ebp]

; 968  : 	CNode* pNewNode = NewNode(m_pNodeTail, NULL);

  0017f	8b 7b 08	 mov	 edi, DWORD PTR [ebx+8]

; 902  : 	if (m_pNodeFree == NULL)

  00182	75 32		 jne	 SHORT $LN63@Serialize

; 903  : 	{
; 904  : 		// add another block
; 905  : 		CPlex* pNewBlock = CPlex::Create(m_pBlocks, m_nBlockSize,

  00184	6a 0c		 push	 12			; 0000000cH
  00186	ff 73 18	 push	 DWORD PTR [ebx+24]
  00189	8d 43 14	 lea	 eax, DWORD PTR [ebx+20]
  0018c	50		 push	 eax
  0018d	e8 00 00 00 00	 call	 ?Create@CPlex@@SGPAU1@AAPAU1@II@Z ; CPlex::Create

; 906  : 				 sizeof(CNode));
; 907  : 
; 908  : 		// chain them into free list
; 909  : 		CNode* pNode = (CNode*) pNewBlock->data();
; 910  : 		// free in reverse order to make it easier to debug
; 911  : 		pNode += m_nBlockSize - 1;

  00192	8b 53 18	 mov	 edx, DWORD PTR [ebx+24]
  00195	83 c0 08	 add	 eax, 8
  00198	8d 4a ff	 lea	 ecx, DWORD PTR [edx-1]

; 912  : 		for (INT_PTR i = m_nBlockSize-1; i >= 0; i--, pNode--)

  0019b	83 c2 ff	 add	 edx, -1
  0019e	8d 0c 49	 lea	 ecx, DWORD PTR [ecx+ecx*2]
  001a1	8d 0c 88	 lea	 ecx, DWORD PTR [eax+ecx*4]
  001a4	78 10		 js	 SHORT $LN63@Serialize
$LL60@Serialize:

; 913  : 		{
; 914  : 			pNode->pNext = m_pNodeFree;

  001a6	8b 43 10	 mov	 eax, DWORD PTR [ebx+16]
  001a9	89 01		 mov	 DWORD PTR [ecx], eax

; 915  : 			m_pNodeFree = pNode;

  001ab	89 4b 10	 mov	 DWORD PTR [ebx+16], ecx
  001ae	83 e9 0c	 sub	 ecx, 12			; 0000000cH
  001b1	83 ea 01	 sub	 edx, 1
  001b4	79 f0		 jns	 SHORT $LL60@Serialize
$LN63@Serialize:

; 916  : 		}
; 917  : 	}
; 918  : 	ENSURE(m_pNodeFree != NULL);  // we must have something

  001b6	8b 4b 10	 mov	 ecx, DWORD PTR [ebx+16]
  001b9	85 c9		 test	 ecx, ecx
  001bb	74 42		 je	 SHORT $LN76@Serialize

; 919  : 
; 920  : 	CList::CNode* pNode = m_pNodeFree;
; 921  : 	m_pNodeFree = m_pNodeFree->pNext;

  001bd	8b 01		 mov	 eax, DWORD PTR [ecx]
  001bf	89 43 10	 mov	 DWORD PTR [ebx+16], eax

; 922  : 	pNode->pPrev = pPrev;

  001c2	89 79 04	 mov	 DWORD PTR [ecx+4], edi

; 923  : 	pNode->pNext = pNext;

  001c5	c7 01 00 00 00
	00		 mov	 DWORD PTR [ecx], 0

; 924  : 	m_nCount++;

  001cb	ff 43 0c	 inc	 DWORD PTR [ebx+12]

; 969  : 	pNewNode->data = newElement;

  001ce	89 71 08	 mov	 DWORD PTR [ecx+8], esi

; 970  : 	if (m_pNodeTail != NULL)

  001d1	8b 43 08	 mov	 eax, DWORD PTR [ebx+8]
  001d4	85 c0		 test	 eax, eax
  001d6	74 04		 je	 SHORT $LN54@Serialize

; 971  : 		m_pNodeTail->pNext = pNewNode;

  001d8	89 08		 mov	 DWORD PTR [eax], ecx
  001da	eb 03		 jmp	 SHORT $LN55@Serialize
$LN54@Serialize:

; 972  : 	else
; 973  : 		m_pNodeHead = pNewNode;

  001dc	89 4b 04	 mov	 DWORD PTR [ebx+4], ecx
$LN55@Serialize:

; 1192 : 		while (nNewCount--)

  001df	8b 45 f0	 mov	 eax, DWORD PTR _nNewCount$1$[ebp]

; 974  : 	m_pNodeTail = pNewNode;

  001e2	89 4b 08	 mov	 DWORD PTR [ebx+8], ecx

; 1192 : 		while (nNewCount--)

  001e5	85 c0		 test	 eax, eax
  001e7	0f 85 f3 fe ff
	ff		 jne	 $LL5@Serialize
$LN86@Serialize:
  001ed	5f		 pop	 edi

; 1197 : 		}
; 1198 : 	}
; 1199 : }

  001ee	5e		 pop	 esi
  001ef	5b		 pop	 ebx
  001f0	8b e5		 mov	 esp, ebp
  001f2	5d		 pop	 ebp
  001f3	c2 04 00	 ret	 4
$LN75@Serialize:
  001f6	6a 00		 push	 0
  001f8	6a 03		 push	 3
  001fa	e8 00 00 00 00	 call	 ?AfxThrowArchiveException@@YGXHPBD@Z ; AfxThrowArchiveException
$LN76@Serialize:
  001ff	e8 00 00 00 00	 call	 ?AfxThrowInvalidArgException@@YGXXZ ; AfxThrowInvalidArgException
$LN105@Serialize:
  00204	cc		 int	 3
?Serialize@?$CList@HH@@UAEXAAVCArchive@@@Z ENDP		; CList<int,int>::Serialize
_TEXT	ENDS
; Function compile flags: /Ogtp
; File C:\Program Files (x86)\Microsoft Visual Studio\2019\Community\VC\Tools\MSVC\14.29.30133\atlmfc\include\afxtempl.h
;	COMDAT ??1?$CList@HH@@UAE@XZ
_TEXT	SEGMENT
__$EHRec$ = -12						; size = 12
??1?$CList@HH@@UAE@XZ PROC				; CList<int,int>::~CList<int,int>, COMDAT
; _this$ = ecx

; 878  : {

  00000	55		 push	 ebp
  00001	8b ec		 mov	 ebp, esp
  00003	6a ff		 push	 -1
  00005	68 00 00 00 00	 push	 __ehhandler$??1?$CList@HH@@UAE@XZ
  0000a	64 a1 00 00 00
	00		 mov	 eax, DWORD PTR fs:0
  00010	50		 push	 eax
  00011	56		 push	 esi
  00012	a1 00 00 00 00	 mov	 eax, DWORD PTR ___security_cookie
  00017	33 c5		 xor	 eax, ebp
  00019	50		 push	 eax
  0001a	8d 45 f4	 lea	 eax, DWORD PTR __$EHRec$[ebp]
  0001d	64 a3 00 00 00
	00		 mov	 DWORD PTR fs:0, eax
  00023	8b f1		 mov	 esi, ecx

; 872  : 	m_pBlocks->FreeDataChain();

  00025	8b 4e 14	 mov	 ecx, DWORD PTR [esi+20]

; 878  : {

  00028	c7 06 00 00 00
	00		 mov	 DWORD PTR [esi], OFFSET ??_7?$CList@HH@@6B@

; 870  : 	m_nCount = 0;

  0002e	c7 46 0c 00 00
	00 00		 mov	 DWORD PTR [esi+12], 0

; 871  : 	m_pNodeHead = m_pNodeTail = m_pNodeFree = NULL;

  00035	c7 46 10 00 00
	00 00		 mov	 DWORD PTR [esi+16], 0
  0003c	c7 46 08 00 00
	00 00		 mov	 DWORD PTR [esi+8], 0
  00043	c7 46 04 00 00
	00 00		 mov	 DWORD PTR [esi+4], 0

; 872  : 	m_pBlocks->FreeDataChain();

  0004a	e8 00 00 00 00	 call	 ?FreeDataChain@CPlex@@QAEXXZ ; CPlex::FreeDataChain

; 873  : 	m_pBlocks = NULL;

  0004f	c7 46 14 00 00
	00 00		 mov	 DWORD PTR [esi+20], 0

; 879  : 	RemoveAll();
; 880  : 	ASSERT(m_nCount == 0);
; 881  : }

  00056	8b 4d f4	 mov	 ecx, DWORD PTR __$EHRec$[ebp]
  00059	64 89 0d 00 00
	00 00		 mov	 DWORD PTR fs:0, ecx
  00060	59		 pop	 ecx
  00061	5e		 pop	 esi
  00062	8b e5		 mov	 esp, ebp
  00064	5d		 pop	 ebp
  00065	c3		 ret	 0
  00066	cc		 int	 3
  00067	cc		 int	 3
  00068	cc		 int	 3
  00069	cc		 int	 3
  0006a	cc		 int	 3
_TEXT	ENDS
;	COMDAT text$x
text$x	SEGMENT
__ehhandler$??1?$CList@HH@@UAE@XZ:
  00000	90		 npad	 1
  00001	90		 npad	 1
  00002	8b 54 24 08	 mov	 edx, DWORD PTR [esp+8]
  00006	8d 42 0c	 lea	 eax, DWORD PTR [edx+12]
  00009	8b 4a f8	 mov	 ecx, DWORD PTR [edx-8]
  0000c	33 c8		 xor	 ecx, eax
  0000e	e8 00 00 00 00	 call	 @__security_check_cookie@4
  00013	b8 00 00 00 00	 mov	 eax, OFFSET __ehfuncinfo$??1?$CList@HH@@UAE@XZ
  00018	e9 00 00 00 00	 jmp	 ___CxxFrameHandler3
text$x	ENDS
??1?$CList@HH@@UAE@XZ ENDP				; CList<int,int>::~CList<int,int>
; Function compile flags: /Ogtp
; File C:\Program Files (x86)\Microsoft Visual Studio\2019\Community\VC\Tools\MSVC\14.29.30133\atlmfc\include\afxtempl.h
;	COMDAT ?NewNode@?$CList@HH@@IAEPAUCNode@1@PAU21@0@Z
_TEXT	SEGMENT
_pPrev$ = 8						; size = 4
_pNext$ = 12						; size = 4
?NewNode@?$CList@HH@@IAEPAUCNode@1@PAU21@0@Z PROC	; CList<int,int>::NewNode, COMDAT
; _this$ = ecx

; 901  : {

  00000	55		 push	 ebp
  00001	8b ec		 mov	 ebp, esp
  00003	56		 push	 esi
  00004	8b f1		 mov	 esi, ecx

; 902  : 	if (m_pNodeFree == NULL)

  00006	83 7e 10 00	 cmp	 DWORD PTR [esi+16], 0
  0000a	75 34		 jne	 SHORT $LN7@NewNode

; 903  : 	{
; 904  : 		// add another block
; 905  : 		CPlex* pNewBlock = CPlex::Create(m_pBlocks, m_nBlockSize,

  0000c	6a 0c		 push	 12			; 0000000cH
  0000e	ff 76 18	 push	 DWORD PTR [esi+24]
  00011	8d 46 14	 lea	 eax, DWORD PTR [esi+20]
  00014	50		 push	 eax
  00015	e8 00 00 00 00	 call	 ?Create@CPlex@@SGPAU1@AAPAU1@II@Z ; CPlex::Create

; 906  : 				 sizeof(CNode));
; 907  : 
; 908  : 		// chain them into free list
; 909  : 		CNode* pNode = (CNode*) pNewBlock->data();
; 910  : 		// free in reverse order to make it easier to debug
; 911  : 		pNode += m_nBlockSize - 1;

  0001a	8b 56 18	 mov	 edx, DWORD PTR [esi+24]
  0001d	83 c0 08	 add	 eax, 8
  00020	8d 0c 52	 lea	 ecx, DWORD PTR [edx+edx*2]
  00023	8d 04 88	 lea	 eax, DWORD PTR [eax+ecx*4]
  00026	83 c0 f4	 add	 eax, -12		; fffffff4H

; 912  : 		for (INT_PTR i = m_nBlockSize-1; i >= 0; i--, pNode--)

  00029	83 c2 ff	 add	 edx, -1
  0002c	78 12		 js	 SHORT $LN7@NewNode
  0002e	66 90		 npad	 2
$LL4@NewNode:

; 913  : 		{
; 914  : 			pNode->pNext = m_pNodeFree;

  00030	8b 4e 10	 mov	 ecx, DWORD PTR [esi+16]
  00033	89 08		 mov	 DWORD PTR [eax], ecx

; 915  : 			m_pNodeFree = pNode;

  00035	89 46 10	 mov	 DWORD PTR [esi+16], eax
  00038	83 e8 0c	 sub	 eax, 12			; 0000000cH
  0003b	83 ea 01	 sub	 edx, 1
  0003e	79 f0		 jns	 SHORT $LL4@NewNode
$LN7@NewNode:

; 916  : 		}
; 917  : 	}
; 918  : 	ENSURE(m_pNodeFree != NULL);  // we must have something

  00040	8b 46 10	 mov	 eax, DWORD PTR [esi+16]
  00043	85 c0		 test	 eax, eax
  00045	74 18		 je	 SHORT $LN17@NewNode

; 919  : 
; 920  : 	CList::CNode* pNode = m_pNodeFree;
; 921  : 	m_pNodeFree = m_pNodeFree->pNext;

  00047	8b 08		 mov	 ecx, DWORD PTR [eax]
  00049	89 4e 10	 mov	 DWORD PTR [esi+16], ecx

; 922  : 	pNode->pPrev = pPrev;

  0004c	8b 4d 08	 mov	 ecx, DWORD PTR _pPrev$[ebp]
  0004f	89 48 04	 mov	 DWORD PTR [eax+4], ecx

; 923  : 	pNode->pNext = pNext;

  00052	8b 4d 0c	 mov	 ecx, DWORD PTR _pNext$[ebp]
  00055	89 08		 mov	 DWORD PTR [eax], ecx

; 924  : 	m_nCount++;

  00057	ff 46 0c	 inc	 DWORD PTR [esi+12]

; 925  : 	ASSERT(m_nCount > 0);  // make sure we don't overflow
; 926  : 
; 927  : #pragma push_macro("new")
; 928  : #undef new
; 929  : 	::new( (void*)( &pNode->data ) ) TYPE;
; 930  : #pragma pop_macro("new")
; 931  : 	return pNode;

  0005a	5e		 pop	 esi

; 932  : }

  0005b	5d		 pop	 ebp
  0005c	c2 08 00	 ret	 8
$LN17@NewNode:

; 916  : 		}
; 917  : 	}
; 918  : 	ENSURE(m_pNodeFree != NULL);  // we must have something

  0005f	e8 00 00 00 00	 call	 ?AfxThrowInvalidArgException@@YGXXZ ; AfxThrowInvalidArgException
$LN15@NewNode:
  00064	cc		 int	 3
?NewNode@?$CList@HH@@IAEPAUCNode@1@PAU21@0@Z ENDP	; CList<int,int>::NewNode
_TEXT	ENDS
; Function compile flags: /Ogtp
; File C:\Program Files (x86)\Microsoft Visual Studio\2019\Community\VC\Tools\MSVC\14.29.30133\atlmfc\include\afxtempl.h
;	COMDAT ?RemoveAll@?$CList@HH@@QAEXXZ
_TEXT	SEGMENT
?RemoveAll@?$CList@HH@@QAEXXZ PROC			; CList<int,int>::RemoveAll, COMDAT
; _this$ = ecx

; 862  : {

  00000	56		 push	 esi
  00001	8b f1		 mov	 esi, ecx

; 863  : 	ASSERT_VALID(this);
; 864  : 
; 865  : 	// destroy elements
; 866  : 	CNode* pNode;
; 867  : 	for (pNode = m_pNodeHead; pNode != NULL; pNode = pNode->pNext)
; 868  : 		pNode->data.~TYPE();
; 869  : 
; 870  : 	m_nCount = 0;
; 871  : 	m_pNodeHead = m_pNodeTail = m_pNodeFree = NULL;
; 872  : 	m_pBlocks->FreeDataChain();

  00003	8b 4e 14	 mov	 ecx, DWORD PTR [esi+20]
  00006	c7 46 0c 00 00
	00 00		 mov	 DWORD PTR [esi+12], 0
  0000d	c7 46 10 00 00
	00 00		 mov	 DWORD PTR [esi+16], 0
  00014	c7 46 08 00 00
	00 00		 mov	 DWORD PTR [esi+8], 0
  0001b	c7 46 04 00 00
	00 00		 mov	 DWORD PTR [esi+4], 0
  00022	e8 00 00 00 00	 call	 ?FreeDataChain@CPlex@@QAEXXZ ; CPlex::FreeDataChain

; 873  : 	m_pBlocks = NULL;

  00027	c7 46 14 00 00
	00 00		 mov	 DWORD PTR [esi+20], 0
  0002e	5e		 pop	 esi

; 874  : }

  0002f	c3		 ret	 0
?RemoveAll@?$CList@HH@@QAEXXZ ENDP			; CList<int,int>::RemoveAll
_TEXT	ENDS
; Function compile flags: /Ogtp
; File C:\Program Files (x86)\Microsoft Visual Studio\2019\Community\VC\Tools\MSVC\14.29.30133\atlmfc\include\afxtempl.h
;	COMDAT ?AddTail@?$CList@HH@@QAEPAU__POSITION@@H@Z
_TEXT	SEGMENT
_newElement$ = 8					; size = 4
?AddTail@?$CList@HH@@QAEPAU__POSITION@@H@Z PROC		; CList<int,int>::AddTail, COMDAT
; _this$ = ecx

; 965  : {

  00000	55		 push	 ebp
  00001	8b ec		 mov	 ebp, esp
  00003	56		 push	 esi
  00004	8b f1		 mov	 esi, ecx
  00006	57		 push	 edi

; 902  : 	if (m_pNodeFree == NULL)

  00007	83 7e 10 00	 cmp	 DWORD PTR [esi+16], 0

; 966  : 	ASSERT_VALID(this);
; 967  : 
; 968  : 	CNode* pNewNode = NewNode(m_pNodeTail, NULL);

  0000b	8b 7e 08	 mov	 edi, DWORD PTR [esi+8]

; 902  : 	if (m_pNodeFree == NULL)

  0000e	75 32		 jne	 SHORT $LN11@AddTail

; 903  : 	{
; 904  : 		// add another block
; 905  : 		CPlex* pNewBlock = CPlex::Create(m_pBlocks, m_nBlockSize,

  00010	6a 0c		 push	 12			; 0000000cH
  00012	ff 76 18	 push	 DWORD PTR [esi+24]
  00015	8d 46 14	 lea	 eax, DWORD PTR [esi+20]
  00018	50		 push	 eax
  00019	e8 00 00 00 00	 call	 ?Create@CPlex@@SGPAU1@AAPAU1@II@Z ; CPlex::Create

; 906  : 				 sizeof(CNode));
; 907  : 
; 908  : 		// chain them into free list
; 909  : 		CNode* pNode = (CNode*) pNewBlock->data();
; 910  : 		// free in reverse order to make it easier to debug
; 911  : 		pNode += m_nBlockSize - 1;

  0001e	8b 56 18	 mov	 edx, DWORD PTR [esi+24]
  00021	83 c0 08	 add	 eax, 8
  00024	8d 4a ff	 lea	 ecx, DWORD PTR [edx-1]

; 912  : 		for (INT_PTR i = m_nBlockSize-1; i >= 0; i--, pNode--)

  00027	83 c2 ff	 add	 edx, -1
  0002a	8d 0c 49	 lea	 ecx, DWORD PTR [ecx+ecx*2]
  0002d	8d 0c 88	 lea	 ecx, DWORD PTR [eax+ecx*4]
  00030	78 10		 js	 SHORT $LN11@AddTail
$LL8@AddTail:

; 913  : 		{
; 914  : 			pNode->pNext = m_pNodeFree;

  00032	8b 46 10	 mov	 eax, DWORD PTR [esi+16]
  00035	89 01		 mov	 DWORD PTR [ecx], eax

; 915  : 			m_pNodeFree = pNode;

  00037	89 4e 10	 mov	 DWORD PTR [esi+16], ecx
  0003a	83 e9 0c	 sub	 ecx, 12			; 0000000cH
  0003d	83 ea 01	 sub	 edx, 1
  00040	79 f0		 jns	 SHORT $LL8@AddTail
$LN11@AddTail:

; 916  : 		}
; 917  : 	}
; 918  : 	ENSURE(m_pNodeFree != NULL);  // we must have something

  00042	8b 4e 10	 mov	 ecx, DWORD PTR [esi+16]
  00045	85 c9		 test	 ecx, ecx
  00047	74 39		 je	 SHORT $LN22@AddTail

; 919  : 
; 920  : 	CList::CNode* pNode = m_pNodeFree;
; 921  : 	m_pNodeFree = m_pNodeFree->pNext;

  00049	8b 01		 mov	 eax, DWORD PTR [ecx]
  0004b	89 46 10	 mov	 DWORD PTR [esi+16], eax

; 969  : 	pNewNode->data = newElement;

  0004e	8b 45 08	 mov	 eax, DWORD PTR _newElement$[ebp]

; 922  : 	pNode->pPrev = pPrev;

  00051	89 79 04	 mov	 DWORD PTR [ecx+4], edi

; 923  : 	pNode->pNext = pNext;

  00054	c7 01 00 00 00
	00		 mov	 DWORD PTR [ecx], 0

; 924  : 	m_nCount++;

  0005a	ff 46 0c	 inc	 DWORD PTR [esi+12]

; 969  : 	pNewNode->data = newElement;

  0005d	89 41 08	 mov	 DWORD PTR [ecx+8], eax

; 970  : 	if (m_pNodeTail != NULL)

  00060	8b 46 08	 mov	 eax, DWORD PTR [esi+8]
  00063	85 c0		 test	 eax, eax
  00065	74 0d		 je	 SHORT $LN2@AddTail

; 971  : 		m_pNodeTail->pNext = pNewNode;

  00067	89 08		 mov	 DWORD PTR [eax], ecx

; 972  : 	else
; 973  : 		m_pNodeHead = pNewNode;
; 974  : 	m_pNodeTail = pNewNode;
; 975  : 	return (POSITION) pNewNode;

  00069	8b c1		 mov	 eax, ecx
  0006b	5f		 pop	 edi
  0006c	89 4e 08	 mov	 DWORD PTR [esi+8], ecx
  0006f	5e		 pop	 esi

; 976  : }

  00070	5d		 pop	 ebp
  00071	c2 04 00	 ret	 4
$LN2@AddTail:

; 972  : 	else
; 973  : 		m_pNodeHead = pNewNode;
; 974  : 	m_pNodeTail = pNewNode;
; 975  : 	return (POSITION) pNewNode;

  00074	5f		 pop	 edi
  00075	89 4e 04	 mov	 DWORD PTR [esi+4], ecx
  00078	8b c1		 mov	 eax, ecx
  0007a	89 4e 08	 mov	 DWORD PTR [esi+8], ecx
  0007d	5e		 pop	 esi

; 976  : }

  0007e	5d		 pop	 ebp
  0007f	c2 04 00	 ret	 4
$LN22@AddTail:

; 918  : 	ENSURE(m_pNodeFree != NULL);  // we must have something

  00082	e8 00 00 00 00	 call	 ?AfxThrowInvalidArgException@@YGXXZ ; AfxThrowInvalidArgException
$LN20@AddTail:
  00087	cc		 int	 3
?AddTail@?$CList@HH@@QAEPAU__POSITION@@H@Z ENDP		; CList<int,int>::AddTail
_TEXT	ENDS
; Function compile flags: /Ogtp
; File C:\Program Files (x86)\Microsoft Visual Studio\2019\Community\VC\Tools\MSVC\14.29.30133\atlmfc\include\afxtempl.h
;	COMDAT ??0?$CList@HH@@QAE@H@Z
_TEXT	SEGMENT
_nBlockSize$ = 8					; size = 4
??0?$CList@HH@@QAE@H@Z PROC				; CList<int,int>::CList<int,int>, COMDAT
; _this$ = ecx

; 851  : {

  00000	55		 push	 ebp
  00001	8b ec		 mov	 ebp, esp

; 852  : 	ASSERT(nBlockSize > 0);
; 853  : 
; 854  : 	m_nCount = 0;
; 855  : 	m_pNodeHead = m_pNodeTail = m_pNodeFree = NULL;
; 856  : 	m_pBlocks = NULL;
; 857  : 	m_nBlockSize = nBlockSize;

  00003	8b 45 08	 mov	 eax, DWORD PTR _nBlockSize$[ebp]
  00006	89 41 18	 mov	 DWORD PTR [ecx+24], eax

; 858  : }

  00009	8b c1		 mov	 eax, ecx
  0000b	c7 01 00 00 00
	00		 mov	 DWORD PTR [ecx], OFFSET ??_7?$CList@HH@@6B@
  00011	c7 41 0c 00 00
	00 00		 mov	 DWORD PTR [ecx+12], 0
  00018	c7 41 10 00 00
	00 00		 mov	 DWORD PTR [ecx+16], 0
  0001f	c7 41 08 00 00
	00 00		 mov	 DWORD PTR [ecx+8], 0
  00026	c7 41 04 00 00
	00 00		 mov	 DWORD PTR [ecx+4], 0
  0002d	c7 41 14 00 00
	00 00		 mov	 DWORD PTR [ecx+20], 0
  00034	5d		 pop	 ebp
  00035	c2 04 00	 ret	 4
??0?$CList@HH@@QAE@H@Z ENDP				; CList<int,int>::CList<int,int>
_TEXT	ENDS
; Function compile flags: /Ogtp
; File D:\git\src\IBK\IBK_DRFN\ProjSrc\SrcChartEx\ChartOCX\ChartObject\BlocksPosition.cpp
; File C:\Program Files (x86)\Microsoft Visual Studio\2019\Community\VC\Tools\MSVC\14.29.30133\atlmfc\include\afxtempl.h
; File D:\git\src\IBK\IBK_DRFN\ProjSrc\SrcChartEx\ChartOCX\ChartObject\BlocksPosition.cpp
; File C:\Program Files (x86)\Microsoft Visual Studio\2019\Community\VC\Tools\MSVC\14.29.30133\atlmfc\include\afxtempl.h
; File D:\git\src\IBK\IBK_DRFN\ProjSrc\SrcChartEx\ChartOCX\ChartObject\BlocksPosition.cpp
;	COMDAT ?SetHorzScalePosition@CBlocksPosition@@QAEXAAVCHorizontalScale@@W4HORZSCALEPOSITION@CScaleBaseData@@@Z
_TEXT	SEGMENT
_p_horizontalScale$ = 8					; size = 4
_ePosition$ = 12					; size = 4
?SetHorzScalePosition@CBlocksPosition@@QAEXAAVCHorizontalScale@@W4HORZSCALEPOSITION@CScaleBaseData@@@Z PROC ; CBlocksPosition::SetHorzScalePosition, COMDAT
; _this$ = ecx

; 548  : {

  00000	55		 push	 ebp
  00001	8b ec		 mov	 ebp, esp
  00003	56		 push	 esi
  00004	8b f1		 mov	 esi, ecx
; File C:\Program Files (x86)\Microsoft Visual Studio\2019\Community\VC\Tools\MSVC\14.29.30133\atlmfc\include\afxtempl.h

; 872  : 	m_pBlocks->FreeDataChain();

  00006	8b 4e 68	 mov	 ecx, DWORD PTR [esi+104]
  00009	c7 46 60 00 00
	00 00		 mov	 DWORD PTR [esi+96], 0
  00010	c7 46 64 00 00
	00 00		 mov	 DWORD PTR [esi+100], 0
  00017	c7 46 5c 00 00
	00 00		 mov	 DWORD PTR [esi+92], 0
  0001e	c7 46 58 00 00
	00 00		 mov	 DWORD PTR [esi+88], 0
  00025	e8 00 00 00 00	 call	 ?FreeDataChain@CPlex@@QAEXXZ ; CPlex::FreeDataChain
; File D:\git\src\IBK\IBK_DRFN\ProjSrc\SrcChartEx\ChartOCX\ChartObject\BlocksPosition.cpp

; 550  : 	p_horizontalScale.SetHorzScalePosition( ePosition);

  0002a	ff 75 0c	 push	 DWORD PTR _ePosition$[ebp]
  0002d	8b 4d 08	 mov	 ecx, DWORD PTR _p_horizontalScale$[ebp]
; File C:\Program Files (x86)\Microsoft Visual Studio\2019\Community\VC\Tools\MSVC\14.29.30133\atlmfc\include\afxtempl.h

; 873  : 	m_pBlocks = NULL;

  00030	c7 46 68 00 00
	00 00		 mov	 DWORD PTR [esi+104], 0
; File D:\git\src\IBK\IBK_DRFN\ProjSrc\SrcChartEx\ChartOCX\ChartObject\BlocksPosition.cpp

; 550  : 	p_horizontalScale.SetHorzScalePosition( ePosition);

  00037	ff 15 00 00 00
	00		 call	 DWORD PTR __imp_?SetHorzScalePosition@CHorizontalScale@@IAEXW4HORZSCALEPOSITION@CScaleBaseData@@@Z
  0003d	5e		 pop	 esi

; 551  : }

  0003e	5d		 pop	 ebp
  0003f	c2 08 00	 ret	 8
?SetHorzScalePosition@CBlocksPosition@@QAEXAAVCHorizontalScale@@W4HORZSCALEPOSITION@CScaleBaseData@@@Z ENDP ; CBlocksPosition::SetHorzScalePosition
_TEXT	ENDS
; Function compile flags: /Ogtp
; File D:\git\src\IBK\IBK_DRFN\ProjSrc\SrcChartEx\ChartOCX\ChartObject\BlocksPosition.cpp
; File C:\Program Files (x86)\Microsoft Visual Studio\2019\Community\VC\Tools\MSVC\14.29.30133\atlmfc\include\atltypes.h
; File D:\git\src\IBK\IBK_DRFN\ProjSrc\SrcChartEx\ChartOCX\ChartObject\BlocksPosition.cpp
; File C:\Program Files (x86)\Microsoft Visual Studio\2019\Community\VC\Tools\MSVC\14.29.30133\atlmfc\include\afxtempl.h
; File D:\git\src\IBK\IBK_DRFN\ProjSrc\SrcChartEx\ChartOCX\ChartObject\BlocksPosition.cpp
;	COMDAT ?DrawColumnCompartLine@CBlocksPosition@@AAEXPAVCDC@@ABK@Z
_TEXT	SEGMENT
_start$2 = -44						; size = 8
_end$3 = -36						; size = 8
_graphFrameDrawer$ = -28				; size = 8
_absoluteOrgPt$ = -20					; size = 8
__$EHRec$ = -12						; size = 12
_pDC$ = 8						; size = 4
_compartLineColor$ = 12					; size = 4
?DrawColumnCompartLine@CBlocksPosition@@AAEXPAVCDC@@ABK@Z PROC ; CBlocksPosition::DrawColumnCompartLine, COMDAT
; _this$ = ecx

; 530  : {

  00000	55		 push	 ebp
  00001	8b ec		 mov	 ebp, esp
  00003	6a ff		 push	 -1
  00005	68 00 00 00 00	 push	 __ehhandler$?DrawColumnCompartLine@CBlocksPosition@@AAEXPAVCDC@@ABK@Z
  0000a	64 a1 00 00 00
	00		 mov	 eax, DWORD PTR fs:0
  00010	50		 push	 eax
  00011	83 ec 20	 sub	 esp, 32			; 00000020H
  00014	53		 push	 ebx
  00015	56		 push	 esi
  00016	57		 push	 edi
  00017	a1 00 00 00 00	 mov	 eax, DWORD PTR ___security_cookie
  0001c	33 c5		 xor	 eax, ebp
  0001e	50		 push	 eax
  0001f	8d 45 f4	 lea	 eax, DWORD PTR __$EHRec$[ebp]
  00022	64 a3 00 00 00
	00		 mov	 DWORD PTR fs:0, eax
  00028	8b f1		 mov	 esi, ecx

; 531  : 	//    end point   . end.x == start.x
; 532  : 	CPoint absoluteOrgPt(m_allBlockRegion.left, m_allBlockRegion.top);

  0002a	8b 56 08	 mov	 edx, DWORD PTR [esi+8]

; 533  : 	CGraphFrameDrawer graphFrameDrawer;

  0002d	8d 4d e4	 lea	 ecx, DWORD PTR _graphFrameDrawer$[ebp]
; File C:\Program Files (x86)\Microsoft Visual Studio\2019\Community\VC\Tools\MSVC\14.29.30133\atlmfc\include\atltypes.h

; 408  : 	x = initX;

  00030	8b 46 04	 mov	 eax, DWORD PTR [esi+4]
  00033	89 45 ec	 mov	 DWORD PTR _absoluteOrgPt$[ebp], eax

; 409  : 	y = initY;

  00036	89 55 f0	 mov	 DWORD PTR _absoluteOrgPt$[ebp+4], edx
; File D:\git\src\IBK\IBK_DRFN\ProjSrc\SrcChartEx\ChartOCX\ChartObject\BlocksPosition.cpp

; 533  : 	CGraphFrameDrawer graphFrameDrawer;

  00039	ff 15 00 00 00
	00		 call	 DWORD PTR __imp_??0CGraphFrameDrawer@@QAE@XZ
; File C:\Program Files (x86)\Microsoft Visual Studio\2019\Community\VC\Tools\MSVC\14.29.30133\atlmfc\include\afxtempl.h

; 786  : 	{ return m_nCount == 0; }

  0003f	83 7e 60 00	 cmp	 DWORD PTR [esi+96], 0
; File D:\git\src\IBK\IBK_DRFN\ProjSrc\SrcChartEx\ChartOCX\ChartObject\BlocksPosition.cpp

; 533  : 	CGraphFrameDrawer graphFrameDrawer;

  00043	c7 45 fc 00 00
	00 00		 mov	 DWORD PTR __$EHRec$[ebp+8], 0

; 113  : 	if( m_dlRowReal.IsEmpty()) UpdateRowRealFromRowRate();

  0004a	75 07		 jne	 SHORT $LN12@DrawColumn
  0004c	8b ce		 mov	 ecx, esi
  0004e	e8 00 00 00 00	 call	 ?UpdateRowRealFromRowRate@CBlocksPositionBase@@IAEXXZ ; CBlocksPositionBase::UpdateRowRealFromRowRate
$LN12@DrawColumn:

; 534  : 	const CList< double, double> &lRowReal = GetConstRowReal();
; 535  : 	for(int column = 1; column < m_lColumn.GetCount() -1; column++)

  00053	8b 46 20	 mov	 eax, DWORD PTR [esi+32]

; 114  : 	return m_dlRowReal;

  00056	8d 5e 54	 lea	 ebx, DWORD PTR [esi+84]

; 534  : 	const CList< double, double> &lRowReal = GetConstRowReal();
; 535  : 	for(int column = 1; column < m_lColumn.GetCount() -1; column++)

  00059	bf 01 00 00 00	 mov	 edi, 1
  0005e	48		 dec	 eax
  0005f	3b c7		 cmp	 eax, edi
  00061	7e 53		 jle	 SHORT $LN3@DrawColumn
  00063	8d 46 14	 lea	 eax, DWORD PTR [esi+20]
$LL4@DrawColumn:

; 536  : 	{
; 537  : 		CPoint start = CBlocksPositionCalculator::GetAbsolutePoint( absoluteOrgPt, lRowReal, m_lColumn, column, 0);

  00066	6a 00		 push	 0
  00068	57		 push	 edi
  00069	50		 push	 eax
  0006a	53		 push	 ebx
  0006b	8d 45 ec	 lea	 eax, DWORD PTR _absoluteOrgPt$[ebp]
  0006e	50		 push	 eax
  0006f	8d 45 d4	 lea	 eax, DWORD PTR _start$2[ebp]
  00072	50		 push	 eax
  00073	e8 00 00 00 00	 call	 ?GetAbsolutePoint@CBlocksPositionCalculator@@SA?AVCPoint@@ABV2@ABV?$CList@NN@@1HH@Z ; CBlocksPositionCalculator::GetAbsolutePoint

; 538  : 		CPoint end = CBlocksPositionCalculator::GetAbsolutePoint( absoluteOrgPt, lRowReal, m_lColumn, column, GetRowCount() - 1);

  00078	8b 46 44	 mov	 eax, DWORD PTR [esi+68]
  0007b	48		 dec	 eax
  0007c	50		 push	 eax
  0007d	57		 push	 edi
  0007e	8d 46 14	 lea	 eax, DWORD PTR [esi+20]
  00081	50		 push	 eax
  00082	53		 push	 ebx
  00083	8d 45 ec	 lea	 eax, DWORD PTR _absoluteOrgPt$[ebp]
  00086	50		 push	 eax
  00087	8d 45 dc	 lea	 eax, DWORD PTR _end$3[ebp]
  0008a	50		 push	 eax
  0008b	e8 00 00 00 00	 call	 ?GetAbsolutePoint@CBlocksPositionCalculator@@SA?AVCPoint@@ABV2@ABV?$CList@NN@@1HH@Z ; CBlocksPositionCalculator::GetAbsolutePoint
  00090	83 c4 30	 add	 esp, 48			; 00000030H

; 539  : 		graphFrameDrawer.DrawBlockCompartLine(pDC, start, end, compartLineColor);

  00093	8d 45 dc	 lea	 eax, DWORD PTR _end$3[ebp]
  00096	8d 4d e4	 lea	 ecx, DWORD PTR _graphFrameDrawer$[ebp]
  00099	ff 75 0c	 push	 DWORD PTR _compartLineColor$[ebp]
  0009c	50		 push	 eax
  0009d	8d 45 d4	 lea	 eax, DWORD PTR _start$2[ebp]
  000a0	50		 push	 eax
  000a1	ff 75 08	 push	 DWORD PTR _pDC$[ebp]
  000a4	ff 15 00 00 00
	00		 call	 DWORD PTR __imp_?DrawBlockCompartLine@CGraphFrameDrawer@@QAEXPAVCDC@@ABVCPoint@@1ABK@Z
  000aa	8b 46 20	 mov	 eax, DWORD PTR [esi+32]
  000ad	47		 inc	 edi
  000ae	48		 dec	 eax
  000af	3b f8		 cmp	 edi, eax
  000b1	8d 46 14	 lea	 eax, DWORD PTR [esi+20]
  000b4	7c b0		 jl	 SHORT $LL4@DrawColumn
$LN3@DrawColumn:

; 540  : 	}
; 541  : }

  000b6	8d 4d e4	 lea	 ecx, DWORD PTR _graphFrameDrawer$[ebp]
  000b9	ff 15 00 00 00
	00		 call	 DWORD PTR __imp_??1CGraphFrameDrawer@@UAE@XZ
  000bf	8b 4d f4	 mov	 ecx, DWORD PTR __$EHRec$[ebp]
  000c2	64 89 0d 00 00
	00 00		 mov	 DWORD PTR fs:0, ecx
  000c9	59		 pop	 ecx
  000ca	5f		 pop	 edi
  000cb	5e		 pop	 esi
  000cc	5b		 pop	 ebx
  000cd	8b e5		 mov	 esp, ebp
  000cf	5d		 pop	 ebp
  000d0	c2 08 00	 ret	 8
_TEXT	ENDS
;	COMDAT text$x
text$x	SEGMENT
__unwindfunclet$?DrawColumnCompartLine@CBlocksPosition@@AAEXPAVCDC@@ABK@Z$0:
  00000	8d 4d e4	 lea	 ecx, DWORD PTR _graphFrameDrawer$[ebp]
  00003	ff 25 00 00 00
	00		 jmp	 DWORD PTR __imp_??1CGraphFrameDrawer@@UAE@XZ
  00009	cc		 int	 3
  0000a	cc		 int	 3
  0000b	cc		 int	 3
  0000c	cc		 int	 3
  0000d	cc		 int	 3
__ehhandler$?DrawColumnCompartLine@CBlocksPosition@@AAEXPAVCDC@@ABK@Z:
  0000e	90		 npad	 1
  0000f	90		 npad	 1
  00010	8b 54 24 08	 mov	 edx, DWORD PTR [esp+8]
  00014	8d 42 0c	 lea	 eax, DWORD PTR [edx+12]
  00017	8b 4a d0	 mov	 ecx, DWORD PTR [edx-48]
  0001a	33 c8		 xor	 ecx, eax
  0001c	e8 00 00 00 00	 call	 @__security_check_cookie@4
  00021	b8 00 00 00 00	 mov	 eax, OFFSET __ehfuncinfo$?DrawColumnCompartLine@CBlocksPosition@@AAEXPAVCDC@@ABK@Z
  00026	e9 00 00 00 00	 jmp	 ___CxxFrameHandler3
text$x	ENDS
?DrawColumnCompartLine@CBlocksPosition@@AAEXPAVCDC@@ABK@Z ENDP ; CBlocksPosition::DrawColumnCompartLine
; Function compile flags: /Ogtp
; File D:\git\src\IBK\IBK_DRFN\ProjSrc\SrcChartEx\ChartOCX\ChartObject\BlocksPosition.cpp
; File C:\Program Files (x86)\Microsoft Visual Studio\2019\Community\VC\Tools\MSVC\14.29.30133\atlmfc\include\atltypes.h
; File D:\git\src\IBK\IBK_DRFN\ProjSrc\SrcChartEx\ChartOCX\ChartObject\BlocksPosition.cpp
; File C:\Program Files (x86)\Microsoft Visual Studio\2019\Community\VC\Tools\MSVC\14.29.30133\atlmfc\include\afxtempl.h
; File D:\git\src\IBK\IBK_DRFN\ProjSrc\SrcChartEx\ChartOCX\ChartObject\BlocksPosition.cpp
;	COMDAT ?DrawRowCompartLine@CBlocksPosition@@AAEXPAVCDC@@ABK@Z
_TEXT	SEGMENT
_start$2 = -44						; size = 8
_end$3 = -36						; size = 8
_graphFrameDrawer$ = -28				; size = 8
_absoluteOrgPt$ = -20					; size = 8
__$EHRec$ = -12						; size = 12
_pDC$ = 8						; size = 4
_compartLineColor$ = 12					; size = 4
?DrawRowCompartLine@CBlocksPosition@@AAEXPAVCDC@@ABK@Z PROC ; CBlocksPosition::DrawRowCompartLine, COMDAT
; _this$ = ecx

; 516  : {

  00000	55		 push	 ebp
  00001	8b ec		 mov	 ebp, esp
  00003	6a ff		 push	 -1
  00005	68 00 00 00 00	 push	 __ehhandler$?DrawRowCompartLine@CBlocksPosition@@AAEXPAVCDC@@ABK@Z
  0000a	64 a1 00 00 00
	00		 mov	 eax, DWORD PTR fs:0
  00010	50		 push	 eax
  00011	83 ec 20	 sub	 esp, 32			; 00000020H
  00014	53		 push	 ebx
  00015	56		 push	 esi
  00016	57		 push	 edi
  00017	a1 00 00 00 00	 mov	 eax, DWORD PTR ___security_cookie
  0001c	33 c5		 xor	 eax, ebp
  0001e	50		 push	 eax
  0001f	8d 45 f4	 lea	 eax, DWORD PTR __$EHRec$[ebp]
  00022	64 a3 00 00 00
	00		 mov	 DWORD PTR fs:0, eax
  00028	8b f1		 mov	 esi, ecx

; 517  : 	//    end point   . end.y == start.y
; 518  : 	CPoint absoluteOrgPt(m_allBlockRegion.left, m_allBlockRegion.top);

  0002a	8b 56 08	 mov	 edx, DWORD PTR [esi+8]

; 519  : 	CGraphFrameDrawer graphFrameDrawer;

  0002d	8d 4d e4	 lea	 ecx, DWORD PTR _graphFrameDrawer$[ebp]
; File C:\Program Files (x86)\Microsoft Visual Studio\2019\Community\VC\Tools\MSVC\14.29.30133\atlmfc\include\atltypes.h

; 408  : 	x = initX;

  00030	8b 46 04	 mov	 eax, DWORD PTR [esi+4]
  00033	89 45 ec	 mov	 DWORD PTR _absoluteOrgPt$[ebp], eax

; 409  : 	y = initY;

  00036	89 55 f0	 mov	 DWORD PTR _absoluteOrgPt$[ebp+4], edx
; File D:\git\src\IBK\IBK_DRFN\ProjSrc\SrcChartEx\ChartOCX\ChartObject\BlocksPosition.cpp

; 519  : 	CGraphFrameDrawer graphFrameDrawer;

  00039	ff 15 00 00 00
	00		 call	 DWORD PTR __imp_??0CGraphFrameDrawer@@QAE@XZ
; File C:\Program Files (x86)\Microsoft Visual Studio\2019\Community\VC\Tools\MSVC\14.29.30133\atlmfc\include\afxtempl.h

; 786  : 	{ return m_nCount == 0; }

  0003f	83 7e 60 00	 cmp	 DWORD PTR [esi+96], 0
; File D:\git\src\IBK\IBK_DRFN\ProjSrc\SrcChartEx\ChartOCX\ChartObject\BlocksPosition.cpp

; 519  : 	CGraphFrameDrawer graphFrameDrawer;

  00043	c7 45 fc 00 00
	00 00		 mov	 DWORD PTR __$EHRec$[ebp+8], 0

; 113  : 	if( m_dlRowReal.IsEmpty()) UpdateRowRealFromRowRate();

  0004a	75 07		 jne	 SHORT $LN12@DrawRowCom
  0004c	8b ce		 mov	 ecx, esi
  0004e	e8 00 00 00 00	 call	 ?UpdateRowRealFromRowRate@CBlocksPositionBase@@IAEXXZ ; CBlocksPositionBase::UpdateRowRealFromRowRate
$LN12@DrawRowCom:

; 520  : 	const CList< double, double> &lRowReal = GetConstRowReal();
; 521  : 	for(int row = 1; row < GetRowCount() - 1; row++)

  00053	8b 46 44	 mov	 eax, DWORD PTR [esi+68]

; 114  : 	return m_dlRowReal;

  00056	8d 5e 54	 lea	 ebx, DWORD PTR [esi+84]

; 520  : 	const CList< double, double> &lRowReal = GetConstRowReal();
; 521  : 	for(int row = 1; row < GetRowCount() - 1; row++)

  00059	bf 01 00 00 00	 mov	 edi, 1
  0005e	48		 dec	 eax
  0005f	3b c7		 cmp	 eax, edi
  00061	7e 53		 jle	 SHORT $LN3@DrawRowCom
  00063	8d 46 14	 lea	 eax, DWORD PTR [esi+20]
$LL4@DrawRowCom:

; 522  : 	{
; 523  : 		CPoint start = CBlocksPositionCalculator::GetAbsolutePoint(absoluteOrgPt, lRowReal, m_lColumn, 0, row);

  00066	57		 push	 edi
  00067	6a 00		 push	 0
  00069	50		 push	 eax
  0006a	53		 push	 ebx
  0006b	8d 45 ec	 lea	 eax, DWORD PTR _absoluteOrgPt$[ebp]
  0006e	50		 push	 eax
  0006f	8d 45 d4	 lea	 eax, DWORD PTR _start$2[ebp]
  00072	50		 push	 eax
  00073	e8 00 00 00 00	 call	 ?GetAbsolutePoint@CBlocksPositionCalculator@@SA?AVCPoint@@ABV2@ABV?$CList@NN@@1HH@Z ; CBlocksPositionCalculator::GetAbsolutePoint

; 524  : 		CPoint end = CBlocksPositionCalculator::GetAbsolutePoint(absoluteOrgPt, lRowReal, m_lColumn, (m_lColumn.GetCount()-1), row);

  00078	8b 46 20	 mov	 eax, DWORD PTR [esi+32]
  0007b	57		 push	 edi
  0007c	48		 dec	 eax
  0007d	50		 push	 eax
  0007e	8d 46 14	 lea	 eax, DWORD PTR [esi+20]
  00081	50		 push	 eax
  00082	53		 push	 ebx
  00083	8d 45 ec	 lea	 eax, DWORD PTR _absoluteOrgPt$[ebp]
  00086	50		 push	 eax
  00087	8d 45 dc	 lea	 eax, DWORD PTR _end$3[ebp]
  0008a	50		 push	 eax
  0008b	e8 00 00 00 00	 call	 ?GetAbsolutePoint@CBlocksPositionCalculator@@SA?AVCPoint@@ABV2@ABV?$CList@NN@@1HH@Z ; CBlocksPositionCalculator::GetAbsolutePoint
  00090	83 c4 30	 add	 esp, 48			; 00000030H

; 525  : 		graphFrameDrawer.DrawBlockCompartLine(pDC, start, end, compartLineColor);

  00093	8d 45 dc	 lea	 eax, DWORD PTR _end$3[ebp]
  00096	8d 4d e4	 lea	 ecx, DWORD PTR _graphFrameDrawer$[ebp]
  00099	ff 75 0c	 push	 DWORD PTR _compartLineColor$[ebp]
  0009c	50		 push	 eax
  0009d	8d 45 d4	 lea	 eax, DWORD PTR _start$2[ebp]
  000a0	50		 push	 eax
  000a1	ff 75 08	 push	 DWORD PTR _pDC$[ebp]
  000a4	ff 15 00 00 00
	00		 call	 DWORD PTR __imp_?DrawBlockCompartLine@CGraphFrameDrawer@@QAEXPAVCDC@@ABVCPoint@@1ABK@Z
  000aa	8b 46 44	 mov	 eax, DWORD PTR [esi+68]
  000ad	47		 inc	 edi
  000ae	48		 dec	 eax
  000af	3b f8		 cmp	 edi, eax
  000b1	8d 46 14	 lea	 eax, DWORD PTR [esi+20]
  000b4	7c b0		 jl	 SHORT $LL4@DrawRowCom
$LN3@DrawRowCom:

; 526  : 	}
; 527  : }

  000b6	8d 4d e4	 lea	 ecx, DWORD PTR _graphFrameDrawer$[ebp]
  000b9	ff 15 00 00 00
	00		 call	 DWORD PTR __imp_??1CGraphFrameDrawer@@UAE@XZ
  000bf	8b 4d f4	 mov	 ecx, DWORD PTR __$EHRec$[ebp]
  000c2	64 89 0d 00 00
	00 00		 mov	 DWORD PTR fs:0, ecx
  000c9	59		 pop	 ecx
  000ca	5f		 pop	 edi
  000cb	5e		 pop	 esi
  000cc	5b		 pop	 ebx
  000cd	8b e5		 mov	 esp, ebp
  000cf	5d		 pop	 ebp
  000d0	c2 08 00	 ret	 8
_TEXT	ENDS
;	COMDAT text$x
text$x	SEGMENT
__unwindfunclet$?DrawRowCompartLine@CBlocksPosition@@AAEXPAVCDC@@ABK@Z$0:
  00000	8d 4d e4	 lea	 ecx, DWORD PTR _graphFrameDrawer$[ebp]
  00003	ff 25 00 00 00
	00		 jmp	 DWORD PTR __imp_??1CGraphFrameDrawer@@UAE@XZ
  00009	cc		 int	 3
  0000a	cc		 int	 3
  0000b	cc		 int	 3
  0000c	cc		 int	 3
  0000d	cc		 int	 3
__ehhandler$?DrawRowCompartLine@CBlocksPosition@@AAEXPAVCDC@@ABK@Z:
  0000e	90		 npad	 1
  0000f	90		 npad	 1
  00010	8b 54 24 08	 mov	 edx, DWORD PTR [esp+8]
  00014	8d 42 0c	 lea	 eax, DWORD PTR [edx+12]
  00017	8b 4a d0	 mov	 ecx, DWORD PTR [edx-48]
  0001a	33 c8		 xor	 ecx, eax
  0001c	e8 00 00 00 00	 call	 @__security_check_cookie@4
  00021	b8 00 00 00 00	 mov	 eax, OFFSET __ehfuncinfo$?DrawRowCompartLine@CBlocksPosition@@AAEXPAVCDC@@ABK@Z
  00026	e9 00 00 00 00	 jmp	 ___CxxFrameHandler3
text$x	ENDS
?DrawRowCompartLine@CBlocksPosition@@AAEXPAVCDC@@ABK@Z ENDP ; CBlocksPosition::DrawRowCompartLine
; Function compile flags: /Ogtp
; File D:\git\src\IBK\IBK_DRFN\ProjSrc\SrcChartEx\ChartOCX\ChartObject\BlocksPosition.cpp
;	COMDAT ?IsEqualityPartition@CBlocksPosition@@ABE_NHH@Z
_TEXT	SEGMENT
_blockCount$ = 8					; size = 4
_doubleSizeBlockNum$ = 12				; size = 4
?IsEqualityPartition@CBlocksPosition@@ABE_NHH@Z PROC	; CBlocksPosition::IsEqualityPartition, COMDAT
; _this$ = ecx

; 510  : {

  00000	55		 push	 ebp
  00001	8b ec		 mov	 ebp, esp

; 511  : 	return (blockCount == 1 || doubleSizeBlockNum < 0 || doubleSizeBlockNum >= blockCount);

  00003	8b 45 08	 mov	 eax, DWORD PTR _blockCount$[ebp]
  00006	83 f8 01	 cmp	 eax, 1
  00009	74 11		 je	 SHORT $LN3@IsEquality
  0000b	8b 4d 0c	 mov	 ecx, DWORD PTR _doubleSizeBlockNum$[ebp]
  0000e	85 c9		 test	 ecx, ecx
  00010	78 0a		 js	 SHORT $LN3@IsEquality
  00012	3b c8		 cmp	 ecx, eax
  00014	7d 06		 jge	 SHORT $LN3@IsEquality
  00016	32 c0		 xor	 al, al

; 512  : }

  00018	5d		 pop	 ebp
  00019	c2 08 00	 ret	 8
$LN3@IsEquality:

; 511  : 	return (blockCount == 1 || doubleSizeBlockNum < 0 || doubleSizeBlockNum >= blockCount);

  0001c	b0 01		 mov	 al, 1

; 512  : }

  0001e	5d		 pop	 ebp
  0001f	c2 08 00	 ret	 8
?IsEqualityPartition@CBlocksPosition@@ABE_NHH@Z ENDP	; CBlocksPosition::IsEqualityPartition
_TEXT	ENDS
; Function compile flags: /Ogtp
; File D:\git\src\IBK\IBK_DRFN\ProjSrc\SrcChartEx\ChartOCX\ChartObject\BlocksPosition.cpp
; File C:\Program Files (x86)\Microsoft Visual Studio\2019\Community\VC\Tools\MSVC\14.29.30133\atlmfc\include\afxtempl.h
; File D:\git\src\IBK\IBK_DRFN\ProjSrc\SrcChartEx\ChartOCX\ChartObject\BlocksPosition.cpp
; File C:\Program Files (x86)\Microsoft Visual Studio\2019\Community\VC\Tools\MSVC\14.29.30133\atlmfc\include\afxtempl.h
; File D:\git\src\IBK\IBK_DRFN\ProjSrc\SrcChartEx\ChartOCX\ChartObject\BlocksPosition.cpp
; File C:\Program Files (x86)\Microsoft Visual Studio\2019\Community\VC\Tools\MSVC\14.29.30133\atlmfc\include\afxtempl.h
; File D:\git\src\IBK\IBK_DRFN\ProjSrc\SrcChartEx\ChartOCX\ChartObject\BlocksPosition.cpp
;	COMDAT ?Add@CBlocksPosition@@AAEXAAV?$CList@NN@@HHH@Z
_TEXT	SEGMENT
_positionList$ = 8					; size = 4
_blockCount$ = 12					; size = 4
_doubleSizeBlockNum$ = 16				; size = 4
_allRegionLength$ = 20					; size = 4
?Add@CBlocksPosition@@AAEXAAV?$CList@NN@@HHH@Z PROC	; CBlocksPosition::Add, COMDAT
; _this$ = ecx

; 492  : {

  00000	55		 push	 ebp
  00001	8b ec		 mov	 ebp, esp
  00003	56		 push	 esi
; File C:\Program Files (x86)\Microsoft Visual Studio\2019\Community\VC\Tools\MSVC\14.29.30133\atlmfc\include\afxtempl.h

; 870  : 	m_nCount = 0;

  00004	8b 75 08	 mov	 esi, DWORD PTR _positionList$[ebp]
; File D:\git\src\IBK\IBK_DRFN\ProjSrc\SrcChartEx\ChartOCX\ChartObject\BlocksPosition.cpp

; 492  : {

  00007	57		 push	 edi
  00008	8b f9		 mov	 edi, ecx
; File C:\Program Files (x86)\Microsoft Visual Studio\2019\Community\VC\Tools\MSVC\14.29.30133\atlmfc\include\afxtempl.h

; 872  : 	m_pBlocks->FreeDataChain();

  0000a	8b 4e 14	 mov	 ecx, DWORD PTR [esi+20]
  0000d	c7 46 0c 00 00
	00 00		 mov	 DWORD PTR [esi+12], 0
  00014	c7 46 10 00 00
	00 00		 mov	 DWORD PTR [esi+16], 0
  0001b	c7 46 08 00 00
	00 00		 mov	 DWORD PTR [esi+8], 0
  00022	c7 46 04 00 00
	00 00		 mov	 DWORD PTR [esi+4], 0
  00029	e8 00 00 00 00	 call	 ?FreeDataChain@CPlex@@QAEXXZ ; CPlex::FreeDataChain
; File D:\git\src\IBK\IBK_DRFN\ProjSrc\SrcChartEx\ChartOCX\ChartObject\BlocksPosition.cpp

; 494  : 	if(blockCount <= 0)

  0002e	8b 45 0c	 mov	 eax, DWORD PTR _blockCount$[ebp]
; File C:\Program Files (x86)\Microsoft Visual Studio\2019\Community\VC\Tools\MSVC\14.29.30133\atlmfc\include\afxtempl.h

; 873  : 	m_pBlocks = NULL;

  00031	c7 46 14 00 00
	00 00		 mov	 DWORD PTR [esi+20], 0
; File D:\git\src\IBK\IBK_DRFN\ProjSrc\SrcChartEx\ChartOCX\ChartObject\BlocksPosition.cpp

; 494  : 	if(blockCount <= 0)

  00038	85 c0		 test	 eax, eax
  0003a	7e 3d		 jle	 SHORT $LN4@Add

; 511  : 	return (blockCount == 1 || doubleSizeBlockNum < 0 || doubleSizeBlockNum >= blockCount);

  0003c	83 f8 01	 cmp	 eax, 1
  0003f	74 25		 je	 SHORT $LN13@Add
  00041	8b 4d 10	 mov	 ecx, DWORD PTR _doubleSizeBlockNum$[ebp]
  00044	85 c9		 test	 ecx, ecx
  00046	78 1e		 js	 SHORT $LN13@Add
  00048	3b c8		 cmp	 ecx, eax
  0004a	7d 1a		 jge	 SHORT $LN13@Add

; 500  : 			allRegionLength, m_nInterBlockHalfGap, m_nCompartLineThickness);
; 501  : 	}
; 502  : 	// 2 
; 503  : 	else{
; 504  : 		CBlocksPositionCalculator::Add_DoubleSize(positionList, blockCount, 

  0004c	ff 77 74	 push	 DWORD PTR [edi+116]
  0004f	ff 77 70	 push	 DWORD PTR [edi+112]
  00052	ff 75 14	 push	 DWORD PTR _allRegionLength$[ebp]
  00055	51		 push	 ecx
  00056	50		 push	 eax
  00057	56		 push	 esi
  00058	e8 00 00 00 00	 call	 ?Add_DoubleSize@CBlocksPositionCalculator@@SAXAAV?$CList@NN@@HHHHH@Z ; CBlocksPositionCalculator::Add_DoubleSize
  0005d	83 c4 18	 add	 esp, 24			; 00000018H
  00060	5f		 pop	 edi

; 505  : 			doubleSizeBlockNum, allRegionLength, m_nInterBlockHalfGap, m_nCompartLineThickness);
; 506  : 	}
; 507  : }

  00061	5e		 pop	 esi
  00062	5d		 pop	 ebp
  00063	c2 10 00	 ret	 16			; 00000010H
$LN13@Add:

; 495  : 		return;
; 496  : 
; 497  : 	//  
; 498  : 	if(IsEqualityPartition(blockCount, doubleSizeBlockNum)){
; 499  : 		CBlocksPositionCalculator::Add_EqualityPartition(positionList, blockCount, 

  00066	ff 77 74	 push	 DWORD PTR [edi+116]
  00069	ff 77 70	 push	 DWORD PTR [edi+112]
  0006c	ff 75 14	 push	 DWORD PTR _allRegionLength$[ebp]
  0006f	50		 push	 eax
  00070	56		 push	 esi
  00071	e8 00 00 00 00	 call	 ?Add_EqualityPartition@CBlocksPositionCalculator@@SAXAAV?$CList@NN@@HHHH@Z ; CBlocksPositionCalculator::Add_EqualityPartition
  00076	83 c4 14	 add	 esp, 20			; 00000014H
$LN4@Add:

; 505  : 			doubleSizeBlockNum, allRegionLength, m_nInterBlockHalfGap, m_nCompartLineThickness);
; 506  : 	}
; 507  : }

  00079	5f		 pop	 edi
  0007a	5e		 pop	 esi
  0007b	5d		 pop	 ebp
  0007c	c2 10 00	 ret	 16			; 00000010H
?Add@CBlocksPosition@@AAEXAAV?$CList@NN@@HHH@Z ENDP	; CBlocksPosition::Add
_TEXT	ENDS
; Function compile flags: /Ogtp
; File D:\git\src\IBK\IBK_DRFN\ProjSrc\SrcChartEx\ChartOCX\ChartObject\BlocksPosition.cpp
;	COMDAT ?IsBiggerThanMinMainRegion@CBlocksPosition@@ABE_NHHH@Z
_TEXT	SEGMENT
_blockCount$ = 8					; size = 4
_allBlocksRegion$ = 12					; size = 4
_interBlockHalfGap$ = 16				; size = 4
?IsBiggerThanMinMainRegion@CBlocksPosition@@ABE_NHHH@Z PROC ; CBlocksPosition::IsBiggerThanMinMainRegion, COMDAT
; _this$ = ecx

; 484  : {

  00000	55		 push	 ebp
  00001	8b ec		 mov	 ebp, esp

; 485  : 	return CBlocksPositionCalculator::IsBiggerThanMinMainRegion(blockCount, allBlocksRegion, interBlockHalfGap*2, m_nCompartLineThickness);

  00003	ff 71 74	 push	 DWORD PTR [ecx+116]
  00006	8b 45 10	 mov	 eax, DWORD PTR _interBlockHalfGap$[ebp]
  00009	03 c0		 add	 eax, eax
  0000b	50		 push	 eax
  0000c	ff 75 0c	 push	 DWORD PTR _allBlocksRegion$[ebp]
  0000f	ff 75 08	 push	 DWORD PTR _blockCount$[ebp]
  00012	e8 00 00 00 00	 call	 ?IsBiggerThanMinMainRegion@CBlocksPositionCalculator@@SA_NHHHH@Z ; CBlocksPositionCalculator::IsBiggerThanMinMainRegion
  00017	83 c4 10	 add	 esp, 16			; 00000010H

; 486  : }

  0001a	5d		 pop	 ebp
  0001b	c2 0c 00	 ret	 12			; 0000000cH
?IsBiggerThanMinMainRegion@CBlocksPosition@@ABE_NHHH@Z ENDP ; CBlocksPosition::IsBiggerThanMinMainRegion
_TEXT	ENDS
; Function compile flags: /Ogtp
; File D:\git\src\IBK\IBK_DRFN\ProjSrc\SrcChartEx\ChartOCX\ChartObject\BlocksPosition.cpp
;	COMDAT ?IsBiggerThanMinMainRegion@CBlocksPosition@@ABE_NABVCRect@@ABVCBlockIndex@@H@Z
_TEXT	SEGMENT
tv177 = 8						; size = 4
_allBlockRegion$ = 8					; size = 4
_blockCount$ = 12					; size = 4
_interBlockHalfGap$ = 16				; size = 4
?IsBiggerThanMinMainRegion@CBlocksPosition@@ABE_NABVCRect@@ABVCBlockIndex@@H@Z PROC ; CBlocksPosition::IsBiggerThanMinMainRegion, COMDAT
; _this$ = ecx

; 476  : {

  00000	55		 push	 ebp
  00001	8b ec		 mov	 ebp, esp

; 485  : 	return CBlocksPositionCalculator::IsBiggerThanMinMainRegion(blockCount, allBlocksRegion, interBlockHalfGap*2, m_nCompartLineThickness);

  00003	8b 45 10	 mov	 eax, DWORD PTR _interBlockHalfGap$[ebp]

; 476  : {

  00006	53		 push	 ebx

; 477  : 	if(!IsBiggerThanMinMainRegion(blockCount.GetRow(), (allBlockRegion.bottom - allBlockRegion.top), interBlockHalfGap))

  00007	8b 5d 0c	 mov	 ebx, DWORD PTR _blockCount$[ebp]

; 485  : 	return CBlocksPositionCalculator::IsBiggerThanMinMainRegion(blockCount, allBlocksRegion, interBlockHalfGap*2, m_nCompartLineThickness);

  0000a	03 c0		 add	 eax, eax

; 476  : {

  0000c	56		 push	 esi

; 477  : 	if(!IsBiggerThanMinMainRegion(blockCount.GetRow(), (allBlockRegion.bottom - allBlockRegion.top), interBlockHalfGap))

  0000d	8b 75 08	 mov	 esi, DWORD PTR _allBlockRegion$[ebp]
  00010	57		 push	 edi
  00011	8b f9		 mov	 edi, ecx

; 485  : 	return CBlocksPositionCalculator::IsBiggerThanMinMainRegion(blockCount, allBlocksRegion, interBlockHalfGap*2, m_nCompartLineThickness);

  00013	89 45 08	 mov	 DWORD PTR tv177[ebp], eax

; 477  : 	if(!IsBiggerThanMinMainRegion(blockCount.GetRow(), (allBlockRegion.bottom - allBlockRegion.top), interBlockHalfGap))

  00016	8b 56 0c	 mov	 edx, DWORD PTR [esi+12]
  00019	2b 56 04	 sub	 edx, DWORD PTR [esi+4]

; 485  : 	return CBlocksPositionCalculator::IsBiggerThanMinMainRegion(blockCount, allBlocksRegion, interBlockHalfGap*2, m_nCompartLineThickness);

  0001c	ff 77 74	 push	 DWORD PTR [edi+116]
  0001f	50		 push	 eax
  00020	52		 push	 edx
  00021	ff 33		 push	 DWORD PTR [ebx]
  00023	e8 00 00 00 00	 call	 ?IsBiggerThanMinMainRegion@CBlocksPositionCalculator@@SA_NHHHH@Z ; CBlocksPositionCalculator::IsBiggerThanMinMainRegion
  00028	83 c4 10	 add	 esp, 16			; 00000010H

; 477  : 	if(!IsBiggerThanMinMainRegion(blockCount.GetRow(), (allBlockRegion.bottom - allBlockRegion.top), interBlockHalfGap))

  0002b	84 c0		 test	 al, al
  0002d	75 07		 jne	 SHORT $LN2@IsBiggerTh

; 481  : }

  0002f	5f		 pop	 edi
  00030	5e		 pop	 esi
  00031	5b		 pop	 ebx
  00032	5d		 pop	 ebp
  00033	c2 0c 00	 ret	 12			; 0000000cH
$LN2@IsBiggerTh:

; 485  : 	return CBlocksPositionCalculator::IsBiggerThanMinMainRegion(blockCount, allBlocksRegion, interBlockHalfGap*2, m_nCompartLineThickness);

  00036	ff 77 74	 push	 DWORD PTR [edi+116]

; 478  : 		return false;
; 479  : 
; 480  : 	return IsBiggerThanMinMainRegion(blockCount.GetColumn(), (allBlockRegion.right - allBlockRegion.left), interBlockHalfGap);

  00039	8b 46 08	 mov	 eax, DWORD PTR [esi+8]

; 485  : 	return CBlocksPositionCalculator::IsBiggerThanMinMainRegion(blockCount, allBlocksRegion, interBlockHalfGap*2, m_nCompartLineThickness);

  0003c	ff 75 08	 push	 DWORD PTR tv177[ebp]

; 478  : 		return false;
; 479  : 
; 480  : 	return IsBiggerThanMinMainRegion(blockCount.GetColumn(), (allBlockRegion.right - allBlockRegion.left), interBlockHalfGap);

  0003f	2b 06		 sub	 eax, DWORD PTR [esi]

; 485  : 	return CBlocksPositionCalculator::IsBiggerThanMinMainRegion(blockCount, allBlocksRegion, interBlockHalfGap*2, m_nCompartLineThickness);

  00041	50		 push	 eax
  00042	ff 73 04	 push	 DWORD PTR [ebx+4]
  00045	e8 00 00 00 00	 call	 ?IsBiggerThanMinMainRegion@CBlocksPositionCalculator@@SA_NHHHH@Z ; CBlocksPositionCalculator::IsBiggerThanMinMainRegion
  0004a	83 c4 10	 add	 esp, 16			; 00000010H
  0004d	5f		 pop	 edi

; 481  : }

  0004e	5e		 pop	 esi
  0004f	5b		 pop	 ebx
  00050	5d		 pop	 ebp
  00051	c2 0c 00	 ret	 12			; 0000000cH
?IsBiggerThanMinMainRegion@CBlocksPosition@@ABE_NABVCRect@@ABVCBlockIndex@@H@Z ENDP ; CBlocksPosition::IsBiggerThanMinMainRegion
_TEXT	ENDS
; Function compile flags: /Ogtp
; File D:\git\src\IBK\IBK_DRFN\ProjSrc\SrcChartEx\ChartOCX\ChartObject\BlocksPosition.cpp
; File C:\Program Files (x86)\Microsoft Visual Studio\2019\Community\VC\Tools\MSVC\14.29.30133\atlmfc\include\afxtempl.h
; File D:\git\src\IBK\IBK_DRFN\ProjSrc\SrcChartEx\ChartOCX\ChartObject\BlocksPosition.cpp
; File C:\Program Files (x86)\Microsoft Visual Studio\2019\Community\VC\Tools\MSVC\14.29.30133\atlmfc\include\afxtempl.h
; File D:\git\src\IBK\IBK_DRFN\ProjSrc\SrcChartEx\ChartOCX\ChartObject\BlocksPosition.cpp
;	COMDAT ?MoveBlockPosition@CBlocksPosition@@QAE_NHHW4BLOCKTYPE@CBlockBaseData@@@Z
_TEXT	SEGMENT
_sourceIndex$ = 8					; size = 4
_targetIndex$ = 12					; size = 4
_type$ = 16						; size = 4
?MoveBlockPosition@CBlocksPosition@@QAE_NHHW4BLOCKTYPE@CBlockBaseData@@@Z PROC ; CBlocksPosition::MoveBlockPosition, COMDAT
; _this$ = ecx

; 459  : {

  00000	55		 push	 ebp
  00001	8b ec		 mov	 ebp, esp

; 460  : 	if(type == CBlockBaseData::ROW)

  00003	8b 45 10	 mov	 eax, DWORD PTR _type$[ebp]
  00006	56		 push	 esi
  00007	8b f1		 mov	 esi, ecx
  00009	85 c0		 test	 eax, eax
  0000b	75 32		 jne	 SHORT $LN2@MoveBlockP
; File C:\Program Files (x86)\Microsoft Visual Studio\2019\Community\VC\Tools\MSVC\14.29.30133\atlmfc\include\afxtempl.h

; 872  : 	m_pBlocks->FreeDataChain();

  0000d	8b 4e 68	 mov	 ecx, DWORD PTR [esi+104]
  00010	89 46 60	 mov	 DWORD PTR [esi+96], eax
  00013	89 46 64	 mov	 DWORD PTR [esi+100], eax
  00016	89 46 5c	 mov	 DWORD PTR [esi+92], eax
  00019	89 46 58	 mov	 DWORD PTR [esi+88], eax
  0001c	e8 00 00 00 00	 call	 ?FreeDataChain@CPlex@@QAEXXZ ; CPlex::FreeDataChain
; File D:\git\src\IBK\IBK_DRFN\ProjSrc\SrcChartEx\ChartOCX\ChartObject\BlocksPosition.cpp

; 463  : 		return CBlocksPositionCalculator::MoveBlockPosition( lRowRate, sourceIndex, targetIndex);

  00021	ff 75 0c	 push	 DWORD PTR _targetIndex$[ebp]

; 38   : 	return m_dlRowRate;

  00024	8d 46 38	 lea	 eax, DWORD PTR [esi+56]
; File C:\Program Files (x86)\Microsoft Visual Studio\2019\Community\VC\Tools\MSVC\14.29.30133\atlmfc\include\afxtempl.h

; 873  : 	m_pBlocks = NULL;

  00027	c7 46 68 00 00
	00 00		 mov	 DWORD PTR [esi+104], 0
; File D:\git\src\IBK\IBK_DRFN\ProjSrc\SrcChartEx\ChartOCX\ChartObject\BlocksPosition.cpp

; 463  : 		return CBlocksPositionCalculator::MoveBlockPosition( lRowRate, sourceIndex, targetIndex);

  0002e	ff 75 08	 push	 DWORD PTR _sourceIndex$[ebp]
  00031	50		 push	 eax
  00032	e8 00 00 00 00	 call	 ?MoveBlockPosition@CBlocksPositionCalculator@@SA_NAAV?$CList@NN@@HH@Z ; CBlocksPositionCalculator::MoveBlockPosition
  00037	83 c4 0c	 add	 esp, 12			; 0000000cH
  0003a	5e		 pop	 esi

; 469  : }

  0003b	5d		 pop	 ebp
  0003c	c2 0c 00	 ret	 12			; 0000000cH
$LN2@MoveBlockP:

; 464  : 	}
; 465  : 	else if(type == CBlockBaseData::COLUMN)

  0003f	83 f8 01	 cmp	 eax, 1
  00042	75 17		 jne	 SHORT $LN4@MoveBlockP

; 466  : 		return CBlocksPositionCalculator::MoveBlockPosition(m_lColumn, sourceIndex, targetIndex);

  00044	ff 75 0c	 push	 DWORD PTR _targetIndex$[ebp]
  00047	8d 46 14	 lea	 eax, DWORD PTR [esi+20]
  0004a	ff 75 08	 push	 DWORD PTR _sourceIndex$[ebp]
  0004d	50		 push	 eax
  0004e	e8 00 00 00 00	 call	 ?MoveBlockPosition@CBlocksPositionCalculator@@SA_NAAV?$CList@NN@@HH@Z ; CBlocksPositionCalculator::MoveBlockPosition
  00053	83 c4 0c	 add	 esp, 12			; 0000000cH
  00056	5e		 pop	 esi

; 469  : }

  00057	5d		 pop	 ebp
  00058	c2 0c 00	 ret	 12			; 0000000cH
$LN4@MoveBlockP:

; 467  : 
; 468  : 	return false;

  0005b	32 c0		 xor	 al, al
  0005d	5e		 pop	 esi

; 469  : }

  0005e	5d		 pop	 ebp
  0005f	c2 0c 00	 ret	 12			; 0000000cH
?MoveBlockPosition@CBlocksPosition@@QAE_NHHW4BLOCKTYPE@CBlockBaseData@@@Z ENDP ; CBlocksPosition::MoveBlockPosition
_TEXT	ENDS
; Function compile flags: /Ogtp
; File D:\git\src\IBK\IBK_DRFN\ProjSrc\SrcChartEx\ChartOCX\ChartObject\BlocksPosition.cpp
; File C:\Program Files (x86)\Microsoft Visual Studio\2019\Community\VC\Tools\MSVC\14.29.30133\atlmfc\include\afxtempl.h
; File D:\git\src\IBK\IBK_DRFN\ProjSrc\SrcChartEx\ChartOCX\ChartObject\BlocksPosition.cpp
; File C:\Program Files (x86)\Microsoft Visual Studio\2019\Community\VC\Tools\MSVC\14.29.30133\atlmfc\include\afxtempl.h
; File D:\git\src\IBK\IBK_DRFN\ProjSrc\SrcChartEx\ChartOCX\ChartObject\BlocksPosition.cpp
; File C:\Program Files (x86)\Microsoft Visual Studio\2019\Community\VC\Tools\MSVC\14.29.30133\atlmfc\include\afxtempl.h
; File D:\git\src\IBK\IBK_DRFN\ProjSrc\SrcChartEx\ChartOCX\ChartObject\BlocksPosition.cpp
; File C:\Program Files (x86)\Microsoft Visual Studio\2019\Community\VC\Tools\MSVC\14.29.30133\atlmfc\include\afxtempl.h
; File D:\git\src\IBK\IBK_DRFN\ProjSrc\SrcChartEx\ChartOCX\ChartObject\BlocksPosition.cpp
; File C:\Program Files (x86)\Microsoft Visual Studio\2019\Community\VC\Tools\MSVC\14.29.30133\atlmfc\include\afxtempl.h
; File D:\git\src\IBK\IBK_DRFN\ProjSrc\SrcChartEx\ChartOCX\ChartObject\BlocksPosition.cpp
; File C:\Program Files (x86)\Microsoft Visual Studio\2019\Community\VC\Tools\MSVC\14.29.30133\atlmfc\include\afxtempl.h
; File D:\git\src\IBK\IBK_DRFN\ProjSrc\SrcChartEx\ChartOCX\ChartObject\BlocksPosition.cpp
; File C:\Program Files (x86)\Microsoft Visual Studio\2019\Community\VC\Tools\MSVC\14.29.30133\atlmfc\include\afxtempl.h
; File D:\git\src\IBK\IBK_DRFN\ProjSrc\SrcChartEx\ChartOCX\ChartObject\BlocksPosition.cpp
; File C:\Program Files (x86)\Microsoft Visual Studio\2019\Community\VC\Tools\MSVC\14.29.30133\atlmfc\include\afxtempl.h
; File D:\git\src\IBK\IBK_DRFN\ProjSrc\SrcChartEx\ChartOCX\ChartObject\BlocksPosition.cpp
; File C:\Program Files (x86)\Microsoft Visual Studio\2019\Community\VC\Tools\MSVC\14.29.30133\atlmfc\include\afxtempl.h
; File D:\git\src\IBK\IBK_DRFN\ProjSrc\SrcChartEx\ChartOCX\ChartObject\BlocksPosition.cpp
;	COMDAT ?MoveBlocksPosition@CBlocksPosition@@QAE_NABVCPoint@@ABVCBlockIndex@@@Z
_TEXT	SEGMENT
_lnSumOfHScaleHeight$2 = -40				; size = 28
__$EHRec$ = -12						; size = 12
_point$ = 8						; size = 4
_rowCompartLineNum$1$ = 12				; size = 4
_compartLineIndex$ = 12					; size = 4
?MoveBlocksPosition@CBlocksPosition@@QAE_NABVCPoint@@ABVCBlockIndex@@@Z PROC ; CBlocksPosition::MoveBlocksPosition, COMDAT
; _this$ = ecx

; 452  : {

  00000	55		 push	 ebp
  00001	8b ec		 mov	 ebp, esp
  00003	6a ff		 push	 -1
  00005	68 00 00 00 00	 push	 __ehhandler$?MoveBlocksPosition@CBlocksPosition@@QAE_NABVCPoint@@ABVCBlockIndex@@@Z
  0000a	64 a1 00 00 00
	00		 mov	 eax, DWORD PTR fs:0
  00010	50		 push	 eax
  00011	83 ec 1c	 sub	 esp, 28			; 0000001cH
  00014	53		 push	 ebx
  00015	56		 push	 esi
  00016	57		 push	 edi
  00017	a1 00 00 00 00	 mov	 eax, DWORD PTR ___security_cookie
  0001c	33 c5		 xor	 eax, ebp
  0001e	50		 push	 eax
  0001f	8d 45 f4	 lea	 eax, DWORD PTR __$EHRec$[ebp]
  00022	64 a3 00 00 00
	00		 mov	 DWORD PTR fs:0, eax
  00028	8b f9		 mov	 edi, ecx
; File C:\Program Files (x86)\Microsoft Visual Studio\2019\Community\VC\Tools\MSVC\14.29.30133\atlmfc\include\afxtempl.h

; 786  : 	{ return m_nCount == 0; }

  0002a	83 7f 60 00	 cmp	 DWORD PTR [edi+96], 0
; File D:\git\src\IBK\IBK_DRFN\ProjSrc\SrcChartEx\ChartOCX\ChartObject\BlocksPosition.cpp

; 453  : 	return CBlocksPositionBase::MoveBlocksPosition( m_lColumn, point, compartLineIndex.GetRow(), compartLineIndex.GetColumn());

  0002e	8b 45 0c	 mov	 eax, DWORD PTR _compartLineIndex$[ebp]
  00031	8b 58 04	 mov	 ebx, DWORD PTR [eax+4]
  00034	8b 00		 mov	 eax, DWORD PTR [eax]
  00036	89 45 0c	 mov	 DWORD PTR _rowCompartLineNum$1$[ebp], eax

; 113  : 	if( m_dlRowReal.IsEmpty()) UpdateRowRealFromRowRate();

  00039	75 08		 jne	 SHORT $LN10@MoveBlocks
  0003b	e8 00 00 00 00	 call	 ?UpdateRowRealFromRowRate@CBlocksPositionBase@@IAEXXZ ; CBlocksPositionBase::UpdateRowRealFromRowRate
  00040	8b 45 0c	 mov	 eax, DWORD PTR _rowCompartLineNum$1$[ebp]
$LN10@MoveBlocks:

; 126  : 	bool bResult = CBlocksPositionCalculator::MoveBlocksPosition( lRowReal, columnList, point, rowCompartLineNum, columnCompartLineNum);

  00043	53		 push	 ebx
  00044	50		 push	 eax
  00045	ff 75 08	 push	 DWORD PTR _point$[ebp]

; 453  : 	return CBlocksPositionBase::MoveBlocksPosition( m_lColumn, point, compartLineIndex.GetRow(), compartLineIndex.GetColumn());

  00048	8d 47 14	 lea	 eax, DWORD PTR [edi+20]

; 126  : 	bool bResult = CBlocksPositionCalculator::MoveBlocksPosition( lRowReal, columnList, point, rowCompartLineNum, columnCompartLineNum);

  0004b	50		 push	 eax

; 114  : 	return m_dlRowReal;

  0004c	8d 77 54	 lea	 esi, DWORD PTR [edi+84]

; 126  : 	bool bResult = CBlocksPositionCalculator::MoveBlocksPosition( lRowReal, columnList, point, rowCompartLineNum, columnCompartLineNum);

  0004f	56		 push	 esi
  00050	e8 00 00 00 00	 call	 ?MoveBlocksPosition@CBlocksPositionCalculator@@SA_NAAV?$CList@NN@@0ABVCPoint@@HH@Z ; CBlocksPositionCalculator::MoveBlocksPosition
; File C:\Program Files (x86)\Microsoft Visual Studio\2019\Community\VC\Tools\MSVC\14.29.30133\atlmfc\include\afxtempl.h

; 872  : 	m_pBlocks->FreeDataChain();

  00055	8b 4f 4c	 mov	 ecx, DWORD PTR [edi+76]
; File D:\git\src\IBK\IBK_DRFN\ProjSrc\SrcChartEx\ChartOCX\ChartObject\BlocksPosition.cpp

; 126  : 	bool bResult = CBlocksPositionCalculator::MoveBlocksPosition( lRowReal, columnList, point, rowCompartLineNum, columnCompartLineNum);

  00058	83 c4 14	 add	 esp, 20			; 00000014H
  0005b	8a d8		 mov	 bl, al
; File C:\Program Files (x86)\Microsoft Visual Studio\2019\Community\VC\Tools\MSVC\14.29.30133\atlmfc\include\afxtempl.h

; 870  : 	m_nCount = 0;

  0005d	c7 47 44 00 00
	00 00		 mov	 DWORD PTR [edi+68], 0

; 871  : 	m_pNodeHead = m_pNodeTail = m_pNodeFree = NULL;

  00064	c7 47 48 00 00
	00 00		 mov	 DWORD PTR [edi+72], 0
  0006b	c7 47 40 00 00
	00 00		 mov	 DWORD PTR [edi+64], 0
  00072	c7 47 3c 00 00
	00 00		 mov	 DWORD PTR [edi+60], 0

; 872  : 	m_pBlocks->FreeDataChain();

  00079	e8 00 00 00 00	 call	 ?FreeDataChain@CPlex@@QAEXXZ ; CPlex::FreeDataChain
; File D:\git\src\IBK\IBK_DRFN\ProjSrc\SrcChartEx\ChartOCX\ChartObject\BlocksPosition.cpp

; 132  : 	m_dlRowRate.AddTail( &m_dlRowReal);

  0007e	56		 push	 esi
  0007f	8d 4f 38	 lea	 ecx, DWORD PTR [edi+56]
; File C:\Program Files (x86)\Microsoft Visual Studio\2019\Community\VC\Tools\MSVC\14.29.30133\atlmfc\include\afxtempl.h

; 873  : 	m_pBlocks = NULL;

  00082	c7 47 4c 00 00
	00 00		 mov	 DWORD PTR [edi+76], 0
; File D:\git\src\IBK\IBK_DRFN\ProjSrc\SrcChartEx\ChartOCX\ChartObject\BlocksPosition.cpp

; 132  : 	m_dlRowRate.AddTail( &m_dlRowReal);

  00089	e8 00 00 00 00	 call	 ?AddTail@?$CList@NN@@QAEXPAV1@@Z ; CList<double,double>::AddTail

; 133  : 
; 134  : 	// 2. Check the 0 or 1 Block.
; 135  : 	if( m_dlRowRate.GetCount() < 3) return bResult;

  0008e	83 7f 44 03	 cmp	 DWORD PTR [edi+68], 3
  00092	0f 8c ab 00 00
	00		 jl	 $LN49@MoveBlocks
; File C:\Program Files (x86)\Microsoft Visual Studio\2019\Community\VC\Tools\MSVC\14.29.30133\atlmfc\include\afxtempl.h

; 851  : {

  00098	c7 45 d8 00 00
	00 00		 mov	 DWORD PTR _lnSumOfHScaleHeight$2[ebp], OFFSET ??_7?$CList@HH@@6B@

; 852  : 	ASSERT(nBlockSize > 0);
; 853  : 
; 854  : 	m_nCount = 0;

  0009f	c7 45 e4 00 00
	00 00		 mov	 DWORD PTR _lnSumOfHScaleHeight$2[ebp+12], 0

; 855  : 	m_pNodeHead = m_pNodeTail = m_pNodeFree = NULL;

  000a6	c7 45 e8 00 00
	00 00		 mov	 DWORD PTR _lnSumOfHScaleHeight$2[ebp+16], 0
  000ad	c7 45 e0 00 00
	00 00		 mov	 DWORD PTR _lnSumOfHScaleHeight$2[ebp+8], 0
  000b4	c7 45 dc 00 00
	00 00		 mov	 DWORD PTR _lnSumOfHScaleHeight$2[ebp+4], 0

; 856  : 	m_pBlocks = NULL;

  000bb	c7 45 ec 00 00
	00 00		 mov	 DWORD PTR _lnSumOfHScaleHeight$2[ebp+20], 0

; 857  : 	m_nBlockSize = nBlockSize;

  000c2	c7 45 f0 0a 00
	00 00		 mov	 DWORD PTR _lnSumOfHScaleHeight$2[ebp+24], 10 ; 0000000aH
; File D:\git\src\IBK\IBK_DRFN\ProjSrc\SrcChartEx\ChartOCX\ChartObject\BlocksPosition.cpp

; 139  : 	m_pMainBlock->GetSumOfHorzScaleHeightForEachBlock( lnSumOfHScaleHeight);

  000c9	8b 0f		 mov	 ecx, DWORD PTR [edi]
  000cb	8d 45 d8	 lea	 eax, DWORD PTR _lnSumOfHScaleHeight$2[ebp]
  000ce	50		 push	 eax
  000cf	c7 45 fc 00 00
	00 00		 mov	 DWORD PTR __$EHRec$[ebp+8], 0
  000d6	e8 00 00 00 00	 call	 ?GetSumOfHorzScaleHeightForEachBlock@CMainBlockImp@@QAEXAAV?$CList@HH@@@Z ; CMainBlockImp::GetSumOfHorzScaleHeightForEachBlock
; File C:\Program Files (x86)\Microsoft Visual Studio\2019\Community\VC\Tools\MSVC\14.29.30133\atlmfc\include\afxtempl.h

; 811  : 	{ CNode* pNode = (CNode*) rPosition;

  000db	8b 47 3c	 mov	 eax, DWORD PTR [edi+60]
; File D:\git\src\IBK\IBK_DRFN\ProjSrc\SrcChartEx\ChartOCX\ChartObject\BlocksPosition.cpp

; 144  : 	int nScaleHeightSum = 0;

  000de	33 d2		 xor	 edx, edx

; 145  : 	POSITION psnRow = m_dlRowRate.GetHeadPosition();
; 146  : 	m_dlRowRate.GetNext( psnRow);	// to skip the first base position 0.
; 147  : 	POSITION psnScaleHeight = lnSumOfHScaleHeight.GetHeadPosition();

  000e0	8b 4d dc	 mov	 ecx, DWORD PTR _lnSumOfHScaleHeight$2[ebp+4]
; File C:\Program Files (x86)\Microsoft Visual Studio\2019\Community\VC\Tools\MSVC\14.29.30133\atlmfc\include\afxtempl.h

; 813  : 		rPosition = (POSITION) pNode->pNext;

  000e3	8b 00		 mov	 eax, DWORD PTR [eax]
; File D:\git\src\IBK\IBK_DRFN\ProjSrc\SrcChartEx\ChartOCX\ChartObject\BlocksPosition.cpp

; 148  : 	while( psnRow && psnScaleHeight)

  000e5	85 c0		 test	 eax, eax
  000e7	74 28		 je	 SHORT $LN50@MoveBlocks
  000e9	0f 1f 80 00 00
	00 00		 npad	 7
$LL4@MoveBlocks:
  000f0	85 c9		 test	 ecx, ecx
  000f2	74 1d		 je	 SHORT $LN50@MoveBlocks

; 149  : 	{
; 150  : 		dRowPosition = m_dlRowRate.GetAt( psnRow);
; 151  : 		nScaleHeightSum -= lnSumOfHScaleHeight.GetAt( psnScaleHeight);

  000f4	2b 51 08	 sub	 edx, DWORD PTR [ecx+8]
  000f7	66 0f 6e c2	 movd	 xmm0, edx

; 152  : 		m_dlRowRate.SetAt( psnRow, dRowPosition + nScaleHeightSum);

  000fb	f3 0f e6 c0	 cvtdq2pd xmm0, xmm0
  000ff	f2 0f 58 40 08	 addsd	 xmm0, QWORD PTR [eax+8]
  00104	f2 0f 11 40 08	 movsd	 QWORD PTR [eax+8], xmm0
; File C:\Program Files (x86)\Microsoft Visual Studio\2019\Community\VC\Tools\MSVC\14.29.30133\atlmfc\include\afxtempl.h

; 813  : 		rPosition = (POSITION) pNode->pNext;

  00109	8b 00		 mov	 eax, DWORD PTR [eax]
  0010b	8b 09		 mov	 ecx, DWORD PTR [ecx]
; File D:\git\src\IBK\IBK_DRFN\ProjSrc\SrcChartEx\ChartOCX\ChartObject\BlocksPosition.cpp

; 148  : 	while( psnRow && psnScaleHeight)

  0010d	85 c0		 test	 eax, eax
  0010f	75 df		 jne	 SHORT $LL4@MoveBlocks
$LN50@MoveBlocks:
; File C:\Program Files (x86)\Microsoft Visual Studio\2019\Community\VC\Tools\MSVC\14.29.30133\atlmfc\include\afxtempl.h

; 872  : 	m_pBlocks->FreeDataChain();

  00111	8b 4d ec	 mov	 ecx, DWORD PTR _lnSumOfHScaleHeight$2[ebp+20]

; 878  : {

  00114	c7 45 fc 01 00
	00 00		 mov	 DWORD PTR __$EHRec$[ebp+8], 1
  0011b	c7 45 d8 00 00
	00 00		 mov	 DWORD PTR _lnSumOfHScaleHeight$2[ebp], OFFSET ??_7?$CList@HH@@6B@

; 870  : 	m_nCount = 0;

  00122	c7 45 e4 00 00
	00 00		 mov	 DWORD PTR _lnSumOfHScaleHeight$2[ebp+12], 0

; 871  : 	m_pNodeHead = m_pNodeTail = m_pNodeFree = NULL;

  00129	c7 45 e8 00 00
	00 00		 mov	 DWORD PTR _lnSumOfHScaleHeight$2[ebp+16], 0
  00130	c7 45 e0 00 00
	00 00		 mov	 DWORD PTR _lnSumOfHScaleHeight$2[ebp+8], 0
  00137	c7 45 dc 00 00
	00 00		 mov	 DWORD PTR _lnSumOfHScaleHeight$2[ebp+4], 0

; 872  : 	m_pBlocks->FreeDataChain();

  0013e	e8 00 00 00 00	 call	 ?FreeDataChain@CPlex@@QAEXXZ ; CPlex::FreeDataChain
$LN49@MoveBlocks:
; File D:\git\src\IBK\IBK_DRFN\ProjSrc\SrcChartEx\ChartOCX\ChartObject\BlocksPosition.cpp

; 454  : }

  00143	8a c3		 mov	 al, bl
  00145	8b 4d f4	 mov	 ecx, DWORD PTR __$EHRec$[ebp]
  00148	64 89 0d 00 00
	00 00		 mov	 DWORD PTR fs:0, ecx
  0014f	59		 pop	 ecx
  00150	5f		 pop	 edi
  00151	5e		 pop	 esi
  00152	5b		 pop	 ebx
  00153	8b e5		 mov	 esp, ebp
  00155	5d		 pop	 ebp
  00156	c2 08 00	 ret	 8
_TEXT	ENDS
;	COMDAT text$x
text$x	SEGMENT
__unwindfunclet$?MoveBlocksPosition@CBlocksPosition@@QAE_NABVCPoint@@ABVCBlockIndex@@@Z$0:
  00000	8d 4d d8	 lea	 ecx, DWORD PTR _lnSumOfHScaleHeight$2[ebp]
  00003	e9 00 00 00 00	 jmp	 ??1?$CList@HH@@UAE@XZ	; CList<int,int>::~CList<int,int>
  00008	cc		 int	 3
  00009	cc		 int	 3
  0000a	cc		 int	 3
  0000b	cc		 int	 3
  0000c	cc		 int	 3
__ehhandler$?MoveBlocksPosition@CBlocksPosition@@QAE_NABVCPoint@@ABVCBlockIndex@@@Z:
  0000d	90		 npad	 1
  0000e	90		 npad	 1
  0000f	8b 54 24 08	 mov	 edx, DWORD PTR [esp+8]
  00013	8d 42 0c	 lea	 eax, DWORD PTR [edx+12]
  00016	8b 4a d4	 mov	 ecx, DWORD PTR [edx-44]
  00019	33 c8		 xor	 ecx, eax
  0001b	e8 00 00 00 00	 call	 @__security_check_cookie@4
  00020	b8 00 00 00 00	 mov	 eax, OFFSET __ehfuncinfo$?MoveBlocksPosition@CBlocksPosition@@QAE_NABVCPoint@@ABVCBlockIndex@@@Z
  00025	e9 00 00 00 00	 jmp	 ___CxxFrameHandler3
text$x	ENDS
?MoveBlocksPosition@CBlocksPosition@@QAE_NABVCPoint@@ABVCBlockIndex@@@Z ENDP ; CBlocksPosition::MoveBlocksPosition
; Function compile flags: /Ogtp
; File D:\git\src\IBK\IBK_DRFN\ProjSrc\SrcChartEx\ChartOCX\ChartObject\BlocksPosition.cpp
; File C:\Program Files (x86)\Microsoft Visual Studio\2019\Community\VC\Tools\MSVC\14.29.30133\atlmfc\include\afxtempl.h
; File D:\git\src\IBK\IBK_DRFN\ProjSrc\SrcChartEx\ChartOCX\ChartObject\BlocksPosition.cpp
; File C:\Program Files (x86)\Microsoft Visual Studio\2019\Community\VC\Tools\MSVC\14.29.30133\atlmfc\include\atltypes.h
; File D:\git\src\IBK\IBK_DRFN\ProjSrc\SrcChartEx\ChartOCX\ChartObject\BlocksPosition.cpp
; File C:\Program Files (x86)\Microsoft Visual Studio\2019\Community\VC\Tools\MSVC\14.29.30133\atlmfc\include\atltypes.h
; File D:\git\src\IBK\IBK_DRFN\ProjSrc\SrcChartEx\ChartOCX\ChartObject\BlocksPosition.cpp
; File D:\git\src\IBK\IBK_DRFN\ProjSrc\SrcChartEx\ChartOCX\Include_Chart\BlockBaseData.h
; File D:\git\src\IBK\IBK_DRFN\ProjSrc\SrcChartEx\ChartOCX\ChartObject\BlocksPosition.cpp
; File D:\git\src\IBK\IBK_DRFN\ProjSrc\SrcChartEx\ChartOCX\Include_Chart\BlockBaseData.h
; File D:\git\src\IBK\IBK_DRFN\ProjSrc\SrcChartEx\ChartOCX\ChartObject\BlocksPosition.cpp
; File D:\git\src\IBK\IBK_DRFN\ProjSrc\SrcChartEx\ChartOCX\Include_Chart\BlockBaseData.h
; File D:\git\src\IBK\IBK_DRFN\ProjSrc\SrcChartEx\ChartOCX\ChartObject\BlocksPosition.cpp
;	COMDAT ?FindCompartLine@CBlocksPosition@@QBE?AVCBlockIndex@@ABVCPoint@@@Z
_TEXT	SEGMENT
$T1 = -16						; size = 8
_columnIndex$ = -8					; size = 4
_rowIndex$ = -4						; size = 4
___$ReturnUdt$ = 8					; size = 4
_point$ = 12						; size = 4
?FindCompartLine@CBlocksPosition@@QBE?AVCBlockIndex@@ABVCPoint@@@Z PROC ; CBlocksPosition::FindCompartLine, COMDAT
; _this$ = ecx

; 440  : {

  00000	55		 push	 ebp
  00001	8b ec		 mov	 ebp, esp
  00003	83 ec 10	 sub	 esp, 16			; 00000010H
  00006	56		 push	 esi
  00007	57		 push	 edi
  00008	8b f9		 mov	 edi, ecx

; 441  : 	int rowIndex = -1, columnIndex = -1;

  0000a	c7 45 fc ff ff
	ff ff		 mov	 DWORD PTR _rowIndex$[ebp], -1
  00011	c7 45 f8 ff ff
	ff ff		 mov	 DWORD PTR _columnIndex$[ebp], -1
; File C:\Program Files (x86)\Microsoft Visual Studio\2019\Community\VC\Tools\MSVC\14.29.30133\atlmfc\include\afxtempl.h

; 786  : 	{ return m_nCount == 0; }

  00018	83 7f 60 00	 cmp	 DWORD PTR [edi+96], 0
; File D:\git\src\IBK\IBK_DRFN\ProjSrc\SrcChartEx\ChartOCX\ChartObject\BlocksPosition.cpp

; 113  : 	if( m_dlRowReal.IsEmpty()) UpdateRowRealFromRowRate();

  0001c	75 05		 jne	 SHORT $LN7@FindCompar
  0001e	e8 00 00 00 00	 call	 ?UpdateRowRealFromRowRate@CBlocksPositionBase@@IAEXXZ ; CBlocksPositionBase::UpdateRowRealFromRowRate
$LN7@FindCompar:
; File C:\Program Files (x86)\Microsoft Visual Studio\2019\Community\VC\Tools\MSVC\14.29.30133\atlmfc\include\atltypes.h

; 408  : 	x = initX;

  00023	8b 47 04	 mov	 eax, DWORD PTR [edi+4]
; File D:\git\src\IBK\IBK_DRFN\ProjSrc\SrcChartEx\ChartOCX\ChartObject\BlocksPosition.cpp

; 443  : 	if(!CBlocksPositionCalculator::FindCompartLine(CPoint(m_allBlockRegion.left, m_allBlockRegion.top), 

  00026	8b 75 08	 mov	 esi, DWORD PTR ___$ReturnUdt$[ebp]
; File C:\Program Files (x86)\Microsoft Visual Studio\2019\Community\VC\Tools\MSVC\14.29.30133\atlmfc\include\atltypes.h

; 408  : 	x = initX;

  00029	89 45 f0	 mov	 DWORD PTR $T1[ebp], eax

; 409  : 	y = initY;

  0002c	8b 47 08	 mov	 eax, DWORD PTR [edi+8]
  0002f	89 45 f4	 mov	 DWORD PTR $T1[ebp+4], eax
; File D:\git\src\IBK\IBK_DRFN\ProjSrc\SrcChartEx\ChartOCX\ChartObject\BlocksPosition.cpp

; 443  : 	if(!CBlocksPositionCalculator::FindCompartLine(CPoint(m_allBlockRegion.left, m_allBlockRegion.top), 

  00032	8d 45 f8	 lea	 eax, DWORD PTR _columnIndex$[ebp]
  00035	50		 push	 eax
  00036	8d 45 fc	 lea	 eax, DWORD PTR _rowIndex$[ebp]
  00039	50		 push	 eax
  0003a	ff 75 0c	 push	 DWORD PTR _point$[ebp]
  0003d	8d 47 14	 lea	 eax, DWORD PTR [edi+20]
  00040	50		 push	 eax

; 114  : 	return m_dlRowReal;

  00041	8d 47 54	 lea	 eax, DWORD PTR [edi+84]

; 443  : 	if(!CBlocksPositionCalculator::FindCompartLine(CPoint(m_allBlockRegion.left, m_allBlockRegion.top), 

  00044	50		 push	 eax
  00045	8d 45 f0	 lea	 eax, DWORD PTR $T1[ebp]
  00048	50		 push	 eax
  00049	e8 00 00 00 00	 call	 ?FindCompartLine@CBlocksPositionCalculator@@SA_NABVCPoint@@ABV?$CList@NN@@10AAH2@Z ; CBlocksPositionCalculator::FindCompartLine
  0004e	83 c4 18	 add	 esp, 24			; 00000018H
  00051	84 c0		 test	 al, al
  00053	75 17		 jne	 SHORT $LN2@FindCompar
  00055	5f		 pop	 edi
; File D:\git\src\IBK\IBK_DRFN\ProjSrc\SrcChartEx\ChartOCX\Include_Chart\BlockBaseData.h

; 20   : 	CBlockIndex( const int row, const int column)		{	m_nRow = row;	m_nColumn = column;		}

  00056	c7 06 ff ff ff
	ff		 mov	 DWORD PTR [esi], -1
; File D:\git\src\IBK\IBK_DRFN\ProjSrc\SrcChartEx\ChartOCX\ChartObject\BlocksPosition.cpp

; 448  : }

  0005c	8b c6		 mov	 eax, esi
; File D:\git\src\IBK\IBK_DRFN\ProjSrc\SrcChartEx\ChartOCX\Include_Chart\BlockBaseData.h

; 20   : 	CBlockIndex( const int row, const int column)		{	m_nRow = row;	m_nColumn = column;		}

  0005e	c7 46 04 ff ff
	ff ff		 mov	 DWORD PTR [esi+4], -1
; File D:\git\src\IBK\IBK_DRFN\ProjSrc\SrcChartEx\ChartOCX\ChartObject\BlocksPosition.cpp

; 448  : }

  00065	5e		 pop	 esi
  00066	8b e5		 mov	 esp, ebp
  00068	5d		 pop	 ebp
  00069	c2 08 00	 ret	 8
$LN2@FindCompar:
; File D:\git\src\IBK\IBK_DRFN\ProjSrc\SrcChartEx\ChartOCX\Include_Chart\BlockBaseData.h

; 20   : 	CBlockIndex( const int row, const int column)		{	m_nRow = row;	m_nColumn = column;		}

  0006c	8b 45 fc	 mov	 eax, DWORD PTR _rowIndex$[ebp]
  0006f	89 06		 mov	 DWORD PTR [esi], eax
  00071	8b 45 f8	 mov	 eax, DWORD PTR _columnIndex$[ebp]
  00074	89 46 04	 mov	 DWORD PTR [esi+4], eax
; File D:\git\src\IBK\IBK_DRFN\ProjSrc\SrcChartEx\ChartOCX\ChartObject\BlocksPosition.cpp

; 448  : }

  00077	8b c6		 mov	 eax, esi
  00079	5f		 pop	 edi
  0007a	5e		 pop	 esi
  0007b	8b e5		 mov	 esp, ebp
  0007d	5d		 pop	 ebp
  0007e	c2 08 00	 ret	 8
?FindCompartLine@CBlocksPosition@@QBE?AVCBlockIndex@@ABVCPoint@@@Z ENDP ; CBlocksPosition::FindCompartLine
_TEXT	ENDS
; Function compile flags: /Ogtp
; File D:\git\src\IBK\IBK_DRFN\ProjSrc\SrcChartEx\ChartOCX\ChartObject\BlocksPosition.cpp
; File C:\Program Files (x86)\Microsoft Visual Studio\2019\Community\VC\Tools\MSVC\14.29.30133\atlmfc\include\atltypes.h
; File D:\git\src\IBK\IBK_DRFN\ProjSrc\SrcChartEx\ChartOCX\ChartObject\BlocksPosition.cpp
; File C:\Program Files (x86)\Microsoft Visual Studio\2019\Community\VC\Tools\MSVC\14.29.30133\atlmfc\include\atltypes.h
; File D:\git\src\IBK\IBK_DRFN\ProjSrc\SrcChartEx\ChartOCX\ChartObject\BlocksPosition.cpp
; File C:\Program Files (x86)\Microsoft Visual Studio\2019\Community\VC\Tools\MSVC\14.29.30133\atlmfc\include\afxtempl.h
; File D:\git\src\IBK\IBK_DRFN\ProjSrc\SrcChartEx\ChartOCX\ChartObject\BlocksPosition.cpp
; File C:\Program Files (x86)\Microsoft Visual Studio\2019\Community\VC\Tools\MSVC\14.29.30133\atlmfc\include\atltypes.h
; File D:\git\src\IBK\IBK_DRFN\ProjSrc\SrcChartEx\ChartOCX\ChartObject\BlocksPosition.cpp
; File C:\Program Files (x86)\Microsoft Visual Studio\2019\Community\VC\Tools\MSVC\14.29.30133\atlmfc\include\atltypes.h
; File D:\git\src\IBK\IBK_DRFN\ProjSrc\SrcChartEx\ChartOCX\ChartObject\BlocksPosition.cpp
; File C:\Program Files (x86)\Microsoft Visual Studio\2019\Community\VC\Tools\MSVC\14.29.30133\atlmfc\include\afxtempl.h
; File D:\git\src\IBK\IBK_DRFN\ProjSrc\SrcChartEx\ChartOCX\ChartObject\BlocksPosition.cpp
;	COMDAT ?DrawBlockCompartLine@CBlocksPosition@@QAEXPAVCDC@@ABK@Z
_TEXT	SEGMENT
_start$2 = -60						; size = 8
_end$3 = -52						; size = 8
_graphFrameDrawer$4 = -44				; size = 8
_end$5 = -44						; size = 8
_graphFrameDrawer$6 = -36				; size = 8
_absoluteOrgPt$7 = -28					; size = 8
_start$8 = -28						; size = 8
_absoluteOrgPt$9 = -20					; size = 8
__$EHRec$ = -12						; size = 12
_pDC$ = 8						; size = 4
_compartLineColor$ = 12					; size = 4
?DrawBlockCompartLine@CBlocksPosition@@QAEXPAVCDC@@ABK@Z PROC ; CBlocksPosition::DrawBlockCompartLine, COMDAT
; _this$ = ecx

; 431  : {

  00000	55		 push	 ebp
  00001	8b ec		 mov	 ebp, esp
  00003	6a ff		 push	 -1
  00005	68 00 00 00 00	 push	 __ehhandler$?DrawBlockCompartLine@CBlocksPosition@@QAEXPAVCDC@@ABK@Z
  0000a	64 a1 00 00 00
	00		 mov	 eax, DWORD PTR fs:0
  00010	50		 push	 eax
  00011	83 ec 30	 sub	 esp, 48			; 00000030H
  00014	53		 push	 ebx
  00015	56		 push	 esi
  00016	57		 push	 edi
  00017	a1 00 00 00 00	 mov	 eax, DWORD PTR ___security_cookie
  0001c	33 c5		 xor	 eax, ebp
  0001e	50		 push	 eax
  0001f	8d 45 f4	 lea	 eax, DWORD PTR __$EHRec$[ebp]
  00022	64 a3 00 00 00
	00		 mov	 DWORD PTR fs:0, eax
  00028	8b f1		 mov	 esi, ecx

; 518  : 	CPoint absoluteOrgPt(m_allBlockRegion.left, m_allBlockRegion.top);

  0002a	8b 4e 08	 mov	 ecx, DWORD PTR [esi+8]
; File C:\Program Files (x86)\Microsoft Visual Studio\2019\Community\VC\Tools\MSVC\14.29.30133\atlmfc\include\atltypes.h

; 408  : 	x = initX;

  0002d	8b 46 04	 mov	 eax, DWORD PTR [esi+4]

; 409  : 	y = initY;

  00030	89 4d f0	 mov	 DWORD PTR _absoluteOrgPt$9[ebp+4], ecx
; File D:\git\src\IBK\IBK_DRFN\ProjSrc\SrcChartEx\ChartOCX\ChartObject\BlocksPosition.cpp

; 519  : 	CGraphFrameDrawer graphFrameDrawer;

  00033	8d 4d dc	 lea	 ecx, DWORD PTR _graphFrameDrawer$6[ebp]
; File C:\Program Files (x86)\Microsoft Visual Studio\2019\Community\VC\Tools\MSVC\14.29.30133\atlmfc\include\atltypes.h

; 408  : 	x = initX;

  00036	89 45 ec	 mov	 DWORD PTR _absoluteOrgPt$9[ebp], eax
; File D:\git\src\IBK\IBK_DRFN\ProjSrc\SrcChartEx\ChartOCX\ChartObject\BlocksPosition.cpp

; 519  : 	CGraphFrameDrawer graphFrameDrawer;

  00039	ff 15 00 00 00
	00		 call	 DWORD PTR __imp_??0CGraphFrameDrawer@@QAE@XZ
; File C:\Program Files (x86)\Microsoft Visual Studio\2019\Community\VC\Tools\MSVC\14.29.30133\atlmfc\include\afxtempl.h

; 786  : 	{ return m_nCount == 0; }

  0003f	83 7e 60 00	 cmp	 DWORD PTR [esi+96], 0
; File D:\git\src\IBK\IBK_DRFN\ProjSrc\SrcChartEx\ChartOCX\ChartObject\BlocksPosition.cpp

; 519  : 	CGraphFrameDrawer graphFrameDrawer;

  00043	c7 45 fc 00 00
	00 00		 mov	 DWORD PTR __$EHRec$[ebp+8], 0

; 113  : 	if( m_dlRowReal.IsEmpty()) UpdateRowRealFromRowRate();

  0004a	75 07		 jne	 SHORT $LN14@DrawBlockC
  0004c	8b ce		 mov	 ecx, esi
  0004e	e8 00 00 00 00	 call	 ?UpdateRowRealFromRowRate@CBlocksPositionBase@@IAEXXZ ; CBlocksPositionBase::UpdateRowRealFromRowRate
$LN14@DrawBlockC:

; 521  : 	for(int row = 1; row < GetRowCount() - 1; row++)

  00053	8b 46 44	 mov	 eax, DWORD PTR [esi+68]

; 114  : 	return m_dlRowReal;

  00056	8d 5e 54	 lea	 ebx, DWORD PTR [esi+84]

; 521  : 	for(int row = 1; row < GetRowCount() - 1; row++)

  00059	bf 01 00 00 00	 mov	 edi, 1
  0005e	48		 dec	 eax
  0005f	3b c7		 cmp	 eax, edi
  00061	7e 53		 jle	 SHORT $LN39@DrawBlockC
  00063	8d 46 14	 lea	 eax, DWORD PTR [esi+20]
$LL6@DrawBlockC:

; 522  : 	{
; 523  : 		CPoint start = CBlocksPositionCalculator::GetAbsolutePoint(absoluteOrgPt, lRowReal, m_lColumn, 0, row);

  00066	57		 push	 edi
  00067	6a 00		 push	 0
  00069	50		 push	 eax
  0006a	53		 push	 ebx
  0006b	8d 45 ec	 lea	 eax, DWORD PTR _absoluteOrgPt$9[ebp]
  0006e	50		 push	 eax
  0006f	8d 45 e4	 lea	 eax, DWORD PTR _start$8[ebp]
  00072	50		 push	 eax
  00073	e8 00 00 00 00	 call	 ?GetAbsolutePoint@CBlocksPositionCalculator@@SA?AVCPoint@@ABV2@ABV?$CList@NN@@1HH@Z ; CBlocksPositionCalculator::GetAbsolutePoint

; 524  : 		CPoint end = CBlocksPositionCalculator::GetAbsolutePoint(absoluteOrgPt, lRowReal, m_lColumn, (m_lColumn.GetCount()-1), row);

  00078	8b 46 20	 mov	 eax, DWORD PTR [esi+32]
  0007b	57		 push	 edi
  0007c	48		 dec	 eax
  0007d	50		 push	 eax
  0007e	8d 46 14	 lea	 eax, DWORD PTR [esi+20]
  00081	50		 push	 eax
  00082	53		 push	 ebx
  00083	8d 45 ec	 lea	 eax, DWORD PTR _absoluteOrgPt$9[ebp]
  00086	50		 push	 eax
  00087	8d 45 d4	 lea	 eax, DWORD PTR _end$5[ebp]
  0008a	50		 push	 eax
  0008b	e8 00 00 00 00	 call	 ?GetAbsolutePoint@CBlocksPositionCalculator@@SA?AVCPoint@@ABV2@ABV?$CList@NN@@1HH@Z ; CBlocksPositionCalculator::GetAbsolutePoint
  00090	83 c4 30	 add	 esp, 48			; 00000030H

; 525  : 		graphFrameDrawer.DrawBlockCompartLine(pDC, start, end, compartLineColor);

  00093	8d 45 d4	 lea	 eax, DWORD PTR _end$5[ebp]
  00096	8d 4d dc	 lea	 ecx, DWORD PTR _graphFrameDrawer$6[ebp]
  00099	ff 75 0c	 push	 DWORD PTR _compartLineColor$[ebp]
  0009c	50		 push	 eax
  0009d	8d 45 e4	 lea	 eax, DWORD PTR _start$8[ebp]
  000a0	50		 push	 eax
  000a1	ff 75 08	 push	 DWORD PTR _pDC$[ebp]
  000a4	ff 15 00 00 00
	00		 call	 DWORD PTR __imp_?DrawBlockCompartLine@CGraphFrameDrawer@@QAEXPAVCDC@@ABVCPoint@@1ABK@Z
  000aa	8b 46 44	 mov	 eax, DWORD PTR [esi+68]
  000ad	47		 inc	 edi
  000ae	48		 dec	 eax
  000af	3b f8		 cmp	 edi, eax
  000b1	8d 46 14	 lea	 eax, DWORD PTR [esi+20]
  000b4	7c b0		 jl	 SHORT $LL6@DrawBlockC
$LN39@DrawBlockC:

; 526  : 	}
; 527  : }

  000b6	8d 4d dc	 lea	 ecx, DWORD PTR _graphFrameDrawer$6[ebp]
  000b9	c7 45 fc ff ff
	ff ff		 mov	 DWORD PTR __$EHRec$[ebp+8], -1
  000c0	ff 15 00 00 00
	00		 call	 DWORD PTR __imp_??1CGraphFrameDrawer@@UAE@XZ

; 532  : 	CPoint absoluteOrgPt(m_allBlockRegion.left, m_allBlockRegion.top);

  000c6	8b 4e 08	 mov	 ecx, DWORD PTR [esi+8]
; File C:\Program Files (x86)\Microsoft Visual Studio\2019\Community\VC\Tools\MSVC\14.29.30133\atlmfc\include\atltypes.h

; 408  : 	x = initX;

  000c9	8b 46 04	 mov	 eax, DWORD PTR [esi+4]

; 409  : 	y = initY;

  000cc	89 4d e8	 mov	 DWORD PTR _absoluteOrgPt$7[ebp+4], ecx
; File D:\git\src\IBK\IBK_DRFN\ProjSrc\SrcChartEx\ChartOCX\ChartObject\BlocksPosition.cpp

; 533  : 	CGraphFrameDrawer graphFrameDrawer;

  000cf	8d 4d d4	 lea	 ecx, DWORD PTR _graphFrameDrawer$4[ebp]
; File C:\Program Files (x86)\Microsoft Visual Studio\2019\Community\VC\Tools\MSVC\14.29.30133\atlmfc\include\atltypes.h

; 408  : 	x = initX;

  000d2	89 45 e4	 mov	 DWORD PTR _absoluteOrgPt$7[ebp], eax
; File D:\git\src\IBK\IBK_DRFN\ProjSrc\SrcChartEx\ChartOCX\ChartObject\BlocksPosition.cpp

; 533  : 	CGraphFrameDrawer graphFrameDrawer;

  000d5	ff 15 00 00 00
	00		 call	 DWORD PTR __imp_??0CGraphFrameDrawer@@QAE@XZ
; File C:\Program Files (x86)\Microsoft Visual Studio\2019\Community\VC\Tools\MSVC\14.29.30133\atlmfc\include\afxtempl.h

; 786  : 	{ return m_nCount == 0; }

  000db	83 7e 60 00	 cmp	 DWORD PTR [esi+96], 0
; File D:\git\src\IBK\IBK_DRFN\ProjSrc\SrcChartEx\ChartOCX\ChartObject\BlocksPosition.cpp

; 533  : 	CGraphFrameDrawer graphFrameDrawer;

  000df	c7 45 fc 01 00
	00 00		 mov	 DWORD PTR __$EHRec$[ebp+8], 1

; 113  : 	if( m_dlRowReal.IsEmpty()) UpdateRowRealFromRowRate();

  000e6	75 07		 jne	 SHORT $LN29@DrawBlockC
  000e8	8b ce		 mov	 ecx, esi
  000ea	e8 00 00 00 00	 call	 ?UpdateRowRealFromRowRate@CBlocksPositionBase@@IAEXXZ ; CBlocksPositionBase::UpdateRowRealFromRowRate
$LN29@DrawBlockC:

; 535  : 	for(int column = 1; column < m_lColumn.GetCount() -1; column++)

  000ef	8b 46 20	 mov	 eax, DWORD PTR [esi+32]
  000f2	bf 01 00 00 00	 mov	 edi, 1
  000f7	48		 dec	 eax
  000f8	3b c7		 cmp	 eax, edi
  000fa	7e 54		 jle	 SHORT $LN20@DrawBlockC
  000fc	8d 46 14	 lea	 eax, DWORD PTR [esi+20]
  000ff	90		 npad	 1
$LL21@DrawBlockC:

; 536  : 	{
; 537  : 		CPoint start = CBlocksPositionCalculator::GetAbsolutePoint( absoluteOrgPt, lRowReal, m_lColumn, column, 0);

  00100	6a 00		 push	 0
  00102	57		 push	 edi
  00103	50		 push	 eax
  00104	53		 push	 ebx
  00105	8d 45 e4	 lea	 eax, DWORD PTR _absoluteOrgPt$7[ebp]
  00108	50		 push	 eax
  00109	8d 45 c4	 lea	 eax, DWORD PTR _start$2[ebp]
  0010c	50		 push	 eax
  0010d	e8 00 00 00 00	 call	 ?GetAbsolutePoint@CBlocksPositionCalculator@@SA?AVCPoint@@ABV2@ABV?$CList@NN@@1HH@Z ; CBlocksPositionCalculator::GetAbsolutePoint

; 538  : 		CPoint end = CBlocksPositionCalculator::GetAbsolutePoint( absoluteOrgPt, lRowReal, m_lColumn, column, GetRowCount() - 1);

  00112	8b 46 44	 mov	 eax, DWORD PTR [esi+68]
  00115	48		 dec	 eax
  00116	50		 push	 eax
  00117	57		 push	 edi
  00118	8d 46 14	 lea	 eax, DWORD PTR [esi+20]
  0011b	50		 push	 eax
  0011c	53		 push	 ebx
  0011d	8d 45 e4	 lea	 eax, DWORD PTR _absoluteOrgPt$7[ebp]
  00120	50		 push	 eax
  00121	8d 45 cc	 lea	 eax, DWORD PTR _end$3[ebp]
  00124	50		 push	 eax
  00125	e8 00 00 00 00	 call	 ?GetAbsolutePoint@CBlocksPositionCalculator@@SA?AVCPoint@@ABV2@ABV?$CList@NN@@1HH@Z ; CBlocksPositionCalculator::GetAbsolutePoint
  0012a	83 c4 30	 add	 esp, 48			; 00000030H

; 539  : 		graphFrameDrawer.DrawBlockCompartLine(pDC, start, end, compartLineColor);

  0012d	8d 45 cc	 lea	 eax, DWORD PTR _end$3[ebp]
  00130	8d 4d d4	 lea	 ecx, DWORD PTR _graphFrameDrawer$4[ebp]
  00133	ff 75 0c	 push	 DWORD PTR _compartLineColor$[ebp]
  00136	50		 push	 eax
  00137	8d 45 c4	 lea	 eax, DWORD PTR _start$2[ebp]
  0013a	50		 push	 eax
  0013b	ff 75 08	 push	 DWORD PTR _pDC$[ebp]
  0013e	ff 15 00 00 00
	00		 call	 DWORD PTR __imp_?DrawBlockCompartLine@CGraphFrameDrawer@@QAEXPAVCDC@@ABVCPoint@@1ABK@Z
  00144	8b 46 20	 mov	 eax, DWORD PTR [esi+32]
  00147	47		 inc	 edi
  00148	48		 dec	 eax
  00149	3b f8		 cmp	 edi, eax
  0014b	8d 46 14	 lea	 eax, DWORD PTR [esi+20]
  0014e	7c b0		 jl	 SHORT $LL21@DrawBlockC
$LN20@DrawBlockC:

; 540  : 	}
; 541  : }

  00150	8d 4d d4	 lea	 ecx, DWORD PTR _graphFrameDrawer$4[ebp]
  00153	ff 15 00 00 00
	00		 call	 DWORD PTR __imp_??1CGraphFrameDrawer@@UAE@XZ

; 432  : 	DrawRowCompartLine(pDC, compartLineColor);
; 433  : 	DrawColumnCompartLine(pDC, compartLineColor);
; 434  : }

  00159	8b 4d f4	 mov	 ecx, DWORD PTR __$EHRec$[ebp]
  0015c	64 89 0d 00 00
	00 00		 mov	 DWORD PTR fs:0, ecx
  00163	59		 pop	 ecx
  00164	5f		 pop	 edi
  00165	5e		 pop	 esi
  00166	5b		 pop	 ebx
  00167	8b e5		 mov	 esp, ebp
  00169	5d		 pop	 ebp
  0016a	c2 08 00	 ret	 8
_TEXT	ENDS
;	COMDAT text$x
text$x	SEGMENT
__unwindfunclet$?DrawBlockCompartLine@CBlocksPosition@@QAEXPAVCDC@@ABK@Z$0:
  00000	8d 4d dc	 lea	 ecx, DWORD PTR _graphFrameDrawer$6[ebp]
  00003	ff 25 00 00 00
	00		 jmp	 DWORD PTR __imp_??1CGraphFrameDrawer@@UAE@XZ
__unwindfunclet$?DrawBlockCompartLine@CBlocksPosition@@QAEXPAVCDC@@ABK@Z$1:
  00009	8d 4d d4	 lea	 ecx, DWORD PTR _graphFrameDrawer$4[ebp]
  0000c	ff 25 00 00 00
	00		 jmp	 DWORD PTR __imp_??1CGraphFrameDrawer@@UAE@XZ
  00012	cc		 int	 3
  00013	cc		 int	 3
  00014	cc		 int	 3
  00015	cc		 int	 3
  00016	cc		 int	 3
__ehhandler$?DrawBlockCompartLine@CBlocksPosition@@QAEXPAVCDC@@ABK@Z:
  00017	90		 npad	 1
  00018	90		 npad	 1
  00019	8b 54 24 08	 mov	 edx, DWORD PTR [esp+8]
  0001d	8d 42 0c	 lea	 eax, DWORD PTR [edx+12]
  00020	8b 4a c0	 mov	 ecx, DWORD PTR [edx-64]
  00023	33 c8		 xor	 ecx, eax
  00025	e8 00 00 00 00	 call	 @__security_check_cookie@4
  0002a	b8 00 00 00 00	 mov	 eax, OFFSET __ehfuncinfo$?DrawBlockCompartLine@CBlocksPosition@@QAEXPAVCDC@@ABK@Z
  0002f	e9 00 00 00 00	 jmp	 ___CxxFrameHandler3
text$x	ENDS
?DrawBlockCompartLine@CBlocksPosition@@QAEXPAVCDC@@ABK@Z ENDP ; CBlocksPosition::DrawBlockCompartLine
; Function compile flags: /Ogtp
; File D:\git\src\IBK\IBK_DRFN\ProjSrc\SrcChartEx\ChartOCX\ChartObject\BlocksPosition.cpp
;	COMDAT ?GetInterBlockHalfGap@CBlocksPosition@@QBEHXZ
_TEXT	SEGMENT
?GetInterBlockHalfGap@CBlocksPosition@@QBEHXZ PROC	; CBlocksPosition::GetInterBlockHalfGap, COMDAT
; _this$ = ecx

; 425  : 	return m_nInterBlockHalfGap;

  00000	8b 41 70	 mov	 eax, DWORD PTR [ecx+112]

; 426  : }

  00003	c3		 ret	 0
?GetInterBlockHalfGap@CBlocksPosition@@QBEHXZ ENDP	; CBlocksPosition::GetInterBlockHalfGap
_TEXT	ENDS
; Function compile flags: /Ogtp
; File D:\git\src\IBK\IBK_DRFN\ProjSrc\SrcChartEx\ChartOCX\ChartObject\BlocksPosition.cpp
; File C:\Program Files (x86)\Microsoft Visual Studio\2019\Community\VC\Tools\MSVC\14.29.30133\atlmfc\include\afxtempl.h
; File D:\git\src\IBK\IBK_DRFN\ProjSrc\SrcChartEx\ChartOCX\ChartObject\BlocksPosition.cpp
; File C:\Program Files (x86)\Microsoft Visual Studio\2019\Community\VC\Tools\MSVC\14.29.30133\atlmfc\include\atltypes.h
; File D:\git\src\IBK\IBK_DRFN\ProjSrc\SrcChartEx\ChartOCX\ChartObject\BlocksPosition.cpp
; File C:\Program Files (x86)\Microsoft Visual Studio\2019\Community\VC\Tools\MSVC\14.29.30133\atlmfc\include\atltypes.h
; File D:\git\src\IBK\IBK_DRFN\ProjSrc\SrcChartEx\ChartOCX\ChartObject\BlocksPosition.cpp
; File C:\Program Files (x86)\Microsoft Visual Studio\2019\Community\VC\Tools\MSVC\14.29.30133\atlmfc\include\atltypes.h
; File D:\git\src\IBK\IBK_DRFN\ProjSrc\SrcChartEx\ChartOCX\ChartObject\BlocksPosition.cpp
; File C:\Program Files (x86)\Microsoft Visual Studio\2019\Community\VC\Tools\MSVC\14.29.30133\atlmfc\include\atltypes.h
; File D:\git\src\IBK\IBK_DRFN\ProjSrc\SrcChartEx\ChartOCX\ChartObject\BlocksPosition.cpp
; File D:\git\src\IBK\IBK_DRFN\ProjSrc\SrcChartEx\ChartOCX\Include_Chart\BlockBaseData.h
; File D:\git\src\IBK\IBK_DRFN\ProjSrc\SrcChartEx\ChartOCX\ChartObject\BlocksPosition.cpp
; File D:\git\src\IBK\IBK_DRFN\ProjSrc\SrcChartEx\ChartOCX\Include_Chart\BlockBaseData.h
; File D:\git\src\IBK\IBK_DRFN\ProjSrc\SrcChartEx\ChartOCX\ChartObject\BlocksPosition.cpp
;	COMDAT ?GetRowAndColumn@CBlocksPosition@@QBE_NABVCRect@@AAVCBlockIndex@@@Z
_TEXT	SEGMENT
_y2$2 = -60						; size = 8
_x2$3 = -52						; size = 8
_y1$4 = -44						; size = 8
_x1$5 = -36						; size = 8
_blockIndex$GSCopy$1$ = -28				; size = 4
_region$GSCopy$1$ = -24					; size = 4
$T6 = -20						; size = 16
__$ArrayPad$ = -4					; size = 4
_region$ = 8						; size = 4
_blockIndex$ = 12					; size = 4
?GetRowAndColumn@CBlocksPosition@@QBE_NABVCRect@@AAVCBlockIndex@@@Z PROC ; CBlocksPosition::GetRowAndColumn, COMDAT
; _this$ = ecx

; 410  : {

  00000	55		 push	 ebp
  00001	8b ec		 mov	 ebp, esp
  00003	83 ec 3c	 sub	 esp, 60			; 0000003cH
  00006	a1 00 00 00 00	 mov	 eax, DWORD PTR ___security_cookie
  0000b	33 c5		 xor	 eax, ebp
  0000d	89 45 fc	 mov	 DWORD PTR __$ArrayPad$[ebp], eax
  00010	8b 45 08	 mov	 eax, DWORD PTR _region$[ebp]
  00013	53		 push	 ebx
  00014	56		 push	 esi
  00015	89 45 e8	 mov	 DWORD PTR _region$GSCopy$1$[ebp], eax
  00018	8b f1		 mov	 esi, ecx
  0001a	8b 45 0c	 mov	 eax, DWORD PTR _blockIndex$[ebp]

; 411  : 	for(int columnIndex = 0; columnIndex < GetColumnBlockCount(); columnIndex++){

  0001d	33 db		 xor	 ebx, ebx
  0001f	57		 push	 edi
  00020	89 45 e4	 mov	 DWORD PTR _blockIndex$GSCopy$1$[ebp], eax
  00023	e8 00 00 00 00	 call	 ?GetColumnBlockCount@CBlocksPosition@@QBEHXZ ; CBlocksPosition::GetColumnBlockCount
  00028	85 c0		 test	 eax, eax
  0002a	0f 8e c4 00 00
	00		 jle	 $LN34@GetRowAndC
$LL4@GetRowAndC:

; 412  : 		for(int rowIndex = 0; rowIndex < GetRowBlockCount(); rowIndex++){

  00030	8b ce		 mov	 ecx, esi
  00032	33 ff		 xor	 edi, edi
  00034	e8 00 00 00 00	 call	 ?GetRowBlockCount@CBlocksPosition@@QBEHXZ ; CBlocksPosition::GetRowBlockCount
  00039	85 c0		 test	 eax, eax
  0003b	0f 8e a3 00 00
	00		 jle	 $LN2@GetRowAndC
  00041	8d 46 14	 lea	 eax, DWORD PTR [esi+20]
$LL7@GetRowAndC:

; 368  : 	CBlocksPositionCalculator::GetBlockRegion(m_allBlockRegion.left, m_nInterBlockHalfGap, m_nCompartLineThickness, m_lColumn, blockIndex.GetColumn(), x1, x2);

  00044	8d 4d cc	 lea	 ecx, DWORD PTR _x2$3[ebp]
  00047	0f 57 c0	 xorps	 xmm0, xmm0
  0004a	51		 push	 ecx
  0004b	8d 4d dc	 lea	 ecx, DWORD PTR _x1$5[ebp]
  0004e	f2 0f 11 45 dc	 movsd	 QWORD PTR _x1$5[ebp], xmm0
  00053	51		 push	 ecx
  00054	53		 push	 ebx
  00055	50		 push	 eax
  00056	ff 76 74	 push	 DWORD PTR [esi+116]
  00059	f2 0f 11 45 cc	 movsd	 QWORD PTR _x2$3[ebp], xmm0
  0005e	ff 76 70	 push	 DWORD PTR [esi+112]
  00061	f2 0f 11 45 d4	 movsd	 QWORD PTR _y1$4[ebp], xmm0
  00066	ff 76 04	 push	 DWORD PTR [esi+4]
  00069	f2 0f 11 45 c4	 movsd	 QWORD PTR _y2$2[ebp], xmm0
  0006e	e8 00 00 00 00	 call	 ?GetBlockRegion@CBlocksPositionCalculator@@SAXHHHABV?$CList@NN@@HAAN1@Z ; CBlocksPositionCalculator::GetBlockRegion
  00073	83 c4 1c	 add	 esp, 28			; 0000001cH
; File C:\Program Files (x86)\Microsoft Visual Studio\2019\Community\VC\Tools\MSVC\14.29.30133\atlmfc\include\afxtempl.h

; 786  : 	{ return m_nCount == 0; }

  00076	83 7e 60 00	 cmp	 DWORD PTR [esi+96], 0
; File D:\git\src\IBK\IBK_DRFN\ProjSrc\SrcChartEx\ChartOCX\ChartObject\BlocksPosition.cpp

; 113  : 	if( m_dlRowReal.IsEmpty()) UpdateRowRealFromRowRate();

  0007a	75 07		 jne	 SHORT $LN17@GetRowAndC
  0007c	8b ce		 mov	 ecx, esi
  0007e	e8 00 00 00 00	 call	 ?UpdateRowRealFromRowRate@CBlocksPositionBase@@IAEXXZ ; CBlocksPositionBase::UpdateRowRealFromRowRate
$LN17@GetRowAndC:

; 370  : 	CBlocksPositionCalculator::GetBlockRegion(m_allBlockRegion.top, m_nInterBlockHalfGap, m_nCompartLineThickness, lRowReal, blockIndex.GetRow(), y1, y2);

  00083	8d 45 c4	 lea	 eax, DWORD PTR _y2$2[ebp]
  00086	50		 push	 eax
  00087	8d 45 d4	 lea	 eax, DWORD PTR _y1$4[ebp]
  0008a	50		 push	 eax
  0008b	57		 push	 edi
  0008c	8d 46 54	 lea	 eax, DWORD PTR [esi+84]
  0008f	50		 push	 eax
  00090	ff 76 74	 push	 DWORD PTR [esi+116]
  00093	ff 76 70	 push	 DWORD PTR [esi+112]
  00096	ff 76 08	 push	 DWORD PTR [esi+8]
  00099	e8 00 00 00 00	 call	 ?GetBlockRegion@CBlocksPositionCalculator@@SAXHHHABV?$CList@NN@@HAAN1@Z ; CBlocksPositionCalculator::GetBlockRegion

; 371  : 	return CRect( ( int)x1, ( int)y1, ( int)x2, ( int)y2);

  0009e	f2 0f 2c 45 dc	 cvttsd2si eax, QWORD PTR _x1$5[ebp]

; 413  : 			if(CBlocksPositionCalculator::IsRectInRect(GetBlockRegion(CBlockIndex(rowIndex, columnIndex)), region)){

  000a3	ff 75 e8	 push	 DWORD PTR _region$GSCopy$1$[ebp]
; File C:\Program Files (x86)\Microsoft Visual Studio\2019\Community\VC\Tools\MSVC\14.29.30133\atlmfc\include\atltypes.h

; 540  : 	left = l;

  000a6	89 45 ec	 mov	 DWORD PTR $T6[ebp], eax
; File D:\git\src\IBK\IBK_DRFN\ProjSrc\SrcChartEx\ChartOCX\ChartObject\BlocksPosition.cpp

; 371  : 	return CRect( ( int)x1, ( int)y1, ( int)x2, ( int)y2);

  000a9	f2 0f 2c 45 d4	 cvttsd2si eax, QWORD PTR _y1$4[ebp]
; File C:\Program Files (x86)\Microsoft Visual Studio\2019\Community\VC\Tools\MSVC\14.29.30133\atlmfc\include\atltypes.h

; 541  : 	top = t;

  000ae	89 45 f0	 mov	 DWORD PTR $T6[ebp+4], eax
; File D:\git\src\IBK\IBK_DRFN\ProjSrc\SrcChartEx\ChartOCX\ChartObject\BlocksPosition.cpp

; 371  : 	return CRect( ( int)x1, ( int)y1, ( int)x2, ( int)y2);

  000b1	f2 0f 2c 45 cc	 cvttsd2si eax, QWORD PTR _x2$3[ebp]
; File C:\Program Files (x86)\Microsoft Visual Studio\2019\Community\VC\Tools\MSVC\14.29.30133\atlmfc\include\atltypes.h

; 542  : 	right = r;

  000b6	89 45 f4	 mov	 DWORD PTR $T6[ebp+8], eax
; File D:\git\src\IBK\IBK_DRFN\ProjSrc\SrcChartEx\ChartOCX\ChartObject\BlocksPosition.cpp

; 371  : 	return CRect( ( int)x1, ( int)y1, ( int)x2, ( int)y2);

  000b9	f2 0f 2c 45 c4	 cvttsd2si eax, QWORD PTR _y2$2[ebp]
; File C:\Program Files (x86)\Microsoft Visual Studio\2019\Community\VC\Tools\MSVC\14.29.30133\atlmfc\include\atltypes.h

; 543  : 	bottom = b;

  000be	89 45 f8	 mov	 DWORD PTR $T6[ebp+12], eax
; File D:\git\src\IBK\IBK_DRFN\ProjSrc\SrcChartEx\ChartOCX\ChartObject\BlocksPosition.cpp

; 413  : 			if(CBlocksPositionCalculator::IsRectInRect(GetBlockRegion(CBlockIndex(rowIndex, columnIndex)), region)){

  000c1	8d 45 ec	 lea	 eax, DWORD PTR $T6[ebp]
  000c4	50		 push	 eax
  000c5	e8 00 00 00 00	 call	 ?IsRectInRect@CBlocksPositionCalculator@@SA_NABVCRect@@0@Z ; CBlocksPositionCalculator::IsRectInRect
  000ca	83 c4 24	 add	 esp, 36			; 00000024H
  000cd	84 c0		 test	 al, al
  000cf	75 38		 jne	 SHORT $LN27@GetRowAndC

; 412  : 		for(int rowIndex = 0; rowIndex < GetRowBlockCount(); rowIndex++){

  000d1	8b ce		 mov	 ecx, esi
  000d3	47		 inc	 edi
  000d4	e8 00 00 00 00	 call	 ?GetRowBlockCount@CBlocksPosition@@QBEHXZ ; CBlocksPosition::GetRowBlockCount
  000d9	3b f8		 cmp	 edi, eax
  000db	8d 46 14	 lea	 eax, DWORD PTR [esi+20]
  000de	0f 8c 60 ff ff
	ff		 jl	 $LL7@GetRowAndC
$LN2@GetRowAndC:

; 411  : 	for(int columnIndex = 0; columnIndex < GetColumnBlockCount(); columnIndex++){

  000e4	8b ce		 mov	 ecx, esi
  000e6	43		 inc	 ebx
  000e7	e8 00 00 00 00	 call	 ?GetColumnBlockCount@CBlocksPosition@@QBEHXZ ; CBlocksPosition::GetColumnBlockCount
  000ec	3b d8		 cmp	 ebx, eax
  000ee	0f 8c 3c ff ff
	ff		 jl	 $LL4@GetRowAndC
$LN34@GetRowAndC:
  000f4	5f		 pop	 edi

; 420  : }

  000f5	5e		 pop	 esi
  000f6	32 c0		 xor	 al, al
  000f8	5b		 pop	 ebx
  000f9	8b 4d fc	 mov	 ecx, DWORD PTR __$ArrayPad$[ebp]
  000fc	33 cd		 xor	 ecx, ebp
  000fe	e8 00 00 00 00	 call	 @__security_check_cookie@4
  00103	8b e5		 mov	 esp, ebp
  00105	5d		 pop	 ebp
  00106	c2 08 00	 ret	 8
$LN27@GetRowAndC:
; File D:\git\src\IBK\IBK_DRFN\ProjSrc\SrcChartEx\ChartOCX\Include_Chart\BlockBaseData.h

; 24   : 	void	SetIndex( const int row, const int column)	{	m_nRow = row;	m_nColumn = column;		}

  00109	8b 45 e4	 mov	 eax, DWORD PTR _blockIndex$GSCopy$1$[ebp]
; File D:\git\src\IBK\IBK_DRFN\ProjSrc\SrcChartEx\ChartOCX\ChartObject\BlocksPosition.cpp

; 420  : }

  0010c	8b 4d fc	 mov	 ecx, DWORD PTR __$ArrayPad$[ebp]
  0010f	33 cd		 xor	 ecx, ebp
; File D:\git\src\IBK\IBK_DRFN\ProjSrc\SrcChartEx\ChartOCX\Include_Chart\BlockBaseData.h

; 24   : 	void	SetIndex( const int row, const int column)	{	m_nRow = row;	m_nColumn = column;		}

  00111	89 38		 mov	 DWORD PTR [eax], edi
  00113	5f		 pop	 edi
  00114	89 58 04	 mov	 DWORD PTR [eax+4], ebx
; File D:\git\src\IBK\IBK_DRFN\ProjSrc\SrcChartEx\ChartOCX\ChartObject\BlocksPosition.cpp

; 415  : 				return true;

  00117	b0 01		 mov	 al, 1

; 420  : }

  00119	5e		 pop	 esi
  0011a	5b		 pop	 ebx
  0011b	e8 00 00 00 00	 call	 @__security_check_cookie@4
  00120	8b e5		 mov	 esp, ebp
  00122	5d		 pop	 ebp
  00123	c2 08 00	 ret	 8
?GetRowAndColumn@CBlocksPosition@@QBE_NABVCRect@@AAVCBlockIndex@@@Z ENDP ; CBlocksPosition::GetRowAndColumn
_TEXT	ENDS
; Function compile flags: /Ogtp
; File D:\git\src\IBK\IBK_DRFN\ProjSrc\SrcChartEx\ChartOCX\ChartObject\BlocksPosition.cpp
; File C:\Program Files (x86)\Microsoft Visual Studio\2019\Community\VC\Tools\MSVC\14.29.30133\atlmfc\include\afxtempl.h
; File D:\git\src\IBK\IBK_DRFN\ProjSrc\SrcChartEx\ChartOCX\ChartObject\BlocksPosition.cpp
; File C:\Program Files (x86)\Microsoft Visual Studio\2019\Community\VC\Tools\MSVC\14.29.30133\atlmfc\include\atltypes.h
; File D:\git\src\IBK\IBK_DRFN\ProjSrc\SrcChartEx\ChartOCX\ChartObject\BlocksPosition.cpp
; File C:\Program Files (x86)\Microsoft Visual Studio\2019\Community\VC\Tools\MSVC\14.29.30133\atlmfc\include\atltypes.h
; File D:\git\src\IBK\IBK_DRFN\ProjSrc\SrcChartEx\ChartOCX\ChartObject\BlocksPosition.cpp
; File C:\Program Files (x86)\Microsoft Visual Studio\2019\Community\VC\Tools\MSVC\14.29.30133\atlmfc\include\atltypes.h
; File D:\git\src\IBK\IBK_DRFN\ProjSrc\SrcChartEx\ChartOCX\ChartObject\BlocksPosition.cpp
; File C:\Program Files (x86)\Microsoft Visual Studio\2019\Community\VC\Tools\MSVC\14.29.30133\atlmfc\include\atltypes.h
; File D:\git\src\IBK\IBK_DRFN\ProjSrc\SrcChartEx\ChartOCX\ChartObject\BlocksPosition.cpp
; File D:\git\src\IBK\IBK_DRFN\ProjSrc\SrcChartEx\ChartOCX\Include_Chart\BlockBaseData.h
; File D:\git\src\IBK\IBK_DRFN\ProjSrc\SrcChartEx\ChartOCX\ChartObject\BlocksPosition.cpp
; File D:\git\src\IBK\IBK_DRFN\ProjSrc\SrcChartEx\ChartOCX\Include_Chart\BlockBaseData.h
; File D:\git\src\IBK\IBK_DRFN\ProjSrc\SrcChartEx\ChartOCX\ChartObject\BlocksPosition.cpp
;	COMDAT ?GetRowAndColumn@CBlocksPosition@@QBE_NABVCPoint@@AAVCBlockIndex@@@Z
_TEXT	SEGMENT
_y2$2 = -68						; size = 8
_x2$3 = -60						; size = 8
_y1$4 = -52						; size = 8
_x1$5 = -44						; size = 8
_blockIndex$GSCopy$1$ = -36				; size = 4
$T6 = -32						; size = 4
$T7 = -28						; size = 4
_point$GSCopy$1$ = -24					; size = 4
$T8 = -20						; size = 16
__$ArrayPad$ = -4					; size = 4
_point$ = 8						; size = 4
_blockIndex$ = 12					; size = 4
?GetRowAndColumn@CBlocksPosition@@QBE_NABVCPoint@@AAVCBlockIndex@@@Z PROC ; CBlocksPosition::GetRowAndColumn, COMDAT
; _this$ = ecx

; 397  : {

  00000	55		 push	 ebp
  00001	8b ec		 mov	 ebp, esp
  00003	83 ec 44	 sub	 esp, 68			; 00000044H
  00006	a1 00 00 00 00	 mov	 eax, DWORD PTR ___security_cookie
  0000b	33 c5		 xor	 eax, ebp
  0000d	89 45 fc	 mov	 DWORD PTR __$ArrayPad$[ebp], eax
  00010	8b 45 08	 mov	 eax, DWORD PTR _point$[ebp]
  00013	53		 push	 ebx
  00014	56		 push	 esi
  00015	89 45 e8	 mov	 DWORD PTR _point$GSCopy$1$[ebp], eax
  00018	8b f1		 mov	 esi, ecx
  0001a	8b 45 0c	 mov	 eax, DWORD PTR _blockIndex$[ebp]

; 398  : 	for(int columnIndex = 0; columnIndex < GetColumnBlockCount(); columnIndex++){

  0001d	33 db		 xor	 ebx, ebx
  0001f	57		 push	 edi
  00020	89 45 dc	 mov	 DWORD PTR _blockIndex$GSCopy$1$[ebp], eax
  00023	e8 00 00 00 00	 call	 ?GetColumnBlockCount@CBlocksPosition@@QBEHXZ ; CBlocksPosition::GetColumnBlockCount
  00028	85 c0		 test	 eax, eax
  0002a	0f 8e d6 00 00
	00		 jle	 $LN36@GetRowAndC
$LL4@GetRowAndC:

; 399  : 		for(int rowIndex = 0; rowIndex < GetRowBlockCount(); rowIndex++){

  00030	8b ce		 mov	 ecx, esi
  00032	33 ff		 xor	 edi, edi
  00034	e8 00 00 00 00	 call	 ?GetRowBlockCount@CBlocksPosition@@QBEHXZ ; CBlocksPosition::GetRowBlockCount
  00039	85 c0		 test	 eax, eax
  0003b	0f 8e b5 00 00
	00		 jle	 $LN2@GetRowAndC
  00041	8d 56 14	 lea	 edx, DWORD PTR [esi+20]
$LL7@GetRowAndC:

; 400  : 			if(GetBlockRegion(CBlockIndex(rowIndex, columnIndex)).PtInRect(point)){

  00044	8b 4d e8	 mov	 ecx, DWORD PTR _point$GSCopy$1$[ebp]
  00047	0f 57 c0	 xorps	 xmm0, xmm0

; 367  : 	double x1 = 0, x2 = 0, y1 = 0, y2 = 0;

  0004a	f2 0f 11 45 d4	 movsd	 QWORD PTR _x1$5[ebp], xmm0
  0004f	f2 0f 11 45 c4	 movsd	 QWORD PTR _x2$3[ebp], xmm0
  00054	f2 0f 11 45 cc	 movsd	 QWORD PTR _y1$4[ebp], xmm0

; 400  : 			if(GetBlockRegion(CBlockIndex(rowIndex, columnIndex)).PtInRect(point)){

  00059	8b 01		 mov	 eax, DWORD PTR [ecx]
  0005b	89 45 e0	 mov	 DWORD PTR $T6[ebp], eax
  0005e	8b 41 04	 mov	 eax, DWORD PTR [ecx+4]
  00061	89 45 e4	 mov	 DWORD PTR $T7[ebp], eax

; 368  : 	CBlocksPositionCalculator::GetBlockRegion(m_allBlockRegion.left, m_nInterBlockHalfGap, m_nCompartLineThickness, m_lColumn, blockIndex.GetColumn(), x1, x2);

  00064	8d 45 c4	 lea	 eax, DWORD PTR _x2$3[ebp]
  00067	50		 push	 eax
  00068	8d 45 d4	 lea	 eax, DWORD PTR _x1$5[ebp]
  0006b	f2 0f 11 45 bc	 movsd	 QWORD PTR _y2$2[ebp], xmm0
  00070	50		 push	 eax
  00071	53		 push	 ebx
  00072	52		 push	 edx
  00073	ff 76 74	 push	 DWORD PTR [esi+116]
  00076	ff 76 70	 push	 DWORD PTR [esi+112]
  00079	ff 76 04	 push	 DWORD PTR [esi+4]
  0007c	e8 00 00 00 00	 call	 ?GetBlockRegion@CBlocksPositionCalculator@@SAXHHHABV?$CList@NN@@HAAN1@Z ; CBlocksPositionCalculator::GetBlockRegion
  00081	83 c4 1c	 add	 esp, 28			; 0000001cH
; File C:\Program Files (x86)\Microsoft Visual Studio\2019\Community\VC\Tools\MSVC\14.29.30133\atlmfc\include\afxtempl.h

; 786  : 	{ return m_nCount == 0; }

  00084	83 7e 60 00	 cmp	 DWORD PTR [esi+96], 0
; File D:\git\src\IBK\IBK_DRFN\ProjSrc\SrcChartEx\ChartOCX\ChartObject\BlocksPosition.cpp

; 113  : 	if( m_dlRowReal.IsEmpty()) UpdateRowRealFromRowRate();

  00088	75 07		 jne	 SHORT $LN17@GetRowAndC
  0008a	8b ce		 mov	 ecx, esi
  0008c	e8 00 00 00 00	 call	 ?UpdateRowRealFromRowRate@CBlocksPositionBase@@IAEXXZ ; CBlocksPositionBase::UpdateRowRealFromRowRate
$LN17@GetRowAndC:

; 370  : 	CBlocksPositionCalculator::GetBlockRegion(m_allBlockRegion.top, m_nInterBlockHalfGap, m_nCompartLineThickness, lRowReal, blockIndex.GetRow(), y1, y2);

  00091	8d 45 bc	 lea	 eax, DWORD PTR _y2$2[ebp]
  00094	50		 push	 eax
  00095	8d 45 cc	 lea	 eax, DWORD PTR _y1$4[ebp]
  00098	50		 push	 eax
  00099	57		 push	 edi
  0009a	8d 46 54	 lea	 eax, DWORD PTR [esi+84]
  0009d	50		 push	 eax
  0009e	ff 76 74	 push	 DWORD PTR [esi+116]
  000a1	ff 76 70	 push	 DWORD PTR [esi+112]
  000a4	ff 76 08	 push	 DWORD PTR [esi+8]
  000a7	e8 00 00 00 00	 call	 ?GetBlockRegion@CBlocksPositionCalculator@@SAXHHHABV?$CList@NN@@HAAN1@Z ; CBlocksPositionCalculator::GetBlockRegion

; 371  : 	return CRect( ( int)x1, ( int)y1, ( int)x2, ( int)y2);

  000ac	f2 0f 2c 45 d4	 cvttsd2si eax, QWORD PTR _x1$5[ebp]
  000b1	83 c4 1c	 add	 esp, 28			; 0000001cH
; File C:\Program Files (x86)\Microsoft Visual Studio\2019\Community\VC\Tools\MSVC\14.29.30133\atlmfc\include\atltypes.h

; 648  : 	return ::PtInRect(this, point);

  000b4	ff 75 e4	 push	 DWORD PTR $T7[ebp]

; 540  : 	left = l;

  000b7	89 45 ec	 mov	 DWORD PTR $T8[ebp], eax
; File D:\git\src\IBK\IBK_DRFN\ProjSrc\SrcChartEx\ChartOCX\ChartObject\BlocksPosition.cpp

; 371  : 	return CRect( ( int)x1, ( int)y1, ( int)x2, ( int)y2);

  000ba	f2 0f 2c 45 cc	 cvttsd2si eax, QWORD PTR _y1$4[ebp]
; File C:\Program Files (x86)\Microsoft Visual Studio\2019\Community\VC\Tools\MSVC\14.29.30133\atlmfc\include\atltypes.h

; 648  : 	return ::PtInRect(this, point);

  000bf	ff 75 e0	 push	 DWORD PTR $T6[ebp]

; 541  : 	top = t;

  000c2	89 45 f0	 mov	 DWORD PTR $T8[ebp+4], eax
; File D:\git\src\IBK\IBK_DRFN\ProjSrc\SrcChartEx\ChartOCX\ChartObject\BlocksPosition.cpp

; 371  : 	return CRect( ( int)x1, ( int)y1, ( int)x2, ( int)y2);

  000c5	f2 0f 2c 45 c4	 cvttsd2si eax, QWORD PTR _x2$3[ebp]
; File C:\Program Files (x86)\Microsoft Visual Studio\2019\Community\VC\Tools\MSVC\14.29.30133\atlmfc\include\atltypes.h

; 542  : 	right = r;

  000ca	89 45 f4	 mov	 DWORD PTR $T8[ebp+8], eax
; File D:\git\src\IBK\IBK_DRFN\ProjSrc\SrcChartEx\ChartOCX\ChartObject\BlocksPosition.cpp

; 371  : 	return CRect( ( int)x1, ( int)y1, ( int)x2, ( int)y2);

  000cd	f2 0f 2c 45 bc	 cvttsd2si eax, QWORD PTR _y2$2[ebp]
; File C:\Program Files (x86)\Microsoft Visual Studio\2019\Community\VC\Tools\MSVC\14.29.30133\atlmfc\include\atltypes.h

; 543  : 	bottom = b;

  000d2	89 45 f8	 mov	 DWORD PTR $T8[ebp+12], eax

; 648  : 	return ::PtInRect(this, point);

  000d5	8d 45 ec	 lea	 eax, DWORD PTR $T8[ebp]
  000d8	50		 push	 eax
  000d9	ff 15 00 00 00
	00		 call	 DWORD PTR __imp__PtInRect@12
; File D:\git\src\IBK\IBK_DRFN\ProjSrc\SrcChartEx\ChartOCX\ChartObject\BlocksPosition.cpp

; 400  : 			if(GetBlockRegion(CBlockIndex(rowIndex, columnIndex)).PtInRect(point)){

  000df	85 c0		 test	 eax, eax
  000e1	75 38		 jne	 SHORT $LN29@GetRowAndC

; 399  : 		for(int rowIndex = 0; rowIndex < GetRowBlockCount(); rowIndex++){

  000e3	8b ce		 mov	 ecx, esi
  000e5	47		 inc	 edi
  000e6	e8 00 00 00 00	 call	 ?GetRowBlockCount@CBlocksPosition@@QBEHXZ ; CBlocksPosition::GetRowBlockCount
  000eb	8d 56 14	 lea	 edx, DWORD PTR [esi+20]
  000ee	3b f8		 cmp	 edi, eax
  000f0	0f 8c 4e ff ff
	ff		 jl	 $LL7@GetRowAndC
$LN2@GetRowAndC:

; 398  : 	for(int columnIndex = 0; columnIndex < GetColumnBlockCount(); columnIndex++){

  000f6	8b ce		 mov	 ecx, esi
  000f8	43		 inc	 ebx
  000f9	e8 00 00 00 00	 call	 ?GetColumnBlockCount@CBlocksPosition@@QBEHXZ ; CBlocksPosition::GetColumnBlockCount
  000fe	3b d8		 cmp	 ebx, eax
  00100	0f 8c 2a ff ff
	ff		 jl	 $LL4@GetRowAndC
$LN36@GetRowAndC:
  00106	5f		 pop	 edi

; 407  : }

  00107	5e		 pop	 esi
  00108	32 c0		 xor	 al, al
  0010a	5b		 pop	 ebx
  0010b	8b 4d fc	 mov	 ecx, DWORD PTR __$ArrayPad$[ebp]
  0010e	33 cd		 xor	 ecx, ebp
  00110	e8 00 00 00 00	 call	 @__security_check_cookie@4
  00115	8b e5		 mov	 esp, ebp
  00117	5d		 pop	 ebp
  00118	c2 08 00	 ret	 8
$LN29@GetRowAndC:
; File D:\git\src\IBK\IBK_DRFN\ProjSrc\SrcChartEx\ChartOCX\Include_Chart\BlockBaseData.h

; 24   : 	void	SetIndex( const int row, const int column)	{	m_nRow = row;	m_nColumn = column;		}

  0011b	8b 45 dc	 mov	 eax, DWORD PTR _blockIndex$GSCopy$1$[ebp]
; File D:\git\src\IBK\IBK_DRFN\ProjSrc\SrcChartEx\ChartOCX\ChartObject\BlocksPosition.cpp

; 407  : }

  0011e	8b 4d fc	 mov	 ecx, DWORD PTR __$ArrayPad$[ebp]
  00121	33 cd		 xor	 ecx, ebp
; File D:\git\src\IBK\IBK_DRFN\ProjSrc\SrcChartEx\ChartOCX\Include_Chart\BlockBaseData.h

; 24   : 	void	SetIndex( const int row, const int column)	{	m_nRow = row;	m_nColumn = column;		}

  00123	89 38		 mov	 DWORD PTR [eax], edi
  00125	5f		 pop	 edi
  00126	89 58 04	 mov	 DWORD PTR [eax+4], ebx
; File D:\git\src\IBK\IBK_DRFN\ProjSrc\SrcChartEx\ChartOCX\ChartObject\BlocksPosition.cpp

; 402  : 				return true;

  00129	b0 01		 mov	 al, 1

; 407  : }

  0012b	5e		 pop	 esi
  0012c	5b		 pop	 ebx
  0012d	e8 00 00 00 00	 call	 @__security_check_cookie@4
  00132	8b e5		 mov	 esp, ebp
  00134	5d		 pop	 ebp
  00135	c2 08 00	 ret	 8
?GetRowAndColumn@CBlocksPosition@@QBE_NABVCPoint@@AAVCBlockIndex@@@Z ENDP ; CBlocksPosition::GetRowAndColumn
_TEXT	ENDS
; Function compile flags: /Ogtp
; File D:\git\src\IBK\IBK_DRFN\ProjSrc\SrcChartEx\ChartOCX\ChartObject\BlocksPosition.cpp
;	COMDAT ?GetColumnBlockCount@CBlocksPosition@@QBEHXZ
_TEXT	SEGMENT
?GetColumnBlockCount@CBlocksPosition@@QBEHXZ PROC	; CBlocksPosition::GetColumnBlockCount, COMDAT
; _this$ = ecx

; 390  : 	if(m_lColumn.GetCount() <= 0)

  00000	8b 41 20	 mov	 eax, DWORD PTR [ecx+32]
  00003	85 c0		 test	 eax, eax
  00005	7f 03		 jg	 SHORT $LN2@GetColumnB

; 391  : 		return 0;

  00007	33 c0		 xor	 eax, eax

; 394  : }

  00009	c3		 ret	 0
$LN2@GetColumnB:

; 392  : 
; 393  : 	return (m_lColumn.GetCount() -1);

  0000a	48		 dec	 eax

; 394  : }

  0000b	c3		 ret	 0
?GetColumnBlockCount@CBlocksPosition@@QBEHXZ ENDP	; CBlocksPosition::GetColumnBlockCount
_TEXT	ENDS
; Function compile flags: /Ogtp
; File D:\git\src\IBK\IBK_DRFN\ProjSrc\SrcChartEx\ChartOCX\ChartObject\BlocksPosition.cpp
;	COMDAT ?GetRowBlockCount@CBlocksPosition@@QBEHXZ
_TEXT	SEGMENT
?GetRowBlockCount@CBlocksPosition@@QBEHXZ PROC		; CBlocksPosition::GetRowBlockCount, COMDAT
; _this$ = ecx

; 383  : 	if( GetRowCount() <= 0) return 0;

  00000	8b 41 44	 mov	 eax, DWORD PTR [ecx+68]
  00003	85 c0		 test	 eax, eax
  00005	7f 03		 jg	 SHORT $LN2@GetRowBloc
  00007	33 c0		 xor	 eax, eax

; 385  : }

  00009	c3		 ret	 0
$LN2@GetRowBloc:

; 384  : 	return GetRowCount() - 1;

  0000a	48		 dec	 eax

; 385  : }

  0000b	c3		 ret	 0
?GetRowBlockCount@CBlocksPosition@@QBEHXZ ENDP		; CBlocksPosition::GetRowBlockCount
_TEXT	ENDS
; Function compile flags: /Ogtp
; File D:\git\src\IBK\IBK_DRFN\ProjSrc\SrcChartEx\ChartOCX\ChartObject\BlocksPosition.cpp
;	COMDAT ?GetBlockCount@CBlocksPosition@@QBEHXZ
_TEXT	SEGMENT
?GetBlockCount@CBlocksPosition@@QBEHXZ PROC		; CBlocksPosition::GetBlockCount, COMDAT
; _this$ = ecx

; 376  : {

  00000	56		 push	 esi

; 383  : 	if( GetRowCount() <= 0) return 0;

  00001	8b 71 44	 mov	 esi, DWORD PTR [ecx+68]

; 377  : 	return (GetRowBlockCount() * GetColumnBlockCount());

  00004	33 c0		 xor	 eax, eax

; 390  : 	if(m_lColumn.GetCount() <= 0)

  00006	8b 49 20	 mov	 ecx, DWORD PTR [ecx+32]

; 377  : 	return (GetRowBlockCount() * GetColumnBlockCount());

  00009	85 c9		 test	 ecx, ecx
  0000b	8d 51 ff	 lea	 edx, DWORD PTR [ecx-1]
  0000e	0f 4f c2	 cmovg	 eax, edx

; 390  : 	if(m_lColumn.GetCount() <= 0)

  00011	33 c9		 xor	 ecx, ecx
  00013	85 f6		 test	 esi, esi
  00015	8d 56 ff	 lea	 edx, DWORD PTR [esi-1]

; 377  : 	return (GetRowBlockCount() * GetColumnBlockCount());

  00018	5e		 pop	 esi

; 390  : 	if(m_lColumn.GetCount() <= 0)

  00019	0f 4f ca	 cmovg	 ecx, edx

; 377  : 	return (GetRowBlockCount() * GetColumnBlockCount());

  0001c	0f af c1	 imul	 eax, ecx

; 378  : }

  0001f	c3		 ret	 0
?GetBlockCount@CBlocksPosition@@QBEHXZ ENDP		; CBlocksPosition::GetBlockCount
_TEXT	ENDS
; Function compile flags: /Ogtp
; File D:\git\src\IBK\IBK_DRFN\ProjSrc\SrcChartEx\ChartOCX\ChartObject\BlocksPosition.cpp
; File C:\Program Files (x86)\Microsoft Visual Studio\2019\Community\VC\Tools\MSVC\14.29.30133\atlmfc\include\afxtempl.h
; File D:\git\src\IBK\IBK_DRFN\ProjSrc\SrcChartEx\ChartOCX\ChartObject\BlocksPosition.cpp
; File C:\Program Files (x86)\Microsoft Visual Studio\2019\Community\VC\Tools\MSVC\14.29.30133\atlmfc\include\atltypes.h
; File D:\git\src\IBK\IBK_DRFN\ProjSrc\SrcChartEx\ChartOCX\ChartObject\BlocksPosition.cpp
; File C:\Program Files (x86)\Microsoft Visual Studio\2019\Community\VC\Tools\MSVC\14.29.30133\atlmfc\include\atltypes.h
; File D:\git\src\IBK\IBK_DRFN\ProjSrc\SrcChartEx\ChartOCX\ChartObject\BlocksPosition.cpp
; File C:\Program Files (x86)\Microsoft Visual Studio\2019\Community\VC\Tools\MSVC\14.29.30133\atlmfc\include\atltypes.h
; File D:\git\src\IBK\IBK_DRFN\ProjSrc\SrcChartEx\ChartOCX\ChartObject\BlocksPosition.cpp
; File C:\Program Files (x86)\Microsoft Visual Studio\2019\Community\VC\Tools\MSVC\14.29.30133\atlmfc\include\atltypes.h
; File D:\git\src\IBK\IBK_DRFN\ProjSrc\SrcChartEx\ChartOCX\ChartObject\BlocksPosition.cpp
; File C:\Program Files (x86)\Microsoft Visual Studio\2019\Community\VC\Tools\MSVC\14.29.30133\atlmfc\include\atltypes.h
; File D:\git\src\IBK\IBK_DRFN\ProjSrc\SrcChartEx\ChartOCX\ChartObject\BlocksPosition.cpp
;	COMDAT ?GetBlockRegion@CBlocksPosition@@QBE?AVCRect@@ABVCBlockIndex@@@Z
_TEXT	SEGMENT
_y2$ = -32						; size = 8
_x2$ = -24						; size = 8
_y1$ = -16						; size = 8
_x1$ = -8						; size = 8
___$ReturnUdt$ = 8					; size = 4
_blockIndex$ = 12					; size = 4
?GetBlockRegion@CBlocksPosition@@QBE?AVCRect@@ABVCBlockIndex@@@Z PROC ; CBlocksPosition::GetBlockRegion, COMDAT
; _this$ = ecx

; 363  : {

  00000	55		 push	 ebp
  00001	8b ec		 mov	 ebp, esp
  00003	83 ec 20	 sub	 esp, 32			; 00000020H
  00006	56		 push	 esi
  00007	57		 push	 edi

; 364  : 	assert(blockIndex.GetColumn() >= 0 && blockIndex.GetColumn() < GetColumnBlockCount());
; 365  : 	assert(blockIndex.GetRow() >= 0 && blockIndex.GetRow() < GetRowBlockCount());
; 366  : 
; 367  : 	double x1 = 0, x2 = 0, y1 = 0, y2 = 0;
; 368  : 	CBlocksPositionCalculator::GetBlockRegion(m_allBlockRegion.left, m_nInterBlockHalfGap, m_nCompartLineThickness, m_lColumn, blockIndex.GetColumn(), x1, x2);

  00008	8b 7d 0c	 mov	 edi, DWORD PTR _blockIndex$[ebp]
  0000b	8d 45 e8	 lea	 eax, DWORD PTR _x2$[ebp]
  0000e	50		 push	 eax
  0000f	8b f1		 mov	 esi, ecx
  00011	8d 45 f8	 lea	 eax, DWORD PTR _x1$[ebp]
  00014	50		 push	 eax
  00015	ff 77 04	 push	 DWORD PTR [edi+4]
  00018	0f 57 c0	 xorps	 xmm0, xmm0
  0001b	8d 46 14	 lea	 eax, DWORD PTR [esi+20]
  0001e	f2 0f 11 45 f8	 movsd	 QWORD PTR _x1$[ebp], xmm0
  00023	50		 push	 eax
  00024	ff 76 74	 push	 DWORD PTR [esi+116]
  00027	f2 0f 11 45 e8	 movsd	 QWORD PTR _x2$[ebp], xmm0
  0002c	ff 76 70	 push	 DWORD PTR [esi+112]
  0002f	f2 0f 11 45 f0	 movsd	 QWORD PTR _y1$[ebp], xmm0
  00034	ff 76 04	 push	 DWORD PTR [esi+4]
  00037	f2 0f 11 45 e0	 movsd	 QWORD PTR _y2$[ebp], xmm0
  0003c	e8 00 00 00 00	 call	 ?GetBlockRegion@CBlocksPositionCalculator@@SAXHHHABV?$CList@NN@@HAAN1@Z ; CBlocksPositionCalculator::GetBlockRegion
  00041	83 c4 1c	 add	 esp, 28			; 0000001cH
; File C:\Program Files (x86)\Microsoft Visual Studio\2019\Community\VC\Tools\MSVC\14.29.30133\atlmfc\include\afxtempl.h

; 786  : 	{ return m_nCount == 0; }

  00044	83 7e 60 00	 cmp	 DWORD PTR [esi+96], 0
; File D:\git\src\IBK\IBK_DRFN\ProjSrc\SrcChartEx\ChartOCX\ChartObject\BlocksPosition.cpp

; 113  : 	if( m_dlRowReal.IsEmpty()) UpdateRowRealFromRowRate();

  00048	75 07		 jne	 SHORT $LN6@GetBlockRe
  0004a	8b ce		 mov	 ecx, esi
  0004c	e8 00 00 00 00	 call	 ?UpdateRowRealFromRowRate@CBlocksPositionBase@@IAEXXZ ; CBlocksPositionBase::UpdateRowRealFromRowRate
$LN6@GetBlockRe:

; 370  : 	CBlocksPositionCalculator::GetBlockRegion(m_allBlockRegion.top, m_nInterBlockHalfGap, m_nCompartLineThickness, lRowReal, blockIndex.GetRow(), y1, y2);

  00051	8d 45 e0	 lea	 eax, DWORD PTR _y2$[ebp]
  00054	50		 push	 eax
  00055	8d 45 f0	 lea	 eax, DWORD PTR _y1$[ebp]
  00058	50		 push	 eax
  00059	ff 37		 push	 DWORD PTR [edi]

; 114  : 	return m_dlRowReal;

  0005b	8d 46 54	 lea	 eax, DWORD PTR [esi+84]

; 370  : 	CBlocksPositionCalculator::GetBlockRegion(m_allBlockRegion.top, m_nInterBlockHalfGap, m_nCompartLineThickness, lRowReal, blockIndex.GetRow(), y1, y2);

  0005e	50		 push	 eax
  0005f	ff 76 74	 push	 DWORD PTR [esi+116]
  00062	ff 76 70	 push	 DWORD PTR [esi+112]
  00065	ff 76 08	 push	 DWORD PTR [esi+8]
  00068	e8 00 00 00 00	 call	 ?GetBlockRegion@CBlocksPositionCalculator@@SAXHHHABV?$CList@NN@@HAAN1@Z ; CBlocksPositionCalculator::GetBlockRegion

; 371  : 	return CRect( ( int)x1, ( int)y1, ( int)x2, ( int)y2);

  0006d	f2 0f 2c 4d f8	 cvttsd2si ecx, QWORD PTR _x1$[ebp]
; File C:\Program Files (x86)\Microsoft Visual Studio\2019\Community\VC\Tools\MSVC\14.29.30133\atlmfc\include\atltypes.h

; 540  : 	left = l;

  00072	8b 45 08	 mov	 eax, DWORD PTR ___$ReturnUdt$[ebp]
; File D:\git\src\IBK\IBK_DRFN\ProjSrc\SrcChartEx\ChartOCX\ChartObject\BlocksPosition.cpp

; 370  : 	CBlocksPositionCalculator::GetBlockRegion(m_allBlockRegion.top, m_nInterBlockHalfGap, m_nCompartLineThickness, lRowReal, blockIndex.GetRow(), y1, y2);

  00075	83 c4 1c	 add	 esp, 28			; 0000001cH

; 371  : 	return CRect( ( int)x1, ( int)y1, ( int)x2, ( int)y2);

  00078	5f		 pop	 edi
  00079	5e		 pop	 esi
; File C:\Program Files (x86)\Microsoft Visual Studio\2019\Community\VC\Tools\MSVC\14.29.30133\atlmfc\include\atltypes.h

; 540  : 	left = l;

  0007a	89 08		 mov	 DWORD PTR [eax], ecx
; File D:\git\src\IBK\IBK_DRFN\ProjSrc\SrcChartEx\ChartOCX\ChartObject\BlocksPosition.cpp

; 371  : 	return CRect( ( int)x1, ( int)y1, ( int)x2, ( int)y2);

  0007c	f2 0f 2c 4d f0	 cvttsd2si ecx, QWORD PTR _y1$[ebp]
; File C:\Program Files (x86)\Microsoft Visual Studio\2019\Community\VC\Tools\MSVC\14.29.30133\atlmfc\include\atltypes.h

; 541  : 	top = t;

  00081	89 48 04	 mov	 DWORD PTR [eax+4], ecx
; File D:\git\src\IBK\IBK_DRFN\ProjSrc\SrcChartEx\ChartOCX\ChartObject\BlocksPosition.cpp

; 371  : 	return CRect( ( int)x1, ( int)y1, ( int)x2, ( int)y2);

  00084	f2 0f 2c 4d e8	 cvttsd2si ecx, QWORD PTR _x2$[ebp]
; File C:\Program Files (x86)\Microsoft Visual Studio\2019\Community\VC\Tools\MSVC\14.29.30133\atlmfc\include\atltypes.h

; 542  : 	right = r;

  00089	89 48 08	 mov	 DWORD PTR [eax+8], ecx
; File D:\git\src\IBK\IBK_DRFN\ProjSrc\SrcChartEx\ChartOCX\ChartObject\BlocksPosition.cpp

; 371  : 	return CRect( ( int)x1, ( int)y1, ( int)x2, ( int)y2);

  0008c	f2 0f 2c 4d e0	 cvttsd2si ecx, QWORD PTR _y2$[ebp]
; File C:\Program Files (x86)\Microsoft Visual Studio\2019\Community\VC\Tools\MSVC\14.29.30133\atlmfc\include\atltypes.h

; 543  : 	bottom = b;

  00091	89 48 0c	 mov	 DWORD PTR [eax+12], ecx
; File D:\git\src\IBK\IBK_DRFN\ProjSrc\SrcChartEx\ChartOCX\ChartObject\BlocksPosition.cpp

; 372  : }

  00094	8b e5		 mov	 esp, ebp
  00096	5d		 pop	 ebp
  00097	c2 08 00	 ret	 8
?GetBlockRegion@CBlocksPosition@@QBE?AVCRect@@ABVCBlockIndex@@@Z ENDP ; CBlocksPosition::GetBlockRegion
_TEXT	ENDS
; Function compile flags: /Ogtp
; File D:\git\src\IBK\IBK_DRFN\ProjSrc\SrcChartEx\ChartOCX\ChartObject\BlocksPosition.cpp
; File D:\git\src\IBK\IBK_DRFN\ProjSrc\SrcChartEx\ChartOCX\Include_Chart\BlockBaseData.h
; File D:\git\src\IBK\IBK_DRFN\ProjSrc\SrcChartEx\ChartOCX\ChartObject\BlocksPosition.cpp
; File D:\git\src\IBK\IBK_DRFN\ProjSrc\SrcChartEx\ChartOCX\Include_Chart\BlockBaseData.h
; File D:\git\src\IBK\IBK_DRFN\ProjSrc\SrcChartEx\ChartOCX\ChartObject\BlocksPosition.cpp
; File D:\git\src\IBK\IBK_DRFN\ProjSrc\SrcChartEx\ChartOCX\Include_Chart\BlockBaseData.h
; File D:\git\src\IBK\IBK_DRFN\ProjSrc\SrcChartEx\ChartOCX\ChartObject\BlocksPosition.cpp
; File C:\Program Files (x86)\Microsoft Visual Studio\2019\Community\VC\Tools\MSVC\14.29.30133\atlmfc\include\atltypes.h
; File D:\git\src\IBK\IBK_DRFN\ProjSrc\SrcChartEx\ChartOCX\ChartObject\BlocksPosition.cpp
;	COMDAT ?GetBlocksColumnRegion@CBlocksPosition@@QBE?AVCRect@@H@Z
_TEXT	SEGMENT
_firstBlockRegion$ = -24				; size = 16
$T1 = -8						; size = 8
___$ReturnUdt$ = 8					; size = 4
_columnIndex$ = 12					; size = 4
?GetBlocksColumnRegion@CBlocksPosition@@QBE?AVCRect@@H@Z PROC ; CBlocksPosition::GetBlocksColumnRegion, COMDAT
; _this$ = ecx

; 354  : {

  00000	55		 push	 ebp
  00001	8b ec		 mov	 ebp, esp
  00003	83 ec 18	 sub	 esp, 24			; 00000018H
; File D:\git\src\IBK\IBK_DRFN\ProjSrc\SrcChartEx\ChartOCX\Include_Chart\BlockBaseData.h

; 20   : 	CBlockIndex( const int row, const int column)		{	m_nRow = row;	m_nColumn = column;		}

  00006	8b 45 0c	 mov	 eax, DWORD PTR _columnIndex$[ebp]
; File D:\git\src\IBK\IBK_DRFN\ProjSrc\SrcChartEx\ChartOCX\ChartObject\BlocksPosition.cpp

; 354  : {

  00009	56		 push	 esi
; File D:\git\src\IBK\IBK_DRFN\ProjSrc\SrcChartEx\ChartOCX\Include_Chart\BlockBaseData.h

; 20   : 	CBlockIndex( const int row, const int column)		{	m_nRow = row;	m_nColumn = column;		}

  0000a	89 45 fc	 mov	 DWORD PTR $T1[ebp+4], eax
; File D:\git\src\IBK\IBK_DRFN\ProjSrc\SrcChartEx\ChartOCX\ChartObject\BlocksPosition.cpp

; 354  : {

  0000d	8b f1		 mov	 esi, ecx

; 357  : 	CRect firstBlockRegion = GetBlockRegion(CBlockIndex(0, columnIndex));

  0000f	8d 45 f8	 lea	 eax, DWORD PTR $T1[ebp]
; File D:\git\src\IBK\IBK_DRFN\ProjSrc\SrcChartEx\ChartOCX\Include_Chart\BlockBaseData.h

; 20   : 	CBlockIndex( const int row, const int column)		{	m_nRow = row;	m_nColumn = column;		}

  00012	c7 45 f8 00 00
	00 00		 mov	 DWORD PTR $T1[ebp], 0
; File D:\git\src\IBK\IBK_DRFN\ProjSrc\SrcChartEx\ChartOCX\ChartObject\BlocksPosition.cpp

; 357  : 	CRect firstBlockRegion = GetBlockRegion(CBlockIndex(0, columnIndex));

  00019	50		 push	 eax
  0001a	8d 45 e8	 lea	 eax, DWORD PTR _firstBlockRegion$[ebp]
  0001d	50		 push	 eax
  0001e	e8 00 00 00 00	 call	 ?GetBlockRegion@CBlocksPosition@@QBE?AVCRect@@ABVCBlockIndex@@@Z ; CBlocksPosition::GetBlockRegion
; File C:\Program Files (x86)\Microsoft Visual Studio\2019\Community\VC\Tools\MSVC\14.29.30133\atlmfc\include\atltypes.h

; 540  : 	left = l;

  00023	8b 45 08	 mov	 eax, DWORD PTR ___$ReturnUdt$[ebp]
  00026	8b 4d e8	 mov	 ecx, DWORD PTR _firstBlockRegion$[ebp]
  00029	89 08		 mov	 DWORD PTR [eax], ecx

; 541  : 	top = t;

  0002b	8b 4e 08	 mov	 ecx, DWORD PTR [esi+8]
  0002e	89 48 04	 mov	 DWORD PTR [eax+4], ecx

; 542  : 	right = r;

  00031	8b 4d f0	 mov	 ecx, DWORD PTR _firstBlockRegion$[ebp+8]
  00034	89 48 08	 mov	 DWORD PTR [eax+8], ecx

; 543  : 	bottom = b;

  00037	8b 4e 10	 mov	 ecx, DWORD PTR [esi+16]
  0003a	89 48 0c	 mov	 DWORD PTR [eax+12], ecx
; File D:\git\src\IBK\IBK_DRFN\ProjSrc\SrcChartEx\ChartOCX\ChartObject\BlocksPosition.cpp

; 358  : 	return CRect(firstBlockRegion.left, m_allBlockRegion.top, firstBlockRegion.right, m_allBlockRegion.bottom);

  0003d	5e		 pop	 esi

; 359  : }

  0003e	8b e5		 mov	 esp, ebp
  00040	5d		 pop	 ebp
  00041	c2 08 00	 ret	 8
?GetBlocksColumnRegion@CBlocksPosition@@QBE?AVCRect@@H@Z ENDP ; CBlocksPosition::GetBlocksColumnRegion
_TEXT	ENDS
; Function compile flags: /Ogtp
; File D:\git\src\IBK\IBK_DRFN\ProjSrc\SrcChartEx\ChartOCX\ChartObject\BlocksPosition.cpp
;	COMDAT ?GetAllBlockRegion@CBlocksPosition@@QBE?AVCRect@@XZ
_TEXT	SEGMENT
___$ReturnUdt$ = 8					; size = 4
?GetAllBlockRegion@CBlocksPosition@@QBE?AVCRect@@XZ PROC ; CBlocksPosition::GetAllBlockRegion, COMDAT
; _this$ = ecx

; 348  : {

  00000	55		 push	 ebp
  00001	8b ec		 mov	 ebp, esp

; 349  : 	return m_allBlockRegion;

  00003	8b 45 08	 mov	 eax, DWORD PTR ___$ReturnUdt$[ebp]
  00006	0f 10 41 04	 movups	 xmm0, XMMWORD PTR [ecx+4]
  0000a	0f 11 00	 movups	 XMMWORD PTR [eax], xmm0

; 350  : }

  0000d	5d		 pop	 ebp
  0000e	c2 04 00	 ret	 4
?GetAllBlockRegion@CBlocksPosition@@QBE?AVCRect@@XZ ENDP ; CBlocksPosition::GetAllBlockRegion
_TEXT	ENDS
; Function compile flags: /Ogtp
; File D:\git\src\IBK\IBK_DRFN\ProjSrc\SrcChartEx\ChartOCX\ChartObject\BlocksPosition.cpp
; File C:\Program Files (x86)\Microsoft Visual Studio\2019\Community\VC\Tools\MSVC\14.29.30133\atlmfc\include\cstringt.h
; File D:\git\src\IBK\IBK_DRFN\ProjSrc\SrcChartEx\ChartOCX\ChartObject\BlocksPosition.cpp
; File C:\Program Files (x86)\Microsoft Visual Studio\2019\Community\VC\Tools\MSVC\14.29.30133\atlmfc\include\cstringt.h
; File D:\git\src\IBK\IBK_DRFN\ProjSrc\SrcChartEx\ChartOCX\ChartObject\BlocksPosition.cpp
;	COMDAT ?GetBlocksPosition@CBlocksPosition@@QBE?AV?$CStringT@DV?$StrTraitMFC_DLL@DV?$ChTraitsCRT@D@ATL@@@@@ATL@@XZ
_TEXT	SEGMENT
$T2 = -32						; size = 4
_columnsPosition$ = -28					; size = 4
$T3 = -24						; size = 4
$T4 = -20						; size = 4
_rowsPosition$ = -16					; size = 4
__$EHRec$ = -12						; size = 12
___$ReturnUdt$ = 8					; size = 4
?GetBlocksPosition@CBlocksPosition@@QBE?AV?$CStringT@DV?$StrTraitMFC_DLL@DV?$ChTraitsCRT@D@ATL@@@@@ATL@@XZ PROC ; CBlocksPosition::GetBlocksPosition, COMDAT
; _this$ = ecx

; 339  : {

  00000	55		 push	 ebp
  00001	8b ec		 mov	 ebp, esp
  00003	6a ff		 push	 -1
  00005	68 00 00 00 00	 push	 __ehhandler$?GetBlocksPosition@CBlocksPosition@@QBE?AV?$CStringT@DV?$StrTraitMFC_DLL@DV?$ChTraitsCRT@D@ATL@@@@@ATL@@XZ
  0000a	64 a1 00 00 00
	00		 mov	 eax, DWORD PTR fs:0
  00010	50		 push	 eax
  00011	83 ec 14	 sub	 esp, 20			; 00000014H
  00014	56		 push	 esi
  00015	57		 push	 edi
  00016	a1 00 00 00 00	 mov	 eax, DWORD PTR ___security_cookie
  0001b	33 c5		 xor	 eax, ebp
  0001d	50		 push	 eax
  0001e	8d 45 f4	 lea	 eax, DWORD PTR __$EHRec$[ebp]
  00021	64 a3 00 00 00
	00		 mov	 DWORD PTR fs:0, eax
  00027	8b f9		 mov	 edi, ecx

; 340  : 	const CList< double, double> &lRowRate = GetConstRowRate();
; 341  : 	CString rowsPosition = CBlocksPositionCalculator::GetSavedPosition(lRowRate, "row;");

  00029	68 00 00 00 00	 push	 OFFSET ??_C@_04LEIGMNPF@row?$DL@
  0002e	8d 4d ec	 lea	 ecx, DWORD PTR $T4[ebp]
  00031	c7 45 e0 00 00
	00 00		 mov	 DWORD PTR $T2[ebp], 0
  00038	8d 77 38	 lea	 esi, DWORD PTR [edi+56]
  0003b	ff 15 00 00 00
	00		 call	 DWORD PTR __imp_??0?$CStringT@DV?$StrTraitMFC_DLL@DV?$ChTraitsCRT@D@ATL@@@@@ATL@@QAE@PBD@Z
  00041	8d 45 ec	 lea	 eax, DWORD PTR $T4[ebp]
  00044	c7 45 fc 00 00
	00 00		 mov	 DWORD PTR __$EHRec$[ebp+8], 0
  0004b	50		 push	 eax
  0004c	8d 45 f0	 lea	 eax, DWORD PTR _rowsPosition$[ebp]
  0004f	56		 push	 esi
  00050	50		 push	 eax
  00051	e8 00 00 00 00	 call	 ?GetSavedPosition@CBlocksPositionCalculator@@SA?AV?$CStringT@DV?$StrTraitMFC_DLL@DV?$ChTraitsCRT@D@ATL@@@@@ATL@@ABV?$CList@NN@@ABV23@@Z ; CBlocksPositionCalculator::GetSavedPosition
  00056	83 c4 0c	 add	 esp, 12			; 0000000cH
  00059	8d 4d ec	 lea	 ecx, DWORD PTR $T4[ebp]
  0005c	c6 45 fc 02	 mov	 BYTE PTR __$EHRec$[ebp+8], 2
  00060	ff 15 00 00 00
	00		 call	 DWORD PTR __imp_??1?$CStringT@DV?$StrTraitMFC_DLL@DV?$ChTraitsCRT@D@ATL@@@@@ATL@@QAE@XZ

; 342  : 	CString columnsPosition = CBlocksPositionCalculator::GetSavedPosition(m_lColumn, "column;");

  00066	68 00 00 00 00	 push	 OFFSET ??_C@_07EAPEDNJA@column?$DL@
  0006b	8d 4d e8	 lea	 ecx, DWORD PTR $T3[ebp]
  0006e	ff 15 00 00 00
	00		 call	 DWORD PTR __imp_??0?$CStringT@DV?$StrTraitMFC_DLL@DV?$ChTraitsCRT@D@ATL@@@@@ATL@@QAE@PBD@Z
  00074	8d 45 e8	 lea	 eax, DWORD PTR $T3[ebp]
  00077	c6 45 fc 03	 mov	 BYTE PTR __$EHRec$[ebp+8], 3
  0007b	50		 push	 eax
  0007c	8d 47 14	 lea	 eax, DWORD PTR [edi+20]
  0007f	50		 push	 eax
  00080	8d 45 e4	 lea	 eax, DWORD PTR _columnsPosition$[ebp]
  00083	50		 push	 eax
  00084	e8 00 00 00 00	 call	 ?GetSavedPosition@CBlocksPositionCalculator@@SA?AV?$CStringT@DV?$StrTraitMFC_DLL@DV?$ChTraitsCRT@D@ATL@@@@@ATL@@ABV?$CList@NN@@ABV23@@Z ; CBlocksPositionCalculator::GetSavedPosition
  00089	83 c4 0c	 add	 esp, 12			; 0000000cH
  0008c	8d 4d e8	 lea	 ecx, DWORD PTR $T3[ebp]
  0008f	ff 15 00 00 00
	00		 call	 DWORD PTR __imp_??1?$CStringT@DV?$StrTraitMFC_DLL@DV?$ChTraitsCRT@D@ATL@@@@@ATL@@QAE@XZ
; File C:\Program Files (x86)\Microsoft Visual Studio\2019\Community\VC\Tools\MSVC\14.29.30133\atlmfc\include\cstringt.h

; 2390 : 		CStringT strResult( str1.GetManager() );

  00095	8d 4d f0	 lea	 ecx, DWORD PTR _rowsPosition$[ebp]
; File D:\git\src\IBK\IBK_DRFN\ProjSrc\SrcChartEx\ChartOCX\ChartObject\BlocksPosition.cpp

; 343  : 	return (rowsPosition + columnsPosition);

  00098	c6 45 fc 06	 mov	 BYTE PTR __$EHRec$[ebp+8], 6
; File C:\Program Files (x86)\Microsoft Visual Studio\2019\Community\VC\Tools\MSVC\14.29.30133\atlmfc\include\cstringt.h

; 2390 : 		CStringT strResult( str1.GetManager() );

  0009c	ff 15 00 00 00
	00		 call	 DWORD PTR __imp_?GetManager@?$CStringT@DV?$StrTraitMFC_DLL@DV?$ChTraitsCRT@D@ATL@@@@@ATL@@QBEPAUIAtlStringMgr@2@XZ
  000a2	8b 75 08	 mov	 esi, DWORD PTR ___$ReturnUdt$[ebp]
  000a5	8b ce		 mov	 ecx, esi
  000a7	50		 push	 eax
  000a8	ff 15 00 00 00
	00		 call	 DWORD PTR __imp_??0?$CStringT@DV?$StrTraitMFC_DLL@DV?$ChTraitsCRT@D@ATL@@@@@ATL@@QAE@PAUIAtlStringMgr@1@@Z

; 2391 : 
; 2392 : 		CThisSimpleString::Concatenate( strResult, str1, str1.GetLength(), str2, str2.GetLength() );

  000ae	8b 45 e4	 mov	 eax, DWORD PTR _columnsPosition$[ebp]
  000b1	8b 4d f0	 mov	 ecx, DWORD PTR _rowsPosition$[ebp]

; 2393 : 
; 2394 : 		return( strResult );

  000b4	c7 45 e0 02 00
	00 00		 mov	 DWORD PTR $T2[ebp], 2
  000bb	ff 70 f4	 push	 DWORD PTR [eax-12]
  000be	50		 push	 eax
  000bf	ff 71 f4	 push	 DWORD PTR [ecx-12]
  000c2	51		 push	 ecx
  000c3	56		 push	 esi
  000c4	ff 15 00 00 00
	00		 call	 DWORD PTR __imp_?Concatenate@?$CSimpleStringT@D$00@ATL@@KAXAAV12@PBDH1H@Z
  000ca	83 c4 14	 add	 esp, 20			; 00000014H
; File D:\git\src\IBK\IBK_DRFN\ProjSrc\SrcChartEx\ChartOCX\ChartObject\BlocksPosition.cpp

; 343  : 	return (rowsPosition + columnsPosition);

  000cd	8d 4d e4	 lea	 ecx, DWORD PTR _columnsPosition$[ebp]
  000d0	ff 15 00 00 00
	00		 call	 DWORD PTR __imp_??1?$CStringT@DV?$StrTraitMFC_DLL@DV?$ChTraitsCRT@D@ATL@@@@@ATL@@QAE@XZ
  000d6	8d 4d f0	 lea	 ecx, DWORD PTR _rowsPosition$[ebp]
  000d9	ff 15 00 00 00
	00		 call	 DWORD PTR __imp_??1?$CStringT@DV?$StrTraitMFC_DLL@DV?$ChTraitsCRT@D@ATL@@@@@ATL@@QAE@XZ
  000df	8b c6		 mov	 eax, esi

; 344  : }

  000e1	8b 4d f4	 mov	 ecx, DWORD PTR __$EHRec$[ebp]
  000e4	64 89 0d 00 00
	00 00		 mov	 DWORD PTR fs:0, ecx
  000eb	59		 pop	 ecx
  000ec	5f		 pop	 edi
  000ed	5e		 pop	 esi
  000ee	8b e5		 mov	 esp, ebp
  000f0	5d		 pop	 ebp
  000f1	c2 04 00	 ret	 4
_TEXT	ENDS
;	COMDAT text$x
text$x	SEGMENT
__unwindfunclet$?GetBlocksPosition@CBlocksPosition@@QBE?AV?$CStringT@DV?$StrTraitMFC_DLL@DV?$ChTraitsCRT@D@ATL@@@@@ATL@@XZ$0:
  00000	8d 4d ec	 lea	 ecx, DWORD PTR $T4[ebp]
  00003	ff 25 00 00 00
	00		 jmp	 DWORD PTR __imp_??1?$CStringT@DV?$StrTraitMFC_DLL@DV?$ChTraitsCRT@D@ATL@@@@@ATL@@QAE@XZ
__unwindfunclet$?GetBlocksPosition@CBlocksPosition@@QBE?AV?$CStringT@DV?$StrTraitMFC_DLL@DV?$ChTraitsCRT@D@ATL@@@@@ATL@@XZ$1:
  00009	8d 4d f0	 lea	 ecx, DWORD PTR _rowsPosition$[ebp]
  0000c	ff 25 00 00 00
	00		 jmp	 DWORD PTR __imp_??1?$CStringT@DV?$StrTraitMFC_DLL@DV?$ChTraitsCRT@D@ATL@@@@@ATL@@QAE@XZ
__unwindfunclet$?GetBlocksPosition@CBlocksPosition@@QBE?AV?$CStringT@DV?$StrTraitMFC_DLL@DV?$ChTraitsCRT@D@ATL@@@@@ATL@@XZ$2:
  00012	8d 4d e8	 lea	 ecx, DWORD PTR $T3[ebp]
  00015	ff 25 00 00 00
	00		 jmp	 DWORD PTR __imp_??1?$CStringT@DV?$StrTraitMFC_DLL@DV?$ChTraitsCRT@D@ATL@@@@@ATL@@QAE@XZ
__unwindfunclet$?GetBlocksPosition@CBlocksPosition@@QBE?AV?$CStringT@DV?$StrTraitMFC_DLL@DV?$ChTraitsCRT@D@ATL@@@@@ATL@@XZ$3:
  0001b	8d 4d e4	 lea	 ecx, DWORD PTR _columnsPosition$[ebp]
  0001e	ff 25 00 00 00
	00		 jmp	 DWORD PTR __imp_??1?$CStringT@DV?$StrTraitMFC_DLL@DV?$ChTraitsCRT@D@ATL@@@@@ATL@@QAE@XZ
__unwindfunclet$?GetBlocksPosition@CBlocksPosition@@QBE?AV?$CStringT@DV?$StrTraitMFC_DLL@DV?$ChTraitsCRT@D@ATL@@@@@ATL@@XZ$5:
  00024	8b 45 e0	 mov	 eax, DWORD PTR $T2[ebp]
  00027	83 e0 02	 and	 eax, 2
  0002a	0f 84 0d 00 00
	00		 je	 $LN12@GetBlocksP
  00030	83 65 e0 fd	 and	 DWORD PTR $T2[ebp], -3	; fffffffdH
  00034	8b 4d 08	 mov	 ecx, DWORD PTR ___$ReturnUdt$[ebp]
  00037	ff 25 00 00 00
	00		 jmp	 DWORD PTR __imp_??1?$CStringT@DV?$StrTraitMFC_DLL@DV?$ChTraitsCRT@D@ATL@@@@@ATL@@QAE@XZ
$LN12@GetBlocksP:
  0003d	c3		 ret	 0
  0003e	cc		 int	 3
  0003f	cc		 int	 3
  00040	cc		 int	 3
  00041	cc		 int	 3
  00042	cc		 int	 3
__ehhandler$?GetBlocksPosition@CBlocksPosition@@QBE?AV?$CStringT@DV?$StrTraitMFC_DLL@DV?$ChTraitsCRT@D@ATL@@@@@ATL@@XZ:
  00043	90		 npad	 1
  00044	90		 npad	 1
  00045	8b 54 24 08	 mov	 edx, DWORD PTR [esp+8]
  00049	8d 42 0c	 lea	 eax, DWORD PTR [edx+12]
  0004c	8b 4a e0	 mov	 ecx, DWORD PTR [edx-32]
  0004f	33 c8		 xor	 ecx, eax
  00051	e8 00 00 00 00	 call	 @__security_check_cookie@4
  00056	b8 00 00 00 00	 mov	 eax, OFFSET __ehfuncinfo$?GetBlocksPosition@CBlocksPosition@@QBE?AV?$CStringT@DV?$StrTraitMFC_DLL@DV?$ChTraitsCRT@D@ATL@@@@@ATL@@XZ
  0005b	e9 00 00 00 00	 jmp	 ___CxxFrameHandler3
text$x	ENDS
?GetBlocksPosition@CBlocksPosition@@QBE?AV?$CStringT@DV?$StrTraitMFC_DLL@DV?$ChTraitsCRT@D@ATL@@@@@ATL@@XZ ENDP ; CBlocksPosition::GetBlocksPosition
; Function compile flags: /Ogtp
; File D:\git\src\IBK\IBK_DRFN\ProjSrc\SrcChartEx\ChartOCX\ChartObject\BlocksPosition.cpp
; File C:\Program Files (x86)\Microsoft Visual Studio\2019\Community\VC\Tools\MSVC\14.29.30133\atlmfc\include\afxtempl.h
; File D:\git\src\IBK\IBK_DRFN\ProjSrc\SrcChartEx\ChartOCX\ChartObject\BlocksPosition.cpp
; File C:\Program Files (x86)\Microsoft Visual Studio\2019\Community\VC\Tools\MSVC\14.29.30133\atlmfc\include\afxtempl.h
; File D:\git\src\IBK\IBK_DRFN\ProjSrc\SrcChartEx\ChartOCX\ChartObject\BlocksPosition.cpp
;	COMDAT ?SetDoubleSizeBlockNumber@CBlocksPosition@@QAEXABVCBlockIndex@@@Z
_TEXT	SEGMENT
_doubleSizeBlockIndex$ = 8				; size = 4
?SetDoubleSizeBlockNumber@CBlocksPosition@@QAEXABVCBlockIndex@@@Z PROC ; CBlocksPosition::SetDoubleSizeBlockNumber, COMDAT
; _this$ = ecx

; 261  : {

  00000	55		 push	 ebp
  00001	8b ec		 mov	 ebp, esp
  00003	56		 push	 esi
  00004	57		 push	 edi
  00005	8b f9		 mov	 edi, ecx
; File C:\Program Files (x86)\Microsoft Visual Studio\2019\Community\VC\Tools\MSVC\14.29.30133\atlmfc\include\afxtempl.h

; 872  : 	m_pBlocks->FreeDataChain();

  00007	8b 4f 68	 mov	 ecx, DWORD PTR [edi+104]
  0000a	c7 47 60 00 00
	00 00		 mov	 DWORD PTR [edi+96], 0
  00011	c7 47 64 00 00
	00 00		 mov	 DWORD PTR [edi+100], 0
  00018	c7 47 5c 00 00
	00 00		 mov	 DWORD PTR [edi+92], 0
  0001f	c7 47 58 00 00
	00 00		 mov	 DWORD PTR [edi+88], 0
  00026	e8 00 00 00 00	 call	 ?FreeDataChain@CPlex@@QAEXXZ ; CPlex::FreeDataChain
; File D:\git\src\IBK\IBK_DRFN\ProjSrc\SrcChartEx\ChartOCX\ChartObject\BlocksPosition.cpp

; 263  : 	Add(lRowRate, GetRowBlockCount(), doubleSizeBlockIndex.GetRow(), m_allBlockRegion.bottom - m_allBlockRegion.top);

  0002b	8b 75 08	 mov	 esi, DWORD PTR _doubleSizeBlockIndex$[ebp]
; File C:\Program Files (x86)\Microsoft Visual Studio\2019\Community\VC\Tools\MSVC\14.29.30133\atlmfc\include\afxtempl.h

; 873  : 	m_pBlocks = NULL;

  0002e	c7 47 68 00 00
	00 00		 mov	 DWORD PTR [edi+104], 0
; File D:\git\src\IBK\IBK_DRFN\ProjSrc\SrcChartEx\ChartOCX\ChartObject\BlocksPosition.cpp

; 263  : 	Add(lRowRate, GetRowBlockCount(), doubleSizeBlockIndex.GetRow(), m_allBlockRegion.bottom - m_allBlockRegion.top);

  00035	8b 47 10	 mov	 eax, DWORD PTR [edi+16]
  00038	2b 47 08	 sub	 eax, DWORD PTR [edi+8]

; 383  : 	if( GetRowCount() <= 0) return 0;

  0003b	8b 57 44	 mov	 edx, DWORD PTR [edi+68]

; 263  : 	Add(lRowRate, GetRowBlockCount(), doubleSizeBlockIndex.GetRow(), m_allBlockRegion.bottom - m_allBlockRegion.top);

  0003e	50		 push	 eax
  0003f	ff 36		 push	 DWORD PTR [esi]
  00041	33 c0		 xor	 eax, eax
  00043	85 d2		 test	 edx, edx
  00045	8d 4a ff	 lea	 ecx, DWORD PTR [edx-1]
  00048	0f 4f c1	 cmovg	 eax, ecx
  0004b	8b cf		 mov	 ecx, edi
  0004d	50		 push	 eax

; 38   : 	return m_dlRowRate;

  0004e	8d 47 38	 lea	 eax, DWORD PTR [edi+56]

; 263  : 	Add(lRowRate, GetRowBlockCount(), doubleSizeBlockIndex.GetRow(), m_allBlockRegion.bottom - m_allBlockRegion.top);

  00051	50		 push	 eax
  00052	e8 00 00 00 00	 call	 ?Add@CBlocksPosition@@AAEXAAV?$CList@NN@@HHH@Z ; CBlocksPosition::Add

; 264  : 	Add(m_lColumn, GetColumnBlockCount(), doubleSizeBlockIndex.GetColumn(), m_allBlockRegion.right - m_allBlockRegion.left);

  00057	8b 47 0c	 mov	 eax, DWORD PTR [edi+12]
  0005a	2b 47 04	 sub	 eax, DWORD PTR [edi+4]

; 390  : 	if(m_lColumn.GetCount() <= 0)

  0005d	8b 57 20	 mov	 edx, DWORD PTR [edi+32]

; 264  : 	Add(m_lColumn, GetColumnBlockCount(), doubleSizeBlockIndex.GetColumn(), m_allBlockRegion.right - m_allBlockRegion.left);

  00060	50		 push	 eax
  00061	ff 76 04	 push	 DWORD PTR [esi+4]
  00064	33 c0		 xor	 eax, eax
  00066	85 d2		 test	 edx, edx
  00068	8d 4a ff	 lea	 ecx, DWORD PTR [edx-1]
  0006b	0f 4f c1	 cmovg	 eax, ecx
  0006e	8b cf		 mov	 ecx, edi
  00070	50		 push	 eax
  00071	8d 47 14	 lea	 eax, DWORD PTR [edi+20]
  00074	50		 push	 eax
  00075	e8 00 00 00 00	 call	 ?Add@CBlocksPosition@@AAEXAAV?$CList@NN@@HHH@Z ; CBlocksPosition::Add
  0007a	5f		 pop	 edi
  0007b	5e		 pop	 esi

; 265  : }

  0007c	5d		 pop	 ebp
  0007d	c2 04 00	 ret	 4
?SetDoubleSizeBlockNumber@CBlocksPosition@@QAEXABVCBlockIndex@@@Z ENDP ; CBlocksPosition::SetDoubleSizeBlockNumber
_TEXT	ENDS
; Function compile flags: /Ogtp
; File D:\git\src\IBK\IBK_DRFN\ProjSrc\SrcChartEx\ChartOCX\ChartObject\BlocksPosition.cpp
;	COMDAT ?SetCompartLineThickness@CBlocksPosition@@QAEXH@Z
_TEXT	SEGMENT
_compartLineThickness$ = 8				; size = 4
?SetCompartLineThickness@CBlocksPosition@@QAEXH@Z PROC	; CBlocksPosition::SetCompartLineThickness, COMDAT
; _this$ = ecx

; 330  : {

  00000	55		 push	 ebp
  00001	8b ec		 mov	 ebp, esp

; 331  : 	if(compartLineThickness >= 0)

  00003	8b 45 08	 mov	 eax, DWORD PTR _compartLineThickness$[ebp]
  00006	85 c0		 test	 eax, eax
  00008	78 03		 js	 SHORT $LN2@SetCompart

; 332  : 		m_nCompartLineThickness = compartLineThickness;

  0000a	89 41 74	 mov	 DWORD PTR [ecx+116], eax
$LN2@SetCompart:

; 333  : }

  0000d	5d		 pop	 ebp
  0000e	c2 04 00	 ret	 4
?SetCompartLineThickness@CBlocksPosition@@QAEXH@Z ENDP	; CBlocksPosition::SetCompartLineThickness
_TEXT	ENDS
; Function compile flags: /Ogtp
; File D:\git\src\IBK\IBK_DRFN\ProjSrc\SrcChartEx\ChartOCX\ChartObject\BlocksPosition.cpp
;	COMDAT ?SetInterBlockHalfGap@CBlocksPosition@@QAEXH@Z
_TEXT	SEGMENT
_interBlockHalfGap$ = 8					; size = 4
?SetInterBlockHalfGap@CBlocksPosition@@QAEXH@Z PROC	; CBlocksPosition::SetInterBlockHalfGap, COMDAT
; _this$ = ecx

; 324  : {

  00000	55		 push	 ebp
  00001	8b ec		 mov	 ebp, esp

; 325  : 	m_nInterBlockHalfGap = interBlockHalfGap;

  00003	8b 45 08	 mov	 eax, DWORD PTR _interBlockHalfGap$[ebp]
  00006	89 41 70	 mov	 DWORD PTR [ecx+112], eax

; 326  : }

  00009	5d		 pop	 ebp
  0000a	c2 04 00	 ret	 4
?SetInterBlockHalfGap@CBlocksPosition@@QAEXH@Z ENDP	; CBlocksPosition::SetInterBlockHalfGap
_TEXT	ENDS
; Function compile flags: /Ogtp
; File D:\git\src\IBK\IBK_DRFN\ProjSrc\SrcChartEx\ChartOCX\ChartObject\BlocksPosition.cpp
; File C:\Program Files (x86)\Microsoft Visual Studio\2019\Community\VC\Tools\MSVC\14.29.30133\atlmfc\include\afxtempl.h
; File D:\git\src\IBK\IBK_DRFN\ProjSrc\SrcChartEx\ChartOCX\ChartObject\BlocksPosition.cpp
; File C:\Program Files (x86)\Microsoft Visual Studio\2019\Community\VC\Tools\MSVC\14.29.30133\atlmfc\include\afxtempl.h
; File D:\git\src\IBK\IBK_DRFN\ProjSrc\SrcChartEx\ChartOCX\ChartObject\BlocksPosition.cpp
; File C:\Program Files (x86)\Microsoft Visual Studio\2019\Community\VC\Tools\MSVC\14.29.30133\atlmfc\include\atltypes.h
; File D:\git\src\IBK\IBK_DRFN\ProjSrc\SrcChartEx\ChartOCX\ChartObject\BlocksPosition.cpp
; File C:\Program Files (x86)\Microsoft Visual Studio\2019\Community\VC\Tools\MSVC\14.29.30133\atlmfc\include\atltypes.h
; File D:\git\src\IBK\IBK_DRFN\ProjSrc\SrcChartEx\ChartOCX\ChartObject\BlocksPosition.cpp
;	COMDAT ?SetBlocksPosition@CBlocksPosition@@QAEXABV?$CStringT@DV?$StrTraitMFC_DLL@DV?$ChTraitsCRT@D@ATL@@@@@ATL@@@Z
_TEXT	SEGMENT
$T2 = -36						; size = 4
$T3 = -32						; size = 4
$T4 = -28						; size = 4
$T5 = -24						; size = 4
$T6 = -20						; size = 4
$T7 = -16						; size = 4
__$EHRec$ = -12						; size = 12
_blocksPosition$ = 8					; size = 4
?SetBlocksPosition@CBlocksPosition@@QAEXABV?$CStringT@DV?$StrTraitMFC_DLL@DV?$ChTraitsCRT@D@ATL@@@@@ATL@@@Z PROC ; CBlocksPosition::SetBlocksPosition, COMDAT
; _this$ = ecx

; 313  : {

  00000	55		 push	 ebp
  00001	8b ec		 mov	 ebp, esp
  00003	6a ff		 push	 -1
  00005	68 00 00 00 00	 push	 __ehhandler$?SetBlocksPosition@CBlocksPosition@@QAEXABV?$CStringT@DV?$StrTraitMFC_DLL@DV?$ChTraitsCRT@D@ATL@@@@@ATL@@@Z
  0000a	64 a1 00 00 00
	00		 mov	 eax, DWORD PTR fs:0
  00010	50		 push	 eax
  00011	83 ec 18	 sub	 esp, 24			; 00000018H
  00014	53		 push	 ebx
  00015	56		 push	 esi
  00016	a1 00 00 00 00	 mov	 eax, DWORD PTR ___security_cookie
  0001b	33 c5		 xor	 eax, ebp
  0001d	50		 push	 eax
  0001e	8d 45 f4	 lea	 eax, DWORD PTR __$EHRec$[ebp]
  00021	64 a3 00 00 00
	00		 mov	 DWORD PTR fs:0, eax
  00027	8b d9		 mov	 ebx, ecx
; File C:\Program Files (x86)\Microsoft Visual Studio\2019\Community\VC\Tools\MSVC\14.29.30133\atlmfc\include\afxtempl.h

; 872  : 	m_pBlocks->FreeDataChain();

  00029	8b 4b 68	 mov	 ecx, DWORD PTR [ebx+104]
  0002c	c7 43 60 00 00
	00 00		 mov	 DWORD PTR [ebx+96], 0
  00033	c7 43 64 00 00
	00 00		 mov	 DWORD PTR [ebx+100], 0
  0003a	c7 43 5c 00 00
	00 00		 mov	 DWORD PTR [ebx+92], 0
  00041	c7 43 58 00 00
	00 00		 mov	 DWORD PTR [ebx+88], 0
  00048	e8 00 00 00 00	 call	 ?FreeDataChain@CPlex@@QAEXXZ ; CPlex::FreeDataChain
; File D:\git\src\IBK\IBK_DRFN\ProjSrc\SrcChartEx\ChartOCX\ChartObject\BlocksPosition.cpp

; 316  : 	CBlocksPositionCalculator::SetBlocksPosition(lRowRate, m_allBlockRegion.Height(), 

  0004d	68 00 00 00 00	 push	 OFFSET ??_C@_02PCIJFNDE@?$AN?6@
  00052	8d 4d ec	 lea	 ecx, DWORD PTR $T6[ebp]
; File C:\Program Files (x86)\Microsoft Visual Studio\2019\Community\VC\Tools\MSVC\14.29.30133\atlmfc\include\afxtempl.h

; 873  : 	m_pBlocks = NULL;

  00055	c7 43 68 00 00
	00 00		 mov	 DWORD PTR [ebx+104], 0
; File D:\git\src\IBK\IBK_DRFN\ProjSrc\SrcChartEx\ChartOCX\ChartObject\BlocksPosition.cpp

; 38   : 	return m_dlRowRate;

  0005c	8d 73 38	 lea	 esi, DWORD PTR [ebx+56]

; 316  : 	CBlocksPositionCalculator::SetBlocksPosition(lRowRate, m_allBlockRegion.Height(), 

  0005f	ff 15 00 00 00
	00		 call	 DWORD PTR __imp_??0?$CStringT@DV?$StrTraitMFC_DLL@DV?$ChTraitsCRT@D@ATL@@@@@ATL@@QAE@PBD@Z
  00065	68 00 00 00 00	 push	 OFFSET ??_C@_04LEIGMNPF@row?$DL@
  0006a	8d 4d f0	 lea	 ecx, DWORD PTR $T7[ebp]
  0006d	c7 45 fc 00 00
	00 00		 mov	 DWORD PTR __$EHRec$[ebp+8], 0
  00074	ff 15 00 00 00
	00		 call	 DWORD PTR __imp_??0?$CStringT@DV?$StrTraitMFC_DLL@DV?$ChTraitsCRT@D@ATL@@@@@ATL@@QAE@PBD@Z
  0007a	6a 01		 push	 1
  0007c	6a 00		 push	 0
  0007e	8d 45 ec	 lea	 eax, DWORD PTR $T6[ebp]
  00081	c6 45 fc 01	 mov	 BYTE PTR __$EHRec$[ebp+8], 1
  00085	50		 push	 eax
  00086	8d 45 f0	 lea	 eax, DWORD PTR $T7[ebp]
  00089	50		 push	 eax
  0008a	ff 75 08	 push	 DWORD PTR _blocksPosition$[ebp]
  0008d	8d 45 e0	 lea	 eax, DWORD PTR $T3[ebp]
  00090	50		 push	 eax
  00091	e8 00 00 00 00	 call	 ?GetMidToTrimDataIndex@CDataConversion@@SA?AV?$CStringT@DV?$StrTraitMFC_DLL@DV?$ChTraitsCRT@D@ATL@@@@@ATL@@ABV23@00H_N@Z ; CDataConversion::GetMidToTrimDataIndex
  00096	50		 push	 eax
; File C:\Program Files (x86)\Microsoft Visual Studio\2019\Community\VC\Tools\MSVC\14.29.30133\atlmfc\include\atltypes.h

; 581  : 	return bottom - top;

  00097	8b 43 10	 mov	 eax, DWORD PTR [ebx+16]
  0009a	2b 43 08	 sub	 eax, DWORD PTR [ebx+8]
; File D:\git\src\IBK\IBK_DRFN\ProjSrc\SrcChartEx\ChartOCX\ChartObject\BlocksPosition.cpp

; 316  : 	CBlocksPositionCalculator::SetBlocksPosition(lRowRate, m_allBlockRegion.Height(), 

  0009d	50		 push	 eax
  0009e	56		 push	 esi
  0009f	c6 45 fc 02	 mov	 BYTE PTR __$EHRec$[ebp+8], 2
  000a3	e8 00 00 00 00	 call	 ?SetBlocksPosition@CBlocksPositionCalculator@@SAXAAV?$CList@NN@@HABV?$CStringT@DV?$StrTraitMFC_DLL@DV?$ChTraitsCRT@D@ATL@@@@@ATL@@@Z ; CBlocksPositionCalculator::SetBlocksPosition
  000a8	83 c4 24	 add	 esp, 36			; 00000024H
  000ab	8d 4d e0	 lea	 ecx, DWORD PTR $T3[ebp]
  000ae	ff 15 00 00 00
	00		 call	 DWORD PTR __imp_??1?$CStringT@DV?$StrTraitMFC_DLL@DV?$ChTraitsCRT@D@ATL@@@@@ATL@@QAE@XZ
  000b4	8d 4d f0	 lea	 ecx, DWORD PTR $T7[ebp]
  000b7	ff 15 00 00 00
	00		 call	 DWORD PTR __imp_??1?$CStringT@DV?$StrTraitMFC_DLL@DV?$ChTraitsCRT@D@ATL@@@@@ATL@@QAE@XZ
  000bd	8d 4d ec	 lea	 ecx, DWORD PTR $T6[ebp]
  000c0	c7 45 fc ff ff
	ff ff		 mov	 DWORD PTR __$EHRec$[ebp+8], -1
  000c7	ff 15 00 00 00
	00		 call	 DWORD PTR __imp_??1?$CStringT@DV?$StrTraitMFC_DLL@DV?$ChTraitsCRT@D@ATL@@@@@ATL@@QAE@XZ

; 318  : 	CBlocksPositionCalculator::SetBlocksPosition(m_lColumn, m_allBlockRegion.Width(), 

  000cd	68 00 00 00 00	 push	 OFFSET ??_C@_02PCIJFNDE@?$AN?6@
  000d2	8d 4d e4	 lea	 ecx, DWORD PTR $T4[ebp]
  000d5	ff 15 00 00 00
	00		 call	 DWORD PTR __imp_??0?$CStringT@DV?$StrTraitMFC_DLL@DV?$ChTraitsCRT@D@ATL@@@@@ATL@@QAE@PBD@Z
  000db	68 00 00 00 00	 push	 OFFSET ??_C@_07EAPEDNJA@column?$DL@
  000e0	8d 4d e8	 lea	 ecx, DWORD PTR $T5[ebp]
  000e3	c7 45 fc 03 00
	00 00		 mov	 DWORD PTR __$EHRec$[ebp+8], 3
  000ea	ff 15 00 00 00
	00		 call	 DWORD PTR __imp_??0?$CStringT@DV?$StrTraitMFC_DLL@DV?$ChTraitsCRT@D@ATL@@@@@ATL@@QAE@PBD@Z
  000f0	6a 01		 push	 1
  000f2	6a 00		 push	 0
  000f4	8d 45 e4	 lea	 eax, DWORD PTR $T4[ebp]
  000f7	c6 45 fc 04	 mov	 BYTE PTR __$EHRec$[ebp+8], 4
  000fb	50		 push	 eax
  000fc	8d 45 e8	 lea	 eax, DWORD PTR $T5[ebp]
  000ff	50		 push	 eax
  00100	ff 75 08	 push	 DWORD PTR _blocksPosition$[ebp]
  00103	8d 45 dc	 lea	 eax, DWORD PTR $T2[ebp]
  00106	50		 push	 eax
  00107	e8 00 00 00 00	 call	 ?GetMidToTrimDataIndex@CDataConversion@@SA?AV?$CStringT@DV?$StrTraitMFC_DLL@DV?$ChTraitsCRT@D@ATL@@@@@ATL@@ABV23@00H_N@Z ; CDataConversion::GetMidToTrimDataIndex
  0010c	50		 push	 eax
; File C:\Program Files (x86)\Microsoft Visual Studio\2019\Community\VC\Tools\MSVC\14.29.30133\atlmfc\include\atltypes.h

; 576  : 	return right - left;

  0010d	8b 43 0c	 mov	 eax, DWORD PTR [ebx+12]
  00110	2b 43 04	 sub	 eax, DWORD PTR [ebx+4]
; File D:\git\src\IBK\IBK_DRFN\ProjSrc\SrcChartEx\ChartOCX\ChartObject\BlocksPosition.cpp

; 318  : 	CBlocksPositionCalculator::SetBlocksPosition(m_lColumn, m_allBlockRegion.Width(), 

  00113	50		 push	 eax
  00114	8d 43 14	 lea	 eax, DWORD PTR [ebx+20]
  00117	c6 45 fc 05	 mov	 BYTE PTR __$EHRec$[ebp+8], 5
  0011b	50		 push	 eax
  0011c	e8 00 00 00 00	 call	 ?SetBlocksPosition@CBlocksPositionCalculator@@SAXAAV?$CList@NN@@HABV?$CStringT@DV?$StrTraitMFC_DLL@DV?$ChTraitsCRT@D@ATL@@@@@ATL@@@Z ; CBlocksPositionCalculator::SetBlocksPosition
  00121	83 c4 24	 add	 esp, 36			; 00000024H
  00124	8d 4d dc	 lea	 ecx, DWORD PTR $T2[ebp]
  00127	ff 15 00 00 00
	00		 call	 DWORD PTR __imp_??1?$CStringT@DV?$StrTraitMFC_DLL@DV?$ChTraitsCRT@D@ATL@@@@@ATL@@QAE@XZ
  0012d	8d 4d e8	 lea	 ecx, DWORD PTR $T5[ebp]
  00130	ff 15 00 00 00
	00		 call	 DWORD PTR __imp_??1?$CStringT@DV?$StrTraitMFC_DLL@DV?$ChTraitsCRT@D@ATL@@@@@ATL@@QAE@XZ
  00136	8d 4d e4	 lea	 ecx, DWORD PTR $T4[ebp]
  00139	ff 15 00 00 00
	00		 call	 DWORD PTR __imp_??1?$CStringT@DV?$StrTraitMFC_DLL@DV?$ChTraitsCRT@D@ATL@@@@@ATL@@QAE@XZ

; 319  : 		CDataConversion::GetMidToTrimDataIndex(blocksPosition, "column;", "\r\n"));
; 320  : }

  0013f	8b 4d f4	 mov	 ecx, DWORD PTR __$EHRec$[ebp]
  00142	64 89 0d 00 00
	00 00		 mov	 DWORD PTR fs:0, ecx
  00149	59		 pop	 ecx
  0014a	5e		 pop	 esi
  0014b	5b		 pop	 ebx
  0014c	8b e5		 mov	 esp, ebp
  0014e	5d		 pop	 ebp
  0014f	c2 04 00	 ret	 4
_TEXT	ENDS
;	COMDAT text$x
text$x	SEGMENT
__unwindfunclet$?SetBlocksPosition@CBlocksPosition@@QAEXABV?$CStringT@DV?$StrTraitMFC_DLL@DV?$ChTraitsCRT@D@ATL@@@@@ATL@@@Z$0:
  00000	8d 4d ec	 lea	 ecx, DWORD PTR $T6[ebp]
  00003	ff 25 00 00 00
	00		 jmp	 DWORD PTR __imp_??1?$CStringT@DV?$StrTraitMFC_DLL@DV?$ChTraitsCRT@D@ATL@@@@@ATL@@QAE@XZ
__unwindfunclet$?SetBlocksPosition@CBlocksPosition@@QAEXABV?$CStringT@DV?$StrTraitMFC_DLL@DV?$ChTraitsCRT@D@ATL@@@@@ATL@@@Z$1:
  00009	8d 4d f0	 lea	 ecx, DWORD PTR $T7[ebp]
  0000c	ff 25 00 00 00
	00		 jmp	 DWORD PTR __imp_??1?$CStringT@DV?$StrTraitMFC_DLL@DV?$ChTraitsCRT@D@ATL@@@@@ATL@@QAE@XZ
__unwindfunclet$?SetBlocksPosition@CBlocksPosition@@QAEXABV?$CStringT@DV?$StrTraitMFC_DLL@DV?$ChTraitsCRT@D@ATL@@@@@ATL@@@Z$2:
  00012	8d 4d e0	 lea	 ecx, DWORD PTR $T3[ebp]
  00015	ff 25 00 00 00
	00		 jmp	 DWORD PTR __imp_??1?$CStringT@DV?$StrTraitMFC_DLL@DV?$ChTraitsCRT@D@ATL@@@@@ATL@@QAE@XZ
__unwindfunclet$?SetBlocksPosition@CBlocksPosition@@QAEXABV?$CStringT@DV?$StrTraitMFC_DLL@DV?$ChTraitsCRT@D@ATL@@@@@ATL@@@Z$3:
  0001b	8d 4d e4	 lea	 ecx, DWORD PTR $T4[ebp]
  0001e	ff 25 00 00 00
	00		 jmp	 DWORD PTR __imp_??1?$CStringT@DV?$StrTraitMFC_DLL@DV?$ChTraitsCRT@D@ATL@@@@@ATL@@QAE@XZ
__unwindfunclet$?SetBlocksPosition@CBlocksPosition@@QAEXABV?$CStringT@DV?$StrTraitMFC_DLL@DV?$ChTraitsCRT@D@ATL@@@@@ATL@@@Z$4:
  00024	8d 4d e8	 lea	 ecx, DWORD PTR $T5[ebp]
  00027	ff 25 00 00 00
	00		 jmp	 DWORD PTR __imp_??1?$CStringT@DV?$StrTraitMFC_DLL@DV?$ChTraitsCRT@D@ATL@@@@@ATL@@QAE@XZ
__unwindfunclet$?SetBlocksPosition@CBlocksPosition@@QAEXABV?$CStringT@DV?$StrTraitMFC_DLL@DV?$ChTraitsCRT@D@ATL@@@@@ATL@@@Z$5:
  0002d	8d 4d dc	 lea	 ecx, DWORD PTR $T2[ebp]
  00030	ff 25 00 00 00
	00		 jmp	 DWORD PTR __imp_??1?$CStringT@DV?$StrTraitMFC_DLL@DV?$ChTraitsCRT@D@ATL@@@@@ATL@@QAE@XZ
  00036	cc		 int	 3
  00037	cc		 int	 3
  00038	cc		 int	 3
  00039	cc		 int	 3
  0003a	cc		 int	 3
__ehhandler$?SetBlocksPosition@CBlocksPosition@@QAEXABV?$CStringT@DV?$StrTraitMFC_DLL@DV?$ChTraitsCRT@D@ATL@@@@@ATL@@@Z:
  0003b	90		 npad	 1
  0003c	90		 npad	 1
  0003d	8b 54 24 08	 mov	 edx, DWORD PTR [esp+8]
  00041	8d 42 0c	 lea	 eax, DWORD PTR [edx+12]
  00044	8b 4a dc	 mov	 ecx, DWORD PTR [edx-36]
  00047	33 c8		 xor	 ecx, eax
  00049	e8 00 00 00 00	 call	 @__security_check_cookie@4
  0004e	b8 00 00 00 00	 mov	 eax, OFFSET __ehfuncinfo$?SetBlocksPosition@CBlocksPosition@@QAEXABV?$CStringT@DV?$StrTraitMFC_DLL@DV?$ChTraitsCRT@D@ATL@@@@@ATL@@@Z
  00053	e9 00 00 00 00	 jmp	 ___CxxFrameHandler3
text$x	ENDS
?SetBlocksPosition@CBlocksPosition@@QAEXABV?$CStringT@DV?$StrTraitMFC_DLL@DV?$ChTraitsCRT@D@ATL@@@@@ATL@@@Z ENDP ; CBlocksPosition::SetBlocksPosition
; Function compile flags: /Ogtp
; File D:\git\src\IBK\IBK_DRFN\ProjSrc\SrcChartEx\ChartOCX\ChartObject\BlocksPosition.cpp
; File C:\Program Files (x86)\Microsoft Visual Studio\2019\Community\VC\Tools\MSVC\14.29.30133\atlmfc\include\atltypes.h
; File D:\git\src\IBK\IBK_DRFN\ProjSrc\SrcChartEx\ChartOCX\ChartObject\BlocksPosition.cpp
; File C:\Program Files (x86)\Microsoft Visual Studio\2019\Community\VC\Tools\MSVC\14.29.30133\atlmfc\include\atltypes.h
; File D:\git\src\IBK\IBK_DRFN\ProjSrc\SrcChartEx\ChartOCX\ChartObject\BlocksPosition.cpp
; File C:\Program Files (x86)\Microsoft Visual Studio\2019\Community\VC\Tools\MSVC\14.29.30133\atlmfc\include\afxtempl.h
; File D:\git\src\IBK\IBK_DRFN\ProjSrc\SrcChartEx\ChartOCX\ChartObject\BlocksPosition.cpp
;	COMDAT ?RecalculateBlockRegions@CBlocksPosition@@QAE_NABVCRect@@@Z
_TEXT	SEGMENT
$T1$sroa$155$1$ = -4					; size = 4
tv360 = 8						; size = 4
_allBlockRegion$ = 8					; size = 4
?RecalculateBlockRegions@CBlocksPosition@@QAE_NABVCRect@@@Z PROC ; CBlocksPosition::RecalculateBlockRegions, COMDAT
; _this$ = ecx

; 287  : {

  00000	55		 push	 ebp
  00001	8b ec		 mov	 ebp, esp
  00003	51		 push	 ecx
  00004	53		 push	 ebx
  00005	56		 push	 esi
  00006	8b f1		 mov	 esi, ecx
  00008	57		 push	 edi
; File C:\Program Files (x86)\Microsoft Visual Studio\2019\Community\VC\Tools\MSVC\14.29.30133\atlmfc\include\atltypes.h

; 770  : 	return ::EqualRect(this, &rect);

  00009	8b 7d 08	 mov	 edi, DWORD PTR _allBlockRegion$[ebp]
  0000c	57		 push	 edi
; File D:\git\src\IBK\IBK_DRFN\ProjSrc\SrcChartEx\ChartOCX\ChartObject\BlocksPosition.cpp

; 288  : 	if(m_allBlockRegion == allBlockRegion)

  0000d	8d 5e 04	 lea	 ebx, DWORD PTR [esi+4]
; File C:\Program Files (x86)\Microsoft Visual Studio\2019\Community\VC\Tools\MSVC\14.29.30133\atlmfc\include\atltypes.h

; 770  : 	return ::EqualRect(this, &rect);

  00010	53		 push	 ebx
  00011	ff 15 00 00 00
	00		 call	 DWORD PTR __imp__EqualRect@8
; File D:\git\src\IBK\IBK_DRFN\ProjSrc\SrcChartEx\ChartOCX\ChartObject\BlocksPosition.cpp

; 288  : 	if(m_allBlockRegion == allBlockRegion)

  00017	85 c0		 test	 eax, eax
  00019	0f 85 9a 00 00
	00		 jne	 $LN27@Recalculat

; 289  : 		return false;
; 290  : 
; 291  : 	// block        .
; 292  : 	if(!IsBiggerThanMinMainRegion(allBlockRegion, CBlockIndex( GetRowCount() - 1, (m_lColumn.GetCount() -1)), m_nInterBlockHalfGap))

  0001f	8b 46 20	 mov	 eax, DWORD PTR [esi+32]

; 485  : 	return CBlocksPositionCalculator::IsBiggerThanMinMainRegion(blockCount, allBlocksRegion, interBlockHalfGap*2, m_nCompartLineThickness);

  00022	ff 76 74	 push	 DWORD PTR [esi+116]
  00025	8b 56 70	 mov	 edx, DWORD PTR [esi+112]

; 289  : 		return false;
; 290  : 
; 291  : 	// block        .
; 292  : 	if(!IsBiggerThanMinMainRegion(allBlockRegion, CBlockIndex( GetRowCount() - 1, (m_lColumn.GetCount() -1)), m_nInterBlockHalfGap))

  00028	48		 dec	 eax
  00029	8b 4e 44	 mov	 ecx, DWORD PTR [esi+68]

; 485  : 	return CBlocksPositionCalculator::IsBiggerThanMinMainRegion(blockCount, allBlocksRegion, interBlockHalfGap*2, m_nCompartLineThickness);

  0002c	03 d2		 add	 edx, edx

; 289  : 		return false;
; 290  : 
; 291  : 	// block        .
; 292  : 	if(!IsBiggerThanMinMainRegion(allBlockRegion, CBlockIndex( GetRowCount() - 1, (m_lColumn.GetCount() -1)), m_nInterBlockHalfGap))

  0002e	89 45 fc	 mov	 DWORD PTR $T1$sroa$155$1$[ebp], eax
  00031	49		 dec	 ecx

; 477  : 	if(!IsBiggerThanMinMainRegion(blockCount.GetRow(), (allBlockRegion.bottom - allBlockRegion.top), interBlockHalfGap))

  00032	8b 47 0c	 mov	 eax, DWORD PTR [edi+12]
  00035	2b 47 04	 sub	 eax, DWORD PTR [edi+4]

; 485  : 	return CBlocksPositionCalculator::IsBiggerThanMinMainRegion(blockCount, allBlocksRegion, interBlockHalfGap*2, m_nCompartLineThickness);

  00038	52		 push	 edx
  00039	50		 push	 eax
  0003a	51		 push	 ecx
  0003b	89 55 08	 mov	 DWORD PTR tv360[ebp], edx
  0003e	e8 00 00 00 00	 call	 ?IsBiggerThanMinMainRegion@CBlocksPositionCalculator@@SA_NHHHH@Z ; CBlocksPositionCalculator::IsBiggerThanMinMainRegion
  00043	83 c4 10	 add	 esp, 16			; 00000010H

; 477  : 	if(!IsBiggerThanMinMainRegion(blockCount.GetRow(), (allBlockRegion.bottom - allBlockRegion.top), interBlockHalfGap))

  00046	84 c0		 test	 al, al
  00048	74 6f		 je	 SHORT $LN27@Recalculat

; 485  : 	return CBlocksPositionCalculator::IsBiggerThanMinMainRegion(blockCount, allBlocksRegion, interBlockHalfGap*2, m_nCompartLineThickness);

  0004a	ff 76 74	 push	 DWORD PTR [esi+116]

; 480  : 	return IsBiggerThanMinMainRegion(blockCount.GetColumn(), (allBlockRegion.right - allBlockRegion.left), interBlockHalfGap);

  0004d	8b 47 08	 mov	 eax, DWORD PTR [edi+8]

; 485  : 	return CBlocksPositionCalculator::IsBiggerThanMinMainRegion(blockCount, allBlocksRegion, interBlockHalfGap*2, m_nCompartLineThickness);

  00050	ff 75 08	 push	 DWORD PTR tv360[ebp]

; 480  : 	return IsBiggerThanMinMainRegion(blockCount.GetColumn(), (allBlockRegion.right - allBlockRegion.left), interBlockHalfGap);

  00053	2b 07		 sub	 eax, DWORD PTR [edi]

; 485  : 	return CBlocksPositionCalculator::IsBiggerThanMinMainRegion(blockCount, allBlocksRegion, interBlockHalfGap*2, m_nCompartLineThickness);

  00055	50		 push	 eax
  00056	ff 75 fc	 push	 DWORD PTR $T1$sroa$155$1$[ebp]
  00059	e8 00 00 00 00	 call	 ?IsBiggerThanMinMainRegion@CBlocksPositionCalculator@@SA_NHHHH@Z ; CBlocksPositionCalculator::IsBiggerThanMinMainRegion
  0005e	83 c4 10	 add	 esp, 16			; 00000010H

; 289  : 		return false;
; 290  : 
; 291  : 	// block        .
; 292  : 	if(!IsBiggerThanMinMainRegion(allBlockRegion, CBlockIndex( GetRowCount() - 1, (m_lColumn.GetCount() -1)), m_nInterBlockHalfGap))

  00061	84 c0		 test	 al, al
  00063	74 54		 je	 SHORT $LN27@Recalculat

; 293  : 		return false;
; 294  : 
; 295  : 	// (2009/6/26 - Seung-Won, Bae) Do not Recalc the Row Rate. (it is same rate.)
; 296  : 	//		Just clear row real.
; 297  : 	CBlocksPositionCalculator::RecalculatePositions( m_lColumn, ( m_allBlockRegion.right - m_allBlockRegion.left), ( allBlockRegion.right - allBlockRegion.left));

  00065	8b 47 08	 mov	 eax, DWORD PTR [edi+8]
  00068	2b 07		 sub	 eax, DWORD PTR [edi]
  0006a	50		 push	 eax
  0006b	8b 46 0c	 mov	 eax, DWORD PTR [esi+12]
  0006e	2b 03		 sub	 eax, DWORD PTR [ebx]
  00070	50		 push	 eax
  00071	8d 46 14	 lea	 eax, DWORD PTR [esi+20]
  00074	50		 push	 eax
  00075	e8 00 00 00 00	 call	 ?RecalculatePositions@CBlocksPositionCalculator@@SAXAAV?$CList@NN@@HH@Z ; CBlocksPositionCalculator::RecalculatePositions

; 298  : 
; 299  : 	m_allBlockRegion = allBlockRegion;

  0007a	0f 10 07	 movups	 xmm0, XMMWORD PTR [edi]
  0007d	83 c4 0c	 add	 esp, 12			; 0000000cH
  00080	0f 11 03	 movups	 XMMWORD PTR [ebx], xmm0
; File C:\Program Files (x86)\Microsoft Visual Studio\2019\Community\VC\Tools\MSVC\14.29.30133\atlmfc\include\afxtempl.h

; 872  : 	m_pBlocks->FreeDataChain();

  00083	8b 4e 68	 mov	 ecx, DWORD PTR [esi+104]
  00086	c7 46 60 00 00
	00 00		 mov	 DWORD PTR [esi+96], 0
  0008d	c7 46 64 00 00
	00 00		 mov	 DWORD PTR [esi+100], 0
  00094	c7 46 5c 00 00
	00 00		 mov	 DWORD PTR [esi+92], 0
  0009b	c7 46 58 00 00
	00 00		 mov	 DWORD PTR [esi+88], 0
  000a2	e8 00 00 00 00	 call	 ?FreeDataChain@CPlex@@QAEXXZ ; CPlex::FreeDataChain
  000a7	5f		 pop	 edi

; 873  : 	m_pBlocks = NULL;

  000a8	c7 46 68 00 00
	00 00		 mov	 DWORD PTR [esi+104], 0
; File D:\git\src\IBK\IBK_DRFN\ProjSrc\SrcChartEx\ChartOCX\ChartObject\BlocksPosition.cpp

; 301  : 	return true;

  000af	b0 01		 mov	 al, 1

; 302  : }

  000b1	5e		 pop	 esi
  000b2	5b		 pop	 ebx
  000b3	8b e5		 mov	 esp, ebp
  000b5	5d		 pop	 ebp
  000b6	c2 04 00	 ret	 4
$LN27@Recalculat:
  000b9	5f		 pop	 edi
  000ba	5e		 pop	 esi
  000bb	32 c0		 xor	 al, al
  000bd	5b		 pop	 ebx
  000be	8b e5		 mov	 esp, ebp
  000c0	5d		 pop	 ebp
  000c1	c2 04 00	 ret	 4
?RecalculateBlockRegions@CBlocksPosition@@QAE_NABVCRect@@@Z ENDP ; CBlocksPosition::RecalculateBlockRegions
_TEXT	ENDS
; Function compile flags: /Ogtp
; File D:\git\src\IBK\IBK_DRFN\ProjSrc\SrcChartEx\ChartOCX\ChartObject\BlocksPosition.cpp
; File C:\Program Files (x86)\Microsoft Visual Studio\2019\Community\VC\Tools\MSVC\14.29.30133\atlmfc\include\afxtempl.h
; File D:\git\src\IBK\IBK_DRFN\ProjSrc\SrcChartEx\ChartOCX\ChartObject\BlocksPosition.cpp
; File C:\Program Files (x86)\Microsoft Visual Studio\2019\Community\VC\Tools\MSVC\14.29.30133\atlmfc\include\afxtempl.h
; File D:\git\src\IBK\IBK_DRFN\ProjSrc\SrcChartEx\ChartOCX\ChartObject\BlocksPosition.cpp
; File C:\Program Files (x86)\Microsoft Visual Studio\2019\Community\VC\Tools\MSVC\14.29.30133\atlmfc\include\afxtempl.h
; File D:\git\src\IBK\IBK_DRFN\ProjSrc\SrcChartEx\ChartOCX\ChartObject\BlocksPosition.cpp
; File C:\Program Files (x86)\Microsoft Visual Studio\2019\Community\VC\Tools\MSVC\14.29.30133\atlmfc\include\afxtempl.h
; File D:\git\src\IBK\IBK_DRFN\ProjSrc\SrcChartEx\ChartOCX\ChartObject\BlocksPosition.cpp
; File C:\Program Files (x86)\Microsoft Visual Studio\2019\Community\VC\Tools\MSVC\14.29.30133\atlmfc\include\afxtempl.h
; File D:\git\src\IBK\IBK_DRFN\ProjSrc\SrcChartEx\ChartOCX\ChartObject\BlocksPosition.cpp
;	COMDAT ?InitializeNormalSizeBlockNumber@CBlocksPosition@@QAEXXZ
_TEXT	SEGMENT
_allRegionLength$1$ = -4				; size = 4
_allRegionLength$1$ = -4				; size = 4
?InitializeNormalSizeBlockNumber@CBlocksPosition@@QAEXXZ PROC ; CBlocksPosition::InitializeNormalSizeBlockNumber, COMDAT
; _this$ = ecx

; 305  : {

  00000	55		 push	 ebp
  00001	8b ec		 mov	 ebp, esp
  00003	51		 push	 ecx
  00004	53		 push	 ebx
  00005	56		 push	 esi
  00006	8b f1		 mov	 esi, ecx
  00008	57		 push	 edi
; File C:\Program Files (x86)\Microsoft Visual Studio\2019\Community\VC\Tools\MSVC\14.29.30133\atlmfc\include\afxtempl.h

; 872  : 	m_pBlocks->FreeDataChain();

  00009	8b 4e 68	 mov	 ecx, DWORD PTR [esi+104]
  0000c	c7 46 60 00 00
	00 00		 mov	 DWORD PTR [esi+96], 0
  00013	c7 46 64 00 00
	00 00		 mov	 DWORD PTR [esi+100], 0
  0001a	c7 46 5c 00 00
	00 00		 mov	 DWORD PTR [esi+92], 0
  00021	c7 46 58 00 00
	00 00		 mov	 DWORD PTR [esi+88], 0
  00028	e8 00 00 00 00	 call	 ?FreeDataChain@CPlex@@QAEXXZ ; CPlex::FreeDataChain

; 873  : 	m_pBlocks = NULL;

  0002d	c7 46 68 00 00
	00 00		 mov	 DWORD PTR [esi+104], 0
; File D:\git\src\IBK\IBK_DRFN\ProjSrc\SrcChartEx\ChartOCX\ChartObject\BlocksPosition.cpp

; 38   : 	return m_dlRowRate;

  00034	8d 7e 38	 lea	 edi, DWORD PTR [esi+56]

; 383  : 	if( GetRowCount() <= 0) return 0;

  00037	8b 46 44	 mov	 eax, DWORD PTR [esi+68]

; 307  : 	Add(lRowRate, GetRowBlockCount(), -1, m_allBlockRegion.bottom - m_allBlockRegion.top);

  0003a	33 db		 xor	 ebx, ebx
  0003c	85 c0		 test	 eax, eax
  0003e	8d 48 ff	 lea	 ecx, DWORD PTR [eax-1]
  00041	8b 46 10	 mov	 eax, DWORD PTR [esi+16]
  00044	0f 4f d9	 cmovg	 ebx, ecx
  00047	2b 46 08	 sub	 eax, DWORD PTR [esi+8]
; File C:\Program Files (x86)\Microsoft Visual Studio\2019\Community\VC\Tools\MSVC\14.29.30133\atlmfc\include\afxtempl.h

; 872  : 	m_pBlocks->FreeDataChain();

  0004a	8b 4f 14	 mov	 ecx, DWORD PTR [edi+20]
; File D:\git\src\IBK\IBK_DRFN\ProjSrc\SrcChartEx\ChartOCX\ChartObject\BlocksPosition.cpp

; 307  : 	Add(lRowRate, GetRowBlockCount(), -1, m_allBlockRegion.bottom - m_allBlockRegion.top);

  0004d	89 45 fc	 mov	 DWORD PTR _allRegionLength$1$[ebp], eax
; File C:\Program Files (x86)\Microsoft Visual Studio\2019\Community\VC\Tools\MSVC\14.29.30133\atlmfc\include\afxtempl.h

; 870  : 	m_nCount = 0;

  00050	c7 47 0c 00 00
	00 00		 mov	 DWORD PTR [edi+12], 0

; 871  : 	m_pNodeHead = m_pNodeTail = m_pNodeFree = NULL;

  00057	c7 47 10 00 00
	00 00		 mov	 DWORD PTR [edi+16], 0
  0005e	c7 47 08 00 00
	00 00		 mov	 DWORD PTR [edi+8], 0
  00065	c7 47 04 00 00
	00 00		 mov	 DWORD PTR [edi+4], 0

; 872  : 	m_pBlocks->FreeDataChain();

  0006c	e8 00 00 00 00	 call	 ?FreeDataChain@CPlex@@QAEXXZ ; CPlex::FreeDataChain

; 873  : 	m_pBlocks = NULL;

  00071	c7 47 14 00 00
	00 00		 mov	 DWORD PTR [edi+20], 0
; File D:\git\src\IBK\IBK_DRFN\ProjSrc\SrcChartEx\ChartOCX\ChartObject\BlocksPosition.cpp

; 494  : 	if(blockCount <= 0)

  00078	85 db		 test	 ebx, ebx
  0007a	7e 13		 jle	 SHORT $LN18@Initialize

; 495  : 		return;
; 496  : 
; 497  : 	//  
; 498  : 	if(IsEqualityPartition(blockCount, doubleSizeBlockNum)){
; 499  : 		CBlocksPositionCalculator::Add_EqualityPartition(positionList, blockCount, 

  0007c	ff 76 74	 push	 DWORD PTR [esi+116]
  0007f	ff 76 70	 push	 DWORD PTR [esi+112]
  00082	ff 75 fc	 push	 DWORD PTR _allRegionLength$1$[ebp]
  00085	53		 push	 ebx
  00086	57		 push	 edi
  00087	e8 00 00 00 00	 call	 ?Add_EqualityPartition@CBlocksPositionCalculator@@SAXAAV?$CList@NN@@HHHH@Z ; CBlocksPositionCalculator::Add_EqualityPartition
  0008c	83 c4 14	 add	 esp, 20			; 00000014H
$LN18@Initialize:

; 390  : 	if(m_lColumn.GetCount() <= 0)

  0008f	8b 46 20	 mov	 eax, DWORD PTR [esi+32]

; 308  : 	Add(m_lColumn, GetColumnBlockCount(), -1, m_allBlockRegion.right - m_allBlockRegion.left);

  00092	8d 7e 14	 lea	 edi, DWORD PTR [esi+20]
  00095	33 db		 xor	 ebx, ebx
  00097	85 c0		 test	 eax, eax
  00099	8d 48 ff	 lea	 ecx, DWORD PTR [eax-1]
  0009c	8b 46 0c	 mov	 eax, DWORD PTR [esi+12]
  0009f	0f 4f d9	 cmovg	 ebx, ecx
  000a2	2b 46 04	 sub	 eax, DWORD PTR [esi+4]
; File C:\Program Files (x86)\Microsoft Visual Studio\2019\Community\VC\Tools\MSVC\14.29.30133\atlmfc\include\afxtempl.h

; 872  : 	m_pBlocks->FreeDataChain();

  000a5	8b 4f 14	 mov	 ecx, DWORD PTR [edi+20]
; File D:\git\src\IBK\IBK_DRFN\ProjSrc\SrcChartEx\ChartOCX\ChartObject\BlocksPosition.cpp

; 308  : 	Add(m_lColumn, GetColumnBlockCount(), -1, m_allBlockRegion.right - m_allBlockRegion.left);

  000a8	89 45 fc	 mov	 DWORD PTR _allRegionLength$1$[ebp], eax
; File C:\Program Files (x86)\Microsoft Visual Studio\2019\Community\VC\Tools\MSVC\14.29.30133\atlmfc\include\afxtempl.h

; 870  : 	m_nCount = 0;

  000ab	c7 47 0c 00 00
	00 00		 mov	 DWORD PTR [edi+12], 0

; 871  : 	m_pNodeHead = m_pNodeTail = m_pNodeFree = NULL;

  000b2	c7 47 10 00 00
	00 00		 mov	 DWORD PTR [edi+16], 0
  000b9	c7 47 08 00 00
	00 00		 mov	 DWORD PTR [edi+8], 0
  000c0	c7 47 04 00 00
	00 00		 mov	 DWORD PTR [edi+4], 0

; 872  : 	m_pBlocks->FreeDataChain();

  000c7	e8 00 00 00 00	 call	 ?FreeDataChain@CPlex@@QAEXXZ ; CPlex::FreeDataChain

; 873  : 	m_pBlocks = NULL;

  000cc	c7 47 14 00 00
	00 00		 mov	 DWORD PTR [edi+20], 0
; File D:\git\src\IBK\IBK_DRFN\ProjSrc\SrcChartEx\ChartOCX\ChartObject\BlocksPosition.cpp

; 494  : 	if(blockCount <= 0)

  000d3	85 db		 test	 ebx, ebx
  000d5	7e 13		 jle	 SHORT $LN35@Initialize

; 495  : 		return;
; 496  : 
; 497  : 	//  
; 498  : 	if(IsEqualityPartition(blockCount, doubleSizeBlockNum)){
; 499  : 		CBlocksPositionCalculator::Add_EqualityPartition(positionList, blockCount, 

  000d7	ff 76 74	 push	 DWORD PTR [esi+116]
  000da	ff 76 70	 push	 DWORD PTR [esi+112]
  000dd	ff 75 fc	 push	 DWORD PTR _allRegionLength$1$[ebp]
  000e0	53		 push	 ebx
  000e1	57		 push	 edi
  000e2	e8 00 00 00 00	 call	 ?Add_EqualityPartition@CBlocksPositionCalculator@@SAXAAV?$CList@NN@@HHHH@Z ; CBlocksPositionCalculator::Add_EqualityPartition
  000e7	83 c4 14	 add	 esp, 20			; 00000014H
$LN35@Initialize:
  000ea	5f		 pop	 edi

; 309  : }

  000eb	5e		 pop	 esi
  000ec	5b		 pop	 ebx
  000ed	8b e5		 mov	 esp, ebp
  000ef	5d		 pop	 ebp
  000f0	c3		 ret	 0
?InitializeNormalSizeBlockNumber@CBlocksPosition@@QAEXXZ ENDP ; CBlocksPosition::InitializeNormalSizeBlockNumber
_TEXT	ENDS
; Function compile flags: /Ogtp
; File D:\git\src\IBK\IBK_DRFN\ProjSrc\SrcChartEx\ChartOCX\ChartObject\BlocksPosition.cpp
;	COMDAT ?SetColumnBlockCount@CBlocksPosition@@QAE_NHH@Z
_TEXT	SEGMENT
_columnCount$ = 8					; size = 4
_doubleSizeColumnNum$ = 12				; size = 4
?SetColumnBlockCount@CBlocksPosition@@QAE_NHH@Z PROC	; CBlocksPosition::SetColumnBlockCount, COMDAT
; _this$ = ecx

; 250  : {

  00000	55		 push	 ebp
  00001	8b ec		 mov	 ebp, esp
  00003	56		 push	 esi
  00004	8b f1		 mov	 esi, ecx
  00006	57		 push	 edi

; 485  : 	return CBlocksPositionCalculator::IsBiggerThanMinMainRegion(blockCount, allBlocksRegion, interBlockHalfGap*2, m_nCompartLineThickness);

  00007	ff 76 74	 push	 DWORD PTR [esi+116]
  0000a	8b 7e 70	 mov	 edi, DWORD PTR [esi+112]

; 477  : 	if(!IsBiggerThanMinMainRegion(blockCount.GetRow(), (allBlockRegion.bottom - allBlockRegion.top), interBlockHalfGap))

  0000d	8b 46 10	 mov	 eax, DWORD PTR [esi+16]

; 485  : 	return CBlocksPositionCalculator::IsBiggerThanMinMainRegion(blockCount, allBlocksRegion, interBlockHalfGap*2, m_nCompartLineThickness);

  00010	03 ff		 add	 edi, edi

; 251  : 	// block   
; 252  : 	if(!IsBiggerThanMinMainRegion(m_allBlockRegion, CBlockIndex( GetRowCount() -1, columnCount), m_nInterBlockHalfGap))

  00012	8b 56 44	 mov	 edx, DWORD PTR [esi+68]

; 477  : 	if(!IsBiggerThanMinMainRegion(blockCount.GetRow(), (allBlockRegion.bottom - allBlockRegion.top), interBlockHalfGap))

  00015	2b 46 08	 sub	 eax, DWORD PTR [esi+8]

; 251  : 	// block   
; 252  : 	if(!IsBiggerThanMinMainRegion(m_allBlockRegion, CBlockIndex( GetRowCount() -1, columnCount), m_nInterBlockHalfGap))

  00018	4a		 dec	 edx

; 485  : 	return CBlocksPositionCalculator::IsBiggerThanMinMainRegion(blockCount, allBlocksRegion, interBlockHalfGap*2, m_nCompartLineThickness);

  00019	57		 push	 edi
  0001a	50		 push	 eax
  0001b	52		 push	 edx
  0001c	e8 00 00 00 00	 call	 ?IsBiggerThanMinMainRegion@CBlocksPositionCalculator@@SA_NHHHH@Z ; CBlocksPositionCalculator::IsBiggerThanMinMainRegion
  00021	83 c4 10	 add	 esp, 16			; 00000010H

; 477  : 	if(!IsBiggerThanMinMainRegion(blockCount.GetRow(), (allBlockRegion.bottom - allBlockRegion.top), interBlockHalfGap))

  00024	84 c0		 test	 al, al
  00026	74 39		 je	 SHORT $LN13@SetColumnB

; 485  : 	return CBlocksPositionCalculator::IsBiggerThanMinMainRegion(blockCount, allBlocksRegion, interBlockHalfGap*2, m_nCompartLineThickness);

  00028	ff 76 74	 push	 DWORD PTR [esi+116]

; 480  : 	return IsBiggerThanMinMainRegion(blockCount.GetColumn(), (allBlockRegion.right - allBlockRegion.left), interBlockHalfGap);

  0002b	8b 46 0c	 mov	 eax, DWORD PTR [esi+12]
  0002e	2b 46 04	 sub	 eax, DWORD PTR [esi+4]

; 485  : 	return CBlocksPositionCalculator::IsBiggerThanMinMainRegion(blockCount, allBlocksRegion, interBlockHalfGap*2, m_nCompartLineThickness);

  00031	57		 push	 edi
  00032	8b 7d 08	 mov	 edi, DWORD PTR _columnCount$[ebp]
  00035	50		 push	 eax
  00036	57		 push	 edi
  00037	e8 00 00 00 00	 call	 ?IsBiggerThanMinMainRegion@CBlocksPositionCalculator@@SA_NHHHH@Z ; CBlocksPositionCalculator::IsBiggerThanMinMainRegion
  0003c	83 c4 10	 add	 esp, 16			; 00000010H

; 251  : 	// block   
; 252  : 	if(!IsBiggerThanMinMainRegion(m_allBlockRegion, CBlockIndex( GetRowCount() -1, columnCount), m_nInterBlockHalfGap))

  0003f	84 c0		 test	 al, al
  00041	74 1e		 je	 SHORT $LN13@SetColumnB

; 254  : 
; 255  : 	Add(m_lColumn, columnCount, doubleSizeColumnNum, m_allBlockRegion.right - m_allBlockRegion.left);

  00043	8b 46 0c	 mov	 eax, DWORD PTR [esi+12]
  00046	8b ce		 mov	 ecx, esi
  00048	2b 46 04	 sub	 eax, DWORD PTR [esi+4]
  0004b	50		 push	 eax
  0004c	ff 75 0c	 push	 DWORD PTR _doubleSizeColumnNum$[ebp]
  0004f	8d 46 14	 lea	 eax, DWORD PTR [esi+20]
  00052	57		 push	 edi
  00053	50		 push	 eax
  00054	e8 00 00 00 00	 call	 ?Add@CBlocksPosition@@AAEXAAV?$CList@NN@@HHH@Z ; CBlocksPosition::Add
  00059	5f		 pop	 edi

; 256  : 	return true;

  0005a	b0 01		 mov	 al, 1

; 257  : }

  0005c	5e		 pop	 esi
  0005d	5d		 pop	 ebp
  0005e	c2 08 00	 ret	 8
$LN13@SetColumnB:
  00061	5f		 pop	 edi

; 253  : 		return false;

  00062	32 c0		 xor	 al, al

; 257  : }

  00064	5e		 pop	 esi
  00065	5d		 pop	 ebp
  00066	c2 08 00	 ret	 8
?SetColumnBlockCount@CBlocksPosition@@QAE_NHH@Z ENDP	; CBlocksPosition::SetColumnBlockCount
_TEXT	ENDS
; Function compile flags: /Ogtp
; File D:\git\src\IBK\IBK_DRFN\ProjSrc\SrcChartEx\ChartOCX\ChartObject\BlocksPosition.cpp
; File C:\Program Files (x86)\Microsoft Visual Studio\2019\Community\VC\Tools\MSVC\14.29.30133\atlmfc\include\afxtempl.h
; File D:\git\src\IBK\IBK_DRFN\ProjSrc\SrcChartEx\ChartOCX\ChartObject\BlocksPosition.cpp
;	COMDAT ?SetRowBlockCount@CBlocksPosition@@QAE_NHH@Z
_TEXT	SEGMENT
_rowCount$ = 8						; size = 4
_doubleSizeRowNum$ = 12					; size = 4
?SetRowBlockCount@CBlocksPosition@@QAE_NHH@Z PROC	; CBlocksPosition::SetRowBlockCount, COMDAT
; _this$ = ecx

; 238  : {	

  00000	55		 push	 ebp
  00001	8b ec		 mov	 ebp, esp
  00003	53		 push	 ebx
  00004	56		 push	 esi
  00005	8b f1		 mov	 esi, ecx
  00007	57		 push	 edi

; 485  : 	return CBlocksPositionCalculator::IsBiggerThanMinMainRegion(blockCount, allBlocksRegion, interBlockHalfGap*2, m_nCompartLineThickness);

  00008	ff 76 74	 push	 DWORD PTR [esi+116]
  0000b	8b 7e 70	 mov	 edi, DWORD PTR [esi+112]

; 477  : 	if(!IsBiggerThanMinMainRegion(blockCount.GetRow(), (allBlockRegion.bottom - allBlockRegion.top), interBlockHalfGap))

  0000e	8b 46 10	 mov	 eax, DWORD PTR [esi+16]

; 485  : 	return CBlocksPositionCalculator::IsBiggerThanMinMainRegion(blockCount, allBlocksRegion, interBlockHalfGap*2, m_nCompartLineThickness);

  00011	03 ff		 add	 edi, edi

; 477  : 	if(!IsBiggerThanMinMainRegion(blockCount.GetRow(), (allBlockRegion.bottom - allBlockRegion.top), interBlockHalfGap))

  00013	2b 46 08	 sub	 eax, DWORD PTR [esi+8]

; 239  : 	// block   
; 240  : 	if(!IsBiggerThanMinMainRegion(m_allBlockRegion, CBlockIndex(rowCount, (m_lColumn.GetCount() -1)), m_nInterBlockHalfGap))

  00016	8b 5e 20	 mov	 ebx, DWORD PTR [esi+32]

; 485  : 	return CBlocksPositionCalculator::IsBiggerThanMinMainRegion(blockCount, allBlocksRegion, interBlockHalfGap*2, m_nCompartLineThickness);

  00019	57		 push	 edi
  0001a	50		 push	 eax
  0001b	ff 75 08	 push	 DWORD PTR _rowCount$[ebp]

; 239  : 	// block   
; 240  : 	if(!IsBiggerThanMinMainRegion(m_allBlockRegion, CBlockIndex(rowCount, (m_lColumn.GetCount() -1)), m_nInterBlockHalfGap))

  0001e	4b		 dec	 ebx

; 485  : 	return CBlocksPositionCalculator::IsBiggerThanMinMainRegion(blockCount, allBlocksRegion, interBlockHalfGap*2, m_nCompartLineThickness);

  0001f	e8 00 00 00 00	 call	 ?IsBiggerThanMinMainRegion@CBlocksPositionCalculator@@SA_NHHHH@Z ; CBlocksPositionCalculator::IsBiggerThanMinMainRegion
  00024	83 c4 10	 add	 esp, 16			; 00000010H

; 477  : 	if(!IsBiggerThanMinMainRegion(blockCount.GetRow(), (allBlockRegion.bottom - allBlockRegion.top), interBlockHalfGap))

  00027	84 c0		 test	 al, al
  00029	74 64		 je	 SHORT $LN26@SetRowBloc

; 485  : 	return CBlocksPositionCalculator::IsBiggerThanMinMainRegion(blockCount, allBlocksRegion, interBlockHalfGap*2, m_nCompartLineThickness);

  0002b	ff 76 74	 push	 DWORD PTR [esi+116]

; 480  : 	return IsBiggerThanMinMainRegion(blockCount.GetColumn(), (allBlockRegion.right - allBlockRegion.left), interBlockHalfGap);

  0002e	8b 46 0c	 mov	 eax, DWORD PTR [esi+12]
  00031	2b 46 04	 sub	 eax, DWORD PTR [esi+4]

; 485  : 	return CBlocksPositionCalculator::IsBiggerThanMinMainRegion(blockCount, allBlocksRegion, interBlockHalfGap*2, m_nCompartLineThickness);

  00034	57		 push	 edi
  00035	50		 push	 eax
  00036	53		 push	 ebx
  00037	e8 00 00 00 00	 call	 ?IsBiggerThanMinMainRegion@CBlocksPositionCalculator@@SA_NHHHH@Z ; CBlocksPositionCalculator::IsBiggerThanMinMainRegion
  0003c	83 c4 10	 add	 esp, 16			; 00000010H

; 239  : 	// block   
; 240  : 	if(!IsBiggerThanMinMainRegion(m_allBlockRegion, CBlockIndex(rowCount, (m_lColumn.GetCount() -1)), m_nInterBlockHalfGap))

  0003f	84 c0		 test	 al, al
  00041	74 4c		 je	 SHORT $LN26@SetRowBloc
; File C:\Program Files (x86)\Microsoft Visual Studio\2019\Community\VC\Tools\MSVC\14.29.30133\atlmfc\include\afxtempl.h

; 872  : 	m_pBlocks->FreeDataChain();

  00043	8b 4e 68	 mov	 ecx, DWORD PTR [esi+104]
  00046	c7 46 60 00 00
	00 00		 mov	 DWORD PTR [esi+96], 0
  0004d	c7 46 64 00 00
	00 00		 mov	 DWORD PTR [esi+100], 0
  00054	c7 46 5c 00 00
	00 00		 mov	 DWORD PTR [esi+92], 0
  0005b	c7 46 58 00 00
	00 00		 mov	 DWORD PTR [esi+88], 0
  00062	e8 00 00 00 00	 call	 ?FreeDataChain@CPlex@@QAEXXZ ; CPlex::FreeDataChain

; 873  : 	m_pBlocks = NULL;

  00067	c7 46 68 00 00
	00 00		 mov	 DWORD PTR [esi+104], 0
; File D:\git\src\IBK\IBK_DRFN\ProjSrc\SrcChartEx\ChartOCX\ChartObject\BlocksPosition.cpp

; 244  : 	Add(lRowRate, rowCount, doubleSizeRowNum, m_allBlockRegion.bottom - m_allBlockRegion.top);

  0006e	8b ce		 mov	 ecx, esi
  00070	8b 46 10	 mov	 eax, DWORD PTR [esi+16]
  00073	2b 46 08	 sub	 eax, DWORD PTR [esi+8]
  00076	50		 push	 eax
  00077	ff 75 0c	 push	 DWORD PTR _doubleSizeRowNum$[ebp]

; 38   : 	return m_dlRowRate;

  0007a	8d 46 38	 lea	 eax, DWORD PTR [esi+56]

; 244  : 	Add(lRowRate, rowCount, doubleSizeRowNum, m_allBlockRegion.bottom - m_allBlockRegion.top);

  0007d	ff 75 08	 push	 DWORD PTR _rowCount$[ebp]
  00080	50		 push	 eax
  00081	e8 00 00 00 00	 call	 ?Add@CBlocksPosition@@AAEXAAV?$CList@NN@@HHH@Z ; CBlocksPosition::Add
  00086	5f		 pop	 edi

; 245  : 	return true;
; 246  : }

  00087	5e		 pop	 esi
  00088	b0 01		 mov	 al, 1
  0008a	5b		 pop	 ebx
  0008b	5d		 pop	 ebp
  0008c	c2 08 00	 ret	 8
$LN26@SetRowBloc:
  0008f	5f		 pop	 edi
  00090	5e		 pop	 esi
  00091	32 c0		 xor	 al, al
  00093	5b		 pop	 ebx
  00094	5d		 pop	 ebp
  00095	c2 08 00	 ret	 8
?SetRowBlockCount@CBlocksPosition@@QAE_NHH@Z ENDP	; CBlocksPosition::SetRowBlockCount
_TEXT	ENDS
; Function compile flags: /Ogtp
; File D:\git\src\IBK\IBK_DRFN\ProjSrc\SrcChartEx\ChartOCX\ChartObject\BlocksPosition.cpp
; File C:\Program Files (x86)\Microsoft Visual Studio\2019\Community\VC\Tools\MSVC\14.29.30133\atlmfc\include\afxtempl.h
; File D:\git\src\IBK\IBK_DRFN\ProjSrc\SrcChartEx\ChartOCX\ChartObject\BlocksPosition.cpp
; File C:\Program Files (x86)\Microsoft Visual Studio\2019\Community\VC\Tools\MSVC\14.29.30133\atlmfc\include\afxtempl.h
; File D:\git\src\IBK\IBK_DRFN\ProjSrc\SrcChartEx\ChartOCX\ChartObject\BlocksPosition.cpp
;	COMDAT ?SetBlockCount@CBlocksPosition@@QAE_NABVCBlockIndex@@0@Z
_TEXT	SEGMENT
_blockCount$ = 8					; size = 4
_doubleBlockSizeIndex$ = 12				; size = 4
?SetBlockCount@CBlocksPosition@@QAE_NABVCBlockIndex@@0@Z PROC ; CBlocksPosition::SetBlockCount, COMDAT
; _this$ = ecx

; 222  : {

  00000	55		 push	 ebp
  00001	8b ec		 mov	 ebp, esp
  00003	53		 push	 ebx

; 477  : 	if(!IsBiggerThanMinMainRegion(blockCount.GetRow(), (allBlockRegion.bottom - allBlockRegion.top), interBlockHalfGap))

  00004	8b 5d 08	 mov	 ebx, DWORD PTR _blockCount$[ebp]

; 222  : {

  00007	56		 push	 esi
  00008	57		 push	 edi
  00009	8b f9		 mov	 edi, ecx

; 485  : 	return CBlocksPositionCalculator::IsBiggerThanMinMainRegion(blockCount, allBlocksRegion, interBlockHalfGap*2, m_nCompartLineThickness);

  0000b	ff 77 74	 push	 DWORD PTR [edi+116]
  0000e	8b 77 70	 mov	 esi, DWORD PTR [edi+112]

; 477  : 	if(!IsBiggerThanMinMainRegion(blockCount.GetRow(), (allBlockRegion.bottom - allBlockRegion.top), interBlockHalfGap))

  00011	8b 47 10	 mov	 eax, DWORD PTR [edi+16]

; 485  : 	return CBlocksPositionCalculator::IsBiggerThanMinMainRegion(blockCount, allBlocksRegion, interBlockHalfGap*2, m_nCompartLineThickness);

  00014	03 f6		 add	 esi, esi

; 477  : 	if(!IsBiggerThanMinMainRegion(blockCount.GetRow(), (allBlockRegion.bottom - allBlockRegion.top), interBlockHalfGap))

  00016	2b 47 08	 sub	 eax, DWORD PTR [edi+8]

; 485  : 	return CBlocksPositionCalculator::IsBiggerThanMinMainRegion(blockCount, allBlocksRegion, interBlockHalfGap*2, m_nCompartLineThickness);

  00019	56		 push	 esi
  0001a	50		 push	 eax
  0001b	ff 33		 push	 DWORD PTR [ebx]
  0001d	e8 00 00 00 00	 call	 ?IsBiggerThanMinMainRegion@CBlocksPositionCalculator@@SA_NHHHH@Z ; CBlocksPositionCalculator::IsBiggerThanMinMainRegion
  00022	83 c4 10	 add	 esp, 16			; 00000010H

; 477  : 	if(!IsBiggerThanMinMainRegion(blockCount.GetRow(), (allBlockRegion.bottom - allBlockRegion.top), interBlockHalfGap))

  00025	84 c0		 test	 al, al
  00027	0f 84 a6 00 00
	00		 je	 $LN35@SetBlockCo

; 485  : 	return CBlocksPositionCalculator::IsBiggerThanMinMainRegion(blockCount, allBlocksRegion, interBlockHalfGap*2, m_nCompartLineThickness);

  0002d	ff 77 74	 push	 DWORD PTR [edi+116]

; 480  : 	return IsBiggerThanMinMainRegion(blockCount.GetColumn(), (allBlockRegion.right - allBlockRegion.left), interBlockHalfGap);

  00030	8b 47 0c	 mov	 eax, DWORD PTR [edi+12]
  00033	2b 47 04	 sub	 eax, DWORD PTR [edi+4]

; 485  : 	return CBlocksPositionCalculator::IsBiggerThanMinMainRegion(blockCount, allBlocksRegion, interBlockHalfGap*2, m_nCompartLineThickness);

  00036	56		 push	 esi
  00037	50		 push	 eax
  00038	ff 73 04	 push	 DWORD PTR [ebx+4]
  0003b	e8 00 00 00 00	 call	 ?IsBiggerThanMinMainRegion@CBlocksPositionCalculator@@SA_NHHHH@Z ; CBlocksPositionCalculator::IsBiggerThanMinMainRegion
  00040	83 c4 10	 add	 esp, 16			; 00000010H

; 223  : 	// block   
; 224  : 	if(!IsBiggerThanMinMainRegion(m_allBlockRegion, blockCount, m_nInterBlockHalfGap))

  00043	84 c0		 test	 al, al
  00045	0f 84 88 00 00
	00		 je	 $LN35@SetBlockCo

; 383  : 	if( GetRowCount() <= 0) return 0;

  0004b	8b 47 44	 mov	 eax, DWORD PTR [edi+68]

; 225  : 		return false;
; 226  : 
; 227  : 	if(GetRowBlockCount() == blockCount.GetRow() && GetColumnBlockCount() == blockCount.GetColumn())

  0004e	33 c9		 xor	 ecx, ecx
  00050	85 c0		 test	 eax, eax
  00052	8d 50 ff	 lea	 edx, DWORD PTR [eax-1]
  00055	0f 4f ca	 cmovg	 ecx, edx
  00058	3b 0b		 cmp	 ecx, DWORD PTR [ebx]
  0005a	75 12		 jne	 SHORT $LN33@SetBlockCo

; 390  : 	if(m_lColumn.GetCount() <= 0)

  0005c	8b 47 20	 mov	 eax, DWORD PTR [edi+32]

; 225  : 		return false;
; 226  : 
; 227  : 	if(GetRowBlockCount() == blockCount.GetRow() && GetColumnBlockCount() == blockCount.GetColumn())

  0005f	33 c9		 xor	 ecx, ecx
  00061	85 c0		 test	 eax, eax
  00063	8d 50 ff	 lea	 edx, DWORD PTR [eax-1]
  00066	0f 4f ca	 cmovg	 ecx, edx
  00069	3b 4b 04	 cmp	 ecx, DWORD PTR [ebx+4]
  0006c	74 65		 je	 SHORT $LN35@SetBlockCo
$LN33@SetBlockCo:
; File C:\Program Files (x86)\Microsoft Visual Studio\2019\Community\VC\Tools\MSVC\14.29.30133\atlmfc\include\afxtempl.h

; 872  : 	m_pBlocks->FreeDataChain();

  0006e	8b 4f 68	 mov	 ecx, DWORD PTR [edi+104]
  00071	c7 47 60 00 00
	00 00		 mov	 DWORD PTR [edi+96], 0
  00078	c7 47 64 00 00
	00 00		 mov	 DWORD PTR [edi+100], 0
  0007f	c7 47 5c 00 00
	00 00		 mov	 DWORD PTR [edi+92], 0
  00086	c7 47 58 00 00
	00 00		 mov	 DWORD PTR [edi+88], 0
  0008d	e8 00 00 00 00	 call	 ?FreeDataChain@CPlex@@QAEXXZ ; CPlex::FreeDataChain
; File D:\git\src\IBK\IBK_DRFN\ProjSrc\SrcChartEx\ChartOCX\ChartObject\BlocksPosition.cpp

; 231  : 	Add(lRowRate, blockCount.GetRow(), doubleBlockSizeIndex.GetRow(), m_allBlockRegion.bottom - m_allBlockRegion.top);

  00092	8b 75 0c	 mov	 esi, DWORD PTR _doubleBlockSizeIndex$[ebp]
  00095	8b cf		 mov	 ecx, edi
; File C:\Program Files (x86)\Microsoft Visual Studio\2019\Community\VC\Tools\MSVC\14.29.30133\atlmfc\include\afxtempl.h

; 873  : 	m_pBlocks = NULL;

  00097	c7 47 68 00 00
	00 00		 mov	 DWORD PTR [edi+104], 0
; File D:\git\src\IBK\IBK_DRFN\ProjSrc\SrcChartEx\ChartOCX\ChartObject\BlocksPosition.cpp

; 231  : 	Add(lRowRate, blockCount.GetRow(), doubleBlockSizeIndex.GetRow(), m_allBlockRegion.bottom - m_allBlockRegion.top);

  0009e	8b 47 10	 mov	 eax, DWORD PTR [edi+16]
  000a1	2b 47 08	 sub	 eax, DWORD PTR [edi+8]
  000a4	50		 push	 eax
  000a5	ff 36		 push	 DWORD PTR [esi]

; 38   : 	return m_dlRowRate;

  000a7	8d 47 38	 lea	 eax, DWORD PTR [edi+56]

; 231  : 	Add(lRowRate, blockCount.GetRow(), doubleBlockSizeIndex.GetRow(), m_allBlockRegion.bottom - m_allBlockRegion.top);

  000aa	ff 33		 push	 DWORD PTR [ebx]
  000ac	50		 push	 eax
  000ad	e8 00 00 00 00	 call	 ?Add@CBlocksPosition@@AAEXAAV?$CList@NN@@HHH@Z ; CBlocksPosition::Add

; 232  : 	Add(m_lColumn, blockCount.GetColumn(), doubleBlockSizeIndex.GetColumn(), m_allBlockRegion.right - m_allBlockRegion.left);

  000b2	8b 47 0c	 mov	 eax, DWORD PTR [edi+12]
  000b5	8b cf		 mov	 ecx, edi
  000b7	2b 47 04	 sub	 eax, DWORD PTR [edi+4]
  000ba	50		 push	 eax
  000bb	ff 76 04	 push	 DWORD PTR [esi+4]
  000be	8d 47 14	 lea	 eax, DWORD PTR [edi+20]
  000c1	ff 73 04	 push	 DWORD PTR [ebx+4]
  000c4	50		 push	 eax
  000c5	e8 00 00 00 00	 call	 ?Add@CBlocksPosition@@AAEXAAV?$CList@NN@@HHH@Z ; CBlocksPosition::Add
  000ca	5f		 pop	 edi

; 233  : 	return true;
; 234  : }

  000cb	5e		 pop	 esi
  000cc	b0 01		 mov	 al, 1
  000ce	5b		 pop	 ebx
  000cf	5d		 pop	 ebp
  000d0	c2 08 00	 ret	 8
$LN35@SetBlockCo:
  000d3	5f		 pop	 edi
  000d4	5e		 pop	 esi
  000d5	32 c0		 xor	 al, al
  000d7	5b		 pop	 ebx
  000d8	5d		 pop	 ebp
  000d9	c2 08 00	 ret	 8
?SetBlockCount@CBlocksPosition@@QAE_NABVCBlockIndex@@0@Z ENDP ; CBlocksPosition::SetBlockCount
_TEXT	ENDS
; Function compile flags: /Ogtp
; File D:\git\src\IBK\IBK_DRFN\ProjSrc\SrcChartEx\ChartOCX\ChartObject\BlocksPosition.cpp
; File C:\Program Files (x86)\Microsoft Visual Studio\2019\Community\VC\Tools\MSVC\14.29.30133\atlmfc\include\afxtempl.h
; File D:\git\src\IBK\IBK_DRFN\ProjSrc\SrcChartEx\ChartOCX\ChartObject\BlocksPosition.cpp
; File C:\Program Files (x86)\Microsoft Visual Studio\2019\Community\VC\Tools\MSVC\14.29.30133\atlmfc\include\afxtempl.h
; File D:\git\src\IBK\IBK_DRFN\ProjSrc\SrcChartEx\ChartOCX\ChartObject\BlocksPosition.cpp
;	COMDAT ?Set@CBlocksPosition@@QAE_NABVCRect@@ABVCBlockIndex@@1HH@Z
_TEXT	SEGMENT
_allBlockRegion$ = 8					; size = 4
_blockCount$ = 12					; size = 4
_doubleBlockSizeIndex$ = 16				; size = 4
_interBlockHalfGap$ = 20				; size = 4
_compartLineThickness$ = 24				; size = 4
?Set@CBlocksPosition@@QAE_NABVCRect@@ABVCBlockIndex@@1HH@Z PROC ; CBlocksPosition::Set, COMDAT
; _this$ = ecx

; 206  : {

  00000	55		 push	 ebp
  00001	8b ec		 mov	 ebp, esp
  00003	53		 push	 ebx

; 477  : 	if(!IsBiggerThanMinMainRegion(blockCount.GetRow(), (allBlockRegion.bottom - allBlockRegion.top), interBlockHalfGap))

  00004	8b 5d 08	 mov	 ebx, DWORD PTR _allBlockRegion$[ebp]

; 206  : {

  00007	56		 push	 esi

; 485  : 	return CBlocksPositionCalculator::IsBiggerThanMinMainRegion(blockCount, allBlocksRegion, interBlockHalfGap*2, m_nCompartLineThickness);

  00008	8b 75 0c	 mov	 esi, DWORD PTR _blockCount$[ebp]

; 206  : {

  0000b	57		 push	 edi

; 477  : 	if(!IsBiggerThanMinMainRegion(blockCount.GetRow(), (allBlockRegion.bottom - allBlockRegion.top), interBlockHalfGap))

  0000c	8b 43 0c	 mov	 eax, DWORD PTR [ebx+12]

; 206  : {

  0000f	8b f9		 mov	 edi, ecx

; 485  : 	return CBlocksPositionCalculator::IsBiggerThanMinMainRegion(blockCount, allBlocksRegion, interBlockHalfGap*2, m_nCompartLineThickness);

  00011	8b 4d 14	 mov	 ecx, DWORD PTR _interBlockHalfGap$[ebp]

; 477  : 	if(!IsBiggerThanMinMainRegion(blockCount.GetRow(), (allBlockRegion.bottom - allBlockRegion.top), interBlockHalfGap))

  00014	2b 43 04	 sub	 eax, DWORD PTR [ebx+4]

; 485  : 	return CBlocksPositionCalculator::IsBiggerThanMinMainRegion(blockCount, allBlocksRegion, interBlockHalfGap*2, m_nCompartLineThickness);

  00017	03 c9		 add	 ecx, ecx
  00019	ff 77 74	 push	 DWORD PTR [edi+116]
  0001c	51		 push	 ecx
  0001d	50		 push	 eax
  0001e	ff 36		 push	 DWORD PTR [esi]
  00020	e8 00 00 00 00	 call	 ?IsBiggerThanMinMainRegion@CBlocksPositionCalculator@@SA_NHHHH@Z ; CBlocksPositionCalculator::IsBiggerThanMinMainRegion
  00025	83 c4 10	 add	 esp, 16			; 00000010H

; 477  : 	if(!IsBiggerThanMinMainRegion(blockCount.GetRow(), (allBlockRegion.bottom - allBlockRegion.top), interBlockHalfGap))

  00028	84 c0		 test	 al, al
  0002a	0f 84 9c 00 00
	00		 je	 $LN24@Set

; 485  : 	return CBlocksPositionCalculator::IsBiggerThanMinMainRegion(blockCount, allBlocksRegion, interBlockHalfGap*2, m_nCompartLineThickness);

  00030	8b 55 14	 mov	 edx, DWORD PTR _interBlockHalfGap$[ebp]
  00033	ff 77 74	 push	 DWORD PTR [edi+116]

; 480  : 	return IsBiggerThanMinMainRegion(blockCount.GetColumn(), (allBlockRegion.right - allBlockRegion.left), interBlockHalfGap);

  00036	8b 43 08	 mov	 eax, DWORD PTR [ebx+8]
  00039	2b 03		 sub	 eax, DWORD PTR [ebx]

; 485  : 	return CBlocksPositionCalculator::IsBiggerThanMinMainRegion(blockCount, allBlocksRegion, interBlockHalfGap*2, m_nCompartLineThickness);

  0003b	8d 0c 12	 lea	 ecx, DWORD PTR [edx+edx]
  0003e	51		 push	 ecx
  0003f	50		 push	 eax
  00040	ff 76 04	 push	 DWORD PTR [esi+4]
  00043	e8 00 00 00 00	 call	 ?IsBiggerThanMinMainRegion@CBlocksPositionCalculator@@SA_NHHHH@Z ; CBlocksPositionCalculator::IsBiggerThanMinMainRegion
  00048	83 c4 10	 add	 esp, 16			; 00000010H

; 207  : 	// block   
; 208  : 	if(!IsBiggerThanMinMainRegion(allBlockRegion, blockCount, interBlockHalfGap))

  0004b	84 c0		 test	 al, al
  0004d	74 7d		 je	 SHORT $LN24@Set

; 209  : 		return false;
; 210  : 
; 211  : 	m_allBlockRegion = allBlockRegion;

  0004f	0f 10 03	 movups	 xmm0, XMMWORD PTR [ebx]

; 212  : 	m_nInterBlockHalfGap = interBlockHalfGap;

  00052	8b 45 14	 mov	 eax, DWORD PTR _interBlockHalfGap$[ebp]
  00055	89 47 70	 mov	 DWORD PTR [edi+112], eax

; 213  : 	m_nCompartLineThickness = compartLineThickness;

  00058	8b 45 18	 mov	 eax, DWORD PTR _compartLineThickness$[ebp]
  0005b	0f 11 47 04	 movups	 XMMWORD PTR [edi+4], xmm0
  0005f	89 47 74	 mov	 DWORD PTR [edi+116], eax
; File C:\Program Files (x86)\Microsoft Visual Studio\2019\Community\VC\Tools\MSVC\14.29.30133\atlmfc\include\afxtempl.h

; 872  : 	m_pBlocks->FreeDataChain();

  00062	8b 4f 68	 mov	 ecx, DWORD PTR [edi+104]
  00065	c7 47 60 00 00
	00 00		 mov	 DWORD PTR [edi+96], 0
  0006c	c7 47 64 00 00
	00 00		 mov	 DWORD PTR [edi+100], 0
  00073	c7 47 5c 00 00
	00 00		 mov	 DWORD PTR [edi+92], 0
  0007a	c7 47 58 00 00
	00 00		 mov	 DWORD PTR [edi+88], 0
  00081	e8 00 00 00 00	 call	 ?FreeDataChain@CPlex@@QAEXXZ ; CPlex::FreeDataChain
; File D:\git\src\IBK\IBK_DRFN\ProjSrc\SrcChartEx\ChartOCX\ChartObject\BlocksPosition.cpp

; 216  : 	Add(lRowRate, blockCount.GetRow(), doubleBlockSizeIndex.GetRow(), allBlockRegion.bottom - allBlockRegion.top);

  00086	8b 75 10	 mov	 esi, DWORD PTR _doubleBlockSizeIndex$[ebp]
  00089	8b cf		 mov	 ecx, edi
; File C:\Program Files (x86)\Microsoft Visual Studio\2019\Community\VC\Tools\MSVC\14.29.30133\atlmfc\include\afxtempl.h

; 873  : 	m_pBlocks = NULL;

  0008b	c7 47 68 00 00
	00 00		 mov	 DWORD PTR [edi+104], 0
; File D:\git\src\IBK\IBK_DRFN\ProjSrc\SrcChartEx\ChartOCX\ChartObject\BlocksPosition.cpp

; 216  : 	Add(lRowRate, blockCount.GetRow(), doubleBlockSizeIndex.GetRow(), allBlockRegion.bottom - allBlockRegion.top);

  00092	8b 43 0c	 mov	 eax, DWORD PTR [ebx+12]
  00095	2b 43 04	 sub	 eax, DWORD PTR [ebx+4]
  00098	50		 push	 eax
  00099	8b 45 0c	 mov	 eax, DWORD PTR _blockCount$[ebp]
  0009c	ff 36		 push	 DWORD PTR [esi]
  0009e	ff 30		 push	 DWORD PTR [eax]

; 38   : 	return m_dlRowRate;

  000a0	8d 47 38	 lea	 eax, DWORD PTR [edi+56]

; 216  : 	Add(lRowRate, blockCount.GetRow(), doubleBlockSizeIndex.GetRow(), allBlockRegion.bottom - allBlockRegion.top);

  000a3	50		 push	 eax
  000a4	e8 00 00 00 00	 call	 ?Add@CBlocksPosition@@AAEXAAV?$CList@NN@@HHH@Z ; CBlocksPosition::Add

; 217  : 	Add(m_lColumn, blockCount.GetColumn(), doubleBlockSizeIndex.GetColumn(), allBlockRegion.right - allBlockRegion.left);

  000a9	8b 43 08	 mov	 eax, DWORD PTR [ebx+8]
  000ac	8b cf		 mov	 ecx, edi
  000ae	2b 03		 sub	 eax, DWORD PTR [ebx]
  000b0	50		 push	 eax
  000b1	8b 45 0c	 mov	 eax, DWORD PTR _blockCount$[ebp]
  000b4	ff 76 04	 push	 DWORD PTR [esi+4]
  000b7	ff 70 04	 push	 DWORD PTR [eax+4]
  000ba	8d 47 14	 lea	 eax, DWORD PTR [edi+20]
  000bd	50		 push	 eax
  000be	e8 00 00 00 00	 call	 ?Add@CBlocksPosition@@AAEXAAV?$CList@NN@@HHH@Z ; CBlocksPosition::Add
  000c3	5f		 pop	 edi

; 218  : 	return true;
; 219  : }

  000c4	5e		 pop	 esi
  000c5	b0 01		 mov	 al, 1
  000c7	5b		 pop	 ebx
  000c8	5d		 pop	 ebp
  000c9	c2 14 00	 ret	 20			; 00000014H
$LN24@Set:
  000cc	5f		 pop	 edi
  000cd	5e		 pop	 esi
  000ce	32 c0		 xor	 al, al
  000d0	5b		 pop	 ebx
  000d1	5d		 pop	 ebp
  000d2	c2 14 00	 ret	 20			; 00000014H
?Set@CBlocksPosition@@QAE_NABVCRect@@ABVCBlockIndex@@1HH@Z ENDP ; CBlocksPosition::Set
_TEXT	ENDS
; Function compile flags: /Ogtp
; File D:\git\src\IBK\IBK_DRFN\ProjSrc\SrcChartEx\ChartOCX\ChartObject\BlocksPosition.cpp
;	COMDAT ??1CBlocksPosition@@QAE@XZ
_TEXT	SEGMENT
__$EHRec$ = -12						; size = 12
??1CBlocksPosition@@QAE@XZ PROC				; CBlocksPosition::~CBlocksPosition, COMDAT
; _this$ = ecx

; 196  : {

  00000	55		 push	 ebp
  00001	8b ec		 mov	 ebp, esp
  00003	6a ff		 push	 -1
  00005	68 00 00 00 00	 push	 __ehhandler$??1CBlocksPosition@@QAE@XZ
  0000a	64 a1 00 00 00
	00		 mov	 eax, DWORD PTR fs:0
  00010	50		 push	 eax
  00011	56		 push	 esi
  00012	a1 00 00 00 00	 mov	 eax, DWORD PTR ___security_cookie
  00017	33 c5		 xor	 eax, ebp
  00019	50		 push	 eax
  0001a	8d 45 f4	 lea	 eax, DWORD PTR __$EHRec$[ebp]
  0001d	64 a3 00 00 00
	00		 mov	 DWORD PTR fs:0, eax
  00023	8b f1		 mov	 esi, ecx

; 197  : 	BlockPositionReset();

  00025	e8 00 00 00 00	 call	 ?BlockPositionReset@CBlocksPositionBase@@QAEXXZ ; CBlocksPositionBase::BlockPositionReset

; 198  : }

  0002a	8b ce		 mov	 ecx, esi
  0002c	e8 00 00 00 00	 call	 ??1CBlocksPositionBase@@IAE@XZ ; CBlocksPositionBase::~CBlocksPositionBase
  00031	8b 4d f4	 mov	 ecx, DWORD PTR __$EHRec$[ebp]
  00034	64 89 0d 00 00
	00 00		 mov	 DWORD PTR fs:0, ecx
  0003b	59		 pop	 ecx
  0003c	5e		 pop	 esi
  0003d	8b e5		 mov	 esp, ebp
  0003f	5d		 pop	 ebp
  00040	c3		 ret	 0
  00041	cc		 int	 3
  00042	cc		 int	 3
  00043	cc		 int	 3
  00044	cc		 int	 3
  00045	cc		 int	 3
_TEXT	ENDS
;	COMDAT text$x
text$x	SEGMENT
__ehhandler$??1CBlocksPosition@@QAE@XZ:
  00000	90		 npad	 1
  00001	90		 npad	 1
  00002	8b 54 24 08	 mov	 edx, DWORD PTR [esp+8]
  00006	8d 42 0c	 lea	 eax, DWORD PTR [edx+12]
  00009	8b 4a f8	 mov	 ecx, DWORD PTR [edx-8]
  0000c	33 c8		 xor	 ecx, eax
  0000e	e8 00 00 00 00	 call	 @__security_check_cookie@4
  00013	b8 00 00 00 00	 mov	 eax, OFFSET __ehfuncinfo$??1CBlocksPosition@@QAE@XZ
  00018	e9 00 00 00 00	 jmp	 ___CxxFrameHandler3
text$x	ENDS
??1CBlocksPosition@@QAE@XZ ENDP				; CBlocksPosition::~CBlocksPosition
; Function compile flags: /Ogtp
; File D:\git\src\IBK\IBK_DRFN\ProjSrc\SrcChartEx\ChartOCX\ChartObject\BlocksPosition.cpp
; File C:\Program Files (x86)\Microsoft Visual Studio\2019\Community\VC\Tools\MSVC\14.29.30133\atlmfc\include\atltypes.h
; File D:\git\src\IBK\IBK_DRFN\ProjSrc\SrcChartEx\ChartOCX\ChartObject\BlocksPosition.cpp
; File C:\Program Files (x86)\Microsoft Visual Studio\2019\Community\VC\Tools\MSVC\14.29.30133\atlmfc\include\atltypes.h
; File C:\Program Files (x86)\Microsoft Visual Studio\2019\Community\VC\Tools\MSVC\14.29.30133\atlmfc\include\afxtempl.h
; File D:\git\src\IBK\IBK_DRFN\ProjSrc\SrcChartEx\ChartOCX\Include_Chart\BlockBaseData.h
; File C:\Program Files (x86)\Microsoft Visual Studio\2019\Community\VC\Tools\MSVC\14.29.30133\atlmfc\include\afxtempl.h
; File D:\git\src\IBK\IBK_DRFN\ProjSrc\SrcChartEx\ChartOCX\ChartObject\BlocksPosition.cpp
;	COMDAT ??0CBlocksPosition@@QAE@XZ
_TEXT	SEGMENT
_this$ = -4						; size = 4
??0CBlocksPosition@@QAE@XZ PROC				; CBlocksPosition::CBlocksPosition, COMDAT
; _this$ = ecx

; 192  : {

  00000	55		 push	 ebp
  00001	8b ec		 mov	 ebp, esp
  00003	51		 push	 ecx
  00004	89 4d fc	 mov	 DWORD PTR _this$[ebp], ecx
; File C:\Program Files (x86)\Microsoft Visual Studio\2019\Community\VC\Tools\MSVC\14.29.30133\atlmfc\include\atltypes.h

; 540  : 	left = l;

  00007	c7 41 04 00 00
	00 00		 mov	 DWORD PTR [ecx+4], 0
; File D:\git\src\IBK\IBK_DRFN\ProjSrc\SrcChartEx\ChartOCX\ChartObject\BlocksPosition.cpp

; 193  : }

  0000e	8b c1		 mov	 eax, ecx
; File C:\Program Files (x86)\Microsoft Visual Studio\2019\Community\VC\Tools\MSVC\14.29.30133\atlmfc\include\atltypes.h

; 541  : 	top = t;

  00010	c7 41 08 00 00
	00 00		 mov	 DWORD PTR [ecx+8], 0

; 542  : 	right = r;

  00017	c7 41 0c 00 00
	00 00		 mov	 DWORD PTR [ecx+12], 0

; 543  : 	bottom = b;

  0001e	c7 41 10 00 00
	00 00		 mov	 DWORD PTR [ecx+16], 0
; File C:\Program Files (x86)\Microsoft Visual Studio\2019\Community\VC\Tools\MSVC\14.29.30133\atlmfc\include\afxtempl.h

; 851  : {

  00025	c7 41 14 00 00
	00 00		 mov	 DWORD PTR [ecx+20], OFFSET ??_7?$CList@NN@@6B@

; 852  : 	ASSERT(nBlockSize > 0);
; 853  : 
; 854  : 	m_nCount = 0;

  0002c	c7 41 20 00 00
	00 00		 mov	 DWORD PTR [ecx+32], 0

; 855  : 	m_pNodeHead = m_pNodeTail = m_pNodeFree = NULL;

  00033	c7 41 24 00 00
	00 00		 mov	 DWORD PTR [ecx+36], 0
  0003a	c7 41 1c 00 00
	00 00		 mov	 DWORD PTR [ecx+28], 0
  00041	c7 41 18 00 00
	00 00		 mov	 DWORD PTR [ecx+24], 0

; 856  : 	m_pBlocks = NULL;

  00048	c7 41 28 00 00
	00 00		 mov	 DWORD PTR [ecx+40], 0

; 857  : 	m_nBlockSize = nBlockSize;

  0004f	c7 41 2c 0a 00
	00 00		 mov	 DWORD PTR [ecx+44], 10	; 0000000aH
; File D:\git\src\IBK\IBK_DRFN\ProjSrc\SrcChartEx\ChartOCX\Include_Chart\BlockBaseData.h

; 19   : 	CBlockIndex()										{	m_nRow = m_nColumn = -1;				}

  00056	c7 41 34 ff ff
	ff ff		 mov	 DWORD PTR [ecx+52], -1
  0005d	c7 41 30 ff ff
	ff ff		 mov	 DWORD PTR [ecx+48], -1
; File C:\Program Files (x86)\Microsoft Visual Studio\2019\Community\VC\Tools\MSVC\14.29.30133\atlmfc\include\afxtempl.h

; 851  : {

  00064	c7 41 38 00 00
	00 00		 mov	 DWORD PTR [ecx+56], OFFSET ??_7?$CList@NN@@6B@

; 852  : 	ASSERT(nBlockSize > 0);
; 853  : 
; 854  : 	m_nCount = 0;

  0006b	c7 41 44 00 00
	00 00		 mov	 DWORD PTR [ecx+68], 0

; 855  : 	m_pNodeHead = m_pNodeTail = m_pNodeFree = NULL;

  00072	c7 41 48 00 00
	00 00		 mov	 DWORD PTR [ecx+72], 0
  00079	c7 41 40 00 00
	00 00		 mov	 DWORD PTR [ecx+64], 0
  00080	c7 41 3c 00 00
	00 00		 mov	 DWORD PTR [ecx+60], 0

; 856  : 	m_pBlocks = NULL;

  00087	c7 41 4c 00 00
	00 00		 mov	 DWORD PTR [ecx+76], 0

; 857  : 	m_nBlockSize = nBlockSize;

  0008e	c7 41 50 0a 00
	00 00		 mov	 DWORD PTR [ecx+80], 10	; 0000000aH

; 851  : {

  00095	c7 41 54 00 00
	00 00		 mov	 DWORD PTR [ecx+84], OFFSET ??_7?$CList@NN@@6B@

; 852  : 	ASSERT(nBlockSize > 0);
; 853  : 
; 854  : 	m_nCount = 0;

  0009c	c7 41 60 00 00
	00 00		 mov	 DWORD PTR [ecx+96], 0

; 855  : 	m_pNodeHead = m_pNodeTail = m_pNodeFree = NULL;

  000a3	c7 41 64 00 00
	00 00		 mov	 DWORD PTR [ecx+100], 0
  000aa	c7 41 5c 00 00
	00 00		 mov	 DWORD PTR [ecx+92], 0
  000b1	c7 41 58 00 00
	00 00		 mov	 DWORD PTR [ecx+88], 0

; 856  : 	m_pBlocks = NULL;

  000b8	c7 41 68 00 00
	00 00		 mov	 DWORD PTR [ecx+104], 0

; 857  : 	m_nBlockSize = nBlockSize;

  000bf	c7 41 6c 0a 00
	00 00		 mov	 DWORD PTR [ecx+108], 10	; 0000000aH
; File D:\git\src\IBK\IBK_DRFN\ProjSrc\SrcChartEx\ChartOCX\ChartObject\BlocksPosition.cpp

; 190  : 	m_nInterBlockHalfGap(0),

  000c6	c7 41 70 00 00
	00 00		 mov	 DWORD PTR [ecx+112], 0

; 191  : 	m_nCompartLineThickness(1)

  000cd	c7 41 74 01 00
	00 00		 mov	 DWORD PTR [ecx+116], 1

; 193  : }

  000d4	8b e5		 mov	 esp, ebp
  000d6	5d		 pop	 ebp
  000d7	c3		 ret	 0
??0CBlocksPosition@@QAE@XZ ENDP				; CBlocksPosition::CBlocksPosition
_TEXT	ENDS
; Function compile flags: /Ogtp
; File D:\git\src\IBK\IBK_DRFN\ProjSrc\SrcChartEx\ChartOCX\ChartObject\BlocksPosition.cpp
; File C:\Program Files (x86)\Microsoft Visual Studio\2019\Community\VC\Tools\MSVC\14.29.30133\atlmfc\include\afxtempl.h
; File D:\git\src\IBK\IBK_DRFN\ProjSrc\SrcChartEx\ChartOCX\ChartObject\BlocksPosition.cpp
;	COMDAT ?ClearRowReal@CBlocksPositionBase@@QAEXXZ
_TEXT	SEGMENT
?ClearRowReal@CBlocksPositionBase@@QAEXXZ PROC		; CBlocksPositionBase::ClearRowReal, COMDAT
; _this$ = ecx

; 161  : {

  00000	56		 push	 esi
  00001	8b f1		 mov	 esi, ecx
; File C:\Program Files (x86)\Microsoft Visual Studio\2019\Community\VC\Tools\MSVC\14.29.30133\atlmfc\include\afxtempl.h

; 872  : 	m_pBlocks->FreeDataChain();

  00003	8b 4e 68	 mov	 ecx, DWORD PTR [esi+104]
  00006	c7 46 60 00 00
	00 00		 mov	 DWORD PTR [esi+96], 0
  0000d	c7 46 64 00 00
	00 00		 mov	 DWORD PTR [esi+100], 0
  00014	c7 46 5c 00 00
	00 00		 mov	 DWORD PTR [esi+92], 0
  0001b	c7 46 58 00 00
	00 00		 mov	 DWORD PTR [esi+88], 0
  00022	e8 00 00 00 00	 call	 ?FreeDataChain@CPlex@@QAEXXZ ; CPlex::FreeDataChain

; 873  : 	m_pBlocks = NULL;

  00027	c7 46 68 00 00
	00 00		 mov	 DWORD PTR [esi+104], 0
  0002e	5e		 pop	 esi
; File D:\git\src\IBK\IBK_DRFN\ProjSrc\SrcChartEx\ChartOCX\ChartObject\BlocksPosition.cpp

; 163  : }

  0002f	c3		 ret	 0
?ClearRowReal@CBlocksPositionBase@@QAEXXZ ENDP		; CBlocksPositionBase::ClearRowReal
_TEXT	ENDS
; Function compile flags: /Ogtp
; File D:\git\src\IBK\IBK_DRFN\ProjSrc\SrcChartEx\ChartOCX\ChartObject\BlocksPosition.cpp
;	COMDAT ?GetMaximizedBlock@CBlocksPositionBase@@QBE?AVCBlockIndex@@XZ
_TEXT	SEGMENT
___$ReturnUdt$ = 8					; size = 4
?GetMaximizedBlock@CBlocksPositionBase@@QBE?AVCBlockIndex@@XZ PROC ; CBlocksPositionBase::GetMaximizedBlock, COMDAT
; _this$ = ecx

; 181  : {

  00000	55		 push	 ebp
  00001	8b ec		 mov	 ebp, esp

; 182  : 	return m_biMaximizedBlock;

  00003	8b 45 08	 mov	 eax, DWORD PTR ___$ReturnUdt$[ebp]
  00006	8b 51 30	 mov	 edx, DWORD PTR [ecx+48]
  00009	8b 49 34	 mov	 ecx, DWORD PTR [ecx+52]
  0000c	89 10		 mov	 DWORD PTR [eax], edx
  0000e	89 48 04	 mov	 DWORD PTR [eax+4], ecx

; 183  : }

  00011	5d		 pop	 ebp
  00012	c2 04 00	 ret	 4
?GetMaximizedBlock@CBlocksPositionBase@@QBE?AVCBlockIndex@@XZ ENDP ; CBlocksPositionBase::GetMaximizedBlock
_TEXT	ENDS
; Function compile flags: /Ogtp
; File D:\git\src\IBK\IBK_DRFN\ProjSrc\SrcChartEx\ChartOCX\ChartObject\BlocksPosition.cpp
; File C:\Program Files (x86)\Microsoft Visual Studio\2019\Community\VC\Tools\MSVC\14.29.30133\atlmfc\include\afxtempl.h
; File D:\git\src\IBK\IBK_DRFN\ProjSrc\SrcChartEx\ChartOCX\ChartObject\BlocksPosition.cpp
; File C:\Program Files (x86)\Microsoft Visual Studio\2019\Community\VC\Tools\MSVC\14.29.30133\atlmfc\include\afxtempl.h
; File D:\git\src\IBK\IBK_DRFN\ProjSrc\SrcChartEx\ChartOCX\ChartObject\BlocksPosition.cpp
;	COMDAT ?SetMaximizedBlock@CBlocksPositionBase@@QAEXABVCBlockIndex@@@Z
_TEXT	SEGMENT
_maxBlockIndex$ = 8					; size = 4
?SetMaximizedBlock@CBlocksPositionBase@@QAEXABVCBlockIndex@@@Z PROC ; CBlocksPositionBase::SetMaximizedBlock, COMDAT
; _this$ = ecx

; 174  : {

  00000	55		 push	 ebp
  00001	8b ec		 mov	 ebp, esp
  00003	56		 push	 esi
  00004	8b f1		 mov	 esi, ecx
; File C:\Program Files (x86)\Microsoft Visual Studio\2019\Community\VC\Tools\MSVC\14.29.30133\atlmfc\include\afxtempl.h

; 872  : 	m_pBlocks->FreeDataChain();

  00006	8b 4e 68	 mov	 ecx, DWORD PTR [esi+104]
  00009	c7 46 60 00 00
	00 00		 mov	 DWORD PTR [esi+96], 0
  00010	c7 46 64 00 00
	00 00		 mov	 DWORD PTR [esi+100], 0
  00017	c7 46 5c 00 00
	00 00		 mov	 DWORD PTR [esi+92], 0
  0001e	c7 46 58 00 00
	00 00		 mov	 DWORD PTR [esi+88], 0
  00025	e8 00 00 00 00	 call	 ?FreeDataChain@CPlex@@QAEXXZ ; CPlex::FreeDataChain
; File D:\git\src\IBK\IBK_DRFN\ProjSrc\SrcChartEx\ChartOCX\ChartObject\BlocksPosition.cpp

; 176  : 	m_biMaximizedBlock = maxBlockIndex;

  0002a	8b 45 08	 mov	 eax, DWORD PTR _maxBlockIndex$[ebp]
; File C:\Program Files (x86)\Microsoft Visual Studio\2019\Community\VC\Tools\MSVC\14.29.30133\atlmfc\include\afxtempl.h

; 873  : 	m_pBlocks = NULL;

  0002d	c7 46 68 00 00
	00 00		 mov	 DWORD PTR [esi+104], 0
; File D:\git\src\IBK\IBK_DRFN\ProjSrc\SrcChartEx\ChartOCX\ChartObject\BlocksPosition.cpp

; 176  : 	m_biMaximizedBlock = maxBlockIndex;

  00034	8b 08		 mov	 ecx, DWORD PTR [eax]
  00036	8b 40 04	 mov	 eax, DWORD PTR [eax+4]
  00039	89 4e 30	 mov	 DWORD PTR [esi+48], ecx
  0003c	89 46 34	 mov	 DWORD PTR [esi+52], eax
  0003f	5e		 pop	 esi

; 177  : }

  00040	5d		 pop	 ebp
  00041	c2 04 00	 ret	 4
?SetMaximizedBlock@CBlocksPositionBase@@QAEXABVCBlockIndex@@@Z ENDP ; CBlocksPositionBase::SetMaximizedBlock
_TEXT	ENDS
; Function compile flags: /Ogtp
; File D:\git\src\IBK\IBK_DRFN\ProjSrc\SrcChartEx\ChartOCX\ChartObject\BlocksPosition.cpp
; File C:\Program Files (x86)\Microsoft Visual Studio\2019\Community\VC\Tools\MSVC\14.29.30133\atlmfc\include\afxtempl.h
; File D:\git\src\IBK\IBK_DRFN\ProjSrc\SrcChartEx\ChartOCX\ChartObject\BlocksPosition.cpp
;	COMDAT ?BlockPositionReset@CBlocksPositionBase@@QAEXXZ
_TEXT	SEGMENT
?BlockPositionReset@CBlocksPositionBase@@QAEXXZ PROC	; CBlocksPositionBase::BlockPositionReset, COMDAT
; _this$ = ecx

; 166  : {

  00000	56		 push	 esi
  00001	8b f1		 mov	 esi, ecx
; File C:\Program Files (x86)\Microsoft Visual Studio\2019\Community\VC\Tools\MSVC\14.29.30133\atlmfc\include\afxtempl.h

; 872  : 	m_pBlocks->FreeDataChain();

  00003	8b 4e 4c	 mov	 ecx, DWORD PTR [esi+76]
  00006	c7 46 44 00 00
	00 00		 mov	 DWORD PTR [esi+68], 0
  0000d	c7 46 48 00 00
	00 00		 mov	 DWORD PTR [esi+72], 0
  00014	c7 46 40 00 00
	00 00		 mov	 DWORD PTR [esi+64], 0
  0001b	c7 46 3c 00 00
	00 00		 mov	 DWORD PTR [esi+60], 0
  00022	e8 00 00 00 00	 call	 ?FreeDataChain@CPlex@@QAEXXZ ; CPlex::FreeDataChain

; 873  : 	m_pBlocks = NULL;

  00027	c7 46 4c 00 00
	00 00		 mov	 DWORD PTR [esi+76], 0

; 872  : 	m_pBlocks->FreeDataChain();

  0002e	8b 4e 68	 mov	 ecx, DWORD PTR [esi+104]
  00031	c7 46 60 00 00
	00 00		 mov	 DWORD PTR [esi+96], 0
  00038	c7 46 64 00 00
	00 00		 mov	 DWORD PTR [esi+100], 0
  0003f	c7 46 5c 00 00
	00 00		 mov	 DWORD PTR [esi+92], 0
  00046	c7 46 58 00 00
	00 00		 mov	 DWORD PTR [esi+88], 0
  0004d	e8 00 00 00 00	 call	 ?FreeDataChain@CPlex@@QAEXXZ ; CPlex::FreeDataChain

; 873  : 	m_pBlocks = NULL;

  00052	c7 46 68 00 00
	00 00		 mov	 DWORD PTR [esi+104], 0

; 872  : 	m_pBlocks->FreeDataChain();

  00059	8b 4e 28	 mov	 ecx, DWORD PTR [esi+40]
  0005c	c7 46 20 00 00
	00 00		 mov	 DWORD PTR [esi+32], 0
  00063	c7 46 24 00 00
	00 00		 mov	 DWORD PTR [esi+36], 0
  0006a	c7 46 1c 00 00
	00 00		 mov	 DWORD PTR [esi+28], 0
  00071	c7 46 18 00 00
	00 00		 mov	 DWORD PTR [esi+24], 0
  00078	e8 00 00 00 00	 call	 ?FreeDataChain@CPlex@@QAEXXZ ; CPlex::FreeDataChain

; 873  : 	m_pBlocks = NULL;

  0007d	c7 46 28 00 00
	00 00		 mov	 DWORD PTR [esi+40], 0
  00084	5e		 pop	 esi
; File D:\git\src\IBK\IBK_DRFN\ProjSrc\SrcChartEx\ChartOCX\ChartObject\BlocksPosition.cpp

; 170  : }

  00085	c3		 ret	 0
?BlockPositionReset@CBlocksPositionBase@@QAEXXZ ENDP	; CBlocksPositionBase::BlockPositionReset
_TEXT	ENDS
; Function compile flags: /Ogtp
; File D:\git\src\IBK\IBK_DRFN\ProjSrc\SrcChartEx\ChartOCX\ChartObject\BlocksPosition.cpp
; File C:\Program Files (x86)\Microsoft Visual Studio\2019\Community\VC\Tools\MSVC\14.29.30133\atlmfc\include\afxtempl.h
; File D:\git\src\IBK\IBK_DRFN\ProjSrc\SrcChartEx\ChartOCX\ChartObject\BlocksPosition.cpp
; File C:\Program Files (x86)\Microsoft Visual Studio\2019\Community\VC\Tools\MSVC\14.29.30133\atlmfc\include\afxtempl.h
; File D:\git\src\IBK\IBK_DRFN\ProjSrc\SrcChartEx\ChartOCX\ChartObject\BlocksPosition.cpp
; File C:\Program Files (x86)\Microsoft Visual Studio\2019\Community\VC\Tools\MSVC\14.29.30133\atlmfc\include\afxtempl.h
; File D:\git\src\IBK\IBK_DRFN\ProjSrc\SrcChartEx\ChartOCX\ChartObject\BlocksPosition.cpp
; File C:\Program Files (x86)\Microsoft Visual Studio\2019\Community\VC\Tools\MSVC\14.29.30133\atlmfc\include\afxtempl.h
; File D:\git\src\IBK\IBK_DRFN\ProjSrc\SrcChartEx\ChartOCX\ChartObject\BlocksPosition.cpp
; File C:\Program Files (x86)\Microsoft Visual Studio\2019\Community\VC\Tools\MSVC\14.29.30133\atlmfc\include\afxtempl.h
; File D:\git\src\IBK\IBK_DRFN\ProjSrc\SrcChartEx\ChartOCX\ChartObject\BlocksPosition.cpp
; File C:\Program Files (x86)\Microsoft Visual Studio\2019\Community\VC\Tools\MSVC\14.29.30133\atlmfc\include\afxtempl.h
; File D:\git\src\IBK\IBK_DRFN\ProjSrc\SrcChartEx\ChartOCX\ChartObject\BlocksPosition.cpp
; File C:\Program Files (x86)\Microsoft Visual Studio\2019\Community\VC\Tools\MSVC\14.29.30133\atlmfc\include\afxtempl.h
; File D:\git\src\IBK\IBK_DRFN\ProjSrc\SrcChartEx\ChartOCX\ChartObject\BlocksPosition.cpp
; File C:\Program Files (x86)\Microsoft Visual Studio\2019\Community\VC\Tools\MSVC\14.29.30133\atlmfc\include\afxtempl.h
; File D:\git\src\IBK\IBK_DRFN\ProjSrc\SrcChartEx\ChartOCX\ChartObject\BlocksPosition.cpp
; File C:\Program Files (x86)\Microsoft Visual Studio\2019\Community\VC\Tools\MSVC\14.29.30133\atlmfc\include\afxtempl.h
; File D:\git\src\IBK\IBK_DRFN\ProjSrc\SrcChartEx\ChartOCX\ChartObject\BlocksPosition.cpp
;	COMDAT ?MoveBlocksPosition@CBlocksPositionBase@@IAE_NAAV?$CList@NN@@ABVCPoint@@HH@Z
_TEXT	SEGMENT
_lnSumOfHScaleHeight$ = -40				; size = 28
__$EHRec$ = -12						; size = 12
_columnList$ = 8					; size = 4
_point$ = 12						; size = 4
_rowCompartLineNum$ = 16				; size = 4
_columnCompartLineNum$ = 20				; size = 4
?MoveBlocksPosition@CBlocksPositionBase@@IAE_NAAV?$CList@NN@@ABVCPoint@@HH@Z PROC ; CBlocksPositionBase::MoveBlocksPosition, COMDAT
; _this$ = ecx

; 124  : {

  00000	55		 push	 ebp
  00001	8b ec		 mov	 ebp, esp
  00003	6a ff		 push	 -1
  00005	68 00 00 00 00	 push	 __ehhandler$?MoveBlocksPosition@CBlocksPositionBase@@IAE_NAAV?$CList@NN@@ABVCPoint@@HH@Z
  0000a	64 a1 00 00 00
	00		 mov	 eax, DWORD PTR fs:0
  00010	50		 push	 eax
  00011	83 ec 1c	 sub	 esp, 28			; 0000001cH
  00014	53		 push	 ebx
  00015	56		 push	 esi
  00016	57		 push	 edi
  00017	a1 00 00 00 00	 mov	 eax, DWORD PTR ___security_cookie
  0001c	33 c5		 xor	 eax, ebp
  0001e	50		 push	 eax
  0001f	8d 45 f4	 lea	 eax, DWORD PTR __$EHRec$[ebp]
  00022	64 a3 00 00 00
	00		 mov	 DWORD PTR fs:0, eax
  00028	8b f9		 mov	 edi, ecx
; File C:\Program Files (x86)\Microsoft Visual Studio\2019\Community\VC\Tools\MSVC\14.29.30133\atlmfc\include\afxtempl.h

; 786  : 	{ return m_nCount == 0; }

  0002a	83 7f 60 00	 cmp	 DWORD PTR [edi+96], 0
; File D:\git\src\IBK\IBK_DRFN\ProjSrc\SrcChartEx\ChartOCX\ChartObject\BlocksPosition.cpp

; 113  : 	if( m_dlRowReal.IsEmpty()) UpdateRowRealFromRowRate();

  0002e	75 05		 jne	 SHORT $LN8@MoveBlocks
  00030	e8 00 00 00 00	 call	 ?UpdateRowRealFromRowRate@CBlocksPositionBase@@IAEXXZ ; CBlocksPositionBase::UpdateRowRealFromRowRate
$LN8@MoveBlocks:

; 126  : 	bool bResult = CBlocksPositionCalculator::MoveBlocksPosition( lRowReal, columnList, point, rowCompartLineNum, columnCompartLineNum);

  00035	ff 75 14	 push	 DWORD PTR _columnCompartLineNum$[ebp]

; 114  : 	return m_dlRowReal;

  00038	8d 77 54	 lea	 esi, DWORD PTR [edi+84]

; 126  : 	bool bResult = CBlocksPositionCalculator::MoveBlocksPosition( lRowReal, columnList, point, rowCompartLineNum, columnCompartLineNum);

  0003b	ff 75 10	 push	 DWORD PTR _rowCompartLineNum$[ebp]
  0003e	ff 75 0c	 push	 DWORD PTR _point$[ebp]
  00041	ff 75 08	 push	 DWORD PTR _columnList$[ebp]
  00044	56		 push	 esi
  00045	e8 00 00 00 00	 call	 ?MoveBlocksPosition@CBlocksPositionCalculator@@SA_NAAV?$CList@NN@@0ABVCPoint@@HH@Z ; CBlocksPositionCalculator::MoveBlocksPosition
; File C:\Program Files (x86)\Microsoft Visual Studio\2019\Community\VC\Tools\MSVC\14.29.30133\atlmfc\include\afxtempl.h

; 872  : 	m_pBlocks->FreeDataChain();

  0004a	8b 4f 4c	 mov	 ecx, DWORD PTR [edi+76]
; File D:\git\src\IBK\IBK_DRFN\ProjSrc\SrcChartEx\ChartOCX\ChartObject\BlocksPosition.cpp

; 126  : 	bool bResult = CBlocksPositionCalculator::MoveBlocksPosition( lRowReal, columnList, point, rowCompartLineNum, columnCompartLineNum);

  0004d	83 c4 14	 add	 esp, 20			; 00000014H
  00050	8a d8		 mov	 bl, al
; File C:\Program Files (x86)\Microsoft Visual Studio\2019\Community\VC\Tools\MSVC\14.29.30133\atlmfc\include\afxtempl.h

; 870  : 	m_nCount = 0;

  00052	c7 47 44 00 00
	00 00		 mov	 DWORD PTR [edi+68], 0

; 871  : 	m_pNodeHead = m_pNodeTail = m_pNodeFree = NULL;

  00059	c7 47 48 00 00
	00 00		 mov	 DWORD PTR [edi+72], 0
  00060	c7 47 40 00 00
	00 00		 mov	 DWORD PTR [edi+64], 0
  00067	c7 47 3c 00 00
	00 00		 mov	 DWORD PTR [edi+60], 0

; 872  : 	m_pBlocks->FreeDataChain();

  0006e	e8 00 00 00 00	 call	 ?FreeDataChain@CPlex@@QAEXXZ ; CPlex::FreeDataChain
; File D:\git\src\IBK\IBK_DRFN\ProjSrc\SrcChartEx\ChartOCX\ChartObject\BlocksPosition.cpp

; 132  : 	m_dlRowRate.AddTail( &m_dlRowReal);

  00073	56		 push	 esi
  00074	8d 4f 38	 lea	 ecx, DWORD PTR [edi+56]
; File C:\Program Files (x86)\Microsoft Visual Studio\2019\Community\VC\Tools\MSVC\14.29.30133\atlmfc\include\afxtempl.h

; 873  : 	m_pBlocks = NULL;

  00077	c7 47 4c 00 00
	00 00		 mov	 DWORD PTR [edi+76], 0
; File D:\git\src\IBK\IBK_DRFN\ProjSrc\SrcChartEx\ChartOCX\ChartObject\BlocksPosition.cpp

; 132  : 	m_dlRowRate.AddTail( &m_dlRowReal);

  0007e	e8 00 00 00 00	 call	 ?AddTail@?$CList@NN@@QAEXPAV1@@Z ; CList<double,double>::AddTail

; 133  : 
; 134  : 	// 2. Check the 0 or 1 Block.
; 135  : 	if( m_dlRowRate.GetCount() < 3) return bResult;

  00083	83 7f 44 03	 cmp	 DWORD PTR [edi+68], 3
  00087	0f 8c a6 00 00
	00		 jl	 $LN49@MoveBlocks
; File C:\Program Files (x86)\Microsoft Visual Studio\2019\Community\VC\Tools\MSVC\14.29.30133\atlmfc\include\afxtempl.h

; 851  : {

  0008d	c7 45 d8 00 00
	00 00		 mov	 DWORD PTR _lnSumOfHScaleHeight$[ebp], OFFSET ??_7?$CList@HH@@6B@

; 852  : 	ASSERT(nBlockSize > 0);
; 853  : 
; 854  : 	m_nCount = 0;

  00094	c7 45 e4 00 00
	00 00		 mov	 DWORD PTR _lnSumOfHScaleHeight$[ebp+12], 0

; 855  : 	m_pNodeHead = m_pNodeTail = m_pNodeFree = NULL;

  0009b	c7 45 e8 00 00
	00 00		 mov	 DWORD PTR _lnSumOfHScaleHeight$[ebp+16], 0
  000a2	c7 45 e0 00 00
	00 00		 mov	 DWORD PTR _lnSumOfHScaleHeight$[ebp+8], 0
  000a9	c7 45 dc 00 00
	00 00		 mov	 DWORD PTR _lnSumOfHScaleHeight$[ebp+4], 0

; 856  : 	m_pBlocks = NULL;

  000b0	c7 45 ec 00 00
	00 00		 mov	 DWORD PTR _lnSumOfHScaleHeight$[ebp+20], 0

; 857  : 	m_nBlockSize = nBlockSize;

  000b7	c7 45 f0 0a 00
	00 00		 mov	 DWORD PTR _lnSumOfHScaleHeight$[ebp+24], 10 ; 0000000aH
; File D:\git\src\IBK\IBK_DRFN\ProjSrc\SrcChartEx\ChartOCX\ChartObject\BlocksPosition.cpp

; 139  : 	m_pMainBlock->GetSumOfHorzScaleHeightForEachBlock( lnSumOfHScaleHeight);

  000be	8b 0f		 mov	 ecx, DWORD PTR [edi]
  000c0	8d 45 d8	 lea	 eax, DWORD PTR _lnSumOfHScaleHeight$[ebp]
  000c3	50		 push	 eax
  000c4	c7 45 fc 00 00
	00 00		 mov	 DWORD PTR __$EHRec$[ebp+8], 0
  000cb	e8 00 00 00 00	 call	 ?GetSumOfHorzScaleHeightForEachBlock@CMainBlockImp@@QAEXAAV?$CList@HH@@@Z ; CMainBlockImp::GetSumOfHorzScaleHeightForEachBlock
; File C:\Program Files (x86)\Microsoft Visual Studio\2019\Community\VC\Tools\MSVC\14.29.30133\atlmfc\include\afxtempl.h

; 811  : 	{ CNode* pNode = (CNode*) rPosition;

  000d0	8b 47 3c	 mov	 eax, DWORD PTR [edi+60]
; File D:\git\src\IBK\IBK_DRFN\ProjSrc\SrcChartEx\ChartOCX\ChartObject\BlocksPosition.cpp

; 144  : 	int nScaleHeightSum = 0;

  000d3	33 d2		 xor	 edx, edx

; 145  : 	POSITION psnRow = m_dlRowRate.GetHeadPosition();
; 146  : 	m_dlRowRate.GetNext( psnRow);	// to skip the first base position 0.
; 147  : 	POSITION psnScaleHeight = lnSumOfHScaleHeight.GetHeadPosition();

  000d5	8b 4d dc	 mov	 ecx, DWORD PTR _lnSumOfHScaleHeight$[ebp+4]
; File C:\Program Files (x86)\Microsoft Visual Studio\2019\Community\VC\Tools\MSVC\14.29.30133\atlmfc\include\afxtempl.h

; 813  : 		rPosition = (POSITION) pNode->pNext;

  000d8	8b 00		 mov	 eax, DWORD PTR [eax]
; File D:\git\src\IBK\IBK_DRFN\ProjSrc\SrcChartEx\ChartOCX\ChartObject\BlocksPosition.cpp

; 148  : 	while( psnRow && psnScaleHeight)

  000da	85 c0		 test	 eax, eax
  000dc	74 23		 je	 SHORT $LN47@MoveBlocks
  000de	66 90		 npad	 2
$LL2@MoveBlocks:
  000e0	85 c9		 test	 ecx, ecx
  000e2	74 1d		 je	 SHORT $LN47@MoveBlocks

; 149  : 	{
; 150  : 		dRowPosition = m_dlRowRate.GetAt( psnRow);
; 151  : 		nScaleHeightSum -= lnSumOfHScaleHeight.GetAt( psnScaleHeight);

  000e4	2b 51 08	 sub	 edx, DWORD PTR [ecx+8]
  000e7	66 0f 6e c2	 movd	 xmm0, edx

; 152  : 		m_dlRowRate.SetAt( psnRow, dRowPosition + nScaleHeightSum);

  000eb	f3 0f e6 c0	 cvtdq2pd xmm0, xmm0
  000ef	f2 0f 58 40 08	 addsd	 xmm0, QWORD PTR [eax+8]
  000f4	f2 0f 11 40 08	 movsd	 QWORD PTR [eax+8], xmm0
; File C:\Program Files (x86)\Microsoft Visual Studio\2019\Community\VC\Tools\MSVC\14.29.30133\atlmfc\include\afxtempl.h

; 813  : 		rPosition = (POSITION) pNode->pNext;

  000f9	8b 00		 mov	 eax, DWORD PTR [eax]
  000fb	8b 09		 mov	 ecx, DWORD PTR [ecx]
; File D:\git\src\IBK\IBK_DRFN\ProjSrc\SrcChartEx\ChartOCX\ChartObject\BlocksPosition.cpp

; 148  : 	while( psnRow && psnScaleHeight)

  000fd	85 c0		 test	 eax, eax
  000ff	75 df		 jne	 SHORT $LL2@MoveBlocks
$LN47@MoveBlocks:
; File C:\Program Files (x86)\Microsoft Visual Studio\2019\Community\VC\Tools\MSVC\14.29.30133\atlmfc\include\afxtempl.h

; 872  : 	m_pBlocks->FreeDataChain();

  00101	8b 4d ec	 mov	 ecx, DWORD PTR _lnSumOfHScaleHeight$[ebp+20]

; 878  : {

  00104	c7 45 fc 01 00
	00 00		 mov	 DWORD PTR __$EHRec$[ebp+8], 1
  0010b	c7 45 d8 00 00
	00 00		 mov	 DWORD PTR _lnSumOfHScaleHeight$[ebp], OFFSET ??_7?$CList@HH@@6B@

; 870  : 	m_nCount = 0;

  00112	c7 45 e4 00 00
	00 00		 mov	 DWORD PTR _lnSumOfHScaleHeight$[ebp+12], 0

; 871  : 	m_pNodeHead = m_pNodeTail = m_pNodeFree = NULL;

  00119	c7 45 e8 00 00
	00 00		 mov	 DWORD PTR _lnSumOfHScaleHeight$[ebp+16], 0
  00120	c7 45 e0 00 00
	00 00		 mov	 DWORD PTR _lnSumOfHScaleHeight$[ebp+8], 0
  00127	c7 45 dc 00 00
	00 00		 mov	 DWORD PTR _lnSumOfHScaleHeight$[ebp+4], 0

; 872  : 	m_pBlocks->FreeDataChain();

  0012e	e8 00 00 00 00	 call	 ?FreeDataChain@CPlex@@QAEXXZ ; CPlex::FreeDataChain
$LN49@MoveBlocks:
; File D:\git\src\IBK\IBK_DRFN\ProjSrc\SrcChartEx\ChartOCX\ChartObject\BlocksPosition.cpp

; 158  : }

  00133	8a c3		 mov	 al, bl
  00135	8b 4d f4	 mov	 ecx, DWORD PTR __$EHRec$[ebp]
  00138	64 89 0d 00 00
	00 00		 mov	 DWORD PTR fs:0, ecx
  0013f	59		 pop	 ecx
  00140	5f		 pop	 edi
  00141	5e		 pop	 esi
  00142	5b		 pop	 ebx
  00143	8b e5		 mov	 esp, ebp
  00145	5d		 pop	 ebp
  00146	c2 10 00	 ret	 16			; 00000010H
_TEXT	ENDS
;	COMDAT text$x
text$x	SEGMENT
__unwindfunclet$?MoveBlocksPosition@CBlocksPositionBase@@IAE_NAAV?$CList@NN@@ABVCPoint@@HH@Z$0:
  00000	8d 4d d8	 lea	 ecx, DWORD PTR _lnSumOfHScaleHeight$[ebp]
  00003	e9 00 00 00 00	 jmp	 ??1?$CList@HH@@UAE@XZ	; CList<int,int>::~CList<int,int>
  00008	cc		 int	 3
  00009	cc		 int	 3
  0000a	cc		 int	 3
  0000b	cc		 int	 3
  0000c	cc		 int	 3
__ehhandler$?MoveBlocksPosition@CBlocksPositionBase@@IAE_NAAV?$CList@NN@@ABVCPoint@@HH@Z:
  0000d	90		 npad	 1
  0000e	90		 npad	 1
  0000f	8b 54 24 08	 mov	 edx, DWORD PTR [esp+8]
  00013	8d 42 0c	 lea	 eax, DWORD PTR [edx+12]
  00016	8b 4a d4	 mov	 ecx, DWORD PTR [edx-44]
  00019	33 c8		 xor	 ecx, eax
  0001b	e8 00 00 00 00	 call	 @__security_check_cookie@4
  00020	b8 00 00 00 00	 mov	 eax, OFFSET __ehfuncinfo$?MoveBlocksPosition@CBlocksPositionBase@@IAE_NAAV?$CList@NN@@ABVCPoint@@HH@Z
  00025	e9 00 00 00 00	 jmp	 ___CxxFrameHandler3
text$x	ENDS
?MoveBlocksPosition@CBlocksPositionBase@@IAE_NAAV?$CList@NN@@ABVCPoint@@HH@Z ENDP ; CBlocksPositionBase::MoveBlocksPosition
; Function compile flags: /Ogtp
; File D:\git\src\IBK\IBK_DRFN\ProjSrc\SrcChartEx\ChartOCX\ChartObject\BlocksPosition.cpp
; File C:\Program Files (x86)\Microsoft Visual Studio\2019\Community\VC\Tools\MSVC\14.29.30133\atlmfc\include\afxtempl.h
; File D:\git\src\IBK\IBK_DRFN\ProjSrc\SrcChartEx\ChartOCX\ChartObject\BlocksPosition.cpp
;	COMDAT ?GetConstRowReal@CBlocksPositionBase@@IBEABV?$CList@NN@@XZ
_TEXT	SEGMENT
?GetConstRowReal@CBlocksPositionBase@@IBEABV?$CList@NN@@XZ PROC ; CBlocksPositionBase::GetConstRowReal, COMDAT
; _this$ = ecx

; 118  : {

  00000	56		 push	 esi
  00001	8b f1		 mov	 esi, ecx
; File C:\Program Files (x86)\Microsoft Visual Studio\2019\Community\VC\Tools\MSVC\14.29.30133\atlmfc\include\afxtempl.h

; 786  : 	{ return m_nCount == 0; }

  00003	83 7e 60 00	 cmp	 DWORD PTR [esi+96], 0
; File D:\git\src\IBK\IBK_DRFN\ProjSrc\SrcChartEx\ChartOCX\ChartObject\BlocksPosition.cpp

; 113  : 	if( m_dlRowReal.IsEmpty()) UpdateRowRealFromRowRate();

  00007	75 05		 jne	 SHORT $LN8@GetConstRo
  00009	e8 00 00 00 00	 call	 ?UpdateRowRealFromRowRate@CBlocksPositionBase@@IAEXXZ ; CBlocksPositionBase::UpdateRowRealFromRowRate
$LN8@GetConstRo:

; 119  : 	CBlocksPositionBase *pThis = ( CBlocksPositionBase *)this;
; 120  : 	return pThis->GetRowReal();
; 121  : }

  0000e	8d 46 54	 lea	 eax, DWORD PTR [esi+84]
  00011	5e		 pop	 esi
  00012	c3		 ret	 0
?GetConstRowReal@CBlocksPositionBase@@IBEABV?$CList@NN@@XZ ENDP ; CBlocksPositionBase::GetConstRowReal
_TEXT	ENDS
; Function compile flags: /Ogtp
; File D:\git\src\IBK\IBK_DRFN\ProjSrc\SrcChartEx\ChartOCX\ChartObject\BlocksPosition.cpp
; File C:\Program Files (x86)\Microsoft Visual Studio\2019\Community\VC\Tools\MSVC\14.29.30133\atlmfc\include\afxtempl.h
; File D:\git\src\IBK\IBK_DRFN\ProjSrc\SrcChartEx\ChartOCX\ChartObject\BlocksPosition.cpp
;	COMDAT ?GetRowReal@CBlocksPositionBase@@IAEAAV?$CList@NN@@XZ
_TEXT	SEGMENT
?GetRowReal@CBlocksPositionBase@@IAEAAV?$CList@NN@@XZ PROC ; CBlocksPositionBase::GetRowReal, COMDAT
; _this$ = ecx

; 112  : {

  00000	56		 push	 esi
  00001	8b f1		 mov	 esi, ecx
; File C:\Program Files (x86)\Microsoft Visual Studio\2019\Community\VC\Tools\MSVC\14.29.30133\atlmfc\include\afxtempl.h

; 786  : 	{ return m_nCount == 0; }

  00003	83 7e 60 00	 cmp	 DWORD PTR [esi+96], 0
; File D:\git\src\IBK\IBK_DRFN\ProjSrc\SrcChartEx\ChartOCX\ChartObject\BlocksPosition.cpp

; 113  : 	if( m_dlRowReal.IsEmpty()) UpdateRowRealFromRowRate();

  00007	75 05		 jne	 SHORT $LN6@GetRowReal
  00009	e8 00 00 00 00	 call	 ?UpdateRowRealFromRowRate@CBlocksPositionBase@@IAEXXZ ; CBlocksPositionBase::UpdateRowRealFromRowRate
$LN6@GetRowReal:

; 114  : 	return m_dlRowReal;
; 115  : }

  0000e	8d 46 54	 lea	 eax, DWORD PTR [esi+84]
  00011	5e		 pop	 esi
  00012	c3		 ret	 0
?GetRowReal@CBlocksPositionBase@@IAEAAV?$CList@NN@@XZ ENDP ; CBlocksPositionBase::GetRowReal
_TEXT	ENDS
; Function compile flags: /Ogtp
; File D:\git\src\IBK\IBK_DRFN\ProjSrc\SrcChartEx\ChartOCX\ChartObject\BlocksPosition.cpp
; File C:\Program Files (x86)\Microsoft Visual Studio\2019\Community\VC\Tools\MSVC\14.29.30133\atlmfc\include\afxtempl.h
; File D:\git\src\IBK\IBK_DRFN\ProjSrc\SrcChartEx\ChartOCX\ChartObject\BlocksPosition.cpp
; File C:\Program Files (x86)\Microsoft Visual Studio\2019\Community\VC\Tools\MSVC\14.29.30133\atlmfc\include\afxtempl.h
; File D:\git\src\IBK\IBK_DRFN\ProjSrc\SrcChartEx\ChartOCX\ChartObject\BlocksPosition.cpp
; File C:\Program Files (x86)\Microsoft Visual Studio\2019\Community\VC\Tools\MSVC\14.29.30133\atlmfc\include\atltypes.h
; File D:\git\src\IBK\IBK_DRFN\ProjSrc\SrcChartEx\ChartOCX\ChartObject\BlocksPosition.cpp
; File C:\Program Files (x86)\Microsoft Visual Studio\2019\Community\VC\Tools\MSVC\14.29.30133\atlmfc\include\afxtempl.h
; File D:\git\src\IBK\IBK_DRFN\ProjSrc\SrcChartEx\ChartOCX\ChartObject\BlocksPosition.cpp
; File C:\Program Files (x86)\Microsoft Visual Studio\2019\Community\VC\Tools\MSVC\14.29.30133\atlmfc\include\afxtempl.h
; File D:\git\src\IBK\IBK_DRFN\ProjSrc\SrcChartEx\ChartOCX\ChartObject\BlocksPosition.cpp
; File C:\Program Files (x86)\Microsoft Visual Studio\2019\Community\VC\Tools\MSVC\14.29.30133\atlmfc\include\atltypes.h
; File D:\git\src\IBK\IBK_DRFN\ProjSrc\SrcChartEx\ChartOCX\ChartObject\BlocksPosition.cpp
; File C:\Program Files (x86)\Microsoft Visual Studio\2019\Community\VC\Tools\MSVC\14.29.30133\atlmfc\include\afxtempl.h
; File D:\git\src\IBK\IBK_DRFN\ProjSrc\SrcChartEx\ChartOCX\ChartObject\BlocksPosition.cpp
; File C:\Program Files (x86)\Microsoft Visual Studio\2019\Community\VC\Tools\MSVC\14.29.30133\atlmfc\include\afxtempl.h
; File D:\git\src\IBK\IBK_DRFN\ProjSrc\SrcChartEx\ChartOCX\ChartObject\BlocksPosition.cpp
; File C:\Program Files (x86)\Microsoft Visual Studio\2019\Community\VC\Tools\MSVC\14.29.30133\atlmfc\include\afxtempl.h
; File D:\git\src\IBK\IBK_DRFN\ProjSrc\SrcChartEx\ChartOCX\ChartObject\BlocksPosition.cpp
; File C:\Program Files (x86)\Microsoft Visual Studio\2019\Community\VC\Tools\MSVC\14.29.30133\atlmfc\include\afxtempl.h
; File D:\git\src\IBK\IBK_DRFN\ProjSrc\SrcChartEx\ChartOCX\ChartObject\BlocksPosition.cpp
; File C:\Program Files (x86)\Microsoft Visual Studio\2019\Community\VC\Tools\MSVC\14.29.30133\atlmfc\include\afxtempl.h
; File D:\git\src\IBK\IBK_DRFN\ProjSrc\SrcChartEx\ChartOCX\ChartObject\BlocksPosition.cpp
; File C:\Program Files (x86)\Microsoft Visual Studio\2019\Community\VC\Tools\MSVC\14.29.30133\atlmfc\include\afxtempl.h
; File D:\git\src\IBK\IBK_DRFN\ProjSrc\SrcChartEx\ChartOCX\ChartObject\BlocksPosition.cpp
; File C:\Program Files (x86)\Microsoft Visual Studio\2019\Community\VC\Tools\MSVC\14.29.30133\atlmfc\include\afxtempl.h
; File D:\git\src\IBK\IBK_DRFN\ProjSrc\SrcChartEx\ChartOCX\ChartObject\BlocksPosition.cpp
; File C:\Program Files (x86)\Microsoft Visual Studio\2019\Community\VC\Tools\MSVC\14.29.30133\atlmfc\include\afxtempl.h
; File D:\git\src\IBK\IBK_DRFN\ProjSrc\SrcChartEx\ChartOCX\ChartObject\BlocksPosition.cpp
; File C:\Program Files (x86)\Microsoft Visual Studio\2019\Community\VC\Tools\MSVC\14.29.30133\atlmfc\include\afxtempl.h
; File D:\git\src\IBK\IBK_DRFN\ProjSrc\SrcChartEx\ChartOCX\ChartObject\BlocksPosition.cpp
; File C:\Program Files (x86)\Microsoft Visual Studio\2019\Community\VC\Tools\MSVC\14.29.30133\atlmfc\include\afxtempl.h
; File D:\git\src\IBK\IBK_DRFN\ProjSrc\SrcChartEx\ChartOCX\ChartObject\BlocksPosition.cpp
;	COMDAT ?UpdateRowRealFromRowRate@CBlocksPositionBase@@IAEXXZ
_TEXT	SEGMENT
_lnSumOfHScaleHeight$ = -48				; size = 28
_lLastData$1$ = -20					; size = 8
__$EHRec$ = -12						; size = 12
?UpdateRowRealFromRowRate@CBlocksPositionBase@@IAEXXZ PROC ; CBlocksPositionBase::UpdateRowRealFromRowRate, COMDAT
; _this$ = ecx

; 47   : {

  00000	55		 push	 ebp
  00001	8b ec		 mov	 ebp, esp
  00003	6a ff		 push	 -1
  00005	68 00 00 00 00	 push	 __ehhandler$?UpdateRowRealFromRowRate@CBlocksPositionBase@@IAEXXZ
  0000a	64 a1 00 00 00
	00		 mov	 eax, DWORD PTR fs:0
  00010	50		 push	 eax
  00011	83 ec 24	 sub	 esp, 36			; 00000024H
  00014	53		 push	 ebx
  00015	56		 push	 esi
  00016	57		 push	 edi
  00017	a1 00 00 00 00	 mov	 eax, DWORD PTR ___security_cookie
  0001c	33 c5		 xor	 eax, ebp
  0001e	50		 push	 eax
  0001f	8d 45 f4	 lea	 eax, DWORD PTR __$EHRec$[ebp]
  00022	64 a3 00 00 00
	00		 mov	 DWORD PTR fs:0, eax
  00028	8b f1		 mov	 esi, ecx

; 48   : 	// 0. Check 0 or 1 Block.
; 49   : 	if( m_dlRowRate.GetCount() < 1) return;

  0002a	83 7e 44 01	 cmp	 DWORD PTR [esi+68], 1
  0002e	0f 8c e3 01 00
	00		 jl	 $LN68@UpdateRowR

; 50   : 	m_dlRowReal.AddTail( &m_dlRowRate);

  00034	8d 46 38	 lea	 eax, DWORD PTR [esi+56]
  00037	8d 4e 54	 lea	 ecx, DWORD PTR [esi+84]
  0003a	50		 push	 eax
  0003b	e8 00 00 00 00	 call	 ?AddTail@?$CList@NN@@QAEXPAV1@@Z ; CList<double,double>::AddTail
; File C:\Program Files (x86)\Microsoft Visual Studio\2019\Community\VC\Tools\MSVC\14.29.30133\atlmfc\include\afxtempl.h

; 851  : {

  00040	c7 45 d0 00 00
	00 00		 mov	 DWORD PTR _lnSumOfHScaleHeight$[ebp], OFFSET ??_7?$CList@HH@@6B@

; 852  : 	ASSERT(nBlockSize > 0);
; 853  : 
; 854  : 	m_nCount = 0;

  00047	c7 45 dc 00 00
	00 00		 mov	 DWORD PTR _lnSumOfHScaleHeight$[ebp+12], 0

; 855  : 	m_pNodeHead = m_pNodeTail = m_pNodeFree = NULL;

  0004e	c7 45 e0 00 00
	00 00		 mov	 DWORD PTR _lnSumOfHScaleHeight$[ebp+16], 0
  00055	c7 45 d8 00 00
	00 00		 mov	 DWORD PTR _lnSumOfHScaleHeight$[ebp+8], 0
  0005c	c7 45 d4 00 00
	00 00		 mov	 DWORD PTR _lnSumOfHScaleHeight$[ebp+4], 0

; 856  : 	m_pBlocks = NULL;

  00063	c7 45 e4 00 00
	00 00		 mov	 DWORD PTR _lnSumOfHScaleHeight$[ebp+20], 0

; 857  : 	m_nBlockSize = nBlockSize;

  0006a	c7 45 e8 0a 00
	00 00		 mov	 DWORD PTR _lnSumOfHScaleHeight$[ebp+24], 10 ; 0000000aH
; File D:\git\src\IBK\IBK_DRFN\ProjSrc\SrcChartEx\ChartOCX\ChartObject\BlocksPosition.cpp

; 54   : 	m_pMainBlock->GetSumOfHorzScaleHeightForEachBlock( lnSumOfHScaleHeight);

  00071	8b 0e		 mov	 ecx, DWORD PTR [esi]
  00073	8d 45 d0	 lea	 eax, DWORD PTR _lnSumOfHScaleHeight$[ebp]
  00076	50		 push	 eax
  00077	c7 45 fc 00 00
	00 00		 mov	 DWORD PTR __$EHRec$[ebp+8], 0
  0007e	e8 00 00 00 00	 call	 ?GetSumOfHorzScaleHeightForEachBlock@CMainBlockImp@@QAEXAAV?$CList@HH@@@Z ; CMainBlockImp::GetSumOfHorzScaleHeightForEachBlock

; 55   : 
; 56   : 	// (2009/9/5 - Seung-Won, Bae) for Invalid Values. (make dummy data. or delete left data.)
; 57   : 	if( lnSumOfHScaleHeight.GetCount() + 1 < m_dlRowReal.GetCount())

  00083	8b 7d dc	 mov	 edi, DWORD PTR _lnSumOfHScaleHeight$[ebp+12]
  00086	8b 5e 60	 mov	 ebx, DWORD PTR [esi+96]
  00089	8d 47 01	 lea	 eax, DWORD PTR [edi+1]
  0008c	3b c3		 cmp	 eax, ebx
  0008e	0f 8d 97 00 00
	00		 jge	 $LN15@UpdateRowR

; 58   : 	{
; 59   : 		int nMoreInfoCount = m_dlRowReal.GetCount() - ( lnSumOfHScaleHeight.GetCount() + 1);

  00094	2b df		 sub	 ebx, edi

; 60   : 		for( int i = 0; i < nMoreInfoCount; i++) m_dlRowReal.RemoveTail();

  00096	33 ff		 xor	 edi, edi
  00098	4b		 dec	 ebx
  00099	85 db		 test	 ebx, ebx
  0009b	7e 65		 jle	 SHORT $LN110@UpdateRowR
  0009d	0f 1f 00	 npad	 3
$LL4@UpdateRowR:
; File C:\Program Files (x86)\Microsoft Visual Studio\2019\Community\VC\Tools\MSVC\14.29.30133\atlmfc\include\afxtempl.h

; 1028 : 	ENSURE(m_pNodeTail != NULL);  // don't call on empty list !!!

  000a0	8b 4e 5c	 mov	 ecx, DWORD PTR [esi+92]
  000a3	85 c9		 test	 ecx, ecx
  000a5	0f 84 7e 01 00
	00		 je	 $LN106@UpdateRowR

; 1029 : 	ASSERT(AfxIsValidAddress(m_pNodeTail, sizeof(CNode)));
; 1030 : 
; 1031 : 	CNode* pOldNode = m_pNodeTail;
; 1032 : 	TYPE returnValue = pOldNode->data;
; 1033 : 
; 1034 : 	m_pNodeTail = pOldNode->pPrev;

  000ab	8b 41 04	 mov	 eax, DWORD PTR [ecx+4]
  000ae	89 46 5c	 mov	 DWORD PTR [esi+92], eax

; 1035 : 	if (m_pNodeTail != NULL)

  000b1	85 c0		 test	 eax, eax
  000b3	74 08		 je	 SHORT $LN31@UpdateRowR

; 1036 : 		m_pNodeTail->pNext = NULL;

  000b5	c7 00 00 00 00
	00		 mov	 DWORD PTR [eax], 0
  000bb	eb 07		 jmp	 SHORT $LN32@UpdateRowR
$LN31@UpdateRowR:

; 1037 : 	else
; 1038 : 		m_pNodeHead = NULL;

  000bd	c7 46 58 00 00
	00 00		 mov	 DWORD PTR [esi+88], 0
$LN32@UpdateRowR:

; 938  : 	pNode->pNext = m_pNodeFree;

  000c4	8b 46 64	 mov	 eax, DWORD PTR [esi+100]
  000c7	89 01		 mov	 DWORD PTR [ecx], eax

; 939  : 	m_pNodeFree = pNode;
; 940  : 	m_nCount--;

  000c9	83 46 60 ff	 add	 DWORD PTR [esi+96], -1
  000cd	89 4e 64	 mov	 DWORD PTR [esi+100], ecx

; 941  : 	ASSERT(m_nCount >= 0);  // make sure we don't underflow
; 942  : 
; 943  : 	// if no more elements, cleanup completely
; 944  : 	if (m_nCount == 0)

  000d0	75 2b		 jne	 SHORT $LN2@UpdateRowR

; 872  : 	m_pBlocks->FreeDataChain();

  000d2	8b 4e 68	 mov	 ecx, DWORD PTR [esi+104]
  000d5	c7 46 60 00 00
	00 00		 mov	 DWORD PTR [esi+96], 0
  000dc	c7 46 64 00 00
	00 00		 mov	 DWORD PTR [esi+100], 0
  000e3	c7 46 5c 00 00
	00 00		 mov	 DWORD PTR [esi+92], 0
  000ea	c7 46 58 00 00
	00 00		 mov	 DWORD PTR [esi+88], 0
  000f1	e8 00 00 00 00	 call	 ?FreeDataChain@CPlex@@QAEXXZ ; CPlex::FreeDataChain

; 873  : 	m_pBlocks = NULL;

  000f6	c7 46 68 00 00
	00 00		 mov	 DWORD PTR [esi+104], 0
$LN2@UpdateRowR:
; File D:\git\src\IBK\IBK_DRFN\ProjSrc\SrcChartEx\ChartOCX\ChartObject\BlocksPosition.cpp

; 60   : 		for( int i = 0; i < nMoreInfoCount; i++) m_dlRowReal.RemoveTail();

  000fd	47		 inc	 edi
  000fe	3b fb		 cmp	 edi, ebx
  00100	7c 9e		 jl	 SHORT $LL4@UpdateRowR
$LN110@UpdateRowR:
; File C:\Program Files (x86)\Microsoft Visual Studio\2019\Community\VC\Tools\MSVC\14.29.30133\atlmfc\include\atltypes.h

; 581  : 	return bottom - top;

  00102	8d 5e 54	 lea	 ebx, DWORD PTR [esi+84]
$LN6@UpdateRowR:
  00105	8b 7e 10	 mov	 edi, DWORD PTR [esi+16]
  00108	2b 7e 08	 sub	 edi, DWORD PTR [esi+8]
; File D:\git\src\IBK\IBK_DRFN\ProjSrc\SrcChartEx\ChartOCX\ChartObject\BlocksPosition.cpp

; 71   : 	if( 0 <= m_biMaximizedBlock.GetRow())

  0010b	83 7e 30 00	 cmp	 DWORD PTR [esi+48], 0
  0010f	7c 70		 jl	 SHORT $LN18@UpdateRowR

; 72   : 	{
; 73   : 		int i = 0;
; 74   : 		POSITION psnRowPos = m_dlRowReal.GetHeadPosition();

  00111	8b 46 58	 mov	 eax, DWORD PTR [esi+88]
  00114	33 c9		 xor	 ecx, ecx

; 75   : 		while( psnRowPos)

  00116	85 c0		 test	 eax, eax
  00118	0f 84 c7 00 00
	00		 je	 $LN107@UpdateRowR
  0011e	0f 57 c9	 xorps	 xmm1, xmm1
$LL8@UpdateRowR:

; 76   : 		{
; 77   : 			if( i <=  m_biMaximizedBlock.GetRow())	m_dlRowReal.SetAt( psnRowPos, 0);

  00121	3b 4e 30	 cmp	 ecx, DWORD PTR [esi+48]
  00124	7f 45		 jg	 SHORT $LN19@UpdateRowR
  00126	0f 28 c1	 movaps	 xmm0, xmm1
  00129	eb 48		 jmp	 SHORT $LN20@UpdateRowR
$LN15@UpdateRowR:

; 61   : 	}
; 62   : 	else if( m_dlRowReal.GetCount() < lnSumOfHScaleHeight.GetCount() + 1)

  0012b	7e d5		 jle	 SHORT $LN110@UpdateRowR
; File C:\Program Files (x86)\Microsoft Visual Studio\2019\Community\VC\Tools\MSVC\14.29.30133\atlmfc\include\afxtempl.h

; 797  : 	{ ENSURE(m_pNodeTail != NULL);

  0012d	8b 46 5c	 mov	 eax, DWORD PTR [esi+92]
; File D:\git\src\IBK\IBK_DRFN\ProjSrc\SrcChartEx\ChartOCX\ChartObject\BlocksPosition.cpp

; 64   : 		int nLessInfoCount = ( lnSumOfHScaleHeight.GetCount() + 1) - m_dlRowReal.GetCount();

  00130	2b fb		 sub	 edi, ebx
  00132	47		 inc	 edi
; File C:\Program Files (x86)\Microsoft Visual Studio\2019\Community\VC\Tools\MSVC\14.29.30133\atlmfc\include\afxtempl.h

; 797  : 	{ ENSURE(m_pNodeTail != NULL);

  00133	85 c0		 test	 eax, eax
  00135	0f 84 ee 00 00
	00		 je	 $LN106@UpdateRowR
; File D:\git\src\IBK\IBK_DRFN\ProjSrc\SrcChartEx\ChartOCX\ChartObject\BlocksPosition.cpp

; 66   : 		for( int i = 0; i < nLessInfoCount; i++) m_dlRowReal.AddTail( lLastData);

  0013b	f2 0f 10 40 08	 movsd	 xmm0, QWORD PTR [eax+8]
  00140	8d 5e 54	 lea	 ebx, DWORD PTR [esi+84]
  00143	f2 0f 11 45 ec	 movsd	 QWORD PTR _lLastData$1$[ebp], xmm0
  00148	85 ff		 test	 edi, edi
  0014a	7e b9		 jle	 SHORT $LN6@UpdateRowR
  0014c	0f 1f 40 00	 npad	 4
$LL7@UpdateRowR:
  00150	83 ec 08	 sub	 esp, 8
  00153	8b cb		 mov	 ecx, ebx
  00155	f2 0f 11 04 24	 movsd	 QWORD PTR [esp], xmm0
  0015a	e8 00 00 00 00	 call	 ?AddTail@?$CList@NN@@QAEPAU__POSITION@@N@Z ; CList<double,double>::AddTail
  0015f	f2 0f 10 45 ec	 movsd	 xmm0, QWORD PTR _lLastData$1$[ebp]
  00164	83 ef 01	 sub	 edi, 1
  00167	75 e7		 jne	 SHORT $LL7@UpdateRowR
; File C:\Program Files (x86)\Microsoft Visual Studio\2019\Community\VC\Tools\MSVC\14.29.30133\atlmfc\include\atltypes.h

; 581  : 	return bottom - top;

  00169	eb 9a		 jmp	 SHORT $LN6@UpdateRowR
$LN19@UpdateRowR:
  0016b	66 0f 6e c7	 movd	 xmm0, edi
; File D:\git\src\IBK\IBK_DRFN\ProjSrc\SrcChartEx\ChartOCX\ChartObject\BlocksPosition.cpp

; 78   : 			else									m_dlRowReal.SetAt( psnRowPos, nRegionHeight);

  0016f	f3 0f e6 c0	 cvtdq2pd xmm0, xmm0
$LN20@UpdateRowR:
; File C:\Program Files (x86)\Microsoft Visual Studio\2019\Community\VC\Tools\MSVC\14.29.30133\atlmfc\include\afxtempl.h

; 813  : 		rPosition = (POSITION) pNode->pNext;

  00173	f2 0f 11 40 08	 movsd	 QWORD PTR [eax+8], xmm0
; File D:\git\src\IBK\IBK_DRFN\ProjSrc\SrcChartEx\ChartOCX\ChartObject\BlocksPosition.cpp

; 80   : 			i++;

  00178	41		 inc	 ecx
; File C:\Program Files (x86)\Microsoft Visual Studio\2019\Community\VC\Tools\MSVC\14.29.30133\atlmfc\include\afxtempl.h

; 813  : 		rPosition = (POSITION) pNode->pNext;

  00179	8b 00		 mov	 eax, DWORD PTR [eax]
; File D:\git\src\IBK\IBK_DRFN\ProjSrc\SrcChartEx\ChartOCX\ChartObject\BlocksPosition.cpp

; 75   : 		while( psnRowPos)

  0017b	85 c0		 test	 eax, eax
  0017d	75 a2		 jne	 SHORT $LL8@UpdateRowR
  0017f	eb 64		 jmp	 SHORT $LN107@UpdateRowR
$LN18@UpdateRowR:

; 81   : 		}
; 82   : 		return;
; 83   : 	}
; 84   : 
; 85   : 	int nFullHScaleHeight = 0;
; 86   : 	POSITION psnScaleHeight = lnSumOfHScaleHeight.GetHeadPosition();

  00181	8b 4d d4	 mov	 ecx, DWORD PTR _lnSumOfHScaleHeight$[ebp+4]
  00184	33 d2		 xor	 edx, edx
  00186	85 c9		 test	 ecx, ecx

; 87   : 	while( psnScaleHeight) nFullHScaleHeight += lnSumOfHScaleHeight.GetNext( psnScaleHeight);

  00188	74 0f		 je	 SHORT $LN11@UpdateRowR
  0018a	66 0f 1f 44 00
	00		 npad	 6
$LL10@UpdateRowR:
  00190	03 51 08	 add	 edx, DWORD PTR [ecx+8]
; File C:\Program Files (x86)\Microsoft Visual Studio\2019\Community\VC\Tools\MSVC\14.29.30133\atlmfc\include\afxtempl.h

; 813  : 		rPosition = (POSITION) pNode->pNext;

  00193	8b 09		 mov	 ecx, DWORD PTR [ecx]
; File D:\git\src\IBK\IBK_DRFN\ProjSrc\SrcChartEx\ChartOCX\ChartObject\BlocksPosition.cpp

; 87   : 	while( psnScaleHeight) nFullHScaleHeight += lnSumOfHScaleHeight.GetNext( psnScaleHeight);

  00195	85 c9		 test	 ecx, ecx
  00197	75 f7		 jne	 SHORT $LL10@UpdateRowR
$LN11@UpdateRowR:
; File C:\Program Files (x86)\Microsoft Visual Studio\2019\Community\VC\Tools\MSVC\14.29.30133\atlmfc\include\afxtempl.h

; 797  : 	{ ENSURE(m_pNodeTail != NULL);

  00199	8b 46 5c	 mov	 eax, DWORD PTR [esi+92]
; File D:\git\src\IBK\IBK_DRFN\ProjSrc\SrcChartEx\ChartOCX\ChartObject\BlocksPosition.cpp

; 90   : 	nRegionHeight -= nFullHScaleHeight;

  0019c	2b fa		 sub	 edi, edx
; File C:\Program Files (x86)\Microsoft Visual Studio\2019\Community\VC\Tools\MSVC\14.29.30133\atlmfc\include\afxtempl.h

; 797  : 	{ ENSURE(m_pNodeTail != NULL);

  0019e	85 c0		 test	 eax, eax
  001a0	0f 84 83 00 00
	00		 je	 $LN106@UpdateRowR
; File D:\git\src\IBK\IBK_DRFN\ProjSrc\SrcChartEx\ChartOCX\ChartObject\BlocksPosition.cpp

; 93   : 	CBlocksPositionCalculator::RecalculatePositions( m_dlRowReal, ( int)m_dlRowReal.GetTail(), nRegionHeight);

  001a6	f2 0f 2c 40 08	 cvttsd2si eax, QWORD PTR [eax+8]
  001ab	57		 push	 edi
  001ac	50		 push	 eax
  001ad	53		 push	 ebx
  001ae	e8 00 00 00 00	 call	 ?RecalculatePositions@CBlocksPositionCalculator@@SAXAAV?$CList@NN@@HH@Z ; CBlocksPositionCalculator::RecalculatePositions
; File C:\Program Files (x86)\Microsoft Visual Studio\2019\Community\VC\Tools\MSVC\14.29.30133\atlmfc\include\afxtempl.h

; 811  : 	{ CNode* pNode = (CNode*) rPosition;

  001b3	8b 46 58	 mov	 eax, DWORD PTR [esi+88]
; File D:\git\src\IBK\IBK_DRFN\ProjSrc\SrcChartEx\ChartOCX\ChartObject\BlocksPosition.cpp

; 93   : 	CBlocksPositionCalculator::RecalculatePositions( m_dlRowReal, ( int)m_dlRowReal.GetTail(), nRegionHeight);

  001b6	83 c4 0c	 add	 esp, 12			; 0000000cH

; 94   : 
; 95   : 	// 4. Add H Scale to Block Region.
; 96   : 	double dRowPosition = 0;
; 97   : 	int nScaleHeightSum = 0;
; 98   : 	POSITION psnRow = m_dlRowReal.GetHeadPosition();
; 99   : 	m_dlRowReal.GetNext( psnRow);	// to skip the first base position 0.
; 100  : 	psnScaleHeight = lnSumOfHScaleHeight.GetHeadPosition();

  001b9	8b 4d d4	 mov	 ecx, DWORD PTR _lnSumOfHScaleHeight$[ebp+4]
  001bc	33 d2		 xor	 edx, edx
; File C:\Program Files (x86)\Microsoft Visual Studio\2019\Community\VC\Tools\MSVC\14.29.30133\atlmfc\include\afxtempl.h

; 813  : 		rPosition = (POSITION) pNode->pNext;

  001be	8b 00		 mov	 eax, DWORD PTR [eax]
; File D:\git\src\IBK\IBK_DRFN\ProjSrc\SrcChartEx\ChartOCX\ChartObject\BlocksPosition.cpp

; 101  : 	while( psnRow && psnScaleHeight)

  001c0	85 c0		 test	 eax, eax
  001c2	74 21		 je	 SHORT $LN107@UpdateRowR
$LL12@UpdateRowR:
  001c4	85 c9		 test	 ecx, ecx
  001c6	74 1d		 je	 SHORT $LN107@UpdateRowR

; 102  : 	{
; 103  : 		dRowPosition = m_dlRowReal.GetAt( psnRow);
; 104  : 		nScaleHeightSum += lnSumOfHScaleHeight.GetAt( psnScaleHeight);

  001c8	03 51 08	 add	 edx, DWORD PTR [ecx+8]
  001cb	66 0f 6e c2	 movd	 xmm0, edx

; 105  : 		m_dlRowReal.SetAt( psnRow, dRowPosition + nScaleHeightSum);

  001cf	f3 0f e6 c0	 cvtdq2pd xmm0, xmm0
  001d3	f2 0f 58 40 08	 addsd	 xmm0, QWORD PTR [eax+8]
  001d8	f2 0f 11 40 08	 movsd	 QWORD PTR [eax+8], xmm0
; File C:\Program Files (x86)\Microsoft Visual Studio\2019\Community\VC\Tools\MSVC\14.29.30133\atlmfc\include\afxtempl.h

; 813  : 		rPosition = (POSITION) pNode->pNext;

  001dd	8b 00		 mov	 eax, DWORD PTR [eax]
  001df	8b 09		 mov	 ecx, DWORD PTR [ecx]
; File D:\git\src\IBK\IBK_DRFN\ProjSrc\SrcChartEx\ChartOCX\ChartObject\BlocksPosition.cpp

; 101  : 	while( psnRow && psnScaleHeight)

  001e1	85 c0		 test	 eax, eax
  001e3	75 df		 jne	 SHORT $LL12@UpdateRowR
$LN107@UpdateRowR:
; File C:\Program Files (x86)\Microsoft Visual Studio\2019\Community\VC\Tools\MSVC\14.29.30133\atlmfc\include\afxtempl.h

; 872  : 	m_pBlocks->FreeDataChain();

  001e5	8b 4d e4	 mov	 ecx, DWORD PTR _lnSumOfHScaleHeight$[ebp+20]

; 878  : {

  001e8	c7 45 fc 01 00
	00 00		 mov	 DWORD PTR __$EHRec$[ebp+8], 1
  001ef	c7 45 d0 00 00
	00 00		 mov	 DWORD PTR _lnSumOfHScaleHeight$[ebp], OFFSET ??_7?$CList@HH@@6B@

; 870  : 	m_nCount = 0;

  001f6	c7 45 dc 00 00
	00 00		 mov	 DWORD PTR _lnSumOfHScaleHeight$[ebp+12], 0

; 871  : 	m_pNodeHead = m_pNodeTail = m_pNodeFree = NULL;

  001fd	c7 45 e0 00 00
	00 00		 mov	 DWORD PTR _lnSumOfHScaleHeight$[ebp+16], 0
  00204	c7 45 d8 00 00
	00 00		 mov	 DWORD PTR _lnSumOfHScaleHeight$[ebp+8], 0
  0020b	c7 45 d4 00 00
	00 00		 mov	 DWORD PTR _lnSumOfHScaleHeight$[ebp+4], 0

; 872  : 	m_pBlocks->FreeDataChain();

  00212	e8 00 00 00 00	 call	 ?FreeDataChain@CPlex@@QAEXXZ ; CPlex::FreeDataChain
$LN68@UpdateRowR:
; File D:\git\src\IBK\IBK_DRFN\ProjSrc\SrcChartEx\ChartOCX\ChartObject\BlocksPosition.cpp

; 109  : }

  00217	8b 4d f4	 mov	 ecx, DWORD PTR __$EHRec$[ebp]
  0021a	64 89 0d 00 00
	00 00		 mov	 DWORD PTR fs:0, ecx
  00221	59		 pop	 ecx
  00222	5f		 pop	 edi
  00223	5e		 pop	 esi
  00224	5b		 pop	 ebx
  00225	8b e5		 mov	 esp, ebp
  00227	5d		 pop	 ebp
  00228	c3		 ret	 0
$LN106@UpdateRowR:
; File C:\Program Files (x86)\Microsoft Visual Studio\2019\Community\VC\Tools\MSVC\14.29.30133\atlmfc\include\afxtempl.h

; 797  : 	{ ENSURE(m_pNodeTail != NULL);

  00229	e8 00 00 00 00	 call	 ?AfxThrowInvalidArgException@@YGXXZ ; AfxThrowInvalidArgException
$LN112@UpdateRowR:
  0022e	cc		 int	 3
_TEXT	ENDS
;	COMDAT text$x
text$x	SEGMENT
__unwindfunclet$?UpdateRowRealFromRowRate@CBlocksPositionBase@@IAEXXZ$0:
  00000	8d 4d d0	 lea	 ecx, DWORD PTR _lnSumOfHScaleHeight$[ebp]
  00003	e9 00 00 00 00	 jmp	 ??1?$CList@HH@@UAE@XZ	; CList<int,int>::~CList<int,int>
  00008	cc		 int	 3
  00009	cc		 int	 3
  0000a	cc		 int	 3
  0000b	cc		 int	 3
  0000c	cc		 int	 3
__ehhandler$?UpdateRowRealFromRowRate@CBlocksPositionBase@@IAEXXZ:
  0000d	90		 npad	 1
  0000e	90		 npad	 1
  0000f	8b 54 24 08	 mov	 edx, DWORD PTR [esp+8]
  00013	8d 42 0c	 lea	 eax, DWORD PTR [edx+12]
  00016	8b 4a cc	 mov	 ecx, DWORD PTR [edx-52]
  00019	33 c8		 xor	 ecx, eax
  0001b	e8 00 00 00 00	 call	 @__security_check_cookie@4
  00020	b8 00 00 00 00	 mov	 eax, OFFSET __ehfuncinfo$?UpdateRowRealFromRowRate@CBlocksPositionBase@@IAEXXZ
  00025	e9 00 00 00 00	 jmp	 ___CxxFrameHandler3
text$x	ENDS
?UpdateRowRealFromRowRate@CBlocksPositionBase@@IAEXXZ ENDP ; CBlocksPositionBase::UpdateRowRealFromRowRate
; Function compile flags: /Ogtp
; File D:\git\src\IBK\IBK_DRFN\ProjSrc\SrcChartEx\ChartOCX\ChartObject\BlocksPosition.cpp
;	COMDAT ?GetRowCount@CBlocksPositionBase@@IBEHXZ
_TEXT	SEGMENT
?GetRowCount@CBlocksPositionBase@@IBEHXZ PROC		; CBlocksPositionBase::GetRowCount, COMDAT
; _this$ = ecx

; 43   : 	return m_dlRowRate.GetCount();

  00000	8b 41 44	 mov	 eax, DWORD PTR [ecx+68]

; 44   : }

  00003	c3		 ret	 0
?GetRowCount@CBlocksPositionBase@@IBEHXZ ENDP		; CBlocksPositionBase::GetRowCount
_TEXT	ENDS
; Function compile flags: /Ogtp
; File D:\git\src\IBK\IBK_DRFN\ProjSrc\SrcChartEx\ChartOCX\ChartObject\BlocksPosition.cpp
; File C:\Program Files (x86)\Microsoft Visual Studio\2019\Community\VC\Tools\MSVC\14.29.30133\atlmfc\include\afxtempl.h
; File D:\git\src\IBK\IBK_DRFN\ProjSrc\SrcChartEx\ChartOCX\ChartObject\BlocksPosition.cpp
;	COMDAT ?GetRowRate@CBlocksPositionBase@@IAEAAV?$CList@NN@@XZ
_TEXT	SEGMENT
?GetRowRate@CBlocksPositionBase@@IAEAAV?$CList@NN@@XZ PROC ; CBlocksPositionBase::GetRowRate, COMDAT
; _this$ = ecx

; 36   : {

  00000	56		 push	 esi
  00001	8b f1		 mov	 esi, ecx
; File C:\Program Files (x86)\Microsoft Visual Studio\2019\Community\VC\Tools\MSVC\14.29.30133\atlmfc\include\afxtempl.h

; 872  : 	m_pBlocks->FreeDataChain();

  00003	8b 4e 68	 mov	 ecx, DWORD PTR [esi+104]
  00006	c7 46 60 00 00
	00 00		 mov	 DWORD PTR [esi+96], 0
  0000d	c7 46 64 00 00
	00 00		 mov	 DWORD PTR [esi+100], 0
  00014	c7 46 5c 00 00
	00 00		 mov	 DWORD PTR [esi+92], 0
  0001b	c7 46 58 00 00
	00 00		 mov	 DWORD PTR [esi+88], 0
  00022	e8 00 00 00 00	 call	 ?FreeDataChain@CPlex@@QAEXXZ ; CPlex::FreeDataChain

; 873  : 	m_pBlocks = NULL;

  00027	c7 46 68 00 00
	00 00		 mov	 DWORD PTR [esi+104], 0
; File D:\git\src\IBK\IBK_DRFN\ProjSrc\SrcChartEx\ChartOCX\ChartObject\BlocksPosition.cpp

; 38   : 	return m_dlRowRate;

  0002e	8d 46 38	 lea	 eax, DWORD PTR [esi+56]
  00031	5e		 pop	 esi

; 39   : }

  00032	c3		 ret	 0
?GetRowRate@CBlocksPositionBase@@IAEAAV?$CList@NN@@XZ ENDP ; CBlocksPositionBase::GetRowRate
_TEXT	ENDS
; Function compile flags: /Ogtp
; File C:\Program Files (x86)\Microsoft Visual Studio\2019\Community\VC\Tools\MSVC\14.29.30133\atlmfc\include\afxtempl.h
; File C:\Program Files (x86)\Microsoft Visual Studio\2019\Community\VC\Tools\MSVC\14.29.30133\atlmfc\include\afx.inl
;	COMDAT ??_G?$CList@NN@@UAEPAXI@Z
_TEXT	SEGMENT
__$EHRec$ = -12						; size = 12
___flags$ = 8						; size = 4
??_G?$CList@NN@@UAEPAXI@Z PROC				; CList<double,double>::`scalar deleting destructor', COMDAT
; _this$ = ecx
  00000	55		 push	 ebp
  00001	8b ec		 mov	 ebp, esp
  00003	6a ff		 push	 -1
  00005	68 00 00 00 00	 push	 __ehhandler$??_G?$CList@NN@@UAEPAXI@Z
  0000a	64 a1 00 00 00
	00		 mov	 eax, DWORD PTR fs:0
  00010	50		 push	 eax
  00011	56		 push	 esi
  00012	a1 00 00 00 00	 mov	 eax, DWORD PTR ___security_cookie
  00017	33 c5		 xor	 eax, ebp
  00019	50		 push	 eax
  0001a	8d 45 f4	 lea	 eax, DWORD PTR __$EHRec$[ebp]
  0001d	64 a3 00 00 00
	00		 mov	 DWORD PTR fs:0, eax
  00023	8b f1		 mov	 esi, ecx
; File C:\Program Files (x86)\Microsoft Visual Studio\2019\Community\VC\Tools\MSVC\14.29.30133\atlmfc\include\afxtempl.h

; 872  : 	m_pBlocks->FreeDataChain();

  00025	8b 4e 14	 mov	 ecx, DWORD PTR [esi+20]

; 878  : {

  00028	c7 45 fc 00 00
	00 00		 mov	 DWORD PTR __$EHRec$[ebp+8], 0
  0002f	c7 06 00 00 00
	00		 mov	 DWORD PTR [esi], OFFSET ??_7?$CList@NN@@6B@

; 870  : 	m_nCount = 0;

  00035	c7 46 0c 00 00
	00 00		 mov	 DWORD PTR [esi+12], 0

; 871  : 	m_pNodeHead = m_pNodeTail = m_pNodeFree = NULL;

  0003c	c7 46 10 00 00
	00 00		 mov	 DWORD PTR [esi+16], 0
  00043	c7 46 08 00 00
	00 00		 mov	 DWORD PTR [esi+8], 0
  0004a	c7 46 04 00 00
	00 00		 mov	 DWORD PTR [esi+4], 0

; 872  : 	m_pBlocks->FreeDataChain();

  00051	e8 00 00 00 00	 call	 ?FreeDataChain@CPlex@@QAEXXZ ; CPlex::FreeDataChain

; 873  : 	m_pBlocks = NULL;

  00056	8b 45 08	 mov	 eax, DWORD PTR ___flags$[ebp]
  00059	c7 46 14 00 00
	00 00		 mov	 DWORD PTR [esi+20], 0
  00060	a8 01		 test	 al, 1
  00062	74 2c		 je	 SHORT $LN22@scalar
  00064	a8 04		 test	 al, 4
  00066	75 1d		 jne	 SHORT $LN3@scalar
; File C:\Program Files (x86)\Microsoft Visual Studio\2019\Community\VC\Tools\MSVC\14.29.30133\atlmfc\include\afx.inl

; 112  : 	{ ::operator delete(p); }

  00068	56		 push	 esi
  00069	e8 00 00 00 00	 call	 ??3@YAXPAX@Z		; operator delete
  0006e	83 c4 04	 add	 esp, 4
  00071	8b c6		 mov	 eax, esi
  00073	8b 4d f4	 mov	 ecx, DWORD PTR __$EHRec$[ebp]
  00076	64 89 0d 00 00
	00 00		 mov	 DWORD PTR fs:0, ecx
  0007d	59		 pop	 ecx
  0007e	5e		 pop	 esi
  0007f	8b e5		 mov	 esp, ebp
  00081	5d		 pop	 ebp
  00082	c2 04 00	 ret	 4
$LN3@scalar:
  00085	6a 1c		 push	 28			; 0000001cH
  00087	56		 push	 esi
  00088	e8 00 00 00 00	 call	 ?__global_delete@@YAXPAXI@Z ; __global_delete
  0008d	83 c4 08	 add	 esp, 8
$LN22@scalar:
  00090	8b c6		 mov	 eax, esi
  00092	8b 4d f4	 mov	 ecx, DWORD PTR __$EHRec$[ebp]
  00095	64 89 0d 00 00
	00 00		 mov	 DWORD PTR fs:0, ecx
  0009c	59		 pop	 ecx
  0009d	5e		 pop	 esi
  0009e	8b e5		 mov	 esp, ebp
  000a0	5d		 pop	 ebp
  000a1	c2 04 00	 ret	 4
  000a4	cc		 int	 3
  000a5	cc		 int	 3
  000a6	cc		 int	 3
  000a7	cc		 int	 3
  000a8	cc		 int	 3
_TEXT	ENDS
;	COMDAT text$x
text$x	SEGMENT
__ehhandler$??_G?$CList@NN@@UAEPAXI@Z:
  00000	90		 npad	 1
  00001	90		 npad	 1
  00002	8b 54 24 08	 mov	 edx, DWORD PTR [esp+8]
  00006	8d 42 0c	 lea	 eax, DWORD PTR [edx+12]
  00009	8b 4a f8	 mov	 ecx, DWORD PTR [edx-8]
  0000c	33 c8		 xor	 ecx, eax
  0000e	e8 00 00 00 00	 call	 @__security_check_cookie@4
  00013	b8 00 00 00 00	 mov	 eax, OFFSET __ehfuncinfo$??_G?$CList@NN@@UAEPAXI@Z
  00018	e9 00 00 00 00	 jmp	 ___CxxFrameHandler3
text$x	ENDS
??_G?$CList@NN@@UAEPAXI@Z ENDP				; CList<double,double>::`scalar deleting destructor'
; Function compile flags: /Ogtp
; File C:\Program Files (x86)\Microsoft Visual Studio\2019\Community\VC\Tools\MSVC\14.29.30133\atlmfc\include\afxtempl.h
; File C:\Program Files (x86)\Microsoft Visual Studio\2019\Community\VC\Tools\MSVC\14.29.30133\atlmfc\include\afx.inl
; File C:\Program Files (x86)\Microsoft Visual Studio\2019\Community\VC\Tools\MSVC\14.29.30133\atlmfc\include\afxtempl.h
; File C:\Program Files (x86)\Microsoft Visual Studio\2019\Community\VC\Tools\MSVC\14.29.30133\atlmfc\include\afx.inl
; File C:\Program Files (x86)\Microsoft Visual Studio\2019\Community\VC\Tools\MSVC\14.29.30133\atlmfc\include\afxtempl.h
; File C:\Program Files (x86)\Microsoft Visual Studio\2019\Community\VC\Tools\MSVC\14.29.30133\atlmfc\include\afx.inl
; File C:\Program Files (x86)\Microsoft Visual Studio\2019\Community\VC\Tools\MSVC\14.29.30133\atlmfc\include\afxtempl.h
; File C:\Program Files (x86)\Microsoft Visual Studio\2019\Community\VC\Tools\MSVC\14.29.30133\atlmfc\include\afx.inl
; File C:\Program Files (x86)\Microsoft Visual Studio\2019\Community\VC\Tools\MSVC\14.29.30133\atlmfc\include\afxtempl.h
; File C:\Program Files (x86)\Microsoft Visual Studio\2019\Community\VC\Tools\MSVC\14.29.30133\atlmfc\include\afx.inl
; File C:\Program Files (x86)\Microsoft Visual Studio\2019\Community\VC\Tools\MSVC\14.29.30133\atlmfc\include\afxtempl.h
; File C:\Program Files (x86)\Microsoft Visual Studio\2019\Community\VC\Tools\MSVC\14.29.30133\atlmfc\include\afx.inl
; File C:\Program Files (x86)\Microsoft Visual Studio\2019\Community\VC\Tools\MSVC\14.29.30133\atlmfc\include\afxtempl.h
;	COMDAT ?Serialize@?$CList@NN@@UAEXAAVCArchive@@@Z
_TEXT	SEGMENT
_newData$1 = -20					; size = 8
_nNewCount$1$ = -12					; size = 4
_pData$1$ = -8						; size = 4
_pNode$1$ = -8						; size = 4
_nElementsLeft$1$ = -4					; size = 4
_this$1$ = -4						; size = 4
_ar$ = 8						; size = 4
?Serialize@?$CList@NN@@UAEXAAVCArchive@@@Z PROC		; CList<double,double>::Serialize, COMDAT
; _this$ = ecx

; 1169 : {

  00000	55		 push	 ebp
  00001	8b ec		 mov	 ebp, esp
  00003	83 ec 14	 sub	 esp, 20			; 00000014H
  00006	53		 push	 ebx
  00007	8b d9		 mov	 ebx, ecx
; File C:\Program Files (x86)\Microsoft Visual Studio\2019\Community\VC\Tools\MSVC\14.29.30133\atlmfc\include\afx.inl

; 212  : 	{ return (m_nMode & CArchive::load) == 0; }

  00009	8b 4d 08	 mov	 ecx, DWORD PTR _ar$[ebp]
; File C:\Program Files (x86)\Microsoft Visual Studio\2019\Community\VC\Tools\MSVC\14.29.30133\atlmfc\include\afxtempl.h

; 1169 : {

  0000c	56		 push	 esi
  0000d	57		 push	 edi
  0000e	89 5d fc	 mov	 DWORD PTR _this$1$[ebp], ebx
; File C:\Program Files (x86)\Microsoft Visual Studio\2019\Community\VC\Tools\MSVC\14.29.30133\atlmfc\include\afx.inl

; 212  : 	{ return (m_nMode & CArchive::load) == 0; }

  00011	8b 41 18	 mov	 eax, DWORD PTR [ecx+24]
  00014	f7 d0		 not	 eax
  00016	a8 01		 test	 al, 1
; File C:\Program Files (x86)\Microsoft Visual Studio\2019\Community\VC\Tools\MSVC\14.29.30133\atlmfc\include\afxtempl.h

; 1174 : 	if (ar.IsStoring())

  00018	0f 84 ae 00 00
	00		 je	 $LN7@Serialize

; 1175 : 	{
; 1176 : 		ar.WriteCount(m_nCount);

  0001e	ff 73 0c	 push	 DWORD PTR [ebx+12]
  00021	e8 00 00 00 00	 call	 ?WriteCount@CArchive@@QAEXK@Z ; CArchive::WriteCount

; 1177 : 		for (CNode* pNode = m_pNodeHead; pNode != NULL; pNode = pNode->pNext)

  00026	8b 43 04	 mov	 eax, DWORD PTR [ebx+4]
  00029	89 45 f8	 mov	 DWORD PTR _pNode$1$[ebp], eax
  0002c	85 c0		 test	 eax, eax
  0002e	0f 84 4d 01 00
	00		 je	 $LN68@Serialize
$LL4@Serialize:

; 1178 : 		{
; 1179 : 			ASSERT(AfxIsValidAddress(pNode, sizeof(CNode)));
; 1180 : 			TYPE* pData;
; 1181 : 			/*
; 1182 : 			 * in some cases the & operator might be overloaded, and we cannot use it to obtain
; 1183 : 			 * the address of a given object.  We then use the following trick to get the address
; 1184 : 			 */
; 1185 : 			pData = reinterpret_cast< TYPE* >( &reinterpret_cast< int& >( static_cast< TYPE& >( pNode->data ) ) );

  00034	8d 58 08	 lea	 ebx, DWORD PTR [eax+8]

; 68   : 	ENSURE(nCount == 0 || pElements != NULL);

  00037	85 db		 test	 ebx, ebx
  00039	0f 84 54 01 00
	00		 je	 $LN60@Serialize
; File C:\Program Files (x86)\Microsoft Visual Studio\2019\Community\VC\Tools\MSVC\14.29.30133\atlmfc\include\afx.inl

; 212  : 	{ return (m_nMode & CArchive::load) == 0; }

  0003f	8b 4d 08	 mov	 ecx, DWORD PTR _ar$[ebp]
  00042	8b 41 18	 mov	 eax, DWORD PTR [ecx+24]
  00045	f7 d0		 not	 eax
  00047	a8 01		 test	 al, 1
; File C:\Program Files (x86)\Microsoft Visual Studio\2019\Community\VC\Tools\MSVC\14.29.30133\atlmfc\include\afxtempl.h

; 73   : 	if (ar.IsStoring())

  00049	74 33		 je	 SHORT $LN21@Serialize

; 74   : 	{
; 75   : 		TYPE* pData;
; 76   : 		UINT_PTR nElementsLeft;
; 77   : 
; 78   : 		nElementsLeft = nCount;

  0004b	b8 01 00 00 00	 mov	 eax, 1
  00050	89 45 fc	 mov	 DWORD PTR _nElementsLeft$1$[ebp], eax
$LL16@Serialize:

; 80   : 		while( nElementsLeft > 0 )
; 81   : 		{
; 82   : 			UINT nElementsToWrite;
; 83   : 
; 84   : 			nElementsToWrite = UINT(__min(nElementsLeft, INT_MAX/sizeof(TYPE)));

  00053	bf ff ff ff 0f	 mov	 edi, 268435455		; 0fffffffH
  00058	3b c7		 cmp	 eax, edi
  0005a	0f 42 f8	 cmovb	 edi, eax

; 85   : 			ar.Write(pData, nElementsToWrite*sizeof(TYPE));

  0005d	8d 34 fd 00 00
	00 00		 lea	 esi, DWORD PTR [edi*8]
  00064	56		 push	 esi
  00065	53		 push	 ebx
  00066	e8 00 00 00 00	 call	 ?Write@CArchive@@QAEXPBXI@Z ; CArchive::Write

; 86   : 			nElementsLeft -= nElementsToWrite;

  0006b	8b 45 fc	 mov	 eax, DWORD PTR _nElementsLeft$1$[ebp]

; 87   : 			pData += nElementsToWrite;

  0006e	03 de		 add	 ebx, esi
  00070	8b 4d 08	 mov	 ecx, DWORD PTR _ar$[ebp]
  00073	2b c7		 sub	 eax, edi
  00075	89 45 fc	 mov	 DWORD PTR _nElementsLeft$1$[ebp], eax
  00078	85 c0		 test	 eax, eax
  0007a	75 d7		 jne	 SHORT $LL16@Serialize

; 88   : 		}
; 89   : 	}

  0007c	eb 35		 jmp	 SHORT $LN2@Serialize
$LN21@Serialize:

; 90   : 	else
; 91   : 	{
; 92   : 		TYPE* pData;
; 93   : 		UINT_PTR nElementsLeft;
; 94   : 
; 95   : 		nElementsLeft = nCount;

  0007e	be 01 00 00 00	 mov	 esi, 1
$LL18@Serialize:

; 98   : 		{
; 99   : 			UINT nElementsToRead;
; 100  : 
; 101  : 			nElementsToRead = UINT(__min(nElementsLeft, INT_MAX/sizeof(TYPE)));

  00083	bf ff ff ff 0f	 mov	 edi, 268435455		; 0fffffffH
  00088	3b f7		 cmp	 esi, edi
  0008a	0f 42 fe	 cmovb	 edi, esi

; 102  : 			ar.EnsureRead(pData, nElementsToRead*sizeof(TYPE));

  0008d	8d 04 fd 00 00
	00 00		 lea	 eax, DWORD PTR [edi*8]
; File C:\Program Files (x86)\Microsoft Visual Studio\2019\Community\VC\Tools\MSVC\14.29.30133\atlmfc\include\afx.inl

; 399  : 	UINT nRead=Read(lpBuf, nCount);

  00094	50		 push	 eax
  00095	53		 push	 ebx
  00096	e8 00 00 00 00	 call	 ?Read@CArchive@@QAEIPAXI@Z ; CArchive::Read

; 400  : 	if(nRead!=nCount)

  0009b	8d 0c fd 00 00
	00 00		 lea	 ecx, DWORD PTR [edi*8]
  000a2	3b c1		 cmp	 eax, ecx
  000a4	0f 85 e0 00 00
	00		 jne	 $LN59@Serialize
; File C:\Program Files (x86)\Microsoft Visual Studio\2019\Community\VC\Tools\MSVC\14.29.30133\atlmfc\include\afxtempl.h

; 97   : 		while( nElementsLeft > 0 )

  000aa	03 d9		 add	 ebx, ecx
  000ac	8b 4d 08	 mov	 ecx, DWORD PTR _ar$[ebp]

; 103  : 			nElementsLeft -= nElementsToRead;

  000af	2b f7		 sub	 esi, edi
  000b1	75 d0		 jne	 SHORT $LL18@Serialize
$LN2@Serialize:

; 1177 : 		for (CNode* pNode = m_pNodeHead; pNode != NULL; pNode = pNode->pNext)

  000b3	8b 45 f8	 mov	 eax, DWORD PTR _pNode$1$[ebp]
  000b6	8b 00		 mov	 eax, DWORD PTR [eax]
  000b8	89 45 f8	 mov	 DWORD PTR _pNode$1$[ebp], eax
  000bb	85 c0		 test	 eax, eax
  000bd	0f 85 71 ff ff
	ff		 jne	 $LL4@Serialize

; 1197 : 		}
; 1198 : 	}
; 1199 : }

  000c3	5f		 pop	 edi
  000c4	5e		 pop	 esi
  000c5	5b		 pop	 ebx
  000c6	8b e5		 mov	 esp, ebp
  000c8	5d		 pop	 ebp
  000c9	c2 04 00	 ret	 4
$LN7@Serialize:

; 1186 : 			SerializeElements<TYPE>(ar, pData, 1);
; 1187 : 		}
; 1188 : 	}
; 1189 : 	else
; 1190 : 	{
; 1191 : 		DWORD_PTR nNewCount = ar.ReadCount();

  000cc	e8 00 00 00 00	 call	 ?ReadCount@CArchive@@QAEKXZ ; CArchive::ReadCount

; 1192 : 		while (nNewCount--)

  000d1	85 c0		 test	 eax, eax
  000d3	0f 84 a8 00 00
	00		 je	 $LN68@Serialize
  000d9	0f 1f 80 00 00
	00 00		 npad	 7
$LL5@Serialize:
  000e0	48		 dec	 eax
  000e1	89 45 f4	 mov	 DWORD PTR _nNewCount$1$[ebp], eax
; File C:\Program Files (x86)\Microsoft Visual Studio\2019\Community\VC\Tools\MSVC\14.29.30133\atlmfc\include\afx.inl

; 212  : 	{ return (m_nMode & CArchive::load) == 0; }

  000e4	8b 45 08	 mov	 eax, DWORD PTR _ar$[ebp]
  000e7	8b 48 18	 mov	 ecx, DWORD PTR [eax+24]
  000ea	f7 d1		 not	 ecx
  000ec	f6 c1 01	 test	 cl, 1
; File C:\Program Files (x86)\Microsoft Visual Studio\2019\Community\VC\Tools\MSVC\14.29.30133\atlmfc\include\afxtempl.h

; 73   : 	if (ar.IsStoring())

  000ef	74 3a		 je	 SHORT $LN42@Serialize

; 79   : 		pData = pElements;

  000f1	8d 4d ec	 lea	 ecx, DWORD PTR _newData$1[ebp]
  000f4	bb 01 00 00 00	 mov	 ebx, 1
  000f9	89 4d f8	 mov	 DWORD PTR _pData$1$[ebp], ecx
  000fc	0f 1f 40 00	 npad	 4
$LL37@Serialize:

; 80   : 		while( nElementsLeft > 0 )
; 81   : 		{
; 82   : 			UINT nElementsToWrite;
; 83   : 
; 84   : 			nElementsToWrite = UINT(__min(nElementsLeft, INT_MAX/sizeof(TYPE)));

  00100	bf ff ff ff 0f	 mov	 edi, 268435455		; 0fffffffH
  00105	3b df		 cmp	 ebx, edi
  00107	0f 42 fb	 cmovb	 edi, ebx

; 85   : 			ar.Write(pData, nElementsToWrite*sizeof(TYPE));

  0010a	8d 34 fd 00 00
	00 00		 lea	 esi, DWORD PTR [edi*8]
  00111	56		 push	 esi
  00112	51		 push	 ecx
  00113	8b c8		 mov	 ecx, eax
  00115	e8 00 00 00 00	 call	 ?Write@CArchive@@QAEXPBXI@Z ; CArchive::Write

; 87   : 			pData += nElementsToWrite;

  0011a	8b 4d f8	 mov	 ecx, DWORD PTR _pData$1$[ebp]
  0011d	8b 45 08	 mov	 eax, DWORD PTR _ar$[ebp]
  00120	03 ce		 add	 ecx, esi
  00122	89 4d f8	 mov	 DWORD PTR _pData$1$[ebp], ecx
  00125	2b df		 sub	 ebx, edi
  00127	75 d7		 jne	 SHORT $LL37@Serialize

; 88   : 		}
; 89   : 	}

  00129	eb 36		 jmp	 SHORT $LN40@Serialize
$LN42@Serialize:

; 90   : 	else
; 91   : 	{
; 92   : 		TYPE* pData;
; 93   : 		UINT_PTR nElementsLeft;
; 94   : 
; 95   : 		nElementsLeft = nCount;

  0012b	be 01 00 00 00	 mov	 esi, 1

; 96   : 		pData = pElements;

  00130	8d 5d ec	 lea	 ebx, DWORD PTR _newData$1[ebp]
$LL39@Serialize:

; 98   : 		{
; 99   : 			UINT nElementsToRead;
; 100  : 
; 101  : 			nElementsToRead = UINT(__min(nElementsLeft, INT_MAX/sizeof(TYPE)));

  00133	bf ff ff ff 0f	 mov	 edi, 268435455		; 0fffffffH
  00138	3b f7		 cmp	 esi, edi
  0013a	0f 42 fe	 cmovb	 edi, esi

; 102  : 			ar.EnsureRead(pData, nElementsToRead*sizeof(TYPE));

  0013d	8d 0c fd 00 00
	00 00		 lea	 ecx, DWORD PTR [edi*8]
; File C:\Program Files (x86)\Microsoft Visual Studio\2019\Community\VC\Tools\MSVC\14.29.30133\atlmfc\include\afx.inl

; 399  : 	UINT nRead=Read(lpBuf, nCount);

  00144	51		 push	 ecx
  00145	53		 push	 ebx
  00146	8b c8		 mov	 ecx, eax
  00148	e8 00 00 00 00	 call	 ?Read@CArchive@@QAEIPAXI@Z ; CArchive::Read

; 400  : 	if(nRead!=nCount)

  0014d	8d 0c fd 00 00
	00 00		 lea	 ecx, DWORD PTR [edi*8]
  00154	3b c1		 cmp	 eax, ecx
  00156	75 32		 jne	 SHORT $LN59@Serialize
; File C:\Program Files (x86)\Microsoft Visual Studio\2019\Community\VC\Tools\MSVC\14.29.30133\atlmfc\include\afxtempl.h

; 104  : 			pData += nElementsToRead;

  00158	8b 45 08	 mov	 eax, DWORD PTR _ar$[ebp]
  0015b	03 d9		 add	 ebx, ecx
  0015d	2b f7		 sub	 esi, edi
  0015f	75 d2		 jne	 SHORT $LL39@Serialize
$LN40@Serialize:

; 1193 : 		{
; 1194 : 			TYPE newData[1];
; 1195 : 			SerializeElements<TYPE>(ar, newData, 1);
; 1196 : 			AddTail(newData[0]);

  00161	f2 0f 10 45 ec	 movsd	 xmm0, QWORD PTR _newData$1[ebp]
  00166	83 ec 08	 sub	 esp, 8
  00169	8b 4d fc	 mov	 ecx, DWORD PTR _this$1$[ebp]
  0016c	f2 0f 11 04 24	 movsd	 QWORD PTR [esp], xmm0
  00171	e8 00 00 00 00	 call	 ?AddTail@?$CList@NN@@QAEPAU__POSITION@@N@Z ; CList<double,double>::AddTail
  00176	8b 45 f4	 mov	 eax, DWORD PTR _nNewCount$1$[ebp]
  00179	85 c0		 test	 eax, eax
  0017b	0f 85 5f ff ff
	ff		 jne	 $LL5@Serialize
$LN68@Serialize:
  00181	5f		 pop	 edi

; 1197 : 		}
; 1198 : 	}
; 1199 : }

  00182	5e		 pop	 esi
  00183	5b		 pop	 ebx
  00184	8b e5		 mov	 esp, ebp
  00186	5d		 pop	 ebp
  00187	c2 04 00	 ret	 4
$LN59@Serialize:
  0018a	6a 00		 push	 0
  0018c	6a 03		 push	 3
  0018e	e8 00 00 00 00	 call	 ?AfxThrowArchiveException@@YGXHPBD@Z ; AfxThrowArchiveException
$LN60@Serialize:

; 68   : 	ENSURE(nCount == 0 || pElements != NULL);

  00193	e8 00 00 00 00	 call	 ?AfxThrowInvalidArgException@@YGXXZ ; AfxThrowInvalidArgException
$LN85@Serialize:
  00198	cc		 int	 3
?Serialize@?$CList@NN@@UAEXAAVCArchive@@@Z ENDP		; CList<double,double>::Serialize
_TEXT	ENDS
; Function compile flags: /Ogtp
; File C:\Program Files (x86)\Microsoft Visual Studio\2019\Community\VC\Tools\MSVC\14.29.30133\atlmfc\include\afxtempl.h
;	COMDAT ??1?$CList@NN@@UAE@XZ
_TEXT	SEGMENT
__$EHRec$ = -12						; size = 12
??1?$CList@NN@@UAE@XZ PROC				; CList<double,double>::~CList<double,double>, COMDAT
; _this$ = ecx

; 878  : {

  00000	55		 push	 ebp
  00001	8b ec		 mov	 ebp, esp
  00003	6a ff		 push	 -1
  00005	68 00 00 00 00	 push	 __ehhandler$??1?$CList@NN@@UAE@XZ
  0000a	64 a1 00 00 00
	00		 mov	 eax, DWORD PTR fs:0
  00010	50		 push	 eax
  00011	56		 push	 esi
  00012	a1 00 00 00 00	 mov	 eax, DWORD PTR ___security_cookie
  00017	33 c5		 xor	 eax, ebp
  00019	50		 push	 eax
  0001a	8d 45 f4	 lea	 eax, DWORD PTR __$EHRec$[ebp]
  0001d	64 a3 00 00 00
	00		 mov	 DWORD PTR fs:0, eax
  00023	8b f1		 mov	 esi, ecx

; 872  : 	m_pBlocks->FreeDataChain();

  00025	8b 4e 14	 mov	 ecx, DWORD PTR [esi+20]

; 878  : {

  00028	c7 06 00 00 00
	00		 mov	 DWORD PTR [esi], OFFSET ??_7?$CList@NN@@6B@

; 870  : 	m_nCount = 0;

  0002e	c7 46 0c 00 00
	00 00		 mov	 DWORD PTR [esi+12], 0

; 871  : 	m_pNodeHead = m_pNodeTail = m_pNodeFree = NULL;

  00035	c7 46 10 00 00
	00 00		 mov	 DWORD PTR [esi+16], 0
  0003c	c7 46 08 00 00
	00 00		 mov	 DWORD PTR [esi+8], 0
  00043	c7 46 04 00 00
	00 00		 mov	 DWORD PTR [esi+4], 0

; 872  : 	m_pBlocks->FreeDataChain();

  0004a	e8 00 00 00 00	 call	 ?FreeDataChain@CPlex@@QAEXXZ ; CPlex::FreeDataChain

; 873  : 	m_pBlocks = NULL;

  0004f	c7 46 14 00 00
	00 00		 mov	 DWORD PTR [esi+20], 0

; 879  : 	RemoveAll();
; 880  : 	ASSERT(m_nCount == 0);
; 881  : }

  00056	8b 4d f4	 mov	 ecx, DWORD PTR __$EHRec$[ebp]
  00059	64 89 0d 00 00
	00 00		 mov	 DWORD PTR fs:0, ecx
  00060	59		 pop	 ecx
  00061	5e		 pop	 esi
  00062	8b e5		 mov	 esp, ebp
  00064	5d		 pop	 ebp
  00065	c3		 ret	 0
  00066	cc		 int	 3
  00067	cc		 int	 3
  00068	cc		 int	 3
  00069	cc		 int	 3
  0006a	cc		 int	 3
_TEXT	ENDS
;	COMDAT text$x
text$x	SEGMENT
__ehhandler$??1?$CList@NN@@UAE@XZ:
  00000	90		 npad	 1
  00001	90		 npad	 1
  00002	8b 54 24 08	 mov	 edx, DWORD PTR [esp+8]
  00006	8d 42 0c	 lea	 eax, DWORD PTR [edx+12]
  00009	8b 4a f8	 mov	 ecx, DWORD PTR [edx-8]
  0000c	33 c8		 xor	 ecx, eax
  0000e	e8 00 00 00 00	 call	 @__security_check_cookie@4
  00013	b8 00 00 00 00	 mov	 eax, OFFSET __ehfuncinfo$??1?$CList@NN@@UAE@XZ
  00018	e9 00 00 00 00	 jmp	 ___CxxFrameHandler3
text$x	ENDS
??1?$CList@NN@@UAE@XZ ENDP				; CList<double,double>::~CList<double,double>
; Function compile flags: /Ogtp
; File C:\Program Files (x86)\Microsoft Visual Studio\2019\Community\VC\Tools\MSVC\14.29.30133\atlmfc\include\afxtempl.h
;	COMDAT ?FreeNode@?$CList@NN@@IAEXPAUCNode@1@@Z
_TEXT	SEGMENT
_pNode$ = 8						; size = 4
?FreeNode@?$CList@NN@@IAEXPAUCNode@1@@Z PROC		; CList<double,double>::FreeNode, COMDAT
; _this$ = ecx

; 936  : {

  00000	55		 push	 ebp
  00001	8b ec		 mov	 ebp, esp

; 937  : 	pNode->data.~TYPE();
; 938  : 	pNode->pNext = m_pNodeFree;

  00003	8b 55 08	 mov	 edx, DWORD PTR _pNode$[ebp]
  00006	56		 push	 esi
  00007	8b f1		 mov	 esi, ecx
  00009	8b 46 10	 mov	 eax, DWORD PTR [esi+16]
  0000c	89 02		 mov	 DWORD PTR [edx], eax

; 939  : 	m_pNodeFree = pNode;
; 940  : 	m_nCount--;

  0000e	83 46 0c ff	 add	 DWORD PTR [esi+12], -1
  00012	89 56 10	 mov	 DWORD PTR [esi+16], edx

; 941  : 	ASSERT(m_nCount >= 0);  // make sure we don't underflow
; 942  : 
; 943  : 	// if no more elements, cleanup completely
; 944  : 	if (m_nCount == 0)

  00015	75 2b		 jne	 SHORT $LN2@FreeNode

; 872  : 	m_pBlocks->FreeDataChain();

  00017	8b 4e 14	 mov	 ecx, DWORD PTR [esi+20]
  0001a	c7 46 0c 00 00
	00 00		 mov	 DWORD PTR [esi+12], 0
  00021	c7 46 10 00 00
	00 00		 mov	 DWORD PTR [esi+16], 0
  00028	c7 46 08 00 00
	00 00		 mov	 DWORD PTR [esi+8], 0
  0002f	c7 46 04 00 00
	00 00		 mov	 DWORD PTR [esi+4], 0
  00036	e8 00 00 00 00	 call	 ?FreeDataChain@CPlex@@QAEXXZ ; CPlex::FreeDataChain

; 873  : 	m_pBlocks = NULL;

  0003b	c7 46 14 00 00
	00 00		 mov	 DWORD PTR [esi+20], 0
$LN2@FreeNode:
  00042	5e		 pop	 esi

; 945  : 		RemoveAll();
; 946  : }

  00043	5d		 pop	 ebp
  00044	c2 04 00	 ret	 4
?FreeNode@?$CList@NN@@IAEXPAUCNode@1@@Z ENDP		; CList<double,double>::FreeNode
_TEXT	ENDS
; Function compile flags: /Ogtp
; File C:\Program Files (x86)\Microsoft Visual Studio\2019\Community\VC\Tools\MSVC\14.29.30133\atlmfc\include\afxtempl.h
;	COMDAT ?NewNode@?$CList@NN@@IAEPAUCNode@1@PAU21@0@Z
_TEXT	SEGMENT
_pPrev$ = 8						; size = 4
_pNext$ = 12						; size = 4
?NewNode@?$CList@NN@@IAEPAUCNode@1@PAU21@0@Z PROC	; CList<double,double>::NewNode, COMDAT
; _this$ = ecx

; 901  : {

  00000	55		 push	 ebp
  00001	8b ec		 mov	 ebp, esp
  00003	56		 push	 esi
  00004	8b f1		 mov	 esi, ecx

; 902  : 	if (m_pNodeFree == NULL)

  00006	83 7e 10 00	 cmp	 DWORD PTR [esi+16], 0
  0000a	75 34		 jne	 SHORT $LN7@NewNode

; 903  : 	{
; 904  : 		// add another block
; 905  : 		CPlex* pNewBlock = CPlex::Create(m_pBlocks, m_nBlockSize,

  0000c	6a 10		 push	 16			; 00000010H
  0000e	ff 76 18	 push	 DWORD PTR [esi+24]
  00011	8d 46 14	 lea	 eax, DWORD PTR [esi+20]
  00014	50		 push	 eax
  00015	e8 00 00 00 00	 call	 ?Create@CPlex@@SGPAU1@AAPAU1@II@Z ; CPlex::Create

; 906  : 				 sizeof(CNode));
; 907  : 
; 908  : 		// chain them into free list
; 909  : 		CNode* pNode = (CNode*) pNewBlock->data();
; 910  : 		// free in reverse order to make it easier to debug
; 911  : 		pNode += m_nBlockSize - 1;

  0001a	8b 56 18	 mov	 edx, DWORD PTR [esi+24]
  0001d	83 c0 08	 add	 eax, 8
  00020	8b ca		 mov	 ecx, edx
  00022	c1 e1 04	 shl	 ecx, 4
  00025	83 c1 f0	 add	 ecx, -16		; fffffff0H
  00028	03 c1		 add	 eax, ecx

; 912  : 		for (INT_PTR i = m_nBlockSize-1; i >= 0; i--, pNode--)

  0002a	83 c2 ff	 add	 edx, -1
  0002d	78 11		 js	 SHORT $LN7@NewNode
  0002f	90		 npad	 1
$LL4@NewNode:

; 913  : 		{
; 914  : 			pNode->pNext = m_pNodeFree;

  00030	8b 4e 10	 mov	 ecx, DWORD PTR [esi+16]
  00033	89 08		 mov	 DWORD PTR [eax], ecx

; 915  : 			m_pNodeFree = pNode;

  00035	89 46 10	 mov	 DWORD PTR [esi+16], eax
  00038	83 e8 10	 sub	 eax, 16			; 00000010H
  0003b	83 ea 01	 sub	 edx, 1
  0003e	79 f0		 jns	 SHORT $LL4@NewNode
$LN7@NewNode:

; 916  : 		}
; 917  : 	}
; 918  : 	ENSURE(m_pNodeFree != NULL);  // we must have something

  00040	8b 46 10	 mov	 eax, DWORD PTR [esi+16]
  00043	85 c0		 test	 eax, eax
  00045	74 18		 je	 SHORT $LN17@NewNode

; 919  : 
; 920  : 	CList::CNode* pNode = m_pNodeFree;
; 921  : 	m_pNodeFree = m_pNodeFree->pNext;

  00047	8b 08		 mov	 ecx, DWORD PTR [eax]
  00049	89 4e 10	 mov	 DWORD PTR [esi+16], ecx

; 922  : 	pNode->pPrev = pPrev;

  0004c	8b 4d 08	 mov	 ecx, DWORD PTR _pPrev$[ebp]
  0004f	89 48 04	 mov	 DWORD PTR [eax+4], ecx

; 923  : 	pNode->pNext = pNext;

  00052	8b 4d 0c	 mov	 ecx, DWORD PTR _pNext$[ebp]
  00055	89 08		 mov	 DWORD PTR [eax], ecx

; 924  : 	m_nCount++;

  00057	ff 46 0c	 inc	 DWORD PTR [esi+12]

; 925  : 	ASSERT(m_nCount > 0);  // make sure we don't overflow
; 926  : 
; 927  : #pragma push_macro("new")
; 928  : #undef new
; 929  : 	::new( (void*)( &pNode->data ) ) TYPE;
; 930  : #pragma pop_macro("new")
; 931  : 	return pNode;

  0005a	5e		 pop	 esi

; 932  : }

  0005b	5d		 pop	 ebp
  0005c	c2 08 00	 ret	 8
$LN17@NewNode:

; 916  : 		}
; 917  : 	}
; 918  : 	ENSURE(m_pNodeFree != NULL);  // we must have something

  0005f	e8 00 00 00 00	 call	 ?AfxThrowInvalidArgException@@YGXXZ ; AfxThrowInvalidArgException
$LN15@NewNode:
  00064	cc		 int	 3
?NewNode@?$CList@NN@@IAEPAUCNode@1@PAU21@0@Z ENDP	; CList<double,double>::NewNode
_TEXT	ENDS
; Function compile flags: /Ogtp
; File C:\Program Files (x86)\Microsoft Visual Studio\2019\Community\VC\Tools\MSVC\14.29.30133\atlmfc\include\afxtempl.h
;	COMDAT ?RemoveAll@?$CList@NN@@QAEXXZ
_TEXT	SEGMENT
?RemoveAll@?$CList@NN@@QAEXXZ PROC			; CList<double,double>::RemoveAll, COMDAT
; _this$ = ecx

; 862  : {

  00000	56		 push	 esi
  00001	8b f1		 mov	 esi, ecx

; 863  : 	ASSERT_VALID(this);
; 864  : 
; 865  : 	// destroy elements
; 866  : 	CNode* pNode;
; 867  : 	for (pNode = m_pNodeHead; pNode != NULL; pNode = pNode->pNext)
; 868  : 		pNode->data.~TYPE();
; 869  : 
; 870  : 	m_nCount = 0;
; 871  : 	m_pNodeHead = m_pNodeTail = m_pNodeFree = NULL;
; 872  : 	m_pBlocks->FreeDataChain();

  00003	8b 4e 14	 mov	 ecx, DWORD PTR [esi+20]
  00006	c7 46 0c 00 00
	00 00		 mov	 DWORD PTR [esi+12], 0
  0000d	c7 46 10 00 00
	00 00		 mov	 DWORD PTR [esi+16], 0
  00014	c7 46 08 00 00
	00 00		 mov	 DWORD PTR [esi+8], 0
  0001b	c7 46 04 00 00
	00 00		 mov	 DWORD PTR [esi+4], 0
  00022	e8 00 00 00 00	 call	 ?FreeDataChain@CPlex@@QAEXXZ ; CPlex::FreeDataChain

; 873  : 	m_pBlocks = NULL;

  00027	c7 46 14 00 00
	00 00		 mov	 DWORD PTR [esi+20], 0
  0002e	5e		 pop	 esi

; 874  : }

  0002f	c3		 ret	 0
?RemoveAll@?$CList@NN@@QAEXXZ ENDP			; CList<double,double>::RemoveAll
_TEXT	ENDS
; Function compile flags: /Ogtp
; File C:\Program Files (x86)\Microsoft Visual Studio\2019\Community\VC\Tools\MSVC\14.29.30133\atlmfc\include\afxtempl.h
;	COMDAT ?AddTail@?$CList@NN@@QAEXPAV1@@Z
_TEXT	SEGMENT
_newElement$1$ = -8					; size = 8
$T1 = 8							; size = 4
_pNewList$ = 8						; size = 4
?AddTail@?$CList@NN@@QAEXPAV1@@Z PROC			; CList<double,double>::AddTail, COMDAT
; _this$ = ecx

; 994  : {

  00000	55		 push	 ebp
  00001	8b ec		 mov	 ebp, esp
  00003	83 ec 08	 sub	 esp, 8
  00006	53		 push	 ebx

; 995  : 	ASSERT_VALID(this);
; 996  : 	ENSURE(pNewList != NULL);

  00007	8b 5d 08	 mov	 ebx, DWORD PTR _pNewList$[ebp]
  0000a	56		 push	 esi
  0000b	8b f1		 mov	 esi, ecx
  0000d	85 db		 test	 ebx, ebx
  0000f	0f 84 bb 00 00
	00		 je	 $LN29@AddTail

; 997  : 	ASSERT_VALID(pNewList);
; 998  : 
; 999  : 	// add a list of same elements
; 1000 : 	POSITION pos = pNewList->GetHeadPosition();

  00015	8b 5b 04	 mov	 ebx, DWORD PTR [ebx+4]

; 1001 : 	while (pos != NULL)

  00018	85 db		 test	 ebx, ebx
  0001a	0f 84 a8 00 00
	00		 je	 $LN39@AddTail
  00020	8b 4e 08	 mov	 ecx, DWORD PTR [esi+8]
  00023	89 4d 08	 mov	 DWORD PTR $T1[ebp], ecx
  00026	57		 push	 edi
  00027	66 0f 1f 84 00
	00 00 00 00	 npad	 9
$LL5@AddTail:

; 1002 : 		AddTail(pNewList->GetNext(pos));

  00030	f2 0f 10 43 08	 movsd	 xmm0, QWORD PTR [ebx+8]

; 811  : 	{ CNode* pNode = (CNode*) rPosition;

  00035	8d 03		 lea	 eax, DWORD PTR [ebx]

; 902  : 	if (m_pNodeFree == NULL)

  00037	8b 56 10	 mov	 edx, DWORD PTR [esi+16]

; 813  : 		rPosition = (POSITION) pNode->pNext;

  0003a	8b 1b		 mov	 ebx, DWORD PTR [ebx]

; 1002 : 		AddTail(pNewList->GetNext(pos));

  0003c	f2 0f 11 45 f8	 movsd	 QWORD PTR _newElement$1$[ebp], xmm0

; 902  : 	if (m_pNodeFree == NULL)

  00041	85 d2		 test	 edx, edx
  00043	75 4e		 jne	 SHORT $LN37@AddTail

; 903  : 	{
; 904  : 		// add another block
; 905  : 		CPlex* pNewBlock = CPlex::Create(m_pBlocks, m_nBlockSize,

  00045	6a 10		 push	 16			; 00000010H
  00047	ff 76 18	 push	 DWORD PTR [esi+24]
  0004a	8d 46 14	 lea	 eax, DWORD PTR [esi+20]
  0004d	50		 push	 eax
  0004e	e8 00 00 00 00	 call	 ?Create@CPlex@@SGPAU1@AAPAU1@II@Z ; CPlex::Create

; 906  : 				 sizeof(CNode));
; 907  : 
; 908  : 		// chain them into free list
; 909  : 		CNode* pNode = (CNode*) pNewBlock->data();
; 910  : 		// free in reverse order to make it easier to debug
; 911  : 		pNode += m_nBlockSize - 1;

  00053	8b 56 18	 mov	 edx, DWORD PTR [esi+24]
  00056	83 c0 08	 add	 eax, 8
  00059	8b ca		 mov	 ecx, edx
  0005b	c1 e1 04	 shl	 ecx, 4
  0005e	83 c1 f0	 add	 ecx, -16		; fffffff0H

; 912  : 		for (INT_PTR i = m_nBlockSize-1; i >= 0; i--, pNode--)

  00061	8d 7a ff	 lea	 edi, DWORD PTR [edx-1]
  00064	03 c8		 add	 ecx, eax
  00066	85 ff		 test	 edi, edi
  00068	78 1a		 js	 SHORT $LN38@AddTail
  0006a	66 0f 1f 44 00
	00		 npad	 6
$LL18@AddTail:

; 913  : 		{
; 914  : 			pNode->pNext = m_pNodeFree;

  00070	8b 46 10	 mov	 eax, DWORD PTR [esi+16]
  00073	8b d1		 mov	 edx, ecx
  00075	89 01		 mov	 DWORD PTR [ecx], eax

; 915  : 			m_pNodeFree = pNode;

  00077	89 4e 10	 mov	 DWORD PTR [esi+16], ecx
  0007a	83 e9 10	 sub	 ecx, 16			; 00000010H
  0007d	83 ef 01	 sub	 edi, 1
  00080	79 ee		 jns	 SHORT $LL18@AddTail
  00082	eb 03		 jmp	 SHORT $LN21@AddTail
$LN38@AddTail:
  00084	8b 56 10	 mov	 edx, DWORD PTR [esi+16]
$LN21@AddTail:

; 916  : 		}
; 917  : 	}
; 918  : 	ENSURE(m_pNodeFree != NULL);  // we must have something

  00087	85 d2		 test	 edx, edx
  00089	74 45		 je	 SHORT $LN29@AddTail
  0008b	f2 0f 10 45 f8	 movsd	 xmm0, QWORD PTR _newElement$1$[ebp]
  00090	8b 4d 08	 mov	 ecx, DWORD PTR $T1[ebp]
$LN37@AddTail:

; 919  : 
; 920  : 	CList::CNode* pNode = m_pNodeFree;
; 921  : 	m_pNodeFree = m_pNodeFree->pNext;

  00093	8b 02		 mov	 eax, DWORD PTR [edx]
  00095	89 46 10	 mov	 DWORD PTR [esi+16], eax

; 922  : 	pNode->pPrev = pPrev;

  00098	89 4a 04	 mov	 DWORD PTR [edx+4], ecx

; 923  : 	pNode->pNext = pNext;

  0009b	c7 02 00 00 00
	00		 mov	 DWORD PTR [edx], 0

; 924  : 	m_nCount++;

  000a1	ff 46 0c	 inc	 DWORD PTR [esi+12]

; 969  : 	pNewNode->data = newElement;

  000a4	f2 0f 11 42 08	 movsd	 QWORD PTR [edx+8], xmm0

; 970  : 	if (m_pNodeTail != NULL)

  000a9	8b 46 08	 mov	 eax, DWORD PTR [esi+8]
  000ac	85 c0		 test	 eax, eax
  000ae	74 04		 je	 SHORT $LN12@AddTail

; 971  : 		m_pNodeTail->pNext = pNewNode;

  000b0	89 10		 mov	 DWORD PTR [eax], edx
  000b2	eb 03		 jmp	 SHORT $LN13@AddTail
$LN12@AddTail:

; 972  : 	else
; 973  : 		m_pNodeHead = pNewNode;

  000b4	89 56 04	 mov	 DWORD PTR [esi+4], edx
$LN13@AddTail:

; 974  : 	m_pNodeTail = pNewNode;

  000b7	89 56 08	 mov	 DWORD PTR [esi+8], edx
  000ba	8b ca		 mov	 ecx, edx
  000bc	89 4d 08	 mov	 DWORD PTR $T1[ebp], ecx

; 1001 : 	while (pos != NULL)

  000bf	85 db		 test	 ebx, ebx
  000c1	0f 85 69 ff ff
	ff		 jne	 $LL5@AddTail
  000c7	5f		 pop	 edi
$LN39@AddTail:
  000c8	5e		 pop	 esi

; 1003 : }

  000c9	5b		 pop	 ebx
  000ca	8b e5		 mov	 esp, ebp
  000cc	5d		 pop	 ebp
  000cd	c2 04 00	 ret	 4
$LN29@AddTail:

; 918  : 	ENSURE(m_pNodeFree != NULL);  // we must have something

  000d0	e8 00 00 00 00	 call	 ?AfxThrowInvalidArgException@@YGXXZ ; AfxThrowInvalidArgException
$LN41@AddTail:
  000d5	cc		 int	 3
?AddTail@?$CList@NN@@QAEXPAV1@@Z ENDP			; CList<double,double>::AddTail
_TEXT	ENDS
; Function compile flags: /Ogtp
; File C:\Program Files (x86)\Microsoft Visual Studio\2019\Community\VC\Tools\MSVC\14.29.30133\atlmfc\include\afxtempl.h
;	COMDAT ?AddTail@?$CList@NN@@QAEPAU__POSITION@@N@Z
_TEXT	SEGMENT
_newElement$ = 8					; size = 8
?AddTail@?$CList@NN@@QAEPAU__POSITION@@N@Z PROC		; CList<double,double>::AddTail, COMDAT
; _this$ = ecx

; 965  : {

  00000	55		 push	 ebp
  00001	8b ec		 mov	 ebp, esp
  00003	56		 push	 esi
  00004	8b f1		 mov	 esi, ecx
  00006	57		 push	 edi

; 902  : 	if (m_pNodeFree == NULL)

  00007	83 7e 10 00	 cmp	 DWORD PTR [esi+16], 0

; 966  : 	ASSERT_VALID(this);
; 967  : 
; 968  : 	CNode* pNewNode = NewNode(m_pNodeTail, NULL);

  0000b	8b 7e 08	 mov	 edi, DWORD PTR [esi+8]

; 902  : 	if (m_pNodeFree == NULL)

  0000e	75 33		 jne	 SHORT $LN11@AddTail

; 903  : 	{
; 904  : 		// add another block
; 905  : 		CPlex* pNewBlock = CPlex::Create(m_pBlocks, m_nBlockSize,

  00010	6a 10		 push	 16			; 00000010H
  00012	ff 76 18	 push	 DWORD PTR [esi+24]
  00015	8d 46 14	 lea	 eax, DWORD PTR [esi+20]
  00018	50		 push	 eax
  00019	e8 00 00 00 00	 call	 ?Create@CPlex@@SGPAU1@AAPAU1@II@Z ; CPlex::Create

; 906  : 				 sizeof(CNode));
; 907  : 
; 908  : 		// chain them into free list
; 909  : 		CNode* pNode = (CNode*) pNewBlock->data();
; 910  : 		// free in reverse order to make it easier to debug
; 911  : 		pNode += m_nBlockSize - 1;

  0001e	8b 56 18	 mov	 edx, DWORD PTR [esi+24]
  00021	83 c0 08	 add	 eax, 8
  00024	8b ca		 mov	 ecx, edx
  00026	c1 e1 04	 shl	 ecx, 4
  00029	83 c1 f0	 add	 ecx, -16		; fffffff0H
  0002c	03 c8		 add	 ecx, eax

; 912  : 		for (INT_PTR i = m_nBlockSize-1; i >= 0; i--, pNode--)

  0002e	83 c2 ff	 add	 edx, -1
  00031	78 10		 js	 SHORT $LN11@AddTail
$LL8@AddTail:

; 913  : 		{
; 914  : 			pNode->pNext = m_pNodeFree;

  00033	8b 46 10	 mov	 eax, DWORD PTR [esi+16]
  00036	89 01		 mov	 DWORD PTR [ecx], eax

; 915  : 			m_pNodeFree = pNode;

  00038	89 4e 10	 mov	 DWORD PTR [esi+16], ecx
  0003b	83 e9 10	 sub	 ecx, 16			; 00000010H
  0003e	83 ea 01	 sub	 edx, 1
  00041	79 f0		 jns	 SHORT $LL8@AddTail
$LN11@AddTail:

; 916  : 		}
; 917  : 	}
; 918  : 	ENSURE(m_pNodeFree != NULL);  // we must have something

  00043	8b 4e 10	 mov	 ecx, DWORD PTR [esi+16]
  00046	85 c9		 test	 ecx, ecx
  00048	74 3d		 je	 SHORT $LN22@AddTail

; 919  : 
; 920  : 	CList::CNode* pNode = m_pNodeFree;
; 921  : 	m_pNodeFree = m_pNodeFree->pNext;

  0004a	8b 01		 mov	 eax, DWORD PTR [ecx]

; 969  : 	pNewNode->data = newElement;

  0004c	f2 0f 10 45 08	 movsd	 xmm0, QWORD PTR _newElement$[ebp]

; 921  : 	m_pNodeFree = m_pNodeFree->pNext;

  00051	89 46 10	 mov	 DWORD PTR [esi+16], eax

; 922  : 	pNode->pPrev = pPrev;

  00054	89 79 04	 mov	 DWORD PTR [ecx+4], edi

; 923  : 	pNode->pNext = pNext;

  00057	c7 01 00 00 00
	00		 mov	 DWORD PTR [ecx], 0

; 924  : 	m_nCount++;

  0005d	ff 46 0c	 inc	 DWORD PTR [esi+12]

; 969  : 	pNewNode->data = newElement;

  00060	f2 0f 11 41 08	 movsd	 QWORD PTR [ecx+8], xmm0

; 970  : 	if (m_pNodeTail != NULL)

  00065	8b 46 08	 mov	 eax, DWORD PTR [esi+8]
  00068	85 c0		 test	 eax, eax
  0006a	74 0d		 je	 SHORT $LN2@AddTail

; 971  : 		m_pNodeTail->pNext = pNewNode;

  0006c	89 08		 mov	 DWORD PTR [eax], ecx

; 972  : 	else
; 973  : 		m_pNodeHead = pNewNode;
; 974  : 	m_pNodeTail = pNewNode;
; 975  : 	return (POSITION) pNewNode;

  0006e	8b c1		 mov	 eax, ecx
  00070	5f		 pop	 edi
  00071	89 4e 08	 mov	 DWORD PTR [esi+8], ecx
  00074	5e		 pop	 esi

; 976  : }

  00075	5d		 pop	 ebp
  00076	c2 08 00	 ret	 8
$LN2@AddTail:

; 972  : 	else
; 973  : 		m_pNodeHead = pNewNode;
; 974  : 	m_pNodeTail = pNewNode;
; 975  : 	return (POSITION) pNewNode;

  00079	5f		 pop	 edi
  0007a	89 4e 04	 mov	 DWORD PTR [esi+4], ecx
  0007d	8b c1		 mov	 eax, ecx
  0007f	89 4e 08	 mov	 DWORD PTR [esi+8], ecx
  00082	5e		 pop	 esi

; 976  : }

  00083	5d		 pop	 ebp
  00084	c2 08 00	 ret	 8
$LN22@AddTail:

; 918  : 	ENSURE(m_pNodeFree != NULL);  // we must have something

  00087	e8 00 00 00 00	 call	 ?AfxThrowInvalidArgException@@YGXXZ ; AfxThrowInvalidArgException
$LN20@AddTail:
  0008c	cc		 int	 3
?AddTail@?$CList@NN@@QAEPAU__POSITION@@N@Z ENDP		; CList<double,double>::AddTail
_TEXT	ENDS
; Function compile flags: /Ogtp
; File C:\Program Files (x86)\Microsoft Visual Studio\2019\Community\VC\Tools\MSVC\14.29.30133\atlmfc\include\afxtempl.h
;	COMDAT ?RemoveTail@?$CList@NN@@QAENXZ
_TEXT	SEGMENT
_returnValue$ = -8					; size = 8
?RemoveTail@?$CList@NN@@QAENXZ PROC			; CList<double,double>::RemoveTail, COMDAT
; _this$ = ecx

; 1026 : {

  00000	55		 push	 ebp
  00001	8b ec		 mov	 ebp, esp
  00003	83 ec 08	 sub	 esp, 8
  00006	56		 push	 esi
  00007	8b f1		 mov	 esi, ecx

; 1027 : 	ASSERT_VALID(this);
; 1028 : 	ENSURE(m_pNodeTail != NULL);  // don't call on empty list !!!

  00009	8b 4e 08	 mov	 ecx, DWORD PTR [esi+8]
  0000c	85 c9		 test	 ecx, ecx
  0000e	74 64		 je	 SHORT $LN24@RemoveTail

; 1029 : 	ASSERT(AfxIsValidAddress(m_pNodeTail, sizeof(CNode)));
; 1030 : 
; 1031 : 	CNode* pOldNode = m_pNodeTail;
; 1032 : 	TYPE returnValue = pOldNode->data;

  00010	f2 0f 10 41 08	 movsd	 xmm0, QWORD PTR [ecx+8]

; 1033 : 
; 1034 : 	m_pNodeTail = pOldNode->pPrev;

  00015	8b 41 04	 mov	 eax, DWORD PTR [ecx+4]
  00018	f2 0f 11 45 f8	 movsd	 QWORD PTR _returnValue$[ebp], xmm0
  0001d	89 46 08	 mov	 DWORD PTR [esi+8], eax

; 1035 : 	if (m_pNodeTail != NULL)

  00020	85 c0		 test	 eax, eax
  00022	74 08		 je	 SHORT $LN6@RemoveTail

; 1036 : 		m_pNodeTail->pNext = NULL;

  00024	c7 00 00 00 00
	00		 mov	 DWORD PTR [eax], 0
  0002a	eb 07		 jmp	 SHORT $LN7@RemoveTail
$LN6@RemoveTail:

; 1037 : 	else
; 1038 : 		m_pNodeHead = NULL;

  0002c	c7 46 04 00 00
	00 00		 mov	 DWORD PTR [esi+4], 0
$LN7@RemoveTail:

; 938  : 	pNode->pNext = m_pNodeFree;

  00033	8b 46 10	 mov	 eax, DWORD PTR [esi+16]
  00036	89 01		 mov	 DWORD PTR [ecx], eax

; 939  : 	m_pNodeFree = pNode;
; 940  : 	m_nCount--;

  00038	83 46 0c ff	 add	 DWORD PTR [esi+12], -1
  0003c	89 4e 10	 mov	 DWORD PTR [esi+16], ecx

; 941  : 	ASSERT(m_nCount >= 0);  // make sure we don't underflow
; 942  : 
; 943  : 	// if no more elements, cleanup completely
; 944  : 	if (m_nCount == 0)

  0003f	75 2b		 jne	 SHORT $LN10@RemoveTail

; 872  : 	m_pBlocks->FreeDataChain();

  00041	8b 4e 14	 mov	 ecx, DWORD PTR [esi+20]
  00044	c7 46 0c 00 00
	00 00		 mov	 DWORD PTR [esi+12], 0
  0004b	c7 46 10 00 00
	00 00		 mov	 DWORD PTR [esi+16], 0
  00052	c7 46 08 00 00
	00 00		 mov	 DWORD PTR [esi+8], 0
  00059	c7 46 04 00 00
	00 00		 mov	 DWORD PTR [esi+4], 0
  00060	e8 00 00 00 00	 call	 ?FreeDataChain@CPlex@@QAEXXZ ; CPlex::FreeDataChain

; 873  : 	m_pBlocks = NULL;

  00065	c7 46 14 00 00
	00 00		 mov	 DWORD PTR [esi+20], 0
$LN10@RemoveTail:

; 1039 : 	FreeNode(pOldNode);
; 1040 : 	return returnValue;

  0006c	dd 45 f8	 fld	 QWORD PTR _returnValue$[ebp]
  0006f	5e		 pop	 esi

; 1041 : }

  00070	8b e5		 mov	 esp, ebp
  00072	5d		 pop	 ebp
  00073	c3		 ret	 0
$LN24@RemoveTail:

; 1027 : 	ASSERT_VALID(this);
; 1028 : 	ENSURE(m_pNodeTail != NULL);  // don't call on empty list !!!

  00074	e8 00 00 00 00	 call	 ?AfxThrowInvalidArgException@@YGXXZ ; AfxThrowInvalidArgException
$LN22@RemoveTail:
  00079	cc		 int	 3
?RemoveTail@?$CList@NN@@QAENXZ ENDP			; CList<double,double>::RemoveTail
_TEXT	ENDS
; Function compile flags: /Ogtp
; File C:\Program Files (x86)\Microsoft Visual Studio\2019\Community\VC\Tools\MSVC\14.29.30133\atlmfc\include\afxtempl.h
;	COMDAT ??0?$CList@NN@@QAE@H@Z
_TEXT	SEGMENT
_nBlockSize$ = 8					; size = 4
??0?$CList@NN@@QAE@H@Z PROC				; CList<double,double>::CList<double,double>, COMDAT
; _this$ = ecx

; 851  : {

  00000	55		 push	 ebp
  00001	8b ec		 mov	 ebp, esp

; 852  : 	ASSERT(nBlockSize > 0);
; 853  : 
; 854  : 	m_nCount = 0;
; 855  : 	m_pNodeHead = m_pNodeTail = m_pNodeFree = NULL;
; 856  : 	m_pBlocks = NULL;
; 857  : 	m_nBlockSize = nBlockSize;

  00003	8b 45 08	 mov	 eax, DWORD PTR _nBlockSize$[ebp]
  00006	89 41 18	 mov	 DWORD PTR [ecx+24], eax

; 858  : }

  00009	8b c1		 mov	 eax, ecx
  0000b	c7 01 00 00 00
	00		 mov	 DWORD PTR [ecx], OFFSET ??_7?$CList@NN@@6B@
  00011	c7 41 0c 00 00
	00 00		 mov	 DWORD PTR [ecx+12], 0
  00018	c7 41 10 00 00
	00 00		 mov	 DWORD PTR [ecx+16], 0
  0001f	c7 41 08 00 00
	00 00		 mov	 DWORD PTR [ecx+8], 0
  00026	c7 41 04 00 00
	00 00		 mov	 DWORD PTR [ecx+4], 0
  0002d	c7 41 14 00 00
	00 00		 mov	 DWORD PTR [ecx+20], 0
  00034	5d		 pop	 ebp
  00035	c2 04 00	 ret	 4
??0?$CList@NN@@QAE@H@Z ENDP				; CList<double,double>::CList<double,double>
_TEXT	ENDS
; Function compile flags: /Ogtp
; File D:\git\src\IBK\IBK_DRFN\ProjSrc\SrcChartEx\ChartOCX\ChartObject\BlocksPosition.cpp
; File C:\Program Files (x86)\Microsoft Visual Studio\2019\Community\VC\Tools\MSVC\14.29.30133\atlmfc\include\afxtempl.h
; File D:\git\src\IBK\IBK_DRFN\ProjSrc\SrcChartEx\ChartOCX\ChartObject\BlocksPosition.cpp
;	COMDAT ??1CBlocksPositionBase@@IAE@XZ
_TEXT	SEGMENT
__$EHRec$ = -12						; size = 12
??1CBlocksPositionBase@@IAE@XZ PROC			; CBlocksPositionBase::~CBlocksPositionBase, COMDAT
; _this$ = ecx

; 31   : {

  00000	55		 push	 ebp
  00001	8b ec		 mov	 ebp, esp
  00003	6a ff		 push	 -1
  00005	68 00 00 00 00	 push	 __ehhandler$??1CBlocksPositionBase@@IAE@XZ
  0000a	64 a1 00 00 00
	00		 mov	 eax, DWORD PTR fs:0
  00010	50		 push	 eax
  00011	56		 push	 esi
  00012	a1 00 00 00 00	 mov	 eax, DWORD PTR ___security_cookie
  00017	33 c5		 xor	 eax, ebp
  00019	50		 push	 eax
  0001a	8d 45 f4	 lea	 eax, DWORD PTR __$EHRec$[ebp]
  0001d	64 a3 00 00 00
	00		 mov	 DWORD PTR fs:0, eax
  00023	8b f1		 mov	 esi, ecx

; 32   : 	BlockPositionReset();

  00025	e8 00 00 00 00	 call	 ?BlockPositionReset@CBlocksPositionBase@@QAEXXZ ; CBlocksPositionBase::BlockPositionReset
; File C:\Program Files (x86)\Microsoft Visual Studio\2019\Community\VC\Tools\MSVC\14.29.30133\atlmfc\include\afxtempl.h

; 872  : 	m_pBlocks->FreeDataChain();

  0002a	8b 4e 68	 mov	 ecx, DWORD PTR [esi+104]

; 878  : {

  0002d	c7 45 fc 00 00
	00 00		 mov	 DWORD PTR __$EHRec$[ebp+8], 0
  00034	c7 46 54 00 00
	00 00		 mov	 DWORD PTR [esi+84], OFFSET ??_7?$CList@NN@@6B@

; 870  : 	m_nCount = 0;

  0003b	c7 46 60 00 00
	00 00		 mov	 DWORD PTR [esi+96], 0

; 871  : 	m_pNodeHead = m_pNodeTail = m_pNodeFree = NULL;

  00042	c7 46 64 00 00
	00 00		 mov	 DWORD PTR [esi+100], 0
  00049	c7 46 5c 00 00
	00 00		 mov	 DWORD PTR [esi+92], 0
  00050	c7 46 58 00 00
	00 00		 mov	 DWORD PTR [esi+88], 0

; 872  : 	m_pBlocks->FreeDataChain();

  00057	e8 00 00 00 00	 call	 ?FreeDataChain@CPlex@@QAEXXZ ; CPlex::FreeDataChain

; 873  : 	m_pBlocks = NULL;

  0005c	c7 46 68 00 00
	00 00		 mov	 DWORD PTR [esi+104], 0

; 872  : 	m_pBlocks->FreeDataChain();

  00063	8b 4e 4c	 mov	 ecx, DWORD PTR [esi+76]

; 878  : {

  00066	c7 45 fc 01 00
	00 00		 mov	 DWORD PTR __$EHRec$[ebp+8], 1
  0006d	c7 46 38 00 00
	00 00		 mov	 DWORD PTR [esi+56], OFFSET ??_7?$CList@NN@@6B@

; 870  : 	m_nCount = 0;

  00074	c7 46 44 00 00
	00 00		 mov	 DWORD PTR [esi+68], 0

; 871  : 	m_pNodeHead = m_pNodeTail = m_pNodeFree = NULL;

  0007b	c7 46 48 00 00
	00 00		 mov	 DWORD PTR [esi+72], 0
  00082	c7 46 40 00 00
	00 00		 mov	 DWORD PTR [esi+64], 0
  00089	c7 46 3c 00 00
	00 00		 mov	 DWORD PTR [esi+60], 0

; 872  : 	m_pBlocks->FreeDataChain();

  00090	e8 00 00 00 00	 call	 ?FreeDataChain@CPlex@@QAEXXZ ; CPlex::FreeDataChain

; 873  : 	m_pBlocks = NULL;

  00095	c7 46 4c 00 00
	00 00		 mov	 DWORD PTR [esi+76], 0

; 872  : 	m_pBlocks->FreeDataChain();

  0009c	8b 4e 28	 mov	 ecx, DWORD PTR [esi+40]

; 878  : {

  0009f	c7 45 fc 02 00
	00 00		 mov	 DWORD PTR __$EHRec$[ebp+8], 2
  000a6	c7 46 14 00 00
	00 00		 mov	 DWORD PTR [esi+20], OFFSET ??_7?$CList@NN@@6B@

; 870  : 	m_nCount = 0;

  000ad	c7 46 20 00 00
	00 00		 mov	 DWORD PTR [esi+32], 0

; 871  : 	m_pNodeHead = m_pNodeTail = m_pNodeFree = NULL;

  000b4	c7 46 24 00 00
	00 00		 mov	 DWORD PTR [esi+36], 0
  000bb	c7 46 1c 00 00
	00 00		 mov	 DWORD PTR [esi+28], 0
  000c2	c7 46 18 00 00
	00 00		 mov	 DWORD PTR [esi+24], 0

; 872  : 	m_pBlocks->FreeDataChain();

  000c9	e8 00 00 00 00	 call	 ?FreeDataChain@CPlex@@QAEXXZ ; CPlex::FreeDataChain

; 873  : 	m_pBlocks = NULL;

  000ce	c7 46 28 00 00
	00 00		 mov	 DWORD PTR [esi+40], 0
; File D:\git\src\IBK\IBK_DRFN\ProjSrc\SrcChartEx\ChartOCX\ChartObject\BlocksPosition.cpp

; 33   : }

  000d5	8b 4d f4	 mov	 ecx, DWORD PTR __$EHRec$[ebp]
  000d8	64 89 0d 00 00
	00 00		 mov	 DWORD PTR fs:0, ecx
  000df	59		 pop	 ecx
  000e0	5e		 pop	 esi
  000e1	8b e5		 mov	 esp, ebp
  000e3	5d		 pop	 ebp
  000e4	c3		 ret	 0
  000e5	cc		 int	 3
  000e6	cc		 int	 3
  000e7	cc		 int	 3
  000e8	cc		 int	 3
  000e9	cc		 int	 3
_TEXT	ENDS
;	COMDAT text$x
text$x	SEGMENT
__ehhandler$??1CBlocksPositionBase@@IAE@XZ:
  00000	90		 npad	 1
  00001	90		 npad	 1
  00002	8b 54 24 08	 mov	 edx, DWORD PTR [esp+8]
  00006	8d 42 0c	 lea	 eax, DWORD PTR [edx+12]
  00009	8b 4a f8	 mov	 ecx, DWORD PTR [edx-8]
  0000c	33 c8		 xor	 ecx, eax
  0000e	e8 00 00 00 00	 call	 @__security_check_cookie@4
  00013	b8 00 00 00 00	 mov	 eax, OFFSET __ehfuncinfo$??1CBlocksPositionBase@@IAE@XZ
  00018	e9 00 00 00 00	 jmp	 ___CxxFrameHandler3
text$x	ENDS
??1CBlocksPositionBase@@IAE@XZ ENDP			; CBlocksPositionBase::~CBlocksPositionBase
; Function compile flags: /Ogtp
; File D:\git\src\IBK\IBK_DRFN\ProjSrc\SrcChartEx\ChartOCX\ChartObject\BlocksPosition.cpp
; File C:\Program Files (x86)\Microsoft Visual Studio\2019\Community\VC\Tools\MSVC\14.29.30133\atlmfc\include\atltypes.h
; File D:\git\src\IBK\IBK_DRFN\ProjSrc\SrcChartEx\ChartOCX\ChartObject\BlocksPosition.cpp
; File C:\Program Files (x86)\Microsoft Visual Studio\2019\Community\VC\Tools\MSVC\14.29.30133\atlmfc\include\atltypes.h
; File C:\Program Files (x86)\Microsoft Visual Studio\2019\Community\VC\Tools\MSVC\14.29.30133\atlmfc\include\afxtempl.h
; File D:\git\src\IBK\IBK_DRFN\ProjSrc\SrcChartEx\ChartOCX\Include_Chart\BlockBaseData.h
; File C:\Program Files (x86)\Microsoft Visual Studio\2019\Community\VC\Tools\MSVC\14.29.30133\atlmfc\include\afxtempl.h
; File D:\git\src\IBK\IBK_DRFN\ProjSrc\SrcChartEx\ChartOCX\ChartObject\BlocksPosition.cpp
; File C:\Program Files (x86)\Microsoft Visual Studio\2019\Community\VC\Tools\MSVC\14.29.30133\atlmfc\include\afxtempl.h
; File D:\git\src\IBK\IBK_DRFN\ProjSrc\SrcChartEx\ChartOCX\ChartObject\BlocksPosition.cpp
;	COMDAT ??0CBlocksPositionBase@@IAE@XZ
_TEXT	SEGMENT
_this$ = -4						; size = 4
??0CBlocksPositionBase@@IAE@XZ PROC			; CBlocksPositionBase::CBlocksPositionBase, COMDAT
; _this$ = ecx

; 27   : {

  00000	55		 push	 ebp
  00001	8b ec		 mov	 ebp, esp
  00003	51		 push	 ecx
; File C:\Program Files (x86)\Microsoft Visual Studio\2019\Community\VC\Tools\MSVC\14.29.30133\atlmfc\include\atltypes.h

; 540  : 	left = l;

  00004	c7 41 04 00 00
	00 00		 mov	 DWORD PTR [ecx+4], 0
; File D:\git\src\IBK\IBK_DRFN\ProjSrc\SrcChartEx\ChartOCX\ChartObject\BlocksPosition.cpp

; 28   : }

  0000b	8b c1		 mov	 eax, ecx
; File C:\Program Files (x86)\Microsoft Visual Studio\2019\Community\VC\Tools\MSVC\14.29.30133\atlmfc\include\atltypes.h

; 541  : 	top = t;

  0000d	c7 41 08 00 00
	00 00		 mov	 DWORD PTR [ecx+8], 0

; 542  : 	right = r;

  00014	c7 41 0c 00 00
	00 00		 mov	 DWORD PTR [ecx+12], 0

; 543  : 	bottom = b;

  0001b	c7 41 10 00 00
	00 00		 mov	 DWORD PTR [ecx+16], 0
; File C:\Program Files (x86)\Microsoft Visual Studio\2019\Community\VC\Tools\MSVC\14.29.30133\atlmfc\include\afxtempl.h

; 851  : {

  00022	c7 41 14 00 00
	00 00		 mov	 DWORD PTR [ecx+20], OFFSET ??_7?$CList@NN@@6B@

; 852  : 	ASSERT(nBlockSize > 0);
; 853  : 
; 854  : 	m_nCount = 0;

  00029	c7 41 20 00 00
	00 00		 mov	 DWORD PTR [ecx+32], 0

; 855  : 	m_pNodeHead = m_pNodeTail = m_pNodeFree = NULL;

  00030	c7 41 24 00 00
	00 00		 mov	 DWORD PTR [ecx+36], 0
  00037	c7 41 1c 00 00
	00 00		 mov	 DWORD PTR [ecx+28], 0
  0003e	c7 41 18 00 00
	00 00		 mov	 DWORD PTR [ecx+24], 0

; 856  : 	m_pBlocks = NULL;

  00045	c7 41 28 00 00
	00 00		 mov	 DWORD PTR [ecx+40], 0

; 857  : 	m_nBlockSize = nBlockSize;

  0004c	c7 41 2c 0a 00
	00 00		 mov	 DWORD PTR [ecx+44], 10	; 0000000aH
; File D:\git\src\IBK\IBK_DRFN\ProjSrc\SrcChartEx\ChartOCX\Include_Chart\BlockBaseData.h

; 19   : 	CBlockIndex()										{	m_nRow = m_nColumn = -1;				}

  00053	c7 41 34 ff ff
	ff ff		 mov	 DWORD PTR [ecx+52], -1
  0005a	c7 41 30 ff ff
	ff ff		 mov	 DWORD PTR [ecx+48], -1
; File C:\Program Files (x86)\Microsoft Visual Studio\2019\Community\VC\Tools\MSVC\14.29.30133\atlmfc\include\afxtempl.h

; 851  : {

  00061	c7 41 38 00 00
	00 00		 mov	 DWORD PTR [ecx+56], OFFSET ??_7?$CList@NN@@6B@

; 852  : 	ASSERT(nBlockSize > 0);
; 853  : 
; 854  : 	m_nCount = 0;

  00068	c7 41 44 00 00
	00 00		 mov	 DWORD PTR [ecx+68], 0

; 855  : 	m_pNodeHead = m_pNodeTail = m_pNodeFree = NULL;

  0006f	c7 41 48 00 00
	00 00		 mov	 DWORD PTR [ecx+72], 0
  00076	c7 41 40 00 00
	00 00		 mov	 DWORD PTR [ecx+64], 0
  0007d	c7 41 3c 00 00
	00 00		 mov	 DWORD PTR [ecx+60], 0

; 856  : 	m_pBlocks = NULL;

  00084	c7 41 4c 00 00
	00 00		 mov	 DWORD PTR [ecx+76], 0

; 857  : 	m_nBlockSize = nBlockSize;

  0008b	c7 41 50 0a 00
	00 00		 mov	 DWORD PTR [ecx+80], 10	; 0000000aH
; File D:\git\src\IBK\IBK_DRFN\ProjSrc\SrcChartEx\ChartOCX\ChartObject\BlocksPosition.cpp

; 27   : {

  00092	89 4d fc	 mov	 DWORD PTR _this$[ebp], ecx
; File C:\Program Files (x86)\Microsoft Visual Studio\2019\Community\VC\Tools\MSVC\14.29.30133\atlmfc\include\afxtempl.h

; 851  : {

  00095	c7 41 54 00 00
	00 00		 mov	 DWORD PTR [ecx+84], OFFSET ??_7?$CList@NN@@6B@

; 852  : 	ASSERT(nBlockSize > 0);
; 853  : 
; 854  : 	m_nCount = 0;

  0009c	c7 41 60 00 00
	00 00		 mov	 DWORD PTR [ecx+96], 0

; 855  : 	m_pNodeHead = m_pNodeTail = m_pNodeFree = NULL;

  000a3	c7 41 64 00 00
	00 00		 mov	 DWORD PTR [ecx+100], 0
  000aa	c7 41 5c 00 00
	00 00		 mov	 DWORD PTR [ecx+92], 0
  000b1	c7 41 58 00 00
	00 00		 mov	 DWORD PTR [ecx+88], 0

; 856  : 	m_pBlocks = NULL;

  000b8	c7 41 68 00 00
	00 00		 mov	 DWORD PTR [ecx+104], 0

; 857  : 	m_nBlockSize = nBlockSize;

  000bf	c7 41 6c 0a 00
	00 00		 mov	 DWORD PTR [ecx+108], 10	; 0000000aH
; File D:\git\src\IBK\IBK_DRFN\ProjSrc\SrcChartEx\ChartOCX\ChartObject\BlocksPosition.cpp

; 28   : }

  000c6	8b e5		 mov	 esp, ebp
  000c8	5d		 pop	 ebp
  000c9	c3		 ret	 0
??0CBlocksPositionBase@@IAE@XZ ENDP			; CBlocksPositionBase::CBlocksPositionBase
_TEXT	ENDS
; Function compile flags: /Ogtp
; File C:\Program Files (x86)\Microsoft Visual Studio\2019\Community\VC\Tools\MSVC\14.29.30133\atlmfc\include\afx.inl
;	COMDAT ?Dump@CObject@@UBEXAAVCDumpContext@@@Z
_TEXT	SEGMENT
___formal$ = 8						; size = 4
?Dump@CObject@@UBEXAAVCDumpContext@@@Z PROC		; CObject::Dump, COMDAT
; _this$ = ecx

; 122  : 	{ /* no dumping in release builds */ }

  00000	c2 04 00	 ret	 4
?Dump@CObject@@UBEXAAVCDumpContext@@@Z ENDP		; CObject::Dump
_TEXT	ENDS
; Function compile flags: /Ogtp
; File C:\Program Files (x86)\Microsoft Visual Studio\2019\Community\VC\Tools\MSVC\14.29.30133\atlmfc\include\afx.inl
;	COMDAT ?AssertValid@CObject@@UBEXXZ
_TEXT	SEGMENT
?AssertValid@CObject@@UBEXXZ PROC			; CObject::AssertValid, COMDAT
; _this$ = ecx

; 120  : 	{ /* no asserts in release builds */ }

  00000	c2 00 00	 ret	 0
?AssertValid@CObject@@UBEXXZ ENDP			; CObject::AssertValid
_TEXT	ENDS
; Function compile flags: /Ogtp
; File C:\Program Files (x86)\Microsoft Visual Studio\2019\Community\VC\Tools\MSVC\14.29.30133\atlmfc\include\afx.inl
;	COMDAT ?Serialize@CObject@@UAEXAAVCArchive@@@Z
_TEXT	SEGMENT
___formal$ = 8						; size = 4
?Serialize@CObject@@UAEXAAVCArchive@@@Z PROC		; CObject::Serialize, COMDAT
; _this$ = ecx

; 106  : 	{ /* CObject does not serialize anything by default */ }

  00000	c2 04 00	 ret	 4
?Serialize@CObject@@UAEXAAVCArchive@@@Z ENDP		; CObject::Serialize
_TEXT	ENDS
; Function compile flags: /Ogtp
; File C:\Program Files (x86)\Microsoft Visual Studio\2019\Community\VC\Tools\MSVC\14.29.30133\atlmfc\include\afx.inl
;	COMDAT ??1CObject@@UAE@XZ
_TEXT	SEGMENT
??1CObject@@UAE@XZ PROC					; CObject::~CObject, COMDAT
; _this$ = ecx

; 104  : 	{ }

  00000	c2 00 00	 ret	 0
??1CObject@@UAE@XZ ENDP					; CObject::~CObject
_TEXT	ENDS
; Function compile flags: /Ogtp
; File D:\git\src\IBK\IBK_DRFN\ProjSrc\SrcChartEx\ChartOCX\ChartObject\BlocksPosition.cpp
;	COMDAT ?__empty_global_delete@@YAXPAXI@Z
_TEXT	SEGMENT
___formal$ = 8						; size = 4
___formal$ = 12						; size = 4
?__empty_global_delete@@YAXPAXI@Z PROC			; __empty_global_delete, COMDAT

  00000	c2 00 00	 ret	 0
?__empty_global_delete@@YAXPAXI@Z ENDP			; __empty_global_delete
_TEXT	ENDS
; Function compile flags: /Ogtp
; File D:\git\src\IBK\IBK_DRFN\ProjSrc\SrcChartEx\ChartOCX\ChartObject\BlocksPosition.cpp
;	COMDAT ?__empty_global_delete@@YAXPAX@Z
_TEXT	SEGMENT
___formal$ = 8						; size = 4
?__empty_global_delete@@YAXPAX@Z PROC			; __empty_global_delete, COMDAT

  00000	c2 00 00	 ret	 0
?__empty_global_delete@@YAXPAX@Z ENDP			; __empty_global_delete
_TEXT	ENDS
END
