; Listing generated by Microsoft (R) Optimizing Compiler Version 19.29.30145.0 

	TITLE	D:\git\src\IBK\IBK_DRFN\#DRfn-CS\_Obj\ChartObject\BlocksColumn.obj
	.686P
	.XMM
	include listing.inc
	.model	flat

INCLUDELIB MSVCRT
INCLUDELIB OLDNAMES

PUBLIC	?__empty_global_delete@@YAXPAX@Z		; __empty_global_delete
PUBLIC	?__empty_global_delete@@YAXPAXI@Z		; __empty_global_delete
PUBLIC	??1CObject@@UAE@XZ				; CObject::~CObject
PUBLIC	??3CObject@@SGXPAX@Z				; CObject::operator delete
PUBLIC	?Serialize@CObject@@UAEXAAVCArchive@@@Z		; CObject::Serialize
PUBLIC	?AssertValid@CObject@@UBEXXZ			; CObject::AssertValid
PUBLIC	?Dump@CObject@@UBEXAAVCDumpContext@@@Z		; CObject::Dump
PUBLIC	??0CBlocksColumn@@QAE@PAVCMainBlockImp@@@Z	; CBlocksColumn::CBlocksColumn
PUBLIC	??1CBlocksColumn@@UAE@XZ			; CBlocksColumn::~CBlocksColumn
PUBLIC	?GetNext@?$_CTypedPtrList@VCObList@@PAVCBlockImp@@@@QAEAAPAVCBlockImp@@AAPAU__POSITION@@@Z ; _CTypedPtrList<CObList,CBlockImp *>::GetNext
PUBLIC	?GetPrev@?$_CTypedPtrList@VCObList@@PAVCBlockImp@@@@QAEAAPAVCBlockImp@@AAPAU__POSITION@@@Z ; _CTypedPtrList<CObList,CBlockImp *>::GetPrev
PUBLIC	??_G?$_CTypedPtrList@VCObList@@PAVCBlockImp@@@@UAEPAXI@Z ; _CTypedPtrList<CObList,CBlockImp *>::`scalar deleting destructor'
PUBLIC	??1?$CTypedPtrList@VCObList@@PAVCBlockImp@@@@UAE@XZ ; CTypedPtrList<CObList,CBlockImp *>::~CTypedPtrList<CObList,CBlockImp *>
PUBLIC	??_G?$CTypedPtrList@VCObList@@PAVCBlockImp@@@@UAEPAXI@Z ; CTypedPtrList<CObList,CBlockImp *>::`scalar deleting destructor'
PUBLIC	?GetMainBlockBaseData@CBlocksColumn@@IBEPAVCMainBlockBaseData@@XZ ; CBlocksColumn::GetMainBlockBaseData
PUBLIC	?InitializeNormalSizeBlockNumber@CBlocksColumn@@QAEXXZ ; CBlocksColumn::InitializeNormalSizeBlockNumber
PUBLIC	?SetAllVScaleMinMaxType@CBlocksColumn@@QAEXW4VERTMINMAXTYPE@CScaleBaseData@@@Z ; CBlocksColumn::SetAllVScaleMinMaxType
PUBLIC	?ReleaseAllVScaleSettingInFixedMinMax@CBlocksColumn@@QAEXXZ ; CBlocksColumn::ReleaseAllVScaleSettingInFixedMinMax
PUBLIC	?Make@CBlocksColumn@@SAPAV1@PAVCMainBlockImp@@@Z ; CBlocksColumn::Make
PUBLIC	?MakeBlocksColumn@CBlocksColumn@@QAEXH@Z	; CBlocksColumn::MakeBlocksColumn
PUBLIC	?BuildGraphsAndScales@CBlocksColumn@@QAEXPADAAH@Z ; CBlocksColumn::BuildGraphsAndScales
PUBLIC	?BuildGraphsAndScales@CBlocksColumn@@QAEXPAXPAD@Z ; CBlocksColumn::BuildGraphsAndScales
PUBLIC	?GetBlocksColumnAllData@CBlocksColumn@@QBEXAAVCStringList@@@Z ; CBlocksColumn::GetBlocksColumnAllData
PUBLIC	?InsertBlock_LoadDialog@CBlocksColumn@@QAE_NAAVCInsertingBlockHorzScaleData@@@Z ; CBlocksColumn::InsertBlock_LoadDialog
PUBLIC	?InsertBlock_GetBlockForInsert@CBlocksColumn@@QAEPAVCBlockImp@@H_N@Z ; CBlocksColumn::InsertBlock_GetBlockForInsert
PUBLIC	?InsertBlock_WithPosition@CBlocksColumn@@QAEPAU__POSITION@@PAVCBlockImp@@H_N@Z ; CBlocksColumn::InsertBlock_WithPosition
PUBLIC	?InsertBlock@CBlocksColumn@@QAE_NHPAD@Z		; CBlocksColumn::InsertBlock
PUBLIC	?InsertBlock@CBlocksColumn@@QAE_NPAXHPAD@Z	; CBlocksColumn::InsertBlock
PUBLIC	?InsertBlocks@CBlocksColumn@@QAE_NPAXHABV?$CStringT@DV?$StrTraitMFC_DLL@DV?$ChTraitsCRT@D@ATL@@@@@ATL@@@Z ; CBlocksColumn::InsertBlocks
PUBLIC	?InsertBlocks@CBlocksColumn@@QAE_NHABV?$CStringT@DV?$StrTraitMFC_DLL@DV?$ChTraitsCRT@D@ATL@@@@@ATL@@@Z ; CBlocksColumn::InsertBlocks
PUBLIC	?InsertBlocks@CBlocksColumn@@QAE_NABV?$CStringT@DV?$StrTraitMFC_DLL@DV?$ChTraitsCRT@D@ATL@@@@@ATL@@@Z ; CBlocksColumn::InsertBlocks
PUBLIC	?InsertBlocks@CBlocksColumn@@QAE_NPAXABV?$CStringT@DV?$StrTraitMFC_DLL@DV?$ChTraitsCRT@D@ATL@@@@@ATL@@@Z ; CBlocksColumn::InsertBlocks
PUBLIC	?InsertBlock@CBlocksColumn@@QAE_NH_N@Z		; CBlocksColumn::InsertBlock
PUBLIC	?Delete@CBlocksColumn@@SAXPAV1@@Z		; CBlocksColumn::Delete
PUBLIC	?DeleteAll@CBlocksColumn@@QAEXXZ		; CBlocksColumn::DeleteAll
PUBLIC	?DeleteBlock@CBlocksColumn@@QAE_NPAVCBlockImp@@_N@Z ; CBlocksColumn::DeleteBlock
PUBLIC	?DeleteAllIndicator@CBlocksColumn@@QAEHPBD@Z	; CBlocksColumn::DeleteAllIndicator
PUBLIC	?GetBlock@CBlocksColumn@@QBEPAVCBlockImp@@H@Z	; CBlocksColumn::GetBlock
PUBLIC	?GetVertScaleGroup@CBlocksColumn@@QBEPAVCVertScaleGroup@@HH@Z ; CBlocksColumn::GetVertScaleGroup
PUBLIC	?FindGraph@CBlocksColumn@@QBEHPAVCGraphSearchInfo@@@Z ; CBlocksColumn::FindGraph
PUBLIC	?FindGraph@CBlocksColumn@@QBEHPAXPAVCGraphSearchInfo@@@Z ; CBlocksColumn::FindGraph
PUBLIC	?MoveBlock@CBlocksColumn@@QAE_NPAVCBlocksPosition@@HH@Z ; CBlocksColumn::MoveBlock
PUBLIC	?MoveAllVertScaleGroupsInPartition@CBlocksColumn@@QAE_NH_N@Z ; CBlocksColumn::MoveAllVertScaleGroupsInPartition
PUBLIC	?DrawAllBlocksBackground@CBlocksColumn@@QAEXPAVCDC@@HABVCBlocksPosition@@@Z ; CBlocksColumn::DrawAllBlocksBackground
PUBLIC	?DrawAllHorzAndVertScales@CBlocksColumn@@QAEXPAVCDC@@HABVCBlocksPosition@@@Z ; CBlocksColumn::DrawAllHorzAndVertScales
PUBLIC	?DrawAllGraphs@CBlocksColumn@@QAEXPAVCDC@@HABVCBlocksPosition@@@Z ; CBlocksColumn::DrawAllGraphs
PUBLIC	?CalculateDisplayDataMinMaxAllVertScaleGroup@CBlocksColumn@@QAEXXZ ; CBlocksColumn::CalculateDisplayDataMinMaxAllVertScaleGroup
PUBLIC	?CalculateDrawingRegion@CBlocksColumn@@QAEXPAVCDC@@HABVCBlocksPosition@@@Z ; CBlocksColumn::CalculateDrawingRegion
PUBLIC	?GetColumnViewData@CBlocksColumn@@QBEXPBDAAVCColumnViewData@@@Z ; CBlocksColumn::GetColumnViewData
PUBLIC	?GetFirstBlockVGridLineType@CBlocksColumn@@QAE?AW4SCALEGRIDTYPE@CScaleBaseData@@XZ ; CBlocksColumn::GetFirstBlockVGridLineType
PUBLIC	?GetBlockCount@CBlocksColumn@@QBEHXZ		; CBlocksColumn::GetBlockCount
PUBLIC	?SetAllScaleGridType@CBlocksColumn@@QAEXW4SCALEGRIDTYPE@CScaleBaseData@@@Z ; CBlocksColumn::SetAllScaleGridType
PUBLIC	?SetAllHorzScaleGridType@CBlocksColumn@@QAEXW4SCALEGRIDTYPE@CScaleBaseData@@@Z ; CBlocksColumn::SetAllHorzScaleGridType
PUBLIC	?SetAllHorzScalePosition@CBlocksColumn@@QAEXW4HORZSCALEPOSITION@CScaleBaseData@@@Z ; CBlocksColumn::SetAllHorzScalePosition
PUBLIC	?GetHorzScalePtrDataList@CBlocksColumn@@QBEXPBVCBlockImp@@AAVCHorizontalScalePtrDataList@@@Z ; CBlocksColumn::GetHorzScalePtrDataList
PUBLIC	?SetAllVertScaleGridType@CBlocksColumn@@QAEXW4SCALEGRIDTYPE@CScaleBaseData@@@Z ; CBlocksColumn::SetAllVertScaleGridType
PUBLIC	?SetAllVertScalePosition@CBlocksColumn@@QAEXW4VERTSCALEPOSITION@CScaleBaseData@@@Z ; CBlocksColumn::SetAllVertScalePosition
PUBLIC	?SetAllVertScaleLogType@CBlocksColumn@@QAE_N_N@Z ; CBlocksColumn::SetAllVertScaleLogType
PUBLIC	?SetMaintainOldScale@CBlocksColumn@@QAEXPAVCBlockImp@@@Z ; CBlocksColumn::SetMaintainOldScale
PUBLIC	?GetAllIndicatorName@CBlocksColumn@@QBE_NAAV?$CList@V?$CStringT@DV?$StrTraitMFC_DLL@DV?$ChTraitsCRT@D@ATL@@@@@ATL@@V12@@@@Z ; CBlocksColumn::GetAllIndicatorName
PUBLIC	?GetAllGraphName@CBlocksColumn@@QBE_NAAV?$CList@V?$CStringT@DV?$StrTraitMFC_DLL@DV?$ChTraitsCRT@D@ATL@@@@@ATL@@V12@@@@Z ; CBlocksColumn::GetAllGraphName
PUBLIC	?Initialize_Packet@CBlocksColumn@@QAE_NABV?$CStringT@DV?$StrTraitMFC_DLL@DV?$ChTraitsCRT@D@ATL@@@@@ATL@@_N@Z ; CBlocksColumn::Initialize_Packet
PUBLIC	?Initialize_IndicatorInfo@CBlocksColumn@@QAEX_N@Z ; CBlocksColumn::Initialize_IndicatorInfo
PUBLIC	?ChangeIndicatorPacketNames@CBlocksColumn@@QAEHPBDH0@Z ; CBlocksColumn::ChangeIndicatorPacketNames
PUBLIC	?ShowIndicator@CBlocksColumn@@QAEXPBDHH@Z	; CBlocksColumn::ShowIndicator
PUBLIC	?ChangeAllIndicatorInfoFromGraphData@CBlocksColumn@@QAE_NXZ ; CBlocksColumn::ChangeAllIndicatorInfoFromGraphData
PUBLIC	?ChangeAllGraphDataFromIndicatorInfo@CBlocksColumn@@QAEHH@Z ; CBlocksColumn::ChangeAllGraphDataFromIndicatorInfo
PUBLIC	?ChangeAllMapDefaultIndicatorInfo@CBlocksColumn@@QAE_NPAVCIndicatorList@@@Z ; CBlocksColumn::ChangeAllMapDefaultIndicatorInfo
PUBLIC	?SendMessageToParent_BlockInsert@CBlocksColumn@@QAEXH@Z ; CBlocksColumn::SendMessageToParent_BlockInsert
PUBLIC	?CalculateAllGraphs@CBlocksColumn@@QAEXW4CALCULATETYPE@CCalculateBaseData@@@Z ; CBlocksColumn::CalculateAllGraphs
PUBLIC	?CalculateAllGraphs@CBlocksColumn@@QAE_NABV?$CList@V?$CStringT@DV?$StrTraitMFC_DLL@DV?$ChTraitsCRT@D@ATL@@@@@ATL@@V12@@@W4CALCULATETYPE@CCalculateBaseData@@_N@Z ; CBlocksColumn::CalculateAllGraphs
PUBLIC	?GetColumnIndex@CBlocksColumn@@QAEHXZ		; CBlocksColumn::GetColumnIndex
PUBLIC	?GetSumOfHorzScaleHeightForEachBlock@CBlocksColumn@@QAEXAAV?$CList@HH@@@Z ; CBlocksColumn::GetSumOfHorzScaleHeightForEachBlock
PUBLIC	?GetHorzScaleDataRQ@CBlocksColumn@@QAE?AV?$CStringT@DV?$StrTraitMFC_DLL@DV?$ChTraitsCRT@D@ATL@@@@@ATL@@PAVCBlockImp@@@Z ; CBlocksColumn::GetHorzScaleDataRQ
PUBLIC	??_GCBlocksColumn@@UAEPAXI@Z			; CBlocksColumn::`scalar deleting destructor'
PUBLIC	?LoadResourceDLL@IMetaTable@@QAEPAUHINSTANCE__@@PAUHWND__@@PAU2@@Z ; IMetaTable::LoadResourceDLL
PUBLIC	??1CMultiLanguageResourceSetter@@QAE@XZ		; CMultiLanguageResourceSetter::~CMultiLanguageResourceSetter
PUBLIC	??1CSubGraphViewData@@QAE@XZ			; CSubGraphViewData::~CSubGraphViewData
PUBLIC	?AddTail@?$CList@VCSubGraphViewData@@AAV1@@@QAEPAU__POSITION@@AAVCSubGraphViewData@@@Z ; CList<CSubGraphViewData,CSubGraphViewData &>::AddTail
PUBLIC	?RemoveAll@?$CList@VCSubGraphViewData@@AAV1@@@QAEXXZ ; CList<CSubGraphViewData,CSubGraphViewData &>::RemoveAll
PUBLIC	?NewNode@?$CList@VCSubGraphViewData@@AAV1@@@IAEPAUCNode@1@PAU21@0@Z ; CList<CSubGraphViewData,CSubGraphViewData &>::NewNode
PUBLIC	??1?$CList@VCSubGraphViewData@@AAV1@@@UAE@XZ	; CList<CSubGraphViewData,CSubGraphViewData &>::~CList<CSubGraphViewData,CSubGraphViewData &>
PUBLIC	?Serialize@?$CList@VCSubGraphViewData@@AAV1@@@UAEXAAVCArchive@@@Z ; CList<CSubGraphViewData,CSubGraphViewData &>::Serialize
PUBLIC	??_G?$CList@VCSubGraphViewData@@AAV1@@@UAEPAXI@Z ; CList<CSubGraphViewData,CSubGraphViewData &>::`scalar deleting destructor'
PUBLIC	??1CRowViewData@@QAE@XZ				; CRowViewData::~CRowViewData
PUBLIC	??1CInsertingBlockHorzScaleData@@QAE@XZ		; CInsertingBlockHorzScaleData::~CInsertingBlockHorzScaleData
PUBLIC	??1CHorizontalScalePtrData@@QAE@XZ		; CHorizontalScalePtrData::~CHorizontalScalePtrData
PUBLIC	??1CGraphSearchInfo_IndicatorName@@QAE@XZ	; CGraphSearchInfo_IndicatorName::~CGraphSearchInfo_IndicatorName
PUBLIC	??1CDlgBlockInsert@@UAE@XZ			; CDlgBlockInsert::~CDlgBlockInsert
PUBLIC	?AddTail@?$CList@HH@@QAEPAU__POSITION@@H@Z	; CList<int,int>::AddTail
PUBLIC	?NewNode@?$CList@HH@@IAEPAUCNode@1@PAU21@0@Z	; CList<int,int>::NewNode
PUBLIC	??$SerializeElements@VCSubGraphViewData@@@@YGXAAVCArchive@@PAVCSubGraphViewData@@H@Z ; SerializeElements<CSubGraphViewData>
PUBLIC	??_R0?AVCObject@@@8				; CObject `RTTI Type Descriptor'
PUBLIC	??_R3CObject@@8					; CObject::`RTTI Class Hierarchy Descriptor'
PUBLIC	??_R2CObject@@8					; CObject::`RTTI Base Class Array'
PUBLIC	??_R1A@?0A@EA@CObject@@8			; CObject::`RTTI Base Class Descriptor at (0,-1,0,64)'
PUBLIC	??_R1A@?0A@EA@CObList@@8			; CObList::`RTTI Base Class Descriptor at (0,-1,0,64)'
PUBLIC	??_R0?AVCObList@@@8				; CObList `RTTI Type Descriptor'
PUBLIC	??_R3CObList@@8					; CObList::`RTTI Class Hierarchy Descriptor'
PUBLIC	??_R2CObList@@8					; CObList::`RTTI Base Class Array'
PUBLIC	??_7?$_CTypedPtrList@VCObList@@PAVCBlockImp@@@@6B@ ; _CTypedPtrList<CObList,CBlockImp *>::`vftable'
PUBLIC	??_7?$CTypedPtrList@VCObList@@PAVCBlockImp@@@@6B@ ; CTypedPtrList<CObList,CBlockImp *>::`vftable'
PUBLIC	??_7CBlocksColumn@@6B@				; CBlocksColumn::`vftable'
PUBLIC	??_C@_0BA@ENJOCHIO@LoadResourceDLL@		; `string'
PUBLIC	??_7?$CList@VCSubGraphViewData@@AAV1@@@6B@	; CList<CSubGraphViewData,CSubGraphViewData &>::`vftable'
PUBLIC	??_7CGraphSearchInfo_BlocksColumn@@6B@		; CGraphSearchInfo_BlocksColumn::`vftable'
PUBLIC	??_7CGraphSearchInfo_OtherBlock@@6B@		; CGraphSearchInfo_OtherBlock::`vftable'
PUBLIC	??_7CGraphSearchInfo_ActiveVertScaleAndGridLine@@6B@ ; CGraphSearchInfo_ActiveVertScaleAndGridLine::`vftable'
PUBLIC	??_7CGraphSearchInfo_AnyGraph@@6B@		; CGraphSearchInfo_AnyGraph::`vftable'
PUBLIC	??_7CGraphSearchInfo_IndicatorName@@6B@		; CGraphSearchInfo_IndicatorName::`vftable'
PUBLIC	??_7CGraphSearchInfo_VisibleSubGraph@@6B@	; CGraphSearchInfo_VisibleSubGraph::`vftable'
PUBLIC	??_C@_08KGLHHGPJ@Block?$DL?$AN?6@		; `string'
PUBLIC	??_C@_0M@FHFNKLHB@BlockEnd?$DL?$AN?6@		; `string'
PUBLIC	??_C@_0P@GBPFOBGA@BlockColumn?$DL?$AN?6@	; `string'
PUBLIC	??_C@_0BC@DENBEKI@BlockColumnEnd?$DL?$AN?6@	; `string'
PUBLIC	??_C@_0BA@POFFJEDL@VertScaleGroup?$DL@		; `string'
PUBLIC	??_C@_07MGCPDNLD@DEFAULT@			; `string'
PUBLIC	??_R4CBlocksColumn@@6B@				; CBlocksColumn::`RTTI Complete Object Locator'
PUBLIC	??_R0?AVCBlocksColumn@@@8			; CBlocksColumn `RTTI Type Descriptor'
PUBLIC	??_R3CBlocksColumn@@8				; CBlocksColumn::`RTTI Class Hierarchy Descriptor'
PUBLIC	??_R2CBlocksColumn@@8				; CBlocksColumn::`RTTI Base Class Array'
PUBLIC	??_R1A@?0A@EA@CBlocksColumn@@8			; CBlocksColumn::`RTTI Base Class Descriptor at (0,-1,0,64)'
PUBLIC	??_R4?$CTypedPtrList@VCObList@@PAVCBlockImp@@@@6B@ ; CTypedPtrList<CObList,CBlockImp *>::`RTTI Complete Object Locator'
PUBLIC	??_R0?AV?$CTypedPtrList@VCObList@@PAVCBlockImp@@@@@8 ; CTypedPtrList<CObList,CBlockImp *> `RTTI Type Descriptor'
PUBLIC	??_R3?$CTypedPtrList@VCObList@@PAVCBlockImp@@@@8 ; CTypedPtrList<CObList,CBlockImp *>::`RTTI Class Hierarchy Descriptor'
PUBLIC	??_R2?$CTypedPtrList@VCObList@@PAVCBlockImp@@@@8 ; CTypedPtrList<CObList,CBlockImp *>::`RTTI Base Class Array'
PUBLIC	??_R1A@?0A@EA@?$CTypedPtrList@VCObList@@PAVCBlockImp@@@@8 ; CTypedPtrList<CObList,CBlockImp *>::`RTTI Base Class Descriptor at (0,-1,0,64)'
PUBLIC	??_R1A@?0A@EA@?$_CTypedPtrList@VCObList@@PAVCBlockImp@@@@8 ; _CTypedPtrList<CObList,CBlockImp *>::`RTTI Base Class Descriptor at (0,-1,0,64)'
PUBLIC	??_R0?AV?$_CTypedPtrList@VCObList@@PAVCBlockImp@@@@@8 ; _CTypedPtrList<CObList,CBlockImp *> `RTTI Type Descriptor'
PUBLIC	??_R3?$_CTypedPtrList@VCObList@@PAVCBlockImp@@@@8 ; _CTypedPtrList<CObList,CBlockImp *>::`RTTI Class Hierarchy Descriptor'
PUBLIC	??_R2?$_CTypedPtrList@VCObList@@PAVCBlockImp@@@@8 ; _CTypedPtrList<CObList,CBlockImp *>::`RTTI Base Class Array'
PUBLIC	??_R4?$_CTypedPtrList@VCObList@@PAVCBlockImp@@@@6B@ ; _CTypedPtrList<CObList,CBlockImp *>::`RTTI Complete Object Locator'
PUBLIC	??_R4?$CList@VCSubGraphViewData@@AAV1@@@6B@	; CList<CSubGraphViewData,CSubGraphViewData &>::`RTTI Complete Object Locator'
PUBLIC	??_R0?AV?$CList@VCSubGraphViewData@@AAV1@@@@8	; CList<CSubGraphViewData,CSubGraphViewData &> `RTTI Type Descriptor'
PUBLIC	??_R3?$CList@VCSubGraphViewData@@AAV1@@@8	; CList<CSubGraphViewData,CSubGraphViewData &>::`RTTI Class Hierarchy Descriptor'
PUBLIC	??_R2?$CList@VCSubGraphViewData@@AAV1@@@8	; CList<CSubGraphViewData,CSubGraphViewData &>::`RTTI Base Class Array'
PUBLIC	??_R1A@?0A@EA@?$CList@VCSubGraphViewData@@AAV1@@@8 ; CList<CSubGraphViewData,CSubGraphViewData &>::`RTTI Base Class Descriptor at (0,-1,0,64)'
PUBLIC	??_R4CGraphSearchInfo_BlocksColumn@@6B@		; CGraphSearchInfo_BlocksColumn::`RTTI Complete Object Locator'
PUBLIC	??_R0?AVCGraphSearchInfo_BlocksColumn@@@8	; CGraphSearchInfo_BlocksColumn `RTTI Type Descriptor'
PUBLIC	??_R3CGraphSearchInfo_BlocksColumn@@8		; CGraphSearchInfo_BlocksColumn::`RTTI Class Hierarchy Descriptor'
PUBLIC	??_R2CGraphSearchInfo_BlocksColumn@@8		; CGraphSearchInfo_BlocksColumn::`RTTI Base Class Array'
PUBLIC	??_R1A@?0A@EA@CGraphSearchInfo_BlocksColumn@@8	; CGraphSearchInfo_BlocksColumn::`RTTI Base Class Descriptor at (0,-1,0,64)'
PUBLIC	??_R1A@?0A@EA@CGraphSearchInfo@@8		; CGraphSearchInfo::`RTTI Base Class Descriptor at (0,-1,0,64)'
PUBLIC	??_R0?AVCGraphSearchInfo@@@8			; CGraphSearchInfo `RTTI Type Descriptor'
PUBLIC	??_R3CGraphSearchInfo@@8			; CGraphSearchInfo::`RTTI Class Hierarchy Descriptor'
PUBLIC	??_R2CGraphSearchInfo@@8			; CGraphSearchInfo::`RTTI Base Class Array'
PUBLIC	??_R4CGraphSearchInfo_OtherBlock@@6B@		; CGraphSearchInfo_OtherBlock::`RTTI Complete Object Locator'
PUBLIC	??_R0?AVCGraphSearchInfo_OtherBlock@@@8		; CGraphSearchInfo_OtherBlock `RTTI Type Descriptor'
PUBLIC	??_R3CGraphSearchInfo_OtherBlock@@8		; CGraphSearchInfo_OtherBlock::`RTTI Class Hierarchy Descriptor'
PUBLIC	??_R2CGraphSearchInfo_OtherBlock@@8		; CGraphSearchInfo_OtherBlock::`RTTI Base Class Array'
PUBLIC	??_R1A@?0A@EA@CGraphSearchInfo_OtherBlock@@8	; CGraphSearchInfo_OtherBlock::`RTTI Base Class Descriptor at (0,-1,0,64)'
PUBLIC	??_R4CGraphSearchInfo_ActiveVertScaleAndGridLine@@6B@ ; CGraphSearchInfo_ActiveVertScaleAndGridLine::`RTTI Complete Object Locator'
PUBLIC	??_R0?AVCGraphSearchInfo_ActiveVertScaleAndGridLine@@@8 ; CGraphSearchInfo_ActiveVertScaleAndGridLine `RTTI Type Descriptor'
PUBLIC	??_R3CGraphSearchInfo_ActiveVertScaleAndGridLine@@8 ; CGraphSearchInfo_ActiveVertScaleAndGridLine::`RTTI Class Hierarchy Descriptor'
PUBLIC	??_R2CGraphSearchInfo_ActiveVertScaleAndGridLine@@8 ; CGraphSearchInfo_ActiveVertScaleAndGridLine::`RTTI Base Class Array'
PUBLIC	??_R1A@?0A@EA@CGraphSearchInfo_ActiveVertScaleAndGridLine@@8 ; CGraphSearchInfo_ActiveVertScaleAndGridLine::`RTTI Base Class Descriptor at (0,-1,0,64)'
PUBLIC	??_R4CGraphSearchInfo_AnyGraph@@6B@		; CGraphSearchInfo_AnyGraph::`RTTI Complete Object Locator'
PUBLIC	??_R0?AVCGraphSearchInfo_AnyGraph@@@8		; CGraphSearchInfo_AnyGraph `RTTI Type Descriptor'
PUBLIC	??_R3CGraphSearchInfo_AnyGraph@@8		; CGraphSearchInfo_AnyGraph::`RTTI Class Hierarchy Descriptor'
PUBLIC	??_R2CGraphSearchInfo_AnyGraph@@8		; CGraphSearchInfo_AnyGraph::`RTTI Base Class Array'
PUBLIC	??_R1A@?0A@EA@CGraphSearchInfo_AnyGraph@@8	; CGraphSearchInfo_AnyGraph::`RTTI Base Class Descriptor at (0,-1,0,64)'
PUBLIC	??_R4CGraphSearchInfo_IndicatorName@@6B@	; CGraphSearchInfo_IndicatorName::`RTTI Complete Object Locator'
PUBLIC	??_R0?AVCGraphSearchInfo_IndicatorName@@@8	; CGraphSearchInfo_IndicatorName `RTTI Type Descriptor'
PUBLIC	??_R3CGraphSearchInfo_IndicatorName@@8		; CGraphSearchInfo_IndicatorName::`RTTI Class Hierarchy Descriptor'
PUBLIC	??_R2CGraphSearchInfo_IndicatorName@@8		; CGraphSearchInfo_IndicatorName::`RTTI Base Class Array'
PUBLIC	??_R1A@?0A@EA@CGraphSearchInfo_IndicatorName@@8	; CGraphSearchInfo_IndicatorName::`RTTI Base Class Descriptor at (0,-1,0,64)'
PUBLIC	??_R4CGraphSearchInfo_VisibleSubGraph@@6B@	; CGraphSearchInfo_VisibleSubGraph::`RTTI Complete Object Locator'
PUBLIC	??_R0?AVCGraphSearchInfo_VisibleSubGraph@@@8	; CGraphSearchInfo_VisibleSubGraph `RTTI Type Descriptor'
PUBLIC	??_R3CGraphSearchInfo_VisibleSubGraph@@8	; CGraphSearchInfo_VisibleSubGraph::`RTTI Class Hierarchy Descriptor'
PUBLIC	??_R2CGraphSearchInfo_VisibleSubGraph@@8	; CGraphSearchInfo_VisibleSubGraph::`RTTI Base Class Array'
PUBLIC	??_R1A@?0A@EA@CGraphSearchInfo_VisibleSubGraph@@8 ; CGraphSearchInfo_VisibleSubGraph::`RTTI Base Class Descriptor at (0,-1,0,64)'
EXTRN	??_L@YGXPAXIIP6EX0@Z1@Z:PROC			; `eh vector constructor iterator'
EXTRN	??_M@YGXPAXIIP6EX0@Z@Z:PROC			; `eh vector destructor iterator'
EXTRN	??2@YAPAXI@Z:PROC				; operator new
EXTRN	??3@YAXPAX@Z:PROC				; operator delete
EXTRN	??3@YAXPAXI@Z:PROC				; operator delete
EXTRN	?__global_delete@@YAXPAXI@Z:PROC		; __global_delete
EXTRN	___std_terminate:PROC
EXTRN	_strstr:PROC
EXTRN	__imp__GetProcAddress@8:PROC
EXTRN	__imp__MessageBoxA@16:PROC
EXTRN	?AfxThrowInvalidArgException@@YGXXZ:PROC	; AfxThrowInvalidArgException
EXTRN	?AfxThrowArchiveException@@YGXHPBD@Z:PROC	; AfxThrowArchiveException
EXTRN	?GetRuntimeClass@CObject@@UBEPAUCRuntimeClass@@XZ:PROC ; CObject::GetRuntimeClass
EXTRN	__imp_?GetBufferSetLength@?$CSimpleStringT@D$00@ATL@@QAEPADH@Z:PROC
EXTRN	__imp_??0?$CStringT@DV?$StrTraitMFC_DLL@DV?$ChTraitsCRT@D@ATL@@@@@ATL@@QAE@XZ:PROC
EXTRN	__imp_??0?$CStringT@DV?$StrTraitMFC_DLL@DV?$ChTraitsCRT@D@ATL@@@@@ATL@@QAE@ABV01@@Z:PROC
EXTRN	__imp_??0?$CStringT@DV?$StrTraitMFC_DLL@DV?$ChTraitsCRT@D@ATL@@@@@ATL@@QAE@PBD@Z:PROC
EXTRN	__imp_??1?$CStringT@DV?$StrTraitMFC_DLL@DV?$ChTraitsCRT@D@ATL@@@@@ATL@@QAE@XZ:PROC
EXTRN	__imp_??4?$CStringT@DV?$StrTraitMFC_DLL@DV?$ChTraitsCRT@D@ATL@@@@@ATL@@QAEAAV01@PBD@Z:PROC
EXTRN	__imp_?Format@?$CStringT@DV?$StrTraitMFC_DLL@DV?$ChTraitsCRT@D@ATL@@@@@ATL@@QAAXPBDZZ:PROC
EXTRN	__imp_?LoadStringA@?$CStringT@DV?$StrTraitMFC_DLL@DV?$ChTraitsCRT@D@ATL@@@@@ATL@@QAEHI@Z:PROC
EXTRN	?Read@CArchive@@QAEIPAXI@Z:PROC			; CArchive::Read
EXTRN	?Write@CArchive@@QAEXPBXI@Z:PROC		; CArchive::Write
EXTRN	?ReadCount@CArchive@@QAEKXZ:PROC		; CArchive::ReadCount
EXTRN	?WriteCount@CArchive@@QAEXK@Z:PROC		; CArchive::WriteCount
EXTRN	?GetRuntimeClass@CObList@@UBEPAUCRuntimeClass@@XZ:PROC ; CObList::GetRuntimeClass
EXTRN	??0CObList@@QAE@H@Z:PROC			; CObList::CObList
EXTRN	?RemoveHead@CObList@@QAEPAVCObject@@XZ:PROC	; CObList::RemoveHead
EXTRN	?AddTail@CObList@@QAEPAU__POSITION@@PAVCObject@@@Z:PROC ; CObList::AddTail
EXTRN	?RemoveAt@CObList@@QAEXPAU__POSITION@@@Z:PROC	; CObList::RemoveAt
EXTRN	?InsertBefore@CObList@@QAEPAU__POSITION@@PAU2@PAVCObject@@@Z:PROC ; CObList::InsertBefore
EXTRN	?InsertAfter@CObList@@QAEPAU__POSITION@@PAU2@PAVCObject@@@Z:PROC ; CObList::InsertAfter
EXTRN	?Find@CObList@@QBEPAU__POSITION@@PAVCObject@@PAU2@@Z:PROC ; CObList::Find
EXTRN	?FindIndex@CObList@@QBEPAU__POSITION@@H@Z:PROC	; CObList::FindIndex
EXTRN	??1CObList@@UAE@XZ:PROC				; CObList::~CObList
EXTRN	?Serialize@CObList@@UAEXAAVCArchive@@@Z:PROC	; CObList::Serialize
EXTRN	??0CStringList@@QAE@H@Z:PROC			; CStringList::CStringList
EXTRN	?AddTail@CStringList@@QAEPAU__POSITION@@PBD@Z:PROC ; CStringList::AddTail
EXTRN	?Find@CStringList@@QBEPAU__POSITION@@PBDPAU2@@Z:PROC ; CStringList::Find
EXTRN	??1CStringList@@UAE@XZ:PROC			; CStringList::~CStringList
EXTRN	?AfxGetModuleState@@YGPAVAFX_MODULE_STATE@@XZ:PROC ; AfxGetModuleState
EXTRN	?AfxGetStaticModuleState@@YGPAVAFX_MODULE_STATE@@XZ:PROC ; AfxGetStaticModuleState
EXTRN	?Create@CPlex@@SGPAU1@AAPAU1@II@Z:PROC		; CPlex::Create
EXTRN	?FreeDataChain@CPlex@@QAEXXZ:PROC		; CPlex::FreeDataChain
EXTRN	?DoModal@CDialog@@UAEHXZ:PROC			; CDialog::DoModal
EXTRN	??1CDialog@@UAE@XZ:PROC				; CDialog::~CDialog
EXTRN	?AfxMessageBox@@YGHPBDII@Z:PROC			; AfxMessageBox
EXTRN	__imp_?SetData@CScale@@QAEXABV?$CStringT@DV?$StrTraitMFC_DLL@DV?$ChTraitsCRT@D@ATL@@@@@ATL@@@Z:PROC
EXTRN	__imp_?SetGridType@CScale@@QAEXW4SCALEGRIDTYPE@CScaleBaseData@@@Z:PROC
EXTRN	__imp_?GetScaleData@CScale@@QBE?AV?$CStringT@DV?$StrTraitMFC_DLL@DV?$ChTraitsCRT@D@ATL@@@@@ATL@@XZ:PROC
EXTRN	__imp_?GetGridType@CScale@@QBE?AW4SCALEGRIDTYPE@CScaleBaseData@@XZ:PROC
EXTRN	__imp_??4CHorizontalScale@@QAEAAV0@ABV0@@Z:PROC
EXTRN	__imp_??0CHorizontalScale@@QAE@XZ:PROC
EXTRN	__imp_?SetScaleData@CHorizontalScale@@UAEXPADPAUHWND__@@@Z:PROC
EXTRN	__imp_?GetHorzScalePosition@CHorizontalScale@@QBE?AW4HORZSCALEPOSITION@CScaleBaseData@@XZ:PROC
EXTRN	__imp_?GetScaleHeight@CHorizontalScale@@QBEHXZ:PROC
EXTRN	__imp_??1CHorizontalScale@@QAE@XZ:PROC
EXTRN	__imp_??0CVerticalScale@@QAE@XZ:PROC
EXTRN	__imp_??4CVerticalScale@@QAEAAV0@ABV0@@Z:PROC
EXTRN	__imp_?SetVertScalePosition@CVerticalScale@@QAEXW4VERTSCALEPOSITION@CScaleBaseData@@@Z:PROC
EXTRN	__imp_??1CVerticalScale@@QAE@XZ:PROC
EXTRN	__imp_??0CVertScaleRegionWidth@@QAE@XZ:PROC
EXTRN	__imp_??0CVertScaleRegionWidth@@QAE@HH@Z:PROC
EXTRN	__imp_??4CDisplayDataMinMax@@QAEAAV0@ABV0@@Z:PROC
EXTRN	??_E?$_CTypedPtrList@VCObList@@PAVCBlockImp@@@@UAEPAXI@Z:PROC ; _CTypedPtrList<CObList,CBlockImp *>::`vector deleting destructor'
EXTRN	??_E?$CTypedPtrList@VCObList@@PAVCBlockImp@@@@UAEPAXI@Z:PROC ; CTypedPtrList<CObList,CBlockImp *>::`vector deleting destructor'
EXTRN	??_ECBlocksColumn@@UAEPAXI@Z:PROC		; CBlocksColumn::`vector deleting destructor'
EXTRN	?GetStringDataCount@CDataConversion@@SAHABV?$CStringT@DV?$StrTraitMFC_DLL@DV?$ChTraitsCRT@D@ATL@@@@@ATL@@0@Z:PROC ; CDataConversion::GetStringDataCount
EXTRN	??4CSubGraphViewData@@QAEAAV0@ABV0@@Z:PROC	; CSubGraphViewData::operator=
EXTRN	??0CSubGraphViewData@@QAE@XZ:PROC		; CSubGraphViewData::CSubGraphViewData
EXTRN	??_E?$CList@VCSubGraphViewData@@AAV1@@@UAEPAXI@Z:PROC ; CList<CSubGraphViewData,CSubGraphViewData &>::`vector deleting destructor'
EXTRN	??0CRowViewData@@QAE@XZ:PROC			; CRowViewData::CRowViewData
EXTRN	??0CRowViewData@@QAE@ABV0@@Z:PROC		; CRowViewData::CRowViewData
EXTRN	?SetHorzScaleName@CRowViewData@@QAEXABV?$CStringT@DV?$StrTraitMFC_DLL@DV?$ChTraitsCRT@D@ATL@@@@@ATL@@@Z:PROC ; CRowViewData::SetHorzScaleName
EXTRN	?GetSubGraphViewDataCount@CRowViewData@@QBEHXZ:PROC ; CRowViewData::GetSubGraphViewDataCount
EXTRN	?AddTail@CColumnViewData@@QAEXVCRowViewData@@@Z:PROC ; CColumnViewData::AddTail
EXTRN	??0CInsertingBlockHorzScaleData@@QAE@_NABVCHorizontalScale@@@Z:PROC ; CInsertingBlockHorzScaleData::CInsertingBlockHorzScaleData
EXTRN	?IsOnlyBottomBlockShow@CInsertingBlockHorzScaleData@@QBE_NXZ:PROC ; CInsertingBlockHorzScaleData::IsOnlyBottomBlockShow
EXTRN	?GetHorizontalScale@CInsertingBlockHorzScaleData@@QAEAAVCHorizontalScale@@XZ:PROC ; CInsertingBlockHorzScaleData::GetHorizontalScale
EXTRN	?SetOnlyBottomBlockShow@CInsertingBlockHorzScaleData@@QAEX_N@Z:PROC ; CInsertingBlockHorzScaleData::SetOnlyBottomBlockShow
EXTRN	??0CHorizontalScalePtrData@@QAE@PAVCHorizontalScale@@ABV?$CStringT@DV?$StrTraitMFC_DLL@DV?$ChTraitsCRT@D@ATL@@@@@ATL@@@Z:PROC ; CHorizontalScalePtrData::CHorizontalScalePtrData
EXTRN	?AddTail@CHorizontalScalePtrDataList@@QAEXVCHorizontalScalePtrData@@@Z:PROC ; CHorizontalScalePtrDataList::AddTail
EXTRN	?SetFirstIndex@CHorizontalScalePtrDataList@@QAEXH@Z:PROC ; CHorizontalScalePtrDataList::SetFirstIndex
EXTRN	?SetHorzScaleMessageBoxShow@CScaleAttributes@@QAEX_N@Z:PROC ; CScaleAttributes::SetHorzScaleMessageBoxShow
EXTRN	?GetMinHorzScaleRegionHeight@CScaleAttributes@@QBEHXZ:PROC ; CScaleAttributes::GetMinHorzScaleRegionHeight
EXTRN	?GetScaleAttributes@CMainBlockBaseData@@QAEAAVCScaleAttributes@@XZ:PROC ; CMainBlockBaseData::GetScaleAttributes
EXTRN	?GetParentWnd@CMainBlockBaseData@@QBEPAVCWnd@@XZ:PROC ; CMainBlockBaseData::GetParentWnd
EXTRN	?GetParent_Handle@CMainBlockBaseData@@QBEPAUHWND__@@XZ:PROC ; CMainBlockBaseData::GetParent_Handle
EXTRN	?SendMessageToParent@CMainBlockBaseData@@QAEXABVCBlockBehaviorData@@@Z:PROC ; CMainBlockBaseData::SendMessageToParent
EXTRN	?DoesMessageBoxShow@CMainBlockBaseData@@QBEHXZ:PROC ; CMainBlockBaseData::DoesMessageBoxShow
EXTRN	?SetDoubleSize@CBlockData@@QAEX_N@Z:PROC	; CBlockData::SetDoubleSize
EXTRN	?SetVertScaleLogType@CBlockData@@QAEX_N@Z:PROC	; CBlockData::SetVertScaleLogType
EXTRN	?SetHorzScale@CBlockData@@QAEXABVCHorizontalScale@@@Z:PROC ; CBlockData::SetHorzScale
EXTRN	?GetHorzScale@CBlockData@@QAEAAVCHorizontalScale@@XZ:PROC ; CBlockData::GetHorzScale
EXTRN	?GetBlockRegion@CBlocksPosition@@QBE?AVCRect@@ABVCBlockIndex@@@Z:PROC ; CBlocksPosition::GetBlockRegion
EXTRN	?GetInterBlockHalfGap@CBlocksPosition@@QBEHXZ:PROC ; CBlocksPosition::GetInterBlockHalfGap
EXTRN	?MoveBlockPosition@CBlocksPosition@@QAE_NHHW4BLOCKTYPE@CBlockBaseData@@@Z:PROC ; CBlocksPosition::MoveBlockPosition
EXTRN	?GetMainBlockBaseData@CMainBlockImp@@QBEPAVCMainBlockBaseData@@XZ:PROC ; CMainBlockImp::GetMainBlockBaseData
EXTRN	?FindGraph@CMainBlockImp@@QBEHPAVCGraphSearchInfo@@@Z:PROC ; CMainBlockImp::FindGraph
EXTRN	?FindBlockNumber@CMainBlockImp@@QBE?AVCBlockIndex@@PAVCBlockImp@@@Z:PROC ; CMainBlockImp::FindBlockNumber
EXTRN	?AddTailInNoEqual@CVertScaleGroupList@@QAE_NPAVCVertScaleGroup@@@Z:PROC ; CVertScaleGroupList::AddTailInNoEqual
EXTRN	?MakeVertScaleGroups_Empty@CVertScaleGroupList@@QAE_NH@Z:PROC ; CVertScaleGroupList::MakeVertScaleGroups_Empty
EXTRN	?RemoveAt@CVertScaleGroupList@@QAEHPAVCVertScaleGroup@@_N@Z:PROC ; CVertScaleGroupList::RemoveAt
EXTRN	?DeleteAllIndicator@CVertScaleGroupList@@QAEHPBD@Z:PROC ; CVertScaleGroupList::DeleteAllIndicator
EXTRN	?GetVertScaleGroup@CVertScaleGroupList@@QBEPAVCVertScaleGroup@@H@Z:PROC ; CVertScaleGroupList::GetVertScaleGroup
EXTRN	?FindGraph@CVertScaleGroupList@@QBEHPAVCGraphSearchInfo@@@Z:PROC ; CVertScaleGroupList::FindGraph
EXTRN	?GetRowViewData@CVertScaleGroupList@@QBEXPBDAAVCRowViewData@@@Z:PROC ; CVertScaleGroupList::GetRowViewData
EXTRN	?GetCount@CVertScaleGroupList@@QBEHXZ:PROC	; CVertScaleGroupList::GetCount
EXTRN	?SetScaleGridType@CVertScaleGroupList@@QAEXW4SCALEGRIDTYPE@CScaleBaseData@@@Z:PROC ; CVertScaleGroupList::SetScaleGridType
EXTRN	?SetAllVertScalePosition@CVertScaleGroupList@@QAEXW4VERTSCALEPOSITION@CScaleBaseData@@@Z:PROC ; CVertScaleGroupList::SetAllVertScalePosition
EXTRN	?SetAllVScaleMinMaxType@CVertScaleGroupList@@QAEXW4VERTMINMAXTYPE@CScaleBaseData@@@Z:PROC ; CVertScaleGroupList::SetAllVScaleMinMaxType
EXTRN	?ReleaseAllVScaleSettingInFixedMinMax@CVertScaleGroupList@@QAEXXZ:PROC ; CVertScaleGroupList::ReleaseAllVScaleSettingInFixedMinMax
EXTRN	?CalculateDisplayDataMinMaxAllVertScaleGroup@CVertScaleGroupList@@QAEXXZ:PROC ; CVertScaleGroupList::CalculateDisplayDataMinMaxAllVertScaleGroup
EXTRN	?GetAllIndicatorName@CVertScaleGroupList@@QBE_NAAV?$CList@V?$CStringT@DV?$StrTraitMFC_DLL@DV?$ChTraitsCRT@D@ATL@@@@@ATL@@V12@@@@Z:PROC ; CVertScaleGroupList::GetAllIndicatorName
EXTRN	?GetAllGraphName@CVertScaleGroupList@@QBE_NAAV?$CList@V?$CStringT@DV?$StrTraitMFC_DLL@DV?$ChTraitsCRT@D@ATL@@@@@ATL@@V12@@@@Z:PROC ; CVertScaleGroupList::GetAllGraphName
EXTRN	?ShowIndicator@CVertScaleGroupList@@QAEXPBDHH@Z:PROC ; CVertScaleGroupList::ShowIndicator
EXTRN	?Initialize_Packet@CVertScaleGroupList@@QAE_NABV?$CStringT@DV?$StrTraitMFC_DLL@DV?$ChTraitsCRT@D@ATL@@@@@ATL@@_N@Z:PROC ; CVertScaleGroupList::Initialize_Packet
EXTRN	?ChangeIndicatorPacketNames@CVertScaleGroupList@@QAEHPBDH0@Z:PROC ; CVertScaleGroupList::ChangeIndicatorPacketNames
EXTRN	?Initialize_IndicatorInfo@CVertScaleGroupList@@QAEX_N@Z:PROC ; CVertScaleGroupList::Initialize_IndicatorInfo
EXTRN	?ChangeAllIndicatorInfoFromGraphData@CVertScaleGroupList@@QAE_NXZ:PROC ; CVertScaleGroupList::ChangeAllIndicatorInfoFromGraphData
EXTRN	?ChangeAllGraphDataFromIndicatorInfo@CVertScaleGroupList@@QAEHH@Z:PROC ; CVertScaleGroupList::ChangeAllGraphDataFromIndicatorInfo
EXTRN	?ChangeAllMapDefaultIndicatorInfo@CVertScaleGroupList@@QAE_NPAVCIndicatorList@@@Z:PROC ; CVertScaleGroupList::ChangeAllMapDefaultIndicatorInfo
EXTRN	?CalculateAllGraphs@CVertScaleGroupList@@QAEXW4CALCULATETYPE@CCalculateBaseData@@@Z:PROC ; CVertScaleGroupList::CalculateAllGraphs
EXTRN	?CalculateAllGraphs@CVertScaleGroupList@@QAE_NABV?$CList@V?$CStringT@DV?$StrTraitMFC_DLL@DV?$ChTraitsCRT@D@ATL@@@@@ATL@@V12@@@W4CALCULATETYPE@CCalculateBaseData@@_N@Z:PROC ; CVertScaleGroupList::CalculateAllGraphs
EXTRN	?GetVertScaleRegionWidth@CVertScaleGroupList@@QAEXPAVCDC@@AAH1@Z:PROC ; CVertScaleGroupList::GetVertScaleRegionWidth
EXTRN	?Make@CBlockImp@@SAPAV1@PAVCMainBlockBaseData@@PAVCBlocksColumn@@@Z:PROC ; CBlockImp::Make
EXTRN	?BuildGraphsAndScales@CBlockImp@@QAEXPADAAH@Z:PROC ; CBlockImp::BuildGraphsAndScales
EXTRN	?BuildGraphsAndScales@CBlockImp@@QAEXPAXPAD@Z:PROC ; CBlockImp::BuildGraphsAndScales
EXTRN	?GetBlockAllData@CBlockImp@@QBEXAAVCStringList@@@Z:PROC ; CBlockImp::GetBlockAllData
EXTRN	?Delete@CBlockImp@@SAXPAV1@@Z:PROC		; CBlockImp::Delete
EXTRN	?DrawBlockBackground@CBlockImp@@QAEXPAVCDC@@ABVCRect@@H@Z:PROC ; CBlockImp::DrawBlockBackground
EXTRN	?DrawHorzAndVertScale@CBlockImp@@QAEXPAVCDC@@ABVCRect@@@Z:PROC ; CBlockImp::DrawHorzAndVertScale
EXTRN	?CalculateDrawingRegion@CBlockImp@@QAEXPAVCDC@@ABVCRect@@ABVCVertScaleRegionWidth@@@Z:PROC ; CBlockImp::CalculateDrawingRegion
EXTRN	?DrawAllGraphs@CBlockImp@@QAEXPAVCDC@@ABVCRect@@@Z:PROC ; CBlockImp::DrawAllGraphs
EXTRN	?GetBlockData@CBlockImp@@QAEAAVCBlockData@@XZ:PROC ; CBlockImp::GetBlockData
EXTRN	?GetVertScaleGroupList@CBlockImp@@QAEAAVCVertScaleGroupList@@XZ:PROC ; CBlockImp::GetVertScaleGroupList
EXTRN	?SetAllScaleGridType@CBlockImp@@QAEXW4SCALEGRIDTYPE@CScaleBaseData@@@Z:PROC ; CBlockImp::SetAllScaleGridType
EXTRN	?SetVerticalScale@CVertScaleGroup@@QAEXABVCVerticalScale@@@Z:PROC ; CVertScaleGroup::SetVerticalScale
EXTRN	?GetVertScale@CVertScaleGroup@@QAEAAVCVerticalScale@@XZ:PROC ; CVertScaleGroup::GetVertScale
EXTRN	??0CGraphSearchInfo@@QAE@XZ:PROC		; CGraphSearchInfo::CGraphSearchInfo
EXTRN	?ResetInfo@CGraphSearchInfo@@QAEXXZ:PROC	; CGraphSearchInfo::ResetInfo
EXTRN	?FindGraph@CGraphSearchInfo@@UAEHPBVCBlocksColumn@@@Z:PROC ; CGraphSearchInfo::FindGraph
EXTRN	?FindGraph@CGraphSearchInfo@@UAEHPAXPBVCBlockImp@@@Z:PROC ; CGraphSearchInfo::FindGraph
EXTRN	?FindGraph@CGraphSearchInfo@@UAEHPBVCBlockImp@@@Z:PROC ; CGraphSearchInfo::FindGraph
EXTRN	?FindGraph@CGraphSearchInfo@@UAEHPAXPBVCVertScaleGroup@@@Z:PROC ; CGraphSearchInfo::FindGraph
EXTRN	?FindGraph@CGraphSearchInfo@@UAEHPBVCVertScaleGroup@@@Z:PROC ; CGraphSearchInfo::FindGraph
EXTRN	?FindGraph@CGraphSearchInfo@@UAEHPBVCGraphImp@@@Z:PROC ; CGraphSearchInfo::FindGraph
EXTRN	?FindGraph@CGraphSearchInfo@@UAEHPBVCSubGraph@@@Z:PROC ; CGraphSearchInfo::FindGraph
EXTRN	?SetNextStartGraph@CGraphSearchInfo@@QAEXXZ:PROC ; CGraphSearchInfo::SetNextStartGraph
EXTRN	?FindGraph@CGraphSearchInfo_BlocksColumn@@UAEHPBVCBlocksColumn@@@Z:PROC ; CGraphSearchInfo_BlocksColumn::FindGraph
EXTRN	?FindGraph@CGraphSearchInfo_OtherBlock@@UAEHPBVCBlockImp@@@Z:PROC ; CGraphSearchInfo_OtherBlock::FindGraph
EXTRN	?FindGraph@CGraphSearchInfo_ActiveVertScaleAndGridLine@@UAEHPBVCVertScaleGroup@@@Z:PROC ; CGraphSearchInfo_ActiveVertScaleAndGridLine::FindGraph
EXTRN	?FindGraph@CGraphSearchInfo_AnyGraph@@UAEHPBVCGraphImp@@@Z:PROC ; CGraphSearchInfo_AnyGraph::FindGraph
EXTRN	?FindGraph@CGraphSearchInfo_IndicatorName@@UAEHPBVCGraphImp@@@Z:PROC ; CGraphSearchInfo_IndicatorName::FindGraph
EXTRN	?FindGraph@CGraphSearchInfo_VisibleSubGraph@@UAEHPBVCSubGraph@@@Z:PROC ; CGraphSearchInfo_VisibleSubGraph::FindGraph
EXTRN	??0CDlgBlockInsert@@QAE@PAVCWnd@@PAVCMainBlockImp@@PAVCInsertingBlockHorzScaleData@@@Z:PROC ; CDlgBlockInsert::CDlgBlockInsert
EXTRN	@__security_check_cookie@4:PROC
EXTRN	___CxxFrameHandler3:PROC
EXTRN	??_7type_info@@6B@:QWORD			; type_info::`vftable'
EXTRN	?g_iMetaTable@@3VIMetaTable@@A:BYTE		; g_iMetaTable
EXTRN	___security_cookie:DWORD
;	COMDAT ??_R1A@?0A@EA@CGraphSearchInfo_VisibleSubGraph@@8
rdata$r	SEGMENT
??_R1A@?0A@EA@CGraphSearchInfo_VisibleSubGraph@@8 DD FLAT:??_R0?AVCGraphSearchInfo_VisibleSubGraph@@@8 ; CGraphSearchInfo_VisibleSubGraph::`RTTI Base Class Descriptor at (0,-1,0,64)'
	DD	01H
	DD	00H
	DD	0ffffffffH
	DD	00H
	DD	040H
	DD	FLAT:??_R3CGraphSearchInfo_VisibleSubGraph@@8
rdata$r	ENDS
;	COMDAT ??_R2CGraphSearchInfo_VisibleSubGraph@@8
rdata$r	SEGMENT
??_R2CGraphSearchInfo_VisibleSubGraph@@8 DD FLAT:??_R1A@?0A@EA@CGraphSearchInfo_VisibleSubGraph@@8 ; CGraphSearchInfo_VisibleSubGraph::`RTTI Base Class Array'
	DD	FLAT:??_R1A@?0A@EA@CGraphSearchInfo@@8
rdata$r	ENDS
;	COMDAT ??_R3CGraphSearchInfo_VisibleSubGraph@@8
rdata$r	SEGMENT
??_R3CGraphSearchInfo_VisibleSubGraph@@8 DD 00H		; CGraphSearchInfo_VisibleSubGraph::`RTTI Class Hierarchy Descriptor'
	DD	00H
	DD	02H
	DD	FLAT:??_R2CGraphSearchInfo_VisibleSubGraph@@8
rdata$r	ENDS
;	COMDAT ??_R0?AVCGraphSearchInfo_VisibleSubGraph@@@8
data$rs	SEGMENT
??_R0?AVCGraphSearchInfo_VisibleSubGraph@@@8 DD FLAT:??_7type_info@@6B@ ; CGraphSearchInfo_VisibleSubGraph `RTTI Type Descriptor'
	DD	00H
	DB	'.?AVCGraphSearchInfo_VisibleSubGraph@@', 00H
data$rs	ENDS
;	COMDAT ??_R4CGraphSearchInfo_VisibleSubGraph@@6B@
rdata$r	SEGMENT
??_R4CGraphSearchInfo_VisibleSubGraph@@6B@ DD 00H	; CGraphSearchInfo_VisibleSubGraph::`RTTI Complete Object Locator'
	DD	00H
	DD	00H
	DD	FLAT:??_R0?AVCGraphSearchInfo_VisibleSubGraph@@@8
	DD	FLAT:??_R3CGraphSearchInfo_VisibleSubGraph@@8
rdata$r	ENDS
;	COMDAT ??_R1A@?0A@EA@CGraphSearchInfo_IndicatorName@@8
rdata$r	SEGMENT
??_R1A@?0A@EA@CGraphSearchInfo_IndicatorName@@8 DD FLAT:??_R0?AVCGraphSearchInfo_IndicatorName@@@8 ; CGraphSearchInfo_IndicatorName::`RTTI Base Class Descriptor at (0,-1,0,64)'
	DD	01H
	DD	00H
	DD	0ffffffffH
	DD	00H
	DD	040H
	DD	FLAT:??_R3CGraphSearchInfo_IndicatorName@@8
rdata$r	ENDS
;	COMDAT ??_R2CGraphSearchInfo_IndicatorName@@8
rdata$r	SEGMENT
??_R2CGraphSearchInfo_IndicatorName@@8 DD FLAT:??_R1A@?0A@EA@CGraphSearchInfo_IndicatorName@@8 ; CGraphSearchInfo_IndicatorName::`RTTI Base Class Array'
	DD	FLAT:??_R1A@?0A@EA@CGraphSearchInfo@@8
rdata$r	ENDS
;	COMDAT ??_R3CGraphSearchInfo_IndicatorName@@8
rdata$r	SEGMENT
??_R3CGraphSearchInfo_IndicatorName@@8 DD 00H		; CGraphSearchInfo_IndicatorName::`RTTI Class Hierarchy Descriptor'
	DD	00H
	DD	02H
	DD	FLAT:??_R2CGraphSearchInfo_IndicatorName@@8
rdata$r	ENDS
;	COMDAT ??_R0?AVCGraphSearchInfo_IndicatorName@@@8
data$rs	SEGMENT
??_R0?AVCGraphSearchInfo_IndicatorName@@@8 DD FLAT:??_7type_info@@6B@ ; CGraphSearchInfo_IndicatorName `RTTI Type Descriptor'
	DD	00H
	DB	'.?AVCGraphSearchInfo_IndicatorName@@', 00H
data$rs	ENDS
;	COMDAT ??_R4CGraphSearchInfo_IndicatorName@@6B@
rdata$r	SEGMENT
??_R4CGraphSearchInfo_IndicatorName@@6B@ DD 00H		; CGraphSearchInfo_IndicatorName::`RTTI Complete Object Locator'
	DD	00H
	DD	00H
	DD	FLAT:??_R0?AVCGraphSearchInfo_IndicatorName@@@8
	DD	FLAT:??_R3CGraphSearchInfo_IndicatorName@@8
rdata$r	ENDS
;	COMDAT ??_R1A@?0A@EA@CGraphSearchInfo_AnyGraph@@8
rdata$r	SEGMENT
??_R1A@?0A@EA@CGraphSearchInfo_AnyGraph@@8 DD FLAT:??_R0?AVCGraphSearchInfo_AnyGraph@@@8 ; CGraphSearchInfo_AnyGraph::`RTTI Base Class Descriptor at (0,-1,0,64)'
	DD	01H
	DD	00H
	DD	0ffffffffH
	DD	00H
	DD	040H
	DD	FLAT:??_R3CGraphSearchInfo_AnyGraph@@8
rdata$r	ENDS
;	COMDAT ??_R2CGraphSearchInfo_AnyGraph@@8
rdata$r	SEGMENT
??_R2CGraphSearchInfo_AnyGraph@@8 DD FLAT:??_R1A@?0A@EA@CGraphSearchInfo_AnyGraph@@8 ; CGraphSearchInfo_AnyGraph::`RTTI Base Class Array'
	DD	FLAT:??_R1A@?0A@EA@CGraphSearchInfo@@8
rdata$r	ENDS
;	COMDAT ??_R3CGraphSearchInfo_AnyGraph@@8
rdata$r	SEGMENT
??_R3CGraphSearchInfo_AnyGraph@@8 DD 00H		; CGraphSearchInfo_AnyGraph::`RTTI Class Hierarchy Descriptor'
	DD	00H
	DD	02H
	DD	FLAT:??_R2CGraphSearchInfo_AnyGraph@@8
rdata$r	ENDS
;	COMDAT ??_R0?AVCGraphSearchInfo_AnyGraph@@@8
data$rs	SEGMENT
??_R0?AVCGraphSearchInfo_AnyGraph@@@8 DD FLAT:??_7type_info@@6B@ ; CGraphSearchInfo_AnyGraph `RTTI Type Descriptor'
	DD	00H
	DB	'.?AVCGraphSearchInfo_AnyGraph@@', 00H
data$rs	ENDS
;	COMDAT ??_R4CGraphSearchInfo_AnyGraph@@6B@
rdata$r	SEGMENT
??_R4CGraphSearchInfo_AnyGraph@@6B@ DD 00H		; CGraphSearchInfo_AnyGraph::`RTTI Complete Object Locator'
	DD	00H
	DD	00H
	DD	FLAT:??_R0?AVCGraphSearchInfo_AnyGraph@@@8
	DD	FLAT:??_R3CGraphSearchInfo_AnyGraph@@8
rdata$r	ENDS
;	COMDAT ??_R1A@?0A@EA@CGraphSearchInfo_ActiveVertScaleAndGridLine@@8
rdata$r	SEGMENT
??_R1A@?0A@EA@CGraphSearchInfo_ActiveVertScaleAndGridLine@@8 DD FLAT:??_R0?AVCGraphSearchInfo_ActiveVertScaleAndGridLine@@@8 ; CGraphSearchInfo_ActiveVertScaleAndGridLine::`RTTI Base Class Descriptor at (0,-1,0,64)'
	DD	01H
	DD	00H
	DD	0ffffffffH
	DD	00H
	DD	040H
	DD	FLAT:??_R3CGraphSearchInfo_ActiveVertScaleAndGridLine@@8
rdata$r	ENDS
;	COMDAT ??_R2CGraphSearchInfo_ActiveVertScaleAndGridLine@@8
rdata$r	SEGMENT
??_R2CGraphSearchInfo_ActiveVertScaleAndGridLine@@8 DD FLAT:??_R1A@?0A@EA@CGraphSearchInfo_ActiveVertScaleAndGridLine@@8 ; CGraphSearchInfo_ActiveVertScaleAndGridLine::`RTTI Base Class Array'
	DD	FLAT:??_R1A@?0A@EA@CGraphSearchInfo@@8
rdata$r	ENDS
;	COMDAT ??_R3CGraphSearchInfo_ActiveVertScaleAndGridLine@@8
rdata$r	SEGMENT
??_R3CGraphSearchInfo_ActiveVertScaleAndGridLine@@8 DD 00H ; CGraphSearchInfo_ActiveVertScaleAndGridLine::`RTTI Class Hierarchy Descriptor'
	DD	00H
	DD	02H
	DD	FLAT:??_R2CGraphSearchInfo_ActiveVertScaleAndGridLine@@8
rdata$r	ENDS
;	COMDAT ??_R0?AVCGraphSearchInfo_ActiveVertScaleAndGridLine@@@8
data$rs	SEGMENT
??_R0?AVCGraphSearchInfo_ActiveVertScaleAndGridLine@@@8 DD FLAT:??_7type_info@@6B@ ; CGraphSearchInfo_ActiveVertScaleAndGridLine `RTTI Type Descriptor'
	DD	00H
	DB	'.?AVCGraphSearchInfo_ActiveVertScaleAndGridLine@@', 00H
data$rs	ENDS
;	COMDAT ??_R4CGraphSearchInfo_ActiveVertScaleAndGridLine@@6B@
rdata$r	SEGMENT
??_R4CGraphSearchInfo_ActiveVertScaleAndGridLine@@6B@ DD 00H ; CGraphSearchInfo_ActiveVertScaleAndGridLine::`RTTI Complete Object Locator'
	DD	00H
	DD	00H
	DD	FLAT:??_R0?AVCGraphSearchInfo_ActiveVertScaleAndGridLine@@@8
	DD	FLAT:??_R3CGraphSearchInfo_ActiveVertScaleAndGridLine@@8
rdata$r	ENDS
;	COMDAT ??_R1A@?0A@EA@CGraphSearchInfo_OtherBlock@@8
rdata$r	SEGMENT
??_R1A@?0A@EA@CGraphSearchInfo_OtherBlock@@8 DD FLAT:??_R0?AVCGraphSearchInfo_OtherBlock@@@8 ; CGraphSearchInfo_OtherBlock::`RTTI Base Class Descriptor at (0,-1,0,64)'
	DD	01H
	DD	00H
	DD	0ffffffffH
	DD	00H
	DD	040H
	DD	FLAT:??_R3CGraphSearchInfo_OtherBlock@@8
rdata$r	ENDS
;	COMDAT ??_R2CGraphSearchInfo_OtherBlock@@8
rdata$r	SEGMENT
??_R2CGraphSearchInfo_OtherBlock@@8 DD FLAT:??_R1A@?0A@EA@CGraphSearchInfo_OtherBlock@@8 ; CGraphSearchInfo_OtherBlock::`RTTI Base Class Array'
	DD	FLAT:??_R1A@?0A@EA@CGraphSearchInfo@@8
rdata$r	ENDS
;	COMDAT ??_R3CGraphSearchInfo_OtherBlock@@8
rdata$r	SEGMENT
??_R3CGraphSearchInfo_OtherBlock@@8 DD 00H		; CGraphSearchInfo_OtherBlock::`RTTI Class Hierarchy Descriptor'
	DD	00H
	DD	02H
	DD	FLAT:??_R2CGraphSearchInfo_OtherBlock@@8
rdata$r	ENDS
;	COMDAT ??_R0?AVCGraphSearchInfo_OtherBlock@@@8
data$rs	SEGMENT
??_R0?AVCGraphSearchInfo_OtherBlock@@@8 DD FLAT:??_7type_info@@6B@ ; CGraphSearchInfo_OtherBlock `RTTI Type Descriptor'
	DD	00H
	DB	'.?AVCGraphSearchInfo_OtherBlock@@', 00H
data$rs	ENDS
;	COMDAT ??_R4CGraphSearchInfo_OtherBlock@@6B@
rdata$r	SEGMENT
??_R4CGraphSearchInfo_OtherBlock@@6B@ DD 00H		; CGraphSearchInfo_OtherBlock::`RTTI Complete Object Locator'
	DD	00H
	DD	00H
	DD	FLAT:??_R0?AVCGraphSearchInfo_OtherBlock@@@8
	DD	FLAT:??_R3CGraphSearchInfo_OtherBlock@@8
rdata$r	ENDS
;	COMDAT ??_R2CGraphSearchInfo@@8
rdata$r	SEGMENT
??_R2CGraphSearchInfo@@8 DD FLAT:??_R1A@?0A@EA@CGraphSearchInfo@@8 ; CGraphSearchInfo::`RTTI Base Class Array'
rdata$r	ENDS
;	COMDAT ??_R3CGraphSearchInfo@@8
rdata$r	SEGMENT
??_R3CGraphSearchInfo@@8 DD 00H				; CGraphSearchInfo::`RTTI Class Hierarchy Descriptor'
	DD	00H
	DD	01H
	DD	FLAT:??_R2CGraphSearchInfo@@8
rdata$r	ENDS
;	COMDAT ??_R0?AVCGraphSearchInfo@@@8
data$rs	SEGMENT
??_R0?AVCGraphSearchInfo@@@8 DD FLAT:??_7type_info@@6B@	; CGraphSearchInfo `RTTI Type Descriptor'
	DD	00H
	DB	'.?AVCGraphSearchInfo@@', 00H
data$rs	ENDS
;	COMDAT ??_R1A@?0A@EA@CGraphSearchInfo@@8
rdata$r	SEGMENT
??_R1A@?0A@EA@CGraphSearchInfo@@8 DD FLAT:??_R0?AVCGraphSearchInfo@@@8 ; CGraphSearchInfo::`RTTI Base Class Descriptor at (0,-1,0,64)'
	DD	00H
	DD	00H
	DD	0ffffffffH
	DD	00H
	DD	040H
	DD	FLAT:??_R3CGraphSearchInfo@@8
rdata$r	ENDS
;	COMDAT ??_R1A@?0A@EA@CGraphSearchInfo_BlocksColumn@@8
rdata$r	SEGMENT
??_R1A@?0A@EA@CGraphSearchInfo_BlocksColumn@@8 DD FLAT:??_R0?AVCGraphSearchInfo_BlocksColumn@@@8 ; CGraphSearchInfo_BlocksColumn::`RTTI Base Class Descriptor at (0,-1,0,64)'
	DD	01H
	DD	00H
	DD	0ffffffffH
	DD	00H
	DD	040H
	DD	FLAT:??_R3CGraphSearchInfo_BlocksColumn@@8
rdata$r	ENDS
;	COMDAT ??_R2CGraphSearchInfo_BlocksColumn@@8
rdata$r	SEGMENT
??_R2CGraphSearchInfo_BlocksColumn@@8 DD FLAT:??_R1A@?0A@EA@CGraphSearchInfo_BlocksColumn@@8 ; CGraphSearchInfo_BlocksColumn::`RTTI Base Class Array'
	DD	FLAT:??_R1A@?0A@EA@CGraphSearchInfo@@8
rdata$r	ENDS
;	COMDAT ??_R3CGraphSearchInfo_BlocksColumn@@8
rdata$r	SEGMENT
??_R3CGraphSearchInfo_BlocksColumn@@8 DD 00H		; CGraphSearchInfo_BlocksColumn::`RTTI Class Hierarchy Descriptor'
	DD	00H
	DD	02H
	DD	FLAT:??_R2CGraphSearchInfo_BlocksColumn@@8
rdata$r	ENDS
;	COMDAT ??_R0?AVCGraphSearchInfo_BlocksColumn@@@8
data$rs	SEGMENT
??_R0?AVCGraphSearchInfo_BlocksColumn@@@8 DD FLAT:??_7type_info@@6B@ ; CGraphSearchInfo_BlocksColumn `RTTI Type Descriptor'
	DD	00H
	DB	'.?AVCGraphSearchInfo_BlocksColumn@@', 00H
data$rs	ENDS
;	COMDAT ??_R4CGraphSearchInfo_BlocksColumn@@6B@
rdata$r	SEGMENT
??_R4CGraphSearchInfo_BlocksColumn@@6B@ DD 00H		; CGraphSearchInfo_BlocksColumn::`RTTI Complete Object Locator'
	DD	00H
	DD	00H
	DD	FLAT:??_R0?AVCGraphSearchInfo_BlocksColumn@@@8
	DD	FLAT:??_R3CGraphSearchInfo_BlocksColumn@@8
rdata$r	ENDS
;	COMDAT ??_R1A@?0A@EA@?$CList@VCSubGraphViewData@@AAV1@@@8
rdata$r	SEGMENT
??_R1A@?0A@EA@?$CList@VCSubGraphViewData@@AAV1@@@8 DD FLAT:??_R0?AV?$CList@VCSubGraphViewData@@AAV1@@@@8 ; CList<CSubGraphViewData,CSubGraphViewData &>::`RTTI Base Class Descriptor at (0,-1,0,64)'
	DD	01H
	DD	00H
	DD	0ffffffffH
	DD	00H
	DD	040H
	DD	FLAT:??_R3?$CList@VCSubGraphViewData@@AAV1@@@8
rdata$r	ENDS
;	COMDAT ??_R2?$CList@VCSubGraphViewData@@AAV1@@@8
rdata$r	SEGMENT
??_R2?$CList@VCSubGraphViewData@@AAV1@@@8 DD FLAT:??_R1A@?0A@EA@?$CList@VCSubGraphViewData@@AAV1@@@8 ; CList<CSubGraphViewData,CSubGraphViewData &>::`RTTI Base Class Array'
	DD	FLAT:??_R1A@?0A@EA@CObject@@8
rdata$r	ENDS
;	COMDAT ??_R3?$CList@VCSubGraphViewData@@AAV1@@@8
rdata$r	SEGMENT
??_R3?$CList@VCSubGraphViewData@@AAV1@@@8 DD 00H	; CList<CSubGraphViewData,CSubGraphViewData &>::`RTTI Class Hierarchy Descriptor'
	DD	00H
	DD	02H
	DD	FLAT:??_R2?$CList@VCSubGraphViewData@@AAV1@@@8
rdata$r	ENDS
;	COMDAT ??_R0?AV?$CList@VCSubGraphViewData@@AAV1@@@@8
data$rs	SEGMENT
??_R0?AV?$CList@VCSubGraphViewData@@AAV1@@@@8 DD FLAT:??_7type_info@@6B@ ; CList<CSubGraphViewData,CSubGraphViewData &> `RTTI Type Descriptor'
	DD	00H
	DB	'.?AV?$CList@VCSubGraphViewData@@AAV1@@@', 00H
data$rs	ENDS
;	COMDAT ??_R4?$CList@VCSubGraphViewData@@AAV1@@@6B@
rdata$r	SEGMENT
??_R4?$CList@VCSubGraphViewData@@AAV1@@@6B@ DD 00H	; CList<CSubGraphViewData,CSubGraphViewData &>::`RTTI Complete Object Locator'
	DD	00H
	DD	00H
	DD	FLAT:??_R0?AV?$CList@VCSubGraphViewData@@AAV1@@@@8
	DD	FLAT:??_R3?$CList@VCSubGraphViewData@@AAV1@@@8
rdata$r	ENDS
;	COMDAT ??_R4?$_CTypedPtrList@VCObList@@PAVCBlockImp@@@@6B@
rdata$r	SEGMENT
??_R4?$_CTypedPtrList@VCObList@@PAVCBlockImp@@@@6B@ DD 00H ; _CTypedPtrList<CObList,CBlockImp *>::`RTTI Complete Object Locator'
	DD	00H
	DD	00H
	DD	FLAT:??_R0?AV?$_CTypedPtrList@VCObList@@PAVCBlockImp@@@@@8
	DD	FLAT:??_R3?$_CTypedPtrList@VCObList@@PAVCBlockImp@@@@8
rdata$r	ENDS
;	COMDAT ??_R2?$_CTypedPtrList@VCObList@@PAVCBlockImp@@@@8
rdata$r	SEGMENT
??_R2?$_CTypedPtrList@VCObList@@PAVCBlockImp@@@@8 DD FLAT:??_R1A@?0A@EA@?$_CTypedPtrList@VCObList@@PAVCBlockImp@@@@8 ; _CTypedPtrList<CObList,CBlockImp *>::`RTTI Base Class Array'
	DD	FLAT:??_R1A@?0A@EA@CObList@@8
	DD	FLAT:??_R1A@?0A@EA@CObject@@8
rdata$r	ENDS
;	COMDAT ??_R3?$_CTypedPtrList@VCObList@@PAVCBlockImp@@@@8
rdata$r	SEGMENT
??_R3?$_CTypedPtrList@VCObList@@PAVCBlockImp@@@@8 DD 00H ; _CTypedPtrList<CObList,CBlockImp *>::`RTTI Class Hierarchy Descriptor'
	DD	00H
	DD	03H
	DD	FLAT:??_R2?$_CTypedPtrList@VCObList@@PAVCBlockImp@@@@8
rdata$r	ENDS
;	COMDAT ??_R0?AV?$_CTypedPtrList@VCObList@@PAVCBlockImp@@@@@8
data$rs	SEGMENT
??_R0?AV?$_CTypedPtrList@VCObList@@PAVCBlockImp@@@@@8 DD FLAT:??_7type_info@@6B@ ; _CTypedPtrList<CObList,CBlockImp *> `RTTI Type Descriptor'
	DD	00H
	DB	'.?AV?$_CTypedPtrList@VCObList@@PAVCBlockImp@@@@', 00H
data$rs	ENDS
;	COMDAT ??_R1A@?0A@EA@?$_CTypedPtrList@VCObList@@PAVCBlockImp@@@@8
rdata$r	SEGMENT
??_R1A@?0A@EA@?$_CTypedPtrList@VCObList@@PAVCBlockImp@@@@8 DD FLAT:??_R0?AV?$_CTypedPtrList@VCObList@@PAVCBlockImp@@@@@8 ; _CTypedPtrList<CObList,CBlockImp *>::`RTTI Base Class Descriptor at (0,-1,0,64)'
	DD	02H
	DD	00H
	DD	0ffffffffH
	DD	00H
	DD	040H
	DD	FLAT:??_R3?$_CTypedPtrList@VCObList@@PAVCBlockImp@@@@8
rdata$r	ENDS
;	COMDAT ??_R1A@?0A@EA@?$CTypedPtrList@VCObList@@PAVCBlockImp@@@@8
rdata$r	SEGMENT
??_R1A@?0A@EA@?$CTypedPtrList@VCObList@@PAVCBlockImp@@@@8 DD FLAT:??_R0?AV?$CTypedPtrList@VCObList@@PAVCBlockImp@@@@@8 ; CTypedPtrList<CObList,CBlockImp *>::`RTTI Base Class Descriptor at (0,-1,0,64)'
	DD	03H
	DD	00H
	DD	0ffffffffH
	DD	00H
	DD	040H
	DD	FLAT:??_R3?$CTypedPtrList@VCObList@@PAVCBlockImp@@@@8
rdata$r	ENDS
;	COMDAT ??_R2?$CTypedPtrList@VCObList@@PAVCBlockImp@@@@8
rdata$r	SEGMENT
??_R2?$CTypedPtrList@VCObList@@PAVCBlockImp@@@@8 DD FLAT:??_R1A@?0A@EA@?$CTypedPtrList@VCObList@@PAVCBlockImp@@@@8 ; CTypedPtrList<CObList,CBlockImp *>::`RTTI Base Class Array'
	DD	FLAT:??_R1A@?0A@EA@?$_CTypedPtrList@VCObList@@PAVCBlockImp@@@@8
	DD	FLAT:??_R1A@?0A@EA@CObList@@8
	DD	FLAT:??_R1A@?0A@EA@CObject@@8
rdata$r	ENDS
;	COMDAT ??_R3?$CTypedPtrList@VCObList@@PAVCBlockImp@@@@8
rdata$r	SEGMENT
??_R3?$CTypedPtrList@VCObList@@PAVCBlockImp@@@@8 DD 00H	; CTypedPtrList<CObList,CBlockImp *>::`RTTI Class Hierarchy Descriptor'
	DD	00H
	DD	04H
	DD	FLAT:??_R2?$CTypedPtrList@VCObList@@PAVCBlockImp@@@@8
rdata$r	ENDS
;	COMDAT ??_R0?AV?$CTypedPtrList@VCObList@@PAVCBlockImp@@@@@8
data$rs	SEGMENT
??_R0?AV?$CTypedPtrList@VCObList@@PAVCBlockImp@@@@@8 DD FLAT:??_7type_info@@6B@ ; CTypedPtrList<CObList,CBlockImp *> `RTTI Type Descriptor'
	DD	00H
	DB	'.?AV?$CTypedPtrList@VCObList@@PAVCBlockImp@@@@', 00H
data$rs	ENDS
;	COMDAT ??_R4?$CTypedPtrList@VCObList@@PAVCBlockImp@@@@6B@
rdata$r	SEGMENT
??_R4?$CTypedPtrList@VCObList@@PAVCBlockImp@@@@6B@ DD 00H ; CTypedPtrList<CObList,CBlockImp *>::`RTTI Complete Object Locator'
	DD	00H
	DD	00H
	DD	FLAT:??_R0?AV?$CTypedPtrList@VCObList@@PAVCBlockImp@@@@@8
	DD	FLAT:??_R3?$CTypedPtrList@VCObList@@PAVCBlockImp@@@@8
rdata$r	ENDS
;	COMDAT ??_R1A@?0A@EA@CBlocksColumn@@8
rdata$r	SEGMENT
??_R1A@?0A@EA@CBlocksColumn@@8 DD FLAT:??_R0?AVCBlocksColumn@@@8 ; CBlocksColumn::`RTTI Base Class Descriptor at (0,-1,0,64)'
	DD	01H
	DD	00H
	DD	0ffffffffH
	DD	00H
	DD	040H
	DD	FLAT:??_R3CBlocksColumn@@8
rdata$r	ENDS
;	COMDAT ??_R2CBlocksColumn@@8
rdata$r	SEGMENT
??_R2CBlocksColumn@@8 DD FLAT:??_R1A@?0A@EA@CBlocksColumn@@8 ; CBlocksColumn::`RTTI Base Class Array'
	DD	FLAT:??_R1A@?0A@EA@CObject@@8
rdata$r	ENDS
;	COMDAT ??_R3CBlocksColumn@@8
rdata$r	SEGMENT
??_R3CBlocksColumn@@8 DD 00H				; CBlocksColumn::`RTTI Class Hierarchy Descriptor'
	DD	00H
	DD	02H
	DD	FLAT:??_R2CBlocksColumn@@8
rdata$r	ENDS
;	COMDAT ??_R0?AVCBlocksColumn@@@8
data$rs	SEGMENT
??_R0?AVCBlocksColumn@@@8 DD FLAT:??_7type_info@@6B@	; CBlocksColumn `RTTI Type Descriptor'
	DD	00H
	DB	'.?AVCBlocksColumn@@', 00H
data$rs	ENDS
;	COMDAT ??_R4CBlocksColumn@@6B@
rdata$r	SEGMENT
??_R4CBlocksColumn@@6B@ DD 00H				; CBlocksColumn::`RTTI Complete Object Locator'
	DD	00H
	DD	00H
	DD	FLAT:??_R0?AVCBlocksColumn@@@8
	DD	FLAT:??_R3CBlocksColumn@@8
rdata$r	ENDS
;	COMDAT ??_C@_07MGCPDNLD@DEFAULT@
CONST	SEGMENT
??_C@_07MGCPDNLD@DEFAULT@ DB 'DEFAULT', 00H		; `string'
CONST	ENDS
;	COMDAT ??_C@_0BA@POFFJEDL@VertScaleGroup?$DL@
CONST	SEGMENT
??_C@_0BA@POFFJEDL@VertScaleGroup?$DL@ DB 'VertScaleGroup;', 00H ; `string'
CONST	ENDS
;	COMDAT ??_C@_0BC@DENBEKI@BlockColumnEnd?$DL?$AN?6@
CONST	SEGMENT
??_C@_0BC@DENBEKI@BlockColumnEnd?$DL?$AN?6@ DB 'BlockColumnEnd;', 0dH, 0aH
	DB	00H						; `string'
CONST	ENDS
;	COMDAT ??_C@_0P@GBPFOBGA@BlockColumn?$DL?$AN?6@
CONST	SEGMENT
??_C@_0P@GBPFOBGA@BlockColumn?$DL?$AN?6@ DB 'BlockColumn;', 0dH, 0aH, 00H ; `string'
CONST	ENDS
;	COMDAT ??_C@_0M@FHFNKLHB@BlockEnd?$DL?$AN?6@
CONST	SEGMENT
??_C@_0M@FHFNKLHB@BlockEnd?$DL?$AN?6@ DB 'BlockEnd;', 0dH, 0aH, 00H ; `string'
CONST	ENDS
;	COMDAT ??_C@_08KGLHHGPJ@Block?$DL?$AN?6@
CONST	SEGMENT
??_C@_08KGLHHGPJ@Block?$DL?$AN?6@ DB 'Block;', 0dH, 0aH, 00H ; `string'
CONST	ENDS
;	COMDAT ??_7CGraphSearchInfo_VisibleSubGraph@@6B@
CONST	SEGMENT
??_7CGraphSearchInfo_VisibleSubGraph@@6B@ DD FLAT:??_R4CGraphSearchInfo_VisibleSubGraph@@6B@ ; CGraphSearchInfo_VisibleSubGraph::`vftable'
	DD	FLAT:?FindGraph@CGraphSearchInfo_VisibleSubGraph@@UAEHPBVCSubGraph@@@Z
	DD	FLAT:?FindGraph@CGraphSearchInfo@@UAEHPBVCGraphImp@@@Z
	DD	FLAT:?FindGraph@CGraphSearchInfo@@UAEHPBVCVertScaleGroup@@@Z
	DD	FLAT:?FindGraph@CGraphSearchInfo@@UAEHPAXPBVCVertScaleGroup@@@Z
	DD	FLAT:?FindGraph@CGraphSearchInfo@@UAEHPBVCBlockImp@@@Z
	DD	FLAT:?FindGraph@CGraphSearchInfo@@UAEHPAXPBVCBlockImp@@@Z
	DD	FLAT:?FindGraph@CGraphSearchInfo@@UAEHPBVCBlocksColumn@@@Z
CONST	ENDS
;	COMDAT ??_7CGraphSearchInfo_IndicatorName@@6B@
CONST	SEGMENT
??_7CGraphSearchInfo_IndicatorName@@6B@ DD FLAT:??_R4CGraphSearchInfo_IndicatorName@@6B@ ; CGraphSearchInfo_IndicatorName::`vftable'
	DD	FLAT:?FindGraph@CGraphSearchInfo@@UAEHPBVCSubGraph@@@Z
	DD	FLAT:?FindGraph@CGraphSearchInfo_IndicatorName@@UAEHPBVCGraphImp@@@Z
	DD	FLAT:?FindGraph@CGraphSearchInfo@@UAEHPBVCVertScaleGroup@@@Z
	DD	FLAT:?FindGraph@CGraphSearchInfo@@UAEHPAXPBVCVertScaleGroup@@@Z
	DD	FLAT:?FindGraph@CGraphSearchInfo@@UAEHPBVCBlockImp@@@Z
	DD	FLAT:?FindGraph@CGraphSearchInfo@@UAEHPAXPBVCBlockImp@@@Z
	DD	FLAT:?FindGraph@CGraphSearchInfo@@UAEHPBVCBlocksColumn@@@Z
CONST	ENDS
;	COMDAT ??_7CGraphSearchInfo_AnyGraph@@6B@
CONST	SEGMENT
??_7CGraphSearchInfo_AnyGraph@@6B@ DD FLAT:??_R4CGraphSearchInfo_AnyGraph@@6B@ ; CGraphSearchInfo_AnyGraph::`vftable'
	DD	FLAT:?FindGraph@CGraphSearchInfo@@UAEHPBVCSubGraph@@@Z
	DD	FLAT:?FindGraph@CGraphSearchInfo_AnyGraph@@UAEHPBVCGraphImp@@@Z
	DD	FLAT:?FindGraph@CGraphSearchInfo@@UAEHPBVCVertScaleGroup@@@Z
	DD	FLAT:?FindGraph@CGraphSearchInfo@@UAEHPAXPBVCVertScaleGroup@@@Z
	DD	FLAT:?FindGraph@CGraphSearchInfo@@UAEHPBVCBlockImp@@@Z
	DD	FLAT:?FindGraph@CGraphSearchInfo@@UAEHPAXPBVCBlockImp@@@Z
	DD	FLAT:?FindGraph@CGraphSearchInfo@@UAEHPBVCBlocksColumn@@@Z
CONST	ENDS
;	COMDAT ??_7CGraphSearchInfo_ActiveVertScaleAndGridLine@@6B@
CONST	SEGMENT
??_7CGraphSearchInfo_ActiveVertScaleAndGridLine@@6B@ DD FLAT:??_R4CGraphSearchInfo_ActiveVertScaleAndGridLine@@6B@ ; CGraphSearchInfo_ActiveVertScaleAndGridLine::`vftable'
	DD	FLAT:?FindGraph@CGraphSearchInfo@@UAEHPBVCSubGraph@@@Z
	DD	FLAT:?FindGraph@CGraphSearchInfo@@UAEHPBVCGraphImp@@@Z
	DD	FLAT:?FindGraph@CGraphSearchInfo_ActiveVertScaleAndGridLine@@UAEHPBVCVertScaleGroup@@@Z
	DD	FLAT:?FindGraph@CGraphSearchInfo@@UAEHPAXPBVCVertScaleGroup@@@Z
	DD	FLAT:?FindGraph@CGraphSearchInfo@@UAEHPBVCBlockImp@@@Z
	DD	FLAT:?FindGraph@CGraphSearchInfo@@UAEHPAXPBVCBlockImp@@@Z
	DD	FLAT:?FindGraph@CGraphSearchInfo@@UAEHPBVCBlocksColumn@@@Z
CONST	ENDS
;	COMDAT ??_7CGraphSearchInfo_OtherBlock@@6B@
CONST	SEGMENT
??_7CGraphSearchInfo_OtherBlock@@6B@ DD FLAT:??_R4CGraphSearchInfo_OtherBlock@@6B@ ; CGraphSearchInfo_OtherBlock::`vftable'
	DD	FLAT:?FindGraph@CGraphSearchInfo@@UAEHPBVCSubGraph@@@Z
	DD	FLAT:?FindGraph@CGraphSearchInfo@@UAEHPBVCGraphImp@@@Z
	DD	FLAT:?FindGraph@CGraphSearchInfo@@UAEHPBVCVertScaleGroup@@@Z
	DD	FLAT:?FindGraph@CGraphSearchInfo@@UAEHPAXPBVCVertScaleGroup@@@Z
	DD	FLAT:?FindGraph@CGraphSearchInfo_OtherBlock@@UAEHPBVCBlockImp@@@Z
	DD	FLAT:?FindGraph@CGraphSearchInfo@@UAEHPAXPBVCBlockImp@@@Z
	DD	FLAT:?FindGraph@CGraphSearchInfo@@UAEHPBVCBlocksColumn@@@Z
CONST	ENDS
;	COMDAT ??_7CGraphSearchInfo_BlocksColumn@@6B@
CONST	SEGMENT
??_7CGraphSearchInfo_BlocksColumn@@6B@ DD FLAT:??_R4CGraphSearchInfo_BlocksColumn@@6B@ ; CGraphSearchInfo_BlocksColumn::`vftable'
	DD	FLAT:?FindGraph@CGraphSearchInfo@@UAEHPBVCSubGraph@@@Z
	DD	FLAT:?FindGraph@CGraphSearchInfo@@UAEHPBVCGraphImp@@@Z
	DD	FLAT:?FindGraph@CGraphSearchInfo@@UAEHPBVCVertScaleGroup@@@Z
	DD	FLAT:?FindGraph@CGraphSearchInfo@@UAEHPAXPBVCVertScaleGroup@@@Z
	DD	FLAT:?FindGraph@CGraphSearchInfo@@UAEHPBVCBlockImp@@@Z
	DD	FLAT:?FindGraph@CGraphSearchInfo@@UAEHPAXPBVCBlockImp@@@Z
	DD	FLAT:?FindGraph@CGraphSearchInfo_BlocksColumn@@UAEHPBVCBlocksColumn@@@Z
CONST	ENDS
;	COMDAT ??_7?$CList@VCSubGraphViewData@@AAV1@@@6B@
CONST	SEGMENT
??_7?$CList@VCSubGraphViewData@@AAV1@@@6B@ DD FLAT:??_R4?$CList@VCSubGraphViewData@@AAV1@@@6B@ ; CList<CSubGraphViewData,CSubGraphViewData &>::`vftable'
	DD	FLAT:?GetRuntimeClass@CObject@@UBEPAUCRuntimeClass@@XZ
	DD	FLAT:??_E?$CList@VCSubGraphViewData@@AAV1@@@UAEPAXI@Z
	DD	FLAT:?Serialize@?$CList@VCSubGraphViewData@@AAV1@@@UAEXAAVCArchive@@@Z
	DD	FLAT:?AssertValid@CObject@@UBEXXZ
	DD	FLAT:?Dump@CObject@@UBEXAAVCDumpContext@@@Z
CONST	ENDS
;	COMDAT ??_C@_0BA@ENJOCHIO@LoadResourceDLL@
CONST	SEGMENT
??_C@_0BA@ENJOCHIO@LoadResourceDLL@ DB 'LoadResourceDLL', 00H ; `string'
CONST	ENDS
;	COMDAT ??_7CBlocksColumn@@6B@
CONST	SEGMENT
??_7CBlocksColumn@@6B@ DD FLAT:??_R4CBlocksColumn@@6B@	; CBlocksColumn::`vftable'
	DD	FLAT:?GetRuntimeClass@CObject@@UBEPAUCRuntimeClass@@XZ
	DD	FLAT:??_ECBlocksColumn@@UAEPAXI@Z
	DD	FLAT:?Serialize@CObject@@UAEXAAVCArchive@@@Z
	DD	FLAT:?AssertValid@CObject@@UBEXXZ
	DD	FLAT:?Dump@CObject@@UBEXAAVCDumpContext@@@Z
CONST	ENDS
;	COMDAT ??_7?$CTypedPtrList@VCObList@@PAVCBlockImp@@@@6B@
CONST	SEGMENT
??_7?$CTypedPtrList@VCObList@@PAVCBlockImp@@@@6B@ DD FLAT:??_R4?$CTypedPtrList@VCObList@@PAVCBlockImp@@@@6B@ ; CTypedPtrList<CObList,CBlockImp *>::`vftable'
	DD	FLAT:?GetRuntimeClass@CObList@@UBEPAUCRuntimeClass@@XZ
	DD	FLAT:??_E?$CTypedPtrList@VCObList@@PAVCBlockImp@@@@UAEPAXI@Z
	DD	FLAT:?Serialize@CObList@@UAEXAAVCArchive@@@Z
	DD	FLAT:?AssertValid@CObject@@UBEXXZ
	DD	FLAT:?Dump@CObject@@UBEXAAVCDumpContext@@@Z
CONST	ENDS
;	COMDAT ??_7?$_CTypedPtrList@VCObList@@PAVCBlockImp@@@@6B@
CONST	SEGMENT
??_7?$_CTypedPtrList@VCObList@@PAVCBlockImp@@@@6B@ DD FLAT:??_R4?$_CTypedPtrList@VCObList@@PAVCBlockImp@@@@6B@ ; _CTypedPtrList<CObList,CBlockImp *>::`vftable'
	DD	FLAT:?GetRuntimeClass@CObList@@UBEPAUCRuntimeClass@@XZ
	DD	FLAT:??_E?$_CTypedPtrList@VCObList@@PAVCBlockImp@@@@UAEPAXI@Z
	DD	FLAT:?Serialize@CObList@@UAEXAAVCArchive@@@Z
	DD	FLAT:?AssertValid@CObject@@UBEXXZ
	DD	FLAT:?Dump@CObject@@UBEXAAVCDumpContext@@@Z
CONST	ENDS
;	COMDAT ??_R2CObList@@8
rdata$r	SEGMENT
??_R2CObList@@8 DD FLAT:??_R1A@?0A@EA@CObList@@8	; CObList::`RTTI Base Class Array'
	DD	FLAT:??_R1A@?0A@EA@CObject@@8
rdata$r	ENDS
;	COMDAT ??_R3CObList@@8
rdata$r	SEGMENT
??_R3CObList@@8 DD 00H					; CObList::`RTTI Class Hierarchy Descriptor'
	DD	00H
	DD	02H
	DD	FLAT:??_R2CObList@@8
rdata$r	ENDS
;	COMDAT ??_R0?AVCObList@@@8
data$rs	SEGMENT
??_R0?AVCObList@@@8 DD FLAT:??_7type_info@@6B@		; CObList `RTTI Type Descriptor'
	DD	00H
	DB	'.?AVCObList@@', 00H
data$rs	ENDS
;	COMDAT ??_R1A@?0A@EA@CObList@@8
rdata$r	SEGMENT
??_R1A@?0A@EA@CObList@@8 DD FLAT:??_R0?AVCObList@@@8	; CObList::`RTTI Base Class Descriptor at (0,-1,0,64)'
	DD	01H
	DD	00H
	DD	0ffffffffH
	DD	00H
	DD	040H
	DD	FLAT:??_R3CObList@@8
rdata$r	ENDS
;	COMDAT ??_R1A@?0A@EA@CObject@@8
rdata$r	SEGMENT
??_R1A@?0A@EA@CObject@@8 DD FLAT:??_R0?AVCObject@@@8	; CObject::`RTTI Base Class Descriptor at (0,-1,0,64)'
	DD	00H
	DD	00H
	DD	0ffffffffH
	DD	00H
	DD	040H
	DD	FLAT:??_R3CObject@@8
rdata$r	ENDS
;	COMDAT ??_R2CObject@@8
rdata$r	SEGMENT
??_R2CObject@@8 DD FLAT:??_R1A@?0A@EA@CObject@@8	; CObject::`RTTI Base Class Array'
rdata$r	ENDS
;	COMDAT ??_R3CObject@@8
rdata$r	SEGMENT
??_R3CObject@@8 DD 00H					; CObject::`RTTI Class Hierarchy Descriptor'
	DD	00H
	DD	01H
	DD	FLAT:??_R2CObject@@8
rdata$r	ENDS
;	COMDAT ??_R0?AVCObject@@@8
data$rs	SEGMENT
??_R0?AVCObject@@@8 DD FLAT:??_7type_info@@6B@		; CObject `RTTI Type Descriptor'
	DD	00H
	DB	'.?AVCObject@@', 00H
data$rs	ENDS
;	COMDAT xdata$x
xdata$x	SEGMENT
__unwindtable$?Serialize@?$CList@VCSubGraphViewData@@AAV1@@@UAEXAAVCArchive@@@Z DD 0ffffffffH
	DD	FLAT:__unwindfunclet$?Serialize@?$CList@VCSubGraphViewData@@AAV1@@@UAEXAAVCArchive@@@Z$0
__ehfuncinfo$?Serialize@?$CList@VCSubGraphViewData@@AAV1@@@UAEXAAVCArchive@@@Z DD 019930522H
	DD	01H
	DD	FLAT:__unwindtable$?Serialize@?$CList@VCSubGraphViewData@@AAV1@@@UAEXAAVCArchive@@@Z
	DD	2 DUP(00H)
	DD	2 DUP(00H)
	DD	00H
	DD	01H
xdata$x	ENDS
;	COMDAT xdata$x
xdata$x	SEGMENT
__ehfuncinfo$??1?$CList@VCSubGraphViewData@@AAV1@@@UAE@XZ DD 019930522H
	DD	00H
	DD	00H
	DD	2 DUP(00H)
	DD	2 DUP(00H)
	DD	00H
	DD	05H
xdata$x	ENDS
;	COMDAT xdata$x
xdata$x	SEGMENT
__ehfuncinfo$??1CMultiLanguageResourceSetter@@QAE@XZ DD 019930522H
	DD	00H
	DD	00H
	DD	2 DUP(00H)
	DD	2 DUP(00H)
	DD	00H
	DD	05H
xdata$x	ENDS
;	COMDAT xdata$x
xdata$x	SEGMENT
__unwindtable$??_GCBlocksColumn@@UAEPAXI@Z DD 0ffffffffH
	DD	FLAT:___std_terminate
__ehfuncinfo$??_GCBlocksColumn@@UAEPAXI@Z DD 019930522H
	DD	01H
	DD	FLAT:__unwindtable$??_GCBlocksColumn@@UAEPAXI@Z
	DD	2 DUP(00H)
	DD	2 DUP(00H)
	DD	00H
	DD	05H
xdata$x	ENDS
;	COMDAT xdata$x
xdata$x	SEGMENT
__unwindtable$?GetHorzScaleDataRQ@CBlocksColumn@@QAE?AV?$CStringT@DV?$StrTraitMFC_DLL@DV?$ChTraitsCRT@D@ATL@@@@@ATL@@PAVCBlockImp@@@Z DD 0ffffffffH
	DD	FLAT:__unwindfunclet$?GetHorzScaleDataRQ@CBlocksColumn@@QAE?AV?$CStringT@DV?$StrTraitMFC_DLL@DV?$ChTraitsCRT@D@ATL@@@@@ATL@@PAVCBlockImp@@@Z$1
	DD	00H
	DD	FLAT:__unwindfunclet$?GetHorzScaleDataRQ@CBlocksColumn@@QAE?AV?$CStringT@DV?$StrTraitMFC_DLL@DV?$ChTraitsCRT@D@ATL@@@@@ATL@@PAVCBlockImp@@@Z$2
	DD	01H
	DD	FLAT:__unwindfunclet$?GetHorzScaleDataRQ@CBlocksColumn@@QAE?AV?$CStringT@DV?$StrTraitMFC_DLL@DV?$ChTraitsCRT@D@ATL@@@@@ATL@@PAVCBlockImp@@@Z$3
__ehfuncinfo$?GetHorzScaleDataRQ@CBlocksColumn@@QAE?AV?$CStringT@DV?$StrTraitMFC_DLL@DV?$ChTraitsCRT@D@ATL@@@@@ATL@@PAVCBlockImp@@@Z DD 019930522H
	DD	03H
	DD	FLAT:__unwindtable$?GetHorzScaleDataRQ@CBlocksColumn@@QAE?AV?$CStringT@DV?$StrTraitMFC_DLL@DV?$ChTraitsCRT@D@ATL@@@@@ATL@@PAVCBlockImp@@@Z
	DD	2 DUP(00H)
	DD	2 DUP(00H)
	DD	00H
	DD	01H
xdata$x	ENDS
;	COMDAT xdata$x
xdata$x	SEGMENT
__unwindtable$?SetMaintainOldScale@CBlocksColumn@@QAEXPAVCBlockImp@@@Z DD 0ffffffffH
	DD	FLAT:__unwindfunclet$?SetMaintainOldScale@CBlocksColumn@@QAEXPAVCBlockImp@@@Z$0
	DD	00H
	DD	FLAT:__unwindfunclet$?SetMaintainOldScale@CBlocksColumn@@QAEXPAVCBlockImp@@@Z$2
	DD	00H
	DD	FLAT:__unwindfunclet$?SetMaintainOldScale@CBlocksColumn@@QAEXPAVCBlockImp@@@Z$3
	DD	02H
	DD	FLAT:__unwindfunclet$?SetMaintainOldScale@CBlocksColumn@@QAEXPAVCBlockImp@@@Z$5
__ehfuncinfo$?SetMaintainOldScale@CBlocksColumn@@QAEXPAVCBlockImp@@@Z DD 019930522H
	DD	04H
	DD	FLAT:__unwindtable$?SetMaintainOldScale@CBlocksColumn@@QAEXPAVCBlockImp@@@Z
	DD	2 DUP(00H)
	DD	2 DUP(00H)
	DD	00H
	DD	01H
xdata$x	ENDS
;	COMDAT xdata$x
xdata$x	SEGMENT
__unwindtable$?GetHorzScalePtrDataList@CBlocksColumn@@QBEXPBVCBlockImp@@AAVCHorizontalScalePtrDataList@@@Z DD 0ffffffffH
	DD	FLAT:__unwindfunclet$?GetHorzScalePtrDataList@CBlocksColumn@@QBEXPBVCBlockImp@@AAVCHorizontalScalePtrDataList@@@Z$0
	DD	00H
	DD	FLAT:__unwindfunclet$?GetHorzScalePtrDataList@CBlocksColumn@@QBEXPBVCBlockImp@@AAVCHorizontalScalePtrDataList@@@Z$1
	DD	01H
	DD	FLAT:__unwindfunclet$?GetHorzScalePtrDataList@CBlocksColumn@@QBEXPBVCBlockImp@@AAVCHorizontalScalePtrDataList@@@Z$2
	DD	0ffffffffH
	DD	FLAT:___std_terminate
__ehfuncinfo$?GetHorzScalePtrDataList@CBlocksColumn@@QBEXPBVCBlockImp@@AAVCHorizontalScalePtrDataList@@@Z DD 019930522H
	DD	04H
	DD	FLAT:__unwindtable$?GetHorzScalePtrDataList@CBlocksColumn@@QBEXPBVCBlockImp@@AAVCHorizontalScalePtrDataList@@@Z
	DD	2 DUP(00H)
	DD	2 DUP(00H)
	DD	00H
	DD	01H
xdata$x	ENDS
;	COMDAT xdata$x
xdata$x	SEGMENT
__unwindtable$?GetColumnViewData@CBlocksColumn@@QBEXPBDAAVCColumnViewData@@@Z DD 0ffffffffH
	DD	FLAT:__unwindfunclet$?GetColumnViewData@CBlocksColumn@@QBEXPBDAAVCColumnViewData@@@Z$0
	DD	00H
	DD	FLAT:__unwindfunclet$?GetColumnViewData@CBlocksColumn@@QBEXPBDAAVCColumnViewData@@@Z$1
__ehfuncinfo$?GetColumnViewData@CBlocksColumn@@QBEXPBDAAVCColumnViewData@@@Z DD 019930522H
	DD	02H
	DD	FLAT:__unwindtable$?GetColumnViewData@CBlocksColumn@@QBEXPBDAAVCColumnViewData@@@Z
	DD	2 DUP(00H)
	DD	2 DUP(00H)
	DD	00H
	DD	01H
xdata$x	ENDS
;	COMDAT xdata$x
xdata$x	SEGMENT
__unwindtable$?DeleteBlock@CBlocksColumn@@QAE_NPAVCBlockImp@@_N@Z DD 0ffffffffH
	DD	FLAT:__unwindfunclet$?DeleteBlock@CBlocksColumn@@QAE_NPAVCBlockImp@@_N@Z$0
	DD	00H
	DD	FLAT:__unwindfunclet$?DeleteBlock@CBlocksColumn@@QAE_NPAVCBlockImp@@_N@Z$1
	DD	01H
	DD	FLAT:__unwindfunclet$?DeleteBlock@CBlocksColumn@@QAE_NPAVCBlockImp@@_N@Z$2
	DD	0ffffffffH
	DD	FLAT:___std_terminate
__ehfuncinfo$?DeleteBlock@CBlocksColumn@@QAE_NPAVCBlockImp@@_N@Z DD 019930522H
	DD	04H
	DD	FLAT:__unwindtable$?DeleteBlock@CBlocksColumn@@QAE_NPAVCBlockImp@@_N@Z
	DD	2 DUP(00H)
	DD	2 DUP(00H)
	DD	00H
	DD	01H
xdata$x	ENDS
;	COMDAT xdata$x
xdata$x	SEGMENT
__unwindtable$?InsertBlocks@CBlocksColumn@@QAE_NPAXABV?$CStringT@DV?$StrTraitMFC_DLL@DV?$ChTraitsCRT@D@ATL@@@@@ATL@@@Z DD 0ffffffffH
	DD	FLAT:__unwindfunclet$?InsertBlocks@CBlocksColumn@@QAE_NPAXABV?$CStringT@DV?$StrTraitMFC_DLL@DV?$ChTraitsCRT@D@ATL@@@@@ATL@@@Z$0
	DD	0ffffffffH
	DD	FLAT:__unwindfunclet$?InsertBlocks@CBlocksColumn@@QAE_NPAXABV?$CStringT@DV?$StrTraitMFC_DLL@DV?$ChTraitsCRT@D@ATL@@@@@ATL@@@Z$1
__ehfuncinfo$?InsertBlocks@CBlocksColumn@@QAE_NPAXABV?$CStringT@DV?$StrTraitMFC_DLL@DV?$ChTraitsCRT@D@ATL@@@@@ATL@@@Z DD 019930522H
	DD	02H
	DD	FLAT:__unwindtable$?InsertBlocks@CBlocksColumn@@QAE_NPAXABV?$CStringT@DV?$StrTraitMFC_DLL@DV?$ChTraitsCRT@D@ATL@@@@@ATL@@@Z
	DD	2 DUP(00H)
	DD	2 DUP(00H)
	DD	00H
	DD	01H
xdata$x	ENDS
;	COMDAT xdata$x
xdata$x	SEGMENT
__unwindtable$?InsertBlocks@CBlocksColumn@@QAE_NABV?$CStringT@DV?$StrTraitMFC_DLL@DV?$ChTraitsCRT@D@ATL@@@@@ATL@@@Z DD 0ffffffffH
	DD	FLAT:__unwindfunclet$?InsertBlocks@CBlocksColumn@@QAE_NABV?$CStringT@DV?$StrTraitMFC_DLL@DV?$ChTraitsCRT@D@ATL@@@@@ATL@@@Z$0
	DD	0ffffffffH
	DD	FLAT:__unwindfunclet$?InsertBlocks@CBlocksColumn@@QAE_NABV?$CStringT@DV?$StrTraitMFC_DLL@DV?$ChTraitsCRT@D@ATL@@@@@ATL@@@Z$1
__ehfuncinfo$?InsertBlocks@CBlocksColumn@@QAE_NABV?$CStringT@DV?$StrTraitMFC_DLL@DV?$ChTraitsCRT@D@ATL@@@@@ATL@@@Z DD 019930522H
	DD	02H
	DD	FLAT:__unwindtable$?InsertBlocks@CBlocksColumn@@QAE_NABV?$CStringT@DV?$StrTraitMFC_DLL@DV?$ChTraitsCRT@D@ATL@@@@@ATL@@@Z
	DD	2 DUP(00H)
	DD	2 DUP(00H)
	DD	00H
	DD	01H
xdata$x	ENDS
;	COMDAT xdata$x
xdata$x	SEGMENT
__unwindtable$?InsertBlocks@CBlocksColumn@@QAE_NHABV?$CStringT@DV?$StrTraitMFC_DLL@DV?$ChTraitsCRT@D@ATL@@@@@ATL@@@Z DD 0ffffffffH
	DD	FLAT:__unwindfunclet$?InsertBlocks@CBlocksColumn@@QAE_NHABV?$CStringT@DV?$StrTraitMFC_DLL@DV?$ChTraitsCRT@D@ATL@@@@@ATL@@@Z$0
__ehfuncinfo$?InsertBlocks@CBlocksColumn@@QAE_NHABV?$CStringT@DV?$StrTraitMFC_DLL@DV?$ChTraitsCRT@D@ATL@@@@@ATL@@@Z DD 019930522H
	DD	01H
	DD	FLAT:__unwindtable$?InsertBlocks@CBlocksColumn@@QAE_NHABV?$CStringT@DV?$StrTraitMFC_DLL@DV?$ChTraitsCRT@D@ATL@@@@@ATL@@@Z
	DD	2 DUP(00H)
	DD	2 DUP(00H)
	DD	00H
	DD	01H
xdata$x	ENDS
;	COMDAT xdata$x
xdata$x	SEGMENT
__unwindtable$?InsertBlocks@CBlocksColumn@@QAE_NPAXHABV?$CStringT@DV?$StrTraitMFC_DLL@DV?$ChTraitsCRT@D@ATL@@@@@ATL@@@Z DD 0ffffffffH
	DD	FLAT:__unwindfunclet$?InsertBlocks@CBlocksColumn@@QAE_NPAXHABV?$CStringT@DV?$StrTraitMFC_DLL@DV?$ChTraitsCRT@D@ATL@@@@@ATL@@@Z$0
__ehfuncinfo$?InsertBlocks@CBlocksColumn@@QAE_NPAXHABV?$CStringT@DV?$StrTraitMFC_DLL@DV?$ChTraitsCRT@D@ATL@@@@@ATL@@@Z DD 019930522H
	DD	01H
	DD	FLAT:__unwindtable$?InsertBlocks@CBlocksColumn@@QAE_NPAXHABV?$CStringT@DV?$StrTraitMFC_DLL@DV?$ChTraitsCRT@D@ATL@@@@@ATL@@@Z
	DD	2 DUP(00H)
	DD	2 DUP(00H)
	DD	00H
	DD	01H
xdata$x	ENDS
;	COMDAT xdata$x
xdata$x	SEGMENT
__unwindtable$?InsertBlock@CBlocksColumn@@QAE_NPAXHPAD@Z DD 0ffffffffH
	DD	FLAT:__unwindfunclet$?InsertBlock@CBlocksColumn@@QAE_NPAXHPAD@Z$0
	DD	00H
	DD	FLAT:__unwindfunclet$?InsertBlock@CBlocksColumn@@QAE_NPAXHPAD@Z$1
__ehfuncinfo$?InsertBlock@CBlocksColumn@@QAE_NPAXHPAD@Z DD 019930522H
	DD	02H
	DD	FLAT:__unwindtable$?InsertBlock@CBlocksColumn@@QAE_NPAXHPAD@Z
	DD	2 DUP(00H)
	DD	2 DUP(00H)
	DD	00H
	DD	01H
xdata$x	ENDS
;	COMDAT xdata$x
xdata$x	SEGMENT
__unwindtable$?InsertBlock@CBlocksColumn@@QAE_NHPAD@Z DD 0ffffffffH
	DD	FLAT:__unwindfunclet$?InsertBlock@CBlocksColumn@@QAE_NHPAD@Z$0
	DD	00H
	DD	FLAT:__unwindfunclet$?InsertBlock@CBlocksColumn@@QAE_NHPAD@Z$1
__ehfuncinfo$?InsertBlock@CBlocksColumn@@QAE_NHPAD@Z DD 019930522H
	DD	02H
	DD	FLAT:__unwindtable$?InsertBlock@CBlocksColumn@@QAE_NHPAD@Z
	DD	2 DUP(00H)
	DD	2 DUP(00H)
	DD	00H
	DD	01H
xdata$x	ENDS
;	COMDAT xdata$x
xdata$x	SEGMENT
__ehfuncinfo$?InsertBlock_LoadDialog@CBlocksColumn@@QAE_NAAVCInsertingBlockHorzScaleData@@@Z DD 019930522H
	DD	08H
	DD	FLAT:__unwindtable$?InsertBlock_LoadDialog@CBlocksColumn@@QAE_NAAVCInsertingBlockHorzScaleData@@@Z
	DD	2 DUP(00H)
	DD	2 DUP(00H)
	DD	00H
	DD	01H
__unwindtable$?InsertBlock_LoadDialog@CBlocksColumn@@QAE_NAAVCInsertingBlockHorzScaleData@@@Z DD 0ffffffffH
	DD	FLAT:__unwindfunclet$?InsertBlock_LoadDialog@CBlocksColumn@@QAE_NAAVCInsertingBlockHorzScaleData@@@Z$0
	DD	00H
	DD	FLAT:__unwindfunclet$?InsertBlock_LoadDialog@CBlocksColumn@@QAE_NAAVCInsertingBlockHorzScaleData@@@Z$1
	DD	01H
	DD	FLAT:__unwindfunclet$?InsertBlock_LoadDialog@CBlocksColumn@@QAE_NAAVCInsertingBlockHorzScaleData@@@Z$2
	DD	0ffffffffH
	DD	FLAT:___std_terminate
	DD	0ffffffffH
	DD	FLAT:___std_terminate
	DD	0ffffffffH
	DD	FLAT:__unwindfunclet$?InsertBlock_LoadDialog@CBlocksColumn@@QAE_NAAVCInsertingBlockHorzScaleData@@@Z$3
	DD	05H
	DD	FLAT:__unwindfunclet$?InsertBlock_LoadDialog@CBlocksColumn@@QAE_NAAVCInsertingBlockHorzScaleData@@@Z$4
	DD	0ffffffffH
	DD	FLAT:___std_terminate
xdata$x	ENDS
;	COMDAT xdata$x
xdata$x	SEGMENT
__unwindtable$?Make@CBlocksColumn@@SAPAV1@PAVCMainBlockImp@@@Z DD 0ffffffffH
	DD	FLAT:__unwindfunclet$?Make@CBlocksColumn@@SAPAV1@PAVCMainBlockImp@@@Z$0
	DD	00H
	DD	FLAT:__unwindfunclet$?Make@CBlocksColumn@@SAPAV1@PAVCMainBlockImp@@@Z$1
__ehfuncinfo$?Make@CBlocksColumn@@SAPAV1@PAVCMainBlockImp@@@Z DD 019930522H
	DD	02H
	DD	FLAT:__unwindtable$?Make@CBlocksColumn@@SAPAV1@PAVCMainBlockImp@@@Z
	DD	2 DUP(00H)
	DD	2 DUP(00H)
	DD	00H
	DD	01H
xdata$x	ENDS
;	COMDAT xdata$x
xdata$x	SEGMENT
__ehfuncinfo$??1CBlocksColumn@@UAE@XZ DD 019930522H
	DD	00H
	DD	00H
	DD	2 DUP(00H)
	DD	2 DUP(00H)
	DD	00H
	DD	05H
xdata$x	ENDS
;	COMDAT xdata$x
xdata$x	SEGMENT
__unwindtable$??0CBlocksColumn@@QAE@PAVCMainBlockImp@@@Z DD 0ffffffffH
	DD	FLAT:__unwindfunclet$??0CBlocksColumn@@QAE@PAVCMainBlockImp@@@Z$0
__ehfuncinfo$??0CBlocksColumn@@QAE@PAVCMainBlockImp@@@Z DD 019930522H
	DD	01H
	DD	FLAT:__unwindtable$??0CBlocksColumn@@QAE@PAVCMainBlockImp@@@Z
	DD	2 DUP(00H)
	DD	2 DUP(00H)
	DD	00H
	DD	01H
xdata$x	ENDS
; Function compile flags: /Ogtp
; File C:\Program Files (x86)\Microsoft Visual Studio\2019\Community\VC\Tools\MSVC\14.29.30133\atlmfc\include\afxtempl.h
; File C:\Program Files (x86)\Microsoft Visual Studio\2019\Community\VC\Tools\MSVC\14.29.30133\atlmfc\include\afx.inl
; File C:\Program Files (x86)\Microsoft Visual Studio\2019\Community\VC\Tools\MSVC\14.29.30133\atlmfc\include\afxtempl.h
; File C:\Program Files (x86)\Microsoft Visual Studio\2019\Community\VC\Tools\MSVC\14.29.30133\atlmfc\include\afx.inl
; File C:\Program Files (x86)\Microsoft Visual Studio\2019\Community\VC\Tools\MSVC\14.29.30133\atlmfc\include\afxtempl.h
; File C:\Program Files (x86)\Microsoft Visual Studio\2019\Community\VC\Tools\MSVC\14.29.30133\atlmfc\include\afx.inl
; File C:\Program Files (x86)\Microsoft Visual Studio\2019\Community\VC\Tools\MSVC\14.29.30133\atlmfc\include\afxtempl.h
;	COMDAT ??$SerializeElements@VCSubGraphViewData@@@@YGXAAVCArchive@@PAVCSubGraphViewData@@H@Z
_TEXT	SEGMENT
_ar$ = 8						; size = 4
_pElements$ = 12					; size = 4
_nCount$ = 16						; size = 4
??$SerializeElements@VCSubGraphViewData@@@@YGXAAVCArchive@@PAVCSubGraphViewData@@H@Z PROC ; SerializeElements<CSubGraphViewData>, COMDAT

; 67   : {

  00000	55		 push	 ebp
  00001	8b ec		 mov	 ebp, esp

; 68   : 	ENSURE(nCount == 0 || pElements != NULL);

  00003	8b 4d 0c	 mov	 ecx, DWORD PTR _pElements$[ebp]
  00006	53		 push	 ebx
  00007	56		 push	 esi
  00008	8b 75 10	 mov	 esi, DWORD PTR _nCount$[ebp]
  0000b	57		 push	 edi
  0000c	85 f6		 test	 esi, esi
  0000e	74 08		 je	 SHORT $LN2@SerializeE
  00010	85 c9		 test	 ecx, ecx
  00012	0f 84 87 00 00
	00		 je	 $LN34@SerializeE
$LN2@SerializeE:
; File C:\Program Files (x86)\Microsoft Visual Studio\2019\Community\VC\Tools\MSVC\14.29.30133\atlmfc\include\afx.inl

; 212  : 	{ return (m_nMode & CArchive::load) == 0; }

  00018	8b 55 08	 mov	 edx, DWORD PTR _ar$[ebp]
  0001b	8b 42 18	 mov	 eax, DWORD PTR [edx+24]
  0001e	f7 d0		 not	 eax
  00020	a8 01		 test	 al, 1
; File C:\Program Files (x86)\Microsoft Visual Studio\2019\Community\VC\Tools\MSVC\14.29.30133\atlmfc\include\afxtempl.h

; 73   : 	if (ar.IsStoring())

  00022	74 3b		 je	 SHORT $LN10@SerializeE

; 74   : 	{
; 75   : 		TYPE* pData;
; 76   : 		UINT_PTR nElementsLeft;
; 77   : 
; 78   : 		nElementsLeft = nCount;
; 79   : 		pData = pElements;
; 80   : 		while( nElementsLeft > 0 )

  00024	85 f6		 test	 esi, esi
  00026	74 30		 je	 SHORT $LN8@SerializeE
  00028	0f 1f 84 00 00
	00 00 00	 npad	 8
$LL5@SerializeE:

; 81   : 		{
; 82   : 			UINT nElementsToWrite;
; 83   : 
; 84   : 			nElementsToWrite = UINT(__min(nElementsLeft, INT_MAX/sizeof(TYPE)));

  00030	bb 66 66 66 06	 mov	 ebx, 107374182		; 06666666H
  00035	3b f3		 cmp	 esi, ebx
  00037	0f 42 de	 cmovb	 ebx, esi

; 85   : 			ar.Write(pData, nElementsToWrite*sizeof(TYPE));

  0003a	8d 3c 9b	 lea	 edi, DWORD PTR [ebx+ebx*4]
  0003d	c1 e7 02	 shl	 edi, 2
  00040	57		 push	 edi
  00041	51		 push	 ecx
  00042	8b ca		 mov	 ecx, edx
  00044	e8 00 00 00 00	 call	 ?Write@CArchive@@QAEXPBXI@Z ; CArchive::Write

; 86   : 			nElementsLeft -= nElementsToWrite;
; 87   : 			pData += nElementsToWrite;

  00049	8b 4d 0c	 mov	 ecx, DWORD PTR _pElements$[ebp]
  0004c	8b 55 08	 mov	 edx, DWORD PTR _ar$[ebp]
  0004f	03 cf		 add	 ecx, edi
  00051	89 4d 0c	 mov	 DWORD PTR _pElements$[ebp], ecx
  00054	2b f3		 sub	 esi, ebx
  00056	75 d8		 jne	 SHORT $LL5@SerializeE
$LN8@SerializeE:
  00058	5f		 pop	 edi

; 105  : 		}
; 106  : 	}
; 107  : }

  00059	5e		 pop	 esi
  0005a	5b		 pop	 ebx
  0005b	5d		 pop	 ebp
  0005c	c2 0c 00	 ret	 12			; 0000000cH
$LN10@SerializeE:

; 97   : 		while( nElementsLeft > 0 )

  0005f	85 f6		 test	 esi, esi
  00061	74 f5		 je	 SHORT $LN8@SerializeE
$LL7@SerializeE:

; 98   : 		{
; 99   : 			UINT nElementsToRead;
; 100  : 
; 101  : 			nElementsToRead = UINT(__min(nElementsLeft, INT_MAX/sizeof(TYPE)));

  00063	bf 66 66 66 06	 mov	 edi, 107374182		; 06666666H
  00068	3b f7		 cmp	 esi, edi
  0006a	0f 42 fe	 cmovb	 edi, esi

; 102  : 			ar.EnsureRead(pData, nElementsToRead*sizeof(TYPE));

  0006d	8d 1c bf	 lea	 ebx, DWORD PTR [edi+edi*4]
  00070	c1 e3 02	 shl	 ebx, 2
; File C:\Program Files (x86)\Microsoft Visual Studio\2019\Community\VC\Tools\MSVC\14.29.30133\atlmfc\include\afx.inl

; 399  : 	UINT nRead=Read(lpBuf, nCount);

  00073	53		 push	 ebx
  00074	51		 push	 ecx
  00075	8b ca		 mov	 ecx, edx
  00077	e8 00 00 00 00	 call	 ?Read@CArchive@@QAEIPAXI@Z ; CArchive::Read

; 400  : 	if(nRead!=nCount)

  0007c	3b c3		 cmp	 eax, ebx
  0007e	75 16		 jne	 SHORT $LN23@SerializeE
; File C:\Program Files (x86)\Microsoft Visual Studio\2019\Community\VC\Tools\MSVC\14.29.30133\atlmfc\include\afxtempl.h

; 97   : 		while( nElementsLeft > 0 )

  00080	8b 4d 0c	 mov	 ecx, DWORD PTR _pElements$[ebp]
  00083	8b 55 08	 mov	 edx, DWORD PTR _ar$[ebp]

; 103  : 			nElementsLeft -= nElementsToRead;
; 104  : 			pData += nElementsToRead;

  00086	03 cb		 add	 ecx, ebx
  00088	89 4d 0c	 mov	 DWORD PTR _pElements$[ebp], ecx
  0008b	2b f7		 sub	 esi, edi
  0008d	75 d4		 jne	 SHORT $LL7@SerializeE

; 105  : 		}
; 106  : 	}
; 107  : }

  0008f	5f		 pop	 edi
  00090	5e		 pop	 esi
  00091	5b		 pop	 ebx
  00092	5d		 pop	 ebp
  00093	c2 0c 00	 ret	 12			; 0000000cH
$LN23@SerializeE:
; File C:\Program Files (x86)\Microsoft Visual Studio\2019\Community\VC\Tools\MSVC\14.29.30133\atlmfc\include\afx.inl

; 402  : 		AfxThrowArchiveException(CArchiveException::endOfFile);

  00096	6a 00		 push	 0
  00098	6a 03		 push	 3
  0009a	e8 00 00 00 00	 call	 ?AfxThrowArchiveException@@YGXHPBD@Z ; AfxThrowArchiveException
$LN34@SerializeE:
; File C:\Program Files (x86)\Microsoft Visual Studio\2019\Community\VC\Tools\MSVC\14.29.30133\atlmfc\include\afxtempl.h

; 68   : 	ENSURE(nCount == 0 || pElements != NULL);

  0009f	e8 00 00 00 00	 call	 ?AfxThrowInvalidArgException@@YGXXZ ; AfxThrowInvalidArgException
$LN32@SerializeE:
  000a4	cc		 int	 3
??$SerializeElements@VCSubGraphViewData@@@@YGXAAVCArchive@@PAVCSubGraphViewData@@H@Z ENDP ; SerializeElements<CSubGraphViewData>
_TEXT	ENDS
; Function compile flags: /Ogtp
; File C:\Program Files (x86)\Microsoft Visual Studio\2019\Community\VC\Tools\MSVC\14.29.30133\atlmfc\include\afxtempl.h
;	COMDAT ?NewNode@?$CList@HH@@IAEPAUCNode@1@PAU21@0@Z
_TEXT	SEGMENT
_pPrev$ = 8						; size = 4
_pNext$ = 12						; size = 4
?NewNode@?$CList@HH@@IAEPAUCNode@1@PAU21@0@Z PROC	; CList<int,int>::NewNode, COMDAT
; _this$ = ecx

; 901  : {

  00000	55		 push	 ebp
  00001	8b ec		 mov	 ebp, esp
  00003	56		 push	 esi
  00004	8b f1		 mov	 esi, ecx

; 902  : 	if (m_pNodeFree == NULL)

  00006	83 7e 10 00	 cmp	 DWORD PTR [esi+16], 0
  0000a	75 34		 jne	 SHORT $LN7@NewNode

; 903  : 	{
; 904  : 		// add another block
; 905  : 		CPlex* pNewBlock = CPlex::Create(m_pBlocks, m_nBlockSize,

  0000c	6a 0c		 push	 12			; 0000000cH
  0000e	ff 76 18	 push	 DWORD PTR [esi+24]
  00011	8d 46 14	 lea	 eax, DWORD PTR [esi+20]
  00014	50		 push	 eax
  00015	e8 00 00 00 00	 call	 ?Create@CPlex@@SGPAU1@AAPAU1@II@Z ; CPlex::Create

; 906  : 				 sizeof(CNode));
; 907  : 
; 908  : 		// chain them into free list
; 909  : 		CNode* pNode = (CNode*) pNewBlock->data();
; 910  : 		// free in reverse order to make it easier to debug
; 911  : 		pNode += m_nBlockSize - 1;

  0001a	8b 56 18	 mov	 edx, DWORD PTR [esi+24]
  0001d	83 c0 08	 add	 eax, 8
  00020	8d 0c 52	 lea	 ecx, DWORD PTR [edx+edx*2]
  00023	8d 04 88	 lea	 eax, DWORD PTR [eax+ecx*4]
  00026	83 c0 f4	 add	 eax, -12		; fffffff4H

; 912  : 		for (INT_PTR i = m_nBlockSize-1; i >= 0; i--, pNode--)

  00029	83 c2 ff	 add	 edx, -1
  0002c	78 12		 js	 SHORT $LN7@NewNode
  0002e	66 90		 npad	 2
$LL4@NewNode:

; 913  : 		{
; 914  : 			pNode->pNext = m_pNodeFree;

  00030	8b 4e 10	 mov	 ecx, DWORD PTR [esi+16]
  00033	89 08		 mov	 DWORD PTR [eax], ecx

; 915  : 			m_pNodeFree = pNode;

  00035	89 46 10	 mov	 DWORD PTR [esi+16], eax
  00038	83 e8 0c	 sub	 eax, 12			; 0000000cH
  0003b	83 ea 01	 sub	 edx, 1
  0003e	79 f0		 jns	 SHORT $LL4@NewNode
$LN7@NewNode:

; 916  : 		}
; 917  : 	}
; 918  : 	ENSURE(m_pNodeFree != NULL);  // we must have something

  00040	8b 46 10	 mov	 eax, DWORD PTR [esi+16]
  00043	85 c0		 test	 eax, eax
  00045	74 18		 je	 SHORT $LN17@NewNode

; 919  : 
; 920  : 	CList::CNode* pNode = m_pNodeFree;
; 921  : 	m_pNodeFree = m_pNodeFree->pNext;

  00047	8b 08		 mov	 ecx, DWORD PTR [eax]
  00049	89 4e 10	 mov	 DWORD PTR [esi+16], ecx

; 922  : 	pNode->pPrev = pPrev;

  0004c	8b 4d 08	 mov	 ecx, DWORD PTR _pPrev$[ebp]
  0004f	89 48 04	 mov	 DWORD PTR [eax+4], ecx

; 923  : 	pNode->pNext = pNext;

  00052	8b 4d 0c	 mov	 ecx, DWORD PTR _pNext$[ebp]
  00055	89 08		 mov	 DWORD PTR [eax], ecx

; 924  : 	m_nCount++;

  00057	ff 46 0c	 inc	 DWORD PTR [esi+12]

; 925  : 	ASSERT(m_nCount > 0);  // make sure we don't overflow
; 926  : 
; 927  : #pragma push_macro("new")
; 928  : #undef new
; 929  : 	::new( (void*)( &pNode->data ) ) TYPE;
; 930  : #pragma pop_macro("new")
; 931  : 	return pNode;

  0005a	5e		 pop	 esi

; 932  : }

  0005b	5d		 pop	 ebp
  0005c	c2 08 00	 ret	 8
$LN17@NewNode:

; 916  : 		}
; 917  : 	}
; 918  : 	ENSURE(m_pNodeFree != NULL);  // we must have something

  0005f	e8 00 00 00 00	 call	 ?AfxThrowInvalidArgException@@YGXXZ ; AfxThrowInvalidArgException
$LN15@NewNode:
  00064	cc		 int	 3
?NewNode@?$CList@HH@@IAEPAUCNode@1@PAU21@0@Z ENDP	; CList<int,int>::NewNode
_TEXT	ENDS
; Function compile flags: /Ogtp
; File C:\Program Files (x86)\Microsoft Visual Studio\2019\Community\VC\Tools\MSVC\14.29.30133\atlmfc\include\afxtempl.h
;	COMDAT ?AddTail@?$CList@HH@@QAEPAU__POSITION@@H@Z
_TEXT	SEGMENT
_newElement$ = 8					; size = 4
?AddTail@?$CList@HH@@QAEPAU__POSITION@@H@Z PROC		; CList<int,int>::AddTail, COMDAT
; _this$ = ecx

; 965  : {

  00000	55		 push	 ebp
  00001	8b ec		 mov	 ebp, esp
  00003	56		 push	 esi
  00004	8b f1		 mov	 esi, ecx
  00006	57		 push	 edi

; 902  : 	if (m_pNodeFree == NULL)

  00007	83 7e 10 00	 cmp	 DWORD PTR [esi+16], 0

; 966  : 	ASSERT_VALID(this);
; 967  : 
; 968  : 	CNode* pNewNode = NewNode(m_pNodeTail, NULL);

  0000b	8b 7e 08	 mov	 edi, DWORD PTR [esi+8]

; 902  : 	if (m_pNodeFree == NULL)

  0000e	75 32		 jne	 SHORT $LN11@AddTail

; 903  : 	{
; 904  : 		// add another block
; 905  : 		CPlex* pNewBlock = CPlex::Create(m_pBlocks, m_nBlockSize,

  00010	6a 0c		 push	 12			; 0000000cH
  00012	ff 76 18	 push	 DWORD PTR [esi+24]
  00015	8d 46 14	 lea	 eax, DWORD PTR [esi+20]
  00018	50		 push	 eax
  00019	e8 00 00 00 00	 call	 ?Create@CPlex@@SGPAU1@AAPAU1@II@Z ; CPlex::Create

; 906  : 				 sizeof(CNode));
; 907  : 
; 908  : 		// chain them into free list
; 909  : 		CNode* pNode = (CNode*) pNewBlock->data();
; 910  : 		// free in reverse order to make it easier to debug
; 911  : 		pNode += m_nBlockSize - 1;

  0001e	8b 56 18	 mov	 edx, DWORD PTR [esi+24]
  00021	83 c0 08	 add	 eax, 8
  00024	8d 4a ff	 lea	 ecx, DWORD PTR [edx-1]

; 912  : 		for (INT_PTR i = m_nBlockSize-1; i >= 0; i--, pNode--)

  00027	83 c2 ff	 add	 edx, -1
  0002a	8d 0c 49	 lea	 ecx, DWORD PTR [ecx+ecx*2]
  0002d	8d 0c 88	 lea	 ecx, DWORD PTR [eax+ecx*4]
  00030	78 10		 js	 SHORT $LN11@AddTail
$LL8@AddTail:

; 913  : 		{
; 914  : 			pNode->pNext = m_pNodeFree;

  00032	8b 46 10	 mov	 eax, DWORD PTR [esi+16]
  00035	89 01		 mov	 DWORD PTR [ecx], eax

; 915  : 			m_pNodeFree = pNode;

  00037	89 4e 10	 mov	 DWORD PTR [esi+16], ecx
  0003a	83 e9 0c	 sub	 ecx, 12			; 0000000cH
  0003d	83 ea 01	 sub	 edx, 1
  00040	79 f0		 jns	 SHORT $LL8@AddTail
$LN11@AddTail:

; 916  : 		}
; 917  : 	}
; 918  : 	ENSURE(m_pNodeFree != NULL);  // we must have something

  00042	8b 4e 10	 mov	 ecx, DWORD PTR [esi+16]
  00045	85 c9		 test	 ecx, ecx
  00047	74 39		 je	 SHORT $LN22@AddTail

; 919  : 
; 920  : 	CList::CNode* pNode = m_pNodeFree;
; 921  : 	m_pNodeFree = m_pNodeFree->pNext;

  00049	8b 01		 mov	 eax, DWORD PTR [ecx]
  0004b	89 46 10	 mov	 DWORD PTR [esi+16], eax

; 969  : 	pNewNode->data = newElement;

  0004e	8b 45 08	 mov	 eax, DWORD PTR _newElement$[ebp]

; 922  : 	pNode->pPrev = pPrev;

  00051	89 79 04	 mov	 DWORD PTR [ecx+4], edi

; 923  : 	pNode->pNext = pNext;

  00054	c7 01 00 00 00
	00		 mov	 DWORD PTR [ecx], 0

; 924  : 	m_nCount++;

  0005a	ff 46 0c	 inc	 DWORD PTR [esi+12]

; 969  : 	pNewNode->data = newElement;

  0005d	89 41 08	 mov	 DWORD PTR [ecx+8], eax

; 970  : 	if (m_pNodeTail != NULL)

  00060	8b 46 08	 mov	 eax, DWORD PTR [esi+8]
  00063	85 c0		 test	 eax, eax
  00065	74 0d		 je	 SHORT $LN2@AddTail

; 971  : 		m_pNodeTail->pNext = pNewNode;

  00067	89 08		 mov	 DWORD PTR [eax], ecx

; 972  : 	else
; 973  : 		m_pNodeHead = pNewNode;
; 974  : 	m_pNodeTail = pNewNode;
; 975  : 	return (POSITION) pNewNode;

  00069	8b c1		 mov	 eax, ecx
  0006b	5f		 pop	 edi
  0006c	89 4e 08	 mov	 DWORD PTR [esi+8], ecx
  0006f	5e		 pop	 esi

; 976  : }

  00070	5d		 pop	 ebp
  00071	c2 04 00	 ret	 4
$LN2@AddTail:

; 972  : 	else
; 973  : 		m_pNodeHead = pNewNode;
; 974  : 	m_pNodeTail = pNewNode;
; 975  : 	return (POSITION) pNewNode;

  00074	5f		 pop	 edi
  00075	89 4e 04	 mov	 DWORD PTR [esi+4], ecx
  00078	8b c1		 mov	 eax, ecx
  0007a	89 4e 08	 mov	 DWORD PTR [esi+8], ecx
  0007d	5e		 pop	 esi

; 976  : }

  0007e	5d		 pop	 ebp
  0007f	c2 04 00	 ret	 4
$LN22@AddTail:

; 918  : 	ENSURE(m_pNodeFree != NULL);  // we must have something

  00082	e8 00 00 00 00	 call	 ?AfxThrowInvalidArgException@@YGXXZ ; AfxThrowInvalidArgException
$LN20@AddTail:
  00087	cc		 int	 3
?AddTail@?$CList@HH@@QAEPAU__POSITION@@H@Z ENDP		; CList<int,int>::AddTail
_TEXT	ENDS
; Function compile flags: /Ogtp
;	COMDAT ??1CDlgBlockInsert@@UAE@XZ
_TEXT	SEGMENT
??1CDlgBlockInsert@@UAE@XZ PROC				; CDlgBlockInsert::~CDlgBlockInsert, COMDAT
; _this$ = ecx
  00000	e9 00 00 00 00	 jmp	 ??1CDialog@@UAE@XZ	; CDialog::~CDialog
??1CDlgBlockInsert@@UAE@XZ ENDP				; CDlgBlockInsert::~CDlgBlockInsert
_TEXT	ENDS
; Function compile flags: /Ogtp
;	COMDAT ??1CGraphSearchInfo_IndicatorName@@QAE@XZ
_TEXT	SEGMENT
??1CGraphSearchInfo_IndicatorName@@QAE@XZ PROC		; CGraphSearchInfo_IndicatorName::~CGraphSearchInfo_IndicatorName, COMDAT
; _this$ = ecx
  00000	83 c1 40	 add	 ecx, 64			; 00000040H
  00003	ff 25 00 00 00
	00		 jmp	 DWORD PTR __imp_??1?$CStringT@DV?$StrTraitMFC_DLL@DV?$ChTraitsCRT@D@ATL@@@@@ATL@@QAE@XZ
??1CGraphSearchInfo_IndicatorName@@QAE@XZ ENDP		; CGraphSearchInfo_IndicatorName::~CGraphSearchInfo_IndicatorName
_TEXT	ENDS
; Function compile flags: /Ogtp
;	COMDAT ??1CHorizontalScalePtrData@@QAE@XZ
_TEXT	SEGMENT
??1CHorizontalScalePtrData@@QAE@XZ PROC			; CHorizontalScalePtrData::~CHorizontalScalePtrData, COMDAT
; _this$ = ecx
  00000	83 c1 04	 add	 ecx, 4
  00003	ff 25 00 00 00
	00		 jmp	 DWORD PTR __imp_??1?$CStringT@DV?$StrTraitMFC_DLL@DV?$ChTraitsCRT@D@ATL@@@@@ATL@@QAE@XZ
??1CHorizontalScalePtrData@@QAE@XZ ENDP			; CHorizontalScalePtrData::~CHorizontalScalePtrData
_TEXT	ENDS
; Function compile flags: /Ogtp
;	COMDAT ??1CInsertingBlockHorzScaleData@@QAE@XZ
_TEXT	SEGMENT
??1CInsertingBlockHorzScaleData@@QAE@XZ PROC		; CInsertingBlockHorzScaleData::~CInsertingBlockHorzScaleData, COMDAT
; _this$ = ecx
  00000	83 c1 04	 add	 ecx, 4
  00003	ff 25 00 00 00
	00		 jmp	 DWORD PTR __imp_??1CHorizontalScale@@QAE@XZ
??1CInsertingBlockHorzScaleData@@QAE@XZ ENDP		; CInsertingBlockHorzScaleData::~CInsertingBlockHorzScaleData
_TEXT	ENDS
; Function compile flags: /Ogtp
;	COMDAT ??1CRowViewData@@QAE@XZ
_TEXT	SEGMENT
??1CRowViewData@@QAE@XZ PROC				; CRowViewData::~CRowViewData, COMDAT
; _this$ = ecx
  00000	56		 push	 esi
  00001	8b f1		 mov	 esi, ecx
  00003	8d 4e 24	 lea	 ecx, DWORD PTR [esi+36]
  00006	e8 00 00 00 00	 call	 ??1?$CList@VCSubGraphViewData@@AAV1@@@UAE@XZ ; CList<CSubGraphViewData,CSubGraphViewData &>::~CList<CSubGraphViewData,CSubGraphViewData &>
  0000b	8d 4e 20	 lea	 ecx, DWORD PTR [esi+32]
  0000e	5e		 pop	 esi
  0000f	ff 25 00 00 00
	00		 jmp	 DWORD PTR __imp_??1?$CStringT@DV?$StrTraitMFC_DLL@DV?$ChTraitsCRT@D@ATL@@@@@ATL@@QAE@XZ
??1CRowViewData@@QAE@XZ ENDP				; CRowViewData::~CRowViewData
_TEXT	ENDS
; Function compile flags: /Ogtp
; File C:\Program Files (x86)\Microsoft Visual Studio\2019\Community\VC\Tools\MSVC\14.29.30133\atlmfc\include\afx.inl
;	COMDAT ??_G?$CList@VCSubGraphViewData@@AAV1@@@UAEPAXI@Z
_TEXT	SEGMENT
___flags$ = 8						; size = 4
??_G?$CList@VCSubGraphViewData@@AAV1@@@UAEPAXI@Z PROC	; CList<CSubGraphViewData,CSubGraphViewData &>::`scalar deleting destructor', COMDAT
; _this$ = ecx
  00000	55		 push	 ebp
  00001	8b ec		 mov	 ebp, esp
  00003	56		 push	 esi
  00004	8b f1		 mov	 esi, ecx
  00006	e8 00 00 00 00	 call	 ??1?$CList@VCSubGraphViewData@@AAV1@@@UAE@XZ ; CList<CSubGraphViewData,CSubGraphViewData &>::~CList<CSubGraphViewData,CSubGraphViewData &>
  0000b	8b 45 08	 mov	 eax, DWORD PTR ___flags$[ebp]
  0000e	a8 01		 test	 al, 1
  00010	74 1f		 je	 SHORT $LN9@scalar
  00012	a8 04		 test	 al, 4
  00014	75 10		 jne	 SHORT $LN3@scalar

; 112  : 	{ ::operator delete(p); }

  00016	56		 push	 esi
  00017	e8 00 00 00 00	 call	 ??3@YAXPAX@Z		; operator delete
  0001c	83 c4 04	 add	 esp, 4
  0001f	8b c6		 mov	 eax, esi
  00021	5e		 pop	 esi
  00022	5d		 pop	 ebp
  00023	c2 04 00	 ret	 4
$LN3@scalar:
  00026	6a 1c		 push	 28			; 0000001cH
  00028	56		 push	 esi
  00029	e8 00 00 00 00	 call	 ?__global_delete@@YAXPAXI@Z ; __global_delete
  0002e	83 c4 08	 add	 esp, 8
$LN9@scalar:
  00031	8b c6		 mov	 eax, esi
  00033	5e		 pop	 esi
  00034	5d		 pop	 ebp
  00035	c2 04 00	 ret	 4
??_G?$CList@VCSubGraphViewData@@AAV1@@@UAEPAXI@Z ENDP	; CList<CSubGraphViewData,CSubGraphViewData &>::`scalar deleting destructor'
_TEXT	ENDS
; Function compile flags: /Ogtp
; File C:\Program Files (x86)\Microsoft Visual Studio\2019\Community\VC\Tools\MSVC\14.29.30133\atlmfc\include\afxtempl.h
; File C:\Program Files (x86)\Microsoft Visual Studio\2019\Community\VC\Tools\MSVC\14.29.30133\atlmfc\include\afx.inl
; File C:\Program Files (x86)\Microsoft Visual Studio\2019\Community\VC\Tools\MSVC\14.29.30133\atlmfc\include\afxtempl.h
; File C:\Program Files (x86)\Microsoft Visual Studio\2019\Community\VC\Tools\MSVC\14.29.30133\atlmfc\include\afx.inl
; File C:\Program Files (x86)\Microsoft Visual Studio\2019\Community\VC\Tools\MSVC\14.29.30133\atlmfc\include\afxtempl.h
; File C:\Program Files (x86)\Microsoft Visual Studio\2019\Community\VC\Tools\MSVC\14.29.30133\atlmfc\include\afx.inl
; File C:\Program Files (x86)\Microsoft Visual Studio\2019\Community\VC\Tools\MSVC\14.29.30133\atlmfc\include\afxtempl.h
; File C:\Program Files (x86)\Microsoft Visual Studio\2019\Community\VC\Tools\MSVC\14.29.30133\atlmfc\include\afx.inl
; File C:\Program Files (x86)\Microsoft Visual Studio\2019\Community\VC\Tools\MSVC\14.29.30133\atlmfc\include\afxtempl.h
; File C:\Program Files (x86)\Microsoft Visual Studio\2019\Community\VC\Tools\MSVC\14.29.30133\atlmfc\include\afx.inl
; File C:\Program Files (x86)\Microsoft Visual Studio\2019\Community\VC\Tools\MSVC\14.29.30133\atlmfc\include\afxtempl.h
; File C:\Program Files (x86)\Microsoft Visual Studio\2019\Community\VC\Tools\MSVC\14.29.30133\atlmfc\include\afx.inl
; File C:\Program Files (x86)\Microsoft Visual Studio\2019\Community\VC\Tools\MSVC\14.29.30133\atlmfc\include\afxtempl.h
; File C:\Program Files (x86)\Microsoft Visual Studio\2019\Community\VC\Tools\MSVC\14.29.30133\atlmfc\include\afx.inl
; File C:\Program Files (x86)\Microsoft Visual Studio\2019\Community\VC\Tools\MSVC\14.29.30133\atlmfc\include\afxtempl.h
;	COMDAT ?Serialize@?$CList@VCSubGraphViewData@@AAV1@@@UAEXAAVCArchive@@@Z
_TEXT	SEGMENT
_newData$2 = -44					; size = 20
_nNewCount$1$ = -24					; size = 4
_pData$1$ = -20						; size = 4
_pData$1$ = -20						; size = 4
_pNode$1$ = -20						; size = 4
_nCount$1$ = -16					; size = 4
_nElementsLeft$1$ = -16					; size = 4
_this$1$ = -16						; size = 4
__$EHRec$ = -12						; size = 12
_ar$ = 8						; size = 4
?Serialize@?$CList@VCSubGraphViewData@@AAV1@@@UAEXAAVCArchive@@@Z PROC ; CList<CSubGraphViewData,CSubGraphViewData &>::Serialize, COMDAT
; _this$ = ecx

; 1169 : {

  00000	55		 push	 ebp
  00001	8b ec		 mov	 ebp, esp
  00003	6a ff		 push	 -1
  00005	68 00 00 00 00	 push	 __ehhandler$?Serialize@?$CList@VCSubGraphViewData@@AAV1@@@UAEXAAVCArchive@@@Z
  0000a	64 a1 00 00 00
	00		 mov	 eax, DWORD PTR fs:0
  00010	50		 push	 eax
  00011	83 ec 20	 sub	 esp, 32			; 00000020H
  00014	53		 push	 ebx
  00015	56		 push	 esi
  00016	57		 push	 edi
  00017	a1 00 00 00 00	 mov	 eax, DWORD PTR ___security_cookie
  0001c	33 c5		 xor	 eax, ebp
  0001e	50		 push	 eax
  0001f	8d 45 f4	 lea	 eax, DWORD PTR __$EHRec$[ebp]
  00022	64 a3 00 00 00
	00		 mov	 DWORD PTR fs:0, eax
  00028	8b d9		 mov	 ebx, ecx
  0002a	89 5d f0	 mov	 DWORD PTR _this$1$[ebp], ebx
; File C:\Program Files (x86)\Microsoft Visual Studio\2019\Community\VC\Tools\MSVC\14.29.30133\atlmfc\include\afx.inl

; 212  : 	{ return (m_nMode & CArchive::load) == 0; }

  0002d	8b 4d 08	 mov	 ecx, DWORD PTR _ar$[ebp]
  00030	8b 41 18	 mov	 eax, DWORD PTR [ecx+24]
  00033	f7 d0		 not	 eax
  00035	a8 01		 test	 al, 1
; File C:\Program Files (x86)\Microsoft Visual Studio\2019\Community\VC\Tools\MSVC\14.29.30133\atlmfc\include\afxtempl.h

; 1174 : 	if (ar.IsStoring())

  00037	0f 84 b6 00 00
	00		 je	 $LN7@Serialize

; 1175 : 	{
; 1176 : 		ar.WriteCount(m_nCount);

  0003d	ff 73 0c	 push	 DWORD PTR [ebx+12]
  00040	e8 00 00 00 00	 call	 ?WriteCount@CArchive@@QAEXK@Z ; CArchive::WriteCount

; 1177 : 		for (CNode* pNode = m_pNodeHead; pNode != NULL; pNode = pNode->pNext)

  00045	8b 43 04	 mov	 eax, DWORD PTR [ebx+4]
  00048	89 45 ec	 mov	 DWORD PTR _pNode$1$[ebp], eax
  0004b	85 c0		 test	 eax, eax
  0004d	0f 84 ee 01 00
	00		 je	 $LN87@Serialize
$LL4@Serialize:

; 1178 : 		{
; 1179 : 			ASSERT(AfxIsValidAddress(pNode, sizeof(CNode)));
; 1180 : 			TYPE* pData;
; 1181 : 			/*
; 1182 : 			 * in some cases the & operator might be overloaded, and we cannot use it to obtain
; 1183 : 			 * the address of a given object.  We then use the following trick to get the address
; 1184 : 			 */
; 1185 : 			pData = reinterpret_cast< TYPE* >( &reinterpret_cast< int& >( static_cast< TYPE& >( pNode->data ) ) );

  00053	8d 70 08	 lea	 esi, DWORD PTR [eax+8]

; 68   : 	ENSURE(nCount == 0 || pElements != NULL);

  00056	85 f6		 test	 esi, esi
  00058	0f 84 00 02 00
	00		 je	 $LN77@Serialize
; File C:\Program Files (x86)\Microsoft Visual Studio\2019\Community\VC\Tools\MSVC\14.29.30133\atlmfc\include\afx.inl

; 212  : 	{ return (m_nMode & CArchive::load) == 0; }

  0005e	8b 4d 08	 mov	 ecx, DWORD PTR _ar$[ebp]
  00061	8b 41 18	 mov	 eax, DWORD PTR [ecx+24]
  00064	f7 d0		 not	 eax
  00066	a8 01		 test	 al, 1
; File C:\Program Files (x86)\Microsoft Visual Studio\2019\Community\VC\Tools\MSVC\14.29.30133\atlmfc\include\afxtempl.h

; 73   : 	if (ar.IsStoring())

  00068	74 32		 je	 SHORT $LN22@Serialize

; 74   : 	{
; 75   : 		TYPE* pData;
; 76   : 		UINT_PTR nElementsLeft;
; 77   : 
; 78   : 		nElementsLeft = nCount;

  0006a	b8 01 00 00 00	 mov	 eax, 1
  0006f	89 45 f0	 mov	 DWORD PTR _nElementsLeft$1$[ebp], eax
$LL17@Serialize:

; 79   : 		pData = pElements;
; 80   : 		while( nElementsLeft > 0 )
; 81   : 		{
; 82   : 			UINT nElementsToWrite;
; 83   : 
; 84   : 			nElementsToWrite = UINT(__min(nElementsLeft, INT_MAX/sizeof(TYPE)));

  00072	bb 66 66 66 06	 mov	 ebx, 107374182		; 06666666H
  00077	3b c3		 cmp	 eax, ebx
  00079	0f 42 d8	 cmovb	 ebx, eax

; 85   : 			ar.Write(pData, nElementsToWrite*sizeof(TYPE));

  0007c	8d 3c 9b	 lea	 edi, DWORD PTR [ebx+ebx*4]
  0007f	c1 e7 02	 shl	 edi, 2
  00082	57		 push	 edi
  00083	56		 push	 esi
  00084	e8 00 00 00 00	 call	 ?Write@CArchive@@QAEXPBXI@Z ; CArchive::Write

; 86   : 			nElementsLeft -= nElementsToWrite;

  00089	8b 45 f0	 mov	 eax, DWORD PTR _nElementsLeft$1$[ebp]

; 87   : 			pData += nElementsToWrite;

  0008c	03 f7		 add	 esi, edi
  0008e	8b 4d 08	 mov	 ecx, DWORD PTR _ar$[ebp]
  00091	2b c3		 sub	 eax, ebx
  00093	89 45 f0	 mov	 DWORD PTR _nElementsLeft$1$[ebp], eax
  00096	85 c0		 test	 eax, eax
  00098	75 d8		 jne	 SHORT $LL17@Serialize

; 88   : 		}
; 89   : 	}

  0009a	eb 33		 jmp	 SHORT $LN2@Serialize
$LN22@Serialize:

; 90   : 	else
; 91   : 	{
; 92   : 		TYPE* pData;
; 93   : 		UINT_PTR nElementsLeft;
; 94   : 
; 95   : 		nElementsLeft = nCount;

  0009c	bf 01 00 00 00	 mov	 edi, 1
$LL19@Serialize:

; 98   : 		{
; 99   : 			UINT nElementsToRead;
; 100  : 
; 101  : 			nElementsToRead = UINT(__min(nElementsLeft, INT_MAX/sizeof(TYPE)));

  000a1	bb 66 66 66 06	 mov	 ebx, 107374182		; 06666666H
  000a6	3b fb		 cmp	 edi, ebx
  000a8	0f 42 df	 cmovb	 ebx, edi

; 102  : 			ar.EnsureRead(pData, nElementsToRead*sizeof(TYPE));

  000ab	8d 04 9b	 lea	 eax, DWORD PTR [ebx+ebx*4]
  000ae	c1 e0 02	 shl	 eax, 2
; File C:\Program Files (x86)\Microsoft Visual Studio\2019\Community\VC\Tools\MSVC\14.29.30133\atlmfc\include\afx.inl

; 399  : 	UINT nRead=Read(lpBuf, nCount);

  000b1	50		 push	 eax
  000b2	56		 push	 esi
; File C:\Program Files (x86)\Microsoft Visual Studio\2019\Community\VC\Tools\MSVC\14.29.30133\atlmfc\include\afxtempl.h

; 102  : 			ar.EnsureRead(pData, nElementsToRead*sizeof(TYPE));

  000b3	89 45 f0	 mov	 DWORD PTR _nCount$1$[ebp], eax
; File C:\Program Files (x86)\Microsoft Visual Studio\2019\Community\VC\Tools\MSVC\14.29.30133\atlmfc\include\afx.inl

; 399  : 	UINT nRead=Read(lpBuf, nCount);

  000b6	e8 00 00 00 00	 call	 ?Read@CArchive@@QAEIPAXI@Z ; CArchive::Read

; 400  : 	if(nRead!=nCount)

  000bb	8b 4d f0	 mov	 ecx, DWORD PTR _nCount$1$[ebp]
  000be	3b c1		 cmp	 eax, ecx
  000c0	0f 85 8f 01 00
	00		 jne	 $LN76@Serialize
; File C:\Program Files (x86)\Microsoft Visual Studio\2019\Community\VC\Tools\MSVC\14.29.30133\atlmfc\include\afxtempl.h

; 97   : 		while( nElementsLeft > 0 )

  000c6	03 f1		 add	 esi, ecx
  000c8	8b 4d 08	 mov	 ecx, DWORD PTR _ar$[ebp]

; 103  : 			nElementsLeft -= nElementsToRead;

  000cb	2b fb		 sub	 edi, ebx
  000cd	75 d2		 jne	 SHORT $LL19@Serialize
$LN2@Serialize:

; 1177 : 		for (CNode* pNode = m_pNodeHead; pNode != NULL; pNode = pNode->pNext)

  000cf	8b 45 ec	 mov	 eax, DWORD PTR _pNode$1$[ebp]
  000d2	8b 00		 mov	 eax, DWORD PTR [eax]
  000d4	89 45 ec	 mov	 DWORD PTR _pNode$1$[ebp], eax
  000d7	85 c0		 test	 eax, eax
  000d9	0f 85 74 ff ff
	ff		 jne	 $LL4@Serialize

; 1198 : 	}
; 1199 : }

  000df	8b 4d f4	 mov	 ecx, DWORD PTR __$EHRec$[ebp]
  000e2	64 89 0d 00 00
	00 00		 mov	 DWORD PTR fs:0, ecx
  000e9	59		 pop	 ecx
  000ea	5f		 pop	 edi
  000eb	5e		 pop	 esi
  000ec	5b		 pop	 ebx
  000ed	8b e5		 mov	 esp, ebp
  000ef	5d		 pop	 ebp
  000f0	c2 04 00	 ret	 4
$LN7@Serialize:

; 1186 : 			SerializeElements<TYPE>(ar, pData, 1);
; 1187 : 		}
; 1188 : 	}
; 1189 : 	else
; 1190 : 	{
; 1191 : 		DWORD_PTR nNewCount = ar.ReadCount();

  000f3	e8 00 00 00 00	 call	 ?ReadCount@CArchive@@QAEKXZ ; CArchive::ReadCount

; 1192 : 		while (nNewCount--)

  000f8	85 c0		 test	 eax, eax
  000fa	0f 84 41 01 00
	00		 je	 $LN87@Serialize
$LL5@Serialize:

; 1194 : 			TYPE newData[1];

  00100	68 00 00 00 00	 push	 OFFSET ??1CSubGraphViewData@@QAE@XZ
  00105	68 00 00 00 00	 push	 OFFSET ??0CSubGraphViewData@@QAE@XZ ; CSubGraphViewData::CSubGraphViewData
  0010a	48		 dec	 eax
  0010b	6a 01		 push	 1
  0010d	89 45 e8	 mov	 DWORD PTR _nNewCount$1$[ebp], eax
  00110	8d 45 d4	 lea	 eax, DWORD PTR _newData$2[ebp]
  00113	6a 14		 push	 20			; 00000014H
  00115	50		 push	 eax
  00116	e8 00 00 00 00	 call	 ??_L@YGXPAXIIP6EX0@Z1@Z
; File C:\Program Files (x86)\Microsoft Visual Studio\2019\Community\VC\Tools\MSVC\14.29.30133\atlmfc\include\afx.inl

; 212  : 	{ return (m_nMode & CArchive::load) == 0; }

  0011b	8b 4d 08	 mov	 ecx, DWORD PTR _ar$[ebp]
; File C:\Program Files (x86)\Microsoft Visual Studio\2019\Community\VC\Tools\MSVC\14.29.30133\atlmfc\include\afxtempl.h

; 1194 : 			TYPE newData[1];

  0011e	c7 45 fc 00 00
	00 00		 mov	 DWORD PTR __$EHRec$[ebp+8], 0
; File C:\Program Files (x86)\Microsoft Visual Studio\2019\Community\VC\Tools\MSVC\14.29.30133\atlmfc\include\afx.inl

; 212  : 	{ return (m_nMode & CArchive::load) == 0; }

  00125	8b 41 18	 mov	 eax, DWORD PTR [ecx+24]
  00128	f7 d0		 not	 eax
  0012a	a8 01		 test	 al, 1
; File C:\Program Files (x86)\Microsoft Visual Studio\2019\Community\VC\Tools\MSVC\14.29.30133\atlmfc\include\afxtempl.h

; 73   : 	if (ar.IsStoring())

  0012c	8d 45 d4	 lea	 eax, DWORD PTR _newData$2[ebp]
  0012f	89 45 ec	 mov	 DWORD PTR _pData$1$[ebp], eax
  00132	74 34		 je	 SHORT $LN43@Serialize

; 74   : 	{
; 75   : 		TYPE* pData;
; 76   : 		UINT_PTR nElementsLeft;
; 77   : 
; 78   : 		nElementsLeft = nCount;

  00134	bb 01 00 00 00	 mov	 ebx, 1
  00139	0f 1f 80 00 00
	00 00		 npad	 7
$LL38@Serialize:

; 79   : 		pData = pElements;
; 80   : 		while( nElementsLeft > 0 )
; 81   : 		{
; 82   : 			UINT nElementsToWrite;
; 83   : 
; 84   : 			nElementsToWrite = UINT(__min(nElementsLeft, INT_MAX/sizeof(TYPE)));

  00140	bf 66 66 66 06	 mov	 edi, 107374182		; 06666666H
  00145	3b df		 cmp	 ebx, edi
  00147	0f 42 fb	 cmovb	 edi, ebx

; 85   : 			ar.Write(pData, nElementsToWrite*sizeof(TYPE));

  0014a	8d 34 bf	 lea	 esi, DWORD PTR [edi+edi*4]
  0014d	c1 e6 02	 shl	 esi, 2
  00150	56		 push	 esi
  00151	50		 push	 eax
  00152	e8 00 00 00 00	 call	 ?Write@CArchive@@QAEXPBXI@Z ; CArchive::Write

; 87   : 			pData += nElementsToWrite;

  00157	8b 45 ec	 mov	 eax, DWORD PTR _pData$1$[ebp]
  0015a	8b 4d 08	 mov	 ecx, DWORD PTR _ar$[ebp]
  0015d	03 c6		 add	 eax, esi
  0015f	89 45 ec	 mov	 DWORD PTR _pData$1$[ebp], eax
  00162	2b df		 sub	 ebx, edi
  00164	75 da		 jne	 SHORT $LL38@Serialize

; 88   : 		}
; 89   : 	}

  00166	eb 36		 jmp	 SHORT $LN41@Serialize
$LN43@Serialize:

; 90   : 	else
; 91   : 	{
; 92   : 		TYPE* pData;
; 93   : 		UINT_PTR nElementsLeft;
; 94   : 
; 95   : 		nElementsLeft = nCount;

  00168	be 01 00 00 00	 mov	 esi, 1
  0016d	0f 1f 00	 npad	 3
$LL40@Serialize:

; 98   : 		{
; 99   : 			UINT nElementsToRead;
; 100  : 
; 101  : 			nElementsToRead = UINT(__min(nElementsLeft, INT_MAX/sizeof(TYPE)));

  00170	bf 66 66 66 06	 mov	 edi, 107374182		; 06666666H
  00175	3b f7		 cmp	 esi, edi
  00177	0f 42 fe	 cmovb	 edi, esi

; 102  : 			ar.EnsureRead(pData, nElementsToRead*sizeof(TYPE));

  0017a	8d 1c bf	 lea	 ebx, DWORD PTR [edi+edi*4]
  0017d	c1 e3 02	 shl	 ebx, 2
; File C:\Program Files (x86)\Microsoft Visual Studio\2019\Community\VC\Tools\MSVC\14.29.30133\atlmfc\include\afx.inl

; 399  : 	UINT nRead=Read(lpBuf, nCount);

  00180	53		 push	 ebx
  00181	50		 push	 eax
  00182	e8 00 00 00 00	 call	 ?Read@CArchive@@QAEIPAXI@Z ; CArchive::Read

; 400  : 	if(nRead!=nCount)

  00187	3b c3		 cmp	 eax, ebx
  00189	0f 85 c6 00 00
	00		 jne	 $LN76@Serialize
; File C:\Program Files (x86)\Microsoft Visual Studio\2019\Community\VC\Tools\MSVC\14.29.30133\atlmfc\include\afxtempl.h

; 97   : 		while( nElementsLeft > 0 )

  0018f	8b 45 ec	 mov	 eax, DWORD PTR _pData$1$[ebp]
  00192	8b 4d 08	 mov	 ecx, DWORD PTR _ar$[ebp]

; 104  : 			pData += nElementsToRead;

  00195	03 c3		 add	 eax, ebx
  00197	89 45 ec	 mov	 DWORD PTR _pData$1$[ebp], eax
  0019a	2b f7		 sub	 esi, edi
  0019c	75 d2		 jne	 SHORT $LL40@Serialize
$LN41@Serialize:

; 968  : 	CNode* pNewNode = NewNode(m_pNodeTail, NULL);

  0019e	8b 5d f0	 mov	 ebx, DWORD PTR _this$1$[ebp]

; 902  : 	if (m_pNodeFree == NULL)

  001a1	83 7b 10 00	 cmp	 DWORD PTR [ebx+16], 0

; 968  : 	CNode* pNewNode = NewNode(m_pNodeTail, NULL);

  001a5	8b 73 08	 mov	 esi, DWORD PTR [ebx+8]

; 902  : 	if (m_pNodeFree == NULL)

  001a8	75 36		 jne	 SHORT $LN64@Serialize

; 903  : 	{
; 904  : 		// add another block
; 905  : 		CPlex* pNewBlock = CPlex::Create(m_pBlocks, m_nBlockSize,

  001aa	6a 1c		 push	 28			; 0000001cH
  001ac	ff 73 18	 push	 DWORD PTR [ebx+24]
  001af	8d 43 14	 lea	 eax, DWORD PTR [ebx+20]
  001b2	50		 push	 eax
  001b3	e8 00 00 00 00	 call	 ?Create@CPlex@@SGPAU1@AAPAU1@II@Z ; CPlex::Create

; 906  : 				 sizeof(CNode));
; 907  : 
; 908  : 		// chain them into free list
; 909  : 		CNode* pNode = (CNode*) pNewBlock->data();
; 910  : 		// free in reverse order to make it easier to debug
; 911  : 		pNode += m_nBlockSize - 1;

  001b8	8b 53 18	 mov	 edx, DWORD PTR [ebx+24]
  001bb	8d 0c d5 00 00
	00 00		 lea	 ecx, DWORD PTR [edx*8]
  001c2	2b ca		 sub	 ecx, edx
  001c4	83 c1 fb	 add	 ecx, -5			; fffffffbH

; 912  : 		for (INT_PTR i = m_nBlockSize-1; i >= 0; i--, pNode--)

  001c7	83 c2 ff	 add	 edx, -1
  001ca	8d 0c 88	 lea	 ecx, DWORD PTR [eax+ecx*4]
  001cd	78 11		 js	 SHORT $LN64@Serialize
  001cf	90		 npad	 1
$LL61@Serialize:

; 913  : 		{
; 914  : 			pNode->pNext = m_pNodeFree;

  001d0	8b 43 10	 mov	 eax, DWORD PTR [ebx+16]
  001d3	89 01		 mov	 DWORD PTR [ecx], eax

; 915  : 			m_pNodeFree = pNode;

  001d5	89 4b 10	 mov	 DWORD PTR [ebx+16], ecx
  001d8	83 e9 1c	 sub	 ecx, 28			; 0000001cH
  001db	83 ea 01	 sub	 edx, 1
  001de	79 f0		 jns	 SHORT $LL61@Serialize
$LN64@Serialize:

; 916  : 		}
; 917  : 	}
; 918  : 	ENSURE(m_pNodeFree != NULL);  // we must have something

  001e0	8b 7b 10	 mov	 edi, DWORD PTR [ebx+16]
  001e3	85 ff		 test	 edi, edi
  001e5	74 77		 je	 SHORT $LN77@Serialize

; 919  : 
; 920  : 	CList::CNode* pNode = m_pNodeFree;
; 921  : 	m_pNodeFree = m_pNodeFree->pNext;

  001e7	8b 07		 mov	 eax, DWORD PTR [edi]

; 922  : 	pNode->pPrev = pPrev;
; 923  : 	pNode->pNext = pNext;
; 924  : 	m_nCount++;
; 925  : 	ASSERT(m_nCount > 0);  // make sure we don't overflow
; 926  : 
; 927  : #pragma push_macro("new")
; 928  : #undef new
; 929  : 	::new( (void*)( &pNode->data ) ) TYPE;

  001e9	8d 4f 08	 lea	 ecx, DWORD PTR [edi+8]
  001ec	89 43 10	 mov	 DWORD PTR [ebx+16], eax
  001ef	89 77 04	 mov	 DWORD PTR [edi+4], esi
  001f2	c7 07 00 00 00
	00		 mov	 DWORD PTR [edi], 0
  001f8	ff 43 0c	 inc	 DWORD PTR [ebx+12]
  001fb	e8 00 00 00 00	 call	 ??0CSubGraphViewData@@QAE@XZ ; CSubGraphViewData::CSubGraphViewData

; 969  : 	pNewNode->data = newElement;

  00200	8d 45 d4	 lea	 eax, DWORD PTR _newData$2[ebp]
  00203	50		 push	 eax
  00204	8d 4f 08	 lea	 ecx, DWORD PTR [edi+8]
  00207	e8 00 00 00 00	 call	 ??4CSubGraphViewData@@QAEAAV0@ABV0@@Z ; CSubGraphViewData::operator=

; 970  : 	if (m_pNodeTail != NULL)

  0020c	8b 43 08	 mov	 eax, DWORD PTR [ebx+8]
  0020f	85 c0		 test	 eax, eax
  00211	74 04		 je	 SHORT $LN55@Serialize

; 971  : 		m_pNodeTail->pNext = pNewNode;

  00213	89 38		 mov	 DWORD PTR [eax], edi
  00215	eb 03		 jmp	 SHORT $LN56@Serialize
$LN55@Serialize:

; 972  : 	else
; 973  : 		m_pNodeHead = pNewNode;

  00217	89 7b 04	 mov	 DWORD PTR [ebx+4], edi
$LN56@Serialize:

; 1195 : 			SerializeElements<TYPE>(ar, newData, 1);
; 1196 : 			AddTail(newData[0]);
; 1197 : 		}

  0021a	68 00 00 00 00	 push	 OFFSET ??1CSubGraphViewData@@QAE@XZ
  0021f	6a 01		 push	 1
  00221	6a 14		 push	 20			; 00000014H
  00223	8d 45 d4	 lea	 eax, DWORD PTR _newData$2[ebp]

; 974  : 	m_pNodeTail = pNewNode;

  00226	89 7b 08	 mov	 DWORD PTR [ebx+8], edi

; 1195 : 			SerializeElements<TYPE>(ar, newData, 1);
; 1196 : 			AddTail(newData[0]);
; 1197 : 		}

  00229	50		 push	 eax
  0022a	c7 45 fc ff ff
	ff ff		 mov	 DWORD PTR __$EHRec$[ebp+8], -1
  00231	e8 00 00 00 00	 call	 ??_M@YGXPAXIIP6EX0@Z@Z
  00236	8b 45 e8	 mov	 eax, DWORD PTR _nNewCount$1$[ebp]
  00239	85 c0		 test	 eax, eax
  0023b	0f 85 bf fe ff
	ff		 jne	 $LL5@Serialize
$LN87@Serialize:

; 1198 : 	}
; 1199 : }

  00241	8b 4d f4	 mov	 ecx, DWORD PTR __$EHRec$[ebp]
  00244	64 89 0d 00 00
	00 00		 mov	 DWORD PTR fs:0, ecx
  0024b	59		 pop	 ecx
  0024c	5f		 pop	 edi
  0024d	5e		 pop	 esi
  0024e	5b		 pop	 ebx
  0024f	8b e5		 mov	 esp, ebp
  00251	5d		 pop	 ebp
  00252	c2 04 00	 ret	 4
$LN76@Serialize:
  00255	6a 00		 push	 0
  00257	6a 03		 push	 3
  00259	e8 00 00 00 00	 call	 ?AfxThrowArchiveException@@YGXHPBD@Z ; AfxThrowArchiveException
$LN77@Serialize:
  0025e	e8 00 00 00 00	 call	 ?AfxThrowInvalidArgException@@YGXXZ ; AfxThrowInvalidArgException
$LN107@Serialize:
  00263	cc		 int	 3
_TEXT	ENDS
;	COMDAT text$x
text$x	SEGMENT
__unwindfunclet$?Serialize@?$CList@VCSubGraphViewData@@AAV1@@@UAEXAAVCArchive@@@Z$0:
  00000	68 00 00 00 00	 push	 OFFSET ??1CSubGraphViewData@@QAE@XZ
  00005	6a 01		 push	 1
  00007	6a 14		 push	 20			; 00000014H
  00009	8d 45 d4	 lea	 eax, DWORD PTR _newData$2[ebp]
  0000c	50		 push	 eax
  0000d	e8 00 00 00 00	 call	 ??_M@YGXPAXIIP6EX0@Z@Z
  00012	c3		 ret	 0
  00013	cc		 int	 3
  00014	cc		 int	 3
  00015	cc		 int	 3
  00016	cc		 int	 3
  00017	cc		 int	 3
__ehhandler$?Serialize@?$CList@VCSubGraphViewData@@AAV1@@@UAEXAAVCArchive@@@Z:
  00018	90		 npad	 1
  00019	90		 npad	 1
  0001a	8b 54 24 08	 mov	 edx, DWORD PTR [esp+8]
  0001e	8d 42 0c	 lea	 eax, DWORD PTR [edx+12]
  00021	8b 4a d0	 mov	 ecx, DWORD PTR [edx-48]
  00024	33 c8		 xor	 ecx, eax
  00026	e8 00 00 00 00	 call	 @__security_check_cookie@4
  0002b	b8 00 00 00 00	 mov	 eax, OFFSET __ehfuncinfo$?Serialize@?$CList@VCSubGraphViewData@@AAV1@@@UAEXAAVCArchive@@@Z
  00030	e9 00 00 00 00	 jmp	 ___CxxFrameHandler3
text$x	ENDS
?Serialize@?$CList@VCSubGraphViewData@@AAV1@@@UAEXAAVCArchive@@@Z ENDP ; CList<CSubGraphViewData,CSubGraphViewData &>::Serialize
; Function compile flags: /Ogtp
; File C:\Program Files (x86)\Microsoft Visual Studio\2019\Community\VC\Tools\MSVC\14.29.30133\atlmfc\include\afxtempl.h
;	COMDAT ??1?$CList@VCSubGraphViewData@@AAV1@@@UAE@XZ
_TEXT	SEGMENT
__$EHRec$ = -12						; size = 12
??1?$CList@VCSubGraphViewData@@AAV1@@@UAE@XZ PROC	; CList<CSubGraphViewData,CSubGraphViewData &>::~CList<CSubGraphViewData,CSubGraphViewData &>, COMDAT
; _this$ = ecx

; 878  : {

  00000	55		 push	 ebp
  00001	8b ec		 mov	 ebp, esp
  00003	6a ff		 push	 -1
  00005	68 00 00 00 00	 push	 __ehhandler$??1?$CList@VCSubGraphViewData@@AAV1@@@UAE@XZ
  0000a	64 a1 00 00 00
	00		 mov	 eax, DWORD PTR fs:0
  00010	50		 push	 eax
  00011	56		 push	 esi
  00012	57		 push	 edi
  00013	a1 00 00 00 00	 mov	 eax, DWORD PTR ___security_cookie
  00018	33 c5		 xor	 eax, ebp
  0001a	50		 push	 eax
  0001b	8d 45 f4	 lea	 eax, DWORD PTR __$EHRec$[ebp]
  0001e	64 a3 00 00 00
	00		 mov	 DWORD PTR fs:0, eax
  00024	8b f9		 mov	 edi, ecx

; 867  : 	for (pNode = m_pNodeHead; pNode != NULL; pNode = pNode->pNext)

  00026	8b 77 04	 mov	 esi, DWORD PTR [edi+4]

; 878  : {

  00029	c7 07 00 00 00
	00		 mov	 DWORD PTR [edi], OFFSET ??_7?$CList@VCSubGraphViewData@@AAV1@@@6B@

; 867  : 	for (pNode = m_pNodeHead; pNode != NULL; pNode = pNode->pNext)

  0002f	85 f6		 test	 esi, esi
  00031	74 21		 je	 SHORT $LN5@CList
$LL6@CList:

; 868  : 		pNode->data.~TYPE();

  00033	8d 4e 18	 lea	 ecx, DWORD PTR [esi+24]
  00036	ff 15 00 00 00
	00		 call	 DWORD PTR __imp_??1?$CStringT@DV?$StrTraitMFC_DLL@DV?$ChTraitsCRT@D@ATL@@@@@ATL@@QAE@XZ
  0003c	8d 4e 14	 lea	 ecx, DWORD PTR [esi+20]
  0003f	ff 15 00 00 00
	00		 call	 DWORD PTR __imp_??1?$CStringT@DV?$StrTraitMFC_DLL@DV?$ChTraitsCRT@D@ATL@@@@@ATL@@QAE@XZ
  00045	8d 4e 10	 lea	 ecx, DWORD PTR [esi+16]
  00048	ff 15 00 00 00
	00		 call	 DWORD PTR __imp_??1?$CStringT@DV?$StrTraitMFC_DLL@DV?$ChTraitsCRT@D@ATL@@@@@ATL@@QAE@XZ

; 867  : 	for (pNode = m_pNodeHead; pNode != NULL; pNode = pNode->pNext)

  0004e	8b 36		 mov	 esi, DWORD PTR [esi]
  00050	85 f6		 test	 esi, esi
  00052	75 df		 jne	 SHORT $LL6@CList
$LN5@CList:

; 869  : 
; 870  : 	m_nCount = 0;
; 871  : 	m_pNodeHead = m_pNodeTail = m_pNodeFree = NULL;
; 872  : 	m_pBlocks->FreeDataChain();

  00054	8b 4f 14	 mov	 ecx, DWORD PTR [edi+20]
  00057	c7 47 0c 00 00
	00 00		 mov	 DWORD PTR [edi+12], 0
  0005e	c7 47 10 00 00
	00 00		 mov	 DWORD PTR [edi+16], 0
  00065	c7 47 08 00 00
	00 00		 mov	 DWORD PTR [edi+8], 0
  0006c	c7 47 04 00 00
	00 00		 mov	 DWORD PTR [edi+4], 0
  00073	e8 00 00 00 00	 call	 ?FreeDataChain@CPlex@@QAEXXZ ; CPlex::FreeDataChain

; 873  : 	m_pBlocks = NULL;

  00078	c7 47 14 00 00
	00 00		 mov	 DWORD PTR [edi+20], 0

; 879  : 	RemoveAll();
; 880  : 	ASSERT(m_nCount == 0);
; 881  : }

  0007f	8b 4d f4	 mov	 ecx, DWORD PTR __$EHRec$[ebp]
  00082	64 89 0d 00 00
	00 00		 mov	 DWORD PTR fs:0, ecx
  00089	59		 pop	 ecx
  0008a	5f		 pop	 edi
  0008b	5e		 pop	 esi
  0008c	8b e5		 mov	 esp, ebp
  0008e	5d		 pop	 ebp
  0008f	c3		 ret	 0
  00090	cc		 int	 3
  00091	cc		 int	 3
  00092	cc		 int	 3
  00093	cc		 int	 3
  00094	cc		 int	 3
_TEXT	ENDS
;	COMDAT text$x
text$x	SEGMENT
__ehhandler$??1?$CList@VCSubGraphViewData@@AAV1@@@UAE@XZ:
  00000	90		 npad	 1
  00001	90		 npad	 1
  00002	8b 54 24 08	 mov	 edx, DWORD PTR [esp+8]
  00006	8d 42 0c	 lea	 eax, DWORD PTR [edx+12]
  00009	8b 4a f4	 mov	 ecx, DWORD PTR [edx-12]
  0000c	33 c8		 xor	 ecx, eax
  0000e	e8 00 00 00 00	 call	 @__security_check_cookie@4
  00013	b8 00 00 00 00	 mov	 eax, OFFSET __ehfuncinfo$??1?$CList@VCSubGraphViewData@@AAV1@@@UAE@XZ
  00018	e9 00 00 00 00	 jmp	 ___CxxFrameHandler3
text$x	ENDS
??1?$CList@VCSubGraphViewData@@AAV1@@@UAE@XZ ENDP	; CList<CSubGraphViewData,CSubGraphViewData &>::~CList<CSubGraphViewData,CSubGraphViewData &>
; Function compile flags: /Ogtp
; File C:\Program Files (x86)\Microsoft Visual Studio\2019\Community\VC\Tools\MSVC\14.29.30133\atlmfc\include\afxtempl.h
;	COMDAT ?NewNode@?$CList@VCSubGraphViewData@@AAV1@@@IAEPAUCNode@1@PAU21@0@Z
_TEXT	SEGMENT
_pPrev$ = 8						; size = 4
_pNext$ = 12						; size = 4
?NewNode@?$CList@VCSubGraphViewData@@AAV1@@@IAEPAUCNode@1@PAU21@0@Z PROC ; CList<CSubGraphViewData,CSubGraphViewData &>::NewNode, COMDAT
; _this$ = ecx

; 901  : {

  00000	55		 push	 ebp
  00001	8b ec		 mov	 ebp, esp
  00003	56		 push	 esi
  00004	8b f1		 mov	 esi, ecx
  00006	57		 push	 edi

; 902  : 	if (m_pNodeFree == NULL)

  00007	83 7e 10 00	 cmp	 DWORD PTR [esi+16], 0
  0000b	75 38		 jne	 SHORT $LN7@NewNode

; 903  : 	{
; 904  : 		// add another block
; 905  : 		CPlex* pNewBlock = CPlex::Create(m_pBlocks, m_nBlockSize,

  0000d	6a 1c		 push	 28			; 0000001cH
  0000f	ff 76 18	 push	 DWORD PTR [esi+24]
  00012	8d 46 14	 lea	 eax, DWORD PTR [esi+20]
  00015	50		 push	 eax
  00016	e8 00 00 00 00	 call	 ?Create@CPlex@@SGPAU1@AAPAU1@II@Z ; CPlex::Create

; 906  : 				 sizeof(CNode));
; 907  : 
; 908  : 		// chain them into free list
; 909  : 		CNode* pNode = (CNode*) pNewBlock->data();
; 910  : 		// free in reverse order to make it easier to debug
; 911  : 		pNode += m_nBlockSize - 1;

  0001b	8b 56 18	 mov	 edx, DWORD PTR [esi+24]
  0001e	83 c0 08	 add	 eax, 8
  00021	8d 0c d5 00 00
	00 00		 lea	 ecx, DWORD PTR [edx*8]
  00028	2b ca		 sub	 ecx, edx
  0002a	8d 04 88	 lea	 eax, DWORD PTR [eax+ecx*4]
  0002d	83 c0 e4	 add	 eax, -28		; ffffffe4H

; 912  : 		for (INT_PTR i = m_nBlockSize-1; i >= 0; i--, pNode--)

  00030	83 c2 ff	 add	 edx, -1
  00033	78 10		 js	 SHORT $LN7@NewNode
$LL4@NewNode:

; 913  : 		{
; 914  : 			pNode->pNext = m_pNodeFree;

  00035	8b 4e 10	 mov	 ecx, DWORD PTR [esi+16]
  00038	89 08		 mov	 DWORD PTR [eax], ecx

; 915  : 			m_pNodeFree = pNode;

  0003a	89 46 10	 mov	 DWORD PTR [esi+16], eax
  0003d	83 e8 1c	 sub	 eax, 28			; 0000001cH
  00040	83 ea 01	 sub	 edx, 1
  00043	79 f0		 jns	 SHORT $LL4@NewNode
$LN7@NewNode:

; 916  : 		}
; 917  : 	}
; 918  : 	ENSURE(m_pNodeFree != NULL);  // we must have something

  00045	8b 7e 10	 mov	 edi, DWORD PTR [esi+16]
  00048	85 ff		 test	 edi, edi
  0004a	74 23		 je	 SHORT $LN17@NewNode

; 919  : 
; 920  : 	CList::CNode* pNode = m_pNodeFree;
; 921  : 	m_pNodeFree = m_pNodeFree->pNext;

  0004c	8b 07		 mov	 eax, DWORD PTR [edi]

; 922  : 	pNode->pPrev = pPrev;

  0004e	8b 4d 08	 mov	 ecx, DWORD PTR _pPrev$[ebp]
  00051	89 46 10	 mov	 DWORD PTR [esi+16], eax
  00054	89 4f 04	 mov	 DWORD PTR [edi+4], ecx

; 923  : 	pNode->pNext = pNext;

  00057	8b 4d 0c	 mov	 ecx, DWORD PTR _pNext$[ebp]
  0005a	89 0f		 mov	 DWORD PTR [edi], ecx

; 924  : 	m_nCount++;
; 925  : 	ASSERT(m_nCount > 0);  // make sure we don't overflow
; 926  : 
; 927  : #pragma push_macro("new")
; 928  : #undef new
; 929  : 	::new( (void*)( &pNode->data ) ) TYPE;

  0005c	8d 4f 08	 lea	 ecx, DWORD PTR [edi+8]
  0005f	ff 46 0c	 inc	 DWORD PTR [esi+12]
  00062	e8 00 00 00 00	 call	 ??0CSubGraphViewData@@QAE@XZ ; CSubGraphViewData::CSubGraphViewData

; 930  : #pragma pop_macro("new")
; 931  : 	return pNode;

  00067	8b c7		 mov	 eax, edi
  00069	5f		 pop	 edi
  0006a	5e		 pop	 esi

; 932  : }

  0006b	5d		 pop	 ebp
  0006c	c2 08 00	 ret	 8
$LN17@NewNode:

; 916  : 		}
; 917  : 	}
; 918  : 	ENSURE(m_pNodeFree != NULL);  // we must have something

  0006f	e8 00 00 00 00	 call	 ?AfxThrowInvalidArgException@@YGXXZ ; AfxThrowInvalidArgException
$LN15@NewNode:
  00074	cc		 int	 3
?NewNode@?$CList@VCSubGraphViewData@@AAV1@@@IAEPAUCNode@1@PAU21@0@Z ENDP ; CList<CSubGraphViewData,CSubGraphViewData &>::NewNode
_TEXT	ENDS
; Function compile flags: /Ogtp
; File C:\Program Files (x86)\Microsoft Visual Studio\2019\Community\VC\Tools\MSVC\14.29.30133\atlmfc\include\afxtempl.h
;	COMDAT ?RemoveAll@?$CList@VCSubGraphViewData@@AAV1@@@QAEXXZ
_TEXT	SEGMENT
?RemoveAll@?$CList@VCSubGraphViewData@@AAV1@@@QAEXXZ PROC ; CList<CSubGraphViewData,CSubGraphViewData &>::RemoveAll, COMDAT
; _this$ = ecx

; 862  : {

  00000	56		 push	 esi
  00001	57		 push	 edi
  00002	8b f9		 mov	 edi, ecx

; 863  : 	ASSERT_VALID(this);
; 864  : 
; 865  : 	// destroy elements
; 866  : 	CNode* pNode;
; 867  : 	for (pNode = m_pNodeHead; pNode != NULL; pNode = pNode->pNext)

  00004	8b 77 04	 mov	 esi, DWORD PTR [edi+4]
  00007	85 f6		 test	 esi, esi
  00009	74 26		 je	 SHORT $LN3@RemoveAll
  0000b	0f 1f 44 00 00	 npad	 5
$LL4@RemoveAll:

; 868  : 		pNode->data.~TYPE();

  00010	8d 4e 18	 lea	 ecx, DWORD PTR [esi+24]
  00013	ff 15 00 00 00
	00		 call	 DWORD PTR __imp_??1?$CStringT@DV?$StrTraitMFC_DLL@DV?$ChTraitsCRT@D@ATL@@@@@ATL@@QAE@XZ
  00019	8d 4e 14	 lea	 ecx, DWORD PTR [esi+20]
  0001c	ff 15 00 00 00
	00		 call	 DWORD PTR __imp_??1?$CStringT@DV?$StrTraitMFC_DLL@DV?$ChTraitsCRT@D@ATL@@@@@ATL@@QAE@XZ
  00022	8d 4e 10	 lea	 ecx, DWORD PTR [esi+16]
  00025	ff 15 00 00 00
	00		 call	 DWORD PTR __imp_??1?$CStringT@DV?$StrTraitMFC_DLL@DV?$ChTraitsCRT@D@ATL@@@@@ATL@@QAE@XZ
  0002b	8b 36		 mov	 esi, DWORD PTR [esi]
  0002d	85 f6		 test	 esi, esi
  0002f	75 df		 jne	 SHORT $LL4@RemoveAll
$LN3@RemoveAll:

; 869  : 
; 870  : 	m_nCount = 0;
; 871  : 	m_pNodeHead = m_pNodeTail = m_pNodeFree = NULL;
; 872  : 	m_pBlocks->FreeDataChain();

  00031	8b 4f 14	 mov	 ecx, DWORD PTR [edi+20]
  00034	c7 47 0c 00 00
	00 00		 mov	 DWORD PTR [edi+12], 0
  0003b	c7 47 10 00 00
	00 00		 mov	 DWORD PTR [edi+16], 0
  00042	c7 47 08 00 00
	00 00		 mov	 DWORD PTR [edi+8], 0
  00049	c7 47 04 00 00
	00 00		 mov	 DWORD PTR [edi+4], 0
  00050	e8 00 00 00 00	 call	 ?FreeDataChain@CPlex@@QAEXXZ ; CPlex::FreeDataChain

; 873  : 	m_pBlocks = NULL;

  00055	c7 47 14 00 00
	00 00		 mov	 DWORD PTR [edi+20], 0
  0005c	5f		 pop	 edi
  0005d	5e		 pop	 esi

; 874  : }

  0005e	c3		 ret	 0
?RemoveAll@?$CList@VCSubGraphViewData@@AAV1@@@QAEXXZ ENDP ; CList<CSubGraphViewData,CSubGraphViewData &>::RemoveAll
_TEXT	ENDS
; Function compile flags: /Ogtp
; File C:\Program Files (x86)\Microsoft Visual Studio\2019\Community\VC\Tools\MSVC\14.29.30133\atlmfc\include\afxtempl.h
;	COMDAT ?AddTail@?$CList@VCSubGraphViewData@@AAV1@@@QAEPAU__POSITION@@AAVCSubGraphViewData@@@Z
_TEXT	SEGMENT
_newElement$ = 8					; size = 4
?AddTail@?$CList@VCSubGraphViewData@@AAV1@@@QAEPAU__POSITION@@AAVCSubGraphViewData@@@Z PROC ; CList<CSubGraphViewData,CSubGraphViewData &>::AddTail, COMDAT
; _this$ = ecx

; 965  : {

  00000	55		 push	 ebp
  00001	8b ec		 mov	 ebp, esp
  00003	53		 push	 ebx
  00004	56		 push	 esi
  00005	8b f1		 mov	 esi, ecx
  00007	57		 push	 edi

; 902  : 	if (m_pNodeFree == NULL)

  00008	83 7e 10 00	 cmp	 DWORD PTR [esi+16], 0

; 966  : 	ASSERT_VALID(this);
; 967  : 
; 968  : 	CNode* pNewNode = NewNode(m_pNodeTail, NULL);

  0000c	8b 7e 08	 mov	 edi, DWORD PTR [esi+8]

; 902  : 	if (m_pNodeFree == NULL)

  0000f	75 3f		 jne	 SHORT $LN11@AddTail

; 903  : 	{
; 904  : 		// add another block
; 905  : 		CPlex* pNewBlock = CPlex::Create(m_pBlocks, m_nBlockSize,

  00011	6a 1c		 push	 28			; 0000001cH
  00013	ff 76 18	 push	 DWORD PTR [esi+24]
  00016	8d 46 14	 lea	 eax, DWORD PTR [esi+20]
  00019	50		 push	 eax
  0001a	e8 00 00 00 00	 call	 ?Create@CPlex@@SGPAU1@AAPAU1@II@Z ; CPlex::Create

; 906  : 				 sizeof(CNode));
; 907  : 
; 908  : 		// chain them into free list
; 909  : 		CNode* pNode = (CNode*) pNewBlock->data();
; 910  : 		// free in reverse order to make it easier to debug
; 911  : 		pNode += m_nBlockSize - 1;

  0001f	8b 56 18	 mov	 edx, DWORD PTR [esi+24]
  00022	83 c0 08	 add	 eax, 8
  00025	8d 0c d5 00 00
	00 00		 lea	 ecx, DWORD PTR [edx*8]
  0002c	2b ca		 sub	 ecx, edx
  0002e	83 c1 f9	 add	 ecx, -7			; fffffff9H

; 912  : 		for (INT_PTR i = m_nBlockSize-1; i >= 0; i--, pNode--)

  00031	83 c2 ff	 add	 edx, -1
  00034	8d 0c 88	 lea	 ecx, DWORD PTR [eax+ecx*4]
  00037	78 17		 js	 SHORT $LN11@AddTail
  00039	0f 1f 80 00 00
	00 00		 npad	 7
$LL8@AddTail:

; 913  : 		{
; 914  : 			pNode->pNext = m_pNodeFree;

  00040	8b 46 10	 mov	 eax, DWORD PTR [esi+16]
  00043	89 01		 mov	 DWORD PTR [ecx], eax

; 915  : 			m_pNodeFree = pNode;

  00045	89 4e 10	 mov	 DWORD PTR [esi+16], ecx
  00048	83 e9 1c	 sub	 ecx, 28			; 0000001cH
  0004b	83 ea 01	 sub	 edx, 1
  0004e	79 f0		 jns	 SHORT $LL8@AddTail
$LN11@AddTail:

; 916  : 		}
; 917  : 	}
; 918  : 	ENSURE(m_pNodeFree != NULL);  // we must have something

  00050	8b 5e 10	 mov	 ebx, DWORD PTR [esi+16]
  00053	85 db		 test	 ebx, ebx
  00055	74 48		 je	 SHORT $LN22@AddTail

; 919  : 
; 920  : 	CList::CNode* pNode = m_pNodeFree;
; 921  : 	m_pNodeFree = m_pNodeFree->pNext;

  00057	8b 03		 mov	 eax, DWORD PTR [ebx]

; 922  : 	pNode->pPrev = pPrev;
; 923  : 	pNode->pNext = pNext;
; 924  : 	m_nCount++;
; 925  : 	ASSERT(m_nCount > 0);  // make sure we don't overflow
; 926  : 
; 927  : #pragma push_macro("new")
; 928  : #undef new
; 929  : 	::new( (void*)( &pNode->data ) ) TYPE;

  00059	8d 4b 08	 lea	 ecx, DWORD PTR [ebx+8]
  0005c	89 46 10	 mov	 DWORD PTR [esi+16], eax
  0005f	89 7b 04	 mov	 DWORD PTR [ebx+4], edi
  00062	c7 03 00 00 00
	00		 mov	 DWORD PTR [ebx], 0
  00068	ff 46 0c	 inc	 DWORD PTR [esi+12]
  0006b	e8 00 00 00 00	 call	 ??0CSubGraphViewData@@QAE@XZ ; CSubGraphViewData::CSubGraphViewData

; 969  : 	pNewNode->data = newElement;

  00070	ff 75 08	 push	 DWORD PTR _newElement$[ebp]
  00073	8d 4b 08	 lea	 ecx, DWORD PTR [ebx+8]
  00076	e8 00 00 00 00	 call	 ??4CSubGraphViewData@@QAEAAV0@ABV0@@Z ; CSubGraphViewData::operator=

; 970  : 	if (m_pNodeTail != NULL)

  0007b	8b 46 08	 mov	 eax, DWORD PTR [esi+8]
  0007e	85 c0		 test	 eax, eax
  00080	74 0e		 je	 SHORT $LN2@AddTail

; 971  : 		m_pNodeTail->pNext = pNewNode;

  00082	89 18		 mov	 DWORD PTR [eax], ebx

; 972  : 	else
; 973  : 		m_pNodeHead = pNewNode;
; 974  : 	m_pNodeTail = pNewNode;
; 975  : 	return (POSITION) pNewNode;

  00084	8b c3		 mov	 eax, ebx
  00086	5f		 pop	 edi
  00087	89 5e 08	 mov	 DWORD PTR [esi+8], ebx
  0008a	5e		 pop	 esi
  0008b	5b		 pop	 ebx

; 976  : }

  0008c	5d		 pop	 ebp
  0008d	c2 04 00	 ret	 4
$LN2@AddTail:

; 972  : 	else
; 973  : 		m_pNodeHead = pNewNode;
; 974  : 	m_pNodeTail = pNewNode;
; 975  : 	return (POSITION) pNewNode;

  00090	5f		 pop	 edi
  00091	89 5e 04	 mov	 DWORD PTR [esi+4], ebx
  00094	8b c3		 mov	 eax, ebx
  00096	89 5e 08	 mov	 DWORD PTR [esi+8], ebx
  00099	5e		 pop	 esi
  0009a	5b		 pop	 ebx

; 976  : }

  0009b	5d		 pop	 ebp
  0009c	c2 04 00	 ret	 4
$LN22@AddTail:

; 918  : 	ENSURE(m_pNodeFree != NULL);  // we must have something

  0009f	e8 00 00 00 00	 call	 ?AfxThrowInvalidArgException@@YGXXZ ; AfxThrowInvalidArgException
$LN20@AddTail:
  000a4	cc		 int	 3
?AddTail@?$CList@VCSubGraphViewData@@AAV1@@@QAEPAU__POSITION@@AAVCSubGraphViewData@@@Z ENDP ; CList<CSubGraphViewData,CSubGraphViewData &>::AddTail
_TEXT	ENDS
; Function compile flags: /Ogtp
;	COMDAT ??1CSubGraphViewData@@QAE@XZ
_TEXT	SEGMENT
??1CSubGraphViewData@@QAE@XZ PROC			; CSubGraphViewData::~CSubGraphViewData, COMDAT
; _this$ = ecx
  00000	56		 push	 esi
  00001	8b f1		 mov	 esi, ecx
  00003	8d 4e 10	 lea	 ecx, DWORD PTR [esi+16]
  00006	ff 15 00 00 00
	00		 call	 DWORD PTR __imp_??1?$CStringT@DV?$StrTraitMFC_DLL@DV?$ChTraitsCRT@D@ATL@@@@@ATL@@QAE@XZ
  0000c	8d 4e 0c	 lea	 ecx, DWORD PTR [esi+12]
  0000f	ff 15 00 00 00
	00		 call	 DWORD PTR __imp_??1?$CStringT@DV?$StrTraitMFC_DLL@DV?$ChTraitsCRT@D@ATL@@@@@ATL@@QAE@XZ
  00015	8d 4e 08	 lea	 ecx, DWORD PTR [esi+8]
  00018	5e		 pop	 esi
  00019	ff 25 00 00 00
	00		 jmp	 DWORD PTR __imp_??1?$CStringT@DV?$StrTraitMFC_DLL@DV?$ChTraitsCRT@D@ATL@@@@@ATL@@QAE@XZ
??1CSubGraphViewData@@QAE@XZ ENDP			; CSubGraphViewData::~CSubGraphViewData
_TEXT	ENDS
; Function compile flags: /Ogtp
; File D:\git\src\IBK\IBK_DRFN\ProjSrc\SrcChartEx\ChartOCX\Include_Chart\Dll_Load\IMetaTable.h
; File C:\Program Files (x86)\Microsoft Visual Studio\2019\Community\VC\Tools\MSVC\14.29.30133\atlmfc\include\afxwin1.inl
; File D:\git\src\IBK\IBK_DRFN\ProjSrc\SrcChartEx\ChartOCX\Include_Chart\Dll_Load\IMetaTable.h
;	COMDAT ??1CMultiLanguageResourceSetter@@QAE@XZ
_TEXT	SEGMENT
__$EHRec$ = -12						; size = 12
??1CMultiLanguageResourceSetter@@QAE@XZ PROC		; CMultiLanguageResourceSetter::~CMultiLanguageResourceSetter, COMDAT
; _this$ = ecx

; 1036 : 	{

  00000	55		 push	 ebp
  00001	8b ec		 mov	 ebp, esp
  00003	6a ff		 push	 -1
  00005	68 00 00 00 00	 push	 __ehhandler$??1CMultiLanguageResourceSetter@@QAE@XZ
  0000a	64 a1 00 00 00
	00		 mov	 eax, DWORD PTR fs:0
  00010	50		 push	 eax
  00011	56		 push	 esi
  00012	a1 00 00 00 00	 mov	 eax, DWORD PTR ___security_cookie
  00017	33 c5		 xor	 eax, ebp
  00019	50		 push	 eax
  0001a	8d 45 f4	 lea	 eax, DWORD PTR __$EHRec$[ebp]
  0001d	64 a3 00 00 00
	00		 mov	 DWORD PTR fs:0, eax

; 1037 : 		AfxSetResourceHandle( m_hInstance);

  00023	8b 31		 mov	 esi, DWORD PTR [ecx]
; File C:\Program Files (x86)\Microsoft Visual Studio\2019\Community\VC\Tools\MSVC\14.29.30133\atlmfc\include\afxwin1.inl

; 27   : 	{ ASSERT(hInstResource != NULL); afxCurrentResourceHandle = hInstResource; }

  00025	e8 00 00 00 00	 call	 ?AfxGetModuleState@@YGPAVAFX_MODULE_STATE@@XZ ; AfxGetModuleState
  0002a	89 70 0c	 mov	 DWORD PTR [eax+12], esi
; File D:\git\src\IBK\IBK_DRFN\ProjSrc\SrcChartEx\ChartOCX\Include_Chart\Dll_Load\IMetaTable.h

; 1038 : 	}

  0002d	8b 4d f4	 mov	 ecx, DWORD PTR __$EHRec$[ebp]
  00030	64 89 0d 00 00
	00 00		 mov	 DWORD PTR fs:0, ecx
  00037	59		 pop	 ecx
  00038	5e		 pop	 esi
  00039	8b e5		 mov	 esp, ebp
  0003b	5d		 pop	 ebp
  0003c	c3		 ret	 0
  0003d	cc		 int	 3
  0003e	cc		 int	 3
  0003f	cc		 int	 3
  00040	cc		 int	 3
  00041	cc		 int	 3
_TEXT	ENDS
;	COMDAT text$x
text$x	SEGMENT
__ehhandler$??1CMultiLanguageResourceSetter@@QAE@XZ:
  00000	90		 npad	 1
  00001	90		 npad	 1
  00002	8b 54 24 08	 mov	 edx, DWORD PTR [esp+8]
  00006	8d 42 0c	 lea	 eax, DWORD PTR [edx+12]
  00009	8b 4a f8	 mov	 ecx, DWORD PTR [edx-8]
  0000c	33 c8		 xor	 ecx, eax
  0000e	e8 00 00 00 00	 call	 @__security_check_cookie@4
  00013	b8 00 00 00 00	 mov	 eax, OFFSET __ehfuncinfo$??1CMultiLanguageResourceSetter@@QAE@XZ
  00018	e9 00 00 00 00	 jmp	 ___CxxFrameHandler3
text$x	ENDS
??1CMultiLanguageResourceSetter@@QAE@XZ ENDP		; CMultiLanguageResourceSetter::~CMultiLanguageResourceSetter
; Function compile flags: /Ogtp
; File D:\git\src\IBK\IBK_DRFN\ProjSrc\SrcChartEx\ChartOCX\Include_Chart\Dll_Load\IMetaTable.h
;	COMDAT ?LoadResourceDLL@IMetaTable@@QAEPAUHINSTANCE__@@PAUHWND__@@PAU2@@Z
_TEXT	SEGMENT
_p1$ = 8						; size = 4
_p2$ = 12						; size = 4
?LoadResourceDLL@IMetaTable@@QAEPAUHINSTANCE__@@PAUHWND__@@PAU2@@Z PROC ; IMetaTable::LoadResourceDLL, COMDAT
; _this$ = ecx

; 936  : 	DECLARE_FUNCTION2(	LoadResourceDLL,				HMODULE, AfxGetStaticModuleState()->m_hCurrentInstanceHandle, HWND, HMODULE);

  00000	55		 push	 ebp
  00001	8b ec		 mov	 ebp, esp
  00003	56		 push	 esi
  00004	8b f1		 mov	 esi, ecx
  00006	8b 46 04	 mov	 eax, DWORD PTR [esi+4]
  00009	85 c0		 test	 eax, eax
  0000b	74 4d		 je	 SHORT $LN4@LoadResour
  0000d	57		 push	 edi
  0000e	bf 80 0d 00 00	 mov	 edi, 3456		; 00000d80H
  00013	66 3b be 94 00
	00 00		 cmp	 di, WORD PTR [esi+148]
  0001a	74 23		 je	 SHORT $LN3@LoadResour
  0001c	68 00 00 00 00	 push	 OFFSET ??_C@_0BA@ENJOCHIO@LoadResourceDLL@
  00021	50		 push	 eax
  00022	c7 86 90 00 00
	00 00 00 00 00	 mov	 DWORD PTR [esi+144], 0
  0002c	ff 15 00 00 00
	00		 call	 DWORD PTR __imp__GetProcAddress@8
  00032	89 86 90 00 00
	00		 mov	 DWORD PTR [esi+144], eax
  00038	66 89 be 94 00
	00 00		 mov	 WORD PTR [esi+148], di
$LN3@LoadResour:
  0003f	8b 86 90 00 00
	00		 mov	 eax, DWORD PTR [esi+144]
  00045	5f		 pop	 edi
  00046	85 c0		 test	 eax, eax
  00048	74 10		 je	 SHORT $LN4@LoadResour
  0004a	ff 75 0c	 push	 DWORD PTR _p2$[ebp]
  0004d	ff 75 08	 push	 DWORD PTR _p1$[ebp]
  00050	ff d0		 call	 eax
  00052	83 c4 08	 add	 esp, 8
  00055	5e		 pop	 esi
  00056	5d		 pop	 ebp
  00057	c2 08 00	 ret	 8
$LN4@LoadResour:
  0005a	e8 00 00 00 00	 call	 ?AfxGetStaticModuleState@@YGPAVAFX_MODULE_STATE@@XZ ; AfxGetStaticModuleState
  0005f	5e		 pop	 esi
  00060	8b 40 08	 mov	 eax, DWORD PTR [eax+8]
  00063	5d		 pop	 ebp
  00064	c2 08 00	 ret	 8
?LoadResourceDLL@IMetaTable@@QAEPAUHINSTANCE__@@PAUHWND__@@PAU2@@Z ENDP ; IMetaTable::LoadResourceDLL
_TEXT	ENDS
; Function compile flags: /Ogtp
; File C:\Program Files (x86)\Microsoft Visual Studio\2019\Community\VC\Tools\MSVC\14.29.30133\atlmfc\include\afxcoll.inl
; File D:\git\src\IBK\IBK_DRFN\ProjSrc\SrcChartEx\ChartOCX\ChartObject\BlocksColumn.cpp
; File C:\Program Files (x86)\Microsoft Visual Studio\2019\Community\VC\Tools\MSVC\14.29.30133\atlmfc\include\afxtempl.h
; File C:\Program Files (x86)\Microsoft Visual Studio\2019\Community\VC\Tools\MSVC\14.29.30133\atlmfc\include\afxcoll.inl
; File D:\git\src\IBK\IBK_DRFN\ProjSrc\SrcChartEx\ChartOCX\ChartObject\BlocksColumn.cpp
; File C:\Program Files (x86)\Microsoft Visual Studio\2019\Community\VC\Tools\MSVC\14.29.30133\atlmfc\include\afx.inl
;	COMDAT ??_GCBlocksColumn@@UAEPAXI@Z
_TEXT	SEGMENT
__$EHRec$ = -12						; size = 12
___flags$ = 8						; size = 4
??_GCBlocksColumn@@UAEPAXI@Z PROC			; CBlocksColumn::`scalar deleting destructor', COMDAT
; _this$ = ecx
  00000	55		 push	 ebp
  00001	8b ec		 mov	 ebp, esp
  00003	6a ff		 push	 -1
  00005	68 00 00 00 00	 push	 __ehhandler$??_GCBlocksColumn@@UAEPAXI@Z
  0000a	64 a1 00 00 00
	00		 mov	 eax, DWORD PTR fs:0
  00010	50		 push	 eax
  00011	56		 push	 esi
  00012	57		 push	 edi
  00013	a1 00 00 00 00	 mov	 eax, DWORD PTR ___security_cookie
  00018	33 c5		 xor	 eax, ebp
  0001a	50		 push	 eax
  0001b	8d 45 f4	 lea	 eax, DWORD PTR __$EHRec$[ebp]
  0001e	64 a3 00 00 00
	00		 mov	 DWORD PTR fs:0, eax
  00024	8b f1		 mov	 esi, ecx
; File C:\Program Files (x86)\Microsoft Visual Studio\2019\Community\VC\Tools\MSVC\14.29.30133\atlmfc\include\afxcoll.inl

; 410  : 	{ return m_nCount == 0; }

  00026	83 7e 1c 00	 cmp	 DWORD PTR [esi+28], 0
; File D:\git\src\IBK\IBK_DRFN\ProjSrc\SrcChartEx\ChartOCX\ChartObject\BlocksColumn.cpp

; 40   : {

  0002a	c7 45 fc 00 00
	00 00		 mov	 DWORD PTR __$EHRec$[ebp+8], 0
  00031	c7 06 00 00 00
	00		 mov	 DWORD PTR [esi], OFFSET ??_7CBlocksColumn@@6B@

; 521  : 	while( !m_BlockList.IsEmpty())

  00037	74 23		 je	 SHORT $LN33@scalar
  00039	0f 1f 80 00 00
	00 00		 npad	 7
$LL11@scalar:

; 522  : 	{
; 523  : 		CBlockImp::Delete( m_BlockList.GetHead());

  00040	8b 46 14	 mov	 eax, DWORD PTR [esi+20]
  00043	ff 70 08	 push	 DWORD PTR [eax+8]
  00046	e8 00 00 00 00	 call	 ?Delete@CBlockImp@@SAXPAV1@@Z ; CBlockImp::Delete
  0004b	83 c4 04	 add	 esp, 4
; File C:\Program Files (x86)\Microsoft Visual Studio\2019\Community\VC\Tools\MSVC\14.29.30133\atlmfc\include\afxtempl.h

; 1890 : 		{ return (TYPE)BASE_CLASS::RemoveHead(); }

  0004e	8d 4e 10	 lea	 ecx, DWORD PTR [esi+16]
  00051	e8 00 00 00 00	 call	 ?RemoveHead@CObList@@QAEPAVCObject@@XZ ; CObList::RemoveHead
; File C:\Program Files (x86)\Microsoft Visual Studio\2019\Community\VC\Tools\MSVC\14.29.30133\atlmfc\include\afxcoll.inl

; 410  : 	{ return m_nCount == 0; }

  00056	83 7e 1c 00	 cmp	 DWORD PTR [esi+28], 0
; File D:\git\src\IBK\IBK_DRFN\ProjSrc\SrcChartEx\ChartOCX\ChartObject\BlocksColumn.cpp

; 521  : 	while( !m_BlockList.IsEmpty())

  0005a	75 e4		 jne	 SHORT $LL11@scalar
$LN33@scalar:
  0005c	8d 4e 10	 lea	 ecx, DWORD PTR [esi+16]
  0005f	e8 00 00 00 00	 call	 ??1CObList@@UAE@XZ	; CObList::~CObList
  00064	8b 45 08	 mov	 eax, DWORD PTR ___flags$[ebp]
  00067	a8 01		 test	 al, 1
  00069	74 1a		 je	 SHORT $LN35@scalar
  0006b	a8 04		 test	 al, 4
  0006d	75 0b		 jne	 SHORT $LN3@scalar
; File C:\Program Files (x86)\Microsoft Visual Studio\2019\Community\VC\Tools\MSVC\14.29.30133\atlmfc\include\afx.inl

; 112  : 	{ ::operator delete(p); }

  0006f	56		 push	 esi
  00070	e8 00 00 00 00	 call	 ??3@YAXPAX@Z		; operator delete
  00075	83 c4 04	 add	 esp, 4
  00078	eb 0b		 jmp	 SHORT $LN35@scalar
$LN3@scalar:
  0007a	6a 30		 push	 48			; 00000030H
  0007c	56		 push	 esi
  0007d	e8 00 00 00 00	 call	 ?__global_delete@@YAXPAXI@Z ; __global_delete
  00082	83 c4 08	 add	 esp, 8
$LN35@scalar:
  00085	8b c6		 mov	 eax, esi
  00087	8b 4d f4	 mov	 ecx, DWORD PTR __$EHRec$[ebp]
  0008a	64 89 0d 00 00
	00 00		 mov	 DWORD PTR fs:0, ecx
  00091	59		 pop	 ecx
  00092	5f		 pop	 edi
  00093	5e		 pop	 esi
  00094	8b e5		 mov	 esp, ebp
  00096	5d		 pop	 ebp
  00097	c2 04 00	 ret	 4
  0009a	cc		 int	 3
  0009b	cc		 int	 3
  0009c	cc		 int	 3
  0009d	cc		 int	 3
  0009e	cc		 int	 3
_TEXT	ENDS
;	COMDAT text$x
text$x	SEGMENT
__ehhandler$??_GCBlocksColumn@@UAEPAXI@Z:
  00000	90		 npad	 1
  00001	90		 npad	 1
  00002	8b 54 24 08	 mov	 edx, DWORD PTR [esp+8]
  00006	8d 42 0c	 lea	 eax, DWORD PTR [edx+12]
  00009	8b 4a f4	 mov	 ecx, DWORD PTR [edx-12]
  0000c	33 c8		 xor	 ecx, eax
  0000e	e8 00 00 00 00	 call	 @__security_check_cookie@4
  00013	b8 00 00 00 00	 mov	 eax, OFFSET __ehfuncinfo$??_GCBlocksColumn@@UAEPAXI@Z
  00018	e9 00 00 00 00	 jmp	 ___CxxFrameHandler3
text$x	ENDS
??_GCBlocksColumn@@UAEPAXI@Z ENDP			; CBlocksColumn::`scalar deleting destructor'
; Function compile flags: /Ogtp
; File D:\git\src\IBK\IBK_DRFN\ProjSrc\SrcChartEx\ChartOCX\ChartObject\BlocksColumn.cpp
; File C:\Program Files (x86)\Microsoft Visual Studio\2019\Community\VC\Tools\MSVC\14.29.30133\atlmfc\include\afxcoll.inl
; File D:\git\src\IBK\IBK_DRFN\ProjSrc\SrcChartEx\ChartOCX\ChartObject\BlocksColumn.cpp
; File C:\Program Files (x86)\Microsoft Visual Studio\2019\Community\VC\Tools\MSVC\14.29.30133\atlmfc\include\afxcoll.inl
; File D:\git\src\IBK\IBK_DRFN\ProjSrc\SrcChartEx\ChartOCX\ChartObject\BlocksColumn.cpp
; File C:\Program Files (x86)\Microsoft Visual Studio\2019\Community\VC\Tools\MSVC\14.29.30133\atlmfc\include\afxcoll.inl
; File D:\git\src\IBK\IBK_DRFN\ProjSrc\SrcChartEx\ChartOCX\ChartObject\BlocksColumn.cpp
; File C:\Program Files (x86)\Microsoft Visual Studio\2019\Community\VC\Tools\MSVC\14.29.30133\atlmfc\include\afxcoll.inl
; File D:\git\src\IBK\IBK_DRFN\ProjSrc\SrcChartEx\ChartOCX\ChartObject\BlocksColumn.cpp
; File C:\Program Files (x86)\Microsoft Visual Studio\2019\Community\VC\Tools\MSVC\14.29.30133\atlmfc\include\afxcoll.inl
; File D:\git\src\IBK\IBK_DRFN\ProjSrc\SrcChartEx\ChartOCX\ChartObject\BlocksColumn.cpp
; File C:\Program Files (x86)\Microsoft Visual Studio\2019\Community\VC\Tools\MSVC\14.29.30133\atlmfc\include\afxcoll.inl
; File D:\git\src\IBK\IBK_DRFN\ProjSrc\SrcChartEx\ChartOCX\ChartObject\BlocksColumn.cpp
; File C:\Program Files (x86)\Microsoft Visual Studio\2019\Community\VC\Tools\MSVC\14.29.30133\atlmfc\include\afxcoll.inl
; File D:\git\src\IBK\IBK_DRFN\ProjSrc\SrcChartEx\ChartOCX\ChartObject\BlocksColumn.cpp
; File C:\Program Files (x86)\Microsoft Visual Studio\2019\Community\VC\Tools\MSVC\14.29.30133\atlmfc\include\afxcoll.inl
; File D:\git\src\IBK\IBK_DRFN\ProjSrc\SrcChartEx\ChartOCX\ChartObject\BlocksColumn.cpp
; File C:\Program Files (x86)\Microsoft Visual Studio\2019\Community\VC\Tools\MSVC\14.29.30133\atlmfc\include\afxcoll.inl
; File D:\git\src\IBK\IBK_DRFN\ProjSrc\SrcChartEx\ChartOCX\ChartObject\BlocksColumn.cpp
;	COMDAT ?GetHorzScaleDataRQ@CBlocksColumn@@QAE?AV?$CStringT@DV?$StrTraitMFC_DLL@DV?$ChTraitsCRT@D@ATL@@@@@ATL@@PAVCBlockImp@@@Z
_TEXT	SEGMENT
_gsi$ = -116						; size = 68
_slRQs$ = -48						; size = 28
_this$1$ = -20						; size = 4
_psnBlock$1$ = -16					; size = 4
__$EHRec$ = -12						; size = 12
___$ReturnUdt$ = 8					; size = 4
_eDownHorzScalePos$1$ = 12				; size = 4
_strRQ$2 = 12						; size = 4
_pBlock$ = 12						; size = 4
?GetHorzScaleDataRQ@CBlocksColumn@@QAE?AV?$CStringT@DV?$StrTraitMFC_DLL@DV?$ChTraitsCRT@D@ATL@@@@@ATL@@PAVCBlockImp@@@Z PROC ; CBlocksColumn::GetHorzScaleDataRQ, COMDAT
; _this$ = ecx

; 1318 : {

  00000	55		 push	 ebp
  00001	8b ec		 mov	 ebp, esp
  00003	6a ff		 push	 -1
  00005	68 00 00 00 00	 push	 __ehhandler$?GetHorzScaleDataRQ@CBlocksColumn@@QAE?AV?$CStringT@DV?$StrTraitMFC_DLL@DV?$ChTraitsCRT@D@ATL@@@@@ATL@@PAVCBlockImp@@@Z
  0000a	64 a1 00 00 00
	00		 mov	 eax, DWORD PTR fs:0
  00010	50		 push	 eax
  00011	83 ec 68	 sub	 esp, 104		; 00000068H
  00014	53		 push	 ebx
  00015	56		 push	 esi
  00016	57		 push	 edi
  00017	a1 00 00 00 00	 mov	 eax, DWORD PTR ___security_cookie
  0001c	33 c5		 xor	 eax, ebp
  0001e	50		 push	 eax
  0001f	8d 45 f4	 lea	 eax, DWORD PTR __$EHRec$[ebp]
  00022	64 a3 00 00 00
	00		 mov	 DWORD PTR fs:0, eax
  00028	8b c1		 mov	 eax, ecx
  0002a	89 45 ec	 mov	 DWORD PTR _this$1$[ebp], eax

; 1319 : 	if( !pBlock) return "DEFAULT";

  0002d	8b 75 0c	 mov	 esi, DWORD PTR _pBlock$[ebp]
  00030	85 f6		 test	 esi, esi
  00032	0f 84 98 02 00
	00		 je	 $LN101@GetHorzSca

; 1320 : 
; 1321 : 	POSITION psnBlock = m_BlockList.Find( pBlock);

  00038	6a 00		 push	 0
  0003a	56		 push	 esi
  0003b	8d 48 10	 lea	 ecx, DWORD PTR [eax+16]
  0003e	e8 00 00 00 00	 call	 ?Find@CObList@@QBEPAU__POSITION@@PAVCObject@@PAU2@@Z ; CObList::Find
  00043	8b d8		 mov	 ebx, eax
  00045	89 5d f0	 mov	 DWORD PTR _psnBlock$1$[ebp], ebx

; 1322 : 	if( !psnBlock) return "DEFAULT";

  00048	85 db		 test	 ebx, ebx
  0004a	0f 84 80 02 00
	00		 je	 $LN101@GetHorzSca

; 1323 : 
; 1324 : 	CStringList slRQs;

  00050	6a 0a		 push	 10			; 0000000aH
  00052	8d 4d d0	 lea	 ecx, DWORD PTR _slRQs$[ebp]
  00055	e8 00 00 00 00	 call	 ??0CStringList@@QAE@H@Z	; CStringList::CStringList
  0005a	8d 4d 8c	 lea	 ecx, DWORD PTR _gsi$[ebp]
  0005d	c7 45 fc 00 00
	00 00		 mov	 DWORD PTR __$EHRec$[ebp+8], 0
  00064	e8 00 00 00 00	 call	 ??0CGraphSearchInfo@@QAE@XZ ; CGraphSearchInfo::CGraphSearchInfo
  00069	8d 4d cc	 lea	 ecx, DWORD PTR _gsi$[ebp+64]
  0006c	c7 45 8c 00 00
	00 00		 mov	 DWORD PTR _gsi$[ebp], OFFSET ??_7CGraphSearchInfo_IndicatorName@@6B@
  00073	ff 15 00 00 00
	00		 call	 DWORD PTR __imp_??0?$CStringT@DV?$StrTraitMFC_DLL@DV?$ChTraitsCRT@D@ATL@@@@@ATL@@QAE@XZ

; 1325 : 
; 1326 : 	// 1. check current block price chart.
; 1327 : 	CGraphSearchInfo_IndicatorName gsi;
; 1328 : 	gsi.m_strIndicatorName = _MTEXT( C2_PRICE_CHART);

  00079	a1 54 00 00 00	 mov	 eax, DWORD PTR ?g_iMetaTable@@3VIMetaTable@@A+84
  0007e	8d 4d cc	 lea	 ecx, DWORD PTR _gsi$[ebp+64]
  00081	c6 45 fc 01	 mov	 BYTE PTR __$EHRec$[ebp+8], 1
  00085	ff b0 28 03 00
	00		 push	 DWORD PTR [eax+808]
  0008b	ff 15 00 00 00
	00		 call	 DWORD PTR __imp_??4?$CStringT@DV?$StrTraitMFC_DLL@DV?$ChTraitsCRT@D@ATL@@@@@ATL@@QAEAAV01@PBD@Z

; 1329 : 	while( pBlock->GetVertScaleGroupList().FindGraph( &gsi))

  00091	8d 45 8c	 lea	 eax, DWORD PTR _gsi$[ebp]
  00094	8b ce		 mov	 ecx, esi
  00096	50		 push	 eax
  00097	e8 00 00 00 00	 call	 ?GetVertScaleGroupList@CBlockImp@@QAEAAVCVertScaleGroupList@@XZ ; CBlockImp::GetVertScaleGroupList
  0009c	8b c8		 mov	 ecx, eax
  0009e	e8 00 00 00 00	 call	 ?FindGraph@CVertScaleGroupList@@QBEHPAVCGraphSearchInfo@@@Z ; CVertScaleGroupList::FindGraph
  000a3	85 c0		 test	 eax, eax
  000a5	74 33		 je	 SHORT $LN3@GetHorzSca
$LL2@GetHorzSca:

; 1330 : 	{
; 1331 : 		if( gsi.m_pGraphImp) slRQs.AddTail( gsi.m_pGraphImp->GetGraphRQ());

  000a7	8b 4d c4	 mov	 ecx, DWORD PTR _gsi$[ebp+56]
  000aa	85 c9		 test	 ecx, ecx
  000ac	74 0e		 je	 SHORT $LN16@GetHorzSca
  000ae	8b 01		 mov	 eax, DWORD PTR [ecx]
  000b0	ff 50 1c	 call	 DWORD PTR [eax+28]
  000b3	50		 push	 eax
  000b4	8d 4d d0	 lea	 ecx, DWORD PTR _slRQs$[ebp]
  000b7	e8 00 00 00 00	 call	 ?AddTail@CStringList@@QAEPAU__POSITION@@PBD@Z ; CStringList::AddTail
$LN16@GetHorzSca:

; 1332 : 		gsi.SetNextStartGraph();

  000bc	8d 4d 8c	 lea	 ecx, DWORD PTR _gsi$[ebp]
  000bf	e8 00 00 00 00	 call	 ?SetNextStartGraph@CGraphSearchInfo@@QAEXXZ ; CGraphSearchInfo::SetNextStartGraph
  000c4	8d 45 8c	 lea	 eax, DWORD PTR _gsi$[ebp]
  000c7	8b ce		 mov	 ecx, esi
  000c9	50		 push	 eax
  000ca	e8 00 00 00 00	 call	 ?GetVertScaleGroupList@CBlockImp@@QAEAAVCVertScaleGroupList@@XZ ; CBlockImp::GetVertScaleGroupList
  000cf	8b c8		 mov	 ecx, eax
  000d1	e8 00 00 00 00	 call	 ?FindGraph@CVertScaleGroupList@@QBEHPAVCGraphSearchInfo@@@Z ; CVertScaleGroupList::FindGraph
  000d6	85 c0		 test	 eax, eax
  000d8	75 cd		 jne	 SHORT $LL2@GetHorzSca
$LN3@GetHorzSca:

; 1333 : 	}
; 1334 : 	CScaleBaseData::HORZSCALEPOSITION eHorzScalePos = pBlock->GetBlockData().GetHorzScale().GetHorzScalePosition();

  000da	8b ce		 mov	 ecx, esi
  000dc	e8 00 00 00 00	 call	 ?GetBlockData@CBlockImp@@QAEAAVCBlockData@@XZ ; CBlockImp::GetBlockData
  000e1	8b c8		 mov	 ecx, eax
  000e3	e8 00 00 00 00	 call	 ?GetHorzScale@CBlockData@@QAEAAVCHorizontalScale@@XZ ; CBlockData::GetHorzScale
  000e8	8b c8		 mov	 ecx, eax
  000ea	ff 15 00 00 00
	00		 call	 DWORD PTR __imp_?GetHorzScalePosition@CHorizontalScale@@QBE?AW4HORZSCALEPOSITION@CScaleBaseData@@XZ
; File C:\Program Files (x86)\Microsoft Visual Studio\2019\Community\VC\Tools\MSVC\14.29.30133\atlmfc\include\afxcoll.inl

; 446  : 		rPosition = (POSITION) pNode->pPrev;

  000f0	8b 7b 04	 mov	 edi, DWORD PTR [ebx+4]
; File D:\git\src\IBK\IBK_DRFN\ProjSrc\SrcChartEx\ChartOCX\ChartObject\BlocksColumn.cpp

; 1339 : 	CScaleBaseData::HORZSCALEPOSITION eUpHorzScalePos = eHorzScalePos;

  000f3	8b d8		 mov	 ebx, eax
  000f5	89 45 0c	 mov	 DWORD PTR _eDownHorzScalePos$1$[ebp], eax

; 1340 : 	while( psnUpBlock && CScaleBaseData::HORZ_TOP != eUpHorzScalePos)

  000f8	85 ff		 test	 edi, edi
  000fa	0f 84 9e 00 00
	00		 je	 $LN80@GetHorzSca
$LL4@GetHorzSca:
  00100	85 db		 test	 ebx, ebx
  00102	0f 84 93 00 00
	00		 je	 $LN105@GetHorzSca
; File C:\Program Files (x86)\Microsoft Visual Studio\2019\Community\VC\Tools\MSVC\14.29.30133\atlmfc\include\afxcoll.inl

; 442  : 	{ CNode* pNode = (CNode*) rPosition;

  00108	8b f7		 mov	 esi, edi

; 443  : 		ASSERT(AfxIsValidAddress(pNode, sizeof(CNode)));
; 444  : 		if( pNode == NULL )

  0010a	85 ff		 test	 edi, edi
  0010c	0f 84 e3 01 00
	00		 je	 $LN81@GetHorzSca
; File D:\git\src\IBK\IBK_DRFN\ProjSrc\SrcChartEx\ChartOCX\ChartObject\BlocksColumn.cpp

; 1342 : 		CBlockImp *pUpBlock = m_BlockList.GetPrev( psnUpBlock);

  00112	8b 76 08	 mov	 esi, DWORD PTR [esi+8]
; File C:\Program Files (x86)\Microsoft Visual Studio\2019\Community\VC\Tools\MSVC\14.29.30133\atlmfc\include\afxcoll.inl

; 446  : 		rPosition = (POSITION) pNode->pPrev;

  00115	8b 7f 04	 mov	 edi, DWORD PTR [edi+4]
; File D:\git\src\IBK\IBK_DRFN\ProjSrc\SrcChartEx\ChartOCX\ChartObject\BlocksColumn.cpp

; 1343 : 		if( !pUpBlock) continue;

  00118	85 f6		 test	 esi, esi
  0011a	74 77		 je	 SHORT $LN7@GetHorzSca

; 1344 : 		eUpHorzScalePos = pUpBlock->GetBlockData().GetHorzScale().GetHorzScalePosition();

  0011c	8b ce		 mov	 ecx, esi
  0011e	e8 00 00 00 00	 call	 ?GetBlockData@CBlockImp@@QAEAAVCBlockData@@XZ ; CBlockImp::GetBlockData
  00123	8b c8		 mov	 ecx, eax
  00125	e8 00 00 00 00	 call	 ?GetHorzScale@CBlockData@@QAEAAVCHorizontalScale@@XZ ; CBlockData::GetHorzScale
  0012a	8b c8		 mov	 ecx, eax
  0012c	ff 15 00 00 00
	00		 call	 DWORD PTR __imp_?GetHorzScalePosition@CHorizontalScale@@QBE?AW4HORZSCALEPOSITION@CScaleBaseData@@XZ
  00132	8b d8		 mov	 ebx, eax

; 1345 : 		if( CScaleBaseData::HORZ_BOTTOM == eUpHorzScalePos
; 1346 : 			|| CScaleBaseData::HORZ_BOTH == eUpHorzScalePos)

  00134	83 fb 01	 cmp	 ebx, 1
  00137	74 62		 je	 SHORT $LN105@GetHorzSca
  00139	83 fb 02	 cmp	 ebx, 2
  0013c	74 5d		 je	 SHORT $LN105@GetHorzSca

; 1347 : 			break;
; 1348 : 		
; 1349 : 		gsi.ResetInfo();

  0013e	8d 4d 8c	 lea	 ecx, DWORD PTR _gsi$[ebp]
  00141	e8 00 00 00 00	 call	 ?ResetInfo@CGraphSearchInfo@@QAEXXZ ; CGraphSearchInfo::ResetInfo

; 1350 : 		while( pUpBlock->GetVertScaleGroupList().FindGraph( &gsi))

  00146	8d 45 8c	 lea	 eax, DWORD PTR _gsi$[ebp]
  00149	8b ce		 mov	 ecx, esi
  0014b	50		 push	 eax
  0014c	e8 00 00 00 00	 call	 ?GetVertScaleGroupList@CBlockImp@@QAEAAVCVertScaleGroupList@@XZ ; CBlockImp::GetVertScaleGroupList
  00151	8b c8		 mov	 ecx, eax
  00153	e8 00 00 00 00	 call	 ?FindGraph@CVertScaleGroupList@@QBEHPAVCGraphSearchInfo@@@Z ; CVertScaleGroupList::FindGraph
  00158	85 c0		 test	 eax, eax
  0015a	74 37		 je	 SHORT $LN7@GetHorzSca
  0015c	0f 1f 40 00	 npad	 4
$LL6@GetHorzSca:

; 1351 : 		{
; 1352 : 			if( gsi.m_pGraphImp) slRQs.AddTail( gsi.m_pGraphImp->GetGraphRQ());

  00160	8b 4d c4	 mov	 ecx, DWORD PTR _gsi$[ebp+56]
  00163	85 c9		 test	 ecx, ecx
  00165	74 0e		 je	 SHORT $LN20@GetHorzSca
  00167	8b 01		 mov	 eax, DWORD PTR [ecx]
  00169	ff 50 1c	 call	 DWORD PTR [eax+28]
  0016c	50		 push	 eax
  0016d	8d 4d d0	 lea	 ecx, DWORD PTR _slRQs$[ebp]
  00170	e8 00 00 00 00	 call	 ?AddTail@CStringList@@QAEPAU__POSITION@@PBD@Z ; CStringList::AddTail
$LN20@GetHorzSca:

; 1353 : 			gsi.SetNextStartGraph();

  00175	8d 4d 8c	 lea	 ecx, DWORD PTR _gsi$[ebp]
  00178	e8 00 00 00 00	 call	 ?SetNextStartGraph@CGraphSearchInfo@@QAEXXZ ; CGraphSearchInfo::SetNextStartGraph
  0017d	8d 45 8c	 lea	 eax, DWORD PTR _gsi$[ebp]
  00180	8b ce		 mov	 ecx, esi
  00182	50		 push	 eax
  00183	e8 00 00 00 00	 call	 ?GetVertScaleGroupList@CBlockImp@@QAEAAVCVertScaleGroupList@@XZ ; CBlockImp::GetVertScaleGroupList
  00188	8b c8		 mov	 ecx, eax
  0018a	e8 00 00 00 00	 call	 ?FindGraph@CVertScaleGroupList@@QBEHPAVCGraphSearchInfo@@@Z ; CVertScaleGroupList::FindGraph
  0018f	85 c0		 test	 eax, eax
  00191	75 cd		 jne	 SHORT $LL6@GetHorzSca
$LN7@GetHorzSca:

; 1340 : 	while( psnUpBlock && CScaleBaseData::HORZ_TOP != eUpHorzScalePos)

  00193	85 ff		 test	 edi, edi
  00195	0f 85 65 ff ff
	ff		 jne	 $LL4@GetHorzSca
$LN105@GetHorzSca:
; File C:\Program Files (x86)\Microsoft Visual Studio\2019\Community\VC\Tools\MSVC\14.29.30133\atlmfc\include\afxcoll.inl

; 432  : 		rPosition = (POSITION) pNode->pNext;

  0019b	8b 45 0c	 mov	 eax, DWORD PTR _eDownHorzScalePos$1$[ebp]
$LN80@GetHorzSca:
  0019e	8b 7d f0	 mov	 edi, DWORD PTR _psnBlock$1$[ebp]
  001a1	8b 3f		 mov	 edi, DWORD PTR [edi]
; File D:\git\src\IBK\IBK_DRFN\ProjSrc\SrcChartEx\ChartOCX\ChartObject\BlocksColumn.cpp

; 1361 : 	while( psnDownBlock && CScaleBaseData::HORZ_BOTTOM != eDownHorzScalePos)

  001a3	85 ff		 test	 edi, edi
  001a5	0f 84 a3 00 00
	00		 je	 $LN82@GetHorzSca
  001ab	0f 1f 44 00 00	 npad	 5
$LL8@GetHorzSca:
  001b0	83 f8 01	 cmp	 eax, 1
  001b3	0f 84 95 00 00
	00		 je	 $LN82@GetHorzSca
; File C:\Program Files (x86)\Microsoft Visual Studio\2019\Community\VC\Tools\MSVC\14.29.30133\atlmfc\include\afxcoll.inl

; 428  : 	{ CNode* pNode = (CNode*) rPosition;

  001b9	8b f7		 mov	 esi, edi

; 429  : 		ASSERT(AfxIsValidAddress(pNode, sizeof(CNode)));
; 430  : 		if( pNode == NULL )

  001bb	85 ff		 test	 edi, edi
  001bd	0f 84 32 01 00
	00		 je	 $LN81@GetHorzSca
; File D:\git\src\IBK\IBK_DRFN\ProjSrc\SrcChartEx\ChartOCX\ChartObject\BlocksColumn.cpp

; 1363 : 		CBlockImp *pDownBlock = m_BlockList.GetNext( psnDownBlock);

  001c3	8b 76 08	 mov	 esi, DWORD PTR [esi+8]
; File C:\Program Files (x86)\Microsoft Visual Studio\2019\Community\VC\Tools\MSVC\14.29.30133\atlmfc\include\afxcoll.inl

; 432  : 		rPosition = (POSITION) pNode->pNext;

  001c6	8b 3f		 mov	 edi, DWORD PTR [edi]
; File D:\git\src\IBK\IBK_DRFN\ProjSrc\SrcChartEx\ChartOCX\ChartObject\BlocksColumn.cpp

; 1364 : 		if( !pDownBlock) continue;

  001c8	85 f6		 test	 esi, esi
  001ca	74 7a		 je	 SHORT $LN11@GetHorzSca

; 1365 : 		eDownHorzScalePos = pDownBlock->GetBlockData().GetHorzScale().GetHorzScalePosition();

  001cc	8b ce		 mov	 ecx, esi
  001ce	e8 00 00 00 00	 call	 ?GetBlockData@CBlockImp@@QAEAAVCBlockData@@XZ ; CBlockImp::GetBlockData
  001d3	8b c8		 mov	 ecx, eax
  001d5	e8 00 00 00 00	 call	 ?GetHorzScale@CBlockData@@QAEAAVCHorizontalScale@@XZ ; CBlockData::GetHorzScale
  001da	8b c8		 mov	 ecx, eax
  001dc	ff 15 00 00 00
	00		 call	 DWORD PTR __imp_?GetHorzScalePosition@CHorizontalScale@@QBE?AW4HORZSCALEPOSITION@CScaleBaseData@@XZ
  001e2	89 45 0c	 mov	 DWORD PTR _eDownHorzScalePos$1$[ebp], eax

; 1366 : 		if( CScaleBaseData::HORZ_TOP == eDownHorzScalePos
; 1367 : 			|| CScaleBaseData::HORZ_BOTH == eDownHorzScalePos)

  001e5	85 c0		 test	 eax, eax
  001e7	74 65		 je	 SHORT $LN82@GetHorzSca
  001e9	83 f8 02	 cmp	 eax, 2
  001ec	74 60		 je	 SHORT $LN82@GetHorzSca

; 1368 : 			break;
; 1369 : 		
; 1370 : 		gsi.ResetInfo();

  001ee	8d 4d 8c	 lea	 ecx, DWORD PTR _gsi$[ebp]
  001f1	e8 00 00 00 00	 call	 ?ResetInfo@CGraphSearchInfo@@QAEXXZ ; CGraphSearchInfo::ResetInfo

; 1371 : 		while( pDownBlock->GetVertScaleGroupList().FindGraph( &gsi))

  001f6	8d 45 8c	 lea	 eax, DWORD PTR _gsi$[ebp]
  001f9	8b ce		 mov	 ecx, esi
  001fb	50		 push	 eax
  001fc	e8 00 00 00 00	 call	 ?GetVertScaleGroupList@CBlockImp@@QAEAAVCVertScaleGroupList@@XZ ; CBlockImp::GetVertScaleGroupList
  00201	8b c8		 mov	 ecx, eax
  00203	e8 00 00 00 00	 call	 ?FindGraph@CVertScaleGroupList@@QBEHPAVCGraphSearchInfo@@@Z ; CVertScaleGroupList::FindGraph
  00208	85 c0		 test	 eax, eax
  0020a	74 37		 je	 SHORT $LN102@GetHorzSca
  0020c	0f 1f 40 00	 npad	 4
$LL10@GetHorzSca:

; 1372 : 		{
; 1373 : 			if( gsi.m_pGraphImp) slRQs.AddTail( gsi.m_pGraphImp->GetGraphRQ());

  00210	8b 4d c4	 mov	 ecx, DWORD PTR _gsi$[ebp+56]
  00213	85 c9		 test	 ecx, ecx
  00215	74 0e		 je	 SHORT $LN24@GetHorzSca
  00217	8b 01		 mov	 eax, DWORD PTR [ecx]
  00219	ff 50 1c	 call	 DWORD PTR [eax+28]
  0021c	50		 push	 eax
  0021d	8d 4d d0	 lea	 ecx, DWORD PTR _slRQs$[ebp]
  00220	e8 00 00 00 00	 call	 ?AddTail@CStringList@@QAEPAU__POSITION@@PBD@Z ; CStringList::AddTail
$LN24@GetHorzSca:

; 1374 : 			gsi.SetNextStartGraph();

  00225	8d 4d 8c	 lea	 ecx, DWORD PTR _gsi$[ebp]
  00228	e8 00 00 00 00	 call	 ?SetNextStartGraph@CGraphSearchInfo@@QAEXXZ ; CGraphSearchInfo::SetNextStartGraph
  0022d	8d 45 8c	 lea	 eax, DWORD PTR _gsi$[ebp]
  00230	8b ce		 mov	 ecx, esi
  00232	50		 push	 eax
  00233	e8 00 00 00 00	 call	 ?GetVertScaleGroupList@CBlockImp@@QAEAAVCVertScaleGroupList@@XZ ; CBlockImp::GetVertScaleGroupList
  00238	8b c8		 mov	 ecx, eax
  0023a	e8 00 00 00 00	 call	 ?FindGraph@CVertScaleGroupList@@QBEHPAVCGraphSearchInfo@@@Z ; CVertScaleGroupList::FindGraph
  0023f	85 c0		 test	 eax, eax
  00241	75 cd		 jne	 SHORT $LL10@GetHorzSca
$LN102@GetHorzSca:

; 1361 : 	while( psnDownBlock && CScaleBaseData::HORZ_BOTTOM != eDownHorzScalePos)

  00243	8b 45 0c	 mov	 eax, DWORD PTR _eDownHorzScalePos$1$[ebp]
$LN11@GetHorzSca:
  00246	85 ff		 test	 edi, edi
  00248	0f 85 62 ff ff
	ff		 jne	 $LL8@GetHorzSca
$LN82@GetHorzSca:

; 1375 : 		}
; 1376 : 	}
; 1377 : 
; 1378 : 	CStringList &slSelectedRQs = m_pMain->GetRQHistory();
; 1379 : 	POSITION psnRQs = slSelectedRQs.GetHeadPosition();

  0024e	8b 45 ec	 mov	 eax, DWORD PTR _this$1$[ebp]
  00251	8b 40 04	 mov	 eax, DWORD PTR [eax+4]
  00254	8b b0 c4 03 00
	00		 mov	 esi, DWORD PTR [eax+964]

; 1380 : 	while( psnRQs)

  0025a	85 f6		 test	 esi, esi
  0025c	74 39		 je	 SHORT $LN13@GetHorzSca
  0025e	66 90		 npad	 2
$LL12@GetHorzSca:
; File C:\Program Files (x86)\Microsoft Visual Studio\2019\Community\VC\Tools\MSVC\14.29.30133\atlmfc\include\afxcoll.inl

; 501  : 	{ CNode* pNode = (CNode*) rPosition;

  00260	8b c6		 mov	 eax, esi
; File D:\git\src\IBK\IBK_DRFN\ProjSrc\SrcChartEx\ChartOCX\ChartObject\BlocksColumn.cpp

; 1382 : 		CString strRQ = slSelectedRQs.GetNext( psnRQs);

  00262	8d 4d 0c	 lea	 ecx, DWORD PTR _strRQ$2[ebp]
; File C:\Program Files (x86)\Microsoft Visual Studio\2019\Community\VC\Tools\MSVC\14.29.30133\atlmfc\include\afxcoll.inl

; 505  : 		rPosition = (POSITION) pNode->pNext;

  00265	8b 36		 mov	 esi, DWORD PTR [esi]

; 506  : 		return pNode->data; }

  00267	83 c0 08	 add	 eax, 8
; File D:\git\src\IBK\IBK_DRFN\ProjSrc\SrcChartEx\ChartOCX\ChartObject\BlocksColumn.cpp

; 1382 : 		CString strRQ = slSelectedRQs.GetNext( psnRQs);

  0026a	50		 push	 eax
  0026b	ff 15 00 00 00
	00		 call	 DWORD PTR __imp_??0?$CStringT@DV?$StrTraitMFC_DLL@DV?$ChTraitsCRT@D@ATL@@@@@ATL@@QAE@ABV01@@Z

; 1383 : 		if( slRQs.Find( strRQ)) return strRQ;

  00271	6a 00		 push	 0
  00273	ff 75 0c	 push	 DWORD PTR _strRQ$2[ebp]
  00276	8d 4d d0	 lea	 ecx, DWORD PTR _slRQs$[ebp]
  00279	c6 45 fc 02	 mov	 BYTE PTR __$EHRec$[ebp+8], 2
  0027d	e8 00 00 00 00	 call	 ?Find@CStringList@@QBEPAU__POSITION@@PBDPAU2@@Z ; CStringList::Find
  00282	85 c0		 test	 eax, eax
  00284	75 21		 jne	 SHORT $LN84@GetHorzSca

; 1384 : 	}

  00286	8d 4d 0c	 lea	 ecx, DWORD PTR _strRQ$2[ebp]
  00289	c6 45 fc 01	 mov	 BYTE PTR __$EHRec$[ebp+8], 1
  0028d	ff 15 00 00 00
	00		 call	 DWORD PTR __imp_??1?$CStringT@DV?$StrTraitMFC_DLL@DV?$ChTraitsCRT@D@ATL@@@@@ATL@@QAE@XZ
  00293	85 f6		 test	 esi, esi
  00295	75 c9		 jne	 SHORT $LL12@GetHorzSca
$LN13@GetHorzSca:

; 1385 : 
; 1386 : 	return "DEFAULT";

  00297	8b 4d 08	 mov	 ecx, DWORD PTR ___$ReturnUdt$[ebp]
  0029a	68 00 00 00 00	 push	 OFFSET ??_C@_07MGCPDNLD@DEFAULT@
  0029f	ff 15 00 00 00
	00		 call	 DWORD PTR __imp_??0?$CStringT@DV?$StrTraitMFC_DLL@DV?$ChTraitsCRT@D@ATL@@@@@ATL@@QAE@PBD@Z
  002a5	eb 16		 jmp	 SHORT $LN109@GetHorzSca
$LN84@GetHorzSca:

; 1383 : 		if( slRQs.Find( strRQ)) return strRQ;

  002a7	8b 4d 08	 mov	 ecx, DWORD PTR ___$ReturnUdt$[ebp]
  002aa	8d 45 0c	 lea	 eax, DWORD PTR _strRQ$2[ebp]
  002ad	50		 push	 eax
  002ae	ff 15 00 00 00
	00		 call	 DWORD PTR __imp_??0?$CStringT@DV?$StrTraitMFC_DLL@DV?$ChTraitsCRT@D@ATL@@@@@ATL@@QAE@ABV01@@Z
  002b4	8d 4d 0c	 lea	 ecx, DWORD PTR _strRQ$2[ebp]
  002b7	ff 15 00 00 00
	00		 call	 DWORD PTR __imp_??1?$CStringT@DV?$StrTraitMFC_DLL@DV?$ChTraitsCRT@D@ATL@@@@@ATL@@QAE@XZ
$LN109@GetHorzSca:

; 1387 : }

  002bd	8d 4d cc	 lea	 ecx, DWORD PTR _gsi$[ebp+64]
  002c0	ff 15 00 00 00
	00		 call	 DWORD PTR __imp_??1?$CStringT@DV?$StrTraitMFC_DLL@DV?$ChTraitsCRT@D@ATL@@@@@ATL@@QAE@XZ
  002c6	8d 4d d0	 lea	 ecx, DWORD PTR _slRQs$[ebp]
  002c9	e8 00 00 00 00	 call	 ??1CStringList@@UAE@XZ	; CStringList::~CStringList
  002ce	eb 0e		 jmp	 SHORT $LN108@GetHorzSca
$LN101@GetHorzSca:

; 1322 : 	if( !psnBlock) return "DEFAULT";

  002d0	8b 4d 08	 mov	 ecx, DWORD PTR ___$ReturnUdt$[ebp]
  002d3	68 00 00 00 00	 push	 OFFSET ??_C@_07MGCPDNLD@DEFAULT@
  002d8	ff 15 00 00 00
	00		 call	 DWORD PTR __imp_??0?$CStringT@DV?$StrTraitMFC_DLL@DV?$ChTraitsCRT@D@ATL@@@@@ATL@@QAE@PBD@Z
$LN108@GetHorzSca:

; 1387 : }

  002de	8b 45 08	 mov	 eax, DWORD PTR ___$ReturnUdt$[ebp]
  002e1	8b 4d f4	 mov	 ecx, DWORD PTR __$EHRec$[ebp]
  002e4	64 89 0d 00 00
	00 00		 mov	 DWORD PTR fs:0, ecx
  002eb	59		 pop	 ecx
  002ec	5f		 pop	 edi
  002ed	5e		 pop	 esi
  002ee	5b		 pop	 ebx
  002ef	8b e5		 mov	 esp, ebp
  002f1	5d		 pop	 ebp
  002f2	c2 08 00	 ret	 8
$LN81@GetHorzSca:
; File C:\Program Files (x86)\Microsoft Visual Studio\2019\Community\VC\Tools\MSVC\14.29.30133\atlmfc\include\afxcoll.inl

; 431  : 			AfxThrowInvalidArgException();

  002f5	e8 00 00 00 00	 call	 ?AfxThrowInvalidArgException@@YGXXZ ; AfxThrowInvalidArgException
$LN107@GetHorzSca:
  002fa	cc		 int	 3
_TEXT	ENDS
;	COMDAT text$x
text$x	SEGMENT
__unwindfunclet$?GetHorzScaleDataRQ@CBlocksColumn@@QAE?AV?$CStringT@DV?$StrTraitMFC_DLL@DV?$ChTraitsCRT@D@ATL@@@@@ATL@@PAVCBlockImp@@@Z$1:
  00000	8d 4d d0	 lea	 ecx, DWORD PTR _slRQs$[ebp]
  00003	e9 00 00 00 00	 jmp	 ??1CStringList@@UAE@XZ	; CStringList::~CStringList
__unwindfunclet$?GetHorzScaleDataRQ@CBlocksColumn@@QAE?AV?$CStringT@DV?$StrTraitMFC_DLL@DV?$ChTraitsCRT@D@ATL@@@@@ATL@@PAVCBlockImp@@@Z$2:
  00008	8d 4d 8c	 lea	 ecx, DWORD PTR _gsi$[ebp]
  0000b	e9 00 00 00 00	 jmp	 ??1CGraphSearchInfo_IndicatorName@@QAE@XZ
__unwindfunclet$?GetHorzScaleDataRQ@CBlocksColumn@@QAE?AV?$CStringT@DV?$StrTraitMFC_DLL@DV?$ChTraitsCRT@D@ATL@@@@@ATL@@PAVCBlockImp@@@Z$3:
  00010	8d 4d 0c	 lea	 ecx, DWORD PTR _strRQ$2[ebp]
  00013	ff 25 00 00 00
	00		 jmp	 DWORD PTR __imp_??1?$CStringT@DV?$StrTraitMFC_DLL@DV?$ChTraitsCRT@D@ATL@@@@@ATL@@QAE@XZ
  00019	cc		 int	 3
  0001a	cc		 int	 3
  0001b	cc		 int	 3
  0001c	cc		 int	 3
  0001d	cc		 int	 3
__ehhandler$?GetHorzScaleDataRQ@CBlocksColumn@@QAE?AV?$CStringT@DV?$StrTraitMFC_DLL@DV?$ChTraitsCRT@D@ATL@@@@@ATL@@PAVCBlockImp@@@Z:
  0001e	90		 npad	 1
  0001f	90		 npad	 1
  00020	8b 54 24 08	 mov	 edx, DWORD PTR [esp+8]
  00024	8d 42 0c	 lea	 eax, DWORD PTR [edx+12]
  00027	8b 4a 88	 mov	 ecx, DWORD PTR [edx-120]
  0002a	33 c8		 xor	 ecx, eax
  0002c	e8 00 00 00 00	 call	 @__security_check_cookie@4
  00031	b8 00 00 00 00	 mov	 eax, OFFSET __ehfuncinfo$?GetHorzScaleDataRQ@CBlocksColumn@@QAE?AV?$CStringT@DV?$StrTraitMFC_DLL@DV?$ChTraitsCRT@D@ATL@@@@@ATL@@PAVCBlockImp@@@Z
  00036	e9 00 00 00 00	 jmp	 ___CxxFrameHandler3
text$x	ENDS
?GetHorzScaleDataRQ@CBlocksColumn@@QAE?AV?$CStringT@DV?$StrTraitMFC_DLL@DV?$ChTraitsCRT@D@ATL@@@@@ATL@@PAVCBlockImp@@@Z ENDP ; CBlocksColumn::GetHorzScaleDataRQ
; Function compile flags: /Ogtp
; File D:\git\src\IBK\IBK_DRFN\ProjSrc\SrcChartEx\ChartOCX\ChartObject\BlocksColumn.cpp
; File C:\Program Files (x86)\Microsoft Visual Studio\2019\Community\VC\Tools\MSVC\14.29.30133\atlmfc\include\afxcoll.inl
; File D:\git\src\IBK\IBK_DRFN\ProjSrc\SrcChartEx\ChartOCX\ChartObject\BlocksColumn.cpp
; File C:\Program Files (x86)\Microsoft Visual Studio\2019\Community\VC\Tools\MSVC\14.29.30133\atlmfc\include\afxtempl.h
; File D:\git\src\IBK\IBK_DRFN\ProjSrc\SrcChartEx\ChartOCX\ChartObject\BlocksColumn.cpp
;	COMDAT ?GetSumOfHorzScaleHeightForEachBlock@CBlocksColumn@@QAEXAAV?$CList@HH@@@Z
_TEXT	SEGMENT
_this$1$ = -8						; size = 4
_horizontalScale$1$ = -4				; size = 4
_p_lnSumOfHScaleHeight$ = 8				; size = 4
?GetSumOfHorzScaleHeightForEachBlock@CBlocksColumn@@QAEXAAV?$CList@HH@@@Z PROC ; CBlocksColumn::GetSumOfHorzScaleHeightForEachBlock, COMDAT
; _this$ = ecx

; 1285 : {

  00000	55		 push	 ebp
  00001	8b ec		 mov	 ebp, esp
  00003	83 ec 08	 sub	 esp, 8
  00006	56		 push	 esi

; 1286 : 	POSITION posScaleHeight = p_lnSumOfHScaleHeight.GetHeadPosition();

  00007	8b 75 08	 mov	 esi, DWORD PTR _p_lnSumOfHScaleHeight$[ebp]
  0000a	8b c1		 mov	 eax, ecx
  0000c	57		 push	 edi
  0000d	89 45 f8	 mov	 DWORD PTR _this$1$[ebp], eax

; 1287 : 	POSITION posBlock = m_BlockList.GetHeadPosition();

  00010	8b 78 14	 mov	 edi, DWORD PTR [eax+20]
  00013	8b 76 04	 mov	 esi, DWORD PTR [esi+4]

; 1288 : 	while( posBlock)

  00016	85 ff		 test	 edi, edi
  00018	0f 84 8f 00 00
	00		 je	 $LN3@GetSumOfHo
  0001e	53		 push	 ebx
  0001f	90		 npad	 1
$LL2@GetSumOfHo:

; 1289 : 	{
; 1290 : 		CBlockImp* pBlock = m_BlockList.GetNext( posBlock);

  00020	8b 4f 08	 mov	 ecx, DWORD PTR [edi+8]
; File C:\Program Files (x86)\Microsoft Visual Studio\2019\Community\VC\Tools\MSVC\14.29.30133\atlmfc\include\afxcoll.inl

; 432  : 		rPosition = (POSITION) pNode->pNext;

  00023	8b 3f		 mov	 edi, DWORD PTR [edi]
; File D:\git\src\IBK\IBK_DRFN\ProjSrc\SrcChartEx\ChartOCX\ChartObject\BlocksColumn.cpp

; 1291 : 		if( !pBlock) continue;

  00025	85 c9		 test	 ecx, ecx
  00027	74 7b		 je	 SHORT $LN12@GetSumOfHo

; 1292 : 		CHorizontalScale &horizontalScale = pBlock->GetBlockData().GetHorzScale();

  00029	e8 00 00 00 00	 call	 ?GetBlockData@CBlockImp@@QAEAAVCBlockData@@XZ ; CBlockImp::GetBlockData
  0002e	8b c8		 mov	 ecx, eax
  00030	e8 00 00 00 00	 call	 ?GetHorzScale@CBlockData@@QAEAAVCHorizontalScale@@XZ ; CBlockData::GetHorzScale

; 1293 : 		int nScaleCount = 0;
; 1294 : 		switch( horizontalScale.GetHorzScalePosition())

  00035	8b c8		 mov	 ecx, eax
  00037	89 45 fc	 mov	 DWORD PTR _horizontalScale$1$[ebp], eax
  0003a	33 db		 xor	 ebx, ebx
  0003c	ff 15 00 00 00
	00		 call	 DWORD PTR __imp_?GetHorzScalePosition@CHorizontalScale@@QBE?AW4HORZSCALEPOSITION@CScaleBaseData@@XZ
  00042	2b c3		 sub	 eax, ebx
  00044	74 0f		 je	 SHORT $LN7@GetSumOfHo
  00046	83 e8 01	 sub	 eax, 1
  00049	74 0a		 je	 SHORT $LN7@GetSumOfHo
  0004b	83 e8 01	 sub	 eax, 1
  0004e	75 0a		 jne	 SHORT $LN4@GetSumOfHo

; 1298 : 												break;
; 1299 : 			case CScaleBaseData::HORZ_BOTH:		nScaleCount = 2;

  00050	8d 58 02	 lea	 ebx, DWORD PTR [eax+2]
  00053	eb 05		 jmp	 SHORT $LN4@GetSumOfHo
$LN7@GetSumOfHo:

; 1295 : 		{
; 1296 : 			case CScaleBaseData::HORZ_TOP:
; 1297 : 			case CScaleBaseData::HORZ_BOTTOM:	nScaleCount = 1;

  00055	bb 01 00 00 00	 mov	 ebx, 1
$LN4@GetSumOfHo:

; 1300 : 												break;
; 1301 : 		}
; 1302 : 
; 1303 : 		int nNewScaleHeight = horizontalScale.GetScaleHeight();

  0005a	8b 4d fc	 mov	 ecx, DWORD PTR _horizontalScale$1$[ebp]
  0005d	ff 15 00 00 00
	00		 call	 DWORD PTR __imp_?GetScaleHeight@CHorizontalScale@@QBEHXZ

; 1304 : 		if( nNewScaleHeight < 0) nNewScaleHeight = GetMainBlockBaseData()->GetScaleAttributes().GetMinHorzScaleRegionHeight();

  00063	85 c0		 test	 eax, eax
  00065	79 21		 jns	 SHORT $LN10@GetSumOfHo

; 50   : 	if(m_pMain == NULL)

  00067	8b 45 f8	 mov	 eax, DWORD PTR _this$1$[ebp]
  0006a	8b 48 04	 mov	 ecx, DWORD PTR [eax+4]
  0006d	85 c9		 test	 ecx, ecx
  0006f	75 04		 jne	 SHORT $LN23@GetSumOfHo

; 51   : 		return NULL;

  00071	33 c0		 xor	 eax, eax
  00073	eb 05		 jmp	 SHORT $LN22@GetSumOfHo
$LN23@GetSumOfHo:

; 52   : 
; 53   : 	return m_pMain->GetMainBlockBaseData();

  00075	e8 00 00 00 00	 call	 ?GetMainBlockBaseData@CMainBlockImp@@QBEPAVCMainBlockBaseData@@XZ ; CMainBlockImp::GetMainBlockBaseData
$LN22@GetSumOfHo:

; 1304 : 		if( nNewScaleHeight < 0) nNewScaleHeight = GetMainBlockBaseData()->GetScaleAttributes().GetMinHorzScaleRegionHeight();

  0007a	8b c8		 mov	 ecx, eax
  0007c	e8 00 00 00 00	 call	 ?GetScaleAttributes@CMainBlockBaseData@@QAEAAVCScaleAttributes@@XZ ; CMainBlockBaseData::GetScaleAttributes
  00081	8b c8		 mov	 ecx, eax
  00083	e8 00 00 00 00	 call	 ?GetMinHorzScaleRegionHeight@CScaleAttributes@@QBEHXZ ; CScaleAttributes::GetMinHorzScaleRegionHeight
$LN10@GetSumOfHo:

; 1305 : 		nNewScaleHeight = nScaleCount * nNewScaleHeight;

  00088	0f af c3	 imul	 eax, ebx

; 1306 : 		if( posScaleHeight)

  0008b	85 f6		 test	 esi, esi
  0008d	74 0c		 je	 SHORT $LN11@GetSumOfHo

; 1307 : 		{
; 1308 : 			if( p_lnSumOfHScaleHeight.GetAt( posScaleHeight) < nNewScaleHeight)

  0008f	39 46 08	 cmp	 DWORD PTR [esi+8], eax
  00092	7d 03		 jge	 SHORT $LN33@GetSumOfHo

; 1309 : 				p_lnSumOfHScaleHeight.SetAt( posScaleHeight, nNewScaleHeight);

  00094	89 46 08	 mov	 DWORD PTR [esi+8], eax
$LN33@GetSumOfHo:
; File C:\Program Files (x86)\Microsoft Visual Studio\2019\Community\VC\Tools\MSVC\14.29.30133\atlmfc\include\afxtempl.h

; 813  : 		rPosition = (POSITION) pNode->pNext;

  00097	8b 36		 mov	 esi, DWORD PTR [esi]
; File D:\git\src\IBK\IBK_DRFN\ProjSrc\SrcChartEx\ChartOCX\ChartObject\BlocksColumn.cpp

; 1311 : 		}

  00099	eb 09		 jmp	 SHORT $LN12@GetSumOfHo
$LN11@GetSumOfHo:

; 1312 : 		else p_lnSumOfHScaleHeight.AddTail( nNewScaleHeight);

  0009b	8b 4d 08	 mov	 ecx, DWORD PTR _p_lnSumOfHScaleHeight$[ebp]
  0009e	50		 push	 eax
  0009f	e8 00 00 00 00	 call	 ?AddTail@?$CList@HH@@QAEPAU__POSITION@@H@Z ; CList<int,int>::AddTail
$LN12@GetSumOfHo:

; 1288 : 	while( posBlock)

  000a4	85 ff		 test	 edi, edi
  000a6	0f 85 74 ff ff
	ff		 jne	 $LL2@GetSumOfHo
  000ac	5b		 pop	 ebx
$LN3@GetSumOfHo:
  000ad	5f		 pop	 edi

; 1313 : 	}
; 1314 : }

  000ae	5e		 pop	 esi
  000af	8b e5		 mov	 esp, ebp
  000b1	5d		 pop	 ebp
  000b2	c2 04 00	 ret	 4
?GetSumOfHorzScaleHeightForEachBlock@CBlocksColumn@@QAEXAAV?$CList@HH@@@Z ENDP ; CBlocksColumn::GetSumOfHorzScaleHeightForEachBlock
_TEXT	ENDS
; Function compile flags: /Ogtp
; File D:\git\src\IBK\IBK_DRFN\ProjSrc\SrcChartEx\ChartOCX\ChartObject\BlocksColumn.cpp
;	COMDAT ?GetColumnIndex@CBlocksColumn@@QAEHXZ
_TEXT	SEGMENT
_gsi$ = -64						; size = 64
?GetColumnIndex@CBlocksColumn@@QAEHXZ PROC		; CBlocksColumn::GetColumnIndex, COMDAT
; _this$ = ecx

; 1272 : {

  00000	55		 push	 ebp
  00001	8b ec		 mov	 ebp, esp
  00003	83 ec 40	 sub	 esp, 64			; 00000040H
  00006	56		 push	 esi
  00007	8b f1		 mov	 esi, ecx

; 1273 : 	if( !m_pMain) return -1;

  00009	83 7e 04 00	 cmp	 DWORD PTR [esi+4], 0
  0000d	74 2a		 je	 SHORT $LN7@GetColumnI

; 1274 : 
; 1275 : 	CGraphSearchInfo_BlocksColumn gsi;
; 1276 : 	gsi.m_pBlocksColumn = this;
; 1277 : 	if( !m_pMain->FindGraph( &gsi)) return -1;

  0000f	8d 4d c0	 lea	 ecx, DWORD PTR _gsi$[ebp]
  00012	e8 00 00 00 00	 call	 ??0CGraphSearchInfo@@QAE@XZ ; CGraphSearchInfo::CGraphSearchInfo
  00017	8b 4e 04	 mov	 ecx, DWORD PTR [esi+4]
  0001a	8d 45 c0	 lea	 eax, DWORD PTR _gsi$[ebp]
  0001d	50		 push	 eax
  0001e	c7 45 c0 00 00
	00 00		 mov	 DWORD PTR _gsi$[ebp], OFFSET ??_7CGraphSearchInfo_BlocksColumn@@6B@
  00025	89 75 ec	 mov	 DWORD PTR _gsi$[ebp+44], esi
  00028	e8 00 00 00 00	 call	 ?FindGraph@CMainBlockImp@@QBEHPAVCGraphSearchInfo@@@Z ; CMainBlockImp::FindGraph
  0002d	85 c0		 test	 eax, eax
  0002f	74 08		 je	 SHORT $LN7@GetColumnI

; 1278 : 
; 1279 : 	return gsi.m_nColumnBlockIndex;

  00031	8b 45 d8	 mov	 eax, DWORD PTR _gsi$[ebp+24]
  00034	5e		 pop	 esi

; 1280 : }

  00035	8b e5		 mov	 esp, ebp
  00037	5d		 pop	 ebp
  00038	c3		 ret	 0
$LN7@GetColumnI:

; 1274 : 
; 1275 : 	CGraphSearchInfo_BlocksColumn gsi;
; 1276 : 	gsi.m_pBlocksColumn = this;
; 1277 : 	if( !m_pMain->FindGraph( &gsi)) return -1;

  00039	83 c8 ff	 or	 eax, -1
  0003c	5e		 pop	 esi

; 1280 : }

  0003d	8b e5		 mov	 esp, ebp
  0003f	5d		 pop	 ebp
  00040	c3		 ret	 0
?GetColumnIndex@CBlocksColumn@@QAEHXZ ENDP		; CBlocksColumn::GetColumnIndex
_TEXT	ENDS
; Function compile flags: /Ogtp
; File D:\git\src\IBK\IBK_DRFN\ProjSrc\SrcChartEx\ChartOCX\ChartObject\BlocksColumn.cpp
; File C:\Program Files (x86)\Microsoft Visual Studio\2019\Community\VC\Tools\MSVC\14.29.30133\atlmfc\include\afxcoll.inl
; File D:\git\src\IBK\IBK_DRFN\ProjSrc\SrcChartEx\ChartOCX\ChartObject\BlocksColumn.cpp
;	COMDAT ?CalculateAllGraphs@CBlocksColumn@@QAE_NABV?$CList@V?$CStringT@DV?$StrTraitMFC_DLL@DV?$ChTraitsCRT@D@ATL@@@@@ATL@@V12@@@W4CALCULATETYPE@CCalculateBaseData@@_N@Z
_TEXT	SEGMENT
_bResult$1$ = -1					; size = 1
_packetNameList$ = 8					; size = 4
_eCalType$ = 12						; size = 4
_bIsHeadGraph$ = 16					; size = 1
?CalculateAllGraphs@CBlocksColumn@@QAE_NABV?$CList@V?$CStringT@DV?$StrTraitMFC_DLL@DV?$ChTraitsCRT@D@ATL@@@@@ATL@@V12@@@W4CALCULATETYPE@CCalculateBaseData@@_N@Z PROC ; CBlocksColumn::CalculateAllGraphs, COMDAT
; _this$ = ecx

; 1253 : {

  00000	55		 push	 ebp
  00001	8b ec		 mov	 ebp, esp
  00003	51		 push	 ecx
  00004	53		 push	 ebx
  00005	56		 push	 esi

; 1254 : 	bool bResult = false;
; 1255 : 	POSITION pos = m_BlockList.GetHeadPosition();

  00006	8b 71 14	 mov	 esi, DWORD PTR [ecx+20]
  00009	32 c0		 xor	 al, al
  0000b	88 45 ff	 mov	 BYTE PTR _bResult$1$[ebp], al
  0000e	57		 push	 edi

; 1256 : 	while(pos != NULL)

  0000f	85 f6		 test	 esi, esi
  00011	74 39		 je	 SHORT $LN1@CalculateA
  00013	8b 7d 0c	 mov	 edi, DWORD PTR _eCalType$[ebp]
  00016	8b 5d 10	 mov	 ebx, DWORD PTR _bIsHeadGraph$[ebp]
  00019	0f 1f 80 00 00
	00 00		 npad	 7
$LL2@CalculateA:

; 1259 : 		if(!pBlock->GetVertScaleGroupList().CalculateAllGraphs(packetNameList, eCalType, bIsHeadGraph))

  00020	8b 4e 08	 mov	 ecx, DWORD PTR [esi+8]
; File C:\Program Files (x86)\Microsoft Visual Studio\2019\Community\VC\Tools\MSVC\14.29.30133\atlmfc\include\afxcoll.inl

; 432  : 		rPosition = (POSITION) pNode->pNext;

  00023	8b 36		 mov	 esi, DWORD PTR [esi]
; File D:\git\src\IBK\IBK_DRFN\ProjSrc\SrcChartEx\ChartOCX\ChartObject\BlocksColumn.cpp

; 1259 : 		if(!pBlock->GetVertScaleGroupList().CalculateAllGraphs(packetNameList, eCalType, bIsHeadGraph))

  00025	53		 push	 ebx
  00026	57		 push	 edi
  00027	ff 75 08	 push	 DWORD PTR _packetNameList$[ebp]
  0002a	e8 00 00 00 00	 call	 ?GetVertScaleGroupList@CBlockImp@@QAEAAVCVertScaleGroupList@@XZ ; CBlockImp::GetVertScaleGroupList
  0002f	8b c8		 mov	 ecx, eax
  00031	e8 00 00 00 00	 call	 ?CalculateAllGraphs@CVertScaleGroupList@@QAE_NABV?$CList@V?$CStringT@DV?$StrTraitMFC_DLL@DV?$ChTraitsCRT@D@ATL@@@@@ATL@@V12@@@W4CALCULATETYPE@CCalculateBaseData@@_N@Z ; CVertScaleGroupList::CalculateAllGraphs
  00036	84 c0		 test	 al, al
  00038	74 0b		 je	 SHORT $LN21@CalculateA

; 1260 : 			continue;
; 1261 : 
; 1262 : 		bResult = true;

  0003a	b0 01		 mov	 al, 1
  0003c	88 45 ff	 mov	 BYTE PTR _bResult$1$[ebp], al

; 1263 : 		if(bIsHeadGraph)

  0003f	84 db		 test	 bl, bl
  00041	75 09		 jne	 SHORT $LN1@CalculateA

; 1259 : 		if(!pBlock->GetVertScaleGroupList().CalculateAllGraphs(packetNameList, eCalType, bIsHeadGraph))

  00043	eb 03		 jmp	 SHORT $LN5@CalculateA
$LN21@CalculateA:
  00045	8a 45 ff	 mov	 al, BYTE PTR _bResult$1$[ebp]
$LN5@CalculateA:

; 1256 : 	while(pos != NULL)

  00048	85 f6		 test	 esi, esi
  0004a	75 d4		 jne	 SHORT $LL2@CalculateA
$LN1@CalculateA:
  0004c	5f		 pop	 edi

; 1264 : 			return true;
; 1265 : 	}
; 1266 : 	return bResult;
; 1267 : }

  0004d	5e		 pop	 esi
  0004e	5b		 pop	 ebx
  0004f	8b e5		 mov	 esp, ebp
  00051	5d		 pop	 ebp
  00052	c2 0c 00	 ret	 12			; 0000000cH
?CalculateAllGraphs@CBlocksColumn@@QAE_NABV?$CList@V?$CStringT@DV?$StrTraitMFC_DLL@DV?$ChTraitsCRT@D@ATL@@@@@ATL@@V12@@@W4CALCULATETYPE@CCalculateBaseData@@_N@Z ENDP ; CBlocksColumn::CalculateAllGraphs
_TEXT	ENDS
; Function compile flags: /Ogtp
; File D:\git\src\IBK\IBK_DRFN\ProjSrc\SrcChartEx\ChartOCX\ChartObject\BlocksColumn.cpp
; File C:\Program Files (x86)\Microsoft Visual Studio\2019\Community\VC\Tools\MSVC\14.29.30133\atlmfc\include\afxcoll.inl
; File D:\git\src\IBK\IBK_DRFN\ProjSrc\SrcChartEx\ChartOCX\ChartObject\BlocksColumn.cpp
;	COMDAT ?CalculateAllGraphs@CBlocksColumn@@QAEXW4CALCULATETYPE@CCalculateBaseData@@@Z
_TEXT	SEGMENT
_eCalType$ = 8						; size = 4
?CalculateAllGraphs@CBlocksColumn@@QAEXW4CALCULATETYPE@CCalculateBaseData@@@Z PROC ; CBlocksColumn::CalculateAllGraphs, COMDAT
; _this$ = ecx

; 1243 : {

  00000	55		 push	 ebp
  00001	8b ec		 mov	 ebp, esp
  00003	56		 push	 esi

; 1244 : 	POSITION pos = m_BlockList.GetHeadPosition();

  00004	8b 71 14	 mov	 esi, DWORD PTR [ecx+20]

; 1245 : 	while(pos != NULL)

  00007	85 f6		 test	 esi, esi
  00009	74 1c		 je	 SHORT $LN3@CalculateA
  0000b	57		 push	 edi
  0000c	8b 7d 08	 mov	 edi, DWORD PTR _eCalType$[ebp]
  0000f	90		 npad	 1
$LL2@CalculateA:

; 1248 : 		pBlock->GetVertScaleGroupList().CalculateAllGraphs(eCalType);

  00010	8b 4e 08	 mov	 ecx, DWORD PTR [esi+8]
; File C:\Program Files (x86)\Microsoft Visual Studio\2019\Community\VC\Tools\MSVC\14.29.30133\atlmfc\include\afxcoll.inl

; 432  : 		rPosition = (POSITION) pNode->pNext;

  00013	8b 36		 mov	 esi, DWORD PTR [esi]
; File D:\git\src\IBK\IBK_DRFN\ProjSrc\SrcChartEx\ChartOCX\ChartObject\BlocksColumn.cpp

; 1248 : 		pBlock->GetVertScaleGroupList().CalculateAllGraphs(eCalType);

  00015	57		 push	 edi
  00016	e8 00 00 00 00	 call	 ?GetVertScaleGroupList@CBlockImp@@QAEAAVCVertScaleGroupList@@XZ ; CBlockImp::GetVertScaleGroupList
  0001b	8b c8		 mov	 ecx, eax
  0001d	e8 00 00 00 00	 call	 ?CalculateAllGraphs@CVertScaleGroupList@@QAEXW4CALCULATETYPE@CCalculateBaseData@@@Z ; CVertScaleGroupList::CalculateAllGraphs
  00022	85 f6		 test	 esi, esi
  00024	75 ea		 jne	 SHORT $LL2@CalculateA
  00026	5f		 pop	 edi
$LN3@CalculateA:
  00027	5e		 pop	 esi

; 1249 : 	}
; 1250 : }

  00028	5d		 pop	 ebp
  00029	c2 04 00	 ret	 4
?CalculateAllGraphs@CBlocksColumn@@QAEXW4CALCULATETYPE@CCalculateBaseData@@@Z ENDP ; CBlocksColumn::CalculateAllGraphs
_TEXT	ENDS
; Function compile flags: /Ogtp
; File D:\git\src\IBK\IBK_DRFN\ProjSrc\SrcChartEx\ChartOCX\ChartObject\BlocksColumn.cpp
; File D:\git\src\IBK\IBK_DRFN\ProjSrc\SrcChartEx\ChartOCX\Include_Chart\BlockBaseData.h
; File D:\git\src\IBK\IBK_DRFN\ProjSrc\SrcChartEx\ChartOCX\ChartObject\BlocksColumn.cpp
; File D:\git\src\IBK\IBK_DRFN\ProjSrc\SrcChartEx\ChartOCX\Include_Chart\BlockBaseData.h
; File D:\git\src\IBK\IBK_DRFN\ProjSrc\SrcChartEx\ChartOCX\ChartObject\BlocksColumn.cpp
;	COMDAT ?SendMessageToParent_BlockInsert@CBlocksColumn@@QAEXH@Z
_TEXT	SEGMENT
_gsi$ = -84						; size = 64
_blockBehaviorData$ = -20				; size = 20
_nSourceBlockIndex$ = 8					; size = 4
?SendMessageToParent_BlockInsert@CBlocksColumn@@QAEXH@Z PROC ; CBlocksColumn::SendMessageToParent_BlockInsert, COMDAT
; _this$ = ecx

; 1226 : {

  00000	55		 push	 ebp
  00001	8b ec		 mov	 ebp, esp
  00003	83 ec 54	 sub	 esp, 84			; 00000054H
  00006	56		 push	 esi
  00007	8b f1		 mov	 esi, ecx

; 1227 : 	if(m_pMain == NULL) return;

  00009	83 7e 04 00	 cmp	 DWORD PTR [esi+4], 0
  0000d	74 6e		 je	 SHORT $LN1@SendMessag

; 1228 : 
; 1229 : 	CGraphSearchInfo_BlocksColumn gsi;
; 1230 : 	gsi.m_pBlocksColumn = this;
; 1231 : 	if( !m_pMain->FindGraph( &gsi)) return;

  0000f	8d 4d ac	 lea	 ecx, DWORD PTR _gsi$[ebp]
  00012	e8 00 00 00 00	 call	 ??0CGraphSearchInfo@@QAE@XZ ; CGraphSearchInfo::CGraphSearchInfo
  00017	8b 4e 04	 mov	 ecx, DWORD PTR [esi+4]
  0001a	8d 45 ac	 lea	 eax, DWORD PTR _gsi$[ebp]
  0001d	50		 push	 eax
  0001e	c7 45 ac 00 00
	00 00		 mov	 DWORD PTR _gsi$[ebp], OFFSET ??_7CGraphSearchInfo_BlocksColumn@@6B@
  00025	89 75 d8	 mov	 DWORD PTR _gsi$[ebp+44], esi
  00028	e8 00 00 00 00	 call	 ?FindGraph@CMainBlockImp@@QBEHPAVCGraphSearchInfo@@@Z ; CMainBlockImp::FindGraph
  0002d	85 c0		 test	 eax, eax
  0002f	74 4c		 je	 SHORT $LN1@SendMessag
; File D:\git\src\IBK\IBK_DRFN\ProjSrc\SrcChartEx\ChartOCX\Include_Chart\BlockBaseData.h

; 123  : 		m_sourceBlockIndex = sourceBlockIndex;

  00031	8b 45 08	 mov	 eax, DWORD PTR _nSourceBlockIndex$[ebp]
; File D:\git\src\IBK\IBK_DRFN\ProjSrc\SrcChartEx\ChartOCX\ChartObject\BlocksColumn.cpp

; 50   : 	if(m_pMain == NULL)

  00034	8b 4e 04	 mov	 ecx, DWORD PTR [esi+4]
; File D:\git\src\IBK\IBK_DRFN\ProjSrc\SrcChartEx\ChartOCX\Include_Chart\BlockBaseData.h

; 123  : 		m_sourceBlockIndex = sourceBlockIndex;

  00037	89 45 f0	 mov	 DWORD PTR _blockBehaviorData$[ebp+4], eax
  0003a	8b 45 c4	 mov	 eax, DWORD PTR _gsi$[ebp+24]

; 19   : 	CBlockIndex()										{	m_nRow = m_nColumn = -1;				}

  0003d	c7 45 fc ff ff
	ff ff		 mov	 DWORD PTR _blockBehaviorData$[ebp+16], -1
  00044	c7 45 f8 ff ff
	ff ff		 mov	 DWORD PTR _blockBehaviorData$[ebp+12], -1

; 122  : 		m_eBlockBehavior = eBlockBehavior;

  0004b	c7 45 ec 01 00
	00 00		 mov	 DWORD PTR _blockBehaviorData$[ebp], 1

; 123  : 		m_sourceBlockIndex = sourceBlockIndex;

  00052	89 45 f4	 mov	 DWORD PTR _blockBehaviorData$[ebp+8], eax
; File D:\git\src\IBK\IBK_DRFN\ProjSrc\SrcChartEx\ChartOCX\ChartObject\BlocksColumn.cpp

; 50   : 	if(m_pMain == NULL)

  00055	85 c9		 test	 ecx, ecx
  00057	75 14		 jne	 SHORT $LN16@SendMessag

; 1232 : 
; 1233 : 	CBlockBehaviorData blockBehaviorData( CBlockBaseData::BLOCK_INSERT, CBlockIndex(nSourceBlockIndex, gsi.m_nColumnBlockIndex));
; 1234 : 	GetMainBlockBaseData()->SendMessageToParent(blockBehaviorData);

  00059	8d 4d ec	 lea	 ecx, DWORD PTR _blockBehaviorData$[ebp]

; 51   : 		return NULL;

  0005c	33 c0		 xor	 eax, eax

; 1232 : 
; 1233 : 	CBlockBehaviorData blockBehaviorData( CBlockBaseData::BLOCK_INSERT, CBlockIndex(nSourceBlockIndex, gsi.m_nColumnBlockIndex));
; 1234 : 	GetMainBlockBaseData()->SendMessageToParent(blockBehaviorData);

  0005e	51		 push	 ecx
  0005f	8b c8		 mov	 ecx, eax
  00061	e8 00 00 00 00	 call	 ?SendMessageToParent@CMainBlockBaseData@@QAEXABVCBlockBehaviorData@@@Z ; CMainBlockBaseData::SendMessageToParent
  00066	5e		 pop	 esi

; 1235 : }

  00067	8b e5		 mov	 esp, ebp
  00069	5d		 pop	 ebp
  0006a	c2 04 00	 ret	 4
$LN16@SendMessag:

; 53   : 	return m_pMain->GetMainBlockBaseData();

  0006d	e8 00 00 00 00	 call	 ?GetMainBlockBaseData@CMainBlockImp@@QBEPAVCMainBlockBaseData@@XZ ; CMainBlockImp::GetMainBlockBaseData

; 1232 : 
; 1233 : 	CBlockBehaviorData blockBehaviorData( CBlockBaseData::BLOCK_INSERT, CBlockIndex(nSourceBlockIndex, gsi.m_nColumnBlockIndex));
; 1234 : 	GetMainBlockBaseData()->SendMessageToParent(blockBehaviorData);

  00072	8d 4d ec	 lea	 ecx, DWORD PTR _blockBehaviorData$[ebp]
  00075	51		 push	 ecx
  00076	8b c8		 mov	 ecx, eax
  00078	e8 00 00 00 00	 call	 ?SendMessageToParent@CMainBlockBaseData@@QAEXABVCBlockBehaviorData@@@Z ; CMainBlockBaseData::SendMessageToParent
$LN1@SendMessag:
  0007d	5e		 pop	 esi

; 1235 : }

  0007e	8b e5		 mov	 esp, ebp
  00080	5d		 pop	 ebp
  00081	c2 04 00	 ret	 4
?SendMessageToParent_BlockInsert@CBlocksColumn@@QAEXH@Z ENDP ; CBlocksColumn::SendMessageToParent_BlockInsert
_TEXT	ENDS
; Function compile flags: /Ogtp
; File D:\git\src\IBK\IBK_DRFN\ProjSrc\SrcChartEx\ChartOCX\ChartObject\BlocksColumn.cpp
; File C:\Program Files (x86)\Microsoft Visual Studio\2019\Community\VC\Tools\MSVC\14.29.30133\atlmfc\include\afxcoll.inl
; File D:\git\src\IBK\IBK_DRFN\ProjSrc\SrcChartEx\ChartOCX\ChartObject\BlocksColumn.cpp
;	COMDAT ?ChangeAllMapDefaultIndicatorInfo@CBlocksColumn@@QAE_NPAVCIndicatorList@@@Z
_TEXT	SEGMENT
_pIndicatorList$ = 8					; size = 4
?ChangeAllMapDefaultIndicatorInfo@CBlocksColumn@@QAE_NPAVCIndicatorList@@@Z PROC ; CBlocksColumn::ChangeAllMapDefaultIndicatorInfo, COMDAT
; _this$ = ecx

; 1207 : {

  00000	55		 push	 ebp
  00001	8b ec		 mov	 ebp, esp
  00003	53		 push	 ebx
  00004	56		 push	 esi

; 1208 : 	bool bResult = false;
; 1209 : 	POSITION pos = m_BlockList.GetHeadPosition();

  00005	8b 71 14	 mov	 esi, DWORD PTR [ecx+20]
  00008	32 db		 xor	 bl, bl

; 1210 : 	while(pos != NULL)

  0000a	85 f6		 test	 esi, esi
  0000c	74 28		 je	 SHORT $LN17@ChangeAllM
  0000e	57		 push	 edi
  0000f	8b 7d 08	 mov	 edi, DWORD PTR _pIndicatorList$[ebp]
$LL2@ChangeAllM:

; 1214 : 		if(pBlock->GetVertScaleGroupList().ChangeAllMapDefaultIndicatorInfo(pIndicatorList))

  00012	8b 4e 08	 mov	 ecx, DWORD PTR [esi+8]
; File C:\Program Files (x86)\Microsoft Visual Studio\2019\Community\VC\Tools\MSVC\14.29.30133\atlmfc\include\afxcoll.inl

; 432  : 		rPosition = (POSITION) pNode->pNext;

  00015	8b 36		 mov	 esi, DWORD PTR [esi]
; File D:\git\src\IBK\IBK_DRFN\ProjSrc\SrcChartEx\ChartOCX\ChartObject\BlocksColumn.cpp

; 1214 : 		if(pBlock->GetVertScaleGroupList().ChangeAllMapDefaultIndicatorInfo(pIndicatorList))

  00017	57		 push	 edi
  00018	e8 00 00 00 00	 call	 ?GetVertScaleGroupList@CBlockImp@@QAEAAVCVertScaleGroupList@@XZ ; CBlockImp::GetVertScaleGroupList
  0001d	8b c8		 mov	 ecx, eax
  0001f	e8 00 00 00 00	 call	 ?ChangeAllMapDefaultIndicatorInfo@CVertScaleGroupList@@QAE_NPAVCIndicatorList@@@Z ; CVertScaleGroupList::ChangeAllMapDefaultIndicatorInfo
  00024	84 c0		 test	 al, al
  00026	0f b6 db	 movzx	 ebx, bl
  00029	b8 01 00 00 00	 mov	 eax, 1
  0002e	0f 45 d8	 cmovne	 ebx, eax
  00031	85 f6		 test	 esi, esi
  00033	75 dd		 jne	 SHORT $LL2@ChangeAllM

; 1215 : 			bResult = true;
; 1216 : 	}
; 1217 : 	return bResult;

  00035	5f		 pop	 edi
$LN17@ChangeAllM:
  00036	5e		 pop	 esi

; 1218 : }

  00037	8a c3		 mov	 al, bl
  00039	5b		 pop	 ebx
  0003a	5d		 pop	 ebp
  0003b	c2 04 00	 ret	 4
?ChangeAllMapDefaultIndicatorInfo@CBlocksColumn@@QAE_NPAVCIndicatorList@@@Z ENDP ; CBlocksColumn::ChangeAllMapDefaultIndicatorInfo
_TEXT	ENDS
; Function compile flags: /Ogtp
; File D:\git\src\IBK\IBK_DRFN\ProjSrc\SrcChartEx\ChartOCX\ChartObject\BlocksColumn.cpp
; File C:\Program Files (x86)\Microsoft Visual Studio\2019\Community\VC\Tools\MSVC\14.29.30133\atlmfc\include\afxcoll.inl
; File D:\git\src\IBK\IBK_DRFN\ProjSrc\SrcChartEx\ChartOCX\ChartObject\BlocksColumn.cpp
;	COMDAT ?ChangeAllGraphDataFromIndicatorInfo@CBlocksColumn@@QAEHH@Z
_TEXT	SEGMENT
_p_bWithCalculate$ = 8					; size = 4
?ChangeAllGraphDataFromIndicatorInfo@CBlocksColumn@@QAEHH@Z PROC ; CBlocksColumn::ChangeAllGraphDataFromIndicatorInfo, COMDAT
; _this$ = ecx

; 1192 : {

  00000	55		 push	 ebp
  00001	8b ec		 mov	 ebp, esp
  00003	56		 push	 esi
  00004	57		 push	 edi

; 1193 : 	BOOL bResult = FALSE;
; 1194 : 	POSITION pos = m_BlockList.GetHeadPosition();

  00005	8b 79 14	 mov	 edi, DWORD PTR [ecx+20]
  00008	33 f6		 xor	 esi, esi

; 1195 : 	while(pos != NULL)

  0000a	85 ff		 test	 edi, edi
  0000c	74 25		 je	 SHORT $LN17@ChangeAllG
  0000e	53		 push	 ebx
  0000f	8b 5d 08	 mov	 ebx, DWORD PTR _p_bWithCalculate$[ebp]
$LL2@ChangeAllG:

; 1199 : 		if(pBlock->GetVertScaleGroupList().ChangeAllGraphDataFromIndicatorInfo( p_bWithCalculate))

  00012	8b 4f 08	 mov	 ecx, DWORD PTR [edi+8]
; File C:\Program Files (x86)\Microsoft Visual Studio\2019\Community\VC\Tools\MSVC\14.29.30133\atlmfc\include\afxcoll.inl

; 432  : 		rPosition = (POSITION) pNode->pNext;

  00015	8b 3f		 mov	 edi, DWORD PTR [edi]
; File D:\git\src\IBK\IBK_DRFN\ProjSrc\SrcChartEx\ChartOCX\ChartObject\BlocksColumn.cpp

; 1199 : 		if(pBlock->GetVertScaleGroupList().ChangeAllGraphDataFromIndicatorInfo( p_bWithCalculate))

  00017	53		 push	 ebx
  00018	e8 00 00 00 00	 call	 ?GetVertScaleGroupList@CBlockImp@@QAEAAVCVertScaleGroupList@@XZ ; CBlockImp::GetVertScaleGroupList
  0001d	8b c8		 mov	 ecx, eax
  0001f	e8 00 00 00 00	 call	 ?ChangeAllGraphDataFromIndicatorInfo@CVertScaleGroupList@@QAEHH@Z ; CVertScaleGroupList::ChangeAllGraphDataFromIndicatorInfo
  00024	85 c0		 test	 eax, eax
  00026	b8 01 00 00 00	 mov	 eax, 1
  0002b	0f 45 f0	 cmovne	 esi, eax
  0002e	85 ff		 test	 edi, edi
  00030	75 e0		 jne	 SHORT $LL2@ChangeAllG

; 1200 : 			bResult = TRUE;
; 1201 : 	}
; 1202 : 	return bResult;

  00032	5b		 pop	 ebx
$LN17@ChangeAllG:
  00033	5f		 pop	 edi

; 1203 : }

  00034	8b c6		 mov	 eax, esi
  00036	5e		 pop	 esi
  00037	5d		 pop	 ebp
  00038	c2 04 00	 ret	 4
?ChangeAllGraphDataFromIndicatorInfo@CBlocksColumn@@QAEHH@Z ENDP ; CBlocksColumn::ChangeAllGraphDataFromIndicatorInfo
_TEXT	ENDS
; Function compile flags: /Ogtp
; File D:\git\src\IBK\IBK_DRFN\ProjSrc\SrcChartEx\ChartOCX\ChartObject\BlocksColumn.cpp
; File C:\Program Files (x86)\Microsoft Visual Studio\2019\Community\VC\Tools\MSVC\14.29.30133\atlmfc\include\afxcoll.inl
; File D:\git\src\IBK\IBK_DRFN\ProjSrc\SrcChartEx\ChartOCX\ChartObject\BlocksColumn.cpp
;	COMDAT ?ChangeAllIndicatorInfoFromGraphData@CBlocksColumn@@QAE_NXZ
_TEXT	SEGMENT
?ChangeAllIndicatorInfoFromGraphData@CBlocksColumn@@QAE_NXZ PROC ; CBlocksColumn::ChangeAllIndicatorInfoFromGraphData, COMDAT
; _this$ = ecx

; 1178 : {

  00000	53		 push	 ebx
  00001	56		 push	 esi

; 1179 : 	bool bResult = false;
; 1180 : 	POSITION pos = m_BlockList.GetHeadPosition();

  00002	8b 71 14	 mov	 esi, DWORD PTR [ecx+20]
  00005	32 db		 xor	 bl, bl

; 1181 : 	while(pos != NULL)

  00007	85 f6		 test	 esi, esi
  00009	74 24		 je	 SHORT $LN17@ChangeAllI
  0000b	57		 push	 edi
  0000c	bf 01 00 00 00	 mov	 edi, 1
$LL2@ChangeAllI:

; 1185 : 		if(pBlock->GetVertScaleGroupList().ChangeAllIndicatorInfoFromGraphData())

  00011	8b 4e 08	 mov	 ecx, DWORD PTR [esi+8]
; File C:\Program Files (x86)\Microsoft Visual Studio\2019\Community\VC\Tools\MSVC\14.29.30133\atlmfc\include\afxcoll.inl

; 432  : 		rPosition = (POSITION) pNode->pNext;

  00014	8b 36		 mov	 esi, DWORD PTR [esi]
; File D:\git\src\IBK\IBK_DRFN\ProjSrc\SrcChartEx\ChartOCX\ChartObject\BlocksColumn.cpp

; 1185 : 		if(pBlock->GetVertScaleGroupList().ChangeAllIndicatorInfoFromGraphData())

  00016	e8 00 00 00 00	 call	 ?GetVertScaleGroupList@CBlockImp@@QAEAAVCVertScaleGroupList@@XZ ; CBlockImp::GetVertScaleGroupList
  0001b	8b c8		 mov	 ecx, eax
  0001d	e8 00 00 00 00	 call	 ?ChangeAllIndicatorInfoFromGraphData@CVertScaleGroupList@@QAE_NXZ ; CVertScaleGroupList::ChangeAllIndicatorInfoFromGraphData
  00022	84 c0		 test	 al, al
  00024	0f b6 db	 movzx	 ebx, bl
  00027	0f 45 df	 cmovne	 ebx, edi
  0002a	85 f6		 test	 esi, esi
  0002c	75 e3		 jne	 SHORT $LL2@ChangeAllI

; 1186 : 			bResult = true;
; 1187 : 	}
; 1188 : 	return bResult;

  0002e	5f		 pop	 edi
$LN17@ChangeAllI:
  0002f	5e		 pop	 esi

; 1189 : }

  00030	8a c3		 mov	 al, bl
  00032	5b		 pop	 ebx
  00033	c3		 ret	 0
?ChangeAllIndicatorInfoFromGraphData@CBlocksColumn@@QAE_NXZ ENDP ; CBlocksColumn::ChangeAllIndicatorInfoFromGraphData
_TEXT	ENDS
; Function compile flags: /Ogtp
; File D:\git\src\IBK\IBK_DRFN\ProjSrc\SrcChartEx\ChartOCX\ChartObject\BlocksColumn.cpp
; File C:\Program Files (x86)\Microsoft Visual Studio\2019\Community\VC\Tools\MSVC\14.29.30133\atlmfc\include\afxcoll.inl
; File D:\git\src\IBK\IBK_DRFN\ProjSrc\SrcChartEx\ChartOCX\ChartObject\BlocksColumn.cpp
;	COMDAT ?ShowIndicator@CBlocksColumn@@QAEXPBDHH@Z
_TEXT	SEGMENT
_p_szIndicatorName$ = 8					; size = 4
_p_bShow$ = 12						; size = 4
_p_bRecalculate$ = 16					; size = 4
?ShowIndicator@CBlocksColumn@@QAEXPBDHH@Z PROC		; CBlocksColumn::ShowIndicator, COMDAT
; _this$ = ecx

; 1163 : {

  00000	55		 push	 ebp
  00001	8b ec		 mov	 ebp, esp
  00003	57		 push	 edi

; 1164 : 	if( !p_szIndicatorName) return;

  00004	8b 7d 08	 mov	 edi, DWORD PTR _p_szIndicatorName$[ebp]
  00007	85 ff		 test	 edi, edi
  00009	74 31		 je	 SHORT $LN3@ShowIndica

; 1165 : 	if( !*p_szIndicatorName) return;

  0000b	80 3f 00	 cmp	 BYTE PTR [edi], 0
  0000e	74 2c		 je	 SHORT $LN3@ShowIndica

; 1166 : 
; 1167 : 	POSITION pos = m_BlockList.GetHeadPosition();

  00010	56		 push	 esi
  00011	8b 71 14	 mov	 esi, DWORD PTR [ecx+20]

; 1168 : 	while(pos != NULL)

  00014	85 f6		 test	 esi, esi
  00016	74 23		 je	 SHORT $LN19@ShowIndica
  00018	53		 push	 ebx
  00019	8b 5d 10	 mov	 ebx, DWORD PTR _p_bRecalculate$[ebp]
  0001c	0f 1f 40 00	 npad	 4
$LL2@ShowIndica:

; 1172 : 		pBlock->GetVertScaleGroupList().ShowIndicator( p_szIndicatorName, p_bShow, p_bRecalculate);

  00020	8b 4e 08	 mov	 ecx, DWORD PTR [esi+8]
; File C:\Program Files (x86)\Microsoft Visual Studio\2019\Community\VC\Tools\MSVC\14.29.30133\atlmfc\include\afxcoll.inl

; 432  : 		rPosition = (POSITION) pNode->pNext;

  00023	8b 36		 mov	 esi, DWORD PTR [esi]
; File D:\git\src\IBK\IBK_DRFN\ProjSrc\SrcChartEx\ChartOCX\ChartObject\BlocksColumn.cpp

; 1172 : 		pBlock->GetVertScaleGroupList().ShowIndicator( p_szIndicatorName, p_bShow, p_bRecalculate);

  00025	53		 push	 ebx
  00026	ff 75 0c	 push	 DWORD PTR _p_bShow$[ebp]
  00029	57		 push	 edi
  0002a	e8 00 00 00 00	 call	 ?GetVertScaleGroupList@CBlockImp@@QAEAAVCVertScaleGroupList@@XZ ; CBlockImp::GetVertScaleGroupList
  0002f	8b c8		 mov	 ecx, eax
  00031	e8 00 00 00 00	 call	 ?ShowIndicator@CVertScaleGroupList@@QAEXPBDHH@Z ; CVertScaleGroupList::ShowIndicator
  00036	85 f6		 test	 esi, esi
  00038	75 e6		 jne	 SHORT $LL2@ShowIndica
  0003a	5b		 pop	 ebx
$LN19@ShowIndica:
  0003b	5e		 pop	 esi
$LN3@ShowIndica:
  0003c	5f		 pop	 edi

; 1173 : 	}
; 1174 : }

  0003d	5d		 pop	 ebp
  0003e	c2 0c 00	 ret	 12			; 0000000cH
?ShowIndicator@CBlocksColumn@@QAEXPBDHH@Z ENDP		; CBlocksColumn::ShowIndicator
_TEXT	ENDS
; Function compile flags: /Ogtp
; File D:\git\src\IBK\IBK_DRFN\ProjSrc\SrcChartEx\ChartOCX\ChartObject\BlocksColumn.cpp
; File C:\Program Files (x86)\Microsoft Visual Studio\2019\Community\VC\Tools\MSVC\14.29.30133\atlmfc\include\afxcoll.inl
; File D:\git\src\IBK\IBK_DRFN\ProjSrc\SrcChartEx\ChartOCX\ChartObject\BlocksColumn.cpp
;	COMDAT ?ChangeIndicatorPacketNames@CBlocksColumn@@QAEHPBDH0@Z
_TEXT	SEGMENT
_p_szIndicatorName$ = 8					; size = 4
_p_nSubGraphIndex$ = 12					; size = 4
_p_szPacketNames$ = 16					; size = 4
?ChangeIndicatorPacketNames@CBlocksColumn@@QAEHPBDH0@Z PROC ; CBlocksColumn::ChangeIndicatorPacketNames, COMDAT
; _this$ = ecx

; 1143 : {

  00000	55		 push	 ebp
  00001	8b ec		 mov	 ebp, esp

; 1144 : 	if( !p_szIndicatorName || !p_szPacketNames) return FALSE;

  00003	8b 55 08	 mov	 edx, DWORD PTR _p_szIndicatorName$[ebp]
  00006	53		 push	 ebx
  00007	85 d2		 test	 edx, edx
  00009	74 53		 je	 SHORT $LN5@ChangeIndi
  0000b	8b 5d 10	 mov	 ebx, DWORD PTR _p_szPacketNames$[ebp]
  0000e	85 db		 test	 ebx, ebx
  00010	74 4c		 je	 SHORT $LN5@ChangeIndi

; 1145 : 	if( !*p_szIndicatorName || !*p_szPacketNames) return FALSE;

  00012	80 3a 00	 cmp	 BYTE PTR [edx], 0
  00015	74 47		 je	 SHORT $LN5@ChangeIndi
  00017	80 3b 00	 cmp	 BYTE PTR [ebx], 0
  0001a	74 42		 je	 SHORT $LN5@ChangeIndi

; 1146 : 
; 1147 : 	BOOL bResult = FALSE, bResult2 = FALSE;

  0001c	56		 push	 esi

; 1148 : 	CBlockImp *pBlock = NULL;
; 1149 : 	POSITION pos = m_BlockList.GetHeadPosition();

  0001d	8b 71 14	 mov	 esi, DWORD PTR [ecx+20]
  00020	57		 push	 edi
  00021	33 ff		 xor	 edi, edi

; 1150 : 	while( pos)

  00023	85 f6		 test	 esi, esi
  00025	74 2e		 je	 SHORT $LN3@ChangeIndi
$LL2@ChangeIndi:

; 1151 : 	{
; 1152 : 		pBlock = m_BlockList.GetNext(pos);

  00027	8b 4e 08	 mov	 ecx, DWORD PTR [esi+8]
; File C:\Program Files (x86)\Microsoft Visual Studio\2019\Community\VC\Tools\MSVC\14.29.30133\atlmfc\include\afxcoll.inl

; 432  : 		rPosition = (POSITION) pNode->pNext;

  0002a	8b 36		 mov	 esi, DWORD PTR [esi]
; File D:\git\src\IBK\IBK_DRFN\ProjSrc\SrcChartEx\ChartOCX\ChartObject\BlocksColumn.cpp

; 1153 : 		if( !pBlock) continue;

  0002c	85 c9		 test	 ecx, ecx
  0002e	74 21		 je	 SHORT $LN11@ChangeIndi

; 1154 : 		bResult2 = pBlock->GetVertScaleGroupList().ChangeIndicatorPacketNames( p_szIndicatorName, p_nSubGraphIndex, p_szPacketNames);

  00030	53		 push	 ebx
  00031	ff 75 0c	 push	 DWORD PTR _p_nSubGraphIndex$[ebp]
  00034	52		 push	 edx
  00035	e8 00 00 00 00	 call	 ?GetVertScaleGroupList@CBlockImp@@QAEAAVCVertScaleGroupList@@XZ ; CBlockImp::GetVertScaleGroupList
  0003a	8b c8		 mov	 ecx, eax
  0003c	e8 00 00 00 00	 call	 ?ChangeIndicatorPacketNames@CVertScaleGroupList@@QAEHPBDH0@Z ; CVertScaleGroupList::ChangeIndicatorPacketNames

; 1155 : 		bResult = bResult || bResult2;

  00041	85 ff		 test	 edi, edi
  00043	75 04		 jne	 SHORT $LN10@ChangeIndi
  00045	85 c0		 test	 eax, eax
  00047	74 05		 je	 SHORT $LN25@ChangeIndi
$LN10@ChangeIndi:
  00049	bf 01 00 00 00	 mov	 edi, 1
$LN25@ChangeIndi:

; 1150 : 	while( pos)

  0004e	8b 55 08	 mov	 edx, DWORD PTR _p_szIndicatorName$[ebp]
$LN11@ChangeIndi:
  00051	85 f6		 test	 esi, esi
  00053	75 d2		 jne	 SHORT $LL2@ChangeIndi
$LN3@ChangeIndi:

; 1156 : 	}
; 1157 : 	return bResult;

  00055	8b c7		 mov	 eax, edi
  00057	5f		 pop	 edi
  00058	5e		 pop	 esi
  00059	5b		 pop	 ebx

; 1158 : }

  0005a	5d		 pop	 ebp
  0005b	c2 0c 00	 ret	 12			; 0000000cH
$LN5@ChangeIndi:

; 1144 : 	if( !p_szIndicatorName || !p_szPacketNames) return FALSE;

  0005e	33 c0		 xor	 eax, eax
  00060	5b		 pop	 ebx

; 1158 : }

  00061	5d		 pop	 ebp
  00062	c2 0c 00	 ret	 12			; 0000000cH
?ChangeIndicatorPacketNames@CBlocksColumn@@QAEHPBDH0@Z ENDP ; CBlocksColumn::ChangeIndicatorPacketNames
_TEXT	ENDS
; Function compile flags: /Ogtp
; File D:\git\src\IBK\IBK_DRFN\ProjSrc\SrcChartEx\ChartOCX\ChartObject\BlocksColumn.cpp
; File C:\Program Files (x86)\Microsoft Visual Studio\2019\Community\VC\Tools\MSVC\14.29.30133\atlmfc\include\afxcoll.inl
; File D:\git\src\IBK\IBK_DRFN\ProjSrc\SrcChartEx\ChartOCX\ChartObject\BlocksColumn.cpp
;	COMDAT ?Initialize_IndicatorInfo@CBlocksColumn@@QAEX_N@Z
_TEXT	SEGMENT
_bIsNULL$ = 8						; size = 1
?Initialize_IndicatorInfo@CBlocksColumn@@QAEX_N@Z PROC	; CBlocksColumn::Initialize_IndicatorInfo, COMDAT
; _this$ = ecx

; 1131 : {

  00000	55		 push	 ebp
  00001	8b ec		 mov	 ebp, esp
  00003	56		 push	 esi

; 1132 : 	POSITION pos = m_BlockList.GetHeadPosition();

  00004	8b 71 14	 mov	 esi, DWORD PTR [ecx+20]

; 1133 : 	while(pos != NULL)

  00007	85 f6		 test	 esi, esi
  00009	74 1c		 je	 SHORT $LN3@Initialize
  0000b	57		 push	 edi
  0000c	8b 7d 08	 mov	 edi, DWORD PTR _bIsNULL$[ebp]
  0000f	90		 npad	 1
$LL2@Initialize:

; 1137 : 		pBlock->GetVertScaleGroupList().Initialize_IndicatorInfo(bIsNULL);

  00010	8b 4e 08	 mov	 ecx, DWORD PTR [esi+8]
; File C:\Program Files (x86)\Microsoft Visual Studio\2019\Community\VC\Tools\MSVC\14.29.30133\atlmfc\include\afxcoll.inl

; 432  : 		rPosition = (POSITION) pNode->pNext;

  00013	8b 36		 mov	 esi, DWORD PTR [esi]
; File D:\git\src\IBK\IBK_DRFN\ProjSrc\SrcChartEx\ChartOCX\ChartObject\BlocksColumn.cpp

; 1137 : 		pBlock->GetVertScaleGroupList().Initialize_IndicatorInfo(bIsNULL);

  00015	57		 push	 edi
  00016	e8 00 00 00 00	 call	 ?GetVertScaleGroupList@CBlockImp@@QAEAAVCVertScaleGroupList@@XZ ; CBlockImp::GetVertScaleGroupList
  0001b	8b c8		 mov	 ecx, eax
  0001d	e8 00 00 00 00	 call	 ?Initialize_IndicatorInfo@CVertScaleGroupList@@QAEX_N@Z ; CVertScaleGroupList::Initialize_IndicatorInfo
  00022	85 f6		 test	 esi, esi
  00024	75 ea		 jne	 SHORT $LL2@Initialize
  00026	5f		 pop	 edi
$LN3@Initialize:
  00027	5e		 pop	 esi

; 1138 : 	}
; 1139 : }

  00028	5d		 pop	 ebp
  00029	c2 04 00	 ret	 4
?Initialize_IndicatorInfo@CBlocksColumn@@QAEX_N@Z ENDP	; CBlocksColumn::Initialize_IndicatorInfo
_TEXT	ENDS
; Function compile flags: /Ogtp
; File D:\git\src\IBK\IBK_DRFN\ProjSrc\SrcChartEx\ChartOCX\ChartObject\BlocksColumn.cpp
; File C:\Program Files (x86)\Microsoft Visual Studio\2019\Community\VC\Tools\MSVC\14.29.30133\atlmfc\include\afxcoll.inl
; File D:\git\src\IBK\IBK_DRFN\ProjSrc\SrcChartEx\ChartOCX\ChartObject\BlocksColumn.cpp
;	COMDAT ?Initialize_Packet@CBlocksColumn@@QAE_NABV?$CStringT@DV?$StrTraitMFC_DLL@DV?$ChTraitsCRT@D@ATL@@@@@ATL@@_N@Z
_TEXT	SEGMENT
_strPacketName$ = 8					; size = 4
_bIsCalculate$ = 12					; size = 1
?Initialize_Packet@CBlocksColumn@@QAE_NABV?$CStringT@DV?$StrTraitMFC_DLL@DV?$ChTraitsCRT@D@ATL@@@@@ATL@@_N@Z PROC ; CBlocksColumn::Initialize_Packet, COMDAT
; _this$ = ecx

; 1116 : {

  00000	55		 push	 ebp
  00001	8b ec		 mov	 ebp, esp
  00003	53		 push	 ebx
  00004	56		 push	 esi

; 1117 : 	bool bResult = false;
; 1118 : 	POSITION pos = m_BlockList.GetHeadPosition();

  00005	8b 71 14	 mov	 esi, DWORD PTR [ecx+20]
  00008	32 db		 xor	 bl, bl

; 1119 : 	while(pos != NULL)

  0000a	85 f6		 test	 esi, esi
  0000c	74 2b		 je	 SHORT $LN17@Initialize
  0000e	57		 push	 edi
  0000f	8b 7d 08	 mov	 edi, DWORD PTR _strPacketName$[ebp]
$LL2@Initialize:

; 1123 : 		if(pBlock->GetVertScaleGroupList().Initialize_Packet(strPacketName, bIsCalculate))

  00012	ff 75 0c	 push	 DWORD PTR _bIsCalculate$[ebp]
  00015	8b 4e 08	 mov	 ecx, DWORD PTR [esi+8]
; File C:\Program Files (x86)\Microsoft Visual Studio\2019\Community\VC\Tools\MSVC\14.29.30133\atlmfc\include\afxcoll.inl

; 432  : 		rPosition = (POSITION) pNode->pNext;

  00018	8b 36		 mov	 esi, DWORD PTR [esi]
; File D:\git\src\IBK\IBK_DRFN\ProjSrc\SrcChartEx\ChartOCX\ChartObject\BlocksColumn.cpp

; 1123 : 		if(pBlock->GetVertScaleGroupList().Initialize_Packet(strPacketName, bIsCalculate))

  0001a	57		 push	 edi
  0001b	e8 00 00 00 00	 call	 ?GetVertScaleGroupList@CBlockImp@@QAEAAVCVertScaleGroupList@@XZ ; CBlockImp::GetVertScaleGroupList
  00020	8b c8		 mov	 ecx, eax
  00022	e8 00 00 00 00	 call	 ?Initialize_Packet@CVertScaleGroupList@@QAE_NABV?$CStringT@DV?$StrTraitMFC_DLL@DV?$ChTraitsCRT@D@ATL@@@@@ATL@@_N@Z ; CVertScaleGroupList::Initialize_Packet
  00027	84 c0		 test	 al, al
  00029	0f b6 db	 movzx	 ebx, bl
  0002c	b8 01 00 00 00	 mov	 eax, 1
  00031	0f 45 d8	 cmovne	 ebx, eax
  00034	85 f6		 test	 esi, esi
  00036	75 da		 jne	 SHORT $LL2@Initialize

; 1124 : 			bResult = true;
; 1125 : 	}
; 1126 : 	return bResult;

  00038	5f		 pop	 edi
$LN17@Initialize:
  00039	5e		 pop	 esi

; 1127 : }

  0003a	8a c3		 mov	 al, bl
  0003c	5b		 pop	 ebx
  0003d	5d		 pop	 ebp
  0003e	c2 08 00	 ret	 8
?Initialize_Packet@CBlocksColumn@@QAE_NABV?$CStringT@DV?$StrTraitMFC_DLL@DV?$ChTraitsCRT@D@ATL@@@@@ATL@@_N@Z ENDP ; CBlocksColumn::Initialize_Packet
_TEXT	ENDS
; Function compile flags: /Ogtp
; File D:\git\src\IBK\IBK_DRFN\ProjSrc\SrcChartEx\ChartOCX\ChartObject\BlocksColumn.cpp
; File C:\Program Files (x86)\Microsoft Visual Studio\2019\Community\VC\Tools\MSVC\14.29.30133\atlmfc\include\afxcoll.inl
; File D:\git\src\IBK\IBK_DRFN\ProjSrc\SrcChartEx\ChartOCX\ChartObject\BlocksColumn.cpp
;	COMDAT ?GetAllGraphName@CBlocksColumn@@QBE_NAAV?$CList@V?$CStringT@DV?$StrTraitMFC_DLL@DV?$ChTraitsCRT@D@ATL@@@@@ATL@@V12@@@@Z
_TEXT	SEGMENT
_strGraphNameList$ = 8					; size = 4
?GetAllGraphName@CBlocksColumn@@QBE_NAAV?$CList@V?$CStringT@DV?$StrTraitMFC_DLL@DV?$ChTraitsCRT@D@ATL@@@@@ATL@@V12@@@@Z PROC ; CBlocksColumn::GetAllGraphName, COMDAT
; _this$ = ecx

; 1101 : {

  00000	55		 push	 ebp
  00001	8b ec		 mov	 ebp, esp
  00003	53		 push	 ebx
  00004	56		 push	 esi

; 1102 : 	bool bResult = false;
; 1103 : 	POSITION pos = m_BlockList.GetHeadPosition();

  00005	8b 71 14	 mov	 esi, DWORD PTR [ecx+20]
  00008	32 db		 xor	 bl, bl

; 1104 : 	while(pos != NULL)

  0000a	85 f6		 test	 esi, esi
  0000c	74 28		 je	 SHORT $LN17@GetAllGrap
  0000e	57		 push	 edi
  0000f	8b 7d 08	 mov	 edi, DWORD PTR _strGraphNameList$[ebp]
$LL2@GetAllGrap:

; 1108 : 		if(pBlock->GetVertScaleGroupList().GetAllGraphName(strGraphNameList))

  00012	8b 4e 08	 mov	 ecx, DWORD PTR [esi+8]
; File C:\Program Files (x86)\Microsoft Visual Studio\2019\Community\VC\Tools\MSVC\14.29.30133\atlmfc\include\afxcoll.inl

; 439  : 		rPosition = (POSITION) pNode->pNext;

  00015	8b 36		 mov	 esi, DWORD PTR [esi]
; File D:\git\src\IBK\IBK_DRFN\ProjSrc\SrcChartEx\ChartOCX\ChartObject\BlocksColumn.cpp

; 1108 : 		if(pBlock->GetVertScaleGroupList().GetAllGraphName(strGraphNameList))

  00017	57		 push	 edi
  00018	e8 00 00 00 00	 call	 ?GetVertScaleGroupList@CBlockImp@@QAEAAVCVertScaleGroupList@@XZ ; CBlockImp::GetVertScaleGroupList
  0001d	8b c8		 mov	 ecx, eax
  0001f	e8 00 00 00 00	 call	 ?GetAllGraphName@CVertScaleGroupList@@QBE_NAAV?$CList@V?$CStringT@DV?$StrTraitMFC_DLL@DV?$ChTraitsCRT@D@ATL@@@@@ATL@@V12@@@@Z ; CVertScaleGroupList::GetAllGraphName
  00024	84 c0		 test	 al, al
  00026	0f b6 db	 movzx	 ebx, bl
  00029	b8 01 00 00 00	 mov	 eax, 1
  0002e	0f 45 d8	 cmovne	 ebx, eax
  00031	85 f6		 test	 esi, esi
  00033	75 dd		 jne	 SHORT $LL2@GetAllGrap

; 1109 : 			bResult = true;
; 1110 : 	}
; 1111 : 	return bResult;

  00035	5f		 pop	 edi
$LN17@GetAllGrap:
  00036	5e		 pop	 esi

; 1112 : }

  00037	8a c3		 mov	 al, bl
  00039	5b		 pop	 ebx
  0003a	5d		 pop	 ebp
  0003b	c2 04 00	 ret	 4
?GetAllGraphName@CBlocksColumn@@QBE_NAAV?$CList@V?$CStringT@DV?$StrTraitMFC_DLL@DV?$ChTraitsCRT@D@ATL@@@@@ATL@@V12@@@@Z ENDP ; CBlocksColumn::GetAllGraphName
_TEXT	ENDS
; Function compile flags: /Ogtp
; File D:\git\src\IBK\IBK_DRFN\ProjSrc\SrcChartEx\ChartOCX\ChartObject\BlocksColumn.cpp
; File C:\Program Files (x86)\Microsoft Visual Studio\2019\Community\VC\Tools\MSVC\14.29.30133\atlmfc\include\afxcoll.inl
; File D:\git\src\IBK\IBK_DRFN\ProjSrc\SrcChartEx\ChartOCX\ChartObject\BlocksColumn.cpp
;	COMDAT ?GetAllIndicatorName@CBlocksColumn@@QBE_NAAV?$CList@V?$CStringT@DV?$StrTraitMFC_DLL@DV?$ChTraitsCRT@D@ATL@@@@@ATL@@V12@@@@Z
_TEXT	SEGMENT
_strIndicatorNameList$ = 8				; size = 4
?GetAllIndicatorName@CBlocksColumn@@QBE_NAAV?$CList@V?$CStringT@DV?$StrTraitMFC_DLL@DV?$ChTraitsCRT@D@ATL@@@@@ATL@@V12@@@@Z PROC ; CBlocksColumn::GetAllIndicatorName, COMDAT
; _this$ = ecx

; 1087 : {

  00000	55		 push	 ebp
  00001	8b ec		 mov	 ebp, esp
  00003	53		 push	 ebx
  00004	56		 push	 esi

; 1088 : 	bool bResult = false;
; 1089 : 	POSITION pos = m_BlockList.GetHeadPosition();

  00005	8b 71 14	 mov	 esi, DWORD PTR [ecx+20]
  00008	32 db		 xor	 bl, bl

; 1090 : 	while(pos != NULL)

  0000a	85 f6		 test	 esi, esi
  0000c	74 28		 je	 SHORT $LN17@GetAllIndi
  0000e	57		 push	 edi
  0000f	8b 7d 08	 mov	 edi, DWORD PTR _strIndicatorNameList$[ebp]
$LL2@GetAllIndi:

; 1094 : 		if(pBlock->GetVertScaleGroupList().GetAllIndicatorName(strIndicatorNameList))

  00012	8b 4e 08	 mov	 ecx, DWORD PTR [esi+8]
; File C:\Program Files (x86)\Microsoft Visual Studio\2019\Community\VC\Tools\MSVC\14.29.30133\atlmfc\include\afxcoll.inl

; 439  : 		rPosition = (POSITION) pNode->pNext;

  00015	8b 36		 mov	 esi, DWORD PTR [esi]
; File D:\git\src\IBK\IBK_DRFN\ProjSrc\SrcChartEx\ChartOCX\ChartObject\BlocksColumn.cpp

; 1094 : 		if(pBlock->GetVertScaleGroupList().GetAllIndicatorName(strIndicatorNameList))

  00017	57		 push	 edi
  00018	e8 00 00 00 00	 call	 ?GetVertScaleGroupList@CBlockImp@@QAEAAVCVertScaleGroupList@@XZ ; CBlockImp::GetVertScaleGroupList
  0001d	8b c8		 mov	 ecx, eax
  0001f	e8 00 00 00 00	 call	 ?GetAllIndicatorName@CVertScaleGroupList@@QBE_NAAV?$CList@V?$CStringT@DV?$StrTraitMFC_DLL@DV?$ChTraitsCRT@D@ATL@@@@@ATL@@V12@@@@Z ; CVertScaleGroupList::GetAllIndicatorName
  00024	84 c0		 test	 al, al
  00026	0f b6 db	 movzx	 ebx, bl
  00029	b8 01 00 00 00	 mov	 eax, 1
  0002e	0f 45 d8	 cmovne	 ebx, eax
  00031	85 f6		 test	 esi, esi
  00033	75 dd		 jne	 SHORT $LL2@GetAllIndi

; 1095 : 			bResult = true;
; 1096 : 	}
; 1097 : 	return bResult;

  00035	5f		 pop	 edi
$LN17@GetAllIndi:
  00036	5e		 pop	 esi

; 1098 : }

  00037	8a c3		 mov	 al, bl
  00039	5b		 pop	 ebx
  0003a	5d		 pop	 ebp
  0003b	c2 04 00	 ret	 4
?GetAllIndicatorName@CBlocksColumn@@QBE_NAAV?$CList@V?$CStringT@DV?$StrTraitMFC_DLL@DV?$ChTraitsCRT@D@ATL@@@@@ATL@@V12@@@@Z ENDP ; CBlocksColumn::GetAllIndicatorName
_TEXT	ENDS
; Function compile flags: /Ogtp
; File D:\git\src\IBK\IBK_DRFN\ProjSrc\SrcChartEx\ChartOCX\ChartObject\BlocksColumn.cpp
; File C:\Program Files (x86)\Microsoft Visual Studio\2019\Community\VC\Tools\MSVC\14.29.30133\atlmfc\include\atlsimpstr.h
; File D:\git\src\IBK\IBK_DRFN\ProjSrc\SrcChartEx\ChartOCX\ChartObject\BlocksColumn.cpp
; File C:\Program Files (x86)\Microsoft Visual Studio\2019\Community\VC\Tools\MSVC\14.29.30133\atlmfc\include\afxcoll.inl
; File D:\git\src\IBK\IBK_DRFN\ProjSrc\SrcChartEx\ChartOCX\ChartObject\BlocksColumn.cpp
; File C:\Program Files (x86)\Microsoft Visual Studio\2019\Community\VC\Tools\MSVC\14.29.30133\atlmfc\include\atlsimpstr.h
; File D:\git\src\IBK\IBK_DRFN\ProjSrc\SrcChartEx\ChartOCX\ChartObject\BlocksColumn.cpp
; File D:\git\src\IBK\IBK_DRFN\ProjSrc\SrcChartEx\ChartOCX\Include_Chart\ScaleBaseData.h
; File D:\git\src\IBK\IBK_DRFN\ProjSrc\SrcChartEx\ChartOCX\ChartObject\BlocksColumn.cpp
;	COMDAT ?SetMaintainOldScale@CBlocksColumn@@QAEXPAVCBlockImp@@@Z
_TEXT	SEGMENT
_gsi$ = -268						; size = 64
_horzScale$ = -204					; size = 100
_vertScale$ = -104					; size = 88
_pBaseBlock$2$ = -16					; size = 4
__$EHRec$ = -12						; size = 12
$T2 = 8							; size = 4
$T3 = 8							; size = 4
$T4 = 8							; size = 4
$T5 = 8							; size = 4
_pBlock$ = 8						; size = 4
?SetMaintainOldScale@CBlocksColumn@@QAEXPAVCBlockImp@@@Z PROC ; CBlocksColumn::SetMaintainOldScale, COMDAT
; _this$ = ecx

; 1013 : {

  00000	55		 push	 ebp
  00001	8b ec		 mov	 ebp, esp
  00003	6a ff		 push	 -1
  00005	68 00 00 00 00	 push	 __ehhandler$?SetMaintainOldScale@CBlocksColumn@@QAEXPAVCBlockImp@@@Z
  0000a	64 a1 00 00 00
	00		 mov	 eax, DWORD PTR fs:0
  00010	50		 push	 eax
  00011	81 ec 00 01 00
	00		 sub	 esp, 256		; 00000100H
  00017	53		 push	 ebx
  00018	56		 push	 esi
  00019	57		 push	 edi
  0001a	a1 00 00 00 00	 mov	 eax, DWORD PTR ___security_cookie
  0001f	33 c5		 xor	 eax, ebp
  00021	50		 push	 eax
  00022	8d 45 f4	 lea	 eax, DWORD PTR __$EHRec$[ebp]
  00025	64 a3 00 00 00
	00		 mov	 DWORD PTR fs:0, eax
  0002b	8b f9		 mov	 edi, ecx

; 1014 : 	if(pBlock == NULL) return;

  0002d	8b 5d 08	 mov	 ebx, DWORD PTR _pBlock$[ebp]
  00030	85 db		 test	 ebx, ebx
  00032	0f 84 4f 02 00
	00		 je	 $LN1@SetMaintai

; 1015 : 
; 1016 : 	//   Block .
; 1017 : 	CBlockImp* pBaseBlock = NULL;

  00038	8d 8d f4 fe ff
	ff		 lea	 ecx, DWORD PTR _gsi$[ebp]
  0003e	33 f6		 xor	 esi, esi
  00040	e8 00 00 00 00	 call	 ??0CGraphSearchInfo@@QAE@XZ ; CGraphSearchInfo::CGraphSearchInfo

; 1018 : 	CGraphSearchInfo_OtherBlock gsi;
; 1019 : 	gsi.m_pBlockImp = pBlock;
; 1020 : 	if( FindGraph( &gsi)) pBaseBlock = gsi.m_pBlockImp;

  00045	8d 85 f4 fe ff
	ff		 lea	 eax, DWORD PTR _gsi$[ebp]
  0004b	c7 85 f4 fe ff
	ff 00 00 00 00	 mov	 DWORD PTR _gsi$[ebp], OFFSET ??_7CGraphSearchInfo_OtherBlock@@6B@
  00055	50		 push	 eax
  00056	8b cf		 mov	 ecx, edi
  00058	89 9d 24 ff ff
	ff		 mov	 DWORD PTR _gsi$[ebp+48], ebx
  0005e	e8 00 00 00 00	 call	 ?FindGraph@CBlocksColumn@@QBEHPAVCGraphSearchInfo@@@Z ; CBlocksColumn::FindGraph
  00063	85 c0		 test	 eax, eax

; 1021 : 
; 1022 : 	//  scale  .
; 1023 : 	CHorizontalScale horzScale;

  00065	8d 8d 34 ff ff
	ff		 lea	 ecx, DWORD PTR _horzScale$[ebp]
  0006b	0f 45 b5 24 ff
	ff ff		 cmovne	 esi, DWORD PTR _gsi$[ebp+48]
  00072	89 75 f0	 mov	 DWORD PTR _pBaseBlock$2$[ebp], esi
  00075	ff 15 00 00 00
	00		 call	 DWORD PTR __imp_??0CHorizontalScale@@QAE@XZ
  0007b	c7 45 fc 00 00
	00 00		 mov	 DWORD PTR __$EHRec$[ebp+8], 0

; 1024 : 	if(pBaseBlock != NULL) horzScale = pBaseBlock->GetBlockData().GetHorzScale();

  00082	85 f6		 test	 esi, esi
  00084	74 1b		 je	 SHORT $LN4@SetMaintai
  00086	8b ce		 mov	 ecx, esi
  00088	e8 00 00 00 00	 call	 ?GetBlockData@CBlockImp@@QAEAAVCBlockData@@XZ ; CBlockImp::GetBlockData
  0008d	8b c8		 mov	 ecx, eax
  0008f	e8 00 00 00 00	 call	 ?GetHorzScale@CBlockData@@QAEAAVCHorizontalScale@@XZ ; CBlockData::GetHorzScale
  00094	50		 push	 eax
  00095	8d 8d 34 ff ff
	ff		 lea	 ecx, DWORD PTR _horzScale$[ebp]
  0009b	ff 15 00 00 00
	00		 call	 DWORD PTR __imp_??4CHorizontalScale@@QAEAAV0@ABV0@@Z
$LN4@SetMaintai:

; 1027 : 	if(horzScale.GetScaleData().IsEmpty()) horzScale.SetData( _MTEXT( C0_DATE_TIME));

  000a1	8d 45 08	 lea	 eax, DWORD PTR $T5[ebp]
  000a4	50		 push	 eax
  000a5	8d 8d 34 ff ff
	ff		 lea	 ecx, DWORD PTR _horzScale$[ebp]
  000ab	ff 15 00 00 00
	00		 call	 DWORD PTR __imp_?GetScaleData@CScale@@QBE?AV?$CStringT@DV?$StrTraitMFC_DLL@DV?$ChTraitsCRT@D@ATL@@@@@ATL@@XZ
  000b1	8d 4d 08	 lea	 ecx, DWORD PTR $T5[ebp]
; File C:\Program Files (x86)\Microsoft Visual Studio\2019\Community\VC\Tools\MSVC\14.29.30133\atlmfc\include\atlsimpstr.h

; 519  : 		return( GetData()->nDataLength );

  000b4	8b 00		 mov	 eax, DWORD PTR [eax]
  000b6	8b 70 f4	 mov	 esi, DWORD PTR [eax-12]
; File D:\git\src\IBK\IBK_DRFN\ProjSrc\SrcChartEx\ChartOCX\ChartObject\BlocksColumn.cpp

; 1027 : 	if(horzScale.GetScaleData().IsEmpty()) horzScale.SetData( _MTEXT( C0_DATE_TIME));

  000b9	ff 15 00 00 00
	00		 call	 DWORD PTR __imp_??1?$CStringT@DV?$StrTraitMFC_DLL@DV?$ChTraitsCRT@D@ATL@@@@@ATL@@QAE@XZ
  000bf	85 f6		 test	 esi, esi
  000c1	75 31		 jne	 SHORT $LN5@SetMaintai
  000c3	a1 54 00 00 00	 mov	 eax, DWORD PTR ?g_iMetaTable@@3VIMetaTable@@A+84
  000c8	8d 4d 08	 lea	 ecx, DWORD PTR $T4[ebp]
  000cb	ff 30		 push	 DWORD PTR [eax]
  000cd	ff 15 00 00 00
	00		 call	 DWORD PTR __imp_??0?$CStringT@DV?$StrTraitMFC_DLL@DV?$ChTraitsCRT@D@ATL@@@@@ATL@@QAE@PBD@Z
  000d3	8d 45 08	 lea	 eax, DWORD PTR $T4[ebp]
  000d6	c6 45 fc 01	 mov	 BYTE PTR __$EHRec$[ebp+8], 1
  000da	50		 push	 eax
  000db	8d 8d 34 ff ff
	ff		 lea	 ecx, DWORD PTR _horzScale$[ebp]
  000e1	ff 15 00 00 00
	00		 call	 DWORD PTR __imp_?SetData@CScale@@QAEXABV?$CStringT@DV?$StrTraitMFC_DLL@DV?$ChTraitsCRT@D@ATL@@@@@ATL@@@Z
  000e7	8d 4d 08	 lea	 ecx, DWORD PTR $T4[ebp]
  000ea	c6 45 fc 00	 mov	 BYTE PTR __$EHRec$[ebp+8], 0
  000ee	ff 15 00 00 00
	00		 call	 DWORD PTR __imp_??1?$CStringT@DV?$StrTraitMFC_DLL@DV?$ChTraitsCRT@D@ATL@@@@@ATL@@QAE@XZ
$LN5@SetMaintai:

; 1028 : 
; 1029 : 	// scale position -> block 1      : <HORZ_BOTTOM>
; 1030 : 	//                -> block 2  : <HORZ_HIDE>
; 1031 : 	if(m_BlockList.GetCount() <= 1)

  000f4	83 7f 1c 01	 cmp	 DWORD PTR [edi+28], 1
  000f8	8d 95 34 ff ff
	ff		 lea	 edx, DWORD PTR _horzScale$[ebp]
  000fe	8b 4f 04	 mov	 ecx, DWORD PTR [edi+4]
  00101	8b 01		 mov	 eax, DWORD PTR [ecx]
  00103	7f 04		 jg	 SHORT $LN6@SetMaintai

; 1032 : 	{
; 1033 : 		// (2009/9/6 - Seung-Won, Bae) Do not support CHorizontalScale::SetHorzScalePosition() as public.
; 1034 : 		//		To rearrange the row positions. Use CMainBlockImp::SetHorzScalePosition().
; 1035 : 		m_pMain->SetHorzScalePosition( horzScale, CScaleBaseData::HORZ_BOTTOM);

  00105	6a 01		 push	 1

; 1036 : 	}

  00107	eb 02		 jmp	 SHORT $LN49@SetMaintai
$LN6@SetMaintai:

; 1037 : 	else
; 1038 : 	{
; 1039 : 		// (2009/9/6 - Seung-Won, Bae) Do not support CHorizontalScale::SetHorzScalePosition() as public.
; 1040 : 		//		To rearrange the row positions. Use CMainBlockImp::SetHorzScalePosition().
; 1041 : 		m_pMain->SetHorzScalePosition( horzScale, CScaleBaseData::HORZ_HIDE);

  00109	6a 03		 push	 3
$LN49@SetMaintai:
; File C:\Program Files (x86)\Microsoft Visual Studio\2019\Community\VC\Tools\MSVC\14.29.30133\atlmfc\include\afxcoll.inl

; 410  : 	{ return m_nCount == 0; }

  0010b	52		 push	 edx
  0010c	ff 90 d8 00 00
	00		 call	 DWORD PTR [eax+216]
  00112	83 7f 1c 00	 cmp	 DWORD PTR [edi+28], 0
; File D:\git\src\IBK\IBK_DRFN\ProjSrc\SrcChartEx\ChartOCX\ChartObject\BlocksColumn.cpp

; 1044 : 	if( !m_BlockList.IsEmpty())

  00116	74 72		 je	 SHORT $LN10@SetMaintai

; 1045 : 	{
; 1046 : 		pBlock->GetBlockData().SetHorzScale( horzScale);

  00118	8d 85 34 ff ff
	ff		 lea	 eax, DWORD PTR _horzScale$[ebp]
  0011e	8b cb		 mov	 ecx, ebx
  00120	50		 push	 eax
  00121	e8 00 00 00 00	 call	 ?GetBlockData@CBlockImp@@QAEAAVCBlockData@@XZ ; CBlockImp::GetBlockData
  00126	8b c8		 mov	 ecx, eax
  00128	e8 00 00 00 00	 call	 ?SetHorzScale@CBlockData@@QAEXABVCHorizontalScale@@@Z ; CBlockData::SetHorzScale

; 1047 : 		
; 1048 : 		if( 2 <= m_BlockList.GetCount() && m_BlockList.GetTail() == pBlock)

  0012d	8b 4f 1c	 mov	 ecx, DWORD PTR [edi+28]
  00130	83 f9 02	 cmp	 ecx, 2
  00133	7c 55		 jl	 SHORT $LN10@SetMaintai
  00135	8b 47 18	 mov	 eax, DWORD PTR [edi+24]
  00138	39 58 08	 cmp	 DWORD PTR [eax+8], ebx
  0013b	75 4d		 jne	 SHORT $LN10@SetMaintai

; 1049 : 		{
; 1050 : 			// Block   2    Scale  .
; 1051 : 			CBlockImp* pPrevEndBlock = GetBlock(m_BlockList.GetCount() - 2);

  0013d	8d 41 fe	 lea	 eax, DWORD PTR [ecx-2]
  00140	8b cf		 mov	 ecx, edi
  00142	50		 push	 eax
  00143	e8 00 00 00 00	 call	 ?GetBlock@CBlocksColumn@@QBEPAVCBlockImp@@H@Z ; CBlocksColumn::GetBlock

; 1052 : 			if( pPrevEndBlock)

  00148	85 c0		 test	 eax, eax
  0014a	74 3e		 je	 SHORT $LN10@SetMaintai

; 1053 : 			{
; 1054 : 				// (2009/9/6 - Seung-Won, Bae) Do not support CHorizontalScale::SetHorzScalePosition() as public.
; 1055 : 				//		To rearrange the row positions. Use CMainBlockImp::SetHorzScalePosition().
; 1056 : 				m_pMain->SetHorzScalePosition( pPrevEndBlock->GetBlockData().GetHorzScale(), CScaleBaseData::HORZ_HIDE);

  0014c	8b 4f 04	 mov	 ecx, DWORD PTR [edi+4]
  0014f	6a 03		 push	 3
  00151	8b 31		 mov	 esi, DWORD PTR [ecx]
  00153	8b c8		 mov	 ecx, eax
  00155	e8 00 00 00 00	 call	 ?GetBlockData@CBlockImp@@QAEAAVCBlockData@@XZ ; CBlockImp::GetBlockData
  0015a	8b c8		 mov	 ecx, eax
  0015c	e8 00 00 00 00	 call	 ?GetHorzScale@CBlockData@@QAEAAVCHorizontalScale@@XZ ; CBlockData::GetHorzScale
  00161	8b 4f 04	 mov	 ecx, DWORD PTR [edi+4]
  00164	50		 push	 eax
  00165	ff 96 d8 00 00
	00		 call	 DWORD PTR [esi+216]

; 1057 : 				m_pMain->SetHorzScalePosition( pBlock->GetBlockData().GetHorzScale(), CScaleBaseData::HORZ_BOTTOM);

  0016b	8b 47 04	 mov	 eax, DWORD PTR [edi+4]
  0016e	8b cb		 mov	 ecx, ebx
  00170	6a 01		 push	 1
  00172	8b 30		 mov	 esi, DWORD PTR [eax]
  00174	e8 00 00 00 00	 call	 ?GetBlockData@CBlockImp@@QAEAAVCBlockData@@XZ ; CBlockImp::GetBlockData
  00179	8b c8		 mov	 ecx, eax
  0017b	e8 00 00 00 00	 call	 ?GetHorzScale@CBlockData@@QAEAAVCHorizontalScale@@XZ ; CBlockData::GetHorzScale
  00180	8b 4f 04	 mov	 ecx, DWORD PTR [edi+4]
  00183	50		 push	 eax
  00184	ff 96 d8 00 00
	00		 call	 DWORD PTR [esi+216]
$LN10@SetMaintai:

; 1058 : 			}
; 1059 : 		}
; 1060 : 	}
; 1061 : 
; 1062 : 
; 1063 : 	//  scale  .
; 1064 : 	CVerticalScale vertScale;

  0018a	8d 4d 98	 lea	 ecx, DWORD PTR _vertScale$[ebp]
  0018d	ff 15 00 00 00
	00		 call	 DWORD PTR __imp_??0CVerticalScale@@QAE@XZ

; 1065 : 	if( pBaseBlock)

  00193	8b 4d f0	 mov	 ecx, DWORD PTR _pBaseBlock$2$[ebp]
  00196	c6 45 fc 02	 mov	 BYTE PTR __$EHRec$[ebp+8], 2
  0019a	85 c9		 test	 ecx, ecx
  0019c	74 23		 je	 SHORT $LN12@SetMaintai

; 1066 : 	{
; 1067 : 		CVertScaleGroup *pVertScaleGroup = pBaseBlock->GetVertScaleGroupList().GetVertScaleGroup( 0);

  0019e	6a 00		 push	 0
  001a0	e8 00 00 00 00	 call	 ?GetVertScaleGroupList@CBlockImp@@QAEAAVCVertScaleGroupList@@XZ ; CBlockImp::GetVertScaleGroupList
  001a5	8b c8		 mov	 ecx, eax
  001a7	e8 00 00 00 00	 call	 ?GetVertScaleGroup@CVertScaleGroupList@@QBEPAVCVertScaleGroup@@H@Z ; CVertScaleGroupList::GetVertScaleGroup

; 1068 : 		if( pVertScaleGroup) vertScale = pVertScaleGroup->GetVertScale();

  001ac	85 c0		 test	 eax, eax
  001ae	74 11		 je	 SHORT $LN12@SetMaintai
  001b0	8b c8		 mov	 ecx, eax
  001b2	e8 00 00 00 00	 call	 ?GetVertScale@CVertScaleGroup@@QAEAAVCVerticalScale@@XZ ; CVertScaleGroup::GetVertScale
  001b7	50		 push	 eax
  001b8	8d 4d 98	 lea	 ecx, DWORD PTR _vertScale$[ebp]
  001bb	ff 15 00 00 00
	00		 call	 DWORD PTR __imp_??4CVerticalScale@@QAEAAV0@ABV0@@Z
$LN12@SetMaintai:

; 1072 : 	if(vertScale.GetScaleData().IsEmpty())	vertScale.SetData( _MTEXT( C6_INDICATOR_DATA));

  001c1	8d 45 08	 lea	 eax, DWORD PTR $T3[ebp]
  001c4	50		 push	 eax
  001c5	8d 4d 98	 lea	 ecx, DWORD PTR _vertScale$[ebp]
  001c8	ff 15 00 00 00
	00		 call	 DWORD PTR __imp_?GetScaleData@CScale@@QBE?AV?$CStringT@DV?$StrTraitMFC_DLL@DV?$ChTraitsCRT@D@ATL@@@@@ATL@@XZ
  001ce	8d 4d 08	 lea	 ecx, DWORD PTR $T3[ebp]
; File C:\Program Files (x86)\Microsoft Visual Studio\2019\Community\VC\Tools\MSVC\14.29.30133\atlmfc\include\atlsimpstr.h

; 519  : 		return( GetData()->nDataLength );

  001d1	8b 00		 mov	 eax, DWORD PTR [eax]
  001d3	8b 70 f4	 mov	 esi, DWORD PTR [eax-12]
; File D:\git\src\IBK\IBK_DRFN\ProjSrc\SrcChartEx\ChartOCX\ChartObject\BlocksColumn.cpp

; 1072 : 	if(vertScale.GetScaleData().IsEmpty())	vertScale.SetData( _MTEXT( C6_INDICATOR_DATA));

  001d6	ff 15 00 00 00
	00		 call	 DWORD PTR __imp_??1?$CStringT@DV?$StrTraitMFC_DLL@DV?$ChTraitsCRT@D@ATL@@@@@ATL@@QAE@XZ
  001dc	85 f6		 test	 esi, esi
  001de	75 32		 jne	 SHORT $LN13@SetMaintai
  001e0	a1 54 00 00 00	 mov	 eax, DWORD PTR ?g_iMetaTable@@3VIMetaTable@@A+84
  001e5	8d 4d 08	 lea	 ecx, DWORD PTR $T2[ebp]
  001e8	ff b0 7c 09 00
	00		 push	 DWORD PTR [eax+2428]
  001ee	ff 15 00 00 00
	00		 call	 DWORD PTR __imp_??0?$CStringT@DV?$StrTraitMFC_DLL@DV?$ChTraitsCRT@D@ATL@@@@@ATL@@QAE@PBD@Z
  001f4	8d 45 08	 lea	 eax, DWORD PTR $T2[ebp]
  001f7	c6 45 fc 03	 mov	 BYTE PTR __$EHRec$[ebp+8], 3
  001fb	50		 push	 eax
  001fc	8d 4d 98	 lea	 ecx, DWORD PTR _vertScale$[ebp]
  001ff	ff 15 00 00 00
	00		 call	 DWORD PTR __imp_?SetData@CScale@@QAEXABV?$CStringT@DV?$StrTraitMFC_DLL@DV?$ChTraitsCRT@D@ATL@@@@@ATL@@@Z
  00205	8d 4d 08	 lea	 ecx, DWORD PTR $T2[ebp]
  00208	c6 45 fc 02	 mov	 BYTE PTR __$EHRec$[ebp+8], 2
  0020c	ff 15 00 00 00
	00		 call	 DWORD PTR __imp_??1?$CStringT@DV?$StrTraitMFC_DLL@DV?$ChTraitsCRT@D@ATL@@@@@ATL@@QAE@XZ
$LN13@SetMaintai:

; 1073 : 
; 1074 : 	// scale position -> <VERT_RIGHT>
; 1075 : 	if(m_BlockList.GetCount() <= 1)			vertScale.SetVertScalePosition(CScaleBaseData::VERT_RIGHT);

  00212	83 7f 1c 01	 cmp	 DWORD PTR [edi+28], 1
  00216	7f 0b		 jg	 SHORT $LN14@SetMaintai
  00218	6a 01		 push	 1
  0021a	8d 4d 98	 lea	 ecx, DWORD PTR _vertScale$[ebp]
  0021d	ff 15 00 00 00
	00		 call	 DWORD PTR __imp_?SetVertScalePosition@CVerticalScale@@QAEXW4VERTSCALEPOSITION@CScaleBaseData@@@Z
$LN14@SetMaintai:

; 1081 : 	if( pBlock->GetVertScaleGroupList().GetCount() <= 0) pBlock->GetVertScaleGroupList().MakeVertScaleGroups_Empty();

  00223	8b cb		 mov	 ecx, ebx
; File D:\git\src\IBK\IBK_DRFN\ProjSrc\SrcChartEx\ChartOCX\Include_Chart\ScaleBaseData.h

; 205  : 	void							SetVertScaleMinMaxType( CScaleBaseData::VERTMINMAXTYPE p_eMinMaxType) 	{	m_eMinMaxType = p_eMinMaxType;	}

  00225	c7 45 b0 00 00
	00 00		 mov	 DWORD PTR _vertScale$[ebp+24], 0

; 202  : 	void							SetVertScaleMinMaxLock( BOOL p_bMinMaxLock)								{	m_bMinMaxLock = p_bMinMaxLock;	}

  0022c	c7 45 ac 00 00
	00 00		 mov	 DWORD PTR _vertScale$[ebp+20], 0
; File D:\git\src\IBK\IBK_DRFN\ProjSrc\SrcChartEx\ChartOCX\ChartObject\BlocksColumn.cpp

; 1081 : 	if( pBlock->GetVertScaleGroupList().GetCount() <= 0) pBlock->GetVertScaleGroupList().MakeVertScaleGroups_Empty();

  00233	e8 00 00 00 00	 call	 ?GetVertScaleGroupList@CBlockImp@@QAEAAVCVertScaleGroupList@@XZ ; CBlockImp::GetVertScaleGroupList
  00238	8b c8		 mov	 ecx, eax
  0023a	e8 00 00 00 00	 call	 ?GetCount@CVertScaleGroupList@@QBEHXZ ; CVertScaleGroupList::GetCount
  0023f	85 c0		 test	 eax, eax
  00241	7f 10		 jg	 SHORT $LN15@SetMaintai
  00243	6a 01		 push	 1
  00245	8b cb		 mov	 ecx, ebx
  00247	e8 00 00 00 00	 call	 ?GetVertScaleGroupList@CBlockImp@@QAEAAVCVertScaleGroupList@@XZ ; CBlockImp::GetVertScaleGroupList
  0024c	8b c8		 mov	 ecx, eax
  0024e	e8 00 00 00 00	 call	 ?MakeVertScaleGroups_Empty@CVertScaleGroupList@@QAE_NH@Z ; CVertScaleGroupList::MakeVertScaleGroups_Empty
$LN15@SetMaintai:

; 1082 : 	CVertScaleGroup* pVertScaleGroup = pBlock->GetVertScaleGroupList().GetVertScaleGroup( 0);

  00253	6a 00		 push	 0
  00255	8b cb		 mov	 ecx, ebx
  00257	e8 00 00 00 00	 call	 ?GetVertScaleGroupList@CBlockImp@@QAEAAVCVertScaleGroupList@@XZ ; CBlockImp::GetVertScaleGroupList
  0025c	8b c8		 mov	 ecx, eax
  0025e	e8 00 00 00 00	 call	 ?GetVertScaleGroup@CVertScaleGroupList@@QBEPAVCVertScaleGroup@@H@Z ; CVertScaleGroupList::GetVertScaleGroup

; 1083 : 	if( pVertScaleGroup) pVertScaleGroup->SetVerticalScale(vertScale);

  00263	85 c0		 test	 eax, eax
  00265	74 0b		 je	 SHORT $LN16@SetMaintai
  00267	8d 4d 98	 lea	 ecx, DWORD PTR _vertScale$[ebp]
  0026a	51		 push	 ecx
  0026b	8b c8		 mov	 ecx, eax
  0026d	e8 00 00 00 00	 call	 ?SetVerticalScale@CVertScaleGroup@@QAEXABVCVerticalScale@@@Z ; CVertScaleGroup::SetVerticalScale
$LN16@SetMaintai:

; 1084 : }

  00272	8d 4d 98	 lea	 ecx, DWORD PTR _vertScale$[ebp]
  00275	ff 15 00 00 00
	00		 call	 DWORD PTR __imp_??1CVerticalScale@@QAE@XZ
  0027b	8d 8d 34 ff ff
	ff		 lea	 ecx, DWORD PTR _horzScale$[ebp]
  00281	ff 15 00 00 00
	00		 call	 DWORD PTR __imp_??1CHorizontalScale@@QAE@XZ
$LN1@SetMaintai:
  00287	8b 4d f4	 mov	 ecx, DWORD PTR __$EHRec$[ebp]
  0028a	64 89 0d 00 00
	00 00		 mov	 DWORD PTR fs:0, ecx
  00291	59		 pop	 ecx
  00292	5f		 pop	 edi
  00293	5e		 pop	 esi
  00294	5b		 pop	 ebx
  00295	8b e5		 mov	 esp, ebp
  00297	5d		 pop	 ebp
  00298	c2 04 00	 ret	 4
_TEXT	ENDS
;	COMDAT text$x
text$x	SEGMENT
__unwindfunclet$?SetMaintainOldScale@CBlocksColumn@@QAEXPAVCBlockImp@@@Z$0:
  00000	8d 8d 34 ff ff
	ff		 lea	 ecx, DWORD PTR _horzScale$[ebp]
  00006	ff 25 00 00 00
	00		 jmp	 DWORD PTR __imp_??1CHorizontalScale@@QAE@XZ
__unwindfunclet$?SetMaintainOldScale@CBlocksColumn@@QAEXPAVCBlockImp@@@Z$2:
  0000c	8d 4d 08	 lea	 ecx, DWORD PTR $T4[ebp]
  0000f	ff 25 00 00 00
	00		 jmp	 DWORD PTR __imp_??1?$CStringT@DV?$StrTraitMFC_DLL@DV?$ChTraitsCRT@D@ATL@@@@@ATL@@QAE@XZ
__unwindfunclet$?SetMaintainOldScale@CBlocksColumn@@QAEXPAVCBlockImp@@@Z$3:
  00015	8d 4d 98	 lea	 ecx, DWORD PTR _vertScale$[ebp]
  00018	ff 25 00 00 00
	00		 jmp	 DWORD PTR __imp_??1CVerticalScale@@QAE@XZ
__unwindfunclet$?SetMaintainOldScale@CBlocksColumn@@QAEXPAVCBlockImp@@@Z$5:
  0001e	8d 4d 08	 lea	 ecx, DWORD PTR $T2[ebp]
  00021	ff 25 00 00 00
	00		 jmp	 DWORD PTR __imp_??1?$CStringT@DV?$StrTraitMFC_DLL@DV?$ChTraitsCRT@D@ATL@@@@@ATL@@QAE@XZ
  00027	cc		 int	 3
  00028	cc		 int	 3
  00029	cc		 int	 3
  0002a	cc		 int	 3
  0002b	cc		 int	 3
__ehhandler$?SetMaintainOldScale@CBlocksColumn@@QAEXPAVCBlockImp@@@Z:
  0002c	90		 npad	 1
  0002d	90		 npad	 1
  0002e	8b 54 24 08	 mov	 edx, DWORD PTR [esp+8]
  00032	8d 42 0c	 lea	 eax, DWORD PTR [edx+12]
  00035	8b 8a f0 fe ff
	ff		 mov	 ecx, DWORD PTR [edx-272]
  0003b	33 c8		 xor	 ecx, eax
  0003d	e8 00 00 00 00	 call	 @__security_check_cookie@4
  00042	b8 00 00 00 00	 mov	 eax, OFFSET __ehfuncinfo$?SetMaintainOldScale@CBlocksColumn@@QAEXPAVCBlockImp@@@Z
  00047	e9 00 00 00 00	 jmp	 ___CxxFrameHandler3
text$x	ENDS
?SetMaintainOldScale@CBlocksColumn@@QAEXPAVCBlockImp@@@Z ENDP ; CBlocksColumn::SetMaintainOldScale
; Function compile flags: /Ogtp
; File D:\git\src\IBK\IBK_DRFN\ProjSrc\SrcChartEx\ChartOCX\ChartObject\BlocksColumn.cpp
; File C:\Program Files (x86)\Microsoft Visual Studio\2019\Community\VC\Tools\MSVC\14.29.30133\atlmfc\include\afxcoll.inl
; File D:\git\src\IBK\IBK_DRFN\ProjSrc\SrcChartEx\ChartOCX\ChartObject\BlocksColumn.cpp
;	COMDAT ?SetAllVertScaleLogType@CBlocksColumn@@QAE_N_N@Z
_TEXT	SEGMENT
_bIsLogType$ = 8					; size = 1
?SetAllVertScaleLogType@CBlocksColumn@@QAE_N_N@Z PROC	; CBlocksColumn::SetAllVertScaleLogType, COMDAT
; _this$ = ecx

; 997  : {

  00000	55		 push	 ebp
  00001	8b ec		 mov	 ebp, esp

; 998  : 	if(m_BlockList.GetCount() <= 0)

  00003	83 79 1c 00	 cmp	 DWORD PTR [ecx+28], 0
  00007	7f 06		 jg	 SHORT $LN4@SetAllVert

; 999  : 		return false;

  00009	32 c0		 xor	 al, al

; 1009 : }

  0000b	5d		 pop	 ebp
  0000c	c2 04 00	 ret	 4
$LN4@SetAllVert:
  0000f	56		 push	 esi

; 1000 : 
; 1001 : 	POSITION pos = m_BlockList.GetHeadPosition();

  00010	8b 71 14	 mov	 esi, DWORD PTR [ecx+20]

; 1002 : 	while(pos != NULL)

  00013	85 f6		 test	 esi, esi
  00015	74 20		 je	 SHORT $LN3@SetAllVert
  00017	57		 push	 edi
  00018	8b 7d 08	 mov	 edi, DWORD PTR _bIsLogType$[ebp]
  0001b	0f 1f 44 00 00	 npad	 5
$LL2@SetAllVert:

; 1006 : 		pBlock->GetBlockData().SetVertScaleLogType(bIsLogType);

  00020	8b 4e 08	 mov	 ecx, DWORD PTR [esi+8]
; File C:\Program Files (x86)\Microsoft Visual Studio\2019\Community\VC\Tools\MSVC\14.29.30133\atlmfc\include\afxcoll.inl

; 432  : 		rPosition = (POSITION) pNode->pNext;

  00023	8b 36		 mov	 esi, DWORD PTR [esi]
; File D:\git\src\IBK\IBK_DRFN\ProjSrc\SrcChartEx\ChartOCX\ChartObject\BlocksColumn.cpp

; 1006 : 		pBlock->GetBlockData().SetVertScaleLogType(bIsLogType);

  00025	57		 push	 edi
  00026	e8 00 00 00 00	 call	 ?GetBlockData@CBlockImp@@QAEAAVCBlockData@@XZ ; CBlockImp::GetBlockData
  0002b	8b c8		 mov	 ecx, eax
  0002d	e8 00 00 00 00	 call	 ?SetVertScaleLogType@CBlockData@@QAEX_N@Z ; CBlockData::SetVertScaleLogType
  00032	85 f6		 test	 esi, esi
  00034	75 ea		 jne	 SHORT $LL2@SetAllVert
  00036	5f		 pop	 edi
$LN3@SetAllVert:

; 1007 : 	}
; 1008 : 	return true;

  00037	b0 01		 mov	 al, 1
  00039	5e		 pop	 esi

; 1009 : }

  0003a	5d		 pop	 ebp
  0003b	c2 04 00	 ret	 4
?SetAllVertScaleLogType@CBlocksColumn@@QAE_N_N@Z ENDP	; CBlocksColumn::SetAllVertScaleLogType
_TEXT	ENDS
; Function compile flags: /Ogtp
; File D:\git\src\IBK\IBK_DRFN\ProjSrc\SrcChartEx\ChartOCX\ChartObject\BlocksColumn.cpp
; File C:\Program Files (x86)\Microsoft Visual Studio\2019\Community\VC\Tools\MSVC\14.29.30133\atlmfc\include\afxcoll.inl
; File D:\git\src\IBK\IBK_DRFN\ProjSrc\SrcChartEx\ChartOCX\ChartObject\BlocksColumn.cpp
;	COMDAT ?SetAllVertScalePosition@CBlocksColumn@@QAEXW4VERTSCALEPOSITION@CScaleBaseData@@@Z
_TEXT	SEGMENT
_ePosition$ = 8						; size = 4
?SetAllVertScalePosition@CBlocksColumn@@QAEXW4VERTSCALEPOSITION@CScaleBaseData@@@Z PROC ; CBlocksColumn::SetAllVertScalePosition, COMDAT
; _this$ = ecx

; 986  : {

  00000	55		 push	 ebp
  00001	8b ec		 mov	 ebp, esp
  00003	56		 push	 esi

; 987  : 	POSITION pos = m_BlockList.GetHeadPosition();

  00004	8b 71 14	 mov	 esi, DWORD PTR [ecx+20]

; 988  : 	while(pos != NULL)

  00007	85 f6		 test	 esi, esi
  00009	74 1c		 je	 SHORT $LN3@SetAllVert
  0000b	57		 push	 edi
  0000c	8b 7d 08	 mov	 edi, DWORD PTR _ePosition$[ebp]
  0000f	90		 npad	 1
$LL2@SetAllVert:

; 992  : 		pBlock->GetVertScaleGroupList().SetAllVertScalePosition(ePosition);

  00010	8b 4e 08	 mov	 ecx, DWORD PTR [esi+8]
; File C:\Program Files (x86)\Microsoft Visual Studio\2019\Community\VC\Tools\MSVC\14.29.30133\atlmfc\include\afxcoll.inl

; 432  : 		rPosition = (POSITION) pNode->pNext;

  00013	8b 36		 mov	 esi, DWORD PTR [esi]
; File D:\git\src\IBK\IBK_DRFN\ProjSrc\SrcChartEx\ChartOCX\ChartObject\BlocksColumn.cpp

; 992  : 		pBlock->GetVertScaleGroupList().SetAllVertScalePosition(ePosition);

  00015	57		 push	 edi
  00016	e8 00 00 00 00	 call	 ?GetVertScaleGroupList@CBlockImp@@QAEAAVCVertScaleGroupList@@XZ ; CBlockImp::GetVertScaleGroupList
  0001b	8b c8		 mov	 ecx, eax
  0001d	e8 00 00 00 00	 call	 ?SetAllVertScalePosition@CVertScaleGroupList@@QAEXW4VERTSCALEPOSITION@CScaleBaseData@@@Z ; CVertScaleGroupList::SetAllVertScalePosition
  00022	85 f6		 test	 esi, esi
  00024	75 ea		 jne	 SHORT $LL2@SetAllVert
  00026	5f		 pop	 edi
$LN3@SetAllVert:
  00027	5e		 pop	 esi

; 993  : 	}
; 994  : }

  00028	5d		 pop	 ebp
  00029	c2 04 00	 ret	 4
?SetAllVertScalePosition@CBlocksColumn@@QAEXW4VERTSCALEPOSITION@CScaleBaseData@@@Z ENDP ; CBlocksColumn::SetAllVertScalePosition
_TEXT	ENDS
; Function compile flags: /Ogtp
; File D:\git\src\IBK\IBK_DRFN\ProjSrc\SrcChartEx\ChartOCX\ChartObject\BlocksColumn.cpp
; File C:\Program Files (x86)\Microsoft Visual Studio\2019\Community\VC\Tools\MSVC\14.29.30133\atlmfc\include\afxcoll.inl
; File D:\git\src\IBK\IBK_DRFN\ProjSrc\SrcChartEx\ChartOCX\ChartObject\BlocksColumn.cpp
;	COMDAT ?SetAllVertScaleGridType@CBlocksColumn@@QAEXW4SCALEGRIDTYPE@CScaleBaseData@@@Z
_TEXT	SEGMENT
_eGridType$ = 8						; size = 4
?SetAllVertScaleGridType@CBlocksColumn@@QAEXW4SCALEGRIDTYPE@CScaleBaseData@@@Z PROC ; CBlocksColumn::SetAllVertScaleGridType, COMDAT
; _this$ = ecx

; 975  : {

  00000	55		 push	 ebp
  00001	8b ec		 mov	 ebp, esp
  00003	56		 push	 esi

; 976  : 	POSITION pos = m_BlockList.GetHeadPosition();

  00004	8b 71 14	 mov	 esi, DWORD PTR [ecx+20]

; 977  : 	while(pos != NULL)

  00007	85 f6		 test	 esi, esi
  00009	74 1c		 je	 SHORT $LN3@SetAllVert
  0000b	57		 push	 edi
  0000c	8b 7d 08	 mov	 edi, DWORD PTR _eGridType$[ebp]
  0000f	90		 npad	 1
$LL2@SetAllVert:

; 981  : 		pBlock->GetVertScaleGroupList().SetScaleGridType(eGridType);

  00010	8b 4e 08	 mov	 ecx, DWORD PTR [esi+8]
; File C:\Program Files (x86)\Microsoft Visual Studio\2019\Community\VC\Tools\MSVC\14.29.30133\atlmfc\include\afxcoll.inl

; 432  : 		rPosition = (POSITION) pNode->pNext;

  00013	8b 36		 mov	 esi, DWORD PTR [esi]
; File D:\git\src\IBK\IBK_DRFN\ProjSrc\SrcChartEx\ChartOCX\ChartObject\BlocksColumn.cpp

; 981  : 		pBlock->GetVertScaleGroupList().SetScaleGridType(eGridType);

  00015	57		 push	 edi
  00016	e8 00 00 00 00	 call	 ?GetVertScaleGroupList@CBlockImp@@QAEAAVCVertScaleGroupList@@XZ ; CBlockImp::GetVertScaleGroupList
  0001b	8b c8		 mov	 ecx, eax
  0001d	e8 00 00 00 00	 call	 ?SetScaleGridType@CVertScaleGroupList@@QAEXW4SCALEGRIDTYPE@CScaleBaseData@@@Z ; CVertScaleGroupList::SetScaleGridType
  00022	85 f6		 test	 esi, esi
  00024	75 ea		 jne	 SHORT $LL2@SetAllVert
  00026	5f		 pop	 edi
$LN3@SetAllVert:
  00027	5e		 pop	 esi

; 982  : 	}
; 983  : }

  00028	5d		 pop	 ebp
  00029	c2 04 00	 ret	 4
?SetAllVertScaleGridType@CBlocksColumn@@QAEXW4SCALEGRIDTYPE@CScaleBaseData@@@Z ENDP ; CBlocksColumn::SetAllVertScaleGridType
_TEXT	ENDS
; Function compile flags: /Ogtp
; File D:\git\src\IBK\IBK_DRFN\ProjSrc\SrcChartEx\ChartOCX\ChartObject\BlocksColumn.cpp
; File C:\Program Files (x86)\Microsoft Visual Studio\2019\Community\VC\Tools\MSVC\14.29.30133\atlmfc\include\afxwin1.inl
; File D:\git\src\IBK\IBK_DRFN\ProjSrc\SrcChartEx\ChartOCX\Include_Chart\Dll_Load\IMetaTable.h
; File C:\Program Files (x86)\Microsoft Visual Studio\2019\Community\VC\Tools\MSVC\14.29.30133\atlmfc\include\afxwin1.inl
; File D:\git\src\IBK\IBK_DRFN\ProjSrc\SrcChartEx\ChartOCX\ChartObject\BlocksColumn.cpp
; File C:\Program Files (x86)\Microsoft Visual Studio\2019\Community\VC\Tools\MSVC\14.29.30133\atlmfc\include\afxtempl.h
; File C:\Program Files (x86)\Microsoft Visual Studio\2019\Community\VC\Tools\MSVC\14.29.30133\atlmfc\include\afxcoll.inl
; File D:\git\src\IBK\IBK_DRFN\ProjSrc\SrcChartEx\ChartOCX\ChartObject\BlocksColumn.cpp
; File D:\git\src\IBK\IBK_DRFN\ProjSrc\SrcChartEx\ChartOCX\Include_Chart\Dll_Load\IMetaTable.h
; File C:\Program Files (x86)\Microsoft Visual Studio\2019\Community\VC\Tools\MSVC\14.29.30133\atlmfc\include\afxwin1.inl
; File D:\git\src\IBK\IBK_DRFN\ProjSrc\SrcChartEx\ChartOCX\ChartObject\BlocksColumn.cpp
;	COMDAT ?GetHorzScalePtrDataList@CBlocksColumn@@QBEXPBVCBlockImp@@AAVCHorizontalScalePtrDataList@@@Z
_TEXT	SEGMENT
___mlrs__$ = -36					; size = 4
___mlrs__$1$ = -32					; size = 4
_pos$1$ = -28						; size = 4
tv263 = -24						; size = 4
_strFormat$ = -20					; size = 4
_strTitle$2 = -16					; size = 4
__$EHRec$ = -12						; size = 12
_pCurrentBlock$ = 8					; size = 4
_horzScalePtrDataList$ = 12				; size = 4
?GetHorzScalePtrDataList@CBlocksColumn@@QBEXPBVCBlockImp@@AAVCHorizontalScalePtrDataList@@@Z PROC ; CBlocksColumn::GetHorzScalePtrDataList, COMDAT
; _this$ = ecx

; 950  : {

  00000	55		 push	 ebp
  00001	8b ec		 mov	 ebp, esp
  00003	6a ff		 push	 -1
  00005	68 00 00 00 00	 push	 __ehhandler$?GetHorzScalePtrDataList@CBlocksColumn@@QBEXPBVCBlockImp@@AAVCHorizontalScalePtrDataList@@@Z
  0000a	64 a1 00 00 00
	00		 mov	 eax, DWORD PTR fs:0
  00010	50		 push	 eax
  00011	83 ec 1c	 sub	 esp, 28			; 0000001cH
  00014	53		 push	 ebx
  00015	56		 push	 esi
  00016	57		 push	 edi
  00017	a1 00 00 00 00	 mov	 eax, DWORD PTR ___security_cookie
  0001c	33 c5		 xor	 eax, ebp
  0001e	50		 push	 eax
  0001f	8d 45 f4	 lea	 eax, DWORD PTR __$EHRec$[ebp]
  00022	64 a3 00 00 00
	00		 mov	 DWORD PTR fs:0, eax
  00028	8b d9		 mov	 ebx, ecx

; 951  : 	if(m_BlockList.GetCount() >= 0)

  0002a	83 7b 1c 00	 cmp	 DWORD PTR [ebx+28], 0
  0002e	7c 0a		 jl	 SHORT $LN4@GetHorzSca

; 952  : 		horzScalePtrDataList.SetFirstIndex(0);

  00030	8b 4d 0c	 mov	 ecx, DWORD PTR _horzScalePtrDataList$[ebp]
  00033	6a 00		 push	 0
  00035	e8 00 00 00 00	 call	 ?SetFirstIndex@CHorizontalScalePtrDataList@@QAEXH@Z ; CHorizontalScalePtrDataList::SetFirstIndex
$LN4@GetHorzSca:

; 953  : 
; 954  : 	ML_SET_LANGUAGE_RES();

  0003a	e8 00 00 00 00	 call	 ?AfxGetStaticModuleState@@YGPAVAFX_MODULE_STATE@@XZ ; AfxGetStaticModuleState
  0003f	b9 00 00 00 00	 mov	 ecx, OFFSET ?g_iMetaTable@@3VIMetaTable@@A ; g_iMetaTable
  00044	8b 40 08	 mov	 eax, DWORD PTR [eax+8]
  00047	50		 push	 eax
  00048	ff 73 2c	 push	 DWORD PTR [ebx+44]
  0004b	e8 00 00 00 00	 call	 ?LoadResourceDLL@IMetaTable@@QAEPAUHINSTANCE__@@PAUHWND__@@PAU2@@Z ; IMetaTable::LoadResourceDLL
  00050	8b f8		 mov	 edi, eax
; File C:\Program Files (x86)\Microsoft Visual Studio\2019\Community\VC\Tools\MSVC\14.29.30133\atlmfc\include\afxwin1.inl

; 25   : 		return afxCurrentResourceHandle; }

  00052	e8 00 00 00 00	 call	 ?AfxGetModuleState@@YGPAVAFX_MODULE_STATE@@XZ ; AfxGetModuleState
; File D:\git\src\IBK\IBK_DRFN\ProjSrc\SrcChartEx\ChartOCX\Include_Chart\Dll_Load\IMetaTable.h

; 1032 : 		m_hInstance = AfxGetResourceHandle();

  00057	8b 70 0c	 mov	 esi, DWORD PTR [eax+12]
  0005a	89 75 e0	 mov	 DWORD PTR ___mlrs__$1$[ebp], esi
  0005d	89 75 dc	 mov	 DWORD PTR ___mlrs__$[ebp], esi
; File C:\Program Files (x86)\Microsoft Visual Studio\2019\Community\VC\Tools\MSVC\14.29.30133\atlmfc\include\afxwin1.inl

; 27   : 	{ ASSERT(hInstResource != NULL); afxCurrentResourceHandle = hInstResource; }

  00060	e8 00 00 00 00	 call	 ?AfxGetModuleState@@YGPAVAFX_MODULE_STATE@@XZ ; AfxGetModuleState
  00065	89 78 0c	 mov	 DWORD PTR [eax+12], edi
; File D:\git\src\IBK\IBK_DRFN\ProjSrc\SrcChartEx\ChartOCX\ChartObject\BlocksColumn.cpp

; 955  : 	CString strFormat;

  00068	8d 4d ec	 lea	 ecx, DWORD PTR _strFormat$[ebp]
  0006b	c7 45 fc 00 00
	00 00		 mov	 DWORD PTR __$EHRec$[ebp+8], 0
  00072	ff 15 00 00 00
	00		 call	 DWORD PTR __imp_??0?$CStringT@DV?$StrTraitMFC_DLL@DV?$ChTraitsCRT@D@ATL@@@@@ATL@@QAE@XZ

; 956  : 	strFormat.LoadString( IDS_FORMAT_BLOCK_SCALE);

  00078	6a 06		 push	 6
  0007a	8d 4d ec	 lea	 ecx, DWORD PTR _strFormat$[ebp]
  0007d	c6 45 fc 01	 mov	 BYTE PTR __$EHRec$[ebp+8], 1
  00081	ff 15 00 00 00
	00		 call	 DWORD PTR __imp_?LoadStringA@?$CStringT@DV?$StrTraitMFC_DLL@DV?$ChTraitsCRT@D@ATL@@@@@ATL@@QAEHI@Z

; 957  : 
; 958  : 	int nIndex = 0;
; 959  : 	POSITION pos = m_BlockList.GetHeadPosition();

  00087	8b 4b 14	 mov	 ecx, DWORD PTR [ebx+20]

; 960  : 	while(pos != NULL)

  0008a	85 c9		 test	 ecx, ecx
  0008c	74 77		 je	 SHORT $LN3@GetHorzSca
  0008e	33 f6		 xor	 esi, esi
$LL2@GetHorzSca:
; File C:\Program Files (x86)\Microsoft Visual Studio\2019\Community\VC\Tools\MSVC\14.29.30133\atlmfc\include\afxtempl.h

; 1898 : 		{ return (TYPE)BASE_CLASS::GetNext(rPosition); }

  00090	8b 59 08	 mov	 ebx, DWORD PTR [ecx+8]
; File C:\Program Files (x86)\Microsoft Visual Studio\2019\Community\VC\Tools\MSVC\14.29.30133\atlmfc\include\afxcoll.inl

; 439  : 		rPosition = (POSITION) pNode->pNext;

  00093	8b 09		 mov	 ecx, DWORD PTR [ecx]
  00095	89 4d e4	 mov	 DWORD PTR _pos$1$[ebp], ecx
; File D:\git\src\IBK\IBK_DRFN\ProjSrc\SrcChartEx\ChartOCX\ChartObject\BlocksColumn.cpp

; 965  : 		CString strTitle;

  00098	8d 4d f0	 lea	 ecx, DWORD PTR _strTitle$2[ebp]
  0009b	ff 15 00 00 00
	00		 call	 DWORD PTR __imp_??0?$CStringT@DV?$StrTraitMFC_DLL@DV?$ChTraitsCRT@D@ATL@@@@@ATL@@QAE@XZ

; 966  : 		strTitle.Format( strFormat, nIndex +1);

  000a1	8d 46 01	 lea	 eax, DWORD PTR [esi+1]
  000a4	c6 45 fc 02	 mov	 BYTE PTR __$EHRec$[ebp+8], 2
  000a8	50		 push	 eax
  000a9	ff 75 ec	 push	 DWORD PTR _strFormat$[ebp]
  000ac	89 45 e8	 mov	 DWORD PTR tv263[ebp], eax
  000af	8d 45 f0	 lea	 eax, DWORD PTR _strTitle$2[ebp]
  000b2	50		 push	 eax
  000b3	ff 15 00 00 00
	00		 call	 DWORD PTR __imp_?Format@?$CStringT@DV?$StrTraitMFC_DLL@DV?$ChTraitsCRT@D@ATL@@@@@ATL@@QAAXPBDZZ

; 967  : 		horzScalePtrDataList.AddTail(CHorizontalScalePtrData(&pBlock->GetBlockData().GetHorzScale(), strTitle));

  000b9	83 c4 04	 add	 esp, 4
  000bc	8d 45 f0	 lea	 eax, DWORD PTR _strTitle$2[ebp]
  000bf	8b fc		 mov	 edi, esp
  000c1	8b cb		 mov	 ecx, ebx
  000c3	50		 push	 eax
  000c4	e8 00 00 00 00	 call	 ?GetBlockData@CBlockImp@@QAEAAVCBlockData@@XZ ; CBlockImp::GetBlockData
  000c9	8b c8		 mov	 ecx, eax
  000cb	e8 00 00 00 00	 call	 ?GetHorzScale@CBlockData@@QAEAAVCHorizontalScale@@XZ ; CBlockData::GetHorzScale
  000d0	50		 push	 eax
  000d1	8b cf		 mov	 ecx, edi
  000d3	e8 00 00 00 00	 call	 ??0CHorizontalScalePtrData@@QAE@PAVCHorizontalScale@@ABV?$CStringT@DV?$StrTraitMFC_DLL@DV?$ChTraitsCRT@D@ATL@@@@@ATL@@@Z ; CHorizontalScalePtrData::CHorizontalScalePtrData
  000d8	8b 7d 0c	 mov	 edi, DWORD PTR _horzScalePtrDataList$[ebp]
  000db	8b cf		 mov	 ecx, edi
  000dd	e8 00 00 00 00	 call	 ?AddTail@CHorizontalScalePtrDataList@@QAEXVCHorizontalScalePtrData@@@Z ; CHorizontalScalePtrDataList::AddTail

; 968  : 		if(pBlock == pCurrentBlock)

  000e2	3b 5d 08	 cmp	 ebx, DWORD PTR _pCurrentBlock$[ebp]
  000e5	75 08		 jne	 SHORT $LN5@GetHorzSca

; 969  : 			horzScalePtrDataList.SetFirstIndex(nIndex);

  000e7	56		 push	 esi
  000e8	8b cf		 mov	 ecx, edi
  000ea	e8 00 00 00 00	 call	 ?SetFirstIndex@CHorizontalScalePtrDataList@@QAEXH@Z ; CHorizontalScalePtrDataList::SetFirstIndex
$LN5@GetHorzSca:

; 970  : 		nIndex++;

  000ef	8b 75 e8	 mov	 esi, DWORD PTR tv263[ebp]

; 971  : 	}

  000f2	8d 4d f0	 lea	 ecx, DWORD PTR _strTitle$2[ebp]
  000f5	ff 15 00 00 00
	00		 call	 DWORD PTR __imp_??1?$CStringT@DV?$StrTraitMFC_DLL@DV?$ChTraitsCRT@D@ATL@@@@@ATL@@QAE@XZ
  000fb	8b 4d e4	 mov	 ecx, DWORD PTR _pos$1$[ebp]
  000fe	85 c9		 test	 ecx, ecx
  00100	75 8e		 jne	 SHORT $LL2@GetHorzSca
  00102	8b 75 e0	 mov	 esi, DWORD PTR ___mlrs__$1$[ebp]
$LN3@GetHorzSca:

; 972  : }

  00105	8d 4d ec	 lea	 ecx, DWORD PTR _strFormat$[ebp]
  00108	ff 15 00 00 00
	00		 call	 DWORD PTR __imp_??1?$CStringT@DV?$StrTraitMFC_DLL@DV?$ChTraitsCRT@D@ATL@@@@@ATL@@QAE@XZ
; File D:\git\src\IBK\IBK_DRFN\ProjSrc\SrcChartEx\ChartOCX\Include_Chart\Dll_Load\IMetaTable.h

; 1036 : 	{

  0010e	c7 45 fc 03 00
	00 00		 mov	 DWORD PTR __$EHRec$[ebp+8], 3
; File C:\Program Files (x86)\Microsoft Visual Studio\2019\Community\VC\Tools\MSVC\14.29.30133\atlmfc\include\afxwin1.inl

; 27   : 	{ ASSERT(hInstResource != NULL); afxCurrentResourceHandle = hInstResource; }

  00115	e8 00 00 00 00	 call	 ?AfxGetModuleState@@YGPAVAFX_MODULE_STATE@@XZ ; AfxGetModuleState
  0011a	89 70 0c	 mov	 DWORD PTR [eax+12], esi
; File D:\git\src\IBK\IBK_DRFN\ProjSrc\SrcChartEx\ChartOCX\ChartObject\BlocksColumn.cpp

; 972  : }

  0011d	8b 4d f4	 mov	 ecx, DWORD PTR __$EHRec$[ebp]
  00120	64 89 0d 00 00
	00 00		 mov	 DWORD PTR fs:0, ecx
  00127	59		 pop	 ecx
  00128	5f		 pop	 edi
  00129	5e		 pop	 esi
  0012a	5b		 pop	 ebx
  0012b	8b e5		 mov	 esp, ebp
  0012d	5d		 pop	 ebp
  0012e	c2 08 00	 ret	 8
_TEXT	ENDS
;	COMDAT text$x
text$x	SEGMENT
__unwindfunclet$?GetHorzScalePtrDataList@CBlocksColumn@@QBEXPBVCBlockImp@@AAVCHorizontalScalePtrDataList@@@Z$0:
  00000	8d 4d dc	 lea	 ecx, DWORD PTR ___mlrs__$[ebp]
  00003	e9 00 00 00 00	 jmp	 ??1CMultiLanguageResourceSetter@@QAE@XZ ; CMultiLanguageResourceSetter::~CMultiLanguageResourceSetter
__unwindfunclet$?GetHorzScalePtrDataList@CBlocksColumn@@QBEXPBVCBlockImp@@AAVCHorizontalScalePtrDataList@@@Z$1:
  00008	8d 4d ec	 lea	 ecx, DWORD PTR _strFormat$[ebp]
  0000b	ff 25 00 00 00
	00		 jmp	 DWORD PTR __imp_??1?$CStringT@DV?$StrTraitMFC_DLL@DV?$ChTraitsCRT@D@ATL@@@@@ATL@@QAE@XZ
__unwindfunclet$?GetHorzScalePtrDataList@CBlocksColumn@@QBEXPBVCBlockImp@@AAVCHorizontalScalePtrDataList@@@Z$2:
  00011	8d 4d f0	 lea	 ecx, DWORD PTR _strTitle$2[ebp]
  00014	ff 25 00 00 00
	00		 jmp	 DWORD PTR __imp_??1?$CStringT@DV?$StrTraitMFC_DLL@DV?$ChTraitsCRT@D@ATL@@@@@ATL@@QAE@XZ
  0001a	cc		 int	 3
  0001b	cc		 int	 3
  0001c	cc		 int	 3
  0001d	cc		 int	 3
  0001e	cc		 int	 3
__ehhandler$?GetHorzScalePtrDataList@CBlocksColumn@@QBEXPBVCBlockImp@@AAVCHorizontalScalePtrDataList@@@Z:
  0001f	90		 npad	 1
  00020	90		 npad	 1
  00021	8b 54 24 08	 mov	 edx, DWORD PTR [esp+8]
  00025	8d 42 0c	 lea	 eax, DWORD PTR [edx+12]
  00028	8b 4a d4	 mov	 ecx, DWORD PTR [edx-44]
  0002b	33 c8		 xor	 ecx, eax
  0002d	e8 00 00 00 00	 call	 @__security_check_cookie@4
  00032	b8 00 00 00 00	 mov	 eax, OFFSET __ehfuncinfo$?GetHorzScalePtrDataList@CBlocksColumn@@QBEXPBVCBlockImp@@AAVCHorizontalScalePtrDataList@@@Z
  00037	e9 00 00 00 00	 jmp	 ___CxxFrameHandler3
text$x	ENDS
?GetHorzScalePtrDataList@CBlocksColumn@@QBEXPBVCBlockImp@@AAVCHorizontalScalePtrDataList@@@Z ENDP ; CBlocksColumn::GetHorzScalePtrDataList
; Function compile flags: /Ogtp
; File D:\git\src\IBK\IBK_DRFN\ProjSrc\SrcChartEx\ChartOCX\ChartObject\BlocksColumn.cpp
; File C:\Program Files (x86)\Microsoft Visual Studio\2019\Community\VC\Tools\MSVC\14.29.30133\atlmfc\include\afxcoll.inl
; File D:\git\src\IBK\IBK_DRFN\ProjSrc\SrcChartEx\ChartOCX\ChartObject\BlocksColumn.cpp
;	COMDAT ?SetAllHorzScalePosition@CBlocksColumn@@QAEXW4HORZSCALEPOSITION@CScaleBaseData@@@Z
_TEXT	SEGMENT
_ePosition$ = 8						; size = 4
?SetAllHorzScalePosition@CBlocksColumn@@QAEXW4HORZSCALEPOSITION@CScaleBaseData@@@Z PROC ; CBlocksColumn::SetAllHorzScalePosition, COMDAT
; _this$ = ecx

; 936  : {

  00000	55		 push	 ebp
  00001	8b ec		 mov	 ebp, esp
  00003	53		 push	 ebx
  00004	8b d9		 mov	 ebx, ecx
  00006	56		 push	 esi

; 937  : 	POSITION pos = m_BlockList.GetHeadPosition();

  00007	8b 73 14	 mov	 esi, DWORD PTR [ebx+20]

; 938  : 	while(pos != NULL)

  0000a	85 f6		 test	 esi, esi
  0000c	74 2a		 je	 SHORT $LN3@SetAllHorz
  0000e	57		 push	 edi
  0000f	90		 npad	 1
$LL2@SetAllHorz:

; 945  : 		m_pMain->SetHorzScalePosition( pBlock->GetBlockData().GetHorzScale(), ePosition);

  00010	8b 43 04	 mov	 eax, DWORD PTR [ebx+4]
  00013	8b 4e 08	 mov	 ecx, DWORD PTR [esi+8]
  00016	ff 75 08	 push	 DWORD PTR _ePosition$[ebp]
; File C:\Program Files (x86)\Microsoft Visual Studio\2019\Community\VC\Tools\MSVC\14.29.30133\atlmfc\include\afxcoll.inl

; 432  : 		rPosition = (POSITION) pNode->pNext;

  00019	8b 36		 mov	 esi, DWORD PTR [esi]
; File D:\git\src\IBK\IBK_DRFN\ProjSrc\SrcChartEx\ChartOCX\ChartObject\BlocksColumn.cpp

; 945  : 		m_pMain->SetHorzScalePosition( pBlock->GetBlockData().GetHorzScale(), ePosition);

  0001b	8b 38		 mov	 edi, DWORD PTR [eax]
  0001d	e8 00 00 00 00	 call	 ?GetBlockData@CBlockImp@@QAEAAVCBlockData@@XZ ; CBlockImp::GetBlockData
  00022	8b c8		 mov	 ecx, eax
  00024	e8 00 00 00 00	 call	 ?GetHorzScale@CBlockData@@QAEAAVCHorizontalScale@@XZ ; CBlockData::GetHorzScale
  00029	8b 4b 04	 mov	 ecx, DWORD PTR [ebx+4]
  0002c	50		 push	 eax
  0002d	ff 97 d8 00 00
	00		 call	 DWORD PTR [edi+216]
  00033	85 f6		 test	 esi, esi
  00035	75 d9		 jne	 SHORT $LL2@SetAllHorz
  00037	5f		 pop	 edi
$LN3@SetAllHorz:
  00038	5e		 pop	 esi

; 946  : 	}
; 947  : }

  00039	5b		 pop	 ebx
  0003a	5d		 pop	 ebp
  0003b	c2 04 00	 ret	 4
?SetAllHorzScalePosition@CBlocksColumn@@QAEXW4HORZSCALEPOSITION@CScaleBaseData@@@Z ENDP ; CBlocksColumn::SetAllHorzScalePosition
_TEXT	ENDS
; Function compile flags: /Ogtp
; File D:\git\src\IBK\IBK_DRFN\ProjSrc\SrcChartEx\ChartOCX\ChartObject\BlocksColumn.cpp
; File C:\Program Files (x86)\Microsoft Visual Studio\2019\Community\VC\Tools\MSVC\14.29.30133\atlmfc\include\afxcoll.inl
; File D:\git\src\IBK\IBK_DRFN\ProjSrc\SrcChartEx\ChartOCX\ChartObject\BlocksColumn.cpp
;	COMDAT ?SetAllHorzScaleGridType@CBlocksColumn@@QAEXW4SCALEGRIDTYPE@CScaleBaseData@@@Z
_TEXT	SEGMENT
_eGridType$ = 8						; size = 4
?SetAllHorzScaleGridType@CBlocksColumn@@QAEXW4SCALEGRIDTYPE@CScaleBaseData@@@Z PROC ; CBlocksColumn::SetAllHorzScaleGridType, COMDAT
; _this$ = ecx

; 925  : {

  00000	55		 push	 ebp
  00001	8b ec		 mov	 ebp, esp
  00003	56		 push	 esi

; 926  : 	POSITION pos = m_BlockList.GetHeadPosition();

  00004	8b 71 14	 mov	 esi, DWORD PTR [ecx+20]

; 927  : 	while(pos != NULL)

  00007	85 f6		 test	 esi, esi
  00009	74 27		 je	 SHORT $LN3@SetAllHorz
  0000b	53		 push	 ebx
  0000c	8b 1d 00 00 00
	00		 mov	 ebx, DWORD PTR __imp_?SetGridType@CScale@@QAEXW4SCALEGRIDTYPE@CScaleBaseData@@@Z
  00012	57		 push	 edi
  00013	8b 7d 08	 mov	 edi, DWORD PTR _eGridType$[ebp]
$LL2@SetAllHorz:

; 931  : 		pBlock->GetBlockData().GetHorzScale().SetGridType(eGridType);

  00016	8b 4e 08	 mov	 ecx, DWORD PTR [esi+8]
; File C:\Program Files (x86)\Microsoft Visual Studio\2019\Community\VC\Tools\MSVC\14.29.30133\atlmfc\include\afxcoll.inl

; 432  : 		rPosition = (POSITION) pNode->pNext;

  00019	8b 36		 mov	 esi, DWORD PTR [esi]
; File D:\git\src\IBK\IBK_DRFN\ProjSrc\SrcChartEx\ChartOCX\ChartObject\BlocksColumn.cpp

; 931  : 		pBlock->GetBlockData().GetHorzScale().SetGridType(eGridType);

  0001b	57		 push	 edi
  0001c	e8 00 00 00 00	 call	 ?GetBlockData@CBlockImp@@QAEAAVCBlockData@@XZ ; CBlockImp::GetBlockData
  00021	8b c8		 mov	 ecx, eax
  00023	e8 00 00 00 00	 call	 ?GetHorzScale@CBlockData@@QAEAAVCHorizontalScale@@XZ ; CBlockData::GetHorzScale
  00028	8b c8		 mov	 ecx, eax
  0002a	ff d3		 call	 ebx
  0002c	85 f6		 test	 esi, esi
  0002e	75 e6		 jne	 SHORT $LL2@SetAllHorz
  00030	5f		 pop	 edi
  00031	5b		 pop	 ebx
$LN3@SetAllHorz:
  00032	5e		 pop	 esi

; 932  : 	}
; 933  : }

  00033	5d		 pop	 ebp
  00034	c2 04 00	 ret	 4
?SetAllHorzScaleGridType@CBlocksColumn@@QAEXW4SCALEGRIDTYPE@CScaleBaseData@@@Z ENDP ; CBlocksColumn::SetAllHorzScaleGridType
_TEXT	ENDS
; Function compile flags: /Ogtp
; File D:\git\src\IBK\IBK_DRFN\ProjSrc\SrcChartEx\ChartOCX\ChartObject\BlocksColumn.cpp
; File C:\Program Files (x86)\Microsoft Visual Studio\2019\Community\VC\Tools\MSVC\14.29.30133\atlmfc\include\afxcoll.inl
; File D:\git\src\IBK\IBK_DRFN\ProjSrc\SrcChartEx\ChartOCX\ChartObject\BlocksColumn.cpp
;	COMDAT ?SetAllScaleGridType@CBlocksColumn@@QAEXW4SCALEGRIDTYPE@CScaleBaseData@@@Z
_TEXT	SEGMENT
_eGridType$ = 8						; size = 4
?SetAllScaleGridType@CBlocksColumn@@QAEXW4SCALEGRIDTYPE@CScaleBaseData@@@Z PROC ; CBlocksColumn::SetAllScaleGridType, COMDAT
; _this$ = ecx

; 914  : {

  00000	55		 push	 ebp
  00001	8b ec		 mov	 ebp, esp
  00003	56		 push	 esi

; 915  : 	POSITION pos = m_BlockList.GetHeadPosition();

  00004	8b 71 14	 mov	 esi, DWORD PTR [ecx+20]

; 916  : 	while(pos != NULL)

  00007	85 f6		 test	 esi, esi
  00009	74 15		 je	 SHORT $LN3@SetAllScal
  0000b	57		 push	 edi
  0000c	8b 7d 08	 mov	 edi, DWORD PTR _eGridType$[ebp]
  0000f	90		 npad	 1
$LL2@SetAllScal:

; 920  : 		pBlock->SetAllScaleGridType(eGridType);

  00010	8b 4e 08	 mov	 ecx, DWORD PTR [esi+8]
; File C:\Program Files (x86)\Microsoft Visual Studio\2019\Community\VC\Tools\MSVC\14.29.30133\atlmfc\include\afxcoll.inl

; 432  : 		rPosition = (POSITION) pNode->pNext;

  00013	8b 36		 mov	 esi, DWORD PTR [esi]
; File D:\git\src\IBK\IBK_DRFN\ProjSrc\SrcChartEx\ChartOCX\ChartObject\BlocksColumn.cpp

; 920  : 		pBlock->SetAllScaleGridType(eGridType);

  00015	57		 push	 edi
  00016	e8 00 00 00 00	 call	 ?SetAllScaleGridType@CBlockImp@@QAEXW4SCALEGRIDTYPE@CScaleBaseData@@@Z ; CBlockImp::SetAllScaleGridType
  0001b	85 f6		 test	 esi, esi
  0001d	75 f1		 jne	 SHORT $LL2@SetAllScal
  0001f	5f		 pop	 edi
$LN3@SetAllScal:
  00020	5e		 pop	 esi

; 921  : 	}
; 922  : }

  00021	5d		 pop	 ebp
  00022	c2 04 00	 ret	 4
?SetAllScaleGridType@CBlocksColumn@@QAEXW4SCALEGRIDTYPE@CScaleBaseData@@@Z ENDP ; CBlocksColumn::SetAllScaleGridType
_TEXT	ENDS
; Function compile flags: /Ogtp
; File D:\git\src\IBK\IBK_DRFN\ProjSrc\SrcChartEx\ChartOCX\ChartObject\BlocksColumn.cpp
;	COMDAT ?GetBlockCount@CBlocksColumn@@QBEHXZ
_TEXT	SEGMENT
?GetBlockCount@CBlocksColumn@@QBEHXZ PROC		; CBlocksColumn::GetBlockCount, COMDAT
; _this$ = ecx

; 909  : 	return m_BlockList.GetCount();

  00000	8b 41 1c	 mov	 eax, DWORD PTR [ecx+28]

; 910  : }

  00003	c3		 ret	 0
?GetBlockCount@CBlocksColumn@@QBEHXZ ENDP		; CBlocksColumn::GetBlockCount
_TEXT	ENDS
; Function compile flags: /Ogtp
; File D:\git\src\IBK\IBK_DRFN\ProjSrc\SrcChartEx\ChartOCX\ChartObject\BlocksColumn.cpp
; File D:\git\src\IBK\IBK_DRFN\ProjSrc\SrcChartEx\ChartOCX\ChartObject\GraphSearchInfo.h
; File D:\git\src\IBK\IBK_DRFN\ProjSrc\SrcChartEx\ChartOCX\ChartObject\BlocksColumn.cpp
; File D:\git\src\IBK\IBK_DRFN\ProjSrc\SrcChartEx\ChartOCX\ChartObject\GraphSearchInfo.h
; File D:\git\src\IBK\IBK_DRFN\ProjSrc\SrcChartEx\ChartOCX\ChartObject\BlocksColumn.cpp
; File D:\git\src\IBK\IBK_DRFN\ProjSrc\SrcChartEx\ChartOCX\ChartObject\GraphSearchInfo.h
; File D:\git\src\IBK\IBK_DRFN\ProjSrc\SrcChartEx\ChartOCX\ChartObject\BlocksColumn.cpp
;	COMDAT ?GetFirstBlockVGridLineType@CBlocksColumn@@QAE?AW4SCALEGRIDTYPE@CScaleBaseData@@XZ
_TEXT	SEGMENT
_gsi2$ = -132						; size = 64
_gsi$ = -68						; size = 68
?GetFirstBlockVGridLineType@CBlocksColumn@@QAE?AW4SCALEGRIDTYPE@CScaleBaseData@@XZ PROC ; CBlocksColumn::GetFirstBlockVGridLineType, COMDAT
; _this$ = ecx

; 880  : {

  00000	55		 push	 ebp
  00001	8b ec		 mov	 ebp, esp
  00003	81 ec 84 00 00
	00		 sub	 esp, 132		; 00000084H
  00009	56		 push	 esi
  0000a	8b f1		 mov	 esi, ecx
; File D:\git\src\IBK\IBK_DRFN\ProjSrc\SrcChartEx\ChartOCX\ChartObject\GraphSearchInfo.h

; 141  : 	CGraphSearchInfo_ActiveVertScaleAndGridLine()	{	m_nActiveFlag = -1;	}

  0000c	8d 4d bc	 lea	 ecx, DWORD PTR _gsi$[ebp]
  0000f	e8 00 00 00 00	 call	 ??0CGraphSearchInfo@@QAE@XZ ; CGraphSearchInfo::CGraphSearchInfo
; File D:\git\src\IBK\IBK_DRFN\ProjSrc\SrcChartEx\ChartOCX\ChartObject\BlocksColumn.cpp

; 882  : 	if( FindGraph( &gsi)) if( gsi.m_pVertScaleGroup) return gsi.m_pVertScaleGroup->GetVertScale().GetGridType();

  00014	8d 45 bc	 lea	 eax, DWORD PTR _gsi$[ebp]
; File D:\git\src\IBK\IBK_DRFN\ProjSrc\SrcChartEx\ChartOCX\ChartObject\GraphSearchInfo.h

; 141  : 	CGraphSearchInfo_ActiveVertScaleAndGridLine()	{	m_nActiveFlag = -1;	}

  00017	c7 45 bc 00 00
	00 00		 mov	 DWORD PTR _gsi$[ebp], OFFSET ??_7CGraphSearchInfo_ActiveVertScaleAndGridLine@@6B@
; File D:\git\src\IBK\IBK_DRFN\ProjSrc\SrcChartEx\ChartOCX\ChartObject\BlocksColumn.cpp

; 882  : 	if( FindGraph( &gsi)) if( gsi.m_pVertScaleGroup) return gsi.m_pVertScaleGroup->GetVertScale().GetGridType();

  0001e	50		 push	 eax
  0001f	8b ce		 mov	 ecx, esi
; File D:\git\src\IBK\IBK_DRFN\ProjSrc\SrcChartEx\ChartOCX\ChartObject\GraphSearchInfo.h

; 141  : 	CGraphSearchInfo_ActiveVertScaleAndGridLine()	{	m_nActiveFlag = -1;	}

  00021	c7 45 fc ff ff
	ff ff		 mov	 DWORD PTR _gsi$[ebp+64], -1
; File D:\git\src\IBK\IBK_DRFN\ProjSrc\SrcChartEx\ChartOCX\ChartObject\BlocksColumn.cpp

; 882  : 	if( FindGraph( &gsi)) if( gsi.m_pVertScaleGroup) return gsi.m_pVertScaleGroup->GetVertScale().GetGridType();

  00028	e8 00 00 00 00	 call	 ?FindGraph@CBlocksColumn@@QBEHPAVCGraphSearchInfo@@@Z ; CBlocksColumn::FindGraph
  0002d	85 c0		 test	 eax, eax
  0002f	74 19		 je	 SHORT $LN3@GetFirstBl
  00031	8b 4d f0	 mov	 ecx, DWORD PTR _gsi$[ebp+52]
  00034	85 c9		 test	 ecx, ecx
  00036	74 12		 je	 SHORT $LN3@GetFirstBl
$LN11@GetFirstBl:

; 888  : }

  00038	e8 00 00 00 00	 call	 ?GetVertScale@CVertScaleGroup@@QAEAAVCVerticalScale@@XZ ; CVertScaleGroup::GetVertScale
  0003d	8b c8		 mov	 ecx, eax
  0003f	ff 15 00 00 00
	00		 call	 DWORD PTR __imp_?GetGridType@CScale@@QBE?AW4SCALEGRIDTYPE@CScaleBaseData@@XZ
  00045	5e		 pop	 esi
  00046	8b e5		 mov	 esp, ebp
  00048	5d		 pop	 ebp
  00049	c3		 ret	 0
$LN3@GetFirstBl:
  0004a	8d 8d 7c ff ff
	ff		 lea	 ecx, DWORD PTR _gsi2$[ebp]
  00050	e8 00 00 00 00	 call	 ??0CGraphSearchInfo@@QAE@XZ ; CGraphSearchInfo::CGraphSearchInfo

; 883  : 
; 884  : 	CGraphSearchInfo_VisibleSubGraph gsi2;
; 885  : 	if( FindGraph( &gsi2)) if( gsi2.m_pVertScaleGroup) return gsi2.m_pVertScaleGroup->GetVertScale().GetGridType();

  00055	8d 85 7c ff ff
	ff		 lea	 eax, DWORD PTR _gsi2$[ebp]
  0005b	c7 85 7c ff ff
	ff 00 00 00 00	 mov	 DWORD PTR _gsi2$[ebp], OFFSET ??_7CGraphSearchInfo_VisibleSubGraph@@6B@
  00065	50		 push	 eax
  00066	8b ce		 mov	 ecx, esi
  00068	e8 00 00 00 00	 call	 ?FindGraph@CBlocksColumn@@QBEHPAVCGraphSearchInfo@@@Z ; CBlocksColumn::FindGraph
  0006d	85 c0		 test	 eax, eax
  0006f	74 07		 je	 SHORT $LN5@GetFirstBl
  00071	8b 4d b0	 mov	 ecx, DWORD PTR _gsi2$[ebp+52]
  00074	85 c9		 test	 ecx, ecx
  00076	75 c0		 jne	 SHORT $LN11@GetFirstBl
$LN5@GetFirstBl:

; 886  : 
; 887  : 	return CScaleBaseData::SHORTDOTTEDLINE;

  00078	b8 02 00 00 00	 mov	 eax, 2
  0007d	5e		 pop	 esi

; 888  : }

  0007e	8b e5		 mov	 esp, ebp
  00080	5d		 pop	 ebp
  00081	c3		 ret	 0
?GetFirstBlockVGridLineType@CBlocksColumn@@QAE?AW4SCALEGRIDTYPE@CScaleBaseData@@XZ ENDP ; CBlocksColumn::GetFirstBlockVGridLineType
_TEXT	ENDS
; Function compile flags: /Ogtp
; File D:\git\src\IBK\IBK_DRFN\ProjSrc\SrcChartEx\ChartOCX\ChartObject\BlocksColumn.cpp
; File C:\Program Files (x86)\Microsoft Visual Studio\2019\Community\VC\Tools\MSVC\14.29.30133\atlmfc\include\afxtempl.h
; File D:\git\src\IBK\IBK_DRFN\ProjSrc\SrcChartEx\ChartOCX\ChartObject\BlocksColumn.cpp
; File C:\Program Files (x86)\Microsoft Visual Studio\2019\Community\VC\Tools\MSVC\14.29.30133\atlmfc\include\afxcoll.inl
; File D:\git\src\IBK\IBK_DRFN\ProjSrc\SrcChartEx\ChartOCX\ChartObject\BlocksColumn.cpp
;	COMDAT ?GetColumnViewData@CBlocksColumn@@QBEXPBDAAVCColumnViewData@@@Z
_TEXT	SEGMENT
_lpszRQ$GSCopy$1$ = -88					; size = 4
$T2 = -84						; size = 4
_rowViewData$3 = -80					; size = 64
__$ArrayPad$ = -16					; size = 4
__$EHRec$ = -12						; size = 12
_lpszRQ$ = 8						; size = 4
_columnViewData$ = 12					; size = 4
?GetColumnViewData@CBlocksColumn@@QBEXPBDAAVCColumnViewData@@@Z PROC ; CBlocksColumn::GetColumnViewData, COMDAT
; _this$ = ecx

; 892  : {

  00000	55		 push	 ebp
  00001	8b ec		 mov	 ebp, esp
  00003	6a ff		 push	 -1
  00005	68 00 00 00 00	 push	 __ehhandler$?GetColumnViewData@CBlocksColumn@@QBEXPBDAAVCColumnViewData@@@Z
  0000a	64 a1 00 00 00
	00		 mov	 eax, DWORD PTR fs:0
  00010	50		 push	 eax
  00011	83 ec 50	 sub	 esp, 80			; 00000050H
  00014	a1 00 00 00 00	 mov	 eax, DWORD PTR ___security_cookie
  00019	33 c5		 xor	 eax, ebp
  0001b	89 45 f0	 mov	 DWORD PTR __$ArrayPad$[ebp], eax
  0001e	53		 push	 ebx
  0001f	56		 push	 esi
  00020	57		 push	 edi
  00021	50		 push	 eax
  00022	8d 45 f4	 lea	 eax, DWORD PTR __$EHRec$[ebp]
  00025	64 a3 00 00 00
	00		 mov	 DWORD PTR fs:0, eax

; 893  : 	POSITION pos = m_BlockList.GetHeadPosition();

  0002b	8b 71 14	 mov	 esi, DWORD PTR [ecx+20]
  0002e	8b 45 08	 mov	 eax, DWORD PTR _lpszRQ$[ebp]
  00031	8b 5d 0c	 mov	 ebx, DWORD PTR _columnViewData$[ebp]
  00034	89 45 a8	 mov	 DWORD PTR _lpszRQ$GSCopy$1$[ebp], eax

; 894  : 	while(pos != NULL)

  00037	85 f6		 test	 esi, esi
  00039	0f 84 9f 00 00
	00		 je	 $LN3@GetColumnV
  0003f	90		 npad	 1
$LL2@GetColumnV:
; File C:\Program Files (x86)\Microsoft Visual Studio\2019\Community\VC\Tools\MSVC\14.29.30133\atlmfc\include\afxtempl.h

; 1898 : 		{ return (TYPE)BASE_CLASS::GetNext(rPosition); }

  00040	8b 7e 08	 mov	 edi, DWORD PTR [esi+8]
; File D:\git\src\IBK\IBK_DRFN\ProjSrc\SrcChartEx\ChartOCX\ChartObject\BlocksColumn.cpp

; 898  : 		CRowViewData rowViewData;

  00043	8d 4d b0	 lea	 ecx, DWORD PTR _rowViewData$3[ebp]
; File C:\Program Files (x86)\Microsoft Visual Studio\2019\Community\VC\Tools\MSVC\14.29.30133\atlmfc\include\afxcoll.inl

; 439  : 		rPosition = (POSITION) pNode->pNext;

  00046	8b 36		 mov	 esi, DWORD PTR [esi]
; File D:\git\src\IBK\IBK_DRFN\ProjSrc\SrcChartEx\ChartOCX\ChartObject\BlocksColumn.cpp

; 898  : 		CRowViewData rowViewData;

  00048	e8 00 00 00 00	 call	 ??0CRowViewData@@QAE@XZ	; CRowViewData::CRowViewData

; 899  : 		rowViewData.SetHorzScaleName(pBlock->GetBlockData().GetHorzScale().GetScaleData());

  0004d	8d 45 ac	 lea	 eax, DWORD PTR $T2[ebp]
  00050	c7 45 fc 00 00
	00 00		 mov	 DWORD PTR __$EHRec$[ebp+8], 0
  00057	50		 push	 eax
  00058	8b cf		 mov	 ecx, edi
  0005a	e8 00 00 00 00	 call	 ?GetBlockData@CBlockImp@@QAEAAVCBlockData@@XZ ; CBlockImp::GetBlockData
  0005f	8b c8		 mov	 ecx, eax
  00061	e8 00 00 00 00	 call	 ?GetHorzScale@CBlockData@@QAEAAVCHorizontalScale@@XZ ; CBlockData::GetHorzScale
  00066	8b c8		 mov	 ecx, eax
  00068	ff 15 00 00 00
	00		 call	 DWORD PTR __imp_?GetScaleData@CScale@@QBE?AV?$CStringT@DV?$StrTraitMFC_DLL@DV?$ChTraitsCRT@D@ATL@@@@@ATL@@XZ
  0006e	50		 push	 eax
  0006f	8d 4d b0	 lea	 ecx, DWORD PTR _rowViewData$3[ebp]
  00072	c6 45 fc 01	 mov	 BYTE PTR __$EHRec$[ebp+8], 1
  00076	e8 00 00 00 00	 call	 ?SetHorzScaleName@CRowViewData@@QAEXABV?$CStringT@DV?$StrTraitMFC_DLL@DV?$ChTraitsCRT@D@ATL@@@@@ATL@@@Z ; CRowViewData::SetHorzScaleName
  0007b	8d 4d ac	 lea	 ecx, DWORD PTR $T2[ebp]
  0007e	c6 45 fc 00	 mov	 BYTE PTR __$EHRec$[ebp+8], 0
  00082	ff 15 00 00 00
	00		 call	 DWORD PTR __imp_??1?$CStringT@DV?$StrTraitMFC_DLL@DV?$ChTraitsCRT@D@ATL@@@@@ATL@@QAE@XZ

; 900  : 		pBlock->GetVertScaleGroupList().GetRowViewData(lpszRQ, rowViewData);

  00088	8d 45 b0	 lea	 eax, DWORD PTR _rowViewData$3[ebp]
  0008b	8b cf		 mov	 ecx, edi
  0008d	50		 push	 eax
  0008e	ff 75 a8	 push	 DWORD PTR _lpszRQ$GSCopy$1$[ebp]
  00091	e8 00 00 00 00	 call	 ?GetVertScaleGroupList@CBlockImp@@QAEAAVCVertScaleGroupList@@XZ ; CBlockImp::GetVertScaleGroupList
  00096	8b c8		 mov	 ecx, eax
  00098	e8 00 00 00 00	 call	 ?GetRowViewData@CVertScaleGroupList@@QBEXPBDAAVCRowViewData@@@Z ; CVertScaleGroupList::GetRowViewData

; 901  : 
; 902  : 		if(rowViewData.GetSubGraphViewDataCount())

  0009d	8d 4d b0	 lea	 ecx, DWORD PTR _rowViewData$3[ebp]
  000a0	e8 00 00 00 00	 call	 ?GetSubGraphViewDataCount@CRowViewData@@QBEHXZ ; CRowViewData::GetSubGraphViewDataCount
  000a5	85 c0		 test	 eax, eax
  000a7	74 15		 je	 SHORT $LN4@GetColumnV

; 903  : 			columnViewData.AddTail(rowViewData);

  000a9	83 ec 40	 sub	 esp, 64			; 00000040H
  000ac	8d 45 b0	 lea	 eax, DWORD PTR _rowViewData$3[ebp]
  000af	8b cc		 mov	 ecx, esp
  000b1	50		 push	 eax
  000b2	e8 00 00 00 00	 call	 ??0CRowViewData@@QAE@ABV0@@Z ; CRowViewData::CRowViewData
  000b7	8b cb		 mov	 ecx, ebx
  000b9	e8 00 00 00 00	 call	 ?AddTail@CColumnViewData@@QAEXVCRowViewData@@@Z ; CColumnViewData::AddTail
$LN4@GetColumnV:

; 904  : 	}

  000be	8d 4d d4	 lea	 ecx, DWORD PTR _rowViewData$3[ebp+36]
  000c1	c7 45 fc ff ff
	ff ff		 mov	 DWORD PTR __$EHRec$[ebp+8], -1
  000c8	e8 00 00 00 00	 call	 ??1?$CList@VCSubGraphViewData@@AAV1@@@UAE@XZ ; CList<CSubGraphViewData,CSubGraphViewData &>::~CList<CSubGraphViewData,CSubGraphViewData &>
  000cd	8d 4d d0	 lea	 ecx, DWORD PTR _rowViewData$3[ebp+32]
  000d0	ff 15 00 00 00
	00		 call	 DWORD PTR __imp_??1?$CStringT@DV?$StrTraitMFC_DLL@DV?$ChTraitsCRT@D@ATL@@@@@ATL@@QAE@XZ
  000d6	85 f6		 test	 esi, esi
  000d8	0f 85 62 ff ff
	ff		 jne	 $LL2@GetColumnV
$LN3@GetColumnV:

; 905  : }

  000de	8b 4d f4	 mov	 ecx, DWORD PTR __$EHRec$[ebp]
  000e1	64 89 0d 00 00
	00 00		 mov	 DWORD PTR fs:0, ecx
  000e8	59		 pop	 ecx
  000e9	5f		 pop	 edi
  000ea	5e		 pop	 esi
  000eb	5b		 pop	 ebx
  000ec	8b 4d f0	 mov	 ecx, DWORD PTR __$ArrayPad$[ebp]
  000ef	33 cd		 xor	 ecx, ebp
  000f1	e8 00 00 00 00	 call	 @__security_check_cookie@4
  000f6	8b e5		 mov	 esp, ebp
  000f8	5d		 pop	 ebp
  000f9	c2 08 00	 ret	 8
_TEXT	ENDS
;	COMDAT text$x
text$x	SEGMENT
__unwindfunclet$?GetColumnViewData@CBlocksColumn@@QBEXPBDAAVCColumnViewData@@@Z$0:
  00000	8d 4d b0	 lea	 ecx, DWORD PTR _rowViewData$3[ebp]
  00003	e9 00 00 00 00	 jmp	 ??1CRowViewData@@QAE@XZ
__unwindfunclet$?GetColumnViewData@CBlocksColumn@@QBEXPBDAAVCColumnViewData@@@Z$1:
  00008	8d 4d ac	 lea	 ecx, DWORD PTR $T2[ebp]
  0000b	ff 25 00 00 00
	00		 jmp	 DWORD PTR __imp_??1?$CStringT@DV?$StrTraitMFC_DLL@DV?$ChTraitsCRT@D@ATL@@@@@ATL@@QAE@XZ
  00011	cc		 int	 3
  00012	cc		 int	 3
  00013	cc		 int	 3
  00014	cc		 int	 3
  00015	cc		 int	 3
__ehhandler$?GetColumnViewData@CBlocksColumn@@QBEXPBDAAVCColumnViewData@@@Z:
  00016	90		 npad	 1
  00017	90		 npad	 1
  00018	8b 54 24 08	 mov	 edx, DWORD PTR [esp+8]
  0001c	8d 42 0c	 lea	 eax, DWORD PTR [edx+12]
  0001f	8b 4a a0	 mov	 ecx, DWORD PTR [edx-96]
  00022	33 c8		 xor	 ecx, eax
  00024	e8 00 00 00 00	 call	 @__security_check_cookie@4
  00029	8b 4a fc	 mov	 ecx, DWORD PTR [edx-4]
  0002c	33 c8		 xor	 ecx, eax
  0002e	e8 00 00 00 00	 call	 @__security_check_cookie@4
  00033	b8 00 00 00 00	 mov	 eax, OFFSET __ehfuncinfo$?GetColumnViewData@CBlocksColumn@@QBEXPBDAAVCColumnViewData@@@Z
  00038	e9 00 00 00 00	 jmp	 ___CxxFrameHandler3
text$x	ENDS
?GetColumnViewData@CBlocksColumn@@QBEXPBDAAVCColumnViewData@@@Z ENDP ; CBlocksColumn::GetColumnViewData
; Function compile flags: /Ogtp
; File D:\git\src\IBK\IBK_DRFN\ProjSrc\SrcChartEx\ChartOCX\ChartObject\BlocksColumn.cpp
; File C:\Program Files (x86)\Microsoft Visual Studio\2019\Community\VC\Tools\MSVC\14.29.30133\atlmfc\include\afxcoll.inl
; File D:\git\src\IBK\IBK_DRFN\ProjSrc\SrcChartEx\ChartOCX\ChartObject\BlocksColumn.cpp
; File D:\git\src\IBK\IBK_DRFN\ProjSrc\SrcChartEx\ChartOCX\Include_Chart\BlockBaseData.h
; File D:\git\src\IBK\IBK_DRFN\ProjSrc\SrcChartEx\ChartOCX\ChartObject\BlocksColumn.cpp
; File C:\Program Files (x86)\Microsoft Visual Studio\2019\Community\VC\Tools\MSVC\14.29.30133\atlmfc\include\afxcoll.inl
; File D:\git\src\IBK\IBK_DRFN\ProjSrc\SrcChartEx\ChartOCX\Include_Chart\BlockBaseData.h
; File D:\git\src\IBK\IBK_DRFN\ProjSrc\SrcChartEx\ChartOCX\ChartObject\BlocksColumn.cpp
; File D:\git\src\IBK\IBK_DRFN\ProjSrc\SrcChartEx\ChartOCX\Include_Chart\BlockBaseData.h
; File D:\git\src\IBK\IBK_DRFN\ProjSrc\SrcChartEx\ChartOCX\ChartObject\BlocksColumn.cpp
;	COMDAT ?CalculateDrawingRegion@CBlocksColumn@@QAEXPAVCDC@@HABVCBlocksPosition@@@Z
_TEXT	SEGMENT
$T1 = -48						; size = 8
$T2 = -48						; size = 8
_this$GSCopy$1$ = -40					; size = 4
_blocksPosition$GSCopy$1$ = -36				; size = 4
_pDC$GSCopy$1$ = -32					; size = 4
_rightWidth$ = -28					; size = 4
_leftWidth$ = -24					; size = 4
_blockRegion$3 = -20					; size = 16
__$ArrayPad$ = -4					; size = 4
_pDC$ = 8						; size = 4
_nBlockColumnIndex$ = 12				; size = 4
_blocksPosition$ = 16					; size = 4
?CalculateDrawingRegion@CBlocksColumn@@QAEXPAVCDC@@HABVCBlocksPosition@@@Z PROC ; CBlocksColumn::CalculateDrawingRegion, COMDAT
; _this$ = ecx

; 850  : {

  00000	55		 push	 ebp
  00001	8b ec		 mov	 ebp, esp
  00003	83 ec 30	 sub	 esp, 48			; 00000030H
  00006	a1 00 00 00 00	 mov	 eax, DWORD PTR ___security_cookie
  0000b	33 c5		 xor	 eax, ebp
  0000d	89 45 fc	 mov	 DWORD PTR __$ArrayPad$[ebp], eax
  00010	8b 45 10	 mov	 eax, DWORD PTR _blocksPosition$[ebp]

; 851  : 	//  scale   . ->  block  scale  .
; 852  : 	int leftWidth = 0;		// block   scale   .
; 853  : 	int rightWidth = 0;		// block   scale   .

  00013	33 d2		 xor	 edx, edx
  00015	53		 push	 ebx
  00016	8b d9		 mov	 ebx, ecx
  00018	89 45 dc	 mov	 DWORD PTR _blocksPosition$GSCopy$1$[ebp], eax
  0001b	8b 4d 08	 mov	 ecx, DWORD PTR _pDC$[ebp]
  0001e	33 c0		 xor	 eax, eax
  00020	56		 push	 esi
  00021	57		 push	 edi

; 854  : 	POSITION pos = m_BlockList.GetHeadPosition();

  00022	8b 73 14	 mov	 esi, DWORD PTR [ebx+20]
  00025	89 5d d8	 mov	 DWORD PTR _this$GSCopy$1$[ebp], ebx
  00028	89 4d e0	 mov	 DWORD PTR _pDC$GSCopy$1$[ebp], ecx
  0002b	89 45 e8	 mov	 DWORD PTR _leftWidth$[ebp], eax
  0002e	89 55 e4	 mov	 DWORD PTR _rightWidth$[ebp], edx

; 855  : 	while(pos != NULL)

  00031	85 f6		 test	 esi, esi
  00033	74 29		 je	 SHORT $LN3@CalculateD
$LL2@CalculateD:

; 859  : 		pBlock->GetVertScaleGroupList().GetVertScaleRegionWidth( pDC, leftWidth, rightWidth);

  00035	8d 55 e4	 lea	 edx, DWORD PTR _rightWidth$[ebp]
  00038	52		 push	 edx
  00039	8d 55 e8	 lea	 edx, DWORD PTR _leftWidth$[ebp]
; File C:\Program Files (x86)\Microsoft Visual Studio\2019\Community\VC\Tools\MSVC\14.29.30133\atlmfc\include\afxcoll.inl

; 428  : 	{ CNode* pNode = (CNode*) rPosition;

  0003c	8d 06		 lea	 eax, DWORD PTR [esi]

; 432  : 		rPosition = (POSITION) pNode->pNext;

  0003e	8b 36		 mov	 esi, DWORD PTR [esi]
; File D:\git\src\IBK\IBK_DRFN\ProjSrc\SrcChartEx\ChartOCX\ChartObject\BlocksColumn.cpp

; 859  : 		pBlock->GetVertScaleGroupList().GetVertScaleRegionWidth( pDC, leftWidth, rightWidth);

  00040	52		 push	 edx
  00041	51		 push	 ecx
  00042	8b 48 08	 mov	 ecx, DWORD PTR [eax+8]
  00045	e8 00 00 00 00	 call	 ?GetVertScaleGroupList@CBlockImp@@QAEAAVCVertScaleGroupList@@XZ ; CBlockImp::GetVertScaleGroupList
  0004a	8b c8		 mov	 ecx, eax
  0004c	e8 00 00 00 00	 call	 ?GetVertScaleRegionWidth@CVertScaleGroupList@@QAEXPAVCDC@@AAH1@Z ; CVertScaleGroupList::GetVertScaleRegionWidth
  00051	8b 4d e0	 mov	 ecx, DWORD PTR _pDC$GSCopy$1$[ebp]
  00054	85 f6		 test	 esi, esi
  00056	75 dd		 jne	 SHORT $LL2@CalculateD
  00058	8b 45 e8	 mov	 eax, DWORD PTR _leftWidth$[ebp]
  0005b	8b 55 e4	 mov	 edx, DWORD PTR _rightWidth$[ebp]
$LN3@CalculateD:

; 860  : 	}
; 861  : 
; 862  : 	// block  scale  . ->  scale  block .
; 863  : //@Solomon-100130 test by alzioyes //rightWidth = 48;
; 864  : 	m_vertScaleRegionWidth = CVertScaleRegionWidth( leftWidth, rightWidth);

  0005e	52		 push	 edx
  0005f	50		 push	 eax
  00060	8d 4d d0	 lea	 ecx, DWORD PTR $T2[ebp]
  00063	ff 15 00 00 00
	00		 call	 DWORD PTR __imp_??0CVertScaleRegionWidth@@QAE@HH@Z

; 865  : 
; 866  : 	pos = m_BlockList.GetHeadPosition();

  00069	8b 7b 14	 mov	 edi, DWORD PTR [ebx+20]
  0006c	8b 08		 mov	 ecx, DWORD PTR [eax]
  0006e	8b 40 04	 mov	 eax, DWORD PTR [eax+4]
  00071	89 4b 08	 mov	 DWORD PTR [ebx+8], ecx
  00074	89 43 0c	 mov	 DWORD PTR [ebx+12], eax

; 867  : 	// block .
; 868  : 	int nBlockRowIndex = -1;

  00077	83 cb ff	 or	 ebx, -1

; 869  : 	while(pos != NULL)

  0007a	85 ff		 test	 edi, edi
  0007c	74 3a		 je	 SHORT $LN5@CalculateD
  0007e	66 90		 npad	 2
$LL4@CalculateD:
; File D:\git\src\IBK\IBK_DRFN\ProjSrc\SrcChartEx\ChartOCX\Include_Chart\BlockBaseData.h

; 20   : 	CBlockIndex( const int row, const int column)		{	m_nRow = row;	m_nColumn = column;		}

  00080	8b 45 0c	 mov	 eax, DWORD PTR _nBlockColumnIndex$[ebp]
; File D:\git\src\IBK\IBK_DRFN\ProjSrc\SrcChartEx\ChartOCX\ChartObject\BlocksColumn.cpp

; 871  : 		nBlockRowIndex++;

  00083	43		 inc	 ebx

; 872  : 		CBlockImp* pBlock = (CBlockImp*) m_BlockList.GetNext(pos);

  00084	8b 77 08	 mov	 esi, DWORD PTR [edi+8]

; 874  : 		CRect blockRegion = blocksPosition.GetBlockRegion(CBlockIndex(nBlockRowIndex, nBlockColumnIndex));

  00087	8b 4d dc	 mov	 ecx, DWORD PTR _blocksPosition$GSCopy$1$[ebp]
; File C:\Program Files (x86)\Microsoft Visual Studio\2019\Community\VC\Tools\MSVC\14.29.30133\atlmfc\include\afxcoll.inl

; 432  : 		rPosition = (POSITION) pNode->pNext;

  0008a	8b 3f		 mov	 edi, DWORD PTR [edi]
; File D:\git\src\IBK\IBK_DRFN\ProjSrc\SrcChartEx\ChartOCX\Include_Chart\BlockBaseData.h

; 20   : 	CBlockIndex( const int row, const int column)		{	m_nRow = row;	m_nColumn = column;		}

  0008c	89 45 d4	 mov	 DWORD PTR $T1[ebp+4], eax
; File D:\git\src\IBK\IBK_DRFN\ProjSrc\SrcChartEx\ChartOCX\ChartObject\BlocksColumn.cpp

; 874  : 		CRect blockRegion = blocksPosition.GetBlockRegion(CBlockIndex(nBlockRowIndex, nBlockColumnIndex));

  0008f	8d 45 d0	 lea	 eax, DWORD PTR $T1[ebp]
  00092	50		 push	 eax
  00093	8d 45 ec	 lea	 eax, DWORD PTR _blockRegion$3[ebp]
; File D:\git\src\IBK\IBK_DRFN\ProjSrc\SrcChartEx\ChartOCX\Include_Chart\BlockBaseData.h

; 20   : 	CBlockIndex( const int row, const int column)		{	m_nRow = row;	m_nColumn = column;		}

  00096	89 5d d0	 mov	 DWORD PTR $T1[ebp], ebx
; File D:\git\src\IBK\IBK_DRFN\ProjSrc\SrcChartEx\ChartOCX\ChartObject\BlocksColumn.cpp

; 874  : 		CRect blockRegion = blocksPosition.GetBlockRegion(CBlockIndex(nBlockRowIndex, nBlockColumnIndex));

  00099	50		 push	 eax
  0009a	e8 00 00 00 00	 call	 ?GetBlockRegion@CBlocksPosition@@QBE?AVCRect@@ABVCBlockIndex@@@Z ; CBlocksPosition::GetBlockRegion

; 875  : 		pBlock->CalculateDrawingRegion( pDC, blockRegion, m_vertScaleRegionWidth);

  0009f	8b 45 d8	 mov	 eax, DWORD PTR _this$GSCopy$1$[ebp]
  000a2	8b ce		 mov	 ecx, esi
  000a4	83 c0 08	 add	 eax, 8
  000a7	50		 push	 eax
  000a8	8d 45 ec	 lea	 eax, DWORD PTR _blockRegion$3[ebp]
  000ab	50		 push	 eax
  000ac	ff 75 e0	 push	 DWORD PTR _pDC$GSCopy$1$[ebp]
  000af	e8 00 00 00 00	 call	 ?CalculateDrawingRegion@CBlockImp@@QAEXPAVCDC@@ABVCRect@@ABVCVertScaleRegionWidth@@@Z ; CBlockImp::CalculateDrawingRegion
  000b4	85 ff		 test	 edi, edi
  000b6	75 c8		 jne	 SHORT $LL4@CalculateD
$LN5@CalculateD:

; 876  : 	}
; 877  : }

  000b8	8b 4d fc	 mov	 ecx, DWORD PTR __$ArrayPad$[ebp]
  000bb	5f		 pop	 edi
  000bc	5e		 pop	 esi
  000bd	33 cd		 xor	 ecx, ebp
  000bf	5b		 pop	 ebx
  000c0	e8 00 00 00 00	 call	 @__security_check_cookie@4
  000c5	8b e5		 mov	 esp, ebp
  000c7	5d		 pop	 ebp
  000c8	c2 0c 00	 ret	 12			; 0000000cH
?CalculateDrawingRegion@CBlocksColumn@@QAEXPAVCDC@@HABVCBlocksPosition@@@Z ENDP ; CBlocksColumn::CalculateDrawingRegion
_TEXT	ENDS
; Function compile flags: /Ogtp
; File D:\git\src\IBK\IBK_DRFN\ProjSrc\SrcChartEx\ChartOCX\ChartObject\BlocksColumn.cpp
; File C:\Program Files (x86)\Microsoft Visual Studio\2019\Community\VC\Tools\MSVC\14.29.30133\atlmfc\include\afxcoll.inl
; File D:\git\src\IBK\IBK_DRFN\ProjSrc\SrcChartEx\ChartOCX\ChartObject\BlocksColumn.cpp
;	COMDAT ?CalculateDisplayDataMinMaxAllVertScaleGroup@CBlocksColumn@@QAEXXZ
_TEXT	SEGMENT
?CalculateDisplayDataMinMaxAllVertScaleGroup@CBlocksColumn@@QAEXXZ PROC ; CBlocksColumn::CalculateDisplayDataMinMaxAllVertScaleGroup, COMDAT
; _this$ = ecx

; 839  : {

  00000	56		 push	 esi

; 840  : 	POSITION pos = m_BlockList.GetHeadPosition();

  00001	8b 71 14	 mov	 esi, DWORD PTR [ecx+20]

; 841  : 	while(pos != NULL)

  00004	85 f6		 test	 esi, esi
  00006	74 1d		 je	 SHORT $LN3@CalculateD
  00008	0f 1f 84 00 00
	00 00 00	 npad	 8
$LL2@CalculateD:

; 845  : 		pBlock->GetVertScaleGroupList().CalculateDisplayDataMinMaxAllVertScaleGroup();

  00010	8b 4e 08	 mov	 ecx, DWORD PTR [esi+8]
; File C:\Program Files (x86)\Microsoft Visual Studio\2019\Community\VC\Tools\MSVC\14.29.30133\atlmfc\include\afxcoll.inl

; 432  : 		rPosition = (POSITION) pNode->pNext;

  00013	8b 36		 mov	 esi, DWORD PTR [esi]
; File D:\git\src\IBK\IBK_DRFN\ProjSrc\SrcChartEx\ChartOCX\ChartObject\BlocksColumn.cpp

; 845  : 		pBlock->GetVertScaleGroupList().CalculateDisplayDataMinMaxAllVertScaleGroup();

  00015	e8 00 00 00 00	 call	 ?GetVertScaleGroupList@CBlockImp@@QAEAAVCVertScaleGroupList@@XZ ; CBlockImp::GetVertScaleGroupList
  0001a	8b c8		 mov	 ecx, eax
  0001c	e8 00 00 00 00	 call	 ?CalculateDisplayDataMinMaxAllVertScaleGroup@CVertScaleGroupList@@QAEXXZ ; CVertScaleGroupList::CalculateDisplayDataMinMaxAllVertScaleGroup
  00021	85 f6		 test	 esi, esi
  00023	75 eb		 jne	 SHORT $LL2@CalculateD
$LN3@CalculateD:
  00025	5e		 pop	 esi

; 846  : 	}
; 847  : }

  00026	c3		 ret	 0
?CalculateDisplayDataMinMaxAllVertScaleGroup@CBlocksColumn@@QAEXXZ ENDP ; CBlocksColumn::CalculateDisplayDataMinMaxAllVertScaleGroup
_TEXT	ENDS
; Function compile flags: /Ogtp
; File D:\git\src\IBK\IBK_DRFN\ProjSrc\SrcChartEx\ChartOCX\ChartObject\BlocksColumn.cpp
; File D:\git\src\IBK\IBK_DRFN\ProjSrc\SrcChartEx\ChartOCX\Include_Chart\BlockBaseData.h
; File D:\git\src\IBK\IBK_DRFN\ProjSrc\SrcChartEx\ChartOCX\ChartObject\BlocksColumn.cpp
; File C:\Program Files (x86)\Microsoft Visual Studio\2019\Community\VC\Tools\MSVC\14.29.30133\atlmfc\include\afxcoll.inl
; File D:\git\src\IBK\IBK_DRFN\ProjSrc\SrcChartEx\ChartOCX\Include_Chart\BlockBaseData.h
; File D:\git\src\IBK\IBK_DRFN\ProjSrc\SrcChartEx\ChartOCX\ChartObject\BlocksColumn.cpp
; File D:\git\src\IBK\IBK_DRFN\ProjSrc\SrcChartEx\ChartOCX\Include_Chart\BlockBaseData.h
; File D:\git\src\IBK\IBK_DRFN\ProjSrc\SrcChartEx\ChartOCX\ChartObject\BlocksColumn.cpp
;	COMDAT ?DrawAllGraphs@CBlocksColumn@@QAEXPAVCDC@@HABVCBlocksPosition@@@Z
_TEXT	SEGMENT
$T1 = -36						; size = 8
_blocksPosition$GSCopy$1$ = -28				; size = 4
_pDC$GSCopy$1$ = -24					; size = 4
$T2 = -20						; size = 16
__$ArrayPad$ = -4					; size = 4
_pDC$ = 8						; size = 4
_nBlockColumnIndex$ = 12				; size = 4
_blocksPosition$ = 16					; size = 4
?DrawAllGraphs@CBlocksColumn@@QAEXPAVCDC@@HABVCBlocksPosition@@@Z PROC ; CBlocksColumn::DrawAllGraphs, COMDAT
; _this$ = ecx

; 823  : {

  00000	55		 push	 ebp
  00001	8b ec		 mov	 ebp, esp
  00003	83 ec 24	 sub	 esp, 36			; 00000024H
  00006	a1 00 00 00 00	 mov	 eax, DWORD PTR ___security_cookie
  0000b	33 c5		 xor	 eax, ebp
  0000d	89 45 fc	 mov	 DWORD PTR __$ArrayPad$[ebp], eax
  00010	8b 45 08	 mov	 eax, DWORD PTR _pDC$[ebp]
  00013	8b 55 10	 mov	 edx, DWORD PTR _blocksPosition$[ebp]
  00016	53		 push	 ebx
  00017	57		 push	 edi

; 824  : 	//sy test
; 825  : 	POSITION pos = m_BlockList.GetHeadPosition();

  00018	8b 79 14	 mov	 edi, DWORD PTR [ecx+20]

; 826  : 	// block .
; 827  : 	int nBlockRowIndex = -1;

  0001b	83 cb ff	 or	 ebx, -1
  0001e	89 45 e8	 mov	 DWORD PTR _pDC$GSCopy$1$[ebp], eax
  00021	89 55 e4	 mov	 DWORD PTR _blocksPosition$GSCopy$1$[ebp], edx

; 828  : 	while(pos != NULL)

  00024	85 ff		 test	 edi, edi
  00026	74 39		 je	 SHORT $LN3@DrawAllGra
  00028	56		 push	 esi
  00029	0f 1f 80 00 00
	00 00		 npad	 7
$LL2@DrawAllGra:
; File D:\git\src\IBK\IBK_DRFN\ProjSrc\SrcChartEx\ChartOCX\Include_Chart\BlockBaseData.h

; 20   : 	CBlockIndex( const int row, const int column)		{	m_nRow = row;	m_nColumn = column;		}

  00030	8b 45 0c	 mov	 eax, DWORD PTR _nBlockColumnIndex$[ebp]
; File D:\git\src\IBK\IBK_DRFN\ProjSrc\SrcChartEx\ChartOCX\ChartObject\BlocksColumn.cpp

; 830  : 		nBlockRowIndex++;

  00033	43		 inc	 ebx

; 831  : 		CBlockImp* pBlock = (CBlockImp*) m_BlockList.GetNext(pos);

  00034	8b 77 08	 mov	 esi, DWORD PTR [edi+8]

; 833  : 		pBlock->DrawAllGraphs(pDC, blocksPosition.GetBlockRegion(CBlockIndex(nBlockRowIndex, nBlockColumnIndex)));

  00037	8b ca		 mov	 ecx, edx
; File C:\Program Files (x86)\Microsoft Visual Studio\2019\Community\VC\Tools\MSVC\14.29.30133\atlmfc\include\afxcoll.inl

; 432  : 		rPosition = (POSITION) pNode->pNext;

  00039	8b 3f		 mov	 edi, DWORD PTR [edi]
; File D:\git\src\IBK\IBK_DRFN\ProjSrc\SrcChartEx\ChartOCX\Include_Chart\BlockBaseData.h

; 20   : 	CBlockIndex( const int row, const int column)		{	m_nRow = row;	m_nColumn = column;		}

  0003b	89 45 e0	 mov	 DWORD PTR $T1[ebp+4], eax
; File D:\git\src\IBK\IBK_DRFN\ProjSrc\SrcChartEx\ChartOCX\ChartObject\BlocksColumn.cpp

; 833  : 		pBlock->DrawAllGraphs(pDC, blocksPosition.GetBlockRegion(CBlockIndex(nBlockRowIndex, nBlockColumnIndex)));

  0003e	8d 45 dc	 lea	 eax, DWORD PTR $T1[ebp]
  00041	50		 push	 eax
  00042	8d 45 ec	 lea	 eax, DWORD PTR $T2[ebp]
; File D:\git\src\IBK\IBK_DRFN\ProjSrc\SrcChartEx\ChartOCX\Include_Chart\BlockBaseData.h

; 20   : 	CBlockIndex( const int row, const int column)		{	m_nRow = row;	m_nColumn = column;		}

  00045	89 5d dc	 mov	 DWORD PTR $T1[ebp], ebx
; File D:\git\src\IBK\IBK_DRFN\ProjSrc\SrcChartEx\ChartOCX\ChartObject\BlocksColumn.cpp

; 833  : 		pBlock->DrawAllGraphs(pDC, blocksPosition.GetBlockRegion(CBlockIndex(nBlockRowIndex, nBlockColumnIndex)));

  00048	50		 push	 eax
  00049	e8 00 00 00 00	 call	 ?GetBlockRegion@CBlocksPosition@@QBE?AVCRect@@ABVCBlockIndex@@@Z ; CBlocksPosition::GetBlockRegion
  0004e	50		 push	 eax
  0004f	ff 75 e8	 push	 DWORD PTR _pDC$GSCopy$1$[ebp]
  00052	8b ce		 mov	 ecx, esi
  00054	e8 00 00 00 00	 call	 ?DrawAllGraphs@CBlockImp@@QAEXPAVCDC@@ABVCRect@@@Z ; CBlockImp::DrawAllGraphs
  00059	8b 55 e4	 mov	 edx, DWORD PTR _blocksPosition$GSCopy$1$[ebp]
  0005c	85 ff		 test	 edi, edi
  0005e	75 d0		 jne	 SHORT $LL2@DrawAllGra
  00060	5e		 pop	 esi
$LN3@DrawAllGra:

; 834  : 	}
; 835  : }

  00061	8b 4d fc	 mov	 ecx, DWORD PTR __$ArrayPad$[ebp]
  00064	5f		 pop	 edi
  00065	33 cd		 xor	 ecx, ebp
  00067	5b		 pop	 ebx
  00068	e8 00 00 00 00	 call	 @__security_check_cookie@4
  0006d	8b e5		 mov	 esp, ebp
  0006f	5d		 pop	 ebp
  00070	c2 0c 00	 ret	 12			; 0000000cH
?DrawAllGraphs@CBlocksColumn@@QAEXPAVCDC@@HABVCBlocksPosition@@@Z ENDP ; CBlocksColumn::DrawAllGraphs
_TEXT	ENDS
; Function compile flags: /Ogtp
; File D:\git\src\IBK\IBK_DRFN\ProjSrc\SrcChartEx\ChartOCX\ChartObject\BlocksColumn.cpp
; File D:\git\src\IBK\IBK_DRFN\ProjSrc\SrcChartEx\ChartOCX\Include_Chart\BlockBaseData.h
; File D:\git\src\IBK\IBK_DRFN\ProjSrc\SrcChartEx\ChartOCX\ChartObject\BlocksColumn.cpp
; File C:\Program Files (x86)\Microsoft Visual Studio\2019\Community\VC\Tools\MSVC\14.29.30133\atlmfc\include\afxcoll.inl
; File D:\git\src\IBK\IBK_DRFN\ProjSrc\SrcChartEx\ChartOCX\Include_Chart\BlockBaseData.h
; File D:\git\src\IBK\IBK_DRFN\ProjSrc\SrcChartEx\ChartOCX\ChartObject\BlocksColumn.cpp
; File D:\git\src\IBK\IBK_DRFN\ProjSrc\SrcChartEx\ChartOCX\Include_Chart\BlockBaseData.h
; File D:\git\src\IBK\IBK_DRFN\ProjSrc\SrcChartEx\ChartOCX\ChartObject\BlocksColumn.cpp
;	COMDAT ?DrawAllHorzAndVertScales@CBlocksColumn@@QAEXPAVCDC@@HABVCBlocksPosition@@@Z
_TEXT	SEGMENT
$T1 = -36						; size = 8
_blocksPosition$GSCopy$1$ = -28				; size = 4
_pDC$GSCopy$1$ = -24					; size = 4
$T2 = -20						; size = 16
__$ArrayPad$ = -4					; size = 4
_pDC$ = 8						; size = 4
_nBlockColumnIndex$ = 12				; size = 4
_blocksPosition$ = 16					; size = 4
?DrawAllHorzAndVertScales@CBlocksColumn@@QAEXPAVCDC@@HABVCBlocksPosition@@@Z PROC ; CBlocksColumn::DrawAllHorzAndVertScales, COMDAT
; _this$ = ecx

; 807  : {

  00000	55		 push	 ebp
  00001	8b ec		 mov	 ebp, esp
  00003	83 ec 24	 sub	 esp, 36			; 00000024H
  00006	a1 00 00 00 00	 mov	 eax, DWORD PTR ___security_cookie
  0000b	33 c5		 xor	 eax, ebp
  0000d	89 45 fc	 mov	 DWORD PTR __$ArrayPad$[ebp], eax
  00010	8b 45 08	 mov	 eax, DWORD PTR _pDC$[ebp]
  00013	8b 55 10	 mov	 edx, DWORD PTR _blocksPosition$[ebp]
  00016	53		 push	 ebx
  00017	57		 push	 edi

; 808  : 	//sy test
; 809  : 	POSITION pos = m_BlockList.GetHeadPosition();

  00018	8b 79 14	 mov	 edi, DWORD PTR [ecx+20]

; 810  : 	// block .
; 811  : 	int nBlockRowIndex = -1;

  0001b	83 cb ff	 or	 ebx, -1
  0001e	89 45 e8	 mov	 DWORD PTR _pDC$GSCopy$1$[ebp], eax
  00021	89 55 e4	 mov	 DWORD PTR _blocksPosition$GSCopy$1$[ebp], edx

; 812  : 	while(pos != NULL)

  00024	85 ff		 test	 edi, edi
  00026	74 39		 je	 SHORT $LN3@DrawAllHor
  00028	56		 push	 esi
  00029	0f 1f 80 00 00
	00 00		 npad	 7
$LL2@DrawAllHor:
; File D:\git\src\IBK\IBK_DRFN\ProjSrc\SrcChartEx\ChartOCX\Include_Chart\BlockBaseData.h

; 20   : 	CBlockIndex( const int row, const int column)		{	m_nRow = row;	m_nColumn = column;		}

  00030	8b 45 0c	 mov	 eax, DWORD PTR _nBlockColumnIndex$[ebp]
; File D:\git\src\IBK\IBK_DRFN\ProjSrc\SrcChartEx\ChartOCX\ChartObject\BlocksColumn.cpp

; 814  : 		nBlockRowIndex++;

  00033	43		 inc	 ebx

; 815  : 		CBlockImp* pBlock = (CBlockImp*) m_BlockList.GetNext(pos);

  00034	8b 77 08	 mov	 esi, DWORD PTR [edi+8]

; 817  : 		pBlock->DrawHorzAndVertScale(pDC, blocksPosition.GetBlockRegion(CBlockIndex(nBlockRowIndex, nBlockColumnIndex)));

  00037	8b ca		 mov	 ecx, edx
; File C:\Program Files (x86)\Microsoft Visual Studio\2019\Community\VC\Tools\MSVC\14.29.30133\atlmfc\include\afxcoll.inl

; 432  : 		rPosition = (POSITION) pNode->pNext;

  00039	8b 3f		 mov	 edi, DWORD PTR [edi]
; File D:\git\src\IBK\IBK_DRFN\ProjSrc\SrcChartEx\ChartOCX\Include_Chart\BlockBaseData.h

; 20   : 	CBlockIndex( const int row, const int column)		{	m_nRow = row;	m_nColumn = column;		}

  0003b	89 45 e0	 mov	 DWORD PTR $T1[ebp+4], eax
; File D:\git\src\IBK\IBK_DRFN\ProjSrc\SrcChartEx\ChartOCX\ChartObject\BlocksColumn.cpp

; 817  : 		pBlock->DrawHorzAndVertScale(pDC, blocksPosition.GetBlockRegion(CBlockIndex(nBlockRowIndex, nBlockColumnIndex)));

  0003e	8d 45 dc	 lea	 eax, DWORD PTR $T1[ebp]
  00041	50		 push	 eax
  00042	8d 45 ec	 lea	 eax, DWORD PTR $T2[ebp]
; File D:\git\src\IBK\IBK_DRFN\ProjSrc\SrcChartEx\ChartOCX\Include_Chart\BlockBaseData.h

; 20   : 	CBlockIndex( const int row, const int column)		{	m_nRow = row;	m_nColumn = column;		}

  00045	89 5d dc	 mov	 DWORD PTR $T1[ebp], ebx
; File D:\git\src\IBK\IBK_DRFN\ProjSrc\SrcChartEx\ChartOCX\ChartObject\BlocksColumn.cpp

; 817  : 		pBlock->DrawHorzAndVertScale(pDC, blocksPosition.GetBlockRegion(CBlockIndex(nBlockRowIndex, nBlockColumnIndex)));

  00048	50		 push	 eax
  00049	e8 00 00 00 00	 call	 ?GetBlockRegion@CBlocksPosition@@QBE?AVCRect@@ABVCBlockIndex@@@Z ; CBlocksPosition::GetBlockRegion
  0004e	50		 push	 eax
  0004f	ff 75 e8	 push	 DWORD PTR _pDC$GSCopy$1$[ebp]
  00052	8b ce		 mov	 ecx, esi
  00054	e8 00 00 00 00	 call	 ?DrawHorzAndVertScale@CBlockImp@@QAEXPAVCDC@@ABVCRect@@@Z ; CBlockImp::DrawHorzAndVertScale
  00059	8b 55 e4	 mov	 edx, DWORD PTR _blocksPosition$GSCopy$1$[ebp]
  0005c	85 ff		 test	 edi, edi
  0005e	75 d0		 jne	 SHORT $LL2@DrawAllHor
  00060	5e		 pop	 esi
$LN3@DrawAllHor:

; 818  : 	}
; 819  : }

  00061	8b 4d fc	 mov	 ecx, DWORD PTR __$ArrayPad$[ebp]
  00064	5f		 pop	 edi
  00065	33 cd		 xor	 ecx, ebp
  00067	5b		 pop	 ebx
  00068	e8 00 00 00 00	 call	 @__security_check_cookie@4
  0006d	8b e5		 mov	 esp, ebp
  0006f	5d		 pop	 ebp
  00070	c2 0c 00	 ret	 12			; 0000000cH
?DrawAllHorzAndVertScales@CBlocksColumn@@QAEXPAVCDC@@HABVCBlocksPosition@@@Z ENDP ; CBlocksColumn::DrawAllHorzAndVertScales
_TEXT	ENDS
; Function compile flags: /Ogtp
; File D:\git\src\IBK\IBK_DRFN\ProjSrc\SrcChartEx\ChartOCX\ChartObject\BlocksColumn.cpp
; File D:\git\src\IBK\IBK_DRFN\ProjSrc\SrcChartEx\ChartOCX\Include_Chart\BlockBaseData.h
; File D:\git\src\IBK\IBK_DRFN\ProjSrc\SrcChartEx\ChartOCX\ChartObject\BlocksColumn.cpp
; File C:\Program Files (x86)\Microsoft Visual Studio\2019\Community\VC\Tools\MSVC\14.29.30133\atlmfc\include\afxcoll.inl
; File D:\git\src\IBK\IBK_DRFN\ProjSrc\SrcChartEx\ChartOCX\Include_Chart\BlockBaseData.h
; File D:\git\src\IBK\IBK_DRFN\ProjSrc\SrcChartEx\ChartOCX\ChartObject\BlocksColumn.cpp
;	COMDAT ?DrawAllBlocksBackground@CBlocksColumn@@QAEXPAVCDC@@HABVCBlocksPosition@@@Z
_TEXT	SEGMENT
$T1 = -36						; size = 8
_pDC$GSCopy$1$ = -28					; size = 4
_blocksPosition$GSCopy$1$ = -24				; size = 4
$T2 = -20						; size = 16
__$ArrayPad$ = -4					; size = 4
_pDC$ = 8						; size = 4
_nBlockColumnIndex$ = 12				; size = 4
_blocksPosition$ = 16					; size = 4
?DrawAllBlocksBackground@CBlocksColumn@@QAEXPAVCDC@@HABVCBlocksPosition@@@Z PROC ; CBlocksColumn::DrawAllBlocksBackground, COMDAT
; _this$ = ecx

; 790  : {

  00000	55		 push	 ebp
  00001	8b ec		 mov	 ebp, esp
  00003	83 ec 24	 sub	 esp, 36			; 00000024H
  00006	a1 00 00 00 00	 mov	 eax, DWORD PTR ___security_cookie
  0000b	33 c5		 xor	 eax, ebp
  0000d	89 45 fc	 mov	 DWORD PTR __$ArrayPad$[ebp], eax
  00010	8b 45 08	 mov	 eax, DWORD PTR _pDC$[ebp]
  00013	8b 55 10	 mov	 edx, DWORD PTR _blocksPosition$[ebp]
  00016	53		 push	 ebx
  00017	57		 push	 edi

; 791  : 	//sy test
; 792  : 	POSITION pos = m_BlockList.GetHeadPosition();

  00018	8b 79 14	 mov	 edi, DWORD PTR [ecx+20]

; 793  : 	// block .
; 794  : 	int nBlockRowIndex = -1;

  0001b	83 cb ff	 or	 ebx, -1
  0001e	89 45 e4	 mov	 DWORD PTR _pDC$GSCopy$1$[ebp], eax
  00021	89 55 e8	 mov	 DWORD PTR _blocksPosition$GSCopy$1$[ebp], edx

; 795  : 	while(pos != NULL)

  00024	85 ff		 test	 edi, edi
  00026	74 42		 je	 SHORT $LN3@DrawAllBlo
  00028	56		 push	 esi
  00029	0f 1f 80 00 00
	00 00		 npad	 7
$LL2@DrawAllBlo:

; 796  : 	{
; 797  : 		nBlockRowIndex++;
; 798  : 		CBlockImp* pBlock = (CBlockImp*) m_BlockList.GetNext(pos);

  00030	8b 77 08	 mov	 esi, DWORD PTR [edi+8]
  00033	43		 inc	 ebx
; File D:\git\src\IBK\IBK_DRFN\ProjSrc\SrcChartEx\ChartOCX\Include_Chart\BlockBaseData.h

; 20   : 	CBlockIndex( const int row, const int column)		{	m_nRow = row;	m_nColumn = column;		}

  00034	8b 45 0c	 mov	 eax, DWORD PTR _nBlockColumnIndex$[ebp]
; File D:\git\src\IBK\IBK_DRFN\ProjSrc\SrcChartEx\ChartOCX\ChartObject\BlocksColumn.cpp

; 800  : 		pBlock->DrawBlockBackground(pDC, blocksPosition.GetBlockRegion(CBlockIndex(nBlockRowIndex, nBlockColumnIndex)), 

  00037	8b ca		 mov	 ecx, edx
; File C:\Program Files (x86)\Microsoft Visual Studio\2019\Community\VC\Tools\MSVC\14.29.30133\atlmfc\include\afxcoll.inl

; 432  : 		rPosition = (POSITION) pNode->pNext;

  00039	8b 3f		 mov	 edi, DWORD PTR [edi]
; File D:\git\src\IBK\IBK_DRFN\ProjSrc\SrcChartEx\ChartOCX\Include_Chart\BlockBaseData.h

; 20   : 	CBlockIndex( const int row, const int column)		{	m_nRow = row;	m_nColumn = column;		}

  0003b	89 5d dc	 mov	 DWORD PTR $T1[ebp], ebx
  0003e	89 45 e0	 mov	 DWORD PTR $T1[ebp+4], eax
; File D:\git\src\IBK\IBK_DRFN\ProjSrc\SrcChartEx\ChartOCX\ChartObject\BlocksColumn.cpp

; 800  : 		pBlock->DrawBlockBackground(pDC, blocksPosition.GetBlockRegion(CBlockIndex(nBlockRowIndex, nBlockColumnIndex)), 

  00041	e8 00 00 00 00	 call	 ?GetInterBlockHalfGap@CBlocksPosition@@QBEHXZ ; CBlocksPosition::GetInterBlockHalfGap
  00046	8b 4d e8	 mov	 ecx, DWORD PTR _blocksPosition$GSCopy$1$[ebp]
  00049	50		 push	 eax
  0004a	8d 45 dc	 lea	 eax, DWORD PTR $T1[ebp]
  0004d	50		 push	 eax
  0004e	8d 45 ec	 lea	 eax, DWORD PTR $T2[ebp]
  00051	50		 push	 eax
  00052	e8 00 00 00 00	 call	 ?GetBlockRegion@CBlocksPosition@@QBE?AVCRect@@ABVCBlockIndex@@@Z ; CBlocksPosition::GetBlockRegion
  00057	50		 push	 eax
  00058	ff 75 e4	 push	 DWORD PTR _pDC$GSCopy$1$[ebp]
  0005b	8b ce		 mov	 ecx, esi
  0005d	e8 00 00 00 00	 call	 ?DrawBlockBackground@CBlockImp@@QAEXPAVCDC@@ABVCRect@@H@Z ; CBlockImp::DrawBlockBackground
  00062	8b 55 e8	 mov	 edx, DWORD PTR _blocksPosition$GSCopy$1$[ebp]
  00065	85 ff		 test	 edi, edi
  00067	75 c7		 jne	 SHORT $LL2@DrawAllBlo
  00069	5e		 pop	 esi
$LN3@DrawAllBlo:

; 801  : 			blocksPosition.GetInterBlockHalfGap());
; 802  : 	}
; 803  : }

  0006a	8b 4d fc	 mov	 ecx, DWORD PTR __$ArrayPad$[ebp]
  0006d	5f		 pop	 edi
  0006e	33 cd		 xor	 ecx, ebp
  00070	5b		 pop	 ebx
  00071	e8 00 00 00 00	 call	 @__security_check_cookie@4
  00076	8b e5		 mov	 esp, ebp
  00078	5d		 pop	 ebp
  00079	c2 0c 00	 ret	 12			; 0000000cH
?DrawAllBlocksBackground@CBlocksColumn@@QAEXPAVCDC@@HABVCBlocksPosition@@@Z ENDP ; CBlocksColumn::DrawAllBlocksBackground
_TEXT	ENDS
; Function compile flags: /Ogtp
; File D:\git\src\IBK\IBK_DRFN\ProjSrc\SrcChartEx\ChartOCX\ChartObject\BlocksColumn.cpp
; File C:\Program Files (x86)\Microsoft Visual Studio\2019\Community\VC\Tools\MSVC\14.29.30133\atlmfc\include\afxtempl.h
; File D:\git\src\IBK\IBK_DRFN\ProjSrc\SrcChartEx\ChartOCX\ChartObject\BlocksColumn.cpp
;	COMDAT ?MoveAllVertScaleGroupsInPartition@CBlocksColumn@@QAE_NH_N@Z
_TEXT	SEGMENT
_pSourceVertScaleGroup$1$ = -24				; size = 4
_pTargetBlock$1$ = -20					; size = 4
tv287 = -16						; size = 4
tv288 = -12						; size = 4
_this$1$ = -8						; size = 4
tv285 = -4						; size = 4
_targetVertScaleGroupList$1$ = 8			; size = 4
_nBlockRowIndex$ = 8					; size = 4
_bDoesMaintainOldScale$ = 12				; size = 1
?MoveAllVertScaleGroupsInPartition@CBlocksColumn@@QAE_NH_N@Z PROC ; CBlocksColumn::MoveAllVertScaleGroupsInPartition, COMDAT
; _this$ = ecx

; 693  : {

  00000	55		 push	 ebp
  00001	8b ec		 mov	 ebp, esp
  00003	83 ec 18	 sub	 esp, 24			; 00000018H

; 615  : 	if( p_nRowIndex < 0 || GetBlockCount() <= p_nRowIndex) return NULL;

  00006	8b 45 08	 mov	 eax, DWORD PTR _nBlockRowIndex$[ebp]

; 693  : {

  00009	53		 push	 ebx
  0000a	8b d9		 mov	 ebx, ecx
  0000c	89 5d f8	 mov	 DWORD PTR _this$1$[ebp], ebx

; 615  : 	if( p_nRowIndex < 0 || GetBlockCount() <= p_nRowIndex) return NULL;

  0000f	85 c0		 test	 eax, eax
  00011	0f 88 27 01 00
	00		 js	 $LN36@MoveAllVer
  00017	39 43 1c	 cmp	 DWORD PTR [ebx+28], eax
  0001a	0f 8e 1e 01 00
	00		 jle	 $LN36@MoveAllVer

; 616  : 
; 617  : 	POSITION posBlock = m_BlockList.FindIndex( p_nRowIndex);

  00020	8d 4b 10	 lea	 ecx, DWORD PTR [ebx+16]
  00023	50		 push	 eax
  00024	89 4d f0	 mov	 DWORD PTR tv287[ebp], ecx
  00027	e8 00 00 00 00	 call	 ?FindIndex@CObList@@QBEPAU__POSITION@@H@Z ; CObList::FindIndex

; 618  : 	if( !posBlock) return NULL;

  0002c	85 c0		 test	 eax, eax
  0002e	0f 84 0a 01 00
	00		 je	 $LN36@MoveAllVer

; 619  : 
; 620  : 	return m_BlockList.GetAt( posBlock);

  00034	8b 40 08	 mov	 eax, DWORD PTR [eax+8]
  00037	89 45 ec	 mov	 DWORD PTR _pTargetBlock$1$[ebp], eax

; 694  : 	CBlockImp* pTargetBlock = GetBlock(nBlockRowIndex);
; 695  : 	if(pTargetBlock == NULL)

  0003a	85 c0		 test	 eax, eax
  0003c	0f 84 fc 00 00
	00		 je	 $LN36@MoveAllVer

; 697  : 
; 698  : 	bool bResult = false;

  00042	56		 push	 esi

; 699  : 	CVertScaleGroupList& targetVertScaleGroupList = pTargetBlock->GetVertScaleGroupList();

  00043	8b c8		 mov	 ecx, eax
  00045	c6 45 fc 00	 mov	 BYTE PTR tv285[ebp], 0
  00049	e8 00 00 00 00	 call	 ?GetVertScaleGroupList@CBlockImp@@QAEAAVCVertScaleGroupList@@XZ ; CBlockImp::GetVertScaleGroupList
  0004e	8b f0		 mov	 esi, eax

; 700  : 	int nVertScaleGroupCount = targetVertScaleGroupList.GetCount();

  00050	8b ce		 mov	 ecx, esi
  00052	89 75 08	 mov	 DWORD PTR _targetVertScaleGroupList$1$[ebp], esi
  00055	e8 00 00 00 00	 call	 ?GetCount@CVertScaleGroupList@@QBEHXZ ; CVertScaleGroupList::GetCount

; 701  : 	for(int nIndex = 1; nIndex < nVertScaleGroupCount; nIndex++)

  0005a	83 f8 01	 cmp	 eax, 1
  0005d	7e 5f		 jle	 SHORT $LN3@MoveAllVer

; 697  : 
; 698  : 	bool bResult = false;

  0005f	8d 48 ff	 lea	 ecx, DWORD PTR [eax-1]
  00062	89 4d f4	 mov	 DWORD PTR tv288[ebp], ecx
  00065	57		 push	 edi
$LL4@MoveAllVer:

; 702  : 	{
; 703  : 		CVertScaleGroup* pSourceVertScaleGroup = targetVertScaleGroupList.GetVertScaleGroup(1);

  00066	6a 01		 push	 1
  00068	8b ce		 mov	 ecx, esi
  0006a	e8 00 00 00 00	 call	 ?GetVertScaleGroup@CVertScaleGroupList@@QBEPAVCVertScaleGroup@@H@Z ; CVertScaleGroupList::GetVertScaleGroup
  0006f	8b f8		 mov	 edi, eax
  00071	89 7d e8	 mov	 DWORD PTR _pSourceVertScaleGroup$1$[ebp], edi

; 704  : 		if( !pSourceVertScaleGroup) continue;

  00074	85 ff		 test	 edi, edi
  00076	74 3f		 je	 SHORT $LN2@MoveAllVer

; 50   : 	if(m_pMain == NULL)

  00078	8b 4b 04	 mov	 ecx, DWORD PTR [ebx+4]
  0007b	85 c9		 test	 ecx, ecx
  0007d	75 04		 jne	 SHORT $LN26@MoveAllVer

; 51   : 		return NULL;

  0007f	33 c0		 xor	 eax, eax
  00081	eb 05		 jmp	 SHORT $LN25@MoveAllVer
$LN26@MoveAllVer:

; 52   : 
; 53   : 	return m_pMain->GetMainBlockBaseData();

  00083	e8 00 00 00 00	 call	 ?GetMainBlockBaseData@CMainBlockImp@@QBEPAVCMainBlockBaseData@@XZ ; CMainBlockImp::GetMainBlockBaseData
$LN25@MoveAllVer:

; 705  : 
; 706  : 		CBlockImp* pNewBlock = CBlockImp::Make(GetMainBlockBaseData(), this);

  00088	53		 push	 ebx
  00089	50		 push	 eax
  0008a	e8 00 00 00 00	 call	 ?Make@CBlockImp@@SAPAV1@PAVCMainBlockBaseData@@PAVCBlocksColumn@@@Z ; CBlockImp::Make
  0008f	8b f0		 mov	 esi, eax
  00091	83 c4 08	 add	 esp, 8

; 707  : 		if( !pNewBlock) continue;

  00094	85 f6		 test	 esi, esi
  00096	74 1c		 je	 SHORT $LN38@MoveAllVer

; 708  : 
; 709  : 		if( !pNewBlock->GetVertScaleGroupList().AddTailInNoEqual( pSourceVertScaleGroup))

  00098	57		 push	 edi
  00099	8b ce		 mov	 ecx, esi
  0009b	e8 00 00 00 00	 call	 ?GetVertScaleGroupList@CBlockImp@@QAEAAVCVertScaleGroupList@@XZ ; CBlockImp::GetVertScaleGroupList
  000a0	8b c8		 mov	 ecx, eax
  000a2	e8 00 00 00 00	 call	 ?AddTailInNoEqual@CVertScaleGroupList@@QAE_NPAVCVertScaleGroup@@@Z ; CVertScaleGroupList::AddTailInNoEqual
  000a7	56		 push	 esi
  000a8	84 c0		 test	 al, al
  000aa	75 1d		 jne	 SHORT $LN8@MoveAllVer

; 710  : 		{
; 711  : 			CBlockImp::Delete(pNewBlock);

  000ac	e8 00 00 00 00	 call	 ?Delete@CBlockImp@@SAXPAV1@@Z ; CBlockImp::Delete
  000b1	83 c4 04	 add	 esp, 4
$LN38@MoveAllVer:

; 701  : 	for(int nIndex = 1; nIndex < nVertScaleGroupCount; nIndex++)

  000b4	8b 75 08	 mov	 esi, DWORD PTR _targetVertScaleGroupList$1$[ebp]
$LN2@MoveAllVer:
  000b7	83 6d f4 01	 sub	 DWORD PTR tv288[ebp], 1
  000bb	75 a9		 jne	 SHORT $LL4@MoveAllVer
  000bd	5f		 pop	 edi
$LN3@MoveAllVer:

; 722  : 	}
; 723  : 
; 724  : 	return bResult;

  000be	8a 45 fc	 mov	 al, BYTE PTR tv285[ebp]
  000c1	5e		 pop	 esi
  000c2	5b		 pop	 ebx

; 725  : }

  000c3	8b e5		 mov	 esp, ebp
  000c5	5d		 pop	 ebp
  000c6	c2 08 00	 ret	 8
$LN8@MoveAllVer:
; File C:\Program Files (x86)\Microsoft Visual Studio\2019\Community\VC\Tools\MSVC\14.29.30133\atlmfc\include\afxtempl.h

; 1959 : 		{ return BASE_CLASS::AddTail(newElement); }

  000c9	8b 4d f0	 mov	 ecx, DWORD PTR tv287[ebp]
  000cc	e8 00 00 00 00	 call	 ?AddTail@CObList@@QAEPAU__POSITION@@PAVCObject@@@Z ; CObList::AddTail
; File D:\git\src\IBK\IBK_DRFN\ProjSrc\SrcChartEx\ChartOCX\ChartObject\BlocksColumn.cpp

; 717  : 		pNewBlock->GetBlockData() = pTargetBlock->GetBlockData();

  000d1	8b 4d ec	 mov	 ecx, DWORD PTR _pTargetBlock$1$[ebp]
  000d4	e8 00 00 00 00	 call	 ?GetBlockData@CBlockImp@@QAEAAVCBlockData@@XZ ; CBlockImp::GetBlockData
  000d9	8b ce		 mov	 ecx, esi
  000db	8b d8		 mov	 ebx, eax
  000dd	e8 00 00 00 00	 call	 ?GetBlockData@CBlockImp@@QAEAAVCBlockData@@XZ ; CBlockImp::GetBlockData
  000e2	8b f8		 mov	 edi, eax
  000e4	53		 push	 ebx
  000e5	8b cf		 mov	 ecx, edi
  000e7	ff 15 00 00 00
	00		 call	 DWORD PTR __imp_??4CHorizontalScale@@QAEAAV0@ABV0@@Z
  000ed	8d 4b 68	 lea	 ecx, DWORD PTR [ebx+104]
  000f0	51		 push	 ecx
  000f1	8d 4f 68	 lea	 ecx, DWORD PTR [edi+104]
  000f4	ff 15 00 00 00
	00		 call	 DWORD PTR __imp_??4CDisplayDataMinMax@@QAEAAV0@ABV0@@Z

; 718  : 		// / scale .
; 719  : 		if(bDoesMaintainOldScale) SetMaintainOldScale(pNewBlock);

  000fa	80 7d 0c 00	 cmp	 BYTE PTR _bDoesMaintainOldScale$[ebp], 0
  000fe	8a 4b 78	 mov	 cl, BYTE PTR [ebx+120]
  00101	88 4f 78	 mov	 BYTE PTR [edi+120], cl
  00104	8a 43 79	 mov	 al, BYTE PTR [ebx+121]
  00107	8b 5d f8	 mov	 ebx, DWORD PTR _this$1$[ebp]
  0010a	88 47 79	 mov	 BYTE PTR [edi+121], al
  0010d	74 08		 je	 SHORT $LN9@MoveAllVer
  0010f	56		 push	 esi
  00110	8b cb		 mov	 ecx, ebx
  00112	e8 00 00 00 00	 call	 ?SetMaintainOldScale@CBlocksColumn@@QAEXPAVCBlockImp@@@Z ; CBlocksColumn::SetMaintainOldScale
$LN9@MoveAllVer:

; 720  : 
; 721  : 		if( targetVertScaleGroupList.RemoveAt( pSourceVertScaleGroup, false)) bResult = true;

  00117	8b 75 08	 mov	 esi, DWORD PTR _targetVertScaleGroupList$1$[ebp]
  0011a	8b ce		 mov	 ecx, esi
  0011c	6a 00		 push	 0
  0011e	ff 75 e8	 push	 DWORD PTR _pSourceVertScaleGroup$1$[ebp]
  00121	e8 00 00 00 00	 call	 ?RemoveAt@CVertScaleGroupList@@QAEHPAVCVertScaleGroup@@_N@Z ; CVertScaleGroupList::RemoveAt
  00126	8b 4d fc	 mov	 ecx, DWORD PTR tv285[ebp]
  00129	85 c0		 test	 eax, eax
  0012b	0f b6 c9	 movzx	 ecx, cl
  0012e	b8 01 00 00 00	 mov	 eax, 1
  00133	0f 45 c8	 cmovne	 ecx, eax
  00136	89 4d fc	 mov	 DWORD PTR tv285[ebp], ecx
  00139	e9 79 ff ff ff	 jmp	 $LN2@MoveAllVer
$LN36@MoveAllVer:

; 696  : 		return false;

  0013e	32 c0		 xor	 al, al
  00140	5b		 pop	 ebx

; 725  : }

  00141	8b e5		 mov	 esp, ebp
  00143	5d		 pop	 ebp
  00144	c2 08 00	 ret	 8
?MoveAllVertScaleGroupsInPartition@CBlocksColumn@@QAE_NH_N@Z ENDP ; CBlocksColumn::MoveAllVertScaleGroupsInPartition
_TEXT	ENDS
; Function compile flags: /Ogtp
; File D:\git\src\IBK\IBK_DRFN\ProjSrc\SrcChartEx\ChartOCX\ChartObject\BlocksColumn.cpp
; File D:\git\src\IBK\IBK_DRFN\ProjSrc\SrcChartEx\ChartOCX\Include_Chart\BlockBaseData.h
; File D:\git\src\IBK\IBK_DRFN\ProjSrc\SrcChartEx\ChartOCX\ChartObject\BlocksColumn.cpp
; File D:\git\src\IBK\IBK_DRFN\ProjSrc\SrcChartEx\ChartOCX\Include_Chart\BlockBaseData.h
; File D:\git\src\IBK\IBK_DRFN\ProjSrc\SrcChartEx\ChartOCX\ChartObject\BlocksColumn.cpp
; File C:\Program Files (x86)\Microsoft Visual Studio\2019\Community\VC\Tools\MSVC\14.29.30133\atlmfc\include\afxcoll.inl
; File D:\git\src\IBK\IBK_DRFN\ProjSrc\SrcChartEx\ChartOCX\ChartObject\BlocksColumn.cpp
; File C:\Program Files (x86)\Microsoft Visual Studio\2019\Community\VC\Tools\MSVC\14.29.30133\atlmfc\include\afxcoll.inl
; File D:\git\src\IBK\IBK_DRFN\ProjSrc\SrcChartEx\ChartOCX\ChartObject\BlocksColumn.cpp
; File C:\Program Files (x86)\Microsoft Visual Studio\2019\Community\VC\Tools\MSVC\14.29.30133\atlmfc\include\afxcoll.inl
; File D:\git\src\IBK\IBK_DRFN\ProjSrc\SrcChartEx\ChartOCX\ChartObject\BlocksColumn.cpp
; File C:\Program Files (x86)\Microsoft Visual Studio\2019\Community\VC\Tools\MSVC\14.29.30133\atlmfc\include\afxtempl.h
; File D:\git\src\IBK\IBK_DRFN\ProjSrc\SrcChartEx\ChartOCX\ChartObject\BlocksColumn.cpp
; File C:\Program Files (x86)\Microsoft Visual Studio\2019\Community\VC\Tools\MSVC\14.29.30133\atlmfc\include\afxtempl.h
; File D:\git\src\IBK\IBK_DRFN\ProjSrc\SrcChartEx\ChartOCX\ChartObject\BlocksColumn.cpp
; File C:\Program Files (x86)\Microsoft Visual Studio\2019\Community\VC\Tools\MSVC\14.29.30133\atlmfc\include\afxcoll.inl
; File D:\git\src\IBK\IBK_DRFN\ProjSrc\SrcChartEx\ChartOCX\ChartObject\BlocksColumn.cpp
; File C:\Program Files (x86)\Microsoft Visual Studio\2019\Community\VC\Tools\MSVC\14.29.30133\atlmfc\include\afxcoll.inl
; File D:\git\src\IBK\IBK_DRFN\ProjSrc\SrcChartEx\ChartOCX\ChartObject\BlocksColumn.cpp
; File C:\Program Files (x86)\Microsoft Visual Studio\2019\Community\VC\Tools\MSVC\14.29.30133\atlmfc\include\afxcoll.inl
; File D:\git\src\IBK\IBK_DRFN\ProjSrc\SrcChartEx\ChartOCX\ChartObject\BlocksColumn.cpp
;	COMDAT ?MoveBlock@CBlocksColumn@@QAE_NPAVCBlocksPosition@@HH@Z
_TEXT	SEGMENT
_gsi$3 = -104						; size = 64
_blockBehaviorData$4 = -40				; size = 20
_eXScalePosition$1$ = -20				; size = 4
_this$1$ = -16						; size = 4
tv575 = -12						; size = 4
_targetPos$1$ = -12					; size = 4
_psnUpdate$1$ = -8					; size = 4
_pBlock$1$ = -8						; size = 4
_sourcePos$1$ = -4					; size = 4
tv569 = 8						; size = 4
_sourcePos$2$ = 8					; size = 4
_pBlocksPosition$ = 8					; size = 4
_nSourceBlockIndex$ = 12				; size = 4
_nTargetBlockIndex$ = 16				; size = 4
?MoveBlock@CBlocksColumn@@QAE_NPAVCBlocksPosition@@HH@Z PROC ; CBlocksColumn::MoveBlock, COMDAT
; _this$ = ecx

; 729  : {

  00000	55		 push	 ebp
  00001	8b ec		 mov	 ebp, esp
  00003	83 ec 68	 sub	 esp, 104		; 00000068H
  00006	53		 push	 ebx
  00007	56		 push	 esi
  00008	8b f1		 mov	 esi, ecx
  0000a	57		 push	 edi

; 730  : 	if(nSourceBlockIndex >= m_BlockList.GetCount() || nTargetBlockIndex >= m_BlockList.GetCount())

  0000b	8b 7d 0c	 mov	 edi, DWORD PTR _nSourceBlockIndex$[ebp]
  0000e	89 75 f0	 mov	 DWORD PTR _this$1$[ebp], esi
  00011	8b 46 1c	 mov	 eax, DWORD PTR [esi+28]
  00014	3b f8		 cmp	 edi, eax
  00016	0f 8d 86 01 00
	00		 jge	 $LN5@MoveBlock
  0001c	8b 5d 10	 mov	 ebx, DWORD PTR _nTargetBlockIndex$[ebp]
  0001f	3b d8		 cmp	 ebx, eax
  00021	0f 8d 7b 01 00
	00		 jge	 $LN5@MoveBlock

; 731  : 		return false;
; 732  : 
; 733  : 	// block    
; 734  : 	if(!pBlocksPosition->MoveBlockPosition(nSourceBlockIndex, nTargetBlockIndex, CBlockBaseData::ROW))

  00027	8b 4d 08	 mov	 ecx, DWORD PTR _pBlocksPosition$[ebp]
  0002a	6a 00		 push	 0
  0002c	53		 push	 ebx
  0002d	57		 push	 edi
  0002e	e8 00 00 00 00	 call	 ?MoveBlockPosition@CBlocksPosition@@QAE_NHHW4BLOCKTYPE@CBlockBaseData@@@Z ; CBlocksPosition::MoveBlockPosition
  00033	84 c0		 test	 al, al
  00035	0f 84 67 01 00
	00		 je	 $LN5@MoveBlock

; 735  : 		return false;
; 736  : 
; 737  : 	if( m_pMain)

  0003b	83 7e 04 00	 cmp	 DWORD PTR [esi+4], 0
  0003f	74 53		 je	 SHORT $LN8@MoveBlock

; 738  : 	{
; 739  : 		CGraphSearchInfo_BlocksColumn gsi;
; 740  : 		gsi.m_pBlocksColumn = this;
; 741  : 		if( m_pMain->FindGraph( &gsi))

  00041	8d 4d 98	 lea	 ecx, DWORD PTR _gsi$3[ebp]
  00044	e8 00 00 00 00	 call	 ??0CGraphSearchInfo@@QAE@XZ ; CGraphSearchInfo::CGraphSearchInfo
  00049	8b 4e 04	 mov	 ecx, DWORD PTR [esi+4]
  0004c	8d 45 98	 lea	 eax, DWORD PTR _gsi$3[ebp]
  0004f	50		 push	 eax
  00050	c7 45 98 00 00
	00 00		 mov	 DWORD PTR _gsi$3[ebp], OFFSET ??_7CGraphSearchInfo_BlocksColumn@@6B@
  00057	89 75 c4	 mov	 DWORD PTR _gsi$3[ebp+44], esi
  0005a	e8 00 00 00 00	 call	 ?FindGraph@CMainBlockImp@@QBEHPAVCGraphSearchInfo@@@Z ; CMainBlockImp::FindGraph
  0005f	85 c0		 test	 eax, eax
  00061	74 31		 je	 SHORT $LN8@MoveBlock
; File D:\git\src\IBK\IBK_DRFN\ProjSrc\SrcChartEx\ChartOCX\Include_Chart\BlockBaseData.h

; 129  : 		m_sourceBlockIndex = sourceBlockIndex;

  00063	8b 45 b0	 mov	 eax, DWORD PTR _gsi$3[ebp+24]
; File D:\git\src\IBK\IBK_DRFN\ProjSrc\SrcChartEx\ChartOCX\ChartObject\BlocksColumn.cpp

; 50   : 	if(m_pMain == NULL)

  00066	8b 4e 04	 mov	 ecx, DWORD PTR [esi+4]
; File D:\git\src\IBK\IBK_DRFN\ProjSrc\SrcChartEx\ChartOCX\Include_Chart\BlockBaseData.h

; 128  : 		m_eBlockBehavior = eBlockBehavior;

  00069	c7 45 d8 02 00
	00 00		 mov	 DWORD PTR _blockBehaviorData$4[ebp], 2

; 129  : 		m_sourceBlockIndex = sourceBlockIndex;

  00070	89 7d dc	 mov	 DWORD PTR _blockBehaviorData$4[ebp+4], edi
  00073	89 45 e0	 mov	 DWORD PTR _blockBehaviorData$4[ebp+8], eax

; 130  : 		m_targetBlockIndex = targetBlockIndex;

  00076	89 5d e4	 mov	 DWORD PTR _blockBehaviorData$4[ebp+12], ebx
  00079	89 45 e8	 mov	 DWORD PTR _blockBehaviorData$4[ebp+16], eax
; File D:\git\src\IBK\IBK_DRFN\ProjSrc\SrcChartEx\ChartOCX\ChartObject\BlocksColumn.cpp

; 50   : 	if(m_pMain == NULL)

  0007c	85 c9		 test	 ecx, ecx
  0007e	75 04		 jne	 SHORT $LN31@MoveBlock

; 51   : 		return NULL;

  00080	33 c0		 xor	 eax, eax
  00082	eb 05		 jmp	 SHORT $LN30@MoveBlock
$LN31@MoveBlock:

; 52   : 
; 53   : 	return m_pMain->GetMainBlockBaseData();

  00084	e8 00 00 00 00	 call	 ?GetMainBlockBaseData@CMainBlockImp@@QBEPAVCMainBlockBaseData@@XZ ; CMainBlockImp::GetMainBlockBaseData
$LN30@MoveBlock:

; 742  : 		{
; 743  : 			CBlockBehaviorData blockBehaviorData(CBlockBaseData::BLOCK_MOVE, CBlockIndex(nSourceBlockIndex, gsi.m_nColumnBlockIndex), CBlockIndex(nTargetBlockIndex, gsi.m_nColumnBlockIndex));
; 744  : 			GetMainBlockBaseData()->SendMessageToParent(blockBehaviorData);

  00089	8d 4d d8	 lea	 ecx, DWORD PTR _blockBehaviorData$4[ebp]
  0008c	51		 push	 ecx
  0008d	8b c8		 mov	 ecx, eax
  0008f	e8 00 00 00 00	 call	 ?SendMessageToParent@CMainBlockBaseData@@QAEXABVCBlockBehaviorData@@@Z ; CMainBlockBaseData::SendMessageToParent
$LN8@MoveBlock:

; 745  : 		}
; 746  : 	}
; 747  : 
; 748  : 	POSITION sourcePos = m_BlockList.FindIndex( nSourceBlockIndex);

  00094	8d 46 10	 lea	 eax, DWORD PTR [esi+16]
  00097	57		 push	 edi
  00098	8b c8		 mov	 ecx, eax
  0009a	89 45 08	 mov	 DWORD PTR tv569[ebp], eax
  0009d	e8 00 00 00 00	 call	 ?FindIndex@CObList@@QBEPAU__POSITION@@H@Z ; CObList::FindIndex

; 749  : 	POSITION targetPos = m_BlockList.FindIndex( nTargetBlockIndex);

  000a2	8b 4d 08	 mov	 ecx, DWORD PTR tv569[ebp]
  000a5	8b f0		 mov	 esi, eax
  000a7	53		 push	 ebx
  000a8	89 75 fc	 mov	 DWORD PTR _sourcePos$1$[ebp], esi
  000ab	e8 00 00 00 00	 call	 ?FindIndex@CObList@@QBEPAU__POSITION@@H@Z ; CObList::FindIndex
  000b0	89 45 f4	 mov	 DWORD PTR _targetPos$1$[ebp], eax

; 753  : 	if( bInsertBefore)	m_BlockList.GetPrev( psnNext);

  000b3	3b fb		 cmp	 edi, ebx
  000b5	7e 0d		 jle	 SHORT $LN9@MoveBlock
; File C:\Program Files (x86)\Microsoft Visual Studio\2019\Community\VC\Tools\MSVC\14.29.30133\atlmfc\include\afxcoll.inl

; 444  : 		if( pNode == NULL )

  000b7	85 f6		 test	 esi, esi
  000b9	0f 84 ee 00 00
	00		 je	 $LN71@MoveBlock

; 445  : 			AfxThrowInvalidArgException();
; 446  : 		rPosition = (POSITION) pNode->pPrev;

  000bf	83 c6 04	 add	 esi, 4
; File D:\git\src\IBK\IBK_DRFN\ProjSrc\SrcChartEx\ChartOCX\ChartObject\BlocksColumn.cpp

; 753  : 	if( bInsertBefore)	m_BlockList.GetPrev( psnNext);

  000c2	eb 08		 jmp	 SHORT $LN44@MoveBlock
$LN9@MoveBlock:
; File C:\Program Files (x86)\Microsoft Visual Studio\2019\Community\VC\Tools\MSVC\14.29.30133\atlmfc\include\afxcoll.inl

; 430  : 		if( pNode == NULL )

  000c4	85 f6		 test	 esi, esi
  000c6	0f 84 e1 00 00
	00		 je	 $LN71@MoveBlock
$LN44@MoveBlock:
; File D:\git\src\IBK\IBK_DRFN\ProjSrc\SrcChartEx\ChartOCX\ChartObject\BlocksColumn.cpp

; 756  : 	CBlockImp *pBlock = m_BlockList.GetAt( sourcePos);

  000cc	8b 45 fc	 mov	 eax, DWORD PTR _sourcePos$1$[ebp]
; File C:\Program Files (x86)\Microsoft Visual Studio\2019\Community\VC\Tools\MSVC\14.29.30133\atlmfc\include\afxcoll.inl

; 456  : 	{ CNode* pNode = (CNode*) position;

  000cf	8b 36		 mov	 esi, DWORD PTR [esi]
; File D:\git\src\IBK\IBK_DRFN\ProjSrc\SrcChartEx\ChartOCX\ChartObject\BlocksColumn.cpp

; 756  : 	CBlockImp *pBlock = m_BlockList.GetAt( sourcePos);

  000d1	8b 40 08	 mov	 eax, DWORD PTR [eax+8]
  000d4	89 45 f8	 mov	 DWORD PTR _pBlock$1$[ebp], eax

; 757  : 	if( !pBlock) return false;

  000d7	85 c0		 test	 eax, eax
  000d9	0f 84 c3 00 00
	00		 je	 $LN5@MoveBlock

; 758  : 	CScaleBaseData::HORZSCALEPOSITION eXScalePosition = pBlock->GetBlockData().GetHorzScale().GetHorzScalePosition();

  000df	8b c8		 mov	 ecx, eax
  000e1	e8 00 00 00 00	 call	 ?GetBlockData@CBlockImp@@QAEAAVCBlockData@@XZ ; CBlockImp::GetBlockData
  000e6	8b c8		 mov	 ecx, eax
  000e8	e8 00 00 00 00	 call	 ?GetHorzScale@CBlockData@@QAEAAVCHorizontalScale@@XZ ; CBlockData::GetHorzScale
  000ed	8b c8		 mov	 ecx, eax
  000ef	ff 15 00 00 00
	00		 call	 DWORD PTR __imp_?GetHorzScalePosition@CHorizontalScale@@QBE?AW4HORZSCALEPOSITION@CScaleBaseData@@XZ

; 759  : 	m_BlockList.RemoveAt( sourcePos);

  000f5	ff 75 fc	 push	 DWORD PTR _sourcePos$1$[ebp]
  000f8	8b 4d 08	 mov	 ecx, DWORD PTR tv569[ebp]
  000fb	89 45 ec	 mov	 DWORD PTR _eXScalePosition$1$[ebp], eax
  000fe	e8 00 00 00 00	 call	 ?RemoveAt@CObList@@QAEXPAU__POSITION@@@Z ; CObList::RemoveAt

; 760  : 	if(bInsertBefore)	sourcePos = m_BlockList.InsertBefore(	targetPos, pBlock);

  00103	8b 4d 08	 mov	 ecx, DWORD PTR tv569[ebp]
  00106	ff 75 f8	 push	 DWORD PTR _pBlock$1$[ebp]
  00109	ff 75 f4	 push	 DWORD PTR _targetPos$1$[ebp]
  0010c	3b fb		 cmp	 edi, ebx
  0010e	7e 07		 jle	 SHORT $LN12@MoveBlock
; File C:\Program Files (x86)\Microsoft Visual Studio\2019\Community\VC\Tools\MSVC\14.29.30133\atlmfc\include\afxtempl.h

; 1914 : 		{ return BASE_CLASS::InsertBefore(position, newElement); }

  00110	e8 00 00 00 00	 call	 ?InsertBefore@CObList@@QAEPAU__POSITION@@PAU2@PAVCObject@@@Z ; CObList::InsertBefore
; File D:\git\src\IBK\IBK_DRFN\ProjSrc\SrcChartEx\ChartOCX\ChartObject\BlocksColumn.cpp

; 760  : 	if(bInsertBefore)	sourcePos = m_BlockList.InsertBefore(	targetPos, pBlock);

  00115	eb 05		 jmp	 SHORT $LN76@MoveBlock
$LN12@MoveBlock:
; File C:\Program Files (x86)\Microsoft Visual Studio\2019\Community\VC\Tools\MSVC\14.29.30133\atlmfc\include\afxtempl.h

; 1916 : 		{ return BASE_CLASS::InsertAfter(position, newElement); }

  00117	e8 00 00 00 00	 call	 ?InsertAfter@CObList@@QAEPAU__POSITION@@PAU2@PAVCObject@@@Z ; CObList::InsertAfter
$LN76@MoveBlock:
; File D:\git\src\IBK\IBK_DRFN\ProjSrc\SrcChartEx\ChartOCX\ChartObject\BlocksColumn.cpp

; 766  : 	while( psnUpdate != sourcePos)

  0011c	89 45 08	 mov	 DWORD PTR _sourcePos$2$[ebp], eax
  0011f	85 c0		 test	 eax, eax
  00121	74 74		 je	 SHORT $LN3@MoveBlock
$LL2@MoveBlock:

; 767  : 	{
; 768  : 		psnUpdate = psnNext;

  00123	89 75 f8	 mov	 DWORD PTR _psnUpdate$1$[ebp], esi

; 769  : 		if( bInsertBefore)	pBlock = m_BlockList.GetPrev( psnNext);

  00126	3b fb		 cmp	 edi, ebx
  00128	7e 0d		 jle	 SHORT $LN14@MoveBlock
; File C:\Program Files (x86)\Microsoft Visual Studio\2019\Community\VC\Tools\MSVC\14.29.30133\atlmfc\include\afxcoll.inl

; 444  : 		if( pNode == NULL )

  0012a	85 f6		 test	 esi, esi
  0012c	0f 84 7b 00 00
	00		 je	 $LN71@MoveBlock

; 445  : 			AfxThrowInvalidArgException();
; 446  : 		rPosition = (POSITION) pNode->pPrev;

  00132	8d 46 04	 lea	 eax, DWORD PTR [esi+4]
; File D:\git\src\IBK\IBK_DRFN\ProjSrc\SrcChartEx\ChartOCX\ChartObject\BlocksColumn.cpp

; 769  : 		if( bInsertBefore)	pBlock = m_BlockList.GetPrev( psnNext);

  00135	eb 06		 jmp	 SHORT $LN15@MoveBlock
$LN14@MoveBlock:
; File C:\Program Files (x86)\Microsoft Visual Studio\2019\Community\VC\Tools\MSVC\14.29.30133\atlmfc\include\afxcoll.inl

; 430  : 		if( pNode == NULL )

  00137	85 f6		 test	 esi, esi
  00139	74 72		 je	 SHORT $LN71@MoveBlock
; File D:\git\src\IBK\IBK_DRFN\ProjSrc\SrcChartEx\ChartOCX\ChartObject\BlocksColumn.cpp

; 770  : 		else				pBlock = m_BlockList.GetNext( psnNext);

  0013b	8b c6		 mov	 eax, esi
$LN15@MoveBlock:

; 771  : 		if( !pBlock) continue;

  0013d	8b 4e 08	 mov	 ecx, DWORD PTR [esi+8]
  00140	8b 30		 mov	 esi, DWORD PTR [eax]
  00142	89 4d f4	 mov	 DWORD PTR tv575[ebp], ecx
  00145	85 c9		 test	 ecx, ecx
  00147	74 46		 je	 SHORT $LN72@MoveBlock

; 772  : 		eXScalePositionNext = pBlock->GetBlockData().GetHorzScale().GetHorzScalePosition();

  00149	e8 00 00 00 00	 call	 ?GetBlockData@CBlockImp@@QAEAAVCBlockData@@XZ ; CBlockImp::GetBlockData
  0014e	8b c8		 mov	 ecx, eax
  00150	e8 00 00 00 00	 call	 ?GetHorzScale@CBlockData@@QAEAAVCHorizontalScale@@XZ ; CBlockData::GetHorzScale
  00155	8b c8		 mov	 ecx, eax
  00157	ff 15 00 00 00
	00		 call	 DWORD PTR __imp_?GetHorzScalePosition@CHorizontalScale@@QBE?AW4HORZSCALEPOSITION@CScaleBaseData@@XZ

; 773  : 
; 774  : 		// (2009/9/6 - Seung-Won, Bae) Do not support CHorizontalScale::SetHorzScalePosition() as public.
; 775  : 		//		To rearrange the row positions. Use CMainBlockImp::SetHorzScalePosition().
; 776  : 		m_pMain->SetHorzScalePosition( pBlock->GetBlockData().GetHorzScale(), eXScalePosition);

  0015d	8b 55 f0	 mov	 edx, DWORD PTR _this$1$[ebp]
  00160	8b d8		 mov	 ebx, eax
  00162	ff 75 ec	 push	 DWORD PTR _eXScalePosition$1$[ebp]
  00165	8b 4d f4	 mov	 ecx, DWORD PTR tv575[ebp]
  00168	8b 52 04	 mov	 edx, DWORD PTR [edx+4]
  0016b	8b 3a		 mov	 edi, DWORD PTR [edx]
  0016d	e8 00 00 00 00	 call	 ?GetBlockData@CBlockImp@@QAEAAVCBlockData@@XZ ; CBlockImp::GetBlockData
  00172	8b c8		 mov	 ecx, eax
  00174	e8 00 00 00 00	 call	 ?GetHorzScale@CBlockData@@QAEAAVCHorizontalScale@@XZ ; CBlockData::GetHorzScale
  00179	50		 push	 eax
  0017a	8b 45 f0	 mov	 eax, DWORD PTR _this$1$[ebp]
  0017d	8b 48 04	 mov	 ecx, DWORD PTR [eax+4]
  00180	ff 97 d8 00 00
	00		 call	 DWORD PTR [edi+216]
  00186	8b 7d 0c	 mov	 edi, DWORD PTR _nSourceBlockIndex$[ebp]

; 777  : 
; 778  : 		eXScalePosition = eXScalePositionNext;

  00189	89 5d ec	 mov	 DWORD PTR _eXScalePosition$1$[ebp], ebx
  0018c	8b 5d 10	 mov	 ebx, DWORD PTR _nTargetBlockIndex$[ebp]
$LN72@MoveBlock:

; 766  : 	while( psnUpdate != sourcePos)

  0018f	8b 45 08	 mov	 eax, DWORD PTR _sourcePos$2$[ebp]
  00192	39 45 f8	 cmp	 DWORD PTR _psnUpdate$1$[ebp], eax
  00195	75 8c		 jne	 SHORT $LL2@MoveBlock
$LN3@MoveBlock:
  00197	5f		 pop	 edi

; 782  : }

  00198	5e		 pop	 esi
  00199	b0 01		 mov	 al, 1
  0019b	5b		 pop	 ebx
  0019c	8b e5		 mov	 esp, ebp
  0019e	5d		 pop	 ebp
  0019f	c2 0c 00	 ret	 12			; 0000000cH
$LN5@MoveBlock:
  001a2	5f		 pop	 edi
  001a3	5e		 pop	 esi
  001a4	32 c0		 xor	 al, al
  001a6	5b		 pop	 ebx
  001a7	8b e5		 mov	 esp, ebp
  001a9	5d		 pop	 ebp
  001aa	c2 0c 00	 ret	 12			; 0000000cH
$LN71@MoveBlock:
; File C:\Program Files (x86)\Microsoft Visual Studio\2019\Community\VC\Tools\MSVC\14.29.30133\atlmfc\include\afxcoll.inl

; 431  : 			AfxThrowInvalidArgException();

  001ad	e8 00 00 00 00	 call	 ?AfxThrowInvalidArgException@@YGXXZ ; AfxThrowInvalidArgException
$LN75@MoveBlock:
  001b2	cc		 int	 3
?MoveBlock@CBlocksColumn@@QAE_NPAVCBlocksPosition@@HH@Z ENDP ; CBlocksColumn::MoveBlock
_TEXT	ENDS
; Function compile flags: /Ogtp
; File D:\git\src\IBK\IBK_DRFN\ProjSrc\SrcChartEx\ChartOCX\ChartObject\BlocksColumn.cpp
; File C:\Program Files (x86)\Microsoft Visual Studio\2019\Community\VC\Tools\MSVC\14.29.30133\atlmfc\include\afxtempl.h
; File C:\Program Files (x86)\Microsoft Visual Studio\2019\Community\VC\Tools\MSVC\14.29.30133\atlmfc\include\afxcoll.inl
; File D:\git\src\IBK\IBK_DRFN\ProjSrc\SrcChartEx\ChartOCX\ChartObject\BlocksColumn.cpp
;	COMDAT ?FindGraph@CBlocksColumn@@QBEHPAXPAVCGraphSearchInfo@@@Z
_TEXT	SEGMENT
_pPacketRQ$ = 8						; size = 4
_p_pGraphSearchInfo$ = 12				; size = 4
?FindGraph@CBlocksColumn@@QBEHPAXPAVCGraphSearchInfo@@@Z PROC ; CBlocksColumn::FindGraph, COMDAT
; _this$ = ecx

; 665  : {

  00000	55		 push	 ebp
  00001	8b ec		 mov	 ebp, esp
  00003	53		 push	 ebx
  00004	56		 push	 esi
  00005	8b f1		 mov	 esi, ecx

; 666  : 	if( !p_pGraphSearchInfo)	return FALSE;

  00007	8b 4d 0c	 mov	 ecx, DWORD PTR _p_pGraphSearchInfo$[ebp]
  0000a	57		 push	 edi
  0000b	85 c9		 test	 ecx, ecx
  0000d	74 27		 je	 SHORT $LN22@FindGraph

; 667  : 
; 668  : 	int nRowBlockIndex = 0;
; 669  : 	CBlockImp *pBlock = NULL;
; 670  : 	POSITION posBlock = m_BlockList.GetHeadPosition();

  0000f	8b 76 14	 mov	 esi, DWORD PTR [esi+20]
  00012	33 db		 xor	 ebx, ebx

; 671  : 	while( posBlock)

  00014	85 f6		 test	 esi, esi
  00016	74 1e		 je	 SHORT $LN22@FindGraph
$LL2@FindGraph:
; File C:\Program Files (x86)\Microsoft Visual Studio\2019\Community\VC\Tools\MSVC\14.29.30133\atlmfc\include\afxtempl.h

; 1898 : 		{ return (TYPE)BASE_CLASS::GetNext(rPosition); }

  00018	8b 7e 08	 mov	 edi, DWORD PTR [esi+8]
; File C:\Program Files (x86)\Microsoft Visual Studio\2019\Community\VC\Tools\MSVC\14.29.30133\atlmfc\include\afxcoll.inl

; 439  : 		rPosition = (POSITION) pNode->pNext;

  0001b	8b 36		 mov	 esi, DWORD PTR [esi]
; File D:\git\src\IBK\IBK_DRFN\ProjSrc\SrcChartEx\ChartOCX\ChartObject\BlocksColumn.cpp

; 674  : 		if( !pBlock) continue;

  0001d	85 ff		 test	 edi, edi
  0001f	74 11		 je	 SHORT $LN19@FindGraph

; 675  : 		if( p_pGraphSearchInfo->FindGraph(pPacketRQ, pBlock))

  00021	8b 01		 mov	 eax, DWORD PTR [ecx]
  00023	57		 push	 edi
  00024	ff 75 08	 push	 DWORD PTR _pPacketRQ$[ebp]
  00027	ff 50 14	 call	 DWORD PTR [eax+20]
  0002a	85 c0		 test	 eax, eax
  0002c	75 11		 jne	 SHORT $LN18@FindGraph

; 680  : 		}
; 681  : 		nRowBlockIndex++;

  0002e	8b 4d 0c	 mov	 ecx, DWORD PTR _p_pGraphSearchInfo$[ebp]
  00031	43		 inc	 ebx
$LN19@FindGraph:

; 671  : 	while( posBlock)

  00032	85 f6		 test	 esi, esi
  00034	75 e2		 jne	 SHORT $LL2@FindGraph
$LN22@FindGraph:
  00036	5f		 pop	 edi

; 682  : 	}
; 683  : 	return FALSE;
; 684  : }

  00037	5e		 pop	 esi
  00038	33 c0		 xor	 eax, eax
  0003a	5b		 pop	 ebx
  0003b	5d		 pop	 ebp
  0003c	c2 08 00	 ret	 8
$LN18@FindGraph:

; 676  : 		{
; 677  : 			p_pGraphSearchInfo->m_nRowBlockIndex = nRowBlockIndex;

  0003f	8b 45 0c	 mov	 eax, DWORD PTR _p_pGraphSearchInfo$[ebp]

; 678  : 			p_pGraphSearchInfo->m_pBlockImp = pBlock;

  00042	89 78 30	 mov	 DWORD PTR [eax+48], edi
  00045	5f		 pop	 edi
  00046	89 58 1c	 mov	 DWORD PTR [eax+28], ebx

; 679  : 			return TRUE;

  00049	b8 01 00 00 00	 mov	 eax, 1

; 682  : 	}
; 683  : 	return FALSE;
; 684  : }

  0004e	5e		 pop	 esi
  0004f	5b		 pop	 ebx
  00050	5d		 pop	 ebp
  00051	c2 08 00	 ret	 8
?FindGraph@CBlocksColumn@@QBEHPAXPAVCGraphSearchInfo@@@Z ENDP ; CBlocksColumn::FindGraph
_TEXT	ENDS
; Function compile flags: /Ogtp
; File D:\git\src\IBK\IBK_DRFN\ProjSrc\SrcChartEx\ChartOCX\ChartObject\BlocksColumn.cpp
; File C:\Program Files (x86)\Microsoft Visual Studio\2019\Community\VC\Tools\MSVC\14.29.30133\atlmfc\include\afxtempl.h
; File D:\git\src\IBK\IBK_DRFN\ProjSrc\SrcChartEx\ChartOCX\ChartObject\BlocksColumn.cpp
; File C:\Program Files (x86)\Microsoft Visual Studio\2019\Community\VC\Tools\MSVC\14.29.30133\atlmfc\include\afxcoll.inl
; File C:\Program Files (x86)\Microsoft Visual Studio\2019\Community\VC\Tools\MSVC\14.29.30133\atlmfc\include\afxtempl.h
; File D:\git\src\IBK\IBK_DRFN\ProjSrc\SrcChartEx\ChartOCX\ChartObject\BlocksColumn.cpp
;	COMDAT ?FindGraph@CBlocksColumn@@QBEHPAVCGraphSearchInfo@@@Z
_TEXT	SEGMENT
_pBlock$1$ = -4						; size = 4
_posCurrentBlock$1$ = 8					; size = 4
_p_pGraphSearchInfo$ = 8				; size = 4
?FindGraph@CBlocksColumn@@QBEHPAVCGraphSearchInfo@@@Z PROC ; CBlocksColumn::FindGraph, COMDAT
; _this$ = ecx

; 634  : {

  00000	55		 push	 ebp
  00001	8b ec		 mov	 ebp, esp
  00003	51		 push	 ecx
  00004	57		 push	 edi

; 635  : 	if( !p_pGraphSearchInfo)	return FALSE;

  00005	8b 7d 08	 mov	 edi, DWORD PTR _p_pGraphSearchInfo$[ebp]
  00008	85 ff		 test	 edi, edi
  0000a	75 09		 jne	 SHORT $LN4@FindGraph
  0000c	33 c0		 xor	 eax, eax
  0000e	5f		 pop	 edi

; 661  : }

  0000f	8b e5		 mov	 esp, ebp
  00011	5d		 pop	 ebp
  00012	c2 04 00	 ret	 4
$LN4@FindGraph:
  00015	53		 push	 ebx

; 636  : 
; 637  : 	int nRowBlockIndex	= p_pGraphSearchInfo->m_nRowBlockIndex;

  00016	8b 5f 1c	 mov	 ebx, DWORD PTR [edi+28]
  00019	56		 push	 esi

; 638  : 	POSITION posBlock	= ( p_pGraphSearchInfo->m_posRowBlock ? p_pGraphSearchInfo->m_posRowBlock : m_BlockList.FindIndex( p_pGraphSearchInfo->m_nRowBlockIndex));

  0001a	8b 77 08	 mov	 esi, DWORD PTR [edi+8]
  0001d	85 f6		 test	 esi, esi
  0001f	75 0f		 jne	 SHORT $LL2@FindGraph
  00021	53		 push	 ebx
  00022	83 c1 10	 add	 ecx, 16			; 00000010H
  00025	e8 00 00 00 00	 call	 ?FindIndex@CObList@@QBEPAU__POSITION@@H@Z ; CObList::FindIndex
  0002a	8b f0		 mov	 esi, eax

; 639  : 
; 640  : 	CBlockImp *pBlock = NULL;
; 641  : 	POSITION posCurrentBlock = NULL;
; 642  : 	while( posBlock)

  0002c	85 f6		 test	 esi, esi
  0002e	74 20		 je	 SHORT $LN26@FindGraph
$LL2@FindGraph:
; File C:\Program Files (x86)\Microsoft Visual Studio\2019\Community\VC\Tools\MSVC\14.29.30133\atlmfc\include\afxtempl.h

; 1898 : 		{ return (TYPE)BASE_CLASS::GetNext(rPosition); }

  00030	8b 4e 08	 mov	 ecx, DWORD PTR [esi+8]
; File D:\git\src\IBK\IBK_DRFN\ProjSrc\SrcChartEx\ChartOCX\ChartObject\BlocksColumn.cpp

; 644  : 		posCurrentBlock = posBlock;

  00033	89 75 08	 mov	 DWORD PTR _posCurrentBlock$1$[ebp], esi
; File C:\Program Files (x86)\Microsoft Visual Studio\2019\Community\VC\Tools\MSVC\14.29.30133\atlmfc\include\afxcoll.inl

; 439  : 		rPosition = (POSITION) pNode->pNext;

  00036	8b 36		 mov	 esi, DWORD PTR [esi]
; File C:\Program Files (x86)\Microsoft Visual Studio\2019\Community\VC\Tools\MSVC\14.29.30133\atlmfc\include\afxtempl.h

; 1898 : 		{ return (TYPE)BASE_CLASS::GetNext(rPosition); }

  00038	89 4d fc	 mov	 DWORD PTR _pBlock$1$[ebp], ecx
; File D:\git\src\IBK\IBK_DRFN\ProjSrc\SrcChartEx\ChartOCX\ChartObject\BlocksColumn.cpp

; 646  : 		if( !pBlock) continue;

  0003b	85 c9		 test	 ecx, ecx
  0003d	74 0d		 je	 SHORT $LN21@FindGraph

; 647  : 		if( p_pGraphSearchInfo->FindGraph( pBlock))

  0003f	8b 07		 mov	 eax, DWORD PTR [edi]
  00041	51		 push	 ecx
  00042	8b cf		 mov	 ecx, edi
  00044	ff 50 10	 call	 DWORD PTR [eax+16]
  00047	85 c0		 test	 eax, eax
  00049	75 1e		 jne	 SHORT $LN20@FindGraph

; 653  : 		}
; 654  : 		nRowBlockIndex++;

  0004b	43		 inc	 ebx
$LN21@FindGraph:

; 639  : 
; 640  : 	CBlockImp *pBlock = NULL;
; 641  : 	POSITION posCurrentBlock = NULL;
; 642  : 	while( posBlock)

  0004c	85 f6		 test	 esi, esi
  0004e	75 e0		 jne	 SHORT $LL2@FindGraph
$LN26@FindGraph:
  00050	5e		 pop	 esi
  00051	5b		 pop	 ebx

; 655  : 	}
; 656  : 
; 657  : 	// (2007/4/11 - Seung-Won, Bae) Reset for Next BlockColumn Search
; 658  : 	p_pGraphSearchInfo->m_posRowBlock		= NULL;

  00052	c7 47 08 00 00
	00 00		 mov	 DWORD PTR [edi+8], 0

; 659  : 	p_pGraphSearchInfo->m_nRowBlockIndex	= 0;
; 660  : 	return FALSE;

  00059	33 c0		 xor	 eax, eax
  0005b	c7 47 1c 00 00
	00 00		 mov	 DWORD PTR [edi+28], 0
  00062	5f		 pop	 edi

; 661  : }

  00063	8b e5		 mov	 esp, ebp
  00065	5d		 pop	 ebp
  00066	c2 04 00	 ret	 4
$LN20@FindGraph:

; 648  : 		{
; 649  : 			p_pGraphSearchInfo->m_posRowBlock		= posCurrentBlock;

  00069	8b 45 08	 mov	 eax, DWORD PTR _posCurrentBlock$1$[ebp]
  0006c	89 47 08	 mov	 DWORD PTR [edi+8], eax

; 650  : 			p_pGraphSearchInfo->m_nRowBlockIndex	= nRowBlockIndex;
; 651  : 			p_pGraphSearchInfo->m_pBlockImp			= pBlock;

  0006f	8b 45 fc	 mov	 eax, DWORD PTR _pBlock$1$[ebp]
  00072	5e		 pop	 esi
  00073	89 5f 1c	 mov	 DWORD PTR [edi+28], ebx
  00076	89 47 30	 mov	 DWORD PTR [edi+48], eax

; 652  : 			return TRUE;

  00079	b8 01 00 00 00	 mov	 eax, 1
  0007e	5b		 pop	 ebx
  0007f	5f		 pop	 edi

; 661  : }

  00080	8b e5		 mov	 esp, ebp
  00082	5d		 pop	 ebp
  00083	c2 04 00	 ret	 4
?FindGraph@CBlocksColumn@@QBEHPAVCGraphSearchInfo@@@Z ENDP ; CBlocksColumn::FindGraph
_TEXT	ENDS
; Function compile flags: /Ogtp
; File D:\git\src\IBK\IBK_DRFN\ProjSrc\SrcChartEx\ChartOCX\ChartObject\BlocksColumn.cpp
;	COMDAT ?GetVertScaleGroup@CBlocksColumn@@QBEPAVCVertScaleGroup@@HH@Z
_TEXT	SEGMENT
_nBlockRowIndex$ = 8					; size = 4
_nVertScaleGroupIndex$ = 12				; size = 4
?GetVertScaleGroup@CBlocksColumn@@QBEPAVCVertScaleGroup@@HH@Z PROC ; CBlocksColumn::GetVertScaleGroup, COMDAT
; _this$ = ecx

; 625  : {

  00000	55		 push	 ebp
  00001	8b ec		 mov	 ebp, esp

; 615  : 	if( p_nRowIndex < 0 || GetBlockCount() <= p_nRowIndex) return NULL;

  00003	8b 45 08	 mov	 eax, DWORD PTR _nBlockRowIndex$[ebp]
  00006	85 c0		 test	 eax, eax
  00008	78 2c		 js	 SHORT $LN17@GetVertSca
  0000a	39 41 1c	 cmp	 DWORD PTR [ecx+28], eax
  0000d	7e 27		 jle	 SHORT $LN17@GetVertSca

; 616  : 
; 617  : 	POSITION posBlock = m_BlockList.FindIndex( p_nRowIndex);

  0000f	50		 push	 eax
  00010	83 c1 10	 add	 ecx, 16			; 00000010H
  00013	e8 00 00 00 00	 call	 ?FindIndex@CObList@@QBEPAU__POSITION@@H@Z ; CObList::FindIndex

; 618  : 	if( !posBlock) return NULL;

  00018	85 c0		 test	 eax, eax
  0001a	74 1a		 je	 SHORT $LN17@GetVertSca

; 619  : 
; 620  : 	return m_BlockList.GetAt( posBlock);

  0001c	8b 48 08	 mov	 ecx, DWORD PTR [eax+8]

; 626  : 	CBlockImp* pBlock = GetBlock( nBlockRowIndex);
; 627  : 	if( !pBlock) return NULL;

  0001f	85 c9		 test	 ecx, ecx
  00021	74 13		 je	 SHORT $LN17@GetVertSca

; 628  : 
; 629  : 	return pBlock->GetVertScaleGroupList().GetVertScaleGroup( nVertScaleGroupIndex);

  00023	ff 75 0c	 push	 DWORD PTR _nVertScaleGroupIndex$[ebp]
  00026	e8 00 00 00 00	 call	 ?GetVertScaleGroupList@CBlockImp@@QAEAAVCVertScaleGroupList@@XZ ; CBlockImp::GetVertScaleGroupList
  0002b	8b c8		 mov	 ecx, eax
  0002d	e8 00 00 00 00	 call	 ?GetVertScaleGroup@CVertScaleGroupList@@QBEPAVCVertScaleGroup@@H@Z ; CVertScaleGroupList::GetVertScaleGroup

; 630  : }

  00032	5d		 pop	 ebp
  00033	c2 08 00	 ret	 8
$LN17@GetVertSca:

; 626  : 	CBlockImp* pBlock = GetBlock( nBlockRowIndex);
; 627  : 	if( !pBlock) return NULL;

  00036	33 c0		 xor	 eax, eax

; 630  : }

  00038	5d		 pop	 ebp
  00039	c2 08 00	 ret	 8
?GetVertScaleGroup@CBlocksColumn@@QBEPAVCVertScaleGroup@@HH@Z ENDP ; CBlocksColumn::GetVertScaleGroup
_TEXT	ENDS
; Function compile flags: /Ogtp
; File D:\git\src\IBK\IBK_DRFN\ProjSrc\SrcChartEx\ChartOCX\ChartObject\BlocksColumn.cpp
;	COMDAT ?GetBlock@CBlocksColumn@@QBEPAVCBlockImp@@H@Z
_TEXT	SEGMENT
_p_nRowIndex$ = 8					; size = 4
?GetBlock@CBlocksColumn@@QBEPAVCBlockImp@@H@Z PROC	; CBlocksColumn::GetBlock, COMDAT
; _this$ = ecx

; 614  : {

  00000	55		 push	 ebp
  00001	8b ec		 mov	 ebp, esp

; 615  : 	if( p_nRowIndex < 0 || GetBlockCount() <= p_nRowIndex) return NULL;

  00003	8b 45 08	 mov	 eax, DWORD PTR _p_nRowIndex$[ebp]
  00006	85 c0		 test	 eax, eax
  00008	78 19		 js	 SHORT $LN3@GetBlock
  0000a	39 41 1c	 cmp	 DWORD PTR [ecx+28], eax
  0000d	7e 14		 jle	 SHORT $LN3@GetBlock

; 616  : 
; 617  : 	POSITION posBlock = m_BlockList.FindIndex( p_nRowIndex);

  0000f	50		 push	 eax
  00010	83 c1 10	 add	 ecx, 16			; 00000010H
  00013	e8 00 00 00 00	 call	 ?FindIndex@CObList@@QBEPAU__POSITION@@H@Z ; CObList::FindIndex

; 618  : 	if( !posBlock) return NULL;

  00018	85 c0		 test	 eax, eax
  0001a	74 07		 je	 SHORT $LN3@GetBlock

; 619  : 
; 620  : 	return m_BlockList.GetAt( posBlock);

  0001c	8b 40 08	 mov	 eax, DWORD PTR [eax+8]

; 621  : }

  0001f	5d		 pop	 ebp
  00020	c2 04 00	 ret	 4
$LN3@GetBlock:

; 615  : 	if( p_nRowIndex < 0 || GetBlockCount() <= p_nRowIndex) return NULL;

  00023	33 c0		 xor	 eax, eax

; 621  : }

  00025	5d		 pop	 ebp
  00026	c2 04 00	 ret	 4
?GetBlock@CBlocksColumn@@QBEPAVCBlockImp@@H@Z ENDP	; CBlocksColumn::GetBlock
_TEXT	ENDS
; Function compile flags: /Ogtp
; File D:\git\src\IBK\IBK_DRFN\ProjSrc\SrcChartEx\ChartOCX\ChartObject\BlocksColumn.cpp
; File C:\Program Files (x86)\Microsoft Visual Studio\2019\Community\VC\Tools\MSVC\14.29.30133\atlmfc\include\afxcoll.inl
; File D:\git\src\IBK\IBK_DRFN\ProjSrc\SrcChartEx\ChartOCX\ChartObject\BlocksColumn.cpp
;	COMDAT ?DeleteAllIndicator@CBlocksColumn@@QAEHPBD@Z
_TEXT	SEGMENT
_p_szIndicatorName$ = 8					; size = 4
?DeleteAllIndicator@CBlocksColumn@@QAEHPBD@Z PROC	; CBlocksColumn::DeleteAllIndicator, COMDAT
; _this$ = ecx

; 592  : {

  00000	55		 push	 ebp
  00001	8b ec		 mov	 ebp, esp
  00003	53		 push	 ebx

; 593  : 	if( !p_szIndicatorName)		return FALSE;

  00004	8b 5d 08	 mov	 ebx, DWORD PTR _p_szIndicatorName$[ebp]
  00007	85 db		 test	 ebx, ebx
  00009	74 42		 je	 SHORT $LN21@DeleteAllI

; 594  : 	if( !*p_szIndicatorName)	return FALSE;

  0000b	80 3b 00	 cmp	 BYTE PTR [ebx], 0
  0000e	74 3d		 je	 SHORT $LN21@DeleteAllI

; 595  : 
; 596  : 	BOOL bResult = FALSE;

  00010	56		 push	 esi

; 597  : 	CBlockImp *pBlock = NULL;
; 598  : 	POSITION posBlock = m_BlockList.GetHeadPosition();

  00011	8b 71 14	 mov	 esi, DWORD PTR [ecx+20]
  00014	57		 push	 edi
  00015	33 ff		 xor	 edi, edi

; 599  : 	while( posBlock)

  00017	85 f6		 test	 esi, esi
  00019	74 29		 je	 SHORT $LN3@DeleteAllI
  0001b	0f 1f 44 00 00	 npad	 5
$LL2@DeleteAllI:

; 600  : 	{
; 601  : 		pBlock = m_BlockList.GetNext( posBlock);

  00020	8b 4e 08	 mov	 ecx, DWORD PTR [esi+8]
; File C:\Program Files (x86)\Microsoft Visual Studio\2019\Community\VC\Tools\MSVC\14.29.30133\atlmfc\include\afxcoll.inl

; 432  : 		rPosition = (POSITION) pNode->pNext;

  00023	8b 36		 mov	 esi, DWORD PTR [esi]
; File D:\git\src\IBK\IBK_DRFN\ProjSrc\SrcChartEx\ChartOCX\ChartObject\BlocksColumn.cpp

; 602  : 		if( !pBlock) continue;

  00025	85 c9		 test	 ecx, ecx
  00027	74 17		 je	 SHORT $LN7@DeleteAllI

; 603  : 		if( pBlock->GetVertScaleGroupList().DeleteAllIndicator( p_szIndicatorName)) bResult = TRUE;

  00029	53		 push	 ebx
  0002a	e8 00 00 00 00	 call	 ?GetVertScaleGroupList@CBlockImp@@QAEAAVCVertScaleGroupList@@XZ ; CBlockImp::GetVertScaleGroupList
  0002f	8b c8		 mov	 ecx, eax
  00031	e8 00 00 00 00	 call	 ?DeleteAllIndicator@CVertScaleGroupList@@QAEHPBD@Z ; CVertScaleGroupList::DeleteAllIndicator
  00036	85 c0		 test	 eax, eax
  00038	b8 01 00 00 00	 mov	 eax, 1
  0003d	0f 45 f8	 cmovne	 edi, eax
$LN7@DeleteAllI:

; 599  : 	while( posBlock)

  00040	85 f6		 test	 esi, esi
  00042	75 dc		 jne	 SHORT $LL2@DeleteAllI
$LN3@DeleteAllI:

; 604  : 	}
; 605  : 	return bResult;

  00044	8b c7		 mov	 eax, edi
  00046	5f		 pop	 edi
  00047	5e		 pop	 esi
  00048	5b		 pop	 ebx

; 606  : }

  00049	5d		 pop	 ebp
  0004a	c2 04 00	 ret	 4
$LN21@DeleteAllI:

; 594  : 	if( !*p_szIndicatorName)	return FALSE;

  0004d	33 c0		 xor	 eax, eax
  0004f	5b		 pop	 ebx

; 606  : }

  00050	5d		 pop	 ebp
  00051	c2 04 00	 ret	 4
?DeleteAllIndicator@CBlocksColumn@@QAEHPBD@Z ENDP	; CBlocksColumn::DeleteAllIndicator
_TEXT	ENDS
; Function compile flags: /Ogtp
; File D:\git\src\IBK\IBK_DRFN\ProjSrc\SrcChartEx\ChartOCX\ChartObject\BlocksColumn.cpp
; File C:\Program Files (x86)\Microsoft Visual Studio\2019\Community\VC\Tools\MSVC\14.29.30133\atlmfc\include\afxwin1.inl
; File D:\git\src\IBK\IBK_DRFN\ProjSrc\SrcChartEx\ChartOCX\Include_Chart\Dll_Load\IMetaTable.h
; File C:\Program Files (x86)\Microsoft Visual Studio\2019\Community\VC\Tools\MSVC\14.29.30133\atlmfc\include\afxwin1.inl
; File D:\git\src\IBK\IBK_DRFN\ProjSrc\SrcChartEx\ChartOCX\ChartObject\BlocksColumn.cpp
; File D:\git\src\IBK\IBK_DRFN\ProjSrc\SrcChartEx\ChartOCX\Include_Chart\Dll_Load\IMetaTable.h
; File C:\Program Files (x86)\Microsoft Visual Studio\2019\Community\VC\Tools\MSVC\14.29.30133\atlmfc\include\afxwin1.inl
; File D:\git\src\IBK\IBK_DRFN\ProjSrc\SrcChartEx\ChartOCX\ChartObject\BlocksColumn.cpp
; File D:\git\src\IBK\IBK_DRFN\ProjSrc\SrcChartEx\ChartOCX\Include_Chart\Dll_Load\IMetaTable.h
; File D:\git\src\IBK\IBK_DRFN\ProjSrc\SrcChartEx\ChartOCX\ChartObject\BlocksColumn.cpp
; File C:\Program Files (x86)\Microsoft Visual Studio\2019\Community\VC\Tools\MSVC\14.29.30133\atlmfc\include\afxwin1.inl
; File D:\git\src\IBK\IBK_DRFN\ProjSrc\SrcChartEx\ChartOCX\ChartObject\BlocksColumn.cpp
; File C:\Program Files (x86)\Microsoft Visual Studio\2019\Community\VC\Tools\MSVC\14.29.30133\atlmfc\include\afxcoll.inl
; File D:\git\src\IBK\IBK_DRFN\ProjSrc\SrcChartEx\ChartOCX\ChartObject\BlocksColumn.cpp
; File D:\git\src\IBK\IBK_DRFN\ProjSrc\SrcChartEx\ChartOCX\Include_Chart\BlockBaseData.h
; File D:\git\src\IBK\IBK_DRFN\ProjSrc\SrcChartEx\ChartOCX\ChartObject\BlocksColumn.cpp
; File D:\git\src\IBK\IBK_DRFN\ProjSrc\SrcChartEx\ChartOCX\Include_Chart\BlockBaseData.h
; File D:\git\src\IBK\IBK_DRFN\ProjSrc\SrcChartEx\ChartOCX\ChartObject\BlocksColumn.cpp
; File C:\Program Files (x86)\Microsoft Visual Studio\2019\Community\VC\Tools\MSVC\14.29.30133\atlmfc\include\afxcoll.inl
; File D:\git\src\IBK\IBK_DRFN\ProjSrc\SrcChartEx\ChartOCX\ChartObject\BlocksColumn.cpp
;	COMDAT ?DeleteBlock@CBlocksColumn@@QAE_NPAVCBlockImp@@_N@Z
_TEXT	SEGMENT
_blockBehaviorData$2 = -52				; size = 20
___mlrs__$3 = -32					; size = 4
_pos$1$ = -28						; size = 4
$T4 = -24						; size = 8
_pMainBlockBaseData$1$ = -20				; size = 4
_strTitle$5 = -16					; size = 4
__$EHRec$ = -12						; size = 12
_pBlock$ = 8						; size = 4
_pTargetBlock$1$ = 12					; size = 4
_pos$6 = 12						; size = 4
_strMessage$7 = 12					; size = 4
_bAutoHorzScaleDelete$ = 12				; size = 1
?DeleteBlock@CBlocksColumn@@QAE_NPAVCBlockImp@@_N@Z PROC ; CBlocksColumn::DeleteBlock, COMDAT
; _this$ = ecx

; 530  : {

  00000	55		 push	 ebp
  00001	8b ec		 mov	 ebp, esp
  00003	6a ff		 push	 -1
  00005	68 00 00 00 00	 push	 __ehhandler$?DeleteBlock@CBlocksColumn@@QAE_NPAVCBlockImp@@_N@Z
  0000a	64 a1 00 00 00
	00		 mov	 eax, DWORD PTR fs:0
  00010	50		 push	 eax
  00011	83 ec 28	 sub	 esp, 40			; 00000028H
  00014	53		 push	 ebx
  00015	56		 push	 esi
  00016	57		 push	 edi
  00017	a1 00 00 00 00	 mov	 eax, DWORD PTR ___security_cookie
  0001c	33 c5		 xor	 eax, ebp
  0001e	50		 push	 eax
  0001f	8d 45 f4	 lea	 eax, DWORD PTR __$EHRec$[ebp]
  00022	64 a3 00 00 00
	00		 mov	 DWORD PTR fs:0, eax
  00028	8b d9		 mov	 ebx, ecx

; 531  : 	assert(pBlock != NULL);
; 532  : 	POSITION pos = m_BlockList.Find(pBlock);

  0002a	8b 7d 08	 mov	 edi, DWORD PTR _pBlock$[ebp]
  0002d	8d 73 10	 lea	 esi, DWORD PTR [ebx+16]
  00030	6a 00		 push	 0
  00032	57		 push	 edi
  00033	8b ce		 mov	 ecx, esi
  00035	e8 00 00 00 00	 call	 ?Find@CObList@@QBEPAU__POSITION@@PAVCObject@@PAU2@@Z ; CObList::Find
  0003a	89 45 e4	 mov	 DWORD PTR _pos$1$[ebp], eax

; 533  : 	if(pos == NULL)

  0003d	85 c0		 test	 eax, eax
  0003f	75 16		 jne	 SHORT $LN2@DeleteBloc

; 534  : 		return false;

  00041	32 c0		 xor	 al, al

; 589  : }

  00043	8b 4d f4	 mov	 ecx, DWORD PTR __$EHRec$[ebp]
  00046	64 89 0d 00 00
	00 00		 mov	 DWORD PTR fs:0, ecx
  0004d	59		 pop	 ecx
  0004e	5f		 pop	 edi
  0004f	5e		 pop	 esi
  00050	5b		 pop	 ebx
  00051	8b e5		 mov	 esp, ebp
  00053	5d		 pop	 ebp
  00054	c2 08 00	 ret	 8
$LN2@DeleteBloc:

; 535  : 
; 536  : 	if( !bAutoHorzScaleDelete)

  00057	80 7d 0c 00	 cmp	 BYTE PTR _bAutoHorzScaleDelete$[ebp], 0
  0005b	0f 85 95 01 00
	00		 jne	 $LN14@DeleteBloc

; 537  : 	{
; 538  : 		// HORZ_TOP, HORZ_BOTTOM, HORZ_BOTH   Dlg 
; 539  : 		CScaleBaseData::HORZSCALEPOSITION horzPosition = pBlock->GetBlockData().GetHorzScale().GetHorzScalePosition();

  00061	8b cf		 mov	 ecx, edi
  00063	e8 00 00 00 00	 call	 ?GetBlockData@CBlockImp@@QAEAAVCBlockData@@XZ ; CBlockImp::GetBlockData
  00068	8b c8		 mov	 ecx, eax
  0006a	e8 00 00 00 00	 call	 ?GetHorzScale@CBlockData@@QAEAAVCHorizontalScale@@XZ ; CBlockData::GetHorzScale
  0006f	8b c8		 mov	 ecx, eax
  00071	ff 15 00 00 00
	00		 call	 DWORD PTR __imp_?GetHorzScalePosition@CHorizontalScale@@QBE?AW4HORZSCALEPOSITION@CScaleBaseData@@XZ

; 540  : 		if( horzPosition == CScaleBaseData::HORZ_TOP || horzPosition == CScaleBaseData::HORZ_BOTTOM || horzPosition == CScaleBaseData::HORZ_BOTH)

  00077	85 c0		 test	 eax, eax
  00079	74 0e		 je	 SHORT $LN5@DeleteBloc
  0007b	83 f8 01	 cmp	 eax, 1
  0007e	74 09		 je	 SHORT $LN5@DeleteBloc
  00080	83 f8 02	 cmp	 eax, 2
  00083	0f 85 6d 01 00
	00		 jne	 $LN14@DeleteBloc
$LN5@DeleteBloc:

; 50   : 	if(m_pMain == NULL)

  00089	8b 4b 04	 mov	 ecx, DWORD PTR [ebx+4]
  0008c	85 c9		 test	 ecx, ecx
  0008e	75 04		 jne	 SHORT $LN21@DeleteBloc

; 51   : 		return NULL;

  00090	33 c0		 xor	 eax, eax
  00092	eb 05		 jmp	 SHORT $LN60@DeleteBloc
$LN21@DeleteBloc:

; 52   : 
; 53   : 	return m_pMain->GetMainBlockBaseData();

  00094	e8 00 00 00 00	 call	 ?GetMainBlockBaseData@CMainBlockImp@@QBEPAVCMainBlockBaseData@@XZ ; CMainBlockImp::GetMainBlockBaseData
$LN60@DeleteBloc:

; 541  : 		{
; 542  : 			CMainBlockBaseData* pMainBlockBaseData = GetMainBlockBaseData();
; 543  : 			int nAnswer = IDNO;
; 544  : 			if( pMainBlockBaseData->DoesMessageBoxShow())

  00099	8b c8		 mov	 ecx, eax
  0009b	89 45 ec	 mov	 DWORD PTR _pMainBlockBaseData$1$[ebp], eax
  0009e	e8 00 00 00 00	 call	 ?DoesMessageBoxShow@CMainBlockBaseData@@QBEHXZ ; CMainBlockBaseData::DoesMessageBoxShow
  000a3	85 c0		 test	 eax, eax
  000a5	0f 84 c5 00 00
	00		 je	 $LN56@DeleteBloc

; 545  : 			{
; 546  : 				ML_SET_LANGUAGE_RES();

  000ab	e8 00 00 00 00	 call	 ?AfxGetStaticModuleState@@YGPAVAFX_MODULE_STATE@@XZ ; AfxGetStaticModuleState
  000b0	8b 48 08	 mov	 ecx, DWORD PTR [eax+8]
  000b3	51		 push	 ecx
  000b4	ff 73 2c	 push	 DWORD PTR [ebx+44]
  000b7	b9 00 00 00 00	 mov	 ecx, OFFSET ?g_iMetaTable@@3VIMetaTable@@A ; g_iMetaTable
  000bc	e8 00 00 00 00	 call	 ?LoadResourceDLL@IMetaTable@@QAEPAUHINSTANCE__@@PAUHWND__@@PAU2@@Z ; IMetaTable::LoadResourceDLL
  000c1	8b f8		 mov	 edi, eax
; File C:\Program Files (x86)\Microsoft Visual Studio\2019\Community\VC\Tools\MSVC\14.29.30133\atlmfc\include\afxwin1.inl

; 25   : 		return afxCurrentResourceHandle; }

  000c3	e8 00 00 00 00	 call	 ?AfxGetModuleState@@YGPAVAFX_MODULE_STATE@@XZ ; AfxGetModuleState
; File D:\git\src\IBK\IBK_DRFN\ProjSrc\SrcChartEx\ChartOCX\Include_Chart\Dll_Load\IMetaTable.h

; 1032 : 		m_hInstance = AfxGetResourceHandle();

  000c8	8b 70 0c	 mov	 esi, DWORD PTR [eax+12]
  000cb	89 75 e0	 mov	 DWORD PTR ___mlrs__$3[ebp], esi
; File C:\Program Files (x86)\Microsoft Visual Studio\2019\Community\VC\Tools\MSVC\14.29.30133\atlmfc\include\afxwin1.inl

; 27   : 	{ ASSERT(hInstResource != NULL); afxCurrentResourceHandle = hInstResource; }

  000ce	e8 00 00 00 00	 call	 ?AfxGetModuleState@@YGPAVAFX_MODULE_STATE@@XZ ; AfxGetModuleState
  000d3	89 78 0c	 mov	 DWORD PTR [eax+12], edi
; File D:\git\src\IBK\IBK_DRFN\ProjSrc\SrcChartEx\ChartOCX\ChartObject\BlocksColumn.cpp

; 547  : 				CString strMessage;

  000d6	8d 4d 0c	 lea	 ecx, DWORD PTR _strMessage$7[ebp]
  000d9	c7 45 fc 00 00
	00 00		 mov	 DWORD PTR __$EHRec$[ebp+8], 0
  000e0	ff 15 00 00 00
	00		 call	 DWORD PTR __imp_??0?$CStringT@DV?$StrTraitMFC_DLL@DV?$ChTraitsCRT@D@ATL@@@@@ATL@@QAE@XZ

; 548  : 				strMessage.LoadString( IDS_USE_OLD_X_SCALE);

  000e6	6a 05		 push	 5
  000e8	8d 4d 0c	 lea	 ecx, DWORD PTR _strMessage$7[ebp]
  000eb	c6 45 fc 01	 mov	 BYTE PTR __$EHRec$[ebp+8], 1
  000ef	ff 15 00 00 00
	00		 call	 DWORD PTR __imp_?LoadStringA@?$CStringT@DV?$StrTraitMFC_DLL@DV?$ChTraitsCRT@D@ATL@@@@@ATL@@QAEHI@Z

; 549  : 				CString strTitle;

  000f5	8d 4d f0	 lea	 ecx, DWORD PTR _strTitle$5[ebp]
  000f8	ff 15 00 00 00
	00		 call	 DWORD PTR __imp_??0?$CStringT@DV?$StrTraitMFC_DLL@DV?$ChTraitsCRT@D@ATL@@@@@ATL@@QAE@XZ

; 550  : 				strTitle.LoadString( IDS_SELECT);

  000fe	6a 04		 push	 4
  00100	8d 4d f0	 lea	 ecx, DWORD PTR _strTitle$5[ebp]
  00103	c6 45 fc 02	 mov	 BYTE PTR __$EHRec$[ebp+8], 2
  00107	ff 15 00 00 00
	00		 call	 DWORD PTR __imp_?LoadStringA@?$CStringT@DV?$StrTraitMFC_DLL@DV?$ChTraitsCRT@D@ATL@@@@@ATL@@QAEHI@Z

; 551  : 				if( !pMainBlockBaseData)	nAnswer = AfxMessageBox(strMessage, MB_ICONQUESTION | MB_YESNO);

  0010d	8b 45 ec	 mov	 eax, DWORD PTR _pMainBlockBaseData$1$[ebp]
  00110	85 c0		 test	 eax, eax
  00112	75 0d		 jne	 SHORT $LN8@DeleteBloc
  00114	50		 push	 eax
  00115	6a 24		 push	 36			; 00000024H
  00117	ff 75 0c	 push	 DWORD PTR _strMessage$7[ebp]
  0011a	e8 00 00 00 00	 call	 ?AfxMessageBox@@YGHPBDII@Z ; AfxMessageBox
  0011f	eb 16		 jmp	 SHORT $LN61@DeleteBloc
$LN8@DeleteBloc:

; 552  : 				else						nAnswer = MessageBox(pMainBlockBaseData->GetParent_Handle(), strMessage, strTitle, MB_ICONQUESTION | MB_YESNO);

  00121	6a 24		 push	 36			; 00000024H
  00123	ff 75 f0	 push	 DWORD PTR _strTitle$5[ebp]
  00126	8b c8		 mov	 ecx, eax
  00128	ff 75 0c	 push	 DWORD PTR _strMessage$7[ebp]
  0012b	e8 00 00 00 00	 call	 ?GetParent_Handle@CMainBlockBaseData@@QBEPAUHWND__@@XZ ; CMainBlockBaseData::GetParent_Handle
  00130	50		 push	 eax
  00131	ff 15 00 00 00
	00		 call	 DWORD PTR __imp__MessageBoxA@16
$LN61@DeleteBloc:

; 553  : 			}

  00137	8d 4d f0	 lea	 ecx, DWORD PTR _strTitle$5[ebp]
  0013a	8b f8		 mov	 edi, eax
  0013c	ff 15 00 00 00
	00		 call	 DWORD PTR __imp_??1?$CStringT@DV?$StrTraitMFC_DLL@DV?$ChTraitsCRT@D@ATL@@@@@ATL@@QAE@XZ
  00142	8d 4d 0c	 lea	 ecx, DWORD PTR _strMessage$7[ebp]
  00145	ff 15 00 00 00
	00		 call	 DWORD PTR __imp_??1?$CStringT@DV?$StrTraitMFC_DLL@DV?$ChTraitsCRT@D@ATL@@@@@ATL@@QAE@XZ
; File D:\git\src\IBK\IBK_DRFN\ProjSrc\SrcChartEx\ChartOCX\Include_Chart\Dll_Load\IMetaTable.h

; 1036 : 	{

  0014b	c7 45 fc 03 00
	00 00		 mov	 DWORD PTR __$EHRec$[ebp+8], 3
; File C:\Program Files (x86)\Microsoft Visual Studio\2019\Community\VC\Tools\MSVC\14.29.30133\atlmfc\include\afxwin1.inl

; 27   : 	{ ASSERT(hInstResource != NULL); afxCurrentResourceHandle = hInstResource; }

  00152	e8 00 00 00 00	 call	 ?AfxGetModuleState@@YGPAVAFX_MODULE_STATE@@XZ ; AfxGetModuleState
; File D:\git\src\IBK\IBK_DRFN\ProjSrc\SrcChartEx\ChartOCX\ChartObject\BlocksColumn.cpp

; 556  : 			if( nAnswer == IDYES)

  00157	83 ff 06	 cmp	 edi, 6
; File D:\git\src\IBK\IBK_DRFN\ProjSrc\SrcChartEx\ChartOCX\Include_Chart\Dll_Load\IMetaTable.h

; 1038 : 	}

  0015a	c7 45 fc ff ff
	ff ff		 mov	 DWORD PTR __$EHRec$[ebp+8], -1
; File D:\git\src\IBK\IBK_DRFN\ProjSrc\SrcChartEx\ChartOCX\ChartObject\BlocksColumn.cpp

; 556  : 			if( nAnswer == IDYES)

  00161	8b 7d 08	 mov	 edi, DWORD PTR _pBlock$[ebp]
; File C:\Program Files (x86)\Microsoft Visual Studio\2019\Community\VC\Tools\MSVC\14.29.30133\atlmfc\include\afxwin1.inl

; 27   : 	{ ASSERT(hInstResource != NULL); afxCurrentResourceHandle = hInstResource; }

  00164	89 70 0c	 mov	 DWORD PTR [eax+12], esi
; File D:\git\src\IBK\IBK_DRFN\ProjSrc\SrcChartEx\ChartOCX\ChartObject\BlocksColumn.cpp

; 556  : 			if( nAnswer == IDYES)

  00167	8d 73 10	 lea	 esi, DWORD PTR [ebx+16]
  0016a	0f 85 86 00 00
	00		 jne	 $LN14@DeleteBloc
$LN56@DeleteBloc:

; 557  : 			{
; 558  : 				pMainBlockBaseData->GetScaleAttributes().SetHorzScaleMessageBoxShow(false);

  00170	8b 4d ec	 mov	 ecx, DWORD PTR _pMainBlockBaseData$1$[ebp]
  00173	6a 00		 push	 0
  00175	e8 00 00 00 00	 call	 ?GetScaleAttributes@CMainBlockBaseData@@QAEAAVCScaleAttributes@@XZ ; CMainBlockBaseData::GetScaleAttributes
  0017a	8b c8		 mov	 ecx, eax
  0017c	e8 00 00 00 00	 call	 ?SetHorzScaleMessageBoxShow@CScaleAttributes@@QAEX_N@Z ; CScaleAttributes::SetHorzScaleMessageBoxShow

; 559  : 
; 560  : 				POSITION pos = m_BlockList.Find(pBlock);

  00181	6a 00		 push	 0
  00183	57		 push	 edi
  00184	8b ce		 mov	 ecx, esi
  00186	e8 00 00 00 00	 call	 ?Find@CObList@@QBEPAU__POSITION@@PAVCObject@@PAU2@@Z ; CObList::Find
  0018b	89 45 0c	 mov	 DWORD PTR _pos$6[ebp], eax

; 561  : 				if( pos)

  0018e	85 c0		 test	 eax, eax
  00190	74 64		 je	 SHORT $LN14@DeleteBloc

; 562  : 				{
; 563  : 					if( pos == m_BlockList.GetTailPosition())	m_BlockList.GetPrev(pos);

  00192	3b 43 18	 cmp	 eax, DWORD PTR [ebx+24]
  00195	8b ce		 mov	 ecx, esi
  00197	8d 45 0c	 lea	 eax, DWORD PTR _pos$6[ebp]
  0019a	50		 push	 eax
  0019b	75 07		 jne	 SHORT $LN12@DeleteBloc
  0019d	e8 00 00 00 00	 call	 ?GetPrev@?$_CTypedPtrList@VCObList@@PAVCBlockImp@@@@QAEAAPAVCBlockImp@@AAPAU__POSITION@@@Z ; _CTypedPtrList<CObList,CBlockImp *>::GetPrev
  001a2	eb 05		 jmp	 SHORT $LN13@DeleteBloc
$LN12@DeleteBloc:

; 564  : 					else										m_BlockList.GetNext(pos);

  001a4	e8 00 00 00 00	 call	 ?GetNext@?$_CTypedPtrList@VCObList@@PAVCBlockImp@@@@QAEAAPAVCBlockImp@@AAPAU__POSITION@@@Z ; _CTypedPtrList<CObList,CBlockImp *>::GetNext
$LN13@DeleteBloc:
; File C:\Program Files (x86)\Microsoft Visual Studio\2019\Community\VC\Tools\MSVC\14.29.30133\atlmfc\include\afxcoll.inl

; 458  : 		if( pNode == NULL )

  001a9	8b 45 0c	 mov	 eax, DWORD PTR _pos$6[ebp]
  001ac	85 c0		 test	 eax, eax
  001ae	0f 84 b7 00 00
	00		 je	 $LN63@DeleteBloc
; File D:\git\src\IBK\IBK_DRFN\ProjSrc\SrcChartEx\ChartOCX\ChartObject\BlocksColumn.cpp

; 566  : 					CBlockImp* pTargetBlock = m_BlockList.GetAt( pos);

  001b4	8b 40 08	 mov	 eax, DWORD PTR [eax+8]
  001b7	89 45 0c	 mov	 DWORD PTR _pTargetBlock$1$[ebp], eax

; 567  : 					if( pTargetBlock)

  001ba	85 c0		 test	 eax, eax
  001bc	74 38		 je	 SHORT $LN14@DeleteBloc

; 568  : 					{
; 569  : 						// (2009/9/6 - Seung-Won, Bae) Do not support CHorizontalScale::SetHorzScalePosition() as public.
; 570  : 						//		To rearrange the row positions. Use CMainBlockImp::SetHorzScalePosition().
; 571  : 						m_pMain->SetHorzScalePosition( pTargetBlock->GetBlockData().GetHorzScale(), pBlock->GetBlockData().GetHorzScale().GetHorzScalePosition());

  001be	8b 43 04	 mov	 eax, DWORD PTR [ebx+4]
  001c1	8b cf		 mov	 ecx, edi
  001c3	8b 30		 mov	 esi, DWORD PTR [eax]
  001c5	e8 00 00 00 00	 call	 ?GetBlockData@CBlockImp@@QAEAAVCBlockData@@XZ ; CBlockImp::GetBlockData
  001ca	8b c8		 mov	 ecx, eax
  001cc	e8 00 00 00 00	 call	 ?GetHorzScale@CBlockData@@QAEAAVCHorizontalScale@@XZ ; CBlockData::GetHorzScale
  001d1	8b c8		 mov	 ecx, eax
  001d3	ff 15 00 00 00
	00		 call	 DWORD PTR __imp_?GetHorzScalePosition@CHorizontalScale@@QBE?AW4HORZSCALEPOSITION@CScaleBaseData@@XZ
  001d9	8b 4d 0c	 mov	 ecx, DWORD PTR _pTargetBlock$1$[ebp]
  001dc	50		 push	 eax
  001dd	e8 00 00 00 00	 call	 ?GetBlockData@CBlockImp@@QAEAAVCBlockData@@XZ ; CBlockImp::GetBlockData
  001e2	8b c8		 mov	 ecx, eax
  001e4	e8 00 00 00 00	 call	 ?GetHorzScale@CBlockData@@QAEAAVCHorizontalScale@@XZ ; CBlockData::GetHorzScale
  001e9	8b 4b 04	 mov	 ecx, DWORD PTR [ebx+4]
  001ec	50		 push	 eax
  001ed	ff 96 d8 00 00
	00		 call	 DWORD PTR [esi+216]
  001f3	8d 73 10	 lea	 esi, DWORD PTR [ebx+16]
$LN14@DeleteBloc:

; 572  : 					}
; 573  : 				}
; 574  : 			}
; 575  : 		}
; 576  : 	}
; 577  : 
; 578  : 	if( m_pMain)

  001f6	8b 4b 04	 mov	 ecx, DWORD PTR [ebx+4]
  001f9	85 c9		 test	 ecx, ecx
  001fb	74 45		 je	 SHORT $LN15@DeleteBloc

; 579  : 	{
; 580  : 		CBlockBehaviorData blockBehaviorData(CBlockBaseData::BLOCK_DELETE, m_pMain->FindBlockNumber(pBlock));

  001fd	57		 push	 edi
  001fe	8d 45 e8	 lea	 eax, DWORD PTR $T4[ebp]
  00201	50		 push	 eax
  00202	e8 00 00 00 00	 call	 ?FindBlockNumber@CMainBlockImp@@QBE?AVCBlockIndex@@PAVCBlockImp@@@Z ; CMainBlockImp::FindBlockNumber
; File D:\git\src\IBK\IBK_DRFN\ProjSrc\SrcChartEx\ChartOCX\Include_Chart\BlockBaseData.h

; 19   : 	CBlockIndex()										{	m_nRow = m_nColumn = -1;				}

  00207	c7 45 dc ff ff
	ff ff		 mov	 DWORD PTR _blockBehaviorData$2[ebp+16], -1
  0020e	c7 45 d8 ff ff
	ff ff		 mov	 DWORD PTR _blockBehaviorData$2[ebp+12], -1

; 122  : 		m_eBlockBehavior = eBlockBehavior;

  00215	c7 45 cc 00 00
	00 00		 mov	 DWORD PTR _blockBehaviorData$2[ebp], 0

; 123  : 		m_sourceBlockIndex = sourceBlockIndex;

  0021c	8b 08		 mov	 ecx, DWORD PTR [eax]
  0021e	8b 40 04	 mov	 eax, DWORD PTR [eax+4]
  00221	89 4d d0	 mov	 DWORD PTR _blockBehaviorData$2[ebp+4], ecx
; File D:\git\src\IBK\IBK_DRFN\ProjSrc\SrcChartEx\ChartOCX\ChartObject\BlocksColumn.cpp

; 50   : 	if(m_pMain == NULL)

  00224	8b 4b 04	 mov	 ecx, DWORD PTR [ebx+4]
; File D:\git\src\IBK\IBK_DRFN\ProjSrc\SrcChartEx\ChartOCX\Include_Chart\BlockBaseData.h

; 123  : 		m_sourceBlockIndex = sourceBlockIndex;

  00227	89 45 d4	 mov	 DWORD PTR _blockBehaviorData$2[ebp+8], eax
; File D:\git\src\IBK\IBK_DRFN\ProjSrc\SrcChartEx\ChartOCX\ChartObject\BlocksColumn.cpp

; 50   : 	if(m_pMain == NULL)

  0022a	85 c9		 test	 ecx, ecx
  0022c	75 04		 jne	 SHORT $LN54@DeleteBloc

; 51   : 		return NULL;

  0022e	33 c0		 xor	 eax, eax
  00230	eb 05		 jmp	 SHORT $LN53@DeleteBloc
$LN54@DeleteBloc:

; 52   : 
; 53   : 	return m_pMain->GetMainBlockBaseData();

  00232	e8 00 00 00 00	 call	 ?GetMainBlockBaseData@CMainBlockImp@@QBEPAVCMainBlockBaseData@@XZ ; CMainBlockImp::GetMainBlockBaseData
$LN53@DeleteBloc:

; 581  : 		GetMainBlockBaseData()->SendMessageToParent(blockBehaviorData);

  00237	8d 4d cc	 lea	 ecx, DWORD PTR _blockBehaviorData$2[ebp]
  0023a	51		 push	 ecx
  0023b	8b c8		 mov	 ecx, eax
  0023d	e8 00 00 00 00	 call	 ?SendMessageToParent@CMainBlockBaseData@@QAEXABVCBlockBehaviorData@@@Z ; CMainBlockBaseData::SendMessageToParent
$LN15@DeleteBloc:

; 582  : 	}
; 583  : 
; 584  : 	// (2007/2/16 - Seung-Won, Bae) Remove in list after Deleting the Object.
; 585  : 	//		In Destructor, can be access the List.
; 586  : 	CBlockImp::Delete( pBlock);

  00242	57		 push	 edi
  00243	e8 00 00 00 00	 call	 ?Delete@CBlockImp@@SAXPAV1@@Z ; CBlockImp::Delete
  00248	83 c4 04	 add	 esp, 4

; 587  : 	m_BlockList.RemoveAt(pos);

  0024b	8b ce		 mov	 ecx, esi
  0024d	ff 75 e4	 push	 DWORD PTR _pos$1$[ebp]
  00250	e8 00 00 00 00	 call	 ?RemoveAt@CObList@@QAEXPAU__POSITION@@@Z ; CObList::RemoveAt

; 588  : 	return true;

  00255	b0 01		 mov	 al, 1

; 589  : }

  00257	8b 4d f4	 mov	 ecx, DWORD PTR __$EHRec$[ebp]
  0025a	64 89 0d 00 00
	00 00		 mov	 DWORD PTR fs:0, ecx
  00261	59		 pop	 ecx
  00262	5f		 pop	 edi
  00263	5e		 pop	 esi
  00264	5b		 pop	 ebx
  00265	8b e5		 mov	 esp, ebp
  00267	5d		 pop	 ebp
  00268	c2 08 00	 ret	 8
$LN63@DeleteBloc:
; File C:\Program Files (x86)\Microsoft Visual Studio\2019\Community\VC\Tools\MSVC\14.29.30133\atlmfc\include\afxcoll.inl

; 459  : 			AfxThrowInvalidArgException();

  0026b	e8 00 00 00 00	 call	 ?AfxThrowInvalidArgException@@YGXXZ ; AfxThrowInvalidArgException
$LN59@DeleteBloc:
  00270	cc		 int	 3
_TEXT	ENDS
;	COMDAT text$x
text$x	SEGMENT
__unwindfunclet$?DeleteBlock@CBlocksColumn@@QAE_NPAVCBlockImp@@_N@Z$0:
  00000	8d 4d e0	 lea	 ecx, DWORD PTR ___mlrs__$3[ebp]
  00003	e9 00 00 00 00	 jmp	 ??1CMultiLanguageResourceSetter@@QAE@XZ ; CMultiLanguageResourceSetter::~CMultiLanguageResourceSetter
__unwindfunclet$?DeleteBlock@CBlocksColumn@@QAE_NPAVCBlockImp@@_N@Z$1:
  00008	8d 4d 0c	 lea	 ecx, DWORD PTR _strMessage$7[ebp]
  0000b	ff 25 00 00 00
	00		 jmp	 DWORD PTR __imp_??1?$CStringT@DV?$StrTraitMFC_DLL@DV?$ChTraitsCRT@D@ATL@@@@@ATL@@QAE@XZ
__unwindfunclet$?DeleteBlock@CBlocksColumn@@QAE_NPAVCBlockImp@@_N@Z$2:
  00011	8d 4d f0	 lea	 ecx, DWORD PTR _strTitle$5[ebp]
  00014	ff 25 00 00 00
	00		 jmp	 DWORD PTR __imp_??1?$CStringT@DV?$StrTraitMFC_DLL@DV?$ChTraitsCRT@D@ATL@@@@@ATL@@QAE@XZ
  0001a	cc		 int	 3
  0001b	cc		 int	 3
  0001c	cc		 int	 3
  0001d	cc		 int	 3
  0001e	cc		 int	 3
__ehhandler$?DeleteBlock@CBlocksColumn@@QAE_NPAVCBlockImp@@_N@Z:
  0001f	90		 npad	 1
  00020	90		 npad	 1
  00021	8b 54 24 08	 mov	 edx, DWORD PTR [esp+8]
  00025	8d 42 0c	 lea	 eax, DWORD PTR [edx+12]
  00028	8b 4a c8	 mov	 ecx, DWORD PTR [edx-56]
  0002b	33 c8		 xor	 ecx, eax
  0002d	e8 00 00 00 00	 call	 @__security_check_cookie@4
  00032	b8 00 00 00 00	 mov	 eax, OFFSET __ehfuncinfo$?DeleteBlock@CBlocksColumn@@QAE_NPAVCBlockImp@@_N@Z
  00037	e9 00 00 00 00	 jmp	 ___CxxFrameHandler3
text$x	ENDS
?DeleteBlock@CBlocksColumn@@QAE_NPAVCBlockImp@@_N@Z ENDP ; CBlocksColumn::DeleteBlock
; Function compile flags: /Ogtp
; File D:\git\src\IBK\IBK_DRFN\ProjSrc\SrcChartEx\ChartOCX\ChartObject\BlocksColumn.cpp
; File C:\Program Files (x86)\Microsoft Visual Studio\2019\Community\VC\Tools\MSVC\14.29.30133\atlmfc\include\afxcoll.inl
; File D:\git\src\IBK\IBK_DRFN\ProjSrc\SrcChartEx\ChartOCX\ChartObject\BlocksColumn.cpp
; File C:\Program Files (x86)\Microsoft Visual Studio\2019\Community\VC\Tools\MSVC\14.29.30133\atlmfc\include\afxtempl.h
; File C:\Program Files (x86)\Microsoft Visual Studio\2019\Community\VC\Tools\MSVC\14.29.30133\atlmfc\include\afxcoll.inl
; File D:\git\src\IBK\IBK_DRFN\ProjSrc\SrcChartEx\ChartOCX\ChartObject\BlocksColumn.cpp
;	COMDAT ?DeleteAll@CBlocksColumn@@QAEXXZ
_TEXT	SEGMENT
?DeleteAll@CBlocksColumn@@QAEXXZ PROC			; CBlocksColumn::DeleteAll, COMDAT
; _this$ = ecx

; 518  : {

  00000	56		 push	 esi
  00001	8b f1		 mov	 esi, ecx
; File C:\Program Files (x86)\Microsoft Visual Studio\2019\Community\VC\Tools\MSVC\14.29.30133\atlmfc\include\afxcoll.inl

; 410  : 	{ return m_nCount == 0; }

  00003	83 7e 1c 00	 cmp	 DWORD PTR [esi+28], 0
; File D:\git\src\IBK\IBK_DRFN\ProjSrc\SrcChartEx\ChartOCX\ChartObject\BlocksColumn.cpp

; 521  : 	while( !m_BlockList.IsEmpty())

  00007	74 24		 je	 SHORT $LN3@DeleteAll
  00009	57		 push	 edi
  0000a	66 0f 1f 44 00
	00		 npad	 6
$LL2@DeleteAll:

; 522  : 	{
; 523  : 		CBlockImp::Delete( m_BlockList.GetHead());

  00010	8b 46 14	 mov	 eax, DWORD PTR [esi+20]
  00013	ff 70 08	 push	 DWORD PTR [eax+8]
  00016	e8 00 00 00 00	 call	 ?Delete@CBlockImp@@SAXPAV1@@Z ; CBlockImp::Delete
  0001b	83 c4 04	 add	 esp, 4
; File C:\Program Files (x86)\Microsoft Visual Studio\2019\Community\VC\Tools\MSVC\14.29.30133\atlmfc\include\afxtempl.h

; 1890 : 		{ return (TYPE)BASE_CLASS::RemoveHead(); }

  0001e	8d 4e 10	 lea	 ecx, DWORD PTR [esi+16]
  00021	e8 00 00 00 00	 call	 ?RemoveHead@CObList@@QAEPAVCObject@@XZ ; CObList::RemoveHead
; File C:\Program Files (x86)\Microsoft Visual Studio\2019\Community\VC\Tools\MSVC\14.29.30133\atlmfc\include\afxcoll.inl

; 410  : 	{ return m_nCount == 0; }

  00026	83 7e 1c 00	 cmp	 DWORD PTR [esi+28], 0
; File D:\git\src\IBK\IBK_DRFN\ProjSrc\SrcChartEx\ChartOCX\ChartObject\BlocksColumn.cpp

; 521  : 	while( !m_BlockList.IsEmpty())

  0002a	75 e4		 jne	 SHORT $LL2@DeleteAll
  0002c	5f		 pop	 edi
$LN3@DeleteAll:
  0002d	5e		 pop	 esi

; 524  : 		m_BlockList.RemoveHead();
; 525  : 	}
; 526  : }

  0002e	c3		 ret	 0
?DeleteAll@CBlocksColumn@@QAEXXZ ENDP			; CBlocksColumn::DeleteAll
_TEXT	ENDS
; Function compile flags: /Ogtp
; File D:\git\src\IBK\IBK_DRFN\ProjSrc\SrcChartEx\ChartOCX\ChartObject\BlocksColumn.cpp
;	COMDAT ?Delete@CBlocksColumn@@SAXPAV1@@Z
_TEXT	SEGMENT
_pBlocksColumn$ = 8					; size = 4
?Delete@CBlocksColumn@@SAXPAV1@@Z PROC			; CBlocksColumn::Delete, COMDAT

; 512  : {

  00000	55		 push	 ebp
  00001	8b ec		 mov	 ebp, esp

; 513  : 	delete pBlocksColumn;

  00003	8b 4d 08	 mov	 ecx, DWORD PTR _pBlocksColumn$[ebp]
  00006	85 c9		 test	 ecx, ecx
  00008	74 07		 je	 SHORT $LN3@Delete
  0000a	8b 01		 mov	 eax, DWORD PTR [ecx]
  0000c	6a 01		 push	 1
  0000e	ff 50 04	 call	 DWORD PTR [eax+4]
$LN3@Delete:

; 514  : }

  00011	5d		 pop	 ebp
  00012	c3		 ret	 0
?Delete@CBlocksColumn@@SAXPAV1@@Z ENDP			; CBlocksColumn::Delete
_TEXT	ENDS
; Function compile flags: /Ogtp
; File D:\git\src\IBK\IBK_DRFN\ProjSrc\SrcChartEx\ChartOCX\ChartObject\BlocksColumn.cpp
; File C:\Program Files (x86)\Microsoft Visual Studio\2019\Community\VC\Tools\MSVC\14.29.30133\atlmfc\include\afxtempl.h
; File D:\git\src\IBK\IBK_DRFN\ProjSrc\SrcChartEx\ChartOCX\ChartObject\BlocksColumn.cpp
; File C:\Program Files (x86)\Microsoft Visual Studio\2019\Community\VC\Tools\MSVC\14.29.30133\atlmfc\include\afxtempl.h
; File D:\git\src\IBK\IBK_DRFN\ProjSrc\SrcChartEx\ChartOCX\ChartObject\BlocksColumn.cpp
; File C:\Program Files (x86)\Microsoft Visual Studio\2019\Community\VC\Tools\MSVC\14.29.30133\atlmfc\include\afxtempl.h
; File D:\git\src\IBK\IBK_DRFN\ProjSrc\SrcChartEx\ChartOCX\ChartObject\BlocksColumn.cpp
;	COMDAT ?InsertBlock@CBlocksColumn@@QAE_NH_N@Z
_TEXT	SEGMENT
_nInsertPosition$ = 8					; size = 4
_bDoesMaintainOldScale$ = 12				; size = 1
?InsertBlock@CBlocksColumn@@QAE_NH_N@Z PROC		; CBlocksColumn::InsertBlock, COMDAT
; _this$ = ecx

; 492  : {

  00000	55		 push	 ebp
  00001	8b ec		 mov	 ebp, esp
  00003	53		 push	 ebx
  00004	56		 push	 esi
  00005	57		 push	 edi

; 493  : 	if(nInsertPosition < 0 || nInsertPosition > m_BlockList.GetCount())

  00006	8b 7d 08	 mov	 edi, DWORD PTR _nInsertPosition$[ebp]
  00009	8b f1		 mov	 esi, ecx
  0000b	85 ff		 test	 edi, edi
  0000d	78 6f		 js	 SHORT $LN3@InsertBloc
  0000f	3b 7e 1c	 cmp	 edi, DWORD PTR [esi+28]
  00012	7f 6a		 jg	 SHORT $LN3@InsertBloc

; 270  : 	SendMessageToParent_BlockInsert(nInsertPosition);

  00014	57		 push	 edi
  00015	e8 00 00 00 00	 call	 ?SendMessageToParent_BlockInsert@CBlocksColumn@@QAEXH@Z ; CBlocksColumn::SendMessageToParent_BlockInsert

; 50   : 	if(m_pMain == NULL)

  0001a	8b 4e 04	 mov	 ecx, DWORD PTR [esi+4]
  0001d	85 c9		 test	 ecx, ecx
  0001f	75 04		 jne	 SHORT $LN14@InsertBloc

; 51   : 		return NULL;

  00021	33 c0		 xor	 eax, eax
  00023	eb 05		 jmp	 SHORT $LN13@InsertBloc
$LN14@InsertBloc:

; 52   : 
; 53   : 	return m_pMain->GetMainBlockBaseData();

  00025	e8 00 00 00 00	 call	 ?GetMainBlockBaseData@CMainBlockImp@@QBEPAVCMainBlockBaseData@@XZ ; CMainBlockImp::GetMainBlockBaseData
$LN13@InsertBloc:

; 271  : 	return CBlockImp::Make(GetMainBlockBaseData(), this);

  0002a	56		 push	 esi
  0002b	50		 push	 eax
  0002c	e8 00 00 00 00	 call	 ?Make@CBlockImp@@SAPAV1@PAVCMainBlockBaseData@@PAVCBlocksColumn@@@Z ; CBlockImp::Make
  00031	8b d8		 mov	 ebx, eax
  00033	83 c4 08	 add	 esp, 8

; 494  : 		return false;
; 495  : 
; 496  : 	CBlockImp* pInsertBlock = InsertBlock_GetBlockForInsert( nInsertPosition, false);
; 497  : 	if(pInsertBlock == NULL) return false;

  00036	85 db		 test	 ebx, ebx
  00038	74 44		 je	 SHORT $LN3@InsertBloc

; 297  : 	if(nInsertPosition <= 0)

  0003a	85 ff		 test	 edi, edi
  0003c	7f 06		 jg	 SHORT $LN20@InsertBloc
; File C:\Program Files (x86)\Microsoft Visual Studio\2019\Community\VC\Tools\MSVC\14.29.30133\atlmfc\include\afxtempl.h

; 1914 : 		{ return BASE_CLASS::InsertBefore(position, newElement); }

  0003e	53		 push	 ebx
  0003f	ff 76 14	 push	 DWORD PTR [esi+20]
; File D:\git\src\IBK\IBK_DRFN\ProjSrc\SrcChartEx\ChartOCX\ChartObject\BlocksColumn.cpp

; 298  : 		return m_BlockList.InsertBefore(m_BlockList.GetHeadPosition(), pInsertBlock);

  00042	eb 1b		 jmp	 SHORT $LN37@InsertBloc
$LN20@InsertBloc:

; 299  : 	
; 300  : 	//   
; 301  : 	else if(nBlockCount <= nInsertPosition)

  00044	8d 4e 10	 lea	 ecx, DWORD PTR [esi+16]
  00047	39 7e 1c	 cmp	 DWORD PTR [esi+28], edi
  0004a	7f 0b		 jg	 SHORT $LN22@InsertBloc
; File C:\Program Files (x86)\Microsoft Visual Studio\2019\Community\VC\Tools\MSVC\14.29.30133\atlmfc\include\afxtempl.h

; 1916 : 		{ return BASE_CLASS::InsertAfter(position, newElement); }

  0004c	53		 push	 ebx
  0004d	ff 76 18	 push	 DWORD PTR [esi+24]
  00050	e8 00 00 00 00	 call	 ?InsertAfter@CObList@@QAEPAU__POSITION@@PAU2@PAVCObject@@@Z ; CObList::InsertAfter
; File D:\git\src\IBK\IBK_DRFN\ProjSrc\SrcChartEx\ChartOCX\ChartObject\BlocksColumn.cpp

; 302  : 		return m_BlockList.InsertAfter(m_BlockList.GetTailPosition(), pInsertBlock);

  00055	eb 10		 jmp	 SHORT $LN16@InsertBloc
$LN22@InsertBloc:

; 303  : 
; 304  : 	return m_BlockList.InsertBefore(m_BlockList.FindIndex(nInsertPosition), pInsertBlock);

  00057	57		 push	 edi
  00058	e8 00 00 00 00	 call	 ?FindIndex@CObList@@QBEPAU__POSITION@@H@Z ; CObList::FindIndex
; File C:\Program Files (x86)\Microsoft Visual Studio\2019\Community\VC\Tools\MSVC\14.29.30133\atlmfc\include\afxtempl.h

; 1914 : 		{ return BASE_CLASS::InsertBefore(position, newElement); }

  0005d	53		 push	 ebx
  0005e	50		 push	 eax
$LN37@InsertBloc:
; File D:\git\src\IBK\IBK_DRFN\ProjSrc\SrcChartEx\ChartOCX\ChartObject\BlocksColumn.cpp

; 501  : 	if(bDoesMaintainOldScale) SetMaintainOldScale( pInsertBlock);

  0005f	8d 4e 10	 lea	 ecx, DWORD PTR [esi+16]
  00062	e8 00 00 00 00	 call	 ?InsertBefore@CObList@@QAEPAU__POSITION@@PAU2@PAVCObject@@@Z ; CObList::InsertBefore
$LN16@InsertBloc:
  00067	80 7d 0c 00	 cmp	 BYTE PTR _bDoesMaintainOldScale$[ebp], 0
  0006b	74 08		 je	 SHORT $LN5@InsertBloc
  0006d	53		 push	 ebx
  0006e	8b ce		 mov	 ecx, esi
  00070	e8 00 00 00 00	 call	 ?SetMaintainOldScale@CBlocksColumn@@QAEXPAVCBlockImp@@@Z ; CBlocksColumn::SetMaintainOldScale
$LN5@InsertBloc:

; 502  : 
; 503  : 	return (pInsertBlock != NULL);
; 504  : }

  00075	5f		 pop	 edi
  00076	5e		 pop	 esi
  00077	b0 01		 mov	 al, 1
  00079	5b		 pop	 ebx
  0007a	5d		 pop	 ebp
  0007b	c2 08 00	 ret	 8
$LN3@InsertBloc:
  0007e	5f		 pop	 edi
  0007f	5e		 pop	 esi
  00080	32 c0		 xor	 al, al
  00082	5b		 pop	 ebx
  00083	5d		 pop	 ebp
  00084	c2 08 00	 ret	 8
?InsertBlock@CBlocksColumn@@QAE_NH_N@Z ENDP		; CBlocksColumn::InsertBlock
_TEXT	ENDS
; Function compile flags: /Ogtp
; File D:\git\src\IBK\IBK_DRFN\ProjSrc\SrcChartEx\ChartOCX\ChartObject\BlocksColumn.cpp
; File C:\Program Files (x86)\Microsoft Visual Studio\2019\Community\VC\Tools\MSVC\14.29.30133\atlmfc\include\atlsimpstr.h
; File D:\git\src\IBK\IBK_DRFN\ProjSrc\SrcChartEx\ChartOCX\ChartObject\BlocksColumn.cpp
; File C:\Program Files (x86)\Microsoft Visual Studio\2019\Community\VC\Tools\MSVC\14.29.30133\atlmfc\include\atlsimpstr.h
; File D:\git\src\IBK\IBK_DRFN\ProjSrc\SrcChartEx\ChartOCX\ChartObject\BlocksColumn.cpp
; File C:\Program Files (x86)\Microsoft Visual Studio\2019\Community\VC\Tools\MSVC\14.29.30133\atlmfc\include\atlsimpstr.h
; File D:\git\src\IBK\IBK_DRFN\ProjSrc\SrcChartEx\ChartOCX\ChartObject\BlocksColumn.cpp
; File C:\Program Files (x86)\Windows Kits\10\Include\10.0.22000.0\ucrt\string.h
; File D:\git\src\IBK\IBK_DRFN\ProjSrc\SrcChartEx\ChartOCX\ChartObject\BlocksColumn.cpp
; File C:\Program Files (x86)\Windows Kits\10\Include\10.0.22000.0\ucrt\string.h
; File D:\git\src\IBK\IBK_DRFN\ProjSrc\SrcChartEx\ChartOCX\ChartObject\BlocksColumn.cpp
; File C:\Program Files (x86)\Windows Kits\10\Include\10.0.22000.0\ucrt\string.h
; File D:\git\src\IBK\IBK_DRFN\ProjSrc\SrcChartEx\ChartOCX\ChartObject\BlocksColumn.cpp
; File C:\Program Files (x86)\Windows Kits\10\Include\10.0.22000.0\ucrt\string.h
; File D:\git\src\IBK\IBK_DRFN\ProjSrc\SrcChartEx\ChartOCX\ChartObject\BlocksColumn.cpp
; File C:\Program Files (x86)\Microsoft Visual Studio\2019\Community\VC\Tools\MSVC\14.29.30133\atlmfc\include\afxcoll.inl
; File D:\git\src\IBK\IBK_DRFN\ProjSrc\SrcChartEx\ChartOCX\ChartObject\BlocksColumn.cpp
; File C:\Program Files (x86)\Microsoft Visual Studio\2019\Community\VC\Tools\MSVC\14.29.30133\atlmfc\include\afxcoll.inl
; File D:\git\src\IBK\IBK_DRFN\ProjSrc\SrcChartEx\ChartOCX\ChartObject\BlocksColumn.cpp
; File C:\Program Files (x86)\Windows Kits\10\Include\10.0.22000.0\ucrt\string.h
; File D:\git\src\IBK\IBK_DRFN\ProjSrc\SrcChartEx\ChartOCX\ChartObject\BlocksColumn.cpp
; File C:\Program Files (x86)\Windows Kits\10\Include\10.0.22000.0\ucrt\string.h
; File D:\git\src\IBK\IBK_DRFN\ProjSrc\SrcChartEx\ChartOCX\ChartObject\BlocksColumn.cpp
; File C:\Program Files (x86)\Windows Kits\10\Include\10.0.22000.0\ucrt\string.h
; File D:\git\src\IBK\IBK_DRFN\ProjSrc\SrcChartEx\ChartOCX\ChartObject\BlocksColumn.cpp
; File C:\Program Files (x86)\Windows Kits\10\Include\10.0.22000.0\ucrt\string.h
; File D:\git\src\IBK\IBK_DRFN\ProjSrc\SrcChartEx\ChartOCX\ChartObject\BlocksColumn.cpp
; File C:\Program Files (x86)\Windows Kits\10\Include\10.0.22000.0\ucrt\string.h
; File D:\git\src\IBK\IBK_DRFN\ProjSrc\SrcChartEx\ChartOCX\ChartObject\BlocksColumn.cpp
; File C:\Program Files (x86)\Microsoft Visual Studio\2019\Community\VC\Tools\MSVC\14.29.30133\atlmfc\include\afxcoll.inl
; File D:\git\src\IBK\IBK_DRFN\ProjSrc\SrcChartEx\ChartOCX\ChartObject\BlocksColumn.cpp
;	COMDAT ?InsertBlocks@CBlocksColumn@@QAE_NPAXABV?$CStringT@DV?$StrTraitMFC_DLL@DV?$ChTraitsCRT@D@ATL@@@@@ATL@@@Z
_TEXT	SEGMENT
_strBlockColumnData$ = -16				; size = 4
__$EHRec$ = -12						; size = 12
_pPacketRQ$ = 8						; size = 4
$T2 = 12						; size = 4
_strGraphData$ = 12					; size = 4
?InsertBlocks@CBlocksColumn@@QAE_NPAXABV?$CStringT@DV?$StrTraitMFC_DLL@DV?$ChTraitsCRT@D@ATL@@@@@ATL@@@Z PROC ; CBlocksColumn::InsertBlocks, COMDAT
; _this$ = ecx

; 477  : {

  00000	55		 push	 ebp
  00001	8b ec		 mov	 ebp, esp
  00003	6a ff		 push	 -1
  00005	68 00 00 00 00	 push	 __ehhandler$?InsertBlocks@CBlocksColumn@@QAE_NPAXABV?$CStringT@DV?$StrTraitMFC_DLL@DV?$ChTraitsCRT@D@ATL@@@@@ATL@@@Z
  0000a	64 a1 00 00 00
	00		 mov	 eax, DWORD PTR fs:0
  00010	50		 push	 eax
  00011	51		 push	 ecx
  00012	53		 push	 ebx
  00013	56		 push	 esi
  00014	57		 push	 edi
  00015	a1 00 00 00 00	 mov	 eax, DWORD PTR ___security_cookie
  0001a	33 c5		 xor	 eax, ebp
  0001c	50		 push	 eax
  0001d	8d 45 f4	 lea	 eax, DWORD PTR __$EHRec$[ebp]
  00020	64 a3 00 00 00
	00		 mov	 DWORD PTR fs:0, eax
  00026	8b d9		 mov	 ebx, ecx
; File C:\Program Files (x86)\Microsoft Visual Studio\2019\Community\VC\Tools\MSVC\14.29.30133\atlmfc\include\atlsimpstr.h

; 519  : 		return( GetData()->nDataLength );

  00028	8b 75 0c	 mov	 esi, DWORD PTR _strGraphData$[ebp]
  0002b	8b 06		 mov	 eax, DWORD PTR [esi]

; 533  : 		return( GetLength() == 0 );

  0002d	83 78 f4 00	 cmp	 DWORD PTR [eax-12], 0
; File D:\git\src\IBK\IBK_DRFN\ProjSrc\SrcChartEx\ChartOCX\ChartObject\BlocksColumn.cpp

; 478  : 	if( !strGraphData.IsEmpty()) return false;

  00031	74 16		 je	 SHORT $LN2@InsertBloc
  00033	32 c0		 xor	 al, al

; 488  : }

  00035	8b 4d f4	 mov	 ecx, DWORD PTR __$EHRec$[ebp]
  00038	64 89 0d 00 00
	00 00		 mov	 DWORD PTR fs:0, ecx
  0003f	59		 pop	 ecx
  00040	5f		 pop	 edi
  00041	5e		 pop	 esi
  00042	5b		 pop	 ebx
  00043	8b e5		 mov	 esp, ebp
  00045	5d		 pop	 ebp
  00046	c2 08 00	 ret	 8
$LN2@InsertBloc:

; 479  : 
; 480  : 	SendMessageToParent_BlockInsert(0);

  00049	6a 00		 push	 0
  0004b	e8 00 00 00 00	 call	 ?SendMessageToParent_BlockInsert@CBlocksColumn@@QAEXH@Z ; CBlocksColumn::SendMessageToParent_BlockInsert

; 481  : 	MakeBlocksColumn(CDataConversion::GetStringDataCount(strGraphData, "Block;\r\n"));

  00050	68 00 00 00 00	 push	 OFFSET ??_C@_08KGLHHGPJ@Block?$DL?$AN?6@
  00055	8d 4d 0c	 lea	 ecx, DWORD PTR $T2[ebp]
  00058	ff 15 00 00 00
	00		 call	 DWORD PTR __imp_??0?$CStringT@DV?$StrTraitMFC_DLL@DV?$ChTraitsCRT@D@ATL@@@@@ATL@@QAE@PBD@Z
  0005e	8d 45 0c	 lea	 eax, DWORD PTR $T2[ebp]
  00061	c7 45 fc 00 00
	00 00		 mov	 DWORD PTR __$EHRec$[ebp+8], 0
  00068	50		 push	 eax
  00069	56		 push	 esi
  0006a	e8 00 00 00 00	 call	 ?GetStringDataCount@CDataConversion@@SAHABV?$CStringT@DV?$StrTraitMFC_DLL@DV?$ChTraitsCRT@D@ATL@@@@@ATL@@0@Z ; CDataConversion::GetStringDataCount
  0006f	83 c4 08	 add	 esp, 8
  00072	8b cb		 mov	 ecx, ebx
  00074	50		 push	 eax
  00075	e8 00 00 00 00	 call	 ?MakeBlocksColumn@CBlocksColumn@@QAEXH@Z ; CBlocksColumn::MakeBlocksColumn
  0007a	8d 4d 0c	 lea	 ecx, DWORD PTR $T2[ebp]
  0007d	ff 15 00 00 00
	00		 call	 DWORD PTR __imp_??1?$CStringT@DV?$StrTraitMFC_DLL@DV?$ChTraitsCRT@D@ATL@@@@@ATL@@QAE@XZ

; 482  : 
; 483  : 	CString strBlockColumnData;

  00083	8d 4d f0	 lea	 ecx, DWORD PTR _strBlockColumnData$[ebp]
  00086	ff 15 00 00 00
	00		 call	 DWORD PTR __imp_??0?$CStringT@DV?$StrTraitMFC_DLL@DV?$ChTraitsCRT@D@ATL@@@@@ATL@@QAE@XZ
; File C:\Program Files (x86)\Microsoft Visual Studio\2019\Community\VC\Tools\MSVC\14.29.30133\atlmfc\include\atlsimpstr.h

; 519  : 		return( GetData()->nDataLength );

  0008c	8b 06		 mov	 eax, DWORD PTR [esi]
; File D:\git\src\IBK\IBK_DRFN\ProjSrc\SrcChartEx\ChartOCX\ChartObject\BlocksColumn.cpp

; 484  : 	char *szBlockColumnData = strBlockColumnData.GetBufferSetLength( strGraphData.GetLength());

  0008e	8d 4d f0	 lea	 ecx, DWORD PTR _strBlockColumnData$[ebp]
  00091	c7 45 fc 01 00
	00 00		 mov	 DWORD PTR __$EHRec$[ebp+8], 1
  00098	ff 70 f4	 push	 DWORD PTR [eax-12]
  0009b	ff 15 00 00 00
	00		 call	 DWORD PTR __imp_?GetBufferSetLength@?$CSimpleStringT@D$00@ATL@@QAEPADH@Z
; File C:\Program Files (x86)\Microsoft Visual Studio\2019\Community\VC\Tools\MSVC\14.29.30133\atlmfc\include\atlsimpstr.h

; 377  : 		return( m_pszData );

  000a1	8b 16		 mov	 edx, DWORD PTR [esi]
; File D:\git\src\IBK\IBK_DRFN\ProjSrc\SrcChartEx\ChartOCX\ChartObject\BlocksColumn.cpp

; 485  : 	strcpy( szBlockColumnData, strGraphData);

  000a3	8b f0		 mov	 esi, eax
$LL4@InsertBloc:
  000a5	8a 0a		 mov	 cl, BYTE PTR [edx]
  000a7	8d 52 01	 lea	 edx, DWORD PTR [edx+1]
  000aa	88 0e		 mov	 BYTE PTR [esi], cl
  000ac	8d 76 01	 lea	 esi, DWORD PTR [esi+1]
  000af	84 c9		 test	 cl, cl
  000b1	75 f2		 jne	 SHORT $LL4@InsertBloc

; 166  : 	if( !p_szBlockColumnData) return;

  000b3	85 c0		 test	 eax, eax
  000b5	0f 84 96 00 00
	00		 je	 $LN21@InsertBloc

; 167  : 	if( !*p_szBlockColumnData) return;

  000bb	38 08		 cmp	 BYTE PTR [eax], cl
  000bd	0f 84 8e 00 00
	00		 je	 $LN21@InsertBloc
; File C:\Program Files (x86)\Windows Kits\10\Include\10.0.22000.0\ucrt\string.h

; 520  :         return const_cast<char*>(strstr(static_cast<char const*>(_String), _SubString));

  000c3	68 00 00 00 00	 push	 OFFSET ??_C@_08KGLHHGPJ@Block?$DL?$AN?6@
  000c8	50		 push	 eax
  000c9	e8 00 00 00 00	 call	 _strstr
; File D:\git\src\IBK\IBK_DRFN\ProjSrc\SrcChartEx\ChartOCX\ChartObject\BlocksColumn.cpp

; 169  : 	char *szBlock = strstr( p_szBlockColumnData, "Block;\r\n");

  000ce	8b f0		 mov	 esi, eax
; File C:\Program Files (x86)\Windows Kits\10\Include\10.0.22000.0\ucrt\string.h

; 520  :         return const_cast<char*>(strstr(static_cast<char const*>(_String), _SubString));

  000d0	83 c4 08	 add	 esp, 8
; File D:\git\src\IBK\IBK_DRFN\ProjSrc\SrcChartEx\ChartOCX\ChartObject\BlocksColumn.cpp

; 170  : 	if( !szBlock) return;

  000d3	85 f6		 test	 esi, esi
  000d5	74 7a		 je	 SHORT $LN21@InsertBloc

; 171  : 	szBlock += 8;												// "Block;\r\n"

  000d7	83 c6 08	 add	 esi, 8
; File C:\Program Files (x86)\Windows Kits\10\Include\10.0.22000.0\ucrt\string.h

; 520  :         return const_cast<char*>(strstr(static_cast<char const*>(_String), _SubString));

  000da	68 00 00 00 00	 push	 OFFSET ??_C@_0M@FHFNKLHB@BlockEnd?$DL?$AN?6@
  000df	56		 push	 esi
  000e0	e8 00 00 00 00	 call	 _strstr
; File D:\git\src\IBK\IBK_DRFN\ProjSrc\SrcChartEx\ChartOCX\ChartObject\BlocksColumn.cpp

; 172  : 	char *szNextBlock = strstr( szBlock, "BlockEnd;\r\n");

  000e5	8b f8		 mov	 edi, eax
; File C:\Program Files (x86)\Windows Kits\10\Include\10.0.22000.0\ucrt\string.h

; 520  :         return const_cast<char*>(strstr(static_cast<char const*>(_String), _SubString));

  000e7	83 c4 08	 add	 esp, 8
; File D:\git\src\IBK\IBK_DRFN\ProjSrc\SrcChartEx\ChartOCX\ChartObject\BlocksColumn.cpp

; 173  : 	if( szNextBlock) *szNextBlock = '\0';

  000ea	85 ff		 test	 edi, edi
  000ec	74 03		 je	 SHORT $LN25@InsertBloc
  000ee	c6 07 00	 mov	 BYTE PTR [edi], 0
$LN25@InsertBloc:

; 174  : 
; 175  : 	CBlockImp* pBlock = NULL;
; 176  : 	POSITION posBlock = m_BlockList.GetHeadPosition();

  000f1	8b 5b 14	 mov	 ebx, DWORD PTR [ebx+20]

; 177  : 	while( posBlock && szBlock)

  000f4	85 db		 test	 ebx, ebx
  000f6	74 59		 je	 SHORT $LN21@InsertBloc
$LL20@InsertBloc:
  000f8	85 f6		 test	 esi, esi
  000fa	74 55		 je	 SHORT $LN21@InsertBloc
; File C:\Program Files (x86)\Microsoft Visual Studio\2019\Community\VC\Tools\MSVC\14.29.30133\atlmfc\include\afxcoll.inl

; 428  : 	{ CNode* pNode = (CNode*) rPosition;

  000fc	8b cb		 mov	 ecx, ebx

; 429  : 		ASSERT(AfxIsValidAddress(pNode, sizeof(CNode)));
; 430  : 		if( pNode == NULL )

  000fe	85 db		 test	 ebx, ebx
  00100	74 6e		 je	 SHORT $LN51@InsertBloc
; File D:\git\src\IBK\IBK_DRFN\ProjSrc\SrcChartEx\ChartOCX\ChartObject\BlocksColumn.cpp

; 179  : 		pBlock = m_BlockList.GetNext( posBlock);

  00102	8b 49 08	 mov	 ecx, DWORD PTR [ecx+8]
; File C:\Program Files (x86)\Microsoft Visual Studio\2019\Community\VC\Tools\MSVC\14.29.30133\atlmfc\include\afxcoll.inl

; 432  : 		rPosition = (POSITION) pNode->pNext;

  00105	8b 1b		 mov	 ebx, DWORD PTR [ebx]
; File D:\git\src\IBK\IBK_DRFN\ProjSrc\SrcChartEx\ChartOCX\ChartObject\BlocksColumn.cpp

; 180  : 		if( !pBlock) continue;

  00107	85 c9		 test	 ecx, ecx
  00109	74 42		 je	 SHORT $LN28@InsertBloc

; 181  : 
; 182  : 		pBlock->BuildGraphsAndScales(pPacketRQ, szBlock);

  0010b	56		 push	 esi
  0010c	ff 75 08	 push	 DWORD PTR _pPacketRQ$[ebp]
  0010f	e8 00 00 00 00	 call	 ?BuildGraphsAndScales@CBlockImp@@QAEXPAXPAD@Z ; CBlockImp::BuildGraphsAndScales

; 183  : 
; 184  : 		if( szNextBlock)

  00114	85 ff		 test	 edi, edi
  00116	74 33		 je	 SHORT $LN27@InsertBloc
; File C:\Program Files (x86)\Windows Kits\10\Include\10.0.22000.0\ucrt\string.h

; 520  :         return const_cast<char*>(strstr(static_cast<char const*>(_String), _SubString));

  00118	68 00 00 00 00	 push	 OFFSET ??_C@_08KGLHHGPJ@Block?$DL?$AN?6@
  0011d	57		 push	 edi
; File D:\git\src\IBK\IBK_DRFN\ProjSrc\SrcChartEx\ChartOCX\ChartObject\BlocksColumn.cpp

; 186  : 			*szNextBlock = 'B';

  0011e	c6 07 42	 mov	 BYTE PTR [edi], 66	; 00000042H
; File C:\Program Files (x86)\Windows Kits\10\Include\10.0.22000.0\ucrt\string.h

; 520  :         return const_cast<char*>(strstr(static_cast<char const*>(_String), _SubString));

  00121	e8 00 00 00 00	 call	 _strstr
; File D:\git\src\IBK\IBK_DRFN\ProjSrc\SrcChartEx\ChartOCX\ChartObject\BlocksColumn.cpp

; 188  : 			szBlock = strstr( szNextBlock, "Block;\r\n");

  00126	8b f0		 mov	 esi, eax
; File C:\Program Files (x86)\Windows Kits\10\Include\10.0.22000.0\ucrt\string.h

; 520  :         return const_cast<char*>(strstr(static_cast<char const*>(_String), _SubString));

  00128	83 c4 08	 add	 esp, 8
; File D:\git\src\IBK\IBK_DRFN\ProjSrc\SrcChartEx\ChartOCX\ChartObject\BlocksColumn.cpp

; 189  : 			if( szBlock)

  0012b	85 f6		 test	 esi, esi
  0012d	74 1e		 je	 SHORT $LN28@InsertBloc

; 190  : 			{
; 191  : 				szBlock += 8;		// "Block;\r\n"

  0012f	83 c6 08	 add	 esi, 8
; File C:\Program Files (x86)\Windows Kits\10\Include\10.0.22000.0\ucrt\string.h

; 520  :         return const_cast<char*>(strstr(static_cast<char const*>(_String), _SubString));

  00132	68 00 00 00 00	 push	 OFFSET ??_C@_0M@FHFNKLHB@BlockEnd?$DL?$AN?6@
  00137	56		 push	 esi
  00138	e8 00 00 00 00	 call	 _strstr
; File D:\git\src\IBK\IBK_DRFN\ProjSrc\SrcChartEx\ChartOCX\ChartObject\BlocksColumn.cpp

; 193  : 				szNextBlock = strstr( szBlock, "BlockEnd;\r\n");

  0013d	8b f8		 mov	 edi, eax
; File C:\Program Files (x86)\Windows Kits\10\Include\10.0.22000.0\ucrt\string.h

; 520  :         return const_cast<char*>(strstr(static_cast<char const*>(_String), _SubString));

  0013f	83 c4 08	 add	 esp, 8
; File D:\git\src\IBK\IBK_DRFN\ProjSrc\SrcChartEx\ChartOCX\ChartObject\BlocksColumn.cpp

; 194  : 				if( szNextBlock) *szNextBlock = '\0';

  00142	85 ff		 test	 edi, edi
  00144	74 07		 je	 SHORT $LN28@InsertBloc
  00146	c6 07 00	 mov	 BYTE PTR [edi], 0

; 195  : 			}
; 196  : 		}

  00149	eb 02		 jmp	 SHORT $LN28@InsertBloc
$LN27@InsertBloc:

; 197  : 		else szBlock = NULL;

  0014b	33 f6		 xor	 esi, esi
$LN28@InsertBloc:

; 177  : 	while( posBlock && szBlock)

  0014d	85 db		 test	 ebx, ebx
  0014f	75 a7		 jne	 SHORT $LL20@InsertBloc
$LN21@InsertBloc:

; 486  : 	BuildGraphsAndScales(pPacketRQ, szBlockColumnData);
; 487  : 	return true;

  00151	8d 4d f0	 lea	 ecx, DWORD PTR _strBlockColumnData$[ebp]
  00154	ff 15 00 00 00
	00		 call	 DWORD PTR __imp_??1?$CStringT@DV?$StrTraitMFC_DLL@DV?$ChTraitsCRT@D@ATL@@@@@ATL@@QAE@XZ
  0015a	b0 01		 mov	 al, 1

; 488  : }

  0015c	8b 4d f4	 mov	 ecx, DWORD PTR __$EHRec$[ebp]
  0015f	64 89 0d 00 00
	00 00		 mov	 DWORD PTR fs:0, ecx
  00166	59		 pop	 ecx
  00167	5f		 pop	 edi
  00168	5e		 pop	 esi
  00169	5b		 pop	 ebx
  0016a	8b e5		 mov	 esp, ebp
  0016c	5d		 pop	 ebp
  0016d	c2 08 00	 ret	 8
$LN51@InsertBloc:
; File C:\Program Files (x86)\Microsoft Visual Studio\2019\Community\VC\Tools\MSVC\14.29.30133\atlmfc\include\afxcoll.inl

; 431  : 			AfxThrowInvalidArgException();

  00170	e8 00 00 00 00	 call	 ?AfxThrowInvalidArgException@@YGXXZ ; AfxThrowInvalidArgException
$LN57@InsertBloc:
  00175	cc		 int	 3
_TEXT	ENDS
;	COMDAT text$x
text$x	SEGMENT
__unwindfunclet$?InsertBlocks@CBlocksColumn@@QAE_NPAXABV?$CStringT@DV?$StrTraitMFC_DLL@DV?$ChTraitsCRT@D@ATL@@@@@ATL@@@Z$0:
  00000	8d 4d 0c	 lea	 ecx, DWORD PTR $T2[ebp]
  00003	ff 25 00 00 00
	00		 jmp	 DWORD PTR __imp_??1?$CStringT@DV?$StrTraitMFC_DLL@DV?$ChTraitsCRT@D@ATL@@@@@ATL@@QAE@XZ
__unwindfunclet$?InsertBlocks@CBlocksColumn@@QAE_NPAXABV?$CStringT@DV?$StrTraitMFC_DLL@DV?$ChTraitsCRT@D@ATL@@@@@ATL@@@Z$1:
  00009	8d 4d f0	 lea	 ecx, DWORD PTR _strBlockColumnData$[ebp]
  0000c	ff 25 00 00 00
	00		 jmp	 DWORD PTR __imp_??1?$CStringT@DV?$StrTraitMFC_DLL@DV?$ChTraitsCRT@D@ATL@@@@@ATL@@QAE@XZ
  00012	cc		 int	 3
  00013	cc		 int	 3
  00014	cc		 int	 3
  00015	cc		 int	 3
  00016	cc		 int	 3
__ehhandler$?InsertBlocks@CBlocksColumn@@QAE_NPAXABV?$CStringT@DV?$StrTraitMFC_DLL@DV?$ChTraitsCRT@D@ATL@@@@@ATL@@@Z:
  00017	90		 npad	 1
  00018	90		 npad	 1
  00019	8b 54 24 08	 mov	 edx, DWORD PTR [esp+8]
  0001d	8d 42 0c	 lea	 eax, DWORD PTR [edx+12]
  00020	8b 4a ec	 mov	 ecx, DWORD PTR [edx-20]
  00023	33 c8		 xor	 ecx, eax
  00025	e8 00 00 00 00	 call	 @__security_check_cookie@4
  0002a	b8 00 00 00 00	 mov	 eax, OFFSET __ehfuncinfo$?InsertBlocks@CBlocksColumn@@QAE_NPAXABV?$CStringT@DV?$StrTraitMFC_DLL@DV?$ChTraitsCRT@D@ATL@@@@@ATL@@@Z
  0002f	e9 00 00 00 00	 jmp	 ___CxxFrameHandler3
text$x	ENDS
?InsertBlocks@CBlocksColumn@@QAE_NPAXABV?$CStringT@DV?$StrTraitMFC_DLL@DV?$ChTraitsCRT@D@ATL@@@@@ATL@@@Z ENDP ; CBlocksColumn::InsertBlocks
; Function compile flags: /Ogtp
; File D:\git\src\IBK\IBK_DRFN\ProjSrc\SrcChartEx\ChartOCX\ChartObject\BlocksColumn.cpp
; File C:\Program Files (x86)\Microsoft Visual Studio\2019\Community\VC\Tools\MSVC\14.29.30133\atlmfc\include\atlsimpstr.h
; File D:\git\src\IBK\IBK_DRFN\ProjSrc\SrcChartEx\ChartOCX\ChartObject\BlocksColumn.cpp
; File C:\Program Files (x86)\Microsoft Visual Studio\2019\Community\VC\Tools\MSVC\14.29.30133\atlmfc\include\atlsimpstr.h
; File D:\git\src\IBK\IBK_DRFN\ProjSrc\SrcChartEx\ChartOCX\ChartObject\BlocksColumn.cpp
; File C:\Program Files (x86)\Microsoft Visual Studio\2019\Community\VC\Tools\MSVC\14.29.30133\atlmfc\include\atlsimpstr.h
; File D:\git\src\IBK\IBK_DRFN\ProjSrc\SrcChartEx\ChartOCX\ChartObject\BlocksColumn.cpp
; File C:\Program Files (x86)\Windows Kits\10\Include\10.0.22000.0\ucrt\string.h
; File D:\git\src\IBK\IBK_DRFN\ProjSrc\SrcChartEx\ChartOCX\ChartObject\BlocksColumn.cpp
; File C:\Program Files (x86)\Windows Kits\10\Include\10.0.22000.0\ucrt\string.h
; File D:\git\src\IBK\IBK_DRFN\ProjSrc\SrcChartEx\ChartOCX\ChartObject\BlocksColumn.cpp
; File C:\Program Files (x86)\Windows Kits\10\Include\10.0.22000.0\ucrt\string.h
; File D:\git\src\IBK\IBK_DRFN\ProjSrc\SrcChartEx\ChartOCX\ChartObject\BlocksColumn.cpp
; File C:\Program Files (x86)\Windows Kits\10\Include\10.0.22000.0\ucrt\string.h
; File D:\git\src\IBK\IBK_DRFN\ProjSrc\SrcChartEx\ChartOCX\ChartObject\BlocksColumn.cpp
; File C:\Program Files (x86)\Microsoft Visual Studio\2019\Community\VC\Tools\MSVC\14.29.30133\atlmfc\include\afxcoll.inl
; File D:\git\src\IBK\IBK_DRFN\ProjSrc\SrcChartEx\ChartOCX\ChartObject\BlocksColumn.cpp
; File C:\Program Files (x86)\Microsoft Visual Studio\2019\Community\VC\Tools\MSVC\14.29.30133\atlmfc\include\afxcoll.inl
; File D:\git\src\IBK\IBK_DRFN\ProjSrc\SrcChartEx\ChartOCX\ChartObject\BlocksColumn.cpp
; File C:\Program Files (x86)\Windows Kits\10\Include\10.0.22000.0\ucrt\string.h
; File D:\git\src\IBK\IBK_DRFN\ProjSrc\SrcChartEx\ChartOCX\ChartObject\BlocksColumn.cpp
; File C:\Program Files (x86)\Windows Kits\10\Include\10.0.22000.0\ucrt\string.h
; File D:\git\src\IBK\IBK_DRFN\ProjSrc\SrcChartEx\ChartOCX\ChartObject\BlocksColumn.cpp
; File C:\Program Files (x86)\Windows Kits\10\Include\10.0.22000.0\ucrt\string.h
; File D:\git\src\IBK\IBK_DRFN\ProjSrc\SrcChartEx\ChartOCX\ChartObject\BlocksColumn.cpp
; File C:\Program Files (x86)\Windows Kits\10\Include\10.0.22000.0\ucrt\string.h
; File D:\git\src\IBK\IBK_DRFN\ProjSrc\SrcChartEx\ChartOCX\ChartObject\BlocksColumn.cpp
; File C:\Program Files (x86)\Windows Kits\10\Include\10.0.22000.0\ucrt\string.h
; File D:\git\src\IBK\IBK_DRFN\ProjSrc\SrcChartEx\ChartOCX\ChartObject\BlocksColumn.cpp
; File C:\Program Files (x86)\Microsoft Visual Studio\2019\Community\VC\Tools\MSVC\14.29.30133\atlmfc\include\afxcoll.inl
; File D:\git\src\IBK\IBK_DRFN\ProjSrc\SrcChartEx\ChartOCX\ChartObject\BlocksColumn.cpp
; File C:\Program Files (x86)\Microsoft Visual Studio\2019\Community\VC\Tools\MSVC\14.29.30133\atlmfc\include\afxcoll.inl
; File D:\git\src\IBK\IBK_DRFN\ProjSrc\SrcChartEx\ChartOCX\ChartObject\BlocksColumn.cpp
; File C:\Program Files (x86)\Microsoft Visual Studio\2019\Community\VC\Tools\MSVC\14.29.30133\atlmfc\include\afxcoll.inl
; File D:\git\src\IBK\IBK_DRFN\ProjSrc\SrcChartEx\ChartOCX\ChartObject\BlocksColumn.cpp
;	COMDAT ?InsertBlocks@CBlocksColumn@@QAE_NABV?$CStringT@DV?$StrTraitMFC_DLL@DV?$ChTraitsCRT@D@ATL@@@@@ATL@@@Z
_TEXT	SEGMENT
_bCalc$ = -24						; size = 4
_strBlockColumnData$ = -20				; size = 4
_this$1$ = -16						; size = 4
__$EHRec$ = -12						; size = 12
$T2 = 8							; size = 4
_strGraphData$ = 8					; size = 4
?InsertBlocks@CBlocksColumn@@QAE_NABV?$CStringT@DV?$StrTraitMFC_DLL@DV?$ChTraitsCRT@D@ATL@@@@@ATL@@@Z PROC ; CBlocksColumn::InsertBlocks, COMDAT
; _this$ = ecx

; 460  : {

  00000	55		 push	 ebp
  00001	8b ec		 mov	 ebp, esp
  00003	6a ff		 push	 -1
  00005	68 00 00 00 00	 push	 __ehhandler$?InsertBlocks@CBlocksColumn@@QAE_NABV?$CStringT@DV?$StrTraitMFC_DLL@DV?$ChTraitsCRT@D@ATL@@@@@ATL@@@Z
  0000a	64 a1 00 00 00
	00		 mov	 eax, DWORD PTR fs:0
  00010	50		 push	 eax
  00011	83 ec 0c	 sub	 esp, 12			; 0000000cH
  00014	53		 push	 ebx
  00015	56		 push	 esi
  00016	57		 push	 edi
  00017	a1 00 00 00 00	 mov	 eax, DWORD PTR ___security_cookie
  0001c	33 c5		 xor	 eax, ebp
  0001e	50		 push	 eax
  0001f	8d 45 f4	 lea	 eax, DWORD PTR __$EHRec$[ebp]
  00022	64 a3 00 00 00
	00		 mov	 DWORD PTR fs:0, eax
  00028	8b d9		 mov	 ebx, ecx
  0002a	89 5d f0	 mov	 DWORD PTR _this$1$[ebp], ebx
; File C:\Program Files (x86)\Microsoft Visual Studio\2019\Community\VC\Tools\MSVC\14.29.30133\atlmfc\include\atlsimpstr.h

; 519  : 		return( GetData()->nDataLength );

  0002d	8b 75 08	 mov	 esi, DWORD PTR _strGraphData$[ebp]
  00030	8b 06		 mov	 eax, DWORD PTR [esi]

; 533  : 		return( GetLength() == 0 );

  00032	83 78 f4 00	 cmp	 DWORD PTR [eax-12], 0
; File D:\git\src\IBK\IBK_DRFN\ProjSrc\SrcChartEx\ChartOCX\ChartObject\BlocksColumn.cpp

; 461  : 	if( !strGraphData.IsEmpty()) return false;

  00036	74 16		 je	 SHORT $LN2@InsertBloc
  00038	32 c0		 xor	 al, al

; 473  : }

  0003a	8b 4d f4	 mov	 ecx, DWORD PTR __$EHRec$[ebp]
  0003d	64 89 0d 00 00
	00 00		 mov	 DWORD PTR fs:0, ecx
  00044	59		 pop	 ecx
  00045	5f		 pop	 edi
  00046	5e		 pop	 esi
  00047	5b		 pop	 ebx
  00048	8b e5		 mov	 esp, ebp
  0004a	5d		 pop	 ebp
  0004b	c2 04 00	 ret	 4
$LN2@InsertBloc:

; 462  : 
; 463  : 	SendMessageToParent_BlockInsert(0);

  0004e	6a 00		 push	 0
  00050	e8 00 00 00 00	 call	 ?SendMessageToParent_BlockInsert@CBlocksColumn@@QAEXH@Z ; CBlocksColumn::SendMessageToParent_BlockInsert

; 464  : 	MakeBlocksColumn(CDataConversion::GetStringDataCount(strGraphData, "Block;\r\n"));

  00055	68 00 00 00 00	 push	 OFFSET ??_C@_08KGLHHGPJ@Block?$DL?$AN?6@
  0005a	8d 4d 08	 lea	 ecx, DWORD PTR $T2[ebp]
  0005d	ff 15 00 00 00
	00		 call	 DWORD PTR __imp_??0?$CStringT@DV?$StrTraitMFC_DLL@DV?$ChTraitsCRT@D@ATL@@@@@ATL@@QAE@PBD@Z
  00063	8d 45 08	 lea	 eax, DWORD PTR $T2[ebp]
  00066	c7 45 fc 00 00
	00 00		 mov	 DWORD PTR __$EHRec$[ebp+8], 0
  0006d	50		 push	 eax
  0006e	56		 push	 esi
  0006f	e8 00 00 00 00	 call	 ?GetStringDataCount@CDataConversion@@SAHABV?$CStringT@DV?$StrTraitMFC_DLL@DV?$ChTraitsCRT@D@ATL@@@@@ATL@@0@Z ; CDataConversion::GetStringDataCount
  00074	83 c4 08	 add	 esp, 8
  00077	8b cb		 mov	 ecx, ebx
  00079	50		 push	 eax
  0007a	e8 00 00 00 00	 call	 ?MakeBlocksColumn@CBlocksColumn@@QAEXH@Z ; CBlocksColumn::MakeBlocksColumn
  0007f	8d 4d 08	 lea	 ecx, DWORD PTR $T2[ebp]
  00082	ff 15 00 00 00
	00		 call	 DWORD PTR __imp_??1?$CStringT@DV?$StrTraitMFC_DLL@DV?$ChTraitsCRT@D@ATL@@@@@ATL@@QAE@XZ

; 465  : 
; 466  : 	CString strBlockColumnData;

  00088	8d 4d ec	 lea	 ecx, DWORD PTR _strBlockColumnData$[ebp]
  0008b	ff 15 00 00 00
	00		 call	 DWORD PTR __imp_??0?$CStringT@DV?$StrTraitMFC_DLL@DV?$ChTraitsCRT@D@ATL@@@@@ATL@@QAE@XZ
; File C:\Program Files (x86)\Microsoft Visual Studio\2019\Community\VC\Tools\MSVC\14.29.30133\atlmfc\include\atlsimpstr.h

; 519  : 		return( GetData()->nDataLength );

  00091	8b 06		 mov	 eax, DWORD PTR [esi]
; File D:\git\src\IBK\IBK_DRFN\ProjSrc\SrcChartEx\ChartOCX\ChartObject\BlocksColumn.cpp

; 467  : 	char *szBlockColumnData = strBlockColumnData.GetBufferSetLength( strGraphData.GetLength());

  00093	8d 4d ec	 lea	 ecx, DWORD PTR _strBlockColumnData$[ebp]
  00096	c7 45 fc 01 00
	00 00		 mov	 DWORD PTR __$EHRec$[ebp+8], 1
  0009d	ff 70 f4	 push	 DWORD PTR [eax-12]
  000a0	ff 15 00 00 00
	00		 call	 DWORD PTR __imp_?GetBufferSetLength@?$CSimpleStringT@D$00@ATL@@QAEPADH@Z
; File C:\Program Files (x86)\Microsoft Visual Studio\2019\Community\VC\Tools\MSVC\14.29.30133\atlmfc\include\atlsimpstr.h

; 377  : 		return( m_pszData );

  000a6	8b 16		 mov	 edx, DWORD PTR [esi]
; File D:\git\src\IBK\IBK_DRFN\ProjSrc\SrcChartEx\ChartOCX\ChartObject\BlocksColumn.cpp

; 468  : 	strcpy( szBlockColumnData, strGraphData);

  000a8	8b f0		 mov	 esi, eax
  000aa	66 0f 1f 44 00
	00		 npad	 6
$LL4@InsertBloc:
  000b0	8a 0a		 mov	 cl, BYTE PTR [edx]
  000b2	8d 52 01	 lea	 edx, DWORD PTR [edx+1]
  000b5	88 0e		 mov	 BYTE PTR [esi], cl
  000b7	8d 76 01	 lea	 esi, DWORD PTR [esi+1]
  000ba	84 c9		 test	 cl, cl
  000bc	75 f2		 jne	 SHORT $LL4@InsertBloc

; 469  : 	//     : xScaleManager - ojtaso (20070701)
; 470  : 	BOOL bCalc = FALSE;

  000be	c7 45 e8 00 00
	00 00		 mov	 DWORD PTR _bCalc$[ebp], 0

; 114  : 	if( !p_szBlockColumnData) return;

  000c5	85 c0		 test	 eax, eax
  000c7	0f 84 a2 00 00
	00		 je	 $LN23@InsertBloc

; 115  : 	if( !*p_szBlockColumnData) return;

  000cd	38 08		 cmp	 BYTE PTR [eax], cl
  000cf	0f 84 9a 00 00
	00		 je	 $LN23@InsertBloc
; File C:\Program Files (x86)\Windows Kits\10\Include\10.0.22000.0\ucrt\string.h

; 520  :         return const_cast<char*>(strstr(static_cast<char const*>(_String), _SubString));

  000d5	68 00 00 00 00	 push	 OFFSET ??_C@_08KGLHHGPJ@Block?$DL?$AN?6@
  000da	50		 push	 eax
  000db	e8 00 00 00 00	 call	 _strstr
; File D:\git\src\IBK\IBK_DRFN\ProjSrc\SrcChartEx\ChartOCX\ChartObject\BlocksColumn.cpp

; 117  : 	char *szBlock = strstr( p_szBlockColumnData, "Block;\r\n");

  000e0	8b f8		 mov	 edi, eax
; File C:\Program Files (x86)\Windows Kits\10\Include\10.0.22000.0\ucrt\string.h

; 520  :         return const_cast<char*>(strstr(static_cast<char const*>(_String), _SubString));

  000e2	83 c4 08	 add	 esp, 8
; File D:\git\src\IBK\IBK_DRFN\ProjSrc\SrcChartEx\ChartOCX\ChartObject\BlocksColumn.cpp

; 118  : 	if( !szBlock) return;

  000e5	85 ff		 test	 edi, edi
  000e7	0f 84 82 00 00
	00		 je	 $LN23@InsertBloc

; 119  : 	szBlock += 8;												// "Block;\r\n"

  000ed	83 c7 08	 add	 edi, 8
; File C:\Program Files (x86)\Windows Kits\10\Include\10.0.22000.0\ucrt\string.h

; 520  :         return const_cast<char*>(strstr(static_cast<char const*>(_String), _SubString));

  000f0	68 00 00 00 00	 push	 OFFSET ??_C@_0M@FHFNKLHB@BlockEnd?$DL?$AN?6@
  000f5	57		 push	 edi
  000f6	e8 00 00 00 00	 call	 _strstr
; File D:\git\src\IBK\IBK_DRFN\ProjSrc\SrcChartEx\ChartOCX\ChartObject\BlocksColumn.cpp

; 120  : 	char *szNextBlock = strstr( szBlock, "BlockEnd;\r\n");

  000fb	8b d8		 mov	 ebx, eax
; File C:\Program Files (x86)\Windows Kits\10\Include\10.0.22000.0\ucrt\string.h

; 520  :         return const_cast<char*>(strstr(static_cast<char const*>(_String), _SubString));

  000fd	83 c4 08	 add	 esp, 8
; File D:\git\src\IBK\IBK_DRFN\ProjSrc\SrcChartEx\ChartOCX\ChartObject\BlocksColumn.cpp

; 121  : 	if( szNextBlock) *szNextBlock = '\0';

  00100	85 db		 test	 ebx, ebx
  00102	74 03		 je	 SHORT $LN27@InsertBloc
  00104	c6 03 00	 mov	 BYTE PTR [ebx], 0
$LN27@InsertBloc:

; 122  : 
; 123  : 	CBlockImp* pBlock = NULL;
; 124  : 	POSITION posBlock = m_BlockList.GetHeadPosition();

  00107	8b 75 f0	 mov	 esi, DWORD PTR _this$1$[ebp]
  0010a	8b 76 14	 mov	 esi, DWORD PTR [esi+20]

; 125  : 	while( posBlock && szBlock)

  0010d	85 f6		 test	 esi, esi
  0010f	74 5e		 je	 SHORT $LN23@InsertBloc
$LL20@InsertBloc:
  00111	85 ff		 test	 edi, edi
  00113	74 7b		 je	 SHORT $LL22@InsertBloc
; File C:\Program Files (x86)\Microsoft Visual Studio\2019\Community\VC\Tools\MSVC\14.29.30133\atlmfc\include\afxcoll.inl

; 428  : 	{ CNode* pNode = (CNode*) rPosition;

  00115	8b ce		 mov	 ecx, esi

; 430  : 		if( pNode == NULL )

  00117	85 f6		 test	 esi, esi
  00119	0f 84 91 00 00
	00		 je	 $LN64@InsertBloc
; File D:\git\src\IBK\IBK_DRFN\ProjSrc\SrcChartEx\ChartOCX\ChartObject\BlocksColumn.cpp

; 127  : 		pBlock = m_BlockList.GetNext( posBlock);

  0011f	8b 49 08	 mov	 ecx, DWORD PTR [ecx+8]
; File C:\Program Files (x86)\Microsoft Visual Studio\2019\Community\VC\Tools\MSVC\14.29.30133\atlmfc\include\afxcoll.inl

; 432  : 		rPosition = (POSITION) pNode->pNext;

  00122	8b 36		 mov	 esi, DWORD PTR [esi]
; File D:\git\src\IBK\IBK_DRFN\ProjSrc\SrcChartEx\ChartOCX\ChartObject\BlocksColumn.cpp

; 128  : 		if( !pBlock) continue;

  00124	85 c9		 test	 ecx, ecx
  00126	74 43		 je	 SHORT $LN30@InsertBloc

; 129  : 
; 130  : 		//     : xScaleManager - ojtaso (20070701)
; 131  : 		pBlock->BuildGraphsAndScales( szBlock, bCalc);

  00128	8d 45 e8	 lea	 eax, DWORD PTR _bCalc$[ebp]
  0012b	50		 push	 eax
  0012c	57		 push	 edi
  0012d	e8 00 00 00 00	 call	 ?BuildGraphsAndScales@CBlockImp@@QAEXPADAAH@Z ; CBlockImp::BuildGraphsAndScales

; 132  : 
; 133  : 		if( szNextBlock)

  00132	85 db		 test	 ebx, ebx
  00134	74 33		 je	 SHORT $LN29@InsertBloc
; File C:\Program Files (x86)\Windows Kits\10\Include\10.0.22000.0\ucrt\string.h

; 520  :         return const_cast<char*>(strstr(static_cast<char const*>(_String), _SubString));

  00136	68 00 00 00 00	 push	 OFFSET ??_C@_08KGLHHGPJ@Block?$DL?$AN?6@
  0013b	53		 push	 ebx
; File D:\git\src\IBK\IBK_DRFN\ProjSrc\SrcChartEx\ChartOCX\ChartObject\BlocksColumn.cpp

; 135  : 			*szNextBlock = 'B';

  0013c	c6 03 42	 mov	 BYTE PTR [ebx], 66	; 00000042H
; File C:\Program Files (x86)\Windows Kits\10\Include\10.0.22000.0\ucrt\string.h

; 520  :         return const_cast<char*>(strstr(static_cast<char const*>(_String), _SubString));

  0013f	e8 00 00 00 00	 call	 _strstr
; File D:\git\src\IBK\IBK_DRFN\ProjSrc\SrcChartEx\ChartOCX\ChartObject\BlocksColumn.cpp

; 137  : 			szBlock = strstr( szNextBlock, "Block;\r\n");

  00144	8b f8		 mov	 edi, eax
; File C:\Program Files (x86)\Windows Kits\10\Include\10.0.22000.0\ucrt\string.h

; 520  :         return const_cast<char*>(strstr(static_cast<char const*>(_String), _SubString));

  00146	83 c4 08	 add	 esp, 8
; File D:\git\src\IBK\IBK_DRFN\ProjSrc\SrcChartEx\ChartOCX\ChartObject\BlocksColumn.cpp

; 138  : 			if( szBlock)

  00149	85 ff		 test	 edi, edi
  0014b	74 1e		 je	 SHORT $LN30@InsertBloc

; 139  : 			{
; 140  : 				szBlock += 8;		// "Block;\r\n"

  0014d	83 c7 08	 add	 edi, 8
; File C:\Program Files (x86)\Windows Kits\10\Include\10.0.22000.0\ucrt\string.h

; 520  :         return const_cast<char*>(strstr(static_cast<char const*>(_String), _SubString));

  00150	68 00 00 00 00	 push	 OFFSET ??_C@_0M@FHFNKLHB@BlockEnd?$DL?$AN?6@
  00155	57		 push	 edi
  00156	e8 00 00 00 00	 call	 _strstr
; File D:\git\src\IBK\IBK_DRFN\ProjSrc\SrcChartEx\ChartOCX\ChartObject\BlocksColumn.cpp

; 142  : 				szNextBlock = strstr( szBlock, "BlockEnd;\r\n");

  0015b	8b d8		 mov	 ebx, eax
; File C:\Program Files (x86)\Windows Kits\10\Include\10.0.22000.0\ucrt\string.h

; 520  :         return const_cast<char*>(strstr(static_cast<char const*>(_String), _SubString));

  0015d	83 c4 08	 add	 esp, 8
; File D:\git\src\IBK\IBK_DRFN\ProjSrc\SrcChartEx\ChartOCX\ChartObject\BlocksColumn.cpp

; 143  : 				if( szNextBlock) *szNextBlock = '\0';

  00160	85 db		 test	 ebx, ebx
  00162	74 07		 je	 SHORT $LN30@InsertBloc
  00164	c6 03 00	 mov	 BYTE PTR [ebx], 0

; 144  : 			}
; 145  : 		}

  00167	eb 02		 jmp	 SHORT $LN30@InsertBloc
$LN29@InsertBloc:

; 146  : 		else szBlock = NULL;

  00169	33 ff		 xor	 edi, edi
$LN30@InsertBloc:

; 125  : 	while( posBlock && szBlock)

  0016b	85 f6		 test	 esi, esi
  0016d	75 a2		 jne	 SHORT $LL20@InsertBloc
$LN23@InsertBloc:

; 471  : 	BuildGraphsAndScales( szBlockColumnData, bCalc);
; 472  : 	return true;

  0016f	8d 4d ec	 lea	 ecx, DWORD PTR _strBlockColumnData$[ebp]
  00172	ff 15 00 00 00
	00		 call	 DWORD PTR __imp_??1?$CStringT@DV?$StrTraitMFC_DLL@DV?$ChTraitsCRT@D@ATL@@@@@ATL@@QAE@XZ
  00178	b0 01		 mov	 al, 1

; 473  : }

  0017a	8b 4d f4	 mov	 ecx, DWORD PTR __$EHRec$[ebp]
  0017d	64 89 0d 00 00
	00 00		 mov	 DWORD PTR fs:0, ecx
  00184	59		 pop	 ecx
  00185	5f		 pop	 edi
  00186	5e		 pop	 esi
  00187	5b		 pop	 ebx
  00188	8b e5		 mov	 esp, ebp
  0018a	5d		 pop	 ebp
  0018b	c2 04 00	 ret	 4
  0018e	66 90		 npad	 2
$LL22@InsertBloc:
; File C:\Program Files (x86)\Microsoft Visual Studio\2019\Community\VC\Tools\MSVC\14.29.30133\atlmfc\include\afxcoll.inl

; 428  : 	{ CNode* pNode = (CNode*) rPosition;

  00190	8b c6		 mov	 eax, esi

; 430  : 		if( pNode == NULL )

  00192	85 f6		 test	 esi, esi
  00194	74 1a		 je	 SHORT $LN64@InsertBloc
; File D:\git\src\IBK\IBK_DRFN\ProjSrc\SrcChartEx\ChartOCX\ChartObject\BlocksColumn.cpp

; 154  : 			pBlock = m_BlockList.GetNext( posBlock);

  00196	8b 40 08	 mov	 eax, DWORD PTR [eax+8]
; File C:\Program Files (x86)\Microsoft Visual Studio\2019\Community\VC\Tools\MSVC\14.29.30133\atlmfc\include\afxcoll.inl

; 432  : 		rPosition = (POSITION) pNode->pNext;

  00199	8b 36		 mov	 esi, DWORD PTR [esi]
; File D:\git\src\IBK\IBK_DRFN\ProjSrc\SrcChartEx\ChartOCX\ChartObject\BlocksColumn.cpp

; 155  : 			if( !pBlock) continue;

  0019b	85 c0		 test	 eax, eax
  0019d	74 0b		 je	 SHORT $LN65@InsertBloc

; 156  : 
; 157  : 			DeleteBlock(pBlock, FALSE);

  0019f	8b 4d f0	 mov	 ecx, DWORD PTR _this$1$[ebp]
  001a2	6a 00		 push	 0
  001a4	50		 push	 eax
  001a5	e8 00 00 00 00	 call	 ?DeleteBlock@CBlocksColumn@@QAE_NPAVCBlockImp@@_N@Z ; CBlocksColumn::DeleteBlock
$LN65@InsertBloc:

; 147  : 	}
; 148  : 	//>> JS.Kim_20100929  solomon.. PAIR RQ   ..
; 149  : 	//  Block   Block .
; 150  : 	if( posBlock && !szBlock )
; 151  : 	{
; 152  : 		while( posBlock )

  001aa	85 f6		 test	 esi, esi
  001ac	75 e2		 jne	 SHORT $LL22@InsertBloc
; File C:\Program Files (x86)\Microsoft Visual Studio\2019\Community\VC\Tools\MSVC\14.29.30133\atlmfc\include\afxcoll.inl

; 430  : 		if( pNode == NULL )

  001ae	eb bf		 jmp	 SHORT $LN23@InsertBloc
$LN64@InsertBloc:

; 431  : 			AfxThrowInvalidArgException();

  001b0	e8 00 00 00 00	 call	 ?AfxThrowInvalidArgException@@YGXXZ ; AfxThrowInvalidArgException
$LN81@InsertBloc:
  001b5	cc		 int	 3
_TEXT	ENDS
;	COMDAT text$x
text$x	SEGMENT
__unwindfunclet$?InsertBlocks@CBlocksColumn@@QAE_NABV?$CStringT@DV?$StrTraitMFC_DLL@DV?$ChTraitsCRT@D@ATL@@@@@ATL@@@Z$0:
  00000	8d 4d 08	 lea	 ecx, DWORD PTR $T2[ebp]
  00003	ff 25 00 00 00
	00		 jmp	 DWORD PTR __imp_??1?$CStringT@DV?$StrTraitMFC_DLL@DV?$ChTraitsCRT@D@ATL@@@@@ATL@@QAE@XZ
__unwindfunclet$?InsertBlocks@CBlocksColumn@@QAE_NABV?$CStringT@DV?$StrTraitMFC_DLL@DV?$ChTraitsCRT@D@ATL@@@@@ATL@@@Z$1:
  00009	8d 4d ec	 lea	 ecx, DWORD PTR _strBlockColumnData$[ebp]
  0000c	ff 25 00 00 00
	00		 jmp	 DWORD PTR __imp_??1?$CStringT@DV?$StrTraitMFC_DLL@DV?$ChTraitsCRT@D@ATL@@@@@ATL@@QAE@XZ
  00012	cc		 int	 3
  00013	cc		 int	 3
  00014	cc		 int	 3
  00015	cc		 int	 3
  00016	cc		 int	 3
__ehhandler$?InsertBlocks@CBlocksColumn@@QAE_NABV?$CStringT@DV?$StrTraitMFC_DLL@DV?$ChTraitsCRT@D@ATL@@@@@ATL@@@Z:
  00017	90		 npad	 1
  00018	90		 npad	 1
  00019	8b 54 24 08	 mov	 edx, DWORD PTR [esp+8]
  0001d	8d 42 0c	 lea	 eax, DWORD PTR [edx+12]
  00020	8b 4a e4	 mov	 ecx, DWORD PTR [edx-28]
  00023	33 c8		 xor	 ecx, eax
  00025	e8 00 00 00 00	 call	 @__security_check_cookie@4
  0002a	b8 00 00 00 00	 mov	 eax, OFFSET __ehfuncinfo$?InsertBlocks@CBlocksColumn@@QAE_NABV?$CStringT@DV?$StrTraitMFC_DLL@DV?$ChTraitsCRT@D@ATL@@@@@ATL@@@Z
  0002f	e9 00 00 00 00	 jmp	 ___CxxFrameHandler3
text$x	ENDS
?InsertBlocks@CBlocksColumn@@QAE_NABV?$CStringT@DV?$StrTraitMFC_DLL@DV?$ChTraitsCRT@D@ATL@@@@@ATL@@@Z ENDP ; CBlocksColumn::InsertBlocks
; Function compile flags: /Ogtp
; File D:\git\src\IBK\IBK_DRFN\ProjSrc\SrcChartEx\ChartOCX\ChartObject\BlocksColumn.cpp
; File C:\Program Files (x86)\Microsoft Visual Studio\2019\Community\VC\Tools\MSVC\14.29.30133\atlmfc\include\atlsimpstr.h
; File D:\git\src\IBK\IBK_DRFN\ProjSrc\SrcChartEx\ChartOCX\ChartObject\BlocksColumn.cpp
; File C:\Program Files (x86)\Microsoft Visual Studio\2019\Community\VC\Tools\MSVC\14.29.30133\atlmfc\include\atlsimpstr.h
; File D:\git\src\IBK\IBK_DRFN\ProjSrc\SrcChartEx\ChartOCX\ChartObject\BlocksColumn.cpp
; File C:\Program Files (x86)\Microsoft Visual Studio\2019\Community\VC\Tools\MSVC\14.29.30133\atlmfc\include\atlsimpstr.h
; File D:\git\src\IBK\IBK_DRFN\ProjSrc\SrcChartEx\ChartOCX\ChartObject\BlocksColumn.cpp
; File C:\Program Files (x86)\Windows Kits\10\Include\10.0.22000.0\ucrt\string.h
; File D:\git\src\IBK\IBK_DRFN\ProjSrc\SrcChartEx\ChartOCX\ChartObject\BlocksColumn.cpp
; File C:\Program Files (x86)\Windows Kits\10\Include\10.0.22000.0\ucrt\string.h
; File D:\git\src\IBK\IBK_DRFN\ProjSrc\SrcChartEx\ChartOCX\ChartObject\BlocksColumn.cpp
; File C:\Program Files (x86)\Windows Kits\10\Include\10.0.22000.0\ucrt\string.h
; File D:\git\src\IBK\IBK_DRFN\ProjSrc\SrcChartEx\ChartOCX\ChartObject\BlocksColumn.cpp
; File C:\Program Files (x86)\Windows Kits\10\Include\10.0.22000.0\ucrt\string.h
; File D:\git\src\IBK\IBK_DRFN\ProjSrc\SrcChartEx\ChartOCX\ChartObject\BlocksColumn.cpp
; File C:\Program Files (x86)\Windows Kits\10\Include\10.0.22000.0\ucrt\string.h
; File D:\git\src\IBK\IBK_DRFN\ProjSrc\SrcChartEx\ChartOCX\ChartObject\BlocksColumn.cpp
; File C:\Program Files (x86)\Windows Kits\10\Include\10.0.22000.0\ucrt\string.h
; File D:\git\src\IBK\IBK_DRFN\ProjSrc\SrcChartEx\ChartOCX\ChartObject\BlocksColumn.cpp
;	COMDAT ?InsertBlocks@CBlocksColumn@@QAE_NHABV?$CStringT@DV?$StrTraitMFC_DLL@DV?$ChTraitsCRT@D@ATL@@@@@ATL@@@Z
_TEXT	SEGMENT
_this$1$ = -16						; size = 4
__$EHRec$ = -12						; size = 12
_nInsertPosition$ = 8					; size = 4
_strBlockData$ = 12					; size = 4
_strGraphData$ = 12					; size = 4
?InsertBlocks@CBlocksColumn@@QAE_NHABV?$CStringT@DV?$StrTraitMFC_DLL@DV?$ChTraitsCRT@D@ATL@@@@@ATL@@@Z PROC ; CBlocksColumn::InsertBlocks, COMDAT
; _this$ = ecx

; 400  : {

  00000	55		 push	 ebp
  00001	8b ec		 mov	 ebp, esp
  00003	6a ff		 push	 -1
  00005	68 00 00 00 00	 push	 __ehhandler$?InsertBlocks@CBlocksColumn@@QAE_NHABV?$CStringT@DV?$StrTraitMFC_DLL@DV?$ChTraitsCRT@D@ATL@@@@@ATL@@@Z
  0000a	64 a1 00 00 00
	00		 mov	 eax, DWORD PTR fs:0
  00010	50		 push	 eax
  00011	51		 push	 ecx
  00012	53		 push	 ebx
  00013	56		 push	 esi
  00014	57		 push	 edi
  00015	a1 00 00 00 00	 mov	 eax, DWORD PTR ___security_cookie
  0001a	33 c5		 xor	 eax, ebp
  0001c	50		 push	 eax
  0001d	8d 45 f4	 lea	 eax, DWORD PTR __$EHRec$[ebp]
  00020	64 a3 00 00 00
	00		 mov	 DWORD PTR fs:0, eax
  00026	89 4d f0	 mov	 DWORD PTR _this$1$[ebp], ecx
; File C:\Program Files (x86)\Microsoft Visual Studio\2019\Community\VC\Tools\MSVC\14.29.30133\atlmfc\include\atlsimpstr.h

; 519  : 		return( GetData()->nDataLength );

  00029	8b 75 0c	 mov	 esi, DWORD PTR _strGraphData$[ebp]
  0002c	8b 06		 mov	 eax, DWORD PTR [esi]

; 533  : 		return( GetLength() == 0 );

  0002e	83 78 f4 00	 cmp	 DWORD PTR [eax-12], 0
; File D:\git\src\IBK\IBK_DRFN\ProjSrc\SrcChartEx\ChartOCX\ChartObject\BlocksColumn.cpp

; 401  : 	if( strGraphData.IsEmpty()) return false;

  00032	75 16		 jne	 SHORT $LN4@InsertBloc
  00034	32 c0		 xor	 al, al

; 426  : }

  00036	8b 4d f4	 mov	 ecx, DWORD PTR __$EHRec$[ebp]
  00039	64 89 0d 00 00
	00 00		 mov	 DWORD PTR fs:0, ecx
  00040	59		 pop	 ecx
  00041	5f		 pop	 edi
  00042	5e		 pop	 esi
  00043	5b		 pop	 ebx
  00044	8b e5		 mov	 esp, ebp
  00046	5d		 pop	 ebp
  00047	c2 08 00	 ret	 8
$LN4@InsertBloc:

; 402  : 	CString strBlockData;

  0004a	8d 4d 0c	 lea	 ecx, DWORD PTR _strBlockData$[ebp]
  0004d	ff 15 00 00 00
	00		 call	 DWORD PTR __imp_??0?$CStringT@DV?$StrTraitMFC_DLL@DV?$ChTraitsCRT@D@ATL@@@@@ATL@@QAE@XZ
; File C:\Program Files (x86)\Microsoft Visual Studio\2019\Community\VC\Tools\MSVC\14.29.30133\atlmfc\include\atlsimpstr.h

; 519  : 		return( GetData()->nDataLength );

  00053	8b 06		 mov	 eax, DWORD PTR [esi]
; File D:\git\src\IBK\IBK_DRFN\ProjSrc\SrcChartEx\ChartOCX\ChartObject\BlocksColumn.cpp

; 403  : 	char *szBlockData = strBlockData.GetBufferSetLength( strGraphData.GetLength());

  00055	8d 4d 0c	 lea	 ecx, DWORD PTR _strBlockData$[ebp]
  00058	c7 45 fc 00 00
	00 00		 mov	 DWORD PTR __$EHRec$[ebp+8], 0
  0005f	ff 70 f4	 push	 DWORD PTR [eax-12]
  00062	ff 15 00 00 00
	00		 call	 DWORD PTR __imp_?GetBufferSetLength@?$CSimpleStringT@D$00@ATL@@QAEPADH@Z
; File C:\Program Files (x86)\Microsoft Visual Studio\2019\Community\VC\Tools\MSVC\14.29.30133\atlmfc\include\atlsimpstr.h

; 377  : 		return( m_pszData );

  00068	8b 16		 mov	 edx, DWORD PTR [esi]
; File D:\git\src\IBK\IBK_DRFN\ProjSrc\SrcChartEx\ChartOCX\ChartObject\BlocksColumn.cpp

; 404  : 	strcpy( szBlockData, strGraphData);

  0006a	8b f0		 mov	 esi, eax
  0006c	0f 1f 40 00	 npad	 4
$LL10@InsertBloc:
  00070	8a 0a		 mov	 cl, BYTE PTR [edx]
  00072	8d 52 01	 lea	 edx, DWORD PTR [edx+1]
  00075	88 0e		 mov	 BYTE PTR [esi], cl
  00077	8d 76 01	 lea	 esi, DWORD PTR [esi+1]
  0007a	84 c9		 test	 cl, cl
  0007c	75 f2		 jne	 SHORT $LL10@InsertBloc
; File C:\Program Files (x86)\Windows Kits\10\Include\10.0.22000.0\ucrt\string.h

; 520  :         return const_cast<char*>(strstr(static_cast<char const*>(_String), _SubString));

  0007e	68 00 00 00 00	 push	 OFFSET ??_C@_08KGLHHGPJ@Block?$DL?$AN?6@
; File D:\git\src\IBK\IBK_DRFN\ProjSrc\SrcChartEx\ChartOCX\ChartObject\BlocksColumn.cpp

; 406  : 	bool bResult = false;

  00083	32 db		 xor	 bl, bl
; File C:\Program Files (x86)\Windows Kits\10\Include\10.0.22000.0\ucrt\string.h

; 520  :         return const_cast<char*>(strstr(static_cast<char const*>(_String), _SubString));

  00085	50		 push	 eax
$LN41@InsertBloc:
; File D:\git\src\IBK\IBK_DRFN\ProjSrc\SrcChartEx\ChartOCX\ChartObject\BlocksColumn.cpp

; 411  : 		szBlockData += 8;												// "Block;\r\n";

  00086	e8 00 00 00 00	 call	 _strstr
  0008b	8b f0		 mov	 esi, eax
  0008d	83 c4 08	 add	 esp, 8
  00090	85 f6		 test	 esi, esi
  00092	74 46		 je	 SHORT $LN7@InsertBloc
  00094	83 c6 08	 add	 esi, 8
  00097	8a fb		 mov	 bh, bl
; File C:\Program Files (x86)\Windows Kits\10\Include\10.0.22000.0\ucrt\string.h

; 520  :         return const_cast<char*>(strstr(static_cast<char const*>(_String), _SubString));

  00099	68 00 00 00 00	 push	 OFFSET ??_C@_0M@FHFNKLHB@BlockEnd?$DL?$AN?6@
  0009e	56		 push	 esi
  0009f	e8 00 00 00 00	 call	 _strstr
; File D:\git\src\IBK\IBK_DRFN\ProjSrc\SrcChartEx\ChartOCX\ChartObject\BlocksColumn.cpp

; 414  : 		if( szBlockDataEnd) *szBlockDataEnd = '\0';

  000a4	8b 4d f0	 mov	 ecx, DWORD PTR _this$1$[ebp]
; File C:\Program Files (x86)\Windows Kits\10\Include\10.0.22000.0\ucrt\string.h

; 520  :         return const_cast<char*>(strstr(static_cast<char const*>(_String), _SubString));

  000a7	83 c4 08	 add	 esp, 8
; File D:\git\src\IBK\IBK_DRFN\ProjSrc\SrcChartEx\ChartOCX\ChartObject\BlocksColumn.cpp

; 413  : 		char *szBlockDataEnd = strstr( szBlockData, "BlockEnd;\r\n");

  000aa	8b f8		 mov	 edi, eax

; 414  : 		if( szBlockDataEnd) *szBlockDataEnd = '\0';

  000ac	56		 push	 esi
  000ad	85 ff		 test	 edi, edi
  000af	74 1f		 je	 SHORT $LN5@InsertBloc
  000b1	8b 75 08	 mov	 esi, DWORD PTR _nInsertPosition$[ebp]
  000b4	56		 push	 esi
  000b5	c6 07 00	 mov	 BYTE PTR [edi], 0
  000b8	e8 00 00 00 00	 call	 ?InsertBlock@CBlocksColumn@@QAE_NHPAD@Z ; CBlocksColumn::InsertBlock

; 417  : 		if( szBlockDataEnd) *szBlockDataEnd = 'B';

  000bd	46		 inc	 esi
  000be	c6 07 42	 mov	 BYTE PTR [edi], 66	; 00000042H
  000c1	8a d8		 mov	 bl, al
  000c3	89 75 08	 mov	 DWORD PTR _nInsertPosition$[ebp], esi
; File C:\Program Files (x86)\Windows Kits\10\Include\10.0.22000.0\ucrt\string.h

; 520  :         return const_cast<char*>(strstr(static_cast<char const*>(_String), _SubString));

  000c6	68 00 00 00 00	 push	 OFFSET ??_C@_08KGLHHGPJ@Block?$DL?$AN?6@
; File D:\git\src\IBK\IBK_DRFN\ProjSrc\SrcChartEx\ChartOCX\ChartObject\BlocksColumn.cpp

; 417  : 		if( szBlockDataEnd) *szBlockDataEnd = 'B';

  000cb	0a df		 or	 bl, bh
; File C:\Program Files (x86)\Windows Kits\10\Include\10.0.22000.0\ucrt\string.h

; 520  :         return const_cast<char*>(strstr(static_cast<char const*>(_String), _SubString));

  000cd	57		 push	 edi
; File D:\git\src\IBK\IBK_DRFN\ProjSrc\SrcChartEx\ChartOCX\ChartObject\BlocksColumn.cpp

; 409  : 	while( szBlockData)

  000ce	eb b6		 jmp	 SHORT $LN41@InsertBloc
$LN5@InsertBloc:

; 415  : 
; 416  : 		bool bResult2 = InsertBlock( nInsertPosition + nInsertCount, szBlockData);

  000d0	ff 75 08	 push	 DWORD PTR _nInsertPosition$[ebp]
  000d3	e8 00 00 00 00	 call	 ?InsertBlock@CBlocksColumn@@QAE_NHPAD@Z ; CBlocksColumn::InsertBlock

; 418  : 		nInsertCount++;
; 419  : 
; 420  : 		bResult |= bResult2;

  000d8	0a d8		 or	 bl, al
$LN7@InsertBloc:

; 421  : 		if( szBlockDataEnd) szBlockData = strstr( szBlockDataEnd, "Block;\r\n");
; 422  : 		else szBlockData = NULL;
; 423  : 	}
; 424  : 
; 425  : 	return bResult;

  000da	8d 4d 0c	 lea	 ecx, DWORD PTR _strBlockData$[ebp]
  000dd	ff 15 00 00 00
	00		 call	 DWORD PTR __imp_??1?$CStringT@DV?$StrTraitMFC_DLL@DV?$ChTraitsCRT@D@ATL@@@@@ATL@@QAE@XZ
  000e3	8a c3		 mov	 al, bl

; 426  : }

  000e5	8b 4d f4	 mov	 ecx, DWORD PTR __$EHRec$[ebp]
  000e8	64 89 0d 00 00
	00 00		 mov	 DWORD PTR fs:0, ecx
  000ef	59		 pop	 ecx
  000f0	5f		 pop	 edi
  000f1	5e		 pop	 esi
  000f2	5b		 pop	 ebx
  000f3	8b e5		 mov	 esp, ebp
  000f5	5d		 pop	 ebp
  000f6	c2 08 00	 ret	 8
_TEXT	ENDS
;	COMDAT text$x
text$x	SEGMENT
__unwindfunclet$?InsertBlocks@CBlocksColumn@@QAE_NHABV?$CStringT@DV?$StrTraitMFC_DLL@DV?$ChTraitsCRT@D@ATL@@@@@ATL@@@Z$0:
  00000	8d 4d 0c	 lea	 ecx, DWORD PTR _strBlockData$[ebp]
  00003	ff 25 00 00 00
	00		 jmp	 DWORD PTR __imp_??1?$CStringT@DV?$StrTraitMFC_DLL@DV?$ChTraitsCRT@D@ATL@@@@@ATL@@QAE@XZ
  00009	cc		 int	 3
  0000a	cc		 int	 3
  0000b	cc		 int	 3
  0000c	cc		 int	 3
  0000d	cc		 int	 3
__ehhandler$?InsertBlocks@CBlocksColumn@@QAE_NHABV?$CStringT@DV?$StrTraitMFC_DLL@DV?$ChTraitsCRT@D@ATL@@@@@ATL@@@Z:
  0000e	90		 npad	 1
  0000f	90		 npad	 1
  00010	8b 54 24 08	 mov	 edx, DWORD PTR [esp+8]
  00014	8d 42 0c	 lea	 eax, DWORD PTR [edx+12]
  00017	8b 4a ec	 mov	 ecx, DWORD PTR [edx-20]
  0001a	33 c8		 xor	 ecx, eax
  0001c	e8 00 00 00 00	 call	 @__security_check_cookie@4
  00021	b8 00 00 00 00	 mov	 eax, OFFSET __ehfuncinfo$?InsertBlocks@CBlocksColumn@@QAE_NHABV?$CStringT@DV?$StrTraitMFC_DLL@DV?$ChTraitsCRT@D@ATL@@@@@ATL@@@Z
  00026	e9 00 00 00 00	 jmp	 ___CxxFrameHandler3
text$x	ENDS
?InsertBlocks@CBlocksColumn@@QAE_NHABV?$CStringT@DV?$StrTraitMFC_DLL@DV?$ChTraitsCRT@D@ATL@@@@@ATL@@@Z ENDP ; CBlocksColumn::InsertBlocks
; Function compile flags: /Ogtp
; File D:\git\src\IBK\IBK_DRFN\ProjSrc\SrcChartEx\ChartOCX\ChartObject\BlocksColumn.cpp
; File C:\Program Files (x86)\Microsoft Visual Studio\2019\Community\VC\Tools\MSVC\14.29.30133\atlmfc\include\atlsimpstr.h
; File D:\git\src\IBK\IBK_DRFN\ProjSrc\SrcChartEx\ChartOCX\ChartObject\BlocksColumn.cpp
; File C:\Program Files (x86)\Microsoft Visual Studio\2019\Community\VC\Tools\MSVC\14.29.30133\atlmfc\include\atlsimpstr.h
; File D:\git\src\IBK\IBK_DRFN\ProjSrc\SrcChartEx\ChartOCX\ChartObject\BlocksColumn.cpp
; File C:\Program Files (x86)\Microsoft Visual Studio\2019\Community\VC\Tools\MSVC\14.29.30133\atlmfc\include\atlsimpstr.h
; File D:\git\src\IBK\IBK_DRFN\ProjSrc\SrcChartEx\ChartOCX\ChartObject\BlocksColumn.cpp
; File C:\Program Files (x86)\Windows Kits\10\Include\10.0.22000.0\ucrt\string.h
; File D:\git\src\IBK\IBK_DRFN\ProjSrc\SrcChartEx\ChartOCX\ChartObject\BlocksColumn.cpp
; File C:\Program Files (x86)\Windows Kits\10\Include\10.0.22000.0\ucrt\string.h
; File D:\git\src\IBK\IBK_DRFN\ProjSrc\SrcChartEx\ChartOCX\ChartObject\BlocksColumn.cpp
; File C:\Program Files (x86)\Windows Kits\10\Include\10.0.22000.0\ucrt\string.h
; File D:\git\src\IBK\IBK_DRFN\ProjSrc\SrcChartEx\ChartOCX\ChartObject\BlocksColumn.cpp
; File C:\Program Files (x86)\Windows Kits\10\Include\10.0.22000.0\ucrt\string.h
; File D:\git\src\IBK\IBK_DRFN\ProjSrc\SrcChartEx\ChartOCX\ChartObject\BlocksColumn.cpp
; File C:\Program Files (x86)\Windows Kits\10\Include\10.0.22000.0\ucrt\string.h
; File D:\git\src\IBK\IBK_DRFN\ProjSrc\SrcChartEx\ChartOCX\ChartObject\BlocksColumn.cpp
; File C:\Program Files (x86)\Windows Kits\10\Include\10.0.22000.0\ucrt\string.h
; File D:\git\src\IBK\IBK_DRFN\ProjSrc\SrcChartEx\ChartOCX\ChartObject\BlocksColumn.cpp
;	COMDAT ?InsertBlocks@CBlocksColumn@@QAE_NPAXHABV?$CStringT@DV?$StrTraitMFC_DLL@DV?$ChTraitsCRT@D@ATL@@@@@ATL@@@Z
_TEXT	SEGMENT
_this$1$ = -16						; size = 4
__$EHRec$ = -12						; size = 12
_pPacketRQ$ = 8						; size = 4
_nInsertPosition$ = 12					; size = 4
_strBlockData$ = 16					; size = 4
_strGraphData$ = 16					; size = 4
?InsertBlocks@CBlocksColumn@@QAE_NPAXHABV?$CStringT@DV?$StrTraitMFC_DLL@DV?$ChTraitsCRT@D@ATL@@@@@ATL@@@Z PROC ; CBlocksColumn::InsertBlocks, COMDAT
; _this$ = ecx

; 430  : {

  00000	55		 push	 ebp
  00001	8b ec		 mov	 ebp, esp
  00003	6a ff		 push	 -1
  00005	68 00 00 00 00	 push	 __ehhandler$?InsertBlocks@CBlocksColumn@@QAE_NPAXHABV?$CStringT@DV?$StrTraitMFC_DLL@DV?$ChTraitsCRT@D@ATL@@@@@ATL@@@Z
  0000a	64 a1 00 00 00
	00		 mov	 eax, DWORD PTR fs:0
  00010	50		 push	 eax
  00011	51		 push	 ecx
  00012	53		 push	 ebx
  00013	56		 push	 esi
  00014	57		 push	 edi
  00015	a1 00 00 00 00	 mov	 eax, DWORD PTR ___security_cookie
  0001a	33 c5		 xor	 eax, ebp
  0001c	50		 push	 eax
  0001d	8d 45 f4	 lea	 eax, DWORD PTR __$EHRec$[ebp]
  00020	64 a3 00 00 00
	00		 mov	 DWORD PTR fs:0, eax
  00026	89 4d f0	 mov	 DWORD PTR _this$1$[ebp], ecx
; File C:\Program Files (x86)\Microsoft Visual Studio\2019\Community\VC\Tools\MSVC\14.29.30133\atlmfc\include\atlsimpstr.h

; 519  : 		return( GetData()->nDataLength );

  00029	8b 75 10	 mov	 esi, DWORD PTR _strGraphData$[ebp]
  0002c	8b 06		 mov	 eax, DWORD PTR [esi]

; 533  : 		return( GetLength() == 0 );

  0002e	83 78 f4 00	 cmp	 DWORD PTR [eax-12], 0
; File D:\git\src\IBK\IBK_DRFN\ProjSrc\SrcChartEx\ChartOCX\ChartObject\BlocksColumn.cpp

; 431  : 	if( strGraphData.IsEmpty()) return false;

  00032	75 16		 jne	 SHORT $LN4@InsertBloc
  00034	32 c0		 xor	 al, al

; 456  : }

  00036	8b 4d f4	 mov	 ecx, DWORD PTR __$EHRec$[ebp]
  00039	64 89 0d 00 00
	00 00		 mov	 DWORD PTR fs:0, ecx
  00040	59		 pop	 ecx
  00041	5f		 pop	 edi
  00042	5e		 pop	 esi
  00043	5b		 pop	 ebx
  00044	8b e5		 mov	 esp, ebp
  00046	5d		 pop	 ebp
  00047	c2 0c 00	 ret	 12			; 0000000cH
$LN4@InsertBloc:

; 432  : 	CString strBlockData;

  0004a	8d 4d 10	 lea	 ecx, DWORD PTR _strBlockData$[ebp]
  0004d	ff 15 00 00 00
	00		 call	 DWORD PTR __imp_??0?$CStringT@DV?$StrTraitMFC_DLL@DV?$ChTraitsCRT@D@ATL@@@@@ATL@@QAE@XZ
; File C:\Program Files (x86)\Microsoft Visual Studio\2019\Community\VC\Tools\MSVC\14.29.30133\atlmfc\include\atlsimpstr.h

; 519  : 		return( GetData()->nDataLength );

  00053	8b 06		 mov	 eax, DWORD PTR [esi]
; File D:\git\src\IBK\IBK_DRFN\ProjSrc\SrcChartEx\ChartOCX\ChartObject\BlocksColumn.cpp

; 433  : 	char *szBlockData = strBlockData.GetBufferSetLength( strGraphData.GetLength());

  00055	8d 4d 10	 lea	 ecx, DWORD PTR _strBlockData$[ebp]
  00058	c7 45 fc 00 00
	00 00		 mov	 DWORD PTR __$EHRec$[ebp+8], 0
  0005f	ff 70 f4	 push	 DWORD PTR [eax-12]
  00062	ff 15 00 00 00
	00		 call	 DWORD PTR __imp_?GetBufferSetLength@?$CSimpleStringT@D$00@ATL@@QAEPADH@Z
; File C:\Program Files (x86)\Microsoft Visual Studio\2019\Community\VC\Tools\MSVC\14.29.30133\atlmfc\include\atlsimpstr.h

; 377  : 		return( m_pszData );

  00068	8b 16		 mov	 edx, DWORD PTR [esi]
; File D:\git\src\IBK\IBK_DRFN\ProjSrc\SrcChartEx\ChartOCX\ChartObject\BlocksColumn.cpp

; 434  : 	strcpy( szBlockData, strGraphData);

  0006a	8b f0		 mov	 esi, eax
  0006c	0f 1f 40 00	 npad	 4
$LL10@InsertBloc:
  00070	8a 0a		 mov	 cl, BYTE PTR [edx]
  00072	8d 52 01	 lea	 edx, DWORD PTR [edx+1]
  00075	88 0e		 mov	 BYTE PTR [esi], cl
  00077	8d 76 01	 lea	 esi, DWORD PTR [esi+1]
  0007a	84 c9		 test	 cl, cl
  0007c	75 f2		 jne	 SHORT $LL10@InsertBloc
; File C:\Program Files (x86)\Windows Kits\10\Include\10.0.22000.0\ucrt\string.h

; 520  :         return const_cast<char*>(strstr(static_cast<char const*>(_String), _SubString));

  0007e	68 00 00 00 00	 push	 OFFSET ??_C@_08KGLHHGPJ@Block?$DL?$AN?6@
; File D:\git\src\IBK\IBK_DRFN\ProjSrc\SrcChartEx\ChartOCX\ChartObject\BlocksColumn.cpp

; 436  : 	bool bResult = false;

  00083	32 db		 xor	 bl, bl
; File C:\Program Files (x86)\Windows Kits\10\Include\10.0.22000.0\ucrt\string.h

; 520  :         return const_cast<char*>(strstr(static_cast<char const*>(_String), _SubString));

  00085	50		 push	 eax
$LN41@InsertBloc:
; File D:\git\src\IBK\IBK_DRFN\ProjSrc\SrcChartEx\ChartOCX\ChartObject\BlocksColumn.cpp

; 441  : 		szBlockData += 8;												// "Block;\r\n";

  00086	e8 00 00 00 00	 call	 _strstr
  0008b	8b f0		 mov	 esi, eax
  0008d	83 c4 08	 add	 esp, 8
  00090	85 f6		 test	 esi, esi
  00092	74 4c		 je	 SHORT $LN7@InsertBloc
  00094	83 c6 08	 add	 esi, 8
  00097	8a fb		 mov	 bh, bl
; File C:\Program Files (x86)\Windows Kits\10\Include\10.0.22000.0\ucrt\string.h

; 520  :         return const_cast<char*>(strstr(static_cast<char const*>(_String), _SubString));

  00099	68 00 00 00 00	 push	 OFFSET ??_C@_0M@FHFNKLHB@BlockEnd?$DL?$AN?6@
  0009e	56		 push	 esi
  0009f	e8 00 00 00 00	 call	 _strstr
; File D:\git\src\IBK\IBK_DRFN\ProjSrc\SrcChartEx\ChartOCX\ChartObject\BlocksColumn.cpp

; 444  : 		if( szBlockDataEnd) *szBlockDataEnd = '\0';

  000a4	8b 4d f0	 mov	 ecx, DWORD PTR _this$1$[ebp]
; File C:\Program Files (x86)\Windows Kits\10\Include\10.0.22000.0\ucrt\string.h

; 520  :         return const_cast<char*>(strstr(static_cast<char const*>(_String), _SubString));

  000a7	83 c4 08	 add	 esp, 8
; File D:\git\src\IBK\IBK_DRFN\ProjSrc\SrcChartEx\ChartOCX\ChartObject\BlocksColumn.cpp

; 443  : 		char *szBlockDataEnd = strstr( szBlockData, "BlockEnd;\r\n");

  000aa	8b f8		 mov	 edi, eax

; 444  : 		if( szBlockDataEnd) *szBlockDataEnd = '\0';

  000ac	56		 push	 esi
  000ad	85 ff		 test	 edi, edi
  000af	74 22		 je	 SHORT $LN5@InsertBloc
  000b1	8b 75 0c	 mov	 esi, DWORD PTR _nInsertPosition$[ebp]
  000b4	56		 push	 esi
  000b5	ff 75 08	 push	 DWORD PTR _pPacketRQ$[ebp]
  000b8	c6 07 00	 mov	 BYTE PTR [edi], 0
  000bb	e8 00 00 00 00	 call	 ?InsertBlock@CBlocksColumn@@QAE_NPAXHPAD@Z ; CBlocksColumn::InsertBlock

; 447  : 		if( szBlockDataEnd) *szBlockDataEnd = 'B';

  000c0	46		 inc	 esi
  000c1	c6 07 42	 mov	 BYTE PTR [edi], 66	; 00000042H
  000c4	8a d8		 mov	 bl, al
  000c6	89 75 0c	 mov	 DWORD PTR _nInsertPosition$[ebp], esi
; File C:\Program Files (x86)\Windows Kits\10\Include\10.0.22000.0\ucrt\string.h

; 520  :         return const_cast<char*>(strstr(static_cast<char const*>(_String), _SubString));

  000c9	68 00 00 00 00	 push	 OFFSET ??_C@_08KGLHHGPJ@Block?$DL?$AN?6@
; File D:\git\src\IBK\IBK_DRFN\ProjSrc\SrcChartEx\ChartOCX\ChartObject\BlocksColumn.cpp

; 447  : 		if( szBlockDataEnd) *szBlockDataEnd = 'B';

  000ce	0a df		 or	 bl, bh
; File C:\Program Files (x86)\Windows Kits\10\Include\10.0.22000.0\ucrt\string.h

; 520  :         return const_cast<char*>(strstr(static_cast<char const*>(_String), _SubString));

  000d0	57		 push	 edi
; File D:\git\src\IBK\IBK_DRFN\ProjSrc\SrcChartEx\ChartOCX\ChartObject\BlocksColumn.cpp

; 439  : 	while( szBlockData)

  000d1	eb b3		 jmp	 SHORT $LN41@InsertBloc
$LN5@InsertBloc:

; 445  : 
; 446  : 		bool bResult2 = InsertBlock(pPacketRQ, nInsertPosition + nInsertCount, szBlockData);

  000d3	ff 75 0c	 push	 DWORD PTR _nInsertPosition$[ebp]
  000d6	ff 75 08	 push	 DWORD PTR _pPacketRQ$[ebp]
  000d9	e8 00 00 00 00	 call	 ?InsertBlock@CBlocksColumn@@QAE_NPAXHPAD@Z ; CBlocksColumn::InsertBlock

; 448  : 		nInsertCount++;
; 449  : 
; 450  : 		bResult |= bResult2;

  000de	0a d8		 or	 bl, al
$LN7@InsertBloc:

; 451  : 		if( szBlockDataEnd) szBlockData = strstr( szBlockDataEnd, "Block;\r\n");
; 452  : 		else szBlockData = NULL;
; 453  : 	}
; 454  : 
; 455  : 	return bResult;

  000e0	8d 4d 10	 lea	 ecx, DWORD PTR _strBlockData$[ebp]
  000e3	ff 15 00 00 00
	00		 call	 DWORD PTR __imp_??1?$CStringT@DV?$StrTraitMFC_DLL@DV?$ChTraitsCRT@D@ATL@@@@@ATL@@QAE@XZ
  000e9	8a c3		 mov	 al, bl

; 456  : }

  000eb	8b 4d f4	 mov	 ecx, DWORD PTR __$EHRec$[ebp]
  000ee	64 89 0d 00 00
	00 00		 mov	 DWORD PTR fs:0, ecx
  000f5	59		 pop	 ecx
  000f6	5f		 pop	 edi
  000f7	5e		 pop	 esi
  000f8	5b		 pop	 ebx
  000f9	8b e5		 mov	 esp, ebp
  000fb	5d		 pop	 ebp
  000fc	c2 0c 00	 ret	 12			; 0000000cH
_TEXT	ENDS
;	COMDAT text$x
text$x	SEGMENT
__unwindfunclet$?InsertBlocks@CBlocksColumn@@QAE_NPAXHABV?$CStringT@DV?$StrTraitMFC_DLL@DV?$ChTraitsCRT@D@ATL@@@@@ATL@@@Z$0:
  00000	8d 4d 10	 lea	 ecx, DWORD PTR _strBlockData$[ebp]
  00003	ff 25 00 00 00
	00		 jmp	 DWORD PTR __imp_??1?$CStringT@DV?$StrTraitMFC_DLL@DV?$ChTraitsCRT@D@ATL@@@@@ATL@@QAE@XZ
  00009	cc		 int	 3
  0000a	cc		 int	 3
  0000b	cc		 int	 3
  0000c	cc		 int	 3
  0000d	cc		 int	 3
__ehhandler$?InsertBlocks@CBlocksColumn@@QAE_NPAXHABV?$CStringT@DV?$StrTraitMFC_DLL@DV?$ChTraitsCRT@D@ATL@@@@@ATL@@@Z:
  0000e	90		 npad	 1
  0000f	90		 npad	 1
  00010	8b 54 24 08	 mov	 edx, DWORD PTR [esp+8]
  00014	8d 42 0c	 lea	 eax, DWORD PTR [edx+12]
  00017	8b 4a ec	 mov	 ecx, DWORD PTR [edx-20]
  0001a	33 c8		 xor	 ecx, eax
  0001c	e8 00 00 00 00	 call	 @__security_check_cookie@4
  00021	b8 00 00 00 00	 mov	 eax, OFFSET __ehfuncinfo$?InsertBlocks@CBlocksColumn@@QAE_NPAXHABV?$CStringT@DV?$StrTraitMFC_DLL@DV?$ChTraitsCRT@D@ATL@@@@@ATL@@@Z
  00026	e9 00 00 00 00	 jmp	 ___CxxFrameHandler3
text$x	ENDS
?InsertBlocks@CBlocksColumn@@QAE_NPAXHABV?$CStringT@DV?$StrTraitMFC_DLL@DV?$ChTraitsCRT@D@ATL@@@@@ATL@@@Z ENDP ; CBlocksColumn::InsertBlocks
; Function compile flags: /Ogtp
; File D:\git\src\IBK\IBK_DRFN\ProjSrc\SrcChartEx\ChartOCX\ChartObject\BlocksColumn.cpp
; File C:\Program Files (x86)\Windows Kits\10\Include\10.0.22000.0\ucrt\string.h
; File D:\git\src\IBK\IBK_DRFN\ProjSrc\SrcChartEx\ChartOCX\ChartObject\BlocksColumn.cpp
; File C:\Program Files (x86)\Windows Kits\10\Include\10.0.22000.0\ucrt\string.h
; File D:\git\src\IBK\IBK_DRFN\ProjSrc\SrcChartEx\ChartOCX\ChartObject\BlocksColumn.cpp
; File C:\Program Files (x86)\Microsoft Visual Studio\2019\Community\VC\Tools\MSVC\14.29.30133\atlmfc\include\afxtempl.h
; File D:\git\src\IBK\IBK_DRFN\ProjSrc\SrcChartEx\ChartOCX\ChartObject\BlocksColumn.cpp
; File C:\Program Files (x86)\Microsoft Visual Studio\2019\Community\VC\Tools\MSVC\14.29.30133\atlmfc\include\afxtempl.h
; File D:\git\src\IBK\IBK_DRFN\ProjSrc\SrcChartEx\ChartOCX\ChartObject\BlocksColumn.cpp
; File C:\Program Files (x86)\Microsoft Visual Studio\2019\Community\VC\Tools\MSVC\14.29.30133\atlmfc\include\afxtempl.h
; File D:\git\src\IBK\IBK_DRFN\ProjSrc\SrcChartEx\ChartOCX\ChartObject\BlocksColumn.cpp
;	COMDAT ?InsertBlock@CBlocksColumn@@QAE_NPAXHPAD@Z
_TEXT	SEGMENT
_horzScale$ = -220					; size = 100
_insertingBlockHorzScaleData$ = -120			; size = 104
__$EHRec$ = -12						; size = 12
_pPacketRQ$ = 8						; size = 4
_nInsertPosition$ = 12					; size = 4
_p_szBlockData$ = 16					; size = 4
_bResultDlg$1$ = 19					; size = 1
?InsertBlock@CBlocksColumn@@QAE_NPAXHPAD@Z PROC		; CBlocksColumn::InsertBlock, COMDAT
; _this$ = ecx

; 351  : {

  00000	55		 push	 ebp
  00001	8b ec		 mov	 ebp, esp
  00003	6a ff		 push	 -1
  00005	68 00 00 00 00	 push	 __ehhandler$?InsertBlock@CBlocksColumn@@QAE_NPAXHPAD@Z
  0000a	64 a1 00 00 00
	00		 mov	 eax, DWORD PTR fs:0
  00010	50		 push	 eax
  00011	81 ec d0 00 00
	00		 sub	 esp, 208		; 000000d0H
  00017	53		 push	 ebx
  00018	56		 push	 esi
  00019	57		 push	 edi
  0001a	a1 00 00 00 00	 mov	 eax, DWORD PTR ___security_cookie
  0001f	33 c5		 xor	 eax, ebp
  00021	50		 push	 eax
  00022	8d 45 f4	 lea	 eax, DWORD PTR __$EHRec$[ebp]
  00025	64 a3 00 00 00
	00		 mov	 DWORD PTR fs:0, eax
  0002b	8b f9		 mov	 edi, ecx

; 352  : 	if( nInsertPosition < 0) return false;

  0002d	83 7d 0c 00	 cmp	 DWORD PTR _nInsertPosition$[ebp], 0
  00031	0f 8c 6b 01 00
	00		 jl	 $LN41@InsertBloc

; 353  : 	if( !p_szBlockData) return false;

  00037	8b 5d 10	 mov	 ebx, DWORD PTR _p_szBlockData$[ebp]
  0003a	85 db		 test	 ebx, ebx
  0003c	0f 84 60 01 00
	00		 je	 $LN41@InsertBloc

; 354  : 	if( !*p_szBlockData) return false;

  00042	80 3b 00	 cmp	 BYTE PTR [ebx], 0
  00045	0f 84 57 01 00
	00		 je	 $LN41@InsertBloc
; File C:\Program Files (x86)\Windows Kits\10\Include\10.0.22000.0\ucrt\string.h

; 520  :         return const_cast<char*>(strstr(static_cast<char const*>(_String), _SubString));

  0004b	68 00 00 00 00	 push	 OFFSET ??_C@_0BA@POFFJEDL@VertScaleGroup?$DL@
  00050	53		 push	 ebx
  00051	e8 00 00 00 00	 call	 _strstr
; File D:\git\src\IBK\IBK_DRFN\ProjSrc\SrcChartEx\ChartOCX\ChartObject\BlocksColumn.cpp

; 356  : 	char *szVertScaleGroupData = strstr( p_szBlockData, "VertScaleGroup;");

  00056	8b f0		 mov	 esi, eax
; File C:\Program Files (x86)\Windows Kits\10\Include\10.0.22000.0\ucrt\string.h

; 520  :         return const_cast<char*>(strstr(static_cast<char const*>(_String), _SubString));

  00058	83 c4 08	 add	 esp, 8
; File D:\git\src\IBK\IBK_DRFN\ProjSrc\SrcChartEx\ChartOCX\ChartObject\BlocksColumn.cpp

; 357  : 	if( !szVertScaleGroupData) return false;

  0005b	85 f6		 test	 esi, esi
  0005d	0f 84 3f 01 00
	00		 je	 $LN41@InsertBloc

; 358  : 	*szVertScaleGroupData = '\0';
; 359  : 
; 360  : 	CHorizontalScale horzScale;

  00063	8d 8d 24 ff ff
	ff		 lea	 ecx, DWORD PTR _horzScale$[ebp]
  00069	c6 06 00	 mov	 BYTE PTR [esi], 0
  0006c	ff 15 00 00 00
	00		 call	 DWORD PTR __imp_??0CHorizontalScale@@QAE@XZ

; 361  : 	horzScale.SetScaleData( p_szBlockData, m_pMain->GetParent_Handle());

  00072	8b 4f 04	 mov	 ecx, DWORD PTR [edi+4]
  00075	c7 45 fc 00 00
	00 00		 mov	 DWORD PTR __$EHRec$[ebp+8], 0
  0007c	8b 01		 mov	 eax, DWORD PTR [ecx]
  0007e	ff 90 04 03 00
	00		 call	 DWORD PTR [eax+772]
  00084	50		 push	 eax
  00085	53		 push	 ebx
  00086	8d 8d 24 ff ff
	ff		 lea	 ecx, DWORD PTR _horzScale$[ebp]
  0008c	ff 15 00 00 00
	00		 call	 DWORD PTR __imp_?SetScaleData@CHorizontalScale@@UAEXPADPAUHWND__@@@Z

; 362  : 	*szVertScaleGroupData = 'V';
; 363  : 
; 364  : 	// scale setting Dlg 
; 365  : 	CInsertingBlockHorzScaleData insertingBlockHorzScaleData( true, horzScale);

  00092	8d 85 24 ff ff
	ff		 lea	 eax, DWORD PTR _horzScale$[ebp]
  00098	c6 06 56	 mov	 BYTE PTR [esi], 86	; 00000056H
  0009b	50		 push	 eax
  0009c	6a 01		 push	 1
  0009e	8d 4d 88	 lea	 ecx, DWORD PTR _insertingBlockHorzScaleData$[ebp]
  000a1	e8 00 00 00 00	 call	 ??0CInsertingBlockHorzScaleData@@QAE@_NABVCHorizontalScale@@@Z ; CInsertingBlockHorzScaleData::CInsertingBlockHorzScaleData

; 366  : 	
; 367  : 	// ( 2006 / 07 / 31 - Sang-Woo, Cho ) -  Scale Dialog   .
; 368  : 	bool bResultDlg = InsertBlock_LoadDialog( insertingBlockHorzScaleData);

  000a6	8d 45 88	 lea	 eax, DWORD PTR _insertingBlockHorzScaleData$[ebp]
  000a9	c6 45 fc 01	 mov	 BYTE PTR __$EHRec$[ebp+8], 1
  000ad	50		 push	 eax
  000ae	8b cf		 mov	 ecx, edi
  000b0	e8 00 00 00 00	 call	 ?InsertBlock_LoadDialog@CBlocksColumn@@QAE_NAAVCInsertingBlockHorzScaleData@@@Z ; CBlocksColumn::InsertBlock_LoadDialog

; 369  : 	//bool bResultDlg = true;
; 370  : 	//insertingBlockHorzScaleData.SetOnlyBottomBlockShow(true);
; 371  : 	insertingBlockHorzScaleData.SetOnlyBottomBlockShow(false);

  000b5	6a 00		 push	 0
  000b7	8d 4d 88	 lea	 ecx, DWORD PTR _insertingBlockHorzScaleData$[ebp]
  000ba	88 45 13	 mov	 BYTE PTR _bResultDlg$1$[ebp], al
  000bd	e8 00 00 00 00	 call	 ?SetOnlyBottomBlockShow@CInsertingBlockHorzScaleData@@QAEX_N@Z ; CInsertingBlockHorzScaleData::SetOnlyBottomBlockShow

; 372  : 
; 373  : 	// (2009/9/6 - Seung-Won, Bae) Do not support CHorizontalScale::SetHorzScalePosition() as public.
; 374  : 	//		To rearrange the row positions. Use CMainBlockImp::SetHorzScalePosition().
; 375  : 	m_pMain->SetHorzScalePosition( insertingBlockHorzScaleData.GetHorizontalScale(), ( CScaleBaseData::HORZSCALEPOSITION)1);

  000c2	8b 4f 04	 mov	 ecx, DWORD PTR [edi+4]
  000c5	6a 01		 push	 1
  000c7	8b 31		 mov	 esi, DWORD PTR [ecx]
  000c9	8d 4d 88	 lea	 ecx, DWORD PTR _insertingBlockHorzScaleData$[ebp]
  000cc	e8 00 00 00 00	 call	 ?GetHorizontalScale@CInsertingBlockHorzScaleData@@QAEAAVCHorizontalScale@@XZ ; CInsertingBlockHorzScaleData::GetHorizontalScale
  000d1	8b 4f 04	 mov	 ecx, DWORD PTR [edi+4]
  000d4	50		 push	 eax
  000d5	ff 96 d8 00 00
	00		 call	 DWORD PTR [esi+216]

; 376  : 
; 377  : 	//insertingBlockHorzScaleData.GetHorizontalScale().SetGridType(3);//(CScaleBaseData::SCALEGRIDTYPE)SLNONE
; 378  : 	// End
; 379  : 
; 380  : 	//data setting
; 381  : 	CBlockImp* pInsertBlock = InsertBlock_GetBlockForInsert( nInsertPosition);

  000db	6a 01		 push	 1
  000dd	ff 75 0c	 push	 DWORD PTR _nInsertPosition$[ebp]
  000e0	8b cf		 mov	 ecx, edi
  000e2	e8 00 00 00 00	 call	 ?InsertBlock_GetBlockForInsert@CBlocksColumn@@QAEPAVCBlockImp@@H_N@Z ; CBlocksColumn::InsertBlock_GetBlockForInsert

; 382  : 	if(pInsertBlock == NULL)

  000e7	85 c0		 test	 eax, eax
  000e9	75 07		 jne	 SHORT $LN6@InsertBloc
  000eb	32 db		 xor	 bl, bl
  000ed	e9 85 00 00 00	 jmp	 $LN12@InsertBloc
$LN6@InsertBloc:

; 383  : 		return false;
; 384  : 
; 385  : 	pInsertBlock->BuildGraphsAndScales(pPacketRQ, p_szBlockData);

  000f2	53		 push	 ebx
  000f3	ff 75 08	 push	 DWORD PTR _pPacketRQ$[ebp]
  000f6	8b d8		 mov	 ebx, eax
  000f8	8b cb		 mov	 ecx, ebx
  000fa	e8 00 00 00 00	 call	 ?BuildGraphsAndScales@CBlockImp@@QAEXPAXPAD@Z ; CBlockImp::BuildGraphsAndScales

; 386  : 	if(bResultDlg && pInsertBlock)

  000ff	80 7d 13 00	 cmp	 BYTE PTR _bResultDlg$1$[ebp], 0
  00103	74 2c		 je	 SHORT $LN7@InsertBloc

; 387  : 	{
; 388  : 		if( insertingBlockHorzScaleData.IsOnlyBottomBlockShow()) SetAllHorzScalePosition( CScaleBaseData::HORZ_HIDE);

  00105	8d 4d 88	 lea	 ecx, DWORD PTR _insertingBlockHorzScaleData$[ebp]
  00108	e8 00 00 00 00	 call	 ?IsOnlyBottomBlockShow@CInsertingBlockHorzScaleData@@QBE_NXZ ; CInsertingBlockHorzScaleData::IsOnlyBottomBlockShow
  0010d	84 c0		 test	 al, al
  0010f	74 09		 je	 SHORT $LN8@InsertBloc
  00111	6a 03		 push	 3
  00113	8b cf		 mov	 ecx, edi
  00115	e8 00 00 00 00	 call	 ?SetAllHorzScalePosition@CBlocksColumn@@QAEXW4HORZSCALEPOSITION@CScaleBaseData@@@Z ; CBlocksColumn::SetAllHorzScalePosition
$LN8@InsertBloc:

; 389  : 		pInsertBlock->GetBlockData().SetHorzScale(insertingBlockHorzScaleData.GetHorizontalScale());

  0011a	8d 4d 88	 lea	 ecx, DWORD PTR _insertingBlockHorzScaleData$[ebp]
  0011d	e8 00 00 00 00	 call	 ?GetHorizontalScale@CInsertingBlockHorzScaleData@@QAEAAVCHorizontalScale@@XZ ; CInsertingBlockHorzScaleData::GetHorizontalScale
  00122	50		 push	 eax
  00123	8b cb		 mov	 ecx, ebx
  00125	e8 00 00 00 00	 call	 ?GetBlockData@CBlockImp@@QAEAAVCBlockData@@XZ ; CBlockImp::GetBlockData
  0012a	8b c8		 mov	 ecx, eax
  0012c	e8 00 00 00 00	 call	 ?SetHorzScale@CBlockData@@QAEXABVCHorizontalScale@@@Z ; CBlockData::SetHorzScale
$LN7@InsertBloc:

; 280  : 	int nBlockCount = m_BlockList.GetCount();

  00131	8b 4f 1c	 mov	 ecx, DWORD PTR [edi+28]

; 281  : 
; 282  : 	//  block insert. ->   
; 283  : 	if(bIsAutoOneBlockCount)
; 284  : 	{
; 285  : 		// block    
; 286  : 		if(nBlockCount <= 1)

  00134	83 f9 01	 cmp	 ecx, 1
  00137	7f 17		 jg	 SHORT $LN20@InsertBloc

; 287  : 			return m_BlockList.InsertAfter(m_BlockList.FindIndex(nInsertPosition), pInsertBlock);

  00139	ff 75 0c	 push	 DWORD PTR _nInsertPosition$[ebp]
  0013c	8d 4f 10	 lea	 ecx, DWORD PTR [edi+16]
  0013f	e8 00 00 00 00	 call	 ?FindIndex@CObList@@QBEPAU__POSITION@@H@Z ; CObList::FindIndex
; File C:\Program Files (x86)\Microsoft Visual Studio\2019\Community\VC\Tools\MSVC\14.29.30133\atlmfc\include\afxtempl.h

; 1916 : 		{ return BASE_CLASS::InsertAfter(position, newElement); }

  00144	53		 push	 ebx
  00145	50		 push	 eax
  00146	8d 4f 10	 lea	 ecx, DWORD PTR [edi+16]
  00149	e8 00 00 00 00	 call	 ?InsertAfter@CObList@@QAEPAU__POSITION@@PAU2@PAVCObject@@@Z ; CObList::InsertAfter
; File D:\git\src\IBK\IBK_DRFN\ProjSrc\SrcChartEx\ChartOCX\ChartObject\BlocksColumn.cpp

; 287  : 			return m_BlockList.InsertAfter(m_BlockList.FindIndex(nInsertPosition), pInsertBlock);

  0014e	eb 25		 jmp	 SHORT $LN18@InsertBloc
$LN20@InsertBloc:

; 288  : 
; 289  : 		if(nBlockCount <= nInsertPosition)

  00150	8b 45 0c	 mov	 eax, DWORD PTR _nInsertPosition$[ebp]
  00153	3b c8		 cmp	 ecx, eax
  00155	8d 4f 10	 lea	 ecx, DWORD PTR [edi+16]
  00158	7f 0b		 jg	 SHORT $LN21@InsertBloc
; File C:\Program Files (x86)\Microsoft Visual Studio\2019\Community\VC\Tools\MSVC\14.29.30133\atlmfc\include\afxtempl.h

; 1916 : 		{ return BASE_CLASS::InsertAfter(position, newElement); }

  0015a	53		 push	 ebx
  0015b	ff 77 18	 push	 DWORD PTR [edi+24]
  0015e	e8 00 00 00 00	 call	 ?InsertAfter@CObList@@QAEPAU__POSITION@@PAU2@PAVCObject@@@Z ; CObList::InsertAfter
; File D:\git\src\IBK\IBK_DRFN\ProjSrc\SrcChartEx\ChartOCX\ChartObject\BlocksColumn.cpp

; 290  : 			return m_BlockList.InsertAfter(m_BlockList.GetTailPosition(), pInsertBlock);

  00163	eb 10		 jmp	 SHORT $LN18@InsertBloc
$LN21@InsertBloc:

; 291  : 			
; 292  : 		return m_BlockList.InsertBefore(m_BlockList.FindIndex(nInsertPosition), pInsertBlock);

  00165	50		 push	 eax
  00166	e8 00 00 00 00	 call	 ?FindIndex@CObList@@QBEPAU__POSITION@@H@Z ; CObList::FindIndex
; File C:\Program Files (x86)\Microsoft Visual Studio\2019\Community\VC\Tools\MSVC\14.29.30133\atlmfc\include\afxtempl.h

; 1914 : 		{ return BASE_CLASS::InsertBefore(position, newElement); }

  0016b	53		 push	 ebx
  0016c	50		 push	 eax
  0016d	8d 4f 10	 lea	 ecx, DWORD PTR [edi+16]
  00170	e8 00 00 00 00	 call	 ?InsertBefore@CObList@@QAEPAU__POSITION@@PAU2@PAVCObject@@@Z ; CObList::InsertBefore
$LN18@InsertBloc:
; File D:\git\src\IBK\IBK_DRFN\ProjSrc\SrcChartEx\ChartOCX\ChartObject\BlocksColumn.cpp

; 396  : 	return true;

  00175	b3 01		 mov	 bl, 1
$LN12@InsertBloc:
  00177	8d 4d 8c	 lea	 ecx, DWORD PTR _insertingBlockHorzScaleData$[ebp+4]
  0017a	ff 15 00 00 00
	00		 call	 DWORD PTR __imp_??1CHorizontalScale@@QAE@XZ
  00180	8d 8d 24 ff ff
	ff		 lea	 ecx, DWORD PTR _horzScale$[ebp]
  00186	ff 15 00 00 00
	00		 call	 DWORD PTR __imp_??1CHorizontalScale@@QAE@XZ
  0018c	8a c3		 mov	 al, bl

; 397  : }

  0018e	8b 4d f4	 mov	 ecx, DWORD PTR __$EHRec$[ebp]
  00191	64 89 0d 00 00
	00 00		 mov	 DWORD PTR fs:0, ecx
  00198	59		 pop	 ecx
  00199	5f		 pop	 edi
  0019a	5e		 pop	 esi
  0019b	5b		 pop	 ebx
  0019c	8b e5		 mov	 esp, ebp
  0019e	5d		 pop	 ebp
  0019f	c2 0c 00	 ret	 12			; 0000000cH
$LN41@InsertBloc:

; 357  : 	if( !szVertScaleGroupData) return false;

  001a2	32 c0		 xor	 al, al

; 397  : }

  001a4	8b 4d f4	 mov	 ecx, DWORD PTR __$EHRec$[ebp]
  001a7	64 89 0d 00 00
	00 00		 mov	 DWORD PTR fs:0, ecx
  001ae	59		 pop	 ecx
  001af	5f		 pop	 edi
  001b0	5e		 pop	 esi
  001b1	5b		 pop	 ebx
  001b2	8b e5		 mov	 esp, ebp
  001b4	5d		 pop	 ebp
  001b5	c2 0c 00	 ret	 12			; 0000000cH
_TEXT	ENDS
;	COMDAT text$x
text$x	SEGMENT
__unwindfunclet$?InsertBlock@CBlocksColumn@@QAE_NPAXHPAD@Z$0:
  00000	8d 8d 24 ff ff
	ff		 lea	 ecx, DWORD PTR _horzScale$[ebp]
  00006	ff 25 00 00 00
	00		 jmp	 DWORD PTR __imp_??1CHorizontalScale@@QAE@XZ
__unwindfunclet$?InsertBlock@CBlocksColumn@@QAE_NPAXHPAD@Z$1:
  0000c	8d 4d 88	 lea	 ecx, DWORD PTR _insertingBlockHorzScaleData$[ebp]
  0000f	e9 00 00 00 00	 jmp	 ??1CInsertingBlockHorzScaleData@@QAE@XZ
  00014	cc		 int	 3
  00015	cc		 int	 3
  00016	cc		 int	 3
  00017	cc		 int	 3
  00018	cc		 int	 3
__ehhandler$?InsertBlock@CBlocksColumn@@QAE_NPAXHPAD@Z:
  00019	90		 npad	 1
  0001a	90		 npad	 1
  0001b	8b 54 24 08	 mov	 edx, DWORD PTR [esp+8]
  0001f	8d 42 0c	 lea	 eax, DWORD PTR [edx+12]
  00022	8b 8a 20 ff ff
	ff		 mov	 ecx, DWORD PTR [edx-224]
  00028	33 c8		 xor	 ecx, eax
  0002a	e8 00 00 00 00	 call	 @__security_check_cookie@4
  0002f	b8 00 00 00 00	 mov	 eax, OFFSET __ehfuncinfo$?InsertBlock@CBlocksColumn@@QAE_NPAXHPAD@Z
  00034	e9 00 00 00 00	 jmp	 ___CxxFrameHandler3
text$x	ENDS
?InsertBlock@CBlocksColumn@@QAE_NPAXHPAD@Z ENDP		; CBlocksColumn::InsertBlock
; Function compile flags: /Ogtp
; File D:\git\src\IBK\IBK_DRFN\ProjSrc\SrcChartEx\ChartOCX\ChartObject\BlocksColumn.cpp
; File C:\Program Files (x86)\Windows Kits\10\Include\10.0.22000.0\ucrt\string.h
; File D:\git\src\IBK\IBK_DRFN\ProjSrc\SrcChartEx\ChartOCX\ChartObject\BlocksColumn.cpp
; File C:\Program Files (x86)\Microsoft Visual Studio\2019\Community\VC\Tools\MSVC\14.29.30133\atlmfc\include\afxtempl.h
; File D:\git\src\IBK\IBK_DRFN\ProjSrc\SrcChartEx\ChartOCX\ChartObject\BlocksColumn.cpp
; File C:\Program Files (x86)\Microsoft Visual Studio\2019\Community\VC\Tools\MSVC\14.29.30133\atlmfc\include\afxtempl.h
; File D:\git\src\IBK\IBK_DRFN\ProjSrc\SrcChartEx\ChartOCX\ChartObject\BlocksColumn.cpp
; File C:\Program Files (x86)\Microsoft Visual Studio\2019\Community\VC\Tools\MSVC\14.29.30133\atlmfc\include\afxtempl.h
; File D:\git\src\IBK\IBK_DRFN\ProjSrc\SrcChartEx\ChartOCX\ChartObject\BlocksColumn.cpp
;	COMDAT ?InsertBlock@CBlocksColumn@@QAE_NHPAD@Z
_TEXT	SEGMENT
_horzScale$ = -220					; size = 100
_insertingBlockHorzScaleData$ = -120			; size = 104
_bCalc$ = -16						; size = 4
__$EHRec$ = -12						; size = 12
_szVertScaleGroupData$1$ = 8				; size = 4
_nInsertPosition$ = 8					; size = 4
_bResultDlg$1$ = 11					; size = 1
_pInsertBlock$1$ = 12					; size = 4
_p_szBlockData$ = 12					; size = 4
?InsertBlock@CBlocksColumn@@QAE_NHPAD@Z PROC		; CBlocksColumn::InsertBlock, COMDAT
; _this$ = ecx

; 309  : {

  00000	55		 push	 ebp
  00001	8b ec		 mov	 ebp, esp
  00003	6a ff		 push	 -1
  00005	68 00 00 00 00	 push	 __ehhandler$?InsertBlock@CBlocksColumn@@QAE_NHPAD@Z
  0000a	64 a1 00 00 00
	00		 mov	 eax, DWORD PTR fs:0
  00010	50		 push	 eax
  00011	81 ec d0 00 00
	00		 sub	 esp, 208		; 000000d0H
  00017	53		 push	 ebx
  00018	56		 push	 esi
  00019	57		 push	 edi
  0001a	a1 00 00 00 00	 mov	 eax, DWORD PTR ___security_cookie
  0001f	33 c5		 xor	 eax, ebp
  00021	50		 push	 eax
  00022	8d 45 f4	 lea	 eax, DWORD PTR __$EHRec$[ebp]
  00025	64 a3 00 00 00
	00		 mov	 DWORD PTR fs:0, eax
  0002b	8b f1		 mov	 esi, ecx

; 310  : 	if( nInsertPosition < 0) return false;

  0002d	8b 5d 08	 mov	 ebx, DWORD PTR _nInsertPosition$[ebp]
  00030	85 db		 test	 ebx, ebx
  00032	0f 88 52 01 00
	00		 js	 $LN41@InsertBloc

; 311  : 	if( !p_szBlockData) return false;

  00038	8b 7d 0c	 mov	 edi, DWORD PTR _p_szBlockData$[ebp]
  0003b	85 ff		 test	 edi, edi
  0003d	0f 84 47 01 00
	00		 je	 $LN41@InsertBloc

; 312  : 	if( !*p_szBlockData) return false;

  00043	80 3f 00	 cmp	 BYTE PTR [edi], 0
  00046	0f 84 3e 01 00
	00		 je	 $LN41@InsertBloc
; File C:\Program Files (x86)\Windows Kits\10\Include\10.0.22000.0\ucrt\string.h

; 520  :         return const_cast<char*>(strstr(static_cast<char const*>(_String), _SubString));

  0004c	68 00 00 00 00	 push	 OFFSET ??_C@_0BA@POFFJEDL@VertScaleGroup?$DL@
  00051	57		 push	 edi
  00052	e8 00 00 00 00	 call	 _strstr
  00057	83 c4 08	 add	 esp, 8
; File D:\git\src\IBK\IBK_DRFN\ProjSrc\SrcChartEx\ChartOCX\ChartObject\BlocksColumn.cpp

; 314  : 	char *szVertScaleGroupData = strstr( p_szBlockData, "VertScaleGroup;");

  0005a	89 45 08	 mov	 DWORD PTR _szVertScaleGroupData$1$[ebp], eax

; 315  : 	if( !szVertScaleGroupData) return false;

  0005d	85 c0		 test	 eax, eax
  0005f	0f 84 25 01 00
	00		 je	 $LN41@InsertBloc

; 316  : 	*szVertScaleGroupData = '\0';
; 317  : 
; 318  : 	CHorizontalScale horzScale;

  00065	8d 8d 24 ff ff
	ff		 lea	 ecx, DWORD PTR _horzScale$[ebp]
  0006b	c6 00 00	 mov	 BYTE PTR [eax], 0
  0006e	ff 15 00 00 00
	00		 call	 DWORD PTR __imp_??0CHorizontalScale@@QAE@XZ

; 319  : 	horzScale.SetScaleData( p_szBlockData, m_pMain->GetParent_Handle());

  00074	8b 4e 04	 mov	 ecx, DWORD PTR [esi+4]
  00077	c7 45 fc 00 00
	00 00		 mov	 DWORD PTR __$EHRec$[ebp+8], 0
  0007e	8b 01		 mov	 eax, DWORD PTR [ecx]
  00080	ff 90 04 03 00
	00		 call	 DWORD PTR [eax+772]
  00086	50		 push	 eax
  00087	57		 push	 edi
  00088	8d 8d 24 ff ff
	ff		 lea	 ecx, DWORD PTR _horzScale$[ebp]
  0008e	ff 15 00 00 00
	00		 call	 DWORD PTR __imp_?SetScaleData@CHorizontalScale@@UAEXPADPAUHWND__@@@Z

; 320  : 	*szVertScaleGroupData = 'V';

  00094	8b 45 08	 mov	 eax, DWORD PTR _szVertScaleGroupData$1$[ebp]

; 321  : 
; 322  : 	// scale setting Dlg 
; 323  : 	CInsertingBlockHorzScaleData insertingBlockHorzScaleData( true, horzScale);

  00097	8d 4d 88	 lea	 ecx, DWORD PTR _insertingBlockHorzScaleData$[ebp]
  0009a	c6 00 56	 mov	 BYTE PTR [eax], 86	; 00000056H
  0009d	8d 85 24 ff ff
	ff		 lea	 eax, DWORD PTR _horzScale$[ebp]
  000a3	50		 push	 eax
  000a4	6a 01		 push	 1
  000a6	e8 00 00 00 00	 call	 ??0CInsertingBlockHorzScaleData@@QAE@_NABVCHorizontalScale@@@Z ; CInsertingBlockHorzScaleData::CInsertingBlockHorzScaleData

; 324  : 	
; 325  : 	// (2007/6/27 - Seung-Won, Bae) Support Manual Setting of X Scale for New Block.
; 326  : 	bool bResultDlg = InsertBlock_LoadDialog( insertingBlockHorzScaleData);

  000ab	8d 45 88	 lea	 eax, DWORD PTR _insertingBlockHorzScaleData$[ebp]
  000ae	c6 45 fc 01	 mov	 BYTE PTR __$EHRec$[ebp+8], 1
  000b2	50		 push	 eax
  000b3	8b ce		 mov	 ecx, esi
  000b5	e8 00 00 00 00	 call	 ?InsertBlock_LoadDialog@CBlocksColumn@@QAE_NAAVCInsertingBlockHorzScaleData@@@Z ; CBlocksColumn::InsertBlock_LoadDialog

; 327  : 
; 328  : 	//data setting
; 329  : 	CBlockImp* pInsertBlock = InsertBlock_GetBlockForInsert( nInsertPosition);

  000ba	6a 01		 push	 1
  000bc	53		 push	 ebx
  000bd	8b ce		 mov	 ecx, esi
  000bf	88 45 0b	 mov	 BYTE PTR _bResultDlg$1$[ebp], al
  000c2	e8 00 00 00 00	 call	 ?InsertBlock_GetBlockForInsert@CBlocksColumn@@QAEPAVCBlockImp@@H_N@Z ; CBlocksColumn::InsertBlock_GetBlockForInsert
  000c7	89 45 0c	 mov	 DWORD PTR _pInsertBlock$1$[ebp], eax

; 330  : 	if(pInsertBlock == NULL)

  000ca	85 c0		 test	 eax, eax
  000cc	75 07		 jne	 SHORT $LN6@InsertBloc
  000ce	32 db		 xor	 bl, bl
  000d0	e9 8a 00 00 00	 jmp	 $LN12@InsertBloc
$LN6@InsertBloc:

; 331  : 		return false;
; 332  : 
; 333  : 	//     : xScaleManager - ojtaso (20070701)
; 334  : 	BOOL bCalc = FALSE;
; 335  : 	pInsertBlock->BuildGraphsAndScales( p_szBlockData, bCalc);

  000d5	8d 4d f0	 lea	 ecx, DWORD PTR _bCalc$[ebp]
  000d8	c7 45 f0 00 00
	00 00		 mov	 DWORD PTR _bCalc$[ebp], 0
  000df	51		 push	 ecx
  000e0	57		 push	 edi
  000e1	8b c8		 mov	 ecx, eax
  000e3	e8 00 00 00 00	 call	 ?BuildGraphsAndScales@CBlockImp@@QAEXPADAAH@Z ; CBlockImp::BuildGraphsAndScales

; 336  : 	if(bResultDlg && pInsertBlock)

  000e8	80 7d 0b 00	 cmp	 BYTE PTR _bResultDlg$1$[ebp], 0
  000ec	74 2d		 je	 SHORT $LN7@InsertBloc

; 337  : 	{
; 338  : 		if( insertingBlockHorzScaleData.IsOnlyBottomBlockShow()) SetAllHorzScalePosition( CScaleBaseData::HORZ_HIDE);

  000ee	8d 4d 88	 lea	 ecx, DWORD PTR _insertingBlockHorzScaleData$[ebp]
  000f1	e8 00 00 00 00	 call	 ?IsOnlyBottomBlockShow@CInsertingBlockHorzScaleData@@QBE_NXZ ; CInsertingBlockHorzScaleData::IsOnlyBottomBlockShow
  000f6	84 c0		 test	 al, al
  000f8	74 09		 je	 SHORT $LN8@InsertBloc
  000fa	6a 03		 push	 3
  000fc	8b ce		 mov	 ecx, esi
  000fe	e8 00 00 00 00	 call	 ?SetAllHorzScalePosition@CBlocksColumn@@QAEXW4HORZSCALEPOSITION@CScaleBaseData@@@Z ; CBlocksColumn::SetAllHorzScalePosition
$LN8@InsertBloc:

; 339  : 		pInsertBlock->GetBlockData().SetHorzScale(insertingBlockHorzScaleData.GetHorizontalScale());

  00103	8d 4d 88	 lea	 ecx, DWORD PTR _insertingBlockHorzScaleData$[ebp]
  00106	e8 00 00 00 00	 call	 ?GetHorizontalScale@CInsertingBlockHorzScaleData@@QAEAAVCHorizontalScale@@XZ ; CInsertingBlockHorzScaleData::GetHorizontalScale
  0010b	8b 4d 0c	 mov	 ecx, DWORD PTR _pInsertBlock$1$[ebp]
  0010e	50		 push	 eax
  0010f	e8 00 00 00 00	 call	 ?GetBlockData@CBlockImp@@QAEAAVCBlockData@@XZ ; CBlockImp::GetBlockData
  00114	8b c8		 mov	 ecx, eax
  00116	e8 00 00 00 00	 call	 ?SetHorzScale@CBlockData@@QAEXABVCHorizontalScale@@@Z ; CBlockData::SetHorzScale
$LN7@InsertBloc:

; 280  : 	int nBlockCount = m_BlockList.GetCount();

  0011b	8b 46 1c	 mov	 eax, DWORD PTR [esi+28]

; 281  : 
; 282  : 	//  block insert. ->   
; 283  : 	if(bIsAutoOneBlockCount)
; 284  : 	{
; 285  : 		// block    
; 286  : 		if(nBlockCount <= 1)

  0011e	8d 4e 10	 lea	 ecx, DWORD PTR [esi+16]
  00121	83 f8 01	 cmp	 eax, 1
  00124	7f 14		 jg	 SHORT $LN20@InsertBloc

; 287  : 			return m_BlockList.InsertAfter(m_BlockList.FindIndex(nInsertPosition), pInsertBlock);

  00126	53		 push	 ebx
  00127	e8 00 00 00 00	 call	 ?FindIndex@CObList@@QBEPAU__POSITION@@H@Z ; CObList::FindIndex
; File C:\Program Files (x86)\Microsoft Visual Studio\2019\Community\VC\Tools\MSVC\14.29.30133\atlmfc\include\afxtempl.h

; 1916 : 		{ return BASE_CLASS::InsertAfter(position, newElement); }

  0012c	ff 75 0c	 push	 DWORD PTR _pInsertBlock$1$[ebp]
  0012f	8d 4e 10	 lea	 ecx, DWORD PTR [esi+16]
  00132	50		 push	 eax
  00133	e8 00 00 00 00	 call	 ?InsertAfter@CObList@@QAEPAU__POSITION@@PAU2@PAVCObject@@@Z ; CObList::InsertAfter
; File D:\git\src\IBK\IBK_DRFN\ProjSrc\SrcChartEx\ChartOCX\ChartObject\BlocksColumn.cpp

; 287  : 			return m_BlockList.InsertAfter(m_BlockList.FindIndex(nInsertPosition), pInsertBlock);

  00138	eb 23		 jmp	 SHORT $LN18@InsertBloc
$LN20@InsertBloc:

; 288  : 
; 289  : 		if(nBlockCount <= nInsertPosition)

  0013a	3b c3		 cmp	 eax, ebx
  0013c	7f 0d		 jg	 SHORT $LN21@InsertBloc
; File C:\Program Files (x86)\Microsoft Visual Studio\2019\Community\VC\Tools\MSVC\14.29.30133\atlmfc\include\afxtempl.h

; 1916 : 		{ return BASE_CLASS::InsertAfter(position, newElement); }

  0013e	ff 75 0c	 push	 DWORD PTR _pInsertBlock$1$[ebp]
  00141	ff 76 18	 push	 DWORD PTR [esi+24]
  00144	e8 00 00 00 00	 call	 ?InsertAfter@CObList@@QAEPAU__POSITION@@PAU2@PAVCObject@@@Z ; CObList::InsertAfter
; File D:\git\src\IBK\IBK_DRFN\ProjSrc\SrcChartEx\ChartOCX\ChartObject\BlocksColumn.cpp

; 290  : 			return m_BlockList.InsertAfter(m_BlockList.GetTailPosition(), pInsertBlock);

  00149	eb 12		 jmp	 SHORT $LN18@InsertBloc
$LN21@InsertBloc:

; 291  : 			
; 292  : 		return m_BlockList.InsertBefore(m_BlockList.FindIndex(nInsertPosition), pInsertBlock);

  0014b	53		 push	 ebx
  0014c	e8 00 00 00 00	 call	 ?FindIndex@CObList@@QBEPAU__POSITION@@H@Z ; CObList::FindIndex
; File C:\Program Files (x86)\Microsoft Visual Studio\2019\Community\VC\Tools\MSVC\14.29.30133\atlmfc\include\afxtempl.h

; 1914 : 		{ return BASE_CLASS::InsertBefore(position, newElement); }

  00151	ff 75 0c	 push	 DWORD PTR _pInsertBlock$1$[ebp]
  00154	8d 4e 10	 lea	 ecx, DWORD PTR [esi+16]
  00157	50		 push	 eax
  00158	e8 00 00 00 00	 call	 ?InsertBefore@CObList@@QAEPAU__POSITION@@PAU2@PAVCObject@@@Z ; CObList::InsertBefore
$LN18@InsertBloc:
; File D:\git\src\IBK\IBK_DRFN\ProjSrc\SrcChartEx\ChartOCX\ChartObject\BlocksColumn.cpp

; 346  : 	return true;

  0015d	b3 01		 mov	 bl, 1
$LN12@InsertBloc:
  0015f	8d 4d 8c	 lea	 ecx, DWORD PTR _insertingBlockHorzScaleData$[ebp+4]
  00162	ff 15 00 00 00
	00		 call	 DWORD PTR __imp_??1CHorizontalScale@@QAE@XZ
  00168	8d 8d 24 ff ff
	ff		 lea	 ecx, DWORD PTR _horzScale$[ebp]
  0016e	ff 15 00 00 00
	00		 call	 DWORD PTR __imp_??1CHorizontalScale@@QAE@XZ
  00174	8a c3		 mov	 al, bl

; 347  : }

  00176	8b 4d f4	 mov	 ecx, DWORD PTR __$EHRec$[ebp]
  00179	64 89 0d 00 00
	00 00		 mov	 DWORD PTR fs:0, ecx
  00180	59		 pop	 ecx
  00181	5f		 pop	 edi
  00182	5e		 pop	 esi
  00183	5b		 pop	 ebx
  00184	8b e5		 mov	 esp, ebp
  00186	5d		 pop	 ebp
  00187	c2 08 00	 ret	 8
$LN41@InsertBloc:

; 315  : 	if( !szVertScaleGroupData) return false;

  0018a	32 c0		 xor	 al, al

; 347  : }

  0018c	8b 4d f4	 mov	 ecx, DWORD PTR __$EHRec$[ebp]
  0018f	64 89 0d 00 00
	00 00		 mov	 DWORD PTR fs:0, ecx
  00196	59		 pop	 ecx
  00197	5f		 pop	 edi
  00198	5e		 pop	 esi
  00199	5b		 pop	 ebx
  0019a	8b e5		 mov	 esp, ebp
  0019c	5d		 pop	 ebp
  0019d	c2 08 00	 ret	 8
_TEXT	ENDS
;	COMDAT text$x
text$x	SEGMENT
__unwindfunclet$?InsertBlock@CBlocksColumn@@QAE_NHPAD@Z$0:
  00000	8d 8d 24 ff ff
	ff		 lea	 ecx, DWORD PTR _horzScale$[ebp]
  00006	ff 25 00 00 00
	00		 jmp	 DWORD PTR __imp_??1CHorizontalScale@@QAE@XZ
__unwindfunclet$?InsertBlock@CBlocksColumn@@QAE_NHPAD@Z$1:
  0000c	8d 4d 88	 lea	 ecx, DWORD PTR _insertingBlockHorzScaleData$[ebp]
  0000f	e9 00 00 00 00	 jmp	 ??1CInsertingBlockHorzScaleData@@QAE@XZ
  00014	cc		 int	 3
  00015	cc		 int	 3
  00016	cc		 int	 3
  00017	cc		 int	 3
  00018	cc		 int	 3
__ehhandler$?InsertBlock@CBlocksColumn@@QAE_NHPAD@Z:
  00019	90		 npad	 1
  0001a	90		 npad	 1
  0001b	8b 54 24 08	 mov	 edx, DWORD PTR [esp+8]
  0001f	8d 42 0c	 lea	 eax, DWORD PTR [edx+12]
  00022	8b 8a 20 ff ff
	ff		 mov	 ecx, DWORD PTR [edx-224]
  00028	33 c8		 xor	 ecx, eax
  0002a	e8 00 00 00 00	 call	 @__security_check_cookie@4
  0002f	b8 00 00 00 00	 mov	 eax, OFFSET __ehfuncinfo$?InsertBlock@CBlocksColumn@@QAE_NHPAD@Z
  00034	e9 00 00 00 00	 jmp	 ___CxxFrameHandler3
text$x	ENDS
?InsertBlock@CBlocksColumn@@QAE_NHPAD@Z ENDP		; CBlocksColumn::InsertBlock
; Function compile flags: /Ogtp
; File D:\git\src\IBK\IBK_DRFN\ProjSrc\SrcChartEx\ChartOCX\ChartObject\BlocksColumn.cpp
; File C:\Program Files (x86)\Microsoft Visual Studio\2019\Community\VC\Tools\MSVC\14.29.30133\atlmfc\include\afxtempl.h
; File D:\git\src\IBK\IBK_DRFN\ProjSrc\SrcChartEx\ChartOCX\ChartObject\BlocksColumn.cpp
; File C:\Program Files (x86)\Microsoft Visual Studio\2019\Community\VC\Tools\MSVC\14.29.30133\atlmfc\include\afxtempl.h
; File D:\git\src\IBK\IBK_DRFN\ProjSrc\SrcChartEx\ChartOCX\ChartObject\BlocksColumn.cpp
;	COMDAT ?InsertBlock_WithPosition@CBlocksColumn@@QAEPAU__POSITION@@PAVCBlockImp@@H_N@Z
_TEXT	SEGMENT
_pInsertBlock$ = 8					; size = 4
_nInsertPosition$ = 12					; size = 4
_bIsAutoOneBlockCount$ = 16				; size = 1
?InsertBlock_WithPosition@CBlocksColumn@@QAEPAU__POSITION@@PAVCBlockImp@@H_N@Z PROC ; CBlocksColumn::InsertBlock_WithPosition, COMDAT
; _this$ = ecx

; 279  : {

  00000	55		 push	 ebp
  00001	8b ec		 mov	 ebp, esp

; 280  : 	int nBlockCount = m_BlockList.GetCount();
; 281  : 
; 282  : 	//  block insert. ->   
; 283  : 	if(bIsAutoOneBlockCount)

  00003	80 7d 10 00	 cmp	 BYTE PTR _bIsAutoOneBlockCount$[ebp], 0
  00007	8b 41 1c	 mov	 eax, DWORD PTR [ecx+28]
  0000a	56		 push	 esi
  0000b	8d 71 10	 lea	 esi, DWORD PTR [ecx+16]
  0000e	74 38		 je	 SHORT $LN2@InsertBloc

; 284  : 	{
; 285  : 		// block    
; 286  : 		if(nBlockCount <= 1)

  00010	83 f8 01	 cmp	 eax, 1
  00013	7f 1a		 jg	 SHORT $LN3@InsertBloc

; 287  : 			return m_BlockList.InsertAfter(m_BlockList.FindIndex(nInsertPosition), pInsertBlock);

  00015	ff 75 0c	 push	 DWORD PTR _nInsertPosition$[ebp]
  00018	8b ce		 mov	 ecx, esi
  0001a	e8 00 00 00 00	 call	 ?FindIndex@CObList@@QBEPAU__POSITION@@H@Z ; CObList::FindIndex
; File C:\Program Files (x86)\Microsoft Visual Studio\2019\Community\VC\Tools\MSVC\14.29.30133\atlmfc\include\afxtempl.h

; 1916 : 		{ return BASE_CLASS::InsertAfter(position, newElement); }

  0001f	ff 75 08	 push	 DWORD PTR _pInsertBlock$[ebp]
  00022	8b ce		 mov	 ecx, esi
  00024	50		 push	 eax
  00025	e8 00 00 00 00	 call	 ?InsertAfter@CObList@@QAEPAU__POSITION@@PAU2@PAVCObject@@@Z ; CObList::InsertAfter
  0002a	5e		 pop	 esi
; File D:\git\src\IBK\IBK_DRFN\ProjSrc\SrcChartEx\ChartOCX\ChartObject\BlocksColumn.cpp

; 306  : }

  0002b	5d		 pop	 ebp
  0002c	c2 0c 00	 ret	 12			; 0000000cH
$LN3@InsertBloc:

; 288  : 
; 289  : 		if(nBlockCount <= nInsertPosition)

  0002f	8b 55 0c	 mov	 edx, DWORD PTR _nInsertPosition$[ebp]
$LN5@InsertBloc:

; 306  : }

  00032	3b c2		 cmp	 eax, edx
  00034	7f 2b		 jg	 SHORT $LN7@InsertBloc
  00036	ff 75 08	 push	 DWORD PTR _pInsertBlock$[ebp]
  00039	ff 71 18	 push	 DWORD PTR [ecx+24]
  0003c	8b ce		 mov	 ecx, esi
  0003e	e8 00 00 00 00	 call	 ?InsertAfter@CObList@@QAEPAU__POSITION@@PAU2@PAVCObject@@@Z ; CObList::InsertAfter
  00043	5e		 pop	 esi
  00044	5d		 pop	 ebp
  00045	c2 0c 00	 ret	 12			; 0000000cH
$LN2@InsertBloc:

; 290  : 			return m_BlockList.InsertAfter(m_BlockList.GetTailPosition(), pInsertBlock);
; 291  : 			
; 292  : 		return m_BlockList.InsertBefore(m_BlockList.FindIndex(nInsertPosition), pInsertBlock);
; 293  : 	}
; 294  : 
; 295  : 	// ->  block  (empty block  )
; 296  : 	//   
; 297  : 	if(nInsertPosition <= 0)

  00048	8b 55 0c	 mov	 edx, DWORD PTR _nInsertPosition$[ebp]
  0004b	85 d2		 test	 edx, edx
  0004d	7f e3		 jg	 SHORT $LN5@InsertBloc
; File C:\Program Files (x86)\Microsoft Visual Studio\2019\Community\VC\Tools\MSVC\14.29.30133\atlmfc\include\afxtempl.h

; 1914 : 		{ return BASE_CLASS::InsertBefore(position, newElement); }

  0004f	ff 75 08	 push	 DWORD PTR _pInsertBlock$[ebp]
  00052	ff 71 14	 push	 DWORD PTR [ecx+20]
; File D:\git\src\IBK\IBK_DRFN\ProjSrc\SrcChartEx\ChartOCX\ChartObject\BlocksColumn.cpp

; 306  : }

  00055	8b ce		 mov	 ecx, esi
  00057	e8 00 00 00 00	 call	 ?InsertBefore@CObList@@QAEPAU__POSITION@@PAU2@PAVCObject@@@Z ; CObList::InsertBefore
  0005c	5e		 pop	 esi
  0005d	5d		 pop	 ebp
  0005e	c2 0c 00	 ret	 12			; 0000000cH
$LN7@InsertBloc:
  00061	52		 push	 edx
  00062	8b ce		 mov	 ecx, esi
  00064	e8 00 00 00 00	 call	 ?FindIndex@CObList@@QBEPAU__POSITION@@H@Z ; CObList::FindIndex
  00069	ff 75 08	 push	 DWORD PTR _pInsertBlock$[ebp]
  0006c	8b ce		 mov	 ecx, esi
  0006e	50		 push	 eax
  0006f	e8 00 00 00 00	 call	 ?InsertBefore@CObList@@QAEPAU__POSITION@@PAU2@PAVCObject@@@Z ; CObList::InsertBefore
  00074	5e		 pop	 esi
  00075	5d		 pop	 ebp
  00076	c2 0c 00	 ret	 12			; 0000000cH
?InsertBlock_WithPosition@CBlocksColumn@@QAEPAU__POSITION@@PAVCBlockImp@@H_N@Z ENDP ; CBlocksColumn::InsertBlock_WithPosition
_TEXT	ENDS
; Function compile flags: /Ogtp
; File D:\git\src\IBK\IBK_DRFN\ProjSrc\SrcChartEx\ChartOCX\ChartObject\BlocksColumn.cpp
;	COMDAT ?InsertBlock_GetBlockForInsert@CBlocksColumn@@QAEPAVCBlockImp@@H_N@Z
_TEXT	SEGMENT
_gsi$1 = -64						; size = 64
_nInsertPosition$ = 8					; size = 4
_bIsAutoEmptyBlock$ = 12				; size = 1
?InsertBlock_GetBlockForInsert@CBlocksColumn@@QAEPAVCBlockImp@@H_N@Z PROC ; CBlocksColumn::InsertBlock_GetBlockForInsert, COMDAT
; _this$ = ecx

; 261  : {

  00000	55		 push	 ebp
  00001	8b ec		 mov	 ebp, esp
  00003	83 ec 40	 sub	 esp, 64			; 00000040H

; 262  : 	// graph  block  !
; 263  : 	if(bIsAutoEmptyBlock)

  00006	80 7d 0c 00	 cmp	 BYTE PTR _bIsAutoEmptyBlock$[ebp], 0
  0000a	56		 push	 esi
  0000b	8b f1		 mov	 esi, ecx
  0000d	74 28		 je	 SHORT $LN3@InsertBloc

; 264  : 	{
; 265  : 		CGraphSearchInfo_AnyGraph gsi;
; 266  : 		if( !FindGraph( &gsi)) return gsi.m_pBlockImp;

  0000f	8d 4d c0	 lea	 ecx, DWORD PTR _gsi$1[ebp]
  00012	e8 00 00 00 00	 call	 ??0CGraphSearchInfo@@QAE@XZ ; CGraphSearchInfo::CGraphSearchInfo
  00017	8d 45 c0	 lea	 eax, DWORD PTR _gsi$1[ebp]
  0001a	c7 45 c0 00 00
	00 00		 mov	 DWORD PTR _gsi$1[ebp], OFFSET ??_7CGraphSearchInfo_AnyGraph@@6B@
  00021	50		 push	 eax
  00022	8b ce		 mov	 ecx, esi
  00024	e8 00 00 00 00	 call	 ?FindGraph@CBlocksColumn@@QBEHPAVCGraphSearchInfo@@@Z ; CBlocksColumn::FindGraph
  00029	85 c0		 test	 eax, eax
  0002b	75 0a		 jne	 SHORT $LN3@InsertBloc
  0002d	8b 45 f0	 mov	 eax, DWORD PTR _gsi$1[ebp+48]
  00030	5e		 pop	 esi

; 272  : }

  00031	8b e5		 mov	 esp, ebp
  00033	5d		 pop	 ebp
  00034	c2 08 00	 ret	 8
$LN3@InsertBloc:

; 267  : 	}
; 268  : 
; 269  : 	// null graph  block     block .
; 270  : 	SendMessageToParent_BlockInsert(nInsertPosition);

  00037	ff 75 08	 push	 DWORD PTR _nInsertPosition$[ebp]
  0003a	8b ce		 mov	 ecx, esi
  0003c	e8 00 00 00 00	 call	 ?SendMessageToParent_BlockInsert@CBlocksColumn@@QAEXH@Z ; CBlocksColumn::SendMessageToParent_BlockInsert

; 50   : 	if(m_pMain == NULL)

  00041	8b 4e 04	 mov	 ecx, DWORD PTR [esi+4]
  00044	85 c9		 test	 ecx, ecx
  00046	75 13		 jne	 SHORT $LN8@InsertBloc

; 51   : 		return NULL;

  00048	33 c0		 xor	 eax, eax

; 271  : 	return CBlockImp::Make(GetMainBlockBaseData(), this);

  0004a	56		 push	 esi
  0004b	50		 push	 eax
  0004c	e8 00 00 00 00	 call	 ?Make@CBlockImp@@SAPAV1@PAVCMainBlockBaseData@@PAVCBlocksColumn@@@Z ; CBlockImp::Make
  00051	83 c4 08	 add	 esp, 8
  00054	5e		 pop	 esi

; 272  : }

  00055	8b e5		 mov	 esp, ebp
  00057	5d		 pop	 ebp
  00058	c2 08 00	 ret	 8
$LN8@InsertBloc:

; 53   : 	return m_pMain->GetMainBlockBaseData();

  0005b	e8 00 00 00 00	 call	 ?GetMainBlockBaseData@CMainBlockImp@@QBEPAVCMainBlockBaseData@@XZ ; CMainBlockImp::GetMainBlockBaseData

; 271  : 	return CBlockImp::Make(GetMainBlockBaseData(), this);

  00060	56		 push	 esi
  00061	50		 push	 eax
  00062	e8 00 00 00 00	 call	 ?Make@CBlockImp@@SAPAV1@PAVCMainBlockBaseData@@PAVCBlocksColumn@@@Z ; CBlockImp::Make
  00067	83 c4 08	 add	 esp, 8
  0006a	5e		 pop	 esi

; 272  : }

  0006b	8b e5		 mov	 esp, ebp
  0006d	5d		 pop	 ebp
  0006e	c2 08 00	 ret	 8
?InsertBlock_GetBlockForInsert@CBlocksColumn@@QAEPAVCBlockImp@@H_N@Z ENDP ; CBlocksColumn::InsertBlock_GetBlockForInsert
_TEXT	ENDS
; Function compile flags: /Ogtp
; File D:\git\src\IBK\IBK_DRFN\ProjSrc\SrcChartEx\ChartOCX\ChartObject\BlocksColumn.cpp
; File C:\Program Files (x86)\Microsoft Visual Studio\2019\Community\VC\Tools\MSVC\14.29.30133\atlmfc\include\afxwin1.inl
; File D:\git\src\IBK\IBK_DRFN\ProjSrc\SrcChartEx\ChartOCX\Include_Chart\Dll_Load\IMetaTable.h
; File C:\Program Files (x86)\Microsoft Visual Studio\2019\Community\VC\Tools\MSVC\14.29.30133\atlmfc\include\afxwin1.inl
; File D:\git\src\IBK\IBK_DRFN\ProjSrc\SrcChartEx\ChartOCX\ChartObject\BlocksColumn.cpp
; File C:\Program Files (x86)\Microsoft Visual Studio\2019\Community\VC\Tools\MSVC\14.29.30133\atlmfc\include\atlsimpstr.h
; File D:\git\src\IBK\IBK_DRFN\ProjSrc\SrcChartEx\ChartOCX\ChartObject\BlocksColumn.cpp
; File C:\Program Files (x86)\Microsoft Visual Studio\2019\Community\VC\Tools\MSVC\14.29.30133\atlmfc\include\atlsimpstr.h
; File D:\git\src\IBK\IBK_DRFN\ProjSrc\SrcChartEx\ChartOCX\ChartObject\BlocksColumn.cpp
; File C:\Program Files (x86)\Microsoft Visual Studio\2019\Community\VC\Tools\MSVC\14.29.30133\atlmfc\include\afxwin2.inl
; File D:\git\src\IBK\IBK_DRFN\ProjSrc\SrcChartEx\ChartOCX\ChartObject\BlocksColumn.cpp
; File D:\git\src\IBK\IBK_DRFN\ProjSrc\SrcChartEx\ChartOCX\Include_Chart\Dll_Load\IMetaTable.h
; File C:\Program Files (x86)\Microsoft Visual Studio\2019\Community\VC\Tools\MSVC\14.29.30133\atlmfc\include\afxwin1.inl
; File D:\git\src\IBK\IBK_DRFN\ProjSrc\SrcChartEx\ChartOCX\ChartObject\BlocksColumn.cpp
; File D:\git\src\IBK\IBK_DRFN\ProjSrc\SrcChartEx\ChartOCX\Include_Chart\Dll_Load\IMetaTable.h
; File C:\Program Files (x86)\Microsoft Visual Studio\2019\Community\VC\Tools\MSVC\14.29.30133\atlmfc\include\afxwin1.inl
; File D:\git\src\IBK\IBK_DRFN\ProjSrc\SrcChartEx\ChartOCX\Include_Chart\Dll_Load\IMetaTable.h
; File C:\Program Files (x86)\Microsoft Visual Studio\2019\Community\VC\Tools\MSVC\14.29.30133\atlmfc\include\afxwin1.inl
; File D:\git\src\IBK\IBK_DRFN\ProjSrc\SrcChartEx\ChartOCX\ChartObject\BlocksColumn.cpp
; File C:\Program Files (x86)\Microsoft Visual Studio\2019\Community\VC\Tools\MSVC\14.29.30133\atlmfc\include\afxwin1.inl
; File D:\git\src\IBK\IBK_DRFN\ProjSrc\SrcChartEx\ChartOCX\Include_Chart\Dll_Load\IMetaTable.h
; File C:\Program Files (x86)\Microsoft Visual Studio\2019\Community\VC\Tools\MSVC\14.29.30133\atlmfc\include\afxwin1.inl
; File D:\git\src\IBK\IBK_DRFN\ProjSrc\SrcChartEx\ChartOCX\ChartObject\BlocksColumn.cpp
; File D:\git\src\IBK\IBK_DRFN\ProjSrc\SrcChartEx\ChartOCX\Include_Chart\Dll_Load\IMetaTable.h
; File C:\Program Files (x86)\Microsoft Visual Studio\2019\Community\VC\Tools\MSVC\14.29.30133\atlmfc\include\afxwin1.inl
; File D:\git\src\IBK\IBK_DRFN\ProjSrc\SrcChartEx\ChartOCX\ChartObject\BlocksColumn.cpp
;	COMDAT ?InsertBlock_LoadDialog@CBlocksColumn@@QAE_NAAVCInsertingBlockHorzScaleData@@@Z
_TEXT	SEGMENT
_dlg$ = -224						; size = 192
___mlrs__$ = -32					; size = 4
___mlrs__$2 = -32					; size = 4
$T3 = -28						; size = 4
_pMainBlockBaseData$1$ = -24				; size = 4
_strMessage$4 = -20					; size = 4
_strTitle$5 = -16					; size = 4
__$EHRec$ = -12						; size = 12
_insertingBlockHorzScaleData$ = 8			; size = 4
?InsertBlock_LoadDialog@CBlocksColumn@@QAE_NAAVCInsertingBlockHorzScaleData@@@Z PROC ; CBlocksColumn::InsertBlock_LoadDialog, COMDAT
; _this$ = ecx

; 218  : {

  00000	55		 push	 ebp
  00001	8b ec		 mov	 ebp, esp
  00003	6a ff		 push	 -1
  00005	68 00 00 00 00	 push	 __ehhandler$?InsertBlock_LoadDialog@CBlocksColumn@@QAE_NAAVCInsertingBlockHorzScaleData@@@Z
  0000a	64 a1 00 00 00
	00		 mov	 eax, DWORD PTR fs:0
  00010	50		 push	 eax
  00011	81 ec d4 00 00
	00		 sub	 esp, 212		; 000000d4H
  00017	53		 push	 ebx
  00018	56		 push	 esi
  00019	57		 push	 edi
  0001a	a1 00 00 00 00	 mov	 eax, DWORD PTR ___security_cookie
  0001f	33 c5		 xor	 eax, ebp
  00021	50		 push	 eax
  00022	8d 45 f4	 lea	 eax, DWORD PTR __$EHRec$[ebp]
  00025	64 a3 00 00 00
	00		 mov	 DWORD PTR fs:0, eax
  0002b	8b d9		 mov	 ebx, ecx

; 50   : 	if(m_pMain == NULL)

  0002d	8b 4b 04	 mov	 ecx, DWORD PTR [ebx+4]
  00030	85 c9		 test	 ecx, ecx
  00032	74 30		 je	 SHORT $LN52@InsertBloc

; 51   : 		return NULL;
; 52   : 
; 53   : 	return m_pMain->GetMainBlockBaseData();

  00034	e8 00 00 00 00	 call	 ?GetMainBlockBaseData@CMainBlockImp@@QBEPAVCMainBlockBaseData@@XZ ; CMainBlockImp::GetMainBlockBaseData
  00039	89 45 e8	 mov	 DWORD PTR _pMainBlockBaseData$1$[ebp], eax

; 219  : 	CMainBlockBaseData* pMainBlockBaseData = GetMainBlockBaseData();
; 220  : 	// ( 2006 / 07 / 25 - Sang-Woo, Cho ) 
; 221  : 	//   Block   Block     Block  
; 222  : 	//  Block         .
; 223  : 	//if(pMainBlockBaseData == NULL || GetBlockCount() != 1)
; 224  : 	if( pMainBlockBaseData == NULL )

  0003c	85 c0		 test	 eax, eax
  0003e	74 24		 je	 SHORT $LN52@InsertBloc

; 225  : 		return false;
; 226  : 	// End
; 227  : 
; 228  : 	if( !pMainBlockBaseData->DoesMessageBoxShow())

  00040	8b c8		 mov	 ecx, eax
  00042	e8 00 00 00 00	 call	 ?DoesMessageBoxShow@CMainBlockBaseData@@QBEHXZ ; CMainBlockBaseData::DoesMessageBoxShow
  00047	85 c0		 test	 eax, eax
  00049	75 2f		 jne	 SHORT $LN3@InsertBloc

; 229  : 	{
; 230  : 		// (2009/9/6 - Seung-Won, Bae) Do not support CHorizontalScale::SetHorzScalePosition() as public.
; 231  : 		//		To rearrange the row positions. Use CMainBlockImp::SetHorzScalePosition().
; 232  : 		m_pMain->SetHorzScalePosition( insertingBlockHorzScaleData.GetHorizontalScale(), CScaleBaseData::HORZ_BOTTOM);

  0004b	8b 43 04	 mov	 eax, DWORD PTR [ebx+4]
  0004e	8b 4d 08	 mov	 ecx, DWORD PTR _insertingBlockHorzScaleData$[ebp]
  00051	6a 01		 push	 1
  00053	8b 30		 mov	 esi, DWORD PTR [eax]
  00055	e8 00 00 00 00	 call	 ?GetHorizontalScale@CInsertingBlockHorzScaleData@@QAEAAVCHorizontalScale@@XZ ; CInsertingBlockHorzScaleData::GetHorizontalScale
  0005a	8b 4b 04	 mov	 ecx, DWORD PTR [ebx+4]
  0005d	50		 push	 eax
  0005e	ff 96 d8 00 00
	00		 call	 DWORD PTR [esi+216]
$LN52@InsertBloc:

; 256  : }

  00064	32 c0		 xor	 al, al
  00066	8b 4d f4	 mov	 ecx, DWORD PTR __$EHRec$[ebp]
  00069	64 89 0d 00 00
	00 00		 mov	 DWORD PTR fs:0, ecx
  00070	59		 pop	 ecx
  00071	5f		 pop	 edi
  00072	5e		 pop	 esi
  00073	5b		 pop	 ebx
  00074	8b e5		 mov	 esp, ebp
  00076	5d		 pop	 ebp
  00077	c2 04 00	 ret	 4
$LN3@InsertBloc:

; 233  : 		return false;
; 234  : 	}
; 235  : 
; 236  : 	// (2007/6/27 - Seung-Won, Bae) Show UI Directly.
; 237  : 	//	CChartObjectWrapperHelper wrapperHelper(m_pMain->GetOCXPath());
; 238  : 	//	return wrapperHelper.InsertBlock(pMainBlockBaseData->GetParentWnd(), &insertingBlockHorzScaleData);
; 239  : 	// (2009/9/23 - Seung-Won, Bae) Use '{}' for ML_SET_LANGUAGE_RES()'s re-using.
; 240  : 	{
; 241  : 		ML_SET_LANGUAGE_RES();

  0007a	e8 00 00 00 00	 call	 ?AfxGetStaticModuleState@@YGPAVAFX_MODULE_STATE@@XZ ; AfxGetStaticModuleState
  0007f	b9 00 00 00 00	 mov	 ecx, OFFSET ?g_iMetaTable@@3VIMetaTable@@A ; g_iMetaTable
  00084	8b 40 08	 mov	 eax, DWORD PTR [eax+8]
  00087	50		 push	 eax
  00088	ff 73 2c	 push	 DWORD PTR [ebx+44]
  0008b	e8 00 00 00 00	 call	 ?LoadResourceDLL@IMetaTable@@QAEPAUHINSTANCE__@@PAUHWND__@@PAU2@@Z ; IMetaTable::LoadResourceDLL
  00090	8b f8		 mov	 edi, eax
; File C:\Program Files (x86)\Microsoft Visual Studio\2019\Community\VC\Tools\MSVC\14.29.30133\atlmfc\include\afxwin1.inl

; 25   : 		return afxCurrentResourceHandle; }

  00092	e8 00 00 00 00	 call	 ?AfxGetModuleState@@YGPAVAFX_MODULE_STATE@@XZ ; AfxGetModuleState
; File D:\git\src\IBK\IBK_DRFN\ProjSrc\SrcChartEx\ChartOCX\Include_Chart\Dll_Load\IMetaTable.h

; 1032 : 		m_hInstance = AfxGetResourceHandle();

  00097	8b 70 0c	 mov	 esi, DWORD PTR [eax+12]
  0009a	89 75 e0	 mov	 DWORD PTR ___mlrs__$2[ebp], esi
; File C:\Program Files (x86)\Microsoft Visual Studio\2019\Community\VC\Tools\MSVC\14.29.30133\atlmfc\include\afxwin1.inl

; 27   : 	{ ASSERT(hInstResource != NULL); afxCurrentResourceHandle = hInstResource; }

  0009d	e8 00 00 00 00	 call	 ?AfxGetModuleState@@YGPAVAFX_MODULE_STATE@@XZ ; AfxGetModuleState
  000a2	89 78 0c	 mov	 DWORD PTR [eax+12], edi
; File D:\git\src\IBK\IBK_DRFN\ProjSrc\SrcChartEx\ChartOCX\ChartObject\BlocksColumn.cpp

; 242  : 		CString strMessage;

  000a5	8d 4d ec	 lea	 ecx, DWORD PTR _strMessage$4[ebp]
  000a8	c7 45 fc 00 00
	00 00		 mov	 DWORD PTR __$EHRec$[ebp+8], 0
  000af	ff 15 00 00 00
	00		 call	 DWORD PTR __imp_??0?$CStringT@DV?$StrTraitMFC_DLL@DV?$ChTraitsCRT@D@ATL@@@@@ATL@@QAE@XZ

; 243  : 		strMessage.LoadString( IDS_X_SCALE_SETTING);

  000b5	6a 03		 push	 3
  000b7	8d 4d ec	 lea	 ecx, DWORD PTR _strMessage$4[ebp]
  000ba	c6 45 fc 01	 mov	 BYTE PTR __$EHRec$[ebp+8], 1
  000be	ff 15 00 00 00
	00		 call	 DWORD PTR __imp_?LoadStringA@?$CStringT@DV?$StrTraitMFC_DLL@DV?$ChTraitsCRT@D@ATL@@@@@ATL@@QAEHI@Z

; 244  : 		CString strTitle;

  000c4	8d 4d f0	 lea	 ecx, DWORD PTR _strTitle$5[ebp]
  000c7	ff 15 00 00 00
	00		 call	 DWORD PTR __imp_??0?$CStringT@DV?$StrTraitMFC_DLL@DV?$ChTraitsCRT@D@ATL@@@@@ATL@@QAE@XZ

; 245  : 		strTitle.LoadString( IDS_SELECT);

  000cd	6a 04		 push	 4
  000cf	8d 4d f0	 lea	 ecx, DWORD PTR _strTitle$5[ebp]
  000d2	c6 45 fc 02	 mov	 BYTE PTR __$EHRec$[ebp+8], 2
  000d6	ff 15 00 00 00
	00		 call	 DWORD PTR __imp_?LoadStringA@?$CStringT@DV?$StrTraitMFC_DLL@DV?$ChTraitsCRT@D@ATL@@@@@ATL@@QAEHI@Z
; File C:\Program Files (x86)\Microsoft Visual Studio\2019\Community\VC\Tools\MSVC\14.29.30133\atlmfc\include\atlsimpstr.h

; 377  : 		return( m_pszData );

  000dc	8b 45 ec	 mov	 eax, DWORD PTR _strMessage$4[ebp]
; File D:\git\src\IBK\IBK_DRFN\ProjSrc\SrcChartEx\ChartOCX\ChartObject\BlocksColumn.cpp

; 246  : 		if( IDYES != MessageBox( pMainBlockBaseData->GetParentWnd()->GetSafeHwnd(), strMessage, strTitle, MB_ICONQUESTION | MB_YESNO))

  000df	8b 4d e8	 mov	 ecx, DWORD PTR _pMainBlockBaseData$1$[ebp]
; File C:\Program Files (x86)\Microsoft Visual Studio\2019\Community\VC\Tools\MSVC\14.29.30133\atlmfc\include\atlsimpstr.h

; 377  : 		return( m_pszData );

  000e2	8b 7d f0	 mov	 edi, DWORD PTR _strTitle$5[ebp]
  000e5	89 45 e4	 mov	 DWORD PTR $T3[ebp], eax
; File D:\git\src\IBK\IBK_DRFN\ProjSrc\SrcChartEx\ChartOCX\ChartObject\BlocksColumn.cpp

; 246  : 		if( IDYES != MessageBox( pMainBlockBaseData->GetParentWnd()->GetSafeHwnd(), strMessage, strTitle, MB_ICONQUESTION | MB_YESNO))

  000e8	e8 00 00 00 00	 call	 ?GetParentWnd@CMainBlockBaseData@@QBEPAVCWnd@@XZ ; CMainBlockBaseData::GetParentWnd
; File C:\Program Files (x86)\Microsoft Visual Studio\2019\Community\VC\Tools\MSVC\14.29.30133\atlmfc\include\afxwin2.inl

; 25   : 	{ return this == NULL ? NULL : m_hWnd; }

  000ed	85 c0		 test	 eax, eax
  000ef	74 03		 je	 SHORT $LN27@InsertBloc
$LN26@InsertBloc:
  000f1	8b 40 20	 mov	 eax, DWORD PTR [eax+32]
$LN27@InsertBloc:
; File D:\git\src\IBK\IBK_DRFN\ProjSrc\SrcChartEx\ChartOCX\ChartObject\BlocksColumn.cpp

; 246  : 		if( IDYES != MessageBox( pMainBlockBaseData->GetParentWnd()->GetSafeHwnd(), strMessage, strTitle, MB_ICONQUESTION | MB_YESNO))

  000f4	6a 24		 push	 36			; 00000024H
  000f6	57		 push	 edi
  000f7	ff 75 e4	 push	 DWORD PTR $T3[ebp]
  000fa	50		 push	 eax
  000fb	ff 15 00 00 00
	00		 call	 DWORD PTR __imp__MessageBoxA@16
  00101	8d 4d f0	 lea	 ecx, DWORD PTR _strTitle$5[ebp]
  00104	83 f8 06	 cmp	 eax, 6
  00107	74 23		 je	 SHORT $LN4@InsertBloc

; 247  : 			return false;

  00109	ff 15 00 00 00
	00		 call	 DWORD PTR __imp_??1?$CStringT@DV?$StrTraitMFC_DLL@DV?$ChTraitsCRT@D@ATL@@@@@ATL@@QAE@XZ
  0010f	8d 4d ec	 lea	 ecx, DWORD PTR _strMessage$4[ebp]
  00112	ff 15 00 00 00
	00		 call	 DWORD PTR __imp_??1?$CStringT@DV?$StrTraitMFC_DLL@DV?$ChTraitsCRT@D@ATL@@@@@ATL@@QAE@XZ
; File D:\git\src\IBK\IBK_DRFN\ProjSrc\SrcChartEx\ChartOCX\Include_Chart\Dll_Load\IMetaTable.h

; 1036 : 	{

  00118	c7 45 fc 03 00
	00 00		 mov	 DWORD PTR __$EHRec$[ebp+8], 3
; File C:\Program Files (x86)\Microsoft Visual Studio\2019\Community\VC\Tools\MSVC\14.29.30133\atlmfc\include\afxwin1.inl

; 27   : 	{ ASSERT(hInstResource != NULL); afxCurrentResourceHandle = hInstResource; }

  0011f	e8 00 00 00 00	 call	 ?AfxGetModuleState@@YGPAVAFX_MODULE_STATE@@XZ ; AfxGetModuleState
  00124	89 70 0c	 mov	 DWORD PTR [eax+12], esi
; File D:\git\src\IBK\IBK_DRFN\ProjSrc\SrcChartEx\ChartOCX\ChartObject\BlocksColumn.cpp

; 247  : 			return false;

  00127	e9 38 ff ff ff	 jmp	 $LN52@InsertBloc
$LN4@InsertBloc:

; 248  : 	}

  0012c	ff 15 00 00 00
	00		 call	 DWORD PTR __imp_??1?$CStringT@DV?$StrTraitMFC_DLL@DV?$ChTraitsCRT@D@ATL@@@@@ATL@@QAE@XZ
  00132	8d 4d ec	 lea	 ecx, DWORD PTR _strMessage$4[ebp]
  00135	ff 15 00 00 00
	00		 call	 DWORD PTR __imp_??1?$CStringT@DV?$StrTraitMFC_DLL@DV?$ChTraitsCRT@D@ATL@@@@@ATL@@QAE@XZ
; File D:\git\src\IBK\IBK_DRFN\ProjSrc\SrcChartEx\ChartOCX\Include_Chart\Dll_Load\IMetaTable.h

; 1036 : 	{

  0013b	c7 45 fc 04 00
	00 00		 mov	 DWORD PTR __$EHRec$[ebp+8], 4
; File C:\Program Files (x86)\Microsoft Visual Studio\2019\Community\VC\Tools\MSVC\14.29.30133\atlmfc\include\afxwin1.inl

; 27   : 	{ ASSERT(hInstResource != NULL); afxCurrentResourceHandle = hInstResource; }

  00142	e8 00 00 00 00	 call	 ?AfxGetModuleState@@YGPAVAFX_MODULE_STATE@@XZ ; AfxGetModuleState
; File D:\git\src\IBK\IBK_DRFN\ProjSrc\SrcChartEx\ChartOCX\Include_Chart\Dll_Load\IMetaTable.h

; 1038 : 	}

  00147	c7 45 fc ff ff
	ff ff		 mov	 DWORD PTR __$EHRec$[ebp+8], -1
; File C:\Program Files (x86)\Microsoft Visual Studio\2019\Community\VC\Tools\MSVC\14.29.30133\atlmfc\include\afxwin1.inl

; 27   : 	{ ASSERT(hInstResource != NULL); afxCurrentResourceHandle = hInstResource; }

  0014e	89 70 0c	 mov	 DWORD PTR [eax+12], esi
; File D:\git\src\IBK\IBK_DRFN\ProjSrc\SrcChartEx\ChartOCX\ChartObject\BlocksColumn.cpp

; 250  : 	ML_SET_LANGUAGE_RES();

  00151	e8 00 00 00 00	 call	 ?AfxGetStaticModuleState@@YGPAVAFX_MODULE_STATE@@XZ ; AfxGetStaticModuleState
  00156	b9 00 00 00 00	 mov	 ecx, OFFSET ?g_iMetaTable@@3VIMetaTable@@A ; g_iMetaTable
  0015b	8b 40 08	 mov	 eax, DWORD PTR [eax+8]
  0015e	50		 push	 eax
  0015f	ff 73 2c	 push	 DWORD PTR [ebx+44]
  00162	e8 00 00 00 00	 call	 ?LoadResourceDLL@IMetaTable@@QAEPAUHINSTANCE__@@PAUHWND__@@PAU2@@Z ; IMetaTable::LoadResourceDLL
  00167	8b f8		 mov	 edi, eax
; File C:\Program Files (x86)\Microsoft Visual Studio\2019\Community\VC\Tools\MSVC\14.29.30133\atlmfc\include\afxwin1.inl

; 25   : 		return afxCurrentResourceHandle; }

  00169	e8 00 00 00 00	 call	 ?AfxGetModuleState@@YGPAVAFX_MODULE_STATE@@XZ ; AfxGetModuleState
; File D:\git\src\IBK\IBK_DRFN\ProjSrc\SrcChartEx\ChartOCX\Include_Chart\Dll_Load\IMetaTable.h

; 1032 : 		m_hInstance = AfxGetResourceHandle();

  0016e	8b 70 0c	 mov	 esi, DWORD PTR [eax+12]
  00171	89 75 e0	 mov	 DWORD PTR ___mlrs__$[ebp], esi
; File C:\Program Files (x86)\Microsoft Visual Studio\2019\Community\VC\Tools\MSVC\14.29.30133\atlmfc\include\afxwin1.inl

; 27   : 	{ ASSERT(hInstResource != NULL); afxCurrentResourceHandle = hInstResource; }

  00174	e8 00 00 00 00	 call	 ?AfxGetModuleState@@YGPAVAFX_MODULE_STATE@@XZ ; AfxGetModuleState
  00179	89 78 0c	 mov	 DWORD PTR [eax+12], edi
; File D:\git\src\IBK\IBK_DRFN\ProjSrc\SrcChartEx\ChartOCX\ChartObject\BlocksColumn.cpp

; 251  : 	CDlgBlockInsert dlg( pMainBlockBaseData->GetParentWnd(), m_pMain, &insertingBlockHorzScaleData);

  0017c	ff 75 08	 push	 DWORD PTR _insertingBlockHorzScaleData$[ebp]
  0017f	c7 45 fc 05 00
	00 00		 mov	 DWORD PTR __$EHRec$[ebp+8], 5
  00186	ff 73 04	 push	 DWORD PTR [ebx+4]
  00189	8b 5d e8	 mov	 ebx, DWORD PTR _pMainBlockBaseData$1$[ebp]
  0018c	8b cb		 mov	 ecx, ebx
  0018e	e8 00 00 00 00	 call	 ?GetParentWnd@CMainBlockBaseData@@QBEPAVCWnd@@XZ ; CMainBlockBaseData::GetParentWnd
  00193	50		 push	 eax
  00194	8d 8d 20 ff ff
	ff		 lea	 ecx, DWORD PTR _dlg$[ebp]
  0019a	e8 00 00 00 00	 call	 ??0CDlgBlockInsert@@QAE@PAVCWnd@@PAVCMainBlockImp@@PAVCInsertingBlockHorzScaleData@@@Z ; CDlgBlockInsert::CDlgBlockInsert

; 252  : 	BOOL bResult = (IDOK == dlg.DoModal());

  0019f	8d 8d 20 ff ff
	ff		 lea	 ecx, DWORD PTR _dlg$[ebp]
  001a5	c6 45 fc 06	 mov	 BYTE PTR __$EHRec$[ebp+8], 6
  001a9	e8 00 00 00 00	 call	 ?DoModal@CDialog@@UAEHXZ ; CDialog::DoModal
  001ae	33 c9		 xor	 ecx, ecx
  001b0	83 f8 01	 cmp	 eax, 1
  001b3	0f 94 c1	 sete	 cl

; 253  : 
; 254  : 	pMainBlockBaseData->SetMessageBoxUsed( bResult);

  001b6	89 8b a0 00 00
	00		 mov	 DWORD PTR [ebx+160], ecx
  001bc	8d 8d 20 ff ff
	ff		 lea	 ecx, DWORD PTR _dlg$[ebp]

; 255  : 	return bResult ? true : false;

  001c2	0f 94 c3	 sete	 bl
  001c5	e8 00 00 00 00	 call	 ??1CDialog@@UAE@XZ	; CDialog::~CDialog
; File D:\git\src\IBK\IBK_DRFN\ProjSrc\SrcChartEx\ChartOCX\Include_Chart\Dll_Load\IMetaTable.h

; 1036 : 	{

  001ca	c7 45 fc 07 00
	00 00		 mov	 DWORD PTR __$EHRec$[ebp+8], 7
; File C:\Program Files (x86)\Microsoft Visual Studio\2019\Community\VC\Tools\MSVC\14.29.30133\atlmfc\include\afxwin1.inl

; 27   : 	{ ASSERT(hInstResource != NULL); afxCurrentResourceHandle = hInstResource; }

  001d1	e8 00 00 00 00	 call	 ?AfxGetModuleState@@YGPAVAFX_MODULE_STATE@@XZ ; AfxGetModuleState
  001d6	89 70 0c	 mov	 DWORD PTR [eax+12], esi
; File D:\git\src\IBK\IBK_DRFN\ProjSrc\SrcChartEx\ChartOCX\ChartObject\BlocksColumn.cpp

; 255  : 	return bResult ? true : false;

  001d9	8a c3		 mov	 al, bl

; 256  : }

  001db	8b 4d f4	 mov	 ecx, DWORD PTR __$EHRec$[ebp]
  001de	64 89 0d 00 00
	00 00		 mov	 DWORD PTR fs:0, ecx
  001e5	59		 pop	 ecx
  001e6	5f		 pop	 edi
  001e7	5e		 pop	 esi
  001e8	5b		 pop	 ebx
  001e9	8b e5		 mov	 esp, ebp
  001eb	5d		 pop	 ebp
  001ec	c2 04 00	 ret	 4
_TEXT	ENDS
;	COMDAT text$x
text$x	SEGMENT
__unwindfunclet$?InsertBlock_LoadDialog@CBlocksColumn@@QAE_NAAVCInsertingBlockHorzScaleData@@@Z$0:
  00000	8d 4d e0	 lea	 ecx, DWORD PTR ___mlrs__$2[ebp]
  00003	e9 00 00 00 00	 jmp	 ??1CMultiLanguageResourceSetter@@QAE@XZ ; CMultiLanguageResourceSetter::~CMultiLanguageResourceSetter
__unwindfunclet$?InsertBlock_LoadDialog@CBlocksColumn@@QAE_NAAVCInsertingBlockHorzScaleData@@@Z$1:
  00008	8d 4d ec	 lea	 ecx, DWORD PTR _strMessage$4[ebp]
  0000b	ff 25 00 00 00
	00		 jmp	 DWORD PTR __imp_??1?$CStringT@DV?$StrTraitMFC_DLL@DV?$ChTraitsCRT@D@ATL@@@@@ATL@@QAE@XZ
__unwindfunclet$?InsertBlock_LoadDialog@CBlocksColumn@@QAE_NAAVCInsertingBlockHorzScaleData@@@Z$2:
  00011	8d 4d f0	 lea	 ecx, DWORD PTR _strTitle$5[ebp]
  00014	ff 25 00 00 00
	00		 jmp	 DWORD PTR __imp_??1?$CStringT@DV?$StrTraitMFC_DLL@DV?$ChTraitsCRT@D@ATL@@@@@ATL@@QAE@XZ
__unwindfunclet$?InsertBlock_LoadDialog@CBlocksColumn@@QAE_NAAVCInsertingBlockHorzScaleData@@@Z$3:
  0001a	8d 4d e0	 lea	 ecx, DWORD PTR ___mlrs__$[ebp]
  0001d	e9 00 00 00 00	 jmp	 ??1CMultiLanguageResourceSetter@@QAE@XZ ; CMultiLanguageResourceSetter::~CMultiLanguageResourceSetter
__unwindfunclet$?InsertBlock_LoadDialog@CBlocksColumn@@QAE_NAAVCInsertingBlockHorzScaleData@@@Z$4:
  00022	8d 8d 20 ff ff
	ff		 lea	 ecx, DWORD PTR _dlg$[ebp]
  00028	e9 00 00 00 00	 jmp	 ??1CDlgBlockInsert@@UAE@XZ
  0002d	cc		 int	 3
  0002e	cc		 int	 3
  0002f	cc		 int	 3
  00030	cc		 int	 3
  00031	cc		 int	 3
__ehhandler$?InsertBlock_LoadDialog@CBlocksColumn@@QAE_NAAVCInsertingBlockHorzScaleData@@@Z:
  00032	90		 npad	 1
  00033	90		 npad	 1
  00034	8b 54 24 08	 mov	 edx, DWORD PTR [esp+8]
  00038	8d 42 0c	 lea	 eax, DWORD PTR [edx+12]
  0003b	8b 8a 1c ff ff
	ff		 mov	 ecx, DWORD PTR [edx-228]
  00041	33 c8		 xor	 ecx, eax
  00043	e8 00 00 00 00	 call	 @__security_check_cookie@4
  00048	b8 00 00 00 00	 mov	 eax, OFFSET __ehfuncinfo$?InsertBlock_LoadDialog@CBlocksColumn@@QAE_NAAVCInsertingBlockHorzScaleData@@@Z
  0004d	e9 00 00 00 00	 jmp	 ___CxxFrameHandler3
text$x	ENDS
?InsertBlock_LoadDialog@CBlocksColumn@@QAE_NAAVCInsertingBlockHorzScaleData@@@Z ENDP ; CBlocksColumn::InsertBlock_LoadDialog
; Function compile flags: /Ogtp
; File D:\git\src\IBK\IBK_DRFN\ProjSrc\SrcChartEx\ChartOCX\ChartObject\BlocksColumn.cpp
; File C:\Program Files (x86)\Microsoft Visual Studio\2019\Community\VC\Tools\MSVC\14.29.30133\atlmfc\include\afxcoll.inl
; File D:\git\src\IBK\IBK_DRFN\ProjSrc\SrcChartEx\ChartOCX\ChartObject\BlocksColumn.cpp
;	COMDAT ?GetBlocksColumnAllData@CBlocksColumn@@QBEXAAVCStringList@@@Z
_TEXT	SEGMENT
_p_slBlockColumnData$ = 8				; size = 4
?GetBlocksColumnAllData@CBlocksColumn@@QBEXAAVCStringList@@@Z PROC ; CBlocksColumn::GetBlocksColumnAllData, COMDAT
; _this$ = ecx

; 203  : {

  00000	55		 push	 ebp
  00001	8b ec		 mov	 ebp, esp
  00003	56		 push	 esi
  00004	57		 push	 edi

; 204  : 	p_slBlockColumnData.AddTail( "BlockColumn;\r\n");

  00005	8b 7d 08	 mov	 edi, DWORD PTR _p_slBlockColumnData$[ebp]
  00008	8b f1		 mov	 esi, ecx
  0000a	68 00 00 00 00	 push	 OFFSET ??_C@_0P@GBPFOBGA@BlockColumn?$DL?$AN?6@
  0000f	8b cf		 mov	 ecx, edi
  00011	e8 00 00 00 00	 call	 ?AddTail@CStringList@@QAEPAU__POSITION@@PBD@Z ; CStringList::AddTail

; 205  : 
; 206  : 	POSITION pos = m_BlockList.GetHeadPosition();

  00016	8b 76 14	 mov	 esi, DWORD PTR [esi+20]

; 207  : 	while(pos != NULL)

  00019	85 f6		 test	 esi, esi
  0001b	74 12		 je	 SHORT $LN3@GetBlocksC
  0001d	0f 1f 00	 npad	 3
$LL2@GetBlocksC:

; 211  : 		pBlock->GetBlockAllData( p_slBlockColumnData);

  00020	8b 4e 08	 mov	 ecx, DWORD PTR [esi+8]
; File C:\Program Files (x86)\Microsoft Visual Studio\2019\Community\VC\Tools\MSVC\14.29.30133\atlmfc\include\afxcoll.inl

; 439  : 		rPosition = (POSITION) pNode->pNext;

  00023	8b 36		 mov	 esi, DWORD PTR [esi]
; File D:\git\src\IBK\IBK_DRFN\ProjSrc\SrcChartEx\ChartOCX\ChartObject\BlocksColumn.cpp

; 211  : 		pBlock->GetBlockAllData( p_slBlockColumnData);

  00025	57		 push	 edi
  00026	e8 00 00 00 00	 call	 ?GetBlockAllData@CBlockImp@@QBEXAAVCStringList@@@Z ; CBlockImp::GetBlockAllData
  0002b	85 f6		 test	 esi, esi
  0002d	75 f1		 jne	 SHORT $LL2@GetBlocksC
$LN3@GetBlocksC:

; 212  : 	}
; 213  : 
; 214  : 	p_slBlockColumnData.AddTail( "BlockColumnEnd;\r\n");

  0002f	68 00 00 00 00	 push	 OFFSET ??_C@_0BC@DENBEKI@BlockColumnEnd?$DL?$AN?6@
  00034	8b cf		 mov	 ecx, edi
  00036	e8 00 00 00 00	 call	 ?AddTail@CStringList@@QAEPAU__POSITION@@PBD@Z ; CStringList::AddTail
  0003b	5f		 pop	 edi
  0003c	5e		 pop	 esi

; 215  : }

  0003d	5d		 pop	 ebp
  0003e	c2 04 00	 ret	 4
?GetBlocksColumnAllData@CBlocksColumn@@QBEXAAVCStringList@@@Z ENDP ; CBlocksColumn::GetBlocksColumnAllData
_TEXT	ENDS
; Function compile flags: /Ogtp
; File D:\git\src\IBK\IBK_DRFN\ProjSrc\SrcChartEx\ChartOCX\ChartObject\BlocksColumn.cpp
; File C:\Program Files (x86)\Windows Kits\10\Include\10.0.22000.0\ucrt\string.h
; File D:\git\src\IBK\IBK_DRFN\ProjSrc\SrcChartEx\ChartOCX\ChartObject\BlocksColumn.cpp
; File C:\Program Files (x86)\Windows Kits\10\Include\10.0.22000.0\ucrt\string.h
; File D:\git\src\IBK\IBK_DRFN\ProjSrc\SrcChartEx\ChartOCX\ChartObject\BlocksColumn.cpp
; File C:\Program Files (x86)\Windows Kits\10\Include\10.0.22000.0\ucrt\string.h
; File D:\git\src\IBK\IBK_DRFN\ProjSrc\SrcChartEx\ChartOCX\ChartObject\BlocksColumn.cpp
; File C:\Program Files (x86)\Windows Kits\10\Include\10.0.22000.0\ucrt\string.h
; File D:\git\src\IBK\IBK_DRFN\ProjSrc\SrcChartEx\ChartOCX\ChartObject\BlocksColumn.cpp
; File C:\Program Files (x86)\Microsoft Visual Studio\2019\Community\VC\Tools\MSVC\14.29.30133\atlmfc\include\afxcoll.inl
; File D:\git\src\IBK\IBK_DRFN\ProjSrc\SrcChartEx\ChartOCX\ChartObject\BlocksColumn.cpp
; File C:\Program Files (x86)\Microsoft Visual Studio\2019\Community\VC\Tools\MSVC\14.29.30133\atlmfc\include\afxcoll.inl
; File D:\git\src\IBK\IBK_DRFN\ProjSrc\SrcChartEx\ChartOCX\ChartObject\BlocksColumn.cpp
; File C:\Program Files (x86)\Windows Kits\10\Include\10.0.22000.0\ucrt\string.h
; File D:\git\src\IBK\IBK_DRFN\ProjSrc\SrcChartEx\ChartOCX\ChartObject\BlocksColumn.cpp
; File C:\Program Files (x86)\Windows Kits\10\Include\10.0.22000.0\ucrt\string.h
; File D:\git\src\IBK\IBK_DRFN\ProjSrc\SrcChartEx\ChartOCX\ChartObject\BlocksColumn.cpp
; File C:\Program Files (x86)\Windows Kits\10\Include\10.0.22000.0\ucrt\string.h
; File D:\git\src\IBK\IBK_DRFN\ProjSrc\SrcChartEx\ChartOCX\ChartObject\BlocksColumn.cpp
; File C:\Program Files (x86)\Windows Kits\10\Include\10.0.22000.0\ucrt\string.h
; File D:\git\src\IBK\IBK_DRFN\ProjSrc\SrcChartEx\ChartOCX\ChartObject\BlocksColumn.cpp
; File C:\Program Files (x86)\Windows Kits\10\Include\10.0.22000.0\ucrt\string.h
; File D:\git\src\IBK\IBK_DRFN\ProjSrc\SrcChartEx\ChartOCX\ChartObject\BlocksColumn.cpp
; File C:\Program Files (x86)\Microsoft Visual Studio\2019\Community\VC\Tools\MSVC\14.29.30133\atlmfc\include\afxcoll.inl
; File D:\git\src\IBK\IBK_DRFN\ProjSrc\SrcChartEx\ChartOCX\ChartObject\BlocksColumn.cpp
;	COMDAT ?BuildGraphsAndScales@CBlocksColumn@@QAEXPAXPAD@Z
_TEXT	SEGMENT
_pPacketRQ$ = 8						; size = 4
_p_szBlockColumnData$ = 12				; size = 4
?BuildGraphsAndScales@CBlocksColumn@@QAEXPAXPAD@Z PROC	; CBlocksColumn::BuildGraphsAndScales, COMDAT
; _this$ = ecx

; 165  : {

  00000	55		 push	 ebp
  00001	8b ec		 mov	 ebp, esp

; 166  : 	if( !p_szBlockColumnData) return;

  00003	8b 45 0c	 mov	 eax, DWORD PTR _p_szBlockColumnData$[ebp]
  00006	53		 push	 ebx
  00007	8b d9		 mov	 ebx, ecx
  00009	85 c0		 test	 eax, eax
  0000b	0f 84 9f 00 00
	00		 je	 $LN3@BuildGraph

; 167  : 	if( !*p_szBlockColumnData) return;

  00011	80 38 00	 cmp	 BYTE PTR [eax], 0
  00014	0f 84 96 00 00
	00		 je	 $LN3@BuildGraph
; File C:\Program Files (x86)\Windows Kits\10\Include\10.0.22000.0\ucrt\string.h

; 520  :         return const_cast<char*>(strstr(static_cast<char const*>(_String), _SubString));

  0001a	56		 push	 esi
  0001b	68 00 00 00 00	 push	 OFFSET ??_C@_08KGLHHGPJ@Block?$DL?$AN?6@
  00020	50		 push	 eax
  00021	e8 00 00 00 00	 call	 _strstr
; File D:\git\src\IBK\IBK_DRFN\ProjSrc\SrcChartEx\ChartOCX\ChartObject\BlocksColumn.cpp

; 169  : 	char *szBlock = strstr( p_szBlockColumnData, "Block;\r\n");

  00026	8b f0		 mov	 esi, eax
; File C:\Program Files (x86)\Windows Kits\10\Include\10.0.22000.0\ucrt\string.h

; 520  :         return const_cast<char*>(strstr(static_cast<char const*>(_String), _SubString));

  00028	83 c4 08	 add	 esp, 8
; File D:\git\src\IBK\IBK_DRFN\ProjSrc\SrcChartEx\ChartOCX\ChartObject\BlocksColumn.cpp

; 170  : 	if( !szBlock) return;

  0002b	85 f6		 test	 esi, esi
  0002d	0f 84 7c 00 00
	00		 je	 $LN34@BuildGraph

; 171  : 	szBlock += 8;												// "Block;\r\n"

  00033	57		 push	 edi
  00034	83 c6 08	 add	 esi, 8
; File C:\Program Files (x86)\Windows Kits\10\Include\10.0.22000.0\ucrt\string.h

; 520  :         return const_cast<char*>(strstr(static_cast<char const*>(_String), _SubString));

  00037	68 00 00 00 00	 push	 OFFSET ??_C@_0M@FHFNKLHB@BlockEnd?$DL?$AN?6@
  0003c	56		 push	 esi
  0003d	e8 00 00 00 00	 call	 _strstr
; File D:\git\src\IBK\IBK_DRFN\ProjSrc\SrcChartEx\ChartOCX\ChartObject\BlocksColumn.cpp

; 172  : 	char *szNextBlock = strstr( szBlock, "BlockEnd;\r\n");

  00042	8b f8		 mov	 edi, eax
; File C:\Program Files (x86)\Windows Kits\10\Include\10.0.22000.0\ucrt\string.h

; 520  :         return const_cast<char*>(strstr(static_cast<char const*>(_String), _SubString));

  00044	83 c4 08	 add	 esp, 8
; File D:\git\src\IBK\IBK_DRFN\ProjSrc\SrcChartEx\ChartOCX\ChartObject\BlocksColumn.cpp

; 173  : 	if( szNextBlock) *szNextBlock = '\0';

  00047	85 ff		 test	 edi, edi
  00049	74 03		 je	 SHORT $LN7@BuildGraph
  0004b	c6 07 00	 mov	 BYTE PTR [edi], 0
$LN7@BuildGraph:

; 174  : 
; 175  : 	CBlockImp* pBlock = NULL;
; 176  : 	POSITION posBlock = m_BlockList.GetHeadPosition();

  0004e	8b 5b 14	 mov	 ebx, DWORD PTR [ebx+20]

; 177  : 	while( posBlock && szBlock)

  00051	85 db		 test	 ebx, ebx
  00053	74 59		 je	 SHORT $LN35@BuildGraph
$LL2@BuildGraph:
  00055	85 f6		 test	 esi, esi
  00057	74 55		 je	 SHORT $LN35@BuildGraph
; File C:\Program Files (x86)\Microsoft Visual Studio\2019\Community\VC\Tools\MSVC\14.29.30133\atlmfc\include\afxcoll.inl

; 428  : 	{ CNode* pNode = (CNode*) rPosition;

  00059	8b cb		 mov	 ecx, ebx

; 429  : 		ASSERT(AfxIsValidAddress(pNode, sizeof(CNode)));
; 430  : 		if( pNode == NULL )

  0005b	85 db		 test	 ebx, ebx
  0005d	74 56		 je	 SHORT $LN31@BuildGraph
; File D:\git\src\IBK\IBK_DRFN\ProjSrc\SrcChartEx\ChartOCX\ChartObject\BlocksColumn.cpp

; 179  : 		pBlock = m_BlockList.GetNext( posBlock);

  0005f	8b 49 08	 mov	 ecx, DWORD PTR [ecx+8]
; File C:\Program Files (x86)\Microsoft Visual Studio\2019\Community\VC\Tools\MSVC\14.29.30133\atlmfc\include\afxcoll.inl

; 432  : 		rPosition = (POSITION) pNode->pNext;

  00062	8b 1b		 mov	 ebx, DWORD PTR [ebx]
; File D:\git\src\IBK\IBK_DRFN\ProjSrc\SrcChartEx\ChartOCX\ChartObject\BlocksColumn.cpp

; 180  : 		if( !pBlock) continue;

  00064	85 c9		 test	 ecx, ecx
  00066	74 42		 je	 SHORT $LN10@BuildGraph

; 181  : 
; 182  : 		pBlock->BuildGraphsAndScales(pPacketRQ, szBlock);

  00068	56		 push	 esi
  00069	ff 75 08	 push	 DWORD PTR _pPacketRQ$[ebp]
  0006c	e8 00 00 00 00	 call	 ?BuildGraphsAndScales@CBlockImp@@QAEXPAXPAD@Z ; CBlockImp::BuildGraphsAndScales

; 183  : 
; 184  : 		if( szNextBlock)

  00071	85 ff		 test	 edi, edi
  00073	74 33		 je	 SHORT $LN9@BuildGraph
; File C:\Program Files (x86)\Windows Kits\10\Include\10.0.22000.0\ucrt\string.h

; 520  :         return const_cast<char*>(strstr(static_cast<char const*>(_String), _SubString));

  00075	68 00 00 00 00	 push	 OFFSET ??_C@_08KGLHHGPJ@Block?$DL?$AN?6@
  0007a	57		 push	 edi
; File D:\git\src\IBK\IBK_DRFN\ProjSrc\SrcChartEx\ChartOCX\ChartObject\BlocksColumn.cpp

; 186  : 			*szNextBlock = 'B';

  0007b	c6 07 42	 mov	 BYTE PTR [edi], 66	; 00000042H
; File C:\Program Files (x86)\Windows Kits\10\Include\10.0.22000.0\ucrt\string.h

; 520  :         return const_cast<char*>(strstr(static_cast<char const*>(_String), _SubString));

  0007e	e8 00 00 00 00	 call	 _strstr
; File D:\git\src\IBK\IBK_DRFN\ProjSrc\SrcChartEx\ChartOCX\ChartObject\BlocksColumn.cpp

; 188  : 			szBlock = strstr( szNextBlock, "Block;\r\n");

  00083	8b f0		 mov	 esi, eax
; File C:\Program Files (x86)\Windows Kits\10\Include\10.0.22000.0\ucrt\string.h

; 520  :         return const_cast<char*>(strstr(static_cast<char const*>(_String), _SubString));

  00085	83 c4 08	 add	 esp, 8
; File D:\git\src\IBK\IBK_DRFN\ProjSrc\SrcChartEx\ChartOCX\ChartObject\BlocksColumn.cpp

; 189  : 			if( szBlock)

  00088	85 f6		 test	 esi, esi
  0008a	74 1e		 je	 SHORT $LN10@BuildGraph

; 190  : 			{
; 191  : 				szBlock += 8;		// "Block;\r\n"

  0008c	83 c6 08	 add	 esi, 8
; File C:\Program Files (x86)\Windows Kits\10\Include\10.0.22000.0\ucrt\string.h

; 520  :         return const_cast<char*>(strstr(static_cast<char const*>(_String), _SubString));

  0008f	68 00 00 00 00	 push	 OFFSET ??_C@_0M@FHFNKLHB@BlockEnd?$DL?$AN?6@
  00094	56		 push	 esi
  00095	e8 00 00 00 00	 call	 _strstr
; File D:\git\src\IBK\IBK_DRFN\ProjSrc\SrcChartEx\ChartOCX\ChartObject\BlocksColumn.cpp

; 193  : 				szNextBlock = strstr( szBlock, "BlockEnd;\r\n");

  0009a	8b f8		 mov	 edi, eax
; File C:\Program Files (x86)\Windows Kits\10\Include\10.0.22000.0\ucrt\string.h

; 520  :         return const_cast<char*>(strstr(static_cast<char const*>(_String), _SubString));

  0009c	83 c4 08	 add	 esp, 8
; File D:\git\src\IBK\IBK_DRFN\ProjSrc\SrcChartEx\ChartOCX\ChartObject\BlocksColumn.cpp

; 194  : 				if( szNextBlock) *szNextBlock = '\0';

  0009f	85 ff		 test	 edi, edi
  000a1	74 07		 je	 SHORT $LN10@BuildGraph
  000a3	c6 07 00	 mov	 BYTE PTR [edi], 0

; 195  : 			}
; 196  : 		}

  000a6	eb 02		 jmp	 SHORT $LN10@BuildGraph
$LN9@BuildGraph:

; 197  : 		else szBlock = NULL;

  000a8	33 f6		 xor	 esi, esi
$LN10@BuildGraph:

; 177  : 	while( posBlock && szBlock)

  000aa	85 db		 test	 ebx, ebx
  000ac	75 a7		 jne	 SHORT $LL2@BuildGraph
$LN35@BuildGraph:
  000ae	5f		 pop	 edi
$LN34@BuildGraph:
  000af	5e		 pop	 esi
$LN3@BuildGraph:
  000b0	5b		 pop	 ebx

; 199  : }

  000b1	5d		 pop	 ebp
  000b2	c2 08 00	 ret	 8
$LN31@BuildGraph:
; File C:\Program Files (x86)\Microsoft Visual Studio\2019\Community\VC\Tools\MSVC\14.29.30133\atlmfc\include\afxcoll.inl

; 431  : 			AfxThrowInvalidArgException();

  000b5	e8 00 00 00 00	 call	 ?AfxThrowInvalidArgException@@YGXXZ ; AfxThrowInvalidArgException
$LN36@BuildGraph:
  000ba	cc		 int	 3
?BuildGraphsAndScales@CBlocksColumn@@QAEXPAXPAD@Z ENDP	; CBlocksColumn::BuildGraphsAndScales
_TEXT	ENDS
; Function compile flags: /Ogtp
; File D:\git\src\IBK\IBK_DRFN\ProjSrc\SrcChartEx\ChartOCX\ChartObject\BlocksColumn.cpp
; File C:\Program Files (x86)\Windows Kits\10\Include\10.0.22000.0\ucrt\string.h
; File D:\git\src\IBK\IBK_DRFN\ProjSrc\SrcChartEx\ChartOCX\ChartObject\BlocksColumn.cpp
; File C:\Program Files (x86)\Windows Kits\10\Include\10.0.22000.0\ucrt\string.h
; File D:\git\src\IBK\IBK_DRFN\ProjSrc\SrcChartEx\ChartOCX\ChartObject\BlocksColumn.cpp
; File C:\Program Files (x86)\Windows Kits\10\Include\10.0.22000.0\ucrt\string.h
; File D:\git\src\IBK\IBK_DRFN\ProjSrc\SrcChartEx\ChartOCX\ChartObject\BlocksColumn.cpp
; File C:\Program Files (x86)\Windows Kits\10\Include\10.0.22000.0\ucrt\string.h
; File D:\git\src\IBK\IBK_DRFN\ProjSrc\SrcChartEx\ChartOCX\ChartObject\BlocksColumn.cpp
; File C:\Program Files (x86)\Microsoft Visual Studio\2019\Community\VC\Tools\MSVC\14.29.30133\atlmfc\include\afxcoll.inl
; File D:\git\src\IBK\IBK_DRFN\ProjSrc\SrcChartEx\ChartOCX\ChartObject\BlocksColumn.cpp
; File C:\Program Files (x86)\Microsoft Visual Studio\2019\Community\VC\Tools\MSVC\14.29.30133\atlmfc\include\afxcoll.inl
; File D:\git\src\IBK\IBK_DRFN\ProjSrc\SrcChartEx\ChartOCX\ChartObject\BlocksColumn.cpp
; File C:\Program Files (x86)\Windows Kits\10\Include\10.0.22000.0\ucrt\string.h
; File D:\git\src\IBK\IBK_DRFN\ProjSrc\SrcChartEx\ChartOCX\ChartObject\BlocksColumn.cpp
; File C:\Program Files (x86)\Windows Kits\10\Include\10.0.22000.0\ucrt\string.h
; File D:\git\src\IBK\IBK_DRFN\ProjSrc\SrcChartEx\ChartOCX\ChartObject\BlocksColumn.cpp
; File C:\Program Files (x86)\Windows Kits\10\Include\10.0.22000.0\ucrt\string.h
; File D:\git\src\IBK\IBK_DRFN\ProjSrc\SrcChartEx\ChartOCX\ChartObject\BlocksColumn.cpp
; File C:\Program Files (x86)\Windows Kits\10\Include\10.0.22000.0\ucrt\string.h
; File D:\git\src\IBK\IBK_DRFN\ProjSrc\SrcChartEx\ChartOCX\ChartObject\BlocksColumn.cpp
; File C:\Program Files (x86)\Windows Kits\10\Include\10.0.22000.0\ucrt\string.h
; File D:\git\src\IBK\IBK_DRFN\ProjSrc\SrcChartEx\ChartOCX\ChartObject\BlocksColumn.cpp
; File C:\Program Files (x86)\Microsoft Visual Studio\2019\Community\VC\Tools\MSVC\14.29.30133\atlmfc\include\afxcoll.inl
; File D:\git\src\IBK\IBK_DRFN\ProjSrc\SrcChartEx\ChartOCX\ChartObject\BlocksColumn.cpp
; File C:\Program Files (x86)\Microsoft Visual Studio\2019\Community\VC\Tools\MSVC\14.29.30133\atlmfc\include\afxcoll.inl
; File D:\git\src\IBK\IBK_DRFN\ProjSrc\SrcChartEx\ChartOCX\ChartObject\BlocksColumn.cpp
; File C:\Program Files (x86)\Microsoft Visual Studio\2019\Community\VC\Tools\MSVC\14.29.30133\atlmfc\include\afxcoll.inl
; File D:\git\src\IBK\IBK_DRFN\ProjSrc\SrcChartEx\ChartOCX\ChartObject\BlocksColumn.cpp
;	COMDAT ?BuildGraphsAndScales@CBlocksColumn@@QAEXPADAAH@Z
_TEXT	SEGMENT
_this$1$ = -4						; size = 4
_p_szBlockColumnData$ = 8				; size = 4
_bCalc$ = 12						; size = 4
?BuildGraphsAndScales@CBlocksColumn@@QAEXPADAAH@Z PROC	; CBlocksColumn::BuildGraphsAndScales, COMDAT
; _this$ = ecx

; 113  : {

  00000	55		 push	 ebp
  00001	8b ec		 mov	 ebp, esp
  00003	51		 push	 ecx

; 114  : 	if( !p_szBlockColumnData) return;

  00004	8b 45 08	 mov	 eax, DWORD PTR _p_szBlockColumnData$[ebp]
  00007	56		 push	 esi
  00008	8b f1		 mov	 esi, ecx
  0000a	89 75 fc	 mov	 DWORD PTR _this$1$[ebp], esi
  0000d	85 c0		 test	 eax, eax
  0000f	0f 84 aa 00 00
	00		 je	 $LN5@BuildGraph

; 115  : 	if( !*p_szBlockColumnData) return;

  00015	80 38 00	 cmp	 BYTE PTR [eax], 0
  00018	0f 84 a1 00 00
	00		 je	 $LN5@BuildGraph
; File C:\Program Files (x86)\Windows Kits\10\Include\10.0.22000.0\ucrt\string.h

; 520  :         return const_cast<char*>(strstr(static_cast<char const*>(_String), _SubString));

  0001e	57		 push	 edi
  0001f	68 00 00 00 00	 push	 OFFSET ??_C@_08KGLHHGPJ@Block?$DL?$AN?6@
  00024	50		 push	 eax
  00025	e8 00 00 00 00	 call	 _strstr
; File D:\git\src\IBK\IBK_DRFN\ProjSrc\SrcChartEx\ChartOCX\ChartObject\BlocksColumn.cpp

; 117  : 	char *szBlock = strstr( p_szBlockColumnData, "Block;\r\n");

  0002a	8b f8		 mov	 edi, eax
; File C:\Program Files (x86)\Windows Kits\10\Include\10.0.22000.0\ucrt\string.h

; 520  :         return const_cast<char*>(strstr(static_cast<char const*>(_String), _SubString));

  0002c	83 c4 08	 add	 esp, 8
; File D:\git\src\IBK\IBK_DRFN\ProjSrc\SrcChartEx\ChartOCX\ChartObject\BlocksColumn.cpp

; 118  : 	if( !szBlock) return;

  0002f	85 ff		 test	 edi, edi
  00031	0f 84 87 00 00
	00		 je	 $LN59@BuildGraph

; 119  : 	szBlock += 8;												// "Block;\r\n"

  00037	53		 push	 ebx
  00038	83 c7 08	 add	 edi, 8
; File C:\Program Files (x86)\Windows Kits\10\Include\10.0.22000.0\ucrt\string.h

; 520  :         return const_cast<char*>(strstr(static_cast<char const*>(_String), _SubString));

  0003b	68 00 00 00 00	 push	 OFFSET ??_C@_0M@FHFNKLHB@BlockEnd?$DL?$AN?6@
  00040	57		 push	 edi
  00041	e8 00 00 00 00	 call	 _strstr
; File D:\git\src\IBK\IBK_DRFN\ProjSrc\SrcChartEx\ChartOCX\ChartObject\BlocksColumn.cpp

; 120  : 	char *szNextBlock = strstr( szBlock, "BlockEnd;\r\n");

  00046	8b d8		 mov	 ebx, eax
; File C:\Program Files (x86)\Windows Kits\10\Include\10.0.22000.0\ucrt\string.h

; 520  :         return const_cast<char*>(strstr(static_cast<char const*>(_String), _SubString));

  00048	83 c4 08	 add	 esp, 8
; File D:\git\src\IBK\IBK_DRFN\ProjSrc\SrcChartEx\ChartOCX\ChartObject\BlocksColumn.cpp

; 121  : 	if( szNextBlock) *szNextBlock = '\0';

  0004b	85 db		 test	 ebx, ebx
  0004d	74 03		 je	 SHORT $LN9@BuildGraph
  0004f	c6 03 00	 mov	 BYTE PTR [ebx], 0
$LN9@BuildGraph:

; 122  : 
; 123  : 	CBlockImp* pBlock = NULL;
; 124  : 	POSITION posBlock = m_BlockList.GetHeadPosition();

  00052	8b 76 14	 mov	 esi, DWORD PTR [esi+20]

; 125  : 	while( posBlock && szBlock)

  00055	85 f6		 test	 esi, esi
  00057	74 64		 je	 SHORT $LN60@BuildGraph
  00059	0f 1f 80 00 00
	00 00		 npad	 7
$LL2@BuildGraph:
  00060	85 ff		 test	 edi, edi
  00062	74 62		 je	 SHORT $LL4@BuildGraph
; File C:\Program Files (x86)\Microsoft Visual Studio\2019\Community\VC\Tools\MSVC\14.29.30133\atlmfc\include\afxcoll.inl

; 428  : 	{ CNode* pNode = (CNode*) rPosition;

  00064	8b ce		 mov	 ecx, esi

; 429  : 		ASSERT(AfxIsValidAddress(pNode, sizeof(CNode)));
; 430  : 		if( pNode == NULL )

  00066	85 f6		 test	 esi, esi
  00068	0f 84 7f 00 00
	00		 je	 $LN44@BuildGraph
; File D:\git\src\IBK\IBK_DRFN\ProjSrc\SrcChartEx\ChartOCX\ChartObject\BlocksColumn.cpp

; 127  : 		pBlock = m_BlockList.GetNext( posBlock);

  0006e	8b 49 08	 mov	 ecx, DWORD PTR [ecx+8]
; File C:\Program Files (x86)\Microsoft Visual Studio\2019\Community\VC\Tools\MSVC\14.29.30133\atlmfc\include\afxcoll.inl

; 432  : 		rPosition = (POSITION) pNode->pNext;

  00071	8b 36		 mov	 esi, DWORD PTR [esi]
; File D:\git\src\IBK\IBK_DRFN\ProjSrc\SrcChartEx\ChartOCX\ChartObject\BlocksColumn.cpp

; 128  : 		if( !pBlock) continue;

  00073	85 c9		 test	 ecx, ecx
  00075	74 42		 je	 SHORT $LN12@BuildGraph

; 129  : 
; 130  : 		//     : xScaleManager - ojtaso (20070701)
; 131  : 		pBlock->BuildGraphsAndScales( szBlock, bCalc);

  00077	ff 75 0c	 push	 DWORD PTR _bCalc$[ebp]
  0007a	57		 push	 edi
  0007b	e8 00 00 00 00	 call	 ?BuildGraphsAndScales@CBlockImp@@QAEXPADAAH@Z ; CBlockImp::BuildGraphsAndScales

; 132  : 
; 133  : 		if( szNextBlock)

  00080	85 db		 test	 ebx, ebx
  00082	74 33		 je	 SHORT $LN11@BuildGraph
; File C:\Program Files (x86)\Windows Kits\10\Include\10.0.22000.0\ucrt\string.h

; 520  :         return const_cast<char*>(strstr(static_cast<char const*>(_String), _SubString));

  00084	68 00 00 00 00	 push	 OFFSET ??_C@_08KGLHHGPJ@Block?$DL?$AN?6@
  00089	53		 push	 ebx
; File D:\git\src\IBK\IBK_DRFN\ProjSrc\SrcChartEx\ChartOCX\ChartObject\BlocksColumn.cpp

; 135  : 			*szNextBlock = 'B';

  0008a	c6 03 42	 mov	 BYTE PTR [ebx], 66	; 00000042H
; File C:\Program Files (x86)\Windows Kits\10\Include\10.0.22000.0\ucrt\string.h

; 520  :         return const_cast<char*>(strstr(static_cast<char const*>(_String), _SubString));

  0008d	e8 00 00 00 00	 call	 _strstr
; File D:\git\src\IBK\IBK_DRFN\ProjSrc\SrcChartEx\ChartOCX\ChartObject\BlocksColumn.cpp

; 137  : 			szBlock = strstr( szNextBlock, "Block;\r\n");

  00092	8b f8		 mov	 edi, eax
; File C:\Program Files (x86)\Windows Kits\10\Include\10.0.22000.0\ucrt\string.h

; 520  :         return const_cast<char*>(strstr(static_cast<char const*>(_String), _SubString));

  00094	83 c4 08	 add	 esp, 8
; File D:\git\src\IBK\IBK_DRFN\ProjSrc\SrcChartEx\ChartOCX\ChartObject\BlocksColumn.cpp

; 138  : 			if( szBlock)

  00097	85 ff		 test	 edi, edi
  00099	74 1e		 je	 SHORT $LN12@BuildGraph

; 139  : 			{
; 140  : 				szBlock += 8;		// "Block;\r\n"

  0009b	83 c7 08	 add	 edi, 8
; File C:\Program Files (x86)\Windows Kits\10\Include\10.0.22000.0\ucrt\string.h

; 520  :         return const_cast<char*>(strstr(static_cast<char const*>(_String), _SubString));

  0009e	68 00 00 00 00	 push	 OFFSET ??_C@_0M@FHFNKLHB@BlockEnd?$DL?$AN?6@
  000a3	57		 push	 edi
  000a4	e8 00 00 00 00	 call	 _strstr
; File D:\git\src\IBK\IBK_DRFN\ProjSrc\SrcChartEx\ChartOCX\ChartObject\BlocksColumn.cpp

; 142  : 				szNextBlock = strstr( szBlock, "BlockEnd;\r\n");

  000a9	8b d8		 mov	 ebx, eax
; File C:\Program Files (x86)\Windows Kits\10\Include\10.0.22000.0\ucrt\string.h

; 520  :         return const_cast<char*>(strstr(static_cast<char const*>(_String), _SubString));

  000ab	83 c4 08	 add	 esp, 8
; File D:\git\src\IBK\IBK_DRFN\ProjSrc\SrcChartEx\ChartOCX\ChartObject\BlocksColumn.cpp

; 143  : 				if( szNextBlock) *szNextBlock = '\0';

  000ae	85 db		 test	 ebx, ebx
  000b0	74 07		 je	 SHORT $LN12@BuildGraph
  000b2	c6 03 00	 mov	 BYTE PTR [ebx], 0

; 144  : 			}
; 145  : 		}

  000b5	eb 02		 jmp	 SHORT $LN12@BuildGraph
$LN11@BuildGraph:

; 146  : 		else szBlock = NULL;

  000b7	33 ff		 xor	 edi, edi
$LN12@BuildGraph:

; 125  : 	while( posBlock && szBlock)

  000b9	85 f6		 test	 esi, esi
  000bb	75 a3		 jne	 SHORT $LL2@BuildGraph
$LN60@BuildGraph:
  000bd	5b		 pop	 ebx
$LN59@BuildGraph:
  000be	5f		 pop	 edi
$LN5@BuildGraph:
  000bf	5e		 pop	 esi

; 161  : }

  000c0	8b e5		 mov	 esp, ebp
  000c2	5d		 pop	 ebp
  000c3	c2 08 00	 ret	 8
$LL4@BuildGraph:
; File C:\Program Files (x86)\Microsoft Visual Studio\2019\Community\VC\Tools\MSVC\14.29.30133\atlmfc\include\afxcoll.inl

; 428  : 	{ CNode* pNode = (CNode*) rPosition;

  000c6	8b c6		 mov	 eax, esi

; 429  : 		ASSERT(AfxIsValidAddress(pNode, sizeof(CNode)));
; 430  : 		if( pNode == NULL )

  000c8	85 f6		 test	 esi, esi
  000ca	74 21		 je	 SHORT $LN44@BuildGraph
; File D:\git\src\IBK\IBK_DRFN\ProjSrc\SrcChartEx\ChartOCX\ChartObject\BlocksColumn.cpp

; 154  : 			pBlock = m_BlockList.GetNext( posBlock);

  000cc	8b 40 08	 mov	 eax, DWORD PTR [eax+8]
; File C:\Program Files (x86)\Microsoft Visual Studio\2019\Community\VC\Tools\MSVC\14.29.30133\atlmfc\include\afxcoll.inl

; 432  : 		rPosition = (POSITION) pNode->pNext;

  000cf	8b 36		 mov	 esi, DWORD PTR [esi]
; File D:\git\src\IBK\IBK_DRFN\ProjSrc\SrcChartEx\ChartOCX\ChartObject\BlocksColumn.cpp

; 155  : 			if( !pBlock) continue;

  000d1	85 c0		 test	 eax, eax
  000d3	74 0b		 je	 SHORT $LN45@BuildGraph

; 156  : 
; 157  : 			DeleteBlock(pBlock, FALSE);

  000d5	8b 4d fc	 mov	 ecx, DWORD PTR _this$1$[ebp]
  000d8	6a 00		 push	 0
  000da	50		 push	 eax
  000db	e8 00 00 00 00	 call	 ?DeleteBlock@CBlocksColumn@@QAE_NPAVCBlockImp@@_N@Z ; CBlocksColumn::DeleteBlock
$LN45@BuildGraph:

; 147  : 	}
; 148  : 	//>> JS.Kim_20100929  solomon.. PAIR RQ   ..
; 149  : 	//  Block   Block .
; 150  : 	if( posBlock && !szBlock )
; 151  : 	{
; 152  : 		while( posBlock )

  000e0	85 f6		 test	 esi, esi
  000e2	75 e2		 jne	 SHORT $LL4@BuildGraph
  000e4	5b		 pop	 ebx
  000e5	5f		 pop	 edi
  000e6	5e		 pop	 esi

; 161  : }

  000e7	8b e5		 mov	 esp, ebp
  000e9	5d		 pop	 ebp
  000ea	c2 08 00	 ret	 8
$LN44@BuildGraph:
; File C:\Program Files (x86)\Microsoft Visual Studio\2019\Community\VC\Tools\MSVC\14.29.30133\atlmfc\include\afxcoll.inl

; 431  : 			AfxThrowInvalidArgException();

  000ed	e8 00 00 00 00	 call	 ?AfxThrowInvalidArgException@@YGXXZ ; AfxThrowInvalidArgException
$LN61@BuildGraph:
  000f2	cc		 int	 3
?BuildGraphsAndScales@CBlocksColumn@@QAEXPADAAH@Z ENDP	; CBlocksColumn::BuildGraphsAndScales
_TEXT	ENDS
; Function compile flags: /Ogtp
; File D:\git\src\IBK\IBK_DRFN\ProjSrc\SrcChartEx\ChartOCX\ChartObject\BlocksColumn.cpp
; File C:\Program Files (x86)\Microsoft Visual Studio\2019\Community\VC\Tools\MSVC\14.29.30133\atlmfc\include\afxcoll.inl
; File D:\git\src\IBK\IBK_DRFN\ProjSrc\SrcChartEx\ChartOCX\ChartObject\BlocksColumn.cpp
; File C:\Program Files (x86)\Microsoft Visual Studio\2019\Community\VC\Tools\MSVC\14.29.30133\atlmfc\include\afxtempl.h
; File C:\Program Files (x86)\Microsoft Visual Studio\2019\Community\VC\Tools\MSVC\14.29.30133\atlmfc\include\afxcoll.inl
; File D:\git\src\IBK\IBK_DRFN\ProjSrc\SrcChartEx\ChartOCX\ChartObject\BlocksColumn.cpp
; File C:\Program Files (x86)\Microsoft Visual Studio\2019\Community\VC\Tools\MSVC\14.29.30133\atlmfc\include\afxtempl.h
; File D:\git\src\IBK\IBK_DRFN\ProjSrc\SrcChartEx\ChartOCX\ChartObject\BlocksColumn.cpp
;	COMDAT ?MakeBlocksColumn@CBlocksColumn@@QAEXH@Z
_TEXT	SEGMENT
_nRowCount$ = 8						; size = 4
?MakeBlocksColumn@CBlocksColumn@@QAEXH@Z PROC		; CBlocksColumn::MakeBlocksColumn, COMDAT
; _this$ = ecx

; 104  : {

  00000	55		 push	 ebp
  00001	8b ec		 mov	 ebp, esp
  00003	56		 push	 esi
  00004	8b f1		 mov	 esi, ecx
  00006	57		 push	 edi
; File C:\Program Files (x86)\Microsoft Visual Studio\2019\Community\VC\Tools\MSVC\14.29.30133\atlmfc\include\afxcoll.inl

; 410  : 	{ return m_nCount == 0; }

  00007	83 7e 1c 00	 cmp	 DWORD PTR [esi+28], 0
; File D:\git\src\IBK\IBK_DRFN\ProjSrc\SrcChartEx\ChartOCX\ChartObject\BlocksColumn.cpp

; 521  : 	while( !m_BlockList.IsEmpty())

  0000b	74 1f		 je	 SHORT $LN29@MakeBlocks
  0000d	0f 1f 00	 npad	 3
$LL7@MakeBlocks:

; 522  : 	{
; 523  : 		CBlockImp::Delete( m_BlockList.GetHead());

  00010	8b 46 14	 mov	 eax, DWORD PTR [esi+20]
  00013	ff 70 08	 push	 DWORD PTR [eax+8]
  00016	e8 00 00 00 00	 call	 ?Delete@CBlockImp@@SAXPAV1@@Z ; CBlockImp::Delete
  0001b	83 c4 04	 add	 esp, 4
; File C:\Program Files (x86)\Microsoft Visual Studio\2019\Community\VC\Tools\MSVC\14.29.30133\atlmfc\include\afxtempl.h

; 1890 : 		{ return (TYPE)BASE_CLASS::RemoveHead(); }

  0001e	8d 4e 10	 lea	 ecx, DWORD PTR [esi+16]
  00021	e8 00 00 00 00	 call	 ?RemoveHead@CObList@@QAEPAVCObject@@XZ ; CObList::RemoveHead
; File C:\Program Files (x86)\Microsoft Visual Studio\2019\Community\VC\Tools\MSVC\14.29.30133\atlmfc\include\afxcoll.inl

; 410  : 	{ return m_nCount == 0; }

  00026	83 7e 1c 00	 cmp	 DWORD PTR [esi+28], 0
; File D:\git\src\IBK\IBK_DRFN\ProjSrc\SrcChartEx\ChartOCX\ChartObject\BlocksColumn.cpp

; 521  : 	while( !m_BlockList.IsEmpty())

  0002a	75 e4		 jne	 SHORT $LL7@MakeBlocks
$LN29@MakeBlocks:

; 107  : 	for(int nRow = 0; nRow < nRowCount; nRow++) m_BlockList.AddTail( CBlockImp::Make( GetMainBlockBaseData(), this));

  0002c	8b 7d 08	 mov	 edi, DWORD PTR _nRowCount$[ebp]
  0002f	85 ff		 test	 edi, edi
  00031	7e 2a		 jle	 SHORT $LN3@MakeBlocks
  00033	53		 push	 ebx
$LL4@MakeBlocks:

; 50   : 	if(m_pMain == NULL)

  00034	8b 4e 04	 mov	 ecx, DWORD PTR [esi+4]
  00037	85 c9		 test	 ecx, ecx
  00039	75 04		 jne	 SHORT $LN19@MakeBlocks

; 51   : 		return NULL;

  0003b	33 c0		 xor	 eax, eax
  0003d	eb 05		 jmp	 SHORT $LN18@MakeBlocks
$LN19@MakeBlocks:

; 52   : 
; 53   : 	return m_pMain->GetMainBlockBaseData();

  0003f	e8 00 00 00 00	 call	 ?GetMainBlockBaseData@CMainBlockImp@@QBEPAVCMainBlockBaseData@@XZ ; CMainBlockImp::GetMainBlockBaseData
$LN18@MakeBlocks:

; 107  : 	for(int nRow = 0; nRow < nRowCount; nRow++) m_BlockList.AddTail( CBlockImp::Make( GetMainBlockBaseData(), this));

  00044	56		 push	 esi
  00045	50		 push	 eax
  00046	e8 00 00 00 00	 call	 ?Make@CBlockImp@@SAPAV1@PAVCMainBlockBaseData@@PAVCBlocksColumn@@@Z ; CBlockImp::Make
  0004b	83 c4 08	 add	 esp, 8
; File C:\Program Files (x86)\Microsoft Visual Studio\2019\Community\VC\Tools\MSVC\14.29.30133\atlmfc\include\afxtempl.h

; 1959 : 		{ return BASE_CLASS::AddTail(newElement); }

  0004e	8d 4e 10	 lea	 ecx, DWORD PTR [esi+16]
  00051	50		 push	 eax
  00052	e8 00 00 00 00	 call	 ?AddTail@CObList@@QAEPAU__POSITION@@PAVCObject@@@Z ; CObList::AddTail
; File D:\git\src\IBK\IBK_DRFN\ProjSrc\SrcChartEx\ChartOCX\ChartObject\BlocksColumn.cpp

; 107  : 	for(int nRow = 0; nRow < nRowCount; nRow++) m_BlockList.AddTail( CBlockImp::Make( GetMainBlockBaseData(), this));

  00057	83 ef 01	 sub	 edi, 1
  0005a	75 d8		 jne	 SHORT $LL4@MakeBlocks
  0005c	5b		 pop	 ebx
$LN3@MakeBlocks:
  0005d	5f		 pop	 edi

; 108  : }

  0005e	5e		 pop	 esi
  0005f	5d		 pop	 ebp
  00060	c2 04 00	 ret	 4
?MakeBlocksColumn@CBlocksColumn@@QAEXH@Z ENDP		; CBlocksColumn::MakeBlocksColumn
_TEXT	ENDS
; Function compile flags: /Ogtp
; File D:\git\src\IBK\IBK_DRFN\ProjSrc\SrcChartEx\ChartOCX\ChartObject\BlocksColumn.cpp
; File C:\Program Files (x86)\Microsoft Visual Studio\2019\Community\VC\Tools\MSVC\14.29.30133\atlmfc\include\afx.inl
; File D:\git\src\IBK\IBK_DRFN\ProjSrc\SrcChartEx\ChartOCX\ChartObject\BlocksColumn.cpp
; File C:\Program Files (x86)\Microsoft Visual Studio\2019\Community\VC\Tools\MSVC\14.29.30133\atlmfc\include\afx.inl
; File D:\git\src\IBK\IBK_DRFN\ProjSrc\SrcChartEx\ChartOCX\ChartObject\BlocksColumn.cpp
; File C:\Program Files (x86)\Microsoft Visual Studio\2019\Community\VC\Tools\MSVC\14.29.30133\atlmfc\include\afxtempl.h
; File D:\git\src\IBK\IBK_DRFN\ProjSrc\SrcChartEx\ChartOCX\ChartObject\BlocksColumn.cpp
; File C:\Program Files (x86)\Microsoft Visual Studio\2019\Community\VC\Tools\MSVC\14.29.30133\atlmfc\include\afxtempl.h
; File D:\git\src\IBK\IBK_DRFN\ProjSrc\SrcChartEx\ChartOCX\ChartObject\BlocksColumn.cpp
;	COMDAT ?Make@CBlocksColumn@@SAPAV1@PAVCMainBlockImp@@@Z
_TEXT	SEGMENT
_this$ = -20						; size = 4
$T2 = -16						; size = 4
__$EHRec$ = -12						; size = 12
_pMain$ = 8						; size = 4
?Make@CBlocksColumn@@SAPAV1@PAVCMainBlockImp@@@Z PROC	; CBlocksColumn::Make, COMDAT

; 98   : {

  00000	55		 push	 ebp
  00001	8b ec		 mov	 ebp, esp
  00003	6a ff		 push	 -1
  00005	68 00 00 00 00	 push	 __ehhandler$?Make@CBlocksColumn@@SAPAV1@PAVCMainBlockImp@@@Z
  0000a	64 a1 00 00 00
	00		 mov	 eax, DWORD PTR fs:0
  00010	50		 push	 eax
  00011	83 ec 08	 sub	 esp, 8
  00014	53		 push	 ebx
  00015	56		 push	 esi
  00016	57		 push	 edi
  00017	a1 00 00 00 00	 mov	 eax, DWORD PTR ___security_cookie
  0001c	33 c5		 xor	 eax, ebp
  0001e	50		 push	 eax
  0001f	8d 45 f4	 lea	 eax, DWORD PTR __$EHRec$[ebp]
  00022	64 a3 00 00 00
	00		 mov	 DWORD PTR fs:0, eax
; File C:\Program Files (x86)\Microsoft Visual Studio\2019\Community\VC\Tools\MSVC\14.29.30133\atlmfc\include\afx.inl

; 116  : 	{ return ::operator new(nSize); }

  00028	6a 30		 push	 48			; 00000030H
  0002a	e8 00 00 00 00	 call	 ??2@YAPAXI@Z		; operator new
; File D:\git\src\IBK\IBK_DRFN\ProjSrc\SrcChartEx\ChartOCX\ChartObject\BlocksColumn.cpp

; 99   : 	return new CBlocksColumn(pMain);

  0002f	8b d8		 mov	 ebx, eax
; File C:\Program Files (x86)\Microsoft Visual Studio\2019\Community\VC\Tools\MSVC\14.29.30133\atlmfc\include\afx.inl

; 116  : 	{ return ::operator new(nSize); }

  00031	83 c4 04	 add	 esp, 4
; File D:\git\src\IBK\IBK_DRFN\ProjSrc\SrcChartEx\ChartOCX\ChartObject\BlocksColumn.cpp

; 99   : 	return new CBlocksColumn(pMain);

  00034	89 5d f0	 mov	 DWORD PTR $T2[ebp], ebx
  00037	c7 45 fc 00 00
	00 00		 mov	 DWORD PTR __$EHRec$[ebp+8], 0
  0003e	85 db		 test	 ebx, ebx
  00040	74 53		 je	 SHORT $LN3@Make

; 33   : 	m_pMain(pMain)

  00042	8b 7d 08	 mov	 edi, DWORD PTR _pMain$[ebp]

; 34   : {

  00045	8d 4b 08	 lea	 ecx, DWORD PTR [ebx+8]
  00048	c7 03 00 00 00
	00		 mov	 DWORD PTR [ebx], OFFSET ??_7CBlocksColumn@@6B@
  0004e	89 7b 04	 mov	 DWORD PTR [ebx+4], edi
  00051	ff 15 00 00 00
	00		 call	 DWORD PTR __imp_??0CVertScaleRegionWidth@@QAE@XZ
  00057	8d 73 10	 lea	 esi, DWORD PTR [ebx+16]
; File C:\Program Files (x86)\Microsoft Visual Studio\2019\Community\VC\Tools\MSVC\14.29.30133\atlmfc\include\afxtempl.h

; 1876 : 		: BASE_CLASS(nBlockSize) { }

  0005a	6a 0a		 push	 10			; 0000000aH
  0005c	8b ce		 mov	 ecx, esi
; File D:\git\src\IBK\IBK_DRFN\ProjSrc\SrcChartEx\ChartOCX\ChartObject\BlocksColumn.cpp

; 34   : {

  0005e	89 75 ec	 mov	 DWORD PTR _this$[ebp], esi
; File C:\Program Files (x86)\Microsoft Visual Studio\2019\Community\VC\Tools\MSVC\14.29.30133\atlmfc\include\afxtempl.h

; 1876 : 		: BASE_CLASS(nBlockSize) { }

  00061	e8 00 00 00 00	 call	 ??0CObList@@QAE@H@Z	; CObList::CObList

; 1953 : 		: _CTypedPtrList<BASE_CLASS, TYPE>(nBlockSize) { }

  00066	c7 06 00 00 00
	00		 mov	 DWORD PTR [esi], OFFSET ??_7?$CTypedPtrList@VCObList@@PAVCBlockImp@@@@6B@
; File D:\git\src\IBK\IBK_DRFN\ProjSrc\SrcChartEx\ChartOCX\ChartObject\BlocksColumn.cpp

; 36   : 	m_hOcxWnd = pMain->GetMainBlockBaseData()->GetParent_Handle();

  0006c	8b cf		 mov	 ecx, edi
  0006e	c6 45 fc 01	 mov	 BYTE PTR __$EHRec$[ebp+8], 1
  00072	e8 00 00 00 00	 call	 ?GetMainBlockBaseData@CMainBlockImp@@QBEPAVCMainBlockBaseData@@XZ ; CMainBlockImp::GetMainBlockBaseData
  00077	8b c8		 mov	 ecx, eax
  00079	e8 00 00 00 00	 call	 ?GetParent_Handle@CMainBlockBaseData@@QBEPAUHWND__@@XZ ; CMainBlockBaseData::GetParent_Handle
  0007e	89 43 2c	 mov	 DWORD PTR [ebx+44], eax

; 99   : 	return new CBlocksColumn(pMain);

  00081	8b c3		 mov	 eax, ebx

; 100  : }

  00083	8b 4d f4	 mov	 ecx, DWORD PTR __$EHRec$[ebp]
  00086	64 89 0d 00 00
	00 00		 mov	 DWORD PTR fs:0, ecx
  0008d	59		 pop	 ecx
  0008e	5f		 pop	 edi
  0008f	5e		 pop	 esi
  00090	5b		 pop	 ebx
  00091	8b e5		 mov	 esp, ebp
  00093	5d		 pop	 ebp
  00094	c3		 ret	 0
$LN3@Make:

; 99   : 	return new CBlocksColumn(pMain);

  00095	33 c0		 xor	 eax, eax

; 100  : }

  00097	8b 4d f4	 mov	 ecx, DWORD PTR __$EHRec$[ebp]
  0009a	64 89 0d 00 00
	00 00		 mov	 DWORD PTR fs:0, ecx
  000a1	59		 pop	 ecx
  000a2	5f		 pop	 edi
  000a3	5e		 pop	 esi
  000a4	5b		 pop	 ebx
  000a5	8b e5		 mov	 esp, ebp
  000a7	5d		 pop	 ebp
  000a8	c3		 ret	 0
_TEXT	ENDS
;	COMDAT text$x
text$x	SEGMENT
__unwindfunclet$?Make@CBlocksColumn@@SAPAV1@PAVCMainBlockImp@@@Z$0:
  00000	8b 45 f0	 mov	 eax, DWORD PTR $T2[ebp]
  00003	50		 push	 eax
  00004	e8 00 00 00 00	 call	 ??3CObject@@SGXPAX@Z	; CObject::operator delete
  00009	c3		 ret	 0
__unwindfunclet$?Make@CBlocksColumn@@SAPAV1@PAVCMainBlockImp@@@Z$1:
  0000a	8b 4d f0	 mov	 ecx, DWORD PTR $T2[ebp]
  0000d	83 c1 10	 add	 ecx, 16			; 00000010H
  00010	e9 00 00 00 00	 jmp	 ??1?$CTypedPtrList@VCObList@@PAVCBlockImp@@@@UAE@XZ
  00015	cc		 int	 3
  00016	cc		 int	 3
  00017	cc		 int	 3
  00018	cc		 int	 3
  00019	cc		 int	 3
__ehhandler$?Make@CBlocksColumn@@SAPAV1@PAVCMainBlockImp@@@Z:
  0001a	90		 npad	 1
  0001b	90		 npad	 1
  0001c	8b 54 24 08	 mov	 edx, DWORD PTR [esp+8]
  00020	8d 42 0c	 lea	 eax, DWORD PTR [edx+12]
  00023	8b 4a e8	 mov	 ecx, DWORD PTR [edx-24]
  00026	33 c8		 xor	 ecx, eax
  00028	e8 00 00 00 00	 call	 @__security_check_cookie@4
  0002d	b8 00 00 00 00	 mov	 eax, OFFSET __ehfuncinfo$?Make@CBlocksColumn@@SAPAV1@PAVCMainBlockImp@@@Z
  00032	e9 00 00 00 00	 jmp	 ___CxxFrameHandler3
text$x	ENDS
?Make@CBlocksColumn@@SAPAV1@PAVCMainBlockImp@@@Z ENDP	; CBlocksColumn::Make
; Function compile flags: /Ogtp
; File D:\git\src\IBK\IBK_DRFN\ProjSrc\SrcChartEx\ChartOCX\ChartObject\BlocksColumn.cpp
; File C:\Program Files (x86)\Microsoft Visual Studio\2019\Community\VC\Tools\MSVC\14.29.30133\atlmfc\include\afxcoll.inl
; File D:\git\src\IBK\IBK_DRFN\ProjSrc\SrcChartEx\ChartOCX\ChartObject\BlocksColumn.cpp
;	COMDAT ?ReleaseAllVScaleSettingInFixedMinMax@CBlocksColumn@@QAEXXZ
_TEXT	SEGMENT
?ReleaseAllVScaleSettingInFixedMinMax@CBlocksColumn@@QAEXXZ PROC ; CBlocksColumn::ReleaseAllVScaleSettingInFixedMinMax, COMDAT
; _this$ = ecx

; 82   : {

  00000	56		 push	 esi

; 83   : 	POSITION pos = m_BlockList.GetHeadPosition();

  00001	8b 71 14	 mov	 esi, DWORD PTR [ecx+20]

; 84   : 	while(pos != NULL)

  00004	85 f6		 test	 esi, esi
  00006	74 19		 je	 SHORT $LN19@ReleaseAll
$LL2@ReleaseAll:

; 85   : 	{
; 86   : 		CBlockImp* pBlock = m_BlockList.GetNext(pos);

  00008	8b 4e 08	 mov	 ecx, DWORD PTR [esi+8]
; File C:\Program Files (x86)\Microsoft Visual Studio\2019\Community\VC\Tools\MSVC\14.29.30133\atlmfc\include\afxcoll.inl

; 432  : 		rPosition = (POSITION) pNode->pNext;

  0000b	8b 36		 mov	 esi, DWORD PTR [esi]
; File D:\git\src\IBK\IBK_DRFN\ProjSrc\SrcChartEx\ChartOCX\ChartObject\BlocksColumn.cpp

; 87   : 		if( !pBlock) return;

  0000d	85 c9		 test	 ecx, ecx
  0000f	74 10		 je	 SHORT $LN19@ReleaseAll

; 88   : 		pBlock->GetVertScaleGroupList().ReleaseAllVScaleSettingInFixedMinMax();

  00011	e8 00 00 00 00	 call	 ?GetVertScaleGroupList@CBlockImp@@QAEAAVCVertScaleGroupList@@XZ ; CBlockImp::GetVertScaleGroupList
  00016	8b c8		 mov	 ecx, eax
  00018	e8 00 00 00 00	 call	 ?ReleaseAllVScaleSettingInFixedMinMax@CVertScaleGroupList@@QAEXXZ ; CVertScaleGroupList::ReleaseAllVScaleSettingInFixedMinMax
  0001d	85 f6		 test	 esi, esi
  0001f	75 e7		 jne	 SHORT $LL2@ReleaseAll
$LN19@ReleaseAll:
  00021	5e		 pop	 esi

; 89   : 	}
; 90   : }

  00022	c3		 ret	 0
?ReleaseAllVScaleSettingInFixedMinMax@CBlocksColumn@@QAEXXZ ENDP ; CBlocksColumn::ReleaseAllVScaleSettingInFixedMinMax
_TEXT	ENDS
; Function compile flags: /Ogtp
; File D:\git\src\IBK\IBK_DRFN\ProjSrc\SrcChartEx\ChartOCX\ChartObject\BlocksColumn.cpp
; File C:\Program Files (x86)\Microsoft Visual Studio\2019\Community\VC\Tools\MSVC\14.29.30133\atlmfc\include\afxcoll.inl
; File D:\git\src\IBK\IBK_DRFN\ProjSrc\SrcChartEx\ChartOCX\ChartObject\BlocksColumn.cpp
;	COMDAT ?SetAllVScaleMinMaxType@CBlocksColumn@@QAEXW4VERTMINMAXTYPE@CScaleBaseData@@@Z
_TEXT	SEGMENT
_p_eVScaleMinMaxType$ = 8				; size = 4
?SetAllVScaleMinMaxType@CBlocksColumn@@QAEXW4VERTMINMAXTYPE@CScaleBaseData@@@Z PROC ; CBlocksColumn::SetAllVScaleMinMaxType, COMDAT
; _this$ = ecx

; 70   : {

  00000	55		 push	 ebp
  00001	8b ec		 mov	 ebp, esp
  00003	56		 push	 esi

; 71   : 	POSITION pos = m_BlockList.GetHeadPosition();

  00004	8b 71 14	 mov	 esi, DWORD PTR [ecx+20]

; 72   : 	while(pos != NULL)

  00007	85 f6		 test	 esi, esi
  00009	74 20		 je	 SHORT $LN19@SetAllVSca
  0000b	57		 push	 edi
  0000c	8b 7d 08	 mov	 edi, DWORD PTR _p_eVScaleMinMaxType$[ebp]
  0000f	90		 npad	 1
$LL2@SetAllVSca:

; 73   : 	{
; 74   : 		CBlockImp* pBlock = m_BlockList.GetNext(pos);

  00010	8b 4e 08	 mov	 ecx, DWORD PTR [esi+8]
; File C:\Program Files (x86)\Microsoft Visual Studio\2019\Community\VC\Tools\MSVC\14.29.30133\atlmfc\include\afxcoll.inl

; 432  : 		rPosition = (POSITION) pNode->pNext;

  00013	8b 36		 mov	 esi, DWORD PTR [esi]
; File D:\git\src\IBK\IBK_DRFN\ProjSrc\SrcChartEx\ChartOCX\ChartObject\BlocksColumn.cpp

; 75   : 		if( !pBlock) return;

  00015	85 c9		 test	 ecx, ecx
  00017	74 11		 je	 SHORT $LN20@SetAllVSca

; 76   : 		pBlock->GetVertScaleGroupList().SetAllVScaleMinMaxType( p_eVScaleMinMaxType);

  00019	57		 push	 edi
  0001a	e8 00 00 00 00	 call	 ?GetVertScaleGroupList@CBlockImp@@QAEAAVCVertScaleGroupList@@XZ ; CBlockImp::GetVertScaleGroupList
  0001f	8b c8		 mov	 ecx, eax
  00021	e8 00 00 00 00	 call	 ?SetAllVScaleMinMaxType@CVertScaleGroupList@@QAEXW4VERTMINMAXTYPE@CScaleBaseData@@@Z ; CVertScaleGroupList::SetAllVScaleMinMaxType
  00026	85 f6		 test	 esi, esi
  00028	75 e6		 jne	 SHORT $LL2@SetAllVSca
$LN20@SetAllVSca:
  0002a	5f		 pop	 edi
$LN19@SetAllVSca:
  0002b	5e		 pop	 esi

; 77   : 	}
; 78   : }

  0002c	5d		 pop	 ebp
  0002d	c2 04 00	 ret	 4
?SetAllVScaleMinMaxType@CBlocksColumn@@QAEXW4VERTMINMAXTYPE@CScaleBaseData@@@Z ENDP ; CBlocksColumn::SetAllVScaleMinMaxType
_TEXT	ENDS
; Function compile flags: /Ogtp
; File D:\git\src\IBK\IBK_DRFN\ProjSrc\SrcChartEx\ChartOCX\ChartObject\BlocksColumn.cpp
; File C:\Program Files (x86)\Microsoft Visual Studio\2019\Community\VC\Tools\MSVC\14.29.30133\atlmfc\include\afxcoll.inl
; File D:\git\src\IBK\IBK_DRFN\ProjSrc\SrcChartEx\ChartOCX\ChartObject\BlocksColumn.cpp
;	COMDAT ?InitializeNormalSizeBlockNumber@CBlocksColumn@@QAEXXZ
_TEXT	SEGMENT
?InitializeNormalSizeBlockNumber@CBlocksColumn@@QAEXXZ PROC ; CBlocksColumn::InitializeNormalSizeBlockNumber, COMDAT
; _this$ = ecx

; 58   : {

  00000	56		 push	 esi

; 59   : 	POSITION pos = m_BlockList.GetHeadPosition();

  00001	8b 71 14	 mov	 esi, DWORD PTR [ecx+20]

; 60   : 	while(pos != NULL)

  00004	85 f6		 test	 esi, esi
  00006	74 17		 je	 SHORT $LN3@Initialize
$LL2@Initialize:

; 64   : 		pBlock->GetBlockData().SetDoubleSize(false);

  00008	8b 4e 08	 mov	 ecx, DWORD PTR [esi+8]
; File C:\Program Files (x86)\Microsoft Visual Studio\2019\Community\VC\Tools\MSVC\14.29.30133\atlmfc\include\afxcoll.inl

; 432  : 		rPosition = (POSITION) pNode->pNext;

  0000b	8b 36		 mov	 esi, DWORD PTR [esi]
; File D:\git\src\IBK\IBK_DRFN\ProjSrc\SrcChartEx\ChartOCX\ChartObject\BlocksColumn.cpp

; 64   : 		pBlock->GetBlockData().SetDoubleSize(false);

  0000d	6a 00		 push	 0
  0000f	e8 00 00 00 00	 call	 ?GetBlockData@CBlockImp@@QAEAAVCBlockData@@XZ ; CBlockImp::GetBlockData
  00014	8b c8		 mov	 ecx, eax
  00016	e8 00 00 00 00	 call	 ?SetDoubleSize@CBlockData@@QAEX_N@Z ; CBlockData::SetDoubleSize
  0001b	85 f6		 test	 esi, esi
  0001d	75 e9		 jne	 SHORT $LL2@Initialize
$LN3@Initialize:
  0001f	5e		 pop	 esi

; 65   : 	}
; 66   : }

  00020	c3		 ret	 0
?InitializeNormalSizeBlockNumber@CBlocksColumn@@QAEXXZ ENDP ; CBlocksColumn::InitializeNormalSizeBlockNumber
_TEXT	ENDS
; Function compile flags: /Ogtp
; File D:\git\src\IBK\IBK_DRFN\ProjSrc\SrcChartEx\ChartOCX\ChartObject\BlocksColumn.cpp
;	COMDAT ?GetMainBlockBaseData@CBlocksColumn@@IBEPAVCMainBlockBaseData@@XZ
_TEXT	SEGMENT
?GetMainBlockBaseData@CBlocksColumn@@IBEPAVCMainBlockBaseData@@XZ PROC ; CBlocksColumn::GetMainBlockBaseData, COMDAT
; _this$ = ecx

; 50   : 	if(m_pMain == NULL)

  00000	8b 49 04	 mov	 ecx, DWORD PTR [ecx+4]
  00003	85 c9		 test	 ecx, ecx
  00005	75 03		 jne	 SHORT $LN2@GetMainBlo

; 51   : 		return NULL;

  00007	33 c0		 xor	 eax, eax

; 54   : }

  00009	c3		 ret	 0
$LN2@GetMainBlo:

; 52   : 
; 53   : 	return m_pMain->GetMainBlockBaseData();

  0000a	e9 00 00 00 00	 jmp	 ?GetMainBlockBaseData@CMainBlockImp@@QBEPAVCMainBlockBaseData@@XZ ; CMainBlockImp::GetMainBlockBaseData
?GetMainBlockBaseData@CBlocksColumn@@IBEPAVCMainBlockBaseData@@XZ ENDP ; CBlocksColumn::GetMainBlockBaseData
_TEXT	ENDS
; Function compile flags: /Ogtp
; File C:\Program Files (x86)\Microsoft Visual Studio\2019\Community\VC\Tools\MSVC\14.29.30133\atlmfc\include\afx.inl
;	COMDAT ??_G?$CTypedPtrList@VCObList@@PAVCBlockImp@@@@UAEPAXI@Z
_TEXT	SEGMENT
___flags$ = 8						; size = 4
??_G?$CTypedPtrList@VCObList@@PAVCBlockImp@@@@UAEPAXI@Z PROC ; CTypedPtrList<CObList,CBlockImp *>::`scalar deleting destructor', COMDAT
; _this$ = ecx
  00000	55		 push	 ebp
  00001	8b ec		 mov	 ebp, esp
  00003	56		 push	 esi
  00004	8b f1		 mov	 esi, ecx
  00006	e8 00 00 00 00	 call	 ??1CObList@@UAE@XZ	; CObList::~CObList
  0000b	8b 45 08	 mov	 eax, DWORD PTR ___flags$[ebp]
  0000e	a8 01		 test	 al, 1
  00010	74 1f		 je	 SHORT $LN15@scalar
  00012	a8 04		 test	 al, 4
  00014	75 10		 jne	 SHORT $LN3@scalar

; 112  : 	{ ::operator delete(p); }

  00016	56		 push	 esi
  00017	e8 00 00 00 00	 call	 ??3@YAXPAX@Z		; operator delete
  0001c	83 c4 04	 add	 esp, 4
  0001f	8b c6		 mov	 eax, esi
  00021	5e		 pop	 esi
  00022	5d		 pop	 ebp
  00023	c2 04 00	 ret	 4
$LN3@scalar:
  00026	6a 1c		 push	 28			; 0000001cH
  00028	56		 push	 esi
  00029	e8 00 00 00 00	 call	 ?__global_delete@@YAXPAXI@Z ; __global_delete
  0002e	83 c4 08	 add	 esp, 8
$LN15@scalar:
  00031	8b c6		 mov	 eax, esi
  00033	5e		 pop	 esi
  00034	5d		 pop	 ebp
  00035	c2 04 00	 ret	 4
??_G?$CTypedPtrList@VCObList@@PAVCBlockImp@@@@UAEPAXI@Z ENDP ; CTypedPtrList<CObList,CBlockImp *>::`scalar deleting destructor'
_TEXT	ENDS
; Function compile flags: /Ogtp
;	COMDAT ??1?$CTypedPtrList@VCObList@@PAVCBlockImp@@@@UAE@XZ
_TEXT	SEGMENT
??1?$CTypedPtrList@VCObList@@PAVCBlockImp@@@@UAE@XZ PROC ; CTypedPtrList<CObList,CBlockImp *>::~CTypedPtrList<CObList,CBlockImp *>, COMDAT
; _this$ = ecx
  00000	e9 00 00 00 00	 jmp	 ??1CObList@@UAE@XZ	; CObList::~CObList
??1?$CTypedPtrList@VCObList@@PAVCBlockImp@@@@UAE@XZ ENDP ; CTypedPtrList<CObList,CBlockImp *>::~CTypedPtrList<CObList,CBlockImp *>
_TEXT	ENDS
; Function compile flags: /Ogtp
; File C:\Program Files (x86)\Microsoft Visual Studio\2019\Community\VC\Tools\MSVC\14.29.30133\atlmfc\include\afx.inl
;	COMDAT ??_G?$_CTypedPtrList@VCObList@@PAVCBlockImp@@@@UAEPAXI@Z
_TEXT	SEGMENT
___flags$ = 8						; size = 4
??_G?$_CTypedPtrList@VCObList@@PAVCBlockImp@@@@UAEPAXI@Z PROC ; _CTypedPtrList<CObList,CBlockImp *>::`scalar deleting destructor', COMDAT
; _this$ = ecx
  00000	55		 push	 ebp
  00001	8b ec		 mov	 ebp, esp
  00003	56		 push	 esi
  00004	8b f1		 mov	 esi, ecx
  00006	e8 00 00 00 00	 call	 ??1CObList@@UAE@XZ	; CObList::~CObList
  0000b	8b 45 08	 mov	 eax, DWORD PTR ___flags$[ebp]
  0000e	a8 01		 test	 al, 1
  00010	74 1f		 je	 SHORT $LN12@scalar
  00012	a8 04		 test	 al, 4
  00014	75 10		 jne	 SHORT $LN3@scalar

; 112  : 	{ ::operator delete(p); }

  00016	56		 push	 esi
  00017	e8 00 00 00 00	 call	 ??3@YAXPAX@Z		; operator delete
  0001c	83 c4 04	 add	 esp, 4
  0001f	8b c6		 mov	 eax, esi
  00021	5e		 pop	 esi
  00022	5d		 pop	 ebp
  00023	c2 04 00	 ret	 4
$LN3@scalar:
  00026	6a 1c		 push	 28			; 0000001cH
  00028	56		 push	 esi
  00029	e8 00 00 00 00	 call	 ?__global_delete@@YAXPAXI@Z ; __global_delete
  0002e	83 c4 08	 add	 esp, 8
$LN12@scalar:
  00031	8b c6		 mov	 eax, esi
  00033	5e		 pop	 esi
  00034	5d		 pop	 ebp
  00035	c2 04 00	 ret	 4
??_G?$_CTypedPtrList@VCObList@@PAVCBlockImp@@@@UAEPAXI@Z ENDP ; _CTypedPtrList<CObList,CBlockImp *>::`scalar deleting destructor'
_TEXT	ENDS
; Function compile flags: /Ogtp
; File C:\Program Files (x86)\Microsoft Visual Studio\2019\Community\VC\Tools\MSVC\14.29.30133\atlmfc\include\afxtempl.h
; File C:\Program Files (x86)\Microsoft Visual Studio\2019\Community\VC\Tools\MSVC\14.29.30133\atlmfc\include\afxcoll.inl
; File C:\Program Files (x86)\Microsoft Visual Studio\2019\Community\VC\Tools\MSVC\14.29.30133\atlmfc\include\afxtempl.h
; File C:\Program Files (x86)\Microsoft Visual Studio\2019\Community\VC\Tools\MSVC\14.29.30133\atlmfc\include\afxcoll.inl
; File C:\Program Files (x86)\Microsoft Visual Studio\2019\Community\VC\Tools\MSVC\14.29.30133\atlmfc\include\afxtempl.h
;	COMDAT ?GetPrev@?$_CTypedPtrList@VCObList@@PAVCBlockImp@@@@QAEAAPAVCBlockImp@@AAPAU__POSITION@@@Z
_TEXT	SEGMENT
_rPosition$ = 8						; size = 4
?GetPrev@?$_CTypedPtrList@VCObList@@PAVCBlockImp@@@@QAEAAPAVCBlockImp@@AAPAU__POSITION@@@Z PROC ; _CTypedPtrList<CObList,CBlockImp *>::GetPrev, COMDAT
; _this$ = ecx

; 1900 : 		{ return (TYPE&)BASE_CLASS::GetPrev(rPosition); }

  00000	55		 push	 ebp
  00001	8b ec		 mov	 ebp, esp
; File C:\Program Files (x86)\Microsoft Visual Studio\2019\Community\VC\Tools\MSVC\14.29.30133\atlmfc\include\afxcoll.inl

; 442  : 	{ CNode* pNode = (CNode*) rPosition;

  00003	8b 55 08	 mov	 edx, DWORD PTR _rPosition$[ebp]
  00006	8b 0a		 mov	 ecx, DWORD PTR [edx]

; 443  : 		ASSERT(AfxIsValidAddress(pNode, sizeof(CNode)));
; 444  : 		if( pNode == NULL )

  00008	85 c9		 test	 ecx, ecx
  0000a	74 0c		 je	 SHORT $LN9@GetPrev

; 446  : 		rPosition = (POSITION) pNode->pPrev;

  0000c	8b 41 04	 mov	 eax, DWORD PTR [ecx+4]
  0000f	89 02		 mov	 DWORD PTR [edx], eax

; 447  : 		return pNode->data; }

  00011	8d 41 08	 lea	 eax, DWORD PTR [ecx+8]
; File C:\Program Files (x86)\Microsoft Visual Studio\2019\Community\VC\Tools\MSVC\14.29.30133\atlmfc\include\afxtempl.h

; 1900 : 		{ return (TYPE&)BASE_CLASS::GetPrev(rPosition); }

  00014	5d		 pop	 ebp
  00015	c2 04 00	 ret	 4
$LN9@GetPrev:
; File C:\Program Files (x86)\Microsoft Visual Studio\2019\Community\VC\Tools\MSVC\14.29.30133\atlmfc\include\afxcoll.inl

; 445  : 			AfxThrowInvalidArgException();

  00018	e8 00 00 00 00	 call	 ?AfxThrowInvalidArgException@@YGXXZ ; AfxThrowInvalidArgException
$LN7@GetPrev:
  0001d	cc		 int	 3
?GetPrev@?$_CTypedPtrList@VCObList@@PAVCBlockImp@@@@QAEAAPAVCBlockImp@@AAPAU__POSITION@@@Z ENDP ; _CTypedPtrList<CObList,CBlockImp *>::GetPrev
_TEXT	ENDS
; Function compile flags: /Ogtp
; File C:\Program Files (x86)\Microsoft Visual Studio\2019\Community\VC\Tools\MSVC\14.29.30133\atlmfc\include\afxtempl.h
; File C:\Program Files (x86)\Microsoft Visual Studio\2019\Community\VC\Tools\MSVC\14.29.30133\atlmfc\include\afxcoll.inl
; File C:\Program Files (x86)\Microsoft Visual Studio\2019\Community\VC\Tools\MSVC\14.29.30133\atlmfc\include\afxtempl.h
; File C:\Program Files (x86)\Microsoft Visual Studio\2019\Community\VC\Tools\MSVC\14.29.30133\atlmfc\include\afxcoll.inl
; File C:\Program Files (x86)\Microsoft Visual Studio\2019\Community\VC\Tools\MSVC\14.29.30133\atlmfc\include\afxtempl.h
;	COMDAT ?GetNext@?$_CTypedPtrList@VCObList@@PAVCBlockImp@@@@QAEAAPAVCBlockImp@@AAPAU__POSITION@@@Z
_TEXT	SEGMENT
_rPosition$ = 8						; size = 4
?GetNext@?$_CTypedPtrList@VCObList@@PAVCBlockImp@@@@QAEAAPAVCBlockImp@@AAPAU__POSITION@@@Z PROC ; _CTypedPtrList<CObList,CBlockImp *>::GetNext, COMDAT
; _this$ = ecx

; 1896 : 		{ return (TYPE&)BASE_CLASS::GetNext(rPosition); }

  00000	55		 push	 ebp
  00001	8b ec		 mov	 ebp, esp
; File C:\Program Files (x86)\Microsoft Visual Studio\2019\Community\VC\Tools\MSVC\14.29.30133\atlmfc\include\afxcoll.inl

; 428  : 	{ CNode* pNode = (CNode*) rPosition;

  00003	8b 55 08	 mov	 edx, DWORD PTR _rPosition$[ebp]
  00006	8b 0a		 mov	 ecx, DWORD PTR [edx]

; 429  : 		ASSERT(AfxIsValidAddress(pNode, sizeof(CNode)));
; 430  : 		if( pNode == NULL )

  00008	85 c9		 test	 ecx, ecx
  0000a	74 0b		 je	 SHORT $LN9@GetNext

; 432  : 		rPosition = (POSITION) pNode->pNext;

  0000c	8b 01		 mov	 eax, DWORD PTR [ecx]
  0000e	89 02		 mov	 DWORD PTR [edx], eax

; 433  : 		return pNode->data; }

  00010	8d 41 08	 lea	 eax, DWORD PTR [ecx+8]
; File C:\Program Files (x86)\Microsoft Visual Studio\2019\Community\VC\Tools\MSVC\14.29.30133\atlmfc\include\afxtempl.h

; 1896 : 		{ return (TYPE&)BASE_CLASS::GetNext(rPosition); }

  00013	5d		 pop	 ebp
  00014	c2 04 00	 ret	 4
$LN9@GetNext:
; File C:\Program Files (x86)\Microsoft Visual Studio\2019\Community\VC\Tools\MSVC\14.29.30133\atlmfc\include\afxcoll.inl

; 431  : 			AfxThrowInvalidArgException();

  00017	e8 00 00 00 00	 call	 ?AfxThrowInvalidArgException@@YGXXZ ; AfxThrowInvalidArgException
$LN7@GetNext:
  0001c	cc		 int	 3
?GetNext@?$_CTypedPtrList@VCObList@@PAVCBlockImp@@@@QAEAAPAVCBlockImp@@AAPAU__POSITION@@@Z ENDP ; _CTypedPtrList<CObList,CBlockImp *>::GetNext
_TEXT	ENDS
; Function compile flags: /Ogtp
; File D:\git\src\IBK\IBK_DRFN\ProjSrc\SrcChartEx\ChartOCX\ChartObject\BlocksColumn.cpp
; File C:\Program Files (x86)\Microsoft Visual Studio\2019\Community\VC\Tools\MSVC\14.29.30133\atlmfc\include\afxcoll.inl
; File D:\git\src\IBK\IBK_DRFN\ProjSrc\SrcChartEx\ChartOCX\ChartObject\BlocksColumn.cpp
; File C:\Program Files (x86)\Microsoft Visual Studio\2019\Community\VC\Tools\MSVC\14.29.30133\atlmfc\include\afxtempl.h
; File C:\Program Files (x86)\Microsoft Visual Studio\2019\Community\VC\Tools\MSVC\14.29.30133\atlmfc\include\afxcoll.inl
; File D:\git\src\IBK\IBK_DRFN\ProjSrc\SrcChartEx\ChartOCX\ChartObject\BlocksColumn.cpp
;	COMDAT ??1CBlocksColumn@@UAE@XZ
_TEXT	SEGMENT
__$EHRec$ = -12						; size = 12
??1CBlocksColumn@@UAE@XZ PROC				; CBlocksColumn::~CBlocksColumn, COMDAT
; _this$ = ecx

; 40   : {

  00000	55		 push	 ebp
  00001	8b ec		 mov	 ebp, esp
  00003	6a ff		 push	 -1
  00005	68 00 00 00 00	 push	 __ehhandler$??1CBlocksColumn@@UAE@XZ
  0000a	64 a1 00 00 00
	00		 mov	 eax, DWORD PTR fs:0
  00010	50		 push	 eax
  00011	56		 push	 esi
  00012	57		 push	 edi
  00013	a1 00 00 00 00	 mov	 eax, DWORD PTR ___security_cookie
  00018	33 c5		 xor	 eax, ebp
  0001a	50		 push	 eax
  0001b	8d 45 f4	 lea	 eax, DWORD PTR __$EHRec$[ebp]
  0001e	64 a3 00 00 00
	00		 mov	 DWORD PTR fs:0, eax
  00024	8b f1		 mov	 esi, ecx
; File C:\Program Files (x86)\Microsoft Visual Studio\2019\Community\VC\Tools\MSVC\14.29.30133\atlmfc\include\afxcoll.inl

; 410  : 	{ return m_nCount == 0; }

  00026	83 7e 1c 00	 cmp	 DWORD PTR [esi+28], 0
; File D:\git\src\IBK\IBK_DRFN\ProjSrc\SrcChartEx\ChartOCX\ChartObject\BlocksColumn.cpp

; 40   : {

  0002a	c7 06 00 00 00
	00		 mov	 DWORD PTR [esi], OFFSET ??_7CBlocksColumn@@6B@

; 521  : 	while( !m_BlockList.IsEmpty())

  00030	74 1c		 je	 SHORT $LN24@CBlocksCol
$LL4@CBlocksCol:

; 522  : 	{
; 523  : 		CBlockImp::Delete( m_BlockList.GetHead());

  00032	8b 46 14	 mov	 eax, DWORD PTR [esi+20]
  00035	ff 70 08	 push	 DWORD PTR [eax+8]
  00038	e8 00 00 00 00	 call	 ?Delete@CBlockImp@@SAXPAV1@@Z ; CBlockImp::Delete
  0003d	83 c4 04	 add	 esp, 4
; File C:\Program Files (x86)\Microsoft Visual Studio\2019\Community\VC\Tools\MSVC\14.29.30133\atlmfc\include\afxtempl.h

; 1890 : 		{ return (TYPE)BASE_CLASS::RemoveHead(); }

  00040	8d 4e 10	 lea	 ecx, DWORD PTR [esi+16]
  00043	e8 00 00 00 00	 call	 ?RemoveHead@CObList@@QAEPAVCObject@@XZ ; CObList::RemoveHead
; File C:\Program Files (x86)\Microsoft Visual Studio\2019\Community\VC\Tools\MSVC\14.29.30133\atlmfc\include\afxcoll.inl

; 410  : 	{ return m_nCount == 0; }

  00048	83 7e 1c 00	 cmp	 DWORD PTR [esi+28], 0
; File D:\git\src\IBK\IBK_DRFN\ProjSrc\SrcChartEx\ChartOCX\ChartObject\BlocksColumn.cpp

; 521  : 	while( !m_BlockList.IsEmpty())

  0004c	75 e4		 jne	 SHORT $LL4@CBlocksCol
$LN24@CBlocksCol:
  0004e	8d 4e 10	 lea	 ecx, DWORD PTR [esi+16]
  00051	e8 00 00 00 00	 call	 ??1CObList@@UAE@XZ	; CObList::~CObList

; 41   : 	DeleteAll();
; 42   : }

  00056	8b 4d f4	 mov	 ecx, DWORD PTR __$EHRec$[ebp]
  00059	64 89 0d 00 00
	00 00		 mov	 DWORD PTR fs:0, ecx
  00060	59		 pop	 ecx
  00061	5f		 pop	 edi
  00062	5e		 pop	 esi
  00063	8b e5		 mov	 esp, ebp
  00065	5d		 pop	 ebp
  00066	c3		 ret	 0
  00067	cc		 int	 3
  00068	cc		 int	 3
  00069	cc		 int	 3
  0006a	cc		 int	 3
  0006b	cc		 int	 3
_TEXT	ENDS
;	COMDAT text$x
text$x	SEGMENT
__ehhandler$??1CBlocksColumn@@UAE@XZ:
  00000	90		 npad	 1
  00001	90		 npad	 1
  00002	8b 54 24 08	 mov	 edx, DWORD PTR [esp+8]
  00006	8d 42 0c	 lea	 eax, DWORD PTR [edx+12]
  00009	8b 4a f4	 mov	 ecx, DWORD PTR [edx-12]
  0000c	33 c8		 xor	 ecx, eax
  0000e	e8 00 00 00 00	 call	 @__security_check_cookie@4
  00013	b8 00 00 00 00	 mov	 eax, OFFSET __ehfuncinfo$??1CBlocksColumn@@UAE@XZ
  00018	e9 00 00 00 00	 jmp	 ___CxxFrameHandler3
text$x	ENDS
??1CBlocksColumn@@UAE@XZ ENDP				; CBlocksColumn::~CBlocksColumn
; Function compile flags: /Ogtp
; File D:\git\src\IBK\IBK_DRFN\ProjSrc\SrcChartEx\ChartOCX\ChartObject\BlocksColumn.cpp
; File C:\Program Files (x86)\Microsoft Visual Studio\2019\Community\VC\Tools\MSVC\14.29.30133\atlmfc\include\afxtempl.h
; File D:\git\src\IBK\IBK_DRFN\ProjSrc\SrcChartEx\ChartOCX\ChartObject\BlocksColumn.cpp
; File C:\Program Files (x86)\Microsoft Visual Studio\2019\Community\VC\Tools\MSVC\14.29.30133\atlmfc\include\afxtempl.h
; File D:\git\src\IBK\IBK_DRFN\ProjSrc\SrcChartEx\ChartOCX\ChartObject\BlocksColumn.cpp
;	COMDAT ??0CBlocksColumn@@QAE@PAVCMainBlockImp@@@Z
_TEXT	SEGMENT
_this$ = -16						; size = 4
__$EHRec$ = -12						; size = 12
_this$ = 8						; size = 4
_pMain$ = 8						; size = 4
??0CBlocksColumn@@QAE@PAVCMainBlockImp@@@Z PROC		; CBlocksColumn::CBlocksColumn, COMDAT
; _this$ = ecx

; 34   : {

  00000	55		 push	 ebp
  00001	8b ec		 mov	 ebp, esp
  00003	6a ff		 push	 -1
  00005	68 00 00 00 00	 push	 __ehhandler$??0CBlocksColumn@@QAE@PAVCMainBlockImp@@@Z
  0000a	64 a1 00 00 00
	00		 mov	 eax, DWORD PTR fs:0
  00010	50		 push	 eax
  00011	51		 push	 ecx
  00012	53		 push	 ebx
  00013	56		 push	 esi
  00014	57		 push	 edi
  00015	a1 00 00 00 00	 mov	 eax, DWORD PTR ___security_cookie
  0001a	33 c5		 xor	 eax, ebp
  0001c	50		 push	 eax
  0001d	8d 45 f4	 lea	 eax, DWORD PTR __$EHRec$[ebp]
  00020	64 a3 00 00 00
	00		 mov	 DWORD PTR fs:0, eax
  00026	8b d9		 mov	 ebx, ecx
  00028	89 5d f0	 mov	 DWORD PTR _this$[ebp], ebx

; 33   : 	m_pMain(pMain)

  0002b	8b 7d 08	 mov	 edi, DWORD PTR _pMain$[ebp]

; 34   : {

  0002e	8d 4b 08	 lea	 ecx, DWORD PTR [ebx+8]
  00031	c7 03 00 00 00
	00		 mov	 DWORD PTR [ebx], OFFSET ??_7CBlocksColumn@@6B@
  00037	89 7b 04	 mov	 DWORD PTR [ebx+4], edi
  0003a	ff 15 00 00 00
	00		 call	 DWORD PTR __imp_??0CVertScaleRegionWidth@@QAE@XZ
  00040	8d 73 10	 lea	 esi, DWORD PTR [ebx+16]
; File C:\Program Files (x86)\Microsoft Visual Studio\2019\Community\VC\Tools\MSVC\14.29.30133\atlmfc\include\afxtempl.h

; 1876 : 		: BASE_CLASS(nBlockSize) { }

  00043	6a 0a		 push	 10			; 0000000aH
  00045	8b ce		 mov	 ecx, esi
; File D:\git\src\IBK\IBK_DRFN\ProjSrc\SrcChartEx\ChartOCX\ChartObject\BlocksColumn.cpp

; 34   : {

  00047	89 75 08	 mov	 DWORD PTR _this$[ebp], esi
; File C:\Program Files (x86)\Microsoft Visual Studio\2019\Community\VC\Tools\MSVC\14.29.30133\atlmfc\include\afxtempl.h

; 1876 : 		: BASE_CLASS(nBlockSize) { }

  0004a	e8 00 00 00 00	 call	 ??0CObList@@QAE@H@Z	; CObList::CObList

; 1953 : 		: _CTypedPtrList<BASE_CLASS, TYPE>(nBlockSize) { }

  0004f	c7 06 00 00 00
	00		 mov	 DWORD PTR [esi], OFFSET ??_7?$CTypedPtrList@VCObList@@PAVCBlockImp@@@@6B@
; File D:\git\src\IBK\IBK_DRFN\ProjSrc\SrcChartEx\ChartOCX\ChartObject\BlocksColumn.cpp

; 36   : 	m_hOcxWnd = pMain->GetMainBlockBaseData()->GetParent_Handle();

  00055	8b cf		 mov	 ecx, edi
  00057	c7 45 fc 00 00
	00 00		 mov	 DWORD PTR __$EHRec$[ebp+8], 0
  0005e	e8 00 00 00 00	 call	 ?GetMainBlockBaseData@CMainBlockImp@@QBEPAVCMainBlockBaseData@@XZ ; CMainBlockImp::GetMainBlockBaseData
  00063	8b c8		 mov	 ecx, eax
  00065	e8 00 00 00 00	 call	 ?GetParent_Handle@CMainBlockBaseData@@QBEPAUHWND__@@XZ ; CMainBlockBaseData::GetParent_Handle
  0006a	89 43 2c	 mov	 DWORD PTR [ebx+44], eax

; 37   : }

  0006d	8b c3		 mov	 eax, ebx
  0006f	8b 4d f4	 mov	 ecx, DWORD PTR __$EHRec$[ebp]
  00072	64 89 0d 00 00
	00 00		 mov	 DWORD PTR fs:0, ecx
  00079	59		 pop	 ecx
  0007a	5f		 pop	 edi
  0007b	5e		 pop	 esi
  0007c	5b		 pop	 ebx
  0007d	8b e5		 mov	 esp, ebp
  0007f	5d		 pop	 ebp
  00080	c2 04 00	 ret	 4
_TEXT	ENDS
;	COMDAT text$x
text$x	SEGMENT
__unwindfunclet$??0CBlocksColumn@@QAE@PAVCMainBlockImp@@@Z$0:
  00000	8b 4d f0	 mov	 ecx, DWORD PTR _this$[ebp]
  00003	83 c1 10	 add	 ecx, 16			; 00000010H
  00006	e9 00 00 00 00	 jmp	 ??1?$CTypedPtrList@VCObList@@PAVCBlockImp@@@@UAE@XZ
  0000b	cc		 int	 3
  0000c	cc		 int	 3
  0000d	cc		 int	 3
  0000e	cc		 int	 3
  0000f	cc		 int	 3
__ehhandler$??0CBlocksColumn@@QAE@PAVCMainBlockImp@@@Z:
  00010	90		 npad	 1
  00011	90		 npad	 1
  00012	8b 54 24 08	 mov	 edx, DWORD PTR [esp+8]
  00016	8d 42 0c	 lea	 eax, DWORD PTR [edx+12]
  00019	8b 4a ec	 mov	 ecx, DWORD PTR [edx-20]
  0001c	33 c8		 xor	 ecx, eax
  0001e	e8 00 00 00 00	 call	 @__security_check_cookie@4
  00023	b8 00 00 00 00	 mov	 eax, OFFSET __ehfuncinfo$??0CBlocksColumn@@QAE@PAVCMainBlockImp@@@Z
  00028	e9 00 00 00 00	 jmp	 ___CxxFrameHandler3
text$x	ENDS
??0CBlocksColumn@@QAE@PAVCMainBlockImp@@@Z ENDP		; CBlocksColumn::CBlocksColumn
; Function compile flags: /Ogtp
; File C:\Program Files (x86)\Microsoft Visual Studio\2019\Community\VC\Tools\MSVC\14.29.30133\atlmfc\include\afx.inl
;	COMDAT ?Dump@CObject@@UBEXAAVCDumpContext@@@Z
_TEXT	SEGMENT
___formal$ = 8						; size = 4
?Dump@CObject@@UBEXAAVCDumpContext@@@Z PROC		; CObject::Dump, COMDAT
; _this$ = ecx

; 122  : 	{ /* no dumping in release builds */ }

  00000	c2 04 00	 ret	 4
?Dump@CObject@@UBEXAAVCDumpContext@@@Z ENDP		; CObject::Dump
_TEXT	ENDS
; Function compile flags: /Ogtp
; File C:\Program Files (x86)\Microsoft Visual Studio\2019\Community\VC\Tools\MSVC\14.29.30133\atlmfc\include\afx.inl
;	COMDAT ?AssertValid@CObject@@UBEXXZ
_TEXT	SEGMENT
?AssertValid@CObject@@UBEXXZ PROC			; CObject::AssertValid, COMDAT
; _this$ = ecx

; 120  : 	{ /* no asserts in release builds */ }

  00000	c2 00 00	 ret	 0
?AssertValid@CObject@@UBEXXZ ENDP			; CObject::AssertValid
_TEXT	ENDS
; Function compile flags: /Ogtp
; File C:\Program Files (x86)\Microsoft Visual Studio\2019\Community\VC\Tools\MSVC\14.29.30133\atlmfc\include\afx.inl
;	COMDAT ?Serialize@CObject@@UAEXAAVCArchive@@@Z
_TEXT	SEGMENT
___formal$ = 8						; size = 4
?Serialize@CObject@@UAEXAAVCArchive@@@Z PROC		; CObject::Serialize, COMDAT
; _this$ = ecx

; 106  : 	{ /* CObject does not serialize anything by default */ }

  00000	c2 04 00	 ret	 4
?Serialize@CObject@@UAEXAAVCArchive@@@Z ENDP		; CObject::Serialize
_TEXT	ENDS
; Function compile flags: /Ogtp
; File C:\Program Files (x86)\Microsoft Visual Studio\2019\Community\VC\Tools\MSVC\14.29.30133\atlmfc\include\afx.inl
;	COMDAT ??3CObject@@SGXPAX@Z
_TEXT	SEGMENT
_p$ = 8							; size = 4
??3CObject@@SGXPAX@Z PROC				; CObject::operator delete, COMDAT

; 112  : 	{ ::operator delete(p); }

  00000	55		 push	 ebp
  00001	8b ec		 mov	 ebp, esp
  00003	ff 75 08	 push	 DWORD PTR _p$[ebp]
  00006	e8 00 00 00 00	 call	 ??3@YAXPAX@Z		; operator delete
  0000b	83 c4 04	 add	 esp, 4
  0000e	5d		 pop	 ebp
  0000f	c2 04 00	 ret	 4
??3CObject@@SGXPAX@Z ENDP				; CObject::operator delete
_TEXT	ENDS
; Function compile flags: /Ogtp
; File C:\Program Files (x86)\Microsoft Visual Studio\2019\Community\VC\Tools\MSVC\14.29.30133\atlmfc\include\afx.inl
;	COMDAT ??1CObject@@UAE@XZ
_TEXT	SEGMENT
??1CObject@@UAE@XZ PROC					; CObject::~CObject, COMDAT
; _this$ = ecx

; 104  : 	{ }

  00000	c2 00 00	 ret	 0
??1CObject@@UAE@XZ ENDP					; CObject::~CObject
_TEXT	ENDS
; Function compile flags: /Ogtp
; File D:\git\src\IBK\IBK_DRFN\ProjSrc\SrcChartEx\ChartOCX\ChartObject\BlocksColumn.cpp
;	COMDAT ?__empty_global_delete@@YAXPAXI@Z
_TEXT	SEGMENT
___formal$ = 8						; size = 4
___formal$ = 12						; size = 4
?__empty_global_delete@@YAXPAXI@Z PROC			; __empty_global_delete, COMDAT

  00000	c2 00 00	 ret	 0
?__empty_global_delete@@YAXPAXI@Z ENDP			; __empty_global_delete
_TEXT	ENDS
; Function compile flags: /Ogtp
; File D:\git\src\IBK\IBK_DRFN\ProjSrc\SrcChartEx\ChartOCX\ChartObject\BlocksColumn.cpp
;	COMDAT ?__empty_global_delete@@YAXPAX@Z
_TEXT	SEGMENT
___formal$ = 8						; size = 4
?__empty_global_delete@@YAXPAX@Z PROC			; __empty_global_delete, COMDAT

  00000	c2 00 00	 ret	 0
?__empty_global_delete@@YAXPAX@Z ENDP			; __empty_global_delete
_TEXT	ENDS
END
