; Listing generated by Microsoft (R) Optimizing Compiler Version 19.29.30145.0 

	TITLE	D:\git\src\IBK\IBK_DRFN\#DRfn-CS\_Obj\ChartObject\BlockImp.obj
	.686P
	.XMM
	include listing.inc
	.model	flat

INCLUDELIB MSVCRT
INCLUDELIB OLDNAMES

CONST	SEGMENT
?_Fake_alloc@std@@3U_Fake_allocator@1@B	ORG $+1		; std::_Fake_alloc
CONST	ENDS
PUBLIC	?__empty_global_delete@@YAXPAX@Z		; __empty_global_delete
PUBLIC	?__empty_global_delete@@YAXPAXI@Z		; __empty_global_delete
PUBLIC	??1CObject@@UAE@XZ				; CObject::~CObject
PUBLIC	??3CObject@@SGXPAX@Z				; CObject::operator delete
PUBLIC	?Serialize@CObject@@UAEXAAVCArchive@@@Z		; CObject::Serialize
PUBLIC	?AssertValid@CObject@@UBEXXZ			; CObject::AssertValid
PUBLIC	?Dump@CObject@@UBEXAAVCDumpContext@@@Z		; CObject::Dump
PUBLIC	??_GCBlock@@UAEPAXI@Z				; CBlock::`scalar deleting destructor'
PUBLIC	??1CBlockData@@QAE@XZ				; CBlockData::~CBlockData
PUBLIC	??0CBlockImp@@IAE@PAVCMainBlockBaseData@@PAVCBlocksColumn@@@Z ; CBlockImp::CBlockImp
PUBLIC	?Make@CBlockImp@@SAPAV1@PAVCMainBlockBaseData@@PAVCBlocksColumn@@@Z ; CBlockImp::Make
PUBLIC	?BuildGraphsAndScales@CBlockImp@@QAEXPADAAH@Z	; CBlockImp::BuildGraphsAndScales
PUBLIC	?BuildGraphsAndScales@CBlockImp@@QAEXPAXPAD@Z	; CBlockImp::BuildGraphsAndScales
PUBLIC	?GetBlockAllData@CBlockImp@@QBEXAAVCStringList@@@Z ; CBlockImp::GetBlockAllData
PUBLIC	??1CBlockImp@@MAE@XZ				; CBlockImp::~CBlockImp
PUBLIC	?Delete@CBlockImp@@SAXPAV1@@Z			; CBlockImp::Delete
PUBLIC	?DeleteFromParent@CBlockImp@@QAEXXZ		; CBlockImp::DeleteFromParent
PUBLIC	?DeleteGraph@CBlockImp@@UAEHHH@Z		; CBlockImp::DeleteGraph
PUBLIC	?DrawBlockBackground@CBlockImp@@QAEXPAVCDC@@ABVCRect@@H@Z ; CBlockImp::DrawBlockBackground
PUBLIC	?DrawHorzAndVertScale@CBlockImp@@QAEXPAVCDC@@ABVCRect@@@Z ; CBlockImp::DrawHorzAndVertScale
PUBLIC	?CalculateDrawingRegion@CBlockImp@@QAEXPAVCDC@@ABVCRect@@ABVCVertScaleRegionWidth@@@Z ; CBlockImp::CalculateDrawingRegion
PUBLIC	?DrawAllGraphs@CBlockImp@@QAEXPAVCDC@@ABVCRect@@@Z ; CBlockImp::DrawAllGraphs
PUBLIC	?GetMainBlock@CBlockImp@@QBEPAVCMainBlockImp@@XZ ; CBlockImp::GetMainBlock
PUBLIC	?GetBlocksColumn@CBlockImp@@QAEPAVCBlocksColumn@@XZ ; CBlockImp::GetBlocksColumn
PUBLIC	?GetBlockData@CBlockImp@@QAEAAVCBlockData@@XZ	; CBlockImp::GetBlockData
PUBLIC	?GetBlockData@CBlockImp@@QBEABVCBlockData@@XZ	; CBlockImp::GetBlockData
PUBLIC	?GetVertScaleGroupList@CBlockImp@@QAEAAVCVertScaleGroupList@@XZ ; CBlockImp::GetVertScaleGroupList
PUBLIC	?GetVertScaleGroupList@CBlockImp@@QBEABVCVertScaleGroupList@@XZ ; CBlockImp::GetVertScaleGroupList
PUBLIC	?GetGraphRegions@CBlockImp@@UAEHAAVCRect@@0@Z	; CBlockImp::GetGraphRegions
PUBLIC	?GetHorzScaleRegion@CBlockImp@@UAEHAAVCRect@@0@Z ; CBlockImp::GetHorzScaleRegion
PUBLIC	?GetVertScaleRegion@CBlockImp@@UAEHAAVCRect@@0@Z ; CBlockImp::GetVertScaleRegion
PUBLIC	?GetGraphDrwingRegion@CBlockImp@@UAE?AVCRect@@W4REGIONPOSITION@CBlock@@@Z ; CBlockImp::GetGraphDrwingRegion
PUBLIC	?GetDateCompart@CBlockImp@@UAE?AV?$CStringT@DV?$StrTraitMFC_DLL@DV?$ChTraitsCRT@D@ATL@@@@@ATL@@XZ ; CBlockImp::GetDateCompart
PUBLIC	?GetTimeCompart@CBlockImp@@UAE?AV?$CStringT@DV?$StrTraitMFC_DLL@DV?$ChTraitsCRT@D@ATL@@@@@ATL@@XZ ; CBlockImp::GetTimeCompart
PUBLIC	?GetViewHorzMinMax@CBlockImp@@QAE?AVCDisplayDataMinMax@@XZ ; CBlockImp::GetViewHorzMinMax
PUBLIC	?GetScaleTextType@CBlockImp@@UAE?AW4TEXTCOMPARTTYPE@CScaleBaseData@@XZ ; CBlockImp::GetScaleTextType
PUBLIC	?GetHorizontalScaleHeight@CBlockImp@@UBEHXZ	; CBlockImp::GetHorizontalScaleHeight
PUBLIC	?SetAllScaleGridType@CBlockImp@@QAEXW4SCALEGRIDTYPE@CScaleBaseData@@@Z ; CBlockImp::SetAllScaleGridType
PUBLIC	?GetFirstVisibleVScaleIndex@CBlockImp@@UAEHXZ	; CBlockImp::GetFirstVisibleVScaleIndex
PUBLIC	?GetVScalePosition@CBlockImp@@UAE?AW4VERTSCALEPOSITION@CScaleBaseData@@H@Z ; CBlockImp::GetVScalePosition
PUBLIC	?SetVScaleMinMaxSetting@CBlockImp@@UAEHHHW4VERTMINMAXTYPE@CScaleBaseData@@NN@Z ; CBlockImp::SetVScaleMinMaxSetting
PUBLIC	?GetVScaleMinMaxSetting@CBlockImp@@UAEHHAAHAAW4VERTMINMAXTYPE@CScaleBaseData@@AAN2@Z ; CBlockImp::GetVScaleMinMaxSetting
PUBLIC	?GetVScaleMinMaxType@CBlockImp@@UAE?AW4VERTMINMAXTYPE@CScaleBaseData@@H@Z ; CBlockImp::GetVScaleMinMaxType
PUBLIC	?GetYScaleMinMax@CBlockImp@@UAEHHAAN0@Z		; CBlockImp::GetYScaleMinMax
PUBLIC	?IsLogScale@CBlockImp@@UAEHXZ			; CBlockImp::IsLogScale
PUBLIC	?SetLogScale@CBlockImp@@UAEHH@Z			; CBlockImp::SetLogScale
PUBLIC	?IsVScaleInvert@CBlockImp@@UAEHH@Z		; CBlockImp::IsVScaleInvert
PUBLIC	?SetVScaleInvert@CBlockImp@@UAEHHH@Z		; CBlockImp::SetVScaleInvert
PUBLIC	?HasInvertScale@CBlockImp@@UAEHXZ		; CBlockImp::HasInvertScale
PUBLIC	?SetAllInvertScale@CBlockImp@@UAEHH@Z		; CBlockImp::SetAllInvertScale
PUBLIC	?GetActiveVScaleIndex@CBlockImp@@UAEHW4VERTSCALEPOSITION@CScaleBaseData@@@Z ; CBlockImp::GetActiveVScaleIndex
PUBLIC	?GetVScaleCount@CBlockImp@@UAEHXZ		; CBlockImp::GetVScaleCount
PUBLIC	?GetIndexOfGraph@CBlockImp@@UAEHPBDAAH1@Z	; CBlockImp::GetIndexOfGraph
PUBLIC	?UpdateGraphWithGraphInfo@CBlockImp@@UAEHHHH@Z	; CBlockImp::UpdateGraphWithGraphInfo
PUBLIC	?FindFirstIndicator@CBlockImp@@UAEHPBDAAH1AAV?$CStringT@DV?$StrTraitMFC_DLL@DV?$ChTraitsCRT@D@ATL@@@@@ATL@@0@Z ; CBlockImp::FindFirstIndicator
PUBLIC	?FindNextIndicator@CBlockImp@@UAEHPBDAAH1AAV?$CStringT@DV?$StrTraitMFC_DLL@DV?$ChTraitsCRT@D@ATL@@@@@ATL@@0@Z ; CBlockImp::FindNextIndicator
PUBLIC	?GetHeadPacketAndDataType@CBlockImp@@UAEHHAAPAVCPacket@@AAN@Z ; CBlockImp::GetHeadPacketAndDataType
PUBLIC	?GetHorzScaleDataRQ@CBlockImp@@QAE?AV?$CStringT@DV?$StrTraitMFC_DLL@DV?$ChTraitsCRT@D@ATL@@@@@ATL@@XZ ; CBlockImp::GetHorzScaleDataRQ
PUBLIC	?GetHorzScaleDataPacket@CBlockImp@@UAEPAVCPacket@@XZ ; CBlockImp::GetHorzScaleDataPacket
PUBLIC	?GetMasterValueRQ@CBlockImp@@MAEPBDXZ		; CBlockImp::GetMasterValueRQ
PUBLIC	?GetCoordinateInfos@CBlockImp@@MAE?AV?$CStringT@DV?$StrTraitMFC_DLL@DV?$ChTraitsCRT@D@ATL@@@@@ATL@@AAPAVCPacket@@0AAN11AAH2@Z ; CBlockImp::GetCoordinateInfos
PUBLIC	??_GCBlockImp@@MAEPAXI@Z			; CBlockImp::`scalar deleting destructor'
PUBLIC	??1CHorzDisplayDataMinMaxInputData@@QAE@XZ	; CHorzDisplayDataMinMaxInputData::~CHorzDisplayDataMinMaxInputData
PUBLIC	??1CHorzScaleMaxWidthCalculatorData@@QAE@XZ	; CHorzScaleMaxWidthCalculatorData::~CHorzScaleMaxWidthCalculatorData
PUBLIC	??1CGraphSearchInfo_AnyGraphWithRQ@@QAE@XZ	; CGraphSearchInfo_AnyGraphWithRQ::~CGraphSearchInfo_AnyGraphWithRQ
PUBLIC	??1CGraphSearchInfo_IndicatorName@@QAE@XZ	; CGraphSearchInfo_IndicatorName::~CGraphSearchInfo_IndicatorName
PUBLIC	??0CGraphSearchInfo_IndicatorNameWithRQ@@QAE@XZ	; CGraphSearchInfo_IndicatorNameWithRQ::CGraphSearchInfo_IndicatorNameWithRQ
PUBLIC	??1CGraphSearchInfo_IndicatorNameWithRQ@@QAE@XZ	; CGraphSearchInfo_IndicatorNameWithRQ::~CGraphSearchInfo_IndicatorNameWithRQ
PUBLIC	??1CGraphSearchInfo_GraphName@@QAE@XZ		; CGraphSearchInfo_GraphName::~CGraphSearchInfo_GraphName
PUBLIC	??_C@_00CNPNBAHC@@				; `string'
PUBLIC	??_R0?AVCObject@@@8				; CObject `RTTI Type Descriptor'
PUBLIC	??_R3CObject@@8					; CObject::`RTTI Class Hierarchy Descriptor'
PUBLIC	??_R2CObject@@8					; CObject::`RTTI Base Class Array'
PUBLIC	??_R1A@?0A@EA@CObject@@8			; CObject::`RTTI Base Class Descriptor at (0,-1,0,64)'
PUBLIC	??_7CBlock@@6B@					; CBlock::`vftable'
PUBLIC	??_7CBlockImp@@6B@				; CBlockImp::`vftable'
PUBLIC	??_7CGraphSearchInfo_InvertVSCaleGroup@@6B@	; CGraphSearchInfo_InvertVSCaleGroup::`vftable'
PUBLIC	??_7CGraphSearchInfo_HasVertScale@@6B@		; CGraphSearchInfo_HasVertScale::`vftable'
PUBLIC	??_7CGraphSearchInfo_AnyGraph@@6B@		; CGraphSearchInfo_AnyGraph::`vftable'
PUBLIC	??_7CGraphSearchInfo_AnyGraphWithRQ@@6B@	; CGraphSearchInfo_AnyGraphWithRQ::`vftable'
PUBLIC	??_7CGraphSearchInfo_IndicatorName@@6B@		; CGraphSearchInfo_IndicatorName::`vftable'
PUBLIC	??_7CGraphSearchInfo_IndicatorNameWithRQ@@6B@	; CGraphSearchInfo_IndicatorNameWithRQ::`vftable'
PUBLIC	??_7CGraphSearchInfo_GraphName@@6B@		; CGraphSearchInfo_GraphName::`vftable'
PUBLIC	??_7CGraphSearchInfo_VisibleSubGraph@@6B@	; CGraphSearchInfo_VisibleSubGraph::`vftable'
PUBLIC	??_7CGraphSearchInfo_VisibleGraphTitle@@6B@	; CGraphSearchInfo_VisibleGraphTitle::`vftable'
PUBLIC	??_7CGraphSearchInfo_GraphType@@6B@		; CGraphSearchInfo_GraphType::`vftable'
PUBLIC	??_7CGraphSearchInfo_TypeStyleDrawStyle@@6B@	; CGraphSearchInfo_TypeStyleDrawStyle::`vftable'
PUBLIC	??_C@_02PCIJFNDE@?$AN?6@			; `string'
PUBLIC	??_C@_08KGLHHGPJ@Block?$DL?$AN?6@		; `string'
PUBLIC	??_C@_01ICJEACDI@?$DL@				; `string'
PUBLIC	??_C@_03LKGCEJK@?$DL?$AN?6@			; `string'
PUBLIC	??_C@_0M@FHFNKLHB@BlockEnd?$DL?$AN?6@		; `string'
PUBLIC	??_C@_07MGCPDNLD@DEFAULT@			; `string'
PUBLIC	??_R4CBlock@@6B@				; CBlock::`RTTI Complete Object Locator'
PUBLIC	??_R0?AVCBlock@@@8				; CBlock `RTTI Type Descriptor'
PUBLIC	??_R3CBlock@@8					; CBlock::`RTTI Class Hierarchy Descriptor'
PUBLIC	??_R2CBlock@@8					; CBlock::`RTTI Base Class Array'
PUBLIC	??_R1A@?0A@EA@CBlock@@8				; CBlock::`RTTI Base Class Descriptor at (0,-1,0,64)'
PUBLIC	??_R4CBlockImp@@6B@				; CBlockImp::`RTTI Complete Object Locator'
PUBLIC	??_R0?AVCBlockImp@@@8				; CBlockImp `RTTI Type Descriptor'
PUBLIC	??_R3CBlockImp@@8				; CBlockImp::`RTTI Class Hierarchy Descriptor'
PUBLIC	??_R2CBlockImp@@8				; CBlockImp::`RTTI Base Class Array'
PUBLIC	??_R1A@?0A@EA@CBlockImp@@8			; CBlockImp::`RTTI Base Class Descriptor at (0,-1,0,64)'
PUBLIC	??_R4CGraphSearchInfo_InvertVSCaleGroup@@6B@	; CGraphSearchInfo_InvertVSCaleGroup::`RTTI Complete Object Locator'
PUBLIC	??_R0?AVCGraphSearchInfo_InvertVSCaleGroup@@@8	; CGraphSearchInfo_InvertVSCaleGroup `RTTI Type Descriptor'
PUBLIC	??_R3CGraphSearchInfo_InvertVSCaleGroup@@8	; CGraphSearchInfo_InvertVSCaleGroup::`RTTI Class Hierarchy Descriptor'
PUBLIC	??_R2CGraphSearchInfo_InvertVSCaleGroup@@8	; CGraphSearchInfo_InvertVSCaleGroup::`RTTI Base Class Array'
PUBLIC	??_R1A@?0A@EA@CGraphSearchInfo_InvertVSCaleGroup@@8 ; CGraphSearchInfo_InvertVSCaleGroup::`RTTI Base Class Descriptor at (0,-1,0,64)'
PUBLIC	??_R1A@?0A@EA@CGraphSearchInfo@@8		; CGraphSearchInfo::`RTTI Base Class Descriptor at (0,-1,0,64)'
PUBLIC	??_R0?AVCGraphSearchInfo@@@8			; CGraphSearchInfo `RTTI Type Descriptor'
PUBLIC	??_R3CGraphSearchInfo@@8			; CGraphSearchInfo::`RTTI Class Hierarchy Descriptor'
PUBLIC	??_R2CGraphSearchInfo@@8			; CGraphSearchInfo::`RTTI Base Class Array'
PUBLIC	??_R4CGraphSearchInfo_HasVertScale@@6B@		; CGraphSearchInfo_HasVertScale::`RTTI Complete Object Locator'
PUBLIC	??_R0?AVCGraphSearchInfo_HasVertScale@@@8	; CGraphSearchInfo_HasVertScale `RTTI Type Descriptor'
PUBLIC	??_R3CGraphSearchInfo_HasVertScale@@8		; CGraphSearchInfo_HasVertScale::`RTTI Class Hierarchy Descriptor'
PUBLIC	??_R2CGraphSearchInfo_HasVertScale@@8		; CGraphSearchInfo_HasVertScale::`RTTI Base Class Array'
PUBLIC	??_R1A@?0A@EA@CGraphSearchInfo_HasVertScale@@8	; CGraphSearchInfo_HasVertScale::`RTTI Base Class Descriptor at (0,-1,0,64)'
PUBLIC	??_R4CGraphSearchInfo_AnyGraph@@6B@		; CGraphSearchInfo_AnyGraph::`RTTI Complete Object Locator'
PUBLIC	??_R0?AVCGraphSearchInfo_AnyGraph@@@8		; CGraphSearchInfo_AnyGraph `RTTI Type Descriptor'
PUBLIC	??_R3CGraphSearchInfo_AnyGraph@@8		; CGraphSearchInfo_AnyGraph::`RTTI Class Hierarchy Descriptor'
PUBLIC	??_R2CGraphSearchInfo_AnyGraph@@8		; CGraphSearchInfo_AnyGraph::`RTTI Base Class Array'
PUBLIC	??_R1A@?0A@EA@CGraphSearchInfo_AnyGraph@@8	; CGraphSearchInfo_AnyGraph::`RTTI Base Class Descriptor at (0,-1,0,64)'
PUBLIC	??_R4CGraphSearchInfo_AnyGraphWithRQ@@6B@	; CGraphSearchInfo_AnyGraphWithRQ::`RTTI Complete Object Locator'
PUBLIC	??_R0?AVCGraphSearchInfo_AnyGraphWithRQ@@@8	; CGraphSearchInfo_AnyGraphWithRQ `RTTI Type Descriptor'
PUBLIC	??_R3CGraphSearchInfo_AnyGraphWithRQ@@8		; CGraphSearchInfo_AnyGraphWithRQ::`RTTI Class Hierarchy Descriptor'
PUBLIC	??_R2CGraphSearchInfo_AnyGraphWithRQ@@8		; CGraphSearchInfo_AnyGraphWithRQ::`RTTI Base Class Array'
PUBLIC	??_R1A@?0A@EA@CGraphSearchInfo_AnyGraphWithRQ@@8 ; CGraphSearchInfo_AnyGraphWithRQ::`RTTI Base Class Descriptor at (0,-1,0,64)'
PUBLIC	??_R4CGraphSearchInfo_IndicatorName@@6B@	; CGraphSearchInfo_IndicatorName::`RTTI Complete Object Locator'
PUBLIC	??_R0?AVCGraphSearchInfo_IndicatorName@@@8	; CGraphSearchInfo_IndicatorName `RTTI Type Descriptor'
PUBLIC	??_R3CGraphSearchInfo_IndicatorName@@8		; CGraphSearchInfo_IndicatorName::`RTTI Class Hierarchy Descriptor'
PUBLIC	??_R2CGraphSearchInfo_IndicatorName@@8		; CGraphSearchInfo_IndicatorName::`RTTI Base Class Array'
PUBLIC	??_R1A@?0A@EA@CGraphSearchInfo_IndicatorName@@8	; CGraphSearchInfo_IndicatorName::`RTTI Base Class Descriptor at (0,-1,0,64)'
PUBLIC	??_R4CGraphSearchInfo_IndicatorNameWithRQ@@6B@	; CGraphSearchInfo_IndicatorNameWithRQ::`RTTI Complete Object Locator'
PUBLIC	??_R0?AVCGraphSearchInfo_IndicatorNameWithRQ@@@8 ; CGraphSearchInfo_IndicatorNameWithRQ `RTTI Type Descriptor'
PUBLIC	??_R3CGraphSearchInfo_IndicatorNameWithRQ@@8	; CGraphSearchInfo_IndicatorNameWithRQ::`RTTI Class Hierarchy Descriptor'
PUBLIC	??_R2CGraphSearchInfo_IndicatorNameWithRQ@@8	; CGraphSearchInfo_IndicatorNameWithRQ::`RTTI Base Class Array'
PUBLIC	??_R1A@?0A@EA@CGraphSearchInfo_IndicatorNameWithRQ@@8 ; CGraphSearchInfo_IndicatorNameWithRQ::`RTTI Base Class Descriptor at (0,-1,0,64)'
PUBLIC	??_R4CGraphSearchInfo_GraphName@@6B@		; CGraphSearchInfo_GraphName::`RTTI Complete Object Locator'
PUBLIC	??_R0?AVCGraphSearchInfo_GraphName@@@8		; CGraphSearchInfo_GraphName `RTTI Type Descriptor'
PUBLIC	??_R3CGraphSearchInfo_GraphName@@8		; CGraphSearchInfo_GraphName::`RTTI Class Hierarchy Descriptor'
PUBLIC	??_R2CGraphSearchInfo_GraphName@@8		; CGraphSearchInfo_GraphName::`RTTI Base Class Array'
PUBLIC	??_R1A@?0A@EA@CGraphSearchInfo_GraphName@@8	; CGraphSearchInfo_GraphName::`RTTI Base Class Descriptor at (0,-1,0,64)'
PUBLIC	??_R4CGraphSearchInfo_VisibleSubGraph@@6B@	; CGraphSearchInfo_VisibleSubGraph::`RTTI Complete Object Locator'
PUBLIC	??_R0?AVCGraphSearchInfo_VisibleSubGraph@@@8	; CGraphSearchInfo_VisibleSubGraph `RTTI Type Descriptor'
PUBLIC	??_R3CGraphSearchInfo_VisibleSubGraph@@8	; CGraphSearchInfo_VisibleSubGraph::`RTTI Class Hierarchy Descriptor'
PUBLIC	??_R2CGraphSearchInfo_VisibleSubGraph@@8	; CGraphSearchInfo_VisibleSubGraph::`RTTI Base Class Array'
PUBLIC	??_R1A@?0A@EA@CGraphSearchInfo_VisibleSubGraph@@8 ; CGraphSearchInfo_VisibleSubGraph::`RTTI Base Class Descriptor at (0,-1,0,64)'
PUBLIC	??_R4CGraphSearchInfo_VisibleGraphTitle@@6B@	; CGraphSearchInfo_VisibleGraphTitle::`RTTI Complete Object Locator'
PUBLIC	??_R0?AVCGraphSearchInfo_VisibleGraphTitle@@@8	; CGraphSearchInfo_VisibleGraphTitle `RTTI Type Descriptor'
PUBLIC	??_R3CGraphSearchInfo_VisibleGraphTitle@@8	; CGraphSearchInfo_VisibleGraphTitle::`RTTI Class Hierarchy Descriptor'
PUBLIC	??_R2CGraphSearchInfo_VisibleGraphTitle@@8	; CGraphSearchInfo_VisibleGraphTitle::`RTTI Base Class Array'
PUBLIC	??_R1A@?0A@EA@CGraphSearchInfo_VisibleGraphTitle@@8 ; CGraphSearchInfo_VisibleGraphTitle::`RTTI Base Class Descriptor at (0,-1,0,64)'
PUBLIC	??_R4CGraphSearchInfo_GraphType@@6B@		; CGraphSearchInfo_GraphType::`RTTI Complete Object Locator'
PUBLIC	??_R0?AVCGraphSearchInfo_GraphType@@@8		; CGraphSearchInfo_GraphType `RTTI Type Descriptor'
PUBLIC	??_R3CGraphSearchInfo_GraphType@@8		; CGraphSearchInfo_GraphType::`RTTI Class Hierarchy Descriptor'
PUBLIC	??_R2CGraphSearchInfo_GraphType@@8		; CGraphSearchInfo_GraphType::`RTTI Base Class Array'
PUBLIC	??_R1A@?0A@EA@CGraphSearchInfo_GraphType@@8	; CGraphSearchInfo_GraphType::`RTTI Base Class Descriptor at (0,-1,0,64)'
PUBLIC	??_R4CGraphSearchInfo_TypeStyleDrawStyle@@6B@	; CGraphSearchInfo_TypeStyleDrawStyle::`RTTI Complete Object Locator'
PUBLIC	??_R0?AVCGraphSearchInfo_TypeStyleDrawStyle@@@8	; CGraphSearchInfo_TypeStyleDrawStyle `RTTI Type Descriptor'
PUBLIC	??_R3CGraphSearchInfo_TypeStyleDrawStyle@@8	; CGraphSearchInfo_TypeStyleDrawStyle::`RTTI Class Hierarchy Descriptor'
PUBLIC	??_R2CGraphSearchInfo_TypeStyleDrawStyle@@8	; CGraphSearchInfo_TypeStyleDrawStyle::`RTTI Base Class Array'
PUBLIC	??_R1A@?0A@EA@CGraphSearchInfo_TypeStyleDrawStyle@@8 ; CGraphSearchInfo_TypeStyleDrawStyle::`RTTI Base Class Descriptor at (0,-1,0,64)'
PUBLIC	__real@3ff0000000000000
EXTRN	__purecall:PROC
EXTRN	??2@YAPAXI@Z:PROC				; operator new
EXTRN	??3@YAXPAX@Z:PROC				; operator delete
EXTRN	?__global_delete@@YAXPAXI@Z:PROC		; __global_delete
EXTRN	_strchr:PROC
EXTRN	_strstr:PROC
EXTRN	__imp__atoi:PROC
EXTRN	?GetRuntimeClass@CObject@@UBEPAUCRuntimeClass@@XZ:PROC ; CObject::GetRuntimeClass
EXTRN	__imp_?Empty@?$CSimpleStringT@D$00@ATL@@QAEXXZ:PROC
EXTRN	__imp_??0?$CStringT@DV?$StrTraitMFC_DLL@DV?$ChTraitsCRT@D@ATL@@@@@ATL@@QAE@XZ:PROC
EXTRN	__imp_??0?$CStringT@DV?$StrTraitMFC_DLL@DV?$ChTraitsCRT@D@ATL@@@@@ATL@@QAE@ABV01@@Z:PROC
EXTRN	__imp_??0?$CStringT@DV?$StrTraitMFC_DLL@DV?$ChTraitsCRT@D@ATL@@@@@ATL@@QAE@PBD@Z:PROC
EXTRN	__imp_??0?$CStringT@DV?$StrTraitMFC_DLL@DV?$ChTraitsCRT@D@ATL@@@@@ATL@@QAE@DH@Z:PROC
EXTRN	__imp_??1?$CStringT@DV?$StrTraitMFC_DLL@DV?$ChTraitsCRT@D@ATL@@@@@ATL@@QAE@XZ:PROC
EXTRN	__imp_??4?$CStringT@DV?$StrTraitMFC_DLL@DV?$ChTraitsCRT@D@ATL@@@@@ATL@@QAEAAV01@ABV01@@Z:PROC
EXTRN	__imp_??4?$CStringT@DV?$StrTraitMFC_DLL@DV?$ChTraitsCRT@D@ATL@@@@@ATL@@QAEAAV01@PBD@Z:PROC
EXTRN	??0CStringList@@QAE@H@Z:PROC			; CStringList::CStringList
EXTRN	?AddTail@CStringList@@QAEPAU__POSITION@@PBD@Z:PROC ; CStringList::AddTail
EXTRN	?AddTail@CStringList@@QAEPAU__POSITION@@ABV?$CStringT@DV?$StrTraitMFC_DLL@DV?$ChTraitsCRT@D@ATL@@@@@ATL@@@Z:PROC ; CStringList::AddTail
EXTRN	?AddTail@CStringList@@QAEXPAV1@@Z:PROC		; CStringList::AddTail
EXTRN	??1CStringList@@UAE@XZ:PROC			; CStringList::~CStringList
EXTRN	??_ECBlock@@UAEPAXI@Z:PROC			; CBlock::`vector deleting destructor'
EXTRN	__imp_?GetDateCompart@CScaleCompart@@QBE?AV?$CStringT@DV?$StrTraitMFC_DLL@DV?$ChTraitsCRT@D@ATL@@@@@ATL@@XZ:PROC
EXTRN	__imp_?GetTimeCompart@CScaleCompart@@QBE?AV?$CStringT@DV?$StrTraitMFC_DLL@DV?$ChTraitsCRT@D@ATL@@@@@ATL@@XZ:PROC
EXTRN	__imp_?GetScaleTextType@CScaleCompart@@QBE?AW4TEXTCOMPARTTYPE@CScaleBaseData@@XZ:PROC
EXTRN	__imp_?SetGridType@CScale@@QAEXW4SCALEGRIDTYPE@CScaleBaseData@@@Z:PROC
EXTRN	__imp_?GetScaleData@CScale@@QBE?AV?$CStringT@DV?$StrTraitMFC_DLL@DV?$ChTraitsCRT@D@ATL@@@@@ATL@@XZ:PROC
EXTRN	__imp_?GetHorzScalePosition@CHorizontalScale@@QBE?AW4HORZSCALEPOSITION@CScaleBaseData@@XZ:PROC
EXTRN	__imp_?GetScaleCompart@CHorizontalScale@@QAEAAVCScaleCompart@@XZ:PROC
EXTRN	__imp_?GetScaleAllData@CHorizontalScale@@QBEXAAV?$CStringT@DV?$StrTraitMFC_DLL@DV?$ChTraitsCRT@D@ATL@@@@@ATL@@@Z:PROC
EXTRN	__imp_??1CHorizontalScale@@QAE@XZ:PROC
EXTRN	__imp_?GetVertScalePosition@CVerticalScale@@QBE?AW4VERTSCALEPOSITION@CScaleBaseData@@XZ:PROC
EXTRN	__imp_??0CHorzScaleRegionHeight@@QAE@HH@Z:PROC
EXTRN	__imp_?GetTopScaleRegion@CHorzScaleRegion@@QBE?AVCRect@@XZ:PROC
EXTRN	__imp_?GetBottomScaleRegion@CHorzScaleRegion@@QBE?AVCRect@@XZ:PROC
EXTRN	__imp_?GetLeftScaleRegion@CVertScaleRegion@@QBE?AVCRect@@XZ:PROC
EXTRN	__imp_?GetRightScaleRegion@CVertScaleRegion@@QBE?AVCRect@@XZ:PROC
EXTRN	__imp_??4CDisplayDataMinMax@@QAEAAV0@ABV0@@Z:PROC
EXTRN	__imp_??0CDisplayDataMinMax@@QAE@XZ:PROC
EXTRN	__imp_??0CDisplayDataMinMax@@QAE@ABN0@Z:PROC
EXTRN	__imp_?GetDisplayMin@CDisplayDataMinMax@@QBENXZ:PROC
EXTRN	__imp_?GetDisplayMax@CDisplayDataMinMax@@QBENXZ:PROC
EXTRN	__imp_?GetGraphName@CGraphData@@QBE?AV?$CStringT@DV?$StrTraitMFC_DLL@DV?$ChTraitsCRT@D@ATL@@@@@ATL@@XZ:PROC
EXTRN	__imp_?GetType@CSubGraphDataBase@@QBE?AW4GRAPHTYPE@CGraphBaseData@@XZ:PROC
EXTRN	__imp_?GetStyle@CSubGraphDataBase@@QBE?AVCGraphStyle@@XZ:PROC
EXTRN	?GetDrawingRegion@CGraphRegions@@QBE?AVCRect@@W4GRAPHTYPE@CGraphBaseData@@ABVCGraphStyle@@@Z:PROC ; CGraphRegions::GetDrawingRegion
EXTRN	?GetGraphRegions@CDrawingRegion@@QAEAAVCGraphRegions@@XZ:PROC ; CDrawingRegion::GetGraphRegions
EXTRN	?GetGraphFrameRegion@CDrawingRegion@@QBE?AVCRect@@XZ:PROC ; CDrawingRegion::GetGraphFrameRegion
EXTRN	?GetHorzScaleRegion@CDrawingRegion@@QBE?AVCHorzScaleRegion@@XZ:PROC ; CDrawingRegion::GetHorzScaleRegion
EXTRN	?GetVertScaleRegion@CDrawingRegion@@QBE?AVCVertScaleRegion@@XZ:PROC ; CDrawingRegion::GetVertScaleRegion
EXTRN	??0CDrawingHorzScaleData@@QAE@ABVCRect@@ABW4GRAPHTYPE@CGraphBaseData@@ABVCGraphStyle@@ABVCGraphRegionColor@@ABVCScaleColor@@ABVCDisplayAttributes@@ABVCDisplayDataMinMax@@PAVCPacket@@HH@Z:PROC ; CDrawingHorzScaleData::CDrawingHorzScaleData
EXTRN	?GetMainBlockImpl@CMainAttributes@@QBEPAVCMainBlockImp@@XZ:PROC ; CMainAttributes::GetMainBlockImpl
EXTRN	?GetIChartCtrl@CMainAttributes@@QBEPAUIChartCtrl@@XZ:PROC ; CMainAttributes::GetIChartCtrl
EXTRN	?GetChartMode@CMainAttributes@@QBE?AW4CHART_MODE@CChartInfo@@XZ:PROC ; CMainAttributes::GetChartMode
EXTRN	?DoesAllTitleDrawHiding@CGraphAttributes@@QBE_NXZ:PROC ; CGraphAttributes::DoesAllTitleDrawHiding
EXTRN	?GetGraphBackgroundGapX@CGraphAttributes@@QBEHXZ:PROC ; CGraphAttributes::GetGraphBackgroundGapX
EXTRN	?GetGraphBackgroundGapY@CGraphAttributes@@QBEHXZ:PROC ; CGraphAttributes::GetGraphBackgroundGapY
EXTRN	?GetScaleColor@CScaleAttributes@@QAEAAVCScaleColor@@XZ:PROC ; CScaleAttributes::GetScaleColor
EXTRN	?GetMinHorzScaleRegionHeight@CScaleAttributes@@QBEHXZ:PROC ; CScaleAttributes::GetMinHorzScaleRegionHeight
EXTRN	?GetMaxVertScaleRegionWidth@CScaleAttributes@@QBEHXZ:PROC ; CScaleAttributes::GetMaxVertScaleRegionWidth
EXTRN	?GetMainAttributes@CMainBlockBaseData@@QAEAAVCMainAttributes@@XZ:PROC ; CMainBlockBaseData::GetMainAttributes
EXTRN	?GetGraphAttributes@CMainBlockBaseData@@QAEAAVCGraphAttributes@@XZ:PROC ; CMainBlockBaseData::GetGraphAttributes
EXTRN	?GetScaleAttributes@CMainBlockBaseData@@QAEAAVCScaleAttributes@@XZ:PROC ; CMainBlockBaseData::GetScaleAttributes
EXTRN	?GetParent_Handle@CMainBlockBaseData@@QBEPAUHWND__@@XZ:PROC ; CMainBlockBaseData::GetParent_Handle
EXTRN	?GetPacketListManager@CMainBlockBaseData@@QBEPAVCPacketListManager@@XZ:PROC ; CMainBlockBaseData::GetPacketListManager
EXTRN	?GetGraphRegionFrameThickness@CMainBlockBaseData@@QBEHXZ:PROC ; CMainBlockBaseData::GetGraphRegionFrameThickness
EXTRN	?GetBlockCompartType@CMainBlockBaseData@@QBE?AW4BLOCKCOMPART@CBlockBaseData@@XZ:PROC ; CMainBlockBaseData::GetBlockCompartType
EXTRN	?GetGraphRegionColor@CMainBlockBaseData@@QBE?AVCGraphRegionColor@@XZ:PROC ; CMainBlockBaseData::GetGraphRegionColor
EXTRN	?GetDisplayAttributes@CMainBlockBaseData@@QBE?AVCDisplayAttributes@@XZ:PROC ; CMainBlockBaseData::GetDisplayAttributes
EXTRN	?SendMessageToParent@CMainBlockBaseData@@QAEXABVCBlockBehaviorData@@@Z:PROC ; CMainBlockBaseData::SendMessageToParent
EXTRN	??0CBlockData@@QAE@XZ:PROC			; CBlockData::CBlockData
EXTRN	?SetDoubleSize@CBlockData@@QAEX_N@Z:PROC	; CBlockData::SetDoubleSize
EXTRN	?SetVertScaleLogType@CBlockData@@QAEX_N@Z:PROC	; CBlockData::SetVertScaleLogType
EXTRN	?SetDisplayDataHorzMinMax@CBlockData@@QAEXABVCDisplayDataMinMax@@@Z:PROC ; CBlockData::SetDisplayDataHorzMinMax
EXTRN	?GetDoubleSize@CBlockData@@QBE_NXZ:PROC		; CBlockData::GetDoubleSize
EXTRN	?GetVertScaleLogType@CBlockData@@QBE_NXZ:PROC	; CBlockData::GetVertScaleLogType
EXTRN	?GetVertScaleLogType@CBlockData@@QAEAA_NXZ:PROC	; CBlockData::GetVertScaleLogType
EXTRN	?GetHorzScale@CBlockData@@QBE?AVCHorizontalScale@@XZ:PROC ; CBlockData::GetHorzScale
EXTRN	?GetHorzScale@CBlockData@@QAEAAVCHorizontalScale@@XZ:PROC ; CBlockData::GetHorzScale
EXTRN	?GetDisplayDataHorzMinMax@CBlockData@@QAEAAVCDisplayDataMinMax@@XZ:PROC ; CBlockData::GetDisplayDataHorzMinMax
EXTRN	?GetHorizontalScaleHeight@CBlockData@@QBEHXZ:PROC ; CBlockData::GetHorizontalScaleHeight
EXTRN	??0CVertScaleGroupList@@QAE@PAVCMainBlockBaseData@@@Z:PROC ; CVertScaleGroupList::CVertScaleGroupList
EXTRN	??1CVertScaleGroupList@@UAE@XZ:PROC		; CVertScaleGroupList::~CVertScaleGroupList
EXTRN	?SetBlock@CVertScaleGroupList@@QAEXPAVCBlockImp@@@Z:PROC ; CVertScaleGroupList::SetBlock
EXTRN	?GetDrawingRegion@CVertScaleGroupList@@QBE?AVCDrawingRegion@@XZ:PROC ; CVertScaleGroupList::GetDrawingRegion
EXTRN	?GetGraphRegions@CVertScaleGroupList@@QBE?AVCGraphRegions@@XZ:PROC ; CVertScaleGroupList::GetGraphRegions
EXTRN	?BuildVertScaleGroups@CVertScaleGroupList@@QAEXPAD_N@Z:PROC ; CVertScaleGroupList::BuildVertScaleGroups
EXTRN	?BuildVertScaleGroups@CVertScaleGroupList@@QAEXPAXPAD_N@Z:PROC ; CVertScaleGroupList::BuildVertScaleGroups
EXTRN	?GetVertScaleGroupsAllData@CVertScaleGroupList@@QBEXAAVCStringList@@@Z:PROC ; CVertScaleGroupList::GetVertScaleGroupsAllData
EXTRN	?GetVertScaleGroup@CVertScaleGroupList@@QBEPAVCVertScaleGroup@@H@Z:PROC ; CVertScaleGroupList::GetVertScaleGroup
EXTRN	?GetGraph@CVertScaleGroupList@@QBEPAVCGraphImp@@HH@Z:PROC ; CVertScaleGroupList::GetGraph
EXTRN	?FindGraph@CVertScaleGroupList@@QBEHPAVCGraphSearchInfo@@@Z:PROC ; CVertScaleGroupList::FindGraph
EXTRN	?GetSubGraph@CVertScaleGroupList@@QBEPAVCSubGraph@@HHH@Z:PROC ; CVertScaleGroupList::GetSubGraph
EXTRN	?GetCount@CVertScaleGroupList@@QBEHXZ:PROC	; CVertScaleGroupList::GetCount
EXTRN	?SetScaleGridType@CVertScaleGroupList@@QAEXW4SCALEGRIDTYPE@CScaleBaseData@@@Z:PROC ; CVertScaleGroupList::SetScaleGridType
EXTRN	?SetAllVertScaleInvertType@CVertScaleGroupList@@QAEXH@Z:PROC ; CVertScaleGroupList::SetAllVertScaleInvertType
EXTRN	?GetActiveVScaleIndex@CVertScaleGroupList@@QAEHW4VERTSCALEPOSITION@CScaleBaseData@@@Z:PROC ; CVertScaleGroupList::GetActiveVScaleIndex
EXTRN	?CalculateDrawingRegion@CVertScaleGroupList@@QAEXPAVCDC@@ABVCDrawingRegion@@@Z:PROC ; CVertScaleGroupList::CalculateDrawingRegion
EXTRN	?DrawVertScale@CVertScaleGroupList@@QAEXPAVCDC@@ABVCBlockData@@@Z:PROC ; CVertScaleGroupList::DrawVertScale
EXTRN	?DrawGraphs@CVertScaleGroupList@@QAEXPAVCDC@@ABVCBlockData@@@Z:PROC ; CVertScaleGroupList::DrawGraphs
EXTRN	??_ECBlockImp@@MAEPAXI@Z:PROC			; CBlockImp::`vector deleting destructor'
EXTRN	__imp_?GetScaleTypeFormatDouble@CPacket@@QAENXZ:PROC
EXTRN	__imp_?GetBaseData@CPacketList@@QAEPAVCPacket@@V?$CStringT@DV?$StrTraitMFC_DLL@DV?$ChTraitsCRT@D@ATL@@@@@ATL@@_N@Z:PROC
EXTRN	__imp_??0CGraphFrameDrawer@@QAE@XZ:PROC
EXTRN	__imp_??1CGraphFrameDrawer@@UAE@XZ:PROC
EXTRN	__imp_?DrawGraphFrame@CGraphFrameDrawer@@QAEXPAVCDC@@ABVCRect@@W4BLOCKCOMPART@CBlockBaseData@@HHHHABVCGraphRegionColor@@@Z:PROC
EXTRN	?SelectClipRegion@CDataConversion@@SAXPAVCDC@@ABVCRect@@@Z:PROC ; CDataConversion::SelectClipRegion
EXTRN	?SelectClipRegion@CDataConversion@@SAXPAVCDC@@@Z:PROC ; CDataConversion::SelectClipRegion
EXTRN	?GetMainBlockBaseData@CMainBlockImp@@QBEPAVCMainBlockBaseData@@XZ:PROC ; CMainBlockImp::GetMainBlockBaseData
EXTRN	?GetBlockMoveDeleteFlag@CMainBlockImp@@QBEHXZ:PROC ; CMainBlockImp::GetBlockMoveDeleteFlag
EXTRN	?DeleteBlock@CMainBlockImp@@QAE_NPAVCBlockImp@@_N@Z:PROC ; CMainBlockImp::DeleteBlock
EXTRN	?FindBlockNumber@CMainBlockImp@@QBE?AVCBlockIndex@@PAVCBlockImp@@@Z:PROC ; CMainBlockImp::FindBlockNumber
EXTRN	?GetColumnIndex@CBlocksColumn@@QAEHXZ:PROC	; CBlocksColumn::GetColumnIndex
EXTRN	?GetHorzScaleDataRQ@CBlocksColumn@@QAE?AV?$CStringT@DV?$StrTraitMFC_DLL@DV?$ChTraitsCRT@D@ATL@@@@@ATL@@PAVCBlockImp@@@Z:PROC ; CBlocksColumn::GetHorzScaleDataRQ
EXTRN	?GetHeadPacket@CSubGraphList@@QBEPAVCPacket@@XZ:PROC ; CSubGraphList::GetHeadPacket
EXTRN	?GetHeadPacketAndDataType@CSubGraphList@@QBE_NAAPAVCPacket@@AAN@Z:PROC ; CSubGraphList::GetHeadPacketAndDataType
EXTRN	?ChangeGraphDataFromIndicatorInfo@CGraphImp@@QAE_N_N@Z:PROC ; CGraphImp::ChangeGraphDataFromIndicatorInfo
EXTRN	?GetGraphData@CGraphImp@@QAEAAVCGraphData@@XZ:PROC ; CGraphImp::GetGraphData
EXTRN	?GetSubGraphList@CGraphImp@@QAEAAVCSubGraphList@@XZ:PROC ; CGraphImp::GetSubGraphList
EXTRN	?GetPacketRQ@CGraphImp@@QAEPAVCPacketRQ@@XZ:PROC ; CGraphImp::GetPacketRQ
EXTRN	??0CHorzDisplayDataMinMaxInputData@@QAE@PAVCPacket@@ABV?$CStringT@DV?$StrTraitMFC_DLL@DV?$ChTraitsCRT@D@ATL@@@@@ATL@@ABVCDisplayAttributes@@@Z:PROC ; CHorzDisplayDataMinMaxInputData::CHorzDisplayDataMinMaxInputData
EXTRN	??0CDrawingRegionCalData@@QAE@ABVCRect@@H_N111ABVCHorzScaleRegionHeight@@ABVCVertScaleRegionWidth@@H@Z:PROC ; CDrawingRegionCalData::CDrawingRegionCalData
EXTRN	?SetMaxVertScaleRegionWidth@CDrawingRegionCalData@@QAEXH@Z:PROC ; CDrawingRegionCalData::SetMaxVertScaleRegionWidth
EXTRN	?SetDisplayAttributes@CDrawingRegionCalData@@QAEXABVCDisplayAttributes@@@Z:PROC ; CDrawingRegionCalData::SetDisplayAttributes
EXTRN	??0CHorzScaleMaxWidthCalculatorData@@QAE@PAVCScaleCompart@@PAVCPacket@@ABV?$CStringT@DV?$StrTraitMFC_DLL@DV?$ChTraitsCRT@D@ATL@@@@@ATL@@ABVCDisplayAttributes@@@Z:PROC ; CHorzScaleMaxWidthCalculatorData::CHorzScaleMaxWidthCalculatorData
EXTRN	?GetViewHorzMinMax@CViewMinMaxCalculator@@QBE?AVCDisplayDataMinMax@@ABVCHorzDisplayDataMinMaxInputData@@@Z:PROC ; CViewMinMaxCalculator::GetViewHorzMinMax
EXTRN	?GetDrawingRegion@CDrawingRegionCalculator@@QBE?AVCDrawingRegion@@PAVCDC@@ABVCDrawingRegionCalData@@H@Z:PROC ; CDrawingRegionCalculator::GetDrawingRegion
EXTRN	?GetMaxHorzScaleTextSize@CTextSizeCalculator@@QBE?AVCSize@@PAVCDC@@ABVCHorzScaleMaxWidthCalculatorData@@@Z:PROC ; CTextSizeCalculator::GetMaxHorzScaleTextSize
EXTRN	?DrawHorzScale@CBlockScaleDrawer@@QAEXPAVCDC@@PAVCDrawingHorzScaleData@@ABVCHorzScaleRegion@@ABVCHorizontalScale@@PAVCXScaleManager@@PBDPAUHWND__@@W4CHART_MODE@CChartInfo@@@Z:PROC ; CBlockScaleDrawer::DrawHorzScale
EXTRN	?FindGraph@CVertScaleGroup@@QBEHPAVCGraphSearchInfo@@@Z:PROC ; CVertScaleGroup::FindGraph
EXTRN	?DeleteGraphWithNotify@CVertScaleGroup@@QAE_NPAVCGraphImp@@_N@Z:PROC ; CVertScaleGroup::DeleteGraphWithNotify
EXTRN	?GetVertScale@CVertScaleGroup@@QAEAAVCVerticalScale@@XZ:PROC ; CVertScaleGroup::GetVertScale
EXTRN	?GetDisplayDataMinMax@CVertScaleGroup@@QBE?AVCDisplayDataMinMax@@XZ:PROC ; CVertScaleGroup::GetDisplayDataMinMax
EXTRN	?GetGraph@CVertScaleGroup@@QBEPAVCGraphImp@@H@Z:PROC ; CVertScaleGroup::GetGraph
EXTRN	?GetVertScaleInvertType@CVertScaleGroup@@QBE_NXZ:PROC ; CVertScaleGroup::GetVertScaleInvertType
EXTRN	?SetVertScaleInvertType@CVertScaleGroup@@QAEX_N@Z:PROC ; CVertScaleGroup::SetVertScaleInvertType
EXTRN	??0CGraphSearchInfo@@QAE@XZ:PROC		; CGraphSearchInfo::CGraphSearchInfo
EXTRN	?FindGraph@CGraphSearchInfo@@UAEHPBVCBlocksColumn@@@Z:PROC ; CGraphSearchInfo::FindGraph
EXTRN	?FindGraph@CGraphSearchInfo@@UAEHPAXPBVCBlockImp@@@Z:PROC ; CGraphSearchInfo::FindGraph
EXTRN	?FindGraph@CGraphSearchInfo@@UAEHPBVCBlockImp@@@Z:PROC ; CGraphSearchInfo::FindGraph
EXTRN	?FindGraph@CGraphSearchInfo@@UAEHPAXPBVCVertScaleGroup@@@Z:PROC ; CGraphSearchInfo::FindGraph
EXTRN	?FindGraph@CGraphSearchInfo@@UAEHPBVCVertScaleGroup@@@Z:PROC ; CGraphSearchInfo::FindGraph
EXTRN	?FindGraph@CGraphSearchInfo@@UAEHPBVCGraphImp@@@Z:PROC ; CGraphSearchInfo::FindGraph
EXTRN	?FindGraph@CGraphSearchInfo@@UAEHPBVCSubGraph@@@Z:PROC ; CGraphSearchInfo::FindGraph
EXTRN	?SetNextStartGraph@CGraphSearchInfo@@QAEXXZ:PROC ; CGraphSearchInfo::SetNextStartGraph
EXTRN	?FindGraph@CGraphSearchInfo_InvertVSCaleGroup@@UAEHPBVCVertScaleGroup@@@Z:PROC ; CGraphSearchInfo_InvertVSCaleGroup::FindGraph
EXTRN	?FindGraph@CGraphSearchInfo_HasVertScale@@UAEHPBVCVertScaleGroup@@@Z:PROC ; CGraphSearchInfo_HasVertScale::FindGraph
EXTRN	?FindGraph@CGraphSearchInfo_AnyGraph@@UAEHPBVCGraphImp@@@Z:PROC ; CGraphSearchInfo_AnyGraph::FindGraph
EXTRN	?FindGraph@CGraphSearchInfo_AnyGraphWithRQ@@UAEHPBVCGraphImp@@@Z:PROC ; CGraphSearchInfo_AnyGraphWithRQ::FindGraph
EXTRN	?FindGraph@CGraphSearchInfo_IndicatorName@@UAEHPBVCGraphImp@@@Z:PROC ; CGraphSearchInfo_IndicatorName::FindGraph
EXTRN	?FindGraph@CGraphSearchInfo_IndicatorNameWithRQ@@UAEHPBVCGraphImp@@@Z:PROC ; CGraphSearchInfo_IndicatorNameWithRQ::FindGraph
EXTRN	?FindGraph@CGraphSearchInfo_GraphName@@UAEHPBVCGraphImp@@@Z:PROC ; CGraphSearchInfo_GraphName::FindGraph
EXTRN	?FindGraph@CGraphSearchInfo_VisibleSubGraph@@UAEHPBVCSubGraph@@@Z:PROC ; CGraphSearchInfo_VisibleSubGraph::FindGraph
EXTRN	?FindGraph@CGraphSearchInfo_VisibleGraphTitle@@UAEHPBVCSubGraph@@@Z:PROC ; CGraphSearchInfo_VisibleGraphTitle::FindGraph
EXTRN	?FindGraph@CGraphSearchInfo_GraphType@@UAEHPBVCSubGraph@@@Z:PROC ; CGraphSearchInfo_GraphType::FindGraph
EXTRN	?FindGraph@CGraphSearchInfo_TypeStyleDrawStyle@@UAEHPBVCSubGraph@@@Z:PROC ; CGraphSearchInfo_TypeStyleDrawStyle::FindGraph
EXTRN	?GetSubGraphData@CSubGraph@@QAEAAVCSubGraphData@@XZ:PROC ; CSubGraph::GetSubGraphData
EXTRN	?SetPacketName@CPacketRQ@@QAEXPBD@Z:PROC	; CPacketRQ::SetPacketName
EXTRN	@__security_check_cookie@4:PROC
EXTRN	___CxxFrameHandler3:PROC
EXTRN	??_7type_info@@6B@:QWORD			; type_info::`vftable'
EXTRN	?g_iMetaTable@@3VIMetaTable@@A:BYTE		; g_iMetaTable
EXTRN	___security_cookie:DWORD
EXTRN	__fltused:DWORD
;	COMDAT __real@3ff0000000000000
CONST	SEGMENT
__real@3ff0000000000000 DQ 03ff0000000000000r	; 1
CONST	ENDS
;	COMDAT ??_R1A@?0A@EA@CGraphSearchInfo_TypeStyleDrawStyle@@8
rdata$r	SEGMENT
??_R1A@?0A@EA@CGraphSearchInfo_TypeStyleDrawStyle@@8 DD FLAT:??_R0?AVCGraphSearchInfo_TypeStyleDrawStyle@@@8 ; CGraphSearchInfo_TypeStyleDrawStyle::`RTTI Base Class Descriptor at (0,-1,0,64)'
	DD	02H
	DD	00H
	DD	0ffffffffH
	DD	00H
	DD	040H
	DD	FLAT:??_R3CGraphSearchInfo_TypeStyleDrawStyle@@8
rdata$r	ENDS
;	COMDAT ??_R2CGraphSearchInfo_TypeStyleDrawStyle@@8
rdata$r	SEGMENT
??_R2CGraphSearchInfo_TypeStyleDrawStyle@@8 DD FLAT:??_R1A@?0A@EA@CGraphSearchInfo_TypeStyleDrawStyle@@8 ; CGraphSearchInfo_TypeStyleDrawStyle::`RTTI Base Class Array'
	DD	FLAT:??_R1A@?0A@EA@CGraphSearchInfo_GraphType@@8
	DD	FLAT:??_R1A@?0A@EA@CGraphSearchInfo@@8
rdata$r	ENDS
;	COMDAT ??_R3CGraphSearchInfo_TypeStyleDrawStyle@@8
rdata$r	SEGMENT
??_R3CGraphSearchInfo_TypeStyleDrawStyle@@8 DD 00H	; CGraphSearchInfo_TypeStyleDrawStyle::`RTTI Class Hierarchy Descriptor'
	DD	00H
	DD	03H
	DD	FLAT:??_R2CGraphSearchInfo_TypeStyleDrawStyle@@8
rdata$r	ENDS
;	COMDAT ??_R0?AVCGraphSearchInfo_TypeStyleDrawStyle@@@8
data$rs	SEGMENT
??_R0?AVCGraphSearchInfo_TypeStyleDrawStyle@@@8 DD FLAT:??_7type_info@@6B@ ; CGraphSearchInfo_TypeStyleDrawStyle `RTTI Type Descriptor'
	DD	00H
	DB	'.?AVCGraphSearchInfo_TypeStyleDrawStyle@@', 00H
data$rs	ENDS
;	COMDAT ??_R4CGraphSearchInfo_TypeStyleDrawStyle@@6B@
rdata$r	SEGMENT
??_R4CGraphSearchInfo_TypeStyleDrawStyle@@6B@ DD 00H	; CGraphSearchInfo_TypeStyleDrawStyle::`RTTI Complete Object Locator'
	DD	00H
	DD	00H
	DD	FLAT:??_R0?AVCGraphSearchInfo_TypeStyleDrawStyle@@@8
	DD	FLAT:??_R3CGraphSearchInfo_TypeStyleDrawStyle@@8
rdata$r	ENDS
;	COMDAT ??_R1A@?0A@EA@CGraphSearchInfo_GraphType@@8
rdata$r	SEGMENT
??_R1A@?0A@EA@CGraphSearchInfo_GraphType@@8 DD FLAT:??_R0?AVCGraphSearchInfo_GraphType@@@8 ; CGraphSearchInfo_GraphType::`RTTI Base Class Descriptor at (0,-1,0,64)'
	DD	01H
	DD	00H
	DD	0ffffffffH
	DD	00H
	DD	040H
	DD	FLAT:??_R3CGraphSearchInfo_GraphType@@8
rdata$r	ENDS
;	COMDAT ??_R2CGraphSearchInfo_GraphType@@8
rdata$r	SEGMENT
??_R2CGraphSearchInfo_GraphType@@8 DD FLAT:??_R1A@?0A@EA@CGraphSearchInfo_GraphType@@8 ; CGraphSearchInfo_GraphType::`RTTI Base Class Array'
	DD	FLAT:??_R1A@?0A@EA@CGraphSearchInfo@@8
rdata$r	ENDS
;	COMDAT ??_R3CGraphSearchInfo_GraphType@@8
rdata$r	SEGMENT
??_R3CGraphSearchInfo_GraphType@@8 DD 00H		; CGraphSearchInfo_GraphType::`RTTI Class Hierarchy Descriptor'
	DD	00H
	DD	02H
	DD	FLAT:??_R2CGraphSearchInfo_GraphType@@8
rdata$r	ENDS
;	COMDAT ??_R0?AVCGraphSearchInfo_GraphType@@@8
data$rs	SEGMENT
??_R0?AVCGraphSearchInfo_GraphType@@@8 DD FLAT:??_7type_info@@6B@ ; CGraphSearchInfo_GraphType `RTTI Type Descriptor'
	DD	00H
	DB	'.?AVCGraphSearchInfo_GraphType@@', 00H
data$rs	ENDS
;	COMDAT ??_R4CGraphSearchInfo_GraphType@@6B@
rdata$r	SEGMENT
??_R4CGraphSearchInfo_GraphType@@6B@ DD 00H		; CGraphSearchInfo_GraphType::`RTTI Complete Object Locator'
	DD	00H
	DD	00H
	DD	FLAT:??_R0?AVCGraphSearchInfo_GraphType@@@8
	DD	FLAT:??_R3CGraphSearchInfo_GraphType@@8
rdata$r	ENDS
;	COMDAT ??_R1A@?0A@EA@CGraphSearchInfo_VisibleGraphTitle@@8
rdata$r	SEGMENT
??_R1A@?0A@EA@CGraphSearchInfo_VisibleGraphTitle@@8 DD FLAT:??_R0?AVCGraphSearchInfo_VisibleGraphTitle@@@8 ; CGraphSearchInfo_VisibleGraphTitle::`RTTI Base Class Descriptor at (0,-1,0,64)'
	DD	02H
	DD	00H
	DD	0ffffffffH
	DD	00H
	DD	040H
	DD	FLAT:??_R3CGraphSearchInfo_VisibleGraphTitle@@8
rdata$r	ENDS
;	COMDAT ??_R2CGraphSearchInfo_VisibleGraphTitle@@8
rdata$r	SEGMENT
??_R2CGraphSearchInfo_VisibleGraphTitle@@8 DD FLAT:??_R1A@?0A@EA@CGraphSearchInfo_VisibleGraphTitle@@8 ; CGraphSearchInfo_VisibleGraphTitle::`RTTI Base Class Array'
	DD	FLAT:??_R1A@?0A@EA@CGraphSearchInfo_VisibleSubGraph@@8
	DD	FLAT:??_R1A@?0A@EA@CGraphSearchInfo@@8
rdata$r	ENDS
;	COMDAT ??_R3CGraphSearchInfo_VisibleGraphTitle@@8
rdata$r	SEGMENT
??_R3CGraphSearchInfo_VisibleGraphTitle@@8 DD 00H	; CGraphSearchInfo_VisibleGraphTitle::`RTTI Class Hierarchy Descriptor'
	DD	00H
	DD	03H
	DD	FLAT:??_R2CGraphSearchInfo_VisibleGraphTitle@@8
rdata$r	ENDS
;	COMDAT ??_R0?AVCGraphSearchInfo_VisibleGraphTitle@@@8
data$rs	SEGMENT
??_R0?AVCGraphSearchInfo_VisibleGraphTitle@@@8 DD FLAT:??_7type_info@@6B@ ; CGraphSearchInfo_VisibleGraphTitle `RTTI Type Descriptor'
	DD	00H
	DB	'.?AVCGraphSearchInfo_VisibleGraphTitle@@', 00H
data$rs	ENDS
;	COMDAT ??_R4CGraphSearchInfo_VisibleGraphTitle@@6B@
rdata$r	SEGMENT
??_R4CGraphSearchInfo_VisibleGraphTitle@@6B@ DD 00H	; CGraphSearchInfo_VisibleGraphTitle::`RTTI Complete Object Locator'
	DD	00H
	DD	00H
	DD	FLAT:??_R0?AVCGraphSearchInfo_VisibleGraphTitle@@@8
	DD	FLAT:??_R3CGraphSearchInfo_VisibleGraphTitle@@8
rdata$r	ENDS
;	COMDAT ??_R1A@?0A@EA@CGraphSearchInfo_VisibleSubGraph@@8
rdata$r	SEGMENT
??_R1A@?0A@EA@CGraphSearchInfo_VisibleSubGraph@@8 DD FLAT:??_R0?AVCGraphSearchInfo_VisibleSubGraph@@@8 ; CGraphSearchInfo_VisibleSubGraph::`RTTI Base Class Descriptor at (0,-1,0,64)'
	DD	01H
	DD	00H
	DD	0ffffffffH
	DD	00H
	DD	040H
	DD	FLAT:??_R3CGraphSearchInfo_VisibleSubGraph@@8
rdata$r	ENDS
;	COMDAT ??_R2CGraphSearchInfo_VisibleSubGraph@@8
rdata$r	SEGMENT
??_R2CGraphSearchInfo_VisibleSubGraph@@8 DD FLAT:??_R1A@?0A@EA@CGraphSearchInfo_VisibleSubGraph@@8 ; CGraphSearchInfo_VisibleSubGraph::`RTTI Base Class Array'
	DD	FLAT:??_R1A@?0A@EA@CGraphSearchInfo@@8
rdata$r	ENDS
;	COMDAT ??_R3CGraphSearchInfo_VisibleSubGraph@@8
rdata$r	SEGMENT
??_R3CGraphSearchInfo_VisibleSubGraph@@8 DD 00H		; CGraphSearchInfo_VisibleSubGraph::`RTTI Class Hierarchy Descriptor'
	DD	00H
	DD	02H
	DD	FLAT:??_R2CGraphSearchInfo_VisibleSubGraph@@8
rdata$r	ENDS
;	COMDAT ??_R0?AVCGraphSearchInfo_VisibleSubGraph@@@8
data$rs	SEGMENT
??_R0?AVCGraphSearchInfo_VisibleSubGraph@@@8 DD FLAT:??_7type_info@@6B@ ; CGraphSearchInfo_VisibleSubGraph `RTTI Type Descriptor'
	DD	00H
	DB	'.?AVCGraphSearchInfo_VisibleSubGraph@@', 00H
data$rs	ENDS
;	COMDAT ??_R4CGraphSearchInfo_VisibleSubGraph@@6B@
rdata$r	SEGMENT
??_R4CGraphSearchInfo_VisibleSubGraph@@6B@ DD 00H	; CGraphSearchInfo_VisibleSubGraph::`RTTI Complete Object Locator'
	DD	00H
	DD	00H
	DD	FLAT:??_R0?AVCGraphSearchInfo_VisibleSubGraph@@@8
	DD	FLAT:??_R3CGraphSearchInfo_VisibleSubGraph@@8
rdata$r	ENDS
;	COMDAT ??_R1A@?0A@EA@CGraphSearchInfo_GraphName@@8
rdata$r	SEGMENT
??_R1A@?0A@EA@CGraphSearchInfo_GraphName@@8 DD FLAT:??_R0?AVCGraphSearchInfo_GraphName@@@8 ; CGraphSearchInfo_GraphName::`RTTI Base Class Descriptor at (0,-1,0,64)'
	DD	01H
	DD	00H
	DD	0ffffffffH
	DD	00H
	DD	040H
	DD	FLAT:??_R3CGraphSearchInfo_GraphName@@8
rdata$r	ENDS
;	COMDAT ??_R2CGraphSearchInfo_GraphName@@8
rdata$r	SEGMENT
??_R2CGraphSearchInfo_GraphName@@8 DD FLAT:??_R1A@?0A@EA@CGraphSearchInfo_GraphName@@8 ; CGraphSearchInfo_GraphName::`RTTI Base Class Array'
	DD	FLAT:??_R1A@?0A@EA@CGraphSearchInfo@@8
rdata$r	ENDS
;	COMDAT ??_R3CGraphSearchInfo_GraphName@@8
rdata$r	SEGMENT
??_R3CGraphSearchInfo_GraphName@@8 DD 00H		; CGraphSearchInfo_GraphName::`RTTI Class Hierarchy Descriptor'
	DD	00H
	DD	02H
	DD	FLAT:??_R2CGraphSearchInfo_GraphName@@8
rdata$r	ENDS
;	COMDAT ??_R0?AVCGraphSearchInfo_GraphName@@@8
data$rs	SEGMENT
??_R0?AVCGraphSearchInfo_GraphName@@@8 DD FLAT:??_7type_info@@6B@ ; CGraphSearchInfo_GraphName `RTTI Type Descriptor'
	DD	00H
	DB	'.?AVCGraphSearchInfo_GraphName@@', 00H
data$rs	ENDS
;	COMDAT ??_R4CGraphSearchInfo_GraphName@@6B@
rdata$r	SEGMENT
??_R4CGraphSearchInfo_GraphName@@6B@ DD 00H		; CGraphSearchInfo_GraphName::`RTTI Complete Object Locator'
	DD	00H
	DD	00H
	DD	FLAT:??_R0?AVCGraphSearchInfo_GraphName@@@8
	DD	FLAT:??_R3CGraphSearchInfo_GraphName@@8
rdata$r	ENDS
;	COMDAT ??_R1A@?0A@EA@CGraphSearchInfo_IndicatorNameWithRQ@@8
rdata$r	SEGMENT
??_R1A@?0A@EA@CGraphSearchInfo_IndicatorNameWithRQ@@8 DD FLAT:??_R0?AVCGraphSearchInfo_IndicatorNameWithRQ@@@8 ; CGraphSearchInfo_IndicatorNameWithRQ::`RTTI Base Class Descriptor at (0,-1,0,64)'
	DD	02H
	DD	00H
	DD	0ffffffffH
	DD	00H
	DD	040H
	DD	FLAT:??_R3CGraphSearchInfo_IndicatorNameWithRQ@@8
rdata$r	ENDS
;	COMDAT ??_R2CGraphSearchInfo_IndicatorNameWithRQ@@8
rdata$r	SEGMENT
??_R2CGraphSearchInfo_IndicatorNameWithRQ@@8 DD FLAT:??_R1A@?0A@EA@CGraphSearchInfo_IndicatorNameWithRQ@@8 ; CGraphSearchInfo_IndicatorNameWithRQ::`RTTI Base Class Array'
	DD	FLAT:??_R1A@?0A@EA@CGraphSearchInfo_IndicatorName@@8
	DD	FLAT:??_R1A@?0A@EA@CGraphSearchInfo@@8
rdata$r	ENDS
;	COMDAT ??_R3CGraphSearchInfo_IndicatorNameWithRQ@@8
rdata$r	SEGMENT
??_R3CGraphSearchInfo_IndicatorNameWithRQ@@8 DD 00H	; CGraphSearchInfo_IndicatorNameWithRQ::`RTTI Class Hierarchy Descriptor'
	DD	00H
	DD	03H
	DD	FLAT:??_R2CGraphSearchInfo_IndicatorNameWithRQ@@8
rdata$r	ENDS
;	COMDAT ??_R0?AVCGraphSearchInfo_IndicatorNameWithRQ@@@8
data$rs	SEGMENT
??_R0?AVCGraphSearchInfo_IndicatorNameWithRQ@@@8 DD FLAT:??_7type_info@@6B@ ; CGraphSearchInfo_IndicatorNameWithRQ `RTTI Type Descriptor'
	DD	00H
	DB	'.?AVCGraphSearchInfo_IndicatorNameWithRQ@@', 00H
data$rs	ENDS
;	COMDAT ??_R4CGraphSearchInfo_IndicatorNameWithRQ@@6B@
rdata$r	SEGMENT
??_R4CGraphSearchInfo_IndicatorNameWithRQ@@6B@ DD 00H	; CGraphSearchInfo_IndicatorNameWithRQ::`RTTI Complete Object Locator'
	DD	00H
	DD	00H
	DD	FLAT:??_R0?AVCGraphSearchInfo_IndicatorNameWithRQ@@@8
	DD	FLAT:??_R3CGraphSearchInfo_IndicatorNameWithRQ@@8
rdata$r	ENDS
;	COMDAT ??_R1A@?0A@EA@CGraphSearchInfo_IndicatorName@@8
rdata$r	SEGMENT
??_R1A@?0A@EA@CGraphSearchInfo_IndicatorName@@8 DD FLAT:??_R0?AVCGraphSearchInfo_IndicatorName@@@8 ; CGraphSearchInfo_IndicatorName::`RTTI Base Class Descriptor at (0,-1,0,64)'
	DD	01H
	DD	00H
	DD	0ffffffffH
	DD	00H
	DD	040H
	DD	FLAT:??_R3CGraphSearchInfo_IndicatorName@@8
rdata$r	ENDS
;	COMDAT ??_R2CGraphSearchInfo_IndicatorName@@8
rdata$r	SEGMENT
??_R2CGraphSearchInfo_IndicatorName@@8 DD FLAT:??_R1A@?0A@EA@CGraphSearchInfo_IndicatorName@@8 ; CGraphSearchInfo_IndicatorName::`RTTI Base Class Array'
	DD	FLAT:??_R1A@?0A@EA@CGraphSearchInfo@@8
rdata$r	ENDS
;	COMDAT ??_R3CGraphSearchInfo_IndicatorName@@8
rdata$r	SEGMENT
??_R3CGraphSearchInfo_IndicatorName@@8 DD 00H		; CGraphSearchInfo_IndicatorName::`RTTI Class Hierarchy Descriptor'
	DD	00H
	DD	02H
	DD	FLAT:??_R2CGraphSearchInfo_IndicatorName@@8
rdata$r	ENDS
;	COMDAT ??_R0?AVCGraphSearchInfo_IndicatorName@@@8
data$rs	SEGMENT
??_R0?AVCGraphSearchInfo_IndicatorName@@@8 DD FLAT:??_7type_info@@6B@ ; CGraphSearchInfo_IndicatorName `RTTI Type Descriptor'
	DD	00H
	DB	'.?AVCGraphSearchInfo_IndicatorName@@', 00H
data$rs	ENDS
;	COMDAT ??_R4CGraphSearchInfo_IndicatorName@@6B@
rdata$r	SEGMENT
??_R4CGraphSearchInfo_IndicatorName@@6B@ DD 00H		; CGraphSearchInfo_IndicatorName::`RTTI Complete Object Locator'
	DD	00H
	DD	00H
	DD	FLAT:??_R0?AVCGraphSearchInfo_IndicatorName@@@8
	DD	FLAT:??_R3CGraphSearchInfo_IndicatorName@@8
rdata$r	ENDS
;	COMDAT ??_R1A@?0A@EA@CGraphSearchInfo_AnyGraphWithRQ@@8
rdata$r	SEGMENT
??_R1A@?0A@EA@CGraphSearchInfo_AnyGraphWithRQ@@8 DD FLAT:??_R0?AVCGraphSearchInfo_AnyGraphWithRQ@@@8 ; CGraphSearchInfo_AnyGraphWithRQ::`RTTI Base Class Descriptor at (0,-1,0,64)'
	DD	01H
	DD	00H
	DD	0ffffffffH
	DD	00H
	DD	040H
	DD	FLAT:??_R3CGraphSearchInfo_AnyGraphWithRQ@@8
rdata$r	ENDS
;	COMDAT ??_R2CGraphSearchInfo_AnyGraphWithRQ@@8
rdata$r	SEGMENT
??_R2CGraphSearchInfo_AnyGraphWithRQ@@8 DD FLAT:??_R1A@?0A@EA@CGraphSearchInfo_AnyGraphWithRQ@@8 ; CGraphSearchInfo_AnyGraphWithRQ::`RTTI Base Class Array'
	DD	FLAT:??_R1A@?0A@EA@CGraphSearchInfo@@8
rdata$r	ENDS
;	COMDAT ??_R3CGraphSearchInfo_AnyGraphWithRQ@@8
rdata$r	SEGMENT
??_R3CGraphSearchInfo_AnyGraphWithRQ@@8 DD 00H		; CGraphSearchInfo_AnyGraphWithRQ::`RTTI Class Hierarchy Descriptor'
	DD	00H
	DD	02H
	DD	FLAT:??_R2CGraphSearchInfo_AnyGraphWithRQ@@8
rdata$r	ENDS
;	COMDAT ??_R0?AVCGraphSearchInfo_AnyGraphWithRQ@@@8
data$rs	SEGMENT
??_R0?AVCGraphSearchInfo_AnyGraphWithRQ@@@8 DD FLAT:??_7type_info@@6B@ ; CGraphSearchInfo_AnyGraphWithRQ `RTTI Type Descriptor'
	DD	00H
	DB	'.?AVCGraphSearchInfo_AnyGraphWithRQ@@', 00H
data$rs	ENDS
;	COMDAT ??_R4CGraphSearchInfo_AnyGraphWithRQ@@6B@
rdata$r	SEGMENT
??_R4CGraphSearchInfo_AnyGraphWithRQ@@6B@ DD 00H	; CGraphSearchInfo_AnyGraphWithRQ::`RTTI Complete Object Locator'
	DD	00H
	DD	00H
	DD	FLAT:??_R0?AVCGraphSearchInfo_AnyGraphWithRQ@@@8
	DD	FLAT:??_R3CGraphSearchInfo_AnyGraphWithRQ@@8
rdata$r	ENDS
;	COMDAT ??_R1A@?0A@EA@CGraphSearchInfo_AnyGraph@@8
rdata$r	SEGMENT
??_R1A@?0A@EA@CGraphSearchInfo_AnyGraph@@8 DD FLAT:??_R0?AVCGraphSearchInfo_AnyGraph@@@8 ; CGraphSearchInfo_AnyGraph::`RTTI Base Class Descriptor at (0,-1,0,64)'
	DD	01H
	DD	00H
	DD	0ffffffffH
	DD	00H
	DD	040H
	DD	FLAT:??_R3CGraphSearchInfo_AnyGraph@@8
rdata$r	ENDS
;	COMDAT ??_R2CGraphSearchInfo_AnyGraph@@8
rdata$r	SEGMENT
??_R2CGraphSearchInfo_AnyGraph@@8 DD FLAT:??_R1A@?0A@EA@CGraphSearchInfo_AnyGraph@@8 ; CGraphSearchInfo_AnyGraph::`RTTI Base Class Array'
	DD	FLAT:??_R1A@?0A@EA@CGraphSearchInfo@@8
rdata$r	ENDS
;	COMDAT ??_R3CGraphSearchInfo_AnyGraph@@8
rdata$r	SEGMENT
??_R3CGraphSearchInfo_AnyGraph@@8 DD 00H		; CGraphSearchInfo_AnyGraph::`RTTI Class Hierarchy Descriptor'
	DD	00H
	DD	02H
	DD	FLAT:??_R2CGraphSearchInfo_AnyGraph@@8
rdata$r	ENDS
;	COMDAT ??_R0?AVCGraphSearchInfo_AnyGraph@@@8
data$rs	SEGMENT
??_R0?AVCGraphSearchInfo_AnyGraph@@@8 DD FLAT:??_7type_info@@6B@ ; CGraphSearchInfo_AnyGraph `RTTI Type Descriptor'
	DD	00H
	DB	'.?AVCGraphSearchInfo_AnyGraph@@', 00H
data$rs	ENDS
;	COMDAT ??_R4CGraphSearchInfo_AnyGraph@@6B@
rdata$r	SEGMENT
??_R4CGraphSearchInfo_AnyGraph@@6B@ DD 00H		; CGraphSearchInfo_AnyGraph::`RTTI Complete Object Locator'
	DD	00H
	DD	00H
	DD	FLAT:??_R0?AVCGraphSearchInfo_AnyGraph@@@8
	DD	FLAT:??_R3CGraphSearchInfo_AnyGraph@@8
rdata$r	ENDS
;	COMDAT ??_R1A@?0A@EA@CGraphSearchInfo_HasVertScale@@8
rdata$r	SEGMENT
??_R1A@?0A@EA@CGraphSearchInfo_HasVertScale@@8 DD FLAT:??_R0?AVCGraphSearchInfo_HasVertScale@@@8 ; CGraphSearchInfo_HasVertScale::`RTTI Base Class Descriptor at (0,-1,0,64)'
	DD	01H
	DD	00H
	DD	0ffffffffH
	DD	00H
	DD	040H
	DD	FLAT:??_R3CGraphSearchInfo_HasVertScale@@8
rdata$r	ENDS
;	COMDAT ??_R2CGraphSearchInfo_HasVertScale@@8
rdata$r	SEGMENT
??_R2CGraphSearchInfo_HasVertScale@@8 DD FLAT:??_R1A@?0A@EA@CGraphSearchInfo_HasVertScale@@8 ; CGraphSearchInfo_HasVertScale::`RTTI Base Class Array'
	DD	FLAT:??_R1A@?0A@EA@CGraphSearchInfo@@8
rdata$r	ENDS
;	COMDAT ??_R3CGraphSearchInfo_HasVertScale@@8
rdata$r	SEGMENT
??_R3CGraphSearchInfo_HasVertScale@@8 DD 00H		; CGraphSearchInfo_HasVertScale::`RTTI Class Hierarchy Descriptor'
	DD	00H
	DD	02H
	DD	FLAT:??_R2CGraphSearchInfo_HasVertScale@@8
rdata$r	ENDS
;	COMDAT ??_R0?AVCGraphSearchInfo_HasVertScale@@@8
data$rs	SEGMENT
??_R0?AVCGraphSearchInfo_HasVertScale@@@8 DD FLAT:??_7type_info@@6B@ ; CGraphSearchInfo_HasVertScale `RTTI Type Descriptor'
	DD	00H
	DB	'.?AVCGraphSearchInfo_HasVertScale@@', 00H
data$rs	ENDS
;	COMDAT ??_R4CGraphSearchInfo_HasVertScale@@6B@
rdata$r	SEGMENT
??_R4CGraphSearchInfo_HasVertScale@@6B@ DD 00H		; CGraphSearchInfo_HasVertScale::`RTTI Complete Object Locator'
	DD	00H
	DD	00H
	DD	FLAT:??_R0?AVCGraphSearchInfo_HasVertScale@@@8
	DD	FLAT:??_R3CGraphSearchInfo_HasVertScale@@8
rdata$r	ENDS
;	COMDAT ??_R2CGraphSearchInfo@@8
rdata$r	SEGMENT
??_R2CGraphSearchInfo@@8 DD FLAT:??_R1A@?0A@EA@CGraphSearchInfo@@8 ; CGraphSearchInfo::`RTTI Base Class Array'
rdata$r	ENDS
;	COMDAT ??_R3CGraphSearchInfo@@8
rdata$r	SEGMENT
??_R3CGraphSearchInfo@@8 DD 00H				; CGraphSearchInfo::`RTTI Class Hierarchy Descriptor'
	DD	00H
	DD	01H
	DD	FLAT:??_R2CGraphSearchInfo@@8
rdata$r	ENDS
;	COMDAT ??_R0?AVCGraphSearchInfo@@@8
data$rs	SEGMENT
??_R0?AVCGraphSearchInfo@@@8 DD FLAT:??_7type_info@@6B@	; CGraphSearchInfo `RTTI Type Descriptor'
	DD	00H
	DB	'.?AVCGraphSearchInfo@@', 00H
data$rs	ENDS
;	COMDAT ??_R1A@?0A@EA@CGraphSearchInfo@@8
rdata$r	SEGMENT
??_R1A@?0A@EA@CGraphSearchInfo@@8 DD FLAT:??_R0?AVCGraphSearchInfo@@@8 ; CGraphSearchInfo::`RTTI Base Class Descriptor at (0,-1,0,64)'
	DD	00H
	DD	00H
	DD	0ffffffffH
	DD	00H
	DD	040H
	DD	FLAT:??_R3CGraphSearchInfo@@8
rdata$r	ENDS
;	COMDAT ??_R1A@?0A@EA@CGraphSearchInfo_InvertVSCaleGroup@@8
rdata$r	SEGMENT
??_R1A@?0A@EA@CGraphSearchInfo_InvertVSCaleGroup@@8 DD FLAT:??_R0?AVCGraphSearchInfo_InvertVSCaleGroup@@@8 ; CGraphSearchInfo_InvertVSCaleGroup::`RTTI Base Class Descriptor at (0,-1,0,64)'
	DD	01H
	DD	00H
	DD	0ffffffffH
	DD	00H
	DD	040H
	DD	FLAT:??_R3CGraphSearchInfo_InvertVSCaleGroup@@8
rdata$r	ENDS
;	COMDAT ??_R2CGraphSearchInfo_InvertVSCaleGroup@@8
rdata$r	SEGMENT
??_R2CGraphSearchInfo_InvertVSCaleGroup@@8 DD FLAT:??_R1A@?0A@EA@CGraphSearchInfo_InvertVSCaleGroup@@8 ; CGraphSearchInfo_InvertVSCaleGroup::`RTTI Base Class Array'
	DD	FLAT:??_R1A@?0A@EA@CGraphSearchInfo@@8
rdata$r	ENDS
;	COMDAT ??_R3CGraphSearchInfo_InvertVSCaleGroup@@8
rdata$r	SEGMENT
??_R3CGraphSearchInfo_InvertVSCaleGroup@@8 DD 00H	; CGraphSearchInfo_InvertVSCaleGroup::`RTTI Class Hierarchy Descriptor'
	DD	00H
	DD	02H
	DD	FLAT:??_R2CGraphSearchInfo_InvertVSCaleGroup@@8
rdata$r	ENDS
;	COMDAT ??_R0?AVCGraphSearchInfo_InvertVSCaleGroup@@@8
data$rs	SEGMENT
??_R0?AVCGraphSearchInfo_InvertVSCaleGroup@@@8 DD FLAT:??_7type_info@@6B@ ; CGraphSearchInfo_InvertVSCaleGroup `RTTI Type Descriptor'
	DD	00H
	DB	'.?AVCGraphSearchInfo_InvertVSCaleGroup@@', 00H
data$rs	ENDS
;	COMDAT ??_R4CGraphSearchInfo_InvertVSCaleGroup@@6B@
rdata$r	SEGMENT
??_R4CGraphSearchInfo_InvertVSCaleGroup@@6B@ DD 00H	; CGraphSearchInfo_InvertVSCaleGroup::`RTTI Complete Object Locator'
	DD	00H
	DD	00H
	DD	FLAT:??_R0?AVCGraphSearchInfo_InvertVSCaleGroup@@@8
	DD	FLAT:??_R3CGraphSearchInfo_InvertVSCaleGroup@@8
rdata$r	ENDS
;	COMDAT ??_R1A@?0A@EA@CBlockImp@@8
rdata$r	SEGMENT
??_R1A@?0A@EA@CBlockImp@@8 DD FLAT:??_R0?AVCBlockImp@@@8 ; CBlockImp::`RTTI Base Class Descriptor at (0,-1,0,64)'
	DD	02H
	DD	00H
	DD	0ffffffffH
	DD	00H
	DD	040H
	DD	FLAT:??_R3CBlockImp@@8
rdata$r	ENDS
;	COMDAT ??_R2CBlockImp@@8
rdata$r	SEGMENT
??_R2CBlockImp@@8 DD FLAT:??_R1A@?0A@EA@CBlockImp@@8	; CBlockImp::`RTTI Base Class Array'
	DD	FLAT:??_R1A@?0A@EA@CBlock@@8
	DD	FLAT:??_R1A@?0A@EA@CObject@@8
rdata$r	ENDS
;	COMDAT ??_R3CBlockImp@@8
rdata$r	SEGMENT
??_R3CBlockImp@@8 DD 00H				; CBlockImp::`RTTI Class Hierarchy Descriptor'
	DD	00H
	DD	03H
	DD	FLAT:??_R2CBlockImp@@8
rdata$r	ENDS
;	COMDAT ??_R0?AVCBlockImp@@@8
data$rs	SEGMENT
??_R0?AVCBlockImp@@@8 DD FLAT:??_7type_info@@6B@	; CBlockImp `RTTI Type Descriptor'
	DD	00H
	DB	'.?AVCBlockImp@@', 00H
data$rs	ENDS
;	COMDAT ??_R4CBlockImp@@6B@
rdata$r	SEGMENT
??_R4CBlockImp@@6B@ DD 00H				; CBlockImp::`RTTI Complete Object Locator'
	DD	00H
	DD	00H
	DD	FLAT:??_R0?AVCBlockImp@@@8
	DD	FLAT:??_R3CBlockImp@@8
rdata$r	ENDS
;	COMDAT ??_R1A@?0A@EA@CBlock@@8
rdata$r	SEGMENT
??_R1A@?0A@EA@CBlock@@8 DD FLAT:??_R0?AVCBlock@@@8	; CBlock::`RTTI Base Class Descriptor at (0,-1,0,64)'
	DD	01H
	DD	00H
	DD	0ffffffffH
	DD	00H
	DD	040H
	DD	FLAT:??_R3CBlock@@8
rdata$r	ENDS
;	COMDAT ??_R2CBlock@@8
rdata$r	SEGMENT
??_R2CBlock@@8 DD FLAT:??_R1A@?0A@EA@CBlock@@8		; CBlock::`RTTI Base Class Array'
	DD	FLAT:??_R1A@?0A@EA@CObject@@8
rdata$r	ENDS
;	COMDAT ??_R3CBlock@@8
rdata$r	SEGMENT
??_R3CBlock@@8 DD 00H					; CBlock::`RTTI Class Hierarchy Descriptor'
	DD	00H
	DD	02H
	DD	FLAT:??_R2CBlock@@8
rdata$r	ENDS
;	COMDAT ??_R0?AVCBlock@@@8
data$rs	SEGMENT
??_R0?AVCBlock@@@8 DD FLAT:??_7type_info@@6B@		; CBlock `RTTI Type Descriptor'
	DD	00H
	DB	'.?AVCBlock@@', 00H
data$rs	ENDS
;	COMDAT ??_R4CBlock@@6B@
rdata$r	SEGMENT
??_R4CBlock@@6B@ DD 00H					; CBlock::`RTTI Complete Object Locator'
	DD	00H
	DD	00H
	DD	FLAT:??_R0?AVCBlock@@@8
	DD	FLAT:??_R3CBlock@@8
rdata$r	ENDS
;	COMDAT ??_C@_07MGCPDNLD@DEFAULT@
CONST	SEGMENT
??_C@_07MGCPDNLD@DEFAULT@ DB 'DEFAULT', 00H		; `string'
CONST	ENDS
;	COMDAT ??_C@_0M@FHFNKLHB@BlockEnd?$DL?$AN?6@
CONST	SEGMENT
??_C@_0M@FHFNKLHB@BlockEnd?$DL?$AN?6@ DB 'BlockEnd;', 0dH, 0aH, 00H ; `string'
CONST	ENDS
;	COMDAT ??_C@_03LKGCEJK@?$DL?$AN?6@
CONST	SEGMENT
??_C@_03LKGCEJK@?$DL?$AN?6@ DB ';', 0dH, 0aH, 00H	; `string'
CONST	ENDS
;	COMDAT ??_C@_01ICJEACDI@?$DL@
CONST	SEGMENT
??_C@_01ICJEACDI@?$DL@ DB ';', 00H			; `string'
CONST	ENDS
;	COMDAT ??_C@_08KGLHHGPJ@Block?$DL?$AN?6@
CONST	SEGMENT
??_C@_08KGLHHGPJ@Block?$DL?$AN?6@ DB 'Block;', 0dH, 0aH, 00H ; `string'
CONST	ENDS
;	COMDAT ??_C@_02PCIJFNDE@?$AN?6@
CONST	SEGMENT
??_C@_02PCIJFNDE@?$AN?6@ DB 0dH, 0aH, 00H		; `string'
CONST	ENDS
;	COMDAT ??_7CGraphSearchInfo_TypeStyleDrawStyle@@6B@
CONST	SEGMENT
??_7CGraphSearchInfo_TypeStyleDrawStyle@@6B@ DD FLAT:??_R4CGraphSearchInfo_TypeStyleDrawStyle@@6B@ ; CGraphSearchInfo_TypeStyleDrawStyle::`vftable'
	DD	FLAT:?FindGraph@CGraphSearchInfo_TypeStyleDrawStyle@@UAEHPBVCSubGraph@@@Z
	DD	FLAT:?FindGraph@CGraphSearchInfo@@UAEHPBVCGraphImp@@@Z
	DD	FLAT:?FindGraph@CGraphSearchInfo@@UAEHPBVCVertScaleGroup@@@Z
	DD	FLAT:?FindGraph@CGraphSearchInfo@@UAEHPAXPBVCVertScaleGroup@@@Z
	DD	FLAT:?FindGraph@CGraphSearchInfo@@UAEHPBVCBlockImp@@@Z
	DD	FLAT:?FindGraph@CGraphSearchInfo@@UAEHPAXPBVCBlockImp@@@Z
	DD	FLAT:?FindGraph@CGraphSearchInfo@@UAEHPBVCBlocksColumn@@@Z
CONST	ENDS
;	COMDAT ??_7CGraphSearchInfo_GraphType@@6B@
CONST	SEGMENT
??_7CGraphSearchInfo_GraphType@@6B@ DD FLAT:??_R4CGraphSearchInfo_GraphType@@6B@ ; CGraphSearchInfo_GraphType::`vftable'
	DD	FLAT:?FindGraph@CGraphSearchInfo_GraphType@@UAEHPBVCSubGraph@@@Z
	DD	FLAT:?FindGraph@CGraphSearchInfo@@UAEHPBVCGraphImp@@@Z
	DD	FLAT:?FindGraph@CGraphSearchInfo@@UAEHPBVCVertScaleGroup@@@Z
	DD	FLAT:?FindGraph@CGraphSearchInfo@@UAEHPAXPBVCVertScaleGroup@@@Z
	DD	FLAT:?FindGraph@CGraphSearchInfo@@UAEHPBVCBlockImp@@@Z
	DD	FLAT:?FindGraph@CGraphSearchInfo@@UAEHPAXPBVCBlockImp@@@Z
	DD	FLAT:?FindGraph@CGraphSearchInfo@@UAEHPBVCBlocksColumn@@@Z
CONST	ENDS
;	COMDAT ??_7CGraphSearchInfo_VisibleGraphTitle@@6B@
CONST	SEGMENT
??_7CGraphSearchInfo_VisibleGraphTitle@@6B@ DD FLAT:??_R4CGraphSearchInfo_VisibleGraphTitle@@6B@ ; CGraphSearchInfo_VisibleGraphTitle::`vftable'
	DD	FLAT:?FindGraph@CGraphSearchInfo_VisibleGraphTitle@@UAEHPBVCSubGraph@@@Z
	DD	FLAT:?FindGraph@CGraphSearchInfo@@UAEHPBVCGraphImp@@@Z
	DD	FLAT:?FindGraph@CGraphSearchInfo@@UAEHPBVCVertScaleGroup@@@Z
	DD	FLAT:?FindGraph@CGraphSearchInfo@@UAEHPAXPBVCVertScaleGroup@@@Z
	DD	FLAT:?FindGraph@CGraphSearchInfo@@UAEHPBVCBlockImp@@@Z
	DD	FLAT:?FindGraph@CGraphSearchInfo@@UAEHPAXPBVCBlockImp@@@Z
	DD	FLAT:?FindGraph@CGraphSearchInfo@@UAEHPBVCBlocksColumn@@@Z
CONST	ENDS
;	COMDAT ??_7CGraphSearchInfo_VisibleSubGraph@@6B@
CONST	SEGMENT
??_7CGraphSearchInfo_VisibleSubGraph@@6B@ DD FLAT:??_R4CGraphSearchInfo_VisibleSubGraph@@6B@ ; CGraphSearchInfo_VisibleSubGraph::`vftable'
	DD	FLAT:?FindGraph@CGraphSearchInfo_VisibleSubGraph@@UAEHPBVCSubGraph@@@Z
	DD	FLAT:?FindGraph@CGraphSearchInfo@@UAEHPBVCGraphImp@@@Z
	DD	FLAT:?FindGraph@CGraphSearchInfo@@UAEHPBVCVertScaleGroup@@@Z
	DD	FLAT:?FindGraph@CGraphSearchInfo@@UAEHPAXPBVCVertScaleGroup@@@Z
	DD	FLAT:?FindGraph@CGraphSearchInfo@@UAEHPBVCBlockImp@@@Z
	DD	FLAT:?FindGraph@CGraphSearchInfo@@UAEHPAXPBVCBlockImp@@@Z
	DD	FLAT:?FindGraph@CGraphSearchInfo@@UAEHPBVCBlocksColumn@@@Z
CONST	ENDS
;	COMDAT ??_7CGraphSearchInfo_GraphName@@6B@
CONST	SEGMENT
??_7CGraphSearchInfo_GraphName@@6B@ DD FLAT:??_R4CGraphSearchInfo_GraphName@@6B@ ; CGraphSearchInfo_GraphName::`vftable'
	DD	FLAT:?FindGraph@CGraphSearchInfo@@UAEHPBVCSubGraph@@@Z
	DD	FLAT:?FindGraph@CGraphSearchInfo_GraphName@@UAEHPBVCGraphImp@@@Z
	DD	FLAT:?FindGraph@CGraphSearchInfo@@UAEHPBVCVertScaleGroup@@@Z
	DD	FLAT:?FindGraph@CGraphSearchInfo@@UAEHPAXPBVCVertScaleGroup@@@Z
	DD	FLAT:?FindGraph@CGraphSearchInfo@@UAEHPBVCBlockImp@@@Z
	DD	FLAT:?FindGraph@CGraphSearchInfo@@UAEHPAXPBVCBlockImp@@@Z
	DD	FLAT:?FindGraph@CGraphSearchInfo@@UAEHPBVCBlocksColumn@@@Z
CONST	ENDS
;	COMDAT ??_7CGraphSearchInfo_IndicatorNameWithRQ@@6B@
CONST	SEGMENT
??_7CGraphSearchInfo_IndicatorNameWithRQ@@6B@ DD FLAT:??_R4CGraphSearchInfo_IndicatorNameWithRQ@@6B@ ; CGraphSearchInfo_IndicatorNameWithRQ::`vftable'
	DD	FLAT:?FindGraph@CGraphSearchInfo@@UAEHPBVCSubGraph@@@Z
	DD	FLAT:?FindGraph@CGraphSearchInfo_IndicatorNameWithRQ@@UAEHPBVCGraphImp@@@Z
	DD	FLAT:?FindGraph@CGraphSearchInfo@@UAEHPBVCVertScaleGroup@@@Z
	DD	FLAT:?FindGraph@CGraphSearchInfo@@UAEHPAXPBVCVertScaleGroup@@@Z
	DD	FLAT:?FindGraph@CGraphSearchInfo@@UAEHPBVCBlockImp@@@Z
	DD	FLAT:?FindGraph@CGraphSearchInfo@@UAEHPAXPBVCBlockImp@@@Z
	DD	FLAT:?FindGraph@CGraphSearchInfo@@UAEHPBVCBlocksColumn@@@Z
CONST	ENDS
;	COMDAT ??_7CGraphSearchInfo_IndicatorName@@6B@
CONST	SEGMENT
??_7CGraphSearchInfo_IndicatorName@@6B@ DD FLAT:??_R4CGraphSearchInfo_IndicatorName@@6B@ ; CGraphSearchInfo_IndicatorName::`vftable'
	DD	FLAT:?FindGraph@CGraphSearchInfo@@UAEHPBVCSubGraph@@@Z
	DD	FLAT:?FindGraph@CGraphSearchInfo_IndicatorName@@UAEHPBVCGraphImp@@@Z
	DD	FLAT:?FindGraph@CGraphSearchInfo@@UAEHPBVCVertScaleGroup@@@Z
	DD	FLAT:?FindGraph@CGraphSearchInfo@@UAEHPAXPBVCVertScaleGroup@@@Z
	DD	FLAT:?FindGraph@CGraphSearchInfo@@UAEHPBVCBlockImp@@@Z
	DD	FLAT:?FindGraph@CGraphSearchInfo@@UAEHPAXPBVCBlockImp@@@Z
	DD	FLAT:?FindGraph@CGraphSearchInfo@@UAEHPBVCBlocksColumn@@@Z
CONST	ENDS
;	COMDAT ??_7CGraphSearchInfo_AnyGraphWithRQ@@6B@
CONST	SEGMENT
??_7CGraphSearchInfo_AnyGraphWithRQ@@6B@ DD FLAT:??_R4CGraphSearchInfo_AnyGraphWithRQ@@6B@ ; CGraphSearchInfo_AnyGraphWithRQ::`vftable'
	DD	FLAT:?FindGraph@CGraphSearchInfo@@UAEHPBVCSubGraph@@@Z
	DD	FLAT:?FindGraph@CGraphSearchInfo_AnyGraphWithRQ@@UAEHPBVCGraphImp@@@Z
	DD	FLAT:?FindGraph@CGraphSearchInfo@@UAEHPBVCVertScaleGroup@@@Z
	DD	FLAT:?FindGraph@CGraphSearchInfo@@UAEHPAXPBVCVertScaleGroup@@@Z
	DD	FLAT:?FindGraph@CGraphSearchInfo@@UAEHPBVCBlockImp@@@Z
	DD	FLAT:?FindGraph@CGraphSearchInfo@@UAEHPAXPBVCBlockImp@@@Z
	DD	FLAT:?FindGraph@CGraphSearchInfo@@UAEHPBVCBlocksColumn@@@Z
CONST	ENDS
;	COMDAT ??_7CGraphSearchInfo_AnyGraph@@6B@
CONST	SEGMENT
??_7CGraphSearchInfo_AnyGraph@@6B@ DD FLAT:??_R4CGraphSearchInfo_AnyGraph@@6B@ ; CGraphSearchInfo_AnyGraph::`vftable'
	DD	FLAT:?FindGraph@CGraphSearchInfo@@UAEHPBVCSubGraph@@@Z
	DD	FLAT:?FindGraph@CGraphSearchInfo_AnyGraph@@UAEHPBVCGraphImp@@@Z
	DD	FLAT:?FindGraph@CGraphSearchInfo@@UAEHPBVCVertScaleGroup@@@Z
	DD	FLAT:?FindGraph@CGraphSearchInfo@@UAEHPAXPBVCVertScaleGroup@@@Z
	DD	FLAT:?FindGraph@CGraphSearchInfo@@UAEHPBVCBlockImp@@@Z
	DD	FLAT:?FindGraph@CGraphSearchInfo@@UAEHPAXPBVCBlockImp@@@Z
	DD	FLAT:?FindGraph@CGraphSearchInfo@@UAEHPBVCBlocksColumn@@@Z
CONST	ENDS
;	COMDAT ??_7CGraphSearchInfo_HasVertScale@@6B@
CONST	SEGMENT
??_7CGraphSearchInfo_HasVertScale@@6B@ DD FLAT:??_R4CGraphSearchInfo_HasVertScale@@6B@ ; CGraphSearchInfo_HasVertScale::`vftable'
	DD	FLAT:?FindGraph@CGraphSearchInfo@@UAEHPBVCSubGraph@@@Z
	DD	FLAT:?FindGraph@CGraphSearchInfo@@UAEHPBVCGraphImp@@@Z
	DD	FLAT:?FindGraph@CGraphSearchInfo_HasVertScale@@UAEHPBVCVertScaleGroup@@@Z
	DD	FLAT:?FindGraph@CGraphSearchInfo@@UAEHPAXPBVCVertScaleGroup@@@Z
	DD	FLAT:?FindGraph@CGraphSearchInfo@@UAEHPBVCBlockImp@@@Z
	DD	FLAT:?FindGraph@CGraphSearchInfo@@UAEHPAXPBVCBlockImp@@@Z
	DD	FLAT:?FindGraph@CGraphSearchInfo@@UAEHPBVCBlocksColumn@@@Z
CONST	ENDS
;	COMDAT ??_7CGraphSearchInfo_InvertVSCaleGroup@@6B@
CONST	SEGMENT
??_7CGraphSearchInfo_InvertVSCaleGroup@@6B@ DD FLAT:??_R4CGraphSearchInfo_InvertVSCaleGroup@@6B@ ; CGraphSearchInfo_InvertVSCaleGroup::`vftable'
	DD	FLAT:?FindGraph@CGraphSearchInfo@@UAEHPBVCSubGraph@@@Z
	DD	FLAT:?FindGraph@CGraphSearchInfo@@UAEHPBVCGraphImp@@@Z
	DD	FLAT:?FindGraph@CGraphSearchInfo_InvertVSCaleGroup@@UAEHPBVCVertScaleGroup@@@Z
	DD	FLAT:?FindGraph@CGraphSearchInfo@@UAEHPAXPBVCVertScaleGroup@@@Z
	DD	FLAT:?FindGraph@CGraphSearchInfo@@UAEHPBVCBlockImp@@@Z
	DD	FLAT:?FindGraph@CGraphSearchInfo@@UAEHPAXPBVCBlockImp@@@Z
	DD	FLAT:?FindGraph@CGraphSearchInfo@@UAEHPBVCBlocksColumn@@@Z
CONST	ENDS
;	COMDAT ??_7CBlockImp@@6B@
CONST	SEGMENT
??_7CBlockImp@@6B@ DD FLAT:??_R4CBlockImp@@6B@		; CBlockImp::`vftable'
	DD	FLAT:?GetRuntimeClass@CObject@@UBEPAUCRuntimeClass@@XZ
	DD	FLAT:??_ECBlockImp@@MAEPAXI@Z
	DD	FLAT:?Serialize@CObject@@UAEXAAVCArchive@@@Z
	DD	FLAT:?AssertValid@CObject@@UBEXXZ
	DD	FLAT:?Dump@CObject@@UBEXAAVCDumpContext@@@Z
	DD	FLAT:?GetGraphRegions@CBlockImp@@UAEHAAVCRect@@0@Z
	DD	FLAT:?GetHorzScaleRegion@CBlockImp@@UAEHAAVCRect@@0@Z
	DD	FLAT:?GetVertScaleRegion@CBlockImp@@UAEHAAVCRect@@0@Z
	DD	FLAT:?GetGraphDrwingRegion@CBlockImp@@UAE?AVCRect@@W4REGIONPOSITION@CBlock@@@Z
	DD	FLAT:?GetYScaleMinMax@CBlockImp@@UAEHHAAN0@Z
	DD	FLAT:?GetHeadPacketAndDataType@CBlockImp@@UAEHHAAPAVCPacket@@AAN@Z
	DD	FLAT:?GetVScalePosition@CBlockImp@@UAE?AW4VERTSCALEPOSITION@CScaleBaseData@@H@Z
	DD	FLAT:?GetHorzScaleDataPacket@CBlockImp@@UAEPAVCPacket@@XZ
	DD	FLAT:?GetFirstVisibleVScaleIndex@CBlockImp@@UAEHXZ
	DD	FLAT:?GetVScaleMinMaxType@CBlockImp@@UAE?AW4VERTMINMAXTYPE@CScaleBaseData@@H@Z
	DD	FLAT:?GetVScaleMinMaxSetting@CBlockImp@@UAEHHAAHAAW4VERTMINMAXTYPE@CScaleBaseData@@AAN2@Z
	DD	FLAT:?SetVScaleMinMaxSetting@CBlockImp@@UAEHHHW4VERTMINMAXTYPE@CScaleBaseData@@NN@Z
	DD	FLAT:?IsLogScale@CBlockImp@@UAEHXZ
	DD	FLAT:?SetLogScale@CBlockImp@@UAEHH@Z
	DD	FLAT:?IsVScaleInvert@CBlockImp@@UAEHH@Z
	DD	FLAT:?SetVScaleInvert@CBlockImp@@UAEHHH@Z
	DD	FLAT:?HasInvertScale@CBlockImp@@UAEHXZ
	DD	FLAT:?SetAllInvertScale@CBlockImp@@UAEHH@Z
	DD	FLAT:?GetActiveVScaleIndex@CBlockImp@@UAEHW4VERTSCALEPOSITION@CScaleBaseData@@@Z
	DD	FLAT:?GetVScaleCount@CBlockImp@@UAEHXZ
	DD	FLAT:?GetCoordinateInfos@CBlockImp@@MAE?AV?$CStringT@DV?$StrTraitMFC_DLL@DV?$ChTraitsCRT@D@ATL@@@@@ATL@@AAPAVCPacket@@0AAN11AAH2@Z
	DD	FLAT:?GetIndexOfGraph@CBlockImp@@UAEHPBDAAH1@Z
	DD	FLAT:?DeleteGraph@CBlockImp@@UAEHHH@Z
	DD	FLAT:?UpdateGraphWithGraphInfo@CBlockImp@@UAEHHHH@Z
	DD	FLAT:?FindFirstIndicator@CBlockImp@@UAEHPBDAAH1AAV?$CStringT@DV?$StrTraitMFC_DLL@DV?$ChTraitsCRT@D@ATL@@@@@ATL@@0@Z
	DD	FLAT:?FindNextIndicator@CBlockImp@@UAEHPBDAAH1AAV?$CStringT@DV?$StrTraitMFC_DLL@DV?$ChTraitsCRT@D@ATL@@@@@ATL@@0@Z
	DD	FLAT:?GetDateCompart@CBlockImp@@UAE?AV?$CStringT@DV?$StrTraitMFC_DLL@DV?$ChTraitsCRT@D@ATL@@@@@ATL@@XZ
	DD	FLAT:?GetTimeCompart@CBlockImp@@UAE?AV?$CStringT@DV?$StrTraitMFC_DLL@DV?$ChTraitsCRT@D@ATL@@@@@ATL@@XZ
	DD	FLAT:?GetScaleTextType@CBlockImp@@UAE?AW4TEXTCOMPARTTYPE@CScaleBaseData@@XZ
	DD	FLAT:?GetHorizontalScaleHeight@CBlockImp@@UBEHXZ
	DD	FLAT:?GetMasterValueRQ@CBlockImp@@MAEPBDXZ
CONST	ENDS
;	COMDAT ??_7CBlock@@6B@
CONST	SEGMENT
??_7CBlock@@6B@ DD FLAT:??_R4CBlock@@6B@		; CBlock::`vftable'
	DD	FLAT:?GetRuntimeClass@CObject@@UBEPAUCRuntimeClass@@XZ
	DD	FLAT:??_ECBlock@@UAEPAXI@Z
	DD	FLAT:?Serialize@CObject@@UAEXAAVCArchive@@@Z
	DD	FLAT:?AssertValid@CObject@@UBEXXZ
	DD	FLAT:?Dump@CObject@@UBEXAAVCDumpContext@@@Z
	DD	FLAT:__purecall
	DD	FLAT:__purecall
	DD	FLAT:__purecall
	DD	FLAT:__purecall
	DD	FLAT:__purecall
	DD	FLAT:__purecall
	DD	FLAT:__purecall
	DD	FLAT:__purecall
	DD	FLAT:__purecall
	DD	FLAT:__purecall
	DD	FLAT:__purecall
	DD	FLAT:__purecall
	DD	FLAT:__purecall
	DD	FLAT:__purecall
	DD	FLAT:__purecall
	DD	FLAT:__purecall
	DD	FLAT:__purecall
	DD	FLAT:__purecall
	DD	FLAT:__purecall
	DD	FLAT:__purecall
	DD	FLAT:__purecall
	DD	FLAT:__purecall
	DD	FLAT:__purecall
	DD	FLAT:__purecall
	DD	FLAT:__purecall
	DD	FLAT:__purecall
	DD	FLAT:__purecall
	DD	FLAT:__purecall
	DD	FLAT:__purecall
	DD	FLAT:__purecall
	DD	FLAT:__purecall
CONST	ENDS
;	COMDAT ??_R1A@?0A@EA@CObject@@8
rdata$r	SEGMENT
??_R1A@?0A@EA@CObject@@8 DD FLAT:??_R0?AVCObject@@@8	; CObject::`RTTI Base Class Descriptor at (0,-1,0,64)'
	DD	00H
	DD	00H
	DD	0ffffffffH
	DD	00H
	DD	040H
	DD	FLAT:??_R3CObject@@8
rdata$r	ENDS
;	COMDAT ??_R2CObject@@8
rdata$r	SEGMENT
??_R2CObject@@8 DD FLAT:??_R1A@?0A@EA@CObject@@8	; CObject::`RTTI Base Class Array'
rdata$r	ENDS
;	COMDAT ??_R3CObject@@8
rdata$r	SEGMENT
??_R3CObject@@8 DD 00H					; CObject::`RTTI Class Hierarchy Descriptor'
	DD	00H
	DD	01H
	DD	FLAT:??_R2CObject@@8
rdata$r	ENDS
;	COMDAT ??_R0?AVCObject@@@8
data$rs	SEGMENT
??_R0?AVCObject@@@8 DD FLAT:??_7type_info@@6B@		; CObject `RTTI Type Descriptor'
	DD	00H
	DB	'.?AVCObject@@', 00H
data$rs	ENDS
;	COMDAT ??_C@_00CNPNBAHC@@
CONST	SEGMENT
??_C@_00CNPNBAHC@@ DB 00H				; `string'
CONST	ENDS
;	COMDAT xdata$x
xdata$x	SEGMENT
__unwindtable$?GetCoordinateInfos@CBlockImp@@MAE?AV?$CStringT@DV?$StrTraitMFC_DLL@DV?$ChTraitsCRT@D@ATL@@@@@ATL@@AAPAVCPacket@@0AAN11AAH2@Z DD 0ffffffffH
	DD	FLAT:__unwindfunclet$?GetCoordinateInfos@CBlockImp@@MAE?AV?$CStringT@DV?$StrTraitMFC_DLL@DV?$ChTraitsCRT@D@ATL@@@@@ATL@@AAPAVCPacket@@0AAN11AAH2@Z$1
	DD	00H
	DD	FLAT:__unwindfunclet$?GetCoordinateInfos@CBlockImp@@MAE?AV?$CStringT@DV?$StrTraitMFC_DLL@DV?$ChTraitsCRT@D@ATL@@@@@ATL@@AAPAVCPacket@@0AAN11AAH2@Z$2
	DD	01H
	DD	FLAT:__unwindfunclet$?GetCoordinateInfos@CBlockImp@@MAE?AV?$CStringT@DV?$StrTraitMFC_DLL@DV?$ChTraitsCRT@D@ATL@@@@@ATL@@AAPAVCPacket@@0AAN11AAH2@Z$3
	DD	02H
	DD	FLAT:__unwindfunclet$?GetCoordinateInfos@CBlockImp@@MAE?AV?$CStringT@DV?$StrTraitMFC_DLL@DV?$ChTraitsCRT@D@ATL@@@@@ATL@@AAPAVCPacket@@0AAN11AAH2@Z$5
__ehfuncinfo$?GetCoordinateInfos@CBlockImp@@MAE?AV?$CStringT@DV?$StrTraitMFC_DLL@DV?$ChTraitsCRT@D@ATL@@@@@ATL@@AAPAVCPacket@@0AAN11AAH2@Z DD 019930522H
	DD	04H
	DD	FLAT:__unwindtable$?GetCoordinateInfos@CBlockImp@@MAE?AV?$CStringT@DV?$StrTraitMFC_DLL@DV?$ChTraitsCRT@D@ATL@@@@@ATL@@AAPAVCPacket@@0AAN11AAH2@Z
	DD	2 DUP(00H)
	DD	2 DUP(00H)
	DD	00H
	DD	01H
xdata$x	ENDS
;	COMDAT xdata$x
xdata$x	SEGMENT
__unwindtable$?GetHorzScaleDataPacket@CBlockImp@@UAEPAVCPacket@@XZ DD 0ffffffffH
	DD	FLAT:__unwindfunclet$?GetHorzScaleDataPacket@CBlockImp@@UAEPAVCPacket@@XZ$0
	DD	00H
	DD	FLAT:__unwindfunclet$?GetHorzScaleDataPacket@CBlockImp@@UAEPAVCPacket@@XZ$1
__ehfuncinfo$?GetHorzScaleDataPacket@CBlockImp@@UAEPAVCPacket@@XZ DD 019930522H
	DD	02H
	DD	FLAT:__unwindtable$?GetHorzScaleDataPacket@CBlockImp@@UAEPAVCPacket@@XZ
	DD	2 DUP(00H)
	DD	2 DUP(00H)
	DD	00H
	DD	01H
xdata$x	ENDS
;	COMDAT xdata$x
xdata$x	SEGMENT
__unwindtable$?FindNextIndicator@CBlockImp@@UAEHPBDAAH1AAV?$CStringT@DV?$StrTraitMFC_DLL@DV?$ChTraitsCRT@D@ATL@@@@@ATL@@0@Z DD 0ffffffffH
	DD	FLAT:__unwindfunclet$?FindNextIndicator@CBlockImp@@UAEHPBDAAH1AAV?$CStringT@DV?$StrTraitMFC_DLL@DV?$ChTraitsCRT@D@ATL@@@@@ATL@@0@Z$0
	DD	00H
	DD	FLAT:__unwindfunclet$?FindNextIndicator@CBlockImp@@UAEHPBDAAH1AAV?$CStringT@DV?$StrTraitMFC_DLL@DV?$ChTraitsCRT@D@ATL@@@@@ATL@@0@Z$1
	DD	01H
	DD	FLAT:__unwindfunclet$?FindNextIndicator@CBlockImp@@UAEHPBDAAH1AAV?$CStringT@DV?$StrTraitMFC_DLL@DV?$ChTraitsCRT@D@ATL@@@@@ATL@@0@Z$2
	DD	02H
	DD	FLAT:__unwindfunclet$?FindNextIndicator@CBlockImp@@UAEHPBDAAH1AAV?$CStringT@DV?$StrTraitMFC_DLL@DV?$ChTraitsCRT@D@ATL@@@@@ATL@@0@Z$3
__ehfuncinfo$?FindNextIndicator@CBlockImp@@UAEHPBDAAH1AAV?$CStringT@DV?$StrTraitMFC_DLL@DV?$ChTraitsCRT@D@ATL@@@@@ATL@@0@Z DD 019930522H
	DD	04H
	DD	FLAT:__unwindtable$?FindNextIndicator@CBlockImp@@UAEHPBDAAH1AAV?$CStringT@DV?$StrTraitMFC_DLL@DV?$ChTraitsCRT@D@ATL@@@@@ATL@@0@Z
	DD	2 DUP(00H)
	DD	2 DUP(00H)
	DD	00H
	DD	01H
xdata$x	ENDS
;	COMDAT xdata$x
xdata$x	SEGMENT
__unwindtable$?FindFirstIndicator@CBlockImp@@UAEHPBDAAH1AAV?$CStringT@DV?$StrTraitMFC_DLL@DV?$ChTraitsCRT@D@ATL@@@@@ATL@@0@Z DD 0ffffffffH
	DD	FLAT:__unwindfunclet$?FindFirstIndicator@CBlockImp@@UAEHPBDAAH1AAV?$CStringT@DV?$StrTraitMFC_DLL@DV?$ChTraitsCRT@D@ATL@@@@@ATL@@0@Z$0
	DD	00H
	DD	FLAT:__unwindfunclet$?FindFirstIndicator@CBlockImp@@UAEHPBDAAH1AAV?$CStringT@DV?$StrTraitMFC_DLL@DV?$ChTraitsCRT@D@ATL@@@@@ATL@@0@Z$1
	DD	01H
	DD	FLAT:__unwindfunclet$?FindFirstIndicator@CBlockImp@@UAEHPBDAAH1AAV?$CStringT@DV?$StrTraitMFC_DLL@DV?$ChTraitsCRT@D@ATL@@@@@ATL@@0@Z$2
	DD	02H
	DD	FLAT:__unwindfunclet$?FindFirstIndicator@CBlockImp@@UAEHPBDAAH1AAV?$CStringT@DV?$StrTraitMFC_DLL@DV?$ChTraitsCRT@D@ATL@@@@@ATL@@0@Z$3
__ehfuncinfo$?FindFirstIndicator@CBlockImp@@UAEHPBDAAH1AAV?$CStringT@DV?$StrTraitMFC_DLL@DV?$ChTraitsCRT@D@ATL@@@@@ATL@@0@Z DD 019930522H
	DD	04H
	DD	FLAT:__unwindtable$?FindFirstIndicator@CBlockImp@@UAEHPBDAAH1AAV?$CStringT@DV?$StrTraitMFC_DLL@DV?$ChTraitsCRT@D@ATL@@@@@ATL@@0@Z
	DD	2 DUP(00H)
	DD	2 DUP(00H)
	DD	00H
	DD	01H
xdata$x	ENDS
;	COMDAT xdata$x
xdata$x	SEGMENT
__unwindtable$?GetIndexOfGraph@CBlockImp@@UAEHPBDAAH1@Z DD 0ffffffffH
	DD	FLAT:__unwindfunclet$?GetIndexOfGraph@CBlockImp@@UAEHPBDAAH1@Z$0
__ehfuncinfo$?GetIndexOfGraph@CBlockImp@@UAEHPBDAAH1@Z DD 019930522H
	DD	01H
	DD	FLAT:__unwindtable$?GetIndexOfGraph@CBlockImp@@UAEHPBDAAH1@Z
	DD	2 DUP(00H)
	DD	2 DUP(00H)
	DD	00H
	DD	01H
xdata$x	ENDS
;	COMDAT xdata$x
xdata$x	SEGMENT
__unwindtable$?GetViewHorzMinMax@CBlockImp@@QAE?AVCDisplayDataMinMax@@XZ DD 0ffffffffH
	DD	FLAT:__unwindfunclet$?GetViewHorzMinMax@CBlockImp@@QAE?AVCDisplayDataMinMax@@XZ$0
	DD	00H
	DD	FLAT:__unwindfunclet$?GetViewHorzMinMax@CBlockImp@@QAE?AVCDisplayDataMinMax@@XZ$1
	DD	01H
	DD	FLAT:__unwindfunclet$?GetViewHorzMinMax@CBlockImp@@QAE?AVCDisplayDataMinMax@@XZ$2
	DD	00H
	DD	FLAT:__unwindfunclet$?GetViewHorzMinMax@CBlockImp@@QAE?AVCDisplayDataMinMax@@XZ$2
__ehfuncinfo$?GetViewHorzMinMax@CBlockImp@@QAE?AVCDisplayDataMinMax@@XZ DD 019930522H
	DD	04H
	DD	FLAT:__unwindtable$?GetViewHorzMinMax@CBlockImp@@QAE?AVCDisplayDataMinMax@@XZ
	DD	2 DUP(00H)
	DD	2 DUP(00H)
	DD	00H
	DD	01H
xdata$x	ENDS
;	COMDAT xdata$x
xdata$x	SEGMENT
__ehfuncinfo$?CalculateDrawingRegion@CBlockImp@@QAEXPAVCDC@@ABVCRect@@ABVCVertScaleRegionWidth@@@Z DD 019930522H
	DD	08H
	DD	FLAT:__unwindtable$?CalculateDrawingRegion@CBlockImp@@QAEXPAVCDC@@ABVCRect@@ABVCVertScaleRegionWidth@@@Z
	DD	2 DUP(00H)
	DD	2 DUP(00H)
	DD	00H
	DD	01H
__unwindtable$?CalculateDrawingRegion@CBlockImp@@QAEXPAVCDC@@ABVCRect@@ABVCVertScaleRegionWidth@@@Z DD 0ffffffffH
	DD	FLAT:__unwindfunclet$?CalculateDrawingRegion@CBlockImp@@QAEXPAVCDC@@ABVCRect@@ABVCVertScaleRegionWidth@@@Z$4
	DD	00H
	DD	FLAT:__unwindfunclet$?CalculateDrawingRegion@CBlockImp@@QAEXPAVCDC@@ABVCRect@@ABVCVertScaleRegionWidth@@@Z$5
	DD	01H
	DD	FLAT:__unwindfunclet$?CalculateDrawingRegion@CBlockImp@@QAEXPAVCDC@@ABVCRect@@ABVCVertScaleRegionWidth@@@Z$6
	DD	00H
	DD	FLAT:__unwindfunclet$?CalculateDrawingRegion@CBlockImp@@QAEXPAVCDC@@ABVCRect@@ABVCVertScaleRegionWidth@@@Z$6
	DD	0ffffffffH
	DD	FLAT:__unwindfunclet$?CalculateDrawingRegion@CBlockImp@@QAEXPAVCDC@@ABVCRect@@ABVCVertScaleRegionWidth@@@Z$1
	DD	04H
	DD	FLAT:__unwindfunclet$?CalculateDrawingRegion@CBlockImp@@QAEXPAVCDC@@ABVCRect@@ABVCVertScaleRegionWidth@@@Z$2
	DD	0ffffffffH
	DD	FLAT:__unwindfunclet$?CalculateDrawingRegion@CBlockImp@@QAEXPAVCDC@@ABVCRect@@ABVCVertScaleRegionWidth@@@Z$2
	DD	0ffffffffH
	DD	FLAT:__unwindfunclet$?CalculateDrawingRegion@CBlockImp@@QAEXPAVCDC@@ABVCRect@@ABVCVertScaleRegionWidth@@@Z$3
xdata$x	ENDS
;	COMDAT xdata$x
xdata$x	SEGMENT
__unwindtable$?DrawHorzAndVertScale@CBlockImp@@QAEXPAVCDC@@ABVCRect@@@Z DD 0ffffffffH
	DD	FLAT:__unwindfunclet$?DrawHorzAndVertScale@CBlockImp@@QAEXPAVCDC@@ABVCRect@@@Z$0
__ehfuncinfo$?DrawHorzAndVertScale@CBlockImp@@QAEXPAVCDC@@ABVCRect@@@Z DD 019930522H
	DD	01H
	DD	FLAT:__unwindtable$?DrawHorzAndVertScale@CBlockImp@@QAEXPAVCDC@@ABVCRect@@@Z
	DD	2 DUP(00H)
	DD	2 DUP(00H)
	DD	00H
	DD	01H
xdata$x	ENDS
;	COMDAT xdata$x
xdata$x	SEGMENT
__unwindtable$?DrawBlockBackground@CBlockImp@@QAEXPAVCDC@@ABVCRect@@H@Z DD 0ffffffffH
	DD	FLAT:__unwindfunclet$?DrawBlockBackground@CBlockImp@@QAEXPAVCDC@@ABVCRect@@H@Z$0
__ehfuncinfo$?DrawBlockBackground@CBlockImp@@QAEXPAVCDC@@ABVCRect@@H@Z DD 019930522H
	DD	01H
	DD	FLAT:__unwindtable$?DrawBlockBackground@CBlockImp@@QAEXPAVCDC@@ABVCRect@@H@Z
	DD	2 DUP(00H)
	DD	2 DUP(00H)
	DD	00H
	DD	01H
xdata$x	ENDS
;	COMDAT xdata$x
xdata$x	SEGMENT
__ehfuncinfo$?GetBlockAllData@CBlockImp@@QBEXAAVCStringList@@@Z DD 019930522H
	DD	06H
	DD	FLAT:__unwindtable$?GetBlockAllData@CBlockImp@@QBEXAAVCStringList@@@Z
	DD	2 DUP(00H)
	DD	2 DUP(00H)
	DD	00H
	DD	01H
__unwindtable$?GetBlockAllData@CBlockImp@@QBEXAAVCStringList@@@Z DD 0ffffffffH
	DD	FLAT:__unwindfunclet$?GetBlockAllData@CBlockImp@@QBEXAAVCStringList@@@Z$0
	DD	00H
	DD	FLAT:__unwindfunclet$?GetBlockAllData@CBlockImp@@QBEXAAVCStringList@@@Z$1
	DD	00H
	DD	FLAT:__unwindfunclet$?GetBlockAllData@CBlockImp@@QBEXAAVCStringList@@@Z$2
	DD	00H
	DD	FLAT:__unwindfunclet$?GetBlockAllData@CBlockImp@@QBEXAAVCStringList@@@Z$3
	DD	00H
	DD	FLAT:__unwindfunclet$?GetBlockAllData@CBlockImp@@QBEXAAVCStringList@@@Z$4
	DD	00H
	DD	FLAT:__unwindfunclet$?GetBlockAllData@CBlockImp@@QBEXAAVCStringList@@@Z$5
xdata$x	ENDS
;	COMDAT xdata$x
xdata$x	SEGMENT
__unwindtable$?BuildGraphsAndScales@CBlockImp@@QAEXPADAAH@Z DD 0ffffffffH
	DD	FLAT:__unwindfunclet$?BuildGraphsAndScales@CBlockImp@@QAEXPADAAH@Z$0
	DD	00H
	DD	FLAT:__unwindfunclet$?BuildGraphsAndScales@CBlockImp@@QAEXPADAAH@Z$1
__ehfuncinfo$?BuildGraphsAndScales@CBlockImp@@QAEXPADAAH@Z DD 019930522H
	DD	02H
	DD	FLAT:__unwindtable$?BuildGraphsAndScales@CBlockImp@@QAEXPADAAH@Z
	DD	2 DUP(00H)
	DD	2 DUP(00H)
	DD	00H
	DD	01H
xdata$x	ENDS
;	COMDAT xdata$x
xdata$x	SEGMENT
__unwindtable$?Make@CBlockImp@@SAPAV1@PAVCMainBlockBaseData@@PAVCBlocksColumn@@@Z DD 0ffffffffH
	DD	FLAT:__unwindfunclet$?Make@CBlockImp@@SAPAV1@PAVCMainBlockBaseData@@PAVCBlocksColumn@@@Z$0
	DD	00H
	DD	FLAT:__unwindfunclet$?Make@CBlockImp@@SAPAV1@PAVCMainBlockBaseData@@PAVCBlocksColumn@@@Z$1
	DD	01H
	DD	FLAT:__unwindfunclet$?Make@CBlockImp@@SAPAV1@PAVCMainBlockBaseData@@PAVCBlocksColumn@@@Z$2
__ehfuncinfo$?Make@CBlockImp@@SAPAV1@PAVCMainBlockBaseData@@PAVCBlocksColumn@@@Z DD 019930522H
	DD	03H
	DD	FLAT:__unwindtable$?Make@CBlockImp@@SAPAV1@PAVCMainBlockBaseData@@PAVCBlocksColumn@@@Z
	DD	2 DUP(00H)
	DD	2 DUP(00H)
	DD	00H
	DD	01H
xdata$x	ENDS
;	COMDAT xdata$x
xdata$x	SEGMENT
__unwindtable$??0CBlockImp@@IAE@PAVCMainBlockBaseData@@PAVCBlocksColumn@@@Z DD 0ffffffffH
	DD	FLAT:__unwindfunclet$??0CBlockImp@@IAE@PAVCMainBlockBaseData@@PAVCBlocksColumn@@@Z$0
	DD	00H
	DD	FLAT:__unwindfunclet$??0CBlockImp@@IAE@PAVCMainBlockBaseData@@PAVCBlocksColumn@@@Z$1
__ehfuncinfo$??0CBlockImp@@IAE@PAVCMainBlockBaseData@@PAVCBlocksColumn@@@Z DD 019930522H
	DD	02H
	DD	FLAT:__unwindtable$??0CBlockImp@@IAE@PAVCMainBlockBaseData@@PAVCBlocksColumn@@@Z
	DD	2 DUP(00H)
	DD	2 DUP(00H)
	DD	00H
	DD	01H
xdata$x	ENDS
; Function compile flags: /Ogtp
;	COMDAT ??1CGraphSearchInfo_GraphName@@QAE@XZ
_TEXT	SEGMENT
??1CGraphSearchInfo_GraphName@@QAE@XZ PROC		; CGraphSearchInfo_GraphName::~CGraphSearchInfo_GraphName, COMDAT
; _this$ = ecx
  00000	83 c1 40	 add	 ecx, 64			; 00000040H
  00003	ff 25 00 00 00
	00		 jmp	 DWORD PTR __imp_??1?$CStringT@DV?$StrTraitMFC_DLL@DV?$ChTraitsCRT@D@ATL@@@@@ATL@@QAE@XZ
??1CGraphSearchInfo_GraphName@@QAE@XZ ENDP		; CGraphSearchInfo_GraphName::~CGraphSearchInfo_GraphName
_TEXT	ENDS
; Function compile flags: /Ogtp
;	COMDAT ??1CGraphSearchInfo_IndicatorNameWithRQ@@QAE@XZ
_TEXT	SEGMENT
??1CGraphSearchInfo_IndicatorNameWithRQ@@QAE@XZ PROC	; CGraphSearchInfo_IndicatorNameWithRQ::~CGraphSearchInfo_IndicatorNameWithRQ, COMDAT
; _this$ = ecx
  00000	56		 push	 esi
  00001	8b f1		 mov	 esi, ecx
  00003	8d 4e 44	 lea	 ecx, DWORD PTR [esi+68]
  00006	ff 15 00 00 00
	00		 call	 DWORD PTR __imp_??1?$CStringT@DV?$StrTraitMFC_DLL@DV?$ChTraitsCRT@D@ATL@@@@@ATL@@QAE@XZ
  0000c	8d 4e 40	 lea	 ecx, DWORD PTR [esi+64]
  0000f	5e		 pop	 esi
  00010	ff 25 00 00 00
	00		 jmp	 DWORD PTR __imp_??1?$CStringT@DV?$StrTraitMFC_DLL@DV?$ChTraitsCRT@D@ATL@@@@@ATL@@QAE@XZ
??1CGraphSearchInfo_IndicatorNameWithRQ@@QAE@XZ ENDP	; CGraphSearchInfo_IndicatorNameWithRQ::~CGraphSearchInfo_IndicatorNameWithRQ
_TEXT	ENDS
; Function compile flags: /Ogtp
;	COMDAT ??0CGraphSearchInfo_IndicatorNameWithRQ@@QAE@XZ
_TEXT	SEGMENT
_this$ = -4						; size = 4
??0CGraphSearchInfo_IndicatorNameWithRQ@@QAE@XZ PROC	; CGraphSearchInfo_IndicatorNameWithRQ::CGraphSearchInfo_IndicatorNameWithRQ, COMDAT
; _this$ = ecx
  00000	55		 push	 ebp
  00001	8b ec		 mov	 ebp, esp
  00003	51		 push	 ecx
  00004	56		 push	 esi
  00005	8b f1		 mov	 esi, ecx
  00007	89 75 fc	 mov	 DWORD PTR _this$[ebp], esi
  0000a	e8 00 00 00 00	 call	 ??0CGraphSearchInfo@@QAE@XZ ; CGraphSearchInfo::CGraphSearchInfo
  0000f	8d 4e 40	 lea	 ecx, DWORD PTR [esi+64]
  00012	c7 06 00 00 00
	00		 mov	 DWORD PTR [esi], OFFSET ??_7CGraphSearchInfo_IndicatorName@@6B@
  00018	ff 15 00 00 00
	00		 call	 DWORD PTR __imp_??0?$CStringT@DV?$StrTraitMFC_DLL@DV?$ChTraitsCRT@D@ATL@@@@@ATL@@QAE@XZ
  0001e	8d 4e 44	 lea	 ecx, DWORD PTR [esi+68]
  00021	c7 06 00 00 00
	00		 mov	 DWORD PTR [esi], OFFSET ??_7CGraphSearchInfo_IndicatorNameWithRQ@@6B@
  00027	ff 15 00 00 00
	00		 call	 DWORD PTR __imp_??0?$CStringT@DV?$StrTraitMFC_DLL@DV?$ChTraitsCRT@D@ATL@@@@@ATL@@QAE@XZ
  0002d	8b c6		 mov	 eax, esi
  0002f	5e		 pop	 esi
  00030	8b e5		 mov	 esp, ebp
  00032	5d		 pop	 ebp
  00033	c3		 ret	 0
??0CGraphSearchInfo_IndicatorNameWithRQ@@QAE@XZ ENDP	; CGraphSearchInfo_IndicatorNameWithRQ::CGraphSearchInfo_IndicatorNameWithRQ
_TEXT	ENDS
; Function compile flags: /Ogtp
;	COMDAT ??1CGraphSearchInfo_IndicatorName@@QAE@XZ
_TEXT	SEGMENT
??1CGraphSearchInfo_IndicatorName@@QAE@XZ PROC		; CGraphSearchInfo_IndicatorName::~CGraphSearchInfo_IndicatorName, COMDAT
; _this$ = ecx
  00000	83 c1 40	 add	 ecx, 64			; 00000040H
  00003	ff 25 00 00 00
	00		 jmp	 DWORD PTR __imp_??1?$CStringT@DV?$StrTraitMFC_DLL@DV?$ChTraitsCRT@D@ATL@@@@@ATL@@QAE@XZ
??1CGraphSearchInfo_IndicatorName@@QAE@XZ ENDP		; CGraphSearchInfo_IndicatorName::~CGraphSearchInfo_IndicatorName
_TEXT	ENDS
; Function compile flags: /Ogtp
;	COMDAT ??1CGraphSearchInfo_AnyGraphWithRQ@@QAE@XZ
_TEXT	SEGMENT
??1CGraphSearchInfo_AnyGraphWithRQ@@QAE@XZ PROC		; CGraphSearchInfo_AnyGraphWithRQ::~CGraphSearchInfo_AnyGraphWithRQ, COMDAT
; _this$ = ecx
  00000	83 c1 40	 add	 ecx, 64			; 00000040H
  00003	ff 25 00 00 00
	00		 jmp	 DWORD PTR __imp_??1?$CStringT@DV?$StrTraitMFC_DLL@DV?$ChTraitsCRT@D@ATL@@@@@ATL@@QAE@XZ
??1CGraphSearchInfo_AnyGraphWithRQ@@QAE@XZ ENDP		; CGraphSearchInfo_AnyGraphWithRQ::~CGraphSearchInfo_AnyGraphWithRQ
_TEXT	ENDS
; Function compile flags: /Ogtp
;	COMDAT ??1CHorzScaleMaxWidthCalculatorData@@QAE@XZ
_TEXT	SEGMENT
??1CHorzScaleMaxWidthCalculatorData@@QAE@XZ PROC	; CHorzScaleMaxWidthCalculatorData::~CHorzScaleMaxWidthCalculatorData, COMDAT
; _this$ = ecx
  00000	83 c1 08	 add	 ecx, 8
  00003	ff 25 00 00 00
	00		 jmp	 DWORD PTR __imp_??1?$CStringT@DV?$StrTraitMFC_DLL@DV?$ChTraitsCRT@D@ATL@@@@@ATL@@QAE@XZ
??1CHorzScaleMaxWidthCalculatorData@@QAE@XZ ENDP	; CHorzScaleMaxWidthCalculatorData::~CHorzScaleMaxWidthCalculatorData
_TEXT	ENDS
; Function compile flags: /Ogtp
;	COMDAT ??1CHorzDisplayDataMinMaxInputData@@QAE@XZ
_TEXT	SEGMENT
??1CHorzDisplayDataMinMaxInputData@@QAE@XZ PROC		; CHorzDisplayDataMinMaxInputData::~CHorzDisplayDataMinMaxInputData, COMDAT
; _this$ = ecx
  00000	83 c1 04	 add	 ecx, 4
  00003	ff 25 00 00 00
	00		 jmp	 DWORD PTR __imp_??1?$CStringT@DV?$StrTraitMFC_DLL@DV?$ChTraitsCRT@D@ATL@@@@@ATL@@QAE@XZ
??1CHorzDisplayDataMinMaxInputData@@QAE@XZ ENDP		; CHorzDisplayDataMinMaxInputData::~CHorzDisplayDataMinMaxInputData
_TEXT	ENDS
; Function compile flags: /Ogtp
; File D:\git\src\IBK\IBK_DRFN\ProjSrc\SrcChartEx\ChartOCX\ChartObject\BlockImp.h
; File C:\Program Files (x86)\Microsoft Visual Studio\2019\Community\VC\Tools\MSVC\14.29.30133\atlmfc\include\afx.inl
;	COMDAT ??_GCBlockImp@@MAEPAXI@Z
_TEXT	SEGMENT
___flags$ = 8						; size = 4
??_GCBlockImp@@MAEPAXI@Z PROC				; CBlockImp::`scalar deleting destructor', COMDAT
; _this$ = ecx
  00000	55		 push	 ebp
  00001	8b ec		 mov	 ebp, esp
; File D:\git\src\IBK\IBK_DRFN\ProjSrc\SrcChartEx\ChartOCX\ChartObject\BlockImp.h

; 45   : 	virtual ~CBlockImp()	{	m_bOnDestructor = TRUE;	}

  00003	56		 push	 esi
  00004	8b f1		 mov	 esi, ecx
  00006	8d 8e 90 00 00
	00		 lea	 ecx, DWORD PTR [esi+144]
  0000c	c7 06 00 00 00
	00		 mov	 DWORD PTR [esi], OFFSET ??_7CBlockImp@@6B@
  00012	c7 86 40 01 00
	00 01 00 00 00	 mov	 DWORD PTR [esi+320], 1
  0001c	e8 00 00 00 00	 call	 ??1CVertScaleGroupList@@UAE@XZ ; CVertScaleGroupList::~CVertScaleGroupList
  00021	8d 4e 10	 lea	 ecx, DWORD PTR [esi+16]
  00024	ff 15 00 00 00
	00		 call	 DWORD PTR __imp_??1CHorizontalScale@@QAE@XZ
  0002a	8b 45 08	 mov	 eax, DWORD PTR ___flags$[ebp]
  0002d	a8 01		 test	 al, 1
  0002f	74 22		 je	 SHORT $LN15@scalar
  00031	a8 04		 test	 al, 4
  00033	75 10		 jne	 SHORT $LN3@scalar
; File C:\Program Files (x86)\Microsoft Visual Studio\2019\Community\VC\Tools\MSVC\14.29.30133\atlmfc\include\afx.inl

; 112  : 	{ ::operator delete(p); }

  00035	56		 push	 esi
  00036	e8 00 00 00 00	 call	 ??3@YAXPAX@Z		; operator delete
  0003b	83 c4 04	 add	 esp, 4
  0003e	8b c6		 mov	 eax, esi
  00040	5e		 pop	 esi
  00041	5d		 pop	 ebp
  00042	c2 04 00	 ret	 4
$LN3@scalar:
  00045	68 48 01 00 00	 push	 328			; 00000148H
  0004a	56		 push	 esi
  0004b	e8 00 00 00 00	 call	 ?__global_delete@@YAXPAXI@Z ; __global_delete
  00050	83 c4 08	 add	 esp, 8
$LN15@scalar:
  00053	8b c6		 mov	 eax, esi
  00055	5e		 pop	 esi
  00056	5d		 pop	 ebp
  00057	c2 04 00	 ret	 4
??_GCBlockImp@@MAEPAXI@Z ENDP				; CBlockImp::`scalar deleting destructor'
_TEXT	ENDS
; Function compile flags: /Ogtp
; File D:\git\src\IBK\IBK_DRFN\ProjSrc\SrcChartEx\ChartOCX\ChartObject\BlockImp.cpp
; File C:\Program Files (x86)\Microsoft Visual Studio\2019\Community\VC\Tools\MSVC\14.29.30133\atlmfc\include\atlsimpstr.h
; File D:\git\src\IBK\IBK_DRFN\ProjSrc\SrcChartEx\ChartOCX\ChartObject\BlockImp.cpp
; File C:\Program Files (x86)\Microsoft Visual Studio\2019\Community\VC\Tools\MSVC\14.29.30133\atlmfc\include\atlsimpstr.h
; File D:\git\src\IBK\IBK_DRFN\ProjSrc\SrcChartEx\ChartOCX\ChartObject\BlockImp.cpp
;	COMDAT ?GetCoordinateInfos@CBlockImp@@MAE?AV?$CStringT@DV?$StrTraitMFC_DLL@DV?$ChTraitsCRT@D@ATL@@@@@ATL@@AAPAVCPacket@@0AAN11AAH2@Z
_TEXT	SEGMENT
_gsi2$ = -248						; size = 72
_gsi3$ = -176						; size = 68
_gsi$ = -108						; size = 64
_ddMinMax$ = -44					; size = 16
tv495 = -24						; size = 4
_strPacketName$ = -20					; size = 4
_strRQ$ = -16						; size = 4
__$EHRec$ = -12						; size = 12
___$ReturnUdt$ = 8					; size = 4
_p_pPacketX$ = 12					; size = 4
_p_pPacketY$ = 16					; size = 4
_p_dMinY$ = 20						; size = 4
_p_dMaxY$ = 24						; size = 4
_p_dDataType$ = 28					; size = 4
_p_bLog$ = 32						; size = 4
_p_bInvert$ = 36					; size = 4
?GetCoordinateInfos@CBlockImp@@MAE?AV?$CStringT@DV?$StrTraitMFC_DLL@DV?$ChTraitsCRT@D@ATL@@@@@ATL@@AAPAVCPacket@@0AAN11AAH2@Z PROC ; CBlockImp::GetCoordinateInfos, COMDAT
; _this$ = ecx

; 821  : {

  00000	55		 push	 ebp
  00001	8b ec		 mov	 ebp, esp
  00003	6a ff		 push	 -1
  00005	68 00 00 00 00	 push	 __ehhandler$?GetCoordinateInfos@CBlockImp@@MAE?AV?$CStringT@DV?$StrTraitMFC_DLL@DV?$ChTraitsCRT@D@ATL@@@@@ATL@@AAPAVCPacket@@0AAN11AAH2@Z
  0000a	64 a1 00 00 00
	00		 mov	 eax, DWORD PTR fs:0
  00010	50		 push	 eax
  00011	81 ec ec 00 00
	00		 sub	 esp, 236		; 000000ecH
  00017	53		 push	 ebx
  00018	56		 push	 esi
  00019	57		 push	 edi
  0001a	a1 00 00 00 00	 mov	 eax, DWORD PTR ___security_cookie
  0001f	33 c5		 xor	 eax, ebp
  00021	50		 push	 eax
  00022	8d 45 f4	 lea	 eax, DWORD PTR __$EHRec$[ebp]
  00025	64 a3 00 00 00
	00		 mov	 DWORD PTR fs:0, eax
  0002b	8b f9		 mov	 edi, ecx
  0002d	8d 4d 94	 lea	 ecx, DWORD PTR _gsi$[ebp]
  00030	e8 00 00 00 00	 call	 ??0CGraphSearchInfo@@QAE@XZ ; CGraphSearchInfo::CGraphSearchInfo

; 822  : 	CGraphSearchInfo_VisibleSubGraph gsi;
; 823  : 	if( !m_vertScaleGroupList.FindGraph( &gsi)) return "";

  00035	8d 45 94	 lea	 eax, DWORD PTR _gsi$[ebp]
  00038	c7 45 94 00 00
	00 00		 mov	 DWORD PTR _gsi$[ebp], OFFSET ??_7CGraphSearchInfo_VisibleSubGraph@@6B@
  0003f	50		 push	 eax
  00040	8d 8f 90 00 00
	00		 lea	 ecx, DWORD PTR [edi+144]
  00046	e8 00 00 00 00	 call	 ?FindGraph@CVertScaleGroupList@@QBEHPAVCGraphSearchInfo@@@Z ; CVertScaleGroupList::FindGraph
  0004b	85 c0		 test	 eax, eax
  0004d	0f 84 31 02 00
	00		 je	 $LN57@GetCoordin

; 824  : 
; 825  : 	// 1. Get Select Graph in first visible VScale Group.
; 826  : 	if( !gsi.m_pVertScaleGroup) return "";

  00053	83 7d c8 00	 cmp	 DWORD PTR _gsi$[ebp+52], 0
  00057	0f 84 27 02 00
	00		 je	 $LN57@GetCoordin

; 827  : 	CGraphImp *pGraph = NULL;
; 828  : 	// 1.1. Find Selected RQ's graph first.
; 829  : 	CString strRQ = m_pMainBlockBaseData->GetMainAttributes().GetIChartCtrl()->GetCurrentRQ();

  0005d	8b 4f 04	 mov	 ecx, DWORD PTR [edi+4]
  00060	e8 00 00 00 00	 call	 ?GetMainAttributes@CMainBlockBaseData@@QAEAAVCMainAttributes@@XZ ; CMainBlockBaseData::GetMainAttributes
  00065	8b c8		 mov	 ecx, eax
  00067	e8 00 00 00 00	 call	 ?GetIChartCtrl@CMainAttributes@@QBEPAUIChartCtrl@@XZ ; CMainAttributes::GetIChartCtrl
  0006c	8b c8		 mov	 ecx, eax
  0006e	8b 10		 mov	 edx, DWORD PTR [eax]
  00070	ff 92 d8 02 00
	00		 call	 DWORD PTR [edx+728]
  00076	50		 push	 eax
  00077	8d 4d f0	 lea	 ecx, DWORD PTR _strRQ$[ebp]
  0007a	ff 15 00 00 00
	00		 call	 DWORD PTR __imp_??0?$CStringT@DV?$StrTraitMFC_DLL@DV?$ChTraitsCRT@D@ATL@@@@@ATL@@QAE@PBD@Z
  00080	8d 8d 50 ff ff
	ff		 lea	 ecx, DWORD PTR _gsi3$[ebp]
  00086	c7 45 fc 00 00
	00 00		 mov	 DWORD PTR __$EHRec$[ebp+8], 0
  0008d	e8 00 00 00 00	 call	 ??0CGraphSearchInfo@@QAE@XZ ; CGraphSearchInfo::CGraphSearchInfo
  00092	8d 4d 90	 lea	 ecx, DWORD PTR _gsi3$[ebp+64]
  00095	c7 85 50 ff ff
	ff 00 00 00 00	 mov	 DWORD PTR _gsi3$[ebp], OFFSET ??_7CGraphSearchInfo_AnyGraphWithRQ@@6B@
  0009f	ff 15 00 00 00
	00		 call	 DWORD PTR __imp_??0?$CStringT@DV?$StrTraitMFC_DLL@DV?$ChTraitsCRT@D@ATL@@@@@ATL@@QAE@XZ

; 830  : 	CGraphSearchInfo_AnyGraphWithRQ gsi3;
; 831  : 	gsi3.m_strRQ = strRQ;

  000a5	8d 45 f0	 lea	 eax, DWORD PTR _strRQ$[ebp]
  000a8	c6 45 fc 01	 mov	 BYTE PTR __$EHRec$[ebp+8], 1
  000ac	50		 push	 eax
  000ad	8d 4d 90	 lea	 ecx, DWORD PTR _gsi3$[ebp+64]
  000b0	ff 15 00 00 00
	00		 call	 DWORD PTR __imp_??4?$CStringT@DV?$StrTraitMFC_DLL@DV?$ChTraitsCRT@D@ATL@@@@@ATL@@QAEAAV01@ABV01@@Z

; 832  : 	if( gsi.m_pVertScaleGroup->FindGraph( &gsi3))

  000b6	8b 4d c8	 mov	 ecx, DWORD PTR _gsi$[ebp+52]
  000b9	8d 85 50 ff ff
	ff		 lea	 eax, DWORD PTR _gsi3$[ebp]
  000bf	50		 push	 eax
  000c0	e8 00 00 00 00	 call	 ?FindGraph@CVertScaleGroup@@QBEHPAVCGraphSearchInfo@@@Z ; CVertScaleGroup::FindGraph
  000c5	85 c0		 test	 eax, eax
  000c7	74 07		 je	 SHORT $LN55@GetCoordin

; 833  : 		pGraph = gsi3.m_pGraphImp;

  000c9	8b 75 88	 mov	 esi, DWORD PTR _gsi3$[ebp+56]
  000cc	85 f6		 test	 esi, esi

; 834  : 	if( !pGraph)

  000ce	75 18		 jne	 SHORT $LN7@GetCoordin
$LN55@GetCoordin:

; 835  : 	{
; 836  : 		pGraph = gsi.m_pVertScaleGroup->GetSelectedGraph();

  000d0	8b 45 c8	 mov	 eax, DWORD PTR _gsi$[ebp+52]
  000d3	8b b0 94 00 00
	00		 mov	 esi, DWORD PTR [eax+148]

; 837  : 		// 1.2. if no selected grpah, no selected rq graph, then first graph.
; 838  : 		if( !pGraph) pGraph = gsi.m_pGraphImp;

  000d9	85 f6		 test	 esi, esi
  000db	75 0b		 jne	 SHORT $LN7@GetCoordin
  000dd	8b 75 cc	 mov	 esi, DWORD PTR _gsi$[ebp+56]
  000e0	85 f6		 test	 esi, esi

; 839  : 	}
; 840  : 	if( !pGraph) return "";

  000e2	0f 84 8c 01 00
	00		 je	 $LN56@GetCoordin
$LN7@GetCoordin:

; 841  : 
; 842  : 	// 2. Get X, Y Packet.
; 843  : 	strRQ = pGraph->GetGraphRQ();

  000e8	8b 06		 mov	 eax, DWORD PTR [esi]
  000ea	8b ce		 mov	 ecx, esi
  000ec	ff 50 1c	 call	 DWORD PTR [eax+28]
  000ef	50		 push	 eax
  000f0	8d 4d f0	 lea	 ecx, DWORD PTR _strRQ$[ebp]
  000f3	ff 15 00 00 00
	00		 call	 DWORD PTR __imp_??4?$CStringT@DV?$StrTraitMFC_DLL@DV?$ChTraitsCRT@D@ATL@@@@@ATL@@QAEAAV01@PBD@Z

; 844  : 	CPacketListManager *pPacketListManager = m_pMainBlockBaseData->GetPacketListManager();

  000f9	8b 4f 04	 mov	 ecx, DWORD PTR [edi+4]
  000fc	e8 00 00 00 00	 call	 ?GetPacketListManager@CMainBlockBaseData@@QBEPAVCPacketListManager@@XZ ; CMainBlockBaseData::GetPacketListManager

; 845  : 	if( !pPacketListManager) return "";

  00101	85 c0		 test	 eax, eax
  00103	0f 84 6b 01 00
	00		 je	 $LN56@GetCoordin

; 846  : 	CPacketList *pPacketList = pPacketListManager->GetPacketList( strRQ);

  00109	8b 10		 mov	 edx, DWORD PTR [eax]
  0010b	8b c8		 mov	 ecx, eax
  0010d	ff 75 f0	 push	 DWORD PTR _strRQ$[ebp]
  00110	ff 52 1c	 call	 DWORD PTR [edx+28]
  00113	8b d8		 mov	 ebx, eax

; 847  : 	if( !pPacketList) return "";

  00115	85 db		 test	 ebx, ebx
  00117	0f 84 57 01 00
	00		 je	 $LN56@GetCoordin

; 848  : 	// 2.1. Get X Packet.
; 849  : 	CString strPacketName = m_blockData.GetHorzScale().GetScaleData();

  0011d	8d 47 10	 lea	 eax, DWORD PTR [edi+16]
  00120	8d 4d ec	 lea	 ecx, DWORD PTR _strPacketName$[ebp]
  00123	89 45 e8	 mov	 DWORD PTR tv495[ebp], eax
  00126	51		 push	 ecx
  00127	8b c8		 mov	 ecx, eax
  00129	e8 00 00 00 00	 call	 ?GetHorzScale@CBlockData@@QAEAAVCHorizontalScale@@XZ ; CBlockData::GetHorzScale
  0012e	8b c8		 mov	 ecx, eax
  00130	ff 15 00 00 00
	00		 call	 DWORD PTR __imp_?GetScaleData@CScale@@QBE?AV?$CStringT@DV?$StrTraitMFC_DLL@DV?$ChTraitsCRT@D@ATL@@@@@ATL@@XZ
; File C:\Program Files (x86)\Microsoft Visual Studio\2019\Community\VC\Tools\MSVC\14.29.30133\atlmfc\include\atlsimpstr.h

; 519  : 		return( GetData()->nDataLength );

  00136	8b 45 ec	 mov	 eax, DWORD PTR _strPacketName$[ebp]
; File D:\git\src\IBK\IBK_DRFN\ProjSrc\SrcChartEx\ChartOCX\ChartObject\BlockImp.cpp

; 850  : 	if( !strPacketName.IsEmpty()) p_pPacketX = pPacketList->GetBaseData( strPacketName);

  00139	8b 3d 00 00 00
	00		 mov	 edi, DWORD PTR __imp_?GetBaseData@CPacketList@@QAEPAVCPacket@@V?$CStringT@DV?$StrTraitMFC_DLL@DV?$ChTraitsCRT@D@ATL@@@@@ATL@@_N@Z
  0013f	c6 45 fc 02	 mov	 BYTE PTR __$EHRec$[ebp+8], 2
; File C:\Program Files (x86)\Microsoft Visual Studio\2019\Community\VC\Tools\MSVC\14.29.30133\atlmfc\include\atlsimpstr.h

; 533  : 		return( GetLength() == 0 );

  00143	83 78 f4 00	 cmp	 DWORD PTR [eax-12], 0
; File D:\git\src\IBK\IBK_DRFN\ProjSrc\SrcChartEx\ChartOCX\ChartObject\BlockImp.cpp

; 850  : 	if( !strPacketName.IsEmpty()) p_pPacketX = pPacketList->GetBaseData( strPacketName);

  00147	74 18		 je	 SHORT $LN10@GetCoordin
  00149	6a 01		 push	 1
  0014b	51		 push	 ecx
  0014c	8d 45 ec	 lea	 eax, DWORD PTR _strPacketName$[ebp]
  0014f	8b cc		 mov	 ecx, esp
  00151	50		 push	 eax
  00152	ff 15 00 00 00
	00		 call	 DWORD PTR __imp_??0?$CStringT@DV?$StrTraitMFC_DLL@DV?$ChTraitsCRT@D@ATL@@@@@ATL@@QAE@ABV01@@Z
  00158	8b cb		 mov	 ecx, ebx
  0015a	ff d7		 call	 edi
  0015c	8b 55 0c	 mov	 edx, DWORD PTR _p_pPacketX$[ebp]
  0015f	89 02		 mov	 DWORD PTR [edx], eax
$LN10@GetCoordin:

; 851  : 	// 2.2. Get Y Packet
; 852  : 	p_pPacketY = pGraph->GetSubGraphList().GetHeadPacket();

  00161	8b ce		 mov	 ecx, esi
  00163	e8 00 00 00 00	 call	 ?GetSubGraphList@CGraphImp@@QAEAAVCSubGraphList@@XZ ; CGraphImp::GetSubGraphList
  00168	8b c8		 mov	 ecx, eax
  0016a	e8 00 00 00 00	 call	 ?GetHeadPacket@CSubGraphList@@QBEPAVCPacket@@XZ ; CSubGraphList::GetHeadPacket
  0016f	8b 75 10	 mov	 esi, DWORD PTR _p_pPacketY$[ebp]

; 853  : 	// 2.2.1. Use close packet with price chart.
; 854  : 	CGraphSearchInfo_IndicatorNameWithRQ gsi2;

  00172	8d 8d 08 ff ff
	ff		 lea	 ecx, DWORD PTR _gsi2$[ebp]
  00178	89 06		 mov	 DWORD PTR [esi], eax
  0017a	e8 00 00 00 00	 call	 ??0CGraphSearchInfo_IndicatorNameWithRQ@@QAE@XZ

; 855  : 	gsi2.m_strIndicatorName = _MTEXT( C2_PRICE_CHART);

  0017f	a1 54 00 00 00	 mov	 eax, DWORD PTR ?g_iMetaTable@@3VIMetaTable@@A+84
  00184	8d 8d 48 ff ff
	ff		 lea	 ecx, DWORD PTR _gsi2$[ebp+64]
  0018a	c6 45 fc 03	 mov	 BYTE PTR __$EHRec$[ebp+8], 3
  0018e	ff b0 28 03 00
	00		 push	 DWORD PTR [eax+808]
  00194	ff 15 00 00 00
	00		 call	 DWORD PTR __imp_??4?$CStringT@DV?$StrTraitMFC_DLL@DV?$ChTraitsCRT@D@ATL@@@@@ATL@@QAEAAV01@PBD@Z

; 856  : 	gsi2.m_strRQ = strRQ;

  0019a	8d 45 f0	 lea	 eax, DWORD PTR _strRQ$[ebp]
  0019d	50		 push	 eax
  0019e	8d 8d 4c ff ff
	ff		 lea	 ecx, DWORD PTR _gsi2$[ebp+68]
  001a4	ff 15 00 00 00
	00		 call	 DWORD PTR __imp_??4?$CStringT@DV?$StrTraitMFC_DLL@DV?$ChTraitsCRT@D@ATL@@@@@ATL@@QAEAAV01@ABV01@@Z

; 857  : 	if( gsi.m_pVertScaleGroup->FindGraph( &gsi2))

  001aa	8b 4d c8	 mov	 ecx, DWORD PTR _gsi$[ebp+52]
  001ad	8d 85 08 ff ff
	ff		 lea	 eax, DWORD PTR _gsi2$[ebp]
  001b3	50		 push	 eax
  001b4	e8 00 00 00 00	 call	 ?FindGraph@CVertScaleGroup@@QBEHPAVCGraphSearchInfo@@@Z ; CVertScaleGroup::FindGraph
  001b9	85 c0		 test	 eax, eax
  001bb	74 19		 je	 SHORT $LN11@GetCoordin

; 858  : 	{
; 859  : 		//       .. - onlyojt (20100129)
; 860  : //		p_pPacketY = pPacketList->GetBaseData( _MTEXT( C0_CLOSE));
; 861  : 		p_pPacketY = pPacketList->GetBaseData( _MTEXT( C0_CLOSE), false);

  001bd	a1 54 00 00 00	 mov	 eax, DWORD PTR ?g_iMetaTable@@3VIMetaTable@@A+84
  001c2	6a 00		 push	 0
  001c4	51		 push	 ecx
  001c5	8b cc		 mov	 ecx, esp
  001c7	ff 70 14	 push	 DWORD PTR [eax+20]
  001ca	ff 15 00 00 00
	00		 call	 DWORD PTR __imp_??0?$CStringT@DV?$StrTraitMFC_DLL@DV?$ChTraitsCRT@D@ATL@@@@@ATL@@QAE@PBD@Z
  001d0	8b cb		 mov	 ecx, ebx
  001d2	ff d7		 call	 edi
  001d4	89 06		 mov	 DWORD PTR [esi], eax
$LN11@GetCoordin:

; 862  : 	}
; 863  : 	// 2.2.2. Get Data type.
; 864  : 	//alzioyes091217:    p_pPacketY NULL.
; 865  : 	if(p_pPacketY) p_dDataType = p_pPacketY->GetScaleTypeFormatDouble();

  001d6	8b 0e		 mov	 ecx, DWORD PTR [esi]
  001d8	85 c9		 test	 ecx, ecx
  001da	74 0b		 je	 SHORT $LN12@GetCoordin
  001dc	ff 15 00 00 00
	00		 call	 DWORD PTR __imp_?GetScaleTypeFormatDouble@CPacket@@QAENXZ
  001e2	8b 45 1c	 mov	 eax, DWORD PTR _p_dDataType$[ebp]
  001e5	dd 18		 fstp	 QWORD PTR [eax]
$LN12@GetCoordin:

; 866  : 
; 867  : 	// 3. Get VScale Info.
; 868  : 	CDisplayDataMinMax ddMinMax = gsi.m_pVertScaleGroup->GetDisplayDataMinMax();

  001e7	8b 4d c8	 mov	 ecx, DWORD PTR _gsi$[ebp+52]
  001ea	8d 45 d4	 lea	 eax, DWORD PTR _ddMinMax$[ebp]
  001ed	50		 push	 eax
  001ee	e8 00 00 00 00	 call	 ?GetDisplayDataMinMax@CVertScaleGroup@@QBE?AVCDisplayDataMinMax@@XZ ; CVertScaleGroup::GetDisplayDataMinMax

; 869  : 	p_dMaxY = ddMinMax.GetDisplayMax();

  001f3	8d 4d d4	 lea	 ecx, DWORD PTR _ddMinMax$[ebp]
  001f6	ff 15 00 00 00
	00		 call	 DWORD PTR __imp_?GetDisplayMax@CDisplayDataMinMax@@QBENXZ
  001fc	8b 45 18	 mov	 eax, DWORD PTR _p_dMaxY$[ebp]

; 870  : 	p_dMinY = ddMinMax.GetDisplayMin();

  001ff	8d 4d d4	 lea	 ecx, DWORD PTR _ddMinMax$[ebp]
  00202	dd 18		 fstp	 QWORD PTR [eax]
  00204	ff 15 00 00 00
	00		 call	 DWORD PTR __imp_?GetDisplayMin@CDisplayDataMinMax@@QBENXZ
  0020a	8b 45 14	 mov	 eax, DWORD PTR _p_dMinY$[ebp]

; 871  : 	CVerticalScale &vScale = gsi.m_pVertScaleGroup->GetVertScale();

  0020d	8b 4d c8	 mov	 ecx, DWORD PTR _gsi$[ebp+52]
  00210	dd 18		 fstp	 QWORD PTR [eax]
  00212	e8 00 00 00 00	 call	 ?GetVertScale@CVertScaleGroup@@QAEAAVCVerticalScale@@XZ ; CVertScaleGroup::GetVertScale

; 872  : 	p_bLog = m_blockData.GetVertScaleLogType();

  00217	8b 4d e8	 mov	 ecx, DWORD PTR tv495[ebp]
  0021a	8b f0		 mov	 esi, eax
  0021c	e8 00 00 00 00	 call	 ?GetVertScaleLogType@CBlockData@@QAEAA_NXZ ; CBlockData::GetVertScaleLogType
  00221	8b 4d 20	 mov	 ecx, DWORD PTR _p_bLog$[ebp]
  00224	0f b6 10	 movzx	 edx, BYTE PTR [eax]

; 873  : 	p_bInvert = vScale.GetVertScaleInvertType();

  00227	8b 45 24	 mov	 eax, DWORD PTR _p_bInvert$[ebp]
  0022a	89 11		 mov	 DWORD PTR [ecx], edx
  0022c	0f b6 4e 34	 movzx	 ecx, BYTE PTR [esi+52]
  00230	89 08		 mov	 DWORD PTR [eax], ecx

; 874  : 
; 875  : 	return strRQ;

  00232	8d 45 f0	 lea	 eax, DWORD PTR _strRQ$[ebp]
  00235	8b 4d 08	 mov	 ecx, DWORD PTR ___$ReturnUdt$[ebp]
  00238	50		 push	 eax
  00239	ff 15 00 00 00
	00		 call	 DWORD PTR __imp_??0?$CStringT@DV?$StrTraitMFC_DLL@DV?$ChTraitsCRT@D@ATL@@@@@ATL@@QAE@ABV01@@Z
  0023f	8d 8d 4c ff ff
	ff		 lea	 ecx, DWORD PTR _gsi2$[ebp+68]
  00245	ff 15 00 00 00
	00		 call	 DWORD PTR __imp_??1?$CStringT@DV?$StrTraitMFC_DLL@DV?$ChTraitsCRT@D@ATL@@@@@ATL@@QAE@XZ
  0024b	8d 8d 48 ff ff
	ff		 lea	 ecx, DWORD PTR _gsi2$[ebp+64]
  00251	ff 15 00 00 00
	00		 call	 DWORD PTR __imp_??1?$CStringT@DV?$StrTraitMFC_DLL@DV?$ChTraitsCRT@D@ATL@@@@@ATL@@QAE@XZ
  00257	8d 4d ec	 lea	 ecx, DWORD PTR _strPacketName$[ebp]
  0025a	ff 15 00 00 00
	00		 call	 DWORD PTR __imp_??1?$CStringT@DV?$StrTraitMFC_DLL@DV?$ChTraitsCRT@D@ATL@@@@@ATL@@QAE@XZ
$LN60@GetCoordin:

; 876  : }

  00260	8d 4d 90	 lea	 ecx, DWORD PTR _gsi3$[ebp+64]
  00263	ff 15 00 00 00
	00		 call	 DWORD PTR __imp_??1?$CStringT@DV?$StrTraitMFC_DLL@DV?$ChTraitsCRT@D@ATL@@@@@ATL@@QAE@XZ
  00269	8d 4d f0	 lea	 ecx, DWORD PTR _strRQ$[ebp]
  0026c	ff 15 00 00 00
	00		 call	 DWORD PTR __imp_??1?$CStringT@DV?$StrTraitMFC_DLL@DV?$ChTraitsCRT@D@ATL@@@@@ATL@@QAE@XZ
  00272	eb 1e		 jmp	 SHORT $LN59@GetCoordin
$LN56@GetCoordin:

; 847  : 	if( !pPacketList) return "";

  00274	8b 4d 08	 mov	 ecx, DWORD PTR ___$ReturnUdt$[ebp]
  00277	68 00 00 00 00	 push	 OFFSET ??_C@_00CNPNBAHC@@
  0027c	ff 15 00 00 00
	00		 call	 DWORD PTR __imp_??0?$CStringT@DV?$StrTraitMFC_DLL@DV?$ChTraitsCRT@D@ATL@@@@@ATL@@QAE@PBD@Z
  00282	eb dc		 jmp	 SHORT $LN60@GetCoordin
$LN57@GetCoordin:

; 824  : 
; 825  : 	// 1. Get Select Graph in first visible VScale Group.
; 826  : 	if( !gsi.m_pVertScaleGroup) return "";

  00284	8b 4d 08	 mov	 ecx, DWORD PTR ___$ReturnUdt$[ebp]
  00287	68 00 00 00 00	 push	 OFFSET ??_C@_00CNPNBAHC@@
  0028c	ff 15 00 00 00
	00		 call	 DWORD PTR __imp_??0?$CStringT@DV?$StrTraitMFC_DLL@DV?$ChTraitsCRT@D@ATL@@@@@ATL@@QAE@PBD@Z
$LN59@GetCoordin:

; 876  : }

  00292	8b 45 08	 mov	 eax, DWORD PTR ___$ReturnUdt$[ebp]
  00295	8b 4d f4	 mov	 ecx, DWORD PTR __$EHRec$[ebp]
  00298	64 89 0d 00 00
	00 00		 mov	 DWORD PTR fs:0, ecx
  0029f	59		 pop	 ecx
  002a0	5f		 pop	 edi
  002a1	5e		 pop	 esi
  002a2	5b		 pop	 ebx
  002a3	8b e5		 mov	 esp, ebp
  002a5	5d		 pop	 ebp
  002a6	c2 20 00	 ret	 32			; 00000020H
_TEXT	ENDS
;	COMDAT text$x
text$x	SEGMENT
__unwindfunclet$?GetCoordinateInfos@CBlockImp@@MAE?AV?$CStringT@DV?$StrTraitMFC_DLL@DV?$ChTraitsCRT@D@ATL@@@@@ATL@@AAPAVCPacket@@0AAN11AAH2@Z$1:
  00000	8d 4d f0	 lea	 ecx, DWORD PTR _strRQ$[ebp]
  00003	ff 25 00 00 00
	00		 jmp	 DWORD PTR __imp_??1?$CStringT@DV?$StrTraitMFC_DLL@DV?$ChTraitsCRT@D@ATL@@@@@ATL@@QAE@XZ
__unwindfunclet$?GetCoordinateInfos@CBlockImp@@MAE?AV?$CStringT@DV?$StrTraitMFC_DLL@DV?$ChTraitsCRT@D@ATL@@@@@ATL@@AAPAVCPacket@@0AAN11AAH2@Z$2:
  00009	8d 8d 50 ff ff
	ff		 lea	 ecx, DWORD PTR _gsi3$[ebp]
  0000f	e9 00 00 00 00	 jmp	 ??1CGraphSearchInfo_AnyGraphWithRQ@@QAE@XZ
__unwindfunclet$?GetCoordinateInfos@CBlockImp@@MAE?AV?$CStringT@DV?$StrTraitMFC_DLL@DV?$ChTraitsCRT@D@ATL@@@@@ATL@@AAPAVCPacket@@0AAN11AAH2@Z$3:
  00014	8d 4d ec	 lea	 ecx, DWORD PTR _strPacketName$[ebp]
  00017	ff 25 00 00 00
	00		 jmp	 DWORD PTR __imp_??1?$CStringT@DV?$StrTraitMFC_DLL@DV?$ChTraitsCRT@D@ATL@@@@@ATL@@QAE@XZ
__unwindfunclet$?GetCoordinateInfos@CBlockImp@@MAE?AV?$CStringT@DV?$StrTraitMFC_DLL@DV?$ChTraitsCRT@D@ATL@@@@@ATL@@AAPAVCPacket@@0AAN11AAH2@Z$5:
  0001d	8d 8d 08 ff ff
	ff		 lea	 ecx, DWORD PTR _gsi2$[ebp]
  00023	e9 00 00 00 00	 jmp	 ??1CGraphSearchInfo_IndicatorNameWithRQ@@QAE@XZ
  00028	cc		 int	 3
  00029	cc		 int	 3
  0002a	cc		 int	 3
  0002b	cc		 int	 3
  0002c	cc		 int	 3
__ehhandler$?GetCoordinateInfos@CBlockImp@@MAE?AV?$CStringT@DV?$StrTraitMFC_DLL@DV?$ChTraitsCRT@D@ATL@@@@@ATL@@AAPAVCPacket@@0AAN11AAH2@Z:
  0002d	90		 npad	 1
  0002e	90		 npad	 1
  0002f	8b 54 24 08	 mov	 edx, DWORD PTR [esp+8]
  00033	8d 42 0c	 lea	 eax, DWORD PTR [edx+12]
  00036	8b 8a 04 ff ff
	ff		 mov	 ecx, DWORD PTR [edx-252]
  0003c	33 c8		 xor	 ecx, eax
  0003e	e8 00 00 00 00	 call	 @__security_check_cookie@4
  00043	b8 00 00 00 00	 mov	 eax, OFFSET __ehfuncinfo$?GetCoordinateInfos@CBlockImp@@MAE?AV?$CStringT@DV?$StrTraitMFC_DLL@DV?$ChTraitsCRT@D@ATL@@@@@ATL@@AAPAVCPacket@@0AAN11AAH2@Z
  00048	e9 00 00 00 00	 jmp	 ___CxxFrameHandler3
text$x	ENDS
?GetCoordinateInfos@CBlockImp@@MAE?AV?$CStringT@DV?$StrTraitMFC_DLL@DV?$ChTraitsCRT@D@ATL@@@@@ATL@@AAPAVCPacket@@0AAN11AAH2@Z ENDP ; CBlockImp::GetCoordinateInfos
; Function compile flags: /Ogtp
; File D:\git\src\IBK\IBK_DRFN\ProjSrc\SrcChartEx\ChartOCX\ChartObject\BlockImp.cpp
;	COMDAT ?GetMasterValueRQ@CBlockImp@@MAEPBDXZ
_TEXT	SEGMENT
?GetMasterValueRQ@CBlockImp@@MAEPBDXZ PROC		; CBlockImp::GetMasterValueRQ, COMDAT
; _this$ = ecx

; 811  : {

  00000	56		 push	 esi
  00001	8b f1		 mov	 esi, ecx

; 812  : 	CVertScaleGroup* pVertScaleGroup = GetVertScaleGroupList().GetVertScaleGroup( GetFirstVisibleVScaleIndex());

  00003	8b 06		 mov	 eax, DWORD PTR [esi]
  00005	ff 50 34	 call	 DWORD PTR [eax+52]
  00008	50		 push	 eax
  00009	8d 8e 90 00 00
	00		 lea	 ecx, DWORD PTR [esi+144]
  0000f	e8 00 00 00 00	 call	 ?GetVertScaleGroup@CVertScaleGroupList@@QBEPAVCVertScaleGroup@@H@Z ; CVertScaleGroupList::GetVertScaleGroup
  00014	5e		 pop	 esi

; 813  : 	if( !pVertScaleGroup) return _T("DEFAULT");

  00015	85 c0		 test	 eax, eax
  00017	74 14		 je	 SHORT $LN5@GetMasterV

; 814  : 	CGraphImp* pGraph = pVertScaleGroup->GetGraph( 0);

  00019	6a 00		 push	 0
  0001b	8b c8		 mov	 ecx, eax
  0001d	e8 00 00 00 00	 call	 ?GetGraph@CVertScaleGroup@@QBEPAVCGraphImp@@H@Z ; CVertScaleGroup::GetGraph

; 815  : 	if(!pGraph) return _T("DEFAULT");

  00022	85 c0		 test	 eax, eax
  00024	74 07		 je	 SHORT $LN5@GetMasterV

; 816  : 	return pGraph->GetGraphRQ();

  00026	8b 10		 mov	 edx, DWORD PTR [eax]
  00028	8b c8		 mov	 ecx, eax
  0002a	ff 62 1c	 jmp	 DWORD PTR [edx+28]
$LN5@GetMasterV:

; 815  : 	if(!pGraph) return _T("DEFAULT");

  0002d	b8 00 00 00 00	 mov	 eax, OFFSET ??_C@_07MGCPDNLD@DEFAULT@

; 817  : }

  00032	c3		 ret	 0
?GetMasterValueRQ@CBlockImp@@MAEPBDXZ ENDP		; CBlockImp::GetMasterValueRQ
_TEXT	ENDS
; Function compile flags: /Ogtp
; File D:\git\src\IBK\IBK_DRFN\ProjSrc\SrcChartEx\ChartOCX\ChartObject\BlockImp.cpp
; File C:\Program Files (x86)\Microsoft Visual Studio\2019\Community\VC\Tools\MSVC\14.29.30133\atlmfc\include\atlsimpstr.h
; File D:\git\src\IBK\IBK_DRFN\ProjSrc\SrcChartEx\ChartOCX\ChartObject\BlockImp.cpp
; File C:\Program Files (x86)\Microsoft Visual Studio\2019\Community\VC\Tools\MSVC\14.29.30133\atlmfc\include\atlsimpstr.h
; File D:\git\src\IBK\IBK_DRFN\ProjSrc\SrcChartEx\ChartOCX\ChartObject\BlockImp.cpp
; File C:\Program Files (x86)\Microsoft Visual Studio\2019\Community\VC\Tools\MSVC\14.29.30133\atlmfc\include\atlsimpstr.h
; File D:\git\src\IBK\IBK_DRFN\ProjSrc\SrcChartEx\ChartOCX\ChartObject\BlockImp.cpp
; File C:\Program Files (x86)\Microsoft Visual Studio\2019\Community\VC\Tools\MSVC\14.29.30133\atlmfc\include\atlsimpstr.h
; File D:\git\src\IBK\IBK_DRFN\ProjSrc\SrcChartEx\ChartOCX\ChartObject\BlockImp.cpp
;	COMDAT ?GetHorzScaleDataPacket@CBlockImp@@UAEPAVCPacket@@XZ
_TEXT	SEGMENT
_strPacketName$ = -20					; size = 4
_strRQ$ = -16						; size = 4
__$EHRec$ = -12						; size = 12
?GetHorzScaleDataPacket@CBlockImp@@UAEPAVCPacket@@XZ PROC ; CBlockImp::GetHorzScaleDataPacket, COMDAT
; _this$ = ecx

; 787  : {

  00000	55		 push	 ebp
  00001	8b ec		 mov	 ebp, esp
  00003	6a ff		 push	 -1
  00005	68 00 00 00 00	 push	 __ehhandler$?GetHorzScaleDataPacket@CBlockImp@@UAEPAVCPacket@@XZ
  0000a	64 a1 00 00 00
	00		 mov	 eax, DWORD PTR fs:0
  00010	50		 push	 eax
  00011	83 ec 0c	 sub	 esp, 12			; 0000000cH
  00014	56		 push	 esi
  00015	a1 00 00 00 00	 mov	 eax, DWORD PTR ___security_cookie
  0001a	33 c5		 xor	 eax, ebp
  0001c	50		 push	 eax
  0001d	8d 45 f4	 lea	 eax, DWORD PTR __$EHRec$[ebp]
  00020	64 a3 00 00 00
	00		 mov	 DWORD PTR fs:0, eax
  00026	8b f1		 mov	 esi, ecx

; 788  : 	CString strPacketName = m_blockData.GetHorzScale().GetScaleData();

  00028	8d 45 ec	 lea	 eax, DWORD PTR _strPacketName$[ebp]
  0002b	50		 push	 eax
  0002c	8d 4e 10	 lea	 ecx, DWORD PTR [esi+16]
  0002f	e8 00 00 00 00	 call	 ?GetHorzScale@CBlockData@@QAEAAVCHorizontalScale@@XZ ; CBlockData::GetHorzScale
  00034	8b c8		 mov	 ecx, eax
  00036	ff 15 00 00 00
	00		 call	 DWORD PTR __imp_?GetScaleData@CScale@@QBE?AV?$CStringT@DV?$StrTraitMFC_DLL@DV?$ChTraitsCRT@D@ATL@@@@@ATL@@XZ
; File C:\Program Files (x86)\Microsoft Visual Studio\2019\Community\VC\Tools\MSVC\14.29.30133\atlmfc\include\atlsimpstr.h

; 519  : 		return( GetData()->nDataLength );

  0003c	8b 45 ec	 mov	 eax, DWORD PTR _strPacketName$[ebp]
; File D:\git\src\IBK\IBK_DRFN\ProjSrc\SrcChartEx\ChartOCX\ChartObject\BlockImp.cpp

; 788  : 	CString strPacketName = m_blockData.GetHorzScale().GetScaleData();

  0003f	c7 45 fc 00 00
	00 00		 mov	 DWORD PTR __$EHRec$[ebp+8], 0
; File C:\Program Files (x86)\Microsoft Visual Studio\2019\Community\VC\Tools\MSVC\14.29.30133\atlmfc\include\atlsimpstr.h

; 533  : 		return( GetLength() == 0 );

  00046	83 78 f4 00	 cmp	 DWORD PTR [eax-12], 0
; File D:\git\src\IBK\IBK_DRFN\ProjSrc\SrcChartEx\ChartOCX\ChartObject\BlockImp.cpp

; 789  : 	if( strPacketName.IsEmpty()) return NULL;

  0004a	75 04		 jne	 SHORT $LN2@GetHorzSca
  0004c	33 f6		 xor	 esi, esi
  0004e	eb 5c		 jmp	 SHORT $LN10@GetHorzSca
$LN2@GetHorzSca:

; 782  : 	return m_pBlocksColumn->GetHorzScaleDataRQ( this);

  00050	8b 4e 08	 mov	 ecx, DWORD PTR [esi+8]
  00053	8d 45 f0	 lea	 eax, DWORD PTR _strRQ$[ebp]
  00056	56		 push	 esi
  00057	50		 push	 eax
  00058	e8 00 00 00 00	 call	 ?GetHorzScaleDataRQ@CBlocksColumn@@QAE?AV?$CStringT@DV?$StrTraitMFC_DLL@DV?$ChTraitsCRT@D@ATL@@@@@ATL@@PAVCBlockImp@@@Z ; CBlocksColumn::GetHorzScaleDataRQ
; File C:\Program Files (x86)\Microsoft Visual Studio\2019\Community\VC\Tools\MSVC\14.29.30133\atlmfc\include\atlsimpstr.h

; 519  : 		return( GetData()->nDataLength );

  0005d	8b 45 f0	 mov	 eax, DWORD PTR _strRQ$[ebp]
; File D:\git\src\IBK\IBK_DRFN\ProjSrc\SrcChartEx\ChartOCX\ChartObject\BlockImp.cpp

; 791  : 	CString strRQ = GetHorzScaleDataRQ();

  00060	c6 45 fc 01	 mov	 BYTE PTR __$EHRec$[ebp+8], 1
; File C:\Program Files (x86)\Microsoft Visual Studio\2019\Community\VC\Tools\MSVC\14.29.30133\atlmfc\include\atlsimpstr.h

; 533  : 		return( GetLength() == 0 );

  00064	83 78 f4 00	 cmp	 DWORD PTR [eax-12], 0
; File D:\git\src\IBK\IBK_DRFN\ProjSrc\SrcChartEx\ChartOCX\ChartObject\BlockImp.cpp

; 792  : 	if( strRQ.IsEmpty()) return NULL;

  00068	74 37		 je	 SHORT $LN12@GetHorzSca

; 793  : 
; 794  : 	CPacketListManager *pPacketListManager = m_pMainBlockBaseData->GetPacketListManager();

  0006a	8b 4e 04	 mov	 ecx, DWORD PTR [esi+4]
  0006d	e8 00 00 00 00	 call	 ?GetPacketListManager@CMainBlockBaseData@@QBEPAVCPacketListManager@@XZ ; CMainBlockBaseData::GetPacketListManager
  00072	8b c8		 mov	 ecx, eax

; 795  : 	if( !pPacketListManager) return NULL;

  00074	85 c9		 test	 ecx, ecx
  00076	74 29		 je	 SHORT $LN12@GetHorzSca

; 796  : 
; 797  : 	CPacketList *pPacketList = pPacketListManager->GetPacketList( strRQ);

  00078	8b 01		 mov	 eax, DWORD PTR [ecx]
  0007a	ff 75 f0	 push	 DWORD PTR _strRQ$[ebp]
  0007d	ff 50 1c	 call	 DWORD PTR [eax+28]
  00080	8b f0		 mov	 esi, eax

; 798  : 	if( !pPacketList) return NULL;

  00082	85 f6		 test	 esi, esi
  00084	74 1b		 je	 SHORT $LN12@GetHorzSca

; 799  : 	
; 800  : 	return pPacketList->GetBaseData( strPacketName);

  00086	6a 01		 push	 1
  00088	51		 push	 ecx
  00089	8d 45 ec	 lea	 eax, DWORD PTR _strPacketName$[ebp]
  0008c	8b cc		 mov	 ecx, esp
  0008e	50		 push	 eax
  0008f	ff 15 00 00 00
	00		 call	 DWORD PTR __imp_??0?$CStringT@DV?$StrTraitMFC_DLL@DV?$ChTraitsCRT@D@ATL@@@@@ATL@@QAE@ABV01@@Z
  00095	8b ce		 mov	 ecx, esi
  00097	ff 15 00 00 00
	00		 call	 DWORD PTR __imp_?GetBaseData@CPacketList@@QAEPAVCPacket@@V?$CStringT@DV?$StrTraitMFC_DLL@DV?$ChTraitsCRT@D@ATL@@@@@ATL@@_N@Z
  0009d	8b f0		 mov	 esi, eax
  0009f	eb 02		 jmp	 SHORT $LN13@GetHorzSca
$LN12@GetHorzSca:
  000a1	33 f6		 xor	 esi, esi
$LN13@GetHorzSca:
  000a3	8d 4d f0	 lea	 ecx, DWORD PTR _strRQ$[ebp]
  000a6	ff 15 00 00 00
	00		 call	 DWORD PTR __imp_??1?$CStringT@DV?$StrTraitMFC_DLL@DV?$ChTraitsCRT@D@ATL@@@@@ATL@@QAE@XZ
$LN10@GetHorzSca:
  000ac	8d 4d ec	 lea	 ecx, DWORD PTR _strPacketName$[ebp]
  000af	ff 15 00 00 00
	00		 call	 DWORD PTR __imp_??1?$CStringT@DV?$StrTraitMFC_DLL@DV?$ChTraitsCRT@D@ATL@@@@@ATL@@QAE@XZ
  000b5	8b c6		 mov	 eax, esi

; 801  : }

  000b7	8b 4d f4	 mov	 ecx, DWORD PTR __$EHRec$[ebp]
  000ba	64 89 0d 00 00
	00 00		 mov	 DWORD PTR fs:0, ecx
  000c1	59		 pop	 ecx
  000c2	5e		 pop	 esi
  000c3	8b e5		 mov	 esp, ebp
  000c5	5d		 pop	 ebp
  000c6	c3		 ret	 0
_TEXT	ENDS
;	COMDAT text$x
text$x	SEGMENT
__unwindfunclet$?GetHorzScaleDataPacket@CBlockImp@@UAEPAVCPacket@@XZ$0:
  00000	8d 4d ec	 lea	 ecx, DWORD PTR _strPacketName$[ebp]
  00003	ff 25 00 00 00
	00		 jmp	 DWORD PTR __imp_??1?$CStringT@DV?$StrTraitMFC_DLL@DV?$ChTraitsCRT@D@ATL@@@@@ATL@@QAE@XZ
__unwindfunclet$?GetHorzScaleDataPacket@CBlockImp@@UAEPAVCPacket@@XZ$1:
  00009	8d 4d f0	 lea	 ecx, DWORD PTR _strRQ$[ebp]
  0000c	ff 25 00 00 00
	00		 jmp	 DWORD PTR __imp_??1?$CStringT@DV?$StrTraitMFC_DLL@DV?$ChTraitsCRT@D@ATL@@@@@ATL@@QAE@XZ
  00012	cc		 int	 3
  00013	cc		 int	 3
  00014	cc		 int	 3
  00015	cc		 int	 3
  00016	cc		 int	 3
__ehhandler$?GetHorzScaleDataPacket@CBlockImp@@UAEPAVCPacket@@XZ:
  00017	90		 npad	 1
  00018	90		 npad	 1
  00019	8b 54 24 08	 mov	 edx, DWORD PTR [esp+8]
  0001d	8d 42 0c	 lea	 eax, DWORD PTR [edx+12]
  00020	8b 4a ec	 mov	 ecx, DWORD PTR [edx-20]
  00023	33 c8		 xor	 ecx, eax
  00025	e8 00 00 00 00	 call	 @__security_check_cookie@4
  0002a	b8 00 00 00 00	 mov	 eax, OFFSET __ehfuncinfo$?GetHorzScaleDataPacket@CBlockImp@@UAEPAVCPacket@@XZ
  0002f	e9 00 00 00 00	 jmp	 ___CxxFrameHandler3
text$x	ENDS
?GetHorzScaleDataPacket@CBlockImp@@UAEPAVCPacket@@XZ ENDP ; CBlockImp::GetHorzScaleDataPacket
; Function compile flags: /Ogtp
; File D:\git\src\IBK\IBK_DRFN\ProjSrc\SrcChartEx\ChartOCX\ChartObject\BlockImp.cpp
;	COMDAT ?GetHorzScaleDataRQ@CBlockImp@@QAE?AV?$CStringT@DV?$StrTraitMFC_DLL@DV?$ChTraitsCRT@D@ATL@@@@@ATL@@XZ
_TEXT	SEGMENT
___$ReturnUdt$ = 8					; size = 4
?GetHorzScaleDataRQ@CBlockImp@@QAE?AV?$CStringT@DV?$StrTraitMFC_DLL@DV?$ChTraitsCRT@D@ATL@@@@@ATL@@XZ PROC ; CBlockImp::GetHorzScaleDataRQ, COMDAT
; _this$ = ecx

; 781  : {

  00000	55		 push	 ebp
  00001	8b ec		 mov	 ebp, esp

; 782  : 	return m_pBlocksColumn->GetHorzScaleDataRQ( this);

  00003	51		 push	 ecx
  00004	ff 75 08	 push	 DWORD PTR ___$ReturnUdt$[ebp]
  00007	8b 49 08	 mov	 ecx, DWORD PTR [ecx+8]
  0000a	e8 00 00 00 00	 call	 ?GetHorzScaleDataRQ@CBlocksColumn@@QAE?AV?$CStringT@DV?$StrTraitMFC_DLL@DV?$ChTraitsCRT@D@ATL@@@@@ATL@@PAVCBlockImp@@@Z ; CBlocksColumn::GetHorzScaleDataRQ
  0000f	8b 45 08	 mov	 eax, DWORD PTR ___$ReturnUdt$[ebp]

; 783  : }

  00012	5d		 pop	 ebp
  00013	c2 04 00	 ret	 4
?GetHorzScaleDataRQ@CBlockImp@@QAE?AV?$CStringT@DV?$StrTraitMFC_DLL@DV?$ChTraitsCRT@D@ATL@@@@@ATL@@XZ ENDP ; CBlockImp::GetHorzScaleDataRQ
_TEXT	ENDS
; Function compile flags: /Ogtp
; File D:\git\src\IBK\IBK_DRFN\ProjSrc\SrcChartEx\ChartOCX\ChartObject\BlockImp.cpp
;	COMDAT ?GetHeadPacketAndDataType@CBlockImp@@UAEHHAAPAVCPacket@@AAN@Z
_TEXT	SEGMENT
_p_nVertScaleGroupIndex$ = 8				; size = 4
_p_pPacket$ = 12					; size = 4
_p_dDataType$ = 16					; size = 4
?GetHeadPacketAndDataType@CBlockImp@@UAEHHAAPAVCPacket@@AAN@Z PROC ; CBlockImp::GetHeadPacketAndDataType, COMDAT
; _this$ = ecx

; 769  : {

  00000	55		 push	 ebp
  00001	8b ec		 mov	 ebp, esp

; 770  : 	p_pPacket	= NULL;
; 771  : 	p_dDataType = 1.0l;

  00003	f2 0f 10 05 00
	00 00 00	 movsd	 xmm0, QWORD PTR __real@3ff0000000000000

; 772  : 
; 773  : 	CGraphImp *pGraph = m_vertScaleGroupList.GetGraph( 0, 0);

  0000b	81 c1 90 00 00
	00		 add	 ecx, 144		; 00000090H
  00011	56		 push	 esi
  00012	8b 75 0c	 mov	 esi, DWORD PTR _p_pPacket$[ebp]
  00015	57		 push	 edi
  00016	8b 7d 10	 mov	 edi, DWORD PTR _p_dDataType$[ebp]
  00019	6a 00		 push	 0
  0001b	6a 00		 push	 0
  0001d	c7 06 00 00 00
	00		 mov	 DWORD PTR [esi], 0
  00023	f2 0f 11 07	 movsd	 QWORD PTR [edi], xmm0
  00027	e8 00 00 00 00	 call	 ?GetGraph@CVertScaleGroupList@@QBEPAVCGraphImp@@HH@Z ; CVertScaleGroupList::GetGraph

; 774  : 	if( !pGraph) return FALSE;

  0002c	85 c0		 test	 eax, eax
  0002e	75 06		 jne	 SHORT $LN2@GetHeadPac

; 777  : }

  00030	5f		 pop	 edi
  00031	5e		 pop	 esi
  00032	5d		 pop	 ebp
  00033	c2 0c 00	 ret	 12			; 0000000cH
$LN2@GetHeadPac:

; 775  : 
; 776  : 	return pGraph->GetSubGraphList().GetHeadPacketAndDataType(p_pPacket, p_dDataType);

  00036	57		 push	 edi
  00037	56		 push	 esi
  00038	8b c8		 mov	 ecx, eax
  0003a	e8 00 00 00 00	 call	 ?GetSubGraphList@CGraphImp@@QAEAAVCSubGraphList@@XZ ; CGraphImp::GetSubGraphList
  0003f	8b c8		 mov	 ecx, eax
  00041	e8 00 00 00 00	 call	 ?GetHeadPacketAndDataType@CSubGraphList@@QBE_NAAPAVCPacket@@AAN@Z ; CSubGraphList::GetHeadPacketAndDataType
  00046	5f		 pop	 edi
  00047	0f b6 c0	 movzx	 eax, al

; 777  : }

  0004a	5e		 pop	 esi
  0004b	5d		 pop	 ebp
  0004c	c2 0c 00	 ret	 12			; 0000000cH
?GetHeadPacketAndDataType@CBlockImp@@UAEHHAAPAVCPacket@@AAN@Z ENDP ; CBlockImp::GetHeadPacketAndDataType
_TEXT	ENDS
; Function compile flags: /Ogtp
; File D:\git\src\IBK\IBK_DRFN\ProjSrc\SrcChartEx\ChartOCX\ChartObject\BlockImp.cpp
;	COMDAT ?FindNextIndicator@CBlockImp@@UAEHPBDAAH1AAV?$CStringT@DV?$StrTraitMFC_DLL@DV?$ChTraitsCRT@D@ATL@@@@@ATL@@0@Z
_TEXT	SEGMENT
_gsi$ = -288						; size = 64
_gsiRQ$ = -224						; size = 68
_gsiIndicatorName$ = -156				; size = 68
_gsiIndicatorNameWithRQ$ = -88				; size = 72
_this$1$ = -16						; size = 4
__$EHRec$ = -12						; size = 12
_p_szIndicatorName$ = 8					; size = 4
_p_nV$ = 12						; size = 4
_p_nG$ = 16						; size = 4
_p_strGraphName$ = 20					; size = 4
$T2 = 24						; size = 4
_p_szRQ$ = 24						; size = 4
?FindNextIndicator@CBlockImp@@UAEHPBDAAH1AAV?$CStringT@DV?$StrTraitMFC_DLL@DV?$ChTraitsCRT@D@ATL@@@@@ATL@@0@Z PROC ; CBlockImp::FindNextIndicator, COMDAT
; _this$ = ecx

; 732  : {

  00000	55		 push	 ebp
  00001	8b ec		 mov	 ebp, esp
  00003	6a ff		 push	 -1
  00005	68 00 00 00 00	 push	 __ehhandler$?FindNextIndicator@CBlockImp@@UAEHPBDAAH1AAV?$CStringT@DV?$StrTraitMFC_DLL@DV?$ChTraitsCRT@D@ATL@@@@@ATL@@0@Z
  0000a	64 a1 00 00 00
	00		 mov	 eax, DWORD PTR fs:0
  00010	50		 push	 eax
  00011	81 ec 14 01 00
	00		 sub	 esp, 276		; 00000114H
  00017	53		 push	 ebx
  00018	56		 push	 esi
  00019	57		 push	 edi
  0001a	a1 00 00 00 00	 mov	 eax, DWORD PTR ___security_cookie
  0001f	33 c5		 xor	 eax, ebp
  00021	50		 push	 eax
  00022	8d 45 f4	 lea	 eax, DWORD PTR __$EHRec$[ebp]
  00025	64 a3 00 00 00
	00		 mov	 DWORD PTR fs:0, eax
  0002b	89 4d f0	 mov	 DWORD PTR _this$1$[ebp], ecx

; 733  : 	p_strGraphName.Empty();

  0002e	8b 4d 14	 mov	 ecx, DWORD PTR _p_strGraphName$[ebp]
  00031	ff 15 00 00 00
	00		 call	 DWORD PTR __imp_?Empty@?$CSimpleStringT@D$00@ATL@@QAEXXZ
  00037	8d 8d e0 fe ff
	ff		 lea	 ecx, DWORD PTR _gsi$[ebp]
  0003d	e8 00 00 00 00	 call	 ??0CGraphSearchInfo@@QAE@XZ ; CGraphSearchInfo::CGraphSearchInfo
  00042	8d 8d 20 ff ff
	ff		 lea	 ecx, DWORD PTR _gsiRQ$[ebp]
  00048	c7 85 e0 fe ff
	ff 00 00 00 00	 mov	 DWORD PTR _gsi$[ebp], OFFSET ??_7CGraphSearchInfo_AnyGraph@@6B@
  00052	e8 00 00 00 00	 call	 ??0CGraphSearchInfo@@QAE@XZ ; CGraphSearchInfo::CGraphSearchInfo
  00057	8d 8d 60 ff ff
	ff		 lea	 ecx, DWORD PTR _gsiRQ$[ebp+64]
  0005d	c7 85 20 ff ff
	ff 00 00 00 00	 mov	 DWORD PTR _gsiRQ$[ebp], OFFSET ??_7CGraphSearchInfo_AnyGraphWithRQ@@6B@
  00067	ff 15 00 00 00
	00		 call	 DWORD PTR __imp_??0?$CStringT@DV?$StrTraitMFC_DLL@DV?$ChTraitsCRT@D@ATL@@@@@ATL@@QAE@XZ

; 734  : 
; 735  : 	CGraphSearchInfo_AnyGraph					gsi;
; 736  : 
; 737  : 	CGraphSearchInfo_AnyGraphWithRQ				gsiRQ;
; 738  : 	gsiRQ.m_strRQ								= p_szRQ;

  0006d	8b 7d 18	 mov	 edi, DWORD PTR _p_szRQ$[ebp]
  00070	8d 8d 60 ff ff
	ff		 lea	 ecx, DWORD PTR _gsiRQ$[ebp+64]
  00076	57		 push	 edi
  00077	c7 45 fc 00 00
	00 00		 mov	 DWORD PTR __$EHRec$[ebp+8], 0
  0007e	ff 15 00 00 00
	00		 call	 DWORD PTR __imp_??4?$CStringT@DV?$StrTraitMFC_DLL@DV?$ChTraitsCRT@D@ATL@@@@@ATL@@QAEAAV01@PBD@Z
  00084	8d 8d 64 ff ff
	ff		 lea	 ecx, DWORD PTR _gsiIndicatorName$[ebp]
  0008a	e8 00 00 00 00	 call	 ??0CGraphSearchInfo@@QAE@XZ ; CGraphSearchInfo::CGraphSearchInfo
  0008f	8d 4d a4	 lea	 ecx, DWORD PTR _gsiIndicatorName$[ebp+64]
  00092	c7 85 64 ff ff
	ff 00 00 00 00	 mov	 DWORD PTR _gsiIndicatorName$[ebp], OFFSET ??_7CGraphSearchInfo_IndicatorName@@6B@
  0009c	ff 15 00 00 00
	00		 call	 DWORD PTR __imp_??0?$CStringT@DV?$StrTraitMFC_DLL@DV?$ChTraitsCRT@D@ATL@@@@@ATL@@QAE@XZ

; 739  : 
; 740  : 	CGraphSearchInfo_IndicatorName				gsiIndicatorName;
; 741  : 	gsiIndicatorName.m_strIndicatorName			= p_szIndicatorName;

  000a2	8b 5d 08	 mov	 ebx, DWORD PTR _p_szIndicatorName$[ebp]
  000a5	8d 4d a4	 lea	 ecx, DWORD PTR _gsiIndicatorName$[ebp+64]
  000a8	53		 push	 ebx
  000a9	c6 45 fc 01	 mov	 BYTE PTR __$EHRec$[ebp+8], 1
  000ad	ff 15 00 00 00
	00		 call	 DWORD PTR __imp_??4?$CStringT@DV?$StrTraitMFC_DLL@DV?$ChTraitsCRT@D@ATL@@@@@ATL@@QAEAAV01@PBD@Z
  000b3	8d 4d a8	 lea	 ecx, DWORD PTR _gsiIndicatorNameWithRQ$[ebp]
  000b6	e8 00 00 00 00	 call	 ??0CGraphSearchInfo@@QAE@XZ ; CGraphSearchInfo::CGraphSearchInfo
  000bb	8d 4d e8	 lea	 ecx, DWORD PTR _gsiIndicatorNameWithRQ$[ebp+64]
  000be	c7 45 a8 00 00
	00 00		 mov	 DWORD PTR _gsiIndicatorNameWithRQ$[ebp], OFFSET ??_7CGraphSearchInfo_IndicatorName@@6B@
  000c5	ff 15 00 00 00
	00		 call	 DWORD PTR __imp_??0?$CStringT@DV?$StrTraitMFC_DLL@DV?$ChTraitsCRT@D@ATL@@@@@ATL@@QAE@XZ
  000cb	8d 4d ec	 lea	 ecx, DWORD PTR _gsiIndicatorNameWithRQ$[ebp+68]
  000ce	c7 45 a8 00 00
	00 00		 mov	 DWORD PTR _gsiIndicatorNameWithRQ$[ebp], OFFSET ??_7CGraphSearchInfo_IndicatorNameWithRQ@@6B@
  000d5	ff 15 00 00 00
	00		 call	 DWORD PTR __imp_??0?$CStringT@DV?$StrTraitMFC_DLL@DV?$ChTraitsCRT@D@ATL@@@@@ATL@@QAE@XZ

; 742  : 
; 743  : 	CGraphSearchInfo_IndicatorNameWithRQ		gsiIndicatorNameWithRQ;
; 744  : 	gsiIndicatorNameWithRQ.m_strRQ				= p_szRQ;

  000db	57		 push	 edi
  000dc	8d 4d ec	 lea	 ecx, DWORD PTR _gsiIndicatorNameWithRQ$[ebp+68]
  000df	c6 45 fc 02	 mov	 BYTE PTR __$EHRec$[ebp+8], 2
  000e3	ff 15 00 00 00
	00		 call	 DWORD PTR __imp_??4?$CStringT@DV?$StrTraitMFC_DLL@DV?$ChTraitsCRT@D@ATL@@@@@ATL@@QAEAAV01@PBD@Z

; 745  : 	gsiIndicatorNameWithRQ.m_strIndicatorName	= p_szIndicatorName;

  000e9	53		 push	 ebx
  000ea	8d 4d e8	 lea	 ecx, DWORD PTR _gsiIndicatorNameWithRQ$[ebp+64]
  000ed	ff 15 00 00 00
	00		 call	 DWORD PTR __imp_??4?$CStringT@DV?$StrTraitMFC_DLL@DV?$ChTraitsCRT@D@ATL@@@@@ATL@@QAEAAV01@PBD@Z

; 746  : 	
; 747  : 	CGraphSearchInfo *pGSI = &gsi;

  000f3	8d b5 e0 fe ff
	ff		 lea	 esi, DWORD PTR _gsi$[ebp]

; 748  : 	if( p_szIndicatorName && p_szRQ)		if( *p_szIndicatorName && *p_szRQ)

  000f9	85 db		 test	 ebx, ebx
  000fb	74 20		 je	 SHORT $LN69@FindNextIn
  000fd	85 ff		 test	 edi, edi
  000ff	74 0f		 je	 SHORT $LN70@FindNextIn
  00101	80 3b 00	 cmp	 BYTE PTR [ebx], 0
  00104	74 1b		 je	 SHORT $LN71@FindNextIn
  00106	80 3f 00	 cmp	 BYTE PTR [edi], 0
  00109	74 0a		 je	 SHORT $LN72@FindNextIn

; 749  : 												pGSI = &gsiIndicatorNameWithRQ;

  0010b	8d 75 a8	 lea	 esi, DWORD PTR _gsiIndicatorNameWithRQ$[ebp]

; 750  : 	if( pGSI == &gsi && p_szIndicatorName)	if( *p_szIndicatorName)

  0010e	eb 1f		 jmp	 SHORT $LN7@FindNextIn
$LN70@FindNextIn:
  00110	80 3b 00	 cmp	 BYTE PTR [ebx], 0
  00113	74 1a		 je	 SHORT $LN7@FindNextIn
$LN72@FindNextIn:

; 751  : 												pGSI = &gsiIndicatorName;

  00115	8d b5 64 ff ff
	ff		 lea	 esi, DWORD PTR _gsiIndicatorName$[ebp]

; 752  : 	if( pGSI == &gsi && p_szRQ)				if( *p_szRQ)

  0011b	eb 12		 jmp	 SHORT $LN7@FindNextIn
$LN69@FindNextIn:
  0011d	85 ff		 test	 edi, edi
  0011f	74 0e		 je	 SHORT $LN7@FindNextIn
$LN71@FindNextIn:
  00121	80 3f 00	 cmp	 BYTE PTR [edi], 0
  00124	8d 85 20 ff ff
	ff		 lea	 eax, DWORD PTR _gsiRQ$[ebp]
  0012a	0f 44 c6	 cmove	 eax, esi
  0012d	8b f0		 mov	 esi, eax
$LN7@FindNextIn:

; 753  : 												pGSI = &gsiRQ;
; 754  : 
; 755  : 	pGSI->m_nVertScaleGroupIndex	= p_nV;

  0012f	8b 7d 0c	 mov	 edi, DWORD PTR _p_nV$[ebp]

; 756  : 	pGSI->m_nGraphIndex				= p_nG;
; 757  : 	pGSI->SetNextStartGraph();

  00132	8b ce		 mov	 ecx, esi
  00134	8b 5d 10	 mov	 ebx, DWORD PTR _p_nG$[ebp]
  00137	8b 07		 mov	 eax, DWORD PTR [edi]
  00139	89 46 20	 mov	 DWORD PTR [esi+32], eax
  0013c	8b 03		 mov	 eax, DWORD PTR [ebx]
  0013e	89 46 24	 mov	 DWORD PTR [esi+36], eax
  00141	e8 00 00 00 00	 call	 ?SetNextStartGraph@CGraphSearchInfo@@QAEXXZ ; CGraphSearchInfo::SetNextStartGraph

; 758  : 
; 759  : 	if( !m_vertScaleGroupList.FindGraph( pGSI)) return FALSE;

  00146	8b 4d f0	 mov	 ecx, DWORD PTR _this$1$[ebp]
  00149	56		 push	 esi
  0014a	81 c1 90 00 00
	00		 add	 ecx, 144		; 00000090H
  00150	e8 00 00 00 00	 call	 ?FindGraph@CVertScaleGroupList@@QBEHPAVCGraphSearchInfo@@@Z ; CVertScaleGroupList::FindGraph
  00155	85 c0		 test	 eax, eax
  00157	74 40		 je	 SHORT $LN15@FindNextIn

; 760  : 	if( !pGSI->m_pGraphImp) return FALSE;

  00159	8b 4e 38	 mov	 ecx, DWORD PTR [esi+56]
  0015c	85 c9		 test	 ecx, ecx
  0015e	74 39		 je	 SHORT $LN15@FindNextIn

; 761  : 
; 762  : 	p_nV			= pGSI->m_nVertScaleGroupIndex;

  00160	8b 46 20	 mov	 eax, DWORD PTR [esi+32]
  00163	89 07		 mov	 DWORD PTR [edi], eax

; 763  : 	p_nG			= pGSI->m_nGraphIndex;

  00165	8b 46 24	 mov	 eax, DWORD PTR [esi+36]
  00168	89 03		 mov	 DWORD PTR [ebx], eax

; 764  : 	p_strGraphName	= pGSI->m_pGraphImp->GetGraphData().GetGraphName();

  0016a	8d 45 18	 lea	 eax, DWORD PTR $T2[ebp]
  0016d	50		 push	 eax
  0016e	e8 00 00 00 00	 call	 ?GetGraphData@CGraphImp@@QAEAAVCGraphData@@XZ ; CGraphImp::GetGraphData
  00173	8b c8		 mov	 ecx, eax
  00175	ff 15 00 00 00
	00		 call	 DWORD PTR __imp_?GetGraphName@CGraphData@@QBE?AV?$CStringT@DV?$StrTraitMFC_DLL@DV?$ChTraitsCRT@D@ATL@@@@@ATL@@XZ
  0017b	8b 4d 14	 mov	 ecx, DWORD PTR _p_strGraphName$[ebp]
  0017e	50		 push	 eax
  0017f	c6 45 fc 03	 mov	 BYTE PTR __$EHRec$[ebp+8], 3
  00183	ff 15 00 00 00
	00		 call	 DWORD PTR __imp_??4?$CStringT@DV?$StrTraitMFC_DLL@DV?$ChTraitsCRT@D@ATL@@@@@ATL@@QAEAAV01@ABV01@@Z
  00189	8d 4d 18	 lea	 ecx, DWORD PTR $T2[ebp]
  0018c	ff 15 00 00 00
	00		 call	 DWORD PTR __imp_??1?$CStringT@DV?$StrTraitMFC_DLL@DV?$ChTraitsCRT@D@ATL@@@@@ATL@@QAE@XZ

; 765  : 	return TRUE;

  00192	be 01 00 00 00	 mov	 esi, 1
  00197	eb 02		 jmp	 SHORT $LN16@FindNextIn
$LN15@FindNextIn:
  00199	33 f6		 xor	 esi, esi
$LN16@FindNextIn:
  0019b	8d 4d ec	 lea	 ecx, DWORD PTR _gsiIndicatorNameWithRQ$[ebp+68]
  0019e	ff 15 00 00 00
	00		 call	 DWORD PTR __imp_??1?$CStringT@DV?$StrTraitMFC_DLL@DV?$ChTraitsCRT@D@ATL@@@@@ATL@@QAE@XZ
  001a4	8d 4d e8	 lea	 ecx, DWORD PTR _gsiIndicatorNameWithRQ$[ebp+64]
  001a7	ff 15 00 00 00
	00		 call	 DWORD PTR __imp_??1?$CStringT@DV?$StrTraitMFC_DLL@DV?$ChTraitsCRT@D@ATL@@@@@ATL@@QAE@XZ
  001ad	8d 4d a4	 lea	 ecx, DWORD PTR _gsiIndicatorName$[ebp+64]
  001b0	ff 15 00 00 00
	00		 call	 DWORD PTR __imp_??1?$CStringT@DV?$StrTraitMFC_DLL@DV?$ChTraitsCRT@D@ATL@@@@@ATL@@QAE@XZ
  001b6	8d 8d 60 ff ff
	ff		 lea	 ecx, DWORD PTR _gsiRQ$[ebp+64]
  001bc	ff 15 00 00 00
	00		 call	 DWORD PTR __imp_??1?$CStringT@DV?$StrTraitMFC_DLL@DV?$ChTraitsCRT@D@ATL@@@@@ATL@@QAE@XZ
  001c2	8b c6		 mov	 eax, esi

; 766  : }

  001c4	8b 4d f4	 mov	 ecx, DWORD PTR __$EHRec$[ebp]
  001c7	64 89 0d 00 00
	00 00		 mov	 DWORD PTR fs:0, ecx
  001ce	59		 pop	 ecx
  001cf	5f		 pop	 edi
  001d0	5e		 pop	 esi
  001d1	5b		 pop	 ebx
  001d2	8b e5		 mov	 esp, ebp
  001d4	5d		 pop	 ebp
  001d5	c2 14 00	 ret	 20			; 00000014H
_TEXT	ENDS
;	COMDAT text$x
text$x	SEGMENT
__unwindfunclet$?FindNextIndicator@CBlockImp@@UAEHPBDAAH1AAV?$CStringT@DV?$StrTraitMFC_DLL@DV?$ChTraitsCRT@D@ATL@@@@@ATL@@0@Z$0:
  00000	8d 8d 20 ff ff
	ff		 lea	 ecx, DWORD PTR _gsiRQ$[ebp]
  00006	e9 00 00 00 00	 jmp	 ??1CGraphSearchInfo_AnyGraphWithRQ@@QAE@XZ
__unwindfunclet$?FindNextIndicator@CBlockImp@@UAEHPBDAAH1AAV?$CStringT@DV?$StrTraitMFC_DLL@DV?$ChTraitsCRT@D@ATL@@@@@ATL@@0@Z$1:
  0000b	8d 8d 64 ff ff
	ff		 lea	 ecx, DWORD PTR _gsiIndicatorName$[ebp]
  00011	e9 00 00 00 00	 jmp	 ??1CGraphSearchInfo_IndicatorName@@QAE@XZ
__unwindfunclet$?FindNextIndicator@CBlockImp@@UAEHPBDAAH1AAV?$CStringT@DV?$StrTraitMFC_DLL@DV?$ChTraitsCRT@D@ATL@@@@@ATL@@0@Z$2:
  00016	8d 4d a8	 lea	 ecx, DWORD PTR _gsiIndicatorNameWithRQ$[ebp]
  00019	e9 00 00 00 00	 jmp	 ??1CGraphSearchInfo_IndicatorNameWithRQ@@QAE@XZ
__unwindfunclet$?FindNextIndicator@CBlockImp@@UAEHPBDAAH1AAV?$CStringT@DV?$StrTraitMFC_DLL@DV?$ChTraitsCRT@D@ATL@@@@@ATL@@0@Z$3:
  0001e	8d 4d 18	 lea	 ecx, DWORD PTR $T2[ebp]
  00021	ff 25 00 00 00
	00		 jmp	 DWORD PTR __imp_??1?$CStringT@DV?$StrTraitMFC_DLL@DV?$ChTraitsCRT@D@ATL@@@@@ATL@@QAE@XZ
  00027	cc		 int	 3
  00028	cc		 int	 3
  00029	cc		 int	 3
  0002a	cc		 int	 3
  0002b	cc		 int	 3
__ehhandler$?FindNextIndicator@CBlockImp@@UAEHPBDAAH1AAV?$CStringT@DV?$StrTraitMFC_DLL@DV?$ChTraitsCRT@D@ATL@@@@@ATL@@0@Z:
  0002c	90		 npad	 1
  0002d	90		 npad	 1
  0002e	8b 54 24 08	 mov	 edx, DWORD PTR [esp+8]
  00032	8d 42 0c	 lea	 eax, DWORD PTR [edx+12]
  00035	8b 8a dc fe ff
	ff		 mov	 ecx, DWORD PTR [edx-292]
  0003b	33 c8		 xor	 ecx, eax
  0003d	e8 00 00 00 00	 call	 @__security_check_cookie@4
  00042	b8 00 00 00 00	 mov	 eax, OFFSET __ehfuncinfo$?FindNextIndicator@CBlockImp@@UAEHPBDAAH1AAV?$CStringT@DV?$StrTraitMFC_DLL@DV?$ChTraitsCRT@D@ATL@@@@@ATL@@0@Z
  00047	e9 00 00 00 00	 jmp	 ___CxxFrameHandler3
text$x	ENDS
?FindNextIndicator@CBlockImp@@UAEHPBDAAH1AAV?$CStringT@DV?$StrTraitMFC_DLL@DV?$ChTraitsCRT@D@ATL@@@@@ATL@@0@Z ENDP ; CBlockImp::FindNextIndicator
; Function compile flags: /Ogtp
; File D:\git\src\IBK\IBK_DRFN\ProjSrc\SrcChartEx\ChartOCX\ChartObject\BlockImp.cpp
;	COMDAT ?FindFirstIndicator@CBlockImp@@UAEHPBDAAH1AAV?$CStringT@DV?$StrTraitMFC_DLL@DV?$ChTraitsCRT@D@ATL@@@@@ATL@@0@Z
_TEXT	SEGMENT
_gsi$ = -288						; size = 64
_gsiRQ$ = -224						; size = 68
_gsiIndicatorName$ = -156				; size = 68
_gsiIndicatorNameWithRQ$ = -88				; size = 72
_this$1$ = -16						; size = 4
__$EHRec$ = -12						; size = 12
_p_szIndicatorName$ = 8					; size = 4
$T2 = 12						; size = 4
_p_nV$ = 12						; size = 4
_p_nG$ = 16						; size = 4
_p_strGraphName$ = 20					; size = 4
_p_szRQ$ = 24						; size = 4
?FindFirstIndicator@CBlockImp@@UAEHPBDAAH1AAV?$CStringT@DV?$StrTraitMFC_DLL@DV?$ChTraitsCRT@D@ATL@@@@@ATL@@0@Z PROC ; CBlockImp::FindFirstIndicator, COMDAT
; _this$ = ecx

; 699  : {

  00000	55		 push	 ebp
  00001	8b ec		 mov	 ebp, esp
  00003	6a ff		 push	 -1
  00005	68 00 00 00 00	 push	 __ehhandler$?FindFirstIndicator@CBlockImp@@UAEHPBDAAH1AAV?$CStringT@DV?$StrTraitMFC_DLL@DV?$ChTraitsCRT@D@ATL@@@@@ATL@@0@Z
  0000a	64 a1 00 00 00
	00		 mov	 eax, DWORD PTR fs:0
  00010	50		 push	 eax
  00011	81 ec 14 01 00
	00		 sub	 esp, 276		; 00000114H
  00017	53		 push	 ebx
  00018	56		 push	 esi
  00019	57		 push	 edi
  0001a	a1 00 00 00 00	 mov	 eax, DWORD PTR ___security_cookie
  0001f	33 c5		 xor	 eax, ebp
  00021	50		 push	 eax
  00022	8d 45 f4	 lea	 eax, DWORD PTR __$EHRec$[ebp]
  00025	64 a3 00 00 00
	00		 mov	 DWORD PTR fs:0, eax
  0002b	89 4d f0	 mov	 DWORD PTR _this$1$[ebp], ecx

; 700  : 	p_nV = p_nG = -1;

  0002e	8b 45 10	 mov	 eax, DWORD PTR _p_nG$[ebp]

; 701  : 	p_strGraphName.Empty();

  00031	8b 4d 14	 mov	 ecx, DWORD PTR _p_strGraphName$[ebp]
  00034	c7 00 ff ff ff
	ff		 mov	 DWORD PTR [eax], -1
  0003a	8b 45 0c	 mov	 eax, DWORD PTR _p_nV$[ebp]
  0003d	c7 00 ff ff ff
	ff		 mov	 DWORD PTR [eax], -1
  00043	ff 15 00 00 00
	00		 call	 DWORD PTR __imp_?Empty@?$CSimpleStringT@D$00@ATL@@QAEXXZ
  00049	8d 8d e0 fe ff
	ff		 lea	 ecx, DWORD PTR _gsi$[ebp]
  0004f	e8 00 00 00 00	 call	 ??0CGraphSearchInfo@@QAE@XZ ; CGraphSearchInfo::CGraphSearchInfo
  00054	8d 8d 20 ff ff
	ff		 lea	 ecx, DWORD PTR _gsiRQ$[ebp]
  0005a	c7 85 e0 fe ff
	ff 00 00 00 00	 mov	 DWORD PTR _gsi$[ebp], OFFSET ??_7CGraphSearchInfo_AnyGraph@@6B@
  00064	e8 00 00 00 00	 call	 ??0CGraphSearchInfo@@QAE@XZ ; CGraphSearchInfo::CGraphSearchInfo
  00069	8d 8d 60 ff ff
	ff		 lea	 ecx, DWORD PTR _gsiRQ$[ebp+64]
  0006f	c7 85 20 ff ff
	ff 00 00 00 00	 mov	 DWORD PTR _gsiRQ$[ebp], OFFSET ??_7CGraphSearchInfo_AnyGraphWithRQ@@6B@
  00079	ff 15 00 00 00
	00		 call	 DWORD PTR __imp_??0?$CStringT@DV?$StrTraitMFC_DLL@DV?$ChTraitsCRT@D@ATL@@@@@ATL@@QAE@XZ

; 702  : 
; 703  : 	CGraphSearchInfo_AnyGraph					gsi;
; 704  : 
; 705  : 	CGraphSearchInfo_AnyGraphWithRQ				gsiRQ;
; 706  : 	gsiRQ.m_strRQ								= p_szRQ;

  0007f	8b 7d 18	 mov	 edi, DWORD PTR _p_szRQ$[ebp]
  00082	8d 8d 60 ff ff
	ff		 lea	 ecx, DWORD PTR _gsiRQ$[ebp+64]
  00088	57		 push	 edi
  00089	c7 45 fc 00 00
	00 00		 mov	 DWORD PTR __$EHRec$[ebp+8], 0
  00090	ff 15 00 00 00
	00		 call	 DWORD PTR __imp_??4?$CStringT@DV?$StrTraitMFC_DLL@DV?$ChTraitsCRT@D@ATL@@@@@ATL@@QAEAAV01@PBD@Z
  00096	8d 8d 64 ff ff
	ff		 lea	 ecx, DWORD PTR _gsiIndicatorName$[ebp]
  0009c	e8 00 00 00 00	 call	 ??0CGraphSearchInfo@@QAE@XZ ; CGraphSearchInfo::CGraphSearchInfo
  000a1	8d 4d a4	 lea	 ecx, DWORD PTR _gsiIndicatorName$[ebp+64]
  000a4	c7 85 64 ff ff
	ff 00 00 00 00	 mov	 DWORD PTR _gsiIndicatorName$[ebp], OFFSET ??_7CGraphSearchInfo_IndicatorName@@6B@
  000ae	ff 15 00 00 00
	00		 call	 DWORD PTR __imp_??0?$CStringT@DV?$StrTraitMFC_DLL@DV?$ChTraitsCRT@D@ATL@@@@@ATL@@QAE@XZ

; 707  : 
; 708  : 	CGraphSearchInfo_IndicatorName				gsiIndicatorName;
; 709  : 	gsiIndicatorName.m_strIndicatorName			= p_szIndicatorName;

  000b4	8b 5d 08	 mov	 ebx, DWORD PTR _p_szIndicatorName$[ebp]
  000b7	8d 4d a4	 lea	 ecx, DWORD PTR _gsiIndicatorName$[ebp+64]
  000ba	53		 push	 ebx
  000bb	c6 45 fc 01	 mov	 BYTE PTR __$EHRec$[ebp+8], 1
  000bf	ff 15 00 00 00
	00		 call	 DWORD PTR __imp_??4?$CStringT@DV?$StrTraitMFC_DLL@DV?$ChTraitsCRT@D@ATL@@@@@ATL@@QAEAAV01@PBD@Z
  000c5	8d 4d a8	 lea	 ecx, DWORD PTR _gsiIndicatorNameWithRQ$[ebp]
  000c8	e8 00 00 00 00	 call	 ??0CGraphSearchInfo@@QAE@XZ ; CGraphSearchInfo::CGraphSearchInfo
  000cd	8d 4d e8	 lea	 ecx, DWORD PTR _gsiIndicatorNameWithRQ$[ebp+64]
  000d0	c7 45 a8 00 00
	00 00		 mov	 DWORD PTR _gsiIndicatorNameWithRQ$[ebp], OFFSET ??_7CGraphSearchInfo_IndicatorName@@6B@
  000d7	ff 15 00 00 00
	00		 call	 DWORD PTR __imp_??0?$CStringT@DV?$StrTraitMFC_DLL@DV?$ChTraitsCRT@D@ATL@@@@@ATL@@QAE@XZ
  000dd	8d 4d ec	 lea	 ecx, DWORD PTR _gsiIndicatorNameWithRQ$[ebp+68]
  000e0	c7 45 a8 00 00
	00 00		 mov	 DWORD PTR _gsiIndicatorNameWithRQ$[ebp], OFFSET ??_7CGraphSearchInfo_IndicatorNameWithRQ@@6B@
  000e7	ff 15 00 00 00
	00		 call	 DWORD PTR __imp_??0?$CStringT@DV?$StrTraitMFC_DLL@DV?$ChTraitsCRT@D@ATL@@@@@ATL@@QAE@XZ

; 710  : 
; 711  : 	CGraphSearchInfo_IndicatorNameWithRQ		gsiIndicatorNameWithRQ;
; 712  : 	gsiIndicatorNameWithRQ.m_strRQ				= p_szRQ;

  000ed	57		 push	 edi
  000ee	8d 4d ec	 lea	 ecx, DWORD PTR _gsiIndicatorNameWithRQ$[ebp+68]
  000f1	c6 45 fc 02	 mov	 BYTE PTR __$EHRec$[ebp+8], 2
  000f5	ff 15 00 00 00
	00		 call	 DWORD PTR __imp_??4?$CStringT@DV?$StrTraitMFC_DLL@DV?$ChTraitsCRT@D@ATL@@@@@ATL@@QAEAAV01@PBD@Z

; 713  : 	gsiIndicatorNameWithRQ.m_strIndicatorName	= p_szIndicatorName;

  000fb	53		 push	 ebx
  000fc	8d 4d e8	 lea	 ecx, DWORD PTR _gsiIndicatorNameWithRQ$[ebp+64]
  000ff	ff 15 00 00 00
	00		 call	 DWORD PTR __imp_??4?$CStringT@DV?$StrTraitMFC_DLL@DV?$ChTraitsCRT@D@ATL@@@@@ATL@@QAEAAV01@PBD@Z

; 714  : 	
; 715  : 	CGraphSearchInfo *pGSI = &gsi;

  00105	8d b5 e0 fe ff
	ff		 lea	 esi, DWORD PTR _gsi$[ebp]

; 716  : 	if( p_szIndicatorName && p_szRQ)		if( *p_szIndicatorName && *p_szRQ)

  0010b	85 db		 test	 ebx, ebx
  0010d	74 20		 je	 SHORT $LN69@FindFirstI
  0010f	85 ff		 test	 edi, edi
  00111	74 0f		 je	 SHORT $LN70@FindFirstI
  00113	80 3b 00	 cmp	 BYTE PTR [ebx], 0
  00116	74 1b		 je	 SHORT $LN71@FindFirstI
  00118	80 3f 00	 cmp	 BYTE PTR [edi], 0
  0011b	74 0a		 je	 SHORT $LN72@FindFirstI

; 717  : 												pGSI = &gsiIndicatorNameWithRQ;

  0011d	8d 75 a8	 lea	 esi, DWORD PTR _gsiIndicatorNameWithRQ$[ebp]

; 718  : 	if( pGSI == &gsi && p_szIndicatorName)	if( *p_szIndicatorName)

  00120	eb 1f		 jmp	 SHORT $LN7@FindFirstI
$LN70@FindFirstI:
  00122	80 3b 00	 cmp	 BYTE PTR [ebx], 0
  00125	74 1a		 je	 SHORT $LN7@FindFirstI
$LN72@FindFirstI:

; 719  : 												pGSI = &gsiIndicatorName;

  00127	8d b5 64 ff ff
	ff		 lea	 esi, DWORD PTR _gsiIndicatorName$[ebp]

; 720  : 	if( pGSI == &gsi && p_szRQ)				if( *p_szRQ)

  0012d	eb 12		 jmp	 SHORT $LN7@FindFirstI
$LN69@FindFirstI:
  0012f	85 ff		 test	 edi, edi
  00131	74 0e		 je	 SHORT $LN7@FindFirstI
$LN71@FindFirstI:
  00133	80 3f 00	 cmp	 BYTE PTR [edi], 0
  00136	8d 85 20 ff ff
	ff		 lea	 eax, DWORD PTR _gsiRQ$[ebp]
  0013c	0f 44 c6	 cmove	 eax, esi
  0013f	8b f0		 mov	 esi, eax
$LN7@FindFirstI:

; 721  : 												pGSI = &gsiRQ;
; 722  : 
; 723  : 	if( !m_vertScaleGroupList.FindGraph( pGSI)) return FALSE;

  00141	8b 4d f0	 mov	 ecx, DWORD PTR _this$1$[ebp]
  00144	56		 push	 esi
  00145	81 c1 90 00 00
	00		 add	 ecx, 144		; 00000090H
  0014b	e8 00 00 00 00	 call	 ?FindGraph@CVertScaleGroupList@@QBEHPAVCGraphSearchInfo@@@Z ; CVertScaleGroupList::FindGraph
  00150	85 c0		 test	 eax, eax
  00152	74 46		 je	 SHORT $LN15@FindFirstI

; 724  : 	if( !pGSI->m_pGraphImp) return FALSE;

  00154	8b 4e 38	 mov	 ecx, DWORD PTR [esi+56]
  00157	85 c9		 test	 ecx, ecx
  00159	74 3f		 je	 SHORT $LN15@FindFirstI

; 725  : 
; 726  : 	p_nV			= pGSI->m_nVertScaleGroupIndex;

  0015b	8b 55 0c	 mov	 edx, DWORD PTR _p_nV$[ebp]
  0015e	8b 46 20	 mov	 eax, DWORD PTR [esi+32]
  00161	89 02		 mov	 DWORD PTR [edx], eax

; 727  : 	p_nG			= pGSI->m_nGraphIndex;

  00163	8b 55 10	 mov	 edx, DWORD PTR _p_nG$[ebp]
  00166	8b 46 24	 mov	 eax, DWORD PTR [esi+36]
  00169	89 02		 mov	 DWORD PTR [edx], eax

; 728  : 	p_strGraphName	= pGSI->m_pGraphImp->GetGraphData().GetGraphName();

  0016b	8d 45 0c	 lea	 eax, DWORD PTR $T2[ebp]
  0016e	50		 push	 eax
  0016f	e8 00 00 00 00	 call	 ?GetGraphData@CGraphImp@@QAEAAVCGraphData@@XZ ; CGraphImp::GetGraphData
  00174	8b c8		 mov	 ecx, eax
  00176	ff 15 00 00 00
	00		 call	 DWORD PTR __imp_?GetGraphName@CGraphData@@QBE?AV?$CStringT@DV?$StrTraitMFC_DLL@DV?$ChTraitsCRT@D@ATL@@@@@ATL@@XZ
  0017c	8b 4d 14	 mov	 ecx, DWORD PTR _p_strGraphName$[ebp]
  0017f	50		 push	 eax
  00180	c6 45 fc 03	 mov	 BYTE PTR __$EHRec$[ebp+8], 3
  00184	ff 15 00 00 00
	00		 call	 DWORD PTR __imp_??4?$CStringT@DV?$StrTraitMFC_DLL@DV?$ChTraitsCRT@D@ATL@@@@@ATL@@QAEAAV01@ABV01@@Z
  0018a	8d 4d 0c	 lea	 ecx, DWORD PTR $T2[ebp]
  0018d	ff 15 00 00 00
	00		 call	 DWORD PTR __imp_??1?$CStringT@DV?$StrTraitMFC_DLL@DV?$ChTraitsCRT@D@ATL@@@@@ATL@@QAE@XZ

; 729  : 	return TRUE;

  00193	be 01 00 00 00	 mov	 esi, 1
  00198	eb 02		 jmp	 SHORT $LN16@FindFirstI
$LN15@FindFirstI:
  0019a	33 f6		 xor	 esi, esi
$LN16@FindFirstI:
  0019c	8d 4d ec	 lea	 ecx, DWORD PTR _gsiIndicatorNameWithRQ$[ebp+68]
  0019f	ff 15 00 00 00
	00		 call	 DWORD PTR __imp_??1?$CStringT@DV?$StrTraitMFC_DLL@DV?$ChTraitsCRT@D@ATL@@@@@ATL@@QAE@XZ
  001a5	8d 4d e8	 lea	 ecx, DWORD PTR _gsiIndicatorNameWithRQ$[ebp+64]
  001a8	ff 15 00 00 00
	00		 call	 DWORD PTR __imp_??1?$CStringT@DV?$StrTraitMFC_DLL@DV?$ChTraitsCRT@D@ATL@@@@@ATL@@QAE@XZ
  001ae	8d 4d a4	 lea	 ecx, DWORD PTR _gsiIndicatorName$[ebp+64]
  001b1	ff 15 00 00 00
	00		 call	 DWORD PTR __imp_??1?$CStringT@DV?$StrTraitMFC_DLL@DV?$ChTraitsCRT@D@ATL@@@@@ATL@@QAE@XZ
  001b7	8d 8d 60 ff ff
	ff		 lea	 ecx, DWORD PTR _gsiRQ$[ebp+64]
  001bd	ff 15 00 00 00
	00		 call	 DWORD PTR __imp_??1?$CStringT@DV?$StrTraitMFC_DLL@DV?$ChTraitsCRT@D@ATL@@@@@ATL@@QAE@XZ
  001c3	8b c6		 mov	 eax, esi

; 730  : }

  001c5	8b 4d f4	 mov	 ecx, DWORD PTR __$EHRec$[ebp]
  001c8	64 89 0d 00 00
	00 00		 mov	 DWORD PTR fs:0, ecx
  001cf	59		 pop	 ecx
  001d0	5f		 pop	 edi
  001d1	5e		 pop	 esi
  001d2	5b		 pop	 ebx
  001d3	8b e5		 mov	 esp, ebp
  001d5	5d		 pop	 ebp
  001d6	c2 14 00	 ret	 20			; 00000014H
_TEXT	ENDS
;	COMDAT text$x
text$x	SEGMENT
__unwindfunclet$?FindFirstIndicator@CBlockImp@@UAEHPBDAAH1AAV?$CStringT@DV?$StrTraitMFC_DLL@DV?$ChTraitsCRT@D@ATL@@@@@ATL@@0@Z$0:
  00000	8d 8d 20 ff ff
	ff		 lea	 ecx, DWORD PTR _gsiRQ$[ebp]
  00006	e9 00 00 00 00	 jmp	 ??1CGraphSearchInfo_AnyGraphWithRQ@@QAE@XZ
__unwindfunclet$?FindFirstIndicator@CBlockImp@@UAEHPBDAAH1AAV?$CStringT@DV?$StrTraitMFC_DLL@DV?$ChTraitsCRT@D@ATL@@@@@ATL@@0@Z$1:
  0000b	8d 8d 64 ff ff
	ff		 lea	 ecx, DWORD PTR _gsiIndicatorName$[ebp]
  00011	e9 00 00 00 00	 jmp	 ??1CGraphSearchInfo_IndicatorName@@QAE@XZ
__unwindfunclet$?FindFirstIndicator@CBlockImp@@UAEHPBDAAH1AAV?$CStringT@DV?$StrTraitMFC_DLL@DV?$ChTraitsCRT@D@ATL@@@@@ATL@@0@Z$2:
  00016	8d 4d a8	 lea	 ecx, DWORD PTR _gsiIndicatorNameWithRQ$[ebp]
  00019	e9 00 00 00 00	 jmp	 ??1CGraphSearchInfo_IndicatorNameWithRQ@@QAE@XZ
__unwindfunclet$?FindFirstIndicator@CBlockImp@@UAEHPBDAAH1AAV?$CStringT@DV?$StrTraitMFC_DLL@DV?$ChTraitsCRT@D@ATL@@@@@ATL@@0@Z$3:
  0001e	8d 4d 0c	 lea	 ecx, DWORD PTR $T2[ebp]
  00021	ff 25 00 00 00
	00		 jmp	 DWORD PTR __imp_??1?$CStringT@DV?$StrTraitMFC_DLL@DV?$ChTraitsCRT@D@ATL@@@@@ATL@@QAE@XZ
  00027	cc		 int	 3
  00028	cc		 int	 3
  00029	cc		 int	 3
  0002a	cc		 int	 3
  0002b	cc		 int	 3
__ehhandler$?FindFirstIndicator@CBlockImp@@UAEHPBDAAH1AAV?$CStringT@DV?$StrTraitMFC_DLL@DV?$ChTraitsCRT@D@ATL@@@@@ATL@@0@Z:
  0002c	90		 npad	 1
  0002d	90		 npad	 1
  0002e	8b 54 24 08	 mov	 edx, DWORD PTR [esp+8]
  00032	8d 42 0c	 lea	 eax, DWORD PTR [edx+12]
  00035	8b 8a dc fe ff
	ff		 mov	 ecx, DWORD PTR [edx-292]
  0003b	33 c8		 xor	 ecx, eax
  0003d	e8 00 00 00 00	 call	 @__security_check_cookie@4
  00042	b8 00 00 00 00	 mov	 eax, OFFSET __ehfuncinfo$?FindFirstIndicator@CBlockImp@@UAEHPBDAAH1AAV?$CStringT@DV?$StrTraitMFC_DLL@DV?$ChTraitsCRT@D@ATL@@@@@ATL@@0@Z
  00047	e9 00 00 00 00	 jmp	 ___CxxFrameHandler3
text$x	ENDS
?FindFirstIndicator@CBlockImp@@UAEHPBDAAH1AAV?$CStringT@DV?$StrTraitMFC_DLL@DV?$ChTraitsCRT@D@ATL@@@@@ATL@@0@Z ENDP ; CBlockImp::FindFirstIndicator
; Function compile flags: /Ogtp
; File D:\git\src\IBK\IBK_DRFN\ProjSrc\SrcChartEx\ChartOCX\ChartObject\BlockImp.cpp
;	COMDAT ?UpdateGraphWithGraphInfo@CBlockImp@@UAEHHHH@Z
_TEXT	SEGMENT
_p_nV$ = 8						; size = 4
_p_nG$ = 12						; size = 4
_p_bWithCalculate$ = 16					; size = 4
?UpdateGraphWithGraphInfo@CBlockImp@@UAEHHHH@Z PROC	; CBlockImp::UpdateGraphWithGraphInfo, COMDAT
; _this$ = ecx

; 688  : {

  00000	55		 push	 ebp
  00001	8b ec		 mov	 ebp, esp

; 689  : 	CGraphImp *pGraph = m_vertScaleGroupList.GetGraph( p_nV, p_nG);

  00003	ff 75 0c	 push	 DWORD PTR _p_nG$[ebp]
  00006	81 c1 90 00 00
	00		 add	 ecx, 144		; 00000090H
  0000c	ff 75 08	 push	 DWORD PTR _p_nV$[ebp]
  0000f	e8 00 00 00 00	 call	 ?GetGraph@CVertScaleGroupList@@QBEPAVCGraphImp@@HH@Z ; CVertScaleGroupList::GetGraph
  00014	8b c8		 mov	 ecx, eax

; 690  : 	if( !pGraph) return FALSE;

  00016	85 c9		 test	 ecx, ecx
  00018	75 04		 jne	 SHORT $LN2@UpdateGrap

; 695  : }

  0001a	5d		 pop	 ebp
  0001b	c2 0c 00	 ret	 12			; 0000000cH
$LN2@UpdateGrap:

; 691  : 
; 692  : 	pGraph->ChangeGraphDataFromIndicatorInfo( p_bWithCalculate ? true : false);

  0001e	83 7d 10 00	 cmp	 DWORD PTR _p_bWithCalculate$[ebp], 0
  00022	0f 95 c0	 setne	 al
  00025	0f b6 c0	 movzx	 eax, al
  00028	50		 push	 eax
  00029	e8 00 00 00 00	 call	 ?ChangeGraphDataFromIndicatorInfo@CGraphImp@@QAE_N_N@Z ; CGraphImp::ChangeGraphDataFromIndicatorInfo

; 693  : 
; 694  : 	return TRUE;

  0002e	b8 01 00 00 00	 mov	 eax, 1

; 695  : }

  00033	5d		 pop	 ebp
  00034	c2 0c 00	 ret	 12			; 0000000cH
?UpdateGraphWithGraphInfo@CBlockImp@@UAEHHHH@Z ENDP	; CBlockImp::UpdateGraphWithGraphInfo
_TEXT	ENDS
; Function compile flags: /Ogtp
; File D:\git\src\IBK\IBK_DRFN\ProjSrc\SrcChartEx\ChartOCX\ChartObject\BlockImp.cpp
;	COMDAT ?GetIndexOfGraph@CBlockImp@@UAEHPBDAAH1@Z
_TEXT	SEGMENT
_gsi$ = -80						; size = 68
__$EHRec$ = -12						; size = 12
_p_szGraphName$ = 8					; size = 4
_p_nV$ = 12						; size = 4
_p_nG$ = 16						; size = 4
?GetIndexOfGraph@CBlockImp@@UAEHPBDAAH1@Z PROC		; CBlockImp::GetIndexOfGraph, COMDAT
; _this$ = ecx

; 676  : {

  00000	55		 push	 ebp
  00001	8b ec		 mov	 ebp, esp
  00003	6a ff		 push	 -1
  00005	68 00 00 00 00	 push	 __ehhandler$?GetIndexOfGraph@CBlockImp@@UAEHPBDAAH1@Z
  0000a	64 a1 00 00 00
	00		 mov	 eax, DWORD PTR fs:0
  00010	50		 push	 eax
  00011	83 ec 44	 sub	 esp, 68			; 00000044H
  00014	56		 push	 esi
  00015	57		 push	 edi
  00016	a1 00 00 00 00	 mov	 eax, DWORD PTR ___security_cookie
  0001b	33 c5		 xor	 eax, ebp
  0001d	50		 push	 eax
  0001e	8d 45 f4	 lea	 eax, DWORD PTR __$EHRec$[ebp]
  00021	64 a3 00 00 00
	00		 mov	 DWORD PTR fs:0, eax
  00027	8b f9		 mov	 edi, ecx

; 677  : 	if( !p_szGraphName) return FALSE;

  00029	8b 75 08	 mov	 esi, DWORD PTR _p_szGraphName$[ebp]
  0002c	85 f6		 test	 esi, esi
  0002e	75 15		 jne	 SHORT $LN2@GetIndexOf
  00030	33 c0		 xor	 eax, eax

; 684  : }

  00032	8b 4d f4	 mov	 ecx, DWORD PTR __$EHRec$[ebp]
  00035	64 89 0d 00 00
	00 00		 mov	 DWORD PTR fs:0, ecx
  0003c	59		 pop	 ecx
  0003d	5f		 pop	 edi
  0003e	5e		 pop	 esi
  0003f	8b e5		 mov	 esp, ebp
  00041	5d		 pop	 ebp
  00042	c2 0c 00	 ret	 12			; 0000000cH
$LN2@GetIndexOf:
  00045	8d 4d b0	 lea	 ecx, DWORD PTR _gsi$[ebp]
  00048	e8 00 00 00 00	 call	 ??0CGraphSearchInfo@@QAE@XZ ; CGraphSearchInfo::CGraphSearchInfo
  0004d	8d 4d f0	 lea	 ecx, DWORD PTR _gsi$[ebp+64]
  00050	c7 45 b0 00 00
	00 00		 mov	 DWORD PTR _gsi$[ebp], OFFSET ??_7CGraphSearchInfo_GraphName@@6B@
  00057	ff 15 00 00 00
	00		 call	 DWORD PTR __imp_??0?$CStringT@DV?$StrTraitMFC_DLL@DV?$ChTraitsCRT@D@ATL@@@@@ATL@@QAE@XZ

; 678  : 	CGraphSearchInfo_GraphName gsi;
; 679  : 	gsi.m_strGraphName = p_szGraphName;

  0005d	56		 push	 esi
  0005e	8d 4d f0	 lea	 ecx, DWORD PTR _gsi$[ebp+64]
  00061	c7 45 fc 00 00
	00 00		 mov	 DWORD PTR __$EHRec$[ebp+8], 0
  00068	ff 15 00 00 00
	00		 call	 DWORD PTR __imp_??4?$CStringT@DV?$StrTraitMFC_DLL@DV?$ChTraitsCRT@D@ATL@@@@@ATL@@QAEAAV01@PBD@Z

; 680  : 	if( !m_vertScaleGroupList.FindGraph( &gsi)) return FALSE;

  0006e	8d 45 b0	 lea	 eax, DWORD PTR _gsi$[ebp]
  00071	50		 push	 eax
  00072	8d 8f 90 00 00
	00		 lea	 ecx, DWORD PTR [edi+144]
  00078	e8 00 00 00 00	 call	 ?FindGraph@CVertScaleGroupList@@QBEHPAVCGraphSearchInfo@@@Z ; CVertScaleGroupList::FindGraph
  0007d	85 c0		 test	 eax, eax
  0007f	75 04		 jne	 SHORT $LN3@GetIndexOf
  00081	33 f6		 xor	 esi, esi
  00083	eb 15		 jmp	 SHORT $LN6@GetIndexOf
$LN3@GetIndexOf:

; 681  : 	p_nV = gsi.m_nVertScaleGroupIndex;

  00085	8b 4d 0c	 mov	 ecx, DWORD PTR _p_nV$[ebp]

; 682  : 	p_nG = gsi.m_nGraphIndex;
; 683  : 	return TRUE;

  00088	be 01 00 00 00	 mov	 esi, 1
  0008d	8b 45 d0	 mov	 eax, DWORD PTR _gsi$[ebp+32]
  00090	89 01		 mov	 DWORD PTR [ecx], eax
  00092	8b 4d 10	 mov	 ecx, DWORD PTR _p_nG$[ebp]
  00095	8b 45 d4	 mov	 eax, DWORD PTR _gsi$[ebp+36]
  00098	89 01		 mov	 DWORD PTR [ecx], eax
$LN6@GetIndexOf:
  0009a	8d 4d f0	 lea	 ecx, DWORD PTR _gsi$[ebp+64]
  0009d	ff 15 00 00 00
	00		 call	 DWORD PTR __imp_??1?$CStringT@DV?$StrTraitMFC_DLL@DV?$ChTraitsCRT@D@ATL@@@@@ATL@@QAE@XZ
  000a3	8b c6		 mov	 eax, esi

; 684  : }

  000a5	8b 4d f4	 mov	 ecx, DWORD PTR __$EHRec$[ebp]
  000a8	64 89 0d 00 00
	00 00		 mov	 DWORD PTR fs:0, ecx
  000af	59		 pop	 ecx
  000b0	5f		 pop	 edi
  000b1	5e		 pop	 esi
  000b2	8b e5		 mov	 esp, ebp
  000b4	5d		 pop	 ebp
  000b5	c2 0c 00	 ret	 12			; 0000000cH
_TEXT	ENDS
;	COMDAT text$x
text$x	SEGMENT
__unwindfunclet$?GetIndexOfGraph@CBlockImp@@UAEHPBDAAH1@Z$0:
  00000	8d 4d b0	 lea	 ecx, DWORD PTR _gsi$[ebp]
  00003	e9 00 00 00 00	 jmp	 ??1CGraphSearchInfo_GraphName@@QAE@XZ
  00008	cc		 int	 3
  00009	cc		 int	 3
  0000a	cc		 int	 3
  0000b	cc		 int	 3
  0000c	cc		 int	 3
__ehhandler$?GetIndexOfGraph@CBlockImp@@UAEHPBDAAH1@Z:
  0000d	90		 npad	 1
  0000e	90		 npad	 1
  0000f	8b 54 24 08	 mov	 edx, DWORD PTR [esp+8]
  00013	8d 42 0c	 lea	 eax, DWORD PTR [edx+12]
  00016	8b 4a b0	 mov	 ecx, DWORD PTR [edx-80]
  00019	33 c8		 xor	 ecx, eax
  0001b	e8 00 00 00 00	 call	 @__security_check_cookie@4
  00020	b8 00 00 00 00	 mov	 eax, OFFSET __ehfuncinfo$?GetIndexOfGraph@CBlockImp@@UAEHPBDAAH1@Z
  00025	e9 00 00 00 00	 jmp	 ___CxxFrameHandler3
text$x	ENDS
?GetIndexOfGraph@CBlockImp@@UAEHPBDAAH1@Z ENDP		; CBlockImp::GetIndexOfGraph
; Function compile flags: /Ogtp
; File D:\git\src\IBK\IBK_DRFN\ProjSrc\SrcChartEx\ChartOCX\ChartObject\BlockImp.h
;	COMDAT ?GetVScaleCount@CBlockImp@@UAEHXZ
_TEXT	SEGMENT
?GetVScaleCount@CBlockImp@@UAEHXZ PROC			; CBlockImp::GetVScaleCount, COMDAT
; _this$ = ecx

; 98   : 	virtual int										GetVScaleCount( void)	{	return m_vertScaleGroupList.GetCount();	}

  00000	81 c1 90 00 00
	00		 add	 ecx, 144		; 00000090H
  00006	e9 00 00 00 00	 jmp	 ?GetCount@CVertScaleGroupList@@QBEHXZ ; CVertScaleGroupList::GetCount
?GetVScaleCount@CBlockImp@@UAEHXZ ENDP			; CBlockImp::GetVScaleCount
_TEXT	ENDS
; Function compile flags: /Ogtp
; File D:\git\src\IBK\IBK_DRFN\ProjSrc\SrcChartEx\ChartOCX\ChartObject\BlockImp.cpp
;	COMDAT ?GetActiveVScaleIndex@CBlockImp@@UAEHW4VERTSCALEPOSITION@CScaleBaseData@@@Z
_TEXT	SEGMENT
_p_eVScalePosition$ = 8					; size = 4
?GetActiveVScaleIndex@CBlockImp@@UAEHW4VERTSCALEPOSITION@CScaleBaseData@@@Z PROC ; CBlockImp::GetActiveVScaleIndex, COMDAT
; _this$ = ecx

; 670  : {

  00000	55		 push	 ebp
  00001	8b ec		 mov	 ebp, esp

; 671  : 	return m_vertScaleGroupList.GetActiveVScaleIndex( p_eVScalePosition);

  00003	81 c1 90 00 00
	00		 add	 ecx, 144		; 00000090H

; 672  : }

  00009	5d		 pop	 ebp

; 671  : 	return m_vertScaleGroupList.GetActiveVScaleIndex( p_eVScalePosition);

  0000a	e9 00 00 00 00	 jmp	 ?GetActiveVScaleIndex@CVertScaleGroupList@@QAEHW4VERTSCALEPOSITION@CScaleBaseData@@@Z ; CVertScaleGroupList::GetActiveVScaleIndex
?GetActiveVScaleIndex@CBlockImp@@UAEHW4VERTSCALEPOSITION@CScaleBaseData@@@Z ENDP ; CBlockImp::GetActiveVScaleIndex
_TEXT	ENDS
; Function compile flags: /Ogtp
; File D:\git\src\IBK\IBK_DRFN\ProjSrc\SrcChartEx\ChartOCX\ChartObject\BlockImp.cpp
;	COMDAT ?SetAllInvertScale@CBlockImp@@UAEHH@Z
_TEXT	SEGMENT
_p_bInvertScale$ = 8					; size = 4
?SetAllInvertScale@CBlockImp@@UAEHH@Z PROC		; CBlockImp::SetAllInvertScale, COMDAT
; _this$ = ecx

; 664  : {

  00000	55		 push	 ebp
  00001	8b ec		 mov	 ebp, esp

; 665  : 	m_vertScaleGroupList.SetAllVertScaleInvertType( p_bInvertScale);

  00003	ff 75 08	 push	 DWORD PTR _p_bInvertScale$[ebp]
  00006	81 c1 90 00 00
	00		 add	 ecx, 144		; 00000090H
  0000c	e8 00 00 00 00	 call	 ?SetAllVertScaleInvertType@CVertScaleGroupList@@QAEXH@Z ; CVertScaleGroupList::SetAllVertScaleInvertType

; 666  : 	return TRUE;

  00011	b8 01 00 00 00	 mov	 eax, 1

; 667  : }

  00016	5d		 pop	 ebp
  00017	c2 04 00	 ret	 4
?SetAllInvertScale@CBlockImp@@UAEHH@Z ENDP		; CBlockImp::SetAllInvertScale
_TEXT	ENDS
; Function compile flags: /Ogtp
; File D:\git\src\IBK\IBK_DRFN\ProjSrc\SrcChartEx\ChartOCX\ChartObject\BlockImp.cpp
;	COMDAT ?HasInvertScale@CBlockImp@@UAEHXZ
_TEXT	SEGMENT
_gsi$ = -68						; size = 68
?HasInvertScale@CBlockImp@@UAEHXZ PROC			; CBlockImp::HasInvertScale, COMDAT
; _this$ = ecx

; 657  : {

  00000	55		 push	 ebp
  00001	8b ec		 mov	 ebp, esp
  00003	83 ec 44	 sub	 esp, 68			; 00000044H
  00006	56		 push	 esi
  00007	8b f1		 mov	 esi, ecx
  00009	8d 4d bc	 lea	 ecx, DWORD PTR _gsi$[ebp]
  0000c	e8 00 00 00 00	 call	 ??0CGraphSearchInfo@@QAE@XZ ; CGraphSearchInfo::CGraphSearchInfo

; 658  : 	CGraphSearchInfo_InvertVSCaleGroup gsi;
; 659  : 	gsi.m_bInvertType = TRUE;
; 660  : 	return m_vertScaleGroupList.FindGraph( &gsi);

  00011	8d 45 bc	 lea	 eax, DWORD PTR _gsi$[ebp]
  00014	c7 45 bc 00 00
	00 00		 mov	 DWORD PTR _gsi$[ebp], OFFSET ??_7CGraphSearchInfo_InvertVSCaleGroup@@6B@
  0001b	50		 push	 eax
  0001c	8d 8e 90 00 00
	00		 lea	 ecx, DWORD PTR [esi+144]
  00022	c7 45 fc 01 00
	00 00		 mov	 DWORD PTR _gsi$[ebp+64], 1
  00029	e8 00 00 00 00	 call	 ?FindGraph@CVertScaleGroupList@@QBEHPAVCGraphSearchInfo@@@Z ; CVertScaleGroupList::FindGraph
  0002e	5e		 pop	 esi

; 661  : }

  0002f	8b e5		 mov	 esp, ebp
  00031	5d		 pop	 ebp
  00032	c3		 ret	 0
?HasInvertScale@CBlockImp@@UAEHXZ ENDP			; CBlockImp::HasInvertScale
_TEXT	ENDS
; Function compile flags: /Ogtp
; File D:\git\src\IBK\IBK_DRFN\ProjSrc\SrcChartEx\ChartOCX\ChartObject\BlockImp.cpp
;	COMDAT ?SetVScaleInvert@CBlockImp@@UAEHHH@Z
_TEXT	SEGMENT
_p_nV$ = 8						; size = 4
_p_bInvertScale$ = 12					; size = 4
?SetVScaleInvert@CBlockImp@@UAEHHH@Z PROC		; CBlockImp::SetVScaleInvert, COMDAT
; _this$ = ecx

; 649  : {

  00000	55		 push	 ebp
  00001	8b ec		 mov	 ebp, esp

; 650  : 	CVertScaleGroup *pVScaleGroup = m_vertScaleGroupList.GetVertScaleGroup( p_nV);

  00003	ff 75 08	 push	 DWORD PTR _p_nV$[ebp]
  00006	81 c1 90 00 00
	00		 add	 ecx, 144		; 00000090H
  0000c	e8 00 00 00 00	 call	 ?GetVertScaleGroup@CVertScaleGroupList@@QBEPAVCVertScaleGroup@@H@Z ; CVertScaleGroupList::GetVertScaleGroup
  00011	8b c8		 mov	 ecx, eax

; 651  : 	if( !pVScaleGroup) return FALSE;

  00013	85 c9		 test	 ecx, ecx
  00015	75 04		 jne	 SHORT $LN2@SetVScaleI

; 654  : }

  00017	5d		 pop	 ebp
  00018	c2 08 00	 ret	 8
$LN2@SetVScaleI:

; 652  : 	pVScaleGroup->SetVertScaleInvertType( p_bInvertScale);

  0001b	83 7d 0c 00	 cmp	 DWORD PTR _p_bInvertScale$[ebp], 0
  0001f	0f 95 c0	 setne	 al
  00022	0f b6 c0	 movzx	 eax, al
  00025	50		 push	 eax
  00026	e8 00 00 00 00	 call	 ?SetVertScaleInvertType@CVertScaleGroup@@QAEX_N@Z ; CVertScaleGroup::SetVertScaleInvertType

; 653  : 	return TRUE;

  0002b	b8 01 00 00 00	 mov	 eax, 1

; 654  : }

  00030	5d		 pop	 ebp
  00031	c2 08 00	 ret	 8
?SetVScaleInvert@CBlockImp@@UAEHHH@Z ENDP		; CBlockImp::SetVScaleInvert
_TEXT	ENDS
; Function compile flags: /Ogtp
; File D:\git\src\IBK\IBK_DRFN\ProjSrc\SrcChartEx\ChartOCX\ChartObject\BlockImp.cpp
;	COMDAT ?IsVScaleInvert@CBlockImp@@UAEHH@Z
_TEXT	SEGMENT
_p_nV$ = 8						; size = 4
?IsVScaleInvert@CBlockImp@@UAEHH@Z PROC			; CBlockImp::IsVScaleInvert, COMDAT
; _this$ = ecx

; 642  : {

  00000	55		 push	 ebp
  00001	8b ec		 mov	 ebp, esp

; 643  : 	CVertScaleGroup *pVScaleGroup = m_vertScaleGroupList.GetVertScaleGroup( p_nV);

  00003	ff 75 08	 push	 DWORD PTR _p_nV$[ebp]
  00006	81 c1 90 00 00
	00		 add	 ecx, 144		; 00000090H
  0000c	e8 00 00 00 00	 call	 ?GetVertScaleGroup@CVertScaleGroupList@@QBEPAVCVertScaleGroup@@H@Z ; CVertScaleGroupList::GetVertScaleGroup

; 644  : 	if( !pVScaleGroup) return FALSE;

  00011	85 c0		 test	 eax, eax
  00013	75 04		 jne	 SHORT $LN2@IsVScaleIn

; 646  : }

  00015	5d		 pop	 ebp
  00016	c2 04 00	 ret	 4
$LN2@IsVScaleIn:

; 645  : 	return pVScaleGroup->GetVertScaleInvertType();

  00019	8b c8		 mov	 ecx, eax
  0001b	e8 00 00 00 00	 call	 ?GetVertScaleInvertType@CVertScaleGroup@@QBE_NXZ ; CVertScaleGroup::GetVertScaleInvertType
  00020	0f b6 c0	 movzx	 eax, al

; 646  : }

  00023	5d		 pop	 ebp
  00024	c2 04 00	 ret	 4
?IsVScaleInvert@CBlockImp@@UAEHH@Z ENDP			; CBlockImp::IsVScaleInvert
_TEXT	ENDS
; Function compile flags: /Ogtp
; File D:\git\src\IBK\IBK_DRFN\ProjSrc\SrcChartEx\ChartOCX\ChartObject\BlockImp.cpp
;	COMDAT ?SetLogScale@CBlockImp@@UAEHH@Z
_TEXT	SEGMENT
_p_bLogScale$ = 8					; size = 4
?SetLogScale@CBlockImp@@UAEHH@Z PROC			; CBlockImp::SetLogScale, COMDAT
; _this$ = ecx

; 636  : {

  00000	55		 push	 ebp
  00001	8b ec		 mov	 ebp, esp

; 637  : 	m_blockData.SetVertScaleLogType( p_bLogScale ? true : false);

  00003	83 7d 08 00	 cmp	 DWORD PTR _p_bLogScale$[ebp], 0
  00007	0f 95 c0	 setne	 al
  0000a	83 c1 10	 add	 ecx, 16			; 00000010H
  0000d	0f b6 c0	 movzx	 eax, al
  00010	50		 push	 eax
  00011	e8 00 00 00 00	 call	 ?SetVertScaleLogType@CBlockData@@QAEX_N@Z ; CBlockData::SetVertScaleLogType

; 638  : 	return TRUE;

  00016	b8 01 00 00 00	 mov	 eax, 1

; 639  : }

  0001b	5d		 pop	 ebp
  0001c	c2 04 00	 ret	 4
?SetLogScale@CBlockImp@@UAEHH@Z ENDP			; CBlockImp::SetLogScale
_TEXT	ENDS
; Function compile flags: /Ogtp
; File D:\git\src\IBK\IBK_DRFN\ProjSrc\SrcChartEx\ChartOCX\ChartObject\BlockImp.cpp
;	COMDAT ?IsLogScale@CBlockImp@@UAEHXZ
_TEXT	SEGMENT
?IsLogScale@CBlockImp@@UAEHXZ PROC			; CBlockImp::IsLogScale, COMDAT
; _this$ = ecx

; 632  : 	return m_blockData.GetVertScaleLogType();

  00000	83 c1 10	 add	 ecx, 16			; 00000010H
  00003	e8 00 00 00 00	 call	 ?GetVertScaleLogType@CBlockData@@QAEAA_NXZ ; CBlockData::GetVertScaleLogType
  00008	0f b6 00	 movzx	 eax, BYTE PTR [eax]

; 633  : }

  0000b	c3		 ret	 0
?IsLogScale@CBlockImp@@UAEHXZ ENDP			; CBlockImp::IsLogScale
_TEXT	ENDS
; Function compile flags: /Ogtp
; File D:\git\src\IBK\IBK_DRFN\ProjSrc\SrcChartEx\ChartOCX\ChartObject\BlockImp.cpp
;	COMDAT ?GetYScaleMinMax@CBlockImp@@UAEHHAAN0@Z
_TEXT	SEGMENT
_minMax$ = -40						; size = 16
$T1 = -24						; size = 16
$T2 = -16						; size = 8
$T3 = -8						; size = 8
_p_nVScaleIndex$ = 8					; size = 4
_p_dMin$ = 12						; size = 4
_p_dMax$ = 16						; size = 4
?GetYScaleMinMax@CBlockImp@@UAEHHAAN0@Z PROC		; CBlockImp::GetYScaleMinMax, COMDAT
; _this$ = ecx

; 620  : {

  00000	55		 push	 ebp
  00001	8b ec		 mov	 ebp, esp
  00003	83 ec 28	 sub	 esp, 40			; 00000028H
  00006	56		 push	 esi

; 621  : 	//    min/max
; 622  : 	CDisplayDataMinMax minMax(0, 0);

  00007	8d 45 f8	 lea	 eax, DWORD PTR $T3[ebp]
  0000a	0f 57 c0	 xorps	 xmm0, xmm0
  0000d	50		 push	 eax
  0000e	8d 45 f0	 lea	 eax, DWORD PTR $T2[ebp]
  00011	f2 0f 11 45 f8	 movsd	 QWORD PTR $T3[ebp], xmm0
  00016	8b f1		 mov	 esi, ecx
  00018	f2 0f 11 45 f0	 movsd	 QWORD PTR $T2[ebp], xmm0
  0001d	50		 push	 eax
  0001e	8d 4d d8	 lea	 ecx, DWORD PTR _minMax$[ebp]
  00021	ff 15 00 00 00
	00		 call	 DWORD PTR __imp_??0CDisplayDataMinMax@@QAE@ABN0@Z

; 623  : 	CVertScaleGroup *pVertScaleGroup = m_vertScaleGroupList.GetVertScaleGroup( p_nVScaleIndex);

  00027	ff 75 08	 push	 DWORD PTR _p_nVScaleIndex$[ebp]
  0002a	8d 8e 90 00 00
	00		 lea	 ecx, DWORD PTR [esi+144]
  00030	e8 00 00 00 00	 call	 ?GetVertScaleGroup@CVertScaleGroupList@@QBEPAVCVertScaleGroup@@H@Z ; CVertScaleGroupList::GetVertScaleGroup
  00035	5e		 pop	 esi

; 624  : 	if( pVertScaleGroup) minMax = pVertScaleGroup->GetDisplayDataMinMax();

  00036	85 c0		 test	 eax, eax
  00038	74 15		 je	 SHORT $LN2@GetYScaleM
  0003a	8d 4d e8	 lea	 ecx, DWORD PTR $T1[ebp]
  0003d	51		 push	 ecx
  0003e	8b c8		 mov	 ecx, eax
  00040	e8 00 00 00 00	 call	 ?GetDisplayDataMinMax@CVertScaleGroup@@QBE?AVCDisplayDataMinMax@@XZ ; CVertScaleGroup::GetDisplayDataMinMax
  00045	50		 push	 eax
  00046	8d 4d d8	 lea	 ecx, DWORD PTR _minMax$[ebp]
  00049	ff 15 00 00 00
	00		 call	 DWORD PTR __imp_??4CDisplayDataMinMax@@QAEAAV0@ABV0@@Z
$LN2@GetYScaleM:

; 625  : 	p_dMin = minMax.GetDisplayMin();

  0004f	8d 4d d8	 lea	 ecx, DWORD PTR _minMax$[ebp]
  00052	ff 15 00 00 00
	00		 call	 DWORD PTR __imp_?GetDisplayMin@CDisplayDataMinMax@@QBENXZ
  00058	8b 45 0c	 mov	 eax, DWORD PTR _p_dMin$[ebp]

; 626  : 	p_dMax = minMax.GetDisplayMax();

  0005b	8d 4d d8	 lea	 ecx, DWORD PTR _minMax$[ebp]
  0005e	dd 18		 fstp	 QWORD PTR [eax]
  00060	ff 15 00 00 00
	00		 call	 DWORD PTR __imp_?GetDisplayMax@CDisplayDataMinMax@@QBENXZ
  00066	8b 45 10	 mov	 eax, DWORD PTR _p_dMax$[ebp]
  00069	dd 18		 fstp	 QWORD PTR [eax]

; 627  : 	return TRUE;

  0006b	b8 01 00 00 00	 mov	 eax, 1

; 628  : }

  00070	8b e5		 mov	 esp, ebp
  00072	5d		 pop	 ebp
  00073	c2 0c 00	 ret	 12			; 0000000cH
?GetYScaleMinMax@CBlockImp@@UAEHHAAN0@Z ENDP		; CBlockImp::GetYScaleMinMax
_TEXT	ENDS
; Function compile flags: /Ogtp
; File D:\git\src\IBK\IBK_DRFN\ProjSrc\SrcChartEx\ChartOCX\ChartObject\BlockImp.cpp
;	COMDAT ?GetVScaleMinMaxType@CBlockImp@@UAE?AW4VERTMINMAXTYPE@CScaleBaseData@@H@Z
_TEXT	SEGMENT
_p_nVScaleIndex$ = 8					; size = 4
?GetVScaleMinMaxType@CBlockImp@@UAE?AW4VERTMINMAXTYPE@CScaleBaseData@@H@Z PROC ; CBlockImp::GetVScaleMinMaxType, COMDAT
; _this$ = ecx

; 613  : {

  00000	55		 push	 ebp
  00001	8b ec		 mov	 ebp, esp

; 614  : 	CVertScaleGroup *pVertScaleGruop = m_vertScaleGroupList.GetVertScaleGroup( p_nVScaleIndex);

  00003	ff 75 08	 push	 DWORD PTR _p_nVScaleIndex$[ebp]
  00006	81 c1 90 00 00
	00		 add	 ecx, 144		; 00000090H
  0000c	e8 00 00 00 00	 call	 ?GetVertScaleGroup@CVertScaleGroupList@@QBEPAVCVertScaleGroup@@H@Z ; CVertScaleGroupList::GetVertScaleGroup

; 615  : 	if( !pVertScaleGruop) return CScaleBaseData::VERT_MINMAX_OF_VIEW;

  00011	85 c0		 test	 eax, eax
  00013	75 04		 jne	 SHORT $LN2@GetVScaleM

; 617  : }

  00015	5d		 pop	 ebp
  00016	c2 04 00	 ret	 4
$LN2@GetVScaleM:

; 616  : 	return pVertScaleGruop->GetVertScale().GetVertScaleMinMaxType();

  00019	8b c8		 mov	 ecx, eax
  0001b	e8 00 00 00 00	 call	 ?GetVertScale@CVertScaleGroup@@QAEAAVCVerticalScale@@XZ ; CVertScaleGroup::GetVertScale
  00020	8b 40 18	 mov	 eax, DWORD PTR [eax+24]

; 617  : }

  00023	5d		 pop	 ebp
  00024	c2 04 00	 ret	 4
?GetVScaleMinMaxType@CBlockImp@@UAE?AW4VERTMINMAXTYPE@CScaleBaseData@@H@Z ENDP ; CBlockImp::GetVScaleMinMaxType
_TEXT	ENDS
; Function compile flags: /Ogtp
; File D:\git\src\IBK\IBK_DRFN\ProjSrc\SrcChartEx\ChartOCX\ChartObject\BlockImp.cpp
;	COMDAT ?GetVScaleMinMaxSetting@CBlockImp@@UAEHHAAHAAW4VERTMINMAXTYPE@CScaleBaseData@@AAN2@Z
_TEXT	SEGMENT
_p_nVScaleGroupIndex$ = 8				; size = 4
_p_bIsLock$ = 12					; size = 4
_p_eMinMaxType$ = 16					; size = 4
_p_dMin$ = 20						; size = 4
_p_dMax$ = 24						; size = 4
?GetVScaleMinMaxSetting@CBlockImp@@UAEHHAAHAAW4VERTMINMAXTYPE@CScaleBaseData@@AAN2@Z PROC ; CBlockImp::GetVScaleMinMaxSetting, COMDAT
; _this$ = ecx

; 600  : {

  00000	55		 push	 ebp
  00001	8b ec		 mov	 ebp, esp

; 601  : 	CVertScaleGroup *pVScaleGroup = m_vertScaleGroupList.GetVertScaleGroup( p_nVScaleGroupIndex);

  00003	ff 75 08	 push	 DWORD PTR _p_nVScaleGroupIndex$[ebp]
  00006	81 c1 90 00 00
	00		 add	 ecx, 144		; 00000090H
  0000c	e8 00 00 00 00	 call	 ?GetVertScaleGroup@CVertScaleGroupList@@QBEPAVCVertScaleGroup@@H@Z ; CVertScaleGroupList::GetVertScaleGroup

; 602  : 	if( !pVScaleGroup) return FALSE;

  00011	85 c0		 test	 eax, eax
  00013	75 04		 jne	 SHORT $LN2@GetVScaleM

; 609  : }

  00015	5d		 pop	 ebp
  00016	c2 14 00	 ret	 20			; 00000014H
$LN2@GetVScaleM:

; 603  : 	CVerticalScale &vertScale = pVScaleGroup->GetVertScale();

  00019	8b c8		 mov	 ecx, eax
  0001b	e8 00 00 00 00	 call	 ?GetVertScale@CVertScaleGroup@@QAEAAVCVerticalScale@@XZ ; CVertScaleGroup::GetVertScale

; 604  : 	p_bIsLock		= vertScale.IsVertScaleMinMaxLock();

  00020	8b 4d 0c	 mov	 ecx, DWORD PTR _p_bIsLock$[ebp]
  00023	8b 50 14	 mov	 edx, DWORD PTR [eax+20]
  00026	89 11		 mov	 DWORD PTR [ecx], edx

; 605  : 	p_eMinMaxType	= vertScale.GetVertScaleMinMaxType();

  00028	8b 4d 10	 mov	 ecx, DWORD PTR _p_eMinMaxType$[ebp]
  0002b	8b 50 18	 mov	 edx, DWORD PTR [eax+24]
  0002e	89 11		 mov	 DWORD PTR [ecx], edx

; 606  : 	p_dMin			= vertScale.GetVertScaleMin();

  00030	f2 0f 10 40 20	 movsd	 xmm0, QWORD PTR [eax+32]
  00035	8b 4d 14	 mov	 ecx, DWORD PTR _p_dMin$[ebp]
  00038	f2 0f 11 01	 movsd	 QWORD PTR [ecx], xmm0

; 607  : 	p_dMax			= vertScale.GetVertScaleMax();

  0003c	f2 0f 10 40 28	 movsd	 xmm0, QWORD PTR [eax+40]
  00041	8b 45 18	 mov	 eax, DWORD PTR _p_dMax$[ebp]
  00044	f2 0f 11 00	 movsd	 QWORD PTR [eax], xmm0

; 608  : 	return TRUE;

  00048	b8 01 00 00 00	 mov	 eax, 1

; 609  : }

  0004d	5d		 pop	 ebp
  0004e	c2 14 00	 ret	 20			; 00000014H
?GetVScaleMinMaxSetting@CBlockImp@@UAEHHAAHAAW4VERTMINMAXTYPE@CScaleBaseData@@AAN2@Z ENDP ; CBlockImp::GetVScaleMinMaxSetting
_TEXT	ENDS
; Function compile flags: /Ogtp
; File D:\git\src\IBK\IBK_DRFN\ProjSrc\SrcChartEx\ChartOCX\ChartObject\BlockImp.cpp
; File D:\git\src\IBK\IBK_DRFN\ProjSrc\SrcChartEx\ChartOCX\Include_Chart\ScaleBaseData.h
; File D:\git\src\IBK\IBK_DRFN\ProjSrc\SrcChartEx\ChartOCX\ChartObject\BlockImp.cpp
;	COMDAT ?SetVScaleMinMaxSetting@CBlockImp@@UAEHHHW4VERTMINMAXTYPE@CScaleBaseData@@NN@Z
_TEXT	SEGMENT
_p_nVScaleGroupIndex$ = 8				; size = 4
_p_bIsLock$ = 12					; size = 4
_p_eMinMaxType$ = 16					; size = 4
_p_dMin$ = 20						; size = 8
_p_dMax$ = 28						; size = 8
?SetVScaleMinMaxSetting@CBlockImp@@UAEHHHW4VERTMINMAXTYPE@CScaleBaseData@@NN@Z PROC ; CBlockImp::SetVScaleMinMaxSetting, COMDAT
; _this$ = ecx

; 588  : {

  00000	55		 push	 ebp
  00001	8b ec		 mov	 ebp, esp

; 589  : 	CVertScaleGroup *pVScaleGroup = m_vertScaleGroupList.GetVertScaleGroup( p_nVScaleGroupIndex);

  00003	ff 75 08	 push	 DWORD PTR _p_nVScaleGroupIndex$[ebp]
  00006	81 c1 90 00 00
	00		 add	 ecx, 144		; 00000090H
  0000c	e8 00 00 00 00	 call	 ?GetVertScaleGroup@CVertScaleGroupList@@QBEPAVCVertScaleGroup@@H@Z ; CVertScaleGroupList::GetVertScaleGroup

; 590  : 	if( !pVScaleGroup) return FALSE;

  00011	85 c0		 test	 eax, eax
  00013	74 27		 je	 SHORT $LN12@SetVScaleM

; 591  : 	CVerticalScale &vertScale = pVScaleGroup->GetVertScale();

  00015	8b c8		 mov	 ecx, eax
  00017	e8 00 00 00 00	 call	 ?GetVertScale@CVertScaleGroup@@QAEAAVCVerticalScale@@XZ ; CVertScaleGroup::GetVertScale
; File D:\git\src\IBK\IBK_DRFN\ProjSrc\SrcChartEx\ChartOCX\Include_Chart\ScaleBaseData.h

; 208  : 	void							SetVertScaleMin( double p_dMin)											{	m_dMin = p_dMin;	}

  0001c	f2 0f 10 45 14	 movsd	 xmm0, QWORD PTR _p_dMin$[ebp]

; 202  : 	void							SetVertScaleMinMaxLock( BOOL p_bMinMaxLock)								{	m_bMinMaxLock = p_bMinMaxLock;	}

  00021	8b 4d 0c	 mov	 ecx, DWORD PTR _p_bIsLock$[ebp]

; 208  : 	void							SetVertScaleMin( double p_dMin)											{	m_dMin = p_dMin;	}

  00024	f2 0f 11 40 20	 movsd	 QWORD PTR [eax+32], xmm0

; 211  : 	void							SetVertScaleMax( double p_dMax)											{	m_dMax = p_dMax;	}

  00029	f2 0f 10 45 1c	 movsd	 xmm0, QWORD PTR _p_dMax$[ebp]

; 202  : 	void							SetVertScaleMinMaxLock( BOOL p_bMinMaxLock)								{	m_bMinMaxLock = p_bMinMaxLock;	}

  0002e	89 48 14	 mov	 DWORD PTR [eax+20], ecx

; 205  : 	void							SetVertScaleMinMaxType( CScaleBaseData::VERTMINMAXTYPE p_eMinMaxType) 	{	m_eMinMaxType = p_eMinMaxType;	}

  00031	8b 4d 10	 mov	 ecx, DWORD PTR _p_eMinMaxType$[ebp]
  00034	89 48 18	 mov	 DWORD PTR [eax+24], ecx

; 211  : 	void							SetVertScaleMax( double p_dMax)											{	m_dMax = p_dMax;	}

  00037	f2 0f 11 40 28	 movsd	 QWORD PTR [eax+40], xmm0
$LN12@SetVScaleM:
; File D:\git\src\IBK\IBK_DRFN\ProjSrc\SrcChartEx\ChartOCX\ChartObject\BlockImp.cpp

; 597  : }

  0003c	33 c0		 xor	 eax, eax
  0003e	5d		 pop	 ebp
  0003f	c2 1c 00	 ret	 28			; 0000001cH
?SetVScaleMinMaxSetting@CBlockImp@@UAEHHHW4VERTMINMAXTYPE@CScaleBaseData@@NN@Z ENDP ; CBlockImp::SetVScaleMinMaxSetting
_TEXT	ENDS
; Function compile flags: /Ogtp
; File D:\git\src\IBK\IBK_DRFN\ProjSrc\SrcChartEx\ChartOCX\ChartObject\BlockImp.cpp
;	COMDAT ?GetVScalePosition@CBlockImp@@UAE?AW4VERTSCALEPOSITION@CScaleBaseData@@H@Z
_TEXT	SEGMENT
_p_nVScaleGroupIndex$ = 8				; size = 4
?GetVScalePosition@CBlockImp@@UAE?AW4VERTSCALEPOSITION@CScaleBaseData@@H@Z PROC ; CBlockImp::GetVScalePosition, COMDAT
; _this$ = ecx

; 580  : {

  00000	55		 push	 ebp
  00001	8b ec		 mov	 ebp, esp
  00003	56		 push	 esi

; 581  : 	if( m_vertScaleGroupList.GetCount() < 1) return CScaleBaseData::VERT_NONE;

  00004	8d b1 90 00 00
	00		 lea	 esi, DWORD PTR [ecx+144]
  0000a	8b ce		 mov	 ecx, esi
  0000c	e8 00 00 00 00	 call	 ?GetCount@CVertScaleGroupList@@QBEHXZ ; CVertScaleGroupList::GetCount
  00011	83 f8 01	 cmp	 eax, 1
  00014	7c 22		 jl	 SHORT $LN5@GetVScaleP

; 582  : 	CVertScaleGroup *pVertScaleGroup = m_vertScaleGroupList.GetVertScaleGroup( p_nVScaleGroupIndex);

  00016	ff 75 08	 push	 DWORD PTR _p_nVScaleGroupIndex$[ebp]
  00019	8b ce		 mov	 ecx, esi
  0001b	e8 00 00 00 00	 call	 ?GetVertScaleGroup@CVertScaleGroupList@@QBEPAVCVertScaleGroup@@H@Z ; CVertScaleGroupList::GetVertScaleGroup

; 583  : 	if( !pVertScaleGroup) return CScaleBaseData::VERT_NONE;

  00020	85 c0		 test	 eax, eax
  00022	74 14		 je	 SHORT $LN5@GetVScaleP

; 584  : 	return pVertScaleGroup->GetVertScale().GetVertScalePosition();

  00024	8b c8		 mov	 ecx, eax
  00026	e8 00 00 00 00	 call	 ?GetVertScale@CVertScaleGroup@@QAEAAVCVerticalScale@@XZ ; CVertScaleGroup::GetVertScale
  0002b	8b c8		 mov	 ecx, eax
  0002d	ff 15 00 00 00
	00		 call	 DWORD PTR __imp_?GetVertScalePosition@CVerticalScale@@QBE?AW4VERTSCALEPOSITION@CScaleBaseData@@XZ
  00033	5e		 pop	 esi

; 585  : }

  00034	5d		 pop	 ebp
  00035	c2 04 00	 ret	 4
$LN5@GetVScaleP:

; 583  : 	if( !pVertScaleGroup) return CScaleBaseData::VERT_NONE;

  00038	b8 03 00 00 00	 mov	 eax, 3
  0003d	5e		 pop	 esi

; 585  : }

  0003e	5d		 pop	 ebp
  0003f	c2 04 00	 ret	 4
?GetVScalePosition@CBlockImp@@UAE?AW4VERTSCALEPOSITION@CScaleBaseData@@H@Z ENDP ; CBlockImp::GetVScalePosition
_TEXT	ENDS
; Function compile flags: /Ogtp
; File D:\git\src\IBK\IBK_DRFN\ProjSrc\SrcChartEx\ChartOCX\ChartObject\BlockImp.cpp
;	COMDAT ?GetFirstVisibleVScaleIndex@CBlockImp@@UAEHXZ
_TEXT	SEGMENT
_gsi$ = -64						; size = 64
?GetFirstVisibleVScaleIndex@CBlockImp@@UAEHXZ PROC	; CBlockImp::GetFirstVisibleVScaleIndex, COMDAT
; _this$ = ecx

; 573  : {

  00000	55		 push	 ebp
  00001	8b ec		 mov	 ebp, esp
  00003	83 ec 40	 sub	 esp, 64			; 00000040H
  00006	56		 push	 esi
  00007	8b f1		 mov	 esi, ecx
  00009	8d 4d c0	 lea	 ecx, DWORD PTR _gsi$[ebp]
  0000c	e8 00 00 00 00	 call	 ??0CGraphSearchInfo@@QAE@XZ ; CGraphSearchInfo::CGraphSearchInfo

; 574  : 	CGraphSearchInfo_VisibleSubGraph gsi;
; 575  : 	if( !m_vertScaleGroupList.FindGraph( &gsi)) return -1;

  00011	8d 45 c0	 lea	 eax, DWORD PTR _gsi$[ebp]
  00014	c7 45 c0 00 00
	00 00		 mov	 DWORD PTR _gsi$[ebp], OFFSET ??_7CGraphSearchInfo_VisibleSubGraph@@6B@
  0001b	50		 push	 eax
  0001c	8d 8e 90 00 00
	00		 lea	 ecx, DWORD PTR [esi+144]
  00022	e8 00 00 00 00	 call	 ?FindGraph@CVertScaleGroupList@@QBEHPAVCGraphSearchInfo@@@Z ; CVertScaleGroupList::FindGraph
  00027	8b 4d e0	 mov	 ecx, DWORD PTR _gsi$[ebp+32]
  0002a	83 ca ff	 or	 edx, -1
  0002d	85 c0		 test	 eax, eax
  0002f	5e		 pop	 esi
  00030	0f 44 ca	 cmove	 ecx, edx
  00033	8b c1		 mov	 eax, ecx

; 576  : 	return gsi.m_nVertScaleGroupIndex;
; 577  : }

  00035	8b e5		 mov	 esp, ebp
  00037	5d		 pop	 ebp
  00038	c3		 ret	 0
?GetFirstVisibleVScaleIndex@CBlockImp@@UAEHXZ ENDP	; CBlockImp::GetFirstVisibleVScaleIndex
_TEXT	ENDS
; Function compile flags: /Ogtp
; File D:\git\src\IBK\IBK_DRFN\ProjSrc\SrcChartEx\ChartOCX\ChartObject\BlockImp.cpp
;	COMDAT ?SetAllScaleGridType@CBlockImp@@QAEXW4SCALEGRIDTYPE@CScaleBaseData@@@Z
_TEXT	SEGMENT
_gridType$ = 8						; size = 4
?SetAllScaleGridType@CBlockImp@@QAEXW4SCALEGRIDTYPE@CScaleBaseData@@@Z PROC ; CBlockImp::SetAllScaleGridType, COMDAT
; _this$ = ecx

; 564  : {

  00000	55		 push	 ebp
  00001	8b ec		 mov	 ebp, esp
  00003	57		 push	 edi

; 565  : 	//  scale
; 566  : 	m_blockData.GetHorzScale().SetGridType(gridType);

  00004	ff 75 08	 push	 DWORD PTR _gridType$[ebp]
  00007	8b f9		 mov	 edi, ecx
  00009	8d 4f 10	 lea	 ecx, DWORD PTR [edi+16]
  0000c	e8 00 00 00 00	 call	 ?GetHorzScale@CBlockData@@QAEAAVCHorizontalScale@@XZ ; CBlockData::GetHorzScale
  00011	8b c8		 mov	 ecx, eax
  00013	ff 15 00 00 00
	00		 call	 DWORD PTR __imp_?SetGridType@CScale@@QAEXW4SCALEGRIDTYPE@CScaleBaseData@@@Z

; 567  : 	//  scale
; 568  : 	m_vertScaleGroupList.SetScaleGridType(gridType);

  00019	ff 75 08	 push	 DWORD PTR _gridType$[ebp]
  0001c	8d 8f 90 00 00
	00		 lea	 ecx, DWORD PTR [edi+144]
  00022	e8 00 00 00 00	 call	 ?SetScaleGridType@CVertScaleGroupList@@QAEXW4SCALEGRIDTYPE@CScaleBaseData@@@Z ; CVertScaleGroupList::SetScaleGridType
  00027	5f		 pop	 edi

; 569  : }

  00028	5d		 pop	 ebp
  00029	c2 04 00	 ret	 4
?SetAllScaleGridType@CBlockImp@@QAEXW4SCALEGRIDTYPE@CScaleBaseData@@@Z ENDP ; CBlockImp::SetAllScaleGridType
_TEXT	ENDS
; Function compile flags: /Ogtp
; File D:\git\src\IBK\IBK_DRFN\ProjSrc\SrcChartEx\ChartOCX\ChartObject\BlockImp.cpp
;	COMDAT ?GetHorizontalScaleHeight@CBlockImp@@UBEHXZ
_TEXT	SEGMENT
?GetHorizontalScaleHeight@CBlockImp@@UBEHXZ PROC	; CBlockImp::GetHorizontalScaleHeight, COMDAT
; _this$ = ecx

; 806  : 	return m_blockData.GetHorizontalScaleHeight();

  00000	83 c1 10	 add	 ecx, 16			; 00000010H
  00003	e9 00 00 00 00	 jmp	 ?GetHorizontalScaleHeight@CBlockData@@QBEHXZ ; CBlockData::GetHorizontalScaleHeight
?GetHorizontalScaleHeight@CBlockImp@@UBEHXZ ENDP	; CBlockImp::GetHorizontalScaleHeight
_TEXT	ENDS
; Function compile flags: /Ogtp
; File D:\git\src\IBK\IBK_DRFN\ProjSrc\SrcChartEx\ChartOCX\ChartObject\BlockImp.cpp
;	COMDAT ?GetScaleTextType@CBlockImp@@UAE?AW4TEXTCOMPARTTYPE@CScaleBaseData@@XZ
_TEXT	SEGMENT
?GetScaleTextType@CBlockImp@@UAE?AW4TEXTCOMPARTTYPE@CScaleBaseData@@XZ PROC ; CBlockImp::GetScaleTextType, COMDAT
; _this$ = ecx

; 545  : 	return m_blockData.GetHorzScale().GetScaleCompart().GetScaleTextType();

  00000	83 c1 10	 add	 ecx, 16			; 00000010H
  00003	e8 00 00 00 00	 call	 ?GetHorzScale@CBlockData@@QAEAAVCHorizontalScale@@XZ ; CBlockData::GetHorzScale
  00008	8b c8		 mov	 ecx, eax
  0000a	ff 15 00 00 00
	00		 call	 DWORD PTR __imp_?GetScaleCompart@CHorizontalScale@@QAEAAVCScaleCompart@@XZ
  00010	8b c8		 mov	 ecx, eax
  00012	ff 25 00 00 00
	00		 jmp	 DWORD PTR __imp_?GetScaleTextType@CScaleCompart@@QBE?AW4TEXTCOMPARTTYPE@CScaleBaseData@@XZ
?GetScaleTextType@CBlockImp@@UAE?AW4TEXTCOMPARTTYPE@CScaleBaseData@@XZ ENDP ; CBlockImp::GetScaleTextType
_TEXT	ENDS
; Function compile flags: /Ogtp
; File D:\git\src\IBK\IBK_DRFN\ProjSrc\SrcChartEx\ChartOCX\ChartObject\BlockImp.cpp
;	COMDAT ?GetViewHorzMinMax@CBlockImp@@QAE?AVCDisplayDataMinMax@@XZ
_TEXT	SEGMENT
_inputData$ = -44					; size = 16
$T2 = -28						; size = 8
_strScaleData$ = -20					; size = 4
$T3 = -16						; size = 4
__$EHRec$ = -12						; size = 12
___$ReturnUdt$ = 8					; size = 4
$T4 = 11						; size = 1
?GetViewHorzMinMax@CBlockImp@@QAE?AVCDisplayDataMinMax@@XZ PROC ; CBlockImp::GetViewHorzMinMax, COMDAT
; _this$ = ecx

; 550  : {

  00000	55		 push	 ebp
  00001	8b ec		 mov	 ebp, esp
  00003	6a ff		 push	 -1
  00005	68 00 00 00 00	 push	 __ehhandler$?GetViewHorzMinMax@CBlockImp@@QAE?AVCDisplayDataMinMax@@XZ
  0000a	64 a1 00 00 00
	00		 mov	 eax, DWORD PTR fs:0
  00010	50		 push	 eax
  00011	83 ec 20	 sub	 esp, 32			; 00000020H
  00014	56		 push	 esi
  00015	57		 push	 edi
  00016	a1 00 00 00 00	 mov	 eax, DWORD PTR ___security_cookie
  0001b	33 c5		 xor	 eax, ebp
  0001d	50		 push	 eax
  0001e	8d 45 f4	 lea	 eax, DWORD PTR __$EHRec$[ebp]
  00021	64 a3 00 00 00
	00		 mov	 DWORD PTR fs:0, eax
  00027	8b f9		 mov	 edi, ecx

; 551  : 	if(m_pMainBlockBaseData == NULL)

  00029	83 7f 04 00	 cmp	 DWORD PTR [edi+4], 0
  0002d	75 1f		 jne	 SHORT $LN2@GetViewHor

; 552  : 		return CDisplayDataMinMax();

  0002f	8b 4d 08	 mov	 ecx, DWORD PTR ___$ReturnUdt$[ebp]
  00032	ff 15 00 00 00
	00		 call	 DWORD PTR __imp_??0CDisplayDataMinMax@@QAE@XZ
  00038	8b 45 08	 mov	 eax, DWORD PTR ___$ReturnUdt$[ebp]

; 560  : }

  0003b	8b 4d f4	 mov	 ecx, DWORD PTR __$EHRec$[ebp]
  0003e	64 89 0d 00 00
	00 00		 mov	 DWORD PTR fs:0, ecx
  00045	59		 pop	 ecx
  00046	5f		 pop	 edi
  00047	5e		 pop	 esi
  00048	8b e5		 mov	 esp, ebp
  0004a	5d		 pop	 ebp
  0004b	c2 04 00	 ret	 4
$LN2@GetViewHor:

; 553  : 
; 554  : 	CString strScaleData;

  0004e	8d 4d ec	 lea	 ecx, DWORD PTR _strScaleData$[ebp]
  00051	ff 15 00 00 00
	00		 call	 DWORD PTR __imp_??0?$CStringT@DV?$StrTraitMFC_DLL@DV?$ChTraitsCRT@D@ATL@@@@@ATL@@QAE@XZ

; 555  : 
; 556  : 	CHorzDisplayDataMinMaxInputData inputData( GetHorzScaleDataPacket(), 

  00057	8d 45 f0	 lea	 eax, DWORD PTR $T3[ebp]
  0005a	c7 45 fc 00 00
	00 00		 mov	 DWORD PTR __$EHRec$[ebp+8], 0
  00061	50		 push	 eax
  00062	8d 4f 10	 lea	 ecx, DWORD PTR [edi+16]
  00065	e8 00 00 00 00	 call	 ?GetHorzScale@CBlockData@@QAEAAVCHorizontalScale@@XZ ; CBlockData::GetHorzScale
  0006a	8b c8		 mov	 ecx, eax
  0006c	ff 15 00 00 00
	00		 call	 DWORD PTR __imp_?GetScaleData@CScale@@QBE?AV?$CStringT@DV?$StrTraitMFC_DLL@DV?$ChTraitsCRT@D@ATL@@@@@ATL@@XZ
  00072	8b f0		 mov	 esi, eax
  00074	8b 4f 04	 mov	 ecx, DWORD PTR [edi+4]
  00077	8d 45 e4	 lea	 eax, DWORD PTR $T2[ebp]
  0007a	50		 push	 eax
  0007b	c6 45 fc 01	 mov	 BYTE PTR __$EHRec$[ebp+8], 1
  0007f	e8 00 00 00 00	 call	 ?GetDisplayAttributes@CMainBlockBaseData@@QBE?AVCDisplayAttributes@@XZ ; CMainBlockBaseData::GetDisplayAttributes
  00084	50		 push	 eax
  00085	8b 07		 mov	 eax, DWORD PTR [edi]
  00087	8b cf		 mov	 ecx, edi
  00089	56		 push	 esi
  0008a	ff 50 30	 call	 DWORD PTR [eax+48]
  0008d	50		 push	 eax
  0008e	8d 4d d4	 lea	 ecx, DWORD PTR _inputData$[ebp]
  00091	e8 00 00 00 00	 call	 ??0CHorzDisplayDataMinMaxInputData@@QAE@PAVCPacket@@ABV?$CStringT@DV?$StrTraitMFC_DLL@DV?$ChTraitsCRT@D@ATL@@@@@ATL@@ABVCDisplayAttributes@@@Z ; CHorzDisplayDataMinMaxInputData::CHorzDisplayDataMinMaxInputData
  00096	8d 4d f0	 lea	 ecx, DWORD PTR $T3[ebp]
  00099	c6 45 fc 03	 mov	 BYTE PTR __$EHRec$[ebp+8], 3
  0009d	ff 15 00 00 00
	00		 call	 DWORD PTR __imp_??1?$CStringT@DV?$StrTraitMFC_DLL@DV?$ChTraitsCRT@D@ATL@@@@@ATL@@QAE@XZ

; 557  : 		m_blockData.GetHorzScale().GetScaleData(), m_pMainBlockBaseData->GetDisplayAttributes());
; 558  : 	
; 559  : 	return CViewMinMaxCalculator().GetViewHorzMinMax(inputData);

  000a3	8b 75 08	 mov	 esi, DWORD PTR ___$ReturnUdt$[ebp]
  000a6	8d 45 d4	 lea	 eax, DWORD PTR _inputData$[ebp]
  000a9	50		 push	 eax
  000aa	56		 push	 esi
  000ab	8d 4d 0b	 lea	 ecx, DWORD PTR $T4[ebp]
  000ae	e8 00 00 00 00	 call	 ?GetViewHorzMinMax@CViewMinMaxCalculator@@QBE?AVCDisplayDataMinMax@@ABVCHorzDisplayDataMinMaxInputData@@@Z ; CViewMinMaxCalculator::GetViewHorzMinMax
  000b3	8d 4d d8	 lea	 ecx, DWORD PTR _inputData$[ebp+4]
  000b6	ff 15 00 00 00
	00		 call	 DWORD PTR __imp_??1?$CStringT@DV?$StrTraitMFC_DLL@DV?$ChTraitsCRT@D@ATL@@@@@ATL@@QAE@XZ
  000bc	8d 4d ec	 lea	 ecx, DWORD PTR _strScaleData$[ebp]
  000bf	ff 15 00 00 00
	00		 call	 DWORD PTR __imp_??1?$CStringT@DV?$StrTraitMFC_DLL@DV?$ChTraitsCRT@D@ATL@@@@@ATL@@QAE@XZ
  000c5	8b c6		 mov	 eax, esi

; 560  : }

  000c7	8b 4d f4	 mov	 ecx, DWORD PTR __$EHRec$[ebp]
  000ca	64 89 0d 00 00
	00 00		 mov	 DWORD PTR fs:0, ecx
  000d1	59		 pop	 ecx
  000d2	5f		 pop	 edi
  000d3	5e		 pop	 esi
  000d4	8b e5		 mov	 esp, ebp
  000d6	5d		 pop	 ebp
  000d7	c2 04 00	 ret	 4
_TEXT	ENDS
;	COMDAT text$x
text$x	SEGMENT
__unwindfunclet$?GetViewHorzMinMax@CBlockImp@@QAE?AVCDisplayDataMinMax@@XZ$0:
  00000	8d 4d ec	 lea	 ecx, DWORD PTR _strScaleData$[ebp]
  00003	ff 25 00 00 00
	00		 jmp	 DWORD PTR __imp_??1?$CStringT@DV?$StrTraitMFC_DLL@DV?$ChTraitsCRT@D@ATL@@@@@ATL@@QAE@XZ
__unwindfunclet$?GetViewHorzMinMax@CBlockImp@@QAE?AVCDisplayDataMinMax@@XZ$1:
  00009	8d 4d f0	 lea	 ecx, DWORD PTR $T3[ebp]
  0000c	ff 25 00 00 00
	00		 jmp	 DWORD PTR __imp_??1?$CStringT@DV?$StrTraitMFC_DLL@DV?$ChTraitsCRT@D@ATL@@@@@ATL@@QAE@XZ
__unwindfunclet$?GetViewHorzMinMax@CBlockImp@@QAE?AVCDisplayDataMinMax@@XZ$2:
  00012	8d 4d d4	 lea	 ecx, DWORD PTR _inputData$[ebp]
  00015	e9 00 00 00 00	 jmp	 ??1CHorzDisplayDataMinMaxInputData@@QAE@XZ
  0001a	cc		 int	 3
  0001b	cc		 int	 3
  0001c	cc		 int	 3
  0001d	cc		 int	 3
  0001e	cc		 int	 3
__ehhandler$?GetViewHorzMinMax@CBlockImp@@QAE?AVCDisplayDataMinMax@@XZ:
  0001f	90		 npad	 1
  00020	90		 npad	 1
  00021	8b 54 24 08	 mov	 edx, DWORD PTR [esp+8]
  00025	8d 42 0c	 lea	 eax, DWORD PTR [edx+12]
  00028	8b 4a d4	 mov	 ecx, DWORD PTR [edx-44]
  0002b	33 c8		 xor	 ecx, eax
  0002d	e8 00 00 00 00	 call	 @__security_check_cookie@4
  00032	b8 00 00 00 00	 mov	 eax, OFFSET __ehfuncinfo$?GetViewHorzMinMax@CBlockImp@@QAE?AVCDisplayDataMinMax@@XZ
  00037	e9 00 00 00 00	 jmp	 ___CxxFrameHandler3
text$x	ENDS
?GetViewHorzMinMax@CBlockImp@@QAE?AVCDisplayDataMinMax@@XZ ENDP ; CBlockImp::GetViewHorzMinMax
; Function compile flags: /Ogtp
; File D:\git\src\IBK\IBK_DRFN\ProjSrc\SrcChartEx\ChartOCX\ChartObject\BlockImp.cpp
;	COMDAT ?GetTimeCompart@CBlockImp@@UAE?AV?$CStringT@DV?$StrTraitMFC_DLL@DV?$ChTraitsCRT@D@ATL@@@@@ATL@@XZ
_TEXT	SEGMENT
___$ReturnUdt$ = 8					; size = 4
?GetTimeCompart@CBlockImp@@UAE?AV?$CStringT@DV?$StrTraitMFC_DLL@DV?$ChTraitsCRT@D@ATL@@@@@ATL@@XZ PROC ; CBlockImp::GetTimeCompart, COMDAT
; _this$ = ecx

; 538  : {

  00000	55		 push	 ebp
  00001	8b ec		 mov	 ebp, esp

; 539  : 	return m_blockData.GetHorzScale().GetScaleCompart().GetTimeCompart();

  00003	ff 75 08	 push	 DWORD PTR ___$ReturnUdt$[ebp]
  00006	83 c1 10	 add	 ecx, 16			; 00000010H
  00009	e8 00 00 00 00	 call	 ?GetHorzScale@CBlockData@@QAEAAVCHorizontalScale@@XZ ; CBlockData::GetHorzScale
  0000e	8b c8		 mov	 ecx, eax
  00010	ff 15 00 00 00
	00		 call	 DWORD PTR __imp_?GetScaleCompart@CHorizontalScale@@QAEAAVCScaleCompart@@XZ
  00016	8b c8		 mov	 ecx, eax
  00018	ff 15 00 00 00
	00		 call	 DWORD PTR __imp_?GetTimeCompart@CScaleCompart@@QBE?AV?$CStringT@DV?$StrTraitMFC_DLL@DV?$ChTraitsCRT@D@ATL@@@@@ATL@@XZ
  0001e	8b 45 08	 mov	 eax, DWORD PTR ___$ReturnUdt$[ebp]

; 540  : }

  00021	5d		 pop	 ebp
  00022	c2 04 00	 ret	 4
?GetTimeCompart@CBlockImp@@UAE?AV?$CStringT@DV?$StrTraitMFC_DLL@DV?$ChTraitsCRT@D@ATL@@@@@ATL@@XZ ENDP ; CBlockImp::GetTimeCompart
_TEXT	ENDS
; Function compile flags: /Ogtp
; File D:\git\src\IBK\IBK_DRFN\ProjSrc\SrcChartEx\ChartOCX\ChartObject\BlockImp.cpp
;	COMDAT ?GetDateCompart@CBlockImp@@UAE?AV?$CStringT@DV?$StrTraitMFC_DLL@DV?$ChTraitsCRT@D@ATL@@@@@ATL@@XZ
_TEXT	SEGMENT
___$ReturnUdt$ = 8					; size = 4
?GetDateCompart@CBlockImp@@UAE?AV?$CStringT@DV?$StrTraitMFC_DLL@DV?$ChTraitsCRT@D@ATL@@@@@ATL@@XZ PROC ; CBlockImp::GetDateCompart, COMDAT
; _this$ = ecx

; 533  : {

  00000	55		 push	 ebp
  00001	8b ec		 mov	 ebp, esp

; 534  : 	return m_blockData.GetHorzScale().GetScaleCompart().GetDateCompart();

  00003	ff 75 08	 push	 DWORD PTR ___$ReturnUdt$[ebp]
  00006	83 c1 10	 add	 ecx, 16			; 00000010H
  00009	e8 00 00 00 00	 call	 ?GetHorzScale@CBlockData@@QAEAAVCHorizontalScale@@XZ ; CBlockData::GetHorzScale
  0000e	8b c8		 mov	 ecx, eax
  00010	ff 15 00 00 00
	00		 call	 DWORD PTR __imp_?GetScaleCompart@CHorizontalScale@@QAEAAVCScaleCompart@@XZ
  00016	8b c8		 mov	 ecx, eax
  00018	ff 15 00 00 00
	00		 call	 DWORD PTR __imp_?GetDateCompart@CScaleCompart@@QBE?AV?$CStringT@DV?$StrTraitMFC_DLL@DV?$ChTraitsCRT@D@ATL@@@@@ATL@@XZ
  0001e	8b 45 08	 mov	 eax, DWORD PTR ___$ReturnUdt$[ebp]

; 535  : }

  00021	5d		 pop	 ebp
  00022	c2 04 00	 ret	 4
?GetDateCompart@CBlockImp@@UAE?AV?$CStringT@DV?$StrTraitMFC_DLL@DV?$ChTraitsCRT@D@ATL@@@@@ATL@@XZ ENDP ; CBlockImp::GetDateCompart
_TEXT	ENDS
; Function compile flags: /Ogtp
; File D:\git\src\IBK\IBK_DRFN\ProjSrc\SrcChartEx\ChartOCX\ChartObject\BlockImp.cpp
; File D:\git\src\IBK\IBK_DRFN\ProjSrc\SrcChartEx\ChartOCX\Include_Chart\BlockBaseData.h
; File D:\git\src\IBK\IBK_DRFN\ProjSrc\SrcChartEx\ChartOCX\ChartObject\BlockImp.cpp
;	COMDAT ?GetGraphDrwingRegion@CBlockImp@@UAE?AVCRect@@W4REGIONPOSITION@CBlock@@@Z
_TEXT	SEGMENT
$T1 = -76						; size = 4
$T2 = -72						; size = 68
__$ArrayPad$ = -4					; size = 4
___$ReturnUdt$ = 8					; size = 4
_p_rgnType$ = 12					; size = 4
?GetGraphDrwingRegion@CBlockImp@@UAE?AVCRect@@W4REGIONPOSITION@CBlock@@@Z PROC ; CBlockImp::GetGraphDrwingRegion, COMDAT
; _this$ = ecx

; 528  : {

  00000	55		 push	 ebp
  00001	8b ec		 mov	 ebp, esp
  00003	83 ec 4c	 sub	 esp, 76			; 0000004cH
  00006	a1 00 00 00 00	 mov	 eax, DWORD PTR ___security_cookie
  0000b	33 c5		 xor	 eax, ebp
  0000d	89 45 fc	 mov	 DWORD PTR __$ArrayPad$[ebp], eax
  00010	56		 push	 esi
  00011	8b 75 08	 mov	 esi, DWORD PTR ___$ReturnUdt$[ebp]

; 529  : 	return m_vertScaleGroupList.GetGraphRegions().GetDrawingRegion();

  00014	8d 45 b4	 lea	 eax, DWORD PTR $T1[ebp]
  00017	50		 push	 eax
  00018	6a ff		 push	 -1
  0001a	56		 push	 esi
  0001b	8d 45 b8	 lea	 eax, DWORD PTR $T2[ebp]
; File D:\git\src\IBK\IBK_DRFN\ProjSrc\SrcChartEx\ChartOCX\Include_Chart\BlockBaseData.h

; 43   : 	CGraphStyle(const int style) { m_nStyle = style; };

  0001e	c7 45 b4 ff ff
	ff ff		 mov	 DWORD PTR $T1[ebp], -1
; File D:\git\src\IBK\IBK_DRFN\ProjSrc\SrcChartEx\ChartOCX\ChartObject\BlockImp.cpp

; 529  : 	return m_vertScaleGroupList.GetGraphRegions().GetDrawingRegion();

  00025	50		 push	 eax
  00026	81 c1 90 00 00
	00		 add	 ecx, 144		; 00000090H
  0002c	e8 00 00 00 00	 call	 ?GetGraphRegions@CVertScaleGroupList@@QBE?AVCGraphRegions@@XZ ; CVertScaleGroupList::GetGraphRegions
  00031	8b c8		 mov	 ecx, eax
  00033	e8 00 00 00 00	 call	 ?GetDrawingRegion@CGraphRegions@@QBE?AVCRect@@W4GRAPHTYPE@CGraphBaseData@@ABVCGraphStyle@@@Z ; CGraphRegions::GetDrawingRegion

; 530  : }

  00038	8b 4d fc	 mov	 ecx, DWORD PTR __$ArrayPad$[ebp]
  0003b	8b c6		 mov	 eax, esi
  0003d	33 cd		 xor	 ecx, ebp
  0003f	5e		 pop	 esi
  00040	e8 00 00 00 00	 call	 @__security_check_cookie@4
  00045	8b e5		 mov	 esp, ebp
  00047	5d		 pop	 ebp
  00048	c2 08 00	 ret	 8
?GetGraphDrwingRegion@CBlockImp@@UAE?AVCRect@@W4REGIONPOSITION@CBlock@@@Z ENDP ; CBlockImp::GetGraphDrwingRegion
_TEXT	ENDS
; Function compile flags: /Ogtp
; File D:\git\src\IBK\IBK_DRFN\ProjSrc\SrcChartEx\ChartOCX\ChartObject\BlockImp.cpp
;	COMDAT ?GetVertScaleRegion@CBlockImp@@UAEHAAVCRect@@0@Z
_TEXT	SEGMENT
$T1 = -184						; size = 132
_gRegions$ = -52					; size = 32
$T2 = -20						; size = 16
$T3 = -20						; size = 16
__$ArrayPad$ = -4					; size = 4
_p_rctLeftScale$ = 8					; size = 4
_p_rctRightScale$ = 12					; size = 4
?GetVertScaleRegion@CBlockImp@@UAEHAAVCRect@@0@Z PROC	; CBlockImp::GetVertScaleRegion, COMDAT
; _this$ = ecx

; 521  : {

  00000	55		 push	 ebp
  00001	8b ec		 mov	 ebp, esp
  00003	81 ec b8 00 00
	00		 sub	 esp, 184		; 000000b8H
  00009	a1 00 00 00 00	 mov	 eax, DWORD PTR ___security_cookie
  0000e	33 c5		 xor	 eax, ebp
  00010	89 45 fc	 mov	 DWORD PTR __$ArrayPad$[ebp], eax
  00013	56		 push	 esi
  00014	8b 75 08	 mov	 esi, DWORD PTR _p_rctLeftScale$[ebp]

; 522  : 	CVertScaleRegion gRegions	= GetVertScaleGroupList().GetDrawingRegion().GetVertScaleRegion();

  00017	8d 45 cc	 lea	 eax, DWORD PTR _gRegions$[ebp]
  0001a	57		 push	 edi
  0001b	8b 7d 0c	 mov	 edi, DWORD PTR _p_rctRightScale$[ebp]
  0001e	81 c1 90 00 00
	00		 add	 ecx, 144		; 00000090H
  00024	50		 push	 eax
  00025	8d 85 48 ff ff
	ff		 lea	 eax, DWORD PTR $T1[ebp]
  0002b	50		 push	 eax
  0002c	e8 00 00 00 00	 call	 ?GetDrawingRegion@CVertScaleGroupList@@QBE?AVCDrawingRegion@@XZ ; CVertScaleGroupList::GetDrawingRegion
  00031	8b c8		 mov	 ecx, eax
  00033	e8 00 00 00 00	 call	 ?GetVertScaleRegion@CDrawingRegion@@QBE?AVCVertScaleRegion@@XZ ; CDrawingRegion::GetVertScaleRegion

; 523  : 	p_rctLeftScale				= gRegions.GetLeftScaleRegion();

  00038	8d 45 ec	 lea	 eax, DWORD PTR $T3[ebp]
  0003b	50		 push	 eax
  0003c	8d 4d cc	 lea	 ecx, DWORD PTR _gRegions$[ebp]
  0003f	ff 15 00 00 00
	00		 call	 DWORD PTR __imp_?GetLeftScaleRegion@CVertScaleRegion@@QBE?AVCRect@@XZ

; 524  : 	p_rctRightScale				= gRegions.GetRightScaleRegion();

  00045	8d 4d cc	 lea	 ecx, DWORD PTR _gRegions$[ebp]
  00048	0f 10 00	 movups	 xmm0, XMMWORD PTR [eax]
  0004b	8d 45 ec	 lea	 eax, DWORD PTR $T2[ebp]
  0004e	50		 push	 eax
  0004f	0f 11 06	 movups	 XMMWORD PTR [esi], xmm0
  00052	ff 15 00 00 00
	00		 call	 DWORD PTR __imp_?GetRightScaleRegion@CVertScaleRegion@@QBE?AVCRect@@XZ

; 525  : 	return TRUE;
; 526  : }

  00058	8b 4d fc	 mov	 ecx, DWORD PTR __$ArrayPad$[ebp]
  0005b	33 cd		 xor	 ecx, ebp
  0005d	0f 10 00	 movups	 xmm0, XMMWORD PTR [eax]
  00060	b8 01 00 00 00	 mov	 eax, 1
  00065	0f 11 07	 movups	 XMMWORD PTR [edi], xmm0
  00068	5f		 pop	 edi
  00069	5e		 pop	 esi
  0006a	e8 00 00 00 00	 call	 @__security_check_cookie@4
  0006f	8b e5		 mov	 esp, ebp
  00071	5d		 pop	 ebp
  00072	c2 08 00	 ret	 8
?GetVertScaleRegion@CBlockImp@@UAEHAAVCRect@@0@Z ENDP	; CBlockImp::GetVertScaleRegion
_TEXT	ENDS
; Function compile flags: /Ogtp
; File D:\git\src\IBK\IBK_DRFN\ProjSrc\SrcChartEx\ChartOCX\ChartObject\BlockImp.cpp
;	COMDAT ?GetHorzScaleRegion@CBlockImp@@UAEHAAVCRect@@0@Z
_TEXT	SEGMENT
$T1 = -184						; size = 132
_gRegions$ = -52					; size = 32
$T2 = -20						; size = 16
$T3 = -20						; size = 16
__$ArrayPad$ = -4					; size = 4
_p_rctTopScale$ = 8					; size = 4
_p_rctBottomScale$ = 12					; size = 4
?GetHorzScaleRegion@CBlockImp@@UAEHAAVCRect@@0@Z PROC	; CBlockImp::GetHorzScaleRegion, COMDAT
; _this$ = ecx

; 514  : {

  00000	55		 push	 ebp
  00001	8b ec		 mov	 ebp, esp
  00003	81 ec b8 00 00
	00		 sub	 esp, 184		; 000000b8H
  00009	a1 00 00 00 00	 mov	 eax, DWORD PTR ___security_cookie
  0000e	33 c5		 xor	 eax, ebp
  00010	89 45 fc	 mov	 DWORD PTR __$ArrayPad$[ebp], eax
  00013	56		 push	 esi
  00014	8b 75 08	 mov	 esi, DWORD PTR _p_rctTopScale$[ebp]

; 515  : 	CHorzScaleRegion gRegions	= GetVertScaleGroupList().GetDrawingRegion().GetHorzScaleRegion();

  00017	8d 45 cc	 lea	 eax, DWORD PTR _gRegions$[ebp]
  0001a	57		 push	 edi
  0001b	8b 7d 0c	 mov	 edi, DWORD PTR _p_rctBottomScale$[ebp]
  0001e	81 c1 90 00 00
	00		 add	 ecx, 144		; 00000090H
  00024	50		 push	 eax
  00025	8d 85 48 ff ff
	ff		 lea	 eax, DWORD PTR $T1[ebp]
  0002b	50		 push	 eax
  0002c	e8 00 00 00 00	 call	 ?GetDrawingRegion@CVertScaleGroupList@@QBE?AVCDrawingRegion@@XZ ; CVertScaleGroupList::GetDrawingRegion
  00031	8b c8		 mov	 ecx, eax
  00033	e8 00 00 00 00	 call	 ?GetHorzScaleRegion@CDrawingRegion@@QBE?AVCHorzScaleRegion@@XZ ; CDrawingRegion::GetHorzScaleRegion

; 516  : 	p_rctTopScale				= gRegions.GetTopScaleRegion();

  00038	8d 45 ec	 lea	 eax, DWORD PTR $T3[ebp]
  0003b	50		 push	 eax
  0003c	8d 4d cc	 lea	 ecx, DWORD PTR _gRegions$[ebp]
  0003f	ff 15 00 00 00
	00		 call	 DWORD PTR __imp_?GetTopScaleRegion@CHorzScaleRegion@@QBE?AVCRect@@XZ

; 517  : 	p_rctBottomScale			= gRegions.GetBottomScaleRegion();

  00045	8d 4d cc	 lea	 ecx, DWORD PTR _gRegions$[ebp]
  00048	0f 10 00	 movups	 xmm0, XMMWORD PTR [eax]
  0004b	8d 45 ec	 lea	 eax, DWORD PTR $T2[ebp]
  0004e	50		 push	 eax
  0004f	0f 11 06	 movups	 XMMWORD PTR [esi], xmm0
  00052	ff 15 00 00 00
	00		 call	 DWORD PTR __imp_?GetBottomScaleRegion@CHorzScaleRegion@@QBE?AVCRect@@XZ

; 518  : 	return TRUE;
; 519  : }

  00058	8b 4d fc	 mov	 ecx, DWORD PTR __$ArrayPad$[ebp]
  0005b	33 cd		 xor	 ecx, ebp
  0005d	0f 10 00	 movups	 xmm0, XMMWORD PTR [eax]
  00060	b8 01 00 00 00	 mov	 eax, 1
  00065	0f 11 07	 movups	 XMMWORD PTR [edi], xmm0
  00068	5f		 pop	 edi
  00069	5e		 pop	 esi
  0006a	e8 00 00 00 00	 call	 @__security_check_cookie@4
  0006f	8b e5		 mov	 esp, ebp
  00071	5d		 pop	 ebp
  00072	c2 08 00	 ret	 8
?GetHorzScaleRegion@CBlockImp@@UAEHAAVCRect@@0@Z ENDP	; CBlockImp::GetHorzScaleRegion
_TEXT	ENDS
; Function compile flags: /Ogtp
; File D:\git\src\IBK\IBK_DRFN\ProjSrc\SrcChartEx\ChartOCX\ChartObject\BlockImp.cpp
;	COMDAT ?GetGraphRegions@CBlockImp@@UAEHAAVCRect@@0@Z
_TEXT	SEGMENT
_gRegions$ = -204					; size = 68
$T1 = -136						; size = 132
__$ArrayPad$ = -4					; size = 4
_p_rctNoFrame$ = 8					; size = 4
_p_rctNoFrameAndMargin$ = 12				; size = 4
?GetGraphRegions@CBlockImp@@UAEHAAVCRect@@0@Z PROC	; CBlockImp::GetGraphRegions, COMDAT
; _this$ = ecx

; 507  : {

  00000	55		 push	 ebp
  00001	8b ec		 mov	 ebp, esp
  00003	81 ec cc 00 00
	00		 sub	 esp, 204		; 000000ccH
  00009	a1 00 00 00 00	 mov	 eax, DWORD PTR ___security_cookie
  0000e	33 c5		 xor	 eax, ebp
  00010	89 45 fc	 mov	 DWORD PTR __$ArrayPad$[ebp], eax
  00013	56		 push	 esi
  00014	8b 75 08	 mov	 esi, DWORD PTR _p_rctNoFrame$[ebp]

; 508  : 	CGraphRegions gRegions	= GetVertScaleGroupList().GetDrawingRegion().GetGraphRegions();

  00017	8d 85 78 ff ff
	ff		 lea	 eax, DWORD PTR $T1[ebp]
  0001d	57		 push	 edi
  0001e	8b 7d 0c	 mov	 edi, DWORD PTR _p_rctNoFrameAndMargin$[ebp]
  00021	81 c1 90 00 00
	00		 add	 ecx, 144		; 00000090H
  00027	50		 push	 eax
  00028	e8 00 00 00 00	 call	 ?GetDrawingRegion@CVertScaleGroupList@@QBE?AVCDrawingRegion@@XZ ; CVertScaleGroupList::GetDrawingRegion
  0002d	8b c8		 mov	 ecx, eax
  0002f	e8 00 00 00 00	 call	 ?GetGraphRegions@CDrawingRegion@@QAEAAVCGraphRegions@@XZ ; CDrawingRegion::GetGraphRegions

; 509  : 	p_rctNoFrame			= gRegions.GetNoFrameRegion();
; 510  : 	p_rctNoFrameAndMargin	= gRegions.GetNoFrameRegionAndMargin();
; 511  : 	return TRUE;
; 512  : }

  00034	8b 4d fc	 mov	 ecx, DWORD PTR __$ArrayPad$[ebp]
  00037	33 cd		 xor	 ecx, ebp
  00039	0f 10 00	 movups	 xmm0, XMMWORD PTR [eax]
  0003c	0f 11 85 34 ff
	ff ff		 movups	 XMMWORD PTR _gRegions$[ebp], xmm0
  00043	0f 10 40 10	 movups	 xmm0, XMMWORD PTR [eax+16]
  00047	0f 11 85 44 ff
	ff ff		 movups	 XMMWORD PTR _gRegions$[ebp+16], xmm0
  0004e	0f 10 40 20	 movups	 xmm0, XMMWORD PTR [eax+32]
  00052	0f 11 85 54 ff
	ff ff		 movups	 XMMWORD PTR _gRegions$[ebp+32], xmm0
  00059	0f 10 40 30	 movups	 xmm0, XMMWORD PTR [eax+48]
  0005d	b8 01 00 00 00	 mov	 eax, 1
  00062	0f 11 85 64 ff
	ff ff		 movups	 XMMWORD PTR _gRegions$[ebp+48], xmm0
  00069	0f 10 85 48 ff
	ff ff		 movups	 xmm0, XMMWORD PTR _gRegions$[ebp+20]
  00070	0f 11 06	 movups	 XMMWORD PTR [esi], xmm0
  00073	0f 10 85 58 ff
	ff ff		 movups	 xmm0, XMMWORD PTR _gRegions$[ebp+36]
  0007a	0f 11 07	 movups	 XMMWORD PTR [edi], xmm0
  0007d	5f		 pop	 edi
  0007e	5e		 pop	 esi
  0007f	e8 00 00 00 00	 call	 @__security_check_cookie@4
  00084	8b e5		 mov	 esp, ebp
  00086	5d		 pop	 ebp
  00087	c2 08 00	 ret	 8
?GetGraphRegions@CBlockImp@@UAEHAAVCRect@@0@Z ENDP	; CBlockImp::GetGraphRegions
_TEXT	ENDS
; Function compile flags: /Ogtp
; File D:\git\src\IBK\IBK_DRFN\ProjSrc\SrcChartEx\ChartOCX\ChartObject\BlockImp.cpp
;	COMDAT ?GetVertScaleGroupList@CBlockImp@@QBEABVCVertScaleGroupList@@XZ
_TEXT	SEGMENT
?GetVertScaleGroupList@CBlockImp@@QBEABVCVertScaleGroupList@@XZ PROC ; CBlockImp::GetVertScaleGroupList, COMDAT
; _this$ = ecx

; 502  : 	return m_vertScaleGroupList;

  00000	8d 81 90 00 00
	00		 lea	 eax, DWORD PTR [ecx+144]

; 503  : }

  00006	c3		 ret	 0
?GetVertScaleGroupList@CBlockImp@@QBEABVCVertScaleGroupList@@XZ ENDP ; CBlockImp::GetVertScaleGroupList
_TEXT	ENDS
; Function compile flags: /Ogtp
; File D:\git\src\IBK\IBK_DRFN\ProjSrc\SrcChartEx\ChartOCX\ChartObject\BlockImp.cpp
;	COMDAT ?GetVertScaleGroupList@CBlockImp@@QAEAAVCVertScaleGroupList@@XZ
_TEXT	SEGMENT
?GetVertScaleGroupList@CBlockImp@@QAEAAVCVertScaleGroupList@@XZ PROC ; CBlockImp::GetVertScaleGroupList, COMDAT
; _this$ = ecx

; 498  : 	return m_vertScaleGroupList;

  00000	8d 81 90 00 00
	00		 lea	 eax, DWORD PTR [ecx+144]

; 499  : }

  00006	c3		 ret	 0
?GetVertScaleGroupList@CBlockImp@@QAEAAVCVertScaleGroupList@@XZ ENDP ; CBlockImp::GetVertScaleGroupList
_TEXT	ENDS
; Function compile flags: /Ogtp
; File D:\git\src\IBK\IBK_DRFN\ProjSrc\SrcChartEx\ChartOCX\ChartObject\BlockImp.cpp
;	COMDAT ?GetBlockData@CBlockImp@@QBEABVCBlockData@@XZ
_TEXT	SEGMENT
?GetBlockData@CBlockImp@@QBEABVCBlockData@@XZ PROC	; CBlockImp::GetBlockData, COMDAT
; _this$ = ecx

; 492  : 	return m_blockData;

  00000	8d 41 10	 lea	 eax, DWORD PTR [ecx+16]

; 493  : }

  00003	c3		 ret	 0
?GetBlockData@CBlockImp@@QBEABVCBlockData@@XZ ENDP	; CBlockImp::GetBlockData
_TEXT	ENDS
; Function compile flags: /Ogtp
; File D:\git\src\IBK\IBK_DRFN\ProjSrc\SrcChartEx\ChartOCX\ChartObject\BlockImp.cpp
;	COMDAT ?GetBlockData@CBlockImp@@QAEAAVCBlockData@@XZ
_TEXT	SEGMENT
?GetBlockData@CBlockImp@@QAEAAVCBlockData@@XZ PROC	; CBlockImp::GetBlockData, COMDAT
; _this$ = ecx

; 488  : 	return m_blockData;

  00000	8d 41 10	 lea	 eax, DWORD PTR [ecx+16]

; 489  : }

  00003	c3		 ret	 0
?GetBlockData@CBlockImp@@QAEAAVCBlockData@@XZ ENDP	; CBlockImp::GetBlockData
_TEXT	ENDS
; Function compile flags: /Ogtp
; File D:\git\src\IBK\IBK_DRFN\ProjSrc\SrcChartEx\ChartOCX\ChartObject\BlockImp.cpp
;	COMDAT ?GetBlocksColumn@CBlockImp@@QAEPAVCBlocksColumn@@XZ
_TEXT	SEGMENT
?GetBlocksColumn@CBlockImp@@QAEPAVCBlocksColumn@@XZ PROC ; CBlockImp::GetBlocksColumn, COMDAT
; _this$ = ecx

; 482  : 	return m_pBlocksColumn;

  00000	8b 41 08	 mov	 eax, DWORD PTR [ecx+8]

; 483  : }

  00003	c3		 ret	 0
?GetBlocksColumn@CBlockImp@@QAEPAVCBlocksColumn@@XZ ENDP ; CBlockImp::GetBlocksColumn
_TEXT	ENDS
; Function compile flags: /Ogtp
; File D:\git\src\IBK\IBK_DRFN\ProjSrc\SrcChartEx\ChartOCX\ChartObject\BlockImp.cpp
;	COMDAT ?GetMainBlock@CBlockImp@@QBEPAVCMainBlockImp@@XZ
_TEXT	SEGMENT
?GetMainBlock@CBlockImp@@QBEPAVCMainBlockImp@@XZ PROC	; CBlockImp::GetMainBlock, COMDAT
; _this$ = ecx

; 475  : 	if( !m_pMainBlockBaseData) return NULL;

  00000	8b 49 04	 mov	 ecx, DWORD PTR [ecx+4]
  00003	85 c9		 test	 ecx, ecx
  00005	75 03		 jne	 SHORT $LN2@GetMainBlo
  00007	33 c0		 xor	 eax, eax

; 477  : }

  00009	c3		 ret	 0
$LN2@GetMainBlo:

; 476  : 	return m_pMainBlockBaseData->GetMainAttributes().GetMainBlockImpl();

  0000a	e8 00 00 00 00	 call	 ?GetMainAttributes@CMainBlockBaseData@@QAEAAVCMainAttributes@@XZ ; CMainBlockBaseData::GetMainAttributes
  0000f	8b c8		 mov	 ecx, eax
  00011	e9 00 00 00 00	 jmp	 ?GetMainBlockImpl@CMainAttributes@@QBEPAVCMainBlockImp@@XZ ; CMainAttributes::GetMainBlockImpl
?GetMainBlock@CBlockImp@@QBEPAVCMainBlockImp@@XZ ENDP	; CBlockImp::GetMainBlock
_TEXT	ENDS
; Function compile flags: /Ogtp
; File D:\git\src\IBK\IBK_DRFN\ProjSrc\SrcChartEx\ChartOCX\ChartObject\BlockImp.cpp
;	COMDAT ?DrawAllGraphs@CBlockImp@@QAEXPAVCDC@@ABVCRect@@@Z
_TEXT	SEGMENT
_pDC$ = 8						; size = 4
_blockRegion$ = 12					; size = 4
?DrawAllGraphs@CBlockImp@@QAEXPAVCDC@@ABVCRect@@@Z PROC	; CBlockImp::DrawAllGraphs, COMDAT
; _this$ = ecx

; 460  : {

  00000	55		 push	 ebp
  00001	8b ec		 mov	 ebp, esp
  00003	56		 push	 esi

; 461  : 	//sy test
; 462  : 	CDataConversion::SelectClipRegion(pDC, blockRegion);

  00004	8b 75 08	 mov	 esi, DWORD PTR _pDC$[ebp]
  00007	57		 push	 edi
  00008	ff 75 0c	 push	 DWORD PTR _blockRegion$[ebp]
  0000b	8b f9		 mov	 edi, ecx
  0000d	56		 push	 esi
  0000e	e8 00 00 00 00	 call	 ?SelectClipRegion@CDataConversion@@SAXPAVCDC@@ABVCRect@@@Z ; CDataConversion::SelectClipRegion
  00013	83 c4 08	 add	 esp, 8

; 463  : 
; 464  : 	m_vertScaleGroupList.DrawGraphs( pDC, m_blockData);

  00016	8d 47 10	 lea	 eax, DWORD PTR [edi+16]
  00019	8d 8f 90 00 00
	00		 lea	 ecx, DWORD PTR [edi+144]
  0001f	50		 push	 eax
  00020	56		 push	 esi
  00021	e8 00 00 00 00	 call	 ?DrawGraphs@CVertScaleGroupList@@QAEXPAVCDC@@ABVCBlockData@@@Z ; CVertScaleGroupList::DrawGraphs

; 465  : 
; 466  : 	CDataConversion::SelectClipRegion(pDC);

  00026	56		 push	 esi
  00027	e8 00 00 00 00	 call	 ?SelectClipRegion@CDataConversion@@SAXPAVCDC@@@Z ; CDataConversion::SelectClipRegion
  0002c	83 c4 04	 add	 esp, 4
  0002f	5f		 pop	 edi
  00030	5e		 pop	 esi

; 467  : }

  00031	5d		 pop	 ebp
  00032	c2 08 00	 ret	 8
?DrawAllGraphs@CBlockImp@@QAEXPAVCDC@@ABVCRect@@@Z ENDP	; CBlockImp::DrawAllGraphs
_TEXT	ENDS
; Function compile flags: /Ogtp
; File D:\git\src\IBK\IBK_DRFN\ProjSrc\SrcChartEx\ChartOCX\ChartObject\BlockImp.cpp
; File C:\Program Files (x86)\Microsoft Visual Studio\2019\Community\VC\Tools\MSVC\14.29.30133\atlmfc\include\atlsimpstr.h
; File D:\git\src\IBK\IBK_DRFN\ProjSrc\SrcChartEx\ChartOCX\ChartObject\BlockImp.cpp
; File D:\git\src\IBK\IBK_DRFN\ProjSrc\SrcChartEx\ChartOCX\ChartObject\DrawingRegionCalculator.h
; File D:\git\src\IBK\IBK_DRFN\ProjSrc\SrcChartEx\ChartOCX\ChartObject\BlockImp.cpp
; File D:\git\src\IBK\IBK_DRFN\ProjSrc\SrcChartEx\ChartOCX\ChartObject\DrawingRegionCalculator.h
; File D:\git\src\IBK\IBK_DRFN\ProjSrc\SrcChartEx\ChartOCX\ChartObject\BlockImp.cpp
;	COMDAT ?CalculateDrawingRegion@CBlockImp@@QAEXPAVCDC@@ABVCRect@@ABVCVertScaleRegionWidth@@@Z
_TEXT	SEGMENT
_gsi2$ = -508						; size = 68
_gsi$ = -440						; size = 68
_gsi$2 = -372						; size = 76
_gsi$3 = -360						; size = 64
_calData$4 = -296					; size = 20
_horzScaleRegionHeight$ = -276				; size = 8
_inputData$5 = -268					; size = 16
$T6 = -260						; size = 8
$T7 = -260						; size = 8
$T8 = -252						; size = 16
$T9 = -244						; size = 8
_bIsGraphTextDraw$ = -240				; size = 1
_blockRegion$GSCopy$1$ = -236				; size = 4
_vertScaleRegionWidth$GSCopy$1$ = -232			; size = 4
$T10 = -228						; size = 8
$T11 = -228						; size = 8
_bIsViewableVertScaleExist$ = -224			; size = 1
_pDC$GSCopy$1$ = -220					; size = 4
$T12 = -214						; size = 1
$T13 = -213						; size = 1
_bIsGraphTitleDrawingGraph$ = -212			; size = 1
$T14 = -212						; size = 4
$T15 = -212						; size = 4
$T16 = -212						; size = 4
_nTopHorzScaleRegionHeight$1$ = -208			; size = 4
_bIsGraphTextDrawCheck$ = -208				; size = 1
_strScaleData$17 = -208					; size = 4
_drawingRegion$ = -204					; size = 132
_drawingRegionCalData$ = -72				; size = 56
__$ArrayPad$ = -16					; size = 4
__$EHRec$ = -12						; size = 12
_pDC$ = 8						; size = 4
_blockRegion$ = 12					; size = 4
_vertScaleRegionWidth$ = 16				; size = 4
?CalculateDrawingRegion@CBlockImp@@QAEXPAVCDC@@ABVCRect@@ABVCVertScaleRegionWidth@@@Z PROC ; CBlockImp::CalculateDrawingRegion, COMDAT
; _this$ = ecx

; 345  : {

  00000	55		 push	 ebp
  00001	8b ec		 mov	 ebp, esp
  00003	6a ff		 push	 -1
  00005	68 00 00 00 00	 push	 __ehhandler$?CalculateDrawingRegion@CBlockImp@@QAEXPAVCDC@@ABVCRect@@ABVCVertScaleRegionWidth@@@Z
  0000a	64 a1 00 00 00
	00		 mov	 eax, DWORD PTR fs:0
  00010	50		 push	 eax
  00011	81 ec f0 01 00
	00		 sub	 esp, 496		; 000001f0H
  00017	a1 00 00 00 00	 mov	 eax, DWORD PTR ___security_cookie
  0001c	33 c5		 xor	 eax, ebp
  0001e	89 45 f0	 mov	 DWORD PTR __$ArrayPad$[ebp], eax
  00021	53		 push	 ebx
  00022	56		 push	 esi
  00023	57		 push	 edi
  00024	50		 push	 eax
  00025	8d 45 f4	 lea	 eax, DWORD PTR __$EHRec$[ebp]
  00028	64 a3 00 00 00
	00		 mov	 DWORD PTR fs:0, eax
  0002e	8b f9		 mov	 edi, ecx

; 346  : 	if( !m_pMainBlockBaseData) return;

  00030	83 7f 04 00	 cmp	 DWORD PTR [edi+4], 0
  00034	8b 45 08	 mov	 eax, DWORD PTR _pDC$[ebp]
  00037	89 85 24 ff ff
	ff		 mov	 DWORD PTR _pDC$GSCopy$1$[ebp], eax
  0003d	8b 45 0c	 mov	 eax, DWORD PTR _blockRegion$[ebp]
  00040	89 85 14 ff ff
	ff		 mov	 DWORD PTR _blockRegion$GSCopy$1$[ebp], eax
  00046	8b 45 10	 mov	 eax, DWORD PTR _vertScaleRegionWidth$[ebp]
  00049	89 85 18 ff ff
	ff		 mov	 DWORD PTR _vertScaleRegionWidth$GSCopy$1$[ebp], eax
  0004f	0f 84 77 04 00
	00		 je	 $LN66@CalculateD

; 554  : 	CString strScaleData;

  00055	8d 8d 30 ff ff
	ff		 lea	 ecx, DWORD PTR _strScaleData$17[ebp]
  0005b	ff 15 00 00 00
	00		 call	 DWORD PTR __imp_??0?$CStringT@DV?$StrTraitMFC_DLL@DV?$ChTraitsCRT@D@ATL@@@@@ATL@@QAE@XZ

; 555  : 
; 556  : 	CHorzDisplayDataMinMaxInputData inputData( GetHorzScaleDataPacket(), 

  00061	8d 85 2c ff ff
	ff		 lea	 eax, DWORD PTR $T14[ebp]
  00067	c7 45 fc 00 00
	00 00		 mov	 DWORD PTR __$EHRec$[ebp+8], 0
  0006e	8d 5f 10	 lea	 ebx, DWORD PTR [edi+16]
  00071	50		 push	 eax
  00072	8b cb		 mov	 ecx, ebx
  00074	e8 00 00 00 00	 call	 ?GetHorzScale@CBlockData@@QAEAAVCHorizontalScale@@XZ ; CBlockData::GetHorzScale
  00079	8b c8		 mov	 ecx, eax
  0007b	ff 15 00 00 00
	00		 call	 DWORD PTR __imp_?GetScaleData@CScale@@QBE?AV?$CStringT@DV?$StrTraitMFC_DLL@DV?$ChTraitsCRT@D@ATL@@@@@ATL@@XZ
  00081	8b f0		 mov	 esi, eax
  00083	8b 4f 04	 mov	 ecx, DWORD PTR [edi+4]
  00086	8d 85 1c ff ff
	ff		 lea	 eax, DWORD PTR $T10[ebp]
  0008c	50		 push	 eax
  0008d	c6 45 fc 01	 mov	 BYTE PTR __$EHRec$[ebp+8], 1
  00091	e8 00 00 00 00	 call	 ?GetDisplayAttributes@CMainBlockBaseData@@QBE?AVCDisplayAttributes@@XZ ; CMainBlockBaseData::GetDisplayAttributes
  00096	50		 push	 eax
  00097	8b 07		 mov	 eax, DWORD PTR [edi]
  00099	8b cf		 mov	 ecx, edi
  0009b	56		 push	 esi
  0009c	ff 50 30	 call	 DWORD PTR [eax+48]
  0009f	50		 push	 eax
  000a0	8d 8d f4 fe ff
	ff		 lea	 ecx, DWORD PTR _inputData$5[ebp]
  000a6	e8 00 00 00 00	 call	 ??0CHorzDisplayDataMinMaxInputData@@QAE@PAVCPacket@@ABV?$CStringT@DV?$StrTraitMFC_DLL@DV?$ChTraitsCRT@D@ATL@@@@@ATL@@ABVCDisplayAttributes@@@Z ; CHorzDisplayDataMinMaxInputData::CHorzDisplayDataMinMaxInputData
  000ab	8d 8d 2c ff ff
	ff		 lea	 ecx, DWORD PTR $T14[ebp]
  000b1	c6 45 fc 03	 mov	 BYTE PTR __$EHRec$[ebp+8], 3
  000b5	ff 15 00 00 00
	00		 call	 DWORD PTR __imp_??1?$CStringT@DV?$StrTraitMFC_DLL@DV?$ChTraitsCRT@D@ATL@@@@@ATL@@QAE@XZ

; 557  : 		m_blockData.GetHorzScale().GetScaleData(), m_pMainBlockBaseData->GetDisplayAttributes());
; 558  : 	
; 559  : 	return CViewMinMaxCalculator().GetViewHorzMinMax(inputData);

  000bb	8d 85 f4 fe ff
	ff		 lea	 eax, DWORD PTR _inputData$5[ebp]
  000c1	50		 push	 eax
  000c2	8d 85 04 ff ff
	ff		 lea	 eax, DWORD PTR $T8[ebp]
  000c8	50		 push	 eax
  000c9	8d 8d 2b ff ff
	ff		 lea	 ecx, DWORD PTR $T13[ebp]
  000cf	e8 00 00 00 00	 call	 ?GetViewHorzMinMax@CViewMinMaxCalculator@@QBE?AVCDisplayDataMinMax@@ABVCHorzDisplayDataMinMaxInputData@@@Z ; CViewMinMaxCalculator::GetViewHorzMinMax
  000d4	8d 8d f8 fe ff
	ff		 lea	 ecx, DWORD PTR _inputData$5[ebp+4]
  000da	ff 15 00 00 00
	00		 call	 DWORD PTR __imp_??1?$CStringT@DV?$StrTraitMFC_DLL@DV?$ChTraitsCRT@D@ATL@@@@@ATL@@QAE@XZ
  000e0	8d 8d 30 ff ff
	ff		 lea	 ecx, DWORD PTR _strScaleData$17[ebp]
  000e6	c7 45 fc ff ff
	ff ff		 mov	 DWORD PTR __$EHRec$[ebp+8], -1
  000ed	ff 15 00 00 00
	00		 call	 DWORD PTR __imp_??1?$CStringT@DV?$StrTraitMFC_DLL@DV?$ChTraitsCRT@D@ATL@@@@@ATL@@QAE@XZ

; 347  : 
; 348  : 	//sy test
; 349  : 	// horz Scale Min/Max 
; 350  : 	m_blockData.SetDisplayDataHorzMinMax(GetViewHorzMinMax());

  000f3	8d 85 04 ff ff
	ff		 lea	 eax, DWORD PTR $T8[ebp]
  000f9	8b cb		 mov	 ecx, ebx
  000fb	50		 push	 eax
  000fc	e8 00 00 00 00	 call	 ?SetDisplayDataHorzMinMax@CBlockData@@QAEXABVCDisplayDataMinMax@@@Z ; CBlockData::SetDisplayDataHorzMinMax

; 357  : 	if( !m_blockData.GetHorzScale().GetScaleData().IsEmpty())

  00101	8d 85 2c ff ff
	ff		 lea	 eax, DWORD PTR $T16[ebp]
  00107	c7 85 30 ff ff
	ff 00 00 00 00	 mov	 DWORD PTR _nTopHorzScaleRegionHeight$1$[ebp], 0
  00111	50		 push	 eax
  00112	8b cb		 mov	 ecx, ebx
  00114	e8 00 00 00 00	 call	 ?GetHorzScale@CBlockData@@QAEAAVCHorizontalScale@@XZ ; CBlockData::GetHorzScale
  00119	8b c8		 mov	 ecx, eax
  0011b	ff 15 00 00 00
	00		 call	 DWORD PTR __imp_?GetScaleData@CScale@@QBE?AV?$CStringT@DV?$StrTraitMFC_DLL@DV?$ChTraitsCRT@D@ATL@@@@@ATL@@XZ
  00121	8d 8d 2c ff ff
	ff		 lea	 ecx, DWORD PTR $T16[ebp]
; File C:\Program Files (x86)\Microsoft Visual Studio\2019\Community\VC\Tools\MSVC\14.29.30133\atlmfc\include\atlsimpstr.h

; 519  : 		return( GetData()->nDataLength );

  00127	8b 00		 mov	 eax, DWORD PTR [eax]
  00129	8b 70 f4	 mov	 esi, DWORD PTR [eax-12]
; File D:\git\src\IBK\IBK_DRFN\ProjSrc\SrcChartEx\ChartOCX\ChartObject\BlockImp.cpp

; 357  : 	if( !m_blockData.GetHorzScale().GetScaleData().IsEmpty())

  0012c	ff 15 00 00 00
	00		 call	 DWORD PTR __imp_??1?$CStringT@DV?$StrTraitMFC_DLL@DV?$ChTraitsCRT@D@ATL@@@@@ATL@@QAE@XZ
  00132	85 f6		 test	 esi, esi
  00134	0f 84 20 01 00
	00		 je	 $LN72@CalculateD

; 358  : 	{
; 359  : 		CScaleBaseData::HORZSCALEPOSITION eHorzScalePosition = m_blockData.GetHorzScale().GetHorzScalePosition();

  0013a	8b cb		 mov	 ecx, ebx
  0013c	e8 00 00 00 00	 call	 ?GetHorzScale@CBlockData@@QAEAAVCHorizontalScale@@XZ ; CBlockData::GetHorzScale
  00141	8b c8		 mov	 ecx, eax
  00143	ff 15 00 00 00
	00		 call	 DWORD PTR __imp_?GetHorzScalePosition@CHorizontalScale@@QBE?AW4HORZSCALEPOSITION@CScaleBaseData@@XZ
  00149	8b d8		 mov	 ebx, eax

; 360  : 		switch( eHorzScalePosition)

  0014b	8b cb		 mov	 ecx, ebx
  0014d	83 e9 00	 sub	 ecx, 0
  00150	74 0e		 je	 SHORT $LN6@CalculateD
  00152	83 e9 01	 sub	 ecx, 1
  00155	74 09		 je	 SHORT $LN6@CalculateD
  00157	83 e9 01	 sub	 ecx, 1
  0015a	0f 85 fa 00 00
	00		 jne	 $LN72@CalculateD
$LN6@CalculateD:

; 361  : 		{
; 362  : 			case CScaleBaseData::HORZ_TOP:
; 363  : 			case CScaleBaseData::HORZ_BOTTOM:
; 364  : 			case CScaleBaseData::HORZ_BOTH:
; 365  : 			{
; 366  : 				// XScale   - ojtaso (20080429)
; 367  : 				int nHeight = m_blockData.GetHorizontalScaleHeight();

  00160	8d 4f 10	 lea	 ecx, DWORD PTR [edi+16]
  00163	e8 00 00 00 00	 call	 ?GetHorizontalScaleHeight@CBlockData@@QBEHXZ ; CBlockData::GetHorizontalScaleHeight
  00168	8b f0		 mov	 esi, eax

; 368  : 				int nHorzScaleRegionHeight = 0;
; 369  : 				if(nHeight < 0)

  0016a	85 f6		 test	 esi, esi
  0016c	0f 89 d9 00 00
	00		 jns	 $LN10@CalculateD

; 370  : 				{
; 371  : 					CHorzScaleMaxWidthCalculatorData calData( &m_blockData.GetHorzScale().GetScaleCompart(), GetHorzScaleDataPacket(),

  00172	8d 85 2c ff ff
	ff		 lea	 eax, DWORD PTR $T15[ebp]
  00178	50		 push	 eax
  00179	8d 4f 10	 lea	 ecx, DWORD PTR [edi+16]
  0017c	e8 00 00 00 00	 call	 ?GetHorzScale@CBlockData@@QAEAAVCHorizontalScale@@XZ ; CBlockData::GetHorzScale
  00181	8b c8		 mov	 ecx, eax
  00183	ff 15 00 00 00
	00		 call	 DWORD PTR __imp_?GetScaleData@CScale@@QBE?AV?$CStringT@DV?$StrTraitMFC_DLL@DV?$ChTraitsCRT@D@ATL@@@@@ATL@@XZ
  00189	8b f0		 mov	 esi, eax
  0018b	8b 4f 04	 mov	 ecx, DWORD PTR [edi+4]
  0018e	8d 85 0c ff ff
	ff		 lea	 eax, DWORD PTR $T9[ebp]
  00194	50		 push	 eax
  00195	c7 45 fc 04 00
	00 00		 mov	 DWORD PTR __$EHRec$[ebp+8], 4
  0019c	e8 00 00 00 00	 call	 ?GetDisplayAttributes@CMainBlockBaseData@@QBE?AVCDisplayAttributes@@XZ ; CMainBlockBaseData::GetDisplayAttributes
  001a1	50		 push	 eax
  001a2	8b 07		 mov	 eax, DWORD PTR [edi]
  001a4	8b cf		 mov	 ecx, edi
  001a6	56		 push	 esi
  001a7	ff 50 30	 call	 DWORD PTR [eax+48]
  001aa	50		 push	 eax
  001ab	8d 4f 10	 lea	 ecx, DWORD PTR [edi+16]
  001ae	e8 00 00 00 00	 call	 ?GetHorzScale@CBlockData@@QAEAAVCHorizontalScale@@XZ ; CBlockData::GetHorzScale
  001b3	8b c8		 mov	 ecx, eax
  001b5	ff 15 00 00 00
	00		 call	 DWORD PTR __imp_?GetScaleCompart@CHorizontalScale@@QAEAAVCScaleCompart@@XZ
  001bb	50		 push	 eax
  001bc	8d 8d d8 fe ff
	ff		 lea	 ecx, DWORD PTR _calData$4[ebp]
  001c2	e8 00 00 00 00	 call	 ??0CHorzScaleMaxWidthCalculatorData@@QAE@PAVCScaleCompart@@PAVCPacket@@ABV?$CStringT@DV?$StrTraitMFC_DLL@DV?$ChTraitsCRT@D@ATL@@@@@ATL@@ABVCDisplayAttributes@@@Z ; CHorzScaleMaxWidthCalculatorData::CHorzScaleMaxWidthCalculatorData
  001c7	8d 8d 2c ff ff
	ff		 lea	 ecx, DWORD PTR $T15[ebp]
  001cd	c6 45 fc 06	 mov	 BYTE PTR __$EHRec$[ebp+8], 6
  001d1	ff 15 00 00 00
	00		 call	 DWORD PTR __imp_??1?$CStringT@DV?$StrTraitMFC_DLL@DV?$ChTraitsCRT@D@ATL@@@@@ATL@@QAE@XZ

; 374  : 					nHeight = CTextSizeCalculator( m_pMainBlockBaseData->GetParent_Handle(), m_pMainBlockBaseData->GetMainAttributes().GetChartMode()).GetMaxHorzScaleTextSize(pDC, calData).cy;

  001d7	8b 4f 04	 mov	 ecx, DWORD PTR [edi+4]
  001da	e8 00 00 00 00	 call	 ?GetMainAttributes@CMainBlockBaseData@@QAEAAVCMainAttributes@@XZ ; CMainBlockBaseData::GetMainAttributes
  001df	8b c8		 mov	 ecx, eax
  001e1	e8 00 00 00 00	 call	 ?GetChartMode@CMainAttributes@@QBE?AW4CHART_MODE@CChartInfo@@XZ ; CMainAttributes::GetChartMode
  001e6	8b 4f 04	 mov	 ecx, DWORD PTR [edi+4]
  001e9	8b f0		 mov	 esi, eax
  001eb	e8 00 00 00 00	 call	 ?GetParent_Handle@CMainBlockBaseData@@QBEPAUHWND__@@XZ ; CMainBlockBaseData::GetParent_Handle
; File D:\git\src\IBK\IBK_DRFN\ProjSrc\SrcChartEx\ChartOCX\ChartObject\DrawingRegionCalculator.h

; 94   : 		{	m_hOcxWnd = p_hOcxWnd;	m_eChartMode = p_eChartMode;	}

  001f0	89 85 1c ff ff
	ff		 mov	 DWORD PTR $T11[ebp], eax
; File D:\git\src\IBK\IBK_DRFN\ProjSrc\SrcChartEx\ChartOCX\ChartObject\BlockImp.cpp

; 374  : 					nHeight = CTextSizeCalculator( m_pMainBlockBaseData->GetParent_Handle(), m_pMainBlockBaseData->GetMainAttributes().GetChartMode()).GetMaxHorzScaleTextSize(pDC, calData).cy;

  001f6	8d 8d 1c ff ff
	ff		 lea	 ecx, DWORD PTR $T11[ebp]
  001fc	8d 85 d8 fe ff
	ff		 lea	 eax, DWORD PTR _calData$4[ebp]
; File D:\git\src\IBK\IBK_DRFN\ProjSrc\SrcChartEx\ChartOCX\ChartObject\DrawingRegionCalculator.h

; 94   : 		{	m_hOcxWnd = p_hOcxWnd;	m_eChartMode = p_eChartMode;	}

  00202	89 b5 20 ff ff
	ff		 mov	 DWORD PTR $T11[ebp+4], esi
; File D:\git\src\IBK\IBK_DRFN\ProjSrc\SrcChartEx\ChartOCX\ChartObject\BlockImp.cpp

; 374  : 					nHeight = CTextSizeCalculator( m_pMainBlockBaseData->GetParent_Handle(), m_pMainBlockBaseData->GetMainAttributes().GetChartMode()).GetMaxHorzScaleTextSize(pDC, calData).cy;

  00208	50		 push	 eax
  00209	ff b5 24 ff ff
	ff		 push	 DWORD PTR _pDC$GSCopy$1$[ebp]
  0020f	8d 85 fc fe ff
	ff		 lea	 eax, DWORD PTR $T7[ebp]
  00215	50		 push	 eax
  00216	e8 00 00 00 00	 call	 ?GetMaxHorzScaleTextSize@CTextSizeCalculator@@QBE?AVCSize@@PAVCDC@@ABVCHorzScaleMaxWidthCalculatorData@@@Z ; CTextSizeCalculator::GetMaxHorzScaleTextSize
  0021b	8b 70 04	 mov	 esi, DWORD PTR [eax+4]

; 375  : 					if( nHeight > 0)	nHorzScaleRegionHeight = (nHeight + MARGIN *2);

  0021e	85 f6		 test	 esi, esi
  00220	7e 05		 jle	 SHORT $LN11@CalculateD
  00222	83 c6 08	 add	 esi, 8
  00225	eb 11		 jmp	 SHORT $LN12@CalculateD
$LN11@CalculateD:

; 376  : 					else				nHorzScaleRegionHeight = m_pMainBlockBaseData->GetScaleAttributes().GetMinHorzScaleRegionHeight();

  00227	8b 4f 04	 mov	 ecx, DWORD PTR [edi+4]
  0022a	e8 00 00 00 00	 call	 ?GetScaleAttributes@CMainBlockBaseData@@QAEAAVCScaleAttributes@@XZ ; CMainBlockBaseData::GetScaleAttributes
  0022f	8b c8		 mov	 ecx, eax
  00231	e8 00 00 00 00	 call	 ?GetMinHorzScaleRegionHeight@CScaleAttributes@@QBEHXZ ; CScaleAttributes::GetMinHorzScaleRegionHeight
  00236	8b f0		 mov	 esi, eax
$LN12@CalculateD:

; 377  : 				}

  00238	8d 8d e0 fe ff
	ff		 lea	 ecx, DWORD PTR _calData$4[ebp+8]
  0023e	c7 45 fc ff ff
	ff ff		 mov	 DWORD PTR __$EHRec$[ebp+8], -1
  00245	ff 15 00 00 00
	00		 call	 DWORD PTR __imp_??1?$CStringT@DV?$StrTraitMFC_DLL@DV?$ChTraitsCRT@D@ATL@@@@@ATL@@QAE@XZ
$LN10@CalculateD:

; 378  : 				else
; 379  : 					nHorzScaleRegionHeight = nHeight;
; 380  : 
; 381  : 				if( eHorzScalePosition != CScaleBaseData::HORZ_BOTTOM)	nTopHorzScaleRegionHeight		= nHorzScaleRegionHeight;

  0024b	83 fb 01	 cmp	 ebx, 1
  0024e	74 0c		 je	 SHORT $LN14@CalculateD
  00250	89 b5 30 ff ff
	ff		 mov	 DWORD PTR _nTopHorzScaleRegionHeight$1$[ebp], esi

; 382  : 				if( eHorzScalePosition != CScaleBaseData::HORZ_TOP)		nBottomHorzScaleRegionHeight	= nHorzScaleRegionHeight;

  00256	85 db		 test	 ebx, ebx
  00258	75 02		 jne	 SHORT $LN14@CalculateD
$LN72@CalculateD:

; 383  : 			}
; 384  : 		}
; 385  : 	}
; 386  : 
; 387  : 	CHorzScaleRegionHeight horzScaleRegionHeight( nTopHorzScaleRegionHeight, nBottomHorzScaleRegionHeight);

  0025a	33 f6		 xor	 esi, esi
$LN14@CalculateD:
  0025c	56		 push	 esi
  0025d	ff b5 30 ff ff
	ff		 push	 DWORD PTR _nTopHorzScaleRegionHeight$1$[ebp]
  00263	8d 8d ec fe ff
	ff		 lea	 ecx, DWORD PTR _horzScaleRegionHeight$[ebp]
  00269	ff 15 00 00 00
	00		 call	 DWORD PTR __imp_??0CHorzScaleRegionHeight@@QAE@HH@Z

; 475  : 	if( !m_pMainBlockBaseData) return NULL;

  0026f	8b 4f 04	 mov	 ecx, DWORD PTR [edi+4]

; 388  : 	// graph, scale  .
; 389  : 	// CDrawingRegion    data .
; 390  : 	bool bIsGraphTextDrawCheck = false, bIsGraphTextDraw = false;

  00272	32 db		 xor	 bl, bl
  00274	88 9d 30 ff ff
	ff		 mov	 BYTE PTR _bIsGraphTextDrawCheck$[ebp], bl
  0027a	88 9d 10 ff ff
	ff		 mov	 BYTE PTR _bIsGraphTextDraw$[ebp], bl

; 475  : 	if( !m_pMainBlockBaseData) return NULL;

  00280	85 c9		 test	 ecx, ecx
  00282	75 04		 jne	 SHORT $LN47@CalculateD
  00284	33 f6		 xor	 esi, esi
  00286	eb 0e		 jmp	 SHORT $LN46@CalculateD
$LN47@CalculateD:

; 476  : 	return m_pMainBlockBaseData->GetMainAttributes().GetMainBlockImpl();

  00288	e8 00 00 00 00	 call	 ?GetMainAttributes@CMainBlockBaseData@@QAEAAVCMainAttributes@@XZ ; CMainBlockBaseData::GetMainAttributes
  0028d	8b c8		 mov	 ecx, eax
  0028f	e8 00 00 00 00	 call	 ?GetMainBlockImpl@CMainAttributes@@QBEPAVCMainBlockImp@@XZ ; CMainAttributes::GetMainBlockImpl
  00294	8b f0		 mov	 esi, eax
$LN46@CalculateD:
  00296	8d 8d 48 fe ff
	ff		 lea	 ecx, DWORD PTR _gsi$[ebp]
  0029c	e8 00 00 00 00	 call	 ??0CGraphSearchInfo@@QAE@XZ ; CGraphSearchInfo::CGraphSearchInfo
  002a1	8d 8d 88 fe ff
	ff		 lea	 ecx, DWORD PTR _gsi$[ebp+64]
  002a7	c7 85 48 fe ff
	ff 00 00 00 00	 mov	 DWORD PTR _gsi$[ebp], OFFSET ??_7CGraphSearchInfo_IndicatorName@@6B@
  002b1	ff 15 00 00 00
	00		 call	 DWORD PTR __imp_??0?$CStringT@DV?$StrTraitMFC_DLL@DV?$ChTraitsCRT@D@ATL@@@@@ATL@@QAE@XZ

; 391  : 	// Text  Graph  .
; 392  : 	// -> Text   : <>, <Bar_Type : TextBar_Draw>
; 393  : 	// <>
; 394  : 	CMainBlockImp *pMainBlock = GetMainBlock();
; 395  : 	CGraphSearchInfo_IndicatorName gsi;
; 396  : 	gsi.m_strIndicatorName = _MTEXT( C2_PRICE_CHART);

  002b7	a1 54 00 00 00	 mov	 eax, DWORD PTR ?g_iMetaTable@@3VIMetaTable@@A+84
  002bc	8d 8d 88 fe ff
	ff		 lea	 ecx, DWORD PTR _gsi$[ebp+64]
  002c2	c7 45 fc 07 00
	00 00		 mov	 DWORD PTR __$EHRec$[ebp+8], 7
  002c9	ff b0 28 03 00
	00		 push	 DWORD PTR [eax+808]
  002cf	ff 15 00 00 00
	00		 call	 DWORD PTR __imp_??4?$CStringT@DV?$StrTraitMFC_DLL@DV?$ChTraitsCRT@D@ATL@@@@@ATL@@QAEAAV01@PBD@Z

; 397  : 	if( m_vertScaleGroupList.FindGraph( &gsi))

  002d5	8d 85 48 fe ff
	ff		 lea	 eax, DWORD PTR _gsi$[ebp]
  002db	8d 8f 90 00 00
	00		 lea	 ecx, DWORD PTR [edi+144]
  002e1	50		 push	 eax
  002e2	e8 00 00 00 00	 call	 ?FindGraph@CVertScaleGroupList@@QBEHPAVCGraphSearchInfo@@@Z ; CVertScaleGroupList::FindGraph
  002e7	85 c0		 test	 eax, eax
  002e9	74 2d		 je	 SHORT $LN15@CalculateD

; 398  : 	{
; 399  : 		// Sang-Woo, Cho		2006 / 09 / 26
; 400  : 		//  ,  Text      .
; 401  : 		// Begin
; 402  : 		if( m_pBlocksColumn && pMainBlock)

  002eb	83 7f 08 00	 cmp	 DWORD PTR [edi+8], 0
  002ef	74 19		 je	 SHORT $LN17@CalculateD
  002f1	85 f6		 test	 esi, esi
  002f3	74 15		 je	 SHORT $LN17@CalculateD

; 403  : 			bIsGraphTextDrawCheck = bIsGraphTextDraw = ( pMainBlock->GetShowPriceMinMaxText() ? true : false);

  002f5	8b 06		 mov	 eax, DWORD PTR [esi]
  002f7	8b ce		 mov	 ecx, esi
  002f9	ff 90 ac 02 00
	00		 call	 DWORD PTR [eax+684]
  002ff	85 c0		 test	 eax, eax
  00301	0f 95 c3	 setne	 bl
  00304	88 9d 30 ff ff
	ff		 mov	 BYTE PTR _bIsGraphTextDrawCheck$[ebp], bl
$LN17@CalculateD:

; 404  : 	}

  0030a	88 9d 10 ff ff
	ff		 mov	 BYTE PTR _bIsGraphTextDraw$[ebp], bl
  00310	8d 9f 90 00 00
	00		 lea	 ebx, DWORD PTR [edi+144]
  00316	eb 59		 jmp	 SHORT $LN18@CalculateD
$LN15@CalculateD:
  00318	8d 8d 8c fe ff
	ff		 lea	 ecx, DWORD PTR _gsi$2[ebp]
  0031e	e8 00 00 00 00	 call	 ??0CGraphSearchInfo@@QAE@XZ ; CGraphSearchInfo::CGraphSearchInfo

; 405  : 	// <Bar_Type : TextBar_Draw>
; 406  : 	else
; 407  : 	{
; 408  : 		CGraphSearchInfo_TypeStyleDrawStyle gsi;
; 409  : 		gsi.m_eGraphType	= CGraphBaseData::Bar_Type;
; 410  : 		gsi.m_nGraphStyle	= CGraphBaseData::FixedRateCombBar;
; 411  : 		gsi.m_nDrawStyle	= CGraphBaseData::TextBar_Draw;
; 412  : 		if( m_vertScaleGroupList.FindGraph( &gsi))

  00323	8d 85 8c fe ff
	ff		 lea	 eax, DWORD PTR _gsi$2[ebp]
  00329	c7 85 8c fe ff
	ff 00 00 00 00	 mov	 DWORD PTR _gsi$2[ebp], OFFSET ??_7CGraphSearchInfo_TypeStyleDrawStyle@@6B@
  00333	8d 9f 90 00 00
	00		 lea	 ebx, DWORD PTR [edi+144]
  00339	c7 85 cc fe ff
	ff 02 00 00 00	 mov	 DWORD PTR _gsi$2[ebp+64], 2
  00343	50		 push	 eax
  00344	8b cb		 mov	 ecx, ebx
  00346	c7 85 d0 fe ff
	ff 0e 00 00 00	 mov	 DWORD PTR _gsi$2[ebp+68], 14 ; 0000000eH
  00350	c7 85 d4 fe ff
	ff 03 00 00 00	 mov	 DWORD PTR _gsi$2[ebp+72], 3
  0035a	e8 00 00 00 00	 call	 ?FindGraph@CVertScaleGroupList@@QBEHPAVCGraphSearchInfo@@@Z ; CVertScaleGroupList::FindGraph
  0035f	85 c0		 test	 eax, eax
  00361	74 0e		 je	 SHORT $LN18@CalculateD

; 413  : 		{
; 414  : 			bIsGraphTextDrawCheck = false;

  00363	c6 85 30 ff ff
	ff 00		 mov	 BYTE PTR _bIsGraphTextDrawCheck$[ebp], 0

; 415  : 			bIsGraphTextDraw = true;

  0036a	c6 85 10 ff ff
	ff 01		 mov	 BYTE PTR _bIsGraphTextDraw$[ebp], 1
$LN18@CalculateD:

; 416  : 		}
; 417  : 	}
; 418  : 
; 419  : 	// (2006/10/13 - Seung-Won, Bae) Set Block Move Delete Flag
; 420  : 	BOOL bBlockMoveDelete = FALSE;
; 421  : 	if( pMainBlock) bBlockMoveDelete = pMainBlock->GetBlockMoveDeleteFlag();

  00371	85 f6		 test	 esi, esi
  00373	74 0b		 je	 SHORT $LN69@CalculateD
  00375	8b ce		 mov	 ecx, esi
  00377	e8 00 00 00 00	 call	 ?GetBlockMoveDeleteFlag@CMainBlockImp@@QBEHXZ ; CMainBlockImp::GetBlockMoveDeleteFlag
  0037c	8b f0		 mov	 esi, eax
  0037e	eb 02		 jmp	 SHORT $LN19@CalculateD
$LN69@CalculateD:
  00380	33 f6		 xor	 esi, esi
$LN19@CalculateD:

; 422  : 
; 423  : 	// Graph Title  .
; 424  : 	// -> MainBlock CMainBlockBaseData "bIsAllTitleDrawHiding"   .
; 425  : 	bool bIsGraphTitleDrawingGraph = false;
; 426  : 	// graph title   : true  
; 427  : 	if( !m_pMainBlockBaseData->GetGraphAttributes().DoesAllTitleDrawHiding())

  00382	8b 4f 04	 mov	 ecx, DWORD PTR [edi+4]
  00385	c6 85 2c ff ff
	ff 00		 mov	 BYTE PTR _bIsGraphTitleDrawingGraph$[ebp], 0
  0038c	e8 00 00 00 00	 call	 ?GetGraphAttributes@CMainBlockBaseData@@QAEAAVCGraphAttributes@@XZ ; CMainBlockBaseData::GetGraphAttributes
  00391	8b c8		 mov	 ecx, eax
  00393	e8 00 00 00 00	 call	 ?DoesAllTitleDrawHiding@CGraphAttributes@@QBE_NXZ ; CGraphAttributes::DoesAllTitleDrawHiding
  00398	84 c0		 test	 al, al
  0039a	75 2c		 jne	 SHORT $LN20@CalculateD

; 428  : 	{
; 429  : 		CGraphSearchInfo_VisibleGraphTitle gsi;
; 430  : 		bIsGraphTitleDrawingGraph = ( m_vertScaleGroupList.FindGraph( &gsi) ? true : false);

  0039c	8d 8d 98 fe ff
	ff		 lea	 ecx, DWORD PTR _gsi$3[ebp]
  003a2	e8 00 00 00 00	 call	 ??0CGraphSearchInfo@@QAE@XZ ; CGraphSearchInfo::CGraphSearchInfo
  003a7	8d 85 98 fe ff
	ff		 lea	 eax, DWORD PTR _gsi$3[ebp]
  003ad	c7 85 98 fe ff
	ff 00 00 00 00	 mov	 DWORD PTR _gsi$3[ebp], OFFSET ??_7CGraphSearchInfo_VisibleGraphTitle@@6B@
  003b7	50		 push	 eax
  003b8	8b cb		 mov	 ecx, ebx
  003ba	e8 00 00 00 00	 call	 ?FindGraph@CVertScaleGroupList@@QBEHPAVCGraphSearchInfo@@@Z ; CVertScaleGroupList::FindGraph
  003bf	85 c0		 test	 eax, eax
  003c1	0f 95 85 2c ff
	ff ff		 setne	 BYTE PTR _bIsGraphTitleDrawingGraph$[ebp]
$LN20@CalculateD:

; 431  : 	}
; 432  : 
; 433  : 	CGraphSearchInfo_HasVertScale gsi2;
; 434  : 	gsi2.m_eVertScalePosition = ( CScaleBaseData::VERTSCALEPOSITION)-1;
; 435  : 	bool bIsViewableVertScaleExist = ( m_vertScaleGroupList.FindGraph( &gsi2) ? true : false);

  003c8	8d 8d 04 fe ff
	ff		 lea	 ecx, DWORD PTR _gsi2$[ebp]
  003ce	e8 00 00 00 00	 call	 ??0CGraphSearchInfo@@QAE@XZ ; CGraphSearchInfo::CGraphSearchInfo
  003d3	8d 85 04 fe ff
	ff		 lea	 eax, DWORD PTR _gsi2$[ebp]
  003d9	c7 85 04 fe ff
	ff 00 00 00 00	 mov	 DWORD PTR _gsi2$[ebp], OFFSET ??_7CGraphSearchInfo_HasVertScale@@6B@
  003e3	50		 push	 eax
  003e4	8b cb		 mov	 ecx, ebx
  003e6	c7 85 44 fe ff
	ff ff ff ff ff	 mov	 DWORD PTR _gsi2$[ebp+64], -1
  003f0	e8 00 00 00 00	 call	 ?FindGraph@CVertScaleGroupList@@QBEHPAVCGraphSearchInfo@@@Z ; CVertScaleGroupList::FindGraph

; 436  : 
; 437  : 	CDrawingRegionCalData drawingRegionCalData(

  003f5	8b 4f 04	 mov	 ecx, DWORD PTR [edi+4]
  003f8	85 c0		 test	 eax, eax
  003fa	56		 push	 esi
  003fb	ff b5 18 ff ff
	ff		 push	 DWORD PTR _vertScaleRegionWidth$GSCopy$1$[ebp]
  00401	8d 85 ec fe ff
	ff		 lea	 eax, DWORD PTR _horzScaleRegionHeight$[ebp]
  00407	0f 95 85 20 ff
	ff ff		 setne	 BYTE PTR _bIsViewableVertScaleExist$[ebp]
  0040e	50		 push	 eax
  0040f	ff b5 20 ff ff
	ff		 push	 DWORD PTR _bIsViewableVertScaleExist$[ebp]
  00415	ff b5 2c ff ff
	ff		 push	 DWORD PTR _bIsGraphTitleDrawingGraph$[ebp]
  0041b	ff b5 10 ff ff
	ff		 push	 DWORD PTR _bIsGraphTextDraw$[ebp]
  00421	ff b5 30 ff ff
	ff		 push	 DWORD PTR _bIsGraphTextDrawCheck$[ebp]
  00427	e8 00 00 00 00	 call	 ?GetGraphRegionFrameThickness@CMainBlockBaseData@@QBEHXZ ; CMainBlockBaseData::GetGraphRegionFrameThickness
  0042c	50		 push	 eax
  0042d	ff b5 14 ff ff
	ff		 push	 DWORD PTR _blockRegion$GSCopy$1$[ebp]
  00433	8d 4d b8	 lea	 ecx, DWORD PTR _drawingRegionCalData$[ebp]
  00436	e8 00 00 00 00	 call	 ??0CDrawingRegionCalData@@QAE@ABVCRect@@H_N111ABVCHorzScaleRegionHeight@@ABVCVertScaleRegionWidth@@H@Z ; CDrawingRegionCalData::CDrawingRegionCalData

; 438  : 							blockRegion, 
; 439  : 							m_pMainBlockBaseData->GetGraphRegionFrameThickness(),
; 440  : 							bIsGraphTextDrawCheck,
; 441  : 							bIsGraphTextDraw, 
; 442  : 							bIsGraphTitleDrawingGraph,
; 443  : 							bIsViewableVertScaleExist,
; 444  : 							horzScaleRegionHeight,
; 445  : 							vertScaleRegionWidth,
; 446  : 							bBlockMoveDelete
; 447  : 							);
; 448  : 
; 449  : 	drawingRegionCalData.SetMaxVertScaleRegionWidth(m_pMainBlockBaseData->GetScaleAttributes().GetMaxVertScaleRegionWidth());

  0043b	8b 4f 04	 mov	 ecx, DWORD PTR [edi+4]
  0043e	e8 00 00 00 00	 call	 ?GetScaleAttributes@CMainBlockBaseData@@QAEAAVCScaleAttributes@@XZ ; CMainBlockBaseData::GetScaleAttributes
  00443	8b c8		 mov	 ecx, eax
  00445	e8 00 00 00 00	 call	 ?GetMaxVertScaleRegionWidth@CScaleAttributes@@QBEHXZ ; CScaleAttributes::GetMaxVertScaleRegionWidth
  0044a	50		 push	 eax
  0044b	8d 4d b8	 lea	 ecx, DWORD PTR _drawingRegionCalData$[ebp]
  0044e	e8 00 00 00 00	 call	 ?SetMaxVertScaleRegionWidth@CDrawingRegionCalData@@QAEXH@Z ; CDrawingRegionCalData::SetMaxVertScaleRegionWidth

; 450  : 	drawingRegionCalData.SetDisplayAttributes(m_pMainBlockBaseData->GetDisplayAttributes());

  00453	8b 4f 04	 mov	 ecx, DWORD PTR [edi+4]
  00456	8d 85 fc fe ff
	ff		 lea	 eax, DWORD PTR $T6[ebp]
  0045c	50		 push	 eax
  0045d	e8 00 00 00 00	 call	 ?GetDisplayAttributes@CMainBlockBaseData@@QBE?AVCDisplayAttributes@@XZ ; CMainBlockBaseData::GetDisplayAttributes
  00462	50		 push	 eax
  00463	8d 4d b8	 lea	 ecx, DWORD PTR _drawingRegionCalData$[ebp]
  00466	e8 00 00 00 00	 call	 ?SetDisplayAttributes@CDrawingRegionCalData@@QAEXABVCDisplayAttributes@@@Z ; CDrawingRegionCalData::SetDisplayAttributes

; 475  : 	if( !m_pMainBlockBaseData) return NULL;

  0046b	8b 4f 04	 mov	 ecx, DWORD PTR [edi+4]
  0046e	85 c9		 test	 ecx, ecx
  00470	75 04		 jne	 SHORT $LN63@CalculateD
  00472	33 c0		 xor	 eax, eax
  00474	eb 0c		 jmp	 SHORT $LN62@CalculateD
$LN63@CalculateD:

; 476  : 	return m_pMainBlockBaseData->GetMainAttributes().GetMainBlockImpl();

  00476	e8 00 00 00 00	 call	 ?GetMainAttributes@CMainBlockBaseData@@QAEAAVCMainAttributes@@XZ ; CMainBlockBaseData::GetMainAttributes
  0047b	8b c8		 mov	 ecx, eax
  0047d	e8 00 00 00 00	 call	 ?GetMainBlockImpl@CMainAttributes@@QBEPAVCMainBlockImp@@XZ ; CMainAttributes::GetMainBlockImpl
$LN62@CalculateD:

; 451  : 
; 452  : 	// (2009/1/20 - Seung-Won, Bae) Support Reverse.
; 453  :   	CXScaleManager* pxScaleManager = GetMainBlock()->GetXScaleManager();

  00482	8b 10		 mov	 edx, DWORD PTR [eax]
  00484	8b c8		 mov	 ecx, eax
  00486	ff 92 44 02 00
	00		 call	 DWORD PTR [edx+580]

; 454  : 	CDrawingRegion drawingRegion = CDrawingRegionCalculator().GetDrawingRegion( pDC, drawingRegionCalData, pxScaleManager->GetReverse());

  0048c	8b c8		 mov	 ecx, eax
  0048e	8b 10		 mov	 edx, DWORD PTR [eax]
  00490	ff 52 20	 call	 DWORD PTR [edx+32]
  00493	8b b5 24 ff ff
	ff		 mov	 esi, DWORD PTR _pDC$GSCopy$1$[ebp]
  00499	8d 8d 2a ff ff
	ff		 lea	 ecx, DWORD PTR $T12[ebp]
  0049f	50		 push	 eax
  004a0	8d 45 b8	 lea	 eax, DWORD PTR _drawingRegionCalData$[ebp]
  004a3	50		 push	 eax
  004a4	56		 push	 esi
  004a5	8d 85 34 ff ff
	ff		 lea	 eax, DWORD PTR _drawingRegion$[ebp]
  004ab	50		 push	 eax
  004ac	e8 00 00 00 00	 call	 ?GetDrawingRegion@CDrawingRegionCalculator@@QBE?AVCDrawingRegion@@PAVCDC@@ABVCDrawingRegionCalData@@H@Z ; CDrawingRegionCalculator::GetDrawingRegion

; 455  : 	m_vertScaleGroupList.CalculateDrawingRegion(pDC, drawingRegion);

  004b1	8d 85 34 ff ff
	ff		 lea	 eax, DWORD PTR _drawingRegion$[ebp]
  004b7	8b cb		 mov	 ecx, ebx
  004b9	50		 push	 eax
  004ba	56		 push	 esi
  004bb	e8 00 00 00 00	 call	 ?CalculateDrawingRegion@CVertScaleGroupList@@QAEXPAVCDC@@ABVCDrawingRegion@@@Z ; CVertScaleGroupList::CalculateDrawingRegion
  004c0	8d 8d 88 fe ff
	ff		 lea	 ecx, DWORD PTR _gsi$[ebp+64]
  004c6	ff 15 00 00 00
	00		 call	 DWORD PTR __imp_??1?$CStringT@DV?$StrTraitMFC_DLL@DV?$ChTraitsCRT@D@ATL@@@@@ATL@@QAE@XZ
$LN66@CalculateD:

; 456  : }

  004cc	8b 4d f4	 mov	 ecx, DWORD PTR __$EHRec$[ebp]
  004cf	64 89 0d 00 00
	00 00		 mov	 DWORD PTR fs:0, ecx
  004d6	59		 pop	 ecx
  004d7	5f		 pop	 edi
  004d8	5e		 pop	 esi
  004d9	5b		 pop	 ebx
  004da	8b 4d f0	 mov	 ecx, DWORD PTR __$ArrayPad$[ebp]
  004dd	33 cd		 xor	 ecx, ebp
  004df	e8 00 00 00 00	 call	 @__security_check_cookie@4
  004e4	8b e5		 mov	 esp, ebp
  004e6	5d		 pop	 ebp
  004e7	c2 0c 00	 ret	 12			; 0000000cH
_TEXT	ENDS
;	COMDAT text$x
text$x	SEGMENT
__unwindfunclet$?CalculateDrawingRegion@CBlockImp@@QAEXPAVCDC@@ABVCRect@@ABVCVertScaleRegionWidth@@@Z$4:
  00000	8d 8d 30 ff ff
	ff		 lea	 ecx, DWORD PTR _strScaleData$17[ebp]
  00006	ff 25 00 00 00
	00		 jmp	 DWORD PTR __imp_??1?$CStringT@DV?$StrTraitMFC_DLL@DV?$ChTraitsCRT@D@ATL@@@@@ATL@@QAE@XZ
__unwindfunclet$?CalculateDrawingRegion@CBlockImp@@QAEXPAVCDC@@ABVCRect@@ABVCVertScaleRegionWidth@@@Z$5:
  0000c	8d 8d 2c ff ff
	ff		 lea	 ecx, DWORD PTR $T14[ebp]
  00012	ff 25 00 00 00
	00		 jmp	 DWORD PTR __imp_??1?$CStringT@DV?$StrTraitMFC_DLL@DV?$ChTraitsCRT@D@ATL@@@@@ATL@@QAE@XZ
__unwindfunclet$?CalculateDrawingRegion@CBlockImp@@QAEXPAVCDC@@ABVCRect@@ABVCVertScaleRegionWidth@@@Z$6:
  00018	8d 8d f4 fe ff
	ff		 lea	 ecx, DWORD PTR _inputData$5[ebp]
  0001e	e9 00 00 00 00	 jmp	 ??1CHorzDisplayDataMinMaxInputData@@QAE@XZ
__unwindfunclet$?CalculateDrawingRegion@CBlockImp@@QAEXPAVCDC@@ABVCRect@@ABVCVertScaleRegionWidth@@@Z$1:
  00023	8d 8d 2c ff ff
	ff		 lea	 ecx, DWORD PTR $T15[ebp]
  00029	ff 25 00 00 00
	00		 jmp	 DWORD PTR __imp_??1?$CStringT@DV?$StrTraitMFC_DLL@DV?$ChTraitsCRT@D@ATL@@@@@ATL@@QAE@XZ
__unwindfunclet$?CalculateDrawingRegion@CBlockImp@@QAEXPAVCDC@@ABVCRect@@ABVCVertScaleRegionWidth@@@Z$2:
  0002f	8d 8d d8 fe ff
	ff		 lea	 ecx, DWORD PTR _calData$4[ebp]
  00035	e9 00 00 00 00	 jmp	 ??1CHorzScaleMaxWidthCalculatorData@@QAE@XZ
__unwindfunclet$?CalculateDrawingRegion@CBlockImp@@QAEXPAVCDC@@ABVCRect@@ABVCVertScaleRegionWidth@@@Z$3:
  0003a	8d 8d 48 fe ff
	ff		 lea	 ecx, DWORD PTR _gsi$[ebp]
  00040	e9 00 00 00 00	 jmp	 ??1CGraphSearchInfo_IndicatorName@@QAE@XZ
  00045	cc		 int	 3
  00046	cc		 int	 3
  00047	cc		 int	 3
  00048	cc		 int	 3
  00049	cc		 int	 3
__ehhandler$?CalculateDrawingRegion@CBlockImp@@QAEXPAVCDC@@ABVCRect@@ABVCVertScaleRegionWidth@@@Z:
  0004a	90		 npad	 1
  0004b	90		 npad	 1
  0004c	8b 54 24 08	 mov	 edx, DWORD PTR [esp+8]
  00050	8d 42 0c	 lea	 eax, DWORD PTR [edx+12]
  00053	8b 8a 00 fe ff
	ff		 mov	 ecx, DWORD PTR [edx-512]
  00059	33 c8		 xor	 ecx, eax
  0005b	e8 00 00 00 00	 call	 @__security_check_cookie@4
  00060	8b 4a fc	 mov	 ecx, DWORD PTR [edx-4]
  00063	33 c8		 xor	 ecx, eax
  00065	e8 00 00 00 00	 call	 @__security_check_cookie@4
  0006a	b8 00 00 00 00	 mov	 eax, OFFSET __ehfuncinfo$?CalculateDrawingRegion@CBlockImp@@QAEXPAVCDC@@ABVCRect@@ABVCVertScaleRegionWidth@@@Z
  0006f	e9 00 00 00 00	 jmp	 ___CxxFrameHandler3
text$x	ENDS
?CalculateDrawingRegion@CBlockImp@@QAEXPAVCDC@@ABVCRect@@ABVCVertScaleRegionWidth@@@Z ENDP ; CBlockImp::CalculateDrawingRegion
; Function compile flags: /Ogtp
; File D:\git\src\IBK\IBK_DRFN\ProjSrc\SrcChartEx\ChartOCX\ChartObject\BlockImp.cpp
; File D:\git\src\IBK\IBK_DRFN\ProjSrc\SrcChartEx\ChartOCX\Include_Chart\BlockBaseData.h
; File D:\git\src\IBK\IBK_DRFN\ProjSrc\SrcChartEx\ChartOCX\ChartObject\BlockImp.cpp
; File D:\git\src\IBK\IBK_DRFN\ProjSrc\SrcChartEx\ChartOCX\Include_Chart\BaseData.h
; File D:\git\src\IBK\IBK_DRFN\ProjSrc\SrcChartEx\ChartOCX\ChartObject\BlockImp.cpp
; File D:\git\src\IBK\IBK_DRFN\ProjSrc\SrcChartEx\ChartOCX\Include_Chart\BaseData.h
; File D:\git\src\IBK\IBK_DRFN\ProjSrc\SrcChartEx\ChartOCX\ChartObject\BlockImp.cpp
; File C:\Program Files (x86)\Microsoft Visual Studio\2019\Community\VC\Tools\MSVC\14.29.30133\atlmfc\include\atlsimpstr.h
; File D:\git\src\IBK\IBK_DRFN\ProjSrc\SrcChartEx\ChartOCX\ChartObject\BlockImp.cpp
;	COMDAT ?DrawHorzAndVertScale@CBlockImp@@QAEXPAVCDC@@ABVCRect@@@Z
_TEXT	SEGMENT
$T2 = -344						; size = 12
$T3 = -332						; size = 8
tv316 = -324						; size = 4
_pDC$GSCopy$1$ = -320					; size = 4
tv310 = -316						; size = 4
$T4 = -316						; size = 4
$T5 = -312						; size = 4
_eGraphType$ = -308					; size = 4
_graphStyle$ = -304					; size = 4
_this$GSCopy$1$ = -300					; size = 4
$T6 = -293						; size = 1
_drawingHorzScaleData$ = -292				; size = 96
_drawingRegion$ = -196					; size = 132
$T7 = -64						; size = 32
$T8 = -32						; size = 16
__$ArrayPad$ = -16					; size = 4
__$EHRec$ = -12						; size = 12
_pDC$ = 8						; size = 4
_blockRegion$ = 12					; size = 4
?DrawHorzAndVertScale@CBlockImp@@QAEXPAVCDC@@ABVCRect@@@Z PROC ; CBlockImp::DrawHorzAndVertScale, COMDAT
; _this$ = ecx

; 316  : {

  00000	55		 push	 ebp
  00001	8b ec		 mov	 ebp, esp
  00003	6a ff		 push	 -1
  00005	68 00 00 00 00	 push	 __ehhandler$?DrawHorzAndVertScale@CBlockImp@@QAEXPAVCDC@@ABVCRect@@@Z
  0000a	64 a1 00 00 00
	00		 mov	 eax, DWORD PTR fs:0
  00010	50		 push	 eax
  00011	81 ec 4c 01 00
	00		 sub	 esp, 332		; 0000014cH
  00017	a1 00 00 00 00	 mov	 eax, DWORD PTR ___security_cookie
  0001c	33 c5		 xor	 eax, ebp
  0001e	89 45 f0	 mov	 DWORD PTR __$ArrayPad$[ebp], eax
  00021	56		 push	 esi
  00022	57		 push	 edi
  00023	50		 push	 eax
  00024	8d 45 f4	 lea	 eax, DWORD PTR __$EHRec$[ebp]
  00027	64 a3 00 00 00
	00		 mov	 DWORD PTR fs:0, eax
  0002d	8b f1		 mov	 esi, ecx
  0002f	89 b5 d4 fe ff
	ff		 mov	 DWORD PTR _this$GSCopy$1$[ebp], esi
  00035	8b 45 08	 mov	 eax, DWORD PTR _pDC$[ebp]

; 320  : 	CSubGraph *pSubGraph = m_vertScaleGroupList.GetSubGraph( 0, 0, 0);

  00038	8d be 90 00 00
	00		 lea	 edi, DWORD PTR [esi+144]
  0003e	6a 00		 push	 0
  00040	6a 00		 push	 0
  00042	6a 00		 push	 0
  00044	8b cf		 mov	 ecx, edi
  00046	89 85 c0 fe ff
	ff		 mov	 DWORD PTR _pDC$GSCopy$1$[ebp], eax
  0004c	c7 85 cc fe ff
	ff ff ff ff ff	 mov	 DWORD PTR _eGraphType$[ebp], -1
; File D:\git\src\IBK\IBK_DRFN\ProjSrc\SrcChartEx\ChartOCX\Include_Chart\BlockBaseData.h

; 42   : 	CGraphStyle() { m_nStyle = -1; };

  00056	c7 85 d0 fe ff
	ff ff ff ff ff	 mov	 DWORD PTR _graphStyle$[ebp], -1
; File D:\git\src\IBK\IBK_DRFN\ProjSrc\SrcChartEx\ChartOCX\ChartObject\BlockImp.cpp

; 320  : 	CSubGraph *pSubGraph = m_vertScaleGroupList.GetSubGraph( 0, 0, 0);

  00060	89 bd bc fe ff
	ff		 mov	 DWORD PTR tv316[ebp], edi
  00066	e8 00 00 00 00	 call	 ?GetSubGraph@CVertScaleGroupList@@QBEPAVCSubGraph@@HHH@Z ; CVertScaleGroupList::GetSubGraph

; 321  : 	if( pSubGraph)

  0006b	85 c0		 test	 eax, eax
  0006d	74 34		 je	 SHORT $LN2@DrawHorzAn

; 322  : 	{
; 323  : 		CSubGraphData &subGraphData = pSubGraph->GetSubGraphData();

  0006f	8b c8		 mov	 ecx, eax
  00071	e8 00 00 00 00	 call	 ?GetSubGraphData@CSubGraph@@QAEAAVCSubGraphData@@XZ ; CSubGraph::GetSubGraphData
  00076	8b f0		 mov	 esi, eax

; 324  : 		eGraphType = subGraphData.GetType();

  00078	8b ce		 mov	 ecx, esi
  0007a	ff 15 00 00 00
	00		 call	 DWORD PTR __imp_?GetType@CSubGraphDataBase@@QBE?AW4GRAPHTYPE@CGraphBaseData@@XZ
  00080	89 85 cc fe ff
	ff		 mov	 DWORD PTR _eGraphType$[ebp], eax

; 325  : 		graphStyle = subGraphData.GetStyle();

  00086	8b ce		 mov	 ecx, esi
  00088	8d 85 c4 fe ff
	ff		 lea	 eax, DWORD PTR $T4[ebp]
  0008e	50		 push	 eax
  0008f	ff 15 00 00 00
	00		 call	 DWORD PTR __imp_?GetStyle@CSubGraphDataBase@@QBE?AVCGraphStyle@@XZ
  00095	8b b5 d4 fe ff
	ff		 mov	 esi, DWORD PTR _this$GSCopy$1$[ebp]
  0009b	8b 00		 mov	 eax, DWORD PTR [eax]
  0009d	89 85 d0 fe ff
	ff		 mov	 DWORD PTR _graphStyle$[ebp], eax
$LN2@DrawHorzAn:

; 326  : 	}
; 327  : 	if( !m_pBlocksColumn) return;

  000a3	83 7e 08 00	 cmp	 DWORD PTR [esi+8], 0
  000a7	0f 84 75 01 00
	00		 je	 $LN1@DrawHorzAn

; 328  : 
; 329  : 	CDrawingRegion drawingRegion = m_vertScaleGroupList.GetDrawingRegion();

  000ad	8d 85 3c ff ff
	ff		 lea	 eax, DWORD PTR _drawingRegion$[ebp]
  000b3	8b cf		 mov	 ecx, edi
  000b5	50		 push	 eax
  000b6	e8 00 00 00 00	 call	 ?GetDrawingRegion@CVertScaleGroupList@@QBE?AVCDrawingRegion@@XZ ; CVertScaleGroupList::GetDrawingRegion

; 475  : 	if( !m_pMainBlockBaseData) return NULL;

  000bb	8b 4e 04	 mov	 ecx, DWORD PTR [esi+4]
  000be	85 c9		 test	 ecx, ecx
  000c0	75 04		 jne	 SHORT $LN9@DrawHorzAn
  000c2	33 ff		 xor	 edi, edi
  000c4	eb 0e		 jmp	 SHORT $LN8@DrawHorzAn
$LN9@DrawHorzAn:

; 476  : 	return m_pMainBlockBaseData->GetMainAttributes().GetMainBlockImpl();

  000c6	e8 00 00 00 00	 call	 ?GetMainAttributes@CMainBlockBaseData@@QAEAAVCMainAttributes@@XZ ; CMainBlockBaseData::GetMainAttributes
  000cb	8b c8		 mov	 ecx, eax
  000cd	e8 00 00 00 00	 call	 ?GetMainBlockImpl@CMainAttributes@@QBEPAVCMainBlockImp@@XZ ; CMainAttributes::GetMainBlockImpl
  000d2	8b f8		 mov	 edi, eax
$LN8@DrawHorzAn:

; 332  : 	CDrawingHorzScaleData drawingHorzScaleData( drawingRegion.GetGraphRegions().GetNoFrameRegionAndMargin(), eGraphType, graphStyle, 

  000d4	8d 8d 3c ff ff
	ff		 lea	 ecx, DWORD PTR _drawingRegion$[ebp]
  000da	e8 00 00 00 00	 call	 ?GetGraphRegions@CDrawingRegion@@QAEAAVCGraphRegions@@XZ ; CDrawingRegion::GetGraphRegions
  000df	8b 4e 08	 mov	 ecx, DWORD PTR [esi+8]
; File D:\git\src\IBK\IBK_DRFN\ProjSrc\SrcChartEx\ChartOCX\Include_Chart\BaseData.h

; 94   : 	CRect	GetNoFrameRegionAndMargin() const	{	return m_rctNoFrameAndMargin;	}

  000e2	0f 10 40 24	 movups	 xmm0, XMMWORD PTR [eax+36]
; File D:\git\src\IBK\IBK_DRFN\ProjSrc\SrcChartEx\ChartOCX\ChartObject\BlockImp.cpp

; 332  : 	CDrawingHorzScaleData drawingHorzScaleData( drawingRegion.GetGraphRegions().GetNoFrameRegionAndMargin(), eGraphType, graphStyle, 

  000e6	8d 46 10	 lea	 eax, DWORD PTR [esi+16]
  000e9	89 85 c4 fe ff
	ff		 mov	 DWORD PTR tv310[ebp], eax
; File D:\git\src\IBK\IBK_DRFN\ProjSrc\SrcChartEx\ChartOCX\Include_Chart\BaseData.h

; 94   : 	CRect	GetNoFrameRegionAndMargin() const	{	return m_rctNoFrameAndMargin;	}

  000ef	0f 11 45 e0	 movups	 XMMWORD PTR $T8[ebp], xmm0
; File D:\git\src\IBK\IBK_DRFN\ProjSrc\SrcChartEx\ChartOCX\ChartObject\BlockImp.cpp

; 332  : 	CDrawingHorzScaleData drawingHorzScaleData( drawingRegion.GetGraphRegions().GetNoFrameRegionAndMargin(), eGraphType, graphStyle, 

  000f3	e8 00 00 00 00	 call	 ?GetColumnIndex@CBlocksColumn@@QAEHXZ ; CBlocksColumn::GetColumnIndex
  000f8	50		 push	 eax
  000f9	8b 07		 mov	 eax, DWORD PTR [edi]
  000fb	8b cf		 mov	 ecx, edi
  000fd	8b 80 10 02 00
	00		 mov	 eax, DWORD PTR [eax+528]
  00103	ff d0		 call	 eax
  00105	50		 push	 eax
  00106	8b 06		 mov	 eax, DWORD PTR [esi]
  00108	8b ce		 mov	 ecx, esi
  0010a	8b 40 30	 mov	 eax, DWORD PTR [eax+48]
  0010d	ff d0		 call	 eax
  0010f	50		 push	 eax
  00110	8d 4e 10	 lea	 ecx, DWORD PTR [esi+16]
  00113	e8 00 00 00 00	 call	 ?GetDisplayDataHorzMinMax@CBlockData@@QAEAAVCDisplayDataMinMax@@XZ ; CBlockData::GetDisplayDataHorzMinMax
  00118	8b 4e 04	 mov	 ecx, DWORD PTR [esi+4]
  0011b	50		 push	 eax
  0011c	8d 85 b4 fe ff
	ff		 lea	 eax, DWORD PTR $T3[ebp]
  00122	50		 push	 eax
  00123	e8 00 00 00 00	 call	 ?GetDisplayAttributes@CMainBlockBaseData@@QBE?AVCDisplayAttributes@@XZ ; CMainBlockBaseData::GetDisplayAttributes
  00128	8b 4e 04	 mov	 ecx, DWORD PTR [esi+4]
  0012b	50		 push	 eax
  0012c	e8 00 00 00 00	 call	 ?GetScaleAttributes@CMainBlockBaseData@@QAEAAVCScaleAttributes@@XZ ; CMainBlockBaseData::GetScaleAttributes
  00131	8b c8		 mov	 ecx, eax
  00133	e8 00 00 00 00	 call	 ?GetScaleColor@CScaleAttributes@@QAEAAVCScaleColor@@XZ ; CScaleAttributes::GetScaleColor
  00138	8b 4e 04	 mov	 ecx, DWORD PTR [esi+4]
  0013b	50		 push	 eax
  0013c	8d 85 a8 fe ff
	ff		 lea	 eax, DWORD PTR $T2[ebp]
  00142	50		 push	 eax
  00143	e8 00 00 00 00	 call	 ?GetGraphRegionColor@CMainBlockBaseData@@QBE?AVCGraphRegionColor@@XZ ; CMainBlockBaseData::GetGraphRegionColor
  00148	50		 push	 eax
  00149	8d 85 d0 fe ff
	ff		 lea	 eax, DWORD PTR _graphStyle$[ebp]
  0014f	50		 push	 eax
  00150	8d 85 cc fe ff
	ff		 lea	 eax, DWORD PTR _eGraphType$[ebp]
  00156	50		 push	 eax
  00157	8d 45 e0	 lea	 eax, DWORD PTR $T8[ebp]
  0015a	50		 push	 eax
  0015b	8d 8d dc fe ff
	ff		 lea	 ecx, DWORD PTR _drawingHorzScaleData$[ebp]
  00161	e8 00 00 00 00	 call	 ??0CDrawingHorzScaleData@@QAE@ABVCRect@@ABW4GRAPHTYPE@CGraphBaseData@@ABVCGraphStyle@@ABVCGraphRegionColor@@ABVCScaleColor@@ABVCDisplayAttributes@@ABVCDisplayDataMinMax@@PAVCPacket@@HH@Z ; CDrawingHorzScaleData::CDrawingHorzScaleData

; 475  : 	if( !m_pMainBlockBaseData) return NULL;

  00166	8b 4e 04	 mov	 ecx, DWORD PTR [esi+4]
  00169	85 c9		 test	 ecx, ecx
  0016b	74 0e		 je	 SHORT $LN13@DrawHorzAn
$LN14@DrawHorzAn:

; 476  : 	return m_pMainBlockBaseData->GetMainAttributes().GetMainBlockImpl();

  0016d	e8 00 00 00 00	 call	 ?GetMainAttributes@CMainBlockBaseData@@QAEAAVCMainAttributes@@XZ ; CMainBlockBaseData::GetMainAttributes
  00172	8b c8		 mov	 ecx, eax
  00174	e8 00 00 00 00	 call	 ?GetMainBlockImpl@CMainAttributes@@QBEPAVCMainBlockImp@@XZ ; CMainAttributes::GetMainBlockImpl
  00179	8b c8		 mov	 ecx, eax
$LN13@DrawHorzAn:

; 333  : 		m_pMainBlockBaseData->GetGraphRegionColor(), m_pMainBlockBaseData->GetScaleAttributes().GetScaleColor(),
; 334  : 		m_pMainBlockBaseData->GetDisplayAttributes(), m_blockData.GetDisplayDataHorzMinMax(),
; 335  : 		GetHorzScaleDataPacket(), pMainBlock->GetDrawFutureScale(), m_pBlocksColumn->GetColumnIndex());
; 336  : 
; 337  : 	// RQ Unit  :  - ojtaso (20070601)
; 338  :   	CXScaleManager* pxScaleManager = GetMainBlock()->GetXScaleManager();

  0017b	8b 01		 mov	 eax, DWORD PTR [ecx]
  0017d	8b 80 44 02 00
	00		 mov	 eax, DWORD PTR [eax+580]
  00183	ff d0		 call	 eax

; 782  : 	return m_pBlocksColumn->GetHorzScaleDataRQ( this);

  00185	8b 4e 08	 mov	 ecx, DWORD PTR [esi+8]

; 333  : 		m_pMainBlockBaseData->GetGraphRegionColor(), m_pMainBlockBaseData->GetScaleAttributes().GetScaleColor(),
; 334  : 		m_pMainBlockBaseData->GetDisplayAttributes(), m_blockData.GetDisplayDataHorzMinMax(),
; 335  : 		GetHorzScaleDataPacket(), pMainBlock->GetDrawFutureScale(), m_pBlocksColumn->GetColumnIndex());
; 336  : 
; 337  : 	// RQ Unit  :  - ojtaso (20070601)
; 338  :   	CXScaleManager* pxScaleManager = GetMainBlock()->GetXScaleManager();

  00188	8b f8		 mov	 edi, eax

; 782  : 	return m_pBlocksColumn->GetHorzScaleDataRQ( this);

  0018a	56		 push	 esi
  0018b	8d 85 c8 fe ff
	ff		 lea	 eax, DWORD PTR $T5[ebp]
  00191	50		 push	 eax
  00192	e8 00 00 00 00	 call	 ?GetHorzScaleDataRQ@CBlocksColumn@@QAE?AV?$CStringT@DV?$StrTraitMFC_DLL@DV?$ChTraitsCRT@D@ATL@@@@@ATL@@PAVCBlockImp@@@Z ; CBlocksColumn::GetHorzScaleDataRQ

; 339  : 	CBlockScaleDrawer().DrawHorzScale(pDC, &drawingHorzScaleData, drawingRegion.GetHorzScaleRegion(), m_blockData.GetHorzScale(), pxScaleManager, GetHorzScaleDataRQ(), m_pMainBlockBaseData->GetParent_Handle(), m_pMainBlockBaseData->GetMainAttributes().GetChartMode());

  00197	8b 8d d4 fe ff
	ff		 mov	 ecx, DWORD PTR _this$GSCopy$1$[ebp]
; File C:\Program Files (x86)\Microsoft Visual Studio\2019\Community\VC\Tools\MSVC\14.29.30133\atlmfc\include\atlsimpstr.h

; 377  : 		return( m_pszData );

  0019d	8b b5 c8 fe ff
	ff		 mov	 esi, DWORD PTR $T5[ebp]
; File D:\git\src\IBK\IBK_DRFN\ProjSrc\SrcChartEx\ChartOCX\ChartObject\BlockImp.cpp

; 339  : 	CBlockScaleDrawer().DrawHorzScale(pDC, &drawingHorzScaleData, drawingRegion.GetHorzScaleRegion(), m_blockData.GetHorzScale(), pxScaleManager, GetHorzScaleDataRQ(), m_pMainBlockBaseData->GetParent_Handle(), m_pMainBlockBaseData->GetMainAttributes().GetChartMode());

  001a3	c7 45 fc 00 00
	00 00		 mov	 DWORD PTR __$EHRec$[ebp+8], 0
  001aa	8b 49 04	 mov	 ecx, DWORD PTR [ecx+4]
  001ad	e8 00 00 00 00	 call	 ?GetMainAttributes@CMainBlockBaseData@@QAEAAVCMainAttributes@@XZ ; CMainBlockBaseData::GetMainAttributes
  001b2	8b c8		 mov	 ecx, eax
  001b4	e8 00 00 00 00	 call	 ?GetChartMode@CMainAttributes@@QBE?AW4CHART_MODE@CChartInfo@@XZ ; CMainAttributes::GetChartMode
  001b9	50		 push	 eax
  001ba	8b 85 d4 fe ff
	ff		 mov	 eax, DWORD PTR _this$GSCopy$1$[ebp]
  001c0	8b 48 04	 mov	 ecx, DWORD PTR [eax+4]
  001c3	e8 00 00 00 00	 call	 ?GetParent_Handle@CMainBlockBaseData@@QBEPAUHWND__@@XZ ; CMainBlockBaseData::GetParent_Handle
  001c8	50		 push	 eax
  001c9	56		 push	 esi
  001ca	57		 push	 edi
  001cb	8b bd c4 fe ff
	ff		 mov	 edi, DWORD PTR tv310[ebp]
  001d1	8b cf		 mov	 ecx, edi
  001d3	e8 00 00 00 00	 call	 ?GetHorzScale@CBlockData@@QAEAAVCHorizontalScale@@XZ ; CBlockData::GetHorzScale
  001d8	50		 push	 eax
  001d9	8d 45 c0	 lea	 eax, DWORD PTR $T7[ebp]
  001dc	50		 push	 eax
  001dd	8d 8d 3c ff ff
	ff		 lea	 ecx, DWORD PTR _drawingRegion$[ebp]
  001e3	e8 00 00 00 00	 call	 ?GetHorzScaleRegion@CDrawingRegion@@QBE?AVCHorzScaleRegion@@XZ ; CDrawingRegion::GetHorzScaleRegion
  001e8	8b b5 c0 fe ff
	ff		 mov	 esi, DWORD PTR _pDC$GSCopy$1$[ebp]
  001ee	8d 8d db fe ff
	ff		 lea	 ecx, DWORD PTR $T6[ebp]
  001f4	50		 push	 eax
  001f5	8d 85 dc fe ff
	ff		 lea	 eax, DWORD PTR _drawingHorzScaleData$[ebp]
  001fb	50		 push	 eax
  001fc	56		 push	 esi
  001fd	e8 00 00 00 00	 call	 ?DrawHorzScale@CBlockScaleDrawer@@QAEXPAVCDC@@PAVCDrawingHorzScaleData@@ABVCHorzScaleRegion@@ABVCHorizontalScale@@PAVCXScaleManager@@PBDPAUHWND__@@W4CHART_MODE@CChartInfo@@@Z ; CBlockScaleDrawer::DrawHorzScale
  00202	8d 8d c8 fe ff
	ff		 lea	 ecx, DWORD PTR $T5[ebp]
  00208	c7 45 fc ff ff
	ff ff		 mov	 DWORD PTR __$EHRec$[ebp+8], -1
  0020f	ff 15 00 00 00
	00		 call	 DWORD PTR __imp_??1?$CStringT@DV?$StrTraitMFC_DLL@DV?$ChTraitsCRT@D@ATL@@@@@ATL@@QAE@XZ

; 340  : 
; 341  : 	m_vertScaleGroupList.DrawVertScale(pDC, m_blockData);

  00215	8b 8d bc fe ff
	ff		 mov	 ecx, DWORD PTR tv316[ebp]
  0021b	57		 push	 edi
  0021c	56		 push	 esi
  0021d	e8 00 00 00 00	 call	 ?DrawVertScale@CVertScaleGroupList@@QAEXPAVCDC@@ABVCBlockData@@@Z ; CVertScaleGroupList::DrawVertScale
$LN1@DrawHorzAn:

; 342  : }

  00222	8b 4d f4	 mov	 ecx, DWORD PTR __$EHRec$[ebp]
  00225	64 89 0d 00 00
	00 00		 mov	 DWORD PTR fs:0, ecx
  0022c	59		 pop	 ecx
  0022d	5f		 pop	 edi
  0022e	5e		 pop	 esi
  0022f	8b 4d f0	 mov	 ecx, DWORD PTR __$ArrayPad$[ebp]
  00232	33 cd		 xor	 ecx, ebp
  00234	e8 00 00 00 00	 call	 @__security_check_cookie@4
  00239	8b e5		 mov	 esp, ebp
  0023b	5d		 pop	 ebp
  0023c	c2 08 00	 ret	 8
_TEXT	ENDS
;	COMDAT text$x
text$x	SEGMENT
__unwindfunclet$?DrawHorzAndVertScale@CBlockImp@@QAEXPAVCDC@@ABVCRect@@@Z$0:
  00000	8d 8d c8 fe ff
	ff		 lea	 ecx, DWORD PTR $T5[ebp]
  00006	ff 25 00 00 00
	00		 jmp	 DWORD PTR __imp_??1?$CStringT@DV?$StrTraitMFC_DLL@DV?$ChTraitsCRT@D@ATL@@@@@ATL@@QAE@XZ
  0000c	cc		 int	 3
  0000d	cc		 int	 3
  0000e	cc		 int	 3
  0000f	cc		 int	 3
  00010	cc		 int	 3
__ehhandler$?DrawHorzAndVertScale@CBlockImp@@QAEXPAVCDC@@ABVCRect@@@Z:
  00011	90		 npad	 1
  00012	90		 npad	 1
  00013	8b 54 24 08	 mov	 edx, DWORD PTR [esp+8]
  00017	8d 42 0c	 lea	 eax, DWORD PTR [edx+12]
  0001a	8b 8a a8 fe ff
	ff		 mov	 ecx, DWORD PTR [edx-344]
  00020	33 c8		 xor	 ecx, eax
  00022	e8 00 00 00 00	 call	 @__security_check_cookie@4
  00027	8b 4a fc	 mov	 ecx, DWORD PTR [edx-4]
  0002a	33 c8		 xor	 ecx, eax
  0002c	e8 00 00 00 00	 call	 @__security_check_cookie@4
  00031	b8 00 00 00 00	 mov	 eax, OFFSET __ehfuncinfo$?DrawHorzAndVertScale@CBlockImp@@QAEXPAVCDC@@ABVCRect@@@Z
  00036	e9 00 00 00 00	 jmp	 ___CxxFrameHandler3
text$x	ENDS
?DrawHorzAndVertScale@CBlockImp@@QAEXPAVCDC@@ABVCRect@@@Z ENDP ; CBlockImp::DrawHorzAndVertScale
; Function compile flags: /Ogtp
; File D:\git\src\IBK\IBK_DRFN\ProjSrc\SrcChartEx\ChartOCX\ChartObject\BlockImp.cpp
;	COMDAT ?DrawBlockBackground@CBlockImp@@QAEXPAVCDC@@ABVCRect@@H@Z
_TEXT	SEGMENT
$T2 = -184						; size = 12
$T3 = -172						; size = 8
$T4 = -164						; size = 132
$T5 = -32						; size = 16
__$ArrayPad$ = -16					; size = 4
__$EHRec$ = -12						; size = 12
_pDC$ = 8						; size = 4
_blockRegion$ = 12					; size = 4
_interBlockHalfGap$ = 16				; size = 4
?DrawBlockBackground@CBlockImp@@QAEXPAVCDC@@ABVCRect@@H@Z PROC ; CBlockImp::DrawBlockBackground, COMDAT
; _this$ = ecx

; 297  : {

  00000	55		 push	 ebp
  00001	8b ec		 mov	 ebp, esp
  00003	6a ff		 push	 -1
  00005	68 00 00 00 00	 push	 __ehhandler$?DrawBlockBackground@CBlockImp@@QAEXPAVCDC@@ABVCRect@@H@Z
  0000a	64 a1 00 00 00
	00		 mov	 eax, DWORD PTR fs:0
  00010	50		 push	 eax
  00011	81 ec ac 00 00
	00		 sub	 esp, 172		; 000000acH
  00017	a1 00 00 00 00	 mov	 eax, DWORD PTR ___security_cookie
  0001c	33 c5		 xor	 eax, ebp
  0001e	89 45 f0	 mov	 DWORD PTR __$ArrayPad$[ebp], eax
  00021	53		 push	 ebx
  00022	56		 push	 esi
  00023	57		 push	 edi
  00024	50		 push	 eax
  00025	8d 45 f4	 lea	 eax, DWORD PTR __$EHRec$[ebp]
  00028	64 a3 00 00 00
	00		 mov	 DWORD PTR fs:0, eax
  0002e	8b f9		 mov	 edi, ecx
  00030	8b 45 0c	 mov	 eax, DWORD PTR _blockRegion$[ebp]
  00033	8b 5d 08	 mov	 ebx, DWORD PTR _pDC$[ebp]

; 298  : 	//sy test
; 299  : 	CDataConversion::SelectClipRegion(pDC, blockRegion);

  00036	50		 push	 eax
  00037	53		 push	 ebx
  00038	e8 00 00 00 00	 call	 ?SelectClipRegion@CDataConversion@@SAXPAVCDC@@ABVCRect@@@Z ; CDataConversion::SelectClipRegion
  0003d	83 c4 08	 add	 esp, 8

; 300  : 
; 301  : 	// graph scale .
; 302  : 	if( !m_pMainBlockBaseData) return;

  00040	83 7f 04 00	 cmp	 DWORD PTR [edi+4], 0
  00044	0f 84 9d 00 00
	00		 je	 $LN1@DrawBlockB

; 303  : 	// graph frame .
; 304  : 	CGraphFrameDrawer().DrawGraphFrame(pDC, m_vertScaleGroupList.GetDrawingRegion().GetGraphFrameRegion(), 

  0004a	8d 8d 54 ff ff
	ff		 lea	 ecx, DWORD PTR $T3[ebp]
  00050	ff 15 00 00 00
	00		 call	 DWORD PTR __imp_??0CGraphFrameDrawer@@QAE@XZ
  00056	8b f0		 mov	 esi, eax
  00058	8b 4f 04	 mov	 ecx, DWORD PTR [edi+4]
  0005b	8d 85 48 ff ff
	ff		 lea	 eax, DWORD PTR $T2[ebp]
  00061	50		 push	 eax
  00062	c7 45 fc 00 00
	00 00		 mov	 DWORD PTR __$EHRec$[ebp+8], 0
  00069	e8 00 00 00 00	 call	 ?GetGraphRegionColor@CMainBlockBaseData@@QBE?AVCGraphRegionColor@@XZ ; CMainBlockBaseData::GetGraphRegionColor
  0006e	8b 4f 04	 mov	 ecx, DWORD PTR [edi+4]
  00071	50		 push	 eax
  00072	e8 00 00 00 00	 call	 ?GetGraphAttributes@CMainBlockBaseData@@QAEAAVCGraphAttributes@@XZ ; CMainBlockBaseData::GetGraphAttributes
  00077	8b c8		 mov	 ecx, eax
  00079	e8 00 00 00 00	 call	 ?GetGraphBackgroundGapY@CGraphAttributes@@QBEHXZ ; CGraphAttributes::GetGraphBackgroundGapY
  0007e	8b 4f 04	 mov	 ecx, DWORD PTR [edi+4]
  00081	50		 push	 eax
  00082	e8 00 00 00 00	 call	 ?GetGraphAttributes@CMainBlockBaseData@@QAEAAVCGraphAttributes@@XZ ; CMainBlockBaseData::GetGraphAttributes
  00087	8b c8		 mov	 ecx, eax
  00089	e8 00 00 00 00	 call	 ?GetGraphBackgroundGapX@CGraphAttributes@@QBEHXZ ; CGraphAttributes::GetGraphBackgroundGapX
  0008e	8b 4f 04	 mov	 ecx, DWORD PTR [edi+4]
  00091	50		 push	 eax
  00092	e8 00 00 00 00	 call	 ?GetGraphRegionFrameThickness@CMainBlockBaseData@@QBEHXZ ; CMainBlockBaseData::GetGraphRegionFrameThickness
  00097	8b 4f 04	 mov	 ecx, DWORD PTR [edi+4]
  0009a	50		 push	 eax
  0009b	ff 75 10	 push	 DWORD PTR _interBlockHalfGap$[ebp]
  0009e	e8 00 00 00 00	 call	 ?GetBlockCompartType@CMainBlockBaseData@@QBE?AW4BLOCKCOMPART@CBlockBaseData@@XZ ; CMainBlockBaseData::GetBlockCompartType
  000a3	50		 push	 eax
  000a4	8d 45 e0	 lea	 eax, DWORD PTR $T5[ebp]
  000a7	50		 push	 eax
  000a8	8d 85 5c ff ff
	ff		 lea	 eax, DWORD PTR $T4[ebp]
  000ae	50		 push	 eax
  000af	8d 8f 90 00 00
	00		 lea	 ecx, DWORD PTR [edi+144]
  000b5	e8 00 00 00 00	 call	 ?GetDrawingRegion@CVertScaleGroupList@@QBE?AVCDrawingRegion@@XZ ; CVertScaleGroupList::GetDrawingRegion
  000ba	8b c8		 mov	 ecx, eax
  000bc	e8 00 00 00 00	 call	 ?GetGraphFrameRegion@CDrawingRegion@@QBE?AVCRect@@XZ ; CDrawingRegion::GetGraphFrameRegion
  000c1	50		 push	 eax
  000c2	53		 push	 ebx
  000c3	8b ce		 mov	 ecx, esi
  000c5	ff 15 00 00 00
	00		 call	 DWORD PTR __imp_?DrawGraphFrame@CGraphFrameDrawer@@QAEXPAVCDC@@ABVCRect@@W4BLOCKCOMPART@CBlockBaseData@@HHHHABVCGraphRegionColor@@@Z
  000cb	8d 8d 54 ff ff
	ff		 lea	 ecx, DWORD PTR $T3[ebp]
  000d1	c7 45 fc ff ff
	ff ff		 mov	 DWORD PTR __$EHRec$[ebp+8], -1
  000d8	ff 15 00 00 00
	00		 call	 DWORD PTR __imp_??1CGraphFrameDrawer@@UAE@XZ

; 305  : 				m_pMainBlockBaseData->GetBlockCompartType(), interBlockHalfGap, 
; 306  : 				m_pMainBlockBaseData->GetGraphRegionFrameThickness(), 
; 307  : 				m_pMainBlockBaseData->GetGraphAttributes().GetGraphBackgroundGapX(), 
; 308  : 				m_pMainBlockBaseData->GetGraphAttributes().GetGraphBackgroundGapY(),  
; 309  : 				m_pMainBlockBaseData->GetGraphRegionColor());
; 310  : 
; 311  : 	CDataConversion::SelectClipRegion(pDC);

  000de	53		 push	 ebx
  000df	e8 00 00 00 00	 call	 ?SelectClipRegion@CDataConversion@@SAXPAVCDC@@@Z ; CDataConversion::SelectClipRegion
  000e4	83 c4 04	 add	 esp, 4
$LN1@DrawBlockB:

; 312  : }

  000e7	8b 4d f4	 mov	 ecx, DWORD PTR __$EHRec$[ebp]
  000ea	64 89 0d 00 00
	00 00		 mov	 DWORD PTR fs:0, ecx
  000f1	59		 pop	 ecx
  000f2	5f		 pop	 edi
  000f3	5e		 pop	 esi
  000f4	5b		 pop	 ebx
  000f5	8b 4d f0	 mov	 ecx, DWORD PTR __$ArrayPad$[ebp]
  000f8	33 cd		 xor	 ecx, ebp
  000fa	e8 00 00 00 00	 call	 @__security_check_cookie@4
  000ff	8b e5		 mov	 esp, ebp
  00101	5d		 pop	 ebp
  00102	c2 0c 00	 ret	 12			; 0000000cH
_TEXT	ENDS
;	COMDAT text$x
text$x	SEGMENT
__unwindfunclet$?DrawBlockBackground@CBlockImp@@QAEXPAVCDC@@ABVCRect@@H@Z$0:
  00000	8d 8d 54 ff ff
	ff		 lea	 ecx, DWORD PTR $T3[ebp]
  00006	ff 25 00 00 00
	00		 jmp	 DWORD PTR __imp_??1CGraphFrameDrawer@@UAE@XZ
  0000c	cc		 int	 3
  0000d	cc		 int	 3
  0000e	cc		 int	 3
  0000f	cc		 int	 3
  00010	cc		 int	 3
__ehhandler$?DrawBlockBackground@CBlockImp@@QAEXPAVCDC@@ABVCRect@@H@Z:
  00011	90		 npad	 1
  00012	90		 npad	 1
  00013	8b 54 24 08	 mov	 edx, DWORD PTR [esp+8]
  00017	8d 42 0c	 lea	 eax, DWORD PTR [edx+12]
  0001a	8b 8a 44 ff ff
	ff		 mov	 ecx, DWORD PTR [edx-188]
  00020	33 c8		 xor	 ecx, eax
  00022	e8 00 00 00 00	 call	 @__security_check_cookie@4
  00027	8b 4a fc	 mov	 ecx, DWORD PTR [edx-4]
  0002a	33 c8		 xor	 ecx, eax
  0002c	e8 00 00 00 00	 call	 @__security_check_cookie@4
  00031	b8 00 00 00 00	 mov	 eax, OFFSET __ehfuncinfo$?DrawBlockBackground@CBlockImp@@QAEXPAVCDC@@ABVCRect@@H@Z
  00036	e9 00 00 00 00	 jmp	 ___CxxFrameHandler3
text$x	ENDS
?DrawBlockBackground@CBlockImp@@QAEXPAVCDC@@ABVCRect@@H@Z ENDP ; CBlockImp::DrawBlockBackground
; Function compile flags: /Ogtp
; File D:\git\src\IBK\IBK_DRFN\ProjSrc\SrcChartEx\ChartOCX\ChartObject\BlockImp.cpp
;	COMDAT ?DeleteGraph@CBlockImp@@UAEHHH@Z
_TEXT	SEGMENT
_p_nV$ = 8						; size = 4
_p_nG$ = 12						; size = 4
?DeleteGraph@CBlockImp@@UAEHHH@Z PROC			; CBlockImp::DeleteGraph, COMDAT
; _this$ = ecx

; 282  : {

  00000	55		 push	 ebp
  00001	8b ec		 mov	 ebp, esp
  00003	56		 push	 esi

; 283  : 	CVertScaleGroup *pVertScaleGroup = m_vertScaleGroupList.GetVertScaleGroup( p_nV);

  00004	ff 75 08	 push	 DWORD PTR _p_nV$[ebp]
  00007	81 c1 90 00 00
	00		 add	 ecx, 144		; 00000090H
  0000d	e8 00 00 00 00	 call	 ?GetVertScaleGroup@CVertScaleGroupList@@QBEPAVCVertScaleGroup@@H@Z ; CVertScaleGroupList::GetVertScaleGroup
  00012	8b f0		 mov	 esi, eax

; 284  : 	if( !pVertScaleGroup) return FALSE;

  00014	85 f6		 test	 esi, esi
  00016	74 22		 je	 SHORT $LN5@DeleteGrap

; 285  : 	CGraphImp *pGraph = pVertScaleGroup->GetGraph( p_nG);

  00018	ff 75 0c	 push	 DWORD PTR _p_nG$[ebp]
  0001b	8b ce		 mov	 ecx, esi
  0001d	e8 00 00 00 00	 call	 ?GetGraph@CVertScaleGroup@@QBEPAVCGraphImp@@H@Z ; CVertScaleGroup::GetGraph

; 286  : 	if( !pGraph) return FALSE;

  00022	85 c0		 test	 eax, eax
  00024	74 14		 je	 SHORT $LN5@DeleteGrap

; 287  : 	pVertScaleGroup->DeleteGraphWithNotify( pGraph);

  00026	6a 01		 push	 1
  00028	50		 push	 eax
  00029	8b ce		 mov	 ecx, esi
  0002b	e8 00 00 00 00	 call	 ?DeleteGraphWithNotify@CVertScaleGroup@@QAE_NPAVCGraphImp@@_N@Z ; CVertScaleGroup::DeleteGraphWithNotify

; 288  : 	return TRUE;

  00030	b8 01 00 00 00	 mov	 eax, 1
  00035	5e		 pop	 esi

; 289  : }

  00036	5d		 pop	 ebp
  00037	c2 08 00	 ret	 8
$LN5@DeleteGrap:

; 286  : 	if( !pGraph) return FALSE;

  0003a	33 c0		 xor	 eax, eax
  0003c	5e		 pop	 esi

; 289  : }

  0003d	5d		 pop	 ebp
  0003e	c2 08 00	 ret	 8
?DeleteGraph@CBlockImp@@UAEHHH@Z ENDP			; CBlockImp::DeleteGraph
_TEXT	ENDS
; Function compile flags: /Ogtp
; File D:\git\src\IBK\IBK_DRFN\ProjSrc\SrcChartEx\ChartOCX\ChartObject\BlockImp.cpp
; File D:\git\src\IBK\IBK_DRFN\ProjSrc\SrcChartEx\ChartOCX\Include_Chart\BlockBaseData.h
