; Listing generated by Microsoft (R) Optimizing Compiler Version 19.29.30145.0 

	TITLE	D:\git\src\IBK\IBK_DRFN\#DRfn-CS\_Obj\ChartObject\CalculatorData.obj
	.686P
	.XMM
	include listing.inc
	.model	flat

INCLUDELIB MSVCRT
INCLUDELIB OLDNAMES

PUBLIC	?__empty_global_delete@@YAXPAX@Z		; __empty_global_delete
PUBLIC	?__empty_global_delete@@YAXPAXI@Z		; __empty_global_delete
PUBLIC	??0CHorzDisplayDataMinMaxInputData@@QAE@PAVCPacket@@ABV?$CStringT@DV?$StrTraitMFC_DLL@DV?$ChTraitsCRT@D@ATL@@@@@ATL@@ABVCDisplayAttributes@@@Z ; CHorzDisplayDataMinMaxInputData::CHorzDisplayDataMinMaxInputData
PUBLIC	?SetPacket@CHorzDisplayDataMinMaxInputData@@QAEXPAVCPacket@@@Z ; CHorzDisplayDataMinMaxInputData::SetPacket
PUBLIC	?SetPacketName@CHorzDisplayDataMinMaxInputData@@QAEXABV?$CStringT@DV?$StrTraitMFC_DLL@DV?$ChTraitsCRT@D@ATL@@@@@ATL@@@Z ; CHorzDisplayDataMinMaxInputData::SetPacketName
PUBLIC	?SetDisplayAttributes@CHorzDisplayDataMinMaxInputData@@QAEXABVCDisplayAttributes@@@Z ; CHorzDisplayDataMinMaxInputData::SetDisplayAttributes
PUBLIC	?GetPacket@CHorzDisplayDataMinMaxInputData@@QBEPAVCPacket@@XZ ; CHorzDisplayDataMinMaxInputData::GetPacket
PUBLIC	?GetPacketName@CHorzDisplayDataMinMaxInputData@@QBE?AV?$CStringT@DV?$StrTraitMFC_DLL@DV?$ChTraitsCRT@D@ATL@@@@@ATL@@XZ ; CHorzDisplayDataMinMaxInputData::GetPacketName
PUBLIC	?GetDisplayAttributes@CHorzDisplayDataMinMaxInputData@@QBE?AVCDisplayAttributes@@XZ ; CHorzDisplayDataMinMaxInputData::GetDisplayAttributes
PUBLIC	??4CVertDisplayDataMinMaxInputData@@QAEAAV0@ABV0@@Z ; CVertDisplayDataMinMaxInputData::operator=
PUBLIC	??0CVertDisplayDataMinMaxInputData@@QAE@XZ	; CVertDisplayDataMinMaxInputData::CVertDisplayDataMinMaxInputData
PUBLIC	??0CVertDisplayDataMinMaxInputData@@QAE@ABV?$CStringT@DV?$StrTraitMFC_DLL@DV?$ChTraitsCRT@D@ATL@@@@@ATL@@00ABVCDisplayAttributes@@@Z ; CVertDisplayDataMinMaxInputData::CVertDisplayDataMinMaxInputData
PUBLIC	?SetSubGraphData@CVertDisplayDataMinMaxInputData@@QAEXPAVCSubGraphData@@@Z ; CVertDisplayDataMinMaxInputData::SetSubGraphData
PUBLIC	?SetSubGraphPacketList@CVertDisplayDataMinMaxInputData@@QAEXPAVCSubGraphPacketList@@@Z ; CVertDisplayDataMinMaxInputData::SetSubGraphPacketList
PUBLIC	?GetGraphName@CVertDisplayDataMinMaxInputData@@QBE?AV?$CStringT@DV?$StrTraitMFC_DLL@DV?$ChTraitsCRT@D@ATL@@@@@ATL@@XZ ; CVertDisplayDataMinMaxInputData::GetGraphName
PUBLIC	?GetIndicatorName@CVertDisplayDataMinMaxInputData@@QBE?AV?$CStringT@DV?$StrTraitMFC_DLL@DV?$ChTraitsCRT@D@ATL@@@@@ATL@@XZ ; CVertDisplayDataMinMaxInputData::GetIndicatorName
PUBLIC	?GetScaleData@CVertDisplayDataMinMaxInputData@@QBE?AV?$CStringT@DV?$StrTraitMFC_DLL@DV?$ChTraitsCRT@D@ATL@@@@@ATL@@XZ ; CVertDisplayDataMinMaxInputData::GetScaleData
PUBLIC	?GetSubGraphType@CVertDisplayDataMinMaxInputData@@QBE?AW4GRAPHTYPE@CGraphBaseData@@XZ ; CVertDisplayDataMinMaxInputData::GetSubGraphType
PUBLIC	?GetSubGraphStyle@CVertDisplayDataMinMaxInputData@@QBE?AVCGraphStyle@@XZ ; CVertDisplayDataMinMaxInputData::GetSubGraphStyle
PUBLIC	?GetDisplayAttributes@CVertDisplayDataMinMaxInputData@@QBE?AVCDisplayAttributes@@XZ ; CVertDisplayDataMinMaxInputData::GetDisplayAttributes
PUBLIC	?GetSubGraphData@CVertDisplayDataMinMaxInputData@@QBEPAVCSubGraphData@@XZ ; CVertDisplayDataMinMaxInputData::GetSubGraphData
PUBLIC	?GetSubGraphPacketList@CVertDisplayDataMinMaxInputData@@QBEPAVCSubGraphPacketList@@XZ ; CVertDisplayDataMinMaxInputData::GetSubGraphPacketList
PUBLIC	?SetDataStartEndInBlock@CVertDisplayDataMinMaxInputData@@QAEXHH@Z ; CVertDisplayDataMinMaxInputData::SetDataStartEndInBlock
PUBLIC	??0CDrawingRegionCalData@@QAE@ABVCRect@@H_N111ABVCHorzScaleRegionHeight@@ABVCVertScaleRegionWidth@@H@Z ; CDrawingRegionCalData::CDrawingRegionCalData
PUBLIC	?SetGraphTitleDraw@CDrawingRegionCalData@@QAEX_N@Z ; CDrawingRegionCalData::SetGraphTitleDraw
PUBLIC	?SetMaxVertScaleRegionWidth@CDrawingRegionCalData@@QAEXH@Z ; CDrawingRegionCalData::SetMaxVertScaleRegionWidth
PUBLIC	?SetDisplayAttributes@CDrawingRegionCalData@@QAEXABVCDisplayAttributes@@@Z ; CDrawingRegionCalData::SetDisplayAttributes
PUBLIC	?GetBlockRegion@CDrawingRegionCalData@@QBE?AVCRect@@XZ ; CDrawingRegionCalData::GetBlockRegion
PUBLIC	?GetGraphRegionFrameThickness@CDrawingRegionCalData@@QBEHXZ ; CDrawingRegionCalData::GetGraphRegionFrameThickness
PUBLIC	?IsGraphTitleDraw@CDrawingRegionCalData@@QBE_NXZ ; CDrawingRegionCalData::IsGraphTitleDraw
PUBLIC	?IsGraphTextDrawCheck@CDrawingRegionCalData@@QBE_NXZ ; CDrawingRegionCalData::IsGraphTextDrawCheck
PUBLIC	?IsGraphTextDraw@CDrawingRegionCalData@@QBE_NXZ	; CDrawingRegionCalData::IsGraphTextDraw
PUBLIC	?IsVertScale@CDrawingRegionCalData@@QBE_NXZ	; CDrawingRegionCalData::IsVertScale
PUBLIC	?GetMaxVertScaleRegionWidth@CDrawingRegionCalData@@QBEHXZ ; CDrawingRegionCalData::GetMaxVertScaleRegionWidth
PUBLIC	?GetHorzScaleRegionHeight@CDrawingRegionCalData@@QBEABVCHorzScaleRegionHeight@@XZ ; CDrawingRegionCalData::GetHorzScaleRegionHeight
PUBLIC	?GetVertScaleRegionWidth@CDrawingRegionCalData@@QBEABVCVertScaleRegionWidth@@XZ ; CDrawingRegionCalData::GetVertScaleRegionWidth
PUBLIC	?GetDisplayAttributes@CDrawingRegionCalData@@QBE?AVCDisplayAttributes@@XZ ; CDrawingRegionCalData::GetDisplayAttributes
PUBLIC	??0CHorzScaleMaxWidthCalculatorData@@QAE@PAVCScaleCompart@@PAVCPacket@@ABV?$CStringT@DV?$StrTraitMFC_DLL@DV?$ChTraitsCRT@D@ATL@@@@@ATL@@ABVCDisplayAttributes@@@Z ; CHorzScaleMaxWidthCalculatorData::CHorzScaleMaxWidthCalculatorData
PUBLIC	?GetScaleCompart@CHorzScaleMaxWidthCalculatorData@@QBEPAVCScaleCompart@@XZ ; CHorzScaleMaxWidthCalculatorData::GetScaleCompart
PUBLIC	?GetPacket@CHorzScaleMaxWidthCalculatorData@@QBEPAVCPacket@@XZ ; CHorzScaleMaxWidthCalculatorData::GetPacket
PUBLIC	?GetPacketName@CHorzScaleMaxWidthCalculatorData@@QBE?AV?$CStringT@DV?$StrTraitMFC_DLL@DV?$ChTraitsCRT@D@ATL@@@@@ATL@@XZ ; CHorzScaleMaxWidthCalculatorData::GetPacketName
PUBLIC	?GetDisplayAttributes@CHorzScaleMaxWidthCalculatorData@@QBE?AVCDisplayAttributes@@XZ ; CHorzScaleMaxWidthCalculatorData::GetDisplayAttributes
PUBLIC	??0CVertScaleMaxWidthCalculatorData@@QAE@_NABVCDisplayAttributes@@ABVCVerticalScale@@H@Z ; CVertScaleMaxWidthCalculatorData::CVertScaleMaxWidthCalculatorData
PUBLIC	?SetCalcRiseFallRate_CurData@CVertScaleMaxWidthCalculatorData@@QAEXH@Z ; CVertScaleMaxWidthCalculatorData::SetCalcRiseFallRate_CurData
PUBLIC	?SetGraphName@CVertScaleMaxWidthCalculatorData@@QAEXV?$CStringT@DV?$StrTraitMFC_DLL@DV?$ChTraitsCRT@D@ATL@@@@@ATL@@@Z ; CVertScaleMaxWidthCalculatorData::SetGraphName
PUBLIC	?SetSubGraphName@CVertScaleMaxWidthCalculatorData@@QAEXABV?$CStringT@DV?$StrTraitMFC_DLL@DV?$ChTraitsCRT@D@ATL@@@@@ATL@@@Z ; CVertScaleMaxWidthCalculatorData::SetSubGraphName
PUBLIC	?SetIndicatorInfo@CVertScaleMaxWidthCalculatorData@@QAEXPAVCIndicatorInfo@@@Z ; CVertScaleMaxWidthCalculatorData::SetIndicatorInfo
PUBLIC	?SetSubGraphPacketList@CVertScaleMaxWidthCalculatorData@@QAEXPAVCSubGraphPacketList@@@Z ; CVertScaleMaxWidthCalculatorData::SetSubGraphPacketList
PUBLIC	?DoesRight@CVertScaleMaxWidthCalculatorData@@QBE_NXZ ; CVertScaleMaxWidthCalculatorData::DoesRight
PUBLIC	?GetCalcRiseFallRate_CurData@CVertScaleMaxWidthCalculatorData@@QBEHXZ ; CVertScaleMaxWidthCalculatorData::GetCalcRiseFallRate_CurData
PUBLIC	?GetVerticalScale@CVertScaleMaxWidthCalculatorData@@QBE?AVCVerticalScale@@XZ ; CVertScaleMaxWidthCalculatorData::GetVerticalScale
PUBLIC	?GetVerticalScale@CVertScaleMaxWidthCalculatorData@@QAEAAVCVerticalScale@@XZ ; CVertScaleMaxWidthCalculatorData::GetVerticalScale
PUBLIC	?GetGraphName@CVertScaleMaxWidthCalculatorData@@QBE?AV?$CStringT@DV?$StrTraitMFC_DLL@DV?$ChTraitsCRT@D@ATL@@@@@ATL@@XZ ; CVertScaleMaxWidthCalculatorData::GetGraphName
PUBLIC	?GetSubGraphName@CVertScaleMaxWidthCalculatorData@@QBE?AV?$CStringT@DV?$StrTraitMFC_DLL@DV?$ChTraitsCRT@D@ATL@@@@@ATL@@XZ ; CVertScaleMaxWidthCalculatorData::GetSubGraphName
PUBLIC	?GetVertScalePacketName@CVertScaleMaxWidthCalculatorData@@QBE?AV?$CStringT@DV?$StrTraitMFC_DLL@DV?$ChTraitsCRT@D@ATL@@@@@ATL@@XZ ; CVertScaleMaxWidthCalculatorData::GetVertScalePacketName
PUBLIC	?GetDisplayAttributes@CVertScaleMaxWidthCalculatorData@@QBE?AVCDisplayAttributes@@XZ ; CVertScaleMaxWidthCalculatorData::GetDisplayAttributes
PUBLIC	?GetIndicatorInfo@CVertScaleMaxWidthCalculatorData@@QBEPAVCIndicatorInfo@@XZ ; CVertScaleMaxWidthCalculatorData::GetIndicatorInfo
PUBLIC	?GetSubGraphPacketList@CVertScaleMaxWidthCalculatorData@@QBEPAVCSubGraphPacketList@@XZ ; CVertScaleMaxWidthCalculatorData::GetSubGraphPacketList
PUBLIC	?SetDualScale@CVertScaleMaxWidthCalculatorData@@QAEXH@Z ; CVertScaleMaxWidthCalculatorData::SetDualScale
PUBLIC	?IsDualScale@CVertScaleMaxWidthCalculatorData@@QBEHXZ ; CVertScaleMaxWidthCalculatorData::IsDualScale
PUBLIC	?SetSubGraphDisplayMinMax@CVertScaleMaxWidthCalculatorData@@QAEXABVCDisplayDataMinMax@@@Z ; CVertScaleMaxWidthCalculatorData::SetSubGraphDisplayMinMax
EXTRN	__imp_??0?$CStringT@DV?$StrTraitMFC_DLL@DV?$ChTraitsCRT@D@ATL@@@@@ATL@@QAE@XZ:PROC
EXTRN	__imp_??0?$CStringT@DV?$StrTraitMFC_DLL@DV?$ChTraitsCRT@D@ATL@@@@@ATL@@QAE@ABV01@@Z:PROC
EXTRN	__imp_??1?$CStringT@DV?$StrTraitMFC_DLL@DV?$ChTraitsCRT@D@ATL@@@@@ATL@@QAE@XZ:PROC
EXTRN	__imp_??4?$CStringT@DV?$StrTraitMFC_DLL@DV?$ChTraitsCRT@D@ATL@@@@@ATL@@QAEAAV01@ABV01@@Z:PROC
EXTRN	__imp_?GetScaleData@CScale@@QBE?AV?$CStringT@DV?$StrTraitMFC_DLL@DV?$ChTraitsCRT@D@ATL@@@@@ATL@@XZ:PROC
EXTRN	__imp_??1CVerticalScale@@QAE@XZ:PROC
EXTRN	__imp_??0CVerticalScale@@QAE@ABV0@@Z:PROC
EXTRN	__imp_??4CDisplayDataMinMax@@QAEAAV0@ABV0@@Z:PROC
EXTRN	__imp_??0CDisplayDataMinMax@@QAE@XZ:PROC
EXTRN	__imp_?GetType@CSubGraphDataBase@@QBE?AW4GRAPHTYPE@CGraphBaseData@@XZ:PROC
EXTRN	__imp_?GetStyle@CSubGraphDataBase@@QBE?AVCGraphStyle@@XZ:PROC
EXTRN	??4CDisplayAttributes@@QAEAAV0@ABV0@@Z:PROC	; CDisplayAttributes::operator=
EXTRN	??0CDisplayAttributes@@QAE@XZ:PROC		; CDisplayAttributes::CDisplayAttributes
EXTRN	?SetDataStartInBlock@CDisplayAttributes@@QAEXH@Z:PROC ; CDisplayAttributes::SetDataStartInBlock
EXTRN	?SetDataEndInBlock@CDisplayAttributes@@QAEXH@Z:PROC ; CDisplayAttributes::SetDataEndInBlock
EXTRN	@__security_check_cookie@4:PROC
EXTRN	___CxxFrameHandler3:PROC
EXTRN	___security_cookie:DWORD
;	COMDAT xdata$x
xdata$x	SEGMENT
__unwindtable$?SetGraphName@CVertScaleMaxWidthCalculatorData@@QAEXV?$CStringT@DV?$StrTraitMFC_DLL@DV?$ChTraitsCRT@D@ATL@@@@@ATL@@@Z DD 0ffffffffH
	DD	FLAT:__unwindfunclet$?SetGraphName@CVertScaleMaxWidthCalculatorData@@QAEXV?$CStringT@DV?$StrTraitMFC_DLL@DV?$ChTraitsCRT@D@ATL@@@@@ATL@@@Z$0
__ehfuncinfo$?SetGraphName@CVertScaleMaxWidthCalculatorData@@QAEXV?$CStringT@DV?$StrTraitMFC_DLL@DV?$ChTraitsCRT@D@ATL@@@@@ATL@@@Z DD 019930522H
	DD	01H
	DD	FLAT:__unwindtable$?SetGraphName@CVertScaleMaxWidthCalculatorData@@QAEXV?$CStringT@DV?$StrTraitMFC_DLL@DV?$ChTraitsCRT@D@ATL@@@@@ATL@@@Z
	DD	2 DUP(00H)
	DD	2 DUP(00H)
	DD	00H
	DD	01H
xdata$x	ENDS
;	COMDAT xdata$x
xdata$x	SEGMENT
__unwindtable$??0CVertScaleMaxWidthCalculatorData@@QAE@_NABVCDisplayAttributes@@ABVCVerticalScale@@H@Z DD 0ffffffffH
	DD	FLAT:__unwindfunclet$??0CVertScaleMaxWidthCalculatorData@@QAE@_NABVCDisplayAttributes@@ABVCVerticalScale@@H@Z$0
	DD	00H
	DD	FLAT:__unwindfunclet$??0CVertScaleMaxWidthCalculatorData@@QAE@_NABVCDisplayAttributes@@ABVCVerticalScale@@H@Z$1
	DD	01H
	DD	FLAT:__unwindfunclet$??0CVertScaleMaxWidthCalculatorData@@QAE@_NABVCDisplayAttributes@@ABVCVerticalScale@@H@Z$2
__ehfuncinfo$??0CVertScaleMaxWidthCalculatorData@@QAE@_NABVCDisplayAttributes@@ABVCVerticalScale@@H@Z DD 019930522H
	DD	03H
	DD	FLAT:__unwindtable$??0CVertScaleMaxWidthCalculatorData@@QAE@_NABVCDisplayAttributes@@ABVCVerticalScale@@H@Z
	DD	2 DUP(00H)
	DD	2 DUP(00H)
	DD	00H
	DD	01H
xdata$x	ENDS
;	COMDAT xdata$x
xdata$x	SEGMENT
__unwindtable$??0CVertDisplayDataMinMaxInputData@@QAE@ABV?$CStringT@DV?$StrTraitMFC_DLL@DV?$ChTraitsCRT@D@ATL@@@@@ATL@@00ABVCDisplayAttributes@@@Z DD 0ffffffffH
	DD	FLAT:__unwindfunclet$??0CVertDisplayDataMinMaxInputData@@QAE@ABV?$CStringT@DV?$StrTraitMFC_DLL@DV?$ChTraitsCRT@D@ATL@@@@@ATL@@00ABVCDisplayAttributes@@@Z$0
	DD	00H
	DD	FLAT:__unwindfunclet$??0CVertDisplayDataMinMaxInputData@@QAE@ABV?$CStringT@DV?$StrTraitMFC_DLL@DV?$ChTraitsCRT@D@ATL@@@@@ATL@@00ABVCDisplayAttributes@@@Z$1
__ehfuncinfo$??0CVertDisplayDataMinMaxInputData@@QAE@ABV?$CStringT@DV?$StrTraitMFC_DLL@DV?$ChTraitsCRT@D@ATL@@@@@ATL@@00ABVCDisplayAttributes@@@Z DD 019930522H
	DD	02H
	DD	FLAT:__unwindtable$??0CVertDisplayDataMinMaxInputData@@QAE@ABV?$CStringT@DV?$StrTraitMFC_DLL@DV?$ChTraitsCRT@D@ATL@@@@@ATL@@00ABVCDisplayAttributes@@@Z
	DD	2 DUP(00H)
	DD	2 DUP(00H)
	DD	00H
	DD	01H
xdata$x	ENDS
;	COMDAT xdata$x
xdata$x	SEGMENT
__unwindtable$??0CVertDisplayDataMinMaxInputData@@QAE@XZ DD 0ffffffffH
	DD	FLAT:__unwindfunclet$??0CVertDisplayDataMinMaxInputData@@QAE@XZ$0
	DD	00H
	DD	FLAT:__unwindfunclet$??0CVertDisplayDataMinMaxInputData@@QAE@XZ$1
	DD	01H
	DD	FLAT:__unwindfunclet$??0CVertDisplayDataMinMaxInputData@@QAE@XZ$2
__ehfuncinfo$??0CVertDisplayDataMinMaxInputData@@QAE@XZ DD 019930522H
	DD	03H
	DD	FLAT:__unwindtable$??0CVertDisplayDataMinMaxInputData@@QAE@XZ
	DD	2 DUP(00H)
	DD	2 DUP(00H)
	DD	00H
	DD	01H
xdata$x	ENDS
;	COMDAT xdata$x
xdata$x	SEGMENT
__unwindtable$??4CVertDisplayDataMinMaxInputData@@QAEAAV0@ABV0@@Z DD 0ffffffffH
	DD	FLAT:__unwindfunclet$??4CVertDisplayDataMinMaxInputData@@QAEAAV0@ABV0@@Z$0
	DD	0ffffffffH
	DD	FLAT:__unwindfunclet$??4CVertDisplayDataMinMaxInputData@@QAEAAV0@ABV0@@Z$1
	DD	0ffffffffH
	DD	FLAT:__unwindfunclet$??4CVertDisplayDataMinMaxInputData@@QAEAAV0@ABV0@@Z$2
__ehfuncinfo$??4CVertDisplayDataMinMaxInputData@@QAEAAV0@ABV0@@Z DD 019930522H
	DD	03H
	DD	FLAT:__unwindtable$??4CVertDisplayDataMinMaxInputData@@QAEAAV0@ABV0@@Z
	DD	2 DUP(00H)
	DD	2 DUP(00H)
	DD	00H
	DD	01H
xdata$x	ENDS
; Function compile flags: /Ogtp
; File D:\git\src\IBK\IBK_DRFN\ProjSrc\SrcChartEx\ChartOCX\ChartObject\CalculatorData.cpp
;	COMDAT ?SetSubGraphDisplayMinMax@CVertScaleMaxWidthCalculatorData@@QAEXABVCDisplayDataMinMax@@@Z
_TEXT	SEGMENT
_p_displayDataMinMax$ = 8				; size = 4
?SetSubGraphDisplayMinMax@CVertScaleMaxWidthCalculatorData@@QAEXABVCDisplayDataMinMax@@@Z PROC ; CVertScaleMaxWidthCalculatorData::SetSubGraphDisplayMinMax, COMDAT
; _this$ = ecx

; 385  : {

  00000	55		 push	 ebp
  00001	8b ec		 mov	 ebp, esp

; 386  : 	m_displayDataMinMax = p_displayDataMinMax;

  00003	83 e9 80	 sub	 ecx, -128		; ffffff80H

; 387  : }

  00006	5d		 pop	 ebp

; 386  : 	m_displayDataMinMax = p_displayDataMinMax;

  00007	ff 25 00 00 00
	00		 jmp	 DWORD PTR __imp_??4CDisplayDataMinMax@@QAEAAV0@ABV0@@Z
?SetSubGraphDisplayMinMax@CVertScaleMaxWidthCalculatorData@@QAEXABVCDisplayDataMinMax@@@Z ENDP ; CVertScaleMaxWidthCalculatorData::SetSubGraphDisplayMinMax
_TEXT	ENDS
; Function compile flags: /Ogtp
; File D:\git\src\IBK\IBK_DRFN\ProjSrc\SrcChartEx\ChartOCX\ChartObject\CalculatorData.cpp
;	COMDAT ?IsDualScale@CVertScaleMaxWidthCalculatorData@@QBEHXZ
_TEXT	SEGMENT
?IsDualScale@CVertScaleMaxWidthCalculatorData@@QBEHXZ PROC ; CVertScaleMaxWidthCalculatorData::IsDualScale, COMDAT
; _this$ = ecx

; 379  : 	return m_bIsDualScale;

  00000	8b 41 78	 mov	 eax, DWORD PTR [ecx+120]

; 380  : }

  00003	c3		 ret	 0
?IsDualScale@CVertScaleMaxWidthCalculatorData@@QBEHXZ ENDP ; CVertScaleMaxWidthCalculatorData::IsDualScale
_TEXT	ENDS
; Function compile flags: /Ogtp
; File D:\git\src\IBK\IBK_DRFN\ProjSrc\SrcChartEx\ChartOCX\ChartObject\CalculatorData.cpp
;	COMDAT ?SetDualScale@CVertScaleMaxWidthCalculatorData@@QAEXH@Z
_TEXT	SEGMENT
_p_bIsDualScale$ = 8					; size = 4
?SetDualScale@CVertScaleMaxWidthCalculatorData@@QAEXH@Z PROC ; CVertScaleMaxWidthCalculatorData::SetDualScale, COMDAT
; _this$ = ecx

; 374  : {

  00000	55		 push	 ebp
  00001	8b ec		 mov	 ebp, esp

; 375  : 	m_bIsDualScale = p_bIsDualScale;

  00003	8b 45 08	 mov	 eax, DWORD PTR _p_bIsDualScale$[ebp]
  00006	89 41 78	 mov	 DWORD PTR [ecx+120], eax

; 376  : }

  00009	5d		 pop	 ebp
  0000a	c2 04 00	 ret	 4
?SetDualScale@CVertScaleMaxWidthCalculatorData@@QAEXH@Z ENDP ; CVertScaleMaxWidthCalculatorData::SetDualScale
_TEXT	ENDS
; Function compile flags: /Ogtp
; File D:\git\src\IBK\IBK_DRFN\ProjSrc\SrcChartEx\ChartOCX\ChartObject\CalculatorData.cpp
;	COMDAT ?GetSubGraphPacketList@CVertScaleMaxWidthCalculatorData@@QBEPAVCSubGraphPacketList@@XZ
_TEXT	SEGMENT
?GetSubGraphPacketList@CVertScaleMaxWidthCalculatorData@@QBEPAVCSubGraphPacketList@@XZ PROC ; CVertScaleMaxWidthCalculatorData::GetSubGraphPacketList, COMDAT
; _this$ = ecx

; 369  : 	return m_pSubGraphPacketList;

  00000	8b 41 74	 mov	 eax, DWORD PTR [ecx+116]

; 370  : }

  00003	c3		 ret	 0
?GetSubGraphPacketList@CVertScaleMaxWidthCalculatorData@@QBEPAVCSubGraphPacketList@@XZ ENDP ; CVertScaleMaxWidthCalculatorData::GetSubGraphPacketList
_TEXT	ENDS
; Function compile flags: /Ogtp
; File D:\git\src\IBK\IBK_DRFN\ProjSrc\SrcChartEx\ChartOCX\ChartObject\CalculatorData.cpp
;	COMDAT ?GetIndicatorInfo@CVertScaleMaxWidthCalculatorData@@QBEPAVCIndicatorInfo@@XZ
_TEXT	SEGMENT
?GetIndicatorInfo@CVertScaleMaxWidthCalculatorData@@QBEPAVCIndicatorInfo@@XZ PROC ; CVertScaleMaxWidthCalculatorData::GetIndicatorInfo, COMDAT
; _this$ = ecx

; 364  : 	return m_pIndicatorInfo;

  00000	8b 41 70	 mov	 eax, DWORD PTR [ecx+112]

; 365  : }

  00003	c3		 ret	 0
?GetIndicatorInfo@CVertScaleMaxWidthCalculatorData@@QBEPAVCIndicatorInfo@@XZ ENDP ; CVertScaleMaxWidthCalculatorData::GetIndicatorInfo
_TEXT	ENDS
; Function compile flags: /Ogtp
; File D:\git\src\IBK\IBK_DRFN\ProjSrc\SrcChartEx\ChartOCX\ChartObject\CalculatorData.cpp
;	COMDAT ?GetDisplayAttributes@CVertScaleMaxWidthCalculatorData@@QBE?AVCDisplayAttributes@@XZ
_TEXT	SEGMENT
___$ReturnUdt$ = 8					; size = 4
?GetDisplayAttributes@CVertScaleMaxWidthCalculatorData@@QBE?AVCDisplayAttributes@@XZ PROC ; CVertScaleMaxWidthCalculatorData::GetDisplayAttributes, COMDAT
; _this$ = ecx

; 358  : {

  00000	55		 push	 ebp
  00001	8b ec		 mov	 ebp, esp

; 359  : 	return m_displayAttributes;

  00003	8b 45 08	 mov	 eax, DWORD PTR ___$ReturnUdt$[ebp]
  00006	8b 51 68	 mov	 edx, DWORD PTR [ecx+104]
  00009	8b 49 6c	 mov	 ecx, DWORD PTR [ecx+108]
  0000c	89 10		 mov	 DWORD PTR [eax], edx
  0000e	89 48 04	 mov	 DWORD PTR [eax+4], ecx

; 360  : }

  00011	5d		 pop	 ebp
  00012	c2 04 00	 ret	 4
?GetDisplayAttributes@CVertScaleMaxWidthCalculatorData@@QBE?AVCDisplayAttributes@@XZ ENDP ; CVertScaleMaxWidthCalculatorData::GetDisplayAttributes
_TEXT	ENDS
; Function compile flags: /Ogtp
; File D:\git\src\IBK\IBK_DRFN\ProjSrc\SrcChartEx\ChartOCX\ChartObject\CalculatorData.cpp
;	COMDAT ?GetVertScalePacketName@CVertScaleMaxWidthCalculatorData@@QBE?AV?$CStringT@DV?$StrTraitMFC_DLL@DV?$ChTraitsCRT@D@ATL@@@@@ATL@@XZ
_TEXT	SEGMENT
___$ReturnUdt$ = 8					; size = 4
?GetVertScalePacketName@CVertScaleMaxWidthCalculatorData@@QBE?AV?$CStringT@DV?$StrTraitMFC_DLL@DV?$ChTraitsCRT@D@ATL@@@@@ATL@@XZ PROC ; CVertScaleMaxWidthCalculatorData::GetVertScalePacketName, COMDAT
; _this$ = ecx

; 353  : {

  00000	55		 push	 ebp
  00001	8b ec		 mov	 ebp, esp

; 354  : 	return m_vertScale.GetScaleData();

  00003	ff 75 08	 push	 DWORD PTR ___$ReturnUdt$[ebp]
  00006	83 c1 08	 add	 ecx, 8
  00009	ff 15 00 00 00
	00		 call	 DWORD PTR __imp_?GetScaleData@CScale@@QBE?AV?$CStringT@DV?$StrTraitMFC_DLL@DV?$ChTraitsCRT@D@ATL@@@@@ATL@@XZ
  0000f	8b 45 08	 mov	 eax, DWORD PTR ___$ReturnUdt$[ebp]

; 355  : }

  00012	5d		 pop	 ebp
  00013	c2 04 00	 ret	 4
?GetVertScalePacketName@CVertScaleMaxWidthCalculatorData@@QBE?AV?$CStringT@DV?$StrTraitMFC_DLL@DV?$ChTraitsCRT@D@ATL@@@@@ATL@@XZ ENDP ; CVertScaleMaxWidthCalculatorData::GetVertScalePacketName
_TEXT	ENDS
; Function compile flags: /Ogtp
; File D:\git\src\IBK\IBK_DRFN\ProjSrc\SrcChartEx\ChartOCX\ChartObject\CalculatorData.cpp
;	COMDAT ?GetSubGraphName@CVertScaleMaxWidthCalculatorData@@QBE?AV?$CStringT@DV?$StrTraitMFC_DLL@DV?$ChTraitsCRT@D@ATL@@@@@ATL@@XZ
_TEXT	SEGMENT
___$ReturnUdt$ = 8					; size = 4
?GetSubGraphName@CVertScaleMaxWidthCalculatorData@@QBE?AV?$CStringT@DV?$StrTraitMFC_DLL@DV?$ChTraitsCRT@D@ATL@@@@@ATL@@XZ PROC ; CVertScaleMaxWidthCalculatorData::GetSubGraphName, COMDAT
; _this$ = ecx

; 348  : {

  00000	55		 push	 ebp
  00001	8b ec		 mov	 ebp, esp

; 349  : 	return m_strSubGraphName;

  00003	8d 41 64	 lea	 eax, DWORD PTR [ecx+100]
  00006	8b 4d 08	 mov	 ecx, DWORD PTR ___$ReturnUdt$[ebp]
  00009	50		 push	 eax
  0000a	ff 15 00 00 00
	00		 call	 DWORD PTR __imp_??0?$CStringT@DV?$StrTraitMFC_DLL@DV?$ChTraitsCRT@D@ATL@@@@@ATL@@QAE@ABV01@@Z
  00010	8b 45 08	 mov	 eax, DWORD PTR ___$ReturnUdt$[ebp]

; 350  : }

  00013	5d		 pop	 ebp
  00014	c2 04 00	 ret	 4
?GetSubGraphName@CVertScaleMaxWidthCalculatorData@@QBE?AV?$CStringT@DV?$StrTraitMFC_DLL@DV?$ChTraitsCRT@D@ATL@@@@@ATL@@XZ ENDP ; CVertScaleMaxWidthCalculatorData::GetSubGraphName
_TEXT	ENDS
; Function compile flags: /Ogtp
; File D:\git\src\IBK\IBK_DRFN\ProjSrc\SrcChartEx\ChartOCX\ChartObject\CalculatorData.cpp
;	COMDAT ?GetGraphName@CVertScaleMaxWidthCalculatorData@@QBE?AV?$CStringT@DV?$StrTraitMFC_DLL@DV?$ChTraitsCRT@D@ATL@@@@@ATL@@XZ
_TEXT	SEGMENT
___$ReturnUdt$ = 8					; size = 4
?GetGraphName@CVertScaleMaxWidthCalculatorData@@QBE?AV?$CStringT@DV?$StrTraitMFC_DLL@DV?$ChTraitsCRT@D@ATL@@@@@ATL@@XZ PROC ; CVertScaleMaxWidthCalculatorData::GetGraphName, COMDAT
; _this$ = ecx

; 343  : {

  00000	55		 push	 ebp
  00001	8b ec		 mov	 ebp, esp

; 344  : 	return m_strGraphName;

  00003	8d 41 60	 lea	 eax, DWORD PTR [ecx+96]
  00006	8b 4d 08	 mov	 ecx, DWORD PTR ___$ReturnUdt$[ebp]
  00009	50		 push	 eax
  0000a	ff 15 00 00 00
	00		 call	 DWORD PTR __imp_??0?$CStringT@DV?$StrTraitMFC_DLL@DV?$ChTraitsCRT@D@ATL@@@@@ATL@@QAE@ABV01@@Z
  00010	8b 45 08	 mov	 eax, DWORD PTR ___$ReturnUdt$[ebp]

; 345  : }

  00013	5d		 pop	 ebp
  00014	c2 04 00	 ret	 4
?GetGraphName@CVertScaleMaxWidthCalculatorData@@QBE?AV?$CStringT@DV?$StrTraitMFC_DLL@DV?$ChTraitsCRT@D@ATL@@@@@ATL@@XZ ENDP ; CVertScaleMaxWidthCalculatorData::GetGraphName
_TEXT	ENDS
; Function compile flags: /Ogtp
; File D:\git\src\IBK\IBK_DRFN\ProjSrc\SrcChartEx\ChartOCX\ChartObject\CalculatorData.cpp
;	COMDAT ?GetVerticalScale@CVertScaleMaxWidthCalculatorData@@QAEAAVCVerticalScale@@XZ
_TEXT	SEGMENT
?GetVerticalScale@CVertScaleMaxWidthCalculatorData@@QAEAAVCVerticalScale@@XZ PROC ; CVertScaleMaxWidthCalculatorData::GetVerticalScale, COMDAT
; _this$ = ecx

; 339  : 	return m_vertScale;

  00000	8d 41 08	 lea	 eax, DWORD PTR [ecx+8]

; 340  : }

  00003	c3		 ret	 0
?GetVerticalScale@CVertScaleMaxWidthCalculatorData@@QAEAAVCVerticalScale@@XZ ENDP ; CVertScaleMaxWidthCalculatorData::GetVerticalScale
_TEXT	ENDS
; Function compile flags: /Ogtp
; File D:\git\src\IBK\IBK_DRFN\ProjSrc\SrcChartEx\ChartOCX\ChartObject\CalculatorData.cpp
;	COMDAT ?GetVerticalScale@CVertScaleMaxWidthCalculatorData@@QBE?AVCVerticalScale@@XZ
_TEXT	SEGMENT
___$ReturnUdt$ = 8					; size = 4
?GetVerticalScale@CVertScaleMaxWidthCalculatorData@@QBE?AVCVerticalScale@@XZ PROC ; CVertScaleMaxWidthCalculatorData::GetVerticalScale, COMDAT
; _this$ = ecx

; 333  : {

  00000	55		 push	 ebp
  00001	8b ec		 mov	 ebp, esp

; 334  : 	return m_vertScale;

  00003	8d 41 08	 lea	 eax, DWORD PTR [ecx+8]
  00006	8b 4d 08	 mov	 ecx, DWORD PTR ___$ReturnUdt$[ebp]
  00009	50		 push	 eax
  0000a	ff 15 00 00 00
	00		 call	 DWORD PTR __imp_??0CVerticalScale@@QAE@ABV0@@Z
  00010	8b 45 08	 mov	 eax, DWORD PTR ___$ReturnUdt$[ebp]

; 335  : }

  00013	5d		 pop	 ebp
  00014	c2 04 00	 ret	 4
?GetVerticalScale@CVertScaleMaxWidthCalculatorData@@QBE?AVCVerticalScale@@XZ ENDP ; CVertScaleMaxWidthCalculatorData::GetVerticalScale
_TEXT	ENDS
; Function compile flags: /Ogtp
; File D:\git\src\IBK\IBK_DRFN\ProjSrc\SrcChartEx\ChartOCX\ChartObject\CalculatorData.cpp
;	COMDAT ?GetCalcRiseFallRate_CurData@CVertScaleMaxWidthCalculatorData@@QBEHXZ
_TEXT	SEGMENT
?GetCalcRiseFallRate_CurData@CVertScaleMaxWidthCalculatorData@@QBEHXZ PROC ; CVertScaleMaxWidthCalculatorData::GetCalcRiseFallRate_CurData, COMDAT
; _this$ = ecx

; 329  : 	return m_nCalcRiseFallRate_CurData;

  00000	8b 41 04	 mov	 eax, DWORD PTR [ecx+4]

; 330  : }

  00003	c3		 ret	 0
?GetCalcRiseFallRate_CurData@CVertScaleMaxWidthCalculatorData@@QBEHXZ ENDP ; CVertScaleMaxWidthCalculatorData::GetCalcRiseFallRate_CurData
_TEXT	ENDS
; Function compile flags: /Ogtp
; File D:\git\src\IBK\IBK_DRFN\ProjSrc\SrcChartEx\ChartOCX\ChartObject\CalculatorData.cpp
;	COMDAT ?DoesRight@CVertScaleMaxWidthCalculatorData@@QBE_NXZ
_TEXT	SEGMENT
?DoesRight@CVertScaleMaxWidthCalculatorData@@QBE_NXZ PROC ; CVertScaleMaxWidthCalculatorData::DoesRight, COMDAT
; _this$ = ecx

; 324  : 	return m_bIsRight;

  00000	8a 01		 mov	 al, BYTE PTR [ecx]

; 325  : }

  00002	c3		 ret	 0
?DoesRight@CVertScaleMaxWidthCalculatorData@@QBE_NXZ ENDP ; CVertScaleMaxWidthCalculatorData::DoesRight
_TEXT	ENDS
; Function compile flags: /Ogtp
; File D:\git\src\IBK\IBK_DRFN\ProjSrc\SrcChartEx\ChartOCX\ChartObject\CalculatorData.cpp
;	COMDAT ?SetSubGraphPacketList@CVertScaleMaxWidthCalculatorData@@QAEXPAVCSubGraphPacketList@@@Z
_TEXT	SEGMENT
_pSubGraphPacketList$ = 8				; size = 4
?SetSubGraphPacketList@CVertScaleMaxWidthCalculatorData@@QAEXPAVCSubGraphPacketList@@@Z PROC ; CVertScaleMaxWidthCalculatorData::SetSubGraphPacketList, COMDAT
; _this$ = ecx

; 317  : {

  00000	55		 push	 ebp
  00001	8b ec		 mov	 ebp, esp

; 318  : 	m_pSubGraphPacketList = pSubGraphPacketList;

  00003	8b 45 08	 mov	 eax, DWORD PTR _pSubGraphPacketList$[ebp]
  00006	89 41 74	 mov	 DWORD PTR [ecx+116], eax

; 319  : }

  00009	5d		 pop	 ebp
  0000a	c2 04 00	 ret	 4
?SetSubGraphPacketList@CVertScaleMaxWidthCalculatorData@@QAEXPAVCSubGraphPacketList@@@Z ENDP ; CVertScaleMaxWidthCalculatorData::SetSubGraphPacketList
_TEXT	ENDS
; Function compile flags: /Ogtp
; File D:\git\src\IBK\IBK_DRFN\ProjSrc\SrcChartEx\ChartOCX\ChartObject\CalculatorData.cpp
;	COMDAT ?SetIndicatorInfo@CVertScaleMaxWidthCalculatorData@@QAEXPAVCIndicatorInfo@@@Z
_TEXT	SEGMENT
_pIndiInfo$ = 8						; size = 4
?SetIndicatorInfo@CVertScaleMaxWidthCalculatorData@@QAEXPAVCIndicatorInfo@@@Z PROC ; CVertScaleMaxWidthCalculatorData::SetIndicatorInfo, COMDAT
; _this$ = ecx

; 312  : {

  00000	55		 push	 ebp
  00001	8b ec		 mov	 ebp, esp

; 313  : 	m_pIndicatorInfo = pIndiInfo;

  00003	8b 45 08	 mov	 eax, DWORD PTR _pIndiInfo$[ebp]
  00006	89 41 70	 mov	 DWORD PTR [ecx+112], eax

; 314  : }

  00009	5d		 pop	 ebp
  0000a	c2 04 00	 ret	 4
?SetIndicatorInfo@CVertScaleMaxWidthCalculatorData@@QAEXPAVCIndicatorInfo@@@Z ENDP ; CVertScaleMaxWidthCalculatorData::SetIndicatorInfo
_TEXT	ENDS
; Function compile flags: /Ogtp
; File D:\git\src\IBK\IBK_DRFN\ProjSrc\SrcChartEx\ChartOCX\ChartObject\CalculatorData.cpp
;	COMDAT ?SetSubGraphName@CVertScaleMaxWidthCalculatorData@@QAEXABV?$CStringT@DV?$StrTraitMFC_DLL@DV?$ChTraitsCRT@D@ATL@@@@@ATL@@@Z
_TEXT	SEGMENT
_subGraphName$ = 8					; size = 4
?SetSubGraphName@CVertScaleMaxWidthCalculatorData@@QAEXABV?$CStringT@DV?$StrTraitMFC_DLL@DV?$ChTraitsCRT@D@ATL@@@@@ATL@@@Z PROC ; CVertScaleMaxWidthCalculatorData::SetSubGraphName, COMDAT
; _this$ = ecx

; 307  : {

  00000	55		 push	 ebp
  00001	8b ec		 mov	 ebp, esp

; 308  : 	m_strSubGraphName = subGraphName;

  00003	83 c1 64	 add	 ecx, 100		; 00000064H

; 309  : }

  00006	5d		 pop	 ebp

; 308  : 	m_strSubGraphName = subGraphName;

  00007	ff 25 00 00 00
	00		 jmp	 DWORD PTR __imp_??4?$CStringT@DV?$StrTraitMFC_DLL@DV?$ChTraitsCRT@D@ATL@@@@@ATL@@QAEAAV01@ABV01@@Z
?SetSubGraphName@CVertScaleMaxWidthCalculatorData@@QAEXABV?$CStringT@DV?$StrTraitMFC_DLL@DV?$ChTraitsCRT@D@ATL@@@@@ATL@@@Z ENDP ; CVertScaleMaxWidthCalculatorData::SetSubGraphName
_TEXT	ENDS
; Function compile flags: /Ogtp
; File D:\git\src\IBK\IBK_DRFN\ProjSrc\SrcChartEx\ChartOCX\ChartObject\CalculatorData.cpp
;	COMDAT ?SetGraphName@CVertScaleMaxWidthCalculatorData@@QAEXV?$CStringT@DV?$StrTraitMFC_DLL@DV?$ChTraitsCRT@D@ATL@@@@@ATL@@@Z
_TEXT	SEGMENT
__$EHRec$ = -12						; size = 12
_GraphName$ = 8						; size = 4
?SetGraphName@CVertScaleMaxWidthCalculatorData@@QAEXV?$CStringT@DV?$StrTraitMFC_DLL@DV?$ChTraitsCRT@D@ATL@@@@@ATL@@@Z PROC ; CVertScaleMaxWidthCalculatorData::SetGraphName, COMDAT
; _this$ = ecx

; 302  : {

  00000	55		 push	 ebp
  00001	8b ec		 mov	 ebp, esp
  00003	6a ff		 push	 -1
  00005	68 00 00 00 00	 push	 __ehhandler$?SetGraphName@CVertScaleMaxWidthCalculatorData@@QAEXV?$CStringT@DV?$StrTraitMFC_DLL@DV?$ChTraitsCRT@D@ATL@@@@@ATL@@@Z
  0000a	64 a1 00 00 00
	00		 mov	 eax, DWORD PTR fs:0
  00010	50		 push	 eax
  00011	a1 00 00 00 00	 mov	 eax, DWORD PTR ___security_cookie
  00016	33 c5		 xor	 eax, ebp
  00018	50		 push	 eax
  00019	8d 45 f4	 lea	 eax, DWORD PTR __$EHRec$[ebp]
  0001c	64 a3 00 00 00
	00		 mov	 DWORD PTR fs:0, eax

; 303  : 	m_strGraphName = GraphName;

  00022	8d 45 08	 lea	 eax, DWORD PTR _GraphName$[ebp]
  00025	c7 45 fc 00 00
	00 00		 mov	 DWORD PTR __$EHRec$[ebp+8], 0
  0002c	50		 push	 eax
  0002d	83 c1 60	 add	 ecx, 96			; 00000060H
  00030	ff 15 00 00 00
	00		 call	 DWORD PTR __imp_??4?$CStringT@DV?$StrTraitMFC_DLL@DV?$ChTraitsCRT@D@ATL@@@@@ATL@@QAEAAV01@ABV01@@Z

; 304  : }

  00036	8d 4d 08	 lea	 ecx, DWORD PTR _GraphName$[ebp]
  00039	ff 15 00 00 00
	00		 call	 DWORD PTR __imp_??1?$CStringT@DV?$StrTraitMFC_DLL@DV?$ChTraitsCRT@D@ATL@@@@@ATL@@QAE@XZ
  0003f	8b 4d f4	 mov	 ecx, DWORD PTR __$EHRec$[ebp]
  00042	64 89 0d 00 00
	00 00		 mov	 DWORD PTR fs:0, ecx
  00049	59		 pop	 ecx
  0004a	8b e5		 mov	 esp, ebp
  0004c	5d		 pop	 ebp
  0004d	c2 04 00	 ret	 4
_TEXT	ENDS
;	COMDAT text$x
text$x	SEGMENT
__unwindfunclet$?SetGraphName@CVertScaleMaxWidthCalculatorData@@QAEXV?$CStringT@DV?$StrTraitMFC_DLL@DV?$ChTraitsCRT@D@ATL@@@@@ATL@@@Z$0:
  00000	8d 4d 08	 lea	 ecx, DWORD PTR _GraphName$[ebp]
  00003	ff 25 00 00 00
	00		 jmp	 DWORD PTR __imp_??1?$CStringT@DV?$StrTraitMFC_DLL@DV?$ChTraitsCRT@D@ATL@@@@@ATL@@QAE@XZ
  00009	cc		 int	 3
  0000a	cc		 int	 3
  0000b	cc		 int	 3
  0000c	cc		 int	 3
  0000d	cc		 int	 3
__ehhandler$?SetGraphName@CVertScaleMaxWidthCalculatorData@@QAEXV?$CStringT@DV?$StrTraitMFC_DLL@DV?$ChTraitsCRT@D@ATL@@@@@ATL@@@Z:
  0000e	90		 npad	 1
  0000f	90		 npad	 1
  00010	8b 54 24 08	 mov	 edx, DWORD PTR [esp+8]
  00014	8d 42 0c	 lea	 eax, DWORD PTR [edx+12]
  00017	8b 4a fc	 mov	 ecx, DWORD PTR [edx-4]
  0001a	33 c8		 xor	 ecx, eax
  0001c	e8 00 00 00 00	 call	 @__security_check_cookie@4
  00021	b8 00 00 00 00	 mov	 eax, OFFSET __ehfuncinfo$?SetGraphName@CVertScaleMaxWidthCalculatorData@@QAEXV?$CStringT@DV?$StrTraitMFC_DLL@DV?$ChTraitsCRT@D@ATL@@@@@ATL@@@Z
  00026	e9 00 00 00 00	 jmp	 ___CxxFrameHandler3
text$x	ENDS
?SetGraphName@CVertScaleMaxWidthCalculatorData@@QAEXV?$CStringT@DV?$StrTraitMFC_DLL@DV?$ChTraitsCRT@D@ATL@@@@@ATL@@@Z ENDP ; CVertScaleMaxWidthCalculatorData::SetGraphName
; Function compile flags: /Ogtp
; File D:\git\src\IBK\IBK_DRFN\ProjSrc\SrcChartEx\ChartOCX\ChartObject\CalculatorData.cpp
;	COMDAT ?SetCalcRiseFallRate_CurData@CVertScaleMaxWidthCalculatorData@@QAEXH@Z
_TEXT	SEGMENT
_nCalcRiseFallRate_CurData$ = 8				; size = 4
?SetCalcRiseFallRate_CurData@CVertScaleMaxWidthCalculatorData@@QAEXH@Z PROC ; CVertScaleMaxWidthCalculatorData::SetCalcRiseFallRate_CurData, COMDAT
; _this$ = ecx

; 297  : {

  00000	55		 push	 ebp
  00001	8b ec		 mov	 ebp, esp

; 298  : 	m_nCalcRiseFallRate_CurData = nCalcRiseFallRate_CurData;

  00003	8b 45 08	 mov	 eax, DWORD PTR _nCalcRiseFallRate_CurData$[ebp]
  00006	89 41 04	 mov	 DWORD PTR [ecx+4], eax

; 299  : }

  00009	5d		 pop	 ebp
  0000a	c2 04 00	 ret	 4
?SetCalcRiseFallRate_CurData@CVertScaleMaxWidthCalculatorData@@QAEXH@Z ENDP ; CVertScaleMaxWidthCalculatorData::SetCalcRiseFallRate_CurData
_TEXT	ENDS
; Function compile flags: /Ogtp
; File D:\git\src\IBK\IBK_DRFN\ProjSrc\SrcChartEx\ChartOCX\ChartObject\CalculatorData.cpp
;	COMDAT ??0CVertScaleMaxWidthCalculatorData@@QAE@_NABVCDisplayAttributes@@ABVCVerticalScale@@H@Z
_TEXT	SEGMENT
_this$ = -16						; size = 4
__$EHRec$ = -12						; size = 12
_bIsRight$ = 8						; size = 1
_displayAttributes$ = 12				; size = 4
_vertScale$ = 16					; size = 4
_p_bIsDualScale$ = 20					; size = 4
??0CVertScaleMaxWidthCalculatorData@@QAE@_NABVCDisplayAttributes@@ABVCVerticalScale@@H@Z PROC ; CVertScaleMaxWidthCalculatorData::CVertScaleMaxWidthCalculatorData, COMDAT
; _this$ = ecx

; 293  : {

  00000	55		 push	 ebp
  00001	8b ec		 mov	 ebp, esp
  00003	6a ff		 push	 -1
  00005	68 00 00 00 00	 push	 __ehhandler$??0CVertScaleMaxWidthCalculatorData@@QAE@_NABVCDisplayAttributes@@ABVCVerticalScale@@H@Z
  0000a	64 a1 00 00 00
	00		 mov	 eax, DWORD PTR fs:0
  00010	50		 push	 eax
  00011	51		 push	 ecx
  00012	56		 push	 esi
  00013	a1 00 00 00 00	 mov	 eax, DWORD PTR ___security_cookie
  00018	33 c5		 xor	 eax, ebp
  0001a	50		 push	 eax
  0001b	8d 45 f4	 lea	 eax, DWORD PTR __$EHRec$[ebp]
  0001e	64 a3 00 00 00
	00		 mov	 DWORD PTR fs:0, eax
  00024	8b f1		 mov	 esi, ecx
  00026	89 75 f0	 mov	 DWORD PTR _this$[ebp], esi

; 286  : 	m_bIsRight(bIsRight),

  00029	8a 45 08	 mov	 al, BYTE PTR _bIsRight$[ebp]

; 287  : 	m_nCalcRiseFallRate_CurData(0),
; 288  : 	m_vertScale(vertScale),

  0002c	8d 4e 08	 lea	 ecx, DWORD PTR [esi+8]
  0002f	ff 75 10	 push	 DWORD PTR _vertScale$[ebp]
  00032	88 06		 mov	 BYTE PTR [esi], al
  00034	c7 46 04 00 00
	00 00		 mov	 DWORD PTR [esi+4], 0
  0003b	ff 15 00 00 00
	00		 call	 DWORD PTR __imp_??0CVerticalScale@@QAE@ABV0@@Z

; 293  : {

  00041	8d 4e 60	 lea	 ecx, DWORD PTR [esi+96]
  00044	c7 45 fc 00 00
	00 00		 mov	 DWORD PTR __$EHRec$[ebp+8], 0
  0004b	ff 15 00 00 00
	00		 call	 DWORD PTR __imp_??0?$CStringT@DV?$StrTraitMFC_DLL@DV?$ChTraitsCRT@D@ATL@@@@@ATL@@QAE@XZ
  00051	8d 4e 64	 lea	 ecx, DWORD PTR [esi+100]
  00054	ff 15 00 00 00
	00		 call	 DWORD PTR __imp_??0?$CStringT@DV?$StrTraitMFC_DLL@DV?$ChTraitsCRT@D@ATL@@@@@ATL@@QAE@XZ
  0005a	8b 45 0c	 mov	 eax, DWORD PTR _displayAttributes$[ebp]
  0005d	c6 45 fc 02	 mov	 BYTE PTR __$EHRec$[ebp+8], 2
  00061	8b 08		 mov	 ecx, DWORD PTR [eax]
  00063	8b 40 04	 mov	 eax, DWORD PTR [eax+4]
  00066	89 4e 68	 mov	 DWORD PTR [esi+104], ecx
  00069	8d 8e 80 00 00
	00		 lea	 ecx, DWORD PTR [esi+128]
  0006f	89 46 6c	 mov	 DWORD PTR [esi+108], eax
  00072	8b 45 14	 mov	 eax, DWORD PTR _p_bIsDualScale$[ebp]
  00075	c7 46 70 00 00
	00 00		 mov	 DWORD PTR [esi+112], 0
  0007c	c7 46 74 00 00
	00 00		 mov	 DWORD PTR [esi+116], 0
  00083	89 46 78	 mov	 DWORD PTR [esi+120], eax
  00086	ff 15 00 00 00
	00		 call	 DWORD PTR __imp_??0CDisplayDataMinMax@@QAE@XZ

; 294  : }

  0008c	8b c6		 mov	 eax, esi
  0008e	8b 4d f4	 mov	 ecx, DWORD PTR __$EHRec$[ebp]
  00091	64 89 0d 00 00
	00 00		 mov	 DWORD PTR fs:0, ecx
  00098	59		 pop	 ecx
  00099	5e		 pop	 esi
  0009a	8b e5		 mov	 esp, ebp
  0009c	5d		 pop	 ebp
  0009d	c2 10 00	 ret	 16			; 00000010H
_TEXT	ENDS
;	COMDAT text$x
text$x	SEGMENT
__unwindfunclet$??0CVertScaleMaxWidthCalculatorData@@QAE@_NABVCDisplayAttributes@@ABVCVerticalScale@@H@Z$0:
  00000	8b 4d f0	 mov	 ecx, DWORD PTR _this$[ebp]
  00003	83 c1 08	 add	 ecx, 8
  00006	ff 25 00 00 00
	00		 jmp	 DWORD PTR __imp_??1CVerticalScale@@QAE@XZ
__unwindfunclet$??0CVertScaleMaxWidthCalculatorData@@QAE@_NABVCDisplayAttributes@@ABVCVerticalScale@@H@Z$1:
  0000c	8b 4d f0	 mov	 ecx, DWORD PTR _this$[ebp]
  0000f	83 c1 60	 add	 ecx, 96			; 00000060H
  00012	ff 25 00 00 00
	00		 jmp	 DWORD PTR __imp_??1?$CStringT@DV?$StrTraitMFC_DLL@DV?$ChTraitsCRT@D@ATL@@@@@ATL@@QAE@XZ
__unwindfunclet$??0CVertScaleMaxWidthCalculatorData@@QAE@_NABVCDisplayAttributes@@ABVCVerticalScale@@H@Z$2:
  00018	8b 4d f0	 mov	 ecx, DWORD PTR _this$[ebp]
  0001b	83 c1 64	 add	 ecx, 100		; 00000064H
  0001e	ff 25 00 00 00
	00		 jmp	 DWORD PTR __imp_??1?$CStringT@DV?$StrTraitMFC_DLL@DV?$ChTraitsCRT@D@ATL@@@@@ATL@@QAE@XZ
  00024	cc		 int	 3
  00025	cc		 int	 3
  00026	cc		 int	 3
  00027	cc		 int	 3
  00028	cc		 int	 3
__ehhandler$??0CVertScaleMaxWidthCalculatorData@@QAE@_NABVCDisplayAttributes@@ABVCVerticalScale@@H@Z:
  00029	90		 npad	 1
  0002a	90		 npad	 1
  0002b	8b 54 24 08	 mov	 edx, DWORD PTR [esp+8]
  0002f	8d 42 0c	 lea	 eax, DWORD PTR [edx+12]
  00032	8b 4a f4	 mov	 ecx, DWORD PTR [edx-12]
  00035	33 c8		 xor	 ecx, eax
  00037	e8 00 00 00 00	 call	 @__security_check_cookie@4
  0003c	b8 00 00 00 00	 mov	 eax, OFFSET __ehfuncinfo$??0CVertScaleMaxWidthCalculatorData@@QAE@_NABVCDisplayAttributes@@ABVCVerticalScale@@H@Z
  00041	e9 00 00 00 00	 jmp	 ___CxxFrameHandler3
text$x	ENDS
??0CVertScaleMaxWidthCalculatorData@@QAE@_NABVCDisplayAttributes@@ABVCVerticalScale@@H@Z ENDP ; CVertScaleMaxWidthCalculatorData::CVertScaleMaxWidthCalculatorData
; Function compile flags: /Ogtp
; File D:\git\src\IBK\IBK_DRFN\ProjSrc\SrcChartEx\ChartOCX\ChartObject\CalculatorData.cpp
;	COMDAT ?GetDisplayAttributes@CHorzScaleMaxWidthCalculatorData@@QBE?AVCDisplayAttributes@@XZ
_TEXT	SEGMENT
___$ReturnUdt$ = 8					; size = 4
?GetDisplayAttributes@CHorzScaleMaxWidthCalculatorData@@QBE?AVCDisplayAttributes@@XZ PROC ; CHorzScaleMaxWidthCalculatorData::GetDisplayAttributes, COMDAT
; _this$ = ecx

; 277  : {

  00000	55		 push	 ebp
  00001	8b ec		 mov	 ebp, esp

; 278  : 	return m_displayAttributes;

  00003	8b 45 08	 mov	 eax, DWORD PTR ___$ReturnUdt$[ebp]
  00006	8b 51 0c	 mov	 edx, DWORD PTR [ecx+12]
  00009	8b 49 10	 mov	 ecx, DWORD PTR [ecx+16]
  0000c	89 10		 mov	 DWORD PTR [eax], edx
  0000e	89 48 04	 mov	 DWORD PTR [eax+4], ecx

; 279  : }

  00011	5d		 pop	 ebp
  00012	c2 04 00	 ret	 4
?GetDisplayAttributes@CHorzScaleMaxWidthCalculatorData@@QBE?AVCDisplayAttributes@@XZ ENDP ; CHorzScaleMaxWidthCalculatorData::GetDisplayAttributes
_TEXT	ENDS
; Function compile flags: /Ogtp
; File D:\git\src\IBK\IBK_DRFN\ProjSrc\SrcChartEx\ChartOCX\ChartObject\CalculatorData.cpp
;	COMDAT ?GetPacketName@CHorzScaleMaxWidthCalculatorData@@QBE?AV?$CStringT@DV?$StrTraitMFC_DLL@DV?$ChTraitsCRT@D@ATL@@@@@ATL@@XZ
_TEXT	SEGMENT
___$ReturnUdt$ = 8					; size = 4
?GetPacketName@CHorzScaleMaxWidthCalculatorData@@QBE?AV?$CStringT@DV?$StrTraitMFC_DLL@DV?$ChTraitsCRT@D@ATL@@@@@ATL@@XZ PROC ; CHorzScaleMaxWidthCalculatorData::GetPacketName, COMDAT
; _this$ = ecx

; 272  : {

  00000	55		 push	 ebp
  00001	8b ec		 mov	 ebp, esp

; 273  : 	return m_strPacketName;

  00003	8d 41 08	 lea	 eax, DWORD PTR [ecx+8]
  00006	8b 4d 08	 mov	 ecx, DWORD PTR ___$ReturnUdt$[ebp]
  00009	50		 push	 eax
  0000a	ff 15 00 00 00
	00		 call	 DWORD PTR __imp_??0?$CStringT@DV?$StrTraitMFC_DLL@DV?$ChTraitsCRT@D@ATL@@@@@ATL@@QAE@ABV01@@Z
  00010	8b 45 08	 mov	 eax, DWORD PTR ___$ReturnUdt$[ebp]

; 274  : }

  00013	5d		 pop	 ebp
  00014	c2 04 00	 ret	 4
?GetPacketName@CHorzScaleMaxWidthCalculatorData@@QBE?AV?$CStringT@DV?$StrTraitMFC_DLL@DV?$ChTraitsCRT@D@ATL@@@@@ATL@@XZ ENDP ; CHorzScaleMaxWidthCalculatorData::GetPacketName
_TEXT	ENDS
; Function compile flags: /Ogtp
; File D:\git\src\IBK\IBK_DRFN\ProjSrc\SrcChartEx\ChartOCX\ChartObject\CalculatorData.cpp
;	COMDAT ?GetPacket@CHorzScaleMaxWidthCalculatorData@@QBEPAVCPacket@@XZ
_TEXT	SEGMENT
?GetPacket@CHorzScaleMaxWidthCalculatorData@@QBEPAVCPacket@@XZ PROC ; CHorzScaleMaxWidthCalculatorData::GetPacket, COMDAT
; _this$ = ecx

; 268  : 	return m_pPacket;

  00000	8b 41 04	 mov	 eax, DWORD PTR [ecx+4]

; 269  : }

  00003	c3		 ret	 0
?GetPacket@CHorzScaleMaxWidthCalculatorData@@QBEPAVCPacket@@XZ ENDP ; CHorzScaleMaxWidthCalculatorData::GetPacket
_TEXT	ENDS
; Function compile flags: /Ogtp
; File D:\git\src\IBK\IBK_DRFN\ProjSrc\SrcChartEx\ChartOCX\ChartObject\CalculatorData.cpp
;	COMDAT ?GetScaleCompart@CHorzScaleMaxWidthCalculatorData@@QBEPAVCScaleCompart@@XZ
_TEXT	SEGMENT
?GetScaleCompart@CHorzScaleMaxWidthCalculatorData@@QBEPAVCScaleCompart@@XZ PROC ; CHorzScaleMaxWidthCalculatorData::GetScaleCompart, COMDAT
; _this$ = ecx

; 263  : 	return m_pScaleCompart;

  00000	8b 01		 mov	 eax, DWORD PTR [ecx]

; 264  : }

  00002	c3		 ret	 0
?GetScaleCompart@CHorzScaleMaxWidthCalculatorData@@QBEPAVCScaleCompart@@XZ ENDP ; CHorzScaleMaxWidthCalculatorData::GetScaleCompart
_TEXT	ENDS
; Function compile flags: /Ogtp
; File D:\git\src\IBK\IBK_DRFN\ProjSrc\SrcChartEx\ChartOCX\ChartObject\CalculatorData.cpp
;	COMDAT ??0CHorzScaleMaxWidthCalculatorData@@QAE@PAVCScaleCompart@@PAVCPacket@@ABV?$CStringT@DV?$StrTraitMFC_DLL@DV?$ChTraitsCRT@D@ATL@@@@@ATL@@ABVCDisplayAttributes@@@Z
_TEXT	SEGMENT
_this$ = -4						; size = 4
_pScaleCompart$ = 8					; size = 4
_pPacket$ = 12						; size = 4
_strPacketName$ = 16					; size = 4
_displayAttributes$ = 20				; size = 4
??0CHorzScaleMaxWidthCalculatorData@@QAE@PAVCScaleCompart@@PAVCPacket@@ABV?$CStringT@DV?$StrTraitMFC_DLL@DV?$ChTraitsCRT@D@ATL@@@@@ATL@@ABVCDisplayAttributes@@@Z PROC ; CHorzScaleMaxWidthCalculatorData::CHorzScaleMaxWidthCalculatorData, COMDAT
; _this$ = ecx

; 258  : {

  00000	55		 push	 ebp
  00001	8b ec		 mov	 ebp, esp
  00003	51		 push	 ecx

; 254  : 	m_pScaleCompart(pScaleCompart),

  00004	8b 45 08	 mov	 eax, DWORD PTR _pScaleCompart$[ebp]
  00007	56		 push	 esi

; 255  : 	m_pPacket(pPacket),
; 256  : 	m_strPacketName(strPacketName),

  00008	ff 75 10	 push	 DWORD PTR _strPacketName$[ebp]
  0000b	8b f1		 mov	 esi, ecx
  0000d	89 75 fc	 mov	 DWORD PTR _this$[ebp], esi
  00010	89 06		 mov	 DWORD PTR [esi], eax
  00012	8d 4e 08	 lea	 ecx, DWORD PTR [esi+8]
  00015	8b 45 0c	 mov	 eax, DWORD PTR _pPacket$[ebp]
  00018	89 46 04	 mov	 DWORD PTR [esi+4], eax
  0001b	ff 15 00 00 00
	00		 call	 DWORD PTR __imp_??0?$CStringT@DV?$StrTraitMFC_DLL@DV?$ChTraitsCRT@D@ATL@@@@@ATL@@QAE@ABV01@@Z

; 257  : 	m_displayAttributes(displayAttributes)

  00021	8b 45 14	 mov	 eax, DWORD PTR _displayAttributes$[ebp]
  00024	8b 08		 mov	 ecx, DWORD PTR [eax]
  00026	8b 40 04	 mov	 eax, DWORD PTR [eax+4]
  00029	89 46 10	 mov	 DWORD PTR [esi+16], eax

; 259  : }

  0002c	8b c6		 mov	 eax, esi
  0002e	89 4e 0c	 mov	 DWORD PTR [esi+12], ecx
  00031	5e		 pop	 esi
  00032	8b e5		 mov	 esp, ebp
  00034	5d		 pop	 ebp
  00035	c2 10 00	 ret	 16			; 00000010H
??0CHorzScaleMaxWidthCalculatorData@@QAE@PAVCScaleCompart@@PAVCPacket@@ABV?$CStringT@DV?$StrTraitMFC_DLL@DV?$ChTraitsCRT@D@ATL@@@@@ATL@@ABVCDisplayAttributes@@@Z ENDP ; CHorzScaleMaxWidthCalculatorData::CHorzScaleMaxWidthCalculatorData
_TEXT	ENDS
; Function compile flags: /Ogtp
; File D:\git\src\IBK\IBK_DRFN\ProjSrc\SrcChartEx\ChartOCX\ChartObject\CalculatorData.cpp
;	COMDAT ?GetDisplayAttributes@CDrawingRegionCalData@@QBE?AVCDisplayAttributes@@XZ
_TEXT	SEGMENT
___$ReturnUdt$ = 8					; size = 4
?GetDisplayAttributes@CDrawingRegionCalData@@QBE?AVCDisplayAttributes@@XZ PROC ; CDrawingRegionCalData::GetDisplayAttributes, COMDAT
; _this$ = ecx

; 244  : {

  00000	55		 push	 ebp
  00001	8b ec		 mov	 ebp, esp

; 245  : 	return m_displayAttributes;

  00003	8b 45 08	 mov	 eax, DWORD PTR ___$ReturnUdt$[ebp]
  00006	8b 51 2c	 mov	 edx, DWORD PTR [ecx+44]
  00009	8b 49 30	 mov	 ecx, DWORD PTR [ecx+48]
  0000c	89 10		 mov	 DWORD PTR [eax], edx
  0000e	89 48 04	 mov	 DWORD PTR [eax+4], ecx

; 246  : }

  00011	5d		 pop	 ebp
  00012	c2 04 00	 ret	 4
?GetDisplayAttributes@CDrawingRegionCalData@@QBE?AVCDisplayAttributes@@XZ ENDP ; CDrawingRegionCalData::GetDisplayAttributes
_TEXT	ENDS
; Function compile flags: /Ogtp
; File D:\git\src\IBK\IBK_DRFN\ProjSrc\SrcChartEx\ChartOCX\ChartObject\CalculatorData.cpp
;	COMDAT ?GetVertScaleRegionWidth@CDrawingRegionCalData@@QBEABVCVertScaleRegionWidth@@XZ
_TEXT	SEGMENT
?GetVertScaleRegionWidth@CDrawingRegionCalData@@QBEABVCVertScaleRegionWidth@@XZ PROC ; CDrawingRegionCalData::GetVertScaleRegionWidth, COMDAT
; _this$ = ecx

; 240  : 	return m_vertScaleRegionWidth;

  00000	8d 41 24	 lea	 eax, DWORD PTR [ecx+36]

; 241  : }

  00003	c3		 ret	 0
?GetVertScaleRegionWidth@CDrawingRegionCalData@@QBEABVCVertScaleRegionWidth@@XZ ENDP ; CDrawingRegionCalData::GetVertScaleRegionWidth
_TEXT	ENDS
; Function compile flags: /Ogtp
; File D:\git\src\IBK\IBK_DRFN\ProjSrc\SrcChartEx\ChartOCX\ChartObject\CalculatorData.cpp
;	COMDAT ?GetHorzScaleRegionHeight@CDrawingRegionCalData@@QBEABVCHorzScaleRegionHeight@@XZ
_TEXT	SEGMENT
?GetHorzScaleRegionHeight@CDrawingRegionCalData@@QBEABVCHorzScaleRegionHeight@@XZ PROC ; CDrawingRegionCalData::GetHorzScaleRegionHeight, COMDAT
; _this$ = ecx

; 235  : 	return m_horzScaleRegionHeight;

  00000	8d 41 1c	 lea	 eax, DWORD PTR [ecx+28]

; 236  : }

  00003	c3		 ret	 0
?GetHorzScaleRegionHeight@CDrawingRegionCalData@@QBEABVCHorzScaleRegionHeight@@XZ ENDP ; CDrawingRegionCalData::GetHorzScaleRegionHeight
_TEXT	ENDS
; Function compile flags: /Ogtp
; File D:\git\src\IBK\IBK_DRFN\ProjSrc\SrcChartEx\ChartOCX\ChartObject\CalculatorData.cpp
;	COMDAT ?GetMaxVertScaleRegionWidth@CDrawingRegionCalData@@QBEHXZ
_TEXT	SEGMENT
?GetMaxVertScaleRegionWidth@CDrawingRegionCalData@@QBEHXZ PROC ; CDrawingRegionCalData::GetMaxVertScaleRegionWidth, COMDAT
; _this$ = ecx

; 230  : 	return m_nMaxVertScaleRegionWidth;

  00000	8b 41 18	 mov	 eax, DWORD PTR [ecx+24]

; 231  : }

  00003	c3		 ret	 0
?GetMaxVertScaleRegionWidth@CDrawingRegionCalData@@QBEHXZ ENDP ; CDrawingRegionCalData::GetMaxVertScaleRegionWidth
_TEXT	ENDS
; Function compile flags: /Ogtp
; File D:\git\src\IBK\IBK_DRFN\ProjSrc\SrcChartEx\ChartOCX\ChartObject\CalculatorData.cpp
;	COMDAT ?IsVertScale@CDrawingRegionCalData@@QBE_NXZ
_TEXT	SEGMENT
?IsVertScale@CDrawingRegionCalData@@QBE_NXZ PROC	; CDrawingRegionCalData::IsVertScale, COMDAT
; _this$ = ecx

; 225  : 	return m_bIsVertScale;

  00000	8a 41 17	 mov	 al, BYTE PTR [ecx+23]

; 226  : }

  00003	c3		 ret	 0
?IsVertScale@CDrawingRegionCalData@@QBE_NXZ ENDP	; CDrawingRegionCalData::IsVertScale
_TEXT	ENDS
; Function compile flags: /Ogtp
; File D:\git\src\IBK\IBK_DRFN\ProjSrc\SrcChartEx\ChartOCX\ChartObject\CalculatorData.cpp
;	COMDAT ?IsGraphTextDraw@CDrawingRegionCalData@@QBE_NXZ
_TEXT	SEGMENT
?IsGraphTextDraw@CDrawingRegionCalData@@QBE_NXZ PROC	; CDrawingRegionCalData::IsGraphTextDraw, COMDAT
; _this$ = ecx

; 215  : 	return m_bIsGraphTextDraw;

  00000	8a 41 15	 mov	 al, BYTE PTR [ecx+21]

; 216  : }

  00003	c3		 ret	 0
?IsGraphTextDraw@CDrawingRegionCalData@@QBE_NXZ ENDP	; CDrawingRegionCalData::IsGraphTextDraw
_TEXT	ENDS
; Function compile flags: /Ogtp
; File D:\git\src\IBK\IBK_DRFN\ProjSrc\SrcChartEx\ChartOCX\ChartObject\CalculatorData.cpp
;	COMDAT ?IsGraphTextDrawCheck@CDrawingRegionCalData@@QBE_NXZ
_TEXT	SEGMENT
?IsGraphTextDrawCheck@CDrawingRegionCalData@@QBE_NXZ PROC ; CDrawingRegionCalData::IsGraphTextDrawCheck, COMDAT
; _this$ = ecx

; 210  : 	return m_bIsGraphTextDrawCheck;

  00000	8a 41 14	 mov	 al, BYTE PTR [ecx+20]

; 211  : }

  00003	c3		 ret	 0
?IsGraphTextDrawCheck@CDrawingRegionCalData@@QBE_NXZ ENDP ; CDrawingRegionCalData::IsGraphTextDrawCheck
_TEXT	ENDS
; Function compile flags: /Ogtp
; File D:\git\src\IBK\IBK_DRFN\ProjSrc\SrcChartEx\ChartOCX\ChartObject\CalculatorData.cpp
;	COMDAT ?IsGraphTitleDraw@CDrawingRegionCalData@@QBE_NXZ
_TEXT	SEGMENT
?IsGraphTitleDraw@CDrawingRegionCalData@@QBE_NXZ PROC	; CDrawingRegionCalData::IsGraphTitleDraw, COMDAT
; _this$ = ecx

; 220  : 	return m_bIsGraphTitleDraw;

  00000	8a 41 16	 mov	 al, BYTE PTR [ecx+22]

; 221  : }

  00003	c3		 ret	 0
?IsGraphTitleDraw@CDrawingRegionCalData@@QBE_NXZ ENDP	; CDrawingRegionCalData::IsGraphTitleDraw
_TEXT	ENDS
; Function compile flags: /Ogtp
; File D:\git\src\IBK\IBK_DRFN\ProjSrc\SrcChartEx\ChartOCX\ChartObject\CalculatorData.cpp
;	COMDAT ?GetGraphRegionFrameThickness@CDrawingRegionCalData@@QBEHXZ
_TEXT	SEGMENT
?GetGraphRegionFrameThickness@CDrawingRegionCalData@@QBEHXZ PROC ; CDrawingRegionCalData::GetGraphRegionFrameThickness, COMDAT
; _this$ = ecx

; 205  : 	return m_nGraphRegionFrameThickness;

  00000	8b 41 10	 mov	 eax, DWORD PTR [ecx+16]

; 206  : }

  00003	c3		 ret	 0
?GetGraphRegionFrameThickness@CDrawingRegionCalData@@QBEHXZ ENDP ; CDrawingRegionCalData::GetGraphRegionFrameThickness
_TEXT	ENDS
; Function compile flags: /Ogtp
; File D:\git\src\IBK\IBK_DRFN\ProjSrc\SrcChartEx\ChartOCX\ChartObject\CalculatorData.cpp
;	COMDAT ?GetBlockRegion@CDrawingRegionCalData@@QBE?AVCRect@@XZ
_TEXT	SEGMENT
___$ReturnUdt$ = 8					; size = 4
?GetBlockRegion@CDrawingRegionCalData@@QBE?AVCRect@@XZ PROC ; CDrawingRegionCalData::GetBlockRegion, COMDAT
; _this$ = ecx

; 199  : {

  00000	55		 push	 ebp
  00001	8b ec		 mov	 ebp, esp

; 200  : 	return m_blockRegion;

  00003	8b 45 08	 mov	 eax, DWORD PTR ___$ReturnUdt$[ebp]
  00006	0f 10 01	 movups	 xmm0, XMMWORD PTR [ecx]
  00009	0f 11 00	 movups	 XMMWORD PTR [eax], xmm0

; 201  : }

  0000c	5d		 pop	 ebp
  0000d	c2 04 00	 ret	 4
?GetBlockRegion@CDrawingRegionCalData@@QBE?AVCRect@@XZ ENDP ; CDrawingRegionCalData::GetBlockRegion
_TEXT	ENDS
; Function compile flags: /Ogtp
; File D:\git\src\IBK\IBK_DRFN\ProjSrc\SrcChartEx\ChartOCX\ChartObject\CalculatorData.cpp
;	COMDAT ?SetDisplayAttributes@CDrawingRegionCalData@@QAEXABVCDisplayAttributes@@@Z
_TEXT	SEGMENT
_displayAttributes$ = 8					; size = 4
?SetDisplayAttributes@CDrawingRegionCalData@@QAEXABVCDisplayAttributes@@@Z PROC ; CDrawingRegionCalData::SetDisplayAttributes, COMDAT
; _this$ = ecx

; 193  : {

  00000	55		 push	 ebp
  00001	8b ec		 mov	 ebp, esp

; 194  : 	m_displayAttributes = displayAttributes;

  00003	83 c1 2c	 add	 ecx, 44			; 0000002cH

; 195  : }

  00006	5d		 pop	 ebp

; 194  : 	m_displayAttributes = displayAttributes;

  00007	e9 00 00 00 00	 jmp	 ??4CDisplayAttributes@@QAEAAV0@ABV0@@Z ; CDisplayAttributes::operator=
?SetDisplayAttributes@CDrawingRegionCalData@@QAEXABVCDisplayAttributes@@@Z ENDP ; CDrawingRegionCalData::SetDisplayAttributes
_TEXT	ENDS
; Function compile flags: /Ogtp
; File D:\git\src\IBK\IBK_DRFN\ProjSrc\SrcChartEx\ChartOCX\ChartObject\CalculatorData.cpp
;	COMDAT ?SetMaxVertScaleRegionWidth@CDrawingRegionCalData@@QAEXH@Z
_TEXT	SEGMENT
_maxVertScaleRegionWidth$ = 8				; size = 4
?SetMaxVertScaleRegionWidth@CDrawingRegionCalData@@QAEXH@Z PROC ; CDrawingRegionCalData::SetMaxVertScaleRegionWidth, COMDAT
; _this$ = ecx

; 188  : {

  00000	55		 push	 ebp
  00001	8b ec		 mov	 ebp, esp

; 189  : 	m_nMaxVertScaleRegionWidth = maxVertScaleRegionWidth;

  00003	8b 45 08	 mov	 eax, DWORD PTR _maxVertScaleRegionWidth$[ebp]
  00006	89 41 18	 mov	 DWORD PTR [ecx+24], eax

; 190  : }

  00009	5d		 pop	 ebp
  0000a	c2 04 00	 ret	 4
?SetMaxVertScaleRegionWidth@CDrawingRegionCalData@@QAEXH@Z ENDP ; CDrawingRegionCalData::SetMaxVertScaleRegionWidth
_TEXT	ENDS
; Function compile flags: /Ogtp
; File D:\git\src\IBK\IBK_DRFN\ProjSrc\SrcChartEx\ChartOCX\ChartObject\CalculatorData.cpp
;	COMDAT ?SetGraphTitleDraw@CDrawingRegionCalData@@QAEX_N@Z
_TEXT	SEGMENT
_bIsGraphTitleDraw$ = 8					; size = 1
?SetGraphTitleDraw@CDrawingRegionCalData@@QAEX_N@Z PROC	; CDrawingRegionCalData::SetGraphTitleDraw, COMDAT
; _this$ = ecx

; 183  : {

  00000	55		 push	 ebp
  00001	8b ec		 mov	 ebp, esp

; 184  : 	m_bIsGraphTitleDraw = bIsGraphTitleDraw;

  00003	8a 45 08	 mov	 al, BYTE PTR _bIsGraphTitleDraw$[ebp]
  00006	88 41 16	 mov	 BYTE PTR [ecx+22], al

; 185  : }

  00009	5d		 pop	 ebp
  0000a	c2 04 00	 ret	 4
?SetGraphTitleDraw@CDrawingRegionCalData@@QAEX_N@Z ENDP	; CDrawingRegionCalData::SetGraphTitleDraw
_TEXT	ENDS
; Function compile flags: /Ogtp
; File D:\git\src\IBK\IBK_DRFN\ProjSrc\SrcChartEx\ChartOCX\ChartObject\CalculatorData.cpp
;	COMDAT ??0CDrawingRegionCalData@@QAE@ABVCRect@@H_N111ABVCHorzScaleRegionHeight@@ABVCVertScaleRegionWidth@@H@Z
_TEXT	SEGMENT
_blockRegion$ = 8					; size = 4
_graphRegionFrameThickness$ = 12			; size = 4
_bIsGraphTextDrawCheck$ = 16				; size = 1
_bIsGraphTextDraw$ = 20					; size = 1
_bIsGraphTitleDraw$ = 24				; size = 1
_bIsVertScale$ = 28					; size = 1
_horzScaleRegionHeight$ = 32				; size = 4
_vertScaleRegionWidth$ = 36				; size = 4
_p_bBlockMoveDelete$ = 40				; size = 4
??0CDrawingRegionCalData@@QAE@ABVCRect@@H_N111ABVCHorzScaleRegionHeight@@ABVCVertScaleRegionWidth@@H@Z PROC ; CDrawingRegionCalData::CDrawingRegionCalData, COMDAT
; _this$ = ecx

; 179  : {

  00000	55		 push	 ebp
  00001	8b ec		 mov	 ebp, esp

; 169  : 	m_blockRegion(blockRegion),

  00003	8b 45 08	 mov	 eax, DWORD PTR _blockRegion$[ebp]

; 179  : {

  00006	56		 push	 esi
  00007	8b f1		 mov	 esi, ecx
  00009	0f 10 00	 movups	 xmm0, XMMWORD PTR [eax]

; 170  : 	m_nGraphRegionFrameThickness(graphRegionFrameThickness),

  0000c	8b 45 0c	 mov	 eax, DWORD PTR _graphRegionFrameThickness$[ebp]
  0000f	89 46 10	 mov	 DWORD PTR [esi+16], eax

; 171  : 	m_bIsGraphTextDrawCheck(bIsGraphTextDrawCheck),

  00012	8a 45 10	 mov	 al, BYTE PTR _bIsGraphTextDrawCheck$[ebp]
  00015	88 46 14	 mov	 BYTE PTR [esi+20], al

; 172  : 	m_bIsGraphTextDraw(bIsGraphTextDraw),

  00018	8a 45 14	 mov	 al, BYTE PTR _bIsGraphTextDraw$[ebp]
  0001b	88 46 15	 mov	 BYTE PTR [esi+21], al

; 173  : 	m_bIsGraphTitleDraw(bIsGraphTitleDraw),

  0001e	8a 45 18	 mov	 al, BYTE PTR _bIsGraphTitleDraw$[ebp]
  00021	88 46 16	 mov	 BYTE PTR [esi+22], al

; 174  : 	m_bIsVertScale(bIsVertScale),

  00024	8a 45 1c	 mov	 al, BYTE PTR _bIsVertScale$[ebp]
  00027	88 46 17	 mov	 BYTE PTR [esi+23], al

; 175  : 	m_horzScaleRegionHeight(horzScaleRegionHeight),

  0002a	8b 45 20	 mov	 eax, DWORD PTR _horzScaleRegionHeight$[ebp]
  0002d	0f 11 06	 movups	 XMMWORD PTR [esi], xmm0
  00030	c7 46 18 00 00
	00 00		 mov	 DWORD PTR [esi+24], 0
  00037	8b 08		 mov	 ecx, DWORD PTR [eax]
  00039	8b 40 04	 mov	 eax, DWORD PTR [eax+4]
  0003c	89 46 20	 mov	 DWORD PTR [esi+32], eax

; 176  : 	m_vertScaleRegionWidth(vertScaleRegionWidth),

  0003f	8b 45 24	 mov	 eax, DWORD PTR _vertScaleRegionWidth$[ebp]
  00042	89 4e 1c	 mov	 DWORD PTR [esi+28], ecx
  00045	8b 08		 mov	 ecx, DWORD PTR [eax]
  00047	8b 40 04	 mov	 eax, DWORD PTR [eax+4]
  0004a	89 4e 24	 mov	 DWORD PTR [esi+36], ecx

; 179  : {

  0004d	8d 4e 2c	 lea	 ecx, DWORD PTR [esi+44]
  00050	89 46 28	 mov	 DWORD PTR [esi+40], eax
  00053	e8 00 00 00 00	 call	 ??0CDisplayAttributes@@QAE@XZ ; CDisplayAttributes::CDisplayAttributes

; 177  : 	m_nMaxVertScaleRegionWidth(0),
; 178  : 	m_bBlockMoveDelete( p_bBlockMoveDelete)

  00058	8b 45 28	 mov	 eax, DWORD PTR _p_bBlockMoveDelete$[ebp]
  0005b	89 46 34	 mov	 DWORD PTR [esi+52], eax

; 180  : }

  0005e	8b c6		 mov	 eax, esi
  00060	5e		 pop	 esi
  00061	5d		 pop	 ebp
  00062	c2 24 00	 ret	 36			; 00000024H
??0CDrawingRegionCalData@@QAE@ABVCRect@@H_N111ABVCHorzScaleRegionHeight@@ABVCVertScaleRegionWidth@@H@Z ENDP ; CDrawingRegionCalData::CDrawingRegionCalData
_TEXT	ENDS
; Function compile flags: /Ogtp
; File D:\git\src\IBK\IBK_DRFN\ProjSrc\SrcChartEx\ChartOCX\ChartObject\CalculatorData.cpp
;	COMDAT ?SetDataStartEndInBlock@CVertDisplayDataMinMaxInputData@@QAEXHH@Z
_TEXT	SEGMENT
_nStart$ = 8						; size = 4
_nEnd$ = 12						; size = 4
?SetDataStartEndInBlock@CVertDisplayDataMinMaxInputData@@QAEXHH@Z PROC ; CVertDisplayDataMinMaxInputData::SetDataStartEndInBlock, COMDAT
; _this$ = ecx

; 150  : {

  00000	55		 push	 ebp
  00001	8b ec		 mov	 ebp, esp
  00003	56		 push	 esi

; 151  : 	m_displayAttributes.SetDataStartInBlock(nStart);

  00004	ff 75 08	 push	 DWORD PTR _nStart$[ebp]
  00007	8d 71 0c	 lea	 esi, DWORD PTR [ecx+12]
  0000a	8b ce		 mov	 ecx, esi
  0000c	e8 00 00 00 00	 call	 ?SetDataStartInBlock@CDisplayAttributes@@QAEXH@Z ; CDisplayAttributes::SetDataStartInBlock

; 152  : 	m_displayAttributes.SetDataEndInBlock(nEnd);

  00011	ff 75 0c	 push	 DWORD PTR _nEnd$[ebp]
  00014	8b ce		 mov	 ecx, esi
  00016	e8 00 00 00 00	 call	 ?SetDataEndInBlock@CDisplayAttributes@@QAEXH@Z ; CDisplayAttributes::SetDataEndInBlock
  0001b	5e		 pop	 esi

; 153  : }

  0001c	5d		 pop	 ebp
  0001d	c2 08 00	 ret	 8
?SetDataStartEndInBlock@CVertDisplayDataMinMaxInputData@@QAEXHH@Z ENDP ; CVertDisplayDataMinMaxInputData::SetDataStartEndInBlock
_TEXT	ENDS
; Function compile flags: /Ogtp
; File D:\git\src\IBK\IBK_DRFN\ProjSrc\SrcChartEx\ChartOCX\ChartObject\CalculatorData.cpp
;	COMDAT ?GetSubGraphPacketList@CVertDisplayDataMinMaxInputData@@QBEPAVCSubGraphPacketList@@XZ
_TEXT	SEGMENT
?GetSubGraphPacketList@CVertDisplayDataMinMaxInputData@@QBEPAVCSubGraphPacketList@@XZ PROC ; CVertDisplayDataMinMaxInputData::GetSubGraphPacketList, COMDAT
; _this$ = ecx

; 146  : 	return m_pSubGraphPacketList;

  00000	8b 41 18	 mov	 eax, DWORD PTR [ecx+24]

; 147  : }

  00003	c3		 ret	 0
?GetSubGraphPacketList@CVertDisplayDataMinMaxInputData@@QBEPAVCSubGraphPacketList@@XZ ENDP ; CVertDisplayDataMinMaxInputData::GetSubGraphPacketList
_TEXT	ENDS
; Function compile flags: /Ogtp
; File D:\git\src\IBK\IBK_DRFN\ProjSrc\SrcChartEx\ChartOCX\ChartObject\CalculatorData.cpp
;	COMDAT ?GetSubGraphData@CVertDisplayDataMinMaxInputData@@QBEPAVCSubGraphData@@XZ
_TEXT	SEGMENT
?GetSubGraphData@CVertDisplayDataMinMaxInputData@@QBEPAVCSubGraphData@@XZ PROC ; CVertDisplayDataMinMaxInputData::GetSubGraphData, COMDAT
; _this$ = ecx

; 141  : 	return m_pSubGraphData;

  00000	8b 41 14	 mov	 eax, DWORD PTR [ecx+20]

; 142  : }

  00003	c3		 ret	 0
?GetSubGraphData@CVertDisplayDataMinMaxInputData@@QBEPAVCSubGraphData@@XZ ENDP ; CVertDisplayDataMinMaxInputData::GetSubGraphData
_TEXT	ENDS
; Function compile flags: /Ogtp
; File D:\git\src\IBK\IBK_DRFN\ProjSrc\SrcChartEx\ChartOCX\ChartObject\CalculatorData.cpp
;	COMDAT ?GetDisplayAttributes@CVertDisplayDataMinMaxInputData@@QBE?AVCDisplayAttributes@@XZ
_TEXT	SEGMENT
___$ReturnUdt$ = 8					; size = 4
?GetDisplayAttributes@CVertDisplayDataMinMaxInputData@@QBE?AVCDisplayAttributes@@XZ PROC ; CVertDisplayDataMinMaxInputData::GetDisplayAttributes, COMDAT
; _this$ = ecx

; 121  : {

  00000	55		 push	 ebp
  00001	8b ec		 mov	 ebp, esp

; 122  : 	return m_displayAttributes;

  00003	8b 45 08	 mov	 eax, DWORD PTR ___$ReturnUdt$[ebp]
  00006	8b 51 0c	 mov	 edx, DWORD PTR [ecx+12]
  00009	8b 49 10	 mov	 ecx, DWORD PTR [ecx+16]
  0000c	89 10		 mov	 DWORD PTR [eax], edx
  0000e	89 48 04	 mov	 DWORD PTR [eax+4], ecx

; 123  : }

  00011	5d		 pop	 ebp
  00012	c2 04 00	 ret	 4
?GetDisplayAttributes@CVertDisplayDataMinMaxInputData@@QBE?AVCDisplayAttributes@@XZ ENDP ; CVertDisplayDataMinMaxInputData::GetDisplayAttributes
_TEXT	ENDS
; Function compile flags: /Ogtp
; File D:\git\src\IBK\IBK_DRFN\ProjSrc\SrcChartEx\ChartOCX\ChartObject\CalculatorData.cpp
; File D:\git\src\IBK\IBK_DRFN\ProjSrc\SrcChartEx\ChartOCX\Include_Chart\BlockBaseData.h
; File D:\git\src\IBK\IBK_DRFN\ProjSrc\SrcChartEx\ChartOCX\ChartObject\CalculatorData.cpp
;	COMDAT ?GetSubGraphStyle@CVertDisplayDataMinMaxInputData@@QBE?AVCGraphStyle@@XZ
_TEXT	SEGMENT
___$ReturnUdt$ = 8					; size = 4
?GetSubGraphStyle@CVertDisplayDataMinMaxInputData@@QBE?AVCGraphStyle@@XZ PROC ; CVertDisplayDataMinMaxInputData::GetSubGraphStyle, COMDAT
; _this$ = ecx

; 133  : {

  00000	55		 push	 ebp
  00001	8b ec		 mov	 ebp, esp

; 134  : 	if(m_pSubGraphData == NULL)

  00003	8b 49 14	 mov	 ecx, DWORD PTR [ecx+20]
  00006	85 c9		 test	 ecx, ecx
  00008	75 0d		 jne	 SHORT $LN2@GetSubGrap
; File D:\git\src\IBK\IBK_DRFN\ProjSrc\SrcChartEx\ChartOCX\Include_Chart\BlockBaseData.h

; 42   : 	CGraphStyle() { m_nStyle = -1; };

  0000a	8b 45 08	 mov	 eax, DWORD PTR ___$ReturnUdt$[ebp]
  0000d	c7 00 ff ff ff
	ff		 mov	 DWORD PTR [eax], -1
; File D:\git\src\IBK\IBK_DRFN\ProjSrc\SrcChartEx\ChartOCX\ChartObject\CalculatorData.cpp

; 137  : }

  00013	5d		 pop	 ebp
  00014	c2 04 00	 ret	 4
$LN2@GetSubGrap:

; 135  : 		return CGraphStyle();
; 136  : 	return m_pSubGraphData->GetStyle();

  00017	ff 75 08	 push	 DWORD PTR ___$ReturnUdt$[ebp]
  0001a	ff 15 00 00 00
	00		 call	 DWORD PTR __imp_?GetStyle@CSubGraphDataBase@@QBE?AVCGraphStyle@@XZ
  00020	8b 45 08	 mov	 eax, DWORD PTR ___$ReturnUdt$[ebp]

; 137  : }

  00023	5d		 pop	 ebp
  00024	c2 04 00	 ret	 4
?GetSubGraphStyle@CVertDisplayDataMinMaxInputData@@QBE?AVCGraphStyle@@XZ ENDP ; CVertDisplayDataMinMaxInputData::GetSubGraphStyle
_TEXT	ENDS
; Function compile flags: /Ogtp
; File D:\git\src\IBK\IBK_DRFN\ProjSrc\SrcChartEx\ChartOCX\ChartObject\CalculatorData.cpp
;	COMDAT ?GetSubGraphType@CVertDisplayDataMinMaxInputData@@QBE?AW4GRAPHTYPE@CGraphBaseData@@XZ
_TEXT	SEGMENT
?GetSubGraphType@CVertDisplayDataMinMaxInputData@@QBE?AW4GRAPHTYPE@CGraphBaseData@@XZ PROC ; CVertDisplayDataMinMaxInputData::GetSubGraphType, COMDAT
; _this$ = ecx

; 127  : 	if(m_pSubGraphData == NULL)

  00000	8b 49 14	 mov	 ecx, DWORD PTR [ecx+20]
  00003	85 c9		 test	 ecx, ecx
  00005	75 04		 jne	 SHORT $LN2@GetSubGrap

; 128  : 		return CGraphBaseData::GTNONE;

  00007	83 c8 ff	 or	 eax, -1

; 130  : }

  0000a	c3		 ret	 0
$LN2@GetSubGrap:

; 129  : 	return m_pSubGraphData->GetType();

  0000b	ff 25 00 00 00
	00		 jmp	 DWORD PTR __imp_?GetType@CSubGraphDataBase@@QBE?AW4GRAPHTYPE@CGraphBaseData@@XZ
?GetSubGraphType@CVertDisplayDataMinMaxInputData@@QBE?AW4GRAPHTYPE@CGraphBaseData@@XZ ENDP ; CVertDisplayDataMinMaxInputData::GetSubGraphType
_TEXT	ENDS
; Function compile flags: /Ogtp
; File D:\git\src\IBK\IBK_DRFN\ProjSrc\SrcChartEx\ChartOCX\ChartObject\CalculatorData.cpp
;	COMDAT ?GetScaleData@CVertDisplayDataMinMaxInputData@@QBE?AV?$CStringT@DV?$StrTraitMFC_DLL@DV?$ChTraitsCRT@D@ATL@@@@@ATL@@XZ
_TEXT	SEGMENT
___$ReturnUdt$ = 8					; size = 4
?GetScaleData@CVertDisplayDataMinMaxInputData@@QBE?AV?$CStringT@DV?$StrTraitMFC_DLL@DV?$ChTraitsCRT@D@ATL@@@@@ATL@@XZ PROC ; CVertDisplayDataMinMaxInputData::GetScaleData, COMDAT
; _this$ = ecx

; 116  : {

  00000	55		 push	 ebp
  00001	8b ec		 mov	 ebp, esp

; 117  : 	return m_strScaleData;

  00003	8d 41 08	 lea	 eax, DWORD PTR [ecx+8]
  00006	8b 4d 08	 mov	 ecx, DWORD PTR ___$ReturnUdt$[ebp]
  00009	50		 push	 eax
  0000a	ff 15 00 00 00
	00		 call	 DWORD PTR __imp_??0?$CStringT@DV?$StrTraitMFC_DLL@DV?$ChTraitsCRT@D@ATL@@@@@ATL@@QAE@ABV01@@Z
  00010	8b 45 08	 mov	 eax, DWORD PTR ___$ReturnUdt$[ebp]

; 118  : }

  00013	5d		 pop	 ebp
  00014	c2 04 00	 ret	 4
?GetScaleData@CVertDisplayDataMinMaxInputData@@QBE?AV?$CStringT@DV?$StrTraitMFC_DLL@DV?$ChTraitsCRT@D@ATL@@@@@ATL@@XZ ENDP ; CVertDisplayDataMinMaxInputData::GetScaleData
_TEXT	ENDS
; Function compile flags: /Ogtp
; File D:\git\src\IBK\IBK_DRFN\ProjSrc\SrcChartEx\ChartOCX\ChartObject\CalculatorData.cpp
;	COMDAT ?GetIndicatorName@CVertDisplayDataMinMaxInputData@@QBE?AV?$CStringT@DV?$StrTraitMFC_DLL@DV?$ChTraitsCRT@D@ATL@@@@@ATL@@XZ
_TEXT	SEGMENT
___$ReturnUdt$ = 8					; size = 4
?GetIndicatorName@CVertDisplayDataMinMaxInputData@@QBE?AV?$CStringT@DV?$StrTraitMFC_DLL@DV?$ChTraitsCRT@D@ATL@@@@@ATL@@XZ PROC ; CVertDisplayDataMinMaxInputData::GetIndicatorName, COMDAT
; _this$ = ecx

; 106  : {

  00000	55		 push	 ebp
  00001	8b ec		 mov	 ebp, esp

; 107  : 	return m_strIndicatorName;

  00003	8d 41 04	 lea	 eax, DWORD PTR [ecx+4]
  00006	8b 4d 08	 mov	 ecx, DWORD PTR ___$ReturnUdt$[ebp]
  00009	50		 push	 eax
  0000a	ff 15 00 00 00
	00		 call	 DWORD PTR __imp_??0?$CStringT@DV?$StrTraitMFC_DLL@DV?$ChTraitsCRT@D@ATL@@@@@ATL@@QAE@ABV01@@Z
  00010	8b 45 08	 mov	 eax, DWORD PTR ___$ReturnUdt$[ebp]

; 108  : }

  00013	5d		 pop	 ebp
  00014	c2 04 00	 ret	 4
?GetIndicatorName@CVertDisplayDataMinMaxInputData@@QBE?AV?$CStringT@DV?$StrTraitMFC_DLL@DV?$ChTraitsCRT@D@ATL@@@@@ATL@@XZ ENDP ; CVertDisplayDataMinMaxInputData::GetIndicatorName
_TEXT	ENDS
; Function compile flags: /Ogtp
; File D:\git\src\IBK\IBK_DRFN\ProjSrc\SrcChartEx\ChartOCX\ChartObject\CalculatorData.cpp
;	COMDAT ?GetGraphName@CVertDisplayDataMinMaxInputData@@QBE?AV?$CStringT@DV?$StrTraitMFC_DLL@DV?$ChTraitsCRT@D@ATL@@@@@ATL@@XZ
_TEXT	SEGMENT
___$ReturnUdt$ = 8					; size = 4
?GetGraphName@CVertDisplayDataMinMaxInputData@@QBE?AV?$CStringT@DV?$StrTraitMFC_DLL@DV?$ChTraitsCRT@D@ATL@@@@@ATL@@XZ PROC ; CVertDisplayDataMinMaxInputData::GetGraphName, COMDAT
; _this$ = ecx

; 111  : {

  00000	55		 push	 ebp
  00001	8b ec		 mov	 ebp, esp

; 112  : 	return m_strGraphName;

  00003	51		 push	 ecx
  00004	8b 4d 08	 mov	 ecx, DWORD PTR ___$ReturnUdt$[ebp]
  00007	ff 15 00 00 00
	00		 call	 DWORD PTR __imp_??0?$CStringT@DV?$StrTraitMFC_DLL@DV?$ChTraitsCRT@D@ATL@@@@@ATL@@QAE@ABV01@@Z
  0000d	8b 45 08	 mov	 eax, DWORD PTR ___$ReturnUdt$[ebp]

; 113  : }

  00010	5d		 pop	 ebp
  00011	c2 04 00	 ret	 4
?GetGraphName@CVertDisplayDataMinMaxInputData@@QBE?AV?$CStringT@DV?$StrTraitMFC_DLL@DV?$ChTraitsCRT@D@ATL@@@@@ATL@@XZ ENDP ; CVertDisplayDataMinMaxInputData::GetGraphName
_TEXT	ENDS
; Function compile flags: /Ogtp
; File D:\git\src\IBK\IBK_DRFN\ProjSrc\SrcChartEx\ChartOCX\ChartObject\CalculatorData.cpp
;	COMDAT ?SetSubGraphPacketList@CVertDisplayDataMinMaxInputData@@QAEXPAVCSubGraphPacketList@@@Z
_TEXT	SEGMENT
_pSubGraphPacketList$ = 8				; size = 4
?SetSubGraphPacketList@CVertDisplayDataMinMaxInputData@@QAEXPAVCSubGraphPacketList@@@Z PROC ; CVertDisplayDataMinMaxInputData::SetSubGraphPacketList, COMDAT
; _this$ = ecx

; 100  : {

  00000	55		 push	 ebp
  00001	8b ec		 mov	 ebp, esp

; 101  : 	m_pSubGraphPacketList = pSubGraphPacketList;

  00003	8b 45 08	 mov	 eax, DWORD PTR _pSubGraphPacketList$[ebp]
  00006	89 41 18	 mov	 DWORD PTR [ecx+24], eax

; 102  : }

  00009	5d		 pop	 ebp
  0000a	c2 04 00	 ret	 4
?SetSubGraphPacketList@CVertDisplayDataMinMaxInputData@@QAEXPAVCSubGraphPacketList@@@Z ENDP ; CVertDisplayDataMinMaxInputData::SetSubGraphPacketList
_TEXT	ENDS
; Function compile flags: /Ogtp
; File D:\git\src\IBK\IBK_DRFN\ProjSrc\SrcChartEx\ChartOCX\ChartObject\CalculatorData.cpp
;	COMDAT ?SetSubGraphData@CVertDisplayDataMinMaxInputData@@QAEXPAVCSubGraphData@@@Z
_TEXT	SEGMENT
_pSubGraphData$ = 8					; size = 4
?SetSubGraphData@CVertDisplayDataMinMaxInputData@@QAEXPAVCSubGraphData@@@Z PROC ; CVertDisplayDataMinMaxInputData::SetSubGraphData, COMDAT
; _this$ = ecx

; 95   : {

  00000	55		 push	 ebp
  00001	8b ec		 mov	 ebp, esp

; 96   : 	m_pSubGraphData = pSubGraphData;

  00003	8b 45 08	 mov	 eax, DWORD PTR _pSubGraphData$[ebp]
  00006	89 41 14	 mov	 DWORD PTR [ecx+20], eax

; 97   : }

  00009	5d		 pop	 ebp
  0000a	c2 04 00	 ret	 4
?SetSubGraphData@CVertDisplayDataMinMaxInputData@@QAEXPAVCSubGraphData@@@Z ENDP ; CVertDisplayDataMinMaxInputData::SetSubGraphData
_TEXT	ENDS
; Function compile flags: /Ogtp
; File D:\git\src\IBK\IBK_DRFN\ProjSrc\SrcChartEx\ChartOCX\ChartObject\CalculatorData.cpp
;	COMDAT ??0CVertDisplayDataMinMaxInputData@@QAE@ABV?$CStringT@DV?$StrTraitMFC_DLL@DV?$ChTraitsCRT@D@ATL@@@@@ATL@@00ABVCDisplayAttributes@@@Z
_TEXT	SEGMENT
_this$ = -16						; size = 4
__$EHRec$ = -12						; size = 12
_p_strIndicatorName$ = 8				; size = 4
_GraphName$ = 12					; size = 4
_scaleData$ = 16					; size = 4
_displayAttributes$ = 20				; size = 4
??0CVertDisplayDataMinMaxInputData@@QAE@ABV?$CStringT@DV?$StrTraitMFC_DLL@DV?$ChTraitsCRT@D@ATL@@@@@ATL@@00ABVCDisplayAttributes@@@Z PROC ; CVertDisplayDataMinMaxInputData::CVertDisplayDataMinMaxInputData, COMDAT
; _this$ = ecx

; 91   : {

  00000	55		 push	 ebp
  00001	8b ec		 mov	 ebp, esp
  00003	6a ff		 push	 -1
  00005	68 00 00 00 00	 push	 __ehhandler$??0CVertDisplayDataMinMaxInputData@@QAE@ABV?$CStringT@DV?$StrTraitMFC_DLL@DV?$ChTraitsCRT@D@ATL@@@@@ATL@@00ABVCDisplayAttributes@@@Z
  0000a	64 a1 00 00 00
	00		 mov	 eax, DWORD PTR fs:0
  00010	50		 push	 eax
  00011	51		 push	 ecx
  00012	56		 push	 esi
  00013	a1 00 00 00 00	 mov	 eax, DWORD PTR ___security_cookie
  00018	33 c5		 xor	 eax, ebp
  0001a	50		 push	 eax
  0001b	8d 45 f4	 lea	 eax, DWORD PTR __$EHRec$[ebp]
  0001e	64 a3 00 00 00
	00		 mov	 DWORD PTR fs:0, eax
  00024	8b f1		 mov	 esi, ecx
  00026	89 75 f0	 mov	 DWORD PTR _this$[ebp], esi

; 86   : 	m_strGraphName(GraphName),

  00029	ff 75 0c	 push	 DWORD PTR _GraphName$[ebp]
  0002c	ff 15 00 00 00
	00		 call	 DWORD PTR __imp_??0?$CStringT@DV?$StrTraitMFC_DLL@DV?$ChTraitsCRT@D@ATL@@@@@ATL@@QAE@ABV01@@Z
  00032	ff 75 08	 push	 DWORD PTR _p_strIndicatorName$[ebp]
  00035	8d 4e 04	 lea	 ecx, DWORD PTR [esi+4]
  00038	c7 45 fc 00 00
	00 00		 mov	 DWORD PTR __$EHRec$[ebp+8], 0
  0003f	ff 15 00 00 00
	00		 call	 DWORD PTR __imp_??0?$CStringT@DV?$StrTraitMFC_DLL@DV?$ChTraitsCRT@D@ATL@@@@@ATL@@QAE@ABV01@@Z

; 87   : 	m_strScaleData(scaleData),

  00045	ff 75 10	 push	 DWORD PTR _scaleData$[ebp]
  00048	8d 4e 08	 lea	 ecx, DWORD PTR [esi+8]
  0004b	c6 45 fc 01	 mov	 BYTE PTR __$EHRec$[ebp+8], 1
  0004f	ff 15 00 00 00
	00		 call	 DWORD PTR __imp_??0?$CStringT@DV?$StrTraitMFC_DLL@DV?$ChTraitsCRT@D@ATL@@@@@ATL@@QAE@ABV01@@Z

; 88   : 	m_displayAttributes(displayAttributes),

  00055	8b 45 14	 mov	 eax, DWORD PTR _displayAttributes$[ebp]
  00058	8b 08		 mov	 ecx, DWORD PTR [eax]
  0005a	8b 40 04	 mov	 eax, DWORD PTR [eax+4]
  0005d	89 46 10	 mov	 DWORD PTR [esi+16], eax

; 92   : }

  00060	8b c6		 mov	 eax, esi
  00062	89 4e 0c	 mov	 DWORD PTR [esi+12], ecx
  00065	c7 46 14 00 00
	00 00		 mov	 DWORD PTR [esi+20], 0
  0006c	c7 46 18 00 00
	00 00		 mov	 DWORD PTR [esi+24], 0
  00073	8b 4d f4	 mov	 ecx, DWORD PTR __$EHRec$[ebp]
  00076	64 89 0d 00 00
	00 00		 mov	 DWORD PTR fs:0, ecx
  0007d	59		 pop	 ecx
  0007e	5e		 pop	 esi
  0007f	8b e5		 mov	 esp, ebp
  00081	5d		 pop	 ebp
  00082	c2 10 00	 ret	 16			; 00000010H
_TEXT	ENDS
;	COMDAT text$x
text$x	SEGMENT
__unwindfunclet$??0CVertDisplayDataMinMaxInputData@@QAE@ABV?$CStringT@DV?$StrTraitMFC_DLL@DV?$ChTraitsCRT@D@ATL@@@@@ATL@@00ABVCDisplayAttributes@@@Z$0:
  00000	8b 4d f0	 mov	 ecx, DWORD PTR _this$[ebp]
  00003	ff 25 00 00 00
	00		 jmp	 DWORD PTR __imp_??1?$CStringT@DV?$StrTraitMFC_DLL@DV?$ChTraitsCRT@D@ATL@@@@@ATL@@QAE@XZ
__unwindfunclet$??0CVertDisplayDataMinMaxInputData@@QAE@ABV?$CStringT@DV?$StrTraitMFC_DLL@DV?$ChTraitsCRT@D@ATL@@@@@ATL@@00ABVCDisplayAttributes@@@Z$1:
  00009	8b 4d f0	 mov	 ecx, DWORD PTR _this$[ebp]
  0000c	83 c1 04	 add	 ecx, 4
  0000f	ff 25 00 00 00
	00		 jmp	 DWORD PTR __imp_??1?$CStringT@DV?$StrTraitMFC_DLL@DV?$ChTraitsCRT@D@ATL@@@@@ATL@@QAE@XZ
  00015	cc		 int	 3
  00016	cc		 int	 3
  00017	cc		 int	 3
  00018	cc		 int	 3
  00019	cc		 int	 3
__ehhandler$??0CVertDisplayDataMinMaxInputData@@QAE@ABV?$CStringT@DV?$StrTraitMFC_DLL@DV?$ChTraitsCRT@D@ATL@@@@@ATL@@00ABVCDisplayAttributes@@@Z:
  0001a	90		 npad	 1
  0001b	90		 npad	 1
  0001c	8b 54 24 08	 mov	 edx, DWORD PTR [esp+8]
  00020	8d 42 0c	 lea	 eax, DWORD PTR [edx+12]
  00023	8b 4a f4	 mov	 ecx, DWORD PTR [edx-12]
  00026	33 c8		 xor	 ecx, eax
  00028	e8 00 00 00 00	 call	 @__security_check_cookie@4
  0002d	b8 00 00 00 00	 mov	 eax, OFFSET __ehfuncinfo$??0CVertDisplayDataMinMaxInputData@@QAE@ABV?$CStringT@DV?$StrTraitMFC_DLL@DV?$ChTraitsCRT@D@ATL@@@@@ATL@@00ABVCDisplayAttributes@@@Z
  00032	e9 00 00 00 00	 jmp	 ___CxxFrameHandler3
text$x	ENDS
??0CVertDisplayDataMinMaxInputData@@QAE@ABV?$CStringT@DV?$StrTraitMFC_DLL@DV?$ChTraitsCRT@D@ATL@@@@@ATL@@00ABVCDisplayAttributes@@@Z ENDP ; CVertDisplayDataMinMaxInputData::CVertDisplayDataMinMaxInputData
; Function compile flags: /Ogtp
; File D:\git\src\IBK\IBK_DRFN\ProjSrc\SrcChartEx\ChartOCX\ChartObject\CalculatorData.cpp
;	COMDAT ??0CVertDisplayDataMinMaxInputData@@QAE@XZ
_TEXT	SEGMENT
_this$ = -16						; size = 4
__$EHRec$ = -12						; size = 12
??0CVertDisplayDataMinMaxInputData@@QAE@XZ PROC		; CVertDisplayDataMinMaxInputData::CVertDisplayDataMinMaxInputData, COMDAT
; _this$ = ecx

; 81   : {

  00000	55		 push	 ebp
  00001	8b ec		 mov	 ebp, esp
  00003	6a ff		 push	 -1
  00005	68 00 00 00 00	 push	 __ehhandler$??0CVertDisplayDataMinMaxInputData@@QAE@XZ
  0000a	64 a1 00 00 00
	00		 mov	 eax, DWORD PTR fs:0
  00010	50		 push	 eax
  00011	51		 push	 ecx
  00012	56		 push	 esi
  00013	a1 00 00 00 00	 mov	 eax, DWORD PTR ___security_cookie
  00018	33 c5		 xor	 eax, ebp
  0001a	50		 push	 eax
  0001b	8d 45 f4	 lea	 eax, DWORD PTR __$EHRec$[ebp]
  0001e	64 a3 00 00 00
	00		 mov	 DWORD PTR fs:0, eax
  00024	8b f1		 mov	 esi, ecx
  00026	89 75 f0	 mov	 DWORD PTR _this$[ebp], esi
  00029	ff 15 00 00 00
	00		 call	 DWORD PTR __imp_??0?$CStringT@DV?$StrTraitMFC_DLL@DV?$ChTraitsCRT@D@ATL@@@@@ATL@@QAE@XZ
  0002f	8d 4e 04	 lea	 ecx, DWORD PTR [esi+4]
  00032	c7 45 fc 00 00
	00 00		 mov	 DWORD PTR __$EHRec$[ebp+8], 0
  00039	ff 15 00 00 00
	00		 call	 DWORD PTR __imp_??0?$CStringT@DV?$StrTraitMFC_DLL@DV?$ChTraitsCRT@D@ATL@@@@@ATL@@QAE@XZ
  0003f	8d 4e 08	 lea	 ecx, DWORD PTR [esi+8]
  00042	ff 15 00 00 00
	00		 call	 DWORD PTR __imp_??0?$CStringT@DV?$StrTraitMFC_DLL@DV?$ChTraitsCRT@D@ATL@@@@@ATL@@QAE@XZ
  00048	8d 4e 0c	 lea	 ecx, DWORD PTR [esi+12]
  0004b	c6 45 fc 02	 mov	 BYTE PTR __$EHRec$[ebp+8], 2
  0004f	e8 00 00 00 00	 call	 ??0CDisplayAttributes@@QAE@XZ ; CDisplayAttributes::CDisplayAttributes

; 79   : 	m_pSubGraphData(NULL),

  00054	c7 46 14 00 00
	00 00		 mov	 DWORD PTR [esi+20], 0

; 82   : }

  0005b	8b c6		 mov	 eax, esi
  0005d	c7 46 18 00 00
	00 00		 mov	 DWORD PTR [esi+24], 0
  00064	8b 4d f4	 mov	 ecx, DWORD PTR __$EHRec$[ebp]
  00067	64 89 0d 00 00
	00 00		 mov	 DWORD PTR fs:0, ecx
  0006e	59		 pop	 ecx
  0006f	5e		 pop	 esi
  00070	8b e5		 mov	 esp, ebp
  00072	5d		 pop	 ebp
  00073	c3		 ret	 0
_TEXT	ENDS
;	COMDAT text$x
text$x	SEGMENT
__unwindfunclet$??0CVertDisplayDataMinMaxInputData@@QAE@XZ$0:
  00000	8b 4d f0	 mov	 ecx, DWORD PTR _this$[ebp]
  00003	ff 25 00 00 00
	00		 jmp	 DWORD PTR __imp_??1?$CStringT@DV?$StrTraitMFC_DLL@DV?$ChTraitsCRT@D@ATL@@@@@ATL@@QAE@XZ
__unwindfunclet$??0CVertDisplayDataMinMaxInputData@@QAE@XZ$1:
  00009	8b 4d f0	 mov	 ecx, DWORD PTR _this$[ebp]
  0000c	83 c1 04	 add	 ecx, 4
  0000f	ff 25 00 00 00
	00		 jmp	 DWORD PTR __imp_??1?$CStringT@DV?$StrTraitMFC_DLL@DV?$ChTraitsCRT@D@ATL@@@@@ATL@@QAE@XZ
__unwindfunclet$??0CVertDisplayDataMinMaxInputData@@QAE@XZ$2:
  00015	8b 4d f0	 mov	 ecx, DWORD PTR _this$[ebp]
  00018	83 c1 08	 add	 ecx, 8
  0001b	ff 25 00 00 00
	00		 jmp	 DWORD PTR __imp_??1?$CStringT@DV?$StrTraitMFC_DLL@DV?$ChTraitsCRT@D@ATL@@@@@ATL@@QAE@XZ
  00021	cc		 int	 3
  00022	cc		 int	 3
  00023	cc		 int	 3
  00024	cc		 int	 3
  00025	cc		 int	 3
__ehhandler$??0CVertDisplayDataMinMaxInputData@@QAE@XZ:
  00026	90		 npad	 1
  00027	90		 npad	 1
  00028	8b 54 24 08	 mov	 edx, DWORD PTR [esp+8]
  0002c	8d 42 0c	 lea	 eax, DWORD PTR [edx+12]
  0002f	8b 4a f4	 mov	 ecx, DWORD PTR [edx-12]
  00032	33 c8		 xor	 ecx, eax
  00034	e8 00 00 00 00	 call	 @__security_check_cookie@4
  00039	b8 00 00 00 00	 mov	 eax, OFFSET __ehfuncinfo$??0CVertDisplayDataMinMaxInputData@@QAE@XZ
  0003e	e9 00 00 00 00	 jmp	 ___CxxFrameHandler3
text$x	ENDS
??0CVertDisplayDataMinMaxInputData@@QAE@XZ ENDP		; CVertDisplayDataMinMaxInputData::CVertDisplayDataMinMaxInputData
; Function compile flags: /Ogtp
; File D:\git\src\IBK\IBK_DRFN\ProjSrc\SrcChartEx\ChartOCX\ChartObject\CalculatorData.cpp
;	COMDAT ??4CVertDisplayDataMinMaxInputData@@QAEAAV0@ABV0@@Z
_TEXT	SEGMENT
$T2 = -20						; size = 8
__$EHRec$ = -12						; size = 12
$T3 = 8							; size = 4
$T4 = 8							; size = 4
$T5 = 8							; size = 4
_data$ = 8						; size = 4
??4CVertDisplayDataMinMaxInputData@@QAEAAV0@ABV0@@Z PROC ; CVertDisplayDataMinMaxInputData::operator=, COMDAT
; _this$ = ecx

; 65   : {

  00000	55		 push	 ebp
  00001	8b ec		 mov	 ebp, esp
  00003	6a ff		 push	 -1
  00005	68 00 00 00 00	 push	 __ehhandler$??4CVertDisplayDataMinMaxInputData@@QAEAAV0@ABV0@@Z
  0000a	64 a1 00 00 00
	00		 mov	 eax, DWORD PTR fs:0
  00010	50		 push	 eax
  00011	83 ec 08	 sub	 esp, 8
  00014	56		 push	 esi
  00015	57		 push	 edi
  00016	a1 00 00 00 00	 mov	 eax, DWORD PTR ___security_cookie
  0001b	33 c5		 xor	 eax, ebp
  0001d	50		 push	 eax
  0001e	8d 45 f4	 lea	 eax, DWORD PTR __$EHRec$[ebp]
  00021	64 a3 00 00 00
	00		 mov	 DWORD PTR fs:0, eax
  00027	8b f1		 mov	 esi, ecx

; 66   : 	if(this == &data)

  00029	8b 7d 08	 mov	 edi, DWORD PTR _data$[ebp]
  0002c	3b f7		 cmp	 esi, edi
  0002e	0f 84 b3 00 00
	00		 je	 $LN22@operator

; 107  : 	return m_strIndicatorName;

  00034	8d 47 04	 lea	 eax, DWORD PTR [edi+4]
  00037	50		 push	 eax
  00038	8d 4d 08	 lea	 ecx, DWORD PTR $T5[ebp]
  0003b	ff 15 00 00 00
	00		 call	 DWORD PTR __imp_??0?$CStringT@DV?$StrTraitMFC_DLL@DV?$ChTraitsCRT@D@ATL@@@@@ATL@@QAE@ABV01@@Z

; 67   : 		return *this;
; 68   : 
; 69   : 	m_strIndicatorName = data.GetIndicatorName();

  00041	8d 45 08	 lea	 eax, DWORD PTR $T5[ebp]
  00044	c7 45 fc 00 00
	00 00		 mov	 DWORD PTR __$EHRec$[ebp+8], 0
  0004b	50		 push	 eax
  0004c	8d 4e 04	 lea	 ecx, DWORD PTR [esi+4]
  0004f	ff 15 00 00 00
	00		 call	 DWORD PTR __imp_??4?$CStringT@DV?$StrTraitMFC_DLL@DV?$ChTraitsCRT@D@ATL@@@@@ATL@@QAEAAV01@ABV01@@Z
  00055	8d 4d 08	 lea	 ecx, DWORD PTR $T5[ebp]
  00058	c7 45 fc ff ff
	ff ff		 mov	 DWORD PTR __$EHRec$[ebp+8], -1
  0005f	ff 15 00 00 00
	00		 call	 DWORD PTR __imp_??1?$CStringT@DV?$StrTraitMFC_DLL@DV?$ChTraitsCRT@D@ATL@@@@@ATL@@QAE@XZ

; 112  : 	return m_strGraphName;

  00065	57		 push	 edi
  00066	8d 4d 08	 lea	 ecx, DWORD PTR $T4[ebp]
  00069	ff 15 00 00 00
	00		 call	 DWORD PTR __imp_??0?$CStringT@DV?$StrTraitMFC_DLL@DV?$ChTraitsCRT@D@ATL@@@@@ATL@@QAE@ABV01@@Z

; 70   : 	m_strGraphName = data.GetGraphName();

  0006f	8d 45 08	 lea	 eax, DWORD PTR $T4[ebp]
  00072	c7 45 fc 01 00
	00 00		 mov	 DWORD PTR __$EHRec$[ebp+8], 1
  00079	50		 push	 eax
  0007a	8b ce		 mov	 ecx, esi
  0007c	ff 15 00 00 00
	00		 call	 DWORD PTR __imp_??4?$CStringT@DV?$StrTraitMFC_DLL@DV?$ChTraitsCRT@D@ATL@@@@@ATL@@QAEAAV01@ABV01@@Z
  00082	8d 4d 08	 lea	 ecx, DWORD PTR $T4[ebp]
  00085	c7 45 fc ff ff
	ff ff		 mov	 DWORD PTR __$EHRec$[ebp+8], -1
  0008c	ff 15 00 00 00
	00		 call	 DWORD PTR __imp_??1?$CStringT@DV?$StrTraitMFC_DLL@DV?$ChTraitsCRT@D@ATL@@@@@ATL@@QAE@XZ

; 117  : 	return m_strScaleData;

  00092	8d 47 08	 lea	 eax, DWORD PTR [edi+8]
  00095	50		 push	 eax
  00096	8d 4d 08	 lea	 ecx, DWORD PTR $T3[ebp]
  00099	ff 15 00 00 00
	00		 call	 DWORD PTR __imp_??0?$CStringT@DV?$StrTraitMFC_DLL@DV?$ChTraitsCRT@D@ATL@@@@@ATL@@QAE@ABV01@@Z

; 71   : 	m_strScaleData = data.GetScaleData();

  0009f	8d 45 08	 lea	 eax, DWORD PTR $T3[ebp]
  000a2	c7 45 fc 02 00
	00 00		 mov	 DWORD PTR __$EHRec$[ebp+8], 2
  000a9	50		 push	 eax
  000aa	8d 4e 08	 lea	 ecx, DWORD PTR [esi+8]
  000ad	ff 15 00 00 00
	00		 call	 DWORD PTR __imp_??4?$CStringT@DV?$StrTraitMFC_DLL@DV?$ChTraitsCRT@D@ATL@@@@@ATL@@QAEAAV01@ABV01@@Z
  000b3	8d 4d 08	 lea	 ecx, DWORD PTR $T3[ebp]
  000b6	c7 45 fc ff ff
	ff ff		 mov	 DWORD PTR __$EHRec$[ebp+8], -1
  000bd	ff 15 00 00 00
	00		 call	 DWORD PTR __imp_??1?$CStringT@DV?$StrTraitMFC_DLL@DV?$ChTraitsCRT@D@ATL@@@@@ATL@@QAE@XZ

; 122  : 	return m_displayAttributes;

  000c3	8b 47 0c	 mov	 eax, DWORD PTR [edi+12]
  000c6	8b 4f 10	 mov	 ecx, DWORD PTR [edi+16]
  000c9	89 45 ec	 mov	 DWORD PTR $T2[ebp], eax

; 72   : 	m_displayAttributes = data.GetDisplayAttributes();

  000cc	8d 45 ec	 lea	 eax, DWORD PTR $T2[ebp]

; 122  : 	return m_displayAttributes;

  000cf	89 4d f0	 mov	 DWORD PTR $T2[ebp+4], ecx

; 72   : 	m_displayAttributes = data.GetDisplayAttributes();

  000d2	8d 4e 0c	 lea	 ecx, DWORD PTR [esi+12]
  000d5	50		 push	 eax
  000d6	e8 00 00 00 00	 call	 ??4CDisplayAttributes@@QAEAAV0@ABV0@@Z ; CDisplayAttributes::operator=

; 73   : 	m_pSubGraphData = data.GetSubGraphData();

  000db	8b 47 14	 mov	 eax, DWORD PTR [edi+20]
  000de	89 46 14	 mov	 DWORD PTR [esi+20], eax

; 74   : 	m_pSubGraphPacketList = data.GetSubGraphPacketList();

  000e1	8b 47 18	 mov	 eax, DWORD PTR [edi+24]
  000e4	89 46 18	 mov	 DWORD PTR [esi+24], eax
$LN22@operator:

; 75   : 	return *this;
; 76   : }

  000e7	8b c6		 mov	 eax, esi
  000e9	8b 4d f4	 mov	 ecx, DWORD PTR __$EHRec$[ebp]
  000ec	64 89 0d 00 00
	00 00		 mov	 DWORD PTR fs:0, ecx
  000f3	59		 pop	 ecx
  000f4	5f		 pop	 edi
  000f5	5e		 pop	 esi
  000f6	8b e5		 mov	 esp, ebp
  000f8	5d		 pop	 ebp
  000f9	c2 04 00	 ret	 4
_TEXT	ENDS
;	COMDAT text$x
text$x	SEGMENT
__unwindfunclet$??4CVertDisplayDataMinMaxInputData@@QAEAAV0@ABV0@@Z$0:
  00000	8d 4d 08	 lea	 ecx, DWORD PTR $T5[ebp]
  00003	ff 25 00 00 00
	00		 jmp	 DWORD PTR __imp_??1?$CStringT@DV?$StrTraitMFC_DLL@DV?$ChTraitsCRT@D@ATL@@@@@ATL@@QAE@XZ
__unwindfunclet$??4CVertDisplayDataMinMaxInputData@@QAEAAV0@ABV0@@Z$1:
  00009	8d 4d 08	 lea	 ecx, DWORD PTR $T4[ebp]
  0000c	ff 25 00 00 00
	00		 jmp	 DWORD PTR __imp_??1?$CStringT@DV?$StrTraitMFC_DLL@DV?$ChTraitsCRT@D@ATL@@@@@ATL@@QAE@XZ
__unwindfunclet$??4CVertDisplayDataMinMaxInputData@@QAEAAV0@ABV0@@Z$2:
  00012	8d 4d 08	 lea	 ecx, DWORD PTR $T3[ebp]
  00015	ff 25 00 00 00
	00		 jmp	 DWORD PTR __imp_??1?$CStringT@DV?$StrTraitMFC_DLL@DV?$ChTraitsCRT@D@ATL@@@@@ATL@@QAE@XZ
  0001b	cc		 int	 3
  0001c	cc		 int	 3
  0001d	cc		 int	 3
  0001e	cc		 int	 3
  0001f	cc		 int	 3
__ehhandler$??4CVertDisplayDataMinMaxInputData@@QAEAAV0@ABV0@@Z:
  00020	90		 npad	 1
  00021	90		 npad	 1
  00022	8b 54 24 08	 mov	 edx, DWORD PTR [esp+8]
  00026	8d 42 0c	 lea	 eax, DWORD PTR [edx+12]
  00029	8b 4a ec	 mov	 ecx, DWORD PTR [edx-20]
  0002c	33 c8		 xor	 ecx, eax
  0002e	e8 00 00 00 00	 call	 @__security_check_cookie@4
  00033	b8 00 00 00 00	 mov	 eax, OFFSET __ehfuncinfo$??4CVertDisplayDataMinMaxInputData@@QAEAAV0@ABV0@@Z
  00038	e9 00 00 00 00	 jmp	 ___CxxFrameHandler3
text$x	ENDS
??4CVertDisplayDataMinMaxInputData@@QAEAAV0@ABV0@@Z ENDP ; CVertDisplayDataMinMaxInputData::operator=
; Function compile flags: /Ogtp
; File D:\git\src\IBK\IBK_DRFN\ProjSrc\SrcChartEx\ChartOCX\ChartObject\CalculatorData.cpp
;	COMDAT ?GetDisplayAttributes@CHorzDisplayDataMinMaxInputData@@QBE?AVCDisplayAttributes@@XZ
_TEXT	SEGMENT
___$ReturnUdt$ = 8					; size = 4
?GetDisplayAttributes@CHorzDisplayDataMinMaxInputData@@QBE?AVCDisplayAttributes@@XZ PROC ; CHorzDisplayDataMinMaxInputData::GetDisplayAttributes, COMDAT
; _this$ = ecx

; 56   : {

  00000	55		 push	 ebp
  00001	8b ec		 mov	 ebp, esp

; 57   : 	return m_displayAttributes;

  00003	8b 45 08	 mov	 eax, DWORD PTR ___$ReturnUdt$[ebp]
  00006	8b 51 08	 mov	 edx, DWORD PTR [ecx+8]
  00009	8b 49 0c	 mov	 ecx, DWORD PTR [ecx+12]
  0000c	89 10		 mov	 DWORD PTR [eax], edx
  0000e	89 48 04	 mov	 DWORD PTR [eax+4], ecx

; 58   : }

  00011	5d		 pop	 ebp
  00012	c2 04 00	 ret	 4
?GetDisplayAttributes@CHorzDisplayDataMinMaxInputData@@QBE?AVCDisplayAttributes@@XZ ENDP ; CHorzDisplayDataMinMaxInputData::GetDisplayAttributes
_TEXT	ENDS
; Function compile flags: /Ogtp
; File D:\git\src\IBK\IBK_DRFN\ProjSrc\SrcChartEx\ChartOCX\ChartObject\CalculatorData.cpp
;	COMDAT ?GetPacketName@CHorzDisplayDataMinMaxInputData@@QBE?AV?$CStringT@DV?$StrTraitMFC_DLL@DV?$ChTraitsCRT@D@ATL@@@@@ATL@@XZ
_TEXT	SEGMENT
___$ReturnUdt$ = 8					; size = 4
?GetPacketName@CHorzDisplayDataMinMaxInputData@@QBE?AV?$CStringT@DV?$StrTraitMFC_DLL@DV?$ChTraitsCRT@D@ATL@@@@@ATL@@XZ PROC ; CHorzDisplayDataMinMaxInputData::GetPacketName, COMDAT
; _this$ = ecx

; 51   : {

  00000	55		 push	 ebp
  00001	8b ec		 mov	 ebp, esp

; 52   : 	return m_strPacketName;

  00003	8d 41 04	 lea	 eax, DWORD PTR [ecx+4]
  00006	8b 4d 08	 mov	 ecx, DWORD PTR ___$ReturnUdt$[ebp]
  00009	50		 push	 eax
  0000a	ff 15 00 00 00
	00		 call	 DWORD PTR __imp_??0?$CStringT@DV?$StrTraitMFC_DLL@DV?$ChTraitsCRT@D@ATL@@@@@ATL@@QAE@ABV01@@Z
  00010	8b 45 08	 mov	 eax, DWORD PTR ___$ReturnUdt$[ebp]

; 53   : }

  00013	5d		 pop	 ebp
  00014	c2 04 00	 ret	 4
?GetPacketName@CHorzDisplayDataMinMaxInputData@@QBE?AV?$CStringT@DV?$StrTraitMFC_DLL@DV?$ChTraitsCRT@D@ATL@@@@@ATL@@XZ ENDP ; CHorzDisplayDataMinMaxInputData::GetPacketName
_TEXT	ENDS
; Function compile flags: /Ogtp
; File D:\git\src\IBK\IBK_DRFN\ProjSrc\SrcChartEx\ChartOCX\ChartObject\CalculatorData.cpp
;	COMDAT ?GetPacket@CHorzDisplayDataMinMaxInputData@@QBEPAVCPacket@@XZ
_TEXT	SEGMENT
?GetPacket@CHorzDisplayDataMinMaxInputData@@QBEPAVCPacket@@XZ PROC ; CHorzDisplayDataMinMaxInputData::GetPacket, COMDAT
; _this$ = ecx

; 47   : 	return m_pPacket;

  00000	8b 01		 mov	 eax, DWORD PTR [ecx]

; 48   : }

  00002	c3		 ret	 0
?GetPacket@CHorzDisplayDataMinMaxInputData@@QBEPAVCPacket@@XZ ENDP ; CHorzDisplayDataMinMaxInputData::GetPacket
_TEXT	ENDS
; Function compile flags: /Ogtp
; File D:\git\src\IBK\IBK_DRFN\ProjSrc\SrcChartEx\ChartOCX\ChartObject\CalculatorData.cpp
;	COMDAT ?SetDisplayAttributes@CHorzDisplayDataMinMaxInputData@@QAEXABVCDisplayAttributes@@@Z
_TEXT	SEGMENT
_displayAttributes$ = 8					; size = 4
?SetDisplayAttributes@CHorzDisplayDataMinMaxInputData@@QAEXABVCDisplayAttributes@@@Z PROC ; CHorzDisplayDataMinMaxInputData::SetDisplayAttributes, COMDAT
; _this$ = ecx

; 40   : {

  00000	55		 push	 ebp
  00001	8b ec		 mov	 ebp, esp

; 41   : 	m_displayAttributes = displayAttributes;

  00003	83 c1 08	 add	 ecx, 8

; 42   : }

  00006	5d		 pop	 ebp

; 41   : 	m_displayAttributes = displayAttributes;

  00007	e9 00 00 00 00	 jmp	 ??4CDisplayAttributes@@QAEAAV0@ABV0@@Z ; CDisplayAttributes::operator=
?SetDisplayAttributes@CHorzDisplayDataMinMaxInputData@@QAEXABVCDisplayAttributes@@@Z ENDP ; CHorzDisplayDataMinMaxInputData::SetDisplayAttributes
_TEXT	ENDS
; Function compile flags: /Ogtp
; File D:\git\src\IBK\IBK_DRFN\ProjSrc\SrcChartEx\ChartOCX\ChartObject\CalculatorData.cpp
;	COMDAT ?SetPacketName@CHorzDisplayDataMinMaxInputData@@QAEXABV?$CStringT@DV?$StrTraitMFC_DLL@DV?$ChTraitsCRT@D@ATL@@@@@ATL@@@Z
_TEXT	SEGMENT
_strPacketName$ = 8					; size = 4
?SetPacketName@CHorzDisplayDataMinMaxInputData@@QAEXABV?$CStringT@DV?$StrTraitMFC_DLL@DV?$ChTraitsCRT@D@ATL@@@@@ATL@@@Z PROC ; CHorzDisplayDataMinMaxInputData::SetPacketName, COMDAT
; _this$ = ecx

; 35   : {

  00000	55		 push	 ebp
  00001	8b ec		 mov	 ebp, esp

; 36   : 	m_strPacketName = strPacketName;

  00003	83 c1 04	 add	 ecx, 4

; 37   : }

  00006	5d		 pop	 ebp

; 36   : 	m_strPacketName = strPacketName;

  00007	ff 25 00 00 00
	00		 jmp	 DWORD PTR __imp_??4?$CStringT@DV?$StrTraitMFC_DLL@DV?$ChTraitsCRT@D@ATL@@@@@ATL@@QAEAAV01@ABV01@@Z
?SetPacketName@CHorzDisplayDataMinMaxInputData@@QAEXABV?$CStringT@DV?$StrTraitMFC_DLL@DV?$ChTraitsCRT@D@ATL@@@@@ATL@@@Z ENDP ; CHorzDisplayDataMinMaxInputData::SetPacketName
_TEXT	ENDS
; Function compile flags: /Ogtp
; File D:\git\src\IBK\IBK_DRFN\ProjSrc\SrcChartEx\ChartOCX\ChartObject\CalculatorData.cpp
;	COMDAT ?SetPacket@CHorzDisplayDataMinMaxInputData@@QAEXPAVCPacket@@@Z
_TEXT	SEGMENT
_pPacket$ = 8						; size = 4
?SetPacket@CHorzDisplayDataMinMaxInputData@@QAEXPAVCPacket@@@Z PROC ; CHorzDisplayDataMinMaxInputData::SetPacket, COMDAT
; _this$ = ecx

; 30   : {

  00000	55		 push	 ebp
  00001	8b ec		 mov	 ebp, esp

; 31   : 	m_pPacket = pPacket;

  00003	8b 45 08	 mov	 eax, DWORD PTR _pPacket$[ebp]
  00006	89 01		 mov	 DWORD PTR [ecx], eax

; 32   : }

  00008	5d		 pop	 ebp
  00009	c2 04 00	 ret	 4
?SetPacket@CHorzDisplayDataMinMaxInputData@@QAEXPAVCPacket@@@Z ENDP ; CHorzDisplayDataMinMaxInputData::SetPacket
_TEXT	ENDS
; Function compile flags: /Ogtp
; File D:\git\src\IBK\IBK_DRFN\ProjSrc\SrcChartEx\ChartOCX\ChartObject\CalculatorData.cpp
;	COMDAT ??0CHorzDisplayDataMinMaxInputData@@QAE@PAVCPacket@@ABV?$CStringT@DV?$StrTraitMFC_DLL@DV?$ChTraitsCRT@D@ATL@@@@@ATL@@ABVCDisplayAttributes@@@Z
_TEXT	SEGMENT
_this$ = -4						; size = 4
_pPacket$ = 8						; size = 4
_strPacketName$ = 12					; size = 4
_displayAttributes$ = 16				; size = 4
??0CHorzDisplayDataMinMaxInputData@@QAE@PAVCPacket@@ABV?$CStringT@DV?$StrTraitMFC_DLL@DV?$ChTraitsCRT@D@ATL@@@@@ATL@@ABVCDisplayAttributes@@@Z PROC ; CHorzDisplayDataMinMaxInputData::CHorzDisplayDataMinMaxInputData, COMDAT
; _this$ = ecx

; 26   : {

  00000	55		 push	 ebp
  00001	8b ec		 mov	 ebp, esp
  00003	51		 push	 ecx

; 23   : 	m_pPacket(pPacket),

  00004	8b 45 08	 mov	 eax, DWORD PTR _pPacket$[ebp]
  00007	56		 push	 esi

; 24   : 	m_strPacketName(strPacketName),

  00008	ff 75 0c	 push	 DWORD PTR _strPacketName$[ebp]
  0000b	8b f1		 mov	 esi, ecx
  0000d	89 75 fc	 mov	 DWORD PTR _this$[ebp], esi
  00010	8d 4e 04	 lea	 ecx, DWORD PTR [esi+4]
  00013	89 06		 mov	 DWORD PTR [esi], eax
  00015	ff 15 00 00 00
	00		 call	 DWORD PTR __imp_??0?$CStringT@DV?$StrTraitMFC_DLL@DV?$ChTraitsCRT@D@ATL@@@@@ATL@@QAE@ABV01@@Z

; 25   : 	m_displayAttributes(displayAttributes)

  0001b	8b 45 10	 mov	 eax, DWORD PTR _displayAttributes$[ebp]
  0001e	8b 08		 mov	 ecx, DWORD PTR [eax]
  00020	8b 40 04	 mov	 eax, DWORD PTR [eax+4]
  00023	89 46 0c	 mov	 DWORD PTR [esi+12], eax

; 27   : }

  00026	8b c6		 mov	 eax, esi
  00028	89 4e 08	 mov	 DWORD PTR [esi+8], ecx
  0002b	5e		 pop	 esi
  0002c	8b e5		 mov	 esp, ebp
  0002e	5d		 pop	 ebp
  0002f	c2 0c 00	 ret	 12			; 0000000cH
??0CHorzDisplayDataMinMaxInputData@@QAE@PAVCPacket@@ABV?$CStringT@DV?$StrTraitMFC_DLL@DV?$ChTraitsCRT@D@ATL@@@@@ATL@@ABVCDisplayAttributes@@@Z ENDP ; CHorzDisplayDataMinMaxInputData::CHorzDisplayDataMinMaxInputData
_TEXT	ENDS
; Function compile flags: /Ogtp
; File D:\git\src\IBK\IBK_DRFN\ProjSrc\SrcChartEx\ChartOCX\ChartObject\CalculatorData.cpp
;	COMDAT ?__empty_global_delete@@YAXPAXI@Z
_TEXT	SEGMENT
___formal$ = 8						; size = 4
___formal$ = 12						; size = 4
?__empty_global_delete@@YAXPAXI@Z PROC			; __empty_global_delete, COMDAT

  00000	c2 00 00	 ret	 0
?__empty_global_delete@@YAXPAXI@Z ENDP			; __empty_global_delete
_TEXT	ENDS
; Function compile flags: /Ogtp
; File D:\git\src\IBK\IBK_DRFN\ProjSrc\SrcChartEx\ChartOCX\ChartObject\CalculatorData.cpp
;	COMDAT ?__empty_global_delete@@YAXPAX@Z
_TEXT	SEGMENT
___formal$ = 8						; size = 4
?__empty_global_delete@@YAXPAX@Z PROC			; __empty_global_delete, COMDAT

  00000	c2 00 00	 ret	 0
?__empty_global_delete@@YAXPAX@Z ENDP			; __empty_global_delete
_TEXT	ENDS
END
