; Listing generated by Microsoft (R) Optimizing Compiler Version 19.29.30145.0 

	TITLE	D:\git\src\IBK\IBK_DRFN\#DRfn-CS\_Obj\ChartObject\ChartObjectBaseData.obj
	.686P
	.XMM
	include listing.inc
	.model	flat

INCLUDELIB MSVCRT
INCLUDELIB OLDNAMES

PUBLIC	?__empty_global_delete@@YAXPAX@Z		; __empty_global_delete
PUBLIC	?__empty_global_delete@@YAXPAXI@Z		; __empty_global_delete
PUBLIC	??4CMainAttributes@@QAEAAV0@ABV0@@Z		; CMainAttributes::operator=
PUBLIC	??0CMainAttributes@@QAE@XZ			; CMainAttributes::CMainAttributes
PUBLIC	?SetMainBlockImpl@CMainAttributes@@QAEXPAVCMainBlockImp@@@Z ; CMainAttributes::SetMainBlockImpl
PUBLIC	?SetIChartCtrl@CMainAttributes@@QAEXPAUIChartCtrl@@@Z ; CMainAttributes::SetIChartCtrl
PUBLIC	?SetDesignMode@CMainAttributes@@QAEX_N@Z	; CMainAttributes::SetDesignMode
PUBLIC	?SetOCXPath@CMainAttributes@@QAEXABV?$CStringT@DV?$StrTraitMFC_DLL@DV?$ChTraitsCRT@D@ATL@@@@@ATL@@@Z ; CMainAttributes::SetOCXPath
PUBLIC	?SetPacketList@CMainAttributes@@QAEXPAVCPacketList@@@Z ; CMainAttributes::SetPacketList
PUBLIC	?SetIndicatorList@CMainAttributes@@QAEXPAVCIndicatorList@@@Z ; CMainAttributes::SetIndicatorList
PUBLIC	?SetMainChartFormulate@CMainAttributes@@QAEXPAVCMainChartFormulate@@@Z ; CMainAttributes::SetMainChartFormulate
PUBLIC	?SetXScaleManager@CMainAttributes@@QAEXPAVCXScaleManager@@@Z ; CMainAttributes::SetXScaleManager
PUBLIC	?SetPacketListManager@CMainAttributes@@QAEXPAVCPacketListManager@@@Z ; CMainAttributes::SetPacketListManager
PUBLIC	?SetToolBarManager@CMainAttributes@@QAEXPAUIToolBarManager@@@Z ; CMainAttributes::SetToolBarManager
PUBLIC	?GetMainBlockImpl@CMainAttributes@@QBEPAVCMainBlockImp@@XZ ; CMainAttributes::GetMainBlockImpl
PUBLIC	?GetIChartCtrl@CMainAttributes@@QBEPAUIChartCtrl@@XZ ; CMainAttributes::GetIChartCtrl
PUBLIC	?GetParentWnd@CMainAttributes@@QBEPAVCWnd@@XZ	; CMainAttributes::GetParentWnd
PUBLIC	?GetParent_Handle@CMainAttributes@@QBEPAUHWND__@@XZ ; CMainAttributes::GetParent_Handle
PUBLIC	?IsDesignMode@CMainAttributes@@QBE_NXZ		; CMainAttributes::IsDesignMode
PUBLIC	?GetOCXPath@CMainAttributes@@QBE?AV?$CStringT@DV?$StrTraitMFC_DLL@DV?$ChTraitsCRT@D@ATL@@@@@ATL@@XZ ; CMainAttributes::GetOCXPath
PUBLIC	?GetPacketList@CMainAttributes@@QBEPAVCPacketList@@XZ ; CMainAttributes::GetPacketList
PUBLIC	?GetIndicatorList@CMainAttributes@@QBEPAVCIndicatorList@@XZ ; CMainAttributes::GetIndicatorList
PUBLIC	?GetMainChartFormulate@CMainAttributes@@QBEPAVCMainChartFormulate@@XZ ; CMainAttributes::GetMainChartFormulate
PUBLIC	?GetXScaleManager@CMainAttributes@@QBEPAVCXScaleManager@@XZ ; CMainAttributes::GetXScaleManager
PUBLIC	?GetPacketListManager@CMainAttributes@@QBEPAVCPacketListManager@@XZ ; CMainAttributes::GetPacketListManager
PUBLIC	?GetToolBarManager@CMainAttributes@@QBEPAUIToolBarManager@@XZ ; CMainAttributes::GetToolBarManager
PUBLIC	?Invalidate@CMainAttributes@@QAEXXZ		; CMainAttributes::Invalidate
PUBLIC	?SendMessageToParent@CMainAttributes@@QAEXABVCBlockBehaviorData@@@Z ; CMainAttributes::SendMessageToParent
PUBLIC	?SendMessageToParent_TRData@CMainAttributes@@QAEXABV?$CStringT@DV?$StrTraitMFC_DLL@DV?$ChTraitsCRT@D@ATL@@@@@ATL@@0@Z ; CMainAttributes::SendMessageToParent_TRData
PUBLIC	?SendMessageToParent_TRData@CMainAttributes@@QAEXABV?$CStringT@DV?$StrTraitMFC_DLL@DV?$ChTraitsCRT@D@ATL@@@@@ATL@@0H_N@Z ; CMainAttributes::SendMessageToParent_TRData
PUBLIC	?SendMessageToParent_CalculateIndicatorInTRData@CMainAttributes@@QAEXPAVCIndicatorInfo@@ABV?$CList@PAVCPacket@@PAV1@@@@Z ; CMainAttributes::SendMessageToParent_CalculateIndicatorInTRData
PUBLIC	?GetChartMode@CMainAttributes@@QBE?AW4CHART_MODE@CChartInfo@@XZ ; CMainAttributes::GetChartMode
PUBLIC	??1CMainAttributes@@QAE@XZ			; CMainAttributes::~CMainAttributes
PUBLIC	??4CBlockAttributes@@QAEAAV0@ABV0@@Z		; CBlockAttributes::operator=
PUBLIC	??0CBlockAttributes@@QAE@XZ			; CBlockAttributes::CBlockAttributes
PUBLIC	?SetBlockType@CBlockAttributes@@QAEXW4BLOCKTYPE@CBlockBaseData@@@Z ; CBlockAttributes::SetBlockType
PUBLIC	?SetBlockCompartType@CBlockAttributes@@QAEXW4BLOCKCOMPART@CBlockBaseData@@@Z ; CBlockAttributes::SetBlockCompartType
PUBLIC	?SetMaxBlocksCountInView@CBlockAttributes@@QAEXH@Z ; CBlockAttributes::SetMaxBlocksCountInView
PUBLIC	?GetBlockType@CBlockAttributes@@QBE?AW4BLOCKTYPE@CBlockBaseData@@XZ ; CBlockAttributes::GetBlockType
PUBLIC	?GetBlockCompartType@CBlockAttributes@@QBE?AW4BLOCKCOMPART@CBlockBaseData@@XZ ; CBlockAttributes::GetBlockCompartType
PUBLIC	?GetMaxBlocksCountInView@CBlockAttributes@@QBEHXZ ; CBlockAttributes::GetMaxBlocksCountInView
PUBLIC	??4CGraphAttributes@@QAEAAV0@ABV0@@Z		; CGraphAttributes::operator=
PUBLIC	??0CGraphAttributes@@QAE@XZ			; CGraphAttributes::CGraphAttributes
PUBLIC	?SetAllGraphsTitleDrawHiding@CGraphAttributes@@QAEX_N@Z ; CGraphAttributes::SetAllGraphsTitleDrawHiding
PUBLIC	?SetGraphTitleDraw@CGraphAttributes@@QAEX_N0@Z	; CGraphAttributes::SetGraphTitleDraw
PUBLIC	?SetAutoDeleteIndicatorInfo@CGraphAttributes@@QAEX_N@Z ; CGraphAttributes::SetAutoDeleteIndicatorInfo
PUBLIC	?SetGraphBackgroundGap@CGraphAttributes@@QAEXHH@Z ; CGraphAttributes::SetGraphBackgroundGap
PUBLIC	?SetGraphRegionFrameThickness@CGraphAttributes@@QAEXH@Z ; CGraphAttributes::SetGraphRegionFrameThickness
PUBLIC	?SetGraphRegionColor@CGraphAttributes@@QAEXABVCGraphRegionColor@@@Z ; CGraphAttributes::SetGraphRegionColor
PUBLIC	?SetEtcGraphColor@CGraphAttributes@@QAEXABVCEtcGraphColor@@@Z ; CGraphAttributes::SetEtcGraphColor
PUBLIC	?DoesAllTitleDrawHiding@CGraphAttributes@@QBE_NXZ ; CGraphAttributes::DoesAllTitleDrawHiding
PUBLIC	?DoesConditionTitleDraw@CGraphAttributes@@QBE_NXZ ; CGraphAttributes::DoesConditionTitleDraw
PUBLIC	?DoesDataTitleDraw@CGraphAttributes@@QBE_NXZ	; CGraphAttributes::DoesDataTitleDraw
PUBLIC	?DoesAutoDeleteIndicatorInfo@CGraphAttributes@@QBE_NXZ ; CGraphAttributes::DoesAutoDeleteIndicatorInfo
PUBLIC	?GetGraphBackgroundGapX@CGraphAttributes@@QBEHXZ ; CGraphAttributes::GetGraphBackgroundGapX
PUBLIC	?GetGraphBackgroundGapY@CGraphAttributes@@QBEHXZ ; CGraphAttributes::GetGraphBackgroundGapY
PUBLIC	?GetGraphRegionFrameThickness@CGraphAttributes@@QBEHXZ ; CGraphAttributes::GetGraphRegionFrameThickness
PUBLIC	?GetGraphRegionColor@CGraphAttributes@@QBE?AVCGraphRegionColor@@XZ ; CGraphAttributes::GetGraphRegionColor
PUBLIC	?GetEtcGraphColor@CGraphAttributes@@QBE?AVCEtcGraphColor@@XZ ; CGraphAttributes::GetEtcGraphColor
PUBLIC	??4CScaleAttributes@@QAEAAV0@ABV0@@Z		; CScaleAttributes::operator=
PUBLIC	??0CScaleAttributes@@QAE@XZ			; CScaleAttributes::CScaleAttributes
PUBLIC	?SetHorzScaleMessageBoxShow@CScaleAttributes@@QAEX_N@Z ; CScaleAttributes::SetHorzScaleMessageBoxShow
PUBLIC	?SetOnlyPriceVertScale@CScaleAttributes@@QAEX_N@Z ; CScaleAttributes::SetOnlyPriceVertScale
PUBLIC	?SetScaleRegionAttributes@CScaleAttributes@@QAEXABVCScaleRegionAttributes@@@Z ; CScaleAttributes::SetScaleRegionAttributes
PUBLIC	?SetMinHorzScaleRegionHeight@CScaleAttributes@@QAEXH@Z ; CScaleAttributes::SetMinHorzScaleRegionHeight
PUBLIC	?SetMinVertScaleRegionWidth@CScaleAttributes@@QAEXH@Z ; CScaleAttributes::SetMinVertScaleRegionWidth
PUBLIC	?SetMaxVertScaleRegionWidth@CScaleAttributes@@QAEXH@Z ; CScaleAttributes::SetMaxVertScaleRegionWidth
PUBLIC	?SetScaleColor@CScaleAttributes@@QAEXABVCScaleColor@@@Z ; CScaleAttributes::SetScaleColor
PUBLIC	?DoesHorzScaleMessageBoxShow@CScaleAttributes@@QBE_NXZ ; CScaleAttributes::DoesHorzScaleMessageBoxShow
PUBLIC	?DoesOnlyPriceVertScale@CScaleAttributes@@QBE_NXZ ; CScaleAttributes::DoesOnlyPriceVertScale
PUBLIC	?GetScaleRegionAttributes@CScaleAttributes@@QBE?AVCScaleRegionAttributes@@XZ ; CScaleAttributes::GetScaleRegionAttributes
PUBLIC	?GetScaleRegionAttributes@CScaleAttributes@@QAEAAVCScaleRegionAttributes@@XZ ; CScaleAttributes::GetScaleRegionAttributes
PUBLIC	?GetScaleColor@CScaleAttributes@@QBE?AVCScaleColor@@XZ ; CScaleAttributes::GetScaleColor
PUBLIC	?GetScaleColor@CScaleAttributes@@QAEAAVCScaleColor@@XZ ; CScaleAttributes::GetScaleColor
PUBLIC	?GetMinHorzScaleRegionHeight@CScaleAttributes@@QBEHXZ ; CScaleAttributes::GetMinHorzScaleRegionHeight
PUBLIC	?GetMinVertScaleRegionWidth@CScaleAttributes@@QBEHXZ ; CScaleAttributes::GetMinVertScaleRegionWidth
PUBLIC	?GetMaxVertScaleRegionWidth@CScaleAttributes@@QBEHXZ ; CScaleAttributes::GetMaxVertScaleRegionWidth
PUBLIC	??4CViewAttributes@@QAEAAV0@ABV0@@Z		; CViewAttributes::operator=
PUBLIC	??0CViewAttributes@@QAE@XZ			; CViewAttributes::CViewAttributes
PUBLIC	?SetDataRegionInBlock@CViewAttributes@@QAEXHH@Z	; CViewAttributes::SetDataRegionInBlock
PUBLIC	?SetDrawingOrderType@CViewAttributes@@QAEXW4DRAWINGORDER@CDrawingOption@@@Z ; CViewAttributes::SetDrawingOrderType
PUBLIC	?SetMessageBoxShow@CViewAttributes@@QAEX_N@Z	; CViewAttributes::SetMessageBoxShow
PUBLIC	?SetBackgroundColor@CViewAttributes@@QAEXABK@Z	; CViewAttributes::SetBackgroundColor
PUBLIC	?GetDisplayAttributes@CViewAttributes@@QBE?AVCDisplayAttributes@@XZ ; CViewAttributes::GetDisplayAttributes
PUBLIC	?GetDrawingOrderType@CViewAttributes@@QBE?AW4DRAWINGORDER@CDrawingOption@@XZ ; CViewAttributes::GetDrawingOrderType
PUBLIC	?GetDrawingOrderType@CViewAttributes@@QAEAAW4DRAWINGORDER@CDrawingOption@@XZ ; CViewAttributes::GetDrawingOrderType
PUBLIC	?DoesMessageBoxShow@CViewAttributes@@QBE_NXZ	; CViewAttributes::DoesMessageBoxShow
PUBLIC	?GetBackgroundColor@CViewAttributes@@QBEKXZ	; CViewAttributes::GetBackgroundColor
PUBLIC	??0CMainBlockBaseData@@QAE@XZ			; CMainBlockBaseData::CMainBlockBaseData
PUBLIC	??4CMainBlockBaseData@@QAEAAV0@ABV0@@Z		; CMainBlockBaseData::operator=
PUBLIC	?SetMinHorzScaleRegionHeight@CMainBlockBaseData@@QAEXH@Z ; CMainBlockBaseData::SetMinHorzScaleRegionHeight
PUBLIC	?SetMinVertScaleRegionWidth@CMainBlockBaseData@@QAEXH@Z ; CMainBlockBaseData::SetMinVertScaleRegionWidth
PUBLIC	?SetMaxVertScaleRegionWidth@CMainBlockBaseData@@QAEXH@Z ; CMainBlockBaseData::SetMaxVertScaleRegionWidth
PUBLIC	?GetMainAttributes@CMainBlockBaseData@@QBE?AVCMainAttributes@@XZ ; CMainBlockBaseData::GetMainAttributes
PUBLIC	?GetMainAttributes@CMainBlockBaseData@@QAEAAVCMainAttributes@@XZ ; CMainBlockBaseData::GetMainAttributes
PUBLIC	?GetBlockAttributes@CMainBlockBaseData@@QBE?AVCBlockAttributes@@XZ ; CMainBlockBaseData::GetBlockAttributes
PUBLIC	?GetBlockAttributes@CMainBlockBaseData@@QAEAAVCBlockAttributes@@XZ ; CMainBlockBaseData::GetBlockAttributes
PUBLIC	?GetGraphAttributes@CMainBlockBaseData@@QBE?AVCGraphAttributes@@XZ ; CMainBlockBaseData::GetGraphAttributes
PUBLIC	?GetGraphAttributes@CMainBlockBaseData@@QAEAAVCGraphAttributes@@XZ ; CMainBlockBaseData::GetGraphAttributes
PUBLIC	?GetScaleAttributes@CMainBlockBaseData@@QBE?AVCScaleAttributes@@XZ ; CMainBlockBaseData::GetScaleAttributes
PUBLIC	?GetScaleAttributes@CMainBlockBaseData@@QAEAAVCScaleAttributes@@XZ ; CMainBlockBaseData::GetScaleAttributes
PUBLIC	?GetViewAttributes@CMainBlockBaseData@@QBE?AVCViewAttributes@@XZ ; CMainBlockBaseData::GetViewAttributes
PUBLIC	?GetViewAttributes@CMainBlockBaseData@@QAEAAVCViewAttributes@@XZ ; CMainBlockBaseData::GetViewAttributes
PUBLIC	?GetParentWnd@CMainBlockBaseData@@QBEPAVCWnd@@XZ ; CMainBlockBaseData::GetParentWnd
PUBLIC	?GetParent_Handle@CMainBlockBaseData@@QBEPAUHWND__@@XZ ; CMainBlockBaseData::GetParent_Handle
PUBLIC	?GetPacketList@CMainBlockBaseData@@QBEPAVCPacketList@@XZ ; CMainBlockBaseData::GetPacketList
PUBLIC	?GetIndicatorList@CMainBlockBaseData@@QBEPAVCIndicatorList@@XZ ; CMainBlockBaseData::GetIndicatorList
PUBLIC	?GetXScaleManager@CMainBlockBaseData@@QBEPAVCXScaleManager@@XZ ; CMainBlockBaseData::GetXScaleManager
PUBLIC	?GetPacketListManager@CMainBlockBaseData@@QBEPAVCPacketListManager@@XZ ; CMainBlockBaseData::GetPacketListManager
PUBLIC	?GetToolBarManager@CMainBlockBaseData@@QBEPAUIToolBarManager@@XZ ; CMainBlockBaseData::GetToolBarManager
PUBLIC	?DoesAutoDeleteIndicatorInfo@CMainBlockBaseData@@QBE_NXZ ; CMainBlockBaseData::DoesAutoDeleteIndicatorInfo
PUBLIC	?GetGraphRegionFrameThickness@CMainBlockBaseData@@QBEHXZ ; CMainBlockBaseData::GetGraphRegionFrameThickness
PUBLIC	?GetMinHorzScaleRegionHeight@CMainBlockBaseData@@QBEHXZ ; CMainBlockBaseData::GetMinHorzScaleRegionHeight
PUBLIC	?GetMinVertScaleRegionWidth@CMainBlockBaseData@@QBEHXZ ; CMainBlockBaseData::GetMinVertScaleRegionWidth
PUBLIC	?GetMaxVertScaleRegionWidth@CMainBlockBaseData@@QBEHXZ ; CMainBlockBaseData::GetMaxVertScaleRegionWidth
PUBLIC	?GetBlockType@CMainBlockBaseData@@QBE?AW4BLOCKTYPE@CBlockBaseData@@XZ ; CMainBlockBaseData::GetBlockType
PUBLIC	?GetBlockCompartType@CMainBlockBaseData@@QBE?AW4BLOCKCOMPART@CBlockBaseData@@XZ ; CMainBlockBaseData::GetBlockCompartType
PUBLIC	?GetMaxBlocksCountInView@CMainBlockBaseData@@QBEHXZ ; CMainBlockBaseData::GetMaxBlocksCountInView
PUBLIC	?GetGraphRegionColor@CMainBlockBaseData@@QBE?AVCGraphRegionColor@@XZ ; CMainBlockBaseData::GetGraphRegionColor
PUBLIC	?GetDisplayAttributes@CMainBlockBaseData@@QBE?AVCDisplayAttributes@@XZ ; CMainBlockBaseData::GetDisplayAttributes
PUBLIC	?Invalidate@CMainBlockBaseData@@QAEXXZ		; CMainBlockBaseData::Invalidate
PUBLIC	?SendMessageToParent@CMainBlockBaseData@@QAEXABVCBlockBehaviorData@@@Z ; CMainBlockBaseData::SendMessageToParent
PUBLIC	?SendMessageToParent_TRData@CMainBlockBaseData@@QAEXABV?$CStringT@DV?$StrTraitMFC_DLL@DV?$ChTraitsCRT@D@ATL@@@@@ATL@@0@Z ; CMainBlockBaseData::SendMessageToParent_TRData
PUBLIC	?SendMessageToParent_TRData@CMainBlockBaseData@@QAEXABV?$CStringT@DV?$StrTraitMFC_DLL@DV?$ChTraitsCRT@D@ATL@@@@@ATL@@0H_N@Z ; CMainBlockBaseData::SendMessageToParent_TRData
PUBLIC	?SendMessageToParent_CalculateIndicatorInTRData@CMainBlockBaseData@@QAEXPAVCIndicatorInfo@@ABV?$CList@PAVCPacket@@PAV1@@@@Z ; CMainBlockBaseData::SendMessageToParent_CalculateIndicatorInTRData
PUBLIC	?DoesMessageBoxShow@CMainBlockBaseData@@QBEHXZ	; CMainBlockBaseData::DoesMessageBoxShow
PUBLIC	??0CBlockData@@QAE@XZ				; CBlockData::CBlockData
PUBLIC	?SetDoubleSize@CBlockData@@QAEX_N@Z		; CBlockData::SetDoubleSize
PUBLIC	?SetVertScaleLogType@CBlockData@@QAEX_N@Z	; CBlockData::SetVertScaleLogType
PUBLIC	?SetHorzScale@CBlockData@@QAEXABVCHorizontalScale@@@Z ; CBlockData::SetHorzScale
PUBLIC	?SetDisplayDataHorzMinMax@CBlockData@@QAEXABVCDisplayDataMinMax@@@Z ; CBlockData::SetDisplayDataHorzMinMax
PUBLIC	?SetHorizontalScaleHeight@CBlockData@@QAEXH@Z	; CBlockData::SetHorizontalScaleHeight
PUBLIC	?GetDoubleSize@CBlockData@@QBE_NXZ		; CBlockData::GetDoubleSize
PUBLIC	?GetVertScaleLogType@CBlockData@@QBE_NXZ	; CBlockData::GetVertScaleLogType
PUBLIC	?GetVertScaleLogType@CBlockData@@QAEAA_NXZ	; CBlockData::GetVertScaleLogType
PUBLIC	?GetHorzScale@CBlockData@@QBE?AVCHorizontalScale@@XZ ; CBlockData::GetHorzScale
PUBLIC	?GetHorzScale@CBlockData@@QAEAAVCHorizontalScale@@XZ ; CBlockData::GetHorzScale
PUBLIC	?GetDisplayDataHorzMinMax@CBlockData@@QBE?AVCDisplayDataMinMax@@XZ ; CBlockData::GetDisplayDataHorzMinMax
PUBLIC	?GetDisplayDataHorzMinMax@CBlockData@@QAEAAVCDisplayDataMinMax@@XZ ; CBlockData::GetDisplayDataHorzMinMax
PUBLIC	?GetHorizontalScaleHeight@CBlockData@@QBEHXZ	; CBlockData::GetHorizontalScaleHeight
EXTRN	__imp_??0?$CStringT@DV?$StrTraitMFC_DLL@DV?$ChTraitsCRT@D@ATL@@@@@ATL@@QAE@XZ:PROC
EXTRN	__imp_??0?$CStringT@DV?$StrTraitMFC_DLL@DV?$ChTraitsCRT@D@ATL@@@@@ATL@@QAE@ABV01@@Z:PROC
EXTRN	__imp_??1?$CStringT@DV?$StrTraitMFC_DLL@DV?$ChTraitsCRT@D@ATL@@@@@ATL@@QAE@XZ:PROC
EXTRN	__imp_??4?$CStringT@DV?$StrTraitMFC_DLL@DV?$ChTraitsCRT@D@ATL@@@@@ATL@@QAEAAV01@ABV01@@Z:PROC
EXTRN	__imp_??4CHorizontalScale@@QAEAAV0@ABV0@@Z:PROC
EXTRN	__imp_??0CHorizontalScale@@QAE@XZ:PROC
EXTRN	__imp_?SetScaleHeight@CHorizontalScale@@QAEXH@Z:PROC
EXTRN	__imp_?GetScaleHeight@CHorizontalScale@@QBEHXZ:PROC
EXTRN	__imp_??1CHorizontalScale@@QAE@XZ:PROC
EXTRN	__imp_??0CHorizontalScale@@QAE@ABV0@@Z:PROC
EXTRN	__imp_??4CDisplayDataMinMax@@QAEAAV0@ABV0@@Z:PROC
EXTRN	__imp_??0CDisplayDataMinMax@@QAE@XZ:PROC
EXTRN	__imp_??4CGraphRegionColor@@QAEAAV0@ABV0@@Z:PROC
EXTRN	__imp_??0CGraphRegionColor@@QAE@XZ:PROC
EXTRN	__imp_??4CScaleColor@@QAEAAV0@ABV0@@Z:PROC
EXTRN	__imp_??0CScaleColor@@QAE@XZ:PROC
EXTRN	__imp_??4CEtcGraphColor@@QAEAAV0@ABV0@@Z:PROC
EXTRN	__imp_??0CEtcGraphColor@@QAE@XZ:PROC
EXTRN	??4CDisplayAttributes@@QAEAAV0@ABV0@@Z:PROC	; CDisplayAttributes::operator=
EXTRN	??0CDisplayAttributes@@QAE@XZ:PROC		; CDisplayAttributes::CDisplayAttributes
EXTRN	?SetDataStartInBlock@CDisplayAttributes@@QAEXH@Z:PROC ; CDisplayAttributes::SetDataStartInBlock
EXTRN	?SetDataEndInBlock@CDisplayAttributes@@QAEXH@Z:PROC ; CDisplayAttributes::SetDataEndInBlock
EXTRN	??0CScaleRegionAttributes@@QAE@XZ:PROC		; CScaleRegionAttributes::CScaleRegionAttributes
EXTRN	?SetMinHorzScaleRegionHeight@CScaleRegionAttributes@@QAEXH@Z:PROC ; CScaleRegionAttributes::SetMinHorzScaleRegionHeight
EXTRN	?SetMinVertScaleRegionWidth@CScaleRegionAttributes@@QAEXH@Z:PROC ; CScaleRegionAttributes::SetMinVertScaleRegionWidth
EXTRN	?SetMaxVertScaleRegionWidth@CScaleRegionAttributes@@QAEXH@Z:PROC ; CScaleRegionAttributes::SetMaxVertScaleRegionWidth
EXTRN	?GetMinHorzScaleRegionHeight@CScaleRegionAttributes@@QBEHXZ:PROC ; CScaleRegionAttributes::GetMinHorzScaleRegionHeight
EXTRN	?GetMinVertScaleRegionWidth@CScaleRegionAttributes@@QBEHXZ:PROC ; CScaleRegionAttributes::GetMinVertScaleRegionWidth
EXTRN	?GetMaxVertScaleRegionWidth@CScaleRegionAttributes@@QBEHXZ:PROC ; CScaleRegionAttributes::GetMaxVertScaleRegionWidth
EXTRN	@__security_check_cookie@4:PROC
EXTRN	___CxxFrameHandler3:PROC
EXTRN	___security_cookie:DWORD
;	COMDAT xdata$x
xdata$x	SEGMENT
__unwindtable$??0CBlockData@@QAE@XZ DD 0ffffffffH
	DD	FLAT:__unwindfunclet$??0CBlockData@@QAE@XZ$0
__ehfuncinfo$??0CBlockData@@QAE@XZ DD 019930522H
	DD	01H
	DD	FLAT:__unwindtable$??0CBlockData@@QAE@XZ
	DD	2 DUP(00H)
	DD	2 DUP(00H)
	DD	00H
	DD	01H
xdata$x	ENDS
;	COMDAT xdata$x
xdata$x	SEGMENT
__unwindtable$??4CMainBlockBaseData@@QAEAAV0@ABV0@@Z DD 0ffffffffH
	DD	FLAT:__unwindfunclet$??4CMainBlockBaseData@@QAEAAV0@ABV0@@Z$0
	DD	00H
	DD	FLAT:__unwindfunclet$??4CMainBlockBaseData@@QAEAAV0@ABV0@@Z$3
__ehfuncinfo$??4CMainBlockBaseData@@QAEAAV0@ABV0@@Z DD 019930522H
	DD	02H
	DD	FLAT:__unwindtable$??4CMainBlockBaseData@@QAEAAV0@ABV0@@Z
	DD	2 DUP(00H)
	DD	2 DUP(00H)
	DD	00H
	DD	01H
xdata$x	ENDS
;	COMDAT xdata$x
xdata$x	SEGMENT
__unwindtable$??0CMainBlockBaseData@@QAE@XZ DD 0ffffffffH
	DD	FLAT:__unwindfunclet$??0CMainBlockBaseData@@QAE@XZ$0
__ehfuncinfo$??0CMainBlockBaseData@@QAE@XZ DD 019930522H
	DD	01H
	DD	FLAT:__unwindtable$??0CMainBlockBaseData@@QAE@XZ
	DD	2 DUP(00H)
	DD	2 DUP(00H)
	DD	00H
	DD	01H
xdata$x	ENDS
;	COMDAT xdata$x
xdata$x	SEGMENT
__unwindtable$??4CMainAttributes@@QAEAAV0@ABV0@@Z DD 0ffffffffH
	DD	FLAT:__unwindfunclet$??4CMainAttributes@@QAEAAV0@ABV0@@Z$0
__ehfuncinfo$??4CMainAttributes@@QAEAAV0@ABV0@@Z DD 019930522H
	DD	01H
	DD	FLAT:__unwindtable$??4CMainAttributes@@QAEAAV0@ABV0@@Z
	DD	2 DUP(00H)
	DD	2 DUP(00H)
	DD	00H
	DD	01H
xdata$x	ENDS
; Function compile flags: /Ogtp
; File D:\git\src\IBK\IBK_DRFN\ProjSrc\SrcChartEx\ChartOCX\ChartObject\ChartObjectBaseData.cpp
;	COMDAT ?GetHorizontalScaleHeight@CBlockData@@QBEHXZ
_TEXT	SEGMENT
?GetHorizontalScaleHeight@CBlockData@@QBEHXZ PROC	; CBlockData::GetHorizontalScaleHeight, COMDAT
; _this$ = ecx

; 874  : 	return m_horzScale.GetScaleHeight();

  00000	ff 25 00 00 00
	00		 jmp	 DWORD PTR __imp_?GetScaleHeight@CHorizontalScale@@QBEHXZ
?GetHorizontalScaleHeight@CBlockData@@QBEHXZ ENDP	; CBlockData::GetHorizontalScaleHeight
_TEXT	ENDS
; Function compile flags: /Ogtp
; File D:\git\src\IBK\IBK_DRFN\ProjSrc\SrcChartEx\ChartOCX\ChartObject\ChartObjectBaseData.cpp
;	COMDAT ?GetDisplayDataHorzMinMax@CBlockData@@QAEAAVCDisplayDataMinMax@@XZ
_TEXT	SEGMENT
?GetDisplayDataHorzMinMax@CBlockData@@QAEAAVCDisplayDataMinMax@@XZ PROC ; CBlockData::GetDisplayDataHorzMinMax, COMDAT
; _this$ = ecx

; 879  : 	return m_displayDataHorzMinMax;

  00000	8d 41 68	 lea	 eax, DWORD PTR [ecx+104]

; 880  : }

  00003	c3		 ret	 0
?GetDisplayDataHorzMinMax@CBlockData@@QAEAAVCDisplayDataMinMax@@XZ ENDP ; CBlockData::GetDisplayDataHorzMinMax
_TEXT	ENDS
; Function compile flags: /Ogtp
; File D:\git\src\IBK\IBK_DRFN\ProjSrc\SrcChartEx\ChartOCX\ChartObject\ChartObjectBaseData.cpp
;	COMDAT ?GetDisplayDataHorzMinMax@CBlockData@@QBE?AVCDisplayDataMinMax@@XZ
_TEXT	SEGMENT
___$ReturnUdt$ = 8					; size = 4
?GetDisplayDataHorzMinMax@CBlockData@@QBE?AVCDisplayDataMinMax@@XZ PROC ; CBlockData::GetDisplayDataHorzMinMax, COMDAT
; _this$ = ecx

; 867  : {

  00000	55		 push	 ebp
  00001	8b ec		 mov	 ebp, esp

; 868  : 	return m_displayDataHorzMinMax;

  00003	8b 45 08	 mov	 eax, DWORD PTR ___$ReturnUdt$[ebp]
  00006	0f 10 41 68	 movups	 xmm0, XMMWORD PTR [ecx+104]
  0000a	0f 11 00	 movups	 XMMWORD PTR [eax], xmm0

; 869  : }

  0000d	5d		 pop	 ebp
  0000e	c2 04 00	 ret	 4
?GetDisplayDataHorzMinMax@CBlockData@@QBE?AVCDisplayDataMinMax@@XZ ENDP ; CBlockData::GetDisplayDataHorzMinMax
_TEXT	ENDS
; Function compile flags: /Ogtp
; File D:\git\src\IBK\IBK_DRFN\ProjSrc\SrcChartEx\ChartOCX\ChartObject\ChartObjectBaseData.cpp
;	COMDAT ?GetHorzScale@CBlockData@@QAEAAVCHorizontalScale@@XZ
_TEXT	SEGMENT
?GetHorzScale@CBlockData@@QAEAAVCHorizontalScale@@XZ PROC ; CBlockData::GetHorzScale, COMDAT
; _this$ = ecx

; 863  : 	return m_horzScale;

  00000	8b c1		 mov	 eax, ecx

; 864  : }

  00002	c3		 ret	 0
?GetHorzScale@CBlockData@@QAEAAVCHorizontalScale@@XZ ENDP ; CBlockData::GetHorzScale
_TEXT	ENDS
; Function compile flags: /Ogtp
; File D:\git\src\IBK\IBK_DRFN\ProjSrc\SrcChartEx\ChartOCX\ChartObject\ChartObjectBaseData.cpp
;	COMDAT ?GetHorzScale@CBlockData@@QBE?AVCHorizontalScale@@XZ
_TEXT	SEGMENT
___$ReturnUdt$ = 8					; size = 4
?GetHorzScale@CBlockData@@QBE?AVCHorizontalScale@@XZ PROC ; CBlockData::GetHorzScale, COMDAT
; _this$ = ecx

; 857  : {

  00000	55		 push	 ebp
  00001	8b ec		 mov	 ebp, esp

; 858  : 	return m_horzScale;

  00003	51		 push	 ecx
  00004	8b 4d 08	 mov	 ecx, DWORD PTR ___$ReturnUdt$[ebp]
  00007	ff 15 00 00 00
	00		 call	 DWORD PTR __imp_??0CHorizontalScale@@QAE@ABV0@@Z
  0000d	8b 45 08	 mov	 eax, DWORD PTR ___$ReturnUdt$[ebp]

; 859  : }

  00010	5d		 pop	 ebp
  00011	c2 04 00	 ret	 4
?GetHorzScale@CBlockData@@QBE?AVCHorizontalScale@@XZ ENDP ; CBlockData::GetHorzScale
_TEXT	ENDS
; Function compile flags: /Ogtp
; File D:\git\src\IBK\IBK_DRFN\ProjSrc\SrcChartEx\ChartOCX\ChartObject\ChartObjectBaseData.cpp
;	COMDAT ?GetVertScaleLogType@CBlockData@@QAEAA_NXZ
_TEXT	SEGMENT
?GetVertScaleLogType@CBlockData@@QAEAA_NXZ PROC		; CBlockData::GetVertScaleLogType, COMDAT
; _this$ = ecx

; 853  : 	return m_bIsVertScaleLogType;

  00000	8d 41 78	 lea	 eax, DWORD PTR [ecx+120]

; 854  : }

  00003	c3		 ret	 0
?GetVertScaleLogType@CBlockData@@QAEAA_NXZ ENDP		; CBlockData::GetVertScaleLogType
_TEXT	ENDS
; Function compile flags: /Ogtp
; File D:\git\src\IBK\IBK_DRFN\ProjSrc\SrcChartEx\ChartOCX\ChartObject\ChartObjectBaseData.cpp
;	COMDAT ?GetVertScaleLogType@CBlockData@@QBE_NXZ
_TEXT	SEGMENT
?GetVertScaleLogType@CBlockData@@QBE_NXZ PROC		; CBlockData::GetVertScaleLogType, COMDAT
; _this$ = ecx

; 848  : 	return m_bIsVertScaleLogType;

  00000	8a 41 78	 mov	 al, BYTE PTR [ecx+120]

; 849  : }

  00003	c3		 ret	 0
?GetVertScaleLogType@CBlockData@@QBE_NXZ ENDP		; CBlockData::GetVertScaleLogType
_TEXT	ENDS
; Function compile flags: /Ogtp
; File D:\git\src\IBK\IBK_DRFN\ProjSrc\SrcChartEx\ChartOCX\ChartObject\ChartObjectBaseData.cpp
;	COMDAT ?GetDoubleSize@CBlockData@@QBE_NXZ
_TEXT	SEGMENT
?GetDoubleSize@CBlockData@@QBE_NXZ PROC			; CBlockData::GetDoubleSize, COMDAT
; _this$ = ecx

; 843  : 	return m_bIsDoubleSize;

  00000	8a 41 79	 mov	 al, BYTE PTR [ecx+121]

; 844  : }

  00003	c3		 ret	 0
?GetDoubleSize@CBlockData@@QBE_NXZ ENDP			; CBlockData::GetDoubleSize
_TEXT	ENDS
; Function compile flags: /Ogtp
; File D:\git\src\IBK\IBK_DRFN\ProjSrc\SrcChartEx\ChartOCX\ChartObject\ChartObjectBaseData.cpp
;	COMDAT ?SetHorizontalScaleHeight@CBlockData@@QAEXH@Z
_TEXT	SEGMENT
_nHeight$ = 8						; size = 4
?SetHorizontalScaleHeight@CBlockData@@QAEXH@Z PROC	; CBlockData::SetHorizontalScaleHeight, COMDAT
; _this$ = ecx

; 836  : {

  00000	55		 push	 ebp
  00001	8b ec		 mov	 ebp, esp

; 838  : }

  00003	5d		 pop	 ebp

; 837  : 	m_horzScale.SetScaleHeight(nHeight);

  00004	ff 25 00 00 00
	00		 jmp	 DWORD PTR __imp_?SetScaleHeight@CHorizontalScale@@QAEXH@Z
?SetHorizontalScaleHeight@CBlockData@@QAEXH@Z ENDP	; CBlockData::SetHorizontalScaleHeight
_TEXT	ENDS
; Function compile flags: /Ogtp
; File D:\git\src\IBK\IBK_DRFN\ProjSrc\SrcChartEx\ChartOCX\ChartObject\ChartObjectBaseData.cpp
;	COMDAT ?SetDisplayDataHorzMinMax@CBlockData@@QAEXABVCDisplayDataMinMax@@@Z
_TEXT	SEGMENT
_displayDataHorzMinMax$ = 8				; size = 4
?SetDisplayDataHorzMinMax@CBlockData@@QAEXABVCDisplayDataMinMax@@@Z PROC ; CBlockData::SetDisplayDataHorzMinMax, COMDAT
; _this$ = ecx

; 830  : {

  00000	55		 push	 ebp
  00001	8b ec		 mov	 ebp, esp

; 831  : 	m_displayDataHorzMinMax = displayDataHorzMinMax;

  00003	83 c1 68	 add	 ecx, 104		; 00000068H

; 832  : }

  00006	5d		 pop	 ebp

; 831  : 	m_displayDataHorzMinMax = displayDataHorzMinMax;

  00007	ff 25 00 00 00
	00		 jmp	 DWORD PTR __imp_??4CDisplayDataMinMax@@QAEAAV0@ABV0@@Z
?SetDisplayDataHorzMinMax@CBlockData@@QAEXABVCDisplayDataMinMax@@@Z ENDP ; CBlockData::SetDisplayDataHorzMinMax
_TEXT	ENDS
; Function compile flags: /Ogtp
; File D:\git\src\IBK\IBK_DRFN\ProjSrc\SrcChartEx\ChartOCX\ChartObject\ChartObjectBaseData.cpp
;	COMDAT ?SetHorzScale@CBlockData@@QAEXABVCHorizontalScale@@@Z
_TEXT	SEGMENT
_horzScale$ = 8						; size = 4
?SetHorzScale@CBlockData@@QAEXABVCHorizontalScale@@@Z PROC ; CBlockData::SetHorzScale, COMDAT
; _this$ = ecx

; 825  : {

  00000	55		 push	 ebp
  00001	8b ec		 mov	 ebp, esp

; 827  : }

  00003	5d		 pop	 ebp

; 826  : 	m_horzScale = horzScale;

  00004	ff 25 00 00 00
	00		 jmp	 DWORD PTR __imp_??4CHorizontalScale@@QAEAAV0@ABV0@@Z
?SetHorzScale@CBlockData@@QAEXABVCHorizontalScale@@@Z ENDP ; CBlockData::SetHorzScale
_TEXT	ENDS
; Function compile flags: /Ogtp
; File D:\git\src\IBK\IBK_DRFN\ProjSrc\SrcChartEx\ChartOCX\ChartObject\ChartObjectBaseData.cpp
;	COMDAT ?SetVertScaleLogType@CBlockData@@QAEX_N@Z
_TEXT	SEGMENT
_bIsVertScaleLogType$ = 8				; size = 1
?SetVertScaleLogType@CBlockData@@QAEX_N@Z PROC		; CBlockData::SetVertScaleLogType, COMDAT
; _this$ = ecx

; 820  : {

  00000	55		 push	 ebp
  00001	8b ec		 mov	 ebp, esp

; 821  : 	m_bIsVertScaleLogType = bIsVertScaleLogType;

  00003	8a 45 08	 mov	 al, BYTE PTR _bIsVertScaleLogType$[ebp]
  00006	88 41 78	 mov	 BYTE PTR [ecx+120], al

; 822  : }

  00009	5d		 pop	 ebp
  0000a	c2 04 00	 ret	 4
?SetVertScaleLogType@CBlockData@@QAEX_N@Z ENDP		; CBlockData::SetVertScaleLogType
_TEXT	ENDS
; Function compile flags: /Ogtp
; File D:\git\src\IBK\IBK_DRFN\ProjSrc\SrcChartEx\ChartOCX\ChartObject\ChartObjectBaseData.cpp
;	COMDAT ?SetDoubleSize@CBlockData@@QAEX_N@Z
_TEXT	SEGMENT
_bIsDoubleSize$ = 8					; size = 1
?SetDoubleSize@CBlockData@@QAEX_N@Z PROC		; CBlockData::SetDoubleSize, COMDAT
; _this$ = ecx

; 815  : {

  00000	55		 push	 ebp
  00001	8b ec		 mov	 ebp, esp

; 816  : 	m_bIsDoubleSize = bIsDoubleSize;

  00003	8a 45 08	 mov	 al, BYTE PTR _bIsDoubleSize$[ebp]
  00006	88 41 79	 mov	 BYTE PTR [ecx+121], al

; 817  : }

  00009	5d		 pop	 ebp
  0000a	c2 04 00	 ret	 4
?SetDoubleSize@CBlockData@@QAEX_N@Z ENDP		; CBlockData::SetDoubleSize
_TEXT	ENDS
; Function compile flags: /Ogtp
; File D:\git\src\IBK\IBK_DRFN\ProjSrc\SrcChartEx\ChartOCX\ChartObject\ChartObjectBaseData.cpp
;	COMDAT ??0CBlockData@@QAE@XZ
_TEXT	SEGMENT
_this$ = -16						; size = 4
__$EHRec$ = -12						; size = 12
??0CBlockData@@QAE@XZ PROC				; CBlockData::CBlockData, COMDAT
; _this$ = ecx

; 811  : {

  00000	55		 push	 ebp
  00001	8b ec		 mov	 ebp, esp
  00003	6a ff		 push	 -1
  00005	68 00 00 00 00	 push	 __ehhandler$??0CBlockData@@QAE@XZ
  0000a	64 a1 00 00 00
	00		 mov	 eax, DWORD PTR fs:0
  00010	50		 push	 eax
  00011	51		 push	 ecx
  00012	56		 push	 esi
  00013	a1 00 00 00 00	 mov	 eax, DWORD PTR ___security_cookie
  00018	33 c5		 xor	 eax, ebp
  0001a	50		 push	 eax
  0001b	8d 45 f4	 lea	 eax, DWORD PTR __$EHRec$[ebp]
  0001e	64 a3 00 00 00
	00		 mov	 DWORD PTR fs:0, eax
  00024	8b f1		 mov	 esi, ecx
  00026	89 75 f0	 mov	 DWORD PTR _this$[ebp], esi
  00029	ff 15 00 00 00
	00		 call	 DWORD PTR __imp_??0CHorizontalScale@@QAE@XZ
  0002f	8d 4e 68	 lea	 ecx, DWORD PTR [esi+104]
  00032	c7 45 fc 00 00
	00 00		 mov	 DWORD PTR __$EHRec$[ebp+8], 0
  00039	ff 15 00 00 00
	00		 call	 DWORD PTR __imp_??0CDisplayDataMinMax@@QAE@XZ

; 810  : 	m_bIsVertScaleLogType(false)

  0003f	66 c7 46 78 00
	00		 mov	 WORD PTR [esi+120], 0

; 812  : }

  00045	8b c6		 mov	 eax, esi
  00047	8b 4d f4	 mov	 ecx, DWORD PTR __$EHRec$[ebp]
  0004a	64 89 0d 00 00
	00 00		 mov	 DWORD PTR fs:0, ecx
  00051	59		 pop	 ecx
  00052	5e		 pop	 esi
  00053	8b e5		 mov	 esp, ebp
  00055	5d		 pop	 ebp
  00056	c3		 ret	 0
_TEXT	ENDS
;	COMDAT text$x
text$x	SEGMENT
__unwindfunclet$??0CBlockData@@QAE@XZ$0:
  00000	8b 4d f0	 mov	 ecx, DWORD PTR _this$[ebp]
  00003	ff 25 00 00 00
	00		 jmp	 DWORD PTR __imp_??1CHorizontalScale@@QAE@XZ
  00009	cc		 int	 3
  0000a	cc		 int	 3
  0000b	cc		 int	 3
  0000c	cc		 int	 3
  0000d	cc		 int	 3
__ehhandler$??0CBlockData@@QAE@XZ:
  0000e	90		 npad	 1
  0000f	90		 npad	 1
  00010	8b 54 24 08	 mov	 edx, DWORD PTR [esp+8]
  00014	8d 42 0c	 lea	 eax, DWORD PTR [edx+12]
  00017	8b 4a f4	 mov	 ecx, DWORD PTR [edx-12]
  0001a	33 c8		 xor	 ecx, eax
  0001c	e8 00 00 00 00	 call	 @__security_check_cookie@4
  00021	b8 00 00 00 00	 mov	 eax, OFFSET __ehfuncinfo$??0CBlockData@@QAE@XZ
  00026	e9 00 00 00 00	 jmp	 ___CxxFrameHandler3
text$x	ENDS
??0CBlockData@@QAE@XZ ENDP				; CBlockData::CBlockData
; Function compile flags: /Ogtp
; File D:\git\src\IBK\IBK_DRFN\ProjSrc\SrcChartEx\ChartOCX\ChartObject\ChartObjectBaseData.cpp
;	COMDAT ?DoesMessageBoxShow@CMainBlockBaseData@@QBEHXZ
_TEXT	SEGMENT
$T1 = -28						; size = 28
?DoesMessageBoxShow@CMainBlockBaseData@@QBEHXZ PROC	; CMainBlockBaseData::DoesMessageBoxShow, COMDAT
; _this$ = ecx

; 800  : {

  00000	55		 push	 ebp
  00001	8b ec		 mov	 ebp, esp
  00003	83 ec 1c	 sub	 esp, 28			; 0000001cH

; 801  : 	if( !GetScaleAttributes().DoesHorzScaleMessageBoxShow()) return false;

  00006	80 79 68 00	 cmp	 BYTE PTR [ecx+104], 0

; 662  : 	return m_scaleAttributes;

  0000a	f3 0f 7e 41 78	 movq	 xmm0, QWORD PTR [ecx+120]
  0000f	66 0f d6 45 f4	 movq	 QWORD PTR $T1[ebp+16], xmm0

; 801  : 	if( !GetScaleAttributes().DoesHorzScaleMessageBoxShow()) return false;

  00014	75 06		 jne	 SHORT $LN2@DoesMessag
  00016	33 c0		 xor	 eax, eax

; 803  : }

  00018	8b e5		 mov	 esp, ebp
  0001a	5d		 pop	 ebp
  0001b	c3		 ret	 0
$LN2@DoesMessag:

; 672  : 	return m_viewAttributes;

  0001c	0f 10 81 84 00
	00 00		 movups	 xmm0, XMMWORD PTR [ecx+132]

; 802  : 	return GetViewAttributes().DoesMessageBoxShow();

  00023	66 0f 73 d8 0c	 psrldq	 xmm0, 12		; 0000000cH
  00028	66 0f 7e c0	 movd	 eax, xmm0
  0002c	0f b6 c0	 movzx	 eax, al

; 803  : }

  0002f	8b e5		 mov	 esp, ebp
  00031	5d		 pop	 ebp
  00032	c3		 ret	 0
?DoesMessageBoxShow@CMainBlockBaseData@@QBEHXZ ENDP	; CMainBlockBaseData::DoesMessageBoxShow
_TEXT	ENDS
; Function compile flags: /Ogtp
; File D:\git\src\IBK\IBK_DRFN\ProjSrc\SrcChartEx\ChartOCX\ChartObject\ChartObjectBaseData.cpp
;	COMDAT ?SendMessageToParent_CalculateIndicatorInTRData@CMainBlockBaseData@@QAEXPAVCIndicatorInfo@@ABV?$CList@PAVCPacket@@PAV1@@@@Z
_TEXT	SEGMENT
_pIndicatorInfo$ = 8					; size = 4
_packetList$ = 12					; size = 4
?SendMessageToParent_CalculateIndicatorInTRData@CMainBlockBaseData@@QAEXPAVCIndicatorInfo@@ABV?$CList@PAVCPacket@@PAV1@@@@Z PROC ; CMainBlockBaseData::SendMessageToParent_CalculateIndicatorInTRData, COMDAT
; _this$ = ecx

; 794  : {

  00000	55		 push	 ebp
  00001	8b ec		 mov	 ebp, esp

; 215  : 	if(m_pIChartCtrl == NULL || pIndicatorInfo == NULL) return;

  00003	8b 49 0c	 mov	 ecx, DWORD PTR [ecx+12]
  00006	85 c9		 test	 ecx, ecx
  00008	74 10		 je	 SHORT $LN5@SendMessag
  0000a	8b 55 08	 mov	 edx, DWORD PTR _pIndicatorInfo$[ebp]
  0000d	85 d2		 test	 edx, edx
  0000f	74 09		 je	 SHORT $LN5@SendMessag

; 216  : 
; 217  : #ifdef _DEBUG
; 218  : 	TRACE( "ST Indicator Called : %s (with %d Packets)\r\n", pIndicatorInfo->GetIndicatorName(), packetList.GetCount());
; 219  : #endif
; 220  : 
; 221  : 	m_pIChartCtrl->CalculateIndicatorInTRData(pIndicatorInfo, packetList);

  00011	8b 01		 mov	 eax, DWORD PTR [ecx]
  00013	89 55 08	 mov	 DWORD PTR _pIndicatorInfo$[ebp], edx

; 795  : 	m_mainAttributes.SendMessageToParent_CalculateIndicatorInTRData(pIndicatorInfo, packetList);
; 796  : }

  00016	5d		 pop	 ebp

; 221  : 	m_pIChartCtrl->CalculateIndicatorInTRData(pIndicatorInfo, packetList);

  00017	ff 60 18	 jmp	 DWORD PTR [eax+24]
$LN5@SendMessag:

; 795  : 	m_mainAttributes.SendMessageToParent_CalculateIndicatorInTRData(pIndicatorInfo, packetList);
; 796  : }

  0001a	5d		 pop	 ebp
  0001b	c2 08 00	 ret	 8
?SendMessageToParent_CalculateIndicatorInTRData@CMainBlockBaseData@@QAEXPAVCIndicatorInfo@@ABV?$CList@PAVCPacket@@PAV1@@@@Z ENDP ; CMainBlockBaseData::SendMessageToParent_CalculateIndicatorInTRData
_TEXT	ENDS
; Function compile flags: /Ogtp
; File D:\git\src\IBK\IBK_DRFN\ProjSrc\SrcChartEx\ChartOCX\ChartObject\ChartObjectBaseData.cpp
; File C:\Program Files (x86)\Microsoft Visual Studio\2019\Community\VC\Tools\MSVC\14.29.30133\atlmfc\include\atlsimpstr.h
; File D:\git\src\IBK\IBK_DRFN\ProjSrc\SrcChartEx\ChartOCX\ChartObject\ChartObjectBaseData.cpp
;	COMDAT ?SendMessageToParent_TRData@CMainBlockBaseData@@QAEXABV?$CStringT@DV?$StrTraitMFC_DLL@DV?$ChTraitsCRT@D@ATL@@@@@ATL@@0H_N@Z
_TEXT	SEGMENT
_strGraphName$ = 8					; size = 4
_strPacketNames$ = 12					; size = 4
_nRequestTRCount$ = 16					; size = 4
_bIsNew$ = 20						; size = 1
?SendMessageToParent_TRData@CMainBlockBaseData@@QAEXABV?$CStringT@DV?$StrTraitMFC_DLL@DV?$ChTraitsCRT@D@ATL@@@@@ATL@@0H_N@Z PROC ; CMainBlockBaseData::SendMessageToParent_TRData, COMDAT
; _this$ = ecx

; 789  : {

  00000	55		 push	 ebp
  00001	8b ec		 mov	 ebp, esp

; 207  : 	if(m_pIChartCtrl == NULL || strPacketNames.IsEmpty())

  00003	8b 49 0c	 mov	 ecx, DWORD PTR [ecx+12]
  00006	85 c9		 test	 ecx, ecx
  00008	74 17		 je	 SHORT $LN5@SendMessag
; File C:\Program Files (x86)\Microsoft Visual Studio\2019\Community\VC\Tools\MSVC\14.29.30133\atlmfc\include\atlsimpstr.h

; 533  : 		return( GetLength() == 0 );

  0000a	8b 55 0c	 mov	 edx, DWORD PTR _strPacketNames$[ebp]
  0000d	8b 02		 mov	 eax, DWORD PTR [edx]
  0000f	83 78 f4 00	 cmp	 DWORD PTR [eax-12], 0
; File D:\git\src\IBK\IBK_DRFN\ProjSrc\SrcChartEx\ChartOCX\ChartObject\ChartObjectBaseData.cpp

; 207  : 	if(m_pIChartCtrl == NULL || strPacketNames.IsEmpty())

  00013	74 0c		 je	 SHORT $LN5@SendMessag

; 208  : 		return;
; 209  : 
; 210  : 	m_pIChartCtrl->RequestTRPacket(strGraphName, strPacketNames, nRequestTRCount, bIsNew);

  00015	8b 01		 mov	 eax, DWORD PTR [ecx]
  00017	89 55 0c	 mov	 DWORD PTR _strPacketNames$[ebp], edx

; 790  : 	m_mainAttributes.SendMessageToParent_TRData(strGraphName, strPacketNames, nRequestTRCount, bIsNew);
; 791  : }

  0001a	5d		 pop	 ebp

; 210  : 	m_pIChartCtrl->RequestTRPacket(strGraphName, strPacketNames, nRequestTRCount, bIsNew);

  0001b	ff a0 e4 06 00
	00		 jmp	 DWORD PTR [eax+1764]
$LN5@SendMessag:

; 790  : 	m_mainAttributes.SendMessageToParent_TRData(strGraphName, strPacketNames, nRequestTRCount, bIsNew);
; 791  : }

  00021	5d		 pop	 ebp
  00022	c2 10 00	 ret	 16			; 00000010H
?SendMessageToParent_TRData@CMainBlockBaseData@@QAEXABV?$CStringT@DV?$StrTraitMFC_DLL@DV?$ChTraitsCRT@D@ATL@@@@@ATL@@0H_N@Z ENDP ; CMainBlockBaseData::SendMessageToParent_TRData
_TEXT	ENDS
; Function compile flags: /Ogtp
; File D:\git\src\IBK\IBK_DRFN\ProjSrc\SrcChartEx\ChartOCX\ChartObject\ChartObjectBaseData.cpp
; File C:\Program Files (x86)\Microsoft Visual Studio\2019\Community\VC\Tools\MSVC\14.29.30133\atlmfc\include\atlsimpstr.h
; File D:\git\src\IBK\IBK_DRFN\ProjSrc\SrcChartEx\ChartOCX\ChartObject\ChartObjectBaseData.cpp
;	COMDAT ?SendMessageToParent_TRData@CMainBlockBaseData@@QAEXABV?$CStringT@DV?$StrTraitMFC_DLL@DV?$ChTraitsCRT@D@ATL@@@@@ATL@@0@Z
_TEXT	SEGMENT
_strGraphName$ = 8					; size = 4
_strPacketNames$ = 12					; size = 4
?SendMessageToParent_TRData@CMainBlockBaseData@@QAEXABV?$CStringT@DV?$StrTraitMFC_DLL@DV?$ChTraitsCRT@D@ATL@@@@@ATL@@0@Z PROC ; CMainBlockBaseData::SendMessageToParent_TRData, COMDAT
; _this$ = ecx

; 784  : {

  00000	55		 push	 ebp
  00001	8b ec		 mov	 ebp, esp

; 199  : 	if(m_pIChartCtrl == NULL || strPacketNames.IsEmpty())

  00003	8b 49 0c	 mov	 ecx, DWORD PTR [ecx+12]
  00006	85 c9		 test	 ecx, ecx
  00008	74 17		 je	 SHORT $LN5@SendMessag
; File C:\Program Files (x86)\Microsoft Visual Studio\2019\Community\VC\Tools\MSVC\14.29.30133\atlmfc\include\atlsimpstr.h

; 533  : 		return( GetLength() == 0 );

  0000a	8b 55 0c	 mov	 edx, DWORD PTR _strPacketNames$[ebp]
  0000d	8b 02		 mov	 eax, DWORD PTR [edx]
  0000f	83 78 f4 00	 cmp	 DWORD PTR [eax-12], 0
; File D:\git\src\IBK\IBK_DRFN\ProjSrc\SrcChartEx\ChartOCX\ChartObject\ChartObjectBaseData.cpp

; 199  : 	if(m_pIChartCtrl == NULL || strPacketNames.IsEmpty())

  00013	74 0c		 je	 SHORT $LN5@SendMessag

; 200  : 		return;
; 201  : 
; 202  : 	m_pIChartCtrl->RequestTRPacket(strGraphName, strPacketNames);

  00015	8b 01		 mov	 eax, DWORD PTR [ecx]
  00017	89 55 0c	 mov	 DWORD PTR _strPacketNames$[ebp], edx

; 785  : 	m_mainAttributes.SendMessageToParent_TRData(strGraphName, strPacketNames);
; 786  : }

  0001a	5d		 pop	 ebp

; 202  : 	m_pIChartCtrl->RequestTRPacket(strGraphName, strPacketNames);

  0001b	ff a0 e8 06 00
	00		 jmp	 DWORD PTR [eax+1768]
$LN5@SendMessag:

; 785  : 	m_mainAttributes.SendMessageToParent_TRData(strGraphName, strPacketNames);
; 786  : }

  00021	5d		 pop	 ebp
  00022	c2 08 00	 ret	 8
?SendMessageToParent_TRData@CMainBlockBaseData@@QAEXABV?$CStringT@DV?$StrTraitMFC_DLL@DV?$ChTraitsCRT@D@ATL@@@@@ATL@@0@Z ENDP ; CMainBlockBaseData::SendMessageToParent_TRData
_TEXT	ENDS
; Function compile flags: /Ogtp
; File D:\git\src\IBK\IBK_DRFN\ProjSrc\SrcChartEx\ChartOCX\ChartObject\ChartObjectBaseData.cpp
; File D:\git\src\IBK\IBK_DRFN\ProjSrc\SrcChartEx\ChartOCX\Include_Chart\BlockBaseData.h
; File D:\git\src\IBK\IBK_DRFN\ProjSrc\SrcChartEx\ChartOCX\ChartObject\ChartObjectBaseData.cpp
;	COMDAT ?SendMessageToParent@CMainBlockBaseData@@QAEXABVCBlockBehaviorData@@@Z
_TEXT	SEGMENT
_blockBehaviorData$ = 8					; size = 4
?SendMessageToParent@CMainBlockBaseData@@QAEXABVCBlockBehaviorData@@@Z PROC ; CMainBlockBaseData::SendMessageToParent, COMDAT
; _this$ = ecx

; 774  : {

  00000	55		 push	 ebp
  00001	8b ec		 mov	 ebp, esp

; 179  : 	if(m_pIChartCtrl == NULL || !blockBehaviorData.GetSourceBlockIndex().IsAllValueBiggerThanZero())

  00003	8b 49 0c	 mov	 ecx, DWORD PTR [ecx+12]
  00006	85 c9		 test	 ecx, ecx
  00008	74 1b		 je	 SHORT $LN5@SendMessag
; File D:\git\src\IBK\IBK_DRFN\ProjSrc\SrcChartEx\ChartOCX\Include_Chart\BlockBaseData.h

; 137  : 	CBlockIndex GetSourceBlockIndex() const { return m_sourceBlockIndex; };

  0000a	8b 55 08	 mov	 edx, DWORD PTR _blockBehaviorData$[ebp]
  0000d	83 7a 04 00	 cmp	 DWORD PTR [edx+4], 0

; 30   : 	bool	IsAllValueBiggerThanZero( void) const		{	return ( m_nRow >= 0 && m_nColumn >= 0);	}

  00011	7c 12		 jl	 SHORT $LN5@SendMessag
  00013	83 7a 08 00	 cmp	 DWORD PTR [edx+8], 0
  00017	7c 0c		 jl	 SHORT $LN5@SendMessag
; File D:\git\src\IBK\IBK_DRFN\ProjSrc\SrcChartEx\ChartOCX\ChartObject\ChartObjectBaseData.cpp

; 183  : 	m_pIChartCtrl->BehaviorBlock(long(&blockBehaviorData));

  00019	8b 01		 mov	 eax, DWORD PTR [ecx]
  0001b	89 55 08	 mov	 DWORD PTR _blockBehaviorData$[ebp], edx

; 775  : 	m_mainAttributes.SendMessageToParent(blockBehaviorData);
; 776  : }

  0001e	5d		 pop	 ebp

; 183  : 	m_pIChartCtrl->BehaviorBlock(long(&blockBehaviorData));

  0001f	ff a0 b4 04 00
	00		 jmp	 DWORD PTR [eax+1204]
$LN5@SendMessag:

; 775  : 	m_mainAttributes.SendMessageToParent(blockBehaviorData);
; 776  : }

  00025	5d		 pop	 ebp
  00026	c2 04 00	 ret	 4
?SendMessageToParent@CMainBlockBaseData@@QAEXABVCBlockBehaviorData@@@Z ENDP ; CMainBlockBaseData::SendMessageToParent
_TEXT	ENDS
; Function compile flags: /Ogtp
; File D:\git\src\IBK\IBK_DRFN\ProjSrc\SrcChartEx\ChartOCX\ChartObject\ChartObjectBaseData.cpp
;	COMDAT ?Invalidate@CMainBlockBaseData@@QAEXXZ
_TEXT	SEGMENT
?Invalidate@CMainBlockBaseData@@QAEXXZ PROC		; CMainBlockBaseData::Invalidate, COMDAT
; _this$ = ecx

; 171  : 	if(m_pIChartCtrl == NULL)

  00000	8b 49 0c	 mov	 ecx, DWORD PTR [ecx+12]
  00003	85 c9		 test	 ecx, ecx
  00005	74 0a		 je	 SHORT $LN3@Invalidate

; 172  : 		return;
; 173  : 
; 174  : 	m_pIChartCtrl->InvalidateOCX();

  00007	8b 01		 mov	 eax, DWORD PTR [ecx]
  00009	6a 01		 push	 1
  0000b	ff 90 20 05 00
	00		 call	 DWORD PTR [eax+1312]
$LN3@Invalidate:

; 770  : 	m_mainAttributes.Invalidate();
; 771  : }

  00011	c3		 ret	 0
?Invalidate@CMainBlockBaseData@@QAEXXZ ENDP		; CMainBlockBaseData::Invalidate
_TEXT	ENDS
; Function compile flags: /Ogtp
; File D:\git\src\IBK\IBK_DRFN\ProjSrc\SrcChartEx\ChartOCX\ChartObject\ChartObjectBaseData.cpp
;	COMDAT ?GetDisplayAttributes@CMainBlockBaseData@@QBE?AVCDisplayAttributes@@XZ
_TEXT	SEGMENT
___$ReturnUdt$ = 8					; size = 4
?GetDisplayAttributes@CMainBlockBaseData@@QBE?AVCDisplayAttributes@@XZ PROC ; CMainBlockBaseData::GetDisplayAttributes, COMDAT
; _this$ = ecx

; 763  : {

  00000	55		 push	 ebp
  00001	8b ec		 mov	 ebp, esp

; 548  : 	return m_displayAttributes;

  00003	8b 45 08	 mov	 eax, DWORD PTR ___$ReturnUdt$[ebp]
  00006	8b 91 84 00 00
	00		 mov	 edx, DWORD PTR [ecx+132]
  0000c	8b 89 88 00 00
	00		 mov	 ecx, DWORD PTR [ecx+136]
  00012	89 10		 mov	 DWORD PTR [eax], edx
  00014	89 48 04	 mov	 DWORD PTR [eax+4], ecx

; 764  : 	return m_viewAttributes.GetDisplayAttributes();
; 765  : }

  00017	5d		 pop	 ebp
  00018	c2 04 00	 ret	 4
?GetDisplayAttributes@CMainBlockBaseData@@QBE?AVCDisplayAttributes@@XZ ENDP ; CMainBlockBaseData::GetDisplayAttributes
_TEXT	ENDS
; Function compile flags: /Ogtp
; File D:\git\src\IBK\IBK_DRFN\ProjSrc\SrcChartEx\ChartOCX\ChartObject\ChartObjectBaseData.cpp
;	COMDAT ?GetGraphRegionColor@CMainBlockBaseData@@QBE?AVCGraphRegionColor@@XZ
_TEXT	SEGMENT
___$ReturnUdt$ = 8					; size = 4
?GetGraphRegionColor@CMainBlockBaseData@@QBE?AVCGraphRegionColor@@XZ PROC ; CMainBlockBaseData::GetGraphRegionColor, COMDAT
; _this$ = ecx

; 758  : {

  00000	55		 push	 ebp
  00001	8b ec		 mov	 ebp, esp

; 390  : 	return m_graphRegionColor;

  00003	8b 45 08	 mov	 eax, DWORD PTR ___$ReturnUdt$[ebp]
  00006	f3 0f 7e 41 44	 movq	 xmm0, QWORD PTR [ecx+68]
  0000b	8b 49 4c	 mov	 ecx, DWORD PTR [ecx+76]
  0000e	66 0f d6 00	 movq	 QWORD PTR [eax], xmm0
  00012	89 48 08	 mov	 DWORD PTR [eax+8], ecx

; 759  : 	return m_graphAttributes.GetGraphRegionColor();
; 760  : }

  00015	5d		 pop	 ebp
  00016	c2 04 00	 ret	 4
?GetGraphRegionColor@CMainBlockBaseData@@QBE?AVCGraphRegionColor@@XZ ENDP ; CMainBlockBaseData::GetGraphRegionColor
_TEXT	ENDS
; Function compile flags: /Ogtp
; File D:\git\src\IBK\IBK_DRFN\ProjSrc\SrcChartEx\ChartOCX\ChartObject\ChartObjectBaseData.cpp
;	COMDAT ?GetMaxBlocksCountInView@CMainBlockBaseData@@QBEHXZ
_TEXT	SEGMENT
?GetMaxBlocksCountInView@CMainBlockBaseData@@QBEHXZ PROC ; CMainBlockBaseData::GetMaxBlocksCountInView, COMDAT
; _this$ = ecx

; 754  : 	return m_blockAttributes.GetMaxBlocksCountInView();

  00000	8b 41 30	 mov	 eax, DWORD PTR [ecx+48]

; 755  : }

  00003	c3		 ret	 0
?GetMaxBlocksCountInView@CMainBlockBaseData@@QBEHXZ ENDP ; CMainBlockBaseData::GetMaxBlocksCountInView
_TEXT	ENDS
; Function compile flags: /Ogtp
; File D:\git\src\IBK\IBK_DRFN\ProjSrc\SrcChartEx\ChartOCX\ChartObject\ChartObjectBaseData.cpp
;	COMDAT ?GetBlockCompartType@CMainBlockBaseData@@QBE?AW4BLOCKCOMPART@CBlockBaseData@@XZ
_TEXT	SEGMENT
?GetBlockCompartType@CMainBlockBaseData@@QBE?AW4BLOCKCOMPART@CBlockBaseData@@XZ PROC ; CMainBlockBaseData::GetBlockCompartType, COMDAT
; _this$ = ecx

; 749  : 	return m_blockAttributes.GetBlockCompartType();

  00000	8b 41 2c	 mov	 eax, DWORD PTR [ecx+44]

; 750  : }

  00003	c3		 ret	 0
?GetBlockCompartType@CMainBlockBaseData@@QBE?AW4BLOCKCOMPART@CBlockBaseData@@XZ ENDP ; CMainBlockBaseData::GetBlockCompartType
_TEXT	ENDS
; Function compile flags: /Ogtp
; File D:\git\src\IBK\IBK_DRFN\ProjSrc\SrcChartEx\ChartOCX\ChartObject\ChartObjectBaseData.cpp
;	COMDAT ?GetBlockType@CMainBlockBaseData@@QBE?AW4BLOCKTYPE@CBlockBaseData@@XZ
_TEXT	SEGMENT
?GetBlockType@CMainBlockBaseData@@QBE?AW4BLOCKTYPE@CBlockBaseData@@XZ PROC ; CMainBlockBaseData::GetBlockType, COMDAT
; _this$ = ecx

; 744  : 	return m_blockAttributes.GetBlockType();

  00000	8b 41 28	 mov	 eax, DWORD PTR [ecx+40]

; 745  : }

  00003	c3		 ret	 0
?GetBlockType@CMainBlockBaseData@@QBE?AW4BLOCKTYPE@CBlockBaseData@@XZ ENDP ; CMainBlockBaseData::GetBlockType
_TEXT	ENDS
; Function compile flags: /Ogtp
; File D:\git\src\IBK\IBK_DRFN\ProjSrc\SrcChartEx\ChartOCX\ChartObject\ChartObjectBaseData.cpp
;	COMDAT ?GetMaxVertScaleRegionWidth@CMainBlockBaseData@@QBEHXZ
_TEXT	SEGMENT
$T1 = -12						; size = 12
?GetMaxVertScaleRegionWidth@CMainBlockBaseData@@QBEHXZ PROC ; CMainBlockBaseData::GetMaxVertScaleRegionWidth, COMDAT
; _this$ = ecx

; 738  : {

  00000	55		 push	 ebp
  00001	8b ec		 mov	 ebp, esp
  00003	83 ec 0c	 sub	 esp, 12			; 0000000cH

; 468  : 	return m_scaleRegionAttributes;

  00006	f3 0f 7e 41 6c	 movq	 xmm0, QWORD PTR [ecx+108]
  0000b	8b 41 74	 mov	 eax, DWORD PTR [ecx+116]

; 739  : 	return m_scaleAttributes.GetScaleRegionAttributes().GetMaxVertScaleRegionWidth();

  0000e	8d 4d f4	 lea	 ecx, DWORD PTR $T1[ebp]

; 468  : 	return m_scaleRegionAttributes;

  00011	66 0f d6 45 f4	 movq	 QWORD PTR $T1[ebp], xmm0
  00016	89 45 fc	 mov	 DWORD PTR $T1[ebp+8], eax

; 739  : 	return m_scaleAttributes.GetScaleRegionAttributes().GetMaxVertScaleRegionWidth();

  00019	e8 00 00 00 00	 call	 ?GetMaxVertScaleRegionWidth@CScaleRegionAttributes@@QBEHXZ ; CScaleRegionAttributes::GetMaxVertScaleRegionWidth

; 740  : }

  0001e	8b e5		 mov	 esp, ebp
  00020	5d		 pop	 ebp
  00021	c3		 ret	 0
?GetMaxVertScaleRegionWidth@CMainBlockBaseData@@QBEHXZ ENDP ; CMainBlockBaseData::GetMaxVertScaleRegionWidth
_TEXT	ENDS
; Function compile flags: /Ogtp
; File D:\git\src\IBK\IBK_DRFN\ProjSrc\SrcChartEx\ChartOCX\ChartObject\ChartObjectBaseData.cpp
;	COMDAT ?GetMinVertScaleRegionWidth@CMainBlockBaseData@@QBEHXZ
_TEXT	SEGMENT
$T1 = -12						; size = 12
?GetMinVertScaleRegionWidth@CMainBlockBaseData@@QBEHXZ PROC ; CMainBlockBaseData::GetMinVertScaleRegionWidth, COMDAT
; _this$ = ecx

; 733  : {

  00000	55		 push	 ebp
  00001	8b ec		 mov	 ebp, esp
  00003	83 ec 0c	 sub	 esp, 12			; 0000000cH

; 468  : 	return m_scaleRegionAttributes;

  00006	f3 0f 7e 41 6c	 movq	 xmm0, QWORD PTR [ecx+108]
  0000b	8b 41 74	 mov	 eax, DWORD PTR [ecx+116]

; 734  : 	return m_scaleAttributes.GetScaleRegionAttributes().GetMinVertScaleRegionWidth();

  0000e	8d 4d f4	 lea	 ecx, DWORD PTR $T1[ebp]

; 468  : 	return m_scaleRegionAttributes;

  00011	66 0f d6 45 f4	 movq	 QWORD PTR $T1[ebp], xmm0
  00016	89 45 fc	 mov	 DWORD PTR $T1[ebp+8], eax

; 734  : 	return m_scaleAttributes.GetScaleRegionAttributes().GetMinVertScaleRegionWidth();

  00019	e8 00 00 00 00	 call	 ?GetMinVertScaleRegionWidth@CScaleRegionAttributes@@QBEHXZ ; CScaleRegionAttributes::GetMinVertScaleRegionWidth

; 735  : }

  0001e	8b e5		 mov	 esp, ebp
  00020	5d		 pop	 ebp
  00021	c3		 ret	 0
?GetMinVertScaleRegionWidth@CMainBlockBaseData@@QBEHXZ ENDP ; CMainBlockBaseData::GetMinVertScaleRegionWidth
_TEXT	ENDS
; Function compile flags: /Ogtp
; File D:\git\src\IBK\IBK_DRFN\ProjSrc\SrcChartEx\ChartOCX\ChartObject\ChartObjectBaseData.cpp
;	COMDAT ?GetMinHorzScaleRegionHeight@CMainBlockBaseData@@QBEHXZ
_TEXT	SEGMENT
$T1 = -12						; size = 12
?GetMinHorzScaleRegionHeight@CMainBlockBaseData@@QBEHXZ PROC ; CMainBlockBaseData::GetMinHorzScaleRegionHeight, COMDAT
; _this$ = ecx

; 728  : {

  00000	55		 push	 ebp
  00001	8b ec		 mov	 ebp, esp
  00003	83 ec 0c	 sub	 esp, 12			; 0000000cH

; 468  : 	return m_scaleRegionAttributes;

  00006	f3 0f 7e 41 6c	 movq	 xmm0, QWORD PTR [ecx+108]
  0000b	8b 41 74	 mov	 eax, DWORD PTR [ecx+116]

; 729  : 	return m_scaleAttributes.GetScaleRegionAttributes().GetMinHorzScaleRegionHeight();

  0000e	8d 4d f4	 lea	 ecx, DWORD PTR $T1[ebp]

; 468  : 	return m_scaleRegionAttributes;

  00011	66 0f d6 45 f4	 movq	 QWORD PTR $T1[ebp], xmm0
  00016	89 45 fc	 mov	 DWORD PTR $T1[ebp+8], eax

; 729  : 	return m_scaleAttributes.GetScaleRegionAttributes().GetMinHorzScaleRegionHeight();

  00019	e8 00 00 00 00	 call	 ?GetMinHorzScaleRegionHeight@CScaleRegionAttributes@@QBEHXZ ; CScaleRegionAttributes::GetMinHorzScaleRegionHeight

; 730  : }

  0001e	8b e5		 mov	 esp, ebp
  00020	5d		 pop	 ebp
  00021	c3		 ret	 0
?GetMinHorzScaleRegionHeight@CMainBlockBaseData@@QBEHXZ ENDP ; CMainBlockBaseData::GetMinHorzScaleRegionHeight
_TEXT	ENDS
; Function compile flags: /Ogtp
; File D:\git\src\IBK\IBK_DRFN\ProjSrc\SrcChartEx\ChartOCX\ChartObject\ChartObjectBaseData.cpp
;	COMDAT ?GetGraphRegionFrameThickness@CMainBlockBaseData@@QBEHXZ
_TEXT	SEGMENT
?GetGraphRegionFrameThickness@CMainBlockBaseData@@QBEHXZ PROC ; CMainBlockBaseData::GetGraphRegionFrameThickness, COMDAT
; _this$ = ecx

; 724  : 	return m_graphAttributes.GetGraphRegionFrameThickness();

  00000	8b 41 40	 mov	 eax, DWORD PTR [ecx+64]

; 725  : }

  00003	c3		 ret	 0
?GetGraphRegionFrameThickness@CMainBlockBaseData@@QBEHXZ ENDP ; CMainBlockBaseData::GetGraphRegionFrameThickness
_TEXT	ENDS
; Function compile flags: /Ogtp
; File D:\git\src\IBK\IBK_DRFN\ProjSrc\SrcChartEx\ChartOCX\ChartObject\ChartObjectBaseData.cpp
;	COMDAT ?DoesAutoDeleteIndicatorInfo@CMainBlockBaseData@@QBE_NXZ
_TEXT	SEGMENT
?DoesAutoDeleteIndicatorInfo@CMainBlockBaseData@@QBE_NXZ PROC ; CMainBlockBaseData::DoesAutoDeleteIndicatorInfo, COMDAT
; _this$ = ecx

; 719  : 	return m_graphAttributes.DoesAutoDeleteIndicatorInfo();

  00000	8a 41 37	 mov	 al, BYTE PTR [ecx+55]

; 720  : }

  00003	c3		 ret	 0
?DoesAutoDeleteIndicatorInfo@CMainBlockBaseData@@QBE_NXZ ENDP ; CMainBlockBaseData::DoesAutoDeleteIndicatorInfo
_TEXT	ENDS
; Function compile flags: /Ogtp
; File D:\git\src\IBK\IBK_DRFN\ProjSrc\SrcChartEx\ChartOCX\ChartObject\ChartObjectBaseData.cpp
;	COMDAT ?GetToolBarManager@CMainBlockBaseData@@QBEPAUIToolBarManager@@XZ
_TEXT	SEGMENT
?GetToolBarManager@CMainBlockBaseData@@QBEPAUIToolBarManager@@XZ PROC ; CMainBlockBaseData::GetToolBarManager, COMDAT
; _this$ = ecx

; 714  : 	return m_mainAttributes.GetToolBarManager();

  00000	8b 41 24	 mov	 eax, DWORD PTR [ecx+36]

; 715  : }

  00003	c3		 ret	 0
?GetToolBarManager@CMainBlockBaseData@@QBEPAUIToolBarManager@@XZ ENDP ; CMainBlockBaseData::GetToolBarManager
_TEXT	ENDS
; Function compile flags: /Ogtp
; File D:\git\src\IBK\IBK_DRFN\ProjSrc\SrcChartEx\ChartOCX\ChartObject\ChartObjectBaseData.cpp
;	COMDAT ?GetPacketListManager@CMainBlockBaseData@@QBEPAVCPacketListManager@@XZ
_TEXT	SEGMENT
?GetPacketListManager@CMainBlockBaseData@@QBEPAVCPacketListManager@@XZ PROC ; CMainBlockBaseData::GetPacketListManager, COMDAT
; _this$ = ecx

; 709  : 	return m_mainAttributes.GetPacketListManager();

  00000	8b 41 20	 mov	 eax, DWORD PTR [ecx+32]

; 710  : }

  00003	c3		 ret	 0
?GetPacketListManager@CMainBlockBaseData@@QBEPAVCPacketListManager@@XZ ENDP ; CMainBlockBaseData::GetPacketListManager
_TEXT	ENDS
; Function compile flags: /Ogtp
; File D:\git\src\IBK\IBK_DRFN\ProjSrc\SrcChartEx\ChartOCX\ChartObject\ChartObjectBaseData.cpp
;	COMDAT ?GetXScaleManager@CMainBlockBaseData@@QBEPAVCXScaleManager@@XZ
_TEXT	SEGMENT
?GetXScaleManager@CMainBlockBaseData@@QBEPAVCXScaleManager@@XZ PROC ; CMainBlockBaseData::GetXScaleManager, COMDAT
; _this$ = ecx

; 703  : 	return m_mainAttributes.GetXScaleManager();

  00000	8b 41 1c	 mov	 eax, DWORD PTR [ecx+28]

; 704  : }

  00003	c3		 ret	 0
?GetXScaleManager@CMainBlockBaseData@@QBEPAVCXScaleManager@@XZ ENDP ; CMainBlockBaseData::GetXScaleManager
_TEXT	ENDS
; Function compile flags: /Ogtp
; File D:\git\src\IBK\IBK_DRFN\ProjSrc\SrcChartEx\ChartOCX\ChartObject\ChartObjectBaseData.cpp
;	COMDAT ?GetIndicatorList@CMainBlockBaseData@@QBEPAVCIndicatorList@@XZ
_TEXT	SEGMENT
?GetIndicatorList@CMainBlockBaseData@@QBEPAVCIndicatorList@@XZ PROC ; CMainBlockBaseData::GetIndicatorList, COMDAT
; _this$ = ecx

; 698  : 	return m_mainAttributes.GetIndicatorList();

  00000	8b 41 14	 mov	 eax, DWORD PTR [ecx+20]

; 699  : }

  00003	c3		 ret	 0
?GetIndicatorList@CMainBlockBaseData@@QBEPAVCIndicatorList@@XZ ENDP ; CMainBlockBaseData::GetIndicatorList
_TEXT	ENDS
; Function compile flags: /Ogtp
; File D:\git\src\IBK\IBK_DRFN\ProjSrc\SrcChartEx\ChartOCX\ChartObject\ChartObjectBaseData.cpp
;	COMDAT ?GetPacketList@CMainBlockBaseData@@QBEPAVCPacketList@@XZ
_TEXT	SEGMENT
?GetPacketList@CMainBlockBaseData@@QBEPAVCPacketList@@XZ PROC ; CMainBlockBaseData::GetPacketList, COMDAT
; _this$ = ecx

; 693  : 	return m_mainAttributes.GetPacketList();

  00000	8b 41 10	 mov	 eax, DWORD PTR [ecx+16]

; 694  : }

  00003	c3		 ret	 0
?GetPacketList@CMainBlockBaseData@@QBEPAVCPacketList@@XZ ENDP ; CMainBlockBaseData::GetPacketList
_TEXT	ENDS
; Function compile flags: /Ogtp
; File D:\git\src\IBK\IBK_DRFN\ProjSrc\SrcChartEx\ChartOCX\ChartObject\ChartObjectBaseData.cpp
;	COMDAT ?GetParent_Handle@CMainBlockBaseData@@QBEPAUHWND__@@XZ
_TEXT	SEGMENT
?GetParent_Handle@CMainBlockBaseData@@QBEPAUHWND__@@XZ PROC ; CMainBlockBaseData::GetParent_Handle, COMDAT
; _this$ = ecx

; 121  : 	if(m_pIChartCtrl == NULL)

  00000	8b 49 0c	 mov	 ecx, DWORD PTR [ecx+12]
  00003	85 c9		 test	 ecx, ecx
  00005	75 03		 jne	 SHORT $LN4@GetParent_

; 688  : 	return m_mainAttributes.GetParent_Handle();

  00007	33 c0		 xor	 eax, eax

; 689  : }

  00009	c3		 ret	 0
$LN4@GetParent_:

; 124  : 	return m_pIChartCtrl->GetWndHandle();

  0000a	8b 01		 mov	 eax, DWORD PTR [ecx]
  0000c	ff a0 a0 03 00
	00		 jmp	 DWORD PTR [eax+928]
?GetParent_Handle@CMainBlockBaseData@@QBEPAUHWND__@@XZ ENDP ; CMainBlockBaseData::GetParent_Handle
_TEXT	ENDS
; Function compile flags: /Ogtp
; File D:\git\src\IBK\IBK_DRFN\ProjSrc\SrcChartEx\ChartOCX\ChartObject\ChartObjectBaseData.cpp
;	COMDAT ?GetParentWnd@CMainBlockBaseData@@QBEPAVCWnd@@XZ
_TEXT	SEGMENT
?GetParentWnd@CMainBlockBaseData@@QBEPAVCWnd@@XZ PROC	; CMainBlockBaseData::GetParentWnd, COMDAT
; _this$ = ecx

; 113  : 	if(m_pIChartCtrl == NULL)

  00000	8b 49 0c	 mov	 ecx, DWORD PTR [ecx+12]
  00003	85 c9		 test	 ecx, ecx
  00005	75 03		 jne	 SHORT $LN4@GetParentW

; 683  : 	return m_mainAttributes.GetParentWnd();

  00007	33 c0		 xor	 eax, eax

; 684  : }

  00009	c3		 ret	 0
$LN4@GetParentW:

; 116  : 	return m_pIChartCtrl->GetChartWindowPointer();

  0000a	8b 01		 mov	 eax, DWORD PTR [ecx]
  0000c	ff a0 80 03 00
	00		 jmp	 DWORD PTR [eax+896]
?GetParentWnd@CMainBlockBaseData@@QBEPAVCWnd@@XZ ENDP	; CMainBlockBaseData::GetParentWnd
_TEXT	ENDS
; Function compile flags: /Ogtp
; File D:\git\src\IBK\IBK_DRFN\ProjSrc\SrcChartEx\ChartOCX\ChartObject\ChartObjectBaseData.cpp
;	COMDAT ?GetViewAttributes@CMainBlockBaseData@@QAEAAVCViewAttributes@@XZ
_TEXT	SEGMENT
?GetViewAttributes@CMainBlockBaseData@@QAEAAVCViewAttributes@@XZ PROC ; CMainBlockBaseData::GetViewAttributes, COMDAT
; _this$ = ecx

; 677  : 	return m_viewAttributes;

  00000	8d 81 84 00 00
	00		 lea	 eax, DWORD PTR [ecx+132]

; 678  : }

  00006	c3		 ret	 0
?GetViewAttributes@CMainBlockBaseData@@QAEAAVCViewAttributes@@XZ ENDP ; CMainBlockBaseData::GetViewAttributes
_TEXT	ENDS
; Function compile flags: /Ogtp
; File D:\git\src\IBK\IBK_DRFN\ProjSrc\SrcChartEx\ChartOCX\ChartObject\ChartObjectBaseData.cpp
;	COMDAT ?GetViewAttributes@CMainBlockBaseData@@QBE?AVCViewAttributes@@XZ
_TEXT	SEGMENT
___$ReturnUdt$ = 8					; size = 4
?GetViewAttributes@CMainBlockBaseData@@QBE?AVCViewAttributes@@XZ PROC ; CMainBlockBaseData::GetViewAttributes, COMDAT
; _this$ = ecx

; 671  : {

  00000	55		 push	 ebp
  00001	8b ec		 mov	 ebp, esp

; 672  : 	return m_viewAttributes;

  00003	8b 45 08	 mov	 eax, DWORD PTR ___$ReturnUdt$[ebp]
  00006	0f 10 81 84 00
	00 00		 movups	 xmm0, XMMWORD PTR [ecx+132]
  0000d	8b 89 94 00 00
	00		 mov	 ecx, DWORD PTR [ecx+148]
  00013	0f 11 00	 movups	 XMMWORD PTR [eax], xmm0
  00016	89 48 10	 mov	 DWORD PTR [eax+16], ecx

; 673  : }

  00019	5d		 pop	 ebp
  0001a	c2 04 00	 ret	 4
?GetViewAttributes@CMainBlockBaseData@@QBE?AVCViewAttributes@@XZ ENDP ; CMainBlockBaseData::GetViewAttributes
_TEXT	ENDS
; Function compile flags: /Ogtp
; File D:\git\src\IBK\IBK_DRFN\ProjSrc\SrcChartEx\ChartOCX\ChartObject\ChartObjectBaseData.cpp
;	COMDAT ?GetScaleAttributes@CMainBlockBaseData@@QAEAAVCScaleAttributes@@XZ
_TEXT	SEGMENT
?GetScaleAttributes@CMainBlockBaseData@@QAEAAVCScaleAttributes@@XZ PROC ; CMainBlockBaseData::GetScaleAttributes, COMDAT
; _this$ = ecx

; 667  : 	return m_scaleAttributes;

  00000	8d 41 68	 lea	 eax, DWORD PTR [ecx+104]

; 668  : }

  00003	c3		 ret	 0
?GetScaleAttributes@CMainBlockBaseData@@QAEAAVCScaleAttributes@@XZ ENDP ; CMainBlockBaseData::GetScaleAttributes
_TEXT	ENDS
; Function compile flags: /Ogtp
; File D:\git\src\IBK\IBK_DRFN\ProjSrc\SrcChartEx\ChartOCX\ChartObject\ChartObjectBaseData.cpp
;	COMDAT ?GetScaleAttributes@CMainBlockBaseData@@QBE?AVCScaleAttributes@@XZ
_TEXT	SEGMENT
___$ReturnUdt$ = 8					; size = 4
?GetScaleAttributes@CMainBlockBaseData@@QBE?AVCScaleAttributes@@XZ PROC ; CMainBlockBaseData::GetScaleAttributes, COMDAT
; _this$ = ecx

; 661  : {

  00000	55		 push	 ebp
  00001	8b ec		 mov	 ebp, esp

; 662  : 	return m_scaleAttributes;

  00003	8b 45 08	 mov	 eax, DWORD PTR ___$ReturnUdt$[ebp]
  00006	0f 10 41 68	 movups	 xmm0, XMMWORD PTR [ecx+104]
  0000a	0f 11 00	 movups	 XMMWORD PTR [eax], xmm0
  0000d	f3 0f 7e 41 78	 movq	 xmm0, QWORD PTR [ecx+120]
  00012	8b 89 80 00 00
	00		 mov	 ecx, DWORD PTR [ecx+128]
  00018	66 0f d6 40 10	 movq	 QWORD PTR [eax+16], xmm0
  0001d	89 48 18	 mov	 DWORD PTR [eax+24], ecx

; 663  : }

  00020	5d		 pop	 ebp
  00021	c2 04 00	 ret	 4
?GetScaleAttributes@CMainBlockBaseData@@QBE?AVCScaleAttributes@@XZ ENDP ; CMainBlockBaseData::GetScaleAttributes
_TEXT	ENDS
; Function compile flags: /Ogtp
; File D:\git\src\IBK\IBK_DRFN\ProjSrc\SrcChartEx\ChartOCX\ChartObject\ChartObjectBaseData.cpp
;	COMDAT ?GetGraphAttributes@CMainBlockBaseData@@QAEAAVCGraphAttributes@@XZ
_TEXT	SEGMENT
?GetGraphAttributes@CMainBlockBaseData@@QAEAAVCGraphAttributes@@XZ PROC ; CMainBlockBaseData::GetGraphAttributes, COMDAT
; _this$ = ecx

; 657  : 	return m_graphAttributes;

  00000	8d 41 34	 lea	 eax, DWORD PTR [ecx+52]

; 658  : }

  00003	c3		 ret	 0
?GetGraphAttributes@CMainBlockBaseData@@QAEAAVCGraphAttributes@@XZ ENDP ; CMainBlockBaseData::GetGraphAttributes
_TEXT	ENDS
; Function compile flags: /Ogtp
; File D:\git\src\IBK\IBK_DRFN\ProjSrc\SrcChartEx\ChartOCX\ChartObject\ChartObjectBaseData.cpp
;	COMDAT ?GetGraphAttributes@CMainBlockBaseData@@QBE?AVCGraphAttributes@@XZ
_TEXT	SEGMENT
___$ReturnUdt$ = 8					; size = 4
?GetGraphAttributes@CMainBlockBaseData@@QBE?AVCGraphAttributes@@XZ PROC ; CMainBlockBaseData::GetGraphAttributes, COMDAT
; _this$ = ecx

; 651  : {

  00000	55		 push	 ebp
  00001	8b ec		 mov	 ebp, esp

; 652  : 	return m_graphAttributes;

  00003	8b 45 08	 mov	 eax, DWORD PTR ___$ReturnUdt$[ebp]
  00006	0f 10 41 34	 movups	 xmm0, XMMWORD PTR [ecx+52]
  0000a	0f 11 00	 movups	 XMMWORD PTR [eax], xmm0
  0000d	0f 10 41 44	 movups	 xmm0, XMMWORD PTR [ecx+68]
  00011	0f 11 40 10	 movups	 XMMWORD PTR [eax+16], xmm0
  00015	0f 10 41 54	 movups	 xmm0, XMMWORD PTR [ecx+84]
  00019	8b 49 64	 mov	 ecx, DWORD PTR [ecx+100]
  0001c	0f 11 40 20	 movups	 XMMWORD PTR [eax+32], xmm0
  00020	89 48 30	 mov	 DWORD PTR [eax+48], ecx

; 653  : }

  00023	5d		 pop	 ebp
  00024	c2 04 00	 ret	 4
?GetGraphAttributes@CMainBlockBaseData@@QBE?AVCGraphAttributes@@XZ ENDP ; CMainBlockBaseData::GetGraphAttributes
_TEXT	ENDS
; Function compile flags: /Ogtp
; File D:\git\src\IBK\IBK_DRFN\ProjSrc\SrcChartEx\ChartOCX\ChartObject\ChartObjectBaseData.cpp
;	COMDAT ?GetBlockAttributes@CMainBlockBaseData@@QAEAAVCBlockAttributes@@XZ
_TEXT	SEGMENT
?GetBlockAttributes@CMainBlockBaseData@@QAEAAVCBlockAttributes@@XZ PROC ; CMainBlockBaseData::GetBlockAttributes, COMDAT
; _this$ = ecx

; 647  : 	return m_blockAttributes;

  00000	8d 41 28	 lea	 eax, DWORD PTR [ecx+40]

; 648  : }

  00003	c3		 ret	 0
?GetBlockAttributes@CMainBlockBaseData@@QAEAAVCBlockAttributes@@XZ ENDP ; CMainBlockBaseData::GetBlockAttributes
_TEXT	ENDS
; Function compile flags: /Ogtp
; File D:\git\src\IBK\IBK_DRFN\ProjSrc\SrcChartEx\ChartOCX\ChartObject\ChartObjectBaseData.cpp
;	COMDAT ?GetBlockAttributes@CMainBlockBaseData@@QBE?AVCBlockAttributes@@XZ
_TEXT	SEGMENT
___$ReturnUdt$ = 8					; size = 4
?GetBlockAttributes@CMainBlockBaseData@@QBE?AVCBlockAttributes@@XZ PROC ; CMainBlockBaseData::GetBlockAttributes, COMDAT
; _this$ = ecx

; 641  : {

  00000	55		 push	 ebp
  00001	8b ec		 mov	 ebp, esp

; 642  : 	return m_blockAttributes;

  00003	8b 45 08	 mov	 eax, DWORD PTR ___$ReturnUdt$[ebp]
  00006	f3 0f 7e 41 28	 movq	 xmm0, QWORD PTR [ecx+40]
  0000b	8b 49 30	 mov	 ecx, DWORD PTR [ecx+48]
  0000e	66 0f d6 00	 movq	 QWORD PTR [eax], xmm0
  00012	89 48 08	 mov	 DWORD PTR [eax+8], ecx

; 643  : }

  00015	5d		 pop	 ebp
  00016	c2 04 00	 ret	 4
?GetBlockAttributes@CMainBlockBaseData@@QBE?AVCBlockAttributes@@XZ ENDP ; CMainBlockBaseData::GetBlockAttributes
_TEXT	ENDS
; Function compile flags: /Ogtp
; File D:\git\src\IBK\IBK_DRFN\ProjSrc\SrcChartEx\ChartOCX\ChartObject\ChartObjectBaseData.cpp
;	COMDAT ?GetMainAttributes@CMainBlockBaseData@@QAEAAVCMainAttributes@@XZ
_TEXT	SEGMENT
?GetMainAttributes@CMainBlockBaseData@@QAEAAVCMainAttributes@@XZ PROC ; CMainBlockBaseData::GetMainAttributes, COMDAT
; _this$ = ecx

; 637  : 	return m_mainAttributes;

  00000	8b c1		 mov	 eax, ecx

; 638  : }

  00002	c3		 ret	 0
?GetMainAttributes@CMainBlockBaseData@@QAEAAVCMainAttributes@@XZ ENDP ; CMainBlockBaseData::GetMainAttributes
_TEXT	ENDS
; Function compile flags: /Ogtp
; File D:\git\src\IBK\IBK_DRFN\ProjSrc\SrcChartEx\ChartOCX\ChartObject\ChartObjectBaseData.cpp
;	COMDAT ?GetMainAttributes@CMainBlockBaseData@@QBE?AVCMainAttributes@@XZ
_TEXT	SEGMENT
___$ReturnUdt$ = 8					; size = 4
?GetMainAttributes@CMainBlockBaseData@@QBE?AVCMainAttributes@@XZ PROC ; CMainBlockBaseData::GetMainAttributes, COMDAT
; _this$ = ecx

; 631  : {

  00000	55		 push	 ebp
  00001	8b ec		 mov	 ebp, esp
  00003	56		 push	 esi
  00004	8b 75 08	 mov	 esi, DWORD PTR ___$ReturnUdt$[ebp]
  00007	57		 push	 edi
  00008	8b f9		 mov	 edi, ecx
  0000a	8d 4e 04	 lea	 ecx, DWORD PTR [esi+4]
  0000d	8a 07		 mov	 al, BYTE PTR [edi]
  0000f	88 06		 mov	 BYTE PTR [esi], al
  00011	8d 47 04	 lea	 eax, DWORD PTR [edi+4]
  00014	50		 push	 eax
  00015	ff 15 00 00 00
	00		 call	 DWORD PTR __imp_??0?$CStringT@DV?$StrTraitMFC_DLL@DV?$ChTraitsCRT@D@ATL@@@@@ATL@@QAE@ABV01@@Z
  0001b	8b 47 08	 mov	 eax, DWORD PTR [edi+8]
  0001e	89 46 08	 mov	 DWORD PTR [esi+8], eax
  00021	8b 47 0c	 mov	 eax, DWORD PTR [edi+12]
  00024	89 46 0c	 mov	 DWORD PTR [esi+12], eax
  00027	8b 47 10	 mov	 eax, DWORD PTR [edi+16]
  0002a	89 46 10	 mov	 DWORD PTR [esi+16], eax

; 632  : 	return m_mainAttributes;

  0002d	8b c6		 mov	 eax, esi
  0002f	8b 4f 14	 mov	 ecx, DWORD PTR [edi+20]
  00032	89 4e 14	 mov	 DWORD PTR [esi+20], ecx
  00035	8b 4f 18	 mov	 ecx, DWORD PTR [edi+24]
  00038	89 4e 18	 mov	 DWORD PTR [esi+24], ecx
  0003b	8b 4f 1c	 mov	 ecx, DWORD PTR [edi+28]
  0003e	89 4e 1c	 mov	 DWORD PTR [esi+28], ecx
  00041	8b 4f 20	 mov	 ecx, DWORD PTR [edi+32]
  00044	89 4e 20	 mov	 DWORD PTR [esi+32], ecx
  00047	8b 4f 24	 mov	 ecx, DWORD PTR [edi+36]
  0004a	5f		 pop	 edi
  0004b	89 4e 24	 mov	 DWORD PTR [esi+36], ecx
  0004e	5e		 pop	 esi

; 633  : }

  0004f	5d		 pop	 ebp
  00050	c2 04 00	 ret	 4
?GetMainAttributes@CMainBlockBaseData@@QBE?AVCMainAttributes@@XZ ENDP ; CMainBlockBaseData::GetMainAttributes
_TEXT	ENDS
; Function compile flags: /Ogtp
; File D:\git\src\IBK\IBK_DRFN\ProjSrc\SrcChartEx\ChartOCX\ChartObject\ChartObjectBaseData.cpp
;	COMDAT ?SetMaxVertScaleRegionWidth@CMainBlockBaseData@@QAEXH@Z
_TEXT	SEGMENT
_maxVertScaleRegionWidth$ = 8				; size = 4
?SetMaxVertScaleRegionWidth@CMainBlockBaseData@@QAEXH@Z PROC ; CMainBlockBaseData::SetMaxVertScaleRegionWidth, COMDAT
; _this$ = ecx

; 625  : {

  00000	55		 push	 ebp
  00001	8b ec		 mov	 ebp, esp

; 626  : 	m_scaleAttributes.GetScaleRegionAttributes().SetMaxVertScaleRegionWidth(maxVertScaleRegionWidth);

  00003	83 c1 6c	 add	 ecx, 108		; 0000006cH

; 627  : }

  00006	5d		 pop	 ebp

; 626  : 	m_scaleAttributes.GetScaleRegionAttributes().SetMaxVertScaleRegionWidth(maxVertScaleRegionWidth);

  00007	e9 00 00 00 00	 jmp	 ?SetMaxVertScaleRegionWidth@CScaleRegionAttributes@@QAEXH@Z ; CScaleRegionAttributes::SetMaxVertScaleRegionWidth
?SetMaxVertScaleRegionWidth@CMainBlockBaseData@@QAEXH@Z ENDP ; CMainBlockBaseData::SetMaxVertScaleRegionWidth
_TEXT	ENDS
; Function compile flags: /Ogtp
; File D:\git\src\IBK\IBK_DRFN\ProjSrc\SrcChartEx\ChartOCX\ChartObject\ChartObjectBaseData.cpp
;	COMDAT ?SetMinVertScaleRegionWidth@CMainBlockBaseData@@QAEXH@Z
_TEXT	SEGMENT
_minVertScaleRegionWidth$ = 8				; size = 4
?SetMinVertScaleRegionWidth@CMainBlockBaseData@@QAEXH@Z PROC ; CMainBlockBaseData::SetMinVertScaleRegionWidth, COMDAT
; _this$ = ecx

; 619  : {

  00000	55		 push	 ebp
  00001	8b ec		 mov	 ebp, esp

; 620  : 	m_scaleAttributes.GetScaleRegionAttributes().SetMinVertScaleRegionWidth(minVertScaleRegionWidth);

  00003	83 c1 6c	 add	 ecx, 108		; 0000006cH

; 621  : }

  00006	5d		 pop	 ebp

; 620  : 	m_scaleAttributes.GetScaleRegionAttributes().SetMinVertScaleRegionWidth(minVertScaleRegionWidth);

  00007	e9 00 00 00 00	 jmp	 ?SetMinVertScaleRegionWidth@CScaleRegionAttributes@@QAEXH@Z ; CScaleRegionAttributes::SetMinVertScaleRegionWidth
?SetMinVertScaleRegionWidth@CMainBlockBaseData@@QAEXH@Z ENDP ; CMainBlockBaseData::SetMinVertScaleRegionWidth
_TEXT	ENDS
; Function compile flags: /Ogtp
; File D:\git\src\IBK\IBK_DRFN\ProjSrc\SrcChartEx\ChartOCX\ChartObject\ChartObjectBaseData.cpp
;	COMDAT ?SetMinHorzScaleRegionHeight@CMainBlockBaseData@@QAEXH@Z
_TEXT	SEGMENT
_minHorzScaleRegionHeight$ = 8				; size = 4
?SetMinHorzScaleRegionHeight@CMainBlockBaseData@@QAEXH@Z PROC ; CMainBlockBaseData::SetMinHorzScaleRegionHeight, COMDAT
; _this$ = ecx

; 613  : {

  00000	55		 push	 ebp
  00001	8b ec		 mov	 ebp, esp

; 614  : 	m_scaleAttributes.GetScaleRegionAttributes().SetMinHorzScaleRegionHeight(minHorzScaleRegionHeight);

  00003	83 c1 6c	 add	 ecx, 108		; 0000006cH

; 615  : }

  00006	5d		 pop	 ebp

; 614  : 	m_scaleAttributes.GetScaleRegionAttributes().SetMinHorzScaleRegionHeight(minHorzScaleRegionHeight);

  00007	e9 00 00 00 00	 jmp	 ?SetMinHorzScaleRegionHeight@CScaleRegionAttributes@@QAEXH@Z ; CScaleRegionAttributes::SetMinHorzScaleRegionHeight
?SetMinHorzScaleRegionHeight@CMainBlockBaseData@@QAEXH@Z ENDP ; CMainBlockBaseData::SetMinHorzScaleRegionHeight
_TEXT	ENDS
; Function compile flags: /Ogtp
; File D:\git\src\IBK\IBK_DRFN\ProjSrc\SrcChartEx\ChartOCX\ChartObject\ChartObjectBaseData.cpp
;	COMDAT ??4CMainBlockBaseData@@QAEAAV0@ABV0@@Z
_TEXT	SEGMENT
$T2 = -172						; size = 52
$T3 = -120						; size = 28
$T4 = -92						; size = 20
$T5 = -72						; size = 12
$T6 = -60						; size = 8
$T7 = -52						; size = 40
$T8 = -36						; size = 24
$T9 = -24						; size = 12
$T10 = -24						; size = 12
__$EHRec$ = -12						; size = 12
$T11 = 8						; size = 4
$T12 = 8						; size = 4
_data$ = 8						; size = 4
??4CMainBlockBaseData@@QAEAAV0@ABV0@@Z PROC		; CMainBlockBaseData::operator=, COMDAT
; _this$ = ecx

; 588  : {

  00000	55		 push	 ebp
  00001	8b ec		 mov	 ebp, esp
  00003	6a ff		 push	 -1
  00005	68 00 00 00 00	 push	 __ehhandler$??4CMainBlockBaseData@@QAEAAV0@ABV0@@Z
  0000a	64 a1 00 00 00
	00		 mov	 eax, DWORD PTR fs:0
  00010	50		 push	 eax
  00011	81 ec a0 00 00
	00		 sub	 esp, 160		; 000000a0H
  00017	56		 push	 esi
  00018	57		 push	 edi
  00019	a1 00 00 00 00	 mov	 eax, DWORD PTR ___security_cookie
  0001e	33 c5		 xor	 eax, ebp
  00020	50		 push	 eax
  00021	8d 45 f4	 lea	 eax, DWORD PTR __$EHRec$[ebp]
  00024	64 a3 00 00 00
	00		 mov	 DWORD PTR fs:0, eax
  0002a	8b f9		 mov	 edi, ecx

; 589  : 	if(this == &data)

  0002c	8b 75 08	 mov	 esi, DWORD PTR _data$[ebp]
  0002f	3b fe		 cmp	 edi, esi
  00031	0f 84 4d 02 00
	00		 je	 $LN54@operator

; 590  : 		return *this;
; 591  : 
; 592  : 	m_mainAttributes = data.GetMainAttributes();

  00037	8a 06		 mov	 al, BYTE PTR [esi]
  00039	8d 4d d0	 lea	 ecx, DWORD PTR $T7[ebp+4]
  0003c	88 45 cc	 mov	 BYTE PTR $T7[ebp], al
  0003f	8d 46 04	 lea	 eax, DWORD PTR [esi+4]
  00042	50		 push	 eax
  00043	ff 15 00 00 00
	00		 call	 DWORD PTR __imp_??0?$CStringT@DV?$StrTraitMFC_DLL@DV?$ChTraitsCRT@D@ATL@@@@@ATL@@QAE@ABV01@@Z
  00049	8b 46 10	 mov	 eax, DWORD PTR [esi+16]
  0004c	8b 4e 08	 mov	 ecx, DWORD PTR [esi+8]
  0004f	8b 56 0c	 mov	 edx, DWORD PTR [esi+12]
  00052	89 45 dc	 mov	 DWORD PTR $T7[ebp+16], eax
  00055	8b 46 14	 mov	 eax, DWORD PTR [esi+20]
  00058	89 45 e0	 mov	 DWORD PTR $T7[ebp+20], eax
  0005b	8b 46 18	 mov	 eax, DWORD PTR [esi+24]
  0005e	89 45 e4	 mov	 DWORD PTR $T7[ebp+24], eax
  00061	8b 46 1c	 mov	 eax, DWORD PTR [esi+28]
  00064	89 45 e8	 mov	 DWORD PTR $T7[ebp+28], eax
  00067	8b 46 20	 mov	 eax, DWORD PTR [esi+32]
  0006a	89 45 ec	 mov	 DWORD PTR $T7[ebp+32], eax
  0006d	8b 46 24	 mov	 eax, DWORD PTR [esi+36]
  00070	89 4d d4	 mov	 DWORD PTR $T7[ebp+8], ecx
  00073	89 55 d8	 mov	 DWORD PTR $T7[ebp+12], edx
  00076	89 45 f0	 mov	 DWORD PTR $T7[ebp+36], eax

; 18   : 	if(this == &data)

  00079	8d 45 cc	 lea	 eax, DWORD PTR $T7[ebp]

; 590  : 		return *this;
; 591  : 
; 592  : 	m_mainAttributes = data.GetMainAttributes();

  0007c	c7 45 fc 00 00
	00 00		 mov	 DWORD PTR __$EHRec$[ebp+8], 0

; 18   : 	if(this == &data)

  00083	3b f8		 cmp	 edi, eax
  00085	74 56		 je	 SHORT $LN12@operator

; 23   : 	m_bDesignMode = data.IsDesignMode();

  00087	8a 45 cc	 mov	 al, BYTE PTR $T7[ebp]
  0008a	88 07		 mov	 BYTE PTR [edi], al

; 134  : 	return m_strOCXPath;

  0008c	8d 45 d0	 lea	 eax, DWORD PTR $T7[ebp+4]

; 21   : 	m_pMainBlockImpl = data.GetMainBlockImpl();

  0008f	89 4f 08	 mov	 DWORD PTR [edi+8], ecx

; 134  : 	return m_strOCXPath;

  00092	8d 4d 08	 lea	 ecx, DWORD PTR $T12[ebp]
  00095	50		 push	 eax

; 22   : 	m_pIChartCtrl = data.GetIChartCtrl();

  00096	89 57 0c	 mov	 DWORD PTR [edi+12], edx

; 134  : 	return m_strOCXPath;

  00099	ff 15 00 00 00
	00		 call	 DWORD PTR __imp_??0?$CStringT@DV?$StrTraitMFC_DLL@DV?$ChTraitsCRT@D@ATL@@@@@ATL@@QAE@ABV01@@Z

; 24   : 	m_strOCXPath = data.GetOCXPath();

  0009f	8d 45 08	 lea	 eax, DWORD PTR $T12[ebp]
  000a2	c6 45 fc 01	 mov	 BYTE PTR __$EHRec$[ebp+8], 1
  000a6	50		 push	 eax
  000a7	8d 4f 04	 lea	 ecx, DWORD PTR [edi+4]
  000aa	ff 15 00 00 00
	00		 call	 DWORD PTR __imp_??4?$CStringT@DV?$StrTraitMFC_DLL@DV?$ChTraitsCRT@D@ATL@@@@@ATL@@QAEAAV01@ABV01@@Z
  000b0	8d 4d 08	 lea	 ecx, DWORD PTR $T12[ebp]
  000b3	ff 15 00 00 00
	00		 call	 DWORD PTR __imp_??1?$CStringT@DV?$StrTraitMFC_DLL@DV?$ChTraitsCRT@D@ATL@@@@@ATL@@QAE@XZ

; 25   : 	m_pPacketList = data.GetPacketList();

  000b9	8b 45 dc	 mov	 eax, DWORD PTR $T7[ebp+16]
  000bc	89 47 10	 mov	 DWORD PTR [edi+16], eax

; 26   : 	m_pIndicatorList = data.GetIndicatorList();

  000bf	8b 45 e0	 mov	 eax, DWORD PTR $T7[ebp+20]
  000c2	89 47 14	 mov	 DWORD PTR [edi+20], eax

; 27   : 	m_pMainChartFormulate = data.GetMainChartFormulate();

  000c5	8b 45 e4	 mov	 eax, DWORD PTR $T7[ebp+24]
  000c8	89 47 18	 mov	 DWORD PTR [edi+24], eax

; 28   : 	m_pxScaleManager = data.GetXScaleManager();

  000cb	8b 45 e8	 mov	 eax, DWORD PTR $T7[ebp+28]
  000ce	89 47 1c	 mov	 DWORD PTR [edi+28], eax

; 29   : 	m_pPacketListManager = data.GetPacketListManager();

  000d1	8b 45 ec	 mov	 eax, DWORD PTR $T7[ebp+32]
  000d4	89 47 20	 mov	 DWORD PTR [edi+32], eax

; 30   : 	m_pToolBarManager = data.GetToolBarManager();

  000d7	8b 45 f0	 mov	 eax, DWORD PTR $T7[ebp+36]
  000da	89 47 24	 mov	 DWORD PTR [edi+36], eax
$LN12@operator:
  000dd	8d 4d d0	 lea	 ecx, DWORD PTR $T7[ebp+4]

; 590  : 		return *this;
; 591  : 
; 592  : 	m_mainAttributes = data.GetMainAttributes();

  000e0	c7 45 fc ff ff
	ff ff		 mov	 DWORD PTR __$EHRec$[ebp+8], -1
  000e7	ff 15 00 00 00
	00		 call	 DWORD PTR __imp_??1?$CStringT@DV?$StrTraitMFC_DLL@DV?$ChTraitsCRT@D@ATL@@@@@ATL@@QAE@XZ

; 642  : 	return m_blockAttributes;

  000ed	f3 0f 7e 46 28	 movq	 xmm0, QWORD PTR [esi+40]

; 593  : 	m_blockAttributes = data.GetBlockAttributes();

  000f2	8d 4f 28	 lea	 ecx, DWORD PTR [edi+40]

; 642  : 	return m_blockAttributes;

  000f5	8b 56 30	 mov	 edx, DWORD PTR [esi+48]

; 236  : 	if(this == &data)

  000f8	8d 45 b8	 lea	 eax, DWORD PTR $T5[ebp]

; 642  : 	return m_blockAttributes;

  000fb	66 0f d6 45 b8	 movq	 QWORD PTR $T5[ebp], xmm0

; 236  : 	if(this == &data)

  00100	3b c8		 cmp	 ecx, eax
  00102	74 0e		 je	 SHORT $LN25@operator

; 237  : 		return *this;
; 238  : 
; 239  : 	m_eBlockType = data.GetBlockType();

  00104	8b 45 b8	 mov	 eax, DWORD PTR $T5[ebp]
  00107	89 01		 mov	 DWORD PTR [ecx], eax

; 240  : 	m_eBlockCompartType = data.GetBlockCompartType();

  00109	8b 45 bc	 mov	 eax, DWORD PTR $T5[ebp+4]
  0010c	89 41 04	 mov	 DWORD PTR [ecx+4], eax

; 241  : 	m_nMaxBlocksCountInView = data.GetMaxBlocksCountInView();

  0010f	89 51 08	 mov	 DWORD PTR [ecx+8], edx
$LN25@operator:

; 652  : 	return m_graphAttributes;

  00112	0f 10 46 34	 movups	 xmm0, XMMWORD PTR [esi+52]
  00116	8b 46 64	 mov	 eax, DWORD PTR [esi+100]

; 594  : 	m_graphAttributes = data.GetGraphAttributes();

  00119	8d 57 34	 lea	 edx, DWORD PTR [edi+52]

; 652  : 	return m_graphAttributes;

  0011c	0f 10 4e 44	 movups	 xmm1, XMMWORD PTR [esi+68]
  00120	89 45 84	 mov	 DWORD PTR $T2[ebp+48], eax

; 289  : 	if(this == &data)

  00123	8d 85 54 ff ff
	ff		 lea	 eax, DWORD PTR $T2[ebp]

; 652  : 	return m_graphAttributes;

  00129	0f 11 85 54 ff
	ff ff		 movups	 XMMWORD PTR $T2[ebp], xmm0
  00130	0f 10 46 54	 movups	 xmm0, XMMWORD PTR [esi+84]
  00134	0f 11 8d 64 ff
	ff ff		 movups	 XMMWORD PTR $T2[ebp+16], xmm1
  0013b	0f 11 85 74 ff
	ff ff		 movups	 XMMWORD PTR $T2[ebp+32], xmm0

; 289  : 	if(this == &data)

  00142	3b d0		 cmp	 edx, eax
  00144	74 77		 je	 SHORT $LN30@operator

; 290  : 		return *this;
; 291  : 
; 292  : 	m_bIsAllTitleDrawHiding = data.DoesAllTitleDrawHiding();

  00146	8b 8d 54 ff ff
	ff		 mov	 ecx, DWORD PTR $T2[ebp]

; 293  : 	m_bIsConditionTitleDraw = data.DoesConditionTitleDraw();

  0014c	8b c1		 mov	 eax, ecx
  0014e	c1 e8 08	 shr	 eax, 8
  00151	88 42 01	 mov	 BYTE PTR [edx+1], al

; 294  : 	m_bIsDataTitleDraw = data.DoesDataTitleDraw();

  00154	8b c1		 mov	 eax, ecx
  00156	c1 e8 10	 shr	 eax, 16			; 00000010H
  00159	88 42 02	 mov	 BYTE PTR [edx+2], al

; 296  : 	m_nGraphBackgroundGapX = data.GetGraphBackgroundGapX();

  0015c	8b 85 58 ff ff
	ff		 mov	 eax, DWORD PTR $T2[ebp+4]
  00162	89 42 04	 mov	 DWORD PTR [edx+4], eax

; 297  : 	m_nGraphBackgroundGapY = data.GetGraphBackgroundGapY();

  00165	8b 85 5c ff ff
	ff		 mov	 eax, DWORD PTR $T2[ebp+8]
  0016b	89 42 08	 mov	 DWORD PTR [edx+8], eax

; 298  : 	m_nGraphRegionFrameThickness = data.GetGraphRegionFrameThickness();

  0016e	8b 85 60 ff ff
	ff		 mov	 eax, DWORD PTR $T2[ebp+12]
  00174	88 0a		 mov	 BYTE PTR [edx], cl
  00176	c1 e9 18	 shr	 ecx, 24			; 00000018H
  00179	89 42 0c	 mov	 DWORD PTR [edx+12], eax

; 299  : 	m_graphRegionColor = data.GetGraphRegionColor();

  0017c	8d 45 e8	 lea	 eax, DWORD PTR $T10[ebp]

; 390  : 	return m_graphRegionColor;

  0017f	66 0f d6 4d e8	 movq	 QWORD PTR $T10[ebp], xmm1

; 295  : 	m_bIsAutoDeleteIndicatorInfo = data.DoesAutoDeleteIndicatorInfo();

  00184	88 4a 03	 mov	 BYTE PTR [edx+3], cl

; 299  : 	m_graphRegionColor = data.GetGraphRegionColor();

  00187	8d 4a 10	 lea	 ecx, DWORD PTR [edx+16]

; 390  : 	return m_graphRegionColor;

  0018a	66 0f 73 d9 08	 psrldq	 xmm1, 8

; 299  : 	m_graphRegionColor = data.GetGraphRegionColor();

  0018f	50		 push	 eax

; 390  : 	return m_graphRegionColor;

  00190	66 0f 7e 4d f0	 movd	 DWORD PTR $T10[ebp+8], xmm1

; 299  : 	m_graphRegionColor = data.GetGraphRegionColor();

  00195	ff 15 00 00 00
	00		 call	 DWORD PTR __imp_??4CGraphRegionColor@@QAEAAV0@ABV0@@Z

; 395  : 	return m_etcGraphColor;

  0019b	0f 10 85 70 ff
	ff ff		 movups	 xmm0, XMMWORD PTR $T2[ebp+28]

; 300  : 	m_etcGraphColor = data.GetEtcGraphColor();

  001a2	8d 45 dc	 lea	 eax, DWORD PTR $T8[ebp]
  001a5	50		 push	 eax

; 395  : 	return m_etcGraphColor;

  001a6	0f 11 45 dc	 movups	 XMMWORD PTR $T8[ebp], xmm0

; 300  : 	m_etcGraphColor = data.GetEtcGraphColor();

  001aa	8d 4f 50	 lea	 ecx, DWORD PTR [edi+80]

; 395  : 	return m_etcGraphColor;

  001ad	f3 0f 7e 45 80	 movq	 xmm0, QWORD PTR $T2[ebp+44]
  001b2	66 0f d6 45 ec	 movq	 QWORD PTR $T8[ebp+16], xmm0

; 300  : 	m_etcGraphColor = data.GetEtcGraphColor();

  001b7	ff 15 00 00 00
	00		 call	 DWORD PTR __imp_??4CEtcGraphColor@@QAEAAV0@ABV0@@Z
$LN30@operator:

; 662  : 	return m_scaleAttributes;

  001bd	0f 10 46 68	 movups	 xmm0, XMMWORD PTR [esi+104]

; 595  : 	m_scaleAttributes = data.GetScaleAttributes();

  001c1	8d 4f 68	 lea	 ecx, DWORD PTR [edi+104]

; 662  : 	return m_scaleAttributes;

  001c4	8b 96 80 00 00
	00		 mov	 edx, DWORD PTR [esi+128]
  001ca	f3 0f 7e 4e 78	 movq	 xmm1, QWORD PTR [esi+120]

; 404  : 	if(this == &data)

  001cf	8d 45 88	 lea	 eax, DWORD PTR $T3[ebp]

; 662  : 	return m_scaleAttributes;

  001d2	0f 11 45 88	 movups	 XMMWORD PTR $T3[ebp], xmm0

; 404  : 	if(this == &data)

  001d6	3b c8		 cmp	 ecx, eax
  001d8	74 33		 je	 SHORT $LN39@operator

; 405  : 		return *this;
; 406  : 
; 407  : 	m_bIsHorzScaleMessageBoxShow = data.DoesHorzScaleMessageBoxShow();

  001da	8a 45 88	 mov	 al, BYTE PTR $T3[ebp]

; 408  : 	m_bIsOnlyPriceVertScale = data.DoesOnlyPriceVertScale();
; 409  : 	m_scaleRegionAttributes = data.GetScaleRegionAttributes();

  001dd	f3 0f 7e 45 8c	 movq	 xmm0, QWORD PTR $T3[ebp+4]
  001e2	88 01		 mov	 BYTE PTR [ecx], al
  001e4	8b 45 88	 mov	 eax, DWORD PTR $T3[ebp]
  001e7	c1 e8 08	 shr	 eax, 8
  001ea	88 41 01	 mov	 BYTE PTR [ecx+1], al
  001ed	8b 45 94	 mov	 eax, DWORD PTR $T3[ebp+12]
  001f0	66 0f d6 41 04	 movq	 QWORD PTR [ecx+4], xmm0
  001f5	89 41 0c	 mov	 DWORD PTR [ecx+12], eax

; 410  : 	m_scaleColor = data.GetScaleColor();

  001f8	8d 45 e8	 lea	 eax, DWORD PTR $T9[ebp]
  001fb	50		 push	 eax
  001fc	83 c1 10	 add	 ecx, 16			; 00000010H

; 478  : 	return m_scaleColor;

  001ff	66 0f d6 4d e8	 movq	 QWORD PTR $T9[ebp], xmm1
  00204	89 55 f0	 mov	 DWORD PTR $T9[ebp+8], edx

; 410  : 	m_scaleColor = data.GetScaleColor();

  00207	ff 15 00 00 00
	00		 call	 DWORD PTR __imp_??4CScaleColor@@QAEAAV0@ABV0@@Z
$LN39@operator:

; 672  : 	return m_viewAttributes;

  0020d	8b 86 94 00 00
	00		 mov	 eax, DWORD PTR [esi+148]

; 596  : 	m_viewAttributes = data.GetViewAttributes();

  00213	8d 97 84 00 00
	00		 lea	 edx, DWORD PTR [edi+132]

; 672  : 	return m_viewAttributes;

  00219	0f 10 86 84 00
	00 00		 movups	 xmm0, XMMWORD PTR [esi+132]
  00220	89 45 08	 mov	 DWORD PTR $T11[ebp], eax

; 507  : 	if(this == &data)

  00223	8d 45 a4	 lea	 eax, DWORD PTR $T4[ebp]

; 672  : 	return m_viewAttributes;

  00226	0f 11 45 a4	 movups	 XMMWORD PTR $T4[ebp], xmm0

; 507  : 	if(this == &data)

  0022a	3b d0		 cmp	 edx, eax
  0022c	74 32		 je	 SHORT $LN48@operator

; 548  : 	return m_displayAttributes;

  0022e	8b 45 a4	 mov	 eax, DWORD PTR $T4[ebp]
  00231	8b 4d a8	 mov	 ecx, DWORD PTR $T4[ebp+4]
  00234	89 45 c4	 mov	 DWORD PTR $T6[ebp], eax

; 510  : 	m_displayAttributes = data.GetDisplayAttributes();

  00237	8d 45 c4	 lea	 eax, DWORD PTR $T6[ebp]

; 548  : 	return m_displayAttributes;

  0023a	89 4d c8	 mov	 DWORD PTR $T6[ebp+4], ecx

; 510  : 	m_displayAttributes = data.GetDisplayAttributes();

  0023d	8b ca		 mov	 ecx, edx
  0023f	50		 push	 eax
  00240	e8 00 00 00 00	 call	 ??4CDisplayAttributes@@QAEAAV0@ABV0@@Z ; CDisplayAttributes::operator=

; 511  : 	m_eDrawingOrderType = data.GetDrawingOrderType();

  00245	8b 45 ac	 mov	 eax, DWORD PTR $T4[ebp+8]
  00248	89 87 8c 00 00
	00		 mov	 DWORD PTR [edi+140], eax

; 512  : 	m_bIsMessageBoxShow = data.DoesMessageBoxShow();

  0024e	8a 45 b0	 mov	 al, BYTE PTR $T4[ebp+12]
  00251	88 87 90 00 00
	00		 mov	 BYTE PTR [edi+144], al

; 513  : 	m_backgroundColor = data.GetBackgroundColor();

  00257	8b 45 08	 mov	 eax, DWORD PTR $T11[ebp]
  0025a	89 87 94 00 00
	00		 mov	 DWORD PTR [edi+148], eax
$LN48@operator:

; 597  : 
; 598  : 	// (2006/12/12 - Seung-Won, Bae) Support Indicator Calculation Enabling Flag
; 599  : 	m_bEnableIndicatorCalculation = data.m_bEnableIndicatorCalculation;

  00260	8b 86 98 00 00
	00		 mov	 eax, DWORD PTR [esi+152]
  00266	89 87 98 00 00
	00		 mov	 DWORD PTR [edi+152], eax

; 600  : 
; 601  : 	// (2007/2/22 - Seung-Won, Bae) Support Base Text Option
; 602  : 	m_bWithBaseText = data.GetWithBaseText();

  0026c	8b 86 9c 00 00
	00		 mov	 eax, DWORD PTR [esi+156]
  00272	89 87 9c 00 00
	00		 mov	 DWORD PTR [edi+156], eax

; 603  : 
; 604  : 	// (2007/6/28 - Seung-Won, Bae) Manage MessageBox Info
; 605  : 	m_bMessageBoxUsed = data.m_bMessageBoxUsed;

  00278	8b 86 a0 00 00
	00		 mov	 eax, DWORD PTR [esi+160]
  0027e	89 87 a0 00 00
	00		 mov	 DWORD PTR [edi+160], eax
$LN54@operator:

; 606  : 
; 607  : 	return *this;
; 608  : }

  00284	8b c7		 mov	 eax, edi
  00286	8b 4d f4	 mov	 ecx, DWORD PTR __$EHRec$[ebp]
  00289	64 89 0d 00 00
	00 00		 mov	 DWORD PTR fs:0, ecx
  00290	59		 pop	 ecx
  00291	5f		 pop	 edi
  00292	5e		 pop	 esi
  00293	8b e5		 mov	 esp, ebp
  00295	5d		 pop	 ebp
  00296	c2 04 00	 ret	 4
_TEXT	ENDS
;	COMDAT text$x
text$x	SEGMENT
__unwindfunclet$??4CMainBlockBaseData@@QAEAAV0@ABV0@@Z$0:
  00000	8d 4d cc	 lea	 ecx, DWORD PTR $T7[ebp]
  00003	e9 00 00 00 00	 jmp	 ??1CMainAttributes@@QAE@XZ
__unwindfunclet$??4CMainBlockBaseData@@QAEAAV0@ABV0@@Z$3:
  00008	8d 4d 08	 lea	 ecx, DWORD PTR $T12[ebp]
  0000b	ff 25 00 00 00
	00		 jmp	 DWORD PTR __imp_??1?$CStringT@DV?$StrTraitMFC_DLL@DV?$ChTraitsCRT@D@ATL@@@@@ATL@@QAE@XZ
  00011	cc		 int	 3
  00012	cc		 int	 3
  00013	cc		 int	 3
  00014	cc		 int	 3
  00015	cc		 int	 3
__ehhandler$??4CMainBlockBaseData@@QAEAAV0@ABV0@@Z:
  00016	90		 npad	 1
  00017	90		 npad	 1
  00018	8b 54 24 08	 mov	 edx, DWORD PTR [esp+8]
  0001c	8d 42 0c	 lea	 eax, DWORD PTR [edx+12]
  0001f	8b 8a 54 ff ff
	ff		 mov	 ecx, DWORD PTR [edx-172]
  00025	33 c8		 xor	 ecx, eax
  00027	e8 00 00 00 00	 call	 @__security_check_cookie@4
  0002c	b8 00 00 00 00	 mov	 eax, OFFSET __ehfuncinfo$??4CMainBlockBaseData@@QAEAAV0@ABV0@@Z
  00031	e9 00 00 00 00	 jmp	 ___CxxFrameHandler3
text$x	ENDS
??4CMainBlockBaseData@@QAEAAV0@ABV0@@Z ENDP		; CMainBlockBaseData::operator=
; Function compile flags: /Ogtp
; File D:\git\src\IBK\IBK_DRFN\ProjSrc\SrcChartEx\ChartOCX\ChartObject\ChartObjectBaseData.cpp
;	COMDAT ??0CMainBlockBaseData@@QAE@XZ
_TEXT	SEGMENT
_this$ = -16						; size = 4
__$EHRec$ = -12						; size = 12
??0CMainBlockBaseData@@QAE@XZ PROC			; CMainBlockBaseData::CMainBlockBaseData, COMDAT
; _this$ = ecx

; 576  : {

  00000	55		 push	 ebp
  00001	8b ec		 mov	 ebp, esp
  00003	6a ff		 push	 -1
  00005	68 00 00 00 00	 push	 __ehhandler$??0CMainBlockBaseData@@QAE@XZ
  0000a	64 a1 00 00 00
	00		 mov	 eax, DWORD PTR fs:0
  00010	50		 push	 eax
  00011	51		 push	 ecx
  00012	56		 push	 esi
  00013	57		 push	 edi
  00014	a1 00 00 00 00	 mov	 eax, DWORD PTR ___security_cookie
  00019	33 c5		 xor	 eax, ebp
  0001b	50		 push	 eax
  0001c	8d 45 f4	 lea	 eax, DWORD PTR __$EHRec$[ebp]
  0001f	64 a3 00 00 00
	00		 mov	 DWORD PTR fs:0, eax
  00025	8b f9		 mov	 edi, ecx
  00027	89 7d f0	 mov	 DWORD PTR _this$[ebp], edi

; 45   : {

  0002a	8d 4f 04	 lea	 ecx, DWORD PTR [edi+4]
  0002d	c6 07 00	 mov	 BYTE PTR [edi], 0
  00030	ff 15 00 00 00
	00		 call	 DWORD PTR __imp_??0?$CStringT@DV?$StrTraitMFC_DLL@DV?$ChTraitsCRT@D@ATL@@@@@ATL@@QAE@XZ

; 36   : 	m_pMainBlockImpl(NULL),

  00036	c7 47 08 00 00
	00 00		 mov	 DWORD PTR [edi+8], 0

; 37   : 	m_pIChartCtrl(NULL),

  0003d	c7 47 0c 00 00
	00 00		 mov	 DWORD PTR [edi+12], 0

; 38   : 	m_bDesignMode(false),
; 39   : 	m_pPacketList(NULL),

  00044	c7 47 10 00 00
	00 00		 mov	 DWORD PTR [edi+16], 0

; 40   : 	m_pIndicatorList(NULL),

  0004b	c7 47 14 00 00
	00 00		 mov	 DWORD PTR [edi+20], 0

; 41   : 	m_pMainChartFormulate( NULL),

  00052	c7 47 18 00 00
	00 00		 mov	 DWORD PTR [edi+24], 0

; 42   : 	m_pxScaleManager(NULL),

  00059	c7 47 1c 00 00
	00 00		 mov	 DWORD PTR [edi+28], 0

; 43   : 	m_pPacketListManager(NULL),

  00060	c7 47 20 00 00
	00 00		 mov	 DWORD PTR [edi+32], 0

; 44   : 	m_pToolBarManager(NULL)	//   :  - ojtaso (20070111)

  00067	c7 47 24 00 00
	00 00		 mov	 DWORD PTR [edi+36], 0

; 246  : 	m_eBlockType(CBlockBaseData::ROW),

  0006e	c7 47 28 00 00
	00 00		 mov	 DWORD PTR [edi+40], 0

; 312  : {

  00075	8d 4f 44	 lea	 ecx, DWORD PTR [edi+68]

; 247  : 	m_eBlockCompartType(CBlockBaseData::COMPARTLINE),

  00078	c7 47 2c 00 00
	00 00		 mov	 DWORD PTR [edi+44], 0

; 248  : 	m_nMaxBlocksCountInView(5)

  0007f	c7 47 30 05 00
	00 00		 mov	 DWORD PTR [edi+48], 5

; 576  : {

  00086	c7 45 fc 00 00
	00 00		 mov	 DWORD PTR __$EHRec$[ebp+8], 0

; 305  : 	m_bIsAllTitleDrawHiding(false), 

  0008d	c7 47 34 00 00
	00 00		 mov	 DWORD PTR [edi+52], 0

; 306  : 	m_bIsConditionTitleDraw(false),
; 307  : 	m_bIsDataTitleDraw(false),
; 308  : 	m_bIsAutoDeleteIndicatorInfo(false), 
; 309  : 	m_nGraphBackgroundGapX(0),

  00094	c7 47 38 00 00
	00 00		 mov	 DWORD PTR [edi+56], 0

; 310  : 	m_nGraphBackgroundGapY(0),

  0009b	c7 47 3c 00 00
	00 00		 mov	 DWORD PTR [edi+60], 0

; 311  : 	m_nGraphRegionFrameThickness(1)

  000a2	c7 47 40 01 00
	00 00		 mov	 DWORD PTR [edi+64], 1

; 312  : {

  000a9	ff 15 00 00 00
	00		 call	 DWORD PTR __imp_??0CGraphRegionColor@@QAE@XZ
  000af	8d 4f 50	 lea	 ecx, DWORD PTR [edi+80]
  000b2	ff 15 00 00 00
	00		 call	 DWORD PTR __imp_??0CEtcGraphColor@@QAE@XZ

; 417  : {

  000b8	8d 4f 6c	 lea	 ecx, DWORD PTR [edi+108]
  000bb	66 c7 47 68 01
	00		 mov	 WORD PTR [edi+104], 1
  000c1	e8 00 00 00 00	 call	 ??0CScaleRegionAttributes@@QAE@XZ ; CScaleRegionAttributes::CScaleRegionAttributes
  000c6	8d 4f 78	 lea	 ecx, DWORD PTR [edi+120]
  000c9	ff 15 00 00 00
	00		 call	 DWORD PTR __imp_??0CScaleColor@@QAE@XZ

; 521  : {

  000cf	8d 8f 84 00 00
	00		 lea	 ecx, DWORD PTR [edi+132]
  000d5	e8 00 00 00 00	 call	 ??0CDisplayAttributes@@QAE@XZ ; CDisplayAttributes::CDisplayAttributes

; 418  : }
; 419  : 
; 420  : void CScaleAttributes::SetHorzScaleMessageBoxShow(const bool bHorzScaleMessageBoxShow)
; 421  : {
; 422  : 	m_bIsHorzScaleMessageBoxShow = bHorzScaleMessageBoxShow;
; 423  : }
; 424  : 
; 425  : void CScaleAttributes::SetOnlyPriceVertScale(const bool bIsOnlyPrice)
; 426  : {
; 427  : 	m_bIsOnlyPriceVertScale = bIsOnlyPrice;
; 428  : }
; 429  : 
; 430  : void CScaleAttributes::SetScaleRegionAttributes(const CScaleRegionAttributes& scaleRegionAttributes)
; 431  : {
; 432  : 	m_scaleRegionAttributes = scaleRegionAttributes;
; 433  : }
; 434  : 
; 435  : void CScaleAttributes::SetMinHorzScaleRegionHeight(const int minHorzScaleRegionHeight)
; 436  : {
; 437  : 	m_scaleRegionAttributes.SetMinHorzScaleRegionHeight(minHorzScaleRegionHeight);
; 438  : }
; 439  : 
; 440  : void CScaleAttributes::SetMinVertScaleRegionWidth(const int minVertScaleRegionWidth)
; 441  : {
; 442  : 	m_scaleRegionAttributes.SetMinVertScaleRegionWidth(minVertScaleRegionWidth);
; 443  : }
; 444  : 
; 445  : void CScaleAttributes::SetMaxVertScaleRegionWidth(const int maxVertScaleRegionWidth)
; 446  : {
; 447  : 	m_scaleRegionAttributes.SetMaxVertScaleRegionWidth(maxVertScaleRegionWidth);
; 448  : }
; 449  : 
; 450  : void CScaleAttributes::SetScaleColor(const CScaleColor& scaleColor)
; 451  : {
; 452  : 	m_scaleColor = scaleColor;
; 453  : }
; 454  : 
; 455  : // --------------------------------------------------------------------------------------
; 456  : bool CScaleAttributes::DoesHorzScaleMessageBoxShow() const
; 457  : {
; 458  : 	return m_bIsHorzScaleMessageBoxShow;
; 459  : }
; 460  : 
; 461  : bool CScaleAttributes::DoesOnlyPriceVertScale() const
; 462  : {
; 463  : 	return m_bIsOnlyPriceVertScale;
; 464  : }
; 465  : 
; 466  : CScaleRegionAttributes CScaleAttributes::GetScaleRegionAttributes() const
; 467  : {
; 468  : 	return m_scaleRegionAttributes;
; 469  : }
; 470  : 
; 471  : CScaleRegionAttributes& CScaleAttributes::GetScaleRegionAttributes()
; 472  : {
; 473  : 	return m_scaleRegionAttributes;
; 474  : }
; 475  : 
; 476  : CScaleColor CScaleAttributes::GetScaleColor() const
; 477  : {
; 478  : 	return m_scaleColor;
; 479  : }
; 480  : 
; 481  : CScaleColor& CScaleAttributes::GetScaleColor()
; 482  : {
; 483  : 	return m_scaleColor;
; 484  : }
; 485  : 
; 486  : int CScaleAttributes::GetMinHorzScaleRegionHeight() const
; 487  : {
; 488  : 	return m_scaleRegionAttributes.GetMinHorzScaleRegionHeight();
; 489  : }
; 490  : 
; 491  : int CScaleAttributes::GetMinVertScaleRegionWidth() const
; 492  : {
; 493  : 	return m_scaleRegionAttributes.GetMinVertScaleRegionWidth();
; 494  : }
; 495  : 
; 496  : int CScaleAttributes::GetMaxVertScaleRegionWidth() const
; 497  : {
; 498  : 	return m_scaleRegionAttributes.GetMaxVertScaleRegionWidth();
; 499  : }
; 500  : 
; 501  : 
; 502  : //////////////////////////////////////////////////////////////////////
; 503  : // class CViewAttributes
; 504  : 
; 505  : CViewAttributes& CViewAttributes::operator=(const CViewAttributes& data)
; 506  : {
; 507  : 	if(this == &data)
; 508  : 		return *this;
; 509  : 
; 510  : 	m_displayAttributes = data.GetDisplayAttributes();
; 511  : 	m_eDrawingOrderType = data.GetDrawingOrderType();
; 512  : 	m_bIsMessageBoxShow = data.DoesMessageBoxShow();
; 513  : 	m_backgroundColor = data.GetBackgroundColor();
; 514  : 	return *this;
; 515  : }
; 516  : 
; 517  : CViewAttributes::CViewAttributes():
; 518  : 	m_eDrawingOrderType(CDrawingOption::LEFT),

  000da	c7 87 8c 00 00
	00 00 00 00 00	 mov	 DWORD PTR [edi+140], 0

; 585  : }

  000e4	8b c7		 mov	 eax, edi

; 519  : 	m_bIsMessageBoxShow(true),

  000e6	c6 87 90 00 00
	00 01		 mov	 BYTE PTR [edi+144], 1

; 520  : 	m_backgroundColor(RGB(255, 255, 255))

  000ed	c7 87 94 00 00
	00 ff ff ff 00	 mov	 DWORD PTR [edi+148], 16777215 ; 00ffffffH

; 577  : 	// (2006/12/12 - Seung-Won, Bae) Support Indicator Calculation Enabling Flag
; 578  : 	m_bEnableIndicatorCalculation = TRUE;

  000f7	c7 87 98 00 00
	00 01 00 00 00	 mov	 DWORD PTR [edi+152], 1

; 579  : 
; 580  : 	// (2007/2/22 - Seung-Won, Bae) Support Base Text Option
; 581  : 	m_bWithBaseText = TRUE;

  00101	c7 87 9c 00 00
	00 01 00 00 00	 mov	 DWORD PTR [edi+156], 1

; 582  : 
; 583  : 	// (2007/6/28 - Seung-Won, Bae) Manage MessageBox Info
; 584  : 	m_bMessageBoxUsed = FALSE;

  0010b	c7 87 a0 00 00
	00 00 00 00 00	 mov	 DWORD PTR [edi+160], 0

; 585  : }

  00115	8b 4d f4	 mov	 ecx, DWORD PTR __$EHRec$[ebp]
  00118	64 89 0d 00 00
	00 00		 mov	 DWORD PTR fs:0, ecx
  0011f	59		 pop	 ecx
  00120	5f		 pop	 edi
  00121	5e		 pop	 esi
  00122	8b e5		 mov	 esp, ebp
  00124	5d		 pop	 ebp
  00125	c3		 ret	 0
_TEXT	ENDS
;	COMDAT text$x
text$x	SEGMENT
__unwindfunclet$??0CMainBlockBaseData@@QAE@XZ$0:
  00000	8b 4d f0	 mov	 ecx, DWORD PTR _this$[ebp]
  00003	e9 00 00 00 00	 jmp	 ??1CMainAttributes@@QAE@XZ
  00008	cc		 int	 3
  00009	cc		 int	 3
  0000a	cc		 int	 3
  0000b	cc		 int	 3
  0000c	cc		 int	 3
__ehhandler$??0CMainBlockBaseData@@QAE@XZ:
  0000d	90		 npad	 1
  0000e	90		 npad	 1
  0000f	8b 54 24 08	 mov	 edx, DWORD PTR [esp+8]
  00013	8d 42 0c	 lea	 eax, DWORD PTR [edx+12]
  00016	8b 4a f0	 mov	 ecx, DWORD PTR [edx-16]
  00019	33 c8		 xor	 ecx, eax
  0001b	e8 00 00 00 00	 call	 @__security_check_cookie@4
  00020	b8 00 00 00 00	 mov	 eax, OFFSET __ehfuncinfo$??0CMainBlockBaseData@@QAE@XZ
  00025	e9 00 00 00 00	 jmp	 ___CxxFrameHandler3
text$x	ENDS
??0CMainBlockBaseData@@QAE@XZ ENDP			; CMainBlockBaseData::CMainBlockBaseData
; Function compile flags: /Ogtp
; File D:\git\src\IBK\IBK_DRFN\ProjSrc\SrcChartEx\ChartOCX\ChartObject\ChartObjectBaseData.cpp
;	COMDAT ?GetBackgroundColor@CViewAttributes@@QBEKXZ
_TEXT	SEGMENT
?GetBackgroundColor@CViewAttributes@@QBEKXZ PROC	; CViewAttributes::GetBackgroundColor, COMDAT
; _this$ = ecx

; 568  : 	return m_backgroundColor;

  00000	8b 41 10	 mov	 eax, DWORD PTR [ecx+16]

; 569  : }

  00003	c3		 ret	 0
?GetBackgroundColor@CViewAttributes@@QBEKXZ ENDP	; CViewAttributes::GetBackgroundColor
_TEXT	ENDS
; Function compile flags: /Ogtp
; File D:\git\src\IBK\IBK_DRFN\ProjSrc\SrcChartEx\ChartOCX\ChartObject\ChartObjectBaseData.cpp
;	COMDAT ?DoesMessageBoxShow@CViewAttributes@@QBE_NXZ
_TEXT	SEGMENT
?DoesMessageBoxShow@CViewAttributes@@QBE_NXZ PROC	; CViewAttributes::DoesMessageBoxShow, COMDAT
; _this$ = ecx

; 563  : 	return m_bIsMessageBoxShow;

  00000	8a 41 0c	 mov	 al, BYTE PTR [ecx+12]

; 564  : }

  00003	c3		 ret	 0
?DoesMessageBoxShow@CViewAttributes@@QBE_NXZ ENDP	; CViewAttributes::DoesMessageBoxShow
_TEXT	ENDS
; Function compile flags: /Ogtp
; File D:\git\src\IBK\IBK_DRFN\ProjSrc\SrcChartEx\ChartOCX\ChartObject\ChartObjectBaseData.cpp
;	COMDAT ?GetDrawingOrderType@CViewAttributes@@QAEAAW4DRAWINGORDER@CDrawingOption@@XZ
_TEXT	SEGMENT
?GetDrawingOrderType@CViewAttributes@@QAEAAW4DRAWINGORDER@CDrawingOption@@XZ PROC ; CViewAttributes::GetDrawingOrderType, COMDAT
; _this$ = ecx

; 558  : 	return m_eDrawingOrderType;

  00000	8d 41 08	 lea	 eax, DWORD PTR [ecx+8]

; 559  : }

  00003	c3		 ret	 0
?GetDrawingOrderType@CViewAttributes@@QAEAAW4DRAWINGORDER@CDrawingOption@@XZ ENDP ; CViewAttributes::GetDrawingOrderType
_TEXT	ENDS
; Function compile flags: /Ogtp
; File D:\git\src\IBK\IBK_DRFN\ProjSrc\SrcChartEx\ChartOCX\ChartObject\ChartObjectBaseData.cpp
;	COMDAT ?GetDrawingOrderType@CViewAttributes@@QBE?AW4DRAWINGORDER@CDrawingOption@@XZ
_TEXT	SEGMENT
?GetDrawingOrderType@CViewAttributes@@QBE?AW4DRAWINGORDER@CDrawingOption@@XZ PROC ; CViewAttributes::GetDrawingOrderType, COMDAT
; _this$ = ecx

; 553  : 	return m_eDrawingOrderType;

  00000	8b 41 08	 mov	 eax, DWORD PTR [ecx+8]

; 554  : }

  00003	c3		 ret	 0
?GetDrawingOrderType@CViewAttributes@@QBE?AW4DRAWINGORDER@CDrawingOption@@XZ ENDP ; CViewAttributes::GetDrawingOrderType
_TEXT	ENDS
; Function compile flags: /Ogtp
; File D:\git\src\IBK\IBK_DRFN\ProjSrc\SrcChartEx\ChartOCX\ChartObject\ChartObjectBaseData.cpp
;	COMDAT ?GetDisplayAttributes@CViewAttributes@@QBE?AVCDisplayAttributes@@XZ
_TEXT	SEGMENT
___$ReturnUdt$ = 8					; size = 4
?GetDisplayAttributes@CViewAttributes@@QBE?AVCDisplayAttributes@@XZ PROC ; CViewAttributes::GetDisplayAttributes, COMDAT
; _this$ = ecx

; 547  : {

  00000	55		 push	 ebp
  00001	8b ec		 mov	 ebp, esp

; 548  : 	return m_displayAttributes;

  00003	8b 45 08	 mov	 eax, DWORD PTR ___$ReturnUdt$[ebp]
  00006	8b 11		 mov	 edx, DWORD PTR [ecx]
  00008	8b 49 04	 mov	 ecx, DWORD PTR [ecx+4]
  0000b	89 10		 mov	 DWORD PTR [eax], edx
  0000d	89 48 04	 mov	 DWORD PTR [eax+4], ecx

; 549  : }

  00010	5d		 pop	 ebp
  00011	c2 04 00	 ret	 4
?GetDisplayAttributes@CViewAttributes@@QBE?AVCDisplayAttributes@@XZ ENDP ; CViewAttributes::GetDisplayAttributes
_TEXT	ENDS
; Function compile flags: /Ogtp
; File D:\git\src\IBK\IBK_DRFN\ProjSrc\SrcChartEx\ChartOCX\ChartObject\ChartObjectBaseData.cpp
;	COMDAT ?SetBackgroundColor@CViewAttributes@@QAEXABK@Z
_TEXT	SEGMENT
_color$ = 8						; size = 4
?SetBackgroundColor@CViewAttributes@@QAEXABK@Z PROC	; CViewAttributes::SetBackgroundColor, COMDAT
; _this$ = ecx

; 541  : {

  00000	55		 push	 ebp
  00001	8b ec		 mov	 ebp, esp

; 542  : 	m_backgroundColor = color;

  00003	8b 45 08	 mov	 eax, DWORD PTR _color$[ebp]
  00006	8b 00		 mov	 eax, DWORD PTR [eax]
  00008	89 41 10	 mov	 DWORD PTR [ecx+16], eax

; 543  : }

  0000b	5d		 pop	 ebp
  0000c	c2 04 00	 ret	 4
?SetBackgroundColor@CViewAttributes@@QAEXABK@Z ENDP	; CViewAttributes::SetBackgroundColor
_TEXT	ENDS
; Function compile flags: /Ogtp
; File D:\git\src\IBK\IBK_DRFN\ProjSrc\SrcChartEx\ChartOCX\ChartObject\ChartObjectBaseData.cpp
;	COMDAT ?SetMessageBoxShow@CViewAttributes@@QAEX_N@Z
_TEXT	SEGMENT
_bIsShow$ = 8						; size = 1
?SetMessageBoxShow@CViewAttributes@@QAEX_N@Z PROC	; CViewAttributes::SetMessageBoxShow, COMDAT
; _this$ = ecx

; 536  : {

  00000	55		 push	 ebp
  00001	8b ec		 mov	 ebp, esp

; 537  : 	m_bIsMessageBoxShow = bIsShow;

  00003	8a 45 08	 mov	 al, BYTE PTR _bIsShow$[ebp]
  00006	88 41 0c	 mov	 BYTE PTR [ecx+12], al

; 538  : }

  00009	5d		 pop	 ebp
  0000a	c2 04 00	 ret	 4
?SetMessageBoxShow@CViewAttributes@@QAEX_N@Z ENDP	; CViewAttributes::SetMessageBoxShow
_TEXT	ENDS
; Function compile flags: /Ogtp
; File D:\git\src\IBK\IBK_DRFN\ProjSrc\SrcChartEx\ChartOCX\ChartObject\ChartObjectBaseData.cpp
;	COMDAT ?SetDrawingOrderType@CViewAttributes@@QAEXW4DRAWINGORDER@CDrawingOption@@@Z
_TEXT	SEGMENT
_eDrawingOrderType$ = 8					; size = 4
?SetDrawingOrderType@CViewAttributes@@QAEXW4DRAWINGORDER@CDrawingOption@@@Z PROC ; CViewAttributes::SetDrawingOrderType, COMDAT
; _this$ = ecx

; 531  : {

  00000	55		 push	 ebp
  00001	8b ec		 mov	 ebp, esp

; 532  : 	m_eDrawingOrderType = eDrawingOrderType;

  00003	8b 45 08	 mov	 eax, DWORD PTR _eDrawingOrderType$[ebp]
  00006	89 41 08	 mov	 DWORD PTR [ecx+8], eax

; 533  : }

  00009	5d		 pop	 ebp
  0000a	c2 04 00	 ret	 4
?SetDrawingOrderType@CViewAttributes@@QAEXW4DRAWINGORDER@CDrawingOption@@@Z ENDP ; CViewAttributes::SetDrawingOrderType
_TEXT	ENDS
; Function compile flags: /Ogtp
; File D:\git\src\IBK\IBK_DRFN\ProjSrc\SrcChartEx\ChartOCX\ChartObject\ChartObjectBaseData.cpp
;	COMDAT ?SetDataRegionInBlock@CViewAttributes@@QAEXHH@Z
_TEXT	SEGMENT
_start$ = 8						; size = 4
_end$ = 12						; size = 4
?SetDataRegionInBlock@CViewAttributes@@QAEXHH@Z PROC	; CViewAttributes::SetDataRegionInBlock, COMDAT
; _this$ = ecx

; 525  : {

  00000	55		 push	 ebp
  00001	8b ec		 mov	 ebp, esp
  00003	56		 push	 esi

; 526  : 	m_displayAttributes.SetDataStartInBlock(start);

  00004	ff 75 08	 push	 DWORD PTR _start$[ebp]
  00007	8b f1		 mov	 esi, ecx
  00009	e8 00 00 00 00	 call	 ?SetDataStartInBlock@CDisplayAttributes@@QAEXH@Z ; CDisplayAttributes::SetDataStartInBlock

; 527  : 	m_displayAttributes.SetDataEndInBlock(end);

  0000e	ff 75 0c	 push	 DWORD PTR _end$[ebp]
  00011	8b ce		 mov	 ecx, esi
  00013	e8 00 00 00 00	 call	 ?SetDataEndInBlock@CDisplayAttributes@@QAEXH@Z ; CDisplayAttributes::SetDataEndInBlock
  00018	5e		 pop	 esi

; 528  : }

  00019	5d		 pop	 ebp
  0001a	c2 08 00	 ret	 8
?SetDataRegionInBlock@CViewAttributes@@QAEXHH@Z ENDP	; CViewAttributes::SetDataRegionInBlock
_TEXT	ENDS
; Function compile flags: /Ogtp
; File D:\git\src\IBK\IBK_DRFN\ProjSrc\SrcChartEx\ChartOCX\ChartObject\ChartObjectBaseData.cpp
;	COMDAT ??0CViewAttributes@@QAE@XZ
_TEXT	SEGMENT
??0CViewAttributes@@QAE@XZ PROC				; CViewAttributes::CViewAttributes, COMDAT
; _this$ = ecx

; 521  : {

  00000	56		 push	 esi
  00001	8b f1		 mov	 esi, ecx
  00003	e8 00 00 00 00	 call	 ??0CDisplayAttributes@@QAE@XZ ; CDisplayAttributes::CDisplayAttributes

; 518  : 	m_eDrawingOrderType(CDrawingOption::LEFT),

  00008	c7 46 08 00 00
	00 00		 mov	 DWORD PTR [esi+8], 0

; 522  : }

  0000f	8b c6		 mov	 eax, esi
  00011	c6 46 0c 01	 mov	 BYTE PTR [esi+12], 1
  00015	c7 46 10 ff ff
	ff 00		 mov	 DWORD PTR [esi+16], 16777215 ; 00ffffffH
  0001c	5e		 pop	 esi
  0001d	c3		 ret	 0
??0CViewAttributes@@QAE@XZ ENDP				; CViewAttributes::CViewAttributes
_TEXT	ENDS
; Function compile flags: /Ogtp
; File D:\git\src\IBK\IBK_DRFN\ProjSrc\SrcChartEx\ChartOCX\ChartObject\ChartObjectBaseData.cpp
;	COMDAT ??4CViewAttributes@@QAEAAV0@ABV0@@Z
_TEXT	SEGMENT
$T1 = -8						; size = 8
_data$ = 8						; size = 4
??4CViewAttributes@@QAEAAV0@ABV0@@Z PROC		; CViewAttributes::operator=, COMDAT
; _this$ = ecx

; 506  : {

  00000	55		 push	 ebp
  00001	8b ec		 mov	 ebp, esp
  00003	83 ec 08	 sub	 esp, 8
  00006	56		 push	 esi
  00007	57		 push	 edi

; 507  : 	if(this == &data)

  00008	8b 7d 08	 mov	 edi, DWORD PTR _data$[ebp]
  0000b	8b f1		 mov	 esi, ecx
  0000d	3b f7		 cmp	 esi, edi
  0000f	74 28		 je	 SHORT $LN6@operator

; 548  : 	return m_displayAttributes;

  00011	8b 07		 mov	 eax, DWORD PTR [edi]
  00013	8b 4f 04	 mov	 ecx, DWORD PTR [edi+4]
  00016	89 45 f8	 mov	 DWORD PTR $T1[ebp], eax

; 508  : 		return *this;
; 509  : 
; 510  : 	m_displayAttributes = data.GetDisplayAttributes();

  00019	8d 45 f8	 lea	 eax, DWORD PTR $T1[ebp]

; 548  : 	return m_displayAttributes;

  0001c	89 4d fc	 mov	 DWORD PTR $T1[ebp+4], ecx

; 508  : 		return *this;
; 509  : 
; 510  : 	m_displayAttributes = data.GetDisplayAttributes();

  0001f	8b ce		 mov	 ecx, esi
  00021	50		 push	 eax
  00022	e8 00 00 00 00	 call	 ??4CDisplayAttributes@@QAEAAV0@ABV0@@Z ; CDisplayAttributes::operator=

; 511  : 	m_eDrawingOrderType = data.GetDrawingOrderType();

  00027	8b 47 08	 mov	 eax, DWORD PTR [edi+8]
  0002a	89 46 08	 mov	 DWORD PTR [esi+8], eax

; 512  : 	m_bIsMessageBoxShow = data.DoesMessageBoxShow();

  0002d	8a 47 0c	 mov	 al, BYTE PTR [edi+12]
  00030	88 46 0c	 mov	 BYTE PTR [esi+12], al

; 513  : 	m_backgroundColor = data.GetBackgroundColor();

  00033	8b 47 10	 mov	 eax, DWORD PTR [edi+16]
  00036	89 46 10	 mov	 DWORD PTR [esi+16], eax
$LN6@operator:

; 514  : 	return *this;
; 515  : }

  00039	5f		 pop	 edi
  0003a	8b c6		 mov	 eax, esi
  0003c	5e		 pop	 esi
  0003d	8b e5		 mov	 esp, ebp
  0003f	5d		 pop	 ebp
  00040	c2 04 00	 ret	 4
??4CViewAttributes@@QAEAAV0@ABV0@@Z ENDP		; CViewAttributes::operator=
_TEXT	ENDS
; Function compile flags: /Ogtp
; File D:\git\src\IBK\IBK_DRFN\ProjSrc\SrcChartEx\ChartOCX\ChartObject\ChartObjectBaseData.cpp
;	COMDAT ?GetMaxVertScaleRegionWidth@CScaleAttributes@@QBEHXZ
_TEXT	SEGMENT
?GetMaxVertScaleRegionWidth@CScaleAttributes@@QBEHXZ PROC ; CScaleAttributes::GetMaxVertScaleRegionWidth, COMDAT
; _this$ = ecx

; 498  : 	return m_scaleRegionAttributes.GetMaxVertScaleRegionWidth();

  00000	83 c1 04	 add	 ecx, 4
  00003	e9 00 00 00 00	 jmp	 ?GetMaxVertScaleRegionWidth@CScaleRegionAttributes@@QBEHXZ ; CScaleRegionAttributes::GetMaxVertScaleRegionWidth
?GetMaxVertScaleRegionWidth@CScaleAttributes@@QBEHXZ ENDP ; CScaleAttributes::GetMaxVertScaleRegionWidth
_TEXT	ENDS
; Function compile flags: /Ogtp
; File D:\git\src\IBK\IBK_DRFN\ProjSrc\SrcChartEx\ChartOCX\ChartObject\ChartObjectBaseData.cpp
;	COMDAT ?GetMinVertScaleRegionWidth@CScaleAttributes@@QBEHXZ
_TEXT	SEGMENT
?GetMinVertScaleRegionWidth@CScaleAttributes@@QBEHXZ PROC ; CScaleAttributes::GetMinVertScaleRegionWidth, COMDAT
; _this$ = ecx

; 493  : 	return m_scaleRegionAttributes.GetMinVertScaleRegionWidth();

  00000	83 c1 04	 add	 ecx, 4
  00003	e9 00 00 00 00	 jmp	 ?GetMinVertScaleRegionWidth@CScaleRegionAttributes@@QBEHXZ ; CScaleRegionAttributes::GetMinVertScaleRegionWidth
?GetMinVertScaleRegionWidth@CScaleAttributes@@QBEHXZ ENDP ; CScaleAttributes::GetMinVertScaleRegionWidth
_TEXT	ENDS
; Function compile flags: /Ogtp
; File D:\git\src\IBK\IBK_DRFN\ProjSrc\SrcChartEx\ChartOCX\ChartObject\ChartObjectBaseData.cpp
;	COMDAT ?GetMinHorzScaleRegionHeight@CScaleAttributes@@QBEHXZ
_TEXT	SEGMENT
?GetMinHorzScaleRegionHeight@CScaleAttributes@@QBEHXZ PROC ; CScaleAttributes::GetMinHorzScaleRegionHeight, COMDAT
; _this$ = ecx

; 488  : 	return m_scaleRegionAttributes.GetMinHorzScaleRegionHeight();

  00000	83 c1 04	 add	 ecx, 4
  00003	e9 00 00 00 00	 jmp	 ?GetMinHorzScaleRegionHeight@CScaleRegionAttributes@@QBEHXZ ; CScaleRegionAttributes::GetMinHorzScaleRegionHeight
?GetMinHorzScaleRegionHeight@CScaleAttributes@@QBEHXZ ENDP ; CScaleAttributes::GetMinHorzScaleRegionHeight
_TEXT	ENDS
; Function compile flags: /Ogtp
; File D:\git\src\IBK\IBK_DRFN\ProjSrc\SrcChartEx\ChartOCX\ChartObject\ChartObjectBaseData.cpp
;	COMDAT ?GetScaleColor@CScaleAttributes@@QAEAAVCScaleColor@@XZ
_TEXT	SEGMENT
?GetScaleColor@CScaleAttributes@@QAEAAVCScaleColor@@XZ PROC ; CScaleAttributes::GetScaleColor, COMDAT
; _this$ = ecx

; 483  : 	return m_scaleColor;

  00000	8d 41 10	 lea	 eax, DWORD PTR [ecx+16]

; 484  : }

  00003	c3		 ret	 0
?GetScaleColor@CScaleAttributes@@QAEAAVCScaleColor@@XZ ENDP ; CScaleAttributes::GetScaleColor
_TEXT	ENDS
; Function compile flags: /Ogtp
; File D:\git\src\IBK\IBK_DRFN\ProjSrc\SrcChartEx\ChartOCX\ChartObject\ChartObjectBaseData.cpp
;	COMDAT ?GetScaleColor@CScaleAttributes@@QBE?AVCScaleColor@@XZ
_TEXT	SEGMENT
___$ReturnUdt$ = 8					; size = 4
?GetScaleColor@CScaleAttributes@@QBE?AVCScaleColor@@XZ PROC ; CScaleAttributes::GetScaleColor, COMDAT
; _this$ = ecx

; 477  : {

  00000	55		 push	 ebp
  00001	8b ec		 mov	 ebp, esp

; 478  : 	return m_scaleColor;

  00003	8b 45 08	 mov	 eax, DWORD PTR ___$ReturnUdt$[ebp]
  00006	f3 0f 7e 41 10	 movq	 xmm0, QWORD PTR [ecx+16]
  0000b	8b 49 18	 mov	 ecx, DWORD PTR [ecx+24]
  0000e	66 0f d6 00	 movq	 QWORD PTR [eax], xmm0
  00012	89 48 08	 mov	 DWORD PTR [eax+8], ecx

; 479  : }

  00015	5d		 pop	 ebp
  00016	c2 04 00	 ret	 4
?GetScaleColor@CScaleAttributes@@QBE?AVCScaleColor@@XZ ENDP ; CScaleAttributes::GetScaleColor
_TEXT	ENDS
; Function compile flags: /Ogtp
; File D:\git\src\IBK\IBK_DRFN\ProjSrc\SrcChartEx\ChartOCX\ChartObject\ChartObjectBaseData.cpp
;	COMDAT ?GetScaleRegionAttributes@CScaleAttributes@@QAEAAVCScaleRegionAttributes@@XZ
_TEXT	SEGMENT
?GetScaleRegionAttributes@CScaleAttributes@@QAEAAVCScaleRegionAttributes@@XZ PROC ; CScaleAttributes::GetScaleRegionAttributes, COMDAT
; _this$ = ecx

; 473  : 	return m_scaleRegionAttributes;

  00000	8d 41 04	 lea	 eax, DWORD PTR [ecx+4]

; 474  : }

  00003	c3		 ret	 0
?GetScaleRegionAttributes@CScaleAttributes@@QAEAAVCScaleRegionAttributes@@XZ ENDP ; CScaleAttributes::GetScaleRegionAttributes
_TEXT	ENDS
; Function compile flags: /Ogtp
; File D:\git\src\IBK\IBK_DRFN\ProjSrc\SrcChartEx\ChartOCX\ChartObject\ChartObjectBaseData.cpp
;	COMDAT ?GetScaleRegionAttributes@CScaleAttributes@@QBE?AVCScaleRegionAttributes@@XZ
_TEXT	SEGMENT
___$ReturnUdt$ = 8					; size = 4
?GetScaleRegionAttributes@CScaleAttributes@@QBE?AVCScaleRegionAttributes@@XZ PROC ; CScaleAttributes::GetScaleRegionAttributes, COMDAT
; _this$ = ecx

; 467  : {

  00000	55		 push	 ebp
  00001	8b ec		 mov	 ebp, esp

; 468  : 	return m_scaleRegionAttributes;

  00003	8b 45 08	 mov	 eax, DWORD PTR ___$ReturnUdt$[ebp]
  00006	f3 0f 7e 41 04	 movq	 xmm0, QWORD PTR [ecx+4]
  0000b	8b 49 0c	 mov	 ecx, DWORD PTR [ecx+12]
  0000e	66 0f d6 00	 movq	 QWORD PTR [eax], xmm0
  00012	89 48 08	 mov	 DWORD PTR [eax+8], ecx

; 469  : }

  00015	5d		 pop	 ebp
  00016	c2 04 00	 ret	 4
?GetScaleRegionAttributes@CScaleAttributes@@QBE?AVCScaleRegionAttributes@@XZ ENDP ; CScaleAttributes::GetScaleRegionAttributes
_TEXT	ENDS
; Function compile flags: /Ogtp
; File D:\git\src\IBK\IBK_DRFN\ProjSrc\SrcChartEx\ChartOCX\ChartObject\ChartObjectBaseData.cpp
;	COMDAT ?DoesOnlyPriceVertScale@CScaleAttributes@@QBE_NXZ
_TEXT	SEGMENT
?DoesOnlyPriceVertScale@CScaleAttributes@@QBE_NXZ PROC	; CScaleAttributes::DoesOnlyPriceVertScale, COMDAT
; _this$ = ecx

; 463  : 	return m_bIsOnlyPriceVertScale;

  00000	8a 41 01	 mov	 al, BYTE PTR [ecx+1]

; 464  : }

  00003	c3		 ret	 0
?DoesOnlyPriceVertScale@CScaleAttributes@@QBE_NXZ ENDP	; CScaleAttributes::DoesOnlyPriceVertScale
_TEXT	ENDS
; Function compile flags: /Ogtp
; File D:\git\src\IBK\IBK_DRFN\ProjSrc\SrcChartEx\ChartOCX\ChartObject\ChartObjectBaseData.cpp
;	COMDAT ?DoesHorzScaleMessageBoxShow@CScaleAttributes@@QBE_NXZ
_TEXT	SEGMENT
?DoesHorzScaleMessageBoxShow@CScaleAttributes@@QBE_NXZ PROC ; CScaleAttributes::DoesHorzScaleMessageBoxShow, COMDAT
; _this$ = ecx

; 458  : 	return m_bIsHorzScaleMessageBoxShow;

  00000	8a 01		 mov	 al, BYTE PTR [ecx]

; 459  : }

  00002	c3		 ret	 0
?DoesHorzScaleMessageBoxShow@CScaleAttributes@@QBE_NXZ ENDP ; CScaleAttributes::DoesHorzScaleMessageBoxShow
_TEXT	ENDS
; Function compile flags: /Ogtp
; File D:\git\src\IBK\IBK_DRFN\ProjSrc\SrcChartEx\ChartOCX\ChartObject\ChartObjectBaseData.cpp
;	COMDAT ?SetScaleColor@CScaleAttributes@@QAEXABVCScaleColor@@@Z
_TEXT	SEGMENT
_scaleColor$ = 8					; size = 4
?SetScaleColor@CScaleAttributes@@QAEXABVCScaleColor@@@Z PROC ; CScaleAttributes::SetScaleColor, COMDAT
; _this$ = ecx

; 451  : {

  00000	55		 push	 ebp
  00001	8b ec		 mov	 ebp, esp

; 452  : 	m_scaleColor = scaleColor;

  00003	83 c1 10	 add	 ecx, 16			; 00000010H

; 453  : }

  00006	5d		 pop	 ebp

; 452  : 	m_scaleColor = scaleColor;

  00007	ff 25 00 00 00
	00		 jmp	 DWORD PTR __imp_??4CScaleColor@@QAEAAV0@ABV0@@Z
?SetScaleColor@CScaleAttributes@@QAEXABVCScaleColor@@@Z ENDP ; CScaleAttributes::SetScaleColor
_TEXT	ENDS
; Function compile flags: /Ogtp
; File D:\git\src\IBK\IBK_DRFN\ProjSrc\SrcChartEx\ChartOCX\ChartObject\ChartObjectBaseData.cpp
;	COMDAT ?SetMaxVertScaleRegionWidth@CScaleAttributes@@QAEXH@Z
_TEXT	SEGMENT
_maxVertScaleRegionWidth$ = 8				; size = 4
?SetMaxVertScaleRegionWidth@CScaleAttributes@@QAEXH@Z PROC ; CScaleAttributes::SetMaxVertScaleRegionWidth, COMDAT
; _this$ = ecx

; 446  : {

  00000	55		 push	 ebp
  00001	8b ec		 mov	 ebp, esp

; 447  : 	m_scaleRegionAttributes.SetMaxVertScaleRegionWidth(maxVertScaleRegionWidth);

  00003	83 c1 04	 add	 ecx, 4

; 448  : }

  00006	5d		 pop	 ebp

; 447  : 	m_scaleRegionAttributes.SetMaxVertScaleRegionWidth(maxVertScaleRegionWidth);

  00007	e9 00 00 00 00	 jmp	 ?SetMaxVertScaleRegionWidth@CScaleRegionAttributes@@QAEXH@Z ; CScaleRegionAttributes::SetMaxVertScaleRegionWidth
?SetMaxVertScaleRegionWidth@CScaleAttributes@@QAEXH@Z ENDP ; CScaleAttributes::SetMaxVertScaleRegionWidth
_TEXT	ENDS
; Function compile flags: /Ogtp
; File D:\git\src\IBK\IBK_DRFN\ProjSrc\SrcChartEx\ChartOCX\ChartObject\ChartObjectBaseData.cpp
;	COMDAT ?SetMinVertScaleRegionWidth@CScaleAttributes@@QAEXH@Z
_TEXT	SEGMENT
_minVertScaleRegionWidth$ = 8				; size = 4
?SetMinVertScaleRegionWidth@CScaleAttributes@@QAEXH@Z PROC ; CScaleAttributes::SetMinVertScaleRegionWidth, COMDAT
; _this$ = ecx

; 441  : {

  00000	55		 push	 ebp
  00001	8b ec		 mov	 ebp, esp

; 442  : 	m_scaleRegionAttributes.SetMinVertScaleRegionWidth(minVertScaleRegionWidth);

  00003	83 c1 04	 add	 ecx, 4

; 443  : }

  00006	5d		 pop	 ebp

; 442  : 	m_scaleRegionAttributes.SetMinVertScaleRegionWidth(minVertScaleRegionWidth);

  00007	e9 00 00 00 00	 jmp	 ?SetMinVertScaleRegionWidth@CScaleRegionAttributes@@QAEXH@Z ; CScaleRegionAttributes::SetMinVertScaleRegionWidth
?SetMinVertScaleRegionWidth@CScaleAttributes@@QAEXH@Z ENDP ; CScaleAttributes::SetMinVertScaleRegionWidth
_TEXT	ENDS
; Function compile flags: /Ogtp
; File D:\git\src\IBK\IBK_DRFN\ProjSrc\SrcChartEx\ChartOCX\ChartObject\ChartObjectBaseData.cpp
;	COMDAT ?SetMinHorzScaleRegionHeight@CScaleAttributes@@QAEXH@Z
_TEXT	SEGMENT
_minHorzScaleRegionHeight$ = 8				; size = 4
?SetMinHorzScaleRegionHeight@CScaleAttributes@@QAEXH@Z PROC ; CScaleAttributes::SetMinHorzScaleRegionHeight, COMDAT
; _this$ = ecx

; 436  : {

  00000	55		 push	 ebp
  00001	8b ec		 mov	 ebp, esp

; 437  : 	m_scaleRegionAttributes.SetMinHorzScaleRegionHeight(minHorzScaleRegionHeight);

  00003	83 c1 04	 add	 ecx, 4

; 438  : }

  00006	5d		 pop	 ebp

; 437  : 	m_scaleRegionAttributes.SetMinHorzScaleRegionHeight(minHorzScaleRegionHeight);

  00007	e9 00 00 00 00	 jmp	 ?SetMinHorzScaleRegionHeight@CScaleRegionAttributes@@QAEXH@Z ; CScaleRegionAttributes::SetMinHorzScaleRegionHeight
?SetMinHorzScaleRegionHeight@CScaleAttributes@@QAEXH@Z ENDP ; CScaleAttributes::SetMinHorzScaleRegionHeight
_TEXT	ENDS
; Function compile flags: /Ogtp
; File D:\git\src\IBK\IBK_DRFN\ProjSrc\SrcChartEx\ChartOCX\ChartObject\ChartObjectBaseData.cpp
;	COMDAT ?SetScaleRegionAttributes@CScaleAttributes@@QAEXABVCScaleRegionAttributes@@@Z
_TEXT	SEGMENT
_scaleRegionAttributes$ = 8				; size = 4
?SetScaleRegionAttributes@CScaleAttributes@@QAEXABVCScaleRegionAttributes@@@Z PROC ; CScaleAttributes::SetScaleRegionAttributes, COMDAT
; _this$ = ecx

; 431  : {

  00000	55		 push	 ebp
  00001	8b ec		 mov	 ebp, esp

; 432  : 	m_scaleRegionAttributes = scaleRegionAttributes;

  00003	8b 45 08	 mov	 eax, DWORD PTR _scaleRegionAttributes$[ebp]
  00006	f3 0f 7e 00	 movq	 xmm0, QWORD PTR [eax]
  0000a	66 0f d6 41 04	 movq	 QWORD PTR [ecx+4], xmm0
  0000f	8b 40 08	 mov	 eax, DWORD PTR [eax+8]
  00012	89 41 0c	 mov	 DWORD PTR [ecx+12], eax

; 433  : }

  00015	5d		 pop	 ebp
  00016	c2 04 00	 ret	 4
?SetScaleRegionAttributes@CScaleAttributes@@QAEXABVCScaleRegionAttributes@@@Z ENDP ; CScaleAttributes::SetScaleRegionAttributes
_TEXT	ENDS
; Function compile flags: /Ogtp
; File D:\git\src\IBK\IBK_DRFN\ProjSrc\SrcChartEx\ChartOCX\ChartObject\ChartObjectBaseData.cpp
;	COMDAT ?SetOnlyPriceVertScale@CScaleAttributes@@QAEX_N@Z
_TEXT	SEGMENT
_bIsOnlyPrice$ = 8					; size = 1
?SetOnlyPriceVertScale@CScaleAttributes@@QAEX_N@Z PROC	; CScaleAttributes::SetOnlyPriceVertScale, COMDAT
; _this$ = ecx

; 426  : {

  00000	55		 push	 ebp
  00001	8b ec		 mov	 ebp, esp

; 427  : 	m_bIsOnlyPriceVertScale = bIsOnlyPrice;

  00003	8a 45 08	 mov	 al, BYTE PTR _bIsOnlyPrice$[ebp]
  00006	88 41 01	 mov	 BYTE PTR [ecx+1], al

; 428  : }

  00009	5d		 pop	 ebp
  0000a	c2 04 00	 ret	 4
?SetOnlyPriceVertScale@CScaleAttributes@@QAEX_N@Z ENDP	; CScaleAttributes::SetOnlyPriceVertScale
_TEXT	ENDS
; Function compile flags: /Ogtp
; File D:\git\src\IBK\IBK_DRFN\ProjSrc\SrcChartEx\ChartOCX\ChartObject\ChartObjectBaseData.cpp
;	COMDAT ?SetHorzScaleMessageBoxShow@CScaleAttributes@@QAEX_N@Z
_TEXT	SEGMENT
_bHorzScaleMessageBoxShow$ = 8				; size = 1
?SetHorzScaleMessageBoxShow@CScaleAttributes@@QAEX_N@Z PROC ; CScaleAttributes::SetHorzScaleMessageBoxShow, COMDAT
; _this$ = ecx

; 421  : {

  00000	55		 push	 ebp
  00001	8b ec		 mov	 ebp, esp

; 422  : 	m_bIsHorzScaleMessageBoxShow = bHorzScaleMessageBoxShow;

  00003	8a 45 08	 mov	 al, BYTE PTR _bHorzScaleMessageBoxShow$[ebp]
  00006	88 01		 mov	 BYTE PTR [ecx], al

; 423  : }

  00008	5d		 pop	 ebp
  00009	c2 04 00	 ret	 4
?SetHorzScaleMessageBoxShow@CScaleAttributes@@QAEX_N@Z ENDP ; CScaleAttributes::SetHorzScaleMessageBoxShow
_TEXT	ENDS
; Function compile flags: /Ogtp
; File D:\git\src\IBK\IBK_DRFN\ProjSrc\SrcChartEx\ChartOCX\ChartObject\ChartObjectBaseData.cpp
;	COMDAT ??0CScaleAttributes@@QAE@XZ
_TEXT	SEGMENT
??0CScaleAttributes@@QAE@XZ PROC			; CScaleAttributes::CScaleAttributes, COMDAT
; _this$ = ecx

; 417  : {

  00000	56		 push	 esi
  00001	8b f1		 mov	 esi, ecx
  00003	8d 4e 04	 lea	 ecx, DWORD PTR [esi+4]
  00006	66 c7 06 01 00	 mov	 WORD PTR [esi], 1
  0000b	e8 00 00 00 00	 call	 ??0CScaleRegionAttributes@@QAE@XZ ; CScaleRegionAttributes::CScaleRegionAttributes
  00010	8d 4e 10	 lea	 ecx, DWORD PTR [esi+16]
  00013	ff 15 00 00 00
	00		 call	 DWORD PTR __imp_??0CScaleColor@@QAE@XZ

; 418  : }

  00019	8b c6		 mov	 eax, esi
  0001b	5e		 pop	 esi
  0001c	c3		 ret	 0
??0CScaleAttributes@@QAE@XZ ENDP			; CScaleAttributes::CScaleAttributes
_TEXT	ENDS
; Function compile flags: /Ogtp
; File D:\git\src\IBK\IBK_DRFN\ProjSrc\SrcChartEx\ChartOCX\ChartObject\ChartObjectBaseData.cpp
;	COMDAT ??4CScaleAttributes@@QAEAAV0@ABV0@@Z
_TEXT	SEGMENT
$T1 = -12						; size = 12
_data$ = 8						; size = 4
??4CScaleAttributes@@QAEAAV0@ABV0@@Z PROC		; CScaleAttributes::operator=, COMDAT
; _this$ = ecx

; 403  : {

  00000	55		 push	 ebp
  00001	8b ec		 mov	 ebp, esp
  00003	83 ec 0c	 sub	 esp, 12			; 0000000cH
  00006	56		 push	 esi
  00007	8b f1		 mov	 esi, ecx

; 404  : 	if(this == &data)

  00009	8b 4d 08	 mov	 ecx, DWORD PTR _data$[ebp]
  0000c	3b f1		 cmp	 esi, ecx
  0000e	74 39		 je	 SHORT $LN8@operator

; 405  : 		return *this;
; 406  : 
; 407  : 	m_bIsHorzScaleMessageBoxShow = data.DoesHorzScaleMessageBoxShow();

  00010	0f b6 01	 movzx	 eax, BYTE PTR [ecx]
  00013	88 06		 mov	 BYTE PTR [esi], al

; 408  : 	m_bIsOnlyPriceVertScale = data.DoesOnlyPriceVertScale();

  00015	0f b6 41 01	 movzx	 eax, BYTE PTR [ecx+1]
  00019	88 46 01	 mov	 BYTE PTR [esi+1], al

; 409  : 	m_scaleRegionAttributes = data.GetScaleRegionAttributes();

  0001c	f3 0f 7e 41 04	 movq	 xmm0, QWORD PTR [ecx+4]
  00021	66 0f d6 46 04	 movq	 QWORD PTR [esi+4], xmm0
  00026	8b 41 0c	 mov	 eax, DWORD PTR [ecx+12]
  00029	89 46 0c	 mov	 DWORD PTR [esi+12], eax

; 478  : 	return m_scaleColor;

  0002c	8b 41 18	 mov	 eax, DWORD PTR [ecx+24]
  0002f	f3 0f 7e 41 10	 movq	 xmm0, QWORD PTR [ecx+16]

; 410  : 	m_scaleColor = data.GetScaleColor();

  00034	8d 4e 10	 lea	 ecx, DWORD PTR [esi+16]

; 478  : 	return m_scaleColor;

  00037	89 45 fc	 mov	 DWORD PTR $T1[ebp+8], eax

; 410  : 	m_scaleColor = data.GetScaleColor();

  0003a	8d 45 f4	 lea	 eax, DWORD PTR $T1[ebp]
  0003d	50		 push	 eax

; 478  : 	return m_scaleColor;

  0003e	66 0f d6 45 f4	 movq	 QWORD PTR $T1[ebp], xmm0

; 410  : 	m_scaleColor = data.GetScaleColor();

  00043	ff 15 00 00 00
	00		 call	 DWORD PTR __imp_??4CScaleColor@@QAEAAV0@ABV0@@Z
$LN8@operator:

; 411  : 	return *this;
; 412  : }

  00049	8b c6		 mov	 eax, esi
  0004b	5e		 pop	 esi
  0004c	8b e5		 mov	 esp, ebp
  0004e	5d		 pop	 ebp
  0004f	c2 04 00	 ret	 4
??4CScaleAttributes@@QAEAAV0@ABV0@@Z ENDP		; CScaleAttributes::operator=
_TEXT	ENDS
; Function compile flags: /Ogtp
; File D:\git\src\IBK\IBK_DRFN\ProjSrc\SrcChartEx\ChartOCX\ChartObject\ChartObjectBaseData.cpp
;	COMDAT ?GetEtcGraphColor@CGraphAttributes@@QBE?AVCEtcGraphColor@@XZ
_TEXT	SEGMENT
___$ReturnUdt$ = 8					; size = 4
?GetEtcGraphColor@CGraphAttributes@@QBE?AVCEtcGraphColor@@XZ PROC ; CGraphAttributes::GetEtcGraphColor, COMDAT
; _this$ = ecx

; 394  : {

  00000	55		 push	 ebp
  00001	8b ec		 mov	 ebp, esp

; 395  : 	return m_etcGraphColor;

  00003	8b 45 08	 mov	 eax, DWORD PTR ___$ReturnUdt$[ebp]
  00006	0f 10 41 1c	 movups	 xmm0, XMMWORD PTR [ecx+28]
  0000a	0f 11 00	 movups	 XMMWORD PTR [eax], xmm0
  0000d	f3 0f 7e 41 2c	 movq	 xmm0, QWORD PTR [ecx+44]
  00012	66 0f d6 40 10	 movq	 QWORD PTR [eax+16], xmm0

; 396  : }

  00017	5d		 pop	 ebp
  00018	c2 04 00	 ret	 4
?GetEtcGraphColor@CGraphAttributes@@QBE?AVCEtcGraphColor@@XZ ENDP ; CGraphAttributes::GetEtcGraphColor
_TEXT	ENDS
; Function compile flags: /Ogtp
; File D:\git\src\IBK\IBK_DRFN\ProjSrc\SrcChartEx\ChartOCX\ChartObject\ChartObjectBaseData.cpp
;	COMDAT ?GetGraphRegionColor@CGraphAttributes@@QBE?AVCGraphRegionColor@@XZ
_TEXT	SEGMENT
___$ReturnUdt$ = 8					; size = 4
?GetGraphRegionColor@CGraphAttributes@@QBE?AVCGraphRegionColor@@XZ PROC ; CGraphAttributes::GetGraphRegionColor, COMDAT
; _this$ = ecx

; 389  : {

  00000	55		 push	 ebp
  00001	8b ec		 mov	 ebp, esp

; 390  : 	return m_graphRegionColor;

  00003	8b 45 08	 mov	 eax, DWORD PTR ___$ReturnUdt$[ebp]
  00006	f3 0f 7e 41 10	 movq	 xmm0, QWORD PTR [ecx+16]
  0000b	8b 49 18	 mov	 ecx, DWORD PTR [ecx+24]
  0000e	66 0f d6 00	 movq	 QWORD PTR [eax], xmm0
  00012	89 48 08	 mov	 DWORD PTR [eax+8], ecx

; 391  : }

  00015	5d		 pop	 ebp
  00016	c2 04 00	 ret	 4
?GetGraphRegionColor@CGraphAttributes@@QBE?AVCGraphRegionColor@@XZ ENDP ; CGraphAttributes::GetGraphRegionColor
_TEXT	ENDS
; Function compile flags: /Ogtp
; File D:\git\src\IBK\IBK_DRFN\ProjSrc\SrcChartEx\ChartOCX\ChartObject\ChartObjectBaseData.cpp
;	COMDAT ?GetGraphRegionFrameThickness@CGraphAttributes@@QBEHXZ
_TEXT	SEGMENT
?GetGraphRegionFrameThickness@CGraphAttributes@@QBEHXZ PROC ; CGraphAttributes::GetGraphRegionFrameThickness, COMDAT
; _this$ = ecx

; 385  : 	return m_nGraphRegionFrameThickness;

  00000	8b 41 0c	 mov	 eax, DWORD PTR [ecx+12]

; 386  : }

  00003	c3		 ret	 0
?GetGraphRegionFrameThickness@CGraphAttributes@@QBEHXZ ENDP ; CGraphAttributes::GetGraphRegionFrameThickness
_TEXT	ENDS
; Function compile flags: /Ogtp
; File D:\git\src\IBK\IBK_DRFN\ProjSrc\SrcChartEx\ChartOCX\ChartObject\ChartObjectBaseData.cpp
;	COMDAT ?GetGraphBackgroundGapY@CGraphAttributes@@QBEHXZ
_TEXT	SEGMENT
?GetGraphBackgroundGapY@CGraphAttributes@@QBEHXZ PROC	; CGraphAttributes::GetGraphBackgroundGapY, COMDAT
; _this$ = ecx

; 380  : 	return m_nGraphBackgroundGapY;

  00000	8b 41 08	 mov	 eax, DWORD PTR [ecx+8]

; 381  : }

  00003	c3		 ret	 0
?GetGraphBackgroundGapY@CGraphAttributes@@QBEHXZ ENDP	; CGraphAttributes::GetGraphBackgroundGapY
_TEXT	ENDS
; Function compile flags: /Ogtp
; File D:\git\src\IBK\IBK_DRFN\ProjSrc\SrcChartEx\ChartOCX\ChartObject\ChartObjectBaseData.cpp
;	COMDAT ?GetGraphBackgroundGapX@CGraphAttributes@@QBEHXZ
_TEXT	SEGMENT
?GetGraphBackgroundGapX@CGraphAttributes@@QBEHXZ PROC	; CGraphAttributes::GetGraphBackgroundGapX, COMDAT
; _this$ = ecx

; 375  : 	return m_nGraphBackgroundGapX;

  00000	8b 41 04	 mov	 eax, DWORD PTR [ecx+4]

; 376  : }

  00003	c3		 ret	 0
?GetGraphBackgroundGapX@CGraphAttributes@@QBEHXZ ENDP	; CGraphAttributes::GetGraphBackgroundGapX
_TEXT	ENDS
; Function compile flags: /Ogtp
; File D:\git\src\IBK\IBK_DRFN\ProjSrc\SrcChartEx\ChartOCX\ChartObject\ChartObjectBaseData.cpp
;	COMDAT ?DoesAutoDeleteIndicatorInfo@CGraphAttributes@@QBE_NXZ
_TEXT	SEGMENT
?DoesAutoDeleteIndicatorInfo@CGraphAttributes@@QBE_NXZ PROC ; CGraphAttributes::DoesAutoDeleteIndicatorInfo, COMDAT
; _this$ = ecx

; 370  : 	return m_bIsAutoDeleteIndicatorInfo;

  00000	8a 41 03	 mov	 al, BYTE PTR [ecx+3]

; 371  : }

  00003	c3		 ret	 0
?DoesAutoDeleteIndicatorInfo@CGraphAttributes@@QBE_NXZ ENDP ; CGraphAttributes::DoesAutoDeleteIndicatorInfo
_TEXT	ENDS
; Function compile flags: /Ogtp
; File D:\git\src\IBK\IBK_DRFN\ProjSrc\SrcChartEx\ChartOCX\ChartObject\ChartObjectBaseData.cpp
;	COMDAT ?DoesDataTitleDraw@CGraphAttributes@@QBE_NXZ
_TEXT	SEGMENT
?DoesDataTitleDraw@CGraphAttributes@@QBE_NXZ PROC	; CGraphAttributes::DoesDataTitleDraw, COMDAT
; _this$ = ecx

; 365  : 	return m_bIsDataTitleDraw;

  00000	8a 41 02	 mov	 al, BYTE PTR [ecx+2]

; 366  : }

  00003	c3		 ret	 0
?DoesDataTitleDraw@CGraphAttributes@@QBE_NXZ ENDP	; CGraphAttributes::DoesDataTitleDraw
_TEXT	ENDS
; Function compile flags: /Ogtp
; File D:\git\src\IBK\IBK_DRFN\ProjSrc\SrcChartEx\ChartOCX\ChartObject\ChartObjectBaseData.cpp
;	COMDAT ?DoesConditionTitleDraw@CGraphAttributes@@QBE_NXZ
_TEXT	SEGMENT
?DoesConditionTitleDraw@CGraphAttributes@@QBE_NXZ PROC	; CGraphAttributes::DoesConditionTitleDraw, COMDAT
; _this$ = ecx

; 360  : 	return m_bIsConditionTitleDraw;

  00000	8a 41 01	 mov	 al, BYTE PTR [ecx+1]

; 361  : }

  00003	c3		 ret	 0
?DoesConditionTitleDraw@CGraphAttributes@@QBE_NXZ ENDP	; CGraphAttributes::DoesConditionTitleDraw
_TEXT	ENDS
; Function compile flags: /Ogtp
; File D:\git\src\IBK\IBK_DRFN\ProjSrc\SrcChartEx\ChartOCX\ChartObject\ChartObjectBaseData.cpp
;	COMDAT ?DoesAllTitleDrawHiding@CGraphAttributes@@QBE_NXZ
_TEXT	SEGMENT
?DoesAllTitleDrawHiding@CGraphAttributes@@QBE_NXZ PROC	; CGraphAttributes::DoesAllTitleDrawHiding, COMDAT
; _this$ = ecx

; 355  : 	return m_bIsAllTitleDrawHiding;

  00000	8a 01		 mov	 al, BYTE PTR [ecx]

; 356  : }

  00002	c3		 ret	 0
?DoesAllTitleDrawHiding@CGraphAttributes@@QBE_NXZ ENDP	; CGraphAttributes::DoesAllTitleDrawHiding
_TEXT	ENDS
; Function compile flags: /Ogtp
; File D:\git\src\IBK\IBK_DRFN\ProjSrc\SrcChartEx\ChartOCX\ChartObject\ChartObjectBaseData.cpp
;	COMDAT ?SetEtcGraphColor@CGraphAttributes@@QAEXABVCEtcGraphColor@@@Z
_TEXT	SEGMENT
_etcGraphColor$ = 8					; size = 4
?SetEtcGraphColor@CGraphAttributes@@QAEXABVCEtcGraphColor@@@Z PROC ; CGraphAttributes::SetEtcGraphColor, COMDAT
; _this$ = ecx

; 348  : {

  00000	55		 push	 ebp
  00001	8b ec		 mov	 ebp, esp

; 349  : 	m_etcGraphColor = etcGraphColor;

  00003	83 c1 1c	 add	 ecx, 28			; 0000001cH

; 350  : }

  00006	5d		 pop	 ebp

; 349  : 	m_etcGraphColor = etcGraphColor;

  00007	ff 25 00 00 00
	00		 jmp	 DWORD PTR __imp_??4CEtcGraphColor@@QAEAAV0@ABV0@@Z
?SetEtcGraphColor@CGraphAttributes@@QAEXABVCEtcGraphColor@@@Z ENDP ; CGraphAttributes::SetEtcGraphColor
_TEXT	ENDS
; Function compile flags: /Ogtp
; File D:\git\src\IBK\IBK_DRFN\ProjSrc\SrcChartEx\ChartOCX\ChartObject\ChartObjectBaseData.cpp
;	COMDAT ?SetGraphRegionColor@CGraphAttributes@@QAEXABVCGraphRegionColor@@@Z
_TEXT	SEGMENT
_graphRegionColor$ = 8					; size = 4
?SetGraphRegionColor@CGraphAttributes@@QAEXABVCGraphRegionColor@@@Z PROC ; CGraphAttributes::SetGraphRegionColor, COMDAT
; _this$ = ecx

; 343  : {

  00000	55		 push	 ebp
  00001	8b ec		 mov	 ebp, esp

; 344  : 	m_graphRegionColor = graphRegionColor;

  00003	83 c1 10	 add	 ecx, 16			; 00000010H

; 345  : }

  00006	5d		 pop	 ebp

; 344  : 	m_graphRegionColor = graphRegionColor;

  00007	ff 25 00 00 00
	00		 jmp	 DWORD PTR __imp_??4CGraphRegionColor@@QAEAAV0@ABV0@@Z
?SetGraphRegionColor@CGraphAttributes@@QAEXABVCGraphRegionColor@@@Z ENDP ; CGraphAttributes::SetGraphRegionColor
_TEXT	ENDS
; Function compile flags: /Ogtp
; File D:\git\src\IBK\IBK_DRFN\ProjSrc\SrcChartEx\ChartOCX\ChartObject\ChartObjectBaseData.cpp
;	COMDAT ?SetGraphRegionFrameThickness@CGraphAttributes@@QAEXH@Z
_TEXT	SEGMENT
_nThickness$ = 8					; size = 4
?SetGraphRegionFrameThickness@CGraphAttributes@@QAEXH@Z PROC ; CGraphAttributes::SetGraphRegionFrameThickness, COMDAT
; _this$ = ecx

; 338  : {

  00000	55		 push	 ebp
  00001	8b ec		 mov	 ebp, esp

; 339  : 	m_nGraphRegionFrameThickness = nThickness;

  00003	8b 45 08	 mov	 eax, DWORD PTR _nThickness$[ebp]
  00006	89 41 0c	 mov	 DWORD PTR [ecx+12], eax

; 340  : }

  00009	5d		 pop	 ebp
  0000a	c2 04 00	 ret	 4
?SetGraphRegionFrameThickness@CGraphAttributes@@QAEXH@Z ENDP ; CGraphAttributes::SetGraphRegionFrameThickness
_TEXT	ENDS
; Function compile flags: /Ogtp
; File D:\git\src\IBK\IBK_DRFN\ProjSrc\SrcChartEx\ChartOCX\ChartObject\ChartObjectBaseData.cpp
;	COMDAT ?SetGraphBackgroundGap@CGraphAttributes@@QAEXHH@Z
_TEXT	SEGMENT
_nGapX$ = 8						; size = 4
_nGapY$ = 12						; size = 4
?SetGraphBackgroundGap@CGraphAttributes@@QAEXHH@Z PROC	; CGraphAttributes::SetGraphBackgroundGap, COMDAT
; _this$ = ecx

; 332  : {

  00000	55		 push	 ebp
  00001	8b ec		 mov	 ebp, esp

; 333  : 	m_nGraphBackgroundGapX = nGapX;

  00003	8b 45 08	 mov	 eax, DWORD PTR _nGapX$[ebp]
  00006	89 41 04	 mov	 DWORD PTR [ecx+4], eax

; 334  : 	m_nGraphBackgroundGapY = nGapY;

  00009	8b 45 0c	 mov	 eax, DWORD PTR _nGapY$[ebp]
  0000c	89 41 08	 mov	 DWORD PTR [ecx+8], eax

; 335  : }

  0000f	5d		 pop	 ebp
  00010	c2 08 00	 ret	 8
?SetGraphBackgroundGap@CGraphAttributes@@QAEXHH@Z ENDP	; CGraphAttributes::SetGraphBackgroundGap
_TEXT	ENDS
; Function compile flags: /Ogtp
; File D:\git\src\IBK\IBK_DRFN\ProjSrc\SrcChartEx\ChartOCX\ChartObject\ChartObjectBaseData.cpp
;	COMDAT ?SetAutoDeleteIndicatorInfo@CGraphAttributes@@QAEX_N@Z
_TEXT	SEGMENT
_bIsAutoDeleteIndicatorInfo$ = 8			; size = 1
?SetAutoDeleteIndicatorInfo@CGraphAttributes@@QAEX_N@Z PROC ; CGraphAttributes::SetAutoDeleteIndicatorInfo, COMDAT
; _this$ = ecx

; 327  : {

  00000	55		 push	 ebp
  00001	8b ec		 mov	 ebp, esp

; 328  : 	m_bIsAutoDeleteIndicatorInfo = bIsAutoDeleteIndicatorInfo;

  00003	8a 45 08	 mov	 al, BYTE PTR _bIsAutoDeleteIndicatorInfo$[ebp]
  00006	88 41 03	 mov	 BYTE PTR [ecx+3], al

; 329  : }

  00009	5d		 pop	 ebp
  0000a	c2 04 00	 ret	 4
?SetAutoDeleteIndicatorInfo@CGraphAttributes@@QAEX_N@Z ENDP ; CGraphAttributes::SetAutoDeleteIndicatorInfo
_TEXT	ENDS
; Function compile flags: /Ogtp
; File D:\git\src\IBK\IBK_DRFN\ProjSrc\SrcChartEx\ChartOCX\ChartObject\ChartObjectBaseData.cpp
;	COMDAT ?SetGraphTitleDraw@CGraphAttributes@@QAEX_N0@Z
_TEXT	SEGMENT
_bIsCondition$ = 8					; size = 1
_bIsData$ = 12						; size = 1
?SetGraphTitleDraw@CGraphAttributes@@QAEX_N0@Z PROC	; CGraphAttributes::SetGraphTitleDraw, COMDAT
; _this$ = ecx

; 321  : {

  00000	55		 push	 ebp
  00001	8b ec		 mov	 ebp, esp

; 322  : 	m_bIsConditionTitleDraw = bIsCondition;

  00003	8a 45 08	 mov	 al, BYTE PTR _bIsCondition$[ebp]
  00006	88 41 01	 mov	 BYTE PTR [ecx+1], al

; 323  : 	m_bIsDataTitleDraw = bIsData;

  00009	8a 45 0c	 mov	 al, BYTE PTR _bIsData$[ebp]
  0000c	88 41 02	 mov	 BYTE PTR [ecx+2], al

; 324  : }

  0000f	5d		 pop	 ebp
  00010	c2 08 00	 ret	 8
?SetGraphTitleDraw@CGraphAttributes@@QAEX_N0@Z ENDP	; CGraphAttributes::SetGraphTitleDraw
_TEXT	ENDS
; Function compile flags: /Ogtp
; File D:\git\src\IBK\IBK_DRFN\ProjSrc\SrcChartEx\ChartOCX\ChartObject\ChartObjectBaseData.cpp
;	COMDAT ?SetAllGraphsTitleDrawHiding@CGraphAttributes@@QAEX_N@Z
_TEXT	SEGMENT
_bIsAllTitleDrawHiding$ = 8				; size = 1
?SetAllGraphsTitleDrawHiding@CGraphAttributes@@QAEX_N@Z PROC ; CGraphAttributes::SetAllGraphsTitleDrawHiding, COMDAT
; _this$ = ecx

; 316  : {

  00000	55		 push	 ebp
  00001	8b ec		 mov	 ebp, esp

; 317  : 	m_bIsAllTitleDrawHiding = bIsAllTitleDrawHiding;

  00003	8a 45 08	 mov	 al, BYTE PTR _bIsAllTitleDrawHiding$[ebp]
  00006	88 01		 mov	 BYTE PTR [ecx], al

; 318  : }

  00008	5d		 pop	 ebp
  00009	c2 04 00	 ret	 4
?SetAllGraphsTitleDrawHiding@CGraphAttributes@@QAEX_N@Z ENDP ; CGraphAttributes::SetAllGraphsTitleDrawHiding
_TEXT	ENDS
; Function compile flags: /Ogtp
; File D:\git\src\IBK\IBK_DRFN\ProjSrc\SrcChartEx\ChartOCX\ChartObject\ChartObjectBaseData.cpp
;	COMDAT ??0CGraphAttributes@@QAE@XZ
_TEXT	SEGMENT
??0CGraphAttributes@@QAE@XZ PROC			; CGraphAttributes::CGraphAttributes, COMDAT
; _this$ = ecx

; 312  : {

  00000	56		 push	 esi
  00001	8b f1		 mov	 esi, ecx
  00003	8d 4e 10	 lea	 ecx, DWORD PTR [esi+16]
  00006	c7 06 00 00 00
	00		 mov	 DWORD PTR [esi], 0
  0000c	c7 46 04 00 00
	00 00		 mov	 DWORD PTR [esi+4], 0
  00013	c7 46 08 00 00
	00 00		 mov	 DWORD PTR [esi+8], 0
  0001a	c7 46 0c 01 00
	00 00		 mov	 DWORD PTR [esi+12], 1
  00021	ff 15 00 00 00
	00		 call	 DWORD PTR __imp_??0CGraphRegionColor@@QAE@XZ
  00027	8d 4e 1c	 lea	 ecx, DWORD PTR [esi+28]
  0002a	ff 15 00 00 00
	00		 call	 DWORD PTR __imp_??0CEtcGraphColor@@QAE@XZ

; 313  : }

  00030	8b c6		 mov	 eax, esi
  00032	5e		 pop	 esi
  00033	c3		 ret	 0
??0CGraphAttributes@@QAE@XZ ENDP			; CGraphAttributes::CGraphAttributes
_TEXT	ENDS
; Function compile flags: /Ogtp
; File D:\git\src\IBK\IBK_DRFN\ProjSrc\SrcChartEx\ChartOCX\ChartObject\ChartObjectBaseData.cpp
;	COMDAT ??4CGraphAttributes@@QAEAAV0@ABV0@@Z
_TEXT	SEGMENT
$T1 = -24						; size = 24
$T2 = -12						; size = 12
_data$ = 8						; size = 4
??4CGraphAttributes@@QAEAAV0@ABV0@@Z PROC		; CGraphAttributes::operator=, COMDAT
; _this$ = ecx

; 288  : {

  00000	55		 push	 ebp
  00001	8b ec		 mov	 ebp, esp
  00003	83 ec 18	 sub	 esp, 24			; 00000018H
  00006	56		 push	 esi
  00007	57		 push	 edi

; 289  : 	if(this == &data)

  00008	8b 7d 08	 mov	 edi, DWORD PTR _data$[ebp]
  0000b	8b f1		 mov	 esi, ecx
  0000d	3b f7		 cmp	 esi, edi
  0000f	74 68		 je	 SHORT $LN8@operator

; 290  : 		return *this;
; 291  : 
; 292  : 	m_bIsAllTitleDrawHiding = data.DoesAllTitleDrawHiding();

  00011	0f b6 07	 movzx	 eax, BYTE PTR [edi]

; 293  : 	m_bIsConditionTitleDraw = data.DoesConditionTitleDraw();
; 294  : 	m_bIsDataTitleDraw = data.DoesDataTitleDraw();
; 295  : 	m_bIsAutoDeleteIndicatorInfo = data.DoesAutoDeleteIndicatorInfo();
; 296  : 	m_nGraphBackgroundGapX = data.GetGraphBackgroundGapX();
; 297  : 	m_nGraphBackgroundGapY = data.GetGraphBackgroundGapY();
; 298  : 	m_nGraphRegionFrameThickness = data.GetGraphRegionFrameThickness();
; 299  : 	m_graphRegionColor = data.GetGraphRegionColor();

  00014	8d 4e 10	 lea	 ecx, DWORD PTR [esi+16]
  00017	88 06		 mov	 BYTE PTR [esi], al
  00019	0f b6 47 01	 movzx	 eax, BYTE PTR [edi+1]
  0001d	88 46 01	 mov	 BYTE PTR [esi+1], al
  00020	0f b6 47 02	 movzx	 eax, BYTE PTR [edi+2]
  00024	88 46 02	 mov	 BYTE PTR [esi+2], al
  00027	0f b6 47 03	 movzx	 eax, BYTE PTR [edi+3]
  0002b	88 46 03	 mov	 BYTE PTR [esi+3], al
  0002e	8b 47 04	 mov	 eax, DWORD PTR [edi+4]
  00031	89 46 04	 mov	 DWORD PTR [esi+4], eax
  00034	8b 47 08	 mov	 eax, DWORD PTR [edi+8]
  00037	89 46 08	 mov	 DWORD PTR [esi+8], eax
  0003a	8b 47 0c	 mov	 eax, DWORD PTR [edi+12]
  0003d	89 46 0c	 mov	 DWORD PTR [esi+12], eax

; 390  : 	return m_graphRegionColor;

  00040	8b 47 18	 mov	 eax, DWORD PTR [edi+24]
  00043	f3 0f 7e 47 10	 movq	 xmm0, QWORD PTR [edi+16]
  00048	89 45 fc	 mov	 DWORD PTR $T2[ebp+8], eax

; 293  : 	m_bIsConditionTitleDraw = data.DoesConditionTitleDraw();
; 294  : 	m_bIsDataTitleDraw = data.DoesDataTitleDraw();
; 295  : 	m_bIsAutoDeleteIndicatorInfo = data.DoesAutoDeleteIndicatorInfo();
; 296  : 	m_nGraphBackgroundGapX = data.GetGraphBackgroundGapX();
; 297  : 	m_nGraphBackgroundGapY = data.GetGraphBackgroundGapY();
; 298  : 	m_nGraphRegionFrameThickness = data.GetGraphRegionFrameThickness();
; 299  : 	m_graphRegionColor = data.GetGraphRegionColor();

  0004b	8d 45 f4	 lea	 eax, DWORD PTR $T2[ebp]
  0004e	50		 push	 eax

; 390  : 	return m_graphRegionColor;

  0004f	66 0f d6 45 f4	 movq	 QWORD PTR $T2[ebp], xmm0

; 293  : 	m_bIsConditionTitleDraw = data.DoesConditionTitleDraw();
; 294  : 	m_bIsDataTitleDraw = data.DoesDataTitleDraw();
; 295  : 	m_bIsAutoDeleteIndicatorInfo = data.DoesAutoDeleteIndicatorInfo();
; 296  : 	m_nGraphBackgroundGapX = data.GetGraphBackgroundGapX();
; 297  : 	m_nGraphBackgroundGapY = data.GetGraphBackgroundGapY();
; 298  : 	m_nGraphRegionFrameThickness = data.GetGraphRegionFrameThickness();
; 299  : 	m_graphRegionColor = data.GetGraphRegionColor();

  00054	ff 15 00 00 00
	00		 call	 DWORD PTR __imp_??4CGraphRegionColor@@QAEAAV0@ABV0@@Z

; 395  : 	return m_etcGraphColor;

  0005a	0f 10 47 1c	 movups	 xmm0, XMMWORD PTR [edi+28]

; 300  : 	m_etcGraphColor = data.GetEtcGraphColor();

  0005e	8d 45 e8	 lea	 eax, DWORD PTR $T1[ebp]
  00061	50		 push	 eax

; 395  : 	return m_etcGraphColor;

  00062	0f 11 45 e8	 movups	 XMMWORD PTR $T1[ebp], xmm0

; 300  : 	m_etcGraphColor = data.GetEtcGraphColor();

  00066	8d 4e 1c	 lea	 ecx, DWORD PTR [esi+28]

; 395  : 	return m_etcGraphColor;

  00069	f3 0f 7e 47 2c	 movq	 xmm0, QWORD PTR [edi+44]
  0006e	66 0f d6 45 f8	 movq	 QWORD PTR $T1[ebp+16], xmm0

; 300  : 	m_etcGraphColor = data.GetEtcGraphColor();

  00073	ff 15 00 00 00
	00		 call	 DWORD PTR __imp_??4CEtcGraphColor@@QAEAAV0@ABV0@@Z
$LN8@operator:

; 301  : 	return *this;
; 302  : }

  00079	5f		 pop	 edi
  0007a	8b c6		 mov	 eax, esi
  0007c	5e		 pop	 esi
  0007d	8b e5		 mov	 esp, ebp
  0007f	5d		 pop	 ebp
  00080	c2 04 00	 ret	 4
??4CGraphAttributes@@QAEAAV0@ABV0@@Z ENDP		; CGraphAttributes::operator=
_TEXT	ENDS
; Function compile flags: /Ogtp
; File D:\git\src\IBK\IBK_DRFN\ProjSrc\SrcChartEx\ChartOCX\ChartObject\ChartObjectBaseData.cpp
;	COMDAT ?GetMaxBlocksCountInView@CBlockAttributes@@QBEHXZ
_TEXT	SEGMENT
?GetMaxBlocksCountInView@CBlockAttributes@@QBEHXZ PROC	; CBlockAttributes::GetMaxBlocksCountInView, COMDAT
; _this$ = ecx

; 280  : 	return m_nMaxBlocksCountInView;

  00000	8b 41 08	 mov	 eax, DWORD PTR [ecx+8]

; 281  : }

  00003	c3		 ret	 0
?GetMaxBlocksCountInView@CBlockAttributes@@QBEHXZ ENDP	; CBlockAttributes::GetMaxBlocksCountInView
_TEXT	ENDS
; Function compile flags: /Ogtp
; File D:\git\src\IBK\IBK_DRFN\ProjSrc\SrcChartEx\ChartOCX\ChartObject\ChartObjectBaseData.cpp
;	COMDAT ?GetBlockCompartType@CBlockAttributes@@QBE?AW4BLOCKCOMPART@CBlockBaseData@@XZ
_TEXT	SEGMENT
?GetBlockCompartType@CBlockAttributes@@QBE?AW4BLOCKCOMPART@CBlockBaseData@@XZ PROC ; CBlockAttributes::GetBlockCompartType, COMDAT
; _this$ = ecx

; 275  : 	return m_eBlockCompartType;

  00000	8b 41 04	 mov	 eax, DWORD PTR [ecx+4]

; 276  : }

  00003	c3		 ret	 0
?GetBlockCompartType@CBlockAttributes@@QBE?AW4BLOCKCOMPART@CBlockBaseData@@XZ ENDP ; CBlockAttributes::GetBlockCompartType
_TEXT	ENDS
; Function compile flags: /Ogtp
; File D:\git\src\IBK\IBK_DRFN\ProjSrc\SrcChartEx\ChartOCX\ChartObject\ChartObjectBaseData.cpp
;	COMDAT ?GetBlockType@CBlockAttributes@@QBE?AW4BLOCKTYPE@CBlockBaseData@@XZ
_TEXT	SEGMENT
?GetBlockType@CBlockAttributes@@QBE?AW4BLOCKTYPE@CBlockBaseData@@XZ PROC ; CBlockAttributes::GetBlockType, COMDAT
; _this$ = ecx

; 270  : 	return m_eBlockType;

  00000	8b 01		 mov	 eax, DWORD PTR [ecx]

; 271  : }

  00002	c3		 ret	 0
?GetBlockType@CBlockAttributes@@QBE?AW4BLOCKTYPE@CBlockBaseData@@XZ ENDP ; CBlockAttributes::GetBlockType
_TEXT	ENDS
; Function compile flags: /Ogtp
; File D:\git\src\IBK\IBK_DRFN\ProjSrc\SrcChartEx\ChartOCX\ChartObject\ChartObjectBaseData.cpp
;	COMDAT ?SetMaxBlocksCountInView@CBlockAttributes@@QAEXH@Z
_TEXT	SEGMENT
_maxBlocksCountInView$ = 8				; size = 4
?SetMaxBlocksCountInView@CBlockAttributes@@QAEXH@Z PROC	; CBlockAttributes::SetMaxBlocksCountInView, COMDAT
; _this$ = ecx

; 263  : {

  00000	55		 push	 ebp
  00001	8b ec		 mov	 ebp, esp

; 264  : 	m_nMaxBlocksCountInView = maxBlocksCountInView;

  00003	8b 45 08	 mov	 eax, DWORD PTR _maxBlocksCountInView$[ebp]
  00006	89 41 08	 mov	 DWORD PTR [ecx+8], eax

; 265  : }

  00009	5d		 pop	 ebp
  0000a	c2 04 00	 ret	 4
?SetMaxBlocksCountInView@CBlockAttributes@@QAEXH@Z ENDP	; CBlockAttributes::SetMaxBlocksCountInView
_TEXT	ENDS
; Function compile flags: /Ogtp
; File D:\git\src\IBK\IBK_DRFN\ProjSrc\SrcChartEx\ChartOCX\ChartObject\ChartObjectBaseData.cpp
;	COMDAT ?SetBlockCompartType@CBlockAttributes@@QAEXW4BLOCKCOMPART@CBlockBaseData@@@Z
_TEXT	SEGMENT
_eBlockCompartType$ = 8					; size = 4
?SetBlockCompartType@CBlockAttributes@@QAEXW4BLOCKCOMPART@CBlockBaseData@@@Z PROC ; CBlockAttributes::SetBlockCompartType, COMDAT
; _this$ = ecx

; 258  : {

  00000	55		 push	 ebp
  00001	8b ec		 mov	 ebp, esp

; 259  : 	m_eBlockCompartType = eBlockCompartType;

  00003	8b 45 08	 mov	 eax, DWORD PTR _eBlockCompartType$[ebp]
  00006	89 41 04	 mov	 DWORD PTR [ecx+4], eax

; 260  : }

  00009	5d		 pop	 ebp
  0000a	c2 04 00	 ret	 4
?SetBlockCompartType@CBlockAttributes@@QAEXW4BLOCKCOMPART@CBlockBaseData@@@Z ENDP ; CBlockAttributes::SetBlockCompartType
_TEXT	ENDS
; Function compile flags: /Ogtp
; File D:\git\src\IBK\IBK_DRFN\ProjSrc\SrcChartEx\ChartOCX\ChartObject\ChartObjectBaseData.cpp
;	COMDAT ?SetBlockType@CBlockAttributes@@QAEXW4BLOCKTYPE@CBlockBaseData@@@Z
_TEXT	SEGMENT
_eBlockType$ = 8					; size = 4
?SetBlockType@CBlockAttributes@@QAEXW4BLOCKTYPE@CBlockBaseData@@@Z PROC ; CBlockAttributes::SetBlockType, COMDAT
; _this$ = ecx

; 253  : {

  00000	55		 push	 ebp
  00001	8b ec		 mov	 ebp, esp

; 254  : 	m_eBlockType = eBlockType;

  00003	8b 45 08	 mov	 eax, DWORD PTR _eBlockType$[ebp]
  00006	89 01		 mov	 DWORD PTR [ecx], eax

; 255  : }

  00008	5d		 pop	 ebp
  00009	c2 04 00	 ret	 4
?SetBlockType@CBlockAttributes@@QAEXW4BLOCKTYPE@CBlockBaseData@@@Z ENDP ; CBlockAttributes::SetBlockType
_TEXT	ENDS
; Function compile flags: /Ogtp
; File D:\git\src\IBK\IBK_DRFN\ProjSrc\SrcChartEx\ChartOCX\ChartObject\ChartObjectBaseData.cpp
;	COMDAT ??0CBlockAttributes@@QAE@XZ
_TEXT	SEGMENT
??0CBlockAttributes@@QAE@XZ PROC			; CBlockAttributes::CBlockAttributes, COMDAT
; _this$ = ecx

; 246  : 	m_eBlockType(CBlockBaseData::ROW),

  00000	c7 01 00 00 00
	00		 mov	 DWORD PTR [ecx], 0

; 250  : }

  00006	8b c1		 mov	 eax, ecx
  00008	c7 41 04 00 00
	00 00		 mov	 DWORD PTR [ecx+4], 0
  0000f	c7 41 08 05 00
	00 00		 mov	 DWORD PTR [ecx+8], 5
  00016	c3		 ret	 0
??0CBlockAttributes@@QAE@XZ ENDP			; CBlockAttributes::CBlockAttributes
_TEXT	ENDS
; Function compile flags: /Ogtp
; File D:\git\src\IBK\IBK_DRFN\ProjSrc\SrcChartEx\ChartOCX\ChartObject\ChartObjectBaseData.cpp
;	COMDAT ??4CBlockAttributes@@QAEAAV0@ABV0@@Z
_TEXT	SEGMENT
_data$ = 8						; size = 4
??4CBlockAttributes@@QAEAAV0@ABV0@@Z PROC		; CBlockAttributes::operator=, COMDAT
; _this$ = ecx

; 235  : {

  00000	55		 push	 ebp
  00001	8b ec		 mov	 ebp, esp

; 236  : 	if(this == &data)

  00003	8b 55 08	 mov	 edx, DWORD PTR _data$[ebp]
  00006	3b ca		 cmp	 ecx, edx
  00008	74 10		 je	 SHORT $LN4@operator

; 237  : 		return *this;
; 238  : 
; 239  : 	m_eBlockType = data.GetBlockType();

  0000a	8b 02		 mov	 eax, DWORD PTR [edx]
  0000c	89 01		 mov	 DWORD PTR [ecx], eax

; 240  : 	m_eBlockCompartType = data.GetBlockCompartType();

  0000e	8b 42 04	 mov	 eax, DWORD PTR [edx+4]
  00011	89 41 04	 mov	 DWORD PTR [ecx+4], eax

; 241  : 	m_nMaxBlocksCountInView = data.GetMaxBlocksCountInView();

  00014	8b 42 08	 mov	 eax, DWORD PTR [edx+8]
  00017	89 41 08	 mov	 DWORD PTR [ecx+8], eax
$LN4@operator:

; 242  : 	return *this;
; 243  : }

  0001a	8b c1		 mov	 eax, ecx
  0001c	5d		 pop	 ebp
  0001d	c2 04 00	 ret	 4
??4CBlockAttributes@@QAEAAV0@ABV0@@Z ENDP		; CBlockAttributes::operator=
_TEXT	ENDS
; Function compile flags: /Ogtp
;	COMDAT ??1CMainAttributes@@QAE@XZ
_TEXT	SEGMENT
??1CMainAttributes@@QAE@XZ PROC				; CMainAttributes::~CMainAttributes, COMDAT
; _this$ = ecx
  00000	83 c1 04	 add	 ecx, 4
  00003	ff 25 00 00 00
	00		 jmp	 DWORD PTR __imp_??1?$CStringT@DV?$StrTraitMFC_DLL@DV?$ChTraitsCRT@D@ATL@@@@@ATL@@QAE@XZ
??1CMainAttributes@@QAE@XZ ENDP				; CMainAttributes::~CMainAttributes
_TEXT	ENDS
; Function compile flags: /Ogtp
; File D:\git\src\IBK\IBK_DRFN\ProjSrc\SrcChartEx\ChartOCX\ChartObject\ChartObjectBaseData.cpp
;	COMDAT ?GetChartMode@CMainAttributes@@QBE?AW4CHART_MODE@CChartInfo@@XZ
_TEXT	SEGMENT
?GetChartMode@CMainAttributes@@QBE?AW4CHART_MODE@CChartInfo@@XZ PROC ; CMainAttributes::GetChartMode, COMDAT
; _this$ = ecx

; 227  : 	if( !m_pIChartCtrl) return CChartInfo::DEVELOPER;

  00000	8b 49 0c	 mov	 ecx, DWORD PTR [ecx+12]
  00003	85 c9		 test	 ecx, ecx
  00005	75 03		 jne	 SHORT $LN2@GetChartMo
  00007	33 c0		 xor	 eax, eax

; 229  : }

  00009	c3		 ret	 0
$LN2@GetChartMo:

; 228  : 	return m_pIChartCtrl->GetChartMode();

  0000a	8b 01		 mov	 eax, DWORD PTR [ecx]
  0000c	ff a0 0c 03 00
	00		 jmp	 DWORD PTR [eax+780]
?GetChartMode@CMainAttributes@@QBE?AW4CHART_MODE@CChartInfo@@XZ ENDP ; CMainAttributes::GetChartMode
_TEXT	ENDS
; Function compile flags: /Ogtp
; File D:\git\src\IBK\IBK_DRFN\ProjSrc\SrcChartEx\ChartOCX\ChartObject\ChartObjectBaseData.cpp
;	COMDAT ?SendMessageToParent_CalculateIndicatorInTRData@CMainAttributes@@QAEXPAVCIndicatorInfo@@ABV?$CList@PAVCPacket@@PAV1@@@@Z
_TEXT	SEGMENT
_pIndicatorInfo$ = 8					; size = 4
_packetList$ = 12					; size = 4
?SendMessageToParent_CalculateIndicatorInTRData@CMainAttributes@@QAEXPAVCIndicatorInfo@@ABV?$CList@PAVCPacket@@PAV1@@@@Z PROC ; CMainAttributes::SendMessageToParent_CalculateIndicatorInTRData, COMDAT
; _this$ = ecx

; 214  : {

  00000	55		 push	 ebp
  00001	8b ec		 mov	 ebp, esp

; 215  : 	if(m_pIChartCtrl == NULL || pIndicatorInfo == NULL) return;

  00003	8b 49 0c	 mov	 ecx, DWORD PTR [ecx+12]
  00006	85 c9		 test	 ecx, ecx
  00008	74 10		 je	 SHORT $LN3@SendMessag
  0000a	8b 55 08	 mov	 edx, DWORD PTR _pIndicatorInfo$[ebp]
  0000d	85 d2		 test	 edx, edx
  0000f	74 09		 je	 SHORT $LN3@SendMessag

; 216  : 
; 217  : #ifdef _DEBUG
; 218  : 	TRACE( "ST Indicator Called : %s (with %d Packets)\r\n", pIndicatorInfo->GetIndicatorName(), packetList.GetCount());
; 219  : #endif
; 220  : 
; 221  : 	m_pIChartCtrl->CalculateIndicatorInTRData(pIndicatorInfo, packetList);

  00011	8b 01		 mov	 eax, DWORD PTR [ecx]
  00013	89 55 08	 mov	 DWORD PTR _pIndicatorInfo$[ebp], edx

; 222  : }

  00016	5d		 pop	 ebp

; 216  : 
; 217  : #ifdef _DEBUG
; 218  : 	TRACE( "ST Indicator Called : %s (with %d Packets)\r\n", pIndicatorInfo->GetIndicatorName(), packetList.GetCount());
; 219  : #endif
; 220  : 
; 221  : 	m_pIChartCtrl->CalculateIndicatorInTRData(pIndicatorInfo, packetList);

  00017	ff 60 18	 jmp	 DWORD PTR [eax+24]
$LN3@SendMessag:

; 222  : }

  0001a	5d		 pop	 ebp
  0001b	c2 08 00	 ret	 8
?SendMessageToParent_CalculateIndicatorInTRData@CMainAttributes@@QAEXPAVCIndicatorInfo@@ABV?$CList@PAVCPacket@@PAV1@@@@Z ENDP ; CMainAttributes::SendMessageToParent_CalculateIndicatorInTRData
_TEXT	ENDS
; Function compile flags: /Ogtp
; File D:\git\src\IBK\IBK_DRFN\ProjSrc\SrcChartEx\ChartOCX\ChartObject\ChartObjectBaseData.cpp
; File C:\Program Files (x86)\Microsoft Visual Studio\2019\Community\VC\Tools\MSVC\14.29.30133\atlmfc\include\atlsimpstr.h
; File D:\git\src\IBK\IBK_DRFN\ProjSrc\SrcChartEx\ChartOCX\ChartObject\ChartObjectBaseData.cpp
;	COMDAT ?SendMessageToParent_TRData@CMainAttributes@@QAEXABV?$CStringT@DV?$StrTraitMFC_DLL@DV?$ChTraitsCRT@D@ATL@@@@@ATL@@0H_N@Z
_TEXT	SEGMENT
_strGraphName$ = 8					; size = 4
_strPacketNames$ = 12					; size = 4
_nRequestTRCount$ = 16					; size = 4
_bIsNew$ = 20						; size = 1
?SendMessageToParent_TRData@CMainAttributes@@QAEXABV?$CStringT@DV?$StrTraitMFC_DLL@DV?$ChTraitsCRT@D@ATL@@@@@ATL@@0H_N@Z PROC ; CMainAttributes::SendMessageToParent_TRData, COMDAT
; _this$ = ecx

; 206  : {

  00000	55		 push	 ebp
  00001	8b ec		 mov	 ebp, esp

; 207  : 	if(m_pIChartCtrl == NULL || strPacketNames.IsEmpty())

  00003	8b 49 0c	 mov	 ecx, DWORD PTR [ecx+12]
  00006	85 c9		 test	 ecx, ecx
  00008	74 17		 je	 SHORT $LN3@SendMessag
; File C:\Program Files (x86)\Microsoft Visual Studio\2019\Community\VC\Tools\MSVC\14.29.30133\atlmfc\include\atlsimpstr.h

; 533  : 		return( GetLength() == 0 );

  0000a	8b 55 0c	 mov	 edx, DWORD PTR _strPacketNames$[ebp]
  0000d	8b 02		 mov	 eax, DWORD PTR [edx]
  0000f	83 78 f4 00	 cmp	 DWORD PTR [eax-12], 0
; File D:\git\src\IBK\IBK_DRFN\ProjSrc\SrcChartEx\ChartOCX\ChartObject\ChartObjectBaseData.cpp

; 207  : 	if(m_pIChartCtrl == NULL || strPacketNames.IsEmpty())

  00013	74 0c		 je	 SHORT $LN3@SendMessag

; 208  : 		return;
; 209  : 
; 210  : 	m_pIChartCtrl->RequestTRPacket(strGraphName, strPacketNames, nRequestTRCount, bIsNew);

  00015	8b 01		 mov	 eax, DWORD PTR [ecx]
  00017	89 55 0c	 mov	 DWORD PTR _strPacketNames$[ebp], edx

; 211  : }

  0001a	5d		 pop	 ebp

; 208  : 		return;
; 209  : 
; 210  : 	m_pIChartCtrl->RequestTRPacket(strGraphName, strPacketNames, nRequestTRCount, bIsNew);

  0001b	ff a0 e4 06 00
	00		 jmp	 DWORD PTR [eax+1764]
$LN3@SendMessag:

; 211  : }

  00021	5d		 pop	 ebp
  00022	c2 10 00	 ret	 16			; 00000010H
?SendMessageToParent_TRData@CMainAttributes@@QAEXABV?$CStringT@DV?$StrTraitMFC_DLL@DV?$ChTraitsCRT@D@ATL@@@@@ATL@@0H_N@Z ENDP ; CMainAttributes::SendMessageToParent_TRData
_TEXT	ENDS
; Function compile flags: /Ogtp
; File D:\git\src\IBK\IBK_DRFN\ProjSrc\SrcChartEx\ChartOCX\ChartObject\ChartObjectBaseData.cpp
; File C:\Program Files (x86)\Microsoft Visual Studio\2019\Community\VC\Tools\MSVC\14.29.30133\atlmfc\include\atlsimpstr.h
; File D:\git\src\IBK\IBK_DRFN\ProjSrc\SrcChartEx\ChartOCX\ChartObject\ChartObjectBaseData.cpp
;	COMDAT ?SendMessageToParent_TRData@CMainAttributes@@QAEXABV?$CStringT@DV?$StrTraitMFC_DLL@DV?$ChTraitsCRT@D@ATL@@@@@ATL@@0@Z
_TEXT	SEGMENT
_strGraphName$ = 8					; size = 4
_strPacketNames$ = 12					; size = 4
?SendMessageToParent_TRData@CMainAttributes@@QAEXABV?$CStringT@DV?$StrTraitMFC_DLL@DV?$ChTraitsCRT@D@ATL@@@@@ATL@@0@Z PROC ; CMainAttributes::SendMessageToParent_TRData, COMDAT
; _this$ = ecx

; 198  : {

  00000	55		 push	 ebp
  00001	8b ec		 mov	 ebp, esp

; 199  : 	if(m_pIChartCtrl == NULL || strPacketNames.IsEmpty())

  00003	8b 49 0c	 mov	 ecx, DWORD PTR [ecx+12]
  00006	85 c9		 test	 ecx, ecx
  00008	74 17		 je	 SHORT $LN3@SendMessag
; File C:\Program Files (x86)\Microsoft Visual Studio\2019\Community\VC\Tools\MSVC\14.29.30133\atlmfc\include\atlsimpstr.h

; 533  : 		return( GetLength() == 0 );

  0000a	8b 55 0c	 mov	 edx, DWORD PTR _strPacketNames$[ebp]
  0000d	8b 02		 mov	 eax, DWORD PTR [edx]
  0000f	83 78 f4 00	 cmp	 DWORD PTR [eax-12], 0
; File D:\git\src\IBK\IBK_DRFN\ProjSrc\SrcChartEx\ChartOCX\ChartObject\ChartObjectBaseData.cpp

; 199  : 	if(m_pIChartCtrl == NULL || strPacketNames.IsEmpty())

  00013	74 0c		 je	 SHORT $LN3@SendMessag

; 200  : 		return;
; 201  : 
; 202  : 	m_pIChartCtrl->RequestTRPacket(strGraphName, strPacketNames);

  00015	8b 01		 mov	 eax, DWORD PTR [ecx]
  00017	89 55 0c	 mov	 DWORD PTR _strPacketNames$[ebp], edx

; 203  : }

  0001a	5d		 pop	 ebp

; 200  : 		return;
; 201  : 
; 202  : 	m_pIChartCtrl->RequestTRPacket(strGraphName, strPacketNames);

  0001b	ff a0 e8 06 00
	00		 jmp	 DWORD PTR [eax+1768]
$LN3@SendMessag:

; 203  : }

  00021	5d		 pop	 ebp
  00022	c2 08 00	 ret	 8
?SendMessageToParent_TRData@CMainAttributes@@QAEXABV?$CStringT@DV?$StrTraitMFC_DLL@DV?$ChTraitsCRT@D@ATL@@@@@ATL@@0@Z ENDP ; CMainAttributes::SendMessageToParent_TRData
_TEXT	ENDS
; Function compile flags: /Ogtp
; File D:\git\src\IBK\IBK_DRFN\ProjSrc\SrcChartEx\ChartOCX\ChartObject\ChartObjectBaseData.cpp
; File D:\git\src\IBK\IBK_DRFN\ProjSrc\SrcChartEx\ChartOCX\Include_Chart\BlockBaseData.h
; File D:\git\src\IBK\IBK_DRFN\ProjSrc\SrcChartEx\ChartOCX\ChartObject\ChartObjectBaseData.cpp
;	COMDAT ?SendMessageToParent@CMainAttributes@@QAEXABVCBlockBehaviorData@@@Z
_TEXT	SEGMENT
_blockBehaviorData$ = 8					; size = 4
?SendMessageToParent@CMainAttributes@@QAEXABVCBlockBehaviorData@@@Z PROC ; CMainAttributes::SendMessageToParent, COMDAT
; _this$ = ecx

; 178  : {

  00000	55		 push	 ebp
  00001	8b ec		 mov	 ebp, esp

; 179  : 	if(m_pIChartCtrl == NULL || !blockBehaviorData.GetSourceBlockIndex().IsAllValueBiggerThanZero())

  00003	8b 49 0c	 mov	 ecx, DWORD PTR [ecx+12]
  00006	85 c9		 test	 ecx, ecx
  00008	74 1b		 je	 SHORT $LN3@SendMessag
; File D:\git\src\IBK\IBK_DRFN\ProjSrc\SrcChartEx\ChartOCX\Include_Chart\BlockBaseData.h

; 137  : 	CBlockIndex GetSourceBlockIndex() const { return m_sourceBlockIndex; };

  0000a	8b 55 08	 mov	 edx, DWORD PTR _blockBehaviorData$[ebp]
  0000d	83 7a 04 00	 cmp	 DWORD PTR [edx+4], 0

; 30   : 	bool	IsAllValueBiggerThanZero( void) const		{	return ( m_nRow >= 0 && m_nColumn >= 0);	}

  00011	7c 12		 jl	 SHORT $LN3@SendMessag
  00013	83 7a 08 00	 cmp	 DWORD PTR [edx+8], 0
  00017	7c 0c		 jl	 SHORT $LN3@SendMessag
; File D:\git\src\IBK\IBK_DRFN\ProjSrc\SrcChartEx\ChartOCX\ChartObject\ChartObjectBaseData.cpp

; 183  : 	m_pIChartCtrl->BehaviorBlock(long(&blockBehaviorData));

  00019	8b 01		 mov	 eax, DWORD PTR [ecx]
  0001b	89 55 08	 mov	 DWORD PTR _blockBehaviorData$[ebp], edx

; 184  : }

  0001e	5d		 pop	 ebp

; 183  : 	m_pIChartCtrl->BehaviorBlock(long(&blockBehaviorData));

  0001f	ff a0 b4 04 00
	00		 jmp	 DWORD PTR [eax+1204]
$LN3@SendMessag:

; 184  : }

  00025	5d		 pop	 ebp
  00026	c2 04 00	 ret	 4
?SendMessageToParent@CMainAttributes@@QAEXABVCBlockBehaviorData@@@Z ENDP ; CMainAttributes::SendMessageToParent
_TEXT	ENDS
; Function compile flags: /Ogtp
; File D:\git\src\IBK\IBK_DRFN\ProjSrc\SrcChartEx\ChartOCX\ChartObject\ChartObjectBaseData.cpp
;	COMDAT ?Invalidate@CMainAttributes@@QAEXXZ
_TEXT	SEGMENT
?Invalidate@CMainAttributes@@QAEXXZ PROC		; CMainAttributes::Invalidate, COMDAT
; _this$ = ecx

; 171  : 	if(m_pIChartCtrl == NULL)

  00000	8b 49 0c	 mov	 ecx, DWORD PTR [ecx+12]
  00003	85 c9		 test	 ecx, ecx
  00005	74 0a		 je	 SHORT $LN1@Invalidate

; 172  : 		return;
; 173  : 
; 174  : 	m_pIChartCtrl->InvalidateOCX();

  00007	8b 01		 mov	 eax, DWORD PTR [ecx]
  00009	6a 01		 push	 1
  0000b	ff 90 20 05 00
	00		 call	 DWORD PTR [eax+1312]
$LN1@Invalidate:

; 175  : }

  00011	c3		 ret	 0
?Invalidate@CMainAttributes@@QAEXXZ ENDP		; CMainAttributes::Invalidate
_TEXT	ENDS
; Function compile flags: /Ogtp
; File D:\git\src\IBK\IBK_DRFN\ProjSrc\SrcChartEx\ChartOCX\ChartObject\ChartObjectBaseData.cpp
;	COMDAT ?GetToolBarManager@CMainAttributes@@QBEPAUIToolBarManager@@XZ
_TEXT	SEGMENT
?GetToolBarManager@CMainAttributes@@QBEPAUIToolBarManager@@XZ PROC ; CMainAttributes::GetToolBarManager, COMDAT
; _this$ = ecx

; 165  : 	return m_pToolBarManager;

  00000	8b 41 24	 mov	 eax, DWORD PTR [ecx+36]

; 166  : }

  00003	c3		 ret	 0
?GetToolBarManager@CMainAttributes@@QBEPAUIToolBarManager@@XZ ENDP ; CMainAttributes::GetToolBarManager
_TEXT	ENDS
; Function compile flags: /Ogtp
; File D:\git\src\IBK\IBK_DRFN\ProjSrc\SrcChartEx\ChartOCX\ChartObject\ChartObjectBaseData.cpp
;	COMDAT ?GetPacketListManager@CMainAttributes@@QBEPAVCPacketListManager@@XZ
_TEXT	SEGMENT
?GetPacketListManager@CMainAttributes@@QBEPAVCPacketListManager@@XZ PROC ; CMainAttributes::GetPacketListManager, COMDAT
; _this$ = ecx

; 160  : 	return m_pPacketListManager;

  00000	8b 41 20	 mov	 eax, DWORD PTR [ecx+32]

; 161  : }

  00003	c3		 ret	 0
?GetPacketListManager@CMainAttributes@@QBEPAVCPacketListManager@@XZ ENDP ; CMainAttributes::GetPacketListManager
_TEXT	ENDS
; Function compile flags: /Ogtp
; File D:\git\src\IBK\IBK_DRFN\ProjSrc\SrcChartEx\ChartOCX\ChartObject\ChartObjectBaseData.cpp
;	COMDAT ?GetXScaleManager@CMainAttributes@@QBEPAVCXScaleManager@@XZ
_TEXT	SEGMENT
?GetXScaleManager@CMainAttributes@@QBEPAVCXScaleManager@@XZ PROC ; CMainAttributes::GetXScaleManager, COMDAT
; _this$ = ecx

; 154  : 	return m_pxScaleManager;

  00000	8b 41 1c	 mov	 eax, DWORD PTR [ecx+28]

; 155  : }

  00003	c3		 ret	 0
?GetXScaleManager@CMainAttributes@@QBEPAVCXScaleManager@@XZ ENDP ; CMainAttributes::GetXScaleManager
_TEXT	ENDS
; Function compile flags: /Ogtp
; File D:\git\src\IBK\IBK_DRFN\ProjSrc\SrcChartEx\ChartOCX\ChartObject\ChartObjectBaseData.cpp
;	COMDAT ?GetMainChartFormulate@CMainAttributes@@QBEPAVCMainChartFormulate@@XZ
_TEXT	SEGMENT
?GetMainChartFormulate@CMainAttributes@@QBEPAVCMainChartFormulate@@XZ PROC ; CMainAttributes::GetMainChartFormulate, COMDAT
; _this$ = ecx

; 149  : 	return m_pMainChartFormulate;

  00000	8b 41 18	 mov	 eax, DWORD PTR [ecx+24]

; 150  : }

  00003	c3		 ret	 0
?GetMainChartFormulate@CMainAttributes@@QBEPAVCMainChartFormulate@@XZ ENDP ; CMainAttributes::GetMainChartFormulate
_TEXT	ENDS
; Function compile flags: /Ogtp
; File D:\git\src\IBK\IBK_DRFN\ProjSrc\SrcChartEx\ChartOCX\ChartObject\ChartObjectBaseData.cpp
;	COMDAT ?GetIndicatorList@CMainAttributes@@QBEPAVCIndicatorList@@XZ
_TEXT	SEGMENT
?GetIndicatorList@CMainAttributes@@QBEPAVCIndicatorList@@XZ PROC ; CMainAttributes::GetIndicatorList, COMDAT
; _this$ = ecx

; 144  : 	return m_pIndicatorList;

  00000	8b 41 14	 mov	 eax, DWORD PTR [ecx+20]

; 145  : }

  00003	c3		 ret	 0
?GetIndicatorList@CMainAttributes@@QBEPAVCIndicatorList@@XZ ENDP ; CMainAttributes::GetIndicatorList
_TEXT	ENDS
; Function compile flags: /Ogtp
; File D:\git\src\IBK\IBK_DRFN\ProjSrc\SrcChartEx\ChartOCX\ChartObject\ChartObjectBaseData.cpp
;	COMDAT ?GetPacketList@CMainAttributes@@QBEPAVCPacketList@@XZ
_TEXT	SEGMENT
?GetPacketList@CMainAttributes@@QBEPAVCPacketList@@XZ PROC ; CMainAttributes::GetPacketList, COMDAT
; _this$ = ecx

; 139  : 	return m_pPacketList;

  00000	8b 41 10	 mov	 eax, DWORD PTR [ecx+16]

; 140  : }

  00003	c3		 ret	 0
?GetPacketList@CMainAttributes@@QBEPAVCPacketList@@XZ ENDP ; CMainAttributes::GetPacketList
_TEXT	ENDS
; Function compile flags: /Ogtp
; File D:\git\src\IBK\IBK_DRFN\ProjSrc\SrcChartEx\ChartOCX\ChartObject\ChartObjectBaseData.cpp
;	COMDAT ?GetOCXPath@CMainAttributes@@QBE?AV?$CStringT@DV?$StrTraitMFC_DLL@DV?$ChTraitsCRT@D@ATL@@@@@ATL@@XZ
_TEXT	SEGMENT
___$ReturnUdt$ = 8					; size = 4
?GetOCXPath@CMainAttributes@@QBE?AV?$CStringT@DV?$StrTraitMFC_DLL@DV?$ChTraitsCRT@D@ATL@@@@@ATL@@XZ PROC ; CMainAttributes::GetOCXPath, COMDAT
; _this$ = ecx

; 133  : {

  00000	55		 push	 ebp
  00001	8b ec		 mov	 ebp, esp

; 134  : 	return m_strOCXPath;

  00003	8d 41 04	 lea	 eax, DWORD PTR [ecx+4]
  00006	8b 4d 08	 mov	 ecx, DWORD PTR ___$ReturnUdt$[ebp]
  00009	50		 push	 eax
  0000a	ff 15 00 00 00
	00		 call	 DWORD PTR __imp_??0?$CStringT@DV?$StrTraitMFC_DLL@DV?$ChTraitsCRT@D@ATL@@@@@ATL@@QAE@ABV01@@Z
  00010	8b 45 08	 mov	 eax, DWORD PTR ___$ReturnUdt$[ebp]

; 135  : }

  00013	5d		 pop	 ebp
  00014	c2 04 00	 ret	 4
?GetOCXPath@CMainAttributes@@QBE?AV?$CStringT@DV?$StrTraitMFC_DLL@DV?$ChTraitsCRT@D@ATL@@@@@ATL@@XZ ENDP ; CMainAttributes::GetOCXPath
_TEXT	ENDS
; Function compile flags: /Ogtp
; File D:\git\src\IBK\IBK_DRFN\ProjSrc\SrcChartEx\ChartOCX\ChartObject\ChartObjectBaseData.cpp
;	COMDAT ?IsDesignMode@CMainAttributes@@QBE_NXZ
_TEXT	SEGMENT
?IsDesignMode@CMainAttributes@@QBE_NXZ PROC		; CMainAttributes::IsDesignMode, COMDAT
; _this$ = ecx

; 129  : 	return m_bDesignMode;

  00000	8a 01		 mov	 al, BYTE PTR [ecx]

; 130  : }

  00002	c3		 ret	 0
?IsDesignMode@CMainAttributes@@QBE_NXZ ENDP		; CMainAttributes::IsDesignMode
_TEXT	ENDS
; Function compile flags: /Ogtp
; File D:\git\src\IBK\IBK_DRFN\ProjSrc\SrcChartEx\ChartOCX\ChartObject\ChartObjectBaseData.cpp
;	COMDAT ?GetParent_Handle@CMainAttributes@@QBEPAUHWND__@@XZ
_TEXT	SEGMENT
?GetParent_Handle@CMainAttributes@@QBEPAUHWND__@@XZ PROC ; CMainAttributes::GetParent_Handle, COMDAT
; _this$ = ecx

; 121  : 	if(m_pIChartCtrl == NULL)

  00000	8b 49 0c	 mov	 ecx, DWORD PTR [ecx+12]
  00003	85 c9		 test	 ecx, ecx
  00005	75 03		 jne	 SHORT $LN2@GetParent_

; 122  : 		return NULL;

  00007	33 c0		 xor	 eax, eax

; 125  : }

  00009	c3		 ret	 0
$LN2@GetParent_:

; 123  : 
; 124  : 	return m_pIChartCtrl->GetWndHandle();

  0000a	8b 01		 mov	 eax, DWORD PTR [ecx]
  0000c	ff a0 a0 03 00
	00		 jmp	 DWORD PTR [eax+928]
?GetParent_Handle@CMainAttributes@@QBEPAUHWND__@@XZ ENDP ; CMainAttributes::GetParent_Handle
_TEXT	ENDS
; Function compile flags: /Ogtp
; File D:\git\src\IBK\IBK_DRFN\ProjSrc\SrcChartEx\ChartOCX\ChartObject\ChartObjectBaseData.cpp
;	COMDAT ?GetParentWnd@CMainAttributes@@QBEPAVCWnd@@XZ
_TEXT	SEGMENT
?GetParentWnd@CMainAttributes@@QBEPAVCWnd@@XZ PROC	; CMainAttributes::GetParentWnd, COMDAT
; _this$ = ecx

; 113  : 	if(m_pIChartCtrl == NULL)

  00000	8b 49 0c	 mov	 ecx, DWORD PTR [ecx+12]
  00003	85 c9		 test	 ecx, ecx
  00005	75 03		 jne	 SHORT $LN2@GetParentW

; 114  : 		return NULL;

  00007	33 c0		 xor	 eax, eax

; 117  : }

  00009	c3		 ret	 0
$LN2@GetParentW:

; 115  : 
; 116  : 	return m_pIChartCtrl->GetChartWindowPointer();

  0000a	8b 01		 mov	 eax, DWORD PTR [ecx]
  0000c	ff a0 80 03 00
	00		 jmp	 DWORD PTR [eax+896]
?GetParentWnd@CMainAttributes@@QBEPAVCWnd@@XZ ENDP	; CMainAttributes::GetParentWnd
_TEXT	ENDS
; Function compile flags: /Ogtp
; File D:\git\src\IBK\IBK_DRFN\ProjSrc\SrcChartEx\ChartOCX\ChartObject\ChartObjectBaseData.cpp
;	COMDAT ?GetIChartCtrl@CMainAttributes@@QBEPAUIChartCtrl@@XZ
_TEXT	SEGMENT
?GetIChartCtrl@CMainAttributes@@QBEPAUIChartCtrl@@XZ PROC ; CMainAttributes::GetIChartCtrl, COMDAT
; _this$ = ecx

; 108  : 	return m_pIChartCtrl;

  00000	8b 41 0c	 mov	 eax, DWORD PTR [ecx+12]

; 109  : }

  00003	c3		 ret	 0
?GetIChartCtrl@CMainAttributes@@QBEPAUIChartCtrl@@XZ ENDP ; CMainAttributes::GetIChartCtrl
_TEXT	ENDS
; Function compile flags: /Ogtp
; File D:\git\src\IBK\IBK_DRFN\ProjSrc\SrcChartEx\ChartOCX\ChartObject\ChartObjectBaseData.cpp
;	COMDAT ?GetMainBlockImpl@CMainAttributes@@QBEPAVCMainBlockImp@@XZ
_TEXT	SEGMENT
?GetMainBlockImpl@CMainAttributes@@QBEPAVCMainBlockImp@@XZ PROC ; CMainAttributes::GetMainBlockImpl, COMDAT
; _this$ = ecx

; 103  : 	return m_pMainBlockImpl;

  00000	8b 41 08	 mov	 eax, DWORD PTR [ecx+8]

; 104  : }

  00003	c3		 ret	 0
?GetMainBlockImpl@CMainAttributes@@QBEPAVCMainBlockImp@@XZ ENDP ; CMainAttributes::GetMainBlockImpl
_TEXT	ENDS
; Function compile flags: /Ogtp
; File D:\git\src\IBK\IBK_DRFN\ProjSrc\SrcChartEx\ChartOCX\ChartObject\ChartObjectBaseData.cpp
;	COMDAT ?SetToolBarManager@CMainAttributes@@QAEXPAUIToolBarManager@@@Z
_TEXT	SEGMENT
_pToolBarManager$ = 8					; size = 4
?SetToolBarManager@CMainAttributes@@QAEXPAUIToolBarManager@@@Z PROC ; CMainAttributes::SetToolBarManager, COMDAT
; _this$ = ecx

; 96   : {

  00000	55		 push	 ebp
  00001	8b ec		 mov	 ebp, esp

; 97   : 	m_pToolBarManager = pToolBarManager;

  00003	8b 45 08	 mov	 eax, DWORD PTR _pToolBarManager$[ebp]
  00006	89 41 24	 mov	 DWORD PTR [ecx+36], eax

; 98   : }

  00009	5d		 pop	 ebp
  0000a	c2 04 00	 ret	 4
?SetToolBarManager@CMainAttributes@@QAEXPAUIToolBarManager@@@Z ENDP ; CMainAttributes::SetToolBarManager
_TEXT	ENDS
; Function compile flags: /Ogtp
; File D:\git\src\IBK\IBK_DRFN\ProjSrc\SrcChartEx\ChartOCX\ChartObject\ChartObjectBaseData.cpp
;	COMDAT ?SetPacketListManager@CMainAttributes@@QAEXPAVCPacketListManager@@@Z
_TEXT	SEGMENT
_pPacketListManager$ = 8				; size = 4
?SetPacketListManager@CMainAttributes@@QAEXPAVCPacketListManager@@@Z PROC ; CMainAttributes::SetPacketListManager, COMDAT
; _this$ = ecx

; 91   : {

  00000	55		 push	 ebp
  00001	8b ec		 mov	 ebp, esp

; 92   : 	m_pPacketListManager = pPacketListManager;

  00003	8b 45 08	 mov	 eax, DWORD PTR _pPacketListManager$[ebp]
  00006	89 41 20	 mov	 DWORD PTR [ecx+32], eax

; 93   : }

  00009	5d		 pop	 ebp
  0000a	c2 04 00	 ret	 4
?SetPacketListManager@CMainAttributes@@QAEXPAVCPacketListManager@@@Z ENDP ; CMainAttributes::SetPacketListManager
_TEXT	ENDS
; Function compile flags: /Ogtp
; File D:\git\src\IBK\IBK_DRFN\ProjSrc\SrcChartEx\ChartOCX\ChartObject\ChartObjectBaseData.cpp
;	COMDAT ?SetXScaleManager@CMainAttributes@@QAEXPAVCXScaleManager@@@Z
_TEXT	SEGMENT
_pxScaleManager$ = 8					; size = 4
?SetXScaleManager@CMainAttributes@@QAEXPAVCXScaleManager@@@Z PROC ; CMainAttributes::SetXScaleManager, COMDAT
; _this$ = ecx

; 85   : {

  00000	55		 push	 ebp
  00001	8b ec		 mov	 ebp, esp

; 86   : 	m_pxScaleManager = pxScaleManager;

  00003	8b 45 08	 mov	 eax, DWORD PTR _pxScaleManager$[ebp]
  00006	89 41 1c	 mov	 DWORD PTR [ecx+28], eax

; 87   : }

  00009	5d		 pop	 ebp
  0000a	c2 04 00	 ret	 4
?SetXScaleManager@CMainAttributes@@QAEXPAVCXScaleManager@@@Z ENDP ; CMainAttributes::SetXScaleManager
_TEXT	ENDS
; Function compile flags: /Ogtp
; File D:\git\src\IBK\IBK_DRFN\ProjSrc\SrcChartEx\ChartOCX\ChartObject\ChartObjectBaseData.cpp
;	COMDAT ?SetMainChartFormulate@CMainAttributes@@QAEXPAVCMainChartFormulate@@@Z
_TEXT	SEGMENT
_p_pMainChartFormulate$ = 8				; size = 4
?SetMainChartFormulate@CMainAttributes@@QAEXPAVCMainChartFormulate@@@Z PROC ; CMainAttributes::SetMainChartFormulate, COMDAT
; _this$ = ecx

; 80   : {

  00000	55		 push	 ebp
  00001	8b ec		 mov	 ebp, esp

; 81   : 	m_pMainChartFormulate = p_pMainChartFormulate;

  00003	8b 45 08	 mov	 eax, DWORD PTR _p_pMainChartFormulate$[ebp]
  00006	89 41 18	 mov	 DWORD PTR [ecx+24], eax

; 82   : }

  00009	5d		 pop	 ebp
  0000a	c2 04 00	 ret	 4
?SetMainChartFormulate@CMainAttributes@@QAEXPAVCMainChartFormulate@@@Z ENDP ; CMainAttributes::SetMainChartFormulate
_TEXT	ENDS
; Function compile flags: /Ogtp
; File D:\git\src\IBK\IBK_DRFN\ProjSrc\SrcChartEx\ChartOCX\ChartObject\ChartObjectBaseData.cpp
;	COMDAT ?SetIndicatorList@CMainAttributes@@QAEXPAVCIndicatorList@@@Z
_TEXT	SEGMENT
_pIndicatorList$ = 8					; size = 4
?SetIndicatorList@CMainAttributes@@QAEXPAVCIndicatorList@@@Z PROC ; CMainAttributes::SetIndicatorList, COMDAT
; _this$ = ecx

; 74   : {

  00000	55		 push	 ebp
  00001	8b ec		 mov	 ebp, esp

; 75   : 	m_pIndicatorList = pIndicatorList;

  00003	8b 45 08	 mov	 eax, DWORD PTR _pIndicatorList$[ebp]
  00006	89 41 14	 mov	 DWORD PTR [ecx+20], eax

; 76   : }

  00009	5d		 pop	 ebp
  0000a	c2 04 00	 ret	 4
?SetIndicatorList@CMainAttributes@@QAEXPAVCIndicatorList@@@Z ENDP ; CMainAttributes::SetIndicatorList
_TEXT	ENDS
; Function compile flags: /Ogtp
; File D:\git\src\IBK\IBK_DRFN\ProjSrc\SrcChartEx\ChartOCX\ChartObject\ChartObjectBaseData.cpp
;	COMDAT ?SetPacketList@CMainAttributes@@QAEXPAVCPacketList@@@Z
_TEXT	SEGMENT
_pPacketList$ = 8					; size = 4
?SetPacketList@CMainAttributes@@QAEXPAVCPacketList@@@Z PROC ; CMainAttributes::SetPacketList, COMDAT
; _this$ = ecx

; 69   : {

  00000	55		 push	 ebp
  00001	8b ec		 mov	 ebp, esp

; 70   : 	m_pPacketList = pPacketList;

  00003	8b 45 08	 mov	 eax, DWORD PTR _pPacketList$[ebp]
  00006	89 41 10	 mov	 DWORD PTR [ecx+16], eax

; 71   : }

  00009	5d		 pop	 ebp
  0000a	c2 04 00	 ret	 4
?SetPacketList@CMainAttributes@@QAEXPAVCPacketList@@@Z ENDP ; CMainAttributes::SetPacketList
_TEXT	ENDS
; Function compile flags: /Ogtp
; File D:\git\src\IBK\IBK_DRFN\ProjSrc\SrcChartEx\ChartOCX\ChartObject\ChartObjectBaseData.cpp
;	COMDAT ?SetOCXPath@CMainAttributes@@QAEXABV?$CStringT@DV?$StrTraitMFC_DLL@DV?$ChTraitsCRT@D@ATL@@@@@ATL@@@Z
_TEXT	SEGMENT
_strOCXPath$ = 8					; size = 4
?SetOCXPath@CMainAttributes@@QAEXABV?$CStringT@DV?$StrTraitMFC_DLL@DV?$ChTraitsCRT@D@ATL@@@@@ATL@@@Z PROC ; CMainAttributes::SetOCXPath, COMDAT
; _this$ = ecx

; 64   : {

  00000	55		 push	 ebp
  00001	8b ec		 mov	 ebp, esp

; 65   : 	m_strOCXPath = strOCXPath;

  00003	83 c1 04	 add	 ecx, 4

; 66   : }

  00006	5d		 pop	 ebp

; 65   : 	m_strOCXPath = strOCXPath;

  00007	ff 25 00 00 00
	00		 jmp	 DWORD PTR __imp_??4?$CStringT@DV?$StrTraitMFC_DLL@DV?$ChTraitsCRT@D@ATL@@@@@ATL@@QAEAAV01@ABV01@@Z
?SetOCXPath@CMainAttributes@@QAEXABV?$CStringT@DV?$StrTraitMFC_DLL@DV?$ChTraitsCRT@D@ATL@@@@@ATL@@@Z ENDP ; CMainAttributes::SetOCXPath
_TEXT	ENDS
; Function compile flags: /Ogtp
; File D:\git\src\IBK\IBK_DRFN\ProjSrc\SrcChartEx\ChartOCX\ChartObject\ChartObjectBaseData.cpp
;	COMDAT ?SetDesignMode@CMainAttributes@@QAEX_N@Z
_TEXT	SEGMENT
_designMode$ = 8					; size = 1
?SetDesignMode@CMainAttributes@@QAEX_N@Z PROC		; CMainAttributes::SetDesignMode, COMDAT
; _this$ = ecx

; 59   : {

  00000	55		 push	 ebp
  00001	8b ec		 mov	 ebp, esp

; 60   : 	m_bDesignMode = designMode;

  00003	8a 45 08	 mov	 al, BYTE PTR _designMode$[ebp]
  00006	88 01		 mov	 BYTE PTR [ecx], al

; 61   : }

  00008	5d		 pop	 ebp
  00009	c2 04 00	 ret	 4
?SetDesignMode@CMainAttributes@@QAEX_N@Z ENDP		; CMainAttributes::SetDesignMode
_TEXT	ENDS
; Function compile flags: /Ogtp
; File D:\git\src\IBK\IBK_DRFN\ProjSrc\SrcChartEx\ChartOCX\ChartObject\ChartObjectBaseData.cpp
;	COMDAT ?SetIChartCtrl@CMainAttributes@@QAEXPAUIChartCtrl@@@Z
_TEXT	SEGMENT
_p_pIChartCtrl$ = 8					; size = 4
?SetIChartCtrl@CMainAttributes@@QAEXPAUIChartCtrl@@@Z PROC ; CMainAttributes::SetIChartCtrl, COMDAT
; _this$ = ecx

; 54   : {

  00000	55		 push	 ebp
  00001	8b ec		 mov	 ebp, esp

; 55   : 	m_pIChartCtrl = p_pIChartCtrl;

  00003	8b 45 08	 mov	 eax, DWORD PTR _p_pIChartCtrl$[ebp]
  00006	89 41 0c	 mov	 DWORD PTR [ecx+12], eax

; 56   : }

  00009	5d		 pop	 ebp
  0000a	c2 04 00	 ret	 4
?SetIChartCtrl@CMainAttributes@@QAEXPAUIChartCtrl@@@Z ENDP ; CMainAttributes::SetIChartCtrl
_TEXT	ENDS
; Function compile flags: /Ogtp
; File D:\git\src\IBK\IBK_DRFN\ProjSrc\SrcChartEx\ChartOCX\ChartObject\ChartObjectBaseData.cpp
;	COMDAT ?SetMainBlockImpl@CMainAttributes@@QAEXPAVCMainBlockImp@@@Z
_TEXT	SEGMENT
_pMainBlockImpl$ = 8					; size = 4
?SetMainBlockImpl@CMainAttributes@@QAEXPAVCMainBlockImp@@@Z PROC ; CMainAttributes::SetMainBlockImpl, COMDAT
; _this$ = ecx

; 49   : {

  00000	55		 push	 ebp
  00001	8b ec		 mov	 ebp, esp

; 50   : 	m_pMainBlockImpl = pMainBlockImpl;

  00003	8b 45 08	 mov	 eax, DWORD PTR _pMainBlockImpl$[ebp]
  00006	89 41 08	 mov	 DWORD PTR [ecx+8], eax

; 51   : }

  00009	5d		 pop	 ebp
  0000a	c2 04 00	 ret	 4
?SetMainBlockImpl@CMainAttributes@@QAEXPAVCMainBlockImp@@@Z ENDP ; CMainAttributes::SetMainBlockImpl
_TEXT	ENDS
; Function compile flags: /Ogtp
; File D:\git\src\IBK\IBK_DRFN\ProjSrc\SrcChartEx\ChartOCX\ChartObject\ChartObjectBaseData.cpp
;	COMDAT ??0CMainAttributes@@QAE@XZ
_TEXT	SEGMENT
_this$ = -4						; size = 4
??0CMainAttributes@@QAE@XZ PROC				; CMainAttributes::CMainAttributes, COMDAT
; _this$ = ecx

; 45   : {

  00000	55		 push	 ebp
  00001	8b ec		 mov	 ebp, esp
  00003	51		 push	 ecx
  00004	56		 push	 esi
  00005	8b f1		 mov	 esi, ecx
  00007	89 75 fc	 mov	 DWORD PTR _this$[ebp], esi
  0000a	8d 4e 04	 lea	 ecx, DWORD PTR [esi+4]
  0000d	c6 06 00	 mov	 BYTE PTR [esi], 0
  00010	ff 15 00 00 00
	00		 call	 DWORD PTR __imp_??0?$CStringT@DV?$StrTraitMFC_DLL@DV?$ChTraitsCRT@D@ATL@@@@@ATL@@QAE@XZ

; 36   : 	m_pMainBlockImpl(NULL),

  00016	c7 46 08 00 00
	00 00		 mov	 DWORD PTR [esi+8], 0

; 46   : }

  0001d	8b c6		 mov	 eax, esi
  0001f	c7 46 0c 00 00
	00 00		 mov	 DWORD PTR [esi+12], 0
  00026	c7 46 10 00 00
	00 00		 mov	 DWORD PTR [esi+16], 0
  0002d	c7 46 14 00 00
	00 00		 mov	 DWORD PTR [esi+20], 0
  00034	c7 46 18 00 00
	00 00		 mov	 DWORD PTR [esi+24], 0
  0003b	c7 46 1c 00 00
	00 00		 mov	 DWORD PTR [esi+28], 0
  00042	c7 46 20 00 00
	00 00		 mov	 DWORD PTR [esi+32], 0
  00049	c7 46 24 00 00
	00 00		 mov	 DWORD PTR [esi+36], 0
  00050	5e		 pop	 esi
  00051	8b e5		 mov	 esp, ebp
  00053	5d		 pop	 ebp
  00054	c3		 ret	 0
??0CMainAttributes@@QAE@XZ ENDP				; CMainAttributes::CMainAttributes
_TEXT	ENDS
; Function compile flags: /Ogtp
; File D:\git\src\IBK\IBK_DRFN\ProjSrc\SrcChartEx\ChartOCX\ChartObject\ChartObjectBaseData.cpp
;	COMDAT ??4CMainAttributes@@QAEAAV0@ABV0@@Z
_TEXT	SEGMENT
__$EHRec$ = -12						; size = 12
$T2 = 8							; size = 4
_data$ = 8						; size = 4
??4CMainAttributes@@QAEAAV0@ABV0@@Z PROC		; CMainAttributes::operator=, COMDAT
; _this$ = ecx

; 17   : {

  00000	55		 push	 ebp
  00001	8b ec		 mov	 ebp, esp
  00003	6a ff		 push	 -1
  00005	68 00 00 00 00	 push	 __ehhandler$??4CMainAttributes@@QAEAAV0@ABV0@@Z
  0000a	64 a1 00 00 00
	00		 mov	 eax, DWORD PTR fs:0
  00010	50		 push	 eax
  00011	56		 push	 esi
  00012	57		 push	 edi
  00013	a1 00 00 00 00	 mov	 eax, DWORD PTR ___security_cookie
  00018	33 c5		 xor	 eax, ebp
  0001a	50		 push	 eax
  0001b	8d 45 f4	 lea	 eax, DWORD PTR __$EHRec$[ebp]
  0001e	64 a3 00 00 00
	00		 mov	 DWORD PTR fs:0, eax
  00024	8b f1		 mov	 esi, ecx

; 18   : 	if(this == &data)

  00026	8b 7d 08	 mov	 edi, DWORD PTR _data$[ebp]
  00029	3b f7		 cmp	 esi, edi
  0002b	74 5e		 je	 SHORT $LN10@operator

; 19   : 		return *this;
; 20   : 
; 21   : 	m_pMainBlockImpl = data.GetMainBlockImpl();

  0002d	8b 47 08	 mov	 eax, DWORD PTR [edi+8]

; 134  : 	return m_strOCXPath;

  00030	8d 4d 08	 lea	 ecx, DWORD PTR $T2[ebp]

; 19   : 		return *this;
; 20   : 
; 21   : 	m_pMainBlockImpl = data.GetMainBlockImpl();

  00033	89 46 08	 mov	 DWORD PTR [esi+8], eax

; 22   : 	m_pIChartCtrl = data.GetIChartCtrl();

  00036	8b 47 0c	 mov	 eax, DWORD PTR [edi+12]
  00039	89 46 0c	 mov	 DWORD PTR [esi+12], eax

; 23   : 	m_bDesignMode = data.IsDesignMode();

  0003c	8a 07		 mov	 al, BYTE PTR [edi]
  0003e	88 06		 mov	 BYTE PTR [esi], al

; 134  : 	return m_strOCXPath;

  00040	8d 47 04	 lea	 eax, DWORD PTR [edi+4]
  00043	50		 push	 eax
  00044	ff 15 00 00 00
	00		 call	 DWORD PTR __imp_??0?$CStringT@DV?$StrTraitMFC_DLL@DV?$ChTraitsCRT@D@ATL@@@@@ATL@@QAE@ABV01@@Z

; 24   : 	m_strOCXPath = data.GetOCXPath();

  0004a	8d 45 08	 lea	 eax, DWORD PTR $T2[ebp]
  0004d	c7 45 fc 00 00
	00 00		 mov	 DWORD PTR __$EHRec$[ebp+8], 0
  00054	50		 push	 eax
  00055	8d 4e 04	 lea	 ecx, DWORD PTR [esi+4]
  00058	ff 15 00 00 00
	00		 call	 DWORD PTR __imp_??4?$CStringT@DV?$StrTraitMFC_DLL@DV?$ChTraitsCRT@D@ATL@@@@@ATL@@QAEAAV01@ABV01@@Z
  0005e	8d 4d 08	 lea	 ecx, DWORD PTR $T2[ebp]
  00061	ff 15 00 00 00
	00		 call	 DWORD PTR __imp_??1?$CStringT@DV?$StrTraitMFC_DLL@DV?$ChTraitsCRT@D@ATL@@@@@ATL@@QAE@XZ

; 25   : 	m_pPacketList = data.GetPacketList();

  00067	8b 47 10	 mov	 eax, DWORD PTR [edi+16]
  0006a	89 46 10	 mov	 DWORD PTR [esi+16], eax

; 26   : 	m_pIndicatorList = data.GetIndicatorList();

  0006d	8b 47 14	 mov	 eax, DWORD PTR [edi+20]
  00070	89 46 14	 mov	 DWORD PTR [esi+20], eax

; 27   : 	m_pMainChartFormulate = data.GetMainChartFormulate();

  00073	8b 47 18	 mov	 eax, DWORD PTR [edi+24]
  00076	89 46 18	 mov	 DWORD PTR [esi+24], eax

; 28   : 	m_pxScaleManager = data.GetXScaleManager();

  00079	8b 47 1c	 mov	 eax, DWORD PTR [edi+28]
  0007c	89 46 1c	 mov	 DWORD PTR [esi+28], eax

; 29   : 	m_pPacketListManager = data.GetPacketListManager();

  0007f	8b 47 20	 mov	 eax, DWORD PTR [edi+32]
  00082	89 46 20	 mov	 DWORD PTR [esi+32], eax

; 30   : 	m_pToolBarManager = data.GetToolBarManager();

  00085	8b 47 24	 mov	 eax, DWORD PTR [edi+36]
  00088	89 46 24	 mov	 DWORD PTR [esi+36], eax
$LN10@operator:

; 31   : 
; 32   : 	return *this;
; 33   : }

  0008b	8b c6		 mov	 eax, esi
  0008d	8b 4d f4	 mov	 ecx, DWORD PTR __$EHRec$[ebp]
  00090	64 89 0d 00 00
	00 00		 mov	 DWORD PTR fs:0, ecx
  00097	59		 pop	 ecx
  00098	5f		 pop	 edi
  00099	5e		 pop	 esi
  0009a	8b e5		 mov	 esp, ebp
  0009c	5d		 pop	 ebp
  0009d	c2 04 00	 ret	 4
_TEXT	ENDS
;	COMDAT text$x
text$x	SEGMENT
__unwindfunclet$??4CMainAttributes@@QAEAAV0@ABV0@@Z$0:
  00000	8d 4d 08	 lea	 ecx, DWORD PTR $T2[ebp]
  00003	ff 25 00 00 00
	00		 jmp	 DWORD PTR __imp_??1?$CStringT@DV?$StrTraitMFC_DLL@DV?$ChTraitsCRT@D@ATL@@@@@ATL@@QAE@XZ
  00009	cc		 int	 3
  0000a	cc		 int	 3
  0000b	cc		 int	 3
  0000c	cc		 int	 3
  0000d	cc		 int	 3
__ehhandler$??4CMainAttributes@@QAEAAV0@ABV0@@Z:
  0000e	90		 npad	 1
  0000f	90		 npad	 1
  00010	8b 54 24 08	 mov	 edx, DWORD PTR [esp+8]
  00014	8d 42 0c	 lea	 eax, DWORD PTR [edx+12]
  00017	8b 4a f4	 mov	 ecx, DWORD PTR [edx-12]
  0001a	33 c8		 xor	 ecx, eax
  0001c	e8 00 00 00 00	 call	 @__security_check_cookie@4
  00021	b8 00 00 00 00	 mov	 eax, OFFSET __ehfuncinfo$??4CMainAttributes@@QAEAAV0@ABV0@@Z
  00026	e9 00 00 00 00	 jmp	 ___CxxFrameHandler3
text$x	ENDS
??4CMainAttributes@@QAEAAV0@ABV0@@Z ENDP		; CMainAttributes::operator=
; Function compile flags: /Ogtp
; File D:\git\src\IBK\IBK_DRFN\ProjSrc\SrcChartEx\ChartOCX\ChartObject\ChartObjectBaseData.cpp
;	COMDAT ?__empty_global_delete@@YAXPAXI@Z
_TEXT	SEGMENT
___formal$ = 8						; size = 4
___formal$ = 12						; size = 4
?__empty_global_delete@@YAXPAXI@Z PROC			; __empty_global_delete, COMDAT

  00000	c2 00 00	 ret	 0
?__empty_global_delete@@YAXPAXI@Z ENDP			; __empty_global_delete
_TEXT	ENDS
; Function compile flags: /Ogtp
; File D:\git\src\IBK\IBK_DRFN\ProjSrc\SrcChartEx\ChartOCX\ChartObject\ChartObjectBaseData.cpp
;	COMDAT ?__empty_global_delete@@YAXPAX@Z
_TEXT	SEGMENT
___formal$ = 8						; size = 4
?__empty_global_delete@@YAXPAX@Z PROC			; __empty_global_delete, COMDAT

  00000	c2 00 00	 ret	 0
?__empty_global_delete@@YAXPAX@Z ENDP			; __empty_global_delete
_TEXT	ENDS
END
