; Listing generated by Microsoft (R) Optimizing Compiler Version 19.29.30145.0 

	TITLE	D:\git\src\IBK\IBK_DRFN\#DRfn-CS\_Obj\ChartObject\ChartFormulateData.obj
	.686P
	.XMM
	include listing.inc
	.model	flat

INCLUDELIB MSVCRT
INCLUDELIB OLDNAMES

PUBLIC	?__empty_global_delete@@YAXPAX@Z		; __empty_global_delete
PUBLIC	?__empty_global_delete@@YAXPAXI@Z		; __empty_global_delete
PUBLIC	??0CChartFormulateData@@QAE@W4CALCULATETYPE@CCalculateBaseData@@@Z ; CChartFormulateData::CChartFormulateData
PUBLIC	??4CChartFormulateData@@QAEAAV0@ABV0@@Z		; CChartFormulateData::operator=
PUBLIC	?SetDataInEndComma@CChartFormulateData@@IAEXAAV?$CStringT@DV?$StrTraitMFC_DLL@DV?$ChTraitsCRT@D@ATL@@@@@ATL@@ABV23@@Z ; CChartFormulateData::SetDataInEndComma
EXTRN	__imp_??A?$CSimpleStringT@D$00@ATL@@QBEDH@Z:PROC
EXTRN	__imp_?Concatenate@?$CSimpleStringT@D$00@ATL@@KAXAAV12@PBDH1H@Z:PROC
EXTRN	__imp_??0?$CStringT@DV?$StrTraitMFC_DLL@DV?$ChTraitsCRT@D@ATL@@@@@ATL@@QAE@XZ:PROC
EXTRN	__imp_??0?$CStringT@DV?$StrTraitMFC_DLL@DV?$ChTraitsCRT@D@ATL@@@@@ATL@@QAE@PAUIAtlStringMgr@1@@Z:PROC
EXTRN	__imp_??0?$CStringT@DV?$StrTraitMFC_DLL@DV?$ChTraitsCRT@D@ATL@@@@@ATL@@QAE@ABV01@@Z:PROC
EXTRN	__imp_??1?$CStringT@DV?$StrTraitMFC_DLL@DV?$ChTraitsCRT@D@ATL@@@@@ATL@@QAE@XZ:PROC
EXTRN	__imp_??4?$CStringT@DV?$StrTraitMFC_DLL@DV?$ChTraitsCRT@D@ATL@@@@@ATL@@QAEAAV01@ABV01@@Z:PROC
EXTRN	__imp_?GetManager@?$CStringT@DV?$StrTraitMFC_DLL@DV?$ChTraitsCRT@D@ATL@@@@@ATL@@QBEPAUIAtlStringMgr@2@XZ:PROC
EXTRN	__imp_?Right@?$CStringT@DV?$StrTraitMFC_DLL@DV?$ChTraitsCRT@D@ATL@@@@@ATL@@QBE?AV12@H@Z:PROC
EXTRN	@__security_check_cookie@4:PROC
EXTRN	___CxxFrameHandler3:PROC
EXTRN	___security_cookie:DWORD
;	COMDAT xdata$x
xdata$x	SEGMENT
__unwindtable$?SetDataInEndComma@CChartFormulateData@@IAEXAAV?$CStringT@DV?$StrTraitMFC_DLL@DV?$ChTraitsCRT@D@ATL@@@@@ATL@@ABV23@@Z DD 0ffffffffH
	DD	FLAT:__unwindfunclet$?SetDataInEndComma@CChartFormulateData@@IAEXAAV?$CStringT@DV?$StrTraitMFC_DLL@DV?$ChTraitsCRT@D@ATL@@@@@ATL@@ABV23@@Z$2
__ehfuncinfo$?SetDataInEndComma@CChartFormulateData@@IAEXAAV?$CStringT@DV?$StrTraitMFC_DLL@DV?$ChTraitsCRT@D@ATL@@@@@ATL@@ABV23@@Z DD 019930522H
	DD	01H
	DD	FLAT:__unwindtable$?SetDataInEndComma@CChartFormulateData@@IAEXAAV?$CStringT@DV?$StrTraitMFC_DLL@DV?$ChTraitsCRT@D@ATL@@@@@ATL@@ABV23@@Z
	DD	2 DUP(00H)
	DD	2 DUP(00H)
	DD	00H
	DD	01H
xdata$x	ENDS
;	COMDAT xdata$x
xdata$x	SEGMENT
__ehfuncinfo$??4CChartFormulateData@@QAEAAV0@ABV0@@Z DD 019930522H
	DD	05H
	DD	FLAT:__unwindtable$??4CChartFormulateData@@QAEAAV0@ABV0@@Z
	DD	2 DUP(00H)
	DD	2 DUP(00H)
	DD	00H
	DD	01H
__unwindtable$??4CChartFormulateData@@QAEAAV0@ABV0@@Z DD 0ffffffffH
	DD	FLAT:__unwindfunclet$??4CChartFormulateData@@QAEAAV0@ABV0@@Z$0
	DD	0ffffffffH
	DD	FLAT:__unwindfunclet$??4CChartFormulateData@@QAEAAV0@ABV0@@Z$1
	DD	01H
	DD	FLAT:__unwindfunclet$??4CChartFormulateData@@QAEAAV0@ABV0@@Z$8
	DD	0ffffffffH
	DD	FLAT:__unwindfunclet$??4CChartFormulateData@@QAEAAV0@ABV0@@Z$2
	DD	0ffffffffH
	DD	FLAT:__unwindfunclet$??4CChartFormulateData@@QAEAAV0@ABV0@@Z$3
xdata$x	ENDS
;	COMDAT xdata$x
xdata$x	SEGMENT
__unwindtable$??HATL@@YA?AV?$CStringT@DV?$StrTraitMFC_DLL@DV?$ChTraitsCRT@D@ATL@@@@@0@ABV10@D@Z DD 0ffffffffH
	DD	FLAT:__unwindfunclet$??HATL@@YA?AV?$CStringT@DV?$StrTraitMFC_DLL@DV?$ChTraitsCRT@D@ATL@@@@@0@ABV10@D@Z$0
__ehfuncinfo$??HATL@@YA?AV?$CStringT@DV?$StrTraitMFC_DLL@DV?$ChTraitsCRT@D@ATL@@@@@0@ABV10@D@Z DD 019930522H
	DD	01H
	DD	FLAT:__unwindtable$??HATL@@YA?AV?$CStringT@DV?$StrTraitMFC_DLL@DV?$ChTraitsCRT@D@ATL@@@@@0@ABV10@D@Z
	DD	2 DUP(00H)
	DD	2 DUP(00H)
	DD	00H
	DD	01H
xdata$x	ENDS
; Function compile flags: /Ogtp
; File D:\git\src\IBK\IBK_DRFN\ProjSrc\SrcChartEx\ChartOCX\Include_Chart\ChartFormulateData.cpp
; File C:\Program Files (x86)\Microsoft Visual Studio\2019\Community\VC\Tools\MSVC\14.29.30133\atlmfc\include\atlsimpstr.h
; File D:\git\src\IBK\IBK_DRFN\ProjSrc\SrcChartEx\ChartOCX\Include_Chart\ChartFormulateData.cpp
; File C:\Program Files (x86)\Microsoft Visual Studio\2019\Community\VC\Tools\MSVC\14.29.30133\atlmfc\include\atlsimpstr.h
; File C:\Program Files (x86)\Microsoft Visual Studio\2019\Community\VC\Tools\MSVC\14.29.30133\atlmfc\include\cstringt.h
; File D:\git\src\IBK\IBK_DRFN\ProjSrc\SrcChartEx\ChartOCX\Include_Chart\ChartFormulateData.cpp
; File C:\Program Files (x86)\Microsoft Visual Studio\2019\Community\VC\Tools\MSVC\14.29.30133\atlmfc\include\cstringt.h
; File D:\git\src\IBK\IBK_DRFN\ProjSrc\SrcChartEx\ChartOCX\Include_Chart\ChartFormulateData.cpp
; File C:\Program Files (x86)\Microsoft Visual Studio\2019\Community\VC\Tools\MSVC\14.29.30133\atlmfc\include\cstringt.h
; File C:\Program Files (x86)\Microsoft Visual Studio\2019\Community\VC\Tools\MSVC\14.29.30133\atlmfc\include\atlsimpstr.h
; File C:\Program Files (x86)\Microsoft Visual Studio\2019\Community\VC\Tools\MSVC\14.29.30133\atlmfc\include\cstringt.h
; File D:\git\src\IBK\IBK_DRFN\ProjSrc\SrcChartEx\ChartOCX\Include_Chart\ChartFormulateData.cpp
; File C:\Program Files (x86)\Microsoft Visual Studio\2019\Community\VC\Tools\MSVC\14.29.30133\atlmfc\include\cstringt.h
; File D:\git\src\IBK\IBK_DRFN\ProjSrc\SrcChartEx\ChartOCX\Include_Chart\ChartFormulateData.cpp
;	COMDAT ?SetDataInEndComma@CChartFormulateData@@IAEXAAV?$CStringT@DV?$StrTraitMFC_DLL@DV?$ChTraitsCRT@D@ATL@@@@@ATL@@ABV23@@Z
_TEXT	SEGMENT
$T2 = -20						; size = 4
$T3 = -20						; size = 4
$T4 = -16						; size = 4
__$EHRec$ = -12						; size = 12
_strOrgData$ = 8					; size = 4
_strNewData$ = 12					; size = 4
$T5 = 15						; size = 1
_chTemp$6 = 15						; size = 1
?SetDataInEndComma@CChartFormulateData@@IAEXAAV?$CStringT@DV?$StrTraitMFC_DLL@DV?$ChTraitsCRT@D@ATL@@@@@ATL@@ABV23@@Z PROC ; CChartFormulateData::SetDataInEndComma, COMDAT
; _this$ = ecx

; 46   : {

  00000	55		 push	 ebp
  00001	8b ec		 mov	 ebp, esp
  00003	6a ff		 push	 -1
  00005	68 00 00 00 00	 push	 __ehhandler$?SetDataInEndComma@CChartFormulateData@@IAEXAAV?$CStringT@DV?$StrTraitMFC_DLL@DV?$ChTraitsCRT@D@ATL@@@@@ATL@@ABV23@@Z
  0000a	64 a1 00 00 00
	00		 mov	 eax, DWORD PTR fs:0
  00010	50		 push	 eax
  00011	83 ec 08	 sub	 esp, 8
  00014	53		 push	 ebx
  00015	56		 push	 esi
  00016	a1 00 00 00 00	 mov	 eax, DWORD PTR ___security_cookie
  0001b	33 c5		 xor	 eax, ebp
  0001d	50		 push	 eax
  0001e	8d 45 f4	 lea	 eax, DWORD PTR __$EHRec$[ebp]
  00021	64 a3 00 00 00
	00		 mov	 DWORD PTR fs:0, eax
  00027	33 db		 xor	 ebx, ebx
  00029	89 5d ec	 mov	 DWORD PTR $T2[ebp], ebx
; File C:\Program Files (x86)\Microsoft Visual Studio\2019\Community\VC\Tools\MSVC\14.29.30133\atlmfc\include\atlsimpstr.h

; 519  : 		return( GetData()->nDataLength );

  0002c	8b 75 0c	 mov	 esi, DWORD PTR _strNewData$[ebp]
  0002f	8b 06		 mov	 eax, DWORD PTR [esi]

; 533  : 		return( GetLength() == 0 );

  00031	39 58 f4	 cmp	 DWORD PTR [eax-12], ebx
; File D:\git\src\IBK\IBK_DRFN\ProjSrc\SrcChartEx\ChartOCX\Include_Chart\ChartFormulateData.cpp

; 47   : 	if(!strNewData.IsEmpty() && strNewData.Right(1) != ',')

  00034	74 2d		 je	 SHORT $LN35@SetDataInE
  00036	6a 01		 push	 1
  00038	8d 45 ec	 lea	 eax, DWORD PTR $T3[ebp]
  0003b	8b ce		 mov	 ecx, esi
  0003d	50		 push	 eax
  0003e	ff 15 00 00 00
	00		 call	 DWORD PTR __imp_?Right@?$CStringT@DV?$StrTraitMFC_DLL@DV?$ChTraitsCRT@D@ATL@@@@@ATL@@QBE?AV12@H@Z
  00044	bb 01 00 00 00	 mov	 ebx, 1
; File C:\Program Files (x86)\Microsoft Visual Studio\2019\Community\VC\Tools\MSVC\14.29.30133\atlmfc\include\atlsimpstr.h

; 519  : 		return( GetData()->nDataLength );

  00049	8b 08		 mov	 ecx, DWORD PTR [eax]
; File C:\Program Files (x86)\Microsoft Visual Studio\2019\Community\VC\Tools\MSVC\14.29.30133\atlmfc\include\cstringt.h

; 2699 : 		return((str1.GetLength() != 1) || (str1[0] != ch2));

  0004b	39 59 f4	 cmp	 DWORD PTR [ecx-12], ebx
  0004e	75 0e		 jne	 SHORT $LN19@SetDataInE
  00050	6a 00		 push	 0
  00052	8b c8		 mov	 ecx, eax
  00054	ff 15 00 00 00
	00		 call	 DWORD PTR __imp_??A?$CSimpleStringT@D$00@ATL@@QBEDH@Z
  0005a	3c 2c		 cmp	 al, 44			; 0000002cH
  0005c	74 05		 je	 SHORT $LN35@SetDataInE
$LN19@SetDataInE:
; File D:\git\src\IBK\IBK_DRFN\ProjSrc\SrcChartEx\ChartOCX\Include_Chart\ChartFormulateData.cpp

; 47   : 	if(!strNewData.IsEmpty() && strNewData.Right(1) != ',')

  0005e	88 5d 0f	 mov	 BYTE PTR $T5[ebp], bl
  00061	eb 04		 jmp	 SHORT $LN6@SetDataInE
$LN35@SetDataInE:
  00063	c6 45 0f 00	 mov	 BYTE PTR $T5[ebp], 0
$LN6@SetDataInE:
  00067	f6 c3 01	 test	 bl, 1
  0006a	74 0c		 je	 SHORT $LN9@SetDataInE
  0006c	8d 4d ec	 lea	 ecx, DWORD PTR $T3[ebp]
  0006f	83 e3 fe	 and	 ebx, -2			; fffffffeH
  00072	ff 15 00 00 00
	00		 call	 DWORD PTR __imp_??1?$CStringT@DV?$StrTraitMFC_DLL@DV?$ChTraitsCRT@D@ATL@@@@@ATL@@QAE@XZ
$LN9@SetDataInE:
  00078	80 7d 0f 00	 cmp	 BYTE PTR $T5[ebp], 0
  0007c	74 65		 je	 SHORT $LN2@SetDataInE
; File C:\Program Files (x86)\Microsoft Visual Studio\2019\Community\VC\Tools\MSVC\14.29.30133\atlmfc\include\cstringt.h

; 2429 : 		CStringT strResult( str1.GetManager() );

  0007e	8b ce		 mov	 ecx, esi
; File D:\git\src\IBK\IBK_DRFN\ProjSrc\SrcChartEx\ChartOCX\Include_Chart\ChartFormulateData.cpp

; 48   : 		strOrgData = strNewData + ',';

  00080	c7 45 fc 00 00
	00 00		 mov	 DWORD PTR __$EHRec$[ebp+8], 0
; File C:\Program Files (x86)\Microsoft Visual Studio\2019\Community\VC\Tools\MSVC\14.29.30133\atlmfc\include\cstringt.h

; 2429 : 		CStringT strResult( str1.GetManager() );

  00087	ff 15 00 00 00
	00		 call	 DWORD PTR __imp_?GetManager@?$CStringT@DV?$StrTraitMFC_DLL@DV?$ChTraitsCRT@D@ATL@@@@@ATL@@QBEPAUIAtlStringMgr@2@XZ
  0008d	50		 push	 eax
  0008e	8d 4d f0	 lea	 ecx, DWORD PTR $T4[ebp]
  00091	ff 15 00 00 00
	00		 call	 DWORD PTR __imp_??0?$CStringT@DV?$StrTraitMFC_DLL@DV?$ChTraitsCRT@D@ATL@@@@@ATL@@QAE@PAUIAtlStringMgr@1@@Z
; File C:\Program Files (x86)\Microsoft Visual Studio\2019\Community\VC\Tools\MSVC\14.29.30133\atlmfc\include\atlsimpstr.h

; 519  : 		return( GetData()->nDataLength );

  00097	8b 06		 mov	 eax, DWORD PTR [esi]
; File C:\Program Files (x86)\Microsoft Visual Studio\2019\Community\VC\Tools\MSVC\14.29.30133\atlmfc\include\cstringt.h

; 2432 : 		CThisSimpleString::Concatenate( strResult, str1, str1.GetLength(), &chTemp, 1 );

  00099	8d 4d 0f	 lea	 ecx, DWORD PTR _chTemp$6[ebp]
  0009c	6a 01		 push	 1
  0009e	51		 push	 ecx
  0009f	c6 45 0f 2c	 mov	 BYTE PTR _chTemp$6[ebp], 44 ; 0000002cH

; 2433 : 
; 2434 : 		return( strResult );

  000a3	83 cb 02	 or	 ebx, 2
  000a6	ff 70 f4	 push	 DWORD PTR [eax-12]
  000a9	89 5d ec	 mov	 DWORD PTR $T2[ebp], ebx
  000ac	50		 push	 eax
  000ad	8d 45 f0	 lea	 eax, DWORD PTR $T4[ebp]
  000b0	50		 push	 eax
  000b1	ff 15 00 00 00
	00		 call	 DWORD PTR __imp_?Concatenate@?$CSimpleStringT@D$00@ATL@@KAXAAV12@PBDH1H@Z
; File D:\git\src\IBK\IBK_DRFN\ProjSrc\SrcChartEx\ChartOCX\Include_Chart\ChartFormulateData.cpp

; 48   : 		strOrgData = strNewData + ',';

  000b7	8b 4d 08	 mov	 ecx, DWORD PTR _strOrgData$[ebp]
  000ba	8d 45 f0	 lea	 eax, DWORD PTR $T4[ebp]
; File C:\Program Files (x86)\Microsoft Visual Studio\2019\Community\VC\Tools\MSVC\14.29.30133\atlmfc\include\cstringt.h

; 2432 : 		CThisSimpleString::Concatenate( strResult, str1, str1.GetLength(), &chTemp, 1 );

  000bd	83 c4 14	 add	 esp, 20			; 00000014H
; File D:\git\src\IBK\IBK_DRFN\ProjSrc\SrcChartEx\ChartOCX\Include_Chart\ChartFormulateData.cpp

; 48   : 		strOrgData = strNewData + ',';

  000c0	50		 push	 eax
  000c1	ff 15 00 00 00
	00		 call	 DWORD PTR __imp_??4?$CStringT@DV?$StrTraitMFC_DLL@DV?$ChTraitsCRT@D@ATL@@@@@ATL@@QAEAAV01@ABV01@@Z
  000c7	8d 4d f0	 lea	 ecx, DWORD PTR $T4[ebp]
  000ca	ff 15 00 00 00
	00		 call	 DWORD PTR __imp_??1?$CStringT@DV?$StrTraitMFC_DLL@DV?$ChTraitsCRT@D@ATL@@@@@ATL@@QAE@XZ

; 51   : }

  000d0	8b 4d f4	 mov	 ecx, DWORD PTR __$EHRec$[ebp]
  000d3	64 89 0d 00 00
	00 00		 mov	 DWORD PTR fs:0, ecx
  000da	59		 pop	 ecx
  000db	5e		 pop	 esi
  000dc	5b		 pop	 ebx
  000dd	8b e5		 mov	 esp, ebp
  000df	5d		 pop	 ebp
  000e0	c2 08 00	 ret	 8
$LN2@SetDataInE:

; 49   : 	else
; 50   : 		strOrgData = strNewData;

  000e3	8b 4d 08	 mov	 ecx, DWORD PTR _strOrgData$[ebp]
  000e6	56		 push	 esi
  000e7	ff 15 00 00 00
	00		 call	 DWORD PTR __imp_??4?$CStringT@DV?$StrTraitMFC_DLL@DV?$ChTraitsCRT@D@ATL@@@@@ATL@@QAEAAV01@ABV01@@Z

; 51   : }

  000ed	8b 4d f4	 mov	 ecx, DWORD PTR __$EHRec$[ebp]
  000f0	64 89 0d 00 00
	00 00		 mov	 DWORD PTR fs:0, ecx
  000f7	59		 pop	 ecx
  000f8	5e		 pop	 esi
  000f9	5b		 pop	 ebx
  000fa	8b e5		 mov	 esp, ebp
  000fc	5d		 pop	 ebp
  000fd	c2 08 00	 ret	 8
_TEXT	ENDS
;	COMDAT text$x
text$x	SEGMENT
__unwindfunclet$?SetDataInEndComma@CChartFormulateData@@IAEXAAV?$CStringT@DV?$StrTraitMFC_DLL@DV?$ChTraitsCRT@D@ATL@@@@@ATL@@ABV23@@Z$2:
  00000	8b 45 ec	 mov	 eax, DWORD PTR $T2[ebp]
  00003	83 e0 02	 and	 eax, 2
  00006	0f 84 0d 00 00
	00		 je	 $LN28@SetDataInE
  0000c	83 65 ec fd	 and	 DWORD PTR $T2[ebp], -3	; fffffffdH
  00010	8d 4d f0	 lea	 ecx, DWORD PTR $T4[ebp]
  00013	ff 25 00 00 00
	00		 jmp	 DWORD PTR __imp_??1?$CStringT@DV?$StrTraitMFC_DLL@DV?$ChTraitsCRT@D@ATL@@@@@ATL@@QAE@XZ
$LN28@SetDataInE:
  00019	c3		 ret	 0
  0001a	cc		 int	 3
  0001b	cc		 int	 3
  0001c	cc		 int	 3
  0001d	cc		 int	 3
  0001e	cc		 int	 3
__ehhandler$?SetDataInEndComma@CChartFormulateData@@IAEXAAV?$CStringT@DV?$StrTraitMFC_DLL@DV?$ChTraitsCRT@D@ATL@@@@@ATL@@ABV23@@Z:
  0001f	90		 npad	 1
  00020	90		 npad	 1
  00021	8b 54 24 08	 mov	 edx, DWORD PTR [esp+8]
  00025	8d 42 0c	 lea	 eax, DWORD PTR [edx+12]
  00028	8b 4a ec	 mov	 ecx, DWORD PTR [edx-20]
  0002b	33 c8		 xor	 ecx, eax
  0002d	e8 00 00 00 00	 call	 @__security_check_cookie@4
  00032	b8 00 00 00 00	 mov	 eax, OFFSET __ehfuncinfo$?SetDataInEndComma@CChartFormulateData@@IAEXAAV?$CStringT@DV?$StrTraitMFC_DLL@DV?$ChTraitsCRT@D@ATL@@@@@ATL@@ABV23@@Z
  00037	e9 00 00 00 00	 jmp	 ___CxxFrameHandler3
text$x	ENDS
?SetDataInEndComma@CChartFormulateData@@IAEXAAV?$CStringT@DV?$StrTraitMFC_DLL@DV?$ChTraitsCRT@D@ATL@@@@@ATL@@ABV23@@Z ENDP ; CChartFormulateData::SetDataInEndComma
; Function compile flags: /Ogtp
; File D:\git\src\IBK\IBK_DRFN\ProjSrc\SrcChartEx\ChartOCX\Include_Chart\ChartFormulateData.cpp
; File D:\git\src\IBK\IBK_DRFN\ProjSrc\SrcChartEx\ChartOCX\Include_Chart\ChartFormulateData.h
; File D:\git\src\IBK\IBK_DRFN\ProjSrc\SrcChartEx\ChartOCX\Include_Chart\ChartFormulateData.cpp
; File D:\git\src\IBK\IBK_DRFN\ProjSrc\SrcChartEx\ChartOCX\Include_Chart\ChartFormulateData.h
; File D:\git\src\IBK\IBK_DRFN\ProjSrc\SrcChartEx\ChartOCX\Include_Chart\ChartFormulateData.cpp
; File D:\git\src\IBK\IBK_DRFN\ProjSrc\SrcChartEx\ChartOCX\Include_Chart\ChartFormulateData.h
; File C:\Program Files (x86)\Microsoft Visual Studio\2019\Community\VC\Tools\MSVC\14.29.30133\atlmfc\include\atlsimpstr.h
; File D:\git\src\IBK\IBK_DRFN\ProjSrc\SrcChartEx\ChartOCX\Include_Chart\ChartFormulateData.cpp
; File C:\Program Files (x86)\Microsoft Visual Studio\2019\Community\VC\Tools\MSVC\14.29.30133\atlmfc\include\atlsimpstr.h
; File D:\git\src\IBK\IBK_DRFN\ProjSrc\SrcChartEx\ChartOCX\Include_Chart\ChartFormulateData.cpp
; File C:\Program Files (x86)\Microsoft Visual Studio\2019\Community\VC\Tools\MSVC\14.29.30133\atlmfc\include\atlsimpstr.h
; File C:\Program Files (x86)\Microsoft Visual Studio\2019\Community\VC\Tools\MSVC\14.29.30133\atlmfc\include\cstringt.h
; File D:\git\src\IBK\IBK_DRFN\ProjSrc\SrcChartEx\ChartOCX\Include_Chart\ChartFormulateData.cpp
; File C:\Program Files (x86)\Microsoft Visual Studio\2019\Community\VC\Tools\MSVC\14.29.30133\atlmfc\include\cstringt.h
; File D:\git\src\IBK\IBK_DRFN\ProjSrc\SrcChartEx\ChartOCX\Include_Chart\ChartFormulateData.cpp
; File C:\Program Files (x86)\Microsoft Visual Studio\2019\Community\VC\Tools\MSVC\14.29.30133\atlmfc\include\cstringt.h
; File C:\Program Files (x86)\Microsoft Visual Studio\2019\Community\VC\Tools\MSVC\14.29.30133\atlmfc\include\atlsimpstr.h
; File C:\Program Files (x86)\Microsoft Visual Studio\2019\Community\VC\Tools\MSVC\14.29.30133\atlmfc\include\cstringt.h
; File D:\git\src\IBK\IBK_DRFN\ProjSrc\SrcChartEx\ChartOCX\Include_Chart\ChartFormulateData.cpp
; File D:\git\src\IBK\IBK_DRFN\ProjSrc\SrcChartEx\ChartOCX\Include_Chart\ChartFormulateData.h
; File D:\git\src\IBK\IBK_DRFN\ProjSrc\SrcChartEx\ChartOCX\Include_Chart\ChartFormulateData.cpp
; File D:\git\src\IBK\IBK_DRFN\ProjSrc\SrcChartEx\ChartOCX\Include_Chart\ChartFormulateData.h
; File D:\git\src\IBK\IBK_DRFN\ProjSrc\SrcChartEx\ChartOCX\Include_Chart\ChartFormulateData.cpp
;	COMDAT ??4CChartFormulateData@@QAEAAV0@ABV0@@Z
_TEXT	SEGMENT
$T2 = -24						; size = 4
$T3 = -20						; size = 4
$T4 = -20						; size = 4
$T5 = -20						; size = 4
$T6 = -16						; size = 4
__$EHRec$ = -12						; size = 12
$T7 = 8							; size = 4
$T8 = 8							; size = 4
_data$ = 8						; size = 4
$T9 = 11						; size = 1
_chTemp$10 = 11						; size = 1
??4CChartFormulateData@@QAEAAV0@ABV0@@Z PROC		; CChartFormulateData::operator=, COMDAT
; _this$ = ecx

; 25   : {

  00000	55		 push	 ebp
  00001	8b ec		 mov	 ebp, esp
  00003	6a ff		 push	 -1
  00005	68 00 00 00 00	 push	 __ehhandler$??4CChartFormulateData@@QAEAAV0@ABV0@@Z
  0000a	64 a1 00 00 00
	00		 mov	 eax, DWORD PTR fs:0
  00010	50		 push	 eax
  00011	83 ec 0c	 sub	 esp, 12			; 0000000cH
  00014	53		 push	 ebx
  00015	56		 push	 esi
  00016	57		 push	 edi
  00017	a1 00 00 00 00	 mov	 eax, DWORD PTR ___security_cookie
  0001c	33 c5		 xor	 eax, ebp
  0001e	50		 push	 eax
  0001f	8d 45 f4	 lea	 eax, DWORD PTR __$EHRec$[ebp]
  00022	64 a3 00 00 00
	00		 mov	 DWORD PTR fs:0, eax
  00028	8b f1		 mov	 esi, ecx
  0002a	c7 45 e8 00 00
	00 00		 mov	 DWORD PTR $T2[ebp], 0

; 26   : 	if(this == &data)

  00031	8b 7d 08	 mov	 edi, DWORD PTR _data$[ebp]
  00034	3b f7		 cmp	 esi, edi
  00036	0f 84 98 01 00
	00		 je	 $LN60@operator

; 29   : 	m_eCalType					= data.GetCalculateType();

  0003c	8b 07		 mov	 eax, DWORD PTR [edi]
; File D:\git\src\IBK\IBK_DRFN\ProjSrc\SrcChartEx\ChartOCX\Include_Chart\ChartFormulateData.h

; 42   : 	CString		GetGraphName( void) const								{	return m_strGraphName;			}

  0003e	8d 4d 08	 lea	 ecx, DWORD PTR $T8[ebp]
; File D:\git\src\IBK\IBK_DRFN\ProjSrc\SrcChartEx\ChartOCX\Include_Chart\ChartFormulateData.cpp

; 29   : 	m_eCalType					= data.GetCalculateType();

  00041	89 06		 mov	 DWORD PTR [esi], eax
; File D:\git\src\IBK\IBK_DRFN\ProjSrc\SrcChartEx\ChartOCX\Include_Chart\ChartFormulateData.h

; 42   : 	CString		GetGraphName( void) const								{	return m_strGraphName;			}

  00043	8d 47 04	 lea	 eax, DWORD PTR [edi+4]
  00046	50		 push	 eax
  00047	ff 15 00 00 00
	00		 call	 DWORD PTR __imp_??0?$CStringT@DV?$StrTraitMFC_DLL@DV?$ChTraitsCRT@D@ATL@@@@@ATL@@QAE@ABV01@@Z
; File D:\git\src\IBK\IBK_DRFN\ProjSrc\SrcChartEx\ChartOCX\Include_Chart\ChartFormulateData.cpp

; 30   : 	m_strGraphName				= data.GetGraphName();

  0004d	8d 45 08	 lea	 eax, DWORD PTR $T8[ebp]
  00050	c7 45 fc 00 00
	00 00		 mov	 DWORD PTR __$EHRec$[ebp+8], 0
  00057	50		 push	 eax
  00058	8d 4e 04	 lea	 ecx, DWORD PTR [esi+4]
  0005b	ff 15 00 00 00
	00		 call	 DWORD PTR __imp_??4?$CStringT@DV?$StrTraitMFC_DLL@DV?$ChTraitsCRT@D@ATL@@@@@ATL@@QAEAAV01@ABV01@@Z
  00061	8d 4d 08	 lea	 ecx, DWORD PTR $T8[ebp]
  00064	c7 45 fc ff ff
	ff ff		 mov	 DWORD PTR __$EHRec$[ebp+8], -1
  0006b	ff 15 00 00 00
	00		 call	 DWORD PTR __imp_??1?$CStringT@DV?$StrTraitMFC_DLL@DV?$ChTraitsCRT@D@ATL@@@@@ATL@@QAE@XZ

; 31   : 	m_strIndicatorName			= data.m_strIndicatorName;			// (2006/12/5 - Seung-Won, Bae) Support Indicator Name

  00071	8d 47 08	 lea	 eax, DWORD PTR [edi+8]
  00074	50		 push	 eax
  00075	8d 4e 08	 lea	 ecx, DWORD PTR [esi+8]
  00078	ff 15 00 00 00
	00		 call	 DWORD PTR __imp_??4?$CStringT@DV?$StrTraitMFC_DLL@DV?$ChTraitsCRT@D@ATL@@@@@ATL@@QAEAAV01@ABV01@@Z
; File D:\git\src\IBK\IBK_DRFN\ProjSrc\SrcChartEx\ChartOCX\Include_Chart\ChartFormulateData.h

; 57   : 	CString		GetPacketNames( void) const								{	return m_strPacketNames;			}

  0007e	8d 47 0c	 lea	 eax, DWORD PTR [edi+12]
  00081	50		 push	 eax
  00082	8d 4d f0	 lea	 ecx, DWORD PTR $T6[ebp]
  00085	ff 15 00 00 00
	00		 call	 DWORD PTR __imp_??0?$CStringT@DV?$StrTraitMFC_DLL@DV?$ChTraitsCRT@D@ATL@@@@@ATL@@QAE@ABV01@@Z
  0008b	bb 03 00 00 00	 mov	 ebx, 3
; File C:\Program Files (x86)\Microsoft Visual Studio\2019\Community\VC\Tools\MSVC\14.29.30133\atlmfc\include\atlsimpstr.h

; 519  : 		return( GetData()->nDataLength );

  00090	8b 45 f0	 mov	 eax, DWORD PTR $T6[ebp]
; File D:\git\src\IBK\IBK_DRFN\ProjSrc\SrcChartEx\ChartOCX\Include_Chart\ChartFormulateData.cpp

; 32   : 	SetDataInEndComma( m_strPacketNames, data.GetPacketNames());

  00093	c7 45 fc 01 00
	00 00		 mov	 DWORD PTR __$EHRec$[ebp+8], 1
; File C:\Program Files (x86)\Microsoft Visual Studio\2019\Community\VC\Tools\MSVC\14.29.30133\atlmfc\include\atlsimpstr.h

; 533  : 		return( GetLength() == 0 );

  0009a	83 78 f4 00	 cmp	 DWORD PTR [eax-12], 0
; File D:\git\src\IBK\IBK_DRFN\ProjSrc\SrcChartEx\ChartOCX\Include_Chart\ChartFormulateData.cpp

; 47   : 	if(!strNewData.IsEmpty() && strNewData.Right(1) != ',')

  0009e	74 30		 je	 SHORT $LN20@operator
  000a0	6a 01		 push	 1
  000a2	8d 45 ec	 lea	 eax, DWORD PTR $T4[ebp]
  000a5	50		 push	 eax
  000a6	8d 4d f0	 lea	 ecx, DWORD PTR $T6[ebp]
  000a9	ff 15 00 00 00
	00		 call	 DWORD PTR __imp_?Right@?$CStringT@DV?$StrTraitMFC_DLL@DV?$ChTraitsCRT@D@ATL@@@@@ATL@@QBE?AV12@H@Z
  000af	bb 07 00 00 00	 mov	 ebx, 7
; File C:\Program Files (x86)\Microsoft Visual Studio\2019\Community\VC\Tools\MSVC\14.29.30133\atlmfc\include\atlsimpstr.h

; 519  : 		return( GetData()->nDataLength );

  000b4	8b 08		 mov	 ecx, DWORD PTR [eax]
; File C:\Program Files (x86)\Microsoft Visual Studio\2019\Community\VC\Tools\MSVC\14.29.30133\atlmfc\include\cstringt.h

; 2699 : 		return((str1.GetLength() != 1) || (str1[0] != ch2));

  000b6	83 79 f4 01	 cmp	 DWORD PTR [ecx-12], 1
  000ba	75 0e		 jne	 SHORT $LN34@operator
  000bc	6a 00		 push	 0
  000be	8b c8		 mov	 ecx, eax
  000c0	ff 15 00 00 00
	00		 call	 DWORD PTR __imp_??A?$CSimpleStringT@D$00@ATL@@QBEDH@Z
  000c6	3c 2c		 cmp	 al, 44			; 0000002cH
  000c8	74 06		 je	 SHORT $LN20@operator
$LN34@operator:
; File D:\git\src\IBK\IBK_DRFN\ProjSrc\SrcChartEx\ChartOCX\Include_Chart\ChartFormulateData.cpp

; 47   : 	if(!strNewData.IsEmpty() && strNewData.Right(1) != ',')

  000ca	c6 45 0b 01	 mov	 BYTE PTR $T9[ebp], 1
  000ce	eb 04		 jmp	 SHORT $LN21@operator
$LN20@operator:
  000d0	c6 45 0b 00	 mov	 BYTE PTR $T9[ebp], 0
$LN21@operator:
  000d4	f6 c3 04	 test	 bl, 4
  000d7	74 0c		 je	 SHORT $LN24@operator
  000d9	8d 4d ec	 lea	 ecx, DWORD PTR $T4[ebp]
  000dc	83 e3 fb	 and	 ebx, -5			; fffffffbH
  000df	ff 15 00 00 00
	00		 call	 DWORD PTR __imp_??1?$CStringT@DV?$StrTraitMFC_DLL@DV?$ChTraitsCRT@D@ATL@@@@@ATL@@QAE@XZ
$LN24@operator:
  000e5	80 7d 0b 00	 cmp	 BYTE PTR $T9[ebp], 0
  000e9	74 53		 je	 SHORT $LN17@operator
; File C:\Program Files (x86)\Microsoft Visual Studio\2019\Community\VC\Tools\MSVC\14.29.30133\atlmfc\include\cstringt.h

; 2429 : 		CStringT strResult( str1.GetManager() );

  000eb	8d 4d f0	 lea	 ecx, DWORD PTR $T6[ebp]
; File D:\git\src\IBK\IBK_DRFN\ProjSrc\SrcChartEx\ChartOCX\Include_Chart\ChartFormulateData.cpp

; 48   : 		strOrgData = strNewData + ',';

  000ee	c6 45 fc 02	 mov	 BYTE PTR __$EHRec$[ebp+8], 2
; File C:\Program Files (x86)\Microsoft Visual Studio\2019\Community\VC\Tools\MSVC\14.29.30133\atlmfc\include\cstringt.h

; 2429 : 		CStringT strResult( str1.GetManager() );

  000f2	ff 15 00 00 00
	00		 call	 DWORD PTR __imp_?GetManager@?$CStringT@DV?$StrTraitMFC_DLL@DV?$ChTraitsCRT@D@ATL@@@@@ATL@@QBEPAUIAtlStringMgr@2@XZ
  000f8	50		 push	 eax
  000f9	8d 4d ec	 lea	 ecx, DWORD PTR $T3[ebp]
  000fc	ff 15 00 00 00
	00		 call	 DWORD PTR __imp_??0?$CStringT@DV?$StrTraitMFC_DLL@DV?$ChTraitsCRT@D@ATL@@@@@ATL@@QAE@PAUIAtlStringMgr@1@@Z
; File C:\Program Files (x86)\Microsoft Visual Studio\2019\Community\VC\Tools\MSVC\14.29.30133\atlmfc\include\atlsimpstr.h

; 519  : 		return( GetData()->nDataLength );

  00102	8b 45 f0	 mov	 eax, DWORD PTR $T6[ebp]
; File C:\Program Files (x86)\Microsoft Visual Studio\2019\Community\VC\Tools\MSVC\14.29.30133\atlmfc\include\cstringt.h

; 2432 : 		CThisSimpleString::Concatenate( strResult, str1, str1.GetLength(), &chTemp, 1 );

  00105	8d 4d 0b	 lea	 ecx, DWORD PTR _chTemp$10[ebp]
  00108	6a 01		 push	 1
  0010a	51		 push	 ecx
  0010b	c6 45 0b 2c	 mov	 BYTE PTR _chTemp$10[ebp], 44 ; 0000002cH

; 2433 : 
; 2434 : 		return( strResult );

  0010f	83 cb 08	 or	 ebx, 8
  00112	ff 70 f4	 push	 DWORD PTR [eax-12]
  00115	89 5d e8	 mov	 DWORD PTR $T2[ebp], ebx
  00118	50		 push	 eax
  00119	8d 45 ec	 lea	 eax, DWORD PTR $T3[ebp]
  0011c	50		 push	 eax
  0011d	ff 15 00 00 00
	00		 call	 DWORD PTR __imp_?Concatenate@?$CSimpleStringT@D$00@ATL@@KAXAAV12@PBDH1H@Z
  00123	83 c4 14	 add	 esp, 20			; 00000014H
; File D:\git\src\IBK\IBK_DRFN\ProjSrc\SrcChartEx\ChartOCX\Include_Chart\ChartFormulateData.cpp

; 48   : 		strOrgData = strNewData + ',';

  00126	8d 45 ec	 lea	 eax, DWORD PTR $T3[ebp]
  00129	8d 4e 0c	 lea	 ecx, DWORD PTR [esi+12]
  0012c	50		 push	 eax
  0012d	ff 15 00 00 00
	00		 call	 DWORD PTR __imp_??4?$CStringT@DV?$StrTraitMFC_DLL@DV?$ChTraitsCRT@D@ATL@@@@@ATL@@QAEAAV01@ABV01@@Z
  00133	8d 4d ec	 lea	 ecx, DWORD PTR $T3[ebp]
  00136	ff 15 00 00 00
	00		 call	 DWORD PTR __imp_??1?$CStringT@DV?$StrTraitMFC_DLL@DV?$ChTraitsCRT@D@ATL@@@@@ATL@@QAE@XZ
  0013c	eb 0d		 jmp	 SHORT $LN18@operator
$LN17@operator:

; 49   : 	else
; 50   : 		strOrgData = strNewData;

  0013e	8d 45 f0	 lea	 eax, DWORD PTR $T6[ebp]
  00141	50		 push	 eax
  00142	8d 4e 0c	 lea	 ecx, DWORD PTR [esi+12]
  00145	ff 15 00 00 00
	00		 call	 DWORD PTR __imp_??4?$CStringT@DV?$StrTraitMFC_DLL@DV?$ChTraitsCRT@D@ATL@@@@@ATL@@QAEAAV01@ABV01@@Z
$LN18@operator:

; 32   : 	SetDataInEndComma( m_strPacketNames, data.GetPacketNames());

  0014b	8d 4d f0	 lea	 ecx, DWORD PTR $T6[ebp]
  0014e	c7 45 fc ff ff
	ff ff		 mov	 DWORD PTR __$EHRec$[ebp+8], -1
  00155	ff 15 00 00 00
	00		 call	 DWORD PTR __imp_??1?$CStringT@DV?$StrTraitMFC_DLL@DV?$ChTraitsCRT@D@ATL@@@@@ATL@@QAE@XZ
; File D:\git\src\IBK\IBK_DRFN\ProjSrc\SrcChartEx\ChartOCX\Include_Chart\ChartFormulateData.h

; 64   : 	CString		GetSubGraphNames( void) const							{	return m_strSubGraphNames;				}

  0015b	8d 47 10	 lea	 eax, DWORD PTR [edi+16]
  0015e	50		 push	 eax
  0015f	8d 4d 08	 lea	 ecx, DWORD PTR $T7[ebp]
  00162	ff 15 00 00 00
	00		 call	 DWORD PTR __imp_??0?$CStringT@DV?$StrTraitMFC_DLL@DV?$ChTraitsCRT@D@ATL@@@@@ATL@@QAE@ABV01@@Z
; File D:\git\src\IBK\IBK_DRFN\ProjSrc\SrcChartEx\ChartOCX\Include_Chart\ChartFormulateData.cpp

; 33   : 	m_strSubGraphNames			= data.GetSubGraphNames();

  00168	8d 45 08	 lea	 eax, DWORD PTR $T7[ebp]
  0016b	c7 45 fc 03 00
	00 00		 mov	 DWORD PTR __$EHRec$[ebp+8], 3
  00172	50		 push	 eax
  00173	8d 4e 10	 lea	 ecx, DWORD PTR [esi+16]
  00176	ff 15 00 00 00
	00		 call	 DWORD PTR __imp_??4?$CStringT@DV?$StrTraitMFC_DLL@DV?$ChTraitsCRT@D@ATL@@@@@ATL@@QAEAAV01@ABV01@@Z
  0017c	8d 4d 08	 lea	 ecx, DWORD PTR $T7[ebp]
  0017f	c7 45 fc ff ff
	ff ff		 mov	 DWORD PTR __$EHRec$[ebp+8], -1
  00186	ff 15 00 00 00
	00		 call	 DWORD PTR __imp_??1?$CStringT@DV?$StrTraitMFC_DLL@DV?$ChTraitsCRT@D@ATL@@@@@ATL@@QAE@XZ
; File D:\git\src\IBK\IBK_DRFN\ProjSrc\SrcChartEx\ChartOCX\Include_Chart\ChartFormulateData.h

; 71   : 	CString		GetViewableSubGraphNames( void) const								{	return m_strViewableSubGraphNames;						}

  0018c	8d 47 14	 lea	 eax, DWORD PTR [edi+20]
  0018f	50		 push	 eax
  00190	8d 4d ec	 lea	 ecx, DWORD PTR $T5[ebp]
  00193	ff 15 00 00 00
	00		 call	 DWORD PTR __imp_??0?$CStringT@DV?$StrTraitMFC_DLL@DV?$ChTraitsCRT@D@ATL@@@@@ATL@@QAE@ABV01@@Z
; File D:\git\src\IBK\IBK_DRFN\ProjSrc\SrcChartEx\ChartOCX\Include_Chart\ChartFormulateData.cpp

; 34   : 	m_strViewableSubGraphNames	= data.GetViewableSubGraphNames();

  00199	8d 45 ec	 lea	 eax, DWORD PTR $T5[ebp]
  0019c	c7 45 fc 04 00
	00 00		 mov	 DWORD PTR __$EHRec$[ebp+8], 4
  001a3	50		 push	 eax
  001a4	8d 4e 14	 lea	 ecx, DWORD PTR [esi+20]
  001a7	ff 15 00 00 00
	00		 call	 DWORD PTR __imp_??4?$CStringT@DV?$StrTraitMFC_DLL@DV?$ChTraitsCRT@D@ATL@@@@@ATL@@QAEAAV01@ABV01@@Z
  001ad	8d 4d ec	 lea	 ecx, DWORD PTR $T5[ebp]
  001b0	ff 15 00 00 00
	00		 call	 DWORD PTR __imp_??1?$CStringT@DV?$StrTraitMFC_DLL@DV?$ChTraitsCRT@D@ATL@@@@@ATL@@QAE@XZ

; 35   : 	m_nDiaplayDataStartIndex	= data.GetDisplayDataStartIndex();

  001b6	8b 47 18	 mov	 eax, DWORD PTR [edi+24]
  001b9	89 46 18	 mov	 DWORD PTR [esi+24], eax

; 36   : 	m_nDiaplayDataEndIndex		= data.GetDisplayDataEndIndex();

  001bc	8b 47 1c	 mov	 eax, DWORD PTR [edi+28]
  001bf	89 46 1c	 mov	 DWORD PTR [esi+28], eax

; 37   : 	m_pPacketList				= data.GetPacketList();

  001c2	8b 47 20	 mov	 eax, DWORD PTR [edi+32]
  001c5	89 46 20	 mov	 DWORD PTR [esi+32], eax

; 38   : 	m_pIndicatorList			= data.GetIndicatorList();

  001c8	8b 47 24	 mov	 eax, DWORD PTR [edi+36]
  001cb	89 46 24	 mov	 DWORD PTR [esi+36], eax

; 39   : 	// (2009/9/8 - Seung-Won, Bae) Chart Running Mode for the brick size of Renko on HTS.
; 40   : 	m_eChartMode				= data.GetChartMode();

  001ce	8b 47 2c	 mov	 eax, DWORD PTR [edi+44]
  001d1	89 46 2c	 mov	 DWORD PTR [esi+44], eax
$LN60@operator:

; 41   : 	return *this;
; 42   : }

  001d4	8b c6		 mov	 eax, esi
  001d6	8b 4d f4	 mov	 ecx, DWORD PTR __$EHRec$[ebp]
  001d9	64 89 0d 00 00
	00 00		 mov	 DWORD PTR fs:0, ecx
  001e0	59		 pop	 ecx
  001e1	5f		 pop	 edi
  001e2	5e		 pop	 esi
  001e3	5b		 pop	 ebx
  001e4	8b e5		 mov	 esp, ebp
  001e6	5d		 pop	 ebp
  001e7	c2 04 00	 ret	 4
_TEXT	ENDS
;	COMDAT text$x
text$x	SEGMENT
__unwindfunclet$??4CChartFormulateData@@QAEAAV0@ABV0@@Z$0:
  00000	8d 4d 08	 lea	 ecx, DWORD PTR $T8[ebp]
  00003	ff 25 00 00 00
	00		 jmp	 DWORD PTR __imp_??1?$CStringT@DV?$StrTraitMFC_DLL@DV?$ChTraitsCRT@D@ATL@@@@@ATL@@QAE@XZ
__unwindfunclet$??4CChartFormulateData@@QAEAAV0@ABV0@@Z$1:
  00009	8d 4d f0	 lea	 ecx, DWORD PTR $T6[ebp]
  0000c	ff 25 00 00 00
	00		 jmp	 DWORD PTR __imp_??1?$CStringT@DV?$StrTraitMFC_DLL@DV?$ChTraitsCRT@D@ATL@@@@@ATL@@QAE@XZ
__unwindfunclet$??4CChartFormulateData@@QAEAAV0@ABV0@@Z$8:
  00012	8b 45 e8	 mov	 eax, DWORD PTR $T2[ebp]
  00015	83 e0 08	 and	 eax, 8
  00018	0f 84 0d 00 00
	00		 je	 $LN43@operator
  0001e	83 65 e8 f7	 and	 DWORD PTR $T2[ebp], -9	; fffffff7H
  00022	8d 4d ec	 lea	 ecx, DWORD PTR $T3[ebp]
  00025	ff 25 00 00 00
	00		 jmp	 DWORD PTR __imp_??1?$CStringT@DV?$StrTraitMFC_DLL@DV?$ChTraitsCRT@D@ATL@@@@@ATL@@QAE@XZ
$LN43@operator:
  0002b	c3		 ret	 0
__unwindfunclet$??4CChartFormulateData@@QAEAAV0@ABV0@@Z$2:
  0002c	8d 4d 08	 lea	 ecx, DWORD PTR $T7[ebp]
  0002f	ff 25 00 00 00
	00		 jmp	 DWORD PTR __imp_??1?$CStringT@DV?$StrTraitMFC_DLL@DV?$ChTraitsCRT@D@ATL@@@@@ATL@@QAE@XZ
__unwindfunclet$??4CChartFormulateData@@QAEAAV0@ABV0@@Z$3:
  00035	8d 4d ec	 lea	 ecx, DWORD PTR $T5[ebp]
  00038	ff 25 00 00 00
	00		 jmp	 DWORD PTR __imp_??1?$CStringT@DV?$StrTraitMFC_DLL@DV?$ChTraitsCRT@D@ATL@@@@@ATL@@QAE@XZ
  0003e	cc		 int	 3
  0003f	cc		 int	 3
  00040	cc		 int	 3
  00041	cc		 int	 3
  00042	cc		 int	 3
__ehhandler$??4CChartFormulateData@@QAEAAV0@ABV0@@Z:
  00043	90		 npad	 1
  00044	90		 npad	 1
  00045	8b 54 24 08	 mov	 edx, DWORD PTR [esp+8]
  00049	8d 42 0c	 lea	 eax, DWORD PTR [edx+12]
  0004c	8b 4a e4	 mov	 ecx, DWORD PTR [edx-28]
  0004f	33 c8		 xor	 ecx, eax
  00051	e8 00 00 00 00	 call	 @__security_check_cookie@4
  00056	b8 00 00 00 00	 mov	 eax, OFFSET __ehfuncinfo$??4CChartFormulateData@@QAEAAV0@ABV0@@Z
  0005b	e9 00 00 00 00	 jmp	 ___CxxFrameHandler3
text$x	ENDS
??4CChartFormulateData@@QAEAAV0@ABV0@@Z ENDP		; CChartFormulateData::operator=
; Function compile flags: /Ogtp
; File D:\git\src\IBK\IBK_DRFN\ProjSrc\SrcChartEx\ChartOCX\Include_Chart\ChartFormulateData.cpp
;	COMDAT ??0CChartFormulateData@@QAE@W4CALCULATETYPE@CCalculateBaseData@@@Z
_TEXT	SEGMENT
_this$ = -4						; size = 4
_eCalType$ = 8						; size = 4
??0CChartFormulateData@@QAE@W4CALCULATETYPE@CCalculateBaseData@@@Z PROC ; CChartFormulateData::CChartFormulateData, COMDAT
; _this$ = ecx

; 19   : {

  00000	55		 push	 ebp
  00001	8b ec		 mov	 ebp, esp
  00003	51		 push	 ecx

; 14   : 	m_eCalType(eCalType),

  00004	8b 45 08	 mov	 eax, DWORD PTR _eCalType$[ebp]
  00007	56		 push	 esi
  00008	8b f1		 mov	 esi, ecx
  0000a	89 75 fc	 mov	 DWORD PTR _this$[ebp], esi

; 19   : {

  0000d	8d 4e 04	 lea	 ecx, DWORD PTR [esi+4]
  00010	89 06		 mov	 DWORD PTR [esi], eax
  00012	ff 15 00 00 00
	00		 call	 DWORD PTR __imp_??0?$CStringT@DV?$StrTraitMFC_DLL@DV?$ChTraitsCRT@D@ATL@@@@@ATL@@QAE@XZ
  00018	8d 4e 08	 lea	 ecx, DWORD PTR [esi+8]
  0001b	ff 15 00 00 00
	00		 call	 DWORD PTR __imp_??0?$CStringT@DV?$StrTraitMFC_DLL@DV?$ChTraitsCRT@D@ATL@@@@@ATL@@QAE@XZ
  00021	8d 4e 0c	 lea	 ecx, DWORD PTR [esi+12]
  00024	ff 15 00 00 00
	00		 call	 DWORD PTR __imp_??0?$CStringT@DV?$StrTraitMFC_DLL@DV?$ChTraitsCRT@D@ATL@@@@@ATL@@QAE@XZ
  0002a	8d 4e 10	 lea	 ecx, DWORD PTR [esi+16]
  0002d	ff 15 00 00 00
	00		 call	 DWORD PTR __imp_??0?$CStringT@DV?$StrTraitMFC_DLL@DV?$ChTraitsCRT@D@ATL@@@@@ATL@@QAE@XZ
  00033	8d 4e 14	 lea	 ecx, DWORD PTR [esi+20]
  00036	ff 15 00 00 00
	00		 call	 DWORD PTR __imp_??0?$CStringT@DV?$StrTraitMFC_DLL@DV?$ChTraitsCRT@D@ATL@@@@@ATL@@QAE@XZ

; 15   : 	m_nDiaplayDataStartIndex(0),

  0003c	c7 46 18 00 00
	00 00		 mov	 DWORD PTR [esi+24], 0

; 20   : 	// (2009/9/8 - Seung-Won, Bae) Chart Running Mode for the brick size of Renko on HTS.
; 21   : 	m_eChartMode = CChartInfo::HTS;
; 22   : }

  00043	8b c6		 mov	 eax, esi
  00045	c7 46 1c 00 00
	00 00		 mov	 DWORD PTR [esi+28], 0
  0004c	c7 46 20 00 00
	00 00		 mov	 DWORD PTR [esi+32], 0
  00053	c7 46 24 00 00
	00 00		 mov	 DWORD PTR [esi+36], 0
  0005a	c7 46 2c 01 00
	00 00		 mov	 DWORD PTR [esi+44], 1
  00061	5e		 pop	 esi
  00062	8b e5		 mov	 esp, ebp
  00064	5d		 pop	 ebp
  00065	c2 04 00	 ret	 4
??0CChartFormulateData@@QAE@W4CALCULATETYPE@CCalculateBaseData@@@Z ENDP ; CChartFormulateData::CChartFormulateData
_TEXT	ENDS
; Function compile flags: /Ogtp
; File D:\git\src\IBK\IBK_DRFN\ProjSrc\SrcChartEx\ChartOCX\Include_Chart\ChartFormulateData.cpp
;	COMDAT ?__empty_global_delete@@YAXPAXI@Z
_TEXT	SEGMENT
___formal$ = 8						; size = 4
___formal$ = 12						; size = 4
?__empty_global_delete@@YAXPAXI@Z PROC			; __empty_global_delete, COMDAT

  00000	c2 00 00	 ret	 0
?__empty_global_delete@@YAXPAXI@Z ENDP			; __empty_global_delete
_TEXT	ENDS
; Function compile flags: /Ogtp
; File D:\git\src\IBK\IBK_DRFN\ProjSrc\SrcChartEx\ChartOCX\Include_Chart\ChartFormulateData.cpp
;	COMDAT ?__empty_global_delete@@YAXPAX@Z
_TEXT	SEGMENT
___formal$ = 8						; size = 4
?__empty_global_delete@@YAXPAX@Z PROC			; __empty_global_delete, COMDAT

  00000	c2 00 00	 ret	 0
?__empty_global_delete@@YAXPAX@Z ENDP			; __empty_global_delete
_TEXT	ENDS
END
