; Listing generated by Microsoft (R) Optimizing Compiler Version 19.29.30145.0 

	TITLE	D:\git\src\IBK\IBK_DRFN\#DRfn-CS\_Obj\ChartObject\DlgBlockInsert.obj
	.686P
	.XMM
	include listing.inc
	.model	flat

INCLUDELIB MSVCRT
INCLUDELIB OLDNAMES

PUBLIC	?__empty_global_delete@@YAXPAX@Z		; __empty_global_delete
PUBLIC	?__empty_global_delete@@YAXPAXI@Z		; __empty_global_delete
PUBLIC	?Serialize@CObject@@UAEXAAVCArchive@@@Z		; CObject::Serialize
PUBLIC	?AssertValid@CObject@@UBEXXZ			; CObject::AssertValid
PUBLIC	?Dump@CObject@@UBEXAAVCDumpContext@@@Z		; CObject::Dump
PUBLIC	?DoDataExchange@CWnd@@MAEXPAVCDataExchange@@@Z	; CWnd::DoDataExchange
PUBLIC	?BeginModalState@CWnd@@UAEXXZ			; CWnd::BeginModalState
PUBLIC	?EndModalState@CWnd@@UAEXXZ			; CWnd::EndModalState
PUBLIC	?Create@CDialog@@UAEHIPAVCWnd@@@Z		; CDialog::Create
PUBLIC	??0CDlgBlockInsert@@QAE@PAVCWnd@@PAVCMainBlockImp@@PAVCInsertingBlockHorzScaleData@@@Z ; CDlgBlockInsert::CDlgBlockInsert
PUBLIC	?DoDataExchange@CDlgBlockInsert@@MAEXPAVCDataExchange@@@Z ; CDlgBlockInsert::DoDataExchange
PUBLIC	?OnInitDialog@CDlgBlockInsert@@MAEHXZ		; CDlgBlockInsert::OnInitDialog
PUBLIC	?OnOK@CDlgBlockInsert@@MAEXXZ			; CDlgBlockInsert::OnOK
PUBLIC	?OnCancel@CDlgBlockInsert@@MAEXXZ		; CDlgBlockInsert::OnCancel
PUBLIC	?OnOnlyBottomShow@CDlgBlockInsert@@IAEXXZ	; CDlgBlockInsert::OnOnlyBottomShow
PUBLIC	?GetThisMessageMap@CDlgBlockInsert@@KGPBUAFX_MSGMAP@@XZ ; CDlgBlockInsert::GetThisMessageMap
PUBLIC	?GetMessageMap@CDlgBlockInsert@@MBEPBUAFX_MSGMAP@@XZ ; CDlgBlockInsert::GetMessageMap
PUBLIC	?InitializeData@CDlgBlockInsert@@AAEXXZ		; CDlgBlockInsert::InitializeData
PUBLIC	?SetHorzScaleData@CDlgBlockInsert@@AAEXXZ	; CDlgBlockInsert::SetHorzScaleData
PUBLIC	?EnableWindowOnOnlyEndScale@CDlgBlockInsert@@AAEX_N@Z ; CDlgBlockInsert::EnableWindowOnOnlyEndScale
PUBLIC	?EnableWindow@CDlgBlockInsert@@AAEXPAVCWnd@@_N@Z ; CDlgBlockInsert::EnableWindow
PUBLIC	??_GCDlgBlockInsert@@UAEPAXI@Z			; CDlgBlockInsert::`scalar deleting destructor'
PUBLIC	??_R0?AVCObject@@@8				; CObject `RTTI Type Descriptor'
PUBLIC	??_R3CObject@@8					; CObject::`RTTI Class Hierarchy Descriptor'
PUBLIC	??_R2CObject@@8					; CObject::`RTTI Base Class Array'
PUBLIC	??_R1A@?0A@EA@CObject@@8			; CObject::`RTTI Base Class Descriptor at (0,-1,0,64)'
PUBLIC	??_R1A@?0A@EA@CWnd@@8				; CWnd::`RTTI Base Class Descriptor at (0,-1,0,64)'
PUBLIC	??_R0?AVCWnd@@@8				; CWnd `RTTI Type Descriptor'
PUBLIC	??_R3CWnd@@8					; CWnd::`RTTI Class Hierarchy Descriptor'
PUBLIC	??_R2CWnd@@8					; CWnd::`RTTI Base Class Array'
PUBLIC	??_R1A@?0A@EA@CCmdTarget@@8			; CCmdTarget::`RTTI Base Class Descriptor at (0,-1,0,64)'
PUBLIC	??_R0?AVCCmdTarget@@@8				; CCmdTarget `RTTI Type Descriptor'
PUBLIC	??_R3CCmdTarget@@8				; CCmdTarget::`RTTI Class Hierarchy Descriptor'
PUBLIC	??_R2CCmdTarget@@8				; CCmdTarget::`RTTI Base Class Array'
PUBLIC	??_R1A@?0A@EA@CDialog@@8			; CDialog::`RTTI Base Class Descriptor at (0,-1,0,64)'
PUBLIC	??_R0?AVCDialog@@@8				; CDialog `RTTI Type Descriptor'
PUBLIC	??_R3CDialog@@8					; CDialog::`RTTI Class Hierarchy Descriptor'
PUBLIC	??_R2CDialog@@8					; CDialog::`RTTI Base Class Array'
PUBLIC	??_7CDlgBlockInsert@@6B@			; CDlgBlockInsert::`vftable'
PUBLIC	??_R4CDlgBlockInsert@@6B@			; CDlgBlockInsert::`RTTI Complete Object Locator'
PUBLIC	??_R0?AVCDlgBlockInsert@@@8			; CDlgBlockInsert `RTTI Type Descriptor'
PUBLIC	??_R3CDlgBlockInsert@@8				; CDlgBlockInsert::`RTTI Class Hierarchy Descriptor'
PUBLIC	??_R2CDlgBlockInsert@@8				; CDlgBlockInsert::`RTTI Base Class Array'
PUBLIC	??_R1A@?0A@EA@CDlgBlockInsert@@8		; CDlgBlockInsert::`RTTI Base Class Descriptor at (0,-1,0,64)'
EXTRN	??3@YAXPAX@Z:PROC				; operator delete
EXTRN	?__global_delete@@YAXPAXI@Z:PROC		; __global_delete
EXTRN	__imp__mouse_event@20:PROC
EXTRN	__imp__EnableWindow@8:PROC
EXTRN	?DDX_Check@@YGXPAVCDataExchange@@HAAH@Z:PROC	; DDX_Check
EXTRN	?DDX_Radio@@YGXPAVCDataExchange@@HAAH@Z:PROC	; DDX_Radio
EXTRN	?IsInvokeAllowed@CCmdTarget@@UAEHJ@Z:PROC	; CCmdTarget::IsInvokeAllowed
EXTRN	?GetDispatchIID@CCmdTarget@@UAEHPAU_GUID@@@Z:PROC ; CCmdTarget::GetDispatchIID
EXTRN	?GetTypeInfoCount@CCmdTarget@@UAEIXZ:PROC	; CCmdTarget::GetTypeInfoCount
EXTRN	?GetTypeLibCache@CCmdTarget@@UAEPAVCTypeLibCache@@XZ:PROC ; CCmdTarget::GetTypeLibCache
EXTRN	?GetTypeLib@CCmdTarget@@UAEJKPAPAUITypeLib@@@Z:PROC ; CCmdTarget::GetTypeLib
EXTRN	?GetCommandMap@CCmdTarget@@MBEPBUAFX_OLECMDMAP@@XZ:PROC ; CCmdTarget::GetCommandMap
EXTRN	?GetDispatchMap@CCmdTarget@@MBEPBUAFX_DISPMAP@@XZ:PROC ; CCmdTarget::GetDispatchMap
EXTRN	?GetConnectionMap@CCmdTarget@@MBEPBUAFX_CONNECTIONMAP@@XZ:PROC ; CCmdTarget::GetConnectionMap
EXTRN	?GetEventSinkMap@CCmdTarget@@MBEPBUAFX_EVENTSINKMAP@@XZ:PROC ; CCmdTarget::GetEventSinkMap
EXTRN	?OnCreateAggregates@CCmdTarget@@UAEHXZ:PROC	; CCmdTarget::OnCreateAggregates
EXTRN	?GetInterfaceHook@CCmdTarget@@UAEPAUIUnknown@@PBX@Z:PROC ; CCmdTarget::GetInterfaceHook
EXTRN	?GetExtraConnectionPoints@CCmdTarget@@MAEHPAVCPtrArray@@@Z:PROC ; CCmdTarget::GetExtraConnectionPoints
EXTRN	?GetConnectionHook@CCmdTarget@@MAEPAUIConnectionPoint@@ABU_GUID@@@Z:PROC ; CCmdTarget::GetConnectionHook
EXTRN	?PreSubclassWindow@CWnd@@UAEXXZ:PROC		; CWnd::PreSubclassWindow
EXTRN	?Create@CWnd@@UAEHPBD0KABUtagRECT@@PAV1@IPAUCCreateContext@@@Z:PROC ; CWnd::Create
EXTRN	?CreateEx@CWnd@@UAEHKPBD0KHHHHPAUHWND__@@PAUHMENU__@@PAX@Z:PROC ; CWnd::CreateEx
EXTRN	?CreateEx@CWnd@@UAEHKPBD0KABUtagRECT@@PAV1@IPAX@Z:PROC ; CWnd::CreateEx
EXTRN	?DestroyWindow@CWnd@@UAEHXZ:PROC		; CWnd::DestroyWindow
EXTRN	?PreCreateWindow@CWnd@@UAEHAAUtagCREATESTRUCTA@@@Z:PROC ; CWnd::PreCreateWindow
EXTRN	?CalcWindowRect@CWnd@@UAEXPAUtagRECT@@I@Z:PROC	; CWnd::CalcWindowRect
EXTRN	?GetDlgItem@CWnd@@QBEPAV1@H@Z:PROC		; CWnd::GetDlgItem
EXTRN	?GetMenu@CWnd@@UBEPAVCMenu@@XZ:PROC		; CWnd::GetMenu
EXTRN	?SetMenu@CWnd@@UAEHPAVCMenu@@@Z:PROC		; CWnd::SetMenu
EXTRN	?OnToolHitTest@CWnd@@UBEHVCPoint@@PAUtagTOOLINFOA@@@Z:PROC ; CWnd::OnToolHitTest
EXTRN	?EnableWindow@CWnd@@QAEHH@Z:PROC		; CWnd::EnableWindow
EXTRN	?GetScrollBarCtrl@CWnd@@UBEPAVCScrollBar@@H@Z:PROC ; CWnd::GetScrollBarCtrl
EXTRN	?UpdateData@CWnd@@QAEHH@Z:PROC			; CWnd::UpdateData
EXTRN	?WinHelpA@CWnd@@UAEXKI@Z:PROC			; CWnd::WinHelpA
EXTRN	?HtmlHelpA@CWnd@@UAEXKI@Z:PROC			; CWnd::HtmlHelpA
EXTRN	?WinHelpInternal@CWnd@@UAEXKI@Z:PROC		; CWnd::WinHelpInternal
EXTRN	?ContinueModal@CWnd@@UAEHXZ:PROC		; CWnd::ContinueModal
EXTRN	?EndModalLoop@CWnd@@UAEXH@Z:PROC		; CWnd::EndModalLoop
EXTRN	?OnDrawIconicThumbnailOrLivePreview@CWnd@@UAEXAAVCDC@@VCRect@@VCSize@@HAAH@Z:PROC ; CWnd::OnDrawIconicThumbnailOrLivePreview
EXTRN	?GetInterfaceMap@CWnd@@MBEPBUAFX_INTERFACEMAP@@XZ:PROC ; CWnd::GetInterfaceMap
EXTRN	?EnsureStdObj@CWnd@@UAEJXZ:PROC			; CWnd::EnsureStdObj
EXTRN	?get_accParent@CWnd@@UAEJPAPAUIDispatch@@@Z:PROC ; CWnd::get_accParent
EXTRN	?get_accChildCount@CWnd@@UAEJPAJ@Z:PROC		; CWnd::get_accChildCount
EXTRN	?get_accChild@CWnd@@UAEJUtagVARIANT@@PAPAUIDispatch@@@Z:PROC ; CWnd::get_accChild
EXTRN	?get_accName@CWnd@@UAEJUtagVARIANT@@PAPA_W@Z:PROC ; CWnd::get_accName
EXTRN	?get_accValue@CWnd@@UAEJUtagVARIANT@@PAPA_W@Z:PROC ; CWnd::get_accValue
EXTRN	?get_accDescription@CWnd@@UAEJUtagVARIANT@@PAPA_W@Z:PROC ; CWnd::get_accDescription
EXTRN	?get_accRole@CWnd@@UAEJUtagVARIANT@@PAU2@@Z:PROC ; CWnd::get_accRole
EXTRN	?get_accState@CWnd@@UAEJUtagVARIANT@@PAU2@@Z:PROC ; CWnd::get_accState
EXTRN	?get_accHelp@CWnd@@UAEJUtagVARIANT@@PAPA_W@Z:PROC ; CWnd::get_accHelp
EXTRN	?get_accHelpTopic@CWnd@@UAEJPAPA_WUtagVARIANT@@PAJ@Z:PROC ; CWnd::get_accHelpTopic
EXTRN	?get_accKeyboardShortcut@CWnd@@UAEJUtagVARIANT@@PAPA_W@Z:PROC ; CWnd::get_accKeyboardShortcut
EXTRN	?get_accFocus@CWnd@@UAEJPAUtagVARIANT@@@Z:PROC	; CWnd::get_accFocus
EXTRN	?get_accSelection@CWnd@@UAEJPAUtagVARIANT@@@Z:PROC ; CWnd::get_accSelection
EXTRN	?get_accDefaultAction@CWnd@@UAEJUtagVARIANT@@PAPA_W@Z:PROC ; CWnd::get_accDefaultAction
EXTRN	?accSelect@CWnd@@UAEJJUtagVARIANT@@@Z:PROC	; CWnd::accSelect
EXTRN	?accLocation@CWnd@@UAEJPAJ000UtagVARIANT@@@Z:PROC ; CWnd::accLocation
EXTRN	?accNavigate@CWnd@@UAEJJUtagVARIANT@@PAU2@@Z:PROC ; CWnd::accNavigate
EXTRN	?accHitTest@CWnd@@UAEJJJPAUtagVARIANT@@@Z:PROC	; CWnd::accHitTest
EXTRN	?accDoDefaultAction@CWnd@@UAEJUtagVARIANT@@@Z:PROC ; CWnd::accDoDefaultAction
EXTRN	?put_accName@CWnd@@UAEJUtagVARIANT@@PA_W@Z:PROC	; CWnd::put_accName
EXTRN	?put_accValue@CWnd@@UAEJUtagVARIANT@@PA_W@Z:PROC ; CWnd::put_accValue
EXTRN	?SetProxy@CWnd@@UAEJPAUIAccessibleProxy@@@Z:PROC ; CWnd::SetProxy
EXTRN	?CreateAccessibleProxy@CWnd@@UAEJIJPAJ@Z:PROC	; CWnd::CreateAccessibleProxy
EXTRN	?OnCommand@CWnd@@MAEHIJ@Z:PROC			; CWnd::OnCommand
EXTRN	?OnNotify@CWnd@@MAEHIJPAJ@Z:PROC		; CWnd::OnNotify
EXTRN	?GetSuperWndProcAddr@CWnd@@MAEPAP6GJPAUHWND__@@IIJ@ZXZ:PROC ; CWnd::GetSuperWndProcAddr
EXTRN	?OnAmbientProperty@CWnd@@UAEHPAVCOleControlSite@@JPAUtagVARIANT@@@Z:PROC ; CWnd::OnAmbientProperty
EXTRN	?WindowProc@CWnd@@MAEJIIJ@Z:PROC		; CWnd::WindowProc
EXTRN	?OnWndMsg@CWnd@@MAEHIIJPAJ@Z:PROC		; CWnd::OnWndMsg
EXTRN	?DefWindowProcA@CWnd@@MAEJIIJ@Z:PROC		; CWnd::DefWindowProcA
EXTRN	?PostNcDestroy@CWnd@@MAEXXZ:PROC		; CWnd::PostNcDestroy
EXTRN	?OnChildNotify@CWnd@@MAEHIIJPAJ@Z:PROC		; CWnd::OnChildNotify
EXTRN	?OnTouchInputs@CWnd@@MAEHIPAUtagTOUCHINPUT@@@Z:PROC ; CWnd::OnTouchInputs
EXTRN	?OnTouchInput@CWnd@@MAEHVCPoint@@HHPAUtagTOUCHINPUT@@@Z:PROC ; CWnd::OnTouchInput
EXTRN	?GetGestureStatus@CWnd@@MAEKVCPoint@@@Z:PROC	; CWnd::GetGestureStatus
EXTRN	?OnGestureZoom@CWnd@@MAEHVCPoint@@J@Z:PROC	; CWnd::OnGestureZoom
EXTRN	?OnGesturePan@CWnd@@MAEHVCPoint@@0@Z:PROC	; CWnd::OnGesturePan
EXTRN	?OnGestureRotate@CWnd@@MAEHVCPoint@@N@Z:PROC	; CWnd::OnGestureRotate
EXTRN	?OnGestureTwoFingerTap@CWnd@@MAEHVCPoint@@@Z:PROC ; CWnd::OnGestureTwoFingerTap
EXTRN	?OnGesturePressAndTap@CWnd@@MAEHVCPoint@@J@Z:PROC ; CWnd::OnGesturePressAndTap
EXTRN	?ResizeDynamicLayout@CWnd@@MAEXXZ:PROC		; CWnd::ResizeDynamicLayout
EXTRN	?IsFrameWnd@CWnd@@UBEHXZ:PROC			; CWnd::IsFrameWnd
EXTRN	?OnFinalRelease@CWnd@@UAEXXZ:PROC		; CWnd::OnFinalRelease
EXTRN	?CreateControlContainer@CWnd@@MAEHPAPAVCOleControlContainer@@@Z:PROC ; CWnd::CreateControlContainer
EXTRN	?CreateControlSite@CWnd@@MAEHPAVCOleControlContainer@@PAPAVCOleControlSite@@IABU_GUID@@@Z:PROC ; CWnd::CreateControlSite
EXTRN	?GetRuntimeClass@CDialog@@UBEPAUCRuntimeClass@@XZ:PROC ; CDialog::GetRuntimeClass
EXTRN	?Create@CDialog@@UAEHPBDPAVCWnd@@@Z:PROC	; CDialog::Create
EXTRN	?CreateIndirect@CDialog@@UAEHPBUDLGTEMPLATE@@PAVCWnd@@PAX@Z:PROC ; CDialog::CreateIndirect
EXTRN	?CreateIndirect@CDialog@@UAEHPAXPAVCWnd@@@Z:PROC ; CDialog::CreateIndirect
EXTRN	??0CDialog@@QAE@IPAVCWnd@@@Z:PROC		; CDialog::CDialog
EXTRN	?DoModal@CDialog@@UAEHXZ:PROC			; CDialog::DoModal
EXTRN	?OnInitDialog@CDialog@@UAEHXZ:PROC		; CDialog::OnInitDialog
EXTRN	?OnSetFont@CDialog@@UAEXPAVCFont@@@Z:PROC	; CDialog::OnSetFont
EXTRN	?OnOK@CDialog@@MAEXXZ:PROC			; CDialog::OnOK
EXTRN	?OnCancel@CDialog@@MAEXXZ:PROC			; CDialog::OnCancel
EXTRN	??1CDialog@@UAE@XZ:PROC				; CDialog::~CDialog
EXTRN	?PreTranslateMessage@CDialog@@UAEHPAUtagMSG@@@Z:PROC ; CDialog::PreTranslateMessage
EXTRN	?OnCmdMsg@CDialog@@UAEHIHPAXPAUAFX_CMDHANDLERINFO@@@Z:PROC ; CDialog::OnCmdMsg
EXTRN	?CheckAutoCenter@CDialog@@UAEHXZ:PROC		; CDialog::CheckAutoCenter
EXTRN	?SetOccDialogInfo@CDialog@@MAEHPAU_AFX_OCC_DIALOG_INFO@@@Z:PROC ; CDialog::SetOccDialogInfo
EXTRN	?GetOccDialogInfo@CDialog@@MAEPAU_AFX_OCC_DIALOG_INFO@@XZ:PROC ; CDialog::GetOccDialogInfo
EXTRN	?PreInitDialog@CDialog@@MAEXXZ:PROC		; CDialog::PreInitDialog
EXTRN	?GetThisMessageMap@CDialog@@KGPBUAFX_MSGMAP@@XZ:PROC ; CDialog::GetThisMessageMap
EXTRN	??_ECDlgBlockInsert@@UAEPAXI@Z:PROC		; CDlgBlockInsert::`vector deleting destructor'
EXTRN	__imp_?SetGridType@CScale@@QAEXW4SCALEGRIDTYPE@CScaleBaseData@@@Z:PROC
EXTRN	__imp_?GetGridType@CScale@@QBE?AW4SCALEGRIDTYPE@CScaleBaseData@@XZ:PROC
EXTRN	__imp_?GetHorzScalePosition@CHorizontalScale@@QBE?AW4HORZSCALEPOSITION@CScaleBaseData@@XZ:PROC
EXTRN	?IsOnlyBottomBlockShow@CInsertingBlockHorzScaleData@@QBE_NXZ:PROC ; CInsertingBlockHorzScaleData::IsOnlyBottomBlockShow
EXTRN	?GetHorizontalScale@CInsertingBlockHorzScaleData@@QAEAAVCHorizontalScale@@XZ:PROC ; CInsertingBlockHorzScaleData::GetHorizontalScale
EXTRN	?SetOnlyBottomBlockShow@CInsertingBlockHorzScaleData@@QAEX_N@Z:PROC ; CInsertingBlockHorzScaleData::SetOnlyBottomBlockShow
EXTRN	??_7type_info@@6B@:QWORD			; type_info::`vftable'
;	COMDAT ??_R1A@?0A@EA@CDlgBlockInsert@@8
rdata$r	SEGMENT
??_R1A@?0A@EA@CDlgBlockInsert@@8 DD FLAT:??_R0?AVCDlgBlockInsert@@@8 ; CDlgBlockInsert::`RTTI Base Class Descriptor at (0,-1,0,64)'
	DD	04H
	DD	00H
	DD	0ffffffffH
	DD	00H
	DD	040H
	DD	FLAT:??_R3CDlgBlockInsert@@8
rdata$r	ENDS
;	COMDAT ??_R2CDlgBlockInsert@@8
rdata$r	SEGMENT
??_R2CDlgBlockInsert@@8 DD FLAT:??_R1A@?0A@EA@CDlgBlockInsert@@8 ; CDlgBlockInsert::`RTTI Base Class Array'
	DD	FLAT:??_R1A@?0A@EA@CDialog@@8
	DD	FLAT:??_R1A@?0A@EA@CWnd@@8
	DD	FLAT:??_R1A@?0A@EA@CCmdTarget@@8
	DD	FLAT:??_R1A@?0A@EA@CObject@@8
rdata$r	ENDS
;	COMDAT ??_R3CDlgBlockInsert@@8
rdata$r	SEGMENT
??_R3CDlgBlockInsert@@8 DD 00H				; CDlgBlockInsert::`RTTI Class Hierarchy Descriptor'
	DD	00H
	DD	05H
	DD	FLAT:??_R2CDlgBlockInsert@@8
rdata$r	ENDS
;	COMDAT ??_R0?AVCDlgBlockInsert@@@8
data$rs	SEGMENT
??_R0?AVCDlgBlockInsert@@@8 DD FLAT:??_7type_info@@6B@	; CDlgBlockInsert `RTTI Type Descriptor'
	DD	00H
	DB	'.?AVCDlgBlockInsert@@', 00H
data$rs	ENDS
;	COMDAT ??_R4CDlgBlockInsert@@6B@
rdata$r	SEGMENT
??_R4CDlgBlockInsert@@6B@ DD 00H			; CDlgBlockInsert::`RTTI Complete Object Locator'
	DD	00H
	DD	00H
	DD	FLAT:??_R0?AVCDlgBlockInsert@@@8
	DD	FLAT:??_R3CDlgBlockInsert@@8
rdata$r	ENDS
;	COMDAT ?messageMap@?1??GetThisMessageMap@CDlgBlockInsert@@KGPBUAFX_MSGMAP@@XZ@4U3@B
CONST	SEGMENT
?messageMap@?1??GetThisMessageMap@CDlgBlockInsert@@KGPBUAFX_MSGMAP@@XZ@4U3@B DD FLAT:?GetThisMessageMap@CDialog@@KGPBUAFX_MSGMAP@@XZ ; `CDlgBlockInsert::GetThisMessageMap'::`2'::messageMap
	DD	FLAT:?_messageEntries@?1??GetThisMessageMap@CDlgBlockInsert@@KGPBUAFX_MSGMAP@@XZ@4QBUAFX_MSGMAP_ENTRY@@B
CONST	ENDS
;	COMDAT ?_messageEntries@?1??GetThisMessageMap@CDlgBlockInsert@@KGPBUAFX_MSGMAP@@XZ@4QBUAFX_MSGMAP_ENTRY@@B
CONST	SEGMENT
?_messageEntries@?1??GetThisMessageMap@CDlgBlockInsert@@KGPBUAFX_MSGMAP@@XZ@4QBUAFX_MSGMAP_ENTRY@@B DD 0111H ; `CDlgBlockInsert::GetThisMessageMap'::`2'::_messageEntries
	DD	00H
	DD	0271bH
	DD	0271bH
	DD	03aH
	DD	FLAT:?OnOnlyBottomShow@CDlgBlockInsert@@IAEXXZ
	DD	00H
	DD	00H
	DD	00H
	DD	00H
	DD	00H
	DD	00H
CONST	ENDS
;	COMDAT ??_7CDlgBlockInsert@@6B@
CONST	SEGMENT
??_7CDlgBlockInsert@@6B@ DD FLAT:??_R4CDlgBlockInsert@@6B@ ; CDlgBlockInsert::`vftable'
	DD	FLAT:?GetRuntimeClass@CDialog@@UBEPAUCRuntimeClass@@XZ
	DD	FLAT:??_ECDlgBlockInsert@@UAEPAXI@Z
	DD	FLAT:?Serialize@CObject@@UAEXAAVCArchive@@@Z
	DD	FLAT:?AssertValid@CObject@@UBEXXZ
	DD	FLAT:?Dump@CObject@@UBEXAAVCDumpContext@@@Z
	DD	FLAT:?OnCmdMsg@CDialog@@UAEHIHPAXPAUAFX_CMDHANDLERINFO@@@Z
	DD	FLAT:?OnFinalRelease@CWnd@@UAEXXZ
	DD	FLAT:?IsInvokeAllowed@CCmdTarget@@UAEHJ@Z
	DD	FLAT:?GetDispatchIID@CCmdTarget@@UAEHPAU_GUID@@@Z
	DD	FLAT:?GetTypeInfoCount@CCmdTarget@@UAEIXZ
	DD	FLAT:?GetTypeLibCache@CCmdTarget@@UAEPAVCTypeLibCache@@XZ
	DD	FLAT:?GetTypeLib@CCmdTarget@@UAEJKPAPAUITypeLib@@@Z
	DD	FLAT:?GetMessageMap@CDlgBlockInsert@@MBEPBUAFX_MSGMAP@@XZ
	DD	FLAT:?GetCommandMap@CCmdTarget@@MBEPBUAFX_OLECMDMAP@@XZ
	DD	FLAT:?GetDispatchMap@CCmdTarget@@MBEPBUAFX_DISPMAP@@XZ
	DD	FLAT:?GetConnectionMap@CCmdTarget@@MBEPBUAFX_CONNECTIONMAP@@XZ
	DD	FLAT:?GetInterfaceMap@CWnd@@MBEPBUAFX_INTERFACEMAP@@XZ
	DD	FLAT:?GetEventSinkMap@CCmdTarget@@MBEPBUAFX_EVENTSINKMAP@@XZ
	DD	FLAT:?OnCreateAggregates@CCmdTarget@@UAEHXZ
	DD	FLAT:?GetInterfaceHook@CCmdTarget@@UAEPAUIUnknown@@PBX@Z
	DD	FLAT:?GetExtraConnectionPoints@CCmdTarget@@MAEHPAVCPtrArray@@@Z
	DD	FLAT:?GetConnectionHook@CCmdTarget@@MAEPAUIConnectionPoint@@ABU_GUID@@@Z
	DD	FLAT:?PreSubclassWindow@CWnd@@UAEXXZ
	DD	FLAT:?Create@CWnd@@UAEHPBD0KABUtagRECT@@PAV1@IPAUCCreateContext@@@Z
	DD	FLAT:?CreateEx@CWnd@@UAEHKPBD0KABUtagRECT@@PAV1@IPAX@Z
	DD	FLAT:?CreateEx@CWnd@@UAEHKPBD0KHHHHPAUHWND__@@PAUHMENU__@@PAX@Z
	DD	FLAT:?DestroyWindow@CWnd@@UAEHXZ
	DD	FLAT:?PreCreateWindow@CWnd@@UAEHAAUtagCREATESTRUCTA@@@Z
	DD	FLAT:?CalcWindowRect@CWnd@@UAEXPAUtagRECT@@I@Z
	DD	FLAT:?GetMenu@CWnd@@UBEPAVCMenu@@XZ
	DD	FLAT:?SetMenu@CWnd@@UAEHPAVCMenu@@@Z
	DD	FLAT:?OnToolHitTest@CWnd@@UBEHVCPoint@@PAUtagTOOLINFOA@@@Z
	DD	FLAT:?GetScrollBarCtrl@CWnd@@UBEPAVCScrollBar@@H@Z
	DD	FLAT:?WinHelpA@CWnd@@UAEXKI@Z
	DD	FLAT:?HtmlHelpA@CWnd@@UAEXKI@Z
	DD	FLAT:?WinHelpInternal@CWnd@@UAEXKI@Z
	DD	FLAT:?ContinueModal@CWnd@@UAEHXZ
	DD	FLAT:?EndModalLoop@CWnd@@UAEXH@Z
	DD	FLAT:?OnDrawIconicThumbnailOrLivePreview@CWnd@@UAEXAAVCDC@@VCRect@@VCSize@@HAAH@Z
	DD	FLAT:?EnsureStdObj@CWnd@@UAEJXZ
	DD	FLAT:?get_accParent@CWnd@@UAEJPAPAUIDispatch@@@Z
	DD	FLAT:?get_accChildCount@CWnd@@UAEJPAJ@Z
	DD	FLAT:?get_accChild@CWnd@@UAEJUtagVARIANT@@PAPAUIDispatch@@@Z
	DD	FLAT:?get_accName@CWnd@@UAEJUtagVARIANT@@PAPA_W@Z
	DD	FLAT:?get_accValue@CWnd@@UAEJUtagVARIANT@@PAPA_W@Z
	DD	FLAT:?get_accDescription@CWnd@@UAEJUtagVARIANT@@PAPA_W@Z
	DD	FLAT:?get_accRole@CWnd@@UAEJUtagVARIANT@@PAU2@@Z
	DD	FLAT:?get_accState@CWnd@@UAEJUtagVARIANT@@PAU2@@Z
	DD	FLAT:?get_accHelp@CWnd@@UAEJUtagVARIANT@@PAPA_W@Z
	DD	FLAT:?get_accHelpTopic@CWnd@@UAEJPAPA_WUtagVARIANT@@PAJ@Z
	DD	FLAT:?get_accKeyboardShortcut@CWnd@@UAEJUtagVARIANT@@PAPA_W@Z
	DD	FLAT:?get_accFocus@CWnd@@UAEJPAUtagVARIANT@@@Z
	DD	FLAT:?get_accSelection@CWnd@@UAEJPAUtagVARIANT@@@Z
	DD	FLAT:?get_accDefaultAction@CWnd@@UAEJUtagVARIANT@@PAPA_W@Z
	DD	FLAT:?accSelect@CWnd@@UAEJJUtagVARIANT@@@Z
	DD	FLAT:?accLocation@CWnd@@UAEJPAJ000UtagVARIANT@@@Z
	DD	FLAT:?accNavigate@CWnd@@UAEJJUtagVARIANT@@PAU2@@Z
	DD	FLAT:?accHitTest@CWnd@@UAEJJJPAUtagVARIANT@@@Z
	DD	FLAT:?accDoDefaultAction@CWnd@@UAEJUtagVARIANT@@@Z
	DD	FLAT:?put_accName@CWnd@@UAEJUtagVARIANT@@PA_W@Z
	DD	FLAT:?put_accValue@CWnd@@UAEJUtagVARIANT@@PA_W@Z
	DD	FLAT:?SetProxy@CWnd@@UAEJPAUIAccessibleProxy@@@Z
	DD	FLAT:?CreateAccessibleProxy@CWnd@@UAEJIJPAJ@Z
	DD	FLAT:?OnCommand@CWnd@@MAEHIJ@Z
	DD	FLAT:?OnNotify@CWnd@@MAEHIJPAJ@Z
	DD	FLAT:?GetSuperWndProcAddr@CWnd@@MAEPAP6GJPAUHWND__@@IIJ@ZXZ
	DD	FLAT:?DoDataExchange@CDlgBlockInsert@@MAEXPAVCDataExchange@@@Z
	DD	FLAT:?BeginModalState@CWnd@@UAEXXZ
	DD	FLAT:?EndModalState@CWnd@@UAEXXZ
	DD	FLAT:?PreTranslateMessage@CDialog@@UAEHPAUtagMSG@@@Z
	DD	FLAT:?OnAmbientProperty@CWnd@@UAEHPAVCOleControlSite@@JPAUtagVARIANT@@@Z
	DD	FLAT:?WindowProc@CWnd@@MAEJIIJ@Z
	DD	FLAT:?OnWndMsg@CWnd@@MAEHIIJPAJ@Z
	DD	FLAT:?DefWindowProcA@CWnd@@MAEJIIJ@Z
	DD	FLAT:?PostNcDestroy@CWnd@@MAEXXZ
	DD	FLAT:?OnChildNotify@CWnd@@MAEHIIJPAJ@Z
	DD	FLAT:?OnTouchInputs@CWnd@@MAEHIPAUtagTOUCHINPUT@@@Z
	DD	FLAT:?OnTouchInput@CWnd@@MAEHVCPoint@@HHPAUtagTOUCHINPUT@@@Z
	DD	FLAT:?GetGestureStatus@CWnd@@MAEKVCPoint@@@Z
	DD	FLAT:?OnGestureZoom@CWnd@@MAEHVCPoint@@J@Z
	DD	FLAT:?OnGesturePan@CWnd@@MAEHVCPoint@@0@Z
	DD	FLAT:?OnGestureRotate@CWnd@@MAEHVCPoint@@N@Z
	DD	FLAT:?OnGestureTwoFingerTap@CWnd@@MAEHVCPoint@@@Z
	DD	FLAT:?OnGesturePressAndTap@CWnd@@MAEHVCPoint@@J@Z
	DD	FLAT:?ResizeDynamicLayout@CWnd@@MAEXXZ
	DD	FLAT:?CheckAutoCenter@CDialog@@UAEHXZ
	DD	FLAT:?IsFrameWnd@CWnd@@UBEHXZ
	DD	FLAT:?CreateControlContainer@CWnd@@MAEHPAPAVCOleControlContainer@@@Z
	DD	FLAT:?CreateControlSite@CWnd@@MAEHPAVCOleControlContainer@@PAPAVCOleControlSite@@IABU_GUID@@@Z
	DD	FLAT:?SetOccDialogInfo@CDialog@@MAEHPAU_AFX_OCC_DIALOG_INFO@@@Z
	DD	FLAT:?GetOccDialogInfo@CDialog@@MAEPAU_AFX_OCC_DIALOG_INFO@@XZ
	DD	FLAT:?Create@CDialog@@UAEHIPAVCWnd@@@Z
	DD	FLAT:?Create@CDialog@@UAEHPBDPAVCWnd@@@Z
	DD	FLAT:?CreateIndirect@CDialog@@UAEHPAXPAVCWnd@@@Z
	DD	FLAT:?CreateIndirect@CDialog@@UAEHPBUDLGTEMPLATE@@PAVCWnd@@PAX@Z
	DD	FLAT:?DoModal@CDialog@@UAEHXZ
	DD	FLAT:?OnInitDialog@CDlgBlockInsert@@MAEHXZ
	DD	FLAT:?OnSetFont@CDialog@@UAEXPAVCFont@@@Z
	DD	FLAT:?OnOK@CDlgBlockInsert@@MAEXXZ
	DD	FLAT:?OnCancel@CDlgBlockInsert@@MAEXXZ
	DD	FLAT:?PreInitDialog@CDialog@@MAEXXZ
CONST	ENDS
;	COMDAT ??_R2CDialog@@8
rdata$r	SEGMENT
??_R2CDialog@@8 DD FLAT:??_R1A@?0A@EA@CDialog@@8	; CDialog::`RTTI Base Class Array'
	DD	FLAT:??_R1A@?0A@EA@CWnd@@8
	DD	FLAT:??_R1A@?0A@EA@CCmdTarget@@8
	DD	FLAT:??_R1A@?0A@EA@CObject@@8
rdata$r	ENDS
;	COMDAT ??_R3CDialog@@8
rdata$r	SEGMENT
??_R3CDialog@@8 DD 00H					; CDialog::`RTTI Class Hierarchy Descriptor'
	DD	00H
	DD	04H
	DD	FLAT:??_R2CDialog@@8
rdata$r	ENDS
;	COMDAT ??_R0?AVCDialog@@@8
data$rs	SEGMENT
??_R0?AVCDialog@@@8 DD FLAT:??_7type_info@@6B@		; CDialog `RTTI Type Descriptor'
	DD	00H
	DB	'.?AVCDialog@@', 00H
data$rs	ENDS
;	COMDAT ??_R1A@?0A@EA@CDialog@@8
rdata$r	SEGMENT
??_R1A@?0A@EA@CDialog@@8 DD FLAT:??_R0?AVCDialog@@@8	; CDialog::`RTTI Base Class Descriptor at (0,-1,0,64)'
	DD	03H
	DD	00H
	DD	0ffffffffH
	DD	00H
	DD	040H
	DD	FLAT:??_R3CDialog@@8
rdata$r	ENDS
;	COMDAT ??_R2CCmdTarget@@8
rdata$r	SEGMENT
??_R2CCmdTarget@@8 DD FLAT:??_R1A@?0A@EA@CCmdTarget@@8	; CCmdTarget::`RTTI Base Class Array'
	DD	FLAT:??_R1A@?0A@EA@CObject@@8
rdata$r	ENDS
;	COMDAT ??_R3CCmdTarget@@8
rdata$r	SEGMENT
??_R3CCmdTarget@@8 DD 00H				; CCmdTarget::`RTTI Class Hierarchy Descriptor'
	DD	00H
	DD	02H
	DD	FLAT:??_R2CCmdTarget@@8
rdata$r	ENDS
;	COMDAT ??_R0?AVCCmdTarget@@@8
data$rs	SEGMENT
??_R0?AVCCmdTarget@@@8 DD FLAT:??_7type_info@@6B@	; CCmdTarget `RTTI Type Descriptor'
	DD	00H
	DB	'.?AVCCmdTarget@@', 00H
data$rs	ENDS
;	COMDAT ??_R1A@?0A@EA@CCmdTarget@@8
rdata$r	SEGMENT
??_R1A@?0A@EA@CCmdTarget@@8 DD FLAT:??_R0?AVCCmdTarget@@@8 ; CCmdTarget::`RTTI Base Class Descriptor at (0,-1,0,64)'
	DD	01H
	DD	00H
	DD	0ffffffffH
	DD	00H
	DD	040H
	DD	FLAT:??_R3CCmdTarget@@8
rdata$r	ENDS
;	COMDAT ??_R2CWnd@@8
rdata$r	SEGMENT
??_R2CWnd@@8 DD	FLAT:??_R1A@?0A@EA@CWnd@@8		; CWnd::`RTTI Base Class Array'
	DD	FLAT:??_R1A@?0A@EA@CCmdTarget@@8
	DD	FLAT:??_R1A@?0A@EA@CObject@@8
rdata$r	ENDS
;	COMDAT ??_R3CWnd@@8
rdata$r	SEGMENT
??_R3CWnd@@8 DD	00H					; CWnd::`RTTI Class Hierarchy Descriptor'
	DD	00H
	DD	03H
	DD	FLAT:??_R2CWnd@@8
rdata$r	ENDS
;	COMDAT ??_R0?AVCWnd@@@8
data$rs	SEGMENT
??_R0?AVCWnd@@@8 DD FLAT:??_7type_info@@6B@		; CWnd `RTTI Type Descriptor'
	DD	00H
	DB	'.?AVCWnd@@', 00H
data$rs	ENDS
;	COMDAT ??_R1A@?0A@EA@CWnd@@8
rdata$r	SEGMENT
??_R1A@?0A@EA@CWnd@@8 DD FLAT:??_R0?AVCWnd@@@8		; CWnd::`RTTI Base Class Descriptor at (0,-1,0,64)'
	DD	02H
	DD	00H
	DD	0ffffffffH
	DD	00H
	DD	040H
	DD	FLAT:??_R3CWnd@@8
rdata$r	ENDS
;	COMDAT ??_R1A@?0A@EA@CObject@@8
rdata$r	SEGMENT
??_R1A@?0A@EA@CObject@@8 DD FLAT:??_R0?AVCObject@@@8	; CObject::`RTTI Base Class Descriptor at (0,-1,0,64)'
	DD	00H
	DD	00H
	DD	0ffffffffH
	DD	00H
	DD	040H
	DD	FLAT:??_R3CObject@@8
rdata$r	ENDS
;	COMDAT ??_R2CObject@@8
rdata$r	SEGMENT
??_R2CObject@@8 DD FLAT:??_R1A@?0A@EA@CObject@@8	; CObject::`RTTI Base Class Array'
rdata$r	ENDS
;	COMDAT ??_R3CObject@@8
rdata$r	SEGMENT
??_R3CObject@@8 DD 00H					; CObject::`RTTI Class Hierarchy Descriptor'
	DD	00H
	DD	01H
	DD	FLAT:??_R2CObject@@8
rdata$r	ENDS
;	COMDAT ??_R0?AVCObject@@@8
data$rs	SEGMENT
??_R0?AVCObject@@@8 DD FLAT:??_7type_info@@6B@		; CObject `RTTI Type Descriptor'
	DD	00H
	DB	'.?AVCObject@@', 00H
data$rs	ENDS
; Function compile flags: /Ogtp
; File C:\Program Files (x86)\Microsoft Visual Studio\2019\Community\VC\Tools\MSVC\14.29.30133\atlmfc\include\afx.inl
;	COMDAT ??_GCDlgBlockInsert@@UAEPAXI@Z
_TEXT	SEGMENT
___flags$ = 8						; size = 4
??_GCDlgBlockInsert@@UAEPAXI@Z PROC			; CDlgBlockInsert::`scalar deleting destructor', COMDAT
; _this$ = ecx
  00000	55		 push	 ebp
  00001	8b ec		 mov	 ebp, esp
  00003	56		 push	 esi
  00004	8b f1		 mov	 esi, ecx
  00006	e8 00 00 00 00	 call	 ??1CDialog@@UAE@XZ	; CDialog::~CDialog
  0000b	8b 45 08	 mov	 eax, DWORD PTR ___flags$[ebp]
  0000e	a8 01		 test	 al, 1
  00010	74 22		 je	 SHORT $LN12@scalar
  00012	a8 04		 test	 al, 4
  00014	75 10		 jne	 SHORT $LN3@scalar

; 112  : 	{ ::operator delete(p); }

  00016	56		 push	 esi
  00017	e8 00 00 00 00	 call	 ??3@YAXPAX@Z		; operator delete
  0001c	83 c4 04	 add	 esp, 4
  0001f	8b c6		 mov	 eax, esi
  00021	5e		 pop	 esi
  00022	5d		 pop	 ebp
  00023	c2 04 00	 ret	 4
$LN3@scalar:
  00026	68 c0 00 00 00	 push	 192			; 000000c0H
  0002b	56		 push	 esi
  0002c	e8 00 00 00 00	 call	 ?__global_delete@@YAXPAXI@Z ; __global_delete
  00031	83 c4 08	 add	 esp, 8
$LN12@scalar:
  00034	8b c6		 mov	 eax, esi
  00036	5e		 pop	 esi
  00037	5d		 pop	 ebp
  00038	c2 04 00	 ret	 4
??_GCDlgBlockInsert@@UAEPAXI@Z ENDP			; CDlgBlockInsert::`scalar deleting destructor'
_TEXT	ENDS
; Function compile flags: /Ogtp
; File D:\git\src\IBK\IBK_DRFN\ProjSrc\SrcChartEx\ChartOCX\ChartObject\DlgBlockInsert.cpp
;	COMDAT ?EnableWindow@CDlgBlockInsert@@AAEXPAVCWnd@@_N@Z
_TEXT	SEGMENT
_pItem$ = 8						; size = 4
_bEnable$ = 12						; size = 1
?EnableWindow@CDlgBlockInsert@@AAEXPAVCWnd@@_N@Z PROC	; CDlgBlockInsert::EnableWindow, COMDAT
; _this$ = ecx

; 136  : {

  00000	55		 push	 ebp
  00001	8b ec		 mov	 ebp, esp

; 137  : 	if(pItem == NULL)

  00003	8b 4d 08	 mov	 ecx, DWORD PTR _pItem$[ebp]
  00006	85 c9		 test	 ecx, ecx
  00008	74 0a		 je	 SHORT $LN1@EnableWind

; 138  : 		return;
; 139  : 
; 140  : 	pItem->EnableWindow(bEnable);

  0000a	0f b6 45 0c	 movzx	 eax, BYTE PTR _bEnable$[ebp]
  0000e	50		 push	 eax
  0000f	e8 00 00 00 00	 call	 ?EnableWindow@CWnd@@QAEHH@Z ; CWnd::EnableWindow
$LN1@EnableWind:

; 141  : }

  00014	5d		 pop	 ebp
  00015	c2 08 00	 ret	 8
?EnableWindow@CDlgBlockInsert@@AAEXPAVCWnd@@_N@Z ENDP	; CDlgBlockInsert::EnableWindow
_TEXT	ENDS
; Function compile flags: /Ogtp
; File D:\git\src\IBK\IBK_DRFN\ProjSrc\SrcChartEx\ChartOCX\ChartObject\DlgBlockInsert.cpp
;	COMDAT ?EnableWindowOnOnlyEndScale@CDlgBlockInsert@@AAEX_N@Z
_TEXT	SEGMENT
_bEnable$ = 8						; size = 1
?EnableWindowOnOnlyEndScale@CDlgBlockInsert@@AAEX_N@Z PROC ; CDlgBlockInsert::EnableWindowOnOnlyEndScale, COMDAT
; _this$ = ecx

; 126  : {

  00000	55		 push	 ebp
  00001	8b ec		 mov	 ebp, esp
  00003	56		 push	 esi
  00004	57		 push	 edi

; 127  : 	// scale position
; 128  : 	EnableWindow(GetDlgItem(IDC_SCALEPOSITION), bEnable);

  00005	68 eb 03 00 00	 push	 1003			; 000003ebH
  0000a	8b f9		 mov	 edi, ecx
  0000c	e8 00 00 00 00	 call	 ?GetDlgItem@CWnd@@QBEPAV1@H@Z ; CWnd::GetDlgItem
  00011	0f b6 75 08	 movzx	 esi, BYTE PTR _bEnable$[ebp]

; 137  : 	if(pItem == NULL)

  00015	85 c0		 test	 eax, eax
  00017	74 08		 je	 SHORT $LN18@EnableWind

; 138  : 		return;
; 139  : 
; 140  : 	pItem->EnableWindow(bEnable);

  00019	56		 push	 esi
  0001a	8b c8		 mov	 ecx, eax
  0001c	e8 00 00 00 00	 call	 ?EnableWindow@CWnd@@QAEHH@Z ; CWnd::EnableWindow
$LN18@EnableWind:

; 129  : 	EnableWindow(GetDlgItem(IDC_SCALEPOSITION1), bEnable);

  00021	68 ec 03 00 00	 push	 1004			; 000003ecH
  00026	8b cf		 mov	 ecx, edi
  00028	e8 00 00 00 00	 call	 ?GetDlgItem@CWnd@@QBEPAV1@H@Z ; CWnd::GetDlgItem

; 137  : 	if(pItem == NULL)

  0002d	85 c0		 test	 eax, eax
  0002f	74 08		 je	 SHORT $LN6@EnableWind

; 138  : 		return;
; 139  : 
; 140  : 	pItem->EnableWindow(bEnable);

  00031	56		 push	 esi
  00032	8b c8		 mov	 ecx, eax
  00034	e8 00 00 00 00	 call	 ?EnableWindow@CWnd@@QAEHH@Z ; CWnd::EnableWindow
$LN6@EnableWind:

; 130  : 	EnableWindow(GetDlgItem(IDC_SCALEPOSITION2), bEnable);

  00039	68 42 1f 00 00	 push	 8002			; 00001f42H
  0003e	8b cf		 mov	 ecx, edi
  00040	e8 00 00 00 00	 call	 ?GetDlgItem@CWnd@@QBEPAV1@H@Z ; CWnd::GetDlgItem

; 137  : 	if(pItem == NULL)

  00045	85 c0		 test	 eax, eax
  00047	74 08		 je	 SHORT $LN9@EnableWind

; 138  : 		return;
; 139  : 
; 140  : 	pItem->EnableWindow(bEnable);

  00049	56		 push	 esi
  0004a	8b c8		 mov	 ecx, eax
  0004c	e8 00 00 00 00	 call	 ?EnableWindow@CWnd@@QAEHH@Z ; CWnd::EnableWindow
$LN9@EnableWind:

; 131  : 	EnableWindow(GetDlgItem(IDC_SCALEPOSITION3), bEnable);

  00051	68 43 1f 00 00	 push	 8003			; 00001f43H
  00056	8b cf		 mov	 ecx, edi
  00058	e8 00 00 00 00	 call	 ?GetDlgItem@CWnd@@QBEPAV1@H@Z ; CWnd::GetDlgItem

; 137  : 	if(pItem == NULL)

  0005d	85 c0		 test	 eax, eax
  0005f	74 08		 je	 SHORT $LN12@EnableWind

; 138  : 		return;
; 139  : 
; 140  : 	pItem->EnableWindow(bEnable);

  00061	56		 push	 esi
  00062	8b c8		 mov	 ecx, eax
  00064	e8 00 00 00 00	 call	 ?EnableWindow@CWnd@@QAEHH@Z ; CWnd::EnableWindow
$LN12@EnableWind:

; 132  : 	EnableWindow(GetDlgItem(IDC_SCALEPOSITION4), bEnable);

  00069	68 44 1f 00 00	 push	 8004			; 00001f44H
  0006e	8b cf		 mov	 ecx, edi
  00070	e8 00 00 00 00	 call	 ?GetDlgItem@CWnd@@QBEPAV1@H@Z ; CWnd::GetDlgItem

; 137  : 	if(pItem == NULL)

  00075	85 c0		 test	 eax, eax
  00077	74 08		 je	 SHORT $LN15@EnableWind

; 138  : 		return;
; 139  : 
; 140  : 	pItem->EnableWindow(bEnable);

  00079	56		 push	 esi
  0007a	8b c8		 mov	 ecx, eax
  0007c	e8 00 00 00 00	 call	 ?EnableWindow@CWnd@@QAEHH@Z ; CWnd::EnableWindow
$LN15@EnableWind:
  00081	5f		 pop	 edi

; 133  : }

  00082	5e		 pop	 esi
  00083	5d		 pop	 ebp
  00084	c2 04 00	 ret	 4
?EnableWindowOnOnlyEndScale@CDlgBlockInsert@@AAEX_N@Z ENDP ; CDlgBlockInsert::EnableWindowOnOnlyEndScale
_TEXT	ENDS
; Function compile flags: /Ogtp
; File D:\git\src\IBK\IBK_DRFN\ProjSrc\SrcChartEx\ChartOCX\ChartObject\DlgBlockInsert.cpp
;	COMDAT ?SetHorzScaleData@CDlgBlockInsert@@AAEXXZ
_TEXT	SEGMENT
?SetHorzScaleData@CDlgBlockInsert@@AAEXXZ PROC		; CDlgBlockInsert::SetHorzScaleData, COMDAT
; _this$ = ecx

; 110  : {

  00000	57		 push	 edi
  00001	8b f9		 mov	 edi, ecx

; 111  : 	if(m_pInsertingBlockHorzScaleData == NULL)

  00003	83 bf b8 00 00
	00 00		 cmp	 DWORD PTR [edi+184], 0
  0000a	74 65		 je	 SHORT $LN1@SetHorzSca

; 112  : 		return;
; 113  : 
; 114  : 	UpdateData(TRUE);

  0000c	56		 push	 esi
  0000d	6a 01		 push	 1
  0000f	e8 00 00 00 00	 call	 ?UpdateData@CWnd@@QAEHH@Z ; CWnd::UpdateData

; 115  : 	m_pInsertingBlockHorzScaleData->SetOnlyBottomBlockShow(m_bOnlyBottomShow);

  00014	83 bf a8 00 00
	00 00		 cmp	 DWORD PTR [edi+168], 0
  0001b	8b 8f b8 00 00
	00		 mov	 ecx, DWORD PTR [edi+184]
  00021	0f 95 c0	 setne	 al
  00024	0f b6 c0	 movzx	 eax, al
  00027	50		 push	 eax
  00028	e8 00 00 00 00	 call	 ?SetOnlyBottomBlockShow@CInsertingBlockHorzScaleData@@QAEX_N@Z ; CInsertingBlockHorzScaleData::SetOnlyBottomBlockShow

; 116  : 
; 117  : 	// (2009/9/6 - Seung-Won, Bae) Do not support CHorizontalScale::SetHorzScalePosition() as public.
; 118  : 	//		To rearrange the row positions. Use CMainBlockImp::SetHorzScalePosition().
; 119  : 	if( m_pMainBlockImp) m_pMainBlockImp->SetHorzScalePosition( m_pInsertingBlockHorzScaleData->GetHorizontalScale(), ( CScaleBaseData::HORZSCALEPOSITION)m_nScalePosition);

  0002d	8b b7 bc 00 00
	00		 mov	 esi, DWORD PTR [edi+188]
  00033	85 f6		 test	 esi, esi
  00035	74 20		 je	 SHORT $LN3@SetHorzSca
  00037	ff b7 ac 00 00
	00		 push	 DWORD PTR [edi+172]
  0003d	8b 8f b8 00 00
	00		 mov	 ecx, DWORD PTR [edi+184]
  00043	8b 36		 mov	 esi, DWORD PTR [esi]
  00045	e8 00 00 00 00	 call	 ?GetHorizontalScale@CInsertingBlockHorzScaleData@@QAEAAVCHorizontalScale@@XZ ; CInsertingBlockHorzScaleData::GetHorizontalScale
  0004a	8b 8f bc 00 00
	00		 mov	 ecx, DWORD PTR [edi+188]
  00050	50		 push	 eax
  00051	ff 96 d8 00 00
	00		 call	 DWORD PTR [esi+216]
$LN3@SetHorzSca:

; 120  : 
; 121  : 	m_pInsertingBlockHorzScaleData->GetHorizontalScale().SetGridType((CScaleBaseData::SCALEGRIDTYPE) m_nScaleGrid);

  00057	ff b7 b0 00 00
	00		 push	 DWORD PTR [edi+176]
  0005d	8b 8f b8 00 00
	00		 mov	 ecx, DWORD PTR [edi+184]
  00063	e8 00 00 00 00	 call	 ?GetHorizontalScale@CInsertingBlockHorzScaleData@@QAEAAVCHorizontalScale@@XZ ; CInsertingBlockHorzScaleData::GetHorizontalScale
  00068	8b c8		 mov	 ecx, eax
  0006a	ff 15 00 00 00
	00		 call	 DWORD PTR __imp_?SetGridType@CScale@@QAEXW4SCALEGRIDTYPE@CScaleBaseData@@@Z
  00070	5e		 pop	 esi
$LN1@SetHorzSca:

; 122  : }

  00071	5f		 pop	 edi
  00072	c3		 ret	 0
?SetHorzScaleData@CDlgBlockInsert@@AAEXXZ ENDP		; CDlgBlockInsert::SetHorzScaleData
_TEXT	ENDS
; Function compile flags: /Ogtp
; File D:\git\src\IBK\IBK_DRFN\ProjSrc\SrcChartEx\ChartOCX\ChartObject\DlgBlockInsert.cpp
;	COMDAT ?InitializeData@CDlgBlockInsert@@AAEXXZ
_TEXT	SEGMENT
?InitializeData@CDlgBlockInsert@@AAEXXZ PROC		; CDlgBlockInsert::InitializeData, COMDAT
; _this$ = ecx

; 97   : {

  00000	56		 push	 esi
  00001	8b f1		 mov	 esi, ecx

; 98   : 	if(m_pInsertingBlockHorzScaleData == NULL)

  00003	8b 8e b8 00 00
	00		 mov	 ecx, DWORD PTR [esi+184]
  00009	85 c9		 test	 ecx, ecx
  0000b	74 51		 je	 SHORT $LN1@Initialize

; 99   : 		return;
; 100  : 
; 101  : 	m_bOnlyBottomShow = m_pInsertingBlockHorzScaleData->IsOnlyBottomBlockShow();

  0000d	e8 00 00 00 00	 call	 ?IsOnlyBottomBlockShow@CInsertingBlockHorzScaleData@@QBE_NXZ ; CInsertingBlockHorzScaleData::IsOnlyBottomBlockShow

; 102  : 	m_nScalePosition = (int) m_pInsertingBlockHorzScaleData->GetHorizontalScale().GetHorzScalePosition();

  00012	8b 8e b8 00 00
	00		 mov	 ecx, DWORD PTR [esi+184]
  00018	0f b6 c0	 movzx	 eax, al
  0001b	89 86 a8 00 00
	00		 mov	 DWORD PTR [esi+168], eax
  00021	e8 00 00 00 00	 call	 ?GetHorizontalScale@CInsertingBlockHorzScaleData@@QAEAAVCHorizontalScale@@XZ ; CInsertingBlockHorzScaleData::GetHorizontalScale
  00026	8b c8		 mov	 ecx, eax
  00028	ff 15 00 00 00
	00		 call	 DWORD PTR __imp_?GetHorzScalePosition@CHorizontalScale@@QBE?AW4HORZSCALEPOSITION@CScaleBaseData@@XZ

; 103  : 	m_nScaleGrid = (int) m_pInsertingBlockHorzScaleData->GetHorizontalScale().GetGridType();

  0002e	8b 8e b8 00 00
	00		 mov	 ecx, DWORD PTR [esi+184]
  00034	89 86 ac 00 00
	00		 mov	 DWORD PTR [esi+172], eax
  0003a	e8 00 00 00 00	 call	 ?GetHorizontalScale@CInsertingBlockHorzScaleData@@QAEAAVCHorizontalScale@@XZ ; CInsertingBlockHorzScaleData::GetHorizontalScale
  0003f	8b c8		 mov	 ecx, eax
  00041	ff 15 00 00 00
	00		 call	 DWORD PTR __imp_?GetGridType@CScale@@QBE?AW4SCALEGRIDTYPE@CScaleBaseData@@XZ

; 104  : 
; 105  : 	UpdateData(FALSE);

  00047	6a 00		 push	 0
  00049	8b ce		 mov	 ecx, esi
  0004b	89 86 b0 00 00
	00		 mov	 DWORD PTR [esi+176], eax
  00051	e8 00 00 00 00	 call	 ?UpdateData@CWnd@@QAEHH@Z ; CWnd::UpdateData

; 106  : 	OnOnlyBottomShow();

  00056	8b ce		 mov	 ecx, esi
  00058	5e		 pop	 esi
  00059	e9 00 00 00 00	 jmp	 ?OnOnlyBottomShow@CDlgBlockInsert@@IAEXXZ ; CDlgBlockInsert::OnOnlyBottomShow
$LN1@Initialize:
  0005e	5e		 pop	 esi

; 107  : }

  0005f	c3		 ret	 0
?InitializeData@CDlgBlockInsert@@AAEXXZ ENDP		; CDlgBlockInsert::InitializeData
_TEXT	ENDS
; Function compile flags: /Ogtp
; File D:\git\src\IBK\IBK_DRFN\ProjSrc\SrcChartEx\ChartOCX\ChartObject\DlgBlockInsert.cpp
;	COMDAT ?GetMessageMap@CDlgBlockInsert@@MBEPBUAFX_MSGMAP@@XZ
_TEXT	SEGMENT
?GetMessageMap@CDlgBlockInsert@@MBEPBUAFX_MSGMAP@@XZ PROC ; CDlgBlockInsert::GetMessageMap, COMDAT
; _this$ = ecx

; 49   : BEGIN_MESSAGE_MAP(CDlgBlockInsert, CDialog)

  00000	b8 00 00 00 00	 mov	 eax, OFFSET ?messageMap@?1??GetThisMessageMap@CDlgBlockInsert@@KGPBUAFX_MSGMAP@@XZ@4U3@B
  00005	c3		 ret	 0
?GetMessageMap@CDlgBlockInsert@@MBEPBUAFX_MSGMAP@@XZ ENDP ; CDlgBlockInsert::GetMessageMap
_TEXT	ENDS
; Function compile flags: /Ogtp
; File D:\git\src\IBK\IBK_DRFN\ProjSrc\SrcChartEx\ChartOCX\ChartObject\DlgBlockInsert.cpp
;	COMDAT ?GetThisMessageMap@CDlgBlockInsert@@KGPBUAFX_MSGMAP@@XZ
_TEXT	SEGMENT
?GetThisMessageMap@CDlgBlockInsert@@KGPBUAFX_MSGMAP@@XZ PROC ; CDlgBlockInsert::GetThisMessageMap, COMDAT

; 50   : 	//{{AFX_MSG_MAP(CDlgBlockInsert)
; 51   : 	ON_BN_CLICKED(IDC_ONLYBOTTOMSHOW, OnOnlyBottomShow)
; 52   : 	//}}AFX_MSG_MAP
; 53   : END_MESSAGE_MAP()

  00000	b8 00 00 00 00	 mov	 eax, OFFSET ?messageMap@?1??GetThisMessageMap@CDlgBlockInsert@@KGPBUAFX_MSGMAP@@XZ@4U3@B
  00005	c3		 ret	 0
?GetThisMessageMap@CDlgBlockInsert@@KGPBUAFX_MSGMAP@@XZ ENDP ; CDlgBlockInsert::GetThisMessageMap
_TEXT	ENDS
; Function compile flags: /Ogtp
; File D:\git\src\IBK\IBK_DRFN\ProjSrc\SrcChartEx\ChartOCX\ChartObject\DlgBlockInsert.cpp
;	COMDAT ?OnOnlyBottomShow@CDlgBlockInsert@@IAEXXZ
_TEXT	SEGMENT
?OnOnlyBottomShow@CDlgBlockInsert@@IAEXXZ PROC		; CDlgBlockInsert::OnOnlyBottomShow, COMDAT
; _this$ = ecx

; 86   : {

  00000	53		 push	 ebx
  00001	56		 push	 esi
  00002	57		 push	 edi

; 87   : 	UpdateData(TRUE);

  00003	6a 01		 push	 1
  00005	8b f1		 mov	 esi, ecx
  00007	e8 00 00 00 00	 call	 ?UpdateData@CWnd@@QAEHH@Z ; CWnd::UpdateData

; 88   : 	m_nScalePosition = (int) CScaleBaseData::HORZ_BOTTOM;
; 89   : 	UpdateData(FALSE);

  0000c	6a 00		 push	 0
  0000e	8b ce		 mov	 ecx, esi
  00010	c7 86 ac 00 00
	00 01 00 00 00	 mov	 DWORD PTR [esi+172], 1
  0001a	e8 00 00 00 00	 call	 ?UpdateData@CWnd@@QAEHH@Z ; CWnd::UpdateData

; 90   : 	EnableWindowOnOnlyEndScale(!m_bOnlyBottomShow);

  0001f	8b be a8 00 00
	00		 mov	 edi, DWORD PTR [esi+168]

; 128  : 	EnableWindow(GetDlgItem(IDC_SCALEPOSITION), bEnable);

  00025	8b ce		 mov	 ecx, esi
  00027	68 eb 03 00 00	 push	 1003			; 000003ebH
  0002c	e8 00 00 00 00	 call	 ?GetDlgItem@CWnd@@QBEPAV1@H@Z ; CWnd::GetDlgItem

; 137  : 	if(pItem == NULL)

  00031	33 db		 xor	 ebx, ebx
  00033	85 c0		 test	 eax, eax
  00035	74 0f		 je	 SHORT $LN20@OnOnlyBott

; 138  : 		return;
; 139  : 
; 140  : 	pItem->EnableWindow(bEnable);

  00037	85 ff		 test	 edi, edi
  00039	8b c8		 mov	 ecx, eax
  0003b	0f 94 c3	 sete	 bl
  0003e	53		 push	 ebx
  0003f	e8 00 00 00 00	 call	 ?EnableWindow@CWnd@@QAEHH@Z ; CWnd::EnableWindow
  00044	eb 05		 jmp	 SHORT $LN5@OnOnlyBott
$LN20@OnOnlyBott:
  00046	85 ff		 test	 edi, edi
  00048	0f 94 c3	 sete	 bl
$LN5@OnOnlyBott:

; 129  : 	EnableWindow(GetDlgItem(IDC_SCALEPOSITION1), bEnable);

  0004b	68 ec 03 00 00	 push	 1004			; 000003ecH
  00050	8b ce		 mov	 ecx, esi
  00052	e8 00 00 00 00	 call	 ?GetDlgItem@CWnd@@QBEPAV1@H@Z ; CWnd::GetDlgItem

; 137  : 	if(pItem == NULL)

  00057	85 c0		 test	 eax, eax
  00059	74 08		 je	 SHORT $LN8@OnOnlyBott

; 138  : 		return;
; 139  : 
; 140  : 	pItem->EnableWindow(bEnable);

  0005b	53		 push	 ebx
  0005c	8b c8		 mov	 ecx, eax
  0005e	e8 00 00 00 00	 call	 ?EnableWindow@CWnd@@QAEHH@Z ; CWnd::EnableWindow
$LN8@OnOnlyBott:

; 130  : 	EnableWindow(GetDlgItem(IDC_SCALEPOSITION2), bEnable);

  00063	68 42 1f 00 00	 push	 8002			; 00001f42H
  00068	8b ce		 mov	 ecx, esi
  0006a	e8 00 00 00 00	 call	 ?GetDlgItem@CWnd@@QBEPAV1@H@Z ; CWnd::GetDlgItem

; 137  : 	if(pItem == NULL)

  0006f	85 c0		 test	 eax, eax
  00071	74 08		 je	 SHORT $LN11@OnOnlyBott

; 138  : 		return;
; 139  : 
; 140  : 	pItem->EnableWindow(bEnable);

  00073	53		 push	 ebx
  00074	8b c8		 mov	 ecx, eax
  00076	e8 00 00 00 00	 call	 ?EnableWindow@CWnd@@QAEHH@Z ; CWnd::EnableWindow
$LN11@OnOnlyBott:

; 131  : 	EnableWindow(GetDlgItem(IDC_SCALEPOSITION3), bEnable);

  0007b	68 43 1f 00 00	 push	 8003			; 00001f43H
  00080	8b ce		 mov	 ecx, esi
  00082	e8 00 00 00 00	 call	 ?GetDlgItem@CWnd@@QBEPAV1@H@Z ; CWnd::GetDlgItem

; 137  : 	if(pItem == NULL)

  00087	85 c0		 test	 eax, eax
  00089	74 08		 je	 SHORT $LN14@OnOnlyBott

; 138  : 		return;
; 139  : 
; 140  : 	pItem->EnableWindow(bEnable);

  0008b	53		 push	 ebx
  0008c	8b c8		 mov	 ecx, eax
  0008e	e8 00 00 00 00	 call	 ?EnableWindow@CWnd@@QAEHH@Z ; CWnd::EnableWindow
$LN14@OnOnlyBott:

; 132  : 	EnableWindow(GetDlgItem(IDC_SCALEPOSITION4), bEnable);

  00093	68 44 1f 00 00	 push	 8004			; 00001f44H
  00098	8b ce		 mov	 ecx, esi
  0009a	e8 00 00 00 00	 call	 ?GetDlgItem@CWnd@@QBEPAV1@H@Z ; CWnd::GetDlgItem

; 137  : 	if(pItem == NULL)

  0009f	85 c0		 test	 eax, eax
  000a1	74 08		 je	 SHORT $LN17@OnOnlyBott

; 138  : 		return;
; 139  : 
; 140  : 	pItem->EnableWindow(bEnable);

  000a3	53		 push	 ebx
  000a4	8b c8		 mov	 ecx, eax
  000a6	e8 00 00 00 00	 call	 ?EnableWindow@CWnd@@QAEHH@Z ; CWnd::EnableWindow
$LN17@OnOnlyBott:
  000ab	5f		 pop	 edi

; 91   : }

  000ac	5e		 pop	 esi
  000ad	5b		 pop	 ebx
  000ae	c3		 ret	 0
?OnOnlyBottomShow@CDlgBlockInsert@@IAEXXZ ENDP		; CDlgBlockInsert::OnOnlyBottomShow
_TEXT	ENDS
; Function compile flags: /Ogtp
; File D:\git\src\IBK\IBK_DRFN\ProjSrc\SrcChartEx\ChartOCX\ChartObject\DlgBlockInsert.cpp
;	COMDAT ?OnCancel@CDlgBlockInsert@@MAEXXZ
_TEXT	SEGMENT
?OnCancel@CDlgBlockInsert@@MAEXXZ PROC			; CDlgBlockInsert::OnCancel, COMDAT
; _this$ = ecx

; 82   : 	CDialog::OnCancel();

  00000	e9 00 00 00 00	 jmp	 ?OnCancel@CDialog@@MAEXXZ ; CDialog::OnCancel
?OnCancel@CDlgBlockInsert@@MAEXXZ ENDP			; CDlgBlockInsert::OnCancel
_TEXT	ENDS
; Function compile flags: /Ogtp
; File D:\git\src\IBK\IBK_DRFN\ProjSrc\SrcChartEx\ChartOCX\ChartObject\DlgBlockInsert.cpp
;	COMDAT ?OnOK@CDlgBlockInsert@@MAEXXZ
_TEXT	SEGMENT
?OnOK@CDlgBlockInsert@@MAEXXZ PROC			; CDlgBlockInsert::OnOK, COMDAT
; _this$ = ecx

; 74   : {

  00000	57		 push	 edi
  00001	8b f9		 mov	 edi, ecx

; 111  : 	if(m_pInsertingBlockHorzScaleData == NULL)

  00003	83 bf b8 00 00
	00 00		 cmp	 DWORD PTR [edi+184], 0
  0000a	74 65		 je	 SHORT $LN3@OnOK

; 112  : 		return;
; 113  : 
; 114  : 	UpdateData(TRUE);

  0000c	56		 push	 esi
  0000d	6a 01		 push	 1
  0000f	e8 00 00 00 00	 call	 ?UpdateData@CWnd@@QAEHH@Z ; CWnd::UpdateData

; 115  : 	m_pInsertingBlockHorzScaleData->SetOnlyBottomBlockShow(m_bOnlyBottomShow);

  00014	83 bf a8 00 00
	00 00		 cmp	 DWORD PTR [edi+168], 0
  0001b	8b 8f b8 00 00
	00		 mov	 ecx, DWORD PTR [edi+184]
  00021	0f 95 c0	 setne	 al
  00024	0f b6 c0	 movzx	 eax, al
  00027	50		 push	 eax
  00028	e8 00 00 00 00	 call	 ?SetOnlyBottomBlockShow@CInsertingBlockHorzScaleData@@QAEX_N@Z ; CInsertingBlockHorzScaleData::SetOnlyBottomBlockShow

; 116  : 
; 117  : 	// (2009/9/6 - Seung-Won, Bae) Do not support CHorizontalScale::SetHorzScalePosition() as public.
; 118  : 	//		To rearrange the row positions. Use CMainBlockImp::SetHorzScalePosition().
; 119  : 	if( m_pMainBlockImp) m_pMainBlockImp->SetHorzScalePosition( m_pInsertingBlockHorzScaleData->GetHorizontalScale(), ( CScaleBaseData::HORZSCALEPOSITION)m_nScalePosition);

  0002d	8b b7 bc 00 00
	00		 mov	 esi, DWORD PTR [edi+188]
  00033	85 f6		 test	 esi, esi
  00035	74 20		 je	 SHORT $LN5@OnOK
  00037	ff b7 ac 00 00
	00		 push	 DWORD PTR [edi+172]
  0003d	8b 8f b8 00 00
	00		 mov	 ecx, DWORD PTR [edi+184]
  00043	8b 36		 mov	 esi, DWORD PTR [esi]
  00045	e8 00 00 00 00	 call	 ?GetHorizontalScale@CInsertingBlockHorzScaleData@@QAEAAVCHorizontalScale@@XZ ; CInsertingBlockHorzScaleData::GetHorizontalScale
  0004a	8b 8f bc 00 00
	00		 mov	 ecx, DWORD PTR [edi+188]
  00050	50		 push	 eax
  00051	ff 96 d8 00 00
	00		 call	 DWORD PTR [esi+216]
$LN5@OnOK:

; 120  : 
; 121  : 	m_pInsertingBlockHorzScaleData->GetHorizontalScale().SetGridType((CScaleBaseData::SCALEGRIDTYPE) m_nScaleGrid);

  00057	ff b7 b0 00 00
	00		 push	 DWORD PTR [edi+176]
  0005d	8b 8f b8 00 00
	00		 mov	 ecx, DWORD PTR [edi+184]
  00063	e8 00 00 00 00	 call	 ?GetHorizontalScale@CInsertingBlockHorzScaleData@@QAEAAVCHorizontalScale@@XZ ; CInsertingBlockHorzScaleData::GetHorizontalScale
  00068	8b c8		 mov	 ecx, eax
  0006a	ff 15 00 00 00
	00		 call	 DWORD PTR __imp_?SetGridType@CScale@@QAEXW4SCALEGRIDTYPE@CScaleBaseData@@@Z
  00070	5e		 pop	 esi
$LN3@OnOK:

; 75   : 	SetHorzScaleData();
; 76   : 	
; 77   : 	CDialog::OnOK();

  00071	8b cf		 mov	 ecx, edi
  00073	5f		 pop	 edi
  00074	e9 00 00 00 00	 jmp	 ?OnOK@CDialog@@MAEXXZ	; CDialog::OnOK
?OnOK@CDlgBlockInsert@@MAEXXZ ENDP			; CDlgBlockInsert::OnOK
_TEXT	ENDS
; Function compile flags: /Ogtp
; File D:\git\src\IBK\IBK_DRFN\ProjSrc\SrcChartEx\ChartOCX\ChartObject\DlgBlockInsert.cpp
;	COMDAT ?OnInitDialog@CDlgBlockInsert@@MAEHXZ
_TEXT	SEGMENT
?OnInitDialog@CDlgBlockInsert@@MAEHXZ PROC		; CDlgBlockInsert::OnInitDialog, COMDAT
; _this$ = ecx

; 59   : {

  00000	57		 push	 edi
  00001	8b f9		 mov	 edi, ecx

; 60   : 	CDialog::OnInitDialog();

  00003	e8 00 00 00 00	 call	 ?OnInitDialog@CDialog@@UAEHXZ ; CDialog::OnInitDialog

; 61   : 	
; 62   : 	// Dialog에 포커스를 주기 위해 사용
; 63   : 	mouse_event(MOUSEEVENTF_LEFTDOWN, 0, 0, 0, 0);

  00008	6a 00		 push	 0
  0000a	6a 00		 push	 0
  0000c	6a 00		 push	 0
  0000e	6a 00		 push	 0
  00010	6a 02		 push	 2
  00012	ff 15 00 00 00
	00		 call	 DWORD PTR __imp__mouse_event@20

; 64   : 	mouse_event(MOUSEEVENTF_LEFTUP, 0, 0, 0, 0);

  00018	6a 00		 push	 0
  0001a	6a 00		 push	 0
  0001c	6a 00		 push	 0
  0001e	6a 00		 push	 0
  00020	6a 04		 push	 4
  00022	ff 15 00 00 00
	00		 call	 DWORD PTR __imp__mouse_event@20

; 98   : 	if(m_pInsertingBlockHorzScaleData == NULL)

  00028	8b 8f b8 00 00
	00		 mov	 ecx, DWORD PTR [edi+184]
  0002e	85 c9		 test	 ecx, ecx
  00030	74 50		 je	 SHORT $LN6@OnInitDial

; 99   : 		return;
; 100  : 
; 101  : 	m_bOnlyBottomShow = m_pInsertingBlockHorzScaleData->IsOnlyBottomBlockShow();

  00032	e8 00 00 00 00	 call	 ?IsOnlyBottomBlockShow@CInsertingBlockHorzScaleData@@QBE_NXZ ; CInsertingBlockHorzScaleData::IsOnlyBottomBlockShow

; 102  : 	m_nScalePosition = (int) m_pInsertingBlockHorzScaleData->GetHorizontalScale().GetHorzScalePosition();

  00037	8b 8f b8 00 00
	00		 mov	 ecx, DWORD PTR [edi+184]
  0003d	0f b6 c0	 movzx	 eax, al
  00040	89 87 a8 00 00
	00		 mov	 DWORD PTR [edi+168], eax
  00046	e8 00 00 00 00	 call	 ?GetHorizontalScale@CInsertingBlockHorzScaleData@@QAEAAVCHorizontalScale@@XZ ; CInsertingBlockHorzScaleData::GetHorizontalScale
  0004b	8b c8		 mov	 ecx, eax
  0004d	ff 15 00 00 00
	00		 call	 DWORD PTR __imp_?GetHorzScalePosition@CHorizontalScale@@QBE?AW4HORZSCALEPOSITION@CScaleBaseData@@XZ

; 103  : 	m_nScaleGrid = (int) m_pInsertingBlockHorzScaleData->GetHorizontalScale().GetGridType();

  00053	8b 8f b8 00 00
	00		 mov	 ecx, DWORD PTR [edi+184]
  00059	89 87 ac 00 00
	00		 mov	 DWORD PTR [edi+172], eax
  0005f	e8 00 00 00 00	 call	 ?GetHorizontalScale@CInsertingBlockHorzScaleData@@QAEAAVCHorizontalScale@@XZ ; CInsertingBlockHorzScaleData::GetHorizontalScale
  00064	8b c8		 mov	 ecx, eax
  00066	ff 15 00 00 00
	00		 call	 DWORD PTR __imp_?GetGridType@CScale@@QBE?AW4SCALEGRIDTYPE@CScaleBaseData@@XZ

; 104  : 
; 105  : 	UpdateData(FALSE);

  0006c	6a 00		 push	 0
  0006e	8b cf		 mov	 ecx, edi
  00070	89 87 b0 00 00
	00		 mov	 DWORD PTR [edi+176], eax
  00076	e8 00 00 00 00	 call	 ?UpdateData@CWnd@@QAEHH@Z ; CWnd::UpdateData

; 106  : 	OnOnlyBottomShow();

  0007b	8b cf		 mov	 ecx, edi
  0007d	e8 00 00 00 00	 call	 ?OnOnlyBottomShow@CDlgBlockInsert@@IAEXXZ ; CDlgBlockInsert::OnOnlyBottomShow
$LN6@OnInitDial:

; 65   : 
; 66   : 	InitializeData();
; 67   : 	
; 68   : 	return TRUE;  // return TRUE unless you set the focus to a control
; 69   : 	              // EXCEPTION: OCX Property Pages should return FALSE
; 70   : }

  00082	b8 01 00 00 00	 mov	 eax, 1
  00087	5f		 pop	 edi
  00088	c3		 ret	 0
?OnInitDialog@CDlgBlockInsert@@MAEHXZ ENDP		; CDlgBlockInsert::OnInitDialog
_TEXT	ENDS
; Function compile flags: /Ogtp
; File D:\git\src\IBK\IBK_DRFN\ProjSrc\SrcChartEx\ChartOCX\ChartObject\DlgBlockInsert.cpp
;	COMDAT ?DoDataExchange@CDlgBlockInsert@@MAEXPAVCDataExchange@@@Z
_TEXT	SEGMENT
_pDX$ = 8						; size = 4
?DoDataExchange@CDlgBlockInsert@@MAEXPAVCDataExchange@@@Z PROC ; CDlgBlockInsert::DoDataExchange, COMDAT
; _this$ = ecx

; 39   : {

  00000	55		 push	 ebp
  00001	8b ec		 mov	 ebp, esp
  00003	56		 push	 esi

; 40   : 	CDialog::DoDataExchange(pDX);
; 41   : 	//{{AFX_DATA_MAP(CDlgBlockInsert)
; 42   : 	DDX_Check(pDX, IDC_ONLYBOTTOMSHOW, m_bOnlyBottomShow);

  00004	8b 75 08	 mov	 esi, DWORD PTR _pDX$[ebp]
  00007	57		 push	 edi
  00008	8b f9		 mov	 edi, ecx
  0000a	8d 87 a8 00 00
	00		 lea	 eax, DWORD PTR [edi+168]
  00010	50		 push	 eax
  00011	68 1b 27 00 00	 push	 10011			; 0000271bH
  00016	56		 push	 esi
  00017	e8 00 00 00 00	 call	 ?DDX_Check@@YGXPAVCDataExchange@@HAAH@Z ; DDX_Check

; 43   : 	DDX_Radio(pDX, IDC_SCALEPOSITION, m_nScalePosition);

  0001c	8d 87 ac 00 00
	00		 lea	 eax, DWORD PTR [edi+172]
  00022	50		 push	 eax
  00023	68 eb 03 00 00	 push	 1003			; 000003ebH
  00028	56		 push	 esi
  00029	e8 00 00 00 00	 call	 ?DDX_Radio@@YGXPAVCDataExchange@@HAAH@Z ; DDX_Radio

; 44   : 	DDX_Radio(pDX, IDC_SCALEGRID, m_nScaleGrid);

  0002e	8d 87 b0 00 00
	00		 lea	 eax, DWORD PTR [edi+176]
  00034	50		 push	 eax
  00035	68 ef 03 00 00	 push	 1007			; 000003efH
  0003a	56		 push	 esi
  0003b	e8 00 00 00 00	 call	 ?DDX_Radio@@YGXPAVCDataExchange@@HAAH@Z ; DDX_Radio
  00040	5f		 pop	 edi
  00041	5e		 pop	 esi

; 45   : 	//}}AFX_DATA_MAP
; 46   : }

  00042	5d		 pop	 ebp
  00043	c2 04 00	 ret	 4
?DoDataExchange@CDlgBlockInsert@@MAEXPAVCDataExchange@@@Z ENDP ; CDlgBlockInsert::DoDataExchange
_TEXT	ENDS
; Function compile flags: /Ogtp
; File D:\git\src\IBK\IBK_DRFN\ProjSrc\SrcChartEx\ChartOCX\ChartObject\DlgBlockInsert.cpp
;	COMDAT ??0CDlgBlockInsert@@QAE@PAVCWnd@@PAVCMainBlockImp@@PAVCInsertingBlockHorzScaleData@@@Z
_TEXT	SEGMENT
_this$ = -4						; size = 4
_pParent$ = 8						; size = 4
_p_pMainBlockImp$ = 12					; size = 4
_pInsertingHorzScaleData$ = 16				; size = 4
??0CDlgBlockInsert@@QAE@PAVCWnd@@PAVCMainBlockImp@@PAVCInsertingBlockHorzScaleData@@@Z PROC ; CDlgBlockInsert::CDlgBlockInsert, COMDAT
; _this$ = ecx

; 25   : {

  00000	55		 push	 ebp
  00001	8b ec		 mov	 ebp, esp
  00003	51		 push	 ecx
  00004	56		 push	 esi
  00005	8b 75 08	 mov	 esi, DWORD PTR _pParent$[ebp]
  00008	57		 push	 edi
  00009	56		 push	 esi
  0000a	8b f9		 mov	 edi, ecx
  0000c	68 16 27 00 00	 push	 10006			; 00002716H
  00011	89 7d fc	 mov	 DWORD PTR _this$[ebp], edi
  00014	e8 00 00 00 00	 call	 ??0CDialog@@QAE@IPAVCWnd@@@Z ; CDialog::CDialog

; 24   : 	m_pInsertingBlockHorzScaleData(pInsertingHorzScaleData)

  00019	8b 45 10	 mov	 eax, DWORD PTR _pInsertingHorzScaleData$[ebp]
  0001c	89 87 b8 00 00
	00		 mov	 DWORD PTR [edi+184], eax

; 26   : 	//{{AFX_DATA_INIT(CDlgBlockInsert)
; 27   : 	m_bOnlyBottomShow = FALSE;
; 28   : 	m_nScaleGrid = 0;
; 29   : 	m_nScalePosition = 3;
; 30   : 	//}}AFX_DATA_INIT
; 31   : 
; 32   : 	// (2009/9/6 - Seung-Won, Bae) Do not support CHorizontalScale::SetHorzScalePosition() as public.
; 33   : 	//		To rearrange the row positions. Use CMainBlockImp::SetHorzScalePosition().
; 34   : 	m_pMainBlockImp = p_pMainBlockImp;

  00022	8b 45 0c	 mov	 eax, DWORD PTR _p_pMainBlockImp$[ebp]
  00025	89 87 bc 00 00
	00		 mov	 DWORD PTR [edi+188], eax

; 35   : }

  0002b	8b c7		 mov	 eax, edi
  0002d	89 b7 b4 00 00
	00		 mov	 DWORD PTR [edi+180], esi
  00033	c7 07 00 00 00
	00		 mov	 DWORD PTR [edi], OFFSET ??_7CDlgBlockInsert@@6B@
  00039	c7 87 a8 00 00
	00 00 00 00 00	 mov	 DWORD PTR [edi+168], 0
  00043	c7 87 b0 00 00
	00 00 00 00 00	 mov	 DWORD PTR [edi+176], 0
  0004d	c7 87 ac 00 00
	00 03 00 00 00	 mov	 DWORD PTR [edi+172], 3
  00057	5f		 pop	 edi
  00058	5e		 pop	 esi
  00059	8b e5		 mov	 esp, ebp
  0005b	5d		 pop	 ebp
  0005c	c2 0c 00	 ret	 12			; 0000000cH
??0CDlgBlockInsert@@QAE@PAVCWnd@@PAVCMainBlockImp@@PAVCInsertingBlockHorzScaleData@@@Z ENDP ; CDlgBlockInsert::CDlgBlockInsert
_TEXT	ENDS
; Function compile flags: /Ogtp
; File C:\Program Files (x86)\Microsoft Visual Studio\2019\Community\VC\Tools\MSVC\14.29.30133\atlmfc\include\afxwin2.inl
;	COMDAT ?Create@CDialog@@UAEHIPAVCWnd@@@Z
_TEXT	SEGMENT
_nIDTemplate$ = 8					; size = 4
_pParentWnd$ = 12					; size = 4
?Create@CDialog@@UAEHIPAVCWnd@@@Z PROC			; CDialog::Create, COMDAT
; _this$ = ecx

; 585  : 	{ return CDialog::Create(ATL_MAKEINTRESOURCE(nIDTemplate), pParentWnd); }

  00000	55		 push	 ebp
  00001	8b ec		 mov	 ebp, esp
  00003	0f b7 45 08	 movzx	 eax, WORD PTR _nIDTemplate$[ebp]
  00007	89 45 08	 mov	 DWORD PTR _nIDTemplate$[ebp], eax
  0000a	5d		 pop	 ebp
  0000b	e9 00 00 00 00	 jmp	 ?Create@CDialog@@UAEHPBDPAVCWnd@@@Z ; CDialog::Create
?Create@CDialog@@UAEHIPAVCWnd@@@Z ENDP			; CDialog::Create
_TEXT	ENDS
; Function compile flags: /Ogtp
; File C:\Program Files (x86)\Microsoft Visual Studio\2019\Community\VC\Tools\MSVC\14.29.30133\atlmfc\include\afxwin2.inl
;	COMDAT ?EndModalState@CWnd@@UAEXXZ
_TEXT	SEGMENT
?EndModalState@CWnd@@UAEXXZ PROC			; CWnd::EndModalState, COMDAT
; _this$ = ecx

; 567  : 	{ ::EnableWindow(m_hWnd, TRUE); }

  00000	6a 01		 push	 1
  00002	ff 71 20	 push	 DWORD PTR [ecx+32]
  00005	ff 15 00 00 00
	00		 call	 DWORD PTR __imp__EnableWindow@8
  0000b	c3		 ret	 0
?EndModalState@CWnd@@UAEXXZ ENDP			; CWnd::EndModalState
_TEXT	ENDS
; Function compile flags: /Ogtp
; File C:\Program Files (x86)\Microsoft Visual Studio\2019\Community\VC\Tools\MSVC\14.29.30133\atlmfc\include\afxwin2.inl
;	COMDAT ?BeginModalState@CWnd@@UAEXXZ
_TEXT	SEGMENT
?BeginModalState@CWnd@@UAEXXZ PROC			; CWnd::BeginModalState, COMDAT
; _this$ = ecx

; 565  : 	{ ::EnableWindow(m_hWnd, FALSE); }

  00000	6a 00		 push	 0
  00002	ff 71 20	 push	 DWORD PTR [ecx+32]
  00005	ff 15 00 00 00
	00		 call	 DWORD PTR __imp__EnableWindow@8
  0000b	c3		 ret	 0
?BeginModalState@CWnd@@UAEXXZ ENDP			; CWnd::BeginModalState
_TEXT	ENDS
; Function compile flags: /Ogtp
; File C:\Program Files (x86)\Microsoft Visual Studio\2019\Community\VC\Tools\MSVC\14.29.30133\atlmfc\include\afxwin2.inl
;	COMDAT ?DoDataExchange@CWnd@@MAEXPAVCDataExchange@@@Z
_TEXT	SEGMENT
___formal$ = 8						; size = 4
?DoDataExchange@CWnd@@MAEXPAVCDataExchange@@@Z PROC	; CWnd::DoDataExchange, COMDAT
; _this$ = ecx

; 561  : 	{ } // default does nothing

  00000	c2 04 00	 ret	 4
?DoDataExchange@CWnd@@MAEXPAVCDataExchange@@@Z ENDP	; CWnd::DoDataExchange
_TEXT	ENDS
; Function compile flags: /Ogtp
; File C:\Program Files (x86)\Microsoft Visual Studio\2019\Community\VC\Tools\MSVC\14.29.30133\atlmfc\include\afx.inl
;	COMDAT ?Dump@CObject@@UBEXAAVCDumpContext@@@Z
_TEXT	SEGMENT
___formal$ = 8						; size = 4
?Dump@CObject@@UBEXAAVCDumpContext@@@Z PROC		; CObject::Dump, COMDAT
; _this$ = ecx

; 122  : 	{ /* no dumping in release builds */ }

  00000	c2 04 00	 ret	 4
?Dump@CObject@@UBEXAAVCDumpContext@@@Z ENDP		; CObject::Dump
_TEXT	ENDS
; Function compile flags: /Ogtp
; File C:\Program Files (x86)\Microsoft Visual Studio\2019\Community\VC\Tools\MSVC\14.29.30133\atlmfc\include\afx.inl
;	COMDAT ?AssertValid@CObject@@UBEXXZ
_TEXT	SEGMENT
?AssertValid@CObject@@UBEXXZ PROC			; CObject::AssertValid, COMDAT
; _this$ = ecx

; 120  : 	{ /* no asserts in release builds */ }

  00000	c2 00 00	 ret	 0
?AssertValid@CObject@@UBEXXZ ENDP			; CObject::AssertValid
_TEXT	ENDS
; Function compile flags: /Ogtp
; File C:\Program Files (x86)\Microsoft Visual Studio\2019\Community\VC\Tools\MSVC\14.29.30133\atlmfc\include\afx.inl
;	COMDAT ?Serialize@CObject@@UAEXAAVCArchive@@@Z
_TEXT	SEGMENT
___formal$ = 8						; size = 4
?Serialize@CObject@@UAEXAAVCArchive@@@Z PROC		; CObject::Serialize, COMDAT
; _this$ = ecx

; 106  : 	{ /* CObject does not serialize anything by default */ }

  00000	c2 04 00	 ret	 4
?Serialize@CObject@@UAEXAAVCArchive@@@Z ENDP		; CObject::Serialize
_TEXT	ENDS
; Function compile flags: /Ogtp
; File D:\git\src\IBK\IBK_DRFN\ProjSrc\SrcChartEx\ChartOCX\ChartObject\DlgBlockInsert.cpp
;	COMDAT ?__empty_global_delete@@YAXPAXI@Z
_TEXT	SEGMENT
___formal$ = 8						; size = 4
___formal$ = 12						; size = 4
?__empty_global_delete@@YAXPAXI@Z PROC			; __empty_global_delete, COMDAT

  00000	c2 00 00	 ret	 0
?__empty_global_delete@@YAXPAXI@Z ENDP			; __empty_global_delete
_TEXT	ENDS
; Function compile flags: /Ogtp
; File D:\git\src\IBK\IBK_DRFN\ProjSrc\SrcChartEx\ChartOCX\ChartObject\DlgBlockInsert.cpp
;	COMDAT ?__empty_global_delete@@YAXPAX@Z
_TEXT	SEGMENT
___formal$ = 8						; size = 4
?__empty_global_delete@@YAXPAX@Z PROC			; __empty_global_delete, COMDAT

  00000	c2 00 00	 ret	 0
?__empty_global_delete@@YAXPAX@Z ENDP			; __empty_global_delete
_TEXT	ENDS
END
