; Listing generated by Microsoft (R) Optimizing Compiler Version 19.29.30145.0 

	TITLE	D:\git\src\IBK\IBK_DRFN\#DRfn-CS\_Obj\ChartObject\DlgGraphMove.obj
	.686P
	.XMM
	include listing.inc
	.model	flat

INCLUDELIB MSVCRT
INCLUDELIB OLDNAMES

PUBLIC	?__empty_global_delete@@YAXPAX@Z		; __empty_global_delete
PUBLIC	?__empty_global_delete@@YAXPAXI@Z		; __empty_global_delete
PUBLIC	??1CObject@@UAE@XZ				; CObject::~CObject
PUBLIC	?Serialize@CObject@@UAEXAAVCArchive@@@Z		; CObject::Serialize
PUBLIC	?AssertValid@CObject@@UBEXXZ			; CObject::AssertValid
PUBLIC	?Dump@CObject@@UBEXAAVCDumpContext@@@Z		; CObject::Dump
PUBLIC	??1CGdiObject@@UAE@XZ				; CGdiObject::~CGdiObject
PUBLIC	??_GCGdiObject@@UAEPAXI@Z			; CGdiObject::`scalar deleting destructor'
PUBLIC	??1CFont@@UAE@XZ				; CFont::~CFont
PUBLIC	??_GCFont@@UAEPAXI@Z				; CFont::`scalar deleting destructor'
PUBLIC	?DoDataExchange@CWnd@@MAEXPAVCDataExchange@@@Z	; CWnd::DoDataExchange
PUBLIC	?BeginModalState@CWnd@@UAEXXZ			; CWnd::BeginModalState
PUBLIC	?EndModalState@CWnd@@UAEXXZ			; CWnd::EndModalState
PUBLIC	?Create@CDialog@@UAEHIPAVCWnd@@@Z		; CDialog::Create
PUBLIC	??_GCComboBox@@UAEPAXI@Z			; CComboBox::`scalar deleting destructor'
PUBLIC	??0CDlgGraphMove@@QAE@PAVCWnd@@PAVCGraphImp@@ABVCVerticalScaleGroupDataList@@PAUIChartCtrl@@@Z ; CDlgGraphMove::CDlgGraphMove
PUBLIC	?DoDataExchange@CDlgGraphMove@@MAEXPAVCDataExchange@@@Z ; CDlgGraphMove::DoDataExchange
PUBLIC	?OnInitDialog@CDlgGraphMove@@MAEHXZ		; CDlgGraphMove::OnInitDialog
PUBLIC	?OnOK@CDlgGraphMove@@MAEXXZ			; CDlgGraphMove::OnOK
PUBLIC	?OnCancel@CDlgGraphMove@@MAEXXZ			; CDlgGraphMove::OnCancel
PUBLIC	?OnSelchangeScalegroup@CDlgGraphMove@@IAEXXZ	; CDlgGraphMove::OnSelchangeScalegroup
PUBLIC	?OnPaint@CDlgGraphMove@@IAEXXZ			; CDlgGraphMove::OnPaint
PUBLIC	?OnDestroy@CDlgGraphMove@@IAEXXZ		; CDlgGraphMove::OnDestroy
PUBLIC	?OnCreate@CDlgGraphMove@@IAEHPAUtagCREATESTRUCTA@@@Z ; CDlgGraphMove::OnCreate
PUBLIC	?OnSelchangeStylecombo@CDlgGraphMove@@IAEXXZ	; CDlgGraphMove::OnSelchangeStylecombo
PUBLIC	?GetThisMessageMap@CDlgGraphMove@@KGPBUAFX_MSGMAP@@XZ ; CDlgGraphMove::GetThisMessageMap
PUBLIC	?GetMessageMap@CDlgGraphMove@@MBEPBUAFX_MSGMAP@@XZ ; CDlgGraphMove::GetMessageMap
PUBLIC	?GetMovingGraphVertScaleData@CDlgGraphMove@@QBE?AVCMovingGraphVertScaleData@@XZ ; CDlgGraphMove::GetMovingGraphVertScaleData
PUBLIC	?InitializeData@CDlgGraphMove@@AAEXXZ		; CDlgGraphMove::InitializeData
PUBLIC	?SetScalePositionAndGrid@CDlgGraphMove@@AAEXABVCVerticalScale@@@Z ; CDlgGraphMove::SetScalePositionAndGrid
PUBLIC	?GetVerticalScale@CDlgGraphMove@@ABE?AVCVerticalScale@@H@Z ; CDlgGraphMove::GetVerticalScale
PUBLIC	?GetCurrentVerticalScale@CDlgGraphMove@@ABE?AVCVerticalScale@@XZ ; CDlgGraphMove::GetCurrentVerticalScale
PUBLIC	?IsStyledGraph@CDlgGraphMove@@IAEHXZ		; CDlgGraphMove::IsStyledGraph
PUBLIC	??_GCDlgGraphMove@@UAEPAXI@Z			; CDlgGraphMove::`scalar deleting destructor'
PUBLIC	??1CMultiLanguageResourceSetter@@QAE@XZ		; CMultiLanguageResourceSetter::~CMultiLanguageResourceSetter
PUBLIC	??1CVerticalScaleGroupData@@QAE@XZ		; CVerticalScaleGroupData::~CVerticalScaleGroupData
PUBLIC	??_R0PAVCException@@@8				; CException * `RTTI Type Descriptor'
PUBLIC	??_7CGdiObject@@6B@				; CGdiObject::`vftable'
PUBLIC	??_7CFont@@6B@					; CFont::`vftable'
PUBLIC	??_7CComboBox@@6B@				; CComboBox::`vftable'
PUBLIC	??_C@_0HD@JJCHHHNK@C?3?2Program?5Files?5?$CIx86?$CJ?2Microsof@ ; `string'
PUBLIC	??_C@_0BP@OIEOKIDM@Exception?5thrown?5in?5destructor@ ; `string'
PUBLIC	??_C@_0BB@HBOOMJBF@?$CFTs?5?$CI?$CFTs?3?$CFd?$CJ?6?$CFTs@ ; `string'
PUBLIC	??_C@_0N@OMEMOKLE@?$CFTs?5?$CI?$CFTs?3?$CFd?$CJ@ ; `string'
PUBLIC	??_R0?AVCObject@@@8				; CObject `RTTI Type Descriptor'
PUBLIC	??_R3CObject@@8					; CObject::`RTTI Class Hierarchy Descriptor'
PUBLIC	??_R2CObject@@8					; CObject::`RTTI Base Class Array'
PUBLIC	??_R1A@?0A@EA@CObject@@8			; CObject::`RTTI Base Class Descriptor at (0,-1,0,64)'
PUBLIC	??_R4CGdiObject@@6B@				; CGdiObject::`RTTI Complete Object Locator'
PUBLIC	??_R0?AVCGdiObject@@@8				; CGdiObject `RTTI Type Descriptor'
PUBLIC	??_R3CGdiObject@@8				; CGdiObject::`RTTI Class Hierarchy Descriptor'
PUBLIC	??_R2CGdiObject@@8				; CGdiObject::`RTTI Base Class Array'
PUBLIC	??_R1A@?0A@EA@CGdiObject@@8			; CGdiObject::`RTTI Base Class Descriptor at (0,-1,0,64)'
PUBLIC	??_R4CFont@@6B@					; CFont::`RTTI Complete Object Locator'
PUBLIC	??_R0?AVCFont@@@8				; CFont `RTTI Type Descriptor'
PUBLIC	??_R3CFont@@8					; CFont::`RTTI Class Hierarchy Descriptor'
PUBLIC	??_R2CFont@@8					; CFont::`RTTI Base Class Array'
PUBLIC	??_R1A@?0A@EA@CFont@@8				; CFont::`RTTI Base Class Descriptor at (0,-1,0,64)'
PUBLIC	??_R1A@?0A@EA@CWnd@@8				; CWnd::`RTTI Base Class Descriptor at (0,-1,0,64)'
PUBLIC	??_R0?AVCWnd@@@8				; CWnd `RTTI Type Descriptor'
PUBLIC	??_R3CWnd@@8					; CWnd::`RTTI Class Hierarchy Descriptor'
PUBLIC	??_R2CWnd@@8					; CWnd::`RTTI Base Class Array'
PUBLIC	??_R1A@?0A@EA@CCmdTarget@@8			; CCmdTarget::`RTTI Base Class Descriptor at (0,-1,0,64)'
PUBLIC	??_R0?AVCCmdTarget@@@8				; CCmdTarget `RTTI Type Descriptor'
PUBLIC	??_R3CCmdTarget@@8				; CCmdTarget::`RTTI Class Hierarchy Descriptor'
PUBLIC	??_R2CCmdTarget@@8				; CCmdTarget::`RTTI Base Class Array'
PUBLIC	??_R4CComboBox@@6B@				; CComboBox::`RTTI Complete Object Locator'
PUBLIC	??_R0?AVCComboBox@@@8				; CComboBox `RTTI Type Descriptor'
PUBLIC	??_R3CComboBox@@8				; CComboBox::`RTTI Class Hierarchy Descriptor'
PUBLIC	??_R2CComboBox@@8				; CComboBox::`RTTI Base Class Array'
PUBLIC	??_R1A@?0A@EA@CComboBox@@8			; CComboBox::`RTTI Base Class Descriptor at (0,-1,0,64)'
PUBLIC	??_R1A@?0A@EA@CDialog@@8			; CDialog::`RTTI Base Class Descriptor at (0,-1,0,64)'
PUBLIC	??_R0?AVCDialog@@@8				; CDialog `RTTI Type Descriptor'
PUBLIC	??_R3CDialog@@8					; CDialog::`RTTI Class Hierarchy Descriptor'
PUBLIC	??_R2CDialog@@8					; CDialog::`RTTI Base Class Array'
PUBLIC	??_7CDlgGraphMove@@6B@				; CDlgGraphMove::`vftable'
PUBLIC	??_C@_0BA@ENJOCHIO@LoadResourceDLL@		; `string'
PUBLIC	??_C@_0P@FOFNMHJI@GetIndicatorID@		; `string'
PUBLIC	??_C@_0CF@HPNEOBPG@ChartEnvSetupDlgAddIn?4dll?3STYLE@ ; `string'
PUBLIC	??_R4CDlgGraphMove@@6B@				; CDlgGraphMove::`RTTI Complete Object Locator'
PUBLIC	??_R0?AVCDlgGraphMove@@@8			; CDlgGraphMove `RTTI Type Descriptor'
PUBLIC	??_R3CDlgGraphMove@@8				; CDlgGraphMove::`RTTI Class Hierarchy Descriptor'
PUBLIC	??_R2CDlgGraphMove@@8				; CDlgGraphMove::`RTTI Base Class Array'
PUBLIC	??_R1A@?0A@EA@CDlgGraphMove@@8			; CDlgGraphMove::`RTTI Base Class Descriptor at (0,-1,0,64)'
PUBLIC	__xmm@0000010d000000b00000000b0000000a
EXTRN	??2@YAPAXI@Z:PROC				; operator new
EXTRN	??3@YAXPAX@Z:PROC				; operator delete
EXTRN	?__global_delete@@YAXPAXI@Z:PROC		; __global_delete
EXTRN	___std_terminate:PROC
EXTRN	__imp__GetProcAddress@8:PROC
EXTRN	__imp__CreateFontIndirectA@4:PROC
EXTRN	__imp__SendMessageA@16:PROC
EXTRN	__imp__mouse_event@20:PROC
EXTRN	__imp__EnableWindow@8:PROC
EXTRN	__imp__InvalidateRect@12:PROC
EXTRN	__imp__GetWindowRect@8:PROC
EXTRN	__imp__OffsetRect@12:PROC
EXTRN	__imp_??0?$CStringT@DV?$StrTraitMFC_DLL@DV?$ChTraitsCRT@D@ATL@@@@@ATL@@QAE@XZ:PROC
EXTRN	__imp_??1?$CStringT@DV?$StrTraitMFC_DLL@DV?$ChTraitsCRT@D@ATL@@@@@ATL@@QAE@XZ:PROC
EXTRN	__imp_?Format@?$CStringT@DV?$StrTraitMFC_DLL@DV?$ChTraitsCRT@D@ATL@@@@@ATL@@QAAXPBDZZ:PROC
EXTRN	__imp_?LoadStringA@?$CStringT@DV?$StrTraitMFC_DLL@DV?$ChTraitsCRT@D@ATL@@@@@ATL@@QAEHI@Z:PROC
EXTRN	?AfxGetModuleState@@YGPAVAFX_MODULE_STATE@@XZ:PROC ; AfxGetModuleState
EXTRN	?AfxGetStaticModuleState@@YGPAVAFX_MODULE_STATE@@XZ:PROC ; AfxGetStaticModuleState
EXTRN	?GetRuntimeClass@CGdiObject@@UBEPAUCRuntimeClass@@XZ:PROC ; CGdiObject::GetRuntimeClass
EXTRN	?Attach@CGdiObject@@QAEHPAX@Z:PROC		; CGdiObject::Attach
EXTRN	?DeleteObject@CGdiObject@@QAEHXZ:PROC		; CGdiObject::DeleteObject
EXTRN	??_ECGdiObject@@UAEPAXI@Z:PROC			; CGdiObject::`vector deleting destructor'
EXTRN	?GetRuntimeClass@CFont@@UBEPAUCRuntimeClass@@XZ:PROC ; CFont::GetRuntimeClass
EXTRN	??_ECFont@@UAEPAXI@Z:PROC			; CFont::`vector deleting destructor'
EXTRN	?SetMapMode@CDC@@UAEHH@Z:PROC			; CDC::SetMapMode
EXTRN	??0CPaintDC@@QAE@PAVCWnd@@@Z:PROC		; CPaintDC::CPaintDC
EXTRN	??1CPaintDC@@UAE@XZ:PROC			; CPaintDC::~CPaintDC
EXTRN	?DDX_Radio@@YGXPAVCDataExchange@@HAAH@Z:PROC	; DDX_Radio
EXTRN	?DDX_CBIndex@@YGXPAVCDataExchange@@HAAH@Z:PROC	; DDX_CBIndex
EXTRN	?DDX_Control@@YGXPAVCDataExchange@@HAAVCWnd@@@Z:PROC ; DDX_Control
EXTRN	?OnCmdMsg@CCmdTarget@@UAEHIHPAXPAUAFX_CMDHANDLERINFO@@@Z:PROC ; CCmdTarget::OnCmdMsg
EXTRN	?IsInvokeAllowed@CCmdTarget@@UAEHJ@Z:PROC	; CCmdTarget::IsInvokeAllowed
EXTRN	?GetDispatchIID@CCmdTarget@@UAEHPAU_GUID@@@Z:PROC ; CCmdTarget::GetDispatchIID
EXTRN	?GetTypeInfoCount@CCmdTarget@@UAEIXZ:PROC	; CCmdTarget::GetTypeInfoCount
EXTRN	?GetTypeLibCache@CCmdTarget@@UAEPAVCTypeLibCache@@XZ:PROC ; CCmdTarget::GetTypeLibCache
EXTRN	?GetTypeLib@CCmdTarget@@UAEJKPAPAUITypeLib@@@Z:PROC ; CCmdTarget::GetTypeLib
EXTRN	?GetCommandMap@CCmdTarget@@MBEPBUAFX_OLECMDMAP@@XZ:PROC ; CCmdTarget::GetCommandMap
EXTRN	?GetDispatchMap@CCmdTarget@@MBEPBUAFX_DISPMAP@@XZ:PROC ; CCmdTarget::GetDispatchMap
EXTRN	?GetConnectionMap@CCmdTarget@@MBEPBUAFX_CONNECTIONMAP@@XZ:PROC ; CCmdTarget::GetConnectionMap
EXTRN	?GetEventSinkMap@CCmdTarget@@MBEPBUAFX_EVENTSINKMAP@@XZ:PROC ; CCmdTarget::GetEventSinkMap
EXTRN	?OnCreateAggregates@CCmdTarget@@UAEHXZ:PROC	; CCmdTarget::OnCreateAggregates
EXTRN	?GetInterfaceHook@CCmdTarget@@UAEPAUIUnknown@@PBX@Z:PROC ; CCmdTarget::GetInterfaceHook
EXTRN	?GetExtraConnectionPoints@CCmdTarget@@MAEHPAVCPtrArray@@@Z:PROC ; CCmdTarget::GetExtraConnectionPoints
EXTRN	?GetConnectionHook@CCmdTarget@@MAEPAUIConnectionPoint@@ABU_GUID@@@Z:PROC ; CCmdTarget::GetConnectionHook
EXTRN	??0CWnd@@QAE@XZ:PROC				; CWnd::CWnd
EXTRN	?PreSubclassWindow@CWnd@@UAEXXZ:PROC		; CWnd::PreSubclassWindow
EXTRN	?Create@CWnd@@UAEHPBD0KABUtagRECT@@PAV1@IPAUCCreateContext@@@Z:PROC ; CWnd::Create
EXTRN	?CreateEx@CWnd@@UAEHKPBD0KHHHHPAUHWND__@@PAUHMENU__@@PAX@Z:PROC ; CWnd::CreateEx
EXTRN	?CreateEx@CWnd@@UAEHKPBD0KABUtagRECT@@PAV1@IPAX@Z:PROC ; CWnd::CreateEx
EXTRN	?DestroyWindow@CWnd@@UAEHXZ:PROC		; CWnd::DestroyWindow
EXTRN	?PreCreateWindow@CWnd@@UAEHAAUtagCREATESTRUCTA@@@Z:PROC ; CWnd::PreCreateWindow
EXTRN	?CalcWindowRect@CWnd@@UAEXPAUtagRECT@@I@Z:PROC	; CWnd::CalcWindowRect
EXTRN	?GetDlgItem@CWnd@@QBEPAV1@H@Z:PROC		; CWnd::GetDlgItem
EXTRN	?GetMenu@CWnd@@UBEPAVCMenu@@XZ:PROC		; CWnd::GetMenu
EXTRN	?SetMenu@CWnd@@UAEHPAVCMenu@@@Z:PROC		; CWnd::SetMenu
EXTRN	?MoveWindow@CWnd@@QAEXHHHHH@Z:PROC		; CWnd::MoveWindow
EXTRN	?ScreenToClient@CWnd@@QBEXPAUtagRECT@@@Z:PROC	; CWnd::ScreenToClient
EXTRN	?OnToolHitTest@CWnd@@UBEHVCPoint@@PAUtagTOOLINFOA@@@Z:PROC ; CWnd::OnToolHitTest
EXTRN	?GetScrollBarCtrl@CWnd@@UBEPAVCScrollBar@@H@Z:PROC ; CWnd::GetScrollBarCtrl
EXTRN	?UpdateData@CWnd@@QAEHH@Z:PROC			; CWnd::UpdateData
EXTRN	?WinHelpA@CWnd@@UAEXKI@Z:PROC			; CWnd::WinHelpA
EXTRN	?HtmlHelpA@CWnd@@UAEXKI@Z:PROC			; CWnd::HtmlHelpA
EXTRN	?WinHelpInternal@CWnd@@UAEXKI@Z:PROC		; CWnd::WinHelpInternal
EXTRN	?ContinueModal@CWnd@@UAEHXZ:PROC		; CWnd::ContinueModal
EXTRN	?EndModalLoop@CWnd@@UAEXH@Z:PROC		; CWnd::EndModalLoop
EXTRN	?OnDrawIconicThumbnailOrLivePreview@CWnd@@UAEXAAVCDC@@VCRect@@VCSize@@HAAH@Z:PROC ; CWnd::OnDrawIconicThumbnailOrLivePreview
EXTRN	?GetInterfaceMap@CWnd@@MBEPBUAFX_INTERFACEMAP@@XZ:PROC ; CWnd::GetInterfaceMap
EXTRN	?EnsureStdObj@CWnd@@UAEJXZ:PROC			; CWnd::EnsureStdObj
EXTRN	?get_accParent@CWnd@@UAEJPAPAUIDispatch@@@Z:PROC ; CWnd::get_accParent
EXTRN	?get_accChildCount@CWnd@@UAEJPAJ@Z:PROC		; CWnd::get_accChildCount
EXTRN	?get_accChild@CWnd@@UAEJUtagVARIANT@@PAPAUIDispatch@@@Z:PROC ; CWnd::get_accChild
EXTRN	?get_accName@CWnd@@UAEJUtagVARIANT@@PAPA_W@Z:PROC ; CWnd::get_accName
EXTRN	?get_accValue@CWnd@@UAEJUtagVARIANT@@PAPA_W@Z:PROC ; CWnd::get_accValue
EXTRN	?get_accDescription@CWnd@@UAEJUtagVARIANT@@PAPA_W@Z:PROC ; CWnd::get_accDescription
EXTRN	?get_accRole@CWnd@@UAEJUtagVARIANT@@PAU2@@Z:PROC ; CWnd::get_accRole
EXTRN	?get_accState@CWnd@@UAEJUtagVARIANT@@PAU2@@Z:PROC ; CWnd::get_accState
EXTRN	?get_accHelp@CWnd@@UAEJUtagVARIANT@@PAPA_W@Z:PROC ; CWnd::get_accHelp
EXTRN	?get_accHelpTopic@CWnd@@UAEJPAPA_WUtagVARIANT@@PAJ@Z:PROC ; CWnd::get_accHelpTopic
EXTRN	?get_accKeyboardShortcut@CWnd@@UAEJUtagVARIANT@@PAPA_W@Z:PROC ; CWnd::get_accKeyboardShortcut
EXTRN	?get_accFocus@CWnd@@UAEJPAUtagVARIANT@@@Z:PROC	; CWnd::get_accFocus
EXTRN	?get_accSelection@CWnd@@UAEJPAUtagVARIANT@@@Z:PROC ; CWnd::get_accSelection
EXTRN	?get_accDefaultAction@CWnd@@UAEJUtagVARIANT@@PAPA_W@Z:PROC ; CWnd::get_accDefaultAction
EXTRN	?accSelect@CWnd@@UAEJJUtagVARIANT@@@Z:PROC	; CWnd::accSelect
EXTRN	?accLocation@CWnd@@UAEJPAJ000UtagVARIANT@@@Z:PROC ; CWnd::accLocation
EXTRN	?accNavigate@CWnd@@UAEJJUtagVARIANT@@PAU2@@Z:PROC ; CWnd::accNavigate
EXTRN	?accHitTest@CWnd@@UAEJJJPAUtagVARIANT@@@Z:PROC	; CWnd::accHitTest
EXTRN	?accDoDefaultAction@CWnd@@UAEJUtagVARIANT@@@Z:PROC ; CWnd::accDoDefaultAction
EXTRN	?put_accName@CWnd@@UAEJUtagVARIANT@@PA_W@Z:PROC	; CWnd::put_accName
EXTRN	?put_accValue@CWnd@@UAEJUtagVARIANT@@PA_W@Z:PROC ; CWnd::put_accValue
EXTRN	?SetProxy@CWnd@@UAEJPAUIAccessibleProxy@@@Z:PROC ; CWnd::SetProxy
EXTRN	?CreateAccessibleProxy@CWnd@@UAEJIJPAJ@Z:PROC	; CWnd::CreateAccessibleProxy
EXTRN	?OnCommand@CWnd@@MAEHIJ@Z:PROC			; CWnd::OnCommand
EXTRN	?OnNotify@CWnd@@MAEHIJPAJ@Z:PROC		; CWnd::OnNotify
EXTRN	?OnDestroy@CWnd@@IAEXXZ:PROC			; CWnd::OnDestroy
EXTRN	?GetSuperWndProcAddr@CWnd@@MAEPAP6GJPAUHWND__@@IIJ@ZXZ:PROC ; CWnd::GetSuperWndProcAddr
EXTRN	?PreTranslateMessage@CWnd@@UAEHPAUtagMSG@@@Z:PROC ; CWnd::PreTranslateMessage
EXTRN	?OnAmbientProperty@CWnd@@UAEHPAVCOleControlSite@@JPAUtagVARIANT@@@Z:PROC ; CWnd::OnAmbientProperty
EXTRN	?WindowProc@CWnd@@MAEJIIJ@Z:PROC		; CWnd::WindowProc
EXTRN	?OnWndMsg@CWnd@@MAEHIIJPAJ@Z:PROC		; CWnd::OnWndMsg
EXTRN	?Default@CWnd@@IAEJXZ:PROC			; CWnd::Default
EXTRN	?DefWindowProcA@CWnd@@MAEJIIJ@Z:PROC		; CWnd::DefWindowProcA
EXTRN	?PostNcDestroy@CWnd@@MAEXXZ:PROC		; CWnd::PostNcDestroy
EXTRN	?OnChildNotify@CWnd@@MAEHIIJPAJ@Z:PROC		; CWnd::OnChildNotify
EXTRN	?OnTouchInputs@CWnd@@MAEHIPAUtagTOUCHINPUT@@@Z:PROC ; CWnd::OnTouchInputs
EXTRN	?OnTouchInput@CWnd@@MAEHVCPoint@@HHPAUtagTOUCHINPUT@@@Z:PROC ; CWnd::OnTouchInput
EXTRN	?GetGestureStatus@CWnd@@MAEKVCPoint@@@Z:PROC	; CWnd::GetGestureStatus
EXTRN	?OnGestureZoom@CWnd@@MAEHVCPoint@@J@Z:PROC	; CWnd::OnGestureZoom
EXTRN	?OnGesturePan@CWnd@@MAEHVCPoint@@0@Z:PROC	; CWnd::OnGesturePan
EXTRN	?OnGestureRotate@CWnd@@MAEHVCPoint@@N@Z:PROC	; CWnd::OnGestureRotate
EXTRN	?OnGestureTwoFingerTap@CWnd@@MAEHVCPoint@@@Z:PROC ; CWnd::OnGestureTwoFingerTap
EXTRN	?OnGesturePressAndTap@CWnd@@MAEHVCPoint@@J@Z:PROC ; CWnd::OnGesturePressAndTap
EXTRN	?ResizeDynamicLayout@CWnd@@MAEXXZ:PROC		; CWnd::ResizeDynamicLayout
EXTRN	?CheckAutoCenter@CWnd@@UAEHXZ:PROC		; CWnd::CheckAutoCenter
EXTRN	?IsFrameWnd@CWnd@@UBEHXZ:PROC			; CWnd::IsFrameWnd
EXTRN	?OnFinalRelease@CWnd@@UAEXXZ:PROC		; CWnd::OnFinalRelease
EXTRN	?CreateControlContainer@CWnd@@MAEHPAPAVCOleControlContainer@@@Z:PROC ; CWnd::CreateControlContainer
EXTRN	?CreateControlSite@CWnd@@MAEHPAVCOleControlContainer@@PAPAVCOleControlSite@@IABU_GUID@@@Z:PROC ; CWnd::CreateControlSite
EXTRN	?SetOccDialogInfo@CWnd@@MAEHPAU_AFX_OCC_DIALOG_INFO@@@Z:PROC ; CWnd::SetOccDialogInfo
EXTRN	?GetOccDialogInfo@CWnd@@MAEPAU_AFX_OCC_DIALOG_INFO@@XZ:PROC ; CWnd::GetOccDialogInfo
EXTRN	?GetMessageMap@CWnd@@MBEPBUAFX_MSGMAP@@XZ:PROC	; CWnd::GetMessageMap
EXTRN	?GetRuntimeClass@CDialog@@UBEPAUCRuntimeClass@@XZ:PROC ; CDialog::GetRuntimeClass
EXTRN	?Create@CDialog@@UAEHPBDPAVCWnd@@@Z:PROC	; CDialog::Create
EXTRN	?CreateIndirect@CDialog@@UAEHPBUDLGTEMPLATE@@PAVCWnd@@PAX@Z:PROC ; CDialog::CreateIndirect
EXTRN	?CreateIndirect@CDialog@@UAEHPAXPAVCWnd@@@Z:PROC ; CDialog::CreateIndirect
EXTRN	??0CDialog@@QAE@IPAVCWnd@@@Z:PROC		; CDialog::CDialog
EXTRN	?DoModal@CDialog@@UAEHXZ:PROC			; CDialog::DoModal
EXTRN	?OnInitDialog@CDialog@@UAEHXZ:PROC		; CDialog::OnInitDialog
EXTRN	?OnSetFont@CDialog@@UAEXPAVCFont@@@Z:PROC	; CDialog::OnSetFont
EXTRN	?OnOK@CDialog@@MAEXXZ:PROC			; CDialog::OnOK
EXTRN	?OnCancel@CDialog@@MAEXXZ:PROC			; CDialog::OnCancel
EXTRN	??1CDialog@@UAE@XZ:PROC				; CDialog::~CDialog
EXTRN	?PreTranslateMessage@CDialog@@UAEHPAUtagMSG@@@Z:PROC ; CDialog::PreTranslateMessage
EXTRN	?OnCmdMsg@CDialog@@UAEHIHPAXPAUAFX_CMDHANDLERINFO@@@Z:PROC ; CDialog::OnCmdMsg
EXTRN	?CheckAutoCenter@CDialog@@UAEHXZ:PROC		; CDialog::CheckAutoCenter
EXTRN	?SetOccDialogInfo@CDialog@@MAEHPAU_AFX_OCC_DIALOG_INFO@@@Z:PROC ; CDialog::SetOccDialogInfo
EXTRN	?GetOccDialogInfo@CDialog@@MAEPAU_AFX_OCC_DIALOG_INFO@@XZ:PROC ; CDialog::GetOccDialogInfo
EXTRN	?PreInitDialog@CDialog@@MAEXXZ:PROC		; CDialog::PreInitDialog
EXTRN	?GetThisMessageMap@CDialog@@KGPBUAFX_MSGMAP@@XZ:PROC ; CDialog::GetThisMessageMap
EXTRN	?GetRuntimeClass@CComboBox@@UBEPAUCRuntimeClass@@XZ:PROC ; CComboBox::GetRuntimeClass
EXTRN	?Create@CComboBox@@UAEHKABUtagRECT@@PAVCWnd@@I@Z:PROC ; CComboBox::Create
EXTRN	?DrawItem@CComboBox@@UAEXPAUtagDRAWITEMSTRUCT@@@Z:PROC ; CComboBox::DrawItem
EXTRN	?MeasureItem@CComboBox@@UAEXPAUtagMEASUREITEMSTRUCT@@@Z:PROC ; CComboBox::MeasureItem
EXTRN	?CompareItem@CComboBox@@UAEHPAUtagCOMPAREITEMSTRUCT@@@Z:PROC ; CComboBox::CompareItem
EXTRN	?DeleteItem@CComboBox@@UAEXPAUtagDELETEITEMSTRUCT@@@Z:PROC ; CComboBox::DeleteItem
EXTRN	??1CComboBox@@UAE@XZ:PROC			; CComboBox::~CComboBox
EXTRN	?OnChildNotify@CComboBox@@MAEHIIJPAJ@Z:PROC	; CComboBox::OnChildNotify
EXTRN	??_ECComboBox@@UAEPAXI@Z:PROC			; CComboBox::`vector deleting destructor'
EXTRN	?AfxMessageBox@@YGHPBDII@Z:PROC			; AfxMessageBox
EXTRN	??_ECDlgGraphMove@@UAEPAXI@Z:PROC		; CDlgGraphMove::`vector deleting destructor'
EXTRN	__imp_?GetIndicatorName@CIndicatorInfo@@QBE?AV?$CStringT@DV?$StrTraitMFC_DLL@DV?$ChTraitsCRT@D@ATL@@@@@ATL@@XZ:PROC
EXTRN	__imp_?SetGridType@CScale@@QAEXW4SCALEGRIDTYPE@CScaleBaseData@@@Z:PROC
EXTRN	__imp_?GetGridType@CScale@@QBE?AW4SCALEGRIDTYPE@CScaleBaseData@@XZ:PROC
EXTRN	__imp_?SetVertScalePosition@CVerticalScale@@QAEXW4VERTSCALEPOSITION@CScaleBaseData@@@Z:PROC
EXTRN	__imp_?GetVertScalePosition@CVerticalScale@@QBE?AW4VERTSCALEPOSITION@CScaleBaseData@@XZ:PROC
EXTRN	__imp_??1CVerticalScale@@QAE@XZ:PROC
EXTRN	__imp_??0CVerticalScale@@QAE@ABV0@@Z:PROC
EXTRN	??0CMovingGraphVertScaleData@@QAE@HABVCVerticalScale@@@Z:PROC ; CMovingGraphVertScaleData::CMovingGraphVertScaleData
EXTRN	?GetVertScale@CVerticalScaleGroupData@@QAEAAVCVerticalScale@@XZ:PROC ; CVerticalScaleGroupData::GetVertScale
EXTRN	?GetVertScaleTitle@CVerticalScaleGroupData@@QBE?AV?$CStringT@DV?$StrTraitMFC_DLL@DV?$ChTraitsCRT@D@ATL@@@@@ATL@@XZ:PROC ; CVerticalScaleGroupData::GetVertScaleTitle
EXTRN	?GetCount@CVerticalScaleGroupDataList@@QBEHXZ:PROC ; CVerticalScaleGroupDataList::GetCount
EXTRN	?GetAt@CVerticalScaleGroupDataList@@QBE?AVCVerticalScaleGroupData@@H@Z:PROC ; CVerticalScaleGroupDataList::GetAt
EXTRN	__imp_?GetGraphName@CGraphData@@QBE?AV?$CStringT@DV?$StrTraitMFC_DLL@DV?$ChTraitsCRT@D@ATL@@@@@ATL@@XZ:PROC
EXTRN	?GetGraphData@CGraphImp@@QAEAAVCGraphData@@XZ:PROC ; CGraphImp::GetGraphData
EXTRN	?GetIndicatorInfo@CGraphImp@@QAEPAVCIndicatorInfo@@XZ:PROC ; CGraphImp::GetIndicatorInfo
EXTRN	@__security_check_cookie@4:PROC
EXTRN	___CxxFrameHandler3:PROC
EXTRN	_memset:PROC
EXTRN	??_7type_info@@6B@:QWORD			; type_info::`vftable'
EXTRN	?g_iMetaTable@@3VIMetaTable@@A:BYTE		; g_iMetaTable
EXTRN	___security_cookie:DWORD
;	COMDAT __xmm@0000010d000000b00000000b0000000a
CONST	SEGMENT
__xmm@0000010d000000b00000000b0000000a DB 0aH, 00H, 00H, 00H, 0bH, 00H, 00H
	DB	00H, 0b0H, 00H, 00H, 00H, 0dH, 01H, 00H, 00H
CONST	ENDS
;	COMDAT ??_R1A@?0A@EA@CDlgGraphMove@@8
rdata$r	SEGMENT
??_R1A@?0A@EA@CDlgGraphMove@@8 DD FLAT:??_R0?AVCDlgGraphMove@@@8 ; CDlgGraphMove::`RTTI Base Class Descriptor at (0,-1,0,64)'
	DD	04H
	DD	00H
	DD	0ffffffffH
	DD	00H
	DD	040H
	DD	FLAT:??_R3CDlgGraphMove@@8
rdata$r	ENDS
;	COMDAT ??_R2CDlgGraphMove@@8
rdata$r	SEGMENT
??_R2CDlgGraphMove@@8 DD FLAT:??_R1A@?0A@EA@CDlgGraphMove@@8 ; CDlgGraphMove::`RTTI Base Class Array'
	DD	FLAT:??_R1A@?0A@EA@CDialog@@8
	DD	FLAT:??_R1A@?0A@EA@CWnd@@8
	DD	FLAT:??_R1A@?0A@EA@CCmdTarget@@8
	DD	FLAT:??_R1A@?0A@EA@CObject@@8
rdata$r	ENDS
;	COMDAT ??_R3CDlgGraphMove@@8
rdata$r	SEGMENT
??_R3CDlgGraphMove@@8 DD 00H				; CDlgGraphMove::`RTTI Class Hierarchy Descriptor'
	DD	00H
	DD	05H
	DD	FLAT:??_R2CDlgGraphMove@@8
rdata$r	ENDS
;	COMDAT ??_R0?AVCDlgGraphMove@@@8
data$rs	SEGMENT
??_R0?AVCDlgGraphMove@@@8 DD FLAT:??_7type_info@@6B@	; CDlgGraphMove `RTTI Type Descriptor'
	DD	00H
	DB	'.?AVCDlgGraphMove@@', 00H
data$rs	ENDS
;	COMDAT ??_R4CDlgGraphMove@@6B@
rdata$r	SEGMENT
??_R4CDlgGraphMove@@6B@ DD 00H				; CDlgGraphMove::`RTTI Complete Object Locator'
	DD	00H
	DD	00H
	DD	FLAT:??_R0?AVCDlgGraphMove@@@8
	DD	FLAT:??_R3CDlgGraphMove@@8
rdata$r	ENDS
;	COMDAT ??_C@_0CF@HPNEOBPG@ChartEnvSetupDlgAddIn?4dll?3STYLE@
CONST	SEGMENT
??_C@_0CF@HPNEOBPG@ChartEnvSetupDlgAddIn?4dll?3STYLE@ DB 'ChartEnvSetupDl'
	DB	'gAddIn.dll:STYLE_DATA', 00H			; `string'
CONST	ENDS
;	COMDAT ?messageMap@?1??GetThisMessageMap@CDlgGraphMove@@KGPBUAFX_MSGMAP@@XZ@4U3@B
CONST	SEGMENT
?messageMap@?1??GetThisMessageMap@CDlgGraphMove@@KGPBUAFX_MSGMAP@@XZ@4U3@B DD FLAT:?GetThisMessageMap@CDialog@@KGPBUAFX_MSGMAP@@XZ ; `CDlgGraphMove::GetThisMessageMap'::`2'::messageMap
	DD	FLAT:?_messageEntries@?1??GetThisMessageMap@CDlgGraphMove@@KGPBUAFX_MSGMAP@@XZ@4QBUAFX_MSGMAP_ENTRY@@B
CONST	ENDS
;	COMDAT ?_messageEntries@?1??GetThisMessageMap@CDlgGraphMove@@KGPBUAFX_MSGMAP@@XZ@4QBUAFX_MSGMAP_ENTRY@@B
CONST	SEGMENT
?_messageEntries@?1??GetThisMessageMap@CDlgGraphMove@@KGPBUAFX_MSGMAP@@XZ@4QBUAFX_MSGMAP_ENTRY@@B DD 0111H ; `CDlgGraphMove::GetThisMessageMap'::`2'::_messageEntries
	DD	01H
	DD	03eaH
	DD	03eaH
	DD	03aH
	DD	FLAT:?OnSelchangeScalegroup@CDlgGraphMove@@IAEXXZ
	DD	0fH
	DD	00H
	DD	00H
	DD	00H
	DD	013H
	DD	FLAT:?OnPaint@CDlgGraphMove@@IAEXXZ
	DD	02H
	DD	00H
	DD	00H
	DD	00H
	DD	013H
	DD	FLAT:?OnDestroy@CDlgGraphMove@@IAEXXZ
	DD	01H
	DD	00H
	DD	00H
	DD	00H
	DD	0dH
	DD	FLAT:?OnCreate@CDlgGraphMove@@IAEHPAUtagCREATESTRUCTA@@@Z
	DD	0111H
	DD	01H
	DD	01b6bH
	DD	01b6bH
	DD	03aH
	DD	FLAT:?OnSelchangeStylecombo@CDlgGraphMove@@IAEXXZ
	DD	00H
	DD	00H
	DD	00H
	DD	00H
	DD	00H
	DD	00H
CONST	ENDS
;	COMDAT ??_C@_0P@FOFNMHJI@GetIndicatorID@
CONST	SEGMENT
??_C@_0P@FOFNMHJI@GetIndicatorID@ DB 'GetIndicatorID', 00H ; `string'
CONST	ENDS
;	COMDAT ??_C@_0BA@ENJOCHIO@LoadResourceDLL@
CONST	SEGMENT
??_C@_0BA@ENJOCHIO@LoadResourceDLL@ DB 'LoadResourceDLL', 00H ; `string'
CONST	ENDS
;	COMDAT ??_7CDlgGraphMove@@6B@
CONST	SEGMENT
??_7CDlgGraphMove@@6B@ DD FLAT:??_R4CDlgGraphMove@@6B@	; CDlgGraphMove::`vftable'
	DD	FLAT:?GetRuntimeClass@CDialog@@UBEPAUCRuntimeClass@@XZ
	DD	FLAT:??_ECDlgGraphMove@@UAEPAXI@Z
	DD	FLAT:?Serialize@CObject@@UAEXAAVCArchive@@@Z
	DD	FLAT:?AssertValid@CObject@@UBEXXZ
	DD	FLAT:?Dump@CObject@@UBEXAAVCDumpContext@@@Z
	DD	FLAT:?OnCmdMsg@CDialog@@UAEHIHPAXPAUAFX_CMDHANDLERINFO@@@Z
	DD	FLAT:?OnFinalRelease@CWnd@@UAEXXZ
	DD	FLAT:?IsInvokeAllowed@CCmdTarget@@UAEHJ@Z
	DD	FLAT:?GetDispatchIID@CCmdTarget@@UAEHPAU_GUID@@@Z
	DD	FLAT:?GetTypeInfoCount@CCmdTarget@@UAEIXZ
	DD	FLAT:?GetTypeLibCache@CCmdTarget@@UAEPAVCTypeLibCache@@XZ
	DD	FLAT:?GetTypeLib@CCmdTarget@@UAEJKPAPAUITypeLib@@@Z
	DD	FLAT:?GetMessageMap@CDlgGraphMove@@MBEPBUAFX_MSGMAP@@XZ
	DD	FLAT:?GetCommandMap@CCmdTarget@@MBEPBUAFX_OLECMDMAP@@XZ
	DD	FLAT:?GetDispatchMap@CCmdTarget@@MBEPBUAFX_DISPMAP@@XZ
	DD	FLAT:?GetConnectionMap@CCmdTarget@@MBEPBUAFX_CONNECTIONMAP@@XZ
	DD	FLAT:?GetInterfaceMap@CWnd@@MBEPBUAFX_INTERFACEMAP@@XZ
	DD	FLAT:?GetEventSinkMap@CCmdTarget@@MBEPBUAFX_EVENTSINKMAP@@XZ
	DD	FLAT:?OnCreateAggregates@CCmdTarget@@UAEHXZ
	DD	FLAT:?GetInterfaceHook@CCmdTarget@@UAEPAUIUnknown@@PBX@Z
	DD	FLAT:?GetExtraConnectionPoints@CCmdTarget@@MAEHPAVCPtrArray@@@Z
	DD	FLAT:?GetConnectionHook@CCmdTarget@@MAEPAUIConnectionPoint@@ABU_GUID@@@Z
	DD	FLAT:?PreSubclassWindow@CWnd@@UAEXXZ
	DD	FLAT:?Create@CWnd@@UAEHPBD0KABUtagRECT@@PAV1@IPAUCCreateContext@@@Z
	DD	FLAT:?CreateEx@CWnd@@UAEHKPBD0KABUtagRECT@@PAV1@IPAX@Z
	DD	FLAT:?CreateEx@CWnd@@UAEHKPBD0KHHHHPAUHWND__@@PAUHMENU__@@PAX@Z
	DD	FLAT:?DestroyWindow@CWnd@@UAEHXZ
	DD	FLAT:?PreCreateWindow@CWnd@@UAEHAAUtagCREATESTRUCTA@@@Z
	DD	FLAT:?CalcWindowRect@CWnd@@UAEXPAUtagRECT@@I@Z
	DD	FLAT:?GetMenu@CWnd@@UBEPAVCMenu@@XZ
	DD	FLAT:?SetMenu@CWnd@@UAEHPAVCMenu@@@Z
	DD	FLAT:?OnToolHitTest@CWnd@@UBEHVCPoint@@PAUtagTOOLINFOA@@@Z
	DD	FLAT:?GetScrollBarCtrl@CWnd@@UBEPAVCScrollBar@@H@Z
	DD	FLAT:?WinHelpA@CWnd@@UAEXKI@Z
	DD	FLAT:?HtmlHelpA@CWnd@@UAEXKI@Z
	DD	FLAT:?WinHelpInternal@CWnd@@UAEXKI@Z
	DD	FLAT:?ContinueModal@CWnd@@UAEHXZ
	DD	FLAT:?EndModalLoop@CWnd@@UAEXH@Z
	DD	FLAT:?OnDrawIconicThumbnailOrLivePreview@CWnd@@UAEXAAVCDC@@VCRect@@VCSize@@HAAH@Z
	DD	FLAT:?EnsureStdObj@CWnd@@UAEJXZ
	DD	FLAT:?get_accParent@CWnd@@UAEJPAPAUIDispatch@@@Z
	DD	FLAT:?get_accChildCount@CWnd@@UAEJPAJ@Z
	DD	FLAT:?get_accChild@CWnd@@UAEJUtagVARIANT@@PAPAUIDispatch@@@Z
	DD	FLAT:?get_accName@CWnd@@UAEJUtagVARIANT@@PAPA_W@Z
	DD	FLAT:?get_accValue@CWnd@@UAEJUtagVARIANT@@PAPA_W@Z
	DD	FLAT:?get_accDescription@CWnd@@UAEJUtagVARIANT@@PAPA_W@Z
	DD	FLAT:?get_accRole@CWnd@@UAEJUtagVARIANT@@PAU2@@Z
	DD	FLAT:?get_accState@CWnd@@UAEJUtagVARIANT@@PAU2@@Z
	DD	FLAT:?get_accHelp@CWnd@@UAEJUtagVARIANT@@PAPA_W@Z
	DD	FLAT:?get_accHelpTopic@CWnd@@UAEJPAPA_WUtagVARIANT@@PAJ@Z
	DD	FLAT:?get_accKeyboardShortcut@CWnd@@UAEJUtagVARIANT@@PAPA_W@Z
	DD	FLAT:?get_accFocus@CWnd@@UAEJPAUtagVARIANT@@@Z
	DD	FLAT:?get_accSelection@CWnd@@UAEJPAUtagVARIANT@@@Z
	DD	FLAT:?get_accDefaultAction@CWnd@@UAEJUtagVARIANT@@PAPA_W@Z
	DD	FLAT:?accSelect@CWnd@@UAEJJUtagVARIANT@@@Z
	DD	FLAT:?accLocation@CWnd@@UAEJPAJ000UtagVARIANT@@@Z
	DD	FLAT:?accNavigate@CWnd@@UAEJJUtagVARIANT@@PAU2@@Z
	DD	FLAT:?accHitTest@CWnd@@UAEJJJPAUtagVARIANT@@@Z
	DD	FLAT:?accDoDefaultAction@CWnd@@UAEJUtagVARIANT@@@Z
	DD	FLAT:?put_accName@CWnd@@UAEJUtagVARIANT@@PA_W@Z
	DD	FLAT:?put_accValue@CWnd@@UAEJUtagVARIANT@@PA_W@Z
	DD	FLAT:?SetProxy@CWnd@@UAEJPAUIAccessibleProxy@@@Z
	DD	FLAT:?CreateAccessibleProxy@CWnd@@UAEJIJPAJ@Z
	DD	FLAT:?OnCommand@CWnd@@MAEHIJ@Z
	DD	FLAT:?OnNotify@CWnd@@MAEHIJPAJ@Z
	DD	FLAT:?GetSuperWndProcAddr@CWnd@@MAEPAP6GJPAUHWND__@@IIJ@ZXZ
	DD	FLAT:?DoDataExchange@CDlgGraphMove@@MAEXPAVCDataExchange@@@Z
	DD	FLAT:?BeginModalState@CWnd@@UAEXXZ
	DD	FLAT:?EndModalState@CWnd@@UAEXXZ
	DD	FLAT:?PreTranslateMessage@CDialog@@UAEHPAUtagMSG@@@Z
	DD	FLAT:?OnAmbientProperty@CWnd@@UAEHPAVCOleControlSite@@JPAUtagVARIANT@@@Z
	DD	FLAT:?WindowProc@CWnd@@MAEJIIJ@Z
	DD	FLAT:?OnWndMsg@CWnd@@MAEHIIJPAJ@Z
	DD	FLAT:?DefWindowProcA@CWnd@@MAEJIIJ@Z
	DD	FLAT:?PostNcDestroy@CWnd@@MAEXXZ
	DD	FLAT:?OnChildNotify@CWnd@@MAEHIIJPAJ@Z
	DD	FLAT:?OnTouchInputs@CWnd@@MAEHIPAUtagTOUCHINPUT@@@Z
	DD	FLAT:?OnTouchInput@CWnd@@MAEHVCPoint@@HHPAUtagTOUCHINPUT@@@Z
	DD	FLAT:?GetGestureStatus@CWnd@@MAEKVCPoint@@@Z
	DD	FLAT:?OnGestureZoom@CWnd@@MAEHVCPoint@@J@Z
	DD	FLAT:?OnGesturePan@CWnd@@MAEHVCPoint@@0@Z
	DD	FLAT:?OnGestureRotate@CWnd@@MAEHVCPoint@@N@Z
	DD	FLAT:?OnGestureTwoFingerTap@CWnd@@MAEHVCPoint@@@Z
	DD	FLAT:?OnGesturePressAndTap@CWnd@@MAEHVCPoint@@J@Z
	DD	FLAT:?ResizeDynamicLayout@CWnd@@MAEXXZ
	DD	FLAT:?CheckAutoCenter@CDialog@@UAEHXZ
	DD	FLAT:?IsFrameWnd@CWnd@@UBEHXZ
	DD	FLAT:?CreateControlContainer@CWnd@@MAEHPAPAVCOleControlContainer@@@Z
	DD	FLAT:?CreateControlSite@CWnd@@MAEHPAVCOleControlContainer@@PAPAVCOleControlSite@@IABU_GUID@@@Z
	DD	FLAT:?SetOccDialogInfo@CDialog@@MAEHPAU_AFX_OCC_DIALOG_INFO@@@Z
	DD	FLAT:?GetOccDialogInfo@CDialog@@MAEPAU_AFX_OCC_DIALOG_INFO@@XZ
	DD	FLAT:?Create@CDialog@@UAEHIPAVCWnd@@@Z
	DD	FLAT:?Create@CDialog@@UAEHPBDPAVCWnd@@@Z
	DD	FLAT:?CreateIndirect@CDialog@@UAEHPAXPAVCWnd@@@Z
	DD	FLAT:?CreateIndirect@CDialog@@UAEHPBUDLGTEMPLATE@@PAVCWnd@@PAX@Z
	DD	FLAT:?DoModal@CDialog@@UAEHXZ
	DD	FLAT:?OnInitDialog@CDlgGraphMove@@MAEHXZ
	DD	FLAT:?OnSetFont@CDialog@@UAEXPAVCFont@@@Z
	DD	FLAT:?OnOK@CDlgGraphMove@@MAEXXZ
	DD	FLAT:?OnCancel@CDlgGraphMove@@MAEXXZ
	DD	FLAT:?PreInitDialog@CDialog@@MAEXXZ
CONST	ENDS
;	COMDAT ??_R2CDialog@@8
rdata$r	SEGMENT
??_R2CDialog@@8 DD FLAT:??_R1A@?0A@EA@CDialog@@8	; CDialog::`RTTI Base Class Array'
	DD	FLAT:??_R1A@?0A@EA@CWnd@@8
	DD	FLAT:??_R1A@?0A@EA@CCmdTarget@@8
	DD	FLAT:??_R1A@?0A@EA@CObject@@8
rdata$r	ENDS
;	COMDAT ??_R3CDialog@@8
rdata$r	SEGMENT
??_R3CDialog@@8 DD 00H					; CDialog::`RTTI Class Hierarchy Descriptor'
	DD	00H
	DD	04H
	DD	FLAT:??_R2CDialog@@8
rdata$r	ENDS
;	COMDAT ??_R0?AVCDialog@@@8
data$rs	SEGMENT
??_R0?AVCDialog@@@8 DD FLAT:??_7type_info@@6B@		; CDialog `RTTI Type Descriptor'
	DD	00H
	DB	'.?AVCDialog@@', 00H
data$rs	ENDS
;	COMDAT ??_R1A@?0A@EA@CDialog@@8
rdata$r	SEGMENT
??_R1A@?0A@EA@CDialog@@8 DD FLAT:??_R0?AVCDialog@@@8	; CDialog::`RTTI Base Class Descriptor at (0,-1,0,64)'
	DD	03H
	DD	00H
	DD	0ffffffffH
	DD	00H
	DD	040H
	DD	FLAT:??_R3CDialog@@8
rdata$r	ENDS
;	COMDAT ??_R1A@?0A@EA@CComboBox@@8
rdata$r	SEGMENT
??_R1A@?0A@EA@CComboBox@@8 DD FLAT:??_R0?AVCComboBox@@@8 ; CComboBox::`RTTI Base Class Descriptor at (0,-1,0,64)'
	DD	03H
	DD	00H
	DD	0ffffffffH
	DD	00H
	DD	040H
	DD	FLAT:??_R3CComboBox@@8
rdata$r	ENDS
;	COMDAT ??_R2CComboBox@@8
rdata$r	SEGMENT
??_R2CComboBox@@8 DD FLAT:??_R1A@?0A@EA@CComboBox@@8	; CComboBox::`RTTI Base Class Array'
	DD	FLAT:??_R1A@?0A@EA@CWnd@@8
	DD	FLAT:??_R1A@?0A@EA@CCmdTarget@@8
	DD	FLAT:??_R1A@?0A@EA@CObject@@8
rdata$r	ENDS
;	COMDAT ??_R3CComboBox@@8
rdata$r	SEGMENT
??_R3CComboBox@@8 DD 00H				; CComboBox::`RTTI Class Hierarchy Descriptor'
	DD	00H
	DD	04H
	DD	FLAT:??_R2CComboBox@@8
rdata$r	ENDS
;	COMDAT ??_R0?AVCComboBox@@@8
data$rs	SEGMENT
??_R0?AVCComboBox@@@8 DD FLAT:??_7type_info@@6B@	; CComboBox `RTTI Type Descriptor'
	DD	00H
	DB	'.?AVCComboBox@@', 00H
data$rs	ENDS
;	COMDAT ??_R4CComboBox@@6B@
rdata$r	SEGMENT
??_R4CComboBox@@6B@ DD 00H				; CComboBox::`RTTI Complete Object Locator'
	DD	00H
	DD	00H
	DD	FLAT:??_R0?AVCComboBox@@@8
	DD	FLAT:??_R3CComboBox@@8
rdata$r	ENDS
;	COMDAT ??_R2CCmdTarget@@8
rdata$r	SEGMENT
??_R2CCmdTarget@@8 DD FLAT:??_R1A@?0A@EA@CCmdTarget@@8	; CCmdTarget::`RTTI Base Class Array'
	DD	FLAT:??_R1A@?0A@EA@CObject@@8
rdata$r	ENDS
;	COMDAT ??_R3CCmdTarget@@8
rdata$r	SEGMENT
??_R3CCmdTarget@@8 DD 00H				; CCmdTarget::`RTTI Class Hierarchy Descriptor'
	DD	00H
	DD	02H
	DD	FLAT:??_R2CCmdTarget@@8
rdata$r	ENDS
;	COMDAT ??_R0?AVCCmdTarget@@@8
data$rs	SEGMENT
??_R0?AVCCmdTarget@@@8 DD FLAT:??_7type_info@@6B@	; CCmdTarget `RTTI Type Descriptor'
	DD	00H
	DB	'.?AVCCmdTarget@@', 00H
data$rs	ENDS
;	COMDAT ??_R1A@?0A@EA@CCmdTarget@@8
rdata$r	SEGMENT
??_R1A@?0A@EA@CCmdTarget@@8 DD FLAT:??_R0?AVCCmdTarget@@@8 ; CCmdTarget::`RTTI Base Class Descriptor at (0,-1,0,64)'
	DD	01H
	DD	00H
	DD	0ffffffffH
	DD	00H
	DD	040H
	DD	FLAT:??_R3CCmdTarget@@8
rdata$r	ENDS
;	COMDAT ??_R2CWnd@@8
rdata$r	SEGMENT
??_R2CWnd@@8 DD	FLAT:??_R1A@?0A@EA@CWnd@@8		; CWnd::`RTTI Base Class Array'
	DD	FLAT:??_R1A@?0A@EA@CCmdTarget@@8
	DD	FLAT:??_R1A@?0A@EA@CObject@@8
rdata$r	ENDS
;	COMDAT ??_R3CWnd@@8
rdata$r	SEGMENT
??_R3CWnd@@8 DD	00H					; CWnd::`RTTI Class Hierarchy Descriptor'
	DD	00H
	DD	03H
	DD	FLAT:??_R2CWnd@@8
rdata$r	ENDS
;	COMDAT ??_R0?AVCWnd@@@8
data$rs	SEGMENT
??_R0?AVCWnd@@@8 DD FLAT:??_7type_info@@6B@		; CWnd `RTTI Type Descriptor'
	DD	00H
	DB	'.?AVCWnd@@', 00H
data$rs	ENDS
;	COMDAT ??_R1A@?0A@EA@CWnd@@8
rdata$r	SEGMENT
??_R1A@?0A@EA@CWnd@@8 DD FLAT:??_R0?AVCWnd@@@8		; CWnd::`RTTI Base Class Descriptor at (0,-1,0,64)'
	DD	02H
	DD	00H
	DD	0ffffffffH
	DD	00H
	DD	040H
	DD	FLAT:??_R3CWnd@@8
rdata$r	ENDS
;	COMDAT ??_R1A@?0A@EA@CFont@@8
rdata$r	SEGMENT
??_R1A@?0A@EA@CFont@@8 DD FLAT:??_R0?AVCFont@@@8	; CFont::`RTTI Base Class Descriptor at (0,-1,0,64)'
	DD	02H
	DD	00H
	DD	0ffffffffH
	DD	00H
	DD	040H
	DD	FLAT:??_R3CFont@@8
rdata$r	ENDS
;	COMDAT ??_R2CFont@@8
rdata$r	SEGMENT
??_R2CFont@@8 DD FLAT:??_R1A@?0A@EA@CFont@@8		; CFont::`RTTI Base Class Array'
	DD	FLAT:??_R1A@?0A@EA@CGdiObject@@8
	DD	FLAT:??_R1A@?0A@EA@CObject@@8
rdata$r	ENDS
;	COMDAT ??_R3CFont@@8
rdata$r	SEGMENT
??_R3CFont@@8 DD 00H					; CFont::`RTTI Class Hierarchy Descriptor'
	DD	00H
	DD	03H
	DD	FLAT:??_R2CFont@@8
rdata$r	ENDS
;	COMDAT ??_R0?AVCFont@@@8
data$rs	SEGMENT
??_R0?AVCFont@@@8 DD FLAT:??_7type_info@@6B@		; CFont `RTTI Type Descriptor'
	DD	00H
	DB	'.?AVCFont@@', 00H
data$rs	ENDS
;	COMDAT ??_R4CFont@@6B@
rdata$r	SEGMENT
??_R4CFont@@6B@ DD 00H					; CFont::`RTTI Complete Object Locator'
	DD	00H
	DD	00H
	DD	FLAT:??_R0?AVCFont@@@8
	DD	FLAT:??_R3CFont@@8
rdata$r	ENDS
;	COMDAT ??_R1A@?0A@EA@CGdiObject@@8
rdata$r	SEGMENT
??_R1A@?0A@EA@CGdiObject@@8 DD FLAT:??_R0?AVCGdiObject@@@8 ; CGdiObject::`RTTI Base Class Descriptor at (0,-1,0,64)'
	DD	01H
	DD	00H
	DD	0ffffffffH
	DD	00H
	DD	040H
	DD	FLAT:??_R3CGdiObject@@8
rdata$r	ENDS
;	COMDAT ??_R2CGdiObject@@8
rdata$r	SEGMENT
??_R2CGdiObject@@8 DD FLAT:??_R1A@?0A@EA@CGdiObject@@8	; CGdiObject::`RTTI Base Class Array'
	DD	FLAT:??_R1A@?0A@EA@CObject@@8
rdata$r	ENDS
;	COMDAT ??_R3CGdiObject@@8
rdata$r	SEGMENT
??_R3CGdiObject@@8 DD 00H				; CGdiObject::`RTTI Class Hierarchy Descriptor'
	DD	00H
	DD	02H
	DD	FLAT:??_R2CGdiObject@@8
rdata$r	ENDS
;	COMDAT ??_R0?AVCGdiObject@@@8
data$rs	SEGMENT
??_R0?AVCGdiObject@@@8 DD FLAT:??_7type_info@@6B@	; CGdiObject `RTTI Type Descriptor'
	DD	00H
	DB	'.?AVCGdiObject@@', 00H
data$rs	ENDS
;	COMDAT ??_R4CGdiObject@@6B@
rdata$r	SEGMENT
??_R4CGdiObject@@6B@ DD 00H				; CGdiObject::`RTTI Complete Object Locator'
	DD	00H
	DD	00H
	DD	FLAT:??_R0?AVCGdiObject@@@8
	DD	FLAT:??_R3CGdiObject@@8
rdata$r	ENDS
;	COMDAT ??_R1A@?0A@EA@CObject@@8
rdata$r	SEGMENT
??_R1A@?0A@EA@CObject@@8 DD FLAT:??_R0?AVCObject@@@8	; CObject::`RTTI Base Class Descriptor at (0,-1,0,64)'
	DD	00H
	DD	00H
	DD	0ffffffffH
	DD	00H
	DD	040H
	DD	FLAT:??_R3CObject@@8
rdata$r	ENDS
;	COMDAT ??_R2CObject@@8
rdata$r	SEGMENT
??_R2CObject@@8 DD FLAT:??_R1A@?0A@EA@CObject@@8	; CObject::`RTTI Base Class Array'
rdata$r	ENDS
;	COMDAT ??_R3CObject@@8
rdata$r	SEGMENT
??_R3CObject@@8 DD 00H					; CObject::`RTTI Class Hierarchy Descriptor'
	DD	00H
	DD	01H
	DD	FLAT:??_R2CObject@@8
rdata$r	ENDS
;	COMDAT ??_R0?AVCObject@@@8
data$rs	SEGMENT
??_R0?AVCObject@@@8 DD FLAT:??_7type_info@@6B@		; CObject `RTTI Type Descriptor'
	DD	00H
	DB	'.?AVCObject@@', 00H
data$rs	ENDS
;	COMDAT ??_C@_0N@OMEMOKLE@?$CFTs?5?$CI?$CFTs?3?$CFd?$CJ@
CONST	SEGMENT
??_C@_0N@OMEMOKLE@?$CFTs?5?$CI?$CFTs?3?$CFd?$CJ@ DB '%Ts (%Ts:%d)', 00H ; `string'
CONST	ENDS
;	COMDAT ??_C@_0BB@HBOOMJBF@?$CFTs?5?$CI?$CFTs?3?$CFd?$CJ?6?$CFTs@
CONST	SEGMENT
??_C@_0BB@HBOOMJBF@?$CFTs?5?$CI?$CFTs?3?$CFd?$CJ?6?$CFTs@ DB '%Ts (%Ts:%d'
	DB	')', 0aH, '%Ts', 00H				; `string'
CONST	ENDS
;	COMDAT ??_C@_0BP@OIEOKIDM@Exception?5thrown?5in?5destructor@
CONST	SEGMENT
??_C@_0BP@OIEOKIDM@Exception?5thrown?5in?5destructor@ DB 'Exception throw'
	DB	'n in destructor', 00H			; `string'
CONST	ENDS
;	COMDAT ??_C@_0HD@JJCHHHNK@C?3?2Program?5Files?5?$CIx86?$CJ?2Microsof@
CONST	SEGMENT
??_C@_0HD@JJCHHHNK@C?3?2Program?5Files?5?$CIx86?$CJ?2Microsof@ DB 'C:\Pro'
	DB	'gram Files (x86)\Microsoft Visual Studio\2019\Community\VC\To'
	DB	'ols\MSVC\14.29.30133\atlmfc\include\afxwin1.inl', 00H ; `string'
CONST	ENDS
;	COMDAT ??_7CComboBox@@6B@
CONST	SEGMENT
??_7CComboBox@@6B@ DD FLAT:??_R4CComboBox@@6B@		; CComboBox::`vftable'
	DD	FLAT:?GetRuntimeClass@CComboBox@@UBEPAUCRuntimeClass@@XZ
	DD	FLAT:??_ECComboBox@@UAEPAXI@Z
	DD	FLAT:?Serialize@CObject@@UAEXAAVCArchive@@@Z
	DD	FLAT:?AssertValid@CObject@@UBEXXZ
	DD	FLAT:?Dump@CObject@@UBEXAAVCDumpContext@@@Z
	DD	FLAT:?OnCmdMsg@CCmdTarget@@UAEHIHPAXPAUAFX_CMDHANDLERINFO@@@Z
	DD	FLAT:?OnFinalRelease@CWnd@@UAEXXZ
	DD	FLAT:?IsInvokeAllowed@CCmdTarget@@UAEHJ@Z
	DD	FLAT:?GetDispatchIID@CCmdTarget@@UAEHPAU_GUID@@@Z
	DD	FLAT:?GetTypeInfoCount@CCmdTarget@@UAEIXZ
	DD	FLAT:?GetTypeLibCache@CCmdTarget@@UAEPAVCTypeLibCache@@XZ
	DD	FLAT:?GetTypeLib@CCmdTarget@@UAEJKPAPAUITypeLib@@@Z
	DD	FLAT:?GetMessageMap@CWnd@@MBEPBUAFX_MSGMAP@@XZ
	DD	FLAT:?GetCommandMap@CCmdTarget@@MBEPBUAFX_OLECMDMAP@@XZ
	DD	FLAT:?GetDispatchMap@CCmdTarget@@MBEPBUAFX_DISPMAP@@XZ
	DD	FLAT:?GetConnectionMap@CCmdTarget@@MBEPBUAFX_CONNECTIONMAP@@XZ
	DD	FLAT:?GetInterfaceMap@CWnd@@MBEPBUAFX_INTERFACEMAP@@XZ
	DD	FLAT:?GetEventSinkMap@CCmdTarget@@MBEPBUAFX_EVENTSINKMAP@@XZ
	DD	FLAT:?OnCreateAggregates@CCmdTarget@@UAEHXZ
	DD	FLAT:?GetInterfaceHook@CCmdTarget@@UAEPAUIUnknown@@PBX@Z
	DD	FLAT:?GetExtraConnectionPoints@CCmdTarget@@MAEHPAVCPtrArray@@@Z
	DD	FLAT:?GetConnectionHook@CCmdTarget@@MAEPAUIConnectionPoint@@ABU_GUID@@@Z
	DD	FLAT:?PreSubclassWindow@CWnd@@UAEXXZ
	DD	FLAT:?Create@CWnd@@UAEHPBD0KABUtagRECT@@PAV1@IPAUCCreateContext@@@Z
	DD	FLAT:?CreateEx@CWnd@@UAEHKPBD0KABUtagRECT@@PAV1@IPAX@Z
	DD	FLAT:?CreateEx@CWnd@@UAEHKPBD0KHHHHPAUHWND__@@PAUHMENU__@@PAX@Z
	DD	FLAT:?DestroyWindow@CWnd@@UAEHXZ
	DD	FLAT:?PreCreateWindow@CWnd@@UAEHAAUtagCREATESTRUCTA@@@Z
	DD	FLAT:?CalcWindowRect@CWnd@@UAEXPAUtagRECT@@I@Z
	DD	FLAT:?GetMenu@CWnd@@UBEPAVCMenu@@XZ
	DD	FLAT:?SetMenu@CWnd@@UAEHPAVCMenu@@@Z
	DD	FLAT:?OnToolHitTest@CWnd@@UBEHVCPoint@@PAUtagTOOLINFOA@@@Z
	DD	FLAT:?GetScrollBarCtrl@CWnd@@UBEPAVCScrollBar@@H@Z
	DD	FLAT:?WinHelpA@CWnd@@UAEXKI@Z
	DD	FLAT:?HtmlHelpA@CWnd@@UAEXKI@Z
	DD	FLAT:?WinHelpInternal@CWnd@@UAEXKI@Z
	DD	FLAT:?ContinueModal@CWnd@@UAEHXZ
	DD	FLAT:?EndModalLoop@CWnd@@UAEXH@Z
	DD	FLAT:?OnDrawIconicThumbnailOrLivePreview@CWnd@@UAEXAAVCDC@@VCRect@@VCSize@@HAAH@Z
	DD	FLAT:?EnsureStdObj@CWnd@@UAEJXZ
	DD	FLAT:?get_accParent@CWnd@@UAEJPAPAUIDispatch@@@Z
	DD	FLAT:?get_accChildCount@CWnd@@UAEJPAJ@Z
	DD	FLAT:?get_accChild@CWnd@@UAEJUtagVARIANT@@PAPAUIDispatch@@@Z
	DD	FLAT:?get_accName@CWnd@@UAEJUtagVARIANT@@PAPA_W@Z
	DD	FLAT:?get_accValue@CWnd@@UAEJUtagVARIANT@@PAPA_W@Z
	DD	FLAT:?get_accDescription@CWnd@@UAEJUtagVARIANT@@PAPA_W@Z
	DD	FLAT:?get_accRole@CWnd@@UAEJUtagVARIANT@@PAU2@@Z
	DD	FLAT:?get_accState@CWnd@@UAEJUtagVARIANT@@PAU2@@Z
	DD	FLAT:?get_accHelp@CWnd@@UAEJUtagVARIANT@@PAPA_W@Z
	DD	FLAT:?get_accHelpTopic@CWnd@@UAEJPAPA_WUtagVARIANT@@PAJ@Z
	DD	FLAT:?get_accKeyboardShortcut@CWnd@@UAEJUtagVARIANT@@PAPA_W@Z
	DD	FLAT:?get_accFocus@CWnd@@UAEJPAUtagVARIANT@@@Z
	DD	FLAT:?get_accSelection@CWnd@@UAEJPAUtagVARIANT@@@Z
	DD	FLAT:?get_accDefaultAction@CWnd@@UAEJUtagVARIANT@@PAPA_W@Z
	DD	FLAT:?accSelect@CWnd@@UAEJJUtagVARIANT@@@Z
	DD	FLAT:?accLocation@CWnd@@UAEJPAJ000UtagVARIANT@@@Z
	DD	FLAT:?accNavigate@CWnd@@UAEJJUtagVARIANT@@PAU2@@Z
	DD	FLAT:?accHitTest@CWnd@@UAEJJJPAUtagVARIANT@@@Z
	DD	FLAT:?accDoDefaultAction@CWnd@@UAEJUtagVARIANT@@@Z
	DD	FLAT:?put_accName@CWnd@@UAEJUtagVARIANT@@PA_W@Z
	DD	FLAT:?put_accValue@CWnd@@UAEJUtagVARIANT@@PA_W@Z
	DD	FLAT:?SetProxy@CWnd@@UAEJPAUIAccessibleProxy@@@Z
	DD	FLAT:?CreateAccessibleProxy@CWnd@@UAEJIJPAJ@Z
	DD	FLAT:?OnCommand@CWnd@@MAEHIJ@Z
	DD	FLAT:?OnNotify@CWnd@@MAEHIJPAJ@Z
	DD	FLAT:?GetSuperWndProcAddr@CWnd@@MAEPAP6GJPAUHWND__@@IIJ@ZXZ
	DD	FLAT:?DoDataExchange@CWnd@@MAEXPAVCDataExchange@@@Z
	DD	FLAT:?BeginModalState@CWnd@@UAEXXZ
	DD	FLAT:?EndModalState@CWnd@@UAEXXZ
	DD	FLAT:?PreTranslateMessage@CWnd@@UAEHPAUtagMSG@@@Z
	DD	FLAT:?OnAmbientProperty@CWnd@@UAEHPAVCOleControlSite@@JPAUtagVARIANT@@@Z
	DD	FLAT:?WindowProc@CWnd@@MAEJIIJ@Z
	DD	FLAT:?OnWndMsg@CWnd@@MAEHIIJPAJ@Z
	DD	FLAT:?DefWindowProcA@CWnd@@MAEJIIJ@Z
	DD	FLAT:?PostNcDestroy@CWnd@@MAEXXZ
	DD	FLAT:?OnChildNotify@CComboBox@@MAEHIIJPAJ@Z
	DD	FLAT:?OnTouchInputs@CWnd@@MAEHIPAUtagTOUCHINPUT@@@Z
	DD	FLAT:?OnTouchInput@CWnd@@MAEHVCPoint@@HHPAUtagTOUCHINPUT@@@Z
	DD	FLAT:?GetGestureStatus@CWnd@@MAEKVCPoint@@@Z
	DD	FLAT:?OnGestureZoom@CWnd@@MAEHVCPoint@@J@Z
	DD	FLAT:?OnGesturePan@CWnd@@MAEHVCPoint@@0@Z
	DD	FLAT:?OnGestureRotate@CWnd@@MAEHVCPoint@@N@Z
	DD	FLAT:?OnGestureTwoFingerTap@CWnd@@MAEHVCPoint@@@Z
	DD	FLAT:?OnGesturePressAndTap@CWnd@@MAEHVCPoint@@J@Z
	DD	FLAT:?ResizeDynamicLayout@CWnd@@MAEXXZ
	DD	FLAT:?CheckAutoCenter@CWnd@@UAEHXZ
	DD	FLAT:?IsFrameWnd@CWnd@@UBEHXZ
	DD	FLAT:?CreateControlContainer@CWnd@@MAEHPAPAVCOleControlContainer@@@Z
	DD	FLAT:?CreateControlSite@CWnd@@MAEHPAVCOleControlContainer@@PAPAVCOleControlSite@@IABU_GUID@@@Z
	DD	FLAT:?SetOccDialogInfo@CWnd@@MAEHPAU_AFX_OCC_DIALOG_INFO@@@Z
	DD	FLAT:?GetOccDialogInfo@CWnd@@MAEPAU_AFX_OCC_DIALOG_INFO@@XZ
	DD	FLAT:?Create@CComboBox@@UAEHKABUtagRECT@@PAVCWnd@@I@Z
	DD	FLAT:?DrawItem@CComboBox@@UAEXPAUtagDRAWITEMSTRUCT@@@Z
	DD	FLAT:?MeasureItem@CComboBox@@UAEXPAUtagMEASUREITEMSTRUCT@@@Z
	DD	FLAT:?CompareItem@CComboBox@@UAEHPAUtagCOMPAREITEMSTRUCT@@@Z
	DD	FLAT:?DeleteItem@CComboBox@@UAEXPAUtagDELETEITEMSTRUCT@@@Z
CONST	ENDS
;	COMDAT ??_7CFont@@6B@
CONST	SEGMENT
??_7CFont@@6B@ DD FLAT:??_R4CFont@@6B@			; CFont::`vftable'
	DD	FLAT:?GetRuntimeClass@CFont@@UBEPAUCRuntimeClass@@XZ
	DD	FLAT:??_ECFont@@UAEPAXI@Z
	DD	FLAT:?Serialize@CObject@@UAEXAAVCArchive@@@Z
	DD	FLAT:?AssertValid@CObject@@UBEXXZ
	DD	FLAT:?Dump@CObject@@UBEXAAVCDumpContext@@@Z
CONST	ENDS
;	COMDAT ??_7CGdiObject@@6B@
CONST	SEGMENT
??_7CGdiObject@@6B@ DD FLAT:??_R4CGdiObject@@6B@	; CGdiObject::`vftable'
	DD	FLAT:?GetRuntimeClass@CGdiObject@@UBEPAUCRuntimeClass@@XZ
	DD	FLAT:??_ECGdiObject@@UAEPAXI@Z
	DD	FLAT:?Serialize@CObject@@UAEXAAVCArchive@@@Z
	DD	FLAT:?AssertValid@CObject@@UBEXXZ
	DD	FLAT:?Dump@CObject@@UBEXAAVCDumpContext@@@Z
CONST	ENDS
;	COMDAT ??_R0PAVCException@@@8
data$r	SEGMENT
??_R0PAVCException@@@8 DD FLAT:??_7type_info@@6B@	; CException * `RTTI Type Descriptor'
	DD	00H
	DB	'.PAVCException@@', 00H
data$r	ENDS
;	COMDAT xdata$x
xdata$x	SEGMENT
__ehfuncinfo$??1CMultiLanguageResourceSetter@@QAE@XZ DD 019930522H
	DD	00H
	DD	00H
	DD	2 DUP(00H)
	DD	2 DUP(00H)
	DD	00H
	DD	05H
xdata$x	ENDS
;	COMDAT xdata$x
xdata$x	SEGMENT
__unwindtable$?IsStyledGraph@CDlgGraphMove@@IAEHXZ DD 0ffffffffH
	DD	FLAT:__unwindfunclet$?IsStyledGraph@CDlgGraphMove@@IAEHXZ$0
__ehfuncinfo$?IsStyledGraph@CDlgGraphMove@@IAEHXZ DD 019930522H
	DD	01H
	DD	FLAT:__unwindtable$?IsStyledGraph@CDlgGraphMove@@IAEHXZ
	DD	2 DUP(00H)
	DD	2 DUP(00H)
	DD	00H
	DD	01H
xdata$x	ENDS
;	COMDAT xdata$x
xdata$x	SEGMENT
__unwindtable$?GetCurrentVerticalScale@CDlgGraphMove@@ABE?AVCVerticalScale@@XZ DD 0ffffffffH
	DD	FLAT:__unwindfunclet$?GetCurrentVerticalScale@CDlgGraphMove@@ABE?AVCVerticalScale@@XZ$0
	DD	00H
	DD	FLAT:__unwindfunclet$?GetCurrentVerticalScale@CDlgGraphMove@@ABE?AVCVerticalScale@@XZ$1
__ehfuncinfo$?GetCurrentVerticalScale@CDlgGraphMove@@ABE?AVCVerticalScale@@XZ DD 019930522H
	DD	02H
	DD	FLAT:__unwindtable$?GetCurrentVerticalScale@CDlgGraphMove@@ABE?AVCVerticalScale@@XZ
	DD	2 DUP(00H)
	DD	2 DUP(00H)
	DD	00H
	DD	01H
xdata$x	ENDS
;	COMDAT xdata$x
xdata$x	SEGMENT
__unwindtable$?GetVerticalScale@CDlgGraphMove@@ABE?AVCVerticalScale@@H@Z DD 0ffffffffH
	DD	FLAT:__unwindfunclet$?GetVerticalScale@CDlgGraphMove@@ABE?AVCVerticalScale@@H@Z$0
__ehfuncinfo$?GetVerticalScale@CDlgGraphMove@@ABE?AVCVerticalScale@@H@Z DD 019930522H
	DD	01H
	DD	FLAT:__unwindtable$?GetVerticalScale@CDlgGraphMove@@ABE?AVCVerticalScale@@H@Z
	DD	2 DUP(00H)
	DD	2 DUP(00H)
	DD	00H
	DD	01H
xdata$x	ENDS
;	COMDAT xdata$x
xdata$x	SEGMENT
__unwindtable$?InitializeData@CDlgGraphMove@@AAEXXZ DD 0ffffffffH
	DD	FLAT:__unwindfunclet$?InitializeData@CDlgGraphMove@@AAEXXZ$0
__ehfuncinfo$?InitializeData@CDlgGraphMove@@AAEXXZ DD 019930522H
	DD	01H
	DD	FLAT:__unwindtable$?InitializeData@CDlgGraphMove@@AAEXXZ
	DD	2 DUP(00H)
	DD	2 DUP(00H)
	DD	00H
	DD	01H
xdata$x	ENDS
;	COMDAT xdata$x
xdata$x	SEGMENT
__unwindtable$?GetMovingGraphVertScaleData@CDlgGraphMove@@QBE?AVCMovingGraphVertScaleData@@XZ DD 0ffffffffH
	DD	FLAT:__unwindfunclet$?GetMovingGraphVertScaleData@CDlgGraphMove@@QBE?AVCMovingGraphVertScaleData@@XZ$2
	DD	00H
	DD	FLAT:__unwindfunclet$?GetMovingGraphVertScaleData@CDlgGraphMove@@QBE?AVCMovingGraphVertScaleData@@XZ$3
__ehfuncinfo$?GetMovingGraphVertScaleData@CDlgGraphMove@@QBE?AVCMovingGraphVertScaleData@@XZ DD 019930522H
	DD	02H
	DD	FLAT:__unwindtable$?GetMovingGraphVertScaleData@CDlgGraphMove@@QBE?AVCMovingGraphVertScaleData@@XZ
	DD	2 DUP(00H)
	DD	2 DUP(00H)
	DD	00H
	DD	01H
xdata$x	ENDS
;	COMDAT xdata$x
xdata$x	SEGMENT
__unwindtable$?OnCreate@CDlgGraphMove@@IAEHPAUtagCREATESTRUCTA@@@Z DD 0ffffffffH
	DD	FLAT:__unwindfunclet$?OnCreate@CDlgGraphMove@@IAEHPAUtagCREATESTRUCTA@@@Z$1
	DD	00H
	DD	FLAT:__unwindfunclet$?OnCreate@CDlgGraphMove@@IAEHPAUtagCREATESTRUCTA@@@Z$2
	DD	0ffffffffH
	DD	FLAT:___std_terminate
__ehfuncinfo$?OnCreate@CDlgGraphMove@@IAEHPAUtagCREATESTRUCTA@@@Z DD 019930522H
	DD	03H
	DD	FLAT:__unwindtable$?OnCreate@CDlgGraphMove@@IAEHPAUtagCREATESTRUCTA@@@Z
	DD	2 DUP(00H)
	DD	2 DUP(00H)
	DD	00H
	DD	01H
xdata$x	ENDS
;	COMDAT xdata$x
xdata$x	SEGMENT
__unwindtable$?OnPaint@CDlgGraphMove@@IAEXXZ DD 0ffffffffH
	DD	FLAT:__unwindfunclet$?OnPaint@CDlgGraphMove@@IAEXXZ$0
__ehfuncinfo$?OnPaint@CDlgGraphMove@@IAEXXZ DD 019930522H
	DD	01H
	DD	FLAT:__unwindtable$?OnPaint@CDlgGraphMove@@IAEXXZ
	DD	2 DUP(00H)
	DD	2 DUP(00H)
	DD	00H
	DD	01H
xdata$x	ENDS
;	COMDAT xdata$x
xdata$x	SEGMENT
__unwindtable$?OnSelchangeScalegroup@CDlgGraphMove@@IAEXXZ DD 0ffffffffH
	DD	FLAT:__unwindfunclet$?OnSelchangeScalegroup@CDlgGraphMove@@IAEXXZ$1
	DD	0ffffffffH
	DD	FLAT:__unwindfunclet$?OnSelchangeScalegroup@CDlgGraphMove@@IAEXXZ$0
__ehfuncinfo$?OnSelchangeScalegroup@CDlgGraphMove@@IAEXXZ DD 019930522H
	DD	02H
	DD	FLAT:__unwindtable$?OnSelchangeScalegroup@CDlgGraphMove@@IAEXXZ
	DD	2 DUP(00H)
	DD	2 DUP(00H)
	DD	00H
	DD	01H
xdata$x	ENDS
;	COMDAT xdata$x
xdata$x	SEGMENT
__unwindtable$?OnOK@CDlgGraphMove@@MAEXXZ DD 0ffffffffH
	DD	FLAT:__unwindfunclet$?OnOK@CDlgGraphMove@@MAEXXZ$0
__ehfuncinfo$?OnOK@CDlgGraphMove@@MAEXXZ DD 019930522H
	DD	01H
	DD	FLAT:__unwindtable$?OnOK@CDlgGraphMove@@MAEXXZ
	DD	2 DUP(00H)
	DD	2 DUP(00H)
	DD	00H
	DD	01H
xdata$x	ENDS
;	COMDAT xdata$x
xdata$x	SEGMENT
__unwindtable$?OnInitDialog@CDlgGraphMove@@MAEHXZ DD 0ffffffffH
	DD	FLAT:__unwindfunclet$?OnInitDialog@CDlgGraphMove@@MAEHXZ$0
__ehfuncinfo$?OnInitDialog@CDlgGraphMove@@MAEHXZ DD 019930522H
	DD	01H
	DD	FLAT:__unwindtable$?OnInitDialog@CDlgGraphMove@@MAEHXZ
	DD	2 DUP(00H)
	DD	2 DUP(00H)
	DD	00H
	DD	01H
xdata$x	ENDS
;	COMDAT xdata$x
xdata$x	SEGMENT
__unwindtable$??0CDlgGraphMove@@QAE@PAVCWnd@@PAVCGraphImp@@ABVCVerticalScaleGroupDataList@@PAUIChartCtrl@@@Z DD 0ffffffffH
	DD	FLAT:__unwindfunclet$??0CDlgGraphMove@@QAE@PAVCWnd@@PAVCGraphImp@@ABVCVerticalScaleGroupDataList@@PAUIChartCtrl@@@Z$0
	DD	00H
	DD	FLAT:__unwindfunclet$??0CDlgGraphMove@@QAE@PAVCWnd@@PAVCGraphImp@@ABVCVerticalScaleGroupDataList@@PAUIChartCtrl@@@Z$1
__ehfuncinfo$??0CDlgGraphMove@@QAE@PAVCWnd@@PAVCGraphImp@@ABVCVerticalScaleGroupDataList@@PAUIChartCtrl@@@Z DD 019930522H
	DD	02H
	DD	FLAT:__unwindtable$??0CDlgGraphMove@@QAE@PAVCWnd@@PAVCGraphImp@@ABVCVerticalScaleGroupDataList@@PAUIChartCtrl@@@Z
	DD	2 DUP(00H)
	DD	2 DUP(00H)
	DD	00H
	DD	01H
xdata$x	ENDS
;	COMDAT xdata$x
xdata$x	SEGMENT
__catchsym$??1CGdiObject@@UAE@XZ$3 DD 00H
	DD	FLAT:??_R0PAVCException@@@8
	DD	0fffffde4H
	DD	FLAT:__catch$??1CGdiObject@@UAE@XZ$0
__tryblocktable$??1CGdiObject@@UAE@XZ DD 00H
	DD	00H
	DD	02H
	DD	01H
	DD	FLAT:__catchsym$??1CGdiObject@@UAE@XZ$3
__unwindtable$??1CGdiObject@@UAE@XZ DD 0ffffffffH
	DD	00H
	DD	0ffffffffH
	DD	00H
	DD	01H
	DD	FLAT:__unwindfunclet$??1CGdiObject@@UAE@XZ$2
__ehfuncinfo$??1CGdiObject@@UAE@XZ DD 019930522H
	DD	03H
	DD	FLAT:__unwindtable$??1CGdiObject@@UAE@XZ
	DD	01H
	DD	FLAT:__tryblocktable$??1CGdiObject@@UAE@XZ
	DD	2 DUP(00H)
	DD	00H
	DD	05H
xdata$x	ENDS
; Function compile flags: /Ogtp
;	COMDAT ??1CVerticalScaleGroupData@@QAE@XZ
_TEXT	SEGMENT
??1CVerticalScaleGroupData@@QAE@XZ PROC			; CVerticalScaleGroupData::~CVerticalScaleGroupData, COMDAT
; _this$ = ecx
  00000	56		 push	 esi
  00001	8b f1		 mov	 esi, ecx
  00003	8d 4e 58	 lea	 ecx, DWORD PTR [esi+88]
  00006	ff 15 00 00 00
	00		 call	 DWORD PTR __imp_??1?$CStringT@DV?$StrTraitMFC_DLL@DV?$ChTraitsCRT@D@ATL@@@@@ATL@@QAE@XZ
  0000c	8b ce		 mov	 ecx, esi
  0000e	5e		 pop	 esi
  0000f	ff 25 00 00 00
	00		 jmp	 DWORD PTR __imp_??1CVerticalScale@@QAE@XZ
??1CVerticalScaleGroupData@@QAE@XZ ENDP			; CVerticalScaleGroupData::~CVerticalScaleGroupData
_TEXT	ENDS
; Function compile flags: /Ogtp
; File D:\git\src\IBK\IBK_DRFN\ProjSrc\SrcChartEx\ChartOCX\Include_Chart\Dll_Load\IMetaTable.h
; File C:\Program Files (x86)\Microsoft Visual Studio\2019\Community\VC\Tools\MSVC\14.29.30133\atlmfc\include\afxwin1.inl
; File D:\git\src\IBK\IBK_DRFN\ProjSrc\SrcChartEx\ChartOCX\Include_Chart\Dll_Load\IMetaTable.h
;	COMDAT ??1CMultiLanguageResourceSetter@@QAE@XZ
_TEXT	SEGMENT
__$EHRec$ = -12						; size = 12
??1CMultiLanguageResourceSetter@@QAE@XZ PROC		; CMultiLanguageResourceSetter::~CMultiLanguageResourceSetter, COMDAT
; _this$ = ecx

; 1036 : 	{

  00000	55		 push	 ebp
  00001	8b ec		 mov	 ebp, esp
  00003	6a ff		 push	 -1
  00005	68 00 00 00 00	 push	 __ehhandler$??1CMultiLanguageResourceSetter@@QAE@XZ
  0000a	64 a1 00 00 00
	00		 mov	 eax, DWORD PTR fs:0
  00010	50		 push	 eax
  00011	56		 push	 esi
  00012	a1 00 00 00 00	 mov	 eax, DWORD PTR ___security_cookie
  00017	33 c5		 xor	 eax, ebp
  00019	50		 push	 eax
  0001a	8d 45 f4	 lea	 eax, DWORD PTR __$EHRec$[ebp]
  0001d	64 a3 00 00 00
	00		 mov	 DWORD PTR fs:0, eax

; 1037 : 		AfxSetResourceHandle( m_hInstance);

  00023	8b 31		 mov	 esi, DWORD PTR [ecx]
; File C:\Program Files (x86)\Microsoft Visual Studio\2019\Community\VC\Tools\MSVC\14.29.30133\atlmfc\include\afxwin1.inl

; 27   : 	{ ASSERT(hInstResource != NULL); afxCurrentResourceHandle = hInstResource; }

  00025	e8 00 00 00 00	 call	 ?AfxGetModuleState@@YGPAVAFX_MODULE_STATE@@XZ ; AfxGetModuleState
  0002a	89 70 0c	 mov	 DWORD PTR [eax+12], esi
; File D:\git\src\IBK\IBK_DRFN\ProjSrc\SrcChartEx\ChartOCX\Include_Chart\Dll_Load\IMetaTable.h

; 1038 : 	}

  0002d	8b 4d f4	 mov	 ecx, DWORD PTR __$EHRec$[ebp]
  00030	64 89 0d 00 00
	00 00		 mov	 DWORD PTR fs:0, ecx
  00037	59		 pop	 ecx
  00038	5e		 pop	 esi
  00039	8b e5		 mov	 esp, ebp
  0003b	5d		 pop	 ebp
  0003c	c3		 ret	 0
  0003d	cc		 int	 3
  0003e	cc		 int	 3
  0003f	cc		 int	 3
  00040	cc		 int	 3
  00041	cc		 int	 3
_TEXT	ENDS
;	COMDAT text$x
text$x	SEGMENT
__ehhandler$??1CMultiLanguageResourceSetter@@QAE@XZ:
  00000	90		 npad	 1
  00001	90		 npad	 1
  00002	8b 54 24 08	 mov	 edx, DWORD PTR [esp+8]
  00006	8d 42 0c	 lea	 eax, DWORD PTR [edx+12]
  00009	8b 4a f8	 mov	 ecx, DWORD PTR [edx-8]
  0000c	33 c8		 xor	 ecx, eax
  0000e	e8 00 00 00 00	 call	 @__security_check_cookie@4
  00013	b8 00 00 00 00	 mov	 eax, OFFSET __ehfuncinfo$??1CMultiLanguageResourceSetter@@QAE@XZ
  00018	e9 00 00 00 00	 jmp	 ___CxxFrameHandler3
text$x	ENDS
??1CMultiLanguageResourceSetter@@QAE@XZ ENDP		; CMultiLanguageResourceSetter::~CMultiLanguageResourceSetter
; Function compile flags: /Ogtp
; File C:\Program Files (x86)\Microsoft Visual Studio\2019\Community\VC\Tools\MSVC\14.29.30133\atlmfc\include\afx.inl
;	COMDAT ??_GCDlgGraphMove@@UAEPAXI@Z
_TEXT	SEGMENT
___flags$ = 8						; size = 4
??_GCDlgGraphMove@@UAEPAXI@Z PROC			; CDlgGraphMove::`scalar deleting destructor', COMDAT
; _this$ = ecx
  00000	55		 push	 ebp
  00001	8b ec		 mov	 ebp, esp
  00003	56		 push	 esi
  00004	8b f1		 mov	 esi, ecx
  00006	8d 8e 28 01 00
	00		 lea	 ecx, DWORD PTR [esi+296]
  0000c	e8 00 00 00 00	 call	 ??1CComboBox@@UAE@XZ	; CComboBox::~CComboBox
  00011	8d 8e a8 00 00
	00		 lea	 ecx, DWORD PTR [esi+168]
  00017	e8 00 00 00 00	 call	 ??1CComboBox@@UAE@XZ	; CComboBox::~CComboBox
  0001c	8b ce		 mov	 ecx, esi
  0001e	e8 00 00 00 00	 call	 ??1CDialog@@UAE@XZ	; CDialog::~CDialog
  00023	8b 45 08	 mov	 eax, DWORD PTR ___flags$[ebp]
  00026	a8 01		 test	 al, 1
  00028	74 22		 je	 SHORT $LN12@scalar
  0002a	a8 04		 test	 al, 4
  0002c	75 10		 jne	 SHORT $LN3@scalar

; 112  : 	{ ::operator delete(p); }

  0002e	56		 push	 esi
  0002f	e8 00 00 00 00	 call	 ??3@YAXPAX@Z		; operator delete
  00034	83 c4 04	 add	 esp, 4
  00037	8b c6		 mov	 eax, esi
  00039	5e		 pop	 esi
  0003a	5d		 pop	 ebp
  0003b	c2 04 00	 ret	 4
$LN3@scalar:
  0003e	68 c8 01 00 00	 push	 456			; 000001c8H
  00043	56		 push	 esi
  00044	e8 00 00 00 00	 call	 ?__global_delete@@YAXPAXI@Z ; __global_delete
  00049	83 c4 08	 add	 esp, 8
$LN12@scalar:
  0004c	8b c6		 mov	 eax, esi
  0004e	5e		 pop	 esi
  0004f	5d		 pop	 ebp
  00050	c2 04 00	 ret	 4
??_GCDlgGraphMove@@UAEPAXI@Z ENDP			; CDlgGraphMove::`scalar deleting destructor'
_TEXT	ENDS
; Function compile flags: /Ogtp
; File D:\git\src\IBK\IBK_DRFN\ProjSrc\SrcChartEx\ChartOCX\ChartObject\DlgGraphMove.cpp
; File C:\Program Files (x86)\Microsoft Visual Studio\2019\Community\VC\Tools\MSVC\14.29.30133\atlmfc\include\atlsimpstr.h
; File D:\git\src\IBK\IBK_DRFN\ProjSrc\SrcChartEx\ChartOCX\Include_Chart\Dll_Load\IMetaTable.h
; File D:\git\src\IBK\IBK_DRFN\ProjSrc\SrcChartEx\ChartOCX\ChartObject\DlgGraphMove.cpp
; File D:\git\src\IBK\IBK_DRFN\ProjSrc\SrcChartEx\ChartOCX\Include_Chart\Dll_Load\IMetaTable.h
; File D:\git\src\IBK\IBK_DRFN\ProjSrc\SrcChartEx\ChartOCX\ChartObject\DlgGraphMove.cpp
;	COMDAT ?IsStyledGraph@CDlgGraphMove@@IAEHXZ
_TEXT	SEGMENT
$T2 = -16						; size = 4
__$EHRec$ = -12						; size = 12
?IsStyledGraph@CDlgGraphMove@@IAEHXZ PROC		; CDlgGraphMove::IsStyledGraph, COMDAT
; _this$ = ecx

; 264  : {

  00000	55		 push	 ebp
  00001	8b ec		 mov	 ebp, esp
  00003	6a ff		 push	 -1
  00005	68 00 00 00 00	 push	 __ehhandler$?IsStyledGraph@CDlgGraphMove@@IAEHXZ
  0000a	64 a1 00 00 00
	00		 mov	 eax, DWORD PTR fs:0
  00010	50		 push	 eax
  00011	51		 push	 ecx
  00012	53		 push	 ebx
  00013	56		 push	 esi
  00014	57		 push	 edi
  00015	a1 00 00 00 00	 mov	 eax, DWORD PTR ___security_cookie
  0001a	33 c5		 xor	 eax, ebp
  0001c	50		 push	 eax
  0001d	8d 45 f4	 lea	 eax, DWORD PTR __$EHRec$[ebp]
  00020	64 a3 00 00 00
	00		 mov	 DWORD PTR fs:0, eax
  00026	8b f9		 mov	 edi, ecx

; 265  : 	if( m_pSourceGraph)

  00028	8b 8f b8 01 00
	00		 mov	 ecx, DWORD PTR [edi+440]
  0002e	85 c9		 test	 ecx, ecx
  00030	0f 84 b9 00 00
	00		 je	 $LN2@IsStyledGr

; 266  : 	{
; 267  : 		CIndicatorInfo* pInfo = m_pSourceGraph->GetIndicatorInfo();

  00036	e8 00 00 00 00	 call	 ?GetIndicatorInfo@CGraphImp@@QAEPAVCIndicatorInfo@@XZ ; CGraphImp::GetIndicatorInfo

; 268  : 		if(pInfo)

  0003b	85 c0		 test	 eax, eax
  0003d	0f 84 ac 00 00
	00		 je	 $LN2@IsStyledGr

; 270  : 			switch( g_iMetaTable.GetIndicatorID( pInfo->GetIndicatorName()))

  00043	8d 4d f0	 lea	 ecx, DWORD PTR $T2[ebp]
  00046	51		 push	 ecx
  00047	8b c8		 mov	 ecx, eax
  00049	ff 15 00 00 00
	00		 call	 DWORD PTR __imp_?GetIndicatorName@CIndicatorInfo@@QBE?AV?$CStringT@DV?$StrTraitMFC_DLL@DV?$ChTraitsCRT@D@ATL@@@@@ATL@@XZ
; File C:\Program Files (x86)\Microsoft Visual Studio\2019\Community\VC\Tools\MSVC\14.29.30133\atlmfc\include\atlsimpstr.h

; 377  : 		return( m_pszData );

  0004f	8b 30		 mov	 esi, DWORD PTR [eax]
; File D:\git\src\IBK\IBK_DRFN\ProjSrc\SrcChartEx\ChartOCX\Include_Chart\Dll_Load\IMetaTable.h

; 957  : 	DECLARE_FUNCTION1(	GetIndicatorID,					int, -1, const char *);

  00051	a1 04 00 00 00	 mov	 eax, DWORD PTR ?g_iMetaTable@@3VIMetaTable@@A+4
; File D:\git\src\IBK\IBK_DRFN\ProjSrc\SrcChartEx\ChartOCX\ChartObject\DlgGraphMove.cpp

; 270  : 			switch( g_iMetaTable.GetIndicatorID( pInfo->GetIndicatorName()))

  00056	c7 45 fc 00 00
	00 00		 mov	 DWORD PTR __$EHRec$[ebp+8], 0
; File D:\git\src\IBK\IBK_DRFN\ProjSrc\SrcChartEx\ChartOCX\Include_Chart\Dll_Load\IMetaTable.h

; 957  : 	DECLARE_FUNCTION1(	GetIndicatorID,					int, -1, const char *);

  0005d	85 c0		 test	 eax, eax
  0005f	74 45		 je	 SHORT $LN18@IsStyledGr
  00061	bb 80 0d 00 00	 mov	 ebx, 3456		; 00000d80H
  00066	66 3b 1d b0 00
	00 00		 cmp	 bx, WORD PTR ?g_iMetaTable@@3VIMetaTable@@A+176
  0006d	74 24		 je	 SHORT $LN21@IsStyledGr
  0006f	68 00 00 00 00	 push	 OFFSET ??_C@_0P@FOFNMHJI@GetIndicatorID@
  00074	50		 push	 eax
  00075	c7 05 ac 00 00
	00 00 00 00 00	 mov	 DWORD PTR ?g_iMetaTable@@3VIMetaTable@@A+172, 0
  0007f	ff 15 00 00 00
	00		 call	 DWORD PTR __imp__GetProcAddress@8
  00085	a3 ac 00 00 00	 mov	 DWORD PTR ?g_iMetaTable@@3VIMetaTable@@A+172, eax
  0008a	66 89 1d b0 00
	00 00		 mov	 WORD PTR ?g_iMetaTable@@3VIMetaTable@@A+176, bx
  00091	eb 05		 jmp	 SHORT $LN17@IsStyledGr
$LN21@IsStyledGr:
  00093	a1 ac 00 00 00	 mov	 eax, DWORD PTR ?g_iMetaTable@@3VIMetaTable@@A+172
$LN17@IsStyledGr:
  00098	85 c0		 test	 eax, eax
  0009a	74 0a		 je	 SHORT $LN18@IsStyledGr
  0009c	56		 push	 esi
  0009d	ff d0		 call	 eax
  0009f	83 c4 04	 add	 esp, 4
  000a2	8b f0		 mov	 esi, eax
  000a4	eb 03		 jmp	 SHORT $LN15@IsStyledGr
$LN18@IsStyledGr:
  000a6	83 ce ff	 or	 esi, -1
$LN15@IsStyledGr:
; File D:\git\src\IBK\IBK_DRFN\ProjSrc\SrcChartEx\ChartOCX\ChartObject\DlgGraphMove.cpp

; 270  : 			switch( g_iMetaTable.GetIndicatorID( pInfo->GetIndicatorName()))

  000a9	8d 4d f0	 lea	 ecx, DWORD PTR $T2[ebp]
  000ac	c7 45 fc ff ff
	ff ff		 mov	 DWORD PTR __$EHRec$[ebp+8], -1
  000b3	ff 15 00 00 00
	00		 call	 DWORD PTR __imp_??1?$CStringT@DV?$StrTraitMFC_DLL@DV?$ChTraitsCRT@D@ATL@@@@@ATL@@QAE@XZ
  000b9	83 fe 03	 cmp	 esi, 3
  000bc	77 31		 ja	 SHORT $LN2@IsStyledGr
  000be	ff 24 b5 00 00
	00 00		 jmp	 DWORD PTR $LN20@IsStyledGr[esi*4]
$LN6@IsStyledGr:

; 271  : 			{
; 272  : 			case IMetaTable::EDDC_VOLUMECHART:			
; 273  : // vntsorl:[0003431] [7111]      
; 274  : // 			case IMetaTable::EDDC_ST_VOLUMEMACHART:		if( CChartInfo::FX == m_pIChartCtrl->GetChartMode())
; 275  : 			case IMetaTable::EDDC_OCX_VOLUMEMACHART:	if( CChartInfo::FX == m_pIChartCtrl->GetChartMode())

  000c5	8b 8f bc 01 00
	00		 mov	 ecx, DWORD PTR [edi+444]
  000cb	8b 01		 mov	 eax, DWORD PTR [ecx]
  000cd	ff 90 0c 03 00
	00		 call	 DWORD PTR [eax+780]
  000d3	83 f8 02	 cmp	 eax, 2
  000d6	74 17		 je	 SHORT $LN2@IsStyledGr
$LN8@IsStyledGr:

; 276  : 															return FALSE;
; 277  : 			case IMetaTable::EDDC_PRICECHART:
; 278  : // 			case IMetaTable::EDDC_ST_PRICEMACHART:		return TRUE;
; 279  : 			case IMetaTable::EDDC_OCX_PRICEMACHART:		return TRUE;

  000d8	b8 01 00 00 00	 mov	 eax, 1

; 284  : }

  000dd	8b 4d f4	 mov	 ecx, DWORD PTR __$EHRec$[ebp]
  000e0	64 89 0d 00 00
	00 00		 mov	 DWORD PTR fs:0, ecx
  000e7	59		 pop	 ecx
  000e8	5f		 pop	 edi
  000e9	5e		 pop	 esi
  000ea	5b		 pop	 ebx
  000eb	8b e5		 mov	 esp, ebp
  000ed	5d		 pop	 ebp
  000ee	c3		 ret	 0
$LN2@IsStyledGr:

; 280  : 			}
; 281  : 		}
; 282  : 	}
; 283  : 	return FALSE;

  000ef	33 c0		 xor	 eax, eax

; 284  : }

  000f1	8b 4d f4	 mov	 ecx, DWORD PTR __$EHRec$[ebp]
  000f4	64 89 0d 00 00
	00 00		 mov	 DWORD PTR fs:0, ecx
  000fb	59		 pop	 ecx
  000fc	5f		 pop	 edi
  000fd	5e		 pop	 esi
  000fe	5b		 pop	 ebx
  000ff	8b e5		 mov	 esp, ebp
  00101	5d		 pop	 ebp
  00102	c3		 ret	 0
  00103	90		 npad	 1
$LN20@IsStyledGr:
  00104	00 00 00 00	 DD	 $LN8@IsStyledGr
  00108	00 00 00 00	 DD	 $LN8@IsStyledGr
  0010c	00 00 00 00	 DD	 $LN6@IsStyledGr
  00110	00 00 00 00	 DD	 $LN6@IsStyledGr
_TEXT	ENDS
;	COMDAT text$x
text$x	SEGMENT
__unwindfunclet$?IsStyledGraph@CDlgGraphMove@@IAEHXZ$0:
  00000	8d 4d f0	 lea	 ecx, DWORD PTR $T2[ebp]
  00003	ff 25 00 00 00
	00		 jmp	 DWORD PTR __imp_??1?$CStringT@DV?$StrTraitMFC_DLL@DV?$ChTraitsCRT@D@ATL@@@@@ATL@@QAE@XZ
  00009	cc		 int	 3
  0000a	cc		 int	 3
  0000b	cc		 int	 3
  0000c	cc		 int	 3
  0000d	cc		 int	 3
__ehhandler$?IsStyledGraph@CDlgGraphMove@@IAEHXZ:
  0000e	90		 npad	 1
  0000f	90		 npad	 1
  00010	8b 54 24 08	 mov	 edx, DWORD PTR [esp+8]
  00014	8d 42 0c	 lea	 eax, DWORD PTR [edx+12]
  00017	8b 4a ec	 mov	 ecx, DWORD PTR [edx-20]
  0001a	33 c8		 xor	 ecx, eax
  0001c	e8 00 00 00 00	 call	 @__security_check_cookie@4
  00021	b8 00 00 00 00	 mov	 eax, OFFSET __ehfuncinfo$?IsStyledGraph@CDlgGraphMove@@IAEHXZ
  00026	e9 00 00 00 00	 jmp	 ___CxxFrameHandler3
text$x	ENDS
?IsStyledGraph@CDlgGraphMove@@IAEHXZ ENDP		; CDlgGraphMove::IsStyledGraph
; Function compile flags: /Ogtp
; File D:\git\src\IBK\IBK_DRFN\ProjSrc\SrcChartEx\ChartOCX\ChartObject\DlgGraphMove.cpp
;	COMDAT ?GetCurrentVerticalScale@CDlgGraphMove@@ABE?AVCVerticalScale@@XZ
_TEXT	SEGMENT
$T2 = -112						; size = 96
$T3 = -16						; size = 4
__$EHRec$ = -12						; size = 12
___$ReturnUdt$ = 8					; size = 4
?GetCurrentVerticalScale@CDlgGraphMove@@ABE?AVCVerticalScale@@XZ PROC ; CDlgGraphMove::GetCurrentVerticalScale, COMDAT
; _this$ = ecx

; 177  : {

  00000	55		 push	 ebp
  00001	8b ec		 mov	 ebp, esp
  00003	6a ff		 push	 -1
  00005	68 00 00 00 00	 push	 __ehhandler$?GetCurrentVerticalScale@CDlgGraphMove@@ABE?AVCVerticalScale@@XZ
  0000a	64 a1 00 00 00
	00		 mov	 eax, DWORD PTR fs:0
  00010	50		 push	 eax
  00011	83 ec 64	 sub	 esp, 100		; 00000064H
  00014	56		 push	 esi
  00015	57		 push	 edi
  00016	a1 00 00 00 00	 mov	 eax, DWORD PTR ___security_cookie
  0001b	33 c5		 xor	 eax, ebp
  0001d	50		 push	 eax
  0001e	8d 45 f4	 lea	 eax, DWORD PTR __$EHRec$[ebp]
  00021	64 a3 00 00 00
	00		 mov	 DWORD PTR fs:0, eax
  00027	8b f9		 mov	 edi, ecx
  00029	c7 45 f0 00 00
	00 00		 mov	 DWORD PTR $T3[ebp], 0

; 173  : 	return m_pVertScaleGroupDataList->GetAt(nIndex).GetVertScale();

  00030	8d 45 90	 lea	 eax, DWORD PTR $T2[ebp]
  00033	ff b7 a8 01 00
	00		 push	 DWORD PTR [edi+424]
  00039	8b 8f b4 01 00
	00		 mov	 ecx, DWORD PTR [edi+436]
  0003f	50		 push	 eax

; 177  : {

  00040	c7 45 fc 00 00
	00 00		 mov	 DWORD PTR __$EHRec$[ebp+8], 0

; 173  : 	return m_pVertScaleGroupDataList->GetAt(nIndex).GetVertScale();

  00047	e8 00 00 00 00	 call	 ?GetAt@CVerticalScaleGroupDataList@@QBE?AVCVerticalScaleGroupData@@H@Z ; CVerticalScaleGroupDataList::GetAt
  0004c	8b c8		 mov	 ecx, eax
  0004e	c7 45 fc 01 00
	00 00		 mov	 DWORD PTR __$EHRec$[ebp+8], 1
  00055	e8 00 00 00 00	 call	 ?GetVertScale@CVerticalScaleGroupData@@QAEAAVCVerticalScale@@XZ ; CVerticalScaleGroupData::GetVertScale
  0005a	8b 75 08	 mov	 esi, DWORD PTR ___$ReturnUdt$[ebp]
  0005d	8b ce		 mov	 ecx, esi
  0005f	50		 push	 eax
  00060	ff 15 00 00 00
	00		 call	 DWORD PTR __imp_??0CVerticalScale@@QAE@ABV0@@Z
  00066	8d 4d e8	 lea	 ecx, DWORD PTR $T2[ebp+88]
  00069	ff 15 00 00 00
	00		 call	 DWORD PTR __imp_??1?$CStringT@DV?$StrTraitMFC_DLL@DV?$ChTraitsCRT@D@ATL@@@@@ATL@@QAE@XZ
  0006f	8d 4d 90	 lea	 ecx, DWORD PTR $T2[ebp]
  00072	ff 15 00 00 00
	00		 call	 DWORD PTR __imp_??1CVerticalScale@@QAE@XZ

; 178  : 	CVerticalScale vertScale = GetVerticalScale(m_nScaleGroup);
; 179  : 	vertScale.SetGridType((CScaleBaseData::SCALEGRIDTYPE) m_nScaleGrid);
; 180  : 	vertScale.SetVertScalePosition((CScaleBaseData::VERTSCALEPOSITION) m_nScalePosition);
; 181  : 	return vertScale;

  00078	ff b7 b0 01 00
	00		 push	 DWORD PTR [edi+432]
  0007e	8b ce		 mov	 ecx, esi
  00080	c7 45 fc 00 00
	00 00		 mov	 DWORD PTR __$EHRec$[ebp+8], 0
  00087	c7 45 f0 03 00
	00 00		 mov	 DWORD PTR $T3[ebp], 3
  0008e	ff 15 00 00 00
	00		 call	 DWORD PTR __imp_?SetGridType@CScale@@QAEXW4SCALEGRIDTYPE@CScaleBaseData@@@Z
  00094	ff b7 ac 01 00
	00		 push	 DWORD PTR [edi+428]
  0009a	8b ce		 mov	 ecx, esi
  0009c	ff 15 00 00 00
	00		 call	 DWORD PTR __imp_?SetVertScalePosition@CVerticalScale@@QAEXW4VERTSCALEPOSITION@CScaleBaseData@@@Z
  000a2	8b c6		 mov	 eax, esi

; 182  : }

  000a4	8b 4d f4	 mov	 ecx, DWORD PTR __$EHRec$[ebp]
  000a7	64 89 0d 00 00
	00 00		 mov	 DWORD PTR fs:0, ecx
  000ae	59		 pop	 ecx
  000af	5f		 pop	 edi
  000b0	5e		 pop	 esi
  000b1	8b e5		 mov	 esp, ebp
  000b3	5d		 pop	 ebp
  000b4	c2 04 00	 ret	 4
_TEXT	ENDS
;	COMDAT text$x
text$x	SEGMENT
__unwindfunclet$?GetCurrentVerticalScale@CDlgGraphMove@@ABE?AVCVerticalScale@@XZ$1:
  00000	8d 4d 90	 lea	 ecx, DWORD PTR $T2[ebp]
  00003	e9 00 00 00 00	 jmp	 ??1CVerticalScaleGroupData@@QAE@XZ
__unwindfunclet$?GetCurrentVerticalScale@CDlgGraphMove@@ABE?AVCVerticalScale@@XZ$0:
  00008	8b 45 f0	 mov	 eax, DWORD PTR $T3[ebp]
  0000b	83 e0 01	 and	 eax, 1
  0000e	0f 84 0d 00 00
	00		 je	 $LN4@GetCurrent
  00014	83 65 f0 fe	 and	 DWORD PTR $T3[ebp], -2	; fffffffeH
  00018	8b 4d 08	 mov	 ecx, DWORD PTR ___$ReturnUdt$[ebp]
  0001b	ff 25 00 00 00
	00		 jmp	 DWORD PTR __imp_??1CVerticalScale@@QAE@XZ
$LN4@GetCurrent:
  00021	c3		 ret	 0
  00022	cc		 int	 3
  00023	cc		 int	 3
  00024	cc		 int	 3
  00025	cc		 int	 3
  00026	cc		 int	 3
__ehhandler$?GetCurrentVerticalScale@CDlgGraphMove@@ABE?AVCVerticalScale@@XZ:
  00027	90		 npad	 1
  00028	90		 npad	 1
  00029	8b 54 24 08	 mov	 edx, DWORD PTR [esp+8]
  0002d	8d 42 0c	 lea	 eax, DWORD PTR [edx+12]
  00030	8b 4a 90	 mov	 ecx, DWORD PTR [edx-112]
  00033	33 c8		 xor	 ecx, eax
  00035	e8 00 00 00 00	 call	 @__security_check_cookie@4
  0003a	b8 00 00 00 00	 mov	 eax, OFFSET __ehfuncinfo$?GetCurrentVerticalScale@CDlgGraphMove@@ABE?AVCVerticalScale@@XZ
  0003f	e9 00 00 00 00	 jmp	 ___CxxFrameHandler3
text$x	ENDS
?GetCurrentVerticalScale@CDlgGraphMove@@ABE?AVCVerticalScale@@XZ ENDP ; CDlgGraphMove::GetCurrentVerticalScale
; Function compile flags: /Ogtp
; File D:\git\src\IBK\IBK_DRFN\ProjSrc\SrcChartEx\ChartOCX\ChartObject\DlgGraphMove.cpp
;	COMDAT ?GetVerticalScale@CDlgGraphMove@@ABE?AVCVerticalScale@@H@Z
_TEXT	SEGMENT
$T2 = -108						; size = 96
__$EHRec$ = -12						; size = 12
___$ReturnUdt$ = 8					; size = 4
_nIndex$ = 12						; size = 4
?GetVerticalScale@CDlgGraphMove@@ABE?AVCVerticalScale@@H@Z PROC ; CDlgGraphMove::GetVerticalScale, COMDAT
; _this$ = ecx

; 172  : {

  00000	55		 push	 ebp
  00001	8b ec		 mov	 ebp, esp
  00003	6a ff		 push	 -1
  00005	68 00 00 00 00	 push	 __ehhandler$?GetVerticalScale@CDlgGraphMove@@ABE?AVCVerticalScale@@H@Z
  0000a	64 a1 00 00 00
	00		 mov	 eax, DWORD PTR fs:0
  00010	50		 push	 eax
  00011	83 ec 60	 sub	 esp, 96			; 00000060H
  00014	a1 00 00 00 00	 mov	 eax, DWORD PTR ___security_cookie
  00019	33 c5		 xor	 eax, ebp
  0001b	50		 push	 eax
  0001c	8d 45 f4	 lea	 eax, DWORD PTR __$EHRec$[ebp]
  0001f	64 a3 00 00 00
	00		 mov	 DWORD PTR fs:0, eax

; 173  : 	return m_pVertScaleGroupDataList->GetAt(nIndex).GetVertScale();

  00025	ff 75 0c	 push	 DWORD PTR _nIndex$[ebp]
  00028	8b 89 b4 01 00
	00		 mov	 ecx, DWORD PTR [ecx+436]
  0002e	8d 45 94	 lea	 eax, DWORD PTR $T2[ebp]
  00031	50		 push	 eax
  00032	e8 00 00 00 00	 call	 ?GetAt@CVerticalScaleGroupDataList@@QBE?AVCVerticalScaleGroupData@@H@Z ; CVerticalScaleGroupDataList::GetAt
  00037	8b c8		 mov	 ecx, eax
  00039	c7 45 fc 00 00
	00 00		 mov	 DWORD PTR __$EHRec$[ebp+8], 0
  00040	e8 00 00 00 00	 call	 ?GetVertScale@CVerticalScaleGroupData@@QAEAAVCVerticalScale@@XZ ; CVerticalScaleGroupData::GetVertScale
  00045	8b 4d 08	 mov	 ecx, DWORD PTR ___$ReturnUdt$[ebp]
  00048	50		 push	 eax
  00049	ff 15 00 00 00
	00		 call	 DWORD PTR __imp_??0CVerticalScale@@QAE@ABV0@@Z
  0004f	8d 4d ec	 lea	 ecx, DWORD PTR $T2[ebp+88]
  00052	ff 15 00 00 00
	00		 call	 DWORD PTR __imp_??1?$CStringT@DV?$StrTraitMFC_DLL@DV?$ChTraitsCRT@D@ATL@@@@@ATL@@QAE@XZ
  00058	8d 4d 94	 lea	 ecx, DWORD PTR $T2[ebp]
  0005b	ff 15 00 00 00
	00		 call	 DWORD PTR __imp_??1CVerticalScale@@QAE@XZ
  00061	8b 45 08	 mov	 eax, DWORD PTR ___$ReturnUdt$[ebp]

; 174  : }

  00064	8b 4d f4	 mov	 ecx, DWORD PTR __$EHRec$[ebp]
  00067	64 89 0d 00 00
	00 00		 mov	 DWORD PTR fs:0, ecx
  0006e	59		 pop	 ecx
  0006f	8b e5		 mov	 esp, ebp
  00071	5d		 pop	 ebp
  00072	c2 08 00	 ret	 8
_TEXT	ENDS
;	COMDAT text$x
text$x	SEGMENT
__unwindfunclet$?GetVerticalScale@CDlgGraphMove@@ABE?AVCVerticalScale@@H@Z$0:
  00000	8d 4d 94	 lea	 ecx, DWORD PTR $T2[ebp]
  00003	e9 00 00 00 00	 jmp	 ??1CVerticalScaleGroupData@@QAE@XZ
  00008	cc		 int	 3
  00009	cc		 int	 3
  0000a	cc		 int	 3
  0000b	cc		 int	 3
  0000c	cc		 int	 3
__ehhandler$?GetVerticalScale@CDlgGraphMove@@ABE?AVCVerticalScale@@H@Z:
  0000d	90		 npad	 1
  0000e	90		 npad	 1
  0000f	8b 54 24 08	 mov	 edx, DWORD PTR [esp+8]
  00013	8d 42 0c	 lea	 eax, DWORD PTR [edx+12]
  00016	8b 4a 9c	 mov	 ecx, DWORD PTR [edx-100]
  00019	33 c8		 xor	 ecx, eax
  0001b	e8 00 00 00 00	 call	 @__security_check_cookie@4
  00020	b8 00 00 00 00	 mov	 eax, OFFSET __ehfuncinfo$?GetVerticalScale@CDlgGraphMove@@ABE?AVCVerticalScale@@H@Z
  00025	e9 00 00 00 00	 jmp	 ___CxxFrameHandler3
text$x	ENDS
?GetVerticalScale@CDlgGraphMove@@ABE?AVCVerticalScale@@H@Z ENDP ; CDlgGraphMove::GetVerticalScale
; Function compile flags: /Ogtp
; File D:\git\src\IBK\IBK_DRFN\ProjSrc\SrcChartEx\ChartOCX\ChartObject\DlgGraphMove.cpp
;	COMDAT ?SetScalePositionAndGrid@CDlgGraphMove@@AAEXABVCVerticalScale@@@Z
_TEXT	SEGMENT
_verticalScale$ = 8					; size = 4
?SetScalePositionAndGrid@CDlgGraphMove@@AAEXABVCVerticalScale@@@Z PROC ; CDlgGraphMove::SetScalePositionAndGrid, COMDAT
; _this$ = ecx

; 164  : {

  00000	55		 push	 ebp
  00001	8b ec		 mov	 ebp, esp
  00003	57		 push	 edi
  00004	8b f9		 mov	 edi, ecx

; 165  : 	m_nScalePosition = (int) verticalScale.GetVertScalePosition();

  00006	8b 4d 08	 mov	 ecx, DWORD PTR _verticalScale$[ebp]
  00009	ff 15 00 00 00
	00		 call	 DWORD PTR __imp_?GetVertScalePosition@CVerticalScale@@QBE?AW4VERTSCALEPOSITION@CScaleBaseData@@XZ

; 166  : 	m_nScaleGrid = (int) verticalScale.GetGridType();

  0000f	8b 4d 08	 mov	 ecx, DWORD PTR _verticalScale$[ebp]
  00012	89 87 ac 01 00
	00		 mov	 DWORD PTR [edi+428], eax
  00018	ff 15 00 00 00
	00		 call	 DWORD PTR __imp_?GetGridType@CScale@@QBE?AW4SCALEGRIDTYPE@CScaleBaseData@@XZ

; 167  : 	UpdateData(FALSE);

  0001e	6a 00		 push	 0
  00020	8b cf		 mov	 ecx, edi
  00022	89 87 b0 01 00
	00		 mov	 DWORD PTR [edi+432], eax
  00028	e8 00 00 00 00	 call	 ?UpdateData@CWnd@@QAEHH@Z ; CWnd::UpdateData
  0002d	5f		 pop	 edi

; 168  : }

  0002e	5d		 pop	 ebp
  0002f	c2 04 00	 ret	 4
?SetScalePositionAndGrid@CDlgGraphMove@@AAEXABVCVerticalScale@@@Z ENDP ; CDlgGraphMove::SetScalePositionAndGrid
_TEXT	ENDS
; Function compile flags: /Ogtp
; File D:\git\src\IBK\IBK_DRFN\ProjSrc\SrcChartEx\ChartOCX\ChartObject\DlgGraphMove.cpp
; File C:\Program Files (x86)\Microsoft Visual Studio\2019\Community\VC\Tools\MSVC\14.29.30133\atlmfc\include\afxwin2.inl
; File D:\git\src\IBK\IBK_DRFN\ProjSrc\SrcChartEx\ChartOCX\ChartObject\DlgGraphMove.cpp
;	COMDAT ?InitializeData@CDlgGraphMove@@AAEXXZ
_TEXT	SEGMENT
_vertScaleGroupData$2 = -112				; size = 96
$T3 = -16						; size = 4
__$EHRec$ = -12						; size = 12
?InitializeData@CDlgGraphMove@@AAEXXZ PROC		; CDlgGraphMove::InitializeData, COMDAT
; _this$ = ecx

; 153  : {

  00000	55		 push	 ebp
  00001	8b ec		 mov	 ebp, esp
  00003	6a ff		 push	 -1
  00005	68 00 00 00 00	 push	 __ehhandler$?InitializeData@CDlgGraphMove@@AAEXXZ
  0000a	64 a1 00 00 00
	00		 mov	 eax, DWORD PTR fs:0
  00010	50		 push	 eax
  00011	83 ec 64	 sub	 esp, 100		; 00000064H
  00014	53		 push	 ebx
  00015	56		 push	 esi
  00016	57		 push	 edi
  00017	a1 00 00 00 00	 mov	 eax, DWORD PTR ___security_cookie
  0001c	33 c5		 xor	 eax, ebp
  0001e	50		 push	 eax
  0001f	8d 45 f4	 lea	 eax, DWORD PTR __$EHRec$[ebp]
  00022	64 a3 00 00 00
	00		 mov	 DWORD PTR fs:0, eax
  00028	8b f1		 mov	 esi, ecx

; 154  : 	for(int nIndex = 0; nIndex < m_pVertScaleGroupDataList->GetCount(); nIndex++){

  0002a	8b 8e b4 01 00
	00		 mov	 ecx, DWORD PTR [esi+436]
  00030	33 db		 xor	 ebx, ebx
  00032	e8 00 00 00 00	 call	 ?GetCount@CVerticalScaleGroupDataList@@QBEHXZ ; CVerticalScaleGroupDataList::GetCount
  00037	85 c0		 test	 eax, eax
  00039	0f 8e a4 00 00
	00		 jle	 $LN3@Initialize
  0003f	90		 npad	 1
$LL4@Initialize:

; 155  : 		CVerticalScaleGroupData vertScaleGroupData = m_pVertScaleGroupDataList->GetAt(nIndex);

  00040	8b 8e b4 01 00
	00		 mov	 ecx, DWORD PTR [esi+436]
  00046	8d 45 90	 lea	 eax, DWORD PTR _vertScaleGroupData$2[ebp]
  00049	53		 push	 ebx
  0004a	50		 push	 eax
  0004b	e8 00 00 00 00	 call	 ?GetAt@CVerticalScaleGroupDataList@@QBE?AVCVerticalScaleGroupData@@H@Z ; CVerticalScaleGroupDataList::GetAt

; 156  : 		m_ctlScaleGroup.AddString(vertScaleGroupData.GetVertScaleTitle());

  00050	8d 45 f0	 lea	 eax, DWORD PTR $T3[ebp]
  00053	c7 45 fc 00 00
	00 00		 mov	 DWORD PTR __$EHRec$[ebp+8], 0
  0005a	50		 push	 eax
  0005b	8d 4d 90	 lea	 ecx, DWORD PTR _vertScaleGroupData$2[ebp]
  0005e	e8 00 00 00 00	 call	 ?GetVertScaleTitle@CVerticalScaleGroupData@@QBE?AV?$CStringT@DV?$StrTraitMFC_DLL@DV?$ChTraitsCRT@D@ATL@@@@@ATL@@XZ ; CVerticalScaleGroupData::GetVertScaleTitle
; File C:\Program Files (x86)\Microsoft Visual Studio\2019\Community\VC\Tools\MSVC\14.29.30133\atlmfc\include\afxwin2.inl

; 795  : 	{ ASSERT(::IsWindow(m_hWnd)); return (int)::SendMessage(m_hWnd, CB_ADDSTRING, 0, (LPARAM)lpszString); }

  00063	ff 30		 push	 DWORD PTR [eax]
  00065	6a 00		 push	 0
  00067	68 43 01 00 00	 push	 323			; 00000143H
  0006c	ff b6 48 01 00
	00		 push	 DWORD PTR [esi+328]
  00072	ff 15 00 00 00
	00		 call	 DWORD PTR __imp__SendMessageA@16
; File D:\git\src\IBK\IBK_DRFN\ProjSrc\SrcChartEx\ChartOCX\ChartObject\DlgGraphMove.cpp

; 156  : 		m_ctlScaleGroup.AddString(vertScaleGroupData.GetVertScaleTitle());

  00078	8d 4d f0	 lea	 ecx, DWORD PTR $T3[ebp]
  0007b	ff 15 00 00 00
	00		 call	 DWORD PTR __imp_??1?$CStringT@DV?$StrTraitMFC_DLL@DV?$ChTraitsCRT@D@ATL@@@@@ATL@@QAE@XZ

; 157  : 		m_nScaleGroup = nIndex;
; 158  : 		SetScalePositionAndGrid(vertScaleGroupData.GetVertScale());

  00081	8d 4d 90	 lea	 ecx, DWORD PTR _vertScaleGroupData$2[ebp]
  00084	89 9e a8 01 00
	00		 mov	 DWORD PTR [esi+424], ebx
  0008a	e8 00 00 00 00	 call	 ?GetVertScale@CVerticalScaleGroupData@@QAEAAVCVerticalScale@@XZ ; CVerticalScaleGroupData::GetVertScale
  0008f	8b f8		 mov	 edi, eax

; 165  : 	m_nScalePosition = (int) verticalScale.GetVertScalePosition();

  00091	8b cf		 mov	 ecx, edi
  00093	ff 15 00 00 00
	00		 call	 DWORD PTR __imp_?GetVertScalePosition@CVerticalScale@@QBE?AW4VERTSCALEPOSITION@CScaleBaseData@@XZ

; 166  : 	m_nScaleGrid = (int) verticalScale.GetGridType();

  00099	8b cf		 mov	 ecx, edi
  0009b	89 86 ac 01 00
	00		 mov	 DWORD PTR [esi+428], eax
  000a1	ff 15 00 00 00
	00		 call	 DWORD PTR __imp_?GetGridType@CScale@@QBE?AW4SCALEGRIDTYPE@CScaleBaseData@@XZ

; 167  : 	UpdateData(FALSE);

  000a7	6a 00		 push	 0
  000a9	8b ce		 mov	 ecx, esi
  000ab	89 86 b0 01 00
	00		 mov	 DWORD PTR [esi+432], eax
  000b1	e8 00 00 00 00	 call	 ?UpdateData@CWnd@@QAEHH@Z ; CWnd::UpdateData
  000b6	8d 4d e8	 lea	 ecx, DWORD PTR _vertScaleGroupData$2[ebp+88]

; 159  : 	}

  000b9	c7 45 fc ff ff
	ff ff		 mov	 DWORD PTR __$EHRec$[ebp+8], -1
  000c0	ff 15 00 00 00
	00		 call	 DWORD PTR __imp_??1?$CStringT@DV?$StrTraitMFC_DLL@DV?$ChTraitsCRT@D@ATL@@@@@ATL@@QAE@XZ
  000c6	8d 4d 90	 lea	 ecx, DWORD PTR _vertScaleGroupData$2[ebp]
  000c9	ff 15 00 00 00
	00		 call	 DWORD PTR __imp_??1CVerticalScale@@QAE@XZ
  000cf	8b 8e b4 01 00
	00		 mov	 ecx, DWORD PTR [esi+436]
  000d5	43		 inc	 ebx
  000d6	e8 00 00 00 00	 call	 ?GetCount@CVerticalScaleGroupDataList@@QBEHXZ ; CVerticalScaleGroupDataList::GetCount
  000db	3b d8		 cmp	 ebx, eax
  000dd	0f 8c 5d ff ff
	ff		 jl	 $LL4@Initialize
$LN3@Initialize:

; 160  : 	UpdateData(TRUE);

  000e3	6a 01		 push	 1
  000e5	8b ce		 mov	 ecx, esi
  000e7	e8 00 00 00 00	 call	 ?UpdateData@CWnd@@QAEHH@Z ; CWnd::UpdateData

; 161  : }

  000ec	8b 4d f4	 mov	 ecx, DWORD PTR __$EHRec$[ebp]
  000ef	64 89 0d 00 00
	00 00		 mov	 DWORD PTR fs:0, ecx
  000f6	59		 pop	 ecx
  000f7	5f		 pop	 edi
  000f8	5e		 pop	 esi
  000f9	5b		 pop	 ebx
  000fa	8b e5		 mov	 esp, ebp
  000fc	5d		 pop	 ebp
  000fd	c3		 ret	 0
_TEXT	ENDS
;	COMDAT text$x
text$x	SEGMENT
__unwindfunclet$?InitializeData@CDlgGraphMove@@AAEXXZ$0:
  00000	8d 4d 90	 lea	 ecx, DWORD PTR _vertScaleGroupData$2[ebp]
  00003	e9 00 00 00 00	 jmp	 ??1CVerticalScaleGroupData@@QAE@XZ
  00008	cc		 int	 3
  00009	cc		 int	 3
  0000a	cc		 int	 3
  0000b	cc		 int	 3
  0000c	cc		 int	 3
__ehhandler$?InitializeData@CDlgGraphMove@@AAEXXZ:
  0000d	90		 npad	 1
  0000e	90		 npad	 1
  0000f	8b 54 24 08	 mov	 edx, DWORD PTR [esp+8]
  00013	8d 42 0c	 lea	 eax, DWORD PTR [edx+12]
  00016	8b 4a 8c	 mov	 ecx, DWORD PTR [edx-116]
  00019	33 c8		 xor	 ecx, eax
  0001b	e8 00 00 00 00	 call	 @__security_check_cookie@4
  00020	b8 00 00 00 00	 mov	 eax, OFFSET __ehfuncinfo$?InitializeData@CDlgGraphMove@@AAEXXZ
  00025	e9 00 00 00 00	 jmp	 ___CxxFrameHandler3
text$x	ENDS
?InitializeData@CDlgGraphMove@@AAEXXZ ENDP		; CDlgGraphMove::InitializeData
; Function compile flags: /Ogtp
; File D:\git\src\IBK\IBK_DRFN\ProjSrc\SrcChartEx\ChartOCX\ChartObject\DlgGraphMove.cpp
;	COMDAT ?GetMovingGraphVertScaleData@CDlgGraphMove@@QBE?AVCMovingGraphVertScaleData@@XZ
_TEXT	SEGMENT
$T2 = -200						; size = 96
$T3 = -104						; size = 88
$T4 = -16						; size = 4
__$EHRec$ = -12						; size = 12
___$ReturnUdt$ = 8					; size = 4
?GetMovingGraphVertScaleData@CDlgGraphMove@@QBE?AVCMovingGraphVertScaleData@@XZ PROC ; CDlgGraphMove::GetMovingGraphVertScaleData, COMDAT
; _this$ = ecx

; 145  : {

  00000	55		 push	 ebp
  00001	8b ec		 mov	 ebp, esp
  00003	6a ff		 push	 -1
  00005	68 00 00 00 00	 push	 __ehhandler$?GetMovingGraphVertScaleData@CDlgGraphMove@@QBE?AVCMovingGraphVertScaleData@@XZ
  0000a	64 a1 00 00 00
	00		 mov	 eax, DWORD PTR fs:0
  00010	50		 push	 eax
  00011	81 ec bc 00 00
	00		 sub	 esp, 188		; 000000bcH
  00017	56		 push	 esi
  00018	a1 00 00 00 00	 mov	 eax, DWORD PTR ___security_cookie
  0001d	33 c5		 xor	 eax, ebp
  0001f	50		 push	 eax
  00020	8d 45 f4	 lea	 eax, DWORD PTR __$EHRec$[ebp]
  00023	64 a3 00 00 00
	00		 mov	 DWORD PTR fs:0, eax
  00029	8b f1		 mov	 esi, ecx
  0002b	c7 45 f0 00 00
	00 00		 mov	 DWORD PTR $T4[ebp], 0

; 173  : 	return m_pVertScaleGroupDataList->GetAt(nIndex).GetVertScale();

  00032	ff b6 a8 01 00
	00		 push	 DWORD PTR [esi+424]
  00038	8b 8e b4 01 00
	00		 mov	 ecx, DWORD PTR [esi+436]
  0003e	8d 85 38 ff ff
	ff		 lea	 eax, DWORD PTR $T2[ebp]
  00044	50		 push	 eax

; 146  : 	return CMovingGraphVertScaleData(m_nScaleGroup, GetCurrentVerticalScale());

  00045	c7 45 fc 00 00
	00 00		 mov	 DWORD PTR __$EHRec$[ebp+8], 0

; 173  : 	return m_pVertScaleGroupDataList->GetAt(nIndex).GetVertScale();

  0004c	e8 00 00 00 00	 call	 ?GetAt@CVerticalScaleGroupDataList@@QBE?AVCVerticalScaleGroupData@@H@Z ; CVerticalScaleGroupDataList::GetAt
  00051	8b c8		 mov	 ecx, eax
  00053	c6 45 fc 01	 mov	 BYTE PTR __$EHRec$[ebp+8], 1
  00057	e8 00 00 00 00	 call	 ?GetVertScale@CVerticalScaleGroupData@@QAEAAVCVerticalScale@@XZ ; CVerticalScaleGroupData::GetVertScale
  0005c	50		 push	 eax
  0005d	8d 4d 98	 lea	 ecx, DWORD PTR $T3[ebp]
  00060	ff 15 00 00 00
	00		 call	 DWORD PTR __imp_??0CVerticalScale@@QAE@ABV0@@Z
  00066	8d 4d 90	 lea	 ecx, DWORD PTR $T2[ebp+88]
  00069	c6 45 fc 00	 mov	 BYTE PTR __$EHRec$[ebp+8], 0
  0006d	ff 15 00 00 00
	00		 call	 DWORD PTR __imp_??1?$CStringT@DV?$StrTraitMFC_DLL@DV?$ChTraitsCRT@D@ATL@@@@@ATL@@QAE@XZ
  00073	8d 8d 38 ff ff
	ff		 lea	 ecx, DWORD PTR $T2[ebp]
  00079	ff 15 00 00 00
	00		 call	 DWORD PTR __imp_??1CVerticalScale@@QAE@XZ

; 179  : 	vertScale.SetGridType((CScaleBaseData::SCALEGRIDTYPE) m_nScaleGrid);

  0007f	ff b6 b0 01 00
	00		 push	 DWORD PTR [esi+432]
  00085	8d 4d 98	 lea	 ecx, DWORD PTR $T3[ebp]

; 180  : 	vertScale.SetVertScalePosition((CScaleBaseData::VERTSCALEPOSITION) m_nScalePosition);
; 181  : 	return vertScale;

  00088	c7 45 f0 06 00
	00 00		 mov	 DWORD PTR $T4[ebp], 6
  0008f	ff 15 00 00 00
	00		 call	 DWORD PTR __imp_?SetGridType@CScale@@QAEXW4SCALEGRIDTYPE@CScaleBaseData@@@Z
  00095	ff b6 ac 01 00
	00		 push	 DWORD PTR [esi+428]
  0009b	8d 4d 98	 lea	 ecx, DWORD PTR $T3[ebp]
  0009e	ff 15 00 00 00
	00		 call	 DWORD PTR __imp_?SetVertScalePosition@CVerticalScale@@QAEXW4VERTSCALEPOSITION@CScaleBaseData@@@Z

; 146  : 	return CMovingGraphVertScaleData(m_nScaleGroup, GetCurrentVerticalScale());

  000a4	8b 4d 08	 mov	 ecx, DWORD PTR ___$ReturnUdt$[ebp]
  000a7	8d 45 98	 lea	 eax, DWORD PTR $T3[ebp]
  000aa	50		 push	 eax
  000ab	ff b6 a8 01 00
	00		 push	 DWORD PTR [esi+424]
  000b1	e8 00 00 00 00	 call	 ??0CMovingGraphVertScaleData@@QAE@HABVCVerticalScale@@@Z ; CMovingGraphVertScaleData::CMovingGraphVertScaleData
  000b6	8d 4d 98	 lea	 ecx, DWORD PTR $T3[ebp]
  000b9	ff 15 00 00 00
	00		 call	 DWORD PTR __imp_??1CVerticalScale@@QAE@XZ
  000bf	8b 45 08	 mov	 eax, DWORD PTR ___$ReturnUdt$[ebp]

; 147  : }

  000c2	8b 4d f4	 mov	 ecx, DWORD PTR __$EHRec$[ebp]
  000c5	64 89 0d 00 00
	00 00		 mov	 DWORD PTR fs:0, ecx
  000cc	59		 pop	 ecx
  000cd	5e		 pop	 esi
  000ce	8b e5		 mov	 esp, ebp
  000d0	5d		 pop	 ebp
  000d1	c2 04 00	 ret	 4
_TEXT	ENDS
;	COMDAT text$x
text$x	SEGMENT
__unwindfunclet$?GetMovingGraphVertScaleData@CDlgGraphMove@@QBE?AVCMovingGraphVertScaleData@@XZ$2:
  00000	8b 45 f0	 mov	 eax, DWORD PTR $T4[ebp]
  00003	83 e0 02	 and	 eax, 2
  00006	0f 84 0d 00 00
	00		 je	 $LN9@GetMovingG
  0000c	83 65 f0 fd	 and	 DWORD PTR $T4[ebp], -3	; fffffffdH
  00010	8d 4d 98	 lea	 ecx, DWORD PTR $T3[ebp]
  00013	ff 25 00 00 00
	00		 jmp	 DWORD PTR __imp_??1CVerticalScale@@QAE@XZ
$LN9@GetMovingG:
  00019	c3		 ret	 0
__unwindfunclet$?GetMovingGraphVertScaleData@CDlgGraphMove@@QBE?AVCMovingGraphVertScaleData@@XZ$3:
  0001a	8d 8d 38 ff ff
	ff		 lea	 ecx, DWORD PTR $T2[ebp]
  00020	e9 00 00 00 00	 jmp	 ??1CVerticalScaleGroupData@@QAE@XZ
  00025	cc		 int	 3
  00026	cc		 int	 3
  00027	cc		 int	 3
  00028	cc		 int	 3
  00029	cc		 int	 3
__ehhandler$?GetMovingGraphVertScaleData@CDlgGraphMove@@QBE?AVCMovingGraphVertScaleData@@XZ:
  0002a	90		 npad	 1
  0002b	90		 npad	 1
  0002c	8b 54 24 08	 mov	 edx, DWORD PTR [esp+8]
  00030	8d 42 0c	 lea	 eax, DWORD PTR [edx+12]
  00033	8b 8a 3c ff ff
	ff		 mov	 ecx, DWORD PTR [edx-196]
  00039	33 c8		 xor	 ecx, eax
  0003b	e8 00 00 00 00	 call	 @__security_check_cookie@4
  00040	b8 00 00 00 00	 mov	 eax, OFFSET __ehfuncinfo$?GetMovingGraphVertScaleData@CDlgGraphMove@@QBE?AVCMovingGraphVertScaleData@@XZ
  00045	e9 00 00 00 00	 jmp	 ___CxxFrameHandler3
text$x	ENDS
?GetMovingGraphVertScaleData@CDlgGraphMove@@QBE?AVCMovingGraphVertScaleData@@XZ ENDP ; CDlgGraphMove::GetMovingGraphVertScaleData
; Function compile flags: /Ogtp
; File D:\git\src\IBK\IBK_DRFN\ProjSrc\SrcChartEx\ChartOCX\ChartObject\DlgGraphMove.cpp
;	COMDAT ?GetMessageMap@CDlgGraphMove@@MBEPBUAFX_MSGMAP@@XZ
_TEXT	SEGMENT
?GetMessageMap@CDlgGraphMove@@MBEPBUAFX_MSGMAP@@XZ PROC	; CDlgGraphMove::GetMessageMap, COMDAT
; _this$ = ecx

; 55   : BEGIN_MESSAGE_MAP(CDlgGraphMove, CDialog)

  00000	b8 00 00 00 00	 mov	 eax, OFFSET ?messageMap@?1??GetThisMessageMap@CDlgGraphMove@@KGPBUAFX_MSGMAP@@XZ@4U3@B
  00005	c3		 ret	 0
?GetMessageMap@CDlgGraphMove@@MBEPBUAFX_MSGMAP@@XZ ENDP	; CDlgGraphMove::GetMessageMap
_TEXT	ENDS
; Function compile flags: /Ogtp
; File D:\git\src\IBK\IBK_DRFN\ProjSrc\SrcChartEx\ChartOCX\ChartObject\DlgGraphMove.cpp
;	COMDAT ?GetThisMessageMap@CDlgGraphMove@@KGPBUAFX_MSGMAP@@XZ
_TEXT	SEGMENT
?GetThisMessageMap@CDlgGraphMove@@KGPBUAFX_MSGMAP@@XZ PROC ; CDlgGraphMove::GetThisMessageMap, COMDAT

; 56   : 	//{{AFX_MSG_MAP(CDlgGraphMove)
; 57   : 	ON_CBN_SELCHANGE(IDC_SCALEGROUP, OnSelchangeScalegroup)
; 58   : 	ON_WM_PAINT()
; 59   : 	ON_WM_DESTROY()
; 60   : 	ON_WM_CREATE()
; 61   : 	ON_CBN_SELCHANGE(IDC_STYLECOMBO, OnSelchangeStylecombo)
; 62   : 	//}}AFX_MSG_MAP
; 63   : END_MESSAGE_MAP()

  00000	b8 00 00 00 00	 mov	 eax, OFFSET ?messageMap@?1??GetThisMessageMap@CDlgGraphMove@@KGPBUAFX_MSGMAP@@XZ@4U3@B
  00005	c3		 ret	 0
?GetThisMessageMap@CDlgGraphMove@@KGPBUAFX_MSGMAP@@XZ ENDP ; CDlgGraphMove::GetThisMessageMap
_TEXT	ENDS
; Function compile flags: /Ogtp
; File D:\git\src\IBK\IBK_DRFN\ProjSrc\SrcChartEx\ChartOCX\ChartObject\DlgGraphMove.cpp
; File C:\Program Files (x86)\Microsoft Visual Studio\2019\Community\VC\Tools\MSVC\14.29.30133\atlmfc\include\afxwin2.inl
; File D:\git\src\IBK\IBK_DRFN\ProjSrc\SrcChartEx\ChartOCX\ChartObject\DlgGraphMove.cpp
;	COMDAT ?OnSelchangeStylecombo@CDlgGraphMove@@IAEXXZ
_TEXT	SEGMENT
?OnSelchangeStylecombo@CDlgGraphMove@@IAEXXZ PROC	; CDlgGraphMove::OnSelchangeStylecombo, COMDAT
; _this$ = ecx
; File C:\Program Files (x86)\Microsoft Visual Studio\2019\Community\VC\Tools\MSVC\14.29.30133\atlmfc\include\afxwin2.inl

; 116  : 	{ ASSERT(::IsWindow(m_hWnd)); ::InvalidateRect(m_hWnd, lpRect, bErase); }

  00000	6a 01		 push	 1
  00002	6a 00		 push	 0
  00004	ff 71 20	 push	 DWORD PTR [ecx+32]
  00007	ff 15 00 00 00
	00		 call	 DWORD PTR __imp__InvalidateRect@12
; File D:\git\src\IBK\IBK_DRFN\ProjSrc\SrcChartEx\ChartOCX\ChartObject\DlgGraphMove.cpp

; 260  : }

  0000d	c3		 ret	 0
?OnSelchangeStylecombo@CDlgGraphMove@@IAEXXZ ENDP	; CDlgGraphMove::OnSelchangeStylecombo
_TEXT	ENDS
; Function compile flags: /Ogtp
; File D:\git\src\IBK\IBK_DRFN\ProjSrc\SrcChartEx\ChartOCX\ChartObject\DlgGraphMove.cpp
; File C:\Program Files (x86)\Microsoft Visual Studio\2019\Community\VC\Tools\MSVC\14.29.30133\atlmfc\include\afxwin2.inl
; File D:\git\src\IBK\IBK_DRFN\ProjSrc\SrcChartEx\ChartOCX\ChartObject\DlgGraphMove.cpp
; File C:\Program Files (x86)\Microsoft Visual Studio\2019\Community\VC\Tools\MSVC\14.29.30133\atlmfc\include\afx.inl
; File D:\git\src\IBK\IBK_DRFN\ProjSrc\SrcChartEx\ChartOCX\ChartObject\DlgGraphMove.cpp
; File C:\Program Files (x86)\Microsoft Visual Studio\2019\Community\VC\Tools\MSVC\14.29.30133\atlmfc\include\afxwin1.inl
; File D:\git\src\IBK\IBK_DRFN\ProjSrc\SrcChartEx\ChartOCX\ChartObject\DlgGraphMove.cpp
; File D:\git\src\IBK\IBK_DRFN\ProjSrc\SrcChartEx\ChartOCX\Include_Chart\Dll_Load\IMetaTable.h
; File D:\git\src\IBK\IBK_DRFN\ProjSrc\SrcChartEx\ChartOCX\ChartObject\DlgGraphMove.cpp
; File D:\git\src\IBK\IBK_DRFN\ProjSrc\SrcChartEx\ChartOCX\Include_Chart\Dll_Load\IMetaTable.h
; File C:\Program Files (x86)\Microsoft Visual Studio\2019\Community\VC\Tools\MSVC\14.29.30133\atlmfc\include\afxwin1.inl
; File D:\git\src\IBK\IBK_DRFN\ProjSrc\SrcChartEx\ChartOCX\Include_Chart\Dll_Load\IMetaTable.h
; File C:\Program Files (x86)\Microsoft Visual Studio\2019\Community\VC\Tools\MSVC\14.29.30133\atlmfc\include\afxwin1.inl
; File D:\git\src\IBK\IBK_DRFN\ProjSrc\SrcChartEx\ChartOCX\ChartObject\DlgGraphMove.cpp
; File C:\Program Files (x86)\Microsoft Visual Studio\2019\Community\VC\Tools\MSVC\14.29.30133\atlmfc\include\atlsimpstr.h
; File C:\Program Files (x86)\Microsoft Visual Studio\2019\Community\VC\Tools\MSVC\14.29.30133\atlmfc\include\afxwin1.inl
; File D:\git\src\IBK\IBK_DRFN\ProjSrc\SrcChartEx\ChartOCX\ChartObject\DlgGraphMove.cpp
; File C:\Program Files (x86)\Microsoft Visual Studio\2019\Community\VC\Tools\MSVC\14.29.30133\atlmfc\include\afxwin1.inl
; File D:\git\src\IBK\IBK_DRFN\ProjSrc\SrcChartEx\ChartOCX\ChartObject\DlgGraphMove.cpp
; File D:\git\src\IBK\IBK_DRFN\ProjSrc\SrcChartEx\ChartOCX\Include_Chart\Dll_Load\IMetaTable.h
; File C:\Program Files (x86)\Microsoft Visual Studio\2019\Community\VC\Tools\MSVC\14.29.30133\atlmfc\include\afxwin1.inl
; File D:\git\src\IBK\IBK_DRFN\ProjSrc\SrcChartEx\ChartOCX\ChartObject\DlgGraphMove.cpp
;	COMDAT ?OnCreate@CDlgGraphMove@@IAEHPAUtagCREATESTRUCTA@@@Z
_TEXT	SEGMENT
___mlrs__$2 = -84					; size = 4
$T3 = -84						; size = 4
_strFont$4 = -80					; size = 4
_logFont$5 = -76					; size = 60
__$ArrayPad$ = -16					; size = 4
__$EHRec$ = -12						; size = 12
_lpCreateStruct$ = 8					; size = 4
?OnCreate@CDlgGraphMove@@IAEHPAUtagCREATESTRUCTA@@@Z PROC ; CDlgGraphMove::OnCreate, COMDAT
; _this$ = ecx

; 229  : {

  00000	55		 push	 ebp
  00001	8b ec		 mov	 ebp, esp
  00003	6a ff		 push	 -1
  00005	68 00 00 00 00	 push	 __ehhandler$?OnCreate@CDlgGraphMove@@IAEHPAUtagCREATESTRUCTA@@@Z
  0000a	64 a1 00 00 00
	00		 mov	 eax, DWORD PTR fs:0
  00010	50		 push	 eax
  00011	83 ec 48	 sub	 esp, 72			; 00000048H
  00014	a1 00 00 00 00	 mov	 eax, DWORD PTR ___security_cookie
  00019	33 c5		 xor	 eax, ebp
  0001b	89 45 f0	 mov	 DWORD PTR __$ArrayPad$[ebp], eax
  0001e	53		 push	 ebx
  0001f	56		 push	 esi
  00020	57		 push	 edi
  00021	50		 push	 eax
  00022	8d 45 f4	 lea	 eax, DWORD PTR __$EHRec$[ebp]
  00025	64 a3 00 00 00
	00		 mov	 DWORD PTR fs:0, eax
  0002b	8b f9		 mov	 edi, ecx
; File C:\Program Files (x86)\Microsoft Visual Studio\2019\Community\VC\Tools\MSVC\14.29.30133\atlmfc\include\afxwin2.inl

; 296  : 	{ return (int)Default(); }

  0002d	e8 00 00 00 00	 call	 ?Default@CWnd@@IAEJXZ	; CWnd::Default
; File D:\git\src\IBK\IBK_DRFN\ProjSrc\SrcChartEx\ChartOCX\ChartObject\DlgGraphMove.cpp

; 230  : 	if (CDialog::OnCreate(lpCreateStruct) == -1)

  00032	83 f8 ff	 cmp	 eax, -1
  00035	75 07		 jne	 SHORT $LN2@OnCreate

; 231  : 		return -1;

  00037	0b c0		 or	 eax, eax
  00039	e9 41 01 00 00	 jmp	 $LN1@OnCreate
$LN2@OnCreate:

; 232  : 	
; 233  : 	// TODO: Add your specialized creation code here
; 234  : 	// 3. Init Font
; 235  : 	if( !m_pTitleFont)

  0003e	83 bf c0 01 00
	00 00		 cmp	 DWORD PTR [edi+448], 0
  00045	0f 85 32 01 00
	00		 jne	 $LN35@OnCreate
; File C:\Program Files (x86)\Microsoft Visual Studio\2019\Community\VC\Tools\MSVC\14.29.30133\atlmfc\include\afx.inl

; 116  : 	{ return ::operator new(nSize); }

  0004b	6a 08		 push	 8
  0004d	e8 00 00 00 00	 call	 ??2@YAPAXI@Z		; operator new
  00052	83 c4 04	 add	 esp, 4
; File D:\git\src\IBK\IBK_DRFN\ProjSrc\SrcChartEx\ChartOCX\ChartObject\DlgGraphMove.cpp

; 237  : 		m_pTitleFont = new CFont();

  00055	89 45 ac	 mov	 DWORD PTR $T3[ebp], eax
  00058	85 c0		 test	 eax, eax
  0005a	74 0f		 je	 SHORT $LN5@OnCreate
; File C:\Program Files (x86)\Microsoft Visual Studio\2019\Community\VC\Tools\MSVC\14.29.30133\atlmfc\include\afxwin1.inl

; 70   : 	{ m_hObject = NULL; }

  0005c	c7 40 04 00 00
	00 00		 mov	 DWORD PTR [eax+4], 0

; 153  : 	{ }

  00063	c7 00 00 00 00
	00		 mov	 DWORD PTR [eax], OFFSET ??_7CFont@@6B@
; File D:\git\src\IBK\IBK_DRFN\ProjSrc\SrcChartEx\ChartOCX\ChartObject\DlgGraphMove.cpp

; 237  : 		m_pTitleFont = new CFont();

  00069	eb 02		 jmp	 SHORT $LN6@OnCreate
$LN5@OnCreate:
  0006b	33 c0		 xor	 eax, eax
$LN6@OnCreate:

; 238  : 
; 239  : 		LOGFONT	logFont;
; 240  : 		memset( &logFont, 0, sizeof(LOGFONT));       // zero out structure

  0006d	6a 3c		 push	 60			; 0000003cH
  0006f	89 87 c0 01 00
	00		 mov	 DWORD PTR [edi+448], eax
  00075	8d 45 b4	 lea	 eax, DWORD PTR _logFont$5[ebp]
  00078	6a 00		 push	 0
  0007a	50		 push	 eax
  0007b	e8 00 00 00 00	 call	 _memset

; 241  : 		logFont.lfHeight = 12;
; 242  : 		logFont.lfCharSet = DEFAULT_CHARSET;
; 243  : 
; 244  : 		_MHWND( m_pIChartCtrl->GetSafeHwnd());

  00080	8b 8f bc 01 00
	00		 mov	 ecx, DWORD PTR [edi+444]
  00086	83 c4 0c	 add	 esp, 12			; 0000000cH
  00089	c7 45 b4 0c 00
	00 00		 mov	 DWORD PTR _logFont$5[ebp], 12 ; 0000000cH
  00090	c6 45 cb 01	 mov	 BYTE PTR _logFont$5[ebp+23], 1
  00094	8b 01		 mov	 eax, DWORD PTR [ecx]
  00096	ff 90 9c 03 00
	00		 call	 DWORD PTR [eax+924]
  0009c	8b f0		 mov	 esi, eax

; 245  : 		ML_SET_LANGUAGE_RES();

  0009e	e8 00 00 00 00	 call	 ?AfxGetStaticModuleState@@YGPAVAFX_MODULE_STATE@@XZ ; AfxGetStaticModuleState
; File D:\git\src\IBK\IBK_DRFN\ProjSrc\SrcChartEx\ChartOCX\Include_Chart\Dll_Load\IMetaTable.h

; 936  : 	DECLARE_FUNCTION2(	LoadResourceDLL,				HMODULE, AfxGetStaticModuleState()->m_hCurrentInstanceHandle, HWND, HMODULE);

  000a3	8b 0d 04 00 00
	00		 mov	 ecx, DWORD PTR ?g_iMetaTable@@3VIMetaTable@@A+4
; File D:\git\src\IBK\IBK_DRFN\ProjSrc\SrcChartEx\ChartOCX\ChartObject\DlgGraphMove.cpp

; 245  : 		ML_SET_LANGUAGE_RES();

  000a9	8b 58 08	 mov	 ebx, DWORD PTR [eax+8]
; File D:\git\src\IBK\IBK_DRFN\ProjSrc\SrcChartEx\ChartOCX\Include_Chart\Dll_Load\IMetaTable.h

; 936  : 	DECLARE_FUNCTION2(	LoadResourceDLL,				HMODULE, AfxGetStaticModuleState()->m_hCurrentInstanceHandle, HWND, HMODULE);

  000ac	85 c9		 test	 ecx, ecx
  000ae	74 4b		 je	 SHORT $LN22@OnCreate
  000b0	b8 80 0d 00 00	 mov	 eax, 3456		; 00000d80H
  000b5	66 3b 05 94 00
	00 00		 cmp	 ax, WORD PTR ?g_iMetaTable@@3VIMetaTable@@A+148
  000bc	74 29		 je	 SHORT $LN42@OnCreate
  000be	68 00 00 00 00	 push	 OFFSET ??_C@_0BA@ENJOCHIO@LoadResourceDLL@
  000c3	51		 push	 ecx
  000c4	c7 05 90 00 00
	00 00 00 00 00	 mov	 DWORD PTR ?g_iMetaTable@@3VIMetaTable@@A+144, 0
  000ce	ff 15 00 00 00
	00		 call	 DWORD PTR __imp__GetProcAddress@8
  000d4	b9 80 0d 00 00	 mov	 ecx, 3456		; 00000d80H
  000d9	a3 90 00 00 00	 mov	 DWORD PTR ?g_iMetaTable@@3VIMetaTable@@A+144, eax
  000de	66 89 0d 94 00
	00 00		 mov	 WORD PTR ?g_iMetaTable@@3VIMetaTable@@A+148, cx
  000e5	eb 05		 jmp	 SHORT $LN21@OnCreate
$LN42@OnCreate:
  000e7	a1 90 00 00 00	 mov	 eax, DWORD PTR ?g_iMetaTable@@3VIMetaTable@@A+144
$LN21@OnCreate:
  000ec	85 c0		 test	 eax, eax
  000ee	74 0b		 je	 SHORT $LN22@OnCreate
  000f0	53		 push	 ebx
  000f1	56		 push	 esi
  000f2	ff d0		 call	 eax
  000f4	83 c4 08	 add	 esp, 8
  000f7	8b d8		 mov	 ebx, eax
  000f9	eb 08		 jmp	 SHORT $LN19@OnCreate
$LN22@OnCreate:
  000fb	e8 00 00 00 00	 call	 ?AfxGetStaticModuleState@@YGPAVAFX_MODULE_STATE@@XZ ; AfxGetStaticModuleState
  00100	8b 58 08	 mov	 ebx, DWORD PTR [eax+8]
$LN19@OnCreate:
; File C:\Program Files (x86)\Microsoft Visual Studio\2019\Community\VC\Tools\MSVC\14.29.30133\atlmfc\include\afxwin1.inl

; 25   : 		return afxCurrentResourceHandle; }

  00103	e8 00 00 00 00	 call	 ?AfxGetModuleState@@YGPAVAFX_MODULE_STATE@@XZ ; AfxGetModuleState
; File D:\git\src\IBK\IBK_DRFN\ProjSrc\SrcChartEx\ChartOCX\Include_Chart\Dll_Load\IMetaTable.h

; 1032 : 		m_hInstance = AfxGetResourceHandle();

  00108	8b 70 0c	 mov	 esi, DWORD PTR [eax+12]
  0010b	89 75 ac	 mov	 DWORD PTR ___mlrs__$2[ebp], esi
; File C:\Program Files (x86)\Microsoft Visual Studio\2019\Community\VC\Tools\MSVC\14.29.30133\atlmfc\include\afxwin1.inl

; 27   : 	{ ASSERT(hInstResource != NULL); afxCurrentResourceHandle = hInstResource; }

  0010e	e8 00 00 00 00	 call	 ?AfxGetModuleState@@YGPAVAFX_MODULE_STATE@@XZ ; AfxGetModuleState
  00113	89 58 0c	 mov	 DWORD PTR [eax+12], ebx
; File D:\git\src\IBK\IBK_DRFN\ProjSrc\SrcChartEx\ChartOCX\ChartObject\DlgGraphMove.cpp

; 246  : 		CString strFont;

  00116	8d 4d b0	 lea	 ecx, DWORD PTR _strFont$4[ebp]
  00119	c7 45 fc 00 00
	00 00		 mov	 DWORD PTR __$EHRec$[ebp+8], 0
  00120	ff 15 00 00 00
	00		 call	 DWORD PTR __imp_??0?$CStringT@DV?$StrTraitMFC_DLL@DV?$ChTraitsCRT@D@ATL@@@@@ATL@@QAE@XZ

; 247  : 		strFont.LoadString( IDS_STRING_FONT);

  00126	6a 12		 push	 18			; 00000012H
  00128	8d 4d b0	 lea	 ecx, DWORD PTR _strFont$4[ebp]
  0012b	c6 45 fc 01	 mov	 BYTE PTR __$EHRec$[ebp+8], 1
  0012f	ff 15 00 00 00
	00		 call	 DWORD PTR __imp_?LoadStringA@?$CStringT@DV?$StrTraitMFC_DLL@DV?$ChTraitsCRT@D@ATL@@@@@ATL@@QAEHI@Z
; File C:\Program Files (x86)\Microsoft Visual Studio\2019\Community\VC\Tools\MSVC\14.29.30133\atlmfc\include\atlsimpstr.h

; 377  : 		return( m_pszData );

  00135	8b 45 b0	 mov	 eax, DWORD PTR _strFont$4[ebp]
; File C:\Program Files (x86)\Microsoft Visual Studio\2019\Community\VC\Tools\MSVC\14.29.30133\atlmfc\include\afxwin1.inl

; 25   : 		return afxCurrentResourceHandle; }

  00138	8d 55 d0	 lea	 edx, DWORD PTR _logFont$5[ebp+28]
  0013b	2b d0		 sub	 edx, eax
  0013d	0f 1f 00	 npad	 3
$LL7@OnCreate:
; File D:\git\src\IBK\IBK_DRFN\ProjSrc\SrcChartEx\ChartOCX\ChartObject\DlgGraphMove.cpp

; 248  : 		strcpy(logFont.lfFaceName, strFont);

  00140	8a 08		 mov	 cl, BYTE PTR [eax]
  00142	8d 40 01	 lea	 eax, DWORD PTR [eax+1]
  00145	88 4c 02 ff	 mov	 BYTE PTR [edx+eax-1], cl
  00149	84 c9		 test	 cl, cl
  0014b	75 f3		 jne	 SHORT $LL7@OnCreate

; 249  : 
; 250  : 		m_pTitleFont->CreateFontIndirect( &logFont );

  0014d	8b bf c0 01 00
	00		 mov	 edi, DWORD PTR [edi+448]
; File C:\Program Files (x86)\Microsoft Visual Studio\2019\Community\VC\Tools\MSVC\14.29.30133\atlmfc\include\afxwin1.inl

; 157  : 	{ return Attach(::CreateFontIndirect(lpLogFont)); }

  00153	8d 45 b4	 lea	 eax, DWORD PTR _logFont$5[ebp]
  00156	50		 push	 eax
  00157	ff 15 00 00 00
	00		 call	 DWORD PTR __imp__CreateFontIndirectA@4
  0015d	50		 push	 eax
  0015e	8b cf		 mov	 ecx, edi
  00160	e8 00 00 00 00	 call	 ?Attach@CGdiObject@@QAEHPAX@Z ; CGdiObject::Attach
; File D:\git\src\IBK\IBK_DRFN\ProjSrc\SrcChartEx\ChartOCX\ChartObject\DlgGraphMove.cpp

; 251  : 	}

  00165	8d 4d b0	 lea	 ecx, DWORD PTR _strFont$4[ebp]
  00168	ff 15 00 00 00
	00		 call	 DWORD PTR __imp_??1?$CStringT@DV?$StrTraitMFC_DLL@DV?$ChTraitsCRT@D@ATL@@@@@ATL@@QAE@XZ
; File D:\git\src\IBK\IBK_DRFN\ProjSrc\SrcChartEx\ChartOCX\Include_Chart\Dll_Load\IMetaTable.h

; 1036 : 	{

  0016e	c7 45 fc 02 00
	00 00		 mov	 DWORD PTR __$EHRec$[ebp+8], 2
; File C:\Program Files (x86)\Microsoft Visual Studio\2019\Community\VC\Tools\MSVC\14.29.30133\atlmfc\include\afxwin1.inl

; 27   : 	{ ASSERT(hInstResource != NULL); afxCurrentResourceHandle = hInstResource; }

  00175	e8 00 00 00 00	 call	 ?AfxGetModuleState@@YGPAVAFX_MODULE_STATE@@XZ ; AfxGetModuleState
  0017a	89 70 0c	 mov	 DWORD PTR [eax+12], esi
$LN35@OnCreate:
; File D:\git\src\IBK\IBK_DRFN\ProjSrc\SrcChartEx\ChartOCX\ChartObject\DlgGraphMove.cpp

; 253  : 	return 0;

  0017d	33 c0		 xor	 eax, eax
$LN1@OnCreate:

; 254  : }

  0017f	8b 4d f4	 mov	 ecx, DWORD PTR __$EHRec$[ebp]
  00182	64 89 0d 00 00
	00 00		 mov	 DWORD PTR fs:0, ecx
  00189	59		 pop	 ecx
  0018a	5f		 pop	 edi
  0018b	5e		 pop	 esi
  0018c	5b		 pop	 ebx
  0018d	8b 4d f0	 mov	 ecx, DWORD PTR __$ArrayPad$[ebp]
  00190	33 cd		 xor	 ecx, ebp
  00192	e8 00 00 00 00	 call	 @__security_check_cookie@4
  00197	8b e5		 mov	 esp, ebp
  00199	5d		 pop	 ebp
  0019a	c2 04 00	 ret	 4
_TEXT	ENDS
;	COMDAT text$x
text$x	SEGMENT
__unwindfunclet$?OnCreate@CDlgGraphMove@@IAEHPAUtagCREATESTRUCTA@@@Z$1:
  00000	8d 4d ac	 lea	 ecx, DWORD PTR ___mlrs__$2[ebp]
  00003	e9 00 00 00 00	 jmp	 ??1CMultiLanguageResourceSetter@@QAE@XZ ; CMultiLanguageResourceSetter::~CMultiLanguageResourceSetter
__unwindfunclet$?OnCreate@CDlgGraphMove@@IAEHPAUtagCREATESTRUCTA@@@Z$2:
  00008	8d 4d b0	 lea	 ecx, DWORD PTR _strFont$4[ebp]
  0000b	ff 25 00 00 00
	00		 jmp	 DWORD PTR __imp_??1?$CStringT@DV?$StrTraitMFC_DLL@DV?$ChTraitsCRT@D@ATL@@@@@ATL@@QAE@XZ
  00011	cc		 int	 3
  00012	cc		 int	 3
  00013	cc		 int	 3
  00014	cc		 int	 3
  00015	cc		 int	 3
__ehhandler$?OnCreate@CDlgGraphMove@@IAEHPAUtagCREATESTRUCTA@@@Z:
  00016	90		 npad	 1
  00017	90		 npad	 1
  00018	8b 54 24 08	 mov	 edx, DWORD PTR [esp+8]
  0001c	8d 42 0c	 lea	 eax, DWORD PTR [edx+12]
  0001f	8b 4a a8	 mov	 ecx, DWORD PTR [edx-88]
  00022	33 c8		 xor	 ecx, eax
  00024	e8 00 00 00 00	 call	 @__security_check_cookie@4
  00029	8b 4a fc	 mov	 ecx, DWORD PTR [edx-4]
  0002c	33 c8		 xor	 ecx, eax
  0002e	e8 00 00 00 00	 call	 @__security_check_cookie@4
  00033	b8 00 00 00 00	 mov	 eax, OFFSET __ehfuncinfo$?OnCreate@CDlgGraphMove@@IAEHPAUtagCREATESTRUCTA@@@Z
  00038	e9 00 00 00 00	 jmp	 ___CxxFrameHandler3
text$x	ENDS
?OnCreate@CDlgGraphMove@@IAEHPAUtagCREATESTRUCTA@@@Z ENDP ; CDlgGraphMove::OnCreate
; Function compile flags: /Ogtp
; File D:\git\src\IBK\IBK_DRFN\ProjSrc\SrcChartEx\ChartOCX\ChartObject\DlgGraphMove.cpp
;	COMDAT ?OnDestroy@CDlgGraphMove@@IAEXXZ
_TEXT	SEGMENT
?OnDestroy@CDlgGraphMove@@IAEXXZ PROC			; CDlgGraphMove::OnDestroy, COMDAT
; _this$ = ecx

; 216  : {

  00000	56		 push	 esi
  00001	8b f1		 mov	 esi, ecx

; 217  : 	CDialog::OnDestroy();

  00003	e8 00 00 00 00	 call	 ?OnDestroy@CWnd@@IAEXXZ	; CWnd::OnDestroy

; 218  : 	
; 219  : 	// TODO: Add your message handler code here
; 220  : 	if(m_pTitleFont != NULL)

  00008	8b 8e c0 01 00
	00		 mov	 ecx, DWORD PTR [esi+448]
  0000e	85 c9		 test	 ecx, ecx
  00010	74 20		 je	 SHORT $LN2@OnDestroy

; 221  : 	{
; 222  : 		m_pTitleFont->DeleteObject();

  00012	e8 00 00 00 00	 call	 ?DeleteObject@CGdiObject@@QAEHXZ ; CGdiObject::DeleteObject

; 223  : 		delete m_pTitleFont;

  00017	8b 8e c0 01 00
	00		 mov	 ecx, DWORD PTR [esi+448]
  0001d	85 c9		 test	 ecx, ecx
  0001f	74 07		 je	 SHORT $LN4@OnDestroy
  00021	8b 01		 mov	 eax, DWORD PTR [ecx]
  00023	6a 01		 push	 1
  00025	ff 50 04	 call	 DWORD PTR [eax+4]
$LN4@OnDestroy:

; 224  : 		m_pTitleFont = NULL;

  00028	c7 86 c0 01 00
	00 00 00 00 00	 mov	 DWORD PTR [esi+448], 0
$LN2@OnDestroy:
  00032	5e		 pop	 esi

; 225  : 	}
; 226  : }

  00033	c3		 ret	 0
?OnDestroy@CDlgGraphMove@@IAEXXZ ENDP			; CDlgGraphMove::OnDestroy
_TEXT	ENDS
; Function compile flags: /Ogtp
; File D:\git\src\IBK\IBK_DRFN\ProjSrc\SrcChartEx\ChartOCX\ChartObject\DlgGraphMove.cpp
; File C:\Program Files (x86)\Microsoft Visual Studio\2019\Community\VC\Tools\MSVC\14.29.30133\atlmfc\include\atltypes.h
; File D:\git\src\IBK\IBK_DRFN\ProjSrc\SrcChartEx\ChartOCX\ChartObject\DlgGraphMove.cpp
; File C:\Program Files (x86)\Microsoft Visual Studio\2019\Community\VC\Tools\MSVC\14.29.30133\atlmfc\include\atltypes.h
; File D:\git\src\IBK\IBK_DRFN\ProjSrc\SrcChartEx\ChartOCX\ChartObject\DlgGraphMove.cpp
; File C:\Program Files (x86)\Microsoft Visual Studio\2019\Community\VC\Tools\MSVC\14.29.30133\atlmfc\include\afxwin2.inl
; File D:\git\src\IBK\IBK_DRFN\ProjSrc\SrcChartEx\ChartOCX\ChartObject\DlgGraphMove.cpp
; File C:\Program Files (x86)\Microsoft Visual Studio\2019\Community\VC\Tools\MSVC\14.29.30133\atlmfc\include\atltypes.h
; File D:\git\src\IBK\IBK_DRFN\ProjSrc\SrcChartEx\ChartOCX\ChartObject\DlgGraphMove.cpp
; File C:\Program Files (x86)\Microsoft Visual Studio\2019\Community\VC\Tools\MSVC\14.29.30133\atlmfc\include\atltypes.h
; File D:\git\src\IBK\IBK_DRFN\ProjSrc\SrcChartEx\ChartOCX\ChartObject\DlgGraphMove.cpp
; File C:\Program Files (x86)\Microsoft Visual Studio\2019\Community\VC\Tools\MSVC\14.29.30133\atlmfc\include\afxwin2.inl
; File D:\git\src\IBK\IBK_DRFN\ProjSrc\SrcChartEx\ChartOCX\ChartObject\DlgGraphMove.cpp
; File C:\Program Files (x86)\Microsoft Visual Studio\2019\Community\VC\Tools\MSVC\14.29.30133\atlmfc\include\afxwin1.inl
; File D:\git\src\IBK\IBK_DRFN\ProjSrc\SrcChartEx\ChartOCX\ChartObject\DlgGraphMove.cpp
;	COMDAT ?OnPaint@CDlgGraphMove@@IAEXXZ
_TEXT	SEGMENT
_dc$ = -116						; size = 84
_rect$ = -32						; size = 16
__$ArrayPad$ = -16					; size = 4
__$EHRec$ = -12						; size = 12
?OnPaint@CDlgGraphMove@@IAEXXZ PROC			; CDlgGraphMove::OnPaint, COMDAT
; _this$ = ecx

; 186  : {

  00000	55		 push	 ebp
  00001	8b ec		 mov	 ebp, esp
  00003	6a ff		 push	 -1
  00005	68 00 00 00 00	 push	 __ehhandler$?OnPaint@CDlgGraphMove@@IAEXXZ
  0000a	64 a1 00 00 00
	00		 mov	 eax, DWORD PTR fs:0
  00010	50		 push	 eax
  00011	83 ec 68	 sub	 esp, 104		; 00000068H
  00014	a1 00 00 00 00	 mov	 eax, DWORD PTR ___security_cookie
  00019	33 c5		 xor	 eax, ebp
  0001b	89 45 f0	 mov	 DWORD PTR __$ArrayPad$[ebp], eax
  0001e	56		 push	 esi
  0001f	57		 push	 edi
  00020	50		 push	 eax
  00021	8d 45 f4	 lea	 eax, DWORD PTR __$EHRec$[ebp]
  00024	64 a3 00 00 00
	00		 mov	 DWORD PTR fs:0, eax
  0002a	8b f1		 mov	 esi, ecx

; 187  : 	CPaintDC dc(this); // device context for painting

  0002c	56		 push	 esi
  0002d	8d 4d 8c	 lea	 ecx, DWORD PTR _dc$[ebp]
  00030	e8 00 00 00 00	 call	 ??0CPaintDC@@QAE@PAVCWnd@@@Z ; CPaintDC::CPaintDC
; File C:\Program Files (x86)\Microsoft Visual Studio\2019\Community\VC\Tools\MSVC\14.29.30133\atlmfc\include\atltypes.h

; 540  : 	left = l;

  00035	0f 28 05 00 00
	00 00		 movaps	 xmm0, XMMWORD PTR __xmm@0000010d000000b00000000b0000000a
; File D:\git\src\IBK\IBK_DRFN\ProjSrc\SrcChartEx\ChartOCX\ChartObject\DlgGraphMove.cpp

; 194  : 	CButton *pButton = ( CButton * )GetDlgItem( IDC_DRAW_STATIC);

  0003c	8b ce		 mov	 ecx, esi
  0003e	68 8e 1b 00 00	 push	 7054			; 00001b8eH
  00043	c7 45 fc 00 00
	00 00		 mov	 DWORD PTR __$EHRec$[ebp+8], 0
; File C:\Program Files (x86)\Microsoft Visual Studio\2019\Community\VC\Tools\MSVC\14.29.30133\atlmfc\include\atltypes.h

; 540  : 	left = l;

  0004a	0f 11 45 e0	 movups	 XMMWORD PTR _rect$[ebp], xmm0
; File D:\git\src\IBK\IBK_DRFN\ProjSrc\SrcChartEx\ChartOCX\ChartObject\DlgGraphMove.cpp

; 194  : 	CButton *pButton = ( CButton * )GetDlgItem( IDC_DRAW_STATIC);

  0004e	e8 00 00 00 00	 call	 ?GetDlgItem@CWnd@@QBEPAV1@H@Z ; CWnd::GetDlgItem

; 195  : 	if( !pButton) return;

  00053	85 c0		 test	 eax, eax
  00055	0f 84 97 00 00
	00		 je	 $LN3@OnPaint
; File C:\Program Files (x86)\Microsoft Visual Studio\2019\Community\VC\Tools\MSVC\14.29.30133\atlmfc\include\afxwin2.inl

; 84   : 	{ ASSERT(::IsWindow(m_hWnd)); ::GetWindowRect(m_hWnd, lpRect); }

  0005b	8d 4d e0	 lea	 ecx, DWORD PTR _rect$[ebp]
  0005e	51		 push	 ecx
  0005f	ff 70 20	 push	 DWORD PTR [eax+32]
  00062	ff 15 00 00 00
	00		 call	 DWORD PTR __imp__GetWindowRect@8
; File D:\git\src\IBK\IBK_DRFN\ProjSrc\SrcChartEx\ChartOCX\ChartObject\DlgGraphMove.cpp

; 199  : 	ScreenToClient(rect);

  00068	8d 45 e0	 lea	 eax, DWORD PTR _rect$[ebp]
  0006b	8b ce		 mov	 ecx, esi
  0006d	50		 push	 eax
  0006e	e8 00 00 00 00	 call	 ?ScreenToClient@CWnd@@QBEXPAUtagRECT@@@Z ; CWnd::ScreenToClient
; File C:\Program Files (x86)\Microsoft Visual Studio\2019\Community\VC\Tools\MSVC\14.29.30133\atlmfc\include\atltypes.h

; 710  : 	::OffsetRect(this, x, y);

  00073	6a 05		 push	 5
  00075	6a 05		 push	 5
  00077	8d 45 e0	 lea	 eax, DWORD PTR _rect$[ebp]
  0007a	50		 push	 eax
  0007b	ff 15 00 00 00
	00		 call	 DWORD PTR __imp__OffsetRect@12

; 933  : 	top += t;

  00081	83 45 e4 07	 add	 DWORD PTR _rect$[ebp+4], 7
; File D:\git\src\IBK\IBK_DRFN\ProjSrc\SrcChartEx\ChartOCX\ChartObject\DlgGraphMove.cpp

; 204  : 	dc.SetMapMode( MM_TEXT);

  00085	8d 4d 8c	 lea	 ecx, DWORD PTR _dc$[ebp]
; File C:\Program Files (x86)\Microsoft Visual Studio\2019\Community\VC\Tools\MSVC\14.29.30133\atlmfc\include\atltypes.h

; 934  : 	right -= r;

  00088	83 6d e8 0a	 sub	 DWORD PTR _rect$[ebp+8], 10 ; 0000000aH

; 935  : 	bottom -= b;

  0008c	83 6d ec 0c	 sub	 DWORD PTR _rect$[ebp+12], 12 ; 0000000cH
; File D:\git\src\IBK\IBK_DRFN\ProjSrc\SrcChartEx\ChartOCX\ChartObject\DlgGraphMove.cpp

; 204  : 	dc.SetMapMode( MM_TEXT);

  00090	6a 01		 push	 1
  00092	e8 00 00 00 00	 call	 ?SetMapMode@CDC@@UAEHH@Z ; CDC::SetMapMode

; 205  : 	IStyleManager *pIStyleManager = ( IStyleManager *)m_pIChartCtrl->GetAddInCustomInterface( "ChartEnvSetupDlgAddIn.dll:STYLE_DATA");

  00097	8b 8e bc 01 00
	00		 mov	 ecx, DWORD PTR [esi+444]
  0009d	68 00 00 00 00	 push	 OFFSET ??_C@_0CF@HPNEOBPG@ChartEnvSetupDlgAddIn?4dll?3STYLE@
  000a2	8b 01		 mov	 eax, DWORD PTR [ecx]
  000a4	ff 90 38 04 00
	00		 call	 DWORD PTR [eax+1080]
  000aa	8b f8		 mov	 edi, eax

; 206  : 	if( pIStyleManager)

  000ac	85 ff		 test	 edi, edi
  000ae	74 42		 je	 SHORT $LN3@OnPaint
; File C:\Program Files (x86)\Microsoft Visual Studio\2019\Community\VC\Tools\MSVC\14.29.30133\atlmfc\include\afxwin2.inl

; 765  : 	{ ASSERT(::IsWindow(m_hWnd)); return (int)::SendMessage(m_hWnd, CB_GETCURSEL, 0, 0); }

  000b0	6a 00		 push	 0
  000b2	6a 00		 push	 0
  000b4	68 47 01 00 00	 push	 327			; 00000147H
  000b9	ff b6 c8 00 00
	00		 push	 DWORD PTR [esi+200]
  000bf	ff 15 00 00 00
	00		 call	 DWORD PTR __imp__SendMessageA@16
; File D:\git\src\IBK\IBK_DRFN\ProjSrc\SrcChartEx\ChartOCX\ChartObject\DlgGraphMove.cpp

; 210  : 		pIStyleManager->DrawSampleImage( dc.GetSafeHdc(), rect.left, rect.top, rect.right, rect.bottom, nStyleIndex, m_pTitleFont->GetSafeHandle());

  000c5	8b 8e c0 01 00
	00		 mov	 ecx, DWORD PTR [esi+448]
  000cb	8b d0		 mov	 edx, eax
; File C:\Program Files (x86)\Microsoft Visual Studio\2019\Community\VC\Tools\MSVC\14.29.30133\atlmfc\include\afxwin1.inl

; 68   : 	{ return this == NULL ? NULL : m_hObject; }

  000cd	85 c9		 test	 ecx, ecx
  000cf	74 03		 je	 SHORT $LN20@OnPaint
$LN19@OnPaint:
  000d1	8b 49 04	 mov	 ecx, DWORD PTR [ecx+4]
$LN20@OnPaint:
; File D:\git\src\IBK\IBK_DRFN\ProjSrc\SrcChartEx\ChartOCX\ChartObject\DlgGraphMove.cpp

; 210  : 		pIStyleManager->DrawSampleImage( dc.GetSafeHdc(), rect.left, rect.top, rect.right, rect.bottom, nStyleIndex, m_pTitleFont->GetSafeHandle());

  000d4	8b 07		 mov	 eax, DWORD PTR [edi]
  000d6	51		 push	 ecx
  000d7	52		 push	 edx
  000d8	ff 75 ec	 push	 DWORD PTR _rect$[ebp+12]
  000db	8b cf		 mov	 ecx, edi
  000dd	ff 75 e8	 push	 DWORD PTR _rect$[ebp+8]
  000e0	ff 75 e4	 push	 DWORD PTR _rect$[ebp+4]
  000e3	ff 75 e0	 push	 DWORD PTR _rect$[ebp]
  000e6	ff 75 90	 push	 DWORD PTR _dc$[ebp+4]
  000e9	ff 50 20	 call	 DWORD PTR [eax+32]

; 211  : 		pIStyleManager->Release();

  000ec	8b 07		 mov	 eax, DWORD PTR [edi]
  000ee	57		 push	 edi
  000ef	ff 50 08	 call	 DWORD PTR [eax+8]
$LN3@OnPaint:

; 212  : 	}
; 213  : }

  000f2	8d 4d 8c	 lea	 ecx, DWORD PTR _dc$[ebp]
  000f5	e8 00 00 00 00	 call	 ??1CPaintDC@@UAE@XZ	; CPaintDC::~CPaintDC
  000fa	8b 4d f4	 mov	 ecx, DWORD PTR __$EHRec$[ebp]
  000fd	64 89 0d 00 00
	00 00		 mov	 DWORD PTR fs:0, ecx
  00104	59		 pop	 ecx
  00105	5f		 pop	 edi
  00106	5e		 pop	 esi
  00107	8b 4d f0	 mov	 ecx, DWORD PTR __$ArrayPad$[ebp]
  0010a	33 cd		 xor	 ecx, ebp
  0010c	e8 00 00 00 00	 call	 @__security_check_cookie@4
  00111	8b e5		 mov	 esp, ebp
  00113	5d		 pop	 ebp
  00114	c3		 ret	 0
_TEXT	ENDS
;	COMDAT text$x
text$x	SEGMENT
__unwindfunclet$?OnPaint@CDlgGraphMove@@IAEXXZ$0:
  00000	8d 4d 8c	 lea	 ecx, DWORD PTR _dc$[ebp]
  00003	e9 00 00 00 00	 jmp	 ??1CPaintDC@@UAE@XZ	; CPaintDC::~CPaintDC
  00008	cc		 int	 3
  00009	cc		 int	 3
  0000a	cc		 int	 3
  0000b	cc		 int	 3
  0000c	cc		 int	 3
__ehhandler$?OnPaint@CDlgGraphMove@@IAEXXZ:
  0000d	90		 npad	 1
  0000e	90		 npad	 1
  0000f	8b 54 24 08	 mov	 edx, DWORD PTR [esp+8]
  00013	8d 42 0c	 lea	 eax, DWORD PTR [edx+12]
  00016	8b 4a 8c	 mov	 ecx, DWORD PTR [edx-116]
  00019	33 c8		 xor	 ecx, eax
  0001b	e8 00 00 00 00	 call	 @__security_check_cookie@4
  00020	8b 4a fc	 mov	 ecx, DWORD PTR [edx-4]
  00023	33 c8		 xor	 ecx, eax
  00025	e8 00 00 00 00	 call	 @__security_check_cookie@4
  0002a	b8 00 00 00 00	 mov	 eax, OFFSET __ehfuncinfo$?OnPaint@CDlgGraphMove@@IAEXXZ
  0002f	e9 00 00 00 00	 jmp	 ___CxxFrameHandler3
text$x	ENDS
?OnPaint@CDlgGraphMove@@IAEXXZ ENDP			; CDlgGraphMove::OnPaint
; Function compile flags: /Ogtp
; File D:\git\src\IBK\IBK_DRFN\ProjSrc\SrcChartEx\ChartOCX\ChartObject\DlgGraphMove.cpp
;	COMDAT ?OnSelchangeScalegroup@CDlgGraphMove@@IAEXXZ
_TEXT	SEGMENT
$T2 = -196						; size = 96
$T3 = -100						; size = 88
__$EHRec$ = -12						; size = 12
?OnSelchangeScalegroup@CDlgGraphMove@@IAEXXZ PROC	; CDlgGraphMove::OnSelchangeScalegroup, COMDAT
; _this$ = ecx

; 110  : {

  00000	55		 push	 ebp
  00001	8b ec		 mov	 ebp, esp
  00003	6a ff		 push	 -1
  00005	68 00 00 00 00	 push	 __ehhandler$?OnSelchangeScalegroup@CDlgGraphMove@@IAEXXZ
  0000a	64 a1 00 00 00
	00		 mov	 eax, DWORD PTR fs:0
  00010	50		 push	 eax
  00011	81 ec b8 00 00
	00		 sub	 esp, 184		; 000000b8H
  00017	56		 push	 esi
  00018	a1 00 00 00 00	 mov	 eax, DWORD PTR ___security_cookie
  0001d	33 c5		 xor	 eax, ebp
  0001f	50		 push	 eax
  00020	8d 45 f4	 lea	 eax, DWORD PTR __$EHRec$[ebp]
  00023	64 a3 00 00 00
	00		 mov	 DWORD PTR fs:0, eax
  00029	8b f1		 mov	 esi, ecx

; 111  : 	UpdateData(TRUE);

  0002b	6a 01		 push	 1
  0002d	e8 00 00 00 00	 call	 ?UpdateData@CWnd@@QAEHH@Z ; CWnd::UpdateData

; 173  : 	return m_pVertScaleGroupDataList->GetAt(nIndex).GetVertScale();

  00032	ff b6 a8 01 00
	00		 push	 DWORD PTR [esi+424]
  00038	8b 8e b4 01 00
	00		 mov	 ecx, DWORD PTR [esi+436]
  0003e	8d 85 3c ff ff
	ff		 lea	 eax, DWORD PTR $T2[ebp]
  00044	50		 push	 eax
  00045	e8 00 00 00 00	 call	 ?GetAt@CVerticalScaleGroupDataList@@QBE?AVCVerticalScaleGroupData@@H@Z ; CVerticalScaleGroupDataList::GetAt
  0004a	8b c8		 mov	 ecx, eax
  0004c	c7 45 fc 00 00
	00 00		 mov	 DWORD PTR __$EHRec$[ebp+8], 0
  00053	e8 00 00 00 00	 call	 ?GetVertScale@CVerticalScaleGroupData@@QAEAAVCVerticalScale@@XZ ; CVerticalScaleGroupData::GetVertScale
  00058	50		 push	 eax
  00059	8d 4d 9c	 lea	 ecx, DWORD PTR $T3[ebp]
  0005c	ff 15 00 00 00
	00		 call	 DWORD PTR __imp_??0CVerticalScale@@QAE@ABV0@@Z
  00062	8d 4d 94	 lea	 ecx, DWORD PTR $T2[ebp+88]
  00065	ff 15 00 00 00
	00		 call	 DWORD PTR __imp_??1?$CStringT@DV?$StrTraitMFC_DLL@DV?$ChTraitsCRT@D@ATL@@@@@ATL@@QAE@XZ
  0006b	8d 8d 3c ff ff
	ff		 lea	 ecx, DWORD PTR $T2[ebp]
  00071	ff 15 00 00 00
	00		 call	 DWORD PTR __imp_??1CVerticalScale@@QAE@XZ

; 165  : 	m_nScalePosition = (int) verticalScale.GetVertScalePosition();

  00077	8d 4d 9c	 lea	 ecx, DWORD PTR $T3[ebp]

; 112  : 	SetScalePositionAndGrid(GetVerticalScale(m_nScaleGroup));

  0007a	c7 45 fc 01 00
	00 00		 mov	 DWORD PTR __$EHRec$[ebp+8], 1

; 165  : 	m_nScalePosition = (int) verticalScale.GetVertScalePosition();

  00081	ff 15 00 00 00
	00		 call	 DWORD PTR __imp_?GetVertScalePosition@CVerticalScale@@QBE?AW4VERTSCALEPOSITION@CScaleBaseData@@XZ

; 166  : 	m_nScaleGrid = (int) verticalScale.GetGridType();

  00087	8d 4d 9c	 lea	 ecx, DWORD PTR $T3[ebp]
  0008a	89 86 ac 01 00
	00		 mov	 DWORD PTR [esi+428], eax
  00090	ff 15 00 00 00
	00		 call	 DWORD PTR __imp_?GetGridType@CScale@@QBE?AW4SCALEGRIDTYPE@CScaleBaseData@@XZ

; 167  : 	UpdateData(FALSE);

  00096	6a 00		 push	 0
  00098	8b ce		 mov	 ecx, esi
  0009a	89 86 b0 01 00
	00		 mov	 DWORD PTR [esi+432], eax
  000a0	e8 00 00 00 00	 call	 ?UpdateData@CWnd@@QAEHH@Z ; CWnd::UpdateData

; 112  : 	SetScalePositionAndGrid(GetVerticalScale(m_nScaleGroup));

  000a5	8d 4d 9c	 lea	 ecx, DWORD PTR $T3[ebp]
  000a8	ff 15 00 00 00
	00		 call	 DWORD PTR __imp_??1CVerticalScale@@QAE@XZ

; 113  : }

  000ae	8b 4d f4	 mov	 ecx, DWORD PTR __$EHRec$[ebp]
  000b1	64 89 0d 00 00
	00 00		 mov	 DWORD PTR fs:0, ecx
  000b8	59		 pop	 ecx
  000b9	5e		 pop	 esi
  000ba	8b e5		 mov	 esp, ebp
  000bc	5d		 pop	 ebp
  000bd	c3		 ret	 0
_TEXT	ENDS
;	COMDAT text$x
text$x	SEGMENT
__unwindfunclet$?OnSelchangeScalegroup@CDlgGraphMove@@IAEXXZ$1:
  00000	8d 8d 3c ff ff
	ff		 lea	 ecx, DWORD PTR $T2[ebp]
  00006	e9 00 00 00 00	 jmp	 ??1CVerticalScaleGroupData@@QAE@XZ
__unwindfunclet$?OnSelchangeScalegroup@CDlgGraphMove@@IAEXXZ$0:
  0000b	8d 4d 9c	 lea	 ecx, DWORD PTR $T3[ebp]
  0000e	ff 25 00 00 00
	00		 jmp	 DWORD PTR __imp_??1CVerticalScale@@QAE@XZ
  00014	cc		 int	 3
  00015	cc		 int	 3
  00016	cc		 int	 3
  00017	cc		 int	 3
  00018	cc		 int	 3
__ehhandler$?OnSelchangeScalegroup@CDlgGraphMove@@IAEXXZ:
  00019	90		 npad	 1
  0001a	90		 npad	 1
  0001b	8b 54 24 08	 mov	 edx, DWORD PTR [esp+8]
  0001f	8d 42 0c	 lea	 eax, DWORD PTR [edx+12]
  00022	8b 8a 40 ff ff
	ff		 mov	 ecx, DWORD PTR [edx-192]
  00028	33 c8		 xor	 ecx, eax
  0002a	e8 00 00 00 00	 call	 @__security_check_cookie@4
  0002f	b8 00 00 00 00	 mov	 eax, OFFSET __ehfuncinfo$?OnSelchangeScalegroup@CDlgGraphMove@@IAEXXZ
  00034	e9 00 00 00 00	 jmp	 ___CxxFrameHandler3
text$x	ENDS
?OnSelchangeScalegroup@CDlgGraphMove@@IAEXXZ ENDP	; CDlgGraphMove::OnSelchangeScalegroup
; Function compile flags: /Ogtp
; File D:\git\src\IBK\IBK_DRFN\ProjSrc\SrcChartEx\ChartOCX\ChartObject\DlgGraphMove.cpp
;	COMDAT ?OnCancel@CDlgGraphMove@@MAEXXZ
_TEXT	SEGMENT
?OnCancel@CDlgGraphMove@@MAEXXZ PROC			; CDlgGraphMove::OnCancel, COMDAT
; _this$ = ecx

; 138  : 	CDialog::OnCancel();

  00000	e9 00 00 00 00	 jmp	 ?OnCancel@CDialog@@MAEXXZ ; CDialog::OnCancel
?OnCancel@CDlgGraphMove@@MAEXXZ ENDP			; CDlgGraphMove::OnCancel
_TEXT	ENDS
; Function compile flags: /Ogtp
; File D:\git\src\IBK\IBK_DRFN\ProjSrc\SrcChartEx\ChartOCX\ChartObject\DlgGraphMove.cpp
; File C:\Program Files (x86)\Microsoft Visual Studio\2019\Community\VC\Tools\MSVC\14.29.30133\atlmfc\include\afxwin2.inl
; File D:\git\src\IBK\IBK_DRFN\ProjSrc\SrcChartEx\ChartOCX\ChartObject\DlgGraphMove.cpp
; File C:\Program Files (x86)\Microsoft Visual Studio\2019\Community\VC\Tools\MSVC\14.29.30133\atlmfc\include\afxwin2.inl
; File D:\git\src\IBK\IBK_DRFN\ProjSrc\SrcChartEx\ChartOCX\ChartObject\DlgGraphMove.cpp
;	COMDAT ?OnOK@CDlgGraphMove@@MAEXXZ
_TEXT	SEGMENT
$T2 = -16						; size = 4
__$EHRec$ = -12						; size = 12
?OnOK@CDlgGraphMove@@MAEXXZ PROC			; CDlgGraphMove::OnOK, COMDAT
; _this$ = ecx

; 116  : {

  00000	55		 push	 ebp
  00001	8b ec		 mov	 ebp, esp
  00003	6a ff		 push	 -1
  00005	68 00 00 00 00	 push	 __ehhandler$?OnOK@CDlgGraphMove@@MAEXXZ
  0000a	64 a1 00 00 00
	00		 mov	 eax, DWORD PTR fs:0
  00010	50		 push	 eax
  00011	51		 push	 ecx
  00012	53		 push	 ebx
  00013	56		 push	 esi
  00014	57		 push	 edi
  00015	a1 00 00 00 00	 mov	 eax, DWORD PTR ___security_cookie
  0001a	33 c5		 xor	 eax, ebp
  0001c	50		 push	 eax
  0001d	8d 45 f4	 lea	 eax, DWORD PTR __$EHRec$[ebp]
  00020	64 a3 00 00 00
	00		 mov	 DWORD PTR fs:0, eax
  00026	8b f9		 mov	 edi, ecx
; File C:\Program Files (x86)\Microsoft Visual Studio\2019\Community\VC\Tools\MSVC\14.29.30133\atlmfc\include\afxwin2.inl

; 765  : 	{ ASSERT(::IsWindow(m_hWnd)); return (int)::SendMessage(m_hWnd, CB_GETCURSEL, 0, 0); }

  00028	8b 35 00 00 00
	00		 mov	 esi, DWORD PTR __imp__SendMessageA@16
  0002e	6a 00		 push	 0
  00030	6a 00		 push	 0
  00032	68 47 01 00 00	 push	 327			; 00000147H
  00037	ff b7 c8 00 00
	00		 push	 DWORD PTR [edi+200]
  0003d	ff d6		 call	 esi

; 763  : 	{ ASSERT(::IsWindow(m_hWnd)); return (int)::SendMessage(m_hWnd, CB_GETCOUNT, 0, 0); }

  0003f	6a 00		 push	 0
  00041	6a 00		 push	 0
  00043	68 46 01 00 00	 push	 326			; 00000146H
  00048	ff b7 c8 00 00
	00		 push	 DWORD PTR [edi+200]
; File D:\git\src\IBK\IBK_DRFN\ProjSrc\SrcChartEx\ChartOCX\ChartObject\DlgGraphMove.cpp

; 118  : 	int nStyleIndex = m_cbxStyleList.GetCurSel();

  0004e	8b d8		 mov	 ebx, eax
; File C:\Program Files (x86)\Microsoft Visual Studio\2019\Community\VC\Tools\MSVC\14.29.30133\atlmfc\include\afxwin2.inl

; 763  : 	{ ASSERT(::IsWindow(m_hWnd)); return (int)::SendMessage(m_hWnd, CB_GETCOUNT, 0, 0); }

  00050	ff d6		 call	 esi
; File D:\git\src\IBK\IBK_DRFN\ProjSrc\SrcChartEx\ChartOCX\ChartObject\DlgGraphMove.cpp

; 119  : 	if( nStyleIndex != m_cbxStyleList.GetCount() - 1)

  00052	48		 dec	 eax
  00053	3b d8		 cmp	 ebx, eax
  00055	74 62		 je	 SHORT $LN4@OnOK

; 120  : 	{
; 121  : 		// (2009/9/21 - Seung-Won, Bae) Show Style Type on Price, Volume and MAs.
; 122  : 		if( IsStyledGraph())

  00057	8b cf		 mov	 ecx, edi
  00059	e8 00 00 00 00	 call	 ?IsStyledGraph@CDlgGraphMove@@IAEHXZ ; CDlgGraphMove::IsStyledGraph
  0005e	85 c0		 test	 eax, eax
  00060	74 57		 je	 SHORT $LN4@OnOK

; 123  : 		{
; 124  : 			IStyleManager *pIStyleManager = ( IStyleManager *)m_pIChartCtrl->GetAddInCustomInterface( "ChartEnvSetupDlgAddIn.dll:STYLE_DATA");

  00062	8b 8f bc 01 00
	00		 mov	 ecx, DWORD PTR [edi+444]
  00068	68 00 00 00 00	 push	 OFFSET ??_C@_0CF@HPNEOBPG@ChartEnvSetupDlgAddIn?4dll?3STYLE@
  0006d	8b 01		 mov	 eax, DWORD PTR [ecx]
  0006f	ff 90 38 04 00
	00		 call	 DWORD PTR [eax+1080]
  00075	8b f0		 mov	 esi, eax

; 125  : 			if( pIStyleManager)

  00077	85 f6		 test	 esi, esi
  00079	74 3e		 je	 SHORT $LN4@OnOK

; 126  : 			{
; 127  : 				pIStyleManager->UpdateIndexStyle( m_pSourceGraph->GetGraphData().GetGraphName(), nStyleIndex);

  0007b	8b 8f b8 01 00
	00		 mov	 ecx, DWORD PTR [edi+440]
  00081	8d 45 f0	 lea	 eax, DWORD PTR $T2[ebp]
  00084	50		 push	 eax
  00085	e8 00 00 00 00	 call	 ?GetGraphData@CGraphImp@@QAEAAVCGraphData@@XZ ; CGraphImp::GetGraphData
  0008a	8b c8		 mov	 ecx, eax
  0008c	ff 15 00 00 00
	00		 call	 DWORD PTR __imp_?GetGraphName@CGraphData@@QBE?AV?$CStringT@DV?$StrTraitMFC_DLL@DV?$ChTraitsCRT@D@ATL@@@@@ATL@@XZ
  00092	8b 16		 mov	 edx, DWORD PTR [esi]
  00094	8b ce		 mov	 ecx, esi
  00096	53		 push	 ebx
  00097	ff 30		 push	 DWORD PTR [eax]
  00099	c7 45 fc 00 00
	00 00		 mov	 DWORD PTR __$EHRec$[ebp+8], 0
  000a0	ff 52 24	 call	 DWORD PTR [edx+36]
  000a3	8d 4d f0	 lea	 ecx, DWORD PTR $T2[ebp]
  000a6	c7 45 fc ff ff
	ff ff		 mov	 DWORD PTR __$EHRec$[ebp+8], -1
  000ad	ff 15 00 00 00
	00		 call	 DWORD PTR __imp_??1?$CStringT@DV?$StrTraitMFC_DLL@DV?$ChTraitsCRT@D@ATL@@@@@ATL@@QAE@XZ

; 128  : 				pIStyleManager->Release();

  000b3	8b 06		 mov	 eax, DWORD PTR [esi]
  000b5	56		 push	 esi
  000b6	ff 50 08	 call	 DWORD PTR [eax+8]
$LN4@OnOK:

; 129  : 			}
; 130  : 		}
; 131  : 	}
; 132  : 
; 133  : 	CDialog::OnOK();

  000b9	8b cf		 mov	 ecx, edi
  000bb	e8 00 00 00 00	 call	 ?OnOK@CDialog@@MAEXXZ	; CDialog::OnOK

; 134  : }

  000c0	8b 4d f4	 mov	 ecx, DWORD PTR __$EHRec$[ebp]
  000c3	64 89 0d 00 00
	00 00		 mov	 DWORD PTR fs:0, ecx
  000ca	59		 pop	 ecx
  000cb	5f		 pop	 edi
  000cc	5e		 pop	 esi
  000cd	5b		 pop	 ebx
  000ce	8b e5		 mov	 esp, ebp
  000d0	5d		 pop	 ebp
  000d1	c3		 ret	 0
_TEXT	ENDS
;	COMDAT text$x
text$x	SEGMENT
__unwindfunclet$?OnOK@CDlgGraphMove@@MAEXXZ$0:
  00000	8d 4d f0	 lea	 ecx, DWORD PTR $T2[ebp]
  00003	ff 25 00 00 00
	00		 jmp	 DWORD PTR __imp_??1?$CStringT@DV?$StrTraitMFC_DLL@DV?$ChTraitsCRT@D@ATL@@@@@ATL@@QAE@XZ
  00009	cc		 int	 3
  0000a	cc		 int	 3
  0000b	cc		 int	 3
  0000c	cc		 int	 3
  0000d	cc		 int	 3
__ehhandler$?OnOK@CDlgGraphMove@@MAEXXZ:
  0000e	90		 npad	 1
  0000f	90		 npad	 1
  00010	8b 54 24 08	 mov	 edx, DWORD PTR [esp+8]
  00014	8d 42 0c	 lea	 eax, DWORD PTR [edx+12]
  00017	8b 4a ec	 mov	 ecx, DWORD PTR [edx-20]
  0001a	33 c8		 xor	 ecx, eax
  0001c	e8 00 00 00 00	 call	 @__security_check_cookie@4
  00021	b8 00 00 00 00	 mov	 eax, OFFSET __ehfuncinfo$?OnOK@CDlgGraphMove@@MAEXXZ
  00026	e9 00 00 00 00	 jmp	 ___CxxFrameHandler3
text$x	ENDS
?OnOK@CDlgGraphMove@@MAEXXZ ENDP			; CDlgGraphMove::OnOK
; Function compile flags: /Ogtp
; File D:\git\src\IBK\IBK_DRFN\ProjSrc\SrcChartEx\ChartOCX\ChartObject\DlgGraphMove.cpp
; File C:\Program Files (x86)\Microsoft Visual Studio\2019\Community\VC\Tools\MSVC\14.29.30133\atlmfc\include\afxwin2.inl
; File D:\git\src\IBK\IBK_DRFN\ProjSrc\SrcChartEx\ChartOCX\ChartObject\DlgGraphMove.cpp
; File C:\Program Files (x86)\Microsoft Visual Studio\2019\Community\VC\Tools\MSVC\14.29.30133\atlmfc\include\afxwin2.inl
; File D:\git\src\IBK\IBK_DRFN\ProjSrc\SrcChartEx\ChartOCX\ChartObject\DlgGraphMove.cpp
; File C:\Program Files (x86)\Microsoft Visual Studio\2019\Community\VC\Tools\MSVC\14.29.30133\atlmfc\include\afxwin2.inl
; File D:\git\src\IBK\IBK_DRFN\ProjSrc\SrcChartEx\ChartOCX\ChartObject\DlgGraphMove.cpp
; File C:\Program Files (x86)\Microsoft Visual Studio\2019\Community\VC\Tools\MSVC\14.29.30133\atlmfc\include\afxwin2.inl
; File D:\git\src\IBK\IBK_DRFN\ProjSrc\SrcChartEx\ChartOCX\ChartObject\DlgGraphMove.cpp
; File C:\Program Files (x86)\Microsoft Visual Studio\2019\Community\VC\Tools\MSVC\14.29.30133\atlmfc\include\atltypes.h
; File D:\git\src\IBK\IBK_DRFN\ProjSrc\SrcChartEx\ChartOCX\ChartObject\DlgGraphMove.cpp
; File C:\Program Files (x86)\Microsoft Visual Studio\2019\Community\VC\Tools\MSVC\14.29.30133\atlmfc\include\afxwin2.inl
; File C:\Program Files (x86)\Microsoft Visual Studio\2019\Community\VC\Tools\MSVC\14.29.30133\atlmfc\include\atltypes.h
; File C:\Program Files (x86)\Microsoft Visual Studio\2019\Community\VC\Tools\MSVC\14.29.30133\atlmfc\include\afxwin2.inl
; File D:\git\src\IBK\IBK_DRFN\ProjSrc\SrcChartEx\ChartOCX\ChartObject\DlgGraphMove.cpp
; File C:\Program Files (x86)\Microsoft Visual Studio\2019\Community\VC\Tools\MSVC\14.29.30133\atlmfc\include\afxwin2.inl
; File D:\git\src\IBK\IBK_DRFN\ProjSrc\SrcChartEx\ChartOCX\ChartObject\DlgGraphMove.cpp
; File C:\Program Files (x86)\Microsoft Visual Studio\2019\Community\VC\Tools\MSVC\14.29.30133\atlmfc\include\afxwin2.inl
; File D:\git\src\IBK\IBK_DRFN\ProjSrc\SrcChartEx\ChartOCX\ChartObject\DlgGraphMove.cpp
;	COMDAT ?OnInitDialog@CDlgGraphMove@@MAEHXZ
_TEXT	SEGMENT
_vertScaleGroupData$2 = -152				; size = 96
$T3 = -56						; size = 4
_nIndex$1$ = -52					; size = 4
_nStyleCount$1$ = -52					; size = 4
_rctStyle$4 = -48					; size = 16
_rctWnd$5 = -32						; size = 16
__$ArrayPad$ = -16					; size = 4
__$EHRec$ = -12						; size = 12
?OnInitDialog@CDlgGraphMove@@MAEHXZ PROC		; CDlgGraphMove::OnInitDialog, COMDAT
; _this$ = ecx

; 69   : {

  00000	55		 push	 ebp
  00001	8b ec		 mov	 ebp, esp
  00003	6a ff		 push	 -1
  00005	68 00 00 00 00	 push	 __ehhandler$?OnInitDialog@CDlgGraphMove@@MAEHXZ
  0000a	64 a1 00 00 00
	00		 mov	 eax, DWORD PTR fs:0
  00010	50		 push	 eax
  00011	81 ec 8c 00 00
	00		 sub	 esp, 140		; 0000008cH
  00017	a1 00 00 00 00	 mov	 eax, DWORD PTR ___security_cookie
  0001c	33 c5		 xor	 eax, ebp
  0001e	89 45 f0	 mov	 DWORD PTR __$ArrayPad$[ebp], eax
  00021	53		 push	 ebx
  00022	56		 push	 esi
  00023	57		 push	 edi
  00024	50		 push	 eax
  00025	8d 45 f4	 lea	 eax, DWORD PTR __$EHRec$[ebp]
  00028	64 a3 00 00 00
	00		 mov	 DWORD PTR fs:0, eax
  0002e	8b f1		 mov	 esi, ecx

; 70   : 	CDialog::OnInitDialog();

  00030	e8 00 00 00 00	 call	 ?OnInitDialog@CDialog@@UAEHXZ ; CDialog::OnInitDialog

; 71   : 
; 72   : 	// Dialog    
; 73   : 	mouse_event(MOUSEEVENTF_LEFTDOWN, 0, 0, 0, 0);

  00035	8b 3d 00 00 00
	00		 mov	 edi, DWORD PTR __imp__mouse_event@20
  0003b	6a 00		 push	 0
  0003d	6a 00		 push	 0
  0003f	6a 00		 push	 0
  00041	6a 00		 push	 0
  00043	6a 02		 push	 2
  00045	ff d7		 call	 edi

; 74   : 	mouse_event(MOUSEEVENTF_LEFTUP, 0, 0, 0, 0);

  00047	6a 00		 push	 0
  00049	6a 00		 push	 0
  0004b	6a 00		 push	 0
  0004d	6a 00		 push	 0
  0004f	6a 04		 push	 4
  00051	ff d7		 call	 edi

; 154  : 	for(int nIndex = 0; nIndex < m_pVertScaleGroupDataList->GetCount(); nIndex++){

  00053	8b 8e b4 01 00
	00		 mov	 ecx, DWORD PTR [esi+436]
  00059	33 ff		 xor	 edi, edi
  0005b	89 7d cc	 mov	 DWORD PTR _nIndex$1$[ebp], edi
  0005e	e8 00 00 00 00	 call	 ?GetCount@CVerticalScaleGroupDataList@@QBEHXZ ; CVerticalScaleGroupDataList::GetCount
  00063	8b 1d 00 00 00
	00		 mov	 ebx, DWORD PTR __imp__SendMessageA@16
  00069	85 c0		 test	 eax, eax
  0006b	0f 8e b1 00 00
	00		 jle	 $LN11@OnInitDial
$LL12@OnInitDial:

; 155  : 		CVerticalScaleGroupData vertScaleGroupData = m_pVertScaleGroupDataList->GetAt(nIndex);

  00071	8b 8e b4 01 00
	00		 mov	 ecx, DWORD PTR [esi+436]
  00077	8d 85 68 ff ff
	ff		 lea	 eax, DWORD PTR _vertScaleGroupData$2[ebp]
  0007d	57		 push	 edi
  0007e	50		 push	 eax
  0007f	e8 00 00 00 00	 call	 ?GetAt@CVerticalScaleGroupDataList@@QBE?AVCVerticalScaleGroupData@@H@Z ; CVerticalScaleGroupDataList::GetAt

; 156  : 		m_ctlScaleGroup.AddString(vertScaleGroupData.GetVertScaleTitle());

  00084	8d 45 c8	 lea	 eax, DWORD PTR $T3[ebp]
  00087	c7 45 fc 00 00
	00 00		 mov	 DWORD PTR __$EHRec$[ebp+8], 0
  0008e	50		 push	 eax
  0008f	8d 8d 68 ff ff
	ff		 lea	 ecx, DWORD PTR _vertScaleGroupData$2[ebp]
  00095	e8 00 00 00 00	 call	 ?GetVertScaleTitle@CVerticalScaleGroupData@@QBE?AV?$CStringT@DV?$StrTraitMFC_DLL@DV?$ChTraitsCRT@D@ATL@@@@@ATL@@XZ ; CVerticalScaleGroupData::GetVertScaleTitle
; File C:\Program Files (x86)\Microsoft Visual Studio\2019\Community\VC\Tools\MSVC\14.29.30133\atlmfc\include\afxwin2.inl

; 795  : 	{ ASSERT(::IsWindow(m_hWnd)); return (int)::SendMessage(m_hWnd, CB_ADDSTRING, 0, (LPARAM)lpszString); }

  0009a	ff 30		 push	 DWORD PTR [eax]
  0009c	6a 00		 push	 0
  0009e	68 43 01 00 00	 push	 323			; 00000143H
  000a3	ff b6 48 01 00
	00		 push	 DWORD PTR [esi+328]
  000a9	ff d3		 call	 ebx
; File D:\git\src\IBK\IBK_DRFN\ProjSrc\SrcChartEx\ChartOCX\ChartObject\DlgGraphMove.cpp

; 156  : 		m_ctlScaleGroup.AddString(vertScaleGroupData.GetVertScaleTitle());

  000ab	8d 4d c8	 lea	 ecx, DWORD PTR $T3[ebp]
  000ae	ff 15 00 00 00
	00		 call	 DWORD PTR __imp_??1?$CStringT@DV?$StrTraitMFC_DLL@DV?$ChTraitsCRT@D@ATL@@@@@ATL@@QAE@XZ

; 157  : 		m_nScaleGroup = nIndex;
; 158  : 		SetScalePositionAndGrid(vertScaleGroupData.GetVertScale());

  000b4	8d 8d 68 ff ff
	ff		 lea	 ecx, DWORD PTR _vertScaleGroupData$2[ebp]
  000ba	89 be a8 01 00
	00		 mov	 DWORD PTR [esi+424], edi
  000c0	e8 00 00 00 00	 call	 ?GetVertScale@CVerticalScaleGroupData@@QAEAAVCVerticalScale@@XZ ; CVerticalScaleGroupData::GetVertScale
  000c5	8b f8		 mov	 edi, eax

; 165  : 	m_nScalePosition = (int) verticalScale.GetVertScalePosition();

  000c7	8b cf		 mov	 ecx, edi
  000c9	ff 15 00 00 00
	00		 call	 DWORD PTR __imp_?GetVertScalePosition@CVerticalScale@@QBE?AW4VERTSCALEPOSITION@CScaleBaseData@@XZ

; 166  : 	m_nScaleGrid = (int) verticalScale.GetGridType();

  000cf	8b cf		 mov	 ecx, edi
  000d1	89 86 ac 01 00
	00		 mov	 DWORD PTR [esi+428], eax
  000d7	ff 15 00 00 00
	00		 call	 DWORD PTR __imp_?GetGridType@CScale@@QBE?AW4SCALEGRIDTYPE@CScaleBaseData@@XZ

; 167  : 	UpdateData(FALSE);

  000dd	6a 00		 push	 0
  000df	8b ce		 mov	 ecx, esi
  000e1	89 86 b0 01 00
	00		 mov	 DWORD PTR [esi+432], eax
  000e7	e8 00 00 00 00	 call	 ?UpdateData@CWnd@@QAEHH@Z ; CWnd::UpdateData
  000ec	8d 4d c0	 lea	 ecx, DWORD PTR _vertScaleGroupData$2[ebp+88]

; 159  : 	}

  000ef	c7 45 fc ff ff
	ff ff		 mov	 DWORD PTR __$EHRec$[ebp+8], -1
  000f6	ff 15 00 00 00
	00		 call	 DWORD PTR __imp_??1?$CStringT@DV?$StrTraitMFC_DLL@DV?$ChTraitsCRT@D@ATL@@@@@ATL@@QAE@XZ
  000fc	8d 8d 68 ff ff
	ff		 lea	 ecx, DWORD PTR _vertScaleGroupData$2[ebp]
  00102	ff 15 00 00 00
	00		 call	 DWORD PTR __imp_??1CVerticalScale@@QAE@XZ

; 107  : 
; 108  : /////////////////////////////////////////////////////////////////////////////
; 109  : void CDlgGraphMove::OnSelchangeScalegroup() 
; 110  : {
; 111  : 	UpdateData(TRUE);
; 112  : 	SetScalePositionAndGrid(GetVerticalScale(m_nScaleGroup));
; 113  : }
; 114  : 
; 115  : void CDlgGraphMove::OnOK() 
; 116  : {
; 117  : 	// (2009/9/22 - Seung-Won, Bae) Update new style.
; 118  : 	int nStyleIndex = m_cbxStyleList.GetCurSel();
; 119  : 	if( nStyleIndex != m_cbxStyleList.GetCount() - 1)
; 120  : 	{
; 121  : 		// (2009/9/21 - Seung-Won, Bae) Show Style Type on Price, Volume and MAs.
; 122  : 		if( IsStyledGraph())
; 123  : 		{
; 124  : 			IStyleManager *pIStyleManager = ( IStyleManager *)m_pIChartCtrl->GetAddInCustomInterface( "ChartEnvSetupDlgAddIn.dll:STYLE_DATA");
; 125  : 			if( pIStyleManager)
; 126  : 			{
; 127  : 				pIStyleManager->UpdateIndexStyle( m_pSourceGraph->GetGraphData().GetGraphName(), nStyleIndex);
; 128  : 				pIStyleManager->Release();
; 129  : 			}
; 130  : 		}
; 131  : 	}
; 132  : 
; 133  : 	CDialog::OnOK();
; 134  : }
; 135  : 
; 136  : void CDlgGraphMove::OnCancel() 
; 137  : {	
; 138  : 	CDialog::OnCancel();
; 139  : }
; 140  : 
; 141  : /////////////////////////////////////////////////////////////////////////////
; 142  : // public ==================================================================
; 143  : //  graph scale data .
; 144  : CMovingGraphVertScaleData CDlgGraphMove::GetMovingGraphVertScaleData() const
; 145  : {
; 146  : 	return CMovingGraphVertScaleData(m_nScaleGroup, GetCurrentVerticalScale());
; 147  : }
; 148  : 
; 149  : 
; 150  : // private ==================================================================
; 151  : // data 
; 152  : void CDlgGraphMove::InitializeData()
; 153  : {
; 154  : 	for(int nIndex = 0; nIndex < m_pVertScaleGroupDataList->GetCount(); nIndex++){

  00108	8b 7d cc	 mov	 edi, DWORD PTR _nIndex$1$[ebp]
  0010b	8b 8e b4 01 00
	00		 mov	 ecx, DWORD PTR [esi+436]
  00111	47		 inc	 edi
  00112	89 7d cc	 mov	 DWORD PTR _nIndex$1$[ebp], edi
  00115	e8 00 00 00 00	 call	 ?GetCount@CVerticalScaleGroupDataList@@QBEHXZ ; CVerticalScaleGroupDataList::GetCount
  0011a	3b f8		 cmp	 edi, eax
  0011c	0f 8c 4f ff ff
	ff		 jl	 $LL12@OnInitDial
$LN11@OnInitDial:

; 160  : 	UpdateData(TRUE);

  00122	6a 01		 push	 1
  00124	8b ce		 mov	 ecx, esi
  00126	e8 00 00 00 00	 call	 ?UpdateData@CWnd@@QAEHH@Z ; CWnd::UpdateData

; 75   : 
; 76   : 	InitializeData();
; 77   : 
; 78   : 	// (2009/9/21 - Seung-Won, Bae) Show Style Type on Price, Volume and MAs.
; 79   : 	if( IsStyledGraph())

  0012b	8b ce		 mov	 ecx, esi
  0012d	e8 00 00 00 00	 call	 ?IsStyledGraph@CDlgGraphMove@@IAEHXZ ; CDlgGraphMove::IsStyledGraph
  00132	85 c0		 test	 eax, eax
  00134	0f 84 89 00 00
	00		 je	 $LN5@OnInitDial

; 80   : 	{
; 81   : 		m_pIChartCtrl->LoadAddIn( "ChartEnvSetupDlgAddIn.dll:STYLE_DATA");

  0013a	8b 8e bc 01 00
	00		 mov	 ecx, DWORD PTR [esi+444]
  00140	68 00 00 00 00	 push	 OFFSET ??_C@_0CF@HPNEOBPG@ChartEnvSetupDlgAddIn?4dll?3STYLE@
  00145	8b 01		 mov	 eax, DWORD PTR [ecx]
  00147	ff 90 74 01 00
	00		 call	 DWORD PTR [eax+372]

; 82   : 		IStyleManager *pIStyleManager = ( IStyleManager *)m_pIChartCtrl->GetAddInCustomInterface( "ChartEnvSetupDlgAddIn.dll:STYLE_DATA");

  0014d	8b 8e bc 01 00
	00		 mov	 ecx, DWORD PTR [esi+444]
  00153	68 00 00 00 00	 push	 OFFSET ??_C@_0CF@HPNEOBPG@ChartEnvSetupDlgAddIn?4dll?3STYLE@
  00158	8b 01		 mov	 eax, DWORD PTR [ecx]
  0015a	ff 90 38 04 00
	00		 call	 DWORD PTR [eax+1080]
  00160	8b d8		 mov	 ebx, eax

; 83   : 		if( pIStyleManager)

  00162	85 db		 test	 ebx, ebx
  00164	0f 84 ab 00 00
	00		 je	 $LN49@OnInitDial

; 84   : 		{
; 85   : 			pIStyleManager->LoadCurrentStyle();

  0016a	8b 13		 mov	 edx, DWORD PTR [ebx]
  0016c	8b cb		 mov	 ecx, ebx
  0016e	ff 52 1c	 call	 DWORD PTR [edx+28]

; 86   : 			int nStyleCount = pIStyleManager->GetStyleCount();

  00171	8b 13		 mov	 edx, DWORD PTR [ebx]
  00173	8b cb		 mov	 ecx, ebx
  00175	ff 52 10	 call	 DWORD PTR [edx+16]
  00178	33 ff		 xor	 edi, edi
  0017a	89 45 cc	 mov	 DWORD PTR _nStyleCount$1$[ebp], eax

; 87   : 			for( int i = 0; i < nStyleCount; i++)

  0017d	85 c0		 test	 eax, eax
  0017f	7e 22		 jle	 SHORT $LN3@OnInitDial
$LL4@OnInitDial:

; 88   : 				m_cbxStyleList.AddString( pIStyleManager->GetStyleName( i));

  00181	8b 13		 mov	 edx, DWORD PTR [ebx]
  00183	8b cb		 mov	 ecx, ebx
  00185	57		 push	 edi
  00186	ff 52 14	 call	 DWORD PTR [edx+20]
; File C:\Program Files (x86)\Microsoft Visual Studio\2019\Community\VC\Tools\MSVC\14.29.30133\atlmfc\include\afxwin2.inl

; 795  : 	{ ASSERT(::IsWindow(m_hWnd)); return (int)::SendMessage(m_hWnd, CB_ADDSTRING, 0, (LPARAM)lpszString); }

  00189	50		 push	 eax
  0018a	6a 00		 push	 0
  0018c	68 43 01 00 00	 push	 323			; 00000143H
  00191	ff b6 c8 00 00
	00		 push	 DWORD PTR [esi+200]
  00197	ff 15 00 00 00
	00		 call	 DWORD PTR __imp__SendMessageA@16
; File D:\git\src\IBK\IBK_DRFN\ProjSrc\SrcChartEx\ChartOCX\ChartObject\DlgGraphMove.cpp

; 87   : 			for( int i = 0; i < nStyleCount; i++)

  0019d	47		 inc	 edi
  0019e	3b 7d cc	 cmp	 edi, DWORD PTR _nStyleCount$1$[ebp]
  001a1	7c de		 jl	 SHORT $LL4@OnInitDial
$LN3@OnInitDial:

; 89   : 			pIStyleManager->Release();

  001a3	8b 03		 mov	 eax, DWORD PTR [ebx]
  001a5	53		 push	 ebx
  001a6	ff 50 08	 call	 DWORD PTR [eax+8]

; 91   : 			m_cbxStyleList.SetCurSel( nStyleCount - 1);

  001a9	8b 45 cc	 mov	 eax, DWORD PTR _nStyleCount$1$[ebp]
; File C:\Program Files (x86)\Microsoft Visual Studio\2019\Community\VC\Tools\MSVC\14.29.30133\atlmfc\include\afxwin2.inl

; 767  : 	{ ASSERT(::IsWindow(m_hWnd)); return (int)::SendMessage(m_hWnd, CB_SETCURSEL, nSelect, 0); }

  001ac	6a 00		 push	 0
; File D:\git\src\IBK\IBK_DRFN\ProjSrc\SrcChartEx\ChartOCX\ChartObject\DlgGraphMove.cpp

; 91   : 			m_cbxStyleList.SetCurSel( nStyleCount - 1);

  001ae	48		 dec	 eax
; File C:\Program Files (x86)\Microsoft Visual Studio\2019\Community\VC\Tools\MSVC\14.29.30133\atlmfc\include\afxwin2.inl

; 767  : 	{ ASSERT(::IsWindow(m_hWnd)); return (int)::SendMessage(m_hWnd, CB_SETCURSEL, nSelect, 0); }

  001af	50		 push	 eax
  001b0	68 4e 01 00 00	 push	 334			; 0000014eH
  001b5	ff b6 c8 00 00
	00		 push	 DWORD PTR [esi+200]
  001bb	ff 15 00 00 00
	00		 call	 DWORD PTR __imp__SendMessageA@16
; File D:\git\src\IBK\IBK_DRFN\ProjSrc\SrcChartEx\ChartOCX\ChartObject\DlgGraphMove.cpp

; 93   : 	}

  001c1	eb 52		 jmp	 SHORT $LN49@OnInitDial
$LN5@OnInitDial:
  001c3	0f 57 c0	 xorps	 xmm0, xmm0

; 97   : 		GetDlgItem( IDC_DRAW_STATIC)->GetWindowRect( &rctStyle);

  001c6	8b ce		 mov	 ecx, esi
  001c8	68 8e 1b 00 00	 push	 7054			; 00001b8eH
; File C:\Program Files (x86)\Microsoft Visual Studio\2019\Community\VC\Tools\MSVC\14.29.30133\atlmfc\include\atltypes.h

; 528  : 	left = 0;

  001cd	0f 11 45 d0	 movups	 XMMWORD PTR _rctStyle$4[ebp], xmm0
; File D:\git\src\IBK\IBK_DRFN\ProjSrc\SrcChartEx\ChartOCX\ChartObject\DlgGraphMove.cpp

; 97   : 		GetDlgItem( IDC_DRAW_STATIC)->GetWindowRect( &rctStyle);

  001d1	e8 00 00 00 00	 call	 ?GetDlgItem@CWnd@@QBEPAV1@H@Z ; CWnd::GetDlgItem
; File C:\Program Files (x86)\Microsoft Visual Studio\2019\Community\VC\Tools\MSVC\14.29.30133\atlmfc\include\afxwin2.inl

; 84   : 	{ ASSERT(::IsWindow(m_hWnd)); ::GetWindowRect(m_hWnd, lpRect); }

  001d6	8b 3d 00 00 00
	00		 mov	 edi, DWORD PTR __imp__GetWindowRect@8
  001dc	8d 4d d0	 lea	 ecx, DWORD PTR _rctStyle$4[ebp]
  001df	51		 push	 ecx
  001e0	ff 70 20	 push	 DWORD PTR [eax+32]
  001e3	ff d7		 call	 edi
  001e5	8d 45 e0	 lea	 eax, DWORD PTR _rctWnd$5[ebp]
  001e8	0f 57 c0	 xorps	 xmm0, xmm0
  001eb	50		 push	 eax
  001ec	ff 76 20	 push	 DWORD PTR [esi+32]
; File C:\Program Files (x86)\Microsoft Visual Studio\2019\Community\VC\Tools\MSVC\14.29.30133\atlmfc\include\atltypes.h

; 528  : 	left = 0;

  001ef	0f 11 45 e0	 movups	 XMMWORD PTR _rctWnd$5[ebp], xmm0
; File C:\Program Files (x86)\Microsoft Visual Studio\2019\Community\VC\Tools\MSVC\14.29.30133\atlmfc\include\afxwin2.inl

; 84   : 	{ ASSERT(::IsWindow(m_hWnd)); ::GetWindowRect(m_hWnd, lpRect); }

  001f3	ff d7		 call	 edi

; 73   : 	{ MoveWindow(lpRect->left, lpRect->top, lpRect->right - lpRect->left,

  001f5	8b 4d e4	 mov	 ecx, DWORD PTR _rctWnd$5[ebp+4]
  001f8	8b 45 ec	 mov	 eax, DWORD PTR _rctWnd$5[ebp+12]
; File D:\git\src\IBK\IBK_DRFN\ProjSrc\SrcChartEx\ChartOCX\ChartObject\DlgGraphMove.cpp

; 100  : 		rctWnd.right = rctStyle.left;

  001fb	8b 55 d0	 mov	 edx, DWORD PTR _rctStyle$4[ebp]
; File C:\Program Files (x86)\Microsoft Visual Studio\2019\Community\VC\Tools\MSVC\14.29.30133\atlmfc\include\afxwin2.inl

; 73   : 	{ MoveWindow(lpRect->left, lpRect->top, lpRect->right - lpRect->left,

  001fe	2b c1		 sub	 eax, ecx
  00200	6a 01		 push	 1
  00202	50		 push	 eax
  00203	8b 45 e0	 mov	 eax, DWORD PTR _rctWnd$5[ebp]
; File D:\git\src\IBK\IBK_DRFN\ProjSrc\SrcChartEx\ChartOCX\ChartObject\DlgGraphMove.cpp

; 100  : 		rctWnd.right = rctStyle.left;

  00206	89 55 e8	 mov	 DWORD PTR _rctWnd$5[ebp+8], edx
; File C:\Program Files (x86)\Microsoft Visual Studio\2019\Community\VC\Tools\MSVC\14.29.30133\atlmfc\include\afxwin2.inl

; 73   : 	{ MoveWindow(lpRect->left, lpRect->top, lpRect->right - lpRect->left,

  00209	2b d0		 sub	 edx, eax
  0020b	52		 push	 edx
  0020c	51		 push	 ecx
  0020d	50		 push	 eax
  0020e	8b ce		 mov	 ecx, esi
  00210	e8 00 00 00 00	 call	 ?MoveWindow@CWnd@@QAEXHHHHH@Z ; CWnd::MoveWindow
$LN49@OnInitDial:
; File D:\git\src\IBK\IBK_DRFN\ProjSrc\SrcChartEx\ChartOCX\ChartObject\DlgGraphMove.cpp

; 106  : }

  00215	b8 01 00 00 00	 mov	 eax, 1
  0021a	8b 4d f4	 mov	 ecx, DWORD PTR __$EHRec$[ebp]
  0021d	64 89 0d 00 00
	00 00		 mov	 DWORD PTR fs:0, ecx
  00224	59		 pop	 ecx
  00225	5f		 pop	 edi
  00226	5e		 pop	 esi
  00227	5b		 pop	 ebx
  00228	8b 4d f0	 mov	 ecx, DWORD PTR __$ArrayPad$[ebp]
  0022b	33 cd		 xor	 ecx, ebp
  0022d	e8 00 00 00 00	 call	 @__security_check_cookie@4
  00232	8b e5		 mov	 esp, ebp
  00234	5d		 pop	 ebp
  00235	c3		 ret	 0
_TEXT	ENDS
;	COMDAT text$x
text$x	SEGMENT
__unwindfunclet$?OnInitDialog@CDlgGraphMove@@MAEHXZ$0:
  00000	8d 8d 68 ff ff
	ff		 lea	 ecx, DWORD PTR _vertScaleGroupData$2[ebp]
  00006	e9 00 00 00 00	 jmp	 ??1CVerticalScaleGroupData@@QAE@XZ
  0000b	cc		 int	 3
  0000c	cc		 int	 3
  0000d	cc		 int	 3
  0000e	cc		 int	 3
  0000f	cc		 int	 3
__ehhandler$?OnInitDialog@CDlgGraphMove@@MAEHXZ:
  00010	90		 npad	 1
  00011	90		 npad	 1
  00012	8b 54 24 08	 mov	 edx, DWORD PTR [esp+8]
  00016	8d 42 0c	 lea	 eax, DWORD PTR [edx+12]
  00019	8b 8a 64 ff ff
	ff		 mov	 ecx, DWORD PTR [edx-156]
  0001f	33 c8		 xor	 ecx, eax
  00021	e8 00 00 00 00	 call	 @__security_check_cookie@4
  00026	8b 4a fc	 mov	 ecx, DWORD PTR [edx-4]
  00029	33 c8		 xor	 ecx, eax
  0002b	e8 00 00 00 00	 call	 @__security_check_cookie@4
  00030	b8 00 00 00 00	 mov	 eax, OFFSET __ehfuncinfo$?OnInitDialog@CDlgGraphMove@@MAEHXZ
  00035	e9 00 00 00 00	 jmp	 ___CxxFrameHandler3
text$x	ENDS
?OnInitDialog@CDlgGraphMove@@MAEHXZ ENDP		; CDlgGraphMove::OnInitDialog
; Function compile flags: /Ogtp
; File D:\git\src\IBK\IBK_DRFN\ProjSrc\SrcChartEx\ChartOCX\ChartObject\DlgGraphMove.cpp
;	COMDAT ?DoDataExchange@CDlgGraphMove@@MAEXPAVCDataExchange@@@Z
_TEXT	SEGMENT
_pDX$ = 8						; size = 4
?DoDataExchange@CDlgGraphMove@@MAEXPAVCDataExchange@@@Z PROC ; CDlgGraphMove::DoDataExchange, COMDAT
; _this$ = ecx

; 43   : {

  00000	55		 push	 ebp
  00001	8b ec		 mov	 ebp, esp
  00003	56		 push	 esi

; 44   : 	CDialog::DoDataExchange(pDX);
; 45   : 	//{{AFX_DATA_MAP(CDlgGraphMove)
; 46   : 	DDX_Control(pDX, IDC_STYLECOMBO, m_cbxStyleList);

  00004	8b 75 08	 mov	 esi, DWORD PTR _pDX$[ebp]
  00007	57		 push	 edi
  00008	8b f9		 mov	 edi, ecx
  0000a	8d 87 a8 00 00
	00		 lea	 eax, DWORD PTR [edi+168]
  00010	50		 push	 eax
  00011	68 6b 1b 00 00	 push	 7019			; 00001b6bH
  00016	56		 push	 esi
  00017	e8 00 00 00 00	 call	 ?DDX_Control@@YGXPAVCDataExchange@@HAAVCWnd@@@Z ; DDX_Control

; 47   : 	DDX_Control(pDX, IDC_SCALEGROUP, m_ctlScaleGroup);

  0001c	8d 87 28 01 00
	00		 lea	 eax, DWORD PTR [edi+296]
  00022	50		 push	 eax
  00023	68 ea 03 00 00	 push	 1002			; 000003eaH
  00028	56		 push	 esi
  00029	e8 00 00 00 00	 call	 ?DDX_Control@@YGXPAVCDataExchange@@HAAVCWnd@@@Z ; DDX_Control

; 48   : 	DDX_CBIndex(pDX, IDC_SCALEGROUP, m_nScaleGroup);

  0002e	8d 87 a8 01 00
	00		 lea	 eax, DWORD PTR [edi+424]
  00034	50		 push	 eax
  00035	68 ea 03 00 00	 push	 1002			; 000003eaH
  0003a	56		 push	 esi
  0003b	e8 00 00 00 00	 call	 ?DDX_CBIndex@@YGXPAVCDataExchange@@HAAH@Z ; DDX_CBIndex

; 49   : 	DDX_Radio(pDX, IDC_SCALEPOSITION, m_nScalePosition);

  00040	8d 87 ac 01 00
	00		 lea	 eax, DWORD PTR [edi+428]
  00046	50		 push	 eax
  00047	68 eb 03 00 00	 push	 1003			; 000003ebH
  0004c	56		 push	 esi
  0004d	e8 00 00 00 00	 call	 ?DDX_Radio@@YGXPAVCDataExchange@@HAAH@Z ; DDX_Radio

; 50   : 	DDX_Radio(pDX, IDC_SCALEGRID, m_nScaleGrid);

  00052	8d 87 b0 01 00
	00		 lea	 eax, DWORD PTR [edi+432]
  00058	50		 push	 eax
  00059	68 ef 03 00 00	 push	 1007			; 000003efH
  0005e	56		 push	 esi
  0005f	e8 00 00 00 00	 call	 ?DDX_Radio@@YGXPAVCDataExchange@@HAAH@Z ; DDX_Radio
  00064	5f		 pop	 edi
  00065	5e		 pop	 esi

; 51   : 	//}}AFX_DATA_MAP
; 52   : }

  00066	5d		 pop	 ebp
  00067	c2 04 00	 ret	 4
?DoDataExchange@CDlgGraphMove@@MAEXPAVCDataExchange@@@Z ENDP ; CDlgGraphMove::DoDataExchange
_TEXT	ENDS
; Function compile flags: /Ogtp
; File D:\git\src\IBK\IBK_DRFN\ProjSrc\SrcChartEx\ChartOCX\ChartObject\DlgGraphMove.cpp
; File C:\Program Files (x86)\Microsoft Visual Studio\2019\Community\VC\Tools\MSVC\14.29.30133\atlmfc\include\afxwin2.inl
; File D:\git\src\IBK\IBK_DRFN\ProjSrc\SrcChartEx\ChartOCX\ChartObject\DlgGraphMove.cpp
; File C:\Program Files (x86)\Microsoft Visual Studio\2019\Community\VC\Tools\MSVC\14.29.30133\atlmfc\include\afxwin2.inl
; File D:\git\src\IBK\IBK_DRFN\ProjSrc\SrcChartEx\ChartOCX\ChartObject\DlgGraphMove.cpp
; File C:\Program Files (x86)\Microsoft Visual Studio\2019\Community\VC\Tools\MSVC\14.29.30133\atlmfc\include\afxwin2.inl
; File D:\git\src\IBK\IBK_DRFN\ProjSrc\SrcChartEx\ChartOCX\ChartObject\DlgGraphMove.cpp
; File C:\Program Files (x86)\Microsoft Visual Studio\2019\Community\VC\Tools\MSVC\14.29.30133\atlmfc\include\afxwin2.inl
; File D:\git\src\IBK\IBK_DRFN\ProjSrc\SrcChartEx\ChartOCX\ChartObject\DlgGraphMove.cpp
; File C:\Program Files (x86)\Microsoft Visual Studio\2019\Community\VC\Tools\MSVC\14.29.30133\atlmfc\include\afxwin2.inl
; File D:\git\src\IBK\IBK_DRFN\ProjSrc\SrcChartEx\ChartOCX\ChartObject\DlgGraphMove.cpp
;	COMDAT ??0CDlgGraphMove@@QAE@PAVCWnd@@PAVCGraphImp@@ABVCVerticalScaleGroupDataList@@PAUIChartCtrl@@@Z
_TEXT	SEGMENT
_this$ = -16						; size = 4
__$EHRec$ = -12						; size = 12
_this$ = 8						; size = 4
_this$ = 8						; size = 4
_pParent$ = 8						; size = 4
_pSourceGraph$ = 12					; size = 4
_vertScaleGroupDataList$ = 16				; size = 4
_p_pIChartCtrl$ = 20					; size = 4
??0CDlgGraphMove@@QAE@PAVCWnd@@PAVCGraphImp@@ABVCVerticalScaleGroupDataList@@PAUIChartCtrl@@@Z PROC ; CDlgGraphMove::CDlgGraphMove, COMDAT
; _this$ = ecx

; 28   : {

  00000	55		 push	 ebp
  00001	8b ec		 mov	 ebp, esp
  00003	6a ff		 push	 -1
  00005	68 00 00 00 00	 push	 __ehhandler$??0CDlgGraphMove@@QAE@PAVCWnd@@PAVCGraphImp@@ABVCVerticalScaleGroupDataList@@PAUIChartCtrl@@@Z
  0000a	64 a1 00 00 00
	00		 mov	 eax, DWORD PTR fs:0
  00010	50		 push	 eax
  00011	51		 push	 ecx
  00012	56		 push	 esi
  00013	57		 push	 edi
  00014	a1 00 00 00 00	 mov	 eax, DWORD PTR ___security_cookie
  00019	33 c5		 xor	 eax, ebp
  0001b	50		 push	 eax
  0001c	8d 45 f4	 lea	 eax, DWORD PTR __$EHRec$[ebp]
  0001f	64 a3 00 00 00
	00		 mov	 DWORD PTR fs:0, eax
  00025	8b f9		 mov	 edi, ecx
  00027	89 7d f0	 mov	 DWORD PTR _this$[ebp], edi

; 26   : 	: CDialog(CDlgGraphMove::IDD, pParent),

  0002a	ff 75 08	 push	 DWORD PTR _pParent$[ebp]
  0002d	68 31 23 00 00	 push	 9009			; 00002331H
  00032	e8 00 00 00 00	 call	 ??0CDialog@@QAE@IPAVCWnd@@@Z ; CDialog::CDialog

; 28   : {

  00037	8d b7 a8 00 00
	00		 lea	 esi, DWORD PTR [edi+168]
  0003d	c7 45 fc 00 00
	00 00		 mov	 DWORD PTR __$EHRec$[ebp+8], 0
; File C:\Program Files (x86)\Microsoft Visual Studio\2019\Community\VC\Tools\MSVC\14.29.30133\atlmfc\include\afxwin2.inl

; 761  : 	{ }

  00044	8b ce		 mov	 ecx, esi
; File D:\git\src\IBK\IBK_DRFN\ProjSrc\SrcChartEx\ChartOCX\ChartObject\DlgGraphMove.cpp

; 28   : {

  00046	c7 07 00 00 00
	00		 mov	 DWORD PTR [edi], OFFSET ??_7CDlgGraphMove@@6B@
  0004c	89 75 08	 mov	 DWORD PTR _this$[ebp], esi
; File C:\Program Files (x86)\Microsoft Visual Studio\2019\Community\VC\Tools\MSVC\14.29.30133\atlmfc\include\afxwin2.inl

; 761  : 	{ }

  0004f	e8 00 00 00 00	 call	 ??0CWnd@@QAE@XZ		; CWnd::CWnd
  00054	c7 06 00 00 00
	00		 mov	 DWORD PTR [esi], OFFSET ??_7CComboBox@@6B@
; File D:\git\src\IBK\IBK_DRFN\ProjSrc\SrcChartEx\ChartOCX\ChartObject\DlgGraphMove.cpp

; 28   : {

  0005a	8d b7 28 01 00
	00		 lea	 esi, DWORD PTR [edi+296]
  00060	c6 45 fc 01	 mov	 BYTE PTR __$EHRec$[ebp+8], 1
; File C:\Program Files (x86)\Microsoft Visual Studio\2019\Community\VC\Tools\MSVC\14.29.30133\atlmfc\include\afxwin2.inl

; 761  : 	{ }

  00064	8b ce		 mov	 ecx, esi
; File D:\git\src\IBK\IBK_DRFN\ProjSrc\SrcChartEx\ChartOCX\ChartObject\DlgGraphMove.cpp

; 28   : {

  00066	89 75 08	 mov	 DWORD PTR _this$[ebp], esi
; File C:\Program Files (x86)\Microsoft Visual Studio\2019\Community\VC\Tools\MSVC\14.29.30133\atlmfc\include\afxwin2.inl

; 761  : 	{ }

  00069	e8 00 00 00 00	 call	 ??0CWnd@@QAE@XZ		; CWnd::CWnd
; File D:\git\src\IBK\IBK_DRFN\ProjSrc\SrcChartEx\ChartOCX\ChartObject\DlgGraphMove.cpp

; 27   : 	m_pVertScaleGroupDataList(&vertScaleGroupDataList)

  0006e	8b 45 10	 mov	 eax, DWORD PTR _vertScaleGroupDataList$[ebp]
; File C:\Program Files (x86)\Microsoft Visual Studio\2019\Community\VC\Tools\MSVC\14.29.30133\atlmfc\include\afxwin2.inl

; 761  : 	{ }

  00071	c7 06 00 00 00
	00		 mov	 DWORD PTR [esi], OFFSET ??_7CComboBox@@6B@
; File D:\git\src\IBK\IBK_DRFN\ProjSrc\SrcChartEx\ChartOCX\ChartObject\DlgGraphMove.cpp

; 27   : 	m_pVertScaleGroupDataList(&vertScaleGroupDataList)

  00077	89 87 b4 01 00
	00		 mov	 DWORD PTR [edi+436], eax

; 29   : 	//{{AFX_DATA_INIT(CDlgGraphMove)
; 30   : 	m_nScaleGroup = 0;
; 31   : 	m_nScalePosition = 1;
; 32   : 	m_nScaleGrid = 0;
; 33   : 	//}}AFX_DATA_INIT
; 34   : 
; 35   : 	// (2009/9/21 - Seung-Won, Bae) Show Style Type on Price, Volume and MAs.
; 36   : 	m_pSourceGraph = pSourceGraph;

  0007d	8b 45 0c	 mov	 eax, DWORD PTR _pSourceGraph$[ebp]
  00080	89 87 b8 01 00
	00		 mov	 DWORD PTR [edi+440], eax

; 37   : 	m_pIChartCtrl = p_pIChartCtrl;

  00086	8b 45 14	 mov	 eax, DWORD PTR _p_pIChartCtrl$[ebp]
  00089	89 87 bc 01 00
	00		 mov	 DWORD PTR [edi+444], eax

; 38   : 	m_pTitleFont = NULL;
; 39   : }

  0008f	8b c7		 mov	 eax, edi
  00091	c7 87 a8 01 00
	00 00 00 00 00	 mov	 DWORD PTR [edi+424], 0
  0009b	c7 87 ac 01 00
	00 01 00 00 00	 mov	 DWORD PTR [edi+428], 1
  000a5	c7 87 b0 01 00
	00 00 00 00 00	 mov	 DWORD PTR [edi+432], 0
  000af	c7 87 c0 01 00
	00 00 00 00 00	 mov	 DWORD PTR [edi+448], 0
  000b9	8b 4d f4	 mov	 ecx, DWORD PTR __$EHRec$[ebp]
  000bc	64 89 0d 00 00
	00 00		 mov	 DWORD PTR fs:0, ecx
  000c3	59		 pop	 ecx
  000c4	5f		 pop	 edi
  000c5	5e		 pop	 esi
  000c6	8b e5		 mov	 esp, ebp
  000c8	5d		 pop	 ebp
  000c9	c2 10 00	 ret	 16			; 00000010H
_TEXT	ENDS
;	COMDAT text$x
text$x	SEGMENT
__unwindfunclet$??0CDlgGraphMove@@QAE@PAVCWnd@@PAVCGraphImp@@ABVCVerticalScaleGroupDataList@@PAUIChartCtrl@@@Z$0:
  00000	8b 4d f0	 mov	 ecx, DWORD PTR _this$[ebp]
  00003	e9 00 00 00 00	 jmp	 ??1CDialog@@UAE@XZ	; CDialog::~CDialog
__unwindfunclet$??0CDlgGraphMove@@QAE@PAVCWnd@@PAVCGraphImp@@ABVCVerticalScaleGroupDataList@@PAUIChartCtrl@@@Z$1:
  00008	8b 4d f0	 mov	 ecx, DWORD PTR _this$[ebp]
  0000b	81 c1 a8 00 00
	00		 add	 ecx, 168		; 000000a8H
  00011	e9 00 00 00 00	 jmp	 ??1CComboBox@@UAE@XZ	; CComboBox::~CComboBox
  00016	cc		 int	 3
  00017	cc		 int	 3
  00018	cc		 int	 3
  00019	cc		 int	 3
  0001a	cc		 int	 3
__ehhandler$??0CDlgGraphMove@@QAE@PAVCWnd@@PAVCGraphImp@@ABVCVerticalScaleGroupDataList@@PAUIChartCtrl@@@Z:
  0001b	90		 npad	 1
  0001c	90		 npad	 1
  0001d	8b 54 24 08	 mov	 edx, DWORD PTR [esp+8]
  00021	8d 42 0c	 lea	 eax, DWORD PTR [edx+12]
  00024	8b 4a f0	 mov	 ecx, DWORD PTR [edx-16]
  00027	33 c8		 xor	 ecx, eax
  00029	e8 00 00 00 00	 call	 @__security_check_cookie@4
  0002e	b8 00 00 00 00	 mov	 eax, OFFSET __ehfuncinfo$??0CDlgGraphMove@@QAE@PAVCWnd@@PAVCGraphImp@@ABVCVerticalScaleGroupDataList@@PAUIChartCtrl@@@Z
  00033	e9 00 00 00 00	 jmp	 ___CxxFrameHandler3
text$x	ENDS
??0CDlgGraphMove@@QAE@PAVCWnd@@PAVCGraphImp@@ABVCVerticalScaleGroupDataList@@PAUIChartCtrl@@@Z ENDP ; CDlgGraphMove::CDlgGraphMove
; Function compile flags: /Ogtp
; File C:\Program Files (x86)\Microsoft Visual Studio\2019\Community\VC\Tools\MSVC\14.29.30133\atlmfc\include\afx.inl
;	COMDAT ??_GCComboBox@@UAEPAXI@Z
_TEXT	SEGMENT
___flags$ = 8						; size = 4
??_GCComboBox@@UAEPAXI@Z PROC				; CComboBox::`scalar deleting destructor', COMDAT
; _this$ = ecx
  00000	55		 push	 ebp
  00001	8b ec		 mov	 ebp, esp
  00003	56		 push	 esi
  00004	8b f1		 mov	 esi, ecx
  00006	e8 00 00 00 00	 call	 ??1CComboBox@@UAE@XZ	; CComboBox::~CComboBox
  0000b	8b 45 08	 mov	 eax, DWORD PTR ___flags$[ebp]
  0000e	a8 01		 test	 al, 1
  00010	74 22		 je	 SHORT $LN9@scalar
  00012	a8 04		 test	 al, 4
  00014	75 10		 jne	 SHORT $LN3@scalar

; 112  : 	{ ::operator delete(p); }

  00016	56		 push	 esi
  00017	e8 00 00 00 00	 call	 ??3@YAXPAX@Z		; operator delete
  0001c	83 c4 04	 add	 esp, 4
  0001f	8b c6		 mov	 eax, esi
  00021	5e		 pop	 esi
  00022	5d		 pop	 ebp
  00023	c2 04 00	 ret	 4
$LN3@scalar:
  00026	68 80 00 00 00	 push	 128			; 00000080H
  0002b	56		 push	 esi
  0002c	e8 00 00 00 00	 call	 ?__global_delete@@YAXPAXI@Z ; __global_delete
  00031	83 c4 08	 add	 esp, 8
$LN9@scalar:
  00034	8b c6		 mov	 eax, esi
  00036	5e		 pop	 esi
  00037	5d		 pop	 ebp
  00038	c2 04 00	 ret	 4
??_GCComboBox@@UAEPAXI@Z ENDP				; CComboBox::`scalar deleting destructor'
_TEXT	ENDS
; Function compile flags: /Ogtp
; File C:\Program Files (x86)\Microsoft Visual Studio\2019\Community\VC\Tools\MSVC\14.29.30133\atlmfc\include\afxwin2.inl
;	COMDAT ?Create@CDialog@@UAEHIPAVCWnd@@@Z
_TEXT	SEGMENT
_nIDTemplate$ = 8					; size = 4
_pParentWnd$ = 12					; size = 4
?Create@CDialog@@UAEHIPAVCWnd@@@Z PROC			; CDialog::Create, COMDAT
; _this$ = ecx

; 585  : 	{ return CDialog::Create(ATL_MAKEINTRESOURCE(nIDTemplate), pParentWnd); }

  00000	55		 push	 ebp
  00001	8b ec		 mov	 ebp, esp
  00003	0f b7 45 08	 movzx	 eax, WORD PTR _nIDTemplate$[ebp]
  00007	89 45 08	 mov	 DWORD PTR _nIDTemplate$[ebp], eax
  0000a	5d		 pop	 ebp
  0000b	e9 00 00 00 00	 jmp	 ?Create@CDialog@@UAEHPBDPAVCWnd@@@Z ; CDialog::Create
?Create@CDialog@@UAEHIPAVCWnd@@@Z ENDP			; CDialog::Create
_TEXT	ENDS
; Function compile flags: /Ogtp
; File C:\Program Files (x86)\Microsoft Visual Studio\2019\Community\VC\Tools\MSVC\14.29.30133\atlmfc\include\afxwin2.inl
;	COMDAT ?EndModalState@CWnd@@UAEXXZ
_TEXT	SEGMENT
?EndModalState@CWnd@@UAEXXZ PROC			; CWnd::EndModalState, COMDAT
; _this$ = ecx

; 567  : 	{ ::EnableWindow(m_hWnd, TRUE); }

  00000	6a 01		 push	 1
  00002	ff 71 20	 push	 DWORD PTR [ecx+32]
  00005	ff 15 00 00 00
	00		 call	 DWORD PTR __imp__EnableWindow@8
  0000b	c3		 ret	 0
?EndModalState@CWnd@@UAEXXZ ENDP			; CWnd::EndModalState
_TEXT	ENDS
; Function compile flags: /Ogtp
; File C:\Program Files (x86)\Microsoft Visual Studio\2019\Community\VC\Tools\MSVC\14.29.30133\atlmfc\include\afxwin2.inl
;	COMDAT ?BeginModalState@CWnd@@UAEXXZ
_TEXT	SEGMENT
?BeginModalState@CWnd@@UAEXXZ PROC			; CWnd::BeginModalState, COMDAT
; _this$ = ecx

; 565  : 	{ ::EnableWindow(m_hWnd, FALSE); }

  00000	6a 00		 push	 0
  00002	ff 71 20	 push	 DWORD PTR [ecx+32]
  00005	ff 15 00 00 00
	00		 call	 DWORD PTR __imp__EnableWindow@8
  0000b	c3		 ret	 0
?BeginModalState@CWnd@@UAEXXZ ENDP			; CWnd::BeginModalState
_TEXT	ENDS
; Function compile flags: /Ogtp
; File C:\Program Files (x86)\Microsoft Visual Studio\2019\Community\VC\Tools\MSVC\14.29.30133\atlmfc\include\afxwin2.inl
;	COMDAT ?DoDataExchange@CWnd@@MAEXPAVCDataExchange@@@Z
_TEXT	SEGMENT
___formal$ = 8						; size = 4
?DoDataExchange@CWnd@@MAEXPAVCDataExchange@@@Z PROC	; CWnd::DoDataExchange, COMDAT
; _this$ = ecx

; 561  : 	{ } // default does nothing

  00000	c2 04 00	 ret	 4
?DoDataExchange@CWnd@@MAEXPAVCDataExchange@@@Z ENDP	; CWnd::DoDataExchange
_TEXT	ENDS
; Function compile flags: /Ogtp
; File C:\Program Files (x86)\Microsoft Visual Studio\2019\Community\VC\Tools\MSVC\14.29.30133\atlmfc\include\afxwin1.inl
; File C:\Program Files (x86)\Microsoft Visual Studio\2019\Community\VC\Tools\MSVC\14.29.30133\atlmfc\include\afx.inl
;	COMDAT ??_GCFont@@UAEPAXI@Z
_TEXT	SEGMENT
___flags$ = 8						; size = 4
??_GCFont@@UAEPAXI@Z PROC				; CFont::`scalar deleting destructor', COMDAT
; _this$ = ecx
  00000	55		 push	 ebp
  00001	8b ec		 mov	 ebp, esp
; File C:\Program Files (x86)\Microsoft Visual Studio\2019\Community\VC\Tools\MSVC\14.29.30133\atlmfc\include\afxwin1.inl

; 155  : 	{ }

  00003	56		 push	 esi
  00004	8b f1		 mov	 esi, ecx
  00006	c7 06 00 00 00
	00		 mov	 DWORD PTR [esi], OFFSET ??_7CFont@@6B@
  0000c	e8 00 00 00 00	 call	 ??1CGdiObject@@UAE@XZ	; CGdiObject::~CGdiObject
  00011	8b 45 08	 mov	 eax, DWORD PTR ___flags$[ebp]
  00014	a8 01		 test	 al, 1
  00016	74 1f		 je	 SHORT $LN12@scalar
  00018	a8 04		 test	 al, 4
  0001a	75 10		 jne	 SHORT $LN3@scalar
; File C:\Program Files (x86)\Microsoft Visual Studio\2019\Community\VC\Tools\MSVC\14.29.30133\atlmfc\include\afx.inl

; 112  : 	{ ::operator delete(p); }

  0001c	56		 push	 esi
  0001d	e8 00 00 00 00	 call	 ??3@YAXPAX@Z		; operator delete
  00022	83 c4 04	 add	 esp, 4
  00025	8b c6		 mov	 eax, esi
  00027	5e		 pop	 esi
  00028	5d		 pop	 ebp
  00029	c2 04 00	 ret	 4
$LN3@scalar:
  0002c	6a 08		 push	 8
  0002e	56		 push	 esi
  0002f	e8 00 00 00 00	 call	 ?__global_delete@@YAXPAXI@Z ; __global_delete
  00034	83 c4 08	 add	 esp, 8
$LN12@scalar:
  00037	8b c6		 mov	 eax, esi
  00039	5e		 pop	 esi
  0003a	5d		 pop	 ebp
  0003b	c2 04 00	 ret	 4
??_GCFont@@UAEPAXI@Z ENDP				; CFont::`scalar deleting destructor'
_TEXT	ENDS
; Function compile flags: /Ogtp
; File C:\Program Files (x86)\Microsoft Visual Studio\2019\Community\VC\Tools\MSVC\14.29.30133\atlmfc\include\afxwin1.inl
;	COMDAT ??1CFont@@UAE@XZ
_TEXT	SEGMENT
??1CFont@@UAE@XZ PROC					; CFont::~CFont, COMDAT
; _this$ = ecx

; 155  : 	{ }

  00000	c7 01 00 00 00
	00		 mov	 DWORD PTR [ecx], OFFSET ??_7CFont@@6B@
  00006	e9 00 00 00 00	 jmp	 ??1CGdiObject@@UAE@XZ	; CGdiObject::~CGdiObject
??1CFont@@UAE@XZ ENDP					; CFont::~CFont
_TEXT	ENDS
; Function compile flags: /Ogtp
; File C:\Program Files (x86)\Microsoft Visual Studio\2019\Community\VC\Tools\MSVC\14.29.30133\atlmfc\include\afx.inl
;	COMDAT ??_GCGdiObject@@UAEPAXI@Z
_TEXT	SEGMENT
___flags$ = 8						; size = 4
??_GCGdiObject@@UAEPAXI@Z PROC				; CGdiObject::`scalar deleting destructor', COMDAT
; _this$ = ecx
  00000	55		 push	 ebp
  00001	8b ec		 mov	 ebp, esp
  00003	56		 push	 esi
  00004	8b f1		 mov	 esi, ecx
  00006	e8 00 00 00 00	 call	 ??1CGdiObject@@UAE@XZ	; CGdiObject::~CGdiObject
  0000b	8b 45 08	 mov	 eax, DWORD PTR ___flags$[ebp]
  0000e	a8 01		 test	 al, 1
  00010	74 1f		 je	 SHORT $LN9@scalar
  00012	a8 04		 test	 al, 4
  00014	75 10		 jne	 SHORT $LN3@scalar

; 112  : 	{ ::operator delete(p); }

  00016	56		 push	 esi
  00017	e8 00 00 00 00	 call	 ??3@YAXPAX@Z		; operator delete
  0001c	83 c4 04	 add	 esp, 4
  0001f	8b c6		 mov	 eax, esi
  00021	5e		 pop	 esi
  00022	5d		 pop	 ebp
  00023	c2 04 00	 ret	 4
$LN3@scalar:
  00026	6a 08		 push	 8
  00028	56		 push	 esi
  00029	e8 00 00 00 00	 call	 ?__global_delete@@YAXPAXI@Z ; __global_delete
  0002e	83 c4 08	 add	 esp, 8
$LN9@scalar:
  00031	8b c6		 mov	 eax, esi
  00033	5e		 pop	 esi
  00034	5d		 pop	 ebp
  00035	c2 04 00	 ret	 4
??_GCGdiObject@@UAEPAXI@Z ENDP				; CGdiObject::`scalar deleting destructor'
_TEXT	ENDS
; Function compile flags: /Ogtp
; File C:\Program Files (x86)\Microsoft Visual Studio\2019\Community\VC\Tools\MSVC\14.29.30133\atlmfc\include\afxwin1.inl
;	COMDAT ??1CGdiObject@@UAE@XZ
_TEXT	SEGMENT
_pException$2 = -540					; size = 4
_strMsg$3 = -536					; size = 4
_szErrorMessage$4 = -532				; size = 512
__$ArrayPad$ = -20					; size = 4
__$EHRec$ = -16						; size = 16
??1CGdiObject@@UAE@XZ PROC				; CGdiObject::~CGdiObject, COMDAT
; _this$ = ecx

; 74   : {

  00000	55		 push	 ebp
  00001	8b ec		 mov	 ebp, esp
  00003	6a ff		 push	 -1
  00005	68 00 00 00 00	 push	 __ehhandler$??1CGdiObject@@UAE@XZ
  0000a	64 a1 00 00 00
	00		 mov	 eax, DWORD PTR fs:0
  00010	50		 push	 eax
  00011	81 ec 10 02 00
	00		 sub	 esp, 528		; 00000210H
  00017	a1 00 00 00 00	 mov	 eax, DWORD PTR ___security_cookie
  0001c	33 c5		 xor	 eax, ebp
  0001e	89 45 ec	 mov	 DWORD PTR __$ArrayPad$[ebp], eax
  00021	53		 push	 ebx
  00022	56		 push	 esi
  00023	57		 push	 edi
  00024	50		 push	 eax
  00025	8d 45 f4	 lea	 eax, DWORD PTR __$EHRec$[ebp+4]
  00028	64 a3 00 00 00
	00		 mov	 DWORD PTR fs:0, eax
  0002e	89 65 f0	 mov	 DWORD PTR __$EHRec$[ebp], esp
  00031	c7 01 00 00 00
	00		 mov	 DWORD PTR [ecx], OFFSET ??_7CGdiObject@@6B@

; 75   : 	AFX_BEGIN_DESTRUCTOR

  00037	c7 45 fc 00 00
	00 00		 mov	 DWORD PTR __$EHRec$[ebp+12], 0

; 76   : 	DeleteObject();

  0003e	e8 00 00 00 00	 call	 ?DeleteObject@CGdiObject@@QAEHXZ ; CGdiObject::DeleteObject
$LN18@CGdiObject:

; 78   : }

  00043	8b 4d f4	 mov	 ecx, DWORD PTR __$EHRec$[ebp+4]
  00046	64 89 0d 00 00
	00 00		 mov	 DWORD PTR fs:0, ecx
  0004d	59		 pop	 ecx
  0004e	5f		 pop	 edi
  0004f	5e		 pop	 esi
  00050	5b		 pop	 ebx
  00051	8b 4d ec	 mov	 ecx, DWORD PTR __$ArrayPad$[ebp]
  00054	33 cd		 xor	 ecx, ebp
  00056	e8 00 00 00 00	 call	 @__security_check_cookie@4
  0005b	8b e5		 mov	 esp, ebp
  0005d	5d		 pop	 ebp
  0005e	c3		 ret	 0
__catch$??1CGdiObject@@UAE@XZ$0:

; 77   : 	AFX_END_DESTRUCTOR

  0005f	8d 8d e8 fd ff
	ff		 lea	 ecx, DWORD PTR _strMsg$3[ebp]
  00065	ff 15 00 00 00
	00		 call	 DWORD PTR __imp_??0?$CStringT@DV?$StrTraitMFC_DLL@DV?$ChTraitsCRT@D@ATL@@@@@ATL@@QAE@XZ
  0006b	8b b5 e4 fd ff
	ff		 mov	 esi, DWORD PTR _pException$2[ebp]
  00071	8d 8d ec fd ff
	ff		 lea	 ecx, DWORD PTR _szErrorMessage$4[ebp]
  00077	6a 00		 push	 0
  00079	68 00 02 00 00	 push	 512			; 00000200H
  0007e	51		 push	 ecx
  0007f	8b 06		 mov	 eax, DWORD PTR [esi]
  00081	8b ce		 mov	 ecx, esi
  00083	c6 45 fc 02	 mov	 BYTE PTR __$EHRec$[ebp+12], 2
  00087	ff 50 14	 call	 DWORD PTR [eax+20]
  0008a	85 c0		 test	 eax, eax
  0008c	74 2a		 je	 SHORT $LN9@CGdiObject
  0008e	8d 85 ec fd ff
	ff		 lea	 eax, DWORD PTR _szErrorMessage$4[ebp]
  00094	50		 push	 eax
  00095	6a 4d		 push	 77			; 0000004dH
  00097	68 00 00 00 00	 push	 OFFSET ??_C@_0HD@JJCHHHNK@C?3?2Program?5Files?5?$CIx86?$CJ?2Microsof@
  0009c	68 00 00 00 00	 push	 OFFSET ??_C@_0BP@OIEOKIDM@Exception?5thrown?5in?5destructor@
  000a1	8d 85 e8 fd ff
	ff		 lea	 eax, DWORD PTR _strMsg$3[ebp]
  000a7	68 00 00 00 00	 push	 OFFSET ??_C@_0BB@HBOOMJBF@?$CFTs?5?$CI?$CFTs?3?$CFd?$CJ?6?$CFTs@
  000ac	50		 push	 eax
  000ad	ff 15 00 00 00
	00		 call	 DWORD PTR __imp_?Format@?$CStringT@DV?$StrTraitMFC_DLL@DV?$ChTraitsCRT@D@ATL@@@@@ATL@@QAAXPBDZZ
  000b3	83 c4 18	 add	 esp, 24			; 00000018H
  000b6	eb 21		 jmp	 SHORT $LN10@CGdiObject
$LN9@CGdiObject:
  000b8	6a 4d		 push	 77			; 0000004dH
  000ba	68 00 00 00 00	 push	 OFFSET ??_C@_0HD@JJCHHHNK@C?3?2Program?5Files?5?$CIx86?$CJ?2Microsof@
  000bf	68 00 00 00 00	 push	 OFFSET ??_C@_0BP@OIEOKIDM@Exception?5thrown?5in?5destructor@
  000c4	8d 85 e8 fd ff
	ff		 lea	 eax, DWORD PTR _strMsg$3[ebp]
  000ca	68 00 00 00 00	 push	 OFFSET ??_C@_0N@OMEMOKLE@?$CFTs?5?$CI?$CFTs?3?$CFd?$CJ@
  000cf	50		 push	 eax
  000d0	ff 15 00 00 00
	00		 call	 DWORD PTR __imp_?Format@?$CStringT@DV?$StrTraitMFC_DLL@DV?$ChTraitsCRT@D@ATL@@@@@ATL@@QAAXPBDZZ
  000d6	83 c4 14	 add	 esp, 20			; 00000014H
$LN10@CGdiObject:
  000d9	6a 00		 push	 0
  000db	6a 00		 push	 0
  000dd	ff b5 e8 fd ff
	ff		 push	 DWORD PTR _strMsg$3[ebp]
  000e3	e8 00 00 00 00	 call	 ?AfxMessageBox@@YGHPBDII@Z ; AfxMessageBox
  000e8	8d 8d e8 fd ff
	ff		 lea	 ecx, DWORD PTR _strMsg$3[ebp]
  000ee	ff 15 00 00 00
	00		 call	 DWORD PTR __imp_??1?$CStringT@DV?$StrTraitMFC_DLL@DV?$ChTraitsCRT@D@ATL@@@@@ATL@@QAE@XZ
  000f4	8b 06		 mov	 eax, DWORD PTR [esi]
  000f6	8b ce		 mov	 ecx, esi
  000f8	6a 01		 push	 1
  000fa	ff 50 04	 call	 DWORD PTR [eax+4]
  000fd	b8 00 00 00 00	 mov	 eax, $LN18@CGdiObject
  00102	c3		 ret	 0
_TEXT	ENDS
;	COMDAT text$x
text$x	SEGMENT
__unwindfunclet$??1CGdiObject@@UAE@XZ$2:
  00000	8d 8d e8 fd ff
	ff		 lea	 ecx, DWORD PTR _strMsg$3[ebp]
  00006	ff 25 00 00 00
	00		 jmp	 DWORD PTR __imp_??1?$CStringT@DV?$StrTraitMFC_DLL@DV?$ChTraitsCRT@D@ATL@@@@@ATL@@QAE@XZ
  0000c	cc		 int	 3
  0000d	cc		 int	 3
  0000e	cc		 int	 3
  0000f	cc		 int	 3
  00010	cc		 int	 3
__ehhandler$??1CGdiObject@@UAE@XZ:
  00011	90		 npad	 1
  00012	90		 npad	 1
  00013	8b 54 24 08	 mov	 edx, DWORD PTR [esp+8]
  00017	8d 42 0c	 lea	 eax, DWORD PTR [edx+12]
  0001a	8b 8a e0 fd ff
	ff		 mov	 ecx, DWORD PTR [edx-544]
  00020	33 c8		 xor	 ecx, eax
  00022	e8 00 00 00 00	 call	 @__security_check_cookie@4
  00027	8b 4a f8	 mov	 ecx, DWORD PTR [edx-8]
  0002a	33 c8		 xor	 ecx, eax
  0002c	e8 00 00 00 00	 call	 @__security_check_cookie@4
  00031	b8 00 00 00 00	 mov	 eax, OFFSET __ehfuncinfo$??1CGdiObject@@UAE@XZ
  00036	e9 00 00 00 00	 jmp	 ___CxxFrameHandler3
text$x	ENDS
??1CGdiObject@@UAE@XZ ENDP				; CGdiObject::~CGdiObject
; Function compile flags: /Ogtp
; File C:\Program Files (x86)\Microsoft Visual Studio\2019\Community\VC\Tools\MSVC\14.29.30133\atlmfc\include\afx.inl
;	COMDAT ?Dump@CObject@@UBEXAAVCDumpContext@@@Z
_TEXT	SEGMENT
___formal$ = 8						; size = 4
?Dump@CObject@@UBEXAAVCDumpContext@@@Z PROC		; CObject::Dump, COMDAT
; _this$ = ecx

; 122  : 	{ /* no dumping in release builds */ }

  00000	c2 04 00	 ret	 4
?Dump@CObject@@UBEXAAVCDumpContext@@@Z ENDP		; CObject::Dump
_TEXT	ENDS
; Function compile flags: /Ogtp
; File C:\Program Files (x86)\Microsoft Visual Studio\2019\Community\VC\Tools\MSVC\14.29.30133\atlmfc\include\afx.inl
;	COMDAT ?AssertValid@CObject@@UBEXXZ
_TEXT	SEGMENT
?AssertValid@CObject@@UBEXXZ PROC			; CObject::AssertValid, COMDAT
; _this$ = ecx

; 120  : 	{ /* no asserts in release builds */ }

  00000	c2 00 00	 ret	 0
?AssertValid@CObject@@UBEXXZ ENDP			; CObject::AssertValid
_TEXT	ENDS
; Function compile flags: /Ogtp
; File C:\Program Files (x86)\Microsoft Visual Studio\2019\Community\VC\Tools\MSVC\14.29.30133\atlmfc\include\afx.inl
;	COMDAT ?Serialize@CObject@@UAEXAAVCArchive@@@Z
_TEXT	SEGMENT
___formal$ = 8						; size = 4
?Serialize@CObject@@UAEXAAVCArchive@@@Z PROC		; CObject::Serialize, COMDAT
; _this$ = ecx

; 106  : 	{ /* CObject does not serialize anything by default */ }

  00000	c2 04 00	 ret	 4
?Serialize@CObject@@UAEXAAVCArchive@@@Z ENDP		; CObject::Serialize
_TEXT	ENDS
; Function compile flags: /Ogtp
; File C:\Program Files (x86)\Microsoft Visual Studio\2019\Community\VC\Tools\MSVC\14.29.30133\atlmfc\include\afx.inl
;	COMDAT ??1CObject@@UAE@XZ
_TEXT	SEGMENT
??1CObject@@UAE@XZ PROC					; CObject::~CObject, COMDAT
; _this$ = ecx

; 104  : 	{ }

  00000	c2 00 00	 ret	 0
??1CObject@@UAE@XZ ENDP					; CObject::~CObject
_TEXT	ENDS
; Function compile flags: /Ogtp
; File D:\git\src\IBK\IBK_DRFN\ProjSrc\SrcChartEx\ChartOCX\ChartObject\DlgGraphMove.cpp
;	COMDAT ?__empty_global_delete@@YAXPAXI@Z
_TEXT	SEGMENT
___formal$ = 8						; size = 4
___formal$ = 12						; size = 4
?__empty_global_delete@@YAXPAXI@Z PROC			; __empty_global_delete, COMDAT

  00000	c2 00 00	 ret	 0
?__empty_global_delete@@YAXPAXI@Z ENDP			; __empty_global_delete
_TEXT	ENDS
; Function compile flags: /Ogtp
; File D:\git\src\IBK\IBK_DRFN\ProjSrc\SrcChartEx\ChartOCX\ChartObject\DlgGraphMove.cpp
;	COMDAT ?__empty_global_delete@@YAXPAX@Z
_TEXT	SEGMENT
___formal$ = 8						; size = 4
?__empty_global_delete@@YAXPAX@Z PROC			; __empty_global_delete, COMDAT

  00000	c2 00 00	 ret	 0
?__empty_global_delete@@YAXPAX@Z ENDP			; __empty_global_delete
_TEXT	ENDS
END
