; Listing generated by Microsoft (R) Optimizing Compiler Version 19.29.30145.0 

	TITLE	D:\git\src\IBK\IBK_DRFN\#DRfn-CS\_Obj\ChartObject\DrawingRegionCalculator.obj
	.686P
	.XMM
	include listing.inc
	.model	flat

INCLUDELIB MSVCRT
INCLUDELIB OLDNAMES

PUBLIC	?__empty_global_delete@@YAXPAX@Z		; __empty_global_delete
PUBLIC	?__empty_global_delete@@YAXPAXI@Z		; __empty_global_delete
PUBLIC	?GetDrawingRegion@CDrawingRegionCalculator@@QBE?AVCDrawingRegion@@PAVCDC@@ABVCDrawingRegionCalData@@H@Z ; CDrawingRegionCalculator::GetDrawingRegion
PUBLIC	?GetLeftScaleRegion@CDrawingRegionCalculator@@ABE?AVCRect@@ABV2@00H@Z ; CDrawingRegionCalculator::GetLeftScaleRegion
PUBLIC	?GetRightScaleRegion@CDrawingRegionCalculator@@ABE?AVCRect@@ABV2@00H@Z ; CDrawingRegionCalculator::GetRightScaleRegion
PUBLIC	?GetTopScaleRegion@CDrawingRegionCalculator@@ABE?AVCRect@@ABV2@00@Z ; CDrawingRegionCalculator::GetTopScaleRegion
PUBLIC	?GetBottomScaleRegion@CDrawingRegionCalculator@@ABE?AVCRect@@ABV2@00@Z ; CDrawingRegionCalculator::GetBottomScaleRegion
PUBLIC	?GetGraphRegions@CGraphRegionCalculator@@QBE?AVCGraphRegions@@PAVCDC@@ABVCDrawingRegionCalData@@H@Z ; CGraphRegionCalculator::GetGraphRegions
PUBLIC	?GetGraphFrameRegion@CGraphRegionCalculator@@ABE?AVCRect@@PAVCDC@@ABVCDrawingRegionCalData@@@Z ; CGraphRegionCalculator::GetGraphFrameRegion
PUBLIC	?GetMaxGraphFrameRegion@CGraphRegionCalculator@@ABE?AVCRect@@ABV2@ABVCHorzScaleRegionHeight@@ABVCVertScaleRegionWidth@@@Z ; CGraphRegionCalculator::GetMaxGraphFrameRegion
PUBLIC	?GetRealGraphRegion@CGraphRegionCalculator@@ABE?AVCRect@@ABVCDrawingRegionCalData@@ABV2@@Z ; CGraphRegionCalculator::GetRealGraphRegion
PUBLIC	?GetVertScalePosition@CGraphRegionCalculator@@ABE?AW4VERTSCALEPOSITION@CScaleBaseData@@ABVCVertScaleRegionWidth@@@Z ; CGraphRegionCalculator::GetVertScalePosition
PUBLIC	?GetRemainedSpaceWidth@CGraphRegionCalculator@@ABEHHH@Z ; CGraphRegionCalculator::GetRemainedSpaceWidth
PUBLIC	?GetLeft@CGraphRegionCalculator@@ABEHW4VERTSCALEPOSITION@CScaleBaseData@@HHHH@Z ; CGraphRegionCalculator::GetLeft
PUBLIC	?GetRight@CGraphRegionCalculator@@ABEHW4VERTSCALEPOSITION@CScaleBaseData@@HHHH@Z ; CGraphRegionCalculator::GetRight
PUBLIC	?GetData@CGraphRegionCalculator@@ABEHHHHHH@Z	; CGraphRegionCalculator::GetData
PUBLIC	?IsGraphTextDraw@CGraphRegionCalculator@@ABE_NABVCRect@@ABVCDrawingRegionCalData@@@Z ; CGraphRegionCalculator::IsGraphTextDraw
PUBLIC	?GetMaxHorzScaleTextSize@CTextSizeCalculator@@QBE?AVCSize@@PAVCDC@@ABVCHorzScaleMaxWidthCalculatorData@@@Z ; CTextSizeCalculator::GetMaxHorzScaleTextSize
PUBLIC	?GetMaxVertScaleTextSize@CTextSizeCalculator@@QBE?AVCSize@@PAVCDC@@ABVCVertScaleMaxWidthCalculatorData@@@Z ; CTextSizeCalculator::GetMaxVertScaleTextSize
PUBLIC	?IsTextSizeCalculator@CTextSizeCalculator@@ABE_NPAVCPacket@@@Z ; CTextSizeCalculator::IsTextSizeCalculator
PUBLIC	?IsTextSizeCalculator@CTextSizeCalculator@@ABE_NPAVCSubGraphPacketList@@@Z ; CTextSizeCalculator::IsTextSizeCalculator
PUBLIC	?IsBaseLineInIndicateData@CTextSizeCalculator@@ABE_NPAVCIndicatorInfo@@@Z ; CTextSizeCalculator::IsBaseLineInIndicateData
PUBLIC	?IsBaseLineInRegion@CTextSizeCalculator@@ABE_NABVCVertScaleMaxWidthCalculatorData@@@Z ; CTextSizeCalculator::IsBaseLineInRegion
PUBLIC	?GetMaxScaleText_Data@CTextSizeCalculator@@ABE?AVCSize@@PAVCDC@@ABVCVertScaleMaxWidthCalculatorData@@@Z ; CTextSizeCalculator::GetMaxScaleText_Data
PUBLIC	?GetMaxScaleText_Rate@CTextSizeCalculator@@ABE?AVCSize@@PAVCDC@@ABVCVertScaleMaxWidthCalculatorData@@@Z ; CTextSizeCalculator::GetMaxScaleText_Rate
PUBLIC	?GetMaxScaleTextSize_DataDate@CTextSizeCalculator@@ABE?AVCSize@@PAVCDC@@PAVCPacket@@ABVCScaleCompart@@@Z ; CTextSizeCalculator::GetMaxScaleTextSize_DataDate
PUBLIC	?GetMaxScaleTextSize_IndicateData@CTextSizeCalculator@@ABE?AVCSize@@PAVCDC@@ABVCVertScaleMaxWidthCalculatorData@@@Z ; CTextSizeCalculator::GetMaxScaleTextSize_IndicateData
PUBLIC	?GetMaxScaleTextSize_Sale@CTextSizeCalculator@@ABE?AVCSize@@PAVCDC@@ABVCVertScaleMaxWidthCalculatorData@@@Z ; CTextSizeCalculator::GetMaxScaleTextSize_Sale
PUBLIC	?GetMaxScaleTextSize_BaseLine@CTextSizeCalculator@@ABE?AVCSize@@PAVCDC@@ABVCVertScaleMaxWidthCalculatorData@@@Z ; CTextSizeCalculator::GetMaxScaleTextSize_BaseLine
PUBLIC	?GetMaxScaleTextSize_Packet@CTextSizeCalculator@@ABE?AVCSize@@PAVCDC@@ABVCHorzScaleMaxWidthCalculatorData@@@Z ; CTextSizeCalculator::GetMaxScaleTextSize_Packet
PUBLIC	?GetMaxScaleTextSize_Packet@CTextSizeCalculator@@ABE?AVCSize@@PAVCDC@@ABVCVertScaleMaxWidthCalculatorData@@@Z ; CTextSizeCalculator::GetMaxScaleTextSize_Packet
PUBLIC	?GetMaxScaleTextSize_Packet@CTextSizeCalculator@@ABE?AVCSize@@PAVCDC@@PAVCPacket@@ABVCVertScaleMaxWidthCalculatorData@@@Z ; CTextSizeCalculator::GetMaxScaleTextSize_Packet
PUBLIC	?GetPacketMinMax@CTextSizeCalculator@@ABE_NPAVCPacket@@ABVCDisplayAttributes@@AAN2@Z ; CTextSizeCalculator::GetPacketMinMax
PUBLIC	?GetLongLength@CTextSizeCalculator@@ABEHPAVCIndicatorInfo@@@Z ; CTextSizeCalculator::GetLongLength
PUBLIC	?GetMaxPacketDataLength@CTextSizeCalculator@@ABEHABV?$CStringT@DV?$StrTraitMFC_DLL@DV?$ChTraitsCRT@D@ATL@@@@@ATL@@PAVCSubGraphPacketList@@ABVCDisplayAttributes@@W4VERTSCALEUNITTYPE@CScaleBaseData@@ABVCDisplayDataMinMax@@@Z ; CTextSizeCalculator::GetMaxPacketDataLength
PUBLIC	?GetDrawingDataLengthStartPosition@CTextSizeCalculator@@ABEPAU__POSITION@@ABV?$CStringT@DV?$StrTraitMFC_DLL@DV?$ChTraitsCRT@D@ATL@@@@@ATL@@PAVCSubGraphPacketList@@@Z ; CTextSizeCalculator::GetDrawingDataLengthStartPosition
PUBLIC	?GetDrawingDataLength@CTextSizeCalculator@@ABEHPAVCPacket@@ABVCDisplayAttributes@@W4VERTSCALEUNITTYPE@CScaleBaseData@@@Z ; CTextSizeCalculator::GetDrawingDataLength
PUBLIC	?GetDrawingDataLength_WithMinMax@CTextSizeCalculator@@ABEHPAVCPacket@@ABVCDisplayAttributes@@W4VERTSCALEUNITTYPE@CScaleBaseData@@ABVCDisplayDataMinMax@@@Z ; CTextSizeCalculator::GetDrawingDataLength_WithMinMax
PUBLIC	?GetDrawingDataLength_Text@CTextSizeCalculator@@ABEHPAVCPacket@@@Z ; CTextSizeCalculator::GetDrawingDataLength_Text
PUBLIC	?GetDrawingDataLength_Number@CTextSizeCalculator@@ABEHPAVCPacket@@ABVCDisplayAttributes@@W4VERTSCALEUNITTYPE@CScaleBaseData@@@Z ; CTextSizeCalculator::GetDrawingDataLength_Number
PUBLIC	?GetDrawingDataLength_Number_WithMinMax@CTextSizeCalculator@@ABEHPAVCPacket@@ABVCDisplayAttributes@@W4VERTSCALEUNITTYPE@CScaleBaseData@@ABVCDisplayDataMinMax@@@Z ; CTextSizeCalculator::GetDrawingDataLength_Number_WithMinMax
PUBLIC	?GetDrawingData_Number@CTextSizeCalculator@@ABE_NPAVCPacket@@ABVCDisplayAttributes@@AAV?$CStringT@DV?$StrTraitMFC_DLL@DV?$ChTraitsCRT@D@ATL@@@@@ATL@@2@Z ; CTextSizeCalculator::GetDrawingData_Number
PUBLIC	?GetDrawingData_Number_WithMinMax@CTextSizeCalculator@@ABE_NPAVCPacket@@ABVCDisplayAttributes@@AAV?$CStringT@DV?$StrTraitMFC_DLL@DV?$ChTraitsCRT@D@ATL@@@@@ATL@@2ABVCDisplayDataMinMax@@@Z ; CTextSizeCalculator::GetDrawingData_Number_WithMinMax
PUBLIC	?GetDataLength@CTextSizeCalculator@@ABEHABV?$CStringT@DV?$StrTraitMFC_DLL@DV?$ChTraitsCRT@D@ATL@@@@@ATL@@@Z ; CTextSizeCalculator::GetDataLength
PUBLIC	?GetFormatLength@CTextSizeCalculator@@ABEHABV?$CStringT@DV?$StrTraitMFC_DLL@DV?$ChTraitsCRT@D@ATL@@@@@ATL@@W4VERTSCALEUNITTYPE@CScaleBaseData@@@Z ; CTextSizeCalculator::GetFormatLength
PUBLIC	?GetVertScalePacket@CTextSizeCalculator@@ABEPAVCPacket@@PAVCSubGraphPacketList@@ABV?$CStringT@DV?$StrTraitMFC_DLL@DV?$ChTraitsCRT@D@ATL@@@@@ATL@@@Z ; CTextSizeCalculator::GetVertScalePacket
PUBLIC	?GetVertScalePacket@CTextSizeCalculator@@ABEPAVCPacket@@PAVCPacketList@@ABV?$CStringT@DV?$StrTraitMFC_DLL@DV?$ChTraitsCRT@D@ATL@@@@@ATL@@@Z ; CTextSizeCalculator::GetVertScalePacket
PUBLIC	?GetDatePacketHeadDataAndType_DataDate@CTextSizeCalculator@@ABE_NPAVCPacket@@AAV?$CStringT@DV?$StrTraitMFC_DLL@DV?$ChTraitsCRT@D@ATL@@@@@ATL@@1@Z ; CTextSizeCalculator::GetDatePacketHeadDataAndType_DataDate
PUBLIC	?GetMaxScaleTextSize@CTextSizeCalculator@@ABE?AVCSize@@PAVCDC@@HW4TEXTCOMPARTTYPE@CScaleBaseData@@@Z ; CTextSizeCalculator::GetMaxScaleTextSize
PUBLIC	?GetMaxScaleTextSize@CTextSizeCalculator@@ABE?AVCSize@@ABV2@HW4TEXTCOMPARTTYPE@CScaleBaseData@@@Z ; CTextSizeCalculator::GetMaxScaleTextSize
PUBLIC	?GetMaxScaleTextSize_Sale2@CTextSizeCalculator@@ABE?AVCSize@@PAVCDC@@ABVCVertScaleMaxWidthCalculatorData@@@Z ; CTextSizeCalculator::GetMaxScaleTextSize_Sale2
PUBLIC	??1CTextInRightScaleRegionDrawer@@QAE@XZ	; CTextInRightScaleRegionDrawer::~CTextInRightScaleRegionDrawer
PUBLIC	??_C@_00CNPNBAHC@@				; `string'
PUBLIC	??_C@_01FHEEJDEE@A@				; `string'
PUBLIC	??_C@_07DNOBINDJ@100?400?$CF@			; `string'
PUBLIC	??_C@_04JJCPFEAC@100?$CF@			; `string'
PUBLIC	??_C@_01CLKCMJKC@?5@				; `string'
PUBLIC	??_C@_06OALMOPCN@Korean@			; `string'
PUBLIC	??_C@_01LFCBOECM@?4@				; `string'
PUBLIC	??_C@_01GBGANLPD@0@				; `string'
PUBLIC	??_C@_03IOCAOJMC@x?51@				; `string'
PUBLIC	??_C@_05GMCIGKAN@x?50?41@			; `string'
PUBLIC	??_C@_03MDAFIFFL@0?40@				; `string'
PUBLIC	??_C@_02CPNCMKFB@0?4@				; `string'
PUBLIC	__real@0000000000000000
PUBLIC	__real@4024000000000000
PUBLIC	__xmm@00000064000000640000000000000000
EXTRN	__imp__strncmp:PROC
EXTRN	__imp__GetTextExtentPoint32A@16:PROC
EXTRN	__imp___mbstrlen:PROC
EXTRN	?AfxThrowInvalidArgException@@YGXXZ:PROC	; AfxThrowInvalidArgException
EXTRN	__imp_??A?$CSimpleStringT@D$00@ATL@@QBEDH@Z:PROC
EXTRN	__imp_?Concatenate@?$CSimpleStringT@D$00@ATL@@KAXAAV12@PBDH1H@Z:PROC
EXTRN	__imp_??0?$CStringT@DV?$StrTraitMFC_DLL@DV?$ChTraitsCRT@D@ATL@@@@@ATL@@QAE@XZ:PROC
EXTRN	__imp_??0?$CStringT@DV?$StrTraitMFC_DLL@DV?$ChTraitsCRT@D@ATL@@@@@ATL@@QAE@PAUIAtlStringMgr@1@@Z:PROC
EXTRN	__imp_??0?$CStringT@DV?$StrTraitMFC_DLL@DV?$ChTraitsCRT@D@ATL@@@@@ATL@@QAE@ABV01@@Z:PROC
EXTRN	__imp_??0?$CStringT@DV?$StrTraitMFC_DLL@DV?$ChTraitsCRT@D@ATL@@@@@ATL@@QAE@PBD@Z:PROC
EXTRN	__imp_??0?$CStringT@DV?$StrTraitMFC_DLL@DV?$ChTraitsCRT@D@ATL@@@@@ATL@@QAE@DH@Z:PROC
EXTRN	__imp_??1?$CStringT@DV?$StrTraitMFC_DLL@DV?$ChTraitsCRT@D@ATL@@@@@ATL@@QAE@XZ:PROC
EXTRN	__imp_??4?$CStringT@DV?$StrTraitMFC_DLL@DV?$ChTraitsCRT@D@ATL@@@@@ATL@@QAEAAV01@ABV01@@Z:PROC
EXTRN	__imp_??4?$CStringT@DV?$StrTraitMFC_DLL@DV?$ChTraitsCRT@D@ATL@@@@@ATL@@QAEAAV01@PBD@Z:PROC
EXTRN	__imp_??Y?$CStringT@DV?$StrTraitMFC_DLL@DV?$ChTraitsCRT@D@ATL@@@@@ATL@@QAEAAV01@D@Z:PROC
EXTRN	__imp_?GetManager@?$CStringT@DV?$StrTraitMFC_DLL@DV?$ChTraitsCRT@D@ATL@@@@@ATL@@QBEPAUIAtlStringMgr@2@XZ:PROC
EXTRN	__imp_?Compare@?$CStringT@DV?$StrTraitMFC_DLL@DV?$ChTraitsCRT@D@ATL@@@@@ATL@@QBEHPBD@Z:PROC
EXTRN	__imp_?Replace@?$CStringT@DV?$StrTraitMFC_DLL@DV?$ChTraitsCRT@D@ATL@@@@@ATL@@QAEHPBD0@Z:PROC
EXTRN	__imp_?Find@?$CStringT@DV?$StrTraitMFC_DLL@DV?$ChTraitsCRT@D@ATL@@@@@ATL@@QBEHDH@Z:PROC
EXTRN	__imp_?Find@?$CStringT@DV?$StrTraitMFC_DLL@DV?$ChTraitsCRT@D@ATL@@@@@ATL@@QBEHPBDH@Z:PROC
EXTRN	__imp_?TrimRight@?$CStringT@DV?$StrTraitMFC_DLL@DV?$ChTraitsCRT@D@ATL@@@@@ATL@@QAEAAV12@PBD@Z:PROC
EXTRN	__imp_?TrimLeft@?$CStringT@DV?$StrTraitMFC_DLL@DV?$ChTraitsCRT@D@ATL@@@@@ATL@@QAEAAV12@PBD@Z:PROC
EXTRN	__imp_?Right@?$CStringT@DV?$StrTraitMFC_DLL@DV?$ChTraitsCRT@D@ATL@@@@@ATL@@QBE?AV12@H@Z:PROC
EXTRN	__imp__setlocale:PROC
EXTRN	__imp_?GetName@CPacket@@QAE?AV?$CStringT@DV?$StrTraitMFC_DLL@DV?$ChTraitsCRT@D@ATL@@@@@ATL@@XZ:PROC
EXTRN	__imp_?GetPacketList@CPacket@@QAEPAVCPacketList@@XZ:PROC
EXTRN	__imp_?GetDateUnitType@CPacket@@QAEHXZ:PROC
EXTRN	__imp_?GetType@CPacket@@QAE?AV?$CStringT@DV?$StrTraitMFC_DLL@DV?$ChTraitsCRT@D@ATL@@@@@ATL@@_N@Z:PROC
EXTRN	__imp_?GetnumericDataList@CPacket@@QAEPAV?$CList@NN@@XZ:PROC
EXTRN	__imp_?GetstrDataList@CPacket@@QAEPAV?$CList@V?$CStringT@DV?$StrTraitMFC_DLL@DV?$ChTraitsCRT@D@ATL@@@@@ATL@@V12@@@XZ:PROC
EXTRN	__imp_?GetMinMax@CPacket@@QAEHHHAAN0H@Z:PROC
EXTRN	__imp_?IsAutoScaleType@CPacket@@QAEHXZ:PROC
EXTRN	__imp_?SetScaleType@CPacket@@QAEXABV?$CStringT@DV?$StrTraitMFC_DLL@DV?$ChTraitsCRT@D@ATL@@@@@ATL@@@Z:PROC
EXTRN	__imp_?GetBaseData@CPacketList@@QAEPAVCPacket@@V?$CStringT@DV?$StrTraitMFC_DLL@DV?$ChTraitsCRT@D@ATL@@@@@ATL@@_N@Z:PROC
EXTRN	__imp_?GetCommonCalConditionList@CIndicatorInfo@@QAEPAV?$CList@NN@@XZ:PROC
EXTRN	__imp_?GetBaseLineList@CIndicatorInfo@@QAEPAV?$CList@NN@@XZ:PROC
EXTRN	__imp_?GetTextInRightScaleRegionDrawer@CGraphDrawer@@QBE_NABVCTextInRightScaleRegionDrawer@@AAV?$CStringT@DV?$StrTraitMFC_DLL@DV?$ChTraitsCRT@D@ATL@@@@@ATL@@111@Z:PROC
EXTRN	?IsViewVertMinMax_EndPacket@IMetaTable@@QAE_NABV?$CStringT@DV?$StrTraitMFC_DLL@DV?$ChTraitsCRT@D@ATL@@@@@ATL@@@Z:PROC ; IMetaTable::IsViewVertMinMax_EndPacket
EXTRN	?IsScaleGroup_PlusPercent@IMetaTable@@QAE_NABV?$CStringT@DV?$StrTraitMFC_DLL@DV?$ChTraitsCRT@D@ATL@@@@@ATL@@@Z:PROC ; IMetaTable::IsScaleGroup_PlusPercent
EXTRN	?IsScaleGroup_MinusPercent@IMetaTable@@QAE_NABV?$CStringT@DV?$StrTraitMFC_DLL@DV?$ChTraitsCRT@D@ATL@@@@@ATL@@@Z:PROC ; IMetaTable::IsScaleGroup_MinusPercent
EXTRN	?IsVolumeForSale@IMetaTable@@QAEHABV?$CStringT@DV?$StrTraitMFC_DLL@DV?$ChTraitsCRT@D@ATL@@@@@ATL@@@Z:PROC ; IMetaTable::IsVolumeForSale
EXTRN	?DoubleToString@CDataConversion@@SA?AV?$CStringT@DV?$StrTraitMFC_DLL@DV?$ChTraitsCRT@D@ATL@@@@@ATL@@ABN@Z:PROC ; CDataConversion::DoubleToString
EXTRN	?DoubleToString@CDataConversion@@SA?AV?$CStringT@DV?$StrTraitMFC_DLL@DV?$ChTraitsCRT@D@ATL@@@@@ATL@@ABNH@Z:PROC ; CDataConversion::DoubleToString
EXTRN	?GetLongLengthData@CDataConversion@@SANABN0ABV?$CStringT@DV?$StrTraitMFC_DLL@DV?$ChTraitsCRT@D@ATL@@@@@ATL@@@Z:PROC ; CDataConversion::GetLongLengthData
EXTRN	?GetStringData@CDataConversion@@SA?AV?$CStringT@DV?$StrTraitMFC_DLL@DV?$ChTraitsCRT@D@ATL@@@@@ATL@@AAV23@ABV23@_N@Z:PROC ; CDataConversion::GetStringData
EXTRN	?GetDecimalDownCount@CDataConversion@@SAHABV?$CStringT@DV?$StrTraitMFC_DLL@DV?$ChTraitsCRT@D@ATL@@@@@ATL@@_N@Z:PROC ; CDataConversion::GetDecimalDownCount
EXTRN	?GetChangeFormat_NumCharUnit@CDataConversion@@QAE?AV?$CStringT@DV?$StrTraitMFC_DLL@DV?$ChTraitsCRT@D@ATL@@@@@ATL@@ABV23@@Z:PROC ; CDataConversion::GetChangeFormat_NumCharUnit
EXTRN	?GetStringFormatTransCutoff@CDataConversion@@QAEHABNABV?$CStringT@DV?$StrTraitMFC_DLL@DV?$ChTraitsCRT@D@ATL@@@@@ATL@@AAV23@2H@Z:PROC ; CDataConversion::GetStringFormatTransCutoff
EXTRN	__imp_?GetScaleTextType@CScaleCompart@@QBE?AW4TEXTCOMPARTTYPE@CScaleBaseData@@XZ:PROC
EXTRN	__imp_?GetScaleData@CScale@@QBE?AV?$CStringT@DV?$StrTraitMFC_DLL@DV?$ChTraitsCRT@D@ATL@@@@@ATL@@XZ:PROC
EXTRN	__imp_?GetVertScalePosition@CVerticalScale@@QBE?AW4VERTSCALEPOSITION@CScaleBaseData@@XZ:PROC
EXTRN	__imp_?GetVertScaleUnitType@CVerticalScale@@QBE?AW4VERTSCALEUNITTYPE@CScaleBaseData@@XZ:PROC
EXTRN	__imp_??1CVerticalScale@@QAE@XZ:PROC
EXTRN	__imp_?GetTopHorzScaleRegionHeight@CHorzScaleRegionHeight@@QBEHXZ:PROC
EXTRN	__imp_?GetBottomHorzScaleRegionHeight@CHorzScaleRegionHeight@@QBEHXZ:PROC
EXTRN	__imp_?GetLeftVertScaleRegionWidth@CVertScaleRegionWidth@@QBEHXZ:PROC
EXTRN	__imp_?GetRightVertScaleRegionWidth@CVertScaleRegionWidth@@QBEHXZ:PROC
EXTRN	__imp_??0CHorzScaleRegion@@QAE@XZ:PROC
EXTRN	__imp_??0CVertScaleRegion@@QAE@XZ:PROC
EXTRN	__imp_?GetDisplayMin@CDisplayDataMinMax@@QBENXZ:PROC
EXTRN	__imp_?GetDisplayMax@CDisplayDataMinMax@@QBENXZ:PROC
EXTRN	?GetDataStartInBlock@CDisplayAttributes@@QBEHXZ:PROC ; CDisplayAttributes::GetDataStartInBlock
EXTRN	?GetDataEndInBlock@CDisplayAttributes@@QBEHXZ:PROC ; CDisplayAttributes::GetDataEndInBlock
EXTRN	?GetDataCountInBlock@CDisplayAttributes@@QBEHXZ:PROC ; CDisplayAttributes::GetDataCountInBlock
EXTRN	?SetFrameRegion@CGraphRegionsBase@@IAEXABVCRect@@HH@Z:PROC ; CGraphRegionsBase::SetFrameRegion
EXTRN	??0CGraphRegions@@QAE@XZ:PROC			; CGraphRegions::CGraphRegions
EXTRN	?SetText@CGraphRegions@@QAEX_N@Z:PROC		; CGraphRegions::SetText
EXTRN	?SetTitle@CGraphRegions@@QAEX_N@Z:PROC		; CGraphRegions::SetTitle
EXTRN	?SetFontSize@CGraphRegions@@QAEXH@Z:PROC	; CGraphRegions::SetFontSize
EXTRN	?SetVertScale@CGraphRegions@@QAEX_N@Z:PROC	; CGraphRegions::SetVertScale
EXTRN	?GetDrawingRegion@CGraphRegions@@QBE?AVCRect@@W4GRAPHTYPE@CGraphBaseData@@ABVCGraphStyle@@@Z:PROC ; CGraphRegions::GetDrawingRegion
EXTRN	?SetGraphRegions@CDrawingRegion@@QAEXABVCGraphRegions@@@Z:PROC ; CDrawingRegion::SetGraphRegions
EXTRN	?SetHorzScaleRegion@CDrawingRegion@@QAEXABVCRect@@0@Z:PROC ; CDrawingRegion::SetHorzScaleRegion
EXTRN	?SetVertScaleRegion@CDrawingRegion@@QAEXABVCRect@@0@Z:PROC ; CDrawingRegion::SetVertScaleRegion
EXTRN	?GetGraphRegions@CDrawingRegion@@QAEAAVCGraphRegions@@XZ:PROC ; CDrawingRegion::GetGraphRegions
EXTRN	??0CTextInRightScaleRegionDrawer@@QAE@ABV?$CStringT@DV?$StrTraitMFC_DLL@DV?$ChTraitsCRT@D@ATL@@@@@ATL@@PAVCSubGraphPacketList@@ABVCRect@@HH@Z:PROC ; CTextInRightScaleRegionDrawer::CTextInRightScaleRegionDrawer
EXTRN	?GetCompartScaleData@CScaleCalculator@@QAE?AV?$CStringT@DV?$StrTraitMFC_DLL@DV?$ChTraitsCRT@D@ATL@@@@@ATL@@W4HORZSCALEDRAWERTYPE@CScaleBaseData@@ABV23@1ABVCScaleCompart@@@Z:PROC ; CScaleCalculator::GetCompartScaleData
EXTRN	?GetTextSize@CScaleCalculator@@SA?AVCSize@@PAVCDC@@ABV?$CStringT@DV?$StrTraitMFC_DLL@DV?$ChTraitsCRT@D@ATL@@@@@ATL@@@Z:PROC ; CScaleCalculator::GetTextSize
EXTRN	?GetCount@CSubGraphPacketList@@QBEHXZ:PROC	; CSubGraphPacketList::GetCount
EXTRN	?GetHeadPosition@CSubGraphPacketList@@QAEPAU__POSITION@@XZ:PROC ; CSubGraphPacketList::GetHeadPosition
EXTRN	?GetTailPosition@CSubGraphPacketList@@QAEPAU__POSITION@@XZ:PROC ; CSubGraphPacketList::GetTailPosition
EXTRN	?GetHeadPacket@CSubGraphPacketList@@QAEPAVCPacket@@XZ:PROC ; CSubGraphPacketList::GetHeadPacket
EXTRN	?GetPacket@CSubGraphPacketList@@QAEPAVCPacket@@H@Z:PROC ; CSubGraphPacketList::GetPacket
EXTRN	?GetNext@CSubGraphPacketList@@QAEPAVCPacket@@AAPAU__POSITION@@@Z:PROC ; CSubGraphPacketList::GetNext
EXTRN	?GetBlockRegion@CDrawingRegionCalData@@QBE?AVCRect@@XZ:PROC ; CDrawingRegionCalData::GetBlockRegion
EXTRN	?GetGraphRegionFrameThickness@CDrawingRegionCalData@@QBEHXZ:PROC ; CDrawingRegionCalData::GetGraphRegionFrameThickness
EXTRN	?IsGraphTitleDraw@CDrawingRegionCalData@@QBE_NXZ:PROC ; CDrawingRegionCalData::IsGraphTitleDraw
EXTRN	?IsGraphTextDrawCheck@CDrawingRegionCalData@@QBE_NXZ:PROC ; CDrawingRegionCalData::IsGraphTextDrawCheck
EXTRN	?IsGraphTextDraw@CDrawingRegionCalData@@QBE_NXZ:PROC ; CDrawingRegionCalData::IsGraphTextDraw
EXTRN	?IsVertScale@CDrawingRegionCalData@@QBE_NXZ:PROC ; CDrawingRegionCalData::IsVertScale
EXTRN	?GetMaxVertScaleRegionWidth@CDrawingRegionCalData@@QBEHXZ:PROC ; CDrawingRegionCalData::GetMaxVertScaleRegionWidth
EXTRN	?GetHorzScaleRegionHeight@CDrawingRegionCalData@@QBEABVCHorzScaleRegionHeight@@XZ:PROC ; CDrawingRegionCalData::GetHorzScaleRegionHeight
EXTRN	?GetVertScaleRegionWidth@CDrawingRegionCalData@@QBEABVCVertScaleRegionWidth@@XZ:PROC ; CDrawingRegionCalData::GetVertScaleRegionWidth
EXTRN	?GetDisplayAttributes@CDrawingRegionCalData@@QBE?AVCDisplayAttributes@@XZ:PROC ; CDrawingRegionCalData::GetDisplayAttributes
EXTRN	?GetScaleCompart@CHorzScaleMaxWidthCalculatorData@@QBEPAVCScaleCompart@@XZ:PROC ; CHorzScaleMaxWidthCalculatorData::GetScaleCompart
EXTRN	?GetPacket@CHorzScaleMaxWidthCalculatorData@@QBEPAVCPacket@@XZ:PROC ; CHorzScaleMaxWidthCalculatorData::GetPacket
EXTRN	?GetPacketName@CHorzScaleMaxWidthCalculatorData@@QBE?AV?$CStringT@DV?$StrTraitMFC_DLL@DV?$ChTraitsCRT@D@ATL@@@@@ATL@@XZ:PROC ; CHorzScaleMaxWidthCalculatorData::GetPacketName
EXTRN	?GetDisplayAttributes@CHorzScaleMaxWidthCalculatorData@@QBE?AVCDisplayAttributes@@XZ:PROC ; CHorzScaleMaxWidthCalculatorData::GetDisplayAttributes
EXTRN	?DoesRight@CVertScaleMaxWidthCalculatorData@@QBE_NXZ:PROC ; CVertScaleMaxWidthCalculatorData::DoesRight
EXTRN	?GetCalcRiseFallRate_CurData@CVertScaleMaxWidthCalculatorData@@QBEHXZ:PROC ; CVertScaleMaxWidthCalculatorData::GetCalcRiseFallRate_CurData
EXTRN	?GetVerticalScale@CVertScaleMaxWidthCalculatorData@@QBE?AVCVerticalScale@@XZ:PROC ; CVertScaleMaxWidthCalculatorData::GetVerticalScale
EXTRN	?GetGraphName@CVertScaleMaxWidthCalculatorData@@QBE?AV?$CStringT@DV?$StrTraitMFC_DLL@DV?$ChTraitsCRT@D@ATL@@@@@ATL@@XZ:PROC ; CVertScaleMaxWidthCalculatorData::GetGraphName
EXTRN	?GetVertScalePacketName@CVertScaleMaxWidthCalculatorData@@QBE?AV?$CStringT@DV?$StrTraitMFC_DLL@DV?$ChTraitsCRT@D@ATL@@@@@ATL@@XZ:PROC ; CVertScaleMaxWidthCalculatorData::GetVertScalePacketName
EXTRN	?GetDisplayAttributes@CVertScaleMaxWidthCalculatorData@@QBE?AVCDisplayAttributes@@XZ:PROC ; CVertScaleMaxWidthCalculatorData::GetDisplayAttributes
EXTRN	?GetIndicatorInfo@CVertScaleMaxWidthCalculatorData@@QBEPAVCIndicatorInfo@@XZ:PROC ; CVertScaleMaxWidthCalculatorData::GetIndicatorInfo
EXTRN	?GetSubGraphPacketList@CVertScaleMaxWidthCalculatorData@@QBEPAVCSubGraphPacketList@@XZ:PROC ; CVertScaleMaxWidthCalculatorData::GetSubGraphPacketList
EXTRN	?IsDualScale@CVertScaleMaxWidthCalculatorData@@QBEHXZ:PROC ; CVertScaleMaxWidthCalculatorData::IsDualScale
EXTRN	@__security_check_cookie@4:PROC
EXTRN	___CxxFrameHandler3:PROC
EXTRN	__libm_sse2_pow_precise:PROC
EXTRN	?g_iMetaTable@@3VIMetaTable@@A:BYTE		; g_iMetaTable
EXTRN	___security_cookie:DWORD
EXTRN	__fltused:DWORD
;	COMDAT __xmm@00000064000000640000000000000000
CONST	SEGMENT
__xmm@00000064000000640000000000000000 DB 00H, 00H, 00H, 00H, 00H, 00H, 00H
	DB	00H, 'd', 00H, 00H, 00H, 'd', 00H, 00H, 00H
CONST	ENDS
;	COMDAT __real@4024000000000000
CONST	SEGMENT
__real@4024000000000000 DQ 04024000000000000r	; 10
CONST	ENDS
;	COMDAT __real@0000000000000000
CONST	SEGMENT
__real@0000000000000000 DQ 00000000000000000r	; 0
CONST	ENDS
;	COMDAT ??_C@_02CPNCMKFB@0?4@
CONST	SEGMENT
??_C@_02CPNCMKFB@0?4@ DB '0.', 00H			; `string'
CONST	ENDS
;	COMDAT ??_C@_03MDAFIFFL@0?40@
CONST	SEGMENT
??_C@_03MDAFIFFL@0?40@ DB '0.0', 00H			; `string'
CONST	ENDS
;	COMDAT ??_C@_05GMCIGKAN@x?50?41@
CONST	SEGMENT
??_C@_05GMCIGKAN@x?50?41@ DB 'x 0.1', 00H		; `string'
CONST	ENDS
;	COMDAT ??_C@_03IOCAOJMC@x?51@
CONST	SEGMENT
??_C@_03IOCAOJMC@x?51@ DB 'x 1', 00H			; `string'
CONST	ENDS
;	COMDAT ??_C@_01GBGANLPD@0@
CONST	SEGMENT
??_C@_01GBGANLPD@0@ DB '0', 00H				; `string'
CONST	ENDS
;	COMDAT ??_C@_01LFCBOECM@?4@
CONST	SEGMENT
??_C@_01LFCBOECM@?4@ DB '.', 00H			; `string'
CONST	ENDS
;	COMDAT ??_C@_06OALMOPCN@Korean@
CONST	SEGMENT
??_C@_06OALMOPCN@Korean@ DB 'Korean', 00H		; `string'
CONST	ENDS
;	COMDAT ??_C@_01CLKCMJKC@?5@
CONST	SEGMENT
??_C@_01CLKCMJKC@?5@ DB ' ', 00H			; `string'
CONST	ENDS
;	COMDAT ??_C@_04JJCPFEAC@100?$CF@
CONST	SEGMENT
??_C@_04JJCPFEAC@100?$CF@ DB '100%', 00H		; `string'
CONST	ENDS
;	COMDAT ??_C@_07DNOBINDJ@100?400?$CF@
CONST	SEGMENT
??_C@_07DNOBINDJ@100?400?$CF@ DB '100.00%', 00H		; `string'
CONST	ENDS
;	COMDAT ??_C@_01FHEEJDEE@A@
CONST	SEGMENT
??_C@_01FHEEJDEE@A@ DB 'A', 00H				; `string'
CONST	ENDS
;	COMDAT ??_C@_00CNPNBAHC@@
CONST	SEGMENT
??_C@_00CNPNBAHC@@ DB 00H				; `string'
CONST	ENDS
;	COMDAT xdata$x
xdata$x	SEGMENT
__ehfuncinfo$?GetMaxScaleTextSize_Sale2@CTextSizeCalculator@@ABE?AVCSize@@PAVCDC@@ABVCVertScaleMaxWidthCalculatorData@@@Z DD 019930522H
	DD	06H
	DD	FLAT:__unwindtable$?GetMaxScaleTextSize_Sale2@CTextSizeCalculator@@ABE?AVCSize@@PAVCDC@@ABVCVertScaleMaxWidthCalculatorData@@@Z
	DD	2 DUP(00H)
	DD	2 DUP(00H)
	DD	00H
	DD	01H
__unwindtable$?GetMaxScaleTextSize_Sale2@CTextSizeCalculator@@ABE?AVCSize@@PAVCDC@@ABVCVertScaleMaxWidthCalculatorData@@@Z DD 0ffffffffH
	DD	FLAT:__unwindfunclet$?GetMaxScaleTextSize_Sale2@CTextSizeCalculator@@ABE?AVCSize@@PAVCDC@@ABVCVertScaleMaxWidthCalculatorData@@@Z$0
	DD	00H
	DD	FLAT:__unwindfunclet$?GetMaxScaleTextSize_Sale2@CTextSizeCalculator@@ABE?AVCSize@@PAVCDC@@ABVCVertScaleMaxWidthCalculatorData@@@Z$1
	DD	01H
	DD	FLAT:__unwindfunclet$?GetMaxScaleTextSize_Sale2@CTextSizeCalculator@@ABE?AVCSize@@PAVCDC@@ABVCVertScaleMaxWidthCalculatorData@@@Z$2
	DD	02H
	DD	00H
	DD	03H
	DD	00H
	DD	02H
	DD	FLAT:__unwindfunclet$?GetMaxScaleTextSize_Sale2@CTextSizeCalculator@@ABE?AVCSize@@PAVCDC@@ABVCVertScaleMaxWidthCalculatorData@@@Z$3
xdata$x	ENDS
;	COMDAT xdata$x
xdata$x	SEGMENT
__unwindtable$?GetDatePacketHeadDataAndType_DataDate@CTextSizeCalculator@@ABE_NPAVCPacket@@AAV?$CStringT@DV?$StrTraitMFC_DLL@DV?$ChTraitsCRT@D@ATL@@@@@ATL@@1@Z DD 0ffffffffH
	DD	FLAT:__unwindfunclet$?GetDatePacketHeadDataAndType_DataDate@CTextSizeCalculator@@ABE_NPAVCPacket@@AAV?$CStringT@DV?$StrTraitMFC_DLL@DV?$ChTraitsCRT@D@ATL@@@@@ATL@@1@Z$0
	DD	0ffffffffH
	DD	FLAT:__unwindfunclet$?GetDatePacketHeadDataAndType_DataDate@CTextSizeCalculator@@ABE_NPAVCPacket@@AAV?$CStringT@DV?$StrTraitMFC_DLL@DV?$ChTraitsCRT@D@ATL@@@@@ATL@@1@Z$1
	DD	0ffffffffH
	DD	FLAT:__unwindfunclet$?GetDatePacketHeadDataAndType_DataDate@CTextSizeCalculator@@ABE_NPAVCPacket@@AAV?$CStringT@DV?$StrTraitMFC_DLL@DV?$ChTraitsCRT@D@ATL@@@@@ATL@@1@Z$3
__ehfuncinfo$?GetDatePacketHeadDataAndType_DataDate@CTextSizeCalculator@@ABE_NPAVCPacket@@AAV?$CStringT@DV?$StrTraitMFC_DLL@DV?$ChTraitsCRT@D@ATL@@@@@ATL@@1@Z DD 019930522H
	DD	03H
	DD	FLAT:__unwindtable$?GetDatePacketHeadDataAndType_DataDate@CTextSizeCalculator@@ABE_NPAVCPacket@@AAV?$CStringT@DV?$StrTraitMFC_DLL@DV?$ChTraitsCRT@D@ATL@@@@@ATL@@1@Z
	DD	2 DUP(00H)
	DD	2 DUP(00H)
	DD	00H
	DD	01H
xdata$x	ENDS
;	COMDAT xdata$x
xdata$x	SEGMENT
__unwindtable$?GetVertScalePacket@CTextSizeCalculator@@ABEPAVCPacket@@PAVCPacketList@@ABV?$CStringT@DV?$StrTraitMFC_DLL@DV?$ChTraitsCRT@D@ATL@@@@@ATL@@@Z DD 0ffffffffH
	DD	FLAT:__unwindfunclet$?GetVertScalePacket@CTextSizeCalculator@@ABEPAVCPacket@@PAVCPacketList@@ABV?$CStringT@DV?$StrTraitMFC_DLL@DV?$ChTraitsCRT@D@ATL@@@@@ATL@@@Z$0
	DD	00H
	DD	FLAT:__unwindfunclet$?GetVertScalePacket@CTextSizeCalculator@@ABEPAVCPacket@@PAVCPacketList@@ABV?$CStringT@DV?$StrTraitMFC_DLL@DV?$ChTraitsCRT@D@ATL@@@@@ATL@@@Z$2
	DD	01H
	DD	FLAT:__unwindfunclet$?GetVertScalePacket@CTextSizeCalculator@@ABEPAVCPacket@@PAVCPacketList@@ABV?$CStringT@DV?$StrTraitMFC_DLL@DV?$ChTraitsCRT@D@ATL@@@@@ATL@@@Z$3
	DD	00H
	DD	FLAT:__unwindfunclet$?GetVertScalePacket@CTextSizeCalculator@@ABEPAVCPacket@@PAVCPacketList@@ABV?$CStringT@DV?$StrTraitMFC_DLL@DV?$ChTraitsCRT@D@ATL@@@@@ATL@@@Z$3
__ehfuncinfo$?GetVertScalePacket@CTextSizeCalculator@@ABEPAVCPacket@@PAVCPacketList@@ABV?$CStringT@DV?$StrTraitMFC_DLL@DV?$ChTraitsCRT@D@ATL@@@@@ATL@@@Z DD 019930522H
	DD	04H
	DD	FLAT:__unwindtable$?GetVertScalePacket@CTextSizeCalculator@@ABEPAVCPacket@@PAVCPacketList@@ABV?$CStringT@DV?$StrTraitMFC_DLL@DV?$ChTraitsCRT@D@ATL@@@@@ATL@@@Z
	DD	2 DUP(00H)
	DD	2 DUP(00H)
	DD	00H
	DD	01H
xdata$x	ENDS
;	COMDAT xdata$x
xdata$x	SEGMENT
__ehfuncinfo$?GetVertScalePacket@CTextSizeCalculator@@ABEPAVCPacket@@PAVCSubGraphPacketList@@ABV?$CStringT@DV?$StrTraitMFC_DLL@DV?$ChTraitsCRT@D@ATL@@@@@ATL@@@Z DD 019930522H
	DD	05H
	DD	FLAT:__unwindtable$?GetVertScalePacket@CTextSizeCalculator@@ABEPAVCPacket@@PAVCSubGraphPacketList@@ABV?$CStringT@DV?$StrTraitMFC_DLL@DV?$ChTraitsCRT@D@ATL@@@@@ATL@@@Z
	DD	2 DUP(00H)
	DD	2 DUP(00H)
	DD	00H
	DD	01H
__unwindtable$?GetVertScalePacket@CTextSizeCalculator@@ABEPAVCPacket@@PAVCSubGraphPacketList@@ABV?$CStringT@DV?$StrTraitMFC_DLL@DV?$ChTraitsCRT@D@ATL@@@@@ATL@@@Z DD 0ffffffffH
	DD	FLAT:__unwindfunclet$?GetVertScalePacket@CTextSizeCalculator@@ABEPAVCPacket@@PAVCSubGraphPacketList@@ABV?$CStringT@DV?$StrTraitMFC_DLL@DV?$ChTraitsCRT@D@ATL@@@@@ATL@@@Z$0
	DD	0ffffffffH
	DD	FLAT:__unwindfunclet$?GetVertScalePacket@CTextSizeCalculator@@ABEPAVCPacket@@PAVCSubGraphPacketList@@ABV?$CStringT@DV?$StrTraitMFC_DLL@DV?$ChTraitsCRT@D@ATL@@@@@ATL@@@Z$1
	DD	01H
	DD	FLAT:__unwindfunclet$?GetVertScalePacket@CTextSizeCalculator@@ABEPAVCPacket@@PAVCSubGraphPacketList@@ABV?$CStringT@DV?$StrTraitMFC_DLL@DV?$ChTraitsCRT@D@ATL@@@@@ATL@@@Z$3
	DD	02H
	DD	FLAT:__unwindfunclet$?GetVertScalePacket@CTextSizeCalculator@@ABEPAVCPacket@@PAVCSubGraphPacketList@@ABV?$CStringT@DV?$StrTraitMFC_DLL@DV?$ChTraitsCRT@D@ATL@@@@@ATL@@@Z$4
	DD	01H
	DD	FLAT:__unwindfunclet$?GetVertScalePacket@CTextSizeCalculator@@ABEPAVCPacket@@PAVCSubGraphPacketList@@ABV?$CStringT@DV?$StrTraitMFC_DLL@DV?$ChTraitsCRT@D@ATL@@@@@ATL@@@Z$4
xdata$x	ENDS
;	COMDAT xdata$x
xdata$x	SEGMENT
__unwindtable$?GetFormatLength@CTextSizeCalculator@@ABEHABV?$CStringT@DV?$StrTraitMFC_DLL@DV?$ChTraitsCRT@D@ATL@@@@@ATL@@W4VERTSCALEUNITTYPE@CScaleBaseData@@@Z DD 0ffffffffH
	DD	FLAT:__unwindfunclet$?GetFormatLength@CTextSizeCalculator@@ABEHABV?$CStringT@DV?$StrTraitMFC_DLL@DV?$ChTraitsCRT@D@ATL@@@@@ATL@@W4VERTSCALEUNITTYPE@CScaleBaseData@@@Z$0
	DD	00H
	DD	FLAT:__unwindfunclet$?GetFormatLength@CTextSizeCalculator@@ABEHABV?$CStringT@DV?$StrTraitMFC_DLL@DV?$ChTraitsCRT@D@ATL@@@@@ATL@@W4VERTSCALEUNITTYPE@CScaleBaseData@@@Z$1
__ehfuncinfo$?GetFormatLength@CTextSizeCalculator@@ABEHABV?$CStringT@DV?$StrTraitMFC_DLL@DV?$ChTraitsCRT@D@ATL@@@@@ATL@@W4VERTSCALEUNITTYPE@CScaleBaseData@@@Z DD 019930522H
	DD	02H
	DD	FLAT:__unwindtable$?GetFormatLength@CTextSizeCalculator@@ABEHABV?$CStringT@DV?$StrTraitMFC_DLL@DV?$ChTraitsCRT@D@ATL@@@@@ATL@@W4VERTSCALEUNITTYPE@CScaleBaseData@@@Z
	DD	2 DUP(00H)
	DD	2 DUP(00H)
	DD	00H
	DD	01H
xdata$x	ENDS
;	COMDAT xdata$x
xdata$x	SEGMENT
__unwindtable$?GetDrawingData_Number_WithMinMax@CTextSizeCalculator@@ABE_NPAVCPacket@@ABVCDisplayAttributes@@AAV?$CStringT@DV?$StrTraitMFC_DLL@DV?$ChTraitsCRT@D@ATL@@@@@ATL@@2ABVCDisplayDataMinMax@@@Z DD 0ffffffffH
	DD	FLAT:__unwindfunclet$?GetDrawingData_Number_WithMinMax@CTextSizeCalculator@@ABE_NPAVCPacket@@ABVCDisplayAttributes@@AAV?$CStringT@DV?$StrTraitMFC_DLL@DV?$ChTraitsCRT@D@ATL@@@@@ATL@@2ABVCDisplayDataMinMax@@@Z$0
	DD	00H
	DD	FLAT:__unwindfunclet$?GetDrawingData_Number_WithMinMax@CTextSizeCalculator@@ABE_NPAVCPacket@@ABVCDisplayAttributes@@AAV?$CStringT@DV?$StrTraitMFC_DLL@DV?$ChTraitsCRT@D@ATL@@@@@ATL@@2ABVCDisplayDataMinMax@@@Z$1
	DD	01H
	DD	FLAT:__unwindfunclet$?GetDrawingData_Number_WithMinMax@CTextSizeCalculator@@ABE_NPAVCPacket@@ABVCDisplayAttributes@@AAV?$CStringT@DV?$StrTraitMFC_DLL@DV?$ChTraitsCRT@D@ATL@@@@@ATL@@2ABVCDisplayDataMinMax@@@Z$2
__ehfuncinfo$?GetDrawingData_Number_WithMinMax@CTextSizeCalculator@@ABE_NPAVCPacket@@ABVCDisplayAttributes@@AAV?$CStringT@DV?$StrTraitMFC_DLL@DV?$ChTraitsCRT@D@ATL@@@@@ATL@@2ABVCDisplayDataMinMax@@@Z DD 019930522H
	DD	03H
	DD	FLAT:__unwindtable$?GetDrawingData_Number_WithMinMax@CTextSizeCalculator@@ABE_NPAVCPacket@@ABVCDisplayAttributes@@AAV?$CStringT@DV?$StrTraitMFC_DLL@DV?$ChTraitsCRT@D@ATL@@@@@ATL@@2ABVCDisplayDataMinMax@@@Z
	DD	2 DUP(00H)
	DD	2 DUP(00H)
	DD	00H
	DD	01H
xdata$x	ENDS
;	COMDAT xdata$x
xdata$x	SEGMENT
__unwindtable$?GetDrawingData_Number@CTextSizeCalculator@@ABE_NPAVCPacket@@ABVCDisplayAttributes@@AAV?$CStringT@DV?$StrTraitMFC_DLL@DV?$ChTraitsCRT@D@ATL@@@@@ATL@@2@Z DD 0ffffffffH
	DD	FLAT:__unwindfunclet$?GetDrawingData_Number@CTextSizeCalculator@@ABE_NPAVCPacket@@ABVCDisplayAttributes@@AAV?$CStringT@DV?$StrTraitMFC_DLL@DV?$ChTraitsCRT@D@ATL@@@@@ATL@@2@Z$0
	DD	00H
	DD	FLAT:__unwindfunclet$?GetDrawingData_Number@CTextSizeCalculator@@ABE_NPAVCPacket@@ABVCDisplayAttributes@@AAV?$CStringT@DV?$StrTraitMFC_DLL@DV?$ChTraitsCRT@D@ATL@@@@@ATL@@2@Z$1
	DD	01H
	DD	FLAT:__unwindfunclet$?GetDrawingData_Number@CTextSizeCalculator@@ABE_NPAVCPacket@@ABVCDisplayAttributes@@AAV?$CStringT@DV?$StrTraitMFC_DLL@DV?$ChTraitsCRT@D@ATL@@@@@ATL@@2@Z$2
__ehfuncinfo$?GetDrawingData_Number@CTextSizeCalculator@@ABE_NPAVCPacket@@ABVCDisplayAttributes@@AAV?$CStringT@DV?$StrTraitMFC_DLL@DV?$ChTraitsCRT@D@ATL@@@@@ATL@@2@Z DD 019930522H
	DD	03H
	DD	FLAT:__unwindtable$?GetDrawingData_Number@CTextSizeCalculator@@ABE_NPAVCPacket@@ABVCDisplayAttributes@@AAV?$CStringT@DV?$StrTraitMFC_DLL@DV?$ChTraitsCRT@D@ATL@@@@@ATL@@2@Z
	DD	2 DUP(00H)
	DD	2 DUP(00H)
	DD	00H
	DD	01H
xdata$x	ENDS
;	COMDAT xdata$x
xdata$x	SEGMENT
__ehfuncinfo$?GetDrawingDataLength_Number_WithMinMax@CTextSizeCalculator@@ABEHPAVCPacket@@ABVCDisplayAttributes@@W4VERTSCALEUNITTYPE@CScaleBaseData@@ABVCDisplayDataMinMax@@@Z DD 019930522H
	DD	07H
	DD	FLAT:__unwindtable$?GetDrawingDataLength_Number_WithMinMax@CTextSizeCalculator@@ABEHPAVCPacket@@ABVCDisplayAttributes@@W4VERTSCALEUNITTYPE@CScaleBaseData@@ABVCDisplayDataMinMax@@@Z
	DD	2 DUP(00H)
	DD	2 DUP(00H)
	DD	00H
	DD	01H
__unwindtable$?GetDrawingDataLength_Number_WithMinMax@CTextSizeCalculator@@ABEHPAVCPacket@@ABVCDisplayAttributes@@W4VERTSCALEUNITTYPE@CScaleBaseData@@ABVCDisplayDataMinMax@@@Z DD 0ffffffffH
	DD	FLAT:__unwindfunclet$?GetDrawingDataLength_Number_WithMinMax@CTextSizeCalculator@@ABEHPAVCPacket@@ABVCDisplayAttributes@@W4VERTSCALEUNITTYPE@CScaleBaseData@@ABVCDisplayDataMinMax@@@Z$0
	DD	00H
	DD	FLAT:__unwindfunclet$?GetDrawingDataLength_Number_WithMinMax@CTextSizeCalculator@@ABEHPAVCPacket@@ABVCDisplayAttributes@@W4VERTSCALEUNITTYPE@CScaleBaseData@@ABVCDisplayDataMinMax@@@Z$1
	DD	01H
	DD	FLAT:__unwindfunclet$?GetDrawingDataLength_Number_WithMinMax@CTextSizeCalculator@@ABEHPAVCPacket@@ABVCDisplayAttributes@@W4VERTSCALEUNITTYPE@CScaleBaseData@@ABVCDisplayDataMinMax@@@Z$2
	DD	02H
	DD	FLAT:__unwindfunclet$?GetDrawingDataLength_Number_WithMinMax@CTextSizeCalculator@@ABEHPAVCPacket@@ABVCDisplayAttributes@@W4VERTSCALEUNITTYPE@CScaleBaseData@@ABVCDisplayDataMinMax@@@Z$3
	DD	03H
	DD	FLAT:__unwindfunclet$?GetDrawingDataLength_Number_WithMinMax@CTextSizeCalculator@@ABEHPAVCPacket@@ABVCDisplayAttributes@@W4VERTSCALEUNITTYPE@CScaleBaseData@@ABVCDisplayDataMinMax@@@Z$4
	DD	01H
	DD	00H
	DD	05H
	DD	00H
xdata$x	ENDS
;	COMDAT xdata$x
xdata$x	SEGMENT
__unwindtable$?GetDrawingDataLength_Number@CTextSizeCalculator@@ABEHPAVCPacket@@ABVCDisplayAttributes@@W4VERTSCALEUNITTYPE@CScaleBaseData@@@Z DD 0ffffffffH
	DD	FLAT:__unwindfunclet$?GetDrawingDataLength_Number@CTextSizeCalculator@@ABEHPAVCPacket@@ABVCDisplayAttributes@@W4VERTSCALEUNITTYPE@CScaleBaseData@@@Z$0
	DD	00H
	DD	FLAT:__unwindfunclet$?GetDrawingDataLength_Number@CTextSizeCalculator@@ABEHPAVCPacket@@ABVCDisplayAttributes@@W4VERTSCALEUNITTYPE@CScaleBaseData@@@Z$1
	DD	01H
	DD	00H
	DD	02H
	DD	00H
__ehfuncinfo$?GetDrawingDataLength_Number@CTextSizeCalculator@@ABEHPAVCPacket@@ABVCDisplayAttributes@@W4VERTSCALEUNITTYPE@CScaleBaseData@@@Z DD 019930522H
	DD	04H
	DD	FLAT:__unwindtable$?GetDrawingDataLength_Number@CTextSizeCalculator@@ABEHPAVCPacket@@ABVCDisplayAttributes@@W4VERTSCALEUNITTYPE@CScaleBaseData@@@Z
	DD	2 DUP(00H)
	DD	2 DUP(00H)
	DD	00H
	DD	01H
xdata$x	ENDS
;	COMDAT xdata$x
xdata$x	SEGMENT
__unwindtable$?GetDrawingDataLength_Text@CTextSizeCalculator@@ABEHPAVCPacket@@@Z DD 0ffffffffH
	DD	FLAT:__unwindfunclet$?GetDrawingDataLength_Text@CTextSizeCalculator@@ABEHPAVCPacket@@@Z$0
__ehfuncinfo$?GetDrawingDataLength_Text@CTextSizeCalculator@@ABEHPAVCPacket@@@Z DD 019930522H
	DD	01H
	DD	FLAT:__unwindtable$?GetDrawingDataLength_Text@CTextSizeCalculator@@ABEHPAVCPacket@@@Z
	DD	2 DUP(00H)
	DD	2 DUP(00H)
	DD	00H
	DD	01H
xdata$x	ENDS
;	COMDAT xdata$x
xdata$x	SEGMENT
__unwindtable$?GetDrawingDataLength_WithMinMax@CTextSizeCalculator@@ABEHPAVCPacket@@ABVCDisplayAttributes@@W4VERTSCALEUNITTYPE@CScaleBaseData@@ABVCDisplayDataMinMax@@@Z DD 0ffffffffH
	DD	FLAT:__unwindfunclet$?GetDrawingDataLength_WithMinMax@CTextSizeCalculator@@ABEHPAVCPacket@@ABVCDisplayAttributes@@W4VERTSCALEUNITTYPE@CScaleBaseData@@ABVCDisplayDataMinMax@@@Z$0
__ehfuncinfo$?GetDrawingDataLength_WithMinMax@CTextSizeCalculator@@ABEHPAVCPacket@@ABVCDisplayAttributes@@W4VERTSCALEUNITTYPE@CScaleBaseData@@ABVCDisplayDataMinMax@@@Z DD 019930522H
	DD	01H
	DD	FLAT:__unwindtable$?GetDrawingDataLength_WithMinMax@CTextSizeCalculator@@ABEHPAVCPacket@@ABVCDisplayAttributes@@W4VERTSCALEUNITTYPE@CScaleBaseData@@ABVCDisplayDataMinMax@@@Z
	DD	2 DUP(00H)
	DD	2 DUP(00H)
	DD	00H
	DD	01H
xdata$x	ENDS
;	COMDAT xdata$x
xdata$x	SEGMENT
__ehfuncinfo$?GetDrawingDataLength@CTextSizeCalculator@@ABEHPAVCPacket@@ABVCDisplayAttributes@@W4VERTSCALEUNITTYPE@CScaleBaseData@@@Z DD 019930522H
	DD	05H
	DD	FLAT:__unwindtable$?GetDrawingDataLength@CTextSizeCalculator@@ABEHPAVCPacket@@ABVCDisplayAttributes@@W4VERTSCALEUNITTYPE@CScaleBaseData@@@Z
	DD	2 DUP(00H)
	DD	2 DUP(00H)
	DD	00H
	DD	01H
__unwindtable$?GetDrawingDataLength@CTextSizeCalculator@@ABEHPAVCPacket@@ABVCDisplayAttributes@@W4VERTSCALEUNITTYPE@CScaleBaseData@@@Z DD 0ffffffffH
	DD	FLAT:__unwindfunclet$?GetDrawingDataLength@CTextSizeCalculator@@ABEHPAVCPacket@@ABVCDisplayAttributes@@W4VERTSCALEUNITTYPE@CScaleBaseData@@@Z$0
	DD	0ffffffffH
	DD	FLAT:__unwindfunclet$?GetDrawingDataLength@CTextSizeCalculator@@ABEHPAVCPacket@@ABVCDisplayAttributes@@W4VERTSCALEUNITTYPE@CScaleBaseData@@@Z$1
	DD	01H
	DD	FLAT:__unwindfunclet$?GetDrawingDataLength@CTextSizeCalculator@@ABEHPAVCPacket@@ABVCDisplayAttributes@@W4VERTSCALEUNITTYPE@CScaleBaseData@@@Z$2
	DD	02H
	DD	00H
	DD	03H
	DD	00H
xdata$x	ENDS
;	COMDAT xdata$x
xdata$x	SEGMENT
__unwindtable$?GetMaxPacketDataLength@CTextSizeCalculator@@ABEHABV?$CStringT@DV?$StrTraitMFC_DLL@DV?$ChTraitsCRT@D@ATL@@@@@ATL@@PAVCSubGraphPacketList@@ABVCDisplayAttributes@@W4VERTSCALEUNITTYPE@CScaleBaseData@@ABVCDisplayDataMinMax@@@Z DD 0ffffffffH
	DD	FLAT:__unwindfunclet$?GetMaxPacketDataLength@CTextSizeCalculator@@ABEHABV?$CStringT@DV?$StrTraitMFC_DLL@DV?$ChTraitsCRT@D@ATL@@@@@ATL@@PAVCSubGraphPacketList@@ABVCDisplayAttributes@@W4VERTSCALEUNITTYPE@CScaleBaseData@@ABVCDisplayDataMinMax@@@Z$1
__ehfuncinfo$?GetMaxPacketDataLength@CTextSizeCalculator@@ABEHABV?$CStringT@DV?$StrTraitMFC_DLL@DV?$ChTraitsCRT@D@ATL@@@@@ATL@@PAVCSubGraphPacketList@@ABVCDisplayAttributes@@W4VERTSCALEUNITTYPE@CScaleBaseData@@ABVCDisplayDataMinMax@@@Z DD 019930522H
	DD	01H
	DD	FLAT:__unwindtable$?GetMaxPacketDataLength@CTextSizeCalculator@@ABEHABV?$CStringT@DV?$StrTraitMFC_DLL@DV?$ChTraitsCRT@D@ATL@@@@@ATL@@PAVCSubGraphPacketList@@ABVCDisplayAttributes@@W4VERTSCALEUNITTYPE@CScaleBaseData@@ABVCDisplayDataMinMax@@@Z
	DD	2 DUP(00H)
	DD	2 DUP(00H)
	DD	00H
	DD	01H
xdata$x	ENDS
;	COMDAT xdata$x
xdata$x	SEGMENT
__unwindtable$?GetMaxScaleTextSize_Packet@CTextSizeCalculator@@ABE?AVCSize@@PAVCDC@@PAVCPacket@@ABVCVertScaleMaxWidthCalculatorData@@@Z DD 0ffffffffH
	DD	FLAT:__unwindfunclet$?GetMaxScaleTextSize_Packet@CTextSizeCalculator@@ABE?AVCSize@@PAVCDC@@PAVCPacket@@ABVCVertScaleMaxWidthCalculatorData@@@Z$0
__ehfuncinfo$?GetMaxScaleTextSize_Packet@CTextSizeCalculator@@ABE?AVCSize@@PAVCDC@@PAVCPacket@@ABVCVertScaleMaxWidthCalculatorData@@@Z DD 019930522H
	DD	01H
	DD	FLAT:__unwindtable$?GetMaxScaleTextSize_Packet@CTextSizeCalculator@@ABE?AVCSize@@PAVCDC@@PAVCPacket@@ABVCVertScaleMaxWidthCalculatorData@@@Z
	DD	2 DUP(00H)
	DD	2 DUP(00H)
	DD	00H
	DD	01H
xdata$x	ENDS
;	COMDAT xdata$x
xdata$x	SEGMENT
__unwindtable$?GetMaxScaleTextSize_Packet@CTextSizeCalculator@@ABE?AVCSize@@PAVCDC@@ABVCVertScaleMaxWidthCalculatorData@@@Z DD 0ffffffffH
	DD	FLAT:__unwindfunclet$?GetMaxScaleTextSize_Packet@CTextSizeCalculator@@ABE?AVCSize@@PAVCDC@@ABVCVertScaleMaxWidthCalculatorData@@@Z$0
	DD	00H
	DD	FLAT:__unwindfunclet$?GetMaxScaleTextSize_Packet@CTextSizeCalculator@@ABE?AVCSize@@PAVCDC@@ABVCVertScaleMaxWidthCalculatorData@@@Z$1
	DD	01H
	DD	FLAT:__unwindfunclet$?GetMaxScaleTextSize_Packet@CTextSizeCalculator@@ABE?AVCSize@@PAVCDC@@ABVCVertScaleMaxWidthCalculatorData@@@Z$3
__ehfuncinfo$?GetMaxScaleTextSize_Packet@CTextSizeCalculator@@ABE?AVCSize@@PAVCDC@@ABVCVertScaleMaxWidthCalculatorData@@@Z DD 019930522H
	DD	03H
	DD	FLAT:__unwindtable$?GetMaxScaleTextSize_Packet@CTextSizeCalculator@@ABE?AVCSize@@PAVCDC@@ABVCVertScaleMaxWidthCalculatorData@@@Z
	DD	2 DUP(00H)
	DD	2 DUP(00H)
	DD	00H
	DD	01H
xdata$x	ENDS
;	COMDAT xdata$x
xdata$x	SEGMENT
__unwindtable$?GetMaxScaleTextSize_BaseLine@CTextSizeCalculator@@ABE?AVCSize@@PAVCDC@@ABVCVertScaleMaxWidthCalculatorData@@@Z DD 0ffffffffH
	DD	FLAT:__unwindfunclet$?GetMaxScaleTextSize_BaseLine@CTextSizeCalculator@@ABE?AVCSize@@PAVCDC@@ABVCVertScaleMaxWidthCalculatorData@@@Z$2
	DD	0ffffffffH
	DD	FLAT:__unwindfunclet$?GetMaxScaleTextSize_BaseLine@CTextSizeCalculator@@ABE?AVCSize@@PAVCDC@@ABVCVertScaleMaxWidthCalculatorData@@@Z$0
	DD	0ffffffffH
	DD	FLAT:__unwindfunclet$?GetMaxScaleTextSize_BaseLine@CTextSizeCalculator@@ABE?AVCSize@@PAVCDC@@ABVCVertScaleMaxWidthCalculatorData@@@Z$1
__ehfuncinfo$?GetMaxScaleTextSize_BaseLine@CTextSizeCalculator@@ABE?AVCSize@@PAVCDC@@ABVCVertScaleMaxWidthCalculatorData@@@Z DD 019930522H
	DD	03H
	DD	FLAT:__unwindtable$?GetMaxScaleTextSize_BaseLine@CTextSizeCalculator@@ABE?AVCSize@@PAVCDC@@ABVCVertScaleMaxWidthCalculatorData@@@Z
	DD	2 DUP(00H)
	DD	2 DUP(00H)
	DD	00H
	DD	01H
xdata$x	ENDS
;	COMDAT xdata$x
xdata$x	SEGMENT
__unwindtable$?GetMaxScaleTextSize_IndicateData@CTextSizeCalculator@@ABE?AVCSize@@PAVCDC@@ABVCVertScaleMaxWidthCalculatorData@@@Z DD 0ffffffffH
	DD	FLAT:__unwindfunclet$?GetMaxScaleTextSize_IndicateData@CTextSizeCalculator@@ABE?AVCSize@@PAVCDC@@ABVCVertScaleMaxWidthCalculatorData@@@Z$0
	DD	0ffffffffH
	DD	FLAT:__unwindfunclet$?GetMaxScaleTextSize_IndicateData@CTextSizeCalculator@@ABE?AVCSize@@PAVCDC@@ABVCVertScaleMaxWidthCalculatorData@@@Z$1
	DD	0ffffffffH
	DD	FLAT:__unwindfunclet$?GetMaxScaleTextSize_IndicateData@CTextSizeCalculator@@ABE?AVCSize@@PAVCDC@@ABVCVertScaleMaxWidthCalculatorData@@@Z$2
__ehfuncinfo$?GetMaxScaleTextSize_IndicateData@CTextSizeCalculator@@ABE?AVCSize@@PAVCDC@@ABVCVertScaleMaxWidthCalculatorData@@@Z DD 019930522H
	DD	03H
	DD	FLAT:__unwindtable$?GetMaxScaleTextSize_IndicateData@CTextSizeCalculator@@ABE?AVCSize@@PAVCDC@@ABVCVertScaleMaxWidthCalculatorData@@@Z
	DD	2 DUP(00H)
	DD	2 DUP(00H)
	DD	00H
	DD	01H
xdata$x	ENDS
;	COMDAT xdata$x
xdata$x	SEGMENT
__ehfuncinfo$?GetMaxScaleTextSize_DataDate@CTextSizeCalculator@@ABE?AVCSize@@PAVCDC@@PAVCPacket@@ABVCScaleCompart@@@Z DD 019930522H
	DD	06H
	DD	FLAT:__unwindtable$?GetMaxScaleTextSize_DataDate@CTextSizeCalculator@@ABE?AVCSize@@PAVCDC@@PAVCPacket@@ABVCScaleCompart@@@Z
	DD	2 DUP(00H)
	DD	2 DUP(00H)
	DD	00H
	DD	01H
__unwindtable$?GetMaxScaleTextSize_DataDate@CTextSizeCalculator@@ABE?AVCSize@@PAVCDC@@PAVCPacket@@ABVCScaleCompart@@@Z DD 0ffffffffH
	DD	FLAT:__unwindfunclet$?GetMaxScaleTextSize_DataDate@CTextSizeCalculator@@ABE?AVCSize@@PAVCDC@@PAVCPacket@@ABVCScaleCompart@@@Z$0
	DD	00H
	DD	FLAT:__unwindfunclet$?GetMaxScaleTextSize_DataDate@CTextSizeCalculator@@ABE?AVCSize@@PAVCDC@@PAVCPacket@@ABVCScaleCompart@@@Z$1
	DD	01H
	DD	FLAT:__unwindfunclet$?GetMaxScaleTextSize_DataDate@CTextSizeCalculator@@ABE?AVCSize@@PAVCDC@@PAVCPacket@@ABVCScaleCompart@@@Z$3
	DD	01H
	DD	FLAT:__unwindfunclet$?GetMaxScaleTextSize_DataDate@CTextSizeCalculator@@ABE?AVCSize@@PAVCDC@@PAVCPacket@@ABVCScaleCompart@@@Z$4
	DD	01H
	DD	FLAT:__unwindfunclet$?GetMaxScaleTextSize_DataDate@CTextSizeCalculator@@ABE?AVCSize@@PAVCDC@@PAVCPacket@@ABVCScaleCompart@@@Z$6
	DD	01H
	DD	FLAT:__unwindfunclet$?GetMaxScaleTextSize_DataDate@CTextSizeCalculator@@ABE?AVCSize@@PAVCDC@@PAVCPacket@@ABVCScaleCompart@@@Z$2
xdata$x	ENDS
;	COMDAT xdata$x
xdata$x	SEGMENT
__ehfuncinfo$?GetMaxScaleText_Rate@CTextSizeCalculator@@ABE?AVCSize@@PAVCDC@@ABVCVertScaleMaxWidthCalculatorData@@@Z DD 019930522H
	DD	08H
	DD	FLAT:__unwindtable$?GetMaxScaleText_Rate@CTextSizeCalculator@@ABE?AVCSize@@PAVCDC@@ABVCVertScaleMaxWidthCalculatorData@@@Z
	DD	2 DUP(00H)
	DD	2 DUP(00H)
	DD	00H
	DD	01H
__unwindtable$?GetMaxScaleText_Rate@CTextSizeCalculator@@ABE?AVCSize@@PAVCDC@@ABVCVertScaleMaxWidthCalculatorData@@@Z DD 0ffffffffH
	DD	FLAT:__unwindfunclet$?GetMaxScaleText_Rate@CTextSizeCalculator@@ABE?AVCSize@@PAVCDC@@ABVCVertScaleMaxWidthCalculatorData@@@Z$0
	DD	00H
	DD	FLAT:__unwindfunclet$?GetMaxScaleText_Rate@CTextSizeCalculator@@ABE?AVCSize@@PAVCDC@@ABVCVertScaleMaxWidthCalculatorData@@@Z$1
	DD	0ffffffffH
	DD	FLAT:__unwindfunclet$?GetMaxScaleText_Rate@CTextSizeCalculator@@ABE?AVCSize@@PAVCDC@@ABVCVertScaleMaxWidthCalculatorData@@@Z$1
	DD	02H
	DD	FLAT:__unwindfunclet$?GetMaxScaleText_Rate@CTextSizeCalculator@@ABE?AVCSize@@PAVCDC@@ABVCVertScaleMaxWidthCalculatorData@@@Z$2
	DD	03H
	DD	FLAT:__unwindfunclet$?GetMaxScaleText_Rate@CTextSizeCalculator@@ABE?AVCSize@@PAVCDC@@ABVCVertScaleMaxWidthCalculatorData@@@Z$3
	DD	04H
	DD	FLAT:__unwindfunclet$?GetMaxScaleText_Rate@CTextSizeCalculator@@ABE?AVCSize@@PAVCDC@@ABVCVertScaleMaxWidthCalculatorData@@@Z$4
	DD	05H
	DD	FLAT:__unwindfunclet$?GetMaxScaleText_Rate@CTextSizeCalculator@@ABE?AVCSize@@PAVCDC@@ABVCVertScaleMaxWidthCalculatorData@@@Z$5
	DD	06H
	DD	FLAT:__unwindfunclet$?GetMaxScaleText_Rate@CTextSizeCalculator@@ABE?AVCSize@@PAVCDC@@ABVCVertScaleMaxWidthCalculatorData@@@Z$6
xdata$x	ENDS
;	COMDAT xdata$x
xdata$x	SEGMENT
__unwindtable$?GetMaxScaleText_Data@CTextSizeCalculator@@ABE?AVCSize@@PAVCDC@@ABVCVertScaleMaxWidthCalculatorData@@@Z DD 0ffffffffH
	DD	FLAT:__unwindfunclet$?GetMaxScaleText_Data@CTextSizeCalculator@@ABE?AVCSize@@PAVCDC@@ABVCVertScaleMaxWidthCalculatorData@@@Z$0
	DD	0ffffffffH
	DD	FLAT:__unwindfunclet$?GetMaxScaleText_Data@CTextSizeCalculator@@ABE?AVCSize@@PAVCDC@@ABVCVertScaleMaxWidthCalculatorData@@@Z$3
	DD	0ffffffffH
	DD	FLAT:__unwindfunclet$?GetMaxScaleText_Data@CTextSizeCalculator@@ABE?AVCSize@@PAVCDC@@ABVCVertScaleMaxWidthCalculatorData@@@Z$5
__ehfuncinfo$?GetMaxScaleText_Data@CTextSizeCalculator@@ABE?AVCSize@@PAVCDC@@ABVCVertScaleMaxWidthCalculatorData@@@Z DD 019930522H
	DD	03H
	DD	FLAT:__unwindtable$?GetMaxScaleText_Data@CTextSizeCalculator@@ABE?AVCSize@@PAVCDC@@ABVCVertScaleMaxWidthCalculatorData@@@Z
	DD	2 DUP(00H)
	DD	2 DUP(00H)
	DD	00H
	DD	01H
xdata$x	ENDS
;	COMDAT xdata$x
xdata$x	SEGMENT
__unwindtable$?IsBaseLineInRegion@CTextSizeCalculator@@ABE_NABVCVertScaleMaxWidthCalculatorData@@@Z DD 0ffffffffH
	DD	FLAT:__unwindfunclet$?IsBaseLineInRegion@CTextSizeCalculator@@ABE_NABVCVertScaleMaxWidthCalculatorData@@@Z$0
__ehfuncinfo$?IsBaseLineInRegion@CTextSizeCalculator@@ABE_NABVCVertScaleMaxWidthCalculatorData@@@Z DD 019930522H
	DD	01H
	DD	FLAT:__unwindtable$?IsBaseLineInRegion@CTextSizeCalculator@@ABE_NABVCVertScaleMaxWidthCalculatorData@@@Z
	DD	2 DUP(00H)
	DD	2 DUP(00H)
	DD	00H
	DD	01H
xdata$x	ENDS
;	COMDAT xdata$x
xdata$x	SEGMENT
__unwindtable$?GetMaxVertScaleTextSize@CTextSizeCalculator@@QBE?AVCSize@@PAVCDC@@ABVCVertScaleMaxWidthCalculatorData@@@Z DD 0ffffffffH
	DD	FLAT:__unwindfunclet$?GetMaxVertScaleTextSize@CTextSizeCalculator@@QBE?AVCSize@@PAVCDC@@ABVCVertScaleMaxWidthCalculatorData@@@Z$0
	DD	0ffffffffH
	DD	FLAT:__unwindfunclet$?GetMaxVertScaleTextSize@CTextSizeCalculator@@QBE?AVCSize@@PAVCDC@@ABVCVertScaleMaxWidthCalculatorData@@@Z$3
	DD	0ffffffffH
	DD	FLAT:__unwindfunclet$?GetMaxVertScaleTextSize@CTextSizeCalculator@@QBE?AVCSize@@PAVCDC@@ABVCVertScaleMaxWidthCalculatorData@@@Z$5
__ehfuncinfo$?GetMaxVertScaleTextSize@CTextSizeCalculator@@QBE?AVCSize@@PAVCDC@@ABVCVertScaleMaxWidthCalculatorData@@@Z DD 019930522H
	DD	03H
	DD	FLAT:__unwindtable$?GetMaxVertScaleTextSize@CTextSizeCalculator@@QBE?AVCSize@@PAVCDC@@ABVCVertScaleMaxWidthCalculatorData@@@Z
	DD	2 DUP(00H)
	DD	2 DUP(00H)
	DD	00H
	DD	01H
xdata$x	ENDS
;	COMDAT xdata$x
xdata$x	SEGMENT
__unwindtable$?GetMaxHorzScaleTextSize@CTextSizeCalculator@@QBE?AVCSize@@PAVCDC@@ABVCHorzScaleMaxWidthCalculatorData@@@Z DD 0ffffffffH
	DD	FLAT:__unwindfunclet$?GetMaxHorzScaleTextSize@CTextSizeCalculator@@QBE?AVCSize@@PAVCDC@@ABVCHorzScaleMaxWidthCalculatorData@@@Z$0
__ehfuncinfo$?GetMaxHorzScaleTextSize@CTextSizeCalculator@@QBE?AVCSize@@PAVCDC@@ABVCHorzScaleMaxWidthCalculatorData@@@Z DD 019930522H
	DD	01H
	DD	FLAT:__unwindtable$?GetMaxHorzScaleTextSize@CTextSizeCalculator@@QBE?AVCSize@@PAVCDC@@ABVCHorzScaleMaxWidthCalculatorData@@@Z
	DD	2 DUP(00H)
	DD	2 DUP(00H)
	DD	00H
	DD	01H
xdata$x	ENDS
;	COMDAT xdata$x
xdata$x	SEGMENT
__unwindtable$??HATL@@YA?AV?$CStringT@DV?$StrTraitMFC_DLL@DV?$ChTraitsCRT@D@ATL@@@@@0@PBDABV10@@Z DD 0ffffffffH
	DD	FLAT:__unwindfunclet$??HATL@@YA?AV?$CStringT@DV?$StrTraitMFC_DLL@DV?$ChTraitsCRT@D@ATL@@@@@0@PBDABV10@@Z$0
__ehfuncinfo$??HATL@@YA?AV?$CStringT@DV?$StrTraitMFC_DLL@DV?$ChTraitsCRT@D@ATL@@@@@0@PBDABV10@@Z DD 019930522H
	DD	01H
	DD	FLAT:__unwindtable$??HATL@@YA?AV?$CStringT@DV?$StrTraitMFC_DLL@DV?$ChTraitsCRT@D@ATL@@@@@0@PBDABV10@@Z
	DD	2 DUP(00H)
	DD	2 DUP(00H)
	DD	00H
	DD	01H
xdata$x	ENDS
; Function compile flags: /Ogtp
;	COMDAT ??1CTextInRightScaleRegionDrawer@@QAE@XZ
_TEXT	SEGMENT
??1CTextInRightScaleRegionDrawer@@QAE@XZ PROC		; CTextInRightScaleRegionDrawer::~CTextInRightScaleRegionDrawer, COMDAT
; _this$ = ecx
  00000	ff 25 00 00 00
	00		 jmp	 DWORD PTR __imp_??1?$CStringT@DV?$StrTraitMFC_DLL@DV?$ChTraitsCRT@D@ATL@@@@@ATL@@QAE@XZ
??1CTextInRightScaleRegionDrawer@@QAE@XZ ENDP		; CTextInRightScaleRegionDrawer::~CTextInRightScaleRegionDrawer
_TEXT	ENDS
; Function compile flags: /Ogtp
; File D:\git\src\IBK\IBK_DRFN\ProjSrc\SrcChartEx\ChartOCX\ChartObject\DrawingRegionCalculator.cpp
; File C:\Program Files (x86)\Microsoft Visual Studio\2019\Community\VC\Tools\MSVC\14.29.30133\atlmfc\include\afxwin1.inl
; File D:\git\src\IBK\IBK_DRFN\ProjSrc\SrcChartEx\ChartOCX\ChartObject\DrawingRegionCalculator.cpp
; File C:\Program Files (x86)\Microsoft Visual Studio\2019\Community\VC\Tools\MSVC\14.29.30133\atlmfc\include\atltypes.h
; File D:\git\src\IBK\IBK_DRFN\ProjSrc\SrcChartEx\ChartOCX\ChartObject\DrawingRegionCalculator.cpp
; File C:\Program Files (x86)\Microsoft Visual Studio\2019\Community\VC\Tools\MSVC\14.29.30133\atlmfc\include\atltypes.h
; File D:\git\src\IBK\IBK_DRFN\ProjSrc\SrcChartEx\ChartOCX\ChartObject\DrawingRegionCalculator.cpp
; File C:\Program Files (x86)\Microsoft Visual Studio\2019\Community\VC\Tools\MSVC\14.29.30133\atlmfc\include\afxtempl.h
; File D:\git\src\IBK\IBK_DRFN\ProjSrc\SrcChartEx\ChartOCX\ChartObject\DrawingRegionCalculator.cpp
; File C:\Program Files (x86)\Microsoft Visual Studio\2019\Community\VC\Tools\MSVC\14.29.30133\atlmfc\include\afxtempl.h
; File D:\git\src\IBK\IBK_DRFN\ProjSrc\SrcChartEx\ChartOCX\ChartObject\DrawingRegionCalculator.cpp
; File D:\git\src\IBK\IBK_DRFN\ProjSrc\SrcChartEx\ChartOCX\Include_Chart\Conversion.h
; File D:\git\src\IBK\IBK_DRFN\ProjSrc\SrcChartEx\ChartOCX\ChartObject\DrawingRegionCalculator.cpp
; File D:\git\src\IBK\IBK_DRFN\ProjSrc\SrcChartEx\ChartOCX\Include_Chart\Conversion.h
; File D:\git\src\IBK\IBK_DRFN\ProjSrc\SrcChartEx\ChartOCX\ChartObject\DrawingRegionCalculator.cpp
; File D:\git\src\IBK\IBK_DRFN\ProjSrc\SrcChartEx\ChartOCX\Include_Chart\Conversion.h
; File D:\git\src\IBK\IBK_DRFN\ProjSrc\SrcChartEx\ChartOCX\ChartObject\DrawingRegionCalculator.cpp
; File C:\Program Files (x86)\Microsoft Visual Studio\2019\Community\VC\Tools\MSVC\14.29.30133\atlmfc\include\atlsimpstr.h
; File D:\git\src\IBK\IBK_DRFN\ProjSrc\SrcChartEx\ChartOCX\ChartObject\DrawingRegionCalculator.cpp
; File C:\Program Files (x86)\Microsoft Visual Studio\2019\Community\VC\Tools\MSVC\14.29.30133\atlmfc\include\atlsimpstr.h
; File D:\git\src\IBK\IBK_DRFN\ProjSrc\SrcChartEx\ChartOCX\ChartObject\DrawingRegionCalculator.cpp
; File C:\Program Files (x86)\Microsoft Visual Studio\2019\Community\VC\Tools\MSVC\14.29.30133\atlmfc\include\atlsimpstr.h
; File D:\git\src\IBK\IBK_DRFN\ProjSrc\SrcChartEx\ChartOCX\ChartObject\DrawingRegionCalculator.cpp
; File C:\Program Files (x86)\Microsoft Visual Studio\2019\Community\VC\Tools\MSVC\14.29.30133\atlmfc\include\atltypes.h
; File D:\git\src\IBK\IBK_DRFN\ProjSrc\SrcChartEx\ChartOCX\ChartObject\DrawingRegionCalculator.cpp
; File C:\Program Files (x86)\Microsoft Visual Studio\2019\Community\VC\Tools\MSVC\14.29.30133\atlmfc\include\afxtempl.h
; File D:\git\src\IBK\IBK_DRFN\ProjSrc\SrcChartEx\ChartOCX\ChartObject\DrawingRegionCalculator.cpp
;	COMDAT ?GetMaxScaleTextSize_Sale2@CTextSizeCalculator@@ABE?AVCSize@@PAVCDC@@ABVCVertScaleMaxWidthCalculatorData@@@Z
_TEXT	SEGMENT
$T2 = -148						; size = 88
_dMaxLengthData$3 = -60					; size = 8
_dMin$ = -52						; size = 8
_dMax$ = -44						; size = 8
_nMaxLength$1$ = -36					; size = 4
_size$4 = -32						; size = 8
$T5 = -32						; size = 8
_nNumLength$1$ = -28					; size = 4
_pConditionList$1$ = -28				; size = 4
_strData$ = -24						; size = 4
_lDifference$1$ = -20					; size = 4
$T6 = -20						; size = 4
_strFormatTrans$ = -16					; size = 4
__$EHRec$ = -12						; size = 12
___$ReturnUdt$ = 8					; size = 4
_pDC$ = 12						; size = 4
_nDataCount$1$ = 16					; size = 4
_dataType$7 = 16					; size = 4
_calData$ = 16						; size = 4
?GetMaxScaleTextSize_Sale2@CTextSizeCalculator@@ABE?AVCSize@@PAVCDC@@ABVCVertScaleMaxWidthCalculatorData@@@Z PROC ; CTextSizeCalculator::GetMaxScaleTextSize_Sale2, COMDAT
; _this$ = ecx

; 864  : {

  00000	55		 push	 ebp
  00001	8b ec		 mov	 ebp, esp
  00003	6a ff		 push	 -1
  00005	68 00 00 00 00	 push	 __ehhandler$?GetMaxScaleTextSize_Sale2@CTextSizeCalculator@@ABE?AVCSize@@PAVCDC@@ABVCVertScaleMaxWidthCalculatorData@@@Z
  0000a	64 a1 00 00 00
	00		 mov	 eax, DWORD PTR fs:0
  00010	50		 push	 eax
  00011	81 ec 88 00 00
	00		 sub	 esp, 136		; 00000088H
  00017	53		 push	 ebx
  00018	56		 push	 esi
  00019	57		 push	 edi
  0001a	a1 00 00 00 00	 mov	 eax, DWORD PTR ___security_cookie
  0001f	33 c5		 xor	 eax, ebp
  00021	50		 push	 eax
  00022	8d 45 f4	 lea	 eax, DWORD PTR __$EHRec$[ebp]
  00025	64 a3 00 00 00
	00		 mov	 DWORD PTR fs:0, eax
  0002b	8b d9		 mov	 ebx, ecx

; 865  : 	// 1. Support Price Band Scale.
; 866  : 	if( calData.IsDualScale() && calData.DoesRight())

  0002d	8b 7d 10	 mov	 edi, DWORD PTR _calData$[ebp]
  00030	8b cf		 mov	 ecx, edi
  00032	e8 00 00 00 00	 call	 ?IsDualScale@CVertScaleMaxWidthCalculatorData@@QBEHXZ ; CVertScaleMaxWidthCalculatorData::IsDualScale
  00037	85 c0		 test	 eax, eax
  00039	74 62		 je	 SHORT $LN2@GetMaxScal
  0003b	8b cf		 mov	 ecx, edi
  0003d	e8 00 00 00 00	 call	 ?DoesRight@CVertScaleMaxWidthCalculatorData@@QBE_NXZ ; CVertScaleMaxWidthCalculatorData::DoesRight
  00042	84 c0		 test	 al, al
  00044	74 57		 je	 SHORT $LN2@GetMaxScal

; 807  : 	return GetMaxScaleTextSize(pDC->GetTextExtent("0"), nLength, textCompart);

  00046	68 00 00 00 00	 push	 OFFSET ??_C@_01GBGANLPD@0@
  0004b	8d 4d ec	 lea	 ecx, DWORD PTR $T6[ebp]
  0004e	ff 15 00 00 00
	00		 call	 DWORD PTR __imp_??0?$CStringT@DV?$StrTraitMFC_DLL@DV?$ChTraitsCRT@D@ATL@@@@@ATL@@QAE@PBD@Z
; File C:\Program Files (x86)\Microsoft Visual Studio\2019\Community\VC\Tools\MSVC\14.29.30133\atlmfc\include\afxwin1.inl

; 639  : 		VERIFY(::GetTextExtentPoint32(m_hAttribDC, str, (int)str.GetLength(), &size));

  00054	8d 45 e0	 lea	 eax, DWORD PTR _size$4[ebp]
  00057	50		 push	 eax
  00058	8b 45 ec	 mov	 eax, DWORD PTR $T6[ebp]
  0005b	ff 70 f4	 push	 DWORD PTR [eax-12]
  0005e	50		 push	 eax
  0005f	8b 45 0c	 mov	 eax, DWORD PTR _pDC$[ebp]
  00062	ff 70 08	 push	 DWORD PTR [eax+8]
  00065	ff 15 00 00 00
	00		 call	 DWORD PTR __imp__GetTextExtentPoint32A@16
; File D:\git\src\IBK\IBK_DRFN\ProjSrc\SrcChartEx\ChartOCX\ChartObject\DrawingRegionCalculator.cpp

; 819  : 	return CSize(textSize.cx*nLength, textSize.cy);

  0006b	8b 45 e0	 mov	 eax, DWORD PTR _size$4[ebp]
; File C:\Program Files (x86)\Microsoft Visual Studio\2019\Community\VC\Tools\MSVC\14.29.30133\atlmfc\include\atltypes.h

; 312  : 	cx = initCX;

  0006e	8b 75 08	 mov	 esi, DWORD PTR ___$ReturnUdt$[ebp]
; File D:\git\src\IBK\IBK_DRFN\ProjSrc\SrcChartEx\ChartOCX\ChartObject\DrawingRegionCalculator.cpp

; 819  : 	return CSize(textSize.cx*nLength, textSize.cy);

  00071	8d 0c 40	 lea	 ecx, DWORD PTR [eax+eax*2]
  00074	03 c9		 add	 ecx, ecx
; File C:\Program Files (x86)\Microsoft Visual Studio\2019\Community\VC\Tools\MSVC\14.29.30133\atlmfc\include\atltypes.h

; 312  : 	cx = initCX;

  00076	89 0e		 mov	 DWORD PTR [esi], ecx

; 313  : 	cy = initCY;

  00078	8b 4d e4	 mov	 ecx, DWORD PTR _size$4[ebp+4]
  0007b	89 4e 04	 mov	 DWORD PTR [esi+4], ecx
; File D:\git\src\IBK\IBK_DRFN\ProjSrc\SrcChartEx\ChartOCX\ChartObject\DrawingRegionCalculator.cpp

; 807  : 	return GetMaxScaleTextSize(pDC->GetTextExtent("0"), nLength, textCompart);

  0007e	8d 4d ec	 lea	 ecx, DWORD PTR $T6[ebp]
  00081	ff 15 00 00 00
	00		 call	 DWORD PTR __imp_??1?$CStringT@DV?$StrTraitMFC_DLL@DV?$ChTraitsCRT@D@ATL@@@@@ATL@@QAE@XZ

; 867  : 		return GetMaxScaleTextSize(pDC, 6);				// <> - ( 99.99%)

  00087	8b c6		 mov	 eax, esi

; 922  : }

  00089	8b 4d f4	 mov	 ecx, DWORD PTR __$EHRec$[ebp]
  0008c	64 89 0d 00 00
	00 00		 mov	 DWORD PTR fs:0, ecx
  00093	59		 pop	 ecx
  00094	5f		 pop	 edi
  00095	5e		 pop	 esi
  00096	5b		 pop	 ebx
  00097	8b e5		 mov	 esp, ebp
  00099	5d		 pop	 ebp
  0009a	c2 0c 00	 ret	 12			; 0000000cH
$LN2@GetMaxScal:

; 868  : 
; 869  : 	// <> - ()
; 870  : 	if(calData.GetSubGraphPacketList() == NULL) return CSize(0, 0);

  0009d	8b cf		 mov	 ecx, edi
  0009f	e8 00 00 00 00	 call	 ?GetSubGraphPacketList@CVertScaleMaxWidthCalculatorData@@QBEPAVCSubGraphPacketList@@XZ ; CVertScaleMaxWidthCalculatorData::GetSubGraphPacketList
  000a4	85 c0		 test	 eax, eax
  000a6	0f 84 8b 02 00
	00		 je	 $LN114@GetMaxScal

; 871  : 	CPacket *pPacket = calData.GetSubGraphPacketList()->GetPacket( 1);

  000ac	6a 01		 push	 1
  000ae	8b cf		 mov	 ecx, edi
  000b0	e8 00 00 00 00	 call	 ?GetSubGraphPacketList@CVertScaleMaxWidthCalculatorData@@QBEPAVCSubGraphPacketList@@XZ ; CVertScaleMaxWidthCalculatorData::GetSubGraphPacketList
  000b5	8b c8		 mov	 ecx, eax
  000b7	e8 00 00 00 00	 call	 ?GetPacket@CSubGraphPacketList@@QAEPAVCPacket@@H@Z ; CSubGraphPacketList::GetPacket
  000bc	8b f0		 mov	 esi, eax

; 872  : 	if( pPacket == NULL) return CSize(0, 0);

  000be	85 f6		 test	 esi, esi
  000c0	0f 84 71 02 00
	00		 je	 $LN114@GetMaxScal

; 873  : 	int nDataCount = pPacket->GetCount();

  000c6	8b 16		 mov	 edx, DWORD PTR [esi]
  000c8	8b ce		 mov	 ecx, esi
  000ca	ff 52 14	 call	 DWORD PTR [edx+20]
  000cd	89 45 10	 mov	 DWORD PTR _nDataCount$1$[ebp], eax

; 874  : 	if( nDataCount <= 0) return CSize(0, 0);

  000d0	85 c0		 test	 eax, eax
  000d2	0f 8e 5f 02 00
	00		 jle	 $LN114@GetMaxScal

; 875  : 
; 876  : //	int nMaxLength = GetDrawingDataLength(pPacket, calData.GetDisplayAttributes(), calData.GetVerticalScale().GetVertScaleUnitType());
; 877  : //	int nMaxLength = GetDrawingDataLength_Number(pPacket, displayAttributes, eVertScaleUnitType);
; 878  : 	int nMaxLength = 0;
; 879  : 	CString strData, strFormatTrans;

  000d8	8d 4d e8	 lea	 ecx, DWORD PTR _strData$[ebp]
  000db	c7 45 dc 00 00
	00 00		 mov	 DWORD PTR _nMaxLength$1$[ebp], 0
  000e2	ff 15 00 00 00
	00		 call	 DWORD PTR __imp_??0?$CStringT@DV?$StrTraitMFC_DLL@DV?$ChTraitsCRT@D@ATL@@@@@ATL@@QAE@XZ
  000e8	8d 4d f0	 lea	 ecx, DWORD PTR _strFormatTrans$[ebp]
  000eb	c7 45 fc 00 00
	00 00		 mov	 DWORD PTR __$EHRec$[ebp+8], 0
  000f2	ff 15 00 00 00
	00		 call	 DWORD PTR __imp_??0?$CStringT@DV?$StrTraitMFC_DLL@DV?$ChTraitsCRT@D@ATL@@@@@ATL@@QAE@XZ

; 880  : //	if( GetDrawingData_Number( pPacket, calData.GetDisplayAttributes(), strData, strFormatTrans))
; 881  : 	double dMin = 0, dMax = 0;
; 882  : //	if( GetPacketMinMax(pPacket, calData.GetDisplayAttributes(), dMin, dMax))
; 883  : 	if( 0 < pPacket->GetMinMax( 0, nDataCount - 1, dMin, dMax))

  000f8	6a 00		 push	 0
  000fa	8d 45 d4	 lea	 eax, DWORD PTR _dMax$[ebp]
  000fd	c6 45 fc 01	 mov	 BYTE PTR __$EHRec$[ebp+8], 1
  00101	50		 push	 eax
  00102	8d 45 cc	 lea	 eax, DWORD PTR _dMin$[ebp]
  00105	0f 57 c0	 xorps	 xmm0, xmm0
  00108	50		 push	 eax
  00109	8b 45 10	 mov	 eax, DWORD PTR _nDataCount$1$[ebp]
  0010c	8b ce		 mov	 ecx, esi
  0010e	48		 dec	 eax
  0010f	f2 0f 11 45 cc	 movsd	 QWORD PTR _dMin$[ebp], xmm0
  00114	50		 push	 eax
  00115	6a 00		 push	 0
  00117	f2 0f 11 45 d4	 movsd	 QWORD PTR _dMax$[ebp], xmm0
  0011c	ff 15 00 00 00
	00		 call	 DWORD PTR __imp_?GetMinMax@CPacket@@QAEHHHAAN0H@Z
  00122	85 c0		 test	 eax, eax
  00124	0f 8e bd 01 00
	00		 jle	 $LN6@GetMaxScal

; 884  : 	{
; 885  : 		CString dataType = pPacket->GetType(false);

  0012a	6a 00		 push	 0
  0012c	8d 45 10	 lea	 eax, DWORD PTR _dataType$7[ebp]
  0012f	8b ce		 mov	 ecx, esi
  00131	50		 push	 eax
  00132	ff 15 00 00 00
	00		 call	 DWORD PTR __imp_?GetType@CPacket@@QAE?AV?$CStringT@DV?$StrTraitMFC_DLL@DV?$ChTraitsCRT@D@ATL@@@@@ATL@@_N@Z

; 886  : 		if( dataType.Find( '.') < 0) dataType = "x 1";

  00138	6a 00		 push	 0
  0013a	6a 2e		 push	 46			; 0000002eH
  0013c	8d 4d 10	 lea	 ecx, DWORD PTR _dataType$7[ebp]
  0013f	c6 45 fc 02	 mov	 BYTE PTR __$EHRec$[ebp+8], 2
  00143	ff 15 00 00 00
	00		 call	 DWORD PTR __imp_?Find@?$CStringT@DV?$StrTraitMFC_DLL@DV?$ChTraitsCRT@D@ATL@@@@@ATL@@QBEHDH@Z
  00149	85 c0		 test	 eax, eax
  0014b	79 0e		 jns	 SHORT $LN7@GetMaxScal
  0014d	68 00 00 00 00	 push	 OFFSET ??_C@_03IOCAOJMC@x?51@
  00152	8d 4d 10	 lea	 ecx, DWORD PTR _dataType$7[ebp]
  00155	ff 15 00 00 00
	00		 call	 DWORD PTR __imp_??4?$CStringT@DV?$StrTraitMFC_DLL@DV?$ChTraitsCRT@D@ATL@@@@@ATL@@QAEAAV01@PBD@Z
$LN7@GetMaxScal:

; 887  : 		double dMaxLengthData = CDataConversion::GetLongLengthData(dMin, dMax, dataType);

  0015b	8d 45 10	 lea	 eax, DWORD PTR _dataType$7[ebp]
  0015e	50		 push	 eax
  0015f	8d 45 d4	 lea	 eax, DWORD PTR _dMax$[ebp]
  00162	50		 push	 eax
  00163	8d 45 cc	 lea	 eax, DWORD PTR _dMin$[ebp]
  00166	50		 push	 eax
  00167	e8 00 00 00 00	 call	 ?GetLongLengthData@CDataConversion@@SANABN0ABV?$CStringT@DV?$StrTraitMFC_DLL@DV?$ChTraitsCRT@D@ATL@@@@@ATL@@@Z ; CDataConversion::GetLongLengthData

; 888  : 
; 889  : 		int decimalDownCount = CDataConversion::GetDecimalDownCount( dataType);

  0016c	8d 45 10	 lea	 eax, DWORD PTR _dataType$7[ebp]
  0016f	6a 01		 push	 1
  00171	50		 push	 eax
  00172	dd 5d c4	 fstp	 QWORD PTR _dMaxLengthData$3[ebp]
  00175	e8 00 00 00 00	 call	 ?GetDecimalDownCount@CDataConversion@@SAHABV?$CStringT@DV?$StrTraitMFC_DLL@DV?$ChTraitsCRT@D@ATL@@@@@ATL@@_N@Z ; CDataConversion::GetDecimalDownCount

; 890  : 		long lDifference = long( ( dMax * pow( 10, decimalDownCount)) - long( dMin * pow( 10, decimalDownCount)) );

  0017a	f2 0f 10 05 00
	00 00 00	 movsd	 xmm0, QWORD PTR __real@4024000000000000
  00182	83 c4 14	 add	 esp, 20			; 00000014H
  00185	66 0f 6e c8	 movd	 xmm1, eax
  00189	f3 0f e6 c9	 cvtdq2pd xmm1, xmm1
  0018d	e8 00 00 00 00	 call	 __libm_sse2_pow_precise
  00192	0f 28 c8	 movaps	 xmm1, xmm0

; 891  : 		CIndicatorInfo *pIndicatorInfo = calData.GetIndicatorInfo();

  00195	8b cf		 mov	 ecx, edi
  00197	f2 0f 59 45 cc	 mulsd	 xmm0, QWORD PTR _dMin$[ebp]
  0019c	f2 0f 59 4d d4	 mulsd	 xmm1, QWORD PTR _dMax$[ebp]
  001a1	f2 0f 2c c0	 cvttsd2si eax, xmm0
  001a5	66 0f 6e c0	 movd	 xmm0, eax
  001a9	f3 0f e6 c0	 cvtdq2pd xmm0, xmm0
  001ad	f2 0f 5c c8	 subsd	 xmm1, xmm0
  001b1	f2 0f 2c c1	 cvttsd2si eax, xmm1
  001b5	89 45 ec	 mov	 DWORD PTR _lDifference$1$[ebp], eax
  001b8	e8 00 00 00 00	 call	 ?GetIndicatorInfo@CVertScaleMaxWidthCalculatorData@@QBEPAVCIndicatorInfo@@XZ ; CVertScaleMaxWidthCalculatorData::GetIndicatorInfo

; 892  : 		if( pIndicatorInfo)

  001bd	85 c0		 test	 eax, eax
  001bf	74 78		 je	 SHORT $LN13@GetMaxScal

; 893  : 		{
; 894  : 			CList < double, double> *pConditionList = pIndicatorInfo->GetCommonCalConditionList();

  001c1	8b c8		 mov	 ecx, eax
  001c3	ff 15 00 00 00
	00		 call	 DWORD PTR __imp_?GetCommonCalConditionList@CIndicatorInfo@@QAEPAV?$CList@NN@@XZ
  001c9	89 45 e4	 mov	 DWORD PTR _pConditionList$1$[ebp], eax
; File C:\Program Files (x86)\Microsoft Visual Studio\2019\Community\VC\Tools\MSVC\14.29.30133\atlmfc\include\afxtempl.h

; 789  : 	{ ENSURE(m_pNodeHead != NULL);

  001cc	8b 40 04	 mov	 eax, DWORD PTR [eax+4]
  001cf	85 c0		 test	 eax, eax
  001d1	0f 84 84 01 00
	00		 je	 $LN113@GetMaxScal
; File D:\git\src\IBK\IBK_DRFN\ProjSrc\SrcChartEx\ChartOCX\ChartObject\DrawingRegionCalculator.cpp

; 896  : 			if( nBarCount < 1) nBarCount = 1;

  001d7	f2 0f 2c 48 08	 cvttsd2si ecx, QWORD PTR [eax+8]
  001dc	b8 01 00 00 00	 mov	 eax, 1
  001e1	3b c8		 cmp	 ecx, eax
  001e3	0f 4c c8	 cmovl	 ecx, eax

; 897  : 			long lMod = lDifference % nBarCount;

  001e6	8b 45 ec	 mov	 eax, DWORD PTR _lDifference$1$[ebp]
  001e9	99		 cdq
  001ea	f7 f9		 idiv	 ecx
; File C:\Program Files (x86)\Microsoft Visual Studio\2019\Community\VC\Tools\MSVC\14.29.30133\atlmfc\include\afxtempl.h

; 797  : 	{ ENSURE(m_pNodeTail != NULL);

  001ec	8b 45 e4	 mov	 eax, DWORD PTR _pConditionList$1$[ebp]
  001ef	8b 40 08	 mov	 eax, DWORD PTR [eax+8]
  001f2	85 c0		 test	 eax, eax
  001f4	0f 84 61 01 00
	00		 je	 $LN113@GetMaxScal
; File D:\git\src\IBK\IBK_DRFN\ProjSrc\SrcChartEx\ChartOCX\ChartObject\DrawingRegionCalculator.cpp

; 898  : 			if( pConditionList->GetTail() == 0 && ( lMod != 0 || lDifference == 0))

  001fa	f2 0f 10 40 08	 movsd	 xmm0, QWORD PTR [eax+8]
  001ff	66 0f 2e 05 00
	00 00 00	 ucomisd xmm0, QWORD PTR __real@0000000000000000
  00207	9f		 lahf
  00208	f6 c4 44	 test	 ah, 68			; 00000044H
  0020b	7a 2c		 jp	 SHORT $LN13@GetMaxScal
  0020d	85 d2		 test	 edx, edx
  0020f	75 05		 jne	 SHORT $LN11@GetMaxScal
  00211	39 55 ec	 cmp	 DWORD PTR _lDifference$1$[ebp], edx
  00214	75 23		 jne	 SHORT $LN13@GetMaxScal
$LN11@GetMaxScal:

; 899  : 			{
; 900  : 				if( dataType.Find( '.') < 0)	dataType = "x 0.1";

  00216	6a 00		 push	 0
  00218	6a 2e		 push	 46			; 0000002eH
  0021a	8d 4d 10	 lea	 ecx, DWORD PTR _dataType$7[ebp]
  0021d	ff 15 00 00 00
	00		 call	 DWORD PTR __imp_?Find@?$CStringT@DV?$StrTraitMFC_DLL@DV?$ChTraitsCRT@D@ATL@@@@@ATL@@QBEHDH@Z
  00223	8d 4d 10	 lea	 ecx, DWORD PTR _dataType$7[ebp]
  00226	85 c0		 test	 eax, eax
  00228	0f 89 f4 00 00
	00		 jns	 $LN12@GetMaxScal
  0022e	68 00 00 00 00	 push	 OFFSET ??_C@_05GMCIGKAN@x?50?41@
  00233	ff 15 00 00 00
	00		 call	 DWORD PTR __imp_??4?$CStringT@DV?$StrTraitMFC_DLL@DV?$ChTraitsCRT@D@ATL@@@@@ATL@@QAEAAV01@PBD@Z
$LN13@GetMaxScal:
; File D:\git\src\IBK\IBK_DRFN\ProjSrc\SrcChartEx\ChartOCX\Include_Chart\Conversion.h

; 27   : 		{	m_hOcxWnd = p_hOcxWnd;	m_eChartMode = p_eChartMode;	}

  00239	8b 03		 mov	 eax, DWORD PTR [ebx]
; File D:\git\src\IBK\IBK_DRFN\ProjSrc\SrcChartEx\ChartOCX\ChartObject\DrawingRegionCalculator.cpp

; 905  : 		CDataConversion( m_hOcxWnd, m_eChartMode).GetStringFormatTransCutoff(dMaxLengthData, dataType, strData, strFormatTrans, FALSE);

  0023b	8b 4b 04	 mov	 ecx, DWORD PTR [ebx+4]
; File D:\git\src\IBK\IBK_DRFN\ProjSrc\SrcChartEx\ChartOCX\Include_Chart\Conversion.h

; 27   : 		{	m_hOcxWnd = p_hOcxWnd;	m_eChartMode = p_eChartMode;	}

  0023e	89 45 e0	 mov	 DWORD PTR $T5[ebp], eax
; File D:\git\src\IBK\IBK_DRFN\ProjSrc\SrcChartEx\ChartOCX\ChartObject\DrawingRegionCalculator.cpp

; 905  : 		CDataConversion( m_hOcxWnd, m_eChartMode).GetStringFormatTransCutoff(dMaxLengthData, dataType, strData, strFormatTrans, FALSE);

  00241	8d 45 f0	 lea	 eax, DWORD PTR _strFormatTrans$[ebp]
  00244	6a 00		 push	 0
  00246	50		 push	 eax
  00247	8d 45 e8	 lea	 eax, DWORD PTR _strData$[ebp]
; File D:\git\src\IBK\IBK_DRFN\ProjSrc\SrcChartEx\ChartOCX\Include_Chart\Conversion.h

; 27   : 		{	m_hOcxWnd = p_hOcxWnd;	m_eChartMode = p_eChartMode;	}

  0024a	89 4d e4	 mov	 DWORD PTR $T5[ebp+4], ecx
; File D:\git\src\IBK\IBK_DRFN\ProjSrc\SrcChartEx\ChartOCX\ChartObject\DrawingRegionCalculator.cpp

; 905  : 		CDataConversion( m_hOcxWnd, m_eChartMode).GetStringFormatTransCutoff(dMaxLengthData, dataType, strData, strFormatTrans, FALSE);

  0024d	50		 push	 eax
  0024e	8d 45 10	 lea	 eax, DWORD PTR _dataType$7[ebp]
  00251	50		 push	 eax
  00252	8d 45 c4	 lea	 eax, DWORD PTR _dMaxLengthData$3[ebp]
  00255	50		 push	 eax
  00256	8d 4d e0	 lea	 ecx, DWORD PTR $T5[ebp]
  00259	e8 00 00 00 00	 call	 ?GetStringFormatTransCutoff@CDataConversion@@QAEHABNABV?$CStringT@DV?$StrTraitMFC_DLL@DV?$ChTraitsCRT@D@ATL@@@@@ATL@@AAV23@2H@Z ; CDataConversion::GetStringFormatTransCutoff
; File C:\Program Files (x86)\Microsoft Visual Studio\2019\Community\VC\Tools\MSVC\14.29.30133\atlmfc\include\atlsimpstr.h

; 519  : 		return( GetData()->nDataLength );

  0025e	8b 45 e8	 mov	 eax, DWORD PTR _strData$[ebp]

; 533  : 		return( GetLength() == 0 );

  00261	83 78 f4 00	 cmp	 DWORD PTR [eax-12], 0
; File D:\git\src\IBK\IBK_DRFN\ProjSrc\SrcChartEx\ChartOCX\ChartObject\DrawingRegionCalculator.cpp

; 906  : 		if( !strData.IsEmpty())

  00265	74 73		 je	 SHORT $LN15@GetMaxScal

; 907  : 		{
; 908  : 			strFormatTrans.Replace(" ", "");

  00267	68 00 00 00 00	 push	 OFFSET ??_C@_00CNPNBAHC@@
  0026c	68 00 00 00 00	 push	 OFFSET ??_C@_01CLKCMJKC@?5@
  00271	8d 4d f0	 lea	 ecx, DWORD PTR _strFormatTrans$[ebp]
  00274	ff 15 00 00 00
	00		 call	 DWORD PTR __imp_?Replace@?$CStringT@DV?$StrTraitMFC_DLL@DV?$ChTraitsCRT@D@ATL@@@@@ATL@@QAEHPBD0@Z

; 909  : 
; 910  : 			pPacket->SetScaleType( dataType);

  0027a	8d 45 10	 lea	 eax, DWORD PTR _dataType$7[ebp]
  0027d	8b ce		 mov	 ecx, esi
  0027f	50		 push	 eax
  00280	ff 15 00 00 00
	00		 call	 DWORD PTR __imp_?SetScaleType@CPacket@@QAEXABV?$CStringT@DV?$StrTraitMFC_DLL@DV?$ChTraitsCRT@D@ATL@@@@@ATL@@@Z
; File C:\Program Files (x86)\Microsoft Visual Studio\2019\Community\VC\Tools\MSVC\14.29.30133\atlmfc\include\atlsimpstr.h

; 519  : 		return( GetData()->nDataLength );

  00286	8b 45 e8	 mov	 eax, DWORD PTR _strData$[ebp]
  00289	8b 40 f4	 mov	 eax, DWORD PTR [eax-12]
  0028c	89 45 e4	 mov	 DWORD PTR _nNumLength$1$[ebp], eax

; 533  : 		return( GetLength() == 0 );

  0028f	85 c0		 test	 eax, eax
; File D:\git\src\IBK\IBK_DRFN\ProjSrc\SrcChartEx\ChartOCX\ChartObject\DrawingRegionCalculator.cpp

; 911  : 			if( !strData.IsEmpty() || !strFormatTrans.IsEmpty())

  00291	75 09		 jne	 SHORT $LN16@GetMaxScal
; File C:\Program Files (x86)\Microsoft Visual Studio\2019\Community\VC\Tools\MSVC\14.29.30133\atlmfc\include\atlsimpstr.h

; 519  : 		return( GetData()->nDataLength );

  00293	8b 45 f0	 mov	 eax, DWORD PTR _strFormatTrans$[ebp]

; 533  : 		return( GetLength() == 0 );

  00296	83 78 f4 00	 cmp	 DWORD PTR [eax-12], 0
; File D:\git\src\IBK\IBK_DRFN\ProjSrc\SrcChartEx\ChartOCX\ChartObject\DrawingRegionCalculator.cpp

; 911  : 			if( !strData.IsEmpty() || !strFormatTrans.IsEmpty())

  0029a	74 3e		 je	 SHORT $LN15@GetMaxScal
$LN16@GetMaxScal:

; 912  : 			{
; 913  : 				//    scale 
; 914  : 				int nNumLength = GetDataLength(strData);
; 915  : 				int nFormatLength = GetFormatLength(strFormatTrans, calData.GetVerticalScale().GetVertScaleUnitType());

  0029c	8d 85 6c ff ff
	ff		 lea	 eax, DWORD PTR $T2[ebp]
  002a2	8b cf		 mov	 ecx, edi
  002a4	50		 push	 eax
  002a5	e8 00 00 00 00	 call	 ?GetVerticalScale@CVertScaleMaxWidthCalculatorData@@QBE?AVCVerticalScale@@XZ ; CVertScaleMaxWidthCalculatorData::GetVerticalScale
  002aa	8b c8		 mov	 ecx, eax
  002ac	c6 45 fc 05	 mov	 BYTE PTR __$EHRec$[ebp+8], 5
  002b0	ff 15 00 00 00
	00		 call	 DWORD PTR __imp_?GetVertScaleUnitType@CVerticalScale@@QBE?AW4VERTSCALEUNITTYPE@CScaleBaseData@@XZ
  002b6	50		 push	 eax
  002b7	8d 45 f0	 lea	 eax, DWORD PTR _strFormatTrans$[ebp]
  002ba	8b cb		 mov	 ecx, ebx
  002bc	50		 push	 eax
  002bd	e8 00 00 00 00	 call	 ?GetFormatLength@CTextSizeCalculator@@ABEHABV?$CStringT@DV?$StrTraitMFC_DLL@DV?$ChTraitsCRT@D@ATL@@@@@ATL@@W4VERTSCALEUNITTYPE@CScaleBaseData@@@Z ; CTextSizeCalculator::GetFormatLength
  002c2	8d 8d 6c ff ff
	ff		 lea	 ecx, DWORD PTR $T2[ebp]
  002c8	8b f0		 mov	 esi, eax
  002ca	ff 15 00 00 00
	00		 call	 DWORD PTR __imp_??1CVerticalScale@@QAE@XZ

; 916  : 				nMaxLength = ((nNumLength > nFormatLength) ? nNumLength: nFormatLength);

  002d0	39 75 e4	 cmp	 DWORD PTR _nNumLength$1$[ebp], esi
  002d3	0f 4f 75 e4	 cmovg	 esi, DWORD PTR _nNumLength$1$[ebp]
  002d7	89 75 dc	 mov	 DWORD PTR _nMaxLength$1$[ebp], esi
$LN15@GetMaxScal:

; 917  : 			}
; 918  : 		}
; 919  : 	}

  002da	8d 4d 10	 lea	 ecx, DWORD PTR _dataType$7[ebp]
  002dd	c6 45 fc 01	 mov	 BYTE PTR __$EHRec$[ebp+8], 1
  002e1	ff 15 00 00 00
	00		 call	 DWORD PTR __imp_??1?$CStringT@DV?$StrTraitMFC_DLL@DV?$ChTraitsCRT@D@ATL@@@@@ATL@@QAE@XZ
$LN6@GetMaxScal:

; 920  : 
; 921  : 	return GetMaxScaleTextSize(pDC, nMaxLength);

  002e7	8b 75 08	 mov	 esi, DWORD PTR ___$ReturnUdt$[ebp]
  002ea	8b cb		 mov	 ecx, ebx
  002ec	6a 00		 push	 0
  002ee	ff 75 dc	 push	 DWORD PTR _nMaxLength$1$[ebp]
  002f1	ff 75 0c	 push	 DWORD PTR _pDC$[ebp]
  002f4	56		 push	 esi
  002f5	e8 00 00 00 00	 call	 ?GetMaxScaleTextSize@CTextSizeCalculator@@ABE?AVCSize@@PAVCDC@@HW4TEXTCOMPARTTYPE@CScaleBaseData@@@Z ; CTextSizeCalculator::GetMaxScaleTextSize
  002fa	8d 4d f0	 lea	 ecx, DWORD PTR _strFormatTrans$[ebp]
  002fd	ff 15 00 00 00
	00		 call	 DWORD PTR __imp_??1?$CStringT@DV?$StrTraitMFC_DLL@DV?$ChTraitsCRT@D@ATL@@@@@ATL@@QAE@XZ
  00303	8d 4d e8	 lea	 ecx, DWORD PTR _strData$[ebp]
  00306	ff 15 00 00 00
	00		 call	 DWORD PTR __imp_??1?$CStringT@DV?$StrTraitMFC_DLL@DV?$ChTraitsCRT@D@ATL@@@@@ATL@@QAE@XZ
  0030c	8b c6		 mov	 eax, esi

; 922  : }

  0030e	8b 4d f4	 mov	 ecx, DWORD PTR __$EHRec$[ebp]
  00311	64 89 0d 00 00
	00 00		 mov	 DWORD PTR fs:0, ecx
  00318	59		 pop	 ecx
  00319	5f		 pop	 edi
  0031a	5e		 pop	 esi
  0031b	5b		 pop	 ebx
  0031c	8b e5		 mov	 esp, ebp
  0031e	5d		 pop	 ebp
  0031f	c2 0c 00	 ret	 12			; 0000000cH
$LN12@GetMaxScal:

; 901  : 				else							dataType.Replace( "0.", "0.0");

  00322	68 00 00 00 00	 push	 OFFSET ??_C@_03MDAFIFFL@0?40@
  00327	68 00 00 00 00	 push	 OFFSET ??_C@_02CPNCMKFB@0?4@
  0032c	ff 15 00 00 00
	00		 call	 DWORD PTR __imp_?Replace@?$CStringT@DV?$StrTraitMFC_DLL@DV?$ChTraitsCRT@D@ATL@@@@@ATL@@QAEHPBD0@Z
  00332	e9 02 ff ff ff	 jmp	 $LN13@GetMaxScal
$LN114@GetMaxScal:
; File C:\Program Files (x86)\Microsoft Visual Studio\2019\Community\VC\Tools\MSVC\14.29.30133\atlmfc\include\atltypes.h

; 312  : 	cx = initCX;

  00337	8b 45 08	 mov	 eax, DWORD PTR ___$ReturnUdt$[ebp]
  0033a	c7 00 00 00 00
	00		 mov	 DWORD PTR [eax], 0

; 313  : 	cy = initCY;

  00340	c7 40 04 00 00
	00 00		 mov	 DWORD PTR [eax+4], 0
; File D:\git\src\IBK\IBK_DRFN\ProjSrc\SrcChartEx\ChartOCX\ChartObject\DrawingRegionCalculator.cpp

; 922  : }

  00347	8b 4d f4	 mov	 ecx, DWORD PTR __$EHRec$[ebp]
  0034a	64 89 0d 00 00
	00 00		 mov	 DWORD PTR fs:0, ecx
  00351	59		 pop	 ecx
  00352	5f		 pop	 edi
  00353	5e		 pop	 esi
  00354	5b		 pop	 ebx
  00355	8b e5		 mov	 esp, ebp
  00357	5d		 pop	 ebp
  00358	c2 0c 00	 ret	 12			; 0000000cH
$LN113@GetMaxScal:
; File C:\Program Files (x86)\Microsoft Visual Studio\2019\Community\VC\Tools\MSVC\14.29.30133\atlmfc\include\afxtempl.h

; 797  : 	{ ENSURE(m_pNodeTail != NULL);

  0035b	e8 00 00 00 00	 call	 ?AfxThrowInvalidArgException@@YGXXZ ; AfxThrowInvalidArgException
$LN116@GetMaxScal:
  00360	cc		 int	 3
_TEXT	ENDS
;	COMDAT text$x
text$x	SEGMENT
__unwindfunclet$?GetMaxScaleTextSize_Sale2@CTextSizeCalculator@@ABE?AVCSize@@PAVCDC@@ABVCVertScaleMaxWidthCalculatorData@@@Z$0:
  00000	8d 4d e8	 lea	 ecx, DWORD PTR _strData$[ebp]
  00003	ff 25 00 00 00
	00		 jmp	 DWORD PTR __imp_??1?$CStringT@DV?$StrTraitMFC_DLL@DV?$ChTraitsCRT@D@ATL@@@@@ATL@@QAE@XZ
__unwindfunclet$?GetMaxScaleTextSize_Sale2@CTextSizeCalculator@@ABE?AVCSize@@PAVCDC@@ABVCVertScaleMaxWidthCalculatorData@@@Z$1:
  00009	8d 4d f0	 lea	 ecx, DWORD PTR _strFormatTrans$[ebp]
  0000c	ff 25 00 00 00
	00		 jmp	 DWORD PTR __imp_??1?$CStringT@DV?$StrTraitMFC_DLL@DV?$ChTraitsCRT@D@ATL@@@@@ATL@@QAE@XZ
__unwindfunclet$?GetMaxScaleTextSize_Sale2@CTextSizeCalculator@@ABE?AVCSize@@PAVCDC@@ABVCVertScaleMaxWidthCalculatorData@@@Z$2:
  00012	8d 4d 10	 lea	 ecx, DWORD PTR _dataType$7[ebp]
  00015	ff 25 00 00 00
	00		 jmp	 DWORD PTR __imp_??1?$CStringT@DV?$StrTraitMFC_DLL@DV?$ChTraitsCRT@D@ATL@@@@@ATL@@QAE@XZ
__unwindfunclet$?GetMaxScaleTextSize_Sale2@CTextSizeCalculator@@ABE?AVCSize@@PAVCDC@@ABVCVertScaleMaxWidthCalculatorData@@@Z$3:
  0001b	8d 8d 6c ff ff
	ff		 lea	 ecx, DWORD PTR $T2[ebp]
  00021	ff 25 00 00 00
	00		 jmp	 DWORD PTR __imp_??1CVerticalScale@@QAE@XZ
  00027	cc		 int	 3
  00028	cc		 int	 3
  00029	cc		 int	 3
  0002a	cc		 int	 3
  0002b	cc		 int	 3
__ehhandler$?GetMaxScaleTextSize_Sale2@CTextSizeCalculator@@ABE?AVCSize@@PAVCDC@@ABVCVertScaleMaxWidthCalculatorData@@@Z:
  0002c	90		 npad	 1
  0002d	90		 npad	 1
  0002e	8b 54 24 08	 mov	 edx, DWORD PTR [esp+8]
  00032	8d 42 0c	 lea	 eax, DWORD PTR [edx+12]
  00035	8b 8a 68 ff ff
	ff		 mov	 ecx, DWORD PTR [edx-152]
  0003b	33 c8		 xor	 ecx, eax
  0003d	e8 00 00 00 00	 call	 @__security_check_cookie@4
  00042	b8 00 00 00 00	 mov	 eax, OFFSET __ehfuncinfo$?GetMaxScaleTextSize_Sale2@CTextSizeCalculator@@ABE?AVCSize@@PAVCDC@@ABVCVertScaleMaxWidthCalculatorData@@@Z
  00047	e9 00 00 00 00	 jmp	 ___CxxFrameHandler3
text$x	ENDS
?GetMaxScaleTextSize_Sale2@CTextSizeCalculator@@ABE?AVCSize@@PAVCDC@@ABVCVertScaleMaxWidthCalculatorData@@@Z ENDP ; CTextSizeCalculator::GetMaxScaleTextSize_Sale2
; Function compile flags: /Ogtp
; File D:\git\src\IBK\IBK_DRFN\ProjSrc\SrcChartEx\ChartOCX\ChartObject\DrawingRegionCalculator.cpp
; File C:\Program Files (x86)\Microsoft Visual Studio\2019\Community\VC\Tools\MSVC\14.29.30133\atlmfc\include\atltypes.h
; File D:\git\src\IBK\IBK_DRFN\ProjSrc\SrcChartEx\ChartOCX\ChartObject\DrawingRegionCalculator.cpp
; File C:\Program Files (x86)\Microsoft Visual Studio\2019\Community\VC\Tools\MSVC\14.29.30133\atlmfc\include\atltypes.h
; File D:\git\src\IBK\IBK_DRFN\ProjSrc\SrcChartEx\ChartOCX\ChartObject\DrawingRegionCalculator.cpp
; File C:\Program Files (x86)\Microsoft Visual Studio\2019\Community\VC\Tools\MSVC\14.29.30133\atlmfc\include\atltypes.h
; File D:\git\src\IBK\IBK_DRFN\ProjSrc\SrcChartEx\ChartOCX\ChartObject\DrawingRegionCalculator.cpp
; File C:\Program Files (x86)\Microsoft Visual Studio\2019\Community\VC\Tools\MSVC\14.29.30133\atlmfc\include\atltypes.h
; File D:\git\src\IBK\IBK_DRFN\ProjSrc\SrcChartEx\ChartOCX\ChartObject\DrawingRegionCalculator.cpp
; File C:\Program Files (x86)\Microsoft Visual Studio\2019\Community\VC\Tools\MSVC\14.29.30133\atlmfc\include\atltypes.h
; File D:\git\src\IBK\IBK_DRFN\ProjSrc\SrcChartEx\ChartOCX\ChartObject\DrawingRegionCalculator.cpp
;	COMDAT ?GetMaxScaleTextSize@CTextSizeCalculator@@ABE?AVCSize@@ABV2@HW4TEXTCOMPARTTYPE@CScaleBaseData@@@Z
_TEXT	SEGMENT
___$ReturnUdt$ = 8					; size = 4
_textSize$ = 12						; size = 4
_nLength$ = 16						; size = 4
_textCompart$ = 20					; size = 4
?GetMaxScaleTextSize@CTextSizeCalculator@@ABE?AVCSize@@ABV2@HW4TEXTCOMPARTTYPE@CScaleBaseData@@@Z PROC ; CTextSizeCalculator::GetMaxScaleTextSize, COMDAT
; _this$ = ecx

; 811  : {

  00000	55		 push	 ebp
  00001	8b ec		 mov	 ebp, esp

; 812  : 	if(nLength <= 0) //    

  00003	8b 55 10	 mov	 edx, DWORD PTR _nLength$[ebp]
  00006	8b 4d 08	 mov	 ecx, DWORD PTR ___$ReturnUdt$[ebp]
  00009	85 d2		 test	 edx, edx
  0000b	7f 13		 jg	 SHORT $LN2@GetMaxScal
; File C:\Program Files (x86)\Microsoft Visual Studio\2019\Community\VC\Tools\MSVC\14.29.30133\atlmfc\include\atltypes.h

; 312  : 	cx = initCX;

  0000d	c7 01 00 00 00
	00		 mov	 DWORD PTR [ecx], 0
; File D:\git\src\IBK\IBK_DRFN\ProjSrc\SrcChartEx\ChartOCX\ChartObject\DrawingRegionCalculator.cpp

; 820  : }

  00013	8b c1		 mov	 eax, ecx
; File C:\Program Files (x86)\Microsoft Visual Studio\2019\Community\VC\Tools\MSVC\14.29.30133\atlmfc\include\atltypes.h

; 313  : 	cy = initCY;

  00015	c7 41 04 00 00
	00 00		 mov	 DWORD PTR [ecx+4], 0
; File D:\git\src\IBK\IBK_DRFN\ProjSrc\SrcChartEx\ChartOCX\ChartObject\DrawingRegionCalculator.cpp

; 820  : }

  0001c	5d		 pop	 ebp
  0001d	c2 10 00	 ret	 16			; 00000010H
$LN2@GetMaxScal:

; 813  : 		return CSize(0, 0);
; 814  : 
; 815  : 	// text  type  
; 816  : 	if(textCompart == CScaleBaseData::VERT_TEXT_COMPART)

  00020	83 7d 14 01	 cmp	 DWORD PTR _textCompart$[ebp], 1
  00024	8b 45 0c	 mov	 eax, DWORD PTR _textSize$[ebp]
  00027	56		 push	 esi
  00028	8b 30		 mov	 esi, DWORD PTR [eax]
  0002a	8b 40 04	 mov	 eax, DWORD PTR [eax+4]
  0002d	75 0f		 jne	 SHORT $LN3@GetMaxScal

; 817  : 		return CSize(textSize.cx, textSize.cy*nLength);	// 2007.1.8      (nLength+2)/2 --> nLength

  0002f	0f af c2	 imul	 eax, edx
; File C:\Program Files (x86)\Microsoft Visual Studio\2019\Community\VC\Tools\MSVC\14.29.30133\atlmfc\include\atltypes.h

; 312  : 	cx = initCX;

  00032	89 31		 mov	 DWORD PTR [ecx], esi
  00034	5e		 pop	 esi

; 313  : 	cy = initCY;

  00035	89 41 04	 mov	 DWORD PTR [ecx+4], eax
; File D:\git\src\IBK\IBK_DRFN\ProjSrc\SrcChartEx\ChartOCX\ChartObject\DrawingRegionCalculator.cpp

; 820  : }

  00038	8b c1		 mov	 eax, ecx
  0003a	5d		 pop	 ebp
  0003b	c2 10 00	 ret	 16			; 00000010H
$LN3@GetMaxScal:

; 818  : 
; 819  : 	return CSize(textSize.cx*nLength, textSize.cy);

  0003e	0f af f2	 imul	 esi, edx
; File C:\Program Files (x86)\Microsoft Visual Studio\2019\Community\VC\Tools\MSVC\14.29.30133\atlmfc\include\atltypes.h

; 313  : 	cy = initCY;

  00041	89 41 04	 mov	 DWORD PTR [ecx+4], eax
; File D:\git\src\IBK\IBK_DRFN\ProjSrc\SrcChartEx\ChartOCX\ChartObject\DrawingRegionCalculator.cpp

; 820  : }

  00044	8b c1		 mov	 eax, ecx
; File C:\Program Files (x86)\Microsoft Visual Studio\2019\Community\VC\Tools\MSVC\14.29.30133\atlmfc\include\atltypes.h

; 312  : 	cx = initCX;

  00046	89 31		 mov	 DWORD PTR [ecx], esi
  00048	5e		 pop	 esi
; File D:\git\src\IBK\IBK_DRFN\ProjSrc\SrcChartEx\ChartOCX\ChartObject\DrawingRegionCalculator.cpp

; 820  : }

  00049	5d		 pop	 ebp
  0004a	c2 10 00	 ret	 16			; 00000010H
?GetMaxScaleTextSize@CTextSizeCalculator@@ABE?AVCSize@@ABV2@HW4TEXTCOMPARTTYPE@CScaleBaseData@@@Z ENDP ; CTextSizeCalculator::GetMaxScaleTextSize
_TEXT	ENDS
; Function compile flags: /Ogtp
; File D:\git\src\IBK\IBK_DRFN\ProjSrc\SrcChartEx\ChartOCX\ChartObject\DrawingRegionCalculator.cpp
; File C:\Program Files (x86)\Microsoft Visual Studio\2019\Community\VC\Tools\MSVC\14.29.30133\atlmfc\include\atltypes.h
; File D:\git\src\IBK\IBK_DRFN\ProjSrc\SrcChartEx\ChartOCX\ChartObject\DrawingRegionCalculator.cpp
; File C:\Program Files (x86)\Microsoft Visual Studio\2019\Community\VC\Tools\MSVC\14.29.30133\atlmfc\include\atltypes.h
; File D:\git\src\IBK\IBK_DRFN\ProjSrc\SrcChartEx\ChartOCX\ChartObject\DrawingRegionCalculator.cpp
; File C:\Program Files (x86)\Microsoft Visual Studio\2019\Community\VC\Tools\MSVC\14.29.30133\atlmfc\include\afxwin1.inl
; File D:\git\src\IBK\IBK_DRFN\ProjSrc\SrcChartEx\ChartOCX\ChartObject\DrawingRegionCalculator.cpp
; File C:\Program Files (x86)\Microsoft Visual Studio\2019\Community\VC\Tools\MSVC\14.29.30133\atlmfc\include\atltypes.h
; File D:\git\src\IBK\IBK_DRFN\ProjSrc\SrcChartEx\ChartOCX\ChartObject\DrawingRegionCalculator.cpp
; File C:\Program Files (x86)\Microsoft Visual Studio\2019\Community\VC\Tools\MSVC\14.29.30133\atlmfc\include\atltypes.h
; File D:\git\src\IBK\IBK_DRFN\ProjSrc\SrcChartEx\ChartOCX\ChartObject\DrawingRegionCalculator.cpp
;	COMDAT ?GetMaxScaleTextSize@CTextSizeCalculator@@ABE?AVCSize@@PAVCDC@@HW4TEXTCOMPARTTYPE@CScaleBaseData@@@Z
_TEXT	SEGMENT
_size$1 = -8						; size = 8
$T2 = 8							; size = 4
___$ReturnUdt$ = 8					; size = 4
_pDC$ = 12						; size = 4
_nLength$ = 16						; size = 4
_textCompart$ = 20					; size = 4
?GetMaxScaleTextSize@CTextSizeCalculator@@ABE?AVCSize@@PAVCDC@@HW4TEXTCOMPARTTYPE@CScaleBaseData@@@Z PROC ; CTextSizeCalculator::GetMaxScaleTextSize, COMDAT
; _this$ = ecx

; 803  : {

  00000	55		 push	 ebp
  00001	8b ec		 mov	 ebp, esp
  00003	83 ec 08	 sub	 esp, 8
  00006	56		 push	 esi
  00007	8b 75 08	 mov	 esi, DWORD PTR ___$ReturnUdt$[ebp]
  0000a	57		 push	 edi

; 804  : 	if(nLength <= 0)

  0000b	8b 7d 10	 mov	 edi, DWORD PTR _nLength$[ebp]
  0000e	85 ff		 test	 edi, edi
  00010	7f 17		 jg	 SHORT $LN2@GetMaxScal
  00012	5f		 pop	 edi
; File C:\Program Files (x86)\Microsoft Visual Studio\2019\Community\VC\Tools\MSVC\14.29.30133\atlmfc\include\atltypes.h

; 312  : 	cx = initCX;

  00013	c7 06 00 00 00
	00		 mov	 DWORD PTR [esi], 0
; File D:\git\src\IBK\IBK_DRFN\ProjSrc\SrcChartEx\ChartOCX\ChartObject\DrawingRegionCalculator.cpp

; 808  : }

  00019	8b c6		 mov	 eax, esi
; File C:\Program Files (x86)\Microsoft Visual Studio\2019\Community\VC\Tools\MSVC\14.29.30133\atlmfc\include\atltypes.h

; 313  : 	cy = initCY;

  0001b	c7 46 04 00 00
	00 00		 mov	 DWORD PTR [esi+4], 0
; File D:\git\src\IBK\IBK_DRFN\ProjSrc\SrcChartEx\ChartOCX\ChartObject\DrawingRegionCalculator.cpp

; 808  : }

  00022	5e		 pop	 esi
  00023	8b e5		 mov	 esp, ebp
  00025	5d		 pop	 ebp
  00026	c2 10 00	 ret	 16			; 00000010H
$LN2@GetMaxScal:

; 807  : 	return GetMaxScaleTextSize(pDC->GetTextExtent("0"), nLength, textCompart);

  00029	68 00 00 00 00	 push	 OFFSET ??_C@_01GBGANLPD@0@
  0002e	8d 4d 08	 lea	 ecx, DWORD PTR $T2[ebp]
  00031	ff 15 00 00 00
	00		 call	 DWORD PTR __imp_??0?$CStringT@DV?$StrTraitMFC_DLL@DV?$ChTraitsCRT@D@ATL@@@@@ATL@@QAE@PBD@Z
; File C:\Program Files (x86)\Microsoft Visual Studio\2019\Community\VC\Tools\MSVC\14.29.30133\atlmfc\include\afxwin1.inl

; 639  : 		VERIFY(::GetTextExtentPoint32(m_hAttribDC, str, (int)str.GetLength(), &size));

  00037	8d 45 f8	 lea	 eax, DWORD PTR _size$1[ebp]
  0003a	50		 push	 eax
  0003b	8b 45 08	 mov	 eax, DWORD PTR $T2[ebp]
  0003e	ff 70 f4	 push	 DWORD PTR [eax-12]
  00041	50		 push	 eax
  00042	8b 45 0c	 mov	 eax, DWORD PTR _pDC$[ebp]
  00045	ff 70 08	 push	 DWORD PTR [eax+8]
  00048	ff 15 00 00 00
	00		 call	 DWORD PTR __imp__GetTextExtentPoint32A@16
; File D:\git\src\IBK\IBK_DRFN\ProjSrc\SrcChartEx\ChartOCX\ChartObject\DrawingRegionCalculator.cpp

; 816  : 	if(textCompart == CScaleBaseData::VERT_TEXT_COMPART)

  0004e	83 7d 14 01	 cmp	 DWORD PTR _textCompart$[ebp], 1
  00052	8b 45 f8	 mov	 eax, DWORD PTR _size$1[ebp]
  00055	75 0a		 jne	 SHORT $LN19@GetMaxScal
; File C:\Program Files (x86)\Microsoft Visual Studio\2019\Community\VC\Tools\MSVC\14.29.30133\atlmfc\include\atltypes.h

; 312  : 	cx = initCX;

  00057	89 06		 mov	 DWORD PTR [esi], eax
; File D:\git\src\IBK\IBK_DRFN\ProjSrc\SrcChartEx\ChartOCX\ChartObject\DrawingRegionCalculator.cpp

; 817  : 		return CSize(textSize.cx, textSize.cy*nLength);	// 2007.1.8      (nLength+2)/2 --> nLength

  00059	8b 45 fc	 mov	 eax, DWORD PTR _size$1[ebp+4]
  0005c	0f af c7	 imul	 eax, edi
  0005f	eb 08		 jmp	 SHORT $LN28@GetMaxScal
$LN19@GetMaxScal:

; 818  : 
; 819  : 	return CSize(textSize.cx*nLength, textSize.cy);

  00061	0f af c7	 imul	 eax, edi
; File C:\Program Files (x86)\Microsoft Visual Studio\2019\Community\VC\Tools\MSVC\14.29.30133\atlmfc\include\atltypes.h

; 312  : 	cx = initCX;

  00064	89 06		 mov	 DWORD PTR [esi], eax

; 313  : 	cy = initCY;

  00066	8b 45 fc	 mov	 eax, DWORD PTR _size$1[ebp+4]
$LN28@GetMaxScal:
; File D:\git\src\IBK\IBK_DRFN\ProjSrc\SrcChartEx\ChartOCX\ChartObject\DrawingRegionCalculator.cpp

; 807  : 	return GetMaxScaleTextSize(pDC->GetTextExtent("0"), nLength, textCompart);

  00069	8d 4d 08	 lea	 ecx, DWORD PTR $T2[ebp]
  0006c	89 46 04	 mov	 DWORD PTR [esi+4], eax
  0006f	ff 15 00 00 00
	00		 call	 DWORD PTR __imp_??1?$CStringT@DV?$StrTraitMFC_DLL@DV?$ChTraitsCRT@D@ATL@@@@@ATL@@QAE@XZ
  00075	5f		 pop	 edi

; 808  : }

  00076	8b c6		 mov	 eax, esi
  00078	5e		 pop	 esi
  00079	8b e5		 mov	 esp, ebp
  0007b	5d		 pop	 ebp
  0007c	c2 10 00	 ret	 16			; 00000010H
?GetMaxScaleTextSize@CTextSizeCalculator@@ABE?AVCSize@@PAVCDC@@HW4TEXTCOMPARTTYPE@CScaleBaseData@@@Z ENDP ; CTextSizeCalculator::GetMaxScaleTextSize
_TEXT	ENDS
; Function compile flags: /Ogtp
; File D:\git\src\IBK\IBK_DRFN\ProjSrc\SrcChartEx\ChartOCX\ChartObject\DrawingRegionCalculator.cpp
; File C:\Program Files (x86)\Microsoft Visual Studio\2019\Community\VC\Tools\MSVC\14.29.30133\atlmfc\include\afxtempl.h
; File D:\git\src\IBK\IBK_DRFN\ProjSrc\SrcChartEx\ChartOCX\ChartObject\DrawingRegionCalculator.cpp
; File C:\Program Files (x86)\Microsoft Visual Studio\2019\Community\VC\Tools\MSVC\14.29.30133\atlmfc\include\atlsimpstr.h
; File D:\git\src\IBK\IBK_DRFN\ProjSrc\SrcChartEx\ChartOCX\ChartObject\DrawingRegionCalculator.cpp
; File C:\Program Files (x86)\Microsoft Visual Studio\2019\Community\VC\Tools\MSVC\14.29.30133\atlmfc\include\cstringt.h
; File D:\git\src\IBK\IBK_DRFN\ProjSrc\SrcChartEx\ChartOCX\ChartObject\DrawingRegionCalculator.cpp
; File C:\Program Files (x86)\Microsoft Visual Studio\2019\Community\VC\Tools\MSVC\14.29.30133\atlmfc\include\cstringt.h
; File C:\Program Files (x86)\Microsoft Visual Studio\2019\Community\VC\Tools\MSVC\14.29.30133\atlmfc\include\atlsimpstr.h
; File C:\Program Files (x86)\Microsoft Visual Studio\2019\Community\VC\Tools\MSVC\14.29.30133\atlmfc\include\cstringt.h
; File D:\git\src\IBK\IBK_DRFN\ProjSrc\SrcChartEx\ChartOCX\ChartObject\DrawingRegionCalculator.cpp
; File C:\Program Files (x86)\Microsoft Visual Studio\2019\Community\VC\Tools\MSVC\14.29.30133\atlmfc\include\afxtempl.h
; File D:\git\src\IBK\IBK_DRFN\ProjSrc\SrcChartEx\ChartOCX\ChartObject\DrawingRegionCalculator.cpp
;	COMDAT ?GetDatePacketHeadDataAndType_DataDate@CTextSizeCalculator@@ABE_NPAVCPacket@@AAV?$CStringT@DV?$StrTraitMFC_DLL@DV?$ChTraitsCRT@D@ATL@@@@@ATL@@1@Z
_TEXT	SEGMENT
$T2 = -16						; size = 4
__$EHRec$ = -12						; size = 12
$T3 = 8							; size = 4
$T4 = 8							; size = 4
_pPacket$ = 8						; size = 4
_headPacketData$ = 12					; size = 4
$T5 = 16						; size = 4
_dataType$ = 16						; size = 4
?GetDatePacketHeadDataAndType_DataDate@CTextSizeCalculator@@ABE_NPAVCPacket@@AAV?$CStringT@DV?$StrTraitMFC_DLL@DV?$ChTraitsCRT@D@ATL@@@@@ATL@@1@Z PROC ; CTextSizeCalculator::GetDatePacketHeadDataAndType_DataDate, COMDAT
; _this$ = ecx

; 782  : {

  00000	55		 push	 ebp
  00001	8b ec		 mov	 ebp, esp
  00003	6a ff		 push	 -1
  00005	68 00 00 00 00	 push	 __ehhandler$?GetDatePacketHeadDataAndType_DataDate@CTextSizeCalculator@@ABE_NPAVCPacket@@AAV?$CStringT@DV?$StrTraitMFC_DLL@DV?$ChTraitsCRT@D@ATL@@@@@ATL@@1@Z
  0000a	64 a1 00 00 00
	00		 mov	 eax, DWORD PTR fs:0
  00010	50		 push	 eax
  00011	51		 push	 ecx
  00012	53		 push	 ebx
  00013	56		 push	 esi
  00014	57		 push	 edi
  00015	a1 00 00 00 00	 mov	 eax, DWORD PTR ___security_cookie
  0001a	33 c5		 xor	 eax, ebp
  0001c	50		 push	 eax
  0001d	8d 45 f4	 lea	 eax, DWORD PTR __$EHRec$[ebp]
  00020	64 a3 00 00 00
	00		 mov	 DWORD PTR fs:0, eax
  00026	33 f6		 xor	 esi, esi
  00028	89 75 f0	 mov	 DWORD PTR $T2[ebp], esi

; 783  : 	if(pPacket == NULL)

  0002b	8b 7d 08	 mov	 edi, DWORD PTR _pPacket$[ebp]
  0002e	85 ff		 test	 edi, edi
  00030	0f 84 0d 01 00
	00		 je	 $LN7@GetDatePac

; 784  : 		return false;
; 785  : 
; 786  : 	CList<double, double>* dataList = pPacket->GetnumericDataList();

  00036	8b cf		 mov	 ecx, edi
  00038	ff 15 00 00 00
	00		 call	 DWORD PTR __imp_?GetnumericDataList@CPacket@@QAEPAV?$CList@NN@@XZ
  0003e	8b d8		 mov	 ebx, eax

; 787  : 	if(dataList->GetHeadPosition() == NULL || dataList->GetCount() <= 0)

  00040	39 73 04	 cmp	 DWORD PTR [ebx+4], esi
  00043	0f 84 fa 00 00
	00		 je	 $LN7@GetDatePac
  00049	39 73 0c	 cmp	 DWORD PTR [ebx+12], esi
  0004c	0f 8e f1 00 00
	00		 jle	 $LN7@GetDatePac

; 789  : 
; 790  : 	dataType = pPacket->GetType(false);

  00052	56		 push	 esi
  00053	8d 45 08	 lea	 eax, DWORD PTR $T4[ebp]
  00056	8b cf		 mov	 ecx, edi
  00058	50		 push	 eax
  00059	ff 15 00 00 00
	00		 call	 DWORD PTR __imp_?GetType@CPacket@@QAE?AV?$CStringT@DV?$StrTraitMFC_DLL@DV?$ChTraitsCRT@D@ATL@@@@@ATL@@_N@Z
  0005f	8b 4d 10	 mov	 ecx, DWORD PTR _dataType$[ebp]
  00062	50		 push	 eax
  00063	89 75 fc	 mov	 DWORD PTR __$EHRec$[ebp+8], esi
  00066	ff 15 00 00 00
	00		 call	 DWORD PTR __imp_??4?$CStringT@DV?$StrTraitMFC_DLL@DV?$ChTraitsCRT@D@ATL@@@@@ATL@@QAEAAV01@ABV01@@Z
  0006c	8d 4d 08	 lea	 ecx, DWORD PTR $T4[ebp]
  0006f	c7 45 fc ff ff
	ff ff		 mov	 DWORD PTR __$EHRec$[ebp+8], -1
  00076	ff 15 00 00 00
	00		 call	 DWORD PTR __imp_??1?$CStringT@DV?$StrTraitMFC_DLL@DV?$ChTraitsCRT@D@ATL@@@@@ATL@@QAE@XZ
; File C:\Program Files (x86)\Microsoft Visual Studio\2019\Community\VC\Tools\MSVC\14.29.30133\atlmfc\include\afxtempl.h

; 789  : 	{ ENSURE(m_pNodeHead != NULL);

  0007c	8b 43 04	 mov	 eax, DWORD PTR [ebx+4]
  0007f	85 c0		 test	 eax, eax
  00081	0f 84 d2 00 00
	00		 je	 $LN47@GetDatePac

; 790  : 		return m_pNodeHead->data; }

  00087	83 c0 08	 add	 eax, 8
; File D:\git\src\IBK\IBK_DRFN\ProjSrc\SrcChartEx\ChartOCX\ChartObject\DrawingRegionCalculator.cpp

; 791  : 	headPacketData = CDataConversion::DoubleToString(dataList->GetHead(), 0);

  0008a	56		 push	 esi
  0008b	50		 push	 eax
  0008c	8d 45 08	 lea	 eax, DWORD PTR $T3[ebp]
  0008f	50		 push	 eax
  00090	e8 00 00 00 00	 call	 ?DoubleToString@CDataConversion@@SA?AV?$CStringT@DV?$StrTraitMFC_DLL@DV?$ChTraitsCRT@D@ATL@@@@@ATL@@ABNH@Z ; CDataConversion::DoubleToString
  00095	83 c4 0c	 add	 esp, 12			; 0000000cH
  00098	8b 7d 0c	 mov	 edi, DWORD PTR _headPacketData$[ebp]
  0009b	8b cf		 mov	 ecx, edi
  0009d	50		 push	 eax
  0009e	c7 45 fc 01 00
	00 00		 mov	 DWORD PTR __$EHRec$[ebp+8], 1
  000a5	ff 15 00 00 00
	00		 call	 DWORD PTR __imp_??4?$CStringT@DV?$StrTraitMFC_DLL@DV?$ChTraitsCRT@D@ATL@@@@@ATL@@QAEAAV01@ABV01@@Z
  000ab	8d 4d 08	 lea	 ecx, DWORD PTR $T3[ebp]
  000ae	c7 45 fc ff ff
	ff ff		 mov	 DWORD PTR __$EHRec$[ebp+8], -1
  000b5	ff 15 00 00 00
	00		 call	 DWORD PTR __imp_??1?$CStringT@DV?$StrTraitMFC_DLL@DV?$ChTraitsCRT@D@ATL@@@@@ATL@@QAE@XZ
; File C:\Program Files (x86)\Microsoft Visual Studio\2019\Community\VC\Tools\MSVC\14.29.30133\atlmfc\include\atlsimpstr.h

; 519  : 		return( GetData()->nDataLength );

  000bb	8b 4d 10	 mov	 ecx, DWORD PTR _dataType$[ebp]
  000be	8b 01		 mov	 eax, DWORD PTR [ecx]
  000c0	8b 58 f4	 mov	 ebx, DWORD PTR [eax-12]
  000c3	8b 07		 mov	 eax, DWORD PTR [edi]
; File D:\git\src\IBK\IBK_DRFN\ProjSrc\SrcChartEx\ChartOCX\ChartObject\DrawingRegionCalculator.cpp

; 792  : 	int nZeroCount = dataType.GetLength() - headPacketData.GetLength();

  000c5	2b 58 f4	 sub	 ebx, DWORD PTR [eax-12]

; 793  : 	for(int nCount = 0; nCount < nZeroCount; nCount++){

  000c8	85 db		 test	 ebx, ebx
  000ca	7e 61		 jle	 SHORT $LN3@GetDatePac
  000cc	0f 1f 40 00	 npad	 4
$LL4@GetDatePac:
; File C:\Program Files (x86)\Microsoft Visual Studio\2019\Community\VC\Tools\MSVC\14.29.30133\atlmfc\include\cstringt.h

; 2412 : 		CStringT strResult( str2.GetManager() );

  000d0	8b cf		 mov	 ecx, edi
; File D:\git\src\IBK\IBK_DRFN\ProjSrc\SrcChartEx\ChartOCX\ChartObject\DrawingRegionCalculator.cpp

; 794  : 		headPacketData = "0" + headPacketData;

  000d2	c7 45 fc 02 00
	00 00		 mov	 DWORD PTR __$EHRec$[ebp+8], 2
; File C:\Program Files (x86)\Microsoft Visual Studio\2019\Community\VC\Tools\MSVC\14.29.30133\atlmfc\include\cstringt.h

; 2412 : 		CStringT strResult( str2.GetManager() );

  000d9	ff 15 00 00 00
	00		 call	 DWORD PTR __imp_?GetManager@?$CStringT@DV?$StrTraitMFC_DLL@DV?$ChTraitsCRT@D@ATL@@@@@ATL@@QBEPAUIAtlStringMgr@2@XZ
  000df	50		 push	 eax
  000e0	8d 4d 10	 lea	 ecx, DWORD PTR $T5[ebp]
  000e3	ff 15 00 00 00
	00		 call	 DWORD PTR __imp_??0?$CStringT@DV?$StrTraitMFC_DLL@DV?$ChTraitsCRT@D@ATL@@@@@ATL@@QAE@PAUIAtlStringMgr@1@@Z
; File C:\Program Files (x86)\Microsoft Visual Studio\2019\Community\VC\Tools\MSVC\14.29.30133\atlmfc\include\atlsimpstr.h

; 519  : 		return( GetData()->nDataLength );

  000e9	8b 07		 mov	 eax, DWORD PTR [edi]
; File C:\Program Files (x86)\Microsoft Visual Studio\2019\Community\VC\Tools\MSVC\14.29.30133\atlmfc\include\cstringt.h

; 2416 : 		return( strResult );

  000eb	83 ce 01	 or	 esi, 1
  000ee	89 75 f0	 mov	 DWORD PTR $T2[ebp], esi
  000f1	ff 70 f4	 push	 DWORD PTR [eax-12]
  000f4	50		 push	 eax
  000f5	6a 01		 push	 1
  000f7	8d 45 10	 lea	 eax, DWORD PTR $T5[ebp]
  000fa	68 00 00 00 00	 push	 OFFSET ??_C@_01GBGANLPD@0@
  000ff	50		 push	 eax
  00100	ff 15 00 00 00
	00		 call	 DWORD PTR __imp_?Concatenate@?$CSimpleStringT@D$00@ATL@@KAXAAV12@PBDH1H@Z
  00106	83 c4 14	 add	 esp, 20			; 00000014H
; File D:\git\src\IBK\IBK_DRFN\ProjSrc\SrcChartEx\ChartOCX\ChartObject\DrawingRegionCalculator.cpp

; 794  : 		headPacketData = "0" + headPacketData;

  00109	8d 45 10	 lea	 eax, DWORD PTR $T5[ebp]
  0010c	8b cf		 mov	 ecx, edi
  0010e	50		 push	 eax
  0010f	ff 15 00 00 00
	00		 call	 DWORD PTR __imp_??4?$CStringT@DV?$StrTraitMFC_DLL@DV?$ChTraitsCRT@D@ATL@@@@@ATL@@QAEAAV01@ABV01@@Z
  00115	8d 4d 10	 lea	 ecx, DWORD PTR $T5[ebp]
  00118	c7 45 fc ff ff
	ff ff		 mov	 DWORD PTR __$EHRec$[ebp+8], -1
  0011f	83 e6 fe	 and	 esi, -2			; fffffffeH
  00122	ff 15 00 00 00
	00		 call	 DWORD PTR __imp_??1?$CStringT@DV?$StrTraitMFC_DLL@DV?$ChTraitsCRT@D@ATL@@@@@ATL@@QAE@XZ
  00128	83 eb 01	 sub	 ebx, 1
  0012b	75 a3		 jne	 SHORT $LL4@GetDatePac
$LN3@GetDatePac:

; 795  : 	}
; 796  : 
; 797  : 	return true;

  0012d	b0 01		 mov	 al, 1

; 798  : }

  0012f	8b 4d f4	 mov	 ecx, DWORD PTR __$EHRec$[ebp]
  00132	64 89 0d 00 00
	00 00		 mov	 DWORD PTR fs:0, ecx
  00139	59		 pop	 ecx
  0013a	5f		 pop	 edi
  0013b	5e		 pop	 esi
  0013c	5b		 pop	 ebx
  0013d	8b e5		 mov	 esp, ebp
  0013f	5d		 pop	 ebp
  00140	c2 0c 00	 ret	 12			; 0000000cH
$LN7@GetDatePac:

; 788  : 		return false;

  00143	32 c0		 xor	 al, al

; 798  : }

  00145	8b 4d f4	 mov	 ecx, DWORD PTR __$EHRec$[ebp]
  00148	64 89 0d 00 00
	00 00		 mov	 DWORD PTR fs:0, ecx
  0014f	59		 pop	 ecx
  00150	5f		 pop	 edi
  00151	5e		 pop	 esi
  00152	5b		 pop	 ebx
  00153	8b e5		 mov	 esp, ebp
  00155	5d		 pop	 ebp
  00156	c2 0c 00	 ret	 12			; 0000000cH
$LN47@GetDatePac:
; File C:\Program Files (x86)\Microsoft Visual Studio\2019\Community\VC\Tools\MSVC\14.29.30133\atlmfc\include\afxtempl.h

; 789  : 	{ ENSURE(m_pNodeHead != NULL);

  00159	e8 00 00 00 00	 call	 ?AfxThrowInvalidArgException@@YGXXZ ; AfxThrowInvalidArgException
$LN45@GetDatePac:
  0015e	cc		 int	 3
_TEXT	ENDS
;	COMDAT text$x
text$x	SEGMENT
__unwindfunclet$?GetDatePacketHeadDataAndType_DataDate@CTextSizeCalculator@@ABE_NPAVCPacket@@AAV?$CStringT@DV?$StrTraitMFC_DLL@DV?$ChTraitsCRT@D@ATL@@@@@ATL@@1@Z$0:
  00000	8d 4d 08	 lea	 ecx, DWORD PTR $T4[ebp]
  00003	ff 25 00 00 00
	00		 jmp	 DWORD PTR __imp_??1?$CStringT@DV?$StrTraitMFC_DLL@DV?$ChTraitsCRT@D@ATL@@@@@ATL@@QAE@XZ
__unwindfunclet$?GetDatePacketHeadDataAndType_DataDate@CTextSizeCalculator@@ABE_NPAVCPacket@@AAV?$CStringT@DV?$StrTraitMFC_DLL@DV?$ChTraitsCRT@D@ATL@@@@@ATL@@1@Z$1:
  00009	8d 4d 08	 lea	 ecx, DWORD PTR $T3[ebp]
  0000c	ff 25 00 00 00
	00		 jmp	 DWORD PTR __imp_??1?$CStringT@DV?$StrTraitMFC_DLL@DV?$ChTraitsCRT@D@ATL@@@@@ATL@@QAE@XZ
__unwindfunclet$?GetDatePacketHeadDataAndType_DataDate@CTextSizeCalculator@@ABE_NPAVCPacket@@AAV?$CStringT@DV?$StrTraitMFC_DLL@DV?$ChTraitsCRT@D@ATL@@@@@ATL@@1@Z$3:
  00012	8b 45 f0	 mov	 eax, DWORD PTR $T2[ebp]
  00015	83 e0 01	 and	 eax, 1
  00018	0f 84 0d 00 00
	00		 je	 $LN30@GetDatePac
  0001e	83 65 f0 fe	 and	 DWORD PTR $T2[ebp], -2	; fffffffeH
  00022	8d 4d 10	 lea	 ecx, DWORD PTR $T5[ebp]
  00025	ff 25 00 00 00
	00		 jmp	 DWORD PTR __imp_??1?$CStringT@DV?$StrTraitMFC_DLL@DV?$ChTraitsCRT@D@ATL@@@@@ATL@@QAE@XZ
$LN30@GetDatePac:
  0002b	c3		 ret	 0
  0002c	cc		 int	 3
  0002d	cc		 int	 3
  0002e	cc		 int	 3
  0002f	cc		 int	 3
  00030	cc		 int	 3
__ehhandler$?GetDatePacketHeadDataAndType_DataDate@CTextSizeCalculator@@ABE_NPAVCPacket@@AAV?$CStringT@DV?$StrTraitMFC_DLL@DV?$ChTraitsCRT@D@ATL@@@@@ATL@@1@Z:
  00031	90		 npad	 1
  00032	90		 npad	 1
  00033	8b 54 24 08	 mov	 edx, DWORD PTR [esp+8]
  00037	8d 42 0c	 lea	 eax, DWORD PTR [edx+12]
  0003a	8b 4a ec	 mov	 ecx, DWORD PTR [edx-20]
  0003d	33 c8		 xor	 ecx, eax
  0003f	e8 00 00 00 00	 call	 @__security_check_cookie@4
  00044	b8 00 00 00 00	 mov	 eax, OFFSET __ehfuncinfo$?GetDatePacketHeadDataAndType_DataDate@CTextSizeCalculator@@ABE_NPAVCPacket@@AAV?$CStringT@DV?$StrTraitMFC_DLL@DV?$ChTraitsCRT@D@ATL@@@@@ATL@@1@Z
  00049	e9 00 00 00 00	 jmp	 ___CxxFrameHandler3
text$x	ENDS
?GetDatePacketHeadDataAndType_DataDate@CTextSizeCalculator@@ABE_NPAVCPacket@@AAV?$CStringT@DV?$StrTraitMFC_DLL@DV?$ChTraitsCRT@D@ATL@@@@@ATL@@1@Z ENDP ; CTextSizeCalculator::GetDatePacketHeadDataAndType_DataDate
; Function compile flags: /Ogtp
; File D:\git\src\IBK\IBK_DRFN\ProjSrc\SrcChartEx\ChartOCX\ChartObject\DrawingRegionCalculator.cpp
; File C:\Program Files (x86)\Microsoft Visual Studio\2019\Community\VC\Tools\MSVC\14.29.30133\atlmfc\include\atlsimpstr.h
; File D:\git\src\IBK\IBK_DRFN\ProjSrc\SrcChartEx\ChartOCX\ChartObject\DrawingRegionCalculator.cpp
; File C:\Program Files (x86)\Microsoft Visual Studio\2019\Community\VC\Tools\MSVC\14.29.30133\atlmfc\include\atlsimpstr.h
; File C:\Program Files (x86)\Microsoft Visual Studio\2019\Community\VC\Tools\MSVC\14.29.30133\atlmfc\include\cstringt.h
; File D:\git\src\IBK\IBK_DRFN\ProjSrc\SrcChartEx\ChartOCX\ChartObject\DrawingRegionCalculator.cpp
; File C:\Program Files (x86)\Microsoft Visual Studio\2019\Community\VC\Tools\MSVC\14.29.30133\atlmfc\include\atlsimpstr.h
; File D:\git\src\IBK\IBK_DRFN\ProjSrc\SrcChartEx\ChartOCX\ChartObject\DrawingRegionCalculator.cpp
; File C:\Program Files (x86)\Microsoft Visual Studio\2019\Community\VC\Tools\MSVC\14.29.30133\atlmfc\include\atlsimpstr.h
; File D:\git\src\IBK\IBK_DRFN\ProjSrc\SrcChartEx\ChartOCX\ChartObject\DrawingRegionCalculator.cpp
; File C:\Program Files (x86)\Microsoft Visual Studio\2019\Community\VC\Tools\MSVC\14.29.30133\atlmfc\include\atlsimpstr.h
; File D:\git\src\IBK\IBK_DRFN\ProjSrc\SrcChartEx\ChartOCX\ChartObject\DrawingRegionCalculator.cpp
;	COMDAT ?GetVertScalePacket@CTextSizeCalculator@@ABEPAVCPacket@@PAVCPacketList@@ABV?$CStringT@DV?$StrTraitMFC_DLL@DV?$ChTraitsCRT@D@ATL@@@@@ATL@@@Z
_TEXT	SEGMENT
$T2 = -16						; size = 4
__$EHRec$ = -12						; size = 12
_strTemp$ = 8						; size = 4
_pPacketList$ = 8					; size = 4
_strPacketName$3 = 12					; size = 4
$T4 = 12						; size = 4
_strPacketNames$ = 12					; size = 4
?GetVertScalePacket@CTextSizeCalculator@@ABEPAVCPacket@@PAVCPacketList@@ABV?$CStringT@DV?$StrTraitMFC_DLL@DV?$ChTraitsCRT@D@ATL@@@@@ATL@@@Z PROC ; CTextSizeCalculator::GetVertScalePacket, COMDAT
; _this$ = ecx

; 758  : {

  00000	55		 push	 ebp
  00001	8b ec		 mov	 ebp, esp
  00003	6a ff		 push	 -1
  00005	68 00 00 00 00	 push	 __ehhandler$?GetVertScalePacket@CTextSizeCalculator@@ABEPAVCPacket@@PAVCPacketList@@ABV?$CStringT@DV?$StrTraitMFC_DLL@DV?$ChTraitsCRT@D@ATL@@@@@ATL@@@Z
  0000a	64 a1 00 00 00
	00		 mov	 eax, DWORD PTR fs:0
  00010	50		 push	 eax
  00011	83 ec 08	 sub	 esp, 8
  00014	53		 push	 ebx
  00015	56		 push	 esi
  00016	57		 push	 edi
  00017	a1 00 00 00 00	 mov	 eax, DWORD PTR ___security_cookie
  0001c	33 c5		 xor	 eax, ebp
  0001e	50		 push	 eax
  0001f	8d 45 f4	 lea	 eax, DWORD PTR __$EHRec$[ebp]
  00022	64 a3 00 00 00
	00		 mov	 DWORD PTR fs:0, eax

; 759  : 	if(pPacketList == NULL || strPacketNames.IsEmpty())

  00028	8b 7d 08	 mov	 edi, DWORD PTR _pPacketList$[ebp]
  0002b	85 ff		 test	 edi, edi
  0002d	0f 84 16 01 00
	00		 je	 $LN5@GetVertSca
; File C:\Program Files (x86)\Microsoft Visual Studio\2019\Community\VC\Tools\MSVC\14.29.30133\atlmfc\include\atlsimpstr.h

; 519  : 		return( GetData()->nDataLength );

  00033	8b 4d 0c	 mov	 ecx, DWORD PTR _strPacketNames$[ebp]
  00036	8b 01		 mov	 eax, DWORD PTR [ecx]

; 533  : 		return( GetLength() == 0 );

  00038	83 78 f4 00	 cmp	 DWORD PTR [eax-12], 0
; File D:\git\src\IBK\IBK_DRFN\ProjSrc\SrcChartEx\ChartOCX\ChartObject\DrawingRegionCalculator.cpp

; 759  : 	if(pPacketList == NULL || strPacketNames.IsEmpty())

  0003c	0f 84 07 01 00
	00		 je	 $LN5@GetVertSca

; 761  : 
; 762  : 	CString strTemp = strPacketNames;

  00042	51		 push	 ecx
  00043	8d 4d 08	 lea	 ecx, DWORD PTR _strTemp$[ebp]
  00046	ff 15 00 00 00
	00		 call	 DWORD PTR __imp_??0?$CStringT@DV?$StrTraitMFC_DLL@DV?$ChTraitsCRT@D@ATL@@@@@ATL@@QAE@ABV01@@Z

; 763  : 	if(strTemp.Right(1) != ',')

  0004c	6a 01		 push	 1
  0004e	8d 45 0c	 lea	 eax, DWORD PTR $T4[ebp]
  00051	c7 45 fc 00 00
	00 00		 mov	 DWORD PTR __$EHRec$[ebp+8], 0
  00058	50		 push	 eax
  00059	8d 4d 08	 lea	 ecx, DWORD PTR _strTemp$[ebp]
  0005c	ff 15 00 00 00
	00		 call	 DWORD PTR __imp_?Right@?$CStringT@DV?$StrTraitMFC_DLL@DV?$ChTraitsCRT@D@ATL@@@@@ATL@@QBE?AV12@H@Z
; File C:\Program Files (x86)\Microsoft Visual Studio\2019\Community\VC\Tools\MSVC\14.29.30133\atlmfc\include\atlsimpstr.h

; 519  : 		return( GetData()->nDataLength );

  00062	8b 08		 mov	 ecx, DWORD PTR [eax]
; File C:\Program Files (x86)\Microsoft Visual Studio\2019\Community\VC\Tools\MSVC\14.29.30133\atlmfc\include\cstringt.h

; 2699 : 		return((str1.GetLength() != 1) || (str1[0] != ch2));

  00064	83 79 f4 01	 cmp	 DWORD PTR [ecx-12], 1
  00068	75 19		 jne	 SHORT $LN24@GetVertSca
  0006a	6a 00		 push	 0
  0006c	8b c8		 mov	 ecx, eax
  0006e	ff 15 00 00 00
	00		 call	 DWORD PTR __imp_??A?$CSimpleStringT@D$00@ATL@@QBEDH@Z
  00074	3c 2c		 cmp	 al, 44			; 0000002cH
  00076	75 0b		 jne	 SHORT $LN24@GetVertSca
  00078	8d 4d 0c	 lea	 ecx, DWORD PTR $T4[ebp]
  0007b	ff 15 00 00 00
	00		 call	 DWORD PTR __imp_??1?$CStringT@DV?$StrTraitMFC_DLL@DV?$ChTraitsCRT@D@ATL@@@@@ATL@@QAE@XZ
  00081	eb 14		 jmp	 SHORT $LN43@GetVertSca
$LN24@GetVertSca:
  00083	8d 4d 0c	 lea	 ecx, DWORD PTR $T4[ebp]
  00086	ff 15 00 00 00
	00		 call	 DWORD PTR __imp_??1?$CStringT@DV?$StrTraitMFC_DLL@DV?$ChTraitsCRT@D@ATL@@@@@ATL@@QAE@XZ
; File D:\git\src\IBK\IBK_DRFN\ProjSrc\SrcChartEx\ChartOCX\ChartObject\DrawingRegionCalculator.cpp

; 764  : 		strTemp += ',';

  0008c	6a 2c		 push	 44			; 0000002cH
  0008e	8d 4d 08	 lea	 ecx, DWORD PTR _strTemp$[ebp]
  00091	ff 15 00 00 00
	00		 call	 DWORD PTR __imp_??Y?$CStringT@DV?$StrTraitMFC_DLL@DV?$ChTraitsCRT@D@ATL@@@@@ATL@@QAEAAV01@D@Z
$LN43@GetVertSca:
; File C:\Program Files (x86)\Microsoft Visual Studio\2019\Community\VC\Tools\MSVC\14.29.30133\atlmfc\include\atlsimpstr.h

; 519  : 		return( GetData()->nDataLength );

  00097	8b 45 08	 mov	 eax, DWORD PTR _strTemp$[ebp]

; 533  : 		return( GetLength() == 0 );

  0009a	83 78 f4 00	 cmp	 DWORD PTR [eax-12], 0
; File D:\git\src\IBK\IBK_DRFN\ProjSrc\SrcChartEx\ChartOCX\ChartObject\DrawingRegionCalculator.cpp

; 766  : 	while(!strTemp.IsEmpty())

  0009e	74 7d		 je	 SHORT $LN49@GetVertSca
  000a0	8b 1d 00 00 00
	00		 mov	 ebx, DWORD PTR __imp_?GetBaseData@CPacketList@@QAEPAVCPacket@@V?$CStringT@DV?$StrTraitMFC_DLL@DV?$ChTraitsCRT@D@ATL@@@@@ATL@@_N@Z
$LL2@GetVertSca:

; 767  : 	{
; 768  : 		CString strPacketName = CDataConversion::GetStringData(strTemp, ',');

  000a6	6a 01		 push	 1
  000a8	6a 2c		 push	 44			; 0000002cH
  000aa	8d 4d f0	 lea	 ecx, DWORD PTR $T2[ebp]
  000ad	ff 15 00 00 00
	00		 call	 DWORD PTR __imp_??0?$CStringT@DV?$StrTraitMFC_DLL@DV?$ChTraitsCRT@D@ATL@@@@@ATL@@QAE@DH@Z
  000b3	6a 01		 push	 1
  000b5	8d 45 f0	 lea	 eax, DWORD PTR $T2[ebp]
  000b8	c6 45 fc 01	 mov	 BYTE PTR __$EHRec$[ebp+8], 1
  000bc	50		 push	 eax
  000bd	8d 45 08	 lea	 eax, DWORD PTR _strTemp$[ebp]
  000c0	50		 push	 eax
  000c1	8d 45 0c	 lea	 eax, DWORD PTR _strPacketName$3[ebp]
  000c4	50		 push	 eax
  000c5	e8 00 00 00 00	 call	 ?GetStringData@CDataConversion@@SA?AV?$CStringT@DV?$StrTraitMFC_DLL@DV?$ChTraitsCRT@D@ATL@@@@@ATL@@AAV23@ABV23@_N@Z ; CDataConversion::GetStringData
  000ca	83 c4 10	 add	 esp, 16			; 00000010H
  000cd	8d 4d f0	 lea	 ecx, DWORD PTR $T2[ebp]
  000d0	c6 45 fc 03	 mov	 BYTE PTR __$EHRec$[ebp+8], 3
  000d4	ff 15 00 00 00
	00		 call	 DWORD PTR __imp_??1?$CStringT@DV?$StrTraitMFC_DLL@DV?$ChTraitsCRT@D@ATL@@@@@ATL@@QAE@XZ
; File C:\Program Files (x86)\Microsoft Visual Studio\2019\Community\VC\Tools\MSVC\14.29.30133\atlmfc\include\atlsimpstr.h

; 519  : 		return( GetData()->nDataLength );

  000da	8b 45 0c	 mov	 eax, DWORD PTR _strPacketName$3[ebp]

; 533  : 		return( GetLength() == 0 );

  000dd	83 78 f4 00	 cmp	 DWORD PTR [eax-12], 0
; File D:\git\src\IBK\IBK_DRFN\ProjSrc\SrcChartEx\ChartOCX\ChartObject\DrawingRegionCalculator.cpp

; 769  : 		if(strPacketName.IsEmpty())

  000e1	74 24		 je	 SHORT $LN8@GetVertSca

; 770  : 			continue;
; 771  : 		
; 772  : 		CPacket* pPacket = pPacketList->GetBaseData(strPacketName);

  000e3	6a 01		 push	 1
  000e5	51		 push	 ecx
  000e6	8d 45 0c	 lea	 eax, DWORD PTR _strPacketName$3[ebp]
  000e9	8b cc		 mov	 ecx, esp
  000eb	50		 push	 eax
  000ec	ff 15 00 00 00
	00		 call	 DWORD PTR __imp_??0?$CStringT@DV?$StrTraitMFC_DLL@DV?$ChTraitsCRT@D@ATL@@@@@ATL@@QAE@ABV01@@Z
  000f2	8b cf		 mov	 ecx, edi
  000f4	ff d3		 call	 ebx
  000f6	8b f0		 mov	 esi, eax

; 773  : 		if(pPacket != NULL && pPacket->GetCount() > 0)

  000f8	85 f6		 test	 esi, esi
  000fa	74 0b		 je	 SHORT $LN8@GetVertSca
  000fc	8b 06		 mov	 eax, DWORD PTR [esi]
  000fe	8b ce		 mov	 ecx, esi
  00100	ff 50 14	 call	 DWORD PTR [eax+20]
  00103	85 c0		 test	 eax, eax
  00105	7f 37		 jg	 SHORT $LN44@GetVertSca
$LN8@GetVertSca:

; 775  : 	}

  00107	8d 4d 0c	 lea	 ecx, DWORD PTR _strPacketName$3[ebp]
  0010a	c6 45 fc 00	 mov	 BYTE PTR __$EHRec$[ebp+8], 0
  0010e	ff 15 00 00 00
	00		 call	 DWORD PTR __imp_??1?$CStringT@DV?$StrTraitMFC_DLL@DV?$ChTraitsCRT@D@ATL@@@@@ATL@@QAE@XZ
; File C:\Program Files (x86)\Microsoft Visual Studio\2019\Community\VC\Tools\MSVC\14.29.30133\atlmfc\include\atlsimpstr.h

; 533  : 		return( GetLength() == 0 );

  00114	8b 45 08	 mov	 eax, DWORD PTR _strTemp$[ebp]
  00117	83 78 f4 00	 cmp	 DWORD PTR [eax-12], 0
; File D:\git\src\IBK\IBK_DRFN\ProjSrc\SrcChartEx\ChartOCX\ChartObject\DrawingRegionCalculator.cpp

; 766  : 	while(!strTemp.IsEmpty())

  0011b	75 89		 jne	 SHORT $LL2@GetVertSca
$LN49@GetVertSca:

; 776  : 
; 777  : 	return NULL;

  0011d	33 f6		 xor	 esi, esi
$LN15@GetVertSca:
  0011f	8d 4d 08	 lea	 ecx, DWORD PTR _strTemp$[ebp]
  00122	ff 15 00 00 00
	00		 call	 DWORD PTR __imp_??1?$CStringT@DV?$StrTraitMFC_DLL@DV?$ChTraitsCRT@D@ATL@@@@@ATL@@QAE@XZ
  00128	8b c6		 mov	 eax, esi

; 778  : }

  0012a	8b 4d f4	 mov	 ecx, DWORD PTR __$EHRec$[ebp]
  0012d	64 89 0d 00 00
	00 00		 mov	 DWORD PTR fs:0, ecx
  00134	59		 pop	 ecx
  00135	5f		 pop	 edi
  00136	5e		 pop	 esi
  00137	5b		 pop	 ebx
  00138	8b e5		 mov	 esp, ebp
  0013a	5d		 pop	 ebp
  0013b	c2 08 00	 ret	 8
$LN44@GetVertSca:

; 774  : 			return pPacket;

  0013e	8d 4d 0c	 lea	 ecx, DWORD PTR _strPacketName$3[ebp]
  00141	ff 15 00 00 00
	00		 call	 DWORD PTR __imp_??1?$CStringT@DV?$StrTraitMFC_DLL@DV?$ChTraitsCRT@D@ATL@@@@@ATL@@QAE@XZ
  00147	eb d6		 jmp	 SHORT $LN15@GetVertSca
$LN5@GetVertSca:

; 760  : 		return NULL;

  00149	33 c0		 xor	 eax, eax

; 778  : }

  0014b	8b 4d f4	 mov	 ecx, DWORD PTR __$EHRec$[ebp]
  0014e	64 89 0d 00 00
	00 00		 mov	 DWORD PTR fs:0, ecx
  00155	59		 pop	 ecx
  00156	5f		 pop	 edi
  00157	5e		 pop	 esi
  00158	5b		 pop	 ebx
  00159	8b e5		 mov	 esp, ebp
  0015b	5d		 pop	 ebp
  0015c	c2 08 00	 ret	 8
_TEXT	ENDS
;	COMDAT text$x
text$x	SEGMENT
__unwindfunclet$?GetVertScalePacket@CTextSizeCalculator@@ABEPAVCPacket@@PAVCPacketList@@ABV?$CStringT@DV?$StrTraitMFC_DLL@DV?$ChTraitsCRT@D@ATL@@@@@ATL@@@Z$0:
  00000	8d 4d 08	 lea	 ecx, DWORD PTR _strTemp$[ebp]
  00003	ff 25 00 00 00
	00		 jmp	 DWORD PTR __imp_??1?$CStringT@DV?$StrTraitMFC_DLL@DV?$ChTraitsCRT@D@ATL@@@@@ATL@@QAE@XZ
__unwindfunclet$?GetVertScalePacket@CTextSizeCalculator@@ABEPAVCPacket@@PAVCPacketList@@ABV?$CStringT@DV?$StrTraitMFC_DLL@DV?$ChTraitsCRT@D@ATL@@@@@ATL@@@Z$2:
  00009	8d 4d f0	 lea	 ecx, DWORD PTR $T2[ebp]
  0000c	ff 25 00 00 00
	00		 jmp	 DWORD PTR __imp_??1?$CStringT@DV?$StrTraitMFC_DLL@DV?$ChTraitsCRT@D@ATL@@@@@ATL@@QAE@XZ
__unwindfunclet$?GetVertScalePacket@CTextSizeCalculator@@ABEPAVCPacket@@PAVCPacketList@@ABV?$CStringT@DV?$StrTraitMFC_DLL@DV?$ChTraitsCRT@D@ATL@@@@@ATL@@@Z$3:
  00012	8d 4d 0c	 lea	 ecx, DWORD PTR _strPacketName$3[ebp]
  00015	ff 25 00 00 00
	00		 jmp	 DWORD PTR __imp_??1?$CStringT@DV?$StrTraitMFC_DLL@DV?$ChTraitsCRT@D@ATL@@@@@ATL@@QAE@XZ
  0001b	cc		 int	 3
  0001c	cc		 int	 3
  0001d	cc		 int	 3
  0001e	cc		 int	 3
  0001f	cc		 int	 3
__ehhandler$?GetVertScalePacket@CTextSizeCalculator@@ABEPAVCPacket@@PAVCPacketList@@ABV?$CStringT@DV?$StrTraitMFC_DLL@DV?$ChTraitsCRT@D@ATL@@@@@ATL@@@Z:
  00020	90		 npad	 1
  00021	90		 npad	 1
  00022	8b 54 24 08	 mov	 edx, DWORD PTR [esp+8]
  00026	8d 42 0c	 lea	 eax, DWORD PTR [edx+12]
  00029	8b 4a e8	 mov	 ecx, DWORD PTR [edx-24]
  0002c	33 c8		 xor	 ecx, eax
  0002e	e8 00 00 00 00	 call	 @__security_check_cookie@4
  00033	b8 00 00 00 00	 mov	 eax, OFFSET __ehfuncinfo$?GetVertScalePacket@CTextSizeCalculator@@ABEPAVCPacket@@PAVCPacketList@@ABV?$CStringT@DV?$StrTraitMFC_DLL@DV?$ChTraitsCRT@D@ATL@@@@@ATL@@@Z
  00038	e9 00 00 00 00	 jmp	 ___CxxFrameHandler3
text$x	ENDS
?GetVertScalePacket@CTextSizeCalculator@@ABEPAVCPacket@@PAVCPacketList@@ABV?$CStringT@DV?$StrTraitMFC_DLL@DV?$ChTraitsCRT@D@ATL@@@@@ATL@@@Z ENDP ; CTextSizeCalculator::GetVertScalePacket
; Function compile flags: /Ogtp
; File D:\git\src\IBK\IBK_DRFN\ProjSrc\SrcChartEx\ChartOCX\ChartObject\DrawingRegionCalculator.cpp
; File C:\Program Files (x86)\Microsoft Visual Studio\2019\Community\VC\Tools\MSVC\14.29.30133\atlmfc\include\atlsimpstr.h
; File D:\git\src\IBK\IBK_DRFN\ProjSrc\SrcChartEx\ChartOCX\ChartObject\DrawingRegionCalculator.cpp
; File C:\Program Files (x86)\Microsoft Visual Studio\2019\Community\VC\Tools\MSVC\14.29.30133\atlmfc\include\cstringt.h
; File D:\git\src\IBK\IBK_DRFN\ProjSrc\SrcChartEx\ChartOCX\ChartObject\DrawingRegionCalculator.cpp
; File C:\Program Files (x86)\Microsoft Visual Studio\2019\Community\VC\Tools\MSVC\14.29.30133\atlmfc\include\cstringt.h
; File D:\git\src\IBK\IBK_DRFN\ProjSrc\SrcChartEx\ChartOCX\ChartObject\DrawingRegionCalculator.cpp
; File C:\Program Files (x86)\Microsoft Visual Studio\2019\Community\VC\Tools\MSVC\14.29.30133\atlmfc\include\cstringt.h
; File D:\git\src\IBK\IBK_DRFN\ProjSrc\SrcChartEx\ChartOCX\ChartObject\DrawingRegionCalculator.cpp
; File C:\Program Files (x86)\Microsoft Visual Studio\2019\Community\VC\Tools\MSVC\14.29.30133\atlmfc\include\atlsimpstr.h
; File D:\git\src\IBK\IBK_DRFN\ProjSrc\SrcChartEx\ChartOCX\ChartObject\DrawingRegionCalculator.cpp
; File C:\Program Files (x86)\Microsoft Visual Studio\2019\Community\VC\Tools\MSVC\14.29.30133\atlmfc\include\atlsimpstr.h
; File C:\Program Files (x86)\Microsoft Visual Studio\2019\Community\VC\Tools\MSVC\14.29.30133\atlmfc\include\cstringt.h
; File D:\git\src\IBK\IBK_DRFN\ProjSrc\SrcChartEx\ChartOCX\ChartObject\DrawingRegionCalculator.cpp
; File C:\Program Files (x86)\Microsoft Visual Studio\2019\Community\VC\Tools\MSVC\14.29.30133\atlmfc\include\atlsimpstr.h
; File D:\git\src\IBK\IBK_DRFN\ProjSrc\SrcChartEx\ChartOCX\ChartObject\DrawingRegionCalculator.cpp
; File C:\Program Files (x86)\Microsoft Visual Studio\2019\Community\VC\Tools\MSVC\14.29.30133\atlmfc\include\atlsimpstr.h
; File D:\git\src\IBK\IBK_DRFN\ProjSrc\SrcChartEx\ChartOCX\ChartObject\DrawingRegionCalculator.cpp
; File C:\Program Files (x86)\Microsoft Visual Studio\2019\Community\VC\Tools\MSVC\14.29.30133\atlmfc\include\atlsimpstr.h
; File D:\git\src\IBK\IBK_DRFN\ProjSrc\SrcChartEx\ChartOCX\ChartObject\DrawingRegionCalculator.cpp
;	COMDAT ?GetVertScalePacket@CTextSizeCalculator@@ABEPAVCPacket@@PAVCSubGraphPacketList@@ABV?$CStringT@DV?$StrTraitMFC_DLL@DV?$ChTraitsCRT@D@ATL@@@@@ATL@@@Z
_TEXT	SEGMENT
$T2 = -24						; size = 4
$T3 = -20						; size = 4
$T4 = -16						; size = 4
__$EHRec$ = -12						; size = 12
_strTemp$5 = 8						; size = 4
_pSubGraphPacketList$ = 8				; size = 4
_strPacketName$6 = 12					; size = 4
_strPacketName$ = 12					; size = 4
?GetVertScalePacket@CTextSizeCalculator@@ABEPAVCPacket@@PAVCSubGraphPacketList@@ABV?$CStringT@DV?$StrTraitMFC_DLL@DV?$ChTraitsCRT@D@ATL@@@@@ATL@@@Z PROC ; CTextSizeCalculator::GetVertScalePacket, COMDAT
; _this$ = ecx

; 743  : {

  00000	55		 push	 ebp
  00001	8b ec		 mov	 ebp, esp
  00003	6a ff		 push	 -1
  00005	68 00 00 00 00	 push	 __ehhandler$?GetVertScalePacket@CTextSizeCalculator@@ABEPAVCPacket@@PAVCSubGraphPacketList@@ABV?$CStringT@DV?$StrTraitMFC_DLL@DV?$ChTraitsCRT@D@ATL@@@@@ATL@@@Z
  0000a	64 a1 00 00 00
	00		 mov	 eax, DWORD PTR fs:0
  00010	50		 push	 eax
  00011	83 ec 0c	 sub	 esp, 12			; 0000000cH
  00014	53		 push	 ebx
  00015	56		 push	 esi
  00016	57		 push	 edi
  00017	a1 00 00 00 00	 mov	 eax, DWORD PTR ___security_cookie
  0001c	33 c5		 xor	 eax, ebp
  0001e	50		 push	 eax
  0001f	8d 45 f4	 lea	 eax, DWORD PTR __$EHRec$[ebp]
  00022	64 a3 00 00 00
	00		 mov	 DWORD PTR fs:0, eax

; 744  : 	if(pSubGraphPacketList == NULL || strPacketName.IsEmpty())

  00028	8b 4d 08	 mov	 ecx, DWORD PTR _pSubGraphPacketList$[ebp]
  0002b	85 c9		 test	 ecx, ecx
  0002d	0f 84 99 01 00
	00		 je	 $LN3@GetVertSca
; File C:\Program Files (x86)\Microsoft Visual Studio\2019\Community\VC\Tools\MSVC\14.29.30133\atlmfc\include\atlsimpstr.h

; 519  : 		return( GetData()->nDataLength );

  00033	8b 5d 0c	 mov	 ebx, DWORD PTR _strPacketName$[ebp]
  00036	8b 03		 mov	 eax, DWORD PTR [ebx]

; 533  : 		return( GetLength() == 0 );

  00038	83 78 f4 00	 cmp	 DWORD PTR [eax-12], 0
; File D:\git\src\IBK\IBK_DRFN\ProjSrc\SrcChartEx\ChartOCX\ChartObject\DrawingRegionCalculator.cpp

; 744  : 	if(pSubGraphPacketList == NULL || strPacketName.IsEmpty())

  0003c	0f 84 8a 01 00
	00		 je	 $LN3@GetVertSca

; 746  : 
; 747  : 	CPacket* pHeadPacket = pSubGraphPacketList->GetHeadPacket();

  00042	e8 00 00 00 00	 call	 ?GetHeadPacket@CSubGraphPacketList@@QAEPAVCPacket@@XZ ; CSubGraphPacketList::GetHeadPacket
  00047	8b f8		 mov	 edi, eax

; 748  : 	if(pHeadPacket == NULL)

  00049	85 ff		 test	 edi, edi
  0004b	0f 84 7b 01 00
	00		 je	 $LN3@GetVertSca

; 751  : 	if(pHeadPacket->GetName() == strPacketName)

  00051	8d 45 e8	 lea	 eax, DWORD PTR $T2[ebp]
  00054	8b cf		 mov	 ecx, edi
  00056	50		 push	 eax
  00057	ff 15 00 00 00
	00		 call	 DWORD PTR __imp_?GetName@CPacket@@QAE?AV?$CStringT@DV?$StrTraitMFC_DLL@DV?$ChTraitsCRT@D@ATL@@@@@ATL@@XZ
; File C:\Program Files (x86)\Microsoft Visual Studio\2019\Community\VC\Tools\MSVC\14.29.30133\atlmfc\include\cstringt.h

; 2479 : 		return(str1.Compare(str2) == 0);

  0005d	ff 33		 push	 DWORD PTR [ebx]
  0005f	8b c8		 mov	 ecx, eax
; File D:\git\src\IBK\IBK_DRFN\ProjSrc\SrcChartEx\ChartOCX\ChartObject\DrawingRegionCalculator.cpp

; 751  : 	if(pHeadPacket->GetName() == strPacketName)

  00061	c7 45 fc 00 00
	00 00		 mov	 DWORD PTR __$EHRec$[ebp+8], 0
; File C:\Program Files (x86)\Microsoft Visual Studio\2019\Community\VC\Tools\MSVC\14.29.30133\atlmfc\include\cstringt.h

; 2479 : 		return(str1.Compare(str2) == 0);

  00068	ff 15 00 00 00
	00		 call	 DWORD PTR __imp_?Compare@?$CStringT@DV?$StrTraitMFC_DLL@DV?$ChTraitsCRT@D@ATL@@@@@ATL@@QBEHPBD@Z
; File D:\git\src\IBK\IBK_DRFN\ProjSrc\SrcChartEx\ChartOCX\ChartObject\DrawingRegionCalculator.cpp

; 751  : 	if(pHeadPacket->GetName() == strPacketName)

  0006e	8d 4d e8	 lea	 ecx, DWORD PTR $T2[ebp]
  00071	c7 45 fc ff ff
	ff ff		 mov	 DWORD PTR __$EHRec$[ebp+8], -1
; File C:\Program Files (x86)\Microsoft Visual Studio\2019\Community\VC\Tools\MSVC\14.29.30133\atlmfc\include\cstringt.h

; 2479 : 		return(str1.Compare(str2) == 0);

  00078	8b f0		 mov	 esi, eax
; File D:\git\src\IBK\IBK_DRFN\ProjSrc\SrcChartEx\ChartOCX\ChartObject\DrawingRegionCalculator.cpp

; 751  : 	if(pHeadPacket->GetName() == strPacketName)

  0007a	ff 15 00 00 00
	00		 call	 DWORD PTR __imp_??1?$CStringT@DV?$StrTraitMFC_DLL@DV?$ChTraitsCRT@D@ATL@@@@@ATL@@QAE@XZ
  00080	85 f6		 test	 esi, esi
  00082	75 16		 jne	 SHORT $LN5@GetVertSca

; 752  : 		return pHeadPacket;

  00084	8b c7		 mov	 eax, edi

; 755  : }

  00086	8b 4d f4	 mov	 ecx, DWORD PTR __$EHRec$[ebp]
  00089	64 89 0d 00 00
	00 00		 mov	 DWORD PTR fs:0, ecx
  00090	59		 pop	 ecx
  00091	5f		 pop	 edi
  00092	5e		 pop	 esi
  00093	5b		 pop	 ebx
  00094	8b e5		 mov	 esp, ebp
  00096	5d		 pop	 ebp
  00097	c2 08 00	 ret	 8
$LN5@GetVertSca:

; 753  : 
; 754  : 	return GetVertScalePacket(pHeadPacket->GetPacketList(), strPacketName);

  0009a	8b cf		 mov	 ecx, edi
  0009c	ff 15 00 00 00
	00		 call	 DWORD PTR __imp_?GetPacketList@CPacket@@QAEPAVCPacketList@@XZ
  000a2	8b f8		 mov	 edi, eax

; 759  : 	if(pPacketList == NULL || strPacketNames.IsEmpty())

  000a4	85 ff		 test	 edi, edi
  000a6	0f 84 f4 00 00
	00		 je	 $LN22@GetVertSca
; File C:\Program Files (x86)\Microsoft Visual Studio\2019\Community\VC\Tools\MSVC\14.29.30133\atlmfc\include\atlsimpstr.h

; 519  : 		return( GetData()->nDataLength );

  000ac	8b 0b		 mov	 ecx, DWORD PTR [ebx]

; 533  : 		return( GetLength() == 0 );

  000ae	83 79 f4 00	 cmp	 DWORD PTR [ecx-12], 0
; File D:\git\src\IBK\IBK_DRFN\ProjSrc\SrcChartEx\ChartOCX\ChartObject\DrawingRegionCalculator.cpp

; 759  : 	if(pPacketList == NULL || strPacketNames.IsEmpty())

  000b2	0f 84 e8 00 00
	00		 je	 $LN22@GetVertSca

; 760  : 		return NULL;
; 761  : 
; 762  : 	CString strTemp = strPacketNames;

  000b8	53		 push	 ebx
  000b9	8d 4d 08	 lea	 ecx, DWORD PTR _strTemp$5[ebp]
  000bc	ff 15 00 00 00
	00		 call	 DWORD PTR __imp_??0?$CStringT@DV?$StrTraitMFC_DLL@DV?$ChTraitsCRT@D@ATL@@@@@ATL@@QAE@ABV01@@Z

; 763  : 	if(strTemp.Right(1) != ',')

  000c2	6a 01		 push	 1
  000c4	8d 45 f0	 lea	 eax, DWORD PTR $T4[ebp]
  000c7	c7 45 fc 01 00
	00 00		 mov	 DWORD PTR __$EHRec$[ebp+8], 1
  000ce	50		 push	 eax
  000cf	8d 4d 08	 lea	 ecx, DWORD PTR _strTemp$5[ebp]
  000d2	ff 15 00 00 00
	00		 call	 DWORD PTR __imp_?Right@?$CStringT@DV?$StrTraitMFC_DLL@DV?$ChTraitsCRT@D@ATL@@@@@ATL@@QBE?AV12@H@Z
; File C:\Program Files (x86)\Microsoft Visual Studio\2019\Community\VC\Tools\MSVC\14.29.30133\atlmfc\include\atlsimpstr.h

; 519  : 		return( GetData()->nDataLength );

  000d8	8b 08		 mov	 ecx, DWORD PTR [eax]
; File C:\Program Files (x86)\Microsoft Visual Studio\2019\Community\VC\Tools\MSVC\14.29.30133\atlmfc\include\cstringt.h

; 2699 : 		return((str1.GetLength() != 1) || (str1[0] != ch2));

  000da	83 79 f4 01	 cmp	 DWORD PTR [ecx-12], 1
  000de	75 19		 jne	 SHORT $LN40@GetVertSca
  000e0	6a 00		 push	 0
  000e2	8b c8		 mov	 ecx, eax
  000e4	ff 15 00 00 00
	00		 call	 DWORD PTR __imp_??A?$CSimpleStringT@D$00@ATL@@QBEDH@Z
  000ea	3c 2c		 cmp	 al, 44			; 0000002cH
  000ec	75 0b		 jne	 SHORT $LN40@GetVertSca
  000ee	8d 4d f0	 lea	 ecx, DWORD PTR $T4[ebp]
  000f1	ff 15 00 00 00
	00		 call	 DWORD PTR __imp_??1?$CStringT@DV?$StrTraitMFC_DLL@DV?$ChTraitsCRT@D@ATL@@@@@ATL@@QAE@XZ
  000f7	eb 14		 jmp	 SHORT $LN59@GetVertSca
$LN40@GetVertSca:
  000f9	8d 4d f0	 lea	 ecx, DWORD PTR $T4[ebp]
  000fc	ff 15 00 00 00
	00		 call	 DWORD PTR __imp_??1?$CStringT@DV?$StrTraitMFC_DLL@DV?$ChTraitsCRT@D@ATL@@@@@ATL@@QAE@XZ
; File D:\git\src\IBK\IBK_DRFN\ProjSrc\SrcChartEx\ChartOCX\ChartObject\DrawingRegionCalculator.cpp

; 764  : 		strTemp += ',';

  00102	6a 2c		 push	 44			; 0000002cH
  00104	8d 4d 08	 lea	 ecx, DWORD PTR _strTemp$5[ebp]
  00107	ff 15 00 00 00
	00		 call	 DWORD PTR __imp_??Y?$CStringT@DV?$StrTraitMFC_DLL@DV?$ChTraitsCRT@D@ATL@@@@@ATL@@QAEAAV01@D@Z
$LN59@GetVertSca:
; File C:\Program Files (x86)\Microsoft Visual Studio\2019\Community\VC\Tools\MSVC\14.29.30133\atlmfc\include\atlsimpstr.h

; 519  : 		return( GetData()->nDataLength );

  0010d	8b 45 08	 mov	 eax, DWORD PTR _strTemp$5[ebp]

; 533  : 		return( GetLength() == 0 );

  00110	83 78 f4 00	 cmp	 DWORD PTR [eax-12], 0
; File D:\git\src\IBK\IBK_DRFN\ProjSrc\SrcChartEx\ChartOCX\ChartObject\DrawingRegionCalculator.cpp

; 766  : 	while(!strTemp.IsEmpty())

  00114	0f 84 7d 00 00
	00		 je	 $LN65@GetVertSca
  0011a	8b 1d 00 00 00
	00		 mov	 ebx, DWORD PTR __imp_?GetBaseData@CPacketList@@QAEPAVCPacket@@V?$CStringT@DV?$StrTraitMFC_DLL@DV?$ChTraitsCRT@D@ATL@@@@@ATL@@_N@Z
$LL19@GetVertSca:

; 767  : 	{
; 768  : 		CString strPacketName = CDataConversion::GetStringData(strTemp, ',');

  00120	6a 01		 push	 1
  00122	6a 2c		 push	 44			; 0000002cH
  00124	8d 4d ec	 lea	 ecx, DWORD PTR $T3[ebp]
  00127	ff 15 00 00 00
	00		 call	 DWORD PTR __imp_??0?$CStringT@DV?$StrTraitMFC_DLL@DV?$ChTraitsCRT@D@ATL@@@@@ATL@@QAE@DH@Z
  0012d	6a 01		 push	 1
  0012f	8d 45 ec	 lea	 eax, DWORD PTR $T3[ebp]
  00132	c6 45 fc 02	 mov	 BYTE PTR __$EHRec$[ebp+8], 2
  00136	50		 push	 eax
  00137	8d 45 08	 lea	 eax, DWORD PTR _strTemp$5[ebp]
  0013a	50		 push	 eax
  0013b	8d 45 0c	 lea	 eax, DWORD PTR _strPacketName$6[ebp]
  0013e	50		 push	 eax
  0013f	e8 00 00 00 00	 call	 ?GetStringData@CDataConversion@@SA?AV?$CStringT@DV?$StrTraitMFC_DLL@DV?$ChTraitsCRT@D@ATL@@@@@ATL@@AAV23@ABV23@_N@Z ; CDataConversion::GetStringData
  00144	83 c4 10	 add	 esp, 16			; 00000010H
  00147	8d 4d ec	 lea	 ecx, DWORD PTR $T3[ebp]
  0014a	c6 45 fc 04	 mov	 BYTE PTR __$EHRec$[ebp+8], 4
  0014e	ff 15 00 00 00
	00		 call	 DWORD PTR __imp_??1?$CStringT@DV?$StrTraitMFC_DLL@DV?$ChTraitsCRT@D@ATL@@@@@ATL@@QAE@XZ
; File C:\Program Files (x86)\Microsoft Visual Studio\2019\Community\VC\Tools\MSVC\14.29.30133\atlmfc\include\atlsimpstr.h

; 519  : 		return( GetData()->nDataLength );

  00154	8b 45 0c	 mov	 eax, DWORD PTR _strPacketName$6[ebp]

; 533  : 		return( GetLength() == 0 );

  00157	83 78 f4 00	 cmp	 DWORD PTR [eax-12], 0
; File D:\git\src\IBK\IBK_DRFN\ProjSrc\SrcChartEx\ChartOCX\ChartObject\DrawingRegionCalculator.cpp

; 769  : 		if(strPacketName.IsEmpty())

  0015b	74 24		 je	 SHORT $LN25@GetVertSca

; 770  : 			continue;
; 771  : 		
; 772  : 		CPacket* pPacket = pPacketList->GetBaseData(strPacketName);

  0015d	6a 01		 push	 1
  0015f	51		 push	 ecx
  00160	8d 45 0c	 lea	 eax, DWORD PTR _strPacketName$6[ebp]
  00163	8b cc		 mov	 ecx, esp
  00165	50		 push	 eax
  00166	ff 15 00 00 00
	00		 call	 DWORD PTR __imp_??0?$CStringT@DV?$StrTraitMFC_DLL@DV?$ChTraitsCRT@D@ATL@@@@@ATL@@QAE@ABV01@@Z
  0016c	8b cf		 mov	 ecx, edi
  0016e	ff d3		 call	 ebx
  00170	8b f0		 mov	 esi, eax

; 773  : 		if(pPacket != NULL && pPacket->GetCount() > 0)

  00172	85 f6		 test	 esi, esi
  00174	74 0b		 je	 SHORT $LN25@GetVertSca
  00176	8b 06		 mov	 eax, DWORD PTR [esi]
  00178	8b ce		 mov	 ecx, esi
  0017a	ff 50 14	 call	 DWORD PTR [eax+20]
  0017d	85 c0		 test	 eax, eax
  0017f	7f 37		 jg	 SHORT $LN60@GetVertSca
$LN25@GetVertSca:

; 775  : 	}

  00181	8d 4d 0c	 lea	 ecx, DWORD PTR _strPacketName$6[ebp]
  00184	c6 45 fc 01	 mov	 BYTE PTR __$EHRec$[ebp+8], 1
  00188	ff 15 00 00 00
	00		 call	 DWORD PTR __imp_??1?$CStringT@DV?$StrTraitMFC_DLL@DV?$ChTraitsCRT@D@ATL@@@@@ATL@@QAE@XZ
; File C:\Program Files (x86)\Microsoft Visual Studio\2019\Community\VC\Tools\MSVC\14.29.30133\atlmfc\include\atlsimpstr.h

; 533  : 		return( GetLength() == 0 );

  0018e	8b 45 08	 mov	 eax, DWORD PTR _strTemp$5[ebp]
  00191	83 78 f4 00	 cmp	 DWORD PTR [eax-12], 0
; File D:\git\src\IBK\IBK_DRFN\ProjSrc\SrcChartEx\ChartOCX\ChartObject\DrawingRegionCalculator.cpp

; 766  : 	while(!strTemp.IsEmpty())

  00195	75 89		 jne	 SHORT $LL19@GetVertSca
$LN65@GetVertSca:

; 776  : 
; 777  : 	return NULL;

  00197	8d 4d 08	 lea	 ecx, DWORD PTR _strTemp$5[ebp]
  0019a	ff 15 00 00 00
	00		 call	 DWORD PTR __imp_??1?$CStringT@DV?$StrTraitMFC_DLL@DV?$ChTraitsCRT@D@ATL@@@@@ATL@@QAE@XZ
$LN22@GetVertSca:

; 753  : 
; 754  : 	return GetVertScalePacket(pHeadPacket->GetPacketList(), strPacketName);

  001a0	33 f6		 xor	 esi, esi
$LN18@GetVertSca:
  001a2	8b c6		 mov	 eax, esi

; 755  : }

  001a4	8b 4d f4	 mov	 ecx, DWORD PTR __$EHRec$[ebp]
  001a7	64 89 0d 00 00
	00 00		 mov	 DWORD PTR fs:0, ecx
  001ae	59		 pop	 ecx
  001af	5f		 pop	 edi
  001b0	5e		 pop	 esi
  001b1	5b		 pop	 ebx
  001b2	8b e5		 mov	 esp, ebp
  001b4	5d		 pop	 ebp
  001b5	c2 08 00	 ret	 8
$LN60@GetVertSca:

; 774  : 			return pPacket;

  001b8	8d 4d 0c	 lea	 ecx, DWORD PTR _strPacketName$6[ebp]
  001bb	ff 15 00 00 00
	00		 call	 DWORD PTR __imp_??1?$CStringT@DV?$StrTraitMFC_DLL@DV?$ChTraitsCRT@D@ATL@@@@@ATL@@QAE@XZ
  001c1	8d 4d 08	 lea	 ecx, DWORD PTR _strTemp$5[ebp]
  001c4	ff 15 00 00 00
	00		 call	 DWORD PTR __imp_??1?$CStringT@DV?$StrTraitMFC_DLL@DV?$ChTraitsCRT@D@ATL@@@@@ATL@@QAE@XZ
  001ca	eb d6		 jmp	 SHORT $LN18@GetVertSca
$LN3@GetVertSca:

; 745  : 		return NULL;

  001cc	33 c0		 xor	 eax, eax

; 755  : }

  001ce	8b 4d f4	 mov	 ecx, DWORD PTR __$EHRec$[ebp]
  001d1	64 89 0d 00 00
	00 00		 mov	 DWORD PTR fs:0, ecx
  001d8	59		 pop	 ecx
  001d9	5f		 pop	 edi
  001da	5e		 pop	 esi
  001db	5b		 pop	 ebx
  001dc	8b e5		 mov	 esp, ebp
  001de	5d		 pop	 ebp
  001df	c2 08 00	 ret	 8
_TEXT	ENDS
;	COMDAT text$x
text$x	SEGMENT
__unwindfunclet$?GetVertScalePacket@CTextSizeCalculator@@ABEPAVCPacket@@PAVCSubGraphPacketList@@ABV?$CStringT@DV?$StrTraitMFC_DLL@DV?$ChTraitsCRT@D@ATL@@@@@ATL@@@Z$0:
  00000	8d 4d e8	 lea	 ecx, DWORD PTR $T2[ebp]
  00003	ff 25 00 00 00
	00		 jmp	 DWORD PTR __imp_??1?$CStringT@DV?$StrTraitMFC_DLL@DV?$ChTraitsCRT@D@ATL@@@@@ATL@@QAE@XZ
__unwindfunclet$?GetVertScalePacket@CTextSizeCalculator@@ABEPAVCPacket@@PAVCSubGraphPacketList@@ABV?$CStringT@DV?$StrTraitMFC_DLL@DV?$ChTraitsCRT@D@ATL@@@@@ATL@@@Z$1:
  00009	8d 4d 08	 lea	 ecx, DWORD PTR _strTemp$5[ebp]
  0000c	ff 25 00 00 00
	00		 jmp	 DWORD PTR __imp_??1?$CStringT@DV?$StrTraitMFC_DLL@DV?$ChTraitsCRT@D@ATL@@@@@ATL@@QAE@XZ
__unwindfunclet$?GetVertScalePacket@CTextSizeCalculator@@ABEPAVCPacket@@PAVCSubGraphPacketList@@ABV?$CStringT@DV?$StrTraitMFC_DLL@DV?$ChTraitsCRT@D@ATL@@@@@ATL@@@Z$3:
  00012	8d 4d ec	 lea	 ecx, DWORD PTR $T3[ebp]
  00015	ff 25 00 00 00
	00		 jmp	 DWORD PTR __imp_??1?$CStringT@DV?$StrTraitMFC_DLL@DV?$ChTraitsCRT@D@ATL@@@@@ATL@@QAE@XZ
__unwindfunclet$?GetVertScalePacket@CTextSizeCalculator@@ABEPAVCPacket@@PAVCSubGraphPacketList@@ABV?$CStringT@DV?$StrTraitMFC_DLL@DV?$ChTraitsCRT@D@ATL@@@@@ATL@@@Z$4:
  0001b	8d 4d 0c	 lea	 ecx, DWORD PTR _strPacketName$6[ebp]
  0001e	ff 25 00 00 00
	00		 jmp	 DWORD PTR __imp_??1?$CStringT@DV?$StrTraitMFC_DLL@DV?$ChTraitsCRT@D@ATL@@@@@ATL@@QAE@XZ
  00024	cc		 int	 3
  00025	cc		 int	 3
  00026	cc		 int	 3
  00027	cc		 int	 3
  00028	cc		 int	 3
__ehhandler$?GetVertScalePacket@CTextSizeCalculator@@ABEPAVCPacket@@PAVCSubGraphPacketList@@ABV?$CStringT@DV?$StrTraitMFC_DLL@DV?$ChTraitsCRT@D@ATL@@@@@ATL@@@Z:
  00029	90		 npad	 1
  0002a	90		 npad	 1
  0002b	8b 54 24 08	 mov	 edx, DWORD PTR [esp+8]
  0002f	8d 42 0c	 lea	 eax, DWORD PTR [edx+12]
  00032	8b 4a e4	 mov	 ecx, DWORD PTR [edx-28]
  00035	33 c8		 xor	 ecx, eax
  00037	e8 00 00 00 00	 call	 @__security_check_cookie@4
  0003c	b8 00 00 00 00	 mov	 eax, OFFSET __ehfuncinfo$?GetVertScalePacket@CTextSizeCalculator@@ABEPAVCPacket@@PAVCSubGraphPacketList@@ABV?$CStringT@DV?$StrTraitMFC_DLL@DV?$ChTraitsCRT@D@ATL@@@@@ATL@@@Z
  00041	e9 00 00 00 00	 jmp	 ___CxxFrameHandler3
text$x	ENDS
?GetVertScalePacket@CTextSizeCalculator@@ABEPAVCPacket@@PAVCSubGraphPacketList@@ABV?$CStringT@DV?$StrTraitMFC_DLL@DV?$ChTraitsCRT@D@ATL@@@@@ATL@@@Z ENDP ; CTextSizeCalculator::GetVertScalePacket
; Function compile flags: /Ogtp
; File D:\git\src\IBK\IBK_DRFN\ProjSrc\SrcChartEx\ChartOCX\ChartObject\DrawingRegionCalculator.cpp
; File D:\git\src\IBK\IBK_DRFN\ProjSrc\SrcChartEx\ChartOCX\Include_Chart\Conversion.h
; File D:\git\src\IBK\IBK_DRFN\ProjSrc\SrcChartEx\ChartOCX\ChartObject\DrawingRegionCalculator.cpp
; File D:\git\src\IBK\IBK_DRFN\ProjSrc\SrcChartEx\ChartOCX\Include_Chart\Conversion.h
; File D:\git\src\IBK\IBK_DRFN\ProjSrc\SrcChartEx\ChartOCX\ChartObject\DrawingRegionCalculator.cpp
; File D:\git\src\IBK\IBK_DRFN\ProjSrc\SrcChartEx\ChartOCX\Include_Chart\Conversion.h
; File D:\git\src\IBK\IBK_DRFN\ProjSrc\SrcChartEx\ChartOCX\ChartObject\DrawingRegionCalculator.cpp
; File C:\Program Files (x86)\Microsoft Visual Studio\2019\Community\VC\Tools\MSVC\14.29.30133\atlmfc\include\atlsimpstr.h
; File D:\git\src\IBK\IBK_DRFN\ProjSrc\SrcChartEx\ChartOCX\ChartObject\DrawingRegionCalculator.cpp
; File C:\Program Files (x86)\Microsoft Visual Studio\2019\Community\VC\Tools\MSVC\14.29.30133\atlmfc\include\atlsimpstr.h
; File D:\git\src\IBK\IBK_DRFN\ProjSrc\SrcChartEx\ChartOCX\ChartObject\DrawingRegionCalculator.cpp
;	COMDAT ?GetFormatLength@CTextSizeCalculator@@ABEHABV?$CStringT@DV?$StrTraitMFC_DLL@DV?$ChTraitsCRT@D@ATL@@@@@ATL@@W4VERTSCALEUNITTYPE@CScaleBaseData@@@Z
_TEXT	SEGMENT
$T2 = -20						; size = 8
__$EHRec$ = -12						; size = 12
_strTemp$ = 8						; size = 4
_strFormat$ = 8						; size = 4
$T3 = 12						; size = 4
_eVertScaleUnitType$ = 12				; size = 4
?GetFormatLength@CTextSizeCalculator@@ABEHABV?$CStringT@DV?$StrTraitMFC_DLL@DV?$ChTraitsCRT@D@ATL@@@@@ATL@@W4VERTSCALEUNITTYPE@CScaleBaseData@@@Z PROC ; CTextSizeCalculator::GetFormatLength, COMDAT
; _this$ = ecx

; 728  : {

  00000	55		 push	 ebp
  00001	8b ec		 mov	 ebp, esp
  00003	6a ff		 push	 -1
  00005	68 00 00 00 00	 push	 __ehhandler$?GetFormatLength@CTextSizeCalculator@@ABEHABV?$CStringT@DV?$StrTraitMFC_DLL@DV?$ChTraitsCRT@D@ATL@@@@@ATL@@W4VERTSCALEUNITTYPE@CScaleBaseData@@@Z
  0000a	64 a1 00 00 00
	00		 mov	 eax, DWORD PTR fs:0
  00010	50		 push	 eax
  00011	83 ec 08	 sub	 esp, 8
  00014	56		 push	 esi
  00015	57		 push	 edi
  00016	a1 00 00 00 00	 mov	 eax, DWORD PTR ___security_cookie
  0001b	33 c5		 xor	 eax, ebp
  0001d	50		 push	 eax
  0001e	8d 45 f4	 lea	 eax, DWORD PTR __$EHRec$[ebp]
  00021	64 a3 00 00 00
	00		 mov	 DWORD PTR fs:0, eax
  00027	8b f9		 mov	 edi, ecx

; 729  : 	CString strTemp = strFormat;

  00029	8b 75 08	 mov	 esi, DWORD PTR _strFormat$[ebp]
  0002c	8d 4d 08	 lea	 ecx, DWORD PTR _strTemp$[ebp]
  0002f	56		 push	 esi
  00030	ff 15 00 00 00
	00		 call	 DWORD PTR __imp_??0?$CStringT@DV?$StrTraitMFC_DLL@DV?$ChTraitsCRT@D@ATL@@@@@ATL@@QAE@ABV01@@Z

; 730  : 	if(eVertScaleUnitType == CScaleBaseData::VERT_NUM_CHAR)

  00036	83 7d 0c 01	 cmp	 DWORD PTR _eVertScaleUnitType$[ebp], 1
  0003a	c7 45 fc 00 00
	00 00		 mov	 DWORD PTR __$EHRec$[ebp+8], 0
  00041	75 2f		 jne	 SHORT $LN2@GetFormatL
; File D:\git\src\IBK\IBK_DRFN\ProjSrc\SrcChartEx\ChartOCX\Include_Chart\Conversion.h

; 27   : 		{	m_hOcxWnd = p_hOcxWnd;	m_eChartMode = p_eChartMode;	}

  00043	8b 07		 mov	 eax, DWORD PTR [edi]
; File D:\git\src\IBK\IBK_DRFN\ProjSrc\SrcChartEx\ChartOCX\ChartObject\DrawingRegionCalculator.cpp

; 731  : 		strTemp = CDataConversion( m_hOcxWnd, m_eChartMode).GetChangeFormat_NumCharUnit(strFormat);

  00045	8b 4f 04	 mov	 ecx, DWORD PTR [edi+4]
; File D:\git\src\IBK\IBK_DRFN\ProjSrc\SrcChartEx\ChartOCX\Include_Chart\Conversion.h

; 27   : 		{	m_hOcxWnd = p_hOcxWnd;	m_eChartMode = p_eChartMode;	}

  00048	89 45 ec	 mov	 DWORD PTR $T2[ebp], eax
; File D:\git\src\IBK\IBK_DRFN\ProjSrc\SrcChartEx\ChartOCX\ChartObject\DrawingRegionCalculator.cpp

; 731  : 		strTemp = CDataConversion( m_hOcxWnd, m_eChartMode).GetChangeFormat_NumCharUnit(strFormat);

  0004b	8d 45 0c	 lea	 eax, DWORD PTR $T3[ebp]
  0004e	56		 push	 esi
; File D:\git\src\IBK\IBK_DRFN\ProjSrc\SrcChartEx\ChartOCX\Include_Chart\Conversion.h

; 27   : 		{	m_hOcxWnd = p_hOcxWnd;	m_eChartMode = p_eChartMode;	}

  0004f	89 4d f0	 mov	 DWORD PTR $T2[ebp+4], ecx
; File D:\git\src\IBK\IBK_DRFN\ProjSrc\SrcChartEx\ChartOCX\ChartObject\DrawingRegionCalculator.cpp

; 731  : 		strTemp = CDataConversion( m_hOcxWnd, m_eChartMode).GetChangeFormat_NumCharUnit(strFormat);

  00052	8d 4d ec	 lea	 ecx, DWORD PTR $T2[ebp]
  00055	50		 push	 eax
  00056	e8 00 00 00 00	 call	 ?GetChangeFormat_NumCharUnit@CDataConversion@@QAE?AV?$CStringT@DV?$StrTraitMFC_DLL@DV?$ChTraitsCRT@D@ATL@@@@@ATL@@ABV23@@Z ; CDataConversion::GetChangeFormat_NumCharUnit
  0005b	50		 push	 eax
  0005c	8d 4d 08	 lea	 ecx, DWORD PTR _strTemp$[ebp]
  0005f	c6 45 fc 01	 mov	 BYTE PTR __$EHRec$[ebp+8], 1
  00063	ff 15 00 00 00
	00		 call	 DWORD PTR __imp_??4?$CStringT@DV?$StrTraitMFC_DLL@DV?$ChTraitsCRT@D@ATL@@@@@ATL@@QAEAAV01@ABV01@@Z
  00069	8d 4d 0c	 lea	 ecx, DWORD PTR $T3[ebp]
  0006c	ff 15 00 00 00
	00		 call	 DWORD PTR __imp_??1?$CStringT@DV?$StrTraitMFC_DLL@DV?$ChTraitsCRT@D@ATL@@@@@ATL@@QAE@XZ
$LN2@GetFormatL:
; File C:\Program Files (x86)\Microsoft Visual Studio\2019\Community\VC\Tools\MSVC\14.29.30133\atlmfc\include\atlsimpstr.h

; 519  : 		return( GetData()->nDataLength );

  00072	8b 45 08	 mov	 eax, DWORD PTR _strTemp$[ebp]
; File D:\git\src\IBK\IBK_DRFN\ProjSrc\SrcChartEx\ChartOCX\ChartObject\DrawingRegionCalculator.cpp

; 734  : 	if(strTemp.Find(".") != -1)	

  00075	8d 4d 08	 lea	 ecx, DWORD PTR _strTemp$[ebp]
  00078	6a 00		 push	 0
  0007a	68 00 00 00 00	 push	 OFFSET ??_C@_01LFCBOECM@?4@
; File C:\Program Files (x86)\Microsoft Visual Studio\2019\Community\VC\Tools\MSVC\14.29.30133\atlmfc\include\atlsimpstr.h

; 519  : 		return( GetData()->nDataLength );

  0007f	8b 70 f4	 mov	 esi, DWORD PTR [eax-12]
; File D:\git\src\IBK\IBK_DRFN\ProjSrc\SrcChartEx\ChartOCX\ChartObject\DrawingRegionCalculator.cpp

; 734  : 	if(strTemp.Find(".") != -1)	

  00082	ff 15 00 00 00
	00		 call	 DWORD PTR __imp_?Find@?$CStringT@DV?$StrTraitMFC_DLL@DV?$ChTraitsCRT@D@ATL@@@@@ATL@@QBEHPBDH@Z
  00088	33 c9		 xor	 ecx, ecx
  0008a	83 f8 ff	 cmp	 eax, -1
  0008d	0f 45 f1	 cmovne	 esi, ecx

; 735  : 		nFormatLength = 0;
; 736  : 
; 737  : 	return nFormatLength;

  00090	8d 4d 08	 lea	 ecx, DWORD PTR _strTemp$[ebp]
  00093	ff 15 00 00 00
	00		 call	 DWORD PTR __imp_??1?$CStringT@DV?$StrTraitMFC_DLL@DV?$ChTraitsCRT@D@ATL@@@@@ATL@@QAE@XZ
  00099	8b c6		 mov	 eax, esi

; 738  : }

  0009b	8b 4d f4	 mov	 ecx, DWORD PTR __$EHRec$[ebp]
  0009e	64 89 0d 00 00
	00 00		 mov	 DWORD PTR fs:0, ecx
  000a5	59		 pop	 ecx
  000a6	5f		 pop	 edi
  000a7	5e		 pop	 esi
  000a8	8b e5		 mov	 esp, ebp
  000aa	5d		 pop	 ebp
  000ab	c2 08 00	 ret	 8
_TEXT	ENDS
;	COMDAT text$x
text$x	SEGMENT
__unwindfunclet$?GetFormatLength@CTextSizeCalculator@@ABEHABV?$CStringT@DV?$StrTraitMFC_DLL@DV?$ChTraitsCRT@D@ATL@@@@@ATL@@W4VERTSCALEUNITTYPE@CScaleBaseData@@@Z$0:
  00000	8d 4d 08	 lea	 ecx, DWORD PTR _strTemp$[ebp]
  00003	ff 25 00 00 00
	00		 jmp	 DWORD PTR __imp_??1?$CStringT@DV?$StrTraitMFC_DLL@DV?$ChTraitsCRT@D@ATL@@@@@ATL@@QAE@XZ
__unwindfunclet$?GetFormatLength@CTextSizeCalculator@@ABEHABV?$CStringT@DV?$StrTraitMFC_DLL@DV?$ChTraitsCRT@D@ATL@@@@@ATL@@W4VERTSCALEUNITTYPE@CScaleBaseData@@@Z$1:
  00009	8d 4d 0c	 lea	 ecx, DWORD PTR $T3[ebp]
  0000c	ff 25 00 00 00
	00		 jmp	 DWORD PTR __imp_??1?$CStringT@DV?$StrTraitMFC_DLL@DV?$ChTraitsCRT@D@ATL@@@@@ATL@@QAE@XZ
  00012	cc		 int	 3
  00013	cc		 int	 3
  00014	cc		 int	 3
  00015	cc		 int	 3
  00016	cc		 int	 3
__ehhandler$?GetFormatLength@CTextSizeCalculator@@ABEHABV?$CStringT@DV?$StrTraitMFC_DLL@DV?$ChTraitsCRT@D@ATL@@@@@ATL@@W4VERTSCALEUNITTYPE@CScaleBaseData@@@Z:
  00017	90		 npad	 1
  00018	90		 npad	 1
  00019	8b 54 24 08	 mov	 edx, DWORD PTR [esp+8]
  0001d	8d 42 0c	 lea	 eax, DWORD PTR [edx+12]
  00020	8b 4a ec	 mov	 ecx, DWORD PTR [edx-20]
  00023	33 c8		 xor	 ecx, eax
  00025	e8 00 00 00 00	 call	 @__security_check_cookie@4
  0002a	b8 00 00 00 00	 mov	 eax, OFFSET __ehfuncinfo$?GetFormatLength@CTextSizeCalculator@@ABEHABV?$CStringT@DV?$StrTraitMFC_DLL@DV?$ChTraitsCRT@D@ATL@@@@@ATL@@W4VERTSCALEUNITTYPE@CScaleBaseData@@@Z
  0002f	e9 00 00 00 00	 jmp	 ___CxxFrameHandler3
text$x	ENDS
?GetFormatLength@CTextSizeCalculator@@ABEHABV?$CStringT@DV?$StrTraitMFC_DLL@DV?$ChTraitsCRT@D@ATL@@@@@ATL@@W4VERTSCALEUNITTYPE@CScaleBaseData@@@Z ENDP ; CTextSizeCalculator::GetFormatLength
; Function compile flags: /Ogtp
; File D:\git\src\IBK\IBK_DRFN\ProjSrc\SrcChartEx\ChartOCX\ChartObject\DrawingRegionCalculator.cpp
;	COMDAT ?GetDataLength@CTextSizeCalculator@@ABEHABV?$CStringT@DV?$StrTraitMFC_DLL@DV?$ChTraitsCRT@D@ATL@@@@@ATL@@@Z
_TEXT	SEGMENT
_strData$ = 8						; size = 4
?GetDataLength@CTextSizeCalculator@@ABEHABV?$CStringT@DV?$StrTraitMFC_DLL@DV?$ChTraitsCRT@D@ATL@@@@@ATL@@@Z PROC ; CTextSizeCalculator::GetDataLength, COMDAT
; _this$ = ecx

; 693  : {

  00000	55		 push	 ebp
  00001	8b ec		 mov	 ebp, esp

; 694  : 	//      .
; 695  : 	return strData.GetLength();

  00003	8b 45 08	 mov	 eax, DWORD PTR _strData$[ebp]
  00006	8b 00		 mov	 eax, DWORD PTR [eax]
  00008	8b 40 f4	 mov	 eax, DWORD PTR [eax-12]

; 696  : 
; 697  : 	// 000.00    .00  
; 698  : 	// 0,000.00  0,000    -> CScaleDrawer
; 699  : 	if(strData.Find(".") == -1)
; 700  : 		return strData.GetLength();
; 701  : 
; 702  : 	int nNumLength = strData.GetLength();
; 703  : 	CString strTemp = strData;
; 704  : 	strTemp.TrimLeft('-');
; 705  : 	if(strTemp.GetLength() > 7){
; 706  : 		strTemp = strData.Left(strData.Find("."));
; 707  : 		nNumLength = strTemp.GetLength();
; 708  : 	}
; 709  : 	return nNumLength;
; 710  : }

  0000b	5d		 pop	 ebp
  0000c	c2 04 00	 ret	 4
?GetDataLength@CTextSizeCalculator@@ABEHABV?$CStringT@DV?$StrTraitMFC_DLL@DV?$ChTraitsCRT@D@ATL@@@@@ATL@@@Z ENDP ; CTextSizeCalculator::GetDataLength
_TEXT	ENDS
; Function compile flags: /Ogtp
; File D:\git\src\IBK\IBK_DRFN\ProjSrc\SrcChartEx\ChartOCX\ChartObject\DrawingRegionCalculator.cpp
; File D:\git\src\IBK\IBK_DRFN\ProjSrc\SrcChartEx\ChartOCX\Include_Chart\Conversion.h
; File D:\git\src\IBK\IBK_DRFN\ProjSrc\SrcChartEx\ChartOCX\ChartObject\DrawingRegionCalculator.cpp
; File D:\git\src\IBK\IBK_DRFN\ProjSrc\SrcChartEx\ChartOCX\Include_Chart\Conversion.h
; File D:\git\src\IBK\IBK_DRFN\ProjSrc\SrcChartEx\ChartOCX\ChartObject\DrawingRegionCalculator.cpp
; File D:\git\src\IBK\IBK_DRFN\ProjSrc\SrcChartEx\ChartOCX\Include_Chart\Conversion.h
; File D:\git\src\IBK\IBK_DRFN\ProjSrc\SrcChartEx\ChartOCX\ChartObject\DrawingRegionCalculator.cpp
; File C:\Program Files (x86)\Microsoft Visual Studio\2019\Community\VC\Tools\MSVC\14.29.30133\atlmfc\include\atlsimpstr.h
; File D:\git\src\IBK\IBK_DRFN\ProjSrc\SrcChartEx\ChartOCX\ChartObject\DrawingRegionCalculator.cpp
; File C:\Program Files (x86)\Microsoft Visual Studio\2019\Community\VC\Tools\MSVC\14.29.30133\atlmfc\include\atlsimpstr.h
; File D:\git\src\IBK\IBK_DRFN\ProjSrc\SrcChartEx\ChartOCX\ChartObject\DrawingRegionCalculator.cpp
; File C:\Program Files (x86)\Microsoft Visual Studio\2019\Community\VC\Tools\MSVC\14.29.30133\atlmfc\include\atlsimpstr.h
; File D:\git\src\IBK\IBK_DRFN\ProjSrc\SrcChartEx\ChartOCX\ChartObject\DrawingRegionCalculator.cpp
;	COMDAT ?GetDrawingData_Number_WithMinMax@CTextSizeCalculator@@ABE_NPAVCPacket@@ABVCDisplayAttributes@@AAV?$CStringT@DV?$StrTraitMFC_DLL@DV?$ChTraitsCRT@D@ATL@@@@@ATL@@2ABVCDisplayDataMinMax@@@Z
_TEXT	SEGMENT
_dMaxLengthData$ = -52					; size = 8
_dMin$ = -44						; size = 8
_dMax$ = -36						; size = 8
$T2 = -28						; size = 8
_bAutoScaleType$1$ = -20				; size = 4
$T3 = -16						; size = 4
__$EHRec$ = -12						; size = 12
_pPacket$ = 8						; size = 4
_displayAttributes$ = 12				; size = 4
$T4 = 16						; size = 4
_strData$ = 16						; size = 4
$T5 = 20						; size = 4
_strFormatTrans$ = 20					; size = 4
_dataType$ = 24						; size = 4
_p_displaySubGraphMinMax$ = 24				; size = 4
?GetDrawingData_Number_WithMinMax@CTextSizeCalculator@@ABE_NPAVCPacket@@ABVCDisplayAttributes@@AAV?$CStringT@DV?$StrTraitMFC_DLL@DV?$ChTraitsCRT@D@ATL@@@@@ATL@@2ABVCDisplayDataMinMax@@@Z PROC ; CTextSizeCalculator::GetDrawingData_Number_WithMinMax, COMDAT
; _this$ = ecx

; 660  : {

  00000	55		 push	 ebp
  00001	8b ec		 mov	 ebp, esp
  00003	6a ff		 push	 -1
  00005	68 00 00 00 00	 push	 __ehhandler$?GetDrawingData_Number_WithMinMax@CTextSizeCalculator@@ABE_NPAVCPacket@@ABVCDisplayAttributes@@AAV?$CStringT@DV?$StrTraitMFC_DLL@DV?$ChTraitsCRT@D@ATL@@@@@ATL@@2ABVCDisplayDataMinMax@@@Z
  0000a	64 a1 00 00 00
	00		 mov	 eax, DWORD PTR fs:0
  00010	50		 push	 eax
  00011	83 ec 28	 sub	 esp, 40			; 00000028H
  00014	53		 push	 ebx
  00015	56		 push	 esi
  00016	57		 push	 edi
  00017	a1 00 00 00 00	 mov	 eax, DWORD PTR ___security_cookie
  0001c	33 c5		 xor	 eax, ebp
  0001e	50		 push	 eax
  0001f	8d 45 f4	 lea	 eax, DWORD PTR __$EHRec$[ebp]
  00022	64 a3 00 00 00
	00		 mov	 DWORD PTR fs:0, eax
  00028	8b f9		 mov	 edi, ecx
  0002a	c7 45 f0 00 00
	00 00		 mov	 DWORD PTR $T3[ebp], 0

; 661  : 	double dMin = 0, dMax = 0;
; 662  : 	// (2009/1/17 - Seung-Won, Bae) Support Min/Max cache. Do not make Min/Max every time of updating data.
; 663  : 	//		It is initialized in CSubGraph::GetDisplayDataMinMax() for CMainBlockImp::CalculateDataForDrawing().
; 664  : 	//	if(!GetPacketMinMax(pPacket, displayAttributes, dMin, dMax))
; 665  : 	//		return 0;
; 666  : 	dMax = p_displaySubGraphMinMax.GetDisplayMax();

  00031	8b 75 18	 mov	 esi, DWORD PTR _p_displaySubGraphMinMax$[ebp]
  00034	8b ce		 mov	 ecx, esi
  00036	ff 15 00 00 00
	00		 call	 DWORD PTR __imp_?GetDisplayMax@CDisplayDataMinMax@@QBENXZ
  0003c	dd 5d dc	 fstp	 QWORD PTR _dMax$[ebp]

; 667  : 	dMin = p_displaySubGraphMinMax.GetDisplayMin();

  0003f	8b ce		 mov	 ecx, esi
  00041	ff 15 00 00 00
	00		 call	 DWORD PTR __imp_?GetDisplayMin@CDisplayDataMinMax@@QBENXZ

; 668  : 
; 669  : 	CString dataType = pPacket->GetType(false);

  00047	8b 5d 08	 mov	 ebx, DWORD PTR _pPacket$[ebp]
  0004a	8d 45 18	 lea	 eax, DWORD PTR _dataType$[ebp]
  0004d	6a 00		 push	 0
  0004f	50		 push	 eax
  00050	8b cb		 mov	 ecx, ebx
  00052	dd 5d d4	 fstp	 QWORD PTR _dMin$[ebp]
  00055	ff 15 00 00 00
	00		 call	 DWORD PTR __imp_?GetType@CPacket@@QAE?AV?$CStringT@DV?$StrTraitMFC_DLL@DV?$ChTraitsCRT@D@ATL@@@@@ATL@@_N@Z

; 670  : 	double dMaxLengthData = CDataConversion::GetLongLengthData(dMin, dMax, dataType);

  0005b	8d 45 18	 lea	 eax, DWORD PTR _dataType$[ebp]
  0005e	c7 45 fc 00 00
	00 00		 mov	 DWORD PTR __$EHRec$[ebp+8], 0
  00065	50		 push	 eax
  00066	8d 45 dc	 lea	 eax, DWORD PTR _dMax$[ebp]
  00069	50		 push	 eax
  0006a	8d 45 d4	 lea	 eax, DWORD PTR _dMin$[ebp]
  0006d	50		 push	 eax
  0006e	e8 00 00 00 00	 call	 ?GetLongLengthData@CDataConversion@@SANABN0ABV?$CStringT@DV?$StrTraitMFC_DLL@DV?$ChTraitsCRT@D@ATL@@@@@ATL@@@Z ; CDataConversion::GetLongLengthData
  00073	83 c4 0c	 add	 esp, 12			; 0000000cH

; 671  : 	BOOL bAutoScaleType = pPacket->IsAutoScaleType();

  00076	8b cb		 mov	 ecx, ebx
  00078	dd 5d cc	 fstp	 QWORD PTR _dMaxLengthData$[ebp]
  0007b	ff 15 00 00 00
	00		 call	 DWORD PTR __imp_?IsAutoScaleType@CPacket@@QAEHXZ
; File D:\git\src\IBK\IBK_DRFN\ProjSrc\SrcChartEx\ChartOCX\Include_Chart\Conversion.h

; 27   : 		{	m_hOcxWnd = p_hOcxWnd;	m_eChartMode = p_eChartMode;	}

  00081	8b 0f		 mov	 ecx, DWORD PTR [edi]
; File D:\git\src\IBK\IBK_DRFN\ProjSrc\SrcChartEx\ChartOCX\ChartObject\DrawingRegionCalculator.cpp

; 672  : 	CDataConversion( m_hOcxWnd, m_eChartMode).GetStringFormatTransCutoff(dMaxLengthData, dataType, strData, strFormatTrans, bAutoScaleType);

  00083	8b 57 04	 mov	 edx, DWORD PTR [edi+4]
  00086	8b 75 14	 mov	 esi, DWORD PTR _strFormatTrans$[ebp]
  00089	8b 7d 10	 mov	 edi, DWORD PTR _strData$[ebp]
  0008c	50		 push	 eax
  0008d	56		 push	 esi
  0008e	89 45 ec	 mov	 DWORD PTR _bAutoScaleType$1$[ebp], eax
  00091	8d 45 18	 lea	 eax, DWORD PTR _dataType$[ebp]
  00094	57		 push	 edi
  00095	50		 push	 eax
  00096	8d 45 cc	 lea	 eax, DWORD PTR _dMaxLengthData$[ebp]
; File D:\git\src\IBK\IBK_DRFN\ProjSrc\SrcChartEx\ChartOCX\Include_Chart\Conversion.h

; 27   : 		{	m_hOcxWnd = p_hOcxWnd;	m_eChartMode = p_eChartMode;	}

  00099	89 4d e4	 mov	 DWORD PTR $T2[ebp], ecx
; File D:\git\src\IBK\IBK_DRFN\ProjSrc\SrcChartEx\ChartOCX\ChartObject\DrawingRegionCalculator.cpp

; 672  : 	CDataConversion( m_hOcxWnd, m_eChartMode).GetStringFormatTransCutoff(dMaxLengthData, dataType, strData, strFormatTrans, bAutoScaleType);

  0009c	50		 push	 eax
  0009d	8d 4d e4	 lea	 ecx, DWORD PTR $T2[ebp]
; File D:\git\src\IBK\IBK_DRFN\ProjSrc\SrcChartEx\ChartOCX\Include_Chart\Conversion.h

; 27   : 		{	m_hOcxWnd = p_hOcxWnd;	m_eChartMode = p_eChartMode;	}

  000a0	89 55 e8	 mov	 DWORD PTR $T2[ebp+4], edx
; File D:\git\src\IBK\IBK_DRFN\ProjSrc\SrcChartEx\ChartOCX\ChartObject\DrawingRegionCalculator.cpp

; 672  : 	CDataConversion( m_hOcxWnd, m_eChartMode).GetStringFormatTransCutoff(dMaxLengthData, dataType, strData, strFormatTrans, bAutoScaleType);

  000a3	e8 00 00 00 00	 call	 ?GetStringFormatTransCutoff@CDataConversion@@QAEHABNABV?$CStringT@DV?$StrTraitMFC_DLL@DV?$ChTraitsCRT@D@ATL@@@@@ATL@@AAV23@2H@Z ; CDataConversion::GetStringFormatTransCutoff
; File C:\Program Files (x86)\Microsoft Visual Studio\2019\Community\VC\Tools\MSVC\14.29.30133\atlmfc\include\atlsimpstr.h

; 519  : 		return( GetData()->nDataLength );

  000a8	8b 07		 mov	 eax, DWORD PTR [edi]

; 533  : 		return( GetLength() == 0 );

  000aa	83 78 f4 00	 cmp	 DWORD PTR [eax-12], 0
; File D:\git\src\IBK\IBK_DRFN\ProjSrc\SrcChartEx\ChartOCX\ChartObject\DrawingRegionCalculator.cpp

; 673  : 	if( strData.IsEmpty()) return 0;

  000ae	0f 84 83 00 00
	00		 je	 $LN38@GetDrawing

; 674  : 	strFormatTrans.Replace(" ", "");

  000b4	68 00 00 00 00	 push	 OFFSET ??_C@_00CNPNBAHC@@
  000b9	68 00 00 00 00	 push	 OFFSET ??_C@_01CLKCMJKC@?5@
  000be	8b ce		 mov	 ecx, esi
  000c0	ff 15 00 00 00
	00		 call	 DWORD PTR __imp_?Replace@?$CStringT@DV?$StrTraitMFC_DLL@DV?$ChTraitsCRT@D@ATL@@@@@ATL@@QAEHPBD0@Z

; 675  : 
; 676  : 	pPacket->SetScaleType( bAutoScaleType ? strFormatTrans : pPacket->GetType());

  000c6	83 7d ec 00	 cmp	 DWORD PTR _bAutoScaleType$1$[ebp], 0
  000ca	74 15		 je	 SHORT $LN4@GetDrawing
  000cc	56		 push	 esi
  000cd	8d 4d 10	 lea	 ecx, DWORD PTR $T4[ebp]
  000d0	ff 15 00 00 00
	00		 call	 DWORD PTR __imp_??0?$CStringT@DV?$StrTraitMFC_DLL@DV?$ChTraitsCRT@D@ATL@@@@@ATL@@QAE@ABV01@@Z
  000d6	c6 45 fc 01	 mov	 BYTE PTR __$EHRec$[ebp+8], 1
  000da	bb 01 00 00 00	 mov	 ebx, 1
  000df	eb 1a		 jmp	 SHORT $LN37@GetDrawing
$LN4@GetDrawing:
  000e1	6a 01		 push	 1
  000e3	8d 45 14	 lea	 eax, DWORD PTR $T5[ebp]
  000e6	8b cb		 mov	 ecx, ebx
  000e8	50		 push	 eax
  000e9	ff 15 00 00 00
	00		 call	 DWORD PTR __imp_?GetType@CPacket@@QAE?AV?$CStringT@DV?$StrTraitMFC_DLL@DV?$ChTraitsCRT@D@ATL@@@@@ATL@@_N@Z
  000ef	c7 45 fc 02 00
	00 00		 mov	 DWORD PTR __$EHRec$[ebp+8], 2
  000f6	bb 02 00 00 00	 mov	 ebx, 2
$LN37@GetDrawing:
  000fb	8b 4d 08	 mov	 ecx, DWORD PTR _pPacket$[ebp]
  000fe	50		 push	 eax
  000ff	89 5d f0	 mov	 DWORD PTR $T3[ebp], ebx
  00102	ff 15 00 00 00
	00		 call	 DWORD PTR __imp_?SetScaleType@CPacket@@QAEXABV?$CStringT@DV?$StrTraitMFC_DLL@DV?$ChTraitsCRT@D@ATL@@@@@ATL@@@Z
  00108	f6 c3 02	 test	 bl, 2
  0010b	74 0c		 je	 SHORT $LN13@GetDrawing
  0010d	8d 4d 14	 lea	 ecx, DWORD PTR $T5[ebp]
  00110	83 e3 fd	 and	 ebx, -3			; fffffffdH
  00113	ff 15 00 00 00
	00		 call	 DWORD PTR __imp_??1?$CStringT@DV?$StrTraitMFC_DLL@DV?$ChTraitsCRT@D@ATL@@@@@ATL@@QAE@XZ
$LN13@GetDrawing:
  00119	f6 c3 01	 test	 bl, 1
  0011c	74 09		 je	 SHORT $LN14@GetDrawing
  0011e	8d 4d 10	 lea	 ecx, DWORD PTR $T4[ebp]
  00121	ff 15 00 00 00
	00		 call	 DWORD PTR __imp_??1?$CStringT@DV?$StrTraitMFC_DLL@DV?$ChTraitsCRT@D@ATL@@@@@ATL@@QAE@XZ
$LN14@GetDrawing:
; File C:\Program Files (x86)\Microsoft Visual Studio\2019\Community\VC\Tools\MSVC\14.29.30133\atlmfc\include\atlsimpstr.h

; 533  : 		return( GetLength() == 0 );

  00127	8b 07		 mov	 eax, DWORD PTR [edi]
  00129	83 78 f4 00	 cmp	 DWORD PTR [eax-12], 0
; File D:\git\src\IBK\IBK_DRFN\ProjSrc\SrcChartEx\ChartOCX\ChartObject\DrawingRegionCalculator.cpp

; 677  : 	return (!strData.IsEmpty() || !strFormatTrans.IsEmpty());

  0012d	75 0c		 jne	 SHORT $LN6@GetDrawing
; File C:\Program Files (x86)\Microsoft Visual Studio\2019\Community\VC\Tools\MSVC\14.29.30133\atlmfc\include\atlsimpstr.h

; 533  : 		return( GetLength() == 0 );

  0012f	8b 06		 mov	 eax, DWORD PTR [esi]
  00131	83 78 f4 00	 cmp	 DWORD PTR [eax-12], 0
; File D:\git\src\IBK\IBK_DRFN\ProjSrc\SrcChartEx\ChartOCX\ChartObject\DrawingRegionCalculator.cpp

; 677  : 	return (!strData.IsEmpty() || !strFormatTrans.IsEmpty());

  00135	75 04		 jne	 SHORT $LN6@GetDrawing
$LN38@GetDrawing:
  00137	32 db		 xor	 bl, bl
  00139	eb 02		 jmp	 SHORT $LN7@GetDrawing
$LN6@GetDrawing:
  0013b	b3 01		 mov	 bl, 1
$LN7@GetDrawing:
  0013d	8d 4d 18	 lea	 ecx, DWORD PTR _dataType$[ebp]
  00140	ff 15 00 00 00
	00		 call	 DWORD PTR __imp_??1?$CStringT@DV?$StrTraitMFC_DLL@DV?$ChTraitsCRT@D@ATL@@@@@ATL@@QAE@XZ
  00146	8a c3		 mov	 al, bl

; 678  : }

  00148	8b 4d f4	 mov	 ecx, DWORD PTR __$EHRec$[ebp]
  0014b	64 89 0d 00 00
	00 00		 mov	 DWORD PTR fs:0, ecx
  00152	59		 pop	 ecx
  00153	5f		 pop	 edi
  00154	5e		 pop	 esi
  00155	5b		 pop	 ebx
  00156	8b e5		 mov	 esp, ebp
  00158	5d		 pop	 ebp
  00159	c2 14 00	 ret	 20			; 00000014H
_TEXT	ENDS
;	COMDAT text$x
text$x	SEGMENT
__unwindfunclet$?GetDrawingData_Number_WithMinMax@CTextSizeCalculator@@ABE_NPAVCPacket@@ABVCDisplayAttributes@@AAV?$CStringT@DV?$StrTraitMFC_DLL@DV?$ChTraitsCRT@D@ATL@@@@@ATL@@2ABVCDisplayDataMinMax@@@Z$0:
  00000	8d 4d 18	 lea	 ecx, DWORD PTR _dataType$[ebp]
  00003	ff 25 00 00 00
	00		 jmp	 DWORD PTR __imp_??1?$CStringT@DV?$StrTraitMFC_DLL@DV?$ChTraitsCRT@D@ATL@@@@@ATL@@QAE@XZ
__unwindfunclet$?GetDrawingData_Number_WithMinMax@CTextSizeCalculator@@ABE_NPAVCPacket@@ABVCDisplayAttributes@@AAV?$CStringT@DV?$StrTraitMFC_DLL@DV?$ChTraitsCRT@D@ATL@@@@@ATL@@2ABVCDisplayDataMinMax@@@Z$1:
  00009	8b 45 f0	 mov	 eax, DWORD PTR $T3[ebp]
  0000c	83 e0 01	 and	 eax, 1
  0000f	0f 84 0d 00 00
	00		 je	 $LN10@GetDrawing
  00015	83 65 f0 fe	 and	 DWORD PTR $T3[ebp], -2	; fffffffeH
  00019	8d 4d 10	 lea	 ecx, DWORD PTR $T4[ebp]
  0001c	ff 25 00 00 00
	00		 jmp	 DWORD PTR __imp_??1?$CStringT@DV?$StrTraitMFC_DLL@DV?$ChTraitsCRT@D@ATL@@@@@ATL@@QAE@XZ
$LN10@GetDrawing:
  00022	c3		 ret	 0
__unwindfunclet$?GetDrawingData_Number_WithMinMax@CTextSizeCalculator@@ABE_NPAVCPacket@@ABVCDisplayAttributes@@AAV?$CStringT@DV?$StrTraitMFC_DLL@DV?$ChTraitsCRT@D@ATL@@@@@ATL@@2ABVCDisplayDataMinMax@@@Z$2:
  00023	8b 45 f0	 mov	 eax, DWORD PTR $T3[ebp]
  00026	83 e0 02	 and	 eax, 2
  00029	0f 84 0d 00 00
	00		 je	 $LN12@GetDrawing
  0002f	83 65 f0 fd	 and	 DWORD PTR $T3[ebp], -3	; fffffffdH
  00033	8d 4d 14	 lea	 ecx, DWORD PTR $T5[ebp]
  00036	ff 25 00 00 00
	00		 jmp	 DWORD PTR __imp_??1?$CStringT@DV?$StrTraitMFC_DLL@DV?$ChTraitsCRT@D@ATL@@@@@ATL@@QAE@XZ
$LN12@GetDrawing:
  0003c	c3		 ret	 0
  0003d	cc		 int	 3
  0003e	cc		 int	 3
  0003f	cc		 int	 3
  00040	cc		 int	 3
  00041	cc		 int	 3
__ehhandler$?GetDrawingData_Number_WithMinMax@CTextSizeCalculator@@ABE_NPAVCPacket@@ABVCDisplayAttributes@@AAV?$CStringT@DV?$StrTraitMFC_DLL@DV?$ChTraitsCRT@D@ATL@@@@@ATL@@2ABVCDisplayDataMinMax@@@Z:
  00042	90		 npad	 1
  00043	90		 npad	 1
  00044	8b 54 24 08	 mov	 edx, DWORD PTR [esp+8]
  00048	8d 42 0c	 lea	 eax, DWORD PTR [edx+12]
  0004b	8b 4a c8	 mov	 ecx, DWORD PTR [edx-56]
  0004e	33 c8		 xor	 ecx, eax
  00050	e8 00 00 00 00	 call	 @__security_check_cookie@4
  00055	b8 00 00 00 00	 mov	 eax, OFFSET __ehfuncinfo$?GetDrawingData_Number_WithMinMax@CTextSizeCalculator@@ABE_NPAVCPacket@@ABVCDisplayAttributes@@AAV?$CStringT@DV?$StrTraitMFC_DLL@DV?$ChTraitsCRT@D@ATL@@@@@ATL@@2ABVCDisplayDataMinMax@@@Z
  0005a	e9 00 00 00 00	 jmp	 ___CxxFrameHandler3
text$x	ENDS
?GetDrawingData_Number_WithMinMax@CTextSizeCalculator@@ABE_NPAVCPacket@@ABVCDisplayAttributes@@AAV?$CStringT@DV?$StrTraitMFC_DLL@DV?$ChTraitsCRT@D@ATL@@@@@ATL@@2ABVCDisplayDataMinMax@@@Z ENDP ; CTextSizeCalculator::GetDrawingData_Number_WithMinMax
; Function compile flags: /Ogtp
; File D:\git\src\IBK\IBK_DRFN\ProjSrc\SrcChartEx\ChartOCX\ChartObject\DrawingRegionCalculator.cpp
; File D:\git\src\IBK\IBK_DRFN\ProjSrc\SrcChartEx\ChartOCX\Include_Chart\Conversion.h
; File D:\git\src\IBK\IBK_DRFN\ProjSrc\SrcChartEx\ChartOCX\ChartObject\DrawingRegionCalculator.cpp
; File D:\git\src\IBK\IBK_DRFN\ProjSrc\SrcChartEx\ChartOCX\Include_Chart\Conversion.h
; File D:\git\src\IBK\IBK_DRFN\ProjSrc\SrcChartEx\ChartOCX\ChartObject\DrawingRegionCalculator.cpp
; File D:\git\src\IBK\IBK_DRFN\ProjSrc\SrcChartEx\ChartOCX\Include_Chart\Conversion.h
; File D:\git\src\IBK\IBK_DRFN\ProjSrc\SrcChartEx\ChartOCX\ChartObject\DrawingRegionCalculator.cpp
; File C:\Program Files (x86)\Microsoft Visual Studio\2019\Community\VC\Tools\MSVC\14.29.30133\atlmfc\include\atlsimpstr.h
; File D:\git\src\IBK\IBK_DRFN\ProjSrc\SrcChartEx\ChartOCX\ChartObject\DrawingRegionCalculator.cpp
; File C:\Program Files (x86)\Microsoft Visual Studio\2019\Community\VC\Tools\MSVC\14.29.30133\atlmfc\include\atlsimpstr.h
; File D:\git\src\IBK\IBK_DRFN\ProjSrc\SrcChartEx\ChartOCX\ChartObject\DrawingRegionCalculator.cpp
; File C:\Program Files (x86)\Microsoft Visual Studio\2019\Community\VC\Tools\MSVC\14.29.30133\atlmfc\include\atlsimpstr.h
; File D:\git\src\IBK\IBK_DRFN\ProjSrc\SrcChartEx\ChartOCX\ChartObject\DrawingRegionCalculator.cpp
;	COMDAT ?GetDrawingData_Number@CTextSizeCalculator@@ABE_NPAVCPacket@@ABVCDisplayAttributes@@AAV?$CStringT@DV?$StrTraitMFC_DLL@DV?$ChTraitsCRT@D@ATL@@@@@ATL@@2@Z
_TEXT	SEGMENT
_dMaxLengthData$ = -48					; size = 8
_dMin$ = -40						; size = 8
_dMax$ = -32						; size = 8
$T2 = -24						; size = 8
_this$1$ = -20						; size = 4
$T3 = -16						; size = 4
__$EHRec$ = -12						; size = 12
_dataType$ = 8						; size = 4
_pPacket$ = 8						; size = 4
_bAutoScaleType$1$ = 12					; size = 4
$T4 = 12						; size = 4
_displayAttributes$ = 12				; size = 4
_strData$ = 16						; size = 4
$T5 = 20						; size = 4
_strFormatTrans$ = 20					; size = 4
?GetDrawingData_Number@CTextSizeCalculator@@ABE_NPAVCPacket@@ABVCDisplayAttributes@@AAV?$CStringT@DV?$StrTraitMFC_DLL@DV?$ChTraitsCRT@D@ATL@@@@@ATL@@2@Z PROC ; CTextSizeCalculator::GetDrawingData_Number, COMDAT
; _this$ = ecx

; 642  : {

  00000	55		 push	 ebp
  00001	8b ec		 mov	 ebp, esp
  00003	6a ff		 push	 -1
  00005	68 00 00 00 00	 push	 __ehhandler$?GetDrawingData_Number@CTextSizeCalculator@@ABE_NPAVCPacket@@ABVCDisplayAttributes@@AAV?$CStringT@DV?$StrTraitMFC_DLL@DV?$ChTraitsCRT@D@ATL@@@@@ATL@@2@Z
  0000a	64 a1 00 00 00
	00		 mov	 eax, DWORD PTR fs:0
  00010	50		 push	 eax
  00011	83 ec 24	 sub	 esp, 36			; 00000024H
  00014	53		 push	 ebx
  00015	56		 push	 esi
  00016	57		 push	 edi
  00017	a1 00 00 00 00	 mov	 eax, DWORD PTR ___security_cookie
  0001c	33 c5		 xor	 eax, ebp
  0001e	50		 push	 eax
  0001f	8d 45 f4	 lea	 eax, DWORD PTR __$EHRec$[ebp]
  00022	64 a3 00 00 00
	00		 mov	 DWORD PTR fs:0, eax
  00028	89 4d ec	 mov	 DWORD PTR _this$1$[ebp], ecx
  0002b	c7 45 f0 00 00
	00 00		 mov	 DWORD PTR $T3[ebp], 0
  00032	0f 57 c0	 xorps	 xmm0, xmm0

; 481  : 	if(pPacket == NULL || pPacket->GetCount() <= 0)

  00035	8b 75 08	 mov	 esi, DWORD PTR _pPacket$[ebp]

; 643  : 	double dMin = 0, dMax = 0;

  00038	f2 0f 11 45 d8	 movsd	 QWORD PTR _dMin$[ebp], xmm0
  0003d	f2 0f 11 45 e0	 movsd	 QWORD PTR _dMax$[ebp], xmm0

; 481  : 	if(pPacket == NULL || pPacket->GetCount() <= 0)

  00042	85 f6		 test	 esi, esi
  00044	0f 84 86 01 00
	00		 je	 $LN19@GetDrawing
  0004a	8b 06		 mov	 eax, DWORD PTR [esi]
  0004c	8b ce		 mov	 ecx, esi
  0004e	ff 50 14	 call	 DWORD PTR [eax+20]
  00051	85 c0		 test	 eax, eax
  00053	0f 8e 77 01 00
	00		 jle	 $LN19@GetDrawing

; 482  : 		return false;
; 483  : 
; 484  : 	int nDataEndInBlock = pPacket->GetnumericDataList()->GetCount() -1;

  00059	8b ce		 mov	 ecx, esi
  0005b	ff 15 00 00 00
	00		 call	 DWORD PTR __imp_?GetnumericDataList@CPacket@@QAEPAV?$CList@NN@@XZ

; 485  : 	if(nDataEndInBlock > displayAttributes.GetDataEndInBlock())

  00061	8b 5d 0c	 mov	 ebx, DWORD PTR _displayAttributes$[ebp]
  00064	8b cb		 mov	 ecx, ebx
  00066	8b 78 0c	 mov	 edi, DWORD PTR [eax+12]
  00069	4f		 dec	 edi
  0006a	e8 00 00 00 00	 call	 ?GetDataEndInBlock@CDisplayAttributes@@QBEHXZ ; CDisplayAttributes::GetDataEndInBlock
  0006f	3b f8		 cmp	 edi, eax
  00071	7e 09		 jle	 SHORT $LN20@GetDrawing

; 486  : 		nDataEndInBlock = displayAttributes.GetDataEndInBlock();

  00073	8b cb		 mov	 ecx, ebx
  00075	e8 00 00 00 00	 call	 ?GetDataEndInBlock@CDisplayAttributes@@QBEHXZ ; CDisplayAttributes::GetDataEndInBlock
  0007a	8b f8		 mov	 edi, eax
$LN20@GetDrawing:

; 487  : 
; 488  : 	if(pPacket->GetMinMax(displayAttributes.GetDataStartInBlock(), nDataEndInBlock, dMin, dMax) < 0)

  0007c	6a 00		 push	 0
  0007e	8d 45 e0	 lea	 eax, DWORD PTR _dMax$[ebp]
  00081	8b cb		 mov	 ecx, ebx
  00083	50		 push	 eax
  00084	8d 45 d8	 lea	 eax, DWORD PTR _dMin$[ebp]
  00087	50		 push	 eax
  00088	57		 push	 edi
  00089	e8 00 00 00 00	 call	 ?GetDataStartInBlock@CDisplayAttributes@@QBEHXZ ; CDisplayAttributes::GetDataStartInBlock
  0008e	50		 push	 eax
  0008f	8b ce		 mov	 ecx, esi
  00091	ff 15 00 00 00
	00		 call	 DWORD PTR __imp_?GetMinMax@CPacket@@QAEHHHAAN0H@Z
  00097	85 c0		 test	 eax, eax
  00099	0f 88 31 01 00
	00		 js	 $LN19@GetDrawing

; 646  : 	
; 647  : 	CString dataType = pPacket->GetType(false);

  0009f	6a 00		 push	 0
  000a1	8d 45 08	 lea	 eax, DWORD PTR _dataType$[ebp]
  000a4	8b ce		 mov	 ecx, esi
  000a6	50		 push	 eax
  000a7	ff 15 00 00 00
	00		 call	 DWORD PTR __imp_?GetType@CPacket@@QAE?AV?$CStringT@DV?$StrTraitMFC_DLL@DV?$ChTraitsCRT@D@ATL@@@@@ATL@@_N@Z

; 648  : 	double dMaxLengthData = CDataConversion::GetLongLengthData(dMin, dMax, dataType);

  000ad	8d 45 08	 lea	 eax, DWORD PTR _dataType$[ebp]
  000b0	c7 45 fc 00 00
	00 00		 mov	 DWORD PTR __$EHRec$[ebp+8], 0
  000b7	50		 push	 eax
  000b8	8d 45 e0	 lea	 eax, DWORD PTR _dMax$[ebp]
  000bb	50		 push	 eax
  000bc	8d 45 d8	 lea	 eax, DWORD PTR _dMin$[ebp]
  000bf	50		 push	 eax
  000c0	e8 00 00 00 00	 call	 ?GetLongLengthData@CDataConversion@@SANABN0ABV?$CStringT@DV?$StrTraitMFC_DLL@DV?$ChTraitsCRT@D@ATL@@@@@ATL@@@Z ; CDataConversion::GetLongLengthData
  000c5	83 c4 0c	 add	 esp, 12			; 0000000cH

; 649  : 	BOOL bAutoScaleType = pPacket->IsAutoScaleType();

  000c8	8b ce		 mov	 ecx, esi
  000ca	dd 5d d0	 fstp	 QWORD PTR _dMaxLengthData$[ebp]
  000cd	ff 15 00 00 00
	00		 call	 DWORD PTR __imp_?IsAutoScaleType@CPacket@@QAEHXZ

; 650  : 	CDataConversion( m_hOcxWnd, m_eChartMode).GetStringFormatTransCutoff(dMaxLengthData, dataType, strData, strFormatTrans, bAutoScaleType);

  000d3	8b 4d ec	 mov	 ecx, DWORD PTR _this$1$[ebp]
  000d6	8b 7d 14	 mov	 edi, DWORD PTR _strFormatTrans$[ebp]
  000d9	8b 5d 10	 mov	 ebx, DWORD PTR _strData$[ebp]
  000dc	50		 push	 eax
  000dd	8b 51 04	 mov	 edx, DWORD PTR [ecx+4]
; File D:\git\src\IBK\IBK_DRFN\ProjSrc\SrcChartEx\ChartOCX\Include_Chart\Conversion.h

; 27   : 		{	m_hOcxWnd = p_hOcxWnd;	m_eChartMode = p_eChartMode;	}

  000e0	8b 09		 mov	 ecx, DWORD PTR [ecx]
; File D:\git\src\IBK\IBK_DRFN\ProjSrc\SrcChartEx\ChartOCX\ChartObject\DrawingRegionCalculator.cpp

; 650  : 	CDataConversion( m_hOcxWnd, m_eChartMode).GetStringFormatTransCutoff(dMaxLengthData, dataType, strData, strFormatTrans, bAutoScaleType);

  000e2	57		 push	 edi
  000e3	89 45 0c	 mov	 DWORD PTR _bAutoScaleType$1$[ebp], eax
  000e6	8d 45 08	 lea	 eax, DWORD PTR _dataType$[ebp]
  000e9	53		 push	 ebx
  000ea	50		 push	 eax
  000eb	8d 45 d0	 lea	 eax, DWORD PTR _dMaxLengthData$[ebp]
; File D:\git\src\IBK\IBK_DRFN\ProjSrc\SrcChartEx\ChartOCX\Include_Chart\Conversion.h

; 27   : 		{	m_hOcxWnd = p_hOcxWnd;	m_eChartMode = p_eChartMode;	}

  000ee	89 4d e8	 mov	 DWORD PTR $T2[ebp], ecx
; File D:\git\src\IBK\IBK_DRFN\ProjSrc\SrcChartEx\ChartOCX\ChartObject\DrawingRegionCalculator.cpp

; 650  : 	CDataConversion( m_hOcxWnd, m_eChartMode).GetStringFormatTransCutoff(dMaxLengthData, dataType, strData, strFormatTrans, bAutoScaleType);

  000f1	50		 push	 eax
  000f2	8d 4d e8	 lea	 ecx, DWORD PTR $T2[ebp]
; File D:\git\src\IBK\IBK_DRFN\ProjSrc\SrcChartEx\ChartOCX\Include_Chart\Conversion.h

; 27   : 		{	m_hOcxWnd = p_hOcxWnd;	m_eChartMode = p_eChartMode;	}

  000f5	89 55 ec	 mov	 DWORD PTR $T2[ebp+4], edx
; File D:\git\src\IBK\IBK_DRFN\ProjSrc\SrcChartEx\ChartOCX\ChartObject\DrawingRegionCalculator.cpp

; 650  : 	CDataConversion( m_hOcxWnd, m_eChartMode).GetStringFormatTransCutoff(dMaxLengthData, dataType, strData, strFormatTrans, bAutoScaleType);

  000f8	e8 00 00 00 00	 call	 ?GetStringFormatTransCutoff@CDataConversion@@QAEHABNABV?$CStringT@DV?$StrTraitMFC_DLL@DV?$ChTraitsCRT@D@ATL@@@@@ATL@@AAV23@2H@Z ; CDataConversion::GetStringFormatTransCutoff
; File C:\Program Files (x86)\Microsoft Visual Studio\2019\Community\VC\Tools\MSVC\14.29.30133\atlmfc\include\atlsimpstr.h

; 519  : 		return( GetData()->nDataLength );

  000fd	8b 03		 mov	 eax, DWORD PTR [ebx]

; 533  : 		return( GetLength() == 0 );

  000ff	83 78 f4 00	 cmp	 DWORD PTR [eax-12], 0
; File D:\git\src\IBK\IBK_DRFN\ProjSrc\SrcChartEx\ChartOCX\ChartObject\DrawingRegionCalculator.cpp

; 651  : 	if( strData.IsEmpty()) return 0;

  00103	0f 84 85 00 00
	00		 je	 $LN46@GetDrawing

; 652  : 	strFormatTrans.Replace(" ", "");

  00109	68 00 00 00 00	 push	 OFFSET ??_C@_00CNPNBAHC@@
  0010e	68 00 00 00 00	 push	 OFFSET ??_C@_01CLKCMJKC@?5@
  00113	8b cf		 mov	 ecx, edi
  00115	ff 15 00 00 00
	00		 call	 DWORD PTR __imp_?Replace@?$CStringT@DV?$StrTraitMFC_DLL@DV?$ChTraitsCRT@D@ATL@@@@@ATL@@QAEHPBD0@Z

; 653  : 
; 654  : 	pPacket->SetScaleType( bAutoScaleType ? strFormatTrans : pPacket->GetType());

  0011b	83 7d 0c 00	 cmp	 DWORD PTR _bAutoScaleType$1$[ebp], 0
  0011f	74 15		 je	 SHORT $LN5@GetDrawing
  00121	57		 push	 edi
  00122	8d 4d 14	 lea	 ecx, DWORD PTR $T5[ebp]
  00125	ff 15 00 00 00
	00		 call	 DWORD PTR __imp_??0?$CStringT@DV?$StrTraitMFC_DLL@DV?$ChTraitsCRT@D@ATL@@@@@ATL@@QAE@ABV01@@Z
  0012b	c6 45 fc 01	 mov	 BYTE PTR __$EHRec$[ebp+8], 1
  0012f	bb 01 00 00 00	 mov	 ebx, 1
  00134	eb 1a		 jmp	 SHORT $LN45@GetDrawing
$LN5@GetDrawing:
  00136	6a 01		 push	 1
  00138	8d 45 0c	 lea	 eax, DWORD PTR $T4[ebp]
  0013b	8b ce		 mov	 ecx, esi
  0013d	50		 push	 eax
  0013e	ff 15 00 00 00
	00		 call	 DWORD PTR __imp_?GetType@CPacket@@QAE?AV?$CStringT@DV?$StrTraitMFC_DLL@DV?$ChTraitsCRT@D@ATL@@@@@ATL@@_N@Z
  00144	c7 45 fc 02 00
	00 00		 mov	 DWORD PTR __$EHRec$[ebp+8], 2
  0014b	bb 02 00 00 00	 mov	 ebx, 2
$LN45@GetDrawing:
  00150	50		 push	 eax
  00151	8b ce		 mov	 ecx, esi
  00153	89 5d f0	 mov	 DWORD PTR $T3[ebp], ebx
  00156	ff 15 00 00 00
	00		 call	 DWORD PTR __imp_?SetScaleType@CPacket@@QAEXABV?$CStringT@DV?$StrTraitMFC_DLL@DV?$ChTraitsCRT@D@ATL@@@@@ATL@@@Z
  0015c	f6 c3 02	 test	 bl, 2
  0015f	74 0c		 je	 SHORT $LN14@GetDrawing
  00161	8d 4d 0c	 lea	 ecx, DWORD PTR $T4[ebp]
  00164	83 e3 fd	 and	 ebx, -3			; fffffffdH
  00167	ff 15 00 00 00
	00		 call	 DWORD PTR __imp_??1?$CStringT@DV?$StrTraitMFC_DLL@DV?$ChTraitsCRT@D@ATL@@@@@ATL@@QAE@XZ
$LN14@GetDrawing:
  0016d	f6 c3 01	 test	 bl, 1
  00170	74 09		 je	 SHORT $LN15@GetDrawing
  00172	8d 4d 14	 lea	 ecx, DWORD PTR $T5[ebp]
  00175	ff 15 00 00 00
	00		 call	 DWORD PTR __imp_??1?$CStringT@DV?$StrTraitMFC_DLL@DV?$ChTraitsCRT@D@ATL@@@@@ATL@@QAE@XZ
$LN15@GetDrawing:
; File C:\Program Files (x86)\Microsoft Visual Studio\2019\Community\VC\Tools\MSVC\14.29.30133\atlmfc\include\atlsimpstr.h

; 533  : 		return( GetLength() == 0 );

  0017b	8b 45 10	 mov	 eax, DWORD PTR _strData$[ebp]
  0017e	8b 00		 mov	 eax, DWORD PTR [eax]
  00180	83 78 f4 00	 cmp	 DWORD PTR [eax-12], 0
; File D:\git\src\IBK\IBK_DRFN\ProjSrc\SrcChartEx\ChartOCX\ChartObject\DrawingRegionCalculator.cpp

; 655  : 	return (!strData.IsEmpty() || !strFormatTrans.IsEmpty());

  00184	75 29		 jne	 SHORT $LN7@GetDrawing
; File C:\Program Files (x86)\Microsoft Visual Studio\2019\Community\VC\Tools\MSVC\14.29.30133\atlmfc\include\atlsimpstr.h

; 533  : 		return( GetLength() == 0 );

  00186	8b 07		 mov	 eax, DWORD PTR [edi]
  00188	83 78 f4 00	 cmp	 DWORD PTR [eax-12], 0
; File D:\git\src\IBK\IBK_DRFN\ProjSrc\SrcChartEx\ChartOCX\ChartObject\DrawingRegionCalculator.cpp

; 655  : 	return (!strData.IsEmpty() || !strFormatTrans.IsEmpty());

  0018c	75 21		 jne	 SHORT $LN7@GetDrawing
$LN46@GetDrawing:
  0018e	8d 4d 08	 lea	 ecx, DWORD PTR _dataType$[ebp]
  00191	32 db		 xor	 bl, bl
  00193	ff 15 00 00 00
	00		 call	 DWORD PTR __imp_??1?$CStringT@DV?$StrTraitMFC_DLL@DV?$ChTraitsCRT@D@ATL@@@@@ATL@@QAE@XZ
  00199	8a c3		 mov	 al, bl

; 656  : }

  0019b	8b 4d f4	 mov	 ecx, DWORD PTR __$EHRec$[ebp]
  0019e	64 89 0d 00 00
	00 00		 mov	 DWORD PTR fs:0, ecx
  001a5	59		 pop	 ecx
  001a6	5f		 pop	 edi
  001a7	5e		 pop	 esi
  001a8	5b		 pop	 ebx
  001a9	8b e5		 mov	 esp, ebp
  001ab	5d		 pop	 ebp
  001ac	c2 10 00	 ret	 16			; 00000010H
$LN7@GetDrawing:

; 655  : 	return (!strData.IsEmpty() || !strFormatTrans.IsEmpty());

  001af	8d 4d 08	 lea	 ecx, DWORD PTR _dataType$[ebp]
  001b2	b3 01		 mov	 bl, 1
  001b4	ff 15 00 00 00
	00		 call	 DWORD PTR __imp_??1?$CStringT@DV?$StrTraitMFC_DLL@DV?$ChTraitsCRT@D@ATL@@@@@ATL@@QAE@XZ
  001ba	8a c3		 mov	 al, bl

; 656  : }

  001bc	8b 4d f4	 mov	 ecx, DWORD PTR __$EHRec$[ebp]
  001bf	64 89 0d 00 00
	00 00		 mov	 DWORD PTR fs:0, ecx
  001c6	59		 pop	 ecx
  001c7	5f		 pop	 edi
  001c8	5e		 pop	 esi
  001c9	5b		 pop	 ebx
  001ca	8b e5		 mov	 esp, ebp
  001cc	5d		 pop	 ebp
  001cd	c2 10 00	 ret	 16			; 00000010H
$LN19@GetDrawing:

; 644  : 	if(!GetPacketMinMax(pPacket, displayAttributes, dMin, dMax))
; 645  : 		return 0;

  001d0	32 c0		 xor	 al, al

; 656  : }

  001d2	8b 4d f4	 mov	 ecx, DWORD PTR __$EHRec$[ebp]
  001d5	64 89 0d 00 00
	00 00		 mov	 DWORD PTR fs:0, ecx
  001dc	59		 pop	 ecx
  001dd	5f		 pop	 edi
  001de	5e		 pop	 esi
  001df	5b		 pop	 ebx
  001e0	8b e5		 mov	 esp, ebp
  001e2	5d		 pop	 ebp
  001e3	c2 10 00	 ret	 16			; 00000010H
_TEXT	ENDS
;	COMDAT text$x
text$x	SEGMENT
__unwindfunclet$?GetDrawingData_Number@CTextSizeCalculator@@ABE_NPAVCPacket@@ABVCDisplayAttributes@@AAV?$CStringT@DV?$StrTraitMFC_DLL@DV?$ChTraitsCRT@D@ATL@@@@@ATL@@2@Z$0:
  00000	8d 4d 08	 lea	 ecx, DWORD PTR _dataType$[ebp]
  00003	ff 25 00 00 00
	00		 jmp	 DWORD PTR __imp_??1?$CStringT@DV?$StrTraitMFC_DLL@DV?$ChTraitsCRT@D@ATL@@@@@ATL@@QAE@XZ
__unwindfunclet$?GetDrawingData_Number@CTextSizeCalculator@@ABE_NPAVCPacket@@ABVCDisplayAttributes@@AAV?$CStringT@DV?$StrTraitMFC_DLL@DV?$ChTraitsCRT@D@ATL@@@@@ATL@@2@Z$1:
  00009	8b 45 f0	 mov	 eax, DWORD PTR $T3[ebp]
  0000c	83 e0 01	 and	 eax, 1
  0000f	0f 84 0d 00 00
	00		 je	 $LN11@GetDrawing
  00015	83 65 f0 fe	 and	 DWORD PTR $T3[ebp], -2	; fffffffeH
  00019	8d 4d 14	 lea	 ecx, DWORD PTR $T5[ebp]
  0001c	ff 25 00 00 00
	00		 jmp	 DWORD PTR __imp_??1?$CStringT@DV?$StrTraitMFC_DLL@DV?$ChTraitsCRT@D@ATL@@@@@ATL@@QAE@XZ
$LN11@GetDrawing:
  00022	c3		 ret	 0
__unwindfunclet$?GetDrawingData_Number@CTextSizeCalculator@@ABE_NPAVCPacket@@ABVCDisplayAttributes@@AAV?$CStringT@DV?$StrTraitMFC_DLL@DV?$ChTraitsCRT@D@ATL@@@@@ATL@@2@Z$2:
  00023	8b 45 f0	 mov	 eax, DWORD PTR $T3[ebp]
  00026	83 e0 02	 and	 eax, 2
  00029	0f 84 0d 00 00
	00		 je	 $LN13@GetDrawing
  0002f	83 65 f0 fd	 and	 DWORD PTR $T3[ebp], -3	; fffffffdH
  00033	8d 4d 0c	 lea	 ecx, DWORD PTR $T4[ebp]
  00036	ff 25 00 00 00
	00		 jmp	 DWORD PTR __imp_??1?$CStringT@DV?$StrTraitMFC_DLL@DV?$ChTraitsCRT@D@ATL@@@@@ATL@@QAE@XZ
$LN13@GetDrawing:
  0003c	c3		 ret	 0
  0003d	cc		 int	 3
  0003e	cc		 int	 3
  0003f	cc		 int	 3
  00040	cc		 int	 3
  00041	cc		 int	 3
__ehhandler$?GetDrawingData_Number@CTextSizeCalculator@@ABE_NPAVCPacket@@ABVCDisplayAttributes@@AAV?$CStringT@DV?$StrTraitMFC_DLL@DV?$ChTraitsCRT@D@ATL@@@@@ATL@@2@Z:
  00042	90		 npad	 1
  00043	90		 npad	 1
  00044	8b 54 24 08	 mov	 edx, DWORD PTR [esp+8]
  00048	8d 42 0c	 lea	 eax, DWORD PTR [edx+12]
  0004b	8b 4a cc	 mov	 ecx, DWORD PTR [edx-52]
  0004e	33 c8		 xor	 ecx, eax
  00050	e8 00 00 00 00	 call	 @__security_check_cookie@4
  00055	b8 00 00 00 00	 mov	 eax, OFFSET __ehfuncinfo$?GetDrawingData_Number@CTextSizeCalculator@@ABE_NPAVCPacket@@ABVCDisplayAttributes@@AAV?$CStringT@DV?$StrTraitMFC_DLL@DV?$ChTraitsCRT@D@ATL@@@@@ATL@@2@Z
  0005a	e9 00 00 00 00	 jmp	 ___CxxFrameHandler3
text$x	ENDS
?GetDrawingData_Number@CTextSizeCalculator@@ABE_NPAVCPacket@@ABVCDisplayAttributes@@AAV?$CStringT@DV?$StrTraitMFC_DLL@DV?$ChTraitsCRT@D@ATL@@@@@ATL@@2@Z ENDP ; CTextSizeCalculator::GetDrawingData_Number
; Function compile flags: /Ogtp
; File D:\git\src\IBK\IBK_DRFN\ProjSrc\SrcChartEx\ChartOCX\ChartObject\DrawingRegionCalculator.cpp
; File D:\git\src\IBK\IBK_DRFN\ProjSrc\SrcChartEx\ChartOCX\Include_Chart\Conversion.h
; File D:\git\src\IBK\IBK_DRFN\ProjSrc\SrcChartEx\ChartOCX\ChartObject\DrawingRegionCalculator.cpp
; File D:\git\src\IBK\IBK_DRFN\ProjSrc\SrcChartEx\ChartOCX\Include_Chart\Conversion.h
; File D:\git\src\IBK\IBK_DRFN\ProjSrc\SrcChartEx\ChartOCX\ChartObject\DrawingRegionCalculator.cpp
; File D:\git\src\IBK\IBK_DRFN\ProjSrc\SrcChartEx\ChartOCX\Include_Chart\Conversion.h
; File D:\git\src\IBK\IBK_DRFN\ProjSrc\SrcChartEx\ChartOCX\ChartObject\DrawingRegionCalculator.cpp
; File C:\Program Files (x86)\Microsoft Visual Studio\2019\Community\VC\Tools\MSVC\14.29.30133\atlmfc\include\atlsimpstr.h
; File D:\git\src\IBK\IBK_DRFN\ProjSrc\SrcChartEx\ChartOCX\ChartObject\DrawingRegionCalculator.cpp
; File C:\Program Files (x86)\Microsoft Visual Studio\2019\Community\VC\Tools\MSVC\14.29.30133\atlmfc\include\atlsimpstr.h
; File D:\git\src\IBK\IBK_DRFN\ProjSrc\SrcChartEx\ChartOCX\ChartObject\DrawingRegionCalculator.cpp
; File C:\Program Files (x86)\Microsoft Visual Studio\2019\Community\VC\Tools\MSVC\14.29.30133\atlmfc\include\atlsimpstr.h
; File D:\git\src\IBK\IBK_DRFN\ProjSrc\SrcChartEx\ChartOCX\ChartObject\DrawingRegionCalculator.cpp
;	COMDAT ?GetDrawingDataLength_Number_WithMinMax@CTextSizeCalculator@@ABEHPAVCPacket@@ABVCDisplayAttributes@@W4VERTSCALEUNITTYPE@CScaleBaseData@@ABVCDisplayDataMinMax@@@Z
_TEXT	SEGMENT
_dMaxLengthData$2 = -64					; size = 8
_dMin$3 = -56						; size = 8
_dMax$4 = -48						; size = 8
$T5 = -40						; size = 8
$T6 = -32						; size = 4
_this$1$ = -28						; size = 4
$T7 = -24						; size = 4
_strData$ = -20						; size = 4
_strFormatTrans$ = -16					; size = 4
__$EHRec$ = -12						; size = 12
$T8 = 8							; size = 4
_pPacket$ = 8						; size = 4
_displayAttributes$ = 12				; size = 4
_eVertScaleUnitType$ = 16				; size = 4
_dataType$9 = 20					; size = 4
_p_displaySubGraphMinMax$ = 20				; size = 4
?GetDrawingDataLength_Number_WithMinMax@CTextSizeCalculator@@ABEHPAVCPacket@@ABVCDisplayAttributes@@W4VERTSCALEUNITTYPE@CScaleBaseData@@ABVCDisplayDataMinMax@@@Z PROC ; CTextSizeCalculator::GetDrawingDataLength_Number_WithMinMax, COMDAT
; _this$ = ecx

; 628  : {

  00000	55		 push	 ebp
  00001	8b ec		 mov	 ebp, esp
  00003	6a ff		 push	 -1
  00005	68 00 00 00 00	 push	 __ehhandler$?GetDrawingDataLength_Number_WithMinMax@CTextSizeCalculator@@ABEHPAVCPacket@@ABVCDisplayAttributes@@W4VERTSCALEUNITTYPE@CScaleBaseData@@ABVCDisplayDataMinMax@@@Z
  0000a	64 a1 00 00 00
	00		 mov	 eax, DWORD PTR fs:0
  00010	50		 push	 eax
  00011	83 ec 34	 sub	 esp, 52			; 00000034H
  00014	53		 push	 ebx
  00015	56		 push	 esi
  00016	57		 push	 edi
  00017	a1 00 00 00 00	 mov	 eax, DWORD PTR ___security_cookie
  0001c	33 c5		 xor	 eax, ebp
  0001e	50		 push	 eax
  0001f	8d 45 f4	 lea	 eax, DWORD PTR __$EHRec$[ebp]
  00022	64 a3 00 00 00
	00		 mov	 DWORD PTR fs:0, eax
  00028	89 4d e4	 mov	 DWORD PTR _this$1$[ebp], ecx

; 629  : 	CString strData, strFormatTrans;

  0002b	8d 4d ec	 lea	 ecx, DWORD PTR _strData$[ebp]
  0002e	c7 45 e8 00 00
	00 00		 mov	 DWORD PTR $T7[ebp], 0
  00035	ff 15 00 00 00
	00		 call	 DWORD PTR __imp_??0?$CStringT@DV?$StrTraitMFC_DLL@DV?$ChTraitsCRT@D@ATL@@@@@ATL@@QAE@XZ
  0003b	8d 4d f0	 lea	 ecx, DWORD PTR _strFormatTrans$[ebp]
  0003e	c7 45 fc 00 00
	00 00		 mov	 DWORD PTR __$EHRec$[ebp+8], 0
  00045	ff 15 00 00 00
	00		 call	 DWORD PTR __imp_??0?$CStringT@DV?$StrTraitMFC_DLL@DV?$ChTraitsCRT@D@ATL@@@@@ATL@@QAE@XZ

; 666  : 	dMax = p_displaySubGraphMinMax.GetDisplayMax();

  0004b	8b 75 14	 mov	 esi, DWORD PTR _p_displaySubGraphMinMax$[ebp]
  0004e	8b ce		 mov	 ecx, esi

; 629  : 	CString strData, strFormatTrans;

  00050	c6 45 fc 01	 mov	 BYTE PTR __$EHRec$[ebp+8], 1

; 666  : 	dMax = p_displaySubGraphMinMax.GetDisplayMax();

  00054	ff 15 00 00 00
	00		 call	 DWORD PTR __imp_?GetDisplayMax@CDisplayDataMinMax@@QBENXZ
  0005a	dd 5d d0	 fstp	 QWORD PTR _dMax$4[ebp]

; 667  : 	dMin = p_displaySubGraphMinMax.GetDisplayMin();

  0005d	8b ce		 mov	 ecx, esi
  0005f	ff 15 00 00 00
	00		 call	 DWORD PTR __imp_?GetDisplayMin@CDisplayDataMinMax@@QBENXZ

; 668  : 
; 669  : 	CString dataType = pPacket->GetType(false);

  00065	8b 75 08	 mov	 esi, DWORD PTR _pPacket$[ebp]
  00068	8d 45 14	 lea	 eax, DWORD PTR _dataType$9[ebp]
  0006b	8b 1d 00 00 00
	00		 mov	 ebx, DWORD PTR __imp_?GetType@CPacket@@QAE?AV?$CStringT@DV?$StrTraitMFC_DLL@DV?$ChTraitsCRT@D@ATL@@@@@ATL@@_N@Z
  00071	8b ce		 mov	 ecx, esi
  00073	6a 00		 push	 0
  00075	50		 push	 eax
  00076	dd 5d c8	 fstp	 QWORD PTR _dMin$3[ebp]
  00079	ff d3		 call	 ebx

; 670  : 	double dMaxLengthData = CDataConversion::GetLongLengthData(dMin, dMax, dataType);

  0007b	8d 45 14	 lea	 eax, DWORD PTR _dataType$9[ebp]
  0007e	c6 45 fc 02	 mov	 BYTE PTR __$EHRec$[ebp+8], 2
  00082	50		 push	 eax
  00083	8d 45 d0	 lea	 eax, DWORD PTR _dMax$4[ebp]
  00086	50		 push	 eax
  00087	8d 45 c8	 lea	 eax, DWORD PTR _dMin$3[ebp]
  0008a	50		 push	 eax
  0008b	e8 00 00 00 00	 call	 ?GetLongLengthData@CDataConversion@@SANABN0ABV?$CStringT@DV?$StrTraitMFC_DLL@DV?$ChTraitsCRT@D@ATL@@@@@ATL@@@Z ; CDataConversion::GetLongLengthData
  00090	83 c4 0c	 add	 esp, 12			; 0000000cH

; 671  : 	BOOL bAutoScaleType = pPacket->IsAutoScaleType();

  00093	8b ce		 mov	 ecx, esi
  00095	dd 5d c0	 fstp	 QWORD PTR _dMaxLengthData$2[ebp]
  00098	ff 15 00 00 00
	00		 call	 DWORD PTR __imp_?IsAutoScaleType@CPacket@@QAEHXZ
  0009e	8b f8		 mov	 edi, eax

; 672  : 	CDataConversion( m_hOcxWnd, m_eChartMode).GetStringFormatTransCutoff(dMaxLengthData, dataType, strData, strFormatTrans, bAutoScaleType);

  000a0	8b 45 e4	 mov	 eax, DWORD PTR _this$1$[ebp]
  000a3	57		 push	 edi
; File D:\git\src\IBK\IBK_DRFN\ProjSrc\SrcChartEx\ChartOCX\Include_Chart\Conversion.h

; 27   : 		{	m_hOcxWnd = p_hOcxWnd;	m_eChartMode = p_eChartMode;	}

  000a4	8b 08		 mov	 ecx, DWORD PTR [eax]
; File D:\git\src\IBK\IBK_DRFN\ProjSrc\SrcChartEx\ChartOCX\ChartObject\DrawingRegionCalculator.cpp

; 672  : 	CDataConversion( m_hOcxWnd, m_eChartMode).GetStringFormatTransCutoff(dMaxLengthData, dataType, strData, strFormatTrans, bAutoScaleType);

  000a6	8b 50 04	 mov	 edx, DWORD PTR [eax+4]
  000a9	8d 45 f0	 lea	 eax, DWORD PTR _strFormatTrans$[ebp]
  000ac	50		 push	 eax
  000ad	8d 45 ec	 lea	 eax, DWORD PTR _strData$[ebp]
; File D:\git\src\IBK\IBK_DRFN\ProjSrc\SrcChartEx\ChartOCX\Include_Chart\Conversion.h

; 27   : 		{	m_hOcxWnd = p_hOcxWnd;	m_eChartMode = p_eChartMode;	}

  000b0	89 4d d8	 mov	 DWORD PTR $T5[ebp], ecx
; File D:\git\src\IBK\IBK_DRFN\ProjSrc\SrcChartEx\ChartOCX\ChartObject\DrawingRegionCalculator.cpp

; 672  : 	CDataConversion( m_hOcxWnd, m_eChartMode).GetStringFormatTransCutoff(dMaxLengthData, dataType, strData, strFormatTrans, bAutoScaleType);

  000b3	50		 push	 eax
  000b4	8d 45 14	 lea	 eax, DWORD PTR _dataType$9[ebp]
; File D:\git\src\IBK\IBK_DRFN\ProjSrc\SrcChartEx\ChartOCX\Include_Chart\Conversion.h

; 27   : 		{	m_hOcxWnd = p_hOcxWnd;	m_eChartMode = p_eChartMode;	}

  000b7	89 55 dc	 mov	 DWORD PTR $T5[ebp+4], edx
; File D:\git\src\IBK\IBK_DRFN\ProjSrc\SrcChartEx\ChartOCX\ChartObject\DrawingRegionCalculator.cpp

; 672  : 	CDataConversion( m_hOcxWnd, m_eChartMode).GetStringFormatTransCutoff(dMaxLengthData, dataType, strData, strFormatTrans, bAutoScaleType);

  000ba	50		 push	 eax
  000bb	8d 45 c0	 lea	 eax, DWORD PTR _dMaxLengthData$2[ebp]
  000be	50		 push	 eax
  000bf	8d 4d d8	 lea	 ecx, DWORD PTR $T5[ebp]
  000c2	e8 00 00 00 00	 call	 ?GetStringFormatTransCutoff@CDataConversion@@QAEHABNABV?$CStringT@DV?$StrTraitMFC_DLL@DV?$ChTraitsCRT@D@ATL@@@@@ATL@@AAV23@2H@Z ; CDataConversion::GetStringFormatTransCutoff
; File C:\Program Files (x86)\Microsoft Visual Studio\2019\Community\VC\Tools\MSVC\14.29.30133\atlmfc\include\atlsimpstr.h

; 519  : 		return( GetData()->nDataLength );

  000c7	8b 45 ec	 mov	 eax, DWORD PTR _strData$[ebp]

; 533  : 		return( GetLength() == 0 );

  000ca	83 78 f4 00	 cmp	 DWORD PTR [eax-12], 0
; File D:\git\src\IBK\IBK_DRFN\ProjSrc\SrcChartEx\ChartOCX\ChartObject\DrawingRegionCalculator.cpp

; 673  : 	if( strData.IsEmpty()) return 0;

  000ce	75 10		 jne	 SHORT $LN8@GetDrawing
  000d0	8d 4d 14	 lea	 ecx, DWORD PTR _dataType$9[ebp]
  000d3	ff 15 00 00 00
	00		 call	 DWORD PTR __imp_??1?$CStringT@DV?$StrTraitMFC_DLL@DV?$ChTraitsCRT@D@ATL@@@@@ATL@@QAE@XZ
  000d9	33 ff		 xor	 edi, edi
  000db	e9 c0 00 00 00	 jmp	 $LN6@GetDrawing
$LN8@GetDrawing:

; 674  : 	strFormatTrans.Replace(" ", "");

  000e0	68 00 00 00 00	 push	 OFFSET ??_C@_00CNPNBAHC@@
  000e5	68 00 00 00 00	 push	 OFFSET ??_C@_01CLKCMJKC@?5@
  000ea	8d 4d f0	 lea	 ecx, DWORD PTR _strFormatTrans$[ebp]
  000ed	ff 15 00 00 00
	00		 call	 DWORD PTR __imp_?Replace@?$CStringT@DV?$StrTraitMFC_DLL@DV?$ChTraitsCRT@D@ATL@@@@@ATL@@QAEHPBD0@Z

; 675  : 
; 676  : 	pPacket->SetScaleType( bAutoScaleType ? strFormatTrans : pPacket->GetType());

  000f3	85 ff		 test	 edi, edi
  000f5	74 18		 je	 SHORT $LN10@GetDrawing
  000f7	8d 45 f0	 lea	 eax, DWORD PTR _strFormatTrans$[ebp]
  000fa	50		 push	 eax
  000fb	8d 4d e0	 lea	 ecx, DWORD PTR $T6[ebp]
  000fe	ff 15 00 00 00
	00		 call	 DWORD PTR __imp_??0?$CStringT@DV?$StrTraitMFC_DLL@DV?$ChTraitsCRT@D@ATL@@@@@ATL@@QAE@ABV01@@Z
  00104	c6 45 fc 03	 mov	 BYTE PTR __$EHRec$[ebp+8], 3
  00108	bb 01 00 00 00	 mov	 ebx, 1
  0010d	eb 16		 jmp	 SHORT $LN69@GetDrawing
$LN10@GetDrawing:
  0010f	6a 01		 push	 1
  00111	8d 45 08	 lea	 eax, DWORD PTR $T8[ebp]
  00114	8b ce		 mov	 ecx, esi
  00116	50		 push	 eax
  00117	ff d3		 call	 ebx
  00119	c7 45 fc 04 00
	00 00		 mov	 DWORD PTR __$EHRec$[ebp+8], 4
  00120	bb 02 00 00 00	 mov	 ebx, 2
$LN69@GetDrawing:
  00125	50		 push	 eax
  00126	8b ce		 mov	 ecx, esi
  00128	89 5d e8	 mov	 DWORD PTR $T7[ebp], ebx
  0012b	ff 15 00 00 00
	00		 call	 DWORD PTR __imp_?SetScaleType@CPacket@@QAEXABV?$CStringT@DV?$StrTraitMFC_DLL@DV?$ChTraitsCRT@D@ATL@@@@@ATL@@@Z
  00131	f6 c3 02	 test	 bl, 2
  00134	74 0c		 je	 SHORT $LN19@GetDrawing
  00136	8d 4d 08	 lea	 ecx, DWORD PTR $T8[ebp]
  00139	83 e3 fd	 and	 ebx, -3			; fffffffdH
  0013c	ff 15 00 00 00
	00		 call	 DWORD PTR __imp_??1?$CStringT@DV?$StrTraitMFC_DLL@DV?$ChTraitsCRT@D@ATL@@@@@ATL@@QAE@XZ
$LN19@GetDrawing:
  00142	c7 45 fc 02 00
	00 00		 mov	 DWORD PTR __$EHRec$[ebp+8], 2
  00149	f6 c3 01	 test	 bl, 1
  0014c	74 09		 je	 SHORT $LN20@GetDrawing
  0014e	8d 4d e0	 lea	 ecx, DWORD PTR $T6[ebp]
  00151	ff 15 00 00 00
	00		 call	 DWORD PTR __imp_??1?$CStringT@DV?$StrTraitMFC_DLL@DV?$ChTraitsCRT@D@ATL@@@@@ATL@@QAE@XZ
$LN20@GetDrawing:
; File C:\Program Files (x86)\Microsoft Visual Studio\2019\Community\VC\Tools\MSVC\14.29.30133\atlmfc\include\atlsimpstr.h

; 519  : 		return( GetData()->nDataLength );

  00157	8b 45 ec	 mov	 eax, DWORD PTR _strData$[ebp]

; 533  : 		return( GetLength() == 0 );

  0015a	83 78 f4 00	 cmp	 DWORD PTR [eax-12], 0
; File D:\git\src\IBK\IBK_DRFN\ProjSrc\SrcChartEx\ChartOCX\ChartObject\DrawingRegionCalculator.cpp

; 677  : 	return (!strData.IsEmpty() || !strFormatTrans.IsEmpty());

  0015e	75 0d		 jne	 SHORT $LN12@GetDrawing
; File C:\Program Files (x86)\Microsoft Visual Studio\2019\Community\VC\Tools\MSVC\14.29.30133\atlmfc\include\atlsimpstr.h

; 519  : 		return( GetData()->nDataLength );

  00160	8b 45 f0	 mov	 eax, DWORD PTR _strFormatTrans$[ebp]

; 533  : 		return( GetLength() == 0 );

  00163	83 78 f4 00	 cmp	 DWORD PTR [eax-12], 0
; File D:\git\src\IBK\IBK_DRFN\ProjSrc\SrcChartEx\ChartOCX\ChartObject\DrawingRegionCalculator.cpp

; 677  : 	return (!strData.IsEmpty() || !strFormatTrans.IsEmpty());

  00167	75 04		 jne	 SHORT $LN12@GetDrawing
  00169	32 db		 xor	 bl, bl
  0016b	eb 02		 jmp	 SHORT $LN13@GetDrawing
$LN12@GetDrawing:
  0016d	b3 01		 mov	 bl, 1
$LN13@GetDrawing:
  0016f	8d 4d 14	 lea	 ecx, DWORD PTR _dataType$9[ebp]
  00172	c6 45 fc 01	 mov	 BYTE PTR __$EHRec$[ebp+8], 1
  00176	ff 15 00 00 00
	00		 call	 DWORD PTR __imp_??1?$CStringT@DV?$StrTraitMFC_DLL@DV?$ChTraitsCRT@D@ATL@@@@@ATL@@QAE@XZ

; 630  : 	if(!GetDrawingData_Number_WithMinMax(pPacket, displayAttributes, strData, strFormatTrans, p_displaySubGraphMinMax))

  0017c	84 db		 test	 bl, bl
  0017e	75 04		 jne	 SHORT $LN2@GetDrawing
  00180	33 ff		 xor	 edi, edi
  00182	eb 1c		 jmp	 SHORT $LN6@GetDrawing
$LN2@GetDrawing:

; 695  : 	return strData.GetLength();

  00184	8b 45 ec	 mov	 eax, DWORD PTR _strData$[ebp]

; 631  : 		return 0;
; 632  : 
; 633  : 	//    scale 
; 634  : 	int nNumLength = GetDataLength(strData);
; 635  : 	int nFormatLength = GetFormatLength(strFormatTrans, eVertScaleUnitType);

  00187	ff 75 10	 push	 DWORD PTR _eVertScaleUnitType$[ebp]
  0018a	8b 4d e4	 mov	 ecx, DWORD PTR _this$1$[ebp]

; 695  : 	return strData.GetLength();

  0018d	8b 70 f4	 mov	 esi, DWORD PTR [eax-12]

; 631  : 		return 0;
; 632  : 
; 633  : 	//    scale 
; 634  : 	int nNumLength = GetDataLength(strData);
; 635  : 	int nFormatLength = GetFormatLength(strFormatTrans, eVertScaleUnitType);

  00190	8d 45 f0	 lea	 eax, DWORD PTR _strFormatTrans$[ebp]
  00193	50		 push	 eax
  00194	e8 00 00 00 00	 call	 ?GetFormatLength@CTextSizeCalculator@@ABEHABV?$CStringT@DV?$StrTraitMFC_DLL@DV?$ChTraitsCRT@D@ATL@@@@@ATL@@W4VERTSCALEUNITTYPE@CScaleBaseData@@@Z ; CTextSizeCalculator::GetFormatLength
  00199	8b f8		 mov	 edi, eax

; 636  : 
; 637  : 	return ((nNumLength > nFormatLength) ? nNumLength: nFormatLength);

  0019b	3b f7		 cmp	 esi, edi
  0019d	0f 4f fe	 cmovg	 edi, esi
$LN6@GetDrawing:
  001a0	8d 4d f0	 lea	 ecx, DWORD PTR _strFormatTrans$[ebp]
  001a3	ff 15 00 00 00
	00		 call	 DWORD PTR __imp_??1?$CStringT@DV?$StrTraitMFC_DLL@DV?$ChTraitsCRT@D@ATL@@@@@ATL@@QAE@XZ
  001a9	8d 4d ec	 lea	 ecx, DWORD PTR _strData$[ebp]
  001ac	ff 15 00 00 00
	00		 call	 DWORD PTR __imp_??1?$CStringT@DV?$StrTraitMFC_DLL@DV?$ChTraitsCRT@D@ATL@@@@@ATL@@QAE@XZ
  001b2	8b c7		 mov	 eax, edi

; 638  : }

  001b4	8b 4d f4	 mov	 ecx, DWORD PTR __$EHRec$[ebp]
  001b7	64 89 0d 00 00
	00 00		 mov	 DWORD PTR fs:0, ecx
  001be	59		 pop	 ecx
  001bf	5f		 pop	 edi
  001c0	5e		 pop	 esi
  001c1	5b		 pop	 ebx
  001c2	8b e5		 mov	 esp, ebp
  001c4	5d		 pop	 ebp
  001c5	c2 10 00	 ret	 16			; 00000010H
_TEXT	ENDS
;	COMDAT text$x
text$x	SEGMENT
__unwindfunclet$?GetDrawingDataLength_Number_WithMinMax@CTextSizeCalculator@@ABEHPAVCPacket@@ABVCDisplayAttributes@@W4VERTSCALEUNITTYPE@CScaleBaseData@@ABVCDisplayDataMinMax@@@Z$0:
  00000	8d 4d ec	 lea	 ecx, DWORD PTR _strData$[ebp]
  00003	ff 25 00 00 00
	00		 jmp	 DWORD PTR __imp_??1?$CStringT@DV?$StrTraitMFC_DLL@DV?$ChTraitsCRT@D@ATL@@@@@ATL@@QAE@XZ
__unwindfunclet$?GetDrawingDataLength_Number_WithMinMax@CTextSizeCalculator@@ABEHPAVCPacket@@ABVCDisplayAttributes@@W4VERTSCALEUNITTYPE@CScaleBaseData@@ABVCDisplayDataMinMax@@@Z$1:
  00009	8d 4d f0	 lea	 ecx, DWORD PTR _strFormatTrans$[ebp]
  0000c	ff 25 00 00 00
	00		 jmp	 DWORD PTR __imp_??1?$CStringT@DV?$StrTraitMFC_DLL@DV?$ChTraitsCRT@D@ATL@@@@@ATL@@QAE@XZ
__unwindfunclet$?GetDrawingDataLength_Number_WithMinMax@CTextSizeCalculator@@ABEHPAVCPacket@@ABVCDisplayAttributes@@W4VERTSCALEUNITTYPE@CScaleBaseData@@ABVCDisplayDataMinMax@@@Z$2:
  00012	8d 4d 14	 lea	 ecx, DWORD PTR _dataType$9[ebp]
  00015	ff 25 00 00 00
	00		 jmp	 DWORD PTR __imp_??1?$CStringT@DV?$StrTraitMFC_DLL@DV?$ChTraitsCRT@D@ATL@@@@@ATL@@QAE@XZ
__unwindfunclet$?GetDrawingDataLength_Number_WithMinMax@CTextSizeCalculator@@ABEHPAVCPacket@@ABVCDisplayAttributes@@W4VERTSCALEUNITTYPE@CScaleBaseData@@ABVCDisplayDataMinMax@@@Z$3:
  0001b	8b 45 e8	 mov	 eax, DWORD PTR $T7[ebp]
  0001e	83 e0 01	 and	 eax, 1
  00021	0f 84 0d 00 00
	00		 je	 $LN16@GetDrawing
  00027	83 65 e8 fe	 and	 DWORD PTR $T7[ebp], -2	; fffffffeH
  0002b	8d 4d e0	 lea	 ecx, DWORD PTR $T6[ebp]
  0002e	ff 25 00 00 00
	00		 jmp	 DWORD PTR __imp_??1?$CStringT@DV?$StrTraitMFC_DLL@DV?$ChTraitsCRT@D@ATL@@@@@ATL@@QAE@XZ
$LN16@GetDrawing:
  00034	c3		 ret	 0
__unwindfunclet$?GetDrawingDataLength_Number_WithMinMax@CTextSizeCalculator@@ABEHPAVCPacket@@ABVCDisplayAttributes@@W4VERTSCALEUNITTYPE@CScaleBaseData@@ABVCDisplayDataMinMax@@@Z$4:
  00035	8b 45 e8	 mov	 eax, DWORD PTR $T7[ebp]
  00038	83 e0 02	 and	 eax, 2
  0003b	0f 84 0d 00 00
	00		 je	 $LN18@GetDrawing
  00041	83 65 e8 fd	 and	 DWORD PTR $T7[ebp], -3	; fffffffdH
  00045	8d 4d 08	 lea	 ecx, DWORD PTR $T8[ebp]
  00048	ff 25 00 00 00
	00		 jmp	 DWORD PTR __imp_??1?$CStringT@DV?$StrTraitMFC_DLL@DV?$ChTraitsCRT@D@ATL@@@@@ATL@@QAE@XZ
$LN18@GetDrawing:
  0004e	c3		 ret	 0
  0004f	cc		 int	 3
  00050	cc		 int	 3
  00051	cc		 int	 3
  00052	cc		 int	 3
  00053	cc		 int	 3
__ehhandler$?GetDrawingDataLength_Number_WithMinMax@CTextSizeCalculator@@ABEHPAVCPacket@@ABVCDisplayAttributes@@W4VERTSCALEUNITTYPE@CScaleBaseData@@ABVCDisplayDataMinMax@@@Z:
  00054	90		 npad	 1
  00055	90		 npad	 1
  00056	8b 54 24 08	 mov	 edx, DWORD PTR [esp+8]
  0005a	8d 42 0c	 lea	 eax, DWORD PTR [edx+12]
  0005d	8b 4a bc	 mov	 ecx, DWORD PTR [edx-68]
  00060	33 c8		 xor	 ecx, eax
  00062	e8 00 00 00 00	 call	 @__security_check_cookie@4
  00067	b8 00 00 00 00	 mov	 eax, OFFSET __ehfuncinfo$?GetDrawingDataLength_Number_WithMinMax@CTextSizeCalculator@@ABEHPAVCPacket@@ABVCDisplayAttributes@@W4VERTSCALEUNITTYPE@CScaleBaseData@@ABVCDisplayDataMinMax@@@Z
  0006c	e9 00 00 00 00	 jmp	 ___CxxFrameHandler3
text$x	ENDS
?GetDrawingDataLength_Number_WithMinMax@CTextSizeCalculator@@ABEHPAVCPacket@@ABVCDisplayAttributes@@W4VERTSCALEUNITTYPE@CScaleBaseData@@ABVCDisplayDataMinMax@@@Z ENDP ; CTextSizeCalculator::GetDrawingDataLength_Number_WithMinMax
; Function compile flags: /Ogtp
; File D:\git\src\IBK\IBK_DRFN\ProjSrc\SrcChartEx\ChartOCX\ChartObject\DrawingRegionCalculator.cpp
;	COMDAT ?GetDrawingDataLength_Number@CTextSizeCalculator@@ABEHPAVCPacket@@ABVCDisplayAttributes@@W4VERTSCALEUNITTYPE@CScaleBaseData@@@Z
_TEXT	SEGMENT
_strData$ = -20						; size = 4
_strFormatTrans$ = -16					; size = 4
__$EHRec$ = -12						; size = 12
_pPacket$ = 8						; size = 4
_displayAttributes$ = 12				; size = 4
_eVertScaleUnitType$ = 16				; size = 4
?GetDrawingDataLength_Number@CTextSizeCalculator@@ABEHPAVCPacket@@ABVCDisplayAttributes@@W4VERTSCALEUNITTYPE@CScaleBaseData@@@Z PROC ; CTextSizeCalculator::GetDrawingDataLength_Number, COMDAT
; _this$ = ecx

; 613  : {

  00000	55		 push	 ebp
  00001	8b ec		 mov	 ebp, esp
  00003	6a ff		 push	 -1
  00005	68 00 00 00 00	 push	 __ehhandler$?GetDrawingDataLength_Number@CTextSizeCalculator@@ABEHPAVCPacket@@ABVCDisplayAttributes@@W4VERTSCALEUNITTYPE@CScaleBaseData@@@Z
  0000a	64 a1 00 00 00
	00		 mov	 eax, DWORD PTR fs:0
  00010	50		 push	 eax
  00011	83 ec 08	 sub	 esp, 8
  00014	56		 push	 esi
  00015	57		 push	 edi
  00016	a1 00 00 00 00	 mov	 eax, DWORD PTR ___security_cookie
  0001b	33 c5		 xor	 eax, ebp
  0001d	50		 push	 eax
  0001e	8d 45 f4	 lea	 eax, DWORD PTR __$EHRec$[ebp]
  00021	64 a3 00 00 00
	00		 mov	 DWORD PTR fs:0, eax
  00027	8b f9		 mov	 edi, ecx

; 614  : 	CString strData, strFormatTrans;

  00029	8d 4d ec	 lea	 ecx, DWORD PTR _strData$[ebp]
  0002c	ff 15 00 00 00
	00		 call	 DWORD PTR __imp_??0?$CStringT@DV?$StrTraitMFC_DLL@DV?$ChTraitsCRT@D@ATL@@@@@ATL@@QAE@XZ
  00032	8d 4d f0	 lea	 ecx, DWORD PTR _strFormatTrans$[ebp]
  00035	c7 45 fc 00 00
	00 00		 mov	 DWORD PTR __$EHRec$[ebp+8], 0
  0003c	ff 15 00 00 00
	00		 call	 DWORD PTR __imp_??0?$CStringT@DV?$StrTraitMFC_DLL@DV?$ChTraitsCRT@D@ATL@@@@@ATL@@QAE@XZ

; 615  : 	if(!GetDrawingData_Number(pPacket, displayAttributes, strData, strFormatTrans))

  00042	8d 45 f0	 lea	 eax, DWORD PTR _strFormatTrans$[ebp]
  00045	c6 45 fc 01	 mov	 BYTE PTR __$EHRec$[ebp+8], 1
  00049	50		 push	 eax
  0004a	8d 45 ec	 lea	 eax, DWORD PTR _strData$[ebp]
  0004d	8b cf		 mov	 ecx, edi
  0004f	50		 push	 eax
  00050	ff 75 0c	 push	 DWORD PTR _displayAttributes$[ebp]
  00053	ff 75 08	 push	 DWORD PTR _pPacket$[ebp]
  00056	e8 00 00 00 00	 call	 ?GetDrawingData_Number@CTextSizeCalculator@@ABE_NPAVCPacket@@ABVCDisplayAttributes@@AAV?$CStringT@DV?$StrTraitMFC_DLL@DV?$ChTraitsCRT@D@ATL@@@@@ATL@@2@Z ; CTextSizeCalculator::GetDrawingData_Number
  0005b	84 c0		 test	 al, al
  0005d	75 04		 jne	 SHORT $LN2@GetDrawing
  0005f	33 ff		 xor	 edi, edi
  00061	eb 1b		 jmp	 SHORT $LN6@GetDrawing
$LN2@GetDrawing:

; 695  : 	return strData.GetLength();

  00063	8b 45 ec	 mov	 eax, DWORD PTR _strData$[ebp]

; 616  : 		return 0;
; 617  : 
; 618  : 	//    scale 
; 619  : 	int nNumLength = GetDataLength(strData);
; 620  : 	int nFormatLength = GetFormatLength(strFormatTrans, eVertScaleUnitType);

  00066	8b cf		 mov	 ecx, edi
  00068	ff 75 10	 push	 DWORD PTR _eVertScaleUnitType$[ebp]

; 695  : 	return strData.GetLength();

  0006b	8b 70 f4	 mov	 esi, DWORD PTR [eax-12]

; 616  : 		return 0;
; 617  : 
; 618  : 	//    scale 
; 619  : 	int nNumLength = GetDataLength(strData);
; 620  : 	int nFormatLength = GetFormatLength(strFormatTrans, eVertScaleUnitType);

  0006e	8d 45 f0	 lea	 eax, DWORD PTR _strFormatTrans$[ebp]
  00071	50		 push	 eax
  00072	e8 00 00 00 00	 call	 ?GetFormatLength@CTextSizeCalculator@@ABEHABV?$CStringT@DV?$StrTraitMFC_DLL@DV?$ChTraitsCRT@D@ATL@@@@@ATL@@W4VERTSCALEUNITTYPE@CScaleBaseData@@@Z ; CTextSizeCalculator::GetFormatLength
  00077	8b f8		 mov	 edi, eax

; 621  : 
; 622  : 	return ((nNumLength > nFormatLength) ? nNumLength: nFormatLength);

  00079	3b f7		 cmp	 esi, edi
  0007b	0f 4f fe	 cmovg	 edi, esi
$LN6@GetDrawing:
  0007e	8d 4d f0	 lea	 ecx, DWORD PTR _strFormatTrans$[ebp]
  00081	ff 15 00 00 00
	00		 call	 DWORD PTR __imp_??1?$CStringT@DV?$StrTraitMFC_DLL@DV?$ChTraitsCRT@D@ATL@@@@@ATL@@QAE@XZ
  00087	8d 4d ec	 lea	 ecx, DWORD PTR _strData$[ebp]
  0008a	ff 15 00 00 00
	00		 call	 DWORD PTR __imp_??1?$CStringT@DV?$StrTraitMFC_DLL@DV?$ChTraitsCRT@D@ATL@@@@@ATL@@QAE@XZ
  00090	8b c7		 mov	 eax, edi

; 623  : }

  00092	8b 4d f4	 mov	 ecx, DWORD PTR __$EHRec$[ebp]
  00095	64 89 0d 00 00
	00 00		 mov	 DWORD PTR fs:0, ecx
  0009c	59		 pop	 ecx
  0009d	5f		 pop	 edi
  0009e	5e		 pop	 esi
  0009f	8b e5		 mov	 esp, ebp
  000a1	5d		 pop	 ebp
  000a2	c2 0c 00	 ret	 12			; 0000000cH
_TEXT	ENDS
;	COMDAT text$x
text$x	SEGMENT
__unwindfunclet$?GetDrawingDataLength_Number@CTextSizeCalculator@@ABEHPAVCPacket@@ABVCDisplayAttributes@@W4VERTSCALEUNITTYPE@CScaleBaseData@@@Z$0:
  00000	8d 4d ec	 lea	 ecx, DWORD PTR _strData$[ebp]
  00003	ff 25 00 00 00
	00		 jmp	 DWORD PTR __imp_??1?$CStringT@DV?$StrTraitMFC_DLL@DV?$ChTraitsCRT@D@ATL@@@@@ATL@@QAE@XZ
__unwindfunclet$?GetDrawingDataLength_Number@CTextSizeCalculator@@ABEHPAVCPacket@@ABVCDisplayAttributes@@W4VERTSCALEUNITTYPE@CScaleBaseData@@@Z$1:
  00009	8d 4d f0	 lea	 ecx, DWORD PTR _strFormatTrans$[ebp]
  0000c	ff 25 00 00 00
	00		 jmp	 DWORD PTR __imp_??1?$CStringT@DV?$StrTraitMFC_DLL@DV?$ChTraitsCRT@D@ATL@@@@@ATL@@QAE@XZ
  00012	cc		 int	 3
  00013	cc		 int	 3
  00014	cc		 int	 3
  00015	cc		 int	 3
  00016	cc		 int	 3
__ehhandler$?GetDrawingDataLength_Number@CTextSizeCalculator@@ABEHPAVCPacket@@ABVCDisplayAttributes@@W4VERTSCALEUNITTYPE@CScaleBaseData@@@Z:
  00017	90		 npad	 1
  00018	90		 npad	 1
  00019	8b 54 24 08	 mov	 edx, DWORD PTR [esp+8]
  0001d	8d 42 0c	 lea	 eax, DWORD PTR [edx+12]
  00020	8b 4a ec	 mov	 ecx, DWORD PTR [edx-20]
  00023	33 c8		 xor	 ecx, eax
  00025	e8 00 00 00 00	 call	 @__security_check_cookie@4
  0002a	b8 00 00 00 00	 mov	 eax, OFFSET __ehfuncinfo$?GetDrawingDataLength_Number@CTextSizeCalculator@@ABEHPAVCPacket@@ABVCDisplayAttributes@@W4VERTSCALEUNITTYPE@CScaleBaseData@@@Z
  0002f	e9 00 00 00 00	 jmp	 ___CxxFrameHandler3
text$x	ENDS
?GetDrawingDataLength_Number@CTextSizeCalculator@@ABEHPAVCPacket@@ABVCDisplayAttributes@@W4VERTSCALEUNITTYPE@CScaleBaseData@@@Z ENDP ; CTextSizeCalculator::GetDrawingDataLength_Number
; Function compile flags: /Ogtp
; File D:\git\src\IBK\IBK_DRFN\ProjSrc\SrcChartEx\ChartOCX\ChartObject\DrawingRegionCalculator.cpp
; File C:\Program Files (x86)\Microsoft Visual Studio\2019\Community\VC\Tools\MSVC\14.29.30133\atlmfc\include\afxtempl.h
; File D:\git\src\IBK\IBK_DRFN\ProjSrc\SrcChartEx\ChartOCX\ChartObject\DrawingRegionCalculator.cpp
; File C:\Program Files (x86)\Microsoft Visual Studio\2019\Community\VC\Tools\MSVC\14.29.30133\atlmfc\include\afxtempl.h
; File D:\git\src\IBK\IBK_DRFN\ProjSrc\SrcChartEx\ChartOCX\ChartObject\DrawingRegionCalculator.cpp
;	COMDAT ?GetDrawingDataLength_Text@CTextSizeCalculator@@ABEHPAVCPacket@@@Z
_TEXT	SEGMENT
_strData$2 = -16					; size = 4
__$EHRec$ = -12						; size = 12
_pPacket$ = 8						; size = 4
?GetDrawingDataLength_Text@CTextSizeCalculator@@ABEHPAVCPacket@@@Z PROC ; CTextSizeCalculator::GetDrawingDataLength_Text, COMDAT
; _this$ = ecx

; 588  : {

  00000	55		 push	 ebp
  00001	8b ec		 mov	 ebp, esp
  00003	6a ff		 push	 -1
  00005	68 00 00 00 00	 push	 __ehhandler$?GetDrawingDataLength_Text@CTextSizeCalculator@@ABEHPAVCPacket@@@Z
  0000a	64 a1 00 00 00
	00		 mov	 eax, DWORD PTR fs:0
  00010	50		 push	 eax
  00011	51		 push	 ecx
  00012	53		 push	 ebx
  00013	56		 push	 esi
  00014	57		 push	 edi
  00015	a1 00 00 00 00	 mov	 eax, DWORD PTR ___security_cookie
  0001a	33 c5		 xor	 eax, ebp
  0001c	50		 push	 eax
  0001d	8d 45 f4	 lea	 eax, DWORD PTR __$EHRec$[ebp]
  00020	64 a3 00 00 00
	00		 mov	 DWORD PTR fs:0, eax

; 589  : 	int nMaxLength = 0;
; 590  : 
; 591  : 	POSITION pos = pPacket->GetstrDataList()->GetHeadPosition();

  00026	8b 4d 08	 mov	 ecx, DWORD PTR _pPacket$[ebp]
  00029	33 ff		 xor	 edi, edi
  0002b	ff 15 00 00 00
	00		 call	 DWORD PTR __imp_?GetstrDataList@CPacket@@QAEPAV?$CList@V?$CStringT@DV?$StrTraitMFC_DLL@DV?$ChTraitsCRT@D@ATL@@@@@ATL@@V12@@@XZ
  00031	8b 70 04	 mov	 esi, DWORD PTR [eax+4]

; 592  : 	while(pos != NULL){

  00034	85 f6		 test	 esi, esi
  00036	74 7c		 je	 SHORT $LN17@GetDrawing
  00038	8b 1d 00 00 00
	00		 mov	 ebx, DWORD PTR __imp___mbstrlen
  0003e	66 90		 npad	 2
$LL2@GetDrawing:

; 593  : 		CString strData = pPacket->GetstrDataList()->GetNext(pos);

  00040	8b 4d 08	 mov	 ecx, DWORD PTR _pPacket$[ebp]
  00043	ff 15 00 00 00
	00		 call	 DWORD PTR __imp_?GetstrDataList@CPacket@@QAEPAV?$CList@V?$CStringT@DV?$StrTraitMFC_DLL@DV?$ChTraitsCRT@D@ATL@@@@@ATL@@V12@@@XZ
; File C:\Program Files (x86)\Microsoft Visual Studio\2019\Community\VC\Tools\MSVC\14.29.30133\atlmfc\include\afxtempl.h

; 811  : 	{ CNode* pNode = (CNode*) rPosition;

  00049	8b c6		 mov	 eax, esi
; File D:\git\src\IBK\IBK_DRFN\ProjSrc\SrcChartEx\ChartOCX\ChartObject\DrawingRegionCalculator.cpp

; 593  : 		CString strData = pPacket->GetstrDataList()->GetNext(pos);

  0004b	8d 4d f0	 lea	 ecx, DWORD PTR _strData$2[ebp]
; File C:\Program Files (x86)\Microsoft Visual Studio\2019\Community\VC\Tools\MSVC\14.29.30133\atlmfc\include\afxtempl.h

; 813  : 		rPosition = (POSITION) pNode->pNext;

  0004e	8b 36		 mov	 esi, DWORD PTR [esi]

; 814  : 		return pNode->data; }

  00050	83 c0 08	 add	 eax, 8
; File D:\git\src\IBK\IBK_DRFN\ProjSrc\SrcChartEx\ChartOCX\ChartObject\DrawingRegionCalculator.cpp

; 593  : 		CString strData = pPacket->GetstrDataList()->GetNext(pos);

  00053	50		 push	 eax
  00054	ff 15 00 00 00
	00		 call	 DWORD PTR __imp_??0?$CStringT@DV?$StrTraitMFC_DLL@DV?$ChTraitsCRT@D@ATL@@@@@ATL@@QAE@ABV01@@Z

; 594  : 		strData.TrimRight(" ");

  0005a	68 00 00 00 00	 push	 OFFSET ??_C@_01CLKCMJKC@?5@
  0005f	8d 4d f0	 lea	 ecx, DWORD PTR _strData$2[ebp]
  00062	c7 45 fc 00 00
	00 00		 mov	 DWORD PTR __$EHRec$[ebp+8], 0
  00069	ff 15 00 00 00
	00		 call	 DWORD PTR __imp_?TrimRight@?$CStringT@DV?$StrTraitMFC_DLL@DV?$ChTraitsCRT@D@ATL@@@@@ATL@@QAEAAV12@PBD@Z

; 595  : 		strData.TrimLeft(" ");

  0006f	68 00 00 00 00	 push	 OFFSET ??_C@_01CLKCMJKC@?5@
  00074	8d 4d f0	 lea	 ecx, DWORD PTR _strData$2[ebp]
  00077	ff 15 00 00 00
	00		 call	 DWORD PTR __imp_?TrimLeft@?$CStringT@DV?$StrTraitMFC_DLL@DV?$ChTraitsCRT@D@ATL@@@@@ATL@@QAEAAV12@PBD@Z

; 596  : 		
; 597  : // 		if(strData.GetLength() > nMaxLength)
; 598  : // 			nMaxLength = strData.GetLength();
; 599  : 		//-------------------------------------------------------->
; 600  : 		// 2007.1.8     
; 601  : 		//     
; 602  : 		setlocale( LC_CTYPE, "Korean" );	//   

  0007d	68 00 00 00 00	 push	 OFFSET ??_C@_06OALMOPCN@Korean@
  00082	6a 02		 push	 2
  00084	ff 15 00 00 00
	00		 call	 DWORD PTR __imp__setlocale

; 603  : 		if(_mbstrlen(strData) > nMaxLength)	// _mbstrlen    2byte 1 

  0008a	ff 75 f0	 push	 DWORD PTR _strData$2[ebp]
  0008d	ff d3		 call	 ebx
  0008f	83 c4 0c	 add	 esp, 12			; 0000000cH
  00092	3b c7		 cmp	 eax, edi
  00094	76 0a		 jbe	 SHORT $LN4@GetDrawing

; 604  : 			nMaxLength = _mbstrlen(strData);

  00096	ff 75 f0	 push	 DWORD PTR _strData$2[ebp]
  00099	ff d3		 call	 ebx
  0009b	83 c4 04	 add	 esp, 4
  0009e	8b f8		 mov	 edi, eax
$LN4@GetDrawing:

; 605  : 		//<--------------------------------------------------------
; 606  : 	}

  000a0	8d 4d f0	 lea	 ecx, DWORD PTR _strData$2[ebp]
  000a3	c7 45 fc ff ff
	ff ff		 mov	 DWORD PTR __$EHRec$[ebp+8], -1
  000aa	ff 15 00 00 00
	00		 call	 DWORD PTR __imp_??1?$CStringT@DV?$StrTraitMFC_DLL@DV?$ChTraitsCRT@D@ATL@@@@@ATL@@QAE@XZ
  000b0	85 f6		 test	 esi, esi
  000b2	75 8c		 jne	 SHORT $LL2@GetDrawing
$LN17@GetDrawing:

; 607  : 
; 608  : 	return nMaxLength;
; 609  : }

  000b4	8b c7		 mov	 eax, edi
  000b6	8b 4d f4	 mov	 ecx, DWORD PTR __$EHRec$[ebp]
  000b9	64 89 0d 00 00
	00 00		 mov	 DWORD PTR fs:0, ecx
  000c0	59		 pop	 ecx
  000c1	5f		 pop	 edi
  000c2	5e		 pop	 esi
  000c3	5b		 pop	 ebx
  000c4	8b e5		 mov	 esp, ebp
  000c6	5d		 pop	 ebp
  000c7	c2 04 00	 ret	 4
_TEXT	ENDS
;	COMDAT text$x
text$x	SEGMENT
__unwindfunclet$?GetDrawingDataLength_Text@CTextSizeCalculator@@ABEHPAVCPacket@@@Z$0:
  00000	8d 4d f0	 lea	 ecx, DWORD PTR _strData$2[ebp]
  00003	ff 25 00 00 00
	00		 jmp	 DWORD PTR __imp_??1?$CStringT@DV?$StrTraitMFC_DLL@DV?$ChTraitsCRT@D@ATL@@@@@ATL@@QAE@XZ
  00009	cc		 int	 3
  0000a	cc		 int	 3
  0000b	cc		 int	 3
  0000c	cc		 int	 3
  0000d	cc		 int	 3
__ehhandler$?GetDrawingDataLength_Text@CTextSizeCalculator@@ABEHPAVCPacket@@@Z:
  0000e	90		 npad	 1
  0000f	90		 npad	 1
  00010	8b 54 24 08	 mov	 edx, DWORD PTR [esp+8]
  00014	8d 42 0c	 lea	 eax, DWORD PTR [edx+12]
  00017	8b 4a ec	 mov	 ecx, DWORD PTR [edx-20]
  0001a	33 c8		 xor	 ecx, eax
  0001c	e8 00 00 00 00	 call	 @__security_check_cookie@4
  00021	b8 00 00 00 00	 mov	 eax, OFFSET __ehfuncinfo$?GetDrawingDataLength_Text@CTextSizeCalculator@@ABEHPAVCPacket@@@Z
  00026	e9 00 00 00 00	 jmp	 ___CxxFrameHandler3
text$x	ENDS
?GetDrawingDataLength_Text@CTextSizeCalculator@@ABEHPAVCPacket@@@Z ENDP ; CTextSizeCalculator::GetDrawingDataLength_Text
; Function compile flags: /Ogtp
; File D:\git\src\IBK\IBK_DRFN\ProjSrc\SrcChartEx\ChartOCX\ChartObject\DrawingRegionCalculator.cpp
; File C:\Program Files (x86)\Microsoft Visual Studio\2019\Community\VC\Tools\MSVC\14.29.30133\atlmfc\include\cstringt.h
; File D:\git\src\IBK\IBK_DRFN\ProjSrc\SrcChartEx\ChartOCX\ChartObject\DrawingRegionCalculator.cpp
; File C:\Program Files (x86)\Microsoft Visual Studio\2019\Community\VC\Tools\MSVC\14.29.30133\atlmfc\include\cstringt.h
; File D:\git\src\IBK\IBK_DRFN\ProjSrc\SrcChartEx\ChartOCX\ChartObject\DrawingRegionCalculator.cpp
;	COMDAT ?GetDrawingDataLength_WithMinMax@CTextSizeCalculator@@ABEHPAVCPacket@@ABVCDisplayAttributes@@W4VERTSCALEUNITTYPE@CScaleBaseData@@ABVCDisplayDataMinMax@@@Z
_TEXT	SEGMENT
__$EHRec$ = -12						; size = 12
$T2 = 8							; size = 4
_pPacket$ = 8						; size = 4
_displayAttributes$ = 12				; size = 4
_eVertScaleUnitType$ = 16				; size = 4
_p_displaySubGraphMinMax$ = 20				; size = 4
?GetDrawingDataLength_WithMinMax@CTextSizeCalculator@@ABEHPAVCPacket@@ABVCDisplayAttributes@@W4VERTSCALEUNITTYPE@CScaleBaseData@@ABVCDisplayDataMinMax@@@Z PROC ; CTextSizeCalculator::GetDrawingDataLength_WithMinMax, COMDAT
; _this$ = ecx

; 570  : {

  00000	55		 push	 ebp
  00001	8b ec		 mov	 ebp, esp
  00003	6a ff		 push	 -1
  00005	68 00 00 00 00	 push	 __ehhandler$?GetDrawingDataLength_WithMinMax@CTextSizeCalculator@@ABEHPAVCPacket@@ABVCDisplayAttributes@@W4VERTSCALEUNITTYPE@CScaleBaseData@@ABVCDisplayDataMinMax@@@Z
  0000a	64 a1 00 00 00
	00		 mov	 eax, DWORD PTR fs:0
  00010	50		 push	 eax
  00011	53		 push	 ebx
  00012	56		 push	 esi
  00013	57		 push	 edi
  00014	a1 00 00 00 00	 mov	 eax, DWORD PTR ___security_cookie
  00019	33 c5		 xor	 eax, ebp
  0001b	50		 push	 eax
  0001c	8d 45 f4	 lea	 eax, DWORD PTR __$EHRec$[ebp]
  0001f	64 a3 00 00 00
	00		 mov	 DWORD PTR fs:0, eax
  00025	8b d9		 mov	 ebx, ecx

; 571  : 	if(pPacket == NULL)

  00027	8b 7d 08	 mov	 edi, DWORD PTR _pPacket$[ebp]
  0002a	85 ff		 test	 edi, edi
  0002c	75 16		 jne	 SHORT $LN2@GetDrawing

; 572  : 		return 0;

  0002e	33 c0		 xor	 eax, eax

; 585  : }

  00030	8b 4d f4	 mov	 ecx, DWORD PTR __$EHRec$[ebp]
  00033	64 89 0d 00 00
	00 00		 mov	 DWORD PTR fs:0, ecx
  0003a	59		 pop	 ecx
  0003b	5f		 pop	 edi
  0003c	5e		 pop	 esi
  0003d	5b		 pop	 ebx
  0003e	8b e5		 mov	 esp, ebp
  00040	5d		 pop	 ebp
  00041	c2 10 00	 ret	 16			; 00000010H
$LN2@GetDrawing:

; 575  : 	if( pPacket->GetType() == _MTEXT( C6_CHARACTER))

  00044	6a 01		 push	 1
  00046	8d 45 08	 lea	 eax, DWORD PTR $T2[ebp]
  00049	8b cf		 mov	 ecx, edi
  0004b	50		 push	 eax
  0004c	ff 15 00 00 00
	00		 call	 DWORD PTR __imp_?GetType@CPacket@@QAE?AV?$CStringT@DV?$StrTraitMFC_DLL@DV?$ChTraitsCRT@D@ATL@@@@@ATL@@_N@Z
  00052	8b 0d 54 00 00
	00		 mov	 ecx, DWORD PTR ?g_iMetaTable@@3VIMetaTable@@A+84
  00058	c7 45 fc 00 00
	00 00		 mov	 DWORD PTR __$EHRec$[ebp+8], 0
; File C:\Program Files (x86)\Microsoft Visual Studio\2019\Community\VC\Tools\MSVC\14.29.30133\atlmfc\include\cstringt.h

; 2486 : 		return(str1.Compare(psz2) == 0);

  0005f	ff b1 60 09 00
	00		 push	 DWORD PTR [ecx+2400]
  00065	8b c8		 mov	 ecx, eax
  00067	ff 15 00 00 00
	00		 call	 DWORD PTR __imp_?Compare@?$CStringT@DV?$StrTraitMFC_DLL@DV?$ChTraitsCRT@D@ATL@@@@@ATL@@QBEHPBD@Z
; File D:\git\src\IBK\IBK_DRFN\ProjSrc\SrcChartEx\ChartOCX\ChartObject\DrawingRegionCalculator.cpp

; 575  : 	if( pPacket->GetType() == _MTEXT( C6_CHARACTER))

  0006d	8d 4d 08	 lea	 ecx, DWORD PTR $T2[ebp]
  00070	c7 45 fc ff ff
	ff ff		 mov	 DWORD PTR __$EHRec$[ebp+8], -1
; File C:\Program Files (x86)\Microsoft Visual Studio\2019\Community\VC\Tools\MSVC\14.29.30133\atlmfc\include\cstringt.h

; 2486 : 		return(str1.Compare(psz2) == 0);

  00077	8b f0		 mov	 esi, eax
; File D:\git\src\IBK\IBK_DRFN\ProjSrc\SrcChartEx\ChartOCX\ChartObject\DrawingRegionCalculator.cpp

; 575  : 	if( pPacket->GetType() == _MTEXT( C6_CHARACTER))

  00079	ff 15 00 00 00
	00		 call	 DWORD PTR __imp_??1?$CStringT@DV?$StrTraitMFC_DLL@DV?$ChTraitsCRT@D@ATL@@@@@ATL@@QAE@XZ
  0007f	8b cb		 mov	 ecx, ebx
  00081	85 f6		 test	 esi, esi
  00083	75 1a		 jne	 SHORT $LN3@GetDrawing

; 576  : //////////////////////////////////////////////////////////////////////////
; 577  : // 2006.12.20     trim
; 578  : //     trim    
; 579  : // 		return pPacket->GetLength();-->
; 580  : 		return GetDrawingDataLength_Text(pPacket);

  00085	57		 push	 edi
  00086	e8 00 00 00 00	 call	 ?GetDrawingDataLength_Text@CTextSizeCalculator@@ABEHPAVCPacket@@@Z ; CTextSizeCalculator::GetDrawingDataLength_Text

; 585  : }

  0008b	8b 4d f4	 mov	 ecx, DWORD PTR __$EHRec$[ebp]
  0008e	64 89 0d 00 00
	00 00		 mov	 DWORD PTR fs:0, ecx
  00095	59		 pop	 ecx
  00096	5f		 pop	 edi
  00097	5e		 pop	 esi
  00098	5b		 pop	 ebx
  00099	8b e5		 mov	 esp, ebp
  0009b	5d		 pop	 ebp
  0009c	c2 10 00	 ret	 16			; 00000010H
$LN3@GetDrawing:

; 581  : //////////////////////////////////////////////////////////////////////////
; 582  : 
; 583  : 	// <>  
; 584  : 	return GetDrawingDataLength_Number_WithMinMax(pPacket, displayAttributes, eVertScaleUnitType, p_displaySubGraphMinMax);

  0009f	ff 75 14	 push	 DWORD PTR _p_displaySubGraphMinMax$[ebp]
  000a2	ff 75 10	 push	 DWORD PTR _eVertScaleUnitType$[ebp]
  000a5	ff 75 0c	 push	 DWORD PTR _displayAttributes$[ebp]
  000a8	57		 push	 edi
  000a9	e8 00 00 00 00	 call	 ?GetDrawingDataLength_Number_WithMinMax@CTextSizeCalculator@@ABEHPAVCPacket@@ABVCDisplayAttributes@@W4VERTSCALEUNITTYPE@CScaleBaseData@@ABVCDisplayDataMinMax@@@Z ; CTextSizeCalculator::GetDrawingDataLength_Number_WithMinMax

; 585  : }

  000ae	8b 4d f4	 mov	 ecx, DWORD PTR __$EHRec$[ebp]
  000b1	64 89 0d 00 00
	00 00		 mov	 DWORD PTR fs:0, ecx
  000b8	59		 pop	 ecx
  000b9	5f		 pop	 edi
  000ba	5e		 pop	 esi
  000bb	5b		 pop	 ebx
  000bc	8b e5		 mov	 esp, ebp
  000be	5d		 pop	 ebp
  000bf	c2 10 00	 ret	 16			; 00000010H
_TEXT	ENDS
;	COMDAT text$x
text$x	SEGMENT
__unwindfunclet$?GetDrawingDataLength_WithMinMax@CTextSizeCalculator@@ABEHPAVCPacket@@ABVCDisplayAttributes@@W4VERTSCALEUNITTYPE@CScaleBaseData@@ABVCDisplayDataMinMax@@@Z$0:
  00000	8d 4d 08	 lea	 ecx, DWORD PTR $T2[ebp]
  00003	ff 25 00 00 00
	00		 jmp	 DWORD PTR __imp_??1?$CStringT@DV?$StrTraitMFC_DLL@DV?$ChTraitsCRT@D@ATL@@@@@ATL@@QAE@XZ
  00009	cc		 int	 3
  0000a	cc		 int	 3
  0000b	cc		 int	 3
  0000c	cc		 int	 3
  0000d	cc		 int	 3
__ehhandler$?GetDrawingDataLength_WithMinMax@CTextSizeCalculator@@ABEHPAVCPacket@@ABVCDisplayAttributes@@W4VERTSCALEUNITTYPE@CScaleBaseData@@ABVCDisplayDataMinMax@@@Z:
  0000e	90		 npad	 1
  0000f	90		 npad	 1
  00010	8b 54 24 08	 mov	 edx, DWORD PTR [esp+8]
  00014	8d 42 0c	 lea	 eax, DWORD PTR [edx+12]
  00017	8b 4a f0	 mov	 ecx, DWORD PTR [edx-16]
  0001a	33 c8		 xor	 ecx, eax
  0001c	e8 00 00 00 00	 call	 @__security_check_cookie@4
  00021	b8 00 00 00 00	 mov	 eax, OFFSET __ehfuncinfo$?GetDrawingDataLength_WithMinMax@CTextSizeCalculator@@ABEHPAVCPacket@@ABVCDisplayAttributes@@W4VERTSCALEUNITTYPE@CScaleBaseData@@ABVCDisplayDataMinMax@@@Z
  00026	e9 00 00 00 00	 jmp	 ___CxxFrameHandler3
text$x	ENDS
?GetDrawingDataLength_WithMinMax@CTextSizeCalculator@@ABEHPAVCPacket@@ABVCDisplayAttributes@@W4VERTSCALEUNITTYPE@CScaleBaseData@@ABVCDisplayDataMinMax@@@Z ENDP ; CTextSizeCalculator::GetDrawingDataLength_WithMinMax
; Function compile flags: /Ogtp
; File D:\git\src\IBK\IBK_DRFN\ProjSrc\SrcChartEx\ChartOCX\ChartObject\DrawingRegionCalculator.cpp
; File C:\Program Files (x86)\Microsoft Visual Studio\2019\Community\VC\Tools\MSVC\14.29.30133\atlmfc\include\cstringt.h
; File D:\git\src\IBK\IBK_DRFN\ProjSrc\SrcChartEx\ChartOCX\ChartObject\DrawingRegionCalculator.cpp
; File C:\Program Files (x86)\Microsoft Visual Studio\2019\Community\VC\Tools\MSVC\14.29.30133\atlmfc\include\cstringt.h
; File D:\git\src\IBK\IBK_DRFN\ProjSrc\SrcChartEx\ChartOCX\ChartObject\DrawingRegionCalculator.cpp
;	COMDAT ?GetDrawingDataLength@CTextSizeCalculator@@ABEHPAVCPacket@@ABVCDisplayAttributes@@W4VERTSCALEUNITTYPE@CScaleBaseData@@@Z
_TEXT	SEGMENT
$T2 = -20						; size = 4
_strData$3 = -16					; size = 4
__$EHRec$ = -12						; size = 12
_strFormatTrans$4 = 8					; size = 4
_pPacket$ = 8						; size = 4
_displayAttributes$ = 12				; size = 4
_eVertScaleUnitType$ = 16				; size = 4
?GetDrawingDataLength@CTextSizeCalculator@@ABEHPAVCPacket@@ABVCDisplayAttributes@@W4VERTSCALEUNITTYPE@CScaleBaseData@@@Z PROC ; CTextSizeCalculator::GetDrawingDataLength, COMDAT
; _this$ = ecx

; 550  : {

  00000	55		 push	 ebp
  00001	8b ec		 mov	 ebp, esp
  00003	6a ff		 push	 -1
  00005	68 00 00 00 00	 push	 __ehhandler$?GetDrawingDataLength@CTextSizeCalculator@@ABEHPAVCPacket@@ABVCDisplayAttributes@@W4VERTSCALEUNITTYPE@CScaleBaseData@@@Z
  0000a	64 a1 00 00 00
	00		 mov	 eax, DWORD PTR fs:0
  00010	50		 push	 eax
  00011	83 ec 08	 sub	 esp, 8
  00014	53		 push	 ebx
  00015	56		 push	 esi
  00016	57		 push	 edi
  00017	a1 00 00 00 00	 mov	 eax, DWORD PTR ___security_cookie
  0001c	33 c5		 xor	 eax, ebp
  0001e	50		 push	 eax
  0001f	8d 45 f4	 lea	 eax, DWORD PTR __$EHRec$[ebp]
  00022	64 a3 00 00 00
	00		 mov	 DWORD PTR fs:0, eax
  00028	8b d9		 mov	 ebx, ecx

; 551  : 	if(pPacket == NULL)

  0002a	8b 7d 08	 mov	 edi, DWORD PTR _pPacket$[ebp]
  0002d	85 ff		 test	 edi, edi
  0002f	75 16		 jne	 SHORT $LN2@GetDrawing

; 552  : 		return 0;

  00031	33 c0		 xor	 eax, eax

; 565  : }

  00033	8b 4d f4	 mov	 ecx, DWORD PTR __$EHRec$[ebp]
  00036	64 89 0d 00 00
	00 00		 mov	 DWORD PTR fs:0, ecx
  0003d	59		 pop	 ecx
  0003e	5f		 pop	 edi
  0003f	5e		 pop	 esi
  00040	5b		 pop	 ebx
  00041	8b e5		 mov	 esp, ebp
  00043	5d		 pop	 ebp
  00044	c2 0c 00	 ret	 12			; 0000000cH
$LN2@GetDrawing:

; 555  : 	if( pPacket->GetType() == _MTEXT( C6_CHARACTER))

  00047	6a 01		 push	 1
  00049	8d 45 ec	 lea	 eax, DWORD PTR $T2[ebp]
  0004c	8b cf		 mov	 ecx, edi
  0004e	50		 push	 eax
  0004f	ff 15 00 00 00
	00		 call	 DWORD PTR __imp_?GetType@CPacket@@QAE?AV?$CStringT@DV?$StrTraitMFC_DLL@DV?$ChTraitsCRT@D@ATL@@@@@ATL@@_N@Z
  00055	8b 0d 54 00 00
	00		 mov	 ecx, DWORD PTR ?g_iMetaTable@@3VIMetaTable@@A+84
  0005b	c7 45 fc 00 00
	00 00		 mov	 DWORD PTR __$EHRec$[ebp+8], 0
; File C:\Program Files (x86)\Microsoft Visual Studio\2019\Community\VC\Tools\MSVC\14.29.30133\atlmfc\include\cstringt.h

; 2486 : 		return(str1.Compare(psz2) == 0);

  00062	ff b1 60 09 00
	00		 push	 DWORD PTR [ecx+2400]
  00068	8b c8		 mov	 ecx, eax
  0006a	ff 15 00 00 00
	00		 call	 DWORD PTR __imp_?Compare@?$CStringT@DV?$StrTraitMFC_DLL@DV?$ChTraitsCRT@D@ATL@@@@@ATL@@QBEHPBD@Z
; File D:\git\src\IBK\IBK_DRFN\ProjSrc\SrcChartEx\ChartOCX\ChartObject\DrawingRegionCalculator.cpp

; 555  : 	if( pPacket->GetType() == _MTEXT( C6_CHARACTER))

  00070	8d 4d ec	 lea	 ecx, DWORD PTR $T2[ebp]
  00073	c7 45 fc ff ff
	ff ff		 mov	 DWORD PTR __$EHRec$[ebp+8], -1
; File C:\Program Files (x86)\Microsoft Visual Studio\2019\Community\VC\Tools\MSVC\14.29.30133\atlmfc\include\cstringt.h

; 2486 : 		return(str1.Compare(psz2) == 0);

  0007a	8b f0		 mov	 esi, eax
; File D:\git\src\IBK\IBK_DRFN\ProjSrc\SrcChartEx\ChartOCX\ChartObject\DrawingRegionCalculator.cpp

; 555  : 	if( pPacket->GetType() == _MTEXT( C6_CHARACTER))

  0007c	ff 15 00 00 00
	00		 call	 DWORD PTR __imp_??1?$CStringT@DV?$StrTraitMFC_DLL@DV?$ChTraitsCRT@D@ATL@@@@@ATL@@QAE@XZ
  00082	85 f6		 test	 esi, esi
  00084	75 1c		 jne	 SHORT $LN3@GetDrawing

; 556  : //////////////////////////////////////////////////////////////////////////
; 557  : // 2006.12.20     trim
; 558  : //     trim    
; 559  : // 		return pPacket->GetLength();-->
; 560  : 		return GetDrawingDataLength_Text(pPacket);

  00086	57		 push	 edi
  00087	8b cb		 mov	 ecx, ebx
  00089	e8 00 00 00 00	 call	 ?GetDrawingDataLength_Text@CTextSizeCalculator@@ABEHPAVCPacket@@@Z ; CTextSizeCalculator::GetDrawingDataLength_Text

; 565  : }

  0008e	8b 4d f4	 mov	 ecx, DWORD PTR __$EHRec$[ebp]
  00091	64 89 0d 00 00
	00 00		 mov	 DWORD PTR fs:0, ecx
  00098	59		 pop	 ecx
  00099	5f		 pop	 edi
  0009a	5e		 pop	 esi
  0009b	5b		 pop	 ebx
  0009c	8b e5		 mov	 esp, ebp
  0009e	5d		 pop	 ebp
  0009f	c2 0c 00	 ret	 12			; 0000000cH
$LN3@GetDrawing:

; 614  : 	CString strData, strFormatTrans;

  000a2	8d 4d f0	 lea	 ecx, DWORD PTR _strData$3[ebp]
  000a5	ff 15 00 00 00
	00		 call	 DWORD PTR __imp_??0?$CStringT@DV?$StrTraitMFC_DLL@DV?$ChTraitsCRT@D@ATL@@@@@ATL@@QAE@XZ
  000ab	8d 4d 08	 lea	 ecx, DWORD PTR _strFormatTrans$4[ebp]
  000ae	c7 45 fc 01 00
	00 00		 mov	 DWORD PTR __$EHRec$[ebp+8], 1
  000b5	ff 15 00 00 00
	00		 call	 DWORD PTR __imp_??0?$CStringT@DV?$StrTraitMFC_DLL@DV?$ChTraitsCRT@D@ATL@@@@@ATL@@QAE@XZ

; 615  : 	if(!GetDrawingData_Number(pPacket, displayAttributes, strData, strFormatTrans))

  000bb	8d 45 08	 lea	 eax, DWORD PTR _strFormatTrans$4[ebp]
  000be	c6 45 fc 02	 mov	 BYTE PTR __$EHRec$[ebp+8], 2
  000c2	50		 push	 eax
  000c3	8d 45 f0	 lea	 eax, DWORD PTR _strData$3[ebp]
  000c6	8b cb		 mov	 ecx, ebx
  000c8	50		 push	 eax
  000c9	ff 75 0c	 push	 DWORD PTR _displayAttributes$[ebp]
  000cc	57		 push	 edi
  000cd	e8 00 00 00 00	 call	 ?GetDrawingData_Number@CTextSizeCalculator@@ABE_NPAVCPacket@@ABVCDisplayAttributes@@AAV?$CStringT@DV?$StrTraitMFC_DLL@DV?$ChTraitsCRT@D@ATL@@@@@ATL@@2@Z ; CTextSizeCalculator::GetDrawingData_Number
  000d2	84 c0		 test	 al, al
  000d4	75 16		 jne	 SHORT $LN9@GetDrawing

; 616  : 		return 0;

  000d6	8d 4d 08	 lea	 ecx, DWORD PTR _strFormatTrans$4[ebp]
  000d9	ff 15 00 00 00
	00		 call	 DWORD PTR __imp_??1?$CStringT@DV?$StrTraitMFC_DLL@DV?$ChTraitsCRT@D@ATL@@@@@ATL@@QAE@XZ
  000df	8d 4d f0	 lea	 ecx, DWORD PTR _strData$3[ebp]
  000e2	ff 15 00 00 00
	00		 call	 DWORD PTR __imp_??1?$CStringT@DV?$StrTraitMFC_DLL@DV?$ChTraitsCRT@D@ATL@@@@@ATL@@QAE@XZ
  000e8	33 ff		 xor	 edi, edi
  000ea	eb 2d		 jmp	 SHORT $LN8@GetDrawing
$LN9@GetDrawing:

; 695  : 	return strData.GetLength();

  000ec	8b 45 f0	 mov	 eax, DWORD PTR _strData$3[ebp]

; 620  : 	int nFormatLength = GetFormatLength(strFormatTrans, eVertScaleUnitType);

  000ef	8b cb		 mov	 ecx, ebx
  000f1	ff 75 10	 push	 DWORD PTR _eVertScaleUnitType$[ebp]

; 695  : 	return strData.GetLength();

  000f4	8b 70 f4	 mov	 esi, DWORD PTR [eax-12]

; 620  : 	int nFormatLength = GetFormatLength(strFormatTrans, eVertScaleUnitType);

  000f7	8d 45 08	 lea	 eax, DWORD PTR _strFormatTrans$4[ebp]
  000fa	50		 push	 eax
  000fb	e8 00 00 00 00	 call	 ?GetFormatLength@CTextSizeCalculator@@ABEHABV?$CStringT@DV?$StrTraitMFC_DLL@DV?$ChTraitsCRT@D@ATL@@@@@ATL@@W4VERTSCALEUNITTYPE@CScaleBaseData@@@Z ; CTextSizeCalculator::GetFormatLength

; 621  : 
; 622  : 	return ((nNumLength > nFormatLength) ? nNumLength: nFormatLength);

  00100	8d 4d 08	 lea	 ecx, DWORD PTR _strFormatTrans$4[ebp]
  00103	8b f8		 mov	 edi, eax
  00105	ff 15 00 00 00
	00		 call	 DWORD PTR __imp_??1?$CStringT@DV?$StrTraitMFC_DLL@DV?$ChTraitsCRT@D@ATL@@@@@ATL@@QAE@XZ
  0010b	8d 4d f0	 lea	 ecx, DWORD PTR _strData$3[ebp]
  0010e	ff 15 00 00 00
	00		 call	 DWORD PTR __imp_??1?$CStringT@DV?$StrTraitMFC_DLL@DV?$ChTraitsCRT@D@ATL@@@@@ATL@@QAE@XZ
  00114	3b f7		 cmp	 esi, edi
  00116	0f 4f fe	 cmovg	 edi, esi
$LN8@GetDrawing:

; 561  : //////////////////////////////////////////////////////////////////////////
; 562  : 
; 563  : 	// <>  
; 564  : 	return GetDrawingDataLength_Number(pPacket, displayAttributes, eVertScaleUnitType);

  00119	8b c7		 mov	 eax, edi

; 565  : }

  0011b	8b 4d f4	 mov	 ecx, DWORD PTR __$EHRec$[ebp]
  0011e	64 89 0d 00 00
	00 00		 mov	 DWORD PTR fs:0, ecx
  00125	59		 pop	 ecx
  00126	5f		 pop	 edi
  00127	5e		 pop	 esi
  00128	5b		 pop	 ebx
  00129	8b e5		 mov	 esp, ebp
  0012b	5d		 pop	 ebp
  0012c	c2 0c 00	 ret	 12			; 0000000cH
_TEXT	ENDS
;	COMDAT text$x
text$x	SEGMENT
__unwindfunclet$?GetDrawingDataLength@CTextSizeCalculator@@ABEHPAVCPacket@@ABVCDisplayAttributes@@W4VERTSCALEUNITTYPE@CScaleBaseData@@@Z$0:
  00000	8d 4d ec	 lea	 ecx, DWORD PTR $T2[ebp]
  00003	ff 25 00 00 00
	00		 jmp	 DWORD PTR __imp_??1?$CStringT@DV?$StrTraitMFC_DLL@DV?$ChTraitsCRT@D@ATL@@@@@ATL@@QAE@XZ
__unwindfunclet$?GetDrawingDataLength@CTextSizeCalculator@@ABEHPAVCPacket@@ABVCDisplayAttributes@@W4VERTSCALEUNITTYPE@CScaleBaseData@@@Z$1:
  00009	8d 4d f0	 lea	 ecx, DWORD PTR _strData$3[ebp]
  0000c	ff 25 00 00 00
	00		 jmp	 DWORD PTR __imp_??1?$CStringT@DV?$StrTraitMFC_DLL@DV?$ChTraitsCRT@D@ATL@@@@@ATL@@QAE@XZ
__unwindfunclet$?GetDrawingDataLength@CTextSizeCalculator@@ABEHPAVCPacket@@ABVCDisplayAttributes@@W4VERTSCALEUNITTYPE@CScaleBaseData@@@Z$2:
  00012	8d 4d 08	 lea	 ecx, DWORD PTR _strFormatTrans$4[ebp]
  00015	ff 25 00 00 00
	00		 jmp	 DWORD PTR __imp_??1?$CStringT@DV?$StrTraitMFC_DLL@DV?$ChTraitsCRT@D@ATL@@@@@ATL@@QAE@XZ
  0001b	cc		 int	 3
  0001c	cc		 int	 3
  0001d	cc		 int	 3
  0001e	cc		 int	 3
  0001f	cc		 int	 3
__ehhandler$?GetDrawingDataLength@CTextSizeCalculator@@ABEHPAVCPacket@@ABVCDisplayAttributes@@W4VERTSCALEUNITTYPE@CScaleBaseData@@@Z:
  00020	90		 npad	 1
  00021	90		 npad	 1
  00022	8b 54 24 08	 mov	 edx, DWORD PTR [esp+8]
  00026	8d 42 0c	 lea	 eax, DWORD PTR [edx+12]
  00029	8b 4a e8	 mov	 ecx, DWORD PTR [edx-24]
  0002c	33 c8		 xor	 ecx, eax
  0002e	e8 00 00 00 00	 call	 @__security_check_cookie@4
  00033	b8 00 00 00 00	 mov	 eax, OFFSET __ehfuncinfo$?GetDrawingDataLength@CTextSizeCalculator@@ABEHPAVCPacket@@ABVCDisplayAttributes@@W4VERTSCALEUNITTYPE@CScaleBaseData@@@Z
  00038	e9 00 00 00 00	 jmp	 ___CxxFrameHandler3
text$x	ENDS
?GetDrawingDataLength@CTextSizeCalculator@@ABEHPAVCPacket@@ABVCDisplayAttributes@@W4VERTSCALEUNITTYPE@CScaleBaseData@@@Z ENDP ; CTextSizeCalculator::GetDrawingDataLength
; Function compile flags: /Ogtp
; File D:\git\src\IBK\IBK_DRFN\ProjSrc\SrcChartEx\ChartOCX\ChartObject\DrawingRegionCalculator.cpp
;	COMDAT ?GetDrawingDataLengthStartPosition@CTextSizeCalculator@@ABEPAU__POSITION@@ABV?$CStringT@DV?$StrTraitMFC_DLL@DV?$ChTraitsCRT@D@ATL@@@@@ATL@@PAVCSubGraphPacketList@@@Z
_TEXT	SEGMENT
_strGraphName$ = 8					; size = 4
_pSubGraphPacketList$ = 12				; size = 4
?GetDrawingDataLengthStartPosition@CTextSizeCalculator@@ABEPAU__POSITION@@ABV?$CStringT@DV?$StrTraitMFC_DLL@DV?$ChTraitsCRT@D@ATL@@@@@ATL@@PAVCSubGraphPacketList@@@Z PROC ; CTextSizeCalculator::GetDrawingDataLengthStartPosition, COMDAT
; _this$ = ecx

; 539  : {

  00000	55		 push	 ebp
  00001	8b ec		 mov	 ebp, esp
  00003	56		 push	 esi

; 540  : 	if(pSubGraphPacketList == NULL)

  00004	8b 75 0c	 mov	 esi, DWORD PTR _pSubGraphPacketList$[ebp]
  00007	85 f6		 test	 esi, esi
  00009	75 07		 jne	 SHORT $LN2@GetDrawing

; 541  : 		return NULL;

  0000b	33 c0		 xor	 eax, eax
  0000d	5e		 pop	 esi

; 546  : }

  0000e	5d		 pop	 ebp
  0000f	c2 08 00	 ret	 8
$LN2@GetDrawing:

; 542  : 
; 543  : 	if( g_iMetaTable.IsViewVertMinMax_EndPacket(strGraphName))

  00012	ff 75 08	 push	 DWORD PTR _strGraphName$[ebp]
  00015	b9 00 00 00 00	 mov	 ecx, OFFSET ?g_iMetaTable@@3VIMetaTable@@A ; g_iMetaTable
  0001a	e8 00 00 00 00	 call	 ?IsViewVertMinMax_EndPacket@IMetaTable@@QAE_NABV?$CStringT@DV?$StrTraitMFC_DLL@DV?$ChTraitsCRT@D@ATL@@@@@ATL@@@Z ; IMetaTable::IsViewVertMinMax_EndPacket
  0001f	8b ce		 mov	 ecx, esi
  00021	84 c0		 test	 al, al
  00023	74 0a		 je	 SHORT $LN3@GetDrawing

; 544  : 		return pSubGraphPacketList->GetTailPosition();

  00025	e8 00 00 00 00	 call	 ?GetTailPosition@CSubGraphPacketList@@QAEPAU__POSITION@@XZ ; CSubGraphPacketList::GetTailPosition
  0002a	5e		 pop	 esi

; 546  : }

  0002b	5d		 pop	 ebp
  0002c	c2 08 00	 ret	 8
$LN3@GetDrawing:

; 545  : 	return pSubGraphPacketList->GetHeadPosition();

  0002f	e8 00 00 00 00	 call	 ?GetHeadPosition@CSubGraphPacketList@@QAEPAU__POSITION@@XZ ; CSubGraphPacketList::GetHeadPosition
  00034	5e		 pop	 esi

; 546  : }

  00035	5d		 pop	 ebp
  00036	c2 08 00	 ret	 8
?GetDrawingDataLengthStartPosition@CTextSizeCalculator@@ABEPAU__POSITION@@ABV?$CStringT@DV?$StrTraitMFC_DLL@DV?$ChTraitsCRT@D@ATL@@@@@ATL@@PAVCSubGraphPacketList@@@Z ENDP ; CTextSizeCalculator::GetDrawingDataLengthStartPosition
_TEXT	ENDS
; Function compile flags: /Ogtp
; File D:\git\src\IBK\IBK_DRFN\ProjSrc\SrcChartEx\ChartOCX\ChartObject\DrawingRegionCalculator.cpp
; File C:\Program Files (x86)\Microsoft Visual Studio\2019\Community\VC\Tools\MSVC\14.29.30133\atlmfc\include\cstringt.h
; File D:\git\src\IBK\IBK_DRFN\ProjSrc\SrcChartEx\ChartOCX\ChartObject\DrawingRegionCalculator.cpp
; File C:\Program Files (x86)\Microsoft Visual Studio\2019\Community\VC\Tools\MSVC\14.29.30133\atlmfc\include\cstringt.h
; File D:\git\src\IBK\IBK_DRFN\ProjSrc\SrcChartEx\ChartOCX\ChartObject\DrawingRegionCalculator.cpp
;	COMDAT ?GetMaxPacketDataLength@CTextSizeCalculator@@ABEHABV?$CStringT@DV?$StrTraitMFC_DLL@DV?$ChTraitsCRT@D@ATL@@@@@ATL@@PAVCSubGraphPacketList@@ABVCDisplayAttributes@@W4VERTSCALEUNITTYPE@CScaleBaseData@@ABVCDisplayDataMinMax@@@Z
_TEXT	SEGMENT
$T2 = -32						; size = 4
$T3 = -28						; size = 4
_pos$ = -24						; size = 4
_this$1$ = -20						; size = 4
$T4 = -16						; size = 4
__$EHRec$ = -12						; size = 12
_strGraphName$ = 8					; size = 4
$T5 = 11						; size = 1
_pSubGraphPacketList$ = 12				; size = 4
_displayAttributes$ = 16				; size = 4
_eVertScaleUnitType$ = 20				; size = 4
_p_displaySubGraphMinMax$ = 24				; size = 4
?GetMaxPacketDataLength@CTextSizeCalculator@@ABEHABV?$CStringT@DV?$StrTraitMFC_DLL@DV?$ChTraitsCRT@D@ATL@@@@@ATL@@PAVCSubGraphPacketList@@ABVCDisplayAttributes@@W4VERTSCALEUNITTYPE@CScaleBaseData@@ABVCDisplayDataMinMax@@@Z PROC ; CTextSizeCalculator::GetMaxPacketDataLength, COMDAT
; _this$ = ecx

; 517  : {

  00000	55		 push	 ebp
  00001	8b ec		 mov	 ebp, esp
  00003	6a ff		 push	 -1
  00005	68 00 00 00 00	 push	 __ehhandler$?GetMaxPacketDataLength@CTextSizeCalculator@@ABEHABV?$CStringT@DV?$StrTraitMFC_DLL@DV?$ChTraitsCRT@D@ATL@@@@@ATL@@PAVCSubGraphPacketList@@ABVCDisplayAttributes@@W4VERTSCALEUNITTYPE@CScaleBaseData@@ABVCDisplayDataMinMax@@@Z
  0000a	64 a1 00 00 00
	00		 mov	 eax, DWORD PTR fs:0
  00010	50		 push	 eax
  00011	83 ec 14	 sub	 esp, 20			; 00000014H
  00014	53		 push	 ebx
  00015	56		 push	 esi
  00016	57		 push	 edi
  00017	a1 00 00 00 00	 mov	 eax, DWORD PTR ___security_cookie
  0001c	33 c5		 xor	 eax, ebp
  0001e	50		 push	 eax
  0001f	8d 45 f4	 lea	 eax, DWORD PTR __$EHRec$[ebp]
  00022	64 a3 00 00 00
	00		 mov	 DWORD PTR fs:0, eax
  00028	89 4d ec	 mov	 DWORD PTR _this$1$[ebp], ecx

; 518  : 	if(pSubGraphPacketList == NULL)

  0002b	8b 7d 0c	 mov	 edi, DWORD PTR _pSubGraphPacketList$[ebp]
  0002e	33 f6		 xor	 esi, esi
  00030	89 75 f0	 mov	 DWORD PTR $T4[ebp], esi
  00033	85 ff		 test	 edi, edi
  00035	75 16		 jne	 SHORT $LN4@GetMaxPack

; 519  : 		return 0;

  00037	33 c0		 xor	 eax, eax

; 536  : }

  00039	8b 4d f4	 mov	 ecx, DWORD PTR __$EHRec$[ebp]
  0003c	64 89 0d 00 00
	00 00		 mov	 DWORD PTR fs:0, ecx
  00043	59		 pop	 ecx
  00044	5f		 pop	 edi
  00045	5e		 pop	 esi
  00046	5b		 pop	 ebx
  00047	8b e5		 mov	 esp, ebp
  00049	5d		 pop	 ebp
  0004a	c2 14 00	 ret	 20			; 00000014H
$LN4@GetMaxPack:

; 543  : 	if( g_iMetaTable.IsViewVertMinMax_EndPacket(strGraphName))

  0004d	ff 75 08	 push	 DWORD PTR _strGraphName$[ebp]
  00050	b9 00 00 00 00	 mov	 ecx, OFFSET ?g_iMetaTable@@3VIMetaTable@@A ; g_iMetaTable

; 520  : 
; 521  : 	int nMaxLength = 0;

  00055	33 db		 xor	 ebx, ebx

; 543  : 	if( g_iMetaTable.IsViewVertMinMax_EndPacket(strGraphName))

  00057	e8 00 00 00 00	 call	 ?IsViewVertMinMax_EndPacket@IMetaTable@@QAE_NABV?$CStringT@DV?$StrTraitMFC_DLL@DV?$ChTraitsCRT@D@ATL@@@@@ATL@@@Z ; IMetaTable::IsViewVertMinMax_EndPacket
  0005c	8b cf		 mov	 ecx, edi
  0005e	84 c0		 test	 al, al
  00060	74 07		 je	 SHORT $LN15@GetMaxPack

; 544  : 		return pSubGraphPacketList->GetTailPosition();

  00062	e8 00 00 00 00	 call	 ?GetTailPosition@CSubGraphPacketList@@QAEPAU__POSITION@@XZ ; CSubGraphPacketList::GetTailPosition
  00067	eb 05		 jmp	 SHORT $LN13@GetMaxPack
$LN15@GetMaxPack:

; 545  : 	return pSubGraphPacketList->GetHeadPosition();

  00069	e8 00 00 00 00	 call	 ?GetHeadPosition@CSubGraphPacketList@@QAEPAU__POSITION@@XZ ; CSubGraphPacketList::GetHeadPosition
$LN13@GetMaxPack:

; 522  : 	POSITION pos = GetDrawingDataLengthStartPosition(strGraphName, pSubGraphPacketList);

  0006e	89 45 e8	 mov	 DWORD PTR _pos$[ebp], eax
  00071	85 c0		 test	 eax, eax

; 523  : 	while(pos != NULL)

  00073	0f 84 d9 00 00
	00		 je	 $LN3@GetMaxPack
  00079	0f 1f 80 00 00
	00 00		 npad	 7
$LL2@GetMaxPack:

; 524  : 	{
; 525  : 		CPacket* pPacket = pSubGraphPacketList->GetNext(pos);

  00080	8d 45 e8	 lea	 eax, DWORD PTR _pos$[ebp]
  00083	8b cf		 mov	 ecx, edi
  00085	50		 push	 eax
  00086	e8 00 00 00 00	 call	 ?GetNext@CSubGraphPacketList@@QAEPAVCPacket@@AAPAU__POSITION@@@Z ; CSubGraphPacketList::GetNext
  0008b	8b f8		 mov	 edi, eax

; 526  : 		// packe name  ""     .
; 527  : 		if(pPacket == NULL || pPacket->GetName().Find( _MTEXT( C0_DATE_TIME)) != -1)

  0008d	85 ff		 test	 edi, edi
  0008f	74 2c		 je	 SHORT $LN8@GetMaxPack
  00091	8d 45 e4	 lea	 eax, DWORD PTR $T3[ebp]
  00094	8b cf		 mov	 ecx, edi
  00096	50		 push	 eax
  00097	ff 15 00 00 00
	00		 call	 DWORD PTR __imp_?GetName@CPacket@@QAE?AV?$CStringT@DV?$StrTraitMFC_DLL@DV?$ChTraitsCRT@D@ATL@@@@@ATL@@XZ
  0009d	8b c8		 mov	 ecx, eax
  0009f	83 ce 01	 or	 esi, 1
  000a2	a1 54 00 00 00	 mov	 eax, DWORD PTR ?g_iMetaTable@@3VIMetaTable@@A+84
  000a7	6a 00		 push	 0
  000a9	89 75 f0	 mov	 DWORD PTR $T4[ebp], esi
  000ac	ff 30		 push	 DWORD PTR [eax]
  000ae	ff 15 00 00 00
	00		 call	 DWORD PTR __imp_?Find@?$CStringT@DV?$StrTraitMFC_DLL@DV?$ChTraitsCRT@D@ATL@@@@@ATL@@QBEHPBDH@Z
  000b4	c6 45 0b 00	 mov	 BYTE PTR $T5[ebp], 0
  000b8	83 f8 ff	 cmp	 eax, -1
  000bb	74 04		 je	 SHORT $LN9@GetMaxPack
$LN8@GetMaxPack:
  000bd	c6 45 0b 01	 mov	 BYTE PTR $T5[ebp], 1
$LN9@GetMaxPack:
  000c1	8b 45 f0	 mov	 eax, DWORD PTR $T4[ebp]
  000c4	a8 01		 test	 al, 1
  000c6	74 0f		 je	 SHORT $LN12@GetMaxPack
  000c8	83 e0 fe	 and	 eax, -2			; fffffffeH
  000cb	8d 4d e4	 lea	 ecx, DWORD PTR $T3[ebp]
  000ce	89 45 f0	 mov	 DWORD PTR $T4[ebp], eax
  000d1	ff 15 00 00 00
	00		 call	 DWORD PTR __imp_??1?$CStringT@DV?$StrTraitMFC_DLL@DV?$ChTraitsCRT@D@ATL@@@@@ATL@@QAE@XZ
$LN12@GetMaxPack:
  000d7	80 7d 0b 00	 cmp	 BYTE PTR $T5[ebp], 0
  000db	75 65		 jne	 SHORT $LN6@GetMaxPack

; 571  : 	if(pPacket == NULL)

  000dd	85 ff		 test	 edi, edi
  000df	75 04		 jne	 SHORT $LN18@GetMaxPack

; 572  : 		return 0;

  000e1	33 c0		 xor	 eax, eax
  000e3	eb 58		 jmp	 SHORT $LN17@GetMaxPack
$LN18@GetMaxPack:

; 575  : 	if( pPacket->GetType() == _MTEXT( C6_CHARACTER))

  000e5	6a 01		 push	 1
  000e7	8d 45 e0	 lea	 eax, DWORD PTR $T2[ebp]
  000ea	8b cf		 mov	 ecx, edi
  000ec	50		 push	 eax
  000ed	ff 15 00 00 00
	00		 call	 DWORD PTR __imp_?GetType@CPacket@@QAE?AV?$CStringT@DV?$StrTraitMFC_DLL@DV?$ChTraitsCRT@D@ATL@@@@@ATL@@_N@Z
  000f3	8b c8		 mov	 ecx, eax
  000f5	a1 54 00 00 00	 mov	 eax, DWORD PTR ?g_iMetaTable@@3VIMetaTable@@A+84
  000fa	c7 45 fc 00 00
	00 00		 mov	 DWORD PTR __$EHRec$[ebp+8], 0
; File C:\Program Files (x86)\Microsoft Visual Studio\2019\Community\VC\Tools\MSVC\14.29.30133\atlmfc\include\cstringt.h

; 2486 : 		return(str1.Compare(psz2) == 0);

  00101	ff b0 60 09 00
	00		 push	 DWORD PTR [eax+2400]
  00107	ff 15 00 00 00
	00		 call	 DWORD PTR __imp_?Compare@?$CStringT@DV?$StrTraitMFC_DLL@DV?$ChTraitsCRT@D@ATL@@@@@ATL@@QBEHPBD@Z
; File D:\git\src\IBK\IBK_DRFN\ProjSrc\SrcChartEx\ChartOCX\ChartObject\DrawingRegionCalculator.cpp

; 575  : 	if( pPacket->GetType() == _MTEXT( C6_CHARACTER))

  0010d	8d 4d e0	 lea	 ecx, DWORD PTR $T2[ebp]
  00110	c7 45 fc ff ff
	ff ff		 mov	 DWORD PTR __$EHRec$[ebp+8], -1
; File C:\Program Files (x86)\Microsoft Visual Studio\2019\Community\VC\Tools\MSVC\14.29.30133\atlmfc\include\cstringt.h

; 2486 : 		return(str1.Compare(psz2) == 0);

  00117	8b f0		 mov	 esi, eax
; File D:\git\src\IBK\IBK_DRFN\ProjSrc\SrcChartEx\ChartOCX\ChartObject\DrawingRegionCalculator.cpp

; 575  : 	if( pPacket->GetType() == _MTEXT( C6_CHARACTER))

  00119	ff 15 00 00 00
	00		 call	 DWORD PTR __imp_??1?$CStringT@DV?$StrTraitMFC_DLL@DV?$ChTraitsCRT@D@ATL@@@@@ATL@@QAE@XZ
  0011f	8b 4d ec	 mov	 ecx, DWORD PTR _this$1$[ebp]
  00122	85 f6		 test	 esi, esi
  00124	75 08		 jne	 SHORT $LN19@GetMaxPack

; 576  : //////////////////////////////////////////////////////////////////////////
; 577  : // 2006.12.20     trim
; 578  : //     trim    
; 579  : // 		return pPacket->GetLength();-->
; 580  : 		return GetDrawingDataLength_Text(pPacket);

  00126	57		 push	 edi
  00127	e8 00 00 00 00	 call	 ?GetDrawingDataLength_Text@CTextSizeCalculator@@ABEHPAVCPacket@@@Z ; CTextSizeCalculator::GetDrawingDataLength_Text
  0012c	eb 0f		 jmp	 SHORT $LN17@GetMaxPack
$LN19@GetMaxPack:

; 581  : //////////////////////////////////////////////////////////////////////////
; 582  : 
; 583  : 	// <>  
; 584  : 	return GetDrawingDataLength_Number_WithMinMax(pPacket, displayAttributes, eVertScaleUnitType, p_displaySubGraphMinMax);

  0012e	ff 75 18	 push	 DWORD PTR _p_displaySubGraphMinMax$[ebp]
  00131	ff 75 14	 push	 DWORD PTR _eVertScaleUnitType$[ebp]
  00134	ff 75 10	 push	 DWORD PTR _displayAttributes$[ebp]
  00137	57		 push	 edi
  00138	e8 00 00 00 00	 call	 ?GetDrawingDataLength_Number_WithMinMax@CTextSizeCalculator@@ABEHPAVCPacket@@ABVCDisplayAttributes@@W4VERTSCALEUNITTYPE@CScaleBaseData@@ABVCDisplayDataMinMax@@@Z ; CTextSizeCalculator::GetDrawingDataLength_Number_WithMinMax
$LN17@GetMaxPack:

; 528  : 			continue;
; 529  : 
; 530  : 		int nLength = GetDrawingDataLength_WithMinMax(pPacket, displayAttributes, eVertScaleUnitType, p_displaySubGraphMinMax);
; 531  : 		if(nMaxLength < nLength)

  0013d	3b d8		 cmp	 ebx, eax
  0013f	0f 4c d8	 cmovl	 ebx, eax
$LN6@GetMaxPack:

; 523  : 	while(pos != NULL)

  00142	83 7d e8 00	 cmp	 DWORD PTR _pos$[ebp], 0
  00146	8b 75 f0	 mov	 esi, DWORD PTR $T4[ebp]
  00149	8b 7d 0c	 mov	 edi, DWORD PTR _pSubGraphPacketList$[ebp]
  0014c	0f 85 2e ff ff
	ff		 jne	 $LL2@GetMaxPack
$LN3@GetMaxPack:

; 532  : 			nMaxLength = nLength;
; 533  : 	}
; 534  : 
; 535  : 	return nMaxLength;

  00152	8b c3		 mov	 eax, ebx

; 536  : }

  00154	8b 4d f4	 mov	 ecx, DWORD PTR __$EHRec$[ebp]
  00157	64 89 0d 00 00
	00 00		 mov	 DWORD PTR fs:0, ecx
  0015e	59		 pop	 ecx
  0015f	5f		 pop	 edi
  00160	5e		 pop	 esi
  00161	5b		 pop	 ebx
  00162	8b e5		 mov	 esp, ebp
  00164	5d		 pop	 ebp
  00165	c2 14 00	 ret	 20			; 00000014H
_TEXT	ENDS
;	COMDAT text$x
text$x	SEGMENT
__unwindfunclet$?GetMaxPacketDataLength@CTextSizeCalculator@@ABEHABV?$CStringT@DV?$StrTraitMFC_DLL@DV?$ChTraitsCRT@D@ATL@@@@@ATL@@PAVCSubGraphPacketList@@ABVCDisplayAttributes@@W4VERTSCALEUNITTYPE@CScaleBaseData@@ABVCDisplayDataMinMax@@@Z$1:
  00000	8d 4d e0	 lea	 ecx, DWORD PTR $T2[ebp]
  00003	ff 25 00 00 00
	00		 jmp	 DWORD PTR __imp_??1?$CStringT@DV?$StrTraitMFC_DLL@DV?$ChTraitsCRT@D@ATL@@@@@ATL@@QAE@XZ
  00009	cc		 int	 3
  0000a	cc		 int	 3
  0000b	cc		 int	 3
  0000c	cc		 int	 3
  0000d	cc		 int	 3
__ehhandler$?GetMaxPacketDataLength@CTextSizeCalculator@@ABEHABV?$CStringT@DV?$StrTraitMFC_DLL@DV?$ChTraitsCRT@D@ATL@@@@@ATL@@PAVCSubGraphPacketList@@ABVCDisplayAttributes@@W4VERTSCALEUNITTYPE@CScaleBaseData@@ABVCDisplayDataMinMax@@@Z:
  0000e	90		 npad	 1
  0000f	90		 npad	 1
  00010	8b 54 24 08	 mov	 edx, DWORD PTR [esp+8]
  00014	8d 42 0c	 lea	 eax, DWORD PTR [edx+12]
  00017	8b 4a dc	 mov	 ecx, DWORD PTR [edx-36]
  0001a	33 c8		 xor	 ecx, eax
  0001c	e8 00 00 00 00	 call	 @__security_check_cookie@4
  00021	b8 00 00 00 00	 mov	 eax, OFFSET __ehfuncinfo$?GetMaxPacketDataLength@CTextSizeCalculator@@ABEHABV?$CStringT@DV?$StrTraitMFC_DLL@DV?$ChTraitsCRT@D@ATL@@@@@ATL@@PAVCSubGraphPacketList@@ABVCDisplayAttributes@@W4VERTSCALEUNITTYPE@CScaleBaseData@@ABVCDisplayDataMinMax@@@Z
  00026	e9 00 00 00 00	 jmp	 ___CxxFrameHandler3
text$x	ENDS
?GetMaxPacketDataLength@CTextSizeCalculator@@ABEHABV?$CStringT@DV?$StrTraitMFC_DLL@DV?$ChTraitsCRT@D@ATL@@@@@ATL@@PAVCSubGraphPacketList@@ABVCDisplayAttributes@@W4VERTSCALEUNITTYPE@CScaleBaseData@@ABVCDisplayDataMinMax@@@Z ENDP ; CTextSizeCalculator::GetMaxPacketDataLength
; Function compile flags: /Ogtp
; File D:\git\src\IBK\IBK_DRFN\ProjSrc\SrcChartEx\ChartOCX\ChartObject\DrawingRegionCalculator.cpp
; File C:\Program Files (x86)\Microsoft Visual Studio\2019\Community\VC\Tools\MSVC\14.29.30133\atlmfc\include\afxtempl.h
; File D:\git\src\IBK\IBK_DRFN\ProjSrc\SrcChartEx\ChartOCX\ChartObject\DrawingRegionCalculator.cpp
; File C:\Program Files (x86)\Microsoft Visual Studio\2019\Community\VC\Tools\MSVC\14.29.30133\atlmfc\include\atlsimpstr.h
; File D:\git\src\IBK\IBK_DRFN\ProjSrc\SrcChartEx\ChartOCX\ChartObject\DrawingRegionCalculator.cpp
;	COMDAT ?GetLongLength@CTextSizeCalculator@@ABEHPAVCIndicatorInfo@@@Z
_TEXT	SEGMENT
_dData$1 = -12						; size = 8
$T2 = -4						; size = 4
_pIndicatorInfo$ = 8					; size = 4
?GetLongLength@CTextSizeCalculator@@ABEHPAVCIndicatorInfo@@@Z PROC ; CTextSizeCalculator::GetLongLength, COMDAT
; _this$ = ecx

; 496  : {

  00000	55		 push	 ebp
  00001	8b ec		 mov	 ebp, esp
  00003	83 ec 0c	 sub	 esp, 12			; 0000000cH
  00006	53		 push	 ebx

; 497  : 	assert(pIndicatorInfo != NULL);
; 498  : 	if(pIndicatorInfo->GetBaseLineList() == NULL)

  00007	8b 1d 00 00 00
	00		 mov	 ebx, DWORD PTR __imp_?GetBaseLineList@CIndicatorInfo@@QAEPAV?$CList@NN@@XZ
  0000d	56		 push	 esi
  0000e	8b 75 08	 mov	 esi, DWORD PTR _pIndicatorInfo$[ebp]
  00011	8b ce		 mov	 ecx, esi
  00013	ff d3		 call	 ebx
  00015	85 c0		 test	 eax, eax
  00017	75 08		 jne	 SHORT $LN4@GetLongLen

; 511  : }

  00019	5e		 pop	 esi
  0001a	5b		 pop	 ebx
  0001b	8b e5		 mov	 esp, ebp
  0001d	5d		 pop	 ebp
  0001e	c2 04 00	 ret	 4
$LN4@GetLongLen:
  00021	57		 push	 edi

; 499  : 		return 0;
; 500  : 
; 501  : 	int nLength = 0;
; 502  : 	POSITION pos = pIndicatorInfo->GetBaseLineList()->GetHeadPosition();

  00022	8b ce		 mov	 ecx, esi
  00024	33 ff		 xor	 edi, edi
  00026	ff d3		 call	 ebx
  00028	8b 58 04	 mov	 ebx, DWORD PTR [eax+4]

; 503  : 	while(pos != NULL){

  0002b	85 db		 test	 ebx, ebx
  0002d	74 43		 je	 SHORT $LN3@GetLongLen
  0002f	90		 npad	 1
$LL2@GetLongLen:

; 504  : 		double dData = pIndicatorInfo->GetBaseLineList()->GetNext(pos);

  00030	8b ce		 mov	 ecx, esi
  00032	ff 15 00 00 00
	00		 call	 DWORD PTR __imp_?GetBaseLineList@CIndicatorInfo@@QAEPAV?$CList@NN@@XZ
  00038	f2 0f 10 43 08	 movsd	 xmm0, QWORD PTR [ebx+8]
; File C:\Program Files (x86)\Microsoft Visual Studio\2019\Community\VC\Tools\MSVC\14.29.30133\atlmfc\include\afxtempl.h

; 811  : 	{ CNode* pNode = (CNode*) rPosition;

  0003d	8d 03		 lea	 eax, DWORD PTR [ebx]

; 812  : 		ASSERT(AfxIsValidAddress(pNode, sizeof(CNode)));
; 813  : 		rPosition = (POSITION) pNode->pNext;

  0003f	8b 1b		 mov	 ebx, DWORD PTR [ebx]
; File D:\git\src\IBK\IBK_DRFN\ProjSrc\SrcChartEx\ChartOCX\ChartObject\DrawingRegionCalculator.cpp

; 505  : 		int temp = CDataConversion::DoubleToString(dData).GetLength();

  00041	8d 45 f4	 lea	 eax, DWORD PTR _dData$1[ebp]
  00044	50		 push	 eax
  00045	8d 45 fc	 lea	 eax, DWORD PTR $T2[ebp]
  00048	f2 0f 11 45 f4	 movsd	 QWORD PTR _dData$1[ebp], xmm0
  0004d	50		 push	 eax
  0004e	e8 00 00 00 00	 call	 ?DoubleToString@CDataConversion@@SA?AV?$CStringT@DV?$StrTraitMFC_DLL@DV?$ChTraitsCRT@D@ATL@@@@@ATL@@ABN@Z ; CDataConversion::DoubleToString
  00053	83 c4 08	 add	 esp, 8
  00056	8d 4d fc	 lea	 ecx, DWORD PTR $T2[ebp]
; File C:\Program Files (x86)\Microsoft Visual Studio\2019\Community\VC\Tools\MSVC\14.29.30133\atlmfc\include\atlsimpstr.h

; 519  : 		return( GetData()->nDataLength );

  00059	8b 00		 mov	 eax, DWORD PTR [eax]
  0005b	8b 70 f4	 mov	 esi, DWORD PTR [eax-12]
; File D:\git\src\IBK\IBK_DRFN\ProjSrc\SrcChartEx\ChartOCX\ChartObject\DrawingRegionCalculator.cpp

; 505  : 		int temp = CDataConversion::DoubleToString(dData).GetLength();

  0005e	ff 15 00 00 00
	00		 call	 DWORD PTR __imp_??1?$CStringT@DV?$StrTraitMFC_DLL@DV?$ChTraitsCRT@D@ATL@@@@@ATL@@QAE@XZ
  00064	3b fe		 cmp	 edi, esi
  00066	0f 4d f7	 cmovge	 esi, edi
  00069	8b fe		 mov	 edi, esi
  0006b	8b 75 08	 mov	 esi, DWORD PTR _pIndicatorInfo$[ebp]
  0006e	85 db		 test	 ebx, ebx
  00070	75 be		 jne	 SHORT $LL2@GetLongLen
$LN3@GetLongLen:

; 506  : 		if(nLength < temp)
; 507  : 			nLength = temp;
; 508  : 	}
; 509  : 
; 510  : 	return nLength;

  00072	8b c7		 mov	 eax, edi
  00074	5f		 pop	 edi
  00075	5e		 pop	 esi

; 511  : }

  00076	5b		 pop	 ebx
  00077	8b e5		 mov	 esp, ebp
  00079	5d		 pop	 ebp
  0007a	c2 04 00	 ret	 4
?GetLongLength@CTextSizeCalculator@@ABEHPAVCIndicatorInfo@@@Z ENDP ; CTextSizeCalculator::GetLongLength
_TEXT	ENDS
; Function compile flags: /Ogtp
; File D:\git\src\IBK\IBK_DRFN\ProjSrc\SrcChartEx\ChartOCX\ChartObject\DrawingRegionCalculator.cpp
;	COMDAT ?GetPacketMinMax@CTextSizeCalculator@@ABE_NPAVCPacket@@ABVCDisplayAttributes@@AAN2@Z
_TEXT	SEGMENT
_pPacket$ = 8						; size = 4
_displayAttributes$ = 12				; size = 4
_dMin$ = 16						; size = 4
_dMax$ = 20						; size = 4
?GetPacketMinMax@CTextSizeCalculator@@ABE_NPAVCPacket@@ABVCDisplayAttributes@@AAN2@Z PROC ; CTextSizeCalculator::GetPacketMinMax, COMDAT
; _this$ = ecx

; 480  : {

  00000	55		 push	 ebp
  00001	8b ec		 mov	 ebp, esp
  00003	56		 push	 esi

; 481  : 	if(pPacket == NULL || pPacket->GetCount() <= 0)

  00004	8b 75 08	 mov	 esi, DWORD PTR _pPacket$[ebp]
  00007	85 f6		 test	 esi, esi
  00009	74 56		 je	 SHORT $LN3@GetPacketM
  0000b	8b 06		 mov	 eax, DWORD PTR [esi]
  0000d	8b ce		 mov	 ecx, esi
  0000f	ff 50 14	 call	 DWORD PTR [eax+20]
  00012	85 c0		 test	 eax, eax
  00014	7e 4b		 jle	 SHORT $LN3@GetPacketM

; 483  : 
; 484  : 	int nDataEndInBlock = pPacket->GetnumericDataList()->GetCount() -1;

  00016	53		 push	 ebx
  00017	57		 push	 edi
  00018	8b ce		 mov	 ecx, esi
  0001a	ff 15 00 00 00
	00		 call	 DWORD PTR __imp_?GetnumericDataList@CPacket@@QAEPAV?$CList@NN@@XZ

; 485  : 	if(nDataEndInBlock > displayAttributes.GetDataEndInBlock())

  00020	8b 5d 0c	 mov	 ebx, DWORD PTR _displayAttributes$[ebp]
  00023	8b cb		 mov	 ecx, ebx
  00025	8b 78 0c	 mov	 edi, DWORD PTR [eax+12]
  00028	4f		 dec	 edi
  00029	e8 00 00 00 00	 call	 ?GetDataEndInBlock@CDisplayAttributes@@QBEHXZ ; CDisplayAttributes::GetDataEndInBlock
  0002e	3b f8		 cmp	 edi, eax
  00030	7e 09		 jle	 SHORT $LN4@GetPacketM

; 486  : 		nDataEndInBlock = displayAttributes.GetDataEndInBlock();

  00032	8b cb		 mov	 ecx, ebx
  00034	e8 00 00 00 00	 call	 ?GetDataEndInBlock@CDisplayAttributes@@QBEHXZ ; CDisplayAttributes::GetDataEndInBlock
  00039	8b f8		 mov	 edi, eax
$LN4@GetPacketM:

; 487  : 
; 488  : 	if(pPacket->GetMinMax(displayAttributes.GetDataStartInBlock(), nDataEndInBlock, dMin, dMax) < 0)

  0003b	6a 00		 push	 0
  0003d	ff 75 14	 push	 DWORD PTR _dMax$[ebp]
  00040	8b cb		 mov	 ecx, ebx
  00042	ff 75 10	 push	 DWORD PTR _dMin$[ebp]
  00045	57		 push	 edi
  00046	e8 00 00 00 00	 call	 ?GetDataStartInBlock@CDisplayAttributes@@QBEHXZ ; CDisplayAttributes::GetDataStartInBlock
  0004b	50		 push	 eax
  0004c	8b ce		 mov	 ecx, esi
  0004e	ff 15 00 00 00
	00		 call	 DWORD PTR __imp_?GetMinMax@CPacket@@QAEHHHAAN0H@Z
  00054	5f		 pop	 edi
  00055	5b		 pop	 ebx
  00056	85 c0		 test	 eax, eax
  00058	78 07		 js	 SHORT $LN3@GetPacketM

; 489  : 		return false;
; 490  : 	return true;

  0005a	b0 01		 mov	 al, 1
  0005c	5e		 pop	 esi

; 491  : }

  0005d	5d		 pop	 ebp
  0005e	c2 10 00	 ret	 16			; 00000010H
$LN3@GetPacketM:

; 482  : 		return false;

  00061	32 c0		 xor	 al, al
  00063	5e		 pop	 esi

; 491  : }

  00064	5d		 pop	 ebp
  00065	c2 10 00	 ret	 16			; 00000010H
?GetPacketMinMax@CTextSizeCalculator@@ABE_NPAVCPacket@@ABVCDisplayAttributes@@AAN2@Z ENDP ; CTextSizeCalculator::GetPacketMinMax
_TEXT	ENDS
; Function compile flags: /Ogtp
; File D:\git\src\IBK\IBK_DRFN\ProjSrc\SrcChartEx\ChartOCX\ChartObject\DrawingRegionCalculator.cpp
; File C:\Program Files (x86)\Microsoft Visual Studio\2019\Community\VC\Tools\MSVC\14.29.30133\atlmfc\include\atltypes.h
; File D:\git\src\IBK\IBK_DRFN\ProjSrc\SrcChartEx\ChartOCX\ChartObject\DrawingRegionCalculator.cpp
; File C:\Program Files (x86)\Microsoft Visual Studio\2019\Community\VC\Tools\MSVC\14.29.30133\atlmfc\include\afxwin1.inl
; File C:\Program Files (x86)\Microsoft Visual Studio\2019\Community\VC\Tools\MSVC\14.29.30133\atlmfc\include\atltypes.h
; File D:\git\src\IBK\IBK_DRFN\ProjSrc\SrcChartEx\ChartOCX\ChartObject\DrawingRegionCalculator.cpp
; File C:\Program Files (x86)\Microsoft Visual Studio\2019\Community\VC\Tools\MSVC\14.29.30133\atlmfc\include\atltypes.h
; File D:\git\src\IBK\IBK_DRFN\ProjSrc\SrcChartEx\ChartOCX\ChartObject\DrawingRegionCalculator.cpp
;	COMDAT ?GetMaxScaleTextSize_Packet@CTextSizeCalculator@@ABE?AVCSize@@PAVCDC@@PAVCPacket@@ABVCVertScaleMaxWidthCalculatorData@@@Z
_TEXT	SEGMENT
$T2 = -116						; size = 88
$T3 = -28						; size = 8
_size$4 = -20						; size = 8
__$EHRec$ = -12						; size = 12
___$ReturnUdt$ = 8					; size = 4
_pDC$ = 12						; size = 4
_pPacket$ = 16						; size = 4
$T5 = 20						; size = 4
_calData$ = 20						; size = 4
?GetMaxScaleTextSize_Packet@CTextSizeCalculator@@ABE?AVCSize@@PAVCDC@@PAVCPacket@@ABVCVertScaleMaxWidthCalculatorData@@@Z PROC ; CTextSizeCalculator::GetMaxScaleTextSize_Packet, COMDAT
; _this$ = ecx

; 472  : {

  00000	55		 push	 ebp
  00001	8b ec		 mov	 ebp, esp
  00003	6a ff		 push	 -1
  00005	68 00 00 00 00	 push	 __ehhandler$?GetMaxScaleTextSize_Packet@CTextSizeCalculator@@ABE?AVCSize@@PAVCDC@@PAVCPacket@@ABVCVertScaleMaxWidthCalculatorData@@@Z
  0000a	64 a1 00 00 00
	00		 mov	 eax, DWORD PTR fs:0
  00010	50		 push	 eax
  00011	83 ec 68	 sub	 esp, 104		; 00000068H
  00014	56		 push	 esi
  00015	57		 push	 edi
  00016	a1 00 00 00 00	 mov	 eax, DWORD PTR ___security_cookie
  0001b	33 c5		 xor	 eax, ebp
  0001d	50		 push	 eax
  0001e	8d 45 f4	 lea	 eax, DWORD PTR __$EHRec$[ebp]
  00021	64 a3 00 00 00
	00		 mov	 DWORD PTR fs:0, eax
  00027	8b f9		 mov	 edi, ecx

; 473  : 	int nMaxLength = GetDrawingDataLength(pPacket, calData.GetDisplayAttributes(), calData.GetVerticalScale().GetVertScaleUnitType());

  00029	8b 4d 14	 mov	 ecx, DWORD PTR _calData$[ebp]
  0002c	8d 45 8c	 lea	 eax, DWORD PTR $T2[ebp]
  0002f	50		 push	 eax
  00030	e8 00 00 00 00	 call	 ?GetVerticalScale@CVertScaleMaxWidthCalculatorData@@QBE?AVCVerticalScale@@XZ ; CVertScaleMaxWidthCalculatorData::GetVerticalScale
  00035	8b c8		 mov	 ecx, eax
  00037	c7 45 fc 00 00
	00 00		 mov	 DWORD PTR __$EHRec$[ebp+8], 0
  0003e	ff 15 00 00 00
	00		 call	 DWORD PTR __imp_?GetVertScaleUnitType@CVerticalScale@@QBE?AW4VERTSCALEUNITTYPE@CScaleBaseData@@XZ
  00044	8b 4d 14	 mov	 ecx, DWORD PTR _calData$[ebp]
  00047	50		 push	 eax
  00048	8d 45 e4	 lea	 eax, DWORD PTR $T3[ebp]
  0004b	50		 push	 eax
  0004c	e8 00 00 00 00	 call	 ?GetDisplayAttributes@CVertScaleMaxWidthCalculatorData@@QBE?AVCDisplayAttributes@@XZ ; CVertScaleMaxWidthCalculatorData::GetDisplayAttributes
  00051	50		 push	 eax
  00052	ff 75 10	 push	 DWORD PTR _pPacket$[ebp]
  00055	8b cf		 mov	 ecx, edi
  00057	e8 00 00 00 00	 call	 ?GetDrawingDataLength@CTextSizeCalculator@@ABEHPAVCPacket@@ABVCDisplayAttributes@@W4VERTSCALEUNITTYPE@CScaleBaseData@@@Z ; CTextSizeCalculator::GetDrawingDataLength
  0005c	8d 4d 8c	 lea	 ecx, DWORD PTR $T2[ebp]
  0005f	c7 45 fc ff ff
	ff ff		 mov	 DWORD PTR __$EHRec$[ebp+8], -1
  00066	8b f8		 mov	 edi, eax
  00068	ff 15 00 00 00
	00		 call	 DWORD PTR __imp_??1CVerticalScale@@QAE@XZ
  0006e	8b 75 08	 mov	 esi, DWORD PTR ___$ReturnUdt$[ebp]

; 804  : 	if(nLength <= 0)

  00071	85 ff		 test	 edi, edi
  00073	7f 0f		 jg	 SHORT $LN5@GetMaxScal
; File C:\Program Files (x86)\Microsoft Visual Studio\2019\Community\VC\Tools\MSVC\14.29.30133\atlmfc\include\atltypes.h

; 312  : 	cx = initCX;

  00075	c7 06 00 00 00
	00		 mov	 DWORD PTR [esi], 0

; 313  : 	cy = initCY;

  0007b	c7 46 04 00 00
	00 00		 mov	 DWORD PTR [esi+4], 0
; File D:\git\src\IBK\IBK_DRFN\ProjSrc\SrcChartEx\ChartOCX\ChartObject\DrawingRegionCalculator.cpp

; 805  : 		return CSize(0, 0);

  00082	eb 3c		 jmp	 SHORT $LN31@GetMaxScal
$LN5@GetMaxScal:

; 807  : 	return GetMaxScaleTextSize(pDC->GetTextExtent("0"), nLength, textCompart);

  00084	68 00 00 00 00	 push	 OFFSET ??_C@_01GBGANLPD@0@
  00089	8d 4d 14	 lea	 ecx, DWORD PTR $T5[ebp]
  0008c	ff 15 00 00 00
	00		 call	 DWORD PTR __imp_??0?$CStringT@DV?$StrTraitMFC_DLL@DV?$ChTraitsCRT@D@ATL@@@@@ATL@@QAE@PBD@Z
; File C:\Program Files (x86)\Microsoft Visual Studio\2019\Community\VC\Tools\MSVC\14.29.30133\atlmfc\include\afxwin1.inl

; 639  : 		VERIFY(::GetTextExtentPoint32(m_hAttribDC, str, (int)str.GetLength(), &size));

  00092	8d 45 ec	 lea	 eax, DWORD PTR _size$4[ebp]
  00095	50		 push	 eax
  00096	8b 45 14	 mov	 eax, DWORD PTR $T5[ebp]
  00099	ff 70 f4	 push	 DWORD PTR [eax-12]
  0009c	50		 push	 eax
  0009d	8b 45 0c	 mov	 eax, DWORD PTR _pDC$[ebp]
  000a0	ff 70 08	 push	 DWORD PTR [eax+8]
  000a3	ff 15 00 00 00
	00		 call	 DWORD PTR __imp__GetTextExtentPoint32A@16
; File C:\Program Files (x86)\Microsoft Visual Studio\2019\Community\VC\Tools\MSVC\14.29.30133\atlmfc\include\atltypes.h

; 313  : 	cy = initCY;

  000a9	8b 45 f0	 mov	 eax, DWORD PTR _size$4[ebp+4]
; File D:\git\src\IBK\IBK_DRFN\ProjSrc\SrcChartEx\ChartOCX\ChartObject\DrawingRegionCalculator.cpp

; 807  : 	return GetMaxScaleTextSize(pDC->GetTextExtent("0"), nLength, textCompart);

  000ac	8d 4d 14	 lea	 ecx, DWORD PTR $T5[ebp]
; File C:\Program Files (x86)\Microsoft Visual Studio\2019\Community\VC\Tools\MSVC\14.29.30133\atlmfc\include\atltypes.h

; 313  : 	cy = initCY;

  000af	89 46 04	 mov	 DWORD PTR [esi+4], eax
; File D:\git\src\IBK\IBK_DRFN\ProjSrc\SrcChartEx\ChartOCX\ChartObject\DrawingRegionCalculator.cpp

; 819  : 	return CSize(textSize.cx*nLength, textSize.cy);

  000b2	8b 45 ec	 mov	 eax, DWORD PTR _size$4[ebp]
  000b5	0f af c7	 imul	 eax, edi

; 807  : 	return GetMaxScaleTextSize(pDC->GetTextExtent("0"), nLength, textCompart);

  000b8	89 06		 mov	 DWORD PTR [esi], eax
  000ba	ff 15 00 00 00
	00		 call	 DWORD PTR __imp_??1?$CStringT@DV?$StrTraitMFC_DLL@DV?$ChTraitsCRT@D@ATL@@@@@ATL@@QAE@XZ
$LN31@GetMaxScal:

; 474  : 	return GetMaxScaleTextSize(pDC, nMaxLength);
; 475  : }

  000c0	8b c6		 mov	 eax, esi
  000c2	8b 4d f4	 mov	 ecx, DWORD PTR __$EHRec$[ebp]
  000c5	64 89 0d 00 00
	00 00		 mov	 DWORD PTR fs:0, ecx
  000cc	59		 pop	 ecx
  000cd	5f		 pop	 edi
  000ce	5e		 pop	 esi
  000cf	8b e5		 mov	 esp, ebp
  000d1	5d		 pop	 ebp
  000d2	c2 10 00	 ret	 16			; 00000010H
_TEXT	ENDS
;	COMDAT text$x
text$x	SEGMENT
__unwindfunclet$?GetMaxScaleTextSize_Packet@CTextSizeCalculator@@ABE?AVCSize@@PAVCDC@@PAVCPacket@@ABVCVertScaleMaxWidthCalculatorData@@@Z$0:
  00000	8d 4d 8c	 lea	 ecx, DWORD PTR $T2[ebp]
  00003	ff 25 00 00 00
	00		 jmp	 DWORD PTR __imp_??1CVerticalScale@@QAE@XZ
  00009	cc		 int	 3
  0000a	cc		 int	 3
  0000b	cc		 int	 3
  0000c	cc		 int	 3
  0000d	cc		 int	 3
__ehhandler$?GetMaxScaleTextSize_Packet@CTextSizeCalculator@@ABE?AVCSize@@PAVCDC@@PAVCPacket@@ABVCVertScaleMaxWidthCalculatorData@@@Z:
  0000e	90		 npad	 1
  0000f	90		 npad	 1
  00010	8b 54 24 08	 mov	 edx, DWORD PTR [esp+8]
  00014	8d 42 0c	 lea	 eax, DWORD PTR [edx+12]
  00017	8b 4a 8c	 mov	 ecx, DWORD PTR [edx-116]
  0001a	33 c8		 xor	 ecx, eax
  0001c	e8 00 00 00 00	 call	 @__security_check_cookie@4
  00021	b8 00 00 00 00	 mov	 eax, OFFSET __ehfuncinfo$?GetMaxScaleTextSize_Packet@CTextSizeCalculator@@ABE?AVCSize@@PAVCDC@@PAVCPacket@@ABVCVertScaleMaxWidthCalculatorData@@@Z
  00026	e9 00 00 00 00	 jmp	 ___CxxFrameHandler3
text$x	ENDS
?GetMaxScaleTextSize_Packet@CTextSizeCalculator@@ABE?AVCSize@@PAVCDC@@PAVCPacket@@ABVCVertScaleMaxWidthCalculatorData@@@Z ENDP ; CTextSizeCalculator::GetMaxScaleTextSize_Packet
; Function compile flags: /Ogtp
; File D:\git\src\IBK\IBK_DRFN\ProjSrc\SrcChartEx\ChartOCX\ChartObject\DrawingRegionCalculator.cpp
; File C:\Program Files (x86)\Microsoft Visual Studio\2019\Community\VC\Tools\MSVC\14.29.30133\atlmfc\include\cstringt.h
; File D:\git\src\IBK\IBK_DRFN\ProjSrc\SrcChartEx\ChartOCX\ChartObject\DrawingRegionCalculator.cpp
; File C:\Program Files (x86)\Microsoft Visual Studio\2019\Community\VC\Tools\MSVC\14.29.30133\atlmfc\include\cstringt.h
; File D:\git\src\IBK\IBK_DRFN\ProjSrc\SrcChartEx\ChartOCX\ChartObject\DrawingRegionCalculator.cpp
; File C:\Program Files (x86)\Microsoft Visual Studio\2019\Community\VC\Tools\MSVC\14.29.30133\atlmfc\include\atltypes.h
; File D:\git\src\IBK\IBK_DRFN\ProjSrc\SrcChartEx\ChartOCX\ChartObject\DrawingRegionCalculator.cpp
; File C:\Program Files (x86)\Microsoft Visual Studio\2019\Community\VC\Tools\MSVC\14.29.30133\atlmfc\include\afxwin1.inl
; File C:\Program Files (x86)\Microsoft Visual Studio\2019\Community\VC\Tools\MSVC\14.29.30133\atlmfc\include\atltypes.h
; File D:\git\src\IBK\IBK_DRFN\ProjSrc\SrcChartEx\ChartOCX\ChartObject\DrawingRegionCalculator.cpp
; File C:\Program Files (x86)\Microsoft Visual Studio\2019\Community\VC\Tools\MSVC\14.29.30133\atlmfc\include\atltypes.h
; File D:\git\src\IBK\IBK_DRFN\ProjSrc\SrcChartEx\ChartOCX\ChartObject\DrawingRegionCalculator.cpp
;	COMDAT ?GetMaxScaleTextSize_Packet@CTextSizeCalculator@@ABE?AVCSize@@PAVCDC@@ABVCVertScaleMaxWidthCalculatorData@@@Z
_TEXT	SEGMENT
$T2 = -152						; size = 88
$T3 = -64						; size = 8
$T4 = -56						; size = 4
_eVertScaleUnitType$1$ = -52				; size = 4
$T5 = -48						; size = 4
$T6 = -44						; size = 4
_size$7 = -40						; size = 8
_displayAttributes$1$ = -36				; size = 4
_pos$8 = -32						; size = 4
_pSubGraphPacketList$1$ = -28				; size = 4
_this$1$ = -24						; size = 4
$T9 = -20						; size = 4
$T10 = -13						; size = 1
__$EHRec$ = -12						; size = 12
___$ReturnUdt$ = 8					; size = 4
_pDC$ = 12						; size = 4
$T11 = 16						; size = 4
_calData$ = 16						; size = 4
?GetMaxScaleTextSize_Packet@CTextSizeCalculator@@ABE?AVCSize@@PAVCDC@@ABVCVertScaleMaxWidthCalculatorData@@@Z PROC ; CTextSizeCalculator::GetMaxScaleTextSize_Packet, COMDAT
; _this$ = ecx

; 463  : {

  00000	55		 push	 ebp
  00001	8b ec		 mov	 ebp, esp
  00003	6a ff		 push	 -1
  00005	68 00 00 00 00	 push	 __ehhandler$?GetMaxScaleTextSize_Packet@CTextSizeCalculator@@ABE?AVCSize@@PAVCDC@@ABVCVertScaleMaxWidthCalculatorData@@@Z
  0000a	64 a1 00 00 00
	00		 mov	 eax, DWORD PTR fs:0
  00010	50		 push	 eax
  00011	81 ec 8c 00 00
	00		 sub	 esp, 140		; 0000008cH
  00017	53		 push	 ebx
  00018	56		 push	 esi
  00019	57		 push	 edi
  0001a	a1 00 00 00 00	 mov	 eax, DWORD PTR ___security_cookie
  0001f	33 c5		 xor	 eax, ebp
  00021	50		 push	 eax
  00022	8d 45 f4	 lea	 eax, DWORD PTR __$EHRec$[ebp]
  00025	64 a3 00 00 00
	00		 mov	 DWORD PTR fs:0, eax
  0002b	89 4d e8	 mov	 DWORD PTR _this$1$[ebp], ecx

; 464  : 	int nMaxLength = GetMaxPacketDataLength(calData.GetGraphName(), calData.GetSubGraphPacketList(), 

  0002e	8b 5d 10	 mov	 ebx, DWORD PTR _calData$[ebp]
  00031	8d 85 68 ff ff
	ff		 lea	 eax, DWORD PTR $T2[ebp]
  00037	50		 push	 eax
