; Listing generated by Microsoft (R) Optimizing Compiler Version 19.29.30145.0 

	TITLE	D:\git\src\IBK\IBK_DRFN\#DRfn-CS\_Obj\ChartObject\GraphMove.obj
	.686P
	.XMM
	include listing.inc
	.model	flat

INCLUDELIB MSVCRT
INCLUDELIB OLDNAMES

PUBLIC	?__empty_global_delete@@YAXPAX@Z		; __empty_global_delete
PUBLIC	?__empty_global_delete@@YAXPAXI@Z		; __empty_global_delete
PUBLIC	??1CObject@@UAE@XZ				; CObject::~CObject
PUBLIC	?Serialize@CObject@@UAEXAAVCArchive@@@Z		; CObject::Serialize
PUBLIC	?AssertValid@CObject@@UBEXXZ			; CObject::AssertValid
PUBLIC	?Dump@CObject@@UBEXAAVCDumpContext@@@Z		; CObject::Dump
PUBLIC	??0CGraphMove@@QAE@PAVCWnd@@@Z			; CGraphMove::CGraphMove
PUBLIC	?InitializeAllData@CGraphMove@@QAEXPAVCWnd@@@Z	; CGraphMove::InitializeAllData
PUBLIC	?SetGraphMoving@CGraphMove@@QAEX_N@Z		; CGraphMove::SetGraphMoving
PUBLIC	?IsGraphMoving@CGraphMove@@QBE_NXZ		; CGraphMove::IsGraphMoving
PUBLIC	?GraphMoving@CGraphMove@@QAE_NPAVCMainBlock@@PAVCGraphImp@@ABVCPoint@@@Z ; CGraphMove::GraphMoving
PUBLIC	?IsGraphInsert@CGraphMove@@ABE_NPAVCMainBlock@@PAVCGraphImp@@ABVCPoint@@ABVCRect@@ABH4@Z ; CGraphMove::IsGraphInsert
PUBLIC	?IsGraphMoving@CGraphMove@@ABE_NPAVCMainBlock@@PAVCGraphImp@@ABVCPoint@@ABVCRect@@@Z ; CGraphMove::IsGraphMoving
PUBLIC	?IsPriceChartScaleGroup@CGraphMove@@ABE_NPAVCGraphImp@@@Z ; CGraphMove::IsPriceChartScaleGroup
PUBLIC	?MessageBox_NoGraphMoving@CGraphMove@@ABEXABV?$CStringT@DV?$StrTraitMFC_DLL@DV?$ChTraitsCRT@D@ATL@@@@@ATL@@@Z ; CGraphMove::MessageBox_NoGraphMoving
PUBLIC	?GetVertScaleGroupDataList@CGraphMove@@ABE?AVCVerticalScaleGroupDataList@@PAVCGraphImp@@ABVCVertScaleGroupList@@@Z ; CGraphMove::GetVertScaleGroupDataList
PUBLIC	?GetMovingGraphDeque@CGraphMove@@AAE?AVCMovingGraphDeque@@PAVCGraphImp@@@Z ; CGraphMove::GetMovingGraphDeque
PUBLIC	?AddMovingGraph@CGraphMove@@AAEXPAVCVertScaleGroupList@@ABV?$CStringT@DV?$StrTraitMFC_DLL@DV?$ChTraitsCRT@D@ATL@@@@@ATL@@AAVCMovingGraphDeque@@@Z ; CGraphMove::AddMovingGraph
PUBLIC	?LoadDialog_GraphMoving@CGraphMove@@AAE_NPAVCMainBlock@@PAVCGraphImp@@ABVCPoint@@@Z ; CGraphMove::LoadDialog_GraphMoving
PUBLIC	?LoadDialog_GraphMoving@CGraphMove@@AAE_NPAVCMainBlock@@PAVCGraphImp@@ABVCVerticalScaleGroupDataList@@ABV?$CStringT@DV?$StrTraitMFC_DLL@DV?$ChTraitsCRT@D@ATL@@@@@ATL@@AAVCMovingGraphVertScaleData@@@Z ; CGraphMove::LoadDialog_GraphMoving
PUBLIC	?GraphMoving@CGraphMove@@AAE_NPAVCGraphImp@@PAVCVertScaleGroupList@@ABVCMovingGraphVertScaleData@@@Z ; CGraphMove::GraphMoving
PUBLIC	?GraphMoving@CGraphMove@@AAE_NPAVCVertScaleGroupList@@ABVCMovingGraphVertScaleData@@ABVCMovingGraphDeque@@@Z ; CGraphMove::GraphMoving
PUBLIC	?SetVertScaleGridType@CGraphMove@@AAEXPAVCVertScaleGroupList@@@Z ; CGraphMove::SetVertScaleGridType
PUBLIC	?LoadResourceDLL@IMetaTable@@QAEPAUHINSTANCE__@@PAUHWND__@@PAU2@@Z ; IMetaTable::LoadResourceDLL
PUBLIC	??1CMultiLanguageResourceSetter@@QAE@XZ		; CMultiLanguageResourceSetter::~CMultiLanguageResourceSetter
PUBLIC	??0exception@std@@QAE@ABV01@@Z			; std::exception::exception
PUBLIC	??1exception@std@@UAE@XZ			; std::exception::~exception
PUBLIC	?what@exception@std@@UBEPBDXZ			; std::exception::what
PUBLIC	??_Gexception@std@@UAEPAXI@Z			; std::exception::`scalar deleting destructor'
PUBLIC	??0bad_alloc@std@@QAE@ABV01@@Z			; std::bad_alloc::bad_alloc
PUBLIC	??_Gbad_alloc@std@@UAEPAXI@Z			; std::bad_alloc::`scalar deleting destructor'
PUBLIC	??0bad_array_new_length@std@@QAE@XZ		; std::bad_array_new_length::bad_array_new_length
PUBLIC	??1bad_array_new_length@std@@UAE@XZ		; std::bad_array_new_length::~bad_array_new_length
PUBLIC	??0bad_array_new_length@std@@QAE@ABV01@@Z	; std::bad_array_new_length::bad_array_new_length
PUBLIC	??_Gbad_array_new_length@std@@UAEPAXI@Z		; std::bad_array_new_length::`scalar deleting destructor'
PUBLIC	?_Throw_bad_array_new_length@std@@YAXXZ		; std::_Throw_bad_array_new_length
PUBLIC	??1CMovingGraphVertScaleData@@QAE@XZ		; CMovingGraphVertScaleData::~CMovingGraphVertScaleData
PUBLIC	??1CVerticalScaleGroupData@@QAE@XZ		; CVerticalScaleGroupData::~CVerticalScaleGroupData
PUBLIC	?AddTail@?$CList@VCVerticalScaleGroupData@@AAV1@@@QAEPAU__POSITION@@AAVCVerticalScaleGroupData@@@Z ; CList<CVerticalScaleGroupData,CVerticalScaleGroupData &>::AddTail
PUBLIC	?RemoveAll@?$CList@VCVerticalScaleGroupData@@AAV1@@@QAEXXZ ; CList<CVerticalScaleGroupData,CVerticalScaleGroupData &>::RemoveAll
PUBLIC	?NewNode@?$CList@VCVerticalScaleGroupData@@AAV1@@@IAEPAUCNode@1@PAU21@0@Z ; CList<CVerticalScaleGroupData,CVerticalScaleGroupData &>::NewNode
PUBLIC	??1?$CList@VCVerticalScaleGroupData@@AAV1@@@UAE@XZ ; CList<CVerticalScaleGroupData,CVerticalScaleGroupData &>::~CList<CVerticalScaleGroupData,CVerticalScaleGroupData &>
PUBLIC	?Serialize@?$CList@VCVerticalScaleGroupData@@AAV1@@@UAEXAAVCArchive@@@Z ; CList<CVerticalScaleGroupData,CVerticalScaleGroupData &>::Serialize
PUBLIC	??_G?$CList@VCVerticalScaleGroupData@@AAV1@@@UAEPAXI@Z ; CList<CVerticalScaleGroupData,CVerticalScaleGroupData &>::`scalar deleting destructor'
PUBLIC	??1CVerticalScaleGroupDataList@@QAE@XZ		; CVerticalScaleGroupDataList::~CVerticalScaleGroupDataList
PUBLIC	?_Tidy@?$deque@PAVCGraphImp@@V?$allocator@PAVCGraphImp@@@std@@@std@@AAEXXZ ; std::deque<CGraphImp *,std::allocator<CGraphImp *> >::_Tidy
PUBLIC	??1CMovingGraphDeque@@QAE@XZ			; CMovingGraphDeque::~CMovingGraphDeque
PUBLIC	??1CGraphSearchInfo_IndicatorName@@QAE@XZ	; CGraphSearchInfo_IndicatorName::~CGraphSearchInfo_IndicatorName
PUBLIC	??1CDlgGraphMove@@UAE@XZ			; CDlgGraphMove::~CDlgGraphMove
PUBLIC	??$SerializeElements@VCVerticalScaleGroupData@@@@YGXAAVCArchive@@PAVCVerticalScaleGroupData@@H@Z ; SerializeElements<CVerticalScaleGroupData>
PUBLIC	??$_Allocate_manually_vector_aligned@U_Default_allocate_traits@std@@@std@@YAPAXI@Z ; std::_Allocate_manually_vector_aligned<std::_Default_allocate_traits>
PUBLIC	??$uninitialized_copy@PAPAPAVCGraphImp@@PAPAPAV1@@std@@YAPAPAPAVCGraphImp@@QAPAPAV1@0PAPAPAV1@@Z ; std::uninitialized_copy<CGraphImp * * *,CGraphImp * * *>
PUBLIC	??$_Uninitialized_value_construct_n_unchecked1@PAPAPAVCGraphImp@@I@std@@YAPAPAPAVCGraphImp@@PAPAPAV1@I@Z ; std::_Uninitialized_value_construct_n_unchecked1<CGraphImp * * *,unsigned int>
PUBLIC	??$_Zero_range@PAPAPAVCGraphImp@@@std@@YAPAPAPAVCGraphImp@@QAPAPAV1@0@Z ; std::_Zero_range<CGraphImp * * *>
PUBLIC	??$_Copy_memmove@PAPAPAVCGraphImp@@PAPAPAV1@@std@@YAPAPAPAVCGraphImp@@PAPAPAV1@00@Z ; std::_Copy_memmove<CGraphImp * * *,CGraphImp * * *>
PUBLIC	??_R0?AVCObject@@@8				; CObject `RTTI Type Descriptor'
PUBLIC	??_R3CObject@@8					; CObject::`RTTI Class Hierarchy Descriptor'
PUBLIC	??_R2CObject@@8					; CObject::`RTTI Base Class Array'
PUBLIC	??_R1A@?0A@EA@CObject@@8			; CObject::`RTTI Base Class Descriptor at (0,-1,0,64)'
PUBLIC	??_C@_0BA@ENJOCHIO@LoadResourceDLL@		; `string'
PUBLIC	??_7exception@std@@6B@				; std::exception::`vftable'
PUBLIC	??_C@_0BC@EOODALEL@Unknown?5exception@		; `string'
PUBLIC	??_7bad_alloc@std@@6B@				; std::bad_alloc::`vftable'
PUBLIC	??_7bad_array_new_length@std@@6B@		; std::bad_array_new_length::`vftable'
PUBLIC	??_C@_0BF@KINCDENJ@bad?5array?5new?5length@	; `string'
PUBLIC	__TI3?AVbad_array_new_length@std@@
PUBLIC	__CTA3?AVbad_array_new_length@std@@
PUBLIC	??_R0?AVbad_array_new_length@std@@@8		; std::bad_array_new_length `RTTI Type Descriptor'
PUBLIC	__CT??_R0?AVbad_array_new_length@std@@@8??0bad_array_new_length@std@@QAE@ABV01@@Z12
PUBLIC	??_R0?AVbad_alloc@std@@@8			; std::bad_alloc `RTTI Type Descriptor'
PUBLIC	__CT??_R0?AVbad_alloc@std@@@8??0bad_alloc@std@@QAE@ABV01@@Z12
PUBLIC	??_R0?AVexception@std@@@8			; std::exception `RTTI Type Descriptor'
PUBLIC	__CT??_R0?AVexception@std@@@8??0exception@std@@QAE@ABV01@@Z12
PUBLIC	??_7?$CList@VCVerticalScaleGroupData@@AAV1@@@6B@ ; CList<CVerticalScaleGroupData,CVerticalScaleGroupData &>::`vftable'
PUBLIC	??_7CGraphSearchInfo_HasVertScale@@6B@		; CGraphSearchInfo_HasVertScale::`vftable'
PUBLIC	??_7CGraphSearchInfo_HasVertScaleAndGridLine@@6B@ ; CGraphSearchInfo_HasVertScaleAndGridLine::`vftable'
PUBLIC	??_7CGraphSearchInfo_AnyGraph@@6B@		; CGraphSearchInfo_AnyGraph::`vftable'
PUBLIC	??_7CGraphSearchInfo_IndicatorName@@6B@		; CGraphSearchInfo_IndicatorName::`vftable'
PUBLIC	??_C@_07MGCPDNLD@DEFAULT@			; `string'
PUBLIC	??_C@_09GNIPIPGA@New?5Scale@			; `string'
PUBLIC	??_C@_0BC@KBDMBKEH@deque?$DMT?$DO?5too?5long@	; `string'
PUBLIC	??_R4exception@std@@6B@				; std::exception::`RTTI Complete Object Locator'
PUBLIC	??_R3exception@std@@8				; std::exception::`RTTI Class Hierarchy Descriptor'
PUBLIC	??_R2exception@std@@8				; std::exception::`RTTI Base Class Array'
PUBLIC	??_R1A@?0A@EA@exception@std@@8			; std::exception::`RTTI Base Class Descriptor at (0,-1,0,64)'
PUBLIC	??_R4bad_alloc@std@@6B@				; std::bad_alloc::`RTTI Complete Object Locator'
PUBLIC	??_R3bad_alloc@std@@8				; std::bad_alloc::`RTTI Class Hierarchy Descriptor'
PUBLIC	??_R2bad_alloc@std@@8				; std::bad_alloc::`RTTI Base Class Array'
PUBLIC	??_R1A@?0A@EA@bad_alloc@std@@8			; std::bad_alloc::`RTTI Base Class Descriptor at (0,-1,0,64)'
PUBLIC	??_R4bad_array_new_length@std@@6B@		; std::bad_array_new_length::`RTTI Complete Object Locator'
PUBLIC	??_R3bad_array_new_length@std@@8		; std::bad_array_new_length::`RTTI Class Hierarchy Descriptor'
PUBLIC	??_R2bad_array_new_length@std@@8		; std::bad_array_new_length::`RTTI Base Class Array'
PUBLIC	??_R1A@?0A@EA@bad_array_new_length@std@@8	; std::bad_array_new_length::`RTTI Base Class Descriptor at (0,-1,0,64)'
PUBLIC	??_R4?$CList@VCVerticalScaleGroupData@@AAV1@@@6B@ ; CList<CVerticalScaleGroupData,CVerticalScaleGroupData &>::`RTTI Complete Object Locator'
PUBLIC	??_R0?AV?$CList@VCVerticalScaleGroupData@@AAV1@@@@8 ; CList<CVerticalScaleGroupData,CVerticalScaleGroupData &> `RTTI Type Descriptor'
PUBLIC	??_R3?$CList@VCVerticalScaleGroupData@@AAV1@@@8	; CList<CVerticalScaleGroupData,CVerticalScaleGroupData &>::`RTTI Class Hierarchy Descriptor'
PUBLIC	??_R2?$CList@VCVerticalScaleGroupData@@AAV1@@@8	; CList<CVerticalScaleGroupData,CVerticalScaleGroupData &>::`RTTI Base Class Array'
PUBLIC	??_R1A@?0A@EA@?$CList@VCVerticalScaleGroupData@@AAV1@@@8 ; CList<CVerticalScaleGroupData,CVerticalScaleGroupData &>::`RTTI Base Class Descriptor at (0,-1,0,64)'
PUBLIC	??_R4CGraphSearchInfo_HasVertScale@@6B@		; CGraphSearchInfo_HasVertScale::`RTTI Complete Object Locator'
PUBLIC	??_R0?AVCGraphSearchInfo_HasVertScale@@@8	; CGraphSearchInfo_HasVertScale `RTTI Type Descriptor'
PUBLIC	??_R3CGraphSearchInfo_HasVertScale@@8		; CGraphSearchInfo_HasVertScale::`RTTI Class Hierarchy Descriptor'
PUBLIC	??_R2CGraphSearchInfo_HasVertScale@@8		; CGraphSearchInfo_HasVertScale::`RTTI Base Class Array'
PUBLIC	??_R1A@?0A@EA@CGraphSearchInfo_HasVertScale@@8	; CGraphSearchInfo_HasVertScale::`RTTI Base Class Descriptor at (0,-1,0,64)'
PUBLIC	??_R1A@?0A@EA@CGraphSearchInfo@@8		; CGraphSearchInfo::`RTTI Base Class Descriptor at (0,-1,0,64)'
PUBLIC	??_R0?AVCGraphSearchInfo@@@8			; CGraphSearchInfo `RTTI Type Descriptor'
PUBLIC	??_R3CGraphSearchInfo@@8			; CGraphSearchInfo::`RTTI Class Hierarchy Descriptor'
PUBLIC	??_R2CGraphSearchInfo@@8			; CGraphSearchInfo::`RTTI Base Class Array'
PUBLIC	??_R4CGraphSearchInfo_HasVertScaleAndGridLine@@6B@ ; CGraphSearchInfo_HasVertScaleAndGridLine::`RTTI Complete Object Locator'
PUBLIC	??_R0?AVCGraphSearchInfo_HasVertScaleAndGridLine@@@8 ; CGraphSearchInfo_HasVertScaleAndGridLine `RTTI Type Descriptor'
PUBLIC	??_R3CGraphSearchInfo_HasVertScaleAndGridLine@@8 ; CGraphSearchInfo_HasVertScaleAndGridLine::`RTTI Class Hierarchy Descriptor'
PUBLIC	??_R2CGraphSearchInfo_HasVertScaleAndGridLine@@8 ; CGraphSearchInfo_HasVertScaleAndGridLine::`RTTI Base Class Array'
PUBLIC	??_R1A@?0A@EA@CGraphSearchInfo_HasVertScaleAndGridLine@@8 ; CGraphSearchInfo_HasVertScaleAndGridLine::`RTTI Base Class Descriptor at (0,-1,0,64)'
PUBLIC	??_R4CGraphSearchInfo_AnyGraph@@6B@		; CGraphSearchInfo_AnyGraph::`RTTI Complete Object Locator'
PUBLIC	??_R0?AVCGraphSearchInfo_AnyGraph@@@8		; CGraphSearchInfo_AnyGraph `RTTI Type Descriptor'
PUBLIC	??_R3CGraphSearchInfo_AnyGraph@@8		; CGraphSearchInfo_AnyGraph::`RTTI Class Hierarchy Descriptor'
PUBLIC	??_R2CGraphSearchInfo_AnyGraph@@8		; CGraphSearchInfo_AnyGraph::`RTTI Base Class Array'
PUBLIC	??_R1A@?0A@EA@CGraphSearchInfo_AnyGraph@@8	; CGraphSearchInfo_AnyGraph::`RTTI Base Class Descriptor at (0,-1,0,64)'
PUBLIC	??_R4CGraphSearchInfo_IndicatorName@@6B@	; CGraphSearchInfo_IndicatorName::`RTTI Complete Object Locator'
PUBLIC	??_R0?AVCGraphSearchInfo_IndicatorName@@@8	; CGraphSearchInfo_IndicatorName `RTTI Type Descriptor'
PUBLIC	??_R3CGraphSearchInfo_IndicatorName@@8		; CGraphSearchInfo_IndicatorName::`RTTI Class Hierarchy Descriptor'
PUBLIC	??_R2CGraphSearchInfo_IndicatorName@@8		; CGraphSearchInfo_IndicatorName::`RTTI Base Class Array'
PUBLIC	??_R1A@?0A@EA@CGraphSearchInfo_IndicatorName@@8	; CGraphSearchInfo_IndicatorName::`RTTI Base Class Descriptor at (0,-1,0,64)'
EXTRN	??_L@YGXPAXIIP6EX0@Z1@Z:PROC			; `eh vector constructor iterator'
EXTRN	??_M@YGXPAXIIP6EX0@Z@Z:PROC			; `eh vector destructor iterator'
EXTRN	??2@YAPAXI@Z:PROC				; operator new
EXTRN	??3@YAXPAX@Z:PROC				; operator delete
EXTRN	??3@YAXPAXI@Z:PROC				; operator delete
EXTRN	?__global_delete@@YAXPAXI@Z:PROC		; __global_delete
EXTRN	___std_terminate:PROC
EXTRN	__imp___invalid_parameter_noinfo_noreturn:PROC
EXTRN	__imp__strncmp:PROC
EXTRN	__imp__GetProcAddress@8:PROC
EXTRN	__imp__MessageBoxA@16:PROC
EXTRN	__imp__IsRectEmpty@4:PROC
EXTRN	__imp__PtInRect@12:PROC
EXTRN	?AfxThrowInvalidArgException@@YGXXZ:PROC	; AfxThrowInvalidArgException
EXTRN	?AfxThrowArchiveException@@YGXHPBD@Z:PROC	; AfxThrowArchiveException
EXTRN	?GetRuntimeClass@CObject@@UBEPAUCRuntimeClass@@XZ:PROC ; CObject::GetRuntimeClass
EXTRN	__imp_??0?$CStringT@DV?$StrTraitMFC_DLL@DV?$ChTraitsCRT@D@ATL@@@@@ATL@@QAE@XZ:PROC
EXTRN	__imp_??0?$CStringT@DV?$StrTraitMFC_DLL@DV?$ChTraitsCRT@D@ATL@@@@@ATL@@QAE@PBD@Z:PROC
EXTRN	__imp_??1?$CStringT@DV?$StrTraitMFC_DLL@DV?$ChTraitsCRT@D@ATL@@@@@ATL@@QAE@XZ:PROC
EXTRN	__imp_??4?$CStringT@DV?$StrTraitMFC_DLL@DV?$ChTraitsCRT@D@ATL@@@@@ATL@@QAEAAV01@ABV01@@Z:PROC
EXTRN	__imp_??Y?$CStringT@DV?$StrTraitMFC_DLL@DV?$ChTraitsCRT@D@ATL@@@@@ATL@@QAEAAV01@ABV?$CSimpleStringT@D$00@1@@Z:PROC
EXTRN	__imp_?Compare@?$CStringT@DV?$StrTraitMFC_DLL@DV?$ChTraitsCRT@D@ATL@@@@@ATL@@QBEHPBD@Z:PROC
EXTRN	__imp_?Format@?$CStringT@DV?$StrTraitMFC_DLL@DV?$ChTraitsCRT@D@ATL@@@@@ATL@@QAAXPBDZZ:PROC
EXTRN	__imp_?LoadStringA@?$CStringT@DV?$StrTraitMFC_DLL@DV?$ChTraitsCRT@D@ATL@@@@@ATL@@QAEHI@Z:PROC
EXTRN	?Read@CArchive@@QAEIPAXI@Z:PROC			; CArchive::Read
EXTRN	?Write@CArchive@@QAEXPBXI@Z:PROC		; CArchive::Write
EXTRN	?ReadCount@CArchive@@QAEKXZ:PROC		; CArchive::ReadCount
EXTRN	?WriteCount@CArchive@@QAEXK@Z:PROC		; CArchive::WriteCount
EXTRN	??0CStringList@@QAE@H@Z:PROC			; CStringList::CStringList
EXTRN	??1CStringList@@UAE@XZ:PROC			; CStringList::~CStringList
EXTRN	?AfxGetModuleState@@YGPAVAFX_MODULE_STATE@@XZ:PROC ; AfxGetModuleState
EXTRN	?AfxGetStaticModuleState@@YGPAVAFX_MODULE_STATE@@XZ:PROC ; AfxGetStaticModuleState
EXTRN	?Create@CPlex@@SGPAU1@AAPAU1@II@Z:PROC		; CPlex::Create
EXTRN	?FreeDataChain@CPlex@@QAEXXZ:PROC		; CPlex::FreeDataChain
EXTRN	?DoModal@CDialog@@UAEHXZ:PROC			; CDialog::DoModal
EXTRN	??1CDialog@@UAE@XZ:PROC				; CDialog::~CDialog
EXTRN	??1CComboBox@@UAE@XZ:PROC			; CComboBox::~CComboBox
EXTRN	?AfxMessageBox@@YGHPBDII@Z:PROC			; AfxMessageBox
EXTRN	?GetLanguageText@IMetaTable@@QAEPBDPAUHWND__@@W4E_CODEPAGE@1@PBDH@Z:PROC ; IMetaTable::GetLanguageText
EXTRN	?IsScaleGroup_Price@IMetaTable@@QAE_NABV?$CStringT@DV?$StrTraitMFC_DLL@DV?$ChTraitsCRT@D@ATL@@@@@ATL@@@Z:PROC ; IMetaTable::IsScaleGroup_Price
EXTRN	?IsSpecialGroupGraph@IMetaTable@@QAE_NPBD@Z:PROC ; IMetaTable::IsSpecialGroupGraph
EXTRN	___std_exception_copy:PROC
EXTRN	___std_exception_destroy:PROC
EXTRN	??_Eexception@std@@UAEPAXI@Z:PROC		; std::exception::`vector deleting destructor'
EXTRN	??_Ebad_alloc@std@@UAEPAXI@Z:PROC		; std::bad_alloc::`vector deleting destructor'
EXTRN	??_Ebad_array_new_length@std@@UAEPAXI@Z:PROC	; std::bad_array_new_length::`vector deleting destructor'
EXTRN	?_Xlength_error@std@@YAXPBD@Z:PROC		; std::_Xlength_error
EXTRN	__imp_?GetGraphIndicatorInfo@CIndicatorList@@QAEPAVCIndicatorInfo@@W4EIndicatorListType@@PBD1W4EIndicatorInfoGettingType@@@Z:PROC
EXTRN	__imp_?Make@CIndicatorInfo@@SAPAV1@PBV1@@Z:PROC
EXTRN	__imp_?CopyDataWithVerificationFrom@CIndicatorInfo@@QAE_NABV1@@Z:PROC
EXTRN	__imp_?GetGraphDataForMaking@CIndicatorInfo@@QBEXAAV?$CStringT@DV?$StrTraitMFC_DLL@DV?$ChTraitsCRT@D@ATL@@@@@ATL@@@Z:PROC
EXTRN	__imp_??4CVerticalScale@@QAEAAV0@ABV0@@Z:PROC
EXTRN	__imp_??1CVerticalScale@@QAE@XZ:PROC
EXTRN	__imp_??0CVerticalScale@@QAE@ABV0@@Z:PROC
EXTRN	??0CMovingGraphVertScaleData@@QAE@XZ:PROC	; CMovingGraphVertScaleData::CMovingGraphVertScaleData
EXTRN	?GetVertScaleGroupIndex@CMovingGraphVertScaleData@@QBEHXZ:PROC ; CMovingGraphVertScaleData::GetVertScaleGroupIndex
EXTRN	?GetVerticalScale@CMovingGraphVertScaleData@@QBE?AVCVerticalScale@@XZ:PROC ; CMovingGraphVertScaleData::GetVerticalScale
EXTRN	??4CVerticalScaleGroupData@@QAEAAV0@ABV0@@Z:PROC ; CVerticalScaleGroupData::operator=
EXTRN	??0CVerticalScaleGroupData@@QAE@XZ:PROC		; CVerticalScaleGroupData::CVerticalScaleGroupData
EXTRN	??0CVerticalScaleGroupData@@QAE@ABVCVerticalScale@@ABV?$CStringT@DV?$StrTraitMFC_DLL@DV?$ChTraitsCRT@D@ATL@@@@@ATL@@@Z:PROC ; CVerticalScaleGroupData::CVerticalScaleGroupData
EXTRN	??0CVerticalScaleGroupDataList@@QAE@XZ:PROC	; CVerticalScaleGroupDataList::CVerticalScaleGroupDataList
EXTRN	??0CVerticalScaleGroupDataList@@QAE@ABV0@@Z:PROC ; CVerticalScaleGroupDataList::CVerticalScaleGroupDataList
EXTRN	?AddTail@CVerticalScaleGroupDataList@@QAEXVCVerticalScaleGroupData@@@Z:PROC ; CVerticalScaleGroupDataList::AddTail
EXTRN	?GetCount@CVerticalScaleGroupDataList@@QBEHXZ:PROC ; CVerticalScaleGroupDataList::GetCount
EXTRN	??_E?$CList@VCVerticalScaleGroupData@@AAV1@@@UAEPAXI@Z:PROC ; CList<CVerticalScaleGroupData,CVerticalScaleGroupData &>::`vector deleting destructor'
EXTRN	__imp_?GetGraphName@CGraphData@@QBE?AV?$CStringT@DV?$StrTraitMFC_DLL@DV?$ChTraitsCRT@D@ATL@@@@@ATL@@XZ:PROC
EXTRN	__imp_?GetGraphName2@CGraphData@@QBE?AV?$CStringT@DV?$StrTraitMFC_DLL@DV?$ChTraitsCRT@D@ATL@@@@@ATL@@XZ:PROC
EXTRN	__imp_?GetIndicatorName2@CGraphData@@QBE?AV?$CStringT@DV?$StrTraitMFC_DLL@DV?$ChTraitsCRT@D@ATL@@@@@ATL@@XZ:PROC
EXTRN	?GetGraphRegions@CVertScaleGroupList@@QBE?AVCGraphRegions@@XZ:PROC ; CVertScaleGroupList::GetGraphRegions
EXTRN	?RemoveAll@CVertScaleGroupList@@QAEX_N@Z:PROC	; CVertScaleGroupList::RemoveAll
EXTRN	?FindGraph@CVertScaleGroupList@@QBEHPAVCGraphSearchInfo@@@Z:PROC ; CVertScaleGroupList::FindGraph
EXTRN	?MoveGraph@CVertScaleGroupList@@QAE_NPAVCGraphImp@@H_N1@Z:PROC ; CVertScaleGroupList::MoveGraph
EXTRN	?GetVertScaleGroupDataList@CVertScaleGroupList@@QBE_NAAVCVerticalScaleGroupDataList@@@Z:PROC ; CVertScaleGroupList::GetVertScaleGroupDataList
EXTRN	?SetActivate@CVertScaleGroupList@@QAEXPAVCVertScaleGroup@@H@Z:PROC ; CVertScaleGroupList::SetActivate
EXTRN	?GetVertScaleGroupList@CBlockImp@@QAEAAVCVertScaleGroupList@@XZ:PROC ; CBlockImp::GetVertScaleGroupList
EXTRN	?IsViewableGraphType@CSubGraphList@@QBE_NW4GRAPHTYPE@CGraphBaseData@@H@Z:PROC ; CSubGraphList::IsViewableGraphType
EXTRN	?GetVertScaleGroupList@CGraphImp@@QBEPAVCVertScaleGroupList@@XZ:PROC ; CGraphImp::GetVertScaleGroupList
EXTRN	?GetVertScaleGroup@CGraphImp@@QBEPAVCVertScaleGroup@@XZ:PROC ; CGraphImp::GetVertScaleGroup
EXTRN	?GetGraphData@CGraphImp@@QAEAAVCGraphData@@XZ:PROC ; CGraphImp::GetGraphData
EXTRN	?GetSubGraphList@CGraphImp@@QAEAAVCSubGraphList@@XZ:PROC ; CGraphImp::GetSubGraphList
EXTRN	?GetIndicatorInfo@CGraphImp@@QAEPAVCIndicatorInfo@@XZ:PROC ; CGraphImp::GetIndicatorInfo
EXTRN	?GetStringGraphData@CGraphImp@@QBEXAAVCStringList@@@Z:PROC ; CGraphImp::GetStringGraphData
EXTRN	?GetPacketRQ@CGraphImp@@QAEPAVCPacketRQ@@XZ:PROC ; CGraphImp::GetPacketRQ
EXTRN	?SetVerticalScale@CVertScaleGroup@@QAEXABVCVerticalScale@@@Z:PROC ; CVertScaleGroup::SetVerticalScale
EXTRN	?GetVertScale@CVertScaleGroup@@QAEAAVCVerticalScale@@XZ:PROC ; CVertScaleGroup::GetVertScale
EXTRN	?AddTail@CMovingGraphDeque@@QAEXPAVCGraphImp@@@Z:PROC ; CMovingGraphDeque::AddTail
EXTRN	?GetCount@CMovingGraphDeque@@QBEHXZ:PROC	; CMovingGraphDeque::GetCount
EXTRN	?GetAt@CMovingGraphDeque@@QBEPAVCGraphImp@@H@Z:PROC ; CMovingGraphDeque::GetAt
EXTRN	??0CGraphSearchInfo@@QAE@XZ:PROC		; CGraphSearchInfo::CGraphSearchInfo
EXTRN	?FindGraph@CGraphSearchInfo@@UAEHPBVCBlocksColumn@@@Z:PROC ; CGraphSearchInfo::FindGraph
EXTRN	?FindGraph@CGraphSearchInfo@@UAEHPAXPBVCBlockImp@@@Z:PROC ; CGraphSearchInfo::FindGraph
EXTRN	?FindGraph@CGraphSearchInfo@@UAEHPBVCBlockImp@@@Z:PROC ; CGraphSearchInfo::FindGraph
EXTRN	?FindGraph@CGraphSearchInfo@@UAEHPAXPBVCVertScaleGroup@@@Z:PROC ; CGraphSearchInfo::FindGraph
EXTRN	?FindGraph@CGraphSearchInfo@@UAEHPBVCVertScaleGroup@@@Z:PROC ; CGraphSearchInfo::FindGraph
EXTRN	?FindGraph@CGraphSearchInfo@@UAEHPBVCGraphImp@@@Z:PROC ; CGraphSearchInfo::FindGraph
EXTRN	?FindGraph@CGraphSearchInfo@@UAEHPBVCSubGraph@@@Z:PROC ; CGraphSearchInfo::FindGraph
EXTRN	?FindGraph@CGraphSearchInfo_HasVertScale@@UAEHPBVCVertScaleGroup@@@Z:PROC ; CGraphSearchInfo_HasVertScale::FindGraph
EXTRN	?FindGraph@CGraphSearchInfo_HasVertScaleAndGridLine@@UAEHPBVCVertScaleGroup@@@Z:PROC ; CGraphSearchInfo_HasVertScaleAndGridLine::FindGraph
EXTRN	?FindGraph@CGraphSearchInfo_AnyGraph@@UAEHPBVCGraphImp@@@Z:PROC ; CGraphSearchInfo_AnyGraph::FindGraph
EXTRN	?FindGraph@CGraphSearchInfo_IndicatorName@@UAEHPBVCGraphImp@@@Z:PROC ; CGraphSearchInfo_IndicatorName::FindGraph
EXTRN	??0CDlgGraphMove@@QAE@PAVCWnd@@PAVCGraphImp@@ABVCVerticalScaleGroupDataList@@PAUIChartCtrl@@@Z:PROC ; CDlgGraphMove::CDlgGraphMove
EXTRN	?GetMovingGraphVertScaleData@CDlgGraphMove@@QBE?AVCMovingGraphVertScaleData@@XZ:PROC ; CDlgGraphMove::GetMovingGraphVertScaleData
EXTRN	@__security_check_cookie@4:PROC
EXTRN	__CxxThrowException@8:PROC
EXTRN	___CxxFrameHandler3:PROC
EXTRN	_memmove:PROC
EXTRN	_memset:PROC
EXTRN	??_7type_info@@6B@:QWORD			; type_info::`vftable'
EXTRN	?g_iMetaTable@@3VIMetaTable@@A:BYTE		; g_iMetaTable
EXTRN	___security_cookie:DWORD
;	COMDAT ??_R1A@?0A@EA@CGraphSearchInfo_IndicatorName@@8
rdata$r	SEGMENT
??_R1A@?0A@EA@CGraphSearchInfo_IndicatorName@@8 DD FLAT:??_R0?AVCGraphSearchInfo_IndicatorName@@@8 ; CGraphSearchInfo_IndicatorName::`RTTI Base Class Descriptor at (0,-1,0,64)'
	DD	01H
	DD	00H
	DD	0ffffffffH
	DD	00H
	DD	040H
	DD	FLAT:??_R3CGraphSearchInfo_IndicatorName@@8
rdata$r	ENDS
;	COMDAT ??_R2CGraphSearchInfo_IndicatorName@@8
rdata$r	SEGMENT
??_R2CGraphSearchInfo_IndicatorName@@8 DD FLAT:??_R1A@?0A@EA@CGraphSearchInfo_IndicatorName@@8 ; CGraphSearchInfo_IndicatorName::`RTTI Base Class Array'
	DD	FLAT:??_R1A@?0A@EA@CGraphSearchInfo@@8
rdata$r	ENDS
;	COMDAT ??_R3CGraphSearchInfo_IndicatorName@@8
rdata$r	SEGMENT
??_R3CGraphSearchInfo_IndicatorName@@8 DD 00H		; CGraphSearchInfo_IndicatorName::`RTTI Class Hierarchy Descriptor'
	DD	00H
	DD	02H
	DD	FLAT:??_R2CGraphSearchInfo_IndicatorName@@8
rdata$r	ENDS
;	COMDAT ??_R0?AVCGraphSearchInfo_IndicatorName@@@8
data$rs	SEGMENT
??_R0?AVCGraphSearchInfo_IndicatorName@@@8 DD FLAT:??_7type_info@@6B@ ; CGraphSearchInfo_IndicatorName `RTTI Type Descriptor'
	DD	00H
	DB	'.?AVCGraphSearchInfo_IndicatorName@@', 00H
data$rs	ENDS
;	COMDAT ??_R4CGraphSearchInfo_IndicatorName@@6B@
rdata$r	SEGMENT
??_R4CGraphSearchInfo_IndicatorName@@6B@ DD 00H		; CGraphSearchInfo_IndicatorName::`RTTI Complete Object Locator'
	DD	00H
	DD	00H
	DD	FLAT:??_R0?AVCGraphSearchInfo_IndicatorName@@@8
	DD	FLAT:??_R3CGraphSearchInfo_IndicatorName@@8
rdata$r	ENDS
;	COMDAT ??_R1A@?0A@EA@CGraphSearchInfo_AnyGraph@@8
rdata$r	SEGMENT
??_R1A@?0A@EA@CGraphSearchInfo_AnyGraph@@8 DD FLAT:??_R0?AVCGraphSearchInfo_AnyGraph@@@8 ; CGraphSearchInfo_AnyGraph::`RTTI Base Class Descriptor at (0,-1,0,64)'
	DD	01H
	DD	00H
	DD	0ffffffffH
	DD	00H
	DD	040H
	DD	FLAT:??_R3CGraphSearchInfo_AnyGraph@@8
rdata$r	ENDS
;	COMDAT ??_R2CGraphSearchInfo_AnyGraph@@8
rdata$r	SEGMENT
??_R2CGraphSearchInfo_AnyGraph@@8 DD FLAT:??_R1A@?0A@EA@CGraphSearchInfo_AnyGraph@@8 ; CGraphSearchInfo_AnyGraph::`RTTI Base Class Array'
	DD	FLAT:??_R1A@?0A@EA@CGraphSearchInfo@@8
rdata$r	ENDS
;	COMDAT ??_R3CGraphSearchInfo_AnyGraph@@8
rdata$r	SEGMENT
??_R3CGraphSearchInfo_AnyGraph@@8 DD 00H		; CGraphSearchInfo_AnyGraph::`RTTI Class Hierarchy Descriptor'
	DD	00H
	DD	02H
	DD	FLAT:??_R2CGraphSearchInfo_AnyGraph@@8
rdata$r	ENDS
;	COMDAT ??_R0?AVCGraphSearchInfo_AnyGraph@@@8
data$rs	SEGMENT
??_R0?AVCGraphSearchInfo_AnyGraph@@@8 DD FLAT:??_7type_info@@6B@ ; CGraphSearchInfo_AnyGraph `RTTI Type Descriptor'
	DD	00H
	DB	'.?AVCGraphSearchInfo_AnyGraph@@', 00H
data$rs	ENDS
;	COMDAT ??_R4CGraphSearchInfo_AnyGraph@@6B@
rdata$r	SEGMENT
??_R4CGraphSearchInfo_AnyGraph@@6B@ DD 00H		; CGraphSearchInfo_AnyGraph::`RTTI Complete Object Locator'
	DD	00H
	DD	00H
	DD	FLAT:??_R0?AVCGraphSearchInfo_AnyGraph@@@8
	DD	FLAT:??_R3CGraphSearchInfo_AnyGraph@@8
rdata$r	ENDS
;	COMDAT ??_R1A@?0A@EA@CGraphSearchInfo_HasVertScaleAndGridLine@@8
rdata$r	SEGMENT
??_R1A@?0A@EA@CGraphSearchInfo_HasVertScaleAndGridLine@@8 DD FLAT:??_R0?AVCGraphSearchInfo_HasVertScaleAndGridLine@@@8 ; CGraphSearchInfo_HasVertScaleAndGridLine::`RTTI Base Class Descriptor at (0,-1,0,64)'
	DD	02H
	DD	00H
	DD	0ffffffffH
	DD	00H
	DD	040H
	DD	FLAT:??_R3CGraphSearchInfo_HasVertScaleAndGridLine@@8
rdata$r	ENDS
;	COMDAT ??_R2CGraphSearchInfo_HasVertScaleAndGridLine@@8
rdata$r	SEGMENT
??_R2CGraphSearchInfo_HasVertScaleAndGridLine@@8 DD FLAT:??_R1A@?0A@EA@CGraphSearchInfo_HasVertScaleAndGridLine@@8 ; CGraphSearchInfo_HasVertScaleAndGridLine::`RTTI Base Class Array'
	DD	FLAT:??_R1A@?0A@EA@CGraphSearchInfo_HasVertScale@@8
	DD	FLAT:??_R1A@?0A@EA@CGraphSearchInfo@@8
rdata$r	ENDS
;	COMDAT ??_R3CGraphSearchInfo_HasVertScaleAndGridLine@@8
rdata$r	SEGMENT
??_R3CGraphSearchInfo_HasVertScaleAndGridLine@@8 DD 00H	; CGraphSearchInfo_HasVertScaleAndGridLine::`RTTI Class Hierarchy Descriptor'
	DD	00H
	DD	03H
	DD	FLAT:??_R2CGraphSearchInfo_HasVertScaleAndGridLine@@8
rdata$r	ENDS
;	COMDAT ??_R0?AVCGraphSearchInfo_HasVertScaleAndGridLine@@@8
data$rs	SEGMENT
??_R0?AVCGraphSearchInfo_HasVertScaleAndGridLine@@@8 DD FLAT:??_7type_info@@6B@ ; CGraphSearchInfo_HasVertScaleAndGridLine `RTTI Type Descriptor'
	DD	00H
	DB	'.?AVCGraphSearchInfo_HasVertScaleAndGridLine@@', 00H
data$rs	ENDS
;	COMDAT ??_R4CGraphSearchInfo_HasVertScaleAndGridLine@@6B@
rdata$r	SEGMENT
??_R4CGraphSearchInfo_HasVertScaleAndGridLine@@6B@ DD 00H ; CGraphSearchInfo_HasVertScaleAndGridLine::`RTTI Complete Object Locator'
	DD	00H
	DD	00H
	DD	FLAT:??_R0?AVCGraphSearchInfo_HasVertScaleAndGridLine@@@8
	DD	FLAT:??_R3CGraphSearchInfo_HasVertScaleAndGridLine@@8
rdata$r	ENDS
;	COMDAT ??_R2CGraphSearchInfo@@8
rdata$r	SEGMENT
??_R2CGraphSearchInfo@@8 DD FLAT:??_R1A@?0A@EA@CGraphSearchInfo@@8 ; CGraphSearchInfo::`RTTI Base Class Array'
rdata$r	ENDS
;	COMDAT ??_R3CGraphSearchInfo@@8
rdata$r	SEGMENT
??_R3CGraphSearchInfo@@8 DD 00H				; CGraphSearchInfo::`RTTI Class Hierarchy Descriptor'
	DD	00H
	DD	01H
	DD	FLAT:??_R2CGraphSearchInfo@@8
rdata$r	ENDS
;	COMDAT ??_R0?AVCGraphSearchInfo@@@8
data$rs	SEGMENT
??_R0?AVCGraphSearchInfo@@@8 DD FLAT:??_7type_info@@6B@	; CGraphSearchInfo `RTTI Type Descriptor'
	DD	00H
	DB	'.?AVCGraphSearchInfo@@', 00H
data$rs	ENDS
;	COMDAT ??_R1A@?0A@EA@CGraphSearchInfo@@8
rdata$r	SEGMENT
??_R1A@?0A@EA@CGraphSearchInfo@@8 DD FLAT:??_R0?AVCGraphSearchInfo@@@8 ; CGraphSearchInfo::`RTTI Base Class Descriptor at (0,-1,0,64)'
	DD	00H
	DD	00H
	DD	0ffffffffH
	DD	00H
	DD	040H
	DD	FLAT:??_R3CGraphSearchInfo@@8
rdata$r	ENDS
;	COMDAT ??_R1A@?0A@EA@CGraphSearchInfo_HasVertScale@@8
rdata$r	SEGMENT
??_R1A@?0A@EA@CGraphSearchInfo_HasVertScale@@8 DD FLAT:??_R0?AVCGraphSearchInfo_HasVertScale@@@8 ; CGraphSearchInfo_HasVertScale::`RTTI Base Class Descriptor at (0,-1,0,64)'
	DD	01H
	DD	00H
	DD	0ffffffffH
	DD	00H
	DD	040H
	DD	FLAT:??_R3CGraphSearchInfo_HasVertScale@@8
rdata$r	ENDS
;	COMDAT ??_R2CGraphSearchInfo_HasVertScale@@8
rdata$r	SEGMENT
??_R2CGraphSearchInfo_HasVertScale@@8 DD FLAT:??_R1A@?0A@EA@CGraphSearchInfo_HasVertScale@@8 ; CGraphSearchInfo_HasVertScale::`RTTI Base Class Array'
	DD	FLAT:??_R1A@?0A@EA@CGraphSearchInfo@@8
rdata$r	ENDS
;	COMDAT ??_R3CGraphSearchInfo_HasVertScale@@8
rdata$r	SEGMENT
??_R3CGraphSearchInfo_HasVertScale@@8 DD 00H		; CGraphSearchInfo_HasVertScale::`RTTI Class Hierarchy Descriptor'
	DD	00H
	DD	02H
	DD	FLAT:??_R2CGraphSearchInfo_HasVertScale@@8
rdata$r	ENDS
;	COMDAT ??_R0?AVCGraphSearchInfo_HasVertScale@@@8
data$rs	SEGMENT
??_R0?AVCGraphSearchInfo_HasVertScale@@@8 DD FLAT:??_7type_info@@6B@ ; CGraphSearchInfo_HasVertScale `RTTI Type Descriptor'
	DD	00H
	DB	'.?AVCGraphSearchInfo_HasVertScale@@', 00H
data$rs	ENDS
;	COMDAT ??_R4CGraphSearchInfo_HasVertScale@@6B@
rdata$r	SEGMENT
??_R4CGraphSearchInfo_HasVertScale@@6B@ DD 00H		; CGraphSearchInfo_HasVertScale::`RTTI Complete Object Locator'
	DD	00H
	DD	00H
	DD	FLAT:??_R0?AVCGraphSearchInfo_HasVertScale@@@8
	DD	FLAT:??_R3CGraphSearchInfo_HasVertScale@@8
rdata$r	ENDS
;	COMDAT ??_R1A@?0A@EA@?$CList@VCVerticalScaleGroupData@@AAV1@@@8
rdata$r	SEGMENT
??_R1A@?0A@EA@?$CList@VCVerticalScaleGroupData@@AAV1@@@8 DD FLAT:??_R0?AV?$CList@VCVerticalScaleGroupData@@AAV1@@@@8 ; CList<CVerticalScaleGroupData,CVerticalScaleGroupData &>::`RTTI Base Class Descriptor at (0,-1,0,64)'
	DD	01H
	DD	00H
	DD	0ffffffffH
	DD	00H
	DD	040H
	DD	FLAT:??_R3?$CList@VCVerticalScaleGroupData@@AAV1@@@8
rdata$r	ENDS
;	COMDAT ??_R2?$CList@VCVerticalScaleGroupData@@AAV1@@@8
rdata$r	SEGMENT
??_R2?$CList@VCVerticalScaleGroupData@@AAV1@@@8 DD FLAT:??_R1A@?0A@EA@?$CList@VCVerticalScaleGroupData@@AAV1@@@8 ; CList<CVerticalScaleGroupData,CVerticalScaleGroupData &>::`RTTI Base Class Array'
	DD	FLAT:??_R1A@?0A@EA@CObject@@8
rdata$r	ENDS
;	COMDAT ??_R3?$CList@VCVerticalScaleGroupData@@AAV1@@@8
rdata$r	SEGMENT
??_R3?$CList@VCVerticalScaleGroupData@@AAV1@@@8 DD 00H	; CList<CVerticalScaleGroupData,CVerticalScaleGroupData &>::`RTTI Class Hierarchy Descriptor'
	DD	00H
	DD	02H
	DD	FLAT:??_R2?$CList@VCVerticalScaleGroupData@@AAV1@@@8
rdata$r	ENDS
;	COMDAT ??_R0?AV?$CList@VCVerticalScaleGroupData@@AAV1@@@@8
data$rs	SEGMENT
??_R0?AV?$CList@VCVerticalScaleGroupData@@AAV1@@@@8 DD FLAT:??_7type_info@@6B@ ; CList<CVerticalScaleGroupData,CVerticalScaleGroupData &> `RTTI Type Descriptor'
	DD	00H
	DB	'.?AV?$CList@VCVerticalScaleGroupData@@AAV1@@@', 00H
data$rs	ENDS
;	COMDAT ??_R4?$CList@VCVerticalScaleGroupData@@AAV1@@@6B@
rdata$r	SEGMENT
??_R4?$CList@VCVerticalScaleGroupData@@AAV1@@@6B@ DD 00H ; CList<CVerticalScaleGroupData,CVerticalScaleGroupData &>::`RTTI Complete Object Locator'
	DD	00H
	DD	00H
	DD	FLAT:??_R0?AV?$CList@VCVerticalScaleGroupData@@AAV1@@@@8
	DD	FLAT:??_R3?$CList@VCVerticalScaleGroupData@@AAV1@@@8
rdata$r	ENDS
;	COMDAT ??_R1A@?0A@EA@bad_array_new_length@std@@8
rdata$r	SEGMENT
??_R1A@?0A@EA@bad_array_new_length@std@@8 DD FLAT:??_R0?AVbad_array_new_length@std@@@8 ; std::bad_array_new_length::`RTTI Base Class Descriptor at (0,-1,0,64)'
	DD	02H
	DD	00H
	DD	0ffffffffH
	DD	00H
	DD	040H
	DD	FLAT:??_R3bad_array_new_length@std@@8
rdata$r	ENDS
;	COMDAT ??_R2bad_array_new_length@std@@8
rdata$r	SEGMENT
??_R2bad_array_new_length@std@@8 DD FLAT:??_R1A@?0A@EA@bad_array_new_length@std@@8 ; std::bad_array_new_length::`RTTI Base Class Array'
	DD	FLAT:??_R1A@?0A@EA@bad_alloc@std@@8
	DD	FLAT:??_R1A@?0A@EA@exception@std@@8
rdata$r	ENDS
;	COMDAT ??_R3bad_array_new_length@std@@8
rdata$r	SEGMENT
??_R3bad_array_new_length@std@@8 DD 00H			; std::bad_array_new_length::`RTTI Class Hierarchy Descriptor'
	DD	00H
	DD	03H
	DD	FLAT:??_R2bad_array_new_length@std@@8
rdata$r	ENDS
;	COMDAT ??_R4bad_array_new_length@std@@6B@
rdata$r	SEGMENT
??_R4bad_array_new_length@std@@6B@ DD 00H		; std::bad_array_new_length::`RTTI Complete Object Locator'
	DD	00H
	DD	00H
	DD	FLAT:??_R0?AVbad_array_new_length@std@@@8
	DD	FLAT:??_R3bad_array_new_length@std@@8
rdata$r	ENDS
;	COMDAT ??_R1A@?0A@EA@bad_alloc@std@@8
rdata$r	SEGMENT
??_R1A@?0A@EA@bad_alloc@std@@8 DD FLAT:??_R0?AVbad_alloc@std@@@8 ; std::bad_alloc::`RTTI Base Class Descriptor at (0,-1,0,64)'
	DD	01H
	DD	00H
	DD	0ffffffffH
	DD	00H
	DD	040H
	DD	FLAT:??_R3bad_alloc@std@@8
rdata$r	ENDS
;	COMDAT ??_R2bad_alloc@std@@8
rdata$r	SEGMENT
??_R2bad_alloc@std@@8 DD FLAT:??_R1A@?0A@EA@bad_alloc@std@@8 ; std::bad_alloc::`RTTI Base Class Array'
	DD	FLAT:??_R1A@?0A@EA@exception@std@@8
rdata$r	ENDS
;	COMDAT ??_R3bad_alloc@std@@8
rdata$r	SEGMENT
??_R3bad_alloc@std@@8 DD 00H				; std::bad_alloc::`RTTI Class Hierarchy Descriptor'
	DD	00H
	DD	02H
	DD	FLAT:??_R2bad_alloc@std@@8
rdata$r	ENDS
;	COMDAT ??_R4bad_alloc@std@@6B@
rdata$r	SEGMENT
??_R4bad_alloc@std@@6B@ DD 00H				; std::bad_alloc::`RTTI Complete Object Locator'
	DD	00H
	DD	00H
	DD	FLAT:??_R0?AVbad_alloc@std@@@8
	DD	FLAT:??_R3bad_alloc@std@@8
rdata$r	ENDS
;	COMDAT ??_R1A@?0A@EA@exception@std@@8
rdata$r	SEGMENT
??_R1A@?0A@EA@exception@std@@8 DD FLAT:??_R0?AVexception@std@@@8 ; std::exception::`RTTI Base Class Descriptor at (0,-1,0,64)'
	DD	00H
	DD	00H
	DD	0ffffffffH
	DD	00H
	DD	040H
	DD	FLAT:??_R3exception@std@@8
rdata$r	ENDS
;	COMDAT ??_R2exception@std@@8
rdata$r	SEGMENT
??_R2exception@std@@8 DD FLAT:??_R1A@?0A@EA@exception@std@@8 ; std::exception::`RTTI Base Class Array'
rdata$r	ENDS
;	COMDAT ??_R3exception@std@@8
rdata$r	SEGMENT
??_R3exception@std@@8 DD 00H				; std::exception::`RTTI Class Hierarchy Descriptor'
	DD	00H
	DD	01H
	DD	FLAT:??_R2exception@std@@8
rdata$r	ENDS
;	COMDAT ??_R4exception@std@@6B@
rdata$r	SEGMENT
??_R4exception@std@@6B@ DD 00H				; std::exception::`RTTI Complete Object Locator'
	DD	00H
	DD	00H
	DD	FLAT:??_R0?AVexception@std@@@8
	DD	FLAT:??_R3exception@std@@8
rdata$r	ENDS
;	COMDAT ??_C@_0BC@KBDMBKEH@deque?$DMT?$DO?5too?5long@
CONST	SEGMENT
??_C@_0BC@KBDMBKEH@deque?$DMT?$DO?5too?5long@ DB 'deque<T> too long', 00H ; `string'
CONST	ENDS
;	COMDAT ??_C@_09GNIPIPGA@New?5Scale@
CONST	SEGMENT
??_C@_09GNIPIPGA@New?5Scale@ DB 'New Scale', 00H	; `string'
CONST	ENDS
;	COMDAT ??_C@_07MGCPDNLD@DEFAULT@
CONST	SEGMENT
??_C@_07MGCPDNLD@DEFAULT@ DB 'DEFAULT', 00H		; `string'
CONST	ENDS
;	COMDAT ??_7CGraphSearchInfo_IndicatorName@@6B@
CONST	SEGMENT
??_7CGraphSearchInfo_IndicatorName@@6B@ DD FLAT:??_R4CGraphSearchInfo_IndicatorName@@6B@ ; CGraphSearchInfo_IndicatorName::`vftable'
	DD	FLAT:?FindGraph@CGraphSearchInfo@@UAEHPBVCSubGraph@@@Z
	DD	FLAT:?FindGraph@CGraphSearchInfo_IndicatorName@@UAEHPBVCGraphImp@@@Z
	DD	FLAT:?FindGraph@CGraphSearchInfo@@UAEHPBVCVertScaleGroup@@@Z
	DD	FLAT:?FindGraph@CGraphSearchInfo@@UAEHPAXPBVCVertScaleGroup@@@Z
	DD	FLAT:?FindGraph@CGraphSearchInfo@@UAEHPBVCBlockImp@@@Z
	DD	FLAT:?FindGraph@CGraphSearchInfo@@UAEHPAXPBVCBlockImp@@@Z
	DD	FLAT:?FindGraph@CGraphSearchInfo@@UAEHPBVCBlocksColumn@@@Z
CONST	ENDS
;	COMDAT ??_7CGraphSearchInfo_AnyGraph@@6B@
CONST	SEGMENT
??_7CGraphSearchInfo_AnyGraph@@6B@ DD FLAT:??_R4CGraphSearchInfo_AnyGraph@@6B@ ; CGraphSearchInfo_AnyGraph::`vftable'
	DD	FLAT:?FindGraph@CGraphSearchInfo@@UAEHPBVCSubGraph@@@Z
	DD	FLAT:?FindGraph@CGraphSearchInfo_AnyGraph@@UAEHPBVCGraphImp@@@Z
	DD	FLAT:?FindGraph@CGraphSearchInfo@@UAEHPBVCVertScaleGroup@@@Z
	DD	FLAT:?FindGraph@CGraphSearchInfo@@UAEHPAXPBVCVertScaleGroup@@@Z
	DD	FLAT:?FindGraph@CGraphSearchInfo@@UAEHPBVCBlockImp@@@Z
	DD	FLAT:?FindGraph@CGraphSearchInfo@@UAEHPAXPBVCBlockImp@@@Z
	DD	FLAT:?FindGraph@CGraphSearchInfo@@UAEHPBVCBlocksColumn@@@Z
CONST	ENDS
;	COMDAT ??_7CGraphSearchInfo_HasVertScaleAndGridLine@@6B@
CONST	SEGMENT
??_7CGraphSearchInfo_HasVertScaleAndGridLine@@6B@ DD FLAT:??_R4CGraphSearchInfo_HasVertScaleAndGridLine@@6B@ ; CGraphSearchInfo_HasVertScaleAndGridLine::`vftable'
	DD	FLAT:?FindGraph@CGraphSearchInfo@@UAEHPBVCSubGraph@@@Z
	DD	FLAT:?FindGraph@CGraphSearchInfo@@UAEHPBVCGraphImp@@@Z
	DD	FLAT:?FindGraph@CGraphSearchInfo_HasVertScaleAndGridLine@@UAEHPBVCVertScaleGroup@@@Z
	DD	FLAT:?FindGraph@CGraphSearchInfo@@UAEHPAXPBVCVertScaleGroup@@@Z
	DD	FLAT:?FindGraph@CGraphSearchInfo@@UAEHPBVCBlockImp@@@Z
	DD	FLAT:?FindGraph@CGraphSearchInfo@@UAEHPAXPBVCBlockImp@@@Z
	DD	FLAT:?FindGraph@CGraphSearchInfo@@UAEHPBVCBlocksColumn@@@Z
CONST	ENDS
;	COMDAT ??_7CGraphSearchInfo_HasVertScale@@6B@
CONST	SEGMENT
??_7CGraphSearchInfo_HasVertScale@@6B@ DD FLAT:??_R4CGraphSearchInfo_HasVertScale@@6B@ ; CGraphSearchInfo_HasVertScale::`vftable'
	DD	FLAT:?FindGraph@CGraphSearchInfo@@UAEHPBVCSubGraph@@@Z
	DD	FLAT:?FindGraph@CGraphSearchInfo@@UAEHPBVCGraphImp@@@Z
	DD	FLAT:?FindGraph@CGraphSearchInfo_HasVertScale@@UAEHPBVCVertScaleGroup@@@Z
	DD	FLAT:?FindGraph@CGraphSearchInfo@@UAEHPAXPBVCVertScaleGroup@@@Z
	DD	FLAT:?FindGraph@CGraphSearchInfo@@UAEHPBVCBlockImp@@@Z
	DD	FLAT:?FindGraph@CGraphSearchInfo@@UAEHPAXPBVCBlockImp@@@Z
	DD	FLAT:?FindGraph@CGraphSearchInfo@@UAEHPBVCBlocksColumn@@@Z
CONST	ENDS
;	COMDAT ??_7?$CList@VCVerticalScaleGroupData@@AAV1@@@6B@
CONST	SEGMENT
??_7?$CList@VCVerticalScaleGroupData@@AAV1@@@6B@ DD FLAT:??_R4?$CList@VCVerticalScaleGroupData@@AAV1@@@6B@ ; CList<CVerticalScaleGroupData,CVerticalScaleGroupData &>::`vftable'
	DD	FLAT:?GetRuntimeClass@CObject@@UBEPAUCRuntimeClass@@XZ
	DD	FLAT:??_E?$CList@VCVerticalScaleGroupData@@AAV1@@@UAEPAXI@Z
	DD	FLAT:?Serialize@?$CList@VCVerticalScaleGroupData@@AAV1@@@UAEXAAVCArchive@@@Z
	DD	FLAT:?AssertValid@CObject@@UBEXXZ
	DD	FLAT:?Dump@CObject@@UBEXAAVCDumpContext@@@Z
CONST	ENDS
;	COMDAT __CT??_R0?AVexception@std@@@8??0exception@std@@QAE@ABV01@@Z12
xdata$x	SEGMENT
__CT??_R0?AVexception@std@@@8??0exception@std@@QAE@ABV01@@Z12 DD 00H
	DD	FLAT:??_R0?AVexception@std@@@8
	DD	00H
	DD	0ffffffffH
	ORG $+4
	DD	0cH
	DD	FLAT:??0exception@std@@QAE@ABV01@@Z
xdata$x	ENDS
;	COMDAT ??_R0?AVexception@std@@@8
data$r	SEGMENT
??_R0?AVexception@std@@@8 DD FLAT:??_7type_info@@6B@	; std::exception `RTTI Type Descriptor'
	DD	00H
	DB	'.?AVexception@std@@', 00H
data$r	ENDS
;	COMDAT __CT??_R0?AVbad_alloc@std@@@8??0bad_alloc@std@@QAE@ABV01@@Z12
xdata$x	SEGMENT
__CT??_R0?AVbad_alloc@std@@@8??0bad_alloc@std@@QAE@ABV01@@Z12 DD 010H
	DD	FLAT:??_R0?AVbad_alloc@std@@@8
	DD	00H
	DD	0ffffffffH
	ORG $+4
	DD	0cH
	DD	FLAT:??0bad_alloc@std@@QAE@ABV01@@Z
xdata$x	ENDS
;	COMDAT ??_R0?AVbad_alloc@std@@@8
data$r	SEGMENT
??_R0?AVbad_alloc@std@@@8 DD FLAT:??_7type_info@@6B@	; std::bad_alloc `RTTI Type Descriptor'
	DD	00H
	DB	'.?AVbad_alloc@std@@', 00H
data$r	ENDS
;	COMDAT __CT??_R0?AVbad_array_new_length@std@@@8??0bad_array_new_length@std@@QAE@ABV01@@Z12
xdata$x	SEGMENT
__CT??_R0?AVbad_array_new_length@std@@@8??0bad_array_new_length@std@@QAE@ABV01@@Z12 DD 00H
	DD	FLAT:??_R0?AVbad_array_new_length@std@@@8
	DD	00H
	DD	0ffffffffH
	ORG $+4
	DD	0cH
	DD	FLAT:??0bad_array_new_length@std@@QAE@ABV01@@Z
xdata$x	ENDS
;	COMDAT ??_R0?AVbad_array_new_length@std@@@8
data$r	SEGMENT
??_R0?AVbad_array_new_length@std@@@8 DD FLAT:??_7type_info@@6B@ ; std::bad_array_new_length `RTTI Type Descriptor'
	DD	00H
	DB	'.?AVbad_array_new_length@std@@', 00H
data$r	ENDS
;	COMDAT __CTA3?AVbad_array_new_length@std@@
xdata$x	SEGMENT
__CTA3?AVbad_array_new_length@std@@ DD 03H
	DD	FLAT:__CT??_R0?AVbad_array_new_length@std@@@8??0bad_array_new_length@std@@QAE@ABV01@@Z12
	DD	FLAT:__CT??_R0?AVbad_alloc@std@@@8??0bad_alloc@std@@QAE@ABV01@@Z12
	DD	FLAT:__CT??_R0?AVexception@std@@@8??0exception@std@@QAE@ABV01@@Z12
xdata$x	ENDS
;	COMDAT __TI3?AVbad_array_new_length@std@@
xdata$x	SEGMENT
__TI3?AVbad_array_new_length@std@@ DD 00H
	DD	FLAT:??1bad_array_new_length@std@@UAE@XZ
	DD	00H
	DD	FLAT:__CTA3?AVbad_array_new_length@std@@
xdata$x	ENDS
;	COMDAT ??_C@_0BF@KINCDENJ@bad?5array?5new?5length@
CONST	SEGMENT
??_C@_0BF@KINCDENJ@bad?5array?5new?5length@ DB 'bad array new length', 00H ; `string'
CONST	ENDS
;	COMDAT ??_7bad_array_new_length@std@@6B@
CONST	SEGMENT
??_7bad_array_new_length@std@@6B@ DD FLAT:??_R4bad_array_new_length@std@@6B@ ; std::bad_array_new_length::`vftable'
	DD	FLAT:??_Ebad_array_new_length@std@@UAEPAXI@Z
	DD	FLAT:?what@exception@std@@UBEPBDXZ
CONST	ENDS
;	COMDAT ??_7bad_alloc@std@@6B@
CONST	SEGMENT
??_7bad_alloc@std@@6B@ DD FLAT:??_R4bad_alloc@std@@6B@	; std::bad_alloc::`vftable'
	DD	FLAT:??_Ebad_alloc@std@@UAEPAXI@Z
	DD	FLAT:?what@exception@std@@UBEPBDXZ
CONST	ENDS
;	COMDAT ??_C@_0BC@EOODALEL@Unknown?5exception@
CONST	SEGMENT
??_C@_0BC@EOODALEL@Unknown?5exception@ DB 'Unknown exception', 00H ; `string'
CONST	ENDS
;	COMDAT ??_7exception@std@@6B@
CONST	SEGMENT
??_7exception@std@@6B@ DD FLAT:??_R4exception@std@@6B@	; std::exception::`vftable'
	DD	FLAT:??_Eexception@std@@UAEPAXI@Z
	DD	FLAT:?what@exception@std@@UBEPBDXZ
CONST	ENDS
;	COMDAT ??_C@_0BA@ENJOCHIO@LoadResourceDLL@
CONST	SEGMENT
??_C@_0BA@ENJOCHIO@LoadResourceDLL@ DB 'LoadResourceDLL', 00H ; `string'
CONST	ENDS
;	COMDAT ??_R1A@?0A@EA@CObject@@8
rdata$r	SEGMENT
??_R1A@?0A@EA@CObject@@8 DD FLAT:??_R0?AVCObject@@@8	; CObject::`RTTI Base Class Descriptor at (0,-1,0,64)'
	DD	00H
	DD	00H
	DD	0ffffffffH
	DD	00H
	DD	040H
	DD	FLAT:??_R3CObject@@8
rdata$r	ENDS
;	COMDAT ??_R2CObject@@8
rdata$r	SEGMENT
??_R2CObject@@8 DD FLAT:??_R1A@?0A@EA@CObject@@8	; CObject::`RTTI Base Class Array'
rdata$r	ENDS
;	COMDAT ??_R3CObject@@8
rdata$r	SEGMENT
??_R3CObject@@8 DD 00H					; CObject::`RTTI Class Hierarchy Descriptor'
	DD	00H
	DD	01H
	DD	FLAT:??_R2CObject@@8
rdata$r	ENDS
;	COMDAT ??_R0?AVCObject@@@8
data$rs	SEGMENT
??_R0?AVCObject@@@8 DD FLAT:??_7type_info@@6B@		; CObject `RTTI Type Descriptor'
	DD	00H
	DB	'.?AVCObject@@', 00H
data$rs	ENDS
;	COMDAT xdata$x
xdata$x	SEGMENT
__unwindtable$??$_Construct@V?$_Deque_unchecked_const_iterator@V?$_Deque_val@U?$_Deque_simple_types@PAVCGraphImp@@@std@@@std@@@std@@@?$deque@PAVCGraphImp@@V?$allocator@PAVCGraphImp@@@std@@@std@@AAEXV?$_Deque_unchecked_const_iterator@V?$_Deque_val@U?$_Deque_simple_types@PAVCGraphImp@@@std@@@std@@@1@0@Z DD 0ffffffffH
	DD	FLAT:__unwindfunclet$??$_Construct@V?$_Deque_unchecked_const_iterator@V?$_Deque_val@U?$_Deque_simple_types@PAVCGraphImp@@@std@@@std@@@std@@@?$deque@PAVCGraphImp@@V?$allocator@PAVCGraphImp@@@std@@@std@@AAEXV?$_Deque_unchecked_const_iterator@V?$_Deque_val@U?$_Deque_simple_types@PAVCGraphImp@@@std@@@std@@@1@0@Z$0
__ehfuncinfo$??$_Construct@V?$_Deque_unchecked_const_iterator@V?$_Deque_val@U?$_Deque_simple_types@PAVCGraphImp@@@std@@@std@@@std@@@?$deque@PAVCGraphImp@@V?$allocator@PAVCGraphImp@@@std@@@std@@AAEXV?$_Deque_unchecked_const_iterator@V?$_Deque_val@U?$_Deque_simple_types@PAVCGraphImp@@@std@@@std@@@1@0@Z DD 019930522H
	DD	01H
	DD	FLAT:__unwindtable$??$_Construct@V?$_Deque_unchecked_const_iterator@V?$_Deque_val@U?$_Deque_simple_types@PAVCGraphImp@@@std@@@std@@@std@@@?$deque@PAVCGraphImp@@V?$allocator@PAVCGraphImp@@@std@@@std@@AAEXV?$_Deque_unchecked_const_iterator@V?$_Deque_val@U?$_Deque_simple_types@PAVCGraphImp@@@std@@@std@@@1@0@Z
	DD	2 DUP(00H)
	DD	2 DUP(00H)
	DD	00H
	DD	01H
xdata$x	ENDS
;	COMDAT xdata$x
xdata$x	SEGMENT
__unwindtable$??0CMovingGraphDeque@@QAE@ABV0@@Z DD 0ffffffffH
	DD	FLAT:__unwindfunclet$??0CMovingGraphDeque@@QAE@ABV0@@Z$2
	DD	00H
	DD	FLAT:__unwindfunclet$??0CMovingGraphDeque@@QAE@ABV0@@Z$3
__ehfuncinfo$??0CMovingGraphDeque@@QAE@ABV0@@Z DD 019930522H
	DD	02H
	DD	FLAT:__unwindtable$??0CMovingGraphDeque@@QAE@ABV0@@Z
	DD	2 DUP(00H)
	DD	2 DUP(00H)
	DD	00H
	DD	01H
xdata$x	ENDS
;	COMDAT xdata$x
xdata$x	SEGMENT
__unwindtable$??0?$CDequePointerList@VCGraphImp@@@@QAE@ABV0@@Z DD 0ffffffffH
	DD	FLAT:__unwindfunclet$??0?$CDequePointerList@VCGraphImp@@@@QAE@ABV0@@Z$1
	DD	00H
	DD	FLAT:__unwindfunclet$??0?$CDequePointerList@VCGraphImp@@@@QAE@ABV0@@Z$2
__ehfuncinfo$??0?$CDequePointerList@VCGraphImp@@@@QAE@ABV0@@Z DD 019930522H
	DD	02H
	DD	FLAT:__unwindtable$??0?$CDequePointerList@VCGraphImp@@@@QAE@ABV0@@Z
	DD	2 DUP(00H)
	DD	2 DUP(00H)
	DD	00H
	DD	01H
xdata$x	ENDS
;	COMDAT xdata$x
xdata$x	SEGMENT
__unwindtable$??0?$deque@PAVCGraphImp@@V?$allocator@PAVCGraphImp@@@std@@@std@@QAE@ABV01@@Z DD 0ffffffffH
	DD	FLAT:__unwindfunclet$??0?$deque@PAVCGraphImp@@V?$allocator@PAVCGraphImp@@@std@@@std@@QAE@ABV01@@Z$0
	DD	00H
	DD	FLAT:__unwindfunclet$??0?$deque@PAVCGraphImp@@V?$allocator@PAVCGraphImp@@@std@@@std@@QAE@ABV01@@Z$1
__ehfuncinfo$??0?$deque@PAVCGraphImp@@V?$allocator@PAVCGraphImp@@@std@@@std@@QAE@ABV01@@Z DD 019930522H
	DD	02H
	DD	FLAT:__unwindtable$??0?$deque@PAVCGraphImp@@V?$allocator@PAVCGraphImp@@@std@@@std@@QAE@ABV01@@Z
	DD	2 DUP(00H)
	DD	2 DUP(00H)
	DD	00H
	DD	01H
xdata$x	ENDS
;	COMDAT xdata$x
xdata$x	SEGMENT
__unwindtable$?Serialize@?$CList@VCVerticalScaleGroupData@@AAV1@@@UAEXAAVCArchive@@@Z DD 0ffffffffH
	DD	FLAT:__unwindfunclet$?Serialize@?$CList@VCVerticalScaleGroupData@@AAV1@@@UAEXAAVCArchive@@@Z$0
__ehfuncinfo$?Serialize@?$CList@VCVerticalScaleGroupData@@AAV1@@@UAEXAAVCArchive@@@Z DD 019930522H
	DD	01H
	DD	FLAT:__unwindtable$?Serialize@?$CList@VCVerticalScaleGroupData@@AAV1@@@UAEXAAVCArchive@@@Z
	DD	2 DUP(00H)
	DD	2 DUP(00H)
	DD	00H
	DD	01H
xdata$x	ENDS
;	COMDAT xdata$x
xdata$x	SEGMENT
__ehfuncinfo$??1?$CList@VCVerticalScaleGroupData@@AAV1@@@UAE@XZ DD 019930522H
	DD	00H
	DD	00H
	DD	2 DUP(00H)
	DD	2 DUP(00H)
	DD	00H
	DD	05H
xdata$x	ENDS
;	COMDAT xdata$x
xdata$x	SEGMENT
__ehfuncinfo$??1CMultiLanguageResourceSetter@@QAE@XZ DD 019930522H
	DD	00H
	DD	00H
	DD	2 DUP(00H)
	DD	2 DUP(00H)
	DD	00H
	DD	05H
xdata$x	ENDS
;	COMDAT xdata$x
xdata$x	SEGMENT
__unwindtable$?GraphMoving@CGraphMove@@AAE_NPAVCVertScaleGroupList@@ABVCMovingGraphVertScaleData@@ABVCMovingGraphDeque@@@Z DD 0ffffffffH
	DD	FLAT:__unwindfunclet$?GraphMoving@CGraphMove@@AAE_NPAVCVertScaleGroupList@@ABVCMovingGraphVertScaleData@@ABVCMovingGraphDeque@@@Z$0
__ehfuncinfo$?GraphMoving@CGraphMove@@AAE_NPAVCVertScaleGroupList@@ABVCMovingGraphVertScaleData@@ABVCMovingGraphDeque@@@Z DD 019930522H
	DD	01H
	DD	FLAT:__unwindtable$?GraphMoving@CGraphMove@@AAE_NPAVCVertScaleGroupList@@ABVCMovingGraphVertScaleData@@ABVCMovingGraphDeque@@@Z
	DD	2 DUP(00H)
	DD	2 DUP(00H)
	DD	00H
	DD	01H
xdata$x	ENDS
;	COMDAT xdata$x
xdata$x	SEGMENT
__unwindtable$?GraphMoving@CGraphMove@@AAE_NPAVCGraphImp@@PAVCVertScaleGroupList@@ABVCMovingGraphVertScaleData@@@Z DD 0ffffffffH
	DD	FLAT:__unwindfunclet$?GraphMoving@CGraphMove@@AAE_NPAVCGraphImp@@PAVCVertScaleGroupList@@ABVCMovingGraphVertScaleData@@@Z$1
	DD	00H
	DD	FLAT:__unwindfunclet$?GraphMoving@CGraphMove@@AAE_NPAVCGraphImp@@PAVCVertScaleGroupList@@ABVCMovingGraphVertScaleData@@@Z$4
__ehfuncinfo$?GraphMoving@CGraphMove@@AAE_NPAVCGraphImp@@PAVCVertScaleGroupList@@ABVCMovingGraphVertScaleData@@@Z DD 019930522H
	DD	02H
	DD	FLAT:__unwindtable$?GraphMoving@CGraphMove@@AAE_NPAVCGraphImp@@PAVCVertScaleGroupList@@ABVCMovingGraphVertScaleData@@@Z
	DD	2 DUP(00H)
	DD	2 DUP(00H)
	DD	00H
	DD	01H
xdata$x	ENDS
;	COMDAT xdata$x
xdata$x	SEGMENT
__ehfuncinfo$?LoadDialog_GraphMoving@CGraphMove@@AAE_NPAVCMainBlock@@PAVCGraphImp@@ABVCVerticalScaleGroupDataList@@ABV?$CStringT@DV?$StrTraitMFC_DLL@DV?$ChTraitsCRT@D@ATL@@@@@ATL@@AAVCMovingGraphVertScaleData@@@Z DD 019930522H
	DD	05H
	DD	FLAT:__unwindtable$?LoadDialog_GraphMoving@CGraphMove@@AAE_NPAVCMainBlock@@PAVCGraphImp@@ABVCVerticalScaleGroupDataList@@ABV?$CStringT@DV?$StrTraitMFC_DLL@DV?$ChTraitsCRT@D@ATL@@@@@ATL@@AAVCMovingGraphVertScaleData@@@Z
	DD	2 DUP(00H)
	DD	2 DUP(00H)
	DD	00H
	DD	01H
__unwindtable$?LoadDialog_GraphMoving@CGraphMove@@AAE_NPAVCMainBlock@@PAVCGraphImp@@ABVCVerticalScaleGroupDataList@@ABV?$CStringT@DV?$StrTraitMFC_DLL@DV?$ChTraitsCRT@D@ATL@@@@@ATL@@AAVCMovingGraphVertScaleData@@@Z DD 0ffffffffH
	DD	FLAT:__unwindfunclet$?LoadDialog_GraphMoving@CGraphMove@@AAE_NPAVCMainBlock@@PAVCGraphImp@@ABVCVerticalScaleGroupDataList@@ABV?$CStringT@DV?$StrTraitMFC_DLL@DV?$ChTraitsCRT@D@ATL@@@@@ATL@@AAVCMovingGraphVertScaleData@@@Z$0
	DD	00H
	DD	FLAT:__unwindfunclet$?LoadDialog_GraphMoving@CGraphMove@@AAE_NPAVCMainBlock@@PAVCGraphImp@@ABVCVerticalScaleGroupDataList@@ABV?$CStringT@DV?$StrTraitMFC_DLL@DV?$ChTraitsCRT@D@ATL@@@@@ATL@@AAVCMovingGraphVertScaleData@@@Z$1
	DD	0ffffffffH
	DD	00H
	DD	01H
	DD	FLAT:__unwindfunclet$?LoadDialog_GraphMoving@CGraphMove@@AAE_NPAVCMainBlock@@PAVCGraphImp@@ABVCVerticalScaleGroupDataList@@ABV?$CStringT@DV?$StrTraitMFC_DLL@DV?$ChTraitsCRT@D@ATL@@@@@ATL@@AAVCMovingGraphVertScaleData@@@Z$2
	DD	0ffffffffH
	DD	FLAT:___std_terminate
xdata$x	ENDS
;	COMDAT xdata$x
xdata$x	SEGMENT
__ehfuncinfo$?LoadDialog_GraphMoving@CGraphMove@@AAE_NPAVCMainBlock@@PAVCGraphImp@@ABVCPoint@@@Z DD 019930522H
	DD	0bH
	DD	FLAT:__unwindtable$?LoadDialog_GraphMoving@CGraphMove@@AAE_NPAVCMainBlock@@PAVCGraphImp@@ABVCPoint@@@Z
	DD	2 DUP(00H)
	DD	2 DUP(00H)
	DD	00H
	DD	01H
__unwindtable$?LoadDialog_GraphMoving@CGraphMove@@AAE_NPAVCMainBlock@@PAVCGraphImp@@ABVCPoint@@@Z DD 0ffffffffH
	DD	FLAT:__unwindfunclet$?LoadDialog_GraphMoving@CGraphMove@@AAE_NPAVCMainBlock@@PAVCGraphImp@@ABVCPoint@@@Z$4
	DD	00H
	DD	FLAT:__unwindfunclet$?LoadDialog_GraphMoving@CGraphMove@@AAE_NPAVCMainBlock@@PAVCGraphImp@@ABVCPoint@@@Z$5
	DD	01H
	DD	FLAT:__unwindfunclet$?LoadDialog_GraphMoving@CGraphMove@@AAE_NPAVCMainBlock@@PAVCGraphImp@@ABVCPoint@@@Z$6
	DD	0ffffffffH
	DD	FLAT:__unwindfunclet$?LoadDialog_GraphMoving@CGraphMove@@AAE_NPAVCMainBlock@@PAVCGraphImp@@ABVCPoint@@@Z$0
	DD	03H
	DD	FLAT:__unwindfunclet$?LoadDialog_GraphMoving@CGraphMove@@AAE_NPAVCMainBlock@@PAVCGraphImp@@ABVCPoint@@@Z$1
	DD	04H
	DD	FLAT:__unwindfunclet$?LoadDialog_GraphMoving@CGraphMove@@AAE_NPAVCMainBlock@@PAVCGraphImp@@ABVCPoint@@@Z$2
	DD	05H
	DD	FLAT:__unwindfunclet$?LoadDialog_GraphMoving@CGraphMove@@AAE_NPAVCMainBlock@@PAVCGraphImp@@ABVCPoint@@@Z$9
	DD	06H
	DD	FLAT:__unwindfunclet$?LoadDialog_GraphMoving@CGraphMove@@AAE_NPAVCMainBlock@@PAVCGraphImp@@ABVCPoint@@@Z$10
	DD	05H
	DD	FLAT:___std_terminate
	DD	07H
	DD	FLAT:__unwindfunclet$?LoadDialog_GraphMoving@CGraphMove@@AAE_NPAVCMainBlock@@PAVCGraphImp@@ABVCPoint@@@Z$11
	DD	05H
	DD	FLAT:___std_terminate
xdata$x	ENDS
;	COMDAT xdata$x
xdata$x	SEGMENT
__unwindtable$?AddMovingGraph@CGraphMove@@AAEXPAVCVertScaleGroupList@@ABV?$CStringT@DV?$StrTraitMFC_DLL@DV?$ChTraitsCRT@D@ATL@@@@@ATL@@AAVCMovingGraphDeque@@@Z DD 0ffffffffH
	DD	FLAT:__unwindfunclet$?AddMovingGraph@CGraphMove@@AAEXPAVCVertScaleGroupList@@ABV?$CStringT@DV?$StrTraitMFC_DLL@DV?$ChTraitsCRT@D@ATL@@@@@ATL@@AAVCMovingGraphDeque@@@Z$0
__ehfuncinfo$?AddMovingGraph@CGraphMove@@AAEXPAVCVertScaleGroupList@@ABV?$CStringT@DV?$StrTraitMFC_DLL@DV?$ChTraitsCRT@D@ATL@@@@@ATL@@AAVCMovingGraphDeque@@@Z DD 019930522H
	DD	01H
	DD	FLAT:__unwindtable$?AddMovingGraph@CGraphMove@@AAEXPAVCVertScaleGroupList@@ABV?$CStringT@DV?$StrTraitMFC_DLL@DV?$ChTraitsCRT@D@ATL@@@@@ATL@@AAVCMovingGraphDeque@@@Z
	DD	2 DUP(00H)
	DD	2 DUP(00H)
	DD	00H
	DD	01H
xdata$x	ENDS
;	COMDAT xdata$x
xdata$x	SEGMENT
__unwindtable$?GetMovingGraphDeque@CGraphMove@@AAE?AVCMovingGraphDeque@@PAVCGraphImp@@@Z DD 0ffffffffH
	DD	FLAT:__unwindfunclet$?GetMovingGraphDeque@CGraphMove@@AAE?AVCMovingGraphDeque@@PAVCGraphImp@@@Z$0
__ehfuncinfo$?GetMovingGraphDeque@CGraphMove@@AAE?AVCMovingGraphDeque@@PAVCGraphImp@@@Z DD 019930522H
	DD	01H
	DD	FLAT:__unwindtable$?GetMovingGraphDeque@CGraphMove@@AAE?AVCMovingGraphDeque@@PAVCGraphImp@@@Z
	DD	2 DUP(00H)
	DD	2 DUP(00H)
	DD	00H
	DD	01H
xdata$x	ENDS
;	COMDAT xdata$x
xdata$x	SEGMENT
__unwindtable$?GetVertScaleGroupDataList@CGraphMove@@ABE?AVCVerticalScaleGroupDataList@@PAVCGraphImp@@ABVCVertScaleGroupList@@@Z DD 0ffffffffH
	DD	FLAT:__unwindfunclet$?GetVertScaleGroupDataList@CGraphMove@@ABE?AVCVerticalScaleGroupDataList@@PAVCGraphImp@@ABVCVertScaleGroupList@@@Z$1
	DD	00H
	DD	FLAT:__unwindfunclet$?GetVertScaleGroupDataList@CGraphMove@@ABE?AVCVerticalScaleGroupDataList@@PAVCGraphImp@@ABVCVertScaleGroupList@@@Z$2
	DD	01H
	DD	FLAT:__unwindfunclet$?GetVertScaleGroupDataList@CGraphMove@@ABE?AVCVerticalScaleGroupDataList@@PAVCGraphImp@@ABVCVertScaleGroupList@@@Z$3
__ehfuncinfo$?GetVertScaleGroupDataList@CGraphMove@@ABE?AVCVerticalScaleGroupDataList@@PAVCGraphImp@@ABVCVertScaleGroupList@@@Z DD 019930522H
	DD	03H
	DD	FLAT:__unwindtable$?GetVertScaleGroupDataList@CGraphMove@@ABE?AVCVerticalScaleGroupDataList@@PAVCGraphImp@@ABVCVertScaleGroupList@@@Z
	DD	2 DUP(00H)
	DD	2 DUP(00H)
	DD	00H
	DD	01H
xdata$x	ENDS
;	COMDAT xdata$x
xdata$x	SEGMENT
__ehfuncinfo$?MessageBox_NoGraphMoving@CGraphMove@@ABEXABV?$CStringT@DV?$StrTraitMFC_DLL@DV?$ChTraitsCRT@D@ATL@@@@@ATL@@@Z DD 019930522H
	DD	05H
	DD	FLAT:__unwindtable$?MessageBox_NoGraphMoving@CGraphMove@@ABEXABV?$CStringT@DV?$StrTraitMFC_DLL@DV?$ChTraitsCRT@D@ATL@@@@@ATL@@@Z
	DD	2 DUP(00H)
	DD	2 DUP(00H)
	DD	00H
	DD	01H
__unwindtable$?MessageBox_NoGraphMoving@CGraphMove@@ABEXABV?$CStringT@DV?$StrTraitMFC_DLL@DV?$ChTraitsCRT@D@ATL@@@@@ATL@@@Z DD 0ffffffffH
	DD	FLAT:__unwindfunclet$?MessageBox_NoGraphMoving@CGraphMove@@ABEXABV?$CStringT@DV?$StrTraitMFC_DLL@DV?$ChTraitsCRT@D@ATL@@@@@ATL@@@Z$0
	DD	00H
	DD	FLAT:__unwindfunclet$?MessageBox_NoGraphMoving@CGraphMove@@ABEXABV?$CStringT@DV?$StrTraitMFC_DLL@DV?$ChTraitsCRT@D@ATL@@@@@ATL@@@Z$1
	DD	01H
	DD	FLAT:__unwindfunclet$?MessageBox_NoGraphMoving@CGraphMove@@ABEXABV?$CStringT@DV?$StrTraitMFC_DLL@DV?$ChTraitsCRT@D@ATL@@@@@ATL@@@Z$2
	DD	02H
	DD	FLAT:__unwindfunclet$?MessageBox_NoGraphMoving@CGraphMove@@ABEXABV?$CStringT@DV?$StrTraitMFC_DLL@DV?$ChTraitsCRT@D@ATL@@@@@ATL@@@Z$3
	DD	0ffffffffH
	DD	FLAT:___std_terminate
xdata$x	ENDS
;	COMDAT xdata$x
xdata$x	SEGMENT
__unwindtable$?IsPriceChartScaleGroup@CGraphMove@@ABE_NPAVCGraphImp@@@Z DD 0ffffffffH
	DD	FLAT:__unwindfunclet$?IsPriceChartScaleGroup@CGraphMove@@ABE_NPAVCGraphImp@@@Z$0
__ehfuncinfo$?IsPriceChartScaleGroup@CGraphMove@@ABE_NPAVCGraphImp@@@Z DD 019930522H
	DD	01H
	DD	FLAT:__unwindtable$?IsPriceChartScaleGroup@CGraphMove@@ABE_NPAVCGraphImp@@@Z
	DD	2 DUP(00H)
	DD	2 DUP(00H)
	DD	00H
	DD	01H
xdata$x	ENDS
;	COMDAT xdata$x
xdata$x	SEGMENT
__unwindtable$?IsGraphInsert@CGraphMove@@ABE_NPAVCMainBlock@@PAVCGraphImp@@ABVCPoint@@ABVCRect@@ABH4@Z DD 0ffffffffH
	DD	FLAT:__unwindfunclet$?IsGraphInsert@CGraphMove@@ABE_NPAVCMainBlock@@PAVCGraphImp@@ABVCPoint@@ABVCRect@@ABH4@Z$0
	DD	00H
	DD	FLAT:__unwindfunclet$?IsGraphInsert@CGraphMove@@ABE_NPAVCMainBlock@@PAVCGraphImp@@ABVCPoint@@ABVCRect@@ABH4@Z$1
	DD	01H
	DD	FLAT:__unwindfunclet$?IsGraphInsert@CGraphMove@@ABE_NPAVCMainBlock@@PAVCGraphImp@@ABVCPoint@@ABVCRect@@ABH4@Z$2
	DD	01H
	DD	FLAT:__unwindfunclet$?IsGraphInsert@CGraphMove@@ABE_NPAVCMainBlock@@PAVCGraphImp@@ABVCPoint@@ABVCRect@@ABH4@Z$3
__ehfuncinfo$?IsGraphInsert@CGraphMove@@ABE_NPAVCMainBlock@@PAVCGraphImp@@ABVCPoint@@ABVCRect@@ABH4@Z DD 019930522H
	DD	04H
	DD	FLAT:__unwindtable$?IsGraphInsert@CGraphMove@@ABE_NPAVCMainBlock@@PAVCGraphImp@@ABVCPoint@@ABVCRect@@ABH4@Z
	DD	2 DUP(00H)
	DD	2 DUP(00H)
	DD	00H
	DD	01H
xdata$x	ENDS
;	COMDAT xdata$x
xdata$x	SEGMENT
__ehfuncinfo$?GraphMoving@CGraphMove@@QAE_NPAVCMainBlock@@PAVCGraphImp@@ABVCPoint@@@Z DD 019930522H
	DD	0bH
	DD	FLAT:__unwindtable$?GraphMoving@CGraphMove@@QAE_NPAVCMainBlock@@PAVCGraphImp@@ABVCPoint@@@Z
	DD	2 DUP(00H)
	DD	2 DUP(00H)
	DD	00H
	DD	01H
__unwindtable$?GraphMoving@CGraphMove@@QAE_NPAVCMainBlock@@PAVCGraphImp@@ABVCPoint@@@Z DD 0ffffffffH
	DD	FLAT:__unwindfunclet$?GraphMoving@CGraphMove@@QAE_NPAVCMainBlock@@PAVCGraphImp@@ABVCPoint@@@Z$0
	DD	00H
	DD	FLAT:__unwindfunclet$?GraphMoving@CGraphMove@@QAE_NPAVCMainBlock@@PAVCGraphImp@@ABVCPoint@@@Z$1
	DD	01H
	DD	FLAT:__unwindfunclet$?GraphMoving@CGraphMove@@QAE_NPAVCMainBlock@@PAVCGraphImp@@ABVCPoint@@@Z$2
	DD	02H
	DD	FLAT:__unwindfunclet$?GraphMoving@CGraphMove@@QAE_NPAVCMainBlock@@PAVCGraphImp@@ABVCPoint@@@Z$3
	DD	03H
	DD	FLAT:__unwindfunclet$?GraphMoving@CGraphMove@@QAE_NPAVCMainBlock@@PAVCGraphImp@@ABVCPoint@@@Z$4
	DD	00H
	DD	FLAT:___std_terminate
	DD	00H
	DD	FLAT:__unwindfunclet$?GraphMoving@CGraphMove@@QAE_NPAVCMainBlock@@PAVCGraphImp@@ABVCPoint@@@Z$5
	DD	0ffffffffH
	DD	FLAT:__unwindfunclet$?GraphMoving@CGraphMove@@QAE_NPAVCMainBlock@@PAVCGraphImp@@ABVCPoint@@@Z$7
	DD	07H
	DD	FLAT:__unwindfunclet$?GraphMoving@CGraphMove@@QAE_NPAVCMainBlock@@PAVCGraphImp@@ABVCPoint@@@Z$8
	DD	08H
	DD	FLAT:__unwindfunclet$?GraphMoving@CGraphMove@@QAE_NPAVCMainBlock@@PAVCGraphImp@@ABVCPoint@@@Z$9
	DD	08H
	DD	FLAT:__unwindfunclet$?GraphMoving@CGraphMove@@QAE_NPAVCMainBlock@@PAVCGraphImp@@ABVCPoint@@@Z$10
xdata$x	ENDS
; Function compile flags: /Ogtp
; File C:\Program Files (x86)\Microsoft Visual Studio\2019\Community\VC\Tools\MSVC\14.29.30133\include\xutility
;	COMDAT ??$_Copy_memmove@PAPAPAVCGraphImp@@PAPAPAV1@@std@@YAPAPAPAVCGraphImp@@PAPAPAV1@00@Z
_TEXT	SEGMENT
__First$ = 8						; size = 4
__Last$ = 12						; size = 4
__Dest$ = 16						; size = 4
??$_Copy_memmove@PAPAPAVCGraphImp@@PAPAPAV1@@std@@YAPAPAPAVCGraphImp@@PAPAPAV1@00@Z PROC ; std::_Copy_memmove<CGraphImp * * *,CGraphImp * * *>, COMDAT

; 4058 : _OutCtgIt _Copy_memmove(_CtgIt _First, _CtgIt _Last, _OutCtgIt _Dest) {

  00000	55		 push	 ebp
  00001	8b ec		 mov	 ebp, esp

; 4059 :     auto _FirstPtr              = _To_address(_First);
; 4060 :     auto _LastPtr               = _To_address(_Last);
; 4061 :     auto _DestPtr               = _To_address(_Dest);
; 4062 :     const char* const _First_ch = const_cast<const char*>(reinterpret_cast<const volatile char*>(_FirstPtr));
; 4063 :     const char* const _Last_ch  = const_cast<const char*>(reinterpret_cast<const volatile char*>(_LastPtr));
; 4064 :     char* const _Dest_ch        = const_cast<char*>(reinterpret_cast<const volatile char*>(_DestPtr));
; 4065 :     const auto _Count           = static_cast<size_t>(_Last_ch - _First_ch);

  00003	8b 45 08	 mov	 eax, DWORD PTR __First$[ebp]
  00006	56		 push	 esi

; 4066 :     _CSTD memmove(_Dest_ch, _First_ch, _Count);

  00007	8b 75 10	 mov	 esi, DWORD PTR __Dest$[ebp]
  0000a	57		 push	 edi
  0000b	8b 7d 0c	 mov	 edi, DWORD PTR __Last$[ebp]
  0000e	2b f8		 sub	 edi, eax
  00010	57		 push	 edi
  00011	50		 push	 eax
  00012	56		 push	 esi
  00013	e8 00 00 00 00	 call	 _memmove
  00018	83 c4 0c	 add	 esp, 12			; 0000000cH

; 4067 :     if constexpr (is_pointer_v<_OutCtgIt>) {
; 4068 :         return reinterpret_cast<_OutCtgIt>(_Dest_ch + _Count);

  0001b	8d 04 37	 lea	 eax, DWORD PTR [edi+esi]
  0001e	5f		 pop	 edi
  0001f	5e		 pop	 esi

; 4069 :     } else {
; 4070 :         return _Dest + (_LastPtr - _FirstPtr);
; 4071 :     }
; 4072 : }

  00020	5d		 pop	 ebp
  00021	c3		 ret	 0
??$_Copy_memmove@PAPAPAVCGraphImp@@PAPAPAV1@@std@@YAPAPAPAVCGraphImp@@PAPAPAV1@00@Z ENDP ; std::_Copy_memmove<CGraphImp * * *,CGraphImp * * *>
_TEXT	ENDS
; Function compile flags: /Ogtp
; File C:\Program Files (x86)\Microsoft Visual Studio\2019\Community\VC\Tools\MSVC\14.29.30133\include\xmemory
;	COMDAT ??$_Zero_range@PAPAPAVCGraphImp@@@std@@YAPAPAPAVCGraphImp@@QAPAPAV1@0@Z
_TEXT	SEGMENT
__First$ = 8						; size = 4
__Last$ = 12						; size = 4
??$_Zero_range@PAPAPAVCGraphImp@@@std@@YAPAPAPAVCGraphImp@@QAPAPAV1@0@Z PROC ; std::_Zero_range<CGraphImp * * *>, COMDAT

; 1789 : _Ptr _Zero_range(const _Ptr _First, const _Ptr _Last) { // fill [_First, _Last) with zeroes

  00000	55		 push	 ebp
  00001	8b ec		 mov	 ebp, esp

; 1790 :     char* const _First_ch = reinterpret_cast<char*>(_To_address(_First));
; 1791 :     char* const _Last_ch  = reinterpret_cast<char*>(_To_address(_Last));
; 1792 :     _CSTD memset(_First_ch, 0, static_cast<size_t>(_Last_ch - _First_ch));

  00003	8b 55 08	 mov	 edx, DWORD PTR __First$[ebp]
  00006	8b 4d 0c	 mov	 ecx, DWORD PTR __Last$[ebp]
  00009	2b ca		 sub	 ecx, edx
  0000b	51		 push	 ecx
  0000c	6a 00		 push	 0
  0000e	52		 push	 edx
  0000f	e8 00 00 00 00	 call	 _memset

; 1793 :     return _Last;

  00014	8b 45 0c	 mov	 eax, DWORD PTR __Last$[ebp]
  00017	83 c4 0c	 add	 esp, 12			; 0000000cH

; 1794 : }

  0001a	5d		 pop	 ebp
  0001b	c3		 ret	 0
??$_Zero_range@PAPAPAVCGraphImp@@@std@@YAPAPAPAVCGraphImp@@QAPAPAV1@0@Z ENDP ; std::_Zero_range<CGraphImp * * *>
_TEXT	ENDS
; Function compile flags: /Ogtp
; File C:\Program Files (x86)\Microsoft Visual Studio\2019\Community\VC\Tools\MSVC\14.29.30133\include\xmemory
;	COMDAT ??$_Uninitialized_value_construct_n_unchecked1@PAPAPAVCGraphImp@@I@std@@YAPAPAPAVCGraphImp@@PAPAPAV1@I@Z
_TEXT	SEGMENT
__UFirst$ = 8						; size = 4
__Count$ = 12						; size = 4
??$_Uninitialized_value_construct_n_unchecked1@PAPAPAVCGraphImp@@I@std@@YAPAPAPAVCGraphImp@@PAPAPAV1@I@Z PROC ; std::_Uninitialized_value_construct_n_unchecked1<CGraphImp * * *,unsigned int>, COMDAT

; 1821 : _NoThrowFwdIt _Uninitialized_value_construct_n_unchecked1(_NoThrowFwdIt _UFirst, _Diff _Count) {

  00000	55		 push	 ebp
  00001	8b ec		 mov	 ebp, esp

; 1822 :     // value-initialize all elements in [_UFirst, _UFirst + _Count_raw)
; 1823 :     _STL_INTERNAL_CHECK(_Count >= 0);
; 1824 :     if constexpr (_Use_memset_value_construct_v<_NoThrowFwdIt>) {
; 1825 :         return _Zero_range(_UFirst, _UFirst + _Count);

  00003	8b 45 0c	 mov	 eax, DWORD PTR __Count$[ebp]
  00006	56		 push	 esi

; 1792 :     _CSTD memset(_First_ch, 0, static_cast<size_t>(_Last_ch - _First_ch));

  00007	8b 75 08	 mov	 esi, DWORD PTR __UFirst$[ebp]

; 1821 : _NoThrowFwdIt _Uninitialized_value_construct_n_unchecked1(_NoThrowFwdIt _UFirst, _Diff _Count) {

  0000a	57		 push	 edi

; 1822 :     // value-initialize all elements in [_UFirst, _UFirst + _Count_raw)
; 1823 :     _STL_INTERNAL_CHECK(_Count >= 0);
; 1824 :     if constexpr (_Use_memset_value_construct_v<_NoThrowFwdIt>) {
; 1825 :         return _Zero_range(_UFirst, _UFirst + _Count);

  0000b	8d 3c 85 00 00
	00 00		 lea	 edi, DWORD PTR [eax*4]

; 1792 :     _CSTD memset(_First_ch, 0, static_cast<size_t>(_Last_ch - _First_ch));

  00012	57		 push	 edi
  00013	6a 00		 push	 0
  00015	56		 push	 esi
  00016	e8 00 00 00 00	 call	 _memset
  0001b	83 c4 0c	 add	 esp, 12			; 0000000cH

; 1822 :     // value-initialize all elements in [_UFirst, _UFirst + _Count_raw)
; 1823 :     _STL_INTERNAL_CHECK(_Count >= 0);
; 1824 :     if constexpr (_Use_memset_value_construct_v<_NoThrowFwdIt>) {
; 1825 :         return _Zero_range(_UFirst, _UFirst + _Count);

  0001e	8d 04 37	 lea	 eax, DWORD PTR [edi+esi]
  00021	5f		 pop	 edi
  00022	5e		 pop	 esi

; 1826 :     } else {
; 1827 :         _Uninitialized_backout<_NoThrowFwdIt> _Backout{_UFirst};
; 1828 :         for (; 0 < _Count; --_Count) {
; 1829 :             _Backout._Emplace_back();
; 1830 :         }
; 1831 : 
; 1832 :         return _Backout._Release();
; 1833 :     }
; 1834 : }

  00023	5d		 pop	 ebp
  00024	c3		 ret	 0
??$_Uninitialized_value_construct_n_unchecked1@PAPAPAVCGraphImp@@I@std@@YAPAPAPAVCGraphImp@@PAPAPAV1@I@Z ENDP ; std::_Uninitialized_value_construct_n_unchecked1<CGraphImp * * *,unsigned int>
_TEXT	ENDS
; Function compile flags: /Ogtp
; File C:\Program Files (x86)\Microsoft Visual Studio\2019\Community\VC\Tools\MSVC\14.29.30133\include\xmemory
; File C:\Program Files (x86)\Microsoft Visual Studio\2019\Community\VC\Tools\MSVC\14.29.30133\include\xutility
; File C:\Program Files (x86)\Microsoft Visual Studio\2019\Community\VC\Tools\MSVC\14.29.30133\include\xmemory
; File C:\Program Files (x86)\Microsoft Visual Studio\2019\Community\VC\Tools\MSVC\14.29.30133\include\xutility
; File C:\Program Files (x86)\Microsoft Visual Studio\2019\Community\VC\Tools\MSVC\14.29.30133\include\xmemory
; File C:\Program Files (x86)\Microsoft Visual Studio\2019\Community\VC\Tools\MSVC\14.29.30133\include\xutility
; File C:\Program Files (x86)\Microsoft Visual Studio\2019\Community\VC\Tools\MSVC\14.29.30133\include\xmemory
;	COMDAT ??$uninitialized_copy@PAPAPAVCGraphImp@@PAPAPAV1@@std@@YAPAPAPAVCGraphImp@@QAPAPAV1@0PAPAPAV1@@Z
_TEXT	SEGMENT
__First$ = 8						; size = 4
__Last$ = 12						; size = 4
__Dest$ = 16						; size = 4
??$uninitialized_copy@PAPAPAVCGraphImp@@PAPAPAV1@@std@@YAPAPAPAVCGraphImp@@QAPAPAV1@0PAPAPAV1@@Z PROC ; std::uninitialized_copy<CGraphImp * * *,CGraphImp * * *>, COMDAT

; 1687 : _NoThrowFwdIt uninitialized_copy(const _InIt _First, const _InIt _Last, _NoThrowFwdIt _Dest) {

  00000	55		 push	 ebp
  00001	8b ec		 mov	 ebp, esp
; File C:\Program Files (x86)\Microsoft Visual Studio\2019\Community\VC\Tools\MSVC\14.29.30133\include\xutility

; 4065 :     const auto _Count           = static_cast<size_t>(_Last_ch - _First_ch);

  00003	8b 45 08	 mov	 eax, DWORD PTR __First$[ebp]
; File C:\Program Files (x86)\Microsoft Visual Studio\2019\Community\VC\Tools\MSVC\14.29.30133\include\xmemory

; 1687 : _NoThrowFwdIt uninitialized_copy(const _InIt _First, const _InIt _Last, _NoThrowFwdIt _Dest) {

  00006	56		 push	 esi
; File C:\Program Files (x86)\Microsoft Visual Studio\2019\Community\VC\Tools\MSVC\14.29.30133\include\xutility

; 4066 :     _CSTD memmove(_Dest_ch, _First_ch, _Count);

  00007	8b 75 10	 mov	 esi, DWORD PTR __Dest$[ebp]
; File C:\Program Files (x86)\Microsoft Visual Studio\2019\Community\VC\Tools\MSVC\14.29.30133\include\xmemory

; 1687 : _NoThrowFwdIt uninitialized_copy(const _InIt _First, const _InIt _Last, _NoThrowFwdIt _Dest) {

  0000a	57		 push	 edi
; File C:\Program Files (x86)\Microsoft Visual Studio\2019\Community\VC\Tools\MSVC\14.29.30133\include\xutility

; 4065 :     const auto _Count           = static_cast<size_t>(_Last_ch - _First_ch);

  0000b	8b 7d 0c	 mov	 edi, DWORD PTR __Last$[ebp]
  0000e	2b f8		 sub	 edi, eax

; 4066 :     _CSTD memmove(_Dest_ch, _First_ch, _Count);

  00010	57		 push	 edi
  00011	50		 push	 eax
  00012	56		 push	 esi
  00013	e8 00 00 00 00	 call	 _memmove
  00018	83 c4 0c	 add	 esp, 12			; 0000000cH

; 4067 :     if constexpr (is_pointer_v<_OutCtgIt>) {
; 4068 :         return reinterpret_cast<_OutCtgIt>(_Dest_ch + _Count);

  0001b	8d 04 37	 lea	 eax, DWORD PTR [edi+esi]
; File C:\Program Files (x86)\Microsoft Visual Studio\2019\Community\VC\Tools\MSVC\14.29.30133\include\xmemory

; 1694 :     return _Dest;

  0001e	5f		 pop	 edi
  0001f	5e		 pop	 esi

; 1695 : }

  00020	5d		 pop	 ebp
  00021	c3		 ret	 0
??$uninitialized_copy@PAPAPAVCGraphImp@@PAPAPAV1@@std@@YAPAPAPAVCGraphImp@@QAPAPAV1@0PAPAPAV1@@Z ENDP ; std::uninitialized_copy<CGraphImp * * *,CGraphImp * * *>
_TEXT	ENDS
; Function compile flags: /Ogtp
; File C:\Program Files (x86)\Microsoft Visual Studio\2019\Community\VC\Tools\MSVC\14.29.30133\include\xmemory
;	COMDAT ??$_Allocate_manually_vector_aligned@U_Default_allocate_traits@std@@@std@@YAPAXI@Z
_TEXT	SEGMENT
__Bytes$ = 8						; size = 4
??$_Allocate_manually_vector_aligned@U_Default_allocate_traits@std@@@std@@YAPAXI@Z PROC ; std::_Allocate_manually_vector_aligned<std::_Default_allocate_traits>, COMDAT

; 127  : __declspec(allocator) void* _Allocate_manually_vector_aligned(const size_t _Bytes) {

  00000	55		 push	 ebp
  00001	8b ec		 mov	 ebp, esp

; 128  :     // allocate _Bytes manually aligned to at least _Big_allocation_alignment
; 129  :     const size_t _Block_size = _Non_user_size + _Bytes;

  00003	8b 45 08	 mov	 eax, DWORD PTR __Bytes$[ebp]
  00006	8d 48 23	 lea	 ecx, DWORD PTR [eax+35]

; 130  :     if (_Block_size <= _Bytes) {

  00009	3b c8		 cmp	 ecx, eax
  0000b	0f 86 00 00 00
	00		 jbe	 ?_Throw_bad_array_new_length@std@@YAXXZ ; std::_Throw_bad_array_new_length

; 79   :         return ::operator new(_Bytes);

  00011	51		 push	 ecx
  00012	e8 00 00 00 00	 call	 ??2@YAPAXI@Z		; operator new

; 131  :         _Throw_bad_array_new_length(); // add overflow
; 132  :     }
; 133  : 
; 134  :     const uintptr_t _Ptr_container = reinterpret_cast<uintptr_t>(_Traits::_Allocate(_Block_size));

  00017	8b c8		 mov	 ecx, eax

; 79   :         return ::operator new(_Bytes);

  00019	83 c4 04	 add	 esp, 4

; 135  :     _STL_VERIFY(_Ptr_container != 0, "invalid argument"); // validate even in release since we're doing p[-1]

  0001c	85 c9		 test	 ecx, ecx
  0001e	74 0b		 je	 SHORT $LN7@Allocate_m

; 136  :     void* const _Ptr = reinterpret_cast<void*>((_Ptr_container + _Non_user_size) & ~(_Big_allocation_alignment - 1));

  00020	8d 41 23	 lea	 eax, DWORD PTR [ecx+35]
  00023	83 e0 e0	 and	 eax, -32		; ffffffe0H

; 137  :     static_cast<uintptr_t*>(_Ptr)[-1] = _Ptr_container;

  00026	89 48 fc	 mov	 DWORD PTR [eax-4], ecx

; 138  : 
; 139  : #ifdef _DEBUG
; 140  :     static_cast<uintptr_t*>(_Ptr)[-2] = _Big_allocation_sentinel;
; 141  : #endif // _DEBUG
; 142  :     return _Ptr;
; 143  : }

  00029	5d		 pop	 ebp
  0002a	c3		 ret	 0
$LN7@Allocate_m:

; 135  :     _STL_VERIFY(_Ptr_container != 0, "invalid argument"); // validate even in release since we're doing p[-1]

  0002b	ff 25 00 00 00
	00		 jmp	 DWORD PTR __imp___invalid_parameter_noinfo_noreturn
??$_Allocate_manually_vector_aligned@U_Default_allocate_traits@std@@@std@@YAPAXI@Z ENDP ; std::_Allocate_manually_vector_aligned<std::_Default_allocate_traits>
_TEXT	ENDS
; Function compile flags: /Ogtp
; File C:\Program Files (x86)\Microsoft Visual Studio\2019\Community\VC\Tools\MSVC\14.29.30133\atlmfc\include\afxtempl.h
; File C:\Program Files (x86)\Microsoft Visual Studio\2019\Community\VC\Tools\MSVC\14.29.30133\atlmfc\include\afx.inl
; File C:\Program Files (x86)\Microsoft Visual Studio\2019\Community\VC\Tools\MSVC\14.29.30133\atlmfc\include\afxtempl.h
; File C:\Program Files (x86)\Microsoft Visual Studio\2019\Community\VC\Tools\MSVC\14.29.30133\atlmfc\include\afx.inl
; File C:\Program Files (x86)\Microsoft Visual Studio\2019\Community\VC\Tools\MSVC\14.29.30133\atlmfc\include\afxtempl.h
; File C:\Program Files (x86)\Microsoft Visual Studio\2019\Community\VC\Tools\MSVC\14.29.30133\atlmfc\include\afx.inl
; File C:\Program Files (x86)\Microsoft Visual Studio\2019\Community\VC\Tools\MSVC\14.29.30133\atlmfc\include\afxtempl.h
;	COMDAT ??$SerializeElements@VCVerticalScaleGroupData@@@@YGXAAVCArchive@@PAVCVerticalScaleGroupData@@H@Z
_TEXT	SEGMENT
_ar$ = 8						; size = 4
_pElements$ = 12					; size = 4
_nCount$ = 16						; size = 4
??$SerializeElements@VCVerticalScaleGroupData@@@@YGXAAVCArchive@@PAVCVerticalScaleGroupData@@H@Z PROC ; SerializeElements<CVerticalScaleGroupData>, COMDAT

; 67   : {

  00000	55		 push	 ebp
  00001	8b ec		 mov	 ebp, esp

; 68   : 	ENSURE(nCount == 0 || pElements != NULL);

  00003	8b 4d 0c	 mov	 ecx, DWORD PTR _pElements$[ebp]
  00006	53		 push	 ebx
  00007	56		 push	 esi
  00008	8b 75 10	 mov	 esi, DWORD PTR _nCount$[ebp]
  0000b	57		 push	 edi
  0000c	85 f6		 test	 esi, esi
  0000e	74 08		 je	 SHORT $LN2@SerializeE
  00010	85 c9		 test	 ecx, ecx
  00012	0f 84 87 00 00
	00		 je	 $LN34@SerializeE
$LN2@SerializeE:
; File C:\Program Files (x86)\Microsoft Visual Studio\2019\Community\VC\Tools\MSVC\14.29.30133\atlmfc\include\afx.inl

; 212  : 	{ return (m_nMode & CArchive::load) == 0; }

  00018	8b 55 08	 mov	 edx, DWORD PTR _ar$[ebp]
  0001b	8b 42 18	 mov	 eax, DWORD PTR [edx+24]
  0001e	f7 d0		 not	 eax
  00020	a8 01		 test	 al, 1
; File C:\Program Files (x86)\Microsoft Visual Studio\2019\Community\VC\Tools\MSVC\14.29.30133\atlmfc\include\afxtempl.h

; 73   : 	if (ar.IsStoring())

  00022	74 3b		 je	 SHORT $LN10@SerializeE

; 74   : 	{
; 75   : 		TYPE* pData;
; 76   : 		UINT_PTR nElementsLeft;
; 77   : 
; 78   : 		nElementsLeft = nCount;
; 79   : 		pData = pElements;
; 80   : 		while( nElementsLeft > 0 )

  00024	85 f6		 test	 esi, esi
  00026	74 30		 je	 SHORT $LN8@SerializeE
  00028	0f 1f 84 00 00
	00 00 00	 npad	 8
$LL5@SerializeE:

; 81   : 		{
; 82   : 			UINT nElementsToWrite;
; 83   : 
; 84   : 			nElementsToWrite = UINT(__min(nElementsLeft, INT_MAX/sizeof(TYPE)));

  00030	bb 55 55 55 01	 mov	 ebx, 22369621		; 01555555H
  00035	3b f3		 cmp	 esi, ebx
  00037	0f 42 de	 cmovb	 ebx, esi

; 85   : 			ar.Write(pData, nElementsToWrite*sizeof(TYPE));

  0003a	8d 3c 5b	 lea	 edi, DWORD PTR [ebx+ebx*2]
  0003d	c1 e7 05	 shl	 edi, 5
  00040	57		 push	 edi
  00041	51		 push	 ecx
  00042	8b ca		 mov	 ecx, edx
  00044	e8 00 00 00 00	 call	 ?Write@CArchive@@QAEXPBXI@Z ; CArchive::Write

; 86   : 			nElementsLeft -= nElementsToWrite;
; 87   : 			pData += nElementsToWrite;

  00049	8b 4d 0c	 mov	 ecx, DWORD PTR _pElements$[ebp]
  0004c	8b 55 08	 mov	 edx, DWORD PTR _ar$[ebp]
  0004f	03 cf		 add	 ecx, edi
  00051	89 4d 0c	 mov	 DWORD PTR _pElements$[ebp], ecx
  00054	2b f3		 sub	 esi, ebx
  00056	75 d8		 jne	 SHORT $LL5@SerializeE
$LN8@SerializeE:
  00058	5f		 pop	 edi

; 105  : 		}
; 106  : 	}
; 107  : }

  00059	5e		 pop	 esi
  0005a	5b		 pop	 ebx
  0005b	5d		 pop	 ebp
  0005c	c2 0c 00	 ret	 12			; 0000000cH
$LN10@SerializeE:

; 97   : 		while( nElementsLeft > 0 )

  0005f	85 f6		 test	 esi, esi
  00061	74 f5		 je	 SHORT $LN8@SerializeE
$LL7@SerializeE:

; 98   : 		{
; 99   : 			UINT nElementsToRead;
; 100  : 
; 101  : 			nElementsToRead = UINT(__min(nElementsLeft, INT_MAX/sizeof(TYPE)));

  00063	bf 55 55 55 01	 mov	 edi, 22369621		; 01555555H
  00068	3b f7		 cmp	 esi, edi
  0006a	0f 42 fe	 cmovb	 edi, esi

; 102  : 			ar.EnsureRead(pData, nElementsToRead*sizeof(TYPE));

  0006d	8d 1c 7f	 lea	 ebx, DWORD PTR [edi+edi*2]
  00070	c1 e3 05	 shl	 ebx, 5
; File C:\Program Files (x86)\Microsoft Visual Studio\2019\Community\VC\Tools\MSVC\14.29.30133\atlmfc\include\afx.inl

; 399  : 	UINT nRead=Read(lpBuf, nCount);

  00073	53		 push	 ebx
  00074	51		 push	 ecx
  00075	8b ca		 mov	 ecx, edx
  00077	e8 00 00 00 00	 call	 ?Read@CArchive@@QAEIPAXI@Z ; CArchive::Read

; 400  : 	if(nRead!=nCount)

  0007c	3b c3		 cmp	 eax, ebx
  0007e	75 16		 jne	 SHORT $LN23@SerializeE
; File C:\Program Files (x86)\Microsoft Visual Studio\2019\Community\VC\Tools\MSVC\14.29.30133\atlmfc\include\afxtempl.h

; 97   : 		while( nElementsLeft > 0 )

  00080	8b 4d 0c	 mov	 ecx, DWORD PTR _pElements$[ebp]
  00083	8b 55 08	 mov	 edx, DWORD PTR _ar$[ebp]

; 103  : 			nElementsLeft -= nElementsToRead;
; 104  : 			pData += nElementsToRead;

  00086	03 cb		 add	 ecx, ebx
  00088	89 4d 0c	 mov	 DWORD PTR _pElements$[ebp], ecx
  0008b	2b f7		 sub	 esi, edi
  0008d	75 d4		 jne	 SHORT $LL7@SerializeE

; 105  : 		}
; 106  : 	}
; 107  : }

  0008f	5f		 pop	 edi
  00090	5e		 pop	 esi
  00091	5b		 pop	 ebx
  00092	5d		 pop	 ebp
  00093	c2 0c 00	 ret	 12			; 0000000cH
$LN23@SerializeE:
; File C:\Program Files (x86)\Microsoft Visual Studio\2019\Community\VC\Tools\MSVC\14.29.30133\atlmfc\include\afx.inl

; 402  : 		AfxThrowArchiveException(CArchiveException::endOfFile);

  00096	6a 00		 push	 0
  00098	6a 03		 push	 3
  0009a	e8 00 00 00 00	 call	 ?AfxThrowArchiveException@@YGXHPBD@Z ; AfxThrowArchiveException
$LN34@SerializeE:
; File C:\Program Files (x86)\Microsoft Visual Studio\2019\Community\VC\Tools\MSVC\14.29.30133\atlmfc\include\afxtempl.h

; 68   : 	ENSURE(nCount == 0 || pElements != NULL);

  0009f	e8 00 00 00 00	 call	 ?AfxThrowInvalidArgException@@YGXXZ ; AfxThrowInvalidArgException
$LN32@SerializeE:
  000a4	cc		 int	 3
??$SerializeElements@VCVerticalScaleGroupData@@@@YGXAAVCArchive@@PAVCVerticalScaleGroupData@@H@Z ENDP ; SerializeElements<CVerticalScaleGroupData>
_TEXT	ENDS
; Function compile flags: /Ogtp
;	COMDAT ??1CDlgGraphMove@@UAE@XZ
_TEXT	SEGMENT
??1CDlgGraphMove@@UAE@XZ PROC				; CDlgGraphMove::~CDlgGraphMove, COMDAT
; _this$ = ecx
  00000	56		 push	 esi
  00001	8b f1		 mov	 esi, ecx
  00003	8d 8e 28 01 00
	00		 lea	 ecx, DWORD PTR [esi+296]
  00009	e8 00 00 00 00	 call	 ??1CComboBox@@UAE@XZ	; CComboBox::~CComboBox
  0000e	8d 8e a8 00 00
	00		 lea	 ecx, DWORD PTR [esi+168]
  00014	e8 00 00 00 00	 call	 ??1CComboBox@@UAE@XZ	; CComboBox::~CComboBox
  00019	8b ce		 mov	 ecx, esi
  0001b	5e		 pop	 esi
  0001c	e9 00 00 00 00	 jmp	 ??1CDialog@@UAE@XZ	; CDialog::~CDialog
??1CDlgGraphMove@@UAE@XZ ENDP				; CDlgGraphMove::~CDlgGraphMove
_TEXT	ENDS
; Function compile flags: /Ogtp
;	COMDAT ??1CGraphSearchInfo_IndicatorName@@QAE@XZ
_TEXT	SEGMENT
??1CGraphSearchInfo_IndicatorName@@QAE@XZ PROC		; CGraphSearchInfo_IndicatorName::~CGraphSearchInfo_IndicatorName, COMDAT
; _this$ = ecx
  00000	83 c1 40	 add	 ecx, 64			; 00000040H
  00003	ff 25 00 00 00
	00		 jmp	 DWORD PTR __imp_??1?$CStringT@DV?$StrTraitMFC_DLL@DV?$ChTraitsCRT@D@ATL@@@@@ATL@@QAE@XZ
??1CGraphSearchInfo_IndicatorName@@QAE@XZ ENDP		; CGraphSearchInfo_IndicatorName::~CGraphSearchInfo_IndicatorName
_TEXT	ENDS
; Function compile flags: /Ogtp
; File C:\Program Files (x86)\Microsoft Visual Studio\2019\Community\VC\Tools\MSVC\14.29.30133\include\deque
; File C:\Program Files (x86)\Microsoft Visual Studio\2019\Community\VC\Tools\MSVC\14.29.30133\include\utility
; File C:\Program Files (x86)\Microsoft Visual Studio\2019\Community\VC\Tools\MSVC\14.29.30133\include\xmemory
; File C:\Program Files (x86)\Microsoft Visual Studio\2019\Community\VC\Tools\MSVC\14.29.30133\include\utility
; File C:\Program Files (x86)\Microsoft Visual Studio\2019\Community\VC\Tools\MSVC\14.29.30133\include\xmemory
;	COMDAT ??1CMovingGraphDeque@@QAE@XZ
_TEXT	SEGMENT
??1CMovingGraphDeque@@QAE@XZ PROC			; CMovingGraphDeque::~CMovingGraphDeque, COMDAT
; _this$ = ecx
; File C:\Program Files (x86)\Microsoft Visual Studio\2019\Community\VC\Tools\MSVC\14.29.30133\include\deque

; 1332 :         _Tidy();

  00000	56		 push	 esi
  00001	8b f1		 mov	 esi, ecx
  00003	e8 00 00 00 00	 call	 ?_Tidy@?$deque@PAVCGraphImp@@V?$allocator@PAVCGraphImp@@@std@@@std@@AAEXXZ ; std::deque<CGraphImp *,std::allocator<CGraphImp *> >::_Tidy

; 861  :         _Tidy();

  00008	8b ce		 mov	 ecx, esi
  0000a	e8 00 00 00 00	 call	 ?_Tidy@?$deque@PAVCGraphImp@@V?$allocator@PAVCGraphImp@@@std@@@std@@AAEXXZ ; std::deque<CGraphImp *,std::allocator<CGraphImp *> >::_Tidy
; File C:\Program Files (x86)\Microsoft Visual Studio\2019\Community\VC\Tools\MSVC\14.29.30133\include\utility

; 602  :     _Ty _Old_val = static_cast<_Ty&&>(_Val);

  0000f	8b 06		 mov	 eax, DWORD PTR [esi]
; File C:\Program Files (x86)\Microsoft Visual Studio\2019\Community\VC\Tools\MSVC\14.29.30133\include\xmemory

; 255  :         ::operator delete(_Ptr, _Bytes);

  00011	6a 08		 push	 8
  00013	50		 push	 eax
; File C:\Program Files (x86)\Microsoft Visual Studio\2019\Community\VC\Tools\MSVC\14.29.30133\include\utility

; 603  :     _Val         = static_cast<_Other&&>(_New_val);

  00014	c7 06 00 00 00
	00		 mov	 DWORD PTR [esi], 0
; File C:\Program Files (x86)\Microsoft Visual Studio\2019\Community\VC\Tools\MSVC\14.29.30133\include\xmemory

; 255  :         ::operator delete(_Ptr, _Bytes);

  0001a	e8 00 00 00 00	 call	 ??3@YAXPAXI@Z		; operator delete
  0001f	83 c4 08	 add	 esp, 8
  00022	5e		 pop	 esi
  00023	c3		 ret	 0
??1CMovingGraphDeque@@QAE@XZ ENDP			; CMovingGraphDeque::~CMovingGraphDeque
_TEXT	ENDS
; Function compile flags: /Ogtp
; File C:\Program Files (x86)\Microsoft Visual Studio\2019\Community\VC\Tools\MSVC\14.29.30133\include\deque
; File C:\Program Files (x86)\Microsoft Visual Studio\2019\Community\VC\Tools\MSVC\14.29.30133\include\xmemory
; File C:\Program Files (x86)\Microsoft Visual Studio\2019\Community\VC\Tools\MSVC\14.29.30133\include\deque
; File C:\Program Files (x86)\Microsoft Visual Studio\2019\Community\VC\Tools\MSVC\14.29.30133\include\xmemory
; File C:\Program Files (x86)\Microsoft Visual Studio\2019\Community\VC\Tools\MSVC\14.29.30133\include\deque
; File C:\Program Files (x86)\Microsoft Visual Studio\2019\Community\VC\Tools\MSVC\14.29.30133\include\xmemory
; File C:\Program Files (x86)\Microsoft Visual Studio\2019\Community\VC\Tools\MSVC\14.29.30133\include\deque
;	COMDAT ?_Tidy@?$deque@PAVCGraphImp@@V?$allocator@PAVCGraphImp@@@std@@@std@@AAEXXZ
_TEXT	SEGMENT
?_Tidy@?$deque@PAVCGraphImp@@V?$allocator@PAVCGraphImp@@@std@@@std@@AAEXXZ PROC ; std::deque<CGraphImp *,std::allocator<CGraphImp *> >::_Tidy, COMDAT
; _this$ = ecx

; 1471 :     void _Tidy() noexcept { // free all storage

  00000	57		 push	 edi
  00001	8b f9		 mov	 edi, ecx

; 1002 :         return _Mysize() == 0;

  00003	8b 4f 10	 mov	 ecx, DWORD PTR [edi+16]
  00006	85 c9		 test	 ecx, ecx

; 1472 :         _Orphan_all();
; 1473 : 
; 1474 :         _Alpty _Almap(_Getal());
; 1475 :         while (!empty()) {

  00008	74 15		 je	 SHORT $LN60@Tidy
  0000a	66 0f 1f 44 00
	00		 npad	 6
$LL2@Tidy:

; 1146 :         if (--_Mysize() == 0) {

  00010	8d 41 ff	 lea	 eax, DWORD PTR [ecx-1]
  00013	89 47 10	 mov	 DWORD PTR [edi+16], eax
  00016	8b c8		 mov	 ecx, eax
  00018	85 c0		 test	 eax, eax
  0001a	75 f4		 jne	 SHORT $LL2@Tidy

; 1147 :             _Myoff() = 0;

  0001c	89 47 0c	 mov	 DWORD PTR [edi+12], eax
$LN60@Tidy:
  0001f	56		 push	 esi

; 1479 :         for (size_type _Block = _Mapsize(); 0 < _Block;) { // free storage for a block and destroy pointer

  00020	8b 77 08	 mov	 esi, DWORD PTR [edi+8]
  00023	85 f6		 test	 esi, esi
  00025	74 1a		 je	 SHORT $LN5@Tidy
$LL4@Tidy:

; 1480 :             if (_Map()[--_Block]) { // free block and destroy its pointer

  00027	8b 47 04	 mov	 eax, DWORD PTR [edi+4]
  0002a	4e		 dec	 esi
  0002b	8b 04 b0	 mov	 eax, DWORD PTR [eax+esi*4]
  0002e	85 c0		 test	 eax, eax
  00030	74 0b		 je	 SHORT $LN23@Tidy
; File C:\Program Files (x86)\Microsoft Visual Studio\2019\Community\VC\Tools\MSVC\14.29.30133\include\xmemory

; 255  :         ::operator delete(_Ptr, _Bytes);

  00032	6a 10		 push	 16			; 00000010H
  00034	50		 push	 eax
  00035	e8 00 00 00 00	 call	 ??3@YAXPAXI@Z		; operator delete
  0003a	83 c4 08	 add	 esp, 8
$LN23@Tidy:
; File C:\Program Files (x86)\Microsoft Visual Studio\2019\Community\VC\Tools\MSVC\14.29.30133\include\deque

; 1479 :         for (size_type _Block = _Mapsize(); 0 < _Block;) { // free storage for a block and destroy pointer

  0003d	85 f6		 test	 esi, esi
  0003f	75 e6		 jne	 SHORT $LL4@Tidy
$LN5@Tidy:

; 1481 :                 _Getal().deallocate(_Map()[_Block], _Block_size);
; 1482 :                 _Destroy_in_place(_Map()[_Block]);
; 1483 :             }
; 1484 :         }
; 1485 : 
; 1486 :         if (_Map() != _Mapptr()) {

  00041	8b 47 04	 mov	 eax, DWORD PTR [edi+4]
  00044	5e		 pop	 esi
  00045	85 c0		 test	 eax, eax
  00047	74 2a		 je	 SHORT $LN41@Tidy
; File C:\Program Files (x86)\Microsoft Visual Studio\2019\Community\VC\Tools\MSVC\14.29.30133\include\xmemory

; 797  :         _Deallocate<_New_alignof<_Ty>>(_Ptr, sizeof(_Ty) * _Count);

  00049	8b 4f 08	 mov	 ecx, DWORD PTR [edi+8]
  0004c	c1 e1 02	 shl	 ecx, 2

; 251  :         if (_Bytes >= _Big_allocation_threshold) { // boost the alignment of big allocations to help autovectorization

  0004f	81 f9 00 10 00
	00		 cmp	 ecx, 4096		; 00001000H
  00055	72 12		 jb	 SHORT $LN51@Tidy

; 150  :     const uintptr_t _Ptr_container   = _Ptr_user[-1];

  00057	8b 50 fc	 mov	 edx, DWORD PTR [eax-4]
  0005a	83 c1 23	 add	 ecx, 35			; 00000023H

; 151  : 
; 152  :     // If the following asserts, it likely means that we are performing
; 153  :     // an aligned delete on memory coming from an unaligned allocation.
; 154  :     _STL_ASSERT(_Ptr_user[-2] == _Big_allocation_sentinel, "invalid argument");
; 155  : 
; 156  :     // Extra paranoia on aligned allocation/deallocation; ensure _Ptr_container is
; 157  :     // in range [_Min_back_shift, _Non_user_size]
; 158  : #ifdef _DEBUG
; 159  :     constexpr uintptr_t _Min_back_shift = 2 * sizeof(void*);
; 160  : #else // ^^^ _DEBUG ^^^ // vvv !_DEBUG vvv
; 161  :     constexpr uintptr_t _Min_back_shift = sizeof(void*);
; 162  : #endif // _DEBUG
; 163  :     const uintptr_t _Back_shift = reinterpret_cast<uintptr_t>(_Ptr) - _Ptr_container;

  0005d	2b c2		 sub	 eax, edx

; 164  :     _STL_VERIFY(_Back_shift >= _Min_back_shift && _Back_shift <= _Non_user_size, "invalid argument");

  0005f	83 c0 fc	 add	 eax, -4			; fffffffcH
  00062	83 f8 1f	 cmp	 eax, 31			; 0000001fH
  00065	77 1c		 ja	 SHORT $LN48@Tidy

; 165  :     _Ptr = reinterpret_cast<void*>(_Ptr_container);

  00067	8b c2		 mov	 eax, edx
$LN51@Tidy:

; 255  :         ::operator delete(_Ptr, _Bytes);

  00069	51		 push	 ecx
  0006a	50		 push	 eax
  0006b	e8 00 00 00 00	 call	 ??3@YAXPAXI@Z		; operator delete
  00070	83 c4 08	 add	 esp, 8
$LN41@Tidy:
; File C:\Program Files (x86)\Microsoft Visual Studio\2019\Community\VC\Tools\MSVC\14.29.30133\include\deque

; 1490 :         _Mapsize() = 0;

  00073	c7 47 08 00 00
	00 00		 mov	 DWORD PTR [edi+8], 0

; 1491 :         _Map()     = _Mapptr();

  0007a	c7 47 04 00 00
	00 00		 mov	 DWORD PTR [edi+4], 0
  00081	5f		 pop	 edi

; 1492 :     }

  00082	c3		 ret	 0
$LN48@Tidy:
; File C:\Program Files (x86)\Microsoft Visual Studio\2019\Community\VC\Tools\MSVC\14.29.30133\include\xmemory

; 164  :     _STL_VERIFY(_Back_shift >= _Min_back_shift && _Back_shift <= _Non_user_size, "invalid argument");

  00083	ff 15 00 00 00
	00		 call	 DWORD PTR __imp___invalid_parameter_noinfo_noreturn
$LN62@Tidy:
  00089	cc		 int	 3
?_Tidy@?$deque@PAVCGraphImp@@V?$allocator@PAVCGraphImp@@@std@@@std@@AAEXXZ ENDP ; std::deque<CGraphImp *,std::allocator<CGraphImp *> >::_Tidy
_TEXT	ENDS
; Function compile flags: /Ogtp
;	COMDAT ??1CVerticalScaleGroupDataList@@QAE@XZ
_TEXT	SEGMENT
??1CVerticalScaleGroupDataList@@QAE@XZ PROC		; CVerticalScaleGroupDataList::~CVerticalScaleGroupDataList, COMDAT
; _this$ = ecx
  00000	83 c1 04	 add	 ecx, 4
  00003	e9 00 00 00 00	 jmp	 ??1?$CList@VCVerticalScaleGroupData@@AAV1@@@UAE@XZ ; CList<CVerticalScaleGroupData,CVerticalScaleGroupData &>::~CList<CVerticalScaleGroupData,CVerticalScaleGroupData &>
??1CVerticalScaleGroupDataList@@QAE@XZ ENDP		; CVerticalScaleGroupDataList::~CVerticalScaleGroupDataList
_TEXT	ENDS
; Function compile flags: /Ogtp
; File C:\Program Files (x86)\Microsoft Visual Studio\2019\Community\VC\Tools\MSVC\14.29.30133\atlmfc\include\afx.inl
;	COMDAT ??_G?$CList@VCVerticalScaleGroupData@@AAV1@@@UAEPAXI@Z
_TEXT	SEGMENT
___flags$ = 8						; size = 4
??_G?$CList@VCVerticalScaleGroupData@@AAV1@@@UAEPAXI@Z PROC ; CList<CVerticalScaleGroupData,CVerticalScaleGroupData &>::`scalar deleting destructor', COMDAT
; _this$ = ecx
  00000	55		 push	 ebp
  00001	8b ec		 mov	 ebp, esp
  00003	56		 push	 esi
  00004	8b f1		 mov	 esi, ecx
  00006	e8 00 00 00 00	 call	 ??1?$CList@VCVerticalScaleGroupData@@AAV1@@@UAE@XZ ; CList<CVerticalScaleGroupData,CVerticalScaleGroupData &>::~CList<CVerticalScaleGroupData,CVerticalScaleGroupData &>
  0000b	8b 45 08	 mov	 eax, DWORD PTR ___flags$[ebp]
  0000e	a8 01		 test	 al, 1
  00010	74 1f		 je	 SHORT $LN9@scalar
  00012	a8 04		 test	 al, 4
  00014	75 10		 jne	 SHORT $LN3@scalar

; 112  : 	{ ::operator delete(p); }

  00016	56		 push	 esi
  00017	e8 00 00 00 00	 call	 ??3@YAXPAX@Z		; operator delete
  0001c	83 c4 04	 add	 esp, 4
  0001f	8b c6		 mov	 eax, esi
  00021	5e		 pop	 esi
  00022	5d		 pop	 ebp
  00023	c2 04 00	 ret	 4
$LN3@scalar:
  00026	6a 1c		 push	 28			; 0000001cH
  00028	56		 push	 esi
  00029	e8 00 00 00 00	 call	 ?__global_delete@@YAXPAXI@Z ; __global_delete
  0002e	83 c4 08	 add	 esp, 8
$LN9@scalar:
  00031	8b c6		 mov	 eax, esi
  00033	5e		 pop	 esi
  00034	5d		 pop	 ebp
  00035	c2 04 00	 ret	 4
??_G?$CList@VCVerticalScaleGroupData@@AAV1@@@UAEPAXI@Z ENDP ; CList<CVerticalScaleGroupData,CVerticalScaleGroupData &>::`scalar deleting destructor'
_TEXT	ENDS
; Function compile flags: /Ogtp
; File C:\Program Files (x86)\Microsoft Visual Studio\2019\Community\VC\Tools\MSVC\14.29.30133\atlmfc\include\afxtempl.h
; File C:\Program Files (x86)\Microsoft Visual Studio\2019\Community\VC\Tools\MSVC\14.29.30133\atlmfc\include\afx.inl
; File C:\Program Files (x86)\Microsoft Visual Studio\2019\Community\VC\Tools\MSVC\14.29.30133\atlmfc\include\afxtempl.h
; File C:\Program Files (x86)\Microsoft Visual Studio\2019\Community\VC\Tools\MSVC\14.29.30133\atlmfc\include\afx.inl
; File C:\Program Files (x86)\Microsoft Visual Studio\2019\Community\VC\Tools\MSVC\14.29.30133\atlmfc\include\afxtempl.h
; File C:\Program Files (x86)\Microsoft Visual Studio\2019\Community\VC\Tools\MSVC\14.29.30133\atlmfc\include\afx.inl
; File C:\Program Files (x86)\Microsoft Visual Studio\2019\Community\VC\Tools\MSVC\14.29.30133\atlmfc\include\afxtempl.h
; File C:\Program Files (x86)\Microsoft Visual Studio\2019\Community\VC\Tools\MSVC\14.29.30133\atlmfc\include\afx.inl
; File C:\Program Files (x86)\Microsoft Visual Studio\2019\Community\VC\Tools\MSVC\14.29.30133\atlmfc\include\afxtempl.h
; File C:\Program Files (x86)\Microsoft Visual Studio\2019\Community\VC\Tools\MSVC\14.29.30133\atlmfc\include\afx.inl
; File C:\Program Files (x86)\Microsoft Visual Studio\2019\Community\VC\Tools\MSVC\14.29.30133\atlmfc\include\afxtempl.h
; File C:\Program Files (x86)\Microsoft Visual Studio\2019\Community\VC\Tools\MSVC\14.29.30133\atlmfc\include\afx.inl
; File C:\Program Files (x86)\Microsoft Visual Studio\2019\Community\VC\Tools\MSVC\14.29.30133\atlmfc\include\afxtempl.h
; File C:\Program Files (x86)\Microsoft Visual Studio\2019\Community\VC\Tools\MSVC\14.29.30133\atlmfc\include\afx.inl
; File C:\Program Files (x86)\Microsoft Visual Studio\2019\Community\VC\Tools\MSVC\14.29.30133\atlmfc\include\afxtempl.h
;	COMDAT ?Serialize@?$CList@VCVerticalScaleGroupData@@AAV1@@@UAEXAAVCArchive@@@Z
_TEXT	SEGMENT
_newData$2 = -120					; size = 96
_nNewCount$1$ = -24					; size = 4
_pData$1$ = -20						; size = 4
_pData$1$ = -20						; size = 4
_pNode$1$ = -20						; size = 4
_nCount$1$ = -16					; size = 4
_nElementsLeft$1$ = -16					; size = 4
_this$1$ = -16						; size = 4
__$EHRec$ = -12						; size = 12
_ar$ = 8						; size = 4
?Serialize@?$CList@VCVerticalScaleGroupData@@AAV1@@@UAEXAAVCArchive@@@Z PROC ; CList<CVerticalScaleGroupData,CVerticalScaleGroupData &>::Serialize, COMDAT
; _this$ = ecx

; 1169 : {

  00000	55		 push	 ebp
  00001	8b ec		 mov	 ebp, esp
  00003	6a ff		 push	 -1
  00005	68 00 00 00 00	 push	 __ehhandler$?Serialize@?$CList@VCVerticalScaleGroupData@@AAV1@@@UAEXAAVCArchive@@@Z
  0000a	64 a1 00 00 00
	00		 mov	 eax, DWORD PTR fs:0
  00010	50		 push	 eax
  00011	83 ec 6c	 sub	 esp, 108		; 0000006cH
  00014	53		 push	 ebx
  00015	56		 push	 esi
  00016	57		 push	 edi
  00017	a1 00 00 00 00	 mov	 eax, DWORD PTR ___security_cookie
  0001c	33 c5		 xor	 eax, ebp
  0001e	50		 push	 eax
  0001f	8d 45 f4	 lea	 eax, DWORD PTR __$EHRec$[ebp]
  00022	64 a3 00 00 00
	00		 mov	 DWORD PTR fs:0, eax
  00028	8b d9		 mov	 ebx, ecx
  0002a	89 5d f0	 mov	 DWORD PTR _this$1$[ebp], ebx
; File C:\Program Files (x86)\Microsoft Visual Studio\2019\Community\VC\Tools\MSVC\14.29.30133\atlmfc\include\afx.inl

; 212  : 	{ return (m_nMode & CArchive::load) == 0; }

  0002d	8b 4d 08	 mov	 ecx, DWORD PTR _ar$[ebp]
  00030	8b 41 18	 mov	 eax, DWORD PTR [ecx+24]
  00033	f7 d0		 not	 eax
  00035	a8 01		 test	 al, 1
; File C:\Program Files (x86)\Microsoft Visual Studio\2019\Community\VC\Tools\MSVC\14.29.30133\atlmfc\include\afxtempl.h

; 1174 : 	if (ar.IsStoring())

  00037	0f 84 b6 00 00
	00		 je	 $LN7@Serialize

; 1175 : 	{
; 1176 : 		ar.WriteCount(m_nCount);

  0003d	ff 73 0c	 push	 DWORD PTR [ebx+12]
  00040	e8 00 00 00 00	 call	 ?WriteCount@CArchive@@QAEXK@Z ; CArchive::WriteCount

; 1177 : 		for (CNode* pNode = m_pNodeHead; pNode != NULL; pNode = pNode->pNext)

  00045	8b 43 04	 mov	 eax, DWORD PTR [ebx+4]
  00048	89 45 ec	 mov	 DWORD PTR _pNode$1$[ebp], eax
  0004b	85 c0		 test	 eax, eax
  0004d	0f 84 e6 01 00
	00		 je	 $LN87@Serialize
$LL4@Serialize:

; 1178 : 		{
; 1179 : 			ASSERT(AfxIsValidAddress(pNode, sizeof(CNode)));
; 1180 : 			TYPE* pData;
; 1181 : 			/*
; 1182 : 			 * in some cases the & operator might be overloaded, and we cannot use it to obtain
; 1183 : 			 * the address of a given object.  We then use the following trick to get the address
; 1184 : 			 */
; 1185 : 			pData = reinterpret_cast< TYPE* >( &reinterpret_cast< int& >( static_cast< TYPE& >( pNode->data ) ) );

  00053	8d 70 08	 lea	 esi, DWORD PTR [eax+8]

; 68   : 	ENSURE(nCount == 0 || pElements != NULL);

  00056	85 f6		 test	 esi, esi
  00058	0f 84 f8 01 00
	00		 je	 $LN77@Serialize
; File C:\Program Files (x86)\Microsoft Visual Studio\2019\Community\VC\Tools\MSVC\14.29.30133\atlmfc\include\afx.inl

; 212  : 	{ return (m_nMode & CArchive::load) == 0; }

  0005e	8b 4d 08	 mov	 ecx, DWORD PTR _ar$[ebp]
  00061	8b 41 18	 mov	 eax, DWORD PTR [ecx+24]
  00064	f7 d0		 not	 eax
  00066	a8 01		 test	 al, 1
; File C:\Program Files (x86)\Microsoft Visual Studio\2019\Community\VC\Tools\MSVC\14.29.30133\atlmfc\include\afxtempl.h

; 73   : 	if (ar.IsStoring())

  00068	74 32		 je	 SHORT $LN22@Serialize

; 74   : 	{
; 75   : 		TYPE* pData;
; 76   : 		UINT_PTR nElementsLeft;
; 77   : 
; 78   : 		nElementsLeft = nCount;

  0006a	b8 01 00 00 00	 mov	 eax, 1
  0006f	89 45 f0	 mov	 DWORD PTR _nElementsLeft$1$[ebp], eax
$LL17@Serialize:

; 79   : 		pData = pElements;
; 80   : 		while( nElementsLeft > 0 )
; 81   : 		{
; 82   : 			UINT nElementsToWrite;
; 83   : 
; 84   : 			nElementsToWrite = UINT(__min(nElementsLeft, INT_MAX/sizeof(TYPE)));

  00072	bb 55 55 55 01	 mov	 ebx, 22369621		; 01555555H
  00077	3b c3		 cmp	 eax, ebx
  00079	0f 42 d8	 cmovb	 ebx, eax

; 85   : 			ar.Write(pData, nElementsToWrite*sizeof(TYPE));

  0007c	8d 3c 5b	 lea	 edi, DWORD PTR [ebx+ebx*2]
  0007f	c1 e7 05	 shl	 edi, 5
  00082	57		 push	 edi
  00083	56		 push	 esi
  00084	e8 00 00 00 00	 call	 ?Write@CArchive@@QAEXPBXI@Z ; CArchive::Write

; 86   : 			nElementsLeft -= nElementsToWrite;

  00089	8b 45 f0	 mov	 eax, DWORD PTR _nElementsLeft$1$[ebp]

; 87   : 			pData += nElementsToWrite;

  0008c	03 f7		 add	 esi, edi
  0008e	8b 4d 08	 mov	 ecx, DWORD PTR _ar$[ebp]
  00091	2b c3		 sub	 eax, ebx
  00093	89 45 f0	 mov	 DWORD PTR _nElementsLeft$1$[ebp], eax
  00096	85 c0		 test	 eax, eax
  00098	75 d8		 jne	 SHORT $LL17@Serialize

; 88   : 		}
; 89   : 	}

  0009a	eb 33		 jmp	 SHORT $LN2@Serialize
$LN22@Serialize:

; 90   : 	else
; 91   : 	{
; 92   : 		TYPE* pData;
; 93   : 		UINT_PTR nElementsLeft;
; 94   : 
; 95   : 		nElementsLeft = nCount;

  0009c	bf 01 00 00 00	 mov	 edi, 1
$LL19@Serialize:

; 98   : 		{
; 99   : 			UINT nElementsToRead;
; 100  : 
; 101  : 			nElementsToRead = UINT(__min(nElementsLeft, INT_MAX/sizeof(TYPE)));

  000a1	bb 55 55 55 01	 mov	 ebx, 22369621		; 01555555H
  000a6	3b fb		 cmp	 edi, ebx
  000a8	0f 42 df	 cmovb	 ebx, edi

; 102  : 			ar.EnsureRead(pData, nElementsToRead*sizeof(TYPE));

  000ab	8d 04 5b	 lea	 eax, DWORD PTR [ebx+ebx*2]
  000ae	c1 e0 05	 shl	 eax, 5
; File C:\Program Files (x86)\Microsoft Visual Studio\2019\Community\VC\Tools\MSVC\14.29.30133\atlmfc\include\afx.inl

; 399  : 	UINT nRead=Read(lpBuf, nCount);

  000b1	50		 push	 eax
  000b2	56		 push	 esi
; File C:\Program Files (x86)\Microsoft Visual Studio\2019\Community\VC\Tools\MSVC\14.29.30133\atlmfc\include\afxtempl.h

; 102  : 			ar.EnsureRead(pData, nElementsToRead*sizeof(TYPE));

  000b3	89 45 f0	 mov	 DWORD PTR _nCount$1$[ebp], eax
; File C:\Program Files (x86)\Microsoft Visual Studio\2019\Community\VC\Tools\MSVC\14.29.30133\atlmfc\include\afx.inl

; 399  : 	UINT nRead=Read(lpBuf, nCount);

  000b6	e8 00 00 00 00	 call	 ?Read@CArchive@@QAEIPAXI@Z ; CArchive::Read

; 400  : 	if(nRead!=nCount)

  000bb	8b 4d f0	 mov	 ecx, DWORD PTR _nCount$1$[ebp]
  000be	3b c1		 cmp	 eax, ecx
  000c0	0f 85 87 01 00
	00		 jne	 $LN76@Serialize
; File C:\Program Files (x86)\Microsoft Visual Studio\2019\Community\VC\Tools\MSVC\14.29.30133\atlmfc\include\afxtempl.h

; 97   : 		while( nElementsLeft > 0 )

  000c6	03 f1		 add	 esi, ecx
  000c8	8b 4d 08	 mov	 ecx, DWORD PTR _ar$[ebp]

; 103  : 			nElementsLeft -= nElementsToRead;

  000cb	2b fb		 sub	 edi, ebx
  000cd	75 d2		 jne	 SHORT $LL19@Serialize
$LN2@Serialize:

; 1177 : 		for (CNode* pNode = m_pNodeHead; pNode != NULL; pNode = pNode->pNext)

  000cf	8b 45 ec	 mov	 eax, DWORD PTR _pNode$1$[ebp]
  000d2	8b 00		 mov	 eax, DWORD PTR [eax]
  000d4	89 45 ec	 mov	 DWORD PTR _pNode$1$[ebp], eax
  000d7	85 c0		 test	 eax, eax
  000d9	0f 85 74 ff ff
	ff		 jne	 $LL4@Serialize

; 1198 : 	}
; 1199 : }

  000df	8b 4d f4	 mov	 ecx, DWORD PTR __$EHRec$[ebp]
  000e2	64 89 0d 00 00
	00 00		 mov	 DWORD PTR fs:0, ecx
  000e9	59		 pop	 ecx
  000ea	5f		 pop	 edi
  000eb	5e		 pop	 esi
  000ec	5b		 pop	 ebx
  000ed	8b e5		 mov	 esp, ebp
  000ef	5d		 pop	 ebp
  000f0	c2 04 00	 ret	 4
$LN7@Serialize:

; 1186 : 			SerializeElements<TYPE>(ar, pData, 1);
; 1187 : 		}
; 1188 : 	}
; 1189 : 	else
; 1190 : 	{
; 1191 : 		DWORD_PTR nNewCount = ar.ReadCount();

  000f3	e8 00 00 00 00	 call	 ?ReadCount@CArchive@@QAEKXZ ; CArchive::ReadCount

; 1192 : 		while (nNewCount--)

  000f8	85 c0		 test	 eax, eax
  000fa	0f 84 39 01 00
	00		 je	 $LN87@Serialize
$LL5@Serialize:

; 1194 : 			TYPE newData[1];

  00100	68 00 00 00 00	 push	 OFFSET ??1CVerticalScaleGroupData@@QAE@XZ
  00105	68 00 00 00 00	 push	 OFFSET ??0CVerticalScaleGroupData@@QAE@XZ ; CVerticalScaleGroupData::CVerticalScaleGroupData
  0010a	48		 dec	 eax
  0010b	6a 01		 push	 1
  0010d	89 45 e8	 mov	 DWORD PTR _nNewCount$1$[ebp], eax
  00110	8d 45 88	 lea	 eax, DWORD PTR _newData$2[ebp]
  00113	6a 60		 push	 96			; 00000060H
  00115	50		 push	 eax
  00116	e8 00 00 00 00	 call	 ??_L@YGXPAXIIP6EX0@Z1@Z
; File C:\Program Files (x86)\Microsoft Visual Studio\2019\Community\VC\Tools\MSVC\14.29.30133\atlmfc\include\afx.inl

; 212  : 	{ return (m_nMode & CArchive::load) == 0; }

  0011b	8b 4d 08	 mov	 ecx, DWORD PTR _ar$[ebp]
; File C:\Program Files (x86)\Microsoft Visual Studio\2019\Community\VC\Tools\MSVC\14.29.30133\atlmfc\include\afxtempl.h

; 1194 : 			TYPE newData[1];

  0011e	c7 45 fc 00 00
	00 00		 mov	 DWORD PTR __$EHRec$[ebp+8], 0
; File C:\Program Files (x86)\Microsoft Visual Studio\2019\Community\VC\Tools\MSVC\14.29.30133\atlmfc\include\afx.inl

; 212  : 	{ return (m_nMode & CArchive::load) == 0; }

  00125	8b 41 18	 mov	 eax, DWORD PTR [ecx+24]
  00128	f7 d0		 not	 eax
  0012a	a8 01		 test	 al, 1
; File C:\Program Files (x86)\Microsoft Visual Studio\2019\Community\VC\Tools\MSVC\14.29.30133\atlmfc\include\afxtempl.h

; 73   : 	if (ar.IsStoring())

  0012c	8d 45 88	 lea	 eax, DWORD PTR _newData$2[ebp]
  0012f	89 45 ec	 mov	 DWORD PTR _pData$1$[ebp], eax
  00132	74 34		 je	 SHORT $LN43@Serialize

; 74   : 	{
; 75   : 		TYPE* pData;
; 76   : 		UINT_PTR nElementsLeft;
; 77   : 
; 78   : 		nElementsLeft = nCount;

  00134	bb 01 00 00 00	 mov	 ebx, 1
  00139	0f 1f 80 00 00
	00 00		 npad	 7
$LL38@Serialize:

; 79   : 		pData = pElements;
; 80   : 		while( nElementsLeft > 0 )
; 81   : 		{
; 82   : 			UINT nElementsToWrite;
; 83   : 
; 84   : 			nElementsToWrite = UINT(__min(nElementsLeft, INT_MAX/sizeof(TYPE)));

  00140	bf 55 55 55 01	 mov	 edi, 22369621		; 01555555H
  00145	3b df		 cmp	 ebx, edi
  00147	0f 42 fb	 cmovb	 edi, ebx

; 85   : 			ar.Write(pData, nElementsToWrite*sizeof(TYPE));

  0014a	8d 34 7f	 lea	 esi, DWORD PTR [edi+edi*2]
  0014d	c1 e6 05	 shl	 esi, 5
  00150	56		 push	 esi
  00151	50		 push	 eax
  00152	e8 00 00 00 00	 call	 ?Write@CArchive@@QAEXPBXI@Z ; CArchive::Write

; 87   : 			pData += nElementsToWrite;

  00157	8b 45 ec	 mov	 eax, DWORD PTR _pData$1$[ebp]
  0015a	8b 4d 08	 mov	 ecx, DWORD PTR _ar$[ebp]
  0015d	03 c6		 add	 eax, esi
  0015f	89 45 ec	 mov	 DWORD PTR _pData$1$[ebp], eax
  00162	2b df		 sub	 ebx, edi
  00164	75 da		 jne	 SHORT $LL38@Serialize

; 88   : 		}
; 89   : 	}

  00166	eb 36		 jmp	 SHORT $LN41@Serialize
$LN43@Serialize:

; 90   : 	else
; 91   : 	{
; 92   : 		TYPE* pData;
; 93   : 		UINT_PTR nElementsLeft;
; 94   : 
; 95   : 		nElementsLeft = nCount;

  00168	be 01 00 00 00	 mov	 esi, 1
  0016d	0f 1f 00	 npad	 3
$LL40@Serialize:

; 98   : 		{
; 99   : 			UINT nElementsToRead;
; 100  : 
; 101  : 			nElementsToRead = UINT(__min(nElementsLeft, INT_MAX/sizeof(TYPE)));

  00170	bf 55 55 55 01	 mov	 edi, 22369621		; 01555555H
  00175	3b f7		 cmp	 esi, edi
  00177	0f 42 fe	 cmovb	 edi, esi

; 102  : 			ar.EnsureRead(pData, nElementsToRead*sizeof(TYPE));

  0017a	8d 1c 7f	 lea	 ebx, DWORD PTR [edi+edi*2]
  0017d	c1 e3 05	 shl	 ebx, 5
; File C:\Program Files (x86)\Microsoft Visual Studio\2019\Community\VC\Tools\MSVC\14.29.30133\atlmfc\include\afx.inl

; 399  : 	UINT nRead=Read(lpBuf, nCount);

  00180	53		 push	 ebx
  00181	50		 push	 eax
  00182	e8 00 00 00 00	 call	 ?Read@CArchive@@QAEIPAXI@Z ; CArchive::Read

; 400  : 	if(nRead!=nCount)

  00187	3b c3		 cmp	 eax, ebx
  00189	0f 85 be 00 00
	00		 jne	 $LN76@Serialize
; File C:\Program Files (x86)\Microsoft Visual Studio\2019\Community\VC\Tools\MSVC\14.29.30133\atlmfc\include\afxtempl.h

; 97   : 		while( nElementsLeft > 0 )

  0018f	8b 45 ec	 mov	 eax, DWORD PTR _pData$1$[ebp]
  00192	8b 4d 08	 mov	 ecx, DWORD PTR _ar$[ebp]

; 104  : 			pData += nElementsToRead;

  00195	03 c3		 add	 eax, ebx
  00197	89 45 ec	 mov	 DWORD PTR _pData$1$[ebp], eax
  0019a	2b f7		 sub	 esi, edi
  0019c	75 d2		 jne	 SHORT $LL40@Serialize
$LN41@Serialize:

; 968  : 	CNode* pNewNode = NewNode(m_pNodeTail, NULL);

  0019e	8b 5d f0	 mov	 ebx, DWORD PTR _this$1$[ebp]

; 902  : 	if (m_pNodeFree == NULL)

  001a1	83 7b 10 00	 cmp	 DWORD PTR [ebx+16], 0

; 968  : 	CNode* pNewNode = NewNode(m_pNodeTail, NULL);

  001a5	8b 73 08	 mov	 esi, DWORD PTR [ebx+8]

; 902  : 	if (m_pNodeFree == NULL)

  001a8	75 2e		 jne	 SHORT $LN64@Serialize

; 903  : 	{
; 904  : 		// add another block
; 905  : 		CPlex* pNewBlock = CPlex::Create(m_pBlocks, m_nBlockSize,

  001aa	6a 68		 push	 104			; 00000068H
  001ac	ff 73 18	 push	 DWORD PTR [ebx+24]
  001af	8d 43 14	 lea	 eax, DWORD PTR [ebx+20]
  001b2	50		 push	 eax
  001b3	e8 00 00 00 00	 call	 ?Create@CPlex@@SGPAU1@AAPAU1@II@Z ; CPlex::Create

; 906  : 				 sizeof(CNode));
; 907  : 
; 908  : 		// chain them into free list
; 909  : 		CNode* pNode = (CNode*) pNewBlock->data();
; 910  : 		// free in reverse order to make it easier to debug
; 911  : 		pNode += m_nBlockSize - 1;

  001b8	8b 53 18	 mov	 edx, DWORD PTR [ebx+24]
  001bb	6b ca 68	 imul	 ecx, edx, 104
  001be	83 c1 a0	 add	 ecx, -96		; ffffffa0H
  001c1	03 c8		 add	 ecx, eax

; 912  : 		for (INT_PTR i = m_nBlockSize-1; i >= 0; i--, pNode--)

  001c3	83 c2 ff	 add	 edx, -1
  001c6	78 10		 js	 SHORT $LN64@Serialize
$LL61@Serialize:

; 913  : 		{
; 914  : 			pNode->pNext = m_pNodeFree;

  001c8	8b 43 10	 mov	 eax, DWORD PTR [ebx+16]
  001cb	89 01		 mov	 DWORD PTR [ecx], eax

; 915  : 			m_pNodeFree = pNode;

  001cd	89 4b 10	 mov	 DWORD PTR [ebx+16], ecx
  001d0	83 e9 68	 sub	 ecx, 104		; 00000068H
  001d3	83 ea 01	 sub	 edx, 1
  001d6	79 f0		 jns	 SHORT $LL61@Serialize
$LN64@Serialize:

; 916  : 		}
; 917  : 	}
; 918  : 	ENSURE(m_pNodeFree != NULL);  // we must have something

  001d8	8b 7b 10	 mov	 edi, DWORD PTR [ebx+16]
  001db	85 ff		 test	 edi, edi
  001dd	74 77		 je	 SHORT $LN77@Serialize

; 919  : 
; 920  : 	CList::CNode* pNode = m_pNodeFree;
; 921  : 	m_pNodeFree = m_pNodeFree->pNext;

  001df	8b 07		 mov	 eax, DWORD PTR [edi]

; 922  : 	pNode->pPrev = pPrev;
; 923  : 	pNode->pNext = pNext;
; 924  : 	m_nCount++;
; 925  : 	ASSERT(m_nCount > 0);  // make sure we don't overflow
; 926  : 
; 927  : #pragma push_macro("new")
; 928  : #undef new
; 929  : 	::new( (void*)( &pNode->data ) ) TYPE;

  001e1	8d 4f 08	 lea	 ecx, DWORD PTR [edi+8]
  001e4	89 43 10	 mov	 DWORD PTR [ebx+16], eax
  001e7	89 77 04	 mov	 DWORD PTR [edi+4], esi
  001ea	c7 07 00 00 00
	00		 mov	 DWORD PTR [edi], 0
  001f0	ff 43 0c	 inc	 DWORD PTR [ebx+12]
  001f3	e8 00 00 00 00	 call	 ??0CVerticalScaleGroupData@@QAE@XZ ; CVerticalScaleGroupData::CVerticalScaleGroupData

; 969  : 	pNewNode->data = newElement;

  001f8	8d 45 88	 lea	 eax, DWORD PTR _newData$2[ebp]
  001fb	50		 push	 eax
  001fc	8d 4f 08	 lea	 ecx, DWORD PTR [edi+8]
  001ff	e8 00 00 00 00	 call	 ??4CVerticalScaleGroupData@@QAEAAV0@ABV0@@Z ; CVerticalScaleGroupData::operator=

; 970  : 	if (m_pNodeTail != NULL)

  00204	8b 43 08	 mov	 eax, DWORD PTR [ebx+8]
  00207	85 c0		 test	 eax, eax
  00209	74 04		 je	 SHORT $LN55@Serialize

; 971  : 		m_pNodeTail->pNext = pNewNode;

  0020b	89 38		 mov	 DWORD PTR [eax], edi
  0020d	eb 03		 jmp	 SHORT $LN56@Serialize
$LN55@Serialize:

; 972  : 	else
; 973  : 		m_pNodeHead = pNewNode;

  0020f	89 7b 04	 mov	 DWORD PTR [ebx+4], edi
$LN56@Serialize:

; 1195 : 			SerializeElements<TYPE>(ar, newData, 1);
; 1196 : 			AddTail(newData[0]);
; 1197 : 		}

  00212	68 00 00 00 00	 push	 OFFSET ??1CVerticalScaleGroupData@@QAE@XZ
  00217	6a 01		 push	 1
  00219	6a 60		 push	 96			; 00000060H
  0021b	8d 45 88	 lea	 eax, DWORD PTR _newData$2[ebp]

; 974  : 	m_pNodeTail = pNewNode;

  0021e	89 7b 08	 mov	 DWORD PTR [ebx+8], edi

; 1195 : 			SerializeElements<TYPE>(ar, newData, 1);
; 1196 : 			AddTail(newData[0]);
; 1197 : 		}

  00221	50		 push	 eax
  00222	c7 45 fc ff ff
	ff ff		 mov	 DWORD PTR __$EHRec$[ebp+8], -1
  00229	e8 00 00 00 00	 call	 ??_M@YGXPAXIIP6EX0@Z@Z
  0022e	8b 45 e8	 mov	 eax, DWORD PTR _nNewCount$1$[ebp]
  00231	85 c0		 test	 eax, eax
  00233	0f 85 c7 fe ff
	ff		 jne	 $LL5@Serialize
$LN87@Serialize:

; 1198 : 	}
; 1199 : }

  00239	8b 4d f4	 mov	 ecx, DWORD PTR __$EHRec$[ebp]
  0023c	64 89 0d 00 00
	00 00		 mov	 DWORD PTR fs:0, ecx
  00243	59		 pop	 ecx
  00244	5f		 pop	 edi
  00245	5e		 pop	 esi
  00246	5b		 pop	 ebx
  00247	8b e5		 mov	 esp, ebp
  00249	5d		 pop	 ebp
  0024a	c2 04 00	 ret	 4
$LN76@Serialize:
  0024d	6a 00		 push	 0
  0024f	6a 03		 push	 3
  00251	e8 00 00 00 00	 call	 ?AfxThrowArchiveException@@YGXHPBD@Z ; AfxThrowArchiveException
$LN77@Serialize:
  00256	e8 00 00 00 00	 call	 ?AfxThrowInvalidArgException@@YGXXZ ; AfxThrowInvalidArgException
$LN107@Serialize:
  0025b	cc		 int	 3
_TEXT	ENDS
;	COMDAT text$x
text$x	SEGMENT
__unwindfunclet$?Serialize@?$CList@VCVerticalScaleGroupData@@AAV1@@@UAEXAAVCArchive@@@Z$0:
  00000	68 00 00 00 00	 push	 OFFSET ??1CVerticalScaleGroupData@@QAE@XZ
  00005	6a 01		 push	 1
  00007	6a 60		 push	 96			; 00000060H
  00009	8d 45 88	 lea	 eax, DWORD PTR _newData$2[ebp]
  0000c	50		 push	 eax
  0000d	e8 00 00 00 00	 call	 ??_M@YGXPAXIIP6EX0@Z@Z
  00012	c3		 ret	 0
  00013	cc		 int	 3
  00014	cc		 int	 3
  00015	cc		 int	 3
  00016	cc		 int	 3
  00017	cc		 int	 3
__ehhandler$?Serialize@?$CList@VCVerticalScaleGroupData@@AAV1@@@UAEXAAVCArchive@@@Z:
  00018	90		 npad	 1
  00019	90		 npad	 1
  0001a	8b 54 24 08	 mov	 edx, DWORD PTR [esp+8]
  0001e	8d 42 0c	 lea	 eax, DWORD PTR [edx+12]
  00021	8b 4a 84	 mov	 ecx, DWORD PTR [edx-124]
  00024	33 c8		 xor	 ecx, eax
  00026	e8 00 00 00 00	 call	 @__security_check_cookie@4
  0002b	b8 00 00 00 00	 mov	 eax, OFFSET __ehfuncinfo$?Serialize@?$CList@VCVerticalScaleGroupData@@AAV1@@@UAEXAAVCArchive@@@Z
  00030	e9 00 00 00 00	 jmp	 ___CxxFrameHandler3
text$x	ENDS
?Serialize@?$CList@VCVerticalScaleGroupData@@AAV1@@@UAEXAAVCArchive@@@Z ENDP ; CList<CVerticalScaleGroupData,CVerticalScaleGroupData &>::Serialize
; Function compile flags: /Ogtp
; File C:\Program Files (x86)\Microsoft Visual Studio\2019\Community\VC\Tools\MSVC\14.29.30133\atlmfc\include\afxtempl.h
;	COMDAT ??1?$CList@VCVerticalScaleGroupData@@AAV1@@@UAE@XZ
_TEXT	SEGMENT
__$EHRec$ = -12						; size = 12
??1?$CList@VCVerticalScaleGroupData@@AAV1@@@UAE@XZ PROC	; CList<CVerticalScaleGroupData,CVerticalScaleGroupData &>::~CList<CVerticalScaleGroupData,CVerticalScaleGroupData &>, COMDAT
; _this$ = ecx

; 878  : {

  00000	55		 push	 ebp
  00001	8b ec		 mov	 ebp, esp
  00003	6a ff		 push	 -1
  00005	68 00 00 00 00	 push	 __ehhandler$??1?$CList@VCVerticalScaleGroupData@@AAV1@@@UAE@XZ
  0000a	64 a1 00 00 00
	00		 mov	 eax, DWORD PTR fs:0
  00010	50		 push	 eax
  00011	53		 push	 ebx
  00012	56		 push	 esi
  00013	57		 push	 edi
  00014	a1 00 00 00 00	 mov	 eax, DWORD PTR ___security_cookie
  00019	33 c5		 xor	 eax, ebp
  0001b	50		 push	 eax
  0001c	8d 45 f4	 lea	 eax, DWORD PTR __$EHRec$[ebp]
  0001f	64 a3 00 00 00
	00		 mov	 DWORD PTR fs:0, eax
  00025	8b d9		 mov	 ebx, ecx

; 867  : 	for (pNode = m_pNodeHead; pNode != NULL; pNode = pNode->pNext)

  00027	8b 73 04	 mov	 esi, DWORD PTR [ebx+4]

; 878  : {

  0002a	c7 03 00 00 00
	00		 mov	 DWORD PTR [ebx], OFFSET ??_7?$CList@VCVerticalScaleGroupData@@AAV1@@@6B@

; 867  : 	for (pNode = m_pNodeHead; pNode != NULL; pNode = pNode->pNext)

  00030	85 f6		 test	 esi, esi
  00032	74 18		 je	 SHORT $LN5@CList
$LL6@CList:
  00034	8d 4e 60	 lea	 ecx, DWORD PTR [esi+96]
  00037	ff 15 00 00 00
	00		 call	 DWORD PTR __imp_??1?$CStringT@DV?$StrTraitMFC_DLL@DV?$ChTraitsCRT@D@ATL@@@@@ATL@@QAE@XZ
  0003d	8d 4e 08	 lea	 ecx, DWORD PTR [esi+8]
  00040	ff 15 00 00 00
	00		 call	 DWORD PTR __imp_??1CVerticalScale@@QAE@XZ
  00046	8b 36		 mov	 esi, DWORD PTR [esi]
  00048	85 f6		 test	 esi, esi
  0004a	75 e8		 jne	 SHORT $LL6@CList
$LN5@CList:

; 868  : 		pNode->data.~TYPE();
; 869  : 
; 870  : 	m_nCount = 0;
; 871  : 	m_pNodeHead = m_pNodeTail = m_pNodeFree = NULL;
; 872  : 	m_pBlocks->FreeDataChain();

  0004c	8b 4b 14	 mov	 ecx, DWORD PTR [ebx+20]
  0004f	c7 43 0c 00 00
	00 00		 mov	 DWORD PTR [ebx+12], 0
  00056	c7 43 10 00 00
	00 00		 mov	 DWORD PTR [ebx+16], 0
  0005d	c7 43 08 00 00
	00 00		 mov	 DWORD PTR [ebx+8], 0
  00064	c7 43 04 00 00
	00 00		 mov	 DWORD PTR [ebx+4], 0
  0006b	e8 00 00 00 00	 call	 ?FreeDataChain@CPlex@@QAEXXZ ; CPlex::FreeDataChain

; 873  : 	m_pBlocks = NULL;

  00070	c7 43 14 00 00
	00 00		 mov	 DWORD PTR [ebx+20], 0

; 879  : 	RemoveAll();
; 880  : 	ASSERT(m_nCount == 0);
; 881  : }

  00077	8b 4d f4	 mov	 ecx, DWORD PTR __$EHRec$[ebp]
  0007a	64 89 0d 00 00
	00 00		 mov	 DWORD PTR fs:0, ecx
  00081	59		 pop	 ecx
  00082	5f		 pop	 edi
  00083	5e		 pop	 esi
  00084	5b		 pop	 ebx
  00085	8b e5		 mov	 esp, ebp
  00087	5d		 pop	 ebp
  00088	c3		 ret	 0
  00089	cc		 int	 3
  0008a	cc		 int	 3
  0008b	cc		 int	 3
  0008c	cc		 int	 3
  0008d	cc		 int	 3
_TEXT	ENDS
;	COMDAT text$x
text$x	SEGMENT
__ehhandler$??1?$CList@VCVerticalScaleGroupData@@AAV1@@@UAE@XZ:
  00000	90		 npad	 1
  00001	90		 npad	 1
  00002	8b 54 24 08	 mov	 edx, DWORD PTR [esp+8]
  00006	8d 42 0c	 lea	 eax, DWORD PTR [edx+12]
  00009	8b 4a f0	 mov	 ecx, DWORD PTR [edx-16]
  0000c	33 c8		 xor	 ecx, eax
  0000e	e8 00 00 00 00	 call	 @__security_check_cookie@4
  00013	b8 00 00 00 00	 mov	 eax, OFFSET __ehfuncinfo$??1?$CList@VCVerticalScaleGroupData@@AAV1@@@UAE@XZ
  00018	e9 00 00 00 00	 jmp	 ___CxxFrameHandler3
text$x	ENDS
??1?$CList@VCVerticalScaleGroupData@@AAV1@@@UAE@XZ ENDP	; CList<CVerticalScaleGroupData,CVerticalScaleGroupData &>::~CList<CVerticalScaleGroupData,CVerticalScaleGroupData &>
; Function compile flags: /Ogtp
; File C:\Program Files (x86)\Microsoft Visual Studio\2019\Community\VC\Tools\MSVC\14.29.30133\atlmfc\include\afxtempl.h
;	COMDAT ?NewNode@?$CList@VCVerticalScaleGroupData@@AAV1@@@IAEPAUCNode@1@PAU21@0@Z
_TEXT	SEGMENT
_pPrev$ = 8						; size = 4
_pNext$ = 12						; size = 4
?NewNode@?$CList@VCVerticalScaleGroupData@@AAV1@@@IAEPAUCNode@1@PAU21@0@Z PROC ; CList<CVerticalScaleGroupData,CVerticalScaleGroupData &>::NewNode, COMDAT
; _this$ = ecx

; 901  : {

  00000	55		 push	 ebp
  00001	8b ec		 mov	 ebp, esp
  00003	56		 push	 esi
  00004	8b f1		 mov	 esi, ecx
  00006	57		 push	 edi

; 902  : 	if (m_pNodeFree == NULL)

  00007	83 7e 10 00	 cmp	 DWORD PTR [esi+16], 0
  0000b	75 33		 jne	 SHORT $LN7@NewNode

; 903  : 	{
; 904  : 		// add another block
; 905  : 		CPlex* pNewBlock = CPlex::Create(m_pBlocks, m_nBlockSize,

  0000d	6a 68		 push	 104			; 00000068H
  0000f	ff 76 18	 push	 DWORD PTR [esi+24]
  00012	8d 46 14	 lea	 eax, DWORD PTR [esi+20]
  00015	50		 push	 eax
  00016	e8 00 00 00 00	 call	 ?Create@CPlex@@SGPAU1@AAPAU1@II@Z ; CPlex::Create

; 906  : 				 sizeof(CNode));
; 907  : 
; 908  : 		// chain them into free list
; 909  : 		CNode* pNode = (CNode*) pNewBlock->data();
; 910  : 		// free in reverse order to make it easier to debug
; 911  : 		pNode += m_nBlockSize - 1;

  0001b	8b 56 18	 mov	 edx, DWORD PTR [esi+24]
  0001e	83 c0 08	 add	 eax, 8
  00021	6b ca 68	 imul	 ecx, edx, 104
  00024	83 c1 98	 add	 ecx, -104		; ffffff98H
  00027	03 c1		 add	 eax, ecx

; 912  : 		for (INT_PTR i = m_nBlockSize-1; i >= 0; i--, pNode--)

  00029	83 c2 ff	 add	 edx, -1
  0002c	78 12		 js	 SHORT $LN7@NewNode
  0002e	66 90		 npad	 2
$LL4@NewNode:

; 913  : 		{
; 914  : 			pNode->pNext = m_pNodeFree;

  00030	8b 4e 10	 mov	 ecx, DWORD PTR [esi+16]
  00033	89 08		 mov	 DWORD PTR [eax], ecx

; 915  : 			m_pNodeFree = pNode;

  00035	89 46 10	 mov	 DWORD PTR [esi+16], eax
  00038	83 e8 68	 sub	 eax, 104		; 00000068H
  0003b	83 ea 01	 sub	 edx, 1
  0003e	79 f0		 jns	 SHORT $LL4@NewNode
$LN7@NewNode:

; 916  : 		}
; 917  : 	}
; 918  : 	ENSURE(m_pNodeFree != NULL);  // we must have something

  00040	8b 7e 10	 mov	 edi, DWORD PTR [esi+16]
  00043	85 ff		 test	 edi, edi
  00045	74 23		 je	 SHORT $LN17@NewNode

; 919  : 
; 920  : 	CList::CNode* pNode = m_pNodeFree;
; 921  : 	m_pNodeFree = m_pNodeFree->pNext;

  00047	8b 07		 mov	 eax, DWORD PTR [edi]

; 922  : 	pNode->pPrev = pPrev;

  00049	8b 4d 08	 mov	 ecx, DWORD PTR _pPrev$[ebp]
  0004c	89 46 10	 mov	 DWORD PTR [esi+16], eax
  0004f	89 4f 04	 mov	 DWORD PTR [edi+4], ecx

; 923  : 	pNode->pNext = pNext;

  00052	8b 4d 0c	 mov	 ecx, DWORD PTR _pNext$[ebp]
  00055	89 0f		 mov	 DWORD PTR [edi], ecx

; 924  : 	m_nCount++;
; 925  : 	ASSERT(m_nCount > 0);  // make sure we don't overflow
; 926  : 
; 927  : #pragma push_macro("new")
; 928  : #undef new
; 929  : 	::new( (void*)( &pNode->data ) ) TYPE;

  00057	8d 4f 08	 lea	 ecx, DWORD PTR [edi+8]
  0005a	ff 46 0c	 inc	 DWORD PTR [esi+12]
  0005d	e8 00 00 00 00	 call	 ??0CVerticalScaleGroupData@@QAE@XZ ; CVerticalScaleGroupData::CVerticalScaleGroupData

; 930  : #pragma pop_macro("new")
; 931  : 	return pNode;

  00062	8b c7		 mov	 eax, edi
  00064	5f		 pop	 edi
  00065	5e		 pop	 esi

; 932  : }

  00066	5d		 pop	 ebp
  00067	c2 08 00	 ret	 8
$LN17@NewNode:

; 916  : 		}
; 917  : 	}
; 918  : 	ENSURE(m_pNodeFree != NULL);  // we must have something

  0006a	e8 00 00 00 00	 call	 ?AfxThrowInvalidArgException@@YGXXZ ; AfxThrowInvalidArgException
$LN15@NewNode:
  0006f	cc		 int	 3
?NewNode@?$CList@VCVerticalScaleGroupData@@AAV1@@@IAEPAUCNode@1@PAU21@0@Z ENDP ; CList<CVerticalScaleGroupData,CVerticalScaleGroupData &>::NewNode
_TEXT	ENDS
; Function compile flags: /Ogtp
; File C:\Program Files (x86)\Microsoft Visual Studio\2019\Community\VC\Tools\MSVC\14.29.30133\atlmfc\include\afxtempl.h
;	COMDAT ?RemoveAll@?$CList@VCVerticalScaleGroupData@@AAV1@@@QAEXXZ
_TEXT	SEGMENT
?RemoveAll@?$CList@VCVerticalScaleGroupData@@AAV1@@@QAEXXZ PROC ; CList<CVerticalScaleGroupData,CVerticalScaleGroupData &>::RemoveAll, COMDAT
; _this$ = ecx

; 862  : {

  00000	53		 push	 ebx
  00001	8b d9		 mov	 ebx, ecx
  00003	56		 push	 esi

; 863  : 	ASSERT_VALID(this);
; 864  : 
; 865  : 	// destroy elements
; 866  : 	CNode* pNode;
; 867  : 	for (pNode = m_pNodeHead; pNode != NULL; pNode = pNode->pNext)

  00004	8b 73 04	 mov	 esi, DWORD PTR [ebx+4]
  00007	85 f6		 test	 esi, esi
  00009	74 1e		 je	 SHORT $LN3@RemoveAll
  0000b	57		 push	 edi
  0000c	0f 1f 40 00	 npad	 4
$LL4@RemoveAll:
  00010	8d 4e 60	 lea	 ecx, DWORD PTR [esi+96]
  00013	ff 15 00 00 00
	00		 call	 DWORD PTR __imp_??1?$CStringT@DV?$StrTraitMFC_DLL@DV?$ChTraitsCRT@D@ATL@@@@@ATL@@QAE@XZ
  00019	8d 4e 08	 lea	 ecx, DWORD PTR [esi+8]
  0001c	ff 15 00 00 00
	00		 call	 DWORD PTR __imp_??1CVerticalScale@@QAE@XZ
  00022	8b 36		 mov	 esi, DWORD PTR [esi]
  00024	85 f6		 test	 esi, esi
  00026	75 e8		 jne	 SHORT $LL4@RemoveAll
  00028	5f		 pop	 edi
$LN3@RemoveAll:

; 868  : 		pNode->data.~TYPE();
; 869  : 
; 870  : 	m_nCount = 0;
; 871  : 	m_pNodeHead = m_pNodeTail = m_pNodeFree = NULL;
; 872  : 	m_pBlocks->FreeDataChain();

  00029	8b 4b 14	 mov	 ecx, DWORD PTR [ebx+20]
  0002c	c7 43 0c 00 00
	00 00		 mov	 DWORD PTR [ebx+12], 0
  00033	c7 43 10 00 00
	00 00		 mov	 DWORD PTR [ebx+16], 0
  0003a	c7 43 08 00 00
	00 00		 mov	 DWORD PTR [ebx+8], 0
  00041	c7 43 04 00 00
	00 00		 mov	 DWORD PTR [ebx+4], 0
  00048	e8 00 00 00 00	 call	 ?FreeDataChain@CPlex@@QAEXXZ ; CPlex::FreeDataChain

; 873  : 	m_pBlocks = NULL;

  0004d	5e		 pop	 esi
  0004e	c7 43 14 00 00
	00 00		 mov	 DWORD PTR [ebx+20], 0
  00055	5b		 pop	 ebx

; 874  : }

  00056	c3		 ret	 0
?RemoveAll@?$CList@VCVerticalScaleGroupData@@AAV1@@@QAEXXZ ENDP ; CList<CVerticalScaleGroupData,CVerticalScaleGroupData &>::RemoveAll
_TEXT	ENDS
; Function compile flags: /Ogtp
; File C:\Program Files (x86)\Microsoft Visual Studio\2019\Community\VC\Tools\MSVC\14.29.30133\atlmfc\include\afxtempl.h
;	COMDAT ?AddTail@?$CList@VCVerticalScaleGroupData@@AAV1@@@QAEPAU__POSITION@@AAVCVerticalScaleGroupData@@@Z
_TEXT	SEGMENT
_newElement$ = 8					; size = 4
?AddTail@?$CList@VCVerticalScaleGroupData@@AAV1@@@QAEPAU__POSITION@@AAVCVerticalScaleGroupData@@@Z PROC ; CList<CVerticalScaleGroupData,CVerticalScaleGroupData &>::AddTail, COMDAT
; _this$ = ecx

; 965  : {

  00000	55		 push	 ebp
  00001	8b ec		 mov	 ebp, esp
  00003	53		 push	 ebx
  00004	56		 push	 esi
  00005	8b f1		 mov	 esi, ecx
  00007	57		 push	 edi

; 902  : 	if (m_pNodeFree == NULL)

  00008	83 7e 10 00	 cmp	 DWORD PTR [esi+16], 0

; 966  : 	ASSERT_VALID(this);
; 967  : 
; 968  : 	CNode* pNewNode = NewNode(m_pNodeTail, NULL);

  0000c	8b 7e 08	 mov	 edi, DWORD PTR [esi+8]

; 902  : 	if (m_pNodeFree == NULL)

  0000f	75 31		 jne	 SHORT $LN11@AddTail

; 903  : 	{
; 904  : 		// add another block
; 905  : 		CPlex* pNewBlock = CPlex::Create(m_pBlocks, m_nBlockSize,

  00011	6a 68		 push	 104			; 00000068H
  00013	ff 76 18	 push	 DWORD PTR [esi+24]
  00016	8d 46 14	 lea	 eax, DWORD PTR [esi+20]
  00019	50		 push	 eax
  0001a	e8 00 00 00 00	 call	 ?Create@CPlex@@SGPAU1@AAPAU1@II@Z ; CPlex::Create

; 906  : 				 sizeof(CNode));
; 907  : 
; 908  : 		// chain them into free list
; 909  : 		CNode* pNode = (CNode*) pNewBlock->data();
; 910  : 		// free in reverse order to make it easier to debug
; 911  : 		pNode += m_nBlockSize - 1;

  0001f	8b 56 18	 mov	 edx, DWORD PTR [esi+24]
  00022	83 c0 08	 add	 eax, 8
  00025	6b ca 68	 imul	 ecx, edx, 104
  00028	83 c1 98	 add	 ecx, -104		; ffffff98H
  0002b	03 c8		 add	 ecx, eax

; 912  : 		for (INT_PTR i = m_nBlockSize-1; i >= 0; i--, pNode--)

  0002d	83 c2 ff	 add	 edx, -1
  00030	78 10		 js	 SHORT $LN11@AddTail
$LL8@AddTail:

; 913  : 		{
; 914  : 			pNode->pNext = m_pNodeFree;

  00032	8b 46 10	 mov	 eax, DWORD PTR [esi+16]
  00035	89 01		 mov	 DWORD PTR [ecx], eax

; 915  : 			m_pNodeFree = pNode;

  00037	89 4e 10	 mov	 DWORD PTR [esi+16], ecx
  0003a	83 e9 68	 sub	 ecx, 104		; 00000068H
  0003d	83 ea 01	 sub	 edx, 1
  00040	79 f0		 jns	 SHORT $LL8@AddTail
$LN11@AddTail:

; 916  : 		}
; 917  : 	}
; 918  : 	ENSURE(m_pNodeFree != NULL);  // we must have something

  00042	8b 5e 10	 mov	 ebx, DWORD PTR [esi+16]
  00045	85 db		 test	 ebx, ebx
  00047	74 48		 je	 SHORT $LN22@AddTail

; 919  : 
; 920  : 	CList::CNode* pNode = m_pNodeFree;
; 921  : 	m_pNodeFree = m_pNodeFree->pNext;

  00049	8b 03		 mov	 eax, DWORD PTR [ebx]

; 922  : 	pNode->pPrev = pPrev;
; 923  : 	pNode->pNext = pNext;
; 924  : 	m_nCount++;
; 925  : 	ASSERT(m_nCount > 0);  // make sure we don't overflow
; 926  : 
; 927  : #pragma push_macro("new")
; 928  : #undef new
; 929  : 	::new( (void*)( &pNode->data ) ) TYPE;

  0004b	8d 4b 08	 lea	 ecx, DWORD PTR [ebx+8]
  0004e	89 46 10	 mov	 DWORD PTR [esi+16], eax
  00051	89 7b 04	 mov	 DWORD PTR [ebx+4], edi
  00054	c7 03 00 00 00
	00		 mov	 DWORD PTR [ebx], 0
  0005a	ff 46 0c	 inc	 DWORD PTR [esi+12]
  0005d	e8 00 00 00 00	 call	 ??0CVerticalScaleGroupData@@QAE@XZ ; CVerticalScaleGroupData::CVerticalScaleGroupData

; 969  : 	pNewNode->data = newElement;

  00062	ff 75 08	 push	 DWORD PTR _newElement$[ebp]
  00065	8d 4b 08	 lea	 ecx, DWORD PTR [ebx+8]
  00068	e8 00 00 00 00	 call	 ??4CVerticalScaleGroupData@@QAEAAV0@ABV0@@Z ; CVerticalScaleGroupData::operator=

; 970  : 	if (m_pNodeTail != NULL)

  0006d	8b 46 08	 mov	 eax, DWORD PTR [esi+8]
  00070	85 c0		 test	 eax, eax
  00072	74 0e		 je	 SHORT $LN2@AddTail

; 971  : 		m_pNodeTail->pNext = pNewNode;

  00074	89 18		 mov	 DWORD PTR [eax], ebx

; 972  : 	else
; 973  : 		m_pNodeHead = pNewNode;
; 974  : 	m_pNodeTail = pNewNode;
; 975  : 	return (POSITION) pNewNode;

  00076	8b c3		 mov	 eax, ebx
  00078	5f		 pop	 edi
  00079	89 5e 08	 mov	 DWORD PTR [esi+8], ebx
  0007c	5e		 pop	 esi
  0007d	5b		 pop	 ebx

; 976  : }

  0007e	5d		 pop	 ebp
  0007f	c2 04 00	 ret	 4
$LN2@AddTail:

; 972  : 	else
; 973  : 		m_pNodeHead = pNewNode;
; 974  : 	m_pNodeTail = pNewNode;
; 975  : 	return (POSITION) pNewNode;

  00082	5f		 pop	 edi
  00083	89 5e 04	 mov	 DWORD PTR [esi+4], ebx
  00086	8b c3		 mov	 eax, ebx
  00088	89 5e 08	 mov	 DWORD PTR [esi+8], ebx
  0008b	5e		 pop	 esi
  0008c	5b		 pop	 ebx

; 976  : }

  0008d	5d		 pop	 ebp
  0008e	c2 04 00	 ret	 4
$LN22@AddTail:

; 918  : 	ENSURE(m_pNodeFree != NULL);  // we must have something

  00091	e8 00 00 00 00	 call	 ?AfxThrowInvalidArgException@@YGXXZ ; AfxThrowInvalidArgException
$LN20@AddTail:
  00096	cc		 int	 3
?AddTail@?$CList@VCVerticalScaleGroupData@@AAV1@@@QAEPAU__POSITION@@AAVCVerticalScaleGroupData@@@Z ENDP ; CList<CVerticalScaleGroupData,CVerticalScaleGroupData &>::AddTail
_TEXT	ENDS
; Function compile flags: /Ogtp
;	COMDAT ??1CVerticalScaleGroupData@@QAE@XZ
_TEXT	SEGMENT
??1CVerticalScaleGroupData@@QAE@XZ PROC			; CVerticalScaleGroupData::~CVerticalScaleGroupData, COMDAT
; _this$ = ecx
  00000	56		 push	 esi
  00001	8b f1		 mov	 esi, ecx
  00003	8d 4e 58	 lea	 ecx, DWORD PTR [esi+88]
  00006	ff 15 00 00 00
	00		 call	 DWORD PTR __imp_??1?$CStringT@DV?$StrTraitMFC_DLL@DV?$ChTraitsCRT@D@ATL@@@@@ATL@@QAE@XZ
  0000c	8b ce		 mov	 ecx, esi
  0000e	5e		 pop	 esi
  0000f	ff 25 00 00 00
	00		 jmp	 DWORD PTR __imp_??1CVerticalScale@@QAE@XZ
??1CVerticalScaleGroupData@@QAE@XZ ENDP			; CVerticalScaleGroupData::~CVerticalScaleGroupData
_TEXT	ENDS
; Function compile flags: /Ogtp
;	COMDAT ??1CMovingGraphVertScaleData@@QAE@XZ
_TEXT	SEGMENT
??1CMovingGraphVertScaleData@@QAE@XZ PROC		; CMovingGraphVertScaleData::~CMovingGraphVertScaleData, COMDAT
; _this$ = ecx
  00000	83 c1 08	 add	 ecx, 8
  00003	ff 25 00 00 00
	00		 jmp	 DWORD PTR __imp_??1CVerticalScale@@QAE@XZ
??1CMovingGraphVertScaleData@@QAE@XZ ENDP		; CMovingGraphVertScaleData::~CMovingGraphVertScaleData
_TEXT	ENDS
; Function compile flags: /Ogtp
; File C:\Program Files (x86)\Microsoft Visual Studio\2019\Community\VC\Tools\MSVC\14.29.30133\include\exception
;	COMDAT ?_Throw_bad_array_new_length@std@@YAXXZ
_TEXT	SEGMENT
$T1 = -12						; size = 12
?_Throw_bad_array_new_length@std@@YAXXZ PROC		; std::_Throw_bad_array_new_length, COMDAT

; 315  : [[noreturn]] inline void _Throw_bad_array_new_length() {

  00000	55		 push	 ebp
  00001	8b ec		 mov	 ebp, esp
  00003	83 ec 0c	 sub	 esp, 12			; 0000000cH

; 316  :     _THROW(bad_array_new_length{});

  00006	8d 4d f4	 lea	 ecx, DWORD PTR $T1[ebp]
  00009	e8 00 00 00 00	 call	 ??0bad_array_new_length@std@@QAE@XZ ; std::bad_array_new_length::bad_array_new_length
  0000e	68 00 00 00 00	 push	 OFFSET __TI3?AVbad_array_new_length@std@@
  00013	8d 45 f4	 lea	 eax, DWORD PTR $T1[ebp]
  00016	50		 push	 eax
  00017	e8 00 00 00 00	 call	 __CxxThrowException@8
$LN3@Throw_bad_:
  0001c	cc		 int	 3
?_Throw_bad_array_new_length@std@@YAXXZ ENDP		; std::_Throw_bad_array_new_length
_TEXT	ENDS
; Function compile flags: /Ogtp
; File C:\Program Files (x86)\Microsoft Visual Studio\2019\Community\VC\Tools\MSVC\14.29.30133\include\vcruntime_exception.h
;	COMDAT ??_Gbad_array_new_length@std@@UAEPAXI@Z
_TEXT	SEGMENT
___flags$ = 8						; size = 4
??_Gbad_array_new_length@std@@UAEPAXI@Z PROC		; std::bad_array_new_length::`scalar deleting destructor', COMDAT
; _this$ = ecx
  00000	55		 push	 ebp
  00001	8b ec		 mov	 ebp, esp

; 89   :     {

  00003	56		 push	 esi
  00004	8b f1		 mov	 esi, ecx

; 90   :         __std_exception_destroy(&_Data);

  00006	8d 46 04	 lea	 eax, DWORD PTR [esi+4]
  00009	c7 06 00 00 00
	00		 mov	 DWORD PTR [esi], OFFSET ??_7exception@std@@6B@
  0000f	50		 push	 eax
  00010	e8 00 00 00 00	 call	 ___std_exception_destroy
  00015	83 c4 04	 add	 esp, 4
  00018	f6 45 08 01	 test	 BYTE PTR ___flags$[ebp], 1
  0001c	74 0b		 je	 SHORT $LN12@scalar
  0001e	6a 0c		 push	 12			; 0000000cH
  00020	56		 push	 esi
  00021	e8 00 00 00 00	 call	 ??3@YAXPAXI@Z		; operator delete
  00026	83 c4 08	 add	 esp, 8
$LN12@scalar:
  00029	8b c6		 mov	 eax, esi
  0002b	5e		 pop	 esi
  0002c	5d		 pop	 ebp
  0002d	c2 04 00	 ret	 4
??_Gbad_array_new_length@std@@UAEPAXI@Z ENDP		; std::bad_array_new_length::`scalar deleting destructor'
_TEXT	ENDS
; Function compile flags: /Ogtp
; File C:\Program Files (x86)\Microsoft Visual Studio\2019\Community\VC\Tools\MSVC\14.29.30133\include\vcruntime_exception.h
;	COMDAT ??0bad_array_new_length@std@@QAE@ABV01@@Z
_TEXT	SEGMENT
___that$ = 8						; size = 4
??0bad_array_new_length@std@@QAE@ABV01@@Z PROC		; std::bad_array_new_length::bad_array_new_length, COMDAT
; _this$ = ecx
  00000	55		 push	 ebp
  00001	8b ec		 mov	 ebp, esp

; 72   :     {

  00003	56		 push	 esi
  00004	8b f1		 mov	 esi, ecx
  00006	0f 57 c0	 xorps	 xmm0, xmm0

; 71   :         : _Data()

  00009	8d 46 04	 lea	 eax, DWORD PTR [esi+4]

; 73   :         __std_exception_copy(&_Other._Data, &_Data);

  0000c	50		 push	 eax
  0000d	c7 06 00 00 00
	00		 mov	 DWORD PTR [esi], OFFSET ??_7exception@std@@6B@
  00013	66 0f d6 00	 movq	 QWORD PTR [eax], xmm0
  00017	8b 45 08	 mov	 eax, DWORD PTR ___that$[ebp]
  0001a	83 c0 04	 add	 eax, 4
  0001d	50		 push	 eax
  0001e	e8 00 00 00 00	 call	 ___std_exception_copy
  00023	83 c4 08	 add	 esp, 8
  00026	c7 06 00 00 00
	00		 mov	 DWORD PTR [esi], OFFSET ??_7bad_array_new_length@std@@6B@
  0002c	8b c6		 mov	 eax, esi
  0002e	5e		 pop	 esi
  0002f	5d		 pop	 ebp
  00030	c2 04 00	 ret	 4
??0bad_array_new_length@std@@QAE@ABV01@@Z ENDP		; std::bad_array_new_length::bad_array_new_length
_TEXT	ENDS
; Function compile flags: /Ogtp
; File C:\Program Files (x86)\Microsoft Visual Studio\2019\Community\VC\Tools\MSVC\14.29.30133\include\vcruntime_exception.h
;	COMDAT ??1bad_array_new_length@std@@UAE@XZ
_TEXT	SEGMENT
??1bad_array_new_length@std@@UAE@XZ PROC		; std::bad_array_new_length::~bad_array_new_length, COMDAT
; _this$ = ecx

; 90   :         __std_exception_destroy(&_Data);

  00000	8d 41 04	 lea	 eax, DWORD PTR [ecx+4]
  00003	c7 01 00 00 00
	00		 mov	 DWORD PTR [ecx], OFFSET ??_7exception@std@@6B@
  00009	50		 push	 eax
  0000a	e8 00 00 00 00	 call	 ___std_exception_destroy
  0000f	59		 pop	 ecx
  00010	c3		 ret	 0
??1bad_array_new_length@std@@UAE@XZ ENDP		; std::bad_array_new_length::~bad_array_new_length
_TEXT	ENDS
; Function compile flags: /Ogtp
; File C:\Program Files (x86)\Microsoft Visual Studio\2019\Community\VC\Tools\MSVC\14.29.30133\include\vcruntime_exception.h
;	COMDAT ??0bad_array_new_length@std@@QAE@XZ
_TEXT	SEGMENT
??0bad_array_new_length@std@@QAE@XZ PROC		; std::bad_array_new_length::bad_array_new_length, COMDAT
; _this$ = ecx

; 141  :     {

  00000	0f 57 c0	 xorps	 xmm0, xmm0

; 142  :     }

  00003	8b c1		 mov	 eax, ecx

; 65   :         : _Data()

  00005	66 0f d6 41 04	 movq	 QWORD PTR [ecx+4], xmm0

; 66   :     {
; 67   :         _Data._What = _Message;

  0000a	c7 41 04 00 00
	00 00		 mov	 DWORD PTR [ecx+4], OFFSET ??_C@_0BF@KINCDENJ@bad?5array?5new?5length@

; 141  :     {

  00011	c7 01 00 00 00
	00		 mov	 DWORD PTR [ecx], OFFSET ??_7bad_array_new_length@std@@6B@

; 142  :     }

  00017	c3		 ret	 0
??0bad_array_new_length@std@@QAE@XZ ENDP		; std::bad_array_new_length::bad_array_new_length
_TEXT	ENDS
; Function compile flags: /Ogtp
; File C:\Program Files (x86)\Microsoft Visual Studio\2019\Community\VC\Tools\MSVC\14.29.30133\include\vcruntime_exception.h
;	COMDAT ??_Gbad_alloc@std@@UAEPAXI@Z
_TEXT	SEGMENT
___flags$ = 8						; size = 4
??_Gbad_alloc@std@@UAEPAXI@Z PROC			; std::bad_alloc::`scalar deleting destructor', COMDAT
; _this$ = ecx
  00000	55		 push	 ebp
  00001	8b ec		 mov	 ebp, esp

; 89   :     {

  00003	56		 push	 esi
  00004	8b f1		 mov	 esi, ecx

; 90   :         __std_exception_destroy(&_Data);

  00006	8d 46 04	 lea	 eax, DWORD PTR [esi+4]
  00009	c7 06 00 00 00
	00		 mov	 DWORD PTR [esi], OFFSET ??_7exception@std@@6B@
  0000f	50		 push	 eax
  00010	e8 00 00 00 00	 call	 ___std_exception_destroy
  00015	83 c4 04	 add	 esp, 4
  00018	f6 45 08 01	 test	 BYTE PTR ___flags$[ebp], 1
  0001c	74 0b		 je	 SHORT $LN9@scalar
  0001e	6a 0c		 push	 12			; 0000000cH
  00020	56		 push	 esi
  00021	e8 00 00 00 00	 call	 ??3@YAXPAXI@Z		; operator delete
  00026	83 c4 08	 add	 esp, 8
$LN9@scalar:
  00029	8b c6		 mov	 eax, esi
  0002b	5e		 pop	 esi
  0002c	5d		 pop	 ebp
  0002d	c2 04 00	 ret	 4
??_Gbad_alloc@std@@UAEPAXI@Z ENDP			; std::bad_alloc::`scalar deleting destructor'
_TEXT	ENDS
; Function compile flags: /Ogtp
; File C:\Program Files (x86)\Microsoft Visual Studio\2019\Community\VC\Tools\MSVC\14.29.30133\include\vcruntime_exception.h
;	COMDAT ??0bad_alloc@std@@QAE@ABV01@@Z
_TEXT	SEGMENT
___that$ = 8						; size = 4
??0bad_alloc@std@@QAE@ABV01@@Z PROC			; std::bad_alloc::bad_alloc, COMDAT
; _this$ = ecx
  00000	55		 push	 ebp
  00001	8b ec		 mov	 ebp, esp

; 72   :     {

  00003	56		 push	 esi
  00004	8b f1		 mov	 esi, ecx
  00006	0f 57 c0	 xorps	 xmm0, xmm0

; 71   :         : _Data()

  00009	8d 46 04	 lea	 eax, DWORD PTR [esi+4]

; 73   :         __std_exception_copy(&_Other._Data, &_Data);

  0000c	50		 push	 eax
  0000d	c7 06 00 00 00
	00		 mov	 DWORD PTR [esi], OFFSET ??_7exception@std@@6B@
  00013	66 0f d6 00	 movq	 QWORD PTR [eax], xmm0
  00017	8b 45 08	 mov	 eax, DWORD PTR ___that$[ebp]
  0001a	83 c0 04	 add	 eax, 4
  0001d	50		 push	 eax
  0001e	e8 00 00 00 00	 call	 ___std_exception_copy
  00023	83 c4 08	 add	 esp, 8
  00026	c7 06 00 00 00
	00		 mov	 DWORD PTR [esi], OFFSET ??_7bad_alloc@std@@6B@
  0002c	8b c6		 mov	 eax, esi
  0002e	5e		 pop	 esi
  0002f	5d		 pop	 ebp
  00030	c2 04 00	 ret	 4
??0bad_alloc@std@@QAE@ABV01@@Z ENDP			; std::bad_alloc::bad_alloc
_TEXT	ENDS
; Function compile flags: /Ogtp
; File C:\Program Files (x86)\Microsoft Visual Studio\2019\Community\VC\Tools\MSVC\14.29.30133\include\vcruntime_exception.h
;	COMDAT ??_Gexception@std@@UAEPAXI@Z
_TEXT	SEGMENT
___flags$ = 8						; size = 4
??_Gexception@std@@UAEPAXI@Z PROC			; std::exception::`scalar deleting destructor', COMDAT
; _this$ = ecx
  00000	55		 push	 ebp
  00001	8b ec		 mov	 ebp, esp

; 89   :     {

  00003	56		 push	 esi
  00004	8b f1		 mov	 esi, ecx

; 90   :         __std_exception_destroy(&_Data);

  00006	8d 46 04	 lea	 eax, DWORD PTR [esi+4]
  00009	c7 06 00 00 00
	00		 mov	 DWORD PTR [esi], OFFSET ??_7exception@std@@6B@
  0000f	50		 push	 eax
  00010	e8 00 00 00 00	 call	 ___std_exception_destroy
  00015	83 c4 04	 add	 esp, 4
  00018	f6 45 08 01	 test	 BYTE PTR ___flags$[ebp], 1
  0001c	74 0b		 je	 SHORT $LN6@scalar
  0001e	6a 0c		 push	 12			; 0000000cH
  00020	56		 push	 esi
  00021	e8 00 00 00 00	 call	 ??3@YAXPAXI@Z		; operator delete
  00026	83 c4 08	 add	 esp, 8
$LN6@scalar:
  00029	8b c6		 mov	 eax, esi
  0002b	5e		 pop	 esi
  0002c	5d		 pop	 ebp
  0002d	c2 04 00	 ret	 4
??_Gexception@std@@UAEPAXI@Z ENDP			; std::exception::`scalar deleting destructor'
_TEXT	ENDS
; Function compile flags: /Ogtp
; File C:\Program Files (x86)\Microsoft Visual Studio\2019\Community\VC\Tools\MSVC\14.29.30133\include\vcruntime_exception.h
;	COMDAT ?what@exception@std@@UBEPBDXZ
_TEXT	SEGMENT
?what@exception@std@@UBEPBDXZ PROC			; std::exception::what, COMDAT
; _this$ = ecx

; 95   :         return _Data._What ? _Data._What : "Unknown exception";

  00000	8b 49 04	 mov	 ecx, DWORD PTR [ecx+4]
  00003	b8 00 00 00 00	 mov	 eax, OFFSET ??_C@_0BC@EOODALEL@Unknown?5exception@
  00008	85 c9		 test	 ecx, ecx
  0000a	0f 45 c1	 cmovne	 eax, ecx

; 96   :     }

  0000d	c3		 ret	 0
?what@exception@std@@UBEPBDXZ ENDP			; std::exception::what
_TEXT	ENDS
; Function compile flags: /Ogtp
; File C:\Program Files (x86)\Microsoft Visual Studio\2019\Community\VC\Tools\MSVC\14.29.30133\include\vcruntime_exception.h
;	COMDAT ??1exception@std@@UAE@XZ
_TEXT	SEGMENT
??1exception@std@@UAE@XZ PROC				; std::exception::~exception, COMDAT
; _this$ = ecx

; 90   :         __std_exception_destroy(&_Data);

  00000	8d 41 04	 lea	 eax, DWORD PTR [ecx+4]
  00003	c7 01 00 00 00
	00		 mov	 DWORD PTR [ecx], OFFSET ??_7exception@std@@6B@
  00009	50		 push	 eax
  0000a	e8 00 00 00 00	 call	 ___std_exception_destroy
  0000f	59		 pop	 ecx

; 91   :     }

  00010	c3		 ret	 0
??1exception@std@@UAE@XZ ENDP				; std::exception::~exception
_TEXT	ENDS
; Function compile flags: /Ogtp
; File C:\Program Files (x86)\Microsoft Visual Studio\2019\Community\VC\Tools\MSVC\14.29.30133\include\vcruntime_exception.h
;	COMDAT ??0exception@std@@QAE@ABV01@@Z
_TEXT	SEGMENT
__Other$ = 8						; size = 4
??0exception@std@@QAE@ABV01@@Z PROC			; std::exception::exception, COMDAT
; _this$ = ecx

; 72   :     {

  00000	55		 push	 ebp
  00001	8b ec		 mov	 ebp, esp
  00003	56		 push	 esi
  00004	8b f1		 mov	 esi, ecx
  00006	0f 57 c0	 xorps	 xmm0, xmm0
  00009	8d 46 04	 lea	 eax, DWORD PTR [esi+4]

; 73   :         __std_exception_copy(&_Other._Data, &_Data);

  0000c	50		 push	 eax
  0000d	c7 06 00 00 00
	00		 mov	 DWORD PTR [esi], OFFSET ??_7exception@std@@6B@
  00013	66 0f d6 00	 movq	 QWORD PTR [eax], xmm0
  00017	8b 45 08	 mov	 eax, DWORD PTR __Other$[ebp]
  0001a	83 c0 04	 add	 eax, 4
  0001d	50		 push	 eax
  0001e	e8 00 00 00 00	 call	 ___std_exception_copy
  00023	83 c4 08	 add	 esp, 8

; 74   :     }

  00026	8b c6		 mov	 eax, esi
  00028	5e		 pop	 esi
  00029	5d		 pop	 ebp
  0002a	c2 04 00	 ret	 4
??0exception@std@@QAE@ABV01@@Z ENDP			; std::exception::exception
_TEXT	ENDS
; Function compile flags: /Ogtp
; File D:\git\src\IBK\IBK_DRFN\ProjSrc\SrcChartEx\ChartOCX\Include_Chart\Dll_Load\IMetaTable.h
; File C:\Program Files (x86)\Microsoft Visual Studio\2019\Community\VC\Tools\MSVC\14.29.30133\atlmfc\include\afxwin1.inl
; File D:\git\src\IBK\IBK_DRFN\ProjSrc\SrcChartEx\ChartOCX\Include_Chart\Dll_Load\IMetaTable.h
;	COMDAT ??1CMultiLanguageResourceSetter@@QAE@XZ
_TEXT	SEGMENT
__$EHRec$ = -12						; size = 12
??1CMultiLanguageResourceSetter@@QAE@XZ PROC		; CMultiLanguageResourceSetter::~CMultiLanguageResourceSetter, COMDAT
; _this$ = ecx

; 1036 : 	{

  00000	55		 push	 ebp
  00001	8b ec		 mov	 ebp, esp
  00003	6a ff		 push	 -1
  00005	68 00 00 00 00	 push	 __ehhandler$??1CMultiLanguageResourceSetter@@QAE@XZ
  0000a	64 a1 00 00 00
	00		 mov	 eax, DWORD PTR fs:0
  00010	50		 push	 eax
  00011	56		 push	 esi
  00012	a1 00 00 00 00	 mov	 eax, DWORD PTR ___security_cookie
  00017	33 c5		 xor	 eax, ebp
  00019	50		 push	 eax
  0001a	8d 45 f4	 lea	 eax, DWORD PTR __$EHRec$[ebp]
  0001d	64 a3 00 00 00
	00		 mov	 DWORD PTR fs:0, eax

; 1037 : 		AfxSetResourceHandle( m_hInstance);

  00023	8b 31		 mov	 esi, DWORD PTR [ecx]
; File C:\Program Files (x86)\Microsoft Visual Studio\2019\Community\VC\Tools\MSVC\14.29.30133\atlmfc\include\afxwin1.inl

; 27   : 	{ ASSERT(hInstResource != NULL); afxCurrentResourceHandle = hInstResource; }

  00025	e8 00 00 00 00	 call	 ?AfxGetModuleState@@YGPAVAFX_MODULE_STATE@@XZ ; AfxGetModuleState
  0002a	89 70 0c	 mov	 DWORD PTR [eax+12], esi
; File D:\git\src\IBK\IBK_DRFN\ProjSrc\SrcChartEx\ChartOCX\Include_Chart\Dll_Load\IMetaTable.h

; 1038 : 	}

  0002d	8b 4d f4	 mov	 ecx, DWORD PTR __$EHRec$[ebp]
  00030	64 89 0d 00 00
	00 00		 mov	 DWORD PTR fs:0, ecx
  00037	59		 pop	 ecx
  00038	5e		 pop	 esi
  00039	8b e5		 mov	 esp, ebp
  0003b	5d		 pop	 ebp
  0003c	c3		 ret	 0
  0003d	cc		 int	 3
  0003e	cc		 int	 3
  0003f	cc		 int	 3
  00040	cc		 int	 3
  00041	cc		 int	 3
_TEXT	ENDS
;	COMDAT text$x
text$x	SEGMENT
__ehhandler$??1CMultiLanguageResourceSetter@@QAE@XZ:
  00000	90		 npad	 1
  00001	90		 npad	 1
  00002	8b 54 24 08	 mov	 edx, DWORD PTR [esp+8]
  00006	8d 42 0c	 lea	 eax, DWORD PTR [edx+12]
  00009	8b 4a f8	 mov	 ecx, DWORD PTR [edx-8]
  0000c	33 c8		 xor	 ecx, eax
  0000e	e8 00 00 00 00	 call	 @__security_check_cookie@4
  00013	b8 00 00 00 00	 mov	 eax, OFFSET __ehfuncinfo$??1CMultiLanguageResourceSetter@@QAE@XZ
  00018	e9 00 00 00 00	 jmp	 ___CxxFrameHandler3
text$x	ENDS
??1CMultiLanguageResourceSetter@@QAE@XZ ENDP		; CMultiLanguageResourceSetter::~CMultiLanguageResourceSetter
; Function compile flags: /Ogtp
; File D:\git\src\IBK\IBK_DRFN\ProjSrc\SrcChartEx\ChartOCX\Include_Chart\Dll_Load\IMetaTable.h
;	COMDAT ?LoadResourceDLL@IMetaTable@@QAEPAUHINSTANCE__@@PAUHWND__@@PAU2@@Z
_TEXT	SEGMENT
_p1$ = 8						; size = 4
_p2$ = 12						; size = 4
?LoadResourceDLL@IMetaTable@@QAEPAUHINSTANCE__@@PAUHWND__@@PAU2@@Z PROC ; IMetaTable::LoadResourceDLL, COMDAT
; _this$ = ecx

; 936  : 	DECLARE_FUNCTION2(	LoadResourceDLL,				HMODULE, AfxGetStaticModuleState()->m_hCurrentInstanceHandle, HWND, HMODULE);

  00000	55		 push	 ebp
  00001	8b ec		 mov	 ebp, esp
  00003	56		 push	 esi
  00004	8b f1		 mov	 esi, ecx
  00006	8b 46 04	 mov	 eax, DWORD PTR [esi+4]
  00009	85 c0		 test	 eax, eax
  0000b	74 4d		 je	 SHORT $LN4@LoadResour
  0000d	57		 push	 edi
  0000e	bf 80 0d 00 00	 mov	 edi, 3456		; 00000d80H
  00013	66 3b be 94 00
	00 00		 cmp	 di, WORD PTR [esi+148]
  0001a	74 23		 je	 SHORT $LN3@LoadResour
  0001c	68 00 00 00 00	 push	 OFFSET ??_C@_0BA@ENJOCHIO@LoadResourceDLL@
  00021	50		 push	 eax
  00022	c7 86 90 00 00
	00 00 00 00 00	 mov	 DWORD PTR [esi+144], 0
  0002c	ff 15 00 00 00
	00		 call	 DWORD PTR __imp__GetProcAddress@8
  00032	89 86 90 00 00
	00		 mov	 DWORD PTR [esi+144], eax
  00038	66 89 be 94 00
	00 00		 mov	 WORD PTR [esi+148], di
$LN3@LoadResour:
  0003f	8b 86 90 00 00
	00		 mov	 eax, DWORD PTR [esi+144]
  00045	5f		 pop	 edi
  00046	85 c0		 test	 eax, eax
  00048	74 10		 je	 SHORT $LN4@LoadResour
  0004a	ff 75 0c	 push	 DWORD PTR _p2$[ebp]
  0004d	ff 75 08	 push	 DWORD PTR _p1$[ebp]
  00050	ff d0		 call	 eax
  00052	83 c4 08	 add	 esp, 8
  00055	5e		 pop	 esi
  00056	5d		 pop	 ebp
  00057	c2 08 00	 ret	 8
$LN4@LoadResour:
  0005a	e8 00 00 00 00	 call	 ?AfxGetStaticModuleState@@YGPAVAFX_MODULE_STATE@@XZ ; AfxGetStaticModuleState
  0005f	5e		 pop	 esi
  00060	8b 40 08	 mov	 eax, DWORD PTR [eax+8]
  00063	5d		 pop	 ebp
  00064	c2 08 00	 ret	 8
?LoadResourceDLL@IMetaTable@@QAEPAUHINSTANCE__@@PAUHWND__@@PAU2@@Z ENDP ; IMetaTable::LoadResourceDLL
_TEXT	ENDS
; Function compile flags: /Ogtp
; File D:\git\src\IBK\IBK_DRFN\ProjSrc\SrcChartEx\ChartOCX\ChartObject\GraphMove.cpp
;	COMDAT ?SetVertScaleGridType@CGraphMove@@AAEXPAVCVertScaleGroupList@@@Z
_TEXT	SEGMENT
_gsi$ = -68						; size = 68
_pVertScaleGroupList$ = 8				; size = 4
?SetVertScaleGridType@CGraphMove@@AAEXPAVCVertScaleGroupList@@@Z PROC ; CGraphMove::SetVertScaleGridType, COMDAT
; _this$ = ecx

; 353  : {

  00000	55		 push	 ebp
  00001	8b ec		 mov	 ebp, esp
  00003	83 ec 44	 sub	 esp, 68			; 00000044H
  00006	56		 push	 esi

; 354  : 	if(pVertScaleGroupList == NULL)

  00007	8b 75 08	 mov	 esi, DWORD PTR _pVertScaleGroupList$[ebp]
  0000a	85 f6		 test	 esi, esi
  0000c	74 36		 je	 SHORT $LN1@SetVertSca

; 355  : 		return;
; 356  : 
; 357  : 	CGraphSearchInfo_HasVertScaleAndGridLine gsi;
; 358  : 	gsi.m_eVertScalePosition = ( CScaleBaseData::VERTSCALEPOSITION)-1;
; 359  : 	if( !pVertScaleGroupList->FindGraph( &gsi)) return;

  0000e	8d 4d bc	 lea	 ecx, DWORD PTR _gsi$[ebp]
  00011	e8 00 00 00 00	 call	 ??0CGraphSearchInfo@@QAE@XZ ; CGraphSearchInfo::CGraphSearchInfo
  00016	8d 45 bc	 lea	 eax, DWORD PTR _gsi$[ebp]
  00019	c7 45 bc 00 00
	00 00		 mov	 DWORD PTR _gsi$[ebp], OFFSET ??_7CGraphSearchInfo_HasVertScaleAndGridLine@@6B@
  00020	50		 push	 eax
  00021	8b ce		 mov	 ecx, esi
  00023	c7 45 fc ff ff
	ff ff		 mov	 DWORD PTR _gsi$[ebp+64], -1
  0002a	e8 00 00 00 00	 call	 ?FindGraph@CVertScaleGroupList@@QBEHPAVCGraphSearchInfo@@@Z ; CVertScaleGroupList::FindGraph
  0002f	85 c0		 test	 eax, eax
  00031	74 11		 je	 SHORT $LN1@SetVertSca

; 360  : 	if( !gsi.m_pVertScaleGroup) return;

  00033	8b 45 f0	 mov	 eax, DWORD PTR _gsi$[ebp+52]
  00036	85 c0		 test	 eax, eax
  00038	74 0a		 je	 SHORT $LN1@SetVertSca

; 361  : 
; 362  : 	pVertScaleGroupList->SetActivate( gsi.m_pVertScaleGroup, VSGA_GRIDLINE);

  0003a	6a 01		 push	 1
  0003c	50		 push	 eax
  0003d	8b ce		 mov	 ecx, esi
  0003f	e8 00 00 00 00	 call	 ?SetActivate@CVertScaleGroupList@@QAEXPAVCVertScaleGroup@@H@Z ; CVertScaleGroupList::SetActivate
$LN1@SetVertSca:
  00044	5e		 pop	 esi

; 363  : }

  00045	8b e5		 mov	 esp, ebp
  00047	5d		 pop	 ebp
  00048	c2 04 00	 ret	 4
?SetVertScaleGridType@CGraphMove@@AAEXPAVCVertScaleGroupList@@@Z ENDP ; CGraphMove::SetVertScaleGridType
_TEXT	ENDS
; Function compile flags: /Ogtp
; File D:\git\src\IBK\IBK_DRFN\ProjSrc\SrcChartEx\ChartOCX\ChartObject\GraphMove.cpp
;	COMDAT ?GraphMoving@CGraphMove@@AAE_NPAVCVertScaleGroupList@@ABVCMovingGraphVertScaleData@@ABVCMovingGraphDeque@@@Z
_TEXT	SEGMENT
$T2 = -100						; size = 88
__$EHRec$ = -12						; size = 12
_pTargetScaleGroupList$ = 8				; size = 4
_movingVertScaleData$ = 12				; size = 4
_movingGraphDeque$ = 16					; size = 4
_bResult$1$ = 19					; size = 1
?GraphMoving@CGraphMove@@AAE_NPAVCVertScaleGroupList@@ABVCMovingGraphVertScaleData@@ABVCMovingGraphDeque@@@Z PROC ; CGraphMove::GraphMoving, COMDAT
; _this$ = ecx

; 335  : {

  00000	55		 push	 ebp
  00001	8b ec		 mov	 ebp, esp
  00003	6a ff		 push	 -1
  00005	68 00 00 00 00	 push	 __ehhandler$?GraphMoving@CGraphMove@@AAE_NPAVCVertScaleGroupList@@ABVCMovingGraphVertScaleData@@ABVCMovingGraphDeque@@@Z
  0000a	64 a1 00 00 00
	00		 mov	 eax, DWORD PTR fs:0
  00010	50		 push	 eax
  00011	83 ec 58	 sub	 esp, 88			; 00000058H
  00014	53		 push	 ebx
  00015	56		 push	 esi
  00016	57		 push	 edi
  00017	a1 00 00 00 00	 mov	 eax, DWORD PTR ___security_cookie
  0001c	33 c5		 xor	 eax, ebp
  0001e	50		 push	 eax
  0001f	8d 45 f4	 lea	 eax, DWORD PTR __$EHRec$[ebp]
  00022	64 a3 00 00 00
	00		 mov	 DWORD PTR fs:0, eax

; 336  : 	if(movingGraphDeque.GetCount() <= 0)

  00028	8b 7d 10	 mov	 edi, DWORD PTR _movingGraphDeque$[ebp]
  0002b	8b cf		 mov	 ecx, edi
  0002d	e8 00 00 00 00	 call	 ?GetCount@CMovingGraphDeque@@QBEHXZ ; CMovingGraphDeque::GetCount
  00032	85 c0		 test	 eax, eax
  00034	7f 16		 jg	 SHORT $LN5@GraphMovin

; 337  : 		return false;

  00036	32 c0		 xor	 al, al

; 350  : }

  00038	8b 4d f4	 mov	 ecx, DWORD PTR __$EHRec$[ebp]
  0003b	64 89 0d 00 00
	00 00		 mov	 DWORD PTR fs:0, ecx
  00042	59		 pop	 ecx
  00043	5f		 pop	 edi
  00044	5e		 pop	 esi
  00045	5b		 pop	 ebx
  00046	8b e5		 mov	 esp, ebp
  00048	5d		 pop	 ebp
  00049	c2 0c 00	 ret	 12			; 0000000cH
$LN5@GraphMovin:

; 338  : 
; 339  : 	bool bResult = false;

  0004c	32 db		 xor	 bl, bl

; 340  : 	for(int nIndex = 0; nIndex < movingGraphDeque.GetCount(); nIndex++){

  0004e	8b cf		 mov	 ecx, edi
  00050	88 5d 13	 mov	 BYTE PTR _bResult$1$[ebp], bl
  00053	33 f6		 xor	 esi, esi
  00055	e8 00 00 00 00	 call	 ?GetCount@CMovingGraphDeque@@QBEHXZ ; CMovingGraphDeque::GetCount
  0005a	85 c0		 test	 eax, eax
  0005c	7e 6b		 jle	 SHORT $LN3@GraphMovin
  0005e	66 90		 npad	 2
$LL4@GraphMovin:

; 341  : 		CGraphImp* pMovingGraph = movingGraphDeque.GetAt(nIndex);

  00060	56		 push	 esi
  00061	8b cf		 mov	 ecx, edi
  00063	e8 00 00 00 00	 call	 ?GetAt@CMovingGraphDeque@@QBEPAVCGraphImp@@H@Z ; CMovingGraphDeque::GetAt

; 342  : 		assert(pMovingGraph != NULL);
; 343  : 		if(pTargetScaleGroupList->MoveGraph(pMovingGraph, movingVertScaleData.GetVertScaleGroupIndex(), false)){

  00068	8b 4d 0c	 mov	 ecx, DWORD PTR _movingVertScaleData$[ebp]
  0006b	8b d8		 mov	 ebx, eax
  0006d	6a 01		 push	 1
  0006f	6a 00		 push	 0
  00071	e8 00 00 00 00	 call	 ?GetVertScaleGroupIndex@CMovingGraphVertScaleData@@QBEHXZ ; CMovingGraphVertScaleData::GetVertScaleGroupIndex
  00076	8b 4d 08	 mov	 ecx, DWORD PTR _pTargetScaleGroupList$[ebp]
  00079	50		 push	 eax
  0007a	53		 push	 ebx
  0007b	e8 00 00 00 00	 call	 ?MoveGraph@CVertScaleGroupList@@QAE_NPAVCGraphImp@@H_N1@Z ; CVertScaleGroupList::MoveGraph
  00080	84 c0		 test	 al, al
  00082	74 36		 je	 SHORT $LN2@GraphMovin

; 344  : 			bResult = true;
; 345  : 			pMovingGraph->GetVertScaleGroup()->SetVerticalScale(movingVertScaleData.GetVerticalScale());

  00084	8b 4d 0c	 mov	 ecx, DWORD PTR _movingVertScaleData$[ebp]
  00087	8d 45 9c	 lea	 eax, DWORD PTR $T2[ebp]
  0008a	50		 push	 eax
  0008b	c6 45 13 01	 mov	 BYTE PTR _bResult$1$[ebp], 1
  0008f	e8 00 00 00 00	 call	 ?GetVerticalScale@CMovingGraphVertScaleData@@QBE?AVCVerticalScale@@XZ ; CMovingGraphVertScaleData::GetVerticalScale
  00094	50		 push	 eax
  00095	8b cb		 mov	 ecx, ebx
  00097	c7 45 fc 00 00
	00 00		 mov	 DWORD PTR __$EHRec$[ebp+8], 0
  0009e	e8 00 00 00 00	 call	 ?GetVertScaleGroup@CGraphImp@@QBEPAVCVertScaleGroup@@XZ ; CGraphImp::GetVertScaleGroup
  000a3	8b c8		 mov	 ecx, eax
  000a5	e8 00 00 00 00	 call	 ?SetVerticalScale@CVertScaleGroup@@QAEXABVCVerticalScale@@@Z ; CVertScaleGroup::SetVerticalScale
  000aa	8d 4d 9c	 lea	 ecx, DWORD PTR $T2[ebp]
  000ad	c7 45 fc ff ff
	ff ff		 mov	 DWORD PTR __$EHRec$[ebp+8], -1
  000b4	ff 15 00 00 00
	00		 call	 DWORD PTR __imp_??1CVerticalScale@@QAE@XZ
$LN2@GraphMovin:

; 340  : 	for(int nIndex = 0; nIndex < movingGraphDeque.GetCount(); nIndex++){

  000ba	8b cf		 mov	 ecx, edi
  000bc	46		 inc	 esi
  000bd	e8 00 00 00 00	 call	 ?GetCount@CMovingGraphDeque@@QBEHXZ ; CMovingGraphDeque::GetCount
  000c2	3b f0		 cmp	 esi, eax
  000c4	7c 9a		 jl	 SHORT $LL4@GraphMovin
  000c6	8a 5d 13	 mov	 bl, BYTE PTR _bResult$1$[ebp]
$LN3@GraphMovin:

; 346  : 		}
; 347  : 	}
; 348  : 
; 349  : 	return bResult;

  000c9	8a c3		 mov	 al, bl

; 350  : }

  000cb	8b 4d f4	 mov	 ecx, DWORD PTR __$EHRec$[ebp]
  000ce	64 89 0d 00 00
	00 00		 mov	 DWORD PTR fs:0, ecx
  000d5	59		 pop	 ecx
  000d6	5f		 pop	 edi
  000d7	5e		 pop	 esi
  000d8	5b		 pop	 ebx
  000d9	8b e5		 mov	 esp, ebp
  000db	5d		 pop	 ebp
  000dc	c2 0c 00	 ret	 12			; 0000000cH
_TEXT	ENDS
;	COMDAT text$x
text$x	SEGMENT
__unwindfunclet$?GraphMoving@CGraphMove@@AAE_NPAVCVertScaleGroupList@@ABVCMovingGraphVertScaleData@@ABVCMovingGraphDeque@@@Z$0:
  00000	8d 4d 9c	 lea	 ecx, DWORD PTR $T2[ebp]
  00003	ff 25 00 00 00
	00		 jmp	 DWORD PTR __imp_??1CVerticalScale@@QAE@XZ
  00009	cc		 int	 3
  0000a	cc		 int	 3
  0000b	cc		 int	 3
  0000c	cc		 int	 3
  0000d	cc		 int	 3
__ehhandler$?GraphMoving@CGraphMove@@AAE_NPAVCVertScaleGroupList@@ABVCMovingGraphVertScaleData@@ABVCMovingGraphDeque@@@Z:
  0000e	90		 npad	 1
  0000f	90		 npad	 1
  00010	8b 54 24 08	 mov	 edx, DWORD PTR [esp+8]
  00014	8d 42 0c	 lea	 eax, DWORD PTR [edx+12]
  00017	8b 4a 98	 mov	 ecx, DWORD PTR [edx-104]
  0001a	33 c8		 xor	 ecx, eax
  0001c	e8 00 00 00 00	 call	 @__security_check_cookie@4
  00021	b8 00 00 00 00	 mov	 eax, OFFSET __ehfuncinfo$?GraphMoving@CGraphMove@@AAE_NPAVCVertScaleGroupList@@ABVCMovingGraphVertScaleData@@ABVCMovingGraphDeque@@@Z
  00026	e9 00 00 00 00	 jmp	 ___CxxFrameHandler3
text$x	ENDS
?GraphMoving@CGraphMove@@AAE_NPAVCVertScaleGroupList@@ABVCMovingGraphVertScaleData@@ABVCMovingGraphDeque@@@Z ENDP ; CGraphMove::GraphMoving
; Function compile flags: /Ogtp
; File D:\git\src\IBK\IBK_DRFN\ProjSrc\SrcChartEx\ChartOCX\ChartObject\GraphMove.cpp
; File C:\Program Files (x86)\Microsoft Visual Studio\2019\Community\VC\Tools\MSVC\14.29.30133\include\xmemory
; File D:\git\src\IBK\IBK_DRFN\ProjSrc\SrcChartEx\ChartOCX\ChartObject\GraphMove.cpp
; File C:\Program Files (x86)\Microsoft Visual Studio\2019\Community\VC\Tools\MSVC\14.29.30133\include\xmemory
; File C:\Program Files (x86)\Microsoft Visual Studio\2019\Community\VC\Tools\MSVC\14.29.30133\include\deque
; File C:\Program Files (x86)\Microsoft Visual Studio\2019\Community\VC\Tools\MSVC\14.29.30133\include\xmemory
; File D:\git\src\IBK\IBK_DRFN\ProjSrc\SrcChartEx\ChartOCX\ChartObject\GraphMove.cpp
; File C:\Program Files (x86)\Microsoft Visual Studio\2019\Community\VC\Tools\MSVC\14.29.30133\include\xmemory
; File D:\git\src\IBK\IBK_DRFN\ProjSrc\SrcChartEx\ChartOCX\ChartObject\GraphMove.cpp
; File C:\Program Files (x86)\Microsoft Visual Studio\2019\Community\VC\Tools\MSVC\14.29.30133\include\xmemory
; File D:\git\src\IBK\IBK_DRFN\ProjSrc\SrcChartEx\ChartOCX\ChartObject\GraphMove.cpp
; File C:\Program Files (x86)\Microsoft Visual Studio\2019\Community\VC\Tools\MSVC\14.29.30133\include\deque
; File D:\git\src\IBK\IBK_DRFN\ProjSrc\SrcChartEx\ChartOCX\ChartObject\GraphMove.cpp
; File C:\Program Files (x86)\Microsoft Visual Studio\2019\Community\VC\Tools\MSVC\14.29.30133\include\deque
; File C:\Program Files (x86)\Microsoft Visual Studio\2019\Community\VC\Tools\MSVC\14.29.30133\include\xmemory
; File C:\Program Files (x86)\Microsoft Visual Studio\2019\Community\VC\Tools\MSVC\14.29.30133\include\deque
; File C:\Program Files (x86)\Microsoft Visual Studio\2019\Community\VC\Tools\MSVC\14.29.30133\include\xmemory
; File C:\Program Files (x86)\Microsoft Visual Studio\2019\Community\VC\Tools\MSVC\14.29.30133\include\deque
; File C:\Program Files (x86)\Microsoft Visual Studio\2019\Community\VC\Tools\MSVC\14.29.30133\include\utility
; File C:\Program Files (x86)\Microsoft Visual Studio\2019\Community\VC\Tools\MSVC\14.29.30133\include\xmemory
; File C:\Program Files (x86)\Microsoft Visual Studio\2019\Community\VC\Tools\MSVC\14.29.30133\include\deque
; File C:\Program Files (x86)\Microsoft Visual Studio\2019\Community\VC\Tools\MSVC\14.29.30133\include\utility
; File C:\Program Files (x86)\Microsoft Visual Studio\2019\Community\VC\Tools\MSVC\14.29.30133\include\xmemory
; File D:\git\src\IBK\IBK_DRFN\ProjSrc\SrcChartEx\ChartOCX\ChartObject\GraphMove.cpp
;	COMDAT ?GraphMoving@CGraphMove@@AAE_NPAVCGraphImp@@PAVCVertScaleGroupList@@ABVCMovingGraphVertScaleData@@@Z
_TEXT	SEGMENT
_gsi$ = -192						; size = 64
$T2 = -128						; size = 88
_gsi$3 = -108						; size = 68
_pSourceScaleGroupList$1$ = -40				; size = 4
$T4 = -36						; size = 4
$T5 = -32						; size = 20
__$EHRec$ = -12						; size = 12
_pSourceGraph$ = 8					; size = 4
$T6 = 11						; size = 1
_pTargetScaleGroupList$ = 12				; size = 4
_movingVertScaleData$ = 16				; size = 4
?GraphMoving@CGraphMove@@AAE_NPAVCGraphImp@@PAVCVertScaleGroupList@@ABVCMovingGraphVertScaleData@@@Z PROC ; CGraphMove::GraphMoving, COMDAT
; _this$ = ecx

; 316  : {

  00000	55		 push	 ebp
  00001	8b ec		 mov	 ebp, esp
  00003	6a ff		 push	 -1
  00005	68 00 00 00 00	 push	 __ehhandler$?GraphMoving@CGraphMove@@AAE_NPAVCGraphImp@@PAVCVertScaleGroupList@@ABVCMovingGraphVertScaleData@@@Z
  0000a	64 a1 00 00 00
	00		 mov	 eax, DWORD PTR fs:0
  00010	50		 push	 eax
  00011	81 ec b4 00 00
	00		 sub	 esp, 180		; 000000b4H
  00017	53		 push	 ebx
  00018	56		 push	 esi
  00019	57		 push	 edi
  0001a	a1 00 00 00 00	 mov	 eax, DWORD PTR ___security_cookie
  0001f	33 c5		 xor	 eax, ebp
  00021	50		 push	 eax
  00022	8d 45 f4	 lea	 eax, DWORD PTR __$EHRec$[ebp]
  00025	64 a3 00 00 00
	00		 mov	 DWORD PTR fs:0, eax

; 317  : 	if(pSourceGraph == NULL || pTargetScaleGroupList == NULL)

  0002b	8b 75 08	 mov	 esi, DWORD PTR _pSourceGraph$[ebp]
  0002e	c7 45 dc 00 00
	00 00		 mov	 DWORD PTR $T4[ebp], 0
  00035	85 f6		 test	 esi, esi
  00037	0f 84 2b 02 00
	00		 je	 $LN3@GraphMovin
  0003d	83 7d 0c 00	 cmp	 DWORD PTR _pTargetScaleGroupList$[ebp], 0
  00041	0f 84 21 02 00
	00		 je	 $LN3@GraphMovin

; 319  : 
; 320  : 	CVertScaleGroupList* pSourceScaleGroupList = pSourceGraph->GetVertScaleGroupList();

  00047	8b ce		 mov	 ecx, esi
  00049	e8 00 00 00 00	 call	 ?GetVertScaleGroupList@CGraphImp@@QBEPAVCVertScaleGroupList@@XZ ; CGraphImp::GetVertScaleGroupList
  0004e	8b d8		 mov	 ebx, eax
  00050	89 5d d8	 mov	 DWORD PTR _pSourceScaleGroupList$1$[ebp], ebx
; File C:\Program Files (x86)\Microsoft Visual Studio\2019\Community\VC\Tools\MSVC\14.29.30133\include\xmemory

; 79   :         return ::operator new(_Bytes);

  00053	6a 08		 push	 8
; File D:\git\src\IBK\IBK_DRFN\ProjSrc\SrcChartEx\ChartOCX\ChartObject\GraphMove.cpp

; 322  : 	if(!GraphMoving(pTargetScaleGroupList, movingVertScaleData, GetMovingGraphDeque(pSourceGraph)))

  00055	c7 45 fc 00 00
	00 00		 mov	 DWORD PTR __$EHRec$[ebp+8], 0
; File C:\Program Files (x86)\Microsoft Visual Studio\2019\Community\VC\Tools\MSVC\14.29.30133\include\xmemory

; 1033 :     _Container_proxy* _Myproxy = nullptr;

  0005c	c7 45 e0 00 00
	00 00		 mov	 DWORD PTR $T5[ebp], 0
; File C:\Program Files (x86)\Microsoft Visual Studio\2019\Community\VC\Tools\MSVC\14.29.30133\include\deque

; 555  :     _Deque_val() noexcept : _Map(), _Mapsize(0), _Myoff(0), _Mysize(0) {}

  00063	c7 45 e4 00 00
	00 00		 mov	 DWORD PTR $T5[ebp+4], 0
  0006a	c7 45 e8 00 00
	00 00		 mov	 DWORD PTR $T5[ebp+8], 0
  00071	c7 45 ec 00 00
	00 00		 mov	 DWORD PTR $T5[ebp+12], 0
  00078	c7 45 f0 00 00
	00 00		 mov	 DWORD PTR $T5[ebp+16], 0
; File C:\Program Files (x86)\Microsoft Visual Studio\2019\Community\VC\Tools\MSVC\14.29.30133\include\xmemory

; 79   :         return ::operator new(_Bytes);

  0007f	e8 00 00 00 00	 call	 ??2@YAPAXI@Z		; operator new
  00084	83 c4 04	 add	 esp, 4
; File D:\git\src\IBK\IBK_DRFN\ProjSrc\SrcChartEx\ChartOCX\ChartObject\GraphMove.cpp

; 265  : 	return movingGraphDeque;

  00087	c7 45 dc 01 00
	00 00		 mov	 DWORD PTR $T4[ebp], 1
; File C:\Program Files (x86)\Microsoft Visual Studio\2019\Community\VC\Tools\MSVC\14.29.30133\include\xmemory

; 1021 :         _New_proxy->_Mycont = this;

  0008e	8d 4d e0	 lea	 ecx, DWORD PTR $T5[ebp]

; 1003 :     mutable _Iterator_base12* _Myfirstiter = nullptr;

  00091	c7 40 04 00 00
	00 00		 mov	 DWORD PTR [eax+4], 0

; 1020 :         _Myproxy            = _New_proxy;

  00098	89 45 e0	 mov	 DWORD PTR $T5[ebp], eax
; File D:\git\src\IBK\IBK_DRFN\ProjSrc\SrcChartEx\ChartOCX\ChartObject\GraphMove.cpp

; 253  : 	movingGraphDeque.AddTail(pGraph);

  0009b	56		 push	 esi
; File C:\Program Files (x86)\Microsoft Visual Studio\2019\Community\VC\Tools\MSVC\14.29.30133\include\xmemory

; 1021 :         _New_proxy->_Mycont = this;

  0009c	89 08		 mov	 DWORD PTR [eax], ecx
; File D:\git\src\IBK\IBK_DRFN\ProjSrc\SrcChartEx\ChartOCX\ChartObject\GraphMove.cpp

; 253  : 	movingGraphDeque.AddTail(pGraph);

  0009e	e8 00 00 00 00	 call	 ?AddTail@CMovingGraphDeque@@QAEXPAVCGraphImp@@@Z ; CMovingGraphDeque::AddTail

; 336  : 	if(movingGraphDeque.GetCount() <= 0)

  000a3	8d 4d e0	 lea	 ecx, DWORD PTR $T5[ebp]
  000a6	e8 00 00 00 00	 call	 ?GetCount@CMovingGraphDeque@@QBEHXZ ; CMovingGraphDeque::GetCount
  000ab	c6 45 0b 00	 mov	 BYTE PTR $T6[ebp], 0
  000af	85 c0		 test	 eax, eax
  000b1	7e 74		 jle	 SHORT $LN64@GraphMovin

; 337  : 		return false;
; 338  : 
; 339  : 	bool bResult = false;
; 340  : 	for(int nIndex = 0; nIndex < movingGraphDeque.GetCount(); nIndex++){

  000b3	8d 4d e0	 lea	 ecx, DWORD PTR $T5[ebp]
  000b6	33 f6		 xor	 esi, esi
  000b8	e8 00 00 00 00	 call	 ?GetCount@CMovingGraphDeque@@QBEHXZ ; CMovingGraphDeque::GetCount
  000bd	85 c0		 test	 eax, eax
  000bf	7e 66		 jle	 SHORT $LN64@GraphMovin
  000c1	8b 5d 10	 mov	 ebx, DWORD PTR _movingVertScaleData$[ebp]
$LL67@GraphMovin:

; 341  : 		CGraphImp* pMovingGraph = movingGraphDeque.GetAt(nIndex);

  000c4	56		 push	 esi
  000c5	8d 4d e0	 lea	 ecx, DWORD PTR $T5[ebp]
  000c8	e8 00 00 00 00	 call	 ?GetAt@CMovingGraphDeque@@QBEPAVCGraphImp@@H@Z ; CMovingGraphDeque::GetAt

; 342  : 		assert(pMovingGraph != NULL);
; 343  : 		if(pTargetScaleGroupList->MoveGraph(pMovingGraph, movingVertScaleData.GetVertScaleGroupIndex(), false)){

  000cd	6a 01		 push	 1
  000cf	6a 00		 push	 0
  000d1	8b cb		 mov	 ecx, ebx
  000d3	8b f8		 mov	 edi, eax
  000d5	e8 00 00 00 00	 call	 ?GetVertScaleGroupIndex@CMovingGraphVertScaleData@@QBEHXZ ; CMovingGraphVertScaleData::GetVertScaleGroupIndex
  000da	8b 4d 0c	 mov	 ecx, DWORD PTR _pTargetScaleGroupList$[ebp]
  000dd	50		 push	 eax
  000de	57		 push	 edi
  000df	e8 00 00 00 00	 call	 ?MoveGraph@CVertScaleGroupList@@QAE_NPAVCGraphImp@@H_N1@Z ; CVertScaleGroupList::MoveGraph
  000e4	84 c0		 test	 al, al
  000e6	74 2f		 je	 SHORT $LN65@GraphMovin

; 344  : 			bResult = true;
; 345  : 			pMovingGraph->GetVertScaleGroup()->SetVerticalScale(movingVertScaleData.GetVerticalScale());

  000e8	8d 45 80	 lea	 eax, DWORD PTR $T2[ebp]
  000eb	c6 45 0b 01	 mov	 BYTE PTR $T6[ebp], 1
  000ef	50		 push	 eax
  000f0	8b cb		 mov	 ecx, ebx
  000f2	e8 00 00 00 00	 call	 ?GetVerticalScale@CMovingGraphVertScaleData@@QBE?AVCVerticalScale@@XZ ; CMovingGraphVertScaleData::GetVerticalScale
  000f7	50		 push	 eax
  000f8	8b cf		 mov	 ecx, edi
  000fa	c6 45 fc 01	 mov	 BYTE PTR __$EHRec$[ebp+8], 1
  000fe	e8 00 00 00 00	 call	 ?GetVertScaleGroup@CGraphImp@@QBEPAVCVertScaleGroup@@XZ ; CGraphImp::GetVertScaleGroup
  00103	8b c8		 mov	 ecx, eax
  00105	e8 00 00 00 00	 call	 ?SetVerticalScale@CVertScaleGroup@@QAEXABVCVerticalScale@@@Z ; CVertScaleGroup::SetVerticalScale
  0010a	8d 4d 80	 lea	 ecx, DWORD PTR $T2[ebp]
  0010d	c6 45 fc 00	 mov	 BYTE PTR __$EHRec$[ebp+8], 0
  00111	ff 15 00 00 00
	00		 call	 DWORD PTR __imp_??1CVerticalScale@@QAE@XZ
$LN65@GraphMovin:

; 337  : 		return false;
; 338  : 
; 339  : 	bool bResult = false;
; 340  : 	for(int nIndex = 0; nIndex < movingGraphDeque.GetCount(); nIndex++){

  00117	8d 4d e0	 lea	 ecx, DWORD PTR $T5[ebp]
  0011a	46		 inc	 esi
  0011b	e8 00 00 00 00	 call	 ?GetCount@CMovingGraphDeque@@QBEHXZ ; CMovingGraphDeque::GetCount
  00120	3b f0		 cmp	 esi, eax
  00122	7c a0		 jl	 SHORT $LL67@GraphMovin
  00124	8b 5d d8	 mov	 ebx, DWORD PTR _pSourceScaleGroupList$1$[ebp]
$LN64@GraphMovin:
; File C:\Program Files (x86)\Microsoft Visual Studio\2019\Community\VC\Tools\MSVC\14.29.30133\include\deque

; 1002 :         return _Mysize() == 0;

  00127	8b 45 f0	 mov	 eax, DWORD PTR $T5[ebp+16]
; File D:\git\src\IBK\IBK_DRFN\ProjSrc\SrcChartEx\ChartOCX\ChartObject\GraphMove.cpp

; 322  : 	if(!GraphMoving(pTargetScaleGroupList, movingVertScaleData, GetMovingGraphDeque(pSourceGraph)))

  0012a	c7 45 fc ff ff
	ff ff		 mov	 DWORD PTR __$EHRec$[ebp+8], -1
; File C:\Program Files (x86)\Microsoft Visual Studio\2019\Community\VC\Tools\MSVC\14.29.30133\include\deque

; 1002 :         return _Mysize() == 0;

  00131	85 c0		 test	 eax, eax

; 1475 :         while (!empty()) {

  00133	74 0f		 je	 SHORT $LN246@GraphMovin
$LL81@GraphMovin:

; 1146 :         if (--_Mysize() == 0) {

  00135	83 c0 ff	 add	 eax, -1
  00138	89 45 f0	 mov	 DWORD PTR $T5[ebp+16], eax
  0013b	75 f8		 jne	 SHORT $LL81@GraphMovin

; 1147 :             _Myoff() = 0;

  0013d	c7 45 ec 00 00
	00 00		 mov	 DWORD PTR $T5[ebp+12], 0
$LN246@GraphMovin:

; 1479 :         for (size_type _Block = _Mapsize(); 0 < _Block;) { // free storage for a block and destroy pointer

  00144	8b 75 e8	 mov	 esi, DWORD PTR $T5[ebp+8]
  00147	8b 4d e4	 mov	 ecx, DWORD PTR $T5[ebp+4]
  0014a	85 f6		 test	 esi, esi
  0014c	74 23		 je	 SHORT $LN84@GraphMovin
  0014e	66 90		 npad	 2
$LL83@GraphMovin:

; 1480 :             if (_Map()[--_Block]) { // free block and destroy its pointer

  00150	8b 44 b1 fc	 mov	 eax, DWORD PTR [ecx+esi*4-4]
  00154	4e		 dec	 esi
  00155	85 c0		 test	 eax, eax
  00157	74 0e		 je	 SHORT $LN102@GraphMovin
; File C:\Program Files (x86)\Microsoft Visual Studio\2019\Community\VC\Tools\MSVC\14.29.30133\include\xmemory

; 255  :         ::operator delete(_Ptr, _Bytes);

  00159	6a 10		 push	 16			; 00000010H
  0015b	50		 push	 eax
  0015c	e8 00 00 00 00	 call	 ??3@YAXPAXI@Z		; operator delete
  00161	8b 4d e4	 mov	 ecx, DWORD PTR $T5[ebp+4]
  00164	83 c4 08	 add	 esp, 8
$LN102@GraphMovin:
; File C:\Program Files (x86)\Microsoft Visual Studio\2019\Community\VC\Tools\MSVC\14.29.30133\include\deque

; 1479 :         for (size_type _Block = _Mapsize(); 0 < _Block;) { // free storage for a block and destroy pointer

  00167	85 f6		 test	 esi, esi
  00169	75 e5		 jne	 SHORT $LL83@GraphMovin
  0016b	8b 45 f0	 mov	 eax, DWORD PTR $T5[ebp+16]
  0016e	8b 75 e8	 mov	 esi, DWORD PTR $T5[ebp+8]
$LN84@GraphMovin:

; 1481 :                 _Getal().deallocate(_Map()[_Block], _Block_size);
; 1482 :                 _Destroy_in_place(_Map()[_Block]);
; 1483 :             }
; 1484 :         }
; 1485 : 
; 1486 :         if (_Map() != _Mapptr()) {

  00171	85 c9		 test	 ecx, ecx
  00173	74 30		 je	 SHORT $LN120@GraphMovin
; File C:\Program Files (x86)\Microsoft Visual Studio\2019\Community\VC\Tools\MSVC\14.29.30133\include\xmemory

; 797  :         _Deallocate<_New_alignof<_Ty>>(_Ptr, sizeof(_Ty) * _Count);

  00175	c1 e6 02	 shl	 esi, 2
  00178	8b c1		 mov	 eax, ecx

; 251  :         if (_Bytes >= _Big_allocation_threshold) { // boost the alignment of big allocations to help autovectorization

  0017a	81 fe 00 10 00
	00		 cmp	 esi, 4096		; 00001000H
  00180	72 16		 jb	 SHORT $LN130@GraphMovin

; 150  :     const uintptr_t _Ptr_container   = _Ptr_user[-1];

  00182	8b 49 fc	 mov	 ecx, DWORD PTR [ecx-4]
  00185	83 c6 23	 add	 esi, 35			; 00000023H
  00188	2b c1		 sub	 eax, ecx

; 151  : 
; 152  :     // If the following asserts, it likely means that we are performing
; 153  :     // an aligned delete on memory coming from an unaligned allocation.
; 154  :     _STL_ASSERT(_Ptr_user[-2] == _Big_allocation_sentinel, "invalid argument");
; 155  : 
; 156  :     // Extra paranoia on aligned allocation/deallocation; ensure _Ptr_container is
; 157  :     // in range [_Min_back_shift, _Non_user_size]
; 158  : #ifdef _DEBUG
; 159  :     constexpr uintptr_t _Min_back_shift = 2 * sizeof(void*);
; 160  : #else // ^^^ _DEBUG ^^^ // vvv !_DEBUG vvv
; 161  :     constexpr uintptr_t _Min_back_shift = sizeof(void*);
; 162  : #endif // _DEBUG
; 163  :     const uintptr_t _Back_shift = reinterpret_cast<uintptr_t>(_Ptr) - _Ptr_container;
; 164  :     _STL_VERIFY(_Back_shift >= _Min_back_shift && _Back_shift <= _Non_user_size, "invalid argument");

  0018a	83 c0 fc	 add	 eax, -4			; fffffffcH
  0018d	83 f8 1f	 cmp	 eax, 31			; 0000001fH
  00190	76 06		 jbe	 SHORT $LN130@GraphMovin
  00192	ff 15 00 00 00
	00		 call	 DWORD PTR __imp___invalid_parameter_noinfo_noreturn
$LN130@GraphMovin:

; 255  :         ::operator delete(_Ptr, _Bytes);

  00198	56		 push	 esi
  00199	51		 push	 ecx
  0019a	e8 00 00 00 00	 call	 ??3@YAXPAXI@Z		; operator delete
  0019f	8b 45 f0	 mov	 eax, DWORD PTR $T5[ebp+16]
  001a2	83 c4 08	 add	 esp, 8
$LN120@GraphMovin:
; File C:\Program Files (x86)\Microsoft Visual Studio\2019\Community\VC\Tools\MSVC\14.29.30133\include\deque

; 1002 :         return _Mysize() == 0;

  001a5	85 c0		 test	 eax, eax

; 1475 :         while (!empty()) {

  001a7	74 12		 je	 SHORT $LN245@GraphMovin
  001a9	0f 1f 80 00 00
	00 00		 npad	 7
$LL138@GraphMovin:

; 1146 :         if (--_Mysize() == 0) {

  001b0	83 c0 ff	 add	 eax, -1
  001b3	75 fb		 jne	 SHORT $LL138@GraphMovin
  001b5	89 45 f0	 mov	 DWORD PTR $T5[ebp+16], eax

; 1147 :             _Myoff() = 0;

  001b8	89 45 ec	 mov	 DWORD PTR $T5[ebp+12], eax
$LN245@GraphMovin:
; File C:\Program Files (x86)\Microsoft Visual Studio\2019\Community\VC\Tools\MSVC\14.29.30133\include\utility

; 602  :     _Ty _Old_val = static_cast<_Ty&&>(_Val);

  001bb	8b 45 e0	 mov	 eax, DWORD PTR $T5[ebp]
; File C:\Program Files (x86)\Microsoft Visual Studio\2019\Community\VC\Tools\MSVC\14.29.30133\include\xmemory

; 255  :         ::operator delete(_Ptr, _Bytes);

  001be	6a 08		 push	 8
  001c0	50		 push	 eax
; File C:\Program Files (x86)\Microsoft Visual Studio\2019\Community\VC\Tools\MSVC\14.29.30133\include\deque

; 1490 :         _Mapsize() = 0;

  001c1	c7 45 e8 00 00
	00 00		 mov	 DWORD PTR $T5[ebp+8], 0

; 1491 :         _Map()     = _Mapptr();

  001c8	c7 45 e4 00 00
	00 00		 mov	 DWORD PTR $T5[ebp+4], 0
; File C:\Program Files (x86)\Microsoft Visual Studio\2019\Community\VC\Tools\MSVC\14.29.30133\include\utility

; 603  :     _Val         = static_cast<_Other&&>(_New_val);

  001cf	c7 45 e0 00 00
	00 00		 mov	 DWORD PTR $T5[ebp], 0
; File C:\Program Files (x86)\Microsoft Visual Studio\2019\Community\VC\Tools\MSVC\14.29.30133\include\xmemory

; 255  :         ::operator delete(_Ptr, _Bytes);

  001d6	e8 00 00 00 00	 call	 ??3@YAXPAXI@Z		; operator delete
  001db	83 c4 08	 add	 esp, 8
; File D:\git\src\IBK\IBK_DRFN\ProjSrc\SrcChartEx\ChartOCX\ChartObject\GraphMove.cpp

; 322  : 	if(!GraphMoving(pTargetScaleGroupList, movingVertScaleData, GetMovingGraphDeque(pSourceGraph)))

  001de	80 7d 0b 00	 cmp	 BYTE PTR $T6[ebp], 0
  001e2	0f 84 80 00 00
	00		 je	 $LN3@GraphMovin

; 354  : 	if(pVertScaleGroupList == NULL)

  001e8	85 db		 test	 ebx, ebx
  001ea	74 36		 je	 SHORT $LN217@GraphMovin
  001ec	8d 4d 94	 lea	 ecx, DWORD PTR _gsi$3[ebp]
  001ef	e8 00 00 00 00	 call	 ??0CGraphSearchInfo@@QAE@XZ ; CGraphSearchInfo::CGraphSearchInfo

; 355  : 		return;
; 356  : 
; 357  : 	CGraphSearchInfo_HasVertScaleAndGridLine gsi;
; 358  : 	gsi.m_eVertScalePosition = ( CScaleBaseData::VERTSCALEPOSITION)-1;
; 359  : 	if( !pVertScaleGroupList->FindGraph( &gsi)) return;

  001f4	8d 45 94	 lea	 eax, DWORD PTR _gsi$3[ebp]
  001f7	c7 45 94 00 00
	00 00		 mov	 DWORD PTR _gsi$3[ebp], OFFSET ??_7CGraphSearchInfo_HasVertScaleAndGridLine@@6B@
  001fe	50		 push	 eax
  001ff	8b cb		 mov	 ecx, ebx
  00201	c7 45 d4 ff ff
	ff ff		 mov	 DWORD PTR _gsi$3[ebp+64], -1
  00208	e8 00 00 00 00	 call	 ?FindGraph@CVertScaleGroupList@@QBEHPAVCGraphSearchInfo@@@Z ; CVertScaleGroupList::FindGraph
  0020d	85 c0		 test	 eax, eax
  0020f	74 11		 je	 SHORT $LN217@GraphMovin

; 360  : 	if( !gsi.m_pVertScaleGroup) return;

  00211	8b 45 c8	 mov	 eax, DWORD PTR _gsi$3[ebp+52]
  00214	85 c0		 test	 eax, eax
  00216	74 0a		 je	 SHORT $LN217@GraphMovin

; 361  : 
; 362  : 	pVertScaleGroupList->SetActivate( gsi.m_pVertScaleGroup, VSGA_GRIDLINE);

  00218	6a 01		 push	 1
  0021a	50		 push	 eax
  0021b	8b cb		 mov	 ecx, ebx
  0021d	e8 00 00 00 00	 call	 ?SetActivate@CVertScaleGroupList@@QAEXPAVCVertScaleGroup@@H@Z ; CVertScaleGroupList::SetActivate
$LN217@GraphMovin:
  00222	8d 8d 40 ff ff
	ff		 lea	 ecx, DWORD PTR _gsi$[ebp]
  00228	e8 00 00 00 00	 call	 ??0CGraphSearchInfo@@QAE@XZ ; CGraphSearchInfo::CGraphSearchInfo

; 323  : 		return false;
; 324  : 
; 325  : 	SetVertScaleGridType(pSourceScaleGroupList);
; 326  : 
; 327  : 	// (2006/11/14 - Seung-Won, Bae) Delete Empty Block.
; 328  : 	CGraphSearchInfo_AnyGraph gsi;
; 329  : 	if( !pSourceScaleGroupList->FindGraph( &gsi)) pSourceScaleGroupList->RemoveAll( true);

  0022d	8d 85 40 ff ff
	ff		 lea	 eax, DWORD PTR _gsi$[ebp]
  00233	c7 85 40 ff ff
	ff 00 00 00 00	 mov	 DWORD PTR _gsi$[ebp], OFFSET ??_7CGraphSearchInfo_AnyGraph@@6B@
  0023d	50		 push	 eax
  0023e	8b cb		 mov	 ecx, ebx
  00240	e8 00 00 00 00	 call	 ?FindGraph@CVertScaleGroupList@@QBEHPAVCGraphSearchInfo@@@Z ; CVertScaleGroupList::FindGraph
  00245	85 c0		 test	 eax, eax
  00247	75 09		 jne	 SHORT $LN5@GraphMovin
  00249	6a 01		 push	 1
  0024b	8b cb		 mov	 ecx, ebx
  0024d	e8 00 00 00 00	 call	 ?RemoveAll@CVertScaleGroupList@@QAEX_N@Z ; CVertScaleGroupList::RemoveAll
$LN5@GraphMovin:

; 330  : 
; 331  : 	return true;

  00252	b0 01		 mov	 al, 1

; 332  : }

  00254	8b 4d f4	 mov	 ecx, DWORD PTR __$EHRec$[ebp]
  00257	64 89 0d 00 00
	00 00		 mov	 DWORD PTR fs:0, ecx
  0025e	59		 pop	 ecx
  0025f	5f		 pop	 edi
  00260	5e		 pop	 esi
  00261	5b		 pop	 ebx
  00262	8b e5		 mov	 esp, ebp
  00264	5d		 pop	 ebp
  00265	c2 0c 00	 ret	 12			; 0000000cH
$LN3@GraphMovin:

; 318  : 		return false;

  00268	32 c0		 xor	 al, al

; 332  : }

  0026a	8b 4d f4	 mov	 ecx, DWORD PTR __$EHRec$[ebp]
  0026d	64 89 0d 00 00
	00 00		 mov	 DWORD PTR fs:0, ecx
  00274	59		 pop	 ecx
  00275	5f		 pop	 edi
  00276	5e		 pop	 esi
  00277	5b		 pop	 ebx
  00278	8b e5		 mov	 esp, ebp
  0027a	5d		 pop	 ebp
  0027b	c2 0c 00	 ret	 12			; 0000000cH
$LN251@GraphMovin:
_TEXT	ENDS
;	COMDAT text$x
text$x	SEGMENT
__unwindfunclet$?GraphMoving@CGraphMove@@AAE_NPAVCGraphImp@@PAVCVertScaleGroupList@@ABVCMovingGraphVertScaleData@@@Z$1:
  00000	8b 45 dc	 mov	 eax, DWORD PTR $T4[ebp]
  00003	83 e0 01	 and	 eax, 1
  00006	0f 84 0c 00 00
	00		 je	 $LN11@GraphMovin
  0000c	83 65 dc fe	 and	 DWORD PTR $T4[ebp], -2	; fffffffeH
  00010	8d 4d e0	 lea	 ecx, DWORD PTR $T5[ebp]
  00013	e9 00 00 00 00	 jmp	 ??1CMovingGraphDeque@@QAE@XZ
$LN11@GraphMovin:
  00018	c3		 ret	 0
__unwindfunclet$?GraphMoving@CGraphMove@@AAE_NPAVCGraphImp@@PAVCVertScaleGroupList@@ABVCMovingGraphVertScaleData@@@Z$4:
  00019	8d 4d 80	 lea	 ecx, DWORD PTR $T2[ebp]
  0001c	ff 25 00 00 00
	00		 jmp	 DWORD PTR __imp_??1CVerticalScale@@QAE@XZ
  00022	cc		 int	 3
  00023	cc		 int	 3
  00024	cc		 int	 3
  00025	cc		 int	 3
  00026	cc		 int	 3
__ehhandler$?GraphMoving@CGraphMove@@AAE_NPAVCGraphImp@@PAVCVertScaleGroupList@@ABVCMovingGraphVertScaleData@@@Z:
  00027	90		 npad	 1
  00028	90		 npad	 1
  00029	8b 54 24 08	 mov	 edx, DWORD PTR [esp+8]
  0002d	8d 42 0c	 lea	 eax, DWORD PTR [edx+12]
  00030	8b 8a 3c ff ff
	ff		 mov	 ecx, DWORD PTR [edx-196]
  00036	33 c8		 xor	 ecx, eax
  00038	e8 00 00 00 00	 call	 @__security_check_cookie@4
  0003d	b8 00 00 00 00	 mov	 eax, OFFSET __ehfuncinfo$?GraphMoving@CGraphMove@@AAE_NPAVCGraphImp@@PAVCVertScaleGroupList@@ABVCMovingGraphVertScaleData@@@Z
  00042	e9 00 00 00 00	 jmp	 ___CxxFrameHandler3
text$x	ENDS
?GraphMoving@CGraphMove@@AAE_NPAVCGraphImp@@PAVCVertScaleGroupList@@ABVCMovingGraphVertScaleData@@@Z ENDP ; CGraphMove::GraphMoving
; Function compile flags: /Ogtp
; File D:\git\src\IBK\IBK_DRFN\ProjSrc\SrcChartEx\ChartOCX\ChartObject\GraphMove.cpp
; File C:\Program Files (x86)\Microsoft Visual Studio\2019\Community\VC\Tools\MSVC\14.29.30133\atlmfc\include\afxwin1.inl
; File D:\git\src\IBK\IBK_DRFN\ProjSrc\SrcChartEx\ChartOCX\Include_Chart\Dll_Load\IMetaTable.h
; File C:\Program Files (x86)\Microsoft Visual Studio\2019\Community\VC\Tools\MSVC\14.29.30133\atlmfc\include\afxwin1.inl
; File D:\git\src\IBK\IBK_DRFN\ProjSrc\SrcChartEx\ChartOCX\ChartObject\GraphMove.cpp
; File D:\git\src\IBK\IBK_DRFN\ProjSrc\SrcChartEx\ChartOCX\Include_Chart\Dll_Load\IMetaTable.h
; File C:\Program Files (x86)\Microsoft Visual Studio\2019\Community\VC\Tools\MSVC\14.29.30133\atlmfc\include\afxwin1.inl
; File D:\git\src\IBK\IBK_DRFN\ProjSrc\SrcChartEx\ChartOCX\ChartObject\GraphMove.cpp
;	COMDAT ?LoadDialog_GraphMoving@CGraphMove@@AAE_NPAVCMainBlock@@PAVCGraphImp@@ABVCVerticalScaleGroupDataList@@ABV?$CStringT@DV?$StrTraitMFC_DLL@DV?$ChTraitsCRT@D@ATL@@@@@ATL@@AAVCMovingGraphVertScaleData@@@Z
_TEXT	SEGMENT
_dlg$ = -568						; size = 456
$T2 = -112						; size = 96
_this$1$ = -16						; size = 4
__$EHRec$ = -12						; size = 12
_pMainBlock$ = 8					; size = 4
_pSourceGraph$ = 12					; size = 4
___mlrs__$ = 16						; size = 4
_vertScaleGroupDataList$ = 16				; size = 4
_strOCXPath$ = 20					; size = 4
_movingVertScaleData$ = 24				; size = 4
?LoadDialog_GraphMoving@CGraphMove@@AAE_NPAVCMainBlock@@PAVCGraphImp@@ABVCVerticalScaleGroupDataList@@ABV?$CStringT@DV?$StrTraitMFC_DLL@DV?$ChTraitsCRT@D@ATL@@@@@ATL@@AAVCMovingGraphVertScaleData@@@Z PROC ; CGraphMove::LoadDialog_GraphMoving, COMDAT
; _this$ = ecx

; 298  : {

  00000	55		 push	 ebp
  00001	8b ec		 mov	 ebp, esp
  00003	6a ff		 push	 -1
  00005	68 00 00 00 00	 push	 __ehhandler$?LoadDialog_GraphMoving@CGraphMove@@AAE_NPAVCMainBlock@@PAVCGraphImp@@ABVCVerticalScaleGroupDataList@@ABV?$CStringT@DV?$StrTraitMFC_DLL@DV?$ChTraitsCRT@D@ATL@@@@@ATL@@AAVCMovingGraphVertScaleData@@@Z
  0000a	64 a1 00 00 00
	00		 mov	 eax, DWORD PTR fs:0
  00010	50		 push	 eax
  00011	81 ec 2c 02 00
	00		 sub	 esp, 556		; 0000022cH
  00017	53		 push	 ebx
  00018	56		 push	 esi
  00019	57		 push	 edi
  0001a	a1 00 00 00 00	 mov	 eax, DWORD PTR ___security_cookie
  0001f	33 c5		 xor	 eax, ebp
  00021	50		 push	 eax
  00022	8d 45 f4	 lea	 eax, DWORD PTR __$EHRec$[ebp]
  00025	64 a3 00 00 00
	00		 mov	 DWORD PTR fs:0, eax
  0002b	8b f1		 mov	 esi, ecx
  0002d	89 75 f0	 mov	 DWORD PTR _this$1$[ebp], esi

; 299  : 	if(vertScaleGroupDataList.GetCount() <= 0)

  00030	8b 5d 10	 mov	 ebx, DWORD PTR _vertScaleGroupDataList$[ebp]
  00033	8b cb		 mov	 ecx, ebx
  00035	e8 00 00 00 00	 call	 ?GetCount@CVerticalScaleGroupDataList@@QBEHXZ ; CVerticalScaleGroupDataList::GetCount
  0003a	85 c0		 test	 eax, eax
  0003c	7f 16		 jg	 SHORT $LN2@LoadDialog

; 300  : 		return false;

  0003e	32 c0		 xor	 al, al

; 311  : }

  00040	8b 4d f4	 mov	 ecx, DWORD PTR __$EHRec$[ebp]
  00043	64 89 0d 00 00
	00 00		 mov	 DWORD PTR fs:0, ecx
  0004a	59		 pop	 ecx
  0004b	5f		 pop	 edi
  0004c	5e		 pop	 esi
  0004d	5b		 pop	 ebx
  0004e	8b e5		 mov	 esp, ebp
  00050	5d		 pop	 ebp
  00051	c2 14 00	 ret	 20			; 00000014H
$LN2@LoadDialog:

; 301  : 
; 302  : 	// (2007/6/27 - Seung-Won, Bae) Show UI Directly.
; 303  : 	//	CChartObjectWrapperHelper wrapperHelper(strOCXPath);
; 304  : 	//	return wrapperHelper.MoveGraph(m_pParent, vertScaleGroupDataList, movingVertScaleData);
; 305  : 	ML_SET_LANGUAGE_RES();

  00054	e8 00 00 00 00	 call	 ?AfxGetStaticModuleState@@YGPAVAFX_MODULE_STATE@@XZ ; AfxGetStaticModuleState
  00059	b9 00 00 00 00	 mov	 ecx, OFFSET ?g_iMetaTable@@3VIMetaTable@@A ; g_iMetaTable
  0005e	8b 40 08	 mov	 eax, DWORD PTR [eax+8]
  00061	50		 push	 eax
  00062	ff 76 08	 push	 DWORD PTR [esi+8]
  00065	e8 00 00 00 00	 call	 ?LoadResourceDLL@IMetaTable@@QAEPAUHINSTANCE__@@PAUHWND__@@PAU2@@Z ; IMetaTable::LoadResourceDLL
  0006a	8b f8		 mov	 edi, eax
; File C:\Program Files (x86)\Microsoft Visual Studio\2019\Community\VC\Tools\MSVC\14.29.30133\atlmfc\include\afxwin1.inl

; 25   : 		return afxCurrentResourceHandle; }

  0006c	e8 00 00 00 00	 call	 ?AfxGetModuleState@@YGPAVAFX_MODULE_STATE@@XZ ; AfxGetModuleState
; File D:\git\src\IBK\IBK_DRFN\ProjSrc\SrcChartEx\ChartOCX\Include_Chart\Dll_Load\IMetaTable.h

; 1032 : 		m_hInstance = AfxGetResourceHandle();

  00071	8b 70 0c	 mov	 esi, DWORD PTR [eax+12]
  00074	89 75 10	 mov	 DWORD PTR ___mlrs__$[ebp], esi
; File C:\Program Files (x86)\Microsoft Visual Studio\2019\Community\VC\Tools\MSVC\14.29.30133\atlmfc\include\afxwin1.inl

; 27   : 	{ ASSERT(hInstResource != NULL); afxCurrentResourceHandle = hInstResource; }

  00077	e8 00 00 00 00	 call	 ?AfxGetModuleState@@YGPAVAFX_MODULE_STATE@@XZ ; AfxGetModuleState
  0007c	89 78 0c	 mov	 DWORD PTR [eax+12], edi
; File D:\git\src\IBK\IBK_DRFN\ProjSrc\SrcChartEx\ChartOCX\ChartObject\GraphMove.cpp

; 306  : 	CDlgGraphMove dlg( m_pParent, pSourceGraph, vertScaleGroupDataList, pMainBlock->GetIChartCtrl());

  0007f	8b 4d 08	 mov	 ecx, DWORD PTR _pMainBlock$[ebp]
  00082	c7 45 fc 00 00
	00 00		 mov	 DWORD PTR __$EHRec$[ebp+8], 0
  00089	8b 01		 mov	 eax, DWORD PTR [ecx]
  0008b	ff 90 18 01 00
	00		 call	 DWORD PTR [eax+280]
  00091	50		 push	 eax
  00092	8b 45 f0	 mov	 eax, DWORD PTR _this$1$[ebp]
  00095	8d 8d c8 fd ff
	ff		 lea	 ecx, DWORD PTR _dlg$[ebp]
  0009b	53		 push	 ebx
  0009c	ff 75 0c	 push	 DWORD PTR _pSourceGraph$[ebp]
  0009f	ff 30		 push	 DWORD PTR [eax]
  000a1	e8 00 00 00 00	 call	 ??0CDlgGraphMove@@QAE@PAVCWnd@@PAVCGraphImp@@ABVCVerticalScaleGroupDataList@@PAUIChartCtrl@@@Z ; CDlgGraphMove::CDlgGraphMove

; 307  : 	if( IDOK != dlg.DoModal()) return false;

  000a6	8d 8d c8 fd ff
	ff		 lea	 ecx, DWORD PTR _dlg$[ebp]
  000ac	c6 45 fc 01	 mov	 BYTE PTR __$EHRec$[ebp+8], 1
  000b0	e8 00 00 00 00	 call	 ?DoModal@CDialog@@UAEHXZ ; CDialog::DoModal
  000b5	83 f8 01	 cmp	 eax, 1
  000b8	74 04		 je	 SHORT $LN3@LoadDialog
  000ba	32 db		 xor	 bl, bl
  000bc	eb 32		 jmp	 SHORT $LN8@LoadDialog
$LN3@LoadDialog:

; 308  : 
; 309  : 	movingVertScaleData = dlg.GetMovingGraphVertScaleData();

  000be	8d 45 90	 lea	 eax, DWORD PTR $T2[ebp]
  000c1	50		 push	 eax
  000c2	8d 8d c8 fd ff
	ff		 lea	 ecx, DWORD PTR _dlg$[ebp]
  000c8	e8 00 00 00 00	 call	 ?GetMovingGraphVertScaleData@CDlgGraphMove@@QBE?AVCMovingGraphVertScaleData@@XZ ; CDlgGraphMove::GetMovingGraphVertScaleData
  000cd	8b 55 18	 mov	 edx, DWORD PTR _movingVertScaleData$[ebp]
  000d0	8b 08		 mov	 ecx, DWORD PTR [eax]
  000d2	83 c0 08	 add	 eax, 8
  000d5	50		 push	 eax
  000d6	c6 45 fc 03	 mov	 BYTE PTR __$EHRec$[ebp+8], 3
  000da	89 0a		 mov	 DWORD PTR [edx], ecx
  000dc	8d 4a 08	 lea	 ecx, DWORD PTR [edx+8]
  000df	ff 15 00 00 00
	00		 call	 DWORD PTR __imp_??4CVerticalScale@@QAEAAV0@ABV0@@Z
  000e5	8d 4d 98	 lea	 ecx, DWORD PTR $T2[ebp+8]
  000e8	ff 15 00 00 00
	00		 call	 DWORD PTR __imp_??1CVerticalScale@@QAE@XZ

; 310  : 	return true;

  000ee	b3 01		 mov	 bl, 1
$LN8@LoadDialog:
  000f0	8d 8d f0 fe ff
	ff		 lea	 ecx, DWORD PTR _dlg$[ebp+296]
  000f6	e8 00 00 00 00	 call	 ??1CComboBox@@UAE@XZ	; CComboBox::~CComboBox
  000fb	8d 8d 70 fe ff
	ff		 lea	 ecx, DWORD PTR _dlg$[ebp+168]
  00101	e8 00 00 00 00	 call	 ??1CComboBox@@UAE@XZ	; CComboBox::~CComboBox
  00106	8d 8d c8 fd ff
	ff		 lea	 ecx, DWORD PTR _dlg$[ebp]
  0010c	e8 00 00 00 00	 call	 ??1CDialog@@UAE@XZ	; CDialog::~CDialog
; File D:\git\src\IBK\IBK_DRFN\ProjSrc\SrcChartEx\ChartOCX\Include_Chart\Dll_Load\IMetaTable.h

; 1036 : 	{

  00111	c7 45 fc 04 00
	00 00		 mov	 DWORD PTR __$EHRec$[ebp+8], 4
; File C:\Program Files (x86)\Microsoft Visual Studio\2019\Community\VC\Tools\MSVC\14.29.30133\atlmfc\include\afxwin1.inl

; 27   : 	{ ASSERT(hInstResource != NULL); afxCurrentResourceHandle = hInstResource; }

  00118	e8 00 00 00 00	 call	 ?AfxGetModuleState@@YGPAVAFX_MODULE_STATE@@XZ ; AfxGetModuleState
  0011d	89 70 0c	 mov	 DWORD PTR [eax+12], esi
; File D:\git\src\IBK\IBK_DRFN\ProjSrc\SrcChartEx\ChartOCX\ChartObject\GraphMove.cpp

; 310  : 	return true;

  00120	8a c3		 mov	 al, bl

; 311  : }

  00122	8b 4d f4	 mov	 ecx, DWORD PTR __$EHRec$[ebp]
  00125	64 89 0d 00 00
	00 00		 mov	 DWORD PTR fs:0, ecx
  0012c	59		 pop	 ecx
  0012d	5f		 pop	 edi
  0012e	5e		 pop	 esi
  0012f	5b		 pop	 ebx
  00130	8b e5		 mov	 esp, ebp
  00132	5d		 pop	 ebp
  00133	c2 14 00	 ret	 20			; 00000014H
_TEXT	ENDS
;	COMDAT text$x
text$x	SEGMENT
__unwindfunclet$?LoadDialog_GraphMoving@CGraphMove@@AAE_NPAVCMainBlock@@PAVCGraphImp@@ABVCVerticalScaleGroupDataList@@ABV?$CStringT@DV?$StrTraitMFC_DLL@DV?$ChTraitsCRT@D@ATL@@@@@ATL@@AAVCMovingGraphVertScaleData@@@Z$0:
  00000	8d 4d 10	 lea	 ecx, DWORD PTR ___mlrs__$[ebp]
  00003	e9 00 00 00 00	 jmp	 ??1CMultiLanguageResourceSetter@@QAE@XZ ; CMultiLanguageResourceSetter::~CMultiLanguageResourceSetter
__unwindfunclet$?LoadDialog_GraphMoving@CGraphMove@@AAE_NPAVCMainBlock@@PAVCGraphImp@@ABVCVerticalScaleGroupDataList@@ABV?$CStringT@DV?$StrTraitMFC_DLL@DV?$ChTraitsCRT@D@ATL@@@@@ATL@@AAVCMovingGraphVertScaleData@@@Z$1:
  00008	8d 8d c8 fd ff
	ff		 lea	 ecx, DWORD PTR _dlg$[ebp]
  0000e	e9 00 00 00 00	 jmp	 ??1CDlgGraphMove@@UAE@XZ
__unwindfunclet$?LoadDialog_GraphMoving@CGraphMove@@AAE_NPAVCMainBlock@@PAVCGraphImp@@ABVCVerticalScaleGroupDataList@@ABV?$CStringT@DV?$StrTraitMFC_DLL@DV?$ChTraitsCRT@D@ATL@@@@@ATL@@AAVCMovingGraphVertScaleData@@@Z$2:
  00013	8d 4d 90	 lea	 ecx, DWORD PTR $T2[ebp]
  00016	e9 00 00 00 00	 jmp	 ??1CMovingGraphVertScaleData@@QAE@XZ
  0001b	cc		 int	 3
  0001c	cc		 int	 3
  0001d	cc		 int	 3
  0001e	cc		 int	 3
  0001f	cc		 int	 3
__ehhandler$?LoadDialog_GraphMoving@CGraphMove@@AAE_NPAVCMainBlock@@PAVCGraphImp@@ABVCVerticalScaleGroupDataList@@ABV?$CStringT@DV?$StrTraitMFC_DLL@DV?$ChTraitsCRT@D@ATL@@@@@ATL@@AAVCMovingGraphVertScaleData@@@Z:
  00020	90		 npad	 1
  00021	90		 npad	 1
  00022	8b 54 24 08	 mov	 edx, DWORD PTR [esp+8]
  00026	8d 42 0c	 lea	 eax, DWORD PTR [edx+12]
  00029	8b 8a c4 fd ff
	ff		 mov	 ecx, DWORD PTR [edx-572]
  0002f	33 c8		 xor	 ecx, eax
  00031	e8 00 00 00 00	 call	 @__security_check_cookie@4
  00036	b8 00 00 00 00	 mov	 eax, OFFSET __ehfuncinfo$?LoadDialog_GraphMoving@CGraphMove@@AAE_NPAVCMainBlock@@PAVCGraphImp@@ABVCVerticalScaleGroupDataList@@ABV?$CStringT@DV?$StrTraitMFC_DLL@DV?$ChTraitsCRT@D@ATL@@@@@ATL@@AAVCMovingGraphVertScaleData@@@Z
  0003b	e9 00 00 00 00	 jmp	 ___CxxFrameHandler3
text$x	ENDS
?LoadDialog_GraphMoving@CGraphMove@@AAE_NPAVCMainBlock@@PAVCGraphImp@@ABVCVerticalScaleGroupDataList@@ABV?$CStringT@DV?$StrTraitMFC_DLL@DV?$ChTraitsCRT@D@ATL@@@@@ATL@@AAVCMovingGraphVertScaleData@@@Z ENDP ; CGraphMove::LoadDialog_GraphMoving
; Function compile flags: /Ogtp
; File D:\git\src\IBK\IBK_DRFN\ProjSrc\SrcChartEx\ChartOCX\ChartObject\GraphMove.cpp
; File C:\Program Files (x86)\Microsoft Visual Studio\2019\Community\VC\Tools\MSVC\14.29.30133\atlmfc\include\afxwin1.inl
; File D:\git\src\IBK\IBK_DRFN\ProjSrc\SrcChartEx\ChartOCX\Include_Chart\Dll_Load\IMetaTable.h
; File C:\Program Files (x86)\Microsoft Visual Studio\2019\Community\VC\Tools\MSVC\14.29.30133\atlmfc\include\afxwin1.inl
; File D:\git\src\IBK\IBK_DRFN\ProjSrc\SrcChartEx\ChartOCX\ChartObject\GraphMove.cpp
; File D:\git\src\IBK\IBK_DRFN\ProjSrc\SrcChartEx\ChartOCX\Include_Chart\Dll_Load\IMetaTable.h
; File C:\Program Files (x86)\Microsoft Visual Studio\2019\Community\VC\Tools\MSVC\14.29.30133\atlmfc\include\afxwin1.inl
; File D:\git\src\IBK\IBK_DRFN\ProjSrc\SrcChartEx\ChartOCX\ChartObject\GraphMove.cpp
; File D:\git\src\IBK\IBK_DRFN\ProjSrc\SrcChartEx\ChartOCX\Include_Chart\Dll_Load\IMetaTable.h
; File C:\Program Files (x86)\Microsoft Visual Studio\2019\Community\VC\Tools\MSVC\14.29.30133\atlmfc\include\afxwin1.inl
; File D:\git\src\IBK\IBK_DRFN\ProjSrc\SrcChartEx\ChartOCX\ChartObject\GraphMove.cpp
;	COMDAT ?LoadDialog_GraphMoving@CGraphMove@@AAE_NPAVCMainBlock@@PAVCGraphImp@@ABVCPoint@@@Z
_TEXT	SEGMENT
_dlg$2 = -828						; size = 456
$T3 = -372						; size = 96
_movingGraphVertScale$4 = -276				; size = 88
_movingVertScaleData$ = -188				; size = 96
$T5 = -92						; size = 8
_dataList$ = -84					; size = 32
_vertScaleGroupDataList$6 = -52				; size = 32
___mlrs__$7 = -20					; size = 4
_this$1$ = -16						; size = 4
__$EHRec$ = -12						; size = 12
_targetVertScaleGroupList$1$ = 8			; size = 4
$T8 = 8							; size = 4
$T9 = 8							; size = 4
_pMainBlock$ = 8					; size = 4
_pSourceGraph$ = 12					; size = 4
_pTargetBlock$1$ = 16					; size = 4
_targetPoint$ = 16					; size = 4
?LoadDialog_GraphMoving@CGraphMove@@AAE_NPAVCMainBlock@@PAVCGraphImp@@ABVCPoint@@@Z PROC ; CGraphMove::LoadDialog_GraphMoving, COMDAT
; _this$ = ecx

; 282  : {

  00000	55		 push	 ebp
  00001	8b ec		 mov	 ebp, esp
  00003	6a ff		 push	 -1
  00005	68 00 00 00 00	 push	 __ehhandler$?LoadDialog_GraphMoving@CGraphMove@@AAE_NPAVCMainBlock@@PAVCGraphImp@@ABVCPoint@@@Z
  0000a	64 a1 00 00 00
	00		 mov	 eax, DWORD PTR fs:0
  00010	50		 push	 eax
  00011	81 ec 30 03 00
	00		 sub	 esp, 816		; 00000330H
  00017	53		 push	 ebx
  00018	56		 push	 esi
  00019	57		 push	 edi
  0001a	a1 00 00 00 00	 mov	 eax, DWORD PTR ___security_cookie
  0001f	33 c5		 xor	 eax, ebp
  00021	50		 push	 eax
  00022	8d 45 f4	 lea	 eax, DWORD PTR __$EHRec$[ebp]
  00025	64 a3 00 00 00
	00		 mov	 DWORD PTR fs:0, eax
  0002b	89 4d f0	 mov	 DWORD PTR _this$1$[ebp], ecx

; 283  : 	assert(pMainBlock != NULL && pSourceGraph != NULL);
; 284  : 
; 285  : 	CBlockImp* pTargetBlock = ( CBlockImp *)pMainBlock->GetBlock( pMainBlock->FindBlockIndex( targetPoint));

  0002e	8b 5d 08	 mov	 ebx, DWORD PTR _pMainBlock$[ebp]
  00031	8d 45 a4	 lea	 eax, DWORD PTR $T5[ebp]
  00034	ff 75 10	 push	 DWORD PTR _targetPoint$[ebp]
  00037	8b cb		 mov	 ecx, ebx
  00039	50		 push	 eax
  0003a	8b 33		 mov	 esi, DWORD PTR [ebx]
  0003c	ff 56 04	 call	 DWORD PTR [esi+4]
  0003f	50		 push	 eax
  00040	8b cb		 mov	 ecx, ebx
  00042	ff 56 08	 call	 DWORD PTR [esi+8]
  00045	8b f8		 mov	 edi, eax
  00047	89 7d 10	 mov	 DWORD PTR _pTargetBlock$1$[ebp], edi

; 286  : 	if(pTargetBlock == NULL)

  0004a	85 ff		 test	 edi, edi
  0004c	75 16		 jne	 SHORT $LN2@LoadDialog

; 287  : 		return false;

  0004e	32 c0		 xor	 al, al

; 295  : }

  00050	8b 4d f4	 mov	 ecx, DWORD PTR __$EHRec$[ebp]
  00053	64 89 0d 00 00
	00 00		 mov	 DWORD PTR fs:0, ecx
  0005a	59		 pop	 ecx
  0005b	5f		 pop	 edi
  0005c	5e		 pop	 esi
  0005d	5b		 pop	 ebx
  0005e	8b e5		 mov	 esp, ebp
  00060	5d		 pop	 ebp
  00061	c2 0c 00	 ret	 12			; 0000000cH
$LN2@LoadDialog:

; 288  : 
; 289  : 	CVerticalScaleGroupDataList dataList = GetVertScaleGroupDataList(pSourceGraph, pTargetBlock->GetVertScaleGroupList());

  00064	8b cf		 mov	 ecx, edi
  00066	e8 00 00 00 00	 call	 ?GetVertScaleGroupList@CBlockImp@@QAEAAVCVertScaleGroupList@@XZ ; CBlockImp::GetVertScaleGroupList

; 236  : 	if(pSourceGraph == NULL)

  0006b	8b 75 0c	 mov	 esi, DWORD PTR _pSourceGraph$[ebp]

; 288  : 
; 289  : 	CVerticalScaleGroupDataList dataList = GetVertScaleGroupDataList(pSourceGraph, pTargetBlock->GetVertScaleGroupList());

  0006e	89 45 08	 mov	 DWORD PTR _targetVertScaleGroupList$1$[ebp], eax

; 236  : 	if(pSourceGraph == NULL)

  00071	85 f6		 test	 esi, esi
  00073	75 0d		 jne	 SHORT $LN10@LoadDialog

; 237  : 		return CVerticalScaleGroupDataList();

  00075	8d 4d ac	 lea	 ecx, DWORD PTR _dataList$[ebp]
  00078	e8 00 00 00 00	 call	 ??0CVerticalScaleGroupDataList@@QAE@XZ ; CVerticalScaleGroupDataList::CVerticalScaleGroupDataList
  0007d	e9 96 00 00 00	 jmp	 $LN9@LoadDialog
$LN10@LoadDialog:

; 238  : 
; 239  : 	CVerticalScaleGroupDataList vertScaleGroupDataList;

  00082	8d 4d cc	 lea	 ecx, DWORD PTR _vertScaleGroupDataList$6[ebp]
  00085	e8 00 00 00 00	 call	 ??0CVerticalScaleGroupDataList@@QAE@XZ ; CVerticalScaleGroupDataList::CVerticalScaleGroupDataList

; 240  : 	targetVertScaleGroupList.GetVertScaleGroupDataList( vertScaleGroupDataList);

  0008a	8b 4d 08	 mov	 ecx, DWORD PTR _targetVertScaleGroupList$1$[ebp]
  0008d	8d 45 cc	 lea	 eax, DWORD PTR _vertScaleGroupDataList$6[ebp]
  00090	50		 push	 eax
  00091	c7 45 fc 00 00
	00 00		 mov	 DWORD PTR __$EHRec$[ebp+8], 0
  00098	e8 00 00 00 00	 call	 ?GetVertScaleGroupDataList@CVertScaleGroupList@@QBE_NAAVCVerticalScaleGroupDataList@@@Z ; CVertScaleGroupList::GetVertScaleGroupDataList

; 241  : 	CVerticalScale movingGraphVertScale = pSourceGraph->GetVertScaleGroup()->GetVertScale();

  0009d	8b ce		 mov	 ecx, esi
  0009f	e8 00 00 00 00	 call	 ?GetVertScaleGroup@CGraphImp@@QBEPAVCVertScaleGroup@@XZ ; CGraphImp::GetVertScaleGroup
  000a4	8b c8		 mov	 ecx, eax
  000a6	e8 00 00 00 00	 call	 ?GetVertScale@CVertScaleGroup@@QAEAAVCVerticalScale@@XZ ; CVertScaleGroup::GetVertScale
  000ab	50		 push	 eax
  000ac	8d 8d ec fe ff
	ff		 lea	 ecx, DWORD PTR _movingGraphVertScale$4[ebp]
  000b2	ff 15 00 00 00
	00		 call	 DWORD PTR __imp_??0CVerticalScale@@QAE@ABV0@@Z

; 242  : 	vertScaleGroupDataList.AddTail(CVerticalScaleGroupData(movingGraphVertScale, "New Scale"));

  000b8	68 00 00 00 00	 push	 OFFSET ??_C@_09GNIPIPGA@New?5Scale@
  000bd	8d 4d 08	 lea	 ecx, DWORD PTR $T8[ebp]
  000c0	c6 45 fc 01	 mov	 BYTE PTR __$EHRec$[ebp+8], 1
  000c4	ff 15 00 00 00
	00		 call	 DWORD PTR __imp_??0?$CStringT@DV?$StrTraitMFC_DLL@DV?$ChTraitsCRT@D@ATL@@@@@ATL@@QAE@PBD@Z
  000ca	83 ec 60	 sub	 esp, 96			; 00000060H
  000cd	c6 45 fc 02	 mov	 BYTE PTR __$EHRec$[ebp+8], 2
  000d1	8b cc		 mov	 ecx, esp
  000d3	8d 45 08	 lea	 eax, DWORD PTR $T8[ebp]
  000d6	50		 push	 eax
  000d7	8d 85 ec fe ff
	ff		 lea	 eax, DWORD PTR _movingGraphVertScale$4[ebp]
  000dd	50		 push	 eax
  000de	e8 00 00 00 00	 call	 ??0CVerticalScaleGroupData@@QAE@ABVCVerticalScale@@ABV?$CStringT@DV?$StrTraitMFC_DLL@DV?$ChTraitsCRT@D@ATL@@@@@ATL@@@Z ; CVerticalScaleGroupData::CVerticalScaleGroupData
  000e3	8d 4d cc	 lea	 ecx, DWORD PTR _vertScaleGroupDataList$6[ebp]
  000e6	e8 00 00 00 00	 call	 ?AddTail@CVerticalScaleGroupDataList@@QAEXVCVerticalScaleGroupData@@@Z ; CVerticalScaleGroupDataList::AddTail
  000eb	8d 4d 08	 lea	 ecx, DWORD PTR $T8[ebp]
  000ee	c6 45 fc 01	 mov	 BYTE PTR __$EHRec$[ebp+8], 1
  000f2	ff 15 00 00 00
	00		 call	 DWORD PTR __imp_??1?$CStringT@DV?$StrTraitMFC_DLL@DV?$ChTraitsCRT@D@ATL@@@@@ATL@@QAE@XZ

; 243  : 
; 244  : 	return vertScaleGroupDataList;

  000f8	8d 45 cc	 lea	 eax, DWORD PTR _vertScaleGroupDataList$6[ebp]
  000fb	50		 push	 eax
  000fc	8d 4d ac	 lea	 ecx, DWORD PTR _dataList$[ebp]
  000ff	e8 00 00 00 00	 call	 ??0CVerticalScaleGroupDataList@@QAE@ABV0@@Z ; CVerticalScaleGroupDataList::CVerticalScaleGroupDataList
  00104	8d 8d ec fe ff
	ff		 lea	 ecx, DWORD PTR _movingGraphVertScale$4[ebp]
  0010a	ff 15 00 00 00
	00		 call	 DWORD PTR __imp_??1CVerticalScale@@QAE@XZ
  00110	8d 4d d0	 lea	 ecx, DWORD PTR _vertScaleGroupDataList$6[ebp+4]
  00113	e8 00 00 00 00	 call	 ??1?$CList@VCVerticalScaleGroupData@@AAV1@@@UAE@XZ ; CList<CVerticalScaleGroupData,CVerticalScaleGroupData &>::~CList<CVerticalScaleGroupData,CVerticalScaleGroupData &>
$LN9@LoadDialog:

; 290  : 	CMovingGraphVertScaleData movingVertScaleData;

  00118	8d 8d 44 ff ff
	ff		 lea	 ecx, DWORD PTR _movingVertScaleData$[ebp]
  0011e	c7 45 fc 03 00
	00 00		 mov	 DWORD PTR __$EHRec$[ebp+8], 3
  00125	e8 00 00 00 00	 call	 ??0CMovingGraphVertScaleData@@QAE@XZ ; CMovingGraphVertScaleData::CMovingGraphVertScaleData

; 291  : 	if(!LoadDialog_GraphMoving( pMainBlock, pSourceGraph, dataList, pMainBlock->GetOCXPath(), movingVertScaleData))

  0012a	8b 03		 mov	 eax, DWORD PTR [ebx]
  0012c	8d 4d 08	 lea	 ecx, DWORD PTR $T9[ebp]
  0012f	51		 push	 ecx
  00130	8b cb		 mov	 ecx, ebx
  00132	c6 45 fc 04	 mov	 BYTE PTR __$EHRec$[ebp+8], 4
  00136	ff 90 50 02 00
	00		 call	 DWORD PTR [eax+592]

; 299  : 	if(vertScaleGroupDataList.GetCount() <= 0)

  0013c	8d 4d ac	 lea	 ecx, DWORD PTR _dataList$[ebp]

; 291  : 	if(!LoadDialog_GraphMoving( pMainBlock, pSourceGraph, dataList, pMainBlock->GetOCXPath(), movingVertScaleData))

  0013f	c6 45 fc 05	 mov	 BYTE PTR __$EHRec$[ebp+8], 5

; 299  : 	if(vertScaleGroupDataList.GetCount() <= 0)

  00143	e8 00 00 00 00	 call	 ?GetCount@CVerticalScaleGroupDataList@@QBEHXZ ; CVerticalScaleGroupDataList::GetCount
  00148	85 c0		 test	 eax, eax
  0014a	7f 07		 jg	 SHORT $LN22@LoadDialog

; 300  : 		return false;

  0014c	b3 01		 mov	 bl, 1
  0014e	e9 05 01 00 00	 jmp	 $LN21@LoadDialog
$LN22@LoadDialog:

; 301  : 
; 302  : 	// (2007/6/27 - Seung-Won, Bae) Show UI Directly.
; 303  : 	//	CChartObjectWrapperHelper wrapperHelper(strOCXPath);
; 304  : 	//	return wrapperHelper.MoveGraph(m_pParent, vertScaleGroupDataList, movingVertScaleData);
; 305  : 	ML_SET_LANGUAGE_RES();

  00153	e8 00 00 00 00	 call	 ?AfxGetStaticModuleState@@YGPAVAFX_MODULE_STATE@@XZ ; AfxGetStaticModuleState
  00158	b9 00 00 00 00	 mov	 ecx, OFFSET ?g_iMetaTable@@3VIMetaTable@@A ; g_iMetaTable
  0015d	8b 40 08	 mov	 eax, DWORD PTR [eax+8]
  00160	50		 push	 eax
  00161	8b 45 f0	 mov	 eax, DWORD PTR _this$1$[ebp]
  00164	ff 70 08	 push	 DWORD PTR [eax+8]
  00167	e8 00 00 00 00	 call	 ?LoadResourceDLL@IMetaTable@@QAEPAUHINSTANCE__@@PAUHWND__@@PAU2@@Z ; IMetaTable::LoadResourceDLL
  0016c	8b f8		 mov	 edi, eax
; File C:\Program Files (x86)\Microsoft Visual Studio\2019\Community\VC\Tools\MSVC\14.29.30133\atlmfc\include\afxwin1.inl

; 25   : 		return afxCurrentResourceHandle; }

  0016e	e8 00 00 00 00	 call	 ?AfxGetModuleState@@YGPAVAFX_MODULE_STATE@@XZ ; AfxGetModuleState
; File D:\git\src\IBK\IBK_DRFN\ProjSrc\SrcChartEx\ChartOCX\Include_Chart\Dll_Load\IMetaTable.h

; 1032 : 		m_hInstance = AfxGetResourceHandle();

  00173	8b 70 0c	 mov	 esi, DWORD PTR [eax+12]
  00176	89 75 ec	 mov	 DWORD PTR ___mlrs__$7[ebp], esi
; File C:\Program Files (x86)\Microsoft Visual Studio\2019\Community\VC\Tools\MSVC\14.29.30133\atlmfc\include\afxwin1.inl

; 27   : 	{ ASSERT(hInstResource != NULL); afxCurrentResourceHandle = hInstResource; }

  00179	e8 00 00 00 00	 call	 ?AfxGetModuleState@@YGPAVAFX_MODULE_STATE@@XZ ; AfxGetModuleState
  0017e	89 78 0c	 mov	 DWORD PTR [eax+12], edi
; File D:\git\src\IBK\IBK_DRFN\ProjSrc\SrcChartEx\ChartOCX\ChartObject\GraphMove.cpp

; 306  : 	CDlgGraphMove dlg( m_pParent, pSourceGraph, vertScaleGroupDataList, pMainBlock->GetIChartCtrl());

  00181	8b 03		 mov	 eax, DWORD PTR [ebx]
  00183	8b cb		 mov	 ecx, ebx
  00185	c6 45 fc 06	 mov	 BYTE PTR __$EHRec$[ebp+8], 6
  00189	ff 90 18 01 00
	00		 call	 DWORD PTR [eax+280]
  0018f	50		 push	 eax
  00190	8d 45 ac	 lea	 eax, DWORD PTR _dataList$[ebp]
  00193	50		 push	 eax
  00194	8b 45 f0	 mov	 eax, DWORD PTR _this$1$[ebp]
  00197	8d 8d c4 fc ff
	ff		 lea	 ecx, DWORD PTR _dlg$2[ebp]
  0019d	ff 75 0c	 push	 DWORD PTR _pSourceGraph$[ebp]
  001a0	ff 30		 push	 DWORD PTR [eax]
  001a2	e8 00 00 00 00	 call	 ??0CDlgGraphMove@@QAE@PAVCWnd@@PAVCGraphImp@@ABVCVerticalScaleGroupDataList@@PAUIChartCtrl@@@Z ; CDlgGraphMove::CDlgGraphMove

; 307  : 	if( IDOK != dlg.DoModal()) return false;

  001a7	8d 8d c4 fc ff
	ff		 lea	 ecx, DWORD PTR _dlg$2[ebp]
  001ad	c6 45 fc 07	 mov	 BYTE PTR __$EHRec$[ebp+8], 7
  001b1	e8 00 00 00 00	 call	 ?DoModal@CDialog@@UAEHXZ ; CDialog::DoModal
  001b6	83 f8 01	 cmp	 eax, 1
  001b9	74 2e		 je	 SHORT $LN23@LoadDialog
  001bb	8d 8d ec fd ff
	ff		 lea	 ecx, DWORD PTR _dlg$2[ebp+296]
  001c1	e8 00 00 00 00	 call	 ??1CComboBox@@UAE@XZ	; CComboBox::~CComboBox
  001c6	8d 8d 6c fd ff
	ff		 lea	 ecx, DWORD PTR _dlg$2[ebp+168]
  001cc	e8 00 00 00 00	 call	 ??1CComboBox@@UAE@XZ	; CComboBox::~CComboBox
  001d1	8d 8d c4 fc ff
	ff		 lea	 ecx, DWORD PTR _dlg$2[ebp]
  001d7	e8 00 00 00 00	 call	 ??1CDialog@@UAE@XZ	; CDialog::~CDialog
; File D:\git\src\IBK\IBK_DRFN\ProjSrc\SrcChartEx\ChartOCX\Include_Chart\Dll_Load\IMetaTable.h

; 1036 : 	{

  001dc	c6 45 fc 08	 mov	 BYTE PTR __$EHRec$[ebp+8], 8
; File C:\Program Files (x86)\Microsoft Visual Studio\2019\Community\VC\Tools\MSVC\14.29.30133\atlmfc\include\afxwin1.inl

; 27   : 	{ ASSERT(hInstResource != NULL); afxCurrentResourceHandle = hInstResource; }

  001e0	e8 00 00 00 00	 call	 ?AfxGetModuleState@@YGPAVAFX_MODULE_STATE@@XZ ; AfxGetModuleState
; File D:\git\src\IBK\IBK_DRFN\ProjSrc\SrcChartEx\ChartOCX\ChartObject\GraphMove.cpp

; 307  : 	if( IDOK != dlg.DoModal()) return false;

  001e5	b3 01		 mov	 bl, 1
  001e7	eb 66		 jmp	 SHORT $LN68@LoadDialog
$LN23@LoadDialog:

; 308  : 
; 309  : 	movingVertScaleData = dlg.GetMovingGraphVertScaleData();

  001e9	8d 85 8c fe ff
	ff		 lea	 eax, DWORD PTR $T3[ebp]
  001ef	50		 push	 eax
  001f0	8d 8d c4 fc ff
	ff		 lea	 ecx, DWORD PTR _dlg$2[ebp]
  001f6	e8 00 00 00 00	 call	 ?GetMovingGraphVertScaleData@CDlgGraphMove@@QBE?AVCMovingGraphVertScaleData@@XZ ; CDlgGraphMove::GetMovingGraphVertScaleData
  001fb	8b 08		 mov	 ecx, DWORD PTR [eax]
  001fd	83 c0 08	 add	 eax, 8
  00200	89 8d 44 ff ff
	ff		 mov	 DWORD PTR _movingVertScaleData$[ebp], ecx
  00206	8d 8d 4c ff ff
	ff		 lea	 ecx, DWORD PTR _movingVertScaleData$[ebp+8]
  0020c	50		 push	 eax
  0020d	c6 45 fc 09	 mov	 BYTE PTR __$EHRec$[ebp+8], 9
  00211	ff 15 00 00 00
	00		 call	 DWORD PTR __imp_??4CVerticalScale@@QAEAAV0@ABV0@@Z
  00217	8d 8d 94 fe ff
	ff		 lea	 ecx, DWORD PTR $T3[ebp+8]
  0021d	ff 15 00 00 00
	00		 call	 DWORD PTR __imp_??1CVerticalScale@@QAE@XZ
  00223	8d 8d ec fd ff
	ff		 lea	 ecx, DWORD PTR _dlg$2[ebp+296]
  00229	e8 00 00 00 00	 call	 ??1CComboBox@@UAE@XZ	; CComboBox::~CComboBox
  0022e	8d 8d 6c fd ff
	ff		 lea	 ecx, DWORD PTR _dlg$2[ebp+168]
  00234	e8 00 00 00 00	 call	 ??1CComboBox@@UAE@XZ	; CComboBox::~CComboBox
  00239	8d 8d c4 fc ff
	ff		 lea	 ecx, DWORD PTR _dlg$2[ebp]
  0023f	e8 00 00 00 00	 call	 ??1CDialog@@UAE@XZ	; CDialog::~CDialog
; File D:\git\src\IBK\IBK_DRFN\ProjSrc\SrcChartEx\ChartOCX\Include_Chart\Dll_Load\IMetaTable.h

; 1036 : 	{

  00244	c6 45 fc 0a	 mov	 BYTE PTR __$EHRec$[ebp+8], 10 ; 0000000aH
; File C:\Program Files (x86)\Microsoft Visual Studio\2019\Community\VC\Tools\MSVC\14.29.30133\atlmfc\include\afxwin1.inl

; 27   : 	{ ASSERT(hInstResource != NULL); afxCurrentResourceHandle = hInstResource; }

  00248	e8 00 00 00 00	 call	 ?AfxGetModuleState@@YGPAVAFX_MODULE_STATE@@XZ ; AfxGetModuleState
; File D:\git\src\IBK\IBK_DRFN\ProjSrc\SrcChartEx\ChartOCX\ChartObject\GraphMove.cpp

; 310  : 	return true;

  0024d	32 db		 xor	 bl, bl
$LN68@LoadDialog:

; 291  : 	if(!LoadDialog_GraphMoving( pMainBlock, pSourceGraph, dataList, pMainBlock->GetOCXPath(), movingVertScaleData))

  0024f	8b 7d 10	 mov	 edi, DWORD PTR _pTargetBlock$1$[ebp]
  00252	89 70 0c	 mov	 DWORD PTR [eax+12], esi
  00255	8b 75 0c	 mov	 esi, DWORD PTR _pSourceGraph$[ebp]
$LN21@LoadDialog:
  00258	8d 4d 08	 lea	 ecx, DWORD PTR $T9[ebp]
  0025b	c6 45 fc 04	 mov	 BYTE PTR __$EHRec$[ebp+8], 4
  0025f	ff 15 00 00 00
	00		 call	 DWORD PTR __imp_??1?$CStringT@DV?$StrTraitMFC_DLL@DV?$ChTraitsCRT@D@ATL@@@@@ATL@@QAE@XZ
  00265	84 db		 test	 bl, bl
  00267	74 04		 je	 SHORT $LN3@LoadDialog
  00269	32 db		 xor	 bl, bl
  0026b	eb 1a		 jmp	 SHORT $LN8@LoadDialog
$LN3@LoadDialog:

; 292  : 		return false;
; 293  : 
; 294  : 	return GraphMoving(pSourceGraph, &pTargetBlock->GetVertScaleGroupList(), movingVertScaleData);

  0026d	8d 85 44 ff ff
	ff		 lea	 eax, DWORD PTR _movingVertScaleData$[ebp]
  00273	8b cf		 mov	 ecx, edi
  00275	50		 push	 eax
  00276	e8 00 00 00 00	 call	 ?GetVertScaleGroupList@CBlockImp@@QAEAAVCVertScaleGroupList@@XZ ; CBlockImp::GetVertScaleGroupList
  0027b	8b 4d f0	 mov	 ecx, DWORD PTR _this$1$[ebp]
  0027e	50		 push	 eax
  0027f	56		 push	 esi
  00280	e8 00 00 00 00	 call	 ?GraphMoving@CGraphMove@@AAE_NPAVCGraphImp@@PAVCVertScaleGroupList@@ABVCMovingGraphVertScaleData@@@Z ; CGraphMove::GraphMoving
  00285	8a d8		 mov	 bl, al
$LN8@LoadDialog:
  00287	8d 8d 4c ff ff
	ff		 lea	 ecx, DWORD PTR _movingVertScaleData$[ebp+8]
  0028d	ff 15 00 00 00
	00		 call	 DWORD PTR __imp_??1CVerticalScale@@QAE@XZ
  00293	8d 4d b0	 lea	 ecx, DWORD PTR _dataList$[ebp+4]
  00296	e8 00 00 00 00	 call	 ??1?$CList@VCVerticalScaleGroupData@@AAV1@@@UAE@XZ ; CList<CVerticalScaleGroupData,CVerticalScaleGroupData &>::~CList<CVerticalScaleGroupData,CVerticalScaleGroupData &>
  0029b	8a c3		 mov	 al, bl

; 295  : }

  0029d	8b 4d f4	 mov	 ecx, DWORD PTR __$EHRec$[ebp]
  002a0	64 89 0d 00 00
	00 00		 mov	 DWORD PTR fs:0, ecx
  002a7	59		 pop	 ecx
  002a8	5f		 pop	 edi
  002a9	5e		 pop	 esi
  002aa	5b		 pop	 ebx
  002ab	8b e5		 mov	 esp, ebp
  002ad	5d		 pop	 ebp
  002ae	c2 0c 00	 ret	 12			; 0000000cH
_TEXT	ENDS
;	COMDAT text$x
text$x	SEGMENT
__unwindfunclet$?LoadDialog_GraphMoving@CGraphMove@@AAE_NPAVCMainBlock@@PAVCGraphImp@@ABVCPoint@@@Z$4:
  00000	8d 4d cc	 lea	 ecx, DWORD PTR _vertScaleGroupDataList$6[ebp]
  00003	e9 00 00 00 00	 jmp	 ??1CVerticalScaleGroupDataList@@QAE@XZ
__unwindfunclet$?LoadDialog_GraphMoving@CGraphMove@@AAE_NPAVCMainBlock@@PAVCGraphImp@@ABVCPoint@@@Z$5:
  00008	8d 8d ec fe ff
	ff		 lea	 ecx, DWORD PTR _movingGraphVertScale$4[ebp]
  0000e	ff 25 00 00 00
	00		 jmp	 DWORD PTR __imp_??1CVerticalScale@@QAE@XZ
__unwindfunclet$?LoadDialog_GraphMoving@CGraphMove@@AAE_NPAVCMainBlock@@PAVCGraphImp@@ABVCPoint@@@Z$6:
  00014	8d 4d 08	 lea	 ecx, DWORD PTR $T8[ebp]
  00017	ff 25 00 00 00
	00		 jmp	 DWORD PTR __imp_??1?$CStringT@DV?$StrTraitMFC_DLL@DV?$ChTraitsCRT@D@ATL@@@@@ATL@@QAE@XZ
__unwindfunclet$?LoadDialog_GraphMoving@CGraphMove@@AAE_NPAVCMainBlock@@PAVCGraphImp@@ABVCPoint@@@Z$0:
  0001d	8d 4d ac	 lea	 ecx, DWORD PTR _dataList$[ebp]
  00020	e9 00 00 00 00	 jmp	 ??1CVerticalScaleGroupDataList@@QAE@XZ
__unwindfunclet$?LoadDialog_GraphMoving@CGraphMove@@AAE_NPAVCMainBlock@@PAVCGraphImp@@ABVCPoint@@@Z$1:
  00025	8d 8d 44 ff ff
	ff		 lea	 ecx, DWORD PTR _movingVertScaleData$[ebp]
  0002b	e9 00 00 00 00	 jmp	 ??1CMovingGraphVertScaleData@@QAE@XZ
__unwindfunclet$?LoadDialog_GraphMoving@CGraphMove@@AAE_NPAVCMainBlock@@PAVCGraphImp@@ABVCPoint@@@Z$2:
  00030	8d 4d 08	 lea	 ecx, DWORD PTR $T9[ebp]
  00033	ff 25 00 00 00
	00		 jmp	 DWORD PTR __imp_??1?$CStringT@DV?$StrTraitMFC_DLL@DV?$ChTraitsCRT@D@ATL@@@@@ATL@@QAE@XZ
__unwindfunclet$?LoadDialog_GraphMoving@CGraphMove@@AAE_NPAVCMainBlock@@PAVCGraphImp@@ABVCPoint@@@Z$9:
  00039	8d 4d ec	 lea	 ecx, DWORD PTR ___mlrs__$7[ebp]
  0003c	e9 00 00 00 00	 jmp	 ??1CMultiLanguageResourceSetter@@QAE@XZ ; CMultiLanguageResourceSetter::~CMultiLanguageResourceSetter
__unwindfunclet$?LoadDialog_GraphMoving@CGraphMove@@AAE_NPAVCMainBlock@@PAVCGraphImp@@ABVCPoint@@@Z$10:
  00041	8d 8d c4 fc ff
	ff		 lea	 ecx, DWORD PTR _dlg$2[ebp]
  00047	e9 00 00 00 00	 jmp	 ??1CDlgGraphMove@@UAE@XZ
__unwindfunclet$?LoadDialog_GraphMoving@CGraphMove@@AAE_NPAVCMainBlock@@PAVCGraphImp@@ABVCPoint@@@Z$11:
  0004c	8d 8d 8c fe ff
	ff		 lea	 ecx, DWORD PTR $T3[ebp]
  00052	e9 00 00 00 00	 jmp	 ??1CMovingGraphVertScaleData@@QAE@XZ
  00057	cc		 int	 3
  00058	cc		 int	 3
  00059	cc		 int	 3
  0005a	cc		 int	 3
  0005b	cc		 int	 3
__ehhandler$?LoadDialog_GraphMoving@CGraphMove@@AAE_NPAVCMainBlock@@PAVCGraphImp@@ABVCPoint@@@Z:
  0005c	90		 npad	 1
  0005d	90		 npad	 1
  0005e	8b 54 24 08	 mov	 edx, DWORD PTR [esp+8]
  00062	8d 42 0c	 lea	 eax, DWORD PTR [edx+12]
  00065	8b 8a c0 fc ff
	ff		 mov	 ecx, DWORD PTR [edx-832]
  0006b	33 c8		 xor	 ecx, eax
  0006d	e8 00 00 00 00	 call	 @__security_check_cookie@4
  00072	b8 00 00 00 00	 mov	 eax, OFFSET __ehfuncinfo$?LoadDialog_GraphMoving@CGraphMove@@AAE_NPAVCMainBlock@@PAVCGraphImp@@ABVCPoint@@@Z
  00077	e9 00 00 00 00	 jmp	 ___CxxFrameHandler3
text$x	ENDS
?LoadDialog_GraphMoving@CGraphMove@@AAE_NPAVCMainBlock@@PAVCGraphImp@@ABVCPoint@@@Z ENDP ; CGraphMove::LoadDialog_GraphMoving
; Function compile flags: /Ogtp
; File D:\git\src\IBK\IBK_DRFN\ProjSrc\SrcChartEx\ChartOCX\ChartObject\GraphMove.cpp
;	COMDAT ?AddMovingGraph@CGraphMove@@AAEXPAVCVertScaleGroupList@@ABV?$CStringT@DV?$StrTraitMFC_DLL@DV?$ChTraitsCRT@D@ATL@@@@@ATL@@AAVCMovingGraphDeque@@@Z
_TEXT	SEGMENT
_gsi$ = -80						; size = 68
__$EHRec$ = -12						; size = 12
_pVertScaleGroupList$ = 8				; size = 4
_addGraphName$ = 12					; size = 4
_movingGraphDeque$ = 16					; size = 4
?AddMovingGraph@CGraphMove@@AAEXPAVCVertScaleGroupList@@ABV?$CStringT@DV?$StrTraitMFC_DLL@DV?$ChTraitsCRT@D@ATL@@@@@ATL@@AAVCMovingGraphDeque@@@Z PROC ; CGraphMove::AddMovingGraph, COMDAT
; _this$ = ecx

; 269  : {

  00000	55		 push	 ebp
  00001	8b ec		 mov	 ebp, esp
  00003	6a ff		 push	 -1
  00005	68 00 00 00 00	 push	 __ehhandler$?AddMovingGraph@CGraphMove@@AAEXPAVCVertScaleGroupList@@ABV?$CStringT@DV?$StrTraitMFC_DLL@DV?$ChTraitsCRT@D@ATL@@@@@ATL@@AAVCMovingGraphDeque@@@Z
  0000a	64 a1 00 00 00
	00		 mov	 eax, DWORD PTR fs:0
  00010	50		 push	 eax
  00011	83 ec 44	 sub	 esp, 68			; 00000044H
  00014	a1 00 00 00 00	 mov	 eax, DWORD PTR ___security_cookie
  00019	33 c5		 xor	 eax, ebp
  0001b	50		 push	 eax
  0001c	8d 45 f4	 lea	 eax, DWORD PTR __$EHRec$[ebp]
  0001f	64 a3 00 00 00
	00		 mov	 DWORD PTR fs:0, eax

; 270  : 	if(pVertScaleGroupList == NULL)

  00025	83 7d 08 00	 cmp	 DWORD PTR _pVertScaleGroupList$[ebp], 0
  00029	74 4f		 je	 SHORT $LN10@AddMovingG

; 271  : 		return;
; 272  : 
; 273  : 	// (2008/9/13 - Seung-Won, Bae) Search with Indicator Name.
; 274  : 	CGraphSearchInfo_IndicatorName gsi;

  0002b	8d 4d b0	 lea	 ecx, DWORD PTR _gsi$[ebp]
  0002e	e8 00 00 00 00	 call	 ??0CGraphSearchInfo@@QAE@XZ ; CGraphSearchInfo::CGraphSearchInfo
  00033	8d 4d f0	 lea	 ecx, DWORD PTR _gsi$[ebp+64]
  00036	c7 45 b0 00 00
	00 00		 mov	 DWORD PTR _gsi$[ebp], OFFSET ??_7CGraphSearchInfo_IndicatorName@@6B@
  0003d	ff 15 00 00 00
	00		 call	 DWORD PTR __imp_??0?$CStringT@DV?$StrTraitMFC_DLL@DV?$ChTraitsCRT@D@ATL@@@@@ATL@@QAE@XZ

; 275  : 	gsi.m_strIndicatorName = addGraphName;

  00043	ff 75 0c	 push	 DWORD PTR _addGraphName$[ebp]
  00046	8d 4d f0	 lea	 ecx, DWORD PTR _gsi$[ebp+64]
  00049	c7 45 fc 00 00
	00 00		 mov	 DWORD PTR __$EHRec$[ebp+8], 0
  00050	ff 15 00 00 00
	00		 call	 DWORD PTR __imp_??4?$CStringT@DV?$StrTraitMFC_DLL@DV?$ChTraitsCRT@D@ATL@@@@@ATL@@QAEAAV01@ABV01@@Z

; 276  : 	if( pVertScaleGroupList->FindGraph( &gsi)) movingGraphDeque.AddTail( gsi.m_pGraphImp);

  00056	8b 4d 08	 mov	 ecx, DWORD PTR _pVertScaleGroupList$[ebp]
  00059	8d 45 b0	 lea	 eax, DWORD PTR _gsi$[ebp]
  0005c	50		 push	 eax
  0005d	e8 00 00 00 00	 call	 ?FindGraph@CVertScaleGroupList@@QBEHPAVCGraphSearchInfo@@@Z ; CVertScaleGroupList::FindGraph
  00062	85 c0		 test	 eax, eax
  00064	74 0b		 je	 SHORT $LN3@AddMovingG
  00066	ff 75 e8	 push	 DWORD PTR _gsi$[ebp+56]
  00069	8b 4d 10	 mov	 ecx, DWORD PTR _movingGraphDeque$[ebp]
  0006c	e8 00 00 00 00	 call	 ?AddTail@CMovingGraphDeque@@QAEXPAVCGraphImp@@@Z ; CMovingGraphDeque::AddTail
$LN3@AddMovingG:
  00071	8d 4d f0	 lea	 ecx, DWORD PTR _gsi$[ebp+64]
  00074	ff 15 00 00 00
	00		 call	 DWORD PTR __imp_??1?$CStringT@DV?$StrTraitMFC_DLL@DV?$ChTraitsCRT@D@ATL@@@@@ATL@@QAE@XZ
$LN10@AddMovingG:

; 277  : }

  0007a	8b 4d f4	 mov	 ecx, DWORD PTR __$EHRec$[ebp]
  0007d	64 89 0d 00 00
	00 00		 mov	 DWORD PTR fs:0, ecx
  00084	59		 pop	 ecx
  00085	8b e5		 mov	 esp, ebp
  00087	5d		 pop	 ebp
  00088	c2 0c 00	 ret	 12			; 0000000cH
_TEXT	ENDS
;	COMDAT text$x
text$x	SEGMENT
__unwindfunclet$?AddMovingGraph@CGraphMove@@AAEXPAVCVertScaleGroupList@@ABV?$CStringT@DV?$StrTraitMFC_DLL@DV?$ChTraitsCRT@D@ATL@@@@@ATL@@AAVCMovingGraphDeque@@@Z$0:
  00000	8d 4d b0	 lea	 ecx, DWORD PTR _gsi$[ebp]
  00003	e9 00 00 00 00	 jmp	 ??1CGraphSearchInfo_IndicatorName@@QAE@XZ
  00008	cc		 int	 3
  00009	cc		 int	 3
  0000a	cc		 int	 3
  0000b	cc		 int	 3
  0000c	cc		 int	 3
__ehhandler$?AddMovingGraph@CGraphMove@@AAEXPAVCVertScaleGroupList@@ABV?$CStringT@DV?$StrTraitMFC_DLL@DV?$ChTraitsCRT@D@ATL@@@@@ATL@@AAVCMovingGraphDeque@@@Z:
  0000d	90		 npad	 1
  0000e	90		 npad	 1
  0000f	8b 54 24 08	 mov	 edx, DWORD PTR [esp+8]
  00013	8d 42 0c	 lea	 eax, DWORD PTR [edx+12]
  00016	8b 4a b8	 mov	 ecx, DWORD PTR [edx-72]
  00019	33 c8		 xor	 ecx, eax
  0001b	e8 00 00 00 00	 call	 @__security_check_cookie@4
  00020	b8 00 00 00 00	 mov	 eax, OFFSET __ehfuncinfo$?AddMovingGraph@CGraphMove@@AAEXPAVCVertScaleGroupList@@ABV?$CStringT@DV?$StrTraitMFC_DLL@DV?$ChTraitsCRT@D@ATL@@@@@ATL@@AAVCMovingGraphDeque@@@Z
  00025	e9 00 00 00 00	 jmp	 ___CxxFrameHandler3
text$x	ENDS
?AddMovingGraph@CGraphMove@@AAEXPAVCVertScaleGroupList@@ABV?$CStringT@DV?$StrTraitMFC_DLL@DV?$ChTraitsCRT@D@ATL@@@@@ATL@@AAVCMovingGraphDeque@@@Z ENDP ; CGraphMove::AddMovingGraph
; Function compile flags: /Ogtp
; File D:\git\src\IBK\IBK_DRFN\ProjSrc\SrcChartEx\ChartOCX\ChartObject\GraphMove.cpp
; File C:\Program Files (x86)\Microsoft Visual Studio\2019\Community\VC\Tools\MSVC\14.29.30133\include\xmemory
; File D:\git\src\IBK\IBK_DRFN\ProjSrc\SrcChartEx\ChartOCX\ChartObject\GraphMove.cpp
; File C:\Program Files (x86)\Microsoft Visual Studio\2019\Community\VC\Tools\MSVC\14.29.30133\include\xmemory
; File C:\Program Files (x86)\Microsoft Visual Studio\2019\Community\VC\Tools\MSVC\14.29.30133\include\deque
; File C:\Program Files (x86)\Microsoft Visual Studio\2019\Community\VC\Tools\MSVC\14.29.30133\include\xmemory
; File D:\git\src\IBK\IBK_DRFN\ProjSrc\SrcChartEx\ChartOCX\ChartObject\GraphMove.cpp
;	COMDAT ?GetMovingGraphDeque@CGraphMove@@AAE?AVCMovingGraphDeque@@PAVCGraphImp@@@Z
_TEXT	SEGMENT
$T2 = -16						; size = 4
__$EHRec$ = -12						; size = 12
___$ReturnUdt$ = 8					; size = 4
_pGraph$ = 12						; size = 4
?GetMovingGraphDeque@CGraphMove@@AAE?AVCMovingGraphDeque@@PAVCGraphImp@@@Z PROC ; CGraphMove::GetMovingGraphDeque, COMDAT
; _this$ = ecx

; 249  : {

  00000	55		 push	 ebp
  00001	8b ec		 mov	 ebp, esp
  00003	6a ff		 push	 -1
  00005	68 00 00 00 00	 push	 __ehhandler$?GetMovingGraphDeque@CGraphMove@@AAE?AVCMovingGraphDeque@@PAVCGraphImp@@@Z
  0000a	64 a1 00 00 00
	00		 mov	 eax, DWORD PTR fs:0
  00010	50		 push	 eax
  00011	83 ec 08	 sub	 esp, 8
  00014	56		 push	 esi
  00015	a1 00 00 00 00	 mov	 eax, DWORD PTR ___security_cookie
  0001a	33 c5		 xor	 eax, ebp
  0001c	50		 push	 eax
  0001d	8d 45 f4	 lea	 eax, DWORD PTR __$EHRec$[ebp]
  00020	64 a3 00 00 00
	00		 mov	 DWORD PTR fs:0, eax
  00026	c7 45 f0 00 00
	00 00		 mov	 DWORD PTR $T2[ebp], 0
  0002d	8b 75 08	 mov	 esi, DWORD PTR ___$ReturnUdt$[ebp]
; File C:\Program Files (x86)\Microsoft Visual Studio\2019\Community\VC\Tools\MSVC\14.29.30133\include\xmemory

; 79   :         return ::operator new(_Bytes);

  00030	6a 08		 push	 8
; File D:\git\src\IBK\IBK_DRFN\ProjSrc\SrcChartEx\ChartOCX\ChartObject\GraphMove.cpp

; 249  : {

  00032	c7 45 fc 00 00
	00 00		 mov	 DWORD PTR __$EHRec$[ebp+8], 0
; File C:\Program Files (x86)\Microsoft Visual Studio\2019\Community\VC\Tools\MSVC\14.29.30133\include\xmemory

; 1033 :     _Container_proxy* _Myproxy = nullptr;

  00039	c7 06 00 00 00
	00		 mov	 DWORD PTR [esi], 0
; File C:\Program Files (x86)\Microsoft Visual Studio\2019\Community\VC\Tools\MSVC\14.29.30133\include\deque

; 555  :     _Deque_val() noexcept : _Map(), _Mapsize(0), _Myoff(0), _Mysize(0) {}

  0003f	c7 46 04 00 00
	00 00		 mov	 DWORD PTR [esi+4], 0
  00046	c7 46 08 00 00
	00 00		 mov	 DWORD PTR [esi+8], 0
  0004d	c7 46 0c 00 00
	00 00		 mov	 DWORD PTR [esi+12], 0
  00054	c7 46 10 00 00
	00 00		 mov	 DWORD PTR [esi+16], 0
; File C:\Program Files (x86)\Microsoft Visual Studio\2019\Community\VC\Tools\MSVC\14.29.30133\include\xmemory

; 79   :         return ::operator new(_Bytes);

  0005b	e8 00 00 00 00	 call	 ??2@YAPAXI@Z		; operator new
  00060	83 c4 04	 add	 esp, 4

; 1003 :     mutable _Iterator_base12* _Myfirstiter = nullptr;

  00063	c7 40 04 00 00
	00 00		 mov	 DWORD PTR [eax+4], 0

; 1020 :         _Myproxy            = _New_proxy;

  0006a	89 06		 mov	 DWORD PTR [esi], eax

; 1021 :         _New_proxy->_Mycont = this;

  0006c	89 30		 mov	 DWORD PTR [eax], esi
; File D:\git\src\IBK\IBK_DRFN\ProjSrc\SrcChartEx\ChartOCX\ChartObject\GraphMove.cpp

; 265  : 	return movingGraphDeque;

  0006e	ff 75 0c	 push	 DWORD PTR _pGraph$[ebp]
  00071	8b ce		 mov	 ecx, esi
  00073	c7 45 fc 00 00
	00 00		 mov	 DWORD PTR __$EHRec$[ebp+8], 0
  0007a	c7 45 f0 01 00
	00 00		 mov	 DWORD PTR $T2[ebp], 1
  00081	e8 00 00 00 00	 call	 ?AddTail@CMovingGraphDeque@@QAEXPAVCGraphImp@@@Z ; CMovingGraphDeque::AddTail
  00086	8b c6		 mov	 eax, esi

; 266  : }

  00088	8b 4d f4	 mov	 ecx, DWORD PTR __$EHRec$[ebp]
  0008b	64 89 0d 00 00
	00 00		 mov	 DWORD PTR fs:0, ecx
  00092	59		 pop	 ecx
  00093	5e		 pop	 esi
  00094	8b e5		 mov	 esp, ebp
  00096	5d		 pop	 ebp
  00097	c2 08 00	 ret	 8
_TEXT	ENDS
;	COMDAT text$x
text$x	SEGMENT
__unwindfunclet$?GetMovingGraphDeque@CGraphMove@@AAE?AVCMovingGraphDeque@@PAVCGraphImp@@@Z$0:
  00000	8b 45 f0	 mov	 eax, DWORD PTR $T2[ebp]
  00003	83 e0 01	 and	 eax, 1
  00006	0f 84 0c 00 00
	00		 je	 $LN4@GetMovingG
  0000c	83 65 f0 fe	 and	 DWORD PTR $T2[ebp], -2	; fffffffeH
  00010	8b 4d 08	 mov	 ecx, DWORD PTR ___$ReturnUdt$[ebp]
  00013	e9 00 00 00 00	 jmp	 ??1CMovingGraphDeque@@QAE@XZ
$LN4@GetMovingG:
  00018	c3		 ret	 0
  00019	cc		 int	 3
  0001a	cc		 int	 3
  0001b	cc		 int	 3
  0001c	cc		 int	 3
  0001d	cc		 int	 3
__ehhandler$?GetMovingGraphDeque@CGraphMove@@AAE?AVCMovingGraphDeque@@PAVCGraphImp@@@Z:
  0001e	90		 npad	 1
  0001f	90		 npad	 1
  00020	8b 54 24 08	 mov	 edx, DWORD PTR [esp+8]
  00024	8d 42 0c	 lea	 eax, DWORD PTR [edx+12]
  00027	8b 4a f0	 mov	 ecx, DWORD PTR [edx-16]
  0002a	33 c8		 xor	 ecx, eax
  0002c	e8 00 00 00 00	 call	 @__security_check_cookie@4
  00031	b8 00 00 00 00	 mov	 eax, OFFSET __ehfuncinfo$?GetMovingGraphDeque@CGraphMove@@AAE?AVCMovingGraphDeque@@PAVCGraphImp@@@Z
  00036	e9 00 00 00 00	 jmp	 ___CxxFrameHandler3
text$x	ENDS
?GetMovingGraphDeque@CGraphMove@@AAE?AVCMovingGraphDeque@@PAVCGraphImp@@@Z ENDP ; CGraphMove::GetMovingGraphDeque
; Function compile flags: /Ogtp
; File D:\git\src\IBK\IBK_DRFN\ProjSrc\SrcChartEx\ChartOCX\ChartObject\GraphMove.cpp
;	COMDAT ?GetVertScaleGroupDataList@CGraphMove@@ABE?AVCVerticalScaleGroupDataList@@PAVCGraphImp@@ABVCVertScaleGroupList@@@Z
_TEXT	SEGMENT
_movingGraphVertScale$ = -132				; size = 88
_vertScaleGroupDataList$ = -44				; size = 32
__$EHRec$ = -12						; size = 12
___$ReturnUdt$ = 8					; size = 4
$T2 = 12						; size = 4
_pSourceGraph$ = 12					; size = 4
_targetVertScaleGroupList$ = 16				; size = 4
?GetVertScaleGroupDataList@CGraphMove@@ABE?AVCVerticalScaleGroupDataList@@PAVCGraphImp@@ABVCVertScaleGroupList@@@Z PROC ; CGraphMove::GetVertScaleGroupDataList, COMDAT
; _this$ = ecx

; 235  : {

  00000	55		 push	 ebp
  00001	8b ec		 mov	 ebp, esp
  00003	6a ff		 push	 -1
  00005	68 00 00 00 00	 push	 __ehhandler$?GetVertScaleGroupDataList@CGraphMove@@ABE?AVCVerticalScaleGroupDataList@@PAVCGraphImp@@ABVCVertScaleGroupList@@@Z
  0000a	64 a1 00 00 00
	00		 mov	 eax, DWORD PTR fs:0
  00010	50		 push	 eax
  00011	83 ec 78	 sub	 esp, 120		; 00000078H
  00014	56		 push	 esi
  00015	a1 00 00 00 00	 mov	 eax, DWORD PTR ___security_cookie
  0001a	33 c5		 xor	 eax, ebp
  0001c	50		 push	 eax
  0001d	8d 45 f4	 lea	 eax, DWORD PTR __$EHRec$[ebp]
  00020	64 a3 00 00 00
	00		 mov	 DWORD PTR fs:0, eax

; 236  : 	if(pSourceGraph == NULL)

  00026	8b 75 0c	 mov	 esi, DWORD PTR _pSourceGraph$[ebp]
  00029	85 f6		 test	 esi, esi
  0002b	75 0d		 jne	 SHORT $LN2@GetVertSca

; 237  : 		return CVerticalScaleGroupDataList();

  0002d	8b 4d 08	 mov	 ecx, DWORD PTR ___$ReturnUdt$[ebp]
  00030	e8 00 00 00 00	 call	 ??0CVerticalScaleGroupDataList@@QAE@XZ ; CVerticalScaleGroupDataList::CVerticalScaleGroupDataList
  00035	e9 96 00 00 00	 jmp	 $LN14@GetVertSca
$LN2@GetVertSca:

; 238  : 
; 239  : 	CVerticalScaleGroupDataList vertScaleGroupDataList;

  0003a	8d 4d d4	 lea	 ecx, DWORD PTR _vertScaleGroupDataList$[ebp]
  0003d	e8 00 00 00 00	 call	 ??0CVerticalScaleGroupDataList@@QAE@XZ ; CVerticalScaleGroupDataList::CVerticalScaleGroupDataList

; 240  : 	targetVertScaleGroupList.GetVertScaleGroupDataList( vertScaleGroupDataList);

  00042	8b 4d 10	 mov	 ecx, DWORD PTR _targetVertScaleGroupList$[ebp]
  00045	8d 45 d4	 lea	 eax, DWORD PTR _vertScaleGroupDataList$[ebp]
  00048	50		 push	 eax
  00049	c7 45 fc 00 00
	00 00		 mov	 DWORD PTR __$EHRec$[ebp+8], 0
  00050	e8 00 00 00 00	 call	 ?GetVertScaleGroupDataList@CVertScaleGroupList@@QBE_NAAVCVerticalScaleGroupDataList@@@Z ; CVertScaleGroupList::GetVertScaleGroupDataList

; 241  : 	CVerticalScale movingGraphVertScale = pSourceGraph->GetVertScaleGroup()->GetVertScale();

  00055	8b ce		 mov	 ecx, esi
  00057	e8 00 00 00 00	 call	 ?GetVertScaleGroup@CGraphImp@@QBEPAVCVertScaleGroup@@XZ ; CGraphImp::GetVertScaleGroup
  0005c	8b c8		 mov	 ecx, eax
  0005e	e8 00 00 00 00	 call	 ?GetVertScale@CVertScaleGroup@@QAEAAVCVerticalScale@@XZ ; CVertScaleGroup::GetVertScale
  00063	50		 push	 eax
  00064	8d 8d 7c ff ff
	ff		 lea	 ecx, DWORD PTR _movingGraphVertScale$[ebp]
  0006a	ff 15 00 00 00
	00		 call	 DWORD PTR __imp_??0CVerticalScale@@QAE@ABV0@@Z

; 242  : 	vertScaleGroupDataList.AddTail(CVerticalScaleGroupData(movingGraphVertScale, "New Scale"));

  00070	68 00 00 00 00	 push	 OFFSET ??_C@_09GNIPIPGA@New?5Scale@
  00075	8d 4d 0c	 lea	 ecx, DWORD PTR $T2[ebp]
  00078	c6 45 fc 01	 mov	 BYTE PTR __$EHRec$[ebp+8], 1
  0007c	ff 15 00 00 00
	00		 call	 DWORD PTR __imp_??0?$CStringT@DV?$StrTraitMFC_DLL@DV?$ChTraitsCRT@D@ATL@@@@@ATL@@QAE@PBD@Z
  00082	83 ec 60	 sub	 esp, 96			; 00000060H
  00085	c6 45 fc 02	 mov	 BYTE PTR __$EHRec$[ebp+8], 2
  00089	8b cc		 mov	 ecx, esp
  0008b	8d 45 0c	 lea	 eax, DWORD PTR $T2[ebp]
  0008e	50		 push	 eax
  0008f	8d 85 7c ff ff
	ff		 lea	 eax, DWORD PTR _movingGraphVertScale$[ebp]
  00095	50		 push	 eax
  00096	e8 00 00 00 00	 call	 ??0CVerticalScaleGroupData@@QAE@ABVCVerticalScale@@ABV?$CStringT@DV?$StrTraitMFC_DLL@DV?$ChTraitsCRT@D@ATL@@@@@ATL@@@Z ; CVerticalScaleGroupData::CVerticalScaleGroupData
  0009b	8d 4d d4	 lea	 ecx, DWORD PTR _vertScaleGroupDataList$[ebp]
  0009e	e8 00 00 00 00	 call	 ?AddTail@CVerticalScaleGroupDataList@@QAEXVCVerticalScaleGroupData@@@Z ; CVerticalScaleGroupDataList::AddTail
  000a3	8d 4d 0c	 lea	 ecx, DWORD PTR $T2[ebp]
  000a6	c6 45 fc 01	 mov	 BYTE PTR __$EHRec$[ebp+8], 1
  000aa	ff 15 00 00 00
	00		 call	 DWORD PTR __imp_??1?$CStringT@DV?$StrTraitMFC_DLL@DV?$ChTraitsCRT@D@ATL@@@@@ATL@@QAE@XZ

; 243  : 
; 244  : 	return vertScaleGroupDataList;

  000b0	8b 4d 08	 mov	 ecx, DWORD PTR ___$ReturnUdt$[ebp]
  000b3	8d 45 d4	 lea	 eax, DWORD PTR _vertScaleGroupDataList$[ebp]
  000b6	50		 push	 eax
  000b7	e8 00 00 00 00	 call	 ??0CVerticalScaleGroupDataList@@QAE@ABV0@@Z ; CVerticalScaleGroupDataList::CVerticalScaleGroupDataList
  000bc	8d 8d 7c ff ff
	ff		 lea	 ecx, DWORD PTR _movingGraphVertScale$[ebp]
  000c2	ff 15 00 00 00
	00		 call	 DWORD PTR __imp_??1CVerticalScale@@QAE@XZ
  000c8	8d 4d d8	 lea	 ecx, DWORD PTR _vertScaleGroupDataList$[ebp+4]
  000cb	e8 00 00 00 00	 call	 ??1?$CList@VCVerticalScaleGroupData@@AAV1@@@UAE@XZ ; CList<CVerticalScaleGroupData,CVerticalScaleGroupData &>::~CList<CVerticalScaleGroupData,CVerticalScaleGroupData &>
$LN14@GetVertSca:

; 245  : }

  000d0	8b 45 08	 mov	 eax, DWORD PTR ___$ReturnUdt$[ebp]
  000d3	8b 4d f4	 mov	 ecx, DWORD PTR __$EHRec$[ebp]
  000d6	64 89 0d 00 00
	00 00		 mov	 DWORD PTR fs:0, ecx
  000dd	59		 pop	 ecx
  000de	5e		 pop	 esi
  000df	8b e5		 mov	 esp, ebp
  000e1	5d		 pop	 ebp
  000e2	c2 0c 00	 ret	 12			; 0000000cH
_TEXT	ENDS
;	COMDAT text$x
text$x	SEGMENT
__unwindfunclet$?GetVertScaleGroupDataList@CGraphMove@@ABE?AVCVerticalScaleGroupDataList@@PAVCGraphImp@@ABVCVertScaleGroupList@@@Z$1:
  00000	8d 4d d4	 lea	 ecx, DWORD PTR _vertScaleGroupDataList$[ebp]
  00003	e9 00 00 00 00	 jmp	 ??1CVerticalScaleGroupDataList@@QAE@XZ
__unwindfunclet$?GetVertScaleGroupDataList@CGraphMove@@ABE?AVCVerticalScaleGroupDataList@@PAVCGraphImp@@ABVCVertScaleGroupList@@@Z$2:
  00008	8d 8d 7c ff ff
	ff		 lea	 ecx, DWORD PTR _movingGraphVertScale$[ebp]
  0000e	ff 25 00 00 00
	00		 jmp	 DWORD PTR __imp_??1CVerticalScale@@QAE@XZ
__unwindfunclet$?GetVertScaleGroupDataList@CGraphMove@@ABE?AVCVerticalScaleGroupDataList@@PAVCGraphImp@@ABVCVertScaleGroupList@@@Z$3:
  00014	8d 4d 0c	 lea	 ecx, DWORD PTR $T2[ebp]
  00017	ff 25 00 00 00
	00		 jmp	 DWORD PTR __imp_??1?$CStringT@DV?$StrTraitMFC_DLL@DV?$ChTraitsCRT@D@ATL@@@@@ATL@@QAE@XZ
  0001d	cc		 int	 3
  0001e	cc		 int	 3
  0001f	cc		 int	 3
  00020	cc		 int	 3
  00021	cc		 int	 3
__ehhandler$?GetVertScaleGroupDataList@CGraphMove@@ABE?AVCVerticalScaleGroupDataList@@PAVCGraphImp@@ABVCVertScaleGroupList@@@Z:
  00022	90		 npad	 1
  00023	90		 npad	 1
  00024	8b 54 24 08	 mov	 edx, DWORD PTR [esp+8]
  00028	8d 42 0c	 lea	 eax, DWORD PTR [edx+12]
  0002b	8b 4a 80	 mov	 ecx, DWORD PTR [edx-128]
  0002e	33 c8		 xor	 ecx, eax
  00030	e8 00 00 00 00	 call	 @__security_check_cookie@4
  00035	b8 00 00 00 00	 mov	 eax, OFFSET __ehfuncinfo$?GetVertScaleGroupDataList@CGraphMove@@ABE?AVCVerticalScaleGroupDataList@@PAVCGraphImp@@ABVCVertScaleGroupList@@@Z
  0003a	e9 00 00 00 00	 jmp	 ___CxxFrameHandler3
text$x	ENDS
?GetVertScaleGroupDataList@CGraphMove@@ABE?AVCVerticalScaleGroupDataList@@PAVCGraphImp@@ABVCVertScaleGroupList@@@Z ENDP ; CGraphMove::GetVertScaleGroupDataList
; Function compile flags: /Ogtp
; File D:\git\src\IBK\IBK_DRFN\ProjSrc\SrcChartEx\ChartOCX\ChartObject\GraphMove.cpp
; File C:\Program Files (x86)\Microsoft Visual Studio\2019\Community\VC\Tools\MSVC\14.29.30133\atlmfc\include\afxwin1.inl
; File D:\git\src\IBK\IBK_DRFN\ProjSrc\SrcChartEx\ChartOCX\Include_Chart\Dll_Load\IMetaTable.h
; File C:\Program Files (x86)\Microsoft Visual Studio\2019\Community\VC\Tools\MSVC\14.29.30133\atlmfc\include\afxwin1.inl
; File D:\git\src\IBK\IBK_DRFN\ProjSrc\SrcChartEx\ChartOCX\ChartObject\GraphMove.cpp
; File D:\git\src\IBK\IBK_DRFN\ProjSrc\SrcChartEx\ChartOCX\Include_Chart\Dll_Load\IMetaTable.h
; File C:\Program Files (x86)\Microsoft Visual Studio\2019\Community\VC\Tools\MSVC\14.29.30133\atlmfc\include\afxwin1.inl
; File D:\git\src\IBK\IBK_DRFN\ProjSrc\SrcChartEx\ChartOCX\ChartObject\GraphMove.cpp
;	COMDAT ?MessageBox_NoGraphMoving@CGraphMove@@ABEXABV?$CStringT@DV?$StrTraitMFC_DLL@DV?$ChTraitsCRT@D@ATL@@@@@ATL@@@Z
_TEXT	SEGMENT
___mlrs__$ = -28					; size = 4
_strFormat$ = -24					; size = 4
_strTitle$ = -20					; size = 4
_message$ = -16						; size = 4
__$EHRec$ = -12						; size = 12
_GraphName$ = 8						; size = 4
?MessageBox_NoGraphMoving@CGraphMove@@ABEXABV?$CStringT@DV?$StrTraitMFC_DLL@DV?$ChTraitsCRT@D@ATL@@@@@ATL@@@Z PROC ; CGraphMove::MessageBox_NoGraphMoving, COMDAT
; _this$ = ecx

; 201  : {

  00000	55		 push	 ebp
  00001	8b ec		 mov	 ebp, esp
  00003	6a ff		 push	 -1
  00005	68 00 00 00 00	 push	 __ehhandler$?MessageBox_NoGraphMoving@CGraphMove@@ABEXABV?$CStringT@DV?$StrTraitMFC_DLL@DV?$ChTraitsCRT@D@ATL@@@@@ATL@@@Z
  0000a	64 a1 00 00 00
	00		 mov	 eax, DWORD PTR fs:0
  00010	50		 push	 eax
  00011	83 ec 10	 sub	 esp, 16			; 00000010H
  00014	53		 push	 ebx
  00015	56		 push	 esi
  00016	57		 push	 edi
  00017	a1 00 00 00 00	 mov	 eax, DWORD PTR ___security_cookie
  0001c	33 c5		 xor	 eax, ebp
  0001e	50		 push	 eax
  0001f	8d 45 f4	 lea	 eax, DWORD PTR __$EHRec$[ebp]
  00022	64 a3 00 00 00
	00		 mov	 DWORD PTR fs:0, eax
  00028	8b d9		 mov	 ebx, ecx

; 202  : 	ML_SET_LANGUAGE_RES();

  0002a	e8 00 00 00 00	 call	 ?AfxGetStaticModuleState@@YGPAVAFX_MODULE_STATE@@XZ ; AfxGetStaticModuleState
  0002f	b9 00 00 00 00	 mov	 ecx, OFFSET ?g_iMetaTable@@3VIMetaTable@@A ; g_iMetaTable
  00034	8b 40 08	 mov	 eax, DWORD PTR [eax+8]
  00037	50		 push	 eax
  00038	ff 73 08	 push	 DWORD PTR [ebx+8]
  0003b	e8 00 00 00 00	 call	 ?LoadResourceDLL@IMetaTable@@QAEPAUHINSTANCE__@@PAUHWND__@@PAU2@@Z ; IMetaTable::LoadResourceDLL
  00040	8b f8		 mov	 edi, eax
; File C:\Program Files (x86)\Microsoft Visual Studio\2019\Community\VC\Tools\MSVC\14.29.30133\atlmfc\include\afxwin1.inl

; 25   : 		return afxCurrentResourceHandle; }

  00042	e8 00 00 00 00	 call	 ?AfxGetModuleState@@YGPAVAFX_MODULE_STATE@@XZ ; AfxGetModuleState
; File D:\git\src\IBK\IBK_DRFN\ProjSrc\SrcChartEx\ChartOCX\Include_Chart\Dll_Load\IMetaTable.h

; 1032 : 		m_hInstance = AfxGetResourceHandle();

  00047	8b 70 0c	 mov	 esi, DWORD PTR [eax+12]
  0004a	89 75 e4	 mov	 DWORD PTR ___mlrs__$[ebp], esi
; File C:\Program Files (x86)\Microsoft Visual Studio\2019\Community\VC\Tools\MSVC\14.29.30133\atlmfc\include\afxwin1.inl

; 27   : 	{ ASSERT(hInstResource != NULL); afxCurrentResourceHandle = hInstResource; }

  0004d	e8 00 00 00 00	 call	 ?AfxGetModuleState@@YGPAVAFX_MODULE_STATE@@XZ ; AfxGetModuleState
  00052	89 78 0c	 mov	 DWORD PTR [eax+12], edi
; File D:\git\src\IBK\IBK_DRFN\ProjSrc\SrcChartEx\ChartOCX\ChartObject\GraphMove.cpp

; 203  : 	CString strFormat;

  00055	8d 4d e8	 lea	 ecx, DWORD PTR _strFormat$[ebp]
  00058	c7 45 fc 00 00
	00 00		 mov	 DWORD PTR __$EHRec$[ebp+8], 0
  0005f	ff 15 00 00 00
	00		 call	 DWORD PTR __imp_??0?$CStringT@DV?$StrTraitMFC_DLL@DV?$ChTraitsCRT@D@ATL@@@@@ATL@@QAE@XZ

; 204  : 	strFormat.LoadString( IDS_CANNOT_MOVE_IT);

  00065	6a 0c		 push	 12			; 0000000cH
  00067	8d 4d e8	 lea	 ecx, DWORD PTR _strFormat$[ebp]
  0006a	c6 45 fc 01	 mov	 BYTE PTR __$EHRec$[ebp+8], 1
  0006e	ff 15 00 00 00
	00		 call	 DWORD PTR __imp_?LoadStringA@?$CStringT@DV?$StrTraitMFC_DLL@DV?$ChTraitsCRT@D@ATL@@@@@ATL@@QAEHI@Z

; 205  : 	CString strTitle;

  00074	8d 4d ec	 lea	 ecx, DWORD PTR _strTitle$[ebp]
  00077	ff 15 00 00 00
	00		 call	 DWORD PTR __imp_??0?$CStringT@DV?$StrTraitMFC_DLL@DV?$ChTraitsCRT@D@ATL@@@@@ATL@@QAE@XZ

; 206  : 	strTitle.LoadString( IDS_NOTATION);

  0007d	6a 0b		 push	 11			; 0000000bH
  0007f	8d 4d ec	 lea	 ecx, DWORD PTR _strTitle$[ebp]
  00082	c6 45 fc 02	 mov	 BYTE PTR __$EHRec$[ebp+8], 2
  00086	ff 15 00 00 00
	00		 call	 DWORD PTR __imp_?LoadStringA@?$CStringT@DV?$StrTraitMFC_DLL@DV?$ChTraitsCRT@D@ATL@@@@@ATL@@QAEHI@Z

; 207  : 
; 208  : 	CString message;

  0008c	8d 4d f0	 lea	 ecx, DWORD PTR _message$[ebp]
  0008f	ff 15 00 00 00
	00		 call	 DWORD PTR __imp_??0?$CStringT@DV?$StrTraitMFC_DLL@DV?$ChTraitsCRT@D@ATL@@@@@ATL@@QAE@XZ

; 209  : 	message.Format( strFormat, GraphName);

  00095	8b 45 08	 mov	 eax, DWORD PTR _GraphName$[ebp]
  00098	c6 45 fc 03	 mov	 BYTE PTR __$EHRec$[ebp+8], 3
  0009c	ff 30		 push	 DWORD PTR [eax]
  0009e	8d 45 f0	 lea	 eax, DWORD PTR _message$[ebp]
  000a1	ff 75 e8	 push	 DWORD PTR _strFormat$[ebp]
  000a4	50		 push	 eax
  000a5	ff 15 00 00 00
	00		 call	 DWORD PTR __imp_?Format@?$CStringT@DV?$StrTraitMFC_DLL@DV?$ChTraitsCRT@D@ATL@@@@@ATL@@QAAXPBDZZ

; 210  : 	if(m_pParent == NULL)

  000ab	8b 03		 mov	 eax, DWORD PTR [ebx]
  000ad	83 c4 0c	 add	 esp, 12			; 0000000cH
  000b0	85 c0		 test	 eax, eax
  000b2	75 0d		 jne	 SHORT $LN2@MessageBox

; 211  : 		AfxMessageBox(message, MB_ICONWARNING | MB_OK);

  000b4	50		 push	 eax
  000b5	6a 30		 push	 48			; 00000030H
  000b7	ff 75 f0	 push	 DWORD PTR _message$[ebp]
  000ba	e8 00 00 00 00	 call	 ?AfxMessageBox@@YGHPBDII@Z ; AfxMessageBox
  000bf	eb 11		 jmp	 SHORT $LN3@MessageBox
$LN2@MessageBox:

; 212  : 	else
; 213  : 		MessageBox(m_pParent->m_hWnd, message, strTitle, MB_ICONWARNING | MB_OK);

  000c1	6a 30		 push	 48			; 00000030H
  000c3	ff 75 ec	 push	 DWORD PTR _strTitle$[ebp]
  000c6	ff 75 f0	 push	 DWORD PTR _message$[ebp]
  000c9	ff 70 20	 push	 DWORD PTR [eax+32]
  000cc	ff 15 00 00 00
	00		 call	 DWORD PTR __imp__MessageBoxA@16
$LN3@MessageBox:

; 214  : }

  000d2	8d 4d f0	 lea	 ecx, DWORD PTR _message$[ebp]
  000d5	ff 15 00 00 00
	00		 call	 DWORD PTR __imp_??1?$CStringT@DV?$StrTraitMFC_DLL@DV?$ChTraitsCRT@D@ATL@@@@@ATL@@QAE@XZ
  000db	8d 4d ec	 lea	 ecx, DWORD PTR _strTitle$[ebp]
  000de	ff 15 00 00 00
	00		 call	 DWORD PTR __imp_??1?$CStringT@DV?$StrTraitMFC_DLL@DV?$ChTraitsCRT@D@ATL@@@@@ATL@@QAE@XZ
  000e4	8d 4d e8	 lea	 ecx, DWORD PTR _strFormat$[ebp]
  000e7	ff 15 00 00 00
	00		 call	 DWORD PTR __imp_??1?$CStringT@DV?$StrTraitMFC_DLL@DV?$ChTraitsCRT@D@ATL@@@@@ATL@@QAE@XZ
; File D:\git\src\IBK\IBK_DRFN\ProjSrc\SrcChartEx\ChartOCX\Include_Chart\Dll_Load\IMetaTable.h

; 1036 : 	{

  000ed	c7 45 fc 04 00
	00 00		 mov	 DWORD PTR __$EHRec$[ebp+8], 4
; File C:\Program Files (x86)\Microsoft Visual Studio\2019\Community\VC\Tools\MSVC\14.29.30133\atlmfc\include\afxwin1.inl

; 27   : 	{ ASSERT(hInstResource != NULL); afxCurrentResourceHandle = hInstResource; }

  000f4	e8 00 00 00 00	 call	 ?AfxGetModuleState@@YGPAVAFX_MODULE_STATE@@XZ ; AfxGetModuleState
  000f9	89 70 0c	 mov	 DWORD PTR [eax+12], esi
; File D:\git\src\IBK\IBK_DRFN\ProjSrc\SrcChartEx\ChartOCX\ChartObject\GraphMove.cpp

; 214  : }

  000fc	8b 4d f4	 mov	 ecx, DWORD PTR __$EHRec$[ebp]
  000ff	64 89 0d 00 00
	00 00		 mov	 DWORD PTR fs:0, ecx
  00106	59		 pop	 ecx
  00107	5f		 pop	 edi
  00108	5e		 pop	 esi
  00109	5b		 pop	 ebx
  0010a	8b e5		 mov	 esp, ebp
  0010c	5d		 pop	 ebp
  0010d	c2 04 00	 ret	 4
_TEXT	ENDS
;	COMDAT text$x
text$x	SEGMENT
__unwindfunclet$?MessageBox_NoGraphMoving@CGraphMove@@ABEXABV?$CStringT@DV?$StrTraitMFC_DLL@DV?$ChTraitsCRT@D@ATL@@@@@ATL@@@Z$0:
  00000	8d 4d e4	 lea	 ecx, DWORD PTR ___mlrs__$[ebp]
  00003	e9 00 00 00 00	 jmp	 ??1CMultiLanguageResourceSetter@@QAE@XZ ; CMultiLanguageResourceSetter::~CMultiLanguageResourceSetter
__unwindfunclet$?MessageBox_NoGraphMoving@CGraphMove@@ABEXABV?$CStringT@DV?$StrTraitMFC_DLL@DV?$ChTraitsCRT@D@ATL@@@@@ATL@@@Z$1:
  00008	8d 4d e8	 lea	 ecx, DWORD PTR _strFormat$[ebp]
  0000b	ff 25 00 00 00
	00		 jmp	 DWORD PTR __imp_??1?$CStringT@DV?$StrTraitMFC_DLL@DV?$ChTraitsCRT@D@ATL@@@@@ATL@@QAE@XZ
__unwindfunclet$?MessageBox_NoGraphMoving@CGraphMove@@ABEXABV?$CStringT@DV?$StrTraitMFC_DLL@DV?$ChTraitsCRT@D@ATL@@@@@ATL@@@Z$2:
  00011	8d 4d ec	 lea	 ecx, DWORD PTR _strTitle$[ebp]
  00014	ff 25 00 00 00
	00		 jmp	 DWORD PTR __imp_??1?$CStringT@DV?$StrTraitMFC_DLL@DV?$ChTraitsCRT@D@ATL@@@@@ATL@@QAE@XZ
__unwindfunclet$?MessageBox_NoGraphMoving@CGraphMove@@ABEXABV?$CStringT@DV?$StrTraitMFC_DLL@DV?$ChTraitsCRT@D@ATL@@@@@ATL@@@Z$3:
  0001a	8d 4d f0	 lea	 ecx, DWORD PTR _message$[ebp]
  0001d	ff 25 00 00 00
	00		 jmp	 DWORD PTR __imp_??1?$CStringT@DV?$StrTraitMFC_DLL@DV?$ChTraitsCRT@D@ATL@@@@@ATL@@QAE@XZ
  00023	cc		 int	 3
  00024	cc		 int	 3
  00025	cc		 int	 3
  00026	cc		 int	 3
  00027	cc		 int	 3
__ehhandler$?MessageBox_NoGraphMoving@CGraphMove@@ABEXABV?$CStringT@DV?$StrTraitMFC_DLL@DV?$ChTraitsCRT@D@ATL@@@@@ATL@@@Z:
  00028	90		 npad	 1
  00029	90		 npad	 1
  0002a	8b 54 24 08	 mov	 edx, DWORD PTR [esp+8]
  0002e	8d 42 0c	 lea	 eax, DWORD PTR [edx+12]
  00031	8b 4a e0	 mov	 ecx, DWORD PTR [edx-32]
  00034	33 c8		 xor	 ecx, eax
  00036	e8 00 00 00 00	 call	 @__security_check_cookie@4
  0003b	b8 00 00 00 00	 mov	 eax, OFFSET __ehfuncinfo$?MessageBox_NoGraphMoving@CGraphMove@@ABEXABV?$CStringT@DV?$StrTraitMFC_DLL@DV?$ChTraitsCRT@D@ATL@@@@@ATL@@@Z
  00040	e9 00 00 00 00	 jmp	 ___CxxFrameHandler3
text$x	ENDS
?MessageBox_NoGraphMoving@CGraphMove@@ABEXABV?$CStringT@DV?$StrTraitMFC_DLL@DV?$ChTraitsCRT@D@ATL@@@@@ATL@@@Z ENDP ; CGraphMove::MessageBox_NoGraphMoving
; Function compile flags: /Ogtp
; File D:\git\src\IBK\IBK_DRFN\ProjSrc\SrcChartEx\ChartOCX\ChartObject\GraphMove.cpp
;	COMDAT ?IsPriceChartScaleGroup@CGraphMove@@ABE_NPAVCGraphImp@@@Z
_TEXT	SEGMENT
$T2 = -16						; size = 4
__$EHRec$ = -12						; size = 12
_pGraph$ = 8						; size = 4
?IsPriceChartScaleGroup@CGraphMove@@ABE_NPAVCGraphImp@@@Z PROC ; CGraphMove::IsPriceChartScaleGroup, COMDAT
; _this$ = ecx

; 192  : {

  00000	55		 push	 ebp
  00001	8b ec		 mov	 ebp, esp
  00003	6a ff		 push	 -1
  00005	68 00 00 00 00	 push	 __ehhandler$?IsPriceChartScaleGroup@CGraphMove@@ABE_NPAVCGraphImp@@@Z
  0000a	64 a1 00 00 00
	00		 mov	 eax, DWORD PTR fs:0
  00010	50		 push	 eax
  00011	51		 push	 ecx
  00012	53		 push	 ebx
  00013	a1 00 00 00 00	 mov	 eax, DWORD PTR ___security_cookie
  00018	33 c5		 xor	 eax, ebp
  0001a	50		 push	 eax
  0001b	8d 45 f4	 lea	 eax, DWORD PTR __$EHRec$[ebp]
  0001e	64 a3 00 00 00
	00		 mov	 DWORD PTR fs:0, eax

; 193  : 	assert(pGraph != NULL);
; 194  : 	if(pGraph->GetSubGraphList().IsViewableGraphType(CGraphBaseData::DataView_Type, 0))

  00024	8b 4d 08	 mov	 ecx, DWORD PTR _pGraph$[ebp]
  00027	6a 00		 push	 0
  00029	6a 06		 push	 6
  0002b	e8 00 00 00 00	 call	 ?GetSubGraphList@CGraphImp@@QAEAAVCSubGraphList@@XZ ; CGraphImp::GetSubGraphList
  00030	8b c8		 mov	 ecx, eax
  00032	e8 00 00 00 00	 call	 ?IsViewableGraphType@CSubGraphList@@QBE_NW4GRAPHTYPE@CGraphBaseData@@H@Z ; CSubGraphList::IsViewableGraphType
  00037	84 c0		 test	 al, al
  00039	74 14		 je	 SHORT $LN2@IsPriceCha

; 195  : 		return true;

  0003b	b0 01		 mov	 al, 1

; 198  : }

  0003d	8b 4d f4	 mov	 ecx, DWORD PTR __$EHRec$[ebp]
  00040	64 89 0d 00 00
	00 00		 mov	 DWORD PTR fs:0, ecx
  00047	59		 pop	 ecx
  00048	5b		 pop	 ebx
  00049	8b e5		 mov	 esp, ebp
  0004b	5d		 pop	 ebp
  0004c	c2 04 00	 ret	 4
$LN2@IsPriceCha:

; 196  : 
; 197  : 	return g_iMetaTable.IsScaleGroup_Price(pGraph->GetGraphData().GetGraphName());

  0004f	8b 4d 08	 mov	 ecx, DWORD PTR _pGraph$[ebp]
  00052	8d 45 f0	 lea	 eax, DWORD PTR $T2[ebp]
  00055	50		 push	 eax
  00056	e8 00 00 00 00	 call	 ?GetGraphData@CGraphImp@@QAEAAVCGraphData@@XZ ; CGraphImp::GetGraphData
  0005b	8b c8		 mov	 ecx, eax
  0005d	ff 15 00 00 00
	00		 call	 DWORD PTR __imp_?GetGraphName@CGraphData@@QBE?AV?$CStringT@DV?$StrTraitMFC_DLL@DV?$ChTraitsCRT@D@ATL@@@@@ATL@@XZ
  00063	50		 push	 eax
  00064	b9 00 00 00 00	 mov	 ecx, OFFSET ?g_iMetaTable@@3VIMetaTable@@A ; g_iMetaTable
  00069	c7 45 fc 00 00
	00 00		 mov	 DWORD PTR __$EHRec$[ebp+8], 0
  00070	e8 00 00 00 00	 call	 ?IsScaleGroup_Price@IMetaTable@@QAE_NABV?$CStringT@DV?$StrTraitMFC_DLL@DV?$ChTraitsCRT@D@ATL@@@@@ATL@@@Z ; IMetaTable::IsScaleGroup_Price
  00075	8d 4d f0	 lea	 ecx, DWORD PTR $T2[ebp]
  00078	8a d8		 mov	 bl, al
  0007a	ff 15 00 00 00
	00		 call	 DWORD PTR __imp_??1?$CStringT@DV?$StrTraitMFC_DLL@DV?$ChTraitsCRT@D@ATL@@@@@ATL@@QAE@XZ
  00080	8a c3		 mov	 al, bl

; 198  : }

  00082	8b 4d f4	 mov	 ecx, DWORD PTR __$EHRec$[ebp]
  00085	64 89 0d 00 00
	00 00		 mov	 DWORD PTR fs:0, ecx
  0008c	59		 pop	 ecx
  0008d	5b		 pop	 ebx
  0008e	8b e5		 mov	 esp, ebp
  00090	5d		 pop	 ebp
  00091	c2 04 00	 ret	 4
_TEXT	ENDS
;	COMDAT text$x
text$x	SEGMENT
__unwindfunclet$?IsPriceChartScaleGroup@CGraphMove@@ABE_NPAVCGraphImp@@@Z$0:
  00000	8d 4d f0	 lea	 ecx, DWORD PTR $T2[ebp]
  00003	ff 25 00 00 00
	00		 jmp	 DWORD PTR __imp_??1?$CStringT@DV?$StrTraitMFC_DLL@DV?$ChTraitsCRT@D@ATL@@@@@ATL@@QAE@XZ
  00009	cc		 int	 3
  0000a	cc		 int	 3
  0000b	cc		 int	 3
  0000c	cc		 int	 3
  0000d	cc		 int	 3
__ehhandler$?IsPriceChartScaleGroup@CGraphMove@@ABE_NPAVCGraphImp@@@Z:
  0000e	90		 npad	 1
  0000f	90		 npad	 1
  00010	8b 54 24 08	 mov	 edx, DWORD PTR [esp+8]
  00014	8d 42 0c	 lea	 eax, DWORD PTR [edx+12]
  00017	8b 4a f4	 mov	 ecx, DWORD PTR [edx-12]
  0001a	33 c8		 xor	 ecx, eax
  0001c	e8 00 00 00 00	 call	 @__security_check_cookie@4
  00021	b8 00 00 00 00	 mov	 eax, OFFSET __ehfuncinfo$?IsPriceChartScaleGroup@CGraphMove@@ABE_NPAVCGraphImp@@@Z
  00026	e9 00 00 00 00	 jmp	 ___CxxFrameHandler3
text$x	ENDS
?IsPriceChartScaleGroup@CGraphMove@@ABE_NPAVCGraphImp@@@Z ENDP ; CGraphMove::IsPriceChartScaleGroup
; Function compile flags: /Ogtp
; File D:\git\src\IBK\IBK_DRFN\ProjSrc\SrcChartEx\ChartOCX\ChartObject\GraphMove.cpp
; File C:\Program Files (x86)\Microsoft Visual Studio\2019\Community\VC\Tools\MSVC\14.29.30133\atlmfc\include\atltypes.h
; File D:\git\src\IBK\IBK_DRFN\ProjSrc\SrcChartEx\ChartOCX\Include_Chart\BaseData.h
; File C:\Program Files (x86)\Microsoft Visual Studio\2019\Community\VC\Tools\MSVC\14.29.30133\atlmfc\include\atltypes.h
; File D:\git\src\IBK\IBK_DRFN\ProjSrc\SrcChartEx\ChartOCX\Include_Chart\BaseData.h
; File C:\Program Files (x86)\Microsoft Visual Studio\2019\Community\VC\Tools\MSVC\14.29.30133\atlmfc\include\atltypes.h
; File D:\git\src\IBK\IBK_DRFN\ProjSrc\SrcChartEx\ChartOCX\ChartObject\GraphMove.cpp
; File C:\Program Files (x86)\Microsoft Visual Studio\2019\Community\VC\Tools\MSVC\14.29.30133\atlmfc\include\atltypes.h
; File D:\git\src\IBK\IBK_DRFN\ProjSrc\SrcChartEx\ChartOCX\ChartObject\GraphMove.cpp
;	COMDAT ?IsGraphMoving@CGraphMove@@ABE_NPAVCMainBlock@@PAVCGraphImp@@ABVCPoint@@ABVCRect@@@Z
_TEXT	SEGMENT
$T1 = -88						; size = 68
_sourceGraphRegion$ = -20				; size = 16
__$ArrayPad$ = -4					; size = 4
_pMainBlock$ = 8					; size = 4
_pSourceGraph$ = 12					; size = 4
_targetPoint$ = 16					; size = 4
_targetGraphRegion$ = 20				; size = 4
?IsGraphMoving@CGraphMove@@ABE_NPAVCMainBlock@@PAVCGraphImp@@ABVCPoint@@ABVCRect@@@Z PROC ; CGraphMove::IsGraphMoving, COMDAT
; _this$ = ecx

; 169  : {

  00000	55		 push	 ebp
  00001	8b ec		 mov	 ebp, esp
  00003	83 ec 58	 sub	 esp, 88			; 00000058H
  00006	a1 00 00 00 00	 mov	 eax, DWORD PTR ___security_cookie
  0000b	33 c5		 xor	 eax, ebp
  0000d	89 45 fc	 mov	 DWORD PTR __$ArrayPad$[ebp], eax

; 170  : 	if(pMainBlock == NULL || pSourceGraph == NULL || !m_bGraphMoving)

  00010	83 7d 08 00	 cmp	 DWORD PTR _pMainBlock$[ebp], 0
  00014	8b c1		 mov	 eax, ecx
  00016	8b 4d 0c	 mov	 ecx, DWORD PTR _pSourceGraph$[ebp]
  00019	56		 push	 esi
  0001a	8b 75 10	 mov	 esi, DWORD PTR _targetPoint$[ebp]
  0001d	57		 push	 edi
  0001e	8b 7d 14	 mov	 edi, DWORD PTR _targetGraphRegion$[ebp]
  00021	74 59		 je	 SHORT $LN3@IsGraphMov
  00023	85 c9		 test	 ecx, ecx
  00025	74 55		 je	 SHORT $LN3@IsGraphMov
  00027	80 78 04 00	 cmp	 BYTE PTR [eax+4], 0
  0002b	74 4f		 je	 SHORT $LN3@IsGraphMov

; 171  : 		return false;
; 172  : 
; 173  : 	//    graph   .
; 174  : 	CRect sourceGraphRegion = pSourceGraph->GetVertScaleGroupList()->GetGraphRegions().GetNoFrameRegion();

  0002d	8d 45 a8	 lea	 eax, DWORD PTR $T1[ebp]
  00030	50		 push	 eax
  00031	e8 00 00 00 00	 call	 ?GetVertScaleGroupList@CGraphImp@@QBEPAVCVertScaleGroupList@@XZ ; CGraphImp::GetVertScaleGroupList
  00036	8b c8		 mov	 ecx, eax
  00038	e8 00 00 00 00	 call	 ?GetGraphRegions@CVertScaleGroupList@@QBE?AVCGraphRegions@@XZ ; CVertScaleGroupList::GetGraphRegions
; File C:\Program Files (x86)\Microsoft Visual Studio\2019\Community\VC\Tools\MSVC\14.29.30133\atlmfc\include\atltypes.h

; 648  : 	return ::PtInRect(this, point);

  0003d	ff 76 04	 push	 DWORD PTR [esi+4]
  00040	ff 36		 push	 DWORD PTR [esi]
; File D:\git\src\IBK\IBK_DRFN\ProjSrc\SrcChartEx\ChartOCX\Include_Chart\BaseData.h

; 93   : 	CRect	GetNoFrameRegion() const			{	return m_rctNoFrameRegion;	}

  00042	0f 10 40 14	 movups	 xmm0, XMMWORD PTR [eax+20]
; File C:\Program Files (x86)\Microsoft Visual Studio\2019\Community\VC\Tools\MSVC\14.29.30133\atlmfc\include\atltypes.h

; 648  : 	return ::PtInRect(this, point);

  00046	8d 45 ec	 lea	 eax, DWORD PTR _sourceGraphRegion$[ebp]
  00049	50		 push	 eax
; File D:\git\src\IBK\IBK_DRFN\ProjSrc\SrcChartEx\ChartOCX\Include_Chart\BaseData.h

; 93   : 	CRect	GetNoFrameRegion() const			{	return m_rctNoFrameRegion;	}

  0004a	0f 11 45 ec	 movups	 XMMWORD PTR _sourceGraphRegion$[ebp], xmm0
; File C:\Program Files (x86)\Microsoft Visual Studio\2019\Community\VC\Tools\MSVC\14.29.30133\atlmfc\include\atltypes.h

; 648  : 	return ::PtInRect(this, point);

  0004e	ff 15 00 00 00
	00		 call	 DWORD PTR __imp__PtInRect@12
; File D:\git\src\IBK\IBK_DRFN\ProjSrc\SrcChartEx\ChartOCX\ChartObject\GraphMove.cpp

; 175  : 	if(sourceGraphRegion.PtInRect(targetPoint) || !targetGraphRegion.PtInRect(targetPoint))

  00054	85 c0		 test	 eax, eax
  00056	75 24		 jne	 SHORT $LN3@IsGraphMov
; File C:\Program Files (x86)\Microsoft Visual Studio\2019\Community\VC\Tools\MSVC\14.29.30133\atlmfc\include\atltypes.h

; 648  : 	return ::PtInRect(this, point);

  00058	ff 76 04	 push	 DWORD PTR [esi+4]
  0005b	ff 36		 push	 DWORD PTR [esi]
  0005d	57		 push	 edi
  0005e	ff 15 00 00 00
	00		 call	 DWORD PTR __imp__PtInRect@12
; File D:\git\src\IBK\IBK_DRFN\ProjSrc\SrcChartEx\ChartOCX\ChartObject\GraphMove.cpp

; 175  : 	if(sourceGraphRegion.PtInRect(targetPoint) || !targetGraphRegion.PtInRect(targetPoint))

  00064	85 c0		 test	 eax, eax
  00066	74 14		 je	 SHORT $LN3@IsGraphMov

; 176  : 		return false;
; 177  : 
; 178  : // (2007/2/12 - Seung-Won, Bae) Support Any Graphs Moving. even if PriceChart.
; 179  : /*
; 180  : 
; 181  : 	//  graph <>   graph  !!
; 182  : 	if(!IsPriceChartScaleGroup(pSourceGraph))
; 183  : 		return true;
; 184  : 
; 185  : 	MessageBox_NoGraphMoving(pSourceGraph->GetGraphData().GetGraphName());
; 186  : 	return false;
; 187  : */
; 188  : 	return true;

  00068	5f		 pop	 edi
  00069	b0 01		 mov	 al, 1

; 189  : }

  0006b	5e		 pop	 esi
  0006c	8b 4d fc	 mov	 ecx, DWORD PTR __$ArrayPad$[ebp]
  0006f	33 cd		 xor	 ecx, ebp
  00071	e8 00 00 00 00	 call	 @__security_check_cookie@4
  00076	8b e5		 mov	 esp, ebp
  00078	5d		 pop	 ebp
  00079	c2 10 00	 ret	 16			; 00000010H
$LN3@IsGraphMov:
  0007c	8b 4d fc	 mov	 ecx, DWORD PTR __$ArrayPad$[ebp]
  0007f	32 c0		 xor	 al, al
  00081	5f		 pop	 edi
  00082	33 cd		 xor	 ecx, ebp
  00084	5e		 pop	 esi
  00085	e8 00 00 00 00	 call	 @__security_check_cookie@4
  0008a	8b e5		 mov	 esp, ebp
  0008c	5d		 pop	 ebp
  0008d	c2 10 00	 ret	 16			; 00000010H
?IsGraphMoving@CGraphMove@@ABE_NPAVCMainBlock@@PAVCGraphImp@@ABVCPoint@@ABVCRect@@@Z ENDP ; CGraphMove::IsGraphMoving
_TEXT	ENDS
; Function compile flags: /Ogtp
; File D:\git\src\IBK\IBK_DRFN\ProjSrc\SrcChartEx\ChartOCX\ChartObject\GraphMove.cpp
; File C:\Program Files (x86)\Microsoft Visual Studio\2019\Community\VC\Tools\MSVC\14.29.30133\atlmfc\include\afxcoll.inl
; File D:\git\src\IBK\IBK_DRFN\ProjSrc\SrcChartEx\ChartOCX\ChartObject\GraphMove.cpp
; File C:\Program Files (x86)\Microsoft Visual Studio\2019\Community\VC\Tools\MSVC\14.29.30133\atlmfc\include\afxcoll.inl
; File D:\git\src\IBK\IBK_DRFN\ProjSrc\SrcChartEx\ChartOCX\ChartObject\GraphMove.cpp
; File D:\git\src\IBK\IBK_DRFN\ProjSrc\SrcChartEx\ChartOCX\Include_Chart\BlockBaseData.h
; File D:\git\src\IBK\IBK_DRFN\ProjSrc\SrcChartEx\ChartOCX\ChartObject\GraphMove.cpp
; File D:\git\src\IBK\IBK_DRFN\ProjSrc\SrcChartEx\ChartOCX\Include_Chart\BlockBaseData.h
; File D:\git\src\IBK\IBK_DRFN\ProjSrc\SrcChartEx\ChartOCX\ChartObject\GraphMove.cpp
; File D:\git\src\IBK\IBK_DRFN\ProjSrc\SrcChartEx\ChartOCX\Include_Chart\BlockBaseData.h
; File D:\git\src\IBK\IBK_DRFN\ProjSrc\SrcChartEx\ChartOCX\ChartObject\GraphMove.cpp
; File C:\Program Files (x86)\Microsoft Visual Studio\2019\Community\VC\Tools\MSVC\14.29.30133\atlmfc\include\afxcoll.inl
; File D:\git\src\IBK\IBK_DRFN\ProjSrc\SrcChartEx\ChartOCX\ChartObject\GraphMove.cpp
;	COMDAT ?IsGraphInsert@CGraphMove@@ABE_NPAVCMainBlock@@PAVCGraphImp@@ABVCPoint@@ABVCRect@@ABH4@Z
_TEXT	SEGMENT
_slGraphData$2 = -60					; size = 28
$T3 = -32						; size = 8
_pChartCtrl$1$ = -24					; size = 4
_strIndicatorName$ = -20				; size = 4
_strData$ = -16						; size = 4
__$EHRec$ = -12						; size = 12
_strGraphName$ = 8					; size = 4
_pMainBlock$ = 8					; size = 4
_pSourceGraph$ = 12					; size = 4
_bresult$1$ = 15					; size = 1
_targetPoint$ = 16					; size = 4
_targetGraphRegion$ = 20				; size = 4
_nInsertCol$ = 24					; size = 4
_nInsertRow$ = 28					; size = 4
?IsGraphInsert@CGraphMove@@ABE_NPAVCMainBlock@@PAVCGraphImp@@ABVCPoint@@ABVCRect@@ABH4@Z PROC ; CGraphMove::IsGraphInsert, COMDAT
; _this$ = ecx

; 110  : {

  00000	55		 push	 ebp
  00001	8b ec		 mov	 ebp, esp
  00003	6a ff		 push	 -1
  00005	68 00 00 00 00	 push	 __ehhandler$?IsGraphInsert@CGraphMove@@ABE_NPAVCMainBlock@@PAVCGraphImp@@ABVCPoint@@ABVCRect@@ABH4@Z
  0000a	64 a1 00 00 00
	00		 mov	 eax, DWORD PTR fs:0
  00010	50		 push	 eax
  00011	83 ec 30	 sub	 esp, 48			; 00000030H
  00014	53		 push	 ebx
  00015	56		 push	 esi
  00016	57		 push	 edi
  00017	a1 00 00 00 00	 mov	 eax, DWORD PTR ___security_cookie
  0001c	33 c5		 xor	 eax, ebp
  0001e	50		 push	 eax
  0001f	8d 45 f4	 lea	 eax, DWORD PTR __$EHRec$[ebp]
  00022	64 a3 00 00 00
	00		 mov	 DWORD PTR fs:0, eax

; 111  : 	if(nInsertRow < 0 || nInsertCol < 0)

  00028	8b 45 1c	 mov	 eax, DWORD PTR _nInsertRow$[ebp]
  0002b	83 38 00	 cmp	 DWORD PTR [eax], 0
  0002e	0f 8c cc 01 00
	00		 jl	 $LN5@IsGraphIns
  00034	8b 45 18	 mov	 eax, DWORD PTR _nInsertCol$[ebp]
  00037	83 38 00	 cmp	 DWORD PTR [eax], 0
  0003a	0f 8c c0 01 00
	00		 jl	 $LN5@IsGraphIns

; 113  : 
; 114  : 	if(pMainBlock == NULL || pSourceGraph == NULL || !m_bGraphMoving)

  00040	8b 7d 08	 mov	 edi, DWORD PTR _pMainBlock$[ebp]
  00043	85 ff		 test	 edi, edi
  00045	0f 84 b5 01 00
	00		 je	 $LN5@IsGraphIns
  0004b	8b 75 0c	 mov	 esi, DWORD PTR _pSourceGraph$[ebp]
  0004e	85 f6		 test	 esi, esi
  00050	0f 84 aa 01 00
	00		 je	 $LN5@IsGraphIns
  00056	80 79 04 00	 cmp	 BYTE PTR [ecx+4], 0
  0005a	0f 84 a0 01 00
	00		 je	 $LN5@IsGraphIns

; 115  : 		return false;
; 116  : 	
; 117  : 	IChartCtrl *pChartCtrl = pMainBlock->GetIChartCtrl();

  00060	8b 07		 mov	 eax, DWORD PTR [edi]
  00062	8b cf		 mov	 ecx, edi
  00064	ff 90 18 01 00
	00		 call	 DWORD PTR [eax+280]
  0006a	89 45 e8	 mov	 DWORD PTR _pChartCtrl$1$[ebp], eax

; 118  : 	CString strIndicatorName = pSourceGraph->GetGraphData().GetIndicatorName2();

  0006d	8b ce		 mov	 ecx, esi
  0006f	8d 45 ec	 lea	 eax, DWORD PTR _strIndicatorName$[ebp]
  00072	50		 push	 eax
  00073	e8 00 00 00 00	 call	 ?GetGraphData@CGraphImp@@QAEAAVCGraphData@@XZ ; CGraphImp::GetGraphData
  00078	8b c8		 mov	 ecx, eax
  0007a	ff 15 00 00 00
	00		 call	 DWORD PTR __imp_?GetIndicatorName2@CGraphData@@QBE?AV?$CStringT@DV?$StrTraitMFC_DLL@DV?$ChTraitsCRT@D@ATL@@@@@ATL@@XZ

; 119  : 
; 120  : 	// (2010/5/4 - Seung-Won, Bae) Fixed Area of Obvious Glance Balance Chart on X Scale Manager
; 121  : 	CString strData;

  00080	8d 4d f0	 lea	 ecx, DWORD PTR _strData$[ebp]
  00083	c7 45 fc 00 00
	00 00		 mov	 DWORD PTR __$EHRec$[ebp+8], 0
  0008a	ff 15 00 00 00
	00		 call	 DWORD PTR __imp_??0?$CStringT@DV?$StrTraitMFC_DLL@DV?$ChTraitsCRT@D@ATL@@@@@ATL@@QAE@XZ

; 122  : 	CIndicatorInfo *pIndicatorInfo = pSourceGraph->GetIndicatorInfo();

  00090	8b ce		 mov	 ecx, esi
  00092	c6 45 fc 01	 mov	 BYTE PTR __$EHRec$[ebp+8], 1
  00096	e8 00 00 00 00	 call	 ?GetIndicatorInfo@CGraphImp@@QAEPAVCIndicatorInfo@@XZ ; CGraphImp::GetIndicatorInfo
  0009b	8b d8		 mov	 ebx, eax

; 123  : 	if( pIndicatorInfo)

  0009d	85 db		 test	 ebx, ebx
  0009f	74 1a		 je	 SHORT $LN8@IsGraphIns

; 124  : 	{
; 125  : 		pIndicatorInfo->GetGraphDataForMaking( strData);

  000a1	8d 45 f0	 lea	 eax, DWORD PTR _strData$[ebp]
  000a4	8b cb		 mov	 ecx, ebx
  000a6	50		 push	 eax
  000a7	ff 15 00 00 00
	00		 call	 DWORD PTR __imp_?GetGraphDataForMaking@CIndicatorInfo@@QBEXAAV?$CStringT@DV?$StrTraitMFC_DLL@DV?$ChTraitsCRT@D@ATL@@@@@ATL@@@Z

; 126  : 		pIndicatorInfo = CIndicatorInfo::Make( pIndicatorInfo);

  000ad	53		 push	 ebx
  000ae	ff 15 00 00 00
	00		 call	 DWORD PTR __imp_?Make@CIndicatorInfo@@SAPAV1@PBV1@@Z
  000b4	83 c4 04	 add	 esp, 4
  000b7	8b d8		 mov	 ebx, eax

; 127  : 	}

  000b9	eb 51		 jmp	 SHORT $LN9@IsGraphIns
$LN8@IsGraphIns:

; 128  : 	else
; 129  : 	{
; 130  : 		CStringList slGraphData;

  000bb	6a 0a		 push	 10			; 0000000aH
  000bd	8d 4d c4	 lea	 ecx, DWORD PTR _slGraphData$2[ebp]
  000c0	e8 00 00 00 00	 call	 ??0CStringList@@QAE@H@Z	; CStringList::CStringList

; 131  : 		pSourceGraph->GetStringGraphData( slGraphData);

  000c5	8d 45 c4	 lea	 eax, DWORD PTR _slGraphData$2[ebp]
  000c8	c6 45 fc 02	 mov	 BYTE PTR __$EHRec$[ebp+8], 2
  000cc	50		 push	 eax
  000cd	8b ce		 mov	 ecx, esi
  000cf	e8 00 00 00 00	 call	 ?GetStringGraphData@CGraphImp@@QBEXAAVCStringList@@@Z ; CGraphImp::GetStringGraphData

; 132  : 		POSITION psnGraphData = slGraphData.GetHeadPosition();

  000d4	8b 75 c8	 mov	 esi, DWORD PTR _slGraphData$2[ebp+4]
  000d7	85 f6		 test	 esi, esi

; 133  : 		while( psnGraphData) strData += slGraphData.GetNext( psnGraphData);

  000d9	74 22		 je	 SHORT $LN3@IsGraphIns
  000db	0f 1f 44 00 00	 npad	 5
$LL2@IsGraphIns:
; File C:\Program Files (x86)\Microsoft Visual Studio\2019\Community\VC\Tools\MSVC\14.29.30133\atlmfc\include\afxcoll.inl

; 501  : 	{ CNode* pNode = (CNode*) rPosition;

  000e0	8b c6		 mov	 eax, esi

; 502  : 		ASSERT(AfxIsValidAddress(pNode, sizeof(CNode)));
; 503  : 		if( pNode == NULL )

  000e2	85 f6		 test	 esi, esi
  000e4	0f 84 2c 01 00
	00		 je	 $LN36@IsGraphIns

; 505  : 		rPosition = (POSITION) pNode->pNext;

  000ea	8b 36		 mov	 esi, DWORD PTR [esi]
; File D:\git\src\IBK\IBK_DRFN\ProjSrc\SrcChartEx\ChartOCX\ChartObject\GraphMove.cpp

; 133  : 		while( psnGraphData) strData += slGraphData.GetNext( psnGraphData);

  000ec	8d 4d f0	 lea	 ecx, DWORD PTR _strData$[ebp]
; File C:\Program Files (x86)\Microsoft Visual Studio\2019\Community\VC\Tools\MSVC\14.29.30133\atlmfc\include\afxcoll.inl

; 506  : 		return pNode->data; }

  000ef	83 c0 08	 add	 eax, 8
; File D:\git\src\IBK\IBK_DRFN\ProjSrc\SrcChartEx\ChartOCX\ChartObject\GraphMove.cpp

; 133  : 		while( psnGraphData) strData += slGraphData.GetNext( psnGraphData);

  000f2	50		 push	 eax
  000f3	ff 15 00 00 00
	00		 call	 DWORD PTR __imp_??Y?$CStringT@DV?$StrTraitMFC_DLL@DV?$ChTraitsCRT@D@ATL@@@@@ATL@@QAEAAV01@ABV?$CSimpleStringT@D$00@1@@Z
  000f9	85 f6		 test	 esi, esi
  000fb	75 e3		 jne	 SHORT $LL2@IsGraphIns
$LN3@IsGraphIns:

; 134  : 	}

  000fd	8d 4d c4	 lea	 ecx, DWORD PTR _slGraphData$2[ebp]
  00100	c6 45 fc 01	 mov	 BYTE PTR __$EHRec$[ebp+8], 1
  00104	e8 00 00 00 00	 call	 ??1CStringList@@UAE@XZ	; CStringList::~CStringList
  00109	8b 75 0c	 mov	 esi, DWORD PTR _pSourceGraph$[ebp]
$LN9@IsGraphIns:

; 135  : 
; 136  : 	CString strGraphName( pSourceGraph->GetGraphData().GetGraphName2());

  0010c	8d 45 08	 lea	 eax, DWORD PTR _strGraphName$[ebp]
  0010f	8b ce		 mov	 ecx, esi
  00111	50		 push	 eax
  00112	e8 00 00 00 00	 call	 ?GetGraphData@CGraphImp@@QAEAAVCGraphData@@XZ ; CGraphImp::GetGraphData
  00117	8b c8		 mov	 ecx, eax
  00119	ff 15 00 00 00
	00		 call	 DWORD PTR __imp_?GetGraphName2@CGraphData@@QBE?AV?$CStringT@DV?$StrTraitMFC_DLL@DV?$ChTraitsCRT@D@ATL@@@@@ATL@@XZ

; 137  : 	CPacketRQ *pPacketRQ = pSourceGraph->GetPacketRQ();

  0011f	8b ce		 mov	 ecx, esi
  00121	c6 45 fc 03	 mov	 BYTE PTR __$EHRec$[ebp+8], 3
  00125	e8 00 00 00 00	 call	 ?GetPacketRQ@CGraphImp@@QAEPAVCPacketRQ@@XZ ; CGraphImp::GetPacketRQ

; 138  : 	if( g_iMetaTable.IsSpecialGroupGraph( strIndicatorName)) 

  0012a	ff 75 ec	 push	 DWORD PTR _strIndicatorName$[ebp]
  0012d	b9 00 00 00 00	 mov	 ecx, OFFSET ?g_iMetaTable@@3VIMetaTable@@A ; g_iMetaTable
  00132	8b f0		 mov	 esi, eax
  00134	e8 00 00 00 00	 call	 ?IsSpecialGroupGraph@IMetaTable@@QAE_NPBD@Z ; IMetaTable::IsSpecialGroupGraph
  00139	84 c0		 test	 al, al
  0013b	74 0f		 je	 SHORT $LN10@IsGraphIns

; 139  : 		pChartCtrl->AddRemoveGraph( strIndicatorName);

  0013d	8b 45 e8	 mov	 eax, DWORD PTR _pChartCtrl$1$[ebp]
  00140	8b c8		 mov	 ecx, eax
  00142	ff 75 ec	 push	 DWORD PTR _strIndicatorName$[ebp]
  00145	8b 10		 mov	 edx, DWORD PTR [eax]
  00147	ff 52 10	 call	 DWORD PTR [edx+16]
  0014a	eb 0b		 jmp	 SHORT $LN11@IsGraphIns
$LN10@IsGraphIns:

; 140  : 	else
; 141  : 		pMainBlock->DeleteGraph( strGraphName);

  0014c	8b 07		 mov	 eax, DWORD PTR [edi]
  0014e	8d 4d 08	 lea	 ecx, DWORD PTR _strGraphName$[ebp]
  00151	51		 push	 ecx
  00152	8b cf		 mov	 ecx, edi
  00154	ff 50 1c	 call	 DWORD PTR [eax+28]
$LN11@IsGraphIns:
; File D:\git\src\IBK\IBK_DRFN\ProjSrc\SrcChartEx\ChartOCX\Include_Chart\BlockBaseData.h

; 20   : 	CBlockIndex( const int row, const int column)		{	m_nRow = row;	m_nColumn = column;		}

  00157	8b 45 1c	 mov	 eax, DWORD PTR _nInsertRow$[ebp]
; File D:\git\src\IBK\IBK_DRFN\ProjSrc\SrcChartEx\ChartOCX\ChartObject\GraphMove.cpp

; 143  : 	bool bresult = pMainBlock->InsertGraphInBlock( pPacketRQ, CBlockIndex( nInsertRow, nInsertCol), 0, strData, TRUE, TRUE, TRUE);

  0015a	8d 4d f0	 lea	 ecx, DWORD PTR _strData$[ebp]
  0015d	6a 01		 push	 1
  0015f	6a 01		 push	 1
  00161	6a 01		 push	 1
; File D:\git\src\IBK\IBK_DRFN\ProjSrc\SrcChartEx\ChartOCX\Include_Chart\BlockBaseData.h

; 20   : 	CBlockIndex( const int row, const int column)		{	m_nRow = row;	m_nColumn = column;		}

  00163	8b 00		 mov	 eax, DWORD PTR [eax]
  00165	89 45 e0	 mov	 DWORD PTR $T3[ebp], eax
  00168	8b 45 18	 mov	 eax, DWORD PTR _nInsertCol$[ebp]
; File D:\git\src\IBK\IBK_DRFN\ProjSrc\SrcChartEx\ChartOCX\ChartObject\GraphMove.cpp

; 143  : 	bool bresult = pMainBlock->InsertGraphInBlock( pPacketRQ, CBlockIndex( nInsertRow, nInsertCol), 0, strData, TRUE, TRUE, TRUE);

  0016b	51		 push	 ecx
  0016c	6a 00		 push	 0
  0016e	8d 4d e0	 lea	 ecx, DWORD PTR $T3[ebp]
; File D:\git\src\IBK\IBK_DRFN\ProjSrc\SrcChartEx\ChartOCX\Include_Chart\BlockBaseData.h

; 20   : 	CBlockIndex( const int row, const int column)		{	m_nRow = row;	m_nColumn = column;		}

  00171	8b 00		 mov	 eax, DWORD PTR [eax]
  00173	89 45 e4	 mov	 DWORD PTR $T3[ebp+4], eax
; File D:\git\src\IBK\IBK_DRFN\ProjSrc\SrcChartEx\ChartOCX\ChartObject\GraphMove.cpp

; 143  : 	bool bresult = pMainBlock->InsertGraphInBlock( pPacketRQ, CBlockIndex( nInsertRow, nInsertCol), 0, strData, TRUE, TRUE, TRUE);

  00176	8b 07		 mov	 eax, DWORD PTR [edi]
  00178	51		 push	 ecx
  00179	56		 push	 esi
  0017a	8b cf		 mov	 ecx, edi
  0017c	ff 50 38	 call	 DWORD PTR [eax+56]
  0017f	85 c0		 test	 eax, eax

; 144  : 
; 145  : 	CIndicatorList *pIndicatorList = pMainBlock->GetIndicatorList();

  00181	8b cf		 mov	 ecx, edi
  00183	8b 07		 mov	 eax, DWORD PTR [edi]
  00185	0f 95 45 0f	 setne	 BYTE PTR _bresult$1$[ebp]
  00189	ff 90 40 02 00
	00		 call	 DWORD PTR [eax+576]

; 146  : 	if( pIndicatorInfo && pIndicatorList)

  0018f	85 db		 test	 ebx, ebx
  00191	74 3b		 je	 SHORT $LN15@IsGraphIns
  00193	85 c0		 test	 eax, eax
  00195	74 37		 je	 SHORT $LN15@IsGraphIns

; 147  : 	{
; 148  : 		CIndicatorInfo *pNewIndicatorInfo = pIndicatorList->GetGraphIndicatorInfo( EILT_USER, strGraphName, strIndicatorName, EIIGT_WITHOUT_DEFAULT);

  00197	6a 00		 push	 0
  00199	ff 75 ec	 push	 DWORD PTR _strIndicatorName$[ebp]
  0019c	8b c8		 mov	 ecx, eax
  0019e	ff 75 08	 push	 DWORD PTR _strGraphName$[ebp]
  001a1	6a 03		 push	 3
  001a3	ff 15 00 00 00
	00		 call	 DWORD PTR __imp_?GetGraphIndicatorInfo@CIndicatorList@@QAEPAVCIndicatorInfo@@W4EIndicatorListType@@PBD1W4EIndicatorInfoGettingType@@@Z

; 149  : 		if( pNewIndicatorInfo)

  001a9	85 c0		 test	 eax, eax
  001ab	74 21		 je	 SHORT $LN15@IsGraphIns

; 150  : 		{
; 151  : 			pNewIndicatorInfo->CopyDataWithVerificationFrom( *pIndicatorInfo);

  001ad	53		 push	 ebx
  001ae	8b c8		 mov	 ecx, eax
  001b0	ff 15 00 00 00
	00		 call	 DWORD PTR __imp_?CopyDataWithVerificationFrom@CIndicatorInfo@@QAE_NABV1@@Z

; 152  : 			pMainBlock->ChangeGraphDataFromIndicatorInfo( strGraphName, true);

  001b6	8b 07		 mov	 eax, DWORD PTR [edi]
  001b8	8d 4d 08	 lea	 ecx, DWORD PTR _strGraphName$[ebp]
  001bb	6a 01		 push	 1
  001bd	51		 push	 ecx
  001be	8b cf		 mov	 ecx, edi
  001c0	ff 90 88 00 00
	00		 call	 DWORD PTR [eax+136]

; 153  : 			delete pIndicatorInfo;

  001c6	8b 13		 mov	 edx, DWORD PTR [ebx]
  001c8	8b cb		 mov	 ecx, ebx
  001ca	6a 01		 push	 1
  001cc	ff 12		 call	 DWORD PTR [edx]
$LN15@IsGraphIns:

; 154  : 		}
; 155  : 	}
; 156  : 
; 157  : 	return bresult;

  001ce	8d 4d 08	 lea	 ecx, DWORD PTR _strGraphName$[ebp]
  001d1	ff 15 00 00 00
	00		 call	 DWORD PTR __imp_??1?$CStringT@DV?$StrTraitMFC_DLL@DV?$ChTraitsCRT@D@ATL@@@@@ATL@@QAE@XZ
  001d7	8d 4d f0	 lea	 ecx, DWORD PTR _strData$[ebp]
  001da	ff 15 00 00 00
	00		 call	 DWORD PTR __imp_??1?$CStringT@DV?$StrTraitMFC_DLL@DV?$ChTraitsCRT@D@ATL@@@@@ATL@@QAE@XZ
  001e0	8d 4d ec	 lea	 ecx, DWORD PTR _strIndicatorName$[ebp]
  001e3	ff 15 00 00 00
	00		 call	 DWORD PTR __imp_??1?$CStringT@DV?$StrTraitMFC_DLL@DV?$ChTraitsCRT@D@ATL@@@@@ATL@@QAE@XZ
  001e9	8a 45 0f	 mov	 al, BYTE PTR _bresult$1$[ebp]

; 164  : }

  001ec	8b 4d f4	 mov	 ecx, DWORD PTR __$EHRec$[ebp]
  001ef	64 89 0d 00 00
	00 00		 mov	 DWORD PTR fs:0, ecx
  001f6	59		 pop	 ecx
  001f7	5f		 pop	 edi
  001f8	5e		 pop	 esi
  001f9	5b		 pop	 ebx
  001fa	8b e5		 mov	 esp, ebp
  001fc	5d		 pop	 ebp
  001fd	c2 18 00	 ret	 24			; 00000018H
$LN5@IsGraphIns:

; 112  : 		return false;

  00200	32 c0		 xor	 al, al

; 164  : }

  00202	8b 4d f4	 mov	 ecx, DWORD PTR __$EHRec$[ebp]
  00205	64 89 0d 00 00
	00 00		 mov	 DWORD PTR fs:0, ecx
  0020c	59		 pop	 ecx
  0020d	5f		 pop	 edi
  0020e	5e		 pop	 esi
  0020f	5b		 pop	 ebx
  00210	8b e5		 mov	 esp, ebp
  00212	5d		 pop	 ebp
  00213	c2 18 00	 ret	 24			; 00000018H
$LN36@IsGraphIns:
; File C:\Program Files (x86)\Microsoft Visual Studio\2019\Community\VC\Tools\MSVC\14.29.30133\atlmfc\include\afxcoll.inl

; 504  : 			AfxThrowInvalidArgException();

  00216	e8 00 00 00 00	 call	 ?AfxThrowInvalidArgException@@YGXXZ ; AfxThrowInvalidArgException
$LN41@IsGraphIns:
  0021b	cc		 int	 3
_TEXT	ENDS
;	COMDAT text$x
text$x	SEGMENT
__unwindfunclet$?IsGraphInsert@CGraphMove@@ABE_NPAVCMainBlock@@PAVCGraphImp@@ABVCPoint@@ABVCRect@@ABH4@Z$0:
  00000	8d 4d ec	 lea	 ecx, DWORD PTR _strIndicatorName$[ebp]
  00003	ff 25 00 00 00
	00		 jmp	 DWORD PTR __imp_??1?$CStringT@DV?$StrTraitMFC_DLL@DV?$ChTraitsCRT@D@ATL@@@@@ATL@@QAE@XZ
__unwindfunclet$?IsGraphInsert@CGraphMove@@ABE_NPAVCMainBlock@@PAVCGraphImp@@ABVCPoint@@ABVCRect@@ABH4@Z$1:
  00009	8d 4d f0	 lea	 ecx, DWORD PTR _strData$[ebp]
  0000c	ff 25 00 00 00
	00		 jmp	 DWORD PTR __imp_??1?$CStringT@DV?$StrTraitMFC_DLL@DV?$ChTraitsCRT@D@ATL@@@@@ATL@@QAE@XZ
__unwindfunclet$?IsGraphInsert@CGraphMove@@ABE_NPAVCMainBlock@@PAVCGraphImp@@ABVCPoint@@ABVCRect@@ABH4@Z$2:
  00012	8d 4d c4	 lea	 ecx, DWORD PTR _slGraphData$2[ebp]
  00015	e9 00 00 00 00	 jmp	 ??1CStringList@@UAE@XZ	; CStringList::~CStringList
__unwindfunclet$?IsGraphInsert@CGraphMove@@ABE_NPAVCMainBlock@@PAVCGraphImp@@ABVCPoint@@ABVCRect@@ABH4@Z$3:
  0001a	8d 4d 08	 lea	 ecx, DWORD PTR _strGraphName$[ebp]
  0001d	ff 25 00 00 00
	00		 jmp	 DWORD PTR __imp_??1?$CStringT@DV?$StrTraitMFC_DLL@DV?$ChTraitsCRT@D@ATL@@@@@ATL@@QAE@XZ
  00023	cc		 int	 3
  00024	cc		 int	 3
  00025	cc		 int	 3
  00026	cc		 int	 3
  00027	cc		 int	 3
__ehhandler$?IsGraphInsert@CGraphMove@@ABE_NPAVCMainBlock@@PAVCGraphImp@@ABVCPoint@@ABVCRect@@ABH4@Z:
  00028	90		 npad	 1
  00029	90		 npad	 1
  0002a	8b 54 24 08	 mov	 edx, DWORD PTR [esp+8]
  0002e	8d 42 0c	 lea	 eax, DWORD PTR [edx+12]
  00031	8b 4a c0	 mov	 ecx, DWORD PTR [edx-64]
  00034	33 c8		 xor	 ecx, eax
  00036	e8 00 00 00 00	 call	 @__security_check_cookie@4
  0003b	b8 00 00 00 00	 mov	 eax, OFFSET __ehfuncinfo$?IsGraphInsert@CGraphMove@@ABE_NPAVCMainBlock@@PAVCGraphImp@@ABVCPoint@@ABVCRect@@ABH4@Z
  00040	e9 00 00 00 00	 jmp	 ___CxxFrameHandler3
text$x	ENDS
?IsGraphInsert@CGraphMove@@ABE_NPAVCMainBlock@@PAVCGraphImp@@ABVCPoint@@ABVCRect@@ABH4@Z ENDP ; CGraphMove::IsGraphInsert
; Function compile flags: /Ogtp
; File D:\git\src\IBK\IBK_DRFN\ProjSrc\SrcChartEx\ChartOCX\ChartObject\GraphMove.cpp
; File C:\Program Files (x86)\Microsoft Visual Studio\2019\Community\VC\Tools\MSVC\14.29.30133\atlmfc\include\atltypes.h
; File D:\git\src\IBK\IBK_DRFN\ProjSrc\SrcChartEx\ChartOCX\ChartObject\GraphMove.cpp
; File C:\Program Files (x86)\Microsoft Visual Studio\2019\Community\VC\Tools\MSVC\14.29.30133\atlmfc\include\cstringt.h
; File D:\git\src\IBK\IBK_DRFN\ProjSrc\SrcChartEx\ChartOCX\ChartObject\GraphMove.cpp
; File C:\Program Files (x86)\Microsoft Visual Studio\2019\Community\VC\Tools\MSVC\14.29.30133\atlmfc\include\cstringt.h
; File D:\git\src\IBK\IBK_DRFN\ProjSrc\SrcChartEx\ChartOCX\ChartObject\GraphMove.cpp
; File C:\Program Files (x86)\Microsoft Visual Studio\2019\Community\VC\Tools\MSVC\14.29.30133\atlmfc\include\afxwin1.inl
; File D:\git\src\IBK\IBK_DRFN\ProjSrc\SrcChartEx\ChartOCX\Include_Chart\Dll_Load\IMetaTable.h
; File C:\Program Files (x86)\Microsoft Visual Studio\2019\Community\VC\Tools\MSVC\14.29.30133\atlmfc\include\afxwin1.inl
; File D:\git\src\IBK\IBK_DRFN\ProjSrc\SrcChartEx\ChartOCX\ChartObject\GraphMove.cpp
; File C:\Program Files (x86)\Microsoft Visual Studio\2019\Community\VC\Tools\MSVC\14.29.30133\atlmfc\include\atlsimpstr.h
; File D:\git\src\IBK\IBK_DRFN\ProjSrc\SrcChartEx\ChartOCX\ChartObject\GraphMove.cpp
; File D:\git\src\IBK\IBK_DRFN\ProjSrc\SrcChartEx\ChartOCX\Include_Chart\Dll_Load\IMetaTable.h
; File C:\Program Files (x86)\Microsoft Visual Studio\2019\Community\VC\Tools\MSVC\14.29.30133\atlmfc\include\afxwin1.inl
; File D:\git\src\IBK\IBK_DRFN\ProjSrc\SrcChartEx\ChartOCX\ChartObject\GraphMove.cpp
; File C:\Program Files (x86)\Microsoft Visual Studio\2019\Community\VC\Tools\MSVC\14.29.30133\atlmfc\include\afxwin1.inl
; File D:\git\src\IBK\IBK_DRFN\ProjSrc\SrcChartEx\ChartOCX\ChartObject\GraphMove.cpp
; File C:\Program Files (x86)\Microsoft Visual Studio\2019\Community\VC\Tools\MSVC\14.29.30133\atlmfc\include\afxcoll.inl
; File D:\git\src\IBK\IBK_DRFN\ProjSrc\SrcChartEx\ChartOCX\ChartObject\GraphMove.cpp
; File C:\Program Files (x86)\Microsoft Visual Studio\2019\Community\VC\Tools\MSVC\14.29.30133\atlmfc\include\afxcoll.inl
; File D:\git\src\IBK\IBK_DRFN\ProjSrc\SrcChartEx\ChartOCX\ChartObject\GraphMove.cpp
; File D:\git\src\IBK\IBK_DRFN\ProjSrc\SrcChartEx\ChartOCX\Include_Chart\BlockBaseData.h
; File D:\git\src\IBK\IBK_DRFN\ProjSrc\SrcChartEx\ChartOCX\ChartObject\GraphMove.cpp
; File D:\git\src\IBK\IBK_DRFN\ProjSrc\SrcChartEx\ChartOCX\Include_Chart\BlockBaseData.h
; File D:\git\src\IBK\IBK_DRFN\ProjSrc\SrcChartEx\ChartOCX\ChartObject\GraphMove.cpp
; File D:\git\src\IBK\IBK_DRFN\ProjSrc\SrcChartEx\ChartOCX\Include_Chart\BlockBaseData.h
; File D:\git\src\IBK\IBK_DRFN\ProjSrc\SrcChartEx\ChartOCX\ChartObject\GraphMove.cpp
; File D:\git\src\IBK\IBK_DRFN\ProjSrc\SrcChartEx\ChartOCX\Include_Chart\BaseData.h
; File C:\Program Files (x86)\Microsoft Visual Studio\2019\Community\VC\Tools\MSVC\14.29.30133\atlmfc\include\atltypes.h
; File D:\git\src\IBK\IBK_DRFN\ProjSrc\SrcChartEx\ChartOCX\Include_Chart\BaseData.h
; File C:\Program Files (x86)\Microsoft Visual Studio\2019\Community\VC\Tools\MSVC\14.29.30133\atlmfc\include\atltypes.h
; File D:\git\src\IBK\IBK_DRFN\ProjSrc\SrcChartEx\ChartOCX\ChartObject\GraphMove.cpp
; File C:\Program Files (x86)\Microsoft Visual Studio\2019\Community\VC\Tools\MSVC\14.29.30133\atlmfc\include\atltypes.h
; File D:\git\src\IBK\IBK_DRFN\ProjSrc\SrcChartEx\ChartOCX\ChartObject\GraphMove.cpp
;	COMDAT ?GraphMoving@CGraphMove@@QAE_NPAVCMainBlock@@PAVCGraphImp@@ABVCPoint@@@Z
_TEXT	SEGMENT
$T2 = -176						; size = 8
_pChartCtrl$1$ = -172					; size = 4
___mlrs__$3 = -172					; size = 4
_pPacketRQ$1$ = -168					; size = 4
_pSourceGraph$GSCopy$1$ = -168				; size = 4
_nInsertCol$ = -164					; size = 4
_nInsertRow$ = -160					; size = 4
_targetPoint$GSCopy$1$ = -156				; size = 4
_pChartCtrl$1$ = -156					; size = 4
$T4 = -156						; size = 4
_this$GSCopy$1$ = -152					; size = 4
_strIndicatorName$5 = -148				; size = 4
_strTitle$6 = -148					; size = 4
_strData$7 = -144					; size = 4
_strFormat$8 = -144					; size = 4
_strGraphName$9 = -140					; size = 4
_message$10 = -140					; size = 4
_pIndicatorInfo$1$ = -136				; size = 4
_strIndicatorName$11 = -136				; size = 4
_bresult$1$ = -129					; size = 1
$T12 = -129						; size = 1
$T13 = -128						; size = 68
_targetGraphRegion$ = -60				; size = 16
_slGraphData$14 = -44					; size = 28
_sourceGraphRegion$15 = -32				; size = 16
__$ArrayPad$ = -16					; size = 4
__$EHRec$ = -12						; size = 12
_pMainBlock$ = 8					; size = 4
_pSourceGraph$ = 12					; size = 4
_targetPoint$ = 16					; size = 4
?GraphMoving@CGraphMove@@QAE_NPAVCMainBlock@@PAVCGraphImp@@ABVCPoint@@@Z PROC ; CGraphMove::GraphMoving, COMDAT
; _this$ = ecx

; 59   : {

  00000	55		 push	 ebp
  00001	8b ec		 mov	 ebp, esp
  00003	6a ff		 push	 -1
  00005	68 00 00 00 00	 push	 __ehhandler$?GraphMoving@CGraphMove@@QAE_NPAVCMainBlock@@PAVCGraphImp@@ABVCPoint@@@Z
  0000a	64 a1 00 00 00
	00		 mov	 eax, DWORD PTR fs:0
  00010	50		 push	 eax
  00011	81 ec a4 00 00
	00		 sub	 esp, 164		; 000000a4H
  00017	a1 00 00 00 00	 mov	 eax, DWORD PTR ___security_cookie
  0001c	33 c5		 xor	 eax, ebp
  0001e	89 45 f0	 mov	 DWORD PTR __$ArrayPad$[ebp], eax
  00021	56		 push	 esi
  00022	57		 push	 edi
  00023	50		 push	 eax
  00024	8d 45 f4	 lea	 eax, DWORD PTR __$EHRec$[ebp]
  00027	64 a3 00 00 00
	00		 mov	 DWORD PTR fs:0, eax
  0002d	89 8d 68 ff ff
	ff		 mov	 DWORD PTR _this$GSCopy$1$[ebp], ecx
  00033	8b 7d 08	 mov	 edi, DWORD PTR _pMainBlock$[ebp]

; 60   : 	// Graph / - ojtaso (20070731)
; 61   : 	int nInsertCol = -1;
; 62   : 	int nInsertRow = -1;
; 63   : 
; 64   : 	// (2006/11/19 - Seung-Won, Bae) Check Graph Deleting.
; 65   : 	// Graph / - ojtaso (20070731)
; 66   : 	CRect targetGraphRegion = pMainBlock->GetNoFrameGraphRegion( targetPoint, nInsertCol, nInsertRow);

  00036	8d 95 60 ff ff
	ff		 lea	 edx, DWORD PTR _nInsertRow$[ebp]
  0003c	8b 4d 10	 mov	 ecx, DWORD PTR _targetPoint$[ebp]
  0003f	8b 75 0c	 mov	 esi, DWORD PTR _pSourceGraph$[ebp]
  00042	52		 push	 edx
  00043	8b 07		 mov	 eax, DWORD PTR [edi]
  00045	8d 95 5c ff ff
	ff		 lea	 edx, DWORD PTR _nInsertCol$[ebp]
  0004b	52		 push	 edx
  0004c	51		 push	 ecx
  0004d	89 8d 64 ff ff
	ff		 mov	 DWORD PTR _targetPoint$GSCopy$1$[ebp], ecx
  00053	8d 4d c4	 lea	 ecx, DWORD PTR _targetGraphRegion$[ebp]
  00056	51		 push	 ecx
  00057	8b cf		 mov	 ecx, edi
  00059	89 b5 58 ff ff
	ff		 mov	 DWORD PTR _pSourceGraph$GSCopy$1$[ebp], esi
  0005f	c7 85 5c ff ff
	ff ff ff ff ff	 mov	 DWORD PTR _nInsertCol$[ebp], -1
  00069	c7 85 60 ff ff
	ff ff ff ff ff	 mov	 DWORD PTR _nInsertRow$[ebp], -1
  00073	ff 90 8c 01 00
	00		 call	 DWORD PTR [eax+396]
; File C:\Program Files (x86)\Microsoft Visual Studio\2019\Community\VC\Tools\MSVC\14.29.30133\atlmfc\include\atltypes.h

; 638  : 	return ::IsRectEmpty(this);

  00079	8d 45 c4	 lea	 eax, DWORD PTR _targetGraphRegion$[ebp]
  0007c	50		 push	 eax
  0007d	ff 15 00 00 00
	00		 call	 DWORD PTR __imp__IsRectEmpty@4
; File D:\git\src\IBK\IBK_DRFN\ProjSrc\SrcChartEx\ChartOCX\ChartObject\GraphMove.cpp

; 67   : 	if( targetGraphRegion.IsRectEmpty())

  00083	85 c0		 test	 eax, eax
  00085	0f 84 58 02 00
	00		 je	 $LN2@GraphMovin

; 69   : 		CString strIndicatorName = pSourceGraph->GetGraphData().GetIndicatorName2();

  0008b	8d 85 78 ff ff
	ff		 lea	 eax, DWORD PTR _strIndicatorName$11[ebp]
  00091	8b ce		 mov	 ecx, esi
  00093	50		 push	 eax
  00094	e8 00 00 00 00	 call	 ?GetGraphData@CGraphImp@@QAEAAVCGraphData@@XZ ; CGraphImp::GetGraphData
  00099	8b c8		 mov	 ecx, eax
  0009b	ff 15 00 00 00
	00		 call	 DWORD PTR __imp_?GetIndicatorName2@CGraphData@@QBE?AV?$CStringT@DV?$StrTraitMFC_DLL@DV?$ChTraitsCRT@D@ATL@@@@@ATL@@XZ

; 73   : 		if( strIndicatorName == _MTEXT( C2_PRICE_CHART) && !::strncmp(pSourceGraph->GetGraphRQ(), _T("DEFAULT"), 7))

  000a1	a1 54 00 00 00	 mov	 eax, DWORD PTR ?g_iMetaTable@@3VIMetaTable@@A+84
; File C:\Program Files (x86)\Microsoft Visual Studio\2019\Community\VC\Tools\MSVC\14.29.30133\atlmfc\include\cstringt.h

; 2486 : 		return(str1.Compare(psz2) == 0);

  000a6	8d 8d 78 ff ff
	ff		 lea	 ecx, DWORD PTR _strIndicatorName$11[ebp]
; File D:\git\src\IBK\IBK_DRFN\ProjSrc\SrcChartEx\ChartOCX\ChartObject\GraphMove.cpp

; 69   : 		CString strIndicatorName = pSourceGraph->GetGraphData().GetIndicatorName2();

  000ac	c7 45 fc 00 00
	00 00		 mov	 DWORD PTR __$EHRec$[ebp+8], 0
; File C:\Program Files (x86)\Microsoft Visual Studio\2019\Community\VC\Tools\MSVC\14.29.30133\atlmfc\include\cstringt.h

; 2486 : 		return(str1.Compare(psz2) == 0);

  000b3	ff b0 28 03 00
	00		 push	 DWORD PTR [eax+808]
  000b9	ff 15 00 00 00
	00		 call	 DWORD PTR __imp_?Compare@?$CStringT@DV?$StrTraitMFC_DLL@DV?$ChTraitsCRT@D@ATL@@@@@ATL@@QBEHPBD@Z
  000bf	85 c0		 test	 eax, eax
; File D:\git\src\IBK\IBK_DRFN\ProjSrc\SrcChartEx\ChartOCX\ChartObject\GraphMove.cpp

; 73   : 		if( strIndicatorName == _MTEXT( C2_PRICE_CHART) && !::strncmp(pSourceGraph->GetGraphRQ(), _T("DEFAULT"), 7))

  000c1	0f 85 58 01 00
	00		 jne	 $LN3@GraphMovin
  000c7	8b 06		 mov	 eax, DWORD PTR [esi]
  000c9	8b ce		 mov	 ecx, esi
  000cb	6a 07		 push	 7
  000cd	68 00 00 00 00	 push	 OFFSET ??_C@_07MGCPDNLD@DEFAULT@
  000d2	8b 40 1c	 mov	 eax, DWORD PTR [eax+28]
  000d5	ff d0		 call	 eax
  000d7	50		 push	 eax
  000d8	ff 15 00 00 00
	00		 call	 DWORD PTR __imp__strncmp
  000de	83 c4 0c	 add	 esp, 12			; 0000000cH
  000e1	85 c0		 test	 eax, eax
  000e3	0f 85 36 01 00
	00		 jne	 $LN3@GraphMovin

; 74   : 		{
; 75   : 			ML_SET_LANGUAGE_RES();

  000e9	e8 00 00 00 00	 call	 ?AfxGetStaticModuleState@@YGPAVAFX_MODULE_STATE@@XZ ; AfxGetStaticModuleState
  000ee	b9 00 00 00 00	 mov	 ecx, OFFSET ?g_iMetaTable@@3VIMetaTable@@A ; g_iMetaTable
  000f3	8b 40 08	 mov	 eax, DWORD PTR [eax+8]
  000f6	50		 push	 eax
  000f7	8b 85 68 ff ff
	ff		 mov	 eax, DWORD PTR _this$GSCopy$1$[ebp]
  000fd	ff 70 08	 push	 DWORD PTR [eax+8]
  00100	e8 00 00 00 00	 call	 ?LoadResourceDLL@IMetaTable@@QAEPAUHINSTANCE__@@PAUHWND__@@PAU2@@Z ; IMetaTable::LoadResourceDLL
  00105	8b f8		 mov	 edi, eax
; File C:\Program Files (x86)\Microsoft Visual Studio\2019\Community\VC\Tools\MSVC\14.29.30133\atlmfc\include\afxwin1.inl

; 25   : 		return afxCurrentResourceHandle; }

  00107	e8 00 00 00 00	 call	 ?AfxGetModuleState@@YGPAVAFX_MODULE_STATE@@XZ ; AfxGetModuleState
; File D:\git\src\IBK\IBK_DRFN\ProjSrc\SrcChartEx\ChartOCX\Include_Chart\Dll_Load\IMetaTable.h

; 1032 : 		m_hInstance = AfxGetResourceHandle();

  0010c	8b 70 0c	 mov	 esi, DWORD PTR [eax+12]
  0010f	89 b5 54 ff ff
	ff		 mov	 DWORD PTR ___mlrs__$3[ebp], esi
; File C:\Program Files (x86)\Microsoft Visual Studio\2019\Community\VC\Tools\MSVC\14.29.30133\atlmfc\include\afxwin1.inl

; 27   : 	{ ASSERT(hInstResource != NULL); afxCurrentResourceHandle = hInstResource; }

  00115	e8 00 00 00 00	 call	 ?AfxGetModuleState@@YGPAVAFX_MODULE_STATE@@XZ ; AfxGetModuleState
  0011a	89 78 0c	 mov	 DWORD PTR [eax+12], edi
; File D:\git\src\IBK\IBK_DRFN\ProjSrc\SrcChartEx\ChartOCX\ChartObject\GraphMove.cpp

; 76   : 			CString strFormat;

  0011d	8d 8d 70 ff ff
	ff		 lea	 ecx, DWORD PTR _strFormat$8[ebp]
  00123	ff 15 00 00 00
	00		 call	 DWORD PTR __imp_??0?$CStringT@DV?$StrTraitMFC_DLL@DV?$ChTraitsCRT@D@ATL@@@@@ATL@@QAE@XZ

; 77   : 			strFormat.LoadString( IDS_CANNOT_DELETE_IT);

  00129	6a 0a		 push	 10			; 0000000aH
  0012b	8d 8d 70 ff ff
	ff		 lea	 ecx, DWORD PTR _strFormat$8[ebp]
  00131	c6 45 fc 02	 mov	 BYTE PTR __$EHRec$[ebp+8], 2
  00135	ff 15 00 00 00
	00		 call	 DWORD PTR __imp_?LoadStringA@?$CStringT@DV?$StrTraitMFC_DLL@DV?$ChTraitsCRT@D@ATL@@@@@ATL@@QAEHI@Z

; 78   : 			CString strTitle;

  0013b	8d 8d 6c ff ff
	ff		 lea	 ecx, DWORD PTR _strTitle$6[ebp]
  00141	ff 15 00 00 00
	00		 call	 DWORD PTR __imp_??0?$CStringT@DV?$StrTraitMFC_DLL@DV?$ChTraitsCRT@D@ATL@@@@@ATL@@QAE@XZ

; 79   : 			strTitle.LoadString( IDS_NOTATION);

  00147	6a 0b		 push	 11			; 0000000bH
  00149	8d 8d 6c ff ff
	ff		 lea	 ecx, DWORD PTR _strTitle$6[ebp]
  0014f	c6 45 fc 03	 mov	 BYTE PTR __$EHRec$[ebp+8], 3
  00153	ff 15 00 00 00
	00		 call	 DWORD PTR __imp_?LoadStringA@?$CStringT@DV?$StrTraitMFC_DLL@DV?$ChTraitsCRT@D@ATL@@@@@ATL@@QAEHI@Z

; 80   : 			CString message;

  00159	8d 8d 74 ff ff
	ff		 lea	 ecx, DWORD PTR _message$10[ebp]
  0015f	ff 15 00 00 00
	00		 call	 DWORD PTR __imp_??0?$CStringT@DV?$StrTraitMFC_DLL@DV?$ChTraitsCRT@D@ATL@@@@@ATL@@QAE@XZ

; 81   : 			message.Format( strFormat, _MTOL2( strIndicatorName));

  00165	8b 85 68 ff ff
	ff		 mov	 eax, DWORD PTR _this$GSCopy$1$[ebp]
  0016b	b9 00 00 00 00	 mov	 ecx, OFFSET ?g_iMetaTable@@3VIMetaTable@@A ; g_iMetaTable
; File C:\Program Files (x86)\Microsoft Visual Studio\2019\Community\VC\Tools\MSVC\14.29.30133\atlmfc\include\atlsimpstr.h

; 377  : 		return( m_pszData );

  00170	8b bd 70 ff ff
	ff		 mov	 edi, DWORD PTR _strFormat$8[ebp]
; File D:\git\src\IBK\IBK_DRFN\ProjSrc\SrcChartEx\ChartOCX\ChartObject\GraphMove.cpp

; 81   : 			message.Format( strFormat, _MTOL2( strIndicatorName));

  00176	6a 00		 push	 0
  00178	ff b5 78 ff ff
	ff		 push	 DWORD PTR _strIndicatorName$11[ebp]
  0017e	c6 45 fc 04	 mov	 BYTE PTR __$EHRec$[ebp+8], 4
  00182	6a 02		 push	 2
  00184	ff 70 08	 push	 DWORD PTR [eax+8]
  00187	e8 00 00 00 00	 call	 ?GetLanguageText@IMetaTable@@QAEPBDPAUHWND__@@W4E_CODEPAGE@1@PBDH@Z ; IMetaTable::GetLanguageText
  0018c	50		 push	 eax
  0018d	8d 85 74 ff ff
	ff		 lea	 eax, DWORD PTR _message$10[ebp]
  00193	57		 push	 edi
  00194	50		 push	 eax
  00195	ff 15 00 00 00
	00		 call	 DWORD PTR __imp_?Format@?$CStringT@DV?$StrTraitMFC_DLL@DV?$ChTraitsCRT@D@ATL@@@@@ATL@@QAAXPBDZZ

; 82   : 			if( !m_pParent) AfxMessageBox(message, MB_ICONWARNING | MB_OK);

  0019b	8b 85 68 ff ff
	ff		 mov	 eax, DWORD PTR _this$GSCopy$1$[ebp]
  001a1	83 c4 0c	 add	 esp, 12			; 0000000cH
  001a4	8b 00		 mov	 eax, DWORD PTR [eax]
  001a6	85 c0		 test	 eax, eax
  001a8	75 10		 jne	 SHORT $LN4@GraphMovin
  001aa	50		 push	 eax
  001ab	6a 30		 push	 48			; 00000030H
  001ad	ff b5 74 ff ff
	ff		 push	 DWORD PTR _message$10[ebp]
  001b3	e8 00 00 00 00	 call	 ?AfxMessageBox@@YGHPBDII@Z ; AfxMessageBox
  001b8	eb 17		 jmp	 SHORT $LN5@GraphMovin
$LN4@GraphMovin:

; 83   : 			else MessageBox( m_pParent->m_hWnd, message, strTitle, MB_ICONWARNING | MB_OK);

  001ba	6a 30		 push	 48			; 00000030H
  001bc	ff b5 6c ff ff
	ff		 push	 DWORD PTR _strTitle$6[ebp]
  001c2	ff b5 74 ff ff
	ff		 push	 DWORD PTR _message$10[ebp]
  001c8	ff 70 20	 push	 DWORD PTR [eax+32]
  001cb	ff 15 00 00 00
	00		 call	 DWORD PTR __imp__MessageBoxA@16
$LN5@GraphMovin:

; 84   : 
; 85   : 			//NH:100528   .
; 86   : 			return false;

  001d1	8d 8d 74 ff ff
	ff		 lea	 ecx, DWORD PTR _message$10[ebp]
  001d7	ff 15 00 00 00
	00		 call	 DWORD PTR __imp_??1?$CStringT@DV?$StrTraitMFC_DLL@DV?$ChTraitsCRT@D@ATL@@@@@ATL@@QAE@XZ
  001dd	8d 8d 6c ff ff
	ff		 lea	 ecx, DWORD PTR _strTitle$6[ebp]
  001e3	ff 15 00 00 00
	00		 call	 DWORD PTR __imp_??1?$CStringT@DV?$StrTraitMFC_DLL@DV?$ChTraitsCRT@D@ATL@@@@@ATL@@QAE@XZ
  001e9	8d 8d 70 ff ff
	ff		 lea	 ecx, DWORD PTR _strFormat$8[ebp]
  001ef	ff 15 00 00 00
	00		 call	 DWORD PTR __imp_??1?$CStringT@DV?$StrTraitMFC_DLL@DV?$ChTraitsCRT@D@ATL@@@@@ATL@@QAE@XZ
; File D:\git\src\IBK\IBK_DRFN\ProjSrc\SrcChartEx\ChartOCX\Include_Chart\Dll_Load\IMetaTable.h

; 1036 : 	{

  001f5	c6 45 fc 05	 mov	 BYTE PTR __$EHRec$[ebp+8], 5
; File C:\Program Files (x86)\Microsoft Visual Studio\2019\Community\VC\Tools\MSVC\14.29.30133\atlmfc\include\afxwin1.inl

; 27   : 	{ ASSERT(hInstResource != NULL); afxCurrentResourceHandle = hInstResource; }

  001f9	e8 00 00 00 00	 call	 ?AfxGetModuleState@@YGPAVAFX_MODULE_STATE@@XZ ; AfxGetModuleState
; File D:\git\src\IBK\IBK_DRFN\ProjSrc\SrcChartEx\ChartOCX\ChartObject\GraphMove.cpp

; 94   : 		return pMainBlock->DeleteGraph( pSourceGraph->GetGraphData().GetGraphName2());

  001fe	8d 8d 78 ff ff
	ff		 lea	 ecx, DWORD PTR _strIndicatorName$11[ebp]
  00204	c6 85 7f ff ff
	ff 00		 mov	 BYTE PTR $T12[ebp], 0
; File C:\Program Files (x86)\Microsoft Visual Studio\2019\Community\VC\Tools\MSVC\14.29.30133\atlmfc\include\afxwin1.inl

; 27   : 	{ ASSERT(hInstResource != NULL); afxCurrentResourceHandle = hInstResource; }

  0020b	89 70 0c	 mov	 DWORD PTR [eax+12], esi
; File D:\git\src\IBK\IBK_DRFN\ProjSrc\SrcChartEx\ChartOCX\ChartObject\GraphMove.cpp

; 94   : 		return pMainBlock->DeleteGraph( pSourceGraph->GetGraphData().GetGraphName2());

  0020e	ff 15 00 00 00
	00		 call	 DWORD PTR __imp_??1?$CStringT@DV?$StrTraitMFC_DLL@DV?$ChTraitsCRT@D@ATL@@@@@ATL@@QAE@XZ
  00214	8a 85 7f ff ff
	ff		 mov	 al, BYTE PTR $T12[ebp]
  0021a	e9 f7 02 00 00	 jmp	 $LN1@GraphMovin
$LN3@GraphMovin:

; 87   : 		}
; 88   : 
; 89   : 		IChartCtrl *pChartCtrl = pMainBlock->GetIChartCtrl();

  0021f	8b 07		 mov	 eax, DWORD PTR [edi]
  00221	8b cf		 mov	 ecx, edi
  00223	8b 80 18 01 00
	00		 mov	 eax, DWORD PTR [eax+280]
  00229	ff d0		 call	 eax
  0022b	89 85 64 ff ff
	ff		 mov	 DWORD PTR _pChartCtrl$1$[ebp], eax

; 90   : 		if( !pChartCtrl) return false;

  00231	85 c0		 test	 eax, eax
  00233	75 1d		 jne	 SHORT $LN6@GraphMovin

; 94   : 		return pMainBlock->DeleteGraph( pSourceGraph->GetGraphData().GetGraphName2());

  00235	8d 8d 78 ff ff
	ff		 lea	 ecx, DWORD PTR _strIndicatorName$11[ebp]
  0023b	88 85 7f ff ff
	ff		 mov	 BYTE PTR $T12[ebp], al
  00241	ff 15 00 00 00
	00		 call	 DWORD PTR __imp_??1?$CStringT@DV?$StrTraitMFC_DLL@DV?$ChTraitsCRT@D@ATL@@@@@ATL@@QAE@XZ
  00247	8a 85 7f ff ff
	ff		 mov	 al, BYTE PTR $T12[ebp]
  0024d	e9 c4 02 00 00	 jmp	 $LN1@GraphMovin
$LN6@GraphMovin:

; 91   : 
; 92   : 		// (2006/12/13 - Seung-Won, Bae) Check Special Graph for Change One Chart Mode.
; 93   : 		if( g_iMetaTable.IsSpecialGroupGraph( strIndicatorName)) return pChartCtrl->AddRemoveGraph( strIndicatorName);

  00252	ff b5 78 ff ff
	ff		 push	 DWORD PTR _strIndicatorName$11[ebp]
  00258	b9 00 00 00 00	 mov	 ecx, OFFSET ?g_iMetaTable@@3VIMetaTable@@A ; g_iMetaTable
  0025d	e8 00 00 00 00	 call	 ?IsSpecialGroupGraph@IMetaTable@@QAE_NPBD@Z ; IMetaTable::IsSpecialGroupGraph
  00262	84 c0		 test	 al, al
  00264	74 30		 je	 SHORT $LN7@GraphMovin
  00266	8b 8d 64 ff ff
	ff		 mov	 ecx, DWORD PTR _pChartCtrl$1$[ebp]
  0026c	ff b5 78 ff ff
	ff		 push	 DWORD PTR _strIndicatorName$11[ebp]
  00272	8b 01		 mov	 eax, DWORD PTR [ecx]
  00274	8b 40 10	 mov	 eax, DWORD PTR [eax+16]
  00277	ff d0		 call	 eax

; 94   : 		return pMainBlock->DeleteGraph( pSourceGraph->GetGraphData().GetGraphName2());

  00279	8d 8d 78 ff ff
	ff		 lea	 ecx, DWORD PTR _strIndicatorName$11[ebp]
  0027f	88 85 7f ff ff
	ff		 mov	 BYTE PTR $T12[ebp], al
  00285	ff 15 00 00 00
	00		 call	 DWORD PTR __imp_??1?$CStringT@DV?$StrTraitMFC_DLL@DV?$ChTraitsCRT@D@ATL@@@@@ATL@@QAE@XZ
  0028b	8a 85 7f ff ff
	ff		 mov	 al, BYTE PTR $T12[ebp]
  00291	e9 80 02 00 00	 jmp	 $LN1@GraphMovin
$LN7@GraphMovin:
  00296	8d 85 64 ff ff
	ff		 lea	 eax, DWORD PTR $T4[ebp]
  0029c	8b ce		 mov	 ecx, esi
  0029e	50		 push	 eax
  0029f	e8 00 00 00 00	 call	 ?GetGraphData@CGraphImp@@QAEAAVCGraphData@@XZ ; CGraphImp::GetGraphData
  002a4	8b c8		 mov	 ecx, eax
  002a6	ff 15 00 00 00
	00		 call	 DWORD PTR __imp_?GetGraphName2@CGraphData@@QBE?AV?$CStringT@DV?$StrTraitMFC_DLL@DV?$ChTraitsCRT@D@ATL@@@@@ATL@@XZ
  002ac	50		 push	 eax
  002ad	8b 07		 mov	 eax, DWORD PTR [edi]
  002af	8b cf		 mov	 ecx, edi
  002b1	c6 45 fc 06	 mov	 BYTE PTR __$EHRec$[ebp+8], 6
  002b5	8b 40 1c	 mov	 eax, DWORD PTR [eax+28]
  002b8	ff d0		 call	 eax
  002ba	8d 8d 64 ff ff
	ff		 lea	 ecx, DWORD PTR $T4[ebp]
  002c0	88 85 7f ff ff
	ff		 mov	 BYTE PTR $T12[ebp], al
  002c6	ff 15 00 00 00
	00		 call	 DWORD PTR __imp_??1?$CStringT@DV?$StrTraitMFC_DLL@DV?$ChTraitsCRT@D@ATL@@@@@ATL@@QAE@XZ
  002cc	8d 8d 78 ff ff
	ff		 lea	 ecx, DWORD PTR _strIndicatorName$11[ebp]
  002d2	ff 15 00 00 00
	00		 call	 DWORD PTR __imp_??1?$CStringT@DV?$StrTraitMFC_DLL@DV?$ChTraitsCRT@D@ATL@@@@@ATL@@QAE@XZ
  002d8	8a 85 7f ff ff
	ff		 mov	 al, BYTE PTR $T12[ebp]
  002de	e9 33 02 00 00	 jmp	 $LN1@GraphMovin
$LN2@GraphMovin:

; 111  : 	if(nInsertRow < 0 || nInsertCol < 0)

  002e3	83 bd 60 ff ff
	ff 00		 cmp	 DWORD PTR _nInsertRow$[ebp], 0
  002ea	0f 8c 43 02 00
	00		 jl	 $LN8@GraphMovin
  002f0	83 bd 5c ff ff
	ff 00		 cmp	 DWORD PTR _nInsertCol$[ebp], 0
  002f7	0f 8c 36 02 00
	00		 jl	 $LN8@GraphMovin

; 112  : 		return false;
; 113  : 
; 114  : 	if(pMainBlock == NULL || pSourceGraph == NULL || !m_bGraphMoving)

  002fd	85 f6		 test	 esi, esi
  002ff	0f 84 0f 02 00
	00		 je	 $LN88@GraphMovin
  00305	8b 85 68 ff ff
	ff		 mov	 eax, DWORD PTR _this$GSCopy$1$[ebp]
  0030b	80 78 04 00	 cmp	 BYTE PTR [eax+4], 0
  0030f	0f 84 ff 01 00
	00		 je	 $LN88@GraphMovin

; 115  : 		return false;
; 116  : 	
; 117  : 	IChartCtrl *pChartCtrl = pMainBlock->GetIChartCtrl();

  00315	8b 07		 mov	 eax, DWORD PTR [edi]
  00317	8b cf		 mov	 ecx, edi
  00319	8b 80 18 01 00
	00		 mov	 eax, DWORD PTR [eax+280]
  0031f	ff d0		 call	 eax
  00321	89 85 54 ff ff
	ff		 mov	 DWORD PTR _pChartCtrl$1$[ebp], eax

; 118  : 	CString strIndicatorName = pSourceGraph->GetGraphData().GetIndicatorName2();

  00327	8b ce		 mov	 ecx, esi
  00329	8d 85 6c ff ff
	ff		 lea	 eax, DWORD PTR _strIndicatorName$5[ebp]
  0032f	50		 push	 eax
  00330	e8 00 00 00 00	 call	 ?GetGraphData@CGraphImp@@QAEAAVCGraphData@@XZ ; CGraphImp::GetGraphData
  00335	8b c8		 mov	 ecx, eax
  00337	ff 15 00 00 00
	00		 call	 DWORD PTR __imp_?GetIndicatorName2@CGraphData@@QBE?AV?$CStringT@DV?$StrTraitMFC_DLL@DV?$ChTraitsCRT@D@ATL@@@@@ATL@@XZ

; 119  : 
; 120  : 	// (2010/5/4 - Seung-Won, Bae) Fixed Area of Obvious Glance Balance Chart on X Scale Manager
; 121  : 	CString strData;

  0033d	8d 8d 70 ff ff
	ff		 lea	 ecx, DWORD PTR _strData$7[ebp]
  00343	c7 45 fc 07 00
	00 00		 mov	 DWORD PTR __$EHRec$[ebp+8], 7
  0034a	ff 15 00 00 00
	00		 call	 DWORD PTR __imp_??0?$CStringT@DV?$StrTraitMFC_DLL@DV?$ChTraitsCRT@D@ATL@@@@@ATL@@QAE@XZ

; 122  : 	CIndicatorInfo *pIndicatorInfo = pSourceGraph->GetIndicatorInfo();

  00350	8b ce		 mov	 ecx, esi
  00352	c6 45 fc 08	 mov	 BYTE PTR __$EHRec$[ebp+8], 8
  00356	e8 00 00 00 00	 call	 ?GetIndicatorInfo@CGraphImp@@QAEPAVCIndicatorInfo@@XZ ; CGraphImp::GetIndicatorInfo
  0035b	89 85 78 ff ff
	ff		 mov	 DWORD PTR _pIndicatorInfo$1$[ebp], eax

; 123  : 	if( pIndicatorInfo)

  00361	85 c0		 test	 eax, eax
  00363	74 26		 je	 SHORT $LN56@GraphMovin

; 124  : 	{
; 125  : 		pIndicatorInfo->GetGraphDataForMaking( strData);

  00365	8d 8d 70 ff ff
	ff		 lea	 ecx, DWORD PTR _strData$7[ebp]
  0036b	51		 push	 ecx
  0036c	8b c8		 mov	 ecx, eax
  0036e	ff 15 00 00 00
	00		 call	 DWORD PTR __imp_?GetGraphDataForMaking@CIndicatorInfo@@QBEXAAV?$CStringT@DV?$StrTraitMFC_DLL@DV?$ChTraitsCRT@D@ATL@@@@@ATL@@@Z

; 126  : 		pIndicatorInfo = CIndicatorInfo::Make( pIndicatorInfo);

  00374	ff b5 78 ff ff
	ff		 push	 DWORD PTR _pIndicatorInfo$1$[ebp]
  0037a	ff 15 00 00 00
	00		 call	 DWORD PTR __imp_?Make@CIndicatorInfo@@SAPAV1@PBV1@@Z
  00380	83 c4 04	 add	 esp, 4
  00383	89 85 78 ff ff
	ff		 mov	 DWORD PTR _pIndicatorInfo$1$[ebp], eax

; 127  : 	}

  00389	eb 4f		 jmp	 SHORT $LN57@GraphMovin
$LN56@GraphMovin:

; 128  : 	else
; 129  : 	{
; 130  : 		CStringList slGraphData;

  0038b	6a 0a		 push	 10			; 0000000aH
  0038d	8d 4d d4	 lea	 ecx, DWORD PTR _slGraphData$14[ebp]
  00390	e8 00 00 00 00	 call	 ??0CStringList@@QAE@H@Z	; CStringList::CStringList

; 131  : 		pSourceGraph->GetStringGraphData( slGraphData);

  00395	8d 45 d4	 lea	 eax, DWORD PTR _slGraphData$14[ebp]
  00398	c6 45 fc 09	 mov	 BYTE PTR __$EHRec$[ebp+8], 9
  0039c	50		 push	 eax
  0039d	8b ce		 mov	 ecx, esi
  0039f	e8 00 00 00 00	 call	 ?GetStringGraphData@CGraphImp@@QBEXAAVCStringList@@@Z ; CGraphImp::GetStringGraphData

; 132  : 		POSITION psnGraphData = slGraphData.GetHeadPosition();

  003a4	8b 75 d8	 mov	 esi, DWORD PTR _slGraphData$14[ebp+4]
  003a7	85 f6		 test	 esi, esi

; 133  : 		while( psnGraphData) strData += slGraphData.GetNext( psnGraphData);

  003a9	74 1d		 je	 SHORT $LN51@GraphMovin
  003ab	0f 1f 44 00 00	 npad	 5
$LL50@GraphMovin:
; File C:\Program Files (x86)\Microsoft Visual Studio\2019\Community\VC\Tools\MSVC\14.29.30133\atlmfc\include\afxcoll.inl

; 501  : 	{ CNode* pNode = (CNode*) rPosition;

  003b0	8b c6		 mov	 eax, esi
; File D:\git\src\IBK\IBK_DRFN\ProjSrc\SrcChartEx\ChartOCX\ChartObject\GraphMove.cpp

; 133  : 		while( psnGraphData) strData += slGraphData.GetNext( psnGraphData);

  003b2	8d 8d 70 ff ff
	ff		 lea	 ecx, DWORD PTR _strData$7[ebp]
; File C:\Program Files (x86)\Microsoft Visual Studio\2019\Community\VC\Tools\MSVC\14.29.30133\atlmfc\include\afxcoll.inl

; 505  : 		rPosition = (POSITION) pNode->pNext;

  003b8	8b 36		 mov	 esi, DWORD PTR [esi]

; 506  : 		return pNode->data; }

  003ba	83 c0 08	 add	 eax, 8
; File D:\git\src\IBK\IBK_DRFN\ProjSrc\SrcChartEx\ChartOCX\ChartObject\GraphMove.cpp

; 133  : 		while( psnGraphData) strData += slGraphData.GetNext( psnGraphData);

  003bd	50		 push	 eax
  003be	ff 15 00 00 00
	00		 call	 DWORD PTR __imp_??Y?$CStringT@DV?$StrTraitMFC_DLL@DV?$ChTraitsCRT@D@ATL@@@@@ATL@@QAEAAV01@ABV?$CSimpleStringT@D$00@1@@Z
  003c4	85 f6		 test	 esi, esi
  003c6	75 e8		 jne	 SHORT $LL50@GraphMovin
$LN51@GraphMovin:

; 134  : 	}

  003c8	8d 4d d4	 lea	 ecx, DWORD PTR _slGraphData$14[ebp]
  003cb	c6 45 fc 08	 mov	 BYTE PTR __$EHRec$[ebp+8], 8
  003cf	e8 00 00 00 00	 call	 ??1CStringList@@UAE@XZ	; CStringList::~CStringList
  003d4	8b b5 58 ff ff
	ff		 mov	 esi, DWORD PTR _pSourceGraph$GSCopy$1$[ebp]
$LN57@GraphMovin:

; 135  : 
; 136  : 	CString strGraphName( pSourceGraph->GetGraphData().GetGraphName2());

  003da	8d 85 74 ff ff
	ff		 lea	 eax, DWORD PTR _strGraphName$9[ebp]
  003e0	8b ce		 mov	 ecx, esi
  003e2	50		 push	 eax
  003e3	e8 00 00 00 00	 call	 ?GetGraphData@CGraphImp@@QAEAAVCGraphData@@XZ ; CGraphImp::GetGraphData
  003e8	8b c8		 mov	 ecx, eax
  003ea	ff 15 00 00 00
	00		 call	 DWORD PTR __imp_?GetGraphName2@CGraphData@@QBE?AV?$CStringT@DV?$StrTraitMFC_DLL@DV?$ChTraitsCRT@D@ATL@@@@@ATL@@XZ

; 137  : 	CPacketRQ *pPacketRQ = pSourceGraph->GetPacketRQ();

  003f0	8b ce		 mov	 ecx, esi
  003f2	c6 45 fc 0a	 mov	 BYTE PTR __$EHRec$[ebp+8], 10 ; 0000000aH
  003f6	e8 00 00 00 00	 call	 ?GetPacketRQ@CGraphImp@@QAEPAVCPacketRQ@@XZ ; CGraphImp::GetPacketRQ

; 138  : 	if( g_iMetaTable.IsSpecialGroupGraph( strIndicatorName)) 

  003fb	ff b5 6c ff ff
	ff		 push	 DWORD PTR _strIndicatorName$5[ebp]
  00401	b9 00 00 00 00	 mov	 ecx, OFFSET ?g_iMetaTable@@3VIMetaTable@@A ; g_iMetaTable
  00406	89 85 58 ff ff
	ff		 mov	 DWORD PTR _pPacketRQ$1$[ebp], eax
  0040c	e8 00 00 00 00	 call	 ?IsSpecialGroupGraph@IMetaTable@@QAE_NPBD@Z ; IMetaTable::IsSpecialGroupGraph
  00411	84 c0		 test	 al, al
  00413	74 15		 je	 SHORT $LN58@GraphMovin

; 139  : 		pChartCtrl->AddRemoveGraph( strIndicatorName);

  00415	8b 85 54 ff ff
	ff		 mov	 eax, DWORD PTR _pChartCtrl$1$[ebp]
  0041b	8b c8		 mov	 ecx, eax
  0041d	ff b5 6c ff ff
	ff		 push	 DWORD PTR _strIndicatorName$5[ebp]
  00423	8b 10		 mov	 edx, DWORD PTR [eax]
  00425	ff 52 10	 call	 DWORD PTR [edx+16]
  00428	eb 0e		 jmp	 SHORT $LN59@GraphMovin
$LN58@GraphMovin:

; 140  : 	else
; 141  : 		pMainBlock->DeleteGraph( strGraphName);

  0042a	8b 07		 mov	 eax, DWORD PTR [edi]
  0042c	8d 8d 74 ff ff
	ff		 lea	 ecx, DWORD PTR _strGraphName$9[ebp]
  00432	51		 push	 ecx
  00433	8b cf		 mov	 ecx, edi
  00435	ff 50 1c	 call	 DWORD PTR [eax+28]
$LN59@GraphMovin:
; File D:\git\src\IBK\IBK_DRFN\ProjSrc\SrcChartEx\ChartOCX\Include_Chart\BlockBaseData.h

; 20   : 	CBlockIndex( const int row, const int column)		{	m_nRow = row;	m_nColumn = column;		}

  00438	8b 85 60 ff ff
	ff		 mov	 eax, DWORD PTR _nInsertRow$[ebp]
; File D:\git\src\IBK\IBK_DRFN\ProjSrc\SrcChartEx\ChartOCX\ChartObject\GraphMove.cpp

; 143  : 	bool bresult = pMainBlock->InsertGraphInBlock( pPacketRQ, CBlockIndex( nInsertRow, nInsertCol), 0, strData, TRUE, TRUE, TRUE);

  0043e	8d 8d 70 ff ff
	ff		 lea	 ecx, DWORD PTR _strData$7[ebp]
  00444	6a 01		 push	 1
  00446	6a 01		 push	 1
  00448	6a 01		 push	 1
  0044a	51		 push	 ecx
; File D:\git\src\IBK\IBK_DRFN\ProjSrc\SrcChartEx\ChartOCX\Include_Chart\BlockBaseData.h

; 20   : 	CBlockIndex( const int row, const int column)		{	m_nRow = row;	m_nColumn = column;		}

  0044b	89 85 50 ff ff
	ff		 mov	 DWORD PTR $T2[ebp], eax
; File D:\git\src\IBK\IBK_DRFN\ProjSrc\SrcChartEx\ChartOCX\ChartObject\GraphMove.cpp

; 143  : 	bool bresult = pMainBlock->InsertGraphInBlock( pPacketRQ, CBlockIndex( nInsertRow, nInsertCol), 0, strData, TRUE, TRUE, TRUE);

  00451	8d 8d 50 ff ff
	ff		 lea	 ecx, DWORD PTR $T2[ebp]
; File D:\git\src\IBK\IBK_DRFN\ProjSrc\SrcChartEx\ChartOCX\Include_Chart\BlockBaseData.h

; 20   : 	CBlockIndex( const int row, const int column)		{	m_nRow = row;	m_nColumn = column;		}

  00457	8b 85 5c ff ff
	ff		 mov	 eax, DWORD PTR _nInsertCol$[ebp]
  0045d	89 85 54 ff ff
	ff		 mov	 DWORD PTR $T2[ebp+4], eax
; File D:\git\src\IBK\IBK_DRFN\ProjSrc\SrcChartEx\ChartOCX\ChartObject\GraphMove.cpp

; 143  : 	bool bresult = pMainBlock->InsertGraphInBlock( pPacketRQ, CBlockIndex( nInsertRow, nInsertCol), 0, strData, TRUE, TRUE, TRUE);

  00463	8b 07		 mov	 eax, DWORD PTR [edi]
  00465	6a 00		 push	 0
  00467	51		 push	 ecx
  00468	ff b5 58 ff ff
	ff		 push	 DWORD PTR _pPacketRQ$1$[ebp]
  0046e	8b 40 38	 mov	 eax, DWORD PTR [eax+56]
  00471	8b cf		 mov	 ecx, edi
  00473	ff d0		 call	 eax
  00475	85 c0		 test	 eax, eax

; 144  : 
; 145  : 	CIndicatorList *pIndicatorList = pMainBlock->GetIndicatorList();

  00477	8b cf		 mov	 ecx, edi
  00479	8b 07		 mov	 eax, DWORD PTR [edi]
  0047b	0f 95 85 7f ff
	ff ff		 setne	 BYTE PTR _bresult$1$[ebp]
  00482	8b 80 40 02 00
	00		 mov	 eax, DWORD PTR [eax+576]
  00488	ff d0		 call	 eax

; 146  : 	if( pIndicatorInfo && pIndicatorList)

  0048a	83 bd 78 ff ff
	ff 00		 cmp	 DWORD PTR _pIndicatorInfo$1$[ebp], 0
  00491	74 4d		 je	 SHORT $LN63@GraphMovin
  00493	85 c0		 test	 eax, eax
  00495	74 49		 je	 SHORT $LN63@GraphMovin

; 147  : 	{
; 148  : 		CIndicatorInfo *pNewIndicatorInfo = pIndicatorList->GetGraphIndicatorInfo( EILT_USER, strGraphName, strIndicatorName, EIIGT_WITHOUT_DEFAULT);

  00497	6a 00		 push	 0
  00499	ff b5 6c ff ff
	ff		 push	 DWORD PTR _strIndicatorName$5[ebp]
  0049f	8b c8		 mov	 ecx, eax
  004a1	ff b5 74 ff ff
	ff		 push	 DWORD PTR _strGraphName$9[ebp]
  004a7	6a 03		 push	 3
  004a9	ff 15 00 00 00
	00		 call	 DWORD PTR __imp_?GetGraphIndicatorInfo@CIndicatorList@@QAEPAVCIndicatorInfo@@W4EIndicatorListType@@PBD1W4EIndicatorInfoGettingType@@@Z

; 149  : 		if( pNewIndicatorInfo)

  004af	85 c0		 test	 eax, eax
  004b1	74 2d		 je	 SHORT $LN63@GraphMovin

; 150  : 		{
; 151  : 			pNewIndicatorInfo->CopyDataWithVerificationFrom( *pIndicatorInfo);

  004b3	ff b5 78 ff ff
	ff		 push	 DWORD PTR _pIndicatorInfo$1$[ebp]
  004b9	8b c8		 mov	 ecx, eax
  004bb	ff 15 00 00 00
	00		 call	 DWORD PTR __imp_?CopyDataWithVerificationFrom@CIndicatorInfo@@QAE_NABV1@@Z

; 152  : 			pMainBlock->ChangeGraphDataFromIndicatorInfo( strGraphName, true);

  004c1	8b 07		 mov	 eax, DWORD PTR [edi]
  004c3	8d 8d 74 ff ff
	ff		 lea	 ecx, DWORD PTR _strGraphName$9[ebp]
  004c9	6a 01		 push	 1
  004cb	51		 push	 ecx
  004cc	8b cf		 mov	 ecx, edi
  004ce	ff 90 88 00 00
	00		 call	 DWORD PTR [eax+136]

; 153  : 			delete pIndicatorInfo;

  004d4	8b 8d 78 ff ff
	ff		 mov	 ecx, DWORD PTR _pIndicatorInfo$1$[ebp]
  004da	6a 01		 push	 1
  004dc	8b 01		 mov	 eax, DWORD PTR [ecx]
  004de	ff 10		 call	 DWORD PTR [eax]
$LN63@GraphMovin:

; 154  : 		}
; 155  : 	}
; 156  : 
; 157  : 	return bresult;

  004e0	8d 8d 74 ff ff
	ff		 lea	 ecx, DWORD PTR _strGraphName$9[ebp]
  004e6	ff 15 00 00 00
	00		 call	 DWORD PTR __imp_??1?$CStringT@DV?$StrTraitMFC_DLL@DV?$ChTraitsCRT@D@ATL@@@@@ATL@@QAE@XZ
  004ec	8d 8d 70 ff ff
	ff		 lea	 ecx, DWORD PTR _strData$7[ebp]
  004f2	ff 15 00 00 00
	00		 call	 DWORD PTR __imp_??1?$CStringT@DV?$StrTraitMFC_DLL@DV?$ChTraitsCRT@D@ATL@@@@@ATL@@QAE@XZ
  004f8	8d 8d 6c ff ff
	ff		 lea	 ecx, DWORD PTR _strIndicatorName$5[ebp]
  004fe	c7 45 fc ff ff
	ff ff		 mov	 DWORD PTR __$EHRec$[ebp+8], -1
  00505	ff 15 00 00 00
	00		 call	 DWORD PTR __imp_??1?$CStringT@DV?$StrTraitMFC_DLL@DV?$ChTraitsCRT@D@ATL@@@@@ATL@@QAE@XZ

; 95   : 	}
; 96   : 	
; 97   : 	// Graph / - ojtaso (20070731)
; 98   : 	if(IsGraphInsert(pMainBlock, pSourceGraph, targetPoint, targetGraphRegion, nInsertCol, nInsertRow))

  0050b	80 bd 7f ff ff
	ff 00		 cmp	 BYTE PTR _bresult$1$[ebp], 0
  00512	74 23		 je	 SHORT $LN103@GraphMovin
$LN88@GraphMovin:

; 99   : 		return false;
; 100  : 
; 101  : 	if(!IsGraphMoving(pMainBlock, pSourceGraph, targetPoint, targetGraphRegion))
; 102  : 		return false;

  00514	32 c0		 xor	 al, al
$LN1@GraphMovin:

; 106  : }

  00516	8b 4d f4	 mov	 ecx, DWORD PTR __$EHRec$[ebp]
  00519	64 89 0d 00 00
	00 00		 mov	 DWORD PTR fs:0, ecx
  00520	59		 pop	 ecx
  00521	5f		 pop	 edi
  00522	5e		 pop	 esi
  00523	8b 4d f0	 mov	 ecx, DWORD PTR __$ArrayPad$[ebp]
  00526	33 cd		 xor	 ecx, ebp
  00528	e8 00 00 00 00	 call	 @__security_check_cookie@4
  0052d	8b e5		 mov	 esp, ebp
  0052f	5d		 pop	 ebp
  00530	c2 0c 00	 ret	 12			; 0000000cH
$LN8@GraphMovin:

; 170  : 	if(pMainBlock == NULL || pSourceGraph == NULL || !m_bGraphMoving)

  00533	85 f6		 test	 esi, esi
  00535	74 dd		 je	 SHORT $LN88@GraphMovin
$LN103@GraphMovin:
  00537	8b 85 68 ff ff
	ff		 mov	 eax, DWORD PTR _this$GSCopy$1$[ebp]
  0053d	80 78 04 00	 cmp	 BYTE PTR [eax+4], 0
  00541	74 d1		 je	 SHORT $LN88@GraphMovin

; 171  : 		return false;
; 172  : 
; 173  : 	//    graph   .
; 174  : 	CRect sourceGraphRegion = pSourceGraph->GetVertScaleGroupList()->GetGraphRegions().GetNoFrameRegion();

  00543	8d 45 80	 lea	 eax, DWORD PTR $T13[ebp]
  00546	8b ce		 mov	 ecx, esi
  00548	50		 push	 eax
  00549	e8 00 00 00 00	 call	 ?GetVertScaleGroupList@CGraphImp@@QBEPAVCVertScaleGroupList@@XZ ; CGraphImp::GetVertScaleGroupList
  0054e	8b c8		 mov	 ecx, eax
  00550	e8 00 00 00 00	 call	 ?GetGraphRegions@CVertScaleGroupList@@QBE?AVCGraphRegions@@XZ ; CVertScaleGroupList::GetGraphRegions
; File D:\git\src\IBK\IBK_DRFN\ProjSrc\SrcChartEx\ChartOCX\Include_Chart\BaseData.h

; 93   : 	CRect	GetNoFrameRegion() const			{	return m_rctNoFrameRegion;	}

  00555	0f 10 40 14	 movups	 xmm0, XMMWORD PTR [eax+20]
; File C:\Program Files (x86)\Microsoft Visual Studio\2019\Community\VC\Tools\MSVC\14.29.30133\atlmfc\include\atltypes.h

; 648  : 	return ::PtInRect(this, point);

  00559	8b 85 64 ff ff
	ff		 mov	 eax, DWORD PTR _targetPoint$GSCopy$1$[ebp]
; File D:\git\src\IBK\IBK_DRFN\ProjSrc\SrcChartEx\ChartOCX\Include_Chart\BaseData.h

; 93   : 	CRect	GetNoFrameRegion() const			{	return m_rctNoFrameRegion;	}

  0055f	0f 11 45 e0	 movups	 XMMWORD PTR _sourceGraphRegion$15[ebp], xmm0
; File C:\Program Files (x86)\Microsoft Visual Studio\2019\Community\VC\Tools\MSVC\14.29.30133\atlmfc\include\atltypes.h

; 648  : 	return ::PtInRect(this, point);

  00563	ff 70 04	 push	 DWORD PTR [eax+4]
  00566	ff 30		 push	 DWORD PTR [eax]
  00568	8d 45 e0	 lea	 eax, DWORD PTR _sourceGraphRegion$15[ebp]
  0056b	50		 push	 eax
  0056c	ff 15 00 00 00
	00		 call	 DWORD PTR __imp__PtInRect@12
; File D:\git\src\IBK\IBK_DRFN\ProjSrc\SrcChartEx\ChartOCX\ChartObject\GraphMove.cpp

; 175  : 	if(sourceGraphRegion.PtInRect(targetPoint) || !targetGraphRegion.PtInRect(targetPoint))

  00572	85 c0		 test	 eax, eax
  00574	75 9e		 jne	 SHORT $LN88@GraphMovin
; File C:\Program Files (x86)\Microsoft Visual Studio\2019\Community\VC\Tools\MSVC\14.29.30133\atlmfc\include\atltypes.h

; 648  : 	return ::PtInRect(this, point);

  00576	8b 85 64 ff ff
	ff		 mov	 eax, DWORD PTR _targetPoint$GSCopy$1$[ebp]
  0057c	ff 70 04	 push	 DWORD PTR [eax+4]
  0057f	ff 30		 push	 DWORD PTR [eax]
  00581	8d 45 c4	 lea	 eax, DWORD PTR _targetGraphRegion$[ebp]
  00584	50		 push	 eax
  00585	ff 15 00 00 00
	00		 call	 DWORD PTR __imp__PtInRect@12
; File D:\git\src\IBK\IBK_DRFN\ProjSrc\SrcChartEx\ChartOCX\ChartObject\GraphMove.cpp

; 175  : 	if(sourceGraphRegion.PtInRect(targetPoint) || !targetGraphRegion.PtInRect(targetPoint))

  0058b	85 c0		 test	 eax, eax
  0058d	74 85		 je	 SHORT $LN88@GraphMovin

; 103  : 
; 104  : 	LoadDialog_GraphMoving(pMainBlock, pSourceGraph, targetPoint);

  0058f	8b 85 64 ff ff
	ff		 mov	 eax, DWORD PTR _targetPoint$GSCopy$1$[ebp]
  00595	8b 8d 68 ff ff
	ff		 mov	 ecx, DWORD PTR _this$GSCopy$1$[ebp]
  0059b	50		 push	 eax
  0059c	56		 push	 esi
  0059d	57		 push	 edi
  0059e	e8 00 00 00 00	 call	 ?LoadDialog_GraphMoving@CGraphMove@@AAE_NPAVCMainBlock@@PAVCGraphImp@@ABVCPoint@@@Z ; CGraphMove::LoadDialog_GraphMoving

; 105  : 	return true;

  005a3	b0 01		 mov	 al, 1
  005a5	e9 6c ff ff ff	 jmp	 $LN1@GraphMovin
_TEXT	ENDS
;	COMDAT text$x
text$x	SEGMENT
__unwindfunclet$?GraphMoving@CGraphMove@@QAE_NPAVCMainBlock@@PAVCGraphImp@@ABVCPoint@@@Z$0:
  00000	8d 8d 78 ff ff
	ff		 lea	 ecx, DWORD PTR _strIndicatorName$11[ebp]
  00006	ff 25 00 00 00
	00		 jmp	 DWORD PTR __imp_??1?$CStringT@DV?$StrTraitMFC_DLL@DV?$ChTraitsCRT@D@ATL@@@@@ATL@@QAE@XZ
__unwindfunclet$?GraphMoving@CGraphMove@@QAE_NPAVCMainBlock@@PAVCGraphImp@@ABVCPoint@@@Z$1:
  0000c	8d 8d 54 ff ff
	ff		 lea	 ecx, DWORD PTR ___mlrs__$3[ebp]
  00012	e9 00 00 00 00	 jmp	 ??1CMultiLanguageResourceSetter@@QAE@XZ ; CMultiLanguageResourceSetter::~CMultiLanguageResourceSetter
__unwindfunclet$?GraphMoving@CGraphMove@@QAE_NPAVCMainBlock@@PAVCGraphImp@@ABVCPoint@@@Z$2:
  00017	8d 8d 70 ff ff
	ff		 lea	 ecx, DWORD PTR _strFormat$8[ebp]
  0001d	ff 25 00 00 00
	00		 jmp	 DWORD PTR __imp_??1?$CStringT@DV?$StrTraitMFC_DLL@DV?$ChTraitsCRT@D@ATL@@@@@ATL@@QAE@XZ
__unwindfunclet$?GraphMoving@CGraphMove@@QAE_NPAVCMainBlock@@PAVCGraphImp@@ABVCPoint@@@Z$3:
  00023	8d 8d 6c ff ff
	ff		 lea	 ecx, DWORD PTR _strTitle$6[ebp]
  00029	ff 25 00 00 00
	00		 jmp	 DWORD PTR __imp_??1?$CStringT@DV?$StrTraitMFC_DLL@DV?$ChTraitsCRT@D@ATL@@@@@ATL@@QAE@XZ
__unwindfunclet$?GraphMoving@CGraphMove@@QAE_NPAVCMainBlock@@PAVCGraphImp@@ABVCPoint@@@Z$4:
  0002f	8d 8d 74 ff ff
	ff		 lea	 ecx, DWORD PTR _message$10[ebp]
  00035	ff 25 00 00 00
	00		 jmp	 DWORD PTR __imp_??1?$CStringT@DV?$StrTraitMFC_DLL@DV?$ChTraitsCRT@D@ATL@@@@@ATL@@QAE@XZ
__unwindfunclet$?GraphMoving@CGraphMove@@QAE_NPAVCMainBlock@@PAVCGraphImp@@ABVCPoint@@@Z$5:
  0003b	8d 8d 64 ff ff
	ff		 lea	 ecx, DWORD PTR $T4[ebp]
  00041	ff 25 00 00 00
	00		 jmp	 DWORD PTR __imp_??1?$CStringT@DV?$StrTraitMFC_DLL@DV?$ChTraitsCRT@D@ATL@@@@@ATL@@QAE@XZ
__unwindfunclet$?GraphMoving@CGraphMove@@QAE_NPAVCMainBlock@@PAVCGraphImp@@ABVCPoint@@@Z$7:
  00047	8d 8d 6c ff ff
	ff		 lea	 ecx, DWORD PTR _strIndicatorName$5[ebp]
  0004d	ff 25 00 00 00
	00		 jmp	 DWORD PTR __imp_??1?$CStringT@DV?$StrTraitMFC_DLL@DV?$ChTraitsCRT@D@ATL@@@@@ATL@@QAE@XZ
__unwindfunclet$?GraphMoving@CGraphMove@@QAE_NPAVCMainBlock@@PAVCGraphImp@@ABVCPoint@@@Z$8:
  00053	8d 8d 70 ff ff
	ff		 lea	 ecx, DWORD PTR _strData$7[ebp]
  00059	ff 25 00 00 00
	00		 jmp	 DWORD PTR __imp_??1?$CStringT@DV?$StrTraitMFC_DLL@DV?$ChTraitsCRT@D@ATL@@@@@ATL@@QAE@XZ
__unwindfunclet$?GraphMoving@CGraphMove@@QAE_NPAVCMainBlock@@PAVCGraphImp@@ABVCPoint@@@Z$9:
  0005f	8d 4d d4	 lea	 ecx, DWORD PTR _slGraphData$14[ebp]
  00062	e9 00 00 00 00	 jmp	 ??1CStringList@@UAE@XZ	; CStringList::~CStringList
__unwindfunclet$?GraphMoving@CGraphMove@@QAE_NPAVCMainBlock@@PAVCGraphImp@@ABVCPoint@@@Z$10:
  00067	8d 8d 74 ff ff
	ff		 lea	 ecx, DWORD PTR _strGraphName$9[ebp]
  0006d	ff 25 00 00 00
	00		 jmp	 DWORD PTR __imp_??1?$CStringT@DV?$StrTraitMFC_DLL@DV?$ChTraitsCRT@D@ATL@@@@@ATL@@QAE@XZ
  00073	cc		 int	 3
  00074	cc		 int	 3
  00075	cc		 int	 3
  00076	cc		 int	 3
  00077	cc		 int	 3
__ehhandler$?GraphMoving@CGraphMove@@QAE_NPAVCMainBlock@@PAVCGraphImp@@ABVCPoint@@@Z:
  00078	90		 npad	 1
  00079	90		 npad	 1
  0007a	8b 54 24 08	 mov	 edx, DWORD PTR [esp+8]
  0007e	8d 42 0c	 lea	 eax, DWORD PTR [edx+12]
  00081	8b 8a 50 ff ff
	ff		 mov	 ecx, DWORD PTR [edx-176]
  00087	33 c8		 xor	 ecx, eax
  00089	e8 00 00 00 00	 call	 @__security_check_cookie@4
  0008e	8b 4a fc	 mov	 ecx, DWORD PTR [edx-4]
  00091	33 c8		 xor	 ecx, eax
  00093	e8 00 00 00 00	 call	 @__security_check_cookie@4
  00098	b8 00 00 00 00	 mov	 eax, OFFSET __ehfuncinfo$?GraphMoving@CGraphMove@@QAE_NPAVCMainBlock@@PAVCGraphImp@@ABVCPoint@@@Z
  0009d	e9 00 00 00 00	 jmp	 ___CxxFrameHandler3
text$x	ENDS
?GraphMoving@CGraphMove@@QAE_NPAVCMainBlock@@PAVCGraphImp@@ABVCPoint@@@Z ENDP ; CGraphMove::GraphMoving
; Function compile flags: /Ogtp
; File D:\git\src\IBK\IBK_DRFN\ProjSrc\SrcChartEx\ChartOCX\ChartObject\GraphMove.cpp
;	COMDAT ?IsGraphMoving@CGraphMove@@QBE_NXZ
_TEXT	SEGMENT
?IsGraphMoving@CGraphMove@@QBE_NXZ PROC			; CGraphMove::IsGraphMoving, COMDAT
; _this$ = ecx

; 53   : 	return m_bGraphMoving;

  00000	8a 41 04	 mov	 al, BYTE PTR [ecx+4]

; 54   : }

  00003	c3		 ret	 0
?IsGraphMoving@CGraphMove@@QBE_NXZ ENDP			; CGraphMove::IsGraphMoving
_TEXT	ENDS
; Function compile flags: /Ogtp
; File D:\git\src\IBK\IBK_DRFN\ProjSrc\SrcChartEx\ChartOCX\ChartObject\GraphMove.cpp
;	COMDAT ?SetGraphMoving@CGraphMove@@QAEX_N@Z
_TEXT	SEGMENT
_bGraphMoving$ = 8					; size = 1
?SetGraphMoving@CGraphMove@@QAEX_N@Z PROC		; CGraphMove::SetGraphMoving, COMDAT
; _this$ = ecx

; 46   : {

  00000	55		 push	 ebp
  00001	8b ec		 mov	 ebp, esp

; 47   : 	m_bGraphMoving = bGraphMoving;

  00003	8a 45 08	 mov	 al, BYTE PTR _bGraphMoving$[ebp]
  00006	88 41 04	 mov	 BYTE PTR [ecx+4], al

; 48   : }

  00009	5d		 pop	 ebp
  0000a	c2 04 00	 ret	 4
?SetGraphMoving@CGraphMove@@QAEX_N@Z ENDP		; CGraphMove::SetGraphMoving
_TEXT	ENDS
; Function compile flags: /Ogtp
; File D:\git\src\IBK\IBK_DRFN\ProjSrc\SrcChartEx\ChartOCX\ChartObject\GraphMove.cpp
; File C:\Program Files (x86)\Microsoft Visual Studio\2019\Community\VC\Tools\MSVC\14.29.30133\atlmfc\include\afxwin2.inl
; File D:\git\src\IBK\IBK_DRFN\ProjSrc\SrcChartEx\ChartOCX\ChartObject\GraphMove.cpp
;	COMDAT ?InitializeAllData@CGraphMove@@QAEXPAVCWnd@@@Z
_TEXT	SEGMENT
_pParent$ = 8						; size = 4
?InitializeAllData@CGraphMove@@QAEXPAVCWnd@@@Z PROC	; CGraphMove::InitializeAllData, COMDAT
; _this$ = ecx

; 37   : {

  00000	55		 push	 ebp
  00001	8b ec		 mov	 ebp, esp

; 38   : 	m_pParent = pParent;

  00003	8b 45 08	 mov	 eax, DWORD PTR _pParent$[ebp]
  00006	89 01		 mov	 DWORD PTR [ecx], eax

; 39   : 	m_bGraphMoving = false;

  00008	c6 41 04 00	 mov	 BYTE PTR [ecx+4], 0

; 42   : 	if( m_pParent) m_hOcxWnd = pParent->GetSafeHwnd();

  0000c	85 c0		 test	 eax, eax
  0000e	74 06		 je	 SHORT $LN2@Initialize
; File C:\Program Files (x86)\Microsoft Visual Studio\2019\Community\VC\Tools\MSVC\14.29.30133\atlmfc\include\afxwin2.inl

; 25   : 	{ return this == NULL ? NULL : m_hWnd; }

  00010	8b 40 20	 mov	 eax, DWORD PTR [eax+32]
; File D:\git\src\IBK\IBK_DRFN\ProjSrc\SrcChartEx\ChartOCX\ChartObject\GraphMove.cpp

; 42   : 	if( m_pParent) m_hOcxWnd = pParent->GetSafeHwnd();

  00013	89 41 08	 mov	 DWORD PTR [ecx+8], eax
$LN2@Initialize:

; 43   : }

  00016	5d		 pop	 ebp
  00017	c2 04 00	 ret	 4
?InitializeAllData@CGraphMove@@QAEXPAVCWnd@@@Z ENDP	; CGraphMove::InitializeAllData
_TEXT	ENDS
; Function compile flags: /Ogtp
; File D:\git\src\IBK\IBK_DRFN\ProjSrc\SrcChartEx\ChartOCX\ChartObject\GraphMove.cpp
;	COMDAT ??0CGraphMove@@QAE@PAVCWnd@@@Z
_TEXT	SEGMENT
_pParent$ = 8						; size = 4
??0CGraphMove@@QAE@PAVCWnd@@@Z PROC			; CGraphMove::CGraphMove, COMDAT
; _this$ = ecx

; 29   : {

  00000	55		 push	 ebp
  00001	8b ec		 mov	 ebp, esp

; 27   : 	m_pParent(pParent),

  00003	8b 45 08	 mov	 eax, DWORD PTR _pParent$[ebp]
  00006	89 01		 mov	 DWORD PTR [ecx], eax

; 30   : 	// (2008/1/22 - Seung-Won, Bae) for Multi-Language
; 31   : 	m_hOcxWnd = NULL;
; 32   : }

  00008	8b c1		 mov	 eax, ecx
  0000a	c6 41 04 00	 mov	 BYTE PTR [ecx+4], 0
  0000e	c7 41 08 00 00
	00 00		 mov	 DWORD PTR [ecx+8], 0
  00015	5d		 pop	 ebp
  00016	c2 04 00	 ret	 4
??0CGraphMove@@QAE@PAVCWnd@@@Z ENDP			; CGraphMove::CGraphMove
_TEXT	ENDS
; Function compile flags: /Ogtp
; File C:\Program Files (x86)\Microsoft Visual Studio\2019\Community\VC\Tools\MSVC\14.29.30133\atlmfc\include\afx.inl
;	COMDAT ?Dump@CObject@@UBEXAAVCDumpContext@@@Z
_TEXT	SEGMENT
___formal$ = 8						; size = 4
?Dump@CObject@@UBEXAAVCDumpContext@@@Z PROC		; CObject::Dump, COMDAT
; _this$ = ecx

; 122  : 	{ /* no dumping in release builds */ }

  00000	c2 04 00	 ret	 4
?Dump@CObject@@UBEXAAVCDumpContext@@@Z ENDP		; CObject::Dump
_TEXT	ENDS
; Function compile flags: /Ogtp
; File C:\Program Files (x86)\Microsoft Visual Studio\2019\Community\VC\Tools\MSVC\14.29.30133\atlmfc\include\afx.inl
;	COMDAT ?AssertValid@CObject@@UBEXXZ
_TEXT	SEGMENT
?AssertValid@CObject@@UBEXXZ PROC			; CObject::AssertValid, COMDAT
; _this$ = ecx

; 120  : 	{ /* no asserts in release builds */ }

  00000	c2 00 00	 ret	 0
?AssertValid@CObject@@UBEXXZ ENDP			; CObject::AssertValid
_TEXT	ENDS
; Function compile flags: /Ogtp
; File C:\Program Files (x86)\Microsoft Visual Studio\2019\Community\VC\Tools\MSVC\14.29.30133\atlmfc\include\afx.inl
;	COMDAT ?Serialize@CObject@@UAEXAAVCArchive@@@Z
_TEXT	SEGMENT
___formal$ = 8						; size = 4
?Serialize@CObject@@UAEXAAVCArchive@@@Z PROC		; CObject::Serialize, COMDAT
; _this$ = ecx

; 106  : 	{ /* CObject does not serialize anything by default */ }

  00000	c2 04 00	 ret	 4
?Serialize@CObject@@UAEXAAVCArchive@@@Z ENDP		; CObject::Serialize
_TEXT	ENDS
; Function compile flags: /Ogtp
; File C:\Program Files (x86)\Microsoft Visual Studio\2019\Community\VC\Tools\MSVC\14.29.30133\atlmfc\include\afx.inl
;	COMDAT ??1CObject@@UAE@XZ
_TEXT	SEGMENT
??1CObject@@UAE@XZ PROC					; CObject::~CObject, COMDAT
; _this$ = ecx

; 104  : 	{ }

  00000	c2 00 00	 ret	 0
??1CObject@@UAE@XZ ENDP					; CObject::~CObject
_TEXT	ENDS
; Function compile flags: /Ogtp
; File D:\git\src\IBK\IBK_DRFN\ProjSrc\SrcChartEx\ChartOCX\ChartObject\GraphMove.cpp
;	COMDAT ?__empty_global_delete@@YAXPAXI@Z
_TEXT	SEGMENT
___formal$ = 8						; size = 4
___formal$ = 12						; size = 4
?__empty_global_delete@@YAXPAXI@Z PROC			; __empty_global_delete, COMDAT

  00000	c2 00 00	 ret	 0
?__empty_global_delete@@YAXPAXI@Z ENDP			; __empty_global_delete
_TEXT	ENDS
; Function compile flags: /Ogtp
; File D:\git\src\IBK\IBK_DRFN\ProjSrc\SrcChartEx\ChartOCX\ChartObject\GraphMove.cpp
;	COMDAT ?__empty_global_delete@@YAXPAX@Z
_TEXT	SEGMENT
___formal$ = 8						; size = 4
?__empty_global_delete@@YAXPAX@Z PROC			; __empty_global_delete, COMDAT

  00000	c2 00 00	 ret	 0
?__empty_global_delete@@YAXPAX@Z ENDP			; __empty_global_delete
_TEXT	ENDS
END
