; Listing generated by Microsoft (R) Optimizing Compiler Version 19.29.30145.0 

	TITLE	D:\git\src\IBK\IBK_DRFN\#DRfn-CS\_Obj\ChartObject\GraphTool.obj
	.686P
	.XMM
	include listing.inc
	.model	flat

INCLUDELIB MSVCRT
INCLUDELIB OLDNAMES

PUBLIC	?__empty_global_delete@@YAXPAX@Z		; __empty_global_delete
PUBLIC	?__empty_global_delete@@YAXPAXI@Z		; __empty_global_delete
PUBLIC	??0exception@std@@QAE@ABV01@@Z			; std::exception::exception
PUBLIC	??1exception@std@@UAE@XZ			; std::exception::~exception
PUBLIC	?what@exception@std@@UBEPBDXZ			; std::exception::what
PUBLIC	??_Gexception@std@@UAEPAXI@Z			; std::exception::`scalar deleting destructor'
PUBLIC	??0bad_alloc@std@@QAE@ABV01@@Z			; std::bad_alloc::bad_alloc
PUBLIC	??_Gbad_alloc@std@@UAEPAXI@Z			; std::bad_alloc::`scalar deleting destructor'
PUBLIC	??0bad_array_new_length@std@@QAE@XZ		; std::bad_array_new_length::bad_array_new_length
PUBLIC	??1bad_array_new_length@std@@UAE@XZ		; std::bad_array_new_length::~bad_array_new_length
PUBLIC	??0bad_array_new_length@std@@QAE@ABV01@@Z	; std::bad_array_new_length::bad_array_new_length
PUBLIC	??_Gbad_array_new_length@std@@UAEPAXI@Z		; std::bad_array_new_length::`scalar deleting destructor'
PUBLIC	?_Throw_bad_array_new_length@std@@YAXXZ		; std::_Throw_bad_array_new_length
PUBLIC	?_Tidy@?$deque@VCSelectedSubGraphData@@V?$allocator@VCSelectedSubGraphData@@@std@@@std@@AAEXXZ ; std::deque<CSelectedSubGraphData,std::allocator<CSelectedSubGraphData> >::_Tidy
PUBLIC	??1CSelectedSubGraphDeque@@QAE@XZ		; CSelectedSubGraphDeque::~CSelectedSubGraphDeque
PUBLIC	??0CGraphTool@@QAE@XZ				; CGraphTool::CGraphTool
PUBLIC	?SetIChartCtrl@CGraphTool@@QAEXPAUIChartCtrl@@@Z ; CGraphTool::SetIChartCtrl
PUBLIC	?SetGraphMove@CGraphTool@@QAEX_N@Z		; CGraphTool::SetGraphMove
PUBLIC	?SetGraphDelete@CGraphTool@@QAEX_N@Z		; CGraphTool::SetGraphDelete
PUBLIC	?InitializeAllData@CGraphTool@@UAEXXZ		; CGraphTool::InitializeAllData
PUBLIC	?OnLButtonDown@CGraphTool@@UAE_NPAVCDC@@PAVCMainBlock@@IABVCPoint@@@Z ; CGraphTool::OnLButtonDown
PUBLIC	?OnLButtonUp@CGraphTool@@UAE_NPAVCDC@@PAVCMainBlock@@ABVCPoint@@@Z ; CGraphTool::OnLButtonUp
PUBLIC	?OnMouseMove@CGraphTool@@UAEXPAVCDC@@PAVCMainBlock@@IABVCPoint@@@Z ; CGraphTool::OnMouseMove
PUBLIC	?OnMenu@CGraphTool@@UAE_NPAVCMainBlock@@W4ELEMENTMENU@CMenuType@@I@Z ; CGraphTool::OnMenu
PUBLIC	?GetMenuCheck@CGraphTool@@UAE_NPAVCMainBlock@@W4ELEMENTMENU@CMenuType@@I@Z ; CGraphTool::GetMenuCheck
PUBLIC	?OnMenu_SubGraphInvert@CGraphTool@@UAE_NPAVCMainBlock@@PAVCSubGraph@@@Z ; CGraphTool::OnMenu_SubGraphInvert
PUBLIC	?IsGeneralGraph@CGraphTool@@UAEPAVCGraphImp@@PAV2@PAVCVertScaleGroup@@@Z ; CGraphTool::IsGeneralGraph
PUBLIC	?GetMenuCheck_SubGraphInvert@CGraphTool@@UAE_NPAVCMainBlock@@PAVCSubGraph@@@Z ; CGraphTool::GetMenuCheck_SubGraphInvert
PUBLIC	?OnMenu_SubGraphSelectTimeDiff@CGraphTool@@UAE_NPAVCMainBlock@@PAVCSubGraph@@PAVCTimeDiffInfo@@@Z ; CGraphTool::OnMenu_SubGraphSelectTimeDiff
PUBLIC	?GetMenuCheck_SubGraphSelectTimeDiff@CGraphTool@@UAE_NPAVCMainBlock@@PAVCSubGraph@@PAVCTimeDiffInfo@@@Z ; CGraphTool::GetMenuCheck_SubGraphSelectTimeDiff
PUBLIC	?GetGraph@CGraphTool@@IBEPAVCGraphImp@@PAVCSubGraph@@@Z ; CGraphTool::GetGraph
PUBLIC	?LoadIndicatorConfiguration@CGraphTool@@IAE_NPAVCMainBlock@@PAVCSubGraph@@@Z ; CGraphTool::LoadIndicatorConfiguration
PUBLIC	?OnMenu_DataIndex@CGraphTool@@IAE_NABVCSelectedSubGraphData@@@Z ; CGraphTool::OnMenu_DataIndex
PUBLIC	?ChangeAllVertScaleGridType@CGraphTool@@IAEXPAVCVertScaleGroup@@@Z ; CGraphTool::ChangeAllVertScaleGridType
PUBLIC	?SendMessage_GraphType@CGraphTool@@IAEXPAVCSubGraph@@@Z ; CGraphTool::SendMessage_GraphType
PUBLIC	?IsCursorType_NoneMode@CGraphTool@@ABE_NABVCPoint@@@Z ; CGraphTool::IsCursorType_NoneMode
PUBLIC	?GetBlock@CGraphTool@@ABEPAVCBlockImp@@PAVCGraphImp@@@Z ; CGraphTool::GetBlock
PUBLIC	?GetCursorType@CGraphTool@@ABE?AW4CURSORTYPE@CBaseToolEnumData@@PAVCMainBlock@@ABVCPoint@@@Z ; CGraphTool::GetCursorType
PUBLIC	?SetGraphMoving@CGraphTool@@AAEX_N@Z		; CGraphTool::SetGraphMoving
PUBLIC	?GraphMoving@CGraphTool@@AAE_NPAVCMainBlock@@ABVCPoint@@@Z ; CGraphTool::GraphMoving
PUBLIC	??0CSubGraphTitleTool@@QAE@XZ			; CSubGraphTitleTool::CSubGraphTitleTool
PUBLIC	?InitializeAllData@CSubGraphTitleTool@@UAEXXZ	; CSubGraphTitleTool::InitializeAllData
PUBLIC	?GetToolType@CSubGraphTitleTool@@UBE?AW4TOOLTYPE@CBlockBaseData@@XZ ; CSubGraphTitleTool::GetToolType
PUBLIC	?OnLButtonDblClk@CSubGraphTitleTool@@UAE_NPAVCDC@@PAVCMainBlock@@ABVCPoint@@@Z ; CSubGraphTitleTool::OnLButtonDblClk
PUBLIC	?OnRButtonUp@CSubGraphTitleTool@@UAE?AW4MENUTYPE@CMenuType@@PAVCDC@@PAVCMainBlock@@ABVCPoint@@@Z ; CSubGraphTitleTool::OnRButtonUp
PUBLIC	?OnDraw@CSubGraphTitleTool@@UAEXPAVCDC@@PAVCMainBlock@@@Z ; CSubGraphTitleTool::OnDraw
PUBLIC	?Find@CSubGraphTitleTool@@QAE_NPAVCDC@@PAVCMainBlock@@ABVCPoint@@@Z ; CSubGraphTitleTool::Find
PUBLIC	?LoadIndicatorConfiguration@CSubGraphTitleTool@@QAE_NPAVCMainBlock@@@Z ; CSubGraphTitleTool::LoadIndicatorConfiguration
PUBLIC	?OnLButtonDown_Real@CSubGraphTitleTool@@MAEXPAVCDC@@PAVCMainBlock@@IABVCPoint@@@Z ; CSubGraphTitleTool::OnLButtonDown_Real
PUBLIC	?OnLButtonUp@CSubGraphTitleTool@@MAE_NXZ	; CSubGraphTitleTool::OnLButtonUp
PUBLIC	?OnMouseMove@CSubGraphTitleTool@@MAEXPAVCDC@@PAVCMainBlock@@@Z ; CSubGraphTitleTool::OnMouseMove
PUBLIC	?OnMenu_SubGraph@CSubGraphTitleTool@@MAE_NPAVCMainBlock@@W4ELEMENTMENU@CMenuType@@I@Z ; CSubGraphTitleTool::OnMenu_SubGraph
PUBLIC	?GetMenuCheck_SubGraph@CSubGraphTitleTool@@MAE_NPAVCMainBlock@@W4ELEMENTMENU@CMenuType@@I@Z ; CSubGraphTitleTool::GetMenuCheck_SubGraph
PUBLIC	?IsSelectedSubGraph@CSubGraphTitleTool@@MBE_NXZ	; CSubGraphTitleTool::IsSelectedSubGraph
PUBLIC	?IsSendMessage_SubGraph@CSubGraphTitleTool@@MBE_NXZ ; CSubGraphTitleTool::IsSendMessage_SubGraph
PUBLIC	?GetGraphMoving@CSubGraphTitleTool@@MAEPAVCGraphImp@@XZ ; CSubGraphTitleTool::GetGraphMoving
PUBLIC	?GraphMoving_Ended@CSubGraphTitleTool@@MAEX_N@Z	; CSubGraphTitleTool::GraphMoving_Ended
PUBLIC	?FindSubGraphTitle@CSubGraphTitleTool@@AAE_NPAVCDC@@PAVCMainBlock@@ABVCPoint@@AAPAVCSubGraph@@@Z ; CSubGraphTitleTool::FindSubGraphTitle
PUBLIC	?ChangeAllVertScaleGridType@CSubGraphTitleTool@@AAEXXZ ; CSubGraphTitleTool::ChangeAllVertScaleGridType
PUBLIC	?DrawSelectedSubGraphTitle@CSubGraphTitleTool@@AAEXPAVCDC@@@Z ; CSubGraphTitleTool::DrawSelectedSubGraphTitle
PUBLIC	?DrawSelectedSubGraphGrip@CSubGraphTitleTool@@AAE_NPAVCDC@@@Z ; CSubGraphTitleTool::DrawSelectedSubGraphGrip
PUBLIC	?IsLoadIndicatorConfiguration@CSubGraphTitleTool@@ABE_NABVCPoint@@@Z ; CSubGraphTitleTool::IsLoadIndicatorConfiguration
PUBLIC	?GetSubGraph@CSubGraphTitleTool@@ABEPAVCSubGraph@@XZ ; CSubGraphTitleTool::GetSubGraph
PUBLIC	?GetSelectedSubGraphTitleRegion@CSubGraphTitleTool@@ABE?AVCRect@@ABV2@@Z ; CSubGraphTitleTool::GetSelectedSubGraphTitleRegion
PUBLIC	?InitializeTitleRegion@CSubGraphTitleTool@@AAEXXZ ; CSubGraphTitleTool::InitializeTitleRegion
PUBLIC	?OnMenu_SubGraphHide@CSubGraphTitleTool@@AAE_N_N@Z ; CSubGraphTitleTool::OnMenu_SubGraphHide
PUBLIC	?OnMenu_SubGraphSet@CSubGraphTitleTool@@AAE_NPAVCMainBlock@@@Z ; CSubGraphTitleTool::OnMenu_SubGraphSet
PUBLIC	?InitializeAllData@CSubGraphTool@@UAEXXZ	; CSubGraphTool::InitializeAllData
PUBLIC	?GetToolType@CSubGraphTool@@UBE?AW4TOOLTYPE@CBlockBaseData@@XZ ; CSubGraphTool::GetToolType
PUBLIC	?OnLButtonDblClk@CSubGraphTool@@UAE_NPAVCDC@@PAVCMainBlock@@ABVCPoint@@@Z ; CSubGraphTool::OnLButtonDblClk
PUBLIC	?OnRButtonUp@CSubGraphTool@@UAE?AW4MENUTYPE@CMenuType@@PAVCDC@@PAVCMainBlock@@ABVCPoint@@@Z ; CSubGraphTool::OnRButtonUp
PUBLIC	?OnDraw@CSubGraphTool@@UAEXPAVCDC@@PAVCMainBlock@@@Z ; CSubGraphTool::OnDraw
PUBLIC	?Find@CSubGraphTool@@QAE_NPAVCDC@@PAVCMainBlock@@ABVCPoint@@@Z ; CSubGraphTool::Find
PUBLIC	?OnLButtonDown_Real@CSubGraphTool@@MAEXPAVCDC@@PAVCMainBlock@@IABVCPoint@@@Z ; CSubGraphTool::OnLButtonDown_Real
PUBLIC	?OnLButtonUp@CSubGraphTool@@MAE_NXZ		; CSubGraphTool::OnLButtonUp
PUBLIC	?OnMouseMove@CSubGraphTool@@MAEXPAVCDC@@PAVCMainBlock@@@Z ; CSubGraphTool::OnMouseMove
PUBLIC	?OnMenu_SubGraph@CSubGraphTool@@MAE_NPAVCMainBlock@@W4ELEMENTMENU@CMenuType@@I@Z ; CSubGraphTool::OnMenu_SubGraph
PUBLIC	?GetMenuCheck_SubGraph@CSubGraphTool@@MAE_NPAVCMainBlock@@W4ELEMENTMENU@CMenuType@@I@Z ; CSubGraphTool::GetMenuCheck_SubGraph
PUBLIC	?IsSelectedSubGraph@CSubGraphTool@@MBE_NXZ	; CSubGraphTool::IsSelectedSubGraph
PUBLIC	?IsSendMessage_SubGraph@CSubGraphTool@@MBE_NXZ	; CSubGraphTool::IsSendMessage_SubGraph
PUBLIC	?GetGraphMoving@CSubGraphTool@@MAEPAVCGraphImp@@XZ ; CSubGraphTool::GetGraphMoving
PUBLIC	?GraphMoving_Ended@CSubGraphTool@@MAEX_N@Z	; CSubGraphTool::GraphMoving_Ended
PUBLIC	?FindSubGraph@CSubGraphTool@@AAEXPAVCMainBlock@@IABVCPoint@@@Z ; CSubGraphTool::FindSubGraph
PUBLIC	?FindSubGraph@CSubGraphTool@@AAE_NPAVCMainBlock@@ABVCPoint@@AAVCSelectedSubGraphDeque@@@Z ; CSubGraphTool::FindSubGraph
PUBLIC	?ChangeAllVertScaleGridType@CSubGraphTool@@AAEXXZ ; CSubGraphTool::ChangeAllVertScaleGridType
PUBLIC	?ReversedSubGraphHighlight@CSubGraphTool@@AAE_NPAVCMainBlock@@ABVCPoint@@@Z ; CSubGraphTool::ReversedSubGraphHighlight
PUBLIC	?SelectedGraphDataIndex@CSubGraphTool@@AAE_NXZ	; CSubGraphTool::SelectedGraphDataIndex
PUBLIC	?OnMenu_SubGraphSet@CSubGraphTool@@AAE_NPAVCMainBlock@@@Z ; CSubGraphTool::OnMenu_SubGraphSet
PUBLIC	?OnMenu_Etc@CSubGraphTool@@AAE_NW4ELEMENTMENU@CMenuType@@I@Z ; CSubGraphTool::OnMenu_Etc
PUBLIC	??_GCIndicatorInfo@@UAEPAXI@Z			; CIndicatorInfo::`scalar deleting destructor'
PUBLIC	??$_Allocate_manually_vector_aligned@U_Default_allocate_traits@std@@@std@@YAPAXI@Z ; std::_Allocate_manually_vector_aligned<std::_Default_allocate_traits>
PUBLIC	??_C@_00CNPNBAHC@@				; `string'
PUBLIC	??_7exception@std@@6B@				; std::exception::`vftable'
PUBLIC	??_C@_0BC@EOODALEL@Unknown?5exception@		; `string'
PUBLIC	??_7bad_alloc@std@@6B@				; std::bad_alloc::`vftable'
PUBLIC	??_7bad_array_new_length@std@@6B@		; std::bad_array_new_length::`vftable'
PUBLIC	??_C@_0BF@KINCDENJ@bad?5array?5new?5length@	; `string'
PUBLIC	__TI3?AVbad_array_new_length@std@@
PUBLIC	__CTA3?AVbad_array_new_length@std@@
PUBLIC	??_R0?AVbad_array_new_length@std@@@8		; std::bad_array_new_length `RTTI Type Descriptor'
PUBLIC	__CT??_R0?AVbad_array_new_length@std@@@8??0bad_array_new_length@std@@QAE@ABV01@@Z12
PUBLIC	??_R0?AVbad_alloc@std@@@8			; std::bad_alloc `RTTI Type Descriptor'
PUBLIC	__CT??_R0?AVbad_alloc@std@@@8??0bad_alloc@std@@QAE@ABV01@@Z12
PUBLIC	??_R0?AVexception@std@@@8			; std::exception `RTTI Type Descriptor'
PUBLIC	__CT??_R0?AVexception@std@@@8??0exception@std@@QAE@ABV01@@Z12
PUBLIC	??_7CGraphTool@@6B@				; CGraphTool::`vftable'
PUBLIC	??_7CSubGraphTitleTool@@6B@			; CSubGraphTitleTool::`vftable'
PUBLIC	??_SCIndicatorInfo@@6B@				; CIndicatorInfo::`local vftable'
PUBLIC	??_C@_0CD@LGNGJKOD@?$DM?F?$KP?$LM?v?B?w?F?$KO?$DO?$LE?B?5?$LL?h?A?$KG?5?G?R?5?$LM?v?5?$LO?x?$LN?$MA?$LE?O?$LE@ ; `string'
PUBLIC	??_C@_07MGCPDNLD@DEFAULT@			; `string'
PUBLIC	??_C@_0BC@DJOHDNOJ@VertScaleGroup?$DL?$AN?6@	; `string'
PUBLIC	??_C@_0BF@DDJNMPKE@VertScaleGroupEnd?$DL?$AN?6@	; `string'
PUBLIC	??_R4CIndicatorInfo@@6B@			; CIndicatorInfo::`RTTI Complete Object Locator'
PUBLIC	??_R0?AVCIndicatorInfo@@@8			; CIndicatorInfo `RTTI Type Descriptor'
PUBLIC	??_R3CIndicatorInfo@@8				; CIndicatorInfo::`RTTI Class Hierarchy Descriptor'
PUBLIC	??_R2CIndicatorInfo@@8				; CIndicatorInfo::`RTTI Base Class Array'
PUBLIC	??_R1A@?0A@EA@CIndicatorInfo@@8			; CIndicatorInfo::`RTTI Base Class Descriptor at (0,-1,0,64)'
PUBLIC	??_R4exception@std@@6B@				; std::exception::`RTTI Complete Object Locator'
PUBLIC	??_R3exception@std@@8				; std::exception::`RTTI Class Hierarchy Descriptor'
PUBLIC	??_R2exception@std@@8				; std::exception::`RTTI Base Class Array'
PUBLIC	??_R1A@?0A@EA@exception@std@@8			; std::exception::`RTTI Base Class Descriptor at (0,-1,0,64)'
PUBLIC	??_R4bad_alloc@std@@6B@				; std::bad_alloc::`RTTI Complete Object Locator'
PUBLIC	??_R3bad_alloc@std@@8				; std::bad_alloc::`RTTI Class Hierarchy Descriptor'
PUBLIC	??_R2bad_alloc@std@@8				; std::bad_alloc::`RTTI Base Class Array'
PUBLIC	??_R1A@?0A@EA@bad_alloc@std@@8			; std::bad_alloc::`RTTI Base Class Descriptor at (0,-1,0,64)'
PUBLIC	??_R4bad_array_new_length@std@@6B@		; std::bad_array_new_length::`RTTI Complete Object Locator'
PUBLIC	??_R3bad_array_new_length@std@@8		; std::bad_array_new_length::`RTTI Class Hierarchy Descriptor'
PUBLIC	??_R2bad_array_new_length@std@@8		; std::bad_array_new_length::`RTTI Base Class Array'
PUBLIC	??_R1A@?0A@EA@bad_array_new_length@std@@8	; std::bad_array_new_length::`RTTI Base Class Descriptor at (0,-1,0,64)'
PUBLIC	??_R4CGraphTool@@6B@				; CGraphTool::`RTTI Complete Object Locator'
PUBLIC	??_R0?AVCGraphTool@@@8				; CGraphTool `RTTI Type Descriptor'
PUBLIC	??_R3CGraphTool@@8				; CGraphTool::`RTTI Class Hierarchy Descriptor'
PUBLIC	??_R2CGraphTool@@8				; CGraphTool::`RTTI Base Class Array'
PUBLIC	??_R1A@?0A@EA@CGraphTool@@8			; CGraphTool::`RTTI Base Class Descriptor at (0,-1,0,64)'
PUBLIC	??_R1A@?0A@EA@CBaseTool@@8			; CBaseTool::`RTTI Base Class Descriptor at (0,-1,0,64)'
PUBLIC	??_R0?AVCBaseTool@@@8				; CBaseTool `RTTI Type Descriptor'
PUBLIC	??_R3CBaseTool@@8				; CBaseTool::`RTTI Class Hierarchy Descriptor'
PUBLIC	??_R2CBaseTool@@8				; CBaseTool::`RTTI Base Class Array'
PUBLIC	??_R4CSubGraphTitleTool@@6B@			; CSubGraphTitleTool::`RTTI Complete Object Locator'
PUBLIC	??_R0?AVCSubGraphTitleTool@@@8			; CSubGraphTitleTool `RTTI Type Descriptor'
PUBLIC	??_R3CSubGraphTitleTool@@8			; CSubGraphTitleTool::`RTTI Class Hierarchy Descriptor'
PUBLIC	??_R2CSubGraphTitleTool@@8			; CSubGraphTitleTool::`RTTI Base Class Array'
PUBLIC	??_R1A@?0A@EA@CSubGraphTitleTool@@8		; CSubGraphTitleTool::`RTTI Base Class Descriptor at (0,-1,0,64)'
EXTRN	__purecall:PROC
EXTRN	??2@YAPAXI@Z:PROC				; operator new
EXTRN	??3@YAXPAXI@Z:PROC				; operator delete
EXTRN	__imp___invalid_parameter_noinfo_noreturn:PROC
EXTRN	__imp__strncmp:PROC
EXTRN	__imp__GetROP2@4:PROC
EXTRN	__imp__Rectangle@20:PROC
EXTRN	__imp__SetRectEmpty@4:PROC
EXTRN	__imp__InflateRect@12:PROC
EXTRN	__imp__IsRectEmpty@4:PROC
EXTRN	__imp__EqualRect@8:PROC
EXTRN	__imp__PtInRect@12:PROC
EXTRN	?AfxThrowInvalidArgException@@YGXXZ:PROC	; AfxThrowInvalidArgException
EXTRN	__imp_??0?$CStringT@DV?$StrTraitMFC_DLL@DV?$ChTraitsCRT@D@ATL@@@@@ATL@@QAE@XZ:PROC
EXTRN	__imp_??0?$CStringT@DV?$StrTraitMFC_DLL@DV?$ChTraitsCRT@D@ATL@@@@@ATL@@QAE@ABV01@@Z:PROC
EXTRN	__imp_??0?$CStringT@DV?$StrTraitMFC_DLL@DV?$ChTraitsCRT@D@ATL@@@@@ATL@@QAE@PBD@Z:PROC
EXTRN	__imp_??1?$CStringT@DV?$StrTraitMFC_DLL@DV?$ChTraitsCRT@D@ATL@@@@@ATL@@QAE@XZ:PROC
EXTRN	__imp_??Y?$CStringT@DV?$StrTraitMFC_DLL@DV?$ChTraitsCRT@D@ATL@@@@@ATL@@QAEAAV01@ABV?$CSimpleStringT@D$00@1@@Z:PROC
EXTRN	__imp_?Compare@?$CStringT@DV?$StrTraitMFC_DLL@DV?$ChTraitsCRT@D@ATL@@@@@ATL@@QBEHPBD@Z:PROC
EXTRN	??0CStringList@@QAE@H@Z:PROC			; CStringList::CStringList
EXTRN	?AddTail@CStringList@@QAEPAU__POSITION@@PBD@Z:PROC ; CStringList::AddTail
EXTRN	?AddTail@CStringList@@QAEPAU__POSITION@@ABV?$CStringT@DV?$StrTraitMFC_DLL@DV?$ChTraitsCRT@D@ATL@@@@@ATL@@@Z:PROC ; CStringList::AddTail
EXTRN	??1CStringList@@UAE@XZ:PROC			; CStringList::~CStringList
EXTRN	?SelectObject@CDC@@QAEPAVCBrush@@PAV2@@Z:PROC	; CDC::SelectObject
EXTRN	?SetROP2@CDC@@QAEHH@Z:PROC			; CDC::SetROP2
EXTRN	?AfxMessageBox@@YGHPBDII@Z:PROC			; AfxMessageBox
EXTRN	__imp_?GetScaleAllData@CVerticalScale@@QBEXAAV?$CStringT@DV?$StrTraitMFC_DLL@DV?$ChTraitsCRT@D@ATL@@@@@ATL@@PBD@Z:PROC
EXTRN	__imp_?GetDrawingThickness1@CPenThickness@@QBEHXZ:PROC
EXTRN	__imp_?GetGraphName@CGraphData@@QBE?AV?$CStringT@DV?$StrTraitMFC_DLL@DV?$ChTraitsCRT@D@ATL@@@@@ATL@@XZ:PROC
EXTRN	__imp_?GetGraphName2@CGraphData@@QBE?AV?$CStringT@DV?$StrTraitMFC_DLL@DV?$ChTraitsCRT@D@ATL@@@@@ATL@@XZ:PROC
EXTRN	__imp_?GetIndicatorName2@CGraphData@@QBE?AV?$CStringT@DV?$StrTraitMFC_DLL@DV?$ChTraitsCRT@D@ATL@@@@@ATL@@XZ:PROC
EXTRN	__imp_?GetType@CSubGraphDataBase@@QBE?AW4GRAPHTYPE@CGraphBaseData@@XZ:PROC
EXTRN	__imp_?GetDrawStyle@CSubGraphDataBase@@QBE?AVCGraphDrawStyle@@XZ:PROC
EXTRN	__imp_?GetPenThickness@CSubGraphDataBase@@QAEAAVCPenThickness@@XZ:PROC
EXTRN	??0CBaseTool@@QAE@XZ:PROC			; CBaseTool::CBaseTool
EXTRN	?SetIChartCtrl@CBaseTool@@QAEXPAUIChartCtrl@@@Z:PROC ; CBaseTool::SetIChartCtrl
EXTRN	?GetIChartCtrl@CBaseTool@@QBEPAUIChartCtrl@@XZ:PROC ; CBaseTool::GetIChartCtrl
EXTRN	?GetParent@CBaseTool@@QBEPAVCWnd@@XZ:PROC	; CBaseTool::GetParent
EXTRN	?InitializeAllData@CBaseTool@@UAEXXZ:PROC	; CBaseTool::InitializeAllData
EXTRN	?OnLButtonDblClk@CBaseTool@@UAE_NPAVCDC@@PAVCMainBlock@@ABVCPoint@@@Z:PROC ; CBaseTool::OnLButtonDblClk
EXTRN	?OnRButtonUp@CBaseTool@@UAE?AW4MENUTYPE@CMenuType@@PAVCDC@@PAVCMainBlock@@ABVCPoint@@@Z:PROC ; CBaseTool::OnRButtonUp
EXTRN	?OnDraw@CBaseTool@@UAEXPAVCDC@@PAVCMainBlock@@@Z:PROC ; CBaseTool::OnDraw
EXTRN	?ChangeCursor@CBaseTool@@IAEXABW4CURSORTYPE@CBaseToolEnumData@@@Z:PROC ; CBaseTool::ChangeCursor
EXTRN	?SetProcessEnded@CBaseTool@@IAEX_N@Z:PROC	; CBaseTool::SetProcessEnded
EXTRN	?Invalidate@CBaseTool@@IAEX_N@Z:PROC		; CBaseTool::Invalidate
EXTRN	?InvalidateRect@CBaseTool@@IAEXABVCRect@@_N@Z:PROC ; CBaseTool::InvalidateRect
EXTRN	??0CGraphMove@@QAE@PAVCWnd@@@Z:PROC		; CGraphMove::CGraphMove
EXTRN	?InitializeAllData@CGraphMove@@QAEXPAVCWnd@@@Z:PROC ; CGraphMove::InitializeAllData
EXTRN	?SetGraphMoving@CGraphMove@@QAEX_N@Z:PROC	; CGraphMove::SetGraphMoving
EXTRN	?IsGraphMoving@CGraphMove@@QBE_NXZ:PROC		; CGraphMove::IsGraphMoving
EXTRN	?GraphMoving@CGraphMove@@QAE_NPAVCMainBlock@@PAVCGraphImp@@ABVCPoint@@@Z:PROC ; CGraphMove::GraphMoving
EXTRN	___std_exception_copy:PROC
EXTRN	___std_exception_destroy:PROC
EXTRN	??_Eexception@std@@UAEPAXI@Z:PROC		; std::exception::`vector deleting destructor'
EXTRN	??_Ebad_alloc@std@@UAEPAXI@Z:PROC		; std::bad_alloc::`vector deleting destructor'
EXTRN	??_Ebad_array_new_length@std@@UAEPAXI@Z:PROC	; std::bad_array_new_length::`vector deleting destructor'
EXTRN	??4CSelectedSubGraphData@@QAEAAV0@ABV0@@Z:PROC	; CSelectedSubGraphData::operator=
EXTRN	??0CSelectedSubGraphData@@QAE@PAVCSubGraph@@H@Z:PROC ; CSelectedSubGraphData::CSelectedSubGraphData
EXTRN	?GetSubGraph@CSelectedSubGraphData@@QAEAAPAVCSubGraph@@XZ:PROC ; CSelectedSubGraphData::GetSubGraph
EXTRN	?GetSubGraph@CSelectedSubGraphData@@QBEPAVCSubGraph@@XZ:PROC ; CSelectedSubGraphData::GetSubGraph
EXTRN	?GetGraph@CSelectedSubGraphData@@QBEPAVCGraphImp@@XZ:PROC ; CSelectedSubGraphData::GetGraph
EXTRN	?GetDataIndex@CSelectedSubGraphData@@QBEHXZ:PROC ; CSelectedSubGraphData::GetDataIndex
EXTRN	?GetMenuType@CSelectedSubGraphData@@QBE?AW4MENUTYPE@CMenuType@@XZ:PROC ; CSelectedSubGraphData::GetMenuType
EXTRN	?OnMenu@CSelectedSubGraphData@@QAE_NW4ELEMENTMENU@CMenuType@@I@Z:PROC ; CSelectedSubGraphData::OnMenu
EXTRN	?AreExistenceSubGraph@CSelectedSubGraphData@@QBE_NABV?$CStringT@DV?$StrTraitMFC_DLL@DV?$ChTraitsCRT@D@ATL@@@@@ATL@@@Z:PROC ; CSelectedSubGraphData::AreExistenceSubGraph
EXTRN	?DeleteOrHideSubGraph@CSelectedSubGraphData@@QAE_NXZ:PROC ; CSelectedSubGraphData::DeleteOrHideSubGraph
EXTRN	?RemoveAll@CSelectedSubGraphDeque@@QAEXXZ:PROC	; CSelectedSubGraphDeque::RemoveAll
EXTRN	?GetCount@CSelectedSubGraphDeque@@QBEHXZ:PROC	; CSelectedSubGraphDeque::GetCount
EXTRN	?GetTail@CSelectedSubGraphDeque@@QBE?AVCSelectedSubGraphData@@XZ:PROC ; CSelectedSubGraphDeque::GetTail
EXTRN	?GetSubGraphTail@CSelectedSubGraphDeque@@QBEPAVCSubGraph@@XZ:PROC ; CSelectedSubGraphDeque::GetSubGraphTail
EXTRN	?GetVertScaleGroupTail@CSelectedSubGraphDeque@@QBEPAVCVertScaleGroup@@XZ:PROC ; CSelectedSubGraphDeque::GetVertScaleGroupTail
EXTRN	?GetMenuType@CSelectedSubGraphDeque@@QBE?AW4MENUTYPE@CMenuType@@XZ:PROC ; CSelectedSubGraphDeque::GetMenuType
EXTRN	?OnMenu@CSelectedSubGraphDeque@@QAE_NW4ELEMENTMENU@CMenuType@@I@Z:PROC ; CSelectedSubGraphDeque::OnMenu
EXTRN	?AreExistenceSubGraph@CSelectedSubGraphDeque@@QBE_NABV?$CStringT@DV?$StrTraitMFC_DLL@DV?$ChTraitsCRT@D@ATL@@@@@ATL@@@Z:PROC ; CSelectedSubGraphDeque::AreExistenceSubGraph
EXTRN	?DrawGrip@CSelectedSubGraphDeque@@QAE_NPAVCDC@@@Z:PROC ; CSelectedSubGraphDeque::DrawGrip
EXTRN	?IsSpecialGroupGraph@IMetaTable@@QAE_NPBD@Z:PROC ; IMetaTable::IsSpecialGroupGraph
EXTRN	?GetBlock@CVertScaleGroupList@@QBEPAVCBlockImp@@XZ:PROC ; CVertScaleGroupList::GetBlock
EXTRN	?BuildVertScaleGroups@CVertScaleGroupList@@QAEXPAD_N@Z:PROC ; CVertScaleGroupList::BuildVertScaleGroups
EXTRN	?GetVertScaleGroup@CVertScaleGroupList@@QBEPAVCVertScaleGroup@@H@Z:PROC ; CVertScaleGroupList::GetVertScaleGroup
EXTRN	?GetCount@CVertScaleGroupList@@QBEHXZ:PROC	; CVertScaleGroupList::GetCount
EXTRN	?SetActivate@CVertScaleGroupList@@QAEXPAVCVertScaleGroup@@@Z:PROC ; CVertScaleGroupList::SetActivate
EXTRN	?AddGraph@CVertScaleGroup@@QAEXPAVCGraphImp@@_N@Z:PROC ; CVertScaleGroup::AddGraph
EXTRN	?RemoveAt@CVertScaleGroup@@QAE_NPAVCGraphImp@@_N@Z:PROC ; CVertScaleGroup::RemoveAt
EXTRN	?GetVertScaleGroupList@CVertScaleGroup@@QBEPAVCVertScaleGroupList@@XZ:PROC ; CVertScaleGroup::GetVertScaleGroupList
EXTRN	?GetVertScale@CVertScaleGroup@@QAEAAVCVerticalScale@@XZ:PROC ; CVertScaleGroup::GetVertScale
EXTRN	?GetGraphCount@CVertScaleGroup@@QBEHXZ:PROC	; CVertScaleGroup::GetGraphCount
EXTRN	?FindGraph@CVertScaleGroup@@QBEPAVCGraphImp@@ABV?$CStringT@DV?$StrTraitMFC_DLL@DV?$ChTraitsCRT@D@ATL@@@@@ATL@@@Z:PROC ; CVertScaleGroup::FindGraph
EXTRN	?GetIndexOfGraph@CVertScaleGroup@@QAEHPBDAAH@Z:PROC ; CVertScaleGroup::GetIndexOfGraph
EXTRN	?GetVertScaleInvertType@CVertScaleGroup@@QBE_NXZ:PROC ; CVertScaleGroup::GetVertScaleInvertType
EXTRN	?SetVertScaleInvertType@CVertScaleGroup@@QAEX_N@Z:PROC ; CVertScaleGroup::SetVertScaleInvertType
EXTRN	?GetGraph@CSubGraphList@@QBEPAVCGraphImp@@XZ:PROC ; CSubGraphList::GetGraph
EXTRN	?ChangeGraphDataFromIndicatorInfo@CGraphImp@@QAEHAAVCIndicatorInfo@@_N@Z:PROC ; CGraphImp::ChangeGraphDataFromIndicatorInfo
EXTRN	?ChangeIndicatorInfoFromGraphData@CGraphImp@@QAE_NXZ:PROC ; CGraphImp::ChangeIndicatorInfoFromGraphData
EXTRN	?ChangeIndicatorInfoFromGraphData@CGraphImp@@QAE_NAAVCIndicatorInfo@@@Z:PROC ; CGraphImp::ChangeIndicatorInfoFromGraphData
EXTRN	?GetVertScaleGroup@CGraphImp@@QBEPAVCVertScaleGroup@@XZ:PROC ; CGraphImp::GetVertScaleGroup
EXTRN	?GetGraphData@CGraphImp@@QAEAAVCGraphData@@XZ:PROC ; CGraphImp::GetGraphData
EXTRN	?GetIndicatorInfo@CGraphImp@@QAEPAVCIndicatorInfo@@XZ:PROC ; CGraphImp::GetIndicatorInfo
EXTRN	?GetPacketTimeDiffName@CGraphImp@@QAEPBDXZ:PROC	; CGraphImp::GetPacketTimeDiffName
EXTRN	?GetPacketOrgBaseTimeDiff@CGraphImp@@QAEHXZ:PROC ; CGraphImp::GetPacketOrgBaseTimeDiff
EXTRN	?SetPacketTimeDiff@CGraphImp@@QAEXV?$CStringT@DV?$StrTraitMFC_DLL@DV?$ChTraitsCRT@D@ATL@@@@@ATL@@H@Z:PROC ; CGraphImp::SetPacketTimeDiff
EXTRN	?GetGraph@CSubGraph@@QBEPAVCGraphImp@@XZ:PROC	; CSubGraph::GetGraph
EXTRN	?GetSubGraphList@CSubGraph@@QBEPAVCSubGraphList@@XZ:PROC ; CSubGraph::GetSubGraphList
EXTRN	?GetSubGraphData@CSubGraph@@QAEAAVCSubGraphData@@XZ:PROC ; CSubGraph::GetSubGraphData
EXTRN	?DrawGrip@CSubGraph@@QAE_NPAVCDC@@H@Z:PROC	; CSubGraph::DrawGrip
EXTRN	__imp_??0CIndicatorInfo@@QAE@W4EIndicatorInfoType@@@Z:PROC
EXTRN	__imp_??1CIndicatorInfo@@UAE@XZ:PROC
EXTRN	__imp_?GetGraphName@CIndicatorInfo@@QBE?AV?$CStringT@DV?$StrTraitMFC_DLL@DV?$ChTraitsCRT@D@ATL@@@@@ATL@@XZ:PROC
EXTRN	??_ECIndicatorInfo@@UAEPAXI@Z:PROC		; CIndicatorInfo::`vector deleting destructor'
EXTRN	@__security_check_cookie@4:PROC
EXTRN	__CxxThrowException@8:PROC
EXTRN	___CxxFrameHandler3:PROC
EXTRN	??_7type_info@@6B@:QWORD			; type_info::`vftable'
EXTRN	?g_iMetaTable@@3VIMetaTable@@A:BYTE		; g_iMetaTable
EXTRN	___security_cookie:DWORD
;	COMDAT ??_R1A@?0A@EA@CSubGraphTitleTool@@8
rdata$r	SEGMENT
??_R1A@?0A@EA@CSubGraphTitleTool@@8 DD FLAT:??_R0?AVCSubGraphTitleTool@@@8 ; CSubGraphTitleTool::`RTTI Base Class Descriptor at (0,-1,0,64)'
	DD	02H
	DD	00H
	DD	0ffffffffH
	DD	00H
	DD	040H
	DD	FLAT:??_R3CSubGraphTitleTool@@8
rdata$r	ENDS
;	COMDAT ??_R2CSubGraphTitleTool@@8
rdata$r	SEGMENT
??_R2CSubGraphTitleTool@@8 DD FLAT:??_R1A@?0A@EA@CSubGraphTitleTool@@8 ; CSubGraphTitleTool::`RTTI Base Class Array'
	DD	FLAT:??_R1A@?0A@EA@CGraphTool@@8
	DD	FLAT:??_R1A@?0A@EA@CBaseTool@@8
rdata$r	ENDS
;	COMDAT ??_R3CSubGraphTitleTool@@8
rdata$r	SEGMENT
??_R3CSubGraphTitleTool@@8 DD 00H			; CSubGraphTitleTool::`RTTI Class Hierarchy Descriptor'
	DD	00H
	DD	03H
	DD	FLAT:??_R2CSubGraphTitleTool@@8
rdata$r	ENDS
;	COMDAT ??_R0?AVCSubGraphTitleTool@@@8
data$rs	SEGMENT
??_R0?AVCSubGraphTitleTool@@@8 DD FLAT:??_7type_info@@6B@ ; CSubGraphTitleTool `RTTI Type Descriptor'
	DD	00H
	DB	'.?AVCSubGraphTitleTool@@', 00H
data$rs	ENDS
;	COMDAT ??_R4CSubGraphTitleTool@@6B@
rdata$r	SEGMENT
??_R4CSubGraphTitleTool@@6B@ DD 00H			; CSubGraphTitleTool::`RTTI Complete Object Locator'
	DD	00H
	DD	00H
	DD	FLAT:??_R0?AVCSubGraphTitleTool@@@8
	DD	FLAT:??_R3CSubGraphTitleTool@@8
rdata$r	ENDS
;	COMDAT ??_R2CBaseTool@@8
rdata$r	SEGMENT
??_R2CBaseTool@@8 DD FLAT:??_R1A@?0A@EA@CBaseTool@@8	; CBaseTool::`RTTI Base Class Array'
rdata$r	ENDS
;	COMDAT ??_R3CBaseTool@@8
rdata$r	SEGMENT
??_R3CBaseTool@@8 DD 00H				; CBaseTool::`RTTI Class Hierarchy Descriptor'
	DD	00H
	DD	01H
	DD	FLAT:??_R2CBaseTool@@8
rdata$r	ENDS
;	COMDAT ??_R0?AVCBaseTool@@@8
data$rs	SEGMENT
??_R0?AVCBaseTool@@@8 DD FLAT:??_7type_info@@6B@	; CBaseTool `RTTI Type Descriptor'
	DD	00H
	DB	'.?AVCBaseTool@@', 00H
data$rs	ENDS
;	COMDAT ??_R1A@?0A@EA@CBaseTool@@8
rdata$r	SEGMENT
??_R1A@?0A@EA@CBaseTool@@8 DD FLAT:??_R0?AVCBaseTool@@@8 ; CBaseTool::`RTTI Base Class Descriptor at (0,-1,0,64)'
	DD	00H
	DD	00H
	DD	0ffffffffH
	DD	00H
	DD	040H
	DD	FLAT:??_R3CBaseTool@@8
rdata$r	ENDS
;	COMDAT ??_R1A@?0A@EA@CGraphTool@@8
rdata$r	SEGMENT
??_R1A@?0A@EA@CGraphTool@@8 DD FLAT:??_R0?AVCGraphTool@@@8 ; CGraphTool::`RTTI Base Class Descriptor at (0,-1,0,64)'
	DD	01H
	DD	00H
	DD	0ffffffffH
	DD	00H
	DD	040H
	DD	FLAT:??_R3CGraphTool@@8
rdata$r	ENDS
;	COMDAT ??_R2CGraphTool@@8
rdata$r	SEGMENT
??_R2CGraphTool@@8 DD FLAT:??_R1A@?0A@EA@CGraphTool@@8	; CGraphTool::`RTTI Base Class Array'
	DD	FLAT:??_R1A@?0A@EA@CBaseTool@@8
rdata$r	ENDS
;	COMDAT ??_R3CGraphTool@@8
rdata$r	SEGMENT
??_R3CGraphTool@@8 DD 00H				; CGraphTool::`RTTI Class Hierarchy Descriptor'
	DD	00H
	DD	02H
	DD	FLAT:??_R2CGraphTool@@8
rdata$r	ENDS
;	COMDAT ??_R0?AVCGraphTool@@@8
data$rs	SEGMENT
??_R0?AVCGraphTool@@@8 DD FLAT:??_7type_info@@6B@	; CGraphTool `RTTI Type Descriptor'
	DD	00H
	DB	'.?AVCGraphTool@@', 00H
data$rs	ENDS
;	COMDAT ??_R4CGraphTool@@6B@
rdata$r	SEGMENT
??_R4CGraphTool@@6B@ DD 00H				; CGraphTool::`RTTI Complete Object Locator'
	DD	00H
	DD	00H
	DD	FLAT:??_R0?AVCGraphTool@@@8
	DD	FLAT:??_R3CGraphTool@@8
rdata$r	ENDS
;	COMDAT ??_R1A@?0A@EA@bad_array_new_length@std@@8
rdata$r	SEGMENT
??_R1A@?0A@EA@bad_array_new_length@std@@8 DD FLAT:??_R0?AVbad_array_new_length@std@@@8 ; std::bad_array_new_length::`RTTI Base Class Descriptor at (0,-1,0,64)'
	DD	02H
	DD	00H
	DD	0ffffffffH
	DD	00H
	DD	040H
	DD	FLAT:??_R3bad_array_new_length@std@@8
rdata$r	ENDS
;	COMDAT ??_R2bad_array_new_length@std@@8
rdata$r	SEGMENT
??_R2bad_array_new_length@std@@8 DD FLAT:??_R1A@?0A@EA@bad_array_new_length@std@@8 ; std::bad_array_new_length::`RTTI Base Class Array'
	DD	FLAT:??_R1A@?0A@EA@bad_alloc@std@@8
	DD	FLAT:??_R1A@?0A@EA@exception@std@@8
rdata$r	ENDS
;	COMDAT ??_R3bad_array_new_length@std@@8
rdata$r	SEGMENT
??_R3bad_array_new_length@std@@8 DD 00H			; std::bad_array_new_length::`RTTI Class Hierarchy Descriptor'
	DD	00H
	DD	03H
	DD	FLAT:??_R2bad_array_new_length@std@@8
rdata$r	ENDS
;	COMDAT ??_R4bad_array_new_length@std@@6B@
rdata$r	SEGMENT
??_R4bad_array_new_length@std@@6B@ DD 00H		; std::bad_array_new_length::`RTTI Complete Object Locator'
	DD	00H
	DD	00H
	DD	FLAT:??_R0?AVbad_array_new_length@std@@@8
	DD	FLAT:??_R3bad_array_new_length@std@@8
rdata$r	ENDS
;	COMDAT ??_R1A@?0A@EA@bad_alloc@std@@8
rdata$r	SEGMENT
??_R1A@?0A@EA@bad_alloc@std@@8 DD FLAT:??_R0?AVbad_alloc@std@@@8 ; std::bad_alloc::`RTTI Base Class Descriptor at (0,-1,0,64)'
	DD	01H
	DD	00H
	DD	0ffffffffH
	DD	00H
	DD	040H
	DD	FLAT:??_R3bad_alloc@std@@8
rdata$r	ENDS
;	COMDAT ??_R2bad_alloc@std@@8
rdata$r	SEGMENT
??_R2bad_alloc@std@@8 DD FLAT:??_R1A@?0A@EA@bad_alloc@std@@8 ; std::bad_alloc::`RTTI Base Class Array'
	DD	FLAT:??_R1A@?0A@EA@exception@std@@8
rdata$r	ENDS
;	COMDAT ??_R3bad_alloc@std@@8
rdata$r	SEGMENT
??_R3bad_alloc@std@@8 DD 00H				; std::bad_alloc::`RTTI Class Hierarchy Descriptor'
	DD	00H
	DD	02H
	DD	FLAT:??_R2bad_alloc@std@@8
rdata$r	ENDS
;	COMDAT ??_R4bad_alloc@std@@6B@
rdata$r	SEGMENT
??_R4bad_alloc@std@@6B@ DD 00H				; std::bad_alloc::`RTTI Complete Object Locator'
	DD	00H
	DD	00H
	DD	FLAT:??_R0?AVbad_alloc@std@@@8
	DD	FLAT:??_R3bad_alloc@std@@8
rdata$r	ENDS
;	COMDAT ??_R1A@?0A@EA@exception@std@@8
rdata$r	SEGMENT
??_R1A@?0A@EA@exception@std@@8 DD FLAT:??_R0?AVexception@std@@@8 ; std::exception::`RTTI Base Class Descriptor at (0,-1,0,64)'
	DD	00H
	DD	00H
	DD	0ffffffffH
	DD	00H
	DD	040H
	DD	FLAT:??_R3exception@std@@8
rdata$r	ENDS
;	COMDAT ??_R2exception@std@@8
rdata$r	SEGMENT
??_R2exception@std@@8 DD FLAT:??_R1A@?0A@EA@exception@std@@8 ; std::exception::`RTTI Base Class Array'
rdata$r	ENDS
;	COMDAT ??_R3exception@std@@8
rdata$r	SEGMENT
??_R3exception@std@@8 DD 00H				; std::exception::`RTTI Class Hierarchy Descriptor'
	DD	00H
	DD	01H
	DD	FLAT:??_R2exception@std@@8
rdata$r	ENDS
;	COMDAT ??_R4exception@std@@6B@
rdata$r	SEGMENT
??_R4exception@std@@6B@ DD 00H				; std::exception::`RTTI Complete Object Locator'
	DD	00H
	DD	00H
	DD	FLAT:??_R0?AVexception@std@@@8
	DD	FLAT:??_R3exception@std@@8
rdata$r	ENDS
;	COMDAT ??_R1A@?0A@EA@CIndicatorInfo@@8
rdata$r	SEGMENT
??_R1A@?0A@EA@CIndicatorInfo@@8 DD FLAT:??_R0?AVCIndicatorInfo@@@8 ; CIndicatorInfo::`RTTI Base Class Descriptor at (0,-1,0,64)'
	DD	00H
	DD	00H
	DD	0ffffffffH
	DD	00H
	DD	040H
	DD	FLAT:??_R3CIndicatorInfo@@8
rdata$r	ENDS
;	COMDAT ??_R2CIndicatorInfo@@8
rdata$r	SEGMENT
??_R2CIndicatorInfo@@8 DD FLAT:??_R1A@?0A@EA@CIndicatorInfo@@8 ; CIndicatorInfo::`RTTI Base Class Array'
rdata$r	ENDS
;	COMDAT ??_R3CIndicatorInfo@@8
rdata$r	SEGMENT
??_R3CIndicatorInfo@@8 DD 00H				; CIndicatorInfo::`RTTI Class Hierarchy Descriptor'
	DD	00H
	DD	01H
	DD	FLAT:??_R2CIndicatorInfo@@8
rdata$r	ENDS
;	COMDAT ??_R0?AVCIndicatorInfo@@@8
data$rs	SEGMENT
??_R0?AVCIndicatorInfo@@@8 DD FLAT:??_7type_info@@6B@	; CIndicatorInfo `RTTI Type Descriptor'
	DD	00H
	DB	'.?AVCIndicatorInfo@@', 00H
data$rs	ENDS
;	COMDAT ??_R4CIndicatorInfo@@6B@
rdata$r	SEGMENT
??_R4CIndicatorInfo@@6B@ DD 00H				; CIndicatorInfo::`RTTI Complete Object Locator'
	DD	00H
	DD	00H
	DD	FLAT:??_R0?AVCIndicatorInfo@@@8
	DD	FLAT:??_R3CIndicatorInfo@@8
rdata$r	ENDS
;	COMDAT ??_C@_0BF@DDJNMPKE@VertScaleGroupEnd?$DL?$AN?6@
CONST	SEGMENT
??_C@_0BF@DDJNMPKE@VertScaleGroupEnd?$DL?$AN?6@ DB 'VertScaleGroupEnd;', 0dH
	DB	0aH, 00H					; `string'
CONST	ENDS
;	COMDAT ??_C@_0BC@DJOHDNOJ@VertScaleGroup?$DL?$AN?6@
CONST	SEGMENT
??_C@_0BC@DJOHDNOJ@VertScaleGroup?$DL?$AN?6@ DB 'VertScaleGroup;', 0dH, 0aH
	DB	00H						; `string'
CONST	ENDS
;	COMDAT ??_C@_07MGCPDNLD@DEFAULT@
CONST	SEGMENT
??_C@_07MGCPDNLD@DEFAULT@ DB 'DEFAULT', 00H		; `string'
CONST	ENDS
;	COMDAT ??_C@_0CD@LGNGJKOD@?$DM?F?$KP?$LM?v?B?w?F?$KO?$DO?$LE?B?5?$LL?h?A?$KG?5?G?R?5?$LM?v?5?$LO?x?$LN?$MA?$LE?O?$LE@
CONST	SEGMENT
??_C@_0CD@LGNGJKOD@?$DM?F?$KP?$LM?v?B?w?F?$KO?$DO?$LE?B?5?$LL?h?A?$KG?5?G?R?5?$LM?v?5?$LO?x?$LN?$MA?$LE?O?$LE@ DB '<'
	DB	0c6H, 0afH, 0bcH, 0f6H, 0c2H, 0f7H, 0c6H, 0aeH, '>', 0b4H, 0c2H
	DB	' ', 0bbH, 0e8H, 0c1H, 0a6H, ' ', 0c7H, 0d2H, ' ', 0bcH, 0f6H, ' '
	DB	0beH, 0f8H, 0bdH, 0c0H, 0b4H, 0cfH, 0b4H, 0d9H, '!!', 00H ; `string'
CONST	ENDS
;	COMDAT ??_SCIndicatorInfo@@6B@
CONST	SEGMENT
??_SCIndicatorInfo@@6B@ DD FLAT:??_R4CIndicatorInfo@@6B@ ; CIndicatorInfo::`local vftable'
	DD	FLAT:??_ECIndicatorInfo@@UAEPAXI@Z
CONST	ENDS
;	COMDAT ??_7CSubGraphTitleTool@@6B@
CONST	SEGMENT
??_7CSubGraphTitleTool@@6B@ DD FLAT:??_R4CSubGraphTitleTool@@6B@ ; CSubGraphTitleTool::`vftable'
	DD	FLAT:?InitializeAllData@CSubGraphTitleTool@@UAEXXZ
	DD	FLAT:?GetToolType@CSubGraphTitleTool@@UBE?AW4TOOLTYPE@CBlockBaseData@@XZ
	DD	FLAT:?OnLButtonDown@CGraphTool@@UAE_NPAVCDC@@PAVCMainBlock@@IABVCPoint@@@Z
	DD	FLAT:?OnLButtonUp@CGraphTool@@UAE_NPAVCDC@@PAVCMainBlock@@ABVCPoint@@@Z
	DD	FLAT:?OnLButtonDblClk@CSubGraphTitleTool@@UAE_NPAVCDC@@PAVCMainBlock@@ABVCPoint@@@Z
	DD	FLAT:?OnRButtonUp@CSubGraphTitleTool@@UAE?AW4MENUTYPE@CMenuType@@PAVCDC@@PAVCMainBlock@@ABVCPoint@@@Z
	DD	FLAT:?OnMouseMove@CGraphTool@@UAEXPAVCDC@@PAVCMainBlock@@IABVCPoint@@@Z
	DD	FLAT:?OnMenu@CGraphTool@@UAE_NPAVCMainBlock@@W4ELEMENTMENU@CMenuType@@I@Z
	DD	FLAT:?GetMenuCheck@CGraphTool@@UAE_NPAVCMainBlock@@W4ELEMENTMENU@CMenuType@@I@Z
	DD	FLAT:?OnDraw@CSubGraphTitleTool@@UAEXPAVCDC@@PAVCMainBlock@@@Z
	DD	FLAT:?OnLButtonUp@CSubGraphTitleTool@@MAE_NXZ
	DD	FLAT:?OnMouseMove@CSubGraphTitleTool@@MAEXPAVCDC@@PAVCMainBlock@@@Z
	DD	FLAT:?OnMenu_SubGraphInvert@CGraphTool@@UAE_NPAVCMainBlock@@PAVCSubGraph@@@Z
	DD	FLAT:?IsGeneralGraph@CGraphTool@@UAEPAVCGraphImp@@PAV2@PAVCVertScaleGroup@@@Z
	DD	FLAT:?GetMenuCheck_SubGraphInvert@CGraphTool@@UAE_NPAVCMainBlock@@PAVCSubGraph@@@Z
	DD	FLAT:?OnMenu_SubGraphSelectTimeDiff@CGraphTool@@UAE_NPAVCMainBlock@@PAVCSubGraph@@PAVCTimeDiffInfo@@@Z
	DD	FLAT:?GetMenuCheck_SubGraphSelectTimeDiff@CGraphTool@@UAE_NPAVCMainBlock@@PAVCSubGraph@@PAVCTimeDiffInfo@@@Z
	DD	FLAT:?OnLButtonDown_Real@CSubGraphTitleTool@@MAEXPAVCDC@@PAVCMainBlock@@IABVCPoint@@@Z
	DD	FLAT:?OnMenu_SubGraph@CSubGraphTitleTool@@MAE_NPAVCMainBlock@@W4ELEMENTMENU@CMenuType@@I@Z
	DD	FLAT:?GetMenuCheck_SubGraph@CSubGraphTitleTool@@MAE_NPAVCMainBlock@@W4ELEMENTMENU@CMenuType@@I@Z
	DD	FLAT:?IsSelectedSubGraph@CSubGraphTitleTool@@MBE_NXZ
	DD	FLAT:?IsSendMessage_SubGraph@CSubGraphTitleTool@@MBE_NXZ
	DD	FLAT:?GetGraphMoving@CSubGraphTitleTool@@MAEPAVCGraphImp@@XZ
	DD	FLAT:?GraphMoving_Ended@CSubGraphTitleTool@@MAEX_N@Z
CONST	ENDS
;	COMDAT ??_7CGraphTool@@6B@
CONST	SEGMENT
??_7CGraphTool@@6B@ DD FLAT:??_R4CGraphTool@@6B@	; CGraphTool::`vftable'
	DD	FLAT:?InitializeAllData@CGraphTool@@UAEXXZ
	DD	FLAT:__purecall
	DD	FLAT:?OnLButtonDown@CGraphTool@@UAE_NPAVCDC@@PAVCMainBlock@@IABVCPoint@@@Z
	DD	FLAT:?OnLButtonUp@CGraphTool@@UAE_NPAVCDC@@PAVCMainBlock@@ABVCPoint@@@Z
	DD	FLAT:?OnLButtonDblClk@CBaseTool@@UAE_NPAVCDC@@PAVCMainBlock@@ABVCPoint@@@Z
	DD	FLAT:?OnRButtonUp@CBaseTool@@UAE?AW4MENUTYPE@CMenuType@@PAVCDC@@PAVCMainBlock@@ABVCPoint@@@Z
	DD	FLAT:?OnMouseMove@CGraphTool@@UAEXPAVCDC@@PAVCMainBlock@@IABVCPoint@@@Z
	DD	FLAT:?OnMenu@CGraphTool@@UAE_NPAVCMainBlock@@W4ELEMENTMENU@CMenuType@@I@Z
	DD	FLAT:?GetMenuCheck@CGraphTool@@UAE_NPAVCMainBlock@@W4ELEMENTMENU@CMenuType@@I@Z
	DD	FLAT:?OnDraw@CBaseTool@@UAEXPAVCDC@@PAVCMainBlock@@@Z
	DD	FLAT:__purecall
	DD	FLAT:__purecall
	DD	FLAT:?OnMenu_SubGraphInvert@CGraphTool@@UAE_NPAVCMainBlock@@PAVCSubGraph@@@Z
	DD	FLAT:?IsGeneralGraph@CGraphTool@@UAEPAVCGraphImp@@PAV2@PAVCVertScaleGroup@@@Z
	DD	FLAT:?GetMenuCheck_SubGraphInvert@CGraphTool@@UAE_NPAVCMainBlock@@PAVCSubGraph@@@Z
	DD	FLAT:?OnMenu_SubGraphSelectTimeDiff@CGraphTool@@UAE_NPAVCMainBlock@@PAVCSubGraph@@PAVCTimeDiffInfo@@@Z
	DD	FLAT:?GetMenuCheck_SubGraphSelectTimeDiff@CGraphTool@@UAE_NPAVCMainBlock@@PAVCSubGraph@@PAVCTimeDiffInfo@@@Z
	DD	FLAT:__purecall
	DD	FLAT:__purecall
	DD	FLAT:__purecall
	DD	FLAT:__purecall
	DD	FLAT:__purecall
	DD	FLAT:__purecall
	DD	FLAT:__purecall
CONST	ENDS
;	COMDAT __CT??_R0?AVexception@std@@@8??0exception@std@@QAE@ABV01@@Z12
xdata$x	SEGMENT
__CT??_R0?AVexception@std@@@8??0exception@std@@QAE@ABV01@@Z12 DD 00H
	DD	FLAT:??_R0?AVexception@std@@@8
	DD	00H
	DD	0ffffffffH
	ORG $+4
	DD	0cH
	DD	FLAT:??0exception@std@@QAE@ABV01@@Z
xdata$x	ENDS
;	COMDAT ??_R0?AVexception@std@@@8
data$r	SEGMENT
??_R0?AVexception@std@@@8 DD FLAT:??_7type_info@@6B@	; std::exception `RTTI Type Descriptor'
	DD	00H
	DB	'.?AVexception@std@@', 00H
data$r	ENDS
;	COMDAT __CT??_R0?AVbad_alloc@std@@@8??0bad_alloc@std@@QAE@ABV01@@Z12
xdata$x	SEGMENT
__CT??_R0?AVbad_alloc@std@@@8??0bad_alloc@std@@QAE@ABV01@@Z12 DD 010H
	DD	FLAT:??_R0?AVbad_alloc@std@@@8
	DD	00H
	DD	0ffffffffH
	ORG $+4
	DD	0cH
	DD	FLAT:??0bad_alloc@std@@QAE@ABV01@@Z
xdata$x	ENDS
;	COMDAT ??_R0?AVbad_alloc@std@@@8
data$r	SEGMENT
??_R0?AVbad_alloc@std@@@8 DD FLAT:??_7type_info@@6B@	; std::bad_alloc `RTTI Type Descriptor'
	DD	00H
	DB	'.?AVbad_alloc@std@@', 00H
data$r	ENDS
;	COMDAT __CT??_R0?AVbad_array_new_length@std@@@8??0bad_array_new_length@std@@QAE@ABV01@@Z12
xdata$x	SEGMENT
__CT??_R0?AVbad_array_new_length@std@@@8??0bad_array_new_length@std@@QAE@ABV01@@Z12 DD 00H
	DD	FLAT:??_R0?AVbad_array_new_length@std@@@8
	DD	00H
	DD	0ffffffffH
	ORG $+4
	DD	0cH
	DD	FLAT:??0bad_array_new_length@std@@QAE@ABV01@@Z
xdata$x	ENDS
;	COMDAT ??_R0?AVbad_array_new_length@std@@@8
data$r	SEGMENT
??_R0?AVbad_array_new_length@std@@@8 DD FLAT:??_7type_info@@6B@ ; std::bad_array_new_length `RTTI Type Descriptor'
	DD	00H
	DB	'.?AVbad_array_new_length@std@@', 00H
data$r	ENDS
;	COMDAT __CTA3?AVbad_array_new_length@std@@
xdata$x	SEGMENT
__CTA3?AVbad_array_new_length@std@@ DD 03H
	DD	FLAT:__CT??_R0?AVbad_array_new_length@std@@@8??0bad_array_new_length@std@@QAE@ABV01@@Z12
	DD	FLAT:__CT??_R0?AVbad_alloc@std@@@8??0bad_alloc@std@@QAE@ABV01@@Z12
	DD	FLAT:__CT??_R0?AVexception@std@@@8??0exception@std@@QAE@ABV01@@Z12
xdata$x	ENDS
;	COMDAT __TI3?AVbad_array_new_length@std@@
xdata$x	SEGMENT
__TI3?AVbad_array_new_length@std@@ DD 00H
	DD	FLAT:??1bad_array_new_length@std@@UAE@XZ
	DD	00H
	DD	FLAT:__CTA3?AVbad_array_new_length@std@@
xdata$x	ENDS
;	COMDAT ??_C@_0BF@KINCDENJ@bad?5array?5new?5length@
CONST	SEGMENT
??_C@_0BF@KINCDENJ@bad?5array?5new?5length@ DB 'bad array new length', 00H ; `string'
CONST	ENDS
;	COMDAT ??_7bad_array_new_length@std@@6B@
CONST	SEGMENT
??_7bad_array_new_length@std@@6B@ DD FLAT:??_R4bad_array_new_length@std@@6B@ ; std::bad_array_new_length::`vftable'
	DD	FLAT:??_Ebad_array_new_length@std@@UAEPAXI@Z
	DD	FLAT:?what@exception@std@@UBEPBDXZ
CONST	ENDS
;	COMDAT ??_7bad_alloc@std@@6B@
CONST	SEGMENT
??_7bad_alloc@std@@6B@ DD FLAT:??_R4bad_alloc@std@@6B@	; std::bad_alloc::`vftable'
	DD	FLAT:??_Ebad_alloc@std@@UAEPAXI@Z
	DD	FLAT:?what@exception@std@@UBEPBDXZ
CONST	ENDS
;	COMDAT ??_C@_0BC@EOODALEL@Unknown?5exception@
CONST	SEGMENT
??_C@_0BC@EOODALEL@Unknown?5exception@ DB 'Unknown exception', 00H ; `string'
CONST	ENDS
;	COMDAT ??_7exception@std@@6B@
CONST	SEGMENT
??_7exception@std@@6B@ DD FLAT:??_R4exception@std@@6B@	; std::exception::`vftable'
	DD	FLAT:??_Eexception@std@@UAEPAXI@Z
	DD	FLAT:?what@exception@std@@UBEPBDXZ
CONST	ENDS
;	COMDAT ??_C@_00CNPNBAHC@@
CONST	SEGMENT
??_C@_00CNPNBAHC@@ DB 00H				; `string'
CONST	ENDS
;	COMDAT xdata$x
xdata$x	SEGMENT
__unwindtable$?IsSendMessage_SubGraph@CSubGraphTool@@MBE_NXZ DD 0ffffffffH
	DD	FLAT:__unwindfunclet$?IsSendMessage_SubGraph@CSubGraphTool@@MBE_NXZ$0
__ehfuncinfo$?IsSendMessage_SubGraph@CSubGraphTool@@MBE_NXZ DD 019930522H
	DD	01H
	DD	FLAT:__unwindtable$?IsSendMessage_SubGraph@CSubGraphTool@@MBE_NXZ
	DD	2 DUP(00H)
	DD	2 DUP(00H)
	DD	00H
	DD	01H
xdata$x	ENDS
;	COMDAT xdata$x
xdata$x	SEGMENT
__unwindtable$?Find@CSubGraphTool@@QAE_NPAVCDC@@PAVCMainBlock@@ABVCPoint@@@Z DD 0ffffffffH
	DD	FLAT:__unwindfunclet$?Find@CSubGraphTool@@QAE_NPAVCDC@@PAVCMainBlock@@ABVCPoint@@@Z$0
__ehfuncinfo$?Find@CSubGraphTool@@QAE_NPAVCDC@@PAVCMainBlock@@ABVCPoint@@@Z DD 019930522H
	DD	01H
	DD	FLAT:__unwindtable$?Find@CSubGraphTool@@QAE_NPAVCDC@@PAVCMainBlock@@ABVCPoint@@@Z
	DD	2 DUP(00H)
	DD	2 DUP(00H)
	DD	00H
	DD	01H
xdata$x	ENDS
;	COMDAT xdata$x
xdata$x	SEGMENT
__unwindtable$?IsSendMessage_SubGraph@CSubGraphTitleTool@@MBE_NXZ DD 0ffffffffH
	DD	FLAT:__unwindfunclet$?IsSendMessage_SubGraph@CSubGraphTitleTool@@MBE_NXZ$0
__ehfuncinfo$?IsSendMessage_SubGraph@CSubGraphTitleTool@@MBE_NXZ DD 019930522H
	DD	01H
	DD	FLAT:__unwindtable$?IsSendMessage_SubGraph@CSubGraphTitleTool@@MBE_NXZ
	DD	2 DUP(00H)
	DD	2 DUP(00H)
	DD	00H
	DD	01H
xdata$x	ENDS
;	COMDAT xdata$x
xdata$x	SEGMENT
__unwindtable$?OnMenu_DataIndex@CGraphTool@@IAE_NABVCSelectedSubGraphData@@@Z DD 0ffffffffH
	DD	FLAT:__unwindfunclet$?OnMenu_DataIndex@CGraphTool@@IAE_NABVCSelectedSubGraphData@@@Z$0
__ehfuncinfo$?OnMenu_DataIndex@CGraphTool@@IAE_NABVCSelectedSubGraphData@@@Z DD 019930522H
	DD	01H
	DD	FLAT:__unwindtable$?OnMenu_DataIndex@CGraphTool@@IAE_NABVCSelectedSubGraphData@@@Z
	DD	2 DUP(00H)
	DD	2 DUP(00H)
	DD	00H
	DD	01H
xdata$x	ENDS
;	COMDAT xdata$x
xdata$x	SEGMENT
__unwindtable$?LoadIndicatorConfiguration@CGraphTool@@IAE_NPAVCMainBlock@@PAVCSubGraph@@@Z DD 0ffffffffH
	DD	FLAT:__unwindfunclet$?LoadIndicatorConfiguration@CGraphTool@@IAE_NPAVCMainBlock@@PAVCSubGraph@@@Z$0
__ehfuncinfo$?LoadIndicatorConfiguration@CGraphTool@@IAE_NPAVCMainBlock@@PAVCSubGraph@@@Z DD 019930522H
	DD	01H
	DD	FLAT:__unwindtable$?LoadIndicatorConfiguration@CGraphTool@@IAE_NPAVCMainBlock@@PAVCSubGraph@@@Z
	DD	2 DUP(00H)
	DD	2 DUP(00H)
	DD	00H
	DD	01H
xdata$x	ENDS
;	COMDAT xdata$x
xdata$x	SEGMENT
__unwindtable$?GetMenuCheck_SubGraphSelectTimeDiff@CGraphTool@@UAE_NPAVCMainBlock@@PAVCSubGraph@@PAVCTimeDiffInfo@@@Z DD 0ffffffffH
	DD	FLAT:__unwindfunclet$?GetMenuCheck_SubGraphSelectTimeDiff@CGraphTool@@UAE_NPAVCMainBlock@@PAVCSubGraph@@PAVCTimeDiffInfo@@@Z$0
__ehfuncinfo$?GetMenuCheck_SubGraphSelectTimeDiff@CGraphTool@@UAE_NPAVCMainBlock@@PAVCSubGraph@@PAVCTimeDiffInfo@@@Z DD 019930522H
	DD	01H
	DD	FLAT:__unwindtable$?GetMenuCheck_SubGraphSelectTimeDiff@CGraphTool@@UAE_NPAVCMainBlock@@PAVCSubGraph@@PAVCTimeDiffInfo@@@Z
	DD	2 DUP(00H)
	DD	2 DUP(00H)
	DD	00H
	DD	01H
xdata$x	ENDS
;	COMDAT xdata$x
xdata$x	SEGMENT
__ehfuncinfo$?IsGeneralGraph@CGraphTool@@UAEPAVCGraphImp@@PAV2@PAVCVertScaleGroup@@@Z DD 019930522H
	DD	05H
	DD	FLAT:__unwindtable$?IsGeneralGraph@CGraphTool@@UAEPAVCGraphImp@@PAV2@PAVCVertScaleGroup@@@Z
	DD	2 DUP(00H)
	DD	2 DUP(00H)
	DD	00H
	DD	01H
__unwindtable$?IsGeneralGraph@CGraphTool@@UAEPAVCGraphImp@@PAV2@PAVCVertScaleGroup@@@Z DD 0ffffffffH
	DD	FLAT:__unwindfunclet$?IsGeneralGraph@CGraphTool@@UAEPAVCGraphImp@@PAV2@PAVCVertScaleGroup@@@Z$0
	DD	00H
	DD	FLAT:__unwindfunclet$?IsGeneralGraph@CGraphTool@@UAEPAVCGraphImp@@PAV2@PAVCVertScaleGroup@@@Z$1
	DD	00H
	DD	FLAT:__unwindfunclet$?IsGeneralGraph@CGraphTool@@UAEPAVCGraphImp@@PAV2@PAVCVertScaleGroup@@@Z$2
	DD	00H
	DD	FLAT:__unwindfunclet$?IsGeneralGraph@CGraphTool@@UAEPAVCGraphImp@@PAV2@PAVCVertScaleGroup@@@Z$3
	DD	00H
	DD	FLAT:__unwindfunclet$?IsGeneralGraph@CGraphTool@@UAEPAVCGraphImp@@PAV2@PAVCVertScaleGroup@@@Z$4
xdata$x	ENDS
;	COMDAT xdata$x
xdata$x	SEGMENT
__unwindtable$?OnMenu_SubGraphInvert@CGraphTool@@UAE_NPAVCMainBlock@@PAVCSubGraph@@@Z DD 0ffffffffH
	DD	FLAT:__unwindfunclet$?OnMenu_SubGraphInvert@CGraphTool@@UAE_NPAVCMainBlock@@PAVCSubGraph@@@Z$0
	DD	00H
	DD	FLAT:__unwindfunclet$?OnMenu_SubGraphInvert@CGraphTool@@UAE_NPAVCMainBlock@@PAVCSubGraph@@@Z$1
	DD	00H
	DD	FLAT:__unwindfunclet$?OnMenu_SubGraphInvert@CGraphTool@@UAE_NPAVCMainBlock@@PAVCSubGraph@@@Z$2
	DD	02H
	DD	FLAT:__unwindfunclet$?OnMenu_SubGraphInvert@CGraphTool@@UAE_NPAVCMainBlock@@PAVCSubGraph@@@Z$3
__ehfuncinfo$?OnMenu_SubGraphInvert@CGraphTool@@UAE_NPAVCMainBlock@@PAVCSubGraph@@@Z DD 019930522H
	DD	04H
	DD	FLAT:__unwindtable$?OnMenu_SubGraphInvert@CGraphTool@@UAE_NPAVCMainBlock@@PAVCSubGraph@@@Z
	DD	2 DUP(00H)
	DD	2 DUP(00H)
	DD	00H
	DD	01H
xdata$x	ENDS
;	COMDAT xdata$x
xdata$x	SEGMENT
__unwindtable$?OnMenu@CGraphTool@@UAE_NPAVCMainBlock@@W4ELEMENTMENU@CMenuType@@I@Z DD 0ffffffffH
	DD	FLAT:__unwindfunclet$?OnMenu@CGraphTool@@UAE_NPAVCMainBlock@@W4ELEMENTMENU@CMenuType@@I@Z$0
	DD	00H
	DD	FLAT:__unwindfunclet$?OnMenu@CGraphTool@@UAE_NPAVCMainBlock@@W4ELEMENTMENU@CMenuType@@I@Z$1
__ehfuncinfo$?OnMenu@CGraphTool@@UAE_NPAVCMainBlock@@W4ELEMENTMENU@CMenuType@@I@Z DD 019930522H
	DD	02H
	DD	FLAT:__unwindtable$?OnMenu@CGraphTool@@UAE_NPAVCMainBlock@@W4ELEMENTMENU@CMenuType@@I@Z
	DD	2 DUP(00H)
	DD	2 DUP(00H)
	DD	00H
	DD	01H
xdata$x	ENDS
; Function compile flags: /Ogtp
; File C:\Program Files (x86)\Microsoft Visual Studio\2019\Community\VC\Tools\MSVC\14.29.30133\include\xmemory
;	COMDAT ??$_Allocate_manually_vector_aligned@U_Default_allocate_traits@std@@@std@@YAPAXI@Z
_TEXT	SEGMENT
__Bytes$ = 8						; size = 4
??$_Allocate_manually_vector_aligned@U_Default_allocate_traits@std@@@std@@YAPAXI@Z PROC ; std::_Allocate_manually_vector_aligned<std::_Default_allocate_traits>, COMDAT

; 127  : __declspec(allocator) void* _Allocate_manually_vector_aligned(const size_t _Bytes) {

  00000	55		 push	 ebp
  00001	8b ec		 mov	 ebp, esp

; 128  :     // allocate _Bytes manually aligned to at least _Big_allocation_alignment
; 129  :     const size_t _Block_size = _Non_user_size + _Bytes;

  00003	8b 45 08	 mov	 eax, DWORD PTR __Bytes$[ebp]
  00006	8d 48 23	 lea	 ecx, DWORD PTR [eax+35]

; 130  :     if (_Block_size <= _Bytes) {

  00009	3b c8		 cmp	 ecx, eax
  0000b	0f 86 00 00 00
	00		 jbe	 ?_Throw_bad_array_new_length@std@@YAXXZ ; std::_Throw_bad_array_new_length

; 79   :         return ::operator new(_Bytes);

  00011	51		 push	 ecx
  00012	e8 00 00 00 00	 call	 ??2@YAPAXI@Z		; operator new

; 131  :         _Throw_bad_array_new_length(); // add overflow
; 132  :     }
; 133  : 
; 134  :     const uintptr_t _Ptr_container = reinterpret_cast<uintptr_t>(_Traits::_Allocate(_Block_size));

  00017	8b c8		 mov	 ecx, eax

; 79   :         return ::operator new(_Bytes);

  00019	83 c4 04	 add	 esp, 4

; 135  :     _STL_VERIFY(_Ptr_container != 0, "invalid argument"); // validate even in release since we're doing p[-1]

  0001c	85 c9		 test	 ecx, ecx
  0001e	74 0b		 je	 SHORT $LN7@Allocate_m

; 136  :     void* const _Ptr = reinterpret_cast<void*>((_Ptr_container + _Non_user_size) & ~(_Big_allocation_alignment - 1));

  00020	8d 41 23	 lea	 eax, DWORD PTR [ecx+35]
  00023	83 e0 e0	 and	 eax, -32		; ffffffe0H

; 137  :     static_cast<uintptr_t*>(_Ptr)[-1] = _Ptr_container;

  00026	89 48 fc	 mov	 DWORD PTR [eax-4], ecx

; 138  : 
; 139  : #ifdef _DEBUG
; 140  :     static_cast<uintptr_t*>(_Ptr)[-2] = _Big_allocation_sentinel;
; 141  : #endif // _DEBUG
; 142  :     return _Ptr;
; 143  : }

  00029	5d		 pop	 ebp
  0002a	c3		 ret	 0
$LN7@Allocate_m:

; 135  :     _STL_VERIFY(_Ptr_container != 0, "invalid argument"); // validate even in release since we're doing p[-1]

  0002b	ff 25 00 00 00
	00		 jmp	 DWORD PTR __imp___invalid_parameter_noinfo_noreturn
??$_Allocate_manually_vector_aligned@U_Default_allocate_traits@std@@@std@@YAPAXI@Z ENDP ; std::_Allocate_manually_vector_aligned<std::_Default_allocate_traits>
_TEXT	ENDS
; Function compile flags: /Ogtp
;	COMDAT ??_GCIndicatorInfo@@UAEPAXI@Z
_TEXT	SEGMENT
___flags$ = 8						; size = 4
??_GCIndicatorInfo@@UAEPAXI@Z PROC			; CIndicatorInfo::`scalar deleting destructor', COMDAT
; _this$ = ecx
  00000	55		 push	 ebp
  00001	8b ec		 mov	 ebp, esp
  00003	56		 push	 esi
  00004	8b f1		 mov	 esi, ecx
  00006	ff 15 00 00 00
	00		 call	 DWORD PTR __imp_??1CIndicatorInfo@@UAE@XZ
  0000c	f6 45 08 01	 test	 BYTE PTR ___flags$[ebp], 1
  00010	74 0b		 je	 SHORT $LN4@scalar
  00012	6a 08		 push	 8
  00014	56		 push	 esi
  00015	e8 00 00 00 00	 call	 ??3@YAXPAXI@Z		; operator delete
  0001a	83 c4 08	 add	 esp, 8
$LN4@scalar:
  0001d	8b c6		 mov	 eax, esi
  0001f	5e		 pop	 esi
  00020	5d		 pop	 ebp
  00021	c2 04 00	 ret	 4
??_GCIndicatorInfo@@UAEPAXI@Z ENDP			; CIndicatorInfo::`scalar deleting destructor'
_TEXT	ENDS
; Function compile flags: /Ogtp
; File D:\git\src\IBK\IBK_DRFN\ProjSrc\SrcChartEx\ChartOCX\ChartObject\GraphTool.cpp
;	COMDAT ?OnMenu_Etc@CSubGraphTool@@AAE_NW4ELEMENTMENU@CMenuType@@I@Z
_TEXT	SEGMENT
_menuType$ = 8						; size = 4
_wParam$ = 12						; size = 4
?OnMenu_Etc@CSubGraphTool@@AAE_NW4ELEMENTMENU@CMenuType@@I@Z PROC ; CSubGraphTool::OnMenu_Etc, COMDAT
; _this$ = ecx

; 974  : {

  00000	55		 push	 ebp
  00001	8b ec		 mov	 ebp, esp

; 975  : 	return m_selectedSubGraphDeque.OnMenu(menuType, wParam);

  00003	83 c1 24	 add	 ecx, 36			; 00000024H

; 976  : }

  00006	5d		 pop	 ebp

; 975  : 	return m_selectedSubGraphDeque.OnMenu(menuType, wParam);

  00007	e9 00 00 00 00	 jmp	 ?OnMenu@CSelectedSubGraphDeque@@QAE_NW4ELEMENTMENU@CMenuType@@I@Z ; CSelectedSubGraphDeque::OnMenu
?OnMenu_Etc@CSubGraphTool@@AAE_NW4ELEMENTMENU@CMenuType@@I@Z ENDP ; CSubGraphTool::OnMenu_Etc
_TEXT	ENDS
; Function compile flags: /Ogtp
; File D:\git\src\IBK\IBK_DRFN\ProjSrc\SrcChartEx\ChartOCX\ChartObject\GraphTool.cpp
;	COMDAT ?OnMenu_SubGraphSet@CSubGraphTool@@AAE_NPAVCMainBlock@@@Z
_TEXT	SEGMENT
_pMainBlock$ = 8					; size = 4
?OnMenu_SubGraphSet@CSubGraphTool@@AAE_NPAVCMainBlock@@@Z PROC ; CSubGraphTool::OnMenu_SubGraphSet, COMDAT
; _this$ = ecx

; 964  : {

  00000	55		 push	 ebp
  00001	8b ec		 mov	 ebp, esp
  00003	53		 push	 ebx
  00004	56		 push	 esi
  00005	57		 push	 edi

; 965  : 	CBaseTool::SetProcessEnded(true);

  00006	6a 01		 push	 1
  00008	8b f9		 mov	 edi, ecx
  0000a	e8 00 00 00 00	 call	 ?SetProcessEnded@CBaseTool@@IAEX_N@Z ; CBaseTool::SetProcessEnded

; 966  : 
; 967  : 	bool bResult = CGraphTool::LoadIndicatorConfiguration(pMainBlock, m_selectedSubGraphDeque.GetSubGraphTail());

  0000f	8d 4f 24	 lea	 ecx, DWORD PTR [edi+36]
  00012	e8 00 00 00 00	 call	 ?GetSubGraphTail@CSelectedSubGraphDeque@@QBEPAVCSubGraph@@XZ ; CSelectedSubGraphDeque::GetSubGraphTail
  00017	50		 push	 eax
  00018	ff 75 08	 push	 DWORD PTR _pMainBlock$[ebp]
  0001b	8b cf		 mov	 ecx, edi
  0001d	e8 00 00 00 00	 call	 ?LoadIndicatorConfiguration@CGraphTool@@IAE_NPAVCMainBlock@@PAVCSubGraph@@@Z ; CGraphTool::LoadIndicatorConfiguration

; 968  : 	m_selectedSubGraphDeque.RemoveAll();

  00022	8d 4f 24	 lea	 ecx, DWORD PTR [edi+36]
  00025	8a d8		 mov	 bl, al
  00027	e8 00 00 00 00	 call	 ?RemoveAll@CSelectedSubGraphDeque@@QAEXXZ ; CSelectedSubGraphDeque::RemoveAll

; 969  : 	return bResult;

  0002c	5f		 pop	 edi
  0002d	5e		 pop	 esi
  0002e	8a c3		 mov	 al, bl
  00030	5b		 pop	 ebx

; 970  : }

  00031	5d		 pop	 ebp
  00032	c2 04 00	 ret	 4
?OnMenu_SubGraphSet@CSubGraphTool@@AAE_NPAVCMainBlock@@@Z ENDP ; CSubGraphTool::OnMenu_SubGraphSet
_TEXT	ENDS
; Function compile flags: /Ogtp
; File D:\git\src\IBK\IBK_DRFN\ProjSrc\SrcChartEx\ChartOCX\ChartObject\GraphTool.cpp
;	COMDAT ?SelectedGraphDataIndex@CSubGraphTool@@AAE_NXZ
_TEXT	SEGMENT
$T1 = -8						; size = 8
?SelectedGraphDataIndex@CSubGraphTool@@AAE_NXZ PROC	; CSubGraphTool::SelectedGraphDataIndex, COMDAT
; _this$ = ecx

; 950  : {

  00000	55		 push	 ebp
  00001	8b ec		 mov	 ebp, esp
  00003	83 ec 08	 sub	 esp, 8
  00006	56		 push	 esi
  00007	57		 push	 edi
  00008	8b f9		 mov	 edi, ecx

; 951  : 	if(m_selectedSubGraphDeque.GetCount() != 1)

  0000a	8d 4f 24	 lea	 ecx, DWORD PTR [edi+36]
  0000d	e8 00 00 00 00	 call	 ?GetCount@CSelectedSubGraphDeque@@QBEHXZ ; CSelectedSubGraphDeque::GetCount
  00012	83 f8 01	 cmp	 eax, 1
  00015	75 3a		 jne	 SHORT $LN4@SelectedGr

; 952  : 		return false;
; 953  : 
; 954  : 	CSubGraph* pSubGraph = m_selectedSubGraphDeque.GetSubGraphTail();

  00017	8d 4f 24	 lea	 ecx, DWORD PTR [edi+36]
  0001a	e8 00 00 00 00	 call	 ?GetSubGraphTail@CSelectedSubGraphDeque@@QBEPAVCSubGraph@@XZ ; CSelectedSubGraphDeque::GetSubGraphTail

; 955  : 	if(pSubGraph == NULL || pSubGraph->GetSubGraphData().GetType() != CGraphBaseData::DataView_Type)

  0001f	85 c0		 test	 eax, eax
  00021	74 2e		 je	 SHORT $LN4@SelectedGr
  00023	8b c8		 mov	 ecx, eax
  00025	e8 00 00 00 00	 call	 ?GetSubGraphData@CSubGraph@@QAEAAVCSubGraphData@@XZ ; CSubGraph::GetSubGraphData
  0002a	8b c8		 mov	 ecx, eax
  0002c	ff 15 00 00 00
	00		 call	 DWORD PTR __imp_?GetType@CSubGraphDataBase@@QBE?AW4GRAPHTYPE@CGraphBaseData@@XZ
  00032	83 f8 06	 cmp	 eax, 6
  00035	75 1a		 jne	 SHORT $LN4@SelectedGr

; 957  : 
; 958  : 	return CGraphTool::OnMenu_DataIndex(m_selectedSubGraphDeque.GetTail());

  00037	8d 45 f8	 lea	 eax, DWORD PTR $T1[ebp]
  0003a	50		 push	 eax
  0003b	8d 4f 24	 lea	 ecx, DWORD PTR [edi+36]
  0003e	e8 00 00 00 00	 call	 ?GetTail@CSelectedSubGraphDeque@@QBE?AVCSelectedSubGraphData@@XZ ; CSelectedSubGraphDeque::GetTail
  00043	50		 push	 eax
  00044	8b cf		 mov	 ecx, edi
  00046	e8 00 00 00 00	 call	 ?OnMenu_DataIndex@CGraphTool@@IAE_NABVCSelectedSubGraphData@@@Z ; CGraphTool::OnMenu_DataIndex
  0004b	5f		 pop	 edi

; 959  : }

  0004c	5e		 pop	 esi
  0004d	8b e5		 mov	 esp, ebp
  0004f	5d		 pop	 ebp
  00050	c3		 ret	 0
$LN4@SelectedGr:
  00051	5f		 pop	 edi

; 956  : 		return false;

  00052	32 c0		 xor	 al, al

; 959  : }

  00054	5e		 pop	 esi
  00055	8b e5		 mov	 esp, ebp
  00057	5d		 pop	 ebp
  00058	c3		 ret	 0
?SelectedGraphDataIndex@CSubGraphTool@@AAE_NXZ ENDP	; CSubGraphTool::SelectedGraphDataIndex
_TEXT	ENDS
; Function compile flags: /Ogtp
; File D:\git\src\IBK\IBK_DRFN\ProjSrc\SrcChartEx\ChartOCX\ChartObject\GraphTool.cpp
;	COMDAT ?ReversedSubGraphHighlight@CSubGraphTool@@AAE_NPAVCMainBlock@@ABVCPoint@@@Z
_TEXT	SEGMENT
_pMainBlock$ = 8					; size = 4
_point$ = 12						; size = 4
?ReversedSubGraphHighlight@CSubGraphTool@@AAE_NPAVCMainBlock@@ABVCPoint@@@Z PROC ; CSubGraphTool::ReversedSubGraphHighlight, COMDAT
; _this$ = ecx

; 934  : {

  00000	55		 push	 ebp
  00001	8b ec		 mov	 ebp, esp

; 935  : 	if(pMainBlock == NULL)

  00003	83 7d 08 00	 cmp	 DWORD PTR _pMainBlock$[ebp], 0
  00007	57		 push	 edi
  00008	8b f9		 mov	 edi, ecx
  0000a	74 1c		 je	 SHORT $LN5@ReversedSu

; 936  : 		return false;
; 937  : 
; 938  : 	CSubGraph* pSubGraph = m_selectedSubGraphDeque.GetSubGraphTail();

  0000c	8d 4f 24	 lea	 ecx, DWORD PTR [edi+36]
  0000f	e8 00 00 00 00	 call	 ?GetSubGraphTail@CSelectedSubGraphDeque@@QBEPAVCSubGraph@@XZ ; CSelectedSubGraphDeque::GetSubGraphTail

; 939  : 	if(pSubGraph == NULL)

  00014	85 c0		 test	 eax, eax
  00016	74 10		 je	 SHORT $LN5@ReversedSu

; 941  : 
; 942  : 	// (2008/10/7 - Seung-Won, Bae) Show config for double click.
; 943  : 	//	pSubGraph->GetSubGraphData().GetPenThickness().ReversedHightlight();
; 944  : 	//	return true;
; 945  : 	return CGraphTool::LoadIndicatorConfiguration( pMainBlock, pSubGraph);

  00018	50		 push	 eax
  00019	ff 75 08	 push	 DWORD PTR _pMainBlock$[ebp]
  0001c	8b cf		 mov	 ecx, edi
  0001e	e8 00 00 00 00	 call	 ?LoadIndicatorConfiguration@CGraphTool@@IAE_NPAVCMainBlock@@PAVCSubGraph@@@Z ; CGraphTool::LoadIndicatorConfiguration
  00023	5f		 pop	 edi

; 946  : }

  00024	5d		 pop	 ebp
  00025	c2 08 00	 ret	 8
$LN5@ReversedSu:

; 940  : 		return false;

  00028	32 c0		 xor	 al, al
  0002a	5f		 pop	 edi

; 946  : }

  0002b	5d		 pop	 ebp
  0002c	c2 08 00	 ret	 8
?ReversedSubGraphHighlight@CSubGraphTool@@AAE_NPAVCMainBlock@@ABVCPoint@@@Z ENDP ; CSubGraphTool::ReversedSubGraphHighlight
_TEXT	ENDS
; Function compile flags: /Ogtp
; File D:\git\src\IBK\IBK_DRFN\ProjSrc\SrcChartEx\ChartOCX\ChartObject\GraphTool.cpp
;	COMDAT ?ChangeAllVertScaleGridType@CSubGraphTool@@AAEXXZ
_TEXT	SEGMENT
?ChangeAllVertScaleGridType@CSubGraphTool@@AAEXXZ PROC	; CSubGraphTool::ChangeAllVertScaleGridType, COMDAT
; _this$ = ecx

; 924  : {

  00000	56		 push	 esi
  00001	8b f1		 mov	 esi, ecx

; 925  : 	if(!IsSelectedSubGraph())

  00003	8b 06		 mov	 eax, DWORD PTR [esi]
  00005	8b 40 50	 mov	 eax, DWORD PTR [eax+80]
  00008	ff d0		 call	 eax
  0000a	84 c0		 test	 al, al
  0000c	74 21		 je	 SHORT $LN4@ChangeAllV

; 926  : 		return;
; 927  : 
; 928  : 	CGraphTool::ChangeAllVertScaleGridType(m_selectedSubGraphDeque.GetVertScaleGroupTail());

  0000e	8d 4e 24	 lea	 ecx, DWORD PTR [esi+36]
  00011	e8 00 00 00 00	 call	 ?GetVertScaleGroupTail@CSelectedSubGraphDeque@@QBEPAVCVertScaleGroup@@XZ ; CSelectedSubGraphDeque::GetVertScaleGroupTail
  00016	8b f0		 mov	 esi, eax

; 222  : 	if( pVertScaleGroup == NULL) return;

  00018	85 f6		 test	 esi, esi
  0001a	74 13		 je	 SHORT $LN4@ChangeAllV

; 223  : 
; 224  : 	CVertScaleGroupList *pVertScaleGroupList = pVertScaleGroup->GetVertScaleGroupList();

  0001c	8b ce		 mov	 ecx, esi
  0001e	e8 00 00 00 00	 call	 ?GetVertScaleGroupList@CVertScaleGroup@@QBEPAVCVertScaleGroupList@@XZ ; CVertScaleGroup::GetVertScaleGroupList

; 225  : 	if( !pVertScaleGroupList) return;

  00023	85 c0		 test	 eax, eax
  00025	74 08		 je	 SHORT $LN4@ChangeAllV

; 226  : 	pVertScaleGroupList->SetActivate( pVertScaleGroup);

  00027	56		 push	 esi
  00028	8b c8		 mov	 ecx, eax
  0002a	e8 00 00 00 00	 call	 ?SetActivate@CVertScaleGroupList@@QAEXPAVCVertScaleGroup@@@Z ; CVertScaleGroupList::SetActivate
$LN4@ChangeAllV:
  0002f	5e		 pop	 esi

; 929  : }

  00030	c3		 ret	 0
?ChangeAllVertScaleGridType@CSubGraphTool@@AAEXXZ ENDP	; CSubGraphTool::ChangeAllVertScaleGridType
_TEXT	ENDS
; Function compile flags: /Ogtp
; File D:\git\src\IBK\IBK_DRFN\ProjSrc\SrcChartEx\ChartOCX\ChartObject\GraphTool.cpp
;	COMDAT ?FindSubGraph@CSubGraphTool@@AAE_NPAVCMainBlock@@ABVCPoint@@AAVCSelectedSubGraphDeque@@@Z
_TEXT	SEGMENT
_pMainBlock$ = 8					; size = 4
_point$ = 12						; size = 4
_selectedSubGraphDeque$ = 16				; size = 4
?FindSubGraph@CSubGraphTool@@AAE_NPAVCMainBlock@@ABVCPoint@@AAVCSelectedSubGraphDeque@@@Z PROC ; CSubGraphTool::FindSubGraph, COMDAT
; _this$ = ecx

; 905  : {

  00000	55		 push	 ebp
  00001	8b ec		 mov	 ebp, esp

; 906  : 	InitializeAllData();

  00003	8b 01		 mov	 eax, DWORD PTR [ecx]
  00005	ff 10		 call	 DWORD PTR [eax]

; 907  : 	if(pMainBlock == NULL)

  00007	8b 4d 08	 mov	 ecx, DWORD PTR _pMainBlock$[ebp]
  0000a	85 c9		 test	 ecx, ecx
  0000c	75 06		 jne	 SHORT $LN2@FindSubGra

; 908  : 		return false;

  0000e	32 c0		 xor	 al, al

; 911  : }

  00010	5d		 pop	 ebp
  00011	c2 0c 00	 ret	 12			; 0000000cH
$LN2@FindSubGra:

; 909  : 
; 910  : 	return pMainBlock->FindSubGraph(point, selectedSubGraphDeque);

  00014	8b 01		 mov	 eax, DWORD PTR [ecx]
  00016	ff 75 10	 push	 DWORD PTR _selectedSubGraphDeque$[ebp]
  00019	ff 75 0c	 push	 DWORD PTR _point$[ebp]
  0001c	8b 80 a0 02 00
	00		 mov	 eax, DWORD PTR [eax+672]
  00022	ff d0		 call	 eax

; 911  : }

  00024	5d		 pop	 ebp
  00025	c2 0c 00	 ret	 12			; 0000000cH
?FindSubGraph@CSubGraphTool@@AAE_NPAVCMainBlock@@ABVCPoint@@AAVCSelectedSubGraphDeque@@@Z ENDP ; CSubGraphTool::FindSubGraph
_TEXT	ENDS
; Function compile flags: /Ogtp
; File D:\git\src\IBK\IBK_DRFN\ProjSrc\SrcChartEx\ChartOCX\ChartObject\GraphTool.cpp
;	COMDAT ?FindSubGraph@CSubGraphTool@@AAEXPAVCMainBlock@@IABVCPoint@@@Z
_TEXT	SEGMENT
_pMainBlock$ = 8					; size = 4
_nFlags$ = 12						; size = 4
_point$ = 16						; size = 4
?FindSubGraph@CSubGraphTool@@AAEXPAVCMainBlock@@IABVCPoint@@@Z PROC ; CSubGraphTool::FindSubGraph, COMDAT
; _this$ = ecx

; 896  : {

  00000	55		 push	 ebp
  00001	8b ec		 mov	 ebp, esp

; 897  : 	// no shift key
; 898  : 	if((nFlags & MK_SHIFT) == 0)

  00003	f6 45 0c 04	 test	 BYTE PTR _nFlags$[ebp], 4
  00007	56		 push	 esi
  00008	8b f1		 mov	 esi, ecx
  0000a	57		 push	 edi
  0000b	8d 7e 24	 lea	 edi, DWORD PTR [esi+36]
  0000e	75 07		 jne	 SHORT $LN7@FindSubGra

; 899  : 		m_selectedSubGraphDeque.RemoveAll();

  00010	8b cf		 mov	 ecx, edi
  00012	e8 00 00 00 00	 call	 ?RemoveAll@CSelectedSubGraphDeque@@QAEXXZ ; CSelectedSubGraphDeque::RemoveAll
$LN7@FindSubGra:

; 906  : 	InitializeAllData();

  00017	8b 06		 mov	 eax, DWORD PTR [esi]
  00019	8b ce		 mov	 ecx, esi
  0001b	ff 10		 call	 DWORD PTR [eax]

; 907  : 	if(pMainBlock == NULL)

  0001d	8b 4d 08	 mov	 ecx, DWORD PTR _pMainBlock$[ebp]
  00020	85 c9		 test	 ecx, ecx
  00022	74 0c		 je	 SHORT $LN4@FindSubGra

; 908  : 		return false;
; 909  : 
; 910  : 	return pMainBlock->FindSubGraph(point, selectedSubGraphDeque);

  00024	8b 01		 mov	 eax, DWORD PTR [ecx]
  00026	57		 push	 edi
  00027	ff 75 10	 push	 DWORD PTR _point$[ebp]
  0002a	ff 90 a0 02 00
	00		 call	 DWORD PTR [eax+672]
$LN4@FindSubGra:
  00030	5f		 pop	 edi

; 900  : 
; 901  : 	FindSubGraph(pMainBlock, point, m_selectedSubGraphDeque);
; 902  : }

  00031	5e		 pop	 esi
  00032	5d		 pop	 ebp
  00033	c2 0c 00	 ret	 12			; 0000000cH
?FindSubGraph@CSubGraphTool@@AAEXPAVCMainBlock@@IABVCPoint@@@Z ENDP ; CSubGraphTool::FindSubGraph
_TEXT	ENDS
; Function compile flags: /Ogtp
; File D:\git\src\IBK\IBK_DRFN\ProjSrc\SrcChartEx\ChartOCX\ChartObject\GraphTool.cpp
;	COMDAT ?GraphMoving_Ended@CSubGraphTool@@MAEX_N@Z
_TEXT	SEGMENT
_bGraphMovingResult$ = 8				; size = 1
?GraphMoving_Ended@CSubGraphTool@@MAEX_N@Z PROC		; CSubGraphTool::GraphMoving_Ended, COMDAT
; _this$ = ecx

; 884  : {

  00000	55		 push	 ebp
  00001	8b ec		 mov	 ebp, esp
  00003	56		 push	 esi

; 885  : 	CBaseTool::SetProcessEnded(bGraphMovingResult);

  00004	ff 75 08	 push	 DWORD PTR _bGraphMovingResult$[ebp]
  00007	8b f1		 mov	 esi, ecx
  00009	e8 00 00 00 00	 call	 ?SetProcessEnded@CBaseTool@@IAEX_N@Z ; CBaseTool::SetProcessEnded

; 886  : 	if(bGraphMovingResult)

  0000e	80 7d 08 00	 cmp	 BYTE PTR _bGraphMovingResult$[ebp], 0
  00012	74 0d		 je	 SHORT $LN2@GraphMovin

; 887  : 		m_selectedSubGraphDeque.RemoveAll();

  00014	8d 4e 24	 lea	 ecx, DWORD PTR [esi+36]
  00017	e8 00 00 00 00	 call	 ?RemoveAll@CSelectedSubGraphDeque@@QAEXXZ ; CSelectedSubGraphDeque::RemoveAll
  0001c	5e		 pop	 esi

; 888  : 	else
; 889  : 		ChangeAllVertScaleGridType();
; 890  : }

  0001d	5d		 pop	 ebp
  0001e	c2 04 00	 ret	 4
$LN2@GraphMovin:

; 925  : 	if(!IsSelectedSubGraph())

  00021	8b 06		 mov	 eax, DWORD PTR [esi]
  00023	8b ce		 mov	 ecx, esi
  00025	8b 40 50	 mov	 eax, DWORD PTR [eax+80]
  00028	ff d0		 call	 eax
  0002a	84 c0		 test	 al, al
  0002c	74 21		 je	 SHORT $LN8@GraphMovin

; 926  : 		return;
; 927  : 
; 928  : 	CGraphTool::ChangeAllVertScaleGridType(m_selectedSubGraphDeque.GetVertScaleGroupTail());

  0002e	8d 4e 24	 lea	 ecx, DWORD PTR [esi+36]
  00031	e8 00 00 00 00	 call	 ?GetVertScaleGroupTail@CSelectedSubGraphDeque@@QBEPAVCVertScaleGroup@@XZ ; CSelectedSubGraphDeque::GetVertScaleGroupTail
  00036	8b f0		 mov	 esi, eax

; 222  : 	if( pVertScaleGroup == NULL) return;

  00038	85 f6		 test	 esi, esi
  0003a	74 13		 je	 SHORT $LN8@GraphMovin

; 223  : 
; 224  : 	CVertScaleGroupList *pVertScaleGroupList = pVertScaleGroup->GetVertScaleGroupList();

  0003c	8b ce		 mov	 ecx, esi
  0003e	e8 00 00 00 00	 call	 ?GetVertScaleGroupList@CVertScaleGroup@@QBEPAVCVertScaleGroupList@@XZ ; CVertScaleGroup::GetVertScaleGroupList

; 225  : 	if( !pVertScaleGroupList) return;

  00043	85 c0		 test	 eax, eax
  00045	74 08		 je	 SHORT $LN8@GraphMovin

; 226  : 	pVertScaleGroupList->SetActivate( pVertScaleGroup);

  00047	56		 push	 esi
  00048	8b c8		 mov	 ecx, eax
  0004a	e8 00 00 00 00	 call	 ?SetActivate@CVertScaleGroupList@@QAEXPAVCVertScaleGroup@@@Z ; CVertScaleGroupList::SetActivate
$LN8@GraphMovin:
  0004f	5e		 pop	 esi

; 888  : 	else
; 889  : 		ChangeAllVertScaleGridType();
; 890  : }

  00050	5d		 pop	 ebp
  00051	c2 04 00	 ret	 4
?GraphMoving_Ended@CSubGraphTool@@MAEX_N@Z ENDP		; CSubGraphTool::GraphMoving_Ended
_TEXT	ENDS
; Function compile flags: /Ogtp
; File D:\git\src\IBK\IBK_DRFN\ProjSrc\SrcChartEx\ChartOCX\ChartObject\GraphTool.cpp
;	COMDAT ?GetGraphMoving@CSubGraphTool@@MAEPAVCGraphImp@@XZ
_TEXT	SEGMENT
$T1 = -8						; size = 8
?GetGraphMoving@CSubGraphTool@@MAEPAVCGraphImp@@XZ PROC	; CSubGraphTool::GetGraphMoving, COMDAT
; _this$ = ecx

; 876  : {

  00000	55		 push	 ebp
  00001	8b ec		 mov	 ebp, esp
  00003	83 ec 08	 sub	 esp, 8
  00006	56		 push	 esi

; 877  : 	if(m_selectedSubGraphDeque.GetCount() <= 0)

  00007	8d 71 24	 lea	 esi, DWORD PTR [ecx+36]
  0000a	8b ce		 mov	 ecx, esi
  0000c	e8 00 00 00 00	 call	 ?GetCount@CSelectedSubGraphDeque@@QBEHXZ ; CSelectedSubGraphDeque::GetCount
  00011	85 c0		 test	 eax, eax
  00013	7f 07		 jg	 SHORT $LN2@GetGraphMo

; 878  : 		return NULL;

  00015	33 c0		 xor	 eax, eax
  00017	5e		 pop	 esi

; 881  : }

  00018	8b e5		 mov	 esp, ebp
  0001a	5d		 pop	 ebp
  0001b	c3		 ret	 0
$LN2@GetGraphMo:

; 879  : 
; 880  : 	return m_selectedSubGraphDeque.GetTail().GetGraph();

  0001c	8d 45 f8	 lea	 eax, DWORD PTR $T1[ebp]
  0001f	8b ce		 mov	 ecx, esi
  00021	50		 push	 eax
  00022	e8 00 00 00 00	 call	 ?GetTail@CSelectedSubGraphDeque@@QBE?AVCSelectedSubGraphData@@XZ ; CSelectedSubGraphDeque::GetTail
  00027	8b c8		 mov	 ecx, eax
  00029	e8 00 00 00 00	 call	 ?GetGraph@CSelectedSubGraphData@@QBEPAVCGraphImp@@XZ ; CSelectedSubGraphData::GetGraph
  0002e	5e		 pop	 esi

; 881  : }

  0002f	8b e5		 mov	 esp, ebp
  00031	5d		 pop	 ebp
  00032	c3		 ret	 0
?GetGraphMoving@CSubGraphTool@@MAEPAVCGraphImp@@XZ ENDP	; CSubGraphTool::GetGraphMoving
_TEXT	ENDS
; Function compile flags: /Ogtp
; File D:\git\src\IBK\IBK_DRFN\ProjSrc\SrcChartEx\ChartOCX\ChartObject\GraphTool.cpp
;	COMDAT ?IsSendMessage_SubGraph@CSubGraphTool@@MBE_NXZ
_TEXT	SEGMENT
$T2 = -16						; size = 4
__$EHRec$ = -12						; size = 12
?IsSendMessage_SubGraph@CSubGraphTool@@MBE_NXZ PROC	; CSubGraphTool::IsSendMessage_SubGraph, COMDAT
; _this$ = ecx

; 871  : {

  00000	55		 push	 ebp
  00001	8b ec		 mov	 ebp, esp
  00003	6a ff		 push	 -1
  00005	68 00 00 00 00	 push	 __ehhandler$?IsSendMessage_SubGraph@CSubGraphTool@@MBE_NXZ
  0000a	64 a1 00 00 00
	00		 mov	 eax, DWORD PTR fs:0
  00010	50		 push	 eax
  00011	51		 push	 ecx
  00012	53		 push	 ebx
  00013	56		 push	 esi
  00014	a1 00 00 00 00	 mov	 eax, DWORD PTR ___security_cookie
  00019	33 c5		 xor	 eax, ebp
  0001b	50		 push	 eax
  0001c	8d 45 f4	 lea	 eax, DWORD PTR __$EHRec$[ebp]
  0001f	64 a3 00 00 00
	00		 mov	 DWORD PTR fs:0, eax
  00025	8b f1		 mov	 esi, ecx

; 872  : 	return m_selectedSubGraphDeque.AreExistenceSubGraph( _MTEXT( C3_PRESPAN));

  00027	a1 54 00 00 00	 mov	 eax, DWORD PTR ?g_iMetaTable@@3VIMetaTable@@A+84
  0002c	8d 4d f0	 lea	 ecx, DWORD PTR $T2[ebp]
  0002f	ff b0 c0 04 00
	00		 push	 DWORD PTR [eax+1216]
  00035	ff 15 00 00 00
	00		 call	 DWORD PTR __imp_??0?$CStringT@DV?$StrTraitMFC_DLL@DV?$ChTraitsCRT@D@ATL@@@@@ATL@@QAE@PBD@Z
  0003b	8d 45 f0	 lea	 eax, DWORD PTR $T2[ebp]
  0003e	c7 45 fc 00 00
	00 00		 mov	 DWORD PTR __$EHRec$[ebp+8], 0
  00045	50		 push	 eax
  00046	8d 4e 24	 lea	 ecx, DWORD PTR [esi+36]
  00049	e8 00 00 00 00	 call	 ?AreExistenceSubGraph@CSelectedSubGraphDeque@@QBE_NABV?$CStringT@DV?$StrTraitMFC_DLL@DV?$ChTraitsCRT@D@ATL@@@@@ATL@@@Z ; CSelectedSubGraphDeque::AreExistenceSubGraph
  0004e	8d 4d f0	 lea	 ecx, DWORD PTR $T2[ebp]
  00051	8a d8		 mov	 bl, al
  00053	ff 15 00 00 00
	00		 call	 DWORD PTR __imp_??1?$CStringT@DV?$StrTraitMFC_DLL@DV?$ChTraitsCRT@D@ATL@@@@@ATL@@QAE@XZ
  00059	8a c3		 mov	 al, bl

; 873  : }

  0005b	8b 4d f4	 mov	 ecx, DWORD PTR __$EHRec$[ebp]
  0005e	64 89 0d 00 00
	00 00		 mov	 DWORD PTR fs:0, ecx
  00065	59		 pop	 ecx
  00066	5e		 pop	 esi
  00067	5b		 pop	 ebx
  00068	8b e5		 mov	 esp, ebp
  0006a	5d		 pop	 ebp
  0006b	c3		 ret	 0
_TEXT	ENDS
;	COMDAT text$x
text$x	SEGMENT
__unwindfunclet$?IsSendMessage_SubGraph@CSubGraphTool@@MBE_NXZ$0:
  00000	8d 4d f0	 lea	 ecx, DWORD PTR $T2[ebp]
  00003	ff 25 00 00 00
	00		 jmp	 DWORD PTR __imp_??1?$CStringT@DV?$StrTraitMFC_DLL@DV?$ChTraitsCRT@D@ATL@@@@@ATL@@QAE@XZ
  00009	cc		 int	 3
  0000a	cc		 int	 3
  0000b	cc		 int	 3
  0000c	cc		 int	 3
  0000d	cc		 int	 3
__ehhandler$?IsSendMessage_SubGraph@CSubGraphTool@@MBE_NXZ:
  0000e	90		 npad	 1
  0000f	90		 npad	 1
  00010	8b 54 24 08	 mov	 edx, DWORD PTR [esp+8]
  00014	8d 42 0c	 lea	 eax, DWORD PTR [edx+12]
  00017	8b 4a f0	 mov	 ecx, DWORD PTR [edx-16]
  0001a	33 c8		 xor	 ecx, eax
  0001c	e8 00 00 00 00	 call	 @__security_check_cookie@4
  00021	b8 00 00 00 00	 mov	 eax, OFFSET __ehfuncinfo$?IsSendMessage_SubGraph@CSubGraphTool@@MBE_NXZ
  00026	e9 00 00 00 00	 jmp	 ___CxxFrameHandler3
text$x	ENDS
?IsSendMessage_SubGraph@CSubGraphTool@@MBE_NXZ ENDP	; CSubGraphTool::IsSendMessage_SubGraph
; Function compile flags: /Ogtp
; File D:\git\src\IBK\IBK_DRFN\ProjSrc\SrcChartEx\ChartOCX\ChartObject\GraphTool.cpp
;	COMDAT ?IsSelectedSubGraph@CSubGraphTool@@MBE_NXZ
_TEXT	SEGMENT
?IsSelectedSubGraph@CSubGraphTool@@MBE_NXZ PROC		; CSubGraphTool::IsSelectedSubGraph, COMDAT
; _this$ = ecx

; 866  : 	return (m_selectedSubGraphDeque.GetCount() > 0);

  00000	83 c1 24	 add	 ecx, 36			; 00000024H
  00003	e8 00 00 00 00	 call	 ?GetCount@CSelectedSubGraphDeque@@QBEHXZ ; CSelectedSubGraphDeque::GetCount
  00008	85 c0		 test	 eax, eax
  0000a	0f 9f c0	 setg	 al

; 867  : }

  0000d	c3		 ret	 0
?IsSelectedSubGraph@CSubGraphTool@@MBE_NXZ ENDP		; CSubGraphTool::IsSelectedSubGraph
_TEXT	ENDS
; Function compile flags: /Ogtp
; File D:\git\src\IBK\IBK_DRFN\ProjSrc\SrcChartEx\ChartOCX\ChartObject\GraphTool.cpp
;	COMDAT ?GetMenuCheck_SubGraph@CSubGraphTool@@MAE_NPAVCMainBlock@@W4ELEMENTMENU@CMenuType@@I@Z
_TEXT	SEGMENT
_pMainBlock$ = 8					; size = 4
_menuType$ = 12						; size = 4
_wParam$ = 16						; size = 4
?GetMenuCheck_SubGraph@CSubGraphTool@@MAE_NPAVCMainBlock@@W4ELEMENTMENU@CMenuType@@I@Z PROC ; CSubGraphTool::GetMenuCheck_SubGraph, COMDAT
; _this$ = ecx

; 848  : {

  00000	55		 push	 ebp
  00001	8b ec		 mov	 ebp, esp

; 849  : 	switch(menuType){

  00003	8b 45 0c	 mov	 eax, DWORD PTR _menuType$[ebp]
  00006	56		 push	 esi
  00007	57		 push	 edi
  00008	8b f9		 mov	 edi, ecx
  0000a	83 e8 08	 sub	 eax, 8
  0000d	74 2b		 je	 SHORT $LN4@GetMenuChe
  0000f	83 e8 02	 sub	 eax, 2
  00012	74 08		 je	 SHORT $LN5@GetMenuChe

; 855  : 
; 856  : 	default:
; 857  : 		return false;

  00014	5f		 pop	 edi
  00015	32 c0		 xor	 al, al

; 858  : 	}
; 859  : 
; 860  : 	return false;
; 861  : }

  00017	5e		 pop	 esi
  00018	5d		 pop	 ebp
  00019	c2 0c 00	 ret	 12			; 0000000cH
$LN5@GetMenuChe:

; 852  : 	
; 853  : 	case CMenuType::MENU_TIME_DIFF:		// 20081007 JS.Kim	 
; 854  : 		return GetMenuCheck_SubGraphSelectTimeDiff(pMainBlock, m_selectedSubGraphDeque.GetSubGraphTail(), (CTimeDiffInfo *)wParam);

  0001c	ff 75 10	 push	 DWORD PTR _wParam$[ebp]
  0001f	8b 37		 mov	 esi, DWORD PTR [edi]
  00021	8d 4f 24	 lea	 ecx, DWORD PTR [edi+36]
  00024	e8 00 00 00 00	 call	 ?GetSubGraphTail@CSelectedSubGraphDeque@@QBEPAVCSubGraph@@XZ ; CSelectedSubGraphDeque::GetSubGraphTail
  00029	50		 push	 eax
  0002a	ff 75 08	 push	 DWORD PTR _pMainBlock$[ebp]
  0002d	8b 46 40	 mov	 eax, DWORD PTR [esi+64]
  00030	8b cf		 mov	 ecx, edi
  00032	ff d0		 call	 eax
  00034	5f		 pop	 edi

; 858  : 	}
; 859  : 
; 860  : 	return false;
; 861  : }

  00035	5e		 pop	 esi
  00036	5d		 pop	 ebp
  00037	c2 0c 00	 ret	 12			; 0000000cH
$LN4@GetMenuChe:

; 850  : 	case CMenuType::MENU_INVERTSCALE:	//   - ojtaso (20071023)
; 851  : 		return GetMenuCheck_SubGraphInvert(pMainBlock, m_selectedSubGraphDeque.GetSubGraphTail());

  0003a	8b 37		 mov	 esi, DWORD PTR [edi]
  0003c	8d 4f 24	 lea	 ecx, DWORD PTR [edi+36]
  0003f	e8 00 00 00 00	 call	 ?GetSubGraphTail@CSelectedSubGraphDeque@@QBEPAVCSubGraph@@XZ ; CSelectedSubGraphDeque::GetSubGraphTail
  00044	50		 push	 eax
  00045	ff 75 08	 push	 DWORD PTR _pMainBlock$[ebp]
  00048	8b 46 38	 mov	 eax, DWORD PTR [esi+56]
  0004b	8b cf		 mov	 ecx, edi
  0004d	ff d0		 call	 eax
  0004f	5f		 pop	 edi

; 858  : 	}
; 859  : 
; 860  : 	return false;
; 861  : }

  00050	5e		 pop	 esi
  00051	5d		 pop	 ebp
  00052	c2 0c 00	 ret	 12			; 0000000cH
?GetMenuCheck_SubGraph@CSubGraphTool@@MAE_NPAVCMainBlock@@W4ELEMENTMENU@CMenuType@@I@Z ENDP ; CSubGraphTool::GetMenuCheck_SubGraph
_TEXT	ENDS
; Function compile flags: /Ogtp
; File D:\git\src\IBK\IBK_DRFN\ProjSrc\SrcChartEx\ChartOCX\ChartObject\GraphTool.cpp
;	COMDAT ?OnMenu_SubGraph@CSubGraphTool@@MAE_NPAVCMainBlock@@W4ELEMENTMENU@CMenuType@@I@Z
_TEXT	SEGMENT
$T1 = -8						; size = 8
_pMainBlock$ = 8					; size = 4
_menuType$ = 12						; size = 4
_wParam$ = 16						; size = 4
?OnMenu_SubGraph@CSubGraphTool@@MAE_NPAVCMainBlock@@W4ELEMENTMENU@CMenuType@@I@Z PROC ; CSubGraphTool::OnMenu_SubGraph, COMDAT
; _this$ = ecx

; 826  : {

  00000	55		 push	 ebp
  00001	8b ec		 mov	 ebp, esp
  00003	83 ec 08	 sub	 esp, 8
  00006	53		 push	 ebx
  00007	8b d9		 mov	 ebx, ecx
  00009	57		 push	 edi

; 827  : 	if(m_selectedSubGraphDeque.GetCount() <= 0)

  0000a	8d 7b 24	 lea	 edi, DWORD PTR [ebx+36]
  0000d	8b cf		 mov	 ecx, edi
  0000f	e8 00 00 00 00	 call	 ?GetCount@CSelectedSubGraphDeque@@QBEHXZ ; CSelectedSubGraphDeque::GetCount
  00014	85 c0		 test	 eax, eax
  00016	7f 0a		 jg	 SHORT $LN4@OnMenu_Sub

; 828  : 		return false;

  00018	5f		 pop	 edi
  00019	32 c0		 xor	 al, al

; 839  : 	default:
; 840  : 		return OnMenu_Etc(menuType, wParam);
; 841  : 	}
; 842  : 
; 843  : 	return false;
; 844  : }

  0001b	5b		 pop	 ebx
  0001c	8b e5		 mov	 esp, ebp
  0001e	5d		 pop	 ebp
  0001f	c2 0c 00	 ret	 12			; 0000000cH
$LN4@OnMenu_Sub:

; 829  : 
; 830  : 	switch(menuType){

  00022	8b 4d 0c	 mov	 ecx, DWORD PTR _menuType$[ebp]
  00025	56		 push	 esi
  00026	8d 41 ff	 lea	 eax, DWORD PTR [ecx-1]
  00029	83 f8 09	 cmp	 eax, 9
  0002c	0f 87 96 00 00
	00		 ja	 $LN9@OnMenu_Sub
  00032	0f b6 80 00 00
	00 00		 movzx	 eax, BYTE PTR $LN15@OnMenu_Sub[eax]
  00039	ff 24 85 00 00
	00 00		 jmp	 DWORD PTR $LN16@OnMenu_Sub[eax*4]
$LN5@OnMenu_Sub:

; 965  : 	CBaseTool::SetProcessEnded(true);

  00040	6a 01		 push	 1
  00042	8b cb		 mov	 ecx, ebx
  00044	e8 00 00 00 00	 call	 ?SetProcessEnded@CBaseTool@@IAEX_N@Z ; CBaseTool::SetProcessEnded

; 966  : 
; 967  : 	bool bResult = CGraphTool::LoadIndicatorConfiguration(pMainBlock, m_selectedSubGraphDeque.GetSubGraphTail());

  00049	8b cf		 mov	 ecx, edi
  0004b	e8 00 00 00 00	 call	 ?GetSubGraphTail@CSelectedSubGraphDeque@@QBEPAVCSubGraph@@XZ ; CSelectedSubGraphDeque::GetSubGraphTail
  00050	50		 push	 eax
  00051	ff 75 08	 push	 DWORD PTR _pMainBlock$[ebp]
  00054	8b cb		 mov	 ecx, ebx
  00056	e8 00 00 00 00	 call	 ?LoadIndicatorConfiguration@CGraphTool@@IAE_NPAVCMainBlock@@PAVCSubGraph@@@Z ; CGraphTool::LoadIndicatorConfiguration

; 968  : 	m_selectedSubGraphDeque.RemoveAll();

  0005b	8b cf		 mov	 ecx, edi
  0005d	8a d8		 mov	 bl, al
  0005f	e8 00 00 00 00	 call	 ?RemoveAll@CSelectedSubGraphDeque@@QAEXXZ ; CSelectedSubGraphDeque::RemoveAll
  00064	5e		 pop	 esi
  00065	5f		 pop	 edi

; 831  : 	case CMenuType::MENU_SET:		//  Dlg
; 832  : 		return OnMenu_SubGraphSet(pMainBlock);

  00066	8a c3		 mov	 al, bl

; 839  : 	default:
; 840  : 		return OnMenu_Etc(menuType, wParam);
; 841  : 	}
; 842  : 
; 843  : 	return false;
; 844  : }

  00068	5b		 pop	 ebx
  00069	8b e5		 mov	 esp, ebp
  0006b	5d		 pop	 ebp
  0006c	c2 0c 00	 ret	 12			; 0000000cH
$LN6@OnMenu_Sub:

; 833  : 	case CMenuType::MENU_INVERTSCALE:	//   - ojtaso (20071023)
; 834  : 		return OnMenu_SubGraphInvert(pMainBlock, m_selectedSubGraphDeque.GetSubGraphTail());

  0006f	8b 33		 mov	 esi, DWORD PTR [ebx]
  00071	8b cf		 mov	 ecx, edi
  00073	e8 00 00 00 00	 call	 ?GetSubGraphTail@CSelectedSubGraphDeque@@QBEPAVCSubGraph@@XZ ; CSelectedSubGraphDeque::GetSubGraphTail
  00078	50		 push	 eax
  00079	ff 75 08	 push	 DWORD PTR _pMainBlock$[ebp]
  0007c	8b 46 30	 mov	 eax, DWORD PTR [esi+48]
  0007f	8b cb		 mov	 ecx, ebx
  00081	ff d0		 call	 eax
  00083	5e		 pop	 esi
  00084	5f		 pop	 edi

; 839  : 	default:
; 840  : 		return OnMenu_Etc(menuType, wParam);
; 841  : 	}
; 842  : 
; 843  : 	return false;
; 844  : }

  00085	5b		 pop	 ebx
  00086	8b e5		 mov	 esp, ebp
  00088	5d		 pop	 ebp
  00089	c2 0c 00	 ret	 12			; 0000000cH
$LN7@OnMenu_Sub:

; 835  : 	case CMenuType::MENU_DATAINDEX: // data index 
; 836  : 		return CGraphTool::OnMenu_DataIndex(m_selectedSubGraphDeque.GetTail());

  0008c	8d 45 f8	 lea	 eax, DWORD PTR $T1[ebp]
  0008f	8b cf		 mov	 ecx, edi
  00091	50		 push	 eax
  00092	e8 00 00 00 00	 call	 ?GetTail@CSelectedSubGraphDeque@@QBE?AVCSelectedSubGraphData@@XZ ; CSelectedSubGraphDeque::GetTail
  00097	50		 push	 eax
  00098	8b cb		 mov	 ecx, ebx
  0009a	e8 00 00 00 00	 call	 ?OnMenu_DataIndex@CGraphTool@@IAE_NABVCSelectedSubGraphData@@@Z ; CGraphTool::OnMenu_DataIndex
  0009f	5e		 pop	 esi
  000a0	5f		 pop	 edi

; 839  : 	default:
; 840  : 		return OnMenu_Etc(menuType, wParam);
; 841  : 	}
; 842  : 
; 843  : 	return false;
; 844  : }

  000a1	5b		 pop	 ebx
  000a2	8b e5		 mov	 esp, ebp
  000a4	5d		 pop	 ebp
  000a5	c2 0c 00	 ret	 12			; 0000000cH
$LN8@OnMenu_Sub:

; 837  : 	case CMenuType::MENU_TIME_DIFF:		// 20081007 JS.Kim	 
; 838  : 		return OnMenu_SubGraphSelectTimeDiff(pMainBlock, m_selectedSubGraphDeque.GetSubGraphTail(), (CTimeDiffInfo *)wParam);

  000a8	ff 75 10	 push	 DWORD PTR _wParam$[ebp]
  000ab	8b 33		 mov	 esi, DWORD PTR [ebx]
  000ad	8b cf		 mov	 ecx, edi
  000af	e8 00 00 00 00	 call	 ?GetSubGraphTail@CSelectedSubGraphDeque@@QBEPAVCSubGraph@@XZ ; CSelectedSubGraphDeque::GetSubGraphTail
  000b4	50		 push	 eax
  000b5	ff 75 08	 push	 DWORD PTR _pMainBlock$[ebp]
  000b8	8b 46 3c	 mov	 eax, DWORD PTR [esi+60]
  000bb	8b cb		 mov	 ecx, ebx
  000bd	ff d0		 call	 eax
  000bf	5e		 pop	 esi
  000c0	5f		 pop	 edi

; 839  : 	default:
; 840  : 		return OnMenu_Etc(menuType, wParam);
; 841  : 	}
; 842  : 
; 843  : 	return false;
; 844  : }

  000c1	5b		 pop	 ebx
  000c2	8b e5		 mov	 esp, ebp
  000c4	5d		 pop	 ebp
  000c5	c2 0c 00	 ret	 12			; 0000000cH
$LN9@OnMenu_Sub:

; 975  : 	return m_selectedSubGraphDeque.OnMenu(menuType, wParam);

  000c8	ff 75 10	 push	 DWORD PTR _wParam$[ebp]
  000cb	51		 push	 ecx
  000cc	8b cf		 mov	 ecx, edi
  000ce	e8 00 00 00 00	 call	 ?OnMenu@CSelectedSubGraphDeque@@QAE_NW4ELEMENTMENU@CMenuType@@I@Z ; CSelectedSubGraphDeque::OnMenu
  000d3	5e		 pop	 esi
  000d4	5f		 pop	 edi

; 839  : 	default:
; 840  : 		return OnMenu_Etc(menuType, wParam);
; 841  : 	}
; 842  : 
; 843  : 	return false;
; 844  : }

  000d5	5b		 pop	 ebx
  000d6	8b e5		 mov	 esp, ebp
  000d8	5d		 pop	 ebp
  000d9	c2 0c 00	 ret	 12			; 0000000cH
$LN16@OnMenu_Sub:
  000dc	00 00 00 00	 DD	 $LN5@OnMenu_Sub
  000e0	00 00 00 00	 DD	 $LN7@OnMenu_Sub
  000e4	00 00 00 00	 DD	 $LN6@OnMenu_Sub
  000e8	00 00 00 00	 DD	 $LN8@OnMenu_Sub
  000ec	00 00 00 00	 DD	 $LN9@OnMenu_Sub
$LN15@OnMenu_Sub:
  000f0	00		 DB	 0
  000f1	04		 DB	 4
  000f2	04		 DB	 4
  000f3	04		 DB	 4
  000f4	04		 DB	 4
  000f5	01		 DB	 1
  000f6	04		 DB	 4
  000f7	02		 DB	 2
  000f8	04		 DB	 4
  000f9	03		 DB	 3
?OnMenu_SubGraph@CSubGraphTool@@MAE_NPAVCMainBlock@@W4ELEMENTMENU@CMenuType@@I@Z ENDP ; CSubGraphTool::OnMenu_SubGraph
_TEXT	ENDS
; Function compile flags: /Ogtp
; File D:\git\src\IBK\IBK_DRFN\ProjSrc\SrcChartEx\ChartOCX\ChartObject\GraphTool.cpp
;	COMDAT ?OnMouseMove@CSubGraphTool@@MAEXPAVCDC@@PAVCMainBlock@@@Z
_TEXT	SEGMENT
_pDC$ = 8						; size = 4
_pMainBlock$ = 12					; size = 4
?OnMouseMove@CSubGraphTool@@MAEXPAVCDC@@PAVCMainBlock@@@Z PROC ; CSubGraphTool::OnMouseMove, COMDAT
; _this$ = ecx

; 823  : }

  00000	c2 08 00	 ret	 8
?OnMouseMove@CSubGraphTool@@MAEXPAVCDC@@PAVCMainBlock@@@Z ENDP ; CSubGraphTool::OnMouseMove
_TEXT	ENDS
; Function compile flags: /Ogtp
; File D:\git\src\IBK\IBK_DRFN\ProjSrc\SrcChartEx\ChartOCX\ChartObject\GraphTool.cpp
;	COMDAT ?OnLButtonUp@CSubGraphTool@@MAE_NXZ
_TEXT	SEGMENT
$T1 = -8						; size = 4
_pSubGraph$1$ = -4					; size = 4
?OnLButtonUp@CSubGraphTool@@MAE_NXZ PROC		; CSubGraphTool::OnLButtonUp, COMDAT
; _this$ = ecx

; 812  : {

  00000	55		 push	 ebp
  00001	8b ec		 mov	 ebp, esp
  00003	83 ec 08	 sub	 esp, 8
  00006	53		 push	 ebx
  00007	8b d9		 mov	 ebx, ecx

; 813  : 	CGraphTool::SendMessage_GraphType(m_selectedSubGraphDeque.GetSubGraphTail());

  00009	8d 4b 24	 lea	 ecx, DWORD PTR [ebx+36]
  0000c	e8 00 00 00 00	 call	 ?GetSubGraphTail@CSelectedSubGraphDeque@@QBEPAVCSubGraph@@XZ ; CSelectedSubGraphDeque::GetSubGraphTail
  00011	89 45 fc	 mov	 DWORD PTR _pSubGraph$1$[ebp], eax

; 233  : 	if(pSubGraph == NULL || CBaseTool::GetIChartCtrl() == NULL)

  00014	85 c0		 test	 eax, eax
  00016	74 75		 je	 SHORT $LN6@OnLButtonU
  00018	8b cb		 mov	 ecx, ebx
  0001a	e8 00 00 00 00	 call	 ?GetIChartCtrl@CBaseTool@@QBEPAUIChartCtrl@@XZ ; CBaseTool::GetIChartCtrl
  0001f	85 c0		 test	 eax, eax
  00021	74 6a		 je	 SHORT $LN6@OnLButtonU

; 234  : 		return;
; 235  : 
; 236  : 	//CBaseTool::GetParent()->SendMessage(UM_GRAPH_THICKNESS, pSubGraph->GetSubGraphData().GetPenThickness().GetDrawingThickness1());
; 237  : 	//CBaseTool::GetParent()->SendMessage(UM_GRAPH_TYPE_STYLE, (int)pSubGraph->GetSubGraphData().GetType(), pSubGraph->GetSubGraphData().GetDrawStyle().GetDrawStyle());
; 238  : 	CBaseTool::GetIChartCtrl()->SetGraphThickness(pSubGraph->GetSubGraphData().GetPenThickness().GetDrawingThickness1());

  00023	56		 push	 esi
  00024	57		 push	 edi
  00025	8b cb		 mov	 ecx, ebx
  00027	e8 00 00 00 00	 call	 ?GetIChartCtrl@CBaseTool@@QBEPAUIChartCtrl@@XZ ; CBaseTool::GetIChartCtrl
  0002c	8b 4d fc	 mov	 ecx, DWORD PTR _pSubGraph$1$[ebp]
  0002f	8b f0		 mov	 esi, eax
  00031	8b 3e		 mov	 edi, DWORD PTR [esi]
  00033	e8 00 00 00 00	 call	 ?GetSubGraphData@CSubGraph@@QAEAAVCSubGraphData@@XZ ; CSubGraph::GetSubGraphData
  00038	8b c8		 mov	 ecx, eax
  0003a	ff 15 00 00 00
	00		 call	 DWORD PTR __imp_?GetPenThickness@CSubGraphDataBase@@QAEAAVCPenThickness@@XZ
  00040	8b c8		 mov	 ecx, eax
  00042	ff 15 00 00 00
	00		 call	 DWORD PTR __imp_?GetDrawingThickness1@CPenThickness@@QBEHXZ
  00048	50		 push	 eax
  00049	8b ce		 mov	 ecx, esi
  0004b	ff 97 8c 07 00
	00		 call	 DWORD PTR [edi+1932]

; 239  : 	CBaseTool::GetIChartCtrl()->SetGraphTypeStyle(pSubGraph->GetSubGraphData().GetType(), pSubGraph->GetSubGraphData().GetDrawStyle().GetDrawStyle());

  00051	8b cb		 mov	 ecx, ebx
  00053	e8 00 00 00 00	 call	 ?GetIChartCtrl@CBaseTool@@QBEPAUIChartCtrl@@XZ ; CBaseTool::GetIChartCtrl
  00058	8b 4d fc	 mov	 ecx, DWORD PTR _pSubGraph$1$[ebp]
  0005b	8b f0		 mov	 esi, eax
  0005d	8d 45 f8	 lea	 eax, DWORD PTR $T1[ebp]
  00060	50		 push	 eax
  00061	8b 3e		 mov	 edi, DWORD PTR [esi]
  00063	e8 00 00 00 00	 call	 ?GetSubGraphData@CSubGraph@@QAEAAVCSubGraphData@@XZ ; CSubGraph::GetSubGraphData
  00068	8b c8		 mov	 ecx, eax
  0006a	ff 15 00 00 00
	00		 call	 DWORD PTR __imp_?GetDrawStyle@CSubGraphDataBase@@QBE?AVCGraphDrawStyle@@XZ
  00070	8b 4d fc	 mov	 ecx, DWORD PTR _pSubGraph$1$[ebp]
  00073	ff 30		 push	 DWORD PTR [eax]
  00075	e8 00 00 00 00	 call	 ?GetSubGraphData@CSubGraph@@QAEAAVCSubGraphData@@XZ ; CSubGraph::GetSubGraphData
  0007a	8b c8		 mov	 ecx, eax
  0007c	ff 15 00 00 00
	00		 call	 DWORD PTR __imp_?GetType@CSubGraphDataBase@@QBE?AW4GRAPHTYPE@CGraphBaseData@@XZ
  00082	50		 push	 eax
  00083	8b ce		 mov	 ecx, esi
  00085	ff 97 90 07 00
	00		 call	 DWORD PTR [edi+1936]
  0008b	5f		 pop	 edi
  0008c	5e		 pop	 esi
$LN6@OnLButtonU:

; 814  : 	if(IsSelectedSubGraph())

  0008d	8b 03		 mov	 eax, DWORD PTR [ebx]
  0008f	8b cb		 mov	 ecx, ebx
  00091	8b 40 50	 mov	 eax, DWORD PTR [eax+80]
  00094	ff d0		 call	 eax
  00096	84 c0		 test	 al, al
  00098	74 07		 je	 SHORT $LN2@OnLButtonU

; 815  : 		return true;

  0009a	b0 01		 mov	 al, 1
  0009c	5b		 pop	 ebx

; 819  : }

  0009d	8b e5		 mov	 esp, ebp
  0009f	5d		 pop	 ebp
  000a0	c3		 ret	 0
$LN2@OnLButtonU:

; 816  : 
; 817  : 	CBaseTool::SetProcessEnded(true);

  000a1	6a 01		 push	 1
  000a3	8b cb		 mov	 ecx, ebx
  000a5	e8 00 00 00 00	 call	 ?SetProcessEnded@CBaseTool@@IAEX_N@Z ; CBaseTool::SetProcessEnded

; 818  : 	return false;

  000aa	32 c0		 xor	 al, al
  000ac	5b		 pop	 ebx

; 819  : }

  000ad	8b e5		 mov	 esp, ebp
  000af	5d		 pop	 ebp
  000b0	c3		 ret	 0
?OnLButtonUp@CSubGraphTool@@MAE_NXZ ENDP		; CSubGraphTool::OnLButtonUp
_TEXT	ENDS
; Function compile flags: /Ogtp
; File D:\git\src\IBK\IBK_DRFN\ProjSrc\SrcChartEx\ChartOCX\ChartObject\GraphTool.cpp
;	COMDAT ?OnLButtonDown_Real@CSubGraphTool@@MAEXPAVCDC@@PAVCMainBlock@@IABVCPoint@@@Z
_TEXT	SEGMENT
___formal$ = 8						; size = 4
_pMainBlock$ = 12					; size = 4
_nFlags$ = 16						; size = 4
_point$ = 20						; size = 4
?OnLButtonDown_Real@CSubGraphTool@@MAEXPAVCDC@@PAVCMainBlock@@IABVCPoint@@@Z PROC ; CSubGraphTool::OnLButtonDown_Real, COMDAT
; _this$ = ecx

; 807  : {

  00000	55		 push	 ebp
  00001	8b ec		 mov	 ebp, esp

; 898  : 	if((nFlags & MK_SHIFT) == 0)

  00003	f6 45 10 04	 test	 BYTE PTR _nFlags$[ebp], 4

; 807  : {

  00007	56		 push	 esi
  00008	8b f1		 mov	 esi, ecx
  0000a	57		 push	 edi

; 898  : 	if((nFlags & MK_SHIFT) == 0)

  0000b	8d 7e 24	 lea	 edi, DWORD PTR [esi+36]
  0000e	75 07		 jne	 SHORT $LN9@OnLButtonD

; 899  : 		m_selectedSubGraphDeque.RemoveAll();

  00010	8b cf		 mov	 ecx, edi
  00012	e8 00 00 00 00	 call	 ?RemoveAll@CSelectedSubGraphDeque@@QAEXXZ ; CSelectedSubGraphDeque::RemoveAll
$LN9@OnLButtonD:

; 906  : 	InitializeAllData();

  00017	8b 06		 mov	 eax, DWORD PTR [esi]
  00019	8b ce		 mov	 ecx, esi
  0001b	ff 10		 call	 DWORD PTR [eax]

; 907  : 	if(pMainBlock == NULL)

  0001d	8b 4d 0c	 mov	 ecx, DWORD PTR _pMainBlock$[ebp]
  00020	85 c9		 test	 ecx, ecx
  00022	74 0c		 je	 SHORT $LN6@OnLButtonD

; 908  : 		return false;
; 909  : 
; 910  : 	return pMainBlock->FindSubGraph(point, selectedSubGraphDeque);

  00024	8b 01		 mov	 eax, DWORD PTR [ecx]
  00026	57		 push	 edi
  00027	ff 75 14	 push	 DWORD PTR _point$[ebp]
  0002a	ff 90 a0 02 00
	00		 call	 DWORD PTR [eax+672]
$LN6@OnLButtonD:
  00030	5f		 pop	 edi

; 808  : 	FindSubGraph(pMainBlock, nFlags, point);
; 809  : }

  00031	5e		 pop	 esi
  00032	5d		 pop	 ebp
  00033	c2 10 00	 ret	 16			; 00000010H
?OnLButtonDown_Real@CSubGraphTool@@MAEXPAVCDC@@PAVCMainBlock@@IABVCPoint@@@Z ENDP ; CSubGraphTool::OnLButtonDown_Real
_TEXT	ENDS
; Function compile flags: /Ogtp
; File D:\git\src\IBK\IBK_DRFN\ProjSrc\SrcChartEx\ChartOCX\ChartObject\GraphTool.cpp
; File C:\Program Files (x86)\Microsoft Visual Studio\2019\Community\VC\Tools\MSVC\14.29.30133\include\xmemory
; File C:\Program Files (x86)\Microsoft Visual Studio\2019\Community\VC\Tools\MSVC\14.29.30133\include\deque
; File C:\Program Files (x86)\Microsoft Visual Studio\2019\Community\VC\Tools\MSVC\14.29.30133\include\xmemory
; File D:\git\src\IBK\IBK_DRFN\ProjSrc\SrcChartEx\ChartOCX\ChartObject\GraphTool.cpp
; File C:\Program Files (x86)\Microsoft Visual Studio\2019\Community\VC\Tools\MSVC\14.29.30133\include\deque
; File C:\Program Files (x86)\Microsoft Visual Studio\2019\Community\VC\Tools\MSVC\14.29.30133\include\xmemory
; File C:\Program Files (x86)\Microsoft Visual Studio\2019\Community\VC\Tools\MSVC\14.29.30133\include\deque
; File C:\Program Files (x86)\Microsoft Visual Studio\2019\Community\VC\Tools\MSVC\14.29.30133\include\xmemory
; File C:\Program Files (x86)\Microsoft Visual Studio\2019\Community\VC\Tools\MSVC\14.29.30133\include\deque
; File C:\Program Files (x86)\Microsoft Visual Studio\2019\Community\VC\Tools\MSVC\14.29.30133\include\utility
; File C:\Program Files (x86)\Microsoft Visual Studio\2019\Community\VC\Tools\MSVC\14.29.30133\include\xmemory
; File C:\Program Files (x86)\Microsoft Visual Studio\2019\Community\VC\Tools\MSVC\14.29.30133\include\deque
; File C:\Program Files (x86)\Microsoft Visual Studio\2019\Community\VC\Tools\MSVC\14.29.30133\include\utility
; File C:\Program Files (x86)\Microsoft Visual Studio\2019\Community\VC\Tools\MSVC\14.29.30133\include\xmemory
; File D:\git\src\IBK\IBK_DRFN\ProjSrc\SrcChartEx\ChartOCX\ChartObject\GraphTool.cpp
;	COMDAT ?Find@CSubGraphTool@@QAE_NPAVCDC@@PAVCMainBlock@@ABVCPoint@@@Z
_TEXT	SEGMENT
_selectedSubGraphDeque$ = -36				; size = 20
__$EHRec$ = -12						; size = 12
___formal$ = 8						; size = 4
_pMainBlock$ = 12					; size = 4
_point$ = 16						; size = 4
?Find@CSubGraphTool@@QAE_NPAVCDC@@PAVCMainBlock@@ABVCPoint@@@Z PROC ; CSubGraphTool::Find, COMDAT
; _this$ = ecx

; 797  : {

  00000	55		 push	 ebp
  00001	8b ec		 mov	 ebp, esp
  00003	6a ff		 push	 -1
  00005	68 00 00 00 00	 push	 __ehhandler$?Find@CSubGraphTool@@QAE_NPAVCDC@@PAVCMainBlock@@ABVCPoint@@@Z
  0000a	64 a1 00 00 00
	00		 mov	 eax, DWORD PTR fs:0
  00010	50		 push	 eax
  00011	83 ec 18	 sub	 esp, 24			; 00000018H
  00014	53		 push	 ebx
  00015	56		 push	 esi
  00016	a1 00 00 00 00	 mov	 eax, DWORD PTR ___security_cookie
  0001b	33 c5		 xor	 eax, ebp
  0001d	50		 push	 eax
  0001e	8d 45 f4	 lea	 eax, DWORD PTR __$EHRec$[ebp]
  00021	64 a3 00 00 00
	00		 mov	 DWORD PTR fs:0, eax
  00027	8b f1		 mov	 esi, ecx
; File C:\Program Files (x86)\Microsoft Visual Studio\2019\Community\VC\Tools\MSVC\14.29.30133\include\xmemory

; 79   :         return ::operator new(_Bytes);

  00029	6a 08		 push	 8

; 1033 :     _Container_proxy* _Myproxy = nullptr;

  0002b	c7 45 dc 00 00
	00 00		 mov	 DWORD PTR _selectedSubGraphDeque$[ebp], 0
; File C:\Program Files (x86)\Microsoft Visual Studio\2019\Community\VC\Tools\MSVC\14.29.30133\include\deque

; 555  :     _Deque_val() noexcept : _Map(), _Mapsize(0), _Myoff(0), _Mysize(0) {}

  00032	c7 45 e0 00 00
	00 00		 mov	 DWORD PTR _selectedSubGraphDeque$[ebp+4], 0
  00039	c7 45 e4 00 00
	00 00		 mov	 DWORD PTR _selectedSubGraphDeque$[ebp+8], 0
  00040	c7 45 e8 00 00
	00 00		 mov	 DWORD PTR _selectedSubGraphDeque$[ebp+12], 0
  00047	c7 45 ec 00 00
	00 00		 mov	 DWORD PTR _selectedSubGraphDeque$[ebp+16], 0
; File C:\Program Files (x86)\Microsoft Visual Studio\2019\Community\VC\Tools\MSVC\14.29.30133\include\xmemory

; 79   :         return ::operator new(_Bytes);

  0004e	e8 00 00 00 00	 call	 ??2@YAPAXI@Z		; operator new

; 1021 :         _New_proxy->_Mycont = this;

  00053	8d 4d dc	 lea	 ecx, DWORD PTR _selectedSubGraphDeque$[ebp]

; 79   :         return ::operator new(_Bytes);

  00056	83 c4 04	 add	 esp, 4

; 1003 :     mutable _Iterator_base12* _Myfirstiter = nullptr;

  00059	c7 40 04 00 00
	00 00		 mov	 DWORD PTR [eax+4], 0

; 1020 :         _Myproxy            = _New_proxy;

  00060	89 45 dc	 mov	 DWORD PTR _selectedSubGraphDeque$[ebp], eax

; 1021 :         _New_proxy->_Mycont = this;

  00063	89 08		 mov	 DWORD PTR [eax], ecx
; File D:\git\src\IBK\IBK_DRFN\ProjSrc\SrcChartEx\ChartOCX\ChartObject\GraphTool.cpp

; 906  : 	InitializeAllData();

  00065	8b 06		 mov	 eax, DWORD PTR [esi]
  00067	8b ce		 mov	 ecx, esi

; 798  : 	CSelectedSubGraphDeque selectedSubGraphDeque;

  00069	c7 45 fc 00 00
	00 00		 mov	 DWORD PTR __$EHRec$[ebp+8], 0

; 906  : 	InitializeAllData();

  00070	ff 10		 call	 DWORD PTR [eax]

; 907  : 	if(pMainBlock == NULL)

  00072	8b 4d 0c	 mov	 ecx, DWORD PTR _pMainBlock$[ebp]
  00075	85 c9		 test	 ecx, ecx
  00077	75 04		 jne	 SHORT $LN56@Find

; 908  : 		return false;

  00079	32 db		 xor	 bl, bl
  0007b	eb 13		 jmp	 SHORT $LN55@Find
$LN56@Find:

; 909  : 
; 910  : 	return pMainBlock->FindSubGraph(point, selectedSubGraphDeque);

  0007d	8b 01		 mov	 eax, DWORD PTR [ecx]
  0007f	8d 55 dc	 lea	 edx, DWORD PTR _selectedSubGraphDeque$[ebp]
  00082	52		 push	 edx
  00083	ff 75 10	 push	 DWORD PTR _point$[ebp]
  00086	8b 80 a0 02 00
	00		 mov	 eax, DWORD PTR [eax+672]
  0008c	ff d0		 call	 eax
  0008e	8a d8		 mov	 bl, al
$LN55@Find:
; File C:\Program Files (x86)\Microsoft Visual Studio\2019\Community\VC\Tools\MSVC\14.29.30133\include\deque

; 1002 :         return _Mysize() == 0;

  00090	8b 4d ec	 mov	 ecx, DWORD PTR _selectedSubGraphDeque$[ebp+16]
  00093	85 c9		 test	 ecx, ecx

; 1475 :         while (!empty()) {

  00095	74 0f		 je	 SHORT $LN217@Find
$LL67@Find:

; 1146 :         if (--_Mysize() == 0) {

  00097	83 c1 ff	 add	 ecx, -1
  0009a	89 4d ec	 mov	 DWORD PTR _selectedSubGraphDeque$[ebp+16], ecx
  0009d	75 f8		 jne	 SHORT $LL67@Find

; 1147 :             _Myoff() = 0;

  0009f	c7 45 e8 00 00
	00 00		 mov	 DWORD PTR _selectedSubGraphDeque$[ebp+12], 0
$LN217@Find:

; 1479 :         for (size_type _Block = _Mapsize(); 0 < _Block;) { // free storage for a block and destroy pointer

  000a6	8b 75 e4	 mov	 esi, DWORD PTR _selectedSubGraphDeque$[ebp+8]
  000a9	8b 55 e0	 mov	 edx, DWORD PTR _selectedSubGraphDeque$[ebp+4]
  000ac	85 f6		 test	 esi, esi
  000ae	74 21		 je	 SHORT $LN70@Find
$LL69@Find:

; 1480 :             if (_Map()[--_Block]) { // free block and destroy its pointer

  000b0	8b 44 b2 fc	 mov	 eax, DWORD PTR [edx+esi*4-4]
  000b4	4e		 dec	 esi
  000b5	85 c0		 test	 eax, eax
  000b7	74 0e		 je	 SHORT $LN88@Find
; File C:\Program Files (x86)\Microsoft Visual Studio\2019\Community\VC\Tools\MSVC\14.29.30133\include\xmemory

; 255  :         ::operator delete(_Ptr, _Bytes);

  000b9	6a 10		 push	 16			; 00000010H
  000bb	50		 push	 eax
  000bc	e8 00 00 00 00	 call	 ??3@YAXPAXI@Z		; operator delete
  000c1	8b 55 e0	 mov	 edx, DWORD PTR _selectedSubGraphDeque$[ebp+4]
  000c4	83 c4 08	 add	 esp, 8
$LN88@Find:
; File C:\Program Files (x86)\Microsoft Visual Studio\2019\Community\VC\Tools\MSVC\14.29.30133\include\deque

; 1479 :         for (size_type _Block = _Mapsize(); 0 < _Block;) { // free storage for a block and destroy pointer

  000c7	85 f6		 test	 esi, esi
  000c9	75 e5		 jne	 SHORT $LL69@Find
  000cb	8b 4d ec	 mov	 ecx, DWORD PTR _selectedSubGraphDeque$[ebp+16]
  000ce	8b 75 e4	 mov	 esi, DWORD PTR _selectedSubGraphDeque$[ebp+8]
$LN70@Find:

; 1481 :                 _Getal().deallocate(_Map()[_Block], _Block_size);
; 1482 :                 _Destroy_in_place(_Map()[_Block]);
; 1483 :             }
; 1484 :         }
; 1485 : 
; 1486 :         if (_Map() != _Mapptr()) {

  000d1	85 d2		 test	 edx, edx
  000d3	74 30		 je	 SHORT $LN106@Find
; File C:\Program Files (x86)\Microsoft Visual Studio\2019\Community\VC\Tools\MSVC\14.29.30133\include\xmemory

; 797  :         _Deallocate<_New_alignof<_Ty>>(_Ptr, sizeof(_Ty) * _Count);

  000d5	c1 e6 02	 shl	 esi, 2
  000d8	8b c2		 mov	 eax, edx

; 251  :         if (_Bytes >= _Big_allocation_threshold) { // boost the alignment of big allocations to help autovectorization

  000da	81 fe 00 10 00
	00		 cmp	 esi, 4096		; 00001000H
  000e0	72 16		 jb	 SHORT $LN116@Find

; 150  :     const uintptr_t _Ptr_container   = _Ptr_user[-1];

  000e2	8b 52 fc	 mov	 edx, DWORD PTR [edx-4]
  000e5	83 c6 23	 add	 esi, 35			; 00000023H
  000e8	2b c2		 sub	 eax, edx

; 151  : 
; 152  :     // If the following asserts, it likely means that we are performing
; 153  :     // an aligned delete on memory coming from an unaligned allocation.
; 154  :     _STL_ASSERT(_Ptr_user[-2] == _Big_allocation_sentinel, "invalid argument");
; 155  : 
; 156  :     // Extra paranoia on aligned allocation/deallocation; ensure _Ptr_container is
; 157  :     // in range [_Min_back_shift, _Non_user_size]
; 158  : #ifdef _DEBUG
; 159  :     constexpr uintptr_t _Min_back_shift = 2 * sizeof(void*);
; 160  : #else // ^^^ _DEBUG ^^^ // vvv !_DEBUG vvv
; 161  :     constexpr uintptr_t _Min_back_shift = sizeof(void*);
; 162  : #endif // _DEBUG
; 163  :     const uintptr_t _Back_shift = reinterpret_cast<uintptr_t>(_Ptr) - _Ptr_container;
; 164  :     _STL_VERIFY(_Back_shift >= _Min_back_shift && _Back_shift <= _Non_user_size, "invalid argument");

  000ea	83 c0 fc	 add	 eax, -4			; fffffffcH
  000ed	83 f8 1f	 cmp	 eax, 31			; 0000001fH
  000f0	76 06		 jbe	 SHORT $LN116@Find
  000f2	ff 15 00 00 00
	00		 call	 DWORD PTR __imp___invalid_parameter_noinfo_noreturn
$LN116@Find:

; 255  :         ::operator delete(_Ptr, _Bytes);

  000f8	56		 push	 esi
  000f9	52		 push	 edx
  000fa	e8 00 00 00 00	 call	 ??3@YAXPAXI@Z		; operator delete
  000ff	8b 4d ec	 mov	 ecx, DWORD PTR _selectedSubGraphDeque$[ebp+16]
  00102	83 c4 08	 add	 esp, 8
$LN106@Find:
; File C:\Program Files (x86)\Microsoft Visual Studio\2019\Community\VC\Tools\MSVC\14.29.30133\include\deque

; 1002 :         return _Mysize() == 0;

  00105	85 c9		 test	 ecx, ecx

; 1475 :         while (!empty()) {

  00107	74 12		 je	 SHORT $LN216@Find
  00109	0f 1f 80 00 00
	00 00		 npad	 7
$LL124@Find:

; 1146 :         if (--_Mysize() == 0) {

  00110	83 c1 ff	 add	 ecx, -1
  00113	75 fb		 jne	 SHORT $LL124@Find
  00115	89 4d ec	 mov	 DWORD PTR _selectedSubGraphDeque$[ebp+16], ecx

; 1147 :             _Myoff() = 0;

  00118	89 4d e8	 mov	 DWORD PTR _selectedSubGraphDeque$[ebp+12], ecx
$LN216@Find:
; File C:\Program Files (x86)\Microsoft Visual Studio\2019\Community\VC\Tools\MSVC\14.29.30133\include\utility

; 602  :     _Ty _Old_val = static_cast<_Ty&&>(_Val);

  0011b	8b 45 dc	 mov	 eax, DWORD PTR _selectedSubGraphDeque$[ebp]
; File C:\Program Files (x86)\Microsoft Visual Studio\2019\Community\VC\Tools\MSVC\14.29.30133\include\xmemory

; 255  :         ::operator delete(_Ptr, _Bytes);

  0011e	6a 08		 push	 8
  00120	50		 push	 eax
; File C:\Program Files (x86)\Microsoft Visual Studio\2019\Community\VC\Tools\MSVC\14.29.30133\include\deque

; 1490 :         _Mapsize() = 0;

  00121	c7 45 e4 00 00
	00 00		 mov	 DWORD PTR _selectedSubGraphDeque$[ebp+8], 0

; 1491 :         _Map()     = _Mapptr();

  00128	c7 45 e0 00 00
	00 00		 mov	 DWORD PTR _selectedSubGraphDeque$[ebp+4], 0
; File C:\Program Files (x86)\Microsoft Visual Studio\2019\Community\VC\Tools\MSVC\14.29.30133\include\utility

; 603  :     _Val         = static_cast<_Other&&>(_New_val);

  0012f	c7 45 dc 00 00
	00 00		 mov	 DWORD PTR _selectedSubGraphDeque$[ebp], 0
; File C:\Program Files (x86)\Microsoft Visual Studio\2019\Community\VC\Tools\MSVC\14.29.30133\include\xmemory

; 255  :         ::operator delete(_Ptr, _Bytes);

  00136	e8 00 00 00 00	 call	 ??3@YAXPAXI@Z		; operator delete
  0013b	83 c4 08	 add	 esp, 8
; File D:\git\src\IBK\IBK_DRFN\ProjSrc\SrcChartEx\ChartOCX\ChartObject\GraphTool.cpp

; 801  : 	return result;

  0013e	8a c3		 mov	 al, bl

; 802  : }

  00140	8b 4d f4	 mov	 ecx, DWORD PTR __$EHRec$[ebp]
  00143	64 89 0d 00 00
	00 00		 mov	 DWORD PTR fs:0, ecx
  0014a	59		 pop	 ecx
  0014b	5e		 pop	 esi
  0014c	5b		 pop	 ebx
  0014d	8b e5		 mov	 esp, ebp
  0014f	5d		 pop	 ebp
  00150	c2 0c 00	 ret	 12			; 0000000cH
$LN222@Find:
_TEXT	ENDS
;	COMDAT text$x
text$x	SEGMENT
__unwindfunclet$?Find@CSubGraphTool@@QAE_NPAVCDC@@PAVCMainBlock@@ABVCPoint@@@Z$0:
  00000	8d 4d dc	 lea	 ecx, DWORD PTR _selectedSubGraphDeque$[ebp]
  00003	e9 00 00 00 00	 jmp	 ??1CSelectedSubGraphDeque@@QAE@XZ
  00008	cc		 int	 3
  00009	cc		 int	 3
  0000a	cc		 int	 3
  0000b	cc		 int	 3
  0000c	cc		 int	 3
__ehhandler$?Find@CSubGraphTool@@QAE_NPAVCDC@@PAVCMainBlock@@ABVCPoint@@@Z:
  0000d	90		 npad	 1
  0000e	90		 npad	 1
  0000f	8b 54 24 08	 mov	 edx, DWORD PTR [esp+8]
  00013	8d 42 0c	 lea	 eax, DWORD PTR [edx+12]
  00016	8b 4a dc	 mov	 ecx, DWORD PTR [edx-36]
  00019	33 c8		 xor	 ecx, eax
  0001b	e8 00 00 00 00	 call	 @__security_check_cookie@4
  00020	b8 00 00 00 00	 mov	 eax, OFFSET __ehfuncinfo$?Find@CSubGraphTool@@QAE_NPAVCDC@@PAVCMainBlock@@ABVCPoint@@@Z
  00025	e9 00 00 00 00	 jmp	 ___CxxFrameHandler3
text$x	ENDS
?Find@CSubGraphTool@@QAE_NPAVCDC@@PAVCMainBlock@@ABVCPoint@@@Z ENDP ; CSubGraphTool::Find
; Function compile flags: /Ogtp
; File D:\git\src\IBK\IBK_DRFN\ProjSrc\SrcChartEx\ChartOCX\ChartObject\GraphTool.cpp
;	COMDAT ?OnDraw@CSubGraphTool@@UAEXPAVCDC@@PAVCMainBlock@@@Z
_TEXT	SEGMENT
_pDC$ = 8						; size = 4
_pMainBlock$ = 12					; size = 4
?OnDraw@CSubGraphTool@@UAEXPAVCDC@@PAVCMainBlock@@@Z PROC ; CSubGraphTool::OnDraw, COMDAT
; _this$ = ecx

; 790  : {

  00000	55		 push	 ebp
  00001	8b ec		 mov	 ebp, esp

; 791  : 	m_selectedSubGraphDeque.DrawGrip(pDC);

  00003	ff 75 08	 push	 DWORD PTR _pDC$[ebp]
  00006	83 c1 24	 add	 ecx, 36			; 00000024H
  00009	e8 00 00 00 00	 call	 ?DrawGrip@CSelectedSubGraphDeque@@QAE_NPAVCDC@@@Z ; CSelectedSubGraphDeque::DrawGrip

; 792  : }

  0000e	5d		 pop	 ebp
  0000f	c2 08 00	 ret	 8
?OnDraw@CSubGraphTool@@UAEXPAVCDC@@PAVCMainBlock@@@Z ENDP ; CSubGraphTool::OnDraw
_TEXT	ENDS
; Function compile flags: /Ogtp
; File D:\git\src\IBK\IBK_DRFN\ProjSrc\SrcChartEx\ChartOCX\ChartObject\GraphTool.cpp
;	COMDAT ?OnRButtonUp@CSubGraphTool@@UAE?AW4MENUTYPE@CMenuType@@PAVCDC@@PAVCMainBlock@@ABVCPoint@@@Z
_TEXT	SEGMENT
___formal$ = 8						; size = 4
___formal$ = 12						; size = 4
___formal$ = 16						; size = 4
?OnRButtonUp@CSubGraphTool@@UAE?AW4MENUTYPE@CMenuType@@PAVCDC@@PAVCMainBlock@@ABVCPoint@@@Z PROC ; CSubGraphTool::OnRButtonUp, COMDAT
; _this$ = ecx

; 781  : {

  00000	56		 push	 esi
  00001	8b f1		 mov	 esi, ecx

; 782  : 	if(!IsSelectedSubGraph())

  00003	8b 06		 mov	 eax, DWORD PTR [esi]
  00005	8b 40 50	 mov	 eax, DWORD PTR [eax+80]
  00008	ff d0		 call	 eax
  0000a	84 c0		 test	 al, al
  0000c	75 07		 jne	 SHORT $LN2@OnRButtonU

; 783  : 		return CMenuType::MENU_NONE;

  0000e	83 c8 ff	 or	 eax, -1
  00011	5e		 pop	 esi

; 787  : }

  00012	c2 0c 00	 ret	 12			; 0000000cH
$LN2@OnRButtonU:

; 784  : 
; 785  : 	CBaseTool::SetProcessEnded(false);

  00015	6a 00		 push	 0
  00017	8b ce		 mov	 ecx, esi
  00019	e8 00 00 00 00	 call	 ?SetProcessEnded@CBaseTool@@IAEX_N@Z ; CBaseTool::SetProcessEnded

; 786  : 	return m_selectedSubGraphDeque.GetMenuType();

  0001e	8d 4e 24	 lea	 ecx, DWORD PTR [esi+36]
  00021	e8 00 00 00 00	 call	 ?GetMenuType@CSelectedSubGraphDeque@@QBE?AW4MENUTYPE@CMenuType@@XZ ; CSelectedSubGraphDeque::GetMenuType
  00026	5e		 pop	 esi

; 787  : }

  00027	c2 0c 00	 ret	 12			; 0000000cH
?OnRButtonUp@CSubGraphTool@@UAE?AW4MENUTYPE@CMenuType@@PAVCDC@@PAVCMainBlock@@ABVCPoint@@@Z ENDP ; CSubGraphTool::OnRButtonUp
_TEXT	ENDS
; Function compile flags: /Ogtp
; File D:\git\src\IBK\IBK_DRFN\ProjSrc\SrcChartEx\ChartOCX\ChartObject\GraphTool.cpp
;	COMDAT ?OnLButtonDblClk@CSubGraphTool@@UAE_NPAVCDC@@PAVCMainBlock@@ABVCPoint@@@Z
_TEXT	SEGMENT
$T1 = -8						; size = 8
___formal$ = 8						; size = 4
_pMainBlock$ = 12					; size = 4
_point$ = 16						; size = 4
?OnLButtonDblClk@CSubGraphTool@@UAE_NPAVCDC@@PAVCMainBlock@@ABVCPoint@@@Z PROC ; CSubGraphTool::OnLButtonDblClk, COMDAT
; _this$ = ecx

; 769  : {

  00000	55		 push	 ebp
  00001	8b ec		 mov	 ebp, esp
  00003	83 ec 08	 sub	 esp, 8
  00006	53		 push	 ebx
  00007	56		 push	 esi
  00008	8b f1		 mov	 esi, ecx
  0000a	57		 push	 edi

; 906  : 	InitializeAllData();

  0000b	8b 06		 mov	 eax, DWORD PTR [esi]
  0000d	ff 10		 call	 DWORD PTR [eax]

; 907  : 	if(pMainBlock == NULL)

  0000f	8b 7d 0c	 mov	 edi, DWORD PTR _pMainBlock$[ebp]
  00012	8d 5e 24	 lea	 ebx, DWORD PTR [esi+36]
  00015	85 ff		 test	 edi, edi
  00017	74 0e		 je	 SHORT $LN16@OnLButtonD

; 908  : 		return false;
; 909  : 
; 910  : 	return pMainBlock->FindSubGraph(point, selectedSubGraphDeque);

  00019	8b 07		 mov	 eax, DWORD PTR [edi]
  0001b	8b cf		 mov	 ecx, edi
  0001d	53		 push	 ebx
  0001e	ff 75 10	 push	 DWORD PTR _point$[ebp]
  00021	ff 90 a0 02 00
	00		 call	 DWORD PTR [eax+672]
$LN16@OnLButtonD:

; 951  : 	if(m_selectedSubGraphDeque.GetCount() != 1)

  00027	8b cb		 mov	 ecx, ebx
  00029	e8 00 00 00 00	 call	 ?GetCount@CSelectedSubGraphDeque@@QBEHXZ ; CSelectedSubGraphDeque::GetCount
  0002e	83 f8 01	 cmp	 eax, 1
  00031	75 3b		 jne	 SHORT $LN17@OnLButtonD

; 952  : 		return false;
; 953  : 
; 954  : 	CSubGraph* pSubGraph = m_selectedSubGraphDeque.GetSubGraphTail();

  00033	8b cb		 mov	 ecx, ebx
  00035	e8 00 00 00 00	 call	 ?GetSubGraphTail@CSelectedSubGraphDeque@@QBEPAVCSubGraph@@XZ ; CSelectedSubGraphDeque::GetSubGraphTail

; 955  : 	if(pSubGraph == NULL || pSubGraph->GetSubGraphData().GetType() != CGraphBaseData::DataView_Type)

  0003a	85 c0		 test	 eax, eax
  0003c	74 30		 je	 SHORT $LN17@OnLButtonD
  0003e	8b c8		 mov	 ecx, eax
  00040	e8 00 00 00 00	 call	 ?GetSubGraphData@CSubGraph@@QAEAAVCSubGraphData@@XZ ; CSubGraph::GetSubGraphData
  00045	8b c8		 mov	 ecx, eax
  00047	ff 15 00 00 00
	00		 call	 DWORD PTR __imp_?GetType@CSubGraphDataBase@@QBE?AW4GRAPHTYPE@CGraphBaseData@@XZ
  0004d	83 f8 06	 cmp	 eax, 6
  00050	75 1c		 jne	 SHORT $LN17@OnLButtonD

; 956  : 		return false;
; 957  : 
; 958  : 	return CGraphTool::OnMenu_DataIndex(m_selectedSubGraphDeque.GetTail());

  00052	8d 45 f8	 lea	 eax, DWORD PTR $T1[ebp]
  00055	8b cb		 mov	 ecx, ebx
  00057	50		 push	 eax
  00058	e8 00 00 00 00	 call	 ?GetTail@CSelectedSubGraphDeque@@QBE?AVCSelectedSubGraphData@@XZ ; CSelectedSubGraphDeque::GetTail
  0005d	50		 push	 eax
  0005e	8b ce		 mov	 ecx, esi
  00060	e8 00 00 00 00	 call	 ?OnMenu_DataIndex@CGraphTool@@IAE_NABVCSelectedSubGraphData@@@Z ; CGraphTool::OnMenu_DataIndex
  00065	8a d8		 mov	 bl, al

; 770  : 	FindSubGraph(pMainBlock, point, m_selectedSubGraphDeque);
; 771  : 
; 772  : 	bool bResult = SelectedGraphDataIndex();
; 773  : 	if(!bResult)

  00067	84 db		 test	 bl, bl
  00069	75 30		 jne	 SHORT $LN12@OnLButtonD
  0006b	8d 5e 24	 lea	 ebx, DWORD PTR [esi+36]
$LN17@OnLButtonD:

; 935  : 	if(pMainBlock == NULL)

  0006e	85 ff		 test	 edi, edi
  00070	75 13		 jne	 SHORT $LN13@OnLButtonD
$LN18@OnLButtonD:

; 774  : 		bResult = ReversedSubGraphHighlight(pMainBlock, point);
; 775  : 
; 776  : 	InitializeAllData();

  00072	8b 06		 mov	 eax, DWORD PTR [esi]
  00074	8b ce		 mov	 ecx, esi
  00076	32 db		 xor	 bl, bl
  00078	ff 10		 call	 DWORD PTR [eax]

; 777  : 	return bResult;

  0007a	5f		 pop	 edi
  0007b	5e		 pop	 esi
  0007c	8a c3		 mov	 al, bl
  0007e	5b		 pop	 ebx

; 778  : }

  0007f	8b e5		 mov	 esp, ebp
  00081	5d		 pop	 ebp
  00082	c2 0c 00	 ret	 12			; 0000000cH
$LN13@OnLButtonD:

; 938  : 	CSubGraph* pSubGraph = m_selectedSubGraphDeque.GetSubGraphTail();

  00085	8b cb		 mov	 ecx, ebx
  00087	e8 00 00 00 00	 call	 ?GetSubGraphTail@CSelectedSubGraphDeque@@QBEPAVCSubGraph@@XZ ; CSelectedSubGraphDeque::GetSubGraphTail

; 939  : 	if(pSubGraph == NULL)

  0008c	85 c0		 test	 eax, eax
  0008e	74 e2		 je	 SHORT $LN18@OnLButtonD

; 940  : 		return false;
; 941  : 
; 942  : 	// (2008/10/7 - Seung-Won, Bae) Show config for double click.
; 943  : 	//	pSubGraph->GetSubGraphData().GetPenThickness().ReversedHightlight();
; 944  : 	//	return true;
; 945  : 	return CGraphTool::LoadIndicatorConfiguration( pMainBlock, pSubGraph);

  00090	50		 push	 eax
  00091	57		 push	 edi
  00092	8b ce		 mov	 ecx, esi
  00094	e8 00 00 00 00	 call	 ?LoadIndicatorConfiguration@CGraphTool@@IAE_NPAVCMainBlock@@PAVCSubGraph@@@Z ; CGraphTool::LoadIndicatorConfiguration
  00099	8a d8		 mov	 bl, al
$LN12@OnLButtonD:

; 774  : 		bResult = ReversedSubGraphHighlight(pMainBlock, point);
; 775  : 
; 776  : 	InitializeAllData();

  0009b	8b 06		 mov	 eax, DWORD PTR [esi]
  0009d	8b ce		 mov	 ecx, esi
  0009f	ff 10		 call	 DWORD PTR [eax]

; 777  : 	return bResult;

  000a1	5f		 pop	 edi
  000a2	5e		 pop	 esi
  000a3	8a c3		 mov	 al, bl
  000a5	5b		 pop	 ebx

; 778  : }

  000a6	8b e5		 mov	 esp, ebp
  000a8	5d		 pop	 ebp
  000a9	c2 0c 00	 ret	 12			; 0000000cH
?OnLButtonDblClk@CSubGraphTool@@UAE_NPAVCDC@@PAVCMainBlock@@ABVCPoint@@@Z ENDP ; CSubGraphTool::OnLButtonDblClk
_TEXT	ENDS
; Function compile flags: /Ogtp
; File D:\git\src\IBK\IBK_DRFN\ProjSrc\SrcChartEx\ChartOCX\ChartObject\GraphTool.cpp
;	COMDAT ?GetToolType@CSubGraphTool@@UBE?AW4TOOLTYPE@CBlockBaseData@@XZ
_TEXT	SEGMENT
?GetToolType@CSubGraphTool@@UBE?AW4TOOLTYPE@CBlockBaseData@@XZ PROC ; CSubGraphTool::GetToolType, COMDAT
; _this$ = ecx

; 764  : 	return CBlockBaseData::TOOL_SUBGRAPH;

  00000	b8 06 00 00 00	 mov	 eax, 6

; 765  : }

  00005	c3		 ret	 0
?GetToolType@CSubGraphTool@@UBE?AW4TOOLTYPE@CBlockBaseData@@XZ ENDP ; CSubGraphTool::GetToolType
_TEXT	ENDS
; Function compile flags: /Ogtp
; File D:\git\src\IBK\IBK_DRFN\ProjSrc\SrcChartEx\ChartOCX\ChartObject\GraphTool.cpp
;	COMDAT ?InitializeAllData@CSubGraphTool@@UAEXXZ
_TEXT	SEGMENT
$T1 = -4						; size = 4
?InitializeAllData@CSubGraphTool@@UAEXXZ PROC		; CSubGraphTool::InitializeAllData, COMDAT
; _this$ = ecx

; 757  : {

  00000	55		 push	 ebp
  00001	8b ec		 mov	 ebp, esp
  00003	51		 push	 ecx
  00004	56		 push	 esi
  00005	8b f1		 mov	 esi, ecx

; 56   : 	CBaseTool::InitializeAllData();

  00007	e8 00 00 00 00	 call	 ?InitializeAllData@CBaseTool@@UAEXXZ ; CBaseTool::InitializeAllData

; 57   : 	CBaseTool::ChangeCursor(CBaseToolEnumData::CTNONE);

  0000c	8d 45 fc	 lea	 eax, DWORD PTR $T1[ebp]
  0000f	c7 45 fc 00 00
	00 00		 mov	 DWORD PTR $T1[ebp], 0
  00016	50		 push	 eax
  00017	8b ce		 mov	 ecx, esi
  00019	e8 00 00 00 00	 call	 ?ChangeCursor@CBaseTool@@IAEXABW4CURSORTYPE@CBaseToolEnumData@@@Z ; CBaseTool::ChangeCursor

; 58   : 	m_graphMove.InitializeAllData(CBaseTool::GetParent());

  0001e	8b ce		 mov	 ecx, esi
  00020	e8 00 00 00 00	 call	 ?GetParent@CBaseTool@@QBEPAVCWnd@@XZ ; CBaseTool::GetParent
  00025	50		 push	 eax
  00026	8d 4e 18	 lea	 ecx, DWORD PTR [esi+24]
  00029	e8 00 00 00 00	 call	 ?InitializeAllData@CGraphMove@@QAEXPAVCWnd@@@Z ; CGraphMove::InitializeAllData

; 758  : 	CGraphTool::InitializeAllData();
; 759  : 	m_selectedSubGraphDeque.RemoveAll();

  0002e	8d 4e 24	 lea	 ecx, DWORD PTR [esi+36]
  00031	e8 00 00 00 00	 call	 ?RemoveAll@CSelectedSubGraphDeque@@QAEXXZ ; CSelectedSubGraphDeque::RemoveAll
  00036	5e		 pop	 esi

; 760  : }

  00037	8b e5		 mov	 esp, ebp
  00039	5d		 pop	 ebp
  0003a	c3		 ret	 0
?InitializeAllData@CSubGraphTool@@UAEXXZ ENDP		; CSubGraphTool::InitializeAllData
_TEXT	ENDS
; Function compile flags: /Ogtp
; File D:\git\src\IBK\IBK_DRFN\ProjSrc\SrcChartEx\ChartOCX\ChartObject\GraphTool.cpp
;	COMDAT ?OnMenu_SubGraphSet@CSubGraphTitleTool@@AAE_NPAVCMainBlock@@@Z
_TEXT	SEGMENT
_pMainBlock$ = 8					; size = 4
?OnMenu_SubGraphSet@CSubGraphTitleTool@@AAE_NPAVCMainBlock@@@Z PROC ; CSubGraphTitleTool::OnMenu_SubGraphSet, COMDAT
; _this$ = ecx

; 743  : {

  00000	55		 push	 ebp
  00001	8b ec		 mov	 ebp, esp
  00003	56		 push	 esi

; 744  : 	CBaseTool::SetProcessEnded(true);

  00004	6a 01		 push	 1
  00006	8b f1		 mov	 esi, ecx
  00008	e8 00 00 00 00	 call	 ?SetProcessEnded@CBaseTool@@IAEX_N@Z ; CBaseTool::SetProcessEnded

; 745  : 
; 746  : 	return CGraphTool::LoadIndicatorConfiguration(pMainBlock, m_selectedSubGraphData.GetSubGraph());

  0000d	8d 4e 24	 lea	 ecx, DWORD PTR [esi+36]
  00010	e8 00 00 00 00	 call	 ?GetSubGraph@CSelectedSubGraphData@@QAEAAPAVCSubGraph@@XZ ; CSelectedSubGraphData::GetSubGraph
  00015	8b ce		 mov	 ecx, esi
  00017	ff 30		 push	 DWORD PTR [eax]
  00019	ff 75 08	 push	 DWORD PTR _pMainBlock$[ebp]
  0001c	e8 00 00 00 00	 call	 ?LoadIndicatorConfiguration@CGraphTool@@IAE_NPAVCMainBlock@@PAVCSubGraph@@@Z ; CGraphTool::LoadIndicatorConfiguration
  00021	5e		 pop	 esi

; 747  : }

  00022	5d		 pop	 ebp
  00023	c2 04 00	 ret	 4
?OnMenu_SubGraphSet@CSubGraphTitleTool@@AAE_NPAVCMainBlock@@@Z ENDP ; CSubGraphTitleTool::OnMenu_SubGraphSet
_TEXT	ENDS
; Function compile flags: /Ogtp
; File D:\git\src\IBK\IBK_DRFN\ProjSrc\SrcChartEx\ChartOCX\ChartObject\GraphTool.cpp
;	COMDAT ?OnMenu_SubGraphHide@CSubGraphTitleTool@@AAE_N_N@Z
_TEXT	SEGMENT
_bIsAction$ = 8						; size = 1
?OnMenu_SubGraphHide@CSubGraphTitleTool@@AAE_N_N@Z PROC	; CSubGraphTitleTool::OnMenu_SubGraphHide, COMDAT
; _this$ = ecx

; 730  : {

  00000	55		 push	 ebp
  00001	8b ec		 mov	 ebp, esp

; 731  : 	if(!bIsAction)

  00003	80 7d 08 00	 cmp	 BYTE PTR _bIsAction$[ebp], 0
  00007	56		 push	 esi
  00008	8b f1		 mov	 esi, ecx
  0000a	74 1c		 je	 SHORT $LN5@OnMenu_Sub

; 732  : 		return false;
; 733  : 
; 734  : 	if(!m_selectedSubGraphData.DeleteOrHideSubGraph())

  0000c	8d 4e 24	 lea	 ecx, DWORD PTR [esi+36]
  0000f	e8 00 00 00 00	 call	 ?DeleteOrHideSubGraph@CSelectedSubGraphData@@QAE_NXZ ; CSelectedSubGraphData::DeleteOrHideSubGraph
  00014	84 c0		 test	 al, al
  00016	74 10		 je	 SHORT $LN5@OnMenu_Sub

; 736  : 
; 737  : 	CBaseTool::SetProcessEnded(true);

  00018	6a 01		 push	 1
  0001a	8b ce		 mov	 ecx, esi
  0001c	e8 00 00 00 00	 call	 ?SetProcessEnded@CBaseTool@@IAEX_N@Z ; CBaseTool::SetProcessEnded

; 738  : 	return true;

  00021	b0 01		 mov	 al, 1
  00023	5e		 pop	 esi

; 739  : }

  00024	5d		 pop	 ebp
  00025	c2 04 00	 ret	 4
$LN5@OnMenu_Sub:

; 735  : 		return false;

  00028	32 c0		 xor	 al, al
  0002a	5e		 pop	 esi

; 739  : }

  0002b	5d		 pop	 ebp
  0002c	c2 04 00	 ret	 4
?OnMenu_SubGraphHide@CSubGraphTitleTool@@AAE_N_N@Z ENDP	; CSubGraphTitleTool::OnMenu_SubGraphHide
_TEXT	ENDS
; Function compile flags: /Ogtp
; File D:\git\src\IBK\IBK_DRFN\ProjSrc\SrcChartEx\ChartOCX\ChartObject\GraphTool.cpp
; File C:\Program Files (x86)\Microsoft Visual Studio\2019\Community\VC\Tools\MSVC\14.29.30133\atlmfc\include\atltypes.h
; File D:\git\src\IBK\IBK_DRFN\ProjSrc\SrcChartEx\ChartOCX\ChartObject\GraphTool.cpp
; File C:\Program Files (x86)\Microsoft Visual Studio\2019\Community\VC\Tools\MSVC\14.29.30133\atlmfc\include\atltypes.h
; File D:\git\src\IBK\IBK_DRFN\ProjSrc\SrcChartEx\ChartOCX\ChartObject\GraphTool.cpp
;	COMDAT ?InitializeTitleRegion@CSubGraphTitleTool@@AAEXXZ
_TEXT	SEGMENT
?InitializeTitleRegion@CSubGraphTitleTool@@AAEXXZ PROC	; CSubGraphTitleTool::InitializeTitleRegion, COMDAT
; _this$ = ecx

; 722  : {

  00000	57		 push	 edi
  00001	8b f9		 mov	 edi, ecx

; 723  : 	m_selectedSubGraphTitleRegion.SetRectEmpty();

  00003	8d 47 2c	 lea	 eax, DWORD PTR [edi+44]
; File C:\Program Files (x86)\Microsoft Visual Studio\2019\Community\VC\Tools\MSVC\14.29.30133\atlmfc\include\atltypes.h

; 669  : 	::SetRectEmpty(this);

  00006	50		 push	 eax
  00007	ff 15 00 00 00
	00		 call	 DWORD PTR __imp__SetRectEmpty@4
; File D:\git\src\IBK\IBK_DRFN\ProjSrc\SrcChartEx\ChartOCX\ChartObject\GraphTool.cpp

; 724  : 	m_oldSelectedSubGraphTitleRegion.SetRectEmpty();

  0000d	8d 47 3c	 lea	 eax, DWORD PTR [edi+60]
; File C:\Program Files (x86)\Microsoft Visual Studio\2019\Community\VC\Tools\MSVC\14.29.30133\atlmfc\include\atltypes.h

; 669  : 	::SetRectEmpty(this);

  00010	50		 push	 eax
  00011	ff 15 00 00 00
	00		 call	 DWORD PTR __imp__SetRectEmpty@4
  00017	5f		 pop	 edi
; File D:\git\src\IBK\IBK_DRFN\ProjSrc\SrcChartEx\ChartOCX\ChartObject\GraphTool.cpp

; 725  : }

  00018	c3		 ret	 0
?InitializeTitleRegion@CSubGraphTitleTool@@AAEXXZ ENDP	; CSubGraphTitleTool::InitializeTitleRegion
_TEXT	ENDS
; Function compile flags: /Ogtp
; File D:\git\src\IBK\IBK_DRFN\ProjSrc\SrcChartEx\ChartOCX\ChartObject\GraphTool.cpp
; File C:\Program Files (x86)\Microsoft Visual Studio\2019\Community\VC\Tools\MSVC\14.29.30133\atlmfc\include\atltypes.h
; File D:\git\src\IBK\IBK_DRFN\ProjSrc\SrcChartEx\ChartOCX\ChartObject\GraphTool.cpp
; File C:\Program Files (x86)\Microsoft Visual Studio\2019\Community\VC\Tools\MSVC\14.29.30133\atlmfc\include\atltypes.h
; File D:\git\src\IBK\IBK_DRFN\ProjSrc\SrcChartEx\ChartOCX\ChartObject\GraphTool.cpp
; File C:\Program Files (x86)\Microsoft Visual Studio\2019\Community\VC\Tools\MSVC\14.29.30133\atlmfc\include\atltypes.h
; File D:\git\src\IBK\IBK_DRFN\ProjSrc\SrcChartEx\ChartOCX\ChartObject\GraphTool.cpp
; File C:\Program Files (x86)\Microsoft Visual Studio\2019\Community\VC\Tools\MSVC\14.29.30133\atlmfc\include\atltypes.h
; File D:\git\src\IBK\IBK_DRFN\ProjSrc\SrcChartEx\ChartOCX\ChartObject\GraphTool.cpp
;	COMDAT ?GetSelectedSubGraphTitleRegion@CSubGraphTitleTool@@ABE?AVCRect@@ABV2@@Z
_TEXT	SEGMENT
___$ReturnUdt$ = 8					; size = 4
_subGraphTitleRegion$ = 12				; size = 4
?GetSelectedSubGraphTitleRegion@CSubGraphTitleTool@@ABE?AVCRect@@ABV2@@Z PROC ; CSubGraphTitleTool::GetSelectedSubGraphTitleRegion, COMDAT
; _this$ = ecx

; 716  : {

  00000	55		 push	 ebp
  00001	8b ec		 mov	 ebp, esp

; 717  : 	return CRect(subGraphTitleRegion.left -2, subGraphTitleRegion.top -2, 

  00003	8b 55 0c	 mov	 edx, DWORD PTR _subGraphTitleRegion$[ebp]
  00006	56		 push	 esi
; File C:\Program Files (x86)\Microsoft Visual Studio\2019\Community\VC\Tools\MSVC\14.29.30133\atlmfc\include\atltypes.h

; 540  : 	left = l;

  00007	8b 75 08	 mov	 esi, DWORD PTR ___$ReturnUdt$[ebp]
; File D:\git\src\IBK\IBK_DRFN\ProjSrc\SrcChartEx\ChartOCX\ChartObject\GraphTool.cpp

; 717  : 	return CRect(subGraphTitleRegion.left -2, subGraphTitleRegion.top -2, 

  0000a	8b 4a 04	 mov	 ecx, DWORD PTR [edx+4]
  0000d	8b 02		 mov	 eax, DWORD PTR [edx]
  0000f	83 e9 02	 sub	 ecx, 2
; File C:\Program Files (x86)\Microsoft Visual Studio\2019\Community\VC\Tools\MSVC\14.29.30133\atlmfc\include\atltypes.h

; 541  : 	top = t;

  00012	89 4e 04	 mov	 DWORD PTR [esi+4], ecx
; File D:\git\src\IBK\IBK_DRFN\ProjSrc\SrcChartEx\ChartOCX\ChartObject\GraphTool.cpp

; 717  : 	return CRect(subGraphTitleRegion.left -2, subGraphTitleRegion.top -2, 

  00015	83 e8 02	 sub	 eax, 2
  00018	8b 4a 08	 mov	 ecx, DWORD PTR [edx+8]
  0001b	83 c1 02	 add	 ecx, 2
; File C:\Program Files (x86)\Microsoft Visual Studio\2019\Community\VC\Tools\MSVC\14.29.30133\atlmfc\include\atltypes.h

; 540  : 	left = l;

  0001e	89 06		 mov	 DWORD PTR [esi], eax

; 542  : 	right = r;

  00020	89 4e 08	 mov	 DWORD PTR [esi+8], ecx
; File D:\git\src\IBK\IBK_DRFN\ProjSrc\SrcChartEx\ChartOCX\ChartObject\GraphTool.cpp

; 717  : 	return CRect(subGraphTitleRegion.left -2, subGraphTitleRegion.top -2, 

  00023	8b c6		 mov	 eax, esi
  00025	8b 4a 0c	 mov	 ecx, DWORD PTR [edx+12]
  00028	41		 inc	 ecx
; File C:\Program Files (x86)\Microsoft Visual Studio\2019\Community\VC\Tools\MSVC\14.29.30133\atlmfc\include\atltypes.h

; 543  : 	bottom = b;

  00029	89 4e 0c	 mov	 DWORD PTR [esi+12], ecx
; File D:\git\src\IBK\IBK_DRFN\ProjSrc\SrcChartEx\ChartOCX\ChartObject\GraphTool.cpp

; 717  : 	return CRect(subGraphTitleRegion.left -2, subGraphTitleRegion.top -2, 

  0002c	5e		 pop	 esi

; 718  : 		subGraphTitleRegion.right +2, subGraphTitleRegion.bottom +1);
; 719  : }

  0002d	5d		 pop	 ebp
  0002e	c2 08 00	 ret	 8
?GetSelectedSubGraphTitleRegion@CSubGraphTitleTool@@ABE?AVCRect@@ABV2@@Z ENDP ; CSubGraphTitleTool::GetSelectedSubGraphTitleRegion
_TEXT	ENDS
; Function compile flags: /Ogtp
; File D:\git\src\IBK\IBK_DRFN\ProjSrc\SrcChartEx\ChartOCX\ChartObject\GraphTool.cpp
;	COMDAT ?GetSubGraph@CSubGraphTitleTool@@ABEPAVCSubGraph@@XZ
_TEXT	SEGMENT
?GetSubGraph@CSubGraphTitleTool@@ABEPAVCSubGraph@@XZ PROC ; CSubGraphTitleTool::GetSubGraph, COMDAT
; _this$ = ecx

; 711  : 	return m_selectedSubGraphData.GetSubGraph();

  00000	83 c1 24	 add	 ecx, 36			; 00000024H
  00003	e9 00 00 00 00	 jmp	 ?GetSubGraph@CSelectedSubGraphData@@QBEPAVCSubGraph@@XZ ; CSelectedSubGraphData::GetSubGraph
?GetSubGraph@CSubGraphTitleTool@@ABEPAVCSubGraph@@XZ ENDP ; CSubGraphTitleTool::GetSubGraph
_TEXT	ENDS
; Function compile flags: /Ogtp
; File D:\git\src\IBK\IBK_DRFN\ProjSrc\SrcChartEx\ChartOCX\ChartObject\GraphTool.cpp
; File C:\Program Files (x86)\Microsoft Visual Studio\2019\Community\VC\Tools\MSVC\14.29.30133\atlmfc\include\atltypes.h
; File D:\git\src\IBK\IBK_DRFN\ProjSrc\SrcChartEx\ChartOCX\ChartObject\GraphTool.cpp
; File C:\Program Files (x86)\Microsoft Visual Studio\2019\Community\VC\Tools\MSVC\14.29.30133\atlmfc\include\atltypes.h
; File D:\git\src\IBK\IBK_DRFN\ProjSrc\SrcChartEx\ChartOCX\ChartObject\GraphTool.cpp
;	COMDAT ?IsLoadIndicatorConfiguration@CSubGraphTitleTool@@ABE_NABVCPoint@@@Z
_TEXT	SEGMENT
_point$ = 8						; size = 4
?IsLoadIndicatorConfiguration@CSubGraphTitleTool@@ABE_NABVCPoint@@@Z PROC ; CSubGraphTitleTool::IsLoadIndicatorConfiguration, COMDAT
; _this$ = ecx

; 702  : {

  00000	55		 push	 ebp
  00001	8b ec		 mov	 ebp, esp
  00003	56		 push	 esi
  00004	8b f1		 mov	 esi, ecx
  00006	57		 push	 edi

; 711  : 	return m_selectedSubGraphData.GetSubGraph();

  00007	8d 4e 24	 lea	 ecx, DWORD PTR [esi+36]
  0000a	e8 00 00 00 00	 call	 ?GetSubGraph@CSelectedSubGraphData@@QBEPAVCSubGraph@@XZ ; CSelectedSubGraphData::GetSubGraph

; 703  : 	if(GetSubGraph() == NULL || !m_selectedSubGraphTitleRegion.PtInRect(point))

  0000f	85 c0		 test	 eax, eax
  00011	74 39		 je	 SHORT $LN3@IsLoadIndi
  00013	8b 45 08	 mov	 eax, DWORD PTR _point$[ebp]
; File C:\Program Files (x86)\Microsoft Visual Studio\2019\Community\VC\Tools\MSVC\14.29.30133\atlmfc\include\atltypes.h

; 648  : 	return ::PtInRect(this, point);

  00016	ff 70 04	 push	 DWORD PTR [eax+4]
  00019	ff 30		 push	 DWORD PTR [eax]
; File D:\git\src\IBK\IBK_DRFN\ProjSrc\SrcChartEx\ChartOCX\ChartObject\GraphTool.cpp

; 703  : 	if(GetSubGraph() == NULL || !m_selectedSubGraphTitleRegion.PtInRect(point))

  0001b	8d 46 2c	 lea	 eax, DWORD PTR [esi+44]
; File C:\Program Files (x86)\Microsoft Visual Studio\2019\Community\VC\Tools\MSVC\14.29.30133\atlmfc\include\atltypes.h

; 648  : 	return ::PtInRect(this, point);

  0001e	50		 push	 eax
  0001f	ff 15 00 00 00
	00		 call	 DWORD PTR __imp__PtInRect@12
; File D:\git\src\IBK\IBK_DRFN\ProjSrc\SrcChartEx\ChartOCX\ChartObject\GraphTool.cpp

; 703  : 	if(GetSubGraph() == NULL || !m_selectedSubGraphTitleRegion.PtInRect(point))

  00025	85 c0		 test	 eax, eax
  00027	74 23		 je	 SHORT $LN3@IsLoadIndi

; 711  : 	return m_selectedSubGraphData.GetSubGraph();

  00029	8d 4e 24	 lea	 ecx, DWORD PTR [esi+36]
  0002c	e8 00 00 00 00	 call	 ?GetSubGraph@CSelectedSubGraphData@@QBEPAVCSubGraph@@XZ ; CSelectedSubGraphData::GetSubGraph

; 705  : 
; 706  : 	return (GetSubGraph()->GetSubGraphData().GetType() != CGraphBaseData::DataView_Type);

  00031	8b c8		 mov	 ecx, eax
  00033	e8 00 00 00 00	 call	 ?GetSubGraphData@CSubGraph@@QAEAAVCSubGraphData@@XZ ; CSubGraph::GetSubGraphData
  00038	8b c8		 mov	 ecx, eax
  0003a	ff 15 00 00 00
	00		 call	 DWORD PTR __imp_?GetType@CSubGraphDataBase@@QBE?AW4GRAPHTYPE@CGraphBaseData@@XZ
  00040	83 f8 06	 cmp	 eax, 6
  00043	5f		 pop	 edi
  00044	0f 95 c0	 setne	 al

; 707  : }

  00047	5e		 pop	 esi
  00048	5d		 pop	 ebp
  00049	c2 04 00	 ret	 4
$LN3@IsLoadIndi:
  0004c	5f		 pop	 edi

; 704  : 		return false;

  0004d	32 c0		 xor	 al, al

; 707  : }

  0004f	5e		 pop	 esi
  00050	5d		 pop	 ebp
  00051	c2 04 00	 ret	 4
?IsLoadIndicatorConfiguration@CSubGraphTitleTool@@ABE_NABVCPoint@@@Z ENDP ; CSubGraphTitleTool::IsLoadIndicatorConfiguration
_TEXT	ENDS
; Function compile flags: /Ogtp
; File D:\git\src\IBK\IBK_DRFN\ProjSrc\SrcChartEx\ChartOCX\ChartObject\GraphTool.cpp
;	COMDAT ?DrawSelectedSubGraphGrip@CSubGraphTitleTool@@AAE_NPAVCDC@@@Z
_TEXT	SEGMENT
_pDC$ = 8						; size = 4
?DrawSelectedSubGraphGrip@CSubGraphTitleTool@@AAE_NPAVCDC@@@Z PROC ; CSubGraphTitleTool::DrawSelectedSubGraphGrip, COMDAT
; _this$ = ecx

; 693  : {

  00000	55		 push	 ebp
  00001	8b ec		 mov	 ebp, esp
  00003	56		 push	 esi

; 711  : 	return m_selectedSubGraphData.GetSubGraph();

  00004	8d 71 24	 lea	 esi, DWORD PTR [ecx+36]
  00007	8b ce		 mov	 ecx, esi
  00009	e8 00 00 00 00	 call	 ?GetSubGraph@CSelectedSubGraphData@@QBEPAVCSubGraph@@XZ ; CSelectedSubGraphData::GetSubGraph

; 694  : 	if(GetSubGraph() == NULL)

  0000e	85 c0		 test	 eax, eax
  00010	75 07		 jne	 SHORT $LN2@DrawSelect

; 695  : 		return false;

  00012	32 c0		 xor	 al, al
  00014	5e		 pop	 esi

; 698  : }

  00015	5d		 pop	 ebp
  00016	c2 04 00	 ret	 4
$LN2@DrawSelect:

; 711  : 	return m_selectedSubGraphData.GetSubGraph();

  00019	8b ce		 mov	 ecx, esi
  0001b	e8 00 00 00 00	 call	 ?GetSubGraph@CSelectedSubGraphData@@QBEPAVCSubGraph@@XZ ; CSelectedSubGraphData::GetSubGraph

; 696  : 
; 697  : 	return GetSubGraph()->DrawGrip(pDC, -1);

  00020	6a ff		 push	 -1
  00022	ff 75 08	 push	 DWORD PTR _pDC$[ebp]
  00025	8b c8		 mov	 ecx, eax
  00027	e8 00 00 00 00	 call	 ?DrawGrip@CSubGraph@@QAE_NPAVCDC@@H@Z ; CSubGraph::DrawGrip
  0002c	5e		 pop	 esi

; 698  : }

  0002d	5d		 pop	 ebp
  0002e	c2 04 00	 ret	 4
?DrawSelectedSubGraphGrip@CSubGraphTitleTool@@AAE_NPAVCDC@@@Z ENDP ; CSubGraphTitleTool::DrawSelectedSubGraphGrip
_TEXT	ENDS
; Function compile flags: /Ogtp
; File D:\git\src\IBK\IBK_DRFN\ProjSrc\SrcChartEx\ChartOCX\ChartObject\GraphTool.cpp
; File C:\Program Files (x86)\Microsoft Visual Studio\2019\Community\VC\Tools\MSVC\14.29.30133\atlmfc\include\afxwin1.inl
; File D:\git\src\IBK\IBK_DRFN\ProjSrc\SrcChartEx\ChartOCX\ChartObject\GraphTool.cpp
; File C:\Program Files (x86)\Microsoft Visual Studio\2019\Community\VC\Tools\MSVC\14.29.30133\atlmfc\include\afxwin1.inl
; File D:\git\src\IBK\IBK_DRFN\ProjSrc\SrcChartEx\ChartOCX\ChartObject\GraphTool.cpp
; File C:\Program Files (x86)\Microsoft Visual Studio\2019\Community\VC\Tools\MSVC\14.29.30133\atlmfc\include\afxwin1.inl
; File D:\git\src\IBK\IBK_DRFN\ProjSrc\SrcChartEx\ChartOCX\ChartObject\GraphTool.cpp
;	COMDAT ?DrawSelectedSubGraphTitle@CSubGraphTitleTool@@AAEXPAVCDC@@@Z
_TEXT	SEGMENT
_pDC$ = 8						; size = 4
?DrawSelectedSubGraphTitle@CSubGraphTitleTool@@AAEXPAVCDC@@@Z PROC ; CSubGraphTitleTool::DrawSelectedSubGraphTitle, COMDAT
; _this$ = ecx

; 681  : {

  00000	55		 push	 ebp
  00001	8b ec		 mov	 ebp, esp
  00003	53		 push	 ebx
  00004	56		 push	 esi

; 682  : 	CBrush* pOldBrush = (CBrush*) pDC->SelectStockObject(NULL_BRUSH);

  00005	8b 75 08	 mov	 esi, DWORD PTR _pDC$[ebp]
  00008	57		 push	 edi
  00009	8b f9		 mov	 edi, ecx
  0000b	8b ce		 mov	 ecx, esi
  0000d	6a 05		 push	 5
  0000f	8b 06		 mov	 eax, DWORD PTR [esi]
  00011	ff 50 2c	 call	 DWORD PTR [eax+44]
; File C:\Program Files (x86)\Microsoft Visual Studio\2019\Community\VC\Tools\MSVC\14.29.30133\atlmfc\include\afxwin1.inl

; 380  : 	{ ASSERT(m_hAttribDC != NULL); return ::GetROP2(m_hAttribDC); }

  00014	ff 76 08	 push	 DWORD PTR [esi+8]
; File D:\git\src\IBK\IBK_DRFN\ProjSrc\SrcChartEx\ChartOCX\ChartObject\GraphTool.cpp

; 682  : 	CBrush* pOldBrush = (CBrush*) pDC->SelectStockObject(NULL_BRUSH);

  00017	8b d8		 mov	 ebx, eax
; File C:\Program Files (x86)\Microsoft Visual Studio\2019\Community\VC\Tools\MSVC\14.29.30133\atlmfc\include\afxwin1.inl

; 380  : 	{ ASSERT(m_hAttribDC != NULL); return ::GetROP2(m_hAttribDC); }

  00019	ff 15 00 00 00
	00		 call	 DWORD PTR __imp__GetROP2@4
; File D:\git\src\IBK\IBK_DRFN\ProjSrc\SrcChartEx\ChartOCX\ChartObject\GraphTool.cpp

; 684  : 	pDC->SetROP2(R2_NOT);

  0001f	8b 4d 08	 mov	 ecx, DWORD PTR _pDC$[ebp]
  00022	8b f0		 mov	 esi, eax
  00024	6a 06		 push	 6
  00026	e8 00 00 00 00	 call	 ?SetROP2@CDC@@QAEHH@Z	; CDC::SetROP2
; File C:\Program Files (x86)\Microsoft Visual Studio\2019\Community\VC\Tools\MSVC\14.29.30133\atlmfc\include\afxwin1.inl

; 541  : 	{ ASSERT(m_hDC != NULL); return ::Rectangle(m_hDC, lpRect->left, lpRect->top,

  0002b	ff 77 38	 push	 DWORD PTR [edi+56]
  0002e	ff 77 34	 push	 DWORD PTR [edi+52]
  00031	ff 77 30	 push	 DWORD PTR [edi+48]
  00034	ff 77 2c	 push	 DWORD PTR [edi+44]
  00037	8b 7d 08	 mov	 edi, DWORD PTR _pDC$[ebp]
  0003a	ff 77 04	 push	 DWORD PTR [edi+4]
  0003d	ff 15 00 00 00
	00		 call	 DWORD PTR __imp__Rectangle@20
; File D:\git\src\IBK\IBK_DRFN\ProjSrc\SrcChartEx\ChartOCX\ChartObject\GraphTool.cpp

; 688  : 	pDC->SetROP2(oldDrawMode);

  00043	56		 push	 esi
  00044	8b cf		 mov	 ecx, edi
  00046	e8 00 00 00 00	 call	 ?SetROP2@CDC@@QAEHH@Z	; CDC::SetROP2

; 689  : 	pDC->SelectObject(pOldBrush);

  0004b	53		 push	 ebx
  0004c	8b cf		 mov	 ecx, edi
  0004e	e8 00 00 00 00	 call	 ?SelectObject@CDC@@QAEPAVCBrush@@PAV2@@Z ; CDC::SelectObject
  00053	5f		 pop	 edi
  00054	5e		 pop	 esi
  00055	5b		 pop	 ebx

; 690  : }

  00056	5d		 pop	 ebp
  00057	c2 04 00	 ret	 4
?DrawSelectedSubGraphTitle@CSubGraphTitleTool@@AAEXPAVCDC@@@Z ENDP ; CSubGraphTitleTool::DrawSelectedSubGraphTitle
_TEXT	ENDS
; Function compile flags: /Ogtp
; File D:\git\src\IBK\IBK_DRFN\ProjSrc\SrcChartEx\ChartOCX\ChartObject\GraphTool.cpp
;	COMDAT ?ChangeAllVertScaleGridType@CSubGraphTitleTool@@AAEXXZ
_TEXT	SEGMENT
?ChangeAllVertScaleGridType@CSubGraphTitleTool@@AAEXXZ PROC ; CSubGraphTitleTool::ChangeAllVertScaleGridType, COMDAT
; _this$ = ecx

; 711  : 	return m_selectedSubGraphData.GetSubGraph();

  00000	83 c1 24	 add	 ecx, 36			; 00000024H
  00003	e8 00 00 00 00	 call	 ?GetSubGraph@CSelectedSubGraphData@@QBEPAVCSubGraph@@XZ ; CSelectedSubGraphData::GetSubGraph

; 671  : 	CSubGraph* pSubGraph = GetSubGraph();
; 672  : 	if(pSubGraph == NULL)

  00008	85 c0		 test	 eax, eax
  0000a	74 29		 je	 SHORT $LN6@ChangeAllV

; 673  : 		return;
; 674  : 
; 675  : 	CGraphTool::ChangeAllVertScaleGridType(pSubGraph->GetGraph()->GetVertScaleGroup());

  0000c	56		 push	 esi
  0000d	8b c8		 mov	 ecx, eax
  0000f	e8 00 00 00 00	 call	 ?GetGraph@CSubGraph@@QBEPAVCGraphImp@@XZ ; CSubGraph::GetGraph
  00014	8b c8		 mov	 ecx, eax
  00016	e8 00 00 00 00	 call	 ?GetVertScaleGroup@CGraphImp@@QBEPAVCVertScaleGroup@@XZ ; CGraphImp::GetVertScaleGroup
  0001b	8b f0		 mov	 esi, eax

; 222  : 	if( pVertScaleGroup == NULL) return;

  0001d	85 f6		 test	 esi, esi
  0001f	74 13		 je	 SHORT $LN10@ChangeAllV

; 223  : 
; 224  : 	CVertScaleGroupList *pVertScaleGroupList = pVertScaleGroup->GetVertScaleGroupList();

  00021	8b ce		 mov	 ecx, esi
  00023	e8 00 00 00 00	 call	 ?GetVertScaleGroupList@CVertScaleGroup@@QBEPAVCVertScaleGroupList@@XZ ; CVertScaleGroup::GetVertScaleGroupList

; 225  : 	if( !pVertScaleGroupList) return;

  00028	85 c0		 test	 eax, eax
  0002a	74 08		 je	 SHORT $LN10@ChangeAllV

; 226  : 	pVertScaleGroupList->SetActivate( pVertScaleGroup);

  0002c	56		 push	 esi
  0002d	8b c8		 mov	 ecx, eax
  0002f	e8 00 00 00 00	 call	 ?SetActivate@CVertScaleGroupList@@QAEXPAVCVertScaleGroup@@@Z ; CVertScaleGroupList::SetActivate
$LN10@ChangeAllV:
  00034	5e		 pop	 esi
$LN6@ChangeAllV:

; 676  : }

  00035	c3		 ret	 0
?ChangeAllVertScaleGridType@CSubGraphTitleTool@@AAEXXZ ENDP ; CSubGraphTitleTool::ChangeAllVertScaleGridType
_TEXT	ENDS
; Function compile flags: /Ogtp
; File D:\git\src\IBK\IBK_DRFN\ProjSrc\SrcChartEx\ChartOCX\ChartObject\GraphTool.cpp
; File C:\Program Files (x86)\Microsoft Visual Studio\2019\Community\VC\Tools\MSVC\14.29.30133\atlmfc\include\atltypes.h
; File D:\git\src\IBK\IBK_DRFN\ProjSrc\SrcChartEx\ChartOCX\ChartObject\GraphTool.cpp
; File C:\Program Files (x86)\Microsoft Visual Studio\2019\Community\VC\Tools\MSVC\14.29.30133\atlmfc\include\atltypes.h
; File D:\git\src\IBK\IBK_DRFN\ProjSrc\SrcChartEx\ChartOCX\ChartObject\GraphTool.cpp
; File C:\Program Files (x86)\Microsoft Visual Studio\2019\Community\VC\Tools\MSVC\14.29.30133\atlmfc\include\atltypes.h
; File D:\git\src\IBK\IBK_DRFN\ProjSrc\SrcChartEx\ChartOCX\ChartObject\GraphTool.cpp
; File C:\Program Files (x86)\Microsoft Visual Studio\2019\Community\VC\Tools\MSVC\14.29.30133\atlmfc\include\atltypes.h
; File D:\git\src\IBK\IBK_DRFN\ProjSrc\SrcChartEx\ChartOCX\ChartObject\GraphTool.cpp
; File C:\Program Files (x86)\Microsoft Visual Studio\2019\Community\VC\Tools\MSVC\14.29.30133\atlmfc\include\atltypes.h
; File D:\git\src\IBK\IBK_DRFN\ProjSrc\SrcChartEx\ChartOCX\ChartObject\GraphTool.cpp
; File C:\Program Files (x86)\Microsoft Visual Studio\2019\Community\VC\Tools\MSVC\14.29.30133\atlmfc\include\atltypes.h
; File D:\git\src\IBK\IBK_DRFN\ProjSrc\SrcChartEx\ChartOCX\ChartObject\GraphTool.cpp
; File C:\Program Files (x86)\Microsoft Visual Studio\2019\Community\VC\Tools\MSVC\14.29.30133\atlmfc\include\atltypes.h
; File D:\git\src\IBK\IBK_DRFN\ProjSrc\SrcChartEx\ChartOCX\ChartObject\GraphTool.cpp
;	COMDAT ?FindSubGraphTitle@CSubGraphTitleTool@@AAE_NPAVCDC@@PAVCMainBlock@@ABVCPoint@@AAPAVCSubGraph@@@Z
_TEXT	SEGMENT
$T1 = -40						; size = 16
_this$GSCopy$1$ = -24					; size = 4
_subGraphtitleRegion$ = -20				; size = 16
__$ArrayPad$ = -4					; size = 4
_pDC$ = 8						; size = 4
_pMainBlock$ = 12					; size = 4
_point$ = 16						; size = 4
_pSubGraph$ = 20					; size = 4
?FindSubGraphTitle@CSubGraphTitleTool@@AAE_NPAVCDC@@PAVCMainBlock@@ABVCPoint@@AAPAVCSubGraph@@@Z PROC ; CSubGraphTitleTool::FindSubGraphTitle, COMDAT
; _this$ = ecx

; 652  : {

  00000	55		 push	 ebp
  00001	8b ec		 mov	 ebp, esp
  00003	83 ec 28	 sub	 esp, 40			; 00000028H
  00006	a1 00 00 00 00	 mov	 eax, DWORD PTR ___security_cookie
  0000b	33 c5		 xor	 eax, ebp
  0000d	89 45 fc	 mov	 DWORD PTR __$ArrayPad$[ebp], eax
  00010	8b 55 08	 mov	 edx, DWORD PTR _pDC$[ebp]
  00013	53		 push	 ebx
  00014	8b 5d 10	 mov	 ebx, DWORD PTR _point$[ebp]
  00017	56		 push	 esi
  00018	8b 75 14	 mov	 esi, DWORD PTR _pSubGraph$[ebp]
  0001b	89 4d e8	 mov	 DWORD PTR _this$GSCopy$1$[ebp], ecx
  0001e	8b 4d 0c	 mov	 ecx, DWORD PTR _pMainBlock$[ebp]
  00021	57		 push	 edi

; 653  : 	pSubGraph = NULL;

  00022	c7 06 00 00 00
	00		 mov	 DWORD PTR [esi], 0

; 654  : 	if(pMainBlock == NULL)

  00028	85 c9		 test	 ecx, ecx
  0002a	74 30		 je	 SHORT $LN17@FindSubGra

; 658  : 	pSubGraph = pMainBlock->FindSubGraphTitle(pDC, point, subGraphtitleRegion);

  0002c	8b 01		 mov	 eax, DWORD PTR [ecx]
  0002e	8d 7d ec	 lea	 edi, DWORD PTR _subGraphtitleRegion$[ebp]
  00031	57		 push	 edi
  00032	53		 push	 ebx
  00033	0f 57 c0	 xorps	 xmm0, xmm0
  00036	52		 push	 edx
; File C:\Program Files (x86)\Microsoft Visual Studio\2019\Community\VC\Tools\MSVC\14.29.30133\atlmfc\include\atltypes.h

; 540  : 	left = l;

  00037	0f 11 45 ec	 movups	 XMMWORD PTR _subGraphtitleRegion$[ebp], xmm0
; File D:\git\src\IBK\IBK_DRFN\ProjSrc\SrcChartEx\ChartOCX\ChartObject\GraphTool.cpp

; 658  : 	pSubGraph = pMainBlock->FindSubGraphTitle(pDC, point, subGraphtitleRegion);

  0003b	ff 90 9c 02 00
	00		 call	 DWORD PTR [eax+668]
  00041	8b 7d e8	 mov	 edi, DWORD PTR _this$GSCopy$1$[ebp]
  00044	89 06		 mov	 DWORD PTR [esi], eax
  00046	8d 4f 2c	 lea	 ecx, DWORD PTR [edi+44]

; 659  : 	if(pSubGraph == NULL){

  00049	85 c0		 test	 eax, eax
  0004b	75 24		 jne	 SHORT $LN3@FindSubGra
; File C:\Program Files (x86)\Microsoft Visual Studio\2019\Community\VC\Tools\MSVC\14.29.30133\atlmfc\include\atltypes.h

; 669  : 	::SetRectEmpty(this);

  0004d	8b 35 00 00 00
	00		 mov	 esi, DWORD PTR __imp__SetRectEmpty@4
  00053	51		 push	 ecx
  00054	ff d6		 call	 esi
; File D:\git\src\IBK\IBK_DRFN\ProjSrc\SrcChartEx\ChartOCX\ChartObject\GraphTool.cpp

; 724  : 	m_oldSelectedSubGraphTitleRegion.SetRectEmpty();

  00056	8d 47 3c	 lea	 eax, DWORD PTR [edi+60]
; File C:\Program Files (x86)\Microsoft Visual Studio\2019\Community\VC\Tools\MSVC\14.29.30133\atlmfc\include\atltypes.h

; 669  : 	::SetRectEmpty(this);

  00059	50		 push	 eax
  0005a	ff d6		 call	 esi
$LN17@FindSubGra:
  0005c	5f		 pop	 edi
; File D:\git\src\IBK\IBK_DRFN\ProjSrc\SrcChartEx\ChartOCX\ChartObject\GraphTool.cpp

; 666  : }

  0005d	5e		 pop	 esi
  0005e	32 c0		 xor	 al, al
  00060	5b		 pop	 ebx
  00061	8b 4d fc	 mov	 ecx, DWORD PTR __$ArrayPad$[ebp]
  00064	33 cd		 xor	 ecx, ebp
  00066	e8 00 00 00 00	 call	 @__security_check_cookie@4
  0006b	8b e5		 mov	 esp, ebp
  0006d	5d		 pop	 ebp
  0006e	c2 10 00	 ret	 16			; 00000010H
$LN3@FindSubGra:

; 717  : 	return CRect(subGraphTitleRegion.left -2, subGraphTitleRegion.top -2, 

  00071	8b 45 ec	 mov	 eax, DWORD PTR _subGraphtitleRegion$[ebp]
  00074	83 c0 fe	 add	 eax, -2			; fffffffeH
; File C:\Program Files (x86)\Microsoft Visual Studio\2019\Community\VC\Tools\MSVC\14.29.30133\atlmfc\include\atltypes.h

; 540  : 	left = l;

  00077	89 45 d8	 mov	 DWORD PTR $T1[ebp], eax
; File D:\git\src\IBK\IBK_DRFN\ProjSrc\SrcChartEx\ChartOCX\ChartObject\GraphTool.cpp

; 717  : 	return CRect(subGraphTitleRegion.left -2, subGraphTitleRegion.top -2, 

  0007a	8b 45 f0	 mov	 eax, DWORD PTR _subGraphtitleRegion$[ebp+4]
  0007d	83 c0 fe	 add	 eax, -2			; fffffffeH
; File C:\Program Files (x86)\Microsoft Visual Studio\2019\Community\VC\Tools\MSVC\14.29.30133\atlmfc\include\atltypes.h

; 541  : 	top = t;

  00080	89 45 dc	 mov	 DWORD PTR $T1[ebp+4], eax
; File D:\git\src\IBK\IBK_DRFN\ProjSrc\SrcChartEx\ChartOCX\ChartObject\GraphTool.cpp

; 717  : 	return CRect(subGraphTitleRegion.left -2, subGraphTitleRegion.top -2, 

  00083	8b 45 f4	 mov	 eax, DWORD PTR _subGraphtitleRegion$[ebp+8]
  00086	83 c0 02	 add	 eax, 2
; File C:\Program Files (x86)\Microsoft Visual Studio\2019\Community\VC\Tools\MSVC\14.29.30133\atlmfc\include\atltypes.h

; 542  : 	right = r;

  00089	89 45 e0	 mov	 DWORD PTR $T1[ebp+8], eax
; File D:\git\src\IBK\IBK_DRFN\ProjSrc\SrcChartEx\ChartOCX\ChartObject\GraphTool.cpp

; 717  : 	return CRect(subGraphTitleRegion.left -2, subGraphTitleRegion.top -2, 

  0008c	8b 45 f8	 mov	 eax, DWORD PTR _subGraphtitleRegion$[ebp+12]
  0008f	40		 inc	 eax
; File C:\Program Files (x86)\Microsoft Visual Studio\2019\Community\VC\Tools\MSVC\14.29.30133\atlmfc\include\atltypes.h

; 543  : 	bottom = b;

  00090	89 45 e4	 mov	 DWORD PTR $T1[ebp+12], eax
; File D:\git\src\IBK\IBK_DRFN\ProjSrc\SrcChartEx\ChartOCX\ChartObject\GraphTool.cpp

; 665  : 	return true;

  00093	b0 01		 mov	 al, 1
  00095	0f 10 45 d8	 movups	 xmm0, XMMWORD PTR $T1[ebp]
  00099	5f		 pop	 edi

; 666  : }

  0009a	5e		 pop	 esi
  0009b	0f 11 01	 movups	 XMMWORD PTR [ecx], xmm0
  0009e	8b 4d fc	 mov	 ecx, DWORD PTR __$ArrayPad$[ebp]
  000a1	33 cd		 xor	 ecx, ebp
  000a3	5b		 pop	 ebx
  000a4	e8 00 00 00 00	 call	 @__security_check_cookie@4
  000a9	8b e5		 mov	 esp, ebp
  000ab	5d		 pop	 ebp
  000ac	c2 10 00	 ret	 16			; 00000010H
?FindSubGraphTitle@CSubGraphTitleTool@@AAE_NPAVCDC@@PAVCMainBlock@@ABVCPoint@@AAPAVCSubGraph@@@Z ENDP ; CSubGraphTitleTool::FindSubGraphTitle
_TEXT	ENDS
; Function compile flags: /Ogtp
; File D:\git\src\IBK\IBK_DRFN\ProjSrc\SrcChartEx\ChartOCX\ChartObject\GraphTool.cpp
;	COMDAT ?GraphMoving_Ended@CSubGraphTitleTool@@MAEX_N@Z
_TEXT	SEGMENT
_bGraphMovingResult$ = 8				; size = 1
?GraphMoving_Ended@CSubGraphTitleTool@@MAEX_N@Z PROC	; CSubGraphTitleTool::GraphMoving_Ended, COMDAT
; _this$ = ecx

; 639  : {

  00000	55		 push	 ebp
  00001	8b ec		 mov	 ebp, esp
  00003	56		 push	 esi

; 640  : 	CBaseTool::SetProcessEnded(bGraphMovingResult);

  00004	ff 75 08	 push	 DWORD PTR _bGraphMovingResult$[ebp]
  00007	8b f1		 mov	 esi, ecx
  00009	e8 00 00 00 00	 call	 ?SetProcessEnded@CBaseTool@@IAEX_N@Z ; CBaseTool::SetProcessEnded

; 641  : 	if(bGraphMovingResult)

  0000e	80 7d 08 00	 cmp	 BYTE PTR _bGraphMovingResult$[ebp], 0
  00012	75 40		 jne	 SHORT $LN9@GraphMovin

; 642  : 		return;
; 643  : 
; 644  : 	CBaseTool::InvalidateRect(m_oldSelectedSubGraphTitleRegion);

  00014	6a 01		 push	 1
  00016	8d 46 3c	 lea	 eax, DWORD PTR [esi+60]
  00019	8b ce		 mov	 ecx, esi
  0001b	50		 push	 eax
  0001c	e8 00 00 00 00	 call	 ?InvalidateRect@CBaseTool@@IAEXABVCRect@@_N@Z ; CBaseTool::InvalidateRect

; 711  : 	return m_selectedSubGraphData.GetSubGraph();

  00021	8d 4e 24	 lea	 ecx, DWORD PTR [esi+36]
  00024	e8 00 00 00 00	 call	 ?GetSubGraph@CSelectedSubGraphData@@QBEPAVCSubGraph@@XZ ; CSelectedSubGraphData::GetSubGraph

; 672  : 	if(pSubGraph == NULL)

  00029	85 c0		 test	 eax, eax
  0002b	74 27		 je	 SHORT $LN9@GraphMovin

; 673  : 		return;
; 674  : 
; 675  : 	CGraphTool::ChangeAllVertScaleGridType(pSubGraph->GetGraph()->GetVertScaleGroup());

  0002d	8b c8		 mov	 ecx, eax
  0002f	e8 00 00 00 00	 call	 ?GetGraph@CSubGraph@@QBEPAVCGraphImp@@XZ ; CSubGraph::GetGraph
  00034	8b c8		 mov	 ecx, eax
  00036	e8 00 00 00 00	 call	 ?GetVertScaleGroup@CGraphImp@@QBEPAVCVertScaleGroup@@XZ ; CGraphImp::GetVertScaleGroup
  0003b	8b f0		 mov	 esi, eax

; 222  : 	if( pVertScaleGroup == NULL) return;

  0003d	85 f6		 test	 esi, esi
  0003f	74 13		 je	 SHORT $LN9@GraphMovin

; 223  : 
; 224  : 	CVertScaleGroupList *pVertScaleGroupList = pVertScaleGroup->GetVertScaleGroupList();

  00041	8b ce		 mov	 ecx, esi
  00043	e8 00 00 00 00	 call	 ?GetVertScaleGroupList@CVertScaleGroup@@QBEPAVCVertScaleGroupList@@XZ ; CVertScaleGroup::GetVertScaleGroupList

; 225  : 	if( !pVertScaleGroupList) return;

  00048	85 c0		 test	 eax, eax
  0004a	74 08		 je	 SHORT $LN9@GraphMovin

; 226  : 	pVertScaleGroupList->SetActivate( pVertScaleGroup);

  0004c	56		 push	 esi
  0004d	8b c8		 mov	 ecx, eax
  0004f	e8 00 00 00 00	 call	 ?SetActivate@CVertScaleGroupList@@QAEXPAVCVertScaleGroup@@@Z ; CVertScaleGroupList::SetActivate
$LN9@GraphMovin:
  00054	5e		 pop	 esi

; 645  : 	ChangeAllVertScaleGridType();
; 646  : }

  00055	5d		 pop	 ebp
  00056	c2 04 00	 ret	 4
?GraphMoving_Ended@CSubGraphTitleTool@@MAEX_N@Z ENDP	; CSubGraphTitleTool::GraphMoving_Ended
_TEXT	ENDS
; Function compile flags: /Ogtp
; File D:\git\src\IBK\IBK_DRFN\ProjSrc\SrcChartEx\ChartOCX\ChartObject\GraphTool.cpp
;	COMDAT ?GetGraphMoving@CSubGraphTitleTool@@MAEPAVCGraphImp@@XZ
_TEXT	SEGMENT
?GetGraphMoving@CSubGraphTitleTool@@MAEPAVCGraphImp@@XZ PROC ; CSubGraphTitleTool::GetGraphMoving, COMDAT
; _this$ = ecx

; 711  : 	return m_selectedSubGraphData.GetSubGraph();

  00000	83 c1 24	 add	 ecx, 36			; 00000024H
  00003	e8 00 00 00 00	 call	 ?GetSubGraph@CSelectedSubGraphData@@QBEPAVCSubGraph@@XZ ; CSelectedSubGraphData::GetSubGraph

; 163  : 	if(pSubGraph == NULL)

  00008	85 c0		 test	 eax, eax
  0000a	75 01		 jne	 SHORT $LN6@GetGraphMo

; 635  : 	return CGraphTool::GetGraph(GetSubGraph());
; 636  : }

  0000c	c3		 ret	 0
$LN6@GetGraphMo:

; 165  : 	return pSubGraph->GetSubGraphList()->GetGraph();

  0000d	8b c8		 mov	 ecx, eax
  0000f	e8 00 00 00 00	 call	 ?GetSubGraphList@CSubGraph@@QBEPAVCSubGraphList@@XZ ; CSubGraph::GetSubGraphList
  00014	8b c8		 mov	 ecx, eax
  00016	e9 00 00 00 00	 jmp	 ?GetGraph@CSubGraphList@@QBEPAVCGraphImp@@XZ ; CSubGraphList::GetGraph
?GetGraphMoving@CSubGraphTitleTool@@MAEPAVCGraphImp@@XZ ENDP ; CSubGraphTitleTool::GetGraphMoving
_TEXT	ENDS
; Function compile flags: /Ogtp
; File D:\git\src\IBK\IBK_DRFN\ProjSrc\SrcChartEx\ChartOCX\ChartObject\GraphTool.cpp
;	COMDAT ?IsSendMessage_SubGraph@CSubGraphTitleTool@@MBE_NXZ
_TEXT	SEGMENT
$T2 = -16						; size = 4
__$EHRec$ = -12						; size = 12
?IsSendMessage_SubGraph@CSubGraphTitleTool@@MBE_NXZ PROC ; CSubGraphTitleTool::IsSendMessage_SubGraph, COMDAT
; _this$ = ecx

; 629  : {

  00000	55		 push	 ebp
  00001	8b ec		 mov	 ebp, esp
  00003	6a ff		 push	 -1
  00005	68 00 00 00 00	 push	 __ehhandler$?IsSendMessage_SubGraph@CSubGraphTitleTool@@MBE_NXZ
  0000a	64 a1 00 00 00
	00		 mov	 eax, DWORD PTR fs:0
  00010	50		 push	 eax
  00011	51		 push	 ecx
  00012	53		 push	 ebx
  00013	56		 push	 esi
  00014	a1 00 00 00 00	 mov	 eax, DWORD PTR ___security_cookie
  00019	33 c5		 xor	 eax, ebp
  0001b	50		 push	 eax
  0001c	8d 45 f4	 lea	 eax, DWORD PTR __$EHRec$[ebp]
  0001f	64 a3 00 00 00
	00		 mov	 DWORD PTR fs:0, eax
  00025	8b f1		 mov	 esi, ecx

; 630  : 	return m_selectedSubGraphData.AreExistenceSubGraph( _MTEXT( C3_PRESPAN));

  00027	a1 54 00 00 00	 mov	 eax, DWORD PTR ?g_iMetaTable@@3VIMetaTable@@A+84
  0002c	8d 4d f0	 lea	 ecx, DWORD PTR $T2[ebp]
  0002f	ff b0 c0 04 00
	00		 push	 DWORD PTR [eax+1216]
  00035	ff 15 00 00 00
	00		 call	 DWORD PTR __imp_??0?$CStringT@DV?$StrTraitMFC_DLL@DV?$ChTraitsCRT@D@ATL@@@@@ATL@@QAE@PBD@Z
  0003b	8d 45 f0	 lea	 eax, DWORD PTR $T2[ebp]
  0003e	c7 45 fc 00 00
	00 00		 mov	 DWORD PTR __$EHRec$[ebp+8], 0
  00045	50		 push	 eax
  00046	8d 4e 24	 lea	 ecx, DWORD PTR [esi+36]
  00049	e8 00 00 00 00	 call	 ?AreExistenceSubGraph@CSelectedSubGraphData@@QBE_NABV?$CStringT@DV?$StrTraitMFC_DLL@DV?$ChTraitsCRT@D@ATL@@@@@ATL@@@Z ; CSelectedSubGraphData::AreExistenceSubGraph
  0004e	8d 4d f0	 lea	 ecx, DWORD PTR $T2[ebp]
  00051	8a d8		 mov	 bl, al
  00053	ff 15 00 00 00
	00		 call	 DWORD PTR __imp_??1?$CStringT@DV?$StrTraitMFC_DLL@DV?$ChTraitsCRT@D@ATL@@@@@ATL@@QAE@XZ
  00059	8a c3		 mov	 al, bl

; 631  : }

  0005b	8b 4d f4	 mov	 ecx, DWORD PTR __$EHRec$[ebp]
  0005e	64 89 0d 00 00
	00 00		 mov	 DWORD PTR fs:0, ecx
  00065	59		 pop	 ecx
  00066	5e		 pop	 esi
  00067	5b		 pop	 ebx
  00068	8b e5		 mov	 esp, ebp
  0006a	5d		 pop	 ebp
  0006b	c3		 ret	 0
_TEXT	ENDS
;	COMDAT text$x
text$x	SEGMENT
__unwindfunclet$?IsSendMessage_SubGraph@CSubGraphTitleTool@@MBE_NXZ$0:
  00000	8d 4d f0	 lea	 ecx, DWORD PTR $T2[ebp]
  00003	ff 25 00 00 00
	00		 jmp	 DWORD PTR __imp_??1?$CStringT@DV?$StrTraitMFC_DLL@DV?$ChTraitsCRT@D@ATL@@@@@ATL@@QAE@XZ
  00009	cc		 int	 3
  0000a	cc		 int	 3
  0000b	cc		 int	 3
  0000c	cc		 int	 3
  0000d	cc		 int	 3
__ehhandler$?IsSendMessage_SubGraph@CSubGraphTitleTool@@MBE_NXZ:
  0000e	90		 npad	 1
  0000f	90		 npad	 1
  00010	8b 54 24 08	 mov	 edx, DWORD PTR [esp+8]
  00014	8d 42 0c	 lea	 eax, DWORD PTR [edx+12]
  00017	8b 4a f0	 mov	 ecx, DWORD PTR [edx-16]
  0001a	33 c8		 xor	 ecx, eax
  0001c	e8 00 00 00 00	 call	 @__security_check_cookie@4
  00021	b8 00 00 00 00	 mov	 eax, OFFSET __ehfuncinfo$?IsSendMessage_SubGraph@CSubGraphTitleTool@@MBE_NXZ
  00026	e9 00 00 00 00	 jmp	 ___CxxFrameHandler3
text$x	ENDS
?IsSendMessage_SubGraph@CSubGraphTitleTool@@MBE_NXZ ENDP ; CSubGraphTitleTool::IsSendMessage_SubGraph
; Function compile flags: /Ogtp
; File D:\git\src\IBK\IBK_DRFN\ProjSrc\SrcChartEx\ChartOCX\ChartObject\GraphTool.cpp
;	COMDAT ?IsSelectedSubGraph@CSubGraphTitleTool@@MBE_NXZ
_TEXT	SEGMENT
?IsSelectedSubGraph@CSubGraphTitleTool@@MBE_NXZ PROC	; CSubGraphTitleTool::IsSelectedSubGraph, COMDAT
; _this$ = ecx

; 711  : 	return m_selectedSubGraphData.GetSubGraph();

  00000	83 c1 24	 add	 ecx, 36			; 00000024H
  00003	e8 00 00 00 00	 call	 ?GetSubGraph@CSelectedSubGraphData@@QBEPAVCSubGraph@@XZ ; CSelectedSubGraphData::GetSubGraph

; 624  : 	return (GetSubGraph() != NULL);

  00008	85 c0		 test	 eax, eax
  0000a	0f 95 c0	 setne	 al

; 625  : }

  0000d	c3		 ret	 0
?IsSelectedSubGraph@CSubGraphTitleTool@@MBE_NXZ ENDP	; CSubGraphTitleTool::IsSelectedSubGraph
_TEXT	ENDS
; Function compile flags: /Ogtp
; File D:\git\src\IBK\IBK_DRFN\ProjSrc\SrcChartEx\ChartOCX\ChartObject\GraphTool.cpp
;	COMDAT ?GetMenuCheck_SubGraph@CSubGraphTitleTool@@MAE_NPAVCMainBlock@@W4ELEMENTMENU@CMenuType@@I@Z
_TEXT	SEGMENT
_pMainBlock$ = 8					; size = 4
_menuType$ = 12						; size = 4
_wParam$ = 16						; size = 4
?GetMenuCheck_SubGraph@CSubGraphTitleTool@@MAE_NPAVCMainBlock@@W4ELEMENTMENU@CMenuType@@I@Z PROC ; CSubGraphTitleTool::GetMenuCheck_SubGraph, COMDAT
; _this$ = ecx

; 597  : {

  00000	55		 push	 ebp
  00001	8b ec		 mov	 ebp, esp

; 598  : 	switch(menuType)

  00003	8b 45 0c	 mov	 eax, DWORD PTR _menuType$[ebp]
  00006	56		 push	 esi
  00007	8b f1		 mov	 esi, ecx
  00009	83 e8 08	 sub	 eax, 8
  0000c	74 29		 je	 SHORT $LN4@GetMenuChe
  0000e	83 e8 02	 sub	 eax, 2
  00011	74 07		 je	 SHORT $LN5@GetMenuChe

; 605  : 
; 606  : 	default:
; 607  : 		return false;

  00013	32 c0		 xor	 al, al
  00015	5e		 pop	 esi

; 608  : 	}
; 609  : 
; 610  : 	return false;
; 611  : }

  00016	5d		 pop	 ebp
  00017	c2 0c 00	 ret	 12			; 0000000cH
$LN5@GetMenuChe:

; 711  : 	return m_selectedSubGraphData.GetSubGraph();

  0001a	8d 4e 24	 lea	 ecx, DWORD PTR [esi+36]
  0001d	e8 00 00 00 00	 call	 ?GetSubGraph@CSelectedSubGraphData@@QBEPAVCSubGraph@@XZ ; CSelectedSubGraphData::GetSubGraph

; 602  : 
; 603  : 	case CMenuType::MENU_TIME_DIFF:		// 20081007 JS.Kim	 
; 604  : 		return GetMenuCheck_SubGraphSelectTimeDiff(pMainBlock, GetSubGraph(), (CTimeDiffInfo *)wParam);

  00022	ff 75 10	 push	 DWORD PTR _wParam$[ebp]
  00025	8b 16		 mov	 edx, DWORD PTR [esi]
  00027	8b ce		 mov	 ecx, esi
  00029	50		 push	 eax
  0002a	ff 75 08	 push	 DWORD PTR _pMainBlock$[ebp]
  0002d	8b 42 40	 mov	 eax, DWORD PTR [edx+64]
  00030	ff d0		 call	 eax
  00032	5e		 pop	 esi

; 608  : 	}
; 609  : 
; 610  : 	return false;
; 611  : }

  00033	5d		 pop	 ebp
  00034	c2 0c 00	 ret	 12			; 0000000cH
$LN4@GetMenuChe:

; 711  : 	return m_selectedSubGraphData.GetSubGraph();

  00037	8d 4e 24	 lea	 ecx, DWORD PTR [esi+36]
  0003a	e8 00 00 00 00	 call	 ?GetSubGraph@CSelectedSubGraphData@@QBEPAVCSubGraph@@XZ ; CSelectedSubGraphData::GetSubGraph

; 599  : 	{
; 600  : 	case CMenuType::MENU_INVERTSCALE:	//   - ojtaso (20071023)
; 601  : 		return GetMenuCheck_SubGraphInvert(pMainBlock, GetSubGraph());

  0003f	8b 16		 mov	 edx, DWORD PTR [esi]
  00041	8b ce		 mov	 ecx, esi
  00043	50		 push	 eax
  00044	ff 75 08	 push	 DWORD PTR _pMainBlock$[ebp]
  00047	8b 42 38	 mov	 eax, DWORD PTR [edx+56]
  0004a	ff d0		 call	 eax
  0004c	5e		 pop	 esi

; 608  : 	}
; 609  : 
; 610  : 	return false;
; 611  : }

  0004d	5d		 pop	 ebp
  0004e	c2 0c 00	 ret	 12			; 0000000cH
?GetMenuCheck_SubGraph@CSubGraphTitleTool@@MAE_NPAVCMainBlock@@W4ELEMENTMENU@CMenuType@@I@Z ENDP ; CSubGraphTitleTool::GetMenuCheck_SubGraph
_TEXT	ENDS
; Function compile flags: /Ogtp
; File D:\git\src\IBK\IBK_DRFN\ProjSrc\SrcChartEx\ChartOCX\ChartObject\GraphTool.cpp
;	COMDAT ?OnMenu_SubGraph@CSubGraphTitleTool@@MAE_NPAVCMainBlock@@W4ELEMENTMENU@CMenuType@@I@Z
_TEXT	SEGMENT
_pMainBlock$ = 8					; size = 4
_menuType$ = 12						; size = 4
_wParam$ = 16						; size = 4
?OnMenu_SubGraph@CSubGraphTitleTool@@MAE_NPAVCMainBlock@@W4ELEMENTMENU@CMenuType@@I@Z PROC ; CSubGraphTitleTool::OnMenu_SubGraph, COMDAT
; _this$ = ecx

; 576  : {

  00000	55		 push	 ebp
  00001	8b ec		 mov	 ebp, esp
  00003	56		 push	 esi
  00004	8b f1		 mov	 esi, ecx

; 577  : 	switch(menuType){

  00006	8b 4d 0c	 mov	 ecx, DWORD PTR _menuType$[ebp]
  00009	83 f9 0a	 cmp	 ecx, 10			; 0000000aH
  0000c	0f 87 a0 00 00
	00		 ja	 $LN9@OnMenu_Sub
  00012	0f b6 81 00 00
	00 00		 movzx	 eax, BYTE PTR $LN21@OnMenu_Sub[ecx]
  00019	ff 24 85 00 00
	00 00		 jmp	 DWORD PTR $LN22@OnMenu_Sub[eax*4]
$LN4@OnMenu_Sub:

; 578  : 	case CMenuType::MENU_DELETE:	// subGraph 
; 579  : 		return OnMenu_SubGraphHide( wParam ? true : false);

  00020	83 7d 10 00	 cmp	 DWORD PTR _wParam$[ebp], 0

; 731  : 	if(!bIsAction)

  00024	75 07		 jne	 SHORT $LN12@OnMenu_Sub
$LN23@OnMenu_Sub:

; 590  : 	}
; 591  : 
; 592  : 	return false;
; 593  : }

  00026	32 c0		 xor	 al, al
  00028	5e		 pop	 esi
  00029	5d		 pop	 ebp
  0002a	c2 0c 00	 ret	 12			; 0000000cH
$LN12@OnMenu_Sub:

; 734  : 	if(!m_selectedSubGraphData.DeleteOrHideSubGraph())

  0002d	8d 4e 24	 lea	 ecx, DWORD PTR [esi+36]
  00030	e8 00 00 00 00	 call	 ?DeleteOrHideSubGraph@CSelectedSubGraphData@@QAE_NXZ ; CSelectedSubGraphData::DeleteOrHideSubGraph
  00035	84 c0		 test	 al, al
  00037	74 ed		 je	 SHORT $LN23@OnMenu_Sub

; 735  : 		return false;
; 736  : 
; 737  : 	CBaseTool::SetProcessEnded(true);

  00039	6a 01		 push	 1
  0003b	8b ce		 mov	 ecx, esi
  0003d	e8 00 00 00 00	 call	 ?SetProcessEnded@CBaseTool@@IAEX_N@Z ; CBaseTool::SetProcessEnded

; 738  : 	return true;

  00042	b0 01		 mov	 al, 1
  00044	5e		 pop	 esi

; 590  : 	}
; 591  : 
; 592  : 	return false;
; 593  : }

  00045	5d		 pop	 ebp
  00046	c2 0c 00	 ret	 12			; 0000000cH
$LN5@OnMenu_Sub:

; 744  : 	CBaseTool::SetProcessEnded(true);

  00049	6a 01		 push	 1
  0004b	8b ce		 mov	 ecx, esi
  0004d	e8 00 00 00 00	 call	 ?SetProcessEnded@CBaseTool@@IAEX_N@Z ; CBaseTool::SetProcessEnded

; 745  : 
; 746  : 	return CGraphTool::LoadIndicatorConfiguration(pMainBlock, m_selectedSubGraphData.GetSubGraph());

  00052	8d 4e 24	 lea	 ecx, DWORD PTR [esi+36]
  00055	e8 00 00 00 00	 call	 ?GetSubGraph@CSelectedSubGraphData@@QAEAAPAVCSubGraph@@XZ ; CSelectedSubGraphData::GetSubGraph
  0005a	8b ce		 mov	 ecx, esi
  0005c	ff 30		 push	 DWORD PTR [eax]
  0005e	ff 75 08	 push	 DWORD PTR _pMainBlock$[ebp]
  00061	e8 00 00 00 00	 call	 ?LoadIndicatorConfiguration@CGraphTool@@IAE_NPAVCMainBlock@@PAVCSubGraph@@@Z ; CGraphTool::LoadIndicatorConfiguration
  00066	5e		 pop	 esi

; 590  : 	}
; 591  : 
; 592  : 	return false;
; 593  : }

  00067	5d		 pop	 ebp
  00068	c2 0c 00	 ret	 12			; 0000000cH
$LN6@OnMenu_Sub:

; 711  : 	return m_selectedSubGraphData.GetSubGraph();

  0006b	8d 4e 24	 lea	 ecx, DWORD PTR [esi+36]
  0006e	e8 00 00 00 00	 call	 ?GetSubGraph@CSelectedSubGraphData@@QBEPAVCSubGraph@@XZ ; CSelectedSubGraphData::GetSubGraph

; 580  : 	case CMenuType::MENU_SET:		//  Dlg
; 581  : 		return OnMenu_SubGraphSet(pMainBlock);
; 582  : 	case CMenuType::MENU_INVERTSCALE:	//   - ojtaso (20071023)
; 583  : 		return OnMenu_SubGraphInvert(pMainBlock, GetSubGraph());

  00073	8b 16		 mov	 edx, DWORD PTR [esi]
  00075	8b ce		 mov	 ecx, esi
  00077	50		 push	 eax
  00078	ff 75 08	 push	 DWORD PTR _pMainBlock$[ebp]
  0007b	8b 42 30	 mov	 eax, DWORD PTR [edx+48]
  0007e	ff d0		 call	 eax
  00080	5e		 pop	 esi

; 590  : 	}
; 591  : 
; 592  : 	return false;
; 593  : }

  00081	5d		 pop	 ebp
  00082	c2 0c 00	 ret	 12			; 0000000cH
$LN7@OnMenu_Sub:

; 584  : 	case CMenuType::MENU_DATAINDEX: // data index 
; 585  : 		return CGraphTool::OnMenu_DataIndex(m_selectedSubGraphData);

  00085	8d 46 24	 lea	 eax, DWORD PTR [esi+36]
  00088	8b ce		 mov	 ecx, esi
  0008a	50		 push	 eax
  0008b	e8 00 00 00 00	 call	 ?OnMenu_DataIndex@CGraphTool@@IAE_NABVCSelectedSubGraphData@@@Z ; CGraphTool::OnMenu_DataIndex
  00090	5e		 pop	 esi

; 590  : 	}
; 591  : 
; 592  : 	return false;
; 593  : }

  00091	5d		 pop	 ebp
  00092	c2 0c 00	 ret	 12			; 0000000cH
$LN8@OnMenu_Sub:

; 711  : 	return m_selectedSubGraphData.GetSubGraph();

  00095	8d 4e 24	 lea	 ecx, DWORD PTR [esi+36]
  00098	e8 00 00 00 00	 call	 ?GetSubGraph@CSelectedSubGraphData@@QBEPAVCSubGraph@@XZ ; CSelectedSubGraphData::GetSubGraph

; 586  : 	case CMenuType::MENU_TIME_DIFF:		// 20081007 JS.Kim	 
; 587  : 		return OnMenu_SubGraphSelectTimeDiff(pMainBlock, GetSubGraph(), (CTimeDiffInfo *)wParam);

  0009d	ff 75 10	 push	 DWORD PTR _wParam$[ebp]
  000a0	8b 16		 mov	 edx, DWORD PTR [esi]
  000a2	8b ce		 mov	 ecx, esi
  000a4	50		 push	 eax
  000a5	ff 75 08	 push	 DWORD PTR _pMainBlock$[ebp]
  000a8	8b 42 3c	 mov	 eax, DWORD PTR [edx+60]
  000ab	ff d0		 call	 eax
  000ad	5e		 pop	 esi

; 590  : 	}
; 591  : 
; 592  : 	return false;
; 593  : }

  000ae	5d		 pop	 ebp
  000af	c2 0c 00	 ret	 12			; 0000000cH
$LN9@OnMenu_Sub:

; 588  : 	default:
; 589  : 		return m_selectedSubGraphData.OnMenu(menuType, wParam);

  000b2	ff 75 10	 push	 DWORD PTR _wParam$[ebp]
  000b5	51		 push	 ecx
  000b6	8d 4e 24	 lea	 ecx, DWORD PTR [esi+36]
  000b9	e8 00 00 00 00	 call	 ?OnMenu@CSelectedSubGraphData@@QAE_NW4ELEMENTMENU@CMenuType@@I@Z ; CSelectedSubGraphData::OnMenu
  000be	5e		 pop	 esi

; 590  : 	}
; 591  : 
; 592  : 	return false;
; 593  : }

  000bf	5d		 pop	 ebp
  000c0	c2 0c 00	 ret	 12			; 0000000cH
  000c3	90		 npad	 1
$LN22@OnMenu_Sub:
  000c4	00 00 00 00	 DD	 $LN4@OnMenu_Sub
  000c8	00 00 00 00	 DD	 $LN5@OnMenu_Sub
  000cc	00 00 00 00	 DD	 $LN7@OnMenu_Sub
  000d0	00 00 00 00	 DD	 $LN6@OnMenu_Sub
  000d4	00 00 00 00	 DD	 $LN8@OnMenu_Sub
  000d8	00 00 00 00	 DD	 $LN9@OnMenu_Sub
$LN21@OnMenu_Sub:
  000dc	00		 DB	 0
  000dd	01		 DB	 1
  000de	05		 DB	 5
  000df	05		 DB	 5
  000e0	05		 DB	 5
  000e1	05		 DB	 5
  000e2	02		 DB	 2
  000e3	05		 DB	 5
  000e4	03		 DB	 3
  000e5	05		 DB	 5
  000e6	04		 DB	 4
?OnMenu_SubGraph@CSubGraphTitleTool@@MAE_NPAVCMainBlock@@W4ELEMENTMENU@CMenuType@@I@Z ENDP ; CSubGraphTitleTool::OnMenu_SubGraph
_TEXT	ENDS
; Function compile flags: /Ogtp
; File D:\git\src\IBK\IBK_DRFN\ProjSrc\SrcChartEx\ChartOCX\ChartObject\GraphTool.cpp
; File C:\Program Files (x86)\Microsoft Visual Studio\2019\Community\VC\Tools\MSVC\14.29.30133\atlmfc\include\atltypes.h
; File D:\git\src\IBK\IBK_DRFN\ProjSrc\SrcChartEx\ChartOCX\ChartObject\GraphTool.cpp
; File C:\Program Files (x86)\Microsoft Visual Studio\2019\Community\VC\Tools\MSVC\14.29.30133\atlmfc\include\atltypes.h
; File D:\git\src\IBK\IBK_DRFN\ProjSrc\SrcChartEx\ChartOCX\ChartObject\GraphTool.cpp
;	COMDAT ?OnMouseMove@CSubGraphTitleTool@@MAEXPAVCDC@@PAVCMainBlock@@@Z
_TEXT	SEGMENT
_pDC$ = 8						; size = 4
___formal$ = 12						; size = 4
?OnMouseMove@CSubGraphTitleTool@@MAEXPAVCDC@@PAVCMainBlock@@@Z PROC ; CSubGraphTitleTool::OnMouseMove, COMDAT
; _this$ = ecx

; 565  : {

  00000	55		 push	 ebp
  00001	8b ec		 mov	 ebp, esp
  00003	53		 push	 ebx
  00004	56		 push	 esi
  00005	8b f1		 mov	 esi, ecx
  00007	57		 push	 edi

; 566  : 	if(m_oldSelectedSubGraphTitleRegion == m_selectedSubGraphTitleRegion)

  00008	8d 5e 2c	 lea	 ebx, DWORD PTR [esi+44]
; File C:\Program Files (x86)\Microsoft Visual Studio\2019\Community\VC\Tools\MSVC\14.29.30133\atlmfc\include\atltypes.h

; 770  : 	return ::EqualRect(this, &rect);

  0000b	53		 push	 ebx
; File D:\git\src\IBK\IBK_DRFN\ProjSrc\SrcChartEx\ChartOCX\ChartObject\GraphTool.cpp

; 566  : 	if(m_oldSelectedSubGraphTitleRegion == m_selectedSubGraphTitleRegion)

  0000c	8d 7e 3c	 lea	 edi, DWORD PTR [esi+60]
; File C:\Program Files (x86)\Microsoft Visual Studio\2019\Community\VC\Tools\MSVC\14.29.30133\atlmfc\include\atltypes.h

; 770  : 	return ::EqualRect(this, &rect);

  0000f	57		 push	 edi
  00010	ff 15 00 00 00
	00		 call	 DWORD PTR __imp__EqualRect@8
; File D:\git\src\IBK\IBK_DRFN\ProjSrc\SrcChartEx\ChartOCX\ChartObject\GraphTool.cpp

; 566  : 	if(m_oldSelectedSubGraphTitleRegion == m_selectedSubGraphTitleRegion)

  00016	85 c0		 test	 eax, eax
  00018	75 1a		 jne	 SHORT $LN1@OnMouseMov

; 567  : 		return;
; 568  : 
; 569  : 	CBaseTool::InvalidateRect(m_oldSelectedSubGraphTitleRegion);

  0001a	6a 01		 push	 1
  0001c	57		 push	 edi
  0001d	8b ce		 mov	 ecx, esi
  0001f	e8 00 00 00 00	 call	 ?InvalidateRect@CBaseTool@@IAEXABVCRect@@_N@Z ; CBaseTool::InvalidateRect

; 570  : 	DrawSelectedSubGraphTitle(pDC);

  00024	ff 75 08	 push	 DWORD PTR _pDC$[ebp]
  00027	8b ce		 mov	 ecx, esi
  00029	e8 00 00 00 00	 call	 ?DrawSelectedSubGraphTitle@CSubGraphTitleTool@@AAEXPAVCDC@@@Z ; CSubGraphTitleTool::DrawSelectedSubGraphTitle

; 571  : 
; 572  : 	m_oldSelectedSubGraphTitleRegion = m_selectedSubGraphTitleRegion;

  0002e	0f 10 03	 movups	 xmm0, XMMWORD PTR [ebx]
  00031	0f 11 07	 movups	 XMMWORD PTR [edi], xmm0
$LN1@OnMouseMov:

; 573  : }

  00034	5f		 pop	 edi
  00035	5e		 pop	 esi
  00036	5b		 pop	 ebx
  00037	5d		 pop	 ebp
  00038	c2 08 00	 ret	 8
?OnMouseMove@CSubGraphTitleTool@@MAEXPAVCDC@@PAVCMainBlock@@@Z ENDP ; CSubGraphTitleTool::OnMouseMove
_TEXT	ENDS
; Function compile flags: /Ogtp
; File D:\git\src\IBK\IBK_DRFN\ProjSrc\SrcChartEx\ChartOCX\ChartObject\GraphTool.cpp
;	COMDAT ?OnLButtonUp@CSubGraphTitleTool@@MAE_NXZ
_TEXT	SEGMENT
$T1 = -8						; size = 4
_pSubGraph$1$ = -4					; size = 4
?OnLButtonUp@CSubGraphTitleTool@@MAE_NXZ PROC		; CSubGraphTitleTool::OnLButtonUp, COMDAT
; _this$ = ecx

; 555  : {

  00000	55		 push	 ebp
  00001	8b ec		 mov	 ebp, esp
  00003	83 ec 08	 sub	 esp, 8
  00006	53		 push	 ebx
  00007	8b d9		 mov	 ebx, ecx

; 711  : 	return m_selectedSubGraphData.GetSubGraph();

  00009	8d 4b 24	 lea	 ecx, DWORD PTR [ebx+36]
  0000c	e8 00 00 00 00	 call	 ?GetSubGraph@CSelectedSubGraphData@@QBEPAVCSubGraph@@XZ ; CSelectedSubGraphData::GetSubGraph

; 556  : 	CGraphTool::SendMessage_GraphType(GetSubGraph());

  00011	89 45 fc	 mov	 DWORD PTR _pSubGraph$1$[ebp], eax

; 233  : 	if(pSubGraph == NULL || CBaseTool::GetIChartCtrl() == NULL)

  00014	85 c0		 test	 eax, eax
  00016	74 75		 je	 SHORT $LN8@OnLButtonU
  00018	8b cb		 mov	 ecx, ebx
  0001a	e8 00 00 00 00	 call	 ?GetIChartCtrl@CBaseTool@@QBEPAUIChartCtrl@@XZ ; CBaseTool::GetIChartCtrl
  0001f	85 c0		 test	 eax, eax
  00021	74 6a		 je	 SHORT $LN8@OnLButtonU

; 234  : 		return;
; 235  : 
; 236  : 	//CBaseTool::GetParent()->SendMessage(UM_GRAPH_THICKNESS, pSubGraph->GetSubGraphData().GetPenThickness().GetDrawingThickness1());
; 237  : 	//CBaseTool::GetParent()->SendMessage(UM_GRAPH_TYPE_STYLE, (int)pSubGraph->GetSubGraphData().GetType(), pSubGraph->GetSubGraphData().GetDrawStyle().GetDrawStyle());
; 238  : 	CBaseTool::GetIChartCtrl()->SetGraphThickness(pSubGraph->GetSubGraphData().GetPenThickness().GetDrawingThickness1());

  00023	56		 push	 esi
  00024	57		 push	 edi
  00025	8b cb		 mov	 ecx, ebx
  00027	e8 00 00 00 00	 call	 ?GetIChartCtrl@CBaseTool@@QBEPAUIChartCtrl@@XZ ; CBaseTool::GetIChartCtrl
  0002c	8b 4d fc	 mov	 ecx, DWORD PTR _pSubGraph$1$[ebp]
  0002f	8b f0		 mov	 esi, eax
  00031	8b 3e		 mov	 edi, DWORD PTR [esi]
  00033	e8 00 00 00 00	 call	 ?GetSubGraphData@CSubGraph@@QAEAAVCSubGraphData@@XZ ; CSubGraph::GetSubGraphData
  00038	8b c8		 mov	 ecx, eax
  0003a	ff 15 00 00 00
	00		 call	 DWORD PTR __imp_?GetPenThickness@CSubGraphDataBase@@QAEAAVCPenThickness@@XZ
  00040	8b c8		 mov	 ecx, eax
  00042	ff 15 00 00 00
	00		 call	 DWORD PTR __imp_?GetDrawingThickness1@CPenThickness@@QBEHXZ
  00048	50		 push	 eax
  00049	8b ce		 mov	 ecx, esi
  0004b	ff 97 8c 07 00
	00		 call	 DWORD PTR [edi+1932]

; 239  : 	CBaseTool::GetIChartCtrl()->SetGraphTypeStyle(pSubGraph->GetSubGraphData().GetType(), pSubGraph->GetSubGraphData().GetDrawStyle().GetDrawStyle());

  00051	8b cb		 mov	 ecx, ebx
  00053	e8 00 00 00 00	 call	 ?GetIChartCtrl@CBaseTool@@QBEPAUIChartCtrl@@XZ ; CBaseTool::GetIChartCtrl
  00058	8b 4d fc	 mov	 ecx, DWORD PTR _pSubGraph$1$[ebp]
  0005b	8b f0		 mov	 esi, eax
  0005d	8d 45 f8	 lea	 eax, DWORD PTR $T1[ebp]
  00060	50		 push	 eax
  00061	8b 3e		 mov	 edi, DWORD PTR [esi]
  00063	e8 00 00 00 00	 call	 ?GetSubGraphData@CSubGraph@@QAEAAVCSubGraphData@@XZ ; CSubGraph::GetSubGraphData
  00068	8b c8		 mov	 ecx, eax
  0006a	ff 15 00 00 00
	00		 call	 DWORD PTR __imp_?GetDrawStyle@CSubGraphDataBase@@QBE?AVCGraphDrawStyle@@XZ
  00070	8b 4d fc	 mov	 ecx, DWORD PTR _pSubGraph$1$[ebp]
  00073	ff 30		 push	 DWORD PTR [eax]
  00075	e8 00 00 00 00	 call	 ?GetSubGraphData@CSubGraph@@QAEAAVCSubGraphData@@XZ ; CSubGraph::GetSubGraphData
  0007a	8b c8		 mov	 ecx, eax
  0007c	ff 15 00 00 00
	00		 call	 DWORD PTR __imp_?GetType@CSubGraphDataBase@@QBE?AW4GRAPHTYPE@CGraphBaseData@@XZ
  00082	50		 push	 eax
  00083	8b ce		 mov	 ecx, esi
  00085	ff 97 90 07 00
	00		 call	 DWORD PTR [edi+1936]
  0008b	5f		 pop	 edi
  0008c	5e		 pop	 esi
$LN8@OnLButtonU:

; 711  : 	return m_selectedSubGraphData.GetSubGraph();

  0008d	8d 4b 24	 lea	 ecx, DWORD PTR [ebx+36]
  00090	e8 00 00 00 00	 call	 ?GetSubGraph@CSelectedSubGraphData@@QBEPAVCSubGraph@@XZ ; CSelectedSubGraphData::GetSubGraph

; 557  : 	if(GetSubGraph() != NULL)

  00095	85 c0		 test	 eax, eax
  00097	74 07		 je	 SHORT $LN2@OnLButtonU

; 558  : 		return true;

  00099	b0 01		 mov	 al, 1
  0009b	5b		 pop	 ebx

; 562  : }

  0009c	8b e5		 mov	 esp, ebp
  0009e	5d		 pop	 ebp
  0009f	c3		 ret	 0
$LN2@OnLButtonU:

; 559  : 
; 560  : 	CBaseTool::SetProcessEnded(true);

  000a0	6a 01		 push	 1
  000a2	8b cb		 mov	 ecx, ebx
  000a4	e8 00 00 00 00	 call	 ?SetProcessEnded@CBaseTool@@IAEX_N@Z ; CBaseTool::SetProcessEnded

; 561  : 	return false;

  000a9	32 c0		 xor	 al, al
  000ab	5b		 pop	 ebx

; 562  : }

  000ac	8b e5		 mov	 esp, ebp
  000ae	5d		 pop	 ebp
  000af	c3		 ret	 0
?OnLButtonUp@CSubGraphTitleTool@@MAE_NXZ ENDP		; CSubGraphTitleTool::OnLButtonUp
_TEXT	ENDS
; Function compile flags: /Ogtp
; File D:\git\src\IBK\IBK_DRFN\ProjSrc\SrcChartEx\ChartOCX\ChartObject\GraphTool.cpp
;	COMDAT ?OnLButtonDown_Real@CSubGraphTitleTool@@MAEXPAVCDC@@PAVCMainBlock@@IABVCPoint@@@Z
_TEXT	SEGMENT
_pDC$ = 8						; size = 4
_pMainBlock$ = 12					; size = 4
___formal$ = 16						; size = 4
_point$ = 20						; size = 4
?OnLButtonDown_Real@CSubGraphTitleTool@@MAEXPAVCDC@@PAVCMainBlock@@IABVCPoint@@@Z PROC ; CSubGraphTitleTool::OnLButtonDown_Real, COMDAT
; _this$ = ecx

; 547  : {

  00000	55		 push	 ebp
  00001	8b ec		 mov	 ebp, esp
  00003	56		 push	 esi
  00004	8b f1		 mov	 esi, ecx
  00006	57		 push	 edi

; 548  : 	if(!FindSubGraphTitle(pDC, pMainBlock, point, m_selectedSubGraphData.GetSubGraph()))

  00007	8d 4e 24	 lea	 ecx, DWORD PTR [esi+36]
  0000a	e8 00 00 00 00	 call	 ?GetSubGraph@CSelectedSubGraphData@@QAEAAPAVCSubGraph@@XZ ; CSelectedSubGraphData::GetSubGraph
  0000f	50		 push	 eax
  00010	ff 75 14	 push	 DWORD PTR _point$[ebp]
  00013	8b ce		 mov	 ecx, esi
  00015	ff 75 0c	 push	 DWORD PTR _pMainBlock$[ebp]
  00018	ff 75 08	 push	 DWORD PTR _pDC$[ebp]
  0001b	e8 00 00 00 00	 call	 ?FindSubGraphTitle@CSubGraphTitleTool@@AAE_NPAVCDC@@PAVCMainBlock@@ABVCPoint@@AAPAVCSubGraph@@@Z ; CSubGraphTitleTool::FindSubGraphTitle
  00020	84 c0		 test	 al, al
  00022	74 20		 je	 SHORT $LN4@OnLButtonD

; 711  : 	return m_selectedSubGraphData.GetSubGraph();

  00024	8d 4e 24	 lea	 ecx, DWORD PTR [esi+36]
  00027	e8 00 00 00 00	 call	 ?GetSubGraph@CSelectedSubGraphData@@QBEPAVCSubGraph@@XZ ; CSelectedSubGraphData::GetSubGraph

; 694  : 	if(GetSubGraph() == NULL)

  0002c	85 c0		 test	 eax, eax
  0002e	74 14		 je	 SHORT $LN4@OnLButtonD

; 711  : 	return m_selectedSubGraphData.GetSubGraph();

  00030	8d 4e 24	 lea	 ecx, DWORD PTR [esi+36]
  00033	e8 00 00 00 00	 call	 ?GetSubGraph@CSelectedSubGraphData@@QBEPAVCSubGraph@@XZ ; CSelectedSubGraphData::GetSubGraph

; 697  : 	return GetSubGraph()->DrawGrip(pDC, -1);

  00038	6a ff		 push	 -1
  0003a	ff 75 08	 push	 DWORD PTR _pDC$[ebp]
  0003d	8b c8		 mov	 ecx, eax
  0003f	e8 00 00 00 00	 call	 ?DrawGrip@CSubGraph@@QAE_NPAVCDC@@H@Z ; CSubGraph::DrawGrip
$LN4@OnLButtonD:
  00044	5f		 pop	 edi

; 549  : 		return;
; 550  : 
; 551  : 	DrawSelectedSubGraphGrip(pDC);
; 552  : }

  00045	5e		 pop	 esi
  00046	5d		 pop	 ebp
  00047	c2 10 00	 ret	 16			; 00000010H
?OnLButtonDown_Real@CSubGraphTitleTool@@MAEXPAVCDC@@PAVCMainBlock@@IABVCPoint@@@Z ENDP ; CSubGraphTitleTool::OnLButtonDown_Real
_TEXT	ENDS
; Function compile flags: /Ogtp
; File D:\git\src\IBK\IBK_DRFN\ProjSrc\SrcChartEx\ChartOCX\ChartObject\GraphTool.cpp
;	COMDAT ?LoadIndicatorConfiguration@CSubGraphTitleTool@@QAE_NPAVCMainBlock@@@Z
_TEXT	SEGMENT
_pMainBlock$ = 8					; size = 4
?LoadIndicatorConfiguration@CSubGraphTitleTool@@QAE_NPAVCMainBlock@@@Z PROC ; CSubGraphTitleTool::LoadIndicatorConfiguration, COMDAT
; _this$ = ecx

; 536  : {

  00000	55		 push	 ebp
  00001	8b ec		 mov	 ebp, esp
  00003	56		 push	 esi
  00004	8b f1		 mov	 esi, ecx

; 711  : 	return m_selectedSubGraphData.GetSubGraph();

  00006	8d 4e 24	 lea	 ecx, DWORD PTR [esi+36]
  00009	e8 00 00 00 00	 call	 ?GetSubGraph@CSelectedSubGraphData@@QBEPAVCSubGraph@@XZ ; CSelectedSubGraphData::GetSubGraph

; 537  : 	if(!CGraphTool::LoadIndicatorConfiguration(pMainBlock, GetSubGraph()))

  0000e	50		 push	 eax
  0000f	ff 75 08	 push	 DWORD PTR _pMainBlock$[ebp]
  00012	8b ce		 mov	 ecx, esi
  00014	e8 00 00 00 00	 call	 ?LoadIndicatorConfiguration@CGraphTool@@IAE_NPAVCMainBlock@@PAVCSubGraph@@@Z ; CGraphTool::LoadIndicatorConfiguration
  00019	84 c0		 test	 al, al
  0001b	75 05		 jne	 SHORT $LN2@LoadIndica
  0001d	5e		 pop	 esi

; 542  : }

  0001e	5d		 pop	 ebp
  0001f	c2 04 00	 ret	 4
$LN2@LoadIndica:

; 538  : 		return false;
; 539  : 
; 540  : 	InitializeAllData();

  00022	8b 06		 mov	 eax, DWORD PTR [esi]
  00024	8b ce		 mov	 ecx, esi
  00026	ff 10		 call	 DWORD PTR [eax]

; 541  : 	return true;

  00028	b0 01		 mov	 al, 1
  0002a	5e		 pop	 esi

; 542  : }

  0002b	5d		 pop	 ebp
  0002c	c2 04 00	 ret	 4
?LoadIndicatorConfiguration@CSubGraphTitleTool@@QAE_NPAVCMainBlock@@@Z ENDP ; CSubGraphTitleTool::LoadIndicatorConfiguration
_TEXT	ENDS
; Function compile flags: /Ogtp
; File D:\git\src\IBK\IBK_DRFN\ProjSrc\SrcChartEx\ChartOCX\ChartObject\GraphTool.cpp
; File C:\Program Files (x86)\Microsoft Visual Studio\2019\Community\VC\Tools\MSVC\14.29.30133\atlmfc\include\atltypes.h
; File D:\git\src\IBK\IBK_DRFN\ProjSrc\SrcChartEx\ChartOCX\ChartObject\GraphTool.cpp
;	COMDAT ?Find@CSubGraphTitleTool@@QAE_NPAVCDC@@PAVCMainBlock@@ABVCPoint@@@Z
_TEXT	SEGMENT
_pDC$ = 8						; size = 4
_pMainBlock$ = 12					; size = 4
_pSubGraph$ = 16					; size = 4
_point$ = 16						; size = 4
?Find@CSubGraphTitleTool@@QAE_NPAVCDC@@PAVCMainBlock@@ABVCPoint@@@Z PROC ; CSubGraphTitleTool::Find, COMDAT
; _this$ = ecx

; 525  : {

  00000	55		 push	 ebp
  00001	8b ec		 mov	 ebp, esp
  00003	56		 push	 esi
  00004	8b f1		 mov	 esi, ecx
  00006	57		 push	 edi

; 711  : 	return m_selectedSubGraphData.GetSubGraph();

  00007	8d 4e 24	 lea	 ecx, DWORD PTR [esi+36]
  0000a	e8 00 00 00 00	 call	 ?GetSubGraph@CSelectedSubGraphData@@QBEPAVCSubGraph@@XZ ; CSelectedSubGraphData::GetSubGraph

; 526  : 	if(GetSubGraph() != NULL || m_selectedSubGraphTitleRegion.PtInRect(point))

  0000f	85 c0		 test	 eax, eax
  00011	75 31		 jne	 SHORT $LN3@Find
  00013	8b 7d 10	 mov	 edi, DWORD PTR _point$[ebp]
  00016	8d 46 2c	 lea	 eax, DWORD PTR [esi+44]
; File C:\Program Files (x86)\Microsoft Visual Studio\2019\Community\VC\Tools\MSVC\14.29.30133\atlmfc\include\atltypes.h

; 648  : 	return ::PtInRect(this, point);

  00019	ff 77 04	 push	 DWORD PTR [edi+4]
  0001c	ff 37		 push	 DWORD PTR [edi]
  0001e	50		 push	 eax
  0001f	ff 15 00 00 00
	00		 call	 DWORD PTR __imp__PtInRect@12
; File D:\git\src\IBK\IBK_DRFN\ProjSrc\SrcChartEx\ChartOCX\ChartObject\GraphTool.cpp

; 526  : 	if(GetSubGraph() != NULL || m_selectedSubGraphTitleRegion.PtInRect(point))

  00025	85 c0		 test	 eax, eax
  00027	75 1b		 jne	 SHORT $LN3@Find

; 528  : 
; 529  : 	CSubGraph* pSubGraph = NULL;

  00029	89 45 10	 mov	 DWORD PTR _pSubGraph$[ebp], eax

; 530  : 	return FindSubGraphTitle(pDC, pMainBlock, point, pSubGraph);

  0002c	8b ce		 mov	 ecx, esi
  0002e	8d 45 10	 lea	 eax, DWORD PTR _pSubGraph$[ebp]
  00031	50		 push	 eax
  00032	57		 push	 edi
  00033	ff 75 0c	 push	 DWORD PTR _pMainBlock$[ebp]
  00036	ff 75 08	 push	 DWORD PTR _pDC$[ebp]
  00039	e8 00 00 00 00	 call	 ?FindSubGraphTitle@CSubGraphTitleTool@@AAE_NPAVCDC@@PAVCMainBlock@@ABVCPoint@@AAPAVCSubGraph@@@Z ; CSubGraphTitleTool::FindSubGraphTitle
  0003e	5f		 pop	 edi

; 531  : }

  0003f	5e		 pop	 esi
  00040	5d		 pop	 ebp
  00041	c2 0c 00	 ret	 12			; 0000000cH
$LN3@Find:
  00044	5f		 pop	 edi

; 527  : 		return true;

  00045	b0 01		 mov	 al, 1

; 531  : }

  00047	5e		 pop	 esi
  00048	5d		 pop	 ebp
  00049	c2 0c 00	 ret	 12			; 0000000cH
?Find@CSubGraphTitleTool@@QAE_NPAVCDC@@PAVCMainBlock@@ABVCPoint@@@Z ENDP ; CSubGraphTitleTool::Find
_TEXT	ENDS
; Function compile flags: /Ogtp
; File D:\git\src\IBK\IBK_DRFN\ProjSrc\SrcChartEx\ChartOCX\ChartObject\GraphTool.cpp
;	COMDAT ?OnDraw@CSubGraphTitleTool@@UAEXPAVCDC@@PAVCMainBlock@@@Z
_TEXT	SEGMENT
_pDC$ = 8						; size = 4
___formal$ = 12						; size = 4
?OnDraw@CSubGraphTitleTool@@UAEXPAVCDC@@PAVCMainBlock@@@Z PROC ; CSubGraphTitleTool::OnDraw, COMDAT
; _this$ = ecx

; 614  : {

  00000	55		 push	 ebp
  00001	8b ec		 mov	 ebp, esp
  00003	53		 push	 ebx
  00004	56		 push	 esi
  00005	8b f1		 mov	 esi, ecx

; 711  : 	return m_selectedSubGraphData.GetSubGraph();

  00007	8d 4e 24	 lea	 ecx, DWORD PTR [esi+36]
  0000a	e8 00 00 00 00	 call	 ?GetSubGraph@CSelectedSubGraphData@@QBEPAVCSubGraph@@XZ ; CSelectedSubGraphData::GetSubGraph

; 694  : 	if(GetSubGraph() == NULL)

  0000f	85 c0		 test	 eax, eax
  00011	74 18		 je	 SHORT $LN11@OnDraw

; 711  : 	return m_selectedSubGraphData.GetSubGraph();

  00013	8d 4e 24	 lea	 ecx, DWORD PTR [esi+36]
  00016	e8 00 00 00 00	 call	 ?GetSubGraph@CSelectedSubGraphData@@QBEPAVCSubGraph@@XZ ; CSelectedSubGraphData::GetSubGraph

; 697  : 	return GetSubGraph()->DrawGrip(pDC, -1);

  0001b	6a ff		 push	 -1
  0001d	ff 75 08	 push	 DWORD PTR _pDC$[ebp]
  00020	8b c8		 mov	 ecx, eax
  00022	e8 00 00 00 00	 call	 ?DrawGrip@CSubGraph@@QAE_NPAVCDC@@H@Z ; CSubGraph::DrawGrip

; 615  : 	if(DrawSelectedSubGraphGrip(pDC))

  00027	84 c0		 test	 al, al
  00029	75 0a		 jne	 SHORT $LN1@OnDraw
$LN11@OnDraw:

; 616  : 		return;
; 617  : 
; 618  : 	DrawSelectedSubGraphTitle(pDC);

  0002b	ff 75 08	 push	 DWORD PTR _pDC$[ebp]
  0002e	8b ce		 mov	 ecx, esi
  00030	e8 00 00 00 00	 call	 ?DrawSelectedSubGraphTitle@CSubGraphTitleTool@@AAEXPAVCDC@@@Z ; CSubGraphTitleTool::DrawSelectedSubGraphTitle
$LN1@OnDraw:

; 619  : }

  00035	5e		 pop	 esi
  00036	5b		 pop	 ebx
  00037	5d		 pop	 ebp
  00038	c2 08 00	 ret	 8
?OnDraw@CSubGraphTitleTool@@UAEXPAVCDC@@PAVCMainBlock@@@Z ENDP ; CSubGraphTitleTool::OnDraw
_TEXT	ENDS
; Function compile flags: /Ogtp
; File D:\git\src\IBK\IBK_DRFN\ProjSrc\SrcChartEx\ChartOCX\ChartObject\GraphTool.cpp
; File C:\Program Files (x86)\Microsoft Visual Studio\2019\Community\VC\Tools\MSVC\14.29.30133\atlmfc\include\atltypes.h
; File D:\git\src\IBK\IBK_DRFN\ProjSrc\SrcChartEx\ChartOCX\ChartObject\GraphTool.cpp
; File C:\Program Files (x86)\Microsoft Visual Studio\2019\Community\VC\Tools\MSVC\14.29.30133\atlmfc\include\atltypes.h
; File D:\git\src\IBK\IBK_DRFN\ProjSrc\SrcChartEx\ChartOCX\ChartObject\GraphTool.cpp
; File C:\Program Files (x86)\Microsoft Visual Studio\2019\Community\VC\Tools\MSVC\14.29.30133\atlmfc\include\atltypes.h
; File D:\git\src\IBK\IBK_DRFN\ProjSrc\SrcChartEx\ChartOCX\ChartObject\GraphTool.cpp
; File C:\Program Files (x86)\Microsoft Visual Studio\2019\Community\VC\Tools\MSVC\14.29.30133\atlmfc\include\atltypes.h
; File D:\git\src\IBK\IBK_DRFN\ProjSrc\SrcChartEx\ChartOCX\ChartObject\GraphTool.cpp
; File C:\Program Files (x86)\Microsoft Visual Studio\2019\Community\VC\Tools\MSVC\14.29.30133\atlmfc\include\atltypes.h
; File D:\git\src\IBK\IBK_DRFN\ProjSrc\SrcChartEx\ChartOCX\ChartObject\GraphTool.cpp
; File C:\Program Files (x86)\Microsoft Visual Studio\2019\Community\VC\Tools\MSVC\14.29.30133\atlmfc\include\atltypes.h
; File D:\git\src\IBK\IBK_DRFN\ProjSrc\SrcChartEx\ChartOCX\ChartObject\GraphTool.cpp
; File C:\Program Files (x86)\Microsoft Visual Studio\2019\Community\VC\Tools\MSVC\14.29.30133\atlmfc\include\atltypes.h
; File D:\git\src\IBK\IBK_DRFN\ProjSrc\SrcChartEx\ChartOCX\ChartObject\GraphTool.cpp
;	COMDAT ?OnRButtonUp@CSubGraphTitleTool@@UAE?AW4MENUTYPE@CMenuType@@PAVCDC@@PAVCMainBlock@@ABVCPoint@@@Z
_TEXT	SEGMENT
$T1 = -56						; size = 16
_pCurrentGraph$1$ = -40					; size = 4
_bResult$2 = -36					; size = 1
$T3 = -36						; size = 4
_pNewGraph$ = -32					; size = 4
_pDC$GSCopy$1$ = -28					; size = 4
_point$GSCopy$1$ = -24					; size = 4
_subGraphtitleRegion$4 = -20				; size = 16
__$ArrayPad$ = -4					; size = 4
_pDC$ = 8						; size = 4
_pMainBlock$ = 12					; size = 4
_point$ = 16						; size = 4
?OnRButtonUp@CSubGraphTitleTool@@UAE?AW4MENUTYPE@CMenuType@@PAVCDC@@PAVCMainBlock@@ABVCPoint@@@Z PROC ; CSubGraphTitleTool::OnRButtonUp, COMDAT
; _this$ = ecx

; 474  : {

  00000	55		 push	 ebp
  00001	8b ec		 mov	 ebp, esp
  00003	83 ec 38	 sub	 esp, 56			; 00000038H
  00006	a1 00 00 00 00	 mov	 eax, DWORD PTR ___security_cookie
  0000b	33 c5		 xor	 eax, ebp
  0000d	89 45 fc	 mov	 DWORD PTR __$ArrayPad$[ebp], eax
  00010	8b 45 08	 mov	 eax, DWORD PTR _pDC$[ebp]
  00013	53		 push	 ebx
  00014	8b 5d 0c	 mov	 ebx, DWORD PTR _pMainBlock$[ebp]
  00017	56		 push	 esi
  00018	57		 push	 edi
  00019	8b f9		 mov	 edi, ecx
  0001b	89 45 e4	 mov	 DWORD PTR _pDC$GSCopy$1$[ebp], eax
  0001e	8b 45 10	 mov	 eax, DWORD PTR _point$[ebp]
  00021	89 45 e8	 mov	 DWORD PTR _point$GSCopy$1$[ebp], eax

; 475  : 	// 0. Get Current and New Graph
; 476  : 	CSubGraph *pCurrentGraph = m_selectedSubGraphData.GetSubGraph();

  00024	8d 4f 24	 lea	 ecx, DWORD PTR [edi+36]
  00027	e8 00 00 00 00	 call	 ?GetSubGraph@CSelectedSubGraphData@@QAEAAPAVCSubGraph@@XZ ; CSelectedSubGraphData::GetSubGraph

; 653  : 	pSubGraph = NULL;

  0002c	33 f6		 xor	 esi, esi
  0002e	89 75 e0	 mov	 DWORD PTR _pNewGraph$[ebp], esi

; 475  : 	// 0. Get Current and New Graph
; 476  : 	CSubGraph *pCurrentGraph = m_selectedSubGraphData.GetSubGraph();

  00031	8b 00		 mov	 eax, DWORD PTR [eax]
  00033	89 45 d8	 mov	 DWORD PTR _pCurrentGraph$1$[ebp], eax

; 654  : 	if(pMainBlock == NULL)

  00036	85 db		 test	 ebx, ebx
  00038	74 39		 je	 SHORT $LN35@OnRButtonU

; 658  : 	pSubGraph = pMainBlock->FindSubGraphTitle(pDC, point, subGraphtitleRegion);

  0003a	8b 03		 mov	 eax, DWORD PTR [ebx]
  0003c	8d 4d ec	 lea	 ecx, DWORD PTR _subGraphtitleRegion$4[ebp]
  0003f	51		 push	 ecx
  00040	ff 75 e8	 push	 DWORD PTR _point$GSCopy$1$[ebp]
  00043	0f 57 c0	 xorps	 xmm0, xmm0
  00046	8b cb		 mov	 ecx, ebx
  00048	ff 75 e4	 push	 DWORD PTR _pDC$GSCopy$1$[ebp]
; File C:\Program Files (x86)\Microsoft Visual Studio\2019\Community\VC\Tools\MSVC\14.29.30133\atlmfc\include\atltypes.h

; 540  : 	left = l;

  0004b	0f 11 45 ec	 movups	 XMMWORD PTR _subGraphtitleRegion$4[ebp], xmm0
; File D:\git\src\IBK\IBK_DRFN\ProjSrc\SrcChartEx\ChartOCX\ChartObject\GraphTool.cpp

; 658  : 	pSubGraph = pMainBlock->FindSubGraphTitle(pDC, point, subGraphtitleRegion);

  0004f	ff 90 9c 02 00
	00		 call	 DWORD PTR [eax+668]
  00055	8b f0		 mov	 esi, eax
  00057	8d 4f 2c	 lea	 ecx, DWORD PTR [edi+44]
  0005a	89 75 e0	 mov	 DWORD PTR _pNewGraph$[ebp], esi

; 659  : 	if(pSubGraph == NULL){

  0005d	85 f6		 test	 esi, esi
  0005f	75 5c		 jne	 SHORT $LN11@OnRButtonU
; File C:\Program Files (x86)\Microsoft Visual Studio\2019\Community\VC\Tools\MSVC\14.29.30133\atlmfc\include\atltypes.h

; 669  : 	::SetRectEmpty(this);

  00061	8b 35 00 00 00
	00		 mov	 esi, DWORD PTR __imp__SetRectEmpty@4
  00067	51		 push	 ecx
  00068	ff d6		 call	 esi
; File D:\git\src\IBK\IBK_DRFN\ProjSrc\SrcChartEx\ChartOCX\ChartObject\GraphTool.cpp

; 724  : 	m_oldSelectedSubGraphTitleRegion.SetRectEmpty();

  0006a	8d 4f 3c	 lea	 ecx, DWORD PTR [edi+60]
; File C:\Program Files (x86)\Microsoft Visual Studio\2019\Community\VC\Tools\MSVC\14.29.30133\atlmfc\include\atltypes.h

; 669  : 	::SetRectEmpty(this);

  0006d	51		 push	 ecx
  0006e	ff d6		 call	 esi
; File D:\git\src\IBK\IBK_DRFN\ProjSrc\SrcChartEx\ChartOCX\ChartObject\GraphTool.cpp

; 661  : 		return false;

  00070	8b 75 e0	 mov	 esi, DWORD PTR _pNewGraph$[ebp]
$LN35@OnRButtonU:

; 477  : 	CSubGraph *pNewGraph = NULL;
; 478  : 	FindSubGraphTitle( pDC, pMainBlock, point, pNewGraph);
; 479  : 
; 480  : 	// 1. Check New Graph
; 481  : 	// (2006/11/1 - Seung-Won, Bae) Auto Release for Design Mode.
; 482  : 	if( pNewGraph || pMainBlock->GetDesignMode())

  00073	8b 03		 mov	 eax, DWORD PTR [ebx]
  00075	8b cb		 mov	 ecx, ebx
  00077	8b 80 7c 01 00
	00		 mov	 eax, DWORD PTR [eax+380]
  0007d	ff d0		 call	 eax
  0007f	84 c0		 test	 al, al
  00081	0f 84 07 01 00
	00		 je	 $LN36@OnRButtonU
$LN3@OnRButtonU:

; 483  : 	{
; 484  : 		// (2006/11/1 - Seung-Won, Bae) Auto Select Grpah Title for RButton Menu.
; 485  : 		OnMouseMove( pDC, pMainBlock);

  00087	8b 07		 mov	 eax, DWORD PTR [edi]
  00089	8b cf		 mov	 ecx, edi
  0008b	53		 push	 ebx
  0008c	ff 75 e4	 push	 DWORD PTR _pDC$GSCopy$1$[ebp]
  0008f	ff 50 2c	 call	 DWORD PTR [eax+44]

; 486  : 
; 487  : 		OnLButtonDown( pDC, pMainBlock, 0, point);

  00092	ff 75 e8	 push	 DWORD PTR _point$GSCopy$1$[ebp]
  00095	8b 07		 mov	 eax, DWORD PTR [edi]
  00097	8b cf		 mov	 ecx, edi
  00099	6a 00		 push	 0
  0009b	53		 push	 ebx
  0009c	ff 75 e4	 push	 DWORD PTR _pDC$GSCopy$1$[ebp]
  0009f	ff 50 08	 call	 DWORD PTR [eax+8]

; 74   : 	bool result = OnLButtonUp();

  000a2	8b 07		 mov	 eax, DWORD PTR [edi]
  000a4	8b cf		 mov	 ecx, edi
  000a6	8b 40 28	 mov	 eax, DWORD PTR [eax+40]
  000a9	ff d0		 call	 eax

; 75   : 	if(result)

  000ab	84 c0		 test	 al, al
  000ad	74 56		 je	 SHORT $LN28@OnRButtonU

; 298  : 	if(!m_bIsGraphMove){

  000af	80 7f 0c 00	 cmp	 BYTE PTR [edi+12], 0
  000b3	8b cf		 mov	 ecx, edi
  000b5	8b 07		 mov	 eax, DWORD PTR [edi]
  000b7	75 2f		 jne	 SHORT $LN29@OnRButtonU

; 299  : 		GraphMoving_Ended(false);

  000b9	6a 00		 push	 0

; 300  : 		return false;

  000bb	eb 45		 jmp	 SHORT $LN38@OnRButtonU
$LN11@OnRButtonU:

; 717  : 	return CRect(subGraphTitleRegion.left -2, subGraphTitleRegion.top -2, 

  000bd	8b 45 ec	 mov	 eax, DWORD PTR _subGraphtitleRegion$4[ebp]
  000c0	83 c0 fe	 add	 eax, -2			; fffffffeH
; File C:\Program Files (x86)\Microsoft Visual Studio\2019\Community\VC\Tools\MSVC\14.29.30133\atlmfc\include\atltypes.h

; 540  : 	left = l;

  000c3	89 45 c8	 mov	 DWORD PTR $T1[ebp], eax
; File D:\git\src\IBK\IBK_DRFN\ProjSrc\SrcChartEx\ChartOCX\ChartObject\GraphTool.cpp

; 717  : 	return CRect(subGraphTitleRegion.left -2, subGraphTitleRegion.top -2, 

  000c6	8b 45 f0	 mov	 eax, DWORD PTR _subGraphtitleRegion$4[ebp+4]
  000c9	83 c0 fe	 add	 eax, -2			; fffffffeH
; File C:\Program Files (x86)\Microsoft Visual Studio\2019\Community\VC\Tools\MSVC\14.29.30133\atlmfc\include\atltypes.h

; 541  : 	top = t;

  000cc	89 45 cc	 mov	 DWORD PTR $T1[ebp+4], eax
; File D:\git\src\IBK\IBK_DRFN\ProjSrc\SrcChartEx\ChartOCX\ChartObject\GraphTool.cpp

; 717  : 	return CRect(subGraphTitleRegion.left -2, subGraphTitleRegion.top -2, 

  000cf	8b 45 f4	 mov	 eax, DWORD PTR _subGraphtitleRegion$4[ebp+8]
  000d2	83 c0 02	 add	 eax, 2
; File C:\Program Files (x86)\Microsoft Visual Studio\2019\Community\VC\Tools\MSVC\14.29.30133\atlmfc\include\atltypes.h

; 542  : 	right = r;

  000d5	89 45 d0	 mov	 DWORD PTR $T1[ebp+8], eax
; File D:\git\src\IBK\IBK_DRFN\ProjSrc\SrcChartEx\ChartOCX\ChartObject\GraphTool.cpp

; 717  : 	return CRect(subGraphTitleRegion.left -2, subGraphTitleRegion.top -2, 

  000d8	8b 45 f8	 mov	 eax, DWORD PTR _subGraphtitleRegion$4[ebp+12]
  000db	40		 inc	 eax
; File C:\Program Files (x86)\Microsoft Visual Studio\2019\Community\VC\Tools\MSVC\14.29.30133\atlmfc\include\atltypes.h

; 543  : 	bottom = b;

  000dc	89 45 d4	 mov	 DWORD PTR $T1[ebp+12], eax
; File D:\git\src\IBK\IBK_DRFN\ProjSrc\SrcChartEx\ChartOCX\ChartObject\GraphTool.cpp

; 664  : 	m_selectedSubGraphTitleRegion = GetSelectedSubGraphTitleRegion(subGraphtitleRegion);

  000df	0f 10 45 c8	 movups	 xmm0, XMMWORD PTR $T1[ebp]
  000e3	0f 11 01	 movups	 XMMWORD PTR [ecx], xmm0

; 477  : 	CSubGraph *pNewGraph = NULL;
; 478  : 	FindSubGraphTitle( pDC, pMainBlock, point, pNewGraph);
; 479  : 
; 480  : 	// 1. Check New Graph
; 481  : 	// (2006/11/1 - Seung-Won, Bae) Auto Release for Design Mode.
; 482  : 	if( pNewGraph || pMainBlock->GetDesignMode())

  000e6	eb 9f		 jmp	 SHORT $LN3@OnRButtonU
$LN29@OnRButtonU:

; 303  : 	CGraphImp* pGraph = GetGraphMoving();

  000e8	ff 50 58	 call	 DWORD PTR [eax+88]

; 304  : 	bool bResult = m_graphMove.GraphMoving(pMainBlock, pGraph, targetPoint);

  000eb	ff 75 e8	 push	 DWORD PTR _point$GSCopy$1$[ebp]
  000ee	8d 4f 18	 lea	 ecx, DWORD PTR [edi+24]
  000f1	50		 push	 eax
  000f2	53		 push	 ebx
  000f3	e8 00 00 00 00	 call	 ?GraphMoving@CGraphMove@@QAE_NPAVCMainBlock@@PAVCGraphImp@@ABVCPoint@@@Z ; CGraphMove::GraphMoving
  000f8	88 45 dc	 mov	 BYTE PTR _bResult$2[ebp], al

; 305  : 	GraphMoving_Ended(bResult);

  000fb	8b cf		 mov	 ecx, edi
  000fd	8b 07		 mov	 eax, DWORD PTR [edi]
  000ff	ff 75 dc	 push	 DWORD PTR _bResult$2[ebp]
$LN38@OnRButtonU:

; 286  : 	if(!m_bIsGraphMove)

  00102	ff 50 5c	 call	 DWORD PTR [eax+92]
$LN28@OnRButtonU:
  00105	80 7f 0c 00	 cmp	 BYTE PTR [edi+12], 0
  00109	74 1c		 je	 SHORT $LN33@OnRButtonU

; 287  : 		return;
; 288  : 
; 289  : 	m_graphMove.SetGraphMoving(bIsGraphMoving);

  0010b	6a 00		 push	 0
  0010d	8d 4f 18	 lea	 ecx, DWORD PTR [edi+24]
  00110	e8 00 00 00 00	 call	 ?SetGraphMoving@CGraphMove@@QAEX_N@Z ; CGraphMove::SetGraphMoving

; 290  : 
; 291  : 	if(!bIsGraphMoving)
; 292  : 		CBaseTool::ChangeCursor(CBaseToolEnumData::CTNONE);

  00115	8d 45 dc	 lea	 eax, DWORD PTR $T3[ebp]
  00118	c7 45 dc 00 00
	00 00		 mov	 DWORD PTR $T3[ebp], 0
  0011f	50		 push	 eax
  00120	8b cf		 mov	 ecx, edi
  00122	e8 00 00 00 00	 call	 ?ChangeCursor@CBaseTool@@IAEXABW4CURSORTYPE@CBaseToolEnumData@@@Z ; CBaseTool::ChangeCursor
$LN33@OnRButtonU:

; 488  : 		// 2008.10.28  JS.Kim   CGraphTool::LButtonDown         CGraphTool::OnLButtonUp Call 
; 489  : 		CGraphTool::OnLButtonUp(pDC, pMainBlock, point);
; 490  : 		OnLButtonUp();

  00127	8b 07		 mov	 eax, DWORD PTR [edi]
  00129	8b cf		 mov	 ecx, edi
  0012b	ff 50 28	 call	 DWORD PTR [eax+40]

; 491  : 
; 492  : 		// 20080925 JS.Kim	         <<
; 493  : 		if( pNewGraph)

  0012e	85 f6		 test	 esi, esi
  00130	74 20		 je	 SHORT $LN5@OnRButtonU

; 494  : 		{
; 495  : 			CGraphImp* pGraph = pNewGraph->GetGraph();

  00132	8b ce		 mov	 ecx, esi
  00134	e8 00 00 00 00	 call	 ?GetGraph@CSubGraph@@QBEPAVCGraphImp@@XZ ; CSubGraph::GetGraph

; 496  : 			if( pGraph)

  00139	85 c0		 test	 eax, eax
  0013b	74 15		 je	 SHORT $LN5@OnRButtonU

; 497  : 			{
; 498  : 				LPCTSTR lpszRQ = pGraph->GetGraphRQ();

  0013d	8b 10		 mov	 edx, DWORD PTR [eax]
  0013f	8b c8		 mov	 ecx, eax
  00141	ff 52 1c	 call	 DWORD PTR [edx+28]

; 499  : 				m_pIChartCtrl->SelectedGraph(lpszRQ);

  00144	8b 4f 04	 mov	 ecx, DWORD PTR [edi+4]
  00147	6a 01		 push	 1
  00149	50		 push	 eax
  0014a	8b 11		 mov	 edx, DWORD PTR [ecx]
  0014c	ff 92 fc 06 00
	00		 call	 DWORD PTR [edx+1788]
$LN5@OnRButtonU:

; 500  : 			}
; 501  : 		}
; 502  : 		//>>
; 503  : 		
; 504  : 		Invalidate( false);

  00152	6a 00		 push	 0
  00154	8b cf		 mov	 ecx, edi
  00156	e8 00 00 00 00	 call	 ?Invalidate@CBaseTool@@IAEX_N@Z ; CBaseTool::Invalidate

; 505  : 
; 506  : 		// (2006/11/1 - Seung-Won, Bae) Auto Release for Design Mode.
; 507  : 		if( pMainBlock->GetDesignMode())

  0015b	8b 03		 mov	 eax, DWORD PTR [ebx]
  0015d	8b cb		 mov	 ecx, ebx
  0015f	8b 80 7c 01 00
	00		 mov	 eax, DWORD PTR [eax+380]
  00165	ff d0		 call	 eax
  00167	8d 77 24	 lea	 esi, DWORD PTR [edi+36]
  0016a	84 c0		 test	 al, al
  0016c	74 23		 je	 SHORT $LN6@OnRButtonU

; 508  : 		{
; 509  : 			pCurrentGraph = m_selectedSubGraphData.GetSubGraph();

  0016e	8b ce		 mov	 ecx, esi
  00170	e8 00 00 00 00	 call	 ?GetSubGraph@CSelectedSubGraphData@@QAEAAPAVCSubGraph@@XZ ; CSelectedSubGraphData::GetSubGraph

; 510  : 			FindSubGraphTitle( pDC, pMainBlock, point, pNewGraph);

  00175	8b cf		 mov	 ecx, edi
  00177	8b 00		 mov	 eax, DWORD PTR [eax]
  00179	89 45 d8	 mov	 DWORD PTR _pCurrentGraph$1$[ebp], eax
  0017c	8d 45 e0	 lea	 eax, DWORD PTR _pNewGraph$[ebp]
  0017f	50		 push	 eax
  00180	ff 75 e8	 push	 DWORD PTR _point$GSCopy$1$[ebp]
  00183	53		 push	 ebx
  00184	ff 75 e4	 push	 DWORD PTR _pDC$GSCopy$1$[ebp]
  00187	e8 00 00 00 00	 call	 ?FindSubGraphTitle@CSubGraphTitleTool@@AAE_NPAVCDC@@PAVCMainBlock@@ABVCPoint@@AAPAVCSubGraph@@@Z ; CSubGraphTitleTool::FindSubGraphTitle
  0018c	eb 03		 jmp	 SHORT $LN6@OnRButtonU
$LN36@OnRButtonU:

; 477  : 	CSubGraph *pNewGraph = NULL;
; 478  : 	FindSubGraphTitle( pDC, pMainBlock, point, pNewGraph);
; 479  : 
; 480  : 	// 1. Check New Graph
; 481  : 	// (2006/11/1 - Seung-Won, Bae) Auto Release for Design Mode.
; 482  : 	if( pNewGraph || pMainBlock->GetDesignMode())

  0018e	8d 77 24	 lea	 esi, DWORD PTR [edi+36]
$LN6@OnRButtonU:

; 511  : 		}
; 512  : 	}
; 513  : 
; 514  : 	// 2. Check No Graph
; 515  : 	if( !pCurrentGraph && !pNewGraph) return CMenuType::MENU_NONE;

  00191	83 7d d8 00	 cmp	 DWORD PTR _pCurrentGraph$1$[ebp], 0
  00195	75 1c		 jne	 SHORT $LN7@OnRButtonU
  00197	83 7d e0 00	 cmp	 DWORD PTR _pNewGraph$[ebp], 0
  0019b	75 16		 jne	 SHORT $LN7@OnRButtonU

; 520  : }

  0019d	5f		 pop	 edi
  0019e	5e		 pop	 esi
  0019f	83 c8 ff	 or	 eax, -1
  001a2	5b		 pop	 ebx
  001a3	8b 4d fc	 mov	 ecx, DWORD PTR __$ArrayPad$[ebp]
  001a6	33 cd		 xor	 ecx, ebp
  001a8	e8 00 00 00 00	 call	 @__security_check_cookie@4
  001ad	8b e5		 mov	 esp, ebp
  001af	5d		 pop	 ebp
  001b0	c2 0c 00	 ret	 12			; 0000000cH
$LN7@OnRButtonU:

; 516  : 
; 517  : 	// 3. Show Graph Menu
; 518  : 	CBaseTool::SetProcessEnded(false);

  001b3	6a 00		 push	 0
  001b5	8b cf		 mov	 ecx, edi
  001b7	e8 00 00 00 00	 call	 ?SetProcessEnded@CBaseTool@@IAEX_N@Z ; CBaseTool::SetProcessEnded

; 519  : 	return m_selectedSubGraphData.GetMenuType();

  001bc	8b ce		 mov	 ecx, esi
  001be	e8 00 00 00 00	 call	 ?GetMenuType@CSelectedSubGraphData@@QBE?AW4MENUTYPE@CMenuType@@XZ ; CSelectedSubGraphData::GetMenuType

; 520  : }

  001c3	8b 4d fc	 mov	 ecx, DWORD PTR __$ArrayPad$[ebp]
  001c6	5f		 pop	 edi
  001c7	5e		 pop	 esi
  001c8	33 cd		 xor	 ecx, ebp
  001ca	5b		 pop	 ebx
  001cb	e8 00 00 00 00	 call	 @__security_check_cookie@4
  001d0	8b e5		 mov	 esp, ebp
  001d2	5d		 pop	 ebp
  001d3	c2 0c 00	 ret	 12			; 0000000cH
?OnRButtonUp@CSubGraphTitleTool@@UAE?AW4MENUTYPE@CMenuType@@PAVCDC@@PAVCMainBlock@@ABVCPoint@@@Z ENDP ; CSubGraphTitleTool::OnRButtonUp
_TEXT	ENDS
; Function compile flags: /Ogtp
; File D:\git\src\IBK\IBK_DRFN\ProjSrc\SrcChartEx\ChartOCX\ChartObject\GraphTool.cpp
; File C:\Program Files (x86)\Microsoft Visual Studio\2019\Community\VC\Tools\MSVC\14.29.30133\atlmfc\include\atltypes.h
; File D:\git\src\IBK\IBK_DRFN\ProjSrc\SrcChartEx\ChartOCX\ChartObject\GraphTool.cpp
; File C:\Program Files (x86)\Microsoft Visual Studio\2019\Community\VC\Tools\MSVC\14.29.30133\atlmfc\include\atltypes.h
; File D:\git\src\IBK\IBK_DRFN\ProjSrc\SrcChartEx\ChartOCX\ChartObject\GraphTool.cpp
;	COMDAT ?OnLButtonDblClk@CSubGraphTitleTool@@UAE_NPAVCDC@@PAVCMainBlock@@ABVCPoint@@@Z
_TEXT	SEGMENT
_pDC$ = 8						; size = 4
_pMainBlock$ = 12					; size = 4
_point$ = 16						; size = 4
?OnLButtonDblClk@CSubGraphTitleTool@@UAE_NPAVCDC@@PAVCMainBlock@@ABVCPoint@@@Z PROC ; CSubGraphTitleTool::OnLButtonDblClk, COMDAT
; _this$ = ecx

; 466  : {

  00000	55		 push	 ebp
  00001	8b ec		 mov	 ebp, esp
  00003	53		 push	 ebx
  00004	56		 push	 esi
  00005	8b f1		 mov	 esi, ecx
  00007	57		 push	 edi

; 467  : 	if(!FindSubGraphTitle(pDC, pMainBlock, point, m_selectedSubGraphData.GetSubGraph()) || !IsLoadIndicatorConfiguration(point))

  00008	8d 4e 24	 lea	 ecx, DWORD PTR [esi+36]
  0000b	e8 00 00 00 00	 call	 ?GetSubGraph@CSelectedSubGraphData@@QAEAAPAVCSubGraph@@XZ ; CSelectedSubGraphData::GetSubGraph
  00010	8b 5d 10	 mov	 ebx, DWORD PTR _point$[ebp]
  00013	8b ce		 mov	 ecx, esi
  00015	50		 push	 eax
  00016	53		 push	 ebx
  00017	ff 75 0c	 push	 DWORD PTR _pMainBlock$[ebp]
  0001a	ff 75 08	 push	 DWORD PTR _pDC$[ebp]
  0001d	e8 00 00 00 00	 call	 ?FindSubGraphTitle@CSubGraphTitleTool@@AAE_NPAVCDC@@PAVCMainBlock@@ABVCPoint@@AAPAVCSubGraph@@@Z ; CSubGraphTitleTool::FindSubGraphTitle
  00022	84 c0		 test	 al, al
  00024	74 66		 je	 SHORT $LN3@OnLButtonD

; 711  : 	return m_selectedSubGraphData.GetSubGraph();

  00026	8d 4e 24	 lea	 ecx, DWORD PTR [esi+36]
  00029	e8 00 00 00 00	 call	 ?GetSubGraph@CSelectedSubGraphData@@QBEPAVCSubGraph@@XZ ; CSelectedSubGraphData::GetSubGraph

; 703  : 	if(GetSubGraph() == NULL || !m_selectedSubGraphTitleRegion.PtInRect(point))

  0002e	85 c0		 test	 eax, eax
  00030	74 5a		 je	 SHORT $LN3@OnLButtonD
; File C:\Program Files (x86)\Microsoft Visual Studio\2019\Community\VC\Tools\MSVC\14.29.30133\atlmfc\include\atltypes.h

; 648  : 	return ::PtInRect(this, point);

  00032	ff 73 04	 push	 DWORD PTR [ebx+4]
; File D:\git\src\IBK\IBK_DRFN\ProjSrc\SrcChartEx\ChartOCX\ChartObject\GraphTool.cpp

; 703  : 	if(GetSubGraph() == NULL || !m_selectedSubGraphTitleRegion.PtInRect(point))

  00035	8d 46 2c	 lea	 eax, DWORD PTR [esi+44]
; File C:\Program Files (x86)\Microsoft Visual Studio\2019\Community\VC\Tools\MSVC\14.29.30133\atlmfc\include\atltypes.h

; 648  : 	return ::PtInRect(this, point);

  00038	ff 33		 push	 DWORD PTR [ebx]
  0003a	50		 push	 eax
  0003b	ff 15 00 00 00
	00		 call	 DWORD PTR __imp__PtInRect@12
; File D:\git\src\IBK\IBK_DRFN\ProjSrc\SrcChartEx\ChartOCX\ChartObject\GraphTool.cpp

; 703  : 	if(GetSubGraph() == NULL || !m_selectedSubGraphTitleRegion.PtInRect(point))

  00041	85 c0		 test	 eax, eax
  00043	74 47		 je	 SHORT $LN3@OnLButtonD

; 711  : 	return m_selectedSubGraphData.GetSubGraph();

  00045	8d 4e 24	 lea	 ecx, DWORD PTR [esi+36]
  00048	e8 00 00 00 00	 call	 ?GetSubGraph@CSelectedSubGraphData@@QBEPAVCSubGraph@@XZ ; CSelectedSubGraphData::GetSubGraph

; 706  : 	return (GetSubGraph()->GetSubGraphData().GetType() != CGraphBaseData::DataView_Type);

  0004d	8b c8		 mov	 ecx, eax
  0004f	e8 00 00 00 00	 call	 ?GetSubGraphData@CSubGraph@@QAEAAVCSubGraphData@@XZ ; CSubGraph::GetSubGraphData
  00054	8b c8		 mov	 ecx, eax
  00056	ff 15 00 00 00
	00		 call	 DWORD PTR __imp_?GetType@CSubGraphDataBase@@QBE?AW4GRAPHTYPE@CGraphBaseData@@XZ
  0005c	83 f8 06	 cmp	 eax, 6
  0005f	0f 95 c0	 setne	 al

; 467  : 	if(!FindSubGraphTitle(pDC, pMainBlock, point, m_selectedSubGraphData.GetSubGraph()) || !IsLoadIndicatorConfiguration(point))

  00062	84 c0		 test	 al, al
  00064	74 26		 je	 SHORT $LN3@OnLButtonD

; 711  : 	return m_selectedSubGraphData.GetSubGraph();

  00066	8d 4e 24	 lea	 ecx, DWORD PTR [esi+36]
  00069	e8 00 00 00 00	 call	 ?GetSubGraph@CSelectedSubGraphData@@QBEPAVCSubGraph@@XZ ; CSelectedSubGraphData::GetSubGraph

; 537  : 	if(!CGraphTool::LoadIndicatorConfiguration(pMainBlock, GetSubGraph()))

  0006e	50		 push	 eax
  0006f	ff 75 0c	 push	 DWORD PTR _pMainBlock$[ebp]
  00072	8b ce		 mov	 ecx, esi
  00074	e8 00 00 00 00	 call	 ?LoadIndicatorConfiguration@CGraphTool@@IAE_NPAVCMainBlock@@PAVCSubGraph@@@Z ; CGraphTool::LoadIndicatorConfiguration
  00079	84 c0		 test	 al, al
  0007b	74 0f		 je	 SHORT $LN3@OnLButtonD

; 538  : 		return false;
; 539  : 
; 540  : 	InitializeAllData();

  0007d	8b 06		 mov	 eax, DWORD PTR [esi]
  0007f	8b ce		 mov	 ecx, esi
  00081	ff 10		 call	 DWORD PTR [eax]
  00083	5f		 pop	 edi

; 468  : 		return false;
; 469  : 
; 470  : 	return LoadIndicatorConfiguration(pMainBlock);
; 471  : }

  00084	5e		 pop	 esi

; 541  : 	return true;

  00085	b0 01		 mov	 al, 1

; 468  : 		return false;
; 469  : 
; 470  : 	return LoadIndicatorConfiguration(pMainBlock);
; 471  : }

  00087	5b		 pop	 ebx
  00088	5d		 pop	 ebp
  00089	c2 0c 00	 ret	 12			; 0000000cH
$LN3@OnLButtonD:
  0008c	5f		 pop	 edi
  0008d	5e		 pop	 esi
  0008e	32 c0		 xor	 al, al
  00090	5b		 pop	 ebx
  00091	5d		 pop	 ebp
  00092	c2 0c 00	 ret	 12			; 0000000cH
?OnLButtonDblClk@CSubGraphTitleTool@@UAE_NPAVCDC@@PAVCMainBlock@@ABVCPoint@@@Z ENDP ; CSubGraphTitleTool::OnLButtonDblClk
_TEXT	ENDS
; Function compile flags: /Ogtp
; File D:\git\src\IBK\IBK_DRFN\ProjSrc\SrcChartEx\ChartOCX\ChartObject\GraphTool.cpp
;	COMDAT ?GetToolType@CSubGraphTitleTool@@UBE?AW4TOOLTYPE@CBlockBaseData@@XZ
_TEXT	SEGMENT
?GetToolType@CSubGraphTitleTool@@UBE?AW4TOOLTYPE@CBlockBaseData@@XZ PROC ; CSubGraphTitleTool::GetToolType, COMDAT
; _this$ = ecx

; 461  : 	return CBlockBaseData::TOOL_GRAPHTITLE;

  00000	b8 05 00 00 00	 mov	 eax, 5

; 462  : }

  00005	c3		 ret	 0
?GetToolType@CSubGraphTitleTool@@UBE?AW4TOOLTYPE@CBlockBaseData@@XZ ENDP ; CSubGraphTitleTool::GetToolType
_TEXT	ENDS
; Function compile flags: /Ogtp
; File D:\git\src\IBK\IBK_DRFN\ProjSrc\SrcChartEx\ChartOCX\ChartObject\GraphTool.cpp
; File C:\Program Files (x86)\Microsoft Visual Studio\2019\Community\VC\Tools\MSVC\14.29.30133\atlmfc\include\atltypes.h
; File D:\git\src\IBK\IBK_DRFN\ProjSrc\SrcChartEx\ChartOCX\ChartObject\GraphTool.cpp
; File C:\Program Files (x86)\Microsoft Visual Studio\2019\Community\VC\Tools\MSVC\14.29.30133\atlmfc\include\atltypes.h
; File D:\git\src\IBK\IBK_DRFN\ProjSrc\SrcChartEx\ChartOCX\ChartObject\GraphTool.cpp
;	COMDAT ?InitializeAllData@CSubGraphTitleTool@@UAEXXZ
_TEXT	SEGMENT
$T1 = -8						; size = 8
$T2 = -4						; size = 4
?InitializeAllData@CSubGraphTitleTool@@UAEXXZ PROC	; CSubGraphTitleTool::InitializeAllData, COMDAT
; _this$ = ecx

; 453  : {

  00000	55		 push	 ebp
  00001	8b ec		 mov	 ebp, esp
  00003	83 ec 08	 sub	 esp, 8
  00006	57		 push	 edi
  00007	8b f9		 mov	 edi, ecx

; 56   : 	CBaseTool::InitializeAllData();

  00009	e8 00 00 00 00	 call	 ?InitializeAllData@CBaseTool@@UAEXXZ ; CBaseTool::InitializeAllData

; 57   : 	CBaseTool::ChangeCursor(CBaseToolEnumData::CTNONE);

  0000e	8d 45 fc	 lea	 eax, DWORD PTR $T2[ebp]
  00011	c7 45 fc 00 00
	00 00		 mov	 DWORD PTR $T2[ebp], 0
  00018	50		 push	 eax
  00019	8b cf		 mov	 ecx, edi
  0001b	e8 00 00 00 00	 call	 ?ChangeCursor@CBaseTool@@IAEXABW4CURSORTYPE@CBaseToolEnumData@@@Z ; CBaseTool::ChangeCursor

; 58   : 	m_graphMove.InitializeAllData(CBaseTool::GetParent());

  00020	8b cf		 mov	 ecx, edi
  00022	e8 00 00 00 00	 call	 ?GetParent@CBaseTool@@QBEPAVCWnd@@XZ ; CBaseTool::GetParent
  00027	50		 push	 eax
  00028	8d 4f 18	 lea	 ecx, DWORD PTR [edi+24]
  0002b	e8 00 00 00 00	 call	 ?InitializeAllData@CGraphMove@@QAEXPAVCWnd@@@Z ; CGraphMove::InitializeAllData

; 454  : 	CGraphTool::InitializeAllData();
; 455  : 	m_selectedSubGraphData = CSelectedSubGraphData(NULL, -1);

  00030	6a ff		 push	 -1
  00032	6a 00		 push	 0
  00034	8d 4d f8	 lea	 ecx, DWORD PTR $T1[ebp]
  00037	e8 00 00 00 00	 call	 ??0CSelectedSubGraphData@@QAE@PAVCSubGraph@@H@Z ; CSelectedSubGraphData::CSelectedSubGraphData
  0003c	50		 push	 eax
  0003d	8d 4f 24	 lea	 ecx, DWORD PTR [edi+36]
  00040	e8 00 00 00 00	 call	 ??4CSelectedSubGraphData@@QAEAAV0@ABV0@@Z ; CSelectedSubGraphData::operator=

; 723  : 	m_selectedSubGraphTitleRegion.SetRectEmpty();

  00045	8d 47 2c	 lea	 eax, DWORD PTR [edi+44]
; File C:\Program Files (x86)\Microsoft Visual Studio\2019\Community\VC\Tools\MSVC\14.29.30133\atlmfc\include\atltypes.h

; 669  : 	::SetRectEmpty(this);

  00048	50		 push	 eax
  00049	ff 15 00 00 00
	00		 call	 DWORD PTR __imp__SetRectEmpty@4
; File D:\git\src\IBK\IBK_DRFN\ProjSrc\SrcChartEx\ChartOCX\ChartObject\GraphTool.cpp

; 724  : 	m_oldSelectedSubGraphTitleRegion.SetRectEmpty();

  0004f	8d 47 3c	 lea	 eax, DWORD PTR [edi+60]
; File C:\Program Files (x86)\Microsoft Visual Studio\2019\Community\VC\Tools\MSVC\14.29.30133\atlmfc\include\atltypes.h

; 669  : 	::SetRectEmpty(this);

  00052	50		 push	 eax
  00053	ff 15 00 00 00
	00		 call	 DWORD PTR __imp__SetRectEmpty@4
  00059	5f		 pop	 edi
; File D:\git\src\IBK\IBK_DRFN\ProjSrc\SrcChartEx\ChartOCX\ChartObject\GraphTool.cpp

; 457  : }

  0005a	8b e5		 mov	 esp, ebp
  0005c	5d		 pop	 ebp
  0005d	c3		 ret	 0
?InitializeAllData@CSubGraphTitleTool@@UAEXXZ ENDP	; CSubGraphTitleTool::InitializeAllData
_TEXT	ENDS
; Function compile flags: /Ogtp
; File D:\git\src\IBK\IBK_DRFN\ProjSrc\SrcChartEx\ChartOCX\ChartObject\GraphTool.cpp
; File C:\Program Files (x86)\Microsoft Visual Studio\2019\Community\VC\Tools\MSVC\14.29.30133\atlmfc\include\atltypes.h
; File D:\git\src\IBK\IBK_DRFN\ProjSrc\SrcChartEx\ChartOCX\ChartObject\GraphTool.cpp
; File C:\Program Files (x86)\Microsoft Visual Studio\2019\Community\VC\Tools\MSVC\14.29.30133\atlmfc\include\atltypes.h
; File D:\git\src\IBK\IBK_DRFN\ProjSrc\SrcChartEx\ChartOCX\ChartObject\GraphTool.cpp
; File C:\Program Files (x86)\Microsoft Visual Studio\2019\Community\VC\Tools\MSVC\14.29.30133\atlmfc\include\atltypes.h
; File D:\git\src\IBK\IBK_DRFN\ProjSrc\SrcChartEx\ChartOCX\ChartObject\GraphTool.cpp
;	COMDAT ??0CSubGraphTitleTool@@QAE@XZ
_TEXT	SEGMENT
??0CSubGraphTitleTool@@QAE@XZ PROC			; CSubGraphTitleTool::CSubGraphTitleTool, COMDAT
; _this$ = ecx

; 447  : {

  00000	56		 push	 esi
  00001	8b f1		 mov	 esi, ecx

; 27   : {

  00003	e8 00 00 00 00	 call	 ??0CBaseTool@@QAE@XZ	; CBaseTool::CBaseTool
  00008	c7 06 00 00 00
	00		 mov	 DWORD PTR [esi], OFFSET ??_7CGraphTool@@6B@

; 26   : 	m_graphMove(CBaseTool::GetParent())

  0000e	8b ce		 mov	 ecx, esi
  00010	66 c7 46 0c 01
	01		 mov	 WORD PTR [esi+12], 257	; 00000101H
; File C:\Program Files (x86)\Microsoft Visual Studio\2019\Community\VC\Tools\MSVC\14.29.30133\atlmfc\include\atltypes.h

; 408  : 	x = initX;

  00016	c7 46 10 00 00
	00 00		 mov	 DWORD PTR [esi+16], 0

; 409  : 	y = initY;

  0001d	c7 46 14 00 00
	00 00		 mov	 DWORD PTR [esi+20], 0
; File D:\git\src\IBK\IBK_DRFN\ProjSrc\SrcChartEx\ChartOCX\ChartObject\GraphTool.cpp

; 26   : 	m_graphMove(CBaseTool::GetParent())

  00024	e8 00 00 00 00	 call	 ?GetParent@CBaseTool@@QBEPAVCWnd@@XZ ; CBaseTool::GetParent
  00029	50		 push	 eax
  0002a	8d 4e 18	 lea	 ecx, DWORD PTR [esi+24]
  0002d	e8 00 00 00 00	 call	 ??0CGraphMove@@QAE@PAVCWnd@@@Z ; CGraphMove::CGraphMove

; 28   : }
; 29   : 
; 30   : 
; 31   : // public =====================================================================
; 32   : void CGraphTool::SetIChartCtrl(IChartCtrl* p_pICharetCtrl)
; 33   : {
; 34   : 	CBaseTool::SetIChartCtrl(p_pICharetCtrl);
; 35   : 
; 36   : 	if(p_pICharetCtrl == NULL)
; 37   : 		m_graphMove.InitializeAllData(NULL);
; 38   : 	else
; 39   : 		m_graphMove.InitializeAllData(p_pICharetCtrl->GetChartWindowPointer());
; 40   : }
; 41   : 
; 42   : void CGraphTool::SetGraphMove(const bool bIsGraphMove)
; 43   : {
; 44   : 	m_bIsGraphMove = bIsGraphMove;
; 45   : }
; 46   : 
; 47   : void CGraphTool::SetGraphDelete(const bool bIsGraphDelete)
; 48   : {
; 49   : 	m_bIsGraphDelete = bIsGraphDelete;
; 50   : }
; 51   : 
; 52   : // ----------------------------------------------------------------------------
; 53   : //  data  .
; 54   : void CGraphTool::InitializeAllData()
; 55   : {
; 56   : 	CBaseTool::InitializeAllData();
; 57   : 	CBaseTool::ChangeCursor(CBaseToolEnumData::CTNONE);
; 58   : 	m_graphMove.InitializeAllData(CBaseTool::GetParent());
; 59   : }
; 60   : 
; 61   : // ----------------------------------------------------------------------------
; 62   : bool CGraphTool::OnLButtonDown(CDC* pDC, CMainBlock* pMainBlock, const UINT nFlags, const CPoint& point)
; 63   : {
; 64   : 	m_lBtDownPt = point;
; 65   : 	CBaseTool::SetProcessEnded(false);
; 66   : 	OnLButtonDown_Real(pDC, pMainBlock, nFlags, point);
; 67   : 	
; 68   : 	SetGraphMoving(IsSelectedSubGraph());
; 69   : 	return true;
; 70   : }
; 71   : 
; 72   : bool CGraphTool::OnLButtonUp(CDC* /*pDC*/, CMainBlock* pMainBlock, const CPoint& point)
; 73   : {
; 74   : 	bool result = OnLButtonUp();
; 75   : 	if(result)
; 76   : 		GraphMoving(pMainBlock, point);
; 77   : 
; 78   : 	SetGraphMoving(false);
; 79   : 	return result;
; 80   : }
; 81   : 
; 82   : void CGraphTool::OnMouseMove(CDC* pDC, CMainBlock* pMainBlock, const UINT /*nFlags*/, const CPoint& point)
; 83   : {
; 84   : 	CBaseTool::ChangeCursor(GetCursorType(pMainBlock, point));
; 85   : 	OnMouseMove(pDC, pMainBlock);
; 86   : }
; 87   : 
; 88   : bool CGraphTool::OnMenu(CMainBlock* pMainBlock, const CMenuType::ELEMENTMENU menuType, const WPARAM wParam)
; 89   : {
; 90   : 	if(!IsSelectedSubGraph())
; 91   : 		return false;
; 92   : 
; 93   : 	if(menuType == CMenuType::MENU_DELETE_ALL)
; 94   : 	{
; 95   : 		CGraphImp* pGraph = GetGraphMoving();
; 96   : 		if(pGraph)
; 97   : 		{
; 98   : 			CString strIndicatorName = pGraph->GetGraphData().GetIndicatorName2();
; 99   : 			//KHD
; 100  : 			if( g_iMetaTable.IsSpecialGroupGraph(strIndicatorName) )
; 101  : 			{
; 102  : 				AfxMessageBox( "<>    !!", MB_ICONWARNING|MB_OK);
; 103  : 				return false;
; 104  : 			}
; 105  : 			//END
; 106  : 			//   :  - ojtso (20070522)
; 107  : 			// (2008/9/14 - Seung-Won, Bae) for Pair Tick
; 108  : 			if( strIndicatorName == _MTEXT( C2_PRICE_CHART) && !::strncmp(pGraph->GetGraphRQ(), _T("DEFAULT"), 7))
; 109  : 			{
; 110  : // 				ML_SET_LANGUAGE_RES();
; 111  : // 				CString strFormat;
; 112  : // 				strFormat.LoadString( IDS_CANNOT_DELETE_IT);
; 113  : // 				CString strTitle;
; 114  : // 				strTitle.LoadString( IDS_NOTATION);
; 115  : // 				CString message;
; 116  : // 				message.Format( strFormat, _MTOL2( strIndicatorName));
; 117  : // 				if( !m_pParent) AfxMessageBox(message, MB_ICONWARNING | MB_OK);
; 118  : // 				else MessageBox( m_pParent->m_hWnd, message, strTitle, MB_ICONWARNING | MB_OK);
; 119  : 				
; 120  : 				//NH:100528   .
; 121  : 				return false;
; 122  : 			}
; 123  : 
; 124  : 			// vntsorl_20110608:[A00000600]  Graph RMenu    
; 125  : 			CString strGraphName = pGraph->GetGraphData().GetGraphName2();
; 126  : 			return pMainBlock->DeleteGraph(strGraphName);
; 127  : 		}
; 128  : 		return false;
; 129  : 	}
; 130  : 
; 131  : 	if(menuType == CMenuType::MENU_DELETE){
; 132  : 		if(!m_bIsGraphMove)
; 133  : 			return false;
; 134  : 		//CSubGraph  SendMessage  .
; 135  : 		//if(IsSendMessage_SubGraph())
; 136  : 		//	SendMessage_SubGraph();
; 137  : 	}
; 138  : 
; 139  : 	return OnMenu_SubGraph(pMainBlock, menuType, wParam);
; 140  : }
; 141  : 
; 142  : //   - ojtaso (20071023)
; 143  : bool CGraphTool::GetMenuCheck(CMainBlock* pMainBlock, const CMenuType::ELEMENTMENU menuType, const WPARAM wParam)
; 144  : {
; 145  : 	if(!IsSelectedSubGraph())
; 146  : 		return false;
; 147  : 
; 148  : 	if(menuType == CMenuType::MENU_DELETE){
; 149  : 		if(!m_bIsGraphMove)
; 150  : 			return false;
; 151  : 		//CSubGraph  SendMessage  .
; 152  : 		//if(IsSendMessage_SubGraph())
; 153  : 		//	SendMessage_SubGraph();
; 154  : 	}
; 155  : 
; 156  : 	return GetMenuCheck_SubGraph(pMainBlock, menuType, wParam);
; 157  : }
; 158  : 
; 159  : // protected ==================================================================
; 160  : // graph .
; 161  : CGraphImp* CGraphTool::GetGraph(CSubGraph* pSubGraph) const
; 162  : {
; 163  : 	if(pSubGraph == NULL)
; 164  : 		return NULL;
; 165  : 	return pSubGraph->GetSubGraphList()->GetGraph();
; 166  : }
; 167  : 
; 168  : // ----------------------------------------------------------------------------
; 169  : // data index ocx 
; 170  : /*bool CGraphTool::OnMenu_DataIndex(const CSelectedSubGraphData& selectedSubGraphData)
; 171  : {
; 172  : 	if(selectedSubGraphData.GetSubGraph() == NULL || CBaseTool::GetParent() == NULL)
; 173  : 		return false;
; 174  : 
; 175  : 	LPCTSTR GraphName = selectedSubGraphData.GetGraph()->GetGraphData().GetGraphName();
; 176  : 	CBaseTool::GetParent()->SendMessage(UM_GRAPH_SELECTEDDATAINDEX, selectedSubGraphData.GetDataIndex(), (LPARAM)GraphName);
; 177  : 	return true;
; 178  : }*/
; 179  : 
; 180  : bool CGraphTool::OnMenu_DataIndex(const CSelectedSubGraphData& selectedSubGraphData)
; 181  : {
; 182  : 	if(selectedSubGraphData.GetSubGraph() == NULL || CBaseTool::GetIChartCtrl() == NULL)
; 183  : 		return false;
; 184  : 
; 185  : 	CBaseTool::GetIChartCtrl()->SetGraphSelectedDataIndex(selectedSubGraphData.GetDataIndex(), 
; 186  : 		selectedSubGraphData.GetGraph()->GetGraphData().GetGraphName());
; 187  : 	return true;
; 188  : }
; 189  : 
; 190  : // <>    . - graph   .
; 191  : bool CGraphTool::LoadIndicatorConfiguration(CMainBlock* pMainBlock, CSubGraph* pSubGraph)
; 192  : {
; 193  : 	if( !pSubGraph) return false;
; 194  : 	CGraphImp *pGraph = pSubGraph->GetGraph();
; 195  : 	if( !pGraph) return false;
; 196  : 	pGraph->ChangeIndicatorInfoFromGraphData();
; 197  : 	CIndicatorInfo * pIndicatorInfo = pGraph->GetIndicatorInfo();
; 198  : 	// "  " :  CIndcatorInfo   .
; 199  : 	CIndicatorInfo *pIndicatorInfo2 = NULL;
; 200  : 	if( !pIndicatorInfo)
; 201  : 	{
; 202  : 		pIndicatorInfo2 = new CIndicatorInfo( EIIT_GENERAL);
; 203  : 		pGraph->ChangeIndicatorInfoFromGraphData( *pIndicatorInfo2);
; 204  : 		pIndicatorInfo = pIndicatorInfo2;
; 205  : 	}
; 206  : 
; 207  : 	bool bResult = CBaseTool::GetIChartCtrl()->ShowIndicatorConfigDlg( pIndicatorInfo) == IDOK;
; 208  : 	if( pIndicatorInfo2)
; 209  : 	{
; 210  : 		// (2007/1/12 - Seung-Won, Bae) Update with Temporary IndicatorInfo.
; 211  : 		pGraph->ChangeGraphDataFromIndicatorInfo( *pIndicatorInfo2, FALSE);
; 212  : 		delete pIndicatorInfo2;
; 213  : 	}
; 214  : 	return bResult;
; 215  : }
; 216  : 
; 217  : //   subGraph vert scale  .
; 218  : // ->   graph vert scale   vert scale <> .
; 219  : // -> <>  vert scale grid type <> .
; 220  : void CGraphTool::ChangeAllVertScaleGridType(CVertScaleGroup* pVertScaleGroup)
; 221  : {
; 222  : 	if( pVertScaleGroup == NULL) return;
; 223  : 
; 224  : 	CVertScaleGroupList *pVertScaleGroupList = pVertScaleGroup->GetVertScaleGroupList();
; 225  : 	if( !pVertScaleGroupList) return;
; 226  : 	pVertScaleGroupList->SetActivate( pVertScaleGroup);
; 227  : }
; 228  : 
; 229  : // ----------------------------------------------------------------------------
; 230  : //  Graph Type ocx  .
; 231  : void CGraphTool::SendMessage_GraphType(CSubGraph* pSubGraph)
; 232  : {
; 233  : 	if(pSubGraph == NULL || CBaseTool::GetIChartCtrl() == NULL)
; 234  : 		return;
; 235  : 
; 236  : 	//CBaseTool::GetParent()->SendMessage(UM_GRAPH_THICKNESS, pSubGraph->GetSubGraphData().GetPenThickness().GetDrawingThickness1());
; 237  : 	//CBaseTool::GetParent()->SendMessage(UM_GRAPH_TYPE_STYLE, (int)pSubGraph->GetSubGraphData().GetType(), pSubGraph->GetSubGraphData().GetDrawStyle().GetDrawStyle());
; 238  : 	CBaseTool::GetIChartCtrl()->SetGraphThickness(pSubGraph->GetSubGraphData().GetPenThickness().GetDrawingThickness1());
; 239  : 	CBaseTool::GetIChartCtrl()->SetGraphTypeStyle(pSubGraph->GetSubGraphData().GetType(), pSubGraph->GetSubGraphData().GetDrawStyle().GetDrawStyle());
; 240  : }
; 241  : 
; 242  : // private ====================================================================
; 243  : bool CGraphTool::IsCursorType_NoneMode(const CPoint& point) const
; 244  : {
; 245  : 	if(!m_bIsGraphMove || !m_graphMove.IsGraphMoving())
; 246  : 		return true;
; 247  : 
; 248  : 	CRect offsetRegion(m_lBtDownPt, m_lBtDownPt + CPoint(1, 1));
; 249  : 	offsetRegion.InflateRect(3, 3);
; 250  : 	return ( offsetRegion.PtInRect(point) ? true : false);
; 251  : }
; 252  : 
; 253  : // ----------------------------------------------------------------------------
; 254  : // block .
; 255  : CBlockImp* CGraphTool::GetBlock(CGraphImp* pGraph) const
; 256  : {
; 257  : 	if(pGraph == NULL)
; 258  : 		return NULL;
; 259  : 	return pGraph->GetVertScaleGroup()->GetVertScaleGroupList()->GetBlock();
; 260  : }
; 261  : 
; 262  : // cursor type .
; 263  : CBaseToolEnumData::CURSORTYPE CGraphTool::GetCursorType(CMainBlock* pMainBlock, const CPoint& point) const
; 264  : {
; 265  : 	if(pMainBlock == NULL || IsCursorType_NoneMode(point))
; 266  : 		return CBaseToolEnumData::CTNONE;
; 267  : 
; 268  : 	// Graph / - ojtaso (20070731)
; 269  : 	int nInsertCol = -1;
; 270  : 	int nInsertRow = -1;
; 271  : 	CRect graphRegion = pMainBlock->GetNoFrameGraphRegion(point, nInsertCol, nInsertRow);
; 272  : 	if(!graphRegion.IsRectEmpty())
; 273  : 	{
; 274  : 		if(nInsertCol >= 0 && nInsertRow >= 0)
; 275  : 			return CBaseToolEnumData::INSERT;
; 276  : 		else
; 277  : 			return CBaseToolEnumData::MOVE;
; 278  : 	}
; 279  : 	
; 280  : 	return CBaseToolEnumData::REMOVE;
; 281  : }
; 282  : 
; 283  : // ----------------------------------------------------------------------------
; 284  : void CGraphTool::SetGraphMoving(const bool bIsGraphMoving)
; 285  : {
; 286  : 	if(!m_bIsGraphMove)
; 287  : 		return;
; 288  : 
; 289  : 	m_graphMove.SetGraphMoving(bIsGraphMoving);
; 290  : 
; 291  : 	if(!bIsGraphMoving)
; 292  : 		CBaseTool::ChangeCursor(CBaseToolEnumData::CTNONE);
; 293  : }
; 294  : 
; 295  : // graph move ->  !!
; 296  : bool CGraphTool::GraphMoving(CMainBlock* pMainBlock, const CPoint& targetPoint)
; 297  : {
; 298  : 	if(!m_bIsGraphMove){
; 299  : 		GraphMoving_Ended(false);
; 300  : 		return false;
; 301  : 	}
; 302  : 
; 303  : 	CGraphImp* pGraph = GetGraphMoving();
; 304  : 	bool bResult = m_graphMove.GraphMoving(pMainBlock, pGraph, targetPoint);
; 305  : 	GraphMoving_Ended(bResult);
; 306  : 	return bResult;
; 307  : }
; 308  : 
; 309  : //   - ojtaso (20071023)
; 310  : bool CGraphTool::OnMenu_SubGraphInvert(CMainBlock* pMainBlock, CSubGraph* pSubGraph)
; 311  : {
; 312  : 	CGraphImp* pGraph = pSubGraph->GetGraph();
; 313  : 	CVertScaleGroup* pGroup = pGraph->GetVertScaleGroup();
; 314  : 
; 315  : 	int nCount = pGroup->GetGraphCount();
; 316  : 	
; 317  : 	if(nCount > 1)
; 318  : 	{
; 319  : 		CStringList p_slVertScaleGroupData;
; 320  : 		
; 321  : 		p_slVertScaleGroupData.AddTail( "VertScaleGroup;\r\n");
; 322  : 		
; 323  : 		p_slVertScaleGroupData.AddTail( CString());
; 324  : 		CString &strVertScaleData = p_slVertScaleGroupData.GetTail();
; 325  : 		pGroup->GetVertScale().GetScaleAllData( strVertScaleData);
; 326  : 		
; 327  : //		pGraph->GetStringGraphData( p_slVertScaleGroupData);
; 328  : 		CGraphImp* pFindGraph = IsGeneralGraph(pGraph, pGroup);
; 329  : //		if(pFindGraph)
; 330  : //			pFindGraph->GetStringGraphData( p_slVertScaleGroupData);
; 331  : 		
; 332  : 		p_slVertScaleGroupData.AddTail( "VertScaleGroupEnd;\r\n");
; 333  : 		
; 334  : 		CString strVertScaleGroupData;
; 335  : 		POSITION pos = p_slVertScaleGroupData.GetHeadPosition();
; 336  : 		while(pos)
; 337  : 			strVertScaleGroupData += p_slVertScaleGroupData.GetNext(pos);
; 338  : 		
; 339  : 		//   
; 340  : 		CVertScaleGroupList* pGroupList = pGroup->GetVertScaleGroupList();
; 341  : 		pGroupList->BuildVertScaleGroups((LPSTR)(LPCTSTR)strVertScaleGroupData, false);
; 342  : 		
; 343  : 		CVertScaleGroup* pNewGroup = pGroupList->GetVertScaleGroup(pGroupList->GetCount() - 1);
; 344  : 		
; 345  : 		bool bInvert = !pGroup->GetVertScaleInvertType();
; 346  : 
; 347  : 		int nGraphIndex = 0;
; 348  : 		pGroup->GetIndexOfGraph(pGraph->GetGraphData().GetGraphName(), nGraphIndex);
; 349  : 
; 350  : 		if(nGraphIndex == 0)
; 351  : 		{
; 352  : 			pGroup->RemoveAt(pGraph, true);
; 353  : 			pNewGroup->AddGraph(pGraph);
; 354  : 			if(pFindGraph)
; 355  : 			{
; 356  : 				pGroup->RemoveAt(pFindGraph, true);
; 357  : 				pNewGroup->AddGraph(pFindGraph);
; 358  : 			}
; 359  : 		}
; 360  : 		else
; 361  : 		{
; 362  : 			if(pFindGraph)
; 363  : 			{
; 364  : 				pGroup->RemoveAt(pFindGraph, true);
; 365  : 				pNewGroup->AddGraph(pFindGraph);
; 366  : 			}
; 367  : 			pGroup->RemoveAt(pGraph, true);
; 368  : 			pNewGroup->AddGraph(pGraph);
; 369  : 		}
; 370  : 
; 371  : 		pNewGroup->SetVertScaleInvertType(bInvert);
; 372  : 		
; 373  : 		return true;
; 374  : 	}
; 375  : 	
; 376  : 	bool bInvert = !pGroup->GetVertScaleInvertType();
; 377  : 	pGroup->SetVertScaleInvertType(bInvert);
; 378  : 	
; 379  : 	return true;
; 380  : }
; 381  : 
; 382  : //   - ojtaso (20071023)
; 383  : CGraphImp* CGraphTool::IsGeneralGraph(CGraphImp* pGraph, CVertScaleGroup* pGroup)
; 384  : {
; 385  : 	CString strName = pGraph->GetIndicatorInfo()->GetGraphName();
; 386  : 	CGraphImp* pFindGraph = NULL;
; 387  : 
; 388  : 	if(strName == _MTEXT( C2_PRICE_CHART))
; 389  : 		pFindGraph = pGroup->FindGraph( _MTEXT( C2_PRICE_MA));
; 390  : 	else if(strName == _MTEXT( C2_PRICE_MA))
; 391  : 		pFindGraph = pGroup->FindGraph( _MTEXT( C2_PRICE_CHART));
; 392  : 	else if(strName == _MTEXT( C2_VOLUME_CHART))
; 393  : 		pFindGraph = pGroup->FindGraph( _MTEXT( C2_VOLUME_MA));
; 394  : 	else if(strName == _MTEXT( C2_VOLUME_MA))
; 395  : 		pFindGraph = pGroup->FindGraph( _MTEXT( C2_VOLUME_CHART));
; 396  : 
; 397  : 	return pFindGraph;
; 398  : }
; 399  : 
; 400  : //   - ojtaso (20071023)
; 401  : bool CGraphTool::GetMenuCheck_SubGraphInvert(CMainBlock* pMainBlock, CSubGraph* pSubGraph)
; 402  : {
; 403  : 	CGraphImp* pGraph = pSubGraph->GetGraph();
; 404  : 	CVertScaleGroup* pGroup = pGraph->GetVertScaleGroup();
; 405  : 
; 406  : 	return pGroup->GetVertScaleInvertType();
; 407  : }
; 408  : 
; 409  : // 20081007 JS.Kim	 
; 410  : bool CGraphTool::OnMenu_SubGraphSelectTimeDiff(CMainBlock* pMainBlock, CSubGraph* pSubGraph, CTimeDiffInfo* pTimeInfo)
; 411  : {
; 412  : 	CGraphImp* pGraph = pSubGraph->GetGraph();
; 413  : 
; 414  : 	if( pTimeInfo == NULL )	//  return
; 415  : 		pGraph->SetPacketTimeDiff("", 0);
; 416  : 	else
; 417  : 		pGraph->SetPacketTimeDiff(pTimeInfo->m_strName, pTimeInfo->m_nDiffTime);
; 418  : 
; 419  : 	return true;
; 420  : }
; 421  : 
; 422  : // 20081007 JS.Kim	 
; 423  : bool CGraphTool::GetMenuCheck_SubGraphSelectTimeDiff(CMainBlock* pMainBlock, CSubGraph* pSubGraph, CTimeDiffInfo* pTimeInfo)
; 424  : {
; 425  : 	if( pTimeInfo == NULL )		return false;
; 426  : 
; 427  : 	CGraphImp* pGraph = pSubGraph->GetGraph();
; 428  : 	CString strTimeName = pGraph->GetPacketTimeDiffName();
; 429  : 	if( !strTimeName.IsEmpty() && strTimeName == pTimeInfo->m_strName )
; 430  : 		return true;
; 431  : 	if( pTimeInfo->m_strName.IsEmpty() )	//   
; 432  : 	{
; 433  : 		pTimeInfo->m_nDiffTime = pGraph->GetPacketOrgBaseTimeDiff();
; 434  : 	}
; 435  : 
; 436  : 	return false;
; 437  : }
; 438  : 
; 439  : ///////////////////////////////////////////////////////////////////////////////
; 440  : // class CSubGraphTitleTool
; 441  : 
; 442  : CSubGraphTitleTool::CSubGraphTitleTool():
; 443  : 	CGraphTool(),
; 444  : 	m_selectedSubGraphData(NULL, -1),

  00032	6a ff		 push	 -1
  00034	6a 00		 push	 0
  00036	8d 4e 24	 lea	 ecx, DWORD PTR [esi+36]

; 447  : {

  00039	c7 06 00 00 00
	00		 mov	 DWORD PTR [esi], OFFSET ??_7CSubGraphTitleTool@@6B@
  0003f	e8 00 00 00 00	 call	 ??0CSelectedSubGraphData@@QAE@PAVCSubGraph@@H@Z ; CSelectedSubGraphData::CSelectedSubGraphData
; File C:\Program Files (x86)\Microsoft Visual Studio\2019\Community\VC\Tools\MSVC\14.29.30133\atlmfc\include\atltypes.h

; 540  : 	left = l;

  00044	c7 46 2c 00 00
	00 00		 mov	 DWORD PTR [esi+44], 0
; File D:\git\src\IBK\IBK_DRFN\ProjSrc\SrcChartEx\ChartOCX\ChartObject\GraphTool.cpp

; 448  : }

  0004b	8b c6		 mov	 eax, esi
; File C:\Program Files (x86)\Microsoft Visual Studio\2019\Community\VC\Tools\MSVC\14.29.30133\atlmfc\include\atltypes.h

; 541  : 	top = t;

  0004d	c7 46 30 00 00
	00 00		 mov	 DWORD PTR [esi+48], 0

; 542  : 	right = r;

  00054	c7 46 34 00 00
	00 00		 mov	 DWORD PTR [esi+52], 0

; 543  : 	bottom = b;

  0005b	c7 46 38 00 00
	00 00		 mov	 DWORD PTR [esi+56], 0

; 540  : 	left = l;

  00062	c7 46 3c 00 00
	00 00		 mov	 DWORD PTR [esi+60], 0

; 541  : 	top = t;

  00069	c7 46 40 00 00
	00 00		 mov	 DWORD PTR [esi+64], 0

; 542  : 	right = r;

  00070	c7 46 44 00 00
	00 00		 mov	 DWORD PTR [esi+68], 0

; 543  : 	bottom = b;

  00077	c7 46 48 00 00
	00 00		 mov	 DWORD PTR [esi+72], 0
; File D:\git\src\IBK\IBK_DRFN\ProjSrc\SrcChartEx\ChartOCX\ChartObject\GraphTool.cpp

; 448  : }

  0007e	5e		 pop	 esi
  0007f	c3		 ret	 0
??0CSubGraphTitleTool@@QAE@XZ ENDP			; CSubGraphTitleTool::CSubGraphTitleTool
_TEXT	ENDS
; Function compile flags: /Ogtp
; File D:\git\src\IBK\IBK_DRFN\ProjSrc\SrcChartEx\ChartOCX\ChartObject\GraphTool.cpp
;	COMDAT ?GraphMoving@CGraphTool@@AAE_NPAVCMainBlock@@ABVCPoint@@@Z
_TEXT	SEGMENT
_pMainBlock$ = 8					; size = 4
_bResult$ = 12						; size = 1
_targetPoint$ = 12					; size = 4
?GraphMoving@CGraphTool@@AAE_NPAVCMainBlock@@ABVCPoint@@@Z PROC ; CGraphTool::GraphMoving, COMDAT
; _this$ = ecx

; 297  : {

  00000	55		 push	 ebp
  00001	8b ec		 mov	 ebp, esp
  00003	56		 push	 esi
  00004	8b f1		 mov	 esi, ecx

; 298  : 	if(!m_bIsGraphMove){

  00006	80 7e 0c 00	 cmp	 BYTE PTR [esi+12], 0
  0000a	8b 06		 mov	 eax, DWORD PTR [esi]
  0000c	75 0c		 jne	 SHORT $LN2@GraphMovin

; 299  : 		GraphMoving_Ended(false);

  0000e	6a 00		 push	 0
  00010	ff 50 5c	 call	 DWORD PTR [eax+92]

; 300  : 		return false;

  00013	32 c0		 xor	 al, al
  00015	5e		 pop	 esi

; 307  : }

  00016	5d		 pop	 ebp
  00017	c2 08 00	 ret	 8
$LN2@GraphMovin:
  0001a	53		 push	 ebx

; 301  : 	}
; 302  : 
; 303  : 	CGraphImp* pGraph = GetGraphMoving();

  0001b	ff 50 58	 call	 DWORD PTR [eax+88]

; 304  : 	bool bResult = m_graphMove.GraphMoving(pMainBlock, pGraph, targetPoint);

  0001e	ff 75 0c	 push	 DWORD PTR _targetPoint$[ebp]
  00021	8d 4e 18	 lea	 ecx, DWORD PTR [esi+24]
  00024	50		 push	 eax
  00025	ff 75 08	 push	 DWORD PTR _pMainBlock$[ebp]
  00028	e8 00 00 00 00	 call	 ?GraphMoving@CGraphMove@@QAE_NPAVCMainBlock@@PAVCGraphImp@@ABVCPoint@@@Z ; CGraphMove::GraphMoving

; 305  : 	GraphMoving_Ended(bResult);

  0002d	8b 16		 mov	 edx, DWORD PTR [esi]
  0002f	8a d8		 mov	 bl, al
  00031	88 5d 0c	 mov	 BYTE PTR _bResult$[ebp], bl
  00034	8b ce		 mov	 ecx, esi
  00036	ff 75 0c	 push	 DWORD PTR _bResult$[ebp]
  00039	ff 52 5c	 call	 DWORD PTR [edx+92]

; 306  : 	return bResult;

  0003c	8a c3		 mov	 al, bl
  0003e	5b		 pop	 ebx
  0003f	5e		 pop	 esi

; 307  : }

  00040	5d		 pop	 ebp
  00041	c2 08 00	 ret	 8
?GraphMoving@CGraphTool@@AAE_NPAVCMainBlock@@ABVCPoint@@@Z ENDP ; CGraphTool::GraphMoving
_TEXT	ENDS
; Function compile flags: /Ogtp
; File D:\git\src\IBK\IBK_DRFN\ProjSrc\SrcChartEx\ChartOCX\ChartObject\GraphTool.cpp
;	COMDAT ?SetGraphMoving@CGraphTool@@AAEX_N@Z
_TEXT	SEGMENT
_bIsGraphMoving$ = 8					; size = 1
$T1 = 8							; size = 4
?SetGraphMoving@CGraphTool@@AAEX_N@Z PROC		; CGraphTool::SetGraphMoving, COMDAT
; _this$ = ecx

; 285  : {

  00000	55		 push	 ebp
  00001	8b ec		 mov	 ebp, esp
  00003	56		 push	 esi
  00004	8b f1		 mov	 esi, ecx

; 286  : 	if(!m_bIsGraphMove)

  00006	80 7e 0c 00	 cmp	 BYTE PTR [esi+12], 0
  0000a	74 23		 je	 SHORT $LN3@SetGraphMo

; 287  : 		return;
; 288  : 
; 289  : 	m_graphMove.SetGraphMoving(bIsGraphMoving);

  0000c	ff 75 08	 push	 DWORD PTR _bIsGraphMoving$[ebp]
  0000f	8d 4e 18	 lea	 ecx, DWORD PTR [esi+24]
  00012	e8 00 00 00 00	 call	 ?SetGraphMoving@CGraphMove@@QAEX_N@Z ; CGraphMove::SetGraphMoving

; 290  : 
; 291  : 	if(!bIsGraphMoving)

  00017	80 7d 08 00	 cmp	 BYTE PTR _bIsGraphMoving$[ebp], 0
  0001b	75 12		 jne	 SHORT $LN3@SetGraphMo

; 292  : 		CBaseTool::ChangeCursor(CBaseToolEnumData::CTNONE);

  0001d	8d 45 08	 lea	 eax, DWORD PTR $T1[ebp]
  00020	c7 45 08 00 00
	00 00		 mov	 DWORD PTR $T1[ebp], 0
  00027	50		 push	 eax
  00028	8b ce		 mov	 ecx, esi
  0002a	e8 00 00 00 00	 call	 ?ChangeCursor@CBaseTool@@IAEXABW4CURSORTYPE@CBaseToolEnumData@@@Z ; CBaseTool::ChangeCursor
$LN3@SetGraphMo:
  0002f	5e		 pop	 esi

; 293  : }

  00030	5d		 pop	 ebp
  00031	c2 04 00	 ret	 4
?SetGraphMoving@CGraphTool@@AAEX_N@Z ENDP		; CGraphTool::SetGraphMoving
_TEXT	ENDS
; Function compile flags: /Ogtp
; File D:\git\src\IBK\IBK_DRFN\ProjSrc\SrcChartEx\ChartOCX\ChartObject\GraphTool.cpp
; File C:\Program Files (x86)\Microsoft Visual Studio\2019\Community\VC\Tools\MSVC\14.29.30133\atlmfc\include\atltypes.h
; File D:\git\src\IBK\IBK_DRFN\ProjSrc\SrcChartEx\ChartOCX\ChartObject\GraphTool.cpp
; File C:\Program Files (x86)\Microsoft Visual Studio\2019\Community\VC\Tools\MSVC\14.29.30133\atlmfc\include\atltypes.h
; File D:\git\src\IBK\IBK_DRFN\ProjSrc\SrcChartEx\ChartOCX\ChartObject\GraphTool.cpp
; File C:\Program Files (x86)\Microsoft Visual Studio\2019\Community\VC\Tools\MSVC\14.29.30133\atlmfc\include\atltypes.h
; File D:\git\src\IBK\IBK_DRFN\ProjSrc\SrcChartEx\ChartOCX\ChartObject\GraphTool.cpp
;	COMDAT ?GetCursorType@CGraphTool@@ABE?AW4CURSORTYPE@CBaseToolEnumData@@PAVCMainBlock@@ABVCPoint@@@Z
_TEXT	SEGMENT
_point$GSCopy$1$ = -48					; size = 4
_nInsertRow$ = -44					; size = 4
_nInsertCol$ = -40					; size = 4
_graphRegion$ = -36					; size = 16
_offsetRegion$5 = -20					; size = 16
__$ArrayPad$ = -4					; size = 4
_pMainBlock$ = 8					; size = 4
_point$ = 12						; size = 4
?GetCursorType@CGraphTool@@ABE?AW4CURSORTYPE@CBaseToolEnumData@@PAVCMainBlock@@ABVCPoint@@@Z PROC ; CGraphTool::GetCursorType, COMDAT
; _this$ = ecx

; 264  : {

  00000	55		 push	 ebp
  00001	8b ec		 mov	 ebp, esp
  00003	83 ec 30	 sub	 esp, 48			; 00000030H
  00006	a1 00 00 00 00	 mov	 eax, DWORD PTR ___security_cookie
  0000b	33 c5		 xor	 eax, ebp
  0000d	89 45 fc	 mov	 DWORD PTR __$ArrayPad$[ebp], eax
  00010	8b 45 0c	 mov	 eax, DWORD PTR _point$[ebp]
  00013	53		 push	 ebx
  00014	8b 5d 08	 mov	 ebx, DWORD PTR _pMainBlock$[ebp]
  00017	89 45 d0	 mov	 DWORD PTR _point$GSCopy$1$[ebp], eax
  0001a	56		 push	 esi
  0001b	57		 push	 edi
  0001c	8b f9		 mov	 edi, ecx

; 265  : 	if(pMainBlock == NULL || IsCursorType_NoneMode(point))

  0001e	85 db		 test	 ebx, ebx
  00020	0f 84 e6 00 00
	00		 je	 $LN3@GetCursorT

; 245  : 	if(!m_bIsGraphMove || !m_graphMove.IsGraphMoving())

  00026	80 7f 0c 00	 cmp	 BYTE PTR [edi+12], 0
  0002a	0f 84 dc 00 00
	00		 je	 $LN3@GetCursorT
  00030	8d 4f 18	 lea	 ecx, DWORD PTR [edi+24]
  00033	e8 00 00 00 00	 call	 ?IsGraphMoving@CGraphMove@@QBE_NXZ ; CGraphMove::IsGraphMoving
  00038	84 c0		 test	 al, al
  0003a	0f 84 cc 00 00
	00		 je	 $LN3@GetCursorT

; 248  : 	CRect offsetRegion(m_lBtDownPt, m_lBtDownPt + CPoint(1, 1));

  00040	8b 47 10	 mov	 eax, DWORD PTR [edi+16]
; File C:\Program Files (x86)\Microsoft Visual Studio\2019\Community\VC\Tools\MSVC\14.29.30133\atlmfc\include\atltypes.h

; 507  : 	return CPoint(x + point.x, y + point.y);

  00043	8b 77 10	 mov	 esi, DWORD PTR [edi+16]
  00046	8b 57 14	 mov	 edx, DWORD PTR [edi+20]
  00049	46		 inc	 esi
; File D:\git\src\IBK\IBK_DRFN\ProjSrc\SrcChartEx\ChartOCX\ChartObject\GraphTool.cpp

; 248  : 	CRect offsetRegion(m_lBtDownPt, m_lBtDownPt + CPoint(1, 1));

  0004a	8b 4f 14	 mov	 ecx, DWORD PTR [edi+20]
; File C:\Program Files (x86)\Microsoft Visual Studio\2019\Community\VC\Tools\MSVC\14.29.30133\atlmfc\include\atltypes.h

; 507  : 	return CPoint(x + point.x, y + point.y);

  0004d	42		 inc	 edx

; 686  : 	::InflateRect(this, x, y);

  0004e	6a 03		 push	 3

; 568  : 	left = topLeft.x;

  00050	89 45 ec	 mov	 DWORD PTR _offsetRegion$5[ebp], eax

; 686  : 	::InflateRect(this, x, y);

  00053	8d 45 ec	 lea	 eax, DWORD PTR _offsetRegion$5[ebp]
  00056	6a 03		 push	 3
  00058	50		 push	 eax

; 569  : 	top = topLeft.y;

  00059	89 4d f0	 mov	 DWORD PTR _offsetRegion$5[ebp+4], ecx

; 570  : 	right = bottomRight.x;

  0005c	89 75 f4	 mov	 DWORD PTR _offsetRegion$5[ebp+8], esi

; 571  : 	bottom = bottomRight.y;

  0005f	89 55 f8	 mov	 DWORD PTR _offsetRegion$5[ebp+12], edx

; 686  : 	::InflateRect(this, x, y);

  00062	ff 15 00 00 00
	00		 call	 DWORD PTR __imp__InflateRect@12

; 648  : 	return ::PtInRect(this, point);

  00068	8b 75 d0	 mov	 esi, DWORD PTR _point$GSCopy$1$[ebp]
  0006b	8d 45 ec	 lea	 eax, DWORD PTR _offsetRegion$5[ebp]
  0006e	ff 76 04	 push	 DWORD PTR [esi+4]
  00071	ff 36		 push	 DWORD PTR [esi]
  00073	50		 push	 eax
  00074	ff 15 00 00 00
	00		 call	 DWORD PTR __imp__PtInRect@12
; File D:\git\src\IBK\IBK_DRFN\ProjSrc\SrcChartEx\ChartOCX\ChartObject\GraphTool.cpp

; 250  : 	return ( offsetRegion.PtInRect(point) ? true : false);

  0007a	85 c0		 test	 eax, eax
  0007c	0f 95 c0	 setne	 al

; 265  : 	if(pMainBlock == NULL || IsCursorType_NoneMode(point))

  0007f	84 c0		 test	 al, al
  00081	0f 85 85 00 00
	00		 jne	 $LN3@GetCursorT

; 266  : 		return CBaseToolEnumData::CTNONE;
; 267  : 
; 268  : 	// Graph / - ojtaso (20070731)
; 269  : 	int nInsertCol = -1;
; 270  : 	int nInsertRow = -1;
; 271  : 	CRect graphRegion = pMainBlock->GetNoFrameGraphRegion(point, nInsertCol, nInsertRow);

  00087	8b 03		 mov	 eax, DWORD PTR [ebx]
  00089	8d 4d d4	 lea	 ecx, DWORD PTR _nInsertRow$[ebp]
  0008c	51		 push	 ecx
  0008d	8d 4d d8	 lea	 ecx, DWORD PTR _nInsertCol$[ebp]
  00090	c7 45 d8 ff ff
	ff ff		 mov	 DWORD PTR _nInsertCol$[ebp], -1
  00097	51		 push	 ecx
  00098	56		 push	 esi
  00099	8d 4d dc	 lea	 ecx, DWORD PTR _graphRegion$[ebp]
  0009c	c7 45 d4 ff ff
	ff ff		 mov	 DWORD PTR _nInsertRow$[ebp], -1
  000a3	51		 push	 ecx
  000a4	8b cb		 mov	 ecx, ebx
  000a6	ff 90 8c 01 00
	00		 call	 DWORD PTR [eax+396]
; File C:\Program Files (x86)\Microsoft Visual Studio\2019\Community\VC\Tools\MSVC\14.29.30133\atlmfc\include\atltypes.h

; 638  : 	return ::IsRectEmpty(this);

  000ac	8d 45 dc	 lea	 eax, DWORD PTR _graphRegion$[ebp]
  000af	50		 push	 eax
  000b0	ff 15 00 00 00
	00		 call	 DWORD PTR __imp__IsRectEmpty@4
; File D:\git\src\IBK\IBK_DRFN\ProjSrc\SrcChartEx\ChartOCX\ChartObject\GraphTool.cpp

; 272  : 	if(!graphRegion.IsRectEmpty())

  000b6	85 c0		 test	 eax, eax
  000b8	75 3a		 jne	 SHORT $LN6@GetCursorT

; 273  : 	{
; 274  : 		if(nInsertCol >= 0 && nInsertRow >= 0)

  000ba	39 45 d8	 cmp	 DWORD PTR _nInsertCol$[ebp], eax
  000bd	7c 1d		 jl	 SHORT $LN5@GetCursorT
  000bf	39 45 d4	 cmp	 DWORD PTR _nInsertRow$[ebp], eax
  000c2	7c 18		 jl	 SHORT $LN5@GetCursorT

; 275  : 			return CBaseToolEnumData::INSERT;
; 276  : 		else
; 277  : 			return CBaseToolEnumData::MOVE;
; 278  : 	}
; 279  : 	
; 280  : 	return CBaseToolEnumData::REMOVE;
; 281  : }

  000c4	5f		 pop	 edi
  000c5	5e		 pop	 esi
  000c6	b8 08 00 00 00	 mov	 eax, 8
  000cb	5b		 pop	 ebx
  000cc	8b 4d fc	 mov	 ecx, DWORD PTR __$ArrayPad$[ebp]
  000cf	33 cd		 xor	 ecx, ebp
  000d1	e8 00 00 00 00	 call	 @__security_check_cookie@4
  000d6	8b e5		 mov	 esp, ebp
  000d8	5d		 pop	 ebp
  000d9	c2 08 00	 ret	 8
$LN5@GetCursorT:
  000dc	5f		 pop	 edi
  000dd	5e		 pop	 esi
  000de	b8 05 00 00 00	 mov	 eax, 5
  000e3	5b		 pop	 ebx
  000e4	8b 4d fc	 mov	 ecx, DWORD PTR __$ArrayPad$[ebp]
  000e7	33 cd		 xor	 ecx, ebp
  000e9	e8 00 00 00 00	 call	 @__security_check_cookie@4
  000ee	8b e5		 mov	 esp, ebp
  000f0	5d		 pop	 ebp
  000f1	c2 08 00	 ret	 8
$LN6@GetCursorT:
  000f4	5f		 pop	 edi
  000f5	5e		 pop	 esi
  000f6	b8 07 00 00 00	 mov	 eax, 7
  000fb	5b		 pop	 ebx
  000fc	8b 4d fc	 mov	 ecx, DWORD PTR __$ArrayPad$[ebp]
  000ff	33 cd		 xor	 ecx, ebp
  00101	e8 00 00 00 00	 call	 @__security_check_cookie@4
  00106	8b e5		 mov	 esp, ebp
  00108	5d		 pop	 ebp
  00109	c2 08 00	 ret	 8
$LN3@GetCursorT:
  0010c	8b 4d fc	 mov	 ecx, DWORD PTR __$ArrayPad$[ebp]
  0010f	33 c0		 xor	 eax, eax
  00111	5f		 pop	 edi
  00112	5e		 pop	 esi
  00113	33 cd		 xor	 ecx, ebp
  00115	5b		 pop	 ebx
  00116	e8 00 00 00 00	 call	 @__security_check_cookie@4
  0011b	8b e5		 mov	 esp, ebp
  0011d	5d		 pop	 ebp
  0011e	c2 08 00	 ret	 8
?GetCursorType@CGraphTool@@ABE?AW4CURSORTYPE@CBaseToolEnumData@@PAVCMainBlock@@ABVCPoint@@@Z ENDP ; CGraphTool::GetCursorType
_TEXT	ENDS
; Function compile flags: /Ogtp
; File D:\git\src\IBK\IBK_DRFN\ProjSrc\SrcChartEx\ChartOCX\ChartObject\GraphTool.cpp
;	COMDAT ?GetBlock@CGraphTool@@ABEPAVCBlockImp@@PAVCGraphImp@@@Z
_TEXT	SEGMENT
_pGraph$ = 8						; size = 4
?GetBlock@CGraphTool@@ABEPAVCBlockImp@@PAVCGraphImp@@@Z PROC ; CGraphTool::GetBlock, COMDAT
; _this$ = ecx

; 256  : {

  00000	55		 push	 ebp
  00001	8b ec		 mov	 ebp, esp

; 257  : 	if(pGraph == NULL)

  00003	8b 4d 08	 mov	 ecx, DWORD PTR _pGraph$[ebp]
  00006	85 c9		 test	 ecx, ecx
  00008	75 06		 jne	 SHORT $LN2@GetBlock

; 258  : 		return NULL;

  0000a	33 c0		 xor	 eax, eax

; 260  : }

  0000c	5d		 pop	 ebp
  0000d	c2 04 00	 ret	 4
$LN2@GetBlock:

; 259  : 	return pGraph->GetVertScaleGroup()->GetVertScaleGroupList()->GetBlock();

  00010	e8 00 00 00 00	 call	 ?GetVertScaleGroup@CGraphImp@@QBEPAVCVertScaleGroup@@XZ ; CGraphImp::GetVertScaleGroup
  00015	8b c8		 mov	 ecx, eax
  00017	e8 00 00 00 00	 call	 ?GetVertScaleGroupList@CVertScaleGroup@@QBEPAVCVertScaleGroupList@@XZ ; CVertScaleGroup::GetVertScaleGroupList
  0001c	8b c8		 mov	 ecx, eax
  0001e	e8 00 00 00 00	 call	 ?GetBlock@CVertScaleGroupList@@QBEPAVCBlockImp@@XZ ; CVertScaleGroupList::GetBlock

; 260  : }

  00023	5d		 pop	 ebp
  00024	c2 04 00	 ret	 4
?GetBlock@CGraphTool@@ABEPAVCBlockImp@@PAVCGraphImp@@@Z ENDP ; CGraphTool::GetBlock
_TEXT	ENDS
; Function compile flags: /Ogtp
; File D:\git\src\IBK\IBK_DRFN\ProjSrc\SrcChartEx\ChartOCX\ChartObject\GraphTool.cpp
; File C:\Program Files (x86)\Microsoft Visual Studio\2019\Community\VC\Tools\MSVC\14.29.30133\atlmfc\include\atltypes.h
; File D:\git\src\IBK\IBK_DRFN\ProjSrc\SrcChartEx\ChartOCX\ChartObject\GraphTool.cpp
; File C:\Program Files (x86)\Microsoft Visual Studio\2019\Community\VC\Tools\MSVC\14.29.30133\atlmfc\include\atltypes.h
; File D:\git\src\IBK\IBK_DRFN\ProjSrc\SrcChartEx\ChartOCX\ChartObject\GraphTool.cpp
;	COMDAT ?IsCursorType_NoneMode@CGraphTool@@ABE_NABVCPoint@@@Z
_TEXT	SEGMENT
_offsetRegion$ = -20					; size = 16
__$ArrayPad$ = -4					; size = 4
_point$ = 8						; size = 4
?IsCursorType_NoneMode@CGraphTool@@ABE_NABVCPoint@@@Z PROC ; CGraphTool::IsCursorType_NoneMode, COMDAT
; _this$ = ecx

; 244  : {

  00000	55		 push	 ebp
  00001	8b ec		 mov	 ebp, esp
  00003	83 ec 14	 sub	 esp, 20			; 00000014H
  00006	a1 00 00 00 00	 mov	 eax, DWORD PTR ___security_cookie
  0000b	33 c5		 xor	 eax, ebp
  0000d	89 45 fc	 mov	 DWORD PTR __$ArrayPad$[ebp], eax
  00010	53		 push	 ebx
  00011	8b 5d 08	 mov	 ebx, DWORD PTR _point$[ebp]
  00014	57		 push	 edi
  00015	8b f9		 mov	 edi, ecx

; 245  : 	if(!m_bIsGraphMove || !m_graphMove.IsGraphMoving())

  00017	80 7f 0c 00	 cmp	 BYTE PTR [edi+12], 0
  0001b	74 5c		 je	 SHORT $LN3@IsCursorTy
  0001d	8d 4f 18	 lea	 ecx, DWORD PTR [edi+24]
  00020	e8 00 00 00 00	 call	 ?IsGraphMoving@CGraphMove@@QBE_NXZ ; CGraphMove::IsGraphMoving
  00025	84 c0		 test	 al, al
  00027	74 50		 je	 SHORT $LN3@IsCursorTy

; 248  : 	CRect offsetRegion(m_lBtDownPt, m_lBtDownPt + CPoint(1, 1));

  00029	8b 47 10	 mov	 eax, DWORD PTR [edi+16]
; File C:\Program Files (x86)\Microsoft Visual Studio\2019\Community\VC\Tools\MSVC\14.29.30133\atlmfc\include\atltypes.h

; 507  : 	return CPoint(x + point.x, y + point.y);

  0002c	8b 57 14	 mov	 edx, DWORD PTR [edi+20]
; File D:\git\src\IBK\IBK_DRFN\ProjSrc\SrcChartEx\ChartOCX\ChartObject\GraphTool.cpp

; 248  : 	CRect offsetRegion(m_lBtDownPt, m_lBtDownPt + CPoint(1, 1));

  0002f	8b 4f 14	 mov	 ecx, DWORD PTR [edi+20]
; File C:\Program Files (x86)\Microsoft Visual Studio\2019\Community\VC\Tools\MSVC\14.29.30133\atlmfc\include\atltypes.h

; 507  : 	return CPoint(x + point.x, y + point.y);

  00032	42		 inc	 edx
  00033	56		 push	 esi
  00034	8b 77 10	 mov	 esi, DWORD PTR [edi+16]

; 686  : 	::InflateRect(this, x, y);

  00037	6a 03		 push	 3

; 568  : 	left = topLeft.x;

  00039	89 45 ec	 mov	 DWORD PTR _offsetRegion$[ebp], eax

; 507  : 	return CPoint(x + point.x, y + point.y);

  0003c	46		 inc	 esi

; 686  : 	::InflateRect(this, x, y);

  0003d	6a 03		 push	 3
  0003f	8d 45 ec	 lea	 eax, DWORD PTR _offsetRegion$[ebp]

; 569  : 	top = topLeft.y;

  00042	89 4d f0	 mov	 DWORD PTR _offsetRegion$[ebp+4], ecx

; 686  : 	::InflateRect(this, x, y);

  00045	50		 push	 eax

; 570  : 	right = bottomRight.x;

  00046	89 75 f4	 mov	 DWORD PTR _offsetRegion$[ebp+8], esi

; 571  : 	bottom = bottomRight.y;

  00049	89 55 f8	 mov	 DWORD PTR _offsetRegion$[ebp+12], edx

; 686  : 	::InflateRect(this, x, y);

  0004c	ff 15 00 00 00
	00		 call	 DWORD PTR __imp__InflateRect@12

; 648  : 	return ::PtInRect(this, point);

  00052	ff 73 04	 push	 DWORD PTR [ebx+4]
  00055	8d 45 ec	 lea	 eax, DWORD PTR _offsetRegion$[ebp]
  00058	ff 33		 push	 DWORD PTR [ebx]
  0005a	50		 push	 eax
  0005b	ff 15 00 00 00
	00		 call	 DWORD PTR __imp__PtInRect@12
; File D:\git\src\IBK\IBK_DRFN\ProjSrc\SrcChartEx\ChartOCX\ChartObject\GraphTool.cpp

; 250  : 	return ( offsetRegion.PtInRect(point) ? true : false);

  00061	5e		 pop	 esi
  00062	85 c0		 test	 eax, eax
  00064	5f		 pop	 edi
  00065	0f 95 c0	 setne	 al

; 251  : }

  00068	5b		 pop	 ebx
  00069	8b 4d fc	 mov	 ecx, DWORD PTR __$ArrayPad$[ebp]
  0006c	33 cd		 xor	 ecx, ebp
  0006e	e8 00 00 00 00	 call	 @__security_check_cookie@4
  00073	8b e5		 mov	 esp, ebp
  00075	5d		 pop	 ebp
  00076	c2 04 00	 ret	 4
$LN3@IsCursorTy:
  00079	8b 4d fc	 mov	 ecx, DWORD PTR __$ArrayPad$[ebp]
  0007c	b0 01		 mov	 al, 1
  0007e	5f		 pop	 edi
  0007f	33 cd		 xor	 ecx, ebp
  00081	5b		 pop	 ebx
  00082	e8 00 00 00 00	 call	 @__security_check_cookie@4
  00087	8b e5		 mov	 esp, ebp
  00089	5d		 pop	 ebp
  0008a	c2 04 00	 ret	 4
?IsCursorType_NoneMode@CGraphTool@@ABE_NABVCPoint@@@Z ENDP ; CGraphTool::IsCursorType_NoneMode
_TEXT	ENDS
; Function compile flags: /Ogtp
; File D:\git\src\IBK\IBK_DRFN\ProjSrc\SrcChartEx\ChartOCX\ChartObject\GraphTool.cpp
;	COMDAT ?SendMessage_GraphType@CGraphTool@@IAEXPAVCSubGraph@@@Z
_TEXT	SEGMENT
_this$1$ = -4						; size = 4
$T1 = 8							; size = 4
_pSubGraph$ = 8						; size = 4
?SendMessage_GraphType@CGraphTool@@IAEXPAVCSubGraph@@@Z PROC ; CGraphTool::SendMessage_GraphType, COMDAT
; _this$ = ecx

; 232  : {

  00000	55		 push	 ebp
  00001	8b ec		 mov	 ebp, esp
  00003	51		 push	 ecx
  00004	53		 push	 ebx

; 233  : 	if(pSubGraph == NULL || CBaseTool::GetIChartCtrl() == NULL)

  00005	8b 5d 08	 mov	 ebx, DWORD PTR _pSubGraph$[ebp]
  00008	56		 push	 esi
  00009	8b f1		 mov	 esi, ecx
  0000b	89 75 fc	 mov	 DWORD PTR _this$1$[ebp], esi
  0000e	85 db		 test	 ebx, ebx
  00010	74 6f		 je	 SHORT $LN3@SendMessag
  00012	e8 00 00 00 00	 call	 ?GetIChartCtrl@CBaseTool@@QBEPAUIChartCtrl@@XZ ; CBaseTool::GetIChartCtrl
  00017	85 c0		 test	 eax, eax
  00019	74 66		 je	 SHORT $LN3@SendMessag

; 234  : 		return;
; 235  : 
; 236  : 	//CBaseTool::GetParent()->SendMessage(UM_GRAPH_THICKNESS, pSubGraph->GetSubGraphData().GetPenThickness().GetDrawingThickness1());
; 237  : 	//CBaseTool::GetParent()->SendMessage(UM_GRAPH_TYPE_STYLE, (int)pSubGraph->GetSubGraphData().GetType(), pSubGraph->GetSubGraphData().GetDrawStyle().GetDrawStyle());
; 238  : 	CBaseTool::GetIChartCtrl()->SetGraphThickness(pSubGraph->GetSubGraphData().GetPenThickness().GetDrawingThickness1());

  0001b	57		 push	 edi
  0001c	8b ce		 mov	 ecx, esi
  0001e	e8 00 00 00 00	 call	 ?GetIChartCtrl@CBaseTool@@QBEPAUIChartCtrl@@XZ ; CBaseTool::GetIChartCtrl
  00023	8b f0		 mov	 esi, eax
  00025	8b cb		 mov	 ecx, ebx
  00027	8b 3e		 mov	 edi, DWORD PTR [esi]
  00029	e8 00 00 00 00	 call	 ?GetSubGraphData@CSubGraph@@QAEAAVCSubGraphData@@XZ ; CSubGraph::GetSubGraphData
  0002e	8b c8		 mov	 ecx, eax
  00030	ff 15 00 00 00
	00		 call	 DWORD PTR __imp_?GetPenThickness@CSubGraphDataBase@@QAEAAVCPenThickness@@XZ
  00036	8b c8		 mov	 ecx, eax
  00038	ff 15 00 00 00
	00		 call	 DWORD PTR __imp_?GetDrawingThickness1@CPenThickness@@QBEHXZ
  0003e	50		 push	 eax
  0003f	8b ce		 mov	 ecx, esi
  00041	ff 97 8c 07 00
	00		 call	 DWORD PTR [edi+1932]

; 239  : 	CBaseTool::GetIChartCtrl()->SetGraphTypeStyle(pSubGraph->GetSubGraphData().GetType(), pSubGraph->GetSubGraphData().GetDrawStyle().GetDrawStyle());

  00047	8b 4d fc	 mov	 ecx, DWORD PTR _this$1$[ebp]
  0004a	e8 00 00 00 00	 call	 ?GetIChartCtrl@CBaseTool@@QBEPAUIChartCtrl@@XZ ; CBaseTool::GetIChartCtrl
  0004f	8b f0		 mov	 esi, eax
  00051	8b cb		 mov	 ecx, ebx
  00053	8d 45 08	 lea	 eax, DWORD PTR $T1[ebp]
  00056	50		 push	 eax
  00057	8b 3e		 mov	 edi, DWORD PTR [esi]
  00059	e8 00 00 00 00	 call	 ?GetSubGraphData@CSubGraph@@QAEAAVCSubGraphData@@XZ ; CSubGraph::GetSubGraphData
  0005e	8b c8		 mov	 ecx, eax
  00060	ff 15 00 00 00
	00		 call	 DWORD PTR __imp_?GetDrawStyle@CSubGraphDataBase@@QBE?AVCGraphDrawStyle@@XZ
  00066	8b cb		 mov	 ecx, ebx
  00068	ff 30		 push	 DWORD PTR [eax]
  0006a	e8 00 00 00 00	 call	 ?GetSubGraphData@CSubGraph@@QAEAAVCSubGraphData@@XZ ; CSubGraph::GetSubGraphData
  0006f	8b c8		 mov	 ecx, eax
  00071	ff 15 00 00 00
	00		 call	 DWORD PTR __imp_?GetType@CSubGraphDataBase@@QBE?AW4GRAPHTYPE@CGraphBaseData@@XZ
  00077	50		 push	 eax
  00078	8b ce		 mov	 ecx, esi
  0007a	ff 97 90 07 00
	00		 call	 DWORD PTR [edi+1936]
  00080	5f		 pop	 edi
$LN3@SendMessag:

; 240  : }

  00081	5e		 pop	 esi
  00082	5b		 pop	 ebx
  00083	8b e5		 mov	 esp, ebp
  00085	5d		 pop	 ebp
  00086	c2 04 00	 ret	 4
?SendMessage_GraphType@CGraphTool@@IAEXPAVCSubGraph@@@Z ENDP ; CGraphTool::SendMessage_GraphType
_TEXT	ENDS
; Function compile flags: /Ogtp
; File D:\git\src\IBK\IBK_DRFN\ProjSrc\SrcChartEx\ChartOCX\ChartObject\GraphTool.cpp
;	COMDAT ?ChangeAllVertScaleGridType@CGraphTool@@IAEXPAVCVertScaleGroup@@@Z
_TEXT	SEGMENT
_pVertScaleGroup$ = 8					; size = 4
?ChangeAllVertScaleGridType@CGraphTool@@IAEXPAVCVertScaleGroup@@@Z PROC ; CGraphTool::ChangeAllVertScaleGridType, COMDAT
; _this$ = ecx

; 221  : {

  00000	55		 push	 ebp
  00001	8b ec		 mov	 ebp, esp
  00003	56		 push	 esi

; 222  : 	if( pVertScaleGroup == NULL) return;

  00004	8b 75 08	 mov	 esi, DWORD PTR _pVertScaleGroup$[ebp]
  00007	85 f6		 test	 esi, esi
  00009	74 13		 je	 SHORT $LN1@ChangeAllV

; 223  : 
; 224  : 	CVertScaleGroupList *pVertScaleGroupList = pVertScaleGroup->GetVertScaleGroupList();

  0000b	8b ce		 mov	 ecx, esi
  0000d	e8 00 00 00 00	 call	 ?GetVertScaleGroupList@CVertScaleGroup@@QBEPAVCVertScaleGroupList@@XZ ; CVertScaleGroup::GetVertScaleGroupList

; 225  : 	if( !pVertScaleGroupList) return;

  00012	85 c0		 test	 eax, eax
  00014	74 08		 je	 SHORT $LN1@ChangeAllV

; 226  : 	pVertScaleGroupList->SetActivate( pVertScaleGroup);

  00016	56		 push	 esi
  00017	8b c8		 mov	 ecx, eax
  00019	e8 00 00 00 00	 call	 ?SetActivate@CVertScaleGroupList@@QAEXPAVCVertScaleGroup@@@Z ; CVertScaleGroupList::SetActivate
$LN1@ChangeAllV:
  0001e	5e		 pop	 esi

; 227  : }

  0001f	5d		 pop	 ebp
  00020	c2 04 00	 ret	 4
?ChangeAllVertScaleGridType@CGraphTool@@IAEXPAVCVertScaleGroup@@@Z ENDP ; CGraphTool::ChangeAllVertScaleGridType
_TEXT	ENDS
; Function compile flags: /Ogtp
; File D:\git\src\IBK\IBK_DRFN\ProjSrc\SrcChartEx\ChartOCX\ChartObject\GraphTool.cpp
;	COMDAT ?OnMenu_DataIndex@CGraphTool@@IAE_NABVCSelectedSubGraphData@@@Z
_TEXT	SEGMENT
__$EHRec$ = -12						; size = 12
$T2 = 8							; size = 4
_selectedSubGraphData$ = 8				; size = 4
?OnMenu_DataIndex@CGraphTool@@IAE_NABVCSelectedSubGraphData@@@Z PROC ; CGraphTool::OnMenu_DataIndex, COMDAT
; _this$ = ecx

; 181  : {

  00000	55		 push	 ebp
  00001	8b ec		 mov	 ebp, esp
  00003	6a ff		 push	 -1
  00005	68 00 00 00 00	 push	 __ehhandler$?OnMenu_DataIndex@CGraphTool@@IAE_NABVCSelectedSubGraphData@@@Z
  0000a	64 a1 00 00 00
	00		 mov	 eax, DWORD PTR fs:0
  00010	50		 push	 eax
  00011	53		 push	 ebx
  00012	56		 push	 esi
  00013	57		 push	 edi
  00014	a1 00 00 00 00	 mov	 eax, DWORD PTR ___security_cookie
  00019	33 c5		 xor	 eax, ebp
  0001b	50		 push	 eax
  0001c	8d 45 f4	 lea	 eax, DWORD PTR __$EHRec$[ebp]
  0001f	64 a3 00 00 00
	00		 mov	 DWORD PTR fs:0, eax
  00025	8b f1		 mov	 esi, ecx

; 182  : 	if(selectedSubGraphData.GetSubGraph() == NULL || CBaseTool::GetIChartCtrl() == NULL)

  00027	8b 5d 08	 mov	 ebx, DWORD PTR _selectedSubGraphData$[ebp]
  0002a	8b cb		 mov	 ecx, ebx
  0002c	e8 00 00 00 00	 call	 ?GetSubGraph@CSelectedSubGraphData@@QBEPAVCSubGraph@@XZ ; CSelectedSubGraphData::GetSubGraph
  00031	85 c0		 test	 eax, eax
  00033	74 68		 je	 SHORT $LN3@OnMenu_Dat
  00035	8b ce		 mov	 ecx, esi
  00037	e8 00 00 00 00	 call	 ?GetIChartCtrl@CBaseTool@@QBEPAUIChartCtrl@@XZ ; CBaseTool::GetIChartCtrl
  0003c	85 c0		 test	 eax, eax
  0003e	74 5d		 je	 SHORT $LN3@OnMenu_Dat

; 184  : 
; 185  : 	CBaseTool::GetIChartCtrl()->SetGraphSelectedDataIndex(selectedSubGraphData.GetDataIndex(), 

  00040	8b ce		 mov	 ecx, esi
  00042	e8 00 00 00 00	 call	 ?GetIChartCtrl@CBaseTool@@QBEPAUIChartCtrl@@XZ ; CBaseTool::GetIChartCtrl
  00047	8b f8		 mov	 edi, eax
  00049	8b cb		 mov	 ecx, ebx
  0004b	8d 45 08	 lea	 eax, DWORD PTR $T2[ebp]
  0004e	50		 push	 eax
  0004f	e8 00 00 00 00	 call	 ?GetGraph@CSelectedSubGraphData@@QBEPAVCGraphImp@@XZ ; CSelectedSubGraphData::GetGraph
  00054	8b c8		 mov	 ecx, eax
  00056	e8 00 00 00 00	 call	 ?GetGraphData@CGraphImp@@QAEAAVCGraphData@@XZ ; CGraphImp::GetGraphData
  0005b	8b c8		 mov	 ecx, eax
  0005d	ff 15 00 00 00
	00		 call	 DWORD PTR __imp_?GetGraphName@CGraphData@@QBE?AV?$CStringT@DV?$StrTraitMFC_DLL@DV?$ChTraitsCRT@D@ATL@@@@@ATL@@XZ
  00063	ff 30		 push	 DWORD PTR [eax]
  00065	8b 37		 mov	 esi, DWORD PTR [edi]
  00067	8b cb		 mov	 ecx, ebx
  00069	c7 45 fc 00 00
	00 00		 mov	 DWORD PTR __$EHRec$[ebp+8], 0
  00070	e8 00 00 00 00	 call	 ?GetDataIndex@CSelectedSubGraphData@@QBEHXZ ; CSelectedSubGraphData::GetDataIndex
  00075	50		 push	 eax
  00076	8b cf		 mov	 ecx, edi
  00078	ff 96 88 07 00
	00		 call	 DWORD PTR [esi+1928]
  0007e	8d 4d 08	 lea	 ecx, DWORD PTR $T2[ebp]
  00081	ff 15 00 00 00
	00		 call	 DWORD PTR __imp_??1?$CStringT@DV?$StrTraitMFC_DLL@DV?$ChTraitsCRT@D@ATL@@@@@ATL@@QAE@XZ

; 186  : 		selectedSubGraphData.GetGraph()->GetGraphData().GetGraphName());
; 187  : 	return true;

  00087	b0 01		 mov	 al, 1

; 188  : }

  00089	8b 4d f4	 mov	 ecx, DWORD PTR __$EHRec$[ebp]
  0008c	64 89 0d 00 00
	00 00		 mov	 DWORD PTR fs:0, ecx
  00093	59		 pop	 ecx
  00094	5f		 pop	 edi
  00095	5e		 pop	 esi
  00096	5b		 pop	 ebx
  00097	8b e5		 mov	 esp, ebp
  00099	5d		 pop	 ebp
  0009a	c2 04 00	 ret	 4
$LN3@OnMenu_Dat:

; 183  : 		return false;

  0009d	32 c0		 xor	 al, al

; 188  : }

  0009f	8b 4d f4	 mov	 ecx, DWORD PTR __$EHRec$[ebp]
  000a2	64 89 0d 00 00
	00 00		 mov	 DWORD PTR fs:0, ecx
  000a9	59		 pop	 ecx
  000aa	5f		 pop	 edi
  000ab	5e		 pop	 esi
  000ac	5b		 pop	 ebx
  000ad	8b e5		 mov	 esp, ebp
  000af	5d		 pop	 ebp
  000b0	c2 04 00	 ret	 4
_TEXT	ENDS
;	COMDAT text$x
text$x	SEGMENT
__unwindfunclet$?OnMenu_DataIndex@CGraphTool@@IAE_NABVCSelectedSubGraphData@@@Z$0:
  00000	8d 4d 08	 lea	 ecx, DWORD PTR $T2[ebp]
  00003	ff 25 00 00 00
	00		 jmp	 DWORD PTR __imp_??1?$CStringT@DV?$StrTraitMFC_DLL@DV?$ChTraitsCRT@D@ATL@@@@@ATL@@QAE@XZ
  00009	cc		 int	 3
  0000a	cc		 int	 3
  0000b	cc		 int	 3
  0000c	cc		 int	 3
  0000d	cc		 int	 3
__ehhandler$?OnMenu_DataIndex@CGraphTool@@IAE_NABVCSelectedSubGraphData@@@Z:
  0000e	90		 npad	 1
  0000f	90		 npad	 1
  00010	8b 54 24 08	 mov	 edx, DWORD PTR [esp+8]
  00014	8d 42 0c	 lea	 eax, DWORD PTR [edx+12]
  00017	8b 4a f0	 mov	 ecx, DWORD PTR [edx-16]
  0001a	33 c8		 xor	 ecx, eax
  0001c	e8 00 00 00 00	 call	 @__security_check_cookie@4
  00021	b8 00 00 00 00	 mov	 eax, OFFSET __ehfuncinfo$?OnMenu_DataIndex@CGraphTool@@IAE_NABVCSelectedSubGraphData@@@Z
  00026	e9 00 00 00 00	 jmp	 ___CxxFrameHandler3
text$x	ENDS
?OnMenu_DataIndex@CGraphTool@@IAE_NABVCSelectedSubGraphData@@@Z ENDP ; CGraphTool::OnMenu_DataIndex
; Function compile flags: /Ogtp
; File D:\git\src\IBK\IBK_DRFN\ProjSrc\SrcChartEx\ChartOCX\ChartObject\GraphTool.cpp
;	COMDAT ?LoadIndicatorConfiguration@CGraphTool@@IAE_NPAVCMainBlock@@PAVCSubGraph@@@Z
_TEXT	SEGMENT
_this$1$ = -16						; size = 4
__$EHRec$ = -12						; size = 12
_pMainBlock$ = 8					; size = 4
$T2 = 12						; size = 4
_pSubGraph$ = 12					; size = 4
_bResult$1$ = 15					; size = 1
?LoadIndicatorConfiguration@CGraphTool@@IAE_NPAVCMainBlock@@PAVCSubGraph@@@Z PROC ; CGraphTool::LoadIndicatorConfiguration, COMDAT
; _this$ = ecx

; 192  : {

  00000	55		 push	 ebp
  00001	8b ec		 mov	 ebp, esp
  00003	6a ff		 push	 -1
  00005	68 00 00 00 00	 push	 __ehhandler$?LoadIndicatorConfiguration@CGraphTool@@IAE_NPAVCMainBlock@@PAVCSubGraph@@@Z
  0000a	64 a1 00 00 00
	00		 mov	 eax, DWORD PTR fs:0
  00010	50		 push	 eax
  00011	51		 push	 ecx
  00012	53		 push	 ebx
  00013	56		 push	 esi
  00014	57		 push	 edi
  00015	a1 00 00 00 00	 mov	 eax, DWORD PTR ___security_cookie
  0001a	33 c5		 xor	 eax, ebp
  0001c	50		 push	 eax
  0001d	8d 45 f4	 lea	 eax, DWORD PTR __$EHRec$[ebp]
  00020	64 a3 00 00 00
	00		 mov	 DWORD PTR fs:0, eax
  00026	89 4d f0	 mov	 DWORD PTR _this$1$[ebp], ecx

; 193  : 	if( !pSubGraph) return false;

  00029	8b 4d 0c	 mov	 ecx, DWORD PTR _pSubGraph$[ebp]
  0002c	85 c9		 test	 ecx, ecx
  0002e	0f 84 a8 00 00
	00		 je	 $LN12@LoadIndica

; 194  : 	CGraphImp *pGraph = pSubGraph->GetGraph();

  00034	e8 00 00 00 00	 call	 ?GetGraph@CSubGraph@@QBEPAVCGraphImp@@XZ ; CSubGraph::GetGraph
  00039	8b f8		 mov	 edi, eax

; 195  : 	if( !pGraph) return false;

  0003b	85 ff		 test	 edi, edi
  0003d	0f 84 99 00 00
	00		 je	 $LN12@LoadIndica

; 196  : 	pGraph->ChangeIndicatorInfoFromGraphData();

  00043	8b cf		 mov	 ecx, edi
  00045	e8 00 00 00 00	 call	 ?ChangeIndicatorInfoFromGraphData@CGraphImp@@QAE_NXZ ; CGraphImp::ChangeIndicatorInfoFromGraphData

; 197  : 	CIndicatorInfo * pIndicatorInfo = pGraph->GetIndicatorInfo();

  0004a	8b cf		 mov	 ecx, edi
  0004c	e8 00 00 00 00	 call	 ?GetIndicatorInfo@CGraphImp@@QAEPAVCIndicatorInfo@@XZ ; CGraphImp::GetIndicatorInfo
  00051	8b f0		 mov	 esi, eax

; 198  : 	// "  " :  CIndcatorInfo   .
; 199  : 	CIndicatorInfo *pIndicatorInfo2 = NULL;

  00053	33 db		 xor	 ebx, ebx

; 200  : 	if( !pIndicatorInfo)

  00055	85 f6		 test	 esi, esi
  00057	75 3a		 jne	 SHORT $LN4@LoadIndica

; 201  : 	{
; 202  : 		pIndicatorInfo2 = new CIndicatorInfo( EIIT_GENERAL);

  00059	6a 08		 push	 8
  0005b	e8 00 00 00 00	 call	 ??2@YAPAXI@Z		; operator new
  00060	8b f0		 mov	 esi, eax
  00062	83 c4 04	 add	 esp, 4
  00065	89 75 0c	 mov	 DWORD PTR $T2[ebp], esi
  00068	89 5d fc	 mov	 DWORD PTR __$EHRec$[ebp+8], ebx
  0006b	85 f6		 test	 esi, esi
  0006d	74 11		 je	 SHORT $LN7@LoadIndica
  0006f	53		 push	 ebx
  00070	8b ce		 mov	 ecx, esi
  00072	ff 15 00 00 00
	00		 call	 DWORD PTR __imp_??0CIndicatorInfo@@QAE@W4EIndicatorInfoType@@@Z
  00078	c7 06 00 00 00
	00		 mov	 DWORD PTR [esi], OFFSET ??_SCIndicatorInfo@@6B@
  0007e	eb 02		 jmp	 SHORT $LN8@LoadIndica
$LN7@LoadIndica:
  00080	33 f6		 xor	 esi, esi
$LN8@LoadIndica:

; 203  : 		pGraph->ChangeIndicatorInfoFromGraphData( *pIndicatorInfo2);

  00082	56		 push	 esi
  00083	8b cf		 mov	 ecx, edi
  00085	c7 45 fc ff ff
	ff ff		 mov	 DWORD PTR __$EHRec$[ebp+8], -1
  0008c	8b de		 mov	 ebx, esi
  0008e	e8 00 00 00 00	 call	 ?ChangeIndicatorInfoFromGraphData@CGraphImp@@QAE_NAAVCIndicatorInfo@@@Z ; CGraphImp::ChangeIndicatorInfoFromGraphData
$LN4@LoadIndica:

; 204  : 		pIndicatorInfo = pIndicatorInfo2;
; 205  : 	}
; 206  : 
; 207  : 	bool bResult = CBaseTool::GetIChartCtrl()->ShowIndicatorConfigDlg( pIndicatorInfo) == IDOK;

  00093	8b 4d f0	 mov	 ecx, DWORD PTR _this$1$[ebp]
  00096	e8 00 00 00 00	 call	 ?GetIChartCtrl@CBaseTool@@QBEPAUIChartCtrl@@XZ ; CBaseTool::GetIChartCtrl
  0009b	56		 push	 esi
  0009c	8b c8		 mov	 ecx, eax
  0009e	8b 10		 mov	 edx, DWORD PTR [eax]
  000a0	ff 92 08 04 00
	00		 call	 DWORD PTR [edx+1032]
  000a6	83 f8 01	 cmp	 eax, 1
  000a9	0f 94 c0	 sete	 al
  000ac	88 45 0f	 mov	 BYTE PTR _bResult$1$[ebp], al

; 208  : 	if( pIndicatorInfo2)

  000af	85 db		 test	 ebx, ebx
  000b1	74 2b		 je	 SHORT $LN1@LoadIndica

; 209  : 	{
; 210  : 		// (2007/1/12 - Seung-Won, Bae) Update with Temporary IndicatorInfo.
; 211  : 		pGraph->ChangeGraphDataFromIndicatorInfo( *pIndicatorInfo2, FALSE);

  000b3	6a 00		 push	 0
  000b5	53		 push	 ebx
  000b6	8b cf		 mov	 ecx, edi
  000b8	e8 00 00 00 00	 call	 ?ChangeGraphDataFromIndicatorInfo@CGraphImp@@QAEHAAVCIndicatorInfo@@_N@Z ; CGraphImp::ChangeGraphDataFromIndicatorInfo

; 212  : 		delete pIndicatorInfo2;

  000bd	8b 13		 mov	 edx, DWORD PTR [ebx]
  000bf	8b cb		 mov	 ecx, ebx
  000c1	6a 01		 push	 1
  000c3	ff 12		 call	 DWORD PTR [edx]
  000c5	8a 45 0f	 mov	 al, BYTE PTR _bResult$1$[ebp]

; 213  : 	}
; 214  : 	return bResult;
; 215  : }

  000c8	8b 4d f4	 mov	 ecx, DWORD PTR __$EHRec$[ebp]
  000cb	64 89 0d 00 00
	00 00		 mov	 DWORD PTR fs:0, ecx
  000d2	59		 pop	 ecx
  000d3	5f		 pop	 edi
  000d4	5e		 pop	 esi
  000d5	5b		 pop	 ebx
  000d6	8b e5		 mov	 esp, ebp
  000d8	5d		 pop	 ebp
  000d9	c2 08 00	 ret	 8
$LN12@LoadIndica:

; 195  : 	if( !pGraph) return false;

  000dc	32 c0		 xor	 al, al
$LN1@LoadIndica:

; 213  : 	}
; 214  : 	return bResult;
; 215  : }

  000de	8b 4d f4	 mov	 ecx, DWORD PTR __$EHRec$[ebp]
  000e1	64 89 0d 00 00
	00 00		 mov	 DWORD PTR fs:0, ecx
  000e8	59		 pop	 ecx
  000e9	5f		 pop	 edi
  000ea	5e		 pop	 esi
  000eb	5b		 pop	 ebx
  000ec	8b e5		 mov	 esp, ebp
  000ee	5d		 pop	 ebp
  000ef	c2 08 00	 ret	 8
_TEXT	ENDS
;	COMDAT text$x
text$x	SEGMENT
__unwindfunclet$?LoadIndicatorConfiguration@CGraphTool@@IAE_NPAVCMainBlock@@PAVCSubGraph@@@Z$0:
  00000	6a 08		 push	 8
  00002	8b 45 0c	 mov	 eax, DWORD PTR $T2[ebp]
  00005	50		 push	 eax
  00006	e8 00 00 00 00	 call	 ??3@YAXPAXI@Z		; operator delete
  0000b	83 c4 08	 add	 esp, 8
  0000e	c3		 ret	 0
  0000f	cc		 int	 3
  00010	cc		 int	 3
  00011	cc		 int	 3
  00012	cc		 int	 3
  00013	cc		 int	 3
__ehhandler$?LoadIndicatorConfiguration@CGraphTool@@IAE_NPAVCMainBlock@@PAVCSubGraph@@@Z:
  00014	90		 npad	 1
  00015	90		 npad	 1
  00016	8b 54 24 08	 mov	 edx, DWORD PTR [esp+8]
  0001a	8d 42 0c	 lea	 eax, DWORD PTR [edx+12]
  0001d	8b 4a ec	 mov	 ecx, DWORD PTR [edx-20]
  00020	33 c8		 xor	 ecx, eax
  00022	e8 00 00 00 00	 call	 @__security_check_cookie@4
  00027	b8 00 00 00 00	 mov	 eax, OFFSET __ehfuncinfo$?LoadIndicatorConfiguration@CGraphTool@@IAE_NPAVCMainBlock@@PAVCSubGraph@@@Z
  0002c	e9 00 00 00 00	 jmp	 ___CxxFrameHandler3
text$x	ENDS
?LoadIndicatorConfiguration@CGraphTool@@IAE_NPAVCMainBlock@@PAVCSubGraph@@@Z ENDP ; CGraphTool::LoadIndicatorConfiguration
; Function compile flags: /Ogtp
; File D:\git\src\IBK\IBK_DRFN\ProjSrc\SrcChartEx\ChartOCX\ChartObject\GraphTool.cpp
;	COMDAT ?GetGraph@CGraphTool@@IBEPAVCGraphImp@@PAVCSubGraph@@@Z
_TEXT	SEGMENT
_pSubGraph$ = 8						; size = 4
?GetGraph@CGraphTool@@IBEPAVCGraphImp@@PAVCSubGraph@@@Z PROC ; CGraphTool::GetGraph, COMDAT
; _this$ = ecx

; 162  : {

  00000	55		 push	 ebp
  00001	8b ec		 mov	 ebp, esp

; 163  : 	if(pSubGraph == NULL)

  00003	8b 4d 08	 mov	 ecx, DWORD PTR _pSubGraph$[ebp]
  00006	85 c9		 test	 ecx, ecx
  00008	75 06		 jne	 SHORT $LN2@GetGraph

; 164  : 		return NULL;

  0000a	33 c0		 xor	 eax, eax

; 166  : }

  0000c	5d		 pop	 ebp
  0000d	c2 04 00	 ret	 4
$LN2@GetGraph:

; 165  : 	return pSubGraph->GetSubGraphList()->GetGraph();

  00010	e8 00 00 00 00	 call	 ?GetSubGraphList@CSubGraph@@QBEPAVCSubGraphList@@XZ ; CSubGraph::GetSubGraphList
  00015	8b c8		 mov	 ecx, eax
  00017	e8 00 00 00 00	 call	 ?GetGraph@CSubGraphList@@QBEPAVCGraphImp@@XZ ; CSubGraphList::GetGraph

; 166  : }

  0001c	5d		 pop	 ebp
  0001d	c2 04 00	 ret	 4
?GetGraph@CGraphTool@@IBEPAVCGraphImp@@PAVCSubGraph@@@Z ENDP ; CGraphTool::GetGraph
_TEXT	ENDS
; Function compile flags: /Ogtp
; File D:\git\src\IBK\IBK_DRFN\ProjSrc\SrcChartEx\ChartOCX\ChartObject\GraphTool.cpp
; File C:\Program Files (x86)\Microsoft Visual Studio\2019\Community\VC\Tools\MSVC\14.29.30133\atlmfc\include\atlsimpstr.h
; File D:\git\src\IBK\IBK_DRFN\ProjSrc\SrcChartEx\ChartOCX\ChartObject\GraphTool.cpp
; File C:\Program Files (x86)\Microsoft Visual Studio\2019\Community\VC\Tools\MSVC\14.29.30133\atlmfc\include\atlsimpstr.h
; File D:\git\src\IBK\IBK_DRFN\ProjSrc\SrcChartEx\ChartOCX\ChartObject\GraphTool.cpp
; File C:\Program Files (x86)\Microsoft Visual Studio\2019\Community\VC\Tools\MSVC\14.29.30133\atlmfc\include\cstringt.h
; File D:\git\src\IBK\IBK_DRFN\ProjSrc\SrcChartEx\ChartOCX\ChartObject\GraphTool.cpp
; File C:\Program Files (x86)\Microsoft Visual Studio\2019\Community\VC\Tools\MSVC\14.29.30133\atlmfc\include\atlsimpstr.h
; File D:\git\src\IBK\IBK_DRFN\ProjSrc\SrcChartEx\ChartOCX\ChartObject\GraphTool.cpp
;	COMDAT ?GetMenuCheck_SubGraphSelectTimeDiff@CGraphTool@@UAE_NPAVCMainBlock@@PAVCSubGraph@@PAVCTimeDiffInfo@@@Z
_TEXT	SEGMENT
__$EHRec$ = -12						; size = 12
_pMainBlock$ = 8					; size = 4
_pSubGraph$ = 12					; size = 4
_strTimeName$ = 16					; size = 4
_pTimeInfo$ = 16					; size = 4
?GetMenuCheck_SubGraphSelectTimeDiff@CGraphTool@@UAE_NPAVCMainBlock@@PAVCSubGraph@@PAVCTimeDiffInfo@@@Z PROC ; CGraphTool::GetMenuCheck_SubGraphSelectTimeDiff, COMDAT
; _this$ = ecx

; 424  : {

  00000	55		 push	 ebp
  00001	8b ec		 mov	 ebp, esp
  00003	6a ff		 push	 -1
  00005	68 00 00 00 00	 push	 __ehhandler$?GetMenuCheck_SubGraphSelectTimeDiff@CGraphTool@@UAE_NPAVCMainBlock@@PAVCSubGraph@@PAVCTimeDiffInfo@@@Z
  0000a	64 a1 00 00 00
	00		 mov	 eax, DWORD PTR fs:0
  00010	50		 push	 eax
  00011	53		 push	 ebx
  00012	56		 push	 esi
  00013	57		 push	 edi
  00014	a1 00 00 00 00	 mov	 eax, DWORD PTR ___security_cookie
  00019	33 c5		 xor	 eax, ebp
  0001b	50		 push	 eax
  0001c	8d 45 f4	 lea	 eax, DWORD PTR __$EHRec$[ebp]
  0001f	64 a3 00 00 00
	00		 mov	 DWORD PTR fs:0, eax

; 425  : 	if( pTimeInfo == NULL )		return false;

  00025	8b 75 10	 mov	 esi, DWORD PTR _pTimeInfo$[ebp]
  00028	85 f6		 test	 esi, esi
  0002a	75 16		 jne	 SHORT $LN2@GetMenuChe
  0002c	32 c0		 xor	 al, al

; 437  : }

  0002e	8b 4d f4	 mov	 ecx, DWORD PTR __$EHRec$[ebp]
  00031	64 89 0d 00 00
	00 00		 mov	 DWORD PTR fs:0, ecx
  00038	59		 pop	 ecx
  00039	5f		 pop	 edi
  0003a	5e		 pop	 esi
  0003b	5b		 pop	 ebx
  0003c	8b e5		 mov	 esp, ebp
  0003e	5d		 pop	 ebp
  0003f	c2 0c 00	 ret	 12			; 0000000cH
$LN2@GetMenuChe:

; 426  : 
; 427  : 	CGraphImp* pGraph = pSubGraph->GetGraph();

  00042	8b 4d 0c	 mov	 ecx, DWORD PTR _pSubGraph$[ebp]
  00045	e8 00 00 00 00	 call	 ?GetGraph@CSubGraph@@QBEPAVCGraphImp@@XZ ; CSubGraph::GetGraph
  0004a	8b f8		 mov	 edi, eax

; 428  : 	CString strTimeName = pGraph->GetPacketTimeDiffName();

  0004c	8b cf		 mov	 ecx, edi
  0004e	e8 00 00 00 00	 call	 ?GetPacketTimeDiffName@CGraphImp@@QAEPBDXZ ; CGraphImp::GetPacketTimeDiffName
  00053	50		 push	 eax
  00054	8d 4d 10	 lea	 ecx, DWORD PTR _strTimeName$[ebp]
  00057	ff 15 00 00 00
	00		 call	 DWORD PTR __imp_??0?$CStringT@DV?$StrTraitMFC_DLL@DV?$ChTraitsCRT@D@ATL@@@@@ATL@@QAE@PBD@Z
; File C:\Program Files (x86)\Microsoft Visual Studio\2019\Community\VC\Tools\MSVC\14.29.30133\atlmfc\include\atlsimpstr.h

; 533  : 		return( GetLength() == 0 );

  0005d	8b 4d 10	 mov	 ecx, DWORD PTR _strTimeName$[ebp]
; File D:\git\src\IBK\IBK_DRFN\ProjSrc\SrcChartEx\ChartOCX\ChartObject\GraphTool.cpp

; 428  : 	CString strTimeName = pGraph->GetPacketTimeDiffName();

  00060	c7 45 fc 00 00
	00 00		 mov	 DWORD PTR __$EHRec$[ebp+8], 0
; File C:\Program Files (x86)\Microsoft Visual Studio\2019\Community\VC\Tools\MSVC\14.29.30133\atlmfc\include\atlsimpstr.h

; 533  : 		return( GetLength() == 0 );

  00067	83 79 f4 00	 cmp	 DWORD PTR [ecx-12], 0
; File D:\git\src\IBK\IBK_DRFN\ProjSrc\SrcChartEx\ChartOCX\ChartObject\GraphTool.cpp

; 429  : 	if( !strTimeName.IsEmpty() && strTimeName == pTimeInfo->m_strName )

  0006b	74 14		 je	 SHORT $LN3@GetMenuChe
; File C:\Program Files (x86)\Microsoft Visual Studio\2019\Community\VC\Tools\MSVC\14.29.30133\atlmfc\include\cstringt.h

; 2479 : 		return(str1.Compare(str2) == 0);

  0006d	ff 76 04	 push	 DWORD PTR [esi+4]
  00070	8d 4d 10	 lea	 ecx, DWORD PTR _strTimeName$[ebp]
  00073	ff 15 00 00 00
	00		 call	 DWORD PTR __imp_?Compare@?$CStringT@DV?$StrTraitMFC_DLL@DV?$ChTraitsCRT@D@ATL@@@@@ATL@@QBEHPBD@Z
  00079	85 c0		 test	 eax, eax
; File D:\git\src\IBK\IBK_DRFN\ProjSrc\SrcChartEx\ChartOCX\ChartObject\GraphTool.cpp

; 429  : 	if( !strTimeName.IsEmpty() && strTimeName == pTimeInfo->m_strName )

  0007b	75 04		 jne	 SHORT $LN3@GetMenuChe
  0007d	b3 01		 mov	 bl, 1
  0007f	eb 15		 jmp	 SHORT $LN7@GetMenuChe
$LN3@GetMenuChe:
; File C:\Program Files (x86)\Microsoft Visual Studio\2019\Community\VC\Tools\MSVC\14.29.30133\atlmfc\include\atlsimpstr.h

; 533  : 		return( GetLength() == 0 );

  00081	8b 46 04	 mov	 eax, DWORD PTR [esi+4]
  00084	83 78 f4 00	 cmp	 DWORD PTR [eax-12], 0
; File D:\git\src\IBK\IBK_DRFN\ProjSrc\SrcChartEx\ChartOCX\ChartObject\GraphTool.cpp

; 431  : 	if( pTimeInfo->m_strName.IsEmpty() )	//   

  00088	75 0a		 jne	 SHORT $LN4@GetMenuChe

; 432  : 	{
; 433  : 		pTimeInfo->m_nDiffTime = pGraph->GetPacketOrgBaseTimeDiff();

  0008a	8b cf		 mov	 ecx, edi
  0008c	e8 00 00 00 00	 call	 ?GetPacketOrgBaseTimeDiff@CGraphImp@@QAEHXZ ; CGraphImp::GetPacketOrgBaseTimeDiff
  00091	89 46 08	 mov	 DWORD PTR [esi+8], eax
$LN4@GetMenuChe:

; 434  : 	}
; 435  : 
; 436  : 	return false;

  00094	32 db		 xor	 bl, bl
$LN7@GetMenuChe:
  00096	8d 4d 10	 lea	 ecx, DWORD PTR _strTimeName$[ebp]
  00099	ff 15 00 00 00
	00		 call	 DWORD PTR __imp_??1?$CStringT@DV?$StrTraitMFC_DLL@DV?$ChTraitsCRT@D@ATL@@@@@ATL@@QAE@XZ
  0009f	8a c3		 mov	 al, bl

; 437  : }

  000a1	8b 4d f4	 mov	 ecx, DWORD PTR __$EHRec$[ebp]
  000a4	64 89 0d 00 00
	00 00		 mov	 DWORD PTR fs:0, ecx
  000ab	59		 pop	 ecx
  000ac	5f		 pop	 edi
  000ad	5e		 pop	 esi
  000ae	5b		 pop	 ebx
  000af	8b e5		 mov	 esp, ebp
  000b1	5d		 pop	 ebp
  000b2	c2 0c 00	 ret	 12			; 0000000cH
_TEXT	ENDS
;	COMDAT text$x
text$x	SEGMENT
__unwindfunclet$?GetMenuCheck_SubGraphSelectTimeDiff@CGraphTool@@UAE_NPAVCMainBlock@@PAVCSubGraph@@PAVCTimeDiffInfo@@@Z$0:
  00000	8d 4d 10	 lea	 ecx, DWORD PTR _strTimeName$[ebp]
  00003	ff 25 00 00 00
	00		 jmp	 DWORD PTR __imp_??1?$CStringT@DV?$StrTraitMFC_DLL@DV?$ChTraitsCRT@D@ATL@@@@@ATL@@QAE@XZ
  00009	cc		 int	 3
  0000a	cc		 int	 3
  0000b	cc		 int	 3
  0000c	cc		 int	 3
  0000d	cc		 int	 3
__ehhandler$?GetMenuCheck_SubGraphSelectTimeDiff@CGraphTool@@UAE_NPAVCMainBlock@@PAVCSubGraph@@PAVCTimeDiffInfo@@@Z:
  0000e	90		 npad	 1
  0000f	90		 npad	 1
  00010	8b 54 24 08	 mov	 edx, DWORD PTR [esp+8]
  00014	8d 42 0c	 lea	 eax, DWORD PTR [edx+12]
  00017	8b 4a f0	 mov	 ecx, DWORD PTR [edx-16]
  0001a	33 c8		 xor	 ecx, eax
  0001c	e8 00 00 00 00	 call	 @__security_check_cookie@4
  00021	b8 00 00 00 00	 mov	 eax, OFFSET __ehfuncinfo$?GetMenuCheck_SubGraphSelectTimeDiff@CGraphTool@@UAE_NPAVCMainBlock@@PAVCSubGraph@@PAVCTimeDiffInfo@@@Z
  00026	e9 00 00 00 00	 jmp	 ___CxxFrameHandler3
text$x	ENDS
?GetMenuCheck_SubGraphSelectTimeDiff@CGraphTool@@UAE_NPAVCMainBlock@@PAVCSubGraph@@PAVCTimeDiffInfo@@@Z ENDP ; CGraphTool::GetMenuCheck_SubGraphSelectTimeDiff
; Function compile flags: /Ogtp
; File D:\git\src\IBK\IBK_DRFN\ProjSrc\SrcChartEx\ChartOCX\ChartObject\GraphTool.cpp
;	COMDAT ?OnMenu_SubGraphSelectTimeDiff@CGraphTool@@UAE_NPAVCMainBlock@@PAVCSubGraph@@PAVCTimeDiffInfo@@@Z
_TEXT	SEGMENT
_pMainBlock$ = 8					; size = 4
_pSubGraph$ = 12					; size = 4
_pTimeInfo$ = 16					; size = 4
?OnMenu_SubGraphSelectTimeDiff@CGraphTool@@UAE_NPAVCMainBlock@@PAVCSubGraph@@PAVCTimeDiffInfo@@@Z PROC ; CGraphTool::OnMenu_SubGraphSelectTimeDiff, COMDAT
; _this$ = ecx

; 411  : {

  00000	55		 push	 ebp
  00001	8b ec		 mov	 ebp, esp

; 412  : 	CGraphImp* pGraph = pSubGraph->GetGraph();

  00003	8b 4d 0c	 mov	 ecx, DWORD PTR _pSubGraph$[ebp]
  00006	56		 push	 esi
  00007	e8 00 00 00 00	 call	 ?GetGraph@CSubGraph@@QBEPAVCGraphImp@@XZ ; CSubGraph::GetGraph
  0000c	8b f0		 mov	 esi, eax

; 413  : 
; 414  : 	if( pTimeInfo == NULL )	//  return

  0000e	8b 45 10	 mov	 eax, DWORD PTR _pTimeInfo$[ebp]
  00011	85 c0		 test	 eax, eax
  00013	75 1d		 jne	 SHORT $LN2@OnMenu_Sub

; 415  : 		pGraph->SetPacketTimeDiff("", 0);

  00015	50		 push	 eax
  00016	51		 push	 ecx
  00017	8b cc		 mov	 ecx, esp
  00019	68 00 00 00 00	 push	 OFFSET ??_C@_00CNPNBAHC@@
  0001e	ff 15 00 00 00
	00		 call	 DWORD PTR __imp_??0?$CStringT@DV?$StrTraitMFC_DLL@DV?$ChTraitsCRT@D@ATL@@@@@ATL@@QAE@PBD@Z

; 418  : 
; 419  : 	return true;
; 420  : }

  00024	8b ce		 mov	 ecx, esi
  00026	e8 00 00 00 00	 call	 ?SetPacketTimeDiff@CGraphImp@@QAEXV?$CStringT@DV?$StrTraitMFC_DLL@DV?$ChTraitsCRT@D@ATL@@@@@ATL@@H@Z ; CGraphImp::SetPacketTimeDiff
  0002b	b0 01		 mov	 al, 1
  0002d	5e		 pop	 esi
  0002e	5d		 pop	 ebp
  0002f	c2 0c 00	 ret	 12			; 0000000cH
$LN2@OnMenu_Sub:

; 416  : 	else
; 417  : 		pGraph->SetPacketTimeDiff(pTimeInfo->m_strName, pTimeInfo->m_nDiffTime);

  00032	ff 70 08	 push	 DWORD PTR [eax+8]
  00035	83 c0 04	 add	 eax, 4
  00038	51		 push	 ecx
  00039	8b cc		 mov	 ecx, esp
  0003b	50		 push	 eax
  0003c	ff 15 00 00 00
	00		 call	 DWORD PTR __imp_??0?$CStringT@DV?$StrTraitMFC_DLL@DV?$ChTraitsCRT@D@ATL@@@@@ATL@@QAE@ABV01@@Z

; 418  : 
; 419  : 	return true;
; 420  : }

  00042	8b ce		 mov	 ecx, esi
  00044	e8 00 00 00 00	 call	 ?SetPacketTimeDiff@CGraphImp@@QAEXV?$CStringT@DV?$StrTraitMFC_DLL@DV?$ChTraitsCRT@D@ATL@@@@@ATL@@H@Z ; CGraphImp::SetPacketTimeDiff
  00049	b0 01		 mov	 al, 1
  0004b	5e		 pop	 esi
  0004c	5d		 pop	 ebp
  0004d	c2 0c 00	 ret	 12			; 0000000cH
?OnMenu_SubGraphSelectTimeDiff@CGraphTool@@UAE_NPAVCMainBlock@@PAVCSubGraph@@PAVCTimeDiffInfo@@@Z ENDP ; CGraphTool::OnMenu_SubGraphSelectTimeDiff
_TEXT	ENDS
; Function compile flags: /Ogtp
; File D:\git\src\IBK\IBK_DRFN\ProjSrc\SrcChartEx\ChartOCX\ChartObject\GraphTool.cpp
;	COMDAT ?GetMenuCheck_SubGraphInvert@CGraphTool@@UAE_NPAVCMainBlock@@PAVCSubGraph@@@Z
_TEXT	SEGMENT
_pMainBlock$ = 8					; size = 4
_pSubGraph$ = 12					; size = 4
?GetMenuCheck_SubGraphInvert@CGraphTool@@UAE_NPAVCMainBlock@@PAVCSubGraph@@@Z PROC ; CGraphTool::GetMenuCheck_SubGraphInvert, COMDAT
; _this$ = ecx

; 402  : {

  00000	55		 push	 ebp
  00001	8b ec		 mov	 ebp, esp

; 403  : 	CGraphImp* pGraph = pSubGraph->GetGraph();

  00003	8b 4d 0c	 mov	 ecx, DWORD PTR _pSubGraph$[ebp]
  00006	e8 00 00 00 00	 call	 ?GetGraph@CSubGraph@@QBEPAVCGraphImp@@XZ ; CSubGraph::GetGraph

; 404  : 	CVertScaleGroup* pGroup = pGraph->GetVertScaleGroup();

  0000b	8b c8		 mov	 ecx, eax
  0000d	e8 00 00 00 00	 call	 ?GetVertScaleGroup@CGraphImp@@QBEPAVCVertScaleGroup@@XZ ; CGraphImp::GetVertScaleGroup

; 405  : 
; 406  : 	return pGroup->GetVertScaleInvertType();

  00012	8b c8		 mov	 ecx, eax
  00014	e8 00 00 00 00	 call	 ?GetVertScaleInvertType@CVertScaleGroup@@QBE_NXZ ; CVertScaleGroup::GetVertScaleInvertType

; 407  : }

  00019	5d		 pop	 ebp
  0001a	c2 08 00	 ret	 8
?GetMenuCheck_SubGraphInvert@CGraphTool@@UAE_NPAVCMainBlock@@PAVCSubGraph@@@Z ENDP ; CGraphTool::GetMenuCheck_SubGraphInvert
_TEXT	ENDS
; Function compile flags: /Ogtp
; File D:\git\src\IBK\IBK_DRFN\ProjSrc\SrcChartEx\ChartOCX\ChartObject\GraphTool.cpp
; File C:\Program Files (x86)\Microsoft Visual Studio\2019\Community\VC\Tools\MSVC\14.29.30133\atlmfc\include\cstringt.h
; File D:\git\src\IBK\IBK_DRFN\ProjSrc\SrcChartEx\ChartOCX\ChartObject\GraphTool.cpp
; File C:\Program Files (x86)\Microsoft Visual Studio\2019\Community\VC\Tools\MSVC\14.29.30133\atlmfc\include\cstringt.h
; File D:\git\src\IBK\IBK_DRFN\ProjSrc\SrcChartEx\ChartOCX\ChartObject\GraphTool.cpp
; File C:\Program Files (x86)\Microsoft Visual Studio\2019\Community\VC\Tools\MSVC\14.29.30133\atlmfc\include\cstringt.h
; File D:\git\src\IBK\IBK_DRFN\ProjSrc\SrcChartEx\ChartOCX\ChartObject\GraphTool.cpp
; File C:\Program Files (x86)\Microsoft Visual Studio\2019\Community\VC\Tools\MSVC\14.29.30133\atlmfc\include\cstringt.h
; File D:\git\src\IBK\IBK_DRFN\ProjSrc\SrcChartEx\ChartOCX\ChartObject\GraphTool.cpp
; File C:\Program Files (x86)\Microsoft Visual Studio\2019\Community\VC\Tools\MSVC\14.29.30133\atlmfc\include\cstringt.h
; File D:\git\src\IBK\IBK_DRFN\ProjSrc\SrcChartEx\ChartOCX\ChartObject\GraphTool.cpp
;	COMDAT ?IsGeneralGraph@CGraphTool@@UAEPAVCGraphImp@@PAV2@PAVCVertScaleGroup@@@Z
_TEXT	SEGMENT
_strName$ = -16						; size = 4
__$EHRec$ = -12						; size = 12
$T2 = 8							; size = 4
$T3 = 8							; size = 4
$T4 = 8							; size = 4
$T5 = 8							; size = 4
_pGraph$ = 8						; size = 4
_pGroup$ = 12						; size = 4
?IsGeneralGraph@CGraphTool@@UAEPAVCGraphImp@@PAV2@PAVCVertScaleGroup@@@Z PROC ; CGraphTool::IsGeneralGraph, COMDAT
; _this$ = ecx

; 384  : {

  00000	55		 push	 ebp
  00001	8b ec		 mov	 ebp, esp
  00003	6a ff		 push	 -1
  00005	68 00 00 00 00	 push	 __ehhandler$?IsGeneralGraph@CGraphTool@@UAEPAVCGraphImp@@PAV2@PAVCVertScaleGroup@@@Z
  0000a	64 a1 00 00 00
	00		 mov	 eax, DWORD PTR fs:0
  00010	50		 push	 eax
  00011	51		 push	 ecx
  00012	56		 push	 esi
  00013	a1 00 00 00 00	 mov	 eax, DWORD PTR ___security_cookie
  00018	33 c5		 xor	 eax, ebp
  0001a	50		 push	 eax
  0001b	8d 45 f4	 lea	 eax, DWORD PTR __$EHRec$[ebp]
  0001e	64 a3 00 00 00
	00		 mov	 DWORD PTR fs:0, eax

; 385  : 	CString strName = pGraph->GetIndicatorInfo()->GetGraphName();

  00024	8b 4d 08	 mov	 ecx, DWORD PTR _pGraph$[ebp]
  00027	8d 45 f0	 lea	 eax, DWORD PTR _strName$[ebp]
  0002a	50		 push	 eax
  0002b	e8 00 00 00 00	 call	 ?GetIndicatorInfo@CGraphImp@@QAEPAVCIndicatorInfo@@XZ ; CGraphImp::GetIndicatorInfo
  00030	8b c8		 mov	 ecx, eax
  00032	ff 15 00 00 00
	00		 call	 DWORD PTR __imp_?GetGraphName@CIndicatorInfo@@QBE?AV?$CStringT@DV?$StrTraitMFC_DLL@DV?$ChTraitsCRT@D@ATL@@@@@ATL@@XZ

; 388  : 	if(strName == _MTEXT( C2_PRICE_CHART))

  00038	a1 54 00 00 00	 mov	 eax, DWORD PTR ?g_iMetaTable@@3VIMetaTable@@A+84
; File C:\Program Files (x86)\Microsoft Visual Studio\2019\Community\VC\Tools\MSVC\14.29.30133\atlmfc\include\cstringt.h

; 2486 : 		return(str1.Compare(psz2) == 0);

  0003d	8d 4d f0	 lea	 ecx, DWORD PTR _strName$[ebp]
; File D:\git\src\IBK\IBK_DRFN\ProjSrc\SrcChartEx\ChartOCX\ChartObject\GraphTool.cpp

; 385  : 	CString strName = pGraph->GetIndicatorInfo()->GetGraphName();

  00040	c7 45 fc 00 00
	00 00		 mov	 DWORD PTR __$EHRec$[ebp+8], 0

; 386  : 	CGraphImp* pFindGraph = NULL;

  00047	33 f6		 xor	 esi, esi
; File C:\Program Files (x86)\Microsoft Visual Studio\2019\Community\VC\Tools\MSVC\14.29.30133\atlmfc\include\cstringt.h

; 2486 : 		return(str1.Compare(psz2) == 0);

  00049	ff b0 28 03 00
	00		 push	 DWORD PTR [eax+808]
  0004f	ff 15 00 00 00
	00		 call	 DWORD PTR __imp_?Compare@?$CStringT@DV?$StrTraitMFC_DLL@DV?$ChTraitsCRT@D@ATL@@@@@ATL@@QBEHPBD@Z
  00055	85 c0		 test	 eax, eax
; File D:\git\src\IBK\IBK_DRFN\ProjSrc\SrcChartEx\ChartOCX\ChartObject\GraphTool.cpp

; 388  : 	if(strName == _MTEXT( C2_PRICE_CHART))

  00057	a1 54 00 00 00	 mov	 eax, DWORD PTR ?g_iMetaTable@@3VIMetaTable@@A+84
  0005c	ff b0 20 03 00
	00		 push	 DWORD PTR [eax+800]
  00062	75 0f		 jne	 SHORT $LN2@IsGeneralG

; 389  : 		pFindGraph = pGroup->FindGraph( _MTEXT( C2_PRICE_MA));

  00064	8d 4d 08	 lea	 ecx, DWORD PTR $T5[ebp]
  00067	ff 15 00 00 00
	00		 call	 DWORD PTR __imp_??0?$CStringT@DV?$StrTraitMFC_DLL@DV?$ChTraitsCRT@D@ATL@@@@@ATL@@QAE@PBD@Z
  0006d	c6 45 fc 01	 mov	 BYTE PTR __$EHRec$[ebp+8], 1
  00071	eb 79		 jmp	 SHORT $LN24@IsGeneralG
$LN2@IsGeneralG:
; File C:\Program Files (x86)\Microsoft Visual Studio\2019\Community\VC\Tools\MSVC\14.29.30133\atlmfc\include\cstringt.h

; 2486 : 		return(str1.Compare(psz2) == 0);

  00073	8d 4d f0	 lea	 ecx, DWORD PTR _strName$[ebp]
  00076	ff 15 00 00 00
	00		 call	 DWORD PTR __imp_?Compare@?$CStringT@DV?$StrTraitMFC_DLL@DV?$ChTraitsCRT@D@ATL@@@@@ATL@@QBEHPBD@Z
  0007c	85 c0		 test	 eax, eax
; File D:\git\src\IBK\IBK_DRFN\ProjSrc\SrcChartEx\ChartOCX\ChartObject\GraphTool.cpp

; 390  : 	else if(strName == _MTEXT( C2_PRICE_MA))

  0007e	a1 54 00 00 00	 mov	 eax, DWORD PTR ?g_iMetaTable@@3VIMetaTable@@A+84
  00083	75 15		 jne	 SHORT $LN4@IsGeneralG

; 391  : 		pFindGraph = pGroup->FindGraph( _MTEXT( C2_PRICE_CHART));

  00085	ff b0 28 03 00
	00		 push	 DWORD PTR [eax+808]
  0008b	8d 4d 08	 lea	 ecx, DWORD PTR $T4[ebp]
  0008e	ff 15 00 00 00
	00		 call	 DWORD PTR __imp_??0?$CStringT@DV?$StrTraitMFC_DLL@DV?$ChTraitsCRT@D@ATL@@@@@ATL@@QAE@PBD@Z
  00094	c6 45 fc 02	 mov	 BYTE PTR __$EHRec$[ebp+8], 2
  00098	eb 52		 jmp	 SHORT $LN24@IsGeneralG
$LN4@IsGeneralG:
; File C:\Program Files (x86)\Microsoft Visual Studio\2019\Community\VC\Tools\MSVC\14.29.30133\atlmfc\include\cstringt.h

; 2486 : 		return(str1.Compare(psz2) == 0);

  0009a	ff b0 2c 03 00
	00		 push	 DWORD PTR [eax+812]
  000a0	8d 4d f0	 lea	 ecx, DWORD PTR _strName$[ebp]
  000a3	ff 15 00 00 00
	00		 call	 DWORD PTR __imp_?Compare@?$CStringT@DV?$StrTraitMFC_DLL@DV?$ChTraitsCRT@D@ATL@@@@@ATL@@QBEHPBD@Z
  000a9	85 c0		 test	 eax, eax
; File D:\git\src\IBK\IBK_DRFN\ProjSrc\SrcChartEx\ChartOCX\ChartObject\GraphTool.cpp

; 392  : 	else if(strName == _MTEXT( C2_VOLUME_CHART))

  000ab	a1 54 00 00 00	 mov	 eax, DWORD PTR ?g_iMetaTable@@3VIMetaTable@@A+84
  000b0	ff b0 24 03 00
	00		 push	 DWORD PTR [eax+804]
  000b6	75 0f		 jne	 SHORT $LN6@IsGeneralG

; 393  : 		pFindGraph = pGroup->FindGraph( _MTEXT( C2_VOLUME_MA));

  000b8	8d 4d 08	 lea	 ecx, DWORD PTR $T3[ebp]
  000bb	ff 15 00 00 00
	00		 call	 DWORD PTR __imp_??0?$CStringT@DV?$StrTraitMFC_DLL@DV?$ChTraitsCRT@D@ATL@@@@@ATL@@QAE@PBD@Z
  000c1	c6 45 fc 03	 mov	 BYTE PTR __$EHRec$[ebp+8], 3
  000c5	eb 25		 jmp	 SHORT $LN24@IsGeneralG
$LN6@IsGeneralG:
; File C:\Program Files (x86)\Microsoft Visual Studio\2019\Community\VC\Tools\MSVC\14.29.30133\atlmfc\include\cstringt.h

; 2486 : 		return(str1.Compare(psz2) == 0);

  000c7	8d 4d f0	 lea	 ecx, DWORD PTR _strName$[ebp]
  000ca	ff 15 00 00 00
	00		 call	 DWORD PTR __imp_?Compare@?$CStringT@DV?$StrTraitMFC_DLL@DV?$ChTraitsCRT@D@ATL@@@@@ATL@@QBEHPBD@Z
  000d0	85 c0		 test	 eax, eax
; File D:\git\src\IBK\IBK_DRFN\ProjSrc\SrcChartEx\ChartOCX\ChartObject\GraphTool.cpp

; 394  : 	else if(strName == _MTEXT( C2_VOLUME_MA))

  000d2	75 2f		 jne	 SHORT $LN8@IsGeneralG

; 395  : 		pFindGraph = pGroup->FindGraph( _MTEXT( C2_VOLUME_CHART));

  000d4	a1 54 00 00 00	 mov	 eax, DWORD PTR ?g_iMetaTable@@3VIMetaTable@@A+84
  000d9	8d 4d 08	 lea	 ecx, DWORD PTR $T2[ebp]
  000dc	ff b0 2c 03 00
	00		 push	 DWORD PTR [eax+812]
  000e2	ff 15 00 00 00
	00		 call	 DWORD PTR __imp_??0?$CStringT@DV?$StrTraitMFC_DLL@DV?$ChTraitsCRT@D@ATL@@@@@ATL@@QAE@PBD@Z
  000e8	c6 45 fc 04	 mov	 BYTE PTR __$EHRec$[ebp+8], 4
$LN24@IsGeneralG:

; 396  : 
; 397  : 	return pFindGraph;

  000ec	8b 4d 0c	 mov	 ecx, DWORD PTR _pGroup$[ebp]
  000ef	8d 45 08	 lea	 eax, DWORD PTR $T2[ebp]
  000f2	50		 push	 eax
  000f3	e8 00 00 00 00	 call	 ?FindGraph@CVertScaleGroup@@QBEPAVCGraphImp@@ABV?$CStringT@DV?$StrTraitMFC_DLL@DV?$ChTraitsCRT@D@ATL@@@@@ATL@@@Z ; CVertScaleGroup::FindGraph
  000f8	8d 4d 08	 lea	 ecx, DWORD PTR $T2[ebp]
  000fb	8b f0		 mov	 esi, eax
  000fd	ff 15 00 00 00
	00		 call	 DWORD PTR __imp_??1?$CStringT@DV?$StrTraitMFC_DLL@DV?$ChTraitsCRT@D@ATL@@@@@ATL@@QAE@XZ
$LN8@IsGeneralG:
  00103	8d 4d f0	 lea	 ecx, DWORD PTR _strName$[ebp]
  00106	ff 15 00 00 00
	00		 call	 DWORD PTR __imp_??1?$CStringT@DV?$StrTraitMFC_DLL@DV?$ChTraitsCRT@D@ATL@@@@@ATL@@QAE@XZ
  0010c	8b c6		 mov	 eax, esi

; 398  : }

  0010e	8b 4d f4	 mov	 ecx, DWORD PTR __$EHRec$[ebp]
  00111	64 89 0d 00 00
	00 00		 mov	 DWORD PTR fs:0, ecx
  00118	59		 pop	 ecx
  00119	5e		 pop	 esi
  0011a	8b e5		 mov	 esp, ebp
  0011c	5d		 pop	 ebp
  0011d	c2 08 00	 ret	 8
_TEXT	ENDS
;	COMDAT text$x
text$x	SEGMENT
__unwindfunclet$?IsGeneralGraph@CGraphTool@@UAEPAVCGraphImp@@PAV2@PAVCVertScaleGroup@@@Z$0:
  00000	8d 4d f0	 lea	 ecx, DWORD PTR _strName$[ebp]
  00003	ff 25 00 00 00
	00		 jmp	 DWORD PTR __imp_??1?$CStringT@DV?$StrTraitMFC_DLL@DV?$ChTraitsCRT@D@ATL@@@@@ATL@@QAE@XZ
__unwindfunclet$?IsGeneralGraph@CGraphTool@@UAEPAVCGraphImp@@PAV2@PAVCVertScaleGroup@@@Z$1:
  00009	8d 4d 08	 lea	 ecx, DWORD PTR $T5[ebp]
  0000c	ff 25 00 00 00
	00		 jmp	 DWORD PTR __imp_??1?$CStringT@DV?$StrTraitMFC_DLL@DV?$ChTraitsCRT@D@ATL@@@@@ATL@@QAE@XZ
__unwindfunclet$?IsGeneralGraph@CGraphTool@@UAEPAVCGraphImp@@PAV2@PAVCVertScaleGroup@@@Z$2:
  00012	8d 4d 08	 lea	 ecx, DWORD PTR $T4[ebp]
  00015	ff 25 00 00 00
	00		 jmp	 DWORD PTR __imp_??1?$CStringT@DV?$StrTraitMFC_DLL@DV?$ChTraitsCRT@D@ATL@@@@@ATL@@QAE@XZ
__unwindfunclet$?IsGeneralGraph@CGraphTool@@UAEPAVCGraphImp@@PAV2@PAVCVertScaleGroup@@@Z$3:
  0001b	8d 4d 08	 lea	 ecx, DWORD PTR $T3[ebp]
  0001e	ff 25 00 00 00
	00		 jmp	 DWORD PTR __imp_??1?$CStringT@DV?$StrTraitMFC_DLL@DV?$ChTraitsCRT@D@ATL@@@@@ATL@@QAE@XZ
__unwindfunclet$?IsGeneralGraph@CGraphTool@@UAEPAVCGraphImp@@PAV2@PAVCVertScaleGroup@@@Z$4:
  00024	8d 4d 08	 lea	 ecx, DWORD PTR $T2[ebp]
  00027	ff 25 00 00 00
	00		 jmp	 DWORD PTR __imp_??1?$CStringT@DV?$StrTraitMFC_DLL@DV?$ChTraitsCRT@D@ATL@@@@@ATL@@QAE@XZ
  0002d	cc		 int	 3
  0002e	cc		 int	 3
  0002f	cc		 int	 3
  00030	cc		 int	 3
  00031	cc		 int	 3
__ehhandler$?IsGeneralGraph@CGraphTool@@UAEPAVCGraphImp@@PAV2@PAVCVertScaleGroup@@@Z:
  00032	90		 npad	 1
  00033	90		 npad	 1
  00034	8b 54 24 08	 mov	 edx, DWORD PTR [esp+8]
  00038	8d 42 0c	 lea	 eax, DWORD PTR [edx+12]
  0003b	8b 4a f4	 mov	 ecx, DWORD PTR [edx-12]
  0003e	33 c8		 xor	 ecx, eax
  00040	e8 00 00 00 00	 call	 @__security_check_cookie@4
  00045	b8 00 00 00 00	 mov	 eax, OFFSET __ehfuncinfo$?IsGeneralGraph@CGraphTool@@UAEPAVCGraphImp@@PAV2@PAVCVertScaleGroup@@@Z
  0004a	e9 00 00 00 00	 jmp	 ___CxxFrameHandler3
text$x	ENDS
?IsGeneralGraph@CGraphTool@@UAEPAVCGraphImp@@PAV2@PAVCVertScaleGroup@@@Z ENDP ; CGraphTool::IsGeneralGraph
; Function compile flags: /Ogtp
; File D:\git\src\IBK\IBK_DRFN\ProjSrc\SrcChartEx\ChartOCX\ChartObject\GraphTool.cpp
; File C:\Program Files (x86)\Microsoft Visual Studio\2019\Community\VC\Tools\MSVC\14.29.30133\atlmfc\include\afxcoll.inl
; File D:\git\src\IBK\IBK_DRFN\ProjSrc\SrcChartEx\ChartOCX\ChartObject\GraphTool.cpp
; File C:\Program Files (x86)\Microsoft Visual Studio\2019\Community\VC\Tools\MSVC\14.29.30133\atlmfc\include\afxcoll.inl
; File D:\git\src\IBK\IBK_DRFN\ProjSrc\SrcChartEx\ChartOCX\ChartObject\GraphTool.cpp
; File C:\Program Files (x86)\Microsoft Visual Studio\2019\Community\VC\Tools\MSVC\14.29.30133\atlmfc\include\afxcoll.inl
; File D:\git\src\IBK\IBK_DRFN\ProjSrc\SrcChartEx\ChartOCX\ChartObject\GraphTool.cpp
; File C:\Program Files (x86)\Microsoft Visual Studio\2019\Community\VC\Tools\MSVC\14.29.30133\atlmfc\include\afxcoll.inl
; File D:\git\src\IBK\IBK_DRFN\ProjSrc\SrcChartEx\ChartOCX\ChartObject\GraphTool.cpp
; File C:\Program Files (x86)\Microsoft Visual Studio\2019\Community\VC\Tools\MSVC\14.29.30133\atlmfc\include\afxcoll.inl
; File D:\git\src\IBK\IBK_DRFN\ProjSrc\SrcChartEx\ChartOCX\ChartObject\GraphTool.cpp
;	COMDAT ?OnMenu_SubGraphInvert@CGraphTool@@UAE_NPAVCMainBlock@@PAVCSubGraph@@@Z
_TEXT	SEGMENT
_p_slVertScaleGroupData$2 = -60				; size = 28
_bInvert$3 = -32					; size = 1
$T4 = -28						; size = 4
_pGraph$1$ = -24					; size = 4
_nGraphIndex$5 = -20					; size = 4
_strVertScaleGroupData$6 = -16				; size = 4
__$EHRec$ = -12						; size = 12
_pMainBlock$ = 8					; size = 4
_pNewGroup$1$ = 12					; size = 4
_bInvert$ = 12						; size = 1
$T7 = 12						; size = 4
_pSubGraph$ = 12					; size = 4
?OnMenu_SubGraphInvert@CGraphTool@@UAE_NPAVCMainBlock@@PAVCSubGraph@@@Z PROC ; CGraphTool::OnMenu_SubGraphInvert, COMDAT
; _this$ = ecx

; 311  : {

  00000	55		 push	 ebp
  00001	8b ec		 mov	 ebp, esp
  00003	6a ff		 push	 -1
  00005	68 00 00 00 00	 push	 __ehhandler$?OnMenu_SubGraphInvert@CGraphTool@@UAE_NPAVCMainBlock@@PAVCSubGraph@@@Z
  0000a	64 a1 00 00 00
	00		 mov	 eax, DWORD PTR fs:0
  00010	50		 push	 eax
  00011	83 ec 30	 sub	 esp, 48			; 00000030H
  00014	53		 push	 ebx
  00015	56		 push	 esi
  00016	57		 push	 edi
  00017	a1 00 00 00 00	 mov	 eax, DWORD PTR ___security_cookie
  0001c	33 c5		 xor	 eax, ebp
  0001e	50		 push	 eax
  0001f	8d 45 f4	 lea	 eax, DWORD PTR __$EHRec$[ebp]
  00022	64 a3 00 00 00
	00		 mov	 DWORD PTR fs:0, eax
  00028	8b d9		 mov	 ebx, ecx

; 312  : 	CGraphImp* pGraph = pSubGraph->GetGraph();

  0002a	8b 4d 0c	 mov	 ecx, DWORD PTR _pSubGraph$[ebp]
  0002d	e8 00 00 00 00	 call	 ?GetGraph@CSubGraph@@QBEPAVCGraphImp@@XZ ; CSubGraph::GetGraph
  00032	8b f0		 mov	 esi, eax

; 313  : 	CVertScaleGroup* pGroup = pGraph->GetVertScaleGroup();

  00034	8b ce		 mov	 ecx, esi
  00036	89 75 e8	 mov	 DWORD PTR _pGraph$1$[ebp], esi
  00039	e8 00 00 00 00	 call	 ?GetVertScaleGroup@CGraphImp@@QBEPAVCVertScaleGroup@@XZ ; CGraphImp::GetVertScaleGroup
  0003e	8b f8		 mov	 edi, eax

; 314  : 
; 315  : 	int nCount = pGroup->GetGraphCount();

  00040	8b cf		 mov	 ecx, edi
  00042	e8 00 00 00 00	 call	 ?GetGraphCount@CVertScaleGroup@@QBEHXZ ; CVertScaleGroup::GetGraphCount

; 316  : 	
; 317  : 	if(nCount > 1)

  00047	83 f8 01	 cmp	 eax, 1
  0004a	0f 8e 8f 01 00
	00		 jle	 $LN4@OnMenu_Sub

; 318  : 	{
; 319  : 		CStringList p_slVertScaleGroupData;

  00050	6a 0a		 push	 10			; 0000000aH
  00052	8d 4d c4	 lea	 ecx, DWORD PTR _p_slVertScaleGroupData$2[ebp]
  00055	e8 00 00 00 00	 call	 ??0CStringList@@QAE@H@Z	; CStringList::CStringList

; 320  : 		
; 321  : 		p_slVertScaleGroupData.AddTail( "VertScaleGroup;\r\n");

  0005a	68 00 00 00 00	 push	 OFFSET ??_C@_0BC@DJOHDNOJ@VertScaleGroup?$DL?$AN?6@
  0005f	8d 4d c4	 lea	 ecx, DWORD PTR _p_slVertScaleGroupData$2[ebp]
  00062	c7 45 fc 00 00
	00 00		 mov	 DWORD PTR __$EHRec$[ebp+8], 0
  00069	e8 00 00 00 00	 call	 ?AddTail@CStringList@@QAEPAU__POSITION@@PBD@Z ; CStringList::AddTail

; 322  : 		
; 323  : 		p_slVertScaleGroupData.AddTail( CString());

  0006e	8d 4d 0c	 lea	 ecx, DWORD PTR $T7[ebp]
  00071	ff 15 00 00 00
	00		 call	 DWORD PTR __imp_??0?$CStringT@DV?$StrTraitMFC_DLL@DV?$ChTraitsCRT@D@ATL@@@@@ATL@@QAE@XZ
  00077	50		 push	 eax
  00078	8d 4d c4	 lea	 ecx, DWORD PTR _p_slVertScaleGroupData$2[ebp]
  0007b	c6 45 fc 01	 mov	 BYTE PTR __$EHRec$[ebp+8], 1
  0007f	e8 00 00 00 00	 call	 ?AddTail@CStringList@@QAEPAU__POSITION@@ABV?$CStringT@DV?$StrTraitMFC_DLL@DV?$ChTraitsCRT@D@ATL@@@@@ATL@@@Z ; CStringList::AddTail
  00084	8d 4d 0c	 lea	 ecx, DWORD PTR $T7[ebp]
  00087	c6 45 fc 00	 mov	 BYTE PTR __$EHRec$[ebp+8], 0
  0008b	ff 15 00 00 00
	00		 call	 DWORD PTR __imp_??1?$CStringT@DV?$StrTraitMFC_DLL@DV?$ChTraitsCRT@D@ATL@@@@@ATL@@QAE@XZ
; File C:\Program Files (x86)\Microsoft Visual Studio\2019\Community\VC\Tools\MSVC\14.29.30133\atlmfc\include\afxcoll.inl

; 492  : 		return m_pNodeTail->data; }

  00091	8b 45 cc	 mov	 eax, DWORD PTR _p_slVertScaleGroupData$2[ebp+8]
; File D:\git\src\IBK\IBK_DRFN\ProjSrc\SrcChartEx\ChartOCX\ChartObject\GraphTool.cpp

; 325  : 		pGroup->GetVertScale().GetScaleAllData( strVertScaleData);

  00094	8b cf		 mov	 ecx, edi
; File C:\Program Files (x86)\Microsoft Visual Studio\2019\Community\VC\Tools\MSVC\14.29.30133\atlmfc\include\afxcoll.inl

; 492  : 		return m_pNodeTail->data; }

  00096	83 c0 08	 add	 eax, 8
; File D:\git\src\IBK\IBK_DRFN\ProjSrc\SrcChartEx\ChartOCX\ChartObject\GraphTool.cpp

; 325  : 		pGroup->GetVertScale().GetScaleAllData( strVertScaleData);

  00099	6a 00		 push	 0
  0009b	50		 push	 eax
  0009c	e8 00 00 00 00	 call	 ?GetVertScale@CVertScaleGroup@@QAEAAVCVerticalScale@@XZ ; CVertScaleGroup::GetVertScale
  000a1	8b c8		 mov	 ecx, eax
  000a3	ff 15 00 00 00
	00		 call	 DWORD PTR __imp_?GetScaleAllData@CVerticalScale@@QBEXAAV?$CStringT@DV?$StrTraitMFC_DLL@DV?$ChTraitsCRT@D@ATL@@@@@ATL@@PBD@Z

; 326  : 		
; 327  : //		pGraph->GetStringGraphData( p_slVertScaleGroupData);
; 328  : 		CGraphImp* pFindGraph = IsGeneralGraph(pGraph, pGroup);

  000a9	8b 03		 mov	 eax, DWORD PTR [ebx]
  000ab	8b cb		 mov	 ecx, ebx
  000ad	57		 push	 edi
  000ae	56		 push	 esi
  000af	ff 50 34	 call	 DWORD PTR [eax+52]

; 329  : //		if(pFindGraph)
; 330  : //			pFindGraph->GetStringGraphData( p_slVertScaleGroupData);
; 331  : 		
; 332  : 		p_slVertScaleGroupData.AddTail( "VertScaleGroupEnd;\r\n");

  000b2	68 00 00 00 00	 push	 OFFSET ??_C@_0BF@DDJNMPKE@VertScaleGroupEnd?$DL?$AN?6@
  000b7	8d 4d c4	 lea	 ecx, DWORD PTR _p_slVertScaleGroupData$2[ebp]
  000ba	8b d8		 mov	 ebx, eax
  000bc	e8 00 00 00 00	 call	 ?AddTail@CStringList@@QAEPAU__POSITION@@PBD@Z ; CStringList::AddTail

; 333  : 		
; 334  : 		CString strVertScaleGroupData;

  000c1	8d 4d f0	 lea	 ecx, DWORD PTR _strVertScaleGroupData$6[ebp]
  000c4	ff 15 00 00 00
	00		 call	 DWORD PTR __imp_??0?$CStringT@DV?$StrTraitMFC_DLL@DV?$ChTraitsCRT@D@ATL@@@@@ATL@@QAE@XZ

; 335  : 		POSITION pos = p_slVertScaleGroupData.GetHeadPosition();

  000ca	8b 75 c8	 mov	 esi, DWORD PTR _p_slVertScaleGroupData$2[ebp+4]
  000cd	c6 45 fc 02	 mov	 BYTE PTR __$EHRec$[ebp+8], 2
  000d1	85 f6		 test	 esi, esi

; 336  : 		while(pos)

  000d3	74 1d		 je	 SHORT $LN3@OnMenu_Sub
$LL2@OnMenu_Sub:
; File C:\Program Files (x86)\Microsoft Visual Studio\2019\Community\VC\Tools\MSVC\14.29.30133\atlmfc\include\afxcoll.inl

; 501  : 	{ CNode* pNode = (CNode*) rPosition;

  000d5	8b c6		 mov	 eax, esi

; 502  : 		ASSERT(AfxIsValidAddress(pNode, sizeof(CNode)));
; 503  : 		if( pNode == NULL )

  000d7	85 f6		 test	 esi, esi
  000d9	0f 84 2d 01 00
	00		 je	 $LN25@OnMenu_Sub

; 505  : 		rPosition = (POSITION) pNode->pNext;

  000df	8b 36		 mov	 esi, DWORD PTR [esi]
; File D:\git\src\IBK\IBK_DRFN\ProjSrc\SrcChartEx\ChartOCX\ChartObject\GraphTool.cpp

; 337  : 			strVertScaleGroupData += p_slVertScaleGroupData.GetNext(pos);

  000e1	8d 4d f0	 lea	 ecx, DWORD PTR _strVertScaleGroupData$6[ebp]
; File C:\Program Files (x86)\Microsoft Visual Studio\2019\Community\VC\Tools\MSVC\14.29.30133\atlmfc\include\afxcoll.inl

; 506  : 		return pNode->data; }

  000e4	83 c0 08	 add	 eax, 8
; File D:\git\src\IBK\IBK_DRFN\ProjSrc\SrcChartEx\ChartOCX\ChartObject\GraphTool.cpp

; 337  : 			strVertScaleGroupData += p_slVertScaleGroupData.GetNext(pos);

  000e7	50		 push	 eax
  000e8	ff 15 00 00 00
	00		 call	 DWORD PTR __imp_??Y?$CStringT@DV?$StrTraitMFC_DLL@DV?$ChTraitsCRT@D@ATL@@@@@ATL@@QAEAAV01@ABV?$CSimpleStringT@D$00@1@@Z
  000ee	85 f6		 test	 esi, esi
  000f0	75 e3		 jne	 SHORT $LL2@OnMenu_Sub
$LN3@OnMenu_Sub:

; 338  : 		
; 339  : 		//   
; 340  : 		CVertScaleGroupList* pGroupList = pGroup->GetVertScaleGroupList();

  000f2	8b cf		 mov	 ecx, edi
  000f4	e8 00 00 00 00	 call	 ?GetVertScaleGroupList@CVertScaleGroup@@QBEPAVCVertScaleGroupList@@XZ ; CVertScaleGroup::GetVertScaleGroupList

; 341  : 		pGroupList->BuildVertScaleGroups((LPSTR)(LPCTSTR)strVertScaleGroupData, false);

  000f9	6a 00		 push	 0
  000fb	ff 75 f0	 push	 DWORD PTR _strVertScaleGroupData$6[ebp]
  000fe	8b f0		 mov	 esi, eax
  00100	8b ce		 mov	 ecx, esi
  00102	e8 00 00 00 00	 call	 ?BuildVertScaleGroups@CVertScaleGroupList@@QAEXPAD_N@Z ; CVertScaleGroupList::BuildVertScaleGroups

; 342  : 		
; 343  : 		CVertScaleGroup* pNewGroup = pGroupList->GetVertScaleGroup(pGroupList->GetCount() - 1);

  00107	8b ce		 mov	 ecx, esi
  00109	e8 00 00 00 00	 call	 ?GetCount@CVertScaleGroupList@@QBEHXZ ; CVertScaleGroupList::GetCount
  0010e	48		 dec	 eax
  0010f	8b ce		 mov	 ecx, esi
  00111	50		 push	 eax
  00112	e8 00 00 00 00	 call	 ?GetVertScaleGroup@CVertScaleGroupList@@QBEPAVCVertScaleGroup@@H@Z ; CVertScaleGroupList::GetVertScaleGroup

; 344  : 		
; 345  : 		bool bInvert = !pGroup->GetVertScaleInvertType();

  00117	8b cf		 mov	 ecx, edi
  00119	89 45 0c	 mov	 DWORD PTR _pNewGroup$1$[ebp], eax
  0011c	e8 00 00 00 00	 call	 ?GetVertScaleInvertType@CVertScaleGroup@@QBE_NXZ ; CVertScaleGroup::GetVertScaleInvertType

; 346  : 
; 347  : 		int nGraphIndex = 0;
; 348  : 		pGroup->GetIndexOfGraph(pGraph->GetGraphData().GetGraphName(), nGraphIndex);

  00121	8b 75 e8	 mov	 esi, DWORD PTR _pGraph$1$[ebp]
  00124	84 c0		 test	 al, al
  00126	8d 45 e4	 lea	 eax, DWORD PTR $T4[ebp]
  00129	c7 45 ec 00 00
	00 00		 mov	 DWORD PTR _nGraphIndex$5[ebp], 0
  00130	50		 push	 eax
  00131	8b ce		 mov	 ecx, esi
  00133	0f 94 45 e0	 sete	 BYTE PTR _bInvert$3[ebp]
  00137	e8 00 00 00 00	 call	 ?GetGraphData@CGraphImp@@QAEAAVCGraphData@@XZ ; CGraphImp::GetGraphData
  0013c	8b c8		 mov	 ecx, eax
  0013e	ff 15 00 00 00
	00		 call	 DWORD PTR __imp_?GetGraphName@CGraphData@@QBE?AV?$CStringT@DV?$StrTraitMFC_DLL@DV?$ChTraitsCRT@D@ATL@@@@@ATL@@XZ
  00144	8d 4d ec	 lea	 ecx, DWORD PTR _nGraphIndex$5[ebp]
  00147	c6 45 fc 03	 mov	 BYTE PTR __$EHRec$[ebp+8], 3
  0014b	51		 push	 ecx
  0014c	ff 30		 push	 DWORD PTR [eax]
  0014e	8b cf		 mov	 ecx, edi
  00150	e8 00 00 00 00	 call	 ?GetIndexOfGraph@CVertScaleGroup@@QAEHPBDAAH@Z ; CVertScaleGroup::GetIndexOfGraph
  00155	8d 4d e4	 lea	 ecx, DWORD PTR $T4[ebp]
  00158	c6 45 fc 02	 mov	 BYTE PTR __$EHRec$[ebp+8], 2
  0015c	ff 15 00 00 00
	00		 call	 DWORD PTR __imp_??1?$CStringT@DV?$StrTraitMFC_DLL@DV?$ChTraitsCRT@D@ATL@@@@@ATL@@QAE@XZ

; 349  : 
; 350  : 		if(nGraphIndex == 0)

  00162	83 7d ec 00	 cmp	 DWORD PTR _nGraphIndex$5[ebp], 0
  00166	75 2a		 jne	 SHORT $LN5@OnMenu_Sub

; 351  : 		{
; 352  : 			pGroup->RemoveAt(pGraph, true);

  00168	6a 01		 push	 1
  0016a	56		 push	 esi
  0016b	8b cf		 mov	 ecx, edi
  0016d	e8 00 00 00 00	 call	 ?RemoveAt@CVertScaleGroup@@QAE_NPAVCGraphImp@@_N@Z ; CVertScaleGroup::RemoveAt

; 353  : 			pNewGroup->AddGraph(pGraph);

  00172	6a 01		 push	 1
  00174	56		 push	 esi
  00175	8b 75 0c	 mov	 esi, DWORD PTR _pNewGroup$1$[ebp]
  00178	8b ce		 mov	 ecx, esi
  0017a	e8 00 00 00 00	 call	 ?AddGraph@CVertScaleGroup@@QAEXPAVCGraphImp@@_N@Z ; CVertScaleGroup::AddGraph

; 354  : 			if(pFindGraph)

  0017f	85 db		 test	 ebx, ebx
  00181	74 3f		 je	 SHORT $LN6@OnMenu_Sub

; 355  : 			{
; 356  : 				pGroup->RemoveAt(pFindGraph, true);

  00183	6a 01		 push	 1
  00185	53		 push	 ebx
  00186	8b cf		 mov	 ecx, edi
  00188	e8 00 00 00 00	 call	 ?RemoveAt@CVertScaleGroup@@QAE_NPAVCGraphImp@@_N@Z ; CVertScaleGroup::RemoveAt

; 357  : 				pNewGroup->AddGraph(pFindGraph);

  0018d	6a 01		 push	 1
  0018f	53		 push	 ebx

; 358  : 			}
; 359  : 		}

  00190	eb 29		 jmp	 SHORT $LN31@OnMenu_Sub
$LN5@OnMenu_Sub:

; 360  : 		else
; 361  : 		{
; 362  : 			if(pFindGraph)

  00192	85 db		 test	 ebx, ebx
  00194	74 15		 je	 SHORT $LN8@OnMenu_Sub

; 363  : 			{
; 364  : 				pGroup->RemoveAt(pFindGraph, true);

  00196	6a 01		 push	 1
  00198	53		 push	 ebx
  00199	8b cf		 mov	 ecx, edi
  0019b	e8 00 00 00 00	 call	 ?RemoveAt@CVertScaleGroup@@QAE_NPAVCGraphImp@@_N@Z ; CVertScaleGroup::RemoveAt

; 365  : 				pNewGroup->AddGraph(pFindGraph);

  001a0	8b 4d 0c	 mov	 ecx, DWORD PTR _pNewGroup$1$[ebp]
  001a3	6a 01		 push	 1
  001a5	53		 push	 ebx
  001a6	e8 00 00 00 00	 call	 ?AddGraph@CVertScaleGroup@@QAEXPAVCGraphImp@@_N@Z ; CVertScaleGroup::AddGraph
$LN8@OnMenu_Sub:

; 366  : 			}
; 367  : 			pGroup->RemoveAt(pGraph, true);

  001ab	6a 01		 push	 1
  001ad	56		 push	 esi
  001ae	8b cf		 mov	 ecx, edi
  001b0	e8 00 00 00 00	 call	 ?RemoveAt@CVertScaleGroup@@QAE_NPAVCGraphImp@@_N@Z ; CVertScaleGroup::RemoveAt

; 368  : 			pNewGroup->AddGraph(pGraph);

  001b5	6a 01		 push	 1
  001b7	56		 push	 esi
  001b8	8b 75 0c	 mov	 esi, DWORD PTR _pNewGroup$1$[ebp]
$LN31@OnMenu_Sub:

; 369  : 		}
; 370  : 
; 371  : 		pNewGroup->SetVertScaleInvertType(bInvert);

  001bb	8b ce		 mov	 ecx, esi
  001bd	e8 00 00 00 00	 call	 ?AddGraph@CVertScaleGroup@@QAEXPAVCGraphImp@@_N@Z ; CVertScaleGroup::AddGraph
$LN6@OnMenu_Sub:
  001c2	ff 75 e0	 push	 DWORD PTR _bInvert$3[ebp]
  001c5	8b ce		 mov	 ecx, esi
  001c7	e8 00 00 00 00	 call	 ?SetVertScaleInvertType@CVertScaleGroup@@QAEX_N@Z ; CVertScaleGroup::SetVertScaleInvertType

; 372  : 		
; 373  : 		return true;

  001cc	8d 4d f0	 lea	 ecx, DWORD PTR _strVertScaleGroupData$6[ebp]
  001cf	ff 15 00 00 00
	00		 call	 DWORD PTR __imp_??1?$CStringT@DV?$StrTraitMFC_DLL@DV?$ChTraitsCRT@D@ATL@@@@@ATL@@QAE@XZ
  001d5	8d 4d c4	 lea	 ecx, DWORD PTR _p_slVertScaleGroupData$2[ebp]
  001d8	e8 00 00 00 00	 call	 ??1CStringList@@UAE@XZ	; CStringList::~CStringList
  001dd	eb 17		 jmp	 SHORT $LN32@OnMenu_Sub
$LN4@OnMenu_Sub:

; 374  : 	}
; 375  : 	
; 376  : 	bool bInvert = !pGroup->GetVertScaleInvertType();

  001df	8b cf		 mov	 ecx, edi
  001e1	e8 00 00 00 00	 call	 ?GetVertScaleInvertType@CVertScaleGroup@@QBE_NXZ ; CVertScaleGroup::GetVertScaleInvertType
  001e6	84 c0		 test	 al, al

; 377  : 	pGroup->SetVertScaleInvertType(bInvert);

  001e8	8b cf		 mov	 ecx, edi
  001ea	0f 94 45 0c	 sete	 BYTE PTR _bInvert$[ebp]
  001ee	ff 75 0c	 push	 DWORD PTR _bInvert$[ebp]
  001f1	e8 00 00 00 00	 call	 ?SetVertScaleInvertType@CVertScaleGroup@@QAEX_N@Z ; CVertScaleGroup::SetVertScaleInvertType
$LN32@OnMenu_Sub:

; 380  : }

  001f6	b0 01		 mov	 al, 1
  001f8	8b 4d f4	 mov	 ecx, DWORD PTR __$EHRec$[ebp]
  001fb	64 89 0d 00 00
	00 00		 mov	 DWORD PTR fs:0, ecx
  00202	59		 pop	 ecx
  00203	5f		 pop	 edi
  00204	5e		 pop	 esi
  00205	5b		 pop	 ebx
  00206	8b e5		 mov	 esp, ebp
  00208	5d		 pop	 ebp
  00209	c2 08 00	 ret	 8
$LN25@OnMenu_Sub:
; File C:\Program Files (x86)\Microsoft Visual Studio\2019\Community\VC\Tools\MSVC\14.29.30133\atlmfc\include\afxcoll.inl

; 504  : 			AfxThrowInvalidArgException();

  0020c	e8 00 00 00 00	 call	 ?AfxThrowInvalidArgException@@YGXXZ ; AfxThrowInvalidArgException
$LN30@OnMenu_Sub:
  00211	cc		 int	 3
_TEXT	ENDS
;	COMDAT text$x
text$x	SEGMENT
__unwindfunclet$?OnMenu_SubGraphInvert@CGraphTool@@UAE_NPAVCMainBlock@@PAVCSubGraph@@@Z$0:
  00000	8d 4d c4	 lea	 ecx, DWORD PTR _p_slVertScaleGroupData$2[ebp]
  00003	e9 00 00 00 00	 jmp	 ??1CStringList@@UAE@XZ	; CStringList::~CStringList
__unwindfunclet$?OnMenu_SubGraphInvert@CGraphTool@@UAE_NPAVCMainBlock@@PAVCSubGraph@@@Z$1:
  00008	8d 4d 0c	 lea	 ecx, DWORD PTR $T7[ebp]
  0000b	ff 25 00 00 00
	00		 jmp	 DWORD PTR __imp_??1?$CStringT@DV?$StrTraitMFC_DLL@DV?$ChTraitsCRT@D@ATL@@@@@ATL@@QAE@XZ
__unwindfunclet$?OnMenu_SubGraphInvert@CGraphTool@@UAE_NPAVCMainBlock@@PAVCSubGraph@@@Z$2:
  00011	8d 4d f0	 lea	 ecx, DWORD PTR _strVertScaleGroupData$6[ebp]
  00014	ff 25 00 00 00
	00		 jmp	 DWORD PTR __imp_??1?$CStringT@DV?$StrTraitMFC_DLL@DV?$ChTraitsCRT@D@ATL@@@@@ATL@@QAE@XZ
__unwindfunclet$?OnMenu_SubGraphInvert@CGraphTool@@UAE_NPAVCMainBlock@@PAVCSubGraph@@@Z$3:
  0001a	8d 4d e4	 lea	 ecx, DWORD PTR $T4[ebp]
  0001d	ff 25 00 00 00
	00		 jmp	 DWORD PTR __imp_??1?$CStringT@DV?$StrTraitMFC_DLL@DV?$ChTraitsCRT@D@ATL@@@@@ATL@@QAE@XZ
  00023	cc		 int	 3
  00024	cc		 int	 3
  00025	cc		 int	 3
  00026	cc		 int	 3
  00027	cc		 int	 3
__ehhandler$?OnMenu_SubGraphInvert@CGraphTool@@UAE_NPAVCMainBlock@@PAVCSubGraph@@@Z:
  00028	90		 npad	 1
  00029	90		 npad	 1
  0002a	8b 54 24 08	 mov	 edx, DWORD PTR [esp+8]
  0002e	8d 42 0c	 lea	 eax, DWORD PTR [edx+12]
  00031	8b 4a c0	 mov	 ecx, DWORD PTR [edx-64]
  00034	33 c8		 xor	 ecx, eax
  00036	e8 00 00 00 00	 call	 @__security_check_cookie@4
  0003b	b8 00 00 00 00	 mov	 eax, OFFSET __ehfuncinfo$?OnMenu_SubGraphInvert@CGraphTool@@UAE_NPAVCMainBlock@@PAVCSubGraph@@@Z
  00040	e9 00 00 00 00	 jmp	 ___CxxFrameHandler3
text$x	ENDS
?OnMenu_SubGraphInvert@CGraphTool@@UAE_NPAVCMainBlock@@PAVCSubGraph@@@Z ENDP ; CGraphTool::OnMenu_SubGraphInvert
; Function compile flags: /Ogtp
; File D:\git\src\IBK\IBK_DRFN\ProjSrc\SrcChartEx\ChartOCX\ChartObject\GraphTool.cpp
;	COMDAT ?GetMenuCheck@CGraphTool@@UAE_NPAVCMainBlock@@W4ELEMENTMENU@CMenuType@@I@Z
_TEXT	SEGMENT
_pMainBlock$ = 8					; size = 4
_menuType$ = 12						; size = 4
_wParam$ = 16						; size = 4
?GetMenuCheck@CGraphTool@@UAE_NPAVCMainBlock@@W4ELEMENTMENU@CMenuType@@I@Z PROC ; CGraphTool::GetMenuCheck, COMDAT
; _this$ = ecx

; 144  : {

  00000	55		 push	 ebp
  00001	8b ec		 mov	 ebp, esp
  00003	56		 push	 esi
  00004	8b f1		 mov	 esi, ecx

; 145  : 	if(!IsSelectedSubGraph())

  00006	8b 06		 mov	 eax, DWORD PTR [esi]
  00008	8b 40 50	 mov	 eax, DWORD PTR [eax+80]
  0000b	ff d0		 call	 eax
  0000d	84 c0		 test	 al, al
  0000f	74 21		 je	 SHORT $LN6@GetMenuChe

; 146  : 		return false;
; 147  : 
; 148  : 	if(menuType == CMenuType::MENU_DELETE){

  00011	8b 4d 0c	 mov	 ecx, DWORD PTR _menuType$[ebp]
  00014	85 c9		 test	 ecx, ecx
  00016	75 05		 jne	 SHORT $LN4@GetMenuChe

; 149  : 		if(!m_bIsGraphMove)

  00018	38 4e 0c	 cmp	 BYTE PTR [esi+12], cl
  0001b	74 15		 je	 SHORT $LN6@GetMenuChe
$LN4@GetMenuChe:

; 151  : 		//CSubGraph  SendMessage  .
; 152  : 		//if(IsSendMessage_SubGraph())
; 153  : 		//	SendMessage_SubGraph();
; 154  : 	}
; 155  : 
; 156  : 	return GetMenuCheck_SubGraph(pMainBlock, menuType, wParam);

  0001d	ff 75 10	 push	 DWORD PTR _wParam$[ebp]
  00020	8b 06		 mov	 eax, DWORD PTR [esi]
  00022	51		 push	 ecx
  00023	ff 75 08	 push	 DWORD PTR _pMainBlock$[ebp]
  00026	8b ce		 mov	 ecx, esi
  00028	8b 40 4c	 mov	 eax, DWORD PTR [eax+76]
  0002b	ff d0		 call	 eax
  0002d	5e		 pop	 esi

; 157  : }

  0002e	5d		 pop	 ebp
  0002f	c2 0c 00	 ret	 12			; 0000000cH
$LN6@GetMenuChe:

; 150  : 			return false;

  00032	32 c0		 xor	 al, al
  00034	5e		 pop	 esi

; 157  : }

  00035	5d		 pop	 ebp
  00036	c2 0c 00	 ret	 12			; 0000000cH
?GetMenuCheck@CGraphTool@@UAE_NPAVCMainBlock@@W4ELEMENTMENU@CMenuType@@I@Z ENDP ; CGraphTool::GetMenuCheck
_TEXT	ENDS
; Function compile flags: /Ogtp
; File D:\git\src\IBK\IBK_DRFN\ProjSrc\SrcChartEx\ChartOCX\ChartObject\GraphTool.cpp
; File C:\Program Files (x86)\Microsoft Visual Studio\2019\Community\VC\Tools\MSVC\14.29.30133\atlmfc\include\cstringt.h
; File D:\git\src\IBK\IBK_DRFN\ProjSrc\SrcChartEx\ChartOCX\ChartObject\GraphTool.cpp
;	COMDAT ?OnMenu@CGraphTool@@UAE_NPAVCMainBlock@@W4ELEMENTMENU@CMenuType@@I@Z
_TEXT	SEGMENT
__$EHRec$ = -12						; size = 12
_pMainBlock$ = 8					; size = 4
_strIndicatorName$2 = 12				; size = 4
_menuType$ = 12						; size = 4
_strGraphName$3 = 16					; size = 4
_wParam$ = 16						; size = 4
?OnMenu@CGraphTool@@UAE_NPAVCMainBlock@@W4ELEMENTMENU@CMenuType@@I@Z PROC ; CGraphTool::OnMenu, COMDAT
; _this$ = ecx

; 89   : {

  00000	55		 push	 ebp
  00001	8b ec		 mov	 ebp, esp
  00003	6a ff		 push	 -1
  00005	68 00 00 00 00	 push	 __ehhandler$?OnMenu@CGraphTool@@UAE_NPAVCMainBlock@@W4ELEMENTMENU@CMenuType@@I@Z
  0000a	64 a1 00 00 00
	00		 mov	 eax, DWORD PTR fs:0
  00010	50		 push	 eax
  00011	53		 push	 ebx
  00012	56		 push	 esi
  00013	a1 00 00 00 00	 mov	 eax, DWORD PTR ___security_cookie
  00018	33 c5		 xor	 eax, ebp
  0001a	50		 push	 eax
  0001b	8d 45 f4	 lea	 eax, DWORD PTR __$EHRec$[ebp]
  0001e	64 a3 00 00 00
	00		 mov	 DWORD PTR fs:0, eax
  00024	8b f1		 mov	 esi, ecx

; 90   : 	if(!IsSelectedSubGraph())

  00026	8b 06		 mov	 eax, DWORD PTR [esi]
  00028	8b 40 50	 mov	 eax, DWORD PTR [eax+80]
  0002b	ff d0		 call	 eax
  0002d	84 c0		 test	 al, al
  0002f	0f 84 44 01 00
	00		 je	 $LN18@OnMenu

; 91   : 		return false;
; 92   : 
; 93   : 	if(menuType == CMenuType::MENU_DELETE_ALL)

  00035	8b 4d 0c	 mov	 ecx, DWORD PTR _menuType$[ebp]
  00038	83 f9 0b	 cmp	 ecx, 11			; 0000000bH
  0003b	0f 85 0c 01 00
	00		 jne	 $LN3@OnMenu

; 94   : 	{
; 95   : 		CGraphImp* pGraph = GetGraphMoving();

  00041	8b 06		 mov	 eax, DWORD PTR [esi]
  00043	8b ce		 mov	 ecx, esi
  00045	ff 50 58	 call	 DWORD PTR [eax+88]
  00048	8b f0		 mov	 esi, eax

; 96   : 		if(pGraph)

  0004a	85 f6		 test	 esi, esi
  0004c	0f 84 27 01 00
	00		 je	 $LN18@OnMenu

; 97   : 		{
; 98   : 			CString strIndicatorName = pGraph->GetGraphData().GetIndicatorName2();

  00052	8d 45 0c	 lea	 eax, DWORD PTR _strIndicatorName$2[ebp]
  00055	8b ce		 mov	 ecx, esi
  00057	50		 push	 eax
  00058	e8 00 00 00 00	 call	 ?GetGraphData@CGraphImp@@QAEAAVCGraphData@@XZ ; CGraphImp::GetGraphData
  0005d	8b c8		 mov	 ecx, eax
  0005f	ff 15 00 00 00
	00		 call	 DWORD PTR __imp_?GetIndicatorName2@CGraphData@@QBE?AV?$CStringT@DV?$StrTraitMFC_DLL@DV?$ChTraitsCRT@D@ATL@@@@@ATL@@XZ

; 99   : 			//KHD
; 100  : 			if( g_iMetaTable.IsSpecialGroupGraph(strIndicatorName) )

  00065	ff 75 0c	 push	 DWORD PTR _strIndicatorName$2[ebp]
  00068	b9 00 00 00 00	 mov	 ecx, OFFSET ?g_iMetaTable@@3VIMetaTable@@A ; g_iMetaTable
  0006d	c7 45 fc 00 00
	00 00		 mov	 DWORD PTR __$EHRec$[ebp+8], 0
  00074	e8 00 00 00 00	 call	 ?IsSpecialGroupGraph@IMetaTable@@QAE_NPBD@Z ; IMetaTable::IsSpecialGroupGraph
  00079	84 c0		 test	 al, al
  0007b	74 2e		 je	 SHORT $LN5@OnMenu

; 101  : 			{
; 102  : 				AfxMessageBox( "<>    !!", MB_ICONWARNING|MB_OK);

  0007d	6a 00		 push	 0
  0007f	6a 30		 push	 48			; 00000030H
  00081	68 00 00 00 00	 push	 OFFSET ??_C@_0CD@LGNGJKOD@?$DM?F?$KP?$LM?v?B?w?F?$KO?$DO?$LE?B?5?$LL?h?A?$KG?5?G?R?5?$LM?v?5?$LO?x?$LN?$MA?$LE?O?$LE@
  00086	e8 00 00 00 00	 call	 ?AfxMessageBox@@YGHPBDII@Z ; AfxMessageBox

; 126  : 			return pMainBlock->DeleteGraph(strGraphName);

  0008b	8d 4d 0c	 lea	 ecx, DWORD PTR _strIndicatorName$2[ebp]
  0008e	32 db		 xor	 bl, bl
  00090	ff 15 00 00 00
	00		 call	 DWORD PTR __imp_??1?$CStringT@DV?$StrTraitMFC_DLL@DV?$ChTraitsCRT@D@ATL@@@@@ATL@@QAE@XZ
  00096	8a c3		 mov	 al, bl

; 140  : }

  00098	8b 4d f4	 mov	 ecx, DWORD PTR __$EHRec$[ebp]
  0009b	64 89 0d 00 00
	00 00		 mov	 DWORD PTR fs:0, ecx
  000a2	59		 pop	 ecx
  000a3	5e		 pop	 esi
  000a4	5b		 pop	 ebx
  000a5	8b e5		 mov	 esp, ebp
  000a7	5d		 pop	 ebp
  000a8	c2 0c 00	 ret	 12			; 0000000cH
$LN5@OnMenu:

; 108  : 			if( strIndicatorName == _MTEXT( C2_PRICE_CHART) && !::strncmp(pGraph->GetGraphRQ(), _T("DEFAULT"), 7))

  000ab	a1 54 00 00 00	 mov	 eax, DWORD PTR ?g_iMetaTable@@3VIMetaTable@@A+84
; File C:\Program Files (x86)\Microsoft Visual Studio\2019\Community\VC\Tools\MSVC\14.29.30133\atlmfc\include\cstringt.h

; 2486 : 		return(str1.Compare(psz2) == 0);

  000b0	8d 4d 0c	 lea	 ecx, DWORD PTR _strIndicatorName$2[ebp]
  000b3	ff b0 28 03 00
	00		 push	 DWORD PTR [eax+808]
  000b9	ff 15 00 00 00
	00		 call	 DWORD PTR __imp_?Compare@?$CStringT@DV?$StrTraitMFC_DLL@DV?$ChTraitsCRT@D@ATL@@@@@ATL@@QBEHPBD@Z
  000bf	85 c0		 test	 eax, eax
; File D:\git\src\IBK\IBK_DRFN\ProjSrc\SrcChartEx\ChartOCX\ChartObject\GraphTool.cpp

; 108  : 			if( strIndicatorName == _MTEXT( C2_PRICE_CHART) && !::strncmp(pGraph->GetGraphRQ(), _T("DEFAULT"), 7))

  000c1	75 3c		 jne	 SHORT $LN6@OnMenu
  000c3	8b 06		 mov	 eax, DWORD PTR [esi]
  000c5	8b ce		 mov	 ecx, esi
  000c7	6a 07		 push	 7
  000c9	68 00 00 00 00	 push	 OFFSET ??_C@_07MGCPDNLD@DEFAULT@
  000ce	ff 50 1c	 call	 DWORD PTR [eax+28]
  000d1	50		 push	 eax
  000d2	ff 15 00 00 00
	00		 call	 DWORD PTR __imp__strncmp
  000d8	83 c4 0c	 add	 esp, 12			; 0000000cH
  000db	85 c0		 test	 eax, eax
  000dd	75 20		 jne	 SHORT $LN6@OnMenu

; 126  : 			return pMainBlock->DeleteGraph(strGraphName);

  000df	8d 4d 0c	 lea	 ecx, DWORD PTR _strIndicatorName$2[ebp]
  000e2	32 db		 xor	 bl, bl
  000e4	ff 15 00 00 00
	00		 call	 DWORD PTR __imp_??1?$CStringT@DV?$StrTraitMFC_DLL@DV?$ChTraitsCRT@D@ATL@@@@@ATL@@QAE@XZ
  000ea	8a c3		 mov	 al, bl

; 140  : }

  000ec	8b 4d f4	 mov	 ecx, DWORD PTR __$EHRec$[ebp]
  000ef	64 89 0d 00 00
	00 00		 mov	 DWORD PTR fs:0, ecx
  000f6	59		 pop	 ecx
  000f7	5e		 pop	 esi
  000f8	5b		 pop	 ebx
  000f9	8b e5		 mov	 esp, ebp
  000fb	5d		 pop	 ebp
  000fc	c2 0c 00	 ret	 12			; 0000000cH
$LN6@OnMenu:

; 109  : 			{
; 110  : // 				ML_SET_LANGUAGE_RES();
; 111  : // 				CString strFormat;
; 112  : // 				strFormat.LoadString( IDS_CANNOT_DELETE_IT);
; 113  : // 				CString strTitle;
; 114  : // 				strTitle.LoadString( IDS_NOTATION);
; 115  : // 				CString message;
; 116  : // 				message.Format( strFormat, _MTOL2( strIndicatorName));
; 117  : // 				if( !m_pParent) AfxMessageBox(message, MB_ICONWARNING | MB_OK);
; 118  : // 				else MessageBox( m_pParent->m_hWnd, message, strTitle, MB_ICONWARNING | MB_OK);
; 119  : 				
; 120  : 				//NH:100528   .
; 121  : 				return false;
; 122  : 			}
; 123  : 
; 124  : 			// vntsorl_20110608:[A00000600]  Graph RMenu    
; 125  : 			CString strGraphName = pGraph->GetGraphData().GetGraphName2();

  000ff	8d 45 10	 lea	 eax, DWORD PTR _strGraphName$3[ebp]
  00102	8b ce		 mov	 ecx, esi
  00104	50		 push	 eax
  00105	e8 00 00 00 00	 call	 ?GetGraphData@CGraphImp@@QAEAAVCGraphData@@XZ ; CGraphImp::GetGraphData
  0010a	8b c8		 mov	 ecx, eax
  0010c	ff 15 00 00 00
	00		 call	 DWORD PTR __imp_?GetGraphName2@CGraphData@@QBE?AV?$CStringT@DV?$StrTraitMFC_DLL@DV?$ChTraitsCRT@D@ATL@@@@@ATL@@XZ

; 126  : 			return pMainBlock->DeleteGraph(strGraphName);

  00112	8b 4d 08	 mov	 ecx, DWORD PTR _pMainBlock$[ebp]
  00115	8d 55 10	 lea	 edx, DWORD PTR _strGraphName$3[ebp]
  00118	52		 push	 edx
  00119	c6 45 fc 01	 mov	 BYTE PTR __$EHRec$[ebp+8], 1
  0011d	8b 01		 mov	 eax, DWORD PTR [ecx]
  0011f	8b 40 1c	 mov	 eax, DWORD PTR [eax+28]
  00122	ff d0		 call	 eax
  00124	8d 4d 10	 lea	 ecx, DWORD PTR _strGraphName$3[ebp]
  00127	8a d8		 mov	 bl, al
  00129	ff 15 00 00 00
	00		 call	 DWORD PTR __imp_??1?$CStringT@DV?$StrTraitMFC_DLL@DV?$ChTraitsCRT@D@ATL@@@@@ATL@@QAE@XZ
  0012f	8d 4d 0c	 lea	 ecx, DWORD PTR _strIndicatorName$2[ebp]
  00132	ff 15 00 00 00
	00		 call	 DWORD PTR __imp_??1?$CStringT@DV?$StrTraitMFC_DLL@DV?$ChTraitsCRT@D@ATL@@@@@ATL@@QAE@XZ
  00138	8a c3		 mov	 al, bl

; 140  : }

  0013a	8b 4d f4	 mov	 ecx, DWORD PTR __$EHRec$[ebp]
  0013d	64 89 0d 00 00
	00 00		 mov	 DWORD PTR fs:0, ecx
  00144	59		 pop	 ecx
  00145	5e		 pop	 esi
  00146	5b		 pop	 ebx
  00147	8b e5		 mov	 esp, ebp
  00149	5d		 pop	 ebp
  0014a	c2 0c 00	 ret	 12			; 0000000cH
$LN3@OnMenu:

; 127  : 		}
; 128  : 		return false;
; 129  : 	}
; 130  : 
; 131  : 	if(menuType == CMenuType::MENU_DELETE){

  0014d	85 c9		 test	 ecx, ecx
  0014f	75 05		 jne	 SHORT $LN8@OnMenu

; 132  : 		if(!m_bIsGraphMove)

  00151	38 4e 0c	 cmp	 BYTE PTR [esi+12], cl
  00154	74 23		 je	 SHORT $LN18@OnMenu
$LN8@OnMenu:

; 134  : 		//CSubGraph  SendMessage  .
; 135  : 		//if(IsSendMessage_SubGraph())
; 136  : 		//	SendMessage_SubGraph();
; 137  : 	}
; 138  : 
; 139  : 	return OnMenu_SubGraph(pMainBlock, menuType, wParam);

  00156	ff 75 10	 push	 DWORD PTR _wParam$[ebp]
  00159	8b 06		 mov	 eax, DWORD PTR [esi]
  0015b	51		 push	 ecx
  0015c	ff 75 08	 push	 DWORD PTR _pMainBlock$[ebp]
  0015f	8b ce		 mov	 ecx, esi
  00161	8b 40 48	 mov	 eax, DWORD PTR [eax+72]
  00164	ff d0		 call	 eax

; 140  : }

  00166	8b 4d f4	 mov	 ecx, DWORD PTR __$EHRec$[ebp]
  00169	64 89 0d 00 00
	00 00		 mov	 DWORD PTR fs:0, ecx
  00170	59		 pop	 ecx
  00171	5e		 pop	 esi
  00172	5b		 pop	 ebx
  00173	8b e5		 mov	 esp, ebp
  00175	5d		 pop	 ebp
  00176	c2 0c 00	 ret	 12			; 0000000cH
$LN18@OnMenu:

; 133  : 			return false;

  00179	32 c0		 xor	 al, al

; 140  : }

  0017b	8b 4d f4	 mov	 ecx, DWORD PTR __$EHRec$[ebp]
  0017e	64 89 0d 00 00
	00 00		 mov	 DWORD PTR fs:0, ecx
  00185	59		 pop	 ecx
  00186	5e		 pop	 esi
  00187	5b		 pop	 ebx
  00188	8b e5		 mov	 esp, ebp
  0018a	5d		 pop	 ebp
  0018b	c2 0c 00	 ret	 12			; 0000000cH
_TEXT	ENDS
;	COMDAT text$x
text$x	SEGMENT
__unwindfunclet$?OnMenu@CGraphTool@@UAE_NPAVCMainBlock@@W4ELEMENTMENU@CMenuType@@I@Z$0:
  00000	8d 4d 0c	 lea	 ecx, DWORD PTR _strIndicatorName$2[ebp]
  00003	ff 25 00 00 00
	00		 jmp	 DWORD PTR __imp_??1?$CStringT@DV?$StrTraitMFC_DLL@DV?$ChTraitsCRT@D@ATL@@@@@ATL@@QAE@XZ
__unwindfunclet$?OnMenu@CGraphTool@@UAE_NPAVCMainBlock@@W4ELEMENTMENU@CMenuType@@I@Z$1:
  00009	8d 4d 10	 lea	 ecx, DWORD PTR _strGraphName$3[ebp]
  0000c	ff 25 00 00 00
	00		 jmp	 DWORD PTR __imp_??1?$CStringT@DV?$StrTraitMFC_DLL@DV?$ChTraitsCRT@D@ATL@@@@@ATL@@QAE@XZ
  00012	cc		 int	 3
  00013	cc		 int	 3
  00014	cc		 int	 3
  00015	cc		 int	 3
  00016	cc		 int	 3
__ehhandler$?OnMenu@CGraphTool@@UAE_NPAVCMainBlock@@W4ELEMENTMENU@CMenuType@@I@Z:
  00017	90		 npad	 1
  00018	90		 npad	 1
  00019	8b 54 24 08	 mov	 edx, DWORD PTR [esp+8]
  0001d	8d 42 0c	 lea	 eax, DWORD PTR [edx+12]
  00020	8b 4a f4	 mov	 ecx, DWORD PTR [edx-12]
  00023	33 c8		 xor	 ecx, eax
  00025	e8 00 00 00 00	 call	 @__security_check_cookie@4
  0002a	b8 00 00 00 00	 mov	 eax, OFFSET __ehfuncinfo$?OnMenu@CGraphTool@@UAE_NPAVCMainBlock@@W4ELEMENTMENU@CMenuType@@I@Z
  0002f	e9 00 00 00 00	 jmp	 ___CxxFrameHandler3
text$x	ENDS
?OnMenu@CGraphTool@@UAE_NPAVCMainBlock@@W4ELEMENTMENU@CMenuType@@I@Z ENDP ; CGraphTool::OnMenu
; Function compile flags: /Ogtp
; File D:\git\src\IBK\IBK_DRFN\ProjSrc\SrcChartEx\ChartOCX\ChartObject\GraphTool.cpp
; File C:\Program Files (x86)\Microsoft Visual Studio\2019\Community\VC\Tools\MSVC\14.29.30133\atlmfc\include\atltypes.h
; File D:\git\src\IBK\IBK_DRFN\ProjSrc\SrcChartEx\ChartOCX\ChartObject\GraphTool.cpp
; File C:\Program Files (x86)\Microsoft Visual Studio\2019\Community\VC\Tools\MSVC\14.29.30133\atlmfc\include\atltypes.h
; File D:\git\src\IBK\IBK_DRFN\ProjSrc\SrcChartEx\ChartOCX\ChartObject\GraphTool.cpp
; File C:\Program Files (x86)\Microsoft Visual Studio\2019\Community\VC\Tools\MSVC\14.29.30133\atlmfc\include\atltypes.h
; File D:\git\src\IBK\IBK_DRFN\ProjSrc\SrcChartEx\ChartOCX\ChartObject\GraphTool.cpp
;	COMDAT ?OnMouseMove@CGraphTool@@UAEXPAVCDC@@PAVCMainBlock@@IABVCPoint@@@Z
_TEXT	SEGMENT
_pDC$GSCopy$1$ = -56					; size = 4
$T5 = -52						; size = 4
_point$GSCopy$1$ = -48					; size = 4
_nInsertRow$6 = -44					; size = 4
_nInsertCol$7 = -40					; size = 4
_graphRegion$8 = -36					; size = 16
_offsetRegion$9 = -20					; size = 16
__$ArrayPad$ = -4					; size = 4
_pDC$ = 8						; size = 4
_pMainBlock$ = 12					; size = 4
___formal$ = 16						; size = 4
_point$ = 20						; size = 4
?OnMouseMove@CGraphTool@@UAEXPAVCDC@@PAVCMainBlock@@IABVCPoint@@@Z PROC ; CGraphTool::OnMouseMove, COMDAT
; _this$ = ecx

; 83   : {

  00000	55		 push	 ebp
  00001	8b ec		 mov	 ebp, esp
  00003	83 ec 38	 sub	 esp, 56			; 00000038H
  00006	a1 00 00 00 00	 mov	 eax, DWORD PTR ___security_cookie
  0000b	33 c5		 xor	 eax, ebp
  0000d	89 45 fc	 mov	 DWORD PTR __$ArrayPad$[ebp], eax
  00010	8b 45 08	 mov	 eax, DWORD PTR _pDC$[ebp]
  00013	53		 push	 ebx
  00014	8b 5d 0c	 mov	 ebx, DWORD PTR _pMainBlock$[ebp]
  00017	89 45 c8	 mov	 DWORD PTR _pDC$GSCopy$1$[ebp], eax
  0001a	8b 45 14	 mov	 eax, DWORD PTR _point$[ebp]
  0001d	89 45 d0	 mov	 DWORD PTR _point$GSCopy$1$[ebp], eax
  00020	56		 push	 esi
  00021	57		 push	 edi
  00022	8b f9		 mov	 edi, ecx

; 265  : 	if(pMainBlock == NULL || IsCursorType_NoneMode(point))

  00024	85 db		 test	 ebx, ebx
  00026	0f 84 af 00 00
	00		 je	 $LN5@OnMouseMov

; 245  : 	if(!m_bIsGraphMove || !m_graphMove.IsGraphMoving())

  0002c	80 7f 0c 00	 cmp	 BYTE PTR [edi+12], 0
  00030	0f 84 a5 00 00
	00		 je	 $LN5@OnMouseMov
  00036	8d 4f 18	 lea	 ecx, DWORD PTR [edi+24]
  00039	e8 00 00 00 00	 call	 ?IsGraphMoving@CGraphMove@@QBE_NXZ ; CGraphMove::IsGraphMoving
  0003e	84 c0		 test	 al, al
  00040	0f 84 95 00 00
	00		 je	 $LN5@OnMouseMov

; 248  : 	CRect offsetRegion(m_lBtDownPt, m_lBtDownPt + CPoint(1, 1));

  00046	8b 47 10	 mov	 eax, DWORD PTR [edi+16]
; File C:\Program Files (x86)\Microsoft Visual Studio\2019\Community\VC\Tools\MSVC\14.29.30133\atlmfc\include\atltypes.h

; 507  : 	return CPoint(x + point.x, y + point.y);

  00049	8b 77 10	 mov	 esi, DWORD PTR [edi+16]
  0004c	8b 57 14	 mov	 edx, DWORD PTR [edi+20]
  0004f	46		 inc	 esi
; File D:\git\src\IBK\IBK_DRFN\ProjSrc\SrcChartEx\ChartOCX\ChartObject\GraphTool.cpp

; 248  : 	CRect offsetRegion(m_lBtDownPt, m_lBtDownPt + CPoint(1, 1));

  00050	8b 4f 14	 mov	 ecx, DWORD PTR [edi+20]
; File C:\Program Files (x86)\Microsoft Visual Studio\2019\Community\VC\Tools\MSVC\14.29.30133\atlmfc\include\atltypes.h

; 507  : 	return CPoint(x + point.x, y + point.y);

  00053	42		 inc	 edx

; 686  : 	::InflateRect(this, x, y);

  00054	6a 03		 push	 3

; 568  : 	left = topLeft.x;

  00056	89 45 ec	 mov	 DWORD PTR _offsetRegion$9[ebp], eax

; 686  : 	::InflateRect(this, x, y);

  00059	8d 45 ec	 lea	 eax, DWORD PTR _offsetRegion$9[ebp]
  0005c	6a 03		 push	 3
  0005e	50		 push	 eax

; 569  : 	top = topLeft.y;

  0005f	89 4d f0	 mov	 DWORD PTR _offsetRegion$9[ebp+4], ecx

; 570  : 	right = bottomRight.x;

  00062	89 75 f4	 mov	 DWORD PTR _offsetRegion$9[ebp+8], esi

; 571  : 	bottom = bottomRight.y;

  00065	89 55 f8	 mov	 DWORD PTR _offsetRegion$9[ebp+12], edx

; 686  : 	::InflateRect(this, x, y);

  00068	ff 15 00 00 00
	00		 call	 DWORD PTR __imp__InflateRect@12

; 648  : 	return ::PtInRect(this, point);

  0006e	8b 75 d0	 mov	 esi, DWORD PTR _point$GSCopy$1$[ebp]
  00071	8d 45 ec	 lea	 eax, DWORD PTR _offsetRegion$9[ebp]
  00074	ff 76 04	 push	 DWORD PTR [esi+4]
  00077	ff 36		 push	 DWORD PTR [esi]
  00079	50		 push	 eax
  0007a	ff 15 00 00 00
	00		 call	 DWORD PTR __imp__PtInRect@12
; File D:\git\src\IBK\IBK_DRFN\ProjSrc\SrcChartEx\ChartOCX\ChartObject\GraphTool.cpp

; 250  : 	return ( offsetRegion.PtInRect(point) ? true : false);

  00080	85 c0		 test	 eax, eax
  00082	0f 95 c0	 setne	 al

; 265  : 	if(pMainBlock == NULL || IsCursorType_NoneMode(point))

  00085	84 c0		 test	 al, al
  00087	75 52		 jne	 SHORT $LN5@OnMouseMov

; 267  : 
; 268  : 	// Graph / - ojtaso (20070731)
; 269  : 	int nInsertCol = -1;
; 270  : 	int nInsertRow = -1;
; 271  : 	CRect graphRegion = pMainBlock->GetNoFrameGraphRegion(point, nInsertCol, nInsertRow);

  00089	8b 03		 mov	 eax, DWORD PTR [ebx]
  0008b	8d 4d d4	 lea	 ecx, DWORD PTR _nInsertRow$6[ebp]
  0008e	51		 push	 ecx
  0008f	8d 4d d8	 lea	 ecx, DWORD PTR _nInsertCol$7[ebp]
  00092	c7 45 d8 ff ff
	ff ff		 mov	 DWORD PTR _nInsertCol$7[ebp], -1
  00099	51		 push	 ecx
  0009a	56		 push	 esi
  0009b	8d 4d dc	 lea	 ecx, DWORD PTR _graphRegion$8[ebp]
  0009e	c7 45 d4 ff ff
	ff ff		 mov	 DWORD PTR _nInsertRow$6[ebp], -1
  000a5	51		 push	 ecx
  000a6	8b cb		 mov	 ecx, ebx
  000a8	ff 90 8c 01 00
	00		 call	 DWORD PTR [eax+396]
; File C:\Program Files (x86)\Microsoft Visual Studio\2019\Community\VC\Tools\MSVC\14.29.30133\atlmfc\include\atltypes.h

; 638  : 	return ::IsRectEmpty(this);

  000ae	8d 45 dc	 lea	 eax, DWORD PTR _graphRegion$8[ebp]
  000b1	50		 push	 eax
  000b2	ff 15 00 00 00
	00		 call	 DWORD PTR __imp__IsRectEmpty@4
; File D:\git\src\IBK\IBK_DRFN\ProjSrc\SrcChartEx\ChartOCX\ChartObject\GraphTool.cpp

; 272  : 	if(!graphRegion.IsRectEmpty())

  000b8	85 c0		 test	 eax, eax
  000ba	75 18		 jne	 SHORT $LN8@OnMouseMov

; 273  : 	{
; 274  : 		if(nInsertCol >= 0 && nInsertRow >= 0)

  000bc	39 45 d8	 cmp	 DWORD PTR _nInsertCol$7[ebp], eax
  000bf	7c 0c		 jl	 SHORT $LN7@OnMouseMov
  000c1	39 45 d4	 cmp	 DWORD PTR _nInsertRow$6[ebp], eax
  000c4	7c 07		 jl	 SHORT $LN7@OnMouseMov

; 275  : 			return CBaseToolEnumData::INSERT;

  000c6	b8 08 00 00 00	 mov	 eax, 8
  000cb	eb 10		 jmp	 SHORT $LN3@OnMouseMov
$LN7@OnMouseMov:

; 276  : 		else
; 277  : 			return CBaseToolEnumData::MOVE;

  000cd	b8 05 00 00 00	 mov	 eax, 5
  000d2	eb 09		 jmp	 SHORT $LN3@OnMouseMov
$LN8@OnMouseMov:

; 278  : 	}
; 279  : 	
; 280  : 	return CBaseToolEnumData::REMOVE;

  000d4	b8 07 00 00 00	 mov	 eax, 7
  000d9	eb 02		 jmp	 SHORT $LN3@OnMouseMov
$LN5@OnMouseMov:

; 266  : 		return CBaseToolEnumData::CTNONE;

  000db	33 c0		 xor	 eax, eax
$LN3@OnMouseMov:

; 84   : 	CBaseTool::ChangeCursor(GetCursorType(pMainBlock, point));

  000dd	89 45 cc	 mov	 DWORD PTR $T5[ebp], eax
  000e0	8b cf		 mov	 ecx, edi
  000e2	8d 45 cc	 lea	 eax, DWORD PTR $T5[ebp]
  000e5	50		 push	 eax
  000e6	e8 00 00 00 00	 call	 ?ChangeCursor@CBaseTool@@IAEXABW4CURSORTYPE@CBaseToolEnumData@@@Z ; CBaseTool::ChangeCursor

; 85   : 	OnMouseMove(pDC, pMainBlock);

  000eb	8b 07		 mov	 eax, DWORD PTR [edi]
  000ed	8b cf		 mov	 ecx, edi
  000ef	53		 push	 ebx
  000f0	ff 75 c8	 push	 DWORD PTR _pDC$GSCopy$1$[ebp]
  000f3	ff 50 2c	 call	 DWORD PTR [eax+44]

; 86   : }

  000f6	8b 4d fc	 mov	 ecx, DWORD PTR __$ArrayPad$[ebp]
  000f9	5f		 pop	 edi
  000fa	5e		 pop	 esi
  000fb	33 cd		 xor	 ecx, ebp
  000fd	5b		 pop	 ebx
  000fe	e8 00 00 00 00	 call	 @__security_check_cookie@4
  00103	8b e5		 mov	 esp, ebp
  00105	5d		 pop	 ebp
  00106	c2 10 00	 ret	 16			; 00000010H
?OnMouseMove@CGraphTool@@UAEXPAVCDC@@PAVCMainBlock@@IABVCPoint@@@Z ENDP ; CGraphTool::OnMouseMove
_TEXT	ENDS
; Function compile flags: /Ogtp
; File D:\git\src\IBK\IBK_DRFN\ProjSrc\SrcChartEx\ChartOCX\ChartObject\GraphTool.cpp
;	COMDAT ?OnLButtonUp@CGraphTool@@UAE_NPAVCDC@@PAVCMainBlock@@ABVCPoint@@@Z
_TEXT	SEGMENT
___formal$ = 8						; size = 4
_pMainBlock$ = 12					; size = 4
_bResult$1 = 16						; size = 1
$T2 = 16						; size = 4
_point$ = 16						; size = 4
?OnLButtonUp@CGraphTool@@UAE_NPAVCDC@@PAVCMainBlock@@ABVCPoint@@@Z PROC ; CGraphTool::OnLButtonUp, COMDAT
; _this$ = ecx

; 73   : {

  00000	55		 push	 ebp
  00001	8b ec		 mov	 ebp, esp
  00003	53		 push	 ebx
  00004	56		 push	 esi
  00005	8b f1		 mov	 esi, ecx

; 74   : 	bool result = OnLButtonUp();

  00007	8b 06		 mov	 eax, DWORD PTR [esi]
  00009	8b 40 28	 mov	 eax, DWORD PTR [eax+40]
  0000c	ff d0		 call	 eax
  0000e	8a d8		 mov	 bl, al

; 75   : 	if(result)

  00010	84 db		 test	 bl, bl
  00012	74 2d		 je	 SHORT $LN4@OnLButtonU

; 298  : 	if(!m_bIsGraphMove){

  00014	80 7e 0c 00	 cmp	 BYTE PTR [esi+12], 0
  00018	8b ce		 mov	 ecx, esi
  0001a	8b 06		 mov	 eax, DWORD PTR [esi]
  0001c	75 04		 jne	 SHORT $LN5@OnLButtonU

; 299  : 		GraphMoving_Ended(false);

  0001e	6a 00		 push	 0

; 300  : 		return false;

  00020	eb 1c		 jmp	 SHORT $LN12@OnLButtonU
$LN5@OnLButtonU:

; 301  : 	}
; 302  : 
; 303  : 	CGraphImp* pGraph = GetGraphMoving();

  00022	ff 50 58	 call	 DWORD PTR [eax+88]

; 304  : 	bool bResult = m_graphMove.GraphMoving(pMainBlock, pGraph, targetPoint);

  00025	ff 75 10	 push	 DWORD PTR _point$[ebp]
  00028	8d 4e 18	 lea	 ecx, DWORD PTR [esi+24]
  0002b	50		 push	 eax
  0002c	ff 75 0c	 push	 DWORD PTR _pMainBlock$[ebp]
  0002f	e8 00 00 00 00	 call	 ?GraphMoving@CGraphMove@@QAE_NPAVCMainBlock@@PAVCGraphImp@@ABVCPoint@@@Z ; CGraphMove::GraphMoving
  00034	88 45 10	 mov	 BYTE PTR _bResult$1[ebp], al

; 305  : 	GraphMoving_Ended(bResult);

  00037	8b ce		 mov	 ecx, esi
  00039	8b 06		 mov	 eax, DWORD PTR [esi]
  0003b	ff 75 10	 push	 DWORD PTR _bResult$1[ebp]
$LN12@OnLButtonU:

; 286  : 	if(!m_bIsGraphMove)

  0003e	ff 50 5c	 call	 DWORD PTR [eax+92]
$LN4@OnLButtonU:
  00041	80 7e 0c 00	 cmp	 BYTE PTR [esi+12], 0
  00045	74 1c		 je	 SHORT $LN11@OnLButtonU

; 287  : 		return;
; 288  : 
; 289  : 	m_graphMove.SetGraphMoving(bIsGraphMoving);

  00047	6a 00		 push	 0
  00049	8d 4e 18	 lea	 ecx, DWORD PTR [esi+24]
  0004c	e8 00 00 00 00	 call	 ?SetGraphMoving@CGraphMove@@QAEX_N@Z ; CGraphMove::SetGraphMoving

; 290  : 
; 291  : 	if(!bIsGraphMoving)
; 292  : 		CBaseTool::ChangeCursor(CBaseToolEnumData::CTNONE);

  00051	8d 45 10	 lea	 eax, DWORD PTR $T2[ebp]
  00054	c7 45 10 00 00
	00 00		 mov	 DWORD PTR $T2[ebp], 0
  0005b	50		 push	 eax
  0005c	8b ce		 mov	 ecx, esi
  0005e	e8 00 00 00 00	 call	 ?ChangeCursor@CBaseTool@@IAEXABW4CURSORTYPE@CBaseToolEnumData@@@Z ; CBaseTool::ChangeCursor
$LN11@OnLButtonU:
  00063	5e		 pop	 esi

; 76   : 		GraphMoving(pMainBlock, point);
; 77   : 
; 78   : 	SetGraphMoving(false);
; 79   : 	return result;
; 80   : }

  00064	8a c3		 mov	 al, bl
  00066	5b		 pop	 ebx
  00067	5d		 pop	 ebp
  00068	c2 0c 00	 ret	 12			; 0000000cH
?OnLButtonUp@CGraphTool@@UAE_NPAVCDC@@PAVCMainBlock@@ABVCPoint@@@Z ENDP ; CGraphTool::OnLButtonUp
_TEXT	ENDS
; Function compile flags: /Ogtp
; File D:\git\src\IBK\IBK_DRFN\ProjSrc\SrcChartEx\ChartOCX\ChartObject\GraphTool.cpp
;	COMDAT ?OnLButtonDown@CGraphTool@@UAE_NPAVCDC@@PAVCMainBlock@@IABVCPoint@@@Z
_TEXT	SEGMENT
_pDC$ = 8						; size = 4
_pMainBlock$ = 12					; size = 4
_nFlags$ = 16						; size = 4
$T1 = 20						; size = 4
_bIsGraphMoving$ = 20					; size = 1
_point$ = 20						; size = 4
?OnLButtonDown@CGraphTool@@UAE_NPAVCDC@@PAVCMainBlock@@IABVCPoint@@@Z PROC ; CGraphTool::OnLButtonDown, COMDAT
; _this$ = ecx

; 63   : {

  00000	55		 push	 ebp
  00001	8b ec		 mov	 ebp, esp
  00003	53		 push	 ebx
  00004	56		 push	 esi

; 64   : 	m_lBtDownPt = point;

  00005	8b 75 14	 mov	 esi, DWORD PTR _point$[ebp]
  00008	57		 push	 edi
  00009	8b f9		 mov	 edi, ecx

; 65   : 	CBaseTool::SetProcessEnded(false);

  0000b	6a 00		 push	 0
  0000d	8b 06		 mov	 eax, DWORD PTR [esi]
  0000f	8b 56 04	 mov	 edx, DWORD PTR [esi+4]
  00012	89 47 10	 mov	 DWORD PTR [edi+16], eax
  00015	89 57 14	 mov	 DWORD PTR [edi+20], edx
  00018	e8 00 00 00 00	 call	 ?SetProcessEnded@CBaseTool@@IAEX_N@Z ; CBaseTool::SetProcessEnded

; 66   : 	OnLButtonDown_Real(pDC, pMainBlock, nFlags, point);

  0001d	8b 07		 mov	 eax, DWORD PTR [edi]
  0001f	8b cf		 mov	 ecx, edi
  00021	56		 push	 esi
  00022	ff 75 10	 push	 DWORD PTR _nFlags$[ebp]
  00025	ff 75 0c	 push	 DWORD PTR _pMainBlock$[ebp]
  00028	ff 75 08	 push	 DWORD PTR _pDC$[ebp]
  0002b	ff 50 44	 call	 DWORD PTR [eax+68]

; 67   : 	
; 68   : 	SetGraphMoving(IsSelectedSubGraph());

  0002e	8b 07		 mov	 eax, DWORD PTR [edi]
  00030	8b cf		 mov	 ecx, edi
  00032	8b 40 50	 mov	 eax, DWORD PTR [eax+80]
  00035	ff d0		 call	 eax

; 286  : 	if(!m_bIsGraphMove)

  00037	80 7f 0c 00	 cmp	 BYTE PTR [edi+12], 0

; 67   : 	
; 68   : 	SetGraphMoving(IsSelectedSubGraph());

  0003b	8a d8		 mov	 bl, al
  0003d	88 5d 14	 mov	 BYTE PTR _bIsGraphMoving$[ebp], bl

; 286  : 	if(!m_bIsGraphMove)

  00040	74 21		 je	 SHORT $LN8@OnLButtonD

; 287  : 		return;
; 288  : 
; 289  : 	m_graphMove.SetGraphMoving(bIsGraphMoving);

  00042	ff 75 14	 push	 DWORD PTR _bIsGraphMoving$[ebp]
  00045	8d 4f 18	 lea	 ecx, DWORD PTR [edi+24]
  00048	e8 00 00 00 00	 call	 ?SetGraphMoving@CGraphMove@@QAEX_N@Z ; CGraphMove::SetGraphMoving

; 290  : 
; 291  : 	if(!bIsGraphMoving)

  0004d	84 db		 test	 bl, bl
  0004f	75 12		 jne	 SHORT $LN8@OnLButtonD

; 292  : 		CBaseTool::ChangeCursor(CBaseToolEnumData::CTNONE);

  00051	8d 45 14	 lea	 eax, DWORD PTR $T1[ebp]
  00054	c7 45 14 00 00
	00 00		 mov	 DWORD PTR $T1[ebp], 0
  0005b	50		 push	 eax
  0005c	8b cf		 mov	 ecx, edi
  0005e	e8 00 00 00 00	 call	 ?ChangeCursor@CBaseTool@@IAEXABW4CURSORTYPE@CBaseToolEnumData@@@Z ; CBaseTool::ChangeCursor
$LN8@OnLButtonD:
  00063	5f		 pop	 edi

; 69   : 	return true;
; 70   : }

  00064	5e		 pop	 esi
  00065	b0 01		 mov	 al, 1
  00067	5b		 pop	 ebx
  00068	5d		 pop	 ebp
  00069	c2 10 00	 ret	 16			; 00000010H
?OnLButtonDown@CGraphTool@@UAE_NPAVCDC@@PAVCMainBlock@@IABVCPoint@@@Z ENDP ; CGraphTool::OnLButtonDown
_TEXT	ENDS
; Function compile flags: /Ogtp
; File D:\git\src\IBK\IBK_DRFN\ProjSrc\SrcChartEx\ChartOCX\ChartObject\GraphTool.cpp
;	COMDAT ?InitializeAllData@CGraphTool@@UAEXXZ
_TEXT	SEGMENT
$T1 = -4						; size = 4
?InitializeAllData@CGraphTool@@UAEXXZ PROC		; CGraphTool::InitializeAllData, COMDAT
; _this$ = ecx

; 55   : {

  00000	55		 push	 ebp
  00001	8b ec		 mov	 ebp, esp
  00003	51		 push	 ecx
  00004	56		 push	 esi
  00005	8b f1		 mov	 esi, ecx

; 56   : 	CBaseTool::InitializeAllData();

  00007	e8 00 00 00 00	 call	 ?InitializeAllData@CBaseTool@@UAEXXZ ; CBaseTool::InitializeAllData

; 57   : 	CBaseTool::ChangeCursor(CBaseToolEnumData::CTNONE);

  0000c	8d 45 fc	 lea	 eax, DWORD PTR $T1[ebp]
  0000f	c7 45 fc 00 00
	00 00		 mov	 DWORD PTR $T1[ebp], 0
  00016	50		 push	 eax
  00017	8b ce		 mov	 ecx, esi
  00019	e8 00 00 00 00	 call	 ?ChangeCursor@CBaseTool@@IAEXABW4CURSORTYPE@CBaseToolEnumData@@@Z ; CBaseTool::ChangeCursor

; 58   : 	m_graphMove.InitializeAllData(CBaseTool::GetParent());

  0001e	8b ce		 mov	 ecx, esi
  00020	e8 00 00 00 00	 call	 ?GetParent@CBaseTool@@QBEPAVCWnd@@XZ ; CBaseTool::GetParent
  00025	50		 push	 eax
  00026	8d 4e 18	 lea	 ecx, DWORD PTR [esi+24]
  00029	e8 00 00 00 00	 call	 ?InitializeAllData@CGraphMove@@QAEXPAVCWnd@@@Z ; CGraphMove::InitializeAllData
  0002e	5e		 pop	 esi

; 59   : }

  0002f	8b e5		 mov	 esp, ebp
  00031	5d		 pop	 ebp
  00032	c3		 ret	 0
?InitializeAllData@CGraphTool@@UAEXXZ ENDP		; CGraphTool::InitializeAllData
_TEXT	ENDS
; Function compile flags: /Ogtp
; File D:\git\src\IBK\IBK_DRFN\ProjSrc\SrcChartEx\ChartOCX\ChartObject\GraphTool.cpp
;	COMDAT ?SetGraphDelete@CGraphTool@@QAEX_N@Z
_TEXT	SEGMENT
_bIsGraphDelete$ = 8					; size = 1
?SetGraphDelete@CGraphTool@@QAEX_N@Z PROC		; CGraphTool::SetGraphDelete, COMDAT
; _this$ = ecx

; 48   : {

  00000	55		 push	 ebp
  00001	8b ec		 mov	 ebp, esp

; 49   : 	m_bIsGraphDelete = bIsGraphDelete;

  00003	8a 45 08	 mov	 al, BYTE PTR _bIsGraphDelete$[ebp]
  00006	88 41 0d	 mov	 BYTE PTR [ecx+13], al

; 50   : }

  00009	5d		 pop	 ebp
  0000a	c2 04 00	 ret	 4
?SetGraphDelete@CGraphTool@@QAEX_N@Z ENDP		; CGraphTool::SetGraphDelete
_TEXT	ENDS
; Function compile flags: /Ogtp
; File D:\git\src\IBK\IBK_DRFN\ProjSrc\SrcChartEx\ChartOCX\ChartObject\GraphTool.cpp
;	COMDAT ?SetGraphMove@CGraphTool@@QAEX_N@Z
_TEXT	SEGMENT
_bIsGraphMove$ = 8					; size = 1
?SetGraphMove@CGraphTool@@QAEX_N@Z PROC			; CGraphTool::SetGraphMove, COMDAT
; _this$ = ecx

; 43   : {

  00000	55		 push	 ebp
  00001	8b ec		 mov	 ebp, esp

; 44   : 	m_bIsGraphMove = bIsGraphMove;

  00003	8a 45 08	 mov	 al, BYTE PTR _bIsGraphMove$[ebp]
  00006	88 41 0c	 mov	 BYTE PTR [ecx+12], al

; 45   : }

  00009	5d		 pop	 ebp
  0000a	c2 04 00	 ret	 4
?SetGraphMove@CGraphTool@@QAEX_N@Z ENDP			; CGraphTool::SetGraphMove
_TEXT	ENDS
; Function compile flags: /Ogtp
; File D:\git\src\IBK\IBK_DRFN\ProjSrc\SrcChartEx\ChartOCX\ChartObject\GraphTool.cpp
;	COMDAT ?SetIChartCtrl@CGraphTool@@QAEXPAUIChartCtrl@@@Z
_TEXT	SEGMENT
_p_pICharetCtrl$ = 8					; size = 4
?SetIChartCtrl@CGraphTool@@QAEXPAUIChartCtrl@@@Z PROC	; CGraphTool::SetIChartCtrl, COMDAT
; _this$ = ecx

; 33   : {

  00000	55		 push	 ebp
  00001	8b ec		 mov	 ebp, esp
  00003	56		 push	 esi
  00004	57		 push	 edi

; 34   : 	CBaseTool::SetIChartCtrl(p_pICharetCtrl);

  00005	8b 7d 08	 mov	 edi, DWORD PTR _p_pICharetCtrl$[ebp]
  00008	8b f1		 mov	 esi, ecx
  0000a	57		 push	 edi
  0000b	e8 00 00 00 00	 call	 ?SetIChartCtrl@CBaseTool@@QAEXPAUIChartCtrl@@@Z ; CBaseTool::SetIChartCtrl

; 35   : 
; 36   : 	if(p_pICharetCtrl == NULL)

  00010	85 ff		 test	 edi, edi
  00012	75 11		 jne	 SHORT $LN2@SetIChartC

; 37   : 		m_graphMove.InitializeAllData(NULL);

  00014	33 c0		 xor	 eax, eax

; 40   : }

  00016	8d 4e 18	 lea	 ecx, DWORD PTR [esi+24]
  00019	50		 push	 eax
  0001a	e8 00 00 00 00	 call	 ?InitializeAllData@CGraphMove@@QAEXPAVCWnd@@@Z ; CGraphMove::InitializeAllData
  0001f	5f		 pop	 edi
  00020	5e		 pop	 esi
  00021	5d		 pop	 ebp
  00022	c2 04 00	 ret	 4
$LN2@SetIChartC:

; 38   : 	else
; 39   : 		m_graphMove.InitializeAllData(p_pICharetCtrl->GetChartWindowPointer());

  00025	8b 07		 mov	 eax, DWORD PTR [edi]
  00027	8b cf		 mov	 ecx, edi
  00029	ff 90 80 03 00
	00		 call	 DWORD PTR [eax+896]

; 40   : }

  0002f	50		 push	 eax
  00030	8d 4e 18	 lea	 ecx, DWORD PTR [esi+24]
  00033	e8 00 00 00 00	 call	 ?InitializeAllData@CGraphMove@@QAEXPAVCWnd@@@Z ; CGraphMove::InitializeAllData
  00038	5f		 pop	 edi
  00039	5e		 pop	 esi
  0003a	5d		 pop	 ebp
  0003b	c2 04 00	 ret	 4
?SetIChartCtrl@CGraphTool@@QAEXPAUIChartCtrl@@@Z ENDP	; CGraphTool::SetIChartCtrl
_TEXT	ENDS
; Function compile flags: /Ogtp
; File D:\git\src\IBK\IBK_DRFN\ProjSrc\SrcChartEx\ChartOCX\ChartObject\GraphTool.cpp
; File C:\Program Files (x86)\Microsoft Visual Studio\2019\Community\VC\Tools\MSVC\14.29.30133\atlmfc\include\atltypes.h
; File D:\git\src\IBK\IBK_DRFN\ProjSrc\SrcChartEx\ChartOCX\ChartObject\GraphTool.cpp
;	COMDAT ??0CGraphTool@@QAE@XZ
_TEXT	SEGMENT
??0CGraphTool@@QAE@XZ PROC				; CGraphTool::CGraphTool, COMDAT
; _this$ = ecx

; 27   : {

  00000	56		 push	 esi
  00001	8b f1		 mov	 esi, ecx
  00003	e8 00 00 00 00	 call	 ??0CBaseTool@@QAE@XZ	; CBaseTool::CBaseTool
  00008	c7 06 00 00 00
	00		 mov	 DWORD PTR [esi], OFFSET ??_7CGraphTool@@6B@

; 26   : 	m_graphMove(CBaseTool::GetParent())

  0000e	8b ce		 mov	 ecx, esi
  00010	66 c7 46 0c 01
	01		 mov	 WORD PTR [esi+12], 257	; 00000101H
; File C:\Program Files (x86)\Microsoft Visual Studio\2019\Community\VC\Tools\MSVC\14.29.30133\atlmfc\include\atltypes.h

; 408  : 	x = initX;

  00016	c7 46 10 00 00
	00 00		 mov	 DWORD PTR [esi+16], 0

; 409  : 	y = initY;

  0001d	c7 46 14 00 00
	00 00		 mov	 DWORD PTR [esi+20], 0
; File D:\git\src\IBK\IBK_DRFN\ProjSrc\SrcChartEx\ChartOCX\ChartObject\GraphTool.cpp

; 26   : 	m_graphMove(CBaseTool::GetParent())

  00024	e8 00 00 00 00	 call	 ?GetParent@CBaseTool@@QBEPAVCWnd@@XZ ; CBaseTool::GetParent
  00029	50		 push	 eax
  0002a	8d 4e 18	 lea	 ecx, DWORD PTR [esi+24]
  0002d	e8 00 00 00 00	 call	 ??0CGraphMove@@QAE@PAVCWnd@@@Z ; CGraphMove::CGraphMove

; 28   : }

  00032	8b c6		 mov	 eax, esi
  00034	5e		 pop	 esi
  00035	c3		 ret	 0
??0CGraphTool@@QAE@XZ ENDP				; CGraphTool::CGraphTool
_TEXT	ENDS
; Function compile flags: /Ogtp
; File C:\Program Files (x86)\Microsoft Visual Studio\2019\Community\VC\Tools\MSVC\14.29.30133\include\deque
; File C:\Program Files (x86)\Microsoft Visual Studio\2019\Community\VC\Tools\MSVC\14.29.30133\include\utility
; File C:\Program Files (x86)\Microsoft Visual Studio\2019\Community\VC\Tools\MSVC\14.29.30133\include\xmemory
; File C:\Program Files (x86)\Microsoft Visual Studio\2019\Community\VC\Tools\MSVC\14.29.30133\include\utility
; File C:\Program Files (x86)\Microsoft Visual Studio\2019\Community\VC\Tools\MSVC\14.29.30133\include\xmemory
;	COMDAT ??1CSelectedSubGraphDeque@@QAE@XZ
_TEXT	SEGMENT
??1CSelectedSubGraphDeque@@QAE@XZ PROC			; CSelectedSubGraphDeque::~CSelectedSubGraphDeque, COMDAT
; _this$ = ecx
; File C:\Program Files (x86)\Microsoft Visual Studio\2019\Community\VC\Tools\MSVC\14.29.30133\include\deque

; 1332 :         _Tidy();

  00000	56		 push	 esi
  00001	8b f1		 mov	 esi, ecx
  00003	e8 00 00 00 00	 call	 ?_Tidy@?$deque@VCSelectedSubGraphData@@V?$allocator@VCSelectedSubGraphData@@@std@@@std@@AAEXXZ ; std::deque<CSelectedSubGraphData,std::allocator<CSelectedSubGraphData> >::_Tidy

; 861  :         _Tidy();

  00008	8b ce		 mov	 ecx, esi
  0000a	e8 00 00 00 00	 call	 ?_Tidy@?$deque@VCSelectedSubGraphData@@V?$allocator@VCSelectedSubGraphData@@@std@@@std@@AAEXXZ ; std::deque<CSelectedSubGraphData,std::allocator<CSelectedSubGraphData> >::_Tidy
; File C:\Program Files (x86)\Microsoft Visual Studio\2019\Community\VC\Tools\MSVC\14.29.30133\include\utility

; 602  :     _Ty _Old_val = static_cast<_Ty&&>(_Val);

  0000f	8b 06		 mov	 eax, DWORD PTR [esi]
; File C:\Program Files (x86)\Microsoft Visual Studio\2019\Community\VC\Tools\MSVC\14.29.30133\include\xmemory

; 255  :         ::operator delete(_Ptr, _Bytes);

  00011	6a 08		 push	 8
  00013	50		 push	 eax
; File C:\Program Files (x86)\Microsoft Visual Studio\2019\Community\VC\Tools\MSVC\14.29.30133\include\utility

; 603  :     _Val         = static_cast<_Other&&>(_New_val);

  00014	c7 06 00 00 00
	00		 mov	 DWORD PTR [esi], 0
; File C:\Program Files (x86)\Microsoft Visual Studio\2019\Community\VC\Tools\MSVC\14.29.30133\include\xmemory

; 255  :         ::operator delete(_Ptr, _Bytes);

  0001a	e8 00 00 00 00	 call	 ??3@YAXPAXI@Z		; operator delete
  0001f	83 c4 08	 add	 esp, 8
  00022	5e		 pop	 esi
  00023	c3		 ret	 0
??1CSelectedSubGraphDeque@@QAE@XZ ENDP			; CSelectedSubGraphDeque::~CSelectedSubGraphDeque
_TEXT	ENDS
; Function compile flags: /Ogtp
; File C:\Program Files (x86)\Microsoft Visual Studio\2019\Community\VC\Tools\MSVC\14.29.30133\include\deque
; File C:\Program Files (x86)\Microsoft Visual Studio\2019\Community\VC\Tools\MSVC\14.29.30133\include\xmemory
; File C:\Program Files (x86)\Microsoft Visual Studio\2019\Community\VC\Tools\MSVC\14.29.30133\include\deque
; File C:\Program Files (x86)\Microsoft Visual Studio\2019\Community\VC\Tools\MSVC\14.29.30133\include\xmemory
; File C:\Program Files (x86)\Microsoft Visual Studio\2019\Community\VC\Tools\MSVC\14.29.30133\include\deque
; File C:\Program Files (x86)\Microsoft Visual Studio\2019\Community\VC\Tools\MSVC\14.29.30133\include\xmemory
; File C:\Program Files (x86)\Microsoft Visual Studio\2019\Community\VC\Tools\MSVC\14.29.30133\include\deque
;	COMDAT ?_Tidy@?$deque@VCSelectedSubGraphData@@V?$allocator@VCSelectedSubGraphData@@@std@@@std@@AAEXXZ
_TEXT	SEGMENT
?_Tidy@?$deque@VCSelectedSubGraphData@@V?$allocator@VCSelectedSubGraphData@@@std@@@std@@AAEXXZ PROC ; std::deque<CSelectedSubGraphData,std::allocator<CSelectedSubGraphData> >::_Tidy, COMDAT
; _this$ = ecx

; 1471 :     void _Tidy() noexcept { // free all storage

  00000	57		 push	 edi
  00001	8b f9		 mov	 edi, ecx

; 1002 :         return _Mysize() == 0;

  00003	8b 4f 10	 mov	 ecx, DWORD PTR [edi+16]
  00006	85 c9		 test	 ecx, ecx

; 1472 :         _Orphan_all();
; 1473 : 
; 1474 :         _Alpty _Almap(_Getal());
; 1475 :         while (!empty()) {

  00008	74 15		 je	 SHORT $LN60@Tidy
  0000a	66 0f 1f 44 00
	00		 npad	 6
$LL2@Tidy:

; 1146 :         if (--_Mysize() == 0) {

  00010	8d 41 ff	 lea	 eax, DWORD PTR [ecx-1]
  00013	89 47 10	 mov	 DWORD PTR [edi+16], eax
  00016	8b c8		 mov	 ecx, eax
  00018	85 c0		 test	 eax, eax
  0001a	75 f4		 jne	 SHORT $LL2@Tidy

; 1147 :             _Myoff() = 0;

  0001c	89 47 0c	 mov	 DWORD PTR [edi+12], eax
$LN60@Tidy:
  0001f	56		 push	 esi

; 1479 :         for (size_type _Block = _Mapsize(); 0 < _Block;) { // free storage for a block and destroy pointer

  00020	8b 77 08	 mov	 esi, DWORD PTR [edi+8]
  00023	85 f6		 test	 esi, esi
  00025	74 1a		 je	 SHORT $LN5@Tidy
$LL4@Tidy:

; 1480 :             if (_Map()[--_Block]) { // free block and destroy its pointer

  00027	8b 47 04	 mov	 eax, DWORD PTR [edi+4]
  0002a	4e		 dec	 esi
  0002b	8b 04 b0	 mov	 eax, DWORD PTR [eax+esi*4]
  0002e	85 c0		 test	 eax, eax
  00030	74 0b		 je	 SHORT $LN23@Tidy
; File C:\Program Files (x86)\Microsoft Visual Studio\2019\Community\VC\Tools\MSVC\14.29.30133\include\xmemory

; 255  :         ::operator delete(_Ptr, _Bytes);

  00032	6a 10		 push	 16			; 00000010H
  00034	50		 push	 eax
  00035	e8 00 00 00 00	 call	 ??3@YAXPAXI@Z		; operator delete
  0003a	83 c4 08	 add	 esp, 8
$LN23@Tidy:
; File C:\Program Files (x86)\Microsoft Visual Studio\2019\Community\VC\Tools\MSVC\14.29.30133\include\deque

; 1479 :         for (size_type _Block = _Mapsize(); 0 < _Block;) { // free storage for a block and destroy pointer

  0003d	85 f6		 test	 esi, esi
  0003f	75 e6		 jne	 SHORT $LL4@Tidy
$LN5@Tidy:

; 1481 :                 _Getal().deallocate(_Map()[_Block], _Block_size);
; 1482 :                 _Destroy_in_place(_Map()[_Block]);
; 1483 :             }
; 1484 :         }
; 1485 : 
; 1486 :         if (_Map() != _Mapptr()) {

  00041	8b 47 04	 mov	 eax, DWORD PTR [edi+4]
  00044	5e		 pop	 esi
  00045	85 c0		 test	 eax, eax
  00047	74 2a		 je	 SHORT $LN41@Tidy
; File C:\Program Files (x86)\Microsoft Visual Studio\2019\Community\VC\Tools\MSVC\14.29.30133\include\xmemory

; 797  :         _Deallocate<_New_alignof<_Ty>>(_Ptr, sizeof(_Ty) * _Count);

  00049	8b 4f 08	 mov	 ecx, DWORD PTR [edi+8]
  0004c	c1 e1 02	 shl	 ecx, 2

; 251  :         if (_Bytes >= _Big_allocation_threshold) { // boost the alignment of big allocations to help autovectorization

  0004f	81 f9 00 10 00
	00		 cmp	 ecx, 4096		; 00001000H
  00055	72 12		 jb	 SHORT $LN51@Tidy

; 150  :     const uintptr_t _Ptr_container   = _Ptr_user[-1];

  00057	8b 50 fc	 mov	 edx, DWORD PTR [eax-4]
  0005a	83 c1 23	 add	 ecx, 35			; 00000023H

; 151  : 
; 152  :     // If the following asserts, it likely means that we are performing
; 153  :     // an aligned delete on memory coming from an unaligned allocation.
; 154  :     _STL_ASSERT(_Ptr_user[-2] == _Big_allocation_sentinel, "invalid argument");
; 155  : 
; 156  :     // Extra paranoia on aligned allocation/deallocation; ensure _Ptr_container is
; 157  :     // in range [_Min_back_shift, _Non_user_size]
; 158  : #ifdef _DEBUG
; 159  :     constexpr uintptr_t _Min_back_shift = 2 * sizeof(void*);
; 160  : #else // ^^^ _DEBUG ^^^ // vvv !_DEBUG vvv
; 161  :     constexpr uintptr_t _Min_back_shift = sizeof(void*);
; 162  : #endif // _DEBUG
; 163  :     const uintptr_t _Back_shift = reinterpret_cast<uintptr_t>(_Ptr) - _Ptr_container;

  0005d	2b c2		 sub	 eax, edx

; 164  :     _STL_VERIFY(_Back_shift >= _Min_back_shift && _Back_shift <= _Non_user_size, "invalid argument");

  0005f	83 c0 fc	 add	 eax, -4			; fffffffcH
  00062	83 f8 1f	 cmp	 eax, 31			; 0000001fH
  00065	77 1c		 ja	 SHORT $LN48@Tidy

; 165  :     _Ptr = reinterpret_cast<void*>(_Ptr_container);

  00067	8b c2		 mov	 eax, edx
$LN51@Tidy:

; 255  :         ::operator delete(_Ptr, _Bytes);

  00069	51		 push	 ecx
  0006a	50		 push	 eax
  0006b	e8 00 00 00 00	 call	 ??3@YAXPAXI@Z		; operator delete
  00070	83 c4 08	 add	 esp, 8
$LN41@Tidy:
; File C:\Program Files (x86)\Microsoft Visual Studio\2019\Community\VC\Tools\MSVC\14.29.30133\include\deque

; 1490 :         _Mapsize() = 0;

  00073	c7 47 08 00 00
	00 00		 mov	 DWORD PTR [edi+8], 0

; 1491 :         _Map()     = _Mapptr();

  0007a	c7 47 04 00 00
	00 00		 mov	 DWORD PTR [edi+4], 0
  00081	5f		 pop	 edi

; 1492 :     }

  00082	c3		 ret	 0
$LN48@Tidy:
; File C:\Program Files (x86)\Microsoft Visual Studio\2019\Community\VC\Tools\MSVC\14.29.30133\include\xmemory

; 164  :     _STL_VERIFY(_Back_shift >= _Min_back_shift && _Back_shift <= _Non_user_size, "invalid argument");

  00083	ff 15 00 00 00
	00		 call	 DWORD PTR __imp___invalid_parameter_noinfo_noreturn
$LN62@Tidy:
  00089	cc		 int	 3
?_Tidy@?$deque@VCSelectedSubGraphData@@V?$allocator@VCSelectedSubGraphData@@@std@@@std@@AAEXXZ ENDP ; std::deque<CSelectedSubGraphData,std::allocator<CSelectedSubGraphData> >::_Tidy
_TEXT	ENDS
; Function compile flags: /Ogtp
; File C:\Program Files (x86)\Microsoft Visual Studio\2019\Community\VC\Tools\MSVC\14.29.30133\include\exception
;	COMDAT ?_Throw_bad_array_new_length@std@@YAXXZ
_TEXT	SEGMENT
$T1 = -12						; size = 12
?_Throw_bad_array_new_length@std@@YAXXZ PROC		; std::_Throw_bad_array_new_length, COMDAT

; 315  : [[noreturn]] inline void _Throw_bad_array_new_length() {

  00000	55		 push	 ebp
  00001	8b ec		 mov	 ebp, esp
  00003	83 ec 0c	 sub	 esp, 12			; 0000000cH

; 316  :     _THROW(bad_array_new_length{});

  00006	8d 4d f4	 lea	 ecx, DWORD PTR $T1[ebp]
  00009	e8 00 00 00 00	 call	 ??0bad_array_new_length@std@@QAE@XZ ; std::bad_array_new_length::bad_array_new_length
  0000e	68 00 00 00 00	 push	 OFFSET __TI3?AVbad_array_new_length@std@@
  00013	8d 45 f4	 lea	 eax, DWORD PTR $T1[ebp]
  00016	50		 push	 eax
  00017	e8 00 00 00 00	 call	 __CxxThrowException@8
$LN3@Throw_bad_:
  0001c	cc		 int	 3
?_Throw_bad_array_new_length@std@@YAXXZ ENDP		; std::_Throw_bad_array_new_length
_TEXT	ENDS
; Function compile flags: /Ogtp
; File C:\Program Files (x86)\Microsoft Visual Studio\2019\Community\VC\Tools\MSVC\14.29.30133\include\vcruntime_exception.h
;	COMDAT ??_Gbad_array_new_length@std@@UAEPAXI@Z
_TEXT	SEGMENT
___flags$ = 8						; size = 4
??_Gbad_array_new_length@std@@UAEPAXI@Z PROC		; std::bad_array_new_length::`scalar deleting destructor', COMDAT
; _this$ = ecx
  00000	55		 push	 ebp
  00001	8b ec		 mov	 ebp, esp

; 89   :     {

  00003	56		 push	 esi
  00004	8b f1		 mov	 esi, ecx

; 90   :         __std_exception_destroy(&_Data);

  00006	8d 46 04	 lea	 eax, DWORD PTR [esi+4]
  00009	c7 06 00 00 00
	00		 mov	 DWORD PTR [esi], OFFSET ??_7exception@std@@6B@
  0000f	50		 push	 eax
  00010	e8 00 00 00 00	 call	 ___std_exception_destroy
  00015	83 c4 04	 add	 esp, 4
  00018	f6 45 08 01	 test	 BYTE PTR ___flags$[ebp], 1
  0001c	74 0b		 je	 SHORT $LN12@scalar
  0001e	6a 0c		 push	 12			; 0000000cH
  00020	56		 push	 esi
  00021	e8 00 00 00 00	 call	 ??3@YAXPAXI@Z		; operator delete
  00026	83 c4 08	 add	 esp, 8
$LN12@scalar:
  00029	8b c6		 mov	 eax, esi
  0002b	5e		 pop	 esi
  0002c	5d		 pop	 ebp
  0002d	c2 04 00	 ret	 4
??_Gbad_array_new_length@std@@UAEPAXI@Z ENDP		; std::bad_array_new_length::`scalar deleting destructor'
_TEXT	ENDS
; Function compile flags: /Ogtp
; File C:\Program Files (x86)\Microsoft Visual Studio\2019\Community\VC\Tools\MSVC\14.29.30133\include\vcruntime_exception.h
;	COMDAT ??0bad_array_new_length@std@@QAE@ABV01@@Z
_TEXT	SEGMENT
___that$ = 8						; size = 4
??0bad_array_new_length@std@@QAE@ABV01@@Z PROC		; std::bad_array_new_length::bad_array_new_length, COMDAT
; _this$ = ecx
  00000	55		 push	 ebp
  00001	8b ec		 mov	 ebp, esp

; 72   :     {

  00003	56		 push	 esi
  00004	8b f1		 mov	 esi, ecx
  00006	0f 57 c0	 xorps	 xmm0, xmm0

; 71   :         : _Data()

  00009	8d 46 04	 lea	 eax, DWORD PTR [esi+4]

; 73   :         __std_exception_copy(&_Other._Data, &_Data);

  0000c	50		 push	 eax
  0000d	c7 06 00 00 00
	00		 mov	 DWORD PTR [esi], OFFSET ??_7exception@std@@6B@
  00013	66 0f d6 00	 movq	 QWORD PTR [eax], xmm0
  00017	8b 45 08	 mov	 eax, DWORD PTR ___that$[ebp]
  0001a	83 c0 04	 add	 eax, 4
  0001d	50		 push	 eax
  0001e	e8 00 00 00 00	 call	 ___std_exception_copy
  00023	83 c4 08	 add	 esp, 8
  00026	c7 06 00 00 00
	00		 mov	 DWORD PTR [esi], OFFSET ??_7bad_array_new_length@std@@6B@
  0002c	8b c6		 mov	 eax, esi
  0002e	5e		 pop	 esi
  0002f	5d		 pop	 ebp
  00030	c2 04 00	 ret	 4
??0bad_array_new_length@std@@QAE@ABV01@@Z ENDP		; std::bad_array_new_length::bad_array_new_length
_TEXT	ENDS
; Function compile flags: /Ogtp
; File C:\Program Files (x86)\Microsoft Visual Studio\2019\Community\VC\Tools\MSVC\14.29.30133\include\vcruntime_exception.h
;	COMDAT ??1bad_array_new_length@std@@UAE@XZ
_TEXT	SEGMENT
??1bad_array_new_length@std@@UAE@XZ PROC		; std::bad_array_new_length::~bad_array_new_length, COMDAT
; _this$ = ecx

; 90   :         __std_exception_destroy(&_Data);

  00000	8d 41 04	 lea	 eax, DWORD PTR [ecx+4]
  00003	c7 01 00 00 00
	00		 mov	 DWORD PTR [ecx], OFFSET ??_7exception@std@@6B@
  00009	50		 push	 eax
  0000a	e8 00 00 00 00	 call	 ___std_exception_destroy
  0000f	59		 pop	 ecx
  00010	c3		 ret	 0
??1bad_array_new_length@std@@UAE@XZ ENDP		; std::bad_array_new_length::~bad_array_new_length
_TEXT	ENDS
; Function compile flags: /Ogtp
; File C:\Program Files (x86)\Microsoft Visual Studio\2019\Community\VC\Tools\MSVC\14.29.30133\include\vcruntime_exception.h
;	COMDAT ??0bad_array_new_length@std@@QAE@XZ
_TEXT	SEGMENT
??0bad_array_new_length@std@@QAE@XZ PROC		; std::bad_array_new_length::bad_array_new_length, COMDAT
; _this$ = ecx

; 141  :     {

  00000	0f 57 c0	 xorps	 xmm0, xmm0

; 142  :     }

  00003	8b c1		 mov	 eax, ecx

; 65   :         : _Data()

  00005	66 0f d6 41 04	 movq	 QWORD PTR [ecx+4], xmm0

; 66   :     {
; 67   :         _Data._What = _Message;

  0000a	c7 41 04 00 00
	00 00		 mov	 DWORD PTR [ecx+4], OFFSET ??_C@_0BF@KINCDENJ@bad?5array?5new?5length@

; 141  :     {

  00011	c7 01 00 00 00
	00		 mov	 DWORD PTR [ecx], OFFSET ??_7bad_array_new_length@std@@6B@

; 142  :     }

  00017	c3		 ret	 0
??0bad_array_new_length@std@@QAE@XZ ENDP		; std::bad_array_new_length::bad_array_new_length
_TEXT	ENDS
; Function compile flags: /Ogtp
; File C:\Program Files (x86)\Microsoft Visual Studio\2019\Community\VC\Tools\MSVC\14.29.30133\include\vcruntime_exception.h
;	COMDAT ??_Gbad_alloc@std@@UAEPAXI@Z
_TEXT	SEGMENT
___flags$ = 8						; size = 4
??_Gbad_alloc@std@@UAEPAXI@Z PROC			; std::bad_alloc::`scalar deleting destructor', COMDAT
; _this$ = ecx
  00000	55		 push	 ebp
  00001	8b ec		 mov	 ebp, esp

; 89   :     {

  00003	56		 push	 esi
  00004	8b f1		 mov	 esi, ecx

; 90   :         __std_exception_destroy(&_Data);

  00006	8d 46 04	 lea	 eax, DWORD PTR [esi+4]
  00009	c7 06 00 00 00
	00		 mov	 DWORD PTR [esi], OFFSET ??_7exception@std@@6B@
  0000f	50		 push	 eax
  00010	e8 00 00 00 00	 call	 ___std_exception_destroy
  00015	83 c4 04	 add	 esp, 4
  00018	f6 45 08 01	 test	 BYTE PTR ___flags$[ebp], 1
  0001c	74 0b		 je	 SHORT $LN9@scalar
  0001e	6a 0c		 push	 12			; 0000000cH
  00020	56		 push	 esi
  00021	e8 00 00 00 00	 call	 ??3@YAXPAXI@Z		; operator delete
  00026	83 c4 08	 add	 esp, 8
$LN9@scalar:
  00029	8b c6		 mov	 eax, esi
  0002b	5e		 pop	 esi
  0002c	5d		 pop	 ebp
  0002d	c2 04 00	 ret	 4
??_Gbad_alloc@std@@UAEPAXI@Z ENDP			; std::bad_alloc::`scalar deleting destructor'
_TEXT	ENDS
; Function compile flags: /Ogtp
; File C:\Program Files (x86)\Microsoft Visual Studio\2019\Community\VC\Tools\MSVC\14.29.30133\include\vcruntime_exception.h
;	COMDAT ??0bad_alloc@std@@QAE@ABV01@@Z
_TEXT	SEGMENT
___that$ = 8						; size = 4
??0bad_alloc@std@@QAE@ABV01@@Z PROC			; std::bad_alloc::bad_alloc, COMDAT
; _this$ = ecx
  00000	55		 push	 ebp
  00001	8b ec		 mov	 ebp, esp

; 72   :     {

  00003	56		 push	 esi
  00004	8b f1		 mov	 esi, ecx
  00006	0f 57 c0	 xorps	 xmm0, xmm0

; 71   :         : _Data()

  00009	8d 46 04	 lea	 eax, DWORD PTR [esi+4]

; 73   :         __std_exception_copy(&_Other._Data, &_Data);

  0000c	50		 push	 eax
  0000d	c7 06 00 00 00
	00		 mov	 DWORD PTR [esi], OFFSET ??_7exception@std@@6B@
  00013	66 0f d6 00	 movq	 QWORD PTR [eax], xmm0
  00017	8b 45 08	 mov	 eax, DWORD PTR ___that$[ebp]
  0001a	83 c0 04	 add	 eax, 4
  0001d	50		 push	 eax
  0001e	e8 00 00 00 00	 call	 ___std_exception_copy
  00023	83 c4 08	 add	 esp, 8
  00026	c7 06 00 00 00
	00		 mov	 DWORD PTR [esi], OFFSET ??_7bad_alloc@std@@6B@
  0002c	8b c6		 mov	 eax, esi
  0002e	5e		 pop	 esi
  0002f	5d		 pop	 ebp
  00030	c2 04 00	 ret	 4
??0bad_alloc@std@@QAE@ABV01@@Z ENDP			; std::bad_alloc::bad_alloc
_TEXT	ENDS
; Function compile flags: /Ogtp
; File C:\Program Files (x86)\Microsoft Visual Studio\2019\Community\VC\Tools\MSVC\14.29.30133\include\vcruntime_exception.h
;	COMDAT ??_Gexception@std@@UAEPAXI@Z
_TEXT	SEGMENT
___flags$ = 8						; size = 4
??_Gexception@std@@UAEPAXI@Z PROC			; std::exception::`scalar deleting destructor', COMDAT
; _this$ = ecx
  00000	55		 push	 ebp
  00001	8b ec		 mov	 ebp, esp

; 89   :     {

  00003	56		 push	 esi
  00004	8b f1		 mov	 esi, ecx

; 90   :         __std_exception_destroy(&_Data);

  00006	8d 46 04	 lea	 eax, DWORD PTR [esi+4]
  00009	c7 06 00 00 00
	00		 mov	 DWORD PTR [esi], OFFSET ??_7exception@std@@6B@
  0000f	50		 push	 eax
  00010	e8 00 00 00 00	 call	 ___std_exception_destroy
  00015	83 c4 04	 add	 esp, 4
  00018	f6 45 08 01	 test	 BYTE PTR ___flags$[ebp], 1
  0001c	74 0b		 je	 SHORT $LN6@scalar
  0001e	6a 0c		 push	 12			; 0000000cH
  00020	56		 push	 esi
  00021	e8 00 00 00 00	 call	 ??3@YAXPAXI@Z		; operator delete
  00026	83 c4 08	 add	 esp, 8
$LN6@scalar:
  00029	8b c6		 mov	 eax, esi
  0002b	5e		 pop	 esi
  0002c	5d		 pop	 ebp
  0002d	c2 04 00	 ret	 4
??_Gexception@std@@UAEPAXI@Z ENDP			; std::exception::`scalar deleting destructor'
_TEXT	ENDS
; Function compile flags: /Ogtp
; File C:\Program Files (x86)\Microsoft Visual Studio\2019\Community\VC\Tools\MSVC\14.29.30133\include\vcruntime_exception.h
;	COMDAT ?what@exception@std@@UBEPBDXZ
_TEXT	SEGMENT
?what@exception@std@@UBEPBDXZ PROC			; std::exception::what, COMDAT
; _this$ = ecx

; 95   :         return _Data._What ? _Data._What : "Unknown exception";

  00000	8b 49 04	 mov	 ecx, DWORD PTR [ecx+4]
  00003	b8 00 00 00 00	 mov	 eax, OFFSET ??_C@_0BC@EOODALEL@Unknown?5exception@
  00008	85 c9		 test	 ecx, ecx
  0000a	0f 45 c1	 cmovne	 eax, ecx

; 96   :     }

  0000d	c3		 ret	 0
?what@exception@std@@UBEPBDXZ ENDP			; std::exception::what
_TEXT	ENDS
; Function compile flags: /Ogtp
; File C:\Program Files (x86)\Microsoft Visual Studio\2019\Community\VC\Tools\MSVC\14.29.30133\include\vcruntime_exception.h
;	COMDAT ??1exception@std@@UAE@XZ
_TEXT	SEGMENT
??1exception@std@@UAE@XZ PROC				; std::exception::~exception, COMDAT
; _this$ = ecx

; 90   :         __std_exception_destroy(&_Data);

  00000	8d 41 04	 lea	 eax, DWORD PTR [ecx+4]
  00003	c7 01 00 00 00
	00		 mov	 DWORD PTR [ecx], OFFSET ??_7exception@std@@6B@
  00009	50		 push	 eax
  0000a	e8 00 00 00 00	 call	 ___std_exception_destroy
  0000f	59		 pop	 ecx

; 91   :     }

  00010	c3		 ret	 0
??1exception@std@@UAE@XZ ENDP				; std::exception::~exception
_TEXT	ENDS
; Function compile flags: /Ogtp
; File C:\Program Files (x86)\Microsoft Visual Studio\2019\Community\VC\Tools\MSVC\14.29.30133\include\vcruntime_exception.h
;	COMDAT ??0exception@std@@QAE@ABV01@@Z
_TEXT	SEGMENT
__Other$ = 8						; size = 4
??0exception@std@@QAE@ABV01@@Z PROC			; std::exception::exception, COMDAT
; _this$ = ecx

; 72   :     {

  00000	55		 push	 ebp
  00001	8b ec		 mov	 ebp, esp
  00003	56		 push	 esi
  00004	8b f1		 mov	 esi, ecx
  00006	0f 57 c0	 xorps	 xmm0, xmm0
  00009	8d 46 04	 lea	 eax, DWORD PTR [esi+4]

; 73   :         __std_exception_copy(&_Other._Data, &_Data);

  0000c	50		 push	 eax
  0000d	c7 06 00 00 00
	00		 mov	 DWORD PTR [esi], OFFSET ??_7exception@std@@6B@
  00013	66 0f d6 00	 movq	 QWORD PTR [eax], xmm0
  00017	8b 45 08	 mov	 eax, DWORD PTR __Other$[ebp]
  0001a	83 c0 04	 add	 eax, 4
  0001d	50		 push	 eax
  0001e	e8 00 00 00 00	 call	 ___std_exception_copy
  00023	83 c4 08	 add	 esp, 8

; 74   :     }

  00026	8b c6		 mov	 eax, esi
  00028	5e		 pop	 esi
  00029	5d		 pop	 ebp
  0002a	c2 04 00	 ret	 4
??0exception@std@@QAE@ABV01@@Z ENDP			; std::exception::exception
_TEXT	ENDS
; Function compile flags: /Ogtp
; File D:\git\src\IBK\IBK_DRFN\ProjSrc\SrcChartEx\ChartOCX\ChartObject\GraphTool.cpp
;	COMDAT ?__empty_global_delete@@YAXPAXI@Z
_TEXT	SEGMENT
___formal$ = 8						; size = 4
___formal$ = 12						; size = 4
?__empty_global_delete@@YAXPAXI@Z PROC			; __empty_global_delete, COMDAT

  00000	c2 00 00	 ret	 0
?__empty_global_delete@@YAXPAXI@Z ENDP			; __empty_global_delete
_TEXT	ENDS
; Function compile flags: /Ogtp
; File D:\git\src\IBK\IBK_DRFN\ProjSrc\SrcChartEx\ChartOCX\ChartObject\GraphTool.cpp
;	COMDAT ?__empty_global_delete@@YAXPAX@Z
_TEXT	SEGMENT
___formal$ = 8						; size = 4
?__empty_global_delete@@YAXPAX@Z PROC			; __empty_global_delete, COMDAT

  00000	c2 00 00	 ret	 0
?__empty_global_delete@@YAXPAX@Z ENDP			; __empty_global_delete
_TEXT	ENDS
END
