; Listing generated by Microsoft (R) Optimizing Compiler Version 19.29.30145.0 

	TITLE	D:\git\src\IBK\IBK_DRFN\#DRfn-CS\_Obj\ChartObject\MainBlockToolImp.obj
	.686P
	.XMM
	include listing.inc
	.model	flat

INCLUDELIB MSVCRT
INCLUDELIB OLDNAMES

PUBLIC	?__empty_global_delete@@YAXPAX@Z		; __empty_global_delete
PUBLIC	?__empty_global_delete@@YAXPAXI@Z		; __empty_global_delete
PUBLIC	??1CMainBlockTool@@UAE@XZ			; CMainBlockTool::~CMainBlockTool
PUBLIC	??_GCMainBlockTool@@UAEPAXI@Z			; CMainBlockTool::`scalar deleting destructor'
PUBLIC	?_Tidy@?$deque@VCSelectedSubGraphData@@V?$allocator@VCSelectedSubGraphData@@@std@@@std@@AAEXXZ ; std::deque<CSelectedSubGraphData,std::allocator<CSelectedSubGraphData> >::_Tidy
PUBLIC	??0CMainBlockToolImp@@QAE@PAUIChartCtrl@@@Z	; CMainBlockToolImp::CMainBlockToolImp
PUBLIC	?SetIChartCtrl@CMainBlockToolImp@@UAEXPAUIChartCtrl@@@Z ; CMainBlockToolImp::SetIChartCtrl
PUBLIC	?SetUsingTool@CMainBlockToolImp@@UAEX_N000000000@Z ; CMainBlockToolImp::SetUsingTool
PUBLIC	?SetUsingTool@CMainBlockToolImp@@UAEXW4TOOLTYPE@CBlockBaseData@@_N@Z ; CMainBlockToolImp::SetUsingTool
PUBLIC	?ResetCurrentTool@CMainBlockToolImp@@UAEXXZ	; CMainBlockToolImp::ResetCurrentTool
PUBLIC	?GetCurrentToolType@CMainBlockToolImp@@UBE?AW4TOOLTYPE@CBlockBaseData@@XZ ; CMainBlockToolImp::GetCurrentToolType
PUBLIC	?OnLButtonDown@CMainBlockToolImp@@UAE_NPAVCDC@@PAVCMainBlock@@IABVCPoint@@@Z ; CMainBlockToolImp::OnLButtonDown
PUBLIC	?OnLButtonUp@CMainBlockToolImp@@UAE_NPAVCDC@@PAVCMainBlock@@IABVCPoint@@@Z ; CMainBlockToolImp::OnLButtonUp
PUBLIC	?OnLButtonDblClk@CMainBlockToolImp@@UAE_NPAVCDC@@PAVCMainBlock@@IABVCPoint@@@Z ; CMainBlockToolImp::OnLButtonDblClk
PUBLIC	?OnRButtonUp@CMainBlockToolImp@@UAE?AW4MENUTYPE@CMenuType@@PAVCDC@@PAVCMainBlock@@IABVCPoint@@@Z ; CMainBlockToolImp::OnRButtonUp
PUBLIC	?OnMouseMove@CMainBlockToolImp@@UAE_NPAVCDC@@PAVCMainBlock@@IABVCPoint@@@Z ; CMainBlockToolImp::OnMouseMove
PUBLIC	?OnMenu@CMainBlockToolImp@@UAE_NPAVCMainBlock@@W4ELEMENTMENU@CMenuType@@I@Z ; CMainBlockToolImp::OnMenu
PUBLIC	?GetMenuCheck@CMainBlockToolImp@@UAE_NPAVCMainBlock@@W4ELEMENTMENU@CMenuType@@I@Z ; CMainBlockToolImp::GetMenuCheck
PUBLIC	?OnDraw@CMainBlockToolImp@@UAEXPAVCDC@@PAVCMainBlock@@@Z ; CMainBlockToolImp::OnDraw
PUBLIC	?Invalidate@CMainBlockToolImp@@AAEXXZ		; CMainBlockToolImp::Invalidate
PUBLIC	?InitializeAllData@CMainBlockToolImp@@AAEX_N@Z	; CMainBlockToolImp::InitializeAllData
PUBLIC	?IsActionOfTool@CMainBlockToolImp@@ABE_NPAVCMainBlock@@@Z ; CMainBlockToolImp::IsActionOfTool
PUBLIC	?IsSelectingTool@CMainBlockToolImp@@ABE_NPAVCMainBlock@@@Z ; CMainBlockToolImp::IsSelectingTool
PUBLIC	?IsScaleTool@CMainBlockToolImp@@ABE_NPAVCBaseTool@@@Z ; CMainBlockToolImp::IsScaleTool
PUBLIC	?SetCurrentBaseTool@CMainBlockToolImp@@AAEXPAVCDC@@PAVCMainBlock@@ABVCPoint@@_N@Z ; CMainBlockToolImp::SetCurrentBaseTool
PUBLIC	?SetCurrentBaseTool_OnRButton@CMainBlockToolImp@@AAEXPAVCDC@@PAVCMainBlock@@ABVCPoint@@_N@Z ; CMainBlockToolImp::SetCurrentBaseTool_OnRButton
PUBLIC	?OnMouseMove_ProcessFind@CMainBlockToolImp@@AAE_NPAVCDC@@PAVCMainBlock@@IABVCPoint@@@Z ; CMainBlockToolImp::OnMouseMove_ProcessFind
PUBLIC	??_GCMainBlockToolImp@@UAEPAXI@Z		; CMainBlockToolImp::`scalar deleting destructor'
PUBLIC	??_7CMainBlockTool@@6B@				; CMainBlockTool::`vftable'
PUBLIC	??_7CMainBlockToolImp@@6B@			; CMainBlockToolImp::`vftable'
PUBLIC	??_R4CMainBlockTool@@6B@			; CMainBlockTool::`RTTI Complete Object Locator'
PUBLIC	??_R0?AVCMainBlockTool@@@8			; CMainBlockTool `RTTI Type Descriptor'
PUBLIC	??_R3CMainBlockTool@@8				; CMainBlockTool::`RTTI Class Hierarchy Descriptor'
PUBLIC	??_R2CMainBlockTool@@8				; CMainBlockTool::`RTTI Base Class Array'
PUBLIC	??_R1A@?0A@EA@CMainBlockTool@@8			; CMainBlockTool::`RTTI Base Class Descriptor at (0,-1,0,64)'
PUBLIC	??_R4CMainBlockToolImp@@6B@			; CMainBlockToolImp::`RTTI Complete Object Locator'
PUBLIC	??_R0?AVCMainBlockToolImp@@@8			; CMainBlockToolImp `RTTI Type Descriptor'
PUBLIC	??_R3CMainBlockToolImp@@8			; CMainBlockToolImp::`RTTI Class Hierarchy Descriptor'
PUBLIC	??_R2CMainBlockToolImp@@8			; CMainBlockToolImp::`RTTI Base Class Array'
PUBLIC	??_R1A@?0A@EA@CMainBlockToolImp@@8		; CMainBlockToolImp::`RTTI Base Class Descriptor at (0,-1,0,64)'
EXTRN	__purecall:PROC
EXTRN	??3@YAXPAXI@Z:PROC				; operator delete
EXTRN	__imp___invalid_parameter_noinfo_noreturn:PROC
EXTRN	??_ECMainBlockTool@@UAEPAXI@Z:PROC		; CMainBlockTool::`vector deleting destructor'
EXTRN	?GetIChartCtrl@CBaseTool@@QBEPAUIChartCtrl@@XZ:PROC ; CBaseTool::GetIChartCtrl
EXTRN	?DoesProcessEnded@CBaseTool@@QBE_NXZ:PROC	; CBaseTool::DoesProcessEnded
EXTRN	??0CBaseToolSingleton@@QAE@XZ:PROC		; CBaseToolSingleton::CBaseToolSingleton
EXTRN	?SetIChartCtrl@CBaseToolSingleton@@QAEXPAUIChartCtrl@@@Z:PROC ; CBaseToolSingleton::SetIChartCtrl
EXTRN	?SetUsingTool@CBaseToolSingleton@@QAEXW4TOOLTYPE@CBlockBaseData@@_N@Z:PROC ; CBaseToolSingleton::SetUsingTool
EXTRN	?GetTool@CBaseToolSingleton@@QAEPAVCBaseTool@@PAVCDC@@PAVCMainBlock@@ABVCPoint@@_N3@Z:PROC ; CBaseToolSingleton::GetTool
EXTRN	?OnDraw@CBaseToolSingleton@@QAEXPAVCDC@@PAVCMainBlock@@@Z:PROC ; CBaseToolSingleton::OnDraw
EXTRN	??_ECMainBlockToolImp@@UAEPAXI@Z:PROC		; CMainBlockToolImp::`vector deleting destructor'
EXTRN	@__security_check_cookie@4:PROC
EXTRN	___CxxFrameHandler3:PROC
EXTRN	??_7type_info@@6B@:QWORD			; type_info::`vftable'
EXTRN	___security_cookie:DWORD
;	COMDAT ??_R1A@?0A@EA@CMainBlockToolImp@@8
rdata$r	SEGMENT
??_R1A@?0A@EA@CMainBlockToolImp@@8 DD FLAT:??_R0?AVCMainBlockToolImp@@@8 ; CMainBlockToolImp::`RTTI Base Class Descriptor at (0,-1,0,64)'
	DD	01H
	DD	00H
	DD	0ffffffffH
	DD	00H
	DD	040H
	DD	FLAT:??_R3CMainBlockToolImp@@8
rdata$r	ENDS
;	COMDAT ??_R2CMainBlockToolImp@@8
rdata$r	SEGMENT
??_R2CMainBlockToolImp@@8 DD FLAT:??_R1A@?0A@EA@CMainBlockToolImp@@8 ; CMainBlockToolImp::`RTTI Base Class Array'
	DD	FLAT:??_R1A@?0A@EA@CMainBlockTool@@8
rdata$r	ENDS
;	COMDAT ??_R3CMainBlockToolImp@@8
rdata$r	SEGMENT
??_R3CMainBlockToolImp@@8 DD 00H			; CMainBlockToolImp::`RTTI Class Hierarchy Descriptor'
	DD	00H
	DD	02H
	DD	FLAT:??_R2CMainBlockToolImp@@8
rdata$r	ENDS
;	COMDAT ??_R0?AVCMainBlockToolImp@@@8
data$rs	SEGMENT
??_R0?AVCMainBlockToolImp@@@8 DD FLAT:??_7type_info@@6B@ ; CMainBlockToolImp `RTTI Type Descriptor'
	DD	00H
	DB	'.?AVCMainBlockToolImp@@', 00H
data$rs	ENDS
;	COMDAT ??_R4CMainBlockToolImp@@6B@
rdata$r	SEGMENT
??_R4CMainBlockToolImp@@6B@ DD 00H			; CMainBlockToolImp::`RTTI Complete Object Locator'
	DD	00H
	DD	00H
	DD	FLAT:??_R0?AVCMainBlockToolImp@@@8
	DD	FLAT:??_R3CMainBlockToolImp@@8
rdata$r	ENDS
;	COMDAT ??_R1A@?0A@EA@CMainBlockTool@@8
rdata$r	SEGMENT
??_R1A@?0A@EA@CMainBlockTool@@8 DD FLAT:??_R0?AVCMainBlockTool@@@8 ; CMainBlockTool::`RTTI Base Class Descriptor at (0,-1,0,64)'
	DD	00H
	DD	00H
	DD	0ffffffffH
	DD	00H
	DD	040H
	DD	FLAT:??_R3CMainBlockTool@@8
rdata$r	ENDS
;	COMDAT ??_R2CMainBlockTool@@8
rdata$r	SEGMENT
??_R2CMainBlockTool@@8 DD FLAT:??_R1A@?0A@EA@CMainBlockTool@@8 ; CMainBlockTool::`RTTI Base Class Array'
rdata$r	ENDS
;	COMDAT ??_R3CMainBlockTool@@8
rdata$r	SEGMENT
??_R3CMainBlockTool@@8 DD 00H				; CMainBlockTool::`RTTI Class Hierarchy Descriptor'
	DD	00H
	DD	01H
	DD	FLAT:??_R2CMainBlockTool@@8
rdata$r	ENDS
;	COMDAT ??_R0?AVCMainBlockTool@@@8
data$rs	SEGMENT
??_R0?AVCMainBlockTool@@@8 DD FLAT:??_7type_info@@6B@	; CMainBlockTool `RTTI Type Descriptor'
	DD	00H
	DB	'.?AVCMainBlockTool@@', 00H
data$rs	ENDS
;	COMDAT ??_R4CMainBlockTool@@6B@
rdata$r	SEGMENT
??_R4CMainBlockTool@@6B@ DD 00H				; CMainBlockTool::`RTTI Complete Object Locator'
	DD	00H
	DD	00H
	DD	FLAT:??_R0?AVCMainBlockTool@@@8
	DD	FLAT:??_R3CMainBlockTool@@8
rdata$r	ENDS
;	COMDAT ??_7CMainBlockToolImp@@6B@
CONST	SEGMENT
??_7CMainBlockToolImp@@6B@ DD FLAT:??_R4CMainBlockToolImp@@6B@ ; CMainBlockToolImp::`vftable'
	DD	FLAT:??_ECMainBlockToolImp@@UAEPAXI@Z
	DD	FLAT:?SetIChartCtrl@CMainBlockToolImp@@UAEXPAUIChartCtrl@@@Z
	DD	FLAT:?SetUsingTool@CMainBlockToolImp@@UAEXW4TOOLTYPE@CBlockBaseData@@_N@Z
	DD	FLAT:?SetUsingTool@CMainBlockToolImp@@UAEX_N000000000@Z
	DD	FLAT:?ResetCurrentTool@CMainBlockToolImp@@UAEXXZ
	DD	FLAT:?GetCurrentToolType@CMainBlockToolImp@@UBE?AW4TOOLTYPE@CBlockBaseData@@XZ
	DD	FLAT:?OnLButtonDown@CMainBlockToolImp@@UAE_NPAVCDC@@PAVCMainBlock@@IABVCPoint@@@Z
	DD	FLAT:?OnLButtonUp@CMainBlockToolImp@@UAE_NPAVCDC@@PAVCMainBlock@@IABVCPoint@@@Z
	DD	FLAT:?OnLButtonDblClk@CMainBlockToolImp@@UAE_NPAVCDC@@PAVCMainBlock@@IABVCPoint@@@Z
	DD	FLAT:?OnRButtonUp@CMainBlockToolImp@@UAE?AW4MENUTYPE@CMenuType@@PAVCDC@@PAVCMainBlock@@IABVCPoint@@@Z
	DD	FLAT:?OnMouseMove@CMainBlockToolImp@@UAE_NPAVCDC@@PAVCMainBlock@@IABVCPoint@@@Z
	DD	FLAT:?OnMenu@CMainBlockToolImp@@UAE_NPAVCMainBlock@@W4ELEMENTMENU@CMenuType@@I@Z
	DD	FLAT:?GetMenuCheck@CMainBlockToolImp@@UAE_NPAVCMainBlock@@W4ELEMENTMENU@CMenuType@@I@Z
	DD	FLAT:?OnDraw@CMainBlockToolImp@@UAEXPAVCDC@@PAVCMainBlock@@@Z
CONST	ENDS
;	COMDAT ??_7CMainBlockTool@@6B@
CONST	SEGMENT
??_7CMainBlockTool@@6B@ DD FLAT:??_R4CMainBlockTool@@6B@ ; CMainBlockTool::`vftable'
	DD	FLAT:??_ECMainBlockTool@@UAEPAXI@Z
	DD	FLAT:__purecall
	DD	FLAT:__purecall
	DD	FLAT:__purecall
	DD	FLAT:__purecall
	DD	FLAT:__purecall
	DD	FLAT:__purecall
	DD	FLAT:__purecall
	DD	FLAT:__purecall
	DD	FLAT:__purecall
	DD	FLAT:__purecall
	DD	FLAT:__purecall
	DD	FLAT:__purecall
	DD	FLAT:__purecall
CONST	ENDS
;	COMDAT xdata$x
xdata$x	SEGMENT
__unwindtable$??0CMainBlockToolImp@@QAE@PAUIChartCtrl@@@Z DD 0ffffffffH
	DD	FLAT:__unwindfunclet$??0CMainBlockToolImp@@QAE@PAUIChartCtrl@@@Z$0
__ehfuncinfo$??0CMainBlockToolImp@@QAE@PAUIChartCtrl@@@Z DD 019930522H
	DD	01H
	DD	FLAT:__unwindtable$??0CMainBlockToolImp@@QAE@PAUIChartCtrl@@@Z
	DD	2 DUP(00H)
	DD	2 DUP(00H)
	DD	00H
	DD	01H
xdata$x	ENDS
; Function compile flags: /Ogtp
; File C:\Program Files (x86)\Microsoft Visual Studio\2019\Community\VC\Tools\MSVC\14.29.30133\include\deque
; File C:\Program Files (x86)\Microsoft Visual Studio\2019\Community\VC\Tools\MSVC\14.29.30133\include\utility
; File C:\Program Files (x86)\Microsoft Visual Studio\2019\Community\VC\Tools\MSVC\14.29.30133\include\xmemory
; File C:\Program Files (x86)\Microsoft Visual Studio\2019\Community\VC\Tools\MSVC\14.29.30133\include\utility
; File C:\Program Files (x86)\Microsoft Visual Studio\2019\Community\VC\Tools\MSVC\14.29.30133\include\xmemory
;	COMDAT ??_GCMainBlockToolImp@@UAEPAXI@Z
_TEXT	SEGMENT
___flags$ = 8						; size = 4
??_GCMainBlockToolImp@@UAEPAXI@Z PROC			; CMainBlockToolImp::`scalar deleting destructor', COMDAT
; _this$ = ecx
  00000	55		 push	 ebp
  00001	8b ec		 mov	 ebp, esp
; File C:\Program Files (x86)\Microsoft Visual Studio\2019\Community\VC\Tools\MSVC\14.29.30133\include\deque

; 1332 :         _Tidy();

  00003	56		 push	 esi
  00004	57		 push	 edi
  00005	8b f9		 mov	 edi, ecx
  00007	8d 8f 14 01 00
	00		 lea	 ecx, DWORD PTR [edi+276]
  0000d	e8 00 00 00 00	 call	 ?_Tidy@?$deque@VCSelectedSubGraphData@@V?$allocator@VCSelectedSubGraphData@@@std@@@std@@AAEXXZ ; std::deque<CSelectedSubGraphData,std::allocator<CSelectedSubGraphData> >::_Tidy

; 861  :         _Tidy();

  00012	8d 8f 14 01 00
	00		 lea	 ecx, DWORD PTR [edi+276]
  00018	e8 00 00 00 00	 call	 ?_Tidy@?$deque@VCSelectedSubGraphData@@V?$allocator@VCSelectedSubGraphData@@@std@@@std@@AAEXXZ ; std::deque<CSelectedSubGraphData,std::allocator<CSelectedSubGraphData> >::_Tidy
; File C:\Program Files (x86)\Microsoft Visual Studio\2019\Community\VC\Tools\MSVC\14.29.30133\include\utility

; 602  :     _Ty _Old_val = static_cast<_Ty&&>(_Val);

  0001d	8b 87 14 01 00
	00		 mov	 eax, DWORD PTR [edi+276]
; File C:\Program Files (x86)\Microsoft Visual Studio\2019\Community\VC\Tools\MSVC\14.29.30133\include\xmemory

; 255  :         ::operator delete(_Ptr, _Bytes);

  00023	6a 08		 push	 8
  00025	50		 push	 eax
; File C:\Program Files (x86)\Microsoft Visual Studio\2019\Community\VC\Tools\MSVC\14.29.30133\include\utility

; 603  :     _Val         = static_cast<_Other&&>(_New_val);

  00026	c7 87 14 01 00
	00 00 00 00 00	 mov	 DWORD PTR [edi+276], 0
; File C:\Program Files (x86)\Microsoft Visual Studio\2019\Community\VC\Tools\MSVC\14.29.30133\include\xmemory

; 255  :         ::operator delete(_Ptr, _Bytes);

  00030	e8 00 00 00 00	 call	 ??3@YAXPAXI@Z		; operator delete
  00035	83 c4 08	 add	 esp, 8
  00038	c7 07 00 00 00
	00		 mov	 DWORD PTR [edi], OFFSET ??_7CMainBlockTool@@6B@
  0003e	f6 45 08 01	 test	 BYTE PTR ___flags$[ebp], 1
  00042	74 0e		 je	 SHORT $LN59@scalar
  00044	68 30 01 00 00	 push	 304			; 00000130H
  00049	57		 push	 edi
  0004a	e8 00 00 00 00	 call	 ??3@YAXPAXI@Z		; operator delete
  0004f	83 c4 08	 add	 esp, 8
$LN59@scalar:
  00052	8b c7		 mov	 eax, edi
  00054	5f		 pop	 edi
  00055	5e		 pop	 esi
  00056	5d		 pop	 ebp
  00057	c2 04 00	 ret	 4
??_GCMainBlockToolImp@@UAEPAXI@Z ENDP			; CMainBlockToolImp::`scalar deleting destructor'
_TEXT	ENDS
; Function compile flags: /Ogtp
; File D:\git\src\IBK\IBK_DRFN\ProjSrc\SrcChartEx\ChartOCX\ChartObject\MainBlockToolImp.cpp
;	COMDAT ?OnMouseMove_ProcessFind@CMainBlockToolImp@@AAE_NPAVCDC@@PAVCMainBlock@@IABVCPoint@@@Z
_TEXT	SEGMENT
_pDC$ = 8						; size = 4
_pMainBlock$ = 12					; size = 4
_nFlags$ = 16						; size = 4
_point$ = 20						; size = 4
?OnMouseMove_ProcessFind@CMainBlockToolImp@@AAE_NPAVCDC@@PAVCMainBlock@@IABVCPoint@@@Z PROC ; CMainBlockToolImp::OnMouseMove_ProcessFind, COMDAT
; _this$ = ecx

; 281  : {

  00000	55		 push	 ebp
  00001	8b ec		 mov	 ebp, esp
  00003	56		 push	 esi
  00004	57		 push	 edi

; 282  : 	CBaseTool* pBaseTool = m_toolSingleton.GetTool(pDC, pMainBlock, point, false, false);

  00005	6a 00		 push	 0
  00007	6a 00		 push	 0
  00009	ff 75 14	 push	 DWORD PTR _point$[ebp]
  0000c	8b f9		 mov	 edi, ecx
  0000e	ff 75 0c	 push	 DWORD PTR _pMainBlock$[ebp]
  00011	ff 75 08	 push	 DWORD PTR _pDC$[ebp]
  00014	8d 4f 08	 lea	 ecx, DWORD PTR [edi+8]
  00017	e8 00 00 00 00	 call	 ?GetTool@CBaseToolSingleton@@QAEPAVCBaseTool@@PAVCDC@@PAVCMainBlock@@ABVCPoint@@_N3@Z ; CBaseToolSingleton::GetTool
  0001c	8b f0		 mov	 esi, eax

; 283  : 
; 284  : 	if(m_pOldBaseTool != pBaseTool)

  0001e	39 b7 2c 01 00
	00		 cmp	 DWORD PTR [edi+300], esi
  00024	74 11		 je	 SHORT $LN6@OnMouseMov

; 215  : 	if(m_pIChartCtrl != NULL)

  00026	8b 4f 04	 mov	 ecx, DWORD PTR [edi+4]
  00029	85 c9		 test	 ecx, ecx
  0002b	74 0a		 je	 SHORT $LN6@OnMouseMov

; 216  : 		m_pIChartCtrl->InvalidateOCX();

  0002d	8b 11		 mov	 edx, DWORD PTR [ecx]
  0002f	6a 01		 push	 1
  00031	ff 92 20 05 00
	00		 call	 DWORD PTR [edx+1312]
$LN6@OnMouseMov:

; 285  : 		Invalidate();
; 286  : 
; 287  : 	m_pOldBaseTool = pBaseTool;

  00037	89 b7 2c 01 00
	00		 mov	 DWORD PTR [edi+300], esi

; 288  : 	if(pBaseTool == NULL)

  0003d	85 f6		 test	 esi, esi
  0003f	75 08		 jne	 SHORT $LN3@OnMouseMov

; 289  : 		return false;

  00041	5f		 pop	 edi
  00042	32 c0		 xor	 al, al

; 293  : }

  00044	5e		 pop	 esi
  00045	5d		 pop	 ebp
  00046	c2 10 00	 ret	 16			; 00000010H
$LN3@OnMouseMov:

; 290  : 
; 291  : 	pBaseTool->OnMouseMove(pDC, pMainBlock, nFlags, point);

  00049	ff 75 14	 push	 DWORD PTR _point$[ebp]
  0004c	8b 06		 mov	 eax, DWORD PTR [esi]
  0004e	8b ce		 mov	 ecx, esi
  00050	ff 75 10	 push	 DWORD PTR _nFlags$[ebp]
  00053	ff 75 0c	 push	 DWORD PTR _pMainBlock$[ebp]
  00056	ff 75 08	 push	 DWORD PTR _pDC$[ebp]
  00059	ff 50 18	 call	 DWORD PTR [eax+24]
  0005c	5f		 pop	 edi

; 292  : 	return true;

  0005d	b0 01		 mov	 al, 1

; 293  : }

  0005f	5e		 pop	 esi
  00060	5d		 pop	 ebp
  00061	c2 10 00	 ret	 16			; 00000010H
?OnMouseMove_ProcessFind@CMainBlockToolImp@@AAE_NPAVCDC@@PAVCMainBlock@@IABVCPoint@@@Z ENDP ; CMainBlockToolImp::OnMouseMove_ProcessFind
_TEXT	ENDS
; Function compile flags: /Ogtp
; File D:\git\src\IBK\IBK_DRFN\ProjSrc\SrcChartEx\ChartOCX\ChartObject\MainBlockToolImp.cpp
;	COMDAT ?SetCurrentBaseTool_OnRButton@CMainBlockToolImp@@AAEXPAVCDC@@PAVCMainBlock@@ABVCPoint@@_N@Z
_TEXT	SEGMENT
_pDC$ = 8						; size = 4
_pMainBlock$ = 12					; size = 4
_point$ = 16						; size = 4
_useScaleTool$ = 20					; size = 1
?SetCurrentBaseTool_OnRButton@CMainBlockToolImp@@AAEXPAVCDC@@PAVCMainBlock@@ABVCPoint@@_N@Z PROC ; CMainBlockToolImp::SetCurrentBaseTool_OnRButton, COMDAT
; _this$ = ecx

; 272  : {

  00000	55		 push	 ebp
  00001	8b ec		 mov	 ebp, esp
  00003	56		 push	 esi
  00004	57		 push	 edi
  00005	8b f9		 mov	 edi, ecx

; 273  : 	if(m_pBaseTool != NULL && !IsScaleTool(m_pBaseTool))

  00007	8b b7 28 01 00
	00		 mov	 esi, DWORD PTR [edi+296]
  0000d	85 f6		 test	 esi, esi
  0000f	74 18		 je	 SHORT $LN7@SetCurrent

; 256  : 	return (pBaseTool->GetToolType() == CBlockBaseData::TOOL_HORZSCALE || pBaseTool->GetToolType() == CBlockBaseData::TOOL_VERTSCALE);

  00011	8b 06		 mov	 eax, DWORD PTR [esi]
  00013	8b ce		 mov	 ecx, esi
  00015	ff 50 04	 call	 DWORD PTR [eax+4]
  00018	83 f8 03	 cmp	 eax, 3
  0001b	74 0c		 je	 SHORT $LN7@SetCurrent
  0001d	8b 06		 mov	 eax, DWORD PTR [esi]
  0001f	8b ce		 mov	 ecx, esi
  00021	ff 50 04	 call	 DWORD PTR [eax+4]
  00024	83 f8 04	 cmp	 eax, 4
  00027	75 61		 jne	 SHORT $LN9@SetCurrent
$LN7@SetCurrent:

; 241  : 	if(pMainBlock == NULL)

  00029	8b 75 0c	 mov	 esi, DWORD PTR _pMainBlock$[ebp]
  0002c	85 f6		 test	 esi, esi
  0002e	74 5a		 je	 SHORT $LN9@SetCurrent

; 242  : 		return false;
; 243  : 
; 244  : 	if(!pMainBlock->GetDesignMode())

  00030	8b 06		 mov	 eax, DWORD PTR [esi]
  00032	8b ce		 mov	 ecx, esi
  00034	8b 80 7c 01 00
	00		 mov	 eax, DWORD PTR [eax+380]
  0003a	ff d0		 call	 eax
  0003c	84 c0		 test	 al, al
  0003e	74 0e		 je	 SHORT $LN20@SetCurrent

; 245  : 		return true;
; 246  : 
; 247  : 	return (pMainBlock->GetBlockCompartType() == CBlockBaseData::COMPARTLINE);

  00040	8b 06		 mov	 eax, DWORD PTR [esi]
  00042	8b ce		 mov	 ecx, esi
  00044	ff 90 a0 01 00
	00		 call	 DWORD PTR [eax+416]

; 263  : 	if(!IsSelectingTool(pMainBlock))

  0004a	85 c0		 test	 eax, eax
  0004c	75 3c		 jne	 SHORT $LN9@SetCurrent
$LN20@SetCurrent:

; 222  : 	if(m_pBaseTool != NULL){

  0004e	8b 8f 28 01 00
	00		 mov	 ecx, DWORD PTR [edi+296]
  00054	85 c9		 test	 ecx, ecx
  00056	74 04		 je	 SHORT $LN17@SetCurrent

; 223  : 		if(!bInProcessEnded && !m_pBaseTool->DoesProcessEnded())
; 224  : 			return;
; 225  : 		m_pBaseTool->InitializeAllData();

  00058	8b 01		 mov	 eax, DWORD PTR [ecx]
  0005a	ff 10		 call	 DWORD PTR [eax]
$LN17@SetCurrent:

; 268  : 	m_pBaseTool = m_toolSingleton.GetTool(pDC, pMainBlock, point, useScaleTool);

  0005c	6a 01		 push	 1
  0005e	ff 75 14	 push	 DWORD PTR _useScaleTool$[ebp]
  00061	8d 4f 08	 lea	 ecx, DWORD PTR [edi+8]

; 228  : 	m_pBaseTool = NULL;

  00064	c7 87 28 01 00
	00 00 00 00 00	 mov	 DWORD PTR [edi+296], 0

; 268  : 	m_pBaseTool = m_toolSingleton.GetTool(pDC, pMainBlock, point, useScaleTool);

  0006e	ff 75 10	 push	 DWORD PTR _point$[ebp]

; 229  : 	m_pOldBaseTool = NULL;

  00071	c7 87 2c 01 00
	00 00 00 00 00	 mov	 DWORD PTR [edi+300], 0

; 268  : 	m_pBaseTool = m_toolSingleton.GetTool(pDC, pMainBlock, point, useScaleTool);

  0007b	56		 push	 esi
  0007c	ff 75 08	 push	 DWORD PTR _pDC$[ebp]
  0007f	e8 00 00 00 00	 call	 ?GetTool@CBaseToolSingleton@@QAEPAVCBaseTool@@PAVCDC@@PAVCMainBlock@@ABVCPoint@@_N3@Z ; CBaseToolSingleton::GetTool
  00084	89 87 28 01 00
	00		 mov	 DWORD PTR [edi+296], eax
$LN9@SetCurrent:
  0008a	5f		 pop	 edi

; 274  : 		return;
; 275  : 
; 276  : 	SetCurrentBaseTool(pDC, pMainBlock, point, useScaleTool);
; 277  : }

  0008b	5e		 pop	 esi
  0008c	5d		 pop	 ebp
  0008d	c2 10 00	 ret	 16			; 00000010H
?SetCurrentBaseTool_OnRButton@CMainBlockToolImp@@AAEXPAVCDC@@PAVCMainBlock@@ABVCPoint@@_N@Z ENDP ; CMainBlockToolImp::SetCurrentBaseTool_OnRButton
_TEXT	ENDS
; Function compile flags: /Ogtp
; File D:\git\src\IBK\IBK_DRFN\ProjSrc\SrcChartEx\ChartOCX\ChartObject\MainBlockToolImp.cpp
;	COMDAT ?SetCurrentBaseTool@CMainBlockToolImp@@AAEXPAVCDC@@PAVCMainBlock@@ABVCPoint@@_N@Z
_TEXT	SEGMENT
_pDC$ = 8						; size = 4
_pMainBlock$ = 12					; size = 4
_point$ = 16						; size = 4
_useScaleTool$ = 20					; size = 1
?SetCurrentBaseTool@CMainBlockToolImp@@AAEXPAVCDC@@PAVCMainBlock@@ABVCPoint@@_N@Z PROC ; CMainBlockToolImp::SetCurrentBaseTool, COMDAT
; _this$ = ecx

; 262  : {

  00000	55		 push	 ebp
  00001	8b ec		 mov	 ebp, esp
  00003	56		 push	 esi

; 241  : 	if(pMainBlock == NULL)

  00004	8b 75 0c	 mov	 esi, DWORD PTR _pMainBlock$[ebp]

; 262  : {

  00007	57		 push	 edi
  00008	8b f9		 mov	 edi, ecx

; 241  : 	if(pMainBlock == NULL)

  0000a	85 f6		 test	 esi, esi
  0000c	74 5a		 je	 SHORT $LN1@SetCurrent

; 242  : 		return false;
; 243  : 
; 244  : 	if(!pMainBlock->GetDesignMode())

  0000e	8b 06		 mov	 eax, DWORD PTR [esi]
  00010	8b ce		 mov	 ecx, esi
  00012	8b 80 7c 01 00
	00		 mov	 eax, DWORD PTR [eax+380]
  00018	ff d0		 call	 eax
  0001a	84 c0		 test	 al, al
  0001c	74 0e		 je	 SHORT $LN12@SetCurrent

; 245  : 		return true;
; 246  : 
; 247  : 	return (pMainBlock->GetBlockCompartType() == CBlockBaseData::COMPARTLINE);

  0001e	8b 06		 mov	 eax, DWORD PTR [esi]
  00020	8b ce		 mov	 ecx, esi
  00022	ff 90 a0 01 00
	00		 call	 DWORD PTR [eax+416]

; 263  : 	if(!IsSelectingTool(pMainBlock))

  00028	85 c0		 test	 eax, eax
  0002a	75 3c		 jne	 SHORT $LN1@SetCurrent
$LN12@SetCurrent:

; 222  : 	if(m_pBaseTool != NULL){

  0002c	8b 8f 28 01 00
	00		 mov	 ecx, DWORD PTR [edi+296]
  00032	85 c9		 test	 ecx, ecx
  00034	74 04		 je	 SHORT $LN9@SetCurrent

; 223  : 		if(!bInProcessEnded && !m_pBaseTool->DoesProcessEnded())
; 224  : 			return;
; 225  : 		m_pBaseTool->InitializeAllData();

  00036	8b 01		 mov	 eax, DWORD PTR [ecx]
  00038	ff 10		 call	 DWORD PTR [eax]
$LN9@SetCurrent:

; 264  : 		return;
; 265  : 
; 266  : 	InitializeAllData(true);
; 267  : 
; 268  : 	m_pBaseTool = m_toolSingleton.GetTool(pDC, pMainBlock, point, useScaleTool);

  0003a	6a 01		 push	 1
  0003c	ff 75 14	 push	 DWORD PTR _useScaleTool$[ebp]
  0003f	8d 4f 08	 lea	 ecx, DWORD PTR [edi+8]

; 228  : 	m_pBaseTool = NULL;

  00042	c7 87 28 01 00
	00 00 00 00 00	 mov	 DWORD PTR [edi+296], 0

; 264  : 		return;
; 265  : 
; 266  : 	InitializeAllData(true);
; 267  : 
; 268  : 	m_pBaseTool = m_toolSingleton.GetTool(pDC, pMainBlock, point, useScaleTool);

  0004c	ff 75 10	 push	 DWORD PTR _point$[ebp]

; 229  : 	m_pOldBaseTool = NULL;

  0004f	c7 87 2c 01 00
	00 00 00 00 00	 mov	 DWORD PTR [edi+300], 0

; 264  : 		return;
; 265  : 
; 266  : 	InitializeAllData(true);
; 267  : 
; 268  : 	m_pBaseTool = m_toolSingleton.GetTool(pDC, pMainBlock, point, useScaleTool);

  00059	56		 push	 esi
  0005a	ff 75 08	 push	 DWORD PTR _pDC$[ebp]
  0005d	e8 00 00 00 00	 call	 ?GetTool@CBaseToolSingleton@@QAEPAVCBaseTool@@PAVCDC@@PAVCMainBlock@@ABVCPoint@@_N3@Z ; CBaseToolSingleton::GetTool
  00062	89 87 28 01 00
	00		 mov	 DWORD PTR [edi+296], eax
$LN1@SetCurrent:

; 269  : }

  00068	5f		 pop	 edi
  00069	5e		 pop	 esi
  0006a	5d		 pop	 ebp
  0006b	c2 10 00	 ret	 16			; 00000010H
?SetCurrentBaseTool@CMainBlockToolImp@@AAEXPAVCDC@@PAVCMainBlock@@ABVCPoint@@_N@Z ENDP ; CMainBlockToolImp::SetCurrentBaseTool
_TEXT	ENDS
; Function compile flags: /Ogtp
; File D:\git\src\IBK\IBK_DRFN\ProjSrc\SrcChartEx\ChartOCX\ChartObject\MainBlockToolImp.cpp
;	COMDAT ?IsScaleTool@CMainBlockToolImp@@ABE_NPAVCBaseTool@@@Z
_TEXT	SEGMENT
_pBaseTool$ = 8						; size = 4
?IsScaleTool@CMainBlockToolImp@@ABE_NPAVCBaseTool@@@Z PROC ; CMainBlockToolImp::IsScaleTool, COMDAT
; _this$ = ecx

; 252  : {

  00000	55		 push	 ebp
  00001	8b ec		 mov	 ebp, esp
  00003	56		 push	 esi

; 253  : 	if(pBaseTool == NULL)

  00004	8b 75 08	 mov	 esi, DWORD PTR _pBaseTool$[ebp]
  00007	85 f6		 test	 esi, esi
  00009	75 07		 jne	 SHORT $LN2@IsScaleToo
$LN6@IsScaleToo:

; 257  : }

  0000b	32 c0		 xor	 al, al
  0000d	5e		 pop	 esi
  0000e	5d		 pop	 ebp
  0000f	c2 04 00	 ret	 4
$LN2@IsScaleToo:

; 254  : 		return false;
; 255  : 	
; 256  : 	return (pBaseTool->GetToolType() == CBlockBaseData::TOOL_HORZSCALE || pBaseTool->GetToolType() == CBlockBaseData::TOOL_VERTSCALE);

  00012	8b 06		 mov	 eax, DWORD PTR [esi]
  00014	8b ce		 mov	 ecx, esi
  00016	ff 50 04	 call	 DWORD PTR [eax+4]
  00019	83 f8 03	 cmp	 eax, 3
  0001c	74 0c		 je	 SHORT $LN4@IsScaleToo
  0001e	8b 06		 mov	 eax, DWORD PTR [esi]
  00020	8b ce		 mov	 ecx, esi
  00022	ff 50 04	 call	 DWORD PTR [eax+4]
  00025	83 f8 04	 cmp	 eax, 4
  00028	75 e1		 jne	 SHORT $LN6@IsScaleToo
$LN4@IsScaleToo:
  0002a	b0 01		 mov	 al, 1
  0002c	5e		 pop	 esi

; 257  : }

  0002d	5d		 pop	 ebp
  0002e	c2 04 00	 ret	 4
?IsScaleTool@CMainBlockToolImp@@ABE_NPAVCBaseTool@@@Z ENDP ; CMainBlockToolImp::IsScaleTool
_TEXT	ENDS
; Function compile flags: /Ogtp
; File D:\git\src\IBK\IBK_DRFN\ProjSrc\SrcChartEx\ChartOCX\ChartObject\MainBlockToolImp.cpp
;	COMDAT ?IsSelectingTool@CMainBlockToolImp@@ABE_NPAVCMainBlock@@@Z
_TEXT	SEGMENT
_pMainBlock$ = 8					; size = 4
?IsSelectingTool@CMainBlockToolImp@@ABE_NPAVCMainBlock@@@Z PROC ; CMainBlockToolImp::IsSelectingTool, COMDAT
; _this$ = ecx

; 240  : {

  00000	55		 push	 ebp
  00001	8b ec		 mov	 ebp, esp
  00003	56		 push	 esi

; 241  : 	if(pMainBlock == NULL)

  00004	8b 75 08	 mov	 esi, DWORD PTR _pMainBlock$[ebp]
  00007	85 f6		 test	 esi, esi
  00009	75 07		 jne	 SHORT $LN2@IsSelectin

; 242  : 		return false;

  0000b	32 c0		 xor	 al, al
  0000d	5e		 pop	 esi

; 248  : }

  0000e	5d		 pop	 ebp
  0000f	c2 04 00	 ret	 4
$LN2@IsSelectin:

; 243  : 
; 244  : 	if(!pMainBlock->GetDesignMode())

  00012	8b 06		 mov	 eax, DWORD PTR [esi]
  00014	8b ce		 mov	 ecx, esi
  00016	8b 80 7c 01 00
	00		 mov	 eax, DWORD PTR [eax+380]
  0001c	ff d0		 call	 eax
  0001e	84 c0		 test	 al, al
  00020	75 07		 jne	 SHORT $LN3@IsSelectin

; 245  : 		return true;

  00022	b0 01		 mov	 al, 1
  00024	5e		 pop	 esi

; 248  : }

  00025	5d		 pop	 ebp
  00026	c2 04 00	 ret	 4
$LN3@IsSelectin:

; 246  : 
; 247  : 	return (pMainBlock->GetBlockCompartType() == CBlockBaseData::COMPARTLINE);

  00029	8b 06		 mov	 eax, DWORD PTR [esi]
  0002b	8b ce		 mov	 ecx, esi
  0002d	ff 90 a0 01 00
	00		 call	 DWORD PTR [eax+416]
  00033	85 c0		 test	 eax, eax
  00035	5e		 pop	 esi
  00036	0f 94 c0	 sete	 al

; 248  : }

  00039	5d		 pop	 ebp
  0003a	c2 04 00	 ret	 4
?IsSelectingTool@CMainBlockToolImp@@ABE_NPAVCMainBlock@@@Z ENDP ; CMainBlockToolImp::IsSelectingTool
_TEXT	ENDS
; Function compile flags: /Ogtp
; File D:\git\src\IBK\IBK_DRFN\ProjSrc\SrcChartEx\ChartOCX\ChartObject\MainBlockToolImp.cpp
;	COMDAT ?IsActionOfTool@CMainBlockToolImp@@ABE_NPAVCMainBlock@@@Z
_TEXT	SEGMENT
_pMainBlock$ = 8					; size = 4
?IsActionOfTool@CMainBlockToolImp@@ABE_NPAVCMainBlock@@@Z PROC ; CMainBlockToolImp::IsActionOfTool, COMDAT
; _this$ = ecx

; 234  : {

  00000	55		 push	 ebp
  00001	8b ec		 mov	 ebp, esp

; 235  : 	return (pMainBlock != NULL && m_pBaseTool != NULL && m_pBaseTool->GetIChartCtrl() != NULL);

  00003	83 7d 08 00	 cmp	 DWORD PTR _pMainBlock$[ebp], 0
  00007	74 19		 je	 SHORT $LN3@IsActionOf
  00009	8b 89 28 01 00
	00		 mov	 ecx, DWORD PTR [ecx+296]
  0000f	85 c9		 test	 ecx, ecx
  00011	74 0f		 je	 SHORT $LN3@IsActionOf
  00013	e8 00 00 00 00	 call	 ?GetIChartCtrl@CBaseTool@@QBEPAUIChartCtrl@@XZ ; CBaseTool::GetIChartCtrl
  00018	85 c0		 test	 eax, eax
  0001a	74 06		 je	 SHORT $LN3@IsActionOf
  0001c	b0 01		 mov	 al, 1

; 236  : }

  0001e	5d		 pop	 ebp
  0001f	c2 04 00	 ret	 4
$LN3@IsActionOf:

; 235  : 	return (pMainBlock != NULL && m_pBaseTool != NULL && m_pBaseTool->GetIChartCtrl() != NULL);

  00022	32 c0		 xor	 al, al

; 236  : }

  00024	5d		 pop	 ebp
  00025	c2 04 00	 ret	 4
?IsActionOfTool@CMainBlockToolImp@@ABE_NPAVCMainBlock@@@Z ENDP ; CMainBlockToolImp::IsActionOfTool
_TEXT	ENDS
; Function compile flags: /Ogtp
; File D:\git\src\IBK\IBK_DRFN\ProjSrc\SrcChartEx\ChartOCX\ChartObject\MainBlockToolImp.cpp
;	COMDAT ?InitializeAllData@CMainBlockToolImp@@AAEX_N@Z
_TEXT	SEGMENT
_bInProcessEnded$ = 8					; size = 1
?InitializeAllData@CMainBlockToolImp@@AAEX_N@Z PROC	; CMainBlockToolImp::InitializeAllData, COMDAT
; _this$ = ecx

; 221  : {

  00000	55		 push	 ebp
  00001	8b ec		 mov	 ebp, esp
  00003	56		 push	 esi
  00004	8b f1		 mov	 esi, ecx

; 222  : 	if(m_pBaseTool != NULL){

  00006	8b 8e 28 01 00
	00		 mov	 ecx, DWORD PTR [esi+296]
  0000c	85 c9		 test	 ecx, ecx
  0000e	74 19		 je	 SHORT $LN2@Initialize

; 223  : 		if(!bInProcessEnded && !m_pBaseTool->DoesProcessEnded())

  00010	80 7d 08 00	 cmp	 BYTE PTR _bInProcessEnded$[ebp], 0
  00014	75 09		 jne	 SHORT $LN3@Initialize
  00016	e8 00 00 00 00	 call	 ?DoesProcessEnded@CBaseTool@@QBE_NXZ ; CBaseTool::DoesProcessEnded
  0001b	84 c0		 test	 al, al
  0001d	74 1e		 je	 SHORT $LN1@Initialize
$LN3@Initialize:

; 224  : 			return;
; 225  : 		m_pBaseTool->InitializeAllData();

  0001f	8b 8e 28 01 00
	00		 mov	 ecx, DWORD PTR [esi+296]
  00025	8b 01		 mov	 eax, DWORD PTR [ecx]
  00027	ff 10		 call	 DWORD PTR [eax]
$LN2@Initialize:

; 226  : 	}
; 227  : 		
; 228  : 	m_pBaseTool = NULL;

  00029	c7 86 28 01 00
	00 00 00 00 00	 mov	 DWORD PTR [esi+296], 0

; 229  : 	m_pOldBaseTool = NULL;

  00033	c7 86 2c 01 00
	00 00 00 00 00	 mov	 DWORD PTR [esi+300], 0
$LN1@Initialize:
  0003d	5e		 pop	 esi

; 230  : }

  0003e	5d		 pop	 ebp
  0003f	c2 04 00	 ret	 4
?InitializeAllData@CMainBlockToolImp@@AAEX_N@Z ENDP	; CMainBlockToolImp::InitializeAllData
_TEXT	ENDS
; Function compile flags: /Ogtp
; File D:\git\src\IBK\IBK_DRFN\ProjSrc\SrcChartEx\ChartOCX\ChartObject\MainBlockToolImp.cpp
;	COMDAT ?Invalidate@CMainBlockToolImp@@AAEXXZ
_TEXT	SEGMENT
?Invalidate@CMainBlockToolImp@@AAEXXZ PROC		; CMainBlockToolImp::Invalidate, COMDAT
; _this$ = ecx

; 215  : 	if(m_pIChartCtrl != NULL)

  00000	8b 49 04	 mov	 ecx, DWORD PTR [ecx+4]
  00003	85 c9		 test	 ecx, ecx
  00005	74 0a		 je	 SHORT $LN2@Invalidate

; 216  : 		m_pIChartCtrl->InvalidateOCX();

  00007	8b 01		 mov	 eax, DWORD PTR [ecx]
  00009	6a 01		 push	 1
  0000b	ff 90 20 05 00
	00		 call	 DWORD PTR [eax+1312]
$LN2@Invalidate:

; 217  : }

  00011	c3		 ret	 0
?Invalidate@CMainBlockToolImp@@AAEXXZ ENDP		; CMainBlockToolImp::Invalidate
_TEXT	ENDS
; Function compile flags: /Ogtp
; File D:\git\src\IBK\IBK_DRFN\ProjSrc\SrcChartEx\ChartOCX\ChartObject\MainBlockToolImp.cpp
;	COMDAT ?OnDraw@CMainBlockToolImp@@UAEXPAVCDC@@PAVCMainBlock@@@Z
_TEXT	SEGMENT
_pDC$ = 8						; size = 4
_pMainBlock$ = 12					; size = 4
?OnDraw@CMainBlockToolImp@@UAEXPAVCDC@@PAVCMainBlock@@@Z PROC ; CMainBlockToolImp::OnDraw, COMDAT
; _this$ = ecx

; 199  : {

  00000	55		 push	 ebp
  00001	8b ec		 mov	 ebp, esp
  00003	53		 push	 ebx

; 200  : 	// tool과 관련된 기본 그림 그리기
; 201  : 	m_toolSingleton.OnDraw(pDC, pMainBlock);

  00004	8b 5d 08	 mov	 ebx, DWORD PTR _pDC$[ebp]
  00007	56		 push	 esi
  00008	57		 push	 edi
  00009	8b 7d 0c	 mov	 edi, DWORD PTR _pMainBlock$[ebp]
  0000c	8b f1		 mov	 esi, ecx
  0000e	57		 push	 edi
  0000f	53		 push	 ebx
  00010	8d 4e 08	 lea	 ecx, DWORD PTR [esi+8]
  00013	e8 00 00 00 00	 call	 ?OnDraw@CBaseToolSingleton@@QAEXPAVCDC@@PAVCMainBlock@@@Z ; CBaseToolSingleton::OnDraw

; 235  : 	return (pMainBlock != NULL && m_pBaseTool != NULL && m_pBaseTool->GetIChartCtrl() != NULL);

  00018	85 ff		 test	 edi, edi
  0001a	74 20		 je	 SHORT $LN2@OnDraw
  0001c	8b 8e 28 01 00
	00		 mov	 ecx, DWORD PTR [esi+296]
  00022	85 c9		 test	 ecx, ecx
  00024	74 16		 je	 SHORT $LN2@OnDraw
  00026	e8 00 00 00 00	 call	 ?GetIChartCtrl@CBaseTool@@QBEPAUIChartCtrl@@XZ ; CBaseTool::GetIChartCtrl
  0002b	85 c0		 test	 eax, eax
  0002d	74 0d		 je	 SHORT $LN2@OnDraw

; 202  : 
; 203  : 	// 현재 실행되고 있는 Tool 이 있을 경우.
; 204  : 	if(IsActionOfTool(pMainBlock))
; 205  : 		m_pBaseTool->OnDraw(pDC, pMainBlock);

  0002f	8b 8e 28 01 00
	00		 mov	 ecx, DWORD PTR [esi+296]
  00035	57		 push	 edi
  00036	53		 push	 ebx
  00037	8b 01		 mov	 eax, DWORD PTR [ecx]
  00039	ff 50 24	 call	 DWORD PTR [eax+36]
$LN2@OnDraw:

; 206  : 
; 207  : 	if(m_pOldBaseTool != NULL)

  0003c	8b 8e 2c 01 00
	00		 mov	 ecx, DWORD PTR [esi+300]
  00042	85 c9		 test	 ecx, ecx
  00044	74 07		 je	 SHORT $LN3@OnDraw

; 208  : 		m_pOldBaseTool->OnDraw(pDC, pMainBlock);

  00046	8b 01		 mov	 eax, DWORD PTR [ecx]
  00048	57		 push	 edi
  00049	53		 push	 ebx
  0004a	ff 50 24	 call	 DWORD PTR [eax+36]
$LN3@OnDraw:

; 209  : }

  0004d	5f		 pop	 edi
  0004e	5e		 pop	 esi
  0004f	5b		 pop	 ebx
  00050	5d		 pop	 ebp
  00051	c2 08 00	 ret	 8
?OnDraw@CMainBlockToolImp@@UAEXPAVCDC@@PAVCMainBlock@@@Z ENDP ; CMainBlockToolImp::OnDraw
_TEXT	ENDS
; Function compile flags: /Ogtp
; File D:\git\src\IBK\IBK_DRFN\ProjSrc\SrcChartEx\ChartOCX\ChartObject\MainBlockToolImp.cpp
;	COMDAT ?GetMenuCheck@CMainBlockToolImp@@UAE_NPAVCMainBlock@@W4ELEMENTMENU@CMenuType@@I@Z
_TEXT	SEGMENT
_pMainBlock$ = 8					; size = 4
_menuType$ = 12						; size = 4
_wParam$ = 16						; size = 4
?GetMenuCheck@CMainBlockToolImp@@UAE_NPAVCMainBlock@@W4ELEMENTMENU@CMenuType@@I@Z PROC ; CMainBlockToolImp::GetMenuCheck, COMDAT
; _this$ = ecx

; 188  : {

  00000	55		 push	 ebp
  00001	8b ec		 mov	 ebp, esp
  00003	53		 push	 ebx

; 189  : 	bool result = false;

  00004	32 db		 xor	 bl, bl

; 235  : 	return (pMainBlock != NULL && m_pBaseTool != NULL && m_pBaseTool->GetIChartCtrl() != NULL);

  00006	83 7d 08 00	 cmp	 DWORD PTR _pMainBlock$[ebp], 0

; 188  : {

  0000a	56		 push	 esi
  0000b	8b f1		 mov	 esi, ecx

; 235  : 	return (pMainBlock != NULL && m_pBaseTool != NULL && m_pBaseTool->GetIChartCtrl() != NULL);

  0000d	74 2b		 je	 SHORT $LN2@GetMenuChe
  0000f	8b 8e 28 01 00
	00		 mov	 ecx, DWORD PTR [esi+296]
  00015	85 c9		 test	 ecx, ecx
  00017	74 21		 je	 SHORT $LN2@GetMenuChe
  00019	e8 00 00 00 00	 call	 ?GetIChartCtrl@CBaseTool@@QBEPAUIChartCtrl@@XZ ; CBaseTool::GetIChartCtrl
  0001e	85 c0		 test	 eax, eax
  00020	74 18		 je	 SHORT $LN2@GetMenuChe

; 190  : 	if(IsActionOfTool(pMainBlock)){
; 191  : 		result = m_pBaseTool->GetMenuCheck(pMainBlock, menuType, wParam);

  00022	8b 8e 28 01 00
	00		 mov	 ecx, DWORD PTR [esi+296]
  00028	ff 75 10	 push	 DWORD PTR _wParam$[ebp]
  0002b	ff 75 0c	 push	 DWORD PTR _menuType$[ebp]
  0002e	8b 01		 mov	 eax, DWORD PTR [ecx]
  00030	ff 75 08	 push	 DWORD PTR _pMainBlock$[ebp]
  00033	8b 40 20	 mov	 eax, DWORD PTR [eax+32]
  00036	ff d0		 call	 eax
  00038	8a d8		 mov	 bl, al
$LN2@GetMenuChe:

; 222  : 	if(m_pBaseTool != NULL){

  0003a	8b 8e 28 01 00
	00		 mov	 ecx, DWORD PTR [esi+296]
  00040	85 c9		 test	 ecx, ecx
  00042	74 13		 je	 SHORT $LN9@GetMenuChe

; 223  : 		if(!bInProcessEnded && !m_pBaseTool->DoesProcessEnded())

  00044	e8 00 00 00 00	 call	 ?DoesProcessEnded@CBaseTool@@QBE_NXZ ; CBaseTool::DoesProcessEnded
  00049	84 c0		 test	 al, al
  0004b	74 1e		 je	 SHORT $LN13@GetMenuChe

; 224  : 			return;
; 225  : 		m_pBaseTool->InitializeAllData();

  0004d	8b 8e 28 01 00
	00		 mov	 ecx, DWORD PTR [esi+296]
  00053	8b 01		 mov	 eax, DWORD PTR [ecx]
  00055	ff 10		 call	 DWORD PTR [eax]
$LN9@GetMenuChe:

; 226  : 	}
; 227  : 		
; 228  : 	m_pBaseTool = NULL;

  00057	c7 86 28 01 00
	00 00 00 00 00	 mov	 DWORD PTR [esi+296], 0

; 229  : 	m_pOldBaseTool = NULL;

  00061	c7 86 2c 01 00
	00 00 00 00 00	 mov	 DWORD PTR [esi+300], 0
$LN13@GetMenuChe:
  0006b	5e		 pop	 esi

; 192  : 	}
; 193  : 
; 194  : 	InitializeAllData();
; 195  : 	return result;
; 196  : }

  0006c	8a c3		 mov	 al, bl
  0006e	5b		 pop	 ebx
  0006f	5d		 pop	 ebp
  00070	c2 0c 00	 ret	 12			; 0000000cH
?GetMenuCheck@CMainBlockToolImp@@UAE_NPAVCMainBlock@@W4ELEMENTMENU@CMenuType@@I@Z ENDP ; CMainBlockToolImp::GetMenuCheck
_TEXT	ENDS
; Function compile flags: /Ogtp
; File D:\git\src\IBK\IBK_DRFN\ProjSrc\SrcChartEx\ChartOCX\ChartObject\MainBlockToolImp.cpp
;	COMDAT ?OnMenu@CMainBlockToolImp@@UAE_NPAVCMainBlock@@W4ELEMENTMENU@CMenuType@@I@Z
_TEXT	SEGMENT
_pMainBlock$ = 8					; size = 4
_menuType$ = 12						; size = 4
_wParam$ = 16						; size = 4
?OnMenu@CMainBlockToolImp@@UAE_NPAVCMainBlock@@W4ELEMENTMENU@CMenuType@@I@Z PROC ; CMainBlockToolImp::OnMenu, COMDAT
; _this$ = ecx

; 174  : {

  00000	55		 push	 ebp
  00001	8b ec		 mov	 ebp, esp
  00003	53		 push	 ebx

; 175  : 	bool result = false;

  00004	32 db		 xor	 bl, bl

; 235  : 	return (pMainBlock != NULL && m_pBaseTool != NULL && m_pBaseTool->GetIChartCtrl() != NULL);

  00006	83 7d 08 00	 cmp	 DWORD PTR _pMainBlock$[ebp], 0

; 174  : {

  0000a	56		 push	 esi
  0000b	8b f1		 mov	 esi, ecx

; 235  : 	return (pMainBlock != NULL && m_pBaseTool != NULL && m_pBaseTool->GetIChartCtrl() != NULL);

  0000d	74 40		 je	 SHORT $LN10@OnMenu
  0000f	8b 8e 28 01 00
	00		 mov	 ecx, DWORD PTR [esi+296]
  00015	85 c9		 test	 ecx, ecx
  00017	74 36		 je	 SHORT $LN10@OnMenu
  00019	e8 00 00 00 00	 call	 ?GetIChartCtrl@CBaseTool@@QBEPAUIChartCtrl@@XZ ; CBaseTool::GetIChartCtrl
  0001e	85 c0		 test	 eax, eax
  00020	74 2d		 je	 SHORT $LN10@OnMenu

; 176  : 	if(IsActionOfTool(pMainBlock)){
; 177  : 		result = m_pBaseTool->OnMenu(pMainBlock, menuType, wParam);

  00022	8b 8e 28 01 00
	00		 mov	 ecx, DWORD PTR [esi+296]
  00028	ff 75 10	 push	 DWORD PTR _wParam$[ebp]
  0002b	ff 75 0c	 push	 DWORD PTR _menuType$[ebp]
  0002e	8b 01		 mov	 eax, DWORD PTR [ecx]
  00030	ff 75 08	 push	 DWORD PTR _pMainBlock$[ebp]
  00033	8b 40 1c	 mov	 eax, DWORD PTR [eax+28]
  00036	ff d0		 call	 eax
  00038	8a d8		 mov	 bl, al

; 178  : 		if(result)

  0003a	84 db		 test	 bl, bl
  0003c	74 11		 je	 SHORT $LN10@OnMenu

; 215  : 	if(m_pIChartCtrl != NULL)

  0003e	8b 4e 04	 mov	 ecx, DWORD PTR [esi+4]
  00041	85 c9		 test	 ecx, ecx
  00043	74 0a		 je	 SHORT $LN10@OnMenu

; 216  : 		m_pIChartCtrl->InvalidateOCX();

  00045	8b 11		 mov	 edx, DWORD PTR [ecx]
  00047	6a 01		 push	 1
  00049	ff 92 20 05 00
	00		 call	 DWORD PTR [edx+1312]
$LN10@OnMenu:

; 222  : 	if(m_pBaseTool != NULL){

  0004f	8b 8e 28 01 00
	00		 mov	 ecx, DWORD PTR [esi+296]
  00055	85 c9		 test	 ecx, ecx
  00057	74 13		 je	 SHORT $LN13@OnMenu

; 223  : 		if(!bInProcessEnded && !m_pBaseTool->DoesProcessEnded())

  00059	e8 00 00 00 00	 call	 ?DoesProcessEnded@CBaseTool@@QBE_NXZ ; CBaseTool::DoesProcessEnded
  0005e	84 c0		 test	 al, al
  00060	74 1e		 je	 SHORT $LN17@OnMenu

; 224  : 			return;
; 225  : 		m_pBaseTool->InitializeAllData();

  00062	8b 8e 28 01 00
	00		 mov	 ecx, DWORD PTR [esi+296]
  00068	8b 01		 mov	 eax, DWORD PTR [ecx]
  0006a	ff 10		 call	 DWORD PTR [eax]
$LN13@OnMenu:

; 226  : 	}
; 227  : 		
; 228  : 	m_pBaseTool = NULL;

  0006c	c7 86 28 01 00
	00 00 00 00 00	 mov	 DWORD PTR [esi+296], 0

; 229  : 	m_pOldBaseTool = NULL;

  00076	c7 86 2c 01 00
	00 00 00 00 00	 mov	 DWORD PTR [esi+300], 0
$LN17@OnMenu:
  00080	5e		 pop	 esi

; 179  : 			Invalidate();
; 180  : 	}
; 181  : 
; 182  : 	InitializeAllData();
; 183  : 	return result;
; 184  : }

  00081	8a c3		 mov	 al, bl
  00083	5b		 pop	 ebx
  00084	5d		 pop	 ebp
  00085	c2 0c 00	 ret	 12			; 0000000cH
?OnMenu@CMainBlockToolImp@@UAE_NPAVCMainBlock@@W4ELEMENTMENU@CMenuType@@I@Z ENDP ; CMainBlockToolImp::OnMenu
_TEXT	ENDS
; Function compile flags: /Ogtp
; File D:\git\src\IBK\IBK_DRFN\ProjSrc\SrcChartEx\ChartOCX\ChartObject\MainBlockToolImp.cpp
; File D:\git\src\IBK\IBK_DRFN\ProjSrc\SrcChartEx\ChartOCX\Include_Chart\BlockBaseData.h
; File D:\git\src\IBK\IBK_DRFN\ProjSrc\SrcChartEx\ChartOCX\ChartObject\MainBlockToolImp.cpp
;	COMDAT ?OnMouseMove@CMainBlockToolImp@@UAE_NPAVCDC@@PAVCMainBlock@@IABVCPoint@@@Z
_TEXT	SEGMENT
$T1 = -8						; size = 8
_pDC$ = 8						; size = 4
_pMainBlock$ = 12					; size = 4
_nFlags$ = 16						; size = 4
_point$ = 20						; size = 4
?OnMouseMove@CMainBlockToolImp@@UAE_NPAVCDC@@PAVCMainBlock@@IABVCPoint@@@Z PROC ; CMainBlockToolImp::OnMouseMove, COMDAT
; _this$ = ecx

; 156  : {

  00000	55		 push	 ebp
  00001	8b ec		 mov	 ebp, esp
  00003	83 ec 08	 sub	 esp, 8
  00006	56		 push	 esi

; 241  : 	if(pMainBlock == NULL)

  00007	8b 75 0c	 mov	 esi, DWORD PTR _pMainBlock$[ebp]

; 156  : {

  0000a	57		 push	 edi
  0000b	8b f9		 mov	 edi, ecx

; 241  : 	if(pMainBlock == NULL)

  0000d	85 f6		 test	 esi, esi
  0000f	0f 84 c8 00 00
	00		 je	 $LN22@OnMouseMov

; 242  : 		return false;
; 243  : 
; 244  : 	if(!pMainBlock->GetDesignMode())

  00015	8b 06		 mov	 eax, DWORD PTR [esi]
  00017	8b ce		 mov	 ecx, esi
  00019	8b 80 7c 01 00
	00		 mov	 eax, DWORD PTR [eax+380]
  0001f	ff d0		 call	 eax
  00021	84 c0		 test	 al, al
  00023	74 12		 je	 SHORT $LN2@OnMouseMov

; 245  : 		return true;
; 246  : 
; 247  : 	return (pMainBlock->GetBlockCompartType() == CBlockBaseData::COMPARTLINE);

  00025	8b 06		 mov	 eax, DWORD PTR [esi]
  00027	8b ce		 mov	 ecx, esi
  00029	ff 90 a0 01 00
	00		 call	 DWORD PTR [eax+416]

; 157  : 	if(!IsSelectingTool(pMainBlock))

  0002f	85 c0		 test	 eax, eax
  00031	0f 85 a6 00 00
	00		 jne	 $LN22@OnMouseMov
$LN2@OnMouseMov:

; 158  : 		return false;
; 159  : 	
; 160  : 	if(m_pBaseTool == NULL)

  00037	8b 8f 28 01 00
	00		 mov	 ecx, DWORD PTR [edi+296]
  0003d	85 c9		 test	 ecx, ecx
  0003f	75 5e		 jne	 SHORT $LN3@OnMouseMov

; 282  : 	CBaseTool* pBaseTool = m_toolSingleton.GetTool(pDC, pMainBlock, point, false, false);

  00041	53		 push	 ebx
  00042	51		 push	 ecx
  00043	51		 push	 ecx
  00044	ff 75 14	 push	 DWORD PTR _point$[ebp]
  00047	8d 4f 08	 lea	 ecx, DWORD PTR [edi+8]
  0004a	56		 push	 esi
  0004b	ff 75 08	 push	 DWORD PTR _pDC$[ebp]
  0004e	e8 00 00 00 00	 call	 ?GetTool@CBaseToolSingleton@@QAEPAVCBaseTool@@PAVCDC@@PAVCMainBlock@@ABVCPoint@@_N3@Z ; CBaseToolSingleton::GetTool
  00053	8b d8		 mov	 ebx, eax

; 283  : 
; 284  : 	if(m_pOldBaseTool != pBaseTool)

  00055	39 9f 2c 01 00
	00		 cmp	 DWORD PTR [edi+300], ebx
  0005b	74 11		 je	 SHORT $LN15@OnMouseMov

; 215  : 	if(m_pIChartCtrl != NULL)

  0005d	8b 4f 04	 mov	 ecx, DWORD PTR [edi+4]
  00060	85 c9		 test	 ecx, ecx
  00062	74 0a		 je	 SHORT $LN15@OnMouseMov

; 216  : 		m_pIChartCtrl->InvalidateOCX();

  00064	8b 11		 mov	 edx, DWORD PTR [ecx]
  00066	6a 01		 push	 1
  00068	ff 92 20 05 00
	00		 call	 DWORD PTR [edx+1312]
$LN15@OnMouseMov:

; 287  : 	m_pOldBaseTool = pBaseTool;

  0006e	89 9f 2c 01 00
	00		 mov	 DWORD PTR [edi+300], ebx

; 288  : 	if(pBaseTool == NULL)

  00074	85 db		 test	 ebx, ebx
  00076	75 0b		 jne	 SHORT $LN12@OnMouseMov

; 161  : 		return OnMouseMove_ProcessFind(pDC, pMainBlock, nFlags, point);

  00078	5b		 pop	 ebx
  00079	5f		 pop	 edi

; 289  : 		return false;

  0007a	32 c0		 xor	 al, al

; 170  : 	return false;
; 171  : }

  0007c	5e		 pop	 esi
  0007d	8b e5		 mov	 esp, ebp
  0007f	5d		 pop	 ebp
  00080	c2 10 00	 ret	 16			; 00000010H
$LN12@OnMouseMov:

; 291  : 	pBaseTool->OnMouseMove(pDC, pMainBlock, nFlags, point);

  00083	ff 75 14	 push	 DWORD PTR _point$[ebp]
  00086	8b 03		 mov	 eax, DWORD PTR [ebx]
  00088	8b cb		 mov	 ecx, ebx
  0008a	ff 75 10	 push	 DWORD PTR _nFlags$[ebp]
  0008d	56		 push	 esi
  0008e	ff 75 08	 push	 DWORD PTR _pDC$[ebp]
  00091	ff 50 18	 call	 DWORD PTR [eax+24]

; 161  : 		return OnMouseMove_ProcessFind(pDC, pMainBlock, nFlags, point);

  00094	5b		 pop	 ebx
  00095	5f		 pop	 edi

; 292  : 	return true;

  00096	b0 01		 mov	 al, 1

; 170  : 	return false;
; 171  : }

  00098	5e		 pop	 esi
  00099	8b e5		 mov	 esp, ebp
  0009b	5d		 pop	 ebp
  0009c	c2 10 00	 ret	 16			; 00000010H
$LN3@OnMouseMov:

; 162  : 
; 163  : 	m_pOldBaseTool = NULL;

  0009f	c7 87 2c 01 00
	00 00 00 00 00	 mov	 DWORD PTR [edi+300], 0

; 164  : 	
; 165  : 	// 블럭 최대화 추가 - ojtaso (20080519)
; 166  : 	if( m_pBaseTool->GetToolType() == CBlockBaseData::TOOL_COMPARTLINE && pMainBlock->GetMaximizedBlock().IsAllValueBiggerThanZero())

  000a9	8b 01		 mov	 eax, DWORD PTR [ecx]
  000ab	ff 50 04	 call	 DWORD PTR [eax+4]
  000ae	85 c0		 test	 eax, eax
  000b0	75 16		 jne	 SHORT $LN4@OnMouseMov
  000b2	8b 06		 mov	 eax, DWORD PTR [esi]
  000b4	8d 4d f8	 lea	 ecx, DWORD PTR $T1[ebp]
  000b7	51		 push	 ecx
  000b8	8b ce		 mov	 ecx, esi
  000ba	ff 50 18	 call	 DWORD PTR [eax+24]
; File D:\git\src\IBK\IBK_DRFN\ProjSrc\SrcChartEx\ChartOCX\Include_Chart\BlockBaseData.h

; 30   : 	bool	IsAllValueBiggerThanZero( void) const		{	return ( m_nRow >= 0 && m_nColumn >= 0);	}

  000bd	83 38 00	 cmp	 DWORD PTR [eax], 0
  000c0	7c 06		 jl	 SHORT $LN4@OnMouseMov
  000c2	83 78 04 00	 cmp	 DWORD PTR [eax+4], 0
  000c6	7d 15		 jge	 SHORT $LN22@OnMouseMov
$LN4@OnMouseMov:
; File D:\git\src\IBK\IBK_DRFN\ProjSrc\SrcChartEx\ChartOCX\ChartObject\MainBlockToolImp.cpp

; 169  : 	m_pBaseTool->OnMouseMove(pDC, pMainBlock, nFlags, point);

  000c8	ff 75 14	 push	 DWORD PTR _point$[ebp]
  000cb	8b 8f 28 01 00
	00		 mov	 ecx, DWORD PTR [edi+296]
  000d1	ff 75 10	 push	 DWORD PTR _nFlags$[ebp]
  000d4	56		 push	 esi
  000d5	8b 01		 mov	 eax, DWORD PTR [ecx]
  000d7	ff 75 08	 push	 DWORD PTR _pDC$[ebp]
  000da	ff 50 18	 call	 DWORD PTR [eax+24]
$LN22@OnMouseMov:

; 170  : 	return false;
; 171  : }

  000dd	5f		 pop	 edi
  000de	32 c0		 xor	 al, al
  000e0	5e		 pop	 esi
  000e1	8b e5		 mov	 esp, ebp
  000e3	5d		 pop	 ebp
  000e4	c2 10 00	 ret	 16			; 00000010H
?OnMouseMove@CMainBlockToolImp@@UAE_NPAVCDC@@PAVCMainBlock@@IABVCPoint@@@Z ENDP ; CMainBlockToolImp::OnMouseMove
_TEXT	ENDS
; Function compile flags: /Ogtp
; File D:\git\src\IBK\IBK_DRFN\ProjSrc\SrcChartEx\ChartOCX\ChartObject\MainBlockToolImp.cpp
;	COMDAT ?OnRButtonUp@CMainBlockToolImp@@UAE?AW4MENUTYPE@CMenuType@@PAVCDC@@PAVCMainBlock@@IABVCPoint@@@Z
_TEXT	SEGMENT
_pDC$ = 8						; size = 4
_pMainBlock$ = 12					; size = 4
___formal$ = 16						; size = 4
_point$ = 20						; size = 4
?OnRButtonUp@CMainBlockToolImp@@UAE?AW4MENUTYPE@CMenuType@@PAVCDC@@PAVCMainBlock@@IABVCPoint@@@Z PROC ; CMainBlockToolImp::OnRButtonUp, COMDAT
; _this$ = ecx

; 142  : {

  00000	55		 push	 ebp
  00001	8b ec		 mov	 ebp, esp
  00003	56		 push	 esi
  00004	8b f1		 mov	 esi, ecx
  00006	57		 push	 edi

; 273  : 	if(m_pBaseTool != NULL && !IsScaleTool(m_pBaseTool))

  00007	8b be 28 01 00
	00		 mov	 edi, DWORD PTR [esi+296]
  0000d	85 ff		 test	 edi, edi
  0000f	74 4e		 je	 SHORT $LN11@OnRButtonU

; 256  : 	return (pBaseTool->GetToolType() == CBlockBaseData::TOOL_HORZSCALE || pBaseTool->GetToolType() == CBlockBaseData::TOOL_VERTSCALE);

  00011	8b 07		 mov	 eax, DWORD PTR [edi]
  00013	8b cf		 mov	 ecx, edi
  00015	ff 50 04	 call	 DWORD PTR [eax+4]
  00018	83 f8 03	 cmp	 eax, 3
  0001b	74 42		 je	 SHORT $LN11@OnRButtonU
  0001d	8b 07		 mov	 eax, DWORD PTR [edi]
  0001f	8b cf		 mov	 ecx, edi
  00021	ff 50 04	 call	 DWORD PTR [eax+4]
  00024	83 f8 04	 cmp	 eax, 4
  00027	74 36		 je	 SHORT $LN11@OnRButtonU

; 235  : 	return (pMainBlock != NULL && m_pBaseTool != NULL && m_pBaseTool->GetIChartCtrl() != NULL);

  00029	8b 7d 0c	 mov	 edi, DWORD PTR _pMainBlock$[ebp]
  0002c	85 ff		 test	 edi, edi
  0002e	0f 85 8b 00 00
	00		 jne	 $LN37@OnRButtonU
$LN26@OnRButtonU:

; 222  : 	if(m_pBaseTool != NULL){

  00034	8b 8e 28 01 00
	00		 mov	 ecx, DWORD PTR [esi+296]
  0003a	85 c9		 test	 ecx, ecx
  0003c	74 04		 je	 SHORT $LN29@OnRButtonU

; 224  : 			return;
; 225  : 		m_pBaseTool->InitializeAllData();

  0003e	8b 01		 mov	 eax, DWORD PTR [ecx]
  00040	ff 10		 call	 DWORD PTR [eax]
$LN29@OnRButtonU:

; 226  : 	}
; 227  : 		
; 228  : 	m_pBaseTool = NULL;

  00042	c7 86 28 01 00
	00 00 00 00 00	 mov	 DWORD PTR [esi+296], 0

; 229  : 	m_pOldBaseTool = NULL;

  0004c	c7 86 2c 01 00
	00 00 00 00 00	 mov	 DWORD PTR [esi+300], 0
$LN38@OnRButtonU:
  00056	5f		 pop	 edi

; 153  : }

  00057	83 c8 ff	 or	 eax, -1
  0005a	5e		 pop	 esi
  0005b	5d		 pop	 ebp
  0005c	c2 10 00	 ret	 16			; 00000010H
$LN11@OnRButtonU:

; 241  : 	if(pMainBlock == NULL)

  0005f	8b 7d 0c	 mov	 edi, DWORD PTR _pMainBlock$[ebp]
  00062	85 ff		 test	 edi, edi
  00064	74 ce		 je	 SHORT $LN26@OnRButtonU

; 242  : 		return false;
; 243  : 
; 244  : 	if(!pMainBlock->GetDesignMode())

  00066	8b 07		 mov	 eax, DWORD PTR [edi]
  00068	8b cf		 mov	 ecx, edi
  0006a	8b 80 7c 01 00
	00		 mov	 eax, DWORD PTR [eax+380]
  00070	ff d0		 call	 eax
  00072	84 c0		 test	 al, al
  00074	74 0e		 je	 SHORT $LN36@OnRButtonU

; 245  : 		return true;
; 246  : 
; 247  : 	return (pMainBlock->GetBlockCompartType() == CBlockBaseData::COMPARTLINE);

  00076	8b 07		 mov	 eax, DWORD PTR [edi]
  00078	8b cf		 mov	 ecx, edi
  0007a	ff 90 a0 01 00
	00		 call	 DWORD PTR [eax+416]

; 263  : 	if(!IsSelectingTool(pMainBlock))

  00080	85 c0		 test	 eax, eax
  00082	75 3b		 jne	 SHORT $LN37@OnRButtonU
$LN36@OnRButtonU:

; 222  : 	if(m_pBaseTool != NULL){

  00084	8b 8e 28 01 00
	00		 mov	 ecx, DWORD PTR [esi+296]
  0008a	85 c9		 test	 ecx, ecx
  0008c	74 04		 je	 SHORT $LN21@OnRButtonU

; 224  : 			return;
; 225  : 		m_pBaseTool->InitializeAllData();

  0008e	8b 01		 mov	 eax, DWORD PTR [ecx]
  00090	ff 10		 call	 DWORD PTR [eax]
$LN21@OnRButtonU:

; 268  : 	m_pBaseTool = m_toolSingleton.GetTool(pDC, pMainBlock, point, useScaleTool);

  00092	6a 01		 push	 1
  00094	6a 01		 push	 1
  00096	ff 75 14	 push	 DWORD PTR _point$[ebp]
  00099	8d 4e 08	 lea	 ecx, DWORD PTR [esi+8]

; 228  : 	m_pBaseTool = NULL;

  0009c	c7 86 28 01 00
	00 00 00 00 00	 mov	 DWORD PTR [esi+296], 0

; 268  : 	m_pBaseTool = m_toolSingleton.GetTool(pDC, pMainBlock, point, useScaleTool);

  000a6	57		 push	 edi
  000a7	ff 75 08	 push	 DWORD PTR _pDC$[ebp]

; 229  : 	m_pOldBaseTool = NULL;

  000aa	c7 86 2c 01 00
	00 00 00 00 00	 mov	 DWORD PTR [esi+300], 0

; 268  : 	m_pBaseTool = m_toolSingleton.GetTool(pDC, pMainBlock, point, useScaleTool);

  000b4	e8 00 00 00 00	 call	 ?GetTool@CBaseToolSingleton@@QAEPAVCBaseTool@@PAVCDC@@PAVCMainBlock@@ABVCPoint@@_N3@Z ; CBaseToolSingleton::GetTool
  000b9	89 86 28 01 00
	00		 mov	 DWORD PTR [esi+296], eax
$LN37@OnRButtonU:

; 235  : 	return (pMainBlock != NULL && m_pBaseTool != NULL && m_pBaseTool->GetIChartCtrl() != NULL);

  000bf	8b 8e 28 01 00
	00		 mov	 ecx, DWORD PTR [esi+296]
  000c5	85 c9		 test	 ecx, ecx
  000c7	0f 84 67 ff ff
	ff		 je	 $LN26@OnRButtonU
  000cd	e8 00 00 00 00	 call	 ?GetIChartCtrl@CBaseTool@@QBEPAUIChartCtrl@@XZ ; CBaseTool::GetIChartCtrl
  000d2	85 c0		 test	 eax, eax
  000d4	0f 84 5a ff ff
	ff		 je	 $LN26@OnRButtonU

; 143  : 	SetCurrentBaseTool_OnRButton(pDC, pMainBlock, point, true);
; 144  : 	if(!IsActionOfTool(pMainBlock)){
; 145  : 		InitializeAllData(true);
; 146  : 		return CMenuType::MENU_NONE;
; 147  : 	}
; 148  : 
; 149  : 	if(!m_pBaseTool) return CMenuType::MENU_NONE;

  000da	8b 8e 28 01 00
	00		 mov	 ecx, DWORD PTR [esi+296]
  000e0	85 c9		 test	 ecx, ecx
  000e2	0f 84 6e ff ff
	ff		 je	 $LN38@OnRButtonU

; 150  : 	CMenuType::MENUTYPE result = m_pBaseTool->OnRButtonUp(pDC, pMainBlock, point);

  000e8	ff 75 14	 push	 DWORD PTR _point$[ebp]
  000eb	8b 01		 mov	 eax, DWORD PTR [ecx]
  000ed	57		 push	 edi
  000ee	ff 75 08	 push	 DWORD PTR _pDC$[ebp]
  000f1	ff 50 14	 call	 DWORD PTR [eax+20]

; 222  : 	if(m_pBaseTool != NULL){

  000f4	8b 8e 28 01 00
	00		 mov	 ecx, DWORD PTR [esi+296]

; 150  : 	CMenuType::MENUTYPE result = m_pBaseTool->OnRButtonUp(pDC, pMainBlock, point);

  000fa	8b f8		 mov	 edi, eax

; 222  : 	if(m_pBaseTool != NULL){

  000fc	85 c9		 test	 ecx, ecx
  000fe	74 13		 je	 SHORT $LN33@OnRButtonU

; 223  : 		if(!bInProcessEnded && !m_pBaseTool->DoesProcessEnded())

  00100	e8 00 00 00 00	 call	 ?DoesProcessEnded@CBaseTool@@QBE_NXZ ; CBaseTool::DoesProcessEnded
  00105	84 c0		 test	 al, al
  00107	74 1e		 je	 SHORT $LN32@OnRButtonU

; 224  : 			return;
; 225  : 		m_pBaseTool->InitializeAllData();

  00109	8b 8e 28 01 00
	00		 mov	 ecx, DWORD PTR [esi+296]
  0010f	8b 01		 mov	 eax, DWORD PTR [ecx]
  00111	ff 10		 call	 DWORD PTR [eax]
$LN33@OnRButtonU:

; 226  : 	}
; 227  : 		
; 228  : 	m_pBaseTool = NULL;

  00113	c7 86 28 01 00
	00 00 00 00 00	 mov	 DWORD PTR [esi+296], 0

; 229  : 	m_pOldBaseTool = NULL;

  0011d	c7 86 2c 01 00
	00 00 00 00 00	 mov	 DWORD PTR [esi+300], 0
$LN32@OnRButtonU:

; 151  : 	InitializeAllData();
; 152  : 	return result;

  00127	8b c7		 mov	 eax, edi
  00129	5f		 pop	 edi

; 153  : }

  0012a	5e		 pop	 esi
  0012b	5d		 pop	 ebp
  0012c	c2 10 00	 ret	 16			; 00000010H
?OnRButtonUp@CMainBlockToolImp@@UAE?AW4MENUTYPE@CMenuType@@PAVCDC@@PAVCMainBlock@@IABVCPoint@@@Z ENDP ; CMainBlockToolImp::OnRButtonUp
_TEXT	ENDS
; Function compile flags: /Ogtp
; File D:\git\src\IBK\IBK_DRFN\ProjSrc\SrcChartEx\ChartOCX\ChartObject\MainBlockToolImp.cpp
;	COMDAT ?OnLButtonDblClk@CMainBlockToolImp@@UAE_NPAVCDC@@PAVCMainBlock@@IABVCPoint@@@Z
_TEXT	SEGMENT
_pDC$ = 8						; size = 4
_pMainBlock$ = 12					; size = 4
___formal$ = 16						; size = 4
_point$ = 20						; size = 4
?OnLButtonDblClk@CMainBlockToolImp@@UAE_NPAVCDC@@PAVCMainBlock@@IABVCPoint@@@Z PROC ; CMainBlockToolImp::OnLButtonDblClk, COMDAT
; _this$ = ecx

; 127  : {

  00000	55		 push	 ebp
  00001	8b ec		 mov	 ebp, esp
  00003	56		 push	 esi
  00004	57		 push	 edi

; 241  : 	if(pMainBlock == NULL)

  00005	8b 7d 0c	 mov	 edi, DWORD PTR _pMainBlock$[ebp]

; 127  : {

  00008	8b f1		 mov	 esi, ecx

; 241  : 	if(pMainBlock == NULL)

  0000a	85 ff		 test	 edi, edi
  0000c	0f 84 d2 00 00
	00		 je	 $LN19@OnLButtonD

; 242  : 		return false;
; 243  : 
; 244  : 	if(!pMainBlock->GetDesignMode())

  00012	8b 07		 mov	 eax, DWORD PTR [edi]
  00014	8b cf		 mov	 ecx, edi
  00016	8b 80 7c 01 00
	00		 mov	 eax, DWORD PTR [eax+380]
  0001c	ff d0		 call	 eax
  0001e	84 c0		 test	 al, al
  00020	74 0e		 je	 SHORT $LN29@OnLButtonD

; 245  : 		return true;
; 246  : 
; 247  : 	return (pMainBlock->GetBlockCompartType() == CBlockBaseData::COMPARTLINE);

  00022	8b 07		 mov	 eax, DWORD PTR [edi]
  00024	8b cf		 mov	 ecx, edi
  00026	ff 90 a0 01 00
	00		 call	 DWORD PTR [eax+416]

; 263  : 	if(!IsSelectingTool(pMainBlock))

  0002c	85 c0		 test	 eax, eax
  0002e	75 3b		 jne	 SHORT $LN6@OnLButtonD
$LN29@OnLButtonD:

; 222  : 	if(m_pBaseTool != NULL){

  00030	8b 8e 28 01 00
	00		 mov	 ecx, DWORD PTR [esi+296]
  00036	85 c9		 test	 ecx, ecx
  00038	74 04		 je	 SHORT $LN14@OnLButtonD

; 224  : 			return;
; 225  : 		m_pBaseTool->InitializeAllData();

  0003a	8b 01		 mov	 eax, DWORD PTR [ecx]
  0003c	ff 10		 call	 DWORD PTR [eax]
$LN14@OnLButtonD:

; 268  : 	m_pBaseTool = m_toolSingleton.GetTool(pDC, pMainBlock, point, useScaleTool);

  0003e	6a 01		 push	 1
  00040	6a 01		 push	 1
  00042	ff 75 14	 push	 DWORD PTR _point$[ebp]
  00045	8d 4e 08	 lea	 ecx, DWORD PTR [esi+8]

; 228  : 	m_pBaseTool = NULL;

  00048	c7 86 28 01 00
	00 00 00 00 00	 mov	 DWORD PTR [esi+296], 0

; 268  : 	m_pBaseTool = m_toolSingleton.GetTool(pDC, pMainBlock, point, useScaleTool);

  00052	57		 push	 edi
  00053	ff 75 08	 push	 DWORD PTR _pDC$[ebp]

; 229  : 	m_pOldBaseTool = NULL;

  00056	c7 86 2c 01 00
	00 00 00 00 00	 mov	 DWORD PTR [esi+300], 0

; 268  : 	m_pBaseTool = m_toolSingleton.GetTool(pDC, pMainBlock, point, useScaleTool);

  00060	e8 00 00 00 00	 call	 ?GetTool@CBaseToolSingleton@@QAEPAVCBaseTool@@PAVCDC@@PAVCMainBlock@@ABVCPoint@@_N3@Z ; CBaseToolSingleton::GetTool
  00065	89 86 28 01 00
	00		 mov	 DWORD PTR [esi+296], eax
$LN6@OnLButtonD:

; 235  : 	return (pMainBlock != NULL && m_pBaseTool != NULL && m_pBaseTool->GetIChartCtrl() != NULL);

  0006b	8b 8e 28 01 00
	00		 mov	 ecx, DWORD PTR [esi+296]
  00071	85 c9		 test	 ecx, ecx
  00073	74 6f		 je	 SHORT $LN19@OnLButtonD
  00075	e8 00 00 00 00	 call	 ?GetIChartCtrl@CBaseTool@@QBEPAUIChartCtrl@@XZ ; CBaseTool::GetIChartCtrl
  0007a	85 c0		 test	 eax, eax
  0007c	74 66		 je	 SHORT $LN19@OnLButtonD

; 131  : 
; 132  : 	if(!m_pBaseTool) return true;

  0007e	8b 8e 28 01 00
	00		 mov	 ecx, DWORD PTR [esi+296]
  00084	85 c9		 test	 ecx, ecx
  00086	74 54		 je	 SHORT $LN24@OnLButtonD

; 133  : 	bool bResult = m_pBaseTool->OnLButtonDblClk(pDC, pMainBlock, point);

  00088	ff 75 14	 push	 DWORD PTR _point$[ebp]
  0008b	8b 01		 mov	 eax, DWORD PTR [ecx]
  0008d	57		 push	 edi
  0008e	ff 75 08	 push	 DWORD PTR _pDC$[ebp]
  00091	8b 40 10	 mov	 eax, DWORD PTR [eax+16]
  00094	ff d0		 call	 eax

; 134  : 	if(bResult)

  00096	84 c0		 test	 al, al
  00098	74 11		 je	 SHORT $LN22@OnLButtonD

; 215  : 	if(m_pIChartCtrl != NULL)

  0009a	8b 4e 04	 mov	 ecx, DWORD PTR [esi+4]
  0009d	85 c9		 test	 ecx, ecx
  0009f	74 0a		 je	 SHORT $LN22@OnLButtonD

; 216  : 		m_pIChartCtrl->InvalidateOCX();

  000a1	8b 01		 mov	 eax, DWORD PTR [ecx]
  000a3	6a 01		 push	 1
  000a5	ff 90 20 05 00
	00		 call	 DWORD PTR [eax+1312]
$LN22@OnLButtonD:

; 222  : 	if(m_pBaseTool != NULL){

  000ab	8b 8e 28 01 00
	00		 mov	 ecx, DWORD PTR [esi+296]
  000b1	85 c9		 test	 ecx, ecx
  000b3	74 13		 je	 SHORT $LN25@OnLButtonD

; 223  : 		if(!bInProcessEnded && !m_pBaseTool->DoesProcessEnded())

  000b5	e8 00 00 00 00	 call	 ?DoesProcessEnded@CBaseTool@@QBE_NXZ ; CBaseTool::DoesProcessEnded
  000ba	84 c0		 test	 al, al
  000bc	74 1e		 je	 SHORT $LN24@OnLButtonD

; 224  : 			return;
; 225  : 		m_pBaseTool->InitializeAllData();

  000be	8b 8e 28 01 00
	00		 mov	 ecx, DWORD PTR [esi+296]
  000c4	8b 01		 mov	 eax, DWORD PTR [ecx]
  000c6	ff 10		 call	 DWORD PTR [eax]
$LN25@OnLButtonD:

; 226  : 	}
; 227  : 		
; 228  : 	m_pBaseTool = NULL;

  000c8	c7 86 28 01 00
	00 00 00 00 00	 mov	 DWORD PTR [esi+296], 0

; 229  : 	m_pOldBaseTool = NULL;

  000d2	c7 86 2c 01 00
	00 00 00 00 00	 mov	 DWORD PTR [esi+300], 0
$LN24@OnLButtonD:
  000dc	5f		 pop	 edi

; 135  : 		Invalidate();
; 136  : 	InitializeAllData();
; 137  : 	// (2007/1/3 - Seung-Won, Bae) for deny Next AddIn LButtonDlbClick Process
; 138  : 	return true;

  000dd	b0 01		 mov	 al, 1

; 139  : }

  000df	5e		 pop	 esi
  000e0	5d		 pop	 ebp
  000e1	c2 10 00	 ret	 16			; 00000010H
$LN19@OnLButtonD:
  000e4	5f		 pop	 edi

; 128  : 	SetCurrentBaseTool(pDC, pMainBlock, point, true);
; 129  : 	if(!IsActionOfTool(pMainBlock))
; 130  : 		return false;

  000e5	32 c0		 xor	 al, al

; 139  : }

  000e7	5e		 pop	 esi
  000e8	5d		 pop	 ebp
  000e9	c2 10 00	 ret	 16			; 00000010H
?OnLButtonDblClk@CMainBlockToolImp@@UAE_NPAVCDC@@PAVCMainBlock@@IABVCPoint@@@Z ENDP ; CMainBlockToolImp::OnLButtonDblClk
_TEXT	ENDS
; Function compile flags: /Ogtp
; File D:\git\src\IBK\IBK_DRFN\ProjSrc\SrcChartEx\ChartOCX\ChartObject\MainBlockToolImp.cpp
; File D:\git\src\IBK\IBK_DRFN\ProjSrc\SrcChartEx\ChartOCX\Include_Chart\BlockBaseData.h
; File D:\git\src\IBK\IBK_DRFN\ProjSrc\SrcChartEx\ChartOCX\ChartObject\MainBlockToolImp.cpp
;	COMDAT ?OnLButtonUp@CMainBlockToolImp@@UAE_NPAVCDC@@PAVCMainBlock@@IABVCPoint@@@Z
_TEXT	SEGMENT
$T1 = -8						; size = 8
_pDC$ = 8						; size = 4
_pMainBlock$ = 12					; size = 4
___formal$ = 16						; size = 4
_point$ = 20						; size = 4
?OnLButtonUp@CMainBlockToolImp@@UAE_NPAVCDC@@PAVCMainBlock@@IABVCPoint@@@Z PROC ; CMainBlockToolImp::OnLButtonUp, COMDAT
; _this$ = ecx

; 109  : {

  00000	55		 push	 ebp
  00001	8b ec		 mov	 ebp, esp
  00003	83 ec 08	 sub	 esp, 8
  00006	56		 push	 esi
  00007	8b f1		 mov	 esi, ecx

; 110  : 	if(!m_pBaseTool) return true;

  00009	8b 8e 28 01 00
	00		 mov	 ecx, DWORD PTR [esi+296]
  0000f	85 c9		 test	 ecx, ecx
  00011	75 09		 jne	 SHORT $LN2@OnLButtonU
  00013	b0 01		 mov	 al, 1
  00015	5e		 pop	 esi

; 124  : }

  00016	8b e5		 mov	 esp, ebp
  00018	5d		 pop	 ebp
  00019	c2 10 00	 ret	 16			; 00000010H
$LN2@OnLButtonU:

; 111  : 
; 112  : 	// 블럭 최대화 추가 - ojtaso (20080519)
; 113  : 	if( m_pBaseTool->GetToolType() == CBlockBaseData::TOOL_COMPARTLINE && pMainBlock->GetMaximizedBlock().IsAllValueBiggerThanZero())

  0001c	8b 01		 mov	 eax, DWORD PTR [ecx]
  0001e	53		 push	 ebx
  0001f	57		 push	 edi
  00020	ff 50 04	 call	 DWORD PTR [eax+4]
  00023	8b 7d 0c	 mov	 edi, DWORD PTR _pMainBlock$[ebp]
  00026	85 c0		 test	 eax, eax
  00028	75 21		 jne	 SHORT $LN3@OnLButtonU
  0002a	8b 07		 mov	 eax, DWORD PTR [edi]
  0002c	8d 4d f8	 lea	 ecx, DWORD PTR $T1[ebp]
  0002f	51		 push	 ecx
  00030	8b cf		 mov	 ecx, edi
  00032	ff 50 18	 call	 DWORD PTR [eax+24]
; File D:\git\src\IBK\IBK_DRFN\ProjSrc\SrcChartEx\ChartOCX\Include_Chart\BlockBaseData.h

; 30   : 	bool	IsAllValueBiggerThanZero( void) const		{	return ( m_nRow >= 0 && m_nColumn >= 0);	}

  00035	83 38 00	 cmp	 DWORD PTR [eax], 0
  00038	7c 15		 jl	 SHORT $LN23@OnLButtonU
  0003a	83 78 04 00	 cmp	 DWORD PTR [eax+4], 0
  0003e	7c 0f		 jl	 SHORT $LN23@OnLButtonU
; File D:\git\src\IBK\IBK_DRFN\ProjSrc\SrcChartEx\ChartOCX\ChartObject\MainBlockToolImp.cpp

; 114  : 		return false;

  00040	5f		 pop	 edi
  00041	5b		 pop	 ebx
  00042	32 c0		 xor	 al, al
  00044	5e		 pop	 esi

; 124  : }

  00045	8b e5		 mov	 esp, ebp
  00047	5d		 pop	 ebp
  00048	c2 10 00	 ret	 16			; 00000010H
$LN3@OnLButtonU:

; 235  : 	return (pMainBlock != NULL && m_pBaseTool != NULL && m_pBaseTool->GetIChartCtrl() != NULL);

  0004b	85 ff		 test	 edi, edi
  0004d	74 3c		 je	 SHORT $LN12@OnLButtonU
$LN23@OnLButtonU:
  0004f	8b 8e 28 01 00
	00		 mov	 ecx, DWORD PTR [esi+296]
  00055	85 c9		 test	 ecx, ecx
  00057	74 32		 je	 SHORT $LN12@OnLButtonU
  00059	e8 00 00 00 00	 call	 ?GetIChartCtrl@CBaseTool@@QBEPAUIChartCtrl@@XZ ; CBaseTool::GetIChartCtrl
  0005e	85 c0		 test	 eax, eax
  00060	74 29		 je	 SHORT $LN12@OnLButtonU

; 118  : 		result = m_pBaseTool->OnLButtonUp(pDC, pMainBlock, point);

  00062	8b 8e 28 01 00
	00		 mov	 ecx, DWORD PTR [esi+296]
  00068	ff 75 14	 push	 DWORD PTR _point$[ebp]
  0006b	57		 push	 edi
  0006c	8b 01		 mov	 eax, DWORD PTR [ecx]
  0006e	ff 75 08	 push	 DWORD PTR _pDC$[ebp]
  00071	8b 40 0c	 mov	 eax, DWORD PTR [eax+12]
  00074	ff d0		 call	 eax

; 215  : 	if(m_pIChartCtrl != NULL)

  00076	8b 4e 04	 mov	 ecx, DWORD PTR [esi+4]

; 118  : 		result = m_pBaseTool->OnLButtonUp(pDC, pMainBlock, point);

  00079	8a d8		 mov	 bl, al

; 215  : 	if(m_pIChartCtrl != NULL)

  0007b	85 c9		 test	 ecx, ecx
  0007d	74 0e		 je	 SHORT $LN15@OnLButtonU

; 216  : 		m_pIChartCtrl->InvalidateOCX();

  0007f	8b 11		 mov	 edx, DWORD PTR [ecx]
  00081	6a 01		 push	 1
  00083	ff 92 20 05 00
	00		 call	 DWORD PTR [edx+1312]
  00089	eb 02		 jmp	 SHORT $LN15@OnLButtonU
$LN12@OnLButtonU:

; 115  : 
; 116  : 	bool result = false;
; 117  : 	if(IsActionOfTool(pMainBlock)){

  0008b	32 db		 xor	 bl, bl
$LN15@OnLButtonU:

; 222  : 	if(m_pBaseTool != NULL){

  0008d	8b 8e 28 01 00
	00		 mov	 ecx, DWORD PTR [esi+296]
  00093	85 c9		 test	 ecx, ecx
  00095	74 13		 je	 SHORT $LN18@OnLButtonU

; 223  : 		if(!bInProcessEnded && !m_pBaseTool->DoesProcessEnded())

  00097	e8 00 00 00 00	 call	 ?DoesProcessEnded@CBaseTool@@QBE_NXZ ; CBaseTool::DoesProcessEnded
  0009c	84 c0		 test	 al, al
  0009e	74 1e		 je	 SHORT $LN17@OnLButtonU

; 224  : 			return;
; 225  : 		m_pBaseTool->InitializeAllData();

  000a0	8b 8e 28 01 00
	00		 mov	 ecx, DWORD PTR [esi+296]
  000a6	8b 01		 mov	 eax, DWORD PTR [ecx]
  000a8	ff 10		 call	 DWORD PTR [eax]
$LN18@OnLButtonU:

; 226  : 	}
; 227  : 		
; 228  : 	m_pBaseTool = NULL;

  000aa	c7 86 28 01 00
	00 00 00 00 00	 mov	 DWORD PTR [esi+296], 0

; 229  : 	m_pOldBaseTool = NULL;

  000b4	c7 86 2c 01 00
	00 00 00 00 00	 mov	 DWORD PTR [esi+300], 0
$LN17@OnLButtonU:
  000be	5f		 pop	 edi

; 119  : 		Invalidate();
; 120  : 	}
; 121  : 	
; 122  : 	InitializeAllData();
; 123  : 	return result;

  000bf	8a c3		 mov	 al, bl
  000c1	5b		 pop	 ebx
  000c2	5e		 pop	 esi

; 124  : }

  000c3	8b e5		 mov	 esp, ebp
  000c5	5d		 pop	 ebp
  000c6	c2 10 00	 ret	 16			; 00000010H
?OnLButtonUp@CMainBlockToolImp@@UAE_NPAVCDC@@PAVCMainBlock@@IABVCPoint@@@Z ENDP ; CMainBlockToolImp::OnLButtonUp
_TEXT	ENDS
; Function compile flags: /Ogtp
; File D:\git\src\IBK\IBK_DRFN\ProjSrc\SrcChartEx\ChartOCX\ChartObject\MainBlockToolImp.cpp
; File D:\git\src\IBK\IBK_DRFN\ProjSrc\SrcChartEx\ChartOCX\Include_Chart\BlockBaseData.h
; File D:\git\src\IBK\IBK_DRFN\ProjSrc\SrcChartEx\ChartOCX\ChartObject\MainBlockToolImp.cpp
;	COMDAT ?OnLButtonDown@CMainBlockToolImp@@UAE_NPAVCDC@@PAVCMainBlock@@IABVCPoint@@@Z
_TEXT	SEGMENT
$T1 = -8						; size = 8
_pDC$ = 8						; size = 4
_pMainBlock$ = 12					; size = 4
_nFlags$ = 16						; size = 4
_point$ = 20						; size = 4
?OnLButtonDown@CMainBlockToolImp@@UAE_NPAVCDC@@PAVCMainBlock@@IABVCPoint@@@Z PROC ; CMainBlockToolImp::OnLButtonDown, COMDAT
; _this$ = ecx

; 90   : {

  00000	55		 push	 ebp
  00001	8b ec		 mov	 ebp, esp
  00003	83 ec 08	 sub	 esp, 8
  00006	53		 push	 ebx
  00007	56		 push	 esi
  00008	57		 push	 edi

; 241  : 	if(pMainBlock == NULL)

  00009	8b 7d 0c	 mov	 edi, DWORD PTR _pMainBlock$[ebp]

; 90   : {

  0000c	8b f1		 mov	 esi, ecx

; 241  : 	if(pMainBlock == NULL)

  0000e	85 ff		 test	 edi, edi
  00010	0f 84 d8 00 00
	00		 je	 $LN32@OnLButtonD

; 242  : 		return false;
; 243  : 
; 244  : 	if(!pMainBlock->GetDesignMode())

  00016	8b 07		 mov	 eax, DWORD PTR [edi]
  00018	8b cf		 mov	 ecx, edi
  0001a	8b 80 7c 01 00
	00		 mov	 eax, DWORD PTR [eax+380]
  00020	ff d0		 call	 eax
  00022	8b 5d 14	 mov	 ebx, DWORD PTR _point$[ebp]
  00025	84 c0		 test	 al, al
  00027	74 0e		 je	 SHORT $LN30@OnLButtonD

; 245  : 		return true;
; 246  : 
; 247  : 	return (pMainBlock->GetBlockCompartType() == CBlockBaseData::COMPARTLINE);

  00029	8b 07		 mov	 eax, DWORD PTR [edi]
  0002b	8b cf		 mov	 ecx, edi
  0002d	ff 90 a0 01 00
	00		 call	 DWORD PTR [eax+416]

; 263  : 	if(!IsSelectingTool(pMainBlock))

  00033	85 c0		 test	 eax, eax
  00035	75 39		 jne	 SHORT $LN7@OnLButtonD
$LN30@OnLButtonD:

; 222  : 	if(m_pBaseTool != NULL){

  00037	8b 8e 28 01 00
	00		 mov	 ecx, DWORD PTR [esi+296]
  0003d	85 c9		 test	 ecx, ecx
  0003f	74 04		 je	 SHORT $LN15@OnLButtonD

; 223  : 		if(!bInProcessEnded && !m_pBaseTool->DoesProcessEnded())
; 224  : 			return;
; 225  : 		m_pBaseTool->InitializeAllData();

  00041	8b 01		 mov	 eax, DWORD PTR [ecx]
  00043	ff 10		 call	 DWORD PTR [eax]
$LN15@OnLButtonD:

; 268  : 	m_pBaseTool = m_toolSingleton.GetTool(pDC, pMainBlock, point, useScaleTool);

  00045	6a 01		 push	 1
  00047	6a 00		 push	 0
  00049	53		 push	 ebx
  0004a	57		 push	 edi
  0004b	ff 75 08	 push	 DWORD PTR _pDC$[ebp]
  0004e	8d 4e 08	 lea	 ecx, DWORD PTR [esi+8]

; 228  : 	m_pBaseTool = NULL;

  00051	c7 86 28 01 00
	00 00 00 00 00	 mov	 DWORD PTR [esi+296], 0

; 229  : 	m_pOldBaseTool = NULL;

  0005b	c7 86 2c 01 00
	00 00 00 00 00	 mov	 DWORD PTR [esi+300], 0

; 268  : 	m_pBaseTool = m_toolSingleton.GetTool(pDC, pMainBlock, point, useScaleTool);

  00065	e8 00 00 00 00	 call	 ?GetTool@CBaseToolSingleton@@QAEPAVCBaseTool@@PAVCDC@@PAVCMainBlock@@ABVCPoint@@_N3@Z ; CBaseToolSingleton::GetTool
  0006a	89 86 28 01 00
	00		 mov	 DWORD PTR [esi+296], eax
$LN7@OnLButtonD:

; 235  : 	return (pMainBlock != NULL && m_pBaseTool != NULL && m_pBaseTool->GetIChartCtrl() != NULL);

  00070	8b 8e 28 01 00
	00		 mov	 ecx, DWORD PTR [esi+296]
  00076	85 c9		 test	 ecx, ecx
  00078	74 74		 je	 SHORT $LN32@OnLButtonD
  0007a	e8 00 00 00 00	 call	 ?GetIChartCtrl@CBaseTool@@QBEPAUIChartCtrl@@XZ ; CBaseTool::GetIChartCtrl
  0007f	85 c0		 test	 eax, eax
  00081	74 6b		 je	 SHORT $LN32@OnLButtonD

; 91   : 	SetCurrentBaseTool(pDC, pMainBlock, point, false);
; 92   : 	if(!IsActionOfTool(pMainBlock))
; 93   : 		return false;
; 94   : 
; 95   : 	if(!m_pBaseTool) return true;

  00083	8b 8e 28 01 00
	00		 mov	 ecx, DWORD PTR [esi+296]
  00089	85 c9		 test	 ecx, ecx
  0008b	75 0b		 jne	 SHORT $LN3@OnLButtonD

; 103  : 		Invalidate();
; 104  : 
; 105  : 	return bResult;
; 106  : }

  0008d	5f		 pop	 edi
  0008e	5e		 pop	 esi
  0008f	b0 01		 mov	 al, 1
  00091	5b		 pop	 ebx
  00092	8b e5		 mov	 esp, ebp
  00094	5d		 pop	 ebp
  00095	c2 10 00	 ret	 16			; 00000010H
$LN3@OnLButtonD:

; 96   : 
; 97   : 	// 블럭 최대화 추가 - ojtaso (20080519)
; 98   : 	if( m_pBaseTool->GetToolType() == CBlockBaseData::TOOL_COMPARTLINE && pMainBlock->GetMaximizedBlock().IsAllValueBiggerThanZero())

  00098	8b 01		 mov	 eax, DWORD PTR [ecx]
  0009a	ff 50 04	 call	 DWORD PTR [eax+4]
  0009d	85 c0		 test	 eax, eax
  0009f	75 16		 jne	 SHORT $LN4@OnLButtonD
  000a1	8b 07		 mov	 eax, DWORD PTR [edi]
  000a3	8d 4d f8	 lea	 ecx, DWORD PTR $T1[ebp]
  000a6	51		 push	 ecx
  000a7	8b cf		 mov	 ecx, edi
  000a9	ff 50 18	 call	 DWORD PTR [eax+24]
; File D:\git\src\IBK\IBK_DRFN\ProjSrc\SrcChartEx\ChartOCX\Include_Chart\BlockBaseData.h

; 30   : 	bool	IsAllValueBiggerThanZero( void) const		{	return ( m_nRow >= 0 && m_nColumn >= 0);	}

  000ac	83 38 00	 cmp	 DWORD PTR [eax], 0
  000af	7c 06		 jl	 SHORT $LN4@OnLButtonD
  000b1	83 78 04 00	 cmp	 DWORD PTR [eax+4], 0
  000b5	7d 37		 jge	 SHORT $LN32@OnLButtonD
$LN4@OnLButtonD:
; File D:\git\src\IBK\IBK_DRFN\ProjSrc\SrcChartEx\ChartOCX\ChartObject\MainBlockToolImp.cpp

; 101  : 	bool bResult = m_pBaseTool->OnLButtonDown(pDC, pMainBlock, nFlags, point);

  000b7	8b 8e 28 01 00
	00		 mov	 ecx, DWORD PTR [esi+296]
  000bd	53		 push	 ebx
  000be	ff 75 10	 push	 DWORD PTR _nFlags$[ebp]
  000c1	8b 01		 mov	 eax, DWORD PTR [ecx]
  000c3	57		 push	 edi
  000c4	ff 75 08	 push	 DWORD PTR _pDC$[ebp]
  000c7	8b 40 08	 mov	 eax, DWORD PTR [eax+8]
  000ca	ff d0		 call	 eax
  000cc	8a d8		 mov	 bl, al

; 102  : 	if(bResult)

  000ce	84 db		 test	 bl, bl
  000d0	74 11		 je	 SHORT $LN27@OnLButtonD

; 215  : 	if(m_pIChartCtrl != NULL)

  000d2	8b 4e 04	 mov	 ecx, DWORD PTR [esi+4]
  000d5	85 c9		 test	 ecx, ecx
  000d7	74 0a		 je	 SHORT $LN27@OnLButtonD

; 216  : 		m_pIChartCtrl->InvalidateOCX();

  000d9	8b 11		 mov	 edx, DWORD PTR [ecx]
  000db	6a 01		 push	 1
  000dd	ff 92 20 05 00
	00		 call	 DWORD PTR [edx+1312]
$LN27@OnLButtonD:
  000e3	5f		 pop	 edi

; 103  : 		Invalidate();
; 104  : 
; 105  : 	return bResult;
; 106  : }

  000e4	5e		 pop	 esi
  000e5	8a c3		 mov	 al, bl
  000e7	5b		 pop	 ebx
  000e8	8b e5		 mov	 esp, ebp
  000ea	5d		 pop	 ebp
  000eb	c2 10 00	 ret	 16			; 00000010H
$LN32@OnLButtonD:
  000ee	5f		 pop	 edi
  000ef	5e		 pop	 esi
  000f0	32 c0		 xor	 al, al
  000f2	5b		 pop	 ebx
  000f3	8b e5		 mov	 esp, ebp
  000f5	5d		 pop	 ebp
  000f6	c2 10 00	 ret	 16			; 00000010H
?OnLButtonDown@CMainBlockToolImp@@UAE_NPAVCDC@@PAVCMainBlock@@IABVCPoint@@@Z ENDP ; CMainBlockToolImp::OnLButtonDown
_TEXT	ENDS
; Function compile flags: /Ogtp
; File D:\git\src\IBK\IBK_DRFN\ProjSrc\SrcChartEx\ChartOCX\ChartObject\MainBlockToolImp.cpp
;	COMDAT ?GetCurrentToolType@CMainBlockToolImp@@UBE?AW4TOOLTYPE@CBlockBaseData@@XZ
_TEXT	SEGMENT
?GetCurrentToolType@CMainBlockToolImp@@UBE?AW4TOOLTYPE@CBlockBaseData@@XZ PROC ; CMainBlockToolImp::GetCurrentToolType, COMDAT
; _this$ = ecx

; 82   : 	if(m_pBaseTool == NULL)

  00000	8b 89 28 01 00
	00		 mov	 ecx, DWORD PTR [ecx+296]
  00006	85 c9		 test	 ecx, ecx
  00008	75 04		 jne	 SHORT $LN2@GetCurrent

; 83   : 		return CBlockBaseData::TOOL_NONE;

  0000a	83 c8 ff	 or	 eax, -1

; 85   : }

  0000d	c3		 ret	 0
$LN2@GetCurrent:

; 84   : 	return m_pBaseTool->GetToolType();

  0000e	8b 01		 mov	 eax, DWORD PTR [ecx]
  00010	ff 60 04	 jmp	 DWORD PTR [eax+4]
?GetCurrentToolType@CMainBlockToolImp@@UBE?AW4TOOLTYPE@CBlockBaseData@@XZ ENDP ; CMainBlockToolImp::GetCurrentToolType
_TEXT	ENDS
; Function compile flags: /Ogtp
; File D:\git\src\IBK\IBK_DRFN\ProjSrc\SrcChartEx\ChartOCX\ChartObject\MainBlockToolImp.cpp
;	COMDAT ?ResetCurrentTool@CMainBlockToolImp@@UAEXXZ
_TEXT	SEGMENT
?ResetCurrentTool@CMainBlockToolImp@@UAEXXZ PROC	; CMainBlockToolImp::ResetCurrentTool, COMDAT
; _this$ = ecx

; 71   : {

  00000	56		 push	 esi
  00001	8b f1		 mov	 esi, ecx

; 72   : 	if(m_pBaseTool != NULL)

  00003	8b 8e 28 01 00
	00		 mov	 ecx, DWORD PTR [esi+296]
  00009	85 c9		 test	 ecx, ecx
  0000b	74 04		 je	 SHORT $LN4@ResetCurre

; 73   : 		m_pBaseTool->InitializeAllData();

  0000d	8b 01		 mov	 eax, DWORD PTR [ecx]
  0000f	ff 10		 call	 DWORD PTR [eax]
$LN4@ResetCurre:

; 74   : 	
; 75   : 	m_pBaseTool = NULL;
; 76   : 	m_pOldBaseTool = NULL;
; 77   : }

  00011	c7 86 2c 01 00
	00 00 00 00 00	 mov	 DWORD PTR [esi+300], 0
  0001b	c7 86 28 01 00
	00 00 00 00 00	 mov	 DWORD PTR [esi+296], 0
  00025	5e		 pop	 esi
  00026	c3		 ret	 0
?ResetCurrentTool@CMainBlockToolImp@@UAEXXZ ENDP	; CMainBlockToolImp::ResetCurrentTool
_TEXT	ENDS
; Function compile flags: /Ogtp
; File D:\git\src\IBK\IBK_DRFN\ProjSrc\SrcChartEx\ChartOCX\ChartObject\MainBlockToolImp.cpp
;	COMDAT ?SetUsingTool@CMainBlockToolImp@@UAEXW4TOOLTYPE@CBlockBaseData@@_N@Z
_TEXT	SEGMENT
_eToolType$ = 8						; size = 4
_bIsUsing$ = 12						; size = 1
?SetUsingTool@CMainBlockToolImp@@UAEXW4TOOLTYPE@CBlockBaseData@@_N@Z PROC ; CMainBlockToolImp::SetUsingTool, COMDAT
; _this$ = ecx

; 65   : {

  00000	55		 push	 ebp
  00001	8b ec		 mov	 ebp, esp

; 66   : 	m_toolSingleton.SetUsingTool(eToolType, bIsUsing);

  00003	83 c1 08	 add	 ecx, 8

; 67   : }

  00006	5d		 pop	 ebp

; 66   : 	m_toolSingleton.SetUsingTool(eToolType, bIsUsing);

  00007	e9 00 00 00 00	 jmp	 ?SetUsingTool@CBaseToolSingleton@@QAEXW4TOOLTYPE@CBlockBaseData@@_N@Z ; CBaseToolSingleton::SetUsingTool
?SetUsingTool@CMainBlockToolImp@@UAEXW4TOOLTYPE@CBlockBaseData@@_N@Z ENDP ; CMainBlockToolImp::SetUsingTool
_TEXT	ENDS
; Function compile flags: /Ogtp
; File D:\git\src\IBK\IBK_DRFN\ProjSrc\SrcChartEx\ChartOCX\ChartObject\MainBlockToolImp.cpp
;	COMDAT ?SetUsingTool@CMainBlockToolImp@@UAEX_N000000000@Z
_TEXT	SEGMENT
_bIsUsing_compartLine$ = 8				; size = 1
_bIsUsing_blockMove$ = 12				; size = 1
_bIsUsing_blockDelete$ = 16				; size = 1
_bIsUsing_horzScale$ = 20				; size = 1
_bIsUsing_vertScale$ = 24				; size = 1
_bIsUsing_graphTitle$ = 28				; size = 1
_bIsUsing_subGraph$ = 32				; size = 1
_bIsUsing_graphMove$ = 36				; size = 1
_bIsUsing_graphDelete$ = 40				; size = 1
_bIsUsing_blockSize$ = 44				; size = 1
?SetUsingTool@CMainBlockToolImp@@UAEX_N000000000@Z PROC	; CMainBlockToolImp::SetUsingTool, COMDAT
; _this$ = ecx

; 41   : {

  00000	55		 push	 ebp
  00001	8b ec		 mov	 ebp, esp
  00003	56		 push	 esi

; 42   : 	// block 크기 tool
; 43   : 	SetUsingTool(CBlockBaseData::TOOL_COMPARTLINE, bIsUsing_compartLine);

  00004	ff 75 08	 push	 DWORD PTR _bIsUsing_compartLine$[ebp]
  00007	8b f1		 mov	 esi, ecx
  00009	6a 00		 push	 0
  0000b	8b 06		 mov	 eax, DWORD PTR [esi]
  0000d	ff 50 08	 call	 DWORD PTR [eax+8]

; 44   : 	// block 이동 tool
; 45   : 	SetUsingTool(CBlockBaseData::TOOL_BLOCKMOVE, bIsUsing_blockMove);

  00010	ff 75 0c	 push	 DWORD PTR _bIsUsing_blockMove$[ebp]
  00013	8b 06		 mov	 eax, DWORD PTR [esi]
  00015	8b ce		 mov	 ecx, esi
  00017	6a 01		 push	 1
  00019	ff 50 08	 call	 DWORD PTR [eax+8]

; 46   : 	// block 삭제 tool
; 47   : 	SetUsingTool(CBlockBaseData::TOOL_BLOCKDELETE, bIsUsing_blockDelete);

  0001c	ff 75 10	 push	 DWORD PTR _bIsUsing_blockDelete$[ebp]
  0001f	8b 06		 mov	 eax, DWORD PTR [esi]
  00021	8b ce		 mov	 ecx, esi
  00023	6a 02		 push	 2
  00025	ff 50 08	 call	 DWORD PTR [eax+8]

; 48   : 	// x축 scale tool
; 49   : 	SetUsingTool(CBlockBaseData::TOOL_HORZSCALE, bIsUsing_horzScale);

  00028	ff 75 14	 push	 DWORD PTR _bIsUsing_horzScale$[ebp]
  0002b	8b 06		 mov	 eax, DWORD PTR [esi]
  0002d	8b ce		 mov	 ecx, esi
  0002f	6a 03		 push	 3
  00031	ff 50 08	 call	 DWORD PTR [eax+8]

; 50   : 	// y축 scale tool
; 51   : 	SetUsingTool(CBlockBaseData::TOOL_VERTSCALE, bIsUsing_vertScale);

  00034	ff 75 18	 push	 DWORD PTR _bIsUsing_vertScale$[ebp]
  00037	8b 06		 mov	 eax, DWORD PTR [esi]
  00039	8b ce		 mov	 ecx, esi
  0003b	6a 04		 push	 4
  0003d	ff 50 08	 call	 DWORD PTR [eax+8]

; 52   : 	// graph title tool (선택, 설정)
; 53   : 	SetUsingTool(CBlockBaseData::TOOL_GRAPHTITLE, bIsUsing_graphTitle);

  00040	ff 75 1c	 push	 DWORD PTR _bIsUsing_graphTitle$[ebp]
  00043	8b 06		 mov	 eax, DWORD PTR [esi]
  00045	8b ce		 mov	 ecx, esi
  00047	6a 05		 push	 5
  00049	ff 50 08	 call	 DWORD PTR [eax+8]

; 54   : 	// sugGraph tool	(선택, 설정, 강조)
; 55   : 	SetUsingTool(CBlockBaseData::TOOL_SUBGRAPH, bIsUsing_subGraph);

  0004c	ff 75 20	 push	 DWORD PTR _bIsUsing_subGraph$[ebp]
  0004f	8b 06		 mov	 eax, DWORD PTR [esi]
  00051	8b ce		 mov	 ecx, esi
  00053	6a 06		 push	 6
  00055	ff 50 08	 call	 DWORD PTR [eax+8]

; 56   : 	// graph title / subGraph tool 의 이동
; 57   : 	SetUsingTool(CBlockBaseData::TOOL_GRAPHMOVE, bIsUsing_graphMove);

  00058	ff 75 24	 push	 DWORD PTR _bIsUsing_graphMove$[ebp]
  0005b	8b 06		 mov	 eax, DWORD PTR [esi]
  0005d	8b ce		 mov	 ecx, esi
  0005f	6a 07		 push	 7
  00061	ff 50 08	 call	 DWORD PTR [eax+8]

; 58   : 	// graph title / subGraph tool 의 삭제
; 59   : 	SetUsingTool(CBlockBaseData::TOOL_GRAPHDELETE, bIsUsing_graphDelete);

  00064	ff 75 28	 push	 DWORD PTR _bIsUsing_graphDelete$[ebp]
  00067	8b 06		 mov	 eax, DWORD PTR [esi]
  00069	8b ce		 mov	 ecx, esi
  0006b	6a 08		 push	 8
  0006d	ff 50 08	 call	 DWORD PTR [eax+8]

; 60   : 	// 블럭 최대화 추가 - ojtaso (20080519)
; 61   : 	SetUsingTool(CBlockBaseData::TOOL_BLOCKSIZE, bIsUsing_blockSize);

  00070	ff 75 2c	 push	 DWORD PTR _bIsUsing_blockSize$[ebp]
  00073	8b 06		 mov	 eax, DWORD PTR [esi]
  00075	8b ce		 mov	 ecx, esi
  00077	6a 09		 push	 9
  00079	ff 50 08	 call	 DWORD PTR [eax+8]
  0007c	5e		 pop	 esi

; 62   : }

  0007d	5d		 pop	 ebp
  0007e	c2 28 00	 ret	 40			; 00000028H
?SetUsingTool@CMainBlockToolImp@@UAEX_N000000000@Z ENDP	; CMainBlockToolImp::SetUsingTool
_TEXT	ENDS
; Function compile flags: /Ogtp
; File D:\git\src\IBK\IBK_DRFN\ProjSrc\SrcChartEx\ChartOCX\ChartObject\MainBlockToolImp.cpp
;	COMDAT ?SetIChartCtrl@CMainBlockToolImp@@UAEXPAUIChartCtrl@@@Z
_TEXT	SEGMENT
_p_pICharetCtrl$ = 8					; size = 4
?SetIChartCtrl@CMainBlockToolImp@@UAEXPAUIChartCtrl@@@Z PROC ; CMainBlockToolImp::SetIChartCtrl, COMDAT
; _this$ = ecx

; 31   : {

  00000	55		 push	 ebp
  00001	8b ec		 mov	 ebp, esp

; 32   : 	m_pIChartCtrl = p_pICharetCtrl;

  00003	8b 45 08	 mov	 eax, DWORD PTR _p_pICharetCtrl$[ebp]
  00006	89 41 04	 mov	 DWORD PTR [ecx+4], eax

; 33   : 	m_toolSingleton.SetIChartCtrl(p_pICharetCtrl);

  00009	89 45 08	 mov	 DWORD PTR _p_pICharetCtrl$[ebp], eax
  0000c	83 c1 08	 add	 ecx, 8

; 34   : }

  0000f	5d		 pop	 ebp

; 33   : 	m_toolSingleton.SetIChartCtrl(p_pICharetCtrl);

  00010	e9 00 00 00 00	 jmp	 ?SetIChartCtrl@CBaseToolSingleton@@QAEXPAUIChartCtrl@@@Z ; CBaseToolSingleton::SetIChartCtrl
?SetIChartCtrl@CMainBlockToolImp@@UAEXPAUIChartCtrl@@@Z ENDP ; CMainBlockToolImp::SetIChartCtrl
_TEXT	ENDS
; Function compile flags: /Ogtp
; File D:\git\src\IBK\IBK_DRFN\ProjSrc\SrcChartEx\ChartOCX\ChartObject\MainBlockToolImp.cpp
;	COMDAT ??0CMainBlockToolImp@@QAE@PAUIChartCtrl@@@Z
_TEXT	SEGMENT
_this$ = -16						; size = 4
__$EHRec$ = -12						; size = 12
_p_pICharetCtrl$ = 8					; size = 4
??0CMainBlockToolImp@@QAE@PAUIChartCtrl@@@Z PROC	; CMainBlockToolImp::CMainBlockToolImp, COMDAT
; _this$ = ecx

; 26   : {

  00000	55		 push	 ebp
  00001	8b ec		 mov	 ebp, esp
  00003	6a ff		 push	 -1
  00005	68 00 00 00 00	 push	 __ehhandler$??0CMainBlockToolImp@@QAE@PAUIChartCtrl@@@Z
  0000a	64 a1 00 00 00
	00		 mov	 eax, DWORD PTR fs:0
  00010	50		 push	 eax
  00011	51		 push	 ecx
  00012	56		 push	 esi
  00013	a1 00 00 00 00	 mov	 eax, DWORD PTR ___security_cookie
  00018	33 c5		 xor	 eax, ebp
  0001a	50		 push	 eax
  0001b	8d 45 f4	 lea	 eax, DWORD PTR __$EHRec$[ebp]
  0001e	64 a3 00 00 00
	00		 mov	 DWORD PTR fs:0, eax
  00024	8b f1		 mov	 esi, ecx
  00026	89 75 f0	 mov	 DWORD PTR _this$[ebp], esi

; 23   : 	m_pIChartCtrl(p_pICharetCtrl),

  00029	8b 45 08	 mov	 eax, DWORD PTR _p_pICharetCtrl$[ebp]

; 26   : {

  0002c	8d 4e 08	 lea	 ecx, DWORD PTR [esi+8]
  0002f	c7 45 fc 00 00
	00 00		 mov	 DWORD PTR __$EHRec$[ebp+8], 0
  00036	c7 06 00 00 00
	00		 mov	 DWORD PTR [esi], OFFSET ??_7CMainBlockToolImp@@6B@
  0003c	89 46 04	 mov	 DWORD PTR [esi+4], eax
  0003f	e8 00 00 00 00	 call	 ??0CBaseToolSingleton@@QAE@XZ ; CBaseToolSingleton::CBaseToolSingleton

; 24   : 	m_pBaseTool(NULL),

  00044	c7 86 28 01 00
	00 00 00 00 00	 mov	 DWORD PTR [esi+296], 0

; 27   : }

  0004e	8b c6		 mov	 eax, esi
  00050	c7 86 2c 01 00
	00 00 00 00 00	 mov	 DWORD PTR [esi+300], 0
  0005a	8b 4d f4	 mov	 ecx, DWORD PTR __$EHRec$[ebp]
  0005d	64 89 0d 00 00
	00 00		 mov	 DWORD PTR fs:0, ecx
  00064	59		 pop	 ecx
  00065	5e		 pop	 esi
  00066	8b e5		 mov	 esp, ebp
  00068	5d		 pop	 ebp
  00069	c2 04 00	 ret	 4
_TEXT	ENDS
;	COMDAT text$x
text$x	SEGMENT
__unwindfunclet$??0CMainBlockToolImp@@QAE@PAUIChartCtrl@@@Z$0:
  00000	8b 4d f0	 mov	 ecx, DWORD PTR _this$[ebp]
  00003	e9 00 00 00 00	 jmp	 ??1CMainBlockTool@@UAE@XZ ; CMainBlockTool::~CMainBlockTool
  00008	cc		 int	 3
  00009	cc		 int	 3
  0000a	cc		 int	 3
  0000b	cc		 int	 3
  0000c	cc		 int	 3
__ehhandler$??0CMainBlockToolImp@@QAE@PAUIChartCtrl@@@Z:
  0000d	90		 npad	 1
  0000e	90		 npad	 1
  0000f	8b 54 24 08	 mov	 edx, DWORD PTR [esp+8]
  00013	8d 42 0c	 lea	 eax, DWORD PTR [edx+12]
  00016	8b 4a f4	 mov	 ecx, DWORD PTR [edx-12]
  00019	33 c8		 xor	 ecx, eax
  0001b	e8 00 00 00 00	 call	 @__security_check_cookie@4
  00020	b8 00 00 00 00	 mov	 eax, OFFSET __ehfuncinfo$??0CMainBlockToolImp@@QAE@PAUIChartCtrl@@@Z
  00025	e9 00 00 00 00	 jmp	 ___CxxFrameHandler3
text$x	ENDS
??0CMainBlockToolImp@@QAE@PAUIChartCtrl@@@Z ENDP	; CMainBlockToolImp::CMainBlockToolImp
; Function compile flags: /Ogtp
; File C:\Program Files (x86)\Microsoft Visual Studio\2019\Community\VC\Tools\MSVC\14.29.30133\include\deque
; File C:\Program Files (x86)\Microsoft Visual Studio\2019\Community\VC\Tools\MSVC\14.29.30133\include\xmemory
; File C:\Program Files (x86)\Microsoft Visual Studio\2019\Community\VC\Tools\MSVC\14.29.30133\include\deque
; File C:\Program Files (x86)\Microsoft Visual Studio\2019\Community\VC\Tools\MSVC\14.29.30133\include\xmemory
; File C:\Program Files (x86)\Microsoft Visual Studio\2019\Community\VC\Tools\MSVC\14.29.30133\include\deque
; File C:\Program Files (x86)\Microsoft Visual Studio\2019\Community\VC\Tools\MSVC\14.29.30133\include\xmemory
; File C:\Program Files (x86)\Microsoft Visual Studio\2019\Community\VC\Tools\MSVC\14.29.30133\include\deque
;	COMDAT ?_Tidy@?$deque@VCSelectedSubGraphData@@V?$allocator@VCSelectedSubGraphData@@@std@@@std@@AAEXXZ
_TEXT	SEGMENT
?_Tidy@?$deque@VCSelectedSubGraphData@@V?$allocator@VCSelectedSubGraphData@@@std@@@std@@AAEXXZ PROC ; std::deque<CSelectedSubGraphData,std::allocator<CSelectedSubGraphData> >::_Tidy, COMDAT
; _this$ = ecx

; 1471 :     void _Tidy() noexcept { // free all storage

  00000	57		 push	 edi
  00001	8b f9		 mov	 edi, ecx

; 1002 :         return _Mysize() == 0;

  00003	8b 4f 10	 mov	 ecx, DWORD PTR [edi+16]
  00006	85 c9		 test	 ecx, ecx

; 1472 :         _Orphan_all();
; 1473 : 
; 1474 :         _Alpty _Almap(_Getal());
; 1475 :         while (!empty()) {

  00008	74 15		 je	 SHORT $LN60@Tidy
  0000a	66 0f 1f 44 00
	00		 npad	 6
$LL2@Tidy:

; 1146 :         if (--_Mysize() == 0) {

  00010	8d 41 ff	 lea	 eax, DWORD PTR [ecx-1]
  00013	89 47 10	 mov	 DWORD PTR [edi+16], eax
  00016	8b c8		 mov	 ecx, eax
  00018	85 c0		 test	 eax, eax
  0001a	75 f4		 jne	 SHORT $LL2@Tidy

; 1147 :             _Myoff() = 0;

  0001c	89 47 0c	 mov	 DWORD PTR [edi+12], eax
$LN60@Tidy:
  0001f	56		 push	 esi

; 1479 :         for (size_type _Block = _Mapsize(); 0 < _Block;) { // free storage for a block and destroy pointer

  00020	8b 77 08	 mov	 esi, DWORD PTR [edi+8]
  00023	85 f6		 test	 esi, esi
  00025	74 1a		 je	 SHORT $LN5@Tidy
$LL4@Tidy:

; 1480 :             if (_Map()[--_Block]) { // free block and destroy its pointer

  00027	8b 47 04	 mov	 eax, DWORD PTR [edi+4]
  0002a	4e		 dec	 esi
  0002b	8b 04 b0	 mov	 eax, DWORD PTR [eax+esi*4]
  0002e	85 c0		 test	 eax, eax
  00030	74 0b		 je	 SHORT $LN23@Tidy
; File C:\Program Files (x86)\Microsoft Visual Studio\2019\Community\VC\Tools\MSVC\14.29.30133\include\xmemory

; 255  :         ::operator delete(_Ptr, _Bytes);

  00032	6a 10		 push	 16			; 00000010H
  00034	50		 push	 eax
  00035	e8 00 00 00 00	 call	 ??3@YAXPAXI@Z		; operator delete
  0003a	83 c4 08	 add	 esp, 8
$LN23@Tidy:
; File C:\Program Files (x86)\Microsoft Visual Studio\2019\Community\VC\Tools\MSVC\14.29.30133\include\deque

; 1479 :         for (size_type _Block = _Mapsize(); 0 < _Block;) { // free storage for a block and destroy pointer

  0003d	85 f6		 test	 esi, esi
  0003f	75 e6		 jne	 SHORT $LL4@Tidy
$LN5@Tidy:

; 1481 :                 _Getal().deallocate(_Map()[_Block], _Block_size);
; 1482 :                 _Destroy_in_place(_Map()[_Block]);
; 1483 :             }
; 1484 :         }
; 1485 : 
; 1486 :         if (_Map() != _Mapptr()) {

  00041	8b 47 04	 mov	 eax, DWORD PTR [edi+4]
  00044	5e		 pop	 esi
  00045	85 c0		 test	 eax, eax
  00047	74 2a		 je	 SHORT $LN41@Tidy
; File C:\Program Files (x86)\Microsoft Visual Studio\2019\Community\VC\Tools\MSVC\14.29.30133\include\xmemory

; 797  :         _Deallocate<_New_alignof<_Ty>>(_Ptr, sizeof(_Ty) * _Count);

  00049	8b 4f 08	 mov	 ecx, DWORD PTR [edi+8]
  0004c	c1 e1 02	 shl	 ecx, 2

; 251  :         if (_Bytes >= _Big_allocation_threshold) { // boost the alignment of big allocations to help autovectorization

  0004f	81 f9 00 10 00
	00		 cmp	 ecx, 4096		; 00001000H
  00055	72 12		 jb	 SHORT $LN51@Tidy

; 150  :     const uintptr_t _Ptr_container   = _Ptr_user[-1];

  00057	8b 50 fc	 mov	 edx, DWORD PTR [eax-4]
  0005a	83 c1 23	 add	 ecx, 35			; 00000023H

; 151  : 
; 152  :     // If the following asserts, it likely means that we are performing
; 153  :     // an aligned delete on memory coming from an unaligned allocation.
; 154  :     _STL_ASSERT(_Ptr_user[-2] == _Big_allocation_sentinel, "invalid argument");
; 155  : 
; 156  :     // Extra paranoia on aligned allocation/deallocation; ensure _Ptr_container is
; 157  :     // in range [_Min_back_shift, _Non_user_size]
; 158  : #ifdef _DEBUG
; 159  :     constexpr uintptr_t _Min_back_shift = 2 * sizeof(void*);
; 160  : #else // ^^^ _DEBUG ^^^ // vvv !_DEBUG vvv
; 161  :     constexpr uintptr_t _Min_back_shift = sizeof(void*);
; 162  : #endif // _DEBUG
; 163  :     const uintptr_t _Back_shift = reinterpret_cast<uintptr_t>(_Ptr) - _Ptr_container;

  0005d	2b c2		 sub	 eax, edx

; 164  :     _STL_VERIFY(_Back_shift >= _Min_back_shift && _Back_shift <= _Non_user_size, "invalid argument");

  0005f	83 c0 fc	 add	 eax, -4			; fffffffcH
  00062	83 f8 1f	 cmp	 eax, 31			; 0000001fH
  00065	77 1c		 ja	 SHORT $LN48@Tidy

; 165  :     _Ptr = reinterpret_cast<void*>(_Ptr_container);

  00067	8b c2		 mov	 eax, edx
$LN51@Tidy:

; 255  :         ::operator delete(_Ptr, _Bytes);

  00069	51		 push	 ecx
  0006a	50		 push	 eax
  0006b	e8 00 00 00 00	 call	 ??3@YAXPAXI@Z		; operator delete
  00070	83 c4 08	 add	 esp, 8
$LN41@Tidy:
; File C:\Program Files (x86)\Microsoft Visual Studio\2019\Community\VC\Tools\MSVC\14.29.30133\include\deque

; 1490 :         _Mapsize() = 0;

  00073	c7 47 08 00 00
	00 00		 mov	 DWORD PTR [edi+8], 0

; 1491 :         _Map()     = _Mapptr();

  0007a	c7 47 04 00 00
	00 00		 mov	 DWORD PTR [edi+4], 0
  00081	5f		 pop	 edi

; 1492 :     }

  00082	c3		 ret	 0
$LN48@Tidy:
; File C:\Program Files (x86)\Microsoft Visual Studio\2019\Community\VC\Tools\MSVC\14.29.30133\include\xmemory

; 164  :     _STL_VERIFY(_Back_shift >= _Min_back_shift && _Back_shift <= _Non_user_size, "invalid argument");

  00083	ff 15 00 00 00
	00		 call	 DWORD PTR __imp___invalid_parameter_noinfo_noreturn
$LN62@Tidy:
  00089	cc		 int	 3
?_Tidy@?$deque@VCSelectedSubGraphData@@V?$allocator@VCSelectedSubGraphData@@@std@@@std@@AAEXXZ ENDP ; std::deque<CSelectedSubGraphData,std::allocator<CSelectedSubGraphData> >::_Tidy
_TEXT	ENDS
; Function compile flags: /Ogtp
;	COMDAT ??_GCMainBlockTool@@UAEPAXI@Z
_TEXT	SEGMENT
___flags$ = 8						; size = 4
??_GCMainBlockTool@@UAEPAXI@Z PROC			; CMainBlockTool::`scalar deleting destructor', COMDAT
; _this$ = ecx
  00000	55		 push	 ebp
  00001	8b ec		 mov	 ebp, esp
  00003	f6 45 08 01	 test	 BYTE PTR ___flags$[ebp], 1
  00007	56		 push	 esi
  00008	8b f1		 mov	 esi, ecx
  0000a	c7 06 00 00 00
	00		 mov	 DWORD PTR [esi], OFFSET ??_7CMainBlockTool@@6B@
  00010	74 0b		 je	 SHORT $LN4@scalar
  00012	6a 04		 push	 4
  00014	56		 push	 esi
  00015	e8 00 00 00 00	 call	 ??3@YAXPAXI@Z		; operator delete
  0001a	83 c4 08	 add	 esp, 8
$LN4@scalar:
  0001d	8b c6		 mov	 eax, esi
  0001f	5e		 pop	 esi
  00020	5d		 pop	 ebp
  00021	c2 04 00	 ret	 4
??_GCMainBlockTool@@UAEPAXI@Z ENDP			; CMainBlockTool::`scalar deleting destructor'
_TEXT	ENDS
; Function compile flags: /Ogtp
; File D:\git\src\IBK\IBK_DRFN\ProjSrc\SrcChartEx\ChartOCX\Include_Chart\Dll_Load\MainBlockTool.h
;	COMDAT ??1CMainBlockTool@@UAE@XZ
_TEXT	SEGMENT
??1CMainBlockTool@@UAE@XZ PROC				; CMainBlockTool::~CMainBlockTool, COMDAT
; _this$ = ecx

; 22   : 	virtual ~CMainBlockTool()	{};

  00000	c7 01 00 00 00
	00		 mov	 DWORD PTR [ecx], OFFSET ??_7CMainBlockTool@@6B@
  00006	c3		 ret	 0
??1CMainBlockTool@@UAE@XZ ENDP				; CMainBlockTool::~CMainBlockTool
_TEXT	ENDS
; Function compile flags: /Ogtp
; File D:\git\src\IBK\IBK_DRFN\ProjSrc\SrcChartEx\ChartOCX\ChartObject\MainBlockToolImp.cpp
;	COMDAT ?__empty_global_delete@@YAXPAXI@Z
_TEXT	SEGMENT
___formal$ = 8						; size = 4
___formal$ = 12						; size = 4
?__empty_global_delete@@YAXPAXI@Z PROC			; __empty_global_delete, COMDAT

  00000	c2 00 00	 ret	 0
?__empty_global_delete@@YAXPAXI@Z ENDP			; __empty_global_delete
_TEXT	ENDS
; Function compile flags: /Ogtp
; File D:\git\src\IBK\IBK_DRFN\ProjSrc\SrcChartEx\ChartOCX\ChartObject\MainBlockToolImp.cpp
;	COMDAT ?__empty_global_delete@@YAXPAX@Z
_TEXT	SEGMENT
___formal$ = 8						; size = 4
?__empty_global_delete@@YAXPAX@Z PROC			; __empty_global_delete, COMDAT

  00000	c2 00 00	 ret	 0
?__empty_global_delete@@YAXPAX@Z ENDP			; __empty_global_delete
_TEXT	ENDS
END
