; Listing generated by Microsoft (R) Optimizing Compiler Version 19.29.30145.0 

	TITLE	D:\git\src\IBK\IBK_DRFN\#DRfn-CS\_Obj\ChartObject\PacketRQ.obj
	.686P
	.XMM
	include listing.inc
	.model	flat

INCLUDELIB MSVCRT
INCLUDELIB OLDNAMES

CONST	SEGMENT
?_Fake_alloc@std@@3U_Fake_allocator@1@B	ORG $+1		; std::_Fake_alloc
CONST	ENDS
PUBLIC	?__empty_global_delete@@YAXPAX@Z		; __empty_global_delete
PUBLIC	?__empty_global_delete@@YAXPAXI@Z		; __empty_global_delete
PUBLIC	___local_stdio_printf_options
PUBLIC	_sprintf
PUBLIC	??0exception@std@@QAE@ABV01@@Z			; std::exception::exception
PUBLIC	??1exception@std@@UAE@XZ			; std::exception::~exception
PUBLIC	?what@exception@std@@UBEPBDXZ			; std::exception::what
PUBLIC	??_Gexception@std@@UAEPAXI@Z			; std::exception::`scalar deleting destructor'
PUBLIC	??0bad_alloc@std@@QAE@ABV01@@Z			; std::bad_alloc::bad_alloc
PUBLIC	??_Gbad_alloc@std@@UAEPAXI@Z			; std::bad_alloc::`scalar deleting destructor'
PUBLIC	??0bad_array_new_length@std@@QAE@XZ		; std::bad_array_new_length::bad_array_new_length
PUBLIC	??1bad_array_new_length@std@@UAE@XZ		; std::bad_array_new_length::~bad_array_new_length
PUBLIC	??0bad_array_new_length@std@@QAE@ABV01@@Z	; std::bad_array_new_length::bad_array_new_length
PUBLIC	??_Gbad_array_new_length@std@@UAEPAXI@Z		; std::bad_array_new_length::`scalar deleting destructor'
PUBLIC	?_Throw_bad_array_new_length@std@@YAXXZ		; std::_Throw_bad_array_new_length
PUBLIC	??0CPacketRQ@@QAE@XZ				; CPacketRQ::CPacketRQ
PUBLIC	??0CPacketRQ@@QAE@PBD0ABI@Z			; CPacketRQ::CPacketRQ
PUBLIC	??0CPacketRQ@@QAE@PBD00@Z			; CPacketRQ::CPacketRQ
PUBLIC	??1CPacketRQ@@UAE@XZ				; CPacketRQ::~CPacketRQ
PUBLIC	?SetRQ@CPacketRQ@@QAEXPBD@Z			; CPacketRQ::SetRQ
PUBLIC	?SetItemCode@CPacketRQ@@QAEXPBD0@Z		; CPacketRQ::SetItemCode
PUBLIC	?GetItemCode@CPacketRQ@@QAEXAAPBD0@Z		; CPacketRQ::GetItemCode
PUBLIC	?AddRQGraph@CPacketRQ@@QAEXPAVCGraphImp@@@Z	; CPacketRQ::AddRQGraph
PUBLIC	?RemoveRQGraph@CPacketRQ@@QAEXPAVCGraphImp@@@Z	; CPacketRQ::RemoveRQGraph
PUBLIC	?IsEmptyRQGraph@CPacketRQ@@QAEHXZ		; CPacketRQ::IsEmptyRQGraph
PUBLIC	?IsSameItemCode@CPacketRQ@@QAEHPBD@Z		; CPacketRQ::IsSameItemCode
PUBLIC	?CreatePacketList@CPacketRQ@@QAEXV?$CStringT@DV?$StrTraitMFC_DLL@DV?$ChTraitsCRT@D@ATL@@@@@ATL@@W4REALTYPE@CPacketType@@H_NHABV23@NPAUIChartCtrl@@@Z ; CPacketRQ::CreatePacketList
PUBLIC	?SetItemRQ@CPacketRQ@@QAEXPBD@Z			; CPacketRQ::SetItemRQ
PUBLIC	?SetItemCode@CPacketRQ@@QAEXPBD@Z		; CPacketRQ::SetItemCode
PUBLIC	?SetItemName@CPacketRQ@@QAEXPBD@Z		; CPacketRQ::SetItemName
PUBLIC	?SetPacketName@CPacketRQ@@QAEXPBD@Z		; CPacketRQ::SetPacketName
PUBLIC	?Change@CPacketRQ@@QAEXAAV1@@Z			; CPacketRQ::Change
PUBLIC	??1?$list@PAVCGraphImp@@V?$allocator@PAVCGraphImp@@@std@@@std@@QAE@XZ ; std::list<CGraphImp *,std::allocator<CGraphImp *> >::~list<CGraphImp *,std::allocator<CGraphImp *> >
PUBLIC	??4?$list@PAVCGraphImp@@V?$allocator@PAVCGraphImp@@@std@@@std@@QAEAAV01@ABV01@@Z ; std::list<CGraphImp *,std::allocator<CGraphImp *> >::operator=
PUBLIC	??_GCPacketRQ@@UAEPAXI@Z			; CPacketRQ::`scalar deleting destructor'
PUBLIC	??_GCPacketList@@UAEPAXI@Z			; CPacketList::`scalar deleting destructor'
PUBLIC	??1?$_Alloc_construct_ptr@V?$allocator@U?$_List_node@PAVCGraphImp@@PAX@std@@@std@@@std@@QAE@XZ ; std::_Alloc_construct_ptr<std::allocator<std::_List_node<CGraphImp *,void *> > >::~_Alloc_construct_ptr<std::allocator<std::_List_node<CGraphImp *,void *> > >
PUBLIC	??1?$_List_node_insert_op2@V?$allocator@U?$_List_node@PAVCGraphImp@@PAX@std@@@std@@@std@@QAE@XZ ; std::_List_node_insert_op2<std::allocator<std::_List_node<CGraphImp *,void *> > >::~_List_node_insert_op2<std::allocator<std::_List_node<CGraphImp *,void *> > >
PUBLIC	??$_Append_range_unchecked@V?$_List_unchecked_const_iterator@V?$_List_val@U?$_List_simple_types@PAVCGraphImp@@@std@@@std@@U_Iterator_base0@2@@std@@V12@@?$_List_node_insert_op2@V?$allocator@U?$_List_node@PAVCGraphImp@@PAX@std@@@std@@@std@@QAEXV?$_List_unchecked_const_iterator@V?$_List_val@U?$_List_simple_types@PAVCGraphImp@@@std@@@std@@U_Iterator_base0@2@@1@V21@@Z ; std::_List_node_insert_op2<std::allocator<std::_List_node<CGraphImp *,void *> > >::_Append_range_unchecked<std::_List_unchecked_const_iterator<std::_List_val<std::_List_simple_types<CGraphImp *> >,std::_Iterator_base0>,std::_List_unchecked_const_iterator<std::_List_val<std::_List_simple_types<CGraphImp *> >,std::_Iterator_base0> >
PUBLIC	??$_Allocate_manually_vector_aligned@U_Default_allocate_traits@std@@@std@@YAPAXI@Z ; std::_Allocate_manually_vector_aligned<std::_Default_allocate_traits>
PUBLIC	?_OptionsStorage@?1??__local_stdio_printf_options@@9@4_KA ; `__local_stdio_printf_options'::`2'::_OptionsStorage
PUBLIC	??_7exception@std@@6B@				; std::exception::`vftable'
PUBLIC	??_C@_0BC@EOODALEL@Unknown?5exception@		; `string'
PUBLIC	??_7bad_alloc@std@@6B@				; std::bad_alloc::`vftable'
PUBLIC	??_7bad_array_new_length@std@@6B@		; std::bad_array_new_length::`vftable'
PUBLIC	??_C@_0BF@KINCDENJ@bad?5array?5new?5length@	; `string'
PUBLIC	__TI3?AVbad_array_new_length@std@@
PUBLIC	__CTA3?AVbad_array_new_length@std@@
PUBLIC	??_R0?AVbad_array_new_length@std@@@8		; std::bad_array_new_length `RTTI Type Descriptor'
PUBLIC	__CT??_R0?AVbad_array_new_length@std@@@8??0bad_array_new_length@std@@QAE@ABV01@@Z12
PUBLIC	??_R0?AVbad_alloc@std@@@8			; std::bad_alloc `RTTI Type Descriptor'
PUBLIC	__CT??_R0?AVbad_alloc@std@@@8??0bad_alloc@std@@QAE@ABV01@@Z12
PUBLIC	??_R0?AVexception@std@@@8			; std::exception `RTTI Type Descriptor'
PUBLIC	__CT??_R0?AVexception@std@@@8??0exception@std@@QAE@ABV01@@Z12
PUBLIC	??_7CPacketRQ@@6B@				; CPacketRQ::`vftable'
PUBLIC	??_SCPacketList@@6B@				; CPacketList::`local vftable'
PUBLIC	??_C@_07MGCPDNLD@DEFAULT@			; `string'
PUBLIC	??_C@_05LFHGFJK@?$CFs_?$CFd@			; `string'
PUBLIC	??_C@_0O@NKNMEGII@list?5too?5long@		; `string'
PUBLIC	??_R4exception@std@@6B@				; std::exception::`RTTI Complete Object Locator'
PUBLIC	??_R3exception@std@@8				; std::exception::`RTTI Class Hierarchy Descriptor'
PUBLIC	??_R2exception@std@@8				; std::exception::`RTTI Base Class Array'
PUBLIC	??_R1A@?0A@EA@exception@std@@8			; std::exception::`RTTI Base Class Descriptor at (0,-1,0,64)'
PUBLIC	??_R4bad_alloc@std@@6B@				; std::bad_alloc::`RTTI Complete Object Locator'
PUBLIC	??_R3bad_alloc@std@@8				; std::bad_alloc::`RTTI Class Hierarchy Descriptor'
PUBLIC	??_R2bad_alloc@std@@8				; std::bad_alloc::`RTTI Base Class Array'
PUBLIC	??_R1A@?0A@EA@bad_alloc@std@@8			; std::bad_alloc::`RTTI Base Class Descriptor at (0,-1,0,64)'
PUBLIC	??_R4bad_array_new_length@std@@6B@		; std::bad_array_new_length::`RTTI Complete Object Locator'
PUBLIC	??_R3bad_array_new_length@std@@8		; std::bad_array_new_length::`RTTI Class Hierarchy Descriptor'
PUBLIC	??_R2bad_array_new_length@std@@8		; std::bad_array_new_length::`RTTI Base Class Array'
PUBLIC	??_R1A@?0A@EA@bad_array_new_length@std@@8	; std::bad_array_new_length::`RTTI Base Class Descriptor at (0,-1,0,64)'
PUBLIC	??_R4CPacketList@@6B@				; CPacketList::`RTTI Complete Object Locator'
PUBLIC	??_R0?AVCPacketList@@@8				; CPacketList `RTTI Type Descriptor'
PUBLIC	??_R3CPacketList@@8				; CPacketList::`RTTI Class Hierarchy Descriptor'
PUBLIC	??_R2CPacketList@@8				; CPacketList::`RTTI Base Class Array'
PUBLIC	??_R1A@?0A@EA@CPacketList@@8			; CPacketList::`RTTI Base Class Descriptor at (0,-1,0,64)'
PUBLIC	??_R4CPacketRQ@@6B@				; CPacketRQ::`RTTI Complete Object Locator'
PUBLIC	??_R0?AVCPacketRQ@@@8				; CPacketRQ `RTTI Type Descriptor'
PUBLIC	??_R3CPacketRQ@@8				; CPacketRQ::`RTTI Class Hierarchy Descriptor'
PUBLIC	??_R2CPacketRQ@@8				; CPacketRQ::`RTTI Base Class Array'
PUBLIC	??_R1A@?0A@EA@CPacketRQ@@8			; CPacketRQ::`RTTI Base Class Descriptor at (0,-1,0,64)'
EXTRN	??2@YAPAXI@Z:PROC				; operator new
EXTRN	??3@YAXPAXI@Z:PROC				; operator delete
EXTRN	??_U@YAPAXI@Z:PROC				; operator new[]
EXTRN	??_V@YAXPAX@Z:PROC				; operator delete[]
EXTRN	__imp___invalid_parameter_noinfo_noreturn:PROC
EXTRN	__imp__strdup:PROC
EXTRN	__imp__lstrcpyA@8:PROC
EXTRN	__imp__lstrlenA@4:PROC
EXTRN	__imp____stdio_common_vsprintf:PROC
EXTRN	__imp__free:PROC
EXTRN	__imp_??0?$CStringT@DV?$StrTraitMFC_DLL@DV?$ChTraitsCRT@D@ATL@@@@@ATL@@QAE@ABV01@@Z:PROC
EXTRN	__imp_??1?$CStringT@DV?$StrTraitMFC_DLL@DV?$ChTraitsCRT@D@ATL@@@@@ATL@@QAE@XZ:PROC
EXTRN	___std_exception_copy:PROC
EXTRN	___std_exception_destroy:PROC
EXTRN	??_Eexception@std@@UAEPAXI@Z:PROC		; std::exception::`vector deleting destructor'
EXTRN	??_Ebad_alloc@std@@UAEPAXI@Z:PROC		; std::bad_alloc::`vector deleting destructor'
EXTRN	??_Ebad_array_new_length@std@@UAEPAXI@Z:PROC	; std::bad_array_new_length::`vector deleting destructor'
EXTRN	?_Xlength_error@std@@YAXPBD@Z:PROC		; std::_Xlength_error
EXTRN	??_ECPacketRQ@@UAEPAXI@Z:PROC			; CPacketRQ::`vector deleting destructor'
EXTRN	__imp_??0CPacketList@@QAE@V?$CStringT@DV?$StrTraitMFC_DLL@DV?$ChTraitsCRT@D@ATL@@@@@ATL@@W4REALTYPE@CPacketType@@PAUIChartCtrl@@@Z:PROC
EXTRN	__imp_??1CPacketList@@UAE@XZ:PROC
EXTRN	__imp_?SetVersion@CPacketList@@QAEXN@Z:PROC
EXTRN	__imp_?SetPacketLengthCount@CPacketList@@QAEXH@Z:PROC
EXTRN	__imp_?SetUseRealData@CPacketList@@QAEX_N@Z:PROC
EXTRN	__imp_?SetHoldingPacketSize@CPacketList@@QAEXH@Z:PROC
EXTRN	__imp_?SetBasePacketName@CPacketList@@QAEXABV?$CStringT@DV?$StrTraitMFC_DLL@DV?$ChTraitsCRT@D@ATL@@@@@ATL@@@Z:PROC
EXTRN	__imp_?SetRQ@CPacketList@@QAEXPBD@Z:PROC
EXTRN	??_ECPacketList@@UAEPAXI@Z:PROC			; CPacketList::`vector deleting destructor'
EXTRN	?ChangeSubGraphTitle@CGraphImp@@QAEXPBD0@Z:PROC	; CGraphImp::ChangeSubGraphTitle
EXTRN	@__security_check_cookie@4:PROC
EXTRN	__CxxThrowException@8:PROC
EXTRN	___CxxFrameHandler3:PROC
EXTRN	_memset:PROC
EXTRN	??_7type_info@@6B@:QWORD			; type_info::`vftable'
EXTRN	?g_iMetaTable@@3VIMetaTable@@A:BYTE		; g_iMetaTable
EXTRN	___security_cookie:DWORD
EXTRN	__fltused:DWORD
;	COMDAT ?_OptionsStorage@?1??__local_stdio_printf_options@@9@4_KA
_BSS	SEGMENT
?_OptionsStorage@?1??__local_stdio_printf_options@@9@4_KA DQ 01H DUP (?) ; `__local_stdio_printf_options'::`2'::_OptionsStorage
_BSS	ENDS
;	COMDAT ??_R1A@?0A@EA@CPacketRQ@@8
rdata$r	SEGMENT
??_R1A@?0A@EA@CPacketRQ@@8 DD FLAT:??_R0?AVCPacketRQ@@@8 ; CPacketRQ::`RTTI Base Class Descriptor at (0,-1,0,64)'
	DD	00H
	DD	00H
	DD	0ffffffffH
	DD	00H
	DD	040H
	DD	FLAT:??_R3CPacketRQ@@8
rdata$r	ENDS
;	COMDAT ??_R2CPacketRQ@@8
rdata$r	SEGMENT
??_R2CPacketRQ@@8 DD FLAT:??_R1A@?0A@EA@CPacketRQ@@8	; CPacketRQ::`RTTI Base Class Array'
rdata$r	ENDS
;	COMDAT ??_R3CPacketRQ@@8
rdata$r	SEGMENT
??_R3CPacketRQ@@8 DD 00H				; CPacketRQ::`RTTI Class Hierarchy Descriptor'
	DD	00H
	DD	01H
	DD	FLAT:??_R2CPacketRQ@@8
rdata$r	ENDS
;	COMDAT ??_R0?AVCPacketRQ@@@8
data$rs	SEGMENT
??_R0?AVCPacketRQ@@@8 DD FLAT:??_7type_info@@6B@	; CPacketRQ `RTTI Type Descriptor'
	DD	00H
	DB	'.?AVCPacketRQ@@', 00H
data$rs	ENDS
;	COMDAT ??_R4CPacketRQ@@6B@
rdata$r	SEGMENT
??_R4CPacketRQ@@6B@ DD 00H				; CPacketRQ::`RTTI Complete Object Locator'
	DD	00H
	DD	00H
	DD	FLAT:??_R0?AVCPacketRQ@@@8
	DD	FLAT:??_R3CPacketRQ@@8
rdata$r	ENDS
;	COMDAT ??_R1A@?0A@EA@CPacketList@@8
rdata$r	SEGMENT
??_R1A@?0A@EA@CPacketList@@8 DD FLAT:??_R0?AVCPacketList@@@8 ; CPacketList::`RTTI Base Class Descriptor at (0,-1,0,64)'
	DD	00H
	DD	00H
	DD	0ffffffffH
	DD	00H
	DD	040H
	DD	FLAT:??_R3CPacketList@@8
rdata$r	ENDS
;	COMDAT ??_R2CPacketList@@8
rdata$r	SEGMENT
??_R2CPacketList@@8 DD FLAT:??_R1A@?0A@EA@CPacketList@@8 ; CPacketList::`RTTI Base Class Array'
rdata$r	ENDS
;	COMDAT ??_R3CPacketList@@8
rdata$r	SEGMENT
??_R3CPacketList@@8 DD 00H				; CPacketList::`RTTI Class Hierarchy Descriptor'
	DD	00H
	DD	01H
	DD	FLAT:??_R2CPacketList@@8
rdata$r	ENDS
;	COMDAT ??_R0?AVCPacketList@@@8
data$rs	SEGMENT
??_R0?AVCPacketList@@@8 DD FLAT:??_7type_info@@6B@	; CPacketList `RTTI Type Descriptor'
	DD	00H
	DB	'.?AVCPacketList@@', 00H
data$rs	ENDS
;	COMDAT ??_R4CPacketList@@6B@
rdata$r	SEGMENT
??_R4CPacketList@@6B@ DD 00H				; CPacketList::`RTTI Complete Object Locator'
	DD	00H
	DD	00H
	DD	FLAT:??_R0?AVCPacketList@@@8
	DD	FLAT:??_R3CPacketList@@8
rdata$r	ENDS
;	COMDAT ??_R1A@?0A@EA@bad_array_new_length@std@@8
rdata$r	SEGMENT
??_R1A@?0A@EA@bad_array_new_length@std@@8 DD FLAT:??_R0?AVbad_array_new_length@std@@@8 ; std::bad_array_new_length::`RTTI Base Class Descriptor at (0,-1,0,64)'
	DD	02H
	DD	00H
	DD	0ffffffffH
	DD	00H
	DD	040H
	DD	FLAT:??_R3bad_array_new_length@std@@8
rdata$r	ENDS
;	COMDAT ??_R2bad_array_new_length@std@@8
rdata$r	SEGMENT
??_R2bad_array_new_length@std@@8 DD FLAT:??_R1A@?0A@EA@bad_array_new_length@std@@8 ; std::bad_array_new_length::`RTTI Base Class Array'
	DD	FLAT:??_R1A@?0A@EA@bad_alloc@std@@8
	DD	FLAT:??_R1A@?0A@EA@exception@std@@8
rdata$r	ENDS
;	COMDAT ??_R3bad_array_new_length@std@@8
rdata$r	SEGMENT
??_R3bad_array_new_length@std@@8 DD 00H			; std::bad_array_new_length::`RTTI Class Hierarchy Descriptor'
	DD	00H
	DD	03H
	DD	FLAT:??_R2bad_array_new_length@std@@8
rdata$r	ENDS
;	COMDAT ??_R4bad_array_new_length@std@@6B@
rdata$r	SEGMENT
??_R4bad_array_new_length@std@@6B@ DD 00H		; std::bad_array_new_length::`RTTI Complete Object Locator'
	DD	00H
	DD	00H
	DD	FLAT:??_R0?AVbad_array_new_length@std@@@8
	DD	FLAT:??_R3bad_array_new_length@std@@8
rdata$r	ENDS
;	COMDAT ??_R1A@?0A@EA@bad_alloc@std@@8
rdata$r	SEGMENT
??_R1A@?0A@EA@bad_alloc@std@@8 DD FLAT:??_R0?AVbad_alloc@std@@@8 ; std::bad_alloc::`RTTI Base Class Descriptor at (0,-1,0,64)'
	DD	01H
	DD	00H
	DD	0ffffffffH
	DD	00H
	DD	040H
	DD	FLAT:??_R3bad_alloc@std@@8
rdata$r	ENDS
;	COMDAT ??_R2bad_alloc@std@@8
rdata$r	SEGMENT
??_R2bad_alloc@std@@8 DD FLAT:??_R1A@?0A@EA@bad_alloc@std@@8 ; std::bad_alloc::`RTTI Base Class Array'
	DD	FLAT:??_R1A@?0A@EA@exception@std@@8
rdata$r	ENDS
;	COMDAT ??_R3bad_alloc@std@@8
rdata$r	SEGMENT
??_R3bad_alloc@std@@8 DD 00H				; std::bad_alloc::`RTTI Class Hierarchy Descriptor'
	DD	00H
	DD	02H
	DD	FLAT:??_R2bad_alloc@std@@8
rdata$r	ENDS
;	COMDAT ??_R4bad_alloc@std@@6B@
rdata$r	SEGMENT
??_R4bad_alloc@std@@6B@ DD 00H				; std::bad_alloc::`RTTI Complete Object Locator'
	DD	00H
	DD	00H
	DD	FLAT:??_R0?AVbad_alloc@std@@@8
	DD	FLAT:??_R3bad_alloc@std@@8
rdata$r	ENDS
;	COMDAT ??_R1A@?0A@EA@exception@std@@8
rdata$r	SEGMENT
??_R1A@?0A@EA@exception@std@@8 DD FLAT:??_R0?AVexception@std@@@8 ; std::exception::`RTTI Base Class Descriptor at (0,-1,0,64)'
	DD	00H
	DD	00H
	DD	0ffffffffH
	DD	00H
	DD	040H
	DD	FLAT:??_R3exception@std@@8
rdata$r	ENDS
;	COMDAT ??_R2exception@std@@8
rdata$r	SEGMENT
??_R2exception@std@@8 DD FLAT:??_R1A@?0A@EA@exception@std@@8 ; std::exception::`RTTI Base Class Array'
rdata$r	ENDS
;	COMDAT ??_R3exception@std@@8
rdata$r	SEGMENT
??_R3exception@std@@8 DD 00H				; std::exception::`RTTI Class Hierarchy Descriptor'
	DD	00H
	DD	01H
	DD	FLAT:??_R2exception@std@@8
rdata$r	ENDS
;	COMDAT ??_R4exception@std@@6B@
rdata$r	SEGMENT
??_R4exception@std@@6B@ DD 00H				; std::exception::`RTTI Complete Object Locator'
	DD	00H
	DD	00H
	DD	FLAT:??_R0?AVexception@std@@@8
	DD	FLAT:??_R3exception@std@@8
rdata$r	ENDS
;	COMDAT ??_C@_0O@NKNMEGII@list?5too?5long@
CONST	SEGMENT
??_C@_0O@NKNMEGII@list?5too?5long@ DB 'list too long', 00H ; `string'
CONST	ENDS
;	COMDAT ??_C@_05LFHGFJK@?$CFs_?$CFd@
CONST	SEGMENT
??_C@_05LFHGFJK@?$CFs_?$CFd@ DB '%s_%d', 00H		; `string'
CONST	ENDS
;	COMDAT ??_C@_07MGCPDNLD@DEFAULT@
CONST	SEGMENT
??_C@_07MGCPDNLD@DEFAULT@ DB 'DEFAULT', 00H		; `string'
CONST	ENDS
;	COMDAT ??_SCPacketList@@6B@
CONST	SEGMENT
??_SCPacketList@@6B@ DD FLAT:??_R4CPacketList@@6B@	; CPacketList::`local vftable'
	DD	FLAT:??_ECPacketList@@UAEPAXI@Z
CONST	ENDS
;	COMDAT ??_7CPacketRQ@@6B@
CONST	SEGMENT
??_7CPacketRQ@@6B@ DD FLAT:??_R4CPacketRQ@@6B@		; CPacketRQ::`vftable'
	DD	FLAT:??_ECPacketRQ@@UAEPAXI@Z
CONST	ENDS
;	COMDAT __CT??_R0?AVexception@std@@@8??0exception@std@@QAE@ABV01@@Z12
xdata$x	SEGMENT
__CT??_R0?AVexception@std@@@8??0exception@std@@QAE@ABV01@@Z12 DD 00H
	DD	FLAT:??_R0?AVexception@std@@@8
	DD	00H
	DD	0ffffffffH
	ORG $+4
	DD	0cH
	DD	FLAT:??0exception@std@@QAE@ABV01@@Z
xdata$x	ENDS
;	COMDAT ??_R0?AVexception@std@@@8
data$r	SEGMENT
??_R0?AVexception@std@@@8 DD FLAT:??_7type_info@@6B@	; std::exception `RTTI Type Descriptor'
	DD	00H
	DB	'.?AVexception@std@@', 00H
data$r	ENDS
;	COMDAT __CT??_R0?AVbad_alloc@std@@@8??0bad_alloc@std@@QAE@ABV01@@Z12
xdata$x	SEGMENT
__CT??_R0?AVbad_alloc@std@@@8??0bad_alloc@std@@QAE@ABV01@@Z12 DD 010H
	DD	FLAT:??_R0?AVbad_alloc@std@@@8
	DD	00H
	DD	0ffffffffH
	ORG $+4
	DD	0cH
	DD	FLAT:??0bad_alloc@std@@QAE@ABV01@@Z
xdata$x	ENDS
;	COMDAT ??_R0?AVbad_alloc@std@@@8
data$r	SEGMENT
??_R0?AVbad_alloc@std@@@8 DD FLAT:??_7type_info@@6B@	; std::bad_alloc `RTTI Type Descriptor'
	DD	00H
	DB	'.?AVbad_alloc@std@@', 00H
data$r	ENDS
;	COMDAT __CT??_R0?AVbad_array_new_length@std@@@8??0bad_array_new_length@std@@QAE@ABV01@@Z12
xdata$x	SEGMENT
__CT??_R0?AVbad_array_new_length@std@@@8??0bad_array_new_length@std@@QAE@ABV01@@Z12 DD 00H
	DD	FLAT:??_R0?AVbad_array_new_length@std@@@8
	DD	00H
	DD	0ffffffffH
	ORG $+4
	DD	0cH
	DD	FLAT:??0bad_array_new_length@std@@QAE@ABV01@@Z
xdata$x	ENDS
;	COMDAT ??_R0?AVbad_array_new_length@std@@@8
data$r	SEGMENT
??_R0?AVbad_array_new_length@std@@@8 DD FLAT:??_7type_info@@6B@ ; std::bad_array_new_length `RTTI Type Descriptor'
	DD	00H
	DB	'.?AVbad_array_new_length@std@@', 00H
data$r	ENDS
;	COMDAT __CTA3?AVbad_array_new_length@std@@
xdata$x	SEGMENT
__CTA3?AVbad_array_new_length@std@@ DD 03H
	DD	FLAT:__CT??_R0?AVbad_array_new_length@std@@@8??0bad_array_new_length@std@@QAE@ABV01@@Z12
	DD	FLAT:__CT??_R0?AVbad_alloc@std@@@8??0bad_alloc@std@@QAE@ABV01@@Z12
	DD	FLAT:__CT??_R0?AVexception@std@@@8??0exception@std@@QAE@ABV01@@Z12
xdata$x	ENDS
;	COMDAT __TI3?AVbad_array_new_length@std@@
xdata$x	SEGMENT
__TI3?AVbad_array_new_length@std@@ DD 00H
	DD	FLAT:??1bad_array_new_length@std@@UAE@XZ
	DD	00H
	DD	FLAT:__CTA3?AVbad_array_new_length@std@@
xdata$x	ENDS
;	COMDAT ??_C@_0BF@KINCDENJ@bad?5array?5new?5length@
CONST	SEGMENT
??_C@_0BF@KINCDENJ@bad?5array?5new?5length@ DB 'bad array new length', 00H ; `string'
CONST	ENDS
;	COMDAT ??_7bad_array_new_length@std@@6B@
CONST	SEGMENT
??_7bad_array_new_length@std@@6B@ DD FLAT:??_R4bad_array_new_length@std@@6B@ ; std::bad_array_new_length::`vftable'
	DD	FLAT:??_Ebad_array_new_length@std@@UAEPAXI@Z
	DD	FLAT:?what@exception@std@@UBEPBDXZ
CONST	ENDS
;	COMDAT ??_7bad_alloc@std@@6B@
CONST	SEGMENT
??_7bad_alloc@std@@6B@ DD FLAT:??_R4bad_alloc@std@@6B@	; std::bad_alloc::`vftable'
	DD	FLAT:??_Ebad_alloc@std@@UAEPAXI@Z
	DD	FLAT:?what@exception@std@@UBEPBDXZ
CONST	ENDS
;	COMDAT ??_C@_0BC@EOODALEL@Unknown?5exception@
CONST	SEGMENT
??_C@_0BC@EOODALEL@Unknown?5exception@ DB 'Unknown exception', 00H ; `string'
CONST	ENDS
;	COMDAT ??_7exception@std@@6B@
CONST	SEGMENT
??_7exception@std@@6B@ DD FLAT:??_R4exception@std@@6B@	; std::exception::`vftable'
	DD	FLAT:??_Eexception@std@@UAEPAXI@Z
	DD	FLAT:?what@exception@std@@UBEPBDXZ
CONST	ENDS
;	COMDAT xdata$x
xdata$x	SEGMENT
__unwindtable$??$_Assign_cast@AAPAVCGraphImp@@V?$_List_unchecked_const_iterator@V?$_List_val@U?$_List_simple_types@PAVCGraphImp@@@std@@@std@@U_Iterator_base0@2@@std@@@?$list@PAVCGraphImp@@V?$allocator@PAVCGraphImp@@@std@@@std@@AAEXV?$_List_unchecked_const_iterator@V?$_List_val@U?$_List_simple_types@PAVCGraphImp@@@std@@@std@@U_Iterator_base0@2@@1@V21@@Z DD 0ffffffffH
	DD	FLAT:__unwindfunclet$??$_Assign_cast@AAPAVCGraphImp@@V?$_List_unchecked_const_iterator@V?$_List_val@U?$_List_simple_types@PAVCGraphImp@@@std@@@std@@U_Iterator_base0@2@@std@@@?$list@PAVCGraphImp@@V?$allocator@PAVCGraphImp@@@std@@@std@@AAEXV?$_List_unchecked_const_iterator@V?$_List_val@U?$_List_simple_types@PAVCGraphImp@@@std@@@std@@U_Iterator_base0@2@@1@V21@@Z$0
__ehfuncinfo$??$_Assign_cast@AAPAVCGraphImp@@V?$_List_unchecked_const_iterator@V?$_List_val@U?$_List_simple_types@PAVCGraphImp@@@std@@@std@@U_Iterator_base0@2@@std@@@?$list@PAVCGraphImp@@V?$allocator@PAVCGraphImp@@@std@@@std@@AAEXV?$_List_unchecked_const_iterator@V?$_List_val@U?$_List_simple_types@PAVCGraphImp@@@std@@@std@@U_Iterator_base0@2@@1@V21@@Z DD 019930522H
	DD	01H
	DD	FLAT:__unwindtable$??$_Assign_cast@AAPAVCGraphImp@@V?$_List_unchecked_const_iterator@V?$_List_val@U?$_List_simple_types@PAVCGraphImp@@@std@@@std@@U_Iterator_base0@2@@std@@@?$list@PAVCGraphImp@@V?$allocator@PAVCGraphImp@@@std@@@std@@AAEXV?$_List_unchecked_const_iterator@V?$_List_val@U?$_List_simple_types@PAVCGraphImp@@@std@@@std@@U_Iterator_base0@2@@1@V21@@Z
	DD	2 DUP(00H)
	DD	2 DUP(00H)
	DD	00H
	DD	01H
xdata$x	ENDS
;	COMDAT xdata$x
xdata$x	SEGMENT
__unwindtable$??$_Attach_head@U?$_List_simple_types@PAVCGraphImp@@@std@@@?$_List_node_insert_op2@V?$allocator@U?$_List_node@PAVCGraphImp@@PAX@std@@@std@@@std@@QAEXAAV?$_List_val@U?$_List_simple_types@PAVCGraphImp@@@std@@@1@@Z DD 0ffffffffH
	DD	FLAT:__unwindfunclet$??$_Attach_head@U?$_List_simple_types@PAVCGraphImp@@@std@@@?$_List_node_insert_op2@V?$allocator@U?$_List_node@PAVCGraphImp@@PAX@std@@@std@@@std@@QAEXAAV?$_List_val@U?$_List_simple_types@PAVCGraphImp@@@std@@@1@@Z$0
__ehfuncinfo$??$_Attach_head@U?$_List_simple_types@PAVCGraphImp@@@std@@@?$_List_node_insert_op2@V?$allocator@U?$_List_node@PAVCGraphImp@@PAX@std@@@std@@@std@@QAEXAAV?$_List_val@U?$_List_simple_types@PAVCGraphImp@@@std@@@1@@Z DD 019930522H
	DD	01H
	DD	FLAT:__unwindtable$??$_Attach_head@U?$_List_simple_types@PAVCGraphImp@@@std@@@?$_List_node_insert_op2@V?$allocator@U?$_List_node@PAVCGraphImp@@PAX@std@@@std@@@std@@QAEXAAV?$_List_val@U?$_List_simple_types@PAVCGraphImp@@@std@@@1@@Z
	DD	2 DUP(00H)
	DD	2 DUP(00H)
	DD	00H
	DD	01H
xdata$x	ENDS
;	COMDAT xdata$x
xdata$x	SEGMENT
__unwindtable$??$_Append_range_unchecked@V?$_List_unchecked_const_iterator@V?$_List_val@U?$_List_simple_types@PAVCGraphImp@@@std@@@std@@U_Iterator_base0@2@@std@@V12@@?$_List_node_insert_op2@V?$allocator@U?$_List_node@PAVCGraphImp@@PAX@std@@@std@@@std@@QAEXV?$_List_unchecked_const_iterator@V?$_List_val@U?$_List_simple_types@PAVCGraphImp@@@std@@@std@@U_Iterator_base0@2@@1@V21@@Z DD 0ffffffffH
	DD	FLAT:__unwindfunclet$??$_Append_range_unchecked@V?$_List_unchecked_const_iterator@V?$_List_val@U?$_List_simple_types@PAVCGraphImp@@@std@@@std@@U_Iterator_base0@2@@std@@V12@@?$_List_node_insert_op2@V?$allocator@U?$_List_node@PAVCGraphImp@@PAX@std@@@std@@@std@@QAEXV?$_List_unchecked_const_iterator@V?$_List_val@U?$_List_simple_types@PAVCGraphImp@@@std@@@std@@U_Iterator_base0@2@@1@V21@@Z$0
__ehfuncinfo$??$_Append_range_unchecked@V?$_List_unchecked_const_iterator@V?$_List_val@U?$_List_simple_types@PAVCGraphImp@@@std@@@std@@U_Iterator_base0@2@@std@@V12@@?$_List_node_insert_op2@V?$allocator@U?$_List_node@PAVCGraphImp@@PAX@std@@@std@@@std@@QAEXV?$_List_unchecked_const_iterator@V?$_List_val@U?$_List_simple_types@PAVCGraphImp@@@std@@@std@@U_Iterator_base0@2@@1@V21@@Z DD 019930522H
	DD	01H
	DD	FLAT:__unwindtable$??$_Append_range_unchecked@V?$_List_unchecked_const_iterator@V?$_List_val@U?$_List_simple_types@PAVCGraphImp@@@std@@@std@@U_Iterator_base0@2@@std@@V12@@?$_List_node_insert_op2@V?$allocator@U?$_List_node@PAVCGraphImp@@PAX@std@@@std@@@std@@QAEXV?$_List_unchecked_const_iterator@V?$_List_val@U?$_List_simple_types@PAVCGraphImp@@@std@@@std@@U_Iterator_base0@2@@1@V21@@Z
	DD	2 DUP(00H)
	DD	2 DUP(00H)
	DD	00H
	DD	01H
xdata$x	ENDS
;	COMDAT xdata$x
xdata$x	SEGMENT
__unwindtable$??$?0ABQAVCGraphImp@@@?$_List_node_emplace_op2@V?$allocator@U?$_List_node@PAVCGraphImp@@PAX@std@@@std@@@std@@QAE@AAV?$allocator@U?$_List_node@PAVCGraphImp@@PAX@std@@@1@ABQAVCGraphImp@@@Z DD 0ffffffffH
	DD	FLAT:__unwindfunclet$??$?0ABQAVCGraphImp@@@?$_List_node_emplace_op2@V?$allocator@U?$_List_node@PAVCGraphImp@@PAX@std@@@std@@@std@@QAE@AAV?$allocator@U?$_List_node@PAVCGraphImp@@PAX@std@@@1@ABQAVCGraphImp@@@Z$0
__ehfuncinfo$??$?0ABQAVCGraphImp@@@?$_List_node_emplace_op2@V?$allocator@U?$_List_node@PAVCGraphImp@@PAX@std@@@std@@@std@@QAE@AAV?$allocator@U?$_List_node@PAVCGraphImp@@PAX@std@@@1@ABQAVCGraphImp@@@Z DD 019930522H
	DD	01H
	DD	FLAT:__unwindtable$??$?0ABQAVCGraphImp@@@?$_List_node_emplace_op2@V?$allocator@U?$_List_node@PAVCGraphImp@@PAX@std@@@std@@@std@@QAE@AAV?$allocator@U?$_List_node@PAVCGraphImp@@PAX@std@@@1@ABQAVCGraphImp@@@Z
	DD	2 DUP(00H)
	DD	2 DUP(00H)
	DD	00H
	DD	01H
xdata$x	ENDS
;	COMDAT xdata$x
xdata$x	SEGMENT
__unwindtable$??$assign@V?$_List_unchecked_const_iterator@V?$_List_val@U?$_List_simple_types@PAVCGraphImp@@@std@@@std@@U_Iterator_base0@2@@std@@$0A@@?$list@PAVCGraphImp@@V?$allocator@PAVCGraphImp@@@std@@@std@@QAEXV?$_List_unchecked_const_iterator@V?$_List_val@U?$_List_simple_types@PAVCGraphImp@@@std@@@std@@U_Iterator_base0@2@@1@0@Z DD 0ffffffffH
	DD	FLAT:__unwindfunclet$??$assign@V?$_List_unchecked_const_iterator@V?$_List_val@U?$_List_simple_types@PAVCGraphImp@@@std@@@std@@U_Iterator_base0@2@@std@@$0A@@?$list@PAVCGraphImp@@V?$allocator@PAVCGraphImp@@@std@@@std@@QAEXV?$_List_unchecked_const_iterator@V?$_List_val@U?$_List_simple_types@PAVCGraphImp@@@std@@@std@@U_Iterator_base0@2@@1@0@Z$0
__ehfuncinfo$??$assign@V?$_List_unchecked_const_iterator@V?$_List_val@U?$_List_simple_types@PAVCGraphImp@@@std@@@std@@U_Iterator_base0@2@@std@@$0A@@?$list@PAVCGraphImp@@V?$allocator@PAVCGraphImp@@@std@@@std@@QAEXV?$_List_unchecked_const_iterator@V?$_List_val@U?$_List_simple_types@PAVCGraphImp@@@std@@@std@@U_Iterator_base0@2@@1@0@Z DD 019930522H
	DD	01H
	DD	FLAT:__unwindtable$??$assign@V?$_List_unchecked_const_iterator@V?$_List_val@U?$_List_simple_types@PAVCGraphImp@@@std@@@std@@U_Iterator_base0@2@@std@@$0A@@?$list@PAVCGraphImp@@V?$allocator@PAVCGraphImp@@@std@@@std@@QAEXV?$_List_unchecked_const_iterator@V?$_List_val@U?$_List_simple_types@PAVCGraphImp@@@std@@@std@@U_Iterator_base0@2@@1@0@Z
	DD	2 DUP(00H)
	DD	2 DUP(00H)
	DD	00H
	DD	01H
xdata$x	ENDS
;	COMDAT xdata$x
xdata$x	SEGMENT
__unwindtable$??$_Construct_range_unchecked@V?$_List_unchecked_const_iterator@V?$_List_val@U?$_List_simple_types@PAVCGraphImp@@@std@@@std@@U_Iterator_base0@2@@std@@@?$list@PAVCGraphImp@@V?$allocator@PAVCGraphImp@@@std@@@std@@AAEXV?$_List_unchecked_const_iterator@V?$_List_val@U?$_List_simple_types@PAVCGraphImp@@@std@@@std@@U_Iterator_base0@2@@1@0@Z DD 0ffffffffH
	DD	FLAT:__unwindfunclet$??$_Construct_range_unchecked@V?$_List_unchecked_const_iterator@V?$_List_val@U?$_List_simple_types@PAVCGraphImp@@@std@@@std@@U_Iterator_base0@2@@std@@@?$list@PAVCGraphImp@@V?$allocator@PAVCGraphImp@@@std@@@std@@AAEXV?$_List_unchecked_const_iterator@V?$_List_val@U?$_List_simple_types@PAVCGraphImp@@@std@@@std@@U_Iterator_base0@2@@1@0@Z$0
	DD	00H
	DD	FLAT:__unwindfunclet$??$_Construct_range_unchecked@V?$_List_unchecked_const_iterator@V?$_List_val@U?$_List_simple_types@PAVCGraphImp@@@std@@@std@@U_Iterator_base0@2@@std@@@?$list@PAVCGraphImp@@V?$allocator@PAVCGraphImp@@@std@@@std@@AAEXV?$_List_unchecked_const_iterator@V?$_List_val@U?$_List_simple_types@PAVCGraphImp@@@std@@@std@@U_Iterator_base0@2@@1@0@Z$1
__ehfuncinfo$??$_Construct_range_unchecked@V?$_List_unchecked_const_iterator@V?$_List_val@U?$_List_simple_types@PAVCGraphImp@@@std@@@std@@U_Iterator_base0@2@@std@@@?$list@PAVCGraphImp@@V?$allocator@PAVCGraphImp@@@std@@@std@@AAEXV?$_List_unchecked_const_iterator@V?$_List_val@U?$_List_simple_types@PAVCGraphImp@@@std@@@std@@U_Iterator_base0@2@@1@0@Z DD 019930522H
	DD	02H
	DD	FLAT:__unwindtable$??$_Construct_range_unchecked@V?$_List_unchecked_const_iterator@V?$_List_val@U?$_List_simple_types@PAVCGraphImp@@@std@@@std@@U_Iterator_base0@2@@std@@@?$list@PAVCGraphImp@@V?$allocator@PAVCGraphImp@@@std@@@std@@AAEXV?$_List_unchecked_const_iterator@V?$_List_val@U?$_List_simple_types@PAVCGraphImp@@@std@@@std@@U_Iterator_base0@2@@1@0@Z
	DD	2 DUP(00H)
	DD	2 DUP(00H)
	DD	00H
	DD	01H
xdata$x	ENDS
;	COMDAT xdata$x
xdata$x	SEGMENT
__unwindtable$??$_Emplace@ABQAVCGraphImp@@@?$list@PAVCGraphImp@@V?$allocator@PAVCGraphImp@@@std@@@std@@QAEPAU?$_List_node@PAVCGraphImp@@PAX@1@QAU21@ABQAVCGraphImp@@@Z DD 0ffffffffH
	DD	FLAT:__unwindfunclet$??$_Emplace@ABQAVCGraphImp@@@?$list@PAVCGraphImp@@V?$allocator@PAVCGraphImp@@@std@@@std@@QAEPAU?$_List_node@PAVCGraphImp@@PAX@1@QAU21@ABQAVCGraphImp@@@Z$1
__ehfuncinfo$??$_Emplace@ABQAVCGraphImp@@@?$list@PAVCGraphImp@@V?$allocator@PAVCGraphImp@@@std@@@std@@QAEPAU?$_List_node@PAVCGraphImp@@PAX@1@QAU21@ABQAVCGraphImp@@@Z DD 019930522H
	DD	01H
	DD	FLAT:__unwindtable$??$_Emplace@ABQAVCGraphImp@@@?$list@PAVCGraphImp@@V?$allocator@PAVCGraphImp@@@std@@@std@@QAEPAU?$_List_node@PAVCGraphImp@@PAX@1@QAU21@ABQAVCGraphImp@@@Z
	DD	2 DUP(00H)
	DD	2 DUP(00H)
	DD	00H
	DD	01H
xdata$x	ENDS
;	COMDAT xdata$x
xdata$x	SEGMENT
__unwindtable$?push_back@?$list@PAVCGraphImp@@V?$allocator@PAVCGraphImp@@@std@@@std@@QAEXABQAVCGraphImp@@@Z DD 0ffffffffH
	DD	FLAT:__unwindfunclet$?push_back@?$list@PAVCGraphImp@@V?$allocator@PAVCGraphImp@@@std@@@std@@QAEXABQAVCGraphImp@@@Z$1
__ehfuncinfo$?push_back@?$list@PAVCGraphImp@@V?$allocator@PAVCGraphImp@@@std@@@std@@QAEXABQAVCGraphImp@@@Z DD 019930522H
	DD	01H
	DD	FLAT:__unwindtable$?push_back@?$list@PAVCGraphImp@@V?$allocator@PAVCGraphImp@@@std@@@std@@QAEXABQAVCGraphImp@@@Z
	DD	2 DUP(00H)
	DD	2 DUP(00H)
	DD	00H
	DD	01H
xdata$x	ENDS
;	COMDAT xdata$x
xdata$x	SEGMENT
__unwindtable$??4?$list@PAVCGraphImp@@V?$allocator@PAVCGraphImp@@@std@@@std@@QAEAAV01@ABV01@@Z DD 0ffffffffH
	DD	FLAT:__unwindfunclet$??4?$list@PAVCGraphImp@@V?$allocator@PAVCGraphImp@@@std@@@std@@QAEAAV01@ABV01@@Z$0
__ehfuncinfo$??4?$list@PAVCGraphImp@@V?$allocator@PAVCGraphImp@@@std@@@std@@QAEAAV01@ABV01@@Z DD 019930522H
	DD	01H
	DD	FLAT:__unwindtable$??4?$list@PAVCGraphImp@@V?$allocator@PAVCGraphImp@@@std@@@std@@QAEAAV01@ABV01@@Z
	DD	2 DUP(00H)
	DD	2 DUP(00H)
	DD	00H
	DD	01H
xdata$x	ENDS
;	COMDAT xdata$x
xdata$x	SEGMENT
__unwindtable$?_Copy_assign@?$list@PAVCGraphImp@@V?$allocator@PAVCGraphImp@@@std@@@std@@AAEXABV12@U?$integral_constant@_N$0A@@2@@Z DD 0ffffffffH
	DD	FLAT:__unwindfunclet$?_Copy_assign@?$list@PAVCGraphImp@@V?$allocator@PAVCGraphImp@@@std@@@std@@AAEXABV12@U?$integral_constant@_N$0A@@2@@Z$0
__ehfuncinfo$?_Copy_assign@?$list@PAVCGraphImp@@V?$allocator@PAVCGraphImp@@@std@@@std@@AAEXABV12@U?$integral_constant@_N$0A@@2@@Z DD 019930522H
	DD	01H
	DD	FLAT:__unwindtable$?_Copy_assign@?$list@PAVCGraphImp@@V?$allocator@PAVCGraphImp@@@std@@@std@@AAEXABV12@U?$integral_constant@_N$0A@@2@@Z
	DD	2 DUP(00H)
	DD	2 DUP(00H)
	DD	00H
	DD	01H
xdata$x	ENDS
;	COMDAT xdata$x
xdata$x	SEGMENT
__unwindtable$??0?$list@PAVCGraphImp@@V?$allocator@PAVCGraphImp@@@std@@@std@@QAE@ABV01@@Z DD 0ffffffffH
	DD	FLAT:__unwindfunclet$??0?$list@PAVCGraphImp@@V?$allocator@PAVCGraphImp@@@std@@@std@@QAE@ABV01@@Z$0
	DD	00H
	DD	FLAT:__unwindfunclet$??0?$list@PAVCGraphImp@@V?$allocator@PAVCGraphImp@@@std@@@std@@QAE@ABV01@@Z$1
__ehfuncinfo$??0?$list@PAVCGraphImp@@V?$allocator@PAVCGraphImp@@@std@@@std@@QAE@ABV01@@Z DD 019930522H
	DD	02H
	DD	FLAT:__unwindtable$??0?$list@PAVCGraphImp@@V?$allocator@PAVCGraphImp@@@std@@@std@@QAE@ABV01@@Z
	DD	2 DUP(00H)
	DD	2 DUP(00H)
	DD	00H
	DD	01H
xdata$x	ENDS
;	COMDAT xdata$x
xdata$x	SEGMENT
__unwindtable$?Change@CPacketRQ@@QAEXAAV1@@Z DD 0ffffffffH
	DD	FLAT:__unwindfunclet$?Change@CPacketRQ@@QAEXAAV1@@Z$1
	DD	00H
	DD	FLAT:__unwindfunclet$?Change@CPacketRQ@@QAEXAAV1@@Z$2
	DD	0ffffffffH
	DD	FLAT:__unwindfunclet$?Change@CPacketRQ@@QAEXAAV1@@Z$0
__ehfuncinfo$?Change@CPacketRQ@@QAEXAAV1@@Z DD 019930522H
	DD	03H
	DD	FLAT:__unwindtable$?Change@CPacketRQ@@QAEXAAV1@@Z
	DD	2 DUP(00H)
	DD	2 DUP(00H)
	DD	00H
	DD	01H
xdata$x	ENDS
;	COMDAT xdata$x
xdata$x	SEGMENT
__unwindtable$?CreatePacketList@CPacketRQ@@QAEXV?$CStringT@DV?$StrTraitMFC_DLL@DV?$ChTraitsCRT@D@ATL@@@@@ATL@@W4REALTYPE@CPacketType@@H_NHABV23@NPAUIChartCtrl@@@Z DD 0ffffffffH
	DD	FLAT:__unwindfunclet$?CreatePacketList@CPacketRQ@@QAEXV?$CStringT@DV?$StrTraitMFC_DLL@DV?$ChTraitsCRT@D@ATL@@@@@ATL@@W4REALTYPE@CPacketType@@H_NHABV23@NPAUIChartCtrl@@@Z$0
	DD	00H
	DD	FLAT:__unwindfunclet$?CreatePacketList@CPacketRQ@@QAEXV?$CStringT@DV?$StrTraitMFC_DLL@DV?$ChTraitsCRT@D@ATL@@@@@ATL@@W4REALTYPE@CPacketType@@H_NHABV23@NPAUIChartCtrl@@@Z$1
__ehfuncinfo$?CreatePacketList@CPacketRQ@@QAEXV?$CStringT@DV?$StrTraitMFC_DLL@DV?$ChTraitsCRT@D@ATL@@@@@ATL@@W4REALTYPE@CPacketType@@H_NHABV23@NPAUIChartCtrl@@@Z DD 019930522H
	DD	02H
	DD	FLAT:__unwindtable$?CreatePacketList@CPacketRQ@@QAEXV?$CStringT@DV?$StrTraitMFC_DLL@DV?$ChTraitsCRT@D@ATL@@@@@ATL@@W4REALTYPE@CPacketType@@H_NHABV23@NPAUIChartCtrl@@@Z
	DD	2 DUP(00H)
	DD	2 DUP(00H)
	DD	00H
	DD	01H
xdata$x	ENDS
;	COMDAT xdata$x
xdata$x	SEGMENT
__unwindtable$?AddRQGraph@CPacketRQ@@QAEXPAVCGraphImp@@@Z DD 0ffffffffH
	DD	FLAT:__unwindfunclet$?AddRQGraph@CPacketRQ@@QAEXPAVCGraphImp@@@Z$1
__ehfuncinfo$?AddRQGraph@CPacketRQ@@QAEXPAVCGraphImp@@@Z DD 019930522H
	DD	01H
	DD	FLAT:__unwindtable$?AddRQGraph@CPacketRQ@@QAEXPAVCGraphImp@@@Z
	DD	2 DUP(00H)
	DD	2 DUP(00H)
	DD	00H
	DD	01H
xdata$x	ENDS
;	COMDAT xdata$x
xdata$x	SEGMENT
__unwindtable$??0CPacketRQ@@QAE@PBD00@Z DD 0ffffffffH
	DD	FLAT:__unwindfunclet$??0CPacketRQ@@QAE@PBD00@Z$0
__ehfuncinfo$??0CPacketRQ@@QAE@PBD00@Z DD 019930522H
	DD	01H
	DD	FLAT:__unwindtable$??0CPacketRQ@@QAE@PBD00@Z
	DD	2 DUP(00H)
	DD	2 DUP(00H)
	DD	00H
	DD	01H
xdata$x	ENDS
;	COMDAT xdata$x
xdata$x	SEGMENT
__unwindtable$??0CPacketRQ@@QAE@PBD0ABI@Z DD 0ffffffffH
	DD	FLAT:__unwindfunclet$??0CPacketRQ@@QAE@PBD0ABI@Z$0
__ehfuncinfo$??0CPacketRQ@@QAE@PBD0ABI@Z DD 019930522H
	DD	01H
	DD	FLAT:__unwindtable$??0CPacketRQ@@QAE@PBD0ABI@Z
	DD	2 DUP(00H)
	DD	2 DUP(00H)
	DD	00H
	DD	01H
xdata$x	ENDS
;	COMDAT xdata$x
xdata$x	SEGMENT
__unwindtable$??0CPacketRQ@@QAE@XZ DD 0ffffffffH
	DD	FLAT:__unwindfunclet$??0CPacketRQ@@QAE@XZ$0
__ehfuncinfo$??0CPacketRQ@@QAE@XZ DD 019930522H
	DD	01H
	DD	FLAT:__unwindtable$??0CPacketRQ@@QAE@XZ
	DD	2 DUP(00H)
	DD	2 DUP(00H)
	DD	00H
	DD	01H
xdata$x	ENDS
; Function compile flags: /Ogtp
; File C:\Program Files (x86)\Microsoft Visual Studio\2019\Community\VC\Tools\MSVC\14.29.30133\include\xmemory
;	COMDAT ??$_Allocate_manually_vector_aligned@U_Default_allocate_traits@std@@@std@@YAPAXI@Z
_TEXT	SEGMENT
__Bytes$ = 8						; size = 4
??$_Allocate_manually_vector_aligned@U_Default_allocate_traits@std@@@std@@YAPAXI@Z PROC ; std::_Allocate_manually_vector_aligned<std::_Default_allocate_traits>, COMDAT

; 127  : __declspec(allocator) void* _Allocate_manually_vector_aligned(const size_t _Bytes) {

  00000	55		 push	 ebp
  00001	8b ec		 mov	 ebp, esp

; 128  :     // allocate _Bytes manually aligned to at least _Big_allocation_alignment
; 129  :     const size_t _Block_size = _Non_user_size + _Bytes;

  00003	8b 45 08	 mov	 eax, DWORD PTR __Bytes$[ebp]
  00006	8d 48 23	 lea	 ecx, DWORD PTR [eax+35]

; 130  :     if (_Block_size <= _Bytes) {

  00009	3b c8		 cmp	 ecx, eax
  0000b	0f 86 00 00 00
	00		 jbe	 ?_Throw_bad_array_new_length@std@@YAXXZ ; std::_Throw_bad_array_new_length

; 79   :         return ::operator new(_Bytes);

  00011	51		 push	 ecx
  00012	e8 00 00 00 00	 call	 ??2@YAPAXI@Z		; operator new

; 131  :         _Throw_bad_array_new_length(); // add overflow
; 132  :     }
; 133  : 
; 134  :     const uintptr_t _Ptr_container = reinterpret_cast<uintptr_t>(_Traits::_Allocate(_Block_size));

  00017	8b c8		 mov	 ecx, eax

; 79   :         return ::operator new(_Bytes);

  00019	83 c4 04	 add	 esp, 4

; 135  :     _STL_VERIFY(_Ptr_container != 0, "invalid argument"); // validate even in release since we're doing p[-1]

  0001c	85 c9		 test	 ecx, ecx
  0001e	74 0b		 je	 SHORT $LN7@Allocate_m

; 136  :     void* const _Ptr = reinterpret_cast<void*>((_Ptr_container + _Non_user_size) & ~(_Big_allocation_alignment - 1));

  00020	8d 41 23	 lea	 eax, DWORD PTR [ecx+35]
  00023	83 e0 e0	 and	 eax, -32		; ffffffe0H

; 137  :     static_cast<uintptr_t*>(_Ptr)[-1] = _Ptr_container;

  00026	89 48 fc	 mov	 DWORD PTR [eax-4], ecx

; 138  : 
; 139  : #ifdef _DEBUG
; 140  :     static_cast<uintptr_t*>(_Ptr)[-2] = _Big_allocation_sentinel;
; 141  : #endif // _DEBUG
; 142  :     return _Ptr;
; 143  : }

  00029	5d		 pop	 ebp
  0002a	c3		 ret	 0
$LN7@Allocate_m:

; 135  :     _STL_VERIFY(_Ptr_container != 0, "invalid argument"); // validate even in release since we're doing p[-1]

  0002b	ff 25 00 00 00
	00		 jmp	 DWORD PTR __imp___invalid_parameter_noinfo_noreturn
??$_Allocate_manually_vector_aligned@U_Default_allocate_traits@std@@@std@@YAPAXI@Z ENDP ; std::_Allocate_manually_vector_aligned<std::_Default_allocate_traits>
_TEXT	ENDS
; Function compile flags: /Ogtp
; File C:\Program Files (x86)\Microsoft Visual Studio\2019\Community\VC\Tools\MSVC\14.29.30133\include\list
; File C:\Program Files (x86)\Microsoft Visual Studio\2019\Community\VC\Tools\MSVC\14.29.30133\include\xmemory
; File C:\Program Files (x86)\Microsoft Visual Studio\2019\Community\VC\Tools\MSVC\14.29.30133\include\list
; File C:\Program Files (x86)\Microsoft Visual Studio\2019\Community\VC\Tools\MSVC\14.29.30133\include\xmemory
; File C:\Program Files (x86)\Microsoft Visual Studio\2019\Community\VC\Tools\MSVC\14.29.30133\include\list
; File C:\Program Files (x86)\Microsoft Visual Studio\2019\Community\VC\Tools\MSVC\14.29.30133\include\xmemory
; File C:\Program Files (x86)\Microsoft Visual Studio\2019\Community\VC\Tools\MSVC\14.29.30133\include\utility
; File C:\Program Files (x86)\Microsoft Visual Studio\2019\Community\VC\Tools\MSVC\14.29.30133\include\list
; File C:\Program Files (x86)\Microsoft Visual Studio\2019\Community\VC\Tools\MSVC\14.29.30133\include\xmemory
; File C:\Program Files (x86)\Microsoft Visual Studio\2019\Community\VC\Tools\MSVC\14.29.30133\include\list
; File C:\Program Files (x86)\Microsoft Visual Studio\2019\Community\VC\Tools\MSVC\14.29.30133\include\xmemory
; File C:\Program Files (x86)\Microsoft Visual Studio\2019\Community\VC\Tools\MSVC\14.29.30133\include\utility
; File C:\Program Files (x86)\Microsoft Visual Studio\2019\Community\VC\Tools\MSVC\14.29.30133\include\list
;	COMDAT ??$_Append_range_unchecked@V?$_List_unchecked_const_iterator@V?$_List_val@U?$_List_simple_types@PAVCGraphImp@@@std@@@std@@U_Iterator_base0@2@@std@@V12@@?$_List_node_insert_op2@V?$allocator@U?$_List_node@PAVCGraphImp@@PAX@std@@@std@@@std@@QAEXV?$_List_unchecked_const_iterator@V?$_List_val@U?$_List_simple_types@PAVCGraphImp@@@std@@@std@@U_Iterator_base0@2@@1@V21@@Z
_TEXT	SEGMENT
__Newnode$ = -20					; size = 8
__$EHRec$ = -12						; size = 12
__First$ = 8						; size = 4
__Last$ = 12						; size = 4
??$_Append_range_unchecked@V?$_List_unchecked_const_iterator@V?$_List_val@U?$_List_simple_types@PAVCGraphImp@@@std@@@std@@U_Iterator_base0@2@@std@@V12@@?$_List_node_insert_op2@V?$allocator@U?$_List_node@PAVCGraphImp@@PAX@std@@@std@@@std@@QAEXV?$_List_unchecked_const_iterator@V?$_List_val@U?$_List_simple_types@PAVCGraphImp@@@std@@@std@@U_Iterator_base0@2@@1@V21@@Z PROC ; std::_List_node_insert_op2<std::allocator<std::_List_node<CGraphImp *,void *> > >::_Append_range_unchecked<std::_List_unchecked_const_iterator<std::_List_val<std::_List_simple_types<CGraphImp *> >,std::_Iterator_base0>,std::_List_unchecked_const_iterator<std::_List_val<std::_List_simple_types<CGraphImp *> >,std::_Iterator_base0> >, COMDAT
; _this$ = ecx

; 651  :     void _Append_range_unchecked(_InIt _First, const _Sentinel _Last) {

  00000	55		 push	 ebp
  00001	8b ec		 mov	 ebp, esp
  00003	6a ff		 push	 -1
  00005	68 00 00 00 00	 push	 __ehhandler$??$_Append_range_unchecked@V?$_List_unchecked_const_iterator@V?$_List_val@U?$_List_simple_types@PAVCGraphImp@@@std@@@std@@U_Iterator_base0@2@@std@@V12@@?$_List_node_insert_op2@V?$allocator@U?$_List_node@PAVCGraphImp@@PAX@std@@@std@@@std@@QAEXV?$_List_unchecked_const_iterator@V?$_List_val@U?$_List_simple_types@PAVCGraphImp@@@std@@@std@@U_Iterator_base0@2@@1@V21@@Z
  0000a	64 a1 00 00 00
	00		 mov	 eax, DWORD PTR fs:0
  00010	50		 push	 eax
  00011	83 ec 08	 sub	 esp, 8
  00014	56		 push	 esi
  00015	57		 push	 edi
  00016	a1 00 00 00 00	 mov	 eax, DWORD PTR ___security_cookie
  0001b	33 c5		 xor	 eax, ebp
  0001d	50		 push	 eax
  0001e	8d 45 f4	 lea	 eax, DWORD PTR __$EHRec$[ebp]
  00021	64 a3 00 00 00
	00		 mov	 DWORD PTR fs:0, eax
  00027	8b f9		 mov	 edi, ecx

; 652  :         // Append the values in [_First, _Last)
; 653  :         if (_First == _Last) { // throws

  00029	8b 45 08	 mov	 eax, DWORD PTR __First$[ebp]
  0002c	8b 55 0c	 mov	 edx, DWORD PTR __Last$[ebp]
  0002f	3b c2		 cmp	 eax, edx
  00031	0f 84 98 00 00
	00		 je	 $LN94@Append_ran
; File C:\Program Files (x86)\Microsoft Visual Studio\2019\Community\VC\Tools\MSVC\14.29.30133\include\xmemory

; 958  :     _CONSTEXPR20_DYNALLOC explicit _Alloc_construct_ptr(_Alloc& _Al_) : _Al(_Al_), _Ptr(nullptr) {}

  00037	8b 37		 mov	 esi, DWORD PTR [edi]
  00039	89 75 ec	 mov	 DWORD PTR __Newnode$[ebp], esi
  0003c	c7 45 f0 00 00
	00 00		 mov	 DWORD PTR __Newnode$[ebp+4], 0
; File C:\Program Files (x86)\Microsoft Visual Studio\2019\Community\VC\Tools\MSVC\14.29.30133\include\list

; 658  :         if (_Added == 0) {

  00043	83 7f 04 00	 cmp	 DWORD PTR [edi+4], 0
  00047	c7 45 fc 00 00
	00 00		 mov	 DWORD PTR __$EHRec$[ebp+8], 0
  0004e	75 35		 jne	 SHORT $LN116@Append_ran
; File C:\Program Files (x86)\Microsoft Visual Studio\2019\Community\VC\Tools\MSVC\14.29.30133\include\xmemory

; 79   :         return ::operator new(_Bytes);

  00050	6a 0c		 push	 12			; 0000000cH

; 965  :         _Ptr = nullptr; // if allocate throws, prevents double-free

  00052	c7 45 f0 00 00
	00 00		 mov	 DWORD PTR __Newnode$[ebp+4], 0

; 79   :         return ::operator new(_Bytes);

  00059	e8 00 00 00 00	 call	 ??2@YAPAXI@Z		; operator new
; File C:\Program Files (x86)\Microsoft Visual Studio\2019\Community\VC\Tools\MSVC\14.29.30133\include\list

; 660  :             _Alnode_traits::construct(_Al, _STD addressof(_Newnode._Ptr->_Myval), *_First); // throws

  0005e	8b 4d 08	 mov	 ecx, DWORD PTR __First$[ebp]
; File C:\Program Files (x86)\Microsoft Visual Studio\2019\Community\VC\Tools\MSVC\14.29.30133\include\xmemory

; 79   :         return ::operator new(_Bytes);

  00061	83 c4 04	 add	 esp, 4
; File C:\Program Files (x86)\Microsoft Visual Studio\2019\Community\VC\Tools\MSVC\14.29.30133\include\utility

; 603  :     _Val         = static_cast<_Other&&>(_New_val);

  00064	c7 45 f0 00 00
	00 00		 mov	 DWORD PTR __Newnode$[ebp+4], 0
; File C:\Program Files (x86)\Microsoft Visual Studio\2019\Community\VC\Tools\MSVC\14.29.30133\include\list

; 660  :             _Alnode_traits::construct(_Al, _STD addressof(_Newnode._Ptr->_Myval), *_First); // throws

  0006b	8b 49 08	 mov	 ecx, DWORD PTR [ecx+8]
  0006e	89 48 08	 mov	 DWORD PTR [eax+8], ecx

; 664  :             ++_Added;

  00071	ff 47 04	 inc	 DWORD PTR [edi+4]

; 51   :         _Ptr = _Ptr->_Next;

  00074	8b 55 0c	 mov	 edx, DWORD PTR __Last$[ebp]

; 661  :             const auto _Newhead = _STD exchange(_Newnode._Ptr, pointer{});
; 662  :             _Head               = _Newhead;

  00077	89 47 0c	 mov	 DWORD PTR [edi+12], eax

; 663  :             _Tail               = _Newhead;

  0007a	89 47 08	 mov	 DWORD PTR [edi+8], eax

; 51   :         _Ptr = _Ptr->_Next;

  0007d	8b 45 08	 mov	 eax, DWORD PTR __First$[ebp]
  00080	8b 00		 mov	 eax, DWORD PTR [eax]
  00082	89 45 08	 mov	 DWORD PTR __First$[ebp], eax
$LN116@Append_ran:

; 73   :         return _Ptr == _Right._Ptr;

  00085	3b c2		 cmp	 eax, edx

; 665  :             ++_First; // throws
; 666  :         }
; 667  : 
; 668  :         while (_First != _Last) { // throws

  00087	74 46		 je	 SHORT $LN94@Append_ran
  00089	0f 1f 80 00 00
	00 00		 npad	 7
$LL2@Append_ran:
; File C:\Program Files (x86)\Microsoft Visual Studio\2019\Community\VC\Tools\MSVC\14.29.30133\include\xmemory

; 79   :         return ::operator new(_Bytes);

  00090	6a 0c		 push	 12			; 0000000cH

; 965  :         _Ptr = nullptr; // if allocate throws, prevents double-free

  00092	c7 45 f0 00 00
	00 00		 mov	 DWORD PTR __Newnode$[ebp+4], 0

; 79   :         return ::operator new(_Bytes);

  00099	e8 00 00 00 00	 call	 ??2@YAPAXI@Z		; operator new
; File C:\Program Files (x86)\Microsoft Visual Studio\2019\Community\VC\Tools\MSVC\14.29.30133\include\list

; 670  :             _Alnode_traits::construct(_Al, _STD addressof(_Newnode._Ptr->_Myval), *_First); // throws

  0009e	8b 4d 08	 mov	 ecx, DWORD PTR __First$[ebp]
; File C:\Program Files (x86)\Microsoft Visual Studio\2019\Community\VC\Tools\MSVC\14.29.30133\include\xmemory

; 79   :         return ::operator new(_Bytes);

  000a1	83 c4 04	 add	 esp, 4
; File C:\Program Files (x86)\Microsoft Visual Studio\2019\Community\VC\Tools\MSVC\14.29.30133\include\utility

; 603  :     _Val         = static_cast<_Other&&>(_New_val);

  000a4	c7 45 f0 00 00
	00 00		 mov	 DWORD PTR __Newnode$[ebp+4], 0
; File C:\Program Files (x86)\Microsoft Visual Studio\2019\Community\VC\Tools\MSVC\14.29.30133\include\list

; 670  :             _Alnode_traits::construct(_Al, _STD addressof(_Newnode._Ptr->_Myval), *_First); // throws

  000ab	8b 49 08	 mov	 ecx, DWORD PTR [ecx+8]
  000ae	89 48 08	 mov	 DWORD PTR [eax+8], ecx

; 671  :             _Construct_in_place(_Tail->_Next, _Newnode._Ptr);

  000b1	8b 4f 08	 mov	 ecx, DWORD PTR [edi+8]
  000b4	89 01		 mov	 DWORD PTR [ecx], eax

; 672  :             _Construct_in_place(_Newnode._Ptr->_Prev, _Tail);

  000b6	8b 4f 08	 mov	 ecx, DWORD PTR [edi+8]
  000b9	89 48 04	 mov	 DWORD PTR [eax+4], ecx

; 673  :             _Tail = _STD exchange(_Newnode._Ptr, pointer{});
; 674  :             ++_Added;

  000bc	ff 47 04	 inc	 DWORD PTR [edi+4]
  000bf	89 47 08	 mov	 DWORD PTR [edi+8], eax

; 51   :         _Ptr = _Ptr->_Next;

  000c2	8b 45 08	 mov	 eax, DWORD PTR __First$[ebp]
  000c5	8b 00		 mov	 eax, DWORD PTR [eax]
  000c7	89 45 08	 mov	 DWORD PTR __First$[ebp], eax

; 73   :         return _Ptr == _Right._Ptr;

  000ca	3b 45 0c	 cmp	 eax, DWORD PTR __Last$[ebp]

; 665  :             ++_First; // throws
; 666  :         }
; 667  : 
; 668  :         while (_First != _Last) { // throws

  000cd	75 c1		 jne	 SHORT $LL2@Append_ran
$LN94@Append_ran:

; 675  :             ++_First; // throws
; 676  :         }
; 677  :     }

  000cf	8b 4d f4	 mov	 ecx, DWORD PTR __$EHRec$[ebp]
  000d2	64 89 0d 00 00
	00 00		 mov	 DWORD PTR fs:0, ecx
  000d9	59		 pop	 ecx
  000da	5f		 pop	 edi
  000db	5e		 pop	 esi
  000dc	8b e5		 mov	 esp, ebp
  000de	5d		 pop	 ebp
  000df	c2 08 00	 ret	 8
_TEXT	ENDS
;	COMDAT text$x
text$x	SEGMENT
__unwindfunclet$??$_Append_range_unchecked@V?$_List_unchecked_const_iterator@V?$_List_val@U?$_List_simple_types@PAVCGraphImp@@@std@@@std@@U_Iterator_base0@2@@std@@V12@@?$_List_node_insert_op2@V?$allocator@U?$_List_node@PAVCGraphImp@@PAX@std@@@std@@@std@@QAEXV?$_List_unchecked_const_iterator@V?$_List_val@U?$_List_simple_types@PAVCGraphImp@@@std@@@std@@U_Iterator_base0@2@@1@V21@@Z$0:
  00000	8d 4d ec	 lea	 ecx, DWORD PTR __Newnode$[ebp]
  00003	e9 00 00 00 00	 jmp	 ??1?$_Alloc_construct_ptr@V?$allocator@U?$_List_node@PAVCGraphImp@@PAX@std@@@std@@@std@@QAE@XZ ; std::_Alloc_construct_ptr<std::allocator<std::_List_node<CGraphImp *,void *> > >::~_Alloc_construct_ptr<std::allocator<std::_List_node<CGraphImp *,void *> > >
  00008	cc		 int	 3
  00009	cc		 int	 3
  0000a	cc		 int	 3
  0000b	cc		 int	 3
  0000c	cc		 int	 3
__ehhandler$??$_Append_range_unchecked@V?$_List_unchecked_const_iterator@V?$_List_val@U?$_List_simple_types@PAVCGraphImp@@@std@@@std@@U_Iterator_base0@2@@std@@V12@@?$_List_node_insert_op2@V?$allocator@U?$_List_node@PAVCGraphImp@@PAX@std@@@std@@@std@@QAEXV?$_List_unchecked_const_iterator@V?$_List_val@U?$_List_simple_types@PAVCGraphImp@@@std@@@std@@U_Iterator_base0@2@@1@V21@@Z:
  0000d	90		 npad	 1
  0000e	90		 npad	 1
  0000f	8b 54 24 08	 mov	 edx, DWORD PTR [esp+8]
  00013	8d 42 0c	 lea	 eax, DWORD PTR [edx+12]
  00016	8b 4a ec	 mov	 ecx, DWORD PTR [edx-20]
  00019	33 c8		 xor	 ecx, eax
  0001b	e8 00 00 00 00	 call	 @__security_check_cookie@4
  00020	b8 00 00 00 00	 mov	 eax, OFFSET __ehfuncinfo$??$_Append_range_unchecked@V?$_List_unchecked_const_iterator@V?$_List_val@U?$_List_simple_types@PAVCGraphImp@@@std@@@std@@U_Iterator_base0@2@@std@@V12@@?$_List_node_insert_op2@V?$allocator@U?$_List_node@PAVCGraphImp@@PAX@std@@@std@@@std@@QAEXV?$_List_unchecked_const_iterator@V?$_List_val@U?$_List_simple_types@PAVCGraphImp@@@std@@@std@@U_Iterator_base0@2@@1@V21@@Z
  00025	e9 00 00 00 00	 jmp	 ___CxxFrameHandler3
text$x	ENDS
??$_Append_range_unchecked@V?$_List_unchecked_const_iterator@V?$_List_val@U?$_List_simple_types@PAVCGraphImp@@@std@@@std@@U_Iterator_base0@2@@std@@V12@@?$_List_node_insert_op2@V?$allocator@U?$_List_node@PAVCGraphImp@@PAX@std@@@std@@@std@@QAEXV?$_List_unchecked_const_iterator@V?$_List_val@U?$_List_simple_types@PAVCGraphImp@@@std@@@std@@U_Iterator_base0@2@@1@V21@@Z ENDP ; std::_List_node_insert_op2<std::allocator<std::_List_node<CGraphImp *,void *> > >::_Append_range_unchecked<std::_List_unchecked_const_iterator<std::_List_val<std::_List_simple_types<CGraphImp *> >,std::_Iterator_base0>,std::_List_unchecked_const_iterator<std::_List_val<std::_List_simple_types<CGraphImp *> >,std::_Iterator_base0> >
; Function compile flags: /Ogtp
; File C:\Program Files (x86)\Microsoft Visual Studio\2019\Community\VC\Tools\MSVC\14.29.30133\include\list
; File C:\Program Files (x86)\Microsoft Visual Studio\2019\Community\VC\Tools\MSVC\14.29.30133\include\utility
; File C:\Program Files (x86)\Microsoft Visual Studio\2019\Community\VC\Tools\MSVC\14.29.30133\include\xmemory
; File C:\Program Files (x86)\Microsoft Visual Studio\2019\Community\VC\Tools\MSVC\14.29.30133\include\list
;	COMDAT ??1?$_List_node_insert_op2@V?$allocator@U?$_List_node@PAVCGraphImp@@PAX@std@@@std@@@std@@QAE@XZ
_TEXT	SEGMENT
??1?$_List_node_insert_op2@V?$allocator@U?$_List_node@PAVCGraphImp@@PAX@std@@@std@@@std@@QAE@XZ PROC ; std::_List_node_insert_op2<std::allocator<std::_List_node<CGraphImp *,void *> > >::~_List_node_insert_op2<std::allocator<std::_List_node<CGraphImp *,void *> > >, COMDAT
; _this$ = ecx

; 731  :         if (_Added == 0) {

  00000	83 79 04 00	 cmp	 DWORD PTR [ecx+4], 0
  00004	74 2f		 je	 SHORT $LN3@List_node_

; 732  :             return;
; 733  :         }
; 734  : 
; 735  :         _Construct_in_place(_Head->_Prev, pointer{});

  00006	8b 41 0c	 mov	 eax, DWORD PTR [ecx+12]
  00009	56		 push	 esi
  0000a	c7 40 04 00 00
	00 00		 mov	 DWORD PTR [eax+4], 0

; 736  :         _Construct_in_place(_Tail->_Next, pointer{});

  00011	8b 41 08	 mov	 eax, DWORD PTR [ecx+8]
  00014	c7 00 00 00 00
	00		 mov	 DWORD PTR [eax], 0

; 737  :         pointer _Subject = _Head;

  0001a	8b 71 0c	 mov	 esi, DWORD PTR [ecx+12]

; 738  :         while (_Subject) {

  0001d	85 f6		 test	 esi, esi
  0001f	74 13		 je	 SHORT $LN36@List_node_
$LL2@List_node_:
; File C:\Program Files (x86)\Microsoft Visual Studio\2019\Community\VC\Tools\MSVC\14.29.30133\include\utility

; 602  :     _Ty _Old_val = static_cast<_Ty&&>(_Val);

  00021	8b c6		 mov	 eax, esi

; 603  :     _Val         = static_cast<_Other&&>(_New_val);

  00023	8b 36		 mov	 esi, DWORD PTR [esi]
; File C:\Program Files (x86)\Microsoft Visual Studio\2019\Community\VC\Tools\MSVC\14.29.30133\include\xmemory

; 255  :         ::operator delete(_Ptr, _Bytes);

  00025	6a 0c		 push	 12			; 0000000cH
  00027	50		 push	 eax
  00028	e8 00 00 00 00	 call	 ??3@YAXPAXI@Z		; operator delete
  0002d	83 c4 08	 add	 esp, 8
; File C:\Program Files (x86)\Microsoft Visual Studio\2019\Community\VC\Tools\MSVC\14.29.30133\include\list

; 738  :         while (_Subject) {

  00030	85 f6		 test	 esi, esi
  00032	75 ed		 jne	 SHORT $LL2@List_node_
$LN36@List_node_:
  00034	5e		 pop	 esi
$LN3@List_node_:

; 739  :             value_type::_Freenode(_Al, _STD exchange(_Subject, _Subject->_Next));
; 740  :         }
; 741  :     }

  00035	c3		 ret	 0
??1?$_List_node_insert_op2@V?$allocator@U?$_List_node@PAVCGraphImp@@PAX@std@@@std@@@std@@QAE@XZ ENDP ; std::_List_node_insert_op2<std::allocator<std::_List_node<CGraphImp *,void *> > >::~_List_node_insert_op2<std::allocator<std::_List_node<CGraphImp *,void *> > >
_TEXT	ENDS
; Function compile flags: /Ogtp
; File C:\Program Files (x86)\Microsoft Visual Studio\2019\Community\VC\Tools\MSVC\14.29.30133\include\xmemory
;	COMDAT ??1?$_Alloc_construct_ptr@V?$allocator@U?$_List_node@PAVCGraphImp@@PAX@std@@@std@@@std@@QAE@XZ
_TEXT	SEGMENT
??1?$_Alloc_construct_ptr@V?$allocator@U?$_List_node@PAVCGraphImp@@PAX@std@@@std@@@std@@QAE@XZ PROC ; std::_Alloc_construct_ptr<std::allocator<std::_List_node<CGraphImp *,void *> > >::~_Alloc_construct_ptr<std::allocator<std::_List_node<CGraphImp *,void *> > >, COMDAT
; _this$ = ecx

; 970  :         if (_Ptr) {

  00000	8b 41 04	 mov	 eax, DWORD PTR [ecx+4]
  00003	85 c0		 test	 eax, eax
  00005	74 0b		 je	 SHORT $LN8@Alloc_cons

; 255  :         ::operator delete(_Ptr, _Bytes);

  00007	6a 0c		 push	 12			; 0000000cH
  00009	50		 push	 eax
  0000a	e8 00 00 00 00	 call	 ??3@YAXPAXI@Z		; operator delete
  0000f	83 c4 08	 add	 esp, 8
$LN8@Alloc_cons:

; 971  :             _Al.deallocate(_Ptr, 1);
; 972  :         }
; 973  :     }

  00012	c3		 ret	 0
??1?$_Alloc_construct_ptr@V?$allocator@U?$_List_node@PAVCGraphImp@@PAX@std@@@std@@@std@@QAE@XZ ENDP ; std::_Alloc_construct_ptr<std::allocator<std::_List_node<CGraphImp *,void *> > >::~_Alloc_construct_ptr<std::allocator<std::_List_node<CGraphImp *,void *> > >
_TEXT	ENDS
; Function compile flags: /Ogtp
;	COMDAT ??_GCPacketList@@UAEPAXI@Z
_TEXT	SEGMENT
___flags$ = 8						; size = 4
??_GCPacketList@@UAEPAXI@Z PROC				; CPacketList::`scalar deleting destructor', COMDAT
; _this$ = ecx
  00000	55		 push	 ebp
  00001	8b ec		 mov	 ebp, esp
  00003	56		 push	 esi
  00004	8b f1		 mov	 esi, ecx
  00006	ff 15 00 00 00
	00		 call	 DWORD PTR __imp_??1CPacketList@@UAE@XZ
  0000c	f6 45 08 01	 test	 BYTE PTR ___flags$[ebp], 1
  00010	74 0b		 je	 SHORT $LN4@scalar
  00012	6a 08		 push	 8
  00014	56		 push	 esi
  00015	e8 00 00 00 00	 call	 ??3@YAXPAXI@Z		; operator delete
  0001a	83 c4 08	 add	 esp, 8
$LN4@scalar:
  0001d	8b c6		 mov	 eax, esi
  0001f	5e		 pop	 esi
  00020	5d		 pop	 ebp
  00021	c2 04 00	 ret	 4
??_GCPacketList@@UAEPAXI@Z ENDP				; CPacketList::`scalar deleting destructor'
_TEXT	ENDS
; Function compile flags: /Ogtp
; File D:\git\src\IBK\IBK_DRFN\ProjSrc\SrcChartEx\ChartOCX\ChartObject\PacketRQ.cpp
; File C:\Program Files (x86)\Microsoft Visual Studio\2019\Community\VC\Tools\MSVC\14.29.30133\include\list
; File C:\Program Files (x86)\Microsoft Visual Studio\2019\Community\VC\Tools\MSVC\14.29.30133\include\xmemory
; File C:\Program Files (x86)\Microsoft Visual Studio\2019\Community\VC\Tools\MSVC\14.29.30133\include\list
; File C:\Program Files (x86)\Microsoft Visual Studio\2019\Community\VC\Tools\MSVC\14.29.30133\include\xmemory
;	COMDAT ??_GCPacketRQ@@UAEPAXI@Z
_TEXT	SEGMENT
___flags$ = 8						; size = 4
??_GCPacketRQ@@UAEPAXI@Z PROC				; CPacketRQ::`scalar deleting destructor', COMDAT
; _this$ = ecx
  00000	55		 push	 ebp
  00001	8b ec		 mov	 ebp, esp
; File D:\git\src\IBK\IBK_DRFN\ProjSrc\SrcChartEx\ChartOCX\ChartObject\PacketRQ.cpp

; 69   : {

  00003	56		 push	 esi

; 70   : 	//    dll   :  - ojtaso (20070504)
; 71   : 	if(m_lpszItemCode)

  00004	8b 35 00 00 00
	00		 mov	 esi, DWORD PTR __imp__free
  0000a	57		 push	 edi
  0000b	8b f9		 mov	 edi, ecx
  0000d	8b 47 08	 mov	 eax, DWORD PTR [edi+8]
  00010	c7 07 00 00 00
	00		 mov	 DWORD PTR [edi], OFFSET ??_7CPacketRQ@@6B@
  00016	85 c0		 test	 eax, eax
  00018	74 06		 je	 SHORT $LN5@scalar

; 72   : 		::free(m_lpszItemCode);

  0001a	50		 push	 eax
  0001b	ff d6		 call	 esi
  0001d	83 c4 04	 add	 esp, 4
$LN5@scalar:

; 73   : 	if(m_lpszItemName)

  00020	8b 47 0c	 mov	 eax, DWORD PTR [edi+12]
  00023	85 c0		 test	 eax, eax
  00025	74 06		 je	 SHORT $LN6@scalar

; 74   : 		::free(m_lpszItemName);

  00027	50		 push	 eax
  00028	ff d6		 call	 esi
  0002a	83 c4 04	 add	 esp, 4
$LN6@scalar:

; 75   : 	if(m_lpszPacketName)

  0002d	8b 47 10	 mov	 eax, DWORD PTR [edi+16]
  00030	85 c0		 test	 eax, eax
  00032	74 06		 je	 SHORT $LN7@scalar

; 76   : 		::free(m_lpszPacketName);

  00034	50		 push	 eax
  00035	ff d6		 call	 esi
  00037	83 c4 04	 add	 esp, 4
$LN7@scalar:

; 77   : 
; 78   : 	if(m_lpszRQ)

  0003a	8b 47 04	 mov	 eax, DWORD PTR [edi+4]
  0003d	85 c0		 test	 eax, eax
  0003f	74 09		 je	 SHORT $LN8@scalar

; 79   : 		delete [] m_lpszRQ;

  00041	50		 push	 eax
  00042	e8 00 00 00 00	 call	 ??_V@YAXPAX@Z		; operator delete[]
  00047	83 c4 04	 add	 esp, 4
$LN8@scalar:

; 80   : 
; 81   : 	m_lpszItemCode = m_lpszItemName = m_lpszRQ = m_lpszPacketName = NULL;
; 82   : 
; 83   : 	if(m_pPacketList)

  0004a	8b 4f 14	 mov	 ecx, DWORD PTR [edi+20]
  0004d	c7 47 10 00 00
	00 00		 mov	 DWORD PTR [edi+16], 0
  00054	c7 47 04 00 00
	00 00		 mov	 DWORD PTR [edi+4], 0
  0005b	c7 47 0c 00 00
	00 00		 mov	 DWORD PTR [edi+12], 0
  00062	c7 47 08 00 00
	00 00		 mov	 DWORD PTR [edi+8], 0
  00069	85 c9		 test	 ecx, ecx
  0006b	74 0d		 je	 SHORT $LN9@scalar

; 84   : 	{
; 85   : 		delete m_pPacketList;

  0006d	8b 01		 mov	 eax, DWORD PTR [ecx]
  0006f	6a 01		 push	 1
  00071	ff 10		 call	 DWORD PTR [eax]

; 86   : 		m_pPacketList = NULL;

  00073	c7 47 14 00 00
	00 00		 mov	 DWORD PTR [edi+20], 0
$LN9@scalar:
; File C:\Program Files (x86)\Microsoft Visual Studio\2019\Community\VC\Tools\MSVC\14.29.30133\include\list

; 1431 :         _Node::_Free_non_head(_Al, _My_data._Myhead);

  0007a	8b 4f 18	 mov	 ecx, DWORD PTR [edi+24]

; 323  :         _Head->_Prev->_Next = nullptr;

  0007d	8b 41 04	 mov	 eax, DWORD PTR [ecx+4]
  00080	c7 00 00 00 00
	00		 mov	 DWORD PTR [eax], 0

; 324  : 
; 325  :         auto _Pnode = _Head->_Next;

  00086	8b 01		 mov	 eax, DWORD PTR [ecx]

; 326  :         for (_Nodeptr _Pnext; _Pnode; _Pnode = _Pnext) {

  00088	85 c0		 test	 eax, eax
  0008a	74 17		 je	 SHORT $LN20@scalar
  0008c	0f 1f 40 00	 npad	 4
$LL21@scalar:

; 327  :             _Pnext = _Pnode->_Next;

  00090	8b 30		 mov	 esi, DWORD PTR [eax]
; File C:\Program Files (x86)\Microsoft Visual Studio\2019\Community\VC\Tools\MSVC\14.29.30133\include\xmemory

; 255  :         ::operator delete(_Ptr, _Bytes);

  00092	6a 0c		 push	 12			; 0000000cH
  00094	50		 push	 eax
  00095	e8 00 00 00 00	 call	 ??3@YAXPAXI@Z		; operator delete
  0009a	83 c4 08	 add	 esp, 8
; File C:\Program Files (x86)\Microsoft Visual Studio\2019\Community\VC\Tools\MSVC\14.29.30133\include\list

; 326  :         for (_Nodeptr _Pnext; _Pnode; _Pnode = _Pnext) {

  0009d	8b c6		 mov	 eax, esi
  0009f	85 f6		 test	 esi, esi
  000a1	75 ed		 jne	 SHORT $LL21@scalar
$LN20@scalar:
; File C:\Program Files (x86)\Microsoft Visual Studio\2019\Community\VC\Tools\MSVC\14.29.30133\include\xmemory

; 255  :         ::operator delete(_Ptr, _Bytes);

  000a3	6a 0c		 push	 12			; 0000000cH
  000a5	ff 77 18	 push	 DWORD PTR [edi+24]
  000a8	e8 00 00 00 00	 call	 ??3@YAXPAXI@Z		; operator delete
  000ad	83 c4 08	 add	 esp, 8
  000b0	f6 45 08 01	 test	 BYTE PTR ___flags$[ebp], 1
  000b4	74 0b		 je	 SHORT $LN75@scalar
  000b6	6a 20		 push	 32			; 00000020H
  000b8	57		 push	 edi
  000b9	e8 00 00 00 00	 call	 ??3@YAXPAXI@Z		; operator delete
  000be	83 c4 08	 add	 esp, 8
$LN75@scalar:
  000c1	8b c7		 mov	 eax, edi
  000c3	5f		 pop	 edi
  000c4	5e		 pop	 esi
  000c5	5d		 pop	 ebp
  000c6	c2 04 00	 ret	 4
??_GCPacketRQ@@UAEPAXI@Z ENDP				; CPacketRQ::`scalar deleting destructor'
_TEXT	ENDS
; Function compile flags: /Ogtp
; File C:\Program Files (x86)\Microsoft Visual Studio\2019\Community\VC\Tools\MSVC\14.29.30133\include\list
; File C:\Program Files (x86)\Microsoft Visual Studio\2019\Community\VC\Tools\MSVC\14.29.30133\include\xmemory
; File C:\Program Files (x86)\Microsoft Visual Studio\2019\Community\VC\Tools\MSVC\14.29.30133\include\list
;	COMDAT ??4?$list@PAVCGraphImp@@V?$allocator@PAVCGraphImp@@@std@@@std@@QAEAAV01@ABV01@@Z
_TEXT	SEGMENT
__Op$2 = -32						; size = 16
_this$1$ = -16						; size = 4
__$EHRec$ = -12						; size = 12
__Erasures$1$ = 8					; size = 4
__Right$ = 8						; size = 4
??4?$list@PAVCGraphImp@@V?$allocator@PAVCGraphImp@@@std@@@std@@QAEAAV01@ABV01@@Z PROC ; std::list<CGraphImp *,std::allocator<CGraphImp *> >::operator=, COMDAT
; _this$ = ecx

; 1074 :     list& operator=(const list& _Right) {

  00000	55		 push	 ebp
  00001	8b ec		 mov	 ebp, esp
  00003	6a ff		 push	 -1
  00005	68 00 00 00 00	 push	 __ehhandler$??4?$list@PAVCGraphImp@@V?$allocator@PAVCGraphImp@@@std@@@std@@QAEAAV01@ABV01@@Z
  0000a	64 a1 00 00 00
	00		 mov	 eax, DWORD PTR fs:0
  00010	50		 push	 eax
  00011	83 ec 14	 sub	 esp, 20			; 00000014H
  00014	53		 push	 ebx
  00015	56		 push	 esi
  00016	57		 push	 edi
  00017	a1 00 00 00 00	 mov	 eax, DWORD PTR ___security_cookie
  0001c	33 c5		 xor	 eax, ebp
  0001e	50		 push	 eax
  0001f	8d 45 f4	 lea	 eax, DWORD PTR __$EHRec$[ebp]
  00022	64 a3 00 00 00
	00		 mov	 DWORD PTR fs:0, eax
  00028	8b f9		 mov	 edi, ecx
  0002a	89 7d f0	 mov	 DWORD PTR _this$1$[ebp], edi

; 1075 :         if (this != _STD addressof(_Right)) {

  0002d	8b 75 08	 mov	 esi, DWORD PTR __Right$[ebp]
  00030	3b fe		 cmp	 edi, esi
  00032	74 58		 je	 SHORT $LN117@operator

; 1258 :         const auto _Myend = _Mypair._Myval2._Myhead;

  00034	8b 1f		 mov	 ebx, DWORD PTR [edi]

; 38   :     _List_unchecked_const_iterator(_Nodeptr _Pnode, const _Mylist* _Plist) noexcept : _Ptr(_Pnode) {

  00036	8b 36		 mov	 esi, DWORD PTR [esi]

; 1259 :         auto _Old         = _Myend->_Next;

  00038	8b 13		 mov	 edx, DWORD PTR [ebx]

; 38   :     _List_unchecked_const_iterator(_Nodeptr _Pnode, const _Mylist* _Plist) noexcept : _Ptr(_Pnode) {

  0003a	8b 06		 mov	 eax, DWORD PTR [esi]

; 1261 :             if (_Old == _Myend) { // no more nodes to reuse, append the rest

  0003c	3b d3		 cmp	 edx, ebx
  0003e	74 12		 je	 SHORT $LN105@operator
$LL17@operator:

; 1264 :                 _Op._Attach_at_end(_Mypair._Myval2);
; 1265 :                 return;
; 1266 :             }
; 1267 : 
; 1268 :             if (_UFirst == _ULast) {

  00040	3b c6		 cmp	 eax, esi
  00042	74 5e		 je	 SHORT $LN106@operator

; 1269 :                 // input sequence was shorter than existing list, destroy and deallocate what's left
; 1270 :                 _Unchecked_erase(_Old, _Myend);
; 1271 :                 return;
; 1272 :             }
; 1273 : 
; 1274 :             // reuse the node
; 1275 :             reinterpret_cast<_Target_ref>(_Old->_Myval) = *_UFirst;

  00044	8b 48 08	 mov	 ecx, DWORD PTR [eax+8]
  00047	89 4a 08	 mov	 DWORD PTR [edx+8], ecx

; 1276 :             _Old                                        = _Old->_Next;

  0004a	8b 12		 mov	 edx, DWORD PTR [edx]

; 51   :         _Ptr = _Ptr->_Next;

  0004c	8b 00		 mov	 eax, DWORD PTR [eax]

; 1261 :             if (_Old == _Myend) { // no more nodes to reuse, append the rest

  0004e	3b d3		 cmp	 edx, ebx
  00050	75 ee		 jne	 SHORT $LL17@operator
$LN105@operator:

; 616  :     explicit _List_node_insert_op2(_Alnode& _Al_) : _Al(_Al_), _Added(0) {}

  00052	89 7d e0	 mov	 DWORD PTR __Op$2[ebp], edi
  00055	c7 45 e4 00 00
	00 00		 mov	 DWORD PTR __Op$2[ebp+4], 0

; 1263 :                 _Op._Append_range_unchecked(_UFirst, _ULast);

  0005c	56		 push	 esi
  0005d	50		 push	 eax
  0005e	8d 4d e0	 lea	 ecx, DWORD PTR __Op$2[ebp]
  00061	c7 45 fc 00 00
	00 00		 mov	 DWORD PTR __$EHRec$[ebp+8], 0
  00068	e8 00 00 00 00	 call	 ??$_Append_range_unchecked@V?$_List_unchecked_const_iterator@V?$_List_val@U?$_List_simple_types@PAVCGraphImp@@@std@@@std@@U_Iterator_base0@2@@std@@V12@@?$_List_node_insert_op2@V?$allocator@U?$_List_node@PAVCGraphImp@@PAX@std@@@std@@@std@@QAEXV?$_List_unchecked_const_iterator@V?$_List_val@U?$_List_simple_types@PAVCGraphImp@@@std@@@std@@U_Iterator_base0@2@@1@V21@@Z ; std::_List_node_insert_op2<std::allocator<std::_List_node<CGraphImp *,void *> > >::_Append_range_unchecked<std::_List_unchecked_const_iterator<std::_List_val<std::_List_simple_types<CGraphImp *> >,std::_Iterator_base0>,std::_List_unchecked_const_iterator<std::_List_val<std::_List_simple_types<CGraphImp *> >,std::_Iterator_base0> >

; 686  :         if (_Local_added == 0) {

  0006d	8b 75 e4	 mov	 esi, DWORD PTR __Op$2[ebp+4]

; 706  :         _Attach_before(_List_data, _List_data._Myhead);

  00070	8b 17		 mov	 edx, DWORD PTR [edi]

; 686  :         if (_Local_added == 0) {

  00072	85 f6		 test	 esi, esi
  00074	74 16		 je	 SHORT $LN117@operator

; 687  :             return _Insert_before;
; 688  :         }
; 689  : 
; 690  :         const auto _Local_head   = _Head;
; 691  :         const auto _Local_tail   = _Tail;
; 692  :         const auto _Insert_after = _Insert_before->_Prev;

  00076	8b 4a 04	 mov	 ecx, DWORD PTR [edx+4]

; 693  : 
; 694  :         _Construct_in_place(_Local_head->_Prev, _Insert_after);

  00079	8b 45 ec	 mov	 eax, DWORD PTR __Op$2[ebp+12]
  0007c	89 48 04	 mov	 DWORD PTR [eax+4], ecx

; 695  :         _Insert_after->_Next = _Local_head;

  0007f	89 01		 mov	 DWORD PTR [ecx], eax

; 696  :         _Construct_in_place(_Local_tail->_Next, _Insert_before);

  00081	8b 45 e8	 mov	 eax, DWORD PTR __Op$2[ebp+8]
  00084	89 10		 mov	 DWORD PTR [eax], edx

; 697  :         _Insert_before->_Prev = _Local_tail;

  00086	89 42 04	 mov	 DWORD PTR [edx+4], eax

; 698  : 
; 699  :         _List_data._Mysize += _Local_added;

  00089	01 77 04	 add	 DWORD PTR [edi+4], esi
$LN117@operator:

; 1076 :             _Copy_assign(_Right, _Choose_pocca<_Alnode>{});
; 1077 :         }
; 1078 : 
; 1079 :         return *this;
; 1080 :     }

  0008c	8b c7		 mov	 eax, edi
  0008e	8b 4d f4	 mov	 ecx, DWORD PTR __$EHRec$[ebp]
  00091	64 89 0d 00 00
	00 00		 mov	 DWORD PTR fs:0, ecx
  00098	59		 pop	 ecx
  00099	5f		 pop	 edi
  0009a	5e		 pop	 esi
  0009b	5b		 pop	 ebx
  0009c	8b e5		 mov	 esp, ebp
  0009e	5d		 pop	 ebp
  0009f	c2 04 00	 ret	 4
$LN106@operator:

; 1368 :         if (_First == _Last) {

  000a2	3b d3		 cmp	 edx, ebx
  000a4	74 e6		 je	 SHORT $LN117@operator

; 1369 :             return _Last;
; 1370 :         }
; 1371 : 
; 1372 :         const auto _Predecessor = _First->_Prev;

  000a6	8b 42 04	 mov	 eax, DWORD PTR [edx+4]

; 1373 : #if _ITERATOR_DEBUG_LEVEL == 2
; 1374 :         const auto _Head = _Mypair._Myval2._Myhead;
; 1375 :         if (_First == _Head->_Next && _Last == _Head) { // orphan all non-end iterators
; 1376 :             _Mypair._Myval2._Orphan_non_end();
; 1377 :         } else { // orphan erased iterators
; 1378 :             _Lockit _Lock(_LOCK_DEBUG);
; 1379 :             for (auto _Marked = _First; _Marked != _Last; _Marked = _Marked->_Next) { // mark erased nodes
; 1380 :                 _Marked->_Prev = nullptr;
; 1381 :             }
; 1382 : 
; 1383 :             _Iterator_base12** _Pnext = &_Mypair._Myval2._Myproxy->_Myfirstiter;
; 1384 :             while (*_Pnext) {
; 1385 :                 _Iterator_base12** _Pnextnext = &(*_Pnext)->_Mynextiter;
; 1386 :                 if (static_cast<const_iterator&>(**_Pnext)._Ptr->_Prev) { // node still has a _Prev, skip
; 1387 :                     _Pnext = _Pnextnext;
; 1388 :                 } else { // orphan the iterator
; 1389 :                     (*_Pnext)->_Myproxy = nullptr;
; 1390 :                     *_Pnext             = *_Pnextnext;
; 1391 :                 }
; 1392 :             }
; 1393 : 
; 1394 :             // _Prev pointers not restored because we're about to delete the nodes of which they are a member anyway
; 1395 :         }
; 1396 : #endif // _ITERATOR_DEBUG_LEVEL == 2
; 1397 : 
; 1398 :         // snip out the removed range
; 1399 :         _Predecessor->_Next = _Last;
; 1400 :         _Last->_Prev        = _Predecessor;
; 1401 : 
; 1402 :         // count and deallocate the removed nodes
; 1403 :         auto& _Al           = _Getal();
; 1404 :         size_type _Erasures = 0;

  000a9	33 ff		 xor	 edi, edi
  000ab	89 18		 mov	 DWORD PTR [eax], ebx
  000ad	89 43 04	 mov	 DWORD PTR [ebx+4], eax
$LL68@operator:

; 1405 :         do {
; 1406 :             const auto _Next = _First->_Next;

  000b0	8b 32		 mov	 esi, DWORD PTR [edx]
; File C:\Program Files (x86)\Microsoft Visual Studio\2019\Community\VC\Tools\MSVC\14.29.30133\include\xmemory

; 255  :         ::operator delete(_Ptr, _Bytes);

  000b2	6a 0c		 push	 12			; 0000000cH
  000b4	52		 push	 edx
  000b5	e8 00 00 00 00	 call	 ??3@YAXPAXI@Z		; operator delete
  000ba	83 c4 08	 add	 esp, 8
; File C:\Program Files (x86)\Microsoft Visual Studio\2019\Community\VC\Tools\MSVC\14.29.30133\include\list

; 1409 :             ++_Erasures;

  000bd	47		 inc	 edi
  000be	8b d6		 mov	 edx, esi

; 1410 :         } while (_First != _Last);

  000c0	3b f3		 cmp	 esi, ebx
  000c2	75 ec		 jne	 SHORT $LL68@operator
  000c4	89 7d 08	 mov	 DWORD PTR __Erasures$1$[ebp], edi

; 1411 : 
; 1412 :         _Mypair._Myval2._Mysize -= _Erasures;

  000c7	8b 7d f0	 mov	 edi, DWORD PTR _this$1$[ebp]
  000ca	8b 45 08	 mov	 eax, DWORD PTR __Erasures$1$[ebp]
  000cd	29 47 04	 sub	 DWORD PTR [edi+4], eax
  000d0	eb ba		 jmp	 SHORT $LN117@operator
_TEXT	ENDS
;	COMDAT text$x
text$x	SEGMENT
__unwindfunclet$??4?$list@PAVCGraphImp@@V?$allocator@PAVCGraphImp@@@std@@@std@@QAEAAV01@ABV01@@Z$0:
  00000	8d 4d e0	 lea	 ecx, DWORD PTR __Op$2[ebp]
  00003	e9 00 00 00 00	 jmp	 ??1?$_List_node_insert_op2@V?$allocator@U?$_List_node@PAVCGraphImp@@PAX@std@@@std@@@std@@QAE@XZ ; std::_List_node_insert_op2<std::allocator<std::_List_node<CGraphImp *,void *> > >::~_List_node_insert_op2<std::allocator<std::_List_node<CGraphImp *,void *> > >
  00008	cc		 int	 3
  00009	cc		 int	 3
  0000a	cc		 int	 3
  0000b	cc		 int	 3
  0000c	cc		 int	 3
__ehhandler$??4?$list@PAVCGraphImp@@V?$allocator@PAVCGraphImp@@@std@@@std@@QAEAAV01@ABV01@@Z:
  0000d	90		 npad	 1
  0000e	90		 npad	 1
  0000f	8b 54 24 08	 mov	 edx, DWORD PTR [esp+8]
  00013	8d 42 0c	 lea	 eax, DWORD PTR [edx+12]
  00016	8b 4a dc	 mov	 ecx, DWORD PTR [edx-36]
  00019	33 c8		 xor	 ecx, eax
  0001b	e8 00 00 00 00	 call	 @__security_check_cookie@4
  00020	b8 00 00 00 00	 mov	 eax, OFFSET __ehfuncinfo$??4?$list@PAVCGraphImp@@V?$allocator@PAVCGraphImp@@@std@@@std@@QAEAAV01@ABV01@@Z
  00025	e9 00 00 00 00	 jmp	 ___CxxFrameHandler3
text$x	ENDS
??4?$list@PAVCGraphImp@@V?$allocator@PAVCGraphImp@@@std@@@std@@QAEAAV01@ABV01@@Z ENDP ; std::list<CGraphImp *,std::allocator<CGraphImp *> >::operator=
; Function compile flags: /Ogtp
; File C:\Program Files (x86)\Microsoft Visual Studio\2019\Community\VC\Tools\MSVC\14.29.30133\include\list
; File C:\Program Files (x86)\Microsoft Visual Studio\2019\Community\VC\Tools\MSVC\14.29.30133\include\xmemory
; File C:\Program Files (x86)\Microsoft Visual Studio\2019\Community\VC\Tools\MSVC\14.29.30133\include\list
; File C:\Program Files (x86)\Microsoft Visual Studio\2019\Community\VC\Tools\MSVC\14.29.30133\include\xmemory
; File C:\Program Files (x86)\Microsoft Visual Studio\2019\Community\VC\Tools\MSVC\14.29.30133\include\list
;	COMDAT ??1?$list@PAVCGraphImp@@V?$allocator@PAVCGraphImp@@@std@@@std@@QAE@XZ
_TEXT	SEGMENT
??1?$list@PAVCGraphImp@@V?$allocator@PAVCGraphImp@@@std@@@std@@QAE@XZ PROC ; std::list<CGraphImp *,std::allocator<CGraphImp *> >::~list<CGraphImp *,std::allocator<CGraphImp *> >, COMDAT
; _this$ = ecx

; 1036 :     ~list() noexcept {

  00000	57		 push	 edi
  00001	8b f9		 mov	 edi, ecx

; 1431 :         _Node::_Free_non_head(_Al, _My_data._Myhead);

  00003	8b 17		 mov	 edx, DWORD PTR [edi]

; 323  :         _Head->_Prev->_Next = nullptr;

  00005	8b 42 04	 mov	 eax, DWORD PTR [edx+4]
  00008	c7 00 00 00 00
	00		 mov	 DWORD PTR [eax], 0

; 324  : 
; 325  :         auto _Pnode = _Head->_Next;

  0000e	8b 02		 mov	 eax, DWORD PTR [edx]

; 326  :         for (_Nodeptr _Pnext; _Pnode; _Pnode = _Pnext) {

  00010	85 c0		 test	 eax, eax
  00012	74 15		 je	 SHORT $LN7@list
  00014	56		 push	 esi
$LL8@list:

; 327  :             _Pnext = _Pnode->_Next;

  00015	8b 30		 mov	 esi, DWORD PTR [eax]
; File C:\Program Files (x86)\Microsoft Visual Studio\2019\Community\VC\Tools\MSVC\14.29.30133\include\xmemory

; 255  :         ::operator delete(_Ptr, _Bytes);

  00017	6a 0c		 push	 12			; 0000000cH
  00019	50		 push	 eax
  0001a	e8 00 00 00 00	 call	 ??3@YAXPAXI@Z		; operator delete
  0001f	83 c4 08	 add	 esp, 8
; File C:\Program Files (x86)\Microsoft Visual Studio\2019\Community\VC\Tools\MSVC\14.29.30133\include\list

; 326  :         for (_Nodeptr _Pnext; _Pnode; _Pnode = _Pnext) {

  00022	8b c6		 mov	 eax, esi
  00024	85 f6		 test	 esi, esi
  00026	75 ed		 jne	 SHORT $LL8@list
  00028	5e		 pop	 esi
$LN7@list:
; File C:\Program Files (x86)\Microsoft Visual Studio\2019\Community\VC\Tools\MSVC\14.29.30133\include\xmemory

; 255  :         ::operator delete(_Ptr, _Bytes);

  00029	6a 0c		 push	 12			; 0000000cH
  0002b	ff 37		 push	 DWORD PTR [edi]
  0002d	e8 00 00 00 00	 call	 ??3@YAXPAXI@Z		; operator delete
  00032	83 c4 08	 add	 esp, 8
  00035	5f		 pop	 edi
; File C:\Program Files (x86)\Microsoft Visual Studio\2019\Community\VC\Tools\MSVC\14.29.30133\include\list

; 1042 :     }

  00036	c3		 ret	 0
??1?$list@PAVCGraphImp@@V?$allocator@PAVCGraphImp@@@std@@@std@@QAE@XZ ENDP ; std::list<CGraphImp *,std::allocator<CGraphImp *> >::~list<CGraphImp *,std::allocator<CGraphImp *> >
_TEXT	ENDS
; Function compile flags: /Ogtp
; File D:\git\src\IBK\IBK_DRFN\ProjSrc\SrcChartEx\ChartOCX\ChartObject\PacketRQ.cpp
; File C:\Program Files (x86)\Microsoft Visual Studio\2019\Community\VC\Tools\MSVC\14.29.30133\include\list
; File D:\git\src\IBK\IBK_DRFN\ProjSrc\SrcChartEx\ChartOCX\ChartObject\PacketRQ.cpp
; File C:\Program Files (x86)\Microsoft Visual Studio\2019\Community\VC\Tools\MSVC\14.29.30133\include\list
; File C:\Program Files (x86)\Microsoft Visual Studio\2019\Community\VC\Tools\MSVC\14.29.30133\include\xmemory
; File C:\Program Files (x86)\Microsoft Visual Studio\2019\Community\VC\Tools\MSVC\14.29.30133\include\list
; File C:\Program Files (x86)\Microsoft Visual Studio\2019\Community\VC\Tools\MSVC\14.29.30133\include\xmemory
; File C:\Program Files (x86)\Microsoft Visual Studio\2019\Community\VC\Tools\MSVC\14.29.30133\include\list
; File C:\Program Files (x86)\Microsoft Visual Studio\2019\Community\VC\Tools\MSVC\14.29.30133\include\xmemory
; File C:\Program Files (x86)\Microsoft Visual Studio\2019\Community\VC\Tools\MSVC\14.29.30133\include\list
; File D:\git\src\IBK\IBK_DRFN\ProjSrc\SrcChartEx\ChartOCX\ChartObject\PacketRQ.cpp
; File D:\git\src\IBK\IBK_DRFN\ProjSrc\SrcChartEx\ChartOCX\ChartObject\PacketRQ.h
; File D:\git\src\IBK\IBK_DRFN\ProjSrc\SrcChartEx\ChartOCX\ChartObject\PacketRQ.cpp
; File C:\Program Files (x86)\Microsoft Visual Studio\2019\Community\VC\Tools\MSVC\14.29.30133\include\list
; File C:\Program Files (x86)\Microsoft Visual Studio\2019\Community\VC\Tools\MSVC\14.29.30133\include\xmemory
; File C:\Program Files (x86)\Microsoft Visual Studio\2019\Community\VC\Tools\MSVC\14.29.30133\include\list
; File C:\Program Files (x86)\Microsoft Visual Studio\2019\Community\VC\Tools\MSVC\14.29.30133\include\xmemory
; File D:\git\src\IBK\IBK_DRFN\ProjSrc\SrcChartEx\ChartOCX\ChartObject\PacketRQ.cpp
;	COMDAT ?Change@CPacketRQ@@QAEXAAV1@@Z
_TEXT	SEGMENT
__Appended$2 = -52					; size = 16
_listGraph$ = -36					; size = 8
__Newnode$3 = -28					; size = 8
_lpszPacketName$1$ = -24				; size = 4
_lpszPacketName$1$ = -20				; size = 4
_lpszItemName$1$ = -16					; size = 4
__$EHRec$ = -12						; size = 12
_lpszItemCode$1$ = 8					; size = 4
_packetRQ$ = 8						; size = 4
?Change@CPacketRQ@@QAEXAAV1@@Z PROC			; CPacketRQ::Change, COMDAT
; _this$ = ecx

; 200  : {

  00000	55		 push	 ebp
  00001	8b ec		 mov	 ebp, esp
  00003	6a ff		 push	 -1
  00005	68 00 00 00 00	 push	 __ehhandler$?Change@CPacketRQ@@QAEXAAV1@@Z
  0000a	64 a1 00 00 00
	00		 mov	 eax, DWORD PTR fs:0
  00010	50		 push	 eax
  00011	83 ec 28	 sub	 esp, 40			; 00000028H
  00014	53		 push	 ebx
  00015	56		 push	 esi
  00016	57		 push	 edi
  00017	a1 00 00 00 00	 mov	 eax, DWORD PTR ___security_cookie
  0001c	33 c5		 xor	 eax, ebp
  0001e	50		 push	 eax
  0001f	8d 45 f4	 lea	 eax, DWORD PTR __$EHRec$[ebp]
  00022	64 a3 00 00 00
	00		 mov	 DWORD PTR fs:0, eax
  00028	8b f1		 mov	 esi, ecx

; 201  : 	if(this == &packetRQ)

  0002a	8b 7d 08	 mov	 edi, DWORD PTR _packetRQ$[ebp]
  0002d	3b f7		 cmp	 esi, edi
  0002f	0f 84 5f 01 00
	00		 je	 $LN170@Change

; 202  : 		return;
; 203  : 
; 204  : 	LPSTR lpszItemCode = ::strdup(packetRQ.GetItemCode());

  00035	ff 77 08	 push	 DWORD PTR [edi+8]
  00038	8b 1d 00 00 00
	00		 mov	 ebx, DWORD PTR __imp__strdup
  0003e	ff d3		 call	 ebx

; 205  : 	LPSTR lpszItemName = ::strdup(packetRQ.GetItemName());

  00040	ff 77 0c	 push	 DWORD PTR [edi+12]
  00043	89 45 08	 mov	 DWORD PTR _lpszItemCode$1$[ebp], eax
  00046	ff d3		 call	 ebx
  00048	83 c4 08	 add	 esp, 8
  0004b	89 45 f0	 mov	 DWORD PTR _lpszItemName$1$[ebp], eax

; 206  : 
; 207  : 	packetRQ.SetItemCode(m_lpszItemCode, m_lpszItemName);

  0004e	8b cf		 mov	 ecx, edi
  00050	ff 76 0c	 push	 DWORD PTR [esi+12]
  00053	ff 76 08	 push	 DWORD PTR [esi+8]
  00056	e8 00 00 00 00	 call	 ?SetItemCode@CPacketRQ@@QAEXPBD0@Z ; CPacketRQ::SetItemCode

; 208  : 	SetItemCode(lpszItemCode, lpszItemName);

  0005b	ff 75 f0	 push	 DWORD PTR _lpszItemName$1$[ebp]
  0005e	8b ce		 mov	 ecx, esi
  00060	ff 75 08	 push	 DWORD PTR _lpszItemCode$1$[ebp]
  00063	e8 00 00 00 00	 call	 ?SetItemCode@CPacketRQ@@QAEXPBD0@Z ; CPacketRQ::SetItemCode

; 209  : 
; 210  : 	LPSTR lpszPacketName = ::strdup(packetRQ.GetPacketName());

  00068	ff 77 10	 push	 DWORD PTR [edi+16]
  0006b	ff d3		 call	 ebx

; 185  : 	if(m_lpszPacketName)

  0006d	8b 4f 10	 mov	 ecx, DWORD PTR [edi+16]

; 209  : 
; 210  : 	LPSTR lpszPacketName = ::strdup(packetRQ.GetPacketName());

  00070	83 c4 04	 add	 esp, 4

; 185  : 	if(m_lpszPacketName)

  00073	8b 1d 00 00 00
	00		 mov	 ebx, DWORD PTR __imp__free

; 209  : 
; 210  : 	LPSTR lpszPacketName = ::strdup(packetRQ.GetPacketName());

  00079	89 45 ec	 mov	 DWORD PTR _lpszPacketName$1$[ebp], eax

; 211  : 
; 212  : 	packetRQ.SetPacketName(m_lpszPacketName);

  0007c	8b 46 10	 mov	 eax, DWORD PTR [esi+16]
  0007f	89 45 e8	 mov	 DWORD PTR _lpszPacketName$1$[ebp], eax

; 185  : 	if(m_lpszPacketName)

  00082	85 c9		 test	 ecx, ecx
  00084	74 09		 je	 SHORT $LN6@Change

; 186  : 		::free(m_lpszPacketName);

  00086	51		 push	 ecx
  00087	ff d3		 call	 ebx
  00089	8b 45 e8	 mov	 eax, DWORD PTR _lpszPacketName$1$[ebp]
  0008c	83 c4 04	 add	 esp, 4
$LN6@Change:

; 187  : 
; 188  : 	m_lpszPacketName = ::strdup(lpszPacketName);

  0008f	50		 push	 eax
  00090	ff 15 00 00 00
	00		 call	 DWORD PTR __imp__strdup
  00096	89 47 10	 mov	 DWORD PTR [edi+16], eax
  00099	83 c4 04	 add	 esp, 4

; 185  : 	if(m_lpszPacketName)

  0009c	8b 46 10	 mov	 eax, DWORD PTR [esi+16]
  0009f	85 c0		 test	 eax, eax
  000a1	74 06		 je	 SHORT $LN9@Change

; 186  : 		::free(m_lpszPacketName);

  000a3	50		 push	 eax
  000a4	ff d3		 call	 ebx
  000a6	83 c4 04	 add	 esp, 4
$LN9@Change:

; 187  : 
; 188  : 	m_lpszPacketName = ::strdup(lpszPacketName);

  000a9	ff 75 ec	 push	 DWORD PTR _lpszPacketName$1$[ebp]
  000ac	ff 15 00 00 00
	00		 call	 DWORD PTR __imp__strdup

; 219  : 
; 220  : 	::free(lpszItemCode);

  000b2	ff 75 08	 push	 DWORD PTR _lpszItemCode$1$[ebp]

; 188  : 	m_lpszPacketName = ::strdup(lpszPacketName);

  000b5	89 46 10	 mov	 DWORD PTR [esi+16], eax

; 213  : 	SetPacketName(lpszPacketName);
; 214  : 
; 215  : 	CPacketList* lpPacketList = packetRQ.GetPacketList();

  000b8	8b 4f 14	 mov	 ecx, DWORD PTR [edi+20]

; 216  : 	packetRQ.SetPacketList(m_pPacketList);

  000bb	8b 46 14	 mov	 eax, DWORD PTR [esi+20]
  000be	89 47 14	 mov	 DWORD PTR [edi+20], eax

; 217  : 
; 218  : 	m_pPacketList = lpPacketList;

  000c1	89 4e 14	 mov	 DWORD PTR [esi+20], ecx

; 219  : 
; 220  : 	::free(lpszItemCode);

  000c4	ff d3		 call	 ebx

; 221  : 	::free(lpszItemName);

  000c6	ff 75 f0	 push	 DWORD PTR _lpszItemName$1$[ebp]
  000c9	ff d3		 call	 ebx

; 222  : 	::free(lpszPacketName);

  000cb	ff 75 ec	 push	 DWORD PTR _lpszPacketName$1$[ebp]
  000ce	ff d3		 call	 ebx
; File C:\Program Files (x86)\Microsoft Visual Studio\2019\Community\VC\Tools\MSVC\14.29.30133\include\list

; 38   :     _List_unchecked_const_iterator(_Nodeptr _Pnode, const _Mylist* _Plist) noexcept : _Ptr(_Pnode) {

  000d0	8b 47 18	 mov	 eax, DWORD PTR [edi+24]

; 616  :     explicit _List_node_insert_op2(_Alnode& _Al_) : _Al(_Al_), _Added(0) {}

  000d3	8d 4d dc	 lea	 ecx, DWORD PTR _listGraph$[ebp]
; File D:\git\src\IBK\IBK_DRFN\ProjSrc\SrcChartEx\ChartOCX\ChartObject\PacketRQ.cpp

; 222  : 	::free(lpszPacketName);

  000d6	83 c4 10	 add	 esp, 16			; 00000010H
; File C:\Program Files (x86)\Microsoft Visual Studio\2019\Community\VC\Tools\MSVC\14.29.30133\include\list

; 352  :     _List_val() noexcept : _Myhead(), _Mysize(0) {} // initialize data

  000d9	c7 45 dc 00 00
	00 00		 mov	 DWORD PTR _listGraph$[ebp], 0
  000e0	c7 45 e0 00 00
	00 00		 mov	 DWORD PTR _listGraph$[ebp+4], 0

; 616  :     explicit _List_node_insert_op2(_Alnode& _Al_) : _Al(_Al_), _Added(0) {}

  000e7	89 4d cc	 mov	 DWORD PTR __Appended$2[ebp], ecx
  000ea	c7 45 d0 00 00
	00 00		 mov	 DWORD PTR __Appended$2[ebp+4], 0

; 856  :         _Appended._Append_range_unchecked(_First, _Last);

  000f1	50		 push	 eax
  000f2	ff 30		 push	 DWORD PTR [eax]
  000f4	8d 4d cc	 lea	 ecx, DWORD PTR __Appended$2[ebp]
  000f7	c7 45 fc 00 00
	00 00		 mov	 DWORD PTR __$EHRec$[ebp+8], 0
  000fe	e8 00 00 00 00	 call	 ??$_Append_range_unchecked@V?$_List_unchecked_const_iterator@V?$_List_val@U?$_List_simple_types@PAVCGraphImp@@@std@@@std@@U_Iterator_base0@2@@std@@V12@@?$_List_node_insert_op2@V?$allocator@U?$_List_node@PAVCGraphImp@@PAX@std@@@std@@@std@@QAEXV?$_List_unchecked_const_iterator@V?$_List_val@U?$_List_simple_types@PAVCGraphImp@@@std@@@std@@U_Iterator_base0@2@@1@V21@@Z ; std::_List_node_insert_op2<std::allocator<std::_List_node<CGraphImp *,void *> > >::_Append_range_unchecked<std::_List_unchecked_const_iterator<std::_List_val<std::_List_simple_types<CGraphImp *> >,std::_Iterator_base0>,std::_List_unchecked_const_iterator<std::_List_val<std::_List_simple_types<CGraphImp *> >,std::_Iterator_base0> >
; File C:\Program Files (x86)\Microsoft Visual Studio\2019\Community\VC\Tools\MSVC\14.29.30133\include\xmemory

; 958  :     _CONSTEXPR20_DYNALLOC explicit _Alloc_construct_ptr(_Alloc& _Al_) : _Al(_Al_), _Ptr(nullptr) {}

  00103	8b 45 cc	 mov	 eax, DWORD PTR __Appended$2[ebp]
  00106	89 45 e4	 mov	 DWORD PTR __Newnode$3[ebp], eax

; 79   :         return ::operator new(_Bytes);

  00109	6a 0c		 push	 12			; 0000000cH
; File C:\Program Files (x86)\Microsoft Visual Studio\2019\Community\VC\Tools\MSVC\14.29.30133\include\list

; 711  :         _Alloc_construct_ptr<_Alnode> _Newnode(_Al);

  0010b	c6 45 fc 01	 mov	 BYTE PTR __$EHRec$[ebp+8], 1
; File C:\Program Files (x86)\Microsoft Visual Studio\2019\Community\VC\Tools\MSVC\14.29.30133\include\xmemory

; 965  :         _Ptr = nullptr; // if allocate throws, prevents double-free

  0010f	c7 45 e8 00 00
	00 00		 mov	 DWORD PTR __Newnode$3[ebp+4], 0

; 79   :         return ::operator new(_Bytes);

  00116	e8 00 00 00 00	 call	 ??2@YAPAXI@Z		; operator new
; File C:\Program Files (x86)\Microsoft Visual Studio\2019\Community\VC\Tools\MSVC\14.29.30133\include\list

; 714  :         if (_Local_added == 0) {

  0011b	8b 5d d0	 mov	 ebx, DWORD PTR __Appended$2[ebp+4]
; File C:\Program Files (x86)\Microsoft Visual Studio\2019\Community\VC\Tools\MSVC\14.29.30133\include\xmemory

; 79   :         return ::operator new(_Bytes);

  0011e	83 c4 04	 add	 esp, 4

; 235  :         return _Traits::_Allocate(_Bytes);

  00121	8b d0		 mov	 edx, eax
; File C:\Program Files (x86)\Microsoft Visual Studio\2019\Community\VC\Tools\MSVC\14.29.30133\include\list

; 714  :         if (_Local_added == 0) {

  00123	85 db		 test	 ebx, ebx
  00125	75 07		 jne	 SHORT $LN31@Change

; 715  :             _Construct_in_place(_Newnode._Ptr->_Next, _Newnode._Ptr);

  00127	89 12		 mov	 DWORD PTR [edx], edx

; 716  :             _Construct_in_place(_Newnode._Ptr->_Prev, _Newnode._Ptr);

  00129	89 52 04	 mov	 DWORD PTR [edx+4], edx

; 717  :         } else {

  0012c	eb 10		 jmp	 SHORT $LN32@Change
$LN31@Change:

; 718  :             const auto _Local_head = _Head;
; 719  :             const auto _Local_tail = _Tail;
; 720  :             _Construct_in_place(_Newnode._Ptr->_Next, _Local_head);

  0012e	8b 4d d8	 mov	 ecx, DWORD PTR __Appended$2[ebp+12]

; 721  :             _Construct_in_place(_Newnode._Ptr->_Prev, _Local_tail);

  00131	8b 45 d4	 mov	 eax, DWORD PTR __Appended$2[ebp+8]
  00134	89 0a		 mov	 DWORD PTR [edx], ecx
  00136	89 42 04	 mov	 DWORD PTR [edx+4], eax

; 722  :             _Construct_in_place(_Local_head->_Prev, _Newnode._Ptr);

  00139	89 51 04	 mov	 DWORD PTR [ecx+4], edx

; 723  :             _Construct_in_place(_Local_tail->_Next, _Newnode._Ptr);

  0013c	89 10		 mov	 DWORD PTR [eax], edx
$LN32@Change:

; 724  :         }
; 725  : 
; 726  :         _List_data._Mysize = _Local_added;

  0013e	89 5d e0	 mov	 DWORD PTR _listGraph$[ebp+4], ebx

; 727  :         _List_data._Myhead = _Newnode._Release();

  00141	89 55 dc	 mov	 DWORD PTR _listGraph$[ebp], edx
; File D:\git\src\IBK\IBK_DRFN\ProjSrc\SrcChartEx\ChartOCX\ChartObject\PacketRQ.cpp

; 225  : 	packetRQ.SetGraphList(m_listGraph);

  00144	83 c6 18	 add	 esi, 24			; 00000018H
  00147	c7 45 fc 02 00
	00 00		 mov	 DWORD PTR __$EHRec$[ebp+8], 2
; File D:\git\src\IBK\IBK_DRFN\ProjSrc\SrcChartEx\ChartOCX\ChartObject\PacketRQ.h

; 75   : 	void	SetGraphList(LIST_RQ_GRAPH& listGraph) { m_listGraph = listGraph; }

  0014e	56		 push	 esi
  0014f	8d 4f 18	 lea	 ecx, DWORD PTR [edi+24]
  00152	e8 00 00 00 00	 call	 ??4?$list@PAVCGraphImp@@V?$allocator@PAVCGraphImp@@@std@@@std@@QAEAAV01@ABV01@@Z ; std::list<CGraphImp *,std::allocator<CGraphImp *> >::operator=
; File D:\git\src\IBK\IBK_DRFN\ProjSrc\SrcChartEx\ChartOCX\ChartObject\PacketRQ.cpp

; 227  : 	m_listGraph = listGraph;

  00157	8d 45 dc	 lea	 eax, DWORD PTR _listGraph$[ebp]
  0015a	8b ce		 mov	 ecx, esi
  0015c	50		 push	 eax
  0015d	e8 00 00 00 00	 call	 ??4?$list@PAVCGraphImp@@V?$allocator@PAVCGraphImp@@@std@@@std@@QAEAAV01@ABV01@@Z ; std::list<CGraphImp *,std::allocator<CGraphImp *> >::operator=
; File C:\Program Files (x86)\Microsoft Visual Studio\2019\Community\VC\Tools\MSVC\14.29.30133\include\list

; 1431 :         _Node::_Free_non_head(_Al, _My_data._Myhead);

  00162	8b 4d dc	 mov	 ecx, DWORD PTR _listGraph$[ebp]

; 323  :         _Head->_Prev->_Next = nullptr;

  00165	8b 41 04	 mov	 eax, DWORD PTR [ecx+4]
  00168	c7 00 00 00 00
	00		 mov	 DWORD PTR [eax], 0

; 324  : 
; 325  :         auto _Pnode = _Head->_Next;

  0016e	8b 01		 mov	 eax, DWORD PTR [ecx]

; 326  :         for (_Nodeptr _Pnext; _Pnode; _Pnode = _Pnext) {

  00170	85 c0		 test	 eax, eax
  00172	74 13		 je	 SHORT $LN136@Change
$LL137@Change:

; 327  :             _Pnext = _Pnode->_Next;

  00174	8b 30		 mov	 esi, DWORD PTR [eax]
; File C:\Program Files (x86)\Microsoft Visual Studio\2019\Community\VC\Tools\MSVC\14.29.30133\include\xmemory

; 255  :         ::operator delete(_Ptr, _Bytes);

  00176	6a 0c		 push	 12			; 0000000cH
  00178	50		 push	 eax
  00179	e8 00 00 00 00	 call	 ??3@YAXPAXI@Z		; operator delete
  0017e	83 c4 08	 add	 esp, 8
; File C:\Program Files (x86)\Microsoft Visual Studio\2019\Community\VC\Tools\MSVC\14.29.30133\include\list

; 326  :         for (_Nodeptr _Pnext; _Pnode; _Pnode = _Pnext) {

  00181	8b c6		 mov	 eax, esi
  00183	85 f6		 test	 esi, esi
  00185	75 ed		 jne	 SHORT $LL137@Change
$LN136@Change:
; File C:\Program Files (x86)\Microsoft Visual Studio\2019\Community\VC\Tools\MSVC\14.29.30133\include\xmemory

; 255  :         ::operator delete(_Ptr, _Bytes);

  00187	6a 0c		 push	 12			; 0000000cH
  00189	ff 75 dc	 push	 DWORD PTR _listGraph$[ebp]
  0018c	e8 00 00 00 00	 call	 ??3@YAXPAXI@Z		; operator delete
  00191	83 c4 08	 add	 esp, 8
$LN170@Change:
; File D:\git\src\IBK\IBK_DRFN\ProjSrc\SrcChartEx\ChartOCX\ChartObject\PacketRQ.cpp

; 228  : }

  00194	8b 4d f4	 mov	 ecx, DWORD PTR __$EHRec$[ebp]
  00197	64 89 0d 00 00
	00 00		 mov	 DWORD PTR fs:0, ecx
  0019e	59		 pop	 ecx
  0019f	5f		 pop	 edi
  001a0	5e		 pop	 esi
  001a1	5b		 pop	 ebx
  001a2	8b e5		 mov	 esp, ebp
  001a4	5d		 pop	 ebp
  001a5	c2 04 00	 ret	 4
_TEXT	ENDS
;	COMDAT text$x
text$x	SEGMENT
__unwindfunclet$?Change@CPacketRQ@@QAEXAAV1@@Z$1:
  00000	8d 4d cc	 lea	 ecx, DWORD PTR __Appended$2[ebp]
  00003	e9 00 00 00 00	 jmp	 ??1?$_List_node_insert_op2@V?$allocator@U?$_List_node@PAVCGraphImp@@PAX@std@@@std@@@std@@QAE@XZ ; std::_List_node_insert_op2<std::allocator<std::_List_node<CGraphImp *,void *> > >::~_List_node_insert_op2<std::allocator<std::_List_node<CGraphImp *,void *> > >
__unwindfunclet$?Change@CPacketRQ@@QAEXAAV1@@Z$2:
  00008	8d 4d e4	 lea	 ecx, DWORD PTR __Newnode$3[ebp]
  0000b	e9 00 00 00 00	 jmp	 ??1?$_Alloc_construct_ptr@V?$allocator@U?$_List_node@PAVCGraphImp@@PAX@std@@@std@@@std@@QAE@XZ ; std::_Alloc_construct_ptr<std::allocator<std::_List_node<CGraphImp *,void *> > >::~_Alloc_construct_ptr<std::allocator<std::_List_node<CGraphImp *,void *> > >
__unwindfunclet$?Change@CPacketRQ@@QAEXAAV1@@Z$0:
  00010	8d 4d dc	 lea	 ecx, DWORD PTR _listGraph$[ebp]
  00013	e9 00 00 00 00	 jmp	 ??1?$list@PAVCGraphImp@@V?$allocator@PAVCGraphImp@@@std@@@std@@QAE@XZ ; std::list<CGraphImp *,std::allocator<CGraphImp *> >::~list<CGraphImp *,std::allocator<CGraphImp *> >
  00018	cc		 int	 3
  00019	cc		 int	 3
  0001a	cc		 int	 3
  0001b	cc		 int	 3
  0001c	cc		 int	 3
__ehhandler$?Change@CPacketRQ@@QAEXAAV1@@Z:
  0001d	90		 npad	 1
  0001e	90		 npad	 1
  0001f	8b 54 24 08	 mov	 edx, DWORD PTR [esp+8]
  00023	8d 42 0c	 lea	 eax, DWORD PTR [edx+12]
  00026	8b 4a c8	 mov	 ecx, DWORD PTR [edx-56]
  00029	33 c8		 xor	 ecx, eax
  0002b	e8 00 00 00 00	 call	 @__security_check_cookie@4
  00030	b8 00 00 00 00	 mov	 eax, OFFSET __ehfuncinfo$?Change@CPacketRQ@@QAEXAAV1@@Z
  00035	e9 00 00 00 00	 jmp	 ___CxxFrameHandler3
text$x	ENDS
?Change@CPacketRQ@@QAEXAAV1@@Z ENDP			; CPacketRQ::Change
; Function compile flags: /Ogtp
; File D:\git\src\IBK\IBK_DRFN\ProjSrc\SrcChartEx\ChartOCX\ChartObject\PacketRQ.cpp
;	COMDAT ?SetPacketName@CPacketRQ@@QAEXPBD@Z
_TEXT	SEGMENT
_lpszPacketName$ = 8					; size = 4
?SetPacketName@CPacketRQ@@QAEXPBD@Z PROC		; CPacketRQ::SetPacketName, COMDAT
; _this$ = ecx

; 184  : {

  00000	55		 push	 ebp
  00001	8b ec		 mov	 ebp, esp
  00003	56		 push	 esi
  00004	8b f1		 mov	 esi, ecx

; 185  : 	if(m_lpszPacketName)

  00006	8b 46 10	 mov	 eax, DWORD PTR [esi+16]
  00009	85 c0		 test	 eax, eax
  0000b	74 0a		 je	 SHORT $LN2@SetPacketN

; 186  : 		::free(m_lpszPacketName);

  0000d	50		 push	 eax
  0000e	ff 15 00 00 00
	00		 call	 DWORD PTR __imp__free
  00014	83 c4 04	 add	 esp, 4
$LN2@SetPacketN:

; 187  : 
; 188  : 	m_lpszPacketName = ::strdup(lpszPacketName);

  00017	ff 75 08	 push	 DWORD PTR _lpszPacketName$[ebp]
  0001a	ff 15 00 00 00
	00		 call	 DWORD PTR __imp__strdup
  00020	83 c4 04	 add	 esp, 4
  00023	89 46 10	 mov	 DWORD PTR [esi+16], eax
  00026	5e		 pop	 esi

; 189  : }

  00027	5d		 pop	 ebp
  00028	c2 04 00	 ret	 4
?SetPacketName@CPacketRQ@@QAEXPBD@Z ENDP		; CPacketRQ::SetPacketName
_TEXT	ENDS
; Function compile flags: /Ogtp
; File D:\git\src\IBK\IBK_DRFN\ProjSrc\SrcChartEx\ChartOCX\ChartObject\PacketRQ.cpp
;	COMDAT ?SetItemName@CPacketRQ@@QAEXPBD@Z
_TEXT	SEGMENT
_lpszItemName$ = 8					; size = 4
?SetItemName@CPacketRQ@@QAEXPBD@Z PROC			; CPacketRQ::SetItemName, COMDAT
; _this$ = ecx

; 176  : {

  00000	55		 push	 ebp
  00001	8b ec		 mov	 ebp, esp
  00003	56		 push	 esi
  00004	8b f1		 mov	 esi, ecx

; 177  : 	if(m_lpszItemName)

  00006	8b 46 0c	 mov	 eax, DWORD PTR [esi+12]
  00009	85 c0		 test	 eax, eax
  0000b	74 0a		 je	 SHORT $LN2@SetItemNam

; 178  : 		::free(m_lpszItemName);

  0000d	50		 push	 eax
  0000e	ff 15 00 00 00
	00		 call	 DWORD PTR __imp__free
  00014	83 c4 04	 add	 esp, 4
$LN2@SetItemNam:

; 179  : 
; 180  : 	m_lpszItemName = ::strdup(lpszItemName);

  00017	ff 75 08	 push	 DWORD PTR _lpszItemName$[ebp]
  0001a	ff 15 00 00 00
	00		 call	 DWORD PTR __imp__strdup
  00020	83 c4 04	 add	 esp, 4
  00023	89 46 0c	 mov	 DWORD PTR [esi+12], eax
  00026	5e		 pop	 esi

; 181  : }

  00027	5d		 pop	 ebp
  00028	c2 04 00	 ret	 4
?SetItemName@CPacketRQ@@QAEXPBD@Z ENDP			; CPacketRQ::SetItemName
_TEXT	ENDS
; Function compile flags: /Ogtp
; File D:\git\src\IBK\IBK_DRFN\ProjSrc\SrcChartEx\ChartOCX\ChartObject\PacketRQ.cpp
;	COMDAT ?SetItemCode@CPacketRQ@@QAEXPBD@Z
_TEXT	SEGMENT
_lpszItemCode$ = 8					; size = 4
?SetItemCode@CPacketRQ@@QAEXPBD@Z PROC			; CPacketRQ::SetItemCode, COMDAT
; _this$ = ecx

; 168  : {

  00000	55		 push	 ebp
  00001	8b ec		 mov	 ebp, esp
  00003	56		 push	 esi
  00004	8b f1		 mov	 esi, ecx

; 169  : 	if(m_lpszItemCode)

  00006	8b 46 08	 mov	 eax, DWORD PTR [esi+8]
  00009	85 c0		 test	 eax, eax
  0000b	74 0a		 je	 SHORT $LN2@SetItemCod

; 170  : 		::free(m_lpszItemCode);

  0000d	50		 push	 eax
  0000e	ff 15 00 00 00
	00		 call	 DWORD PTR __imp__free
  00014	83 c4 04	 add	 esp, 4
$LN2@SetItemCod:

; 171  : 
; 172  : 	m_lpszItemCode = ::strdup(lpszItemCode);

  00017	ff 75 08	 push	 DWORD PTR _lpszItemCode$[ebp]
  0001a	ff 15 00 00 00
	00		 call	 DWORD PTR __imp__strdup
  00020	83 c4 04	 add	 esp, 4
  00023	89 46 08	 mov	 DWORD PTR [esi+8], eax
  00026	5e		 pop	 esi

; 173  : }

  00027	5d		 pop	 ebp
  00028	c2 04 00	 ret	 4
?SetItemCode@CPacketRQ@@QAEXPBD@Z ENDP			; CPacketRQ::SetItemCode
_TEXT	ENDS
; Function compile flags: /Ogtp
; File D:\git\src\IBK\IBK_DRFN\ProjSrc\SrcChartEx\ChartOCX\ChartObject\PacketRQ.cpp
;	COMDAT ?SetItemRQ@CPacketRQ@@QAEXPBD@Z
_TEXT	SEGMENT
_lpszRQ$ = 8						; size = 4
?SetItemRQ@CPacketRQ@@QAEXPBD@Z PROC			; CPacketRQ::SetItemRQ, COMDAT
; _this$ = ecx

; 160  : {

  00000	55		 push	 ebp
  00001	8b ec		 mov	 ebp, esp
  00003	56		 push	 esi
  00004	8b f1		 mov	 esi, ecx

; 161  : 	if(m_lpszRQ)

  00006	8b 46 04	 mov	 eax, DWORD PTR [esi+4]
  00009	85 c0		 test	 eax, eax
  0000b	74 0a		 je	 SHORT $LN2@SetItemRQ

; 162  : 		::free(m_lpszRQ);

  0000d	50		 push	 eax
  0000e	ff 15 00 00 00
	00		 call	 DWORD PTR __imp__free
  00014	83 c4 04	 add	 esp, 4
$LN2@SetItemRQ:

; 163  : 
; 164  : 	m_lpszRQ = ::strdup(lpszRQ);

  00017	ff 75 08	 push	 DWORD PTR _lpszRQ$[ebp]
  0001a	ff 15 00 00 00
	00		 call	 DWORD PTR __imp__strdup
  00020	83 c4 04	 add	 esp, 4
  00023	89 46 04	 mov	 DWORD PTR [esi+4], eax
  00026	5e		 pop	 esi

; 165  : }

  00027	5d		 pop	 ebp
  00028	c2 04 00	 ret	 4
?SetItemRQ@CPacketRQ@@QAEXPBD@Z ENDP			; CPacketRQ::SetItemRQ
_TEXT	ENDS
; Function compile flags: /Ogtp
; File D:\git\src\IBK\IBK_DRFN\ProjSrc\SrcChartEx\ChartOCX\ChartObject\PacketRQ.cpp
;	COMDAT ?CreatePacketList@CPacketRQ@@QAEXV?$CStringT@DV?$StrTraitMFC_DLL@DV?$ChTraitsCRT@D@ATL@@@@@ATL@@W4REALTYPE@CPacketType@@H_NHABV23@NPAUIChartCtrl@@@Z
_TEXT	SEGMENT
$T2 = -16						; size = 4
__$EHRec$ = -12						; size = 12
_strPacketOption$ = 8					; size = 4
_eRealType$ = 12					; size = 4
_nLength$ = 16						; size = 4
_bUseRealData$ = 20					; size = 1
_nSize$ = 24						; size = 4
_szPacketName$ = 28					; size = 4
_dVersion$ = 32						; size = 8
_p_pIChartCtrl$ = 40					; size = 4
?CreatePacketList@CPacketRQ@@QAEXV?$CStringT@DV?$StrTraitMFC_DLL@DV?$ChTraitsCRT@D@ATL@@@@@ATL@@W4REALTYPE@CPacketType@@H_NHABV23@NPAUIChartCtrl@@@Z PROC ; CPacketRQ::CreatePacketList, COMDAT
; _this$ = ecx

; 96   : {

  00000	55		 push	 ebp
  00001	8b ec		 mov	 ebp, esp
  00003	6a ff		 push	 -1
  00005	68 00 00 00 00	 push	 __ehhandler$?CreatePacketList@CPacketRQ@@QAEXV?$CStringT@DV?$StrTraitMFC_DLL@DV?$ChTraitsCRT@D@ATL@@@@@ATL@@W4REALTYPE@CPacketType@@H_NHABV23@NPAUIChartCtrl@@@Z
  0000a	64 a1 00 00 00
	00		 mov	 eax, DWORD PTR fs:0
  00010	50		 push	 eax
  00011	51		 push	 ecx
  00012	56		 push	 esi
  00013	57		 push	 edi
  00014	a1 00 00 00 00	 mov	 eax, DWORD PTR ___security_cookie
  00019	33 c5		 xor	 eax, ebp
  0001b	50		 push	 eax
  0001c	8d 45 f4	 lea	 eax, DWORD PTR __$EHRec$[ebp]
  0001f	64 a3 00 00 00
	00		 mov	 DWORD PTR fs:0, eax
  00025	8b f9		 mov	 edi, ecx

; 97   : 	m_pPacketList = new CPacketList(strPacketOption, eRealType, p_pIChartCtrl);

  00027	6a 08		 push	 8
  00029	c7 45 fc 00 00
	00 00		 mov	 DWORD PTR __$EHRec$[ebp+8], 0
  00030	e8 00 00 00 00	 call	 ??2@YAPAXI@Z		; operator new
  00035	8b f0		 mov	 esi, eax
  00037	83 c4 04	 add	 esp, 4
  0003a	89 75 f0	 mov	 DWORD PTR $T2[ebp], esi
  0003d	c6 45 fc 01	 mov	 BYTE PTR __$EHRec$[ebp+8], 1
  00041	85 f6		 test	 esi, esi
  00043	74 23		 je	 SHORT $LN3@CreatePack
  00045	ff 75 28	 push	 DWORD PTR _p_pIChartCtrl$[ebp]
  00048	8d 45 08	 lea	 eax, DWORD PTR _strPacketOption$[ebp]
  0004b	ff 75 0c	 push	 DWORD PTR _eRealType$[ebp]
  0004e	51		 push	 ecx
  0004f	8b cc		 mov	 ecx, esp
  00051	50		 push	 eax
  00052	ff 15 00 00 00
	00		 call	 DWORD PTR __imp_??0?$CStringT@DV?$StrTraitMFC_DLL@DV?$ChTraitsCRT@D@ATL@@@@@ATL@@QAE@ABV01@@Z
  00058	8b ce		 mov	 ecx, esi
  0005a	ff 15 00 00 00
	00		 call	 DWORD PTR __imp_??0CPacketList@@QAE@V?$CStringT@DV?$StrTraitMFC_DLL@DV?$ChTraitsCRT@D@ATL@@@@@ATL@@W4REALTYPE@CPacketType@@PAUIChartCtrl@@@Z
  00060	c7 06 00 00 00
	00		 mov	 DWORD PTR [esi], OFFSET ??_SCPacketList@@6B@
  00066	eb 02		 jmp	 SHORT $LN4@CreatePack
$LN3@CreatePack:
  00068	33 f6		 xor	 esi, esi
$LN4@CreatePack:

; 98   : 
; 99   : 	m_pPacketList->SetPacketLengthCount(nLength);

  0006a	ff 75 10	 push	 DWORD PTR _nLength$[ebp]
  0006d	8b ce		 mov	 ecx, esi
  0006f	c6 45 fc 00	 mov	 BYTE PTR __$EHRec$[ebp+8], 0
  00073	89 77 14	 mov	 DWORD PTR [edi+20], esi
  00076	ff 15 00 00 00
	00		 call	 DWORD PTR __imp_?SetPacketLengthCount@CPacketList@@QAEXH@Z

; 100  : 	m_pPacketList->SetUseRealData(bUseRealData == FALSE ? FALSE : TRUE);

  0007c	ff 75 14	 push	 DWORD PTR _bUseRealData$[ebp]
  0007f	8b 4f 14	 mov	 ecx, DWORD PTR [edi+20]
  00082	ff 15 00 00 00
	00		 call	 DWORD PTR __imp_?SetUseRealData@CPacketList@@QAEX_N@Z

; 101  : 	m_pPacketList->SetHoldingPacketSize(nSize);

  00088	ff 75 18	 push	 DWORD PTR _nSize$[ebp]
  0008b	8b 4f 14	 mov	 ecx, DWORD PTR [edi+20]
  0008e	ff 15 00 00 00
	00		 call	 DWORD PTR __imp_?SetHoldingPacketSize@CPacketList@@QAEXH@Z

; 102  : 	m_pPacketList->SetBasePacketName(szPacketName);		

  00094	ff 75 1c	 push	 DWORD PTR _szPacketName$[ebp]
  00097	8b 4f 14	 mov	 ecx, DWORD PTR [edi+20]
  0009a	ff 15 00 00 00
	00		 call	 DWORD PTR __imp_?SetBasePacketName@CPacketList@@QAEXABV?$CStringT@DV?$StrTraitMFC_DLL@DV?$ChTraitsCRT@D@ATL@@@@@ATL@@@Z

; 103  : 	// ADD: (04/02/18) Packet  .
; 104  : 	m_pPacketList->SetVersion(dVersion);

  000a0	f2 0f 10 45 20	 movsd	 xmm0, QWORD PTR _dVersion$[ebp]
  000a5	83 ec 08	 sub	 esp, 8
  000a8	8b 4f 14	 mov	 ecx, DWORD PTR [edi+20]
  000ab	f2 0f 11 04 24	 movsd	 QWORD PTR [esp], xmm0
  000b0	ff 15 00 00 00
	00		 call	 DWORD PTR __imp_?SetVersion@CPacketList@@QAEXN@Z

; 105  : 	m_pPacketList->SetRQ(m_lpszRQ);

  000b6	ff 77 04	 push	 DWORD PTR [edi+4]
  000b9	8b 4f 14	 mov	 ecx, DWORD PTR [edi+20]
  000bc	ff 15 00 00 00
	00		 call	 DWORD PTR __imp_?SetRQ@CPacketList@@QAEXPBD@Z

; 106  : }

  000c2	8d 4d 08	 lea	 ecx, DWORD PTR _strPacketOption$[ebp]
  000c5	ff 15 00 00 00
	00		 call	 DWORD PTR __imp_??1?$CStringT@DV?$StrTraitMFC_DLL@DV?$ChTraitsCRT@D@ATL@@@@@ATL@@QAE@XZ
  000cb	8b 4d f4	 mov	 ecx, DWORD PTR __$EHRec$[ebp]
  000ce	64 89 0d 00 00
	00 00		 mov	 DWORD PTR fs:0, ecx
  000d5	59		 pop	 ecx
  000d6	5f		 pop	 edi
  000d7	5e		 pop	 esi
  000d8	8b e5		 mov	 esp, ebp
  000da	5d		 pop	 ebp
  000db	c2 24 00	 ret	 36			; 00000024H
_TEXT	ENDS
;	COMDAT text$x
text$x	SEGMENT
__unwindfunclet$?CreatePacketList@CPacketRQ@@QAEXV?$CStringT@DV?$StrTraitMFC_DLL@DV?$ChTraitsCRT@D@ATL@@@@@ATL@@W4REALTYPE@CPacketType@@H_NHABV23@NPAUIChartCtrl@@@Z$0:
  00000	8d 4d 08	 lea	 ecx, DWORD PTR _strPacketOption$[ebp]
  00003	ff 25 00 00 00
	00		 jmp	 DWORD PTR __imp_??1?$CStringT@DV?$StrTraitMFC_DLL@DV?$ChTraitsCRT@D@ATL@@@@@ATL@@QAE@XZ
__unwindfunclet$?CreatePacketList@CPacketRQ@@QAEXV?$CStringT@DV?$StrTraitMFC_DLL@DV?$ChTraitsCRT@D@ATL@@@@@ATL@@W4REALTYPE@CPacketType@@H_NHABV23@NPAUIChartCtrl@@@Z$1:
  00009	6a 08		 push	 8
  0000b	8b 45 f0	 mov	 eax, DWORD PTR $T2[ebp]
  0000e	50		 push	 eax
  0000f	e8 00 00 00 00	 call	 ??3@YAXPAXI@Z		; operator delete
  00014	83 c4 08	 add	 esp, 8
  00017	c3		 ret	 0
  00018	cc		 int	 3
  00019	cc		 int	 3
  0001a	cc		 int	 3
  0001b	cc		 int	 3
  0001c	cc		 int	 3
__ehhandler$?CreatePacketList@CPacketRQ@@QAEXV?$CStringT@DV?$StrTraitMFC_DLL@DV?$ChTraitsCRT@D@ATL@@@@@ATL@@W4REALTYPE@CPacketType@@H_NHABV23@NPAUIChartCtrl@@@Z:
  0001d	90		 npad	 1
  0001e	90		 npad	 1
  0001f	8b 54 24 08	 mov	 edx, DWORD PTR [esp+8]
  00023	8d 42 0c	 lea	 eax, DWORD PTR [edx+12]
  00026	8b 4a f0	 mov	 ecx, DWORD PTR [edx-16]
  00029	33 c8		 xor	 ecx, eax
  0002b	e8 00 00 00 00	 call	 @__security_check_cookie@4
  00030	b8 00 00 00 00	 mov	 eax, OFFSET __ehfuncinfo$?CreatePacketList@CPacketRQ@@QAEXV?$CStringT@DV?$StrTraitMFC_DLL@DV?$ChTraitsCRT@D@ATL@@@@@ATL@@W4REALTYPE@CPacketType@@H_NHABV23@NPAUIChartCtrl@@@Z
  00035	e9 00 00 00 00	 jmp	 ___CxxFrameHandler3
text$x	ENDS
?CreatePacketList@CPacketRQ@@QAEXV?$CStringT@DV?$StrTraitMFC_DLL@DV?$ChTraitsCRT@D@ATL@@@@@ATL@@W4REALTYPE@CPacketType@@H_NHABV23@NPAUIChartCtrl@@@Z ENDP ; CPacketRQ::CreatePacketList
; Function compile flags: /Ogtp
; File D:\git\src\IBK\IBK_DRFN\ProjSrc\SrcChartEx\ChartOCX\ChartObject\PacketRQ.cpp
;	COMDAT ?IsSameItemCode@CPacketRQ@@QAEHPBD@Z
_TEXT	SEGMENT
_lpszItemCode$ = 8					; size = 4
?IsSameItemCode@CPacketRQ@@QAEHPBD@Z PROC		; CPacketRQ::IsSameItemCode, COMDAT
; _this$ = ecx

; 91   : {

  00000	55		 push	 ebp
  00001	8b ec		 mov	 ebp, esp

; 92   : 	return !::strcmp(m_lpszItemCode, lpszItemCode);

  00003	8b 55 08	 mov	 edx, DWORD PTR _lpszItemCode$[ebp]
  00006	8b 41 08	 mov	 eax, DWORD PTR [ecx+8]
  00009	0f 1f 80 00 00
	00 00		 npad	 7
$LL3@IsSameItem:
  00010	8a 08		 mov	 cl, BYTE PTR [eax]
  00012	3a 0a		 cmp	 cl, BYTE PTR [edx]
  00014	75 23		 jne	 SHORT $LN4@IsSameItem
  00016	84 c9		 test	 cl, cl
  00018	74 12		 je	 SHORT $LN5@IsSameItem
  0001a	8a 48 01	 mov	 cl, BYTE PTR [eax+1]
  0001d	3a 4a 01	 cmp	 cl, BYTE PTR [edx+1]
  00020	75 17		 jne	 SHORT $LN4@IsSameItem
  00022	83 c0 02	 add	 eax, 2
  00025	83 c2 02	 add	 edx, 2
  00028	84 c9		 test	 cl, cl
  0002a	75 e4		 jne	 SHORT $LL3@IsSameItem
$LN5@IsSameItem:
  0002c	33 c9		 xor	 ecx, ecx
  0002e	33 c0		 xor	 eax, eax
  00030	85 c9		 test	 ecx, ecx
  00032	0f 94 c0	 sete	 al

; 93   : }

  00035	5d		 pop	 ebp
  00036	c2 04 00	 ret	 4
$LN4@IsSameItem:

; 92   : 	return !::strcmp(m_lpszItemCode, lpszItemCode);

  00039	1b c9		 sbb	 ecx, ecx
  0003b	33 c0		 xor	 eax, eax
  0003d	83 c9 01	 or	 ecx, 1
  00040	85 c9		 test	 ecx, ecx
  00042	0f 94 c0	 sete	 al

; 93   : }

  00045	5d		 pop	 ebp
  00046	c2 04 00	 ret	 4
?IsSameItemCode@CPacketRQ@@QAEHPBD@Z ENDP		; CPacketRQ::IsSameItemCode
_TEXT	ENDS
; Function compile flags: /Ogtp
; File D:\git\src\IBK\IBK_DRFN\ProjSrc\SrcChartEx\ChartOCX\ChartObject\PacketRQ.cpp
; File C:\Program Files (x86)\Microsoft Visual Studio\2019\Community\VC\Tools\MSVC\14.29.30133\include\list
; File D:\git\src\IBK\IBK_DRFN\ProjSrc\SrcChartEx\ChartOCX\ChartObject\PacketRQ.cpp
;	COMDAT ?IsEmptyRQGraph@CPacketRQ@@QAEHXZ
_TEXT	SEGMENT
?IsEmptyRQGraph@CPacketRQ@@QAEHXZ PROC			; CPacketRQ::IsEmptyRQGraph, COMDAT
; _this$ = ecx
; File C:\Program Files (x86)\Microsoft Visual Studio\2019\Community\VC\Tools\MSVC\14.29.30133\include\list

; 1191 :         return _Mypair._Myval2._Mysize == 0;

  00000	33 c0		 xor	 eax, eax
  00002	39 41 1c	 cmp	 DWORD PTR [ecx+28], eax
  00005	0f 94 c0	 sete	 al
; File D:\git\src\IBK\IBK_DRFN\ProjSrc\SrcChartEx\ChartOCX\ChartObject\PacketRQ.cpp

; 150  : }

  00008	c3		 ret	 0
?IsEmptyRQGraph@CPacketRQ@@QAEHXZ ENDP			; CPacketRQ::IsEmptyRQGraph
_TEXT	ENDS
; Function compile flags: /Ogtp
; File D:\git\src\IBK\IBK_DRFN\ProjSrc\SrcChartEx\ChartOCX\ChartObject\PacketRQ.cpp
; File C:\Program Files (x86)\Microsoft Visual Studio\2019\Community\VC\Tools\MSVC\14.29.30133\include\list
; File C:\Program Files (x86)\Microsoft Visual Studio\2019\Community\VC\Tools\MSVC\14.29.30133\include\xutility
; File C:\Program Files (x86)\Microsoft Visual Studio\2019\Community\VC\Tools\MSVC\14.29.30133\include\list
; File C:\Program Files (x86)\Microsoft Visual Studio\2019\Community\VC\Tools\MSVC\14.29.30133\include\xutility
; File D:\git\src\IBK\IBK_DRFN\ProjSrc\SrcChartEx\ChartOCX\ChartObject\PacketRQ.cpp
; File C:\Program Files (x86)\Microsoft Visual Studio\2019\Community\VC\Tools\MSVC\14.29.30133\include\list
; File C:\Program Files (x86)\Microsoft Visual Studio\2019\Community\VC\Tools\MSVC\14.29.30133\include\xmemory
; File C:\Program Files (x86)\Microsoft Visual Studio\2019\Community\VC\Tools\MSVC\14.29.30133\include\list
; File C:\Program Files (x86)\Microsoft Visual Studio\2019\Community\VC\Tools\MSVC\14.29.30133\include\xmemory
; File D:\git\src\IBK\IBK_DRFN\ProjSrc\SrcChartEx\ChartOCX\ChartObject\PacketRQ.cpp
;	COMDAT ?RemoveRQGraph@CPacketRQ@@QAEXPAVCGraphImp@@@Z
_TEXT	SEGMENT
_pGraph$ = 8						; size = 4
?RemoveRQGraph@CPacketRQ@@QAEXPAVCGraphImp@@@Z PROC	; CPacketRQ::RemoveRQGraph, COMDAT
; _this$ = ecx

; 140  : {

  00000	55		 push	 ebp
  00001	8b ec		 mov	 ebp, esp
  00003	57		 push	 edi
  00004	8b f9		 mov	 edi, ecx
; File C:\Program Files (x86)\Microsoft Visual Studio\2019\Community\VC\Tools\MSVC\14.29.30133\include\list

; 38   :     _List_unchecked_const_iterator(_Nodeptr _Pnode, const _Mylist* _Plist) noexcept : _Ptr(_Pnode) {

  00006	8b 57 18	 mov	 edx, DWORD PTR [edi+24]
  00009	8b 02		 mov	 eax, DWORD PTR [edx]

; 73   :         return _Ptr == _Right._Ptr;

  0000b	3b c2		 cmp	 eax, edx
; File C:\Program Files (x86)\Microsoft Visual Studio\2019\Community\VC\Tools\MSVC\14.29.30133\include\xutility

; 5185 :     for (; _First != _Last; ++_First) {

  0000d	74 33		 je	 SHORT $LN105@RemoveRQGr
  0000f	56		 push	 esi
  00010	8b 75 08	 mov	 esi, DWORD PTR _pGraph$[ebp]
$LL49@RemoveRQGr:

; 5186 :         if (*_First == _Val) {

  00013	39 70 08	 cmp	 DWORD PTR [eax+8], esi
  00016	74 0c		 je	 SHORT $LN112@RemoveRQGr
; File C:\Program Files (x86)\Microsoft Visual Studio\2019\Community\VC\Tools\MSVC\14.29.30133\include\list

; 51   :         _Ptr = _Ptr->_Next;

  00018	8b 00		 mov	 eax, DWORD PTR [eax]

; 73   :         return _Ptr == _Right._Ptr;

  0001a	3b c2		 cmp	 eax, edx
; File C:\Program Files (x86)\Microsoft Visual Studio\2019\Community\VC\Tools\MSVC\14.29.30133\include\xutility

; 5185 :     for (; _First != _Last; ++_First) {

  0001c	75 f5		 jne	 SHORT $LL49@RemoveRQGr
  0001e	5e		 pop	 esi
  0001f	5f		 pop	 edi
; File D:\git\src\IBK\IBK_DRFN\ProjSrc\SrcChartEx\ChartOCX\ChartObject\PacketRQ.cpp

; 145  : }

  00020	5d		 pop	 ebp
  00021	c2 04 00	 ret	 4
$LN112@RemoveRQGr:
; File C:\Program Files (x86)\Microsoft Visual Studio\2019\Community\VC\Tools\MSVC\14.29.30133\include\list

; 394  :         _Pnode->_Prev->_Next = _Pnode->_Next;

  00024	8b 50 04	 mov	 edx, DWORD PTR [eax+4]
  00027	8b 08		 mov	 ecx, DWORD PTR [eax]
; File C:\Program Files (x86)\Microsoft Visual Studio\2019\Community\VC\Tools\MSVC\14.29.30133\include\xmemory

; 255  :         ::operator delete(_Ptr, _Bytes);

  00029	6a 0c		 push	 12			; 0000000cH
  0002b	50		 push	 eax
; File C:\Program Files (x86)\Microsoft Visual Studio\2019\Community\VC\Tools\MSVC\14.29.30133\include\list

; 394  :         _Pnode->_Prev->_Next = _Pnode->_Next;

  0002c	89 0a		 mov	 DWORD PTR [edx], ecx

; 395  :         _Pnode->_Next->_Prev = _Pnode->_Prev;

  0002e	8b 10		 mov	 edx, DWORD PTR [eax]
  00030	8b 48 04	 mov	 ecx, DWORD PTR [eax+4]
  00033	89 4a 04	 mov	 DWORD PTR [edx+4], ecx

; 396  :         --_Mysize;

  00036	ff 4f 1c	 dec	 DWORD PTR [edi+28]
; File C:\Program Files (x86)\Microsoft Visual Studio\2019\Community\VC\Tools\MSVC\14.29.30133\include\xmemory

; 255  :         ::operator delete(_Ptr, _Bytes);

  00039	e8 00 00 00 00	 call	 ??3@YAXPAXI@Z		; operator delete
  0003e	83 c4 08	 add	 esp, 8
  00041	5e		 pop	 esi
$LN105@RemoveRQGr:
  00042	5f		 pop	 edi
; File D:\git\src\IBK\IBK_DRFN\ProjSrc\SrcChartEx\ChartOCX\ChartObject\PacketRQ.cpp

; 145  : }

  00043	5d		 pop	 ebp
  00044	c2 04 00	 ret	 4
?RemoveRQGraph@CPacketRQ@@QAEXPAVCGraphImp@@@Z ENDP	; CPacketRQ::RemoveRQGraph
_TEXT	ENDS
; Function compile flags: /Ogtp
; File D:\git\src\IBK\IBK_DRFN\ProjSrc\SrcChartEx\ChartOCX\ChartObject\PacketRQ.cpp
; File C:\Program Files (x86)\Microsoft Visual Studio\2019\Community\VC\Tools\MSVC\14.29.30133\include\list
; File C:\Program Files (x86)\Microsoft Visual Studio\2019\Community\VC\Tools\MSVC\14.29.30133\include\xutility
; File C:\Program Files (x86)\Microsoft Visual Studio\2019\Community\VC\Tools\MSVC\14.29.30133\include\list
; File C:\Program Files (x86)\Microsoft Visual Studio\2019\Community\VC\Tools\MSVC\14.29.30133\include\xutility
; File C:\Program Files (x86)\Microsoft Visual Studio\2019\Community\VC\Tools\MSVC\14.29.30133\include\list
; File C:\Program Files (x86)\Microsoft Visual Studio\2019\Community\VC\Tools\MSVC\14.29.30133\include\xutility
; File C:\Program Files (x86)\Microsoft Visual Studio\2019\Community\VC\Tools\MSVC\14.29.30133\include\list
; File C:\Program Files (x86)\Microsoft Visual Studio\2019\Community\VC\Tools\MSVC\14.29.30133\include\xmemory
; File C:\Program Files (x86)\Microsoft Visual Studio\2019\Community\VC\Tools\MSVC\14.29.30133\include\list
; File C:\Program Files (x86)\Microsoft Visual Studio\2019\Community\VC\Tools\MSVC\14.29.30133\include\xmemory
; File C:\Program Files (x86)\Microsoft Visual Studio\2019\Community\VC\Tools\MSVC\14.29.30133\include\list
; File D:\git\src\IBK\IBK_DRFN\ProjSrc\SrcChartEx\ChartOCX\ChartObject\PacketRQ.cpp
; File C:\Program Files (x86)\Microsoft Visual Studio\2019\Community\VC\Tools\MSVC\14.29.30133\include\list
; File D:\git\src\IBK\IBK_DRFN\ProjSrc\SrcChartEx\ChartOCX\ChartObject\PacketRQ.cpp
;	COMDAT ?AddRQGraph@CPacketRQ@@QAEXPAVCGraphImp@@@Z
_TEXT	SEGMENT
__Op$2 = -20						; size = 8
__$EHRec$ = -12						; size = 12
_pGraph$ = 8						; size = 4
?AddRQGraph@CPacketRQ@@QAEXPAVCGraphImp@@@Z PROC	; CPacketRQ::AddRQGraph, COMDAT
; _this$ = ecx

; 132  : {

  00000	55		 push	 ebp
  00001	8b ec		 mov	 ebp, esp
  00003	6a ff		 push	 -1
  00005	68 00 00 00 00	 push	 __ehhandler$?AddRQGraph@CPacketRQ@@QAEXPAVCGraphImp@@@Z
  0000a	64 a1 00 00 00
	00		 mov	 eax, DWORD PTR fs:0
  00010	50		 push	 eax
  00011	83 ec 08	 sub	 esp, 8
  00014	53		 push	 ebx
  00015	56		 push	 esi
  00016	57		 push	 edi
  00017	a1 00 00 00 00	 mov	 eax, DWORD PTR ___security_cookie
  0001c	33 c5		 xor	 eax, ebp
  0001e	50		 push	 eax
  0001f	8d 45 f4	 lea	 eax, DWORD PTR __$EHRec$[ebp]
  00022	64 a3 00 00 00
	00		 mov	 DWORD PTR fs:0, eax
; File C:\Program Files (x86)\Microsoft Visual Studio\2019\Community\VC\Tools\MSVC\14.29.30133\include\list

; 38   :     _List_unchecked_const_iterator(_Nodeptr _Pnode, const _Mylist* _Plist) noexcept : _Ptr(_Pnode) {

  00028	8b 71 18	 mov	 esi, DWORD PTR [ecx+24]

; 1091 :         return iterator(_Mypair._Myval2._Myhead, _STD addressof(_Mypair._Myval2));

  0002b	8d 59 18	 lea	 ebx, DWORD PTR [ecx+24]
; File C:\Program Files (x86)\Microsoft Visual Studio\2019\Community\VC\Tools\MSVC\14.29.30133\include\xutility

; 5185 :     for (; _First != _Last; ++_First) {

  0002e	8b 7d 08	 mov	 edi, DWORD PTR _pGraph$[ebp]
; File C:\Program Files (x86)\Microsoft Visual Studio\2019\Community\VC\Tools\MSVC\14.29.30133\include\list

; 38   :     _List_unchecked_const_iterator(_Nodeptr _Pnode, const _Mylist* _Plist) noexcept : _Ptr(_Pnode) {

  00031	8b 06		 mov	 eax, DWORD PTR [esi]
; File C:\Program Files (x86)\Microsoft Visual Studio\2019\Community\VC\Tools\MSVC\14.29.30133\include\xutility

; 5185 :     for (; _First != _Last; ++_First) {

  00033	3b c6		 cmp	 eax, esi
  00035	74 0d		 je	 SHORT $LN141@AddRQGraph
$LL49@AddRQGraph:

; 5186 :         if (*_First == _Val) {

  00037	39 78 08	 cmp	 DWORD PTR [eax+8], edi
  0003a	74 3f		 je	 SHORT $LN123@AddRQGraph
; File C:\Program Files (x86)\Microsoft Visual Studio\2019\Community\VC\Tools\MSVC\14.29.30133\include\list

; 51   :         _Ptr = _Ptr->_Next;

  0003c	8b 08		 mov	 ecx, DWORD PTR [eax]
  0003e	8b c1		 mov	 eax, ecx
; File C:\Program Files (x86)\Microsoft Visual Studio\2019\Community\VC\Tools\MSVC\14.29.30133\include\xutility

; 5185 :     for (; _First != _Last; ++_First) {

  00040	3b ce		 cmp	 ecx, esi
  00042	75 f3		 jne	 SHORT $LL49@AddRQGraph
$LN141@AddRQGraph:
; File C:\Program Files (x86)\Microsoft Visual Studio\2019\Community\VC\Tools\MSVC\14.29.30133\include\list

; 1005 :         if (_Mysize == max_size()) {

  00044	81 7b 04 55 55
	55 15		 cmp	 DWORD PTR [ebx+4], 357913941 ; 15555555H
  0004b	74 42		 je	 SHORT $LN150@AddRQGraph
; File C:\Program Files (x86)\Microsoft Visual Studio\2019\Community\VC\Tools\MSVC\14.29.30133\include\xmemory

; 958  :     _CONSTEXPR20_DYNALLOC explicit _Alloc_construct_ptr(_Alloc& _Al_) : _Al(_Al_), _Ptr(nullptr) {}

  0004d	89 5d ec	 mov	 DWORD PTR __Op$2[ebp], ebx

; 79   :         return ::operator new(_Bytes);

  00050	6a 0c		 push	 12			; 0000000cH
; File C:\Program Files (x86)\Microsoft Visual Studio\2019\Community\VC\Tools\MSVC\14.29.30133\include\list

; 582  :     explicit _List_node_emplace_op2(_Alnode& _Al_, _Valtys&&... _Vals) : _Alloc_construct_ptr<_Alnode>(_Al_) {

  00052	c7 45 fc 00 00
	00 00		 mov	 DWORD PTR __$EHRec$[ebp+8], 0
; File C:\Program Files (x86)\Microsoft Visual Studio\2019\Community\VC\Tools\MSVC\14.29.30133\include\xmemory

; 965  :         _Ptr = nullptr; // if allocate throws, prevents double-free

  00059	c7 45 f0 00 00
	00 00		 mov	 DWORD PTR __Op$2[ebp+4], 0

; 79   :         return ::operator new(_Bytes);

  00060	e8 00 00 00 00	 call	 ??2@YAPAXI@Z		; operator new
  00065	83 c4 04	 add	 esp, 4
; File C:\Program Files (x86)\Microsoft Visual Studio\2019\Community\VC\Tools\MSVC\14.29.30133\include\list

; 584  :         _Alnode_traits::construct(this->_Al, _STD addressof(this->_Ptr->_Myval), _STD forward<_Valtys>(_Vals)...);

  00068	89 78 08	 mov	 DWORD PTR [eax+8], edi

; 1010 :         ++_Mysize;

  0006b	ff 43 04	 inc	 DWORD PTR [ebx+4]

; 597  :         const pointer _Insert_after = _Insert_before->_Prev;

  0006e	8b 4e 04	 mov	 ecx, DWORD PTR [esi+4]

; 598  :         _Construct_in_place(this->_Ptr->_Next, _Insert_before);

  00071	89 30		 mov	 DWORD PTR [eax], esi

; 599  :         _Construct_in_place(this->_Ptr->_Prev, _Insert_after);

  00073	89 48 04	 mov	 DWORD PTR [eax+4], ecx

; 600  :         const auto _Result    = this->_Ptr;
; 601  :         this->_Ptr            = pointer{};
; 602  :         _Insert_before->_Prev = _Result;

  00076	89 46 04	 mov	 DWORD PTR [esi+4], eax

; 603  :         _Insert_after->_Next  = _Result;

  00079	89 01		 mov	 DWORD PTR [ecx], eax
$LN123@AddRQGraph:
; File D:\git\src\IBK\IBK_DRFN\ProjSrc\SrcChartEx\ChartOCX\ChartObject\PacketRQ.cpp

; 137  : }

  0007b	8b 4d f4	 mov	 ecx, DWORD PTR __$EHRec$[ebp]
  0007e	64 89 0d 00 00
	00 00		 mov	 DWORD PTR fs:0, ecx
  00085	59		 pop	 ecx
  00086	5f		 pop	 edi
  00087	5e		 pop	 esi
  00088	5b		 pop	 ebx
  00089	8b e5		 mov	 esp, ebp
  0008b	5d		 pop	 ebp
  0008c	c2 04 00	 ret	 4
$LN150@AddRQGraph:
; File C:\Program Files (x86)\Microsoft Visual Studio\2019\Community\VC\Tools\MSVC\14.29.30133\include\list

; 1006 :             _Xlength_error("list too long");

  0008f	68 00 00 00 00	 push	 OFFSET ??_C@_0O@NKNMEGII@list?5too?5long@
  00094	e8 00 00 00 00	 call	 ?_Xlength_error@std@@YAXPBD@Z ; std::_Xlength_error
$LN148@AddRQGraph:
  00099	cc		 int	 3
_TEXT	ENDS
;	COMDAT text$x
text$x	SEGMENT
__unwindfunclet$?AddRQGraph@CPacketRQ@@QAEXPAVCGraphImp@@@Z$1:
  00000	8d 4d ec	 lea	 ecx, DWORD PTR __Op$2[ebp]
  00003	e9 00 00 00 00	 jmp	 ??1?$_Alloc_construct_ptr@V?$allocator@U?$_List_node@PAVCGraphImp@@PAX@std@@@std@@@std@@QAE@XZ ; std::_Alloc_construct_ptr<std::allocator<std::_List_node<CGraphImp *,void *> > >::~_Alloc_construct_ptr<std::allocator<std::_List_node<CGraphImp *,void *> > >
  00008	cc		 int	 3
  00009	cc		 int	 3
  0000a	cc		 int	 3
  0000b	cc		 int	 3
  0000c	cc		 int	 3
__ehhandler$?AddRQGraph@CPacketRQ@@QAEXPAVCGraphImp@@@Z:
  0000d	90		 npad	 1
  0000e	90		 npad	 1
  0000f	8b 54 24 08	 mov	 edx, DWORD PTR [esp+8]
  00013	8d 42 0c	 lea	 eax, DWORD PTR [edx+12]
  00016	8b 4a e8	 mov	 ecx, DWORD PTR [edx-24]
  00019	33 c8		 xor	 ecx, eax
  0001b	e8 00 00 00 00	 call	 @__security_check_cookie@4
  00020	b8 00 00 00 00	 mov	 eax, OFFSET __ehfuncinfo$?AddRQGraph@CPacketRQ@@QAEXPAVCGraphImp@@@Z
  00025	e9 00 00 00 00	 jmp	 ___CxxFrameHandler3
text$x	ENDS
?AddRQGraph@CPacketRQ@@QAEXPAVCGraphImp@@@Z ENDP	; CPacketRQ::AddRQGraph
; Function compile flags: /Ogtp
; File D:\git\src\IBK\IBK_DRFN\ProjSrc\SrcChartEx\ChartOCX\ChartObject\PacketRQ.cpp
;	COMDAT ?GetItemCode@CPacketRQ@@QAEXAAPBD0@Z
_TEXT	SEGMENT
_lpszItemCode$ = 8					; size = 4
_lpszItemName$ = 12					; size = 4
?GetItemCode@CPacketRQ@@QAEXAAPBD0@Z PROC		; CPacketRQ::GetItemCode, COMDAT
; _this$ = ecx

; 154  : {

  00000	55		 push	 ebp
  00001	8b ec		 mov	 ebp, esp

; 155  : 	lpszItemCode = m_lpszItemCode;

  00003	8b 45 08	 mov	 eax, DWORD PTR _lpszItemCode$[ebp]
  00006	8b 51 08	 mov	 edx, DWORD PTR [ecx+8]
  00009	89 10		 mov	 DWORD PTR [eax], edx

; 156  : 	lpszItemName = m_lpszItemName;

  0000b	8b 45 0c	 mov	 eax, DWORD PTR _lpszItemName$[ebp]
  0000e	8b 49 0c	 mov	 ecx, DWORD PTR [ecx+12]
  00011	89 08		 mov	 DWORD PTR [eax], ecx

; 157  : }

  00013	5d		 pop	 ebp
  00014	c2 08 00	 ret	 8
?GetItemCode@CPacketRQ@@QAEXAAPBD0@Z ENDP		; CPacketRQ::GetItemCode
_TEXT	ENDS
; Function compile flags: /Ogtp
; File D:\git\src\IBK\IBK_DRFN\ProjSrc\SrcChartEx\ChartOCX\ChartObject\PacketRQ.cpp
; File C:\Program Files (x86)\Microsoft Visual Studio\2019\Community\VC\Tools\MSVC\14.29.30133\include\list
; File D:\git\src\IBK\IBK_DRFN\ProjSrc\SrcChartEx\ChartOCX\ChartObject\PacketRQ.cpp
; File C:\Program Files (x86)\Microsoft Visual Studio\2019\Community\VC\Tools\MSVC\14.29.30133\include\list
; File D:\git\src\IBK\IBK_DRFN\ProjSrc\SrcChartEx\ChartOCX\ChartObject\PacketRQ.cpp
;	COMDAT ?SetItemCode@CPacketRQ@@QAEXPBD0@Z
_TEXT	SEGMENT
_lpszItemCode$ = 8					; size = 4
_lpszItemName$ = 12					; size = 4
?SetItemCode@CPacketRQ@@QAEXPBD0@Z PROC			; CPacketRQ::SetItemCode, COMDAT
; _this$ = ecx

; 113  : {

  00000	55		 push	 ebp
  00001	8b ec		 mov	 ebp, esp
  00003	53		 push	 ebx

; 116  : 	while(it != m_listGraph.end())

  00004	8b 5d 0c	 mov	 ebx, DWORD PTR _lpszItemName$[ebp]
  00007	56		 push	 esi
  00008	57		 push	 edi
  00009	8b f9		 mov	 edi, ecx
; File C:\Program Files (x86)\Microsoft Visual Studio\2019\Community\VC\Tools\MSVC\14.29.30133\include\list

; 1083 :         return iterator(_Mypair._Myval2._Myhead->_Next, _STD addressof(_Mypair._Myval2));

  0000b	8b 47 18	 mov	 eax, DWORD PTR [edi+24]

; 38   :     _List_unchecked_const_iterator(_Nodeptr _Pnode, const _Mylist* _Plist) noexcept : _Ptr(_Pnode) {

  0000e	8b 30		 mov	 esi, DWORD PTR [eax]
  00010	3b f0		 cmp	 esi, eax
; File D:\git\src\IBK\IBK_DRFN\ProjSrc\SrcChartEx\ChartOCX\ChartObject\PacketRQ.cpp

; 116  : 	while(it != m_listGraph.end())

  00012	74 13		 je	 SHORT $LN3@SetItemCod
$LL2@SetItemCod:

; 117  : 	{
; 118  : 		(*it)->ChangeSubGraphTitle(m_lpszItemName, lpszItemName);

  00014	8b 4e 08	 mov	 ecx, DWORD PTR [esi+8]
  00017	53		 push	 ebx
  00018	ff 77 0c	 push	 DWORD PTR [edi+12]
  0001b	e8 00 00 00 00	 call	 ?ChangeSubGraphTitle@CGraphImp@@QAEXPBD0@Z ; CGraphImp::ChangeSubGraphTitle
; File C:\Program Files (x86)\Microsoft Visual Studio\2019\Community\VC\Tools\MSVC\14.29.30133\include\list

; 165  :         this->_Ptr = this->_Ptr->_Next;

  00020	8b 36		 mov	 esi, DWORD PTR [esi]

; 198  :         return this->_Ptr == _Right._Ptr;

  00022	3b 77 18	 cmp	 esi, DWORD PTR [edi+24]
; File D:\git\src\IBK\IBK_DRFN\ProjSrc\SrcChartEx\ChartOCX\ChartObject\PacketRQ.cpp

; 116  : 	while(it != m_listGraph.end())

  00025	75 ed		 jne	 SHORT $LL2@SetItemCod
$LN3@SetItemCod:

; 119  : 		it++;
; 120  : 	}
; 121  : 
; 122  : 	if(m_lpszItemCode)

  00027	8b 47 08	 mov	 eax, DWORD PTR [edi+8]
  0002a	8b 35 00 00 00
	00		 mov	 esi, DWORD PTR __imp__free
  00030	85 c0		 test	 eax, eax
  00032	74 06		 je	 SHORT $LN4@SetItemCod

; 123  : 		::free(m_lpszItemCode);

  00034	50		 push	 eax
  00035	ff d6		 call	 esi
  00037	83 c4 04	 add	 esp, 4
$LN4@SetItemCod:

; 124  : 	if(m_lpszItemName)

  0003a	8b 47 0c	 mov	 eax, DWORD PTR [edi+12]
  0003d	85 c0		 test	 eax, eax
  0003f	74 06		 je	 SHORT $LN5@SetItemCod

; 125  : 		::free(m_lpszItemName);

  00041	50		 push	 eax
  00042	ff d6		 call	 esi
  00044	83 c4 04	 add	 esp, 4
$LN5@SetItemCod:

; 126  : 
; 127  : 	m_lpszItemCode = ::strdup(lpszItemCode);

  00047	ff 75 08	 push	 DWORD PTR _lpszItemCode$[ebp]
  0004a	8b 35 00 00 00
	00		 mov	 esi, DWORD PTR __imp__strdup
  00050	ff d6		 call	 esi

; 128  : 	m_lpszItemName = ::strdup(lpszItemName);

  00052	53		 push	 ebx
  00053	89 47 08	 mov	 DWORD PTR [edi+8], eax
  00056	ff d6		 call	 esi
  00058	83 c4 08	 add	 esp, 8
  0005b	89 47 0c	 mov	 DWORD PTR [edi+12], eax
  0005e	5f		 pop	 edi
  0005f	5e		 pop	 esi
  00060	5b		 pop	 ebx

; 129  : }

  00061	5d		 pop	 ebp
  00062	c2 08 00	 ret	 8
?SetItemCode@CPacketRQ@@QAEXPBD0@Z ENDP			; CPacketRQ::SetItemCode
_TEXT	ENDS
; Function compile flags: /Ogtp
; File D:\git\src\IBK\IBK_DRFN\ProjSrc\SrcChartEx\ChartOCX\ChartObject\PacketRQ.cpp
;	COMDAT ?SetRQ@CPacketRQ@@QAEXPBD@Z
_TEXT	SEGMENT
_lpszRQ$ = 8						; size = 4
?SetRQ@CPacketRQ@@QAEXPBD@Z PROC			; CPacketRQ::SetRQ, COMDAT
; _this$ = ecx

; 192  : {

  00000	55		 push	 ebp
  00001	8b ec		 mov	 ebp, esp
  00003	56		 push	 esi
  00004	8b f1		 mov	 esi, ecx

; 193  : 	if(m_lpszRQ)

  00006	8b 46 04	 mov	 eax, DWORD PTR [esi+4]
  00009	85 c0		 test	 eax, eax
  0000b	74 0a		 je	 SHORT $LN2@SetRQ

; 194  : 		::free(m_lpszRQ);

  0000d	50		 push	 eax
  0000e	ff 15 00 00 00
	00		 call	 DWORD PTR __imp__free
  00014	83 c4 04	 add	 esp, 4
$LN2@SetRQ:

; 195  : 
; 196  : 	m_lpszRQ = ::strdup(lpszRQ);

  00017	ff 75 08	 push	 DWORD PTR _lpszRQ$[ebp]
  0001a	ff 15 00 00 00
	00		 call	 DWORD PTR __imp__strdup
  00020	83 c4 04	 add	 esp, 4
  00023	89 46 04	 mov	 DWORD PTR [esi+4], eax
  00026	5e		 pop	 esi

; 197  : }

  00027	5d		 pop	 ebp
  00028	c2 04 00	 ret	 4
?SetRQ@CPacketRQ@@QAEXPBD@Z ENDP			; CPacketRQ::SetRQ
_TEXT	ENDS
; Function compile flags: /Ogtp
; File D:\git\src\IBK\IBK_DRFN\ProjSrc\SrcChartEx\ChartOCX\ChartObject\PacketRQ.cpp
; File C:\Program Files (x86)\Microsoft Visual Studio\2019\Community\VC\Tools\MSVC\14.29.30133\include\list
; File C:\Program Files (x86)\Microsoft Visual Studio\2019\Community\VC\Tools\MSVC\14.29.30133\include\xmemory
; File C:\Program Files (x86)\Microsoft Visual Studio\2019\Community\VC\Tools\MSVC\14.29.30133\include\list
; File C:\Program Files (x86)\Microsoft Visual Studio\2019\Community\VC\Tools\MSVC\14.29.30133\include\xmemory
; File D:\git\src\IBK\IBK_DRFN\ProjSrc\SrcChartEx\ChartOCX\ChartObject\PacketRQ.cpp
;	COMDAT ??1CPacketRQ@@UAE@XZ
_TEXT	SEGMENT
??1CPacketRQ@@UAE@XZ PROC				; CPacketRQ::~CPacketRQ, COMDAT
; _this$ = ecx

; 69   : {

  00000	56		 push	 esi

; 70   : 	//    dll   :  - ojtaso (20070504)
; 71   : 	if(m_lpszItemCode)

  00001	8b 35 00 00 00
	00		 mov	 esi, DWORD PTR __imp__free
  00007	57		 push	 edi
  00008	8b f9		 mov	 edi, ecx
  0000a	8b 47 08	 mov	 eax, DWORD PTR [edi+8]
  0000d	c7 07 00 00 00
	00		 mov	 DWORD PTR [edi], OFFSET ??_7CPacketRQ@@6B@
  00013	85 c0		 test	 eax, eax
  00015	74 06		 je	 SHORT $LN2@CPacketRQ

; 72   : 		::free(m_lpszItemCode);

  00017	50		 push	 eax
  00018	ff d6		 call	 esi
  0001a	83 c4 04	 add	 esp, 4
$LN2@CPacketRQ:

; 73   : 	if(m_lpszItemName)

  0001d	8b 47 0c	 mov	 eax, DWORD PTR [edi+12]
  00020	85 c0		 test	 eax, eax
  00022	74 06		 je	 SHORT $LN3@CPacketRQ

; 74   : 		::free(m_lpszItemName);

  00024	50		 push	 eax
  00025	ff d6		 call	 esi
  00027	83 c4 04	 add	 esp, 4
$LN3@CPacketRQ:

; 75   : 	if(m_lpszPacketName)

  0002a	8b 47 10	 mov	 eax, DWORD PTR [edi+16]
  0002d	85 c0		 test	 eax, eax
  0002f	74 06		 je	 SHORT $LN4@CPacketRQ

; 76   : 		::free(m_lpszPacketName);

  00031	50		 push	 eax
  00032	ff d6		 call	 esi
  00034	83 c4 04	 add	 esp, 4
$LN4@CPacketRQ:

; 77   : 
; 78   : 	if(m_lpszRQ)

  00037	8b 47 04	 mov	 eax, DWORD PTR [edi+4]
  0003a	85 c0		 test	 eax, eax
  0003c	74 09		 je	 SHORT $LN5@CPacketRQ

; 79   : 		delete [] m_lpszRQ;

  0003e	50		 push	 eax
  0003f	e8 00 00 00 00	 call	 ??_V@YAXPAX@Z		; operator delete[]
  00044	83 c4 04	 add	 esp, 4
$LN5@CPacketRQ:

; 80   : 
; 81   : 	m_lpszItemCode = m_lpszItemName = m_lpszRQ = m_lpszPacketName = NULL;
; 82   : 
; 83   : 	if(m_pPacketList)

  00047	8b 4f 14	 mov	 ecx, DWORD PTR [edi+20]
  0004a	c7 47 10 00 00
	00 00		 mov	 DWORD PTR [edi+16], 0
  00051	c7 47 04 00 00
	00 00		 mov	 DWORD PTR [edi+4], 0
  00058	c7 47 0c 00 00
	00 00		 mov	 DWORD PTR [edi+12], 0
  0005f	c7 47 08 00 00
	00 00		 mov	 DWORD PTR [edi+8], 0
  00066	85 c9		 test	 ecx, ecx
  00068	74 0d		 je	 SHORT $LN6@CPacketRQ

; 84   : 	{
; 85   : 		delete m_pPacketList;

  0006a	8b 01		 mov	 eax, DWORD PTR [ecx]
  0006c	6a 01		 push	 1
  0006e	ff 10		 call	 DWORD PTR [eax]

; 86   : 		m_pPacketList = NULL;

  00070	c7 47 14 00 00
	00 00		 mov	 DWORD PTR [edi+20], 0
$LN6@CPacketRQ:
; File C:\Program Files (x86)\Microsoft Visual Studio\2019\Community\VC\Tools\MSVC\14.29.30133\include\list

; 1431 :         _Node::_Free_non_head(_Al, _My_data._Myhead);

  00077	8b 4f 18	 mov	 ecx, DWORD PTR [edi+24]

; 323  :         _Head->_Prev->_Next = nullptr;

  0007a	8b 41 04	 mov	 eax, DWORD PTR [ecx+4]
  0007d	c7 00 00 00 00
	00		 mov	 DWORD PTR [eax], 0

; 324  : 
; 325  :         auto _Pnode = _Head->_Next;

  00083	8b 01		 mov	 eax, DWORD PTR [ecx]

; 326  :         for (_Nodeptr _Pnext; _Pnode; _Pnode = _Pnext) {

  00085	85 c0		 test	 eax, eax
  00087	74 1a		 je	 SHORT $LN16@CPacketRQ
  00089	0f 1f 80 00 00
	00 00		 npad	 7
$LL17@CPacketRQ:

; 327  :             _Pnext = _Pnode->_Next;

  00090	8b 30		 mov	 esi, DWORD PTR [eax]
; File C:\Program Files (x86)\Microsoft Visual Studio\2019\Community\VC\Tools\MSVC\14.29.30133\include\xmemory

; 255  :         ::operator delete(_Ptr, _Bytes);

  00092	6a 0c		 push	 12			; 0000000cH
  00094	50		 push	 eax
  00095	e8 00 00 00 00	 call	 ??3@YAXPAXI@Z		; operator delete
  0009a	83 c4 08	 add	 esp, 8
; File C:\Program Files (x86)\Microsoft Visual Studio\2019\Community\VC\Tools\MSVC\14.29.30133\include\list

; 326  :         for (_Nodeptr _Pnext; _Pnode; _Pnode = _Pnext) {

  0009d	8b c6		 mov	 eax, esi
  0009f	85 f6		 test	 esi, esi
  000a1	75 ed		 jne	 SHORT $LL17@CPacketRQ
$LN16@CPacketRQ:
; File C:\Program Files (x86)\Microsoft Visual Studio\2019\Community\VC\Tools\MSVC\14.29.30133\include\xmemory

; 255  :         ::operator delete(_Ptr, _Bytes);

  000a3	6a 0c		 push	 12			; 0000000cH
  000a5	ff 77 18	 push	 DWORD PTR [edi+24]
  000a8	e8 00 00 00 00	 call	 ??3@YAXPAXI@Z		; operator delete
  000ad	83 c4 08	 add	 esp, 8
  000b0	5f		 pop	 edi
  000b1	5e		 pop	 esi
; File D:\git\src\IBK\IBK_DRFN\ProjSrc\SrcChartEx\ChartOCX\ChartObject\PacketRQ.cpp

; 88   : }

  000b2	c3		 ret	 0
??1CPacketRQ@@UAE@XZ ENDP				; CPacketRQ::~CPacketRQ
_TEXT	ENDS
; Function compile flags: /Ogtp
; File D:\git\src\IBK\IBK_DRFN\ProjSrc\SrcChartEx\ChartOCX\ChartObject\PacketRQ.cpp
; File C:\Program Files (x86)\Microsoft Visual Studio\2019\Community\VC\Tools\MSVC\14.29.30133\include\xmemory
; File C:\Program Files (x86)\Microsoft Visual Studio\2019\Community\VC\Tools\MSVC\14.29.30133\include\list
; File C:\Program Files (x86)\Microsoft Visual Studio\2019\Community\VC\Tools\MSVC\14.29.30133\include\xmemory
; File C:\Program Files (x86)\Microsoft Visual Studio\2019\Community\VC\Tools\MSVC\14.29.30133\include\list
; File D:\git\src\IBK\IBK_DRFN\ProjSrc\SrcChartEx\ChartOCX\ChartObject\PacketRQ.cpp
;	COMDAT ??0CPacketRQ@@QAE@PBD00@Z
_TEXT	SEGMENT
_this$ = -16						; size = 4
__$EHRec$ = -12						; size = 12
_lpszRQ$ = 8						; size = 4
_lpszItemCode$ = 12					; size = 4
_lpszItemName$ = 16					; size = 4
??0CPacketRQ@@QAE@PBD00@Z PROC				; CPacketRQ::CPacketRQ, COMDAT
; _this$ = ecx

; 58   : {

  00000	55		 push	 ebp
  00001	8b ec		 mov	 ebp, esp
  00003	6a ff		 push	 -1
  00005	68 00 00 00 00	 push	 __ehhandler$??0CPacketRQ@@QAE@PBD00@Z
  0000a	64 a1 00 00 00
	00		 mov	 eax, DWORD PTR fs:0
  00010	50		 push	 eax
  00011	51		 push	 ecx
  00012	53		 push	 ebx
  00013	56		 push	 esi
  00014	57		 push	 edi
  00015	a1 00 00 00 00	 mov	 eax, DWORD PTR ___security_cookie
  0001a	33 c5		 xor	 eax, ebp
  0001c	50		 push	 eax
  0001d	8d 45 f4	 lea	 eax, DWORD PTR __$EHRec$[ebp]
  00020	64 a3 00 00 00
	00		 mov	 DWORD PTR fs:0, eax
  00026	8b d9		 mov	 ebx, ecx
  00028	89 5d f0	 mov	 DWORD PTR _this$[ebp], ebx
  0002b	c7 03 00 00 00
	00		 mov	 DWORD PTR [ebx], OFFSET ??_7CPacketRQ@@6B@

; 57   : 	m_pPacketList(NULL)

  00031	c7 43 14 00 00
	00 00		 mov	 DWORD PTR [ebx+20], 0
; File C:\Program Files (x86)\Microsoft Visual Studio\2019\Community\VC\Tools\MSVC\14.29.30133\include\xmemory

; 79   :         return ::operator new(_Bytes);

  00038	6a 0c		 push	 12			; 0000000cH
; File C:\Program Files (x86)\Microsoft Visual Studio\2019\Community\VC\Tools\MSVC\14.29.30133\include\list

; 352  :     _List_val() noexcept : _Myhead(), _Mysize(0) {} // initialize data

  0003a	c7 43 18 00 00
	00 00		 mov	 DWORD PTR [ebx+24], 0
  00041	c7 43 1c 00 00
	00 00		 mov	 DWORD PTR [ebx+28], 0
; File C:\Program Files (x86)\Microsoft Visual Studio\2019\Community\VC\Tools\MSVC\14.29.30133\include\xmemory

; 79   :         return ::operator new(_Bytes);

  00048	e8 00 00 00 00	 call	 ??2@YAPAXI@Z		; operator new
; File C:\Program Files (x86)\Microsoft Visual Studio\2019\Community\VC\Tools\MSVC\14.29.30133\include\list

; 1767 :         _Construct_in_place(_Newhead->_Next, _Newhead);

  0004d	89 00		 mov	 DWORD PTR [eax], eax

; 1768 :         _Construct_in_place(_Newhead->_Prev, _Newhead);

  0004f	89 40 04	 mov	 DWORD PTR [eax+4], eax

; 1769 :         _Mypair._Myval2._Myhead = _Newhead;

  00052	89 43 18	 mov	 DWORD PTR [ebx+24], eax
; File D:\git\src\IBK\IBK_DRFN\ProjSrc\SrcChartEx\ChartOCX\ChartObject\PacketRQ.cpp

; 59   : 	m_lpszItemCode = ::strdup(lpszItemCode);

  00055	ff 75 0c	 push	 DWORD PTR _lpszItemCode$[ebp]
  00058	8b 35 00 00 00
	00		 mov	 esi, DWORD PTR __imp__strdup
  0005e	c7 45 fc 00 00
	00 00		 mov	 DWORD PTR __$EHRec$[ebp+8], 0
  00065	ff d6		 call	 esi

; 60   : 	m_lpszItemName = ::strdup(lpszItemName);

  00067	ff 75 10	 push	 DWORD PTR _lpszItemName$[ebp]
  0006a	89 43 08	 mov	 DWORD PTR [ebx+8], eax
  0006d	ff d6		 call	 esi
  0006f	89 43 0c	 mov	 DWORD PTR [ebx+12], eax

; 61   : 	m_lpszPacketName = ::strdup( _MTEXT( C0_DATE_TIME));

  00072	a1 54 00 00 00	 mov	 eax, DWORD PTR ?g_iMetaTable@@3VIMetaTable@@A+84
  00077	ff 30		 push	 DWORD PTR [eax]
  00079	ff d6		 call	 esi

; 62   : 
; 63   : 	m_lpszRQ = new char[::lstrlen(lpszRQ) + 1];

  0007b	8b 7d 08	 mov	 edi, DWORD PTR _lpszRQ$[ebp]
  0007e	83 c4 10	 add	 esp, 16			; 00000010H
  00081	8b 35 00 00 00
	00		 mov	 esi, DWORD PTR __imp__lstrlenA@4
  00087	89 43 10	 mov	 DWORD PTR [ebx+16], eax
  0008a	57		 push	 edi
  0008b	ff d6		 call	 esi
  0008d	40		 inc	 eax
  0008e	50		 push	 eax
  0008f	e8 00 00 00 00	 call	 ??_U@YAPAXI@Z		; operator new[]
  00094	83 c4 04	 add	 esp, 4
  00097	89 43 04	 mov	 DWORD PTR [ebx+4], eax

; 64   : 	::memset(m_lpszRQ, 0x00, ::lstrlen(lpszRQ) + 1);

  0009a	57		 push	 edi
  0009b	ff d6		 call	 esi
  0009d	40		 inc	 eax
  0009e	50		 push	 eax
  0009f	6a 00		 push	 0
  000a1	ff 73 04	 push	 DWORD PTR [ebx+4]
  000a4	e8 00 00 00 00	 call	 _memset
  000a9	83 c4 0c	 add	 esp, 12			; 0000000cH

; 65   : 	::lstrcpy(m_lpszRQ, lpszRQ);

  000ac	57		 push	 edi
  000ad	ff 73 04	 push	 DWORD PTR [ebx+4]
  000b0	ff 15 00 00 00
	00		 call	 DWORD PTR __imp__lstrcpyA@8

; 66   : }

  000b6	8b c3		 mov	 eax, ebx
  000b8	8b 4d f4	 mov	 ecx, DWORD PTR __$EHRec$[ebp]
  000bb	64 89 0d 00 00
	00 00		 mov	 DWORD PTR fs:0, ecx
  000c2	59		 pop	 ecx
  000c3	5f		 pop	 edi
  000c4	5e		 pop	 esi
  000c5	5b		 pop	 ebx
  000c6	8b e5		 mov	 esp, ebp
  000c8	5d		 pop	 ebp
  000c9	c2 0c 00	 ret	 12			; 0000000cH
_TEXT	ENDS
;	COMDAT text$x
text$x	SEGMENT
__unwindfunclet$??0CPacketRQ@@QAE@PBD00@Z$0:
  00000	8b 4d f0	 mov	 ecx, DWORD PTR _this$[ebp]
  00003	83 c1 18	 add	 ecx, 24			; 00000018H
  00006	e9 00 00 00 00	 jmp	 ??1?$list@PAVCGraphImp@@V?$allocator@PAVCGraphImp@@@std@@@std@@QAE@XZ ; std::list<CGraphImp *,std::allocator<CGraphImp *> >::~list<CGraphImp *,std::allocator<CGraphImp *> >
  0000b	cc		 int	 3
  0000c	cc		 int	 3
  0000d	cc		 int	 3
  0000e	cc		 int	 3
  0000f	cc		 int	 3
__ehhandler$??0CPacketRQ@@QAE@PBD00@Z:
  00010	90		 npad	 1
  00011	90		 npad	 1
  00012	8b 54 24 08	 mov	 edx, DWORD PTR [esp+8]
  00016	8d 42 0c	 lea	 eax, DWORD PTR [edx+12]
  00019	8b 4a ec	 mov	 ecx, DWORD PTR [edx-20]
  0001c	33 c8		 xor	 ecx, eax
  0001e	e8 00 00 00 00	 call	 @__security_check_cookie@4
  00023	b8 00 00 00 00	 mov	 eax, OFFSET __ehfuncinfo$??0CPacketRQ@@QAE@PBD00@Z
  00028	e9 00 00 00 00	 jmp	 ___CxxFrameHandler3
text$x	ENDS
??0CPacketRQ@@QAE@PBD00@Z ENDP				; CPacketRQ::CPacketRQ
; Function compile flags: /Ogtp
; File D:\git\src\IBK\IBK_DRFN\ProjSrc\SrcChartEx\ChartOCX\ChartObject\PacketRQ.cpp
; File C:\Program Files (x86)\Microsoft Visual Studio\2019\Community\VC\Tools\MSVC\14.29.30133\include\xmemory
; File C:\Program Files (x86)\Microsoft Visual Studio\2019\Community\VC\Tools\MSVC\14.29.30133\include\list
; File C:\Program Files (x86)\Microsoft Visual Studio\2019\Community\VC\Tools\MSVC\14.29.30133\include\xmemory
; File C:\Program Files (x86)\Microsoft Visual Studio\2019\Community\VC\Tools\MSVC\14.29.30133\include\list
; File D:\git\src\IBK\IBK_DRFN\ProjSrc\SrcChartEx\ChartOCX\ChartObject\PacketRQ.cpp
;	COMDAT ??0CPacketRQ@@QAE@PBD0ABI@Z
_TEXT	SEGMENT
_this$ = -16						; size = 4
__$EHRec$ = -12						; size = 12
_lpszItemCode$ = 8					; size = 4
_lpszItemName$ = 12					; size = 4
_nIndex$ = 16						; size = 4
??0CPacketRQ@@QAE@PBD0ABI@Z PROC			; CPacketRQ::CPacketRQ, COMDAT
; _this$ = ecx

; 45   : {

  00000	55		 push	 ebp
  00001	8b ec		 mov	 ebp, esp
  00003	6a ff		 push	 -1
  00005	68 00 00 00 00	 push	 __ehhandler$??0CPacketRQ@@QAE@PBD0ABI@Z
  0000a	64 a1 00 00 00
	00		 mov	 eax, DWORD PTR fs:0
  00010	50		 push	 eax
  00011	51		 push	 ecx
  00012	53		 push	 ebx
  00013	56		 push	 esi
  00014	57		 push	 edi
  00015	a1 00 00 00 00	 mov	 eax, DWORD PTR ___security_cookie
  0001a	33 c5		 xor	 eax, ebp
  0001c	50		 push	 eax
  0001d	8d 45 f4	 lea	 eax, DWORD PTR __$EHRec$[ebp]
  00020	64 a3 00 00 00
	00		 mov	 DWORD PTR fs:0, eax
  00026	8b d9		 mov	 ebx, ecx
  00028	89 5d f0	 mov	 DWORD PTR _this$[ebp], ebx
  0002b	c7 03 00 00 00
	00		 mov	 DWORD PTR [ebx], OFFSET ??_7CPacketRQ@@6B@

; 44   : 	m_pPacketList(NULL)

  00031	c7 43 14 00 00
	00 00		 mov	 DWORD PTR [ebx+20], 0
; File C:\Program Files (x86)\Microsoft Visual Studio\2019\Community\VC\Tools\MSVC\14.29.30133\include\xmemory

; 79   :         return ::operator new(_Bytes);

  00038	6a 0c		 push	 12			; 0000000cH
; File C:\Program Files (x86)\Microsoft Visual Studio\2019\Community\VC\Tools\MSVC\14.29.30133\include\list

; 352  :     _List_val() noexcept : _Myhead(), _Mysize(0) {} // initialize data

  0003a	c7 43 18 00 00
	00 00		 mov	 DWORD PTR [ebx+24], 0
  00041	c7 43 1c 00 00
	00 00		 mov	 DWORD PTR [ebx+28], 0
; File C:\Program Files (x86)\Microsoft Visual Studio\2019\Community\VC\Tools\MSVC\14.29.30133\include\xmemory

; 79   :         return ::operator new(_Bytes);

  00048	e8 00 00 00 00	 call	 ??2@YAPAXI@Z		; operator new
; File C:\Program Files (x86)\Microsoft Visual Studio\2019\Community\VC\Tools\MSVC\14.29.30133\include\list

; 1767 :         _Construct_in_place(_Newhead->_Next, _Newhead);

  0004d	89 00		 mov	 DWORD PTR [eax], eax

; 1768 :         _Construct_in_place(_Newhead->_Prev, _Newhead);

  0004f	89 40 04	 mov	 DWORD PTR [eax+4], eax

; 1769 :         _Mypair._Myval2._Myhead = _Newhead;

  00052	89 43 18	 mov	 DWORD PTR [ebx+24], eax
; File D:\git\src\IBK\IBK_DRFN\ProjSrc\SrcChartEx\ChartOCX\ChartObject\PacketRQ.cpp

; 46   : 	m_lpszItemCode = ::strdup(lpszItemCode);

  00055	8b 7d 08	 mov	 edi, DWORD PTR _lpszItemCode$[ebp]
  00058	8b 35 00 00 00
	00		 mov	 esi, DWORD PTR __imp__strdup
  0005e	57		 push	 edi
  0005f	c7 45 fc 00 00
	00 00		 mov	 DWORD PTR __$EHRec$[ebp+8], 0
  00066	ff d6		 call	 esi

; 47   : 	m_lpszItemName = ::strdup(lpszItemName);

  00068	ff 75 0c	 push	 DWORD PTR _lpszItemName$[ebp]
  0006b	89 43 08	 mov	 DWORD PTR [ebx+8], eax
  0006e	ff d6		 call	 esi
  00070	89 43 0c	 mov	 DWORD PTR [ebx+12], eax

; 48   : 	m_lpszPacketName = ::strdup( _MTEXT( C0_DATE_TIME));

  00073	a1 54 00 00 00	 mov	 eax, DWORD PTR ?g_iMetaTable@@3VIMetaTable@@A+84
  00078	ff 30		 push	 DWORD PTR [eax]
  0007a	ff d6		 call	 esi
  0007c	83 c4 10	 add	 esp, 16			; 00000010H
  0007f	89 43 10	 mov	 DWORD PTR [ebx+16], eax

; 49   : 
; 50   : 	m_lpszRQ = new char[::lstrlen(lpszItemCode) + LEN_INDEX];

  00082	57		 push	 edi
  00083	ff 15 00 00 00
	00		 call	 DWORD PTR __imp__lstrlenA@4
  00089	83 c0 05	 add	 eax, 5
  0008c	50		 push	 eax
  0008d	e8 00 00 00 00	 call	 ??_U@YAPAXI@Z		; operator new[]

; 51   : 	::sprintf(m_lpszRQ, _T("%s_%d"), lpszItemCode, nIndex);

  00092	8b 4d 10	 mov	 ecx, DWORD PTR _nIndex$[ebp]
  00095	89 43 04	 mov	 DWORD PTR [ebx+4], eax
  00098	ff 31		 push	 DWORD PTR [ecx]
  0009a	57		 push	 edi
  0009b	68 00 00 00 00	 push	 OFFSET ??_C@_05LFHGFJK@?$CFs_?$CFd@
  000a0	50		 push	 eax
  000a1	e8 00 00 00 00	 call	 _sprintf
  000a6	83 c4 14	 add	 esp, 20			; 00000014H

; 52   : 
; 53   : }

  000a9	8b c3		 mov	 eax, ebx
  000ab	8b 4d f4	 mov	 ecx, DWORD PTR __$EHRec$[ebp]
  000ae	64 89 0d 00 00
	00 00		 mov	 DWORD PTR fs:0, ecx
  000b5	59		 pop	 ecx
  000b6	5f		 pop	 edi
  000b7	5e		 pop	 esi
  000b8	5b		 pop	 ebx
  000b9	8b e5		 mov	 esp, ebp
  000bb	5d		 pop	 ebp
  000bc	c2 0c 00	 ret	 12			; 0000000cH
_TEXT	ENDS
;	COMDAT text$x
text$x	SEGMENT
__unwindfunclet$??0CPacketRQ@@QAE@PBD0ABI@Z$0:
  00000	8b 4d f0	 mov	 ecx, DWORD PTR _this$[ebp]
  00003	83 c1 18	 add	 ecx, 24			; 00000018H
  00006	e9 00 00 00 00	 jmp	 ??1?$list@PAVCGraphImp@@V?$allocator@PAVCGraphImp@@@std@@@std@@QAE@XZ ; std::list<CGraphImp *,std::allocator<CGraphImp *> >::~list<CGraphImp *,std::allocator<CGraphImp *> >
  0000b	cc		 int	 3
  0000c	cc		 int	 3
  0000d	cc		 int	 3
  0000e	cc		 int	 3
  0000f	cc		 int	 3
__ehhandler$??0CPacketRQ@@QAE@PBD0ABI@Z:
  00010	90		 npad	 1
  00011	90		 npad	 1
  00012	8b 54 24 08	 mov	 edx, DWORD PTR [esp+8]
  00016	8d 42 0c	 lea	 eax, DWORD PTR [edx+12]
  00019	8b 4a ec	 mov	 ecx, DWORD PTR [edx-20]
  0001c	33 c8		 xor	 ecx, eax
  0001e	e8 00 00 00 00	 call	 @__security_check_cookie@4
  00023	b8 00 00 00 00	 mov	 eax, OFFSET __ehfuncinfo$??0CPacketRQ@@QAE@PBD0ABI@Z
  00028	e9 00 00 00 00	 jmp	 ___CxxFrameHandler3
text$x	ENDS
??0CPacketRQ@@QAE@PBD0ABI@Z ENDP			; CPacketRQ::CPacketRQ
; Function compile flags: /Ogtp
; File D:\git\src\IBK\IBK_DRFN\ProjSrc\SrcChartEx\ChartOCX\ChartObject\PacketRQ.cpp
; File C:\Program Files (x86)\Microsoft Visual Studio\2019\Community\VC\Tools\MSVC\14.29.30133\include\xmemory
; File C:\Program Files (x86)\Microsoft Visual Studio\2019\Community\VC\Tools\MSVC\14.29.30133\include\list
; File C:\Program Files (x86)\Microsoft Visual Studio\2019\Community\VC\Tools\MSVC\14.29.30133\include\xmemory
; File C:\Program Files (x86)\Microsoft Visual Studio\2019\Community\VC\Tools\MSVC\14.29.30133\include\list
; File D:\git\src\IBK\IBK_DRFN\ProjSrc\SrcChartEx\ChartOCX\ChartObject\PacketRQ.cpp
;	COMDAT ??0CPacketRQ@@QAE@XZ
_TEXT	SEGMENT
_this$ = -16						; size = 4
__$EHRec$ = -12						; size = 12
??0CPacketRQ@@QAE@XZ PROC				; CPacketRQ::CPacketRQ, COMDAT
; _this$ = ecx

; 31   : {

  00000	55		 push	 ebp
  00001	8b ec		 mov	 ebp, esp
  00003	6a ff		 push	 -1
  00005	68 00 00 00 00	 push	 __ehhandler$??0CPacketRQ@@QAE@XZ
  0000a	64 a1 00 00 00
	00		 mov	 eax, DWORD PTR fs:0
  00010	50		 push	 eax
  00011	51		 push	 ecx
  00012	56		 push	 esi
  00013	a1 00 00 00 00	 mov	 eax, DWORD PTR ___security_cookie
  00018	33 c5		 xor	 eax, ebp
  0001a	50		 push	 eax
  0001b	8d 45 f4	 lea	 eax, DWORD PTR __$EHRec$[ebp]
  0001e	64 a3 00 00 00
	00		 mov	 DWORD PTR fs:0, eax
  00024	8b f1		 mov	 esi, ecx
  00026	89 75 f0	 mov	 DWORD PTR _this$[ebp], esi
  00029	c7 06 00 00 00
	00		 mov	 DWORD PTR [esi], OFFSET ??_7CPacketRQ@@6B@

; 29   : 	m_lpszItemCode(NULL),

  0002f	c7 46 08 00 00
	00 00		 mov	 DWORD PTR [esi+8], 0

; 30   : 	m_lpszItemName(NULL)

  00036	c7 46 0c 00 00
	00 00		 mov	 DWORD PTR [esi+12], 0

; 28   : 	m_pPacketList(NULL),

  0003d	c7 46 14 00 00
	00 00		 mov	 DWORD PTR [esi+20], 0
; File C:\Program Files (x86)\Microsoft Visual Studio\2019\Community\VC\Tools\MSVC\14.29.30133\include\xmemory

; 79   :         return ::operator new(_Bytes);

  00044	6a 0c		 push	 12			; 0000000cH
; File C:\Program Files (x86)\Microsoft Visual Studio\2019\Community\VC\Tools\MSVC\14.29.30133\include\list

; 352  :     _List_val() noexcept : _Myhead(), _Mysize(0) {} // initialize data

  00046	c7 46 18 00 00
	00 00		 mov	 DWORD PTR [esi+24], 0
  0004d	c7 46 1c 00 00
	00 00		 mov	 DWORD PTR [esi+28], 0
; File C:\Program Files (x86)\Microsoft Visual Studio\2019\Community\VC\Tools\MSVC\14.29.30133\include\xmemory

; 79   :         return ::operator new(_Bytes);

  00054	e8 00 00 00 00	 call	 ??2@YAPAXI@Z		; operator new
; File C:\Program Files (x86)\Microsoft Visual Studio\2019\Community\VC\Tools\MSVC\14.29.30133\include\list

; 1767 :         _Construct_in_place(_Newhead->_Next, _Newhead);

  00059	89 00		 mov	 DWORD PTR [eax], eax

; 1768 :         _Construct_in_place(_Newhead->_Prev, _Newhead);

  0005b	89 40 04	 mov	 DWORD PTR [eax+4], eax

; 1769 :         _Mypair._Myval2._Myhead = _Newhead;

  0005e	89 46 18	 mov	 DWORD PTR [esi+24], eax
; File D:\git\src\IBK\IBK_DRFN\ProjSrc\SrcChartEx\ChartOCX\ChartObject\PacketRQ.cpp

; 32   : 	m_lpszRQ = new char[8];

  00061	6a 08		 push	 8
  00063	c7 45 fc 00 00
	00 00		 mov	 DWORD PTR __$EHRec$[ebp+8], 0
  0006a	e8 00 00 00 00	 call	 ??_U@YAPAXI@Z		; operator new[]
  0006f	83 c4 08	 add	 esp, 8
  00072	89 46 04	 mov	 DWORD PTR [esi+4], eax
  00075	0f 57 c0	 xorps	 xmm0, xmm0

; 33   : 	::memset(m_lpszRQ, 0x00, 8);

  00078	66 0f d6 00	 movq	 QWORD PTR [eax], xmm0

; 34   : 	::lstrcpy(m_lpszRQ, _T("DEFAULT"));

  0007c	68 00 00 00 00	 push	 OFFSET ??_C@_07MGCPDNLD@DEFAULT@
  00081	ff 76 04	 push	 DWORD PTR [esi+4]
  00084	ff 15 00 00 00
	00		 call	 DWORD PTR __imp__lstrcpyA@8

; 35   : 
; 36   : 	m_lpszPacketName = ::strdup( _MTEXT( C0_DATE_TIME));

  0008a	a1 54 00 00 00	 mov	 eax, DWORD PTR ?g_iMetaTable@@3VIMetaTable@@A+84
  0008f	ff 30		 push	 DWORD PTR [eax]
  00091	ff 15 00 00 00
	00		 call	 DWORD PTR __imp__strdup
  00097	89 46 10	 mov	 DWORD PTR [esi+16], eax
  0009a	83 c4 04	 add	 esp, 4

; 37   : }

  0009d	8b c6		 mov	 eax, esi
  0009f	8b 4d f4	 mov	 ecx, DWORD PTR __$EHRec$[ebp]
  000a2	64 89 0d 00 00
	00 00		 mov	 DWORD PTR fs:0, ecx
  000a9	59		 pop	 ecx
  000aa	5e		 pop	 esi
  000ab	8b e5		 mov	 esp, ebp
  000ad	5d		 pop	 ebp
  000ae	c3		 ret	 0
_TEXT	ENDS
;	COMDAT text$x
text$x	SEGMENT
__unwindfunclet$??0CPacketRQ@@QAE@XZ$0:
  00000	8b 4d f0	 mov	 ecx, DWORD PTR _this$[ebp]
  00003	83 c1 18	 add	 ecx, 24			; 00000018H
  00006	e9 00 00 00 00	 jmp	 ??1?$list@PAVCGraphImp@@V?$allocator@PAVCGraphImp@@@std@@@std@@QAE@XZ ; std::list<CGraphImp *,std::allocator<CGraphImp *> >::~list<CGraphImp *,std::allocator<CGraphImp *> >
  0000b	cc		 int	 3
  0000c	cc		 int	 3
  0000d	cc		 int	 3
  0000e	cc		 int	 3
  0000f	cc		 int	 3
__ehhandler$??0CPacketRQ@@QAE@XZ:
  00010	90		 npad	 1
  00011	90		 npad	 1
  00012	8b 54 24 08	 mov	 edx, DWORD PTR [esp+8]
  00016	8d 42 0c	 lea	 eax, DWORD PTR [edx+12]
  00019	8b 4a f4	 mov	 ecx, DWORD PTR [edx-12]
  0001c	33 c8		 xor	 ecx, eax
  0001e	e8 00 00 00 00	 call	 @__security_check_cookie@4
  00023	b8 00 00 00 00	 mov	 eax, OFFSET __ehfuncinfo$??0CPacketRQ@@QAE@XZ
  00028	e9 00 00 00 00	 jmp	 ___CxxFrameHandler3
text$x	ENDS
??0CPacketRQ@@QAE@XZ ENDP				; CPacketRQ::CPacketRQ
; Function compile flags: /Ogtp
; File C:\Program Files (x86)\Microsoft Visual Studio\2019\Community\VC\Tools\MSVC\14.29.30133\include\exception
;	COMDAT ?_Throw_bad_array_new_length@std@@YAXXZ
_TEXT	SEGMENT
$T1 = -12						; size = 12
?_Throw_bad_array_new_length@std@@YAXXZ PROC		; std::_Throw_bad_array_new_length, COMDAT

; 315  : [[noreturn]] inline void _Throw_bad_array_new_length() {

  00000	55		 push	 ebp
  00001	8b ec		 mov	 ebp, esp
  00003	83 ec 0c	 sub	 esp, 12			; 0000000cH

; 316  :     _THROW(bad_array_new_length{});

  00006	8d 4d f4	 lea	 ecx, DWORD PTR $T1[ebp]
  00009	e8 00 00 00 00	 call	 ??0bad_array_new_length@std@@QAE@XZ ; std::bad_array_new_length::bad_array_new_length
  0000e	68 00 00 00 00	 push	 OFFSET __TI3?AVbad_array_new_length@std@@
  00013	8d 45 f4	 lea	 eax, DWORD PTR $T1[ebp]
  00016	50		 push	 eax
  00017	e8 00 00 00 00	 call	 __CxxThrowException@8
$LN3@Throw_bad_:
  0001c	cc		 int	 3
?_Throw_bad_array_new_length@std@@YAXXZ ENDP		; std::_Throw_bad_array_new_length
_TEXT	ENDS
; Function compile flags: /Ogtp
; File C:\Program Files (x86)\Microsoft Visual Studio\2019\Community\VC\Tools\MSVC\14.29.30133\include\vcruntime_exception.h
;	COMDAT ??_Gbad_array_new_length@std@@UAEPAXI@Z
_TEXT	SEGMENT
___flags$ = 8						; size = 4
??_Gbad_array_new_length@std@@UAEPAXI@Z PROC		; std::bad_array_new_length::`scalar deleting destructor', COMDAT
; _this$ = ecx
  00000	55		 push	 ebp
  00001	8b ec		 mov	 ebp, esp

; 89   :     {

  00003	56		 push	 esi
  00004	8b f1		 mov	 esi, ecx

; 90   :         __std_exception_destroy(&_Data);

  00006	8d 46 04	 lea	 eax, DWORD PTR [esi+4]
  00009	c7 06 00 00 00
	00		 mov	 DWORD PTR [esi], OFFSET ??_7exception@std@@6B@
  0000f	50		 push	 eax
  00010	e8 00 00 00 00	 call	 ___std_exception_destroy
  00015	83 c4 04	 add	 esp, 4
  00018	f6 45 08 01	 test	 BYTE PTR ___flags$[ebp], 1
  0001c	74 0b		 je	 SHORT $LN12@scalar
  0001e	6a 0c		 push	 12			; 0000000cH
  00020	56		 push	 esi
  00021	e8 00 00 00 00	 call	 ??3@YAXPAXI@Z		; operator delete
  00026	83 c4 08	 add	 esp, 8
$LN12@scalar:
  00029	8b c6		 mov	 eax, esi
  0002b	5e		 pop	 esi
  0002c	5d		 pop	 ebp
  0002d	c2 04 00	 ret	 4
??_Gbad_array_new_length@std@@UAEPAXI@Z ENDP		; std::bad_array_new_length::`scalar deleting destructor'
_TEXT	ENDS
; Function compile flags: /Ogtp
; File C:\Program Files (x86)\Microsoft Visual Studio\2019\Community\VC\Tools\MSVC\14.29.30133\include\vcruntime_exception.h
;	COMDAT ??0bad_array_new_length@std@@QAE@ABV01@@Z
_TEXT	SEGMENT
___that$ = 8						; size = 4
??0bad_array_new_length@std@@QAE@ABV01@@Z PROC		; std::bad_array_new_length::bad_array_new_length, COMDAT
; _this$ = ecx
  00000	55		 push	 ebp
  00001	8b ec		 mov	 ebp, esp

; 72   :     {

  00003	56		 push	 esi
  00004	8b f1		 mov	 esi, ecx
  00006	0f 57 c0	 xorps	 xmm0, xmm0

; 71   :         : _Data()

  00009	8d 46 04	 lea	 eax, DWORD PTR [esi+4]

; 73   :         __std_exception_copy(&_Other._Data, &_Data);

  0000c	50		 push	 eax
  0000d	c7 06 00 00 00
	00		 mov	 DWORD PTR [esi], OFFSET ??_7exception@std@@6B@
  00013	66 0f d6 00	 movq	 QWORD PTR [eax], xmm0
  00017	8b 45 08	 mov	 eax, DWORD PTR ___that$[ebp]
  0001a	83 c0 04	 add	 eax, 4
  0001d	50		 push	 eax
  0001e	e8 00 00 00 00	 call	 ___std_exception_copy
  00023	83 c4 08	 add	 esp, 8
  00026	c7 06 00 00 00
	00		 mov	 DWORD PTR [esi], OFFSET ??_7bad_array_new_length@std@@6B@
  0002c	8b c6		 mov	 eax, esi
  0002e	5e		 pop	 esi
  0002f	5d		 pop	 ebp
  00030	c2 04 00	 ret	 4
??0bad_array_new_length@std@@QAE@ABV01@@Z ENDP		; std::bad_array_new_length::bad_array_new_length
_TEXT	ENDS
; Function compile flags: /Ogtp
; File C:\Program Files (x86)\Microsoft Visual Studio\2019\Community\VC\Tools\MSVC\14.29.30133\include\vcruntime_exception.h
;	COMDAT ??1bad_array_new_length@std@@UAE@XZ
_TEXT	SEGMENT
??1bad_array_new_length@std@@UAE@XZ PROC		; std::bad_array_new_length::~bad_array_new_length, COMDAT
; _this$ = ecx

; 90   :         __std_exception_destroy(&_Data);

  00000	8d 41 04	 lea	 eax, DWORD PTR [ecx+4]
  00003	c7 01 00 00 00
	00		 mov	 DWORD PTR [ecx], OFFSET ??_7exception@std@@6B@
  00009	50		 push	 eax
  0000a	e8 00 00 00 00	 call	 ___std_exception_destroy
  0000f	59		 pop	 ecx
  00010	c3		 ret	 0
??1bad_array_new_length@std@@UAE@XZ ENDP		; std::bad_array_new_length::~bad_array_new_length
_TEXT	ENDS
; Function compile flags: /Ogtp
; File C:\Program Files (x86)\Microsoft Visual Studio\2019\Community\VC\Tools\MSVC\14.29.30133\include\vcruntime_exception.h
;	COMDAT ??0bad_array_new_length@std@@QAE@XZ
_TEXT	SEGMENT
??0bad_array_new_length@std@@QAE@XZ PROC		; std::bad_array_new_length::bad_array_new_length, COMDAT
; _this$ = ecx

; 141  :     {

  00000	0f 57 c0	 xorps	 xmm0, xmm0

; 142  :     }

  00003	8b c1		 mov	 eax, ecx

; 65   :         : _Data()

  00005	66 0f d6 41 04	 movq	 QWORD PTR [ecx+4], xmm0

; 66   :     {
; 67   :         _Data._What = _Message;

  0000a	c7 41 04 00 00
	00 00		 mov	 DWORD PTR [ecx+4], OFFSET ??_C@_0BF@KINCDENJ@bad?5array?5new?5length@

; 141  :     {

  00011	c7 01 00 00 00
	00		 mov	 DWORD PTR [ecx], OFFSET ??_7bad_array_new_length@std@@6B@

; 142  :     }

  00017	c3		 ret	 0
??0bad_array_new_length@std@@QAE@XZ ENDP		; std::bad_array_new_length::bad_array_new_length
_TEXT	ENDS
; Function compile flags: /Ogtp
; File C:\Program Files (x86)\Microsoft Visual Studio\2019\Community\VC\Tools\MSVC\14.29.30133\include\vcruntime_exception.h
;	COMDAT ??_Gbad_alloc@std@@UAEPAXI@Z
_TEXT	SEGMENT
___flags$ = 8						; size = 4
??_Gbad_alloc@std@@UAEPAXI@Z PROC			; std::bad_alloc::`scalar deleting destructor', COMDAT
; _this$ = ecx
  00000	55		 push	 ebp
  00001	8b ec		 mov	 ebp, esp

; 89   :     {

  00003	56		 push	 esi
  00004	8b f1		 mov	 esi, ecx

; 90   :         __std_exception_destroy(&_Data);

  00006	8d 46 04	 lea	 eax, DWORD PTR [esi+4]
  00009	c7 06 00 00 00
	00		 mov	 DWORD PTR [esi], OFFSET ??_7exception@std@@6B@
  0000f	50		 push	 eax
  00010	e8 00 00 00 00	 call	 ___std_exception_destroy
  00015	83 c4 04	 add	 esp, 4
  00018	f6 45 08 01	 test	 BYTE PTR ___flags$[ebp], 1
  0001c	74 0b		 je	 SHORT $LN9@scalar
  0001e	6a 0c		 push	 12			; 0000000cH
  00020	56		 push	 esi
  00021	e8 00 00 00 00	 call	 ??3@YAXPAXI@Z		; operator delete
  00026	83 c4 08	 add	 esp, 8
$LN9@scalar:
  00029	8b c6		 mov	 eax, esi
  0002b	5e		 pop	 esi
  0002c	5d		 pop	 ebp
  0002d	c2 04 00	 ret	 4
??_Gbad_alloc@std@@UAEPAXI@Z ENDP			; std::bad_alloc::`scalar deleting destructor'
_TEXT	ENDS
; Function compile flags: /Ogtp
; File C:\Program Files (x86)\Microsoft Visual Studio\2019\Community\VC\Tools\MSVC\14.29.30133\include\vcruntime_exception.h
;	COMDAT ??0bad_alloc@std@@QAE@ABV01@@Z
_TEXT	SEGMENT
___that$ = 8						; size = 4
??0bad_alloc@std@@QAE@ABV01@@Z PROC			; std::bad_alloc::bad_alloc, COMDAT
; _this$ = ecx
  00000	55		 push	 ebp
  00001	8b ec		 mov	 ebp, esp

; 72   :     {

  00003	56		 push	 esi
  00004	8b f1		 mov	 esi, ecx
  00006	0f 57 c0	 xorps	 xmm0, xmm0

; 71   :         : _Data()

  00009	8d 46 04	 lea	 eax, DWORD PTR [esi+4]

; 73   :         __std_exception_copy(&_Other._Data, &_Data);

  0000c	50		 push	 eax
  0000d	c7 06 00 00 00
	00		 mov	 DWORD PTR [esi], OFFSET ??_7exception@std@@6B@
  00013	66 0f d6 00	 movq	 QWORD PTR [eax], xmm0
  00017	8b 45 08	 mov	 eax, DWORD PTR ___that$[ebp]
  0001a	83 c0 04	 add	 eax, 4
  0001d	50		 push	 eax
  0001e	e8 00 00 00 00	 call	 ___std_exception_copy
  00023	83 c4 08	 add	 esp, 8
  00026	c7 06 00 00 00
	00		 mov	 DWORD PTR [esi], OFFSET ??_7bad_alloc@std@@6B@
  0002c	8b c6		 mov	 eax, esi
  0002e	5e		 pop	 esi
  0002f	5d		 pop	 ebp
  00030	c2 04 00	 ret	 4
??0bad_alloc@std@@QAE@ABV01@@Z ENDP			; std::bad_alloc::bad_alloc
_TEXT	ENDS
; Function compile flags: /Ogtp
; File C:\Program Files (x86)\Microsoft Visual Studio\2019\Community\VC\Tools\MSVC\14.29.30133\include\vcruntime_exception.h
;	COMDAT ??_Gexception@std@@UAEPAXI@Z
_TEXT	SEGMENT
___flags$ = 8						; size = 4
??_Gexception@std@@UAEPAXI@Z PROC			; std::exception::`scalar deleting destructor', COMDAT
; _this$ = ecx
  00000	55		 push	 ebp
  00001	8b ec		 mov	 ebp, esp

; 89   :     {

  00003	56		 push	 esi
  00004	8b f1		 mov	 esi, ecx

; 90   :         __std_exception_destroy(&_Data);

  00006	8d 46 04	 lea	 eax, DWORD PTR [esi+4]
  00009	c7 06 00 00 00
	00		 mov	 DWORD PTR [esi], OFFSET ??_7exception@std@@6B@
  0000f	50		 push	 eax
  00010	e8 00 00 00 00	 call	 ___std_exception_destroy
  00015	83 c4 04	 add	 esp, 4
  00018	f6 45 08 01	 test	 BYTE PTR ___flags$[ebp], 1
  0001c	74 0b		 je	 SHORT $LN6@scalar
  0001e	6a 0c		 push	 12			; 0000000cH
  00020	56		 push	 esi
  00021	e8 00 00 00 00	 call	 ??3@YAXPAXI@Z		; operator delete
  00026	83 c4 08	 add	 esp, 8
$LN6@scalar:
  00029	8b c6		 mov	 eax, esi
  0002b	5e		 pop	 esi
  0002c	5d		 pop	 ebp
  0002d	c2 04 00	 ret	 4
??_Gexception@std@@UAEPAXI@Z ENDP			; std::exception::`scalar deleting destructor'
_TEXT	ENDS
; Function compile flags: /Ogtp
; File C:\Program Files (x86)\Microsoft Visual Studio\2019\Community\VC\Tools\MSVC\14.29.30133\include\vcruntime_exception.h
;	COMDAT ?what@exception@std@@UBEPBDXZ
_TEXT	SEGMENT
?what@exception@std@@UBEPBDXZ PROC			; std::exception::what, COMDAT
; _this$ = ecx

; 95   :         return _Data._What ? _Data._What : "Unknown exception";

  00000	8b 49 04	 mov	 ecx, DWORD PTR [ecx+4]
  00003	b8 00 00 00 00	 mov	 eax, OFFSET ??_C@_0BC@EOODALEL@Unknown?5exception@
  00008	85 c9		 test	 ecx, ecx
  0000a	0f 45 c1	 cmovne	 eax, ecx

; 96   :     }

  0000d	c3		 ret	 0
?what@exception@std@@UBEPBDXZ ENDP			; std::exception::what
_TEXT	ENDS
; Function compile flags: /Ogtp
; File C:\Program Files (x86)\Microsoft Visual Studio\2019\Community\VC\Tools\MSVC\14.29.30133\include\vcruntime_exception.h
;	COMDAT ??1exception@std@@UAE@XZ
_TEXT	SEGMENT
??1exception@std@@UAE@XZ PROC				; std::exception::~exception, COMDAT
; _this$ = ecx

; 90   :         __std_exception_destroy(&_Data);

  00000	8d 41 04	 lea	 eax, DWORD PTR [ecx+4]
  00003	c7 01 00 00 00
	00		 mov	 DWORD PTR [ecx], OFFSET ??_7exception@std@@6B@
  00009	50		 push	 eax
  0000a	e8 00 00 00 00	 call	 ___std_exception_destroy
  0000f	59		 pop	 ecx

; 91   :     }

  00010	c3		 ret	 0
??1exception@std@@UAE@XZ ENDP				; std::exception::~exception
_TEXT	ENDS
; Function compile flags: /Ogtp
; File C:\Program Files (x86)\Microsoft Visual Studio\2019\Community\VC\Tools\MSVC\14.29.30133\include\vcruntime_exception.h
;	COMDAT ??0exception@std@@QAE@ABV01@@Z
_TEXT	SEGMENT
__Other$ = 8						; size = 4
??0exception@std@@QAE@ABV01@@Z PROC			; std::exception::exception, COMDAT
; _this$ = ecx

; 72   :     {

  00000	55		 push	 ebp
  00001	8b ec		 mov	 ebp, esp
  00003	56		 push	 esi
  00004	8b f1		 mov	 esi, ecx
  00006	0f 57 c0	 xorps	 xmm0, xmm0
  00009	8d 46 04	 lea	 eax, DWORD PTR [esi+4]

; 73   :         __std_exception_copy(&_Other._Data, &_Data);

  0000c	50		 push	 eax
  0000d	c7 06 00 00 00
	00		 mov	 DWORD PTR [esi], OFFSET ??_7exception@std@@6B@
  00013	66 0f d6 00	 movq	 QWORD PTR [eax], xmm0
  00017	8b 45 08	 mov	 eax, DWORD PTR __Other$[ebp]
  0001a	83 c0 04	 add	 eax, 4
  0001d	50		 push	 eax
  0001e	e8 00 00 00 00	 call	 ___std_exception_copy
  00023	83 c4 08	 add	 esp, 8

; 74   :     }

  00026	8b c6		 mov	 eax, esi
  00028	5e		 pop	 esi
  00029	5d		 pop	 ebp
  0002a	c2 04 00	 ret	 4
??0exception@std@@QAE@ABV01@@Z ENDP			; std::exception::exception
_TEXT	ENDS
; Function compile flags: /Ogtp
; File C:\Program Files (x86)\Windows Kits\10\Include\10.0.22000.0\ucrt\stdio.h
;	COMDAT _sprintf
_TEXT	SEGMENT
__Buffer$ = 8						; size = 4
__Format$ = 12						; size = 4
_sprintf PROC						; COMDAT

; 1771 :     {

  00000	55		 push	 ebp
  00001	8b ec		 mov	 ebp, esp

; 1392 :         int const _Result = __stdio_common_vsprintf(

  00003	8d 45 10	 lea	 eax, DWORD PTR __Format$[ebp+4]
  00006	50		 push	 eax
  00007	6a 00		 push	 0
  00009	ff 75 0c	 push	 DWORD PTR __Format$[ebp]
  0000c	6a ff		 push	 -1
  0000e	ff 75 08	 push	 DWORD PTR __Buffer$[ebp]
  00011	e8 00 00 00 00	 call	 ___local_stdio_printf_options
  00016	8b 08		 mov	 ecx, DWORD PTR [eax]
  00018	ff 70 04	 push	 DWORD PTR [eax+4]
  0001b	83 c9 01	 or	 ecx, 1
  0001e	51		 push	 ecx
  0001f	ff 15 00 00 00
	00		 call	 DWORD PTR __imp____stdio_common_vsprintf

; 1393 :             _CRT_INTERNAL_LOCAL_PRINTF_OPTIONS | _CRT_INTERNAL_PRINTF_LEGACY_VSPRINTF_NULL_TERMINATION,
; 1394 :             _Buffer, _BufferCount, _Format, _Locale, _ArgList);
; 1395 : 
; 1396 :         return _Result < 0 ? -1 : _Result;

  00025	83 c9 ff	 or	 ecx, -1
  00028	83 c4 1c	 add	 esp, 28			; 0000001cH
  0002b	85 c0		 test	 eax, eax
  0002d	0f 48 c1	 cmovs	 eax, ecx

; 1772 :         int _Result;
; 1773 :         va_list _ArgList;
; 1774 :         __crt_va_start(_ArgList, _Format);
; 1775 : 
; 1776 :         _Result = _vsprintf_l(_Buffer, _Format, NULL, _ArgList);
; 1777 : 
; 1778 :         __crt_va_end(_ArgList);
; 1779 :         return _Result;
; 1780 :     }

  00030	5d		 pop	 ebp
  00031	c3		 ret	 0
_sprintf ENDP
_TEXT	ENDS
; Function compile flags: /Ogtp
; File C:\Program Files (x86)\Windows Kits\10\Include\10.0.22000.0\ucrt\corecrt_stdio_config.h
;	COMDAT ___local_stdio_printf_options
_TEXT	SEGMENT
___local_stdio_printf_options PROC			; COMDAT

; 91   :         static unsigned __int64 _OptionsStorage;
; 92   :         return &_OptionsStorage;

  00000	b8 00 00 00 00	 mov	 eax, OFFSET ?_OptionsStorage@?1??__local_stdio_printf_options@@9@4_KA ; `__local_stdio_printf_options'::`2'::_OptionsStorage

; 93   :     }

  00005	c3		 ret	 0
___local_stdio_printf_options ENDP
_TEXT	ENDS
; Function compile flags: /Ogtp
; File D:\git\src\IBK\IBK_DRFN\ProjSrc\SrcChartEx\ChartOCX\ChartObject\PacketRQ.cpp
;	COMDAT ?__empty_global_delete@@YAXPAXI@Z
_TEXT	SEGMENT
___formal$ = 8						; size = 4
___formal$ = 12						; size = 4
?__empty_global_delete@@YAXPAXI@Z PROC			; __empty_global_delete, COMDAT

  00000	c2 00 00	 ret	 0
?__empty_global_delete@@YAXPAXI@Z ENDP			; __empty_global_delete
_TEXT	ENDS
; Function compile flags: /Ogtp
; File D:\git\src\IBK\IBK_DRFN\ProjSrc\SrcChartEx\ChartOCX\ChartObject\PacketRQ.cpp
;	COMDAT ?__empty_global_delete@@YAXPAX@Z
_TEXT	SEGMENT
___formal$ = 8						; size = 4
?__empty_global_delete@@YAXPAX@Z PROC			; __empty_global_delete, COMDAT

  00000	c2 00 00	 ret	 0
?__empty_global_delete@@YAXPAX@Z ENDP			; __empty_global_delete
_TEXT	ENDS
END
