; Listing generated by Microsoft (R) Optimizing Compiler Version 19.29.30145.0 

	TITLE	D:\git\src\IBK\IBK_DRFN\#DRfn-CS\_Obj\ChartObject\ScaleCalculator.obj
	.686P
	.XMM
	include listing.inc
	.model	flat

INCLUDELIB MSVCRT
INCLUDELIB OLDNAMES

PUBLIC	?__empty_global_delete@@YAXPAX@Z		; __empty_global_delete
PUBLIC	?__empty_global_delete@@YAXPAXI@Z		; __empty_global_delete
PUBLIC	??HATL@@YA?AV?$CStringT@DV?$StrTraitMFC_DLL@DV?$ChTraitsCRT@D@ATL@@@@@0@ABV10@0@Z ; ATL::operator+
PUBLIC	?GetCompartScaleData@CScaleCalculator@@QAE?AV?$CStringT@DV?$StrTraitMFC_DLL@DV?$ChTraitsCRT@D@ATL@@@@@ATL@@W4HORZSCALEDRAWERTYPE@CScaleBaseData@@ABV23@1ABVCScaleCompart@@@Z ; CScaleCalculator::GetCompartScaleData
PUBLIC	?GetCompartScaleData_Date@CScaleCalculator@@QAE?AV?$CStringT@DV?$StrTraitMFC_DLL@DV?$ChTraitsCRT@D@ATL@@@@@ATL@@ABV23@00@Z ; CScaleCalculator::GetCompartScaleData_Date
PUBLIC	?GetCompartScaleData_Time@CScaleCalculator@@QAE?AV?$CStringT@DV?$StrTraitMFC_DLL@DV?$ChTraitsCRT@D@ATL@@@@@ATL@@W4HORZSCALEDRAWERTYPE@CScaleBaseData@@ABV23@1ABVCScaleCompart@@@Z ; CScaleCalculator::GetCompartScaleData_Time
PUBLIC	?GetTextSize@CScaleCalculator@@SA?AVCSize@@PAVCDC@@ABV?$CStringT@DV?$StrTraitMFC_DLL@DV?$ChTraitsCRT@D@ATL@@@@@ATL@@@Z ; CScaleCalculator::GetTextSize
PUBLIC	?GetTextSize@CScaleCalculator@@SA?AVCSize@@W4TEXTCOMPARTTYPE@CScaleBaseData@@ABV2@HH@Z ; CScaleCalculator::GetTextSize
PUBLIC	?GetTextSize@CScaleCalculator@@SA?AVCSize@@PAVCDC@@ABV?$CStringT@DV?$StrTraitMFC_DLL@DV?$ChTraitsCRT@D@ATL@@@@@ATL@@HH@Z ; CScaleCalculator::GetTextSize
PUBLIC	?GetRealPacketData@CScaleCalculator@@CA?AV?$CStringT@DV?$StrTraitMFC_DLL@DV?$ChTraitsCRT@D@ATL@@@@@ATL@@ABV23@H@Z ; CScaleCalculator::GetRealPacketData
PUBLIC	?GetPacketDataInTimeOut@CScaleCalculator@@AAE_NABV?$CStringT@DV?$StrTraitMFC_DLL@DV?$ChTraitsCRT@D@ATL@@@@@ATL@@AAV23@@Z ; CScaleCalculator::GetPacketDataInTimeOut
PUBLIC	?GetCompartScaleTime_One@CScaleCalculator@@AAE?AV?$CStringT@DV?$StrTraitMFC_DLL@DV?$ChTraitsCRT@D@ATL@@@@@ATL@@ABV23@0ABVCScaleCompart@@@Z ; CScaleCalculator::GetCompartScaleTime_One
PUBLIC	?GetCompartScaleTime_Two@CScaleCalculator@@AAE?AV?$CStringT@DV?$StrTraitMFC_DLL@DV?$ChTraitsCRT@D@ATL@@@@@ATL@@ABV23@0ABVCScaleCompart@@@Z ; CScaleCalculator::GetCompartScaleTime_Two
PUBLIC	?GetCompartScaleDateTime@CScaleCalculator@@AAEXABV?$CStringT@DV?$StrTraitMFC_DLL@DV?$ChTraitsCRT@D@ATL@@@@@ATL@@0ABVCScaleCompart@@AAV23@2@Z ; CScaleCalculator::GetCompartScaleDateTime
PUBLIC	?GetCompartScaleDate@CScaleCalculator@@AAE?AV?$CStringT@DV?$StrTraitMFC_DLL@DV?$ChTraitsCRT@D@ATL@@@@@ATL@@ABV23@00@Z ; CScaleCalculator::GetCompartScaleDate
PUBLIC	?GetCompartScaleTime@CScaleCalculator@@AAE?AV?$CStringT@DV?$StrTraitMFC_DLL@DV?$ChTraitsCRT@D@ATL@@@@@ATL@@ABV23@00@Z ; CScaleCalculator::GetCompartScaleTime
PUBLIC	?ChangeData@CScaleCalculator@@CA_NAAV?$CStringT@DV?$StrTraitMFC_DLL@DV?$ChTraitsCRT@D@ATL@@@@@ATL@@ABV23@H@Z ; CScaleCalculator::ChangeData
PUBLIC	?GetTrimData@CScaleCalculator@@CA?AV?$CStringT@DV?$StrTraitMFC_DLL@DV?$ChTraitsCRT@D@ATL@@@@@ATL@@ABV23@0ABD@Z ; CScaleCalculator::GetTrimData
PUBLIC	?GetMonthEnglish@CScaleCalculator@@CA?AV?$CStringT@DV?$StrTraitMFC_DLL@DV?$ChTraitsCRT@D@ATL@@@@@ATL@@ABV23@@Z ; CScaleCalculator::GetMonthEnglish
PUBLIC	??_C@_00CNPNBAHC@@				; `string'
PUBLIC	??_C@_02PCIJFNDE@?$AN?6@			; `string'
PUBLIC	??_C@_01GBGANLPD@0@				; `string'
PUBLIC	??_C@_01CLKCMJKC@?5@				; `string'
PUBLIC	??_C@_02OCIIMEMP@01@				; `string'
PUBLIC	??_C@_07CGJPFGJA@January@			; `string'
PUBLIC	??_C@_02MJKFJHAM@02@				; `string'
PUBLIC	??_C@_08GNJGEPFN@February@			; `string'
PUBLIC	??_C@_02NALOKGEN@03@				; `string'
PUBLIC	??_C@_05HPCKOFNC@March@				; `string'
PUBLIC	??_C@_02JPPPDAIK@04@				; `string'
PUBLIC	??_C@_05DMJDNLEJ@April@				; `string'
PUBLIC	??_C@_02IGOEABML@05@				; `string'
PUBLIC	??_C@_03CNMDKL@May@				; `string'
PUBLIC	??_C@_02KNMJFCAI@06@				; `string'
PUBLIC	??_C@_04CNLMGBGM@June@				; `string'
PUBLIC	??_C@_02LENCGDEJ@07@				; `string'
PUBLIC	??_C@_04MIEPOIFP@July@				; `string'
PUBLIC	??_C@_02DDEKHPIG@08@				; `string'
PUBLIC	??_C@_06LBBHFDDG@August@			; `string'
PUBLIC	??_C@_02CKFBEOMH@09@				; `string'
PUBLIC	??_C@_09BHHEALKD@September@			; `string'
PUBLIC	??_C@_02PKFBJPLJ@10@				; `string'
PUBLIC	??_C@_07JJNFCEND@October@			; `string'
PUBLIC	??_C@_02ODEKKOPI@11@				; `string'
PUBLIC	??_C@_08HCHEGEOA@November@			; `string'
PUBLIC	??_C@_02MIGHPNDL@12@				; `string'
PUBLIC	??_C@_08EDHMEBNP@December@			; `string'
EXTRN	__imp__GetTextExtentPoint32A@16:PROC
EXTRN	__imp_?Concatenate@?$CSimpleStringT@D$00@ATL@@KAXAAV12@PBDH1H@Z:PROC
EXTRN	__imp_??0?$CStringT@DV?$StrTraitMFC_DLL@DV?$ChTraitsCRT@D@ATL@@@@@ATL@@QAE@XZ:PROC
EXTRN	__imp_??0?$CStringT@DV?$StrTraitMFC_DLL@DV?$ChTraitsCRT@D@ATL@@@@@ATL@@QAE@PAUIAtlStringMgr@1@@Z:PROC
EXTRN	__imp_??0?$CStringT@DV?$StrTraitMFC_DLL@DV?$ChTraitsCRT@D@ATL@@@@@ATL@@QAE@ABV01@@Z:PROC
EXTRN	__imp_??0?$CStringT@DV?$StrTraitMFC_DLL@DV?$ChTraitsCRT@D@ATL@@@@@ATL@@QAE@PBD@Z:PROC
EXTRN	__imp_??1?$CStringT@DV?$StrTraitMFC_DLL@DV?$ChTraitsCRT@D@ATL@@@@@ATL@@QAE@XZ:PROC
EXTRN	__imp_??4?$CStringT@DV?$StrTraitMFC_DLL@DV?$ChTraitsCRT@D@ATL@@@@@ATL@@QAEAAV01@ABV01@@Z:PROC
EXTRN	__imp_??4?$CStringT@DV?$StrTraitMFC_DLL@DV?$ChTraitsCRT@D@ATL@@@@@ATL@@QAEAAV01@PBD@Z:PROC
EXTRN	__imp_??Y?$CStringT@DV?$StrTraitMFC_DLL@DV?$ChTraitsCRT@D@ATL@@@@@ATL@@QAEAAV01@PBD@Z:PROC
EXTRN	__imp_?GetManager@?$CStringT@DV?$StrTraitMFC_DLL@DV?$ChTraitsCRT@D@ATL@@@@@ATL@@QBEPAUIAtlStringMgr@2@XZ:PROC
EXTRN	__imp_?Compare@?$CStringT@DV?$StrTraitMFC_DLL@DV?$ChTraitsCRT@D@ATL@@@@@ATL@@QBEHPBD@Z:PROC
EXTRN	__imp_?Insert@?$CStringT@DV?$StrTraitMFC_DLL@DV?$ChTraitsCRT@D@ATL@@@@@ATL@@QAEHHPBD@Z:PROC
EXTRN	__imp_?Find@?$CStringT@DV?$StrTraitMFC_DLL@DV?$ChTraitsCRT@D@ATL@@@@@ATL@@QBEHDH@Z:PROC
EXTRN	__imp_?ReverseFind@?$CStringT@DV?$StrTraitMFC_DLL@DV?$ChTraitsCRT@D@ATL@@@@@ATL@@QBEHD@Z:PROC
EXTRN	__imp_?Mid@?$CStringT@DV?$StrTraitMFC_DLL@DV?$ChTraitsCRT@D@ATL@@@@@ATL@@QBE?AV12@HH@Z:PROC
EXTRN	__imp_?Right@?$CStringT@DV?$StrTraitMFC_DLL@DV?$ChTraitsCRT@D@ATL@@@@@ATL@@QBE?AV12@H@Z:PROC
EXTRN	__imp_?Left@?$CStringT@DV?$StrTraitMFC_DLL@DV?$ChTraitsCRT@D@ATL@@@@@ATL@@QBE?AV12@H@Z:PROC
EXTRN	?GetLanguageText@IMetaTable@@QAEPBDPAUHWND__@@W4E_CODEPAGE@1@PBDH@Z:PROC ; IMetaTable::GetLanguageText
EXTRN	__imp_?GetDateCompart@CScaleCompart@@QBE?AV?$CStringT@DV?$StrTraitMFC_DLL@DV?$ChTraitsCRT@D@ATL@@@@@ATL@@XZ:PROC
EXTRN	__imp_?GetTimeCompart@CScaleCompart@@QBE?AV?$CStringT@DV?$StrTraitMFC_DLL@DV?$ChTraitsCRT@D@ATL@@@@@ATL@@XZ:PROC
EXTRN	?GetSpecialTime@CDataConversion@@QAE_NABV?$CStringT@DV?$StrTraitMFC_DLL@DV?$ChTraitsCRT@D@ATL@@@@@ATL@@0AAV23@@Z:PROC ; CDataConversion::GetSpecialTime
EXTRN	?GetStringData@CDataConversion@@SA?AV?$CStringT@DV?$StrTraitMFC_DLL@DV?$ChTraitsCRT@D@ATL@@@@@ATL@@AAV23@ABV23@_N@Z:PROC ; CDataConversion::GetStringData
EXTRN	?GetStringDataCount@CDataConversion@@SAHABV?$CStringT@DV?$StrTraitMFC_DLL@DV?$ChTraitsCRT@D@ATL@@@@@ATL@@0@Z:PROC ; CDataConversion::GetStringDataCount
EXTRN	@__security_check_cookie@4:PROC
EXTRN	___CxxFrameHandler3:PROC
EXTRN	?g_iMetaTable@@3VIMetaTable@@A:BYTE		; g_iMetaTable
EXTRN	___security_cookie:DWORD
;	COMDAT ??_C@_08EDHMEBNP@December@
CONST	SEGMENT
??_C@_08EDHMEBNP@December@ DB 'December', 00H		; `string'
CONST	ENDS
;	COMDAT ??_C@_02MIGHPNDL@12@
CONST	SEGMENT
??_C@_02MIGHPNDL@12@ DB '12', 00H			; `string'
CONST	ENDS
;	COMDAT ??_C@_08HCHEGEOA@November@
CONST	SEGMENT
??_C@_08HCHEGEOA@November@ DB 'November', 00H		; `string'
CONST	ENDS
;	COMDAT ??_C@_02ODEKKOPI@11@
CONST	SEGMENT
??_C@_02ODEKKOPI@11@ DB '11', 00H			; `string'
CONST	ENDS
;	COMDAT ??_C@_07JJNFCEND@October@
CONST	SEGMENT
??_C@_07JJNFCEND@October@ DB 'October', 00H		; `string'
CONST	ENDS
;	COMDAT ??_C@_02PKFBJPLJ@10@
CONST	SEGMENT
??_C@_02PKFBJPLJ@10@ DB '10', 00H			; `string'
CONST	ENDS
;	COMDAT ??_C@_09BHHEALKD@September@
CONST	SEGMENT
??_C@_09BHHEALKD@September@ DB 'September', 00H		; `string'
CONST	ENDS
;	COMDAT ??_C@_02CKFBEOMH@09@
CONST	SEGMENT
??_C@_02CKFBEOMH@09@ DB '09', 00H			; `string'
CONST	ENDS
;	COMDAT ??_C@_06LBBHFDDG@August@
CONST	SEGMENT
??_C@_06LBBHFDDG@August@ DB 'August', 00H		; `string'
CONST	ENDS
;	COMDAT ??_C@_02DDEKHPIG@08@
CONST	SEGMENT
??_C@_02DDEKHPIG@08@ DB '08', 00H			; `string'
CONST	ENDS
;	COMDAT ??_C@_04MIEPOIFP@July@
CONST	SEGMENT
??_C@_04MIEPOIFP@July@ DB 'July', 00H			; `string'
CONST	ENDS
;	COMDAT ??_C@_02LENCGDEJ@07@
CONST	SEGMENT
??_C@_02LENCGDEJ@07@ DB '07', 00H			; `string'
CONST	ENDS
;	COMDAT ??_C@_04CNLMGBGM@June@
CONST	SEGMENT
??_C@_04CNLMGBGM@June@ DB 'June', 00H			; `string'
CONST	ENDS
;	COMDAT ??_C@_02KNMJFCAI@06@
CONST	SEGMENT
??_C@_02KNMJFCAI@06@ DB '06', 00H			; `string'
CONST	ENDS
;	COMDAT ??_C@_03CNMDKL@May@
CONST	SEGMENT
??_C@_03CNMDKL@May@ DB 'May', 00H			; `string'
CONST	ENDS
;	COMDAT ??_C@_02IGOEABML@05@
CONST	SEGMENT
??_C@_02IGOEABML@05@ DB '05', 00H			; `string'
CONST	ENDS
;	COMDAT ??_C@_05DMJDNLEJ@April@
CONST	SEGMENT
??_C@_05DMJDNLEJ@April@ DB 'April', 00H			; `string'
CONST	ENDS
;	COMDAT ??_C@_02JPPPDAIK@04@
CONST	SEGMENT
??_C@_02JPPPDAIK@04@ DB '04', 00H			; `string'
CONST	ENDS
;	COMDAT ??_C@_05HPCKOFNC@March@
CONST	SEGMENT
??_C@_05HPCKOFNC@March@ DB 'March', 00H			; `string'
CONST	ENDS
;	COMDAT ??_C@_02NALOKGEN@03@
CONST	SEGMENT
??_C@_02NALOKGEN@03@ DB '03', 00H			; `string'
CONST	ENDS
;	COMDAT ??_C@_08GNJGEPFN@February@
CONST	SEGMENT
??_C@_08GNJGEPFN@February@ DB 'February', 00H		; `string'
CONST	ENDS
;	COMDAT ??_C@_02MJKFJHAM@02@
CONST	SEGMENT
??_C@_02MJKFJHAM@02@ DB '02', 00H			; `string'
CONST	ENDS
;	COMDAT ??_C@_07CGJPFGJA@January@
CONST	SEGMENT
??_C@_07CGJPFGJA@January@ DB 'January', 00H		; `string'
CONST	ENDS
;	COMDAT ??_C@_02OCIIMEMP@01@
CONST	SEGMENT
??_C@_02OCIIMEMP@01@ DB '01', 00H			; `string'
CONST	ENDS
;	COMDAT ??_C@_01CLKCMJKC@?5@
CONST	SEGMENT
??_C@_01CLKCMJKC@?5@ DB ' ', 00H			; `string'
CONST	ENDS
;	COMDAT ??_C@_01GBGANLPD@0@
CONST	SEGMENT
??_C@_01GBGANLPD@0@ DB '0', 00H				; `string'
CONST	ENDS
;	COMDAT ??_C@_02PCIJFNDE@?$AN?6@
CONST	SEGMENT
??_C@_02PCIJFNDE@?$AN?6@ DB 0dH, 0aH, 00H		; `string'
CONST	ENDS
;	COMDAT ??_C@_00CNPNBAHC@@
CONST	SEGMENT
??_C@_00CNPNBAHC@@ DB 00H				; `string'
CONST	ENDS
;	COMDAT xdata$x
xdata$x	SEGMENT
__unwindtable$?GetCompartScaleTime@CScaleCalculator@@AAE?AV?$CStringT@DV?$StrTraitMFC_DLL@DV?$ChTraitsCRT@D@ATL@@@@@ATL@@ABV23@00@Z DD 0ffffffffH
	DD	FLAT:__unwindfunclet$?GetCompartScaleTime@CScaleCalculator@@AAE?AV?$CStringT@DV?$StrTraitMFC_DLL@DV?$ChTraitsCRT@D@ATL@@@@@ATL@@ABV23@00@Z$1
	DD	00H
	DD	FLAT:__unwindfunclet$?GetCompartScaleTime@CScaleCalculator@@AAE?AV?$CStringT@DV?$StrTraitMFC_DLL@DV?$ChTraitsCRT@D@ATL@@@@@ATL@@ABV23@00@Z$2
	DD	00H
	DD	FLAT:__unwindfunclet$?GetCompartScaleTime@CScaleCalculator@@AAE?AV?$CStringT@DV?$StrTraitMFC_DLL@DV?$ChTraitsCRT@D@ATL@@@@@ATL@@ABV23@00@Z$3
	DD	00H
	DD	FLAT:__unwindfunclet$?GetCompartScaleTime@CScaleCalculator@@AAE?AV?$CStringT@DV?$StrTraitMFC_DLL@DV?$ChTraitsCRT@D@ATL@@@@@ATL@@ABV23@00@Z$4
__ehfuncinfo$?GetCompartScaleTime@CScaleCalculator@@AAE?AV?$CStringT@DV?$StrTraitMFC_DLL@DV?$ChTraitsCRT@D@ATL@@@@@ATL@@ABV23@00@Z DD 019930522H
	DD	04H
	DD	FLAT:__unwindtable$?GetCompartScaleTime@CScaleCalculator@@AAE?AV?$CStringT@DV?$StrTraitMFC_DLL@DV?$ChTraitsCRT@D@ATL@@@@@ATL@@ABV23@00@Z
	DD	2 DUP(00H)
	DD	2 DUP(00H)
	DD	00H
	DD	01H
xdata$x	ENDS
;	COMDAT xdata$x
xdata$x	SEGMENT
__ehfuncinfo$?GetCompartScaleDate@CScaleCalculator@@AAE?AV?$CStringT@DV?$StrTraitMFC_DLL@DV?$ChTraitsCRT@D@ATL@@@@@ATL@@ABV23@00@Z DD 019930522H
	DD	013H
	DD	FLAT:__unwindtable$?GetCompartScaleDate@CScaleCalculator@@AAE?AV?$CStringT@DV?$StrTraitMFC_DLL@DV?$ChTraitsCRT@D@ATL@@@@@ATL@@ABV23@00@Z
	DD	2 DUP(00H)
	DD	2 DUP(00H)
	DD	00H
	DD	01H
__unwindtable$?GetCompartScaleDate@CScaleCalculator@@AAE?AV?$CStringT@DV?$StrTraitMFC_DLL@DV?$ChTraitsCRT@D@ATL@@@@@ATL@@ABV23@00@Z DD 0ffffffffH
	DD	FLAT:__unwindfunclet$?GetCompartScaleDate@CScaleCalculator@@AAE?AV?$CStringT@DV?$StrTraitMFC_DLL@DV?$ChTraitsCRT@D@ATL@@@@@ATL@@ABV23@00@Z$1
	DD	00H
	DD	FLAT:__unwindfunclet$?GetCompartScaleDate@CScaleCalculator@@AAE?AV?$CStringT@DV?$StrTraitMFC_DLL@DV?$ChTraitsCRT@D@ATL@@@@@ATL@@ABV23@00@Z$2
	DD	00H
	DD	FLAT:__unwindfunclet$?GetCompartScaleDate@CScaleCalculator@@AAE?AV?$CStringT@DV?$StrTraitMFC_DLL@DV?$ChTraitsCRT@D@ATL@@@@@ATL@@ABV23@00@Z$3
	DD	00H
	DD	FLAT:__unwindfunclet$?GetCompartScaleDate@CScaleCalculator@@AAE?AV?$CStringT@DV?$StrTraitMFC_DLL@DV?$ChTraitsCRT@D@ATL@@@@@ATL@@ABV23@00@Z$4
	DD	00H
	DD	FLAT:__unwindfunclet$?GetCompartScaleDate@CScaleCalculator@@AAE?AV?$CStringT@DV?$StrTraitMFC_DLL@DV?$ChTraitsCRT@D@ATL@@@@@ATL@@ABV23@00@Z$5
	DD	00H
	DD	FLAT:__unwindfunclet$?GetCompartScaleDate@CScaleCalculator@@AAE?AV?$CStringT@DV?$StrTraitMFC_DLL@DV?$ChTraitsCRT@D@ATL@@@@@ATL@@ABV23@00@Z$6
	DD	00H
	DD	FLAT:__unwindfunclet$?GetCompartScaleDate@CScaleCalculator@@AAE?AV?$CStringT@DV?$StrTraitMFC_DLL@DV?$ChTraitsCRT@D@ATL@@@@@ATL@@ABV23@00@Z$7
	DD	00H
	DD	FLAT:__unwindfunclet$?GetCompartScaleDate@CScaleCalculator@@AAE?AV?$CStringT@DV?$StrTraitMFC_DLL@DV?$ChTraitsCRT@D@ATL@@@@@ATL@@ABV23@00@Z$8
	DD	07H
	DD	FLAT:__unwindfunclet$?GetCompartScaleDate@CScaleCalculator@@AAE?AV?$CStringT@DV?$StrTraitMFC_DLL@DV?$ChTraitsCRT@D@ATL@@@@@ATL@@ABV23@00@Z$9
	DD	08H
	DD	FLAT:__unwindfunclet$?GetCompartScaleDate@CScaleCalculator@@AAE?AV?$CStringT@DV?$StrTraitMFC_DLL@DV?$ChTraitsCRT@D@ATL@@@@@ATL@@ABV23@00@Z$10
	DD	07H
	DD	FLAT:__unwindfunclet$?GetCompartScaleDate@CScaleCalculator@@AAE?AV?$CStringT@DV?$StrTraitMFC_DLL@DV?$ChTraitsCRT@D@ATL@@@@@ATL@@ABV23@00@Z$10
	DD	0aH
	DD	FLAT:__unwindfunclet$?GetCompartScaleDate@CScaleCalculator@@AAE?AV?$CStringT@DV?$StrTraitMFC_DLL@DV?$ChTraitsCRT@D@ATL@@@@@ATL@@ABV23@00@Z$11
	DD	0bH
	DD	FLAT:__unwindfunclet$?GetCompartScaleDate@CScaleCalculator@@AAE?AV?$CStringT@DV?$StrTraitMFC_DLL@DV?$ChTraitsCRT@D@ATL@@@@@ATL@@ABV23@00@Z$19
	DD	0cH
	DD	FLAT:__unwindfunclet$?GetCompartScaleDate@CScaleCalculator@@AAE?AV?$CStringT@DV?$StrTraitMFC_DLL@DV?$ChTraitsCRT@D@ATL@@@@@ATL@@ABV23@00@Z$13
	DD	0bH
	DD	FLAT:__unwindfunclet$?GetCompartScaleDate@CScaleCalculator@@AAE?AV?$CStringT@DV?$StrTraitMFC_DLL@DV?$ChTraitsCRT@D@ATL@@@@@ATL@@ABV23@00@Z$14
	DD	0bH
	DD	FLAT:__unwindfunclet$?GetCompartScaleDate@CScaleCalculator@@AAE?AV?$CStringT@DV?$StrTraitMFC_DLL@DV?$ChTraitsCRT@D@ATL@@@@@ATL@@ABV23@00@Z$20
	DD	0bH
	DD	FLAT:__unwindfunclet$?GetCompartScaleDate@CScaleCalculator@@AAE?AV?$CStringT@DV?$StrTraitMFC_DLL@DV?$ChTraitsCRT@D@ATL@@@@@ATL@@ABV23@00@Z$16
	DD	0bH
	DD	FLAT:__unwindfunclet$?GetCompartScaleDate@CScaleCalculator@@AAE?AV?$CStringT@DV?$StrTraitMFC_DLL@DV?$ChTraitsCRT@D@ATL@@@@@ATL@@ABV23@00@Z$21
	DD	0bH
	DD	FLAT:__unwindfunclet$?GetCompartScaleDate@CScaleCalculator@@AAE?AV?$CStringT@DV?$StrTraitMFC_DLL@DV?$ChTraitsCRT@D@ATL@@@@@ATL@@ABV23@00@Z$18
xdata$x	ENDS
;	COMDAT xdata$x
xdata$x	SEGMENT
__ehfuncinfo$?GetCompartScaleDateTime@CScaleCalculator@@AAEXABV?$CStringT@DV?$StrTraitMFC_DLL@DV?$ChTraitsCRT@D@ATL@@@@@ATL@@0ABVCScaleCompart@@AAV23@2@Z DD 019930522H
	DD	0bH
	DD	FLAT:__unwindtable$?GetCompartScaleDateTime@CScaleCalculator@@AAEXABV?$CStringT@DV?$StrTraitMFC_DLL@DV?$ChTraitsCRT@D@ATL@@@@@ATL@@0ABVCScaleCompart@@AAV23@2@Z
	DD	2 DUP(00H)
	DD	2 DUP(00H)
	DD	00H
	DD	01H
__unwindtable$?GetCompartScaleDateTime@CScaleCalculator@@AAEXABV?$CStringT@DV?$StrTraitMFC_DLL@DV?$ChTraitsCRT@D@ATL@@@@@ATL@@0ABVCScaleCompart@@AAV23@2@Z DD 0ffffffffH
	DD	FLAT:__unwindfunclet$?GetCompartScaleDateTime@CScaleCalculator@@AAEXABV?$CStringT@DV?$StrTraitMFC_DLL@DV?$ChTraitsCRT@D@ATL@@@@@ATL@@0ABVCScaleCompart@@AAV23@2@Z$0
	DD	00H
	DD	FLAT:__unwindfunclet$?GetCompartScaleDateTime@CScaleCalculator@@AAEXABV?$CStringT@DV?$StrTraitMFC_DLL@DV?$ChTraitsCRT@D@ATL@@@@@ATL@@0ABVCScaleCompart@@AAV23@2@Z$1
	DD	0ffffffffH
	DD	FLAT:__unwindfunclet$?GetCompartScaleDateTime@CScaleCalculator@@AAEXABV?$CStringT@DV?$StrTraitMFC_DLL@DV?$ChTraitsCRT@D@ATL@@@@@ATL@@0ABVCScaleCompart@@AAV23@2@Z$2
	DD	02H
	DD	FLAT:__unwindfunclet$?GetCompartScaleDateTime@CScaleCalculator@@AAEXABV?$CStringT@DV?$StrTraitMFC_DLL@DV?$ChTraitsCRT@D@ATL@@@@@ATL@@0ABVCScaleCompart@@AAV23@2@Z$3
	DD	03H
	DD	FLAT:__unwindfunclet$?GetCompartScaleDateTime@CScaleCalculator@@AAEXABV?$CStringT@DV?$StrTraitMFC_DLL@DV?$ChTraitsCRT@D@ATL@@@@@ATL@@0ABVCScaleCompart@@AAV23@2@Z$4
	DD	04H
	DD	FLAT:__unwindfunclet$?GetCompartScaleDateTime@CScaleCalculator@@AAEXABV?$CStringT@DV?$StrTraitMFC_DLL@DV?$ChTraitsCRT@D@ATL@@@@@ATL@@0ABVCScaleCompart@@AAV23@2@Z$10
	DD	04H
	DD	FLAT:__unwindfunclet$?GetCompartScaleDateTime@CScaleCalculator@@AAEXABV?$CStringT@DV?$StrTraitMFC_DLL@DV?$ChTraitsCRT@D@ATL@@@@@ATL@@0ABVCScaleCompart@@AAV23@2@Z$5
	DD	0ffffffffH
	DD	FLAT:__unwindfunclet$?GetCompartScaleDateTime@CScaleCalculator@@AAEXABV?$CStringT@DV?$StrTraitMFC_DLL@DV?$ChTraitsCRT@D@ATL@@@@@ATL@@0ABVCScaleCompart@@AAV23@2@Z$6
	DD	07H
	DD	FLAT:__unwindfunclet$?GetCompartScaleDateTime@CScaleCalculator@@AAEXABV?$CStringT@DV?$StrTraitMFC_DLL@DV?$ChTraitsCRT@D@ATL@@@@@ATL@@0ABVCScaleCompart@@AAV23@2@Z$7
	DD	08H
	DD	FLAT:__unwindfunclet$?GetCompartScaleDateTime@CScaleCalculator@@AAEXABV?$CStringT@DV?$StrTraitMFC_DLL@DV?$ChTraitsCRT@D@ATL@@@@@ATL@@0ABVCScaleCompart@@AAV23@2@Z$8
	DD	09H
	DD	FLAT:__unwindfunclet$?GetCompartScaleDateTime@CScaleCalculator@@AAEXABV?$CStringT@DV?$StrTraitMFC_DLL@DV?$ChTraitsCRT@D@ATL@@@@@ATL@@0ABVCScaleCompart@@AAV23@2@Z$9
xdata$x	ENDS
;	COMDAT xdata$x
xdata$x	SEGMENT
__unwindtable$?GetCompartScaleTime_Two@CScaleCalculator@@AAE?AV?$CStringT@DV?$StrTraitMFC_DLL@DV?$ChTraitsCRT@D@ATL@@@@@ATL@@ABV23@0ABVCScaleCompart@@@Z DD 0ffffffffH
	DD	FLAT:__unwindfunclet$?GetCompartScaleTime_Two@CScaleCalculator@@AAE?AV?$CStringT@DV?$StrTraitMFC_DLL@DV?$ChTraitsCRT@D@ATL@@@@@ATL@@ABV23@0ABVCScaleCompart@@@Z$0
	DD	00H
	DD	FLAT:__unwindfunclet$?GetCompartScaleTime_Two@CScaleCalculator@@AAE?AV?$CStringT@DV?$StrTraitMFC_DLL@DV?$ChTraitsCRT@D@ATL@@@@@ATL@@ABV23@0ABVCScaleCompart@@@Z$1
	DD	01H
	DD	FLAT:__unwindfunclet$?GetCompartScaleTime_Two@CScaleCalculator@@AAE?AV?$CStringT@DV?$StrTraitMFC_DLL@DV?$ChTraitsCRT@D@ATL@@@@@ATL@@ABV23@0ABVCScaleCompart@@@Z$4
__ehfuncinfo$?GetCompartScaleTime_Two@CScaleCalculator@@AAE?AV?$CStringT@DV?$StrTraitMFC_DLL@DV?$ChTraitsCRT@D@ATL@@@@@ATL@@ABV23@0ABVCScaleCompart@@@Z DD 019930522H
	DD	03H
	DD	FLAT:__unwindtable$?GetCompartScaleTime_Two@CScaleCalculator@@AAE?AV?$CStringT@DV?$StrTraitMFC_DLL@DV?$ChTraitsCRT@D@ATL@@@@@ATL@@ABV23@0ABVCScaleCompart@@@Z
	DD	2 DUP(00H)
	DD	2 DUP(00H)
	DD	00H
	DD	01H
xdata$x	ENDS
;	COMDAT xdata$x
xdata$x	SEGMENT
__unwindtable$?GetCompartScaleTime_One@CScaleCalculator@@AAE?AV?$CStringT@DV?$StrTraitMFC_DLL@DV?$ChTraitsCRT@D@ATL@@@@@ATL@@ABV23@0ABVCScaleCompart@@@Z DD 0ffffffffH
	DD	FLAT:__unwindfunclet$?GetCompartScaleTime_One@CScaleCalculator@@AAE?AV?$CStringT@DV?$StrTraitMFC_DLL@DV?$ChTraitsCRT@D@ATL@@@@@ATL@@ABV23@0ABVCScaleCompart@@@Z$0
	DD	00H
	DD	FLAT:__unwindfunclet$?GetCompartScaleTime_One@CScaleCalculator@@AAE?AV?$CStringT@DV?$StrTraitMFC_DLL@DV?$ChTraitsCRT@D@ATL@@@@@ATL@@ABV23@0ABVCScaleCompart@@@Z$1
	DD	01H
	DD	FLAT:__unwindfunclet$?GetCompartScaleTime_One@CScaleCalculator@@AAE?AV?$CStringT@DV?$StrTraitMFC_DLL@DV?$ChTraitsCRT@D@ATL@@@@@ATL@@ABV23@0ABVCScaleCompart@@@Z$4
	DD	02H
	DD	FLAT:__unwindfunclet$?GetCompartScaleTime_One@CScaleCalculator@@AAE?AV?$CStringT@DV?$StrTraitMFC_DLL@DV?$ChTraitsCRT@D@ATL@@@@@ATL@@ABV23@0ABVCScaleCompart@@@Z$5
__ehfuncinfo$?GetCompartScaleTime_One@CScaleCalculator@@AAE?AV?$CStringT@DV?$StrTraitMFC_DLL@DV?$ChTraitsCRT@D@ATL@@@@@ATL@@ABV23@0ABVCScaleCompart@@@Z DD 019930522H
	DD	04H
	DD	FLAT:__unwindtable$?GetCompartScaleTime_One@CScaleCalculator@@AAE?AV?$CStringT@DV?$StrTraitMFC_DLL@DV?$ChTraitsCRT@D@ATL@@@@@ATL@@ABV23@0ABVCScaleCompart@@@Z
	DD	2 DUP(00H)
	DD	2 DUP(00H)
	DD	00H
	DD	01H
xdata$x	ENDS
;	COMDAT xdata$x
xdata$x	SEGMENT
__unwindtable$?GetPacketDataInTimeOut@CScaleCalculator@@AAE_NABV?$CStringT@DV?$StrTraitMFC_DLL@DV?$ChTraitsCRT@D@ATL@@@@@ATL@@AAV23@@Z DD 0ffffffffH
	DD	FLAT:__unwindfunclet$?GetPacketDataInTimeOut@CScaleCalculator@@AAE_NABV?$CStringT@DV?$StrTraitMFC_DLL@DV?$ChTraitsCRT@D@ATL@@@@@ATL@@AAV23@@Z$0
__ehfuncinfo$?GetPacketDataInTimeOut@CScaleCalculator@@AAE_NABV?$CStringT@DV?$StrTraitMFC_DLL@DV?$ChTraitsCRT@D@ATL@@@@@ATL@@AAV23@@Z DD 019930522H
	DD	01H
	DD	FLAT:__unwindtable$?GetPacketDataInTimeOut@CScaleCalculator@@AAE_NABV?$CStringT@DV?$StrTraitMFC_DLL@DV?$ChTraitsCRT@D@ATL@@@@@ATL@@AAV23@@Z
	DD	2 DUP(00H)
	DD	2 DUP(00H)
	DD	00H
	DD	01H
xdata$x	ENDS
;	COMDAT xdata$x
xdata$x	SEGMENT
__unwindtable$?GetRealPacketData@CScaleCalculator@@CA?AV?$CStringT@DV?$StrTraitMFC_DLL@DV?$ChTraitsCRT@D@ATL@@@@@ATL@@ABV23@H@Z DD 0ffffffffH
	DD	FLAT:__unwindfunclet$?GetRealPacketData@CScaleCalculator@@CA?AV?$CStringT@DV?$StrTraitMFC_DLL@DV?$ChTraitsCRT@D@ATL@@@@@ATL@@ABV23@H@Z$1
	DD	00H
	DD	FLAT:__unwindfunclet$?GetRealPacketData@CScaleCalculator@@CA?AV?$CStringT@DV?$StrTraitMFC_DLL@DV?$ChTraitsCRT@D@ATL@@@@@ATL@@ABV23@H@Z$2
__ehfuncinfo$?GetRealPacketData@CScaleCalculator@@CA?AV?$CStringT@DV?$StrTraitMFC_DLL@DV?$ChTraitsCRT@D@ATL@@@@@ATL@@ABV23@H@Z DD 019930522H
	DD	02H
	DD	FLAT:__unwindtable$?GetRealPacketData@CScaleCalculator@@CA?AV?$CStringT@DV?$StrTraitMFC_DLL@DV?$ChTraitsCRT@D@ATL@@@@@ATL@@ABV23@H@Z
	DD	2 DUP(00H)
	DD	2 DUP(00H)
	DD	00H
	DD	01H
xdata$x	ENDS
;	COMDAT xdata$x
xdata$x	SEGMENT
__unwindtable$?GetTextSize@CScaleCalculator@@SA?AVCSize@@PAVCDC@@ABV?$CStringT@DV?$StrTraitMFC_DLL@DV?$ChTraitsCRT@D@ATL@@@@@ATL@@@Z DD 0ffffffffH
	DD	FLAT:__unwindfunclet$?GetTextSize@CScaleCalculator@@SA?AVCSize@@PAVCDC@@ABV?$CStringT@DV?$StrTraitMFC_DLL@DV?$ChTraitsCRT@D@ATL@@@@@ATL@@@Z$0
	DD	00H
	DD	FLAT:__unwindfunclet$?GetTextSize@CScaleCalculator@@SA?AVCSize@@PAVCDC@@ABV?$CStringT@DV?$StrTraitMFC_DLL@DV?$ChTraitsCRT@D@ATL@@@@@ATL@@@Z$1
	DD	00H
	DD	FLAT:__unwindfunclet$?GetTextSize@CScaleCalculator@@SA?AVCSize@@PAVCDC@@ABV?$CStringT@DV?$StrTraitMFC_DLL@DV?$ChTraitsCRT@D@ATL@@@@@ATL@@@Z$2
__ehfuncinfo$?GetTextSize@CScaleCalculator@@SA?AVCSize@@PAVCDC@@ABV?$CStringT@DV?$StrTraitMFC_DLL@DV?$ChTraitsCRT@D@ATL@@@@@ATL@@@Z DD 019930522H
	DD	03H
	DD	FLAT:__unwindtable$?GetTextSize@CScaleCalculator@@SA?AVCSize@@PAVCDC@@ABV?$CStringT@DV?$StrTraitMFC_DLL@DV?$ChTraitsCRT@D@ATL@@@@@ATL@@@Z
	DD	2 DUP(00H)
	DD	2 DUP(00H)
	DD	00H
	DD	01H
xdata$x	ENDS
;	COMDAT xdata$x
xdata$x	SEGMENT
__ehfuncinfo$?GetCompartScaleData_Time@CScaleCalculator@@QAE?AV?$CStringT@DV?$StrTraitMFC_DLL@DV?$ChTraitsCRT@D@ATL@@@@@ATL@@W4HORZSCALEDRAWERTYPE@CScaleBaseData@@ABV23@1ABVCScaleCompart@@@Z DD 019930522H
	DD	09H
	DD	FLAT:__unwindtable$?GetCompartScaleData_Time@CScaleCalculator@@QAE?AV?$CStringT@DV?$StrTraitMFC_DLL@DV?$ChTraitsCRT@D@ATL@@@@@ATL@@W4HORZSCALEDRAWERTYPE@CScaleBaseData@@ABV23@1ABVCScaleCompart@@@Z
	DD	2 DUP(00H)
	DD	2 DUP(00H)
	DD	00H
	DD	01H
__unwindtable$?GetCompartScaleData_Time@CScaleCalculator@@QAE?AV?$CStringT@DV?$StrTraitMFC_DLL@DV?$ChTraitsCRT@D@ATL@@@@@ATL@@W4HORZSCALEDRAWERTYPE@CScaleBaseData@@ABV23@1ABVCScaleCompart@@@Z DD 0ffffffffH
	DD	FLAT:__unwindfunclet$?GetCompartScaleData_Time@CScaleCalculator@@QAE?AV?$CStringT@DV?$StrTraitMFC_DLL@DV?$ChTraitsCRT@D@ATL@@@@@ATL@@W4HORZSCALEDRAWERTYPE@CScaleBaseData@@ABV23@1ABVCScaleCompart@@@Z$0
	DD	00H
	DD	FLAT:__unwindfunclet$?GetCompartScaleData_Time@CScaleCalculator@@QAE?AV?$CStringT@DV?$StrTraitMFC_DLL@DV?$ChTraitsCRT@D@ATL@@@@@ATL@@W4HORZSCALEDRAWERTYPE@CScaleBaseData@@ABV23@1ABVCScaleCompart@@@Z$2
	DD	00H
	DD	FLAT:__unwindfunclet$?GetCompartScaleData_Time@CScaleCalculator@@QAE?AV?$CStringT@DV?$StrTraitMFC_DLL@DV?$ChTraitsCRT@D@ATL@@@@@ATL@@W4HORZSCALEDRAWERTYPE@CScaleBaseData@@ABV23@1ABVCScaleCompart@@@Z$3
	DD	02H
	DD	FLAT:__unwindfunclet$?GetCompartScaleData_Time@CScaleCalculator@@QAE?AV?$CStringT@DV?$StrTraitMFC_DLL@DV?$ChTraitsCRT@D@ATL@@@@@ATL@@W4HORZSCALEDRAWERTYPE@CScaleBaseData@@ABV23@1ABVCScaleCompart@@@Z$4
	DD	03H
	DD	FLAT:__unwindfunclet$?GetCompartScaleData_Time@CScaleCalculator@@QAE?AV?$CStringT@DV?$StrTraitMFC_DLL@DV?$ChTraitsCRT@D@ATL@@@@@ATL@@W4HORZSCALEDRAWERTYPE@CScaleBaseData@@ABV23@1ABVCScaleCompart@@@Z$7
	DD	04H
	DD	FLAT:__unwindfunclet$?GetCompartScaleData_Time@CScaleCalculator@@QAE?AV?$CStringT@DV?$StrTraitMFC_DLL@DV?$ChTraitsCRT@D@ATL@@@@@ATL@@W4HORZSCALEDRAWERTYPE@CScaleBaseData@@ABV23@1ABVCScaleCompart@@@Z$8
	DD	00H
	DD	FLAT:__unwindfunclet$?GetCompartScaleData_Time@CScaleCalculator@@QAE?AV?$CStringT@DV?$StrTraitMFC_DLL@DV?$ChTraitsCRT@D@ATL@@@@@ATL@@W4HORZSCALEDRAWERTYPE@CScaleBaseData@@ABV23@1ABVCScaleCompart@@@Z$9
	DD	06H
	DD	FLAT:__unwindfunclet$?GetCompartScaleData_Time@CScaleCalculator@@QAE?AV?$CStringT@DV?$StrTraitMFC_DLL@DV?$ChTraitsCRT@D@ATL@@@@@ATL@@W4HORZSCALEDRAWERTYPE@CScaleBaseData@@ABV23@1ABVCScaleCompart@@@Z$10
	DD	07H
	DD	FLAT:__unwindfunclet$?GetCompartScaleData_Time@CScaleCalculator@@QAE?AV?$CStringT@DV?$StrTraitMFC_DLL@DV?$ChTraitsCRT@D@ATL@@@@@ATL@@W4HORZSCALEDRAWERTYPE@CScaleBaseData@@ABV23@1ABVCScaleCompart@@@Z$13
xdata$x	ENDS
;	COMDAT xdata$x
xdata$x	SEGMENT
__unwindtable$?GetCompartScaleData_Date@CScaleCalculator@@QAE?AV?$CStringT@DV?$StrTraitMFC_DLL@DV?$ChTraitsCRT@D@ATL@@@@@ATL@@ABV23@00@Z DD 0ffffffffH
	DD	FLAT:__unwindfunclet$?GetCompartScaleData_Date@CScaleCalculator@@QAE?AV?$CStringT@DV?$StrTraitMFC_DLL@DV?$ChTraitsCRT@D@ATL@@@@@ATL@@ABV23@00@Z$0
__ehfuncinfo$?GetCompartScaleData_Date@CScaleCalculator@@QAE?AV?$CStringT@DV?$StrTraitMFC_DLL@DV?$ChTraitsCRT@D@ATL@@@@@ATL@@ABV23@00@Z DD 019930522H
	DD	01H
	DD	FLAT:__unwindtable$?GetCompartScaleData_Date@CScaleCalculator@@QAE?AV?$CStringT@DV?$StrTraitMFC_DLL@DV?$ChTraitsCRT@D@ATL@@@@@ATL@@ABV23@00@Z
	DD	2 DUP(00H)
	DD	2 DUP(00H)
	DD	00H
	DD	01H
xdata$x	ENDS
;	COMDAT xdata$x
xdata$x	SEGMENT
__unwindtable$?GetCompartScaleData@CScaleCalculator@@QAE?AV?$CStringT@DV?$StrTraitMFC_DLL@DV?$ChTraitsCRT@D@ATL@@@@@ATL@@W4HORZSCALEDRAWERTYPE@CScaleBaseData@@ABV23@1ABVCScaleCompart@@@Z DD 0ffffffffH
	DD	FLAT:__unwindfunclet$?GetCompartScaleData@CScaleCalculator@@QAE?AV?$CStringT@DV?$StrTraitMFC_DLL@DV?$ChTraitsCRT@D@ATL@@@@@ATL@@W4HORZSCALEDRAWERTYPE@CScaleBaseData@@ABV23@1ABVCScaleCompart@@@Z$0
	DD	00H
	DD	FLAT:__unwindfunclet$?GetCompartScaleData@CScaleCalculator@@QAE?AV?$CStringT@DV?$StrTraitMFC_DLL@DV?$ChTraitsCRT@D@ATL@@@@@ATL@@W4HORZSCALEDRAWERTYPE@CScaleBaseData@@ABV23@1ABVCScaleCompart@@@Z$2
__ehfuncinfo$?GetCompartScaleData@CScaleCalculator@@QAE?AV?$CStringT@DV?$StrTraitMFC_DLL@DV?$ChTraitsCRT@D@ATL@@@@@ATL@@W4HORZSCALEDRAWERTYPE@CScaleBaseData@@ABV23@1ABVCScaleCompart@@@Z DD 019930522H
	DD	02H
	DD	FLAT:__unwindtable$?GetCompartScaleData@CScaleCalculator@@QAE?AV?$CStringT@DV?$StrTraitMFC_DLL@DV?$ChTraitsCRT@D@ATL@@@@@ATL@@W4HORZSCALEDRAWERTYPE@CScaleBaseData@@ABV23@1ABVCScaleCompart@@@Z
	DD	2 DUP(00H)
	DD	2 DUP(00H)
	DD	00H
	DD	01H
xdata$x	ENDS
;	COMDAT xdata$x
xdata$x	SEGMENT
__unwindtable$??HATL@@YA?AV?$CStringT@DV?$StrTraitMFC_DLL@DV?$ChTraitsCRT@D@ATL@@@@@0@ABV10@D@Z DD 0ffffffffH
	DD	FLAT:__unwindfunclet$??HATL@@YA?AV?$CStringT@DV?$StrTraitMFC_DLL@DV?$ChTraitsCRT@D@ATL@@@@@0@ABV10@D@Z$0
__ehfuncinfo$??HATL@@YA?AV?$CStringT@DV?$StrTraitMFC_DLL@DV?$ChTraitsCRT@D@ATL@@@@@0@ABV10@D@Z DD 019930522H
	DD	01H
	DD	FLAT:__unwindtable$??HATL@@YA?AV?$CStringT@DV?$StrTraitMFC_DLL@DV?$ChTraitsCRT@D@ATL@@@@@0@ABV10@D@Z
	DD	2 DUP(00H)
	DD	2 DUP(00H)
	DD	00H
	DD	01H
xdata$x	ENDS
;	COMDAT xdata$x
xdata$x	SEGMENT
__unwindtable$??HATL@@YA?AV?$CStringT@DV?$StrTraitMFC_DLL@DV?$ChTraitsCRT@D@ATL@@@@@0@PBDABV10@@Z DD 0ffffffffH
	DD	FLAT:__unwindfunclet$??HATL@@YA?AV?$CStringT@DV?$StrTraitMFC_DLL@DV?$ChTraitsCRT@D@ATL@@@@@0@PBDABV10@@Z$0
__ehfuncinfo$??HATL@@YA?AV?$CStringT@DV?$StrTraitMFC_DLL@DV?$ChTraitsCRT@D@ATL@@@@@0@PBDABV10@@Z DD 019930522H
	DD	01H
	DD	FLAT:__unwindtable$??HATL@@YA?AV?$CStringT@DV?$StrTraitMFC_DLL@DV?$ChTraitsCRT@D@ATL@@@@@0@PBDABV10@@Z
	DD	2 DUP(00H)
	DD	2 DUP(00H)
	DD	00H
	DD	01H
xdata$x	ENDS
;	COMDAT xdata$x
xdata$x	SEGMENT
__unwindtable$??HATL@@YA?AV?$CStringT@DV?$StrTraitMFC_DLL@DV?$ChTraitsCRT@D@ATL@@@@@0@ABV10@PBD@Z DD 0ffffffffH
	DD	FLAT:__unwindfunclet$??HATL@@YA?AV?$CStringT@DV?$StrTraitMFC_DLL@DV?$ChTraitsCRT@D@ATL@@@@@0@ABV10@PBD@Z$0
__ehfuncinfo$??HATL@@YA?AV?$CStringT@DV?$StrTraitMFC_DLL@DV?$ChTraitsCRT@D@ATL@@@@@0@ABV10@PBD@Z DD 019930522H
	DD	01H
	DD	FLAT:__unwindtable$??HATL@@YA?AV?$CStringT@DV?$StrTraitMFC_DLL@DV?$ChTraitsCRT@D@ATL@@@@@0@ABV10@PBD@Z
	DD	2 DUP(00H)
	DD	2 DUP(00H)
	DD	00H
	DD	01H
xdata$x	ENDS
;	COMDAT xdata$x
xdata$x	SEGMENT
__unwindtable$??HATL@@YA?AV?$CStringT@DV?$StrTraitMFC_DLL@DV?$ChTraitsCRT@D@ATL@@@@@0@ABV10@0@Z DD 0ffffffffH
	DD	FLAT:__unwindfunclet$??HATL@@YA?AV?$CStringT@DV?$StrTraitMFC_DLL@DV?$ChTraitsCRT@D@ATL@@@@@0@ABV10@0@Z$0
__ehfuncinfo$??HATL@@YA?AV?$CStringT@DV?$StrTraitMFC_DLL@DV?$ChTraitsCRT@D@ATL@@@@@0@ABV10@0@Z DD 019930522H
	DD	01H
	DD	FLAT:__unwindtable$??HATL@@YA?AV?$CStringT@DV?$StrTraitMFC_DLL@DV?$ChTraitsCRT@D@ATL@@@@@0@ABV10@0@Z
	DD	2 DUP(00H)
	DD	2 DUP(00H)
	DD	00H
	DD	01H
xdata$x	ENDS
; Function compile flags: /Ogtp
; File D:\git\src\IBK\IBK_DRFN\ProjSrc\SrcChartEx\ChartOCX\Include_Chart\ScaleCalculator.cpp
; File C:\Program Files (x86)\Microsoft Visual Studio\2019\Community\VC\Tools\MSVC\14.29.30133\atlmfc\include\cstringt.h
; File D:\git\src\IBK\IBK_DRFN\ProjSrc\SrcChartEx\ChartOCX\Include_Chart\ScaleCalculator.cpp
; File C:\Program Files (x86)\Microsoft Visual Studio\2019\Community\VC\Tools\MSVC\14.29.30133\atlmfc\include\cstringt.h
; File D:\git\src\IBK\IBK_DRFN\ProjSrc\SrcChartEx\ChartOCX\Include_Chart\ScaleCalculator.cpp
; File C:\Program Files (x86)\Microsoft Visual Studio\2019\Community\VC\Tools\MSVC\14.29.30133\atlmfc\include\cstringt.h
; File D:\git\src\IBK\IBK_DRFN\ProjSrc\SrcChartEx\ChartOCX\Include_Chart\ScaleCalculator.cpp
; File C:\Program Files (x86)\Microsoft Visual Studio\2019\Community\VC\Tools\MSVC\14.29.30133\atlmfc\include\cstringt.h
; File D:\git\src\IBK\IBK_DRFN\ProjSrc\SrcChartEx\ChartOCX\Include_Chart\ScaleCalculator.cpp
; File C:\Program Files (x86)\Microsoft Visual Studio\2019\Community\VC\Tools\MSVC\14.29.30133\atlmfc\include\cstringt.h
; File D:\git\src\IBK\IBK_DRFN\ProjSrc\SrcChartEx\ChartOCX\Include_Chart\ScaleCalculator.cpp
; File C:\Program Files (x86)\Microsoft Visual Studio\2019\Community\VC\Tools\MSVC\14.29.30133\atlmfc\include\cstringt.h
; File D:\git\src\IBK\IBK_DRFN\ProjSrc\SrcChartEx\ChartOCX\Include_Chart\ScaleCalculator.cpp
; File C:\Program Files (x86)\Microsoft Visual Studio\2019\Community\VC\Tools\MSVC\14.29.30133\atlmfc\include\cstringt.h
; File D:\git\src\IBK\IBK_DRFN\ProjSrc\SrcChartEx\ChartOCX\Include_Chart\ScaleCalculator.cpp
; File C:\Program Files (x86)\Microsoft Visual Studio\2019\Community\VC\Tools\MSVC\14.29.30133\atlmfc\include\cstringt.h
; File D:\git\src\IBK\IBK_DRFN\ProjSrc\SrcChartEx\ChartOCX\Include_Chart\ScaleCalculator.cpp
; File C:\Program Files (x86)\Microsoft Visual Studio\2019\Community\VC\Tools\MSVC\14.29.30133\atlmfc\include\cstringt.h
; File D:\git\src\IBK\IBK_DRFN\ProjSrc\SrcChartEx\ChartOCX\Include_Chart\ScaleCalculator.cpp
; File C:\Program Files (x86)\Microsoft Visual Studio\2019\Community\VC\Tools\MSVC\14.29.30133\atlmfc\include\cstringt.h
; File D:\git\src\IBK\IBK_DRFN\ProjSrc\SrcChartEx\ChartOCX\Include_Chart\ScaleCalculator.cpp
; File C:\Program Files (x86)\Microsoft Visual Studio\2019\Community\VC\Tools\MSVC\14.29.30133\atlmfc\include\cstringt.h
; File D:\git\src\IBK\IBK_DRFN\ProjSrc\SrcChartEx\ChartOCX\Include_Chart\ScaleCalculator.cpp
; File C:\Program Files (x86)\Microsoft Visual Studio\2019\Community\VC\Tools\MSVC\14.29.30133\atlmfc\include\cstringt.h
; File D:\git\src\IBK\IBK_DRFN\ProjSrc\SrcChartEx\ChartOCX\Include_Chart\ScaleCalculator.cpp
; File C:\Program Files (x86)\Microsoft Visual Studio\2019\Community\VC\Tools\MSVC\14.29.30133\atlmfc\include\cstringt.h
; File D:\git\src\IBK\IBK_DRFN\ProjSrc\SrcChartEx\ChartOCX\Include_Chart\ScaleCalculator.cpp
;	COMDAT ?GetMonthEnglish@CScaleCalculator@@CA?AV?$CStringT@DV?$StrTraitMFC_DLL@DV?$ChTraitsCRT@D@ATL@@@@@ATL@@ABV23@@Z
_TEXT	SEGMENT
___$ReturnUdt$ = 8					; size = 4
_month$ = 12						; size = 4
?GetMonthEnglish@CScaleCalculator@@CA?AV?$CStringT@DV?$StrTraitMFC_DLL@DV?$ChTraitsCRT@D@ATL@@@@@ATL@@ABV23@@Z PROC ; CScaleCalculator::GetMonthEnglish, COMDAT

; 293  : {

  00000	55		 push	 ebp
  00001	8b ec		 mov	 ebp, esp
  00003	56		 push	 esi
; File C:\Program Files (x86)\Microsoft Visual Studio\2019\Community\VC\Tools\MSVC\14.29.30133\atlmfc\include\cstringt.h

; 2486 : 		return(str1.Compare(psz2) == 0);

  00004	8b 75 0c	 mov	 esi, DWORD PTR _month$[ebp]
  00007	8b ce		 mov	 ecx, esi
  00009	68 00 00 00 00	 push	 OFFSET ??_C@_02OCIIMEMP@01@
  0000e	ff 15 00 00 00
	00		 call	 DWORD PTR __imp_?Compare@?$CStringT@DV?$StrTraitMFC_DLL@DV?$ChTraitsCRT@D@ATL@@@@@ATL@@QBEHPBD@Z
  00014	85 c0		 test	 eax, eax
; File D:\git\src\IBK\IBK_DRFN\ProjSrc\SrcChartEx\ChartOCX\Include_Chart\ScaleCalculator.cpp

; 294  : 	if(month == "01")

  00016	75 14		 jne	 SHORT $LN2@GetMonthEn

; 295  : 		return "January";

  00018	8b 4d 08	 mov	 ecx, DWORD PTR ___$ReturnUdt$[ebp]
  0001b	68 00 00 00 00	 push	 OFFSET ??_C@_07CGJPFGJA@January@
  00020	ff 15 00 00 00
	00		 call	 DWORD PTR __imp_??0?$CStringT@DV?$StrTraitMFC_DLL@DV?$ChTraitsCRT@D@ATL@@@@@ATL@@QAE@PBD@Z

; 320  : }

  00026	8b 45 08	 mov	 eax, DWORD PTR ___$ReturnUdt$[ebp]
  00029	5e		 pop	 esi
  0002a	5d		 pop	 ebp
  0002b	c3		 ret	 0
$LN2@GetMonthEn:
; File C:\Program Files (x86)\Microsoft Visual Studio\2019\Community\VC\Tools\MSVC\14.29.30133\atlmfc\include\cstringt.h

; 2486 : 		return(str1.Compare(psz2) == 0);

  0002c	68 00 00 00 00	 push	 OFFSET ??_C@_02MJKFJHAM@02@
  00031	8b ce		 mov	 ecx, esi
  00033	ff 15 00 00 00
	00		 call	 DWORD PTR __imp_?Compare@?$CStringT@DV?$StrTraitMFC_DLL@DV?$ChTraitsCRT@D@ATL@@@@@ATL@@QBEHPBD@Z
  00039	85 c0		 test	 eax, eax
; File D:\git\src\IBK\IBK_DRFN\ProjSrc\SrcChartEx\ChartOCX\Include_Chart\ScaleCalculator.cpp

; 296  : 	else if(month == "02")

  0003b	75 14		 jne	 SHORT $LN4@GetMonthEn

; 297  : 		return "February";

  0003d	8b 4d 08	 mov	 ecx, DWORD PTR ___$ReturnUdt$[ebp]
  00040	68 00 00 00 00	 push	 OFFSET ??_C@_08GNJGEPFN@February@
  00045	ff 15 00 00 00
	00		 call	 DWORD PTR __imp_??0?$CStringT@DV?$StrTraitMFC_DLL@DV?$ChTraitsCRT@D@ATL@@@@@ATL@@QAE@PBD@Z

; 320  : }

  0004b	8b 45 08	 mov	 eax, DWORD PTR ___$ReturnUdt$[ebp]
  0004e	5e		 pop	 esi
  0004f	5d		 pop	 ebp
  00050	c3		 ret	 0
$LN4@GetMonthEn:
; File C:\Program Files (x86)\Microsoft Visual Studio\2019\Community\VC\Tools\MSVC\14.29.30133\atlmfc\include\cstringt.h

; 2486 : 		return(str1.Compare(psz2) == 0);

  00051	68 00 00 00 00	 push	 OFFSET ??_C@_02NALOKGEN@03@
  00056	8b ce		 mov	 ecx, esi
  00058	ff 15 00 00 00
	00		 call	 DWORD PTR __imp_?Compare@?$CStringT@DV?$StrTraitMFC_DLL@DV?$ChTraitsCRT@D@ATL@@@@@ATL@@QBEHPBD@Z
  0005e	85 c0		 test	 eax, eax
; File D:\git\src\IBK\IBK_DRFN\ProjSrc\SrcChartEx\ChartOCX\Include_Chart\ScaleCalculator.cpp

; 298  : 	else if(month == "03")

  00060	75 14		 jne	 SHORT $LN6@GetMonthEn

; 299  : 		return "March";

  00062	8b 4d 08	 mov	 ecx, DWORD PTR ___$ReturnUdt$[ebp]
  00065	68 00 00 00 00	 push	 OFFSET ??_C@_05HPCKOFNC@March@
  0006a	ff 15 00 00 00
	00		 call	 DWORD PTR __imp_??0?$CStringT@DV?$StrTraitMFC_DLL@DV?$ChTraitsCRT@D@ATL@@@@@ATL@@QAE@PBD@Z

; 320  : }

  00070	8b 45 08	 mov	 eax, DWORD PTR ___$ReturnUdt$[ebp]
  00073	5e		 pop	 esi
  00074	5d		 pop	 ebp
  00075	c3		 ret	 0
$LN6@GetMonthEn:
; File C:\Program Files (x86)\Microsoft Visual Studio\2019\Community\VC\Tools\MSVC\14.29.30133\atlmfc\include\cstringt.h

; 2486 : 		return(str1.Compare(psz2) == 0);

  00076	68 00 00 00 00	 push	 OFFSET ??_C@_02JPPPDAIK@04@
  0007b	8b ce		 mov	 ecx, esi
  0007d	ff 15 00 00 00
	00		 call	 DWORD PTR __imp_?Compare@?$CStringT@DV?$StrTraitMFC_DLL@DV?$ChTraitsCRT@D@ATL@@@@@ATL@@QBEHPBD@Z
  00083	85 c0		 test	 eax, eax
; File D:\git\src\IBK\IBK_DRFN\ProjSrc\SrcChartEx\ChartOCX\Include_Chart\ScaleCalculator.cpp

; 300  : 	else if(month == "04")

  00085	75 14		 jne	 SHORT $LN8@GetMonthEn

; 301  : 		return "April";

  00087	8b 4d 08	 mov	 ecx, DWORD PTR ___$ReturnUdt$[ebp]
  0008a	68 00 00 00 00	 push	 OFFSET ??_C@_05DMJDNLEJ@April@
  0008f	ff 15 00 00 00
	00		 call	 DWORD PTR __imp_??0?$CStringT@DV?$StrTraitMFC_DLL@DV?$ChTraitsCRT@D@ATL@@@@@ATL@@QAE@PBD@Z

; 320  : }

  00095	8b 45 08	 mov	 eax, DWORD PTR ___$ReturnUdt$[ebp]
  00098	5e		 pop	 esi
  00099	5d		 pop	 ebp
  0009a	c3		 ret	 0
$LN8@GetMonthEn:
; File C:\Program Files (x86)\Microsoft Visual Studio\2019\Community\VC\Tools\MSVC\14.29.30133\atlmfc\include\cstringt.h

; 2486 : 		return(str1.Compare(psz2) == 0);

  0009b	68 00 00 00 00	 push	 OFFSET ??_C@_02IGOEABML@05@
  000a0	8b ce		 mov	 ecx, esi
  000a2	ff 15 00 00 00
	00		 call	 DWORD PTR __imp_?Compare@?$CStringT@DV?$StrTraitMFC_DLL@DV?$ChTraitsCRT@D@ATL@@@@@ATL@@QBEHPBD@Z
  000a8	85 c0		 test	 eax, eax
; File D:\git\src\IBK\IBK_DRFN\ProjSrc\SrcChartEx\ChartOCX\Include_Chart\ScaleCalculator.cpp

; 302  : 	else if(month == "05")

  000aa	75 14		 jne	 SHORT $LN10@GetMonthEn

; 303  : 		return "May";

  000ac	8b 4d 08	 mov	 ecx, DWORD PTR ___$ReturnUdt$[ebp]
  000af	68 00 00 00 00	 push	 OFFSET ??_C@_03CNMDKL@May@
  000b4	ff 15 00 00 00
	00		 call	 DWORD PTR __imp_??0?$CStringT@DV?$StrTraitMFC_DLL@DV?$ChTraitsCRT@D@ATL@@@@@ATL@@QAE@PBD@Z

; 320  : }

  000ba	8b 45 08	 mov	 eax, DWORD PTR ___$ReturnUdt$[ebp]
  000bd	5e		 pop	 esi
  000be	5d		 pop	 ebp
  000bf	c3		 ret	 0
$LN10@GetMonthEn:
; File C:\Program Files (x86)\Microsoft Visual Studio\2019\Community\VC\Tools\MSVC\14.29.30133\atlmfc\include\cstringt.h

; 2486 : 		return(str1.Compare(psz2) == 0);

  000c0	68 00 00 00 00	 push	 OFFSET ??_C@_02KNMJFCAI@06@
  000c5	8b ce		 mov	 ecx, esi
  000c7	ff 15 00 00 00
	00		 call	 DWORD PTR __imp_?Compare@?$CStringT@DV?$StrTraitMFC_DLL@DV?$ChTraitsCRT@D@ATL@@@@@ATL@@QBEHPBD@Z
  000cd	85 c0		 test	 eax, eax
; File D:\git\src\IBK\IBK_DRFN\ProjSrc\SrcChartEx\ChartOCX\Include_Chart\ScaleCalculator.cpp

; 304  : 	else if(month == "06")

  000cf	75 14		 jne	 SHORT $LN12@GetMonthEn

; 305  : 		return "June";

  000d1	8b 4d 08	 mov	 ecx, DWORD PTR ___$ReturnUdt$[ebp]
  000d4	68 00 00 00 00	 push	 OFFSET ??_C@_04CNLMGBGM@June@
  000d9	ff 15 00 00 00
	00		 call	 DWORD PTR __imp_??0?$CStringT@DV?$StrTraitMFC_DLL@DV?$ChTraitsCRT@D@ATL@@@@@ATL@@QAE@PBD@Z

; 320  : }

  000df	8b 45 08	 mov	 eax, DWORD PTR ___$ReturnUdt$[ebp]
  000e2	5e		 pop	 esi
  000e3	5d		 pop	 ebp
  000e4	c3		 ret	 0
$LN12@GetMonthEn:
; File C:\Program Files (x86)\Microsoft Visual Studio\2019\Community\VC\Tools\MSVC\14.29.30133\atlmfc\include\cstringt.h

; 2486 : 		return(str1.Compare(psz2) == 0);

  000e5	68 00 00 00 00	 push	 OFFSET ??_C@_02LENCGDEJ@07@
  000ea	8b ce		 mov	 ecx, esi
  000ec	ff 15 00 00 00
	00		 call	 DWORD PTR __imp_?Compare@?$CStringT@DV?$StrTraitMFC_DLL@DV?$ChTraitsCRT@D@ATL@@@@@ATL@@QBEHPBD@Z
  000f2	85 c0		 test	 eax, eax
; File D:\git\src\IBK\IBK_DRFN\ProjSrc\SrcChartEx\ChartOCX\Include_Chart\ScaleCalculator.cpp

; 306  : 	else if(month == "07")

  000f4	75 14		 jne	 SHORT $LN14@GetMonthEn

; 307  : 		return "July";

  000f6	8b 4d 08	 mov	 ecx, DWORD PTR ___$ReturnUdt$[ebp]
  000f9	68 00 00 00 00	 push	 OFFSET ??_C@_04MIEPOIFP@July@
  000fe	ff 15 00 00 00
	00		 call	 DWORD PTR __imp_??0?$CStringT@DV?$StrTraitMFC_DLL@DV?$ChTraitsCRT@D@ATL@@@@@ATL@@QAE@PBD@Z

; 320  : }

  00104	8b 45 08	 mov	 eax, DWORD PTR ___$ReturnUdt$[ebp]
  00107	5e		 pop	 esi
  00108	5d		 pop	 ebp
  00109	c3		 ret	 0
$LN14@GetMonthEn:
; File C:\Program Files (x86)\Microsoft Visual Studio\2019\Community\VC\Tools\MSVC\14.29.30133\atlmfc\include\cstringt.h

; 2486 : 		return(str1.Compare(psz2) == 0);

  0010a	68 00 00 00 00	 push	 OFFSET ??_C@_02DDEKHPIG@08@
  0010f	8b ce		 mov	 ecx, esi
  00111	ff 15 00 00 00
	00		 call	 DWORD PTR __imp_?Compare@?$CStringT@DV?$StrTraitMFC_DLL@DV?$ChTraitsCRT@D@ATL@@@@@ATL@@QBEHPBD@Z
  00117	85 c0		 test	 eax, eax
; File D:\git\src\IBK\IBK_DRFN\ProjSrc\SrcChartEx\ChartOCX\Include_Chart\ScaleCalculator.cpp

; 308  : 	else if(month == "08")

  00119	75 14		 jne	 SHORT $LN16@GetMonthEn

; 309  : 		return "August";

  0011b	8b 4d 08	 mov	 ecx, DWORD PTR ___$ReturnUdt$[ebp]
  0011e	68 00 00 00 00	 push	 OFFSET ??_C@_06LBBHFDDG@August@
  00123	ff 15 00 00 00
	00		 call	 DWORD PTR __imp_??0?$CStringT@DV?$StrTraitMFC_DLL@DV?$ChTraitsCRT@D@ATL@@@@@ATL@@QAE@PBD@Z

; 320  : }

  00129	8b 45 08	 mov	 eax, DWORD PTR ___$ReturnUdt$[ebp]
  0012c	5e		 pop	 esi
  0012d	5d		 pop	 ebp
  0012e	c3		 ret	 0
$LN16@GetMonthEn:
; File C:\Program Files (x86)\Microsoft Visual Studio\2019\Community\VC\Tools\MSVC\14.29.30133\atlmfc\include\cstringt.h

; 2486 : 		return(str1.Compare(psz2) == 0);

  0012f	68 00 00 00 00	 push	 OFFSET ??_C@_02CKFBEOMH@09@
  00134	8b ce		 mov	 ecx, esi
  00136	ff 15 00 00 00
	00		 call	 DWORD PTR __imp_?Compare@?$CStringT@DV?$StrTraitMFC_DLL@DV?$ChTraitsCRT@D@ATL@@@@@ATL@@QBEHPBD@Z
  0013c	85 c0		 test	 eax, eax
; File D:\git\src\IBK\IBK_DRFN\ProjSrc\SrcChartEx\ChartOCX\Include_Chart\ScaleCalculator.cpp

; 310  : 	else if(month == "09")

  0013e	75 14		 jne	 SHORT $LN18@GetMonthEn

; 311  : 		return "September";

  00140	8b 4d 08	 mov	 ecx, DWORD PTR ___$ReturnUdt$[ebp]
  00143	68 00 00 00 00	 push	 OFFSET ??_C@_09BHHEALKD@September@
  00148	ff 15 00 00 00
	00		 call	 DWORD PTR __imp_??0?$CStringT@DV?$StrTraitMFC_DLL@DV?$ChTraitsCRT@D@ATL@@@@@ATL@@QAE@PBD@Z

; 320  : }

  0014e	8b 45 08	 mov	 eax, DWORD PTR ___$ReturnUdt$[ebp]
  00151	5e		 pop	 esi
  00152	5d		 pop	 ebp
  00153	c3		 ret	 0
$LN18@GetMonthEn:
; File C:\Program Files (x86)\Microsoft Visual Studio\2019\Community\VC\Tools\MSVC\14.29.30133\atlmfc\include\cstringt.h

; 2486 : 		return(str1.Compare(psz2) == 0);

  00154	68 00 00 00 00	 push	 OFFSET ??_C@_02PKFBJPLJ@10@
  00159	8b ce		 mov	 ecx, esi
  0015b	ff 15 00 00 00
	00		 call	 DWORD PTR __imp_?Compare@?$CStringT@DV?$StrTraitMFC_DLL@DV?$ChTraitsCRT@D@ATL@@@@@ATL@@QBEHPBD@Z
  00161	85 c0		 test	 eax, eax
; File D:\git\src\IBK\IBK_DRFN\ProjSrc\SrcChartEx\ChartOCX\Include_Chart\ScaleCalculator.cpp

; 312  : 	else if(month == "10")

  00163	75 14		 jne	 SHORT $LN20@GetMonthEn

; 313  : 		return "October";

  00165	8b 4d 08	 mov	 ecx, DWORD PTR ___$ReturnUdt$[ebp]
  00168	68 00 00 00 00	 push	 OFFSET ??_C@_07JJNFCEND@October@
  0016d	ff 15 00 00 00
	00		 call	 DWORD PTR __imp_??0?$CStringT@DV?$StrTraitMFC_DLL@DV?$ChTraitsCRT@D@ATL@@@@@ATL@@QAE@PBD@Z

; 320  : }

  00173	8b 45 08	 mov	 eax, DWORD PTR ___$ReturnUdt$[ebp]
  00176	5e		 pop	 esi
  00177	5d		 pop	 ebp
  00178	c3		 ret	 0
$LN20@GetMonthEn:
; File C:\Program Files (x86)\Microsoft Visual Studio\2019\Community\VC\Tools\MSVC\14.29.30133\atlmfc\include\cstringt.h

; 2486 : 		return(str1.Compare(psz2) == 0);

  00179	68 00 00 00 00	 push	 OFFSET ??_C@_02ODEKKOPI@11@
  0017e	8b ce		 mov	 ecx, esi
  00180	ff 15 00 00 00
	00		 call	 DWORD PTR __imp_?Compare@?$CStringT@DV?$StrTraitMFC_DLL@DV?$ChTraitsCRT@D@ATL@@@@@ATL@@QBEHPBD@Z
  00186	85 c0		 test	 eax, eax
; File D:\git\src\IBK\IBK_DRFN\ProjSrc\SrcChartEx\ChartOCX\Include_Chart\ScaleCalculator.cpp

; 314  : 	else if(month == "11")

  00188	75 14		 jne	 SHORT $LN22@GetMonthEn

; 315  : 		return "November";

  0018a	8b 4d 08	 mov	 ecx, DWORD PTR ___$ReturnUdt$[ebp]
  0018d	68 00 00 00 00	 push	 OFFSET ??_C@_08HCHEGEOA@November@
  00192	ff 15 00 00 00
	00		 call	 DWORD PTR __imp_??0?$CStringT@DV?$StrTraitMFC_DLL@DV?$ChTraitsCRT@D@ATL@@@@@ATL@@QAE@PBD@Z

; 320  : }

  00198	8b 45 08	 mov	 eax, DWORD PTR ___$ReturnUdt$[ebp]
  0019b	5e		 pop	 esi
  0019c	5d		 pop	 ebp
  0019d	c3		 ret	 0
$LN22@GetMonthEn:
; File C:\Program Files (x86)\Microsoft Visual Studio\2019\Community\VC\Tools\MSVC\14.29.30133\atlmfc\include\cstringt.h

; 2486 : 		return(str1.Compare(psz2) == 0);

  0019e	68 00 00 00 00	 push	 OFFSET ??_C@_02MIGHPNDL@12@
  001a3	8b ce		 mov	 ecx, esi
  001a5	ff 15 00 00 00
	00		 call	 DWORD PTR __imp_?Compare@?$CStringT@DV?$StrTraitMFC_DLL@DV?$ChTraitsCRT@D@ATL@@@@@ATL@@QBEHPBD@Z
; File D:\git\src\IBK\IBK_DRFN\ProjSrc\SrcChartEx\ChartOCX\Include_Chart\ScaleCalculator.cpp

; 316  : 	else if(month == "12")

  001ab	8b 4d 08	 mov	 ecx, DWORD PTR ___$ReturnUdt$[ebp]
; File C:\Program Files (x86)\Microsoft Visual Studio\2019\Community\VC\Tools\MSVC\14.29.30133\atlmfc\include\cstringt.h

; 2486 : 		return(str1.Compare(psz2) == 0);

  001ae	85 c0		 test	 eax, eax
; File D:\git\src\IBK\IBK_DRFN\ProjSrc\SrcChartEx\ChartOCX\Include_Chart\ScaleCalculator.cpp

; 316  : 	else if(month == "12")

  001b0	75 11		 jne	 SHORT $LN24@GetMonthEn

; 317  : 		return "December";

  001b2	68 00 00 00 00	 push	 OFFSET ??_C@_08EDHMEBNP@December@
  001b7	ff 15 00 00 00
	00		 call	 DWORD PTR __imp_??0?$CStringT@DV?$StrTraitMFC_DLL@DV?$ChTraitsCRT@D@ATL@@@@@ATL@@QAE@PBD@Z

; 320  : }

  001bd	8b 45 08	 mov	 eax, DWORD PTR ___$ReturnUdt$[ebp]
  001c0	5e		 pop	 esi
  001c1	5d		 pop	 ebp
  001c2	c3		 ret	 0
$LN24@GetMonthEn:

; 318  : 
; 319  : 	return month;

  001c3	56		 push	 esi
  001c4	ff 15 00 00 00
	00		 call	 DWORD PTR __imp_??0?$CStringT@DV?$StrTraitMFC_DLL@DV?$ChTraitsCRT@D@ATL@@@@@ATL@@QAE@ABV01@@Z

; 320  : }

  001ca	8b 45 08	 mov	 eax, DWORD PTR ___$ReturnUdt$[ebp]
  001cd	5e		 pop	 esi
  001ce	5d		 pop	 ebp
  001cf	c3		 ret	 0
?GetMonthEnglish@CScaleCalculator@@CA?AV?$CStringT@DV?$StrTraitMFC_DLL@DV?$ChTraitsCRT@D@ATL@@@@@ATL@@ABV23@@Z ENDP ; CScaleCalculator::GetMonthEnglish
_TEXT	ENDS
; Function compile flags: /Ogtp
; File D:\git\src\IBK\IBK_DRFN\ProjSrc\SrcChartEx\ChartOCX\Include_Chart\ScaleCalculator.cpp
;	COMDAT ?GetTrimData@CScaleCalculator@@CA?AV?$CStringT@DV?$StrTraitMFC_DLL@DV?$ChTraitsCRT@D@ATL@@@@@ATL@@ABV23@0ABD@Z
_TEXT	SEGMENT
___$ReturnUdt$ = 8					; size = 4
_packetData$ = 12					; size = 4
_dataType$ = 16						; size = 4
_strTrim$ = 20						; size = 4
?GetTrimData@CScaleCalculator@@CA?AV?$CStringT@DV?$StrTraitMFC_DLL@DV?$ChTraitsCRT@D@ATL@@@@@ATL@@ABV23@0ABD@Z PROC ; CScaleCalculator::GetTrimData, COMDAT

; 283  : {

  00000	55		 push	 ebp
  00001	8b ec		 mov	 ebp, esp

; 284  : 	int nStartIndex = dataType.Find(strTrim);

  00003	8b 4d 10	 mov	 ecx, DWORD PTR _dataType$[ebp]
  00006	56		 push	 esi
  00007	57		 push	 edi
  00008	8b 7d 14	 mov	 edi, DWORD PTR _strTrim$[ebp]
  0000b	6a 00		 push	 0
  0000d	0f b6 07	 movzx	 eax, BYTE PTR [edi]
  00010	50		 push	 eax
  00011	ff 15 00 00 00
	00		 call	 DWORD PTR __imp_?Find@?$CStringT@DV?$StrTraitMFC_DLL@DV?$ChTraitsCRT@D@ATL@@@@@ATL@@QBEHDH@Z
  00017	8b f0		 mov	 esi, eax

; 285  : 	if(nStartIndex < 0)

  00019	85 f6		 test	 esi, esi
  0001b	79 15		 jns	 SHORT $LN2@GetTrimDat

; 286  : 		return "";

  0001d	8b 4d 08	 mov	 ecx, DWORD PTR ___$ReturnUdt$[ebp]
  00020	68 00 00 00 00	 push	 OFFSET ??_C@_00CNPNBAHC@@
  00025	ff 15 00 00 00
	00		 call	 DWORD PTR __imp_??0?$CStringT@DV?$StrTraitMFC_DLL@DV?$ChTraitsCRT@D@ATL@@@@@ATL@@QAE@PBD@Z
  0002b	8b 45 08	 mov	 eax, DWORD PTR ___$ReturnUdt$[ebp]
  0002e	5f		 pop	 edi

; 290  : }

  0002f	5e		 pop	 esi
  00030	5d		 pop	 ebp
  00031	c3		 ret	 0
$LN2@GetTrimDat:

; 287  : 
; 288  : 	int nEndIndex = dataType.ReverseFind(strTrim);

  00032	0f b6 07	 movzx	 eax, BYTE PTR [edi]
  00035	8b 4d 10	 mov	 ecx, DWORD PTR _dataType$[ebp]
  00038	50		 push	 eax
  00039	ff 15 00 00 00
	00		 call	 DWORD PTR __imp_?ReverseFind@?$CStringT@DV?$StrTraitMFC_DLL@DV?$ChTraitsCRT@D@ATL@@@@@ATL@@QBEHD@Z

; 289  : 	return packetData.Mid(nStartIndex, nEndIndex - nStartIndex +1);

  0003f	8b 4d 0c	 mov	 ecx, DWORD PTR _packetData$[ebp]
  00042	2b c6		 sub	 eax, esi
  00044	40		 inc	 eax
  00045	50		 push	 eax
  00046	56		 push	 esi
  00047	8b 75 08	 mov	 esi, DWORD PTR ___$ReturnUdt$[ebp]
  0004a	56		 push	 esi
  0004b	ff 15 00 00 00
	00		 call	 DWORD PTR __imp_?Mid@?$CStringT@DV?$StrTraitMFC_DLL@DV?$ChTraitsCRT@D@ATL@@@@@ATL@@QBE?AV12@HH@Z
  00051	5f		 pop	 edi
  00052	8b c6		 mov	 eax, esi

; 290  : }

  00054	5e		 pop	 esi
  00055	5d		 pop	 ebp
  00056	c3		 ret	 0
?GetTrimData@CScaleCalculator@@CA?AV?$CStringT@DV?$StrTraitMFC_DLL@DV?$ChTraitsCRT@D@ATL@@@@@ATL@@ABV23@0ABD@Z ENDP ; CScaleCalculator::GetTrimData
_TEXT	ENDS
; Function compile flags: /Ogtp
; File D:\git\src\IBK\IBK_DRFN\ProjSrc\SrcChartEx\ChartOCX\Include_Chart\ScaleCalculator.cpp
;	COMDAT ?ChangeData@CScaleCalculator@@CA_NAAV?$CStringT@DV?$StrTraitMFC_DLL@DV?$ChTraitsCRT@D@ATL@@@@@ATL@@ABV23@H@Z
_TEXT	SEGMENT
_baseData$ = 8						; size = 4
_insertData$ = 12					; size = 4
_position$ = 16						; size = 4
?ChangeData@CScaleCalculator@@CA_NAAV?$CStringT@DV?$StrTraitMFC_DLL@DV?$ChTraitsCRT@D@ATL@@@@@ATL@@ABV23@H@Z PROC ; CScaleCalculator::ChangeData, COMDAT

; 271  : {

  00000	55		 push	 ebp
  00001	8b ec		 mov	 ebp, esp

; 272  : 	if(position < 0)

  00003	8b 55 10	 mov	 edx, DWORD PTR _position$[ebp]
  00006	56		 push	 esi
  00007	57		 push	 edi
  00008	85 d2		 test	 edx, edx
  0000a	78 2c		 js	 SHORT $LN17@ChangeData

; 273  : 		return false;
; 274  : 
; 275  : 	if(position +2 > baseData.GetLength() && insertData.GetLength() <= 1)

  0000c	8b 7d 08	 mov	 edi, DWORD PTR _baseData$[ebp]
  0000f	8d 42 02	 lea	 eax, DWORD PTR [edx+2]
  00012	8b 75 0c	 mov	 esi, DWORD PTR _insertData$[ebp]
  00015	8b 0f		 mov	 ecx, DWORD PTR [edi]
  00017	3b 41 f4	 cmp	 eax, DWORD PTR [ecx-12]
  0001a	7e 08		 jle	 SHORT $LN16@ChangeData
  0001c	8b 06		 mov	 eax, DWORD PTR [esi]
  0001e	83 78 f4 01	 cmp	 DWORD PTR [eax-12], 1
  00022	7e 14		 jle	 SHORT $LN17@ChangeData
$LN16@ChangeData:

; 277  : 
; 278  : 	baseData.Insert(position +1, insertData);	

  00024	ff 36		 push	 DWORD PTR [esi]
  00026	8d 42 01	 lea	 eax, DWORD PTR [edx+1]
  00029	8b cf		 mov	 ecx, edi
  0002b	50		 push	 eax
  0002c	ff 15 00 00 00
	00		 call	 DWORD PTR __imp_?Insert@?$CStringT@DV?$StrTraitMFC_DLL@DV?$ChTraitsCRT@D@ATL@@@@@ATL@@QAEHHPBD@Z
  00032	5f		 pop	 edi

; 279  : 	return true;

  00033	b0 01		 mov	 al, 1

; 280  : }

  00035	5e		 pop	 esi
  00036	5d		 pop	 ebp
  00037	c3		 ret	 0
$LN17@ChangeData:
  00038	5f		 pop	 edi

; 276  : 		return false;

  00039	32 c0		 xor	 al, al

; 280  : }

  0003b	5e		 pop	 esi
  0003c	5d		 pop	 ebp
  0003d	c3		 ret	 0
?ChangeData@CScaleCalculator@@CA_NAAV?$CStringT@DV?$StrTraitMFC_DLL@DV?$ChTraitsCRT@D@ATL@@@@@ATL@@ABV23@H@Z ENDP ; CScaleCalculator::ChangeData
_TEXT	ENDS
; Function compile flags: /Ogtp
; File D:\git\src\IBK\IBK_DRFN\ProjSrc\SrcChartEx\ChartOCX\Include_Chart\ScaleCalculator.cpp
; File C:\Program Files (x86)\Microsoft Visual Studio\2019\Community\VC\Tools\MSVC\14.29.30133\atlmfc\include\atlsimpstr.h
; File D:\git\src\IBK\IBK_DRFN\ProjSrc\SrcChartEx\ChartOCX\Include_Chart\ScaleCalculator.cpp
; File C:\Program Files (x86)\Microsoft Visual Studio\2019\Community\VC\Tools\MSVC\14.29.30133\atlmfc\include\atlsimpstr.h
; File D:\git\src\IBK\IBK_DRFN\ProjSrc\SrcChartEx\ChartOCX\Include_Chart\ScaleCalculator.cpp
; File C:\Program Files (x86)\Microsoft Visual Studio\2019\Community\VC\Tools\MSVC\14.29.30133\atlmfc\include\atlsimpstr.h
; File D:\git\src\IBK\IBK_DRFN\ProjSrc\SrcChartEx\ChartOCX\Include_Chart\ScaleCalculator.cpp
; File C:\Program Files (x86)\Microsoft Visual Studio\2019\Community\VC\Tools\MSVC\14.29.30133\atlmfc\include\atlsimpstr.h
; File D:\git\src\IBK\IBK_DRFN\ProjSrc\SrcChartEx\ChartOCX\Include_Chart\ScaleCalculator.cpp
; File C:\Program Files (x86)\Microsoft Visual Studio\2019\Community\VC\Tools\MSVC\14.29.30133\atlmfc\include\atlsimpstr.h
; File D:\git\src\IBK\IBK_DRFN\ProjSrc\SrcChartEx\ChartOCX\Include_Chart\ScaleCalculator.cpp
; File C:\Program Files (x86)\Microsoft Visual Studio\2019\Community\VC\Tools\MSVC\14.29.30133\atlmfc\include\atlsimpstr.h
; File D:\git\src\IBK\IBK_DRFN\ProjSrc\SrcChartEx\ChartOCX\Include_Chart\ScaleCalculator.cpp
;	COMDAT ?GetCompartScaleTime@CScaleCalculator@@AAE?AV?$CStringT@DV?$StrTraitMFC_DLL@DV?$ChTraitsCRT@D@ATL@@@@@ATL@@ABV23@00@Z
_TEXT	SEGMENT
__$EHRec$ = -12						; size = 12
___$ReturnUdt$ = 8					; size = 4
_changePacketData$ = 12					; size = 4
_packetData$ = 12					; size = 4
$T2 = 16						; size = 4
$T3 = 16						; size = 4
_dataType$ = 16						; size = 4
$T4 = 20						; size = 4
_compartType$ = 20					; size = 4
?GetCompartScaleTime@CScaleCalculator@@AAE?AV?$CStringT@DV?$StrTraitMFC_DLL@DV?$ChTraitsCRT@D@ATL@@@@@ATL@@ABV23@00@Z PROC ; CScaleCalculator::GetCompartScaleTime, COMDAT
; _this$ = ecx

; 245  : {

  00000	55		 push	 ebp
  00001	8b ec		 mov	 ebp, esp
  00003	6a ff		 push	 -1
  00005	68 00 00 00 00	 push	 __ehhandler$?GetCompartScaleTime@CScaleCalculator@@AAE?AV?$CStringT@DV?$StrTraitMFC_DLL@DV?$ChTraitsCRT@D@ATL@@@@@ATL@@ABV23@00@Z
  0000a	64 a1 00 00 00
	00		 mov	 eax, DWORD PTR fs:0
  00010	50		 push	 eax
  00011	56		 push	 esi
  00012	57		 push	 edi
  00013	a1 00 00 00 00	 mov	 eax, DWORD PTR ___security_cookie
  00018	33 c5		 xor	 eax, ebp
  0001a	50		 push	 eax
  0001b	8d 45 f4	 lea	 eax, DWORD PTR __$EHRec$[ebp]
  0001e	64 a3 00 00 00
	00		 mov	 DWORD PTR fs:0, eax
  00024	8b f9		 mov	 edi, ecx
; File C:\Program Files (x86)\Microsoft Visual Studio\2019\Community\VC\Tools\MSVC\14.29.30133\atlmfc\include\atlsimpstr.h

; 519  : 		return( GetData()->nDataLength );

  00026	8b 75 14	 mov	 esi, DWORD PTR _compartType$[ebp]
; File D:\git\src\IBK\IBK_DRFN\ProjSrc\SrcChartEx\ChartOCX\Include_Chart\ScaleCalculator.cpp

; 246  : 	if(compartType.IsEmpty())

  00029	ff 75 0c	 push	 DWORD PTR _packetData$[ebp]
; File C:\Program Files (x86)\Microsoft Visual Studio\2019\Community\VC\Tools\MSVC\14.29.30133\atlmfc\include\atlsimpstr.h

; 519  : 		return( GetData()->nDataLength );

  0002c	8b 06		 mov	 eax, DWORD PTR [esi]

; 533  : 		return( GetLength() == 0 );

  0002e	83 78 f4 00	 cmp	 DWORD PTR [eax-12], 0
; File D:\git\src\IBK\IBK_DRFN\ProjSrc\SrcChartEx\ChartOCX\Include_Chart\ScaleCalculator.cpp

; 246  : 	if(compartType.IsEmpty())

  00032	75 0e		 jne	 SHORT $LN2@GetCompart

; 247  : 		return packetData;

  00034	8b 4d 08	 mov	 ecx, DWORD PTR ___$ReturnUdt$[ebp]
  00037	ff 15 00 00 00
	00		 call	 DWORD PTR __imp_??0?$CStringT@DV?$StrTraitMFC_DLL@DV?$ChTraitsCRT@D@ATL@@@@@ATL@@QAE@ABV01@@Z
  0003d	e9 01 02 00 00	 jmp	 $LN113@GetCompart
$LN2@GetCompart:

; 249  : 	CString changePacketData = packetData;

  00042	8d 4d 0c	 lea	 ecx, DWORD PTR _changePacketData$[ebp]
  00045	ff 15 00 00 00
	00		 call	 DWORD PTR __imp_??0?$CStringT@DV?$StrTraitMFC_DLL@DV?$ChTraitsCRT@D@ATL@@@@@ATL@@QAE@ABV01@@Z
; File C:\Program Files (x86)\Microsoft Visual Studio\2019\Community\VC\Tools\MSVC\14.29.30133\atlmfc\include\atlsimpstr.h

; 519  : 		return( GetData()->nDataLength );

  0004b	8b 06		 mov	 eax, DWORD PTR [esi]
; File D:\git\src\IBK\IBK_DRFN\ProjSrc\SrcChartEx\ChartOCX\Include_Chart\ScaleCalculator.cpp

; 249  : 	CString changePacketData = packetData;

  0004d	c7 45 fc 00 00
	00 00		 mov	 DWORD PTR __$EHRec$[ebp+8], 0

; 250  : 
; 251  : 	bool ret1 = false, ret2 = false, ret3 = false;
; 252  : 	// < . - : / > 
; 253  : 	if(compartType.GetLength() == 1){

  00054	83 78 f4 01	 cmp	 DWORD PTR [eax-12], 1
  00058	0f 85 9a 00 00
	00		 jne	 $LN3@GetCompart

; 254  : 		ChangeData(changePacketData, compartType, dataType.ReverseFind('S'));

  0005e	8b 7d 10	 mov	 edi, DWORD PTR _dataType$[ebp]
  00061	8b cf		 mov	 ecx, edi
  00063	6a 53		 push	 83			; 00000053H
  00065	ff 15 00 00 00
	00		 call	 DWORD PTR __imp_?ReverseFind@?$CStringT@DV?$StrTraitMFC_DLL@DV?$ChTraitsCRT@D@ATL@@@@@ATL@@QBEHD@Z

; 272  : 	if(position < 0)

  0006b	85 c0		 test	 eax, eax
  0006d	78 20		 js	 SHORT $LN22@GetCompart

; 275  : 	if(position +2 > baseData.GetLength() && insertData.GetLength() <= 1)

  0006f	8b 4d 0c	 mov	 ecx, DWORD PTR _changePacketData$[ebp]
  00072	8d 50 02	 lea	 edx, DWORD PTR [eax+2]
  00075	3b 51 f4	 cmp	 edx, DWORD PTR [ecx-12]
  00078	7e 08		 jle	 SHORT $LN109@GetCompart
  0007a	8b 0e		 mov	 ecx, DWORD PTR [esi]
  0007c	83 79 f4 01	 cmp	 DWORD PTR [ecx-12], 1
  00080	7e 0d		 jle	 SHORT $LN22@GetCompart
$LN109@GetCompart:

; 276  : 		return false;
; 277  : 
; 278  : 	baseData.Insert(position +1, insertData);	

  00082	ff 36		 push	 DWORD PTR [esi]
  00084	40		 inc	 eax
  00085	8d 4d 0c	 lea	 ecx, DWORD PTR _changePacketData$[ebp]
  00088	50		 push	 eax
  00089	ff 15 00 00 00
	00		 call	 DWORD PTR __imp_?Insert@?$CStringT@DV?$StrTraitMFC_DLL@DV?$ChTraitsCRT@D@ATL@@@@@ATL@@QAEHHPBD@Z
$LN22@GetCompart:

; 255  : 		ChangeData(changePacketData, compartType, dataType.ReverseFind('M'));

  0008f	6a 4d		 push	 77			; 0000004dH
  00091	8b cf		 mov	 ecx, edi
  00093	ff 15 00 00 00
	00		 call	 DWORD PTR __imp_?ReverseFind@?$CStringT@DV?$StrTraitMFC_DLL@DV?$ChTraitsCRT@D@ATL@@@@@ATL@@QBEHD@Z

; 272  : 	if(position < 0)

  00099	85 c0		 test	 eax, eax
  0009b	78 20		 js	 SHORT $LN36@GetCompart

; 275  : 	if(position +2 > baseData.GetLength() && insertData.GetLength() <= 1)

  0009d	8b 4d 0c	 mov	 ecx, DWORD PTR _changePacketData$[ebp]
  000a0	8d 50 02	 lea	 edx, DWORD PTR [eax+2]
  000a3	3b 51 f4	 cmp	 edx, DWORD PTR [ecx-12]
  000a6	7e 08		 jle	 SHORT $LN110@GetCompart
  000a8	8b 0e		 mov	 ecx, DWORD PTR [esi]
  000aa	83 79 f4 01	 cmp	 DWORD PTR [ecx-12], 1
  000ae	7e 0d		 jle	 SHORT $LN36@GetCompart
$LN110@GetCompart:

; 276  : 		return false;
; 277  : 
; 278  : 	baseData.Insert(position +1, insertData);	

  000b0	ff 36		 push	 DWORD PTR [esi]
  000b2	40		 inc	 eax
  000b3	8d 4d 0c	 lea	 ecx, DWORD PTR _changePacketData$[ebp]
  000b6	50		 push	 eax
  000b7	ff 15 00 00 00
	00		 call	 DWORD PTR __imp_?Insert@?$CStringT@DV?$StrTraitMFC_DLL@DV?$ChTraitsCRT@D@ATL@@@@@ATL@@QAEHHPBD@Z
$LN36@GetCompart:

; 256  : 		ChangeData(changePacketData, compartType, dataType.ReverseFind('H'));

  000bd	6a 48		 push	 72			; 00000048H
  000bf	8b cf		 mov	 ecx, edi
  000c1	ff 15 00 00 00
	00		 call	 DWORD PTR __imp_?ReverseFind@?$CStringT@DV?$StrTraitMFC_DLL@DV?$ChTraitsCRT@D@ATL@@@@@ATL@@QBEHD@Z

; 272  : 	if(position < 0)

  000c7	85 c0		 test	 eax, eax
  000c9	0f 88 5e 01 00
	00		 js	 $LN4@GetCompart

; 275  : 	if(position +2 > baseData.GetLength() && insertData.GetLength() <= 1)

  000cf	8b 4d 0c	 mov	 ecx, DWORD PTR _changePacketData$[ebp]
  000d2	8d 50 02	 lea	 edx, DWORD PTR [eax+2]
  000d5	3b 51 f4	 cmp	 edx, DWORD PTR [ecx-12]
  000d8	7e 0c		 jle	 SHORT $LN111@GetCompart
  000da	8b 0e		 mov	 ecx, DWORD PTR [esi]
  000dc	83 79 f4 01	 cmp	 DWORD PTR [ecx-12], 1
  000e0	0f 8e 47 01 00
	00		 jle	 $LN4@GetCompart
$LN111@GetCompart:

; 276  : 		return false;
; 277  : 
; 278  : 	baseData.Insert(position +1, insertData);	

  000e6	ff 36		 push	 DWORD PTR [esi]
  000e8	40		 inc	 eax
  000e9	8d 4d 0c	 lea	 ecx, DWORD PTR _changePacketData$[ebp]
  000ec	50		 push	 eax
  000ed	ff 15 00 00 00
	00		 call	 DWORD PTR __imp_?Insert@?$CStringT@DV?$StrTraitMFC_DLL@DV?$ChTraitsCRT@D@ATL@@@@@ATL@@QAEHHPBD@Z

; 257  : 	}

  000f3	e9 35 01 00 00	 jmp	 $LN4@GetCompart
$LN3@GetCompart:

; 258  : 	// <  > 
; 259  : 	else{
; 260  : 		ChangeData(changePacketData, _LTEXT6( C6_SECOND), dataType.ReverseFind('S'));

  000f8	a1 54 00 00 00	 mov	 eax, DWORD PTR ?g_iMetaTable@@3VIMetaTable@@A+84
  000fd	b9 00 00 00 00	 mov	 ecx, OFFSET ?g_iMetaTable@@3VIMetaTable@@A ; g_iMetaTable
  00102	6a 00		 push	 0
  00104	ff b0 f8 09 00
	00		 push	 DWORD PTR [eax+2552]
  0010a	6a 06		 push	 6
  0010c	ff 37		 push	 DWORD PTR [edi]
  0010e	e8 00 00 00 00	 call	 ?GetLanguageText@IMetaTable@@QAEPBDPAUHWND__@@W4E_CODEPAGE@1@PBDH@Z ; IMetaTable::GetLanguageText
  00113	50		 push	 eax
  00114	8d 4d 14	 lea	 ecx, DWORD PTR $T4[ebp]
  00117	ff 15 00 00 00
	00		 call	 DWORD PTR __imp_??0?$CStringT@DV?$StrTraitMFC_DLL@DV?$ChTraitsCRT@D@ATL@@@@@ATL@@QAE@PBD@Z
  0011d	8b 75 10	 mov	 esi, DWORD PTR _dataType$[ebp]
  00120	8b ce		 mov	 ecx, esi
  00122	6a 53		 push	 83			; 00000053H
  00124	c6 45 fc 01	 mov	 BYTE PTR __$EHRec$[ebp+8], 1
  00128	ff 15 00 00 00
	00		 call	 DWORD PTR __imp_?ReverseFind@?$CStringT@DV?$StrTraitMFC_DLL@DV?$ChTraitsCRT@D@ATL@@@@@ATL@@QBEHD@Z

; 272  : 	if(position < 0)

  0012e	85 c0		 test	 eax, eax
  00130	78 22		 js	 SHORT $LN64@GetCompart
; File C:\Program Files (x86)\Microsoft Visual Studio\2019\Community\VC\Tools\MSVC\14.29.30133\atlmfc\include\atlsimpstr.h

; 519  : 		return( GetData()->nDataLength );

  00132	8b 4d 0c	 mov	 ecx, DWORD PTR _changePacketData$[ebp]
  00135	8b 51 f4	 mov	 edx, DWORD PTR [ecx-12]
; File D:\git\src\IBK\IBK_DRFN\ProjSrc\SrcChartEx\ChartOCX\Include_Chart\ScaleCalculator.cpp

; 275  : 	if(position +2 > baseData.GetLength() && insertData.GetLength() <= 1)

  00138	8d 48 02	 lea	 ecx, DWORD PTR [eax+2]
  0013b	3b ca		 cmp	 ecx, edx
  0013d	8b 4d 14	 mov	 ecx, DWORD PTR $T4[ebp]
  00140	7e 06		 jle	 SHORT $LN66@GetCompart
  00142	83 79 f4 01	 cmp	 DWORD PTR [ecx-12], 1
  00146	7e 0c		 jle	 SHORT $LN64@GetCompart
$LN66@GetCompart:

; 276  : 		return false;
; 277  : 
; 278  : 	baseData.Insert(position +1, insertData);	

  00148	51		 push	 ecx
  00149	40		 inc	 eax
  0014a	8d 4d 0c	 lea	 ecx, DWORD PTR _changePacketData$[ebp]
  0014d	50		 push	 eax
  0014e	ff 15 00 00 00
	00		 call	 DWORD PTR __imp_?Insert@?$CStringT@DV?$StrTraitMFC_DLL@DV?$ChTraitsCRT@D@ATL@@@@@ATL@@QAEHHPBD@Z
$LN64@GetCompart:

; 258  : 	// <  > 
; 259  : 	else{
; 260  : 		ChangeData(changePacketData, _LTEXT6( C6_SECOND), dataType.ReverseFind('S'));

  00154	8d 4d 14	 lea	 ecx, DWORD PTR $T4[ebp]
  00157	c6 45 fc 00	 mov	 BYTE PTR __$EHRec$[ebp+8], 0
  0015b	ff 15 00 00 00
	00		 call	 DWORD PTR __imp_??1?$CStringT@DV?$StrTraitMFC_DLL@DV?$ChTraitsCRT@D@ATL@@@@@ATL@@QAE@XZ

; 261  : 		ChangeData(changePacketData, _LTEXT6( C6_MINUTE), dataType.ReverseFind('M'));

  00161	a1 54 00 00 00	 mov	 eax, DWORD PTR ?g_iMetaTable@@3VIMetaTable@@A+84
  00166	b9 00 00 00 00	 mov	 ecx, OFFSET ?g_iMetaTable@@3VIMetaTable@@A ; g_iMetaTable
  0016b	6a 00		 push	 0
  0016d	ff b0 f4 09 00
	00		 push	 DWORD PTR [eax+2548]
  00173	6a 06		 push	 6
  00175	ff 37		 push	 DWORD PTR [edi]
  00177	e8 00 00 00 00	 call	 ?GetLanguageText@IMetaTable@@QAEPBDPAUHWND__@@W4E_CODEPAGE@1@PBDH@Z ; IMetaTable::GetLanguageText
  0017c	50		 push	 eax
  0017d	8d 4d 10	 lea	 ecx, DWORD PTR $T3[ebp]
  00180	ff 15 00 00 00
	00		 call	 DWORD PTR __imp_??0?$CStringT@DV?$StrTraitMFC_DLL@DV?$ChTraitsCRT@D@ATL@@@@@ATL@@QAE@PBD@Z
  00186	6a 4d		 push	 77			; 0000004dH
  00188	8b ce		 mov	 ecx, esi
  0018a	c6 45 fc 02	 mov	 BYTE PTR __$EHRec$[ebp+8], 2
  0018e	ff 15 00 00 00
	00		 call	 DWORD PTR __imp_?ReverseFind@?$CStringT@DV?$StrTraitMFC_DLL@DV?$ChTraitsCRT@D@ATL@@@@@ATL@@QBEHD@Z

; 272  : 	if(position < 0)

  00194	85 c0		 test	 eax, eax
  00196	78 22		 js	 SHORT $LN78@GetCompart
; File C:\Program Files (x86)\Microsoft Visual Studio\2019\Community\VC\Tools\MSVC\14.29.30133\atlmfc\include\atlsimpstr.h

; 519  : 		return( GetData()->nDataLength );

  00198	8b 4d 0c	 mov	 ecx, DWORD PTR _changePacketData$[ebp]
  0019b	8b 51 f4	 mov	 edx, DWORD PTR [ecx-12]
; File D:\git\src\IBK\IBK_DRFN\ProjSrc\SrcChartEx\ChartOCX\Include_Chart\ScaleCalculator.cpp

; 275  : 	if(position +2 > baseData.GetLength() && insertData.GetLength() <= 1)

  0019e	8d 48 02	 lea	 ecx, DWORD PTR [eax+2]
  001a1	3b ca		 cmp	 ecx, edx
  001a3	8b 4d 10	 mov	 ecx, DWORD PTR $T3[ebp]
  001a6	7e 06		 jle	 SHORT $LN80@GetCompart
  001a8	83 79 f4 01	 cmp	 DWORD PTR [ecx-12], 1
  001ac	7e 0c		 jle	 SHORT $LN78@GetCompart
$LN80@GetCompart:

; 276  : 		return false;
; 277  : 
; 278  : 	baseData.Insert(position +1, insertData);	

  001ae	51		 push	 ecx
  001af	40		 inc	 eax
  001b0	8d 4d 0c	 lea	 ecx, DWORD PTR _changePacketData$[ebp]
  001b3	50		 push	 eax
  001b4	ff 15 00 00 00
	00		 call	 DWORD PTR __imp_?Insert@?$CStringT@DV?$StrTraitMFC_DLL@DV?$ChTraitsCRT@D@ATL@@@@@ATL@@QAEHHPBD@Z
$LN78@GetCompart:

; 261  : 		ChangeData(changePacketData, _LTEXT6( C6_MINUTE), dataType.ReverseFind('M'));

  001ba	8d 4d 10	 lea	 ecx, DWORD PTR $T3[ebp]
  001bd	c6 45 fc 00	 mov	 BYTE PTR __$EHRec$[ebp+8], 0
  001c1	ff 15 00 00 00
	00		 call	 DWORD PTR __imp_??1?$CStringT@DV?$StrTraitMFC_DLL@DV?$ChTraitsCRT@D@ATL@@@@@ATL@@QAE@XZ

; 262  : 		ChangeData(changePacketData, _LTEXT6( C6_HOUR), dataType.ReverseFind('H'));

  001c7	a1 54 00 00 00	 mov	 eax, DWORD PTR ?g_iMetaTable@@3VIMetaTable@@A+84
  001cc	b9 00 00 00 00	 mov	 ecx, OFFSET ?g_iMetaTable@@3VIMetaTable@@A ; g_iMetaTable
  001d1	6a 00		 push	 0
  001d3	ff b0 f0 09 00
	00		 push	 DWORD PTR [eax+2544]
  001d9	6a 06		 push	 6
  001db	ff 37		 push	 DWORD PTR [edi]
  001dd	e8 00 00 00 00	 call	 ?GetLanguageText@IMetaTable@@QAEPBDPAUHWND__@@W4E_CODEPAGE@1@PBDH@Z ; IMetaTable::GetLanguageText
  001e2	50		 push	 eax
  001e3	8d 4d 10	 lea	 ecx, DWORD PTR $T2[ebp]
  001e6	ff 15 00 00 00
	00		 call	 DWORD PTR __imp_??0?$CStringT@DV?$StrTraitMFC_DLL@DV?$ChTraitsCRT@D@ATL@@@@@ATL@@QAE@PBD@Z
  001ec	6a 48		 push	 72			; 00000048H
  001ee	8b ce		 mov	 ecx, esi
  001f0	c6 45 fc 03	 mov	 BYTE PTR __$EHRec$[ebp+8], 3
  001f4	ff 15 00 00 00
	00		 call	 DWORD PTR __imp_?ReverseFind@?$CStringT@DV?$StrTraitMFC_DLL@DV?$ChTraitsCRT@D@ATL@@@@@ATL@@QBEHD@Z

; 272  : 	if(position < 0)

  001fa	85 c0		 test	 eax, eax
  001fc	78 22		 js	 SHORT $LN92@GetCompart
; File C:\Program Files (x86)\Microsoft Visual Studio\2019\Community\VC\Tools\MSVC\14.29.30133\atlmfc\include\atlsimpstr.h

; 519  : 		return( GetData()->nDataLength );

  001fe	8b 4d 0c	 mov	 ecx, DWORD PTR _changePacketData$[ebp]
  00201	8b 51 f4	 mov	 edx, DWORD PTR [ecx-12]
; File D:\git\src\IBK\IBK_DRFN\ProjSrc\SrcChartEx\ChartOCX\Include_Chart\ScaleCalculator.cpp

; 275  : 	if(position +2 > baseData.GetLength() && insertData.GetLength() <= 1)

  00204	8d 48 02	 lea	 ecx, DWORD PTR [eax+2]
  00207	3b ca		 cmp	 ecx, edx
  00209	8b 4d 10	 mov	 ecx, DWORD PTR $T2[ebp]
  0020c	7e 06		 jle	 SHORT $LN94@GetCompart
  0020e	83 79 f4 01	 cmp	 DWORD PTR [ecx-12], 1
  00212	7e 0c		 jle	 SHORT $LN92@GetCompart
$LN94@GetCompart:

; 276  : 		return false;
; 277  : 
; 278  : 	baseData.Insert(position +1, insertData);	

  00214	51		 push	 ecx
  00215	40		 inc	 eax
  00216	8d 4d 0c	 lea	 ecx, DWORD PTR _changePacketData$[ebp]
  00219	50		 push	 eax
  0021a	ff 15 00 00 00
	00		 call	 DWORD PTR __imp_?Insert@?$CStringT@DV?$StrTraitMFC_DLL@DV?$ChTraitsCRT@D@ATL@@@@@ATL@@QAEHHPBD@Z
$LN92@GetCompart:

; 262  : 		ChangeData(changePacketData, _LTEXT6( C6_HOUR), dataType.ReverseFind('H'));

  00220	8d 4d 10	 lea	 ecx, DWORD PTR $T2[ebp]
  00223	c6 45 fc 00	 mov	 BYTE PTR __$EHRec$[ebp+8], 0
  00227	ff 15 00 00 00
	00		 call	 DWORD PTR __imp_??1?$CStringT@DV?$StrTraitMFC_DLL@DV?$ChTraitsCRT@D@ATL@@@@@ATL@@QAE@XZ
$LN4@GetCompart:

; 263  : 	}
; 264  : 	
; 265  : 	return changePacketData;

  0022d	8b 4d 08	 mov	 ecx, DWORD PTR ___$ReturnUdt$[ebp]
  00230	8d 45 0c	 lea	 eax, DWORD PTR _changePacketData$[ebp]
  00233	50		 push	 eax
  00234	ff 15 00 00 00
	00		 call	 DWORD PTR __imp_??0?$CStringT@DV?$StrTraitMFC_DLL@DV?$ChTraitsCRT@D@ATL@@@@@ATL@@QAE@ABV01@@Z
  0023a	8d 4d 0c	 lea	 ecx, DWORD PTR _changePacketData$[ebp]
  0023d	ff 15 00 00 00
	00		 call	 DWORD PTR __imp_??1?$CStringT@DV?$StrTraitMFC_DLL@DV?$ChTraitsCRT@D@ATL@@@@@ATL@@QAE@XZ
$LN113@GetCompart:

; 266  : }

  00243	8b 45 08	 mov	 eax, DWORD PTR ___$ReturnUdt$[ebp]
  00246	8b 4d f4	 mov	 ecx, DWORD PTR __$EHRec$[ebp]
  00249	64 89 0d 00 00
	00 00		 mov	 DWORD PTR fs:0, ecx
  00250	59		 pop	 ecx
  00251	5f		 pop	 edi
  00252	5e		 pop	 esi
  00253	8b e5		 mov	 esp, ebp
  00255	5d		 pop	 ebp
  00256	c2 10 00	 ret	 16			; 00000010H
_TEXT	ENDS
;	COMDAT text$x
text$x	SEGMENT
__unwindfunclet$?GetCompartScaleTime@CScaleCalculator@@AAE?AV?$CStringT@DV?$StrTraitMFC_DLL@DV?$ChTraitsCRT@D@ATL@@@@@ATL@@ABV23@00@Z$1:
  00000	8d 4d 0c	 lea	 ecx, DWORD PTR _changePacketData$[ebp]
  00003	ff 25 00 00 00
	00		 jmp	 DWORD PTR __imp_??1?$CStringT@DV?$StrTraitMFC_DLL@DV?$ChTraitsCRT@D@ATL@@@@@ATL@@QAE@XZ
__unwindfunclet$?GetCompartScaleTime@CScaleCalculator@@AAE?AV?$CStringT@DV?$StrTraitMFC_DLL@DV?$ChTraitsCRT@D@ATL@@@@@ATL@@ABV23@00@Z$2:
  00009	8d 4d 14	 lea	 ecx, DWORD PTR $T4[ebp]
  0000c	ff 25 00 00 00
	00		 jmp	 DWORD PTR __imp_??1?$CStringT@DV?$StrTraitMFC_DLL@DV?$ChTraitsCRT@D@ATL@@@@@ATL@@QAE@XZ
__unwindfunclet$?GetCompartScaleTime@CScaleCalculator@@AAE?AV?$CStringT@DV?$StrTraitMFC_DLL@DV?$ChTraitsCRT@D@ATL@@@@@ATL@@ABV23@00@Z$3:
  00012	8d 4d 10	 lea	 ecx, DWORD PTR $T3[ebp]
  00015	ff 25 00 00 00
	00		 jmp	 DWORD PTR __imp_??1?$CStringT@DV?$StrTraitMFC_DLL@DV?$ChTraitsCRT@D@ATL@@@@@ATL@@QAE@XZ
__unwindfunclet$?GetCompartScaleTime@CScaleCalculator@@AAE?AV?$CStringT@DV?$StrTraitMFC_DLL@DV?$ChTraitsCRT@D@ATL@@@@@ATL@@ABV23@00@Z$4:
  0001b	8d 4d 10	 lea	 ecx, DWORD PTR $T2[ebp]
  0001e	ff 25 00 00 00
	00		 jmp	 DWORD PTR __imp_??1?$CStringT@DV?$StrTraitMFC_DLL@DV?$ChTraitsCRT@D@ATL@@@@@ATL@@QAE@XZ
  00024	cc		 int	 3
  00025	cc		 int	 3
  00026	cc		 int	 3
  00027	cc		 int	 3
  00028	cc		 int	 3
__ehhandler$?GetCompartScaleTime@CScaleCalculator@@AAE?AV?$CStringT@DV?$StrTraitMFC_DLL@DV?$ChTraitsCRT@D@ATL@@@@@ATL@@ABV23@00@Z:
  00029	90		 npad	 1
  0002a	90		 npad	 1
  0002b	8b 54 24 08	 mov	 edx, DWORD PTR [esp+8]
  0002f	8d 42 0c	 lea	 eax, DWORD PTR [edx+12]
  00032	8b 4a f4	 mov	 ecx, DWORD PTR [edx-12]
  00035	33 c8		 xor	 ecx, eax
  00037	e8 00 00 00 00	 call	 @__security_check_cookie@4
  0003c	b8 00 00 00 00	 mov	 eax, OFFSET __ehfuncinfo$?GetCompartScaleTime@CScaleCalculator@@AAE?AV?$CStringT@DV?$StrTraitMFC_DLL@DV?$ChTraitsCRT@D@ATL@@@@@ATL@@ABV23@00@Z
  00041	e9 00 00 00 00	 jmp	 ___CxxFrameHandler3
text$x	ENDS
?GetCompartScaleTime@CScaleCalculator@@AAE?AV?$CStringT@DV?$StrTraitMFC_DLL@DV?$ChTraitsCRT@D@ATL@@@@@ATL@@ABV23@00@Z ENDP ; CScaleCalculator::GetCompartScaleTime
; Function compile flags: /Ogtp
; File D:\git\src\IBK\IBK_DRFN\ProjSrc\SrcChartEx\ChartOCX\Include_Chart\ScaleCalculator.cpp
; File C:\Program Files (x86)\Microsoft Visual Studio\2019\Community\VC\Tools\MSVC\14.29.30133\atlmfc\include\atlsimpstr.h
; File D:\git\src\IBK\IBK_DRFN\ProjSrc\SrcChartEx\ChartOCX\Include_Chart\ScaleCalculator.cpp
; File C:\Program Files (x86)\Microsoft Visual Studio\2019\Community\VC\Tools\MSVC\14.29.30133\atlmfc\include\atlsimpstr.h
; File D:\git\src\IBK\IBK_DRFN\ProjSrc\SrcChartEx\ChartOCX\Include_Chart\ScaleCalculator.cpp
; File C:\Program Files (x86)\Microsoft Visual Studio\2019\Community\VC\Tools\MSVC\14.29.30133\atlmfc\include\atlsimpstr.h
; File D:\git\src\IBK\IBK_DRFN\ProjSrc\SrcChartEx\ChartOCX\Include_Chart\ScaleCalculator.cpp
; File C:\Program Files (x86)\Microsoft Visual Studio\2019\Community\VC\Tools\MSVC\14.29.30133\atlmfc\include\atlsimpstr.h
; File D:\git\src\IBK\IBK_DRFN\ProjSrc\SrcChartEx\ChartOCX\Include_Chart\ScaleCalculator.cpp
; File C:\Program Files (x86)\Microsoft Visual Studio\2019\Community\VC\Tools\MSVC\14.29.30133\atlmfc\include\atlsimpstr.h
; File D:\git\src\IBK\IBK_DRFN\ProjSrc\SrcChartEx\ChartOCX\Include_Chart\ScaleCalculator.cpp
; File C:\Program Files (x86)\Microsoft Visual Studio\2019\Community\VC\Tools\MSVC\14.29.30133\atlmfc\include\atlsimpstr.h
; File D:\git\src\IBK\IBK_DRFN\ProjSrc\SrcChartEx\ChartOCX\Include_Chart\ScaleCalculator.cpp
; File C:\Program Files (x86)\Microsoft Visual Studio\2019\Community\VC\Tools\MSVC\14.29.30133\atlmfc\include\cstringt.h
; File D:\git\src\IBK\IBK_DRFN\ProjSrc\SrcChartEx\ChartOCX\Include_Chart\ScaleCalculator.cpp
; File C:\Program Files (x86)\Microsoft Visual Studio\2019\Community\VC\Tools\MSVC\14.29.30133\atlmfc\include\cstringt.h
; File C:\Program Files (x86)\Microsoft Visual Studio\2019\Community\VC\Tools\MSVC\14.29.30133\atlmfc\include\atlsimpstr.h
; File C:\Program Files (x86)\Microsoft Visual Studio\2019\Community\VC\Tools\MSVC\14.29.30133\atlmfc\include\cstringt.h
; File D:\git\src\IBK\IBK_DRFN\ProjSrc\SrcChartEx\ChartOCX\Include_Chart\ScaleCalculator.cpp
; File C:\Program Files (x86)\Microsoft Visual Studio\2019\Community\VC\Tools\MSVC\14.29.30133\atlmfc\include\atlsimpstr.h
; File D:\git\src\IBK\IBK_DRFN\ProjSrc\SrcChartEx\ChartOCX\Include_Chart\ScaleCalculator.cpp
; File C:\Program Files (x86)\Microsoft Visual Studio\2019\Community\VC\Tools\MSVC\14.29.30133\atlmfc\include\atlsimpstr.h
; File D:\git\src\IBK\IBK_DRFN\ProjSrc\SrcChartEx\ChartOCX\Include_Chart\ScaleCalculator.cpp
; File C:\Program Files (x86)\Microsoft Visual Studio\2019\Community\VC\Tools\MSVC\14.29.30133\atlmfc\include\cstringt.h
; File D:\git\src\IBK\IBK_DRFN\ProjSrc\SrcChartEx\ChartOCX\Include_Chart\ScaleCalculator.cpp
; File C:\Program Files (x86)\Microsoft Visual Studio\2019\Community\VC\Tools\MSVC\14.29.30133\atlmfc\include\cstringt.h
; File C:\Program Files (x86)\Microsoft Visual Studio\2019\Community\VC\Tools\MSVC\14.29.30133\atlmfc\include\atlsimpstr.h
; File C:\Program Files (x86)\Microsoft Visual Studio\2019\Community\VC\Tools\MSVC\14.29.30133\atlmfc\include\cstringt.h
; File D:\git\src\IBK\IBK_DRFN\ProjSrc\SrcChartEx\ChartOCX\Include_Chart\ScaleCalculator.cpp
; File C:\Program Files (x86)\Microsoft Visual Studio\2019\Community\VC\Tools\MSVC\14.29.30133\atlmfc\include\atlsimpstr.h
; File D:\git\src\IBK\IBK_DRFN\ProjSrc\SrcChartEx\ChartOCX\Include_Chart\ScaleCalculator.cpp
; File C:\Program Files (x86)\Microsoft Visual Studio\2019\Community\VC\Tools\MSVC\14.29.30133\atlmfc\include\atlsimpstr.h
; File D:\git\src\IBK\IBK_DRFN\ProjSrc\SrcChartEx\ChartOCX\Include_Chart\ScaleCalculator.cpp
; File C:\Program Files (x86)\Microsoft Visual Studio\2019\Community\VC\Tools\MSVC\14.29.30133\atlmfc\include\cstringt.h
; File D:\git\src\IBK\IBK_DRFN\ProjSrc\SrcChartEx\ChartOCX\Include_Chart\ScaleCalculator.cpp
; File C:\Program Files (x86)\Microsoft Visual Studio\2019\Community\VC\Tools\MSVC\14.29.30133\atlmfc\include\cstringt.h
; File C:\Program Files (x86)\Microsoft Visual Studio\2019\Community\VC\Tools\MSVC\14.29.30133\atlmfc\include\atlsimpstr.h
; File C:\Program Files (x86)\Microsoft Visual Studio\2019\Community\VC\Tools\MSVC\14.29.30133\atlmfc\include\cstringt.h
; File D:\git\src\IBK\IBK_DRFN\ProjSrc\SrcChartEx\ChartOCX\Include_Chart\ScaleCalculator.cpp
;	COMDAT ?GetCompartScaleDate@CScaleCalculator@@AAE?AV?$CStringT@DV?$StrTraitMFC_DLL@DV?$ChTraitsCRT@D@ATL@@@@@ATL@@ABV23@00@Z
_TEXT	SEGMENT
$T2 = -32						; size = 4
$T3 = -28						; size = 4
_strDaily$4 = -24					; size = 4
_strYear$5 = -20					; size = 4
_strMonth$6 = -16					; size = 4
__$EHRec$ = -12						; size = 12
___$ReturnUdt$ = 8					; size = 4
$T7 = 12						; size = 4
$T8 = 12						; size = 4
_packetData$ = 12					; size = 4
$T9 = 15						; size = 1
$T10 = 16						; size = 4
$T11 = 16						; size = 4
$T12 = 16						; size = 4
$T13 = 16						; size = 4
$T14 = 16						; size = 4
$T15 = 16						; size = 4
$T16 = 16						; size = 4
$T17 = 16						; size = 4
$T18 = 16						; size = 4
$T19 = 16						; size = 4
$T20 = 16						; size = 4
_dataType$ = 16						; size = 4
_chTemp$21 = 19						; size = 1
$T22 = 19						; size = 1
$T23 = 19						; size = 1
_changePacketData$ = 20					; size = 4
_compartType$ = 20					; size = 4
?GetCompartScaleDate@CScaleCalculator@@AAE?AV?$CStringT@DV?$StrTraitMFC_DLL@DV?$ChTraitsCRT@D@ATL@@@@@ATL@@ABV23@00@Z PROC ; CScaleCalculator::GetCompartScaleDate, COMDAT
; _this$ = ecx

; 185  : {

  00000	55		 push	 ebp
  00001	8b ec		 mov	 ebp, esp
  00003	6a ff		 push	 -1
  00005	68 00 00 00 00	 push	 __ehhandler$?GetCompartScaleDate@CScaleCalculator@@AAE?AV?$CStringT@DV?$StrTraitMFC_DLL@DV?$ChTraitsCRT@D@ATL@@@@@ATL@@ABV23@00@Z
  0000a	64 a1 00 00 00
	00		 mov	 eax, DWORD PTR fs:0
  00010	50		 push	 eax
  00011	83 ec 14	 sub	 esp, 20			; 00000014H
  00014	53		 push	 ebx
  00015	56		 push	 esi
  00016	57		 push	 edi
  00017	a1 00 00 00 00	 mov	 eax, DWORD PTR ___security_cookie
  0001c	33 c5		 xor	 eax, ebp
  0001e	50		 push	 eax
  0001f	8d 45 f4	 lea	 eax, DWORD PTR __$EHRec$[ebp]
  00022	64 a3 00 00 00
	00		 mov	 DWORD PTR fs:0, eax
  00028	8b d9		 mov	 ebx, ecx
  0002a	c7 45 e4 00 00
	00 00		 mov	 DWORD PTR $T3[ebp], 0
; File C:\Program Files (x86)\Microsoft Visual Studio\2019\Community\VC\Tools\MSVC\14.29.30133\atlmfc\include\atlsimpstr.h

; 519  : 		return( GetData()->nDataLength );

  00031	8b 75 14	 mov	 esi, DWORD PTR _compartType$[ebp]
  00034	8b 06		 mov	 eax, DWORD PTR [esi]

; 533  : 		return( GetLength() == 0 );

  00036	83 78 f4 00	 cmp	 DWORD PTR [eax-12], 0
; File D:\git\src\IBK\IBK_DRFN\ProjSrc\SrcChartEx\ChartOCX\Include_Chart\ScaleCalculator.cpp

; 186  : 	if(compartType.IsEmpty())

  0003a	75 11		 jne	 SHORT $LN2@GetCompart

; 187  : 		return packetData;

  0003c	ff 75 0c	 push	 DWORD PTR _packetData$[ebp]
  0003f	8b 4d 08	 mov	 ecx, DWORD PTR ___$ReturnUdt$[ebp]
  00042	ff 15 00 00 00
	00		 call	 DWORD PTR __imp_??0?$CStringT@DV?$StrTraitMFC_DLL@DV?$ChTraitsCRT@D@ATL@@@@@ATL@@QAE@ABV01@@Z
  00048	e9 e5 04 00 00	 jmp	 $LN125@GetCompart
$LN2@GetCompart:

; 189  : 	CString changePacketData = packetData;

  0004d	8b 7d 0c	 mov	 edi, DWORD PTR _packetData$[ebp]
  00050	8d 4d 14	 lea	 ecx, DWORD PTR _changePacketData$[ebp]
  00053	57		 push	 edi
  00054	ff 15 00 00 00
	00		 call	 DWORD PTR __imp_??0?$CStringT@DV?$StrTraitMFC_DLL@DV?$ChTraitsCRT@D@ATL@@@@@ATL@@QAE@ABV01@@Z
; File C:\Program Files (x86)\Microsoft Visual Studio\2019\Community\VC\Tools\MSVC\14.29.30133\atlmfc\include\atlsimpstr.h

; 519  : 		return( GetData()->nDataLength );

  0005a	8b 06		 mov	 eax, DWORD PTR [esi]
; File D:\git\src\IBK\IBK_DRFN\ProjSrc\SrcChartEx\ChartOCX\Include_Chart\ScaleCalculator.cpp

; 189  : 	CString changePacketData = packetData;

  0005c	c7 45 fc 00 00
	00 00		 mov	 DWORD PTR __$EHRec$[ebp+8], 0
; File C:\Program Files (x86)\Microsoft Visual Studio\2019\Community\VC\Tools\MSVC\14.29.30133\atlmfc\include\atlsimpstr.h

; 519  : 		return( GetData()->nDataLength );

  00063	8b 40 f4	 mov	 eax, DWORD PTR [eax-12]
; File D:\git\src\IBK\IBK_DRFN\ProjSrc\SrcChartEx\ChartOCX\Include_Chart\ScaleCalculator.cpp

; 192  : 	if(compartType.GetLength() == 1){

  00066	83 f8 01	 cmp	 eax, 1
  00069	0f 85 92 00 00
	00		 jne	 $LN3@GetCompart

; 193  : 		if(dataType.Find('Y') <= 0){	//     

  0006f	8b 7d 10	 mov	 edi, DWORD PTR _dataType$[ebp]
  00072	8b cf		 mov	 ecx, edi
  00074	6a 00		 push	 0
  00076	6a 59		 push	 89			; 00000059H
  00078	ff 15 00 00 00
	00		 call	 DWORD PTR __imp_?Find@?$CStringT@DV?$StrTraitMFC_DLL@DV?$ChTraitsCRT@D@ATL@@@@@ATL@@QBEHDH@Z
  0007e	8b cf		 mov	 ecx, edi
  00080	85 c0		 test	 eax, eax
  00082	7f 32		 jg	 SHORT $LN5@GetCompart

; 194  : 			ChangeData(changePacketData, compartType, dataType.ReverseFind('D'));

  00084	6a 44		 push	 68			; 00000044H
  00086	ff 15 00 00 00
	00		 call	 DWORD PTR __imp_?ReverseFind@?$CStringT@DV?$StrTraitMFC_DLL@DV?$ChTraitsCRT@D@ATL@@@@@ATL@@QBEHD@Z
  0008c	50		 push	 eax
  0008d	8d 45 14	 lea	 eax, DWORD PTR _changePacketData$[ebp]
  00090	56		 push	 esi
  00091	50		 push	 eax
  00092	e8 00 00 00 00	 call	 ?ChangeData@CScaleCalculator@@CA_NAAV?$CStringT@DV?$StrTraitMFC_DLL@DV?$ChTraitsCRT@D@ATL@@@@@ATL@@ABV23@H@Z ; CScaleCalculator::ChangeData
  00097	83 c4 0c	 add	 esp, 12			; 0000000cH

; 195  : 			ChangeData(changePacketData, compartType, dataType.ReverseFind('M'));

  0009a	8b cf		 mov	 ecx, edi
  0009c	6a 4d		 push	 77			; 0000004dH
  0009e	ff 15 00 00 00
	00		 call	 DWORD PTR __imp_?ReverseFind@?$CStringT@DV?$StrTraitMFC_DLL@DV?$ChTraitsCRT@D@ATL@@@@@ATL@@QBEHD@Z
  000a4	50		 push	 eax
  000a5	8d 45 14	 lea	 eax, DWORD PTR _changePacketData$[ebp]
  000a8	56		 push	 esi
  000a9	50		 push	 eax
  000aa	e8 00 00 00 00	 call	 ?ChangeData@CScaleCalculator@@CA_NAAV?$CStringT@DV?$StrTraitMFC_DLL@DV?$ChTraitsCRT@D@ATL@@@@@ATL@@ABV23@H@Z ; CScaleCalculator::ChangeData
  000af	83 c4 0c	 add	 esp, 12			; 0000000cH

; 196  : 			ChangeData(changePacketData, compartType, dataType.ReverseFind('Y'));

  000b2	6a 59		 push	 89			; 00000059H

; 197  : 		}

  000b4	eb 30		 jmp	 SHORT $LN126@GetCompart
$LN5@GetCompart:

; 198  : 		else{	//     - 
; 199  : 			ChangeData(changePacketData, compartType, dataType.ReverseFind('Y'));

  000b6	6a 59		 push	 89			; 00000059H
  000b8	ff 15 00 00 00
	00		 call	 DWORD PTR __imp_?ReverseFind@?$CStringT@DV?$StrTraitMFC_DLL@DV?$ChTraitsCRT@D@ATL@@@@@ATL@@QBEHD@Z
  000be	50		 push	 eax
  000bf	8d 45 14	 lea	 eax, DWORD PTR _changePacketData$[ebp]
  000c2	56		 push	 esi
  000c3	50		 push	 eax
  000c4	e8 00 00 00 00	 call	 ?ChangeData@CScaleCalculator@@CA_NAAV?$CStringT@DV?$StrTraitMFC_DLL@DV?$ChTraitsCRT@D@ATL@@@@@ATL@@ABV23@H@Z ; CScaleCalculator::ChangeData
  000c9	83 c4 0c	 add	 esp, 12			; 0000000cH

; 200  : 			ChangeData(changePacketData, compartType, dataType.ReverseFind('M'));

  000cc	8b cf		 mov	 ecx, edi
  000ce	6a 4d		 push	 77			; 0000004dH
  000d0	ff 15 00 00 00
	00		 call	 DWORD PTR __imp_?ReverseFind@?$CStringT@DV?$StrTraitMFC_DLL@DV?$ChTraitsCRT@D@ATL@@@@@ATL@@QBEHD@Z
  000d6	50		 push	 eax
  000d7	8d 45 14	 lea	 eax, DWORD PTR _changePacketData$[ebp]
  000da	56		 push	 esi
  000db	50		 push	 eax
  000dc	e8 00 00 00 00	 call	 ?ChangeData@CScaleCalculator@@CA_NAAV?$CStringT@DV?$StrTraitMFC_DLL@DV?$ChTraitsCRT@D@ATL@@@@@ATL@@ABV23@H@Z ; CScaleCalculator::ChangeData
  000e1	83 c4 0c	 add	 esp, 12			; 0000000cH

; 201  : 			ChangeData(changePacketData, compartType, dataType.ReverseFind('D'));

  000e4	6a 44		 push	 68			; 00000044H
$LN126@GetCompart:

; 202  : 		}
; 203  : 	}

  000e6	8b cf		 mov	 ecx, edi
  000e8	ff 15 00 00 00
	00		 call	 DWORD PTR __imp_?ReverseFind@?$CStringT@DV?$StrTraitMFC_DLL@DV?$ChTraitsCRT@D@ATL@@@@@ATL@@QBEHD@Z
  000ee	50		 push	 eax
  000ef	8d 45 14	 lea	 eax, DWORD PTR _changePacketData$[ebp]
  000f2	56		 push	 esi
  000f3	50		 push	 eax
  000f4	e8 00 00 00 00	 call	 ?ChangeData@CScaleCalculator@@CA_NAAV?$CStringT@DV?$StrTraitMFC_DLL@DV?$ChTraitsCRT@D@ATL@@@@@ATL@@ABV23@H@Z ; CScaleCalculator::ChangeData
  000f9	83 c4 0c	 add	 esp, 12			; 0000000cH
  000fc	e9 1b 04 00 00	 jmp	 $LN8@GetCompart
$LN3@GetCompart:

; 204  : 	// <  > 
; 205  : 	else if(compartType.GetLength() >= 6){

  00101	8b 75 10	 mov	 esi, DWORD PTR _dataType$[ebp]
  00104	83 f8 06	 cmp	 eax, 6
  00107	0f 8c c8 01 00
	00		 jl	 $LN7@GetCompart

; 206  : 		if(dataType.Find('Y') <= 0)	{	//    

  0010d	6a 00		 push	 0
  0010f	6a 59		 push	 89			; 00000059H
  00111	8b ce		 mov	 ecx, esi
  00113	ff 15 00 00 00
	00		 call	 DWORD PTR __imp_?Find@?$CStringT@DV?$StrTraitMFC_DLL@DV?$ChTraitsCRT@D@ATL@@@@@ATL@@QBEHDH@Z
  00119	85 c0		 test	 eax, eax
  0011b	b9 00 00 00 00	 mov	 ecx, OFFSET ?g_iMetaTable@@3VIMetaTable@@A ; g_iMetaTable
  00120	a1 54 00 00 00	 mov	 eax, DWORD PTR ?g_iMetaTable@@3VIMetaTable@@A+84
  00125	6a 00		 push	 0
  00127	0f 8f e2 00 00
	00		 jg	 $LN9@GetCompart

; 207  : 			ChangeData(changePacketData, _LTEXT6( C6_DAY), dataType.ReverseFind('D'));

  0012d	ff b0 ec 09 00
	00		 push	 DWORD PTR [eax+2540]
  00133	6a 06		 push	 6
  00135	ff 33		 push	 DWORD PTR [ebx]
  00137	e8 00 00 00 00	 call	 ?GetLanguageText@IMetaTable@@QAEPBDPAUHWND__@@W4E_CODEPAGE@1@PBDH@Z ; IMetaTable::GetLanguageText
  0013c	50		 push	 eax
  0013d	8d 4d 10	 lea	 ecx, DWORD PTR $T20[ebp]
  00140	ff 15 00 00 00
	00		 call	 DWORD PTR __imp_??0?$CStringT@DV?$StrTraitMFC_DLL@DV?$ChTraitsCRT@D@ATL@@@@@ATL@@QAE@PBD@Z
  00146	6a 44		 push	 68			; 00000044H
  00148	8b ce		 mov	 ecx, esi
  0014a	c6 45 fc 01	 mov	 BYTE PTR __$EHRec$[ebp+8], 1
  0014e	ff 15 00 00 00
	00		 call	 DWORD PTR __imp_?ReverseFind@?$CStringT@DV?$StrTraitMFC_DLL@DV?$ChTraitsCRT@D@ATL@@@@@ATL@@QBEHD@Z
  00154	50		 push	 eax
  00155	8d 45 10	 lea	 eax, DWORD PTR $T20[ebp]
  00158	50		 push	 eax
  00159	8d 45 14	 lea	 eax, DWORD PTR _changePacketData$[ebp]
  0015c	50		 push	 eax
  0015d	e8 00 00 00 00	 call	 ?ChangeData@CScaleCalculator@@CA_NAAV?$CStringT@DV?$StrTraitMFC_DLL@DV?$ChTraitsCRT@D@ATL@@@@@ATL@@ABV23@H@Z ; CScaleCalculator::ChangeData
  00162	83 c4 0c	 add	 esp, 12			; 0000000cH
  00165	c6 45 fc 00	 mov	 BYTE PTR __$EHRec$[ebp+8], 0
  00169	8d 4d 10	 lea	 ecx, DWORD PTR $T20[ebp]
  0016c	ff 15 00 00 00
	00		 call	 DWORD PTR __imp_??1?$CStringT@DV?$StrTraitMFC_DLL@DV?$ChTraitsCRT@D@ATL@@@@@ATL@@QAE@XZ

; 208  : 			ChangeData(changePacketData, _LTEXT6( C6_MONTH), dataType.ReverseFind('M'));

  00172	a1 54 00 00 00	 mov	 eax, DWORD PTR ?g_iMetaTable@@3VIMetaTable@@A+84
  00177	b9 00 00 00 00	 mov	 ecx, OFFSET ?g_iMetaTable@@3VIMetaTable@@A ; g_iMetaTable
  0017c	6a 00		 push	 0
  0017e	ff b0 e8 09 00
	00		 push	 DWORD PTR [eax+2536]
  00184	6a 06		 push	 6
  00186	ff 33		 push	 DWORD PTR [ebx]
  00188	e8 00 00 00 00	 call	 ?GetLanguageText@IMetaTable@@QAEPBDPAUHWND__@@W4E_CODEPAGE@1@PBDH@Z ; IMetaTable::GetLanguageText
  0018d	50		 push	 eax
  0018e	8d 4d 10	 lea	 ecx, DWORD PTR $T19[ebp]
  00191	ff 15 00 00 00
	00		 call	 DWORD PTR __imp_??0?$CStringT@DV?$StrTraitMFC_DLL@DV?$ChTraitsCRT@D@ATL@@@@@ATL@@QAE@PBD@Z
  00197	6a 4d		 push	 77			; 0000004dH
  00199	8b ce		 mov	 ecx, esi
  0019b	c6 45 fc 02	 mov	 BYTE PTR __$EHRec$[ebp+8], 2
  0019f	ff 15 00 00 00
	00		 call	 DWORD PTR __imp_?ReverseFind@?$CStringT@DV?$StrTraitMFC_DLL@DV?$ChTraitsCRT@D@ATL@@@@@ATL@@QBEHD@Z
  001a5	50		 push	 eax
  001a6	8d 45 10	 lea	 eax, DWORD PTR $T19[ebp]
  001a9	50		 push	 eax
  001aa	8d 45 14	 lea	 eax, DWORD PTR _changePacketData$[ebp]
  001ad	50		 push	 eax
  001ae	e8 00 00 00 00	 call	 ?ChangeData@CScaleCalculator@@CA_NAAV?$CStringT@DV?$StrTraitMFC_DLL@DV?$ChTraitsCRT@D@ATL@@@@@ATL@@ABV23@H@Z ; CScaleCalculator::ChangeData
  001b3	83 c4 0c	 add	 esp, 12			; 0000000cH
  001b6	c6 45 fc 00	 mov	 BYTE PTR __$EHRec$[ebp+8], 0
  001ba	8d 4d 10	 lea	 ecx, DWORD PTR $T19[ebp]
  001bd	ff 15 00 00 00
	00		 call	 DWORD PTR __imp_??1?$CStringT@DV?$StrTraitMFC_DLL@DV?$ChTraitsCRT@D@ATL@@@@@ATL@@QAE@XZ

; 209  : 			ChangeData(changePacketData, _LTEXT6( C6_YEAR), dataType.ReverseFind('Y'));

  001c3	a1 54 00 00 00	 mov	 eax, DWORD PTR ?g_iMetaTable@@3VIMetaTable@@A+84
  001c8	b9 00 00 00 00	 mov	 ecx, OFFSET ?g_iMetaTable@@3VIMetaTable@@A ; g_iMetaTable
  001cd	6a 00		 push	 0
  001cf	ff b0 e4 09 00
	00		 push	 DWORD PTR [eax+2532]
  001d5	6a 06		 push	 6
  001d7	ff 33		 push	 DWORD PTR [ebx]
  001d9	e8 00 00 00 00	 call	 ?GetLanguageText@IMetaTable@@QAEPBDPAUHWND__@@W4E_CODEPAGE@1@PBDH@Z ; IMetaTable::GetLanguageText
  001de	50		 push	 eax
  001df	8d 4d 10	 lea	 ecx, DWORD PTR $T18[ebp]
  001e2	ff 15 00 00 00
	00		 call	 DWORD PTR __imp_??0?$CStringT@DV?$StrTraitMFC_DLL@DV?$ChTraitsCRT@D@ATL@@@@@ATL@@QAE@PBD@Z
  001e8	c6 45 fc 03	 mov	 BYTE PTR __$EHRec$[ebp+8], 3
  001ec	6a 59		 push	 89			; 00000059H
$LN130@GetCompart:

; 239  : 
; 240  : 	return changePacketData;

  001ee	8b ce		 mov	 ecx, esi
  001f0	ff 15 00 00 00
	00		 call	 DWORD PTR __imp_?ReverseFind@?$CStringT@DV?$StrTraitMFC_DLL@DV?$ChTraitsCRT@D@ATL@@@@@ATL@@QBEHD@Z
  001f6	50		 push	 eax
  001f7	8d 45 10	 lea	 eax, DWORD PTR $T18[ebp]
  001fa	50		 push	 eax
  001fb	8d 45 14	 lea	 eax, DWORD PTR _changePacketData$[ebp]
  001fe	50		 push	 eax
  001ff	e8 00 00 00 00	 call	 ?ChangeData@CScaleCalculator@@CA_NAAV?$CStringT@DV?$StrTraitMFC_DLL@DV?$ChTraitsCRT@D@ATL@@@@@ATL@@ABV23@H@Z ; CScaleCalculator::ChangeData
  00204	83 c4 0c	 add	 esp, 12			; 0000000cH
  00207	8d 4d 10	 lea	 ecx, DWORD PTR $T18[ebp]
  0020a	e9 03 03 00 00	 jmp	 $LN127@GetCompart
$LN9@GetCompart:

; 210  : 		}
; 211  : 		else{	//     - 
; 212  : 			ChangeData(changePacketData, _LTEXT6( C6_YEAR), dataType.ReverseFind('Y'));

  0020f	ff b0 e4 09 00
	00		 push	 DWORD PTR [eax+2532]
  00215	6a 06		 push	 6
  00217	ff 33		 push	 DWORD PTR [ebx]
  00219	e8 00 00 00 00	 call	 ?GetLanguageText@IMetaTable@@QAEPBDPAUHWND__@@W4E_CODEPAGE@1@PBDH@Z ; IMetaTable::GetLanguageText
  0021e	50		 push	 eax
  0021f	8d 4d 10	 lea	 ecx, DWORD PTR $T17[ebp]
  00222	ff 15 00 00 00
	00		 call	 DWORD PTR __imp_??0?$CStringT@DV?$StrTraitMFC_DLL@DV?$ChTraitsCRT@D@ATL@@@@@ATL@@QAE@PBD@Z
  00228	6a 59		 push	 89			; 00000059H
  0022a	8b ce		 mov	 ecx, esi
  0022c	c6 45 fc 04	 mov	 BYTE PTR __$EHRec$[ebp+8], 4
  00230	ff 15 00 00 00
	00		 call	 DWORD PTR __imp_?ReverseFind@?$CStringT@DV?$StrTraitMFC_DLL@DV?$ChTraitsCRT@D@ATL@@@@@ATL@@QBEHD@Z
  00236	50		 push	 eax
  00237	8d 45 10	 lea	 eax, DWORD PTR $T17[ebp]
  0023a	50		 push	 eax
  0023b	8d 45 14	 lea	 eax, DWORD PTR _changePacketData$[ebp]
  0023e	50		 push	 eax
  0023f	e8 00 00 00 00	 call	 ?ChangeData@CScaleCalculator@@CA_NAAV?$CStringT@DV?$StrTraitMFC_DLL@DV?$ChTraitsCRT@D@ATL@@@@@ATL@@ABV23@H@Z ; CScaleCalculator::ChangeData
  00244	83 c4 0c	 add	 esp, 12			; 0000000cH
  00247	c6 45 fc 00	 mov	 BYTE PTR __$EHRec$[ebp+8], 0
  0024b	8d 4d 10	 lea	 ecx, DWORD PTR $T17[ebp]
  0024e	ff 15 00 00 00
	00		 call	 DWORD PTR __imp_??1?$CStringT@DV?$StrTraitMFC_DLL@DV?$ChTraitsCRT@D@ATL@@@@@ATL@@QAE@XZ

; 213  : 			ChangeData(changePacketData, _LTEXT6( C6_MONTH), dataType.ReverseFind('M'));

  00254	a1 54 00 00 00	 mov	 eax, DWORD PTR ?g_iMetaTable@@3VIMetaTable@@A+84
  00259	b9 00 00 00 00	 mov	 ecx, OFFSET ?g_iMetaTable@@3VIMetaTable@@A ; g_iMetaTable
  0025e	6a 00		 push	 0
  00260	ff b0 e8 09 00
	00		 push	 DWORD PTR [eax+2536]
  00266	6a 06		 push	 6
  00268	ff 33		 push	 DWORD PTR [ebx]
  0026a	e8 00 00 00 00	 call	 ?GetLanguageText@IMetaTable@@QAEPBDPAUHWND__@@W4E_CODEPAGE@1@PBDH@Z ; IMetaTable::GetLanguageText
  0026f	50		 push	 eax
  00270	8d 4d 10	 lea	 ecx, DWORD PTR $T16[ebp]
  00273	ff 15 00 00 00
	00		 call	 DWORD PTR __imp_??0?$CStringT@DV?$StrTraitMFC_DLL@DV?$ChTraitsCRT@D@ATL@@@@@ATL@@QAE@PBD@Z
  00279	6a 4d		 push	 77			; 0000004dH
  0027b	8b ce		 mov	 ecx, esi
  0027d	c6 45 fc 05	 mov	 BYTE PTR __$EHRec$[ebp+8], 5
  00281	ff 15 00 00 00
	00		 call	 DWORD PTR __imp_?ReverseFind@?$CStringT@DV?$StrTraitMFC_DLL@DV?$ChTraitsCRT@D@ATL@@@@@ATL@@QBEHD@Z
  00287	50		 push	 eax
  00288	8d 45 10	 lea	 eax, DWORD PTR $T16[ebp]
  0028b	50		 push	 eax
  0028c	8d 45 14	 lea	 eax, DWORD PTR _changePacketData$[ebp]
  0028f	50		 push	 eax
  00290	e8 00 00 00 00	 call	 ?ChangeData@CScaleCalculator@@CA_NAAV?$CStringT@DV?$StrTraitMFC_DLL@DV?$ChTraitsCRT@D@ATL@@@@@ATL@@ABV23@H@Z ; CScaleCalculator::ChangeData
  00295	83 c4 0c	 add	 esp, 12			; 0000000cH
  00298	c6 45 fc 00	 mov	 BYTE PTR __$EHRec$[ebp+8], 0
  0029c	8d 4d 10	 lea	 ecx, DWORD PTR $T16[ebp]
  0029f	ff 15 00 00 00
	00		 call	 DWORD PTR __imp_??1?$CStringT@DV?$StrTraitMFC_DLL@DV?$ChTraitsCRT@D@ATL@@@@@ATL@@QAE@XZ

; 214  : 			ChangeData(changePacketData, _LTEXT6( C6_DAY), dataType.ReverseFind('D'));

  002a5	a1 54 00 00 00	 mov	 eax, DWORD PTR ?g_iMetaTable@@3VIMetaTable@@A+84
  002aa	b9 00 00 00 00	 mov	 ecx, OFFSET ?g_iMetaTable@@3VIMetaTable@@A ; g_iMetaTable
  002af	6a 00		 push	 0
  002b1	ff b0 ec 09 00
	00		 push	 DWORD PTR [eax+2540]
  002b7	6a 06		 push	 6
  002b9	ff 33		 push	 DWORD PTR [ebx]
  002bb	e8 00 00 00 00	 call	 ?GetLanguageText@IMetaTable@@QAEPBDPAUHWND__@@W4E_CODEPAGE@1@PBDH@Z ; IMetaTable::GetLanguageText
  002c0	50		 push	 eax
  002c1	8d 4d 10	 lea	 ecx, DWORD PTR $T15[ebp]
  002c4	ff 15 00 00 00
	00		 call	 DWORD PTR __imp_??0?$CStringT@DV?$StrTraitMFC_DLL@DV?$ChTraitsCRT@D@ATL@@@@@ATL@@QAE@PBD@Z
  002ca	c6 45 fc 06	 mov	 BYTE PTR __$EHRec$[ebp+8], 6
  002ce	6a 44		 push	 68			; 00000044H

; 215  : 		}
; 216  : 	}

  002d0	e9 19 ff ff ff	 jmp	 $LN130@GetCompart
$LN7@GetCompart:

; 217  : 	// <>  - Jan
; 218  : 	else{
; 219  : 		CString strYear = GetTrimData(packetData, dataType, 'Y');

  002d5	8d 45 0f	 lea	 eax, DWORD PTR $T9[ebp]
  002d8	c6 45 0f 59	 mov	 BYTE PTR $T9[ebp], 89	; 00000059H
  002dc	50		 push	 eax
  002dd	56		 push	 esi
  002de	8d 45 ec	 lea	 eax, DWORD PTR _strYear$5[ebp]
  002e1	57		 push	 edi
  002e2	50		 push	 eax
  002e3	e8 00 00 00 00	 call	 ?GetTrimData@CScaleCalculator@@CA?AV?$CStringT@DV?$StrTraitMFC_DLL@DV?$ChTraitsCRT@D@ATL@@@@@ATL@@ABV23@0ABD@Z ; CScaleCalculator::GetTrimData

; 220  : 		CString strMonth = GetMonthEnglish(GetTrimData(packetData, dataType, 'M'));

  002e8	8d 45 13	 lea	 eax, DWORD PTR $T23[ebp]
  002eb	c6 45 fc 07	 mov	 BYTE PTR __$EHRec$[ebp+8], 7
  002ef	50		 push	 eax
  002f0	56		 push	 esi
  002f1	8d 45 0c	 lea	 eax, DWORD PTR $T8[ebp]
  002f4	c6 45 13 4d	 mov	 BYTE PTR $T23[ebp], 77	; 0000004dH
  002f8	57		 push	 edi
  002f9	50		 push	 eax
  002fa	e8 00 00 00 00	 call	 ?GetTrimData@CScaleCalculator@@CA?AV?$CStringT@DV?$StrTraitMFC_DLL@DV?$ChTraitsCRT@D@ATL@@@@@ATL@@ABV23@0ABD@Z ; CScaleCalculator::GetTrimData
  002ff	50		 push	 eax
  00300	8d 45 f0	 lea	 eax, DWORD PTR _strMonth$6[ebp]
  00303	c6 45 fc 08	 mov	 BYTE PTR __$EHRec$[ebp+8], 8
  00307	50		 push	 eax
  00308	e8 00 00 00 00	 call	 ?GetMonthEnglish@CScaleCalculator@@CA?AV?$CStringT@DV?$StrTraitMFC_DLL@DV?$ChTraitsCRT@D@ATL@@@@@ATL@@ABV23@@Z ; CScaleCalculator::GetMonthEnglish
  0030d	83 c4 28	 add	 esp, 40			; 00000028H
  00310	8d 4d 0c	 lea	 ecx, DWORD PTR $T8[ebp]
  00313	c6 45 fc 0a	 mov	 BYTE PTR __$EHRec$[ebp+8], 10 ; 0000000aH
  00317	ff 15 00 00 00
	00		 call	 DWORD PTR __imp_??1?$CStringT@DV?$StrTraitMFC_DLL@DV?$ChTraitsCRT@D@ATL@@@@@ATL@@QAE@XZ

; 221  : 		CString strDaily = GetTrimData(packetData, dataType, 'D');

  0031d	8d 45 13	 lea	 eax, DWORD PTR $T22[ebp]
  00320	c6 45 13 44	 mov	 BYTE PTR $T22[ebp], 68	; 00000044H
  00324	50		 push	 eax
  00325	56		 push	 esi
  00326	8d 45 e8	 lea	 eax, DWORD PTR _strDaily$4[ebp]
  00329	57		 push	 edi
  0032a	50		 push	 eax
  0032b	e8 00 00 00 00	 call	 ?GetTrimData@CScaleCalculator@@CA?AV?$CStringT@DV?$StrTraitMFC_DLL@DV?$ChTraitsCRT@D@ATL@@@@@ATL@@ABV23@0ABD@Z ; CScaleCalculator::GetTrimData
  00330	83 c4 10	 add	 esp, 16			; 00000010H
; File C:\Program Files (x86)\Microsoft Visual Studio\2019\Community\VC\Tools\MSVC\14.29.30133\atlmfc\include\atlsimpstr.h

; 519  : 		return( GetData()->nDataLength );

  00333	8b 45 f0	 mov	 eax, DWORD PTR _strMonth$6[ebp]
; File D:\git\src\IBK\IBK_DRFN\ProjSrc\SrcChartEx\ChartOCX\Include_Chart\ScaleCalculator.cpp

; 221  : 		CString strDaily = GetTrimData(packetData, dataType, 'D');

  00336	c6 45 fc 0b	 mov	 BYTE PTR __$EHRec$[ebp+8], 11 ; 0000000bH
; File C:\Program Files (x86)\Microsoft Visual Studio\2019\Community\VC\Tools\MSVC\14.29.30133\atlmfc\include\atlsimpstr.h

; 533  : 		return( GetLength() == 0 );

  0033a	83 78 f4 00	 cmp	 DWORD PTR [eax-12], 0
; File D:\git\src\IBK\IBK_DRFN\ProjSrc\SrcChartEx\ChartOCX\Include_Chart\ScaleCalculator.cpp

; 223  : 		if(!strMonth.IsEmpty() && !strDaily.IsEmpty())

  0033e	74 72		 je	 SHORT $LN11@GetCompart
; File C:\Program Files (x86)\Microsoft Visual Studio\2019\Community\VC\Tools\MSVC\14.29.30133\atlmfc\include\atlsimpstr.h

; 519  : 		return( GetData()->nDataLength );

  00340	8b 45 e8	 mov	 eax, DWORD PTR _strDaily$4[ebp]

; 533  : 		return( GetLength() == 0 );

  00343	83 78 f4 00	 cmp	 DWORD PTR [eax-12], 0
; File D:\git\src\IBK\IBK_DRFN\ProjSrc\SrcChartEx\ChartOCX\Include_Chart\ScaleCalculator.cpp

; 223  : 		if(!strMonth.IsEmpty() && !strDaily.IsEmpty())

  00347	74 69		 je	 SHORT $LN11@GetCompart
; File C:\Program Files (x86)\Microsoft Visual Studio\2019\Community\VC\Tools\MSVC\14.29.30133\atlmfc\include\cstringt.h

; 2429 : 		CStringT strResult( str1.GetManager() );

  00349	8d 4d f0	 lea	 ecx, DWORD PTR _strMonth$6[ebp]
; File D:\git\src\IBK\IBK_DRFN\ProjSrc\SrcChartEx\ChartOCX\Include_Chart\ScaleCalculator.cpp

; 224  : 			changePacketData = strMonth + '/' + strDaily;

  0034c	c6 45 fc 0c	 mov	 BYTE PTR __$EHRec$[ebp+8], 12 ; 0000000cH
; File C:\Program Files (x86)\Microsoft Visual Studio\2019\Community\VC\Tools\MSVC\14.29.30133\atlmfc\include\cstringt.h

; 2429 : 		CStringT strResult( str1.GetManager() );

  00350	ff 15 00 00 00
	00		 call	 DWORD PTR __imp_?GetManager@?$CStringT@DV?$StrTraitMFC_DLL@DV?$ChTraitsCRT@D@ATL@@@@@ATL@@QBEPAUIAtlStringMgr@2@XZ
  00356	50		 push	 eax
  00357	8d 4d 0c	 lea	 ecx, DWORD PTR $T7[ebp]
  0035a	ff 15 00 00 00
	00		 call	 DWORD PTR __imp_??0?$CStringT@DV?$StrTraitMFC_DLL@DV?$ChTraitsCRT@D@ATL@@@@@ATL@@QAE@PAUIAtlStringMgr@1@@Z
; File C:\Program Files (x86)\Microsoft Visual Studio\2019\Community\VC\Tools\MSVC\14.29.30133\atlmfc\include\atlsimpstr.h

; 519  : 		return( GetData()->nDataLength );

  00360	8b 45 f0	 mov	 eax, DWORD PTR _strMonth$6[ebp]
; File C:\Program Files (x86)\Microsoft Visual Studio\2019\Community\VC\Tools\MSVC\14.29.30133\atlmfc\include\cstringt.h

; 2432 : 		CThisSimpleString::Concatenate( strResult, str1, str1.GetLength(), &chTemp, 1 );

  00363	8d 4d 13	 lea	 ecx, DWORD PTR _chTemp$21[ebp]
  00366	6a 01		 push	 1
  00368	51		 push	 ecx
  00369	c6 45 13 2f	 mov	 BYTE PTR _chTemp$21[ebp], 47 ; 0000002fH
  0036d	ff 70 f4	 push	 DWORD PTR [eax-12]

; 2433 : 
; 2434 : 		return( strResult );

  00370	c7 45 e4 02 00
	00 00		 mov	 DWORD PTR $T3[ebp], 2
  00377	50		 push	 eax
  00378	8d 45 0c	 lea	 eax, DWORD PTR $T7[ebp]
  0037b	50		 push	 eax
  0037c	ff 15 00 00 00
	00		 call	 DWORD PTR __imp_?Concatenate@?$CSimpleStringT@D$00@ATL@@KAXAAV12@PBDH1H@Z
; File D:\git\src\IBK\IBK_DRFN\ProjSrc\SrcChartEx\ChartOCX\Include_Chart\ScaleCalculator.cpp

; 224  : 			changePacketData = strMonth + '/' + strDaily;

  00382	8d 45 e8	 lea	 eax, DWORD PTR _strDaily$4[ebp]
  00385	50		 push	 eax
  00386	8d 45 0c	 lea	 eax, DWORD PTR $T7[ebp]
  00389	50		 push	 eax
  0038a	8d 45 e0	 lea	 eax, DWORD PTR $T2[ebp]
  0038d	50		 push	 eax
  0038e	e8 00 00 00 00	 call	 ??HATL@@YA?AV?$CStringT@DV?$StrTraitMFC_DLL@DV?$ChTraitsCRT@D@ATL@@@@@0@ABV10@0@Z ; ATL::operator+
  00393	83 c4 20	 add	 esp, 32			; 00000020H
  00396	50		 push	 eax
  00397	8d 4d 14	 lea	 ecx, DWORD PTR _changePacketData$[ebp]
  0039a	c6 45 fc 0d	 mov	 BYTE PTR __$EHRec$[ebp+8], 13 ; 0000000dH
  0039e	ff 15 00 00 00
	00		 call	 DWORD PTR __imp_??4?$CStringT@DV?$StrTraitMFC_DLL@DV?$ChTraitsCRT@D@ATL@@@@@ATL@@QAEAAV01@ABV01@@Z
  003a4	8d 4d e0	 lea	 ecx, DWORD PTR $T2[ebp]
  003a7	ff 15 00 00 00
	00		 call	 DWORD PTR __imp_??1?$CStringT@DV?$StrTraitMFC_DLL@DV?$ChTraitsCRT@D@ATL@@@@@ATL@@QAE@XZ
  003ad	8d 4d 0c	 lea	 ecx, DWORD PTR $T7[ebp]
  003b0	eb 25		 jmp	 SHORT $LN128@GetCompart
$LN11@GetCompart:

; 225  : 		else
; 226  : 			changePacketData = strMonth + strDaily;

  003b2	8d 45 e8	 lea	 eax, DWORD PTR _strDaily$4[ebp]
  003b5	50		 push	 eax
  003b6	8d 45 f0	 lea	 eax, DWORD PTR _strMonth$6[ebp]
  003b9	50		 push	 eax
  003ba	8d 45 10	 lea	 eax, DWORD PTR $T14[ebp]
  003bd	50		 push	 eax
  003be	e8 00 00 00 00	 call	 ??HATL@@YA?AV?$CStringT@DV?$StrTraitMFC_DLL@DV?$ChTraitsCRT@D@ATL@@@@@0@ABV10@0@Z ; ATL::operator+
  003c3	83 c4 0c	 add	 esp, 12			; 0000000cH
  003c6	50		 push	 eax
  003c7	8d 4d 14	 lea	 ecx, DWORD PTR _changePacketData$[ebp]
  003ca	c6 45 fc 0e	 mov	 BYTE PTR __$EHRec$[ebp+8], 14 ; 0000000eH
  003ce	ff 15 00 00 00
	00		 call	 DWORD PTR __imp_??4?$CStringT@DV?$StrTraitMFC_DLL@DV?$ChTraitsCRT@D@ATL@@@@@ATL@@QAEAAV01@ABV01@@Z
  003d4	8d 4d 10	 lea	 ecx, DWORD PTR $T14[ebp]
$LN128@GetCompart:

; 227  : 
; 228  : 		if(dataType.Find('Y') <= 0){	//    

  003d7	c6 45 fc 0b	 mov	 BYTE PTR __$EHRec$[ebp+8], 11 ; 0000000bH
  003db	ff 15 00 00 00
	00		 call	 DWORD PTR __imp_??1?$CStringT@DV?$StrTraitMFC_DLL@DV?$ChTraitsCRT@D@ATL@@@@@ATL@@QAE@XZ
  003e1	6a 00		 push	 0
  003e3	6a 59		 push	 89			; 00000059H
  003e5	8b ce		 mov	 ecx, esi
  003e7	ff 15 00 00 00
	00		 call	 DWORD PTR __imp_?Find@?$CStringT@DV?$StrTraitMFC_DLL@DV?$ChTraitsCRT@D@ATL@@@@@ATL@@QBEHDH@Z
  003ed	85 c0		 test	 eax, eax
  003ef	8b 45 ec	 mov	 eax, DWORD PTR _strYear$5[ebp]
  003f2	7f 7c		 jg	 SHORT $LN13@GetCompart
; File C:\Program Files (x86)\Microsoft Visual Studio\2019\Community\VC\Tools\MSVC\14.29.30133\atlmfc\include\atlsimpstr.h

; 533  : 		return( GetLength() == 0 );

  003f4	83 78 f4 00	 cmp	 DWORD PTR [eax-12], 0
; File D:\git\src\IBK\IBK_DRFN\ProjSrc\SrcChartEx\ChartOCX\Include_Chart\ScaleCalculator.cpp

; 229  : 			if(!strYear.IsEmpty() && !changePacketData.IsEmpty())

  003f8	74 5c		 je	 SHORT $LN15@GetCompart
; File C:\Program Files (x86)\Microsoft Visual Studio\2019\Community\VC\Tools\MSVC\14.29.30133\atlmfc\include\atlsimpstr.h

; 519  : 		return( GetData()->nDataLength );

  003fa	8b 45 14	 mov	 eax, DWORD PTR _changePacketData$[ebp]

; 533  : 		return( GetLength() == 0 );

  003fd	83 78 f4 00	 cmp	 DWORD PTR [eax-12], 0
; File D:\git\src\IBK\IBK_DRFN\ProjSrc\SrcChartEx\ChartOCX\Include_Chart\ScaleCalculator.cpp

; 229  : 			if(!strYear.IsEmpty() && !changePacketData.IsEmpty())

  00401	74 53		 je	 SHORT $LN15@GetCompart
; File C:\Program Files (x86)\Microsoft Visual Studio\2019\Community\VC\Tools\MSVC\14.29.30133\atlmfc\include\cstringt.h

; 2412 : 		CStringT strResult( str2.GetManager() );

  00403	8d 4d 14	 lea	 ecx, DWORD PTR _changePacketData$[ebp]
; File D:\git\src\IBK\IBK_DRFN\ProjSrc\SrcChartEx\ChartOCX\Include_Chart\ScaleCalculator.cpp

; 230  : 				changePacketData = " " + changePacketData;

  00406	c6 45 fc 0f	 mov	 BYTE PTR __$EHRec$[ebp+8], 15 ; 0000000fH
; File C:\Program Files (x86)\Microsoft Visual Studio\2019\Community\VC\Tools\MSVC\14.29.30133\atlmfc\include\cstringt.h

; 2412 : 		CStringT strResult( str2.GetManager() );

  0040a	ff 15 00 00 00
	00		 call	 DWORD PTR __imp_?GetManager@?$CStringT@DV?$StrTraitMFC_DLL@DV?$ChTraitsCRT@D@ATL@@@@@ATL@@QBEPAUIAtlStringMgr@2@XZ
  00410	50		 push	 eax
  00411	8d 4d 10	 lea	 ecx, DWORD PTR $T13[ebp]
  00414	ff 15 00 00 00
	00		 call	 DWORD PTR __imp_??0?$CStringT@DV?$StrTraitMFC_DLL@DV?$ChTraitsCRT@D@ATL@@@@@ATL@@QAE@PAUIAtlStringMgr@1@@Z
; File C:\Program Files (x86)\Microsoft Visual Studio\2019\Community\VC\Tools\MSVC\14.29.30133\atlmfc\include\atlsimpstr.h

; 519  : 		return( GetData()->nDataLength );

  0041a	8b 45 14	 mov	 eax, DWORD PTR _changePacketData$[ebp]
; File C:\Program Files (x86)\Microsoft Visual Studio\2019\Community\VC\Tools\MSVC\14.29.30133\atlmfc\include\cstringt.h

; 2416 : 		return( strResult );

  0041d	c7 45 e4 04 00
	00 00		 mov	 DWORD PTR $T3[ebp], 4
  00424	ff 70 f4	 push	 DWORD PTR [eax-12]
  00427	50		 push	 eax
  00428	6a 01		 push	 1
  0042a	8d 45 10	 lea	 eax, DWORD PTR $T13[ebp]
  0042d	68 00 00 00 00	 push	 OFFSET ??_C@_01CLKCMJKC@?5@
  00432	50		 push	 eax
  00433	ff 15 00 00 00
	00		 call	 DWORD PTR __imp_?Concatenate@?$CSimpleStringT@D$00@ATL@@KAXAAV12@PBDH1H@Z
  00439	83 c4 14	 add	 esp, 20			; 00000014H
; File D:\git\src\IBK\IBK_DRFN\ProjSrc\SrcChartEx\ChartOCX\Include_Chart\ScaleCalculator.cpp

; 230  : 				changePacketData = " " + changePacketData;

  0043c	8d 45 10	 lea	 eax, DWORD PTR $T13[ebp]
  0043f	8d 4d 14	 lea	 ecx, DWORD PTR _changePacketData$[ebp]
  00442	50		 push	 eax
  00443	ff 15 00 00 00
	00		 call	 DWORD PTR __imp_??4?$CStringT@DV?$StrTraitMFC_DLL@DV?$ChTraitsCRT@D@ATL@@@@@ATL@@QAEAAV01@ABV01@@Z
  00449	8d 4d 10	 lea	 ecx, DWORD PTR $T13[ebp]
  0044c	c6 45 fc 0b	 mov	 BYTE PTR __$EHRec$[ebp+8], 11 ; 0000000bH
  00450	ff 15 00 00 00
	00		 call	 DWORD PTR __imp_??1?$CStringT@DV?$StrTraitMFC_DLL@DV?$ChTraitsCRT@D@ATL@@@@@ATL@@QAE@XZ
$LN15@GetCompart:

; 231  : 			changePacketData = strYear + changePacketData;

  00456	8d 45 14	 lea	 eax, DWORD PTR _changePacketData$[ebp]
  00459	50		 push	 eax
  0045a	8d 45 ec	 lea	 eax, DWORD PTR _strYear$5[ebp]
  0045d	50		 push	 eax
  0045e	8d 45 10	 lea	 eax, DWORD PTR $T12[ebp]
  00461	50		 push	 eax
  00462	e8 00 00 00 00	 call	 ??HATL@@YA?AV?$CStringT@DV?$StrTraitMFC_DLL@DV?$ChTraitsCRT@D@ATL@@@@@0@ABV10@0@Z ; ATL::operator+
  00467	83 c4 0c	 add	 esp, 12			; 0000000cH
  0046a	c6 45 fc 10	 mov	 BYTE PTR __$EHRec$[ebp+8], 16 ; 00000010H

; 232  : 		}

  0046e	eb 7a		 jmp	 SHORT $LN129@GetCompart
$LN13@GetCompart:
; File C:\Program Files (x86)\Microsoft Visual Studio\2019\Community\VC\Tools\MSVC\14.29.30133\atlmfc\include\atlsimpstr.h

; 533  : 		return( GetLength() == 0 );

  00470	83 78 f4 00	 cmp	 DWORD PTR [eax-12], 0
; File D:\git\src\IBK\IBK_DRFN\ProjSrc\SrcChartEx\ChartOCX\Include_Chart\ScaleCalculator.cpp

; 234  : 			if(!strYear.IsEmpty() && !changePacketData.IsEmpty())

  00474	74 5c		 je	 SHORT $LN16@GetCompart
; File C:\Program Files (x86)\Microsoft Visual Studio\2019\Community\VC\Tools\MSVC\14.29.30133\atlmfc\include\atlsimpstr.h

; 519  : 		return( GetData()->nDataLength );

  00476	8b 45 14	 mov	 eax, DWORD PTR _changePacketData$[ebp]

; 533  : 		return( GetLength() == 0 );

  00479	83 78 f4 00	 cmp	 DWORD PTR [eax-12], 0
; File D:\git\src\IBK\IBK_DRFN\ProjSrc\SrcChartEx\ChartOCX\Include_Chart\ScaleCalculator.cpp

; 234  : 			if(!strYear.IsEmpty() && !changePacketData.IsEmpty())

  0047d	74 53		 je	 SHORT $LN16@GetCompart
; File C:\Program Files (x86)\Microsoft Visual Studio\2019\Community\VC\Tools\MSVC\14.29.30133\atlmfc\include\cstringt.h

; 2401 : 		CStringT strResult( str1.GetManager() );

  0047f	8d 4d 14	 lea	 ecx, DWORD PTR _changePacketData$[ebp]
; File D:\git\src\IBK\IBK_DRFN\ProjSrc\SrcChartEx\ChartOCX\Include_Chart\ScaleCalculator.cpp

; 235  : 				changePacketData = changePacketData + " ";

  00482	c6 45 fc 11	 mov	 BYTE PTR __$EHRec$[ebp+8], 17 ; 00000011H
; File C:\Program Files (x86)\Microsoft Visual Studio\2019\Community\VC\Tools\MSVC\14.29.30133\atlmfc\include\cstringt.h

; 2401 : 		CStringT strResult( str1.GetManager() );

  00486	ff 15 00 00 00
	00		 call	 DWORD PTR __imp_?GetManager@?$CStringT@DV?$StrTraitMFC_DLL@DV?$ChTraitsCRT@D@ATL@@@@@ATL@@QBEPAUIAtlStringMgr@2@XZ
  0048c	50		 push	 eax
  0048d	8d 4d 10	 lea	 ecx, DWORD PTR $T11[ebp]
  00490	ff 15 00 00 00
	00		 call	 DWORD PTR __imp_??0?$CStringT@DV?$StrTraitMFC_DLL@DV?$ChTraitsCRT@D@ATL@@@@@ATL@@QAE@PAUIAtlStringMgr@1@@Z
; File C:\Program Files (x86)\Microsoft Visual Studio\2019\Community\VC\Tools\MSVC\14.29.30133\atlmfc\include\atlsimpstr.h

; 519  : 		return( GetData()->nDataLength );

  00496	8b 45 14	 mov	 eax, DWORD PTR _changePacketData$[ebp]
; File C:\Program Files (x86)\Microsoft Visual Studio\2019\Community\VC\Tools\MSVC\14.29.30133\atlmfc\include\cstringt.h

; 2403 : 		CThisSimpleString::Concatenate( strResult, str1, str1.GetLength(), psz2, CThisSimpleString::StringLength( psz2 ) );

  00499	6a 01		 push	 1
  0049b	68 00 00 00 00	 push	 OFFSET ??_C@_01CLKCMJKC@?5@

; 2404 : 
; 2405 : 		return( strResult );

  004a0	c7 45 e4 08 00
	00 00		 mov	 DWORD PTR $T3[ebp], 8
  004a7	ff 70 f4	 push	 DWORD PTR [eax-12]
  004aa	50		 push	 eax
  004ab	8d 45 10	 lea	 eax, DWORD PTR $T11[ebp]
  004ae	50		 push	 eax
  004af	ff 15 00 00 00
	00		 call	 DWORD PTR __imp_?Concatenate@?$CSimpleStringT@D$00@ATL@@KAXAAV12@PBDH1H@Z
  004b5	83 c4 14	 add	 esp, 20			; 00000014H
; File D:\git\src\IBK\IBK_DRFN\ProjSrc\SrcChartEx\ChartOCX\Include_Chart\ScaleCalculator.cpp

; 235  : 				changePacketData = changePacketData + " ";

  004b8	8d 45 10	 lea	 eax, DWORD PTR $T11[ebp]
  004bb	8d 4d 14	 lea	 ecx, DWORD PTR _changePacketData$[ebp]
  004be	50		 push	 eax
  004bf	ff 15 00 00 00
	00		 call	 DWORD PTR __imp_??4?$CStringT@DV?$StrTraitMFC_DLL@DV?$ChTraitsCRT@D@ATL@@@@@ATL@@QAEAAV01@ABV01@@Z
  004c5	8d 4d 10	 lea	 ecx, DWORD PTR $T11[ebp]
  004c8	c6 45 fc 0b	 mov	 BYTE PTR __$EHRec$[ebp+8], 11 ; 0000000bH
  004cc	ff 15 00 00 00
	00		 call	 DWORD PTR __imp_??1?$CStringT@DV?$StrTraitMFC_DLL@DV?$ChTraitsCRT@D@ATL@@@@@ATL@@QAE@XZ
$LN16@GetCompart:

; 236  : 			changePacketData = changePacketData + strYear;

  004d2	8d 45 ec	 lea	 eax, DWORD PTR _strYear$5[ebp]
  004d5	50		 push	 eax
  004d6	8d 45 14	 lea	 eax, DWORD PTR _changePacketData$[ebp]
  004d9	50		 push	 eax
  004da	8d 45 10	 lea	 eax, DWORD PTR $T10[ebp]
  004dd	50		 push	 eax
  004de	e8 00 00 00 00	 call	 ??HATL@@YA?AV?$CStringT@DV?$StrTraitMFC_DLL@DV?$ChTraitsCRT@D@ATL@@@@@0@ABV10@0@Z ; ATL::operator+
  004e3	83 c4 0c	 add	 esp, 12			; 0000000cH
  004e6	c6 45 fc 12	 mov	 BYTE PTR __$EHRec$[ebp+8], 18 ; 00000012H
$LN129@GetCompart:

; 237  : 		}
; 238  : 	}

  004ea	50		 push	 eax
  004eb	8d 4d 14	 lea	 ecx, DWORD PTR _changePacketData$[ebp]
  004ee	ff 15 00 00 00
	00		 call	 DWORD PTR __imp_??4?$CStringT@DV?$StrTraitMFC_DLL@DV?$ChTraitsCRT@D@ATL@@@@@ATL@@QAEAAV01@ABV01@@Z
  004f4	8d 4d 10	 lea	 ecx, DWORD PTR $T10[ebp]
  004f7	ff 15 00 00 00
	00		 call	 DWORD PTR __imp_??1?$CStringT@DV?$StrTraitMFC_DLL@DV?$ChTraitsCRT@D@ATL@@@@@ATL@@QAE@XZ
  004fd	8d 4d e8	 lea	 ecx, DWORD PTR _strDaily$4[ebp]
  00500	ff 15 00 00 00
	00		 call	 DWORD PTR __imp_??1?$CStringT@DV?$StrTraitMFC_DLL@DV?$ChTraitsCRT@D@ATL@@@@@ATL@@QAE@XZ
  00506	8d 4d f0	 lea	 ecx, DWORD PTR _strMonth$6[ebp]
  00509	ff 15 00 00 00
	00		 call	 DWORD PTR __imp_??1?$CStringT@DV?$StrTraitMFC_DLL@DV?$ChTraitsCRT@D@ATL@@@@@ATL@@QAE@XZ
  0050f	8d 4d ec	 lea	 ecx, DWORD PTR _strYear$5[ebp]
$LN127@GetCompart:

; 239  : 
; 240  : 	return changePacketData;

  00512	c6 45 fc 00	 mov	 BYTE PTR __$EHRec$[ebp+8], 0
  00516	ff 15 00 00 00
	00		 call	 DWORD PTR __imp_??1?$CStringT@DV?$StrTraitMFC_DLL@DV?$ChTraitsCRT@D@ATL@@@@@ATL@@QAE@XZ
$LN8@GetCompart:
  0051c	8b 4d 08	 mov	 ecx, DWORD PTR ___$ReturnUdt$[ebp]
  0051f	8d 45 14	 lea	 eax, DWORD PTR _changePacketData$[ebp]
  00522	50		 push	 eax
  00523	ff 15 00 00 00
	00		 call	 DWORD PTR __imp_??0?$CStringT@DV?$StrTraitMFC_DLL@DV?$ChTraitsCRT@D@ATL@@@@@ATL@@QAE@ABV01@@Z
  00529	8d 4d 14	 lea	 ecx, DWORD PTR _changePacketData$[ebp]
  0052c	ff 15 00 00 00
	00		 call	 DWORD PTR __imp_??1?$CStringT@DV?$StrTraitMFC_DLL@DV?$ChTraitsCRT@D@ATL@@@@@ATL@@QAE@XZ
$LN125@GetCompart:

; 241  : }

  00532	8b 45 08	 mov	 eax, DWORD PTR ___$ReturnUdt$[ebp]
  00535	8b 4d f4	 mov	 ecx, DWORD PTR __$EHRec$[ebp]
  00538	64 89 0d 00 00
	00 00		 mov	 DWORD PTR fs:0, ecx
  0053f	59		 pop	 ecx
  00540	5f		 pop	 edi
  00541	5e		 pop	 esi
  00542	5b		 pop	 ebx
  00543	8b e5		 mov	 esp, ebp
  00545	5d		 pop	 ebp
  00546	c2 10 00	 ret	 16			; 00000010H
_TEXT	ENDS
;	COMDAT text$x
text$x	SEGMENT
__unwindfunclet$?GetCompartScaleDate@CScaleCalculator@@AAE?AV?$CStringT@DV?$StrTraitMFC_DLL@DV?$ChTraitsCRT@D@ATL@@@@@ATL@@ABV23@00@Z$1:
  00000	8d 4d 14	 lea	 ecx, DWORD PTR _changePacketData$[ebp]
  00003	ff 25 00 00 00
	00		 jmp	 DWORD PTR __imp_??1?$CStringT@DV?$StrTraitMFC_DLL@DV?$ChTraitsCRT@D@ATL@@@@@ATL@@QAE@XZ
__unwindfunclet$?GetCompartScaleDate@CScaleCalculator@@AAE?AV?$CStringT@DV?$StrTraitMFC_DLL@DV?$ChTraitsCRT@D@ATL@@@@@ATL@@ABV23@00@Z$2:
  00009	8d 4d 10	 lea	 ecx, DWORD PTR $T20[ebp]
  0000c	ff 25 00 00 00
	00		 jmp	 DWORD PTR __imp_??1?$CStringT@DV?$StrTraitMFC_DLL@DV?$ChTraitsCRT@D@ATL@@@@@ATL@@QAE@XZ
__unwindfunclet$?GetCompartScaleDate@CScaleCalculator@@AAE?AV?$CStringT@DV?$StrTraitMFC_DLL@DV?$ChTraitsCRT@D@ATL@@@@@ATL@@ABV23@00@Z$3:
  00012	8d 4d 10	 lea	 ecx, DWORD PTR $T19[ebp]
  00015	ff 25 00 00 00
	00		 jmp	 DWORD PTR __imp_??1?$CStringT@DV?$StrTraitMFC_DLL@DV?$ChTraitsCRT@D@ATL@@@@@ATL@@QAE@XZ
__unwindfunclet$?GetCompartScaleDate@CScaleCalculator@@AAE?AV?$CStringT@DV?$StrTraitMFC_DLL@DV?$ChTraitsCRT@D@ATL@@@@@ATL@@ABV23@00@Z$4:
  0001b	8d 4d 10	 lea	 ecx, DWORD PTR $T18[ebp]
  0001e	ff 25 00 00 00
	00		 jmp	 DWORD PTR __imp_??1?$CStringT@DV?$StrTraitMFC_DLL@DV?$ChTraitsCRT@D@ATL@@@@@ATL@@QAE@XZ
__unwindfunclet$?GetCompartScaleDate@CScaleCalculator@@AAE?AV?$CStringT@DV?$StrTraitMFC_DLL@DV?$ChTraitsCRT@D@ATL@@@@@ATL@@ABV23@00@Z$5:
  00024	8d 4d 10	 lea	 ecx, DWORD PTR $T17[ebp]
  00027	ff 25 00 00 00
	00		 jmp	 DWORD PTR __imp_??1?$CStringT@DV?$StrTraitMFC_DLL@DV?$ChTraitsCRT@D@ATL@@@@@ATL@@QAE@XZ
__unwindfunclet$?GetCompartScaleDate@CScaleCalculator@@AAE?AV?$CStringT@DV?$StrTraitMFC_DLL@DV?$ChTraitsCRT@D@ATL@@@@@ATL@@ABV23@00@Z$6:
  0002d	8d 4d 10	 lea	 ecx, DWORD PTR $T16[ebp]
  00030	ff 25 00 00 00
	00		 jmp	 DWORD PTR __imp_??1?$CStringT@DV?$StrTraitMFC_DLL@DV?$ChTraitsCRT@D@ATL@@@@@ATL@@QAE@XZ
__unwindfunclet$?GetCompartScaleDate@CScaleCalculator@@AAE?AV?$CStringT@DV?$StrTraitMFC_DLL@DV?$ChTraitsCRT@D@ATL@@@@@ATL@@ABV23@00@Z$7:
  00036	8d 4d 10	 lea	 ecx, DWORD PTR $T15[ebp]
  00039	ff 25 00 00 00
	00		 jmp	 DWORD PTR __imp_??1?$CStringT@DV?$StrTraitMFC_DLL@DV?$ChTraitsCRT@D@ATL@@@@@ATL@@QAE@XZ
__unwindfunclet$?GetCompartScaleDate@CScaleCalculator@@AAE?AV?$CStringT@DV?$StrTraitMFC_DLL@DV?$ChTraitsCRT@D@ATL@@@@@ATL@@ABV23@00@Z$8:
  0003f	8d 4d ec	 lea	 ecx, DWORD PTR _strYear$5[ebp]
  00042	ff 25 00 00 00
	00		 jmp	 DWORD PTR __imp_??1?$CStringT@DV?$StrTraitMFC_DLL@DV?$ChTraitsCRT@D@ATL@@@@@ATL@@QAE@XZ
__unwindfunclet$?GetCompartScaleDate@CScaleCalculator@@AAE?AV?$CStringT@DV?$StrTraitMFC_DLL@DV?$ChTraitsCRT@D@ATL@@@@@ATL@@ABV23@00@Z$9:
  00048	8d 4d 0c	 lea	 ecx, DWORD PTR $T8[ebp]
  0004b	ff 25 00 00 00
	00		 jmp	 DWORD PTR __imp_??1?$CStringT@DV?$StrTraitMFC_DLL@DV?$ChTraitsCRT@D@ATL@@@@@ATL@@QAE@XZ
__unwindfunclet$?GetCompartScaleDate@CScaleCalculator@@AAE?AV?$CStringT@DV?$StrTraitMFC_DLL@DV?$ChTraitsCRT@D@ATL@@@@@ATL@@ABV23@00@Z$10:
  00051	8d 4d f0	 lea	 ecx, DWORD PTR _strMonth$6[ebp]
  00054	ff 25 00 00 00
	00		 jmp	 DWORD PTR __imp_??1?$CStringT@DV?$StrTraitMFC_DLL@DV?$ChTraitsCRT@D@ATL@@@@@ATL@@QAE@XZ
__unwindfunclet$?GetCompartScaleDate@CScaleCalculator@@AAE?AV?$CStringT@DV?$StrTraitMFC_DLL@DV?$ChTraitsCRT@D@ATL@@@@@ATL@@ABV23@00@Z$11:
  0005a	8d 4d e8	 lea	 ecx, DWORD PTR _strDaily$4[ebp]
  0005d	ff 25 00 00 00
	00		 jmp	 DWORD PTR __imp_??1?$CStringT@DV?$StrTraitMFC_DLL@DV?$ChTraitsCRT@D@ATL@@@@@ATL@@QAE@XZ
__unwindfunclet$?GetCompartScaleDate@CScaleCalculator@@AAE?AV?$CStringT@DV?$StrTraitMFC_DLL@DV?$ChTraitsCRT@D@ATL@@@@@ATL@@ABV23@00@Z$19:
  00063	8b 45 e4	 mov	 eax, DWORD PTR $T3[ebp]
  00066	83 e0 02	 and	 eax, 2
  00069	0f 84 0d 00 00
	00		 je	 $LN67@GetCompart
  0006f	83 65 e4 fd	 and	 DWORD PTR $T3[ebp], -3	; fffffffdH
  00073	8d 4d 0c	 lea	 ecx, DWORD PTR $T7[ebp]
  00076	ff 25 00 00 00
	00		 jmp	 DWORD PTR __imp_??1?$CStringT@DV?$StrTraitMFC_DLL@DV?$ChTraitsCRT@D@ATL@@@@@ATL@@QAE@XZ
$LN67@GetCompart:
  0007c	c3		 ret	 0
__unwindfunclet$?GetCompartScaleDate@CScaleCalculator@@AAE?AV?$CStringT@DV?$StrTraitMFC_DLL@DV?$ChTraitsCRT@D@ATL@@@@@ATL@@ABV23@00@Z$13:
  0007d	8d 4d e0	 lea	 ecx, DWORD PTR $T2[ebp]
  00080	ff 25 00 00 00
	00		 jmp	 DWORD PTR __imp_??1?$CStringT@DV?$StrTraitMFC_DLL@DV?$ChTraitsCRT@D@ATL@@@@@ATL@@QAE@XZ
__unwindfunclet$?GetCompartScaleDate@CScaleCalculator@@AAE?AV?$CStringT@DV?$StrTraitMFC_DLL@DV?$ChTraitsCRT@D@ATL@@@@@ATL@@ABV23@00@Z$14:
  00086	8d 4d 10	 lea	 ecx, DWORD PTR $T14[ebp]
  00089	ff 25 00 00 00
	00		 jmp	 DWORD PTR __imp_??1?$CStringT@DV?$StrTraitMFC_DLL@DV?$ChTraitsCRT@D@ATL@@@@@ATL@@QAE@XZ
__unwindfunclet$?GetCompartScaleDate@CScaleCalculator@@AAE?AV?$CStringT@DV?$StrTraitMFC_DLL@DV?$ChTraitsCRT@D@ATL@@@@@ATL@@ABV23@00@Z$20:
  0008f	8b 45 e4	 mov	 eax, DWORD PTR $T3[ebp]
  00092	83 e0 04	 and	 eax, 4
  00095	0f 84 0d 00 00
	00		 je	 $LN89@GetCompart
  0009b	83 65 e4 fb	 and	 DWORD PTR $T3[ebp], -5	; fffffffbH
  0009f	8d 4d 10	 lea	 ecx, DWORD PTR $T13[ebp]
  000a2	ff 25 00 00 00
	00		 jmp	 DWORD PTR __imp_??1?$CStringT@DV?$StrTraitMFC_DLL@DV?$ChTraitsCRT@D@ATL@@@@@ATL@@QAE@XZ
$LN89@GetCompart:
  000a8	c3		 ret	 0
__unwindfunclet$?GetCompartScaleDate@CScaleCalculator@@AAE?AV?$CStringT@DV?$StrTraitMFC_DLL@DV?$ChTraitsCRT@D@ATL@@@@@ATL@@ABV23@00@Z$16:
  000a9	8d 4d 10	 lea	 ecx, DWORD PTR $T12[ebp]
  000ac	ff 25 00 00 00
	00		 jmp	 DWORD PTR __imp_??1?$CStringT@DV?$StrTraitMFC_DLL@DV?$ChTraitsCRT@D@ATL@@@@@ATL@@QAE@XZ
__unwindfunclet$?GetCompartScaleDate@CScaleCalculator@@AAE?AV?$CStringT@DV?$StrTraitMFC_DLL@DV?$ChTraitsCRT@D@ATL@@@@@ATL@@ABV23@00@Z$21:
  000b2	8b 45 e4	 mov	 eax, DWORD PTR $T3[ebp]
  000b5	83 e0 08	 and	 eax, 8
  000b8	0f 84 0d 00 00
	00		 je	 $LN114@GetCompart
  000be	83 65 e4 f7	 and	 DWORD PTR $T3[ebp], -9	; fffffff7H
  000c2	8d 4d 10	 lea	 ecx, DWORD PTR $T11[ebp]
  000c5	ff 25 00 00 00
	00		 jmp	 DWORD PTR __imp_??1?$CStringT@DV?$StrTraitMFC_DLL@DV?$ChTraitsCRT@D@ATL@@@@@ATL@@QAE@XZ
$LN114@GetCompart:
  000cb	c3		 ret	 0
__unwindfunclet$?GetCompartScaleDate@CScaleCalculator@@AAE?AV?$CStringT@DV?$StrTraitMFC_DLL@DV?$ChTraitsCRT@D@ATL@@@@@ATL@@ABV23@00@Z$18:
  000cc	8d 4d 10	 lea	 ecx, DWORD PTR $T10[ebp]
  000cf	ff 25 00 00 00
	00		 jmp	 DWORD PTR __imp_??1?$CStringT@DV?$StrTraitMFC_DLL@DV?$ChTraitsCRT@D@ATL@@@@@ATL@@QAE@XZ
  000d5	cc		 int	 3
  000d6	cc		 int	 3
  000d7	cc		 int	 3
  000d8	cc		 int	 3
  000d9	cc		 int	 3
__ehhandler$?GetCompartScaleDate@CScaleCalculator@@AAE?AV?$CStringT@DV?$StrTraitMFC_DLL@DV?$ChTraitsCRT@D@ATL@@@@@ATL@@ABV23@00@Z:
  000da	90		 npad	 1
  000db	90		 npad	 1
  000dc	8b 54 24 08	 mov	 edx, DWORD PTR [esp+8]
  000e0	8d 42 0c	 lea	 eax, DWORD PTR [edx+12]
  000e3	8b 4a dc	 mov	 ecx, DWORD PTR [edx-36]
  000e6	33 c8		 xor	 ecx, eax
  000e8	e8 00 00 00 00	 call	 @__security_check_cookie@4
  000ed	b8 00 00 00 00	 mov	 eax, OFFSET __ehfuncinfo$?GetCompartScaleDate@CScaleCalculator@@AAE?AV?$CStringT@DV?$StrTraitMFC_DLL@DV?$ChTraitsCRT@D@ATL@@@@@ATL@@ABV23@00@Z
  000f2	e9 00 00 00 00	 jmp	 ___CxxFrameHandler3
text$x	ENDS
?GetCompartScaleDate@CScaleCalculator@@AAE?AV?$CStringT@DV?$StrTraitMFC_DLL@DV?$ChTraitsCRT@D@ATL@@@@@ATL@@ABV23@00@Z ENDP ; CScaleCalculator::GetCompartScaleDate
; Function compile flags: /Ogtp
; File D:\git\src\IBK\IBK_DRFN\ProjSrc\SrcChartEx\ChartOCX\Include_Chart\ScaleCalculator.cpp
; File C:\Program Files (x86)\Microsoft Visual Studio\2019\Community\VC\Tools\MSVC\14.29.30133\atlmfc\include\atlsimpstr.h
; File D:\git\src\IBK\IBK_DRFN\ProjSrc\SrcChartEx\ChartOCX\Include_Chart\ScaleCalculator.cpp
; File C:\Program Files (x86)\Microsoft Visual Studio\2019\Community\VC\Tools\MSVC\14.29.30133\atlmfc\include\atlsimpstr.h
; File D:\git\src\IBK\IBK_DRFN\ProjSrc\SrcChartEx\ChartOCX\Include_Chart\ScaleCalculator.cpp
; File C:\Program Files (x86)\Microsoft Visual Studio\2019\Community\VC\Tools\MSVC\14.29.30133\atlmfc\include\atlsimpstr.h
; File D:\git\src\IBK\IBK_DRFN\ProjSrc\SrcChartEx\ChartOCX\Include_Chart\ScaleCalculator.cpp
; File C:\Program Files (x86)\Microsoft Visual Studio\2019\Community\VC\Tools\MSVC\14.29.30133\atlmfc\include\atlsimpstr.h
; File D:\git\src\IBK\IBK_DRFN\ProjSrc\SrcChartEx\ChartOCX\Include_Chart\ScaleCalculator.cpp
; File C:\Program Files (x86)\Microsoft Visual Studio\2019\Community\VC\Tools\MSVC\14.29.30133\atlmfc\include\atlsimpstr.h
; File D:\git\src\IBK\IBK_DRFN\ProjSrc\SrcChartEx\ChartOCX\Include_Chart\ScaleCalculator.cpp
;	COMDAT ?GetCompartScaleDateTime@CScaleCalculator@@AAEXABV?$CStringT@DV?$StrTraitMFC_DLL@DV?$ChTraitsCRT@D@ATL@@@@@ATL@@0ABVCScaleCompart@@AAV23@2@Z
_TEXT	SEGMENT
_datePos$1$ = -44					; size = 4
$T2 = -44						; size = 4
$T3 = -40						; size = 4
$T4 = -36						; size = 4
$T5 = -32						; size = 4
_packetData_time$ = -28					; size = 4
_dataType_time$ = -24					; size = 4
$T6 = -20						; size = 4
_this$1$ = -16						; size = 4
__$EHRec$ = -12						; size = 12
$T7 = 8							; size = 4
_packetData$ = 8					; size = 4
$T8 = 12						; size = 4
_dataType$ = 12						; size = 4
$T9 = 16						; size = 4
_scaleCompart$ = 16					; size = 4
$T10 = 20						; size = 4
_strData_date$ = 20					; size = 4
_strData_time$ = 24					; size = 4
?GetCompartScaleDateTime@CScaleCalculator@@AAEXABV?$CStringT@DV?$StrTraitMFC_DLL@DV?$ChTraitsCRT@D@ATL@@@@@ATL@@0ABVCScaleCompart@@AAV23@2@Z PROC ; CScaleCalculator::GetCompartScaleDateTime, COMDAT
; _this$ = ecx

; 167  : {

  00000	55		 push	 ebp
  00001	8b ec		 mov	 ebp, esp
  00003	6a ff		 push	 -1
  00005	68 00 00 00 00	 push	 __ehhandler$?GetCompartScaleDateTime@CScaleCalculator@@AAEXABV?$CStringT@DV?$StrTraitMFC_DLL@DV?$ChTraitsCRT@D@ATL@@@@@ATL@@0ABVCScaleCompart@@AAV23@2@Z
  0000a	64 a1 00 00 00
	00		 mov	 eax, DWORD PTR fs:0
  00010	50		 push	 eax
  00011	83 ec 20	 sub	 esp, 32			; 00000020H
  00014	53		 push	 ebx
  00015	56		 push	 esi
  00016	57		 push	 edi
  00017	a1 00 00 00 00	 mov	 eax, DWORD PTR ___security_cookie
  0001c	33 c5		 xor	 eax, ebp
  0001e	50		 push	 eax
  0001f	8d 45 f4	 lea	 eax, DWORD PTR __$EHRec$[ebp]
  00022	64 a3 00 00 00
	00		 mov	 DWORD PTR fs:0, eax
  00028	89 4d f0	 mov	 DWORD PTR _this$1$[ebp], ecx

; 168  : 	strData_date = strData_time = "";

  0002b	8b 5d 18	 mov	 ebx, DWORD PTR _strData_time$[ebp]
  0002e	8b cb		 mov	 ecx, ebx
  00030	68 00 00 00 00	 push	 OFFSET ??_C@_00CNPNBAHC@@
  00035	ff 15 00 00 00
	00		 call	 DWORD PTR __imp_??4?$CStringT@DV?$StrTraitMFC_DLL@DV?$ChTraitsCRT@D@ATL@@@@@ATL@@QAEAAV01@PBD@Z
  0003b	8b 4d 14	 mov	 ecx, DWORD PTR _strData_date$[ebp]
  0003e	50		 push	 eax
  0003f	ff 15 00 00 00
	00		 call	 DWORD PTR __imp_??4?$CStringT@DV?$StrTraitMFC_DLL@DV?$ChTraitsCRT@D@ATL@@@@@ATL@@QAEAAV01@ABV01@@Z

; 169  : 	int datePos = dataType.ReverseFind('D');

  00045	8b 7d 0c	 mov	 edi, DWORD PTR _dataType$[ebp]
  00048	8b cf		 mov	 ecx, edi
  0004a	6a 44		 push	 68			; 00000044H
  0004c	ff 15 00 00 00
	00		 call	 DWORD PTR __imp_?ReverseFind@?$CStringT@DV?$StrTraitMFC_DLL@DV?$ChTraitsCRT@D@ATL@@@@@ATL@@QBEHD@Z

; 170  : 	if(datePos < 0){

  00052	8b 4d 10	 mov	 ecx, DWORD PTR _scaleCompart$[ebp]
  00055	8b f0		 mov	 esi, eax
  00057	89 75 d4	 mov	 DWORD PTR _datePos$1$[ebp], esi
  0005a	85 f6		 test	 esi, esi
  0005c	79 40		 jns	 SHORT $LN2@GetCompart

; 171  : 		strData_time = GetCompartScaleTime(packetData, dataType, scaleCompart.GetTimeCompart());

  0005e	8d 45 14	 lea	 eax, DWORD PTR $T10[ebp]
  00061	50		 push	 eax
  00062	ff 15 00 00 00
	00		 call	 DWORD PTR __imp_?GetTimeCompart@CScaleCompart@@QBE?AV?$CStringT@DV?$StrTraitMFC_DLL@DV?$ChTraitsCRT@D@ATL@@@@@ATL@@XZ
  00068	8b 4d f0	 mov	 ecx, DWORD PTR _this$1$[ebp]
  0006b	50		 push	 eax
  0006c	57		 push	 edi
  0006d	ff 75 08	 push	 DWORD PTR _packetData$[ebp]
  00070	8d 45 10	 lea	 eax, DWORD PTR $T9[ebp]
  00073	c7 45 fc 00 00
	00 00		 mov	 DWORD PTR __$EHRec$[ebp+8], 0
  0007a	50		 push	 eax
  0007b	e8 00 00 00 00	 call	 ?GetCompartScaleTime@CScaleCalculator@@AAE?AV?$CStringT@DV?$StrTraitMFC_DLL@DV?$ChTraitsCRT@D@ATL@@@@@ATL@@ABV23@00@Z ; CScaleCalculator::GetCompartScaleTime
  00080	50		 push	 eax
  00081	8b cb		 mov	 ecx, ebx
  00083	c6 45 fc 01	 mov	 BYTE PTR __$EHRec$[ebp+8], 1
  00087	ff 15 00 00 00
	00		 call	 DWORD PTR __imp_??4?$CStringT@DV?$StrTraitMFC_DLL@DV?$ChTraitsCRT@D@ATL@@@@@ATL@@QAEAAV01@ABV01@@Z
  0008d	8d 4d 10	 lea	 ecx, DWORD PTR $T9[ebp]
  00090	ff 15 00 00 00
	00		 call	 DWORD PTR __imp_??1?$CStringT@DV?$StrTraitMFC_DLL@DV?$ChTraitsCRT@D@ATL@@@@@ATL@@QAE@XZ
  00096	8d 4d 14	 lea	 ecx, DWORD PTR $T10[ebp]

; 172  : 		return;

  00099	e9 2f 01 00 00	 jmp	 $LN32@GetCompart
$LN2@GetCompart:

; 175  : 	strData_date = GetCompartScaleData_Date(packetData.Left(datePos +1), dataType.Left(datePos +1), scaleCompart.GetDateCompart());

  0009e	8d 45 d8	 lea	 eax, DWORD PTR $T3[ebp]
  000a1	50		 push	 eax
  000a2	ff 15 00 00 00
	00		 call	 DWORD PTR __imp_?GetDateCompart@CScaleCompart@@QBE?AV?$CStringT@DV?$StrTraitMFC_DLL@DV?$ChTraitsCRT@D@ATL@@@@@ATL@@XZ
  000a8	8b d8		 mov	 ebx, eax
  000aa	46		 inc	 esi
  000ab	c7 45 fc 02 00
	00 00		 mov	 DWORD PTR __$EHRec$[ebp+8], 2
  000b2	56		 push	 esi
  000b3	8d 45 dc	 lea	 eax, DWORD PTR $T4[ebp]
  000b6	8b cf		 mov	 ecx, edi
  000b8	50		 push	 eax
  000b9	ff 15 00 00 00
	00		 call	 DWORD PTR __imp_?Left@?$CStringT@DV?$StrTraitMFC_DLL@DV?$ChTraitsCRT@D@ATL@@@@@ATL@@QBE?AV12@H@Z
  000bf	8b f8		 mov	 edi, eax
  000c1	56		 push	 esi
  000c2	8b 75 08	 mov	 esi, DWORD PTR _packetData$[ebp]
  000c5	8d 45 e0	 lea	 eax, DWORD PTR $T5[ebp]
  000c8	50		 push	 eax
  000c9	8b ce		 mov	 ecx, esi
  000cb	c6 45 fc 03	 mov	 BYTE PTR __$EHRec$[ebp+8], 3
  000cf	ff 15 00 00 00
	00		 call	 DWORD PTR __imp_?Left@?$CStringT@DV?$StrTraitMFC_DLL@DV?$ChTraitsCRT@D@ATL@@@@@ATL@@QBE?AV12@H@Z
; File C:\Program Files (x86)\Microsoft Visual Studio\2019\Community\VC\Tools\MSVC\14.29.30133\atlmfc\include\atlsimpstr.h

; 519  : 		return( GetData()->nDataLength );

  000d5	8b 0f		 mov	 ecx, DWORD PTR [edi]
; File D:\git\src\IBK\IBK_DRFN\ProjSrc\SrcChartEx\ChartOCX\Include_Chart\ScaleCalculator.cpp

; 175  : 	strData_date = GetCompartScaleData_Date(packetData.Left(datePos +1), dataType.Left(datePos +1), scaleCompart.GetDateCompart());

  000d7	c6 45 fc 04	 mov	 BYTE PTR __$EHRec$[ebp+8], 4

; 36   : 	return GetCompartScaleDate(GetRealPacketData(packetData, dataType.GetLength()), dataType, compartType);

  000db	ff 71 f4	 push	 DWORD PTR [ecx-12]
  000de	50		 push	 eax
  000df	8d 45 08	 lea	 eax, DWORD PTR $T7[ebp]
  000e2	50		 push	 eax
  000e3	e8 00 00 00 00	 call	 ?GetRealPacketData@CScaleCalculator@@CA?AV?$CStringT@DV?$StrTraitMFC_DLL@DV?$ChTraitsCRT@D@ATL@@@@@ATL@@ABV23@H@Z ; CScaleCalculator::GetRealPacketData
  000e8	83 c4 0c	 add	 esp, 12			; 0000000cH
  000eb	8b 4d f0	 mov	 ecx, DWORD PTR _this$1$[ebp]
  000ee	53		 push	 ebx
  000ef	57		 push	 edi
  000f0	50		 push	 eax
  000f1	8d 45 ec	 lea	 eax, DWORD PTR $T6[ebp]
  000f4	c6 45 fc 05	 mov	 BYTE PTR __$EHRec$[ebp+8], 5
  000f8	50		 push	 eax
  000f9	e8 00 00 00 00	 call	 ?GetCompartScaleDate@CScaleCalculator@@AAE?AV?$CStringT@DV?$StrTraitMFC_DLL@DV?$ChTraitsCRT@D@ATL@@@@@ATL@@ABV23@00@Z ; CScaleCalculator::GetCompartScaleDate
  000fe	8d 4d 08	 lea	 ecx, DWORD PTR $T7[ebp]
  00101	ff 15 00 00 00
	00		 call	 DWORD PTR __imp_??1?$CStringT@DV?$StrTraitMFC_DLL@DV?$ChTraitsCRT@D@ATL@@@@@ATL@@QAE@XZ

; 175  : 	strData_date = GetCompartScaleData_Date(packetData.Left(datePos +1), dataType.Left(datePos +1), scaleCompart.GetDateCompart());

  00107	8b 4d 14	 mov	 ecx, DWORD PTR _strData_date$[ebp]
  0010a	8d 45 ec	 lea	 eax, DWORD PTR $T6[ebp]
  0010d	50		 push	 eax
  0010e	c6 45 fc 06	 mov	 BYTE PTR __$EHRec$[ebp+8], 6
  00112	ff 15 00 00 00
	00		 call	 DWORD PTR __imp_??4?$CStringT@DV?$StrTraitMFC_DLL@DV?$ChTraitsCRT@D@ATL@@@@@ATL@@QAEAAV01@ABV01@@Z
  00118	8d 4d ec	 lea	 ecx, DWORD PTR $T6[ebp]
  0011b	ff 15 00 00 00
	00		 call	 DWORD PTR __imp_??1?$CStringT@DV?$StrTraitMFC_DLL@DV?$ChTraitsCRT@D@ATL@@@@@ATL@@QAE@XZ
  00121	8d 4d e0	 lea	 ecx, DWORD PTR $T5[ebp]
  00124	ff 15 00 00 00
	00		 call	 DWORD PTR __imp_??1?$CStringT@DV?$StrTraitMFC_DLL@DV?$ChTraitsCRT@D@ATL@@@@@ATL@@QAE@XZ
  0012a	8d 4d dc	 lea	 ecx, DWORD PTR $T4[ebp]
  0012d	ff 15 00 00 00
	00		 call	 DWORD PTR __imp_??1?$CStringT@DV?$StrTraitMFC_DLL@DV?$ChTraitsCRT@D@ATL@@@@@ATL@@QAE@XZ
  00133	8d 4d d8	 lea	 ecx, DWORD PTR $T3[ebp]
  00136	c7 45 fc ff ff
	ff ff		 mov	 DWORD PTR __$EHRec$[ebp+8], -1
  0013d	ff 15 00 00 00
	00		 call	 DWORD PTR __imp_??1?$CStringT@DV?$StrTraitMFC_DLL@DV?$ChTraitsCRT@D@ATL@@@@@ATL@@QAE@XZ
; File C:\Program Files (x86)\Microsoft Visual Studio\2019\Community\VC\Tools\MSVC\14.29.30133\atlmfc\include\atlsimpstr.h

; 519  : 		return( GetData()->nDataLength );

  00143	8b 06		 mov	 eax, DWORD PTR [esi]
; File D:\git\src\IBK\IBK_DRFN\ProjSrc\SrcChartEx\ChartOCX\Include_Chart\ScaleCalculator.cpp

; 177  : 	CString packetData_time = packetData.Right(packetData.GetLength() - (datePos +1));

  00145	8b ce		 mov	 ecx, esi
; File C:\Program Files (x86)\Microsoft Visual Studio\2019\Community\VC\Tools\MSVC\14.29.30133\atlmfc\include\atlsimpstr.h

; 519  : 		return( GetData()->nDataLength );

  00147	8b 40 f4	 mov	 eax, DWORD PTR [eax-12]
; File D:\git\src\IBK\IBK_DRFN\ProjSrc\SrcChartEx\ChartOCX\Include_Chart\ScaleCalculator.cpp

; 177  : 	CString packetData_time = packetData.Right(packetData.GetLength() - (datePos +1));

  0014a	2b 45 d4	 sub	 eax, DWORD PTR _datePos$1$[ebp]
  0014d	48		 dec	 eax
  0014e	50		 push	 eax
  0014f	8d 45 e4	 lea	 eax, DWORD PTR _packetData_time$[ebp]
  00152	50		 push	 eax
  00153	ff 15 00 00 00
	00		 call	 DWORD PTR __imp_?Right@?$CStringT@DV?$StrTraitMFC_DLL@DV?$ChTraitsCRT@D@ATL@@@@@ATL@@QBE?AV12@H@Z
; File C:\Program Files (x86)\Microsoft Visual Studio\2019\Community\VC\Tools\MSVC\14.29.30133\atlmfc\include\atlsimpstr.h

; 519  : 		return( GetData()->nDataLength );

  00159	8b 4d 0c	 mov	 ecx, DWORD PTR _dataType$[ebp]
; File D:\git\src\IBK\IBK_DRFN\ProjSrc\SrcChartEx\ChartOCX\Include_Chart\ScaleCalculator.cpp

; 177  : 	CString packetData_time = packetData.Right(packetData.GetLength() - (datePos +1));

  0015c	c7 45 fc 07 00
	00 00		 mov	 DWORD PTR __$EHRec$[ebp+8], 7
; File C:\Program Files (x86)\Microsoft Visual Studio\2019\Community\VC\Tools\MSVC\14.29.30133\atlmfc\include\atlsimpstr.h

; 519  : 		return( GetData()->nDataLength );

  00163	8b 01		 mov	 eax, DWORD PTR [ecx]
  00165	8b 40 f4	 mov	 eax, DWORD PTR [eax-12]
; File D:\git\src\IBK\IBK_DRFN\ProjSrc\SrcChartEx\ChartOCX\Include_Chart\ScaleCalculator.cpp

; 178  : 	CString dataType_time = dataType.Right(dataType.GetLength() - (datePos +1));

  00168	2b 45 d4	 sub	 eax, DWORD PTR _datePos$1$[ebp]
  0016b	48		 dec	 eax
  0016c	50		 push	 eax
  0016d	8d 45 e8	 lea	 eax, DWORD PTR _dataType_time$[ebp]
  00170	50		 push	 eax
  00171	ff 15 00 00 00
	00		 call	 DWORD PTR __imp_?Right@?$CStringT@DV?$StrTraitMFC_DLL@DV?$ChTraitsCRT@D@ATL@@@@@ATL@@QBE?AV12@H@Z

; 179  : 	strData_time = GetCompartScaleTime(packetData_time, dataType_time, scaleCompart.GetTimeCompart());

  00177	8b 4d 10	 mov	 ecx, DWORD PTR _scaleCompart$[ebp]
  0017a	8d 45 d4	 lea	 eax, DWORD PTR $T2[ebp]
  0017d	c6 45 fc 08	 mov	 BYTE PTR __$EHRec$[ebp+8], 8
  00181	50		 push	 eax
  00182	ff 15 00 00 00
	00		 call	 DWORD PTR __imp_?GetTimeCompart@CScaleCompart@@QBE?AV?$CStringT@DV?$StrTraitMFC_DLL@DV?$ChTraitsCRT@D@ATL@@@@@ATL@@XZ
  00188	8b 4d f0	 mov	 ecx, DWORD PTR _this$1$[ebp]
  0018b	50		 push	 eax
  0018c	8d 45 e8	 lea	 eax, DWORD PTR _dataType_time$[ebp]
  0018f	c6 45 fc 09	 mov	 BYTE PTR __$EHRec$[ebp+8], 9
  00193	50		 push	 eax
  00194	8d 45 e4	 lea	 eax, DWORD PTR _packetData_time$[ebp]
  00197	50		 push	 eax
  00198	8d 45 0c	 lea	 eax, DWORD PTR $T8[ebp]
  0019b	50		 push	 eax
  0019c	e8 00 00 00 00	 call	 ?GetCompartScaleTime@CScaleCalculator@@AAE?AV?$CStringT@DV?$StrTraitMFC_DLL@DV?$ChTraitsCRT@D@ATL@@@@@ATL@@ABV23@00@Z ; CScaleCalculator::GetCompartScaleTime
  001a1	8b 4d 18	 mov	 ecx, DWORD PTR _strData_time$[ebp]
  001a4	50		 push	 eax
  001a5	c6 45 fc 0a	 mov	 BYTE PTR __$EHRec$[ebp+8], 10 ; 0000000aH
  001a9	ff 15 00 00 00
	00		 call	 DWORD PTR __imp_??4?$CStringT@DV?$StrTraitMFC_DLL@DV?$ChTraitsCRT@D@ATL@@@@@ATL@@QAEAAV01@ABV01@@Z
  001af	8d 4d 0c	 lea	 ecx, DWORD PTR $T8[ebp]
  001b2	ff 15 00 00 00
	00		 call	 DWORD PTR __imp_??1?$CStringT@DV?$StrTraitMFC_DLL@DV?$ChTraitsCRT@D@ATL@@@@@ATL@@QAE@XZ
  001b8	8d 4d d4	 lea	 ecx, DWORD PTR $T2[ebp]
  001bb	ff 15 00 00 00
	00		 call	 DWORD PTR __imp_??1?$CStringT@DV?$StrTraitMFC_DLL@DV?$ChTraitsCRT@D@ATL@@@@@ATL@@QAE@XZ

; 180  : }

  001c1	8d 4d e8	 lea	 ecx, DWORD PTR _dataType_time$[ebp]
  001c4	ff 15 00 00 00
	00		 call	 DWORD PTR __imp_??1?$CStringT@DV?$StrTraitMFC_DLL@DV?$ChTraitsCRT@D@ATL@@@@@ATL@@QAE@XZ
  001ca	8d 4d e4	 lea	 ecx, DWORD PTR _packetData_time$[ebp]
$LN32@GetCompart:
  001cd	ff 15 00 00 00
	00		 call	 DWORD PTR __imp_??1?$CStringT@DV?$StrTraitMFC_DLL@DV?$ChTraitsCRT@D@ATL@@@@@ATL@@QAE@XZ
  001d3	8b 4d f4	 mov	 ecx, DWORD PTR __$EHRec$[ebp]
  001d6	64 89 0d 00 00
	00 00		 mov	 DWORD PTR fs:0, ecx
  001dd	59		 pop	 ecx
  001de	5f		 pop	 edi
  001df	5e		 pop	 esi
  001e0	5b		 pop	 ebx
  001e1	8b e5		 mov	 esp, ebp
  001e3	5d		 pop	 ebp
  001e4	c2 14 00	 ret	 20			; 00000014H
_TEXT	ENDS
;	COMDAT text$x
text$x	SEGMENT
__unwindfunclet$?GetCompartScaleDateTime@CScaleCalculator@@AAEXABV?$CStringT@DV?$StrTraitMFC_DLL@DV?$ChTraitsCRT@D@ATL@@@@@ATL@@0ABVCScaleCompart@@AAV23@2@Z$0:
  00000	8d 4d 14	 lea	 ecx, DWORD PTR $T10[ebp]
  00003	ff 25 00 00 00
	00		 jmp	 DWORD PTR __imp_??1?$CStringT@DV?$StrTraitMFC_DLL@DV?$ChTraitsCRT@D@ATL@@@@@ATL@@QAE@XZ
__unwindfunclet$?GetCompartScaleDateTime@CScaleCalculator@@AAEXABV?$CStringT@DV?$StrTraitMFC_DLL@DV?$ChTraitsCRT@D@ATL@@@@@ATL@@0ABVCScaleCompart@@AAV23@2@Z$1:
  00009	8d 4d 10	 lea	 ecx, DWORD PTR $T9[ebp]
  0000c	ff 25 00 00 00
	00		 jmp	 DWORD PTR __imp_??1?$CStringT@DV?$StrTraitMFC_DLL@DV?$ChTraitsCRT@D@ATL@@@@@ATL@@QAE@XZ
__unwindfunclet$?GetCompartScaleDateTime@CScaleCalculator@@AAEXABV?$CStringT@DV?$StrTraitMFC_DLL@DV?$ChTraitsCRT@D@ATL@@@@@ATL@@0ABVCScaleCompart@@AAV23@2@Z$2:
  00012	8d 4d d8	 lea	 ecx, DWORD PTR $T3[ebp]
  00015	ff 25 00 00 00
	00		 jmp	 DWORD PTR __imp_??1?$CStringT@DV?$StrTraitMFC_DLL@DV?$ChTraitsCRT@D@ATL@@@@@ATL@@QAE@XZ
__unwindfunclet$?GetCompartScaleDateTime@CScaleCalculator@@AAEXABV?$CStringT@DV?$StrTraitMFC_DLL@DV?$ChTraitsCRT@D@ATL@@@@@ATL@@0ABVCScaleCompart@@AAV23@2@Z$3:
  0001b	8d 4d dc	 lea	 ecx, DWORD PTR $T4[ebp]
  0001e	ff 25 00 00 00
	00		 jmp	 DWORD PTR __imp_??1?$CStringT@DV?$StrTraitMFC_DLL@DV?$ChTraitsCRT@D@ATL@@@@@ATL@@QAE@XZ
__unwindfunclet$?GetCompartScaleDateTime@CScaleCalculator@@AAEXABV?$CStringT@DV?$StrTraitMFC_DLL@DV?$ChTraitsCRT@D@ATL@@@@@ATL@@0ABVCScaleCompart@@AAV23@2@Z$4:
  00024	8d 4d e0	 lea	 ecx, DWORD PTR $T5[ebp]
  00027	ff 25 00 00 00
	00		 jmp	 DWORD PTR __imp_??1?$CStringT@DV?$StrTraitMFC_DLL@DV?$ChTraitsCRT@D@ATL@@@@@ATL@@QAE@XZ
__unwindfunclet$?GetCompartScaleDateTime@CScaleCalculator@@AAEXABV?$CStringT@DV?$StrTraitMFC_DLL@DV?$ChTraitsCRT@D@ATL@@@@@ATL@@0ABVCScaleCompart@@AAV23@2@Z$10:
  0002d	8d 4d 08	 lea	 ecx, DWORD PTR $T7[ebp]
  00030	ff 25 00 00 00
	00		 jmp	 DWORD PTR __imp_??1?$CStringT@DV?$StrTraitMFC_DLL@DV?$ChTraitsCRT@D@ATL@@@@@ATL@@QAE@XZ
__unwindfunclet$?GetCompartScaleDateTime@CScaleCalculator@@AAEXABV?$CStringT@DV?$StrTraitMFC_DLL@DV?$ChTraitsCRT@D@ATL@@@@@ATL@@0ABVCScaleCompart@@AAV23@2@Z$5:
  00036	8d 4d ec	 lea	 ecx, DWORD PTR $T6[ebp]
  00039	ff 25 00 00 00
	00		 jmp	 DWORD PTR __imp_??1?$CStringT@DV?$StrTraitMFC_DLL@DV?$ChTraitsCRT@D@ATL@@@@@ATL@@QAE@XZ
__unwindfunclet$?GetCompartScaleDateTime@CScaleCalculator@@AAEXABV?$CStringT@DV?$StrTraitMFC_DLL@DV?$ChTraitsCRT@D@ATL@@@@@ATL@@0ABVCScaleCompart@@AAV23@2@Z$6:
  0003f	8d 4d e4	 lea	 ecx, DWORD PTR _packetData_time$[ebp]
  00042	ff 25 00 00 00
	00		 jmp	 DWORD PTR __imp_??1?$CStringT@DV?$StrTraitMFC_DLL@DV?$ChTraitsCRT@D@ATL@@@@@ATL@@QAE@XZ
__unwindfunclet$?GetCompartScaleDateTime@CScaleCalculator@@AAEXABV?$CStringT@DV?$StrTraitMFC_DLL@DV?$ChTraitsCRT@D@ATL@@@@@ATL@@0ABVCScaleCompart@@AAV23@2@Z$7:
  00048	8d 4d e8	 lea	 ecx, DWORD PTR _dataType_time$[ebp]
  0004b	ff 25 00 00 00
	00		 jmp	 DWORD PTR __imp_??1?$CStringT@DV?$StrTraitMFC_DLL@DV?$ChTraitsCRT@D@ATL@@@@@ATL@@QAE@XZ
__unwindfunclet$?GetCompartScaleDateTime@CScaleCalculator@@AAEXABV?$CStringT@DV?$StrTraitMFC_DLL@DV?$ChTraitsCRT@D@ATL@@@@@ATL@@0ABVCScaleCompart@@AAV23@2@Z$8:
  00051	8d 4d d4	 lea	 ecx, DWORD PTR $T2[ebp]
  00054	ff 25 00 00 00
	00		 jmp	 DWORD PTR __imp_??1?$CStringT@DV?$StrTraitMFC_DLL@DV?$ChTraitsCRT@D@ATL@@@@@ATL@@QAE@XZ
__unwindfunclet$?GetCompartScaleDateTime@CScaleCalculator@@AAEXABV?$CStringT@DV?$StrTraitMFC_DLL@DV?$ChTraitsCRT@D@ATL@@@@@ATL@@0ABVCScaleCompart@@AAV23@2@Z$9:
  0005a	8d 4d 0c	 lea	 ecx, DWORD PTR $T8[ebp]
  0005d	ff 25 00 00 00
	00		 jmp	 DWORD PTR __imp_??1?$CStringT@DV?$StrTraitMFC_DLL@DV?$ChTraitsCRT@D@ATL@@@@@ATL@@QAE@XZ
  00063	cc		 int	 3
  00064	cc		 int	 3
  00065	cc		 int	 3
  00066	cc		 int	 3
  00067	cc		 int	 3
__ehhandler$?GetCompartScaleDateTime@CScaleCalculator@@AAEXABV?$CStringT@DV?$StrTraitMFC_DLL@DV?$ChTraitsCRT@D@ATL@@@@@ATL@@0ABVCScaleCompart@@AAV23@2@Z:
  00068	90		 npad	 1
  00069	90		 npad	 1
  0006a	8b 54 24 08	 mov	 edx, DWORD PTR [esp+8]
  0006e	8d 42 0c	 lea	 eax, DWORD PTR [edx+12]
  00071	8b 4a d0	 mov	 ecx, DWORD PTR [edx-48]
  00074	33 c8		 xor	 ecx, eax
  00076	e8 00 00 00 00	 call	 @__security_check_cookie@4
  0007b	b8 00 00 00 00	 mov	 eax, OFFSET __ehfuncinfo$?GetCompartScaleDateTime@CScaleCalculator@@AAEXABV?$CStringT@DV?$StrTraitMFC_DLL@DV?$ChTraitsCRT@D@ATL@@@@@ATL@@0ABVCScaleCompart@@AAV23@2@Z
  00080	e9 00 00 00 00	 jmp	 ___CxxFrameHandler3
text$x	ENDS
?GetCompartScaleDateTime@CScaleCalculator@@AAEXABV?$CStringT@DV?$StrTraitMFC_DLL@DV?$ChTraitsCRT@D@ATL@@@@@ATL@@0ABVCScaleCompart@@AAV23@2@Z ENDP ; CScaleCalculator::GetCompartScaleDateTime
; Function compile flags: /Ogtp
; File D:\git\src\IBK\IBK_DRFN\ProjSrc\SrcChartEx\ChartOCX\Include_Chart\ScaleCalculator.cpp
; File C:\Program Files (x86)\Microsoft Visual Studio\2019\Community\VC\Tools\MSVC\14.29.30133\atlmfc\include\atlsimpstr.h
; File D:\git\src\IBK\IBK_DRFN\ProjSrc\SrcChartEx\ChartOCX\Include_Chart\ScaleCalculator.cpp
; File C:\Program Files (x86)\Microsoft Visual Studio\2019\Community\VC\Tools\MSVC\14.29.30133\atlmfc\include\atlsimpstr.h
; File D:\git\src\IBK\IBK_DRFN\ProjSrc\SrcChartEx\ChartOCX\Include_Chart\ScaleCalculator.cpp
; File C:\Program Files (x86)\Microsoft Visual Studio\2019\Community\VC\Tools\MSVC\14.29.30133\atlmfc\include\cstringt.h
; File D:\git\src\IBK\IBK_DRFN\ProjSrc\SrcChartEx\ChartOCX\Include_Chart\ScaleCalculator.cpp
; File C:\Program Files (x86)\Microsoft Visual Studio\2019\Community\VC\Tools\MSVC\14.29.30133\atlmfc\include\cstringt.h
; File D:\git\src\IBK\IBK_DRFN\ProjSrc\SrcChartEx\ChartOCX\Include_Chart\ScaleCalculator.cpp
;	COMDAT ?GetCompartScaleTime_Two@CScaleCalculator@@AAE?AV?$CStringT@DV?$StrTraitMFC_DLL@DV?$ChTraitsCRT@D@ATL@@@@@ATL@@ABV23@0ABVCScaleCompart@@@Z
_TEXT	SEGMENT
$T2 = -24						; size = 4
_strData_date$ = -20					; size = 4
_strData_time$ = -16					; size = 4
__$EHRec$ = -12						; size = 12
___$ReturnUdt$ = 8					; size = 4
_packetData$ = 12					; size = 4
_dataType$ = 16						; size = 4
$T3 = 20						; size = 4
_scaleCompart$ = 20					; size = 4
?GetCompartScaleTime_Two@CScaleCalculator@@AAE?AV?$CStringT@DV?$StrTraitMFC_DLL@DV?$ChTraitsCRT@D@ATL@@@@@ATL@@ABV23@0ABVCScaleCompart@@@Z PROC ; CScaleCalculator::GetCompartScaleTime_Two, COMDAT
; _this$ = ecx

; 155  : {

  00000	55		 push	 ebp
  00001	8b ec		 mov	 ebp, esp
  00003	6a ff		 push	 -1
  00005	68 00 00 00 00	 push	 __ehhandler$?GetCompartScaleTime_Two@CScaleCalculator@@AAE?AV?$CStringT@DV?$StrTraitMFC_DLL@DV?$ChTraitsCRT@D@ATL@@@@@ATL@@ABV23@0ABVCScaleCompart@@@Z
  0000a	64 a1 00 00 00
	00		 mov	 eax, DWORD PTR fs:0
  00010	50		 push	 eax
  00011	83 ec 0c	 sub	 esp, 12			; 0000000cH
  00014	56		 push	 esi
  00015	a1 00 00 00 00	 mov	 eax, DWORD PTR ___security_cookie
  0001a	33 c5		 xor	 eax, ebp
  0001c	50		 push	 eax
  0001d	8d 45 f4	 lea	 eax, DWORD PTR __$EHRec$[ebp]
  00020	64 a3 00 00 00
	00		 mov	 DWORD PTR fs:0, eax
  00026	8b f1		 mov	 esi, ecx

; 156  : 	CString strData_date, strData_time;

  00028	8d 4d ec	 lea	 ecx, DWORD PTR _strData_date$[ebp]
  0002b	c7 45 e8 00 00
	00 00		 mov	 DWORD PTR $T2[ebp], 0
  00032	ff 15 00 00 00
	00		 call	 DWORD PTR __imp_??0?$CStringT@DV?$StrTraitMFC_DLL@DV?$ChTraitsCRT@D@ATL@@@@@ATL@@QAE@XZ
  00038	8d 4d f0	 lea	 ecx, DWORD PTR _strData_time$[ebp]
  0003b	c7 45 fc 00 00
	00 00		 mov	 DWORD PTR __$EHRec$[ebp+8], 0
  00042	ff 15 00 00 00
	00		 call	 DWORD PTR __imp_??0?$CStringT@DV?$StrTraitMFC_DLL@DV?$ChTraitsCRT@D@ATL@@@@@ATL@@QAE@XZ

; 157  : 	GetCompartScaleDateTime(packetData, dataType, scaleCompart, strData_date, strData_time);

  00048	8d 45 f0	 lea	 eax, DWORD PTR _strData_time$[ebp]
  0004b	c6 45 fc 01	 mov	 BYTE PTR __$EHRec$[ebp+8], 1
  0004f	50		 push	 eax
  00050	8d 45 ec	 lea	 eax, DWORD PTR _strData_date$[ebp]
  00053	8b ce		 mov	 ecx, esi
  00055	50		 push	 eax
  00056	ff 75 14	 push	 DWORD PTR _scaleCompart$[ebp]
  00059	ff 75 10	 push	 DWORD PTR _dataType$[ebp]
  0005c	ff 75 0c	 push	 DWORD PTR _packetData$[ebp]
  0005f	e8 00 00 00 00	 call	 ?GetCompartScaleDateTime@CScaleCalculator@@AAEXABV?$CStringT@DV?$StrTraitMFC_DLL@DV?$ChTraitsCRT@D@ATL@@@@@ATL@@0ABVCScaleCompart@@AAV23@2@Z ; CScaleCalculator::GetCompartScaleDateTime
; File C:\Program Files (x86)\Microsoft Visual Studio\2019\Community\VC\Tools\MSVC\14.29.30133\atlmfc\include\atlsimpstr.h

; 519  : 		return( GetData()->nDataLength );

  00064	8b 45 ec	 mov	 eax, DWORD PTR _strData_date$[ebp]

; 533  : 		return( GetLength() == 0 );

  00067	83 78 f4 00	 cmp	 DWORD PTR [eax-12], 0
; File D:\git\src\IBK\IBK_DRFN\ProjSrc\SrcChartEx\ChartOCX\Include_Chart\ScaleCalculator.cpp

; 159  : 	if(!strData_date.IsEmpty() && !strData_time.IsEmpty())

  0006b	0f 84 87 00 00
	00		 je	 $LN3@GetCompart
; File C:\Program Files (x86)\Microsoft Visual Studio\2019\Community\VC\Tools\MSVC\14.29.30133\atlmfc\include\atlsimpstr.h

; 519  : 		return( GetData()->nDataLength );

  00071	8b 45 f0	 mov	 eax, DWORD PTR _strData_time$[ebp]

; 533  : 		return( GetLength() == 0 );

  00074	83 78 f4 00	 cmp	 DWORD PTR [eax-12], 0
; File D:\git\src\IBK\IBK_DRFN\ProjSrc\SrcChartEx\ChartOCX\Include_Chart\ScaleCalculator.cpp

; 159  : 	if(!strData_date.IsEmpty() && !strData_time.IsEmpty())

  00078	74 79		 je	 SHORT $LN41@GetCompart
; File C:\Program Files (x86)\Microsoft Visual Studio\2019\Community\VC\Tools\MSVC\14.29.30133\atlmfc\include\cstringt.h

; 2401 : 		CStringT strResult( str1.GetManager() );

  0007a	8d 4d f0	 lea	 ecx, DWORD PTR _strData_time$[ebp]
; File D:\git\src\IBK\IBK_DRFN\ProjSrc\SrcChartEx\ChartOCX\Include_Chart\ScaleCalculator.cpp

; 160  : 		return strData_time + "\r\n" + strData_date;

  0007d	c6 45 fc 02	 mov	 BYTE PTR __$EHRec$[ebp+8], 2
; File C:\Program Files (x86)\Microsoft Visual Studio\2019\Community\VC\Tools\MSVC\14.29.30133\atlmfc\include\cstringt.h

; 2401 : 		CStringT strResult( str1.GetManager() );

  00081	ff 15 00 00 00
	00		 call	 DWORD PTR __imp_?GetManager@?$CStringT@DV?$StrTraitMFC_DLL@DV?$ChTraitsCRT@D@ATL@@@@@ATL@@QBEPAUIAtlStringMgr@2@XZ
  00087	50		 push	 eax
  00088	8d 4d 14	 lea	 ecx, DWORD PTR $T3[ebp]
  0008b	ff 15 00 00 00
	00		 call	 DWORD PTR __imp_??0?$CStringT@DV?$StrTraitMFC_DLL@DV?$ChTraitsCRT@D@ATL@@@@@ATL@@QAE@PAUIAtlStringMgr@1@@Z

; 2402 : 
; 2403 : 		CThisSimpleString::Concatenate( strResult, str1, str1.GetLength(), psz2, CThisSimpleString::StringLength( psz2 ) );

  00091	8b 45 f0	 mov	 eax, DWORD PTR _strData_time$[ebp]
  00094	6a 02		 push	 2
  00096	68 00 00 00 00	 push	 OFFSET ??_C@_02PCIJFNDE@?$AN?6@

; 2404 : 
; 2405 : 		return( strResult );

  0009b	c7 45 e8 02 00
	00 00		 mov	 DWORD PTR $T2[ebp], 2
  000a2	ff 70 f4	 push	 DWORD PTR [eax-12]
  000a5	50		 push	 eax
  000a6	8d 45 14	 lea	 eax, DWORD PTR $T3[ebp]
  000a9	50		 push	 eax
  000aa	ff 15 00 00 00
	00		 call	 DWORD PTR __imp_?Concatenate@?$CSimpleStringT@D$00@ATL@@KAXAAV12@PBDH1H@Z
; File D:\git\src\IBK\IBK_DRFN\ProjSrc\SrcChartEx\ChartOCX\Include_Chart\ScaleCalculator.cpp

; 160  : 		return strData_time + "\r\n" + strData_date;

  000b0	8b 75 08	 mov	 esi, DWORD PTR ___$ReturnUdt$[ebp]
  000b3	8d 45 ec	 lea	 eax, DWORD PTR _strData_date$[ebp]
  000b6	50		 push	 eax
  000b7	8d 45 14	 lea	 eax, DWORD PTR $T3[ebp]
  000ba	50		 push	 eax
  000bb	56		 push	 esi
  000bc	e8 00 00 00 00	 call	 ??HATL@@YA?AV?$CStringT@DV?$StrTraitMFC_DLL@DV?$ChTraitsCRT@D@ATL@@@@@0@ABV10@0@Z ; ATL::operator+
  000c1	83 c4 20	 add	 esp, 32			; 00000020H
  000c4	8d 4d 14	 lea	 ecx, DWORD PTR $T3[ebp]
  000c7	ff 15 00 00 00
	00		 call	 DWORD PTR __imp_??1?$CStringT@DV?$StrTraitMFC_DLL@DV?$ChTraitsCRT@D@ATL@@@@@ATL@@QAE@XZ
  000cd	8d 4d f0	 lea	 ecx, DWORD PTR _strData_time$[ebp]
  000d0	ff 15 00 00 00
	00		 call	 DWORD PTR __imp_??1?$CStringT@DV?$StrTraitMFC_DLL@DV?$ChTraitsCRT@D@ATL@@@@@ATL@@QAE@XZ
  000d6	8d 4d ec	 lea	 ecx, DWORD PTR _strData_date$[ebp]
  000d9	ff 15 00 00 00
	00		 call	 DWORD PTR __imp_??1?$CStringT@DV?$StrTraitMFC_DLL@DV?$ChTraitsCRT@D@ATL@@@@@ATL@@QAE@XZ
  000df	8b c6		 mov	 eax, esi

; 164  : }

  000e1	8b 4d f4	 mov	 ecx, DWORD PTR __$EHRec$[ebp]
  000e4	64 89 0d 00 00
	00 00		 mov	 DWORD PTR fs:0, ecx
  000eb	59		 pop	 ecx
  000ec	5e		 pop	 esi
  000ed	8b e5		 mov	 esp, ebp
  000ef	5d		 pop	 ebp
  000f0	c2 10 00	 ret	 16			; 00000010H
$LN41@GetCompart:

; 161  : 	if(!strData_date.IsEmpty())
; 162  : 		return strData_date;

  000f3	8d 45 ec	 lea	 eax, DWORD PTR _strData_date$[ebp]
  000f6	eb 03		 jmp	 SHORT $LN43@GetCompart
$LN3@GetCompart:

; 163  : 	return strData_time;

  000f8	8d 45 f0	 lea	 eax, DWORD PTR _strData_time$[ebp]
$LN43@GetCompart:

; 164  : }

  000fb	8b 4d 08	 mov	 ecx, DWORD PTR ___$ReturnUdt$[ebp]
  000fe	50		 push	 eax
  000ff	ff 15 00 00 00
	00		 call	 DWORD PTR __imp_??0?$CStringT@DV?$StrTraitMFC_DLL@DV?$ChTraitsCRT@D@ATL@@@@@ATL@@QAE@ABV01@@Z
  00105	8d 4d f0	 lea	 ecx, DWORD PTR _strData_time$[ebp]
  00108	ff 15 00 00 00
	00		 call	 DWORD PTR __imp_??1?$CStringT@DV?$StrTraitMFC_DLL@DV?$ChTraitsCRT@D@ATL@@@@@ATL@@QAE@XZ
  0010e	8d 4d ec	 lea	 ecx, DWORD PTR _strData_date$[ebp]
  00111	ff 15 00 00 00
	00		 call	 DWORD PTR __imp_??1?$CStringT@DV?$StrTraitMFC_DLL@DV?$ChTraitsCRT@D@ATL@@@@@ATL@@QAE@XZ
  00117	8b 45 08	 mov	 eax, DWORD PTR ___$ReturnUdt$[ebp]
  0011a	8b 4d f4	 mov	 ecx, DWORD PTR __$EHRec$[ebp]
  0011d	64 89 0d 00 00
	00 00		 mov	 DWORD PTR fs:0, ecx
  00124	59		 pop	 ecx
  00125	5e		 pop	 esi
  00126	8b e5		 mov	 esp, ebp
  00128	5d		 pop	 ebp
  00129	c2 10 00	 ret	 16			; 00000010H
_TEXT	ENDS
;	COMDAT text$x
text$x	SEGMENT
__unwindfunclet$?GetCompartScaleTime_Two@CScaleCalculator@@AAE?AV?$CStringT@DV?$StrTraitMFC_DLL@DV?$ChTraitsCRT@D@ATL@@@@@ATL@@ABV23@0ABVCScaleCompart@@@Z$0:
  00000	8d 4d ec	 lea	 ecx, DWORD PTR _strData_date$[ebp]
  00003	ff 25 00 00 00
	00		 jmp	 DWORD PTR __imp_??1?$CStringT@DV?$StrTraitMFC_DLL@DV?$ChTraitsCRT@D@ATL@@@@@ATL@@QAE@XZ
__unwindfunclet$?GetCompartScaleTime_Two@CScaleCalculator@@AAE?AV?$CStringT@DV?$StrTraitMFC_DLL@DV?$ChTraitsCRT@D@ATL@@@@@ATL@@ABV23@0ABVCScaleCompart@@@Z$1:
  00009	8d 4d f0	 lea	 ecx, DWORD PTR _strData_time$[ebp]
  0000c	ff 25 00 00 00
	00		 jmp	 DWORD PTR __imp_??1?$CStringT@DV?$StrTraitMFC_DLL@DV?$ChTraitsCRT@D@ATL@@@@@ATL@@QAE@XZ
__unwindfunclet$?GetCompartScaleTime_Two@CScaleCalculator@@AAE?AV?$CStringT@DV?$StrTraitMFC_DLL@DV?$ChTraitsCRT@D@ATL@@@@@ATL@@ABV23@0ABVCScaleCompart@@@Z$4:
  00012	8b 45 e8	 mov	 eax, DWORD PTR $T2[ebp]
  00015	83 e0 02	 and	 eax, 2
  00018	0f 84 0d 00 00
	00		 je	 $LN25@GetCompart
  0001e	83 65 e8 fd	 and	 DWORD PTR $T2[ebp], -3	; fffffffdH
  00022	8d 4d 14	 lea	 ecx, DWORD PTR $T3[ebp]
  00025	ff 25 00 00 00
	00		 jmp	 DWORD PTR __imp_??1?$CStringT@DV?$StrTraitMFC_DLL@DV?$ChTraitsCRT@D@ATL@@@@@ATL@@QAE@XZ
$LN25@GetCompart:
  0002b	c3		 ret	 0
  0002c	cc		 int	 3
  0002d	cc		 int	 3
  0002e	cc		 int	 3
  0002f	cc		 int	 3
  00030	cc		 int	 3
__ehhandler$?GetCompartScaleTime_Two@CScaleCalculator@@AAE?AV?$CStringT@DV?$StrTraitMFC_DLL@DV?$ChTraitsCRT@D@ATL@@@@@ATL@@ABV23@0ABVCScaleCompart@@@Z:
  00031	90		 npad	 1
  00032	90		 npad	 1
  00033	8b 54 24 08	 mov	 edx, DWORD PTR [esp+8]
  00037	8d 42 0c	 lea	 eax, DWORD PTR [edx+12]
  0003a	8b 4a ec	 mov	 ecx, DWORD PTR [edx-20]
  0003d	33 c8		 xor	 ecx, eax
  0003f	e8 00 00 00 00	 call	 @__security_check_cookie@4
  00044	b8 00 00 00 00	 mov	 eax, OFFSET __ehfuncinfo$?GetCompartScaleTime_Two@CScaleCalculator@@AAE?AV?$CStringT@DV?$StrTraitMFC_DLL@DV?$ChTraitsCRT@D@ATL@@@@@ATL@@ABV23@0ABVCScaleCompart@@@Z
  00049	e9 00 00 00 00	 jmp	 ___CxxFrameHandler3
text$x	ENDS
?GetCompartScaleTime_Two@CScaleCalculator@@AAE?AV?$CStringT@DV?$StrTraitMFC_DLL@DV?$ChTraitsCRT@D@ATL@@@@@ATL@@ABV23@0ABVCScaleCompart@@@Z ENDP ; CScaleCalculator::GetCompartScaleTime_Two
; Function compile flags: /Ogtp
; File D:\git\src\IBK\IBK_DRFN\ProjSrc\SrcChartEx\ChartOCX\Include_Chart\ScaleCalculator.cpp
; File C:\Program Files (x86)\Microsoft Visual Studio\2019\Community\VC\Tools\MSVC\14.29.30133\atlmfc\include\atlsimpstr.h
; File D:\git\src\IBK\IBK_DRFN\ProjSrc\SrcChartEx\ChartOCX\Include_Chart\ScaleCalculator.cpp
; File C:\Program Files (x86)\Microsoft Visual Studio\2019\Community\VC\Tools\MSVC\14.29.30133\atlmfc\include\atlsimpstr.h
; File D:\git\src\IBK\IBK_DRFN\ProjSrc\SrcChartEx\ChartOCX\Include_Chart\ScaleCalculator.cpp
; File C:\Program Files (x86)\Microsoft Visual Studio\2019\Community\VC\Tools\MSVC\14.29.30133\atlmfc\include\atlsimpstr.h
; File D:\git\src\IBK\IBK_DRFN\ProjSrc\SrcChartEx\ChartOCX\Include_Chart\ScaleCalculator.cpp
;	COMDAT ?GetCompartScaleTime_One@CScaleCalculator@@AAE?AV?$CStringT@DV?$StrTraitMFC_DLL@DV?$ChTraitsCRT@D@ATL@@@@@ATL@@ABV23@0ABVCScaleCompart@@@Z
_TEXT	SEGMENT
_strData_date$ = -20					; size = 4
_strData_time$ = -16					; size = 4
__$EHRec$ = -12						; size = 12
___$ReturnUdt$ = 8					; size = 4
_packetData$ = 12					; size = 4
$T2 = 16						; size = 4
_dataType$ = 16						; size = 4
$T3 = 20						; size = 4
$T4 = 20						; size = 4
_scaleCompart$ = 20					; size = 4
?GetCompartScaleTime_One@CScaleCalculator@@AAE?AV?$CStringT@DV?$StrTraitMFC_DLL@DV?$ChTraitsCRT@D@ATL@@@@@ATL@@ABV23@0ABVCScaleCompart@@@Z PROC ; CScaleCalculator::GetCompartScaleTime_One, COMDAT
; _this$ = ecx

; 140  : {

  00000	55		 push	 ebp
  00001	8b ec		 mov	 ebp, esp
  00003	6a ff		 push	 -1
  00005	68 00 00 00 00	 push	 __ehhandler$?GetCompartScaleTime_One@CScaleCalculator@@AAE?AV?$CStringT@DV?$StrTraitMFC_DLL@DV?$ChTraitsCRT@D@ATL@@@@@ATL@@ABV23@0ABVCScaleCompart@@@Z
  0000a	64 a1 00 00 00
	00		 mov	 eax, DWORD PTR fs:0
  00010	50		 push	 eax
  00011	83 ec 08	 sub	 esp, 8
  00014	56		 push	 esi
  00015	57		 push	 edi
  00016	a1 00 00 00 00	 mov	 eax, DWORD PTR ___security_cookie
  0001b	33 c5		 xor	 eax, ebp
  0001d	50		 push	 eax
  0001e	8d 45 f4	 lea	 eax, DWORD PTR __$EHRec$[ebp]
  00021	64 a3 00 00 00
	00		 mov	 DWORD PTR fs:0, eax
  00027	8b f1		 mov	 esi, ecx

; 141  : 	CString strData_date, strData_time;

  00029	8d 4d ec	 lea	 ecx, DWORD PTR _strData_date$[ebp]
  0002c	ff 15 00 00 00
	00		 call	 DWORD PTR __imp_??0?$CStringT@DV?$StrTraitMFC_DLL@DV?$ChTraitsCRT@D@ATL@@@@@ATL@@QAE@XZ
  00032	8d 4d f0	 lea	 ecx, DWORD PTR _strData_time$[ebp]
  00035	c7 45 fc 00 00
	00 00		 mov	 DWORD PTR __$EHRec$[ebp+8], 0
  0003c	ff 15 00 00 00
	00		 call	 DWORD PTR __imp_??0?$CStringT@DV?$StrTraitMFC_DLL@DV?$ChTraitsCRT@D@ATL@@@@@ATL@@QAE@XZ

; 142  : 	GetCompartScaleDateTime(packetData, dataType, scaleCompart, strData_date, strData_time);

  00042	8b 7d 14	 mov	 edi, DWORD PTR _scaleCompart$[ebp]
  00045	8d 45 f0	 lea	 eax, DWORD PTR _strData_time$[ebp]
  00048	50		 push	 eax
  00049	8d 45 ec	 lea	 eax, DWORD PTR _strData_date$[ebp]
  0004c	c6 45 fc 01	 mov	 BYTE PTR __$EHRec$[ebp+8], 1
  00050	50		 push	 eax
  00051	57		 push	 edi
  00052	ff 75 10	 push	 DWORD PTR _dataType$[ebp]
  00055	8b ce		 mov	 ecx, esi
  00057	ff 75 0c	 push	 DWORD PTR _packetData$[ebp]
  0005a	e8 00 00 00 00	 call	 ?GetCompartScaleDateTime@CScaleCalculator@@AAEXABV?$CStringT@DV?$StrTraitMFC_DLL@DV?$ChTraitsCRT@D@ATL@@@@@ATL@@0ABVCScaleCompart@@AAV23@2@Z ; CScaleCalculator::GetCompartScaleDateTime
; File C:\Program Files (x86)\Microsoft Visual Studio\2019\Community\VC\Tools\MSVC\14.29.30133\atlmfc\include\atlsimpstr.h

; 519  : 		return( GetData()->nDataLength );

  0005f	8b 45 ec	 mov	 eax, DWORD PTR _strData_date$[ebp]

; 533  : 		return( GetLength() == 0 );

  00062	83 78 f4 00	 cmp	 DWORD PTR [eax-12], 0
; File D:\git\src\IBK\IBK_DRFN\ProjSrc\SrcChartEx\ChartOCX\Include_Chart\ScaleCalculator.cpp

; 144  : 	if(!strData_date.IsEmpty() && !strData_time.IsEmpty()){

  00066	0f 84 d8 00 00
	00		 je	 $LN4@GetCompart
; File C:\Program Files (x86)\Microsoft Visual Studio\2019\Community\VC\Tools\MSVC\14.29.30133\atlmfc\include\atlsimpstr.h

; 519  : 		return( GetData()->nDataLength );

  0006c	8b 45 f0	 mov	 eax, DWORD PTR _strData_time$[ebp]

; 533  : 		return( GetLength() == 0 );

  0006f	83 78 f4 00	 cmp	 DWORD PTR [eax-12], 0
; File D:\git\src\IBK\IBK_DRFN\ProjSrc\SrcChartEx\ChartOCX\Include_Chart\ScaleCalculator.cpp

; 144  : 	if(!strData_date.IsEmpty() && !strData_time.IsEmpty()){

  00073	0f 84 c6 00 00
	00		 je	 $LN35@GetCompart

; 145  : 		if(scaleCompart.GetDateCompart().GetLength() > 1)

  00079	8d 45 14	 lea	 eax, DWORD PTR $T4[ebp]
  0007c	8b cf		 mov	 ecx, edi
  0007e	50		 push	 eax
  0007f	ff 15 00 00 00
	00		 call	 DWORD PTR __imp_?GetDateCompart@CScaleCompart@@QBE?AV?$CStringT@DV?$StrTraitMFC_DLL@DV?$ChTraitsCRT@D@ATL@@@@@ATL@@XZ
  00085	8d 4d 14	 lea	 ecx, DWORD PTR $T4[ebp]
; File C:\Program Files (x86)\Microsoft Visual Studio\2019\Community\VC\Tools\MSVC\14.29.30133\atlmfc\include\atlsimpstr.h

; 519  : 		return( GetData()->nDataLength );

  00088	8b 00		 mov	 eax, DWORD PTR [eax]
  0008a	8b 70 f4	 mov	 esi, DWORD PTR [eax-12]
; File D:\git\src\IBK\IBK_DRFN\ProjSrc\SrcChartEx\ChartOCX\Include_Chart\ScaleCalculator.cpp

; 145  : 		if(scaleCompart.GetDateCompart().GetLength() > 1)

  0008d	ff 15 00 00 00
	00		 call	 DWORD PTR __imp_??1?$CStringT@DV?$StrTraitMFC_DLL@DV?$ChTraitsCRT@D@ATL@@@@@ATL@@QAE@XZ
  00093	83 fe 01	 cmp	 esi, 1
  00096	7e 3b		 jle	 SHORT $LN3@GetCompart

; 146  : 			return strData_date + strData_time;

  00098	8b 75 08	 mov	 esi, DWORD PTR ___$ReturnUdt$[ebp]
  0009b	8d 45 f0	 lea	 eax, DWORD PTR _strData_time$[ebp]
  0009e	50		 push	 eax
  0009f	8d 45 ec	 lea	 eax, DWORD PTR _strData_date$[ebp]
  000a2	50		 push	 eax
  000a3	56		 push	 esi
  000a4	e8 00 00 00 00	 call	 ??HATL@@YA?AV?$CStringT@DV?$StrTraitMFC_DLL@DV?$ChTraitsCRT@D@ATL@@@@@0@ABV10@0@Z ; ATL::operator+
  000a9	83 c4 0c	 add	 esp, 12			; 0000000cH
  000ac	8d 4d f0	 lea	 ecx, DWORD PTR _strData_time$[ebp]
  000af	ff 15 00 00 00
	00		 call	 DWORD PTR __imp_??1?$CStringT@DV?$StrTraitMFC_DLL@DV?$ChTraitsCRT@D@ATL@@@@@ATL@@QAE@XZ
  000b5	8d 4d ec	 lea	 ecx, DWORD PTR _strData_date$[ebp]
  000b8	ff 15 00 00 00
	00		 call	 DWORD PTR __imp_??1?$CStringT@DV?$StrTraitMFC_DLL@DV?$ChTraitsCRT@D@ATL@@@@@ATL@@QAE@XZ
  000be	8b c6		 mov	 eax, esi

; 152  : }

  000c0	8b 4d f4	 mov	 ecx, DWORD PTR __$EHRec$[ebp]
  000c3	64 89 0d 00 00
	00 00		 mov	 DWORD PTR fs:0, ecx
  000ca	59		 pop	 ecx
  000cb	5f		 pop	 edi
  000cc	5e		 pop	 esi
  000cd	8b e5		 mov	 esp, ebp
  000cf	5d		 pop	 ebp
  000d0	c2 10 00	 ret	 16			; 00000010H
$LN3@GetCompart:

; 147  : 		return strData_date + scaleCompart.GetDateCompart() + strData_time;

  000d3	8d 45 10	 lea	 eax, DWORD PTR $T2[ebp]
  000d6	8b cf		 mov	 ecx, edi
  000d8	50		 push	 eax
  000d9	ff 15 00 00 00
	00		 call	 DWORD PTR __imp_?GetDateCompart@CScaleCompart@@QBE?AV?$CStringT@DV?$StrTraitMFC_DLL@DV?$ChTraitsCRT@D@ATL@@@@@ATL@@XZ
  000df	50		 push	 eax
  000e0	8d 45 ec	 lea	 eax, DWORD PTR _strData_date$[ebp]
  000e3	c6 45 fc 02	 mov	 BYTE PTR __$EHRec$[ebp+8], 2
  000e7	50		 push	 eax
  000e8	8d 45 14	 lea	 eax, DWORD PTR $T3[ebp]
  000eb	50		 push	 eax
  000ec	e8 00 00 00 00	 call	 ??HATL@@YA?AV?$CStringT@DV?$StrTraitMFC_DLL@DV?$ChTraitsCRT@D@ATL@@@@@0@ABV10@0@Z ; ATL::operator+
  000f1	8b 75 08	 mov	 esi, DWORD PTR ___$ReturnUdt$[ebp]
  000f4	8d 4d f0	 lea	 ecx, DWORD PTR _strData_time$[ebp]
  000f7	51		 push	 ecx
  000f8	50		 push	 eax
  000f9	56		 push	 esi
  000fa	c6 45 fc 03	 mov	 BYTE PTR __$EHRec$[ebp+8], 3
  000fe	e8 00 00 00 00	 call	 ??HATL@@YA?AV?$CStringT@DV?$StrTraitMFC_DLL@DV?$ChTraitsCRT@D@ATL@@@@@0@ABV10@0@Z ; ATL::operator+
  00103	83 c4 18	 add	 esp, 24			; 00000018H
  00106	8d 4d 14	 lea	 ecx, DWORD PTR $T3[ebp]
  00109	ff 15 00 00 00
	00		 call	 DWORD PTR __imp_??1?$CStringT@DV?$StrTraitMFC_DLL@DV?$ChTraitsCRT@D@ATL@@@@@ATL@@QAE@XZ
  0010f	8d 4d 10	 lea	 ecx, DWORD PTR $T2[ebp]
  00112	ff 15 00 00 00
	00		 call	 DWORD PTR __imp_??1?$CStringT@DV?$StrTraitMFC_DLL@DV?$ChTraitsCRT@D@ATL@@@@@ATL@@QAE@XZ
  00118	8d 4d f0	 lea	 ecx, DWORD PTR _strData_time$[ebp]
  0011b	ff 15 00 00 00
	00		 call	 DWORD PTR __imp_??1?$CStringT@DV?$StrTraitMFC_DLL@DV?$ChTraitsCRT@D@ATL@@@@@ATL@@QAE@XZ
  00121	8d 4d ec	 lea	 ecx, DWORD PTR _strData_date$[ebp]
  00124	ff 15 00 00 00
	00		 call	 DWORD PTR __imp_??1?$CStringT@DV?$StrTraitMFC_DLL@DV?$ChTraitsCRT@D@ATL@@@@@ATL@@QAE@XZ
  0012a	8b c6		 mov	 eax, esi

; 152  : }

  0012c	8b 4d f4	 mov	 ecx, DWORD PTR __$EHRec$[ebp]
  0012f	64 89 0d 00 00
	00 00		 mov	 DWORD PTR fs:0, ecx
  00136	59		 pop	 ecx
  00137	5f		 pop	 edi
  00138	5e		 pop	 esi
  00139	8b e5		 mov	 esp, ebp
  0013b	5d		 pop	 ebp
  0013c	c2 10 00	 ret	 16			; 00000010H
$LN35@GetCompart:

; 148  : 	}
; 149  : 	if(!strData_date.IsEmpty())
; 150  : 		return strData_date;

  0013f	8d 45 ec	 lea	 eax, DWORD PTR _strData_date$[ebp]
  00142	eb 03		 jmp	 SHORT $LN37@GetCompart
$LN4@GetCompart:

; 151  : 	return strData_time;

  00144	8d 45 f0	 lea	 eax, DWORD PTR _strData_time$[ebp]
$LN37@GetCompart:

; 152  : }

  00147	8b 4d 08	 mov	 ecx, DWORD PTR ___$ReturnUdt$[ebp]
  0014a	50		 push	 eax
  0014b	ff 15 00 00 00
	00		 call	 DWORD PTR __imp_??0?$CStringT@DV?$StrTraitMFC_DLL@DV?$ChTraitsCRT@D@ATL@@@@@ATL@@QAE@ABV01@@Z
  00151	8d 4d f0	 lea	 ecx, DWORD PTR _strData_time$[ebp]
  00154	ff 15 00 00 00
	00		 call	 DWORD PTR __imp_??1?$CStringT@DV?$StrTraitMFC_DLL@DV?$ChTraitsCRT@D@ATL@@@@@ATL@@QAE@XZ
  0015a	8d 4d ec	 lea	 ecx, DWORD PTR _strData_date$[ebp]
  0015d	ff 15 00 00 00
	00		 call	 DWORD PTR __imp_??1?$CStringT@DV?$StrTraitMFC_DLL@DV?$ChTraitsCRT@D@ATL@@@@@ATL@@QAE@XZ
  00163	8b 45 08	 mov	 eax, DWORD PTR ___$ReturnUdt$[ebp]
  00166	8b 4d f4	 mov	 ecx, DWORD PTR __$EHRec$[ebp]
  00169	64 89 0d 00 00
	00 00		 mov	 DWORD PTR fs:0, ecx
  00170	59		 pop	 ecx
  00171	5f		 pop	 edi
  00172	5e		 pop	 esi
  00173	8b e5		 mov	 esp, ebp
  00175	5d		 pop	 ebp
  00176	c2 10 00	 ret	 16			; 00000010H
_TEXT	ENDS
;	COMDAT text$x
text$x	SEGMENT
__unwindfunclet$?GetCompartScaleTime_One@CScaleCalculator@@AAE?AV?$CStringT@DV?$StrTraitMFC_DLL@DV?$ChTraitsCRT@D@ATL@@@@@ATL@@ABV23@0ABVCScaleCompart@@@Z$0:
  00000	8d 4d ec	 lea	 ecx, DWORD PTR _strData_date$[ebp]
  00003	ff 25 00 00 00
	00		 jmp	 DWORD PTR __imp_??1?$CStringT@DV?$StrTraitMFC_DLL@DV?$ChTraitsCRT@D@ATL@@@@@ATL@@QAE@XZ
__unwindfunclet$?GetCompartScaleTime_One@CScaleCalculator@@AAE?AV?$CStringT@DV?$StrTraitMFC_DLL@DV?$ChTraitsCRT@D@ATL@@@@@ATL@@ABV23@0ABVCScaleCompart@@@Z$1:
  00009	8d 4d f0	 lea	 ecx, DWORD PTR _strData_time$[ebp]
  0000c	ff 25 00 00 00
	00		 jmp	 DWORD PTR __imp_??1?$CStringT@DV?$StrTraitMFC_DLL@DV?$ChTraitsCRT@D@ATL@@@@@ATL@@QAE@XZ
__unwindfunclet$?GetCompartScaleTime_One@CScaleCalculator@@AAE?AV?$CStringT@DV?$StrTraitMFC_DLL@DV?$ChTraitsCRT@D@ATL@@@@@ATL@@ABV23@0ABVCScaleCompart@@@Z$4:
  00012	8d 4d 10	 lea	 ecx, DWORD PTR $T2[ebp]
  00015	ff 25 00 00 00
	00		 jmp	 DWORD PTR __imp_??1?$CStringT@DV?$StrTraitMFC_DLL@DV?$ChTraitsCRT@D@ATL@@@@@ATL@@QAE@XZ
__unwindfunclet$?GetCompartScaleTime_One@CScaleCalculator@@AAE?AV?$CStringT@DV?$StrTraitMFC_DLL@DV?$ChTraitsCRT@D@ATL@@@@@ATL@@ABV23@0ABVCScaleCompart@@@Z$5:
  0001b	8d 4d 14	 lea	 ecx, DWORD PTR $T3[ebp]
  0001e	ff 25 00 00 00
	00		 jmp	 DWORD PTR __imp_??1?$CStringT@DV?$StrTraitMFC_DLL@DV?$ChTraitsCRT@D@ATL@@@@@ATL@@QAE@XZ
  00024	cc		 int	 3
  00025	cc		 int	 3
  00026	cc		 int	 3
  00027	cc		 int	 3
  00028	cc		 int	 3
__ehhandler$?GetCompartScaleTime_One@CScaleCalculator@@AAE?AV?$CStringT@DV?$StrTraitMFC_DLL@DV?$ChTraitsCRT@D@ATL@@@@@ATL@@ABV23@0ABVCScaleCompart@@@Z:
  00029	90		 npad	 1
  0002a	90		 npad	 1
  0002b	8b 54 24 08	 mov	 edx, DWORD PTR [esp+8]
  0002f	8d 42 0c	 lea	 eax, DWORD PTR [edx+12]
  00032	8b 4a ec	 mov	 ecx, DWORD PTR [edx-20]
  00035	33 c8		 xor	 ecx, eax
  00037	e8 00 00 00 00	 call	 @__security_check_cookie@4
  0003c	b8 00 00 00 00	 mov	 eax, OFFSET __ehfuncinfo$?GetCompartScaleTime_One@CScaleCalculator@@AAE?AV?$CStringT@DV?$StrTraitMFC_DLL@DV?$ChTraitsCRT@D@ATL@@@@@ATL@@ABV23@0ABVCScaleCompart@@@Z
  00041	e9 00 00 00 00	 jmp	 ___CxxFrameHandler3
text$x	ENDS
?GetCompartScaleTime_One@CScaleCalculator@@AAE?AV?$CStringT@DV?$StrTraitMFC_DLL@DV?$ChTraitsCRT@D@ATL@@@@@ATL@@ABV23@0ABVCScaleCompart@@@Z ENDP ; CScaleCalculator::GetCompartScaleTime_One
; Function compile flags: /Ogtp
; File D:\git\src\IBK\IBK_DRFN\ProjSrc\SrcChartEx\ChartOCX\Include_Chart\ScaleCalculator.cpp
; File D:\git\src\IBK\IBK_DRFN\ProjSrc\SrcChartEx\ChartOCX\Include_Chart\Conversion.h
; File D:\git\src\IBK\IBK_DRFN\ProjSrc\SrcChartEx\ChartOCX\Include_Chart\ScaleCalculator.cpp
; File D:\git\src\IBK\IBK_DRFN\ProjSrc\SrcChartEx\ChartOCX\Include_Chart\Conversion.h
; File D:\git\src\IBK\IBK_DRFN\ProjSrc\SrcChartEx\ChartOCX\Include_Chart\ScaleCalculator.cpp
; File D:\git\src\IBK\IBK_DRFN\ProjSrc\SrcChartEx\ChartOCX\Include_Chart\Conversion.h
; File D:\git\src\IBK\IBK_DRFN\ProjSrc\SrcChartEx\ChartOCX\Include_Chart\ScaleCalculator.cpp
;	COMDAT ?GetPacketDataInTimeOut@CScaleCalculator@@AAE_NABV?$CStringT@DV?$StrTraitMFC_DLL@DV?$ChTraitsCRT@D@ATL@@@@@ATL@@AAV23@@Z
_TEXT	SEGMENT
$T2 = -24						; size = 8
_strSpecialTime$ = -16					; size = 4
__$EHRec$ = -12						; size = 12
_dataType$ = 8						; size = 4
_realPacketData$ = 12					; size = 4
?GetPacketDataInTimeOut@CScaleCalculator@@AAE_NABV?$CStringT@DV?$StrTraitMFC_DLL@DV?$ChTraitsCRT@D@ATL@@@@@ATL@@AAV23@@Z PROC ; CScaleCalculator::GetPacketDataInTimeOut, COMDAT
; _this$ = ecx

; 129  : {

  00000	55		 push	 ebp
  00001	8b ec		 mov	 ebp, esp
  00003	6a ff		 push	 -1
  00005	68 00 00 00 00	 push	 __ehhandler$?GetPacketDataInTimeOut@CScaleCalculator@@AAE_NABV?$CStringT@DV?$StrTraitMFC_DLL@DV?$ChTraitsCRT@D@ATL@@@@@ATL@@AAV23@@Z
  0000a	64 a1 00 00 00
	00		 mov	 eax, DWORD PTR fs:0
  00010	50		 push	 eax
  00011	83 ec 0c	 sub	 esp, 12			; 0000000cH
  00014	53		 push	 ebx
  00015	56		 push	 esi
  00016	a1 00 00 00 00	 mov	 eax, DWORD PTR ___security_cookie
  0001b	33 c5		 xor	 eax, ebp
  0001d	50		 push	 eax
  0001e	8d 45 f4	 lea	 eax, DWORD PTR __$EHRec$[ebp]
  00021	64 a3 00 00 00
	00		 mov	 DWORD PTR fs:0, eax
  00027	8b f1		 mov	 esi, ecx

; 130  : 	CString strSpecialTime;

  00029	8d 4d f0	 lea	 ecx, DWORD PTR _strSpecialTime$[ebp]
  0002c	ff 15 00 00 00
	00		 call	 DWORD PTR __imp_??0?$CStringT@DV?$StrTraitMFC_DLL@DV?$ChTraitsCRT@D@ATL@@@@@ATL@@QAE@XZ
; File D:\git\src\IBK\IBK_DRFN\ProjSrc\SrcChartEx\ChartOCX\Include_Chart\Conversion.h

; 27   : 		{	m_hOcxWnd = p_hOcxWnd;	m_eChartMode = p_eChartMode;	}

  00032	8b 06		 mov	 eax, DWORD PTR [esi]
; File D:\git\src\IBK\IBK_DRFN\ProjSrc\SrcChartEx\ChartOCX\Include_Chart\ScaleCalculator.cpp

; 131  : 	if(CDataConversion( m_hOcxWnd, m_eChartMode).GetSpecialTime(dataType, realPacketData, strSpecialTime))

  00034	8d 4d e8	 lea	 ecx, DWORD PTR $T2[ebp]
; File D:\git\src\IBK\IBK_DRFN\ProjSrc\SrcChartEx\ChartOCX\Include_Chart\Conversion.h

; 27   : 		{	m_hOcxWnd = p_hOcxWnd;	m_eChartMode = p_eChartMode;	}

  00037	89 45 e8	 mov	 DWORD PTR $T2[ebp], eax
  0003a	8b 46 04	 mov	 eax, DWORD PTR [esi+4]
; File D:\git\src\IBK\IBK_DRFN\ProjSrc\SrcChartEx\ChartOCX\Include_Chart\ScaleCalculator.cpp

; 131  : 	if(CDataConversion( m_hOcxWnd, m_eChartMode).GetSpecialTime(dataType, realPacketData, strSpecialTime))

  0003d	8b 75 0c	 mov	 esi, DWORD PTR _realPacketData$[ebp]
; File D:\git\src\IBK\IBK_DRFN\ProjSrc\SrcChartEx\ChartOCX\Include_Chart\Conversion.h

; 27   : 		{	m_hOcxWnd = p_hOcxWnd;	m_eChartMode = p_eChartMode;	}

  00040	89 45 ec	 mov	 DWORD PTR $T2[ebp+4], eax
; File D:\git\src\IBK\IBK_DRFN\ProjSrc\SrcChartEx\ChartOCX\Include_Chart\ScaleCalculator.cpp

; 131  : 	if(CDataConversion( m_hOcxWnd, m_eChartMode).GetSpecialTime(dataType, realPacketData, strSpecialTime))

  00043	8d 45 f0	 lea	 eax, DWORD PTR _strSpecialTime$[ebp]
  00046	50		 push	 eax
  00047	56		 push	 esi
  00048	ff 75 08	 push	 DWORD PTR _dataType$[ebp]
  0004b	c7 45 fc 00 00
	00 00		 mov	 DWORD PTR __$EHRec$[ebp+8], 0
  00052	e8 00 00 00 00	 call	 ?GetSpecialTime@CDataConversion@@QAE_NABV?$CStringT@DV?$StrTraitMFC_DLL@DV?$ChTraitsCRT@D@ATL@@@@@ATL@@0AAV23@@Z ; CDataConversion::GetSpecialTime
  00057	84 c0		 test	 al, al
  00059	74 10		 je	 SHORT $LN2@GetPacketD

; 132  : 	{
; 133  : 		realPacketData = strSpecialTime;

  0005b	8d 45 f0	 lea	 eax, DWORD PTR _strSpecialTime$[ebp]
  0005e	8b ce		 mov	 ecx, esi
  00060	50		 push	 eax
  00061	ff 15 00 00 00
	00		 call	 DWORD PTR __imp_??4?$CStringT@DV?$StrTraitMFC_DLL@DV?$ChTraitsCRT@D@ATL@@@@@ATL@@QAEAAV01@ABV01@@Z
  00067	b3 01		 mov	 bl, 1
  00069	eb 02		 jmp	 SHORT $LN5@GetPacketD
$LN2@GetPacketD:

; 134  : 		return true;
; 135  : 	}
; 136  : 	return false;

  0006b	32 db		 xor	 bl, bl
$LN5@GetPacketD:
  0006d	8d 4d f0	 lea	 ecx, DWORD PTR _strSpecialTime$[ebp]
  00070	ff 15 00 00 00
	00		 call	 DWORD PTR __imp_??1?$CStringT@DV?$StrTraitMFC_DLL@DV?$ChTraitsCRT@D@ATL@@@@@ATL@@QAE@XZ
  00076	8a c3		 mov	 al, bl

; 137  : }

  00078	8b 4d f4	 mov	 ecx, DWORD PTR __$EHRec$[ebp]
  0007b	64 89 0d 00 00
	00 00		 mov	 DWORD PTR fs:0, ecx
  00082	59		 pop	 ecx
  00083	5e		 pop	 esi
  00084	5b		 pop	 ebx
  00085	8b e5		 mov	 esp, ebp
  00087	5d		 pop	 ebp
  00088	c2 08 00	 ret	 8
_TEXT	ENDS
;	COMDAT text$x
text$x	SEGMENT
__unwindfunclet$?GetPacketDataInTimeOut@CScaleCalculator@@AAE_NABV?$CStringT@DV?$StrTraitMFC_DLL@DV?$ChTraitsCRT@D@ATL@@@@@ATL@@AAV23@@Z$0:
  00000	8d 4d f0	 lea	 ecx, DWORD PTR _strSpecialTime$[ebp]
  00003	ff 25 00 00 00
	00		 jmp	 DWORD PTR __imp_??1?$CStringT@DV?$StrTraitMFC_DLL@DV?$ChTraitsCRT@D@ATL@@@@@ATL@@QAE@XZ
  00009	cc		 int	 3
  0000a	cc		 int	 3
  0000b	cc		 int	 3
  0000c	cc		 int	 3
  0000d	cc		 int	 3
__ehhandler$?GetPacketDataInTimeOut@CScaleCalculator@@AAE_NABV?$CStringT@DV?$StrTraitMFC_DLL@DV?$ChTraitsCRT@D@ATL@@@@@ATL@@AAV23@@Z:
  0000e	90		 npad	 1
  0000f	90		 npad	 1
  00010	8b 54 24 08	 mov	 edx, DWORD PTR [esp+8]
  00014	8d 42 0c	 lea	 eax, DWORD PTR [edx+12]
  00017	8b 4a e8	 mov	 ecx, DWORD PTR [edx-24]
  0001a	33 c8		 xor	 ecx, eax
  0001c	e8 00 00 00 00	 call	 @__security_check_cookie@4
  00021	b8 00 00 00 00	 mov	 eax, OFFSET __ehfuncinfo$?GetPacketDataInTimeOut@CScaleCalculator@@AAE_NABV?$CStringT@DV?$StrTraitMFC_DLL@DV?$ChTraitsCRT@D@ATL@@@@@ATL@@AAV23@@Z
  00026	e9 00 00 00 00	 jmp	 ___CxxFrameHandler3
text$x	ENDS
?GetPacketDataInTimeOut@CScaleCalculator@@AAE_NABV?$CStringT@DV?$StrTraitMFC_DLL@DV?$ChTraitsCRT@D@ATL@@@@@ATL@@AAV23@@Z ENDP ; CScaleCalculator::GetPacketDataInTimeOut
; Function compile flags: /Ogtp
; File D:\git\src\IBK\IBK_DRFN\ProjSrc\SrcChartEx\ChartOCX\Include_Chart\ScaleCalculator.cpp
; File C:\Program Files (x86)\Microsoft Visual Studio\2019\Community\VC\Tools\MSVC\14.29.30133\atlmfc\include\atlsimpstr.h
; File D:\git\src\IBK\IBK_DRFN\ProjSrc\SrcChartEx\ChartOCX\Include_Chart\ScaleCalculator.cpp
; File C:\Program Files (x86)\Microsoft Visual Studio\2019\Community\VC\Tools\MSVC\14.29.30133\atlmfc\include\atlsimpstr.h
; File D:\git\src\IBK\IBK_DRFN\ProjSrc\SrcChartEx\ChartOCX\Include_Chart\ScaleCalculator.cpp
; File C:\Program Files (x86)\Microsoft Visual Studio\2019\Community\VC\Tools\MSVC\14.29.30133\atlmfc\include\cstringt.h
; File D:\git\src\IBK\IBK_DRFN\ProjSrc\SrcChartEx\ChartOCX\Include_Chart\ScaleCalculator.cpp
; File C:\Program Files (x86)\Microsoft Visual Studio\2019\Community\VC\Tools\MSVC\14.29.30133\atlmfc\include\cstringt.h
; File C:\Program Files (x86)\Microsoft Visual Studio\2019\Community\VC\Tools\MSVC\14.29.30133\atlmfc\include\atlsimpstr.h
; File C:\Program Files (x86)\Microsoft Visual Studio\2019\Community\VC\Tools\MSVC\14.29.30133\atlmfc\include\cstringt.h
; File D:\git\src\IBK\IBK_DRFN\ProjSrc\SrcChartEx\ChartOCX\Include_Chart\ScaleCalculator.cpp
;	COMDAT ?GetRealPacketData@CScaleCalculator@@CA?AV?$CStringT@DV?$StrTraitMFC_DLL@DV?$ChTraitsCRT@D@ATL@@@@@ATL@@ABV23@H@Z
_TEXT	SEGMENT
$T2 = -16						; size = 4
__$EHRec$ = -12						; size = 12
___$ReturnUdt$ = 8					; size = 4
_temp$ = 12						; size = 4
_packetData$ = 12					; size = 4
_nLength$ = 16						; size = 4
?GetRealPacketData@CScaleCalculator@@CA?AV?$CStringT@DV?$StrTraitMFC_DLL@DV?$ChTraitsCRT@D@ATL@@@@@ATL@@ABV23@H@Z PROC ; CScaleCalculator::GetRealPacketData, COMDAT

; 110  : {

  00000	55		 push	 ebp
  00001	8b ec		 mov	 ebp, esp
  00003	6a ff		 push	 -1
  00005	68 00 00 00 00	 push	 __ehhandler$?GetRealPacketData@CScaleCalculator@@CA?AV?$CStringT@DV?$StrTraitMFC_DLL@DV?$ChTraitsCRT@D@ATL@@@@@ATL@@ABV23@H@Z
  0000a	64 a1 00 00 00
	00		 mov	 eax, DWORD PTR fs:0
  00010	50		 push	 eax
  00011	51		 push	 ecx
  00012	53		 push	 ebx
  00013	56		 push	 esi
  00014	57		 push	 edi
  00015	a1 00 00 00 00	 mov	 eax, DWORD PTR ___security_cookie
  0001a	33 c5		 xor	 eax, ebp
  0001c	50		 push	 eax
  0001d	8d 45 f4	 lea	 eax, DWORD PTR __$EHRec$[ebp]
  00020	64 a3 00 00 00
	00		 mov	 DWORD PTR fs:0, eax
  00026	8b 5d 10	 mov	 ebx, DWORD PTR _nLength$[ebp]
  00029	c7 45 f0 00 00
	00 00		 mov	 DWORD PTR $T2[ebp], 0
; File C:\Program Files (x86)\Microsoft Visual Studio\2019\Community\VC\Tools\MSVC\14.29.30133\atlmfc\include\atlsimpstr.h

; 519  : 		return( GetData()->nDataLength );

  00030	8b 7d 0c	 mov	 edi, DWORD PTR _packetData$[ebp]
  00033	8b 07		 mov	 eax, DWORD PTR [edi]
  00035	8b 40 f4	 mov	 eax, DWORD PTR [eax-12]

; 533  : 		return( GetLength() == 0 );

  00038	85 c0		 test	 eax, eax
; File D:\git\src\IBK\IBK_DRFN\ProjSrc\SrcChartEx\ChartOCX\Include_Chart\ScaleCalculator.cpp

; 111  : 	if(packetData.IsEmpty() || packetData.GetLength() == nLength)

  0003a	0f 84 be 00 00
	00		 je	 $LN6@GetRealPac
  00040	3b c3		 cmp	 eax, ebx
  00042	0f 84 b6 00 00
	00		 je	 $LN6@GetRealPac

; 113  : 
; 114  : 	if(packetData.GetLength() > nLength)

  00048	7e 21		 jle	 SHORT $LN7@GetRealPac

; 115  : 		return packetData.Left(nLength);

  0004a	8b 75 08	 mov	 esi, DWORD PTR ___$ReturnUdt$[ebp]
  0004d	8b cf		 mov	 ecx, edi
  0004f	53		 push	 ebx
  00050	56		 push	 esi
  00051	ff 15 00 00 00
	00		 call	 DWORD PTR __imp_?Left@?$CStringT@DV?$StrTraitMFC_DLL@DV?$ChTraitsCRT@D@ATL@@@@@ATL@@QBE?AV12@H@Z
  00057	8b c6		 mov	 eax, esi

; 123  : }

  00059	8b 4d f4	 mov	 ecx, DWORD PTR __$EHRec$[ebp]
  0005c	64 89 0d 00 00
	00 00		 mov	 DWORD PTR fs:0, ecx
  00063	59		 pop	 ecx
  00064	5f		 pop	 edi
  00065	5e		 pop	 esi
  00066	5b		 pop	 ebx
  00067	8b e5		 mov	 esp, ebp
  00069	5d		 pop	 ebp
  0006a	c3		 ret	 0
$LN7@GetRealPac:

; 116  : 
; 117  : 	CString temp;

  0006b	8d 4d 0c	 lea	 ecx, DWORD PTR _temp$[ebp]
  0006e	ff 15 00 00 00
	00		 call	 DWORD PTR __imp_??0?$CStringT@DV?$StrTraitMFC_DLL@DV?$ChTraitsCRT@D@ATL@@@@@ATL@@QAE@XZ
; File C:\Program Files (x86)\Microsoft Visual Studio\2019\Community\VC\Tools\MSVC\14.29.30133\atlmfc\include\atlsimpstr.h

; 519  : 		return( GetData()->nDataLength );

  00074	8b 07		 mov	 eax, DWORD PTR [edi]
; File D:\git\src\IBK\IBK_DRFN\ProjSrc\SrcChartEx\ChartOCX\Include_Chart\ScaleCalculator.cpp

; 118  : 	for(int i = 0; i < (nLength - packetData.GetLength()); i++){

  00076	8b cb		 mov	 ecx, ebx
  00078	33 f6		 xor	 esi, esi
  0007a	c7 45 fc 00 00
	00 00		 mov	 DWORD PTR __$EHRec$[ebp+8], 0
  00081	2b 48 f4	 sub	 ecx, DWORD PTR [eax-12]
  00084	85 c9		 test	 ecx, ecx
  00086	7e 22		 jle	 SHORT $LN3@GetRealPac
  00088	0f 1f 84 00 00
	00 00 00	 npad	 8
$LL4@GetRealPac:

; 119  : 		temp += "0";

  00090	68 00 00 00 00	 push	 OFFSET ??_C@_01GBGANLPD@0@
  00095	8d 4d 0c	 lea	 ecx, DWORD PTR _temp$[ebp]
  00098	ff 15 00 00 00
	00		 call	 DWORD PTR __imp_??Y?$CStringT@DV?$StrTraitMFC_DLL@DV?$ChTraitsCRT@D@ATL@@@@@ATL@@QAEAAV01@PBD@Z
  0009e	8b 07		 mov	 eax, DWORD PTR [edi]
  000a0	8b cb		 mov	 ecx, ebx
  000a2	46		 inc	 esi
  000a3	2b 48 f4	 sub	 ecx, DWORD PTR [eax-12]
  000a6	3b f1		 cmp	 esi, ecx
  000a8	7c e6		 jl	 SHORT $LL4@GetRealPac
$LN3@GetRealPac:
; File C:\Program Files (x86)\Microsoft Visual Studio\2019\Community\VC\Tools\MSVC\14.29.30133\atlmfc\include\cstringt.h

; 2390 : 		CStringT strResult( str1.GetManager() );

  000aa	8d 4d 0c	 lea	 ecx, DWORD PTR _temp$[ebp]
; File D:\git\src\IBK\IBK_DRFN\ProjSrc\SrcChartEx\ChartOCX\Include_Chart\ScaleCalculator.cpp

; 122  : 	return (temp + packetData);

  000ad	c6 45 fc 01	 mov	 BYTE PTR __$EHRec$[ebp+8], 1
; File C:\Program Files (x86)\Microsoft Visual Studio\2019\Community\VC\Tools\MSVC\14.29.30133\atlmfc\include\cstringt.h

; 2390 : 		CStringT strResult( str1.GetManager() );

  000b1	ff 15 00 00 00
	00		 call	 DWORD PTR __imp_?GetManager@?$CStringT@DV?$StrTraitMFC_DLL@DV?$ChTraitsCRT@D@ATL@@@@@ATL@@QBEPAUIAtlStringMgr@2@XZ
  000b7	8b 75 08	 mov	 esi, DWORD PTR ___$ReturnUdt$[ebp]
  000ba	8b ce		 mov	 ecx, esi
  000bc	50		 push	 eax
  000bd	ff 15 00 00 00
	00		 call	 DWORD PTR __imp_??0?$CStringT@DV?$StrTraitMFC_DLL@DV?$ChTraitsCRT@D@ATL@@@@@ATL@@QAE@PAUIAtlStringMgr@1@@Z
; File C:\Program Files (x86)\Microsoft Visual Studio\2019\Community\VC\Tools\MSVC\14.29.30133\atlmfc\include\atlsimpstr.h

; 519  : 		return( GetData()->nDataLength );

  000c3	8b 07		 mov	 eax, DWORD PTR [edi]
; File C:\Program Files (x86)\Microsoft Visual Studio\2019\Community\VC\Tools\MSVC\14.29.30133\atlmfc\include\cstringt.h

; 2392 : 		CThisSimpleString::Concatenate( strResult, str1, str1.GetLength(), str2, str2.GetLength() );

  000c5	8b 4d 0c	 mov	 ecx, DWORD PTR _temp$[ebp]

; 2393 : 
; 2394 : 		return( strResult );

  000c8	c7 45 f0 02 00
	00 00		 mov	 DWORD PTR $T2[ebp], 2
  000cf	ff 70 f4	 push	 DWORD PTR [eax-12]
  000d2	50		 push	 eax
  000d3	ff 71 f4	 push	 DWORD PTR [ecx-12]
  000d6	51		 push	 ecx
  000d7	56		 push	 esi
  000d8	ff 15 00 00 00
	00		 call	 DWORD PTR __imp_?Concatenate@?$CSimpleStringT@D$00@ATL@@KAXAAV12@PBDH1H@Z
  000de	83 c4 14	 add	 esp, 20			; 00000014H
; File D:\git\src\IBK\IBK_DRFN\ProjSrc\SrcChartEx\ChartOCX\Include_Chart\ScaleCalculator.cpp

; 122  : 	return (temp + packetData);

  000e1	8d 4d 0c	 lea	 ecx, DWORD PTR _temp$[ebp]
  000e4	ff 15 00 00 00
	00		 call	 DWORD PTR __imp_??1?$CStringT@DV?$StrTraitMFC_DLL@DV?$ChTraitsCRT@D@ATL@@@@@ATL@@QAE@XZ
  000ea	8b c6		 mov	 eax, esi

; 123  : }

  000ec	8b 4d f4	 mov	 ecx, DWORD PTR __$EHRec$[ebp]
  000ef	64 89 0d 00 00
	00 00		 mov	 DWORD PTR fs:0, ecx
  000f6	59		 pop	 ecx
  000f7	5f		 pop	 edi
  000f8	5e		 pop	 esi
  000f9	5b		 pop	 ebx
  000fa	8b e5		 mov	 esp, ebp
  000fc	5d		 pop	 ebp
  000fd	c3		 ret	 0
$LN6@GetRealPac:

; 112  : 		return packetData;

  000fe	8b 4d 08	 mov	 ecx, DWORD PTR ___$ReturnUdt$[ebp]
  00101	57		 push	 edi
  00102	ff 15 00 00 00
	00		 call	 DWORD PTR __imp_??0?$CStringT@DV?$StrTraitMFC_DLL@DV?$ChTraitsCRT@D@ATL@@@@@ATL@@QAE@ABV01@@Z
  00108	8b 45 08	 mov	 eax, DWORD PTR ___$ReturnUdt$[ebp]

; 123  : }

  0010b	8b 4d f4	 mov	 ecx, DWORD PTR __$EHRec$[ebp]
  0010e	64 89 0d 00 00
	00 00		 mov	 DWORD PTR fs:0, ecx
  00115	59		 pop	 ecx
  00116	5f		 pop	 edi
  00117	5e		 pop	 esi
  00118	5b		 pop	 ebx
  00119	8b e5		 mov	 esp, ebp
  0011b	5d		 pop	 ebp
  0011c	c3		 ret	 0
_TEXT	ENDS
;	COMDAT text$x
text$x	SEGMENT
__unwindfunclet$?GetRealPacketData@CScaleCalculator@@CA?AV?$CStringT@DV?$StrTraitMFC_DLL@DV?$ChTraitsCRT@D@ATL@@@@@ATL@@ABV23@H@Z$1:
  00000	8d 4d 0c	 lea	 ecx, DWORD PTR _temp$[ebp]
  00003	ff 25 00 00 00
	00		 jmp	 DWORD PTR __imp_??1?$CStringT@DV?$StrTraitMFC_DLL@DV?$ChTraitsCRT@D@ATL@@@@@ATL@@QAE@XZ
__unwindfunclet$?GetRealPacketData@CScaleCalculator@@CA?AV?$CStringT@DV?$StrTraitMFC_DLL@DV?$ChTraitsCRT@D@ATL@@@@@ATL@@ABV23@H@Z$2:
  00009	8b 45 f0	 mov	 eax, DWORD PTR $T2[ebp]
  0000c	83 e0 02	 and	 eax, 2
  0000f	0f 84 0d 00 00
	00		 je	 $LN33@GetRealPac
  00015	83 65 f0 fd	 and	 DWORD PTR $T2[ebp], -3	; fffffffdH
  00019	8b 4d 08	 mov	 ecx, DWORD PTR ___$ReturnUdt$[ebp]
  0001c	ff 25 00 00 00
	00		 jmp	 DWORD PTR __imp_??1?$CStringT@DV?$StrTraitMFC_DLL@DV?$ChTraitsCRT@D@ATL@@@@@ATL@@QAE@XZ
$LN33@GetRealPac:
  00022	c3		 ret	 0
  00023	cc		 int	 3
  00024	cc		 int	 3
  00025	cc		 int	 3
  00026	cc		 int	 3
  00027	cc		 int	 3
__ehhandler$?GetRealPacketData@CScaleCalculator@@CA?AV?$CStringT@DV?$StrTraitMFC_DLL@DV?$ChTraitsCRT@D@ATL@@@@@ATL@@ABV23@H@Z:
  00028	90		 npad	 1
  00029	90		 npad	 1
  0002a	8b 54 24 08	 mov	 edx, DWORD PTR [esp+8]
  0002e	8d 42 0c	 lea	 eax, DWORD PTR [edx+12]
  00031	8b 4a ec	 mov	 ecx, DWORD PTR [edx-20]
  00034	33 c8		 xor	 ecx, eax
  00036	e8 00 00 00 00	 call	 @__security_check_cookie@4
  0003b	b8 00 00 00 00	 mov	 eax, OFFSET __ehfuncinfo$?GetRealPacketData@CScaleCalculator@@CA?AV?$CStringT@DV?$StrTraitMFC_DLL@DV?$ChTraitsCRT@D@ATL@@@@@ATL@@ABV23@H@Z
  00040	e9 00 00 00 00	 jmp	 ___CxxFrameHandler3
text$x	ENDS
?GetRealPacketData@CScaleCalculator@@CA?AV?$CStringT@DV?$StrTraitMFC_DLL@DV?$ChTraitsCRT@D@ATL@@@@@ATL@@ABV23@H@Z ENDP ; CScaleCalculator::GetRealPacketData
; Function compile flags: /Ogtp
; File D:\git\src\IBK\IBK_DRFN\ProjSrc\SrcChartEx\ChartOCX\Include_Chart\ScaleCalculator.cpp
; File C:\Program Files (x86)\Microsoft Visual Studio\2019\Community\VC\Tools\MSVC\14.29.30133\atlmfc\include\atlsimpstr.h
; File C:\Program Files (x86)\Microsoft Visual Studio\2019\Community\VC\Tools\MSVC\14.29.30133\atlmfc\include\afxwin1.inl
; File C:\Program Files (x86)\Microsoft Visual Studio\2019\Community\VC\Tools\MSVC\14.29.30133\atlmfc\include\atlsimpstr.h
; File C:\Program Files (x86)\Microsoft Visual Studio\2019\Community\VC\Tools\MSVC\14.29.30133\atlmfc\include\afxwin1.inl
; File C:\Program Files (x86)\Microsoft Visual Studio\2019\Community\VC\Tools\MSVC\14.29.30133\atlmfc\include\atltypes.h
; File D:\git\src\IBK\IBK_DRFN\ProjSrc\SrcChartEx\ChartOCX\Include_Chart\ScaleCalculator.cpp
; File C:\Program Files (x86)\Microsoft Visual Studio\2019\Community\VC\Tools\MSVC\14.29.30133\atlmfc\include\atltypes.h
; File D:\git\src\IBK\IBK_DRFN\ProjSrc\SrcChartEx\ChartOCX\Include_Chart\ScaleCalculator.cpp
;	COMDAT ?GetTextSize@CScaleCalculator@@SA?AVCSize@@PAVCDC@@ABV?$CStringT@DV?$StrTraitMFC_DLL@DV?$ChTraitsCRT@D@ATL@@@@@ATL@@HH@Z
_TEXT	SEGMENT
_size$1 = -8						; size = 8
___$ReturnUdt$ = 8					; size = 4
_pDC$ = 12						; size = 4
_data$ = 16						; size = 4
_xCount$ = 20						; size = 4
_yCount$ = 24						; size = 4
?GetTextSize@CScaleCalculator@@SA?AVCSize@@PAVCDC@@ABV?$CStringT@DV?$StrTraitMFC_DLL@DV?$ChTraitsCRT@D@ATL@@@@@ATL@@HH@Z PROC ; CScaleCalculator::GetTextSize, COMDAT

; 99   : {

  00000	55		 push	 ebp
  00001	8b ec		 mov	 ebp, esp
  00003	83 ec 08	 sub	 esp, 8
; File C:\Program Files (x86)\Microsoft Visual Studio\2019\Community\VC\Tools\MSVC\14.29.30133\atlmfc\include\atlsimpstr.h

; 519  : 		return( GetData()->nDataLength );

  00006	8b 45 10	 mov	 eax, DWORD PTR _data$[ebp]
; File C:\Program Files (x86)\Microsoft Visual Studio\2019\Community\VC\Tools\MSVC\14.29.30133\atlmfc\include\afxwin1.inl

; 639  : 		VERIFY(::GetTextExtentPoint32(m_hAttribDC, str, (int)str.GetLength(), &size));

  00009	8d 4d f8	 lea	 ecx, DWORD PTR _size$1[ebp]
  0000c	51		 push	 ecx
; File C:\Program Files (x86)\Microsoft Visual Studio\2019\Community\VC\Tools\MSVC\14.29.30133\atlmfc\include\atlsimpstr.h

; 519  : 		return( GetData()->nDataLength );

  0000d	8b 00		 mov	 eax, DWORD PTR [eax]
; File C:\Program Files (x86)\Microsoft Visual Studio\2019\Community\VC\Tools\MSVC\14.29.30133\atlmfc\include\afxwin1.inl

; 639  : 		VERIFY(::GetTextExtentPoint32(m_hAttribDC, str, (int)str.GetLength(), &size));

  0000f	ff 70 f4	 push	 DWORD PTR [eax-12]
  00012	50		 push	 eax
  00013	8b 45 0c	 mov	 eax, DWORD PTR _pDC$[ebp]
  00016	ff 70 08	 push	 DWORD PTR [eax+8]
  00019	ff 15 00 00 00
	00		 call	 DWORD PTR __imp__GetTextExtentPoint32A@16
; File C:\Program Files (x86)\Microsoft Visual Studio\2019\Community\VC\Tools\MSVC\14.29.30133\atlmfc\include\atltypes.h

; 318  : 	*(SIZE*)this = initSize;

  0001f	8b 4d f8	 mov	 ecx, DWORD PTR _size$1[ebp]
; File D:\git\src\IBK\IBK_DRFN\ProjSrc\SrcChartEx\ChartOCX\Include_Chart\ScaleCalculator.cpp

; 101  : 	textSize.cx = textSize.cx * xCount;

  00022	0f af 4d 14	 imul	 ecx, DWORD PTR _xCount$[ebp]
; File C:\Program Files (x86)\Microsoft Visual Studio\2019\Community\VC\Tools\MSVC\14.29.30133\atlmfc\include\atltypes.h

; 318  : 	*(SIZE*)this = initSize;

  00026	8b 45 08	 mov	 eax, DWORD PTR ___$ReturnUdt$[ebp]
  00029	8b 55 fc	 mov	 edx, DWORD PTR _size$1[ebp+4]
; File D:\git\src\IBK\IBK_DRFN\ProjSrc\SrcChartEx\ChartOCX\Include_Chart\ScaleCalculator.cpp

; 101  : 	textSize.cx = textSize.cx * xCount;

  0002c	89 08		 mov	 DWORD PTR [eax], ecx

; 102  : 	textSize.cy = textSize.cy * yCount;

  0002e	8b ca		 mov	 ecx, edx
  00030	0f af 4d 18	 imul	 ecx, DWORD PTR _yCount$[ebp]
  00034	89 48 04	 mov	 DWORD PTR [eax+4], ecx

; 103  : 
; 104  : 	return textSize;
; 105  : }

  00037	8b e5		 mov	 esp, ebp
  00039	5d		 pop	 ebp
  0003a	c3		 ret	 0
?GetTextSize@CScaleCalculator@@SA?AVCSize@@PAVCDC@@ABV?$CStringT@DV?$StrTraitMFC_DLL@DV?$ChTraitsCRT@D@ATL@@@@@ATL@@HH@Z ENDP ; CScaleCalculator::GetTextSize
_TEXT	ENDS
; Function compile flags: /Ogtp
; File D:\git\src\IBK\IBK_DRFN\ProjSrc\SrcChartEx\ChartOCX\Include_Chart\ScaleCalculator.cpp
; File C:\Program Files (x86)\Microsoft Visual Studio\2019\Community\VC\Tools\MSVC\14.29.30133\atlmfc\include\atltypes.h
; File D:\git\src\IBK\IBK_DRFN\ProjSrc\SrcChartEx\ChartOCX\Include_Chart\ScaleCalculator.cpp
; File C:\Program Files (x86)\Microsoft Visual Studio\2019\Community\VC\Tools\MSVC\14.29.30133\atlmfc\include\atltypes.h
; File D:\git\src\IBK\IBK_DRFN\ProjSrc\SrcChartEx\ChartOCX\Include_Chart\ScaleCalculator.cpp
; File C:\Program Files (x86)\Microsoft Visual Studio\2019\Community\VC\Tools\MSVC\14.29.30133\atlmfc\include\atltypes.h
; File D:\git\src\IBK\IBK_DRFN\ProjSrc\SrcChartEx\ChartOCX\Include_Chart\ScaleCalculator.cpp
;	COMDAT ?GetTextSize@CScaleCalculator@@SA?AVCSize@@W4TEXTCOMPARTTYPE@CScaleBaseData@@ABV2@HH@Z
_TEXT	SEGMENT
___$ReturnUdt$ = 8					; size = 4
_textCompart$ = 12					; size = 4
_baseSize$ = 16						; size = 4
_xCount$ = 20						; size = 4
_yCount$ = 24						; size = 4
?GetTextSize@CScaleCalculator@@SA?AVCSize@@W4TEXTCOMPARTTYPE@CScaleBaseData@@ABV2@HH@Z PROC ; CScaleCalculator::GetTextSize, COMDAT

; 87   : {

  00000	55		 push	 ebp
  00001	8b ec		 mov	 ebp, esp

; 88   : 	if(xCount <= 0 || yCount <= 0) //    

  00003	8b 4d 14	 mov	 ecx, DWORD PTR _xCount$[ebp]
  00006	57		 push	 edi
  00007	85 c9		 test	 ecx, ecx
  00009	7e 3b		 jle	 SHORT $LN3@GetTextSiz
  0000b	8b 7d 18	 mov	 edi, DWORD PTR _yCount$[ebp]
  0000e	85 ff		 test	 edi, edi
  00010	7e 34		 jle	 SHORT $LN3@GetTextSiz

; 89   : 		return CSize(0, 0);
; 90   : 
; 91   : 	// text  type  
; 92   : 	if(textCompart == CScaleBaseData::VERT_TEXT)

  00012	83 7d 0c 06	 cmp	 DWORD PTR _textCompart$[ebp], 6
  00016	8b 45 10	 mov	 eax, DWORD PTR _baseSize$[ebp]
  00019	8b 55 08	 mov	 edx, DWORD PTR ___$ReturnUdt$[ebp]
  0001c	56		 push	 esi
  0001d	8b 30		 mov	 esi, DWORD PTR [eax]
  0001f	8b 40 04	 mov	 eax, DWORD PTR [eax+4]
  00022	75 11		 jne	 SHORT $LN4@GetTextSiz

; 93   : 		return CSize(baseSize.cx *yCount, baseSize.cy *xCount);

  00024	0f af f7	 imul	 esi, edi
  00027	0f af c1	 imul	 eax, ecx
; File C:\Program Files (x86)\Microsoft Visual Studio\2019\Community\VC\Tools\MSVC\14.29.30133\atlmfc\include\atltypes.h

; 312  : 	cx = initCX;

  0002a	89 32		 mov	 DWORD PTR [edx], esi
  0002c	5e		 pop	 esi

; 313  : 	cy = initCY;

  0002d	89 42 04	 mov	 DWORD PTR [edx+4], eax
; File D:\git\src\IBK\IBK_DRFN\ProjSrc\SrcChartEx\ChartOCX\Include_Chart\ScaleCalculator.cpp

; 93   : 		return CSize(baseSize.cx *yCount, baseSize.cy *xCount);

  00030	8b c2		 mov	 eax, edx
  00032	5f		 pop	 edi

; 96   : }

  00033	5d		 pop	 ebp
  00034	c3		 ret	 0
$LN4@GetTextSiz:

; 94   : 
; 95   : 	return CSize(baseSize.cx *xCount, baseSize.cy *yCount);

  00035	0f af f1	 imul	 esi, ecx
  00038	0f af c7	 imul	 eax, edi
; File C:\Program Files (x86)\Microsoft Visual Studio\2019\Community\VC\Tools\MSVC\14.29.30133\atlmfc\include\atltypes.h

; 312  : 	cx = initCX;

  0003b	89 32		 mov	 DWORD PTR [edx], esi
  0003d	5e		 pop	 esi

; 313  : 	cy = initCY;

  0003e	89 42 04	 mov	 DWORD PTR [edx+4], eax
; File D:\git\src\IBK\IBK_DRFN\ProjSrc\SrcChartEx\ChartOCX\Include_Chart\ScaleCalculator.cpp

; 93   : 		return CSize(baseSize.cx *yCount, baseSize.cy *xCount);

  00041	8b c2		 mov	 eax, edx
  00043	5f		 pop	 edi

; 96   : }

  00044	5d		 pop	 ebp
  00045	c3		 ret	 0
$LN3@GetTextSiz:
; File C:\Program Files (x86)\Microsoft Visual Studio\2019\Community\VC\Tools\MSVC\14.29.30133\atlmfc\include\atltypes.h

; 312  : 	cx = initCX;

  00046	8b 45 08	 mov	 eax, DWORD PTR ___$ReturnUdt$[ebp]
  00049	5f		 pop	 edi
  0004a	c7 00 00 00 00
	00		 mov	 DWORD PTR [eax], 0

; 313  : 	cy = initCY;

  00050	c7 40 04 00 00
	00 00		 mov	 DWORD PTR [eax+4], 0
; File D:\git\src\IBK\IBK_DRFN\ProjSrc\SrcChartEx\ChartOCX\Include_Chart\ScaleCalculator.cpp

; 96   : }

  00057	5d		 pop	 ebp
  00058	c3		 ret	 0
?GetTextSize@CScaleCalculator@@SA?AVCSize@@W4TEXTCOMPARTTYPE@CScaleBaseData@@ABV2@HH@Z ENDP ; CScaleCalculator::GetTextSize
_TEXT	ENDS
; Function compile flags: /Ogtp
; File D:\git\src\IBK\IBK_DRFN\ProjSrc\SrcChartEx\ChartOCX\Include_Chart\ScaleCalculator.cpp
; File C:\Program Files (x86)\Microsoft Visual Studio\2019\Community\VC\Tools\MSVC\14.29.30133\atlmfc\include\atltypes.h
; File D:\git\src\IBK\IBK_DRFN\ProjSrc\SrcChartEx\ChartOCX\Include_Chart\ScaleCalculator.cpp
; File C:\Program Files (x86)\Microsoft Visual Studio\2019\Community\VC\Tools\MSVC\14.29.30133\atlmfc\include\atltypes.h
; File D:\git\src\IBK\IBK_DRFN\ProjSrc\SrcChartEx\ChartOCX\Include_Chart\ScaleCalculator.cpp
; File C:\Program Files (x86)\Microsoft Visual Studio\2019\Community\VC\Tools\MSVC\14.29.30133\atlmfc\include\atlsimpstr.h
; File C:\Program Files (x86)\Microsoft Visual Studio\2019\Community\VC\Tools\MSVC\14.29.30133\atlmfc\include\afxwin1.inl
; File D:\git\src\IBK\IBK_DRFN\ProjSrc\SrcChartEx\ChartOCX\Include_Chart\ScaleCalculator.cpp
; File C:\Program Files (x86)\Microsoft Visual Studio\2019\Community\VC\Tools\MSVC\14.29.30133\atlmfc\include\atlsimpstr.h
; File D:\git\src\IBK\IBK_DRFN\ProjSrc\SrcChartEx\ChartOCX\Include_Chart\ScaleCalculator.cpp
; File C:\Program Files (x86)\Microsoft Visual Studio\2019\Community\VC\Tools\MSVC\14.29.30133\atlmfc\include\afxwin1.inl
; File D:\git\src\IBK\IBK_DRFN\ProjSrc\SrcChartEx\ChartOCX\Include_Chart\ScaleCalculator.cpp
;	COMDAT ?GetTextSize@CScaleCalculator@@SA?AVCSize@@PAVCDC@@ABV?$CStringT@DV?$StrTraitMFC_DLL@DV?$ChTraitsCRT@D@ATL@@@@@ATL@@@Z
_TEXT	SEGMENT
_size$2 = -32						; size = 8
_size$3 = -32						; size = 8
_temp$4 = -24						; size = 4
$T5 = -20						; size = 4
_strData$ = -16						; size = 4
__$EHRec$ = -12						; size = 12
$T6 = 8							; size = 4
___$ReturnUdt$ = 8					; size = 4
_pDC$ = 12						; size = 4
_data$ = 16						; size = 4
?GetTextSize@CScaleCalculator@@SA?AVCSize@@PAVCDC@@ABV?$CStringT@DV?$StrTraitMFC_DLL@DV?$ChTraitsCRT@D@ATL@@@@@ATL@@@Z PROC ; CScaleCalculator::GetTextSize, COMDAT

; 62   : {

  00000	55		 push	 ebp
  00001	8b ec		 mov	 ebp, esp
  00003	6a ff		 push	 -1
  00005	68 00 00 00 00	 push	 __ehhandler$?GetTextSize@CScaleCalculator@@SA?AVCSize@@PAVCDC@@ABV?$CStringT@DV?$StrTraitMFC_DLL@DV?$ChTraitsCRT@D@ATL@@@@@ATL@@@Z
  0000a	64 a1 00 00 00
	00		 mov	 eax, DWORD PTR fs:0
  00010	50		 push	 eax
  00011	83 ec 14	 sub	 esp, 20			; 00000014H
  00014	53		 push	 ebx
  00015	56		 push	 esi
  00016	57		 push	 edi
  00017	a1 00 00 00 00	 mov	 eax, DWORD PTR ___security_cookie
  0001c	33 c5		 xor	 eax, ebp
  0001e	50		 push	 eax
  0001f	8d 45 f4	 lea	 eax, DWORD PTR __$EHRec$[ebp]
  00022	64 a3 00 00 00
	00		 mov	 DWORD PTR fs:0, eax

; 63   : 	CString strData = data;

  00028	8b 75 10	 mov	 esi, DWORD PTR _data$[ebp]
  0002b	8d 4d f0	 lea	 ecx, DWORD PTR _strData$[ebp]
  0002e	56		 push	 esi
  0002f	ff 15 00 00 00
	00		 call	 DWORD PTR __imp_??0?$CStringT@DV?$StrTraitMFC_DLL@DV?$ChTraitsCRT@D@ATL@@@@@ATL@@QAE@ABV01@@Z
; File C:\Program Files (x86)\Microsoft Visual Studio\2019\Community\VC\Tools\MSVC\14.29.30133\atlmfc\include\atltypes.h

; 312  : 	cx = initCX;

  00035	8b 7d 08	 mov	 edi, DWORD PTR ___$ReturnUdt$[ebp]
; File D:\git\src\IBK\IBK_DRFN\ProjSrc\SrcChartEx\ChartOCX\Include_Chart\ScaleCalculator.cpp

; 65   : 	for(int i = 0; i < CDataConversion::GetStringDataCount(data, "\r\n"); i++){

  00038	8d 4d 08	 lea	 ecx, DWORD PTR $T6[ebp]
  0003b	68 00 00 00 00	 push	 OFFSET ??_C@_02PCIJFNDE@?$AN?6@
  00040	c7 45 fc 00 00
	00 00		 mov	 DWORD PTR __$EHRec$[ebp+8], 0
  00047	33 db		 xor	 ebx, ebx
; File C:\Program Files (x86)\Microsoft Visual Studio\2019\Community\VC\Tools\MSVC\14.29.30133\atlmfc\include\atltypes.h

; 312  : 	cx = initCX;

  00049	c7 07 00 00 00
	00		 mov	 DWORD PTR [edi], 0

; 313  : 	cy = initCY;

  0004f	c7 47 04 00 00
	00 00		 mov	 DWORD PTR [edi+4], 0
; File D:\git\src\IBK\IBK_DRFN\ProjSrc\SrcChartEx\ChartOCX\Include_Chart\ScaleCalculator.cpp

; 65   : 	for(int i = 0; i < CDataConversion::GetStringDataCount(data, "\r\n"); i++){

  00056	ff 15 00 00 00
	00		 call	 DWORD PTR __imp_??0?$CStringT@DV?$StrTraitMFC_DLL@DV?$ChTraitsCRT@D@ATL@@@@@ATL@@QAE@PBD@Z
  0005c	8d 45 08	 lea	 eax, DWORD PTR $T6[ebp]
  0005f	c6 45 fc 01	 mov	 BYTE PTR __$EHRec$[ebp+8], 1
  00063	50		 push	 eax
  00064	56		 push	 esi
  00065	e8 00 00 00 00	 call	 ?GetStringDataCount@CDataConversion@@SAHABV?$CStringT@DV?$StrTraitMFC_DLL@DV?$ChTraitsCRT@D@ATL@@@@@ATL@@0@Z ; CDataConversion::GetStringDataCount
  0006a	83 c4 08	 add	 esp, 8
  0006d	88 5d fc	 mov	 BYTE PTR __$EHRec$[ebp+8], bl
  00070	8d 4d 08	 lea	 ecx, DWORD PTR $T6[ebp]
  00073	8b f0		 mov	 esi, eax
  00075	ff 15 00 00 00
	00		 call	 DWORD PTR __imp_??1?$CStringT@DV?$StrTraitMFC_DLL@DV?$ChTraitsCRT@D@ATL@@@@@ATL@@QAE@XZ
  0007b	85 f6		 test	 esi, esi
  0007d	8b 35 00 00 00
	00		 mov	 esi, DWORD PTR __imp__GetTextExtentPoint32A@16
  00083	0f 8e ab 00 00
	00		 jle	 $LN3@GetTextSiz
  00089	0f 1f 80 00 00
	00 00		 npad	 7
$LL4@GetTextSiz:

; 66   : 		CString temp = CDataConversion::GetStringData(strData, "\r\n");

  00090	68 00 00 00 00	 push	 OFFSET ??_C@_02PCIJFNDE@?$AN?6@
  00095	8d 4d ec	 lea	 ecx, DWORD PTR $T5[ebp]
  00098	ff 15 00 00 00
	00		 call	 DWORD PTR __imp_??0?$CStringT@DV?$StrTraitMFC_DLL@DV?$ChTraitsCRT@D@ATL@@@@@ATL@@QAE@PBD@Z
  0009e	6a 01		 push	 1
  000a0	8d 45 ec	 lea	 eax, DWORD PTR $T5[ebp]
  000a3	c6 45 fc 02	 mov	 BYTE PTR __$EHRec$[ebp+8], 2
  000a7	50		 push	 eax
  000a8	8d 45 f0	 lea	 eax, DWORD PTR _strData$[ebp]
  000ab	50		 push	 eax
  000ac	8d 45 e8	 lea	 eax, DWORD PTR _temp$4[ebp]
  000af	50		 push	 eax
  000b0	e8 00 00 00 00	 call	 ?GetStringData@CDataConversion@@SA?AV?$CStringT@DV?$StrTraitMFC_DLL@DV?$ChTraitsCRT@D@ATL@@@@@ATL@@AAV23@ABV23@_N@Z ; CDataConversion::GetStringData
  000b5	83 c4 10	 add	 esp, 16			; 00000010H
  000b8	c6 45 fc 00	 mov	 BYTE PTR __$EHRec$[ebp+8], 0
  000bc	8d 4d ec	 lea	 ecx, DWORD PTR $T5[ebp]
  000bf	ff 15 00 00 00
	00		 call	 DWORD PTR __imp_??1?$CStringT@DV?$StrTraitMFC_DLL@DV?$ChTraitsCRT@D@ATL@@@@@ATL@@QAE@XZ
; File C:\Program Files (x86)\Microsoft Visual Studio\2019\Community\VC\Tools\MSVC\14.29.30133\atlmfc\include\atlsimpstr.h

; 519  : 		return( GetData()->nDataLength );

  000c5	8b 45 e8	 mov	 eax, DWORD PTR _temp$4[ebp]
; File C:\Program Files (x86)\Microsoft Visual Studio\2019\Community\VC\Tools\MSVC\14.29.30133\atlmfc\include\afxwin1.inl

; 639  : 		VERIFY(::GetTextExtentPoint32(m_hAttribDC, str, (int)str.GetLength(), &size));

  000c8	8d 4d e0	 lea	 ecx, DWORD PTR _size$3[ebp]
  000cb	51		 push	 ecx
  000cc	ff 70 f4	 push	 DWORD PTR [eax-12]
  000cf	50		 push	 eax
  000d0	8b 45 0c	 mov	 eax, DWORD PTR _pDC$[ebp]
  000d3	ff 70 08	 push	 DWORD PTR [eax+8]
  000d6	ff d6		 call	 esi
; File D:\git\src\IBK\IBK_DRFN\ProjSrc\SrcChartEx\ChartOCX\Include_Chart\ScaleCalculator.cpp

; 68   : 		if(tempSize.cx > textSize.cx)

  000d8	8b 45 e0	 mov	 eax, DWORD PTR _size$3[ebp]
  000db	3b 07		 cmp	 eax, DWORD PTR [edi]
  000dd	7e 02		 jle	 SHORT $LN5@GetTextSiz

; 69   : 			textSize.cx = tempSize.cx;

  000df	89 07		 mov	 DWORD PTR [edi], eax
$LN5@GetTextSiz:

; 70   : 		if(i == 0)

  000e1	8b 4f 04	 mov	 ecx, DWORD PTR [edi+4]
  000e4	8b 45 e4	 mov	 eax, DWORD PTR _size$3[ebp+4]
  000e7	03 c1		 add	 eax, ecx

; 71   : 			textSize.cy += tempSize.cy;
; 72   : 		else
; 73   : 			textSize.cy += tempSize.cy;// + MARGIN;
; 74   : 	}

  000e9	8d 4d e8	 lea	 ecx, DWORD PTR _temp$4[ebp]
  000ec	89 47 04	 mov	 DWORD PTR [edi+4], eax
  000ef	ff 15 00 00 00
	00		 call	 DWORD PTR __imp_??1?$CStringT@DV?$StrTraitMFC_DLL@DV?$ChTraitsCRT@D@ATL@@@@@ATL@@QAE@XZ
  000f5	68 00 00 00 00	 push	 OFFSET ??_C@_02PCIJFNDE@?$AN?6@
  000fa	8d 4d 08	 lea	 ecx, DWORD PTR $T6[ebp]
  000fd	43		 inc	 ebx
  000fe	ff 15 00 00 00
	00		 call	 DWORD PTR __imp_??0?$CStringT@DV?$StrTraitMFC_DLL@DV?$ChTraitsCRT@D@ATL@@@@@ATL@@QAE@PBD@Z
  00104	8d 45 08	 lea	 eax, DWORD PTR $T6[ebp]
  00107	c6 45 fc 01	 mov	 BYTE PTR __$EHRec$[ebp+8], 1
  0010b	50		 push	 eax
  0010c	ff 75 10	 push	 DWORD PTR _data$[ebp]
  0010f	e8 00 00 00 00	 call	 ?GetStringDataCount@CDataConversion@@SAHABV?$CStringT@DV?$StrTraitMFC_DLL@DV?$ChTraitsCRT@D@ATL@@@@@ATL@@0@Z ; CDataConversion::GetStringDataCount
  00114	83 c4 08	 add	 esp, 8
  00117	c6 45 fc 00	 mov	 BYTE PTR __$EHRec$[ebp+8], 0
  0011b	8d 4d 08	 lea	 ecx, DWORD PTR $T6[ebp]
  0011e	8b f0		 mov	 esi, eax
  00120	ff 15 00 00 00
	00		 call	 DWORD PTR __imp_??1?$CStringT@DV?$StrTraitMFC_DLL@DV?$ChTraitsCRT@D@ATL@@@@@ATL@@QAE@XZ
  00126	3b de		 cmp	 ebx, esi
  00128	8b 35 00 00 00
	00		 mov	 esi, DWORD PTR __imp__GetTextExtentPoint32A@16
  0012e	0f 8c 5c ff ff
	ff		 jl	 $LL4@GetTextSiz
$LN3@GetTextSiz:
; File C:\Program Files (x86)\Microsoft Visual Studio\2019\Community\VC\Tools\MSVC\14.29.30133\atlmfc\include\atlsimpstr.h

; 533  : 		return( GetLength() == 0 );

  00134	8b 45 f0	 mov	 eax, DWORD PTR _strData$[ebp]
  00137	8b 48 f4	 mov	 ecx, DWORD PTR [eax-12]
  0013a	85 c9		 test	 ecx, ecx
; File D:\git\src\IBK\IBK_DRFN\ProjSrc\SrcChartEx\ChartOCX\Include_Chart\ScaleCalculator.cpp

; 75   : 	if(strData.IsEmpty() == FALSE){

  0013c	74 1d		 je	 SHORT $LN8@GetTextSiz
; File C:\Program Files (x86)\Microsoft Visual Studio\2019\Community\VC\Tools\MSVC\14.29.30133\atlmfc\include\afxwin1.inl

; 639  : 		VERIFY(::GetTextExtentPoint32(m_hAttribDC, str, (int)str.GetLength(), &size));

  0013e	8d 55 e0	 lea	 edx, DWORD PTR _size$2[ebp]
  00141	52		 push	 edx
  00142	51		 push	 ecx
  00143	50		 push	 eax
  00144	8b 45 0c	 mov	 eax, DWORD PTR _pDC$[ebp]
  00147	ff 70 08	 push	 DWORD PTR [eax+8]
  0014a	ff d6		 call	 esi
; File D:\git\src\IBK\IBK_DRFN\ProjSrc\SrcChartEx\ChartOCX\Include_Chart\ScaleCalculator.cpp

; 77   : 		if(tempSize.cx > textSize.cx)

  0014c	8b 45 e0	 mov	 eax, DWORD PTR _size$2[ebp]
  0014f	3b 07		 cmp	 eax, DWORD PTR [edi]
  00151	7e 02		 jle	 SHORT $LN9@GetTextSiz

; 78   : 			textSize.cx = tempSize.cx;

  00153	89 07		 mov	 DWORD PTR [edi], eax
$LN9@GetTextSiz:

; 79   : 		textSize.cy += tempSize.cy;

  00155	8b 4d e4	 mov	 ecx, DWORD PTR _size$2[ebp+4]
  00158	01 4f 04	 add	 DWORD PTR [edi+4], ecx
$LN8@GetTextSiz:

; 80   : 	}
; 81   : 
; 82   : 	return textSize; 

  0015b	8d 4d f0	 lea	 ecx, DWORD PTR _strData$[ebp]
  0015e	ff 15 00 00 00
	00		 call	 DWORD PTR __imp_??1?$CStringT@DV?$StrTraitMFC_DLL@DV?$ChTraitsCRT@D@ATL@@@@@ATL@@QAE@XZ
  00164	8b c7		 mov	 eax, edi

; 83   : }

  00166	8b 4d f4	 mov	 ecx, DWORD PTR __$EHRec$[ebp]
  00169	64 89 0d 00 00
	00 00		 mov	 DWORD PTR fs:0, ecx
  00170	59		 pop	 ecx
  00171	5f		 pop	 edi
  00172	5e		 pop	 esi
  00173	5b		 pop	 ebx
  00174	8b e5		 mov	 esp, ebp
  00176	5d		 pop	 ebp
  00177	c3		 ret	 0
_TEXT	ENDS
;	COMDAT text$x
text$x	SEGMENT
__unwindfunclet$?GetTextSize@CScaleCalculator@@SA?AVCSize@@PAVCDC@@ABV?$CStringT@DV?$StrTraitMFC_DLL@DV?$ChTraitsCRT@D@ATL@@@@@ATL@@@Z$0:
  00000	8d 4d f0	 lea	 ecx, DWORD PTR _strData$[ebp]
  00003	ff 25 00 00 00
	00		 jmp	 DWORD PTR __imp_??1?$CStringT@DV?$StrTraitMFC_DLL@DV?$ChTraitsCRT@D@ATL@@@@@ATL@@QAE@XZ
__unwindfunclet$?GetTextSize@CScaleCalculator@@SA?AVCSize@@PAVCDC@@ABV?$CStringT@DV?$StrTraitMFC_DLL@DV?$ChTraitsCRT@D@ATL@@@@@ATL@@@Z$1:
  00009	8d 4d 08	 lea	 ecx, DWORD PTR $T6[ebp]
  0000c	ff 25 00 00 00
	00		 jmp	 DWORD PTR __imp_??1?$CStringT@DV?$StrTraitMFC_DLL@DV?$ChTraitsCRT@D@ATL@@@@@ATL@@QAE@XZ
__unwindfunclet$?GetTextSize@CScaleCalculator@@SA?AVCSize@@PAVCDC@@ABV?$CStringT@DV?$StrTraitMFC_DLL@DV?$ChTraitsCRT@D@ATL@@@@@ATL@@@Z$2:
  00012	8d 4d ec	 lea	 ecx, DWORD PTR $T5[ebp]
  00015	ff 25 00 00 00
	00		 jmp	 DWORD PTR __imp_??1?$CStringT@DV?$StrTraitMFC_DLL@DV?$ChTraitsCRT@D@ATL@@@@@ATL@@QAE@XZ
  0001b	cc		 int	 3
  0001c	cc		 int	 3
  0001d	cc		 int	 3
  0001e	cc		 int	 3
  0001f	cc		 int	 3
__ehhandler$?GetTextSize@CScaleCalculator@@SA?AVCSize@@PAVCDC@@ABV?$CStringT@DV?$StrTraitMFC_DLL@DV?$ChTraitsCRT@D@ATL@@@@@ATL@@@Z:
  00020	90		 npad	 1
  00021	90		 npad	 1
  00022	8b 54 24 08	 mov	 edx, DWORD PTR [esp+8]
  00026	8d 42 0c	 lea	 eax, DWORD PTR [edx+12]
  00029	8b 4a dc	 mov	 ecx, DWORD PTR [edx-36]
  0002c	33 c8		 xor	 ecx, eax
  0002e	e8 00 00 00 00	 call	 @__security_check_cookie@4
  00033	b8 00 00 00 00	 mov	 eax, OFFSET __ehfuncinfo$?GetTextSize@CScaleCalculator@@SA?AVCSize@@PAVCDC@@ABV?$CStringT@DV?$StrTraitMFC_DLL@DV?$ChTraitsCRT@D@ATL@@@@@ATL@@@Z
  00038	e9 00 00 00 00	 jmp	 ___CxxFrameHandler3
text$x	ENDS
?GetTextSize@CScaleCalculator@@SA?AVCSize@@PAVCDC@@ABV?$CStringT@DV?$StrTraitMFC_DLL@DV?$ChTraitsCRT@D@ATL@@@@@ATL@@@Z ENDP ; CScaleCalculator::GetTextSize
; Function compile flags: /Ogtp
; File D:\git\src\IBK\IBK_DRFN\ProjSrc\SrcChartEx\ChartOCX\Include_Chart\ScaleCalculator.cpp
; File C:\Program Files (x86)\Microsoft Visual Studio\2019\Community\VC\Tools\MSVC\14.29.30133\atlmfc\include\atlsimpstr.h
; File D:\git\src\IBK\IBK_DRFN\ProjSrc\SrcChartEx\ChartOCX\Include_Chart\ScaleCalculator.cpp
; File D:\git\src\IBK\IBK_DRFN\ProjSrc\SrcChartEx\ChartOCX\Include_Chart\Conversion.h
; File D:\git\src\IBK\IBK_DRFN\ProjSrc\SrcChartEx\ChartOCX\Include_Chart\ScaleCalculator.cpp
; File D:\git\src\IBK\IBK_DRFN\ProjSrc\SrcChartEx\ChartOCX\Include_Chart\Conversion.h
; File D:\git\src\IBK\IBK_DRFN\ProjSrc\SrcChartEx\ChartOCX\Include_Chart\ScaleCalculator.cpp
; File D:\git\src\IBK\IBK_DRFN\ProjSrc\SrcChartEx\ChartOCX\Include_Chart\Conversion.h
; File D:\git\src\IBK\IBK_DRFN\ProjSrc\SrcChartEx\ChartOCX\Include_Chart\ScaleCalculator.cpp
; File C:\Program Files (x86)\Microsoft Visual Studio\2019\Community\VC\Tools\MSVC\14.29.30133\atlmfc\include\atlsimpstr.h
; File D:\git\src\IBK\IBK_DRFN\ProjSrc\SrcChartEx\ChartOCX\Include_Chart\ScaleCalculator.cpp
; File C:\Program Files (x86)\Microsoft Visual Studio\2019\Community\VC\Tools\MSVC\14.29.30133\atlmfc\include\atlsimpstr.h
; File D:\git\src\IBK\IBK_DRFN\ProjSrc\SrcChartEx\ChartOCX\Include_Chart\ScaleCalculator.cpp
; File C:\Program Files (x86)\Microsoft Visual Studio\2019\Community\VC\Tools\MSVC\14.29.30133\atlmfc\include\atlsimpstr.h
; File D:\git\src\IBK\IBK_DRFN\ProjSrc\SrcChartEx\ChartOCX\Include_Chart\ScaleCalculator.cpp
; File C:\Program Files (x86)\Microsoft Visual Studio\2019\Community\VC\Tools\MSVC\14.29.30133\atlmfc\include\atlsimpstr.h
; File D:\git\src\IBK\IBK_DRFN\ProjSrc\SrcChartEx\ChartOCX\Include_Chart\ScaleCalculator.cpp
; File C:\Program Files (x86)\Microsoft Visual Studio\2019\Community\VC\Tools\MSVC\14.29.30133\atlmfc\include\atlsimpstr.h
; File D:\git\src\IBK\IBK_DRFN\ProjSrc\SrcChartEx\ChartOCX\Include_Chart\ScaleCalculator.cpp
; File C:\Program Files (x86)\Microsoft Visual Studio\2019\Community\VC\Tools\MSVC\14.29.30133\atlmfc\include\cstringt.h
; File D:\git\src\IBK\IBK_DRFN\ProjSrc\SrcChartEx\ChartOCX\Include_Chart\ScaleCalculator.cpp
; File C:\Program Files (x86)\Microsoft Visual Studio\2019\Community\VC\Tools\MSVC\14.29.30133\atlmfc\include\cstringt.h
; File D:\git\src\IBK\IBK_DRFN\ProjSrc\SrcChartEx\ChartOCX\Include_Chart\ScaleCalculator.cpp
;	COMDAT ?GetCompartScaleData_Time@CScaleCalculator@@QAE?AV?$CStringT@DV?$StrTraitMFC_DLL@DV?$ChTraitsCRT@D@ATL@@@@@ATL@@W4HORZSCALEDRAWERTYPE@CScaleBaseData@@ABV23@1ABVCScaleCompart@@@Z
_TEXT	SEGMENT
$T2 = -28						; size = 4
$T3 = -24						; size = 8
$T4 = -20						; size = 4
_realPacketData$ = -16					; size = 4
__$EHRec$ = -12						; size = 12
___$ReturnUdt$ = 8					; size = 4
$T5 = 12						; size = 4
_scaleDrawerType$ = 12					; size = 4
_strData_date$6 = 16					; size = 4
_strData_date$7 = 16					; size = 4
_packetData$ = 16					; size = 4
_strData_time$8 = 20					; size = 4
_strData_time$9 = 20					; size = 4
_strSpecialTime$10 = 20					; size = 4
_dataType$ = 20						; size = 4
$T11 = 24						; size = 4
$T12 = 24						; size = 4
_scaleCompart$ = 24					; size = 4
?GetCompartScaleData_Time@CScaleCalculator@@QAE?AV?$CStringT@DV?$StrTraitMFC_DLL@DV?$ChTraitsCRT@D@ATL@@@@@ATL@@W4HORZSCALEDRAWERTYPE@CScaleBaseData@@ABV23@1ABVCScaleCompart@@@Z PROC ; CScaleCalculator::GetCompartScaleData_Time, COMDAT
; _this$ = ecx

; 40   : {

  00000	55		 push	 ebp
  00001	8b ec		 mov	 ebp, esp
  00003	6a ff		 push	 -1
  00005	68 00 00 00 00	 push	 __ehhandler$?GetCompartScaleData_Time@CScaleCalculator@@QAE?AV?$CStringT@DV?$StrTraitMFC_DLL@DV?$ChTraitsCRT@D@ATL@@@@@ATL@@W4HORZSCALEDRAWERTYPE@CScaleBaseData@@ABV23@1ABVCScaleCompart@@@Z
  0000a	64 a1 00 00 00
	00		 mov	 eax, DWORD PTR fs:0
  00010	50		 push	 eax
  00011	83 ec 10	 sub	 esp, 16			; 00000010H
  00014	53		 push	 ebx
  00015	56		 push	 esi
  00016	57		 push	 edi
  00017	a1 00 00 00 00	 mov	 eax, DWORD PTR ___security_cookie
  0001c	33 c5		 xor	 eax, ebp
  0001e	50		 push	 eax
  0001f	8d 45 f4	 lea	 eax, DWORD PTR __$EHRec$[ebp]
  00022	64 a3 00 00 00
	00		 mov	 DWORD PTR fs:0, eax
  00028	8b f1		 mov	 esi, ecx
  0002a	c7 45 e4 00 00
	00 00		 mov	 DWORD PTR $T2[ebp], 0
; File C:\Program Files (x86)\Microsoft Visual Studio\2019\Community\VC\Tools\MSVC\14.29.30133\atlmfc\include\atlsimpstr.h

; 519  : 		return( GetData()->nDataLength );

  00031	8b 7d 14	 mov	 edi, DWORD PTR _dataType$[ebp]
  00034	8b 07		 mov	 eax, DWORD PTR [edi]
; File D:\git\src\IBK\IBK_DRFN\ProjSrc\SrcChartEx\ChartOCX\Include_Chart\ScaleCalculator.cpp

; 41   : 	CString realPacketData = GetRealPacketData(packetData, dataType.GetLength());

  00036	ff 70 f4	 push	 DWORD PTR [eax-12]
  00039	8d 45 f0	 lea	 eax, DWORD PTR _realPacketData$[ebp]
  0003c	ff 75 10	 push	 DWORD PTR _packetData$[ebp]
  0003f	50		 push	 eax
  00040	e8 00 00 00 00	 call	 ?GetRealPacketData@CScaleCalculator@@CA?AV?$CStringT@DV?$StrTraitMFC_DLL@DV?$ChTraitsCRT@D@ATL@@@@@ATL@@ABV23@H@Z ; CScaleCalculator::GetRealPacketData
  00045	83 c4 0c	 add	 esp, 12			; 0000000cH

; 130  : 	CString strSpecialTime;

  00048	8d 4d 14	 lea	 ecx, DWORD PTR _strSpecialTime$10[ebp]

; 41   : 	CString realPacketData = GetRealPacketData(packetData, dataType.GetLength());

  0004b	c7 45 fc 00 00
	00 00		 mov	 DWORD PTR __$EHRec$[ebp+8], 0

; 130  : 	CString strSpecialTime;

  00052	ff 15 00 00 00
	00		 call	 DWORD PTR __imp_??0?$CStringT@DV?$StrTraitMFC_DLL@DV?$ChTraitsCRT@D@ATL@@@@@ATL@@QAE@XZ
; File D:\git\src\IBK\IBK_DRFN\ProjSrc\SrcChartEx\ChartOCX\Include_Chart\Conversion.h

; 27   : 		{	m_hOcxWnd = p_hOcxWnd;	m_eChartMode = p_eChartMode;	}

  00058	8b 06		 mov	 eax, DWORD PTR [esi]
; File D:\git\src\IBK\IBK_DRFN\ProjSrc\SrcChartEx\ChartOCX\Include_Chart\ScaleCalculator.cpp

; 131  : 	if(CDataConversion( m_hOcxWnd, m_eChartMode).GetSpecialTime(dataType, realPacketData, strSpecialTime))

  0005a	8b 4e 04	 mov	 ecx, DWORD PTR [esi+4]
; File D:\git\src\IBK\IBK_DRFN\ProjSrc\SrcChartEx\ChartOCX\Include_Chart\Conversion.h

; 27   : 		{	m_hOcxWnd = p_hOcxWnd;	m_eChartMode = p_eChartMode;	}

  0005d	89 45 e8	 mov	 DWORD PTR $T3[ebp], eax
; File D:\git\src\IBK\IBK_DRFN\ProjSrc\SrcChartEx\ChartOCX\Include_Chart\ScaleCalculator.cpp

; 131  : 	if(CDataConversion( m_hOcxWnd, m_eChartMode).GetSpecialTime(dataType, realPacketData, strSpecialTime))

  00060	8d 45 14	 lea	 eax, DWORD PTR _strSpecialTime$10[ebp]
  00063	50		 push	 eax
  00064	8d 45 f0	 lea	 eax, DWORD PTR _realPacketData$[ebp]
; File D:\git\src\IBK\IBK_DRFN\ProjSrc\SrcChartEx\ChartOCX\Include_Chart\Conversion.h

; 27   : 		{	m_hOcxWnd = p_hOcxWnd;	m_eChartMode = p_eChartMode;	}

  00067	89 4d ec	 mov	 DWORD PTR $T3[ebp+4], ecx
; File D:\git\src\IBK\IBK_DRFN\ProjSrc\SrcChartEx\ChartOCX\Include_Chart\ScaleCalculator.cpp

; 131  : 	if(CDataConversion( m_hOcxWnd, m_eChartMode).GetSpecialTime(dataType, realPacketData, strSpecialTime))

  0006a	50		 push	 eax
  0006b	57		 push	 edi
  0006c	8d 4d e8	 lea	 ecx, DWORD PTR $T3[ebp]
  0006f	c6 45 fc 01	 mov	 BYTE PTR __$EHRec$[ebp+8], 1
  00073	e8 00 00 00 00	 call	 ?GetSpecialTime@CDataConversion@@QAE_NABV?$CStringT@DV?$StrTraitMFC_DLL@DV?$ChTraitsCRT@D@ATL@@@@@ATL@@0AAV23@@Z ; CDataConversion::GetSpecialTime
  00078	84 c0		 test	 al, al
  0007a	74 2c		 je	 SHORT $LN18@GetCompart

; 132  : 	{
; 133  : 		realPacketData = strSpecialTime;

  0007c	8d 45 14	 lea	 eax, DWORD PTR _strSpecialTime$10[ebp]
  0007f	50		 push	 eax
  00080	8d 4d f0	 lea	 ecx, DWORD PTR _realPacketData$[ebp]
  00083	ff 15 00 00 00
	00		 call	 DWORD PTR __imp_??4?$CStringT@DV?$StrTraitMFC_DLL@DV?$ChTraitsCRT@D@ATL@@@@@ATL@@QAEAAV01@ABV01@@Z

; 134  : 		return true;

  00089	8d 4d 14	 lea	 ecx, DWORD PTR _strSpecialTime$10[ebp]
  0008c	c6 45 fc 00	 mov	 BYTE PTR __$EHRec$[ebp+8], 0
  00090	ff 15 00 00 00
	00		 call	 DWORD PTR __imp_??1?$CStringT@DV?$StrTraitMFC_DLL@DV?$ChTraitsCRT@D@ATL@@@@@ATL@@QAE@XZ

; 42   : 
; 43   : 	// ""  ""  .
; 44   : 	if(GetPacketDataInTimeOut(dataType, realPacketData))
; 45   : 		return realPacketData;

  00096	8b 4d 08	 mov	 ecx, DWORD PTR ___$ReturnUdt$[ebp]
  00099	8d 45 f0	 lea	 eax, DWORD PTR _realPacketData$[ebp]
  0009c	50		 push	 eax
  0009d	ff 15 00 00 00
	00		 call	 DWORD PTR __imp_??0?$CStringT@DV?$StrTraitMFC_DLL@DV?$ChTraitsCRT@D@ATL@@@@@ATL@@QAE@ABV01@@Z
  000a3	e9 dc 01 00 00	 jmp	 $LN103@GetCompart
$LN18@GetCompart:

; 136  : 	return false;

  000a8	8d 4d 14	 lea	 ecx, DWORD PTR _strSpecialTime$10[ebp]
  000ab	c6 45 fc 00	 mov	 BYTE PTR __$EHRec$[ebp+8], 0
  000af	ff 15 00 00 00
	00		 call	 DWORD PTR __imp_??1?$CStringT@DV?$StrTraitMFC_DLL@DV?$ChTraitsCRT@D@ATL@@@@@ATL@@QAE@XZ

; 46   : 
; 47   : 	switch(scaleDrawerType){

  000b5	8b 45 0c	 mov	 eax, DWORD PTR _scaleDrawerType$[ebp]
  000b8	83 c0 fc	 add	 eax, -4			; fffffffcH
  000bb	83 f8 08	 cmp	 eax, 8
  000be	0f 87 b2 01 00
	00		 ja	 $LN2@GetCompart
  000c4	0f b6 80 00 00
	00 00		 movzx	 eax, BYTE PTR $LN100@GetCompart[eax]
  000cb	ff 24 85 00 00
	00 00		 jmp	 DWORD PTR $LN101@GetCompart[eax*4]
$LN5@GetCompart:

; 141  : 	CString strData_date, strData_time;

  000d2	8d 4d 10	 lea	 ecx, DWORD PTR _strData_date$7[ebp]
  000d5	ff 15 00 00 00
	00		 call	 DWORD PTR __imp_??0?$CStringT@DV?$StrTraitMFC_DLL@DV?$ChTraitsCRT@D@ATL@@@@@ATL@@QAE@XZ
  000db	8d 4d 14	 lea	 ecx, DWORD PTR _strData_time$9[ebp]
  000de	ff 15 00 00 00
	00		 call	 DWORD PTR __imp_??0?$CStringT@DV?$StrTraitMFC_DLL@DV?$ChTraitsCRT@D@ATL@@@@@ATL@@QAE@XZ

; 142  : 	GetCompartScaleDateTime(packetData, dataType, scaleCompart, strData_date, strData_time);

  000e4	8b 5d 18	 mov	 ebx, DWORD PTR _scaleCompart$[ebp]
  000e7	8d 45 14	 lea	 eax, DWORD PTR _strData_time$9[ebp]
  000ea	50		 push	 eax
  000eb	8d 45 10	 lea	 eax, DWORD PTR _strData_date$7[ebp]
  000ee	c6 45 fc 03	 mov	 BYTE PTR __$EHRec$[ebp+8], 3
  000f2	50		 push	 eax
  000f3	53		 push	 ebx
  000f4	57		 push	 edi
  000f5	8d 45 f0	 lea	 eax, DWORD PTR _realPacketData$[ebp]
  000f8	8b ce		 mov	 ecx, esi
  000fa	50		 push	 eax
  000fb	e8 00 00 00 00	 call	 ?GetCompartScaleDateTime@CScaleCalculator@@AAEXABV?$CStringT@DV?$StrTraitMFC_DLL@DV?$ChTraitsCRT@D@ATL@@@@@ATL@@0ABVCScaleCompart@@AAV23@2@Z ; CScaleCalculator::GetCompartScaleDateTime
; File C:\Program Files (x86)\Microsoft Visual Studio\2019\Community\VC\Tools\MSVC\14.29.30133\atlmfc\include\atlsimpstr.h

; 519  : 		return( GetData()->nDataLength );

  00100	8b 45 10	 mov	 eax, DWORD PTR _strData_date$7[ebp]

; 533  : 		return( GetLength() == 0 );

  00103	83 78 f4 00	 cmp	 DWORD PTR [eax-12], 0
; File D:\git\src\IBK\IBK_DRFN\ProjSrc\SrcChartEx\ChartOCX\Include_Chart\ScaleCalculator.cpp

; 144  : 	if(!strData_date.IsEmpty() && !strData_time.IsEmpty()){

  00107	0f 84 29 01 00
	00		 je	 $LN59@GetCompart
; File C:\Program Files (x86)\Microsoft Visual Studio\2019\Community\VC\Tools\MSVC\14.29.30133\atlmfc\include\atlsimpstr.h

; 519  : 		return( GetData()->nDataLength );

  0010d	8b 45 14	 mov	 eax, DWORD PTR _strData_time$9[ebp]

; 533  : 		return( GetLength() == 0 );

  00110	83 78 f4 00	 cmp	 DWORD PTR [eax-12], 0
; File D:\git\src\IBK\IBK_DRFN\ProjSrc\SrcChartEx\ChartOCX\Include_Chart\ScaleCalculator.cpp

; 144  : 	if(!strData_date.IsEmpty() && !strData_time.IsEmpty()){

  00114	0f 84 80 00 00
	00		 je	 $LN99@GetCompart

; 145  : 		if(scaleCompart.GetDateCompart().GetLength() > 1)

  0011a	8b 3d 00 00 00
	00		 mov	 edi, DWORD PTR __imp_?GetDateCompart@CScaleCompart@@QBE?AV?$CStringT@DV?$StrTraitMFC_DLL@DV?$ChTraitsCRT@D@ATL@@@@@ATL@@XZ
  00120	8d 45 18	 lea	 eax, DWORD PTR $T12[ebp]
  00123	50		 push	 eax
  00124	8b cb		 mov	 ecx, ebx
  00126	ff d7		 call	 edi
  00128	8d 4d 18	 lea	 ecx, DWORD PTR $T12[ebp]
; File C:\Program Files (x86)\Microsoft Visual Studio\2019\Community\VC\Tools\MSVC\14.29.30133\atlmfc\include\atlsimpstr.h

; 519  : 		return( GetData()->nDataLength );

  0012b	8b 00		 mov	 eax, DWORD PTR [eax]
  0012d	8b 70 f4	 mov	 esi, DWORD PTR [eax-12]
; File D:\git\src\IBK\IBK_DRFN\ProjSrc\SrcChartEx\ChartOCX\Include_Chart\ScaleCalculator.cpp

; 145  : 		if(scaleCompart.GetDateCompart().GetLength() > 1)

  00130	ff 15 00 00 00
	00		 call	 DWORD PTR __imp_??1?$CStringT@DV?$StrTraitMFC_DLL@DV?$ChTraitsCRT@D@ATL@@@@@ATL@@QAE@XZ
  00136	83 fe 01	 cmp	 esi, 1
  00139	7e 19		 jle	 SHORT $LN25@GetCompart

; 146  : 			return strData_date + strData_time;

  0013b	8b 75 08	 mov	 esi, DWORD PTR ___$ReturnUdt$[ebp]
  0013e	8d 45 14	 lea	 eax, DWORD PTR _strData_time$9[ebp]
  00141	50		 push	 eax
  00142	8d 45 10	 lea	 eax, DWORD PTR _strData_date$7[ebp]
  00145	50		 push	 eax
  00146	56		 push	 esi
  00147	e8 00 00 00 00	 call	 ??HATL@@YA?AV?$CStringT@DV?$StrTraitMFC_DLL@DV?$ChTraitsCRT@D@ATL@@@@@0@ABV10@0@Z ; ATL::operator+
  0014c	83 c4 0c	 add	 esp, 12			; 0000000cH
  0014f	e9 f1 00 00 00	 jmp	 $LN104@GetCompart
$LN25@GetCompart:

; 147  : 		return strData_date + scaleCompart.GetDateCompart() + strData_time;

  00154	8d 45 ec	 lea	 eax, DWORD PTR $T4[ebp]
  00157	8b cb		 mov	 ecx, ebx
  00159	50		 push	 eax
  0015a	ff d7		 call	 edi
  0015c	50		 push	 eax
  0015d	8d 45 10	 lea	 eax, DWORD PTR _strData_date$7[ebp]
  00160	c6 45 fc 04	 mov	 BYTE PTR __$EHRec$[ebp+8], 4
  00164	50		 push	 eax
  00165	8d 45 0c	 lea	 eax, DWORD PTR $T5[ebp]
  00168	50		 push	 eax
  00169	e8 00 00 00 00	 call	 ??HATL@@YA?AV?$CStringT@DV?$StrTraitMFC_DLL@DV?$ChTraitsCRT@D@ATL@@@@@0@ABV10@0@Z ; ATL::operator+
  0016e	8b 75 08	 mov	 esi, DWORD PTR ___$ReturnUdt$[ebp]
  00171	8d 4d 14	 lea	 ecx, DWORD PTR _strData_time$9[ebp]
  00174	51		 push	 ecx
  00175	50		 push	 eax
  00176	56		 push	 esi
  00177	c6 45 fc 05	 mov	 BYTE PTR __$EHRec$[ebp+8], 5
  0017b	e8 00 00 00 00	 call	 ??HATL@@YA?AV?$CStringT@DV?$StrTraitMFC_DLL@DV?$ChTraitsCRT@D@ATL@@@@@0@ABV10@0@Z ; ATL::operator+
  00180	83 c4 18	 add	 esp, 24			; 00000018H
  00183	8d 4d 0c	 lea	 ecx, DWORD PTR $T5[ebp]
  00186	ff 15 00 00 00
	00		 call	 DWORD PTR __imp_??1?$CStringT@DV?$StrTraitMFC_DLL@DV?$ChTraitsCRT@D@ATL@@@@@ATL@@QAE@XZ
  0018c	8d 4d ec	 lea	 ecx, DWORD PTR $T4[ebp]
  0018f	ff 15 00 00 00
	00		 call	 DWORD PTR __imp_??1?$CStringT@DV?$StrTraitMFC_DLL@DV?$ChTraitsCRT@D@ATL@@@@@ATL@@QAE@XZ
  00195	e9 ab 00 00 00	 jmp	 $LN104@GetCompart
$LN99@GetCompart:

; 48   : 	case CScaleBaseData::HORZ_TIME_ONE:	//
; 49   : 	case CScaleBaseData::HORZ_TICK:		//
; 50   : 	case CScaleBaseData::HORZ_TIME_SECOND:
; 51   : 		return GetCompartScaleTime_One(realPacketData, dataType, scaleCompart);
; 52   : 	case CScaleBaseData::HORZ_TIME_TWO:	//
; 53   : 		return GetCompartScaleTime_Two(realPacketData, dataType, scaleCompart);

  0019a	8d 45 10	 lea	 eax, DWORD PTR _strData_date$7[ebp]
  0019d	e9 97 00 00 00	 jmp	 $LN105@GetCompart
$LN8@GetCompart:

; 156  : 	CString strData_date, strData_time;

  001a2	8d 4d 10	 lea	 ecx, DWORD PTR _strData_date$6[ebp]
  001a5	ff 15 00 00 00
	00		 call	 DWORD PTR __imp_??0?$CStringT@DV?$StrTraitMFC_DLL@DV?$ChTraitsCRT@D@ATL@@@@@ATL@@QAE@XZ
  001ab	8d 4d 14	 lea	 ecx, DWORD PTR _strData_time$8[ebp]
  001ae	ff 15 00 00 00
	00		 call	 DWORD PTR __imp_??0?$CStringT@DV?$StrTraitMFC_DLL@DV?$ChTraitsCRT@D@ATL@@@@@ATL@@QAE@XZ

; 157  : 	GetCompartScaleDateTime(packetData, dataType, scaleCompart, strData_date, strData_time);

  001b4	8d 45 14	 lea	 eax, DWORD PTR _strData_time$8[ebp]
  001b7	c6 45 fc 07	 mov	 BYTE PTR __$EHRec$[ebp+8], 7
  001bb	50		 push	 eax
  001bc	8d 45 10	 lea	 eax, DWORD PTR _strData_date$6[ebp]
  001bf	8b ce		 mov	 ecx, esi
  001c1	50		 push	 eax
  001c2	ff 75 18	 push	 DWORD PTR _scaleCompart$[ebp]
  001c5	8d 45 f0	 lea	 eax, DWORD PTR _realPacketData$[ebp]
  001c8	57		 push	 edi
  001c9	50		 push	 eax
  001ca	e8 00 00 00 00	 call	 ?GetCompartScaleDateTime@CScaleCalculator@@AAEXABV?$CStringT@DV?$StrTraitMFC_DLL@DV?$ChTraitsCRT@D@ATL@@@@@ATL@@0ABVCScaleCompart@@AAV23@2@Z ; CScaleCalculator::GetCompartScaleDateTime
; File C:\Program Files (x86)\Microsoft Visual Studio\2019\Community\VC\Tools\MSVC\14.29.30133\atlmfc\include\atlsimpstr.h

; 519  : 		return( GetData()->nDataLength );

  001cf	8b 45 10	 mov	 eax, DWORD PTR _strData_date$6[ebp]

; 533  : 		return( GetLength() == 0 );

  001d2	83 78 f4 00	 cmp	 DWORD PTR [eax-12], 0
; File D:\git\src\IBK\IBK_DRFN\ProjSrc\SrcChartEx\ChartOCX\Include_Chart\ScaleCalculator.cpp

; 159  : 	if(!strData_date.IsEmpty() && !strData_time.IsEmpty())

  001d6	74 5e		 je	 SHORT $LN59@GetCompart
; File C:\Program Files (x86)\Microsoft Visual Studio\2019\Community\VC\Tools\MSVC\14.29.30133\atlmfc\include\atlsimpstr.h

; 519  : 		return( GetData()->nDataLength );

  001d8	8b 45 14	 mov	 eax, DWORD PTR _strData_time$8[ebp]

; 533  : 		return( GetLength() == 0 );

  001db	83 78 f4 00	 cmp	 DWORD PTR [eax-12], 0
; File D:\git\src\IBK\IBK_DRFN\ProjSrc\SrcChartEx\ChartOCX\Include_Chart\ScaleCalculator.cpp

; 159  : 	if(!strData_date.IsEmpty() && !strData_time.IsEmpty())

  001df	74 b9		 je	 SHORT $LN99@GetCompart
; File C:\Program Files (x86)\Microsoft Visual Studio\2019\Community\VC\Tools\MSVC\14.29.30133\atlmfc\include\cstringt.h

; 2401 : 		CStringT strResult( str1.GetManager() );

  001e1	8d 4d 14	 lea	 ecx, DWORD PTR _strData_time$8[ebp]
; File D:\git\src\IBK\IBK_DRFN\ProjSrc\SrcChartEx\ChartOCX\Include_Chart\ScaleCalculator.cpp

; 160  : 		return strData_time + "\r\n" + strData_date;

  001e4	c6 45 fc 08	 mov	 BYTE PTR __$EHRec$[ebp+8], 8
; File C:\Program Files (x86)\Microsoft Visual Studio\2019\Community\VC\Tools\MSVC\14.29.30133\atlmfc\include\cstringt.h

; 2401 : 		CStringT strResult( str1.GetManager() );

  001e8	ff 15 00 00 00
	00		 call	 DWORD PTR __imp_?GetManager@?$CStringT@DV?$StrTraitMFC_DLL@DV?$ChTraitsCRT@D@ATL@@@@@ATL@@QBEPAUIAtlStringMgr@2@XZ
  001ee	50		 push	 eax
  001ef	8d 4d 18	 lea	 ecx, DWORD PTR $T11[ebp]
  001f2	ff 15 00 00 00
	00		 call	 DWORD PTR __imp_??0?$CStringT@DV?$StrTraitMFC_DLL@DV?$ChTraitsCRT@D@ATL@@@@@ATL@@QAE@PAUIAtlStringMgr@1@@Z

; 2402 : 
; 2403 : 		CThisSimpleString::Concatenate( strResult, str1, str1.GetLength(), psz2, CThisSimpleString::StringLength( psz2 ) );

  001f8	8b 45 14	 mov	 eax, DWORD PTR _strData_time$8[ebp]
  001fb	6a 02		 push	 2
  001fd	68 00 00 00 00	 push	 OFFSET ??_C@_02PCIJFNDE@?$AN?6@

; 2404 : 
; 2405 : 		return( strResult );

  00202	c7 45 e4 08 00
	00 00		 mov	 DWORD PTR $T2[ebp], 8
  00209	ff 70 f4	 push	 DWORD PTR [eax-12]
  0020c	50		 push	 eax
  0020d	8d 45 18	 lea	 eax, DWORD PTR $T11[ebp]
  00210	50		 push	 eax
  00211	ff 15 00 00 00
	00		 call	 DWORD PTR __imp_?Concatenate@?$CSimpleStringT@D$00@ATL@@KAXAAV12@PBDH1H@Z
; File D:\git\src\IBK\IBK_DRFN\ProjSrc\SrcChartEx\ChartOCX\Include_Chart\ScaleCalculator.cpp

; 160  : 		return strData_time + "\r\n" + strData_date;

  00217	8b 75 08	 mov	 esi, DWORD PTR ___$ReturnUdt$[ebp]
  0021a	8d 45 10	 lea	 eax, DWORD PTR _strData_date$6[ebp]
  0021d	50		 push	 eax
  0021e	8d 45 18	 lea	 eax, DWORD PTR $T11[ebp]
  00221	50		 push	 eax
  00222	56		 push	 esi
  00223	e8 00 00 00 00	 call	 ??HATL@@YA?AV?$CStringT@DV?$StrTraitMFC_DLL@DV?$ChTraitsCRT@D@ATL@@@@@0@ABV10@0@Z ; ATL::operator+
  00228	83 c4 20	 add	 esp, 32			; 00000020H
  0022b	8d 4d 18	 lea	 ecx, DWORD PTR $T11[ebp]
  0022e	ff 15 00 00 00
	00		 call	 DWORD PTR __imp_??1?$CStringT@DV?$StrTraitMFC_DLL@DV?$ChTraitsCRT@D@ATL@@@@@ATL@@QAE@XZ
  00234	eb 0f		 jmp	 SHORT $LN104@GetCompart
$LN59@GetCompart:

; 48   : 	case CScaleBaseData::HORZ_TIME_ONE:	//
; 49   : 	case CScaleBaseData::HORZ_TICK:		//
; 50   : 	case CScaleBaseData::HORZ_TIME_SECOND:
; 51   : 		return GetCompartScaleTime_One(realPacketData, dataType, scaleCompart);
; 52   : 	case CScaleBaseData::HORZ_TIME_TWO:	//
; 53   : 		return GetCompartScaleTime_Two(realPacketData, dataType, scaleCompart);

  00236	8d 45 14	 lea	 eax, DWORD PTR _strData_time$8[ebp]
$LN105@GetCompart:
  00239	8b 75 08	 mov	 esi, DWORD PTR ___$ReturnUdt$[ebp]
  0023c	8b ce		 mov	 ecx, esi
  0023e	50		 push	 eax
  0023f	ff 15 00 00 00
	00		 call	 DWORD PTR __imp_??0?$CStringT@DV?$StrTraitMFC_DLL@DV?$ChTraitsCRT@D@ATL@@@@@ATL@@QAE@ABV01@@Z
$LN104@GetCompart:
  00245	8d 4d 14	 lea	 ecx, DWORD PTR _strData_time$8[ebp]
  00248	ff 15 00 00 00
	00		 call	 DWORD PTR __imp_??1?$CStringT@DV?$StrTraitMFC_DLL@DV?$ChTraitsCRT@D@ATL@@@@@ATL@@QAE@XZ
  0024e	8d 4d 10	 lea	 ecx, DWORD PTR _strData_date$6[ebp]
  00251	ff 15 00 00 00
	00		 call	 DWORD PTR __imp_??1?$CStringT@DV?$StrTraitMFC_DLL@DV?$ChTraitsCRT@D@ATL@@@@@ATL@@QAE@XZ
  00257	8d 4d f0	 lea	 ecx, DWORD PTR _realPacketData$[ebp]
  0025a	ff 15 00 00 00
	00		 call	 DWORD PTR __imp_??1?$CStringT@DV?$StrTraitMFC_DLL@DV?$ChTraitsCRT@D@ATL@@@@@ATL@@QAE@XZ
  00260	8b c6		 mov	 eax, esi

; 57   : }

  00262	8b 4d f4	 mov	 ecx, DWORD PTR __$EHRec$[ebp]
  00265	64 89 0d 00 00
	00 00		 mov	 DWORD PTR fs:0, ecx
  0026c	59		 pop	 ecx
  0026d	5f		 pop	 edi
  0026e	5e		 pop	 esi
  0026f	5b		 pop	 ebx
  00270	8b e5		 mov	 esp, ebp
  00272	5d		 pop	 ebp
  00273	c2 14 00	 ret	 20			; 00000014H
$LN2@GetCompart:

; 54   : 	}
; 55   : 
; 56   : 	return "";

  00276	8b 4d 08	 mov	 ecx, DWORD PTR ___$ReturnUdt$[ebp]
  00279	68 00 00 00 00	 push	 OFFSET ??_C@_00CNPNBAHC@@
  0027e	ff 15 00 00 00
	00		 call	 DWORD PTR __imp_??0?$CStringT@DV?$StrTraitMFC_DLL@DV?$ChTraitsCRT@D@ATL@@@@@ATL@@QAE@PBD@Z
$LN103@GetCompart:

; 57   : }

  00284	8d 4d f0	 lea	 ecx, DWORD PTR _realPacketData$[ebp]
  00287	ff 15 00 00 00
	00		 call	 DWORD PTR __imp_??1?$CStringT@DV?$StrTraitMFC_DLL@DV?$ChTraitsCRT@D@ATL@@@@@ATL@@QAE@XZ
  0028d	8b 45 08	 mov	 eax, DWORD PTR ___$ReturnUdt$[ebp]
  00290	8b 4d f4	 mov	 ecx, DWORD PTR __$EHRec$[ebp]
  00293	64 89 0d 00 00
	00 00		 mov	 DWORD PTR fs:0, ecx
  0029a	59		 pop	 ecx
  0029b	5f		 pop	 edi
  0029c	5e		 pop	 esi
  0029d	5b		 pop	 ebx
  0029e	8b e5		 mov	 esp, ebp
  002a0	5d		 pop	 ebp
  002a1	c2 14 00	 ret	 20			; 00000014H
$LN101@GetCompart:
  002a4	00 00 00 00	 DD	 $LN5@GetCompart
  002a8	00 00 00 00	 DD	 $LN8@GetCompart
  002ac	00 00 00 00	 DD	 $LN2@GetCompart
$LN100@GetCompart:
  002b0	00		 DB	 0
  002b1	00		 DB	 0
  002b2	01		 DB	 1
  002b3	02		 DB	 2
  002b4	02		 DB	 2
  002b5	02		 DB	 2
  002b6	02		 DB	 2
  002b7	02		 DB	 2
  002b8	00		 DB	 0
_TEXT	ENDS
;	COMDAT text$x
text$x	SEGMENT
__unwindfunclet$?GetCompartScaleData_Time@CScaleCalculator@@QAE?AV?$CStringT@DV?$StrTraitMFC_DLL@DV?$ChTraitsCRT@D@ATL@@@@@ATL@@W4HORZSCALEDRAWERTYPE@CScaleBaseData@@ABV23@1ABVCScaleCompart@@@Z$0:
  00000	8d 4d f0	 lea	 ecx, DWORD PTR _realPacketData$[ebp]
  00003	ff 25 00 00 00
	00		 jmp	 DWORD PTR __imp_??1?$CStringT@DV?$StrTraitMFC_DLL@DV?$ChTraitsCRT@D@ATL@@@@@ATL@@QAE@XZ
__unwindfunclet$?GetCompartScaleData_Time@CScaleCalculator@@QAE?AV?$CStringT@DV?$StrTraitMFC_DLL@DV?$ChTraitsCRT@D@ATL@@@@@ATL@@W4HORZSCALEDRAWERTYPE@CScaleBaseData@@ABV23@1ABVCScaleCompart@@@Z$2:
  00009	8d 4d 14	 lea	 ecx, DWORD PTR _strSpecialTime$10[ebp]
  0000c	ff 25 00 00 00
	00		 jmp	 DWORD PTR __imp_??1?$CStringT@DV?$StrTraitMFC_DLL@DV?$ChTraitsCRT@D@ATL@@@@@ATL@@QAE@XZ
__unwindfunclet$?GetCompartScaleData_Time@CScaleCalculator@@QAE?AV?$CStringT@DV?$StrTraitMFC_DLL@DV?$ChTraitsCRT@D@ATL@@@@@ATL@@W4HORZSCALEDRAWERTYPE@CScaleBaseData@@ABV23@1ABVCScaleCompart@@@Z$3:
  00012	8d 4d 10	 lea	 ecx, DWORD PTR _strData_date$7[ebp]
  00015	ff 25 00 00 00
	00		 jmp	 DWORD PTR __imp_??1?$CStringT@DV?$StrTraitMFC_DLL@DV?$ChTraitsCRT@D@ATL@@@@@ATL@@QAE@XZ
__unwindfunclet$?GetCompartScaleData_Time@CScaleCalculator@@QAE?AV?$CStringT@DV?$StrTraitMFC_DLL@DV?$ChTraitsCRT@D@ATL@@@@@ATL@@W4HORZSCALEDRAWERTYPE@CScaleBaseData@@ABV23@1ABVCScaleCompart@@@Z$4:
  0001b	8d 4d 14	 lea	 ecx, DWORD PTR _strData_time$9[ebp]
  0001e	ff 25 00 00 00
	00		 jmp	 DWORD PTR __imp_??1?$CStringT@DV?$StrTraitMFC_DLL@DV?$ChTraitsCRT@D@ATL@@@@@ATL@@QAE@XZ
__unwindfunclet$?GetCompartScaleData_Time@CScaleCalculator@@QAE?AV?$CStringT@DV?$StrTraitMFC_DLL@DV?$ChTraitsCRT@D@ATL@@@@@ATL@@W4HORZSCALEDRAWERTYPE@CScaleBaseData@@ABV23@1ABVCScaleCompart@@@Z$7:
  00024	8d 4d ec	 lea	 ecx, DWORD PTR $T4[ebp]
  00027	ff 25 00 00 00
	00		 jmp	 DWORD PTR __imp_??1?$CStringT@DV?$StrTraitMFC_DLL@DV?$ChTraitsCRT@D@ATL@@@@@ATL@@QAE@XZ
__unwindfunclet$?GetCompartScaleData_Time@CScaleCalculator@@QAE?AV?$CStringT@DV?$StrTraitMFC_DLL@DV?$ChTraitsCRT@D@ATL@@@@@ATL@@W4HORZSCALEDRAWERTYPE@CScaleBaseData@@ABV23@1ABVCScaleCompart@@@Z$8:
  0002d	8d 4d 0c	 lea	 ecx, DWORD PTR $T5[ebp]
  00030	ff 25 00 00 00
	00		 jmp	 DWORD PTR __imp_??1?$CStringT@DV?$StrTraitMFC_DLL@DV?$ChTraitsCRT@D@ATL@@@@@ATL@@QAE@XZ
__unwindfunclet$?GetCompartScaleData_Time@CScaleCalculator@@QAE?AV?$CStringT@DV?$StrTraitMFC_DLL@DV?$ChTraitsCRT@D@ATL@@@@@ATL@@W4HORZSCALEDRAWERTYPE@CScaleBaseData@@ABV23@1ABVCScaleCompart@@@Z$9:
  00036	8d 4d 10	 lea	 ecx, DWORD PTR _strData_date$6[ebp]
  00039	ff 25 00 00 00
	00		 jmp	 DWORD PTR __imp_??1?$CStringT@DV?$StrTraitMFC_DLL@DV?$ChTraitsCRT@D@ATL@@@@@ATL@@QAE@XZ
__unwindfunclet$?GetCompartScaleData_Time@CScaleCalculator@@QAE?AV?$CStringT@DV?$StrTraitMFC_DLL@DV?$ChTraitsCRT@D@ATL@@@@@ATL@@W4HORZSCALEDRAWERTYPE@CScaleBaseData@@ABV23@1ABVCScaleCompart@@@Z$10:
  0003f	8d 4d 14	 lea	 ecx, DWORD PTR _strData_time$8[ebp]
  00042	ff 25 00 00 00
	00		 jmp	 DWORD PTR __imp_??1?$CStringT@DV?$StrTraitMFC_DLL@DV?$ChTraitsCRT@D@ATL@@@@@ATL@@QAE@XZ
__unwindfunclet$?GetCompartScaleData_Time@CScaleCalculator@@QAE?AV?$CStringT@DV?$StrTraitMFC_DLL@DV?$ChTraitsCRT@D@ATL@@@@@ATL@@W4HORZSCALEDRAWERTYPE@CScaleBaseData@@ABV23@1ABVCScaleCompart@@@Z$13:
  00048	8b 45 e4	 mov	 eax, DWORD PTR $T2[ebp]
  0004b	83 e0 08	 and	 eax, 8
  0004e	0f 84 0d 00 00
	00		 je	 $LN81@GetCompart
  00054	83 65 e4 f7	 and	 DWORD PTR $T2[ebp], -9	; fffffff7H
  00058	8d 4d 18	 lea	 ecx, DWORD PTR $T11[ebp]
  0005b	ff 25 00 00 00
	00		 jmp	 DWORD PTR __imp_??1?$CStringT@DV?$StrTraitMFC_DLL@DV?$ChTraitsCRT@D@ATL@@@@@ATL@@QAE@XZ
$LN81@GetCompart:
  00061	c3		 ret	 0
  00062	cc		 int	 3
  00063	cc		 int	 3
  00064	cc		 int	 3
  00065	cc		 int	 3
  00066	cc		 int	 3
__ehhandler$?GetCompartScaleData_Time@CScaleCalculator@@QAE?AV?$CStringT@DV?$StrTraitMFC_DLL@DV?$ChTraitsCRT@D@ATL@@@@@ATL@@W4HORZSCALEDRAWERTYPE@CScaleBaseData@@ABV23@1ABVCScaleCompart@@@Z:
  00067	90		 npad	 1
  00068	90		 npad	 1
  00069	8b 54 24 08	 mov	 edx, DWORD PTR [esp+8]
  0006d	8d 42 0c	 lea	 eax, DWORD PTR [edx+12]
  00070	8b 4a e0	 mov	 ecx, DWORD PTR [edx-32]
  00073	33 c8		 xor	 ecx, eax
  00075	e8 00 00 00 00	 call	 @__security_check_cookie@4
  0007a	b8 00 00 00 00	 mov	 eax, OFFSET __ehfuncinfo$?GetCompartScaleData_Time@CScaleCalculator@@QAE?AV?$CStringT@DV?$StrTraitMFC_DLL@DV?$ChTraitsCRT@D@ATL@@@@@ATL@@W4HORZSCALEDRAWERTYPE@CScaleBaseData@@ABV23@1ABVCScaleCompart@@@Z
  0007f	e9 00 00 00 00	 jmp	 ___CxxFrameHandler3
text$x	ENDS
?GetCompartScaleData_Time@CScaleCalculator@@QAE?AV?$CStringT@DV?$StrTraitMFC_DLL@DV?$ChTraitsCRT@D@ATL@@@@@ATL@@W4HORZSCALEDRAWERTYPE@CScaleBaseData@@ABV23@1ABVCScaleCompart@@@Z ENDP ; CScaleCalculator::GetCompartScaleData_Time
; Function compile flags: /Ogtp
; File D:\git\src\IBK\IBK_DRFN\ProjSrc\SrcChartEx\ChartOCX\Include_Chart\ScaleCalculator.cpp
; File C:\Program Files (x86)\Microsoft Visual Studio\2019\Community\VC\Tools\MSVC\14.29.30133\atlmfc\include\atlsimpstr.h
; File D:\git\src\IBK\IBK_DRFN\ProjSrc\SrcChartEx\ChartOCX\Include_Chart\ScaleCalculator.cpp
;	COMDAT ?GetCompartScaleData_Date@CScaleCalculator@@QAE?AV?$CStringT@DV?$StrTraitMFC_DLL@DV?$ChTraitsCRT@D@ATL@@@@@ATL@@ABV23@00@Z
_TEXT	SEGMENT
__$EHRec$ = -12						; size = 12
___$ReturnUdt$ = 8					; size = 4
_packetData$ = 12					; size = 4
$T2 = 16						; size = 4
_dataType$ = 16						; size = 4
_compartType$ = 20					; size = 4
?GetCompartScaleData_Date@CScaleCalculator@@QAE?AV?$CStringT@DV?$StrTraitMFC_DLL@DV?$ChTraitsCRT@D@ATL@@@@@ATL@@ABV23@00@Z PROC ; CScaleCalculator::GetCompartScaleData_Date, COMDAT
; _this$ = ecx

; 35   : {

  00000	55		 push	 ebp
  00001	8b ec		 mov	 ebp, esp
  00003	6a ff		 push	 -1
  00005	68 00 00 00 00	 push	 __ehhandler$?GetCompartScaleData_Date@CScaleCalculator@@QAE?AV?$CStringT@DV?$StrTraitMFC_DLL@DV?$ChTraitsCRT@D@ATL@@@@@ATL@@ABV23@00@Z
  0000a	64 a1 00 00 00
	00		 mov	 eax, DWORD PTR fs:0
  00010	50		 push	 eax
  00011	56		 push	 esi
  00012	57		 push	 edi
  00013	a1 00 00 00 00	 mov	 eax, DWORD PTR ___security_cookie
  00018	33 c5		 xor	 eax, ebp
  0001a	50		 push	 eax
  0001b	8d 45 f4	 lea	 eax, DWORD PTR __$EHRec$[ebp]
  0001e	64 a3 00 00 00
	00		 mov	 DWORD PTR fs:0, eax
  00024	8b f9		 mov	 edi, ecx
; File C:\Program Files (x86)\Microsoft Visual Studio\2019\Community\VC\Tools\MSVC\14.29.30133\atlmfc\include\atlsimpstr.h

; 519  : 		return( GetData()->nDataLength );

  00026	8b 75 10	 mov	 esi, DWORD PTR _dataType$[ebp]
  00029	8b 06		 mov	 eax, DWORD PTR [esi]
; File D:\git\src\IBK\IBK_DRFN\ProjSrc\SrcChartEx\ChartOCX\Include_Chart\ScaleCalculator.cpp

; 36   : 	return GetCompartScaleDate(GetRealPacketData(packetData, dataType.GetLength()), dataType, compartType);

  0002b	ff 70 f4	 push	 DWORD PTR [eax-12]
  0002e	8d 45 10	 lea	 eax, DWORD PTR $T2[ebp]
  00031	ff 75 0c	 push	 DWORD PTR _packetData$[ebp]
  00034	50		 push	 eax
  00035	e8 00 00 00 00	 call	 ?GetRealPacketData@CScaleCalculator@@CA?AV?$CStringT@DV?$StrTraitMFC_DLL@DV?$ChTraitsCRT@D@ATL@@@@@ATL@@ABV23@H@Z ; CScaleCalculator::GetRealPacketData
  0003a	83 c4 0c	 add	 esp, 12			; 0000000cH
  0003d	ff 75 14	 push	 DWORD PTR _compartType$[ebp]
  00040	8b cf		 mov	 ecx, edi
  00042	c7 45 fc 00 00
	00 00		 mov	 DWORD PTR __$EHRec$[ebp+8], 0
  00049	56		 push	 esi
  0004a	8b 75 08	 mov	 esi, DWORD PTR ___$ReturnUdt$[ebp]
  0004d	50		 push	 eax
  0004e	56		 push	 esi
  0004f	e8 00 00 00 00	 call	 ?GetCompartScaleDate@CScaleCalculator@@AAE?AV?$CStringT@DV?$StrTraitMFC_DLL@DV?$ChTraitsCRT@D@ATL@@@@@ATL@@ABV23@00@Z ; CScaleCalculator::GetCompartScaleDate
  00054	8d 4d 10	 lea	 ecx, DWORD PTR $T2[ebp]
  00057	ff 15 00 00 00
	00		 call	 DWORD PTR __imp_??1?$CStringT@DV?$StrTraitMFC_DLL@DV?$ChTraitsCRT@D@ATL@@@@@ATL@@QAE@XZ
  0005d	8b c6		 mov	 eax, esi

; 37   : }

  0005f	8b 4d f4	 mov	 ecx, DWORD PTR __$EHRec$[ebp]
  00062	64 89 0d 00 00
	00 00		 mov	 DWORD PTR fs:0, ecx
  00069	59		 pop	 ecx
  0006a	5f		 pop	 edi
  0006b	5e		 pop	 esi
  0006c	8b e5		 mov	 esp, ebp
  0006e	5d		 pop	 ebp
  0006f	c2 10 00	 ret	 16			; 00000010H
_TEXT	ENDS
;	COMDAT text$x
text$x	SEGMENT
__unwindfunclet$?GetCompartScaleData_Date@CScaleCalculator@@QAE?AV?$CStringT@DV?$StrTraitMFC_DLL@DV?$ChTraitsCRT@D@ATL@@@@@ATL@@ABV23@00@Z$0:
  00000	8d 4d 10	 lea	 ecx, DWORD PTR $T2[ebp]
  00003	ff 25 00 00 00
	00		 jmp	 DWORD PTR __imp_??1?$CStringT@DV?$StrTraitMFC_DLL@DV?$ChTraitsCRT@D@ATL@@@@@ATL@@QAE@XZ
  00009	cc		 int	 3
  0000a	cc		 int	 3
  0000b	cc		 int	 3
  0000c	cc		 int	 3
  0000d	cc		 int	 3
__ehhandler$?GetCompartScaleData_Date@CScaleCalculator@@QAE?AV?$CStringT@DV?$StrTraitMFC_DLL@DV?$ChTraitsCRT@D@ATL@@@@@ATL@@ABV23@00@Z:
  0000e	90		 npad	 1
  0000f	90		 npad	 1
  00010	8b 54 24 08	 mov	 edx, DWORD PTR [esp+8]
  00014	8d 42 0c	 lea	 eax, DWORD PTR [edx+12]
  00017	8b 4a f4	 mov	 ecx, DWORD PTR [edx-12]
  0001a	33 c8		 xor	 ecx, eax
  0001c	e8 00 00 00 00	 call	 @__security_check_cookie@4
  00021	b8 00 00 00 00	 mov	 eax, OFFSET __ehfuncinfo$?GetCompartScaleData_Date@CScaleCalculator@@QAE?AV?$CStringT@DV?$StrTraitMFC_DLL@DV?$ChTraitsCRT@D@ATL@@@@@ATL@@ABV23@00@Z
  00026	e9 00 00 00 00	 jmp	 ___CxxFrameHandler3
text$x	ENDS
?GetCompartScaleData_Date@CScaleCalculator@@QAE?AV?$CStringT@DV?$StrTraitMFC_DLL@DV?$ChTraitsCRT@D@ATL@@@@@ATL@@ABV23@00@Z ENDP ; CScaleCalculator::GetCompartScaleData_Date
; Function compile flags: /Ogtp
; File D:\git\src\IBK\IBK_DRFN\ProjSrc\SrcChartEx\ChartOCX\Include_Chart\ScaleCalculator.cpp
; File C:\Program Files (x86)\Microsoft Visual Studio\2019\Community\VC\Tools\MSVC\14.29.30133\atlmfc\include\atlsimpstr.h
; File D:\git\src\IBK\IBK_DRFN\ProjSrc\SrcChartEx\ChartOCX\Include_Chart\ScaleCalculator.cpp
; File C:\Program Files (x86)\Microsoft Visual Studio\2019\Community\VC\Tools\MSVC\14.29.30133\atlmfc\include\atlsimpstr.h
; File D:\git\src\IBK\IBK_DRFN\ProjSrc\SrcChartEx\ChartOCX\Include_Chart\ScaleCalculator.cpp
;	COMDAT ?GetCompartScaleData@CScaleCalculator@@QAE?AV?$CStringT@DV?$StrTraitMFC_DLL@DV?$ChTraitsCRT@D@ATL@@@@@ATL@@W4HORZSCALEDRAWERTYPE@CScaleBaseData@@ABV23@1ABVCScaleCompart@@@Z
_TEXT	SEGMENT
__$EHRec$ = -12						; size = 12
___$ReturnUdt$ = 8					; size = 4
$T2 = 12						; size = 4
_scaleDrawerType$ = 12					; size = 4
_packetData$ = 16					; size = 4
_dataType$ = 20						; size = 4
$T3 = 24						; size = 4
_scaleCompart$ = 24					; size = 4
?GetCompartScaleData@CScaleCalculator@@QAE?AV?$CStringT@DV?$StrTraitMFC_DLL@DV?$ChTraitsCRT@D@ATL@@@@@ATL@@W4HORZSCALEDRAWERTYPE@CScaleBaseData@@ABV23@1ABVCScaleCompart@@@Z PROC ; CScaleCalculator::GetCompartScaleData, COMDAT
; _this$ = ecx

; 18   : {

  00000	55		 push	 ebp
  00001	8b ec		 mov	 ebp, esp
  00003	6a ff		 push	 -1
  00005	68 00 00 00 00	 push	 __ehhandler$?GetCompartScaleData@CScaleCalculator@@QAE?AV?$CStringT@DV?$StrTraitMFC_DLL@DV?$ChTraitsCRT@D@ATL@@@@@ATL@@W4HORZSCALEDRAWERTYPE@CScaleBaseData@@ABV23@1ABVCScaleCompart@@@Z
  0000a	64 a1 00 00 00
	00		 mov	 eax, DWORD PTR fs:0
  00010	50		 push	 eax
  00011	53		 push	 ebx
  00012	56		 push	 esi
  00013	57		 push	 edi
  00014	a1 00 00 00 00	 mov	 eax, DWORD PTR ___security_cookie
  00019	33 c5		 xor	 eax, ebp
  0001b	50		 push	 eax
  0001c	8d 45 f4	 lea	 eax, DWORD PTR __$EHRec$[ebp]
  0001f	64 a3 00 00 00
	00		 mov	 DWORD PTR fs:0, eax
  00025	8b d9		 mov	 ebx, ecx

; 19   : 	switch(scaleDrawerType){

  00027	8b 55 0c	 mov	 edx, DWORD PTR _scaleDrawerType$[ebp]
  0002a	8d 42 ff	 lea	 eax, DWORD PTR [edx-1]
  0002d	83 f8 0b	 cmp	 eax, 11			; 0000000bH
  00030	0f 87 9e 00 00
	00		 ja	 $LN2@GetCompart
  00036	0f b6 80 00 00
	00 00		 movzx	 eax, BYTE PTR $LN24@GetCompart[eax]
  0003d	ff 24 85 00 00
	00 00		 jmp	 DWORD PTR $LN25@GetCompart[eax*4]
$LN4@GetCompart:

; 20   : 	case CScaleBaseData::HORZ_DAILY:	//
; 21   : 	case CScaleBaseData::HORZ_WEEKLEY:	//
; 22   : 	case CScaleBaseData::HORZ_MONTHLY:	//
; 23   : 		return GetCompartScaleData_Date(packetData, dataType, scaleCompart.GetDateCompart());

  00044	8b 4d 18	 mov	 ecx, DWORD PTR _scaleCompart$[ebp]
  00047	8d 45 0c	 lea	 eax, DWORD PTR $T2[ebp]
  0004a	50		 push	 eax
  0004b	ff 15 00 00 00
	00		 call	 DWORD PTR __imp_?GetDateCompart@CScaleCompart@@QBE?AV?$CStringT@DV?$StrTraitMFC_DLL@DV?$ChTraitsCRT@D@ATL@@@@@ATL@@XZ
  00051	8b f8		 mov	 edi, eax
; File C:\Program Files (x86)\Microsoft Visual Studio\2019\Community\VC\Tools\MSVC\14.29.30133\atlmfc\include\atlsimpstr.h

; 519  : 		return( GetData()->nDataLength );

  00053	8b 75 14	 mov	 esi, DWORD PTR _dataType$[ebp]
; File D:\git\src\IBK\IBK_DRFN\ProjSrc\SrcChartEx\ChartOCX\Include_Chart\ScaleCalculator.cpp

; 36   : 	return GetCompartScaleDate(GetRealPacketData(packetData, dataType.GetLength()), dataType, compartType);

  00056	8d 45 18	 lea	 eax, DWORD PTR $T3[ebp]

; 20   : 	case CScaleBaseData::HORZ_DAILY:	//
; 21   : 	case CScaleBaseData::HORZ_WEEKLEY:	//
; 22   : 	case CScaleBaseData::HORZ_MONTHLY:	//
; 23   : 		return GetCompartScaleData_Date(packetData, dataType, scaleCompart.GetDateCompart());

  00059	c7 45 fc 00 00
	00 00		 mov	 DWORD PTR __$EHRec$[ebp+8], 0
; File C:\Program Files (x86)\Microsoft Visual Studio\2019\Community\VC\Tools\MSVC\14.29.30133\atlmfc\include\atlsimpstr.h

; 519  : 		return( GetData()->nDataLength );

  00060	8b 0e		 mov	 ecx, DWORD PTR [esi]
; File D:\git\src\IBK\IBK_DRFN\ProjSrc\SrcChartEx\ChartOCX\Include_Chart\ScaleCalculator.cpp

; 36   : 	return GetCompartScaleDate(GetRealPacketData(packetData, dataType.GetLength()), dataType, compartType);

  00062	ff 71 f4	 push	 DWORD PTR [ecx-12]
  00065	ff 75 10	 push	 DWORD PTR _packetData$[ebp]
  00068	50		 push	 eax
  00069	e8 00 00 00 00	 call	 ?GetRealPacketData@CScaleCalculator@@CA?AV?$CStringT@DV?$StrTraitMFC_DLL@DV?$ChTraitsCRT@D@ATL@@@@@ATL@@ABV23@H@Z ; CScaleCalculator::GetRealPacketData
  0006e	83 c4 0c	 add	 esp, 12			; 0000000cH
  00071	57		 push	 edi
  00072	56		 push	 esi
  00073	8b 75 08	 mov	 esi, DWORD PTR ___$ReturnUdt$[ebp]
  00076	8b cb		 mov	 ecx, ebx
  00078	50		 push	 eax
  00079	56		 push	 esi
  0007a	c6 45 fc 01	 mov	 BYTE PTR __$EHRec$[ebp+8], 1
  0007e	e8 00 00 00 00	 call	 ?GetCompartScaleDate@CScaleCalculator@@AAE?AV?$CStringT@DV?$StrTraitMFC_DLL@DV?$ChTraitsCRT@D@ATL@@@@@ATL@@ABV23@00@Z ; CScaleCalculator::GetCompartScaleDate
  00083	8d 4d 18	 lea	 ecx, DWORD PTR $T3[ebp]
  00086	ff 15 00 00 00
	00		 call	 DWORD PTR __imp_??1?$CStringT@DV?$StrTraitMFC_DLL@DV?$ChTraitsCRT@D@ATL@@@@@ATL@@QAE@XZ

; 20   : 	case CScaleBaseData::HORZ_DAILY:	//
; 21   : 	case CScaleBaseData::HORZ_WEEKLEY:	//
; 22   : 	case CScaleBaseData::HORZ_MONTHLY:	//
; 23   : 		return GetCompartScaleData_Date(packetData, dataType, scaleCompart.GetDateCompart());

  0008c	8d 4d 0c	 lea	 ecx, DWORD PTR $T2[ebp]
  0008f	ff 15 00 00 00
	00		 call	 DWORD PTR __imp_??1?$CStringT@DV?$StrTraitMFC_DLL@DV?$ChTraitsCRT@D@ATL@@@@@ATL@@QAE@XZ
  00095	8b c6		 mov	 eax, esi

; 32   : }

  00097	8b 4d f4	 mov	 ecx, DWORD PTR __$EHRec$[ebp]
  0009a	64 89 0d 00 00
	00 00		 mov	 DWORD PTR fs:0, ecx
  000a1	59		 pop	 ecx
  000a2	5f		 pop	 edi
  000a3	5e		 pop	 esi
  000a4	5b		 pop	 ebx
  000a5	8b e5		 mov	 esp, ebp
  000a7	5d		 pop	 ebp
  000a8	c2 14 00	 ret	 20			; 00000014H
$LN7@GetCompart:

; 24   : 	case CScaleBaseData::HORZ_TIME_ONE:	//
; 25   : 	case CScaleBaseData::HORZ_TIME_TWO:	//
; 26   : 	case CScaleBaseData::HORZ_TICK:		//
; 27   : 	case CScaleBaseData::HORZ_TIME_SECOND:
; 28   : 		return GetCompartScaleData_Time(scaleDrawerType, packetData, dataType, scaleCompart);

  000ab	ff 75 18	 push	 DWORD PTR _scaleCompart$[ebp]
  000ae	8b 75 08	 mov	 esi, DWORD PTR ___$ReturnUdt$[ebp]
  000b1	ff 75 14	 push	 DWORD PTR _dataType$[ebp]
  000b4	ff 75 10	 push	 DWORD PTR _packetData$[ebp]
  000b7	52		 push	 edx
  000b8	56		 push	 esi
  000b9	e8 00 00 00 00	 call	 ?GetCompartScaleData_Time@CScaleCalculator@@QAE?AV?$CStringT@DV?$StrTraitMFC_DLL@DV?$ChTraitsCRT@D@ATL@@@@@ATL@@W4HORZSCALEDRAWERTYPE@CScaleBaseData@@ABV23@1ABVCScaleCompart@@@Z ; CScaleCalculator::GetCompartScaleData_Time
  000be	8b c6		 mov	 eax, esi

; 32   : }

  000c0	8b 4d f4	 mov	 ecx, DWORD PTR __$EHRec$[ebp]
  000c3	64 89 0d 00 00
	00 00		 mov	 DWORD PTR fs:0, ecx
  000ca	59		 pop	 ecx
  000cb	5f		 pop	 edi
  000cc	5e		 pop	 esi
  000cd	5b		 pop	 ebx
  000ce	8b e5		 mov	 esp, ebp
  000d0	5d		 pop	 ebp
  000d1	c2 14 00	 ret	 20			; 00000014H
$LN2@GetCompart:

; 29   : 	}
; 30   : 
; 31   : 	return "";

  000d4	8b 4d 08	 mov	 ecx, DWORD PTR ___$ReturnUdt$[ebp]
  000d7	68 00 00 00 00	 push	 OFFSET ??_C@_00CNPNBAHC@@
  000dc	ff 15 00 00 00
	00		 call	 DWORD PTR __imp_??0?$CStringT@DV?$StrTraitMFC_DLL@DV?$ChTraitsCRT@D@ATL@@@@@ATL@@QAE@PBD@Z
  000e2	8b 45 08	 mov	 eax, DWORD PTR ___$ReturnUdt$[ebp]

; 32   : }

  000e5	8b 4d f4	 mov	 ecx, DWORD PTR __$EHRec$[ebp]
  000e8	64 89 0d 00 00
	00 00		 mov	 DWORD PTR fs:0, ecx
  000ef	59		 pop	 ecx
  000f0	5f		 pop	 edi
  000f1	5e		 pop	 esi
  000f2	5b		 pop	 ebx
  000f3	8b e5		 mov	 esp, ebp
  000f5	5d		 pop	 ebp
  000f6	c2 14 00	 ret	 20			; 00000014H
  000f9	0f 1f 00	 npad	 3
$LN25@GetCompart:
  000fc	00 00 00 00	 DD	 $LN4@GetCompart
  00100	00 00 00 00	 DD	 $LN7@GetCompart
  00104	00 00 00 00	 DD	 $LN2@GetCompart
$LN24@GetCompart:
  00108	00		 DB	 0
  00109	00		 DB	 0
  0010a	00		 DB	 0
  0010b	01		 DB	 1
  0010c	01		 DB	 1
  0010d	01		 DB	 1
  0010e	02		 DB	 2
  0010f	02		 DB	 2
  00110	02		 DB	 2
  00111	02		 DB	 2
  00112	02		 DB	 2
  00113	01		 DB	 1
_TEXT	ENDS
;	COMDAT text$x
text$x	SEGMENT
__unwindfunclet$?GetCompartScaleData@CScaleCalculator@@QAE?AV?$CStringT@DV?$StrTraitMFC_DLL@DV?$ChTraitsCRT@D@ATL@@@@@ATL@@W4HORZSCALEDRAWERTYPE@CScaleBaseData@@ABV23@1ABVCScaleCompart@@@Z$0:
  00000	8d 4d 0c	 lea	 ecx, DWORD PTR $T2[ebp]
  00003	ff 25 00 00 00
	00		 jmp	 DWORD PTR __imp_??1?$CStringT@DV?$StrTraitMFC_DLL@DV?$ChTraitsCRT@D@ATL@@@@@ATL@@QAE@XZ
__unwindfunclet$?GetCompartScaleData@CScaleCalculator@@QAE?AV?$CStringT@DV?$StrTraitMFC_DLL@DV?$ChTraitsCRT@D@ATL@@@@@ATL@@W4HORZSCALEDRAWERTYPE@CScaleBaseData@@ABV23@1ABVCScaleCompart@@@Z$2:
  00009	8d 4d 18	 lea	 ecx, DWORD PTR $T3[ebp]
  0000c	ff 25 00 00 00
	00		 jmp	 DWORD PTR __imp_??1?$CStringT@DV?$StrTraitMFC_DLL@DV?$ChTraitsCRT@D@ATL@@@@@ATL@@QAE@XZ
  00012	cc		 int	 3
  00013	cc		 int	 3
  00014	cc		 int	 3
  00015	cc		 int	 3
  00016	cc		 int	 3
__ehhandler$?GetCompartScaleData@CScaleCalculator@@QAE?AV?$CStringT@DV?$StrTraitMFC_DLL@DV?$ChTraitsCRT@D@ATL@@@@@ATL@@W4HORZSCALEDRAWERTYPE@CScaleBaseData@@ABV23@1ABVCScaleCompart@@@Z:
  00017	90		 npad	 1
  00018	90		 npad	 1
  00019	8b 54 24 08	 mov	 edx, DWORD PTR [esp+8]
  0001d	8d 42 0c	 lea	 eax, DWORD PTR [edx+12]
  00020	8b 4a f0	 mov	 ecx, DWORD PTR [edx-16]
  00023	33 c8		 xor	 ecx, eax
  00025	e8 00 00 00 00	 call	 @__security_check_cookie@4
  0002a	b8 00 00 00 00	 mov	 eax, OFFSET __ehfuncinfo$?GetCompartScaleData@CScaleCalculator@@QAE?AV?$CStringT@DV?$StrTraitMFC_DLL@DV?$ChTraitsCRT@D@ATL@@@@@ATL@@W4HORZSCALEDRAWERTYPE@CScaleBaseData@@ABV23@1ABVCScaleCompart@@@Z
  0002f	e9 00 00 00 00	 jmp	 ___CxxFrameHandler3
text$x	ENDS
?GetCompartScaleData@CScaleCalculator@@QAE?AV?$CStringT@DV?$StrTraitMFC_DLL@DV?$ChTraitsCRT@D@ATL@@@@@ATL@@W4HORZSCALEDRAWERTYPE@CScaleBaseData@@ABV23@1ABVCScaleCompart@@@Z ENDP ; CScaleCalculator::GetCompartScaleData
; Function compile flags: /Ogtp
; File C:\Program Files (x86)\Microsoft Visual Studio\2019\Community\VC\Tools\MSVC\14.29.30133\atlmfc\include\cstringt.h
; File C:\Program Files (x86)\Microsoft Visual Studio\2019\Community\VC\Tools\MSVC\14.29.30133\atlmfc\include\atlsimpstr.h
; File C:\Program Files (x86)\Microsoft Visual Studio\2019\Community\VC\Tools\MSVC\14.29.30133\atlmfc\include\cstringt.h
; File C:\Program Files (x86)\Microsoft Visual Studio\2019\Community\VC\Tools\MSVC\14.29.30133\atlmfc\include\atlsimpstr.h
; File C:\Program Files (x86)\Microsoft Visual Studio\2019\Community\VC\Tools\MSVC\14.29.30133\atlmfc\include\cstringt.h
;	COMDAT ??HATL@@YA?AV?$CStringT@DV?$StrTraitMFC_DLL@DV?$ChTraitsCRT@D@ATL@@@@@0@ABV10@0@Z
_TEXT	SEGMENT
$T2 = -16						; size = 4
__$EHRec$ = -12						; size = 12
___$ReturnUdt$ = 8					; size = 4
_str1$ = 12						; size = 4
_str2$ = 16						; size = 4
??HATL@@YA?AV?$CStringT@DV?$StrTraitMFC_DLL@DV?$ChTraitsCRT@D@ATL@@@@@0@ABV10@0@Z PROC ; ATL::operator+, COMDAT

; 2389 : 	{

  00000	55		 push	 ebp
  00001	8b ec		 mov	 ebp, esp
  00003	6a ff		 push	 -1
  00005	68 00 00 00 00	 push	 __ehhandler$??HATL@@YA?AV?$CStringT@DV?$StrTraitMFC_DLL@DV?$ChTraitsCRT@D@ATL@@@@@0@ABV10@0@Z
  0000a	64 a1 00 00 00
	00		 mov	 eax, DWORD PTR fs:0
  00010	50		 push	 eax
  00011	51		 push	 ecx
  00012	56		 push	 esi
  00013	57		 push	 edi
  00014	a1 00 00 00 00	 mov	 eax, DWORD PTR ___security_cookie
  00019	33 c5		 xor	 eax, ebp
  0001b	50		 push	 eax
  0001c	8d 45 f4	 lea	 eax, DWORD PTR __$EHRec$[ebp]
  0001f	64 a3 00 00 00
	00		 mov	 DWORD PTR fs:0, eax

; 2390 : 		CStringT strResult( str1.GetManager() );

  00025	8b 75 0c	 mov	 esi, DWORD PTR _str1$[ebp]
  00028	8b ce		 mov	 ecx, esi
  0002a	c7 45 f0 00 00
	00 00		 mov	 DWORD PTR $T2[ebp], 0
  00031	ff 15 00 00 00
	00		 call	 DWORD PTR __imp_?GetManager@?$CStringT@DV?$StrTraitMFC_DLL@DV?$ChTraitsCRT@D@ATL@@@@@ATL@@QBEPAUIAtlStringMgr@2@XZ
  00037	8b 7d 08	 mov	 edi, DWORD PTR ___$ReturnUdt$[ebp]
  0003a	8b cf		 mov	 ecx, edi
  0003c	50		 push	 eax
  0003d	ff 15 00 00 00
	00		 call	 DWORD PTR __imp_??0?$CStringT@DV?$StrTraitMFC_DLL@DV?$ChTraitsCRT@D@ATL@@@@@ATL@@QAE@PAUIAtlStringMgr@1@@Z
; File C:\Program Files (x86)\Microsoft Visual Studio\2019\Community\VC\Tools\MSVC\14.29.30133\atlmfc\include\atlsimpstr.h

; 519  : 		return( GetData()->nDataLength );

  00043	8b 45 10	 mov	 eax, DWORD PTR _str2$[ebp]
  00046	8b 16		 mov	 edx, DWORD PTR [esi]
; File C:\Program Files (x86)\Microsoft Visual Studio\2019\Community\VC\Tools\MSVC\14.29.30133\atlmfc\include\cstringt.h

; 2394 : 		return( strResult );

  00048	c7 45 fc 00 00
	00 00		 mov	 DWORD PTR __$EHRec$[ebp+8], 0
  0004f	c7 45 f0 01 00
	00 00		 mov	 DWORD PTR $T2[ebp], 1
; File C:\Program Files (x86)\Microsoft Visual Studio\2019\Community\VC\Tools\MSVC\14.29.30133\atlmfc\include\atlsimpstr.h

; 519  : 		return( GetData()->nDataLength );

  00056	8b 08		 mov	 ecx, DWORD PTR [eax]
; File C:\Program Files (x86)\Microsoft Visual Studio\2019\Community\VC\Tools\MSVC\14.29.30133\atlmfc\include\cstringt.h

; 2392 : 		CThisSimpleString::Concatenate( strResult, str1, str1.GetLength(), str2, str2.GetLength() );

  00058	ff 71 f4	 push	 DWORD PTR [ecx-12]
  0005b	51		 push	 ecx
  0005c	ff 72 f4	 push	 DWORD PTR [edx-12]
  0005f	52		 push	 edx
  00060	57		 push	 edi
  00061	ff 15 00 00 00
	00		 call	 DWORD PTR __imp_?Concatenate@?$CSimpleStringT@D$00@ATL@@KAXAAV12@PBDH1H@Z
  00067	83 c4 14	 add	 esp, 20			; 00000014H

; 2394 : 		return( strResult );

  0006a	8b c7		 mov	 eax, edi

; 2395 : 	}

  0006c	8b 4d f4	 mov	 ecx, DWORD PTR __$EHRec$[ebp]
  0006f	64 89 0d 00 00
	00 00		 mov	 DWORD PTR fs:0, ecx
  00076	59		 pop	 ecx
  00077	5f		 pop	 edi
  00078	5e		 pop	 esi
  00079	8b e5		 mov	 esp, ebp
  0007b	5d		 pop	 ebp
  0007c	c3		 ret	 0
_TEXT	ENDS
;	COMDAT text$x
text$x	SEGMENT
__unwindfunclet$??HATL@@YA?AV?$CStringT@DV?$StrTraitMFC_DLL@DV?$ChTraitsCRT@D@ATL@@@@@0@ABV10@0@Z$0:
  00000	8b 45 f0	 mov	 eax, DWORD PTR $T2[ebp]
  00003	83 e0 01	 and	 eax, 1
  00006	0f 84 0d 00 00
	00		 je	 $LN4@operator
  0000c	83 65 f0 fe	 and	 DWORD PTR $T2[ebp], -2	; fffffffeH
  00010	8b 4d 08	 mov	 ecx, DWORD PTR ___$ReturnUdt$[ebp]
  00013	ff 25 00 00 00
	00		 jmp	 DWORD PTR __imp_??1?$CStringT@DV?$StrTraitMFC_DLL@DV?$ChTraitsCRT@D@ATL@@@@@ATL@@QAE@XZ
$LN4@operator:
  00019	c3		 ret	 0
  0001a	cc		 int	 3
  0001b	cc		 int	 3
  0001c	cc		 int	 3
  0001d	cc		 int	 3
  0001e	cc		 int	 3
__ehhandler$??HATL@@YA?AV?$CStringT@DV?$StrTraitMFC_DLL@DV?$ChTraitsCRT@D@ATL@@@@@0@ABV10@0@Z:
  0001f	90		 npad	 1
  00020	90		 npad	 1
  00021	8b 54 24 08	 mov	 edx, DWORD PTR [esp+8]
  00025	8d 42 0c	 lea	 eax, DWORD PTR [edx+12]
  00028	8b 4a f0	 mov	 ecx, DWORD PTR [edx-16]
  0002b	33 c8		 xor	 ecx, eax
  0002d	e8 00 00 00 00	 call	 @__security_check_cookie@4
  00032	b8 00 00 00 00	 mov	 eax, OFFSET __ehfuncinfo$??HATL@@YA?AV?$CStringT@DV?$StrTraitMFC_DLL@DV?$ChTraitsCRT@D@ATL@@@@@0@ABV10@0@Z
  00037	e9 00 00 00 00	 jmp	 ___CxxFrameHandler3
text$x	ENDS
??HATL@@YA?AV?$CStringT@DV?$StrTraitMFC_DLL@DV?$ChTraitsCRT@D@ATL@@@@@0@ABV10@0@Z ENDP ; ATL::operator+
; Function compile flags: /Ogtp
; File D:\git\src\IBK\IBK_DRFN\ProjSrc\SrcChartEx\ChartOCX\Include_Chart\ScaleCalculator.cpp
;	COMDAT ?__empty_global_delete@@YAXPAXI@Z
_TEXT	SEGMENT
___formal$ = 8						; size = 4
___formal$ = 12						; size = 4
?__empty_global_delete@@YAXPAXI@Z PROC			; __empty_global_delete, COMDAT

  00000	c2 00 00	 ret	 0
?__empty_global_delete@@YAXPAXI@Z ENDP			; __empty_global_delete
_TEXT	ENDS
; Function compile flags: /Ogtp
; File D:\git\src\IBK\IBK_DRFN\ProjSrc\SrcChartEx\ChartOCX\Include_Chart\ScaleCalculator.cpp
;	COMDAT ?__empty_global_delete@@YAXPAX@Z
_TEXT	SEGMENT
___formal$ = 8						; size = 4
?__empty_global_delete@@YAXPAX@Z PROC			; __empty_global_delete, COMDAT

  00000	c2 00 00	 ret	 0
?__empty_global_delete@@YAXPAX@Z ENDP			; __empty_global_delete
_TEXT	ENDS
END
