; Listing generated by Microsoft (R) Optimizing Compiler Version 19.29.30145.0 

	TITLE	D:\git\src\IBK\IBK_DRFN\#DRfn-CS\_Obj\ChartObject\ScaleTool.obj
	.686P
	.XMM
	include listing.inc
	.model	flat

INCLUDELIB MSVCRT
INCLUDELIB OLDNAMES

PUBLIC	?__empty_global_delete@@YAXPAX@Z		; __empty_global_delete
PUBLIC	?__empty_global_delete@@YAXPAXI@Z		; __empty_global_delete
PUBLIC	??1CObject@@UAE@XZ				; CObject::~CObject
PUBLIC	?Serialize@CObject@@UAEXAAVCArchive@@@Z		; CObject::Serialize
PUBLIC	?AssertValid@CObject@@UBEXXZ			; CObject::AssertValid
PUBLIC	?Dump@CObject@@UBEXAAVCDumpContext@@@Z		; CObject::Dump
PUBLIC	??0CScaleTool@@QAE@XZ				; CScaleTool::CScaleTool
PUBLIC	?InitializeAllData@CScaleTool@@UAEXXZ		; CScaleTool::InitializeAllData
PUBLIC	?OnLButtonDown@CScaleTool@@UAE_NPAVCDC@@PAVCMainBlock@@IABVCPoint@@@Z ; CScaleTool::OnLButtonDown
PUBLIC	?OnRButtonUp@CScaleTool@@UAE?AW4MENUTYPE@CMenuType@@PAVCDC@@PAVCMainBlock@@ABVCPoint@@@Z ; CScaleTool::OnRButtonUp
PUBLIC	?OnMenu@CScaleTool@@UAE_NPAVCMainBlock@@W4ELEMENTMENU@CMenuType@@I@Z ; CScaleTool::OnMenu
PUBLIC	?Find@CScaleTool@@QAE_NPAVCMainBlock@@ABVCPoint@@@Z ; CScaleTool::Find
PUBLIC	?GetBlock@CScaleTool@@IBEPAVCBlockImp@@XZ	; CScaleTool::GetBlock
PUBLIC	?OnMenu@CScaleTool@@AAE_NPAVCMainBlock@@W4ELEMENTMENU@CMenuType@@H@Z ; CScaleTool::OnMenu
PUBLIC	?OnMenu_HorzScalePosition@CScaleTool@@AAE_NPAVCMainBlock@@W4HORZSCALEPOSITION@CScaleBaseData@@@Z ; CScaleTool::OnMenu_HorzScalePosition
PUBLIC	??0CHorzScaleTool@@QAE@XZ			; CHorzScaleTool::CHorzScaleTool
PUBLIC	?GetToolType@CHorzScaleTool@@UBE?AW4TOOLTYPE@CBlockBaseData@@XZ ; CHorzScaleTool::GetToolType
PUBLIC	?OnLButtonDblClk@CHorzScaleTool@@UAE_NPAVCDC@@PAVCMainBlock@@ABVCPoint@@@Z ; CHorzScaleTool::OnLButtonDblClk
PUBLIC	?OnRButtonUp@CHorzScaleTool@@MAE?AW4MENUTYPE@CMenuType@@XZ ; CHorzScaleTool::OnRButtonUp
PUBLIC	?OnMenu_ScaleSet@CHorzScaleTool@@MAE_NPAVCMainBlock@@H@Z ; CHorzScaleTool::OnMenu_ScaleSet
PUBLIC	?FindScale@CHorzScaleTool@@MAE_NPAVCBlockImp@@ABVCPoint@@@Z ; CHorzScaleTool::FindScale
PUBLIC	?GetHorzScalePtrDataList@CHorzScaleTool@@AAEXPAVCMainBlock@@HAAVCHorizontalScalePtrDataList@@@Z ; CHorzScaleTool::GetHorzScalePtrDataList
PUBLIC	??0CVertScaleTool@@QAE@XZ			; CVertScaleTool::CVertScaleTool
PUBLIC	?GetToolType@CVertScaleTool@@UBE?AW4TOOLTYPE@CBlockBaseData@@XZ ; CVertScaleTool::GetToolType
PUBLIC	?OnLButtonDblClk@CVertScaleTool@@UAE_NPAVCDC@@PAVCMainBlock@@ABVCPoint@@@Z ; CVertScaleTool::OnLButtonDblClk
PUBLIC	?OnRButtonUp@CVertScaleTool@@MAE?AW4MENUTYPE@CMenuType@@PAVCDC@@PAVCMainBlock@@ABVCPoint@@@Z ; CVertScaleTool::OnRButtonUp
PUBLIC	?OnRButtonUp@CVertScaleTool@@MAE?AW4MENUTYPE@CMenuType@@XZ ; CVertScaleTool::OnRButtonUp
PUBLIC	?OnMenu_ScaleSet@CVertScaleTool@@MAE_NPAVCMainBlock@@H@Z ; CVertScaleTool::OnMenu_ScaleSet
PUBLIC	?FindScale@CVertScaleTool@@MAE_NPAVCBlockImp@@ABVCPoint@@@Z ; CVertScaleTool::FindScale
PUBLIC	?GetVertScalePtrDataList@CVertScaleTool@@AAEXPAVCMainBlock@@AAVCVerticalScalePtrDataList@@@Z ; CVertScaleTool::GetVertScalePtrDataList
PUBLIC	?SendMessage_VertScaleSetting@CVertScaleTool@@AAEXXZ ; CVertScaleTool::SendMessage_VertScaleSetting
PUBLIC	?ShowVertScaleSettingDlg@CVertScaleTool@@IAE_NPAVCMainBlock@@H@Z ; CVertScaleTool::ShowVertScaleSettingDlg
PUBLIC	?LoadResourceDLL@IMetaTable@@QAEPAUHINSTANCE__@@PAUHWND__@@PAU2@@Z ; IMetaTable::LoadResourceDLL
PUBLIC	??1CMultiLanguageResourceSetter@@QAE@XZ		; CMultiLanguageResourceSetter::~CMultiLanguageResourceSetter
PUBLIC	??1CHorizontalScalePtrData@@QAE@XZ		; CHorizontalScalePtrData::~CHorizontalScalePtrData
PUBLIC	?AddTail@?$CList@VCHorizontalScalePtrData@@AAV1@@@QAEPAU__POSITION@@AAVCHorizontalScalePtrData@@@Z ; CList<CHorizontalScalePtrData,CHorizontalScalePtrData &>::AddTail
PUBLIC	?RemoveAll@?$CList@VCHorizontalScalePtrData@@AAV1@@@QAEXXZ ; CList<CHorizontalScalePtrData,CHorizontalScalePtrData &>::RemoveAll
PUBLIC	?NewNode@?$CList@VCHorizontalScalePtrData@@AAV1@@@IAEPAUCNode@1@PAU21@0@Z ; CList<CHorizontalScalePtrData,CHorizontalScalePtrData &>::NewNode
PUBLIC	??1?$CList@VCHorizontalScalePtrData@@AAV1@@@UAE@XZ ; CList<CHorizontalScalePtrData,CHorizontalScalePtrData &>::~CList<CHorizontalScalePtrData,CHorizontalScalePtrData &>
PUBLIC	?Serialize@?$CList@VCHorizontalScalePtrData@@AAV1@@@UAEXAAVCArchive@@@Z ; CList<CHorizontalScalePtrData,CHorizontalScalePtrData &>::Serialize
PUBLIC	??_G?$CList@VCHorizontalScalePtrData@@AAV1@@@UAEPAXI@Z ; CList<CHorizontalScalePtrData,CHorizontalScalePtrData &>::`scalar deleting destructor'
PUBLIC	??1CHorizontalScalePtrDataList@@QAE@XZ		; CHorizontalScalePtrDataList::~CHorizontalScalePtrDataList
PUBLIC	?AddTail@?$CList@VCHorizontalScale@@AAV1@@@QAEPAU__POSITION@@AAVCHorizontalScale@@@Z ; CList<CHorizontalScale,CHorizontalScale &>::AddTail
PUBLIC	?RemoveAll@?$CList@VCHorizontalScale@@AAV1@@@QAEXXZ ; CList<CHorizontalScale,CHorizontalScale &>::RemoveAll
PUBLIC	?NewNode@?$CList@VCHorizontalScale@@AAV1@@@IAEPAUCNode@1@PAU21@0@Z ; CList<CHorizontalScale,CHorizontalScale &>::NewNode
PUBLIC	??1?$CList@VCHorizontalScale@@AAV1@@@UAE@XZ	; CList<CHorizontalScale,CHorizontalScale &>::~CList<CHorizontalScale,CHorizontalScale &>
PUBLIC	?Serialize@?$CList@VCHorizontalScale@@AAV1@@@UAEXAAVCArchive@@@Z ; CList<CHorizontalScale,CHorizontalScale &>::Serialize
PUBLIC	??_G?$CList@VCHorizontalScale@@AAV1@@@UAEPAXI@Z	; CList<CHorizontalScale,CHorizontalScale &>::`scalar deleting destructor'
PUBLIC	??1CVerticalScalePtrData@@QAE@XZ		; CVerticalScalePtrData::~CVerticalScalePtrData
PUBLIC	?AddTail@?$CList@VCVerticalScalePtrData@@AAV1@@@QAEPAU__POSITION@@AAVCVerticalScalePtrData@@@Z ; CList<CVerticalScalePtrData,CVerticalScalePtrData &>::AddTail
PUBLIC	?RemoveAll@?$CList@VCVerticalScalePtrData@@AAV1@@@QAEXXZ ; CList<CVerticalScalePtrData,CVerticalScalePtrData &>::RemoveAll
PUBLIC	?NewNode@?$CList@VCVerticalScalePtrData@@AAV1@@@IAEPAUCNode@1@PAU21@0@Z ; CList<CVerticalScalePtrData,CVerticalScalePtrData &>::NewNode
PUBLIC	??1?$CList@VCVerticalScalePtrData@@AAV1@@@UAE@XZ ; CList<CVerticalScalePtrData,CVerticalScalePtrData &>::~CList<CVerticalScalePtrData,CVerticalScalePtrData &>
PUBLIC	?Serialize@?$CList@VCVerticalScalePtrData@@AAV1@@@UAEXAAVCArchive@@@Z ; CList<CVerticalScalePtrData,CVerticalScalePtrData &>::Serialize
PUBLIC	??_G?$CList@VCVerticalScalePtrData@@AAV1@@@UAEPAXI@Z ; CList<CVerticalScalePtrData,CVerticalScalePtrData &>::`scalar deleting destructor'
PUBLIC	??1CVerticalScalePtrDataList@@QAE@XZ		; CVerticalScalePtrDataList::~CVerticalScalePtrDataList
PUBLIC	?AddTail@?$CList@VCVerticalScale@@AAV1@@@QAEPAU__POSITION@@AAVCVerticalScale@@@Z ; CList<CVerticalScale,CVerticalScale &>::AddTail
PUBLIC	?RemoveAll@?$CList@VCVerticalScale@@AAV1@@@QAEXXZ ; CList<CVerticalScale,CVerticalScale &>::RemoveAll
PUBLIC	?NewNode@?$CList@VCVerticalScale@@AAV1@@@IAEPAUCNode@1@PAU21@0@Z ; CList<CVerticalScale,CVerticalScale &>::NewNode
PUBLIC	??1?$CList@VCVerticalScale@@AAV1@@@UAE@XZ	; CList<CVerticalScale,CVerticalScale &>::~CList<CVerticalScale,CVerticalScale &>
PUBLIC	?Serialize@?$CList@VCVerticalScale@@AAV1@@@UAEXAAVCArchive@@@Z ; CList<CVerticalScale,CVerticalScale &>::Serialize
PUBLIC	??_G?$CList@VCVerticalScale@@AAV1@@@UAEPAXI@Z	; CList<CVerticalScale,CVerticalScale &>::`scalar deleting destructor'
PUBLIC	??1CGraphSearchInfo_IndicatorName@@QAE@XZ	; CGraphSearchInfo_IndicatorName::~CGraphSearchInfo_IndicatorName
PUBLIC	??1CDlgHorzScaleSet@@UAE@XZ			; CDlgHorzScaleSet::~CDlgHorzScaleSet
PUBLIC	??1CDlgVertScaleSet@@UAE@XZ			; CDlgVertScaleSet::~CDlgVertScaleSet
PUBLIC	??$SerializeElements@VCHorizontalScalePtrData@@@@YGXAAVCArchive@@PAVCHorizontalScalePtrData@@H@Z ; SerializeElements<CHorizontalScalePtrData>
PUBLIC	??$SerializeElements@VCHorizontalScale@@@@YGXAAVCArchive@@PAVCHorizontalScale@@H@Z ; SerializeElements<CHorizontalScale>
PUBLIC	??$SerializeElements@VCVerticalScalePtrData@@@@YGXAAVCArchive@@PAVCVerticalScalePtrData@@H@Z ; SerializeElements<CVerticalScalePtrData>
PUBLIC	??$SerializeElements@VCVerticalScale@@@@YGXAAVCArchive@@PAVCVerticalScale@@H@Z ; SerializeElements<CVerticalScale>
PUBLIC	??_R0?AVCObject@@@8				; CObject `RTTI Type Descriptor'
PUBLIC	??_R3CObject@@8					; CObject::`RTTI Class Hierarchy Descriptor'
PUBLIC	??_R2CObject@@8					; CObject::`RTTI Base Class Array'
PUBLIC	??_R1A@?0A@EA@CObject@@8			; CObject::`RTTI Base Class Descriptor at (0,-1,0,64)'
PUBLIC	??_7CScaleTool@@6B@				; CScaleTool::`vftable'
PUBLIC	??_7CHorzScaleTool@@6B@				; CHorzScaleTool::`vftable'
PUBLIC	??_7CVertScaleTool@@6B@				; CVertScaleTool::`vftable'
PUBLIC	??_C@_0BA@ENJOCHIO@LoadResourceDLL@		; `string'
PUBLIC	??_7?$CList@VCHorizontalScalePtrData@@AAV1@@@6B@ ; CList<CHorizontalScalePtrData,CHorizontalScalePtrData &>::`vftable'
PUBLIC	??_7?$CList@VCHorizontalScale@@AAV1@@@6B@	; CList<CHorizontalScale,CHorizontalScale &>::`vftable'
PUBLIC	??_7?$CList@VCVerticalScalePtrData@@AAV1@@@6B@	; CList<CVerticalScalePtrData,CVerticalScalePtrData &>::`vftable'
PUBLIC	??_7?$CList@VCVerticalScale@@AAV1@@@6B@		; CList<CVerticalScale,CVerticalScale &>::`vftable'
PUBLIC	??_7CGraphSearchInfo_ActiveVertScaleAndGridLine@@6B@ ; CGraphSearchInfo_ActiveVertScaleAndGridLine::`vftable'
PUBLIC	??_7CGraphSearchInfo_IndicatorName@@6B@		; CGraphSearchInfo_IndicatorName::`vftable'
PUBLIC	??_C@_08ODANEJJL@HOGAUNIT@			; `string'
PUBLIC	??_R4CScaleTool@@6B@				; CScaleTool::`RTTI Complete Object Locator'
PUBLIC	??_R0?AVCScaleTool@@@8				; CScaleTool `RTTI Type Descriptor'
PUBLIC	??_R3CScaleTool@@8				; CScaleTool::`RTTI Class Hierarchy Descriptor'
PUBLIC	??_R2CScaleTool@@8				; CScaleTool::`RTTI Base Class Array'
PUBLIC	??_R1A@?0A@EA@CScaleTool@@8			; CScaleTool::`RTTI Base Class Descriptor at (0,-1,0,64)'
PUBLIC	??_R1A@?0A@EA@CBaseTool@@8			; CBaseTool::`RTTI Base Class Descriptor at (0,-1,0,64)'
PUBLIC	??_R0?AVCBaseTool@@@8				; CBaseTool `RTTI Type Descriptor'
PUBLIC	??_R3CBaseTool@@8				; CBaseTool::`RTTI Class Hierarchy Descriptor'
PUBLIC	??_R2CBaseTool@@8				; CBaseTool::`RTTI Base Class Array'
PUBLIC	??_R4CHorzScaleTool@@6B@			; CHorzScaleTool::`RTTI Complete Object Locator'
PUBLIC	??_R0?AVCHorzScaleTool@@@8			; CHorzScaleTool `RTTI Type Descriptor'
PUBLIC	??_R3CHorzScaleTool@@8				; CHorzScaleTool::`RTTI Class Hierarchy Descriptor'
PUBLIC	??_R2CHorzScaleTool@@8				; CHorzScaleTool::`RTTI Base Class Array'
PUBLIC	??_R1A@?0A@EA@CHorzScaleTool@@8			; CHorzScaleTool::`RTTI Base Class Descriptor at (0,-1,0,64)'
PUBLIC	??_R4CVertScaleTool@@6B@			; CVertScaleTool::`RTTI Complete Object Locator'
PUBLIC	??_R0?AVCVertScaleTool@@@8			; CVertScaleTool `RTTI Type Descriptor'
PUBLIC	??_R3CVertScaleTool@@8				; CVertScaleTool::`RTTI Class Hierarchy Descriptor'
PUBLIC	??_R2CVertScaleTool@@8				; CVertScaleTool::`RTTI Base Class Array'
PUBLIC	??_R1A@?0A@EA@CVertScaleTool@@8			; CVertScaleTool::`RTTI Base Class Descriptor at (0,-1,0,64)'
PUBLIC	??_R4?$CList@VCHorizontalScalePtrData@@AAV1@@@6B@ ; CList<CHorizontalScalePtrData,CHorizontalScalePtrData &>::`RTTI Complete Object Locator'
PUBLIC	??_R0?AV?$CList@VCHorizontalScalePtrData@@AAV1@@@@8 ; CList<CHorizontalScalePtrData,CHorizontalScalePtrData &> `RTTI Type Descriptor'
PUBLIC	??_R3?$CList@VCHorizontalScalePtrData@@AAV1@@@8	; CList<CHorizontalScalePtrData,CHorizontalScalePtrData &>::`RTTI Class Hierarchy Descriptor'
PUBLIC	??_R2?$CList@VCHorizontalScalePtrData@@AAV1@@@8	; CList<CHorizontalScalePtrData,CHorizontalScalePtrData &>::`RTTI Base Class Array'
PUBLIC	??_R1A@?0A@EA@?$CList@VCHorizontalScalePtrData@@AAV1@@@8 ; CList<CHorizontalScalePtrData,CHorizontalScalePtrData &>::`RTTI Base Class Descriptor at (0,-1,0,64)'
PUBLIC	??_R4?$CList@VCHorizontalScale@@AAV1@@@6B@	; CList<CHorizontalScale,CHorizontalScale &>::`RTTI Complete Object Locator'
PUBLIC	??_R0?AV?$CList@VCHorizontalScale@@AAV1@@@@8	; CList<CHorizontalScale,CHorizontalScale &> `RTTI Type Descriptor'
PUBLIC	??_R3?$CList@VCHorizontalScale@@AAV1@@@8	; CList<CHorizontalScale,CHorizontalScale &>::`RTTI Class Hierarchy Descriptor'
PUBLIC	??_R2?$CList@VCHorizontalScale@@AAV1@@@8	; CList<CHorizontalScale,CHorizontalScale &>::`RTTI Base Class Array'
PUBLIC	??_R1A@?0A@EA@?$CList@VCHorizontalScale@@AAV1@@@8 ; CList<CHorizontalScale,CHorizontalScale &>::`RTTI Base Class Descriptor at (0,-1,0,64)'
PUBLIC	??_R4?$CList@VCVerticalScalePtrData@@AAV1@@@6B@	; CList<CVerticalScalePtrData,CVerticalScalePtrData &>::`RTTI Complete Object Locator'
PUBLIC	??_R0?AV?$CList@VCVerticalScalePtrData@@AAV1@@@@8 ; CList<CVerticalScalePtrData,CVerticalScalePtrData &> `RTTI Type Descriptor'
PUBLIC	??_R3?$CList@VCVerticalScalePtrData@@AAV1@@@8	; CList<CVerticalScalePtrData,CVerticalScalePtrData &>::`RTTI Class Hierarchy Descriptor'
PUBLIC	??_R2?$CList@VCVerticalScalePtrData@@AAV1@@@8	; CList<CVerticalScalePtrData,CVerticalScalePtrData &>::`RTTI Base Class Array'
PUBLIC	??_R1A@?0A@EA@?$CList@VCVerticalScalePtrData@@AAV1@@@8 ; CList<CVerticalScalePtrData,CVerticalScalePtrData &>::`RTTI Base Class Descriptor at (0,-1,0,64)'
PUBLIC	??_R4?$CList@VCVerticalScale@@AAV1@@@6B@	; CList<CVerticalScale,CVerticalScale &>::`RTTI Complete Object Locator'
PUBLIC	??_R0?AV?$CList@VCVerticalScale@@AAV1@@@@8	; CList<CVerticalScale,CVerticalScale &> `RTTI Type Descriptor'
PUBLIC	??_R3?$CList@VCVerticalScale@@AAV1@@@8		; CList<CVerticalScale,CVerticalScale &>::`RTTI Class Hierarchy Descriptor'
PUBLIC	??_R2?$CList@VCVerticalScale@@AAV1@@@8		; CList<CVerticalScale,CVerticalScale &>::`RTTI Base Class Array'
PUBLIC	??_R1A@?0A@EA@?$CList@VCVerticalScale@@AAV1@@@8	; CList<CVerticalScale,CVerticalScale &>::`RTTI Base Class Descriptor at (0,-1,0,64)'
PUBLIC	??_R4CGraphSearchInfo_ActiveVertScaleAndGridLine@@6B@ ; CGraphSearchInfo_ActiveVertScaleAndGridLine::`RTTI Complete Object Locator'
PUBLIC	??_R0?AVCGraphSearchInfo_ActiveVertScaleAndGridLine@@@8 ; CGraphSearchInfo_ActiveVertScaleAndGridLine `RTTI Type Descriptor'
PUBLIC	??_R3CGraphSearchInfo_ActiveVertScaleAndGridLine@@8 ; CGraphSearchInfo_ActiveVertScaleAndGridLine::`RTTI Class Hierarchy Descriptor'
PUBLIC	??_R2CGraphSearchInfo_ActiveVertScaleAndGridLine@@8 ; CGraphSearchInfo_ActiveVertScaleAndGridLine::`RTTI Base Class Array'
PUBLIC	??_R1A@?0A@EA@CGraphSearchInfo_ActiveVertScaleAndGridLine@@8 ; CGraphSearchInfo_ActiveVertScaleAndGridLine::`RTTI Base Class Descriptor at (0,-1,0,64)'
PUBLIC	??_R1A@?0A@EA@CGraphSearchInfo@@8		; CGraphSearchInfo::`RTTI Base Class Descriptor at (0,-1,0,64)'
PUBLIC	??_R0?AVCGraphSearchInfo@@@8			; CGraphSearchInfo `RTTI Type Descriptor'
PUBLIC	??_R3CGraphSearchInfo@@8			; CGraphSearchInfo::`RTTI Class Hierarchy Descriptor'
PUBLIC	??_R2CGraphSearchInfo@@8			; CGraphSearchInfo::`RTTI Base Class Array'
PUBLIC	??_R4CGraphSearchInfo_IndicatorName@@6B@	; CGraphSearchInfo_IndicatorName::`RTTI Complete Object Locator'
PUBLIC	??_R0?AVCGraphSearchInfo_IndicatorName@@@8	; CGraphSearchInfo_IndicatorName `RTTI Type Descriptor'
PUBLIC	??_R3CGraphSearchInfo_IndicatorName@@8		; CGraphSearchInfo_IndicatorName::`RTTI Class Hierarchy Descriptor'
PUBLIC	??_R2CGraphSearchInfo_IndicatorName@@8		; CGraphSearchInfo_IndicatorName::`RTTI Base Class Array'
PUBLIC	??_R1A@?0A@EA@CGraphSearchInfo_IndicatorName@@8	; CGraphSearchInfo_IndicatorName::`RTTI Base Class Descriptor at (0,-1,0,64)'
EXTRN	??_L@YGXPAXIIP6EX0@Z1@Z:PROC			; `eh vector constructor iterator'
EXTRN	??_M@YGXPAXIIP6EX0@Z@Z:PROC			; `eh vector destructor iterator'
EXTRN	__purecall:PROC
EXTRN	??3@YAXPAX@Z:PROC				; operator delete
EXTRN	??3@YAXPAXI@Z:PROC				; operator delete
EXTRN	?__global_delete@@YAXPAXI@Z:PROC		; __global_delete
EXTRN	___std_terminate:PROC
EXTRN	__imp__GetProcAddress@8:PROC
EXTRN	__imp__PtInRect@12:PROC
EXTRN	?AfxThrowInvalidArgException@@YGXXZ:PROC	; AfxThrowInvalidArgException
EXTRN	?AfxThrowArchiveException@@YGXHPBD@Z:PROC	; AfxThrowArchiveException
EXTRN	?GetRuntimeClass@CObject@@UBEPAUCRuntimeClass@@XZ:PROC ; CObject::GetRuntimeClass
EXTRN	__imp_??0?$CStringT@DV?$StrTraitMFC_DLL@DV?$ChTraitsCRT@D@ATL@@@@@ATL@@QAE@XZ:PROC
EXTRN	__imp_??1?$CStringT@DV?$StrTraitMFC_DLL@DV?$ChTraitsCRT@D@ATL@@@@@ATL@@QAE@XZ:PROC
EXTRN	__imp_??4?$CStringT@DV?$StrTraitMFC_DLL@DV?$ChTraitsCRT@D@ATL@@@@@ATL@@QAEAAV01@PBD@Z:PROC
EXTRN	?Read@CArchive@@QAEIPAXI@Z:PROC			; CArchive::Read
EXTRN	?Write@CArchive@@QAEXPBXI@Z:PROC		; CArchive::Write
EXTRN	?ReadCount@CArchive@@QAEKXZ:PROC		; CArchive::ReadCount
EXTRN	?WriteCount@CArchive@@QAEXK@Z:PROC		; CArchive::WriteCount
EXTRN	?AfxGetModuleState@@YGPAVAFX_MODULE_STATE@@XZ:PROC ; AfxGetModuleState
EXTRN	?AfxGetStaticModuleState@@YGPAVAFX_MODULE_STATE@@XZ:PROC ; AfxGetStaticModuleState
EXTRN	?Create@CPlex@@SGPAU1@AAPAU1@II@Z:PROC		; CPlex::Create
EXTRN	?FreeDataChain@CPlex@@QAEXXZ:PROC		; CPlex::FreeDataChain
EXTRN	?DoModal@CDialog@@UAEHXZ:PROC			; CDialog::DoModal
EXTRN	??1CDialog@@UAE@XZ:PROC				; CDialog::~CDialog
EXTRN	??1CButton@@UAE@XZ:PROC				; CButton::~CButton
EXTRN	??0CBaseTool@@QAE@XZ:PROC			; CBaseTool::CBaseTool
EXTRN	?GetIChartCtrl@CBaseTool@@QBEPAUIChartCtrl@@XZ:PROC ; CBaseTool::GetIChartCtrl
EXTRN	?GetParent@CBaseTool@@QBEPAVCWnd@@XZ:PROC	; CBaseTool::GetParent
EXTRN	?InitializeAllData@CBaseTool@@UAEXXZ:PROC	; CBaseTool::InitializeAllData
EXTRN	?OnLButtonDown@CBaseTool@@UAE_NPAVCDC@@PAVCMainBlock@@IABVCPoint@@@Z:PROC ; CBaseTool::OnLButtonDown
EXTRN	?OnLButtonUp@CBaseTool@@UAE_NPAVCDC@@PAVCMainBlock@@ABVCPoint@@@Z:PROC ; CBaseTool::OnLButtonUp
EXTRN	?OnLButtonDblClk@CBaseTool@@UAE_NPAVCDC@@PAVCMainBlock@@ABVCPoint@@@Z:PROC ; CBaseTool::OnLButtonDblClk
EXTRN	?OnMouseMove@CBaseTool@@UAEXPAVCDC@@PAVCMainBlock@@IABVCPoint@@@Z:PROC ; CBaseTool::OnMouseMove
EXTRN	?GetMenuCheck@CBaseTool@@UAE_NPAVCMainBlock@@W4ELEMENTMENU@CMenuType@@I@Z:PROC ; CBaseTool::GetMenuCheck
EXTRN	?OnDraw@CBaseTool@@UAEXPAVCDC@@PAVCMainBlock@@@Z:PROC ; CBaseTool::OnDraw
EXTRN	?SetProcessEnded@CBaseTool@@IAEX_N@Z:PROC	; CBaseTool::SetProcessEnded
EXTRN	?GetMargin@CBaseTool@@IBEHXZ:PROC		; CBaseTool::GetMargin
EXTRN	__imp_?GetHelpMessageItem@CPacketList@@QAEHPBDAAV?$CStringT@DV?$StrTraitMFC_DLL@DV?$ChTraitsCRT@D@ATL@@@@@ATL@@@Z:PROC
EXTRN	__imp_??4CHorizontalScale@@QAEAAV0@ABV0@@Z:PROC
EXTRN	__imp_??0CHorizontalScale@@QAE@XZ:PROC
EXTRN	__imp_?GetHorzScalePosition@CHorizontalScale@@QBE?AW4HORZSCALEPOSITION@CScaleBaseData@@XZ:PROC
EXTRN	__imp_??1CHorizontalScale@@QAE@XZ:PROC
EXTRN	__imp_??0CVerticalScale@@QAE@XZ:PROC
EXTRN	__imp_??4CVerticalScale@@QAEAAV0@ABV0@@Z:PROC
EXTRN	__imp_??1CVerticalScale@@QAE@XZ:PROC
EXTRN	__imp_?PointInRegion@CHorzScaleRegion@@QBE_NABVCPoint@@@Z:PROC
EXTRN	__imp_?GetLeftScaleRegion@CVertScaleRegion@@QBE?AVCRect@@XZ:PROC
EXTRN	__imp_?PointInRegion@CVertScaleRegion@@QBE_NABVCPoint@@@Z:PROC
EXTRN	??4CHorizontalScalePtrData@@QAEAAV0@ABV0@@Z:PROC ; CHorizontalScalePtrData::operator=
EXTRN	??0CHorizontalScalePtrData@@QAE@XZ:PROC		; CHorizontalScalePtrData::CHorizontalScalePtrData
EXTRN	??0CHorizontalScalePtrDataList@@QAE@PAVCMainBlock@@@Z:PROC ; CHorizontalScalePtrDataList::CHorizontalScalePtrDataList
EXTRN	?RemoveAll@CHorizontalScalePtrDataList@@QAEXXZ:PROC ; CHorizontalScalePtrDataList::RemoveAll
EXTRN	?SetMarginCount@CHorizontalScalePtrDataList@@QAEXH@Z:PROC ; CHorizontalScalePtrDataList::SetMarginCount
EXTRN	?SetScaleColor@CHorizontalScalePtrDataList@@QAEXPAK0@Z:PROC ; CHorizontalScalePtrDataList::SetScaleColor
EXTRN	?GetCount@CHorizontalScalePtrDataList@@QBEHXZ:PROC ; CHorizontalScalePtrDataList::GetCount
EXTRN	??_E?$CList@VCHorizontalScalePtrData@@AAV1@@@UAEPAXI@Z:PROC ; CList<CHorizontalScalePtrData,CHorizontalScalePtrData &>::`vector deleting destructor'
EXTRN	??_E?$CList@VCHorizontalScale@@AAV1@@@UAEPAXI@Z:PROC ; CList<CHorizontalScale,CHorizontalScale &>::`vector deleting destructor'
EXTRN	??4CVerticalScalePtrData@@QAEAAV0@ABV0@@Z:PROC	; CVerticalScalePtrData::operator=
EXTRN	??0CVerticalScalePtrData@@QAE@XZ:PROC		; CVerticalScalePtrData::CVerticalScalePtrData
EXTRN	??0CVerticalScalePtrDataList@@QAE@XZ:PROC	; CVerticalScalePtrDataList::CVerticalScalePtrDataList
EXTRN	?RemoveAll@CVerticalScalePtrDataList@@QAEXXZ:PROC ; CVerticalScalePtrDataList::RemoveAll
EXTRN	?SetFirstIndex@CVerticalScalePtrDataList@@QAEXH@Z:PROC ; CVerticalScalePtrDataList::SetFirstIndex
EXTRN	?SetScaleColor@CVerticalScalePtrDataList@@QAEXPAK0@Z:PROC ; CVerticalScalePtrDataList::SetScaleColor
EXTRN	?SetLogType@CVerticalScalePtrDataList@@QAEXPA_N@Z:PROC ; CVerticalScalePtrDataList::SetLogType
EXTRN	?GetCount@CVerticalScalePtrDataList@@QBEHXZ:PROC ; CVerticalScalePtrDataList::GetCount
EXTRN	??_E?$CList@VCVerticalScalePtrData@@AAV1@@@UAEPAXI@Z:PROC ; CList<CVerticalScalePtrData,CVerticalScalePtrData &>::`vector deleting destructor'
EXTRN	??_E?$CList@VCVerticalScale@@AAV1@@@UAEPAXI@Z:PROC ; CList<CVerticalScale,CVerticalScale &>::`vector deleting destructor'
EXTRN	?GetHorzScalePtrDataList@CBlocksColumn@@QBEXPBVCBlockImp@@AAVCHorizontalScalePtrDataList@@@Z:PROC ; CBlocksColumn::GetHorzScalePtrDataList
EXTRN	__imp_?GetHorzScaleColor@CScaleColor@@QAEAAKXZ:PROC
EXTRN	__imp_?GetVertScaleColor@CScaleColor@@QAEAAKXZ:PROC
EXTRN	__imp_?GetScaleTextColor@CScaleColor@@QAEAAKXZ:PROC
EXTRN	?GetHorzScaleRegion@CDrawingRegion@@QBE?AVCHorzScaleRegion@@XZ:PROC ; CDrawingRegion::GetHorzScaleRegion
EXTRN	?GetVertScaleRegion@CDrawingRegion@@QBE?AVCVertScaleRegion@@XZ:PROC ; CDrawingRegion::GetVertScaleRegion
EXTRN	?GetVertScaleLogType@CBlockData@@QAEAA_NXZ:PROC	; CBlockData::GetVertScaleLogType
EXTRN	?GetHorzScale@CBlockData@@QAEAAVCHorizontalScale@@XZ:PROC ; CBlockData::GetHorzScale
EXTRN	?GetDrawingRegion@CVertScaleGroupList@@QBE?AVCDrawingRegion@@XZ:PROC ; CVertScaleGroupList::GetDrawingRegion
EXTRN	?FindGraph@CVertScaleGroupList@@QBEHPAVCGraphSearchInfo@@@Z:PROC ; CVertScaleGroupList::FindGraph
EXTRN	?GetVertScalePtrDataList@CVertScaleGroupList@@QBEXAAVCVerticalScalePtrDataList@@@Z:PROC ; CVertScaleGroupList::GetVertScalePtrDataList
EXTRN	?GetMainBlock@CBlockImp@@QBEPAVCMainBlockImp@@XZ:PROC ; CBlockImp::GetMainBlock
EXTRN	?GetBlocksColumn@CBlockImp@@QAEPAVCBlocksColumn@@XZ:PROC ; CBlockImp::GetBlocksColumn
EXTRN	?GetBlockData@CBlockImp@@QAEAAVCBlockData@@XZ:PROC ; CBlockImp::GetBlockData
EXTRN	?GetVertScaleGroupList@CBlockImp@@QAEAAVCVertScaleGroupList@@XZ:PROC ; CBlockImp::GetVertScaleGroupList
EXTRN	??0CGraphSearchInfo@@QAE@XZ:PROC		; CGraphSearchInfo::CGraphSearchInfo
EXTRN	?FindGraph@CGraphSearchInfo@@UAEHPBVCBlocksColumn@@@Z:PROC ; CGraphSearchInfo::FindGraph
EXTRN	?FindGraph@CGraphSearchInfo@@UAEHPAXPBVCBlockImp@@@Z:PROC ; CGraphSearchInfo::FindGraph
EXTRN	?FindGraph@CGraphSearchInfo@@UAEHPBVCBlockImp@@@Z:PROC ; CGraphSearchInfo::FindGraph
EXTRN	?FindGraph@CGraphSearchInfo@@UAEHPAXPBVCVertScaleGroup@@@Z:PROC ; CGraphSearchInfo::FindGraph
EXTRN	?FindGraph@CGraphSearchInfo@@UAEHPBVCVertScaleGroup@@@Z:PROC ; CGraphSearchInfo::FindGraph
EXTRN	?FindGraph@CGraphSearchInfo@@UAEHPBVCGraphImp@@@Z:PROC ; CGraphSearchInfo::FindGraph
EXTRN	?FindGraph@CGraphSearchInfo@@UAEHPBVCSubGraph@@@Z:PROC ; CGraphSearchInfo::FindGraph
EXTRN	?FindGraph@CGraphSearchInfo_ActiveVertScaleAndGridLine@@UAEHPBVCVertScaleGroup@@@Z:PROC ; CGraphSearchInfo_ActiveVertScaleAndGridLine::FindGraph
EXTRN	?FindGraph@CGraphSearchInfo_IndicatorName@@UAEHPBVCGraphImp@@@Z:PROC ; CGraphSearchInfo_IndicatorName::FindGraph
EXTRN	??0CDlgHorzScaleSet@@QAE@PAVCWnd@@PAVCMainBlock@@PAVCHorizontalScalePtrDataList@@PAVCXScaleManager@@@Z:PROC ; CDlgHorzScaleSet::CDlgHorzScaleSet
EXTRN	??0CDlgVertScaleSet@@QAE@PAVCWnd@@PAVCVerticalScalePtrDataList@@H@Z:PROC ; CDlgVertScaleSet::CDlgVertScaleSet
EXTRN	@__security_check_cookie@4:PROC
EXTRN	___CxxFrameHandler3:PROC
EXTRN	??_7type_info@@6B@:QWORD			; type_info::`vftable'
EXTRN	?g_iMetaTable@@3VIMetaTable@@A:BYTE		; g_iMetaTable
EXTRN	___security_cookie:DWORD
;	COMDAT ??_R1A@?0A@EA@CGraphSearchInfo_IndicatorName@@8
rdata$r	SEGMENT
??_R1A@?0A@EA@CGraphSearchInfo_IndicatorName@@8 DD FLAT:??_R0?AVCGraphSearchInfo_IndicatorName@@@8 ; CGraphSearchInfo_IndicatorName::`RTTI Base Class Descriptor at (0,-1,0,64)'
	DD	01H
	DD	00H
	DD	0ffffffffH
	DD	00H
	DD	040H
	DD	FLAT:??_R3CGraphSearchInfo_IndicatorName@@8
rdata$r	ENDS
;	COMDAT ??_R2CGraphSearchInfo_IndicatorName@@8
rdata$r	SEGMENT
??_R2CGraphSearchInfo_IndicatorName@@8 DD FLAT:??_R1A@?0A@EA@CGraphSearchInfo_IndicatorName@@8 ; CGraphSearchInfo_IndicatorName::`RTTI Base Class Array'
	DD	FLAT:??_R1A@?0A@EA@CGraphSearchInfo@@8
rdata$r	ENDS
;	COMDAT ??_R3CGraphSearchInfo_IndicatorName@@8
rdata$r	SEGMENT
??_R3CGraphSearchInfo_IndicatorName@@8 DD 00H		; CGraphSearchInfo_IndicatorName::`RTTI Class Hierarchy Descriptor'
	DD	00H
	DD	02H
	DD	FLAT:??_R2CGraphSearchInfo_IndicatorName@@8
rdata$r	ENDS
;	COMDAT ??_R0?AVCGraphSearchInfo_IndicatorName@@@8
data$rs	SEGMENT
??_R0?AVCGraphSearchInfo_IndicatorName@@@8 DD FLAT:??_7type_info@@6B@ ; CGraphSearchInfo_IndicatorName `RTTI Type Descriptor'
	DD	00H
	DB	'.?AVCGraphSearchInfo_IndicatorName@@', 00H
data$rs	ENDS
;	COMDAT ??_R4CGraphSearchInfo_IndicatorName@@6B@
rdata$r	SEGMENT
??_R4CGraphSearchInfo_IndicatorName@@6B@ DD 00H		; CGraphSearchInfo_IndicatorName::`RTTI Complete Object Locator'
	DD	00H
	DD	00H
	DD	FLAT:??_R0?AVCGraphSearchInfo_IndicatorName@@@8
	DD	FLAT:??_R3CGraphSearchInfo_IndicatorName@@8
rdata$r	ENDS
;	COMDAT ??_R2CGraphSearchInfo@@8
rdata$r	SEGMENT
??_R2CGraphSearchInfo@@8 DD FLAT:??_R1A@?0A@EA@CGraphSearchInfo@@8 ; CGraphSearchInfo::`RTTI Base Class Array'
rdata$r	ENDS
;	COMDAT ??_R3CGraphSearchInfo@@8
rdata$r	SEGMENT
??_R3CGraphSearchInfo@@8 DD 00H				; CGraphSearchInfo::`RTTI Class Hierarchy Descriptor'
	DD	00H
	DD	01H
	DD	FLAT:??_R2CGraphSearchInfo@@8
rdata$r	ENDS
;	COMDAT ??_R0?AVCGraphSearchInfo@@@8
data$rs	SEGMENT
??_R0?AVCGraphSearchInfo@@@8 DD FLAT:??_7type_info@@6B@	; CGraphSearchInfo `RTTI Type Descriptor'
	DD	00H
	DB	'.?AVCGraphSearchInfo@@', 00H
data$rs	ENDS
;	COMDAT ??_R1A@?0A@EA@CGraphSearchInfo@@8
rdata$r	SEGMENT
??_R1A@?0A@EA@CGraphSearchInfo@@8 DD FLAT:??_R0?AVCGraphSearchInfo@@@8 ; CGraphSearchInfo::`RTTI Base Class Descriptor at (0,-1,0,64)'
	DD	00H
	DD	00H
	DD	0ffffffffH
	DD	00H
	DD	040H
	DD	FLAT:??_R3CGraphSearchInfo@@8
rdata$r	ENDS
;	COMDAT ??_R1A@?0A@EA@CGraphSearchInfo_ActiveVertScaleAndGridLine@@8
rdata$r	SEGMENT
??_R1A@?0A@EA@CGraphSearchInfo_ActiveVertScaleAndGridLine@@8 DD FLAT:??_R0?AVCGraphSearchInfo_ActiveVertScaleAndGridLine@@@8 ; CGraphSearchInfo_ActiveVertScaleAndGridLine::`RTTI Base Class Descriptor at (0,-1,0,64)'
	DD	01H
	DD	00H
	DD	0ffffffffH
	DD	00H
	DD	040H
	DD	FLAT:??_R3CGraphSearchInfo_ActiveVertScaleAndGridLine@@8
rdata$r	ENDS
;	COMDAT ??_R2CGraphSearchInfo_ActiveVertScaleAndGridLine@@8
rdata$r	SEGMENT
??_R2CGraphSearchInfo_ActiveVertScaleAndGridLine@@8 DD FLAT:??_R1A@?0A@EA@CGraphSearchInfo_ActiveVertScaleAndGridLine@@8 ; CGraphSearchInfo_ActiveVertScaleAndGridLine::`RTTI Base Class Array'
	DD	FLAT:??_R1A@?0A@EA@CGraphSearchInfo@@8
rdata$r	ENDS
;	COMDAT ??_R3CGraphSearchInfo_ActiveVertScaleAndGridLine@@8
rdata$r	SEGMENT
??_R3CGraphSearchInfo_ActiveVertScaleAndGridLine@@8 DD 00H ; CGraphSearchInfo_ActiveVertScaleAndGridLine::`RTTI Class Hierarchy Descriptor'
	DD	00H
	DD	02H
	DD	FLAT:??_R2CGraphSearchInfo_ActiveVertScaleAndGridLine@@8
rdata$r	ENDS
;	COMDAT ??_R0?AVCGraphSearchInfo_ActiveVertScaleAndGridLine@@@8
data$rs	SEGMENT
??_R0?AVCGraphSearchInfo_ActiveVertScaleAndGridLine@@@8 DD FLAT:??_7type_info@@6B@ ; CGraphSearchInfo_ActiveVertScaleAndGridLine `RTTI Type Descriptor'
	DD	00H
	DB	'.?AVCGraphSearchInfo_ActiveVertScaleAndGridLine@@', 00H
data$rs	ENDS
;	COMDAT ??_R4CGraphSearchInfo_ActiveVertScaleAndGridLine@@6B@
rdata$r	SEGMENT
??_R4CGraphSearchInfo_ActiveVertScaleAndGridLine@@6B@ DD 00H ; CGraphSearchInfo_ActiveVertScaleAndGridLine::`RTTI Complete Object Locator'
	DD	00H
	DD	00H
	DD	FLAT:??_R0?AVCGraphSearchInfo_ActiveVertScaleAndGridLine@@@8
	DD	FLAT:??_R3CGraphSearchInfo_ActiveVertScaleAndGridLine@@8
rdata$r	ENDS
;	COMDAT ??_R1A@?0A@EA@?$CList@VCVerticalScale@@AAV1@@@8
rdata$r	SEGMENT
??_R1A@?0A@EA@?$CList@VCVerticalScale@@AAV1@@@8 DD FLAT:??_R0?AV?$CList@VCVerticalScale@@AAV1@@@@8 ; CList<CVerticalScale,CVerticalScale &>::`RTTI Base Class Descriptor at (0,-1,0,64)'
	DD	01H
	DD	00H
	DD	0ffffffffH
	DD	00H
	DD	040H
	DD	FLAT:??_R3?$CList@VCVerticalScale@@AAV1@@@8
rdata$r	ENDS
;	COMDAT ??_R2?$CList@VCVerticalScale@@AAV1@@@8
rdata$r	SEGMENT
??_R2?$CList@VCVerticalScale@@AAV1@@@8 DD FLAT:??_R1A@?0A@EA@?$CList@VCVerticalScale@@AAV1@@@8 ; CList<CVerticalScale,CVerticalScale &>::`RTTI Base Class Array'
	DD	FLAT:??_R1A@?0A@EA@CObject@@8
rdata$r	ENDS
;	COMDAT ??_R3?$CList@VCVerticalScale@@AAV1@@@8
rdata$r	SEGMENT
??_R3?$CList@VCVerticalScale@@AAV1@@@8 DD 00H		; CList<CVerticalScale,CVerticalScale &>::`RTTI Class Hierarchy Descriptor'
	DD	00H
	DD	02H
	DD	FLAT:??_R2?$CList@VCVerticalScale@@AAV1@@@8
rdata$r	ENDS
;	COMDAT ??_R0?AV?$CList@VCVerticalScale@@AAV1@@@@8
data$rs	SEGMENT
??_R0?AV?$CList@VCVerticalScale@@AAV1@@@@8 DD FLAT:??_7type_info@@6B@ ; CList<CVerticalScale,CVerticalScale &> `RTTI Type Descriptor'
	DD	00H
	DB	'.?AV?$CList@VCVerticalScale@@AAV1@@@', 00H
data$rs	ENDS
;	COMDAT ??_R4?$CList@VCVerticalScale@@AAV1@@@6B@
rdata$r	SEGMENT
??_R4?$CList@VCVerticalScale@@AAV1@@@6B@ DD 00H		; CList<CVerticalScale,CVerticalScale &>::`RTTI Complete Object Locator'
	DD	00H
	DD	00H
	DD	FLAT:??_R0?AV?$CList@VCVerticalScale@@AAV1@@@@8
	DD	FLAT:??_R3?$CList@VCVerticalScale@@AAV1@@@8
rdata$r	ENDS
;	COMDAT ??_R1A@?0A@EA@?$CList@VCVerticalScalePtrData@@AAV1@@@8
rdata$r	SEGMENT
??_R1A@?0A@EA@?$CList@VCVerticalScalePtrData@@AAV1@@@8 DD FLAT:??_R0?AV?$CList@VCVerticalScalePtrData@@AAV1@@@@8 ; CList<CVerticalScalePtrData,CVerticalScalePtrData &>::`RTTI Base Class Descriptor at (0,-1,0,64)'
	DD	01H
	DD	00H
	DD	0ffffffffH
	DD	00H
	DD	040H
	DD	FLAT:??_R3?$CList@VCVerticalScalePtrData@@AAV1@@@8
rdata$r	ENDS
;	COMDAT ??_R2?$CList@VCVerticalScalePtrData@@AAV1@@@8
rdata$r	SEGMENT
??_R2?$CList@VCVerticalScalePtrData@@AAV1@@@8 DD FLAT:??_R1A@?0A@EA@?$CList@VCVerticalScalePtrData@@AAV1@@@8 ; CList<CVerticalScalePtrData,CVerticalScalePtrData &>::`RTTI Base Class Array'
	DD	FLAT:??_R1A@?0A@EA@CObject@@8
rdata$r	ENDS
;	COMDAT ??_R3?$CList@VCVerticalScalePtrData@@AAV1@@@8
rdata$r	SEGMENT
??_R3?$CList@VCVerticalScalePtrData@@AAV1@@@8 DD 00H	; CList<CVerticalScalePtrData,CVerticalScalePtrData &>::`RTTI Class Hierarchy Descriptor'
	DD	00H
	DD	02H
	DD	FLAT:??_R2?$CList@VCVerticalScalePtrData@@AAV1@@@8
rdata$r	ENDS
;	COMDAT ??_R0?AV?$CList@VCVerticalScalePtrData@@AAV1@@@@8
data$rs	SEGMENT
??_R0?AV?$CList@VCVerticalScalePtrData@@AAV1@@@@8 DD FLAT:??_7type_info@@6B@ ; CList<CVerticalScalePtrData,CVerticalScalePtrData &> `RTTI Type Descriptor'
	DD	00H
	DB	'.?AV?$CList@VCVerticalScalePtrData@@AAV1@@@', 00H
data$rs	ENDS
;	COMDAT ??_R4?$CList@VCVerticalScalePtrData@@AAV1@@@6B@
rdata$r	SEGMENT
??_R4?$CList@VCVerticalScalePtrData@@AAV1@@@6B@ DD 00H	; CList<CVerticalScalePtrData,CVerticalScalePtrData &>::`RTTI Complete Object Locator'
	DD	00H
	DD	00H
	DD	FLAT:??_R0?AV?$CList@VCVerticalScalePtrData@@AAV1@@@@8
	DD	FLAT:??_R3?$CList@VCVerticalScalePtrData@@AAV1@@@8
rdata$r	ENDS
;	COMDAT ??_R1A@?0A@EA@?$CList@VCHorizontalScale@@AAV1@@@8
rdata$r	SEGMENT
??_R1A@?0A@EA@?$CList@VCHorizontalScale@@AAV1@@@8 DD FLAT:??_R0?AV?$CList@VCHorizontalScale@@AAV1@@@@8 ; CList<CHorizontalScale,CHorizontalScale &>::`RTTI Base Class Descriptor at (0,-1,0,64)'
	DD	01H
	DD	00H
	DD	0ffffffffH
	DD	00H
	DD	040H
	DD	FLAT:??_R3?$CList@VCHorizontalScale@@AAV1@@@8
rdata$r	ENDS
;	COMDAT ??_R2?$CList@VCHorizontalScale@@AAV1@@@8
rdata$r	SEGMENT
??_R2?$CList@VCHorizontalScale@@AAV1@@@8 DD FLAT:??_R1A@?0A@EA@?$CList@VCHorizontalScale@@AAV1@@@8 ; CList<CHorizontalScale,CHorizontalScale &>::`RTTI Base Class Array'
	DD	FLAT:??_R1A@?0A@EA@CObject@@8
rdata$r	ENDS
;	COMDAT ??_R3?$CList@VCHorizontalScale@@AAV1@@@8
rdata$r	SEGMENT
??_R3?$CList@VCHorizontalScale@@AAV1@@@8 DD 00H		; CList<CHorizontalScale,CHorizontalScale &>::`RTTI Class Hierarchy Descriptor'
	DD	00H
	DD	02H
	DD	FLAT:??_R2?$CList@VCHorizontalScale@@AAV1@@@8
rdata$r	ENDS
;	COMDAT ??_R0?AV?$CList@VCHorizontalScale@@AAV1@@@@8
data$rs	SEGMENT
??_R0?AV?$CList@VCHorizontalScale@@AAV1@@@@8 DD FLAT:??_7type_info@@6B@ ; CList<CHorizontalScale,CHorizontalScale &> `RTTI Type Descriptor'
	DD	00H
	DB	'.?AV?$CList@VCHorizontalScale@@AAV1@@@', 00H
data$rs	ENDS
;	COMDAT ??_R4?$CList@VCHorizontalScale@@AAV1@@@6B@
rdata$r	SEGMENT
??_R4?$CList@VCHorizontalScale@@AAV1@@@6B@ DD 00H	; CList<CHorizontalScale,CHorizontalScale &>::`RTTI Complete Object Locator'
	DD	00H
	DD	00H
	DD	FLAT:??_R0?AV?$CList@VCHorizontalScale@@AAV1@@@@8
	DD	FLAT:??_R3?$CList@VCHorizontalScale@@AAV1@@@8
rdata$r	ENDS
;	COMDAT ??_R1A@?0A@EA@?$CList@VCHorizontalScalePtrData@@AAV1@@@8
rdata$r	SEGMENT
??_R1A@?0A@EA@?$CList@VCHorizontalScalePtrData@@AAV1@@@8 DD FLAT:??_R0?AV?$CList@VCHorizontalScalePtrData@@AAV1@@@@8 ; CList<CHorizontalScalePtrData,CHorizontalScalePtrData &>::`RTTI Base Class Descriptor at (0,-1,0,64)'
	DD	01H
	DD	00H
	DD	0ffffffffH
	DD	00H
	DD	040H
	DD	FLAT:??_R3?$CList@VCHorizontalScalePtrData@@AAV1@@@8
rdata$r	ENDS
;	COMDAT ??_R2?$CList@VCHorizontalScalePtrData@@AAV1@@@8
rdata$r	SEGMENT
??_R2?$CList@VCHorizontalScalePtrData@@AAV1@@@8 DD FLAT:??_R1A@?0A@EA@?$CList@VCHorizontalScalePtrData@@AAV1@@@8 ; CList<CHorizontalScalePtrData,CHorizontalScalePtrData &>::`RTTI Base Class Array'
	DD	FLAT:??_R1A@?0A@EA@CObject@@8
rdata$r	ENDS
;	COMDAT ??_R3?$CList@VCHorizontalScalePtrData@@AAV1@@@8
rdata$r	SEGMENT
??_R3?$CList@VCHorizontalScalePtrData@@AAV1@@@8 DD 00H	; CList<CHorizontalScalePtrData,CHorizontalScalePtrData &>::`RTTI Class Hierarchy Descriptor'
	DD	00H
	DD	02H
	DD	FLAT:??_R2?$CList@VCHorizontalScalePtrData@@AAV1@@@8
rdata$r	ENDS
;	COMDAT ??_R0?AV?$CList@VCHorizontalScalePtrData@@AAV1@@@@8
data$rs	SEGMENT
??_R0?AV?$CList@VCHorizontalScalePtrData@@AAV1@@@@8 DD FLAT:??_7type_info@@6B@ ; CList<CHorizontalScalePtrData,CHorizontalScalePtrData &> `RTTI Type Descriptor'
	DD	00H
	DB	'.?AV?$CList@VCHorizontalScalePtrData@@AAV1@@@', 00H
data$rs	ENDS
;	COMDAT ??_R4?$CList@VCHorizontalScalePtrData@@AAV1@@@6B@
rdata$r	SEGMENT
??_R4?$CList@VCHorizontalScalePtrData@@AAV1@@@6B@ DD 00H ; CList<CHorizontalScalePtrData,CHorizontalScalePtrData &>::`RTTI Complete Object Locator'
	DD	00H
	DD	00H
	DD	FLAT:??_R0?AV?$CList@VCHorizontalScalePtrData@@AAV1@@@@8
	DD	FLAT:??_R3?$CList@VCHorizontalScalePtrData@@AAV1@@@8
rdata$r	ENDS
;	COMDAT ??_R1A@?0A@EA@CVertScaleTool@@8
rdata$r	SEGMENT
??_R1A@?0A@EA@CVertScaleTool@@8 DD FLAT:??_R0?AVCVertScaleTool@@@8 ; CVertScaleTool::`RTTI Base Class Descriptor at (0,-1,0,64)'
	DD	02H
	DD	00H
	DD	0ffffffffH
	DD	00H
	DD	040H
	DD	FLAT:??_R3CVertScaleTool@@8
rdata$r	ENDS
;	COMDAT ??_R2CVertScaleTool@@8
rdata$r	SEGMENT
??_R2CVertScaleTool@@8 DD FLAT:??_R1A@?0A@EA@CVertScaleTool@@8 ; CVertScaleTool::`RTTI Base Class Array'
	DD	FLAT:??_R1A@?0A@EA@CScaleTool@@8
	DD	FLAT:??_R1A@?0A@EA@CBaseTool@@8
rdata$r	ENDS
;	COMDAT ??_R3CVertScaleTool@@8
rdata$r	SEGMENT
??_R3CVertScaleTool@@8 DD 00H				; CVertScaleTool::`RTTI Class Hierarchy Descriptor'
	DD	00H
	DD	03H
	DD	FLAT:??_R2CVertScaleTool@@8
rdata$r	ENDS
;	COMDAT ??_R0?AVCVertScaleTool@@@8
data$rs	SEGMENT
??_R0?AVCVertScaleTool@@@8 DD FLAT:??_7type_info@@6B@	; CVertScaleTool `RTTI Type Descriptor'
	DD	00H
	DB	'.?AVCVertScaleTool@@', 00H
data$rs	ENDS
;	COMDAT ??_R4CVertScaleTool@@6B@
rdata$r	SEGMENT
??_R4CVertScaleTool@@6B@ DD 00H				; CVertScaleTool::`RTTI Complete Object Locator'
	DD	00H
	DD	00H
	DD	FLAT:??_R0?AVCVertScaleTool@@@8
	DD	FLAT:??_R3CVertScaleTool@@8
rdata$r	ENDS
;	COMDAT ??_R1A@?0A@EA@CHorzScaleTool@@8
rdata$r	SEGMENT
??_R1A@?0A@EA@CHorzScaleTool@@8 DD FLAT:??_R0?AVCHorzScaleTool@@@8 ; CHorzScaleTool::`RTTI Base Class Descriptor at (0,-1,0,64)'
	DD	02H
	DD	00H
	DD	0ffffffffH
	DD	00H
	DD	040H
	DD	FLAT:??_R3CHorzScaleTool@@8
rdata$r	ENDS
;	COMDAT ??_R2CHorzScaleTool@@8
rdata$r	SEGMENT
??_R2CHorzScaleTool@@8 DD FLAT:??_R1A@?0A@EA@CHorzScaleTool@@8 ; CHorzScaleTool::`RTTI Base Class Array'
	DD	FLAT:??_R1A@?0A@EA@CScaleTool@@8
	DD	FLAT:??_R1A@?0A@EA@CBaseTool@@8
rdata$r	ENDS
;	COMDAT ??_R3CHorzScaleTool@@8
rdata$r	SEGMENT
??_R3CHorzScaleTool@@8 DD 00H				; CHorzScaleTool::`RTTI Class Hierarchy Descriptor'
	DD	00H
	DD	03H
	DD	FLAT:??_R2CHorzScaleTool@@8
rdata$r	ENDS
;	COMDAT ??_R0?AVCHorzScaleTool@@@8
data$rs	SEGMENT
??_R0?AVCHorzScaleTool@@@8 DD FLAT:??_7type_info@@6B@	; CHorzScaleTool `RTTI Type Descriptor'
	DD	00H
	DB	'.?AVCHorzScaleTool@@', 00H
data$rs	ENDS
;	COMDAT ??_R4CHorzScaleTool@@6B@
rdata$r	SEGMENT
??_R4CHorzScaleTool@@6B@ DD 00H				; CHorzScaleTool::`RTTI Complete Object Locator'
	DD	00H
	DD	00H
	DD	FLAT:??_R0?AVCHorzScaleTool@@@8
	DD	FLAT:??_R3CHorzScaleTool@@8
rdata$r	ENDS
;	COMDAT ??_R2CBaseTool@@8
rdata$r	SEGMENT
??_R2CBaseTool@@8 DD FLAT:??_R1A@?0A@EA@CBaseTool@@8	; CBaseTool::`RTTI Base Class Array'
rdata$r	ENDS
;	COMDAT ??_R3CBaseTool@@8
rdata$r	SEGMENT
??_R3CBaseTool@@8 DD 00H				; CBaseTool::`RTTI Class Hierarchy Descriptor'
	DD	00H
	DD	01H
	DD	FLAT:??_R2CBaseTool@@8
rdata$r	ENDS
;	COMDAT ??_R0?AVCBaseTool@@@8
data$rs	SEGMENT
??_R0?AVCBaseTool@@@8 DD FLAT:??_7type_info@@6B@	; CBaseTool `RTTI Type Descriptor'
	DD	00H
	DB	'.?AVCBaseTool@@', 00H
data$rs	ENDS
;	COMDAT ??_R1A@?0A@EA@CBaseTool@@8
rdata$r	SEGMENT
??_R1A@?0A@EA@CBaseTool@@8 DD FLAT:??_R0?AVCBaseTool@@@8 ; CBaseTool::`RTTI Base Class Descriptor at (0,-1,0,64)'
	DD	00H
	DD	00H
	DD	0ffffffffH
	DD	00H
	DD	040H
	DD	FLAT:??_R3CBaseTool@@8
rdata$r	ENDS
;	COMDAT ??_R1A@?0A@EA@CScaleTool@@8
rdata$r	SEGMENT
??_R1A@?0A@EA@CScaleTool@@8 DD FLAT:??_R0?AVCScaleTool@@@8 ; CScaleTool::`RTTI Base Class Descriptor at (0,-1,0,64)'
	DD	01H
	DD	00H
	DD	0ffffffffH
	DD	00H
	DD	040H
	DD	FLAT:??_R3CScaleTool@@8
rdata$r	ENDS
;	COMDAT ??_R2CScaleTool@@8
rdata$r	SEGMENT
??_R2CScaleTool@@8 DD FLAT:??_R1A@?0A@EA@CScaleTool@@8	; CScaleTool::`RTTI Base Class Array'
	DD	FLAT:??_R1A@?0A@EA@CBaseTool@@8
rdata$r	ENDS
;	COMDAT ??_R3CScaleTool@@8
rdata$r	SEGMENT
??_R3CScaleTool@@8 DD 00H				; CScaleTool::`RTTI Class Hierarchy Descriptor'
	DD	00H
	DD	02H
	DD	FLAT:??_R2CScaleTool@@8
rdata$r	ENDS
;	COMDAT ??_R0?AVCScaleTool@@@8
data$rs	SEGMENT
??_R0?AVCScaleTool@@@8 DD FLAT:??_7type_info@@6B@	; CScaleTool `RTTI Type Descriptor'
	DD	00H
	DB	'.?AVCScaleTool@@', 00H
data$rs	ENDS
;	COMDAT ??_R4CScaleTool@@6B@
rdata$r	SEGMENT
??_R4CScaleTool@@6B@ DD 00H				; CScaleTool::`RTTI Complete Object Locator'
	DD	00H
	DD	00H
	DD	FLAT:??_R0?AVCScaleTool@@@8
	DD	FLAT:??_R3CScaleTool@@8
rdata$r	ENDS
;	COMDAT ??_C@_08ODANEJJL@HOGAUNIT@
CONST	SEGMENT
??_C@_08ODANEJJL@HOGAUNIT@ DB 'HOGAUNIT', 00H		; `string'
CONST	ENDS
;	COMDAT ??_7CGraphSearchInfo_IndicatorName@@6B@
CONST	SEGMENT
??_7CGraphSearchInfo_IndicatorName@@6B@ DD FLAT:??_R4CGraphSearchInfo_IndicatorName@@6B@ ; CGraphSearchInfo_IndicatorName::`vftable'
	DD	FLAT:?FindGraph@CGraphSearchInfo@@UAEHPBVCSubGraph@@@Z
	DD	FLAT:?FindGraph@CGraphSearchInfo_IndicatorName@@UAEHPBVCGraphImp@@@Z
	DD	FLAT:?FindGraph@CGraphSearchInfo@@UAEHPBVCVertScaleGroup@@@Z
	DD	FLAT:?FindGraph@CGraphSearchInfo@@UAEHPAXPBVCVertScaleGroup@@@Z
	DD	FLAT:?FindGraph@CGraphSearchInfo@@UAEHPBVCBlockImp@@@Z
	DD	FLAT:?FindGraph@CGraphSearchInfo@@UAEHPAXPBVCBlockImp@@@Z
	DD	FLAT:?FindGraph@CGraphSearchInfo@@UAEHPBVCBlocksColumn@@@Z
CONST	ENDS
;	COMDAT ??_7CGraphSearchInfo_ActiveVertScaleAndGridLine@@6B@
CONST	SEGMENT
??_7CGraphSearchInfo_ActiveVertScaleAndGridLine@@6B@ DD FLAT:??_R4CGraphSearchInfo_ActiveVertScaleAndGridLine@@6B@ ; CGraphSearchInfo_ActiveVertScaleAndGridLine::`vftable'
	DD	FLAT:?FindGraph@CGraphSearchInfo@@UAEHPBVCSubGraph@@@Z
	DD	FLAT:?FindGraph@CGraphSearchInfo@@UAEHPBVCGraphImp@@@Z
	DD	FLAT:?FindGraph@CGraphSearchInfo_ActiveVertScaleAndGridLine@@UAEHPBVCVertScaleGroup@@@Z
	DD	FLAT:?FindGraph@CGraphSearchInfo@@UAEHPAXPBVCVertScaleGroup@@@Z
	DD	FLAT:?FindGraph@CGraphSearchInfo@@UAEHPBVCBlockImp@@@Z
	DD	FLAT:?FindGraph@CGraphSearchInfo@@UAEHPAXPBVCBlockImp@@@Z
	DD	FLAT:?FindGraph@CGraphSearchInfo@@UAEHPBVCBlocksColumn@@@Z
CONST	ENDS
;	COMDAT ??_7?$CList@VCVerticalScale@@AAV1@@@6B@
CONST	SEGMENT
??_7?$CList@VCVerticalScale@@AAV1@@@6B@ DD FLAT:??_R4?$CList@VCVerticalScale@@AAV1@@@6B@ ; CList<CVerticalScale,CVerticalScale &>::`vftable'
	DD	FLAT:?GetRuntimeClass@CObject@@UBEPAUCRuntimeClass@@XZ
	DD	FLAT:??_E?$CList@VCVerticalScale@@AAV1@@@UAEPAXI@Z
	DD	FLAT:?Serialize@?$CList@VCVerticalScale@@AAV1@@@UAEXAAVCArchive@@@Z
	DD	FLAT:?AssertValid@CObject@@UBEXXZ
	DD	FLAT:?Dump@CObject@@UBEXAAVCDumpContext@@@Z
CONST	ENDS
;	COMDAT ??_7?$CList@VCVerticalScalePtrData@@AAV1@@@6B@
CONST	SEGMENT
??_7?$CList@VCVerticalScalePtrData@@AAV1@@@6B@ DD FLAT:??_R4?$CList@VCVerticalScalePtrData@@AAV1@@@6B@ ; CList<CVerticalScalePtrData,CVerticalScalePtrData &>::`vftable'
	DD	FLAT:?GetRuntimeClass@CObject@@UBEPAUCRuntimeClass@@XZ
	DD	FLAT:??_E?$CList@VCVerticalScalePtrData@@AAV1@@@UAEPAXI@Z
	DD	FLAT:?Serialize@?$CList@VCVerticalScalePtrData@@AAV1@@@UAEXAAVCArchive@@@Z
	DD	FLAT:?AssertValid@CObject@@UBEXXZ
	DD	FLAT:?Dump@CObject@@UBEXAAVCDumpContext@@@Z
CONST	ENDS
;	COMDAT ??_7?$CList@VCHorizontalScale@@AAV1@@@6B@
CONST	SEGMENT
??_7?$CList@VCHorizontalScale@@AAV1@@@6B@ DD FLAT:??_R4?$CList@VCHorizontalScale@@AAV1@@@6B@ ; CList<CHorizontalScale,CHorizontalScale &>::`vftable'
	DD	FLAT:?GetRuntimeClass@CObject@@UBEPAUCRuntimeClass@@XZ
	DD	FLAT:??_E?$CList@VCHorizontalScale@@AAV1@@@UAEPAXI@Z
	DD	FLAT:?Serialize@?$CList@VCHorizontalScale@@AAV1@@@UAEXAAVCArchive@@@Z
	DD	FLAT:?AssertValid@CObject@@UBEXXZ
	DD	FLAT:?Dump@CObject@@UBEXAAVCDumpContext@@@Z
CONST	ENDS
;	COMDAT ??_7?$CList@VCHorizontalScalePtrData@@AAV1@@@6B@
CONST	SEGMENT
??_7?$CList@VCHorizontalScalePtrData@@AAV1@@@6B@ DD FLAT:??_R4?$CList@VCHorizontalScalePtrData@@AAV1@@@6B@ ; CList<CHorizontalScalePtrData,CHorizontalScalePtrData &>::`vftable'
	DD	FLAT:?GetRuntimeClass@CObject@@UBEPAUCRuntimeClass@@XZ
	DD	FLAT:??_E?$CList@VCHorizontalScalePtrData@@AAV1@@@UAEPAXI@Z
	DD	FLAT:?Serialize@?$CList@VCHorizontalScalePtrData@@AAV1@@@UAEXAAVCArchive@@@Z
	DD	FLAT:?AssertValid@CObject@@UBEXXZ
	DD	FLAT:?Dump@CObject@@UBEXAAVCDumpContext@@@Z
CONST	ENDS
;	COMDAT ??_C@_0BA@ENJOCHIO@LoadResourceDLL@
CONST	SEGMENT
??_C@_0BA@ENJOCHIO@LoadResourceDLL@ DB 'LoadResourceDLL', 00H ; `string'
CONST	ENDS
;	COMDAT ??_7CVertScaleTool@@6B@
CONST	SEGMENT
??_7CVertScaleTool@@6B@ DD FLAT:??_R4CVertScaleTool@@6B@ ; CVertScaleTool::`vftable'
	DD	FLAT:?InitializeAllData@CScaleTool@@UAEXXZ
	DD	FLAT:?GetToolType@CVertScaleTool@@UBE?AW4TOOLTYPE@CBlockBaseData@@XZ
	DD	FLAT:?OnLButtonDown@CScaleTool@@UAE_NPAVCDC@@PAVCMainBlock@@IABVCPoint@@@Z
	DD	FLAT:?OnLButtonUp@CBaseTool@@UAE_NPAVCDC@@PAVCMainBlock@@ABVCPoint@@@Z
	DD	FLAT:?OnLButtonDblClk@CVertScaleTool@@UAE_NPAVCDC@@PAVCMainBlock@@ABVCPoint@@@Z
	DD	FLAT:?OnRButtonUp@CVertScaleTool@@MAE?AW4MENUTYPE@CMenuType@@PAVCDC@@PAVCMainBlock@@ABVCPoint@@@Z
	DD	FLAT:?OnMouseMove@CBaseTool@@UAEXPAVCDC@@PAVCMainBlock@@IABVCPoint@@@Z
	DD	FLAT:?OnMenu@CScaleTool@@UAE_NPAVCMainBlock@@W4ELEMENTMENU@CMenuType@@I@Z
	DD	FLAT:?GetMenuCheck@CBaseTool@@UAE_NPAVCMainBlock@@W4ELEMENTMENU@CMenuType@@I@Z
	DD	FLAT:?OnDraw@CBaseTool@@UAEXPAVCDC@@PAVCMainBlock@@@Z
	DD	FLAT:?OnRButtonUp@CVertScaleTool@@MAE?AW4MENUTYPE@CMenuType@@XZ
	DD	FLAT:?OnMenu_ScaleSet@CVertScaleTool@@MAE_NPAVCMainBlock@@H@Z
	DD	FLAT:?FindScale@CVertScaleTool@@MAE_NPAVCBlockImp@@ABVCPoint@@@Z
CONST	ENDS
;	COMDAT ??_7CHorzScaleTool@@6B@
CONST	SEGMENT
??_7CHorzScaleTool@@6B@ DD FLAT:??_R4CHorzScaleTool@@6B@ ; CHorzScaleTool::`vftable'
	DD	FLAT:?InitializeAllData@CScaleTool@@UAEXXZ
	DD	FLAT:?GetToolType@CHorzScaleTool@@UBE?AW4TOOLTYPE@CBlockBaseData@@XZ
	DD	FLAT:?OnLButtonDown@CScaleTool@@UAE_NPAVCDC@@PAVCMainBlock@@IABVCPoint@@@Z
	DD	FLAT:?OnLButtonUp@CBaseTool@@UAE_NPAVCDC@@PAVCMainBlock@@ABVCPoint@@@Z
	DD	FLAT:?OnLButtonDblClk@CHorzScaleTool@@UAE_NPAVCDC@@PAVCMainBlock@@ABVCPoint@@@Z
	DD	FLAT:?OnRButtonUp@CScaleTool@@UAE?AW4MENUTYPE@CMenuType@@PAVCDC@@PAVCMainBlock@@ABVCPoint@@@Z
	DD	FLAT:?OnMouseMove@CBaseTool@@UAEXPAVCDC@@PAVCMainBlock@@IABVCPoint@@@Z
	DD	FLAT:?OnMenu@CScaleTool@@UAE_NPAVCMainBlock@@W4ELEMENTMENU@CMenuType@@I@Z
	DD	FLAT:?GetMenuCheck@CBaseTool@@UAE_NPAVCMainBlock@@W4ELEMENTMENU@CMenuType@@I@Z
	DD	FLAT:?OnDraw@CBaseTool@@UAEXPAVCDC@@PAVCMainBlock@@@Z
	DD	FLAT:?OnRButtonUp@CHorzScaleTool@@MAE?AW4MENUTYPE@CMenuType@@XZ
	DD	FLAT:?OnMenu_ScaleSet@CHorzScaleTool@@MAE_NPAVCMainBlock@@H@Z
	DD	FLAT:?FindScale@CHorzScaleTool@@MAE_NPAVCBlockImp@@ABVCPoint@@@Z
CONST	ENDS
;	COMDAT ??_7CScaleTool@@6B@
CONST	SEGMENT
??_7CScaleTool@@6B@ DD FLAT:??_R4CScaleTool@@6B@	; CScaleTool::`vftable'
	DD	FLAT:?InitializeAllData@CScaleTool@@UAEXXZ
	DD	FLAT:__purecall
	DD	FLAT:?OnLButtonDown@CScaleTool@@UAE_NPAVCDC@@PAVCMainBlock@@IABVCPoint@@@Z
	DD	FLAT:?OnLButtonUp@CBaseTool@@UAE_NPAVCDC@@PAVCMainBlock@@ABVCPoint@@@Z
	DD	FLAT:?OnLButtonDblClk@CBaseTool@@UAE_NPAVCDC@@PAVCMainBlock@@ABVCPoint@@@Z
	DD	FLAT:?OnRButtonUp@CScaleTool@@UAE?AW4MENUTYPE@CMenuType@@PAVCDC@@PAVCMainBlock@@ABVCPoint@@@Z
	DD	FLAT:?OnMouseMove@CBaseTool@@UAEXPAVCDC@@PAVCMainBlock@@IABVCPoint@@@Z
	DD	FLAT:?OnMenu@CScaleTool@@UAE_NPAVCMainBlock@@W4ELEMENTMENU@CMenuType@@I@Z
	DD	FLAT:?GetMenuCheck@CBaseTool@@UAE_NPAVCMainBlock@@W4ELEMENTMENU@CMenuType@@I@Z
	DD	FLAT:?OnDraw@CBaseTool@@UAEXPAVCDC@@PAVCMainBlock@@@Z
	DD	FLAT:__purecall
	DD	FLAT:__purecall
	DD	FLAT:__purecall
CONST	ENDS
;	COMDAT ??_R1A@?0A@EA@CObject@@8
rdata$r	SEGMENT
??_R1A@?0A@EA@CObject@@8 DD FLAT:??_R0?AVCObject@@@8	; CObject::`RTTI Base Class Descriptor at (0,-1,0,64)'
	DD	00H
	DD	00H
	DD	0ffffffffH
	DD	00H
	DD	040H
	DD	FLAT:??_R3CObject@@8
rdata$r	ENDS
;	COMDAT ??_R2CObject@@8
rdata$r	SEGMENT
??_R2CObject@@8 DD FLAT:??_R1A@?0A@EA@CObject@@8	; CObject::`RTTI Base Class Array'
rdata$r	ENDS
;	COMDAT ??_R3CObject@@8
rdata$r	SEGMENT
??_R3CObject@@8 DD 00H					; CObject::`RTTI Class Hierarchy Descriptor'
	DD	00H
	DD	01H
	DD	FLAT:??_R2CObject@@8
rdata$r	ENDS
;	COMDAT ??_R0?AVCObject@@@8
data$rs	SEGMENT
??_R0?AVCObject@@@8 DD FLAT:??_7type_info@@6B@		; CObject `RTTI Type Descriptor'
	DD	00H
	DB	'.?AVCObject@@', 00H
data$rs	ENDS
;	COMDAT xdata$x
xdata$x	SEGMENT
__unwindtable$?Serialize@?$CList@VCVerticalScale@@AAV1@@@UAEXAAVCArchive@@@Z DD 0ffffffffH
	DD	FLAT:__unwindfunclet$?Serialize@?$CList@VCVerticalScale@@AAV1@@@UAEXAAVCArchive@@@Z$0
__ehfuncinfo$?Serialize@?$CList@VCVerticalScale@@AAV1@@@UAEXAAVCArchive@@@Z DD 019930522H
	DD	01H
	DD	FLAT:__unwindtable$?Serialize@?$CList@VCVerticalScale@@AAV1@@@UAEXAAVCArchive@@@Z
	DD	2 DUP(00H)
	DD	2 DUP(00H)
	DD	00H
	DD	01H
xdata$x	ENDS
;	COMDAT xdata$x
xdata$x	SEGMENT
__ehfuncinfo$??1?$CList@VCVerticalScale@@AAV1@@@UAE@XZ DD 019930522H
	DD	00H
	DD	00H
	DD	2 DUP(00H)
	DD	2 DUP(00H)
	DD	00H
	DD	05H
xdata$x	ENDS
;	COMDAT xdata$x
xdata$x	SEGMENT
__unwindtable$?Serialize@?$CList@VCVerticalScalePtrData@@AAV1@@@UAEXAAVCArchive@@@Z DD 0ffffffffH
	DD	FLAT:__unwindfunclet$?Serialize@?$CList@VCVerticalScalePtrData@@AAV1@@@UAEXAAVCArchive@@@Z$0
__ehfuncinfo$?Serialize@?$CList@VCVerticalScalePtrData@@AAV1@@@UAEXAAVCArchive@@@Z DD 019930522H
	DD	01H
	DD	FLAT:__unwindtable$?Serialize@?$CList@VCVerticalScalePtrData@@AAV1@@@UAEXAAVCArchive@@@Z
	DD	2 DUP(00H)
	DD	2 DUP(00H)
	DD	00H
	DD	01H
xdata$x	ENDS
;	COMDAT xdata$x
xdata$x	SEGMENT
__ehfuncinfo$??1?$CList@VCVerticalScalePtrData@@AAV1@@@UAE@XZ DD 019930522H
	DD	00H
	DD	00H
	DD	2 DUP(00H)
	DD	2 DUP(00H)
	DD	00H
	DD	05H
xdata$x	ENDS
;	COMDAT xdata$x
xdata$x	SEGMENT
__unwindtable$?Serialize@?$CList@VCHorizontalScale@@AAV1@@@UAEXAAVCArchive@@@Z DD 0ffffffffH
	DD	FLAT:__unwindfunclet$?Serialize@?$CList@VCHorizontalScale@@AAV1@@@UAEXAAVCArchive@@@Z$0
__ehfuncinfo$?Serialize@?$CList@VCHorizontalScale@@AAV1@@@UAEXAAVCArchive@@@Z DD 019930522H
	DD	01H
	DD	FLAT:__unwindtable$?Serialize@?$CList@VCHorizontalScale@@AAV1@@@UAEXAAVCArchive@@@Z
	DD	2 DUP(00H)
	DD	2 DUP(00H)
	DD	00H
	DD	01H
xdata$x	ENDS
;	COMDAT xdata$x
xdata$x	SEGMENT
__ehfuncinfo$??1?$CList@VCHorizontalScale@@AAV1@@@UAE@XZ DD 019930522H
	DD	00H
	DD	00H
	DD	2 DUP(00H)
	DD	2 DUP(00H)
	DD	00H
	DD	05H
xdata$x	ENDS
;	COMDAT xdata$x
xdata$x	SEGMENT
__unwindtable$?Serialize@?$CList@VCHorizontalScalePtrData@@AAV1@@@UAEXAAVCArchive@@@Z DD 0ffffffffH
	DD	FLAT:__unwindfunclet$?Serialize@?$CList@VCHorizontalScalePtrData@@AAV1@@@UAEXAAVCArchive@@@Z$0
__ehfuncinfo$?Serialize@?$CList@VCHorizontalScalePtrData@@AAV1@@@UAEXAAVCArchive@@@Z DD 019930522H
	DD	01H
	DD	FLAT:__unwindtable$?Serialize@?$CList@VCHorizontalScalePtrData@@AAV1@@@UAEXAAVCArchive@@@Z
	DD	2 DUP(00H)
	DD	2 DUP(00H)
	DD	00H
	DD	01H
xdata$x	ENDS
;	COMDAT xdata$x
xdata$x	SEGMENT
__ehfuncinfo$??1?$CList@VCHorizontalScalePtrData@@AAV1@@@UAE@XZ DD 019930522H
	DD	00H
	DD	00H
	DD	2 DUP(00H)
	DD	2 DUP(00H)
	DD	00H
	DD	05H
xdata$x	ENDS
;	COMDAT xdata$x
xdata$x	SEGMENT
__ehfuncinfo$??1CMultiLanguageResourceSetter@@QAE@XZ DD 019930522H
	DD	00H
	DD	00H
	DD	2 DUP(00H)
	DD	2 DUP(00H)
	DD	00H
	DD	05H
xdata$x	ENDS
;	COMDAT xdata$x
xdata$x	SEGMENT
__ehfuncinfo$?ShowVertScaleSettingDlg@CVertScaleTool@@IAE_NPAVCMainBlock@@H@Z DD 019930522H
	DD	06H
	DD	FLAT:__unwindtable$?ShowVertScaleSettingDlg@CVertScaleTool@@IAE_NPAVCMainBlock@@H@Z
	DD	2 DUP(00H)
	DD	2 DUP(00H)
	DD	00H
	DD	01H
__unwindtable$?ShowVertScaleSettingDlg@CVertScaleTool@@IAE_NPAVCMainBlock@@H@Z DD 0ffffffffH
	DD	FLAT:__unwindfunclet$?ShowVertScaleSettingDlg@CVertScaleTool@@IAE_NPAVCMainBlock@@H@Z$0
	DD	00H
	DD	FLAT:__unwindfunclet$?ShowVertScaleSettingDlg@CVertScaleTool@@IAE_NPAVCMainBlock@@H@Z$1
	DD	01H
	DD	FLAT:__unwindfunclet$?ShowVertScaleSettingDlg@CVertScaleTool@@IAE_NPAVCMainBlock@@H@Z$2
	DD	02H
	DD	FLAT:__unwindfunclet$?ShowVertScaleSettingDlg@CVertScaleTool@@IAE_NPAVCMainBlock@@H@Z$3
	DD	03H
	DD	FLAT:__unwindfunclet$?ShowVertScaleSettingDlg@CVertScaleTool@@IAE_NPAVCMainBlock@@H@Z$6
	DD	01H
	DD	FLAT:___std_terminate
xdata$x	ENDS
;	COMDAT xdata$x
xdata$x	SEGMENT
__unwindtable$?SendMessage_VertScaleSetting@CVertScaleTool@@AAEXXZ DD 0ffffffffH
	DD	FLAT:__unwindfunclet$?SendMessage_VertScaleSetting@CVertScaleTool@@AAEXXZ$0
__ehfuncinfo$?SendMessage_VertScaleSetting@CVertScaleTool@@AAEXXZ DD 019930522H
	DD	01H
	DD	FLAT:__unwindtable$?SendMessage_VertScaleSetting@CVertScaleTool@@AAEXXZ
	DD	2 DUP(00H)
	DD	2 DUP(00H)
	DD	00H
	DD	01H
xdata$x	ENDS
;	COMDAT xdata$x
xdata$x	SEGMENT
__unwindtable$?OnMenu_ScaleSet@CHorzScaleTool@@MAE_NPAVCMainBlock@@H@Z DD 0ffffffffH
	DD	FLAT:__unwindfunclet$?OnMenu_ScaleSet@CHorzScaleTool@@MAE_NPAVCMainBlock@@H@Z$0
	DD	00H
	DD	FLAT:__unwindfunclet$?OnMenu_ScaleSet@CHorzScaleTool@@MAE_NPAVCMainBlock@@H@Z$1
	DD	01H
	DD	FLAT:__unwindfunclet$?OnMenu_ScaleSet@CHorzScaleTool@@MAE_NPAVCMainBlock@@H@Z$2
	DD	00H
	DD	FLAT:___std_terminate
__ehfuncinfo$?OnMenu_ScaleSet@CHorzScaleTool@@MAE_NPAVCMainBlock@@H@Z DD 019930522H
	DD	04H
	DD	FLAT:__unwindtable$?OnMenu_ScaleSet@CHorzScaleTool@@MAE_NPAVCMainBlock@@H@Z
	DD	2 DUP(00H)
	DD	2 DUP(00H)
	DD	00H
	DD	01H
xdata$x	ENDS
; Function compile flags: /Ogtp
; File C:\Program Files (x86)\Microsoft Visual Studio\2019\Community\VC\Tools\MSVC\14.29.30133\atlmfc\include\afxtempl.h
; File C:\Program Files (x86)\Microsoft Visual Studio\2019\Community\VC\Tools\MSVC\14.29.30133\atlmfc\include\afx.inl
; File C:\Program Files (x86)\Microsoft Visual Studio\2019\Community\VC\Tools\MSVC\14.29.30133\atlmfc\include\afxtempl.h
; File C:\Program Files (x86)\Microsoft Visual Studio\2019\Community\VC\Tools\MSVC\14.29.30133\atlmfc\include\afx.inl
; File C:\Program Files (x86)\Microsoft Visual Studio\2019\Community\VC\Tools\MSVC\14.29.30133\atlmfc\include\afxtempl.h
; File C:\Program Files (x86)\Microsoft Visual Studio\2019\Community\VC\Tools\MSVC\14.29.30133\atlmfc\include\afx.inl
; File C:\Program Files (x86)\Microsoft Visual Studio\2019\Community\VC\Tools\MSVC\14.29.30133\atlmfc\include\afxtempl.h
;	COMDAT ??$SerializeElements@VCVerticalScale@@@@YGXAAVCArchive@@PAVCVerticalScale@@H@Z
_TEXT	SEGMENT
_ar$ = 8						; size = 4
_pElements$ = 12					; size = 4
_nCount$ = 16						; size = 4
??$SerializeElements@VCVerticalScale@@@@YGXAAVCArchive@@PAVCVerticalScale@@H@Z PROC ; SerializeElements<CVerticalScale>, COMDAT

; 67   : {

  00000	55		 push	 ebp
  00001	8b ec		 mov	 ebp, esp

; 68   : 	ENSURE(nCount == 0 || pElements != NULL);

  00003	8b 4d 0c	 mov	 ecx, DWORD PTR _pElements$[ebp]
  00006	53		 push	 ebx
  00007	56		 push	 esi
  00008	8b 75 10	 mov	 esi, DWORD PTR _nCount$[ebp]
  0000b	57		 push	 edi
  0000c	85 f6		 test	 esi, esi
  0000e	74 04		 je	 SHORT $LN2@SerializeE
  00010	85 c9		 test	 ecx, ecx
  00012	74 79		 je	 SHORT $LN34@SerializeE
$LN2@SerializeE:
; File C:\Program Files (x86)\Microsoft Visual Studio\2019\Community\VC\Tools\MSVC\14.29.30133\atlmfc\include\afx.inl

; 212  : 	{ return (m_nMode & CArchive::load) == 0; }

  00014	8b 55 08	 mov	 edx, DWORD PTR _ar$[ebp]
  00017	8b 42 18	 mov	 eax, DWORD PTR [edx+24]
  0001a	f7 d0		 not	 eax
  0001c	a8 01		 test	 al, 1
; File C:\Program Files (x86)\Microsoft Visual Studio\2019\Community\VC\Tools\MSVC\14.29.30133\atlmfc\include\afxtempl.h

; 73   : 	if (ar.IsStoring())

  0001e	74 30		 je	 SHORT $LN10@SerializeE

; 74   : 	{
; 75   : 		TYPE* pData;
; 76   : 		UINT_PTR nElementsLeft;
; 77   : 
; 78   : 		nElementsLeft = nCount;
; 79   : 		pData = pElements;
; 80   : 		while( nElementsLeft > 0 )

  00020	85 f6		 test	 esi, esi
  00022	74 25		 je	 SHORT $LN8@SerializeE
$LL5@SerializeE:

; 81   : 		{
; 82   : 			UINT nElementsToWrite;
; 83   : 
; 84   : 			nElementsToWrite = UINT(__min(nElementsLeft, INT_MAX/sizeof(TYPE)));

  00024	bb 17 5d 74 01	 mov	 ebx, 24403223		; 01745d17H
  00029	3b f3		 cmp	 esi, ebx
  0002b	0f 42 de	 cmovb	 ebx, esi

; 85   : 			ar.Write(pData, nElementsToWrite*sizeof(TYPE));

  0002e	6b fb 58	 imul	 edi, ebx, 88
  00031	57		 push	 edi
  00032	51		 push	 ecx
  00033	8b ca		 mov	 ecx, edx
  00035	e8 00 00 00 00	 call	 ?Write@CArchive@@QAEXPBXI@Z ; CArchive::Write

; 86   : 			nElementsLeft -= nElementsToWrite;
; 87   : 			pData += nElementsToWrite;

  0003a	8b 4d 0c	 mov	 ecx, DWORD PTR _pElements$[ebp]
  0003d	8b 55 08	 mov	 edx, DWORD PTR _ar$[ebp]
  00040	03 cf		 add	 ecx, edi
  00042	89 4d 0c	 mov	 DWORD PTR _pElements$[ebp], ecx
  00045	2b f3		 sub	 esi, ebx
  00047	75 db		 jne	 SHORT $LL5@SerializeE
$LN8@SerializeE:
  00049	5f		 pop	 edi

; 105  : 		}
; 106  : 	}
; 107  : }

  0004a	5e		 pop	 esi
  0004b	5b		 pop	 ebx
  0004c	5d		 pop	 ebp
  0004d	c2 0c 00	 ret	 12			; 0000000cH
$LN10@SerializeE:

; 97   : 		while( nElementsLeft > 0 )

  00050	85 f6		 test	 esi, esi
  00052	74 f5		 je	 SHORT $LN8@SerializeE
$LL7@SerializeE:

; 98   : 		{
; 99   : 			UINT nElementsToRead;
; 100  : 
; 101  : 			nElementsToRead = UINT(__min(nElementsLeft, INT_MAX/sizeof(TYPE)));

  00054	bf 17 5d 74 01	 mov	 edi, 24403223		; 01745d17H
  00059	3b f7		 cmp	 esi, edi
  0005b	0f 42 fe	 cmovb	 edi, esi

; 102  : 			ar.EnsureRead(pData, nElementsToRead*sizeof(TYPE));

  0005e	6b df 58	 imul	 ebx, edi, 88
; File C:\Program Files (x86)\Microsoft Visual Studio\2019\Community\VC\Tools\MSVC\14.29.30133\atlmfc\include\afx.inl

; 399  : 	UINT nRead=Read(lpBuf, nCount);

  00061	53		 push	 ebx
  00062	51		 push	 ecx
  00063	8b ca		 mov	 ecx, edx
  00065	e8 00 00 00 00	 call	 ?Read@CArchive@@QAEIPAXI@Z ; CArchive::Read

; 400  : 	if(nRead!=nCount)

  0006a	3b c3		 cmp	 eax, ebx
  0006c	75 16		 jne	 SHORT $LN23@SerializeE
; File C:\Program Files (x86)\Microsoft Visual Studio\2019\Community\VC\Tools\MSVC\14.29.30133\atlmfc\include\afxtempl.h

; 97   : 		while( nElementsLeft > 0 )

  0006e	8b 4d 0c	 mov	 ecx, DWORD PTR _pElements$[ebp]
  00071	8b 55 08	 mov	 edx, DWORD PTR _ar$[ebp]

; 103  : 			nElementsLeft -= nElementsToRead;
; 104  : 			pData += nElementsToRead;

  00074	03 cb		 add	 ecx, ebx
  00076	89 4d 0c	 mov	 DWORD PTR _pElements$[ebp], ecx
  00079	2b f7		 sub	 esi, edi
  0007b	75 d7		 jne	 SHORT $LL7@SerializeE

; 105  : 		}
; 106  : 	}
; 107  : }

  0007d	5f		 pop	 edi
  0007e	5e		 pop	 esi
  0007f	5b		 pop	 ebx
  00080	5d		 pop	 ebp
  00081	c2 0c 00	 ret	 12			; 0000000cH
$LN23@SerializeE:
; File C:\Program Files (x86)\Microsoft Visual Studio\2019\Community\VC\Tools\MSVC\14.29.30133\atlmfc\include\afx.inl

; 402  : 		AfxThrowArchiveException(CArchiveException::endOfFile);

  00084	6a 00		 push	 0
  00086	6a 03		 push	 3
  00088	e8 00 00 00 00	 call	 ?AfxThrowArchiveException@@YGXHPBD@Z ; AfxThrowArchiveException
$LN34@SerializeE:
; File C:\Program Files (x86)\Microsoft Visual Studio\2019\Community\VC\Tools\MSVC\14.29.30133\atlmfc\include\afxtempl.h

; 68   : 	ENSURE(nCount == 0 || pElements != NULL);

  0008d	e8 00 00 00 00	 call	 ?AfxThrowInvalidArgException@@YGXXZ ; AfxThrowInvalidArgException
$LN32@SerializeE:
  00092	cc		 int	 3
??$SerializeElements@VCVerticalScale@@@@YGXAAVCArchive@@PAVCVerticalScale@@H@Z ENDP ; SerializeElements<CVerticalScale>
_TEXT	ENDS
; Function compile flags: /Ogtp
; File C:\Program Files (x86)\Microsoft Visual Studio\2019\Community\VC\Tools\MSVC\14.29.30133\atlmfc\include\afxtempl.h
; File C:\Program Files (x86)\Microsoft Visual Studio\2019\Community\VC\Tools\MSVC\14.29.30133\atlmfc\include\afx.inl
; File C:\Program Files (x86)\Microsoft Visual Studio\2019\Community\VC\Tools\MSVC\14.29.30133\atlmfc\include\afxtempl.h
; File C:\Program Files (x86)\Microsoft Visual Studio\2019\Community\VC\Tools\MSVC\14.29.30133\atlmfc\include\afx.inl
; File C:\Program Files (x86)\Microsoft Visual Studio\2019\Community\VC\Tools\MSVC\14.29.30133\atlmfc\include\afxtempl.h
; File C:\Program Files (x86)\Microsoft Visual Studio\2019\Community\VC\Tools\MSVC\14.29.30133\atlmfc\include\afx.inl
; File C:\Program Files (x86)\Microsoft Visual Studio\2019\Community\VC\Tools\MSVC\14.29.30133\atlmfc\include\afxtempl.h
;	COMDAT ??$SerializeElements@VCVerticalScalePtrData@@@@YGXAAVCArchive@@PAVCVerticalScalePtrData@@H@Z
_TEXT	SEGMENT
_ar$ = 8						; size = 4
_pElements$ = 12					; size = 4
_nCount$ = 16						; size = 4
??$SerializeElements@VCVerticalScalePtrData@@@@YGXAAVCArchive@@PAVCVerticalScalePtrData@@H@Z PROC ; SerializeElements<CVerticalScalePtrData>, COMDAT

; 67   : {

  00000	55		 push	 ebp
  00001	8b ec		 mov	 ebp, esp

; 68   : 	ENSURE(nCount == 0 || pElements != NULL);

  00003	8b 4d 0c	 mov	 ecx, DWORD PTR _pElements$[ebp]
  00006	53		 push	 ebx
  00007	56		 push	 esi
  00008	8b 75 10	 mov	 esi, DWORD PTR _nCount$[ebp]
  0000b	57		 push	 edi
  0000c	85 f6		 test	 esi, esi
  0000e	74 08		 je	 SHORT $LN2@SerializeE
  00010	85 c9		 test	 ecx, ecx
  00012	0f 84 87 00 00
	00		 je	 $LN34@SerializeE
$LN2@SerializeE:
; File C:\Program Files (x86)\Microsoft Visual Studio\2019\Community\VC\Tools\MSVC\14.29.30133\atlmfc\include\afx.inl

; 212  : 	{ return (m_nMode & CArchive::load) == 0; }

  00018	8b 55 08	 mov	 edx, DWORD PTR _ar$[ebp]
  0001b	8b 42 18	 mov	 eax, DWORD PTR [edx+24]
  0001e	f7 d0		 not	 eax
  00020	a8 01		 test	 al, 1
; File C:\Program Files (x86)\Microsoft Visual Studio\2019\Community\VC\Tools\MSVC\14.29.30133\atlmfc\include\afxtempl.h

; 73   : 	if (ar.IsStoring())

  00022	74 3b		 je	 SHORT $LN10@SerializeE

; 74   : 	{
; 75   : 		TYPE* pData;
; 76   : 		UINT_PTR nElementsLeft;
; 77   : 
; 78   : 		nElementsLeft = nCount;
; 79   : 		pData = pElements;
; 80   : 		while( nElementsLeft > 0 )

  00024	85 f6		 test	 esi, esi
  00026	74 30		 je	 SHORT $LN8@SerializeE
  00028	0f 1f 84 00 00
	00 00 00	 npad	 8
$LL5@SerializeE:

; 81   : 		{
; 82   : 			UINT nElementsToWrite;
; 83   : 
; 84   : 			nElementsToWrite = UINT(__min(nElementsLeft, INT_MAX/sizeof(TYPE)));

  00030	bb aa aa aa 0a	 mov	 ebx, 178956970		; 0aaaaaaaH
  00035	3b f3		 cmp	 esi, ebx
  00037	0f 42 de	 cmovb	 ebx, esi

; 85   : 			ar.Write(pData, nElementsToWrite*sizeof(TYPE));

  0003a	8d 3c 5b	 lea	 edi, DWORD PTR [ebx+ebx*2]
  0003d	c1 e7 02	 shl	 edi, 2
  00040	57		 push	 edi
  00041	51		 push	 ecx
  00042	8b ca		 mov	 ecx, edx
  00044	e8 00 00 00 00	 call	 ?Write@CArchive@@QAEXPBXI@Z ; CArchive::Write

; 86   : 			nElementsLeft -= nElementsToWrite;
; 87   : 			pData += nElementsToWrite;

  00049	8b 4d 0c	 mov	 ecx, DWORD PTR _pElements$[ebp]
  0004c	8b 55 08	 mov	 edx, DWORD PTR _ar$[ebp]
  0004f	03 cf		 add	 ecx, edi
  00051	89 4d 0c	 mov	 DWORD PTR _pElements$[ebp], ecx
  00054	2b f3		 sub	 esi, ebx
  00056	75 d8		 jne	 SHORT $LL5@SerializeE
$LN8@SerializeE:
  00058	5f		 pop	 edi

; 105  : 		}
; 106  : 	}
; 107  : }

  00059	5e		 pop	 esi
  0005a	5b		 pop	 ebx
  0005b	5d		 pop	 ebp
  0005c	c2 0c 00	 ret	 12			; 0000000cH
$LN10@SerializeE:

; 97   : 		while( nElementsLeft > 0 )

  0005f	85 f6		 test	 esi, esi
  00061	74 f5		 je	 SHORT $LN8@SerializeE
$LL7@SerializeE:

; 98   : 		{
; 99   : 			UINT nElementsToRead;
; 100  : 
; 101  : 			nElementsToRead = UINT(__min(nElementsLeft, INT_MAX/sizeof(TYPE)));

  00063	bf aa aa aa 0a	 mov	 edi, 178956970		; 0aaaaaaaH
  00068	3b f7		 cmp	 esi, edi
  0006a	0f 42 fe	 cmovb	 edi, esi

; 102  : 			ar.EnsureRead(pData, nElementsToRead*sizeof(TYPE));

  0006d	8d 1c 7f	 lea	 ebx, DWORD PTR [edi+edi*2]
  00070	c1 e3 02	 shl	 ebx, 2
; File C:\Program Files (x86)\Microsoft Visual Studio\2019\Community\VC\Tools\MSVC\14.29.30133\atlmfc\include\afx.inl

; 399  : 	UINT nRead=Read(lpBuf, nCount);

  00073	53		 push	 ebx
  00074	51		 push	 ecx
  00075	8b ca		 mov	 ecx, edx
  00077	e8 00 00 00 00	 call	 ?Read@CArchive@@QAEIPAXI@Z ; CArchive::Read

; 400  : 	if(nRead!=nCount)

  0007c	3b c3		 cmp	 eax, ebx
  0007e	75 16		 jne	 SHORT $LN23@SerializeE
; File C:\Program Files (x86)\Microsoft Visual Studio\2019\Community\VC\Tools\MSVC\14.29.30133\atlmfc\include\afxtempl.h

; 97   : 		while( nElementsLeft > 0 )

  00080	8b 4d 0c	 mov	 ecx, DWORD PTR _pElements$[ebp]
  00083	8b 55 08	 mov	 edx, DWORD PTR _ar$[ebp]

; 103  : 			nElementsLeft -= nElementsToRead;
; 104  : 			pData += nElementsToRead;

  00086	03 cb		 add	 ecx, ebx
  00088	89 4d 0c	 mov	 DWORD PTR _pElements$[ebp], ecx
  0008b	2b f7		 sub	 esi, edi
  0008d	75 d4		 jne	 SHORT $LL7@SerializeE

; 105  : 		}
; 106  : 	}
; 107  : }

  0008f	5f		 pop	 edi
  00090	5e		 pop	 esi
  00091	5b		 pop	 ebx
  00092	5d		 pop	 ebp
  00093	c2 0c 00	 ret	 12			; 0000000cH
$LN23@SerializeE:
; File C:\Program Files (x86)\Microsoft Visual Studio\2019\Community\VC\Tools\MSVC\14.29.30133\atlmfc\include\afx.inl

; 402  : 		AfxThrowArchiveException(CArchiveException::endOfFile);

  00096	6a 00		 push	 0
  00098	6a 03		 push	 3
  0009a	e8 00 00 00 00	 call	 ?AfxThrowArchiveException@@YGXHPBD@Z ; AfxThrowArchiveException
$LN34@SerializeE:
; File C:\Program Files (x86)\Microsoft Visual Studio\2019\Community\VC\Tools\MSVC\14.29.30133\atlmfc\include\afxtempl.h

; 68   : 	ENSURE(nCount == 0 || pElements != NULL);

  0009f	e8 00 00 00 00	 call	 ?AfxThrowInvalidArgException@@YGXXZ ; AfxThrowInvalidArgException
$LN32@SerializeE:
  000a4	cc		 int	 3
??$SerializeElements@VCVerticalScalePtrData@@@@YGXAAVCArchive@@PAVCVerticalScalePtrData@@H@Z ENDP ; SerializeElements<CVerticalScalePtrData>
_TEXT	ENDS
; Function compile flags: /Ogtp
; File C:\Program Files (x86)\Microsoft Visual Studio\2019\Community\VC\Tools\MSVC\14.29.30133\atlmfc\include\afxtempl.h
; File C:\Program Files (x86)\Microsoft Visual Studio\2019\Community\VC\Tools\MSVC\14.29.30133\atlmfc\include\afx.inl
; File C:\Program Files (x86)\Microsoft Visual Studio\2019\Community\VC\Tools\MSVC\14.29.30133\atlmfc\include\afxtempl.h
; File C:\Program Files (x86)\Microsoft Visual Studio\2019\Community\VC\Tools\MSVC\14.29.30133\atlmfc\include\afx.inl
; File C:\Program Files (x86)\Microsoft Visual Studio\2019\Community\VC\Tools\MSVC\14.29.30133\atlmfc\include\afxtempl.h
; File C:\Program Files (x86)\Microsoft Visual Studio\2019\Community\VC\Tools\MSVC\14.29.30133\atlmfc\include\afx.inl
; File C:\Program Files (x86)\Microsoft Visual Studio\2019\Community\VC\Tools\MSVC\14.29.30133\atlmfc\include\afxtempl.h
;	COMDAT ??$SerializeElements@VCHorizontalScale@@@@YGXAAVCArchive@@PAVCHorizontalScale@@H@Z
_TEXT	SEGMENT
_ar$ = 8						; size = 4
_pElements$ = 12					; size = 4
_nCount$ = 16						; size = 4
??$SerializeElements@VCHorizontalScale@@@@YGXAAVCArchive@@PAVCHorizontalScale@@H@Z PROC ; SerializeElements<CHorizontalScale>, COMDAT

; 67   : {

  00000	55		 push	 ebp
  00001	8b ec		 mov	 ebp, esp

; 68   : 	ENSURE(nCount == 0 || pElements != NULL);

  00003	8b 4d 0c	 mov	 ecx, DWORD PTR _pElements$[ebp]
  00006	53		 push	 ebx
  00007	56		 push	 esi
  00008	8b 75 10	 mov	 esi, DWORD PTR _nCount$[ebp]
  0000b	57		 push	 edi
  0000c	85 f6		 test	 esi, esi
  0000e	74 04		 je	 SHORT $LN2@SerializeE
  00010	85 c9		 test	 ecx, ecx
  00012	74 79		 je	 SHORT $LN34@SerializeE
$LN2@SerializeE:
; File C:\Program Files (x86)\Microsoft Visual Studio\2019\Community\VC\Tools\MSVC\14.29.30133\atlmfc\include\afx.inl

; 212  : 	{ return (m_nMode & CArchive::load) == 0; }

  00014	8b 55 08	 mov	 edx, DWORD PTR _ar$[ebp]
  00017	8b 42 18	 mov	 eax, DWORD PTR [edx+24]
  0001a	f7 d0		 not	 eax
  0001c	a8 01		 test	 al, 1
; File C:\Program Files (x86)\Microsoft Visual Studio\2019\Community\VC\Tools\MSVC\14.29.30133\atlmfc\include\afxtempl.h

; 73   : 	if (ar.IsStoring())

  0001e	74 30		 je	 SHORT $LN10@SerializeE

; 74   : 	{
; 75   : 		TYPE* pData;
; 76   : 		UINT_PTR nElementsLeft;
; 77   : 
; 78   : 		nElementsLeft = nCount;
; 79   : 		pData = pElements;
; 80   : 		while( nElementsLeft > 0 )

  00020	85 f6		 test	 esi, esi
  00022	74 25		 je	 SHORT $LN8@SerializeE
$LL5@SerializeE:

; 81   : 		{
; 82   : 			UINT nElementsToWrite;
; 83   : 
; 84   : 			nElementsToWrite = UINT(__min(nElementsLeft, INT_MAX/sizeof(TYPE)));

  00024	bb 14 ae 47 01	 mov	 ebx, 21474836		; 0147ae14H
  00029	3b f3		 cmp	 esi, ebx
  0002b	0f 42 de	 cmovb	 ebx, esi

; 85   : 			ar.Write(pData, nElementsToWrite*sizeof(TYPE));

  0002e	6b fb 64	 imul	 edi, ebx, 100
  00031	57		 push	 edi
  00032	51		 push	 ecx
  00033	8b ca		 mov	 ecx, edx
  00035	e8 00 00 00 00	 call	 ?Write@CArchive@@QAEXPBXI@Z ; CArchive::Write

; 86   : 			nElementsLeft -= nElementsToWrite;
; 87   : 			pData += nElementsToWrite;

  0003a	8b 4d 0c	 mov	 ecx, DWORD PTR _pElements$[ebp]
  0003d	8b 55 08	 mov	 edx, DWORD PTR _ar$[ebp]
  00040	03 cf		 add	 ecx, edi
  00042	89 4d 0c	 mov	 DWORD PTR _pElements$[ebp], ecx
  00045	2b f3		 sub	 esi, ebx
  00047	75 db		 jne	 SHORT $LL5@SerializeE
$LN8@SerializeE:
  00049	5f		 pop	 edi

; 105  : 		}
; 106  : 	}
; 107  : }

  0004a	5e		 pop	 esi
  0004b	5b		 pop	 ebx
  0004c	5d		 pop	 ebp
  0004d	c2 0c 00	 ret	 12			; 0000000cH
$LN10@SerializeE:

; 97   : 		while( nElementsLeft > 0 )

  00050	85 f6		 test	 esi, esi
  00052	74 f5		 je	 SHORT $LN8@SerializeE
$LL7@SerializeE:

; 98   : 		{
; 99   : 			UINT nElementsToRead;
; 100  : 
; 101  : 			nElementsToRead = UINT(__min(nElementsLeft, INT_MAX/sizeof(TYPE)));

  00054	bf 14 ae 47 01	 mov	 edi, 21474836		; 0147ae14H
  00059	3b f7		 cmp	 esi, edi
  0005b	0f 42 fe	 cmovb	 edi, esi

; 102  : 			ar.EnsureRead(pData, nElementsToRead*sizeof(TYPE));

  0005e	6b df 64	 imul	 ebx, edi, 100
; File C:\Program Files (x86)\Microsoft Visual Studio\2019\Community\VC\Tools\MSVC\14.29.30133\atlmfc\include\afx.inl

; 399  : 	UINT nRead=Read(lpBuf, nCount);

  00061	53		 push	 ebx
  00062	51		 push	 ecx
  00063	8b ca		 mov	 ecx, edx
  00065	e8 00 00 00 00	 call	 ?Read@CArchive@@QAEIPAXI@Z ; CArchive::Read

; 400  : 	if(nRead!=nCount)

  0006a	3b c3		 cmp	 eax, ebx
  0006c	75 16		 jne	 SHORT $LN23@SerializeE
; File C:\Program Files (x86)\Microsoft Visual Studio\2019\Community\VC\Tools\MSVC\14.29.30133\atlmfc\include\afxtempl.h

; 97   : 		while( nElementsLeft > 0 )

  0006e	8b 4d 0c	 mov	 ecx, DWORD PTR _pElements$[ebp]
  00071	8b 55 08	 mov	 edx, DWORD PTR _ar$[ebp]

; 103  : 			nElementsLeft -= nElementsToRead;
; 104  : 			pData += nElementsToRead;

  00074	03 cb		 add	 ecx, ebx
  00076	89 4d 0c	 mov	 DWORD PTR _pElements$[ebp], ecx
  00079	2b f7		 sub	 esi, edi
  0007b	75 d7		 jne	 SHORT $LL7@SerializeE

; 105  : 		}
; 106  : 	}
; 107  : }

  0007d	5f		 pop	 edi
  0007e	5e		 pop	 esi
  0007f	5b		 pop	 ebx
  00080	5d		 pop	 ebp
  00081	c2 0c 00	 ret	 12			; 0000000cH
$LN23@SerializeE:
; File C:\Program Files (x86)\Microsoft Visual Studio\2019\Community\VC\Tools\MSVC\14.29.30133\atlmfc\include\afx.inl

; 402  : 		AfxThrowArchiveException(CArchiveException::endOfFile);

  00084	6a 00		 push	 0
  00086	6a 03		 push	 3
  00088	e8 00 00 00 00	 call	 ?AfxThrowArchiveException@@YGXHPBD@Z ; AfxThrowArchiveException
$LN34@SerializeE:
; File C:\Program Files (x86)\Microsoft Visual Studio\2019\Community\VC\Tools\MSVC\14.29.30133\atlmfc\include\afxtempl.h

; 68   : 	ENSURE(nCount == 0 || pElements != NULL);

  0008d	e8 00 00 00 00	 call	 ?AfxThrowInvalidArgException@@YGXXZ ; AfxThrowInvalidArgException
$LN32@SerializeE:
  00092	cc		 int	 3
??$SerializeElements@VCHorizontalScale@@@@YGXAAVCArchive@@PAVCHorizontalScale@@H@Z ENDP ; SerializeElements<CHorizontalScale>
_TEXT	ENDS
; Function compile flags: /Ogtp
; File C:\Program Files (x86)\Microsoft Visual Studio\2019\Community\VC\Tools\MSVC\14.29.30133\atlmfc\include\afxtempl.h
; File C:\Program Files (x86)\Microsoft Visual Studio\2019\Community\VC\Tools\MSVC\14.29.30133\atlmfc\include\afx.inl
; File C:\Program Files (x86)\Microsoft Visual Studio\2019\Community\VC\Tools\MSVC\14.29.30133\atlmfc\include\afxtempl.h
; File C:\Program Files (x86)\Microsoft Visual Studio\2019\Community\VC\Tools\MSVC\14.29.30133\atlmfc\include\afx.inl
; File C:\Program Files (x86)\Microsoft Visual Studio\2019\Community\VC\Tools\MSVC\14.29.30133\atlmfc\include\afxtempl.h
; File C:\Program Files (x86)\Microsoft Visual Studio\2019\Community\VC\Tools\MSVC\14.29.30133\atlmfc\include\afx.inl
; File C:\Program Files (x86)\Microsoft Visual Studio\2019\Community\VC\Tools\MSVC\14.29.30133\atlmfc\include\afxtempl.h
;	COMDAT ??$SerializeElements@VCHorizontalScalePtrData@@@@YGXAAVCArchive@@PAVCHorizontalScalePtrData@@H@Z
_TEXT	SEGMENT
_ar$ = 8						; size = 4
_pElements$ = 12					; size = 4
_nCount$ = 16						; size = 4
??$SerializeElements@VCHorizontalScalePtrData@@@@YGXAAVCArchive@@PAVCHorizontalScalePtrData@@H@Z PROC ; SerializeElements<CHorizontalScalePtrData>, COMDAT

; 67   : {

  00000	55		 push	 ebp
  00001	8b ec		 mov	 ebp, esp

; 68   : 	ENSURE(nCount == 0 || pElements != NULL);

  00003	8b 4d 0c	 mov	 ecx, DWORD PTR _pElements$[ebp]
  00006	53		 push	 ebx
  00007	56		 push	 esi
  00008	8b 75 10	 mov	 esi, DWORD PTR _nCount$[ebp]
  0000b	57		 push	 edi
  0000c	85 f6		 test	 esi, esi
  0000e	74 08		 je	 SHORT $LN2@SerializeE
  00010	85 c9		 test	 ecx, ecx
  00012	0f 84 89 00 00
	00		 je	 $LN34@SerializeE
$LN2@SerializeE:
; File C:\Program Files (x86)\Microsoft Visual Studio\2019\Community\VC\Tools\MSVC\14.29.30133\atlmfc\include\afx.inl

; 212  : 	{ return (m_nMode & CArchive::load) == 0; }

  00018	8b 55 08	 mov	 edx, DWORD PTR _ar$[ebp]
  0001b	8b 42 18	 mov	 eax, DWORD PTR [edx+24]
  0001e	f7 d0		 not	 eax
  00020	a8 01		 test	 al, 1
; File C:\Program Files (x86)\Microsoft Visual Studio\2019\Community\VC\Tools\MSVC\14.29.30133\atlmfc\include\afxtempl.h

; 73   : 	if (ar.IsStoring())

  00022	74 3c		 je	 SHORT $LN10@SerializeE

; 74   : 	{
; 75   : 		TYPE* pData;
; 76   : 		UINT_PTR nElementsLeft;
; 77   : 
; 78   : 		nElementsLeft = nCount;
; 79   : 		pData = pElements;
; 80   : 		while( nElementsLeft > 0 )

  00024	85 f6		 test	 esi, esi
  00026	74 31		 je	 SHORT $LN8@SerializeE
  00028	0f 1f 84 00 00
	00 00 00	 npad	 8
$LL5@SerializeE:

; 81   : 		{
; 82   : 			UINT nElementsToWrite;
; 83   : 
; 84   : 			nElementsToWrite = UINT(__min(nElementsLeft, INT_MAX/sizeof(TYPE)));

  00030	bb ff ff ff 0f	 mov	 ebx, 268435455		; 0fffffffH
  00035	3b f3		 cmp	 esi, ebx
  00037	0f 42 de	 cmovb	 ebx, esi

; 85   : 			ar.Write(pData, nElementsToWrite*sizeof(TYPE));

  0003a	8d 3c dd 00 00
	00 00		 lea	 edi, DWORD PTR [ebx*8]
  00041	57		 push	 edi
  00042	51		 push	 ecx
  00043	8b ca		 mov	 ecx, edx
  00045	e8 00 00 00 00	 call	 ?Write@CArchive@@QAEXPBXI@Z ; CArchive::Write

; 86   : 			nElementsLeft -= nElementsToWrite;
; 87   : 			pData += nElementsToWrite;

  0004a	8b 4d 0c	 mov	 ecx, DWORD PTR _pElements$[ebp]
  0004d	8b 55 08	 mov	 edx, DWORD PTR _ar$[ebp]
  00050	03 cf		 add	 ecx, edi
  00052	89 4d 0c	 mov	 DWORD PTR _pElements$[ebp], ecx
  00055	2b f3		 sub	 esi, ebx
  00057	75 d7		 jne	 SHORT $LL5@SerializeE
$LN8@SerializeE:
  00059	5f		 pop	 edi

; 105  : 		}
; 106  : 	}
; 107  : }

  0005a	5e		 pop	 esi
  0005b	5b		 pop	 ebx
  0005c	5d		 pop	 ebp
  0005d	c2 0c 00	 ret	 12			; 0000000cH
$LN10@SerializeE:

; 97   : 		while( nElementsLeft > 0 )

  00060	85 f6		 test	 esi, esi
  00062	74 f5		 je	 SHORT $LN8@SerializeE
$LL7@SerializeE:

; 98   : 		{
; 99   : 			UINT nElementsToRead;
; 100  : 
; 101  : 			nElementsToRead = UINT(__min(nElementsLeft, INT_MAX/sizeof(TYPE)));

  00064	bf ff ff ff 0f	 mov	 edi, 268435455		; 0fffffffH
  00069	3b f7		 cmp	 esi, edi
  0006b	0f 42 fe	 cmovb	 edi, esi

; 102  : 			ar.EnsureRead(pData, nElementsToRead*sizeof(TYPE));

  0006e	8d 1c fd 00 00
	00 00		 lea	 ebx, DWORD PTR [edi*8]
; File C:\Program Files (x86)\Microsoft Visual Studio\2019\Community\VC\Tools\MSVC\14.29.30133\atlmfc\include\afx.inl

; 399  : 	UINT nRead=Read(lpBuf, nCount);

  00075	53		 push	 ebx
  00076	51		 push	 ecx
  00077	8b ca		 mov	 ecx, edx
  00079	e8 00 00 00 00	 call	 ?Read@CArchive@@QAEIPAXI@Z ; CArchive::Read

; 400  : 	if(nRead!=nCount)

  0007e	3b c3		 cmp	 eax, ebx
  00080	75 16		 jne	 SHORT $LN23@SerializeE
; File C:\Program Files (x86)\Microsoft Visual Studio\2019\Community\VC\Tools\MSVC\14.29.30133\atlmfc\include\afxtempl.h

; 97   : 		while( nElementsLeft > 0 )

  00082	8b 4d 0c	 mov	 ecx, DWORD PTR _pElements$[ebp]
  00085	8b 55 08	 mov	 edx, DWORD PTR _ar$[ebp]

; 103  : 			nElementsLeft -= nElementsToRead;
; 104  : 			pData += nElementsToRead;

  00088	03 cb		 add	 ecx, ebx
  0008a	89 4d 0c	 mov	 DWORD PTR _pElements$[ebp], ecx
  0008d	2b f7		 sub	 esi, edi
  0008f	75 d3		 jne	 SHORT $LL7@SerializeE

; 105  : 		}
; 106  : 	}
; 107  : }

  00091	5f		 pop	 edi
  00092	5e		 pop	 esi
  00093	5b		 pop	 ebx
  00094	5d		 pop	 ebp
  00095	c2 0c 00	 ret	 12			; 0000000cH
$LN23@SerializeE:
; File C:\Program Files (x86)\Microsoft Visual Studio\2019\Community\VC\Tools\MSVC\14.29.30133\atlmfc\include\afx.inl

; 402  : 		AfxThrowArchiveException(CArchiveException::endOfFile);

  00098	6a 00		 push	 0
  0009a	6a 03		 push	 3
  0009c	e8 00 00 00 00	 call	 ?AfxThrowArchiveException@@YGXHPBD@Z ; AfxThrowArchiveException
$LN34@SerializeE:
; File C:\Program Files (x86)\Microsoft Visual Studio\2019\Community\VC\Tools\MSVC\14.29.30133\atlmfc\include\afxtempl.h

; 68   : 	ENSURE(nCount == 0 || pElements != NULL);

  000a1	e8 00 00 00 00	 call	 ?AfxThrowInvalidArgException@@YGXXZ ; AfxThrowInvalidArgException
$LN32@SerializeE:
  000a6	cc		 int	 3
??$SerializeElements@VCHorizontalScalePtrData@@@@YGXAAVCArchive@@PAVCHorizontalScalePtrData@@H@Z ENDP ; SerializeElements<CHorizontalScalePtrData>
_TEXT	ENDS
; Function compile flags: /Ogtp
;	COMDAT ??1CDlgVertScaleSet@@UAE@XZ
_TEXT	SEGMENT
??1CDlgVertScaleSet@@UAE@XZ PROC			; CDlgVertScaleSet::~CDlgVertScaleSet, COMDAT
; _this$ = ecx
  00000	56		 push	 esi
  00001	8b f1		 mov	 esi, ecx
  00003	8d 8e 3c 02 00
	00		 lea	 ecx, DWORD PTR [esi+572]
  00009	e8 00 00 00 00	 call	 ??1?$CList@VCVerticalScale@@AAV1@@@UAE@XZ ; CList<CVerticalScale,CVerticalScale &>::~CList<CVerticalScale,CVerticalScale &>
  0000e	8d 8e 24 02 00
	00		 lea	 ecx, DWORD PTR [esi+548]
  00014	ff 15 00 00 00
	00		 call	 DWORD PTR __imp_??1?$CStringT@DV?$StrTraitMFC_DLL@DV?$ChTraitsCRT@D@ATL@@@@@ATL@@QAE@XZ
  0001a	8d 8e 20 02 00
	00		 lea	 ecx, DWORD PTR [esi+544]
  00020	ff 15 00 00 00
	00		 call	 DWORD PTR __imp_??1?$CStringT@DV?$StrTraitMFC_DLL@DV?$ChTraitsCRT@D@ATL@@@@@ATL@@QAE@XZ
  00026	8d 8e 48 01 00
	00		 lea	 ecx, DWORD PTR [esi+328]
  0002c	e8 00 00 00 00	 call	 ??1CButton@@UAE@XZ	; CButton::~CButton
  00031	8d 8e c0 00 00
	00		 lea	 ecx, DWORD PTR [esi+192]
  00037	e8 00 00 00 00	 call	 ??1CButton@@UAE@XZ	; CButton::~CButton
  0003c	8b ce		 mov	 ecx, esi
  0003e	5e		 pop	 esi
  0003f	e9 00 00 00 00	 jmp	 ??1CDialog@@UAE@XZ	; CDialog::~CDialog
??1CDlgVertScaleSet@@UAE@XZ ENDP			; CDlgVertScaleSet::~CDlgVertScaleSet
_TEXT	ENDS
; Function compile flags: /Ogtp
;	COMDAT ??1CDlgHorzScaleSet@@UAE@XZ
_TEXT	SEGMENT
??1CDlgHorzScaleSet@@UAE@XZ PROC			; CDlgHorzScaleSet::~CDlgHorzScaleSet, COMDAT
; _this$ = ecx
  00000	56		 push	 esi
  00001	8b f1		 mov	 esi, ecx
  00003	8d 8e fc 01 00
	00		 lea	 ecx, DWORD PTR [esi+508]
  00009	e8 00 00 00 00	 call	 ??1?$CList@VCHorizontalScale@@AAV1@@@UAE@XZ ; CList<CHorizontalScale,CHorizontalScale &>::~CList<CHorizontalScale,CHorizontalScale &>
  0000e	8d 8e dc 01 00
	00		 lea	 ecx, DWORD PTR [esi+476]
  00014	ff 15 00 00 00
	00		 call	 DWORD PTR __imp_??1?$CStringT@DV?$StrTraitMFC_DLL@DV?$ChTraitsCRT@D@ATL@@@@@ATL@@QAE@XZ
  0001a	8d 8e d8 01 00
	00		 lea	 ecx, DWORD PTR [esi+472]
  00020	ff 15 00 00 00
	00		 call	 DWORD PTR __imp_??1?$CStringT@DV?$StrTraitMFC_DLL@DV?$ChTraitsCRT@D@ATL@@@@@ATL@@QAE@XZ
  00026	8d 8e 48 01 00
	00		 lea	 ecx, DWORD PTR [esi+328]
  0002c	e8 00 00 00 00	 call	 ??1CButton@@UAE@XZ	; CButton::~CButton
  00031	8d 8e c0 00 00
	00		 lea	 ecx, DWORD PTR [esi+192]
  00037	e8 00 00 00 00	 call	 ??1CButton@@UAE@XZ	; CButton::~CButton
  0003c	8b ce		 mov	 ecx, esi
  0003e	5e		 pop	 esi
  0003f	e9 00 00 00 00	 jmp	 ??1CDialog@@UAE@XZ	; CDialog::~CDialog
??1CDlgHorzScaleSet@@UAE@XZ ENDP			; CDlgHorzScaleSet::~CDlgHorzScaleSet
_TEXT	ENDS
; Function compile flags: /Ogtp
;	COMDAT ??1CGraphSearchInfo_IndicatorName@@QAE@XZ
_TEXT	SEGMENT
??1CGraphSearchInfo_IndicatorName@@QAE@XZ PROC		; CGraphSearchInfo_IndicatorName::~CGraphSearchInfo_IndicatorName, COMDAT
; _this$ = ecx
  00000	83 c1 40	 add	 ecx, 64			; 00000040H
  00003	ff 25 00 00 00
	00		 jmp	 DWORD PTR __imp_??1?$CStringT@DV?$StrTraitMFC_DLL@DV?$ChTraitsCRT@D@ATL@@@@@ATL@@QAE@XZ
??1CGraphSearchInfo_IndicatorName@@QAE@XZ ENDP		; CGraphSearchInfo_IndicatorName::~CGraphSearchInfo_IndicatorName
_TEXT	ENDS
; Function compile flags: /Ogtp
; File C:\Program Files (x86)\Microsoft Visual Studio\2019\Community\VC\Tools\MSVC\14.29.30133\atlmfc\include\afx.inl
;	COMDAT ??_G?$CList@VCVerticalScale@@AAV1@@@UAEPAXI@Z
_TEXT	SEGMENT
___flags$ = 8						; size = 4
??_G?$CList@VCVerticalScale@@AAV1@@@UAEPAXI@Z PROC	; CList<CVerticalScale,CVerticalScale &>::`scalar deleting destructor', COMDAT
; _this$ = ecx
  00000	55		 push	 ebp
  00001	8b ec		 mov	 ebp, esp
  00003	56		 push	 esi
  00004	8b f1		 mov	 esi, ecx
  00006	e8 00 00 00 00	 call	 ??1?$CList@VCVerticalScale@@AAV1@@@UAE@XZ ; CList<CVerticalScale,CVerticalScale &>::~CList<CVerticalScale,CVerticalScale &>
  0000b	8b 45 08	 mov	 eax, DWORD PTR ___flags$[ebp]
  0000e	a8 01		 test	 al, 1
  00010	74 1f		 je	 SHORT $LN9@scalar
  00012	a8 04		 test	 al, 4
  00014	75 10		 jne	 SHORT $LN3@scalar

; 112  : 	{ ::operator delete(p); }

  00016	56		 push	 esi
  00017	e8 00 00 00 00	 call	 ??3@YAXPAX@Z		; operator delete
  0001c	83 c4 04	 add	 esp, 4
  0001f	8b c6		 mov	 eax, esi
  00021	5e		 pop	 esi
  00022	5d		 pop	 ebp
  00023	c2 04 00	 ret	 4
$LN3@scalar:
  00026	6a 1c		 push	 28			; 0000001cH
  00028	56		 push	 esi
  00029	e8 00 00 00 00	 call	 ?__global_delete@@YAXPAXI@Z ; __global_delete
  0002e	83 c4 08	 add	 esp, 8
$LN9@scalar:
  00031	8b c6		 mov	 eax, esi
  00033	5e		 pop	 esi
  00034	5d		 pop	 ebp
  00035	c2 04 00	 ret	 4
??_G?$CList@VCVerticalScale@@AAV1@@@UAEPAXI@Z ENDP	; CList<CVerticalScale,CVerticalScale &>::`scalar deleting destructor'
_TEXT	ENDS
; Function compile flags: /Ogtp
; File C:\Program Files (x86)\Microsoft Visual Studio\2019\Community\VC\Tools\MSVC\14.29.30133\atlmfc\include\afxtempl.h
; File C:\Program Files (x86)\Microsoft Visual Studio\2019\Community\VC\Tools\MSVC\14.29.30133\atlmfc\include\afx.inl
; File C:\Program Files (x86)\Microsoft Visual Studio\2019\Community\VC\Tools\MSVC\14.29.30133\atlmfc\include\afxtempl.h
; File C:\Program Files (x86)\Microsoft Visual Studio\2019\Community\VC\Tools\MSVC\14.29.30133\atlmfc\include\afx.inl
; File C:\Program Files (x86)\Microsoft Visual Studio\2019\Community\VC\Tools\MSVC\14.29.30133\atlmfc\include\afxtempl.h
; File C:\Program Files (x86)\Microsoft Visual Studio\2019\Community\VC\Tools\MSVC\14.29.30133\atlmfc\include\afx.inl
; File C:\Program Files (x86)\Microsoft Visual Studio\2019\Community\VC\Tools\MSVC\14.29.30133\atlmfc\include\afxtempl.h
; File C:\Program Files (x86)\Microsoft Visual Studio\2019\Community\VC\Tools\MSVC\14.29.30133\atlmfc\include\afx.inl
; File C:\Program Files (x86)\Microsoft Visual Studio\2019\Community\VC\Tools\MSVC\14.29.30133\atlmfc\include\afxtempl.h
; File C:\Program Files (x86)\Microsoft Visual Studio\2019\Community\VC\Tools\MSVC\14.29.30133\atlmfc\include\afx.inl
; File C:\Program Files (x86)\Microsoft Visual Studio\2019\Community\VC\Tools\MSVC\14.29.30133\atlmfc\include\afxtempl.h
; File C:\Program Files (x86)\Microsoft Visual Studio\2019\Community\VC\Tools\MSVC\14.29.30133\atlmfc\include\afx.inl
; File C:\Program Files (x86)\Microsoft Visual Studio\2019\Community\VC\Tools\MSVC\14.29.30133\atlmfc\include\afxtempl.h
; File C:\Program Files (x86)\Microsoft Visual Studio\2019\Community\VC\Tools\MSVC\14.29.30133\atlmfc\include\afx.inl
; File C:\Program Files (x86)\Microsoft Visual Studio\2019\Community\VC\Tools\MSVC\14.29.30133\atlmfc\include\afxtempl.h
; File C:\Program Files (x86)\Microsoft Visual Studio\2019\Community\VC\Tools\MSVC\14.29.30133\atlmfc\include\afx.inl
; File C:\Program Files (x86)\Microsoft Visual Studio\2019\Community\VC\Tools\MSVC\14.29.30133\atlmfc\include\afxtempl.h
;	COMDAT ?Serialize@?$CList@VCVerticalScale@@AAV1@@@UAEXAAVCArchive@@@Z
_TEXT	SEGMENT
_newData$2 = -116					; size = 88
_nNewCount$1$ = -28					; size = 4
_nCount$1$ = -24					; size = 4
_pData$1$ = -20						; size = 4
_pData$1$ = -20						; size = 4
_pNode$1$ = -20						; size = 4
_nCount$1$ = -16					; size = 4
_nElementsLeft$1$ = -16					; size = 4
_this$1$ = -16						; size = 4
__$EHRec$ = -12						; size = 12
_ar$ = 8						; size = 4
?Serialize@?$CList@VCVerticalScale@@AAV1@@@UAEXAAVCArchive@@@Z PROC ; CList<CVerticalScale,CVerticalScale &>::Serialize, COMDAT
; _this$ = ecx

; 1169 : {

  00000	55		 push	 ebp
  00001	8b ec		 mov	 ebp, esp
  00003	6a ff		 push	 -1
  00005	68 00 00 00 00	 push	 __ehhandler$?Serialize@?$CList@VCVerticalScale@@AAV1@@@UAEXAAVCArchive@@@Z
  0000a	64 a1 00 00 00
	00		 mov	 eax, DWORD PTR fs:0
  00010	50		 push	 eax
  00011	83 ec 68	 sub	 esp, 104		; 00000068H
  00014	53		 push	 ebx
  00015	56		 push	 esi
  00016	57		 push	 edi
  00017	a1 00 00 00 00	 mov	 eax, DWORD PTR ___security_cookie
  0001c	33 c5		 xor	 eax, ebp
  0001e	50		 push	 eax
  0001f	8d 45 f4	 lea	 eax, DWORD PTR __$EHRec$[ebp]
  00022	64 a3 00 00 00
	00		 mov	 DWORD PTR fs:0, eax
  00028	8b d9		 mov	 ebx, ecx
  0002a	89 5d f0	 mov	 DWORD PTR _this$1$[ebp], ebx
; File C:\Program Files (x86)\Microsoft Visual Studio\2019\Community\VC\Tools\MSVC\14.29.30133\atlmfc\include\afx.inl

; 212  : 	{ return (m_nMode & CArchive::load) == 0; }

  0002d	8b 4d 08	 mov	 ecx, DWORD PTR _ar$[ebp]
  00030	8b 41 18	 mov	 eax, DWORD PTR [ecx+24]
  00033	f7 d0		 not	 eax
  00035	a8 01		 test	 al, 1
; File C:\Program Files (x86)\Microsoft Visual Studio\2019\Community\VC\Tools\MSVC\14.29.30133\atlmfc\include\afxtempl.h

; 1174 : 	if (ar.IsStoring())

  00037	0f 84 b2 00 00
	00		 je	 $LN7@Serialize

; 1175 : 	{
; 1176 : 		ar.WriteCount(m_nCount);

  0003d	ff 73 0c	 push	 DWORD PTR [ebx+12]
  00040	e8 00 00 00 00	 call	 ?WriteCount@CArchive@@QAEXK@Z ; CArchive::WriteCount

; 1177 : 		for (CNode* pNode = m_pNodeHead; pNode != NULL; pNode = pNode->pNext)

  00045	8b 43 04	 mov	 eax, DWORD PTR [ebx+4]
  00048	89 45 ec	 mov	 DWORD PTR _pNode$1$[ebp], eax
  0004b	85 c0		 test	 eax, eax
  0004d	0f 84 f5 01 00
	00		 je	 $LN87@Serialize
$LL4@Serialize:

; 1178 : 		{
; 1179 : 			ASSERT(AfxIsValidAddress(pNode, sizeof(CNode)));
; 1180 : 			TYPE* pData;
; 1181 : 			/*
; 1182 : 			 * in some cases the & operator might be overloaded, and we cannot use it to obtain
; 1183 : 			 * the address of a given object.  We then use the following trick to get the address
; 1184 : 			 */
; 1185 : 			pData = reinterpret_cast< TYPE* >( &reinterpret_cast< int& >( static_cast< TYPE& >( pNode->data ) ) );

  00053	8d 70 08	 lea	 esi, DWORD PTR [eax+8]

; 68   : 	ENSURE(nCount == 0 || pElements != NULL);

  00056	85 f6		 test	 esi, esi
  00058	0f 84 07 02 00
	00		 je	 $LN77@Serialize
; File C:\Program Files (x86)\Microsoft Visual Studio\2019\Community\VC\Tools\MSVC\14.29.30133\atlmfc\include\afx.inl

; 212  : 	{ return (m_nMode & CArchive::load) == 0; }

  0005e	8b 4d 08	 mov	 ecx, DWORD PTR _ar$[ebp]
  00061	8b 41 18	 mov	 eax, DWORD PTR [ecx+24]
  00064	f7 d0		 not	 eax
  00066	a8 01		 test	 al, 1
; File C:\Program Files (x86)\Microsoft Visual Studio\2019\Community\VC\Tools\MSVC\14.29.30133\atlmfc\include\afxtempl.h

; 73   : 	if (ar.IsStoring())

  00068	74 2f		 je	 SHORT $LN22@Serialize

; 74   : 	{
; 75   : 		TYPE* pData;
; 76   : 		UINT_PTR nElementsLeft;
; 77   : 
; 78   : 		nElementsLeft = nCount;

  0006a	b8 01 00 00 00	 mov	 eax, 1
  0006f	89 45 f0	 mov	 DWORD PTR _nElementsLeft$1$[ebp], eax
$LL17@Serialize:

; 80   : 		while( nElementsLeft > 0 )
; 81   : 		{
; 82   : 			UINT nElementsToWrite;
; 83   : 
; 84   : 			nElementsToWrite = UINT(__min(nElementsLeft, INT_MAX/sizeof(TYPE)));

  00072	bb 17 5d 74 01	 mov	 ebx, 24403223		; 01745d17H
  00077	3b c3		 cmp	 eax, ebx
  00079	0f 42 d8	 cmovb	 ebx, eax

; 85   : 			ar.Write(pData, nElementsToWrite*sizeof(TYPE));

  0007c	6b fb 58	 imul	 edi, ebx, 88
  0007f	57		 push	 edi
  00080	56		 push	 esi
  00081	e8 00 00 00 00	 call	 ?Write@CArchive@@QAEXPBXI@Z ; CArchive::Write

; 86   : 			nElementsLeft -= nElementsToWrite;

  00086	8b 45 f0	 mov	 eax, DWORD PTR _nElementsLeft$1$[ebp]

; 87   : 			pData += nElementsToWrite;

  00089	03 f7		 add	 esi, edi
  0008b	8b 4d 08	 mov	 ecx, DWORD PTR _ar$[ebp]
  0008e	2b c3		 sub	 eax, ebx
  00090	89 45 f0	 mov	 DWORD PTR _nElementsLeft$1$[ebp], eax
  00093	85 c0		 test	 eax, eax
  00095	75 db		 jne	 SHORT $LL17@Serialize

; 88   : 		}
; 89   : 	}

  00097	eb 32		 jmp	 SHORT $LN2@Serialize
$LN22@Serialize:

; 90   : 	else
; 91   : 	{
; 92   : 		TYPE* pData;
; 93   : 		UINT_PTR nElementsLeft;
; 94   : 
; 95   : 		nElementsLeft = nCount;

  00099	bf 01 00 00 00	 mov	 edi, 1
  0009e	66 90		 npad	 2
$LL19@Serialize:

; 98   : 		{
; 99   : 			UINT nElementsToRead;
; 100  : 
; 101  : 			nElementsToRead = UINT(__min(nElementsLeft, INT_MAX/sizeof(TYPE)));

  000a0	bb 17 5d 74 01	 mov	 ebx, 24403223		; 01745d17H
  000a5	3b fb		 cmp	 edi, ebx
  000a7	0f 42 df	 cmovb	 ebx, edi

; 102  : 			ar.EnsureRead(pData, nElementsToRead*sizeof(TYPE));

  000aa	6b c3 58	 imul	 eax, ebx, 88
; File C:\Program Files (x86)\Microsoft Visual Studio\2019\Community\VC\Tools\MSVC\14.29.30133\atlmfc\include\afx.inl

; 399  : 	UINT nRead=Read(lpBuf, nCount);

  000ad	50		 push	 eax
  000ae	56		 push	 esi
; File C:\Program Files (x86)\Microsoft Visual Studio\2019\Community\VC\Tools\MSVC\14.29.30133\atlmfc\include\afxtempl.h

; 102  : 			ar.EnsureRead(pData, nElementsToRead*sizeof(TYPE));

  000af	89 45 f0	 mov	 DWORD PTR _nCount$1$[ebp], eax
; File C:\Program Files (x86)\Microsoft Visual Studio\2019\Community\VC\Tools\MSVC\14.29.30133\atlmfc\include\afx.inl

; 399  : 	UINT nRead=Read(lpBuf, nCount);

  000b2	e8 00 00 00 00	 call	 ?Read@CArchive@@QAEIPAXI@Z ; CArchive::Read

; 400  : 	if(nRead!=nCount)

  000b7	8b 4d f0	 mov	 ecx, DWORD PTR _nCount$1$[ebp]
  000ba	3b c1		 cmp	 eax, ecx
  000bc	0f 85 9a 01 00
	00		 jne	 $LN76@Serialize
; File C:\Program Files (x86)\Microsoft Visual Studio\2019\Community\VC\Tools\MSVC\14.29.30133\atlmfc\include\afxtempl.h

; 97   : 		while( nElementsLeft > 0 )

  000c2	03 f1		 add	 esi, ecx
  000c4	8b 4d 08	 mov	 ecx, DWORD PTR _ar$[ebp]

; 103  : 			nElementsLeft -= nElementsToRead;

  000c7	2b fb		 sub	 edi, ebx
  000c9	75 d5		 jne	 SHORT $LL19@Serialize
$LN2@Serialize:

; 1177 : 		for (CNode* pNode = m_pNodeHead; pNode != NULL; pNode = pNode->pNext)

  000cb	8b 45 ec	 mov	 eax, DWORD PTR _pNode$1$[ebp]
  000ce	8b 00		 mov	 eax, DWORD PTR [eax]
  000d0	89 45 ec	 mov	 DWORD PTR _pNode$1$[ebp], eax
  000d3	85 c0		 test	 eax, eax
  000d5	0f 85 78 ff ff
	ff		 jne	 $LL4@Serialize

; 1198 : 	}
; 1199 : }

  000db	8b 4d f4	 mov	 ecx, DWORD PTR __$EHRec$[ebp]
  000de	64 89 0d 00 00
	00 00		 mov	 DWORD PTR fs:0, ecx
  000e5	59		 pop	 ecx
  000e6	5f		 pop	 edi
  000e7	5e		 pop	 esi
  000e8	5b		 pop	 ebx
  000e9	8b e5		 mov	 esp, ebp
  000eb	5d		 pop	 ebp
  000ec	c2 04 00	 ret	 4
$LN7@Serialize:

; 1186 : 			SerializeElements<TYPE>(ar, pData, 1);
; 1187 : 		}
; 1188 : 	}
; 1189 : 	else
; 1190 : 	{
; 1191 : 		DWORD_PTR nNewCount = ar.ReadCount();

  000ef	e8 00 00 00 00	 call	 ?ReadCount@CArchive@@QAEKXZ ; CArchive::ReadCount

; 1192 : 		while (nNewCount--)

  000f4	85 c0		 test	 eax, eax
  000f6	0f 84 4c 01 00
	00		 je	 $LN87@Serialize
  000fc	0f 1f 40 00	 npad	 4
$LL5@Serialize:

; 1194 : 			TYPE newData[1];

  00100	ff 35 00 00 00
	00		 push	 DWORD PTR __imp_??1CVerticalScale@@QAE@XZ
  00106	48		 dec	 eax
  00107	ff 35 00 00 00
	00		 push	 DWORD PTR __imp_??0CVerticalScale@@QAE@XZ
  0010d	89 45 e4	 mov	 DWORD PTR _nNewCount$1$[ebp], eax
  00110	8d 45 8c	 lea	 eax, DWORD PTR _newData$2[ebp]
  00113	6a 01		 push	 1
  00115	6a 58		 push	 88			; 00000058H
  00117	50		 push	 eax
  00118	e8 00 00 00 00	 call	 ??_L@YGXPAXIIP6EX0@Z1@Z
; File C:\Program Files (x86)\Microsoft Visual Studio\2019\Community\VC\Tools\MSVC\14.29.30133\atlmfc\include\afx.inl

; 212  : 	{ return (m_nMode & CArchive::load) == 0; }

  0011d	8b 4d 08	 mov	 ecx, DWORD PTR _ar$[ebp]
; File C:\Program Files (x86)\Microsoft Visual Studio\2019\Community\VC\Tools\MSVC\14.29.30133\atlmfc\include\afxtempl.h

; 1194 : 			TYPE newData[1];

  00120	c7 45 fc 00 00
	00 00		 mov	 DWORD PTR __$EHRec$[ebp+8], 0
; File C:\Program Files (x86)\Microsoft Visual Studio\2019\Community\VC\Tools\MSVC\14.29.30133\atlmfc\include\afx.inl

; 212  : 	{ return (m_nMode & CArchive::load) == 0; }

  00127	8b 41 18	 mov	 eax, DWORD PTR [ecx+24]
  0012a	f7 d0		 not	 eax
  0012c	a8 01		 test	 al, 1
; File C:\Program Files (x86)\Microsoft Visual Studio\2019\Community\VC\Tools\MSVC\14.29.30133\atlmfc\include\afxtempl.h

; 73   : 	if (ar.IsStoring())

  0012e	74 38		 je	 SHORT $LN43@Serialize

; 79   : 		pData = pElements;

  00130	8d 45 8c	 lea	 eax, DWORD PTR _newData$2[ebp]
  00133	bb 01 00 00 00	 mov	 ebx, 1
  00138	89 45 ec	 mov	 DWORD PTR _pData$1$[ebp], eax
  0013b	0f 1f 44 00 00	 npad	 5
$LL38@Serialize:

; 80   : 		while( nElementsLeft > 0 )
; 81   : 		{
; 82   : 			UINT nElementsToWrite;
; 83   : 
; 84   : 			nElementsToWrite = UINT(__min(nElementsLeft, INT_MAX/sizeof(TYPE)));

  00140	bf 17 5d 74 01	 mov	 edi, 24403223		; 01745d17H
  00145	3b df		 cmp	 ebx, edi
  00147	0f 42 fb	 cmovb	 edi, ebx

; 85   : 			ar.Write(pData, nElementsToWrite*sizeof(TYPE));

  0014a	6b f7 58	 imul	 esi, edi, 88
  0014d	56		 push	 esi
  0014e	50		 push	 eax
  0014f	e8 00 00 00 00	 call	 ?Write@CArchive@@QAEXPBXI@Z ; CArchive::Write

; 87   : 			pData += nElementsToWrite;

  00154	8b 45 ec	 mov	 eax, DWORD PTR _pData$1$[ebp]
  00157	8b 4d 08	 mov	 ecx, DWORD PTR _ar$[ebp]
  0015a	03 c6		 add	 eax, esi
  0015c	89 45 ec	 mov	 DWORD PTR _pData$1$[ebp], eax
  0015f	2b df		 sub	 ebx, edi
  00161	75 dd		 jne	 SHORT $LL38@Serialize

; 88   : 		}
; 89   : 	}

  00163	8b 5d f0	 mov	 ebx, DWORD PTR _this$1$[ebp]
  00166	eb 3c		 jmp	 SHORT $LN41@Serialize
$LN43@Serialize:

; 96   : 		pData = pElements;

  00168	8d 55 8c	 lea	 edx, DWORD PTR _newData$2[ebp]
  0016b	be 01 00 00 00	 mov	 esi, 1
  00170	89 55 ec	 mov	 DWORD PTR _pData$1$[ebp], edx
$LL40@Serialize:

; 98   : 		{
; 99   : 			UINT nElementsToRead;
; 100  : 
; 101  : 			nElementsToRead = UINT(__min(nElementsLeft, INT_MAX/sizeof(TYPE)));

  00173	bf 17 5d 74 01	 mov	 edi, 24403223		; 01745d17H
  00178	3b f7		 cmp	 esi, edi
  0017a	0f 42 fe	 cmovb	 edi, esi

; 102  : 			ar.EnsureRead(pData, nElementsToRead*sizeof(TYPE));

  0017d	6b c7 58	 imul	 eax, edi, 88
; File C:\Program Files (x86)\Microsoft Visual Studio\2019\Community\VC\Tools\MSVC\14.29.30133\atlmfc\include\afx.inl

; 399  : 	UINT nRead=Read(lpBuf, nCount);

  00180	50		 push	 eax
  00181	52		 push	 edx
; File C:\Program Files (x86)\Microsoft Visual Studio\2019\Community\VC\Tools\MSVC\14.29.30133\atlmfc\include\afxtempl.h

; 102  : 			ar.EnsureRead(pData, nElementsToRead*sizeof(TYPE));

  00182	89 45 e8	 mov	 DWORD PTR _nCount$1$[ebp], eax
; File C:\Program Files (x86)\Microsoft Visual Studio\2019\Community\VC\Tools\MSVC\14.29.30133\atlmfc\include\afx.inl

; 399  : 	UINT nRead=Read(lpBuf, nCount);

  00185	e8 00 00 00 00	 call	 ?Read@CArchive@@QAEIPAXI@Z ; CArchive::Read

; 400  : 	if(nRead!=nCount)

  0018a	8b 4d e8	 mov	 ecx, DWORD PTR _nCount$1$[ebp]
  0018d	3b c1		 cmp	 eax, ecx
  0018f	0f 85 c7 00 00
	00		 jne	 $LN76@Serialize
; File C:\Program Files (x86)\Microsoft Visual Studio\2019\Community\VC\Tools\MSVC\14.29.30133\atlmfc\include\afxtempl.h

; 104  : 			pData += nElementsToRead;

  00195	8b 55 ec	 mov	 edx, DWORD PTR _pData$1$[ebp]
  00198	03 d1		 add	 edx, ecx
  0019a	8b 4d 08	 mov	 ecx, DWORD PTR _ar$[ebp]
  0019d	89 55 ec	 mov	 DWORD PTR _pData$1$[ebp], edx
  001a0	2b f7		 sub	 esi, edi
  001a2	75 cf		 jne	 SHORT $LL40@Serialize
$LN41@Serialize:

; 902  : 	if (m_pNodeFree == NULL)

  001a4	83 7b 10 00	 cmp	 DWORD PTR [ebx+16], 0

; 968  : 	CNode* pNewNode = NewNode(m_pNodeTail, NULL);

  001a8	8b 73 08	 mov	 esi, DWORD PTR [ebx+8]

; 902  : 	if (m_pNodeFree == NULL)

  001ab	75 33		 jne	 SHORT $LN64@Serialize

; 903  : 	{
; 904  : 		// add another block
; 905  : 		CPlex* pNewBlock = CPlex::Create(m_pBlocks, m_nBlockSize,

  001ad	6a 60		 push	 96			; 00000060H
  001af	ff 73 18	 push	 DWORD PTR [ebx+24]
  001b2	8d 43 14	 lea	 eax, DWORD PTR [ebx+20]
  001b5	50		 push	 eax
  001b6	e8 00 00 00 00	 call	 ?Create@CPlex@@SGPAU1@AAPAU1@II@Z ; CPlex::Create

; 906  : 				 sizeof(CNode));
; 907  : 
; 908  : 		// chain them into free list
; 909  : 		CNode* pNode = (CNode*) pNewBlock->data();
; 910  : 		// free in reverse order to make it easier to debug
; 911  : 		pNode += m_nBlockSize - 1;

  001bb	8b 53 18	 mov	 edx, DWORD PTR [ebx+24]
  001be	8d 0c 52	 lea	 ecx, DWORD PTR [edx+edx*2]
  001c1	c1 e1 05	 shl	 ecx, 5
  001c4	83 c1 a8	 add	 ecx, -88		; ffffffa8H
  001c7	03 c8		 add	 ecx, eax

; 912  : 		for (INT_PTR i = m_nBlockSize-1; i >= 0; i--, pNode--)

  001c9	83 c2 ff	 add	 edx, -1
  001cc	78 12		 js	 SHORT $LN64@Serialize
  001ce	66 90		 npad	 2
$LL61@Serialize:

; 913  : 		{
; 914  : 			pNode->pNext = m_pNodeFree;

  001d0	8b 43 10	 mov	 eax, DWORD PTR [ebx+16]
  001d3	89 01		 mov	 DWORD PTR [ecx], eax

; 915  : 			m_pNodeFree = pNode;

  001d5	89 4b 10	 mov	 DWORD PTR [ebx+16], ecx
  001d8	83 e9 60	 sub	 ecx, 96			; 00000060H
  001db	83 ea 01	 sub	 edx, 1
  001de	79 f0		 jns	 SHORT $LL61@Serialize
$LN64@Serialize:

; 916  : 		}
; 917  : 	}
; 918  : 	ENSURE(m_pNodeFree != NULL);  // we must have something

  001e0	8b 7b 10	 mov	 edi, DWORD PTR [ebx+16]
  001e3	85 ff		 test	 edi, edi
  001e5	0f 84 7a 00 00
	00		 je	 $LN77@Serialize

; 919  : 
; 920  : 	CList::CNode* pNode = m_pNodeFree;
; 921  : 	m_pNodeFree = m_pNodeFree->pNext;

  001eb	8b 07		 mov	 eax, DWORD PTR [edi]

; 922  : 	pNode->pPrev = pPrev;
; 923  : 	pNode->pNext = pNext;
; 924  : 	m_nCount++;
; 925  : 	ASSERT(m_nCount > 0);  // make sure we don't overflow
; 926  : 
; 927  : #pragma push_macro("new")
; 928  : #undef new
; 929  : 	::new( (void*)( &pNode->data ) ) TYPE;

  001ed	8d 4f 08	 lea	 ecx, DWORD PTR [edi+8]
  001f0	89 43 10	 mov	 DWORD PTR [ebx+16], eax
  001f3	89 77 04	 mov	 DWORD PTR [edi+4], esi
  001f6	c7 07 00 00 00
	00		 mov	 DWORD PTR [edi], 0
  001fc	ff 43 0c	 inc	 DWORD PTR [ebx+12]
  001ff	ff 15 00 00 00
	00		 call	 DWORD PTR __imp_??0CVerticalScale@@QAE@XZ

; 969  : 	pNewNode->data = newElement;

  00205	8d 45 8c	 lea	 eax, DWORD PTR _newData$2[ebp]
  00208	50		 push	 eax
  00209	8d 4f 08	 lea	 ecx, DWORD PTR [edi+8]
  0020c	ff 15 00 00 00
	00		 call	 DWORD PTR __imp_??4CVerticalScale@@QAEAAV0@ABV0@@Z

; 970  : 	if (m_pNodeTail != NULL)

  00212	8b 43 08	 mov	 eax, DWORD PTR [ebx+8]
  00215	85 c0		 test	 eax, eax
  00217	74 04		 je	 SHORT $LN55@Serialize

; 971  : 		m_pNodeTail->pNext = pNewNode;

  00219	89 38		 mov	 DWORD PTR [eax], edi
  0021b	eb 03		 jmp	 SHORT $LN56@Serialize
$LN55@Serialize:

; 972  : 	else
; 973  : 		m_pNodeHead = pNewNode;

  0021d	89 7b 04	 mov	 DWORD PTR [ebx+4], edi
$LN56@Serialize:

; 1195 : 			SerializeElements<TYPE>(ar, newData, 1);
; 1196 : 			AddTail(newData[0]);
; 1197 : 		}

  00220	ff 35 00 00 00
	00		 push	 DWORD PTR __imp_??1CVerticalScale@@QAE@XZ
  00226	8d 45 8c	 lea	 eax, DWORD PTR _newData$2[ebp]

; 974  : 	m_pNodeTail = pNewNode;

  00229	89 7b 08	 mov	 DWORD PTR [ebx+8], edi

; 1195 : 			SerializeElements<TYPE>(ar, newData, 1);
; 1196 : 			AddTail(newData[0]);
; 1197 : 		}

  0022c	6a 01		 push	 1
  0022e	6a 58		 push	 88			; 00000058H
  00230	50		 push	 eax
  00231	c7 45 fc ff ff
	ff ff		 mov	 DWORD PTR __$EHRec$[ebp+8], -1
  00238	e8 00 00 00 00	 call	 ??_M@YGXPAXIIP6EX0@Z@Z
  0023d	8b 45 e4	 mov	 eax, DWORD PTR _nNewCount$1$[ebp]
  00240	85 c0		 test	 eax, eax
  00242	0f 85 b8 fe ff
	ff		 jne	 $LL5@Serialize
$LN87@Serialize:

; 1198 : 	}
; 1199 : }

  00248	8b 4d f4	 mov	 ecx, DWORD PTR __$EHRec$[ebp]
  0024b	64 89 0d 00 00
	00 00		 mov	 DWORD PTR fs:0, ecx
  00252	59		 pop	 ecx
  00253	5f		 pop	 edi
  00254	5e		 pop	 esi
  00255	5b		 pop	 ebx
  00256	8b e5		 mov	 esp, ebp
  00258	5d		 pop	 ebp
  00259	c2 04 00	 ret	 4
$LN76@Serialize:
  0025c	6a 00		 push	 0
  0025e	6a 03		 push	 3
  00260	e8 00 00 00 00	 call	 ?AfxThrowArchiveException@@YGXHPBD@Z ; AfxThrowArchiveException
$LN77@Serialize:
  00265	e8 00 00 00 00	 call	 ?AfxThrowInvalidArgException@@YGXXZ ; AfxThrowInvalidArgException
$LN107@Serialize:
  0026a	cc		 int	 3
_TEXT	ENDS
;	COMDAT text$x
text$x	SEGMENT
__unwindfunclet$?Serialize@?$CList@VCVerticalScale@@AAV1@@@UAEXAAVCArchive@@@Z$0:
  00000	a1 00 00 00 00	 mov	 eax, DWORD PTR __imp_??1CVerticalScale@@QAE@XZ
  00005	50		 push	 eax
  00006	6a 01		 push	 1
  00008	6a 58		 push	 88			; 00000058H
  0000a	8d 45 8c	 lea	 eax, DWORD PTR _newData$2[ebp]
  0000d	50		 push	 eax
  0000e	e8 00 00 00 00	 call	 ??_M@YGXPAXIIP6EX0@Z@Z
  00013	c3		 ret	 0
  00014	cc		 int	 3
  00015	cc		 int	 3
  00016	cc		 int	 3
  00017	cc		 int	 3
  00018	cc		 int	 3
__ehhandler$?Serialize@?$CList@VCVerticalScale@@AAV1@@@UAEXAAVCArchive@@@Z:
  00019	90		 npad	 1
  0001a	90		 npad	 1
  0001b	8b 54 24 08	 mov	 edx, DWORD PTR [esp+8]
  0001f	8d 42 0c	 lea	 eax, DWORD PTR [edx+12]
  00022	8b 4a 88	 mov	 ecx, DWORD PTR [edx-120]
  00025	33 c8		 xor	 ecx, eax
  00027	e8 00 00 00 00	 call	 @__security_check_cookie@4
  0002c	b8 00 00 00 00	 mov	 eax, OFFSET __ehfuncinfo$?Serialize@?$CList@VCVerticalScale@@AAV1@@@UAEXAAVCArchive@@@Z
  00031	e9 00 00 00 00	 jmp	 ___CxxFrameHandler3
text$x	ENDS
?Serialize@?$CList@VCVerticalScale@@AAV1@@@UAEXAAVCArchive@@@Z ENDP ; CList<CVerticalScale,CVerticalScale &>::Serialize
; Function compile flags: /Ogtp
; File C:\Program Files (x86)\Microsoft Visual Studio\2019\Community\VC\Tools\MSVC\14.29.30133\atlmfc\include\afxtempl.h
;	COMDAT ??1?$CList@VCVerticalScale@@AAV1@@@UAE@XZ
_TEXT	SEGMENT
__$EHRec$ = -12						; size = 12
??1?$CList@VCVerticalScale@@AAV1@@@UAE@XZ PROC		; CList<CVerticalScale,CVerticalScale &>::~CList<CVerticalScale,CVerticalScale &>, COMDAT
; _this$ = ecx

; 878  : {

  00000	55		 push	 ebp
  00001	8b ec		 mov	 ebp, esp
  00003	6a ff		 push	 -1
  00005	68 00 00 00 00	 push	 __ehhandler$??1?$CList@VCVerticalScale@@AAV1@@@UAE@XZ
  0000a	64 a1 00 00 00
	00		 mov	 eax, DWORD PTR fs:0
  00010	50		 push	 eax
  00011	56		 push	 esi
  00012	57		 push	 edi
  00013	a1 00 00 00 00	 mov	 eax, DWORD PTR ___security_cookie
  00018	33 c5		 xor	 eax, ebp
  0001a	50		 push	 eax
  0001b	8d 45 f4	 lea	 eax, DWORD PTR __$EHRec$[ebp]
  0001e	64 a3 00 00 00
	00		 mov	 DWORD PTR fs:0, eax
  00024	8b f9		 mov	 edi, ecx

; 867  : 	for (pNode = m_pNodeHead; pNode != NULL; pNode = pNode->pNext)

  00026	8b 77 04	 mov	 esi, DWORD PTR [edi+4]

; 878  : {

  00029	c7 07 00 00 00
	00		 mov	 DWORD PTR [edi], OFFSET ??_7?$CList@VCVerticalScale@@AAV1@@@6B@

; 867  : 	for (pNode = m_pNodeHead; pNode != NULL; pNode = pNode->pNext)

  0002f	85 f6		 test	 esi, esi
  00031	74 0f		 je	 SHORT $LN5@CList
$LL6@CList:

; 868  : 		pNode->data.~TYPE();

  00033	8d 4e 08	 lea	 ecx, DWORD PTR [esi+8]
  00036	ff 15 00 00 00
	00		 call	 DWORD PTR __imp_??1CVerticalScale@@QAE@XZ

; 867  : 	for (pNode = m_pNodeHead; pNode != NULL; pNode = pNode->pNext)

  0003c	8b 36		 mov	 esi, DWORD PTR [esi]
  0003e	85 f6		 test	 esi, esi
  00040	75 f1		 jne	 SHORT $LL6@CList
$LN5@CList:

; 869  : 
; 870  : 	m_nCount = 0;
; 871  : 	m_pNodeHead = m_pNodeTail = m_pNodeFree = NULL;
; 872  : 	m_pBlocks->FreeDataChain();

  00042	8b 4f 14	 mov	 ecx, DWORD PTR [edi+20]
  00045	c7 47 0c 00 00
	00 00		 mov	 DWORD PTR [edi+12], 0
  0004c	c7 47 10 00 00
	00 00		 mov	 DWORD PTR [edi+16], 0
  00053	c7 47 08 00 00
	00 00		 mov	 DWORD PTR [edi+8], 0
  0005a	c7 47 04 00 00
	00 00		 mov	 DWORD PTR [edi+4], 0
  00061	e8 00 00 00 00	 call	 ?FreeDataChain@CPlex@@QAEXXZ ; CPlex::FreeDataChain

; 873  : 	m_pBlocks = NULL;

  00066	c7 47 14 00 00
	00 00		 mov	 DWORD PTR [edi+20], 0

; 879  : 	RemoveAll();
; 880  : 	ASSERT(m_nCount == 0);
; 881  : }

  0006d	8b 4d f4	 mov	 ecx, DWORD PTR __$EHRec$[ebp]
  00070	64 89 0d 00 00
	00 00		 mov	 DWORD PTR fs:0, ecx
  00077	59		 pop	 ecx
  00078	5f		 pop	 edi
  00079	5e		 pop	 esi
  0007a	8b e5		 mov	 esp, ebp
  0007c	5d		 pop	 ebp
  0007d	c3		 ret	 0
  0007e	cc		 int	 3
  0007f	cc		 int	 3
  00080	cc		 int	 3
  00081	cc		 int	 3
  00082	cc		 int	 3
_TEXT	ENDS
;	COMDAT text$x
text$x	SEGMENT
__ehhandler$??1?$CList@VCVerticalScale@@AAV1@@@UAE@XZ:
  00000	90		 npad	 1
  00001	90		 npad	 1
  00002	8b 54 24 08	 mov	 edx, DWORD PTR [esp+8]
  00006	8d 42 0c	 lea	 eax, DWORD PTR [edx+12]
  00009	8b 4a f4	 mov	 ecx, DWORD PTR [edx-12]
  0000c	33 c8		 xor	 ecx, eax
  0000e	e8 00 00 00 00	 call	 @__security_check_cookie@4
  00013	b8 00 00 00 00	 mov	 eax, OFFSET __ehfuncinfo$??1?$CList@VCVerticalScale@@AAV1@@@UAE@XZ
  00018	e9 00 00 00 00	 jmp	 ___CxxFrameHandler3
text$x	ENDS
??1?$CList@VCVerticalScale@@AAV1@@@UAE@XZ ENDP		; CList<CVerticalScale,CVerticalScale &>::~CList<CVerticalScale,CVerticalScale &>
; Function compile flags: /Ogtp
; File C:\Program Files (x86)\Microsoft Visual Studio\2019\Community\VC\Tools\MSVC\14.29.30133\atlmfc\include\afxtempl.h
;	COMDAT ?NewNode@?$CList@VCVerticalScale@@AAV1@@@IAEPAUCNode@1@PAU21@0@Z
_TEXT	SEGMENT
_pPrev$ = 8						; size = 4
_pNext$ = 12						; size = 4
?NewNode@?$CList@VCVerticalScale@@AAV1@@@IAEPAUCNode@1@PAU21@0@Z PROC ; CList<CVerticalScale,CVerticalScale &>::NewNode, COMDAT
; _this$ = ecx

; 901  : {

  00000	55		 push	 ebp
  00001	8b ec		 mov	 ebp, esp
  00003	56		 push	 esi
  00004	8b f1		 mov	 esi, ecx
  00006	57		 push	 edi

; 902  : 	if (m_pNodeFree == NULL)

  00007	83 7e 10 00	 cmp	 DWORD PTR [esi+16], 0
  0000b	75 34		 jne	 SHORT $LN7@NewNode

; 903  : 	{
; 904  : 		// add another block
; 905  : 		CPlex* pNewBlock = CPlex::Create(m_pBlocks, m_nBlockSize,

  0000d	6a 60		 push	 96			; 00000060H
  0000f	ff 76 18	 push	 DWORD PTR [esi+24]
  00012	8d 46 14	 lea	 eax, DWORD PTR [esi+20]
  00015	50		 push	 eax
  00016	e8 00 00 00 00	 call	 ?Create@CPlex@@SGPAU1@AAPAU1@II@Z ; CPlex::Create

; 906  : 				 sizeof(CNode));
; 907  : 
; 908  : 		// chain them into free list
; 909  : 		CNode* pNode = (CNode*) pNewBlock->data();
; 910  : 		// free in reverse order to make it easier to debug
; 911  : 		pNode += m_nBlockSize - 1;

  0001b	8b 56 18	 mov	 edx, DWORD PTR [esi+24]
  0001e	83 c0 08	 add	 eax, 8
  00021	8d 0c 52	 lea	 ecx, DWORD PTR [edx+edx*2]
  00024	c1 e1 05	 shl	 ecx, 5
  00027	83 c1 a0	 add	 ecx, -96		; ffffffa0H
  0002a	03 c1		 add	 eax, ecx

; 912  : 		for (INT_PTR i = m_nBlockSize-1; i >= 0; i--, pNode--)

  0002c	83 c2 ff	 add	 edx, -1
  0002f	78 10		 js	 SHORT $LN7@NewNode
$LL4@NewNode:

; 913  : 		{
; 914  : 			pNode->pNext = m_pNodeFree;

  00031	8b 4e 10	 mov	 ecx, DWORD PTR [esi+16]
  00034	89 08		 mov	 DWORD PTR [eax], ecx

; 915  : 			m_pNodeFree = pNode;

  00036	89 46 10	 mov	 DWORD PTR [esi+16], eax
  00039	83 e8 60	 sub	 eax, 96			; 00000060H
  0003c	83 ea 01	 sub	 edx, 1
  0003f	79 f0		 jns	 SHORT $LL4@NewNode
$LN7@NewNode:

; 916  : 		}
; 917  : 	}
; 918  : 	ENSURE(m_pNodeFree != NULL);  // we must have something

  00041	8b 7e 10	 mov	 edi, DWORD PTR [esi+16]
  00044	85 ff		 test	 edi, edi
  00046	74 24		 je	 SHORT $LN17@NewNode

; 919  : 
; 920  : 	CList::CNode* pNode = m_pNodeFree;
; 921  : 	m_pNodeFree = m_pNodeFree->pNext;

  00048	8b 07		 mov	 eax, DWORD PTR [edi]

; 922  : 	pNode->pPrev = pPrev;

  0004a	8b 4d 08	 mov	 ecx, DWORD PTR _pPrev$[ebp]
  0004d	89 46 10	 mov	 DWORD PTR [esi+16], eax
  00050	89 4f 04	 mov	 DWORD PTR [edi+4], ecx

; 923  : 	pNode->pNext = pNext;

  00053	8b 4d 0c	 mov	 ecx, DWORD PTR _pNext$[ebp]
  00056	89 0f		 mov	 DWORD PTR [edi], ecx

; 924  : 	m_nCount++;
; 925  : 	ASSERT(m_nCount > 0);  // make sure we don't overflow
; 926  : 
; 927  : #pragma push_macro("new")
; 928  : #undef new
; 929  : 	::new( (void*)( &pNode->data ) ) TYPE;

  00058	8d 4f 08	 lea	 ecx, DWORD PTR [edi+8]
  0005b	ff 46 0c	 inc	 DWORD PTR [esi+12]
  0005e	ff 15 00 00 00
	00		 call	 DWORD PTR __imp_??0CVerticalScale@@QAE@XZ

; 930  : #pragma pop_macro("new")
; 931  : 	return pNode;

  00064	8b c7		 mov	 eax, edi
  00066	5f		 pop	 edi
  00067	5e		 pop	 esi

; 932  : }

  00068	5d		 pop	 ebp
  00069	c2 08 00	 ret	 8
$LN17@NewNode:

; 916  : 		}
; 917  : 	}
; 918  : 	ENSURE(m_pNodeFree != NULL);  // we must have something

  0006c	e8 00 00 00 00	 call	 ?AfxThrowInvalidArgException@@YGXXZ ; AfxThrowInvalidArgException
$LN15@NewNode:
  00071	cc		 int	 3
?NewNode@?$CList@VCVerticalScale@@AAV1@@@IAEPAUCNode@1@PAU21@0@Z ENDP ; CList<CVerticalScale,CVerticalScale &>::NewNode
_TEXT	ENDS
; Function compile flags: /Ogtp
; File C:\Program Files (x86)\Microsoft Visual Studio\2019\Community\VC\Tools\MSVC\14.29.30133\atlmfc\include\afxtempl.h
;	COMDAT ?RemoveAll@?$CList@VCVerticalScale@@AAV1@@@QAEXXZ
_TEXT	SEGMENT
?RemoveAll@?$CList@VCVerticalScale@@AAV1@@@QAEXXZ PROC	; CList<CVerticalScale,CVerticalScale &>::RemoveAll, COMDAT
; _this$ = ecx

; 862  : {

  00000	56		 push	 esi
  00001	57		 push	 edi
  00002	8b f9		 mov	 edi, ecx

; 863  : 	ASSERT_VALID(this);
; 864  : 
; 865  : 	// destroy elements
; 866  : 	CNode* pNode;
; 867  : 	for (pNode = m_pNodeHead; pNode != NULL; pNode = pNode->pNext)

  00004	8b 77 04	 mov	 esi, DWORD PTR [edi+4]
  00007	85 f6		 test	 esi, esi
  00009	74 14		 je	 SHORT $LN3@RemoveAll
  0000b	0f 1f 44 00 00	 npad	 5
$LL4@RemoveAll:

; 868  : 		pNode->data.~TYPE();

  00010	8d 4e 08	 lea	 ecx, DWORD PTR [esi+8]
  00013	ff 15 00 00 00
	00		 call	 DWORD PTR __imp_??1CVerticalScale@@QAE@XZ
  00019	8b 36		 mov	 esi, DWORD PTR [esi]
  0001b	85 f6		 test	 esi, esi
  0001d	75 f1		 jne	 SHORT $LL4@RemoveAll
$LN3@RemoveAll:

; 869  : 
; 870  : 	m_nCount = 0;
; 871  : 	m_pNodeHead = m_pNodeTail = m_pNodeFree = NULL;
; 872  : 	m_pBlocks->FreeDataChain();

  0001f	8b 4f 14	 mov	 ecx, DWORD PTR [edi+20]
  00022	c7 47 0c 00 00
	00 00		 mov	 DWORD PTR [edi+12], 0
  00029	c7 47 10 00 00
	00 00		 mov	 DWORD PTR [edi+16], 0
  00030	c7 47 08 00 00
	00 00		 mov	 DWORD PTR [edi+8], 0
  00037	c7 47 04 00 00
	00 00		 mov	 DWORD PTR [edi+4], 0
  0003e	e8 00 00 00 00	 call	 ?FreeDataChain@CPlex@@QAEXXZ ; CPlex::FreeDataChain

; 873  : 	m_pBlocks = NULL;

  00043	c7 47 14 00 00
	00 00		 mov	 DWORD PTR [edi+20], 0
  0004a	5f		 pop	 edi
  0004b	5e		 pop	 esi

; 874  : }

  0004c	c3		 ret	 0
?RemoveAll@?$CList@VCVerticalScale@@AAV1@@@QAEXXZ ENDP	; CList<CVerticalScale,CVerticalScale &>::RemoveAll
_TEXT	ENDS
; Function compile flags: /Ogtp
; File C:\Program Files (x86)\Microsoft Visual Studio\2019\Community\VC\Tools\MSVC\14.29.30133\atlmfc\include\afxtempl.h
;	COMDAT ?AddTail@?$CList@VCVerticalScale@@AAV1@@@QAEPAU__POSITION@@AAVCVerticalScale@@@Z
_TEXT	SEGMENT
_newElement$ = 8					; size = 4
?AddTail@?$CList@VCVerticalScale@@AAV1@@@QAEPAU__POSITION@@AAVCVerticalScale@@@Z PROC ; CList<CVerticalScale,CVerticalScale &>::AddTail, COMDAT
; _this$ = ecx

; 965  : {

  00000	55		 push	 ebp
  00001	8b ec		 mov	 ebp, esp
  00003	53		 push	 ebx
  00004	56		 push	 esi
  00005	8b f1		 mov	 esi, ecx
  00007	57		 push	 edi

; 902  : 	if (m_pNodeFree == NULL)

  00008	83 7e 10 00	 cmp	 DWORD PTR [esi+16], 0

; 966  : 	ASSERT_VALID(this);
; 967  : 
; 968  : 	CNode* pNewNode = NewNode(m_pNodeTail, NULL);

  0000c	8b 7e 08	 mov	 edi, DWORD PTR [esi+8]

; 902  : 	if (m_pNodeFree == NULL)

  0000f	75 34		 jne	 SHORT $LN11@AddTail

; 903  : 	{
; 904  : 		// add another block
; 905  : 		CPlex* pNewBlock = CPlex::Create(m_pBlocks, m_nBlockSize,

  00011	6a 60		 push	 96			; 00000060H
  00013	ff 76 18	 push	 DWORD PTR [esi+24]
  00016	8d 46 14	 lea	 eax, DWORD PTR [esi+20]
  00019	50		 push	 eax
  0001a	e8 00 00 00 00	 call	 ?Create@CPlex@@SGPAU1@AAPAU1@II@Z ; CPlex::Create

; 906  : 				 sizeof(CNode));
; 907  : 
; 908  : 		// chain them into free list
; 909  : 		CNode* pNode = (CNode*) pNewBlock->data();
; 910  : 		// free in reverse order to make it easier to debug
; 911  : 		pNode += m_nBlockSize - 1;

  0001f	8b 56 18	 mov	 edx, DWORD PTR [esi+24]
  00022	83 c0 08	 add	 eax, 8
  00025	8d 0c 52	 lea	 ecx, DWORD PTR [edx+edx*2]
  00028	c1 e1 05	 shl	 ecx, 5
  0002b	83 c1 a0	 add	 ecx, -96		; ffffffa0H
  0002e	03 c8		 add	 ecx, eax

; 912  : 		for (INT_PTR i = m_nBlockSize-1; i >= 0; i--, pNode--)

  00030	83 c2 ff	 add	 edx, -1
  00033	78 10		 js	 SHORT $LN11@AddTail
$LL8@AddTail:

; 913  : 		{
; 914  : 			pNode->pNext = m_pNodeFree;

  00035	8b 46 10	 mov	 eax, DWORD PTR [esi+16]
  00038	89 01		 mov	 DWORD PTR [ecx], eax

; 915  : 			m_pNodeFree = pNode;

  0003a	89 4e 10	 mov	 DWORD PTR [esi+16], ecx
  0003d	83 e9 60	 sub	 ecx, 96			; 00000060H
  00040	83 ea 01	 sub	 edx, 1
  00043	79 f0		 jns	 SHORT $LL8@AddTail
$LN11@AddTail:

; 916  : 		}
; 917  : 	}
; 918  : 	ENSURE(m_pNodeFree != NULL);  // we must have something

  00045	8b 5e 10	 mov	 ebx, DWORD PTR [esi+16]
  00048	85 db		 test	 ebx, ebx
  0004a	74 4a		 je	 SHORT $LN22@AddTail

; 919  : 
; 920  : 	CList::CNode* pNode = m_pNodeFree;
; 921  : 	m_pNodeFree = m_pNodeFree->pNext;

  0004c	8b 03		 mov	 eax, DWORD PTR [ebx]

; 922  : 	pNode->pPrev = pPrev;
; 923  : 	pNode->pNext = pNext;
; 924  : 	m_nCount++;
; 925  : 	ASSERT(m_nCount > 0);  // make sure we don't overflow
; 926  : 
; 927  : #pragma push_macro("new")
; 928  : #undef new
; 929  : 	::new( (void*)( &pNode->data ) ) TYPE;

  0004e	8d 4b 08	 lea	 ecx, DWORD PTR [ebx+8]
  00051	89 46 10	 mov	 DWORD PTR [esi+16], eax
  00054	89 7b 04	 mov	 DWORD PTR [ebx+4], edi
  00057	c7 03 00 00 00
	00		 mov	 DWORD PTR [ebx], 0
  0005d	ff 46 0c	 inc	 DWORD PTR [esi+12]
  00060	ff 15 00 00 00
	00		 call	 DWORD PTR __imp_??0CVerticalScale@@QAE@XZ

; 969  : 	pNewNode->data = newElement;

  00066	ff 75 08	 push	 DWORD PTR _newElement$[ebp]
  00069	8d 4b 08	 lea	 ecx, DWORD PTR [ebx+8]
  0006c	ff 15 00 00 00
	00		 call	 DWORD PTR __imp_??4CVerticalScale@@QAEAAV0@ABV0@@Z

; 970  : 	if (m_pNodeTail != NULL)

  00072	8b 46 08	 mov	 eax, DWORD PTR [esi+8]
  00075	85 c0		 test	 eax, eax
  00077	74 0e		 je	 SHORT $LN2@AddTail

; 971  : 		m_pNodeTail->pNext = pNewNode;

  00079	89 18		 mov	 DWORD PTR [eax], ebx

; 972  : 	else
; 973  : 		m_pNodeHead = pNewNode;
; 974  : 	m_pNodeTail = pNewNode;
; 975  : 	return (POSITION) pNewNode;

  0007b	8b c3		 mov	 eax, ebx
  0007d	5f		 pop	 edi
  0007e	89 5e 08	 mov	 DWORD PTR [esi+8], ebx
  00081	5e		 pop	 esi
  00082	5b		 pop	 ebx

; 976  : }

  00083	5d		 pop	 ebp
  00084	c2 04 00	 ret	 4
$LN2@AddTail:

; 972  : 	else
; 973  : 		m_pNodeHead = pNewNode;
; 974  : 	m_pNodeTail = pNewNode;
; 975  : 	return (POSITION) pNewNode;

  00087	5f		 pop	 edi
  00088	89 5e 04	 mov	 DWORD PTR [esi+4], ebx
  0008b	8b c3		 mov	 eax, ebx
  0008d	89 5e 08	 mov	 DWORD PTR [esi+8], ebx
  00090	5e		 pop	 esi
  00091	5b		 pop	 ebx

; 976  : }

  00092	5d		 pop	 ebp
  00093	c2 04 00	 ret	 4
$LN22@AddTail:

; 918  : 	ENSURE(m_pNodeFree != NULL);  // we must have something

  00096	e8 00 00 00 00	 call	 ?AfxThrowInvalidArgException@@YGXXZ ; AfxThrowInvalidArgException
$LN20@AddTail:
  0009b	cc		 int	 3
?AddTail@?$CList@VCVerticalScale@@AAV1@@@QAEPAU__POSITION@@AAVCVerticalScale@@@Z ENDP ; CList<CVerticalScale,CVerticalScale &>::AddTail
_TEXT	ENDS
; Function compile flags: /Ogtp
;	COMDAT ??1CVerticalScalePtrDataList@@QAE@XZ
_TEXT	SEGMENT
??1CVerticalScalePtrDataList@@QAE@XZ PROC		; CVerticalScalePtrDataList::~CVerticalScalePtrDataList, COMDAT
; _this$ = ecx
  00000	83 c1 14	 add	 ecx, 20			; 00000014H
  00003	e9 00 00 00 00	 jmp	 ??1?$CList@VCVerticalScalePtrData@@AAV1@@@UAE@XZ ; CList<CVerticalScalePtrData,CVerticalScalePtrData &>::~CList<CVerticalScalePtrData,CVerticalScalePtrData &>
??1CVerticalScalePtrDataList@@QAE@XZ ENDP		; CVerticalScalePtrDataList::~CVerticalScalePtrDataList
_TEXT	ENDS
; Function compile flags: /Ogtp
; File C:\Program Files (x86)\Microsoft Visual Studio\2019\Community\VC\Tools\MSVC\14.29.30133\atlmfc\include\afx.inl
;	COMDAT ??_G?$CList@VCVerticalScalePtrData@@AAV1@@@UAEPAXI@Z
_TEXT	SEGMENT
___flags$ = 8						; size = 4
??_G?$CList@VCVerticalScalePtrData@@AAV1@@@UAEPAXI@Z PROC ; CList<CVerticalScalePtrData,CVerticalScalePtrData &>::`scalar deleting destructor', COMDAT
; _this$ = ecx
  00000	55		 push	 ebp
  00001	8b ec		 mov	 ebp, esp
  00003	56		 push	 esi
  00004	8b f1		 mov	 esi, ecx
  00006	e8 00 00 00 00	 call	 ??1?$CList@VCVerticalScalePtrData@@AAV1@@@UAE@XZ ; CList<CVerticalScalePtrData,CVerticalScalePtrData &>::~CList<CVerticalScalePtrData,CVerticalScalePtrData &>
  0000b	8b 45 08	 mov	 eax, DWORD PTR ___flags$[ebp]
  0000e	a8 01		 test	 al, 1
  00010	74 1f		 je	 SHORT $LN9@scalar
  00012	a8 04		 test	 al, 4
  00014	75 10		 jne	 SHORT $LN3@scalar

; 112  : 	{ ::operator delete(p); }

  00016	56		 push	 esi
  00017	e8 00 00 00 00	 call	 ??3@YAXPAX@Z		; operator delete
  0001c	83 c4 04	 add	 esp, 4
  0001f	8b c6		 mov	 eax, esi
  00021	5e		 pop	 esi
  00022	5d		 pop	 ebp
  00023	c2 04 00	 ret	 4
$LN3@scalar:
  00026	6a 1c		 push	 28			; 0000001cH
  00028	56		 push	 esi
  00029	e8 00 00 00 00	 call	 ?__global_delete@@YAXPAXI@Z ; __global_delete
  0002e	83 c4 08	 add	 esp, 8
$LN9@scalar:
  00031	8b c6		 mov	 eax, esi
  00033	5e		 pop	 esi
  00034	5d		 pop	 ebp
  00035	c2 04 00	 ret	 4
??_G?$CList@VCVerticalScalePtrData@@AAV1@@@UAEPAXI@Z ENDP ; CList<CVerticalScalePtrData,CVerticalScalePtrData &>::`scalar deleting destructor'
_TEXT	ENDS
; Function compile flags: /Ogtp
; File C:\Program Files (x86)\Microsoft Visual Studio\2019\Community\VC\Tools\MSVC\14.29.30133\atlmfc\include\afxtempl.h
; File C:\Program Files (x86)\Microsoft Visual Studio\2019\Community\VC\Tools\MSVC\14.29.30133\atlmfc\include\afx.inl
; File C:\Program Files (x86)\Microsoft Visual Studio\2019\Community\VC\Tools\MSVC\14.29.30133\atlmfc\include\afxtempl.h
; File C:\Program Files (x86)\Microsoft Visual Studio\2019\Community\VC\Tools\MSVC\14.29.30133\atlmfc\include\afx.inl
; File C:\Program Files (x86)\Microsoft Visual Studio\2019\Community\VC\Tools\MSVC\14.29.30133\atlmfc\include\afxtempl.h
; File C:\Program Files (x86)\Microsoft Visual Studio\2019\Community\VC\Tools\MSVC\14.29.30133\atlmfc\include\afx.inl
; File C:\Program Files (x86)\Microsoft Visual Studio\2019\Community\VC\Tools\MSVC\14.29.30133\atlmfc\include\afxtempl.h
; File C:\Program Files (x86)\Microsoft Visual Studio\2019\Community\VC\Tools\MSVC\14.29.30133\atlmfc\include\afx.inl
; File C:\Program Files (x86)\Microsoft Visual Studio\2019\Community\VC\Tools\MSVC\14.29.30133\atlmfc\include\afxtempl.h
; File C:\Program Files (x86)\Microsoft Visual Studio\2019\Community\VC\Tools\MSVC\14.29.30133\atlmfc\include\afx.inl
; File C:\Program Files (x86)\Microsoft Visual Studio\2019\Community\VC\Tools\MSVC\14.29.30133\atlmfc\include\afxtempl.h
; File C:\Program Files (x86)\Microsoft Visual Studio\2019\Community\VC\Tools\MSVC\14.29.30133\atlmfc\include\afx.inl
; File C:\Program Files (x86)\Microsoft Visual Studio\2019\Community\VC\Tools\MSVC\14.29.30133\atlmfc\include\afxtempl.h
; File C:\Program Files (x86)\Microsoft Visual Studio\2019\Community\VC\Tools\MSVC\14.29.30133\atlmfc\include\afx.inl
; File C:\Program Files (x86)\Microsoft Visual Studio\2019\Community\VC\Tools\MSVC\14.29.30133\atlmfc\include\afxtempl.h
;	COMDAT ?Serialize@?$CList@VCVerticalScalePtrData@@AAV1@@@UAEXAAVCArchive@@@Z
_TEXT	SEGMENT
_newData$2 = -36					; size = 12
_nNewCount$1$ = -24					; size = 4
_pData$1$ = -20						; size = 4
_pData$1$ = -20						; size = 4
_pNode$1$ = -20						; size = 4
_nCount$1$ = -16					; size = 4
_nElementsLeft$1$ = -16					; size = 4
_this$1$ = -16						; size = 4
__$EHRec$ = -12						; size = 12
_ar$ = 8						; size = 4
?Serialize@?$CList@VCVerticalScalePtrData@@AAV1@@@UAEXAAVCArchive@@@Z PROC ; CList<CVerticalScalePtrData,CVerticalScalePtrData &>::Serialize, COMDAT
; _this$ = ecx

; 1169 : {

  00000	55		 push	 ebp
  00001	8b ec		 mov	 ebp, esp
  00003	6a ff		 push	 -1
  00005	68 00 00 00 00	 push	 __ehhandler$?Serialize@?$CList@VCVerticalScalePtrData@@AAV1@@@UAEXAAVCArchive@@@Z
  0000a	64 a1 00 00 00
	00		 mov	 eax, DWORD PTR fs:0
  00010	50		 push	 eax
  00011	83 ec 18	 sub	 esp, 24			; 00000018H
  00014	53		 push	 ebx
  00015	56		 push	 esi
  00016	57		 push	 edi
  00017	a1 00 00 00 00	 mov	 eax, DWORD PTR ___security_cookie
  0001c	33 c5		 xor	 eax, ebp
  0001e	50		 push	 eax
  0001f	8d 45 f4	 lea	 eax, DWORD PTR __$EHRec$[ebp]
  00022	64 a3 00 00 00
	00		 mov	 DWORD PTR fs:0, eax
  00028	8b d9		 mov	 ebx, ecx
  0002a	89 5d f0	 mov	 DWORD PTR _this$1$[ebp], ebx
; File C:\Program Files (x86)\Microsoft Visual Studio\2019\Community\VC\Tools\MSVC\14.29.30133\atlmfc\include\afx.inl

; 212  : 	{ return (m_nMode & CArchive::load) == 0; }

  0002d	8b 4d 08	 mov	 ecx, DWORD PTR _ar$[ebp]
  00030	8b 41 18	 mov	 eax, DWORD PTR [ecx+24]
  00033	f7 d0		 not	 eax
  00035	a8 01		 test	 al, 1
; File C:\Program Files (x86)\Microsoft Visual Studio\2019\Community\VC\Tools\MSVC\14.29.30133\atlmfc\include\afxtempl.h

; 1174 : 	if (ar.IsStoring())

  00037	0f 84 b6 00 00
	00		 je	 $LN7@Serialize

; 1175 : 	{
; 1176 : 		ar.WriteCount(m_nCount);

  0003d	ff 73 0c	 push	 DWORD PTR [ebx+12]
  00040	e8 00 00 00 00	 call	 ?WriteCount@CArchive@@QAEXK@Z ; CArchive::WriteCount

; 1177 : 		for (CNode* pNode = m_pNodeHead; pNode != NULL; pNode = pNode->pNext)

  00045	8b 43 04	 mov	 eax, DWORD PTR [ebx+4]
  00048	89 45 ec	 mov	 DWORD PTR _pNode$1$[ebp], eax
  0004b	85 c0		 test	 eax, eax
  0004d	0f 84 ee 01 00
	00		 je	 $LN87@Serialize
$LL4@Serialize:

; 1178 : 		{
; 1179 : 			ASSERT(AfxIsValidAddress(pNode, sizeof(CNode)));
; 1180 : 			TYPE* pData;
; 1181 : 			/*
; 1182 : 			 * in some cases the & operator might be overloaded, and we cannot use it to obtain
; 1183 : 			 * the address of a given object.  We then use the following trick to get the address
; 1184 : 			 */
; 1185 : 			pData = reinterpret_cast< TYPE* >( &reinterpret_cast< int& >( static_cast< TYPE& >( pNode->data ) ) );

  00053	8d 70 08	 lea	 esi, DWORD PTR [eax+8]

; 68   : 	ENSURE(nCount == 0 || pElements != NULL);

  00056	85 f6		 test	 esi, esi
  00058	0f 84 00 02 00
	00		 je	 $LN77@Serialize
; File C:\Program Files (x86)\Microsoft Visual Studio\2019\Community\VC\Tools\MSVC\14.29.30133\atlmfc\include\afx.inl

; 212  : 	{ return (m_nMode & CArchive::load) == 0; }

  0005e	8b 4d 08	 mov	 ecx, DWORD PTR _ar$[ebp]
  00061	8b 41 18	 mov	 eax, DWORD PTR [ecx+24]
  00064	f7 d0		 not	 eax
  00066	a8 01		 test	 al, 1
; File C:\Program Files (x86)\Microsoft Visual Studio\2019\Community\VC\Tools\MSVC\14.29.30133\atlmfc\include\afxtempl.h

; 73   : 	if (ar.IsStoring())

  00068	74 32		 je	 SHORT $LN22@Serialize

; 74   : 	{
; 75   : 		TYPE* pData;
; 76   : 		UINT_PTR nElementsLeft;
; 77   : 
; 78   : 		nElementsLeft = nCount;

  0006a	b8 01 00 00 00	 mov	 eax, 1
  0006f	89 45 f0	 mov	 DWORD PTR _nElementsLeft$1$[ebp], eax
$LL17@Serialize:

; 79   : 		pData = pElements;
; 80   : 		while( nElementsLeft > 0 )
; 81   : 		{
; 82   : 			UINT nElementsToWrite;
; 83   : 
; 84   : 			nElementsToWrite = UINT(__min(nElementsLeft, INT_MAX/sizeof(TYPE)));

  00072	bb aa aa aa 0a	 mov	 ebx, 178956970		; 0aaaaaaaH
  00077	3b c3		 cmp	 eax, ebx
  00079	0f 42 d8	 cmovb	 ebx, eax

; 85   : 			ar.Write(pData, nElementsToWrite*sizeof(TYPE));

  0007c	8d 3c 5b	 lea	 edi, DWORD PTR [ebx+ebx*2]
  0007f	c1 e7 02	 shl	 edi, 2
  00082	57		 push	 edi
  00083	56		 push	 esi
  00084	e8 00 00 00 00	 call	 ?Write@CArchive@@QAEXPBXI@Z ; CArchive::Write

; 86   : 			nElementsLeft -= nElementsToWrite;

  00089	8b 45 f0	 mov	 eax, DWORD PTR _nElementsLeft$1$[ebp]

; 87   : 			pData += nElementsToWrite;

  0008c	03 f7		 add	 esi, edi
  0008e	8b 4d 08	 mov	 ecx, DWORD PTR _ar$[ebp]
  00091	2b c3		 sub	 eax, ebx
  00093	89 45 f0	 mov	 DWORD PTR _nElementsLeft$1$[ebp], eax
  00096	85 c0		 test	 eax, eax
  00098	75 d8		 jne	 SHORT $LL17@Serialize

; 88   : 		}
; 89   : 	}

  0009a	eb 33		 jmp	 SHORT $LN2@Serialize
$LN22@Serialize:

; 90   : 	else
; 91   : 	{
; 92   : 		TYPE* pData;
; 93   : 		UINT_PTR nElementsLeft;
; 94   : 
; 95   : 		nElementsLeft = nCount;

  0009c	bf 01 00 00 00	 mov	 edi, 1
$LL19@Serialize:

; 98   : 		{
; 99   : 			UINT nElementsToRead;
; 100  : 
; 101  : 			nElementsToRead = UINT(__min(nElementsLeft, INT_MAX/sizeof(TYPE)));

  000a1	bb aa aa aa 0a	 mov	 ebx, 178956970		; 0aaaaaaaH
  000a6	3b fb		 cmp	 edi, ebx
  000a8	0f 42 df	 cmovb	 ebx, edi

; 102  : 			ar.EnsureRead(pData, nElementsToRead*sizeof(TYPE));

  000ab	8d 04 5b	 lea	 eax, DWORD PTR [ebx+ebx*2]
  000ae	c1 e0 02	 shl	 eax, 2
; File C:\Program Files (x86)\Microsoft Visual Studio\2019\Community\VC\Tools\MSVC\14.29.30133\atlmfc\include\afx.inl

; 399  : 	UINT nRead=Read(lpBuf, nCount);

  000b1	50		 push	 eax
  000b2	56		 push	 esi
; File C:\Program Files (x86)\Microsoft Visual Studio\2019\Community\VC\Tools\MSVC\14.29.30133\atlmfc\include\afxtempl.h

; 102  : 			ar.EnsureRead(pData, nElementsToRead*sizeof(TYPE));

  000b3	89 45 f0	 mov	 DWORD PTR _nCount$1$[ebp], eax
; File C:\Program Files (x86)\Microsoft Visual Studio\2019\Community\VC\Tools\MSVC\14.29.30133\atlmfc\include\afx.inl

; 399  : 	UINT nRead=Read(lpBuf, nCount);

  000b6	e8 00 00 00 00	 call	 ?Read@CArchive@@QAEIPAXI@Z ; CArchive::Read

; 400  : 	if(nRead!=nCount)

  000bb	8b 4d f0	 mov	 ecx, DWORD PTR _nCount$1$[ebp]
  000be	3b c1		 cmp	 eax, ecx
  000c0	0f 85 8f 01 00
	00		 jne	 $LN76@Serialize
; File C:\Program Files (x86)\Microsoft Visual Studio\2019\Community\VC\Tools\MSVC\14.29.30133\atlmfc\include\afxtempl.h

; 97   : 		while( nElementsLeft > 0 )

  000c6	03 f1		 add	 esi, ecx
  000c8	8b 4d 08	 mov	 ecx, DWORD PTR _ar$[ebp]

; 103  : 			nElementsLeft -= nElementsToRead;

  000cb	2b fb		 sub	 edi, ebx
  000cd	75 d2		 jne	 SHORT $LL19@Serialize
$LN2@Serialize:

; 1177 : 		for (CNode* pNode = m_pNodeHead; pNode != NULL; pNode = pNode->pNext)

  000cf	8b 45 ec	 mov	 eax, DWORD PTR _pNode$1$[ebp]
  000d2	8b 00		 mov	 eax, DWORD PTR [eax]
  000d4	89 45 ec	 mov	 DWORD PTR _pNode$1$[ebp], eax
  000d7	85 c0		 test	 eax, eax
  000d9	0f 85 74 ff ff
	ff		 jne	 $LL4@Serialize

; 1198 : 	}
; 1199 : }

  000df	8b 4d f4	 mov	 ecx, DWORD PTR __$EHRec$[ebp]
  000e2	64 89 0d 00 00
	00 00		 mov	 DWORD PTR fs:0, ecx
  000e9	59		 pop	 ecx
  000ea	5f		 pop	 edi
  000eb	5e		 pop	 esi
  000ec	5b		 pop	 ebx
  000ed	8b e5		 mov	 esp, ebp
  000ef	5d		 pop	 ebp
  000f0	c2 04 00	 ret	 4
$LN7@Serialize:

; 1186 : 			SerializeElements<TYPE>(ar, pData, 1);
; 1187 : 		}
; 1188 : 	}
; 1189 : 	else
; 1190 : 	{
; 1191 : 		DWORD_PTR nNewCount = ar.ReadCount();

  000f3	e8 00 00 00 00	 call	 ?ReadCount@CArchive@@QAEKXZ ; CArchive::ReadCount

; 1192 : 		while (nNewCount--)

  000f8	85 c0		 test	 eax, eax
  000fa	0f 84 41 01 00
	00		 je	 $LN87@Serialize
$LL5@Serialize:

; 1194 : 			TYPE newData[1];

  00100	68 00 00 00 00	 push	 OFFSET ??1CVerticalScalePtrData@@QAE@XZ
  00105	68 00 00 00 00	 push	 OFFSET ??0CVerticalScalePtrData@@QAE@XZ ; CVerticalScalePtrData::CVerticalScalePtrData
  0010a	48		 dec	 eax
  0010b	6a 01		 push	 1
  0010d	89 45 e8	 mov	 DWORD PTR _nNewCount$1$[ebp], eax
  00110	8d 45 dc	 lea	 eax, DWORD PTR _newData$2[ebp]
  00113	6a 0c		 push	 12			; 0000000cH
  00115	50		 push	 eax
  00116	e8 00 00 00 00	 call	 ??_L@YGXPAXIIP6EX0@Z1@Z
; File C:\Program Files (x86)\Microsoft Visual Studio\2019\Community\VC\Tools\MSVC\14.29.30133\atlmfc\include\afx.inl

; 212  : 	{ return (m_nMode & CArchive::load) == 0; }

  0011b	8b 4d 08	 mov	 ecx, DWORD PTR _ar$[ebp]
; File C:\Program Files (x86)\Microsoft Visual Studio\2019\Community\VC\Tools\MSVC\14.29.30133\atlmfc\include\afxtempl.h

; 1194 : 			TYPE newData[1];

  0011e	c7 45 fc 00 00
	00 00		 mov	 DWORD PTR __$EHRec$[ebp+8], 0
; File C:\Program Files (x86)\Microsoft Visual Studio\2019\Community\VC\Tools\MSVC\14.29.30133\atlmfc\include\afx.inl

; 212  : 	{ return (m_nMode & CArchive::load) == 0; }

  00125	8b 41 18	 mov	 eax, DWORD PTR [ecx+24]
  00128	f7 d0		 not	 eax
  0012a	a8 01		 test	 al, 1
; File C:\Program Files (x86)\Microsoft Visual Studio\2019\Community\VC\Tools\MSVC\14.29.30133\atlmfc\include\afxtempl.h

; 73   : 	if (ar.IsStoring())

  0012c	8d 45 dc	 lea	 eax, DWORD PTR _newData$2[ebp]
  0012f	89 45 ec	 mov	 DWORD PTR _pData$1$[ebp], eax
  00132	74 34		 je	 SHORT $LN43@Serialize

; 74   : 	{
; 75   : 		TYPE* pData;
; 76   : 		UINT_PTR nElementsLeft;
; 77   : 
; 78   : 		nElementsLeft = nCount;

  00134	bb 01 00 00 00	 mov	 ebx, 1
  00139	0f 1f 80 00 00
	00 00		 npad	 7
$LL38@Serialize:

; 79   : 		pData = pElements;
; 80   : 		while( nElementsLeft > 0 )
; 81   : 		{
; 82   : 			UINT nElementsToWrite;
; 83   : 
; 84   : 			nElementsToWrite = UINT(__min(nElementsLeft, INT_MAX/sizeof(TYPE)));

  00140	bf aa aa aa 0a	 mov	 edi, 178956970		; 0aaaaaaaH
  00145	3b df		 cmp	 ebx, edi
  00147	0f 42 fb	 cmovb	 edi, ebx

; 85   : 			ar.Write(pData, nElementsToWrite*sizeof(TYPE));

  0014a	8d 34 7f	 lea	 esi, DWORD PTR [edi+edi*2]
  0014d	c1 e6 02	 shl	 esi, 2
  00150	56		 push	 esi
  00151	50		 push	 eax
  00152	e8 00 00 00 00	 call	 ?Write@CArchive@@QAEXPBXI@Z ; CArchive::Write

; 87   : 			pData += nElementsToWrite;

  00157	8b 45 ec	 mov	 eax, DWORD PTR _pData$1$[ebp]
  0015a	8b 4d 08	 mov	 ecx, DWORD PTR _ar$[ebp]
  0015d	03 c6		 add	 eax, esi
  0015f	89 45 ec	 mov	 DWORD PTR _pData$1$[ebp], eax
  00162	2b df		 sub	 ebx, edi
  00164	75 da		 jne	 SHORT $LL38@Serialize

; 88   : 		}
; 89   : 	}

  00166	eb 36		 jmp	 SHORT $LN41@Serialize
$LN43@Serialize:

; 90   : 	else
; 91   : 	{
; 92   : 		TYPE* pData;
; 93   : 		UINT_PTR nElementsLeft;
; 94   : 
; 95   : 		nElementsLeft = nCount;

  00168	be 01 00 00 00	 mov	 esi, 1
  0016d	0f 1f 00	 npad	 3
$LL40@Serialize:

; 98   : 		{
; 99   : 			UINT nElementsToRead;
; 100  : 
; 101  : 			nElementsToRead = UINT(__min(nElementsLeft, INT_MAX/sizeof(TYPE)));

  00170	bf aa aa aa 0a	 mov	 edi, 178956970		; 0aaaaaaaH
  00175	3b f7		 cmp	 esi, edi
  00177	0f 42 fe	 cmovb	 edi, esi

; 102  : 			ar.EnsureRead(pData, nElementsToRead*sizeof(TYPE));

  0017a	8d 1c 7f	 lea	 ebx, DWORD PTR [edi+edi*2]
  0017d	c1 e3 02	 shl	 ebx, 2
; File C:\Program Files (x86)\Microsoft Visual Studio\2019\Community\VC\Tools\MSVC\14.29.30133\atlmfc\include\afx.inl

; 399  : 	UINT nRead=Read(lpBuf, nCount);

  00180	53		 push	 ebx
  00181	50		 push	 eax
  00182	e8 00 00 00 00	 call	 ?Read@CArchive@@QAEIPAXI@Z ; CArchive::Read

; 400  : 	if(nRead!=nCount)

  00187	3b c3		 cmp	 eax, ebx
  00189	0f 85 c6 00 00
	00		 jne	 $LN76@Serialize
; File C:\Program Files (x86)\Microsoft Visual Studio\2019\Community\VC\Tools\MSVC\14.29.30133\atlmfc\include\afxtempl.h

; 97   : 		while( nElementsLeft > 0 )

  0018f	8b 45 ec	 mov	 eax, DWORD PTR _pData$1$[ebp]
  00192	8b 4d 08	 mov	 ecx, DWORD PTR _ar$[ebp]

; 104  : 			pData += nElementsToRead;

  00195	03 c3		 add	 eax, ebx
  00197	89 45 ec	 mov	 DWORD PTR _pData$1$[ebp], eax
  0019a	2b f7		 sub	 esi, edi
  0019c	75 d2		 jne	 SHORT $LL40@Serialize
$LN41@Serialize:

; 968  : 	CNode* pNewNode = NewNode(m_pNodeTail, NULL);

  0019e	8b 5d f0	 mov	 ebx, DWORD PTR _this$1$[ebp]

; 902  : 	if (m_pNodeFree == NULL)

  001a1	83 7b 10 00	 cmp	 DWORD PTR [ebx+16], 0

; 968  : 	CNode* pNewNode = NewNode(m_pNodeTail, NULL);

  001a5	8b 73 08	 mov	 esi, DWORD PTR [ebx+8]

; 902  : 	if (m_pNodeFree == NULL)

  001a8	75 36		 jne	 SHORT $LN64@Serialize

; 903  : 	{
; 904  : 		// add another block
; 905  : 		CPlex* pNewBlock = CPlex::Create(m_pBlocks, m_nBlockSize,

  001aa	6a 14		 push	 20			; 00000014H
  001ac	ff 73 18	 push	 DWORD PTR [ebx+24]
  001af	8d 43 14	 lea	 eax, DWORD PTR [ebx+20]
  001b2	50		 push	 eax
  001b3	e8 00 00 00 00	 call	 ?Create@CPlex@@SGPAU1@AAPAU1@II@Z ; CPlex::Create

; 906  : 				 sizeof(CNode));
; 907  : 
; 908  : 		// chain them into free list
; 909  : 		CNode* pNode = (CNode*) pNewBlock->data();
; 910  : 		// free in reverse order to make it easier to debug
; 911  : 		pNode += m_nBlockSize - 1;

  001b8	8b 53 18	 mov	 edx, DWORD PTR [ebx+24]
  001bb	8d 0c 95 fd ff
	ff ff		 lea	 ecx, DWORD PTR [edx*4-3]
  001c2	03 ca		 add	 ecx, edx

; 912  : 		for (INT_PTR i = m_nBlockSize-1; i >= 0; i--, pNode--)

  001c4	83 c2 ff	 add	 edx, -1
  001c7	8d 0c 88	 lea	 ecx, DWORD PTR [eax+ecx*4]
  001ca	78 14		 js	 SHORT $LN64@Serialize
  001cc	0f 1f 40 00	 npad	 4
$LL61@Serialize:

; 913  : 		{
; 914  : 			pNode->pNext = m_pNodeFree;

  001d0	8b 43 10	 mov	 eax, DWORD PTR [ebx+16]
  001d3	89 01		 mov	 DWORD PTR [ecx], eax

; 915  : 			m_pNodeFree = pNode;

  001d5	89 4b 10	 mov	 DWORD PTR [ebx+16], ecx
  001d8	83 e9 14	 sub	 ecx, 20			; 00000014H
  001db	83 ea 01	 sub	 edx, 1
  001de	79 f0		 jns	 SHORT $LL61@Serialize
$LN64@Serialize:

; 916  : 		}
; 917  : 	}
; 918  : 	ENSURE(m_pNodeFree != NULL);  // we must have something

  001e0	8b 7b 10	 mov	 edi, DWORD PTR [ebx+16]
  001e3	85 ff		 test	 edi, edi
  001e5	74 77		 je	 SHORT $LN77@Serialize

; 919  : 
; 920  : 	CList::CNode* pNode = m_pNodeFree;
; 921  : 	m_pNodeFree = m_pNodeFree->pNext;

  001e7	8b 07		 mov	 eax, DWORD PTR [edi]

; 922  : 	pNode->pPrev = pPrev;
; 923  : 	pNode->pNext = pNext;
; 924  : 	m_nCount++;
; 925  : 	ASSERT(m_nCount > 0);  // make sure we don't overflow
; 926  : 
; 927  : #pragma push_macro("new")
; 928  : #undef new
; 929  : 	::new( (void*)( &pNode->data ) ) TYPE;

  001e9	8d 4f 08	 lea	 ecx, DWORD PTR [edi+8]
  001ec	89 43 10	 mov	 DWORD PTR [ebx+16], eax
  001ef	89 77 04	 mov	 DWORD PTR [edi+4], esi
  001f2	c7 07 00 00 00
	00		 mov	 DWORD PTR [edi], 0
  001f8	ff 43 0c	 inc	 DWORD PTR [ebx+12]
  001fb	e8 00 00 00 00	 call	 ??0CVerticalScalePtrData@@QAE@XZ ; CVerticalScalePtrData::CVerticalScalePtrData

; 969  : 	pNewNode->data = newElement;

  00200	8d 45 dc	 lea	 eax, DWORD PTR _newData$2[ebp]
  00203	50		 push	 eax
  00204	8d 4f 08	 lea	 ecx, DWORD PTR [edi+8]
  00207	e8 00 00 00 00	 call	 ??4CVerticalScalePtrData@@QAEAAV0@ABV0@@Z ; CVerticalScalePtrData::operator=

; 970  : 	if (m_pNodeTail != NULL)

  0020c	8b 43 08	 mov	 eax, DWORD PTR [ebx+8]
  0020f	85 c0		 test	 eax, eax
  00211	74 04		 je	 SHORT $LN55@Serialize

; 971  : 		m_pNodeTail->pNext = pNewNode;

  00213	89 38		 mov	 DWORD PTR [eax], edi
  00215	eb 03		 jmp	 SHORT $LN56@Serialize
$LN55@Serialize:

; 972  : 	else
; 973  : 		m_pNodeHead = pNewNode;

  00217	89 7b 04	 mov	 DWORD PTR [ebx+4], edi
$LN56@Serialize:

; 1195 : 			SerializeElements<TYPE>(ar, newData, 1);
; 1196 : 			AddTail(newData[0]);
; 1197 : 		}

  0021a	68 00 00 00 00	 push	 OFFSET ??1CVerticalScalePtrData@@QAE@XZ
  0021f	6a 01		 push	 1
  00221	6a 0c		 push	 12			; 0000000cH
  00223	8d 45 dc	 lea	 eax, DWORD PTR _newData$2[ebp]

; 974  : 	m_pNodeTail = pNewNode;

  00226	89 7b 08	 mov	 DWORD PTR [ebx+8], edi

; 1195 : 			SerializeElements<TYPE>(ar, newData, 1);
; 1196 : 			AddTail(newData[0]);
; 1197 : 		}

  00229	50		 push	 eax
  0022a	c7 45 fc ff ff
	ff ff		 mov	 DWORD PTR __$EHRec$[ebp+8], -1
  00231	e8 00 00 00 00	 call	 ??_M@YGXPAXIIP6EX0@Z@Z
  00236	8b 45 e8	 mov	 eax, DWORD PTR _nNewCount$1$[ebp]
  00239	85 c0		 test	 eax, eax
  0023b	0f 85 bf fe ff
	ff		 jne	 $LL5@Serialize
$LN87@Serialize:

; 1198 : 	}
; 1199 : }

  00241	8b 4d f4	 mov	 ecx, DWORD PTR __$EHRec$[ebp]
  00244	64 89 0d 00 00
	00 00		 mov	 DWORD PTR fs:0, ecx
  0024b	59		 pop	 ecx
  0024c	5f		 pop	 edi
  0024d	5e		 pop	 esi
  0024e	5b		 pop	 ebx
  0024f	8b e5		 mov	 esp, ebp
  00251	5d		 pop	 ebp
  00252	c2 04 00	 ret	 4
$LN76@Serialize:
  00255	6a 00		 push	 0
  00257	6a 03		 push	 3
  00259	e8 00 00 00 00	 call	 ?AfxThrowArchiveException@@YGXHPBD@Z ; AfxThrowArchiveException
$LN77@Serialize:
  0025e	e8 00 00 00 00	 call	 ?AfxThrowInvalidArgException@@YGXXZ ; AfxThrowInvalidArgException
$LN107@Serialize:
  00263	cc		 int	 3
_TEXT	ENDS
;	COMDAT text$x
text$x	SEGMENT
__unwindfunclet$?Serialize@?$CList@VCVerticalScalePtrData@@AAV1@@@UAEXAAVCArchive@@@Z$0:
  00000	68 00 00 00 00	 push	 OFFSET ??1CVerticalScalePtrData@@QAE@XZ
  00005	6a 01		 push	 1
  00007	6a 0c		 push	 12			; 0000000cH
  00009	8d 45 dc	 lea	 eax, DWORD PTR _newData$2[ebp]
  0000c	50		 push	 eax
  0000d	e8 00 00 00 00	 call	 ??_M@YGXPAXIIP6EX0@Z@Z
  00012	c3		 ret	 0
  00013	cc		 int	 3
  00014	cc		 int	 3
  00015	cc		 int	 3
  00016	cc		 int	 3
  00017	cc		 int	 3
__ehhandler$?Serialize@?$CList@VCVerticalScalePtrData@@AAV1@@@UAEXAAVCArchive@@@Z:
  00018	90		 npad	 1
  00019	90		 npad	 1
  0001a	8b 54 24 08	 mov	 edx, DWORD PTR [esp+8]
  0001e	8d 42 0c	 lea	 eax, DWORD PTR [edx+12]
  00021	8b 4a d8	 mov	 ecx, DWORD PTR [edx-40]
  00024	33 c8		 xor	 ecx, eax
  00026	e8 00 00 00 00	 call	 @__security_check_cookie@4
  0002b	b8 00 00 00 00	 mov	 eax, OFFSET __ehfuncinfo$?Serialize@?$CList@VCVerticalScalePtrData@@AAV1@@@UAEXAAVCArchive@@@Z
  00030	e9 00 00 00 00	 jmp	 ___CxxFrameHandler3
text$x	ENDS
?Serialize@?$CList@VCVerticalScalePtrData@@AAV1@@@UAEXAAVCArchive@@@Z ENDP ; CList<CVerticalScalePtrData,CVerticalScalePtrData &>::Serialize
; Function compile flags: /Ogtp
; File C:\Program Files (x86)\Microsoft Visual Studio\2019\Community\VC\Tools\MSVC\14.29.30133\atlmfc\include\afxtempl.h
;	COMDAT ??1?$CList@VCVerticalScalePtrData@@AAV1@@@UAE@XZ
_TEXT	SEGMENT
__$EHRec$ = -12						; size = 12
??1?$CList@VCVerticalScalePtrData@@AAV1@@@UAE@XZ PROC	; CList<CVerticalScalePtrData,CVerticalScalePtrData &>::~CList<CVerticalScalePtrData,CVerticalScalePtrData &>, COMDAT
; _this$ = ecx

; 878  : {

  00000	55		 push	 ebp
  00001	8b ec		 mov	 ebp, esp
  00003	6a ff		 push	 -1
  00005	68 00 00 00 00	 push	 __ehhandler$??1?$CList@VCVerticalScalePtrData@@AAV1@@@UAE@XZ
  0000a	64 a1 00 00 00
	00		 mov	 eax, DWORD PTR fs:0
  00010	50		 push	 eax
  00011	56		 push	 esi
  00012	57		 push	 edi
  00013	a1 00 00 00 00	 mov	 eax, DWORD PTR ___security_cookie
  00018	33 c5		 xor	 eax, ebp
  0001a	50		 push	 eax
  0001b	8d 45 f4	 lea	 eax, DWORD PTR __$EHRec$[ebp]
  0001e	64 a3 00 00 00
	00		 mov	 DWORD PTR fs:0, eax
  00024	8b f9		 mov	 edi, ecx

; 867  : 	for (pNode = m_pNodeHead; pNode != NULL; pNode = pNode->pNext)

  00026	8b 77 04	 mov	 esi, DWORD PTR [edi+4]

; 878  : {

  00029	c7 07 00 00 00
	00		 mov	 DWORD PTR [edi], OFFSET ??_7?$CList@VCVerticalScalePtrData@@AAV1@@@6B@

; 867  : 	for (pNode = m_pNodeHead; pNode != NULL; pNode = pNode->pNext)

  0002f	85 f6		 test	 esi, esi
  00031	74 18		 je	 SHORT $LN5@CList
$LL6@CList:

; 868  : 		pNode->data.~TYPE();

  00033	8d 4e 10	 lea	 ecx, DWORD PTR [esi+16]
  00036	ff 15 00 00 00
	00		 call	 DWORD PTR __imp_??1?$CStringT@DV?$StrTraitMFC_DLL@DV?$ChTraitsCRT@D@ATL@@@@@ATL@@QAE@XZ
  0003c	8d 4e 0c	 lea	 ecx, DWORD PTR [esi+12]
  0003f	ff 15 00 00 00
	00		 call	 DWORD PTR __imp_??1?$CStringT@DV?$StrTraitMFC_DLL@DV?$ChTraitsCRT@D@ATL@@@@@ATL@@QAE@XZ

; 867  : 	for (pNode = m_pNodeHead; pNode != NULL; pNode = pNode->pNext)

  00045	8b 36		 mov	 esi, DWORD PTR [esi]
  00047	85 f6		 test	 esi, esi
  00049	75 e8		 jne	 SHORT $LL6@CList
$LN5@CList:

; 869  : 
; 870  : 	m_nCount = 0;
; 871  : 	m_pNodeHead = m_pNodeTail = m_pNodeFree = NULL;
; 872  : 	m_pBlocks->FreeDataChain();

  0004b	8b 4f 14	 mov	 ecx, DWORD PTR [edi+20]
  0004e	c7 47 0c 00 00
	00 00		 mov	 DWORD PTR [edi+12], 0
  00055	c7 47 10 00 00
	00 00		 mov	 DWORD PTR [edi+16], 0
  0005c	c7 47 08 00 00
	00 00		 mov	 DWORD PTR [edi+8], 0
  00063	c7 47 04 00 00
	00 00		 mov	 DWORD PTR [edi+4], 0
  0006a	e8 00 00 00 00	 call	 ?FreeDataChain@CPlex@@QAEXXZ ; CPlex::FreeDataChain

; 873  : 	m_pBlocks = NULL;

  0006f	c7 47 14 00 00
	00 00		 mov	 DWORD PTR [edi+20], 0

; 879  : 	RemoveAll();
; 880  : 	ASSERT(m_nCount == 0);
; 881  : }

  00076	8b 4d f4	 mov	 ecx, DWORD PTR __$EHRec$[ebp]
  00079	64 89 0d 00 00
	00 00		 mov	 DWORD PTR fs:0, ecx
  00080	59		 pop	 ecx
  00081	5f		 pop	 edi
  00082	5e		 pop	 esi
  00083	8b e5		 mov	 esp, ebp
  00085	5d		 pop	 ebp
  00086	c3		 ret	 0
  00087	cc		 int	 3
  00088	cc		 int	 3
  00089	cc		 int	 3
  0008a	cc		 int	 3
  0008b	cc		 int	 3
_TEXT	ENDS
;	COMDAT text$x
text$x	SEGMENT
__ehhandler$??1?$CList@VCVerticalScalePtrData@@AAV1@@@UAE@XZ:
  00000	90		 npad	 1
  00001	90		 npad	 1
  00002	8b 54 24 08	 mov	 edx, DWORD PTR [esp+8]
  00006	8d 42 0c	 lea	 eax, DWORD PTR [edx+12]
  00009	8b 4a f4	 mov	 ecx, DWORD PTR [edx-12]
  0000c	33 c8		 xor	 ecx, eax
  0000e	e8 00 00 00 00	 call	 @__security_check_cookie@4
  00013	b8 00 00 00 00	 mov	 eax, OFFSET __ehfuncinfo$??1?$CList@VCVerticalScalePtrData@@AAV1@@@UAE@XZ
  00018	e9 00 00 00 00	 jmp	 ___CxxFrameHandler3
text$x	ENDS
??1?$CList@VCVerticalScalePtrData@@AAV1@@@UAE@XZ ENDP	; CList<CVerticalScalePtrData,CVerticalScalePtrData &>::~CList<CVerticalScalePtrData,CVerticalScalePtrData &>
; Function compile flags: /Ogtp
; File C:\Program Files (x86)\Microsoft Visual Studio\2019\Community\VC\Tools\MSVC\14.29.30133\atlmfc\include\afxtempl.h
;	COMDAT ?NewNode@?$CList@VCVerticalScalePtrData@@AAV1@@@IAEPAUCNode@1@PAU21@0@Z
_TEXT	SEGMENT
_pPrev$ = 8						; size = 4
_pNext$ = 12						; size = 4
?NewNode@?$CList@VCVerticalScalePtrData@@AAV1@@@IAEPAUCNode@1@PAU21@0@Z PROC ; CList<CVerticalScalePtrData,CVerticalScalePtrData &>::NewNode, COMDAT
; _this$ = ecx

; 901  : {

  00000	55		 push	 ebp
  00001	8b ec		 mov	 ebp, esp
  00003	56		 push	 esi
  00004	8b f1		 mov	 esi, ecx
  00006	57		 push	 edi

; 902  : 	if (m_pNodeFree == NULL)

  00007	83 7e 10 00	 cmp	 DWORD PTR [esi+16], 0
  0000b	75 33		 jne	 SHORT $LN7@NewNode

; 903  : 	{
; 904  : 		// add another block
; 905  : 		CPlex* pNewBlock = CPlex::Create(m_pBlocks, m_nBlockSize,

  0000d	6a 14		 push	 20			; 00000014H
  0000f	ff 76 18	 push	 DWORD PTR [esi+24]
  00012	8d 46 14	 lea	 eax, DWORD PTR [esi+20]
  00015	50		 push	 eax
  00016	e8 00 00 00 00	 call	 ?Create@CPlex@@SGPAU1@AAPAU1@II@Z ; CPlex::Create

; 906  : 				 sizeof(CNode));
; 907  : 
; 908  : 		// chain them into free list
; 909  : 		CNode* pNode = (CNode*) pNewBlock->data();
; 910  : 		// free in reverse order to make it easier to debug
; 911  : 		pNode += m_nBlockSize - 1;

  0001b	8b 56 18	 mov	 edx, DWORD PTR [esi+24]
  0001e	83 c0 08	 add	 eax, 8
  00021	8d 0c 92	 lea	 ecx, DWORD PTR [edx+edx*4]
  00024	8d 04 88	 lea	 eax, DWORD PTR [eax+ecx*4]
  00027	83 c0 ec	 add	 eax, -20		; ffffffecH

; 912  : 		for (INT_PTR i = m_nBlockSize-1; i >= 0; i--, pNode--)

  0002a	83 c2 ff	 add	 edx, -1
  0002d	78 11		 js	 SHORT $LN7@NewNode
  0002f	90		 npad	 1
$LL4@NewNode:

; 913  : 		{
; 914  : 			pNode->pNext = m_pNodeFree;

  00030	8b 4e 10	 mov	 ecx, DWORD PTR [esi+16]
  00033	89 08		 mov	 DWORD PTR [eax], ecx

; 915  : 			m_pNodeFree = pNode;

  00035	89 46 10	 mov	 DWORD PTR [esi+16], eax
  00038	83 e8 14	 sub	 eax, 20			; 00000014H
  0003b	83 ea 01	 sub	 edx, 1
  0003e	79 f0		 jns	 SHORT $LL4@NewNode
$LN7@NewNode:

; 916  : 		}
; 917  : 	}
; 918  : 	ENSURE(m_pNodeFree != NULL);  // we must have something

  00040	8b 7e 10	 mov	 edi, DWORD PTR [esi+16]
  00043	85 ff		 test	 edi, edi
  00045	74 23		 je	 SHORT $LN17@NewNode

; 919  : 
; 920  : 	CList::CNode* pNode = m_pNodeFree;
; 921  : 	m_pNodeFree = m_pNodeFree->pNext;

  00047	8b 07		 mov	 eax, DWORD PTR [edi]

; 922  : 	pNode->pPrev = pPrev;

  00049	8b 4d 08	 mov	 ecx, DWORD PTR _pPrev$[ebp]
  0004c	89 46 10	 mov	 DWORD PTR [esi+16], eax
  0004f	89 4f 04	 mov	 DWORD PTR [edi+4], ecx

; 923  : 	pNode->pNext = pNext;

  00052	8b 4d 0c	 mov	 ecx, DWORD PTR _pNext$[ebp]
  00055	89 0f		 mov	 DWORD PTR [edi], ecx

; 924  : 	m_nCount++;
; 925  : 	ASSERT(m_nCount > 0);  // make sure we don't overflow
; 926  : 
; 927  : #pragma push_macro("new")
; 928  : #undef new
; 929  : 	::new( (void*)( &pNode->data ) ) TYPE;

  00057	8d 4f 08	 lea	 ecx, DWORD PTR [edi+8]
  0005a	ff 46 0c	 inc	 DWORD PTR [esi+12]
  0005d	e8 00 00 00 00	 call	 ??0CVerticalScalePtrData@@QAE@XZ ; CVerticalScalePtrData::CVerticalScalePtrData

; 930  : #pragma pop_macro("new")
; 931  : 	return pNode;

  00062	8b c7		 mov	 eax, edi
  00064	5f		 pop	 edi
  00065	5e		 pop	 esi

; 932  : }

  00066	5d		 pop	 ebp
  00067	c2 08 00	 ret	 8
$LN17@NewNode:

; 916  : 		}
; 917  : 	}
; 918  : 	ENSURE(m_pNodeFree != NULL);  // we must have something

  0006a	e8 00 00 00 00	 call	 ?AfxThrowInvalidArgException@@YGXXZ ; AfxThrowInvalidArgException
$LN15@NewNode:
  0006f	cc		 int	 3
?NewNode@?$CList@VCVerticalScalePtrData@@AAV1@@@IAEPAUCNode@1@PAU21@0@Z ENDP ; CList<CVerticalScalePtrData,CVerticalScalePtrData &>::NewNode
_TEXT	ENDS
; Function compile flags: /Ogtp
; File C:\Program Files (x86)\Microsoft Visual Studio\2019\Community\VC\Tools\MSVC\14.29.30133\atlmfc\include\afxtempl.h
;	COMDAT ?RemoveAll@?$CList@VCVerticalScalePtrData@@AAV1@@@QAEXXZ
_TEXT	SEGMENT
?RemoveAll@?$CList@VCVerticalScalePtrData@@AAV1@@@QAEXXZ PROC ; CList<CVerticalScalePtrData,CVerticalScalePtrData &>::RemoveAll, COMDAT
; _this$ = ecx

; 862  : {

  00000	56		 push	 esi
  00001	57		 push	 edi
  00002	8b f9		 mov	 edi, ecx

; 863  : 	ASSERT_VALID(this);
; 864  : 
; 865  : 	// destroy elements
; 866  : 	CNode* pNode;
; 867  : 	for (pNode = m_pNodeHead; pNode != NULL; pNode = pNode->pNext)

  00004	8b 77 04	 mov	 esi, DWORD PTR [edi+4]
  00007	85 f6		 test	 esi, esi
  00009	74 1d		 je	 SHORT $LN3@RemoveAll
  0000b	0f 1f 44 00 00	 npad	 5
$LL4@RemoveAll:

; 868  : 		pNode->data.~TYPE();

  00010	8d 4e 10	 lea	 ecx, DWORD PTR [esi+16]
  00013	ff 15 00 00 00
	00		 call	 DWORD PTR __imp_??1?$CStringT@DV?$StrTraitMFC_DLL@DV?$ChTraitsCRT@D@ATL@@@@@ATL@@QAE@XZ
  00019	8d 4e 0c	 lea	 ecx, DWORD PTR [esi+12]
  0001c	ff 15 00 00 00
	00		 call	 DWORD PTR __imp_??1?$CStringT@DV?$StrTraitMFC_DLL@DV?$ChTraitsCRT@D@ATL@@@@@ATL@@QAE@XZ
  00022	8b 36		 mov	 esi, DWORD PTR [esi]
  00024	85 f6		 test	 esi, esi
  00026	75 e8		 jne	 SHORT $LL4@RemoveAll
$LN3@RemoveAll:

; 869  : 
; 870  : 	m_nCount = 0;
; 871  : 	m_pNodeHead = m_pNodeTail = m_pNodeFree = NULL;
; 872  : 	m_pBlocks->FreeDataChain();

  00028	8b 4f 14	 mov	 ecx, DWORD PTR [edi+20]
  0002b	c7 47 0c 00 00
	00 00		 mov	 DWORD PTR [edi+12], 0
  00032	c7 47 10 00 00
	00 00		 mov	 DWORD PTR [edi+16], 0
  00039	c7 47 08 00 00
	00 00		 mov	 DWORD PTR [edi+8], 0
  00040	c7 47 04 00 00
	00 00		 mov	 DWORD PTR [edi+4], 0
  00047	e8 00 00 00 00	 call	 ?FreeDataChain@CPlex@@QAEXXZ ; CPlex::FreeDataChain

; 873  : 	m_pBlocks = NULL;

  0004c	c7 47 14 00 00
	00 00		 mov	 DWORD PTR [edi+20], 0
  00053	5f		 pop	 edi
  00054	5e		 pop	 esi

; 874  : }

  00055	c3		 ret	 0
?RemoveAll@?$CList@VCVerticalScalePtrData@@AAV1@@@QAEXXZ ENDP ; CList<CVerticalScalePtrData,CVerticalScalePtrData &>::RemoveAll
_TEXT	ENDS
; Function compile flags: /Ogtp
; File C:\Program Files (x86)\Microsoft Visual Studio\2019\Community\VC\Tools\MSVC\14.29.30133\atlmfc\include\afxtempl.h
;	COMDAT ?AddTail@?$CList@VCVerticalScalePtrData@@AAV1@@@QAEPAU__POSITION@@AAVCVerticalScalePtrData@@@Z
_TEXT	SEGMENT
_newElement$ = 8					; size = 4
?AddTail@?$CList@VCVerticalScalePtrData@@AAV1@@@QAEPAU__POSITION@@AAVCVerticalScalePtrData@@@Z PROC ; CList<CVerticalScalePtrData,CVerticalScalePtrData &>::AddTail, COMDAT
; _this$ = ecx

; 965  : {

  00000	55		 push	 ebp
  00001	8b ec		 mov	 ebp, esp
  00003	53		 push	 ebx
  00004	56		 push	 esi
  00005	8b f1		 mov	 esi, ecx
  00007	57		 push	 edi

; 902  : 	if (m_pNodeFree == NULL)

  00008	83 7e 10 00	 cmp	 DWORD PTR [esi+16], 0

; 966  : 	ASSERT_VALID(this);
; 967  : 
; 968  : 	CNode* pNewNode = NewNode(m_pNodeTail, NULL);

  0000c	8b 7e 08	 mov	 edi, DWORD PTR [esi+8]

; 902  : 	if (m_pNodeFree == NULL)

  0000f	75 32		 jne	 SHORT $LN11@AddTail

; 903  : 	{
; 904  : 		// add another block
; 905  : 		CPlex* pNewBlock = CPlex::Create(m_pBlocks, m_nBlockSize,

  00011	6a 14		 push	 20			; 00000014H
  00013	ff 76 18	 push	 DWORD PTR [esi+24]
  00016	8d 46 14	 lea	 eax, DWORD PTR [esi+20]
  00019	50		 push	 eax
  0001a	e8 00 00 00 00	 call	 ?Create@CPlex@@SGPAU1@AAPAU1@II@Z ; CPlex::Create

; 906  : 				 sizeof(CNode));
; 907  : 
; 908  : 		// chain them into free list
; 909  : 		CNode* pNode = (CNode*) pNewBlock->data();
; 910  : 		// free in reverse order to make it easier to debug
; 911  : 		pNode += m_nBlockSize - 1;

  0001f	8b 56 18	 mov	 edx, DWORD PTR [esi+24]
  00022	83 c0 08	 add	 eax, 8
  00025	8d 4a ff	 lea	 ecx, DWORD PTR [edx-1]

; 912  : 		for (INT_PTR i = m_nBlockSize-1; i >= 0; i--, pNode--)

  00028	83 c2 ff	 add	 edx, -1
  0002b	8d 0c 89	 lea	 ecx, DWORD PTR [ecx+ecx*4]
  0002e	8d 0c 88	 lea	 ecx, DWORD PTR [eax+ecx*4]
  00031	78 10		 js	 SHORT $LN11@AddTail
$LL8@AddTail:

; 913  : 		{
; 914  : 			pNode->pNext = m_pNodeFree;

  00033	8b 46 10	 mov	 eax, DWORD PTR [esi+16]
  00036	89 01		 mov	 DWORD PTR [ecx], eax

; 915  : 			m_pNodeFree = pNode;

  00038	89 4e 10	 mov	 DWORD PTR [esi+16], ecx
  0003b	83 e9 14	 sub	 ecx, 20			; 00000014H
  0003e	83 ea 01	 sub	 edx, 1
  00041	79 f0		 jns	 SHORT $LL8@AddTail
$LN11@AddTail:

; 916  : 		}
; 917  : 	}
; 918  : 	ENSURE(m_pNodeFree != NULL);  // we must have something

  00043	8b 5e 10	 mov	 ebx, DWORD PTR [esi+16]
  00046	85 db		 test	 ebx, ebx
  00048	74 48		 je	 SHORT $LN22@AddTail

; 919  : 
; 920  : 	CList::CNode* pNode = m_pNodeFree;
; 921  : 	m_pNodeFree = m_pNodeFree->pNext;

  0004a	8b 03		 mov	 eax, DWORD PTR [ebx]

; 922  : 	pNode->pPrev = pPrev;
; 923  : 	pNode->pNext = pNext;
; 924  : 	m_nCount++;
; 925  : 	ASSERT(m_nCount > 0);  // make sure we don't overflow
; 926  : 
; 927  : #pragma push_macro("new")
; 928  : #undef new
; 929  : 	::new( (void*)( &pNode->data ) ) TYPE;

  0004c	8d 4b 08	 lea	 ecx, DWORD PTR [ebx+8]
  0004f	89 46 10	 mov	 DWORD PTR [esi+16], eax
  00052	89 7b 04	 mov	 DWORD PTR [ebx+4], edi
  00055	c7 03 00 00 00
	00		 mov	 DWORD PTR [ebx], 0
  0005b	ff 46 0c	 inc	 DWORD PTR [esi+12]
  0005e	e8 00 00 00 00	 call	 ??0CVerticalScalePtrData@@QAE@XZ ; CVerticalScalePtrData::CVerticalScalePtrData

; 969  : 	pNewNode->data = newElement;

  00063	ff 75 08	 push	 DWORD PTR _newElement$[ebp]
  00066	8d 4b 08	 lea	 ecx, DWORD PTR [ebx+8]
  00069	e8 00 00 00 00	 call	 ??4CVerticalScalePtrData@@QAEAAV0@ABV0@@Z ; CVerticalScalePtrData::operator=

; 970  : 	if (m_pNodeTail != NULL)

  0006e	8b 46 08	 mov	 eax, DWORD PTR [esi+8]
  00071	85 c0		 test	 eax, eax
  00073	74 0e		 je	 SHORT $LN2@AddTail

; 971  : 		m_pNodeTail->pNext = pNewNode;

  00075	89 18		 mov	 DWORD PTR [eax], ebx

; 972  : 	else
; 973  : 		m_pNodeHead = pNewNode;
; 974  : 	m_pNodeTail = pNewNode;
; 975  : 	return (POSITION) pNewNode;

  00077	8b c3		 mov	 eax, ebx
  00079	5f		 pop	 edi
  0007a	89 5e 08	 mov	 DWORD PTR [esi+8], ebx
  0007d	5e		 pop	 esi
  0007e	5b		 pop	 ebx

; 976  : }

  0007f	5d		 pop	 ebp
  00080	c2 04 00	 ret	 4
$LN2@AddTail:

; 972  : 	else
; 973  : 		m_pNodeHead = pNewNode;
; 974  : 	m_pNodeTail = pNewNode;
; 975  : 	return (POSITION) pNewNode;

  00083	5f		 pop	 edi
  00084	89 5e 04	 mov	 DWORD PTR [esi+4], ebx
  00087	8b c3		 mov	 eax, ebx
  00089	89 5e 08	 mov	 DWORD PTR [esi+8], ebx
  0008c	5e		 pop	 esi
  0008d	5b		 pop	 ebx

; 976  : }

  0008e	5d		 pop	 ebp
  0008f	c2 04 00	 ret	 4
$LN22@AddTail:

; 918  : 	ENSURE(m_pNodeFree != NULL);  // we must have something

  00092	e8 00 00 00 00	 call	 ?AfxThrowInvalidArgException@@YGXXZ ; AfxThrowInvalidArgException
$LN20@AddTail:
  00097	cc		 int	 3
?AddTail@?$CList@VCVerticalScalePtrData@@AAV1@@@QAEPAU__POSITION@@AAVCVerticalScalePtrData@@@Z ENDP ; CList<CVerticalScalePtrData,CVerticalScalePtrData &>::AddTail
_TEXT	ENDS
; Function compile flags: /Ogtp
;	COMDAT ??1CVerticalScalePtrData@@QAE@XZ
_TEXT	SEGMENT
??1CVerticalScalePtrData@@QAE@XZ PROC			; CVerticalScalePtrData::~CVerticalScalePtrData, COMDAT
; _this$ = ecx
  00000	56		 push	 esi
  00001	8b f1		 mov	 esi, ecx
  00003	8d 4e 08	 lea	 ecx, DWORD PTR [esi+8]
  00006	ff 15 00 00 00
	00		 call	 DWORD PTR __imp_??1?$CStringT@DV?$StrTraitMFC_DLL@DV?$ChTraitsCRT@D@ATL@@@@@ATL@@QAE@XZ
  0000c	8d 4e 04	 lea	 ecx, DWORD PTR [esi+4]
  0000f	5e		 pop	 esi
  00010	ff 25 00 00 00
	00		 jmp	 DWORD PTR __imp_??1?$CStringT@DV?$StrTraitMFC_DLL@DV?$ChTraitsCRT@D@ATL@@@@@ATL@@QAE@XZ
??1CVerticalScalePtrData@@QAE@XZ ENDP			; CVerticalScalePtrData::~CVerticalScalePtrData
_TEXT	ENDS
; Function compile flags: /Ogtp
; File C:\Program Files (x86)\Microsoft Visual Studio\2019\Community\VC\Tools\MSVC\14.29.30133\atlmfc\include\afx.inl
;	COMDAT ??_G?$CList@VCHorizontalScale@@AAV1@@@UAEPAXI@Z
_TEXT	SEGMENT
___flags$ = 8						; size = 4
??_G?$CList@VCHorizontalScale@@AAV1@@@UAEPAXI@Z PROC	; CList<CHorizontalScale,CHorizontalScale &>::`scalar deleting destructor', COMDAT
; _this$ = ecx
  00000	55		 push	 ebp
  00001	8b ec		 mov	 ebp, esp
  00003	56		 push	 esi
  00004	8b f1		 mov	 esi, ecx
  00006	e8 00 00 00 00	 call	 ??1?$CList@VCHorizontalScale@@AAV1@@@UAE@XZ ; CList<CHorizontalScale,CHorizontalScale &>::~CList<CHorizontalScale,CHorizontalScale &>
  0000b	8b 45 08	 mov	 eax, DWORD PTR ___flags$[ebp]
  0000e	a8 01		 test	 al, 1
  00010	74 1f		 je	 SHORT $LN9@scalar
  00012	a8 04		 test	 al, 4
  00014	75 10		 jne	 SHORT $LN3@scalar

; 112  : 	{ ::operator delete(p); }

  00016	56		 push	 esi
  00017	e8 00 00 00 00	 call	 ??3@YAXPAX@Z		; operator delete
  0001c	83 c4 04	 add	 esp, 4
  0001f	8b c6		 mov	 eax, esi
  00021	5e		 pop	 esi
  00022	5d		 pop	 ebp
  00023	c2 04 00	 ret	 4
$LN3@scalar:
  00026	6a 1c		 push	 28			; 0000001cH
  00028	56		 push	 esi
  00029	e8 00 00 00 00	 call	 ?__global_delete@@YAXPAXI@Z ; __global_delete
  0002e	83 c4 08	 add	 esp, 8
$LN9@scalar:
  00031	8b c6		 mov	 eax, esi
  00033	5e		 pop	 esi
  00034	5d		 pop	 ebp
  00035	c2 04 00	 ret	 4
??_G?$CList@VCHorizontalScale@@AAV1@@@UAEPAXI@Z ENDP	; CList<CHorizontalScale,CHorizontalScale &>::`scalar deleting destructor'
_TEXT	ENDS
; Function compile flags: /Ogtp
; File C:\Program Files (x86)\Microsoft Visual Studio\2019\Community\VC\Tools\MSVC\14.29.30133\atlmfc\include\afxtempl.h
; File C:\Program Files (x86)\Microsoft Visual Studio\2019\Community\VC\Tools\MSVC\14.29.30133\atlmfc\include\afx.inl
; File C:\Program Files (x86)\Microsoft Visual Studio\2019\Community\VC\Tools\MSVC\14.29.30133\atlmfc\include\afxtempl.h
; File C:\Program Files (x86)\Microsoft Visual Studio\2019\Community\VC\Tools\MSVC\14.29.30133\atlmfc\include\afx.inl
; File C:\Program Files (x86)\Microsoft Visual Studio\2019\Community\VC\Tools\MSVC\14.29.30133\atlmfc\include\afxtempl.h
; File C:\Program Files (x86)\Microsoft Visual Studio\2019\Community\VC\Tools\MSVC\14.29.30133\atlmfc\include\afx.inl
; File C:\Program Files (x86)\Microsoft Visual Studio\2019\Community\VC\Tools\MSVC\14.29.30133\atlmfc\include\afxtempl.h
; File C:\Program Files (x86)\Microsoft Visual Studio\2019\Community\VC\Tools\MSVC\14.29.30133\atlmfc\include\afx.inl
; File C:\Program Files (x86)\Microsoft Visual Studio\2019\Community\VC\Tools\MSVC\14.29.30133\atlmfc\include\afxtempl.h
; File C:\Program Files (x86)\Microsoft Visual Studio\2019\Community\VC\Tools\MSVC\14.29.30133\atlmfc\include\afx.inl
; File C:\Program Files (x86)\Microsoft Visual Studio\2019\Community\VC\Tools\MSVC\14.29.30133\atlmfc\include\afxtempl.h
; File C:\Program Files (x86)\Microsoft Visual Studio\2019\Community\VC\Tools\MSVC\14.29.30133\atlmfc\include\afx.inl
; File C:\Program Files (x86)\Microsoft Visual Studio\2019\Community\VC\Tools\MSVC\14.29.30133\atlmfc\include\afxtempl.h
; File C:\Program Files (x86)\Microsoft Visual Studio\2019\Community\VC\Tools\MSVC\14.29.30133\atlmfc\include\afx.inl
; File C:\Program Files (x86)\Microsoft Visual Studio\2019\Community\VC\Tools\MSVC\14.29.30133\atlmfc\include\afxtempl.h
; File C:\Program Files (x86)\Microsoft Visual Studio\2019\Community\VC\Tools\MSVC\14.29.30133\atlmfc\include\afx.inl
; File C:\Program Files (x86)\Microsoft Visual Studio\2019\Community\VC\Tools\MSVC\14.29.30133\atlmfc\include\afxtempl.h
;	COMDAT ?Serialize@?$CList@VCHorizontalScale@@AAV1@@@UAEXAAVCArchive@@@Z
_TEXT	SEGMENT
_newData$2 = -128					; size = 100
_nNewCount$1$ = -28					; size = 4
_nCount$1$ = -24					; size = 4
_pData$1$ = -20						; size = 4
_pData$1$ = -20						; size = 4
_pNode$1$ = -20						; size = 4
_nCount$1$ = -16					; size = 4
_nElementsLeft$1$ = -16					; size = 4
_this$1$ = -16						; size = 4
__$EHRec$ = -12						; size = 12
_ar$ = 8						; size = 4
?Serialize@?$CList@VCHorizontalScale@@AAV1@@@UAEXAAVCArchive@@@Z PROC ; CList<CHorizontalScale,CHorizontalScale &>::Serialize, COMDAT
; _this$ = ecx

; 1169 : {

  00000	55		 push	 ebp
  00001	8b ec		 mov	 ebp, esp
  00003	6a ff		 push	 -1
  00005	68 00 00 00 00	 push	 __ehhandler$?Serialize@?$CList@VCHorizontalScale@@AAV1@@@UAEXAAVCArchive@@@Z
  0000a	64 a1 00 00 00
	00		 mov	 eax, DWORD PTR fs:0
  00010	50		 push	 eax
  00011	83 ec 74	 sub	 esp, 116		; 00000074H
  00014	53		 push	 ebx
  00015	56		 push	 esi
  00016	57		 push	 edi
  00017	a1 00 00 00 00	 mov	 eax, DWORD PTR ___security_cookie
  0001c	33 c5		 xor	 eax, ebp
  0001e	50		 push	 eax
  0001f	8d 45 f4	 lea	 eax, DWORD PTR __$EHRec$[ebp]
  00022	64 a3 00 00 00
	00		 mov	 DWORD PTR fs:0, eax
  00028	8b d9		 mov	 ebx, ecx
  0002a	89 5d f0	 mov	 DWORD PTR _this$1$[ebp], ebx
; File C:\Program Files (x86)\Microsoft Visual Studio\2019\Community\VC\Tools\MSVC\14.29.30133\atlmfc\include\afx.inl

; 212  : 	{ return (m_nMode & CArchive::load) == 0; }

  0002d	8b 4d 08	 mov	 ecx, DWORD PTR _ar$[ebp]
  00030	8b 41 18	 mov	 eax, DWORD PTR [ecx+24]
  00033	f7 d0		 not	 eax
  00035	a8 01		 test	 al, 1
; File C:\Program Files (x86)\Microsoft Visual Studio\2019\Community\VC\Tools\MSVC\14.29.30133\atlmfc\include\afxtempl.h

; 1174 : 	if (ar.IsStoring())

  00037	0f 84 b2 00 00
	00		 je	 $LN7@Serialize

; 1175 : 	{
; 1176 : 		ar.WriteCount(m_nCount);

  0003d	ff 73 0c	 push	 DWORD PTR [ebx+12]
  00040	e8 00 00 00 00	 call	 ?WriteCount@CArchive@@QAEXK@Z ; CArchive::WriteCount

; 1177 : 		for (CNode* pNode = m_pNodeHead; pNode != NULL; pNode = pNode->pNext)

  00045	8b 43 04	 mov	 eax, DWORD PTR [ebx+4]
  00048	89 45 ec	 mov	 DWORD PTR _pNode$1$[ebp], eax
  0004b	85 c0		 test	 eax, eax
  0004d	0f 84 f1 01 00
	00		 je	 $LN87@Serialize
$LL4@Serialize:

; 1178 : 		{
; 1179 : 			ASSERT(AfxIsValidAddress(pNode, sizeof(CNode)));
; 1180 : 			TYPE* pData;
; 1181 : 			/*
; 1182 : 			 * in some cases the & operator might be overloaded, and we cannot use it to obtain
; 1183 : 			 * the address of a given object.  We then use the following trick to get the address
; 1184 : 			 */
; 1185 : 			pData = reinterpret_cast< TYPE* >( &reinterpret_cast< int& >( static_cast< TYPE& >( pNode->data ) ) );

  00053	8d 70 08	 lea	 esi, DWORD PTR [eax+8]

; 68   : 	ENSURE(nCount == 0 || pElements != NULL);

  00056	85 f6		 test	 esi, esi
  00058	0f 84 03 02 00
	00		 je	 $LN77@Serialize
; File C:\Program Files (x86)\Microsoft Visual Studio\2019\Community\VC\Tools\MSVC\14.29.30133\atlmfc\include\afx.inl

; 212  : 	{ return (m_nMode & CArchive::load) == 0; }

  0005e	8b 4d 08	 mov	 ecx, DWORD PTR _ar$[ebp]
  00061	8b 41 18	 mov	 eax, DWORD PTR [ecx+24]
  00064	f7 d0		 not	 eax
  00066	a8 01		 test	 al, 1
; File C:\Program Files (x86)\Microsoft Visual Studio\2019\Community\VC\Tools\MSVC\14.29.30133\atlmfc\include\afxtempl.h

; 73   : 	if (ar.IsStoring())

  00068	74 2f		 je	 SHORT $LN22@Serialize

; 74   : 	{
; 75   : 		TYPE* pData;
; 76   : 		UINT_PTR nElementsLeft;
; 77   : 
; 78   : 		nElementsLeft = nCount;

  0006a	b8 01 00 00 00	 mov	 eax, 1
  0006f	89 45 f0	 mov	 DWORD PTR _nElementsLeft$1$[ebp], eax
$LL17@Serialize:

; 80   : 		while( nElementsLeft > 0 )
; 81   : 		{
; 82   : 			UINT nElementsToWrite;
; 83   : 
; 84   : 			nElementsToWrite = UINT(__min(nElementsLeft, INT_MAX/sizeof(TYPE)));

  00072	bb 14 ae 47 01	 mov	 ebx, 21474836		; 0147ae14H
  00077	3b c3		 cmp	 eax, ebx
  00079	0f 42 d8	 cmovb	 ebx, eax

; 85   : 			ar.Write(pData, nElementsToWrite*sizeof(TYPE));

  0007c	6b fb 64	 imul	 edi, ebx, 100
  0007f	57		 push	 edi
  00080	56		 push	 esi
  00081	e8 00 00 00 00	 call	 ?Write@CArchive@@QAEXPBXI@Z ; CArchive::Write

; 86   : 			nElementsLeft -= nElementsToWrite;

  00086	8b 45 f0	 mov	 eax, DWORD PTR _nElementsLeft$1$[ebp]

; 87   : 			pData += nElementsToWrite;

  00089	03 f7		 add	 esi, edi
  0008b	8b 4d 08	 mov	 ecx, DWORD PTR _ar$[ebp]
  0008e	2b c3		 sub	 eax, ebx
  00090	89 45 f0	 mov	 DWORD PTR _nElementsLeft$1$[ebp], eax
  00093	85 c0		 test	 eax, eax
  00095	75 db		 jne	 SHORT $LL17@Serialize

; 88   : 		}
; 89   : 	}

  00097	eb 32		 jmp	 SHORT $LN2@Serialize
$LN22@Serialize:

; 90   : 	else
; 91   : 	{
; 92   : 		TYPE* pData;
; 93   : 		UINT_PTR nElementsLeft;
; 94   : 
; 95   : 		nElementsLeft = nCount;

  00099	bf 01 00 00 00	 mov	 edi, 1
  0009e	66 90		 npad	 2
$LL19@Serialize:

; 98   : 		{
; 99   : 			UINT nElementsToRead;
; 100  : 
; 101  : 			nElementsToRead = UINT(__min(nElementsLeft, INT_MAX/sizeof(TYPE)));

  000a0	bb 14 ae 47 01	 mov	 ebx, 21474836		; 0147ae14H
  000a5	3b fb		 cmp	 edi, ebx
  000a7	0f 42 df	 cmovb	 ebx, edi

; 102  : 			ar.EnsureRead(pData, nElementsToRead*sizeof(TYPE));

  000aa	6b c3 64	 imul	 eax, ebx, 100
; File C:\Program Files (x86)\Microsoft Visual Studio\2019\Community\VC\Tools\MSVC\14.29.30133\atlmfc\include\afx.inl

; 399  : 	UINT nRead=Read(lpBuf, nCount);

  000ad	50		 push	 eax
  000ae	56		 push	 esi
; File C:\Program Files (x86)\Microsoft Visual Studio\2019\Community\VC\Tools\MSVC\14.29.30133\atlmfc\include\afxtempl.h

; 102  : 			ar.EnsureRead(pData, nElementsToRead*sizeof(TYPE));

  000af	89 45 f0	 mov	 DWORD PTR _nCount$1$[ebp], eax
; File C:\Program Files (x86)\Microsoft Visual Studio\2019\Community\VC\Tools\MSVC\14.29.30133\atlmfc\include\afx.inl

; 399  : 	UINT nRead=Read(lpBuf, nCount);

  000b2	e8 00 00 00 00	 call	 ?Read@CArchive@@QAEIPAXI@Z ; CArchive::Read

; 400  : 	if(nRead!=nCount)

  000b7	8b 4d f0	 mov	 ecx, DWORD PTR _nCount$1$[ebp]
  000ba	3b c1		 cmp	 eax, ecx
  000bc	0f 85 96 01 00
	00		 jne	 $LN76@Serialize
; File C:\Program Files (x86)\Microsoft Visual Studio\2019\Community\VC\Tools\MSVC\14.29.30133\atlmfc\include\afxtempl.h

; 97   : 		while( nElementsLeft > 0 )

  000c2	03 f1		 add	 esi, ecx
  000c4	8b 4d 08	 mov	 ecx, DWORD PTR _ar$[ebp]

; 103  : 			nElementsLeft -= nElementsToRead;

  000c7	2b fb		 sub	 edi, ebx
  000c9	75 d5		 jne	 SHORT $LL19@Serialize
$LN2@Serialize:

; 1177 : 		for (CNode* pNode = m_pNodeHead; pNode != NULL; pNode = pNode->pNext)

  000cb	8b 45 ec	 mov	 eax, DWORD PTR _pNode$1$[ebp]
  000ce	8b 00		 mov	 eax, DWORD PTR [eax]
  000d0	89 45 ec	 mov	 DWORD PTR _pNode$1$[ebp], eax
  000d3	85 c0		 test	 eax, eax
  000d5	0f 85 78 ff ff
	ff		 jne	 $LL4@Serialize

; 1198 : 	}
; 1199 : }

  000db	8b 4d f4	 mov	 ecx, DWORD PTR __$EHRec$[ebp]
  000de	64 89 0d 00 00
	00 00		 mov	 DWORD PTR fs:0, ecx
  000e5	59		 pop	 ecx
  000e6	5f		 pop	 edi
  000e7	5e		 pop	 esi
  000e8	5b		 pop	 ebx
  000e9	8b e5		 mov	 esp, ebp
  000eb	5d		 pop	 ebp
  000ec	c2 04 00	 ret	 4
$LN7@Serialize:

; 1186 : 			SerializeElements<TYPE>(ar, pData, 1);
; 1187 : 		}
; 1188 : 	}
; 1189 : 	else
; 1190 : 	{
; 1191 : 		DWORD_PTR nNewCount = ar.ReadCount();

  000ef	e8 00 00 00 00	 call	 ?ReadCount@CArchive@@QAEKXZ ; CArchive::ReadCount

; 1192 : 		while (nNewCount--)

  000f4	85 c0		 test	 eax, eax
  000f6	0f 84 48 01 00
	00		 je	 $LN87@Serialize
  000fc	0f 1f 40 00	 npad	 4
$LL5@Serialize:

; 1194 : 			TYPE newData[1];

  00100	ff 35 00 00 00
	00		 push	 DWORD PTR __imp_??1CHorizontalScale@@QAE@XZ
  00106	48		 dec	 eax
  00107	ff 35 00 00 00
	00		 push	 DWORD PTR __imp_??0CHorizontalScale@@QAE@XZ
  0010d	89 45 e4	 mov	 DWORD PTR _nNewCount$1$[ebp], eax
  00110	8d 45 80	 lea	 eax, DWORD PTR _newData$2[ebp]
  00113	6a 01		 push	 1
  00115	6a 64		 push	 100			; 00000064H
  00117	50		 push	 eax
  00118	e8 00 00 00 00	 call	 ??_L@YGXPAXIIP6EX0@Z1@Z
; File C:\Program Files (x86)\Microsoft Visual Studio\2019\Community\VC\Tools\MSVC\14.29.30133\atlmfc\include\afx.inl

; 212  : 	{ return (m_nMode & CArchive::load) == 0; }

  0011d	8b 4d 08	 mov	 ecx, DWORD PTR _ar$[ebp]
; File C:\Program Files (x86)\Microsoft Visual Studio\2019\Community\VC\Tools\MSVC\14.29.30133\atlmfc\include\afxtempl.h

; 1194 : 			TYPE newData[1];

  00120	c7 45 fc 00 00
	00 00		 mov	 DWORD PTR __$EHRec$[ebp+8], 0
; File C:\Program Files (x86)\Microsoft Visual Studio\2019\Community\VC\Tools\MSVC\14.29.30133\atlmfc\include\afx.inl

; 212  : 	{ return (m_nMode & CArchive::load) == 0; }

  00127	8b 41 18	 mov	 eax, DWORD PTR [ecx+24]
  0012a	f7 d0		 not	 eax
  0012c	a8 01		 test	 al, 1
; File C:\Program Files (x86)\Microsoft Visual Studio\2019\Community\VC\Tools\MSVC\14.29.30133\atlmfc\include\afxtempl.h

; 73   : 	if (ar.IsStoring())

  0012e	74 38		 je	 SHORT $LN43@Serialize

; 79   : 		pData = pElements;

  00130	8d 45 80	 lea	 eax, DWORD PTR _newData$2[ebp]
  00133	bb 01 00 00 00	 mov	 ebx, 1
  00138	89 45 ec	 mov	 DWORD PTR _pData$1$[ebp], eax
  0013b	0f 1f 44 00 00	 npad	 5
$LL38@Serialize:

; 80   : 		while( nElementsLeft > 0 )
; 81   : 		{
; 82   : 			UINT nElementsToWrite;
; 83   : 
; 84   : 			nElementsToWrite = UINT(__min(nElementsLeft, INT_MAX/sizeof(TYPE)));

  00140	bf 14 ae 47 01	 mov	 edi, 21474836		; 0147ae14H
  00145	3b df		 cmp	 ebx, edi
  00147	0f 42 fb	 cmovb	 edi, ebx

; 85   : 			ar.Write(pData, nElementsToWrite*sizeof(TYPE));

  0014a	6b f7 64	 imul	 esi, edi, 100
  0014d	56		 push	 esi
  0014e	50		 push	 eax
  0014f	e8 00 00 00 00	 call	 ?Write@CArchive@@QAEXPBXI@Z ; CArchive::Write

; 87   : 			pData += nElementsToWrite;

  00154	8b 45 ec	 mov	 eax, DWORD PTR _pData$1$[ebp]
  00157	8b 4d 08	 mov	 ecx, DWORD PTR _ar$[ebp]
  0015a	03 c6		 add	 eax, esi
  0015c	89 45 ec	 mov	 DWORD PTR _pData$1$[ebp], eax
  0015f	2b df		 sub	 ebx, edi
  00161	75 dd		 jne	 SHORT $LL38@Serialize

; 88   : 		}
; 89   : 	}

  00163	8b 5d f0	 mov	 ebx, DWORD PTR _this$1$[ebp]
  00166	eb 3c		 jmp	 SHORT $LN41@Serialize
$LN43@Serialize:

; 96   : 		pData = pElements;

  00168	8d 55 80	 lea	 edx, DWORD PTR _newData$2[ebp]
  0016b	be 01 00 00 00	 mov	 esi, 1
  00170	89 55 ec	 mov	 DWORD PTR _pData$1$[ebp], edx
$LL40@Serialize:

; 98   : 		{
; 99   : 			UINT nElementsToRead;
; 100  : 
; 101  : 			nElementsToRead = UINT(__min(nElementsLeft, INT_MAX/sizeof(TYPE)));

  00173	bf 14 ae 47 01	 mov	 edi, 21474836		; 0147ae14H
  00178	3b f7		 cmp	 esi, edi
  0017a	0f 42 fe	 cmovb	 edi, esi

; 102  : 			ar.EnsureRead(pData, nElementsToRead*sizeof(TYPE));

  0017d	6b c7 64	 imul	 eax, edi, 100
; File C:\Program Files (x86)\Microsoft Visual Studio\2019\Community\VC\Tools\MSVC\14.29.30133\atlmfc\include\afx.inl

; 399  : 	UINT nRead=Read(lpBuf, nCount);

  00180	50		 push	 eax
  00181	52		 push	 edx
; File C:\Program Files (x86)\Microsoft Visual Studio\2019\Community\VC\Tools\MSVC\14.29.30133\atlmfc\include\afxtempl.h

; 102  : 			ar.EnsureRead(pData, nElementsToRead*sizeof(TYPE));

  00182	89 45 e8	 mov	 DWORD PTR _nCount$1$[ebp], eax
; File C:\Program Files (x86)\Microsoft Visual Studio\2019\Community\VC\Tools\MSVC\14.29.30133\atlmfc\include\afx.inl

; 399  : 	UINT nRead=Read(lpBuf, nCount);

  00185	e8 00 00 00 00	 call	 ?Read@CArchive@@QAEIPAXI@Z ; CArchive::Read

; 400  : 	if(nRead!=nCount)

  0018a	8b 4d e8	 mov	 ecx, DWORD PTR _nCount$1$[ebp]
  0018d	3b c1		 cmp	 eax, ecx
  0018f	0f 85 c3 00 00
	00		 jne	 $LN76@Serialize
; File C:\Program Files (x86)\Microsoft Visual Studio\2019\Community\VC\Tools\MSVC\14.29.30133\atlmfc\include\afxtempl.h

; 104  : 			pData += nElementsToRead;

  00195	8b 55 ec	 mov	 edx, DWORD PTR _pData$1$[ebp]
  00198	03 d1		 add	 edx, ecx
  0019a	8b 4d 08	 mov	 ecx, DWORD PTR _ar$[ebp]
  0019d	89 55 ec	 mov	 DWORD PTR _pData$1$[ebp], edx
  001a0	2b f7		 sub	 esi, edi
  001a2	75 cf		 jne	 SHORT $LL40@Serialize
$LN41@Serialize:

; 902  : 	if (m_pNodeFree == NULL)

  001a4	83 7b 10 00	 cmp	 DWORD PTR [ebx+16], 0

; 968  : 	CNode* pNewNode = NewNode(m_pNodeTail, NULL);

  001a8	8b 73 08	 mov	 esi, DWORD PTR [ebx+8]

; 902  : 	if (m_pNodeFree == NULL)

  001ab	75 33		 jne	 SHORT $LN64@Serialize

; 903  : 	{
; 904  : 		// add another block
; 905  : 		CPlex* pNewBlock = CPlex::Create(m_pBlocks, m_nBlockSize,

  001ad	6a 6c		 push	 108			; 0000006cH
  001af	ff 73 18	 push	 DWORD PTR [ebx+24]
  001b2	8d 43 14	 lea	 eax, DWORD PTR [ebx+20]
  001b5	50		 push	 eax
  001b6	e8 00 00 00 00	 call	 ?Create@CPlex@@SGPAU1@AAPAU1@II@Z ; CPlex::Create

; 906  : 				 sizeof(CNode));
; 907  : 
; 908  : 		// chain them into free list
; 909  : 		CNode* pNode = (CNode*) pNewBlock->data();
; 910  : 		// free in reverse order to make it easier to debug
; 911  : 		pNode += m_nBlockSize - 1;

  001bb	8b 53 18	 mov	 edx, DWORD PTR [ebx+24]
  001be	6b ca 6c	 imul	 ecx, edx, 108
  001c1	83 c1 9c	 add	 ecx, -100		; ffffff9cH
  001c4	03 c8		 add	 ecx, eax

; 912  : 		for (INT_PTR i = m_nBlockSize-1; i >= 0; i--, pNode--)

  001c6	83 c2 ff	 add	 edx, -1
  001c9	78 15		 js	 SHORT $LN64@Serialize
  001cb	0f 1f 44 00 00	 npad	 5
$LL61@Serialize:

; 913  : 		{
; 914  : 			pNode->pNext = m_pNodeFree;

  001d0	8b 43 10	 mov	 eax, DWORD PTR [ebx+16]
  001d3	89 01		 mov	 DWORD PTR [ecx], eax

; 915  : 			m_pNodeFree = pNode;

  001d5	89 4b 10	 mov	 DWORD PTR [ebx+16], ecx
  001d8	83 e9 6c	 sub	 ecx, 108		; 0000006cH
  001db	83 ea 01	 sub	 edx, 1
  001de	79 f0		 jns	 SHORT $LL61@Serialize
$LN64@Serialize:

; 916  : 		}
; 917  : 	}
; 918  : 	ENSURE(m_pNodeFree != NULL);  // we must have something

  001e0	8b 7b 10	 mov	 edi, DWORD PTR [ebx+16]
  001e3	85 ff		 test	 edi, edi
  001e5	74 7a		 je	 SHORT $LN77@Serialize

; 919  : 
; 920  : 	CList::CNode* pNode = m_pNodeFree;
; 921  : 	m_pNodeFree = m_pNodeFree->pNext;

  001e7	8b 07		 mov	 eax, DWORD PTR [edi]

; 922  : 	pNode->pPrev = pPrev;
; 923  : 	pNode->pNext = pNext;
; 924  : 	m_nCount++;
; 925  : 	ASSERT(m_nCount > 0);  // make sure we don't overflow
; 926  : 
; 927  : #pragma push_macro("new")
; 928  : #undef new
; 929  : 	::new( (void*)( &pNode->data ) ) TYPE;

  001e9	8d 4f 08	 lea	 ecx, DWORD PTR [edi+8]
  001ec	89 43 10	 mov	 DWORD PTR [ebx+16], eax
  001ef	89 77 04	 mov	 DWORD PTR [edi+4], esi
  001f2	c7 07 00 00 00
	00		 mov	 DWORD PTR [edi], 0
  001f8	ff 43 0c	 inc	 DWORD PTR [ebx+12]
  001fb	ff 15 00 00 00
	00		 call	 DWORD PTR __imp_??0CHorizontalScale@@QAE@XZ

; 969  : 	pNewNode->data = newElement;

  00201	8d 45 80	 lea	 eax, DWORD PTR _newData$2[ebp]
  00204	50		 push	 eax
  00205	8d 4f 08	 lea	 ecx, DWORD PTR [edi+8]
  00208	ff 15 00 00 00
	00		 call	 DWORD PTR __imp_??4CHorizontalScale@@QAEAAV0@ABV0@@Z

; 970  : 	if (m_pNodeTail != NULL)

  0020e	8b 43 08	 mov	 eax, DWORD PTR [ebx+8]
  00211	85 c0		 test	 eax, eax
  00213	74 04		 je	 SHORT $LN55@Serialize

; 971  : 		m_pNodeTail->pNext = pNewNode;

  00215	89 38		 mov	 DWORD PTR [eax], edi
  00217	eb 03		 jmp	 SHORT $LN56@Serialize
$LN55@Serialize:

; 972  : 	else
; 973  : 		m_pNodeHead = pNewNode;

  00219	89 7b 04	 mov	 DWORD PTR [ebx+4], edi
$LN56@Serialize:

; 1195 : 			SerializeElements<TYPE>(ar, newData, 1);
; 1196 : 			AddTail(newData[0]);
; 1197 : 		}

  0021c	ff 35 00 00 00
	00		 push	 DWORD PTR __imp_??1CHorizontalScale@@QAE@XZ
  00222	8d 45 80	 lea	 eax, DWORD PTR _newData$2[ebp]

; 974  : 	m_pNodeTail = pNewNode;

  00225	89 7b 08	 mov	 DWORD PTR [ebx+8], edi

; 1195 : 			SerializeElements<TYPE>(ar, newData, 1);
; 1196 : 			AddTail(newData[0]);
; 1197 : 		}

  00228	6a 01		 push	 1
  0022a	6a 64		 push	 100			; 00000064H
  0022c	50		 push	 eax
  0022d	c7 45 fc ff ff
	ff ff		 mov	 DWORD PTR __$EHRec$[ebp+8], -1
  00234	e8 00 00 00 00	 call	 ??_M@YGXPAXIIP6EX0@Z@Z
  00239	8b 45 e4	 mov	 eax, DWORD PTR _nNewCount$1$[ebp]
  0023c	85 c0		 test	 eax, eax
  0023e	0f 85 bc fe ff
	ff		 jne	 $LL5@Serialize
$LN87@Serialize:

; 1198 : 	}
; 1199 : }

  00244	8b 4d f4	 mov	 ecx, DWORD PTR __$EHRec$[ebp]
  00247	64 89 0d 00 00
	00 00		 mov	 DWORD PTR fs:0, ecx
  0024e	59		 pop	 ecx
  0024f	5f		 pop	 edi
  00250	5e		 pop	 esi
  00251	5b		 pop	 ebx
  00252	8b e5		 mov	 esp, ebp
  00254	5d		 pop	 ebp
  00255	c2 04 00	 ret	 4
$LN76@Serialize:
  00258	6a 00		 push	 0
  0025a	6a 03		 push	 3
  0025c	e8 00 00 00 00	 call	 ?AfxThrowArchiveException@@YGXHPBD@Z ; AfxThrowArchiveException
$LN77@Serialize:
  00261	e8 00 00 00 00	 call	 ?AfxThrowInvalidArgException@@YGXXZ ; AfxThrowInvalidArgException
$LN107@Serialize:
  00266	cc		 int	 3
_TEXT	ENDS
;	COMDAT text$x
text$x	SEGMENT
__unwindfunclet$?Serialize@?$CList@VCHorizontalScale@@AAV1@@@UAEXAAVCArchive@@@Z$0:
  00000	a1 00 00 00 00	 mov	 eax, DWORD PTR __imp_??1CHorizontalScale@@QAE@XZ
  00005	50		 push	 eax
  00006	6a 01		 push	 1
  00008	6a 64		 push	 100			; 00000064H
  0000a	8d 45 80	 lea	 eax, DWORD PTR _newData$2[ebp]
  0000d	50		 push	 eax
  0000e	e8 00 00 00 00	 call	 ??_M@YGXPAXIIP6EX0@Z@Z
  00013	c3		 ret	 0
  00014	cc		 int	 3
  00015	cc		 int	 3
  00016	cc		 int	 3
  00017	cc		 int	 3
  00018	cc		 int	 3
__ehhandler$?Serialize@?$CList@VCHorizontalScale@@AAV1@@@UAEXAAVCArchive@@@Z:
  00019	90		 npad	 1
  0001a	90		 npad	 1
  0001b	8b 54 24 08	 mov	 edx, DWORD PTR [esp+8]
  0001f	8d 42 0c	 lea	 eax, DWORD PTR [edx+12]
  00022	8b 8a 7c ff ff
	ff		 mov	 ecx, DWORD PTR [edx-132]
  00028	33 c8		 xor	 ecx, eax
  0002a	e8 00 00 00 00	 call	 @__security_check_cookie@4
  0002f	b8 00 00 00 00	 mov	 eax, OFFSET __ehfuncinfo$?Serialize@?$CList@VCHorizontalScale@@AAV1@@@UAEXAAVCArchive@@@Z
  00034	e9 00 00 00 00	 jmp	 ___CxxFrameHandler3
text$x	ENDS
?Serialize@?$CList@VCHorizontalScale@@AAV1@@@UAEXAAVCArchive@@@Z ENDP ; CList<CHorizontalScale,CHorizontalScale &>::Serialize
; Function compile flags: /Ogtp
; File C:\Program Files (x86)\Microsoft Visual Studio\2019\Community\VC\Tools\MSVC\14.29.30133\atlmfc\include\afxtempl.h
;	COMDAT ??1?$CList@VCHorizontalScale@@AAV1@@@UAE@XZ
_TEXT	SEGMENT
__$EHRec$ = -12						; size = 12
??1?$CList@VCHorizontalScale@@AAV1@@@UAE@XZ PROC	; CList<CHorizontalScale,CHorizontalScale &>::~CList<CHorizontalScale,CHorizontalScale &>, COMDAT
; _this$ = ecx

; 878  : {

  00000	55		 push	 ebp
  00001	8b ec		 mov	 ebp, esp
  00003	6a ff		 push	 -1
  00005	68 00 00 00 00	 push	 __ehhandler$??1?$CList@VCHorizontalScale@@AAV1@@@UAE@XZ
  0000a	64 a1 00 00 00
	00		 mov	 eax, DWORD PTR fs:0
  00010	50		 push	 eax
  00011	56		 push	 esi
  00012	57		 push	 edi
  00013	a1 00 00 00 00	 mov	 eax, DWORD PTR ___security_cookie
  00018	33 c5		 xor	 eax, ebp
  0001a	50		 push	 eax
  0001b	8d 45 f4	 lea	 eax, DWORD PTR __$EHRec$[ebp]
  0001e	64 a3 00 00 00
	00		 mov	 DWORD PTR fs:0, eax
  00024	8b f9		 mov	 edi, ecx

; 867  : 	for (pNode = m_pNodeHead; pNode != NULL; pNode = pNode->pNext)

  00026	8b 77 04	 mov	 esi, DWORD PTR [edi+4]

; 878  : {

  00029	c7 07 00 00 00
	00		 mov	 DWORD PTR [edi], OFFSET ??_7?$CList@VCHorizontalScale@@AAV1@@@6B@

; 867  : 	for (pNode = m_pNodeHead; pNode != NULL; pNode = pNode->pNext)

  0002f	85 f6		 test	 esi, esi
  00031	74 0f		 je	 SHORT $LN5@CList
$LL6@CList:

; 868  : 		pNode->data.~TYPE();

  00033	8d 4e 08	 lea	 ecx, DWORD PTR [esi+8]
  00036	ff 15 00 00 00
	00		 call	 DWORD PTR __imp_??1CHorizontalScale@@QAE@XZ

; 867  : 	for (pNode = m_pNodeHead; pNode != NULL; pNode = pNode->pNext)

  0003c	8b 36		 mov	 esi, DWORD PTR [esi]
  0003e	85 f6		 test	 esi, esi
  00040	75 f1		 jne	 SHORT $LL6@CList
$LN5@CList:

; 869  : 
; 870  : 	m_nCount = 0;
; 871  : 	m_pNodeHead = m_pNodeTail = m_pNodeFree = NULL;
; 872  : 	m_pBlocks->FreeDataChain();

  00042	8b 4f 14	 mov	 ecx, DWORD PTR [edi+20]
  00045	c7 47 0c 00 00
	00 00		 mov	 DWORD PTR [edi+12], 0
  0004c	c7 47 10 00 00
	00 00		 mov	 DWORD PTR [edi+16], 0
  00053	c7 47 08 00 00
	00 00		 mov	 DWORD PTR [edi+8], 0
  0005a	c7 47 04 00 00
	00 00		 mov	 DWORD PTR [edi+4], 0
  00061	e8 00 00 00 00	 call	 ?FreeDataChain@CPlex@@QAEXXZ ; CPlex::FreeDataChain

; 873  : 	m_pBlocks = NULL;

  00066	c7 47 14 00 00
	00 00		 mov	 DWORD PTR [edi+20], 0

; 879  : 	RemoveAll();
; 880  : 	ASSERT(m_nCount == 0);
; 881  : }

  0006d	8b 4d f4	 mov	 ecx, DWORD PTR __$EHRec$[ebp]
  00070	64 89 0d 00 00
	00 00		 mov	 DWORD PTR fs:0, ecx
  00077	59		 pop	 ecx
  00078	5f		 pop	 edi
  00079	5e		 pop	 esi
  0007a	8b e5		 mov	 esp, ebp
  0007c	5d		 pop	 ebp
  0007d	c3		 ret	 0
  0007e	cc		 int	 3
  0007f	cc		 int	 3
  00080	cc		 int	 3
  00081	cc		 int	 3
  00082	cc		 int	 3
_TEXT	ENDS
;	COMDAT text$x
text$x	SEGMENT
__ehhandler$??1?$CList@VCHorizontalScale@@AAV1@@@UAE@XZ:
  00000	90		 npad	 1
  00001	90		 npad	 1
  00002	8b 54 24 08	 mov	 edx, DWORD PTR [esp+8]
  00006	8d 42 0c	 lea	 eax, DWORD PTR [edx+12]
  00009	8b 4a f4	 mov	 ecx, DWORD PTR [edx-12]
  0000c	33 c8		 xor	 ecx, eax
  0000e	e8 00 00 00 00	 call	 @__security_check_cookie@4
  00013	b8 00 00 00 00	 mov	 eax, OFFSET __ehfuncinfo$??1?$CList@VCHorizontalScale@@AAV1@@@UAE@XZ
  00018	e9 00 00 00 00	 jmp	 ___CxxFrameHandler3
text$x	ENDS
??1?$CList@VCHorizontalScale@@AAV1@@@UAE@XZ ENDP	; CList<CHorizontalScale,CHorizontalScale &>::~CList<CHorizontalScale,CHorizontalScale &>
; Function compile flags: /Ogtp
; File C:\Program Files (x86)\Microsoft Visual Studio\2019\Community\VC\Tools\MSVC\14.29.30133\atlmfc\include\afxtempl.h
;	COMDAT ?NewNode@?$CList@VCHorizontalScale@@AAV1@@@IAEPAUCNode@1@PAU21@0@Z
_TEXT	SEGMENT
_pPrev$ = 8						; size = 4
_pNext$ = 12						; size = 4
?NewNode@?$CList@VCHorizontalScale@@AAV1@@@IAEPAUCNode@1@PAU21@0@Z PROC ; CList<CHorizontalScale,CHorizontalScale &>::NewNode, COMDAT
; _this$ = ecx

; 901  : {

  00000	55		 push	 ebp
  00001	8b ec		 mov	 ebp, esp
  00003	56		 push	 esi
  00004	8b f1		 mov	 esi, ecx
  00006	57		 push	 edi

; 902  : 	if (m_pNodeFree == NULL)

  00007	83 7e 10 00	 cmp	 DWORD PTR [esi+16], 0
  0000b	75 33		 jne	 SHORT $LN7@NewNode

; 903  : 	{
; 904  : 		// add another block
; 905  : 		CPlex* pNewBlock = CPlex::Create(m_pBlocks, m_nBlockSize,

  0000d	6a 6c		 push	 108			; 0000006cH
  0000f	ff 76 18	 push	 DWORD PTR [esi+24]
  00012	8d 46 14	 lea	 eax, DWORD PTR [esi+20]
  00015	50		 push	 eax
  00016	e8 00 00 00 00	 call	 ?Create@CPlex@@SGPAU1@AAPAU1@II@Z ; CPlex::Create

; 906  : 				 sizeof(CNode));
; 907  : 
; 908  : 		// chain them into free list
; 909  : 		CNode* pNode = (CNode*) pNewBlock->data();
; 910  : 		// free in reverse order to make it easier to debug
; 911  : 		pNode += m_nBlockSize - 1;

  0001b	8b 56 18	 mov	 edx, DWORD PTR [esi+24]
  0001e	83 c0 08	 add	 eax, 8
  00021	6b ca 6c	 imul	 ecx, edx, 108
  00024	83 c1 94	 add	 ecx, -108		; ffffff94H
  00027	03 c1		 add	 eax, ecx

; 912  : 		for (INT_PTR i = m_nBlockSize-1; i >= 0; i--, pNode--)

  00029	83 c2 ff	 add	 edx, -1
  0002c	78 12		 js	 SHORT $LN7@NewNode
  0002e	66 90		 npad	 2
$LL4@NewNode:

; 913  : 		{
; 914  : 			pNode->pNext = m_pNodeFree;

  00030	8b 4e 10	 mov	 ecx, DWORD PTR [esi+16]
  00033	89 08		 mov	 DWORD PTR [eax], ecx

; 915  : 			m_pNodeFree = pNode;

  00035	89 46 10	 mov	 DWORD PTR [esi+16], eax
  00038	83 e8 6c	 sub	 eax, 108		; 0000006cH
  0003b	83 ea 01	 sub	 edx, 1
  0003e	79 f0		 jns	 SHORT $LL4@NewNode
$LN7@NewNode:

; 916  : 		}
; 917  : 	}
; 918  : 	ENSURE(m_pNodeFree != NULL);  // we must have something

  00040	8b 7e 10	 mov	 edi, DWORD PTR [esi+16]
  00043	85 ff		 test	 edi, edi
  00045	74 24		 je	 SHORT $LN17@NewNode

; 919  : 
; 920  : 	CList::CNode* pNode = m_pNodeFree;
; 921  : 	m_pNodeFree = m_pNodeFree->pNext;

  00047	8b 07		 mov	 eax, DWORD PTR [edi]

; 922  : 	pNode->pPrev = pPrev;

  00049	8b 4d 08	 mov	 ecx, DWORD PTR _pPrev$[ebp]
  0004c	89 46 10	 mov	 DWORD PTR [esi+16], eax
  0004f	89 4f 04	 mov	 DWORD PTR [edi+4], ecx

; 923  : 	pNode->pNext = pNext;

  00052	8b 4d 0c	 mov	 ecx, DWORD PTR _pNext$[ebp]
  00055	89 0f		 mov	 DWORD PTR [edi], ecx

; 924  : 	m_nCount++;
; 925  : 	ASSERT(m_nCount > 0);  // make sure we don't overflow
; 926  : 
; 927  : #pragma push_macro("new")
; 928  : #undef new
; 929  : 	::new( (void*)( &pNode->data ) ) TYPE;

  00057	8d 4f 08	 lea	 ecx, DWORD PTR [edi+8]
  0005a	ff 46 0c	 inc	 DWORD PTR [esi+12]
  0005d	ff 15 00 00 00
	00		 call	 DWORD PTR __imp_??0CHorizontalScale@@QAE@XZ

; 930  : #pragma pop_macro("new")
; 931  : 	return pNode;

  00063	8b c7		 mov	 eax, edi
  00065	5f		 pop	 edi
  00066	5e		 pop	 esi

; 932  : }

  00067	5d		 pop	 ebp
  00068	c2 08 00	 ret	 8
$LN17@NewNode:

; 916  : 		}
; 917  : 	}
; 918  : 	ENSURE(m_pNodeFree != NULL);  // we must have something

  0006b	e8 00 00 00 00	 call	 ?AfxThrowInvalidArgException@@YGXXZ ; AfxThrowInvalidArgException
$LN15@NewNode:
  00070	cc		 int	 3
?NewNode@?$CList@VCHorizontalScale@@AAV1@@@IAEPAUCNode@1@PAU21@0@Z ENDP ; CList<CHorizontalScale,CHorizontalScale &>::NewNode
_TEXT	ENDS
; Function compile flags: /Ogtp
; File C:\Program Files (x86)\Microsoft Visual Studio\2019\Community\VC\Tools\MSVC\14.29.30133\atlmfc\include\afxtempl.h
;	COMDAT ?RemoveAll@?$CList@VCHorizontalScale@@AAV1@@@QAEXXZ
_TEXT	SEGMENT
?RemoveAll@?$CList@VCHorizontalScale@@AAV1@@@QAEXXZ PROC ; CList<CHorizontalScale,CHorizontalScale &>::RemoveAll, COMDAT
; _this$ = ecx

; 862  : {

  00000	56		 push	 esi
  00001	57		 push	 edi
  00002	8b f9		 mov	 edi, ecx

; 863  : 	ASSERT_VALID(this);
; 864  : 
; 865  : 	// destroy elements
; 866  : 	CNode* pNode;
; 867  : 	for (pNode = m_pNodeHead; pNode != NULL; pNode = pNode->pNext)

  00004	8b 77 04	 mov	 esi, DWORD PTR [edi+4]
  00007	85 f6		 test	 esi, esi
  00009	74 14		 je	 SHORT $LN3@RemoveAll
  0000b	0f 1f 44 00 00	 npad	 5
$LL4@RemoveAll:

; 868  : 		pNode->data.~TYPE();

  00010	8d 4e 08	 lea	 ecx, DWORD PTR [esi+8]
  00013	ff 15 00 00 00
	00		 call	 DWORD PTR __imp_??1CHorizontalScale@@QAE@XZ
  00019	8b 36		 mov	 esi, DWORD PTR [esi]
  0001b	85 f6		 test	 esi, esi
  0001d	75 f1		 jne	 SHORT $LL4@RemoveAll
$LN3@RemoveAll:

; 869  : 
; 870  : 	m_nCount = 0;
; 871  : 	m_pNodeHead = m_pNodeTail = m_pNodeFree = NULL;
; 872  : 	m_pBlocks->FreeDataChain();

  0001f	8b 4f 14	 mov	 ecx, DWORD PTR [edi+20]
  00022	c7 47 0c 00 00
	00 00		 mov	 DWORD PTR [edi+12], 0
  00029	c7 47 10 00 00
	00 00		 mov	 DWORD PTR [edi+16], 0
  00030	c7 47 08 00 00
	00 00		 mov	 DWORD PTR [edi+8], 0
  00037	c7 47 04 00 00
	00 00		 mov	 DWORD PTR [edi+4], 0
  0003e	e8 00 00 00 00	 call	 ?FreeDataChain@CPlex@@QAEXXZ ; CPlex::FreeDataChain

; 873  : 	m_pBlocks = NULL;

  00043	c7 47 14 00 00
	00 00		 mov	 DWORD PTR [edi+20], 0
  0004a	5f		 pop	 edi
  0004b	5e		 pop	 esi

; 874  : }

  0004c	c3		 ret	 0
?RemoveAll@?$CList@VCHorizontalScale@@AAV1@@@QAEXXZ ENDP ; CList<CHorizontalScale,CHorizontalScale &>::RemoveAll
_TEXT	ENDS
; Function compile flags: /Ogtp
; File C:\Program Files (x86)\Microsoft Visual Studio\2019\Community\VC\Tools\MSVC\14.29.30133\atlmfc\include\afxtempl.h
;	COMDAT ?AddTail@?$CList@VCHorizontalScale@@AAV1@@@QAEPAU__POSITION@@AAVCHorizontalScale@@@Z
_TEXT	SEGMENT
_newElement$ = 8					; size = 4
?AddTail@?$CList@VCHorizontalScale@@AAV1@@@QAEPAU__POSITION@@AAVCHorizontalScale@@@Z PROC ; CList<CHorizontalScale,CHorizontalScale &>::AddTail, COMDAT
; _this$ = ecx

; 965  : {

  00000	55		 push	 ebp
  00001	8b ec		 mov	 ebp, esp
  00003	53		 push	 ebx
  00004	56		 push	 esi
  00005	8b f1		 mov	 esi, ecx
  00007	57		 push	 edi

; 902  : 	if (m_pNodeFree == NULL)

  00008	83 7e 10 00	 cmp	 DWORD PTR [esi+16], 0

; 966  : 	ASSERT_VALID(this);
; 967  : 
; 968  : 	CNode* pNewNode = NewNode(m_pNodeTail, NULL);

  0000c	8b 7e 08	 mov	 edi, DWORD PTR [esi+8]

; 902  : 	if (m_pNodeFree == NULL)

  0000f	75 31		 jne	 SHORT $LN11@AddTail

; 903  : 	{
; 904  : 		// add another block
; 905  : 		CPlex* pNewBlock = CPlex::Create(m_pBlocks, m_nBlockSize,

  00011	6a 6c		 push	 108			; 0000006cH
  00013	ff 76 18	 push	 DWORD PTR [esi+24]
  00016	8d 46 14	 lea	 eax, DWORD PTR [esi+20]
  00019	50		 push	 eax
  0001a	e8 00 00 00 00	 call	 ?Create@CPlex@@SGPAU1@AAPAU1@II@Z ; CPlex::Create

; 906  : 				 sizeof(CNode));
; 907  : 
; 908  : 		// chain them into free list
; 909  : 		CNode* pNode = (CNode*) pNewBlock->data();
; 910  : 		// free in reverse order to make it easier to debug
; 911  : 		pNode += m_nBlockSize - 1;

  0001f	8b 56 18	 mov	 edx, DWORD PTR [esi+24]
  00022	83 c0 08	 add	 eax, 8
  00025	6b ca 6c	 imul	 ecx, edx, 108
  00028	83 c1 94	 add	 ecx, -108		; ffffff94H
  0002b	03 c8		 add	 ecx, eax

; 912  : 		for (INT_PTR i = m_nBlockSize-1; i >= 0; i--, pNode--)

  0002d	83 c2 ff	 add	 edx, -1
  00030	78 10		 js	 SHORT $LN11@AddTail
$LL8@AddTail:

; 913  : 		{
; 914  : 			pNode->pNext = m_pNodeFree;

  00032	8b 46 10	 mov	 eax, DWORD PTR [esi+16]
  00035	89 01		 mov	 DWORD PTR [ecx], eax

; 915  : 			m_pNodeFree = pNode;

  00037	89 4e 10	 mov	 DWORD PTR [esi+16], ecx
  0003a	83 e9 6c	 sub	 ecx, 108		; 0000006cH
  0003d	83 ea 01	 sub	 edx, 1
  00040	79 f0		 jns	 SHORT $LL8@AddTail
$LN11@AddTail:

; 916  : 		}
; 917  : 	}
; 918  : 	ENSURE(m_pNodeFree != NULL);  // we must have something

  00042	8b 5e 10	 mov	 ebx, DWORD PTR [esi+16]
  00045	85 db		 test	 ebx, ebx
  00047	74 4a		 je	 SHORT $LN22@AddTail

; 919  : 
; 920  : 	CList::CNode* pNode = m_pNodeFree;
; 921  : 	m_pNodeFree = m_pNodeFree->pNext;

  00049	8b 03		 mov	 eax, DWORD PTR [ebx]

; 922  : 	pNode->pPrev = pPrev;
; 923  : 	pNode->pNext = pNext;
; 924  : 	m_nCount++;
; 925  : 	ASSERT(m_nCount > 0);  // make sure we don't overflow
; 926  : 
; 927  : #pragma push_macro("new")
; 928  : #undef new
; 929  : 	::new( (void*)( &pNode->data ) ) TYPE;

  0004b	8d 4b 08	 lea	 ecx, DWORD PTR [ebx+8]
  0004e	89 46 10	 mov	 DWORD PTR [esi+16], eax
  00051	89 7b 04	 mov	 DWORD PTR [ebx+4], edi
  00054	c7 03 00 00 00
	00		 mov	 DWORD PTR [ebx], 0
  0005a	ff 46 0c	 inc	 DWORD PTR [esi+12]
  0005d	ff 15 00 00 00
	00		 call	 DWORD PTR __imp_??0CHorizontalScale@@QAE@XZ

; 969  : 	pNewNode->data = newElement;

  00063	ff 75 08	 push	 DWORD PTR _newElement$[ebp]
  00066	8d 4b 08	 lea	 ecx, DWORD PTR [ebx+8]
  00069	ff 15 00 00 00
	00		 call	 DWORD PTR __imp_??4CHorizontalScale@@QAEAAV0@ABV0@@Z

; 970  : 	if (m_pNodeTail != NULL)

  0006f	8b 46 08	 mov	 eax, DWORD PTR [esi+8]
  00072	85 c0		 test	 eax, eax
  00074	74 0e		 je	 SHORT $LN2@AddTail

; 971  : 		m_pNodeTail->pNext = pNewNode;

  00076	89 18		 mov	 DWORD PTR [eax], ebx

; 972  : 	else
; 973  : 		m_pNodeHead = pNewNode;
; 974  : 	m_pNodeTail = pNewNode;
; 975  : 	return (POSITION) pNewNode;

  00078	8b c3		 mov	 eax, ebx
  0007a	5f		 pop	 edi
  0007b	89 5e 08	 mov	 DWORD PTR [esi+8], ebx
  0007e	5e		 pop	 esi
  0007f	5b		 pop	 ebx

; 976  : }

  00080	5d		 pop	 ebp
  00081	c2 04 00	 ret	 4
$LN2@AddTail:

; 972  : 	else
; 973  : 		m_pNodeHead = pNewNode;
; 974  : 	m_pNodeTail = pNewNode;
; 975  : 	return (POSITION) pNewNode;

  00084	5f		 pop	 edi
  00085	89 5e 04	 mov	 DWORD PTR [esi+4], ebx
  00088	8b c3		 mov	 eax, ebx
  0008a	89 5e 08	 mov	 DWORD PTR [esi+8], ebx
  0008d	5e		 pop	 esi
  0008e	5b		 pop	 ebx

; 976  : }

  0008f	5d		 pop	 ebp
  00090	c2 04 00	 ret	 4
$LN22@AddTail:

; 918  : 	ENSURE(m_pNodeFree != NULL);  // we must have something

  00093	e8 00 00 00 00	 call	 ?AfxThrowInvalidArgException@@YGXXZ ; AfxThrowInvalidArgException
$LN20@AddTail:
  00098	cc		 int	 3
?AddTail@?$CList@VCHorizontalScale@@AAV1@@@QAEPAU__POSITION@@AAVCHorizontalScale@@@Z ENDP ; CList<CHorizontalScale,CHorizontalScale &>::AddTail
_TEXT	ENDS
; Function compile flags: /Ogtp
;	COMDAT ??1CHorizontalScalePtrDataList@@QAE@XZ
_TEXT	SEGMENT
??1CHorizontalScalePtrDataList@@QAE@XZ PROC		; CHorizontalScalePtrDataList::~CHorizontalScalePtrDataList, COMDAT
; _this$ = ecx
  00000	83 c1 10	 add	 ecx, 16			; 00000010H
  00003	e9 00 00 00 00	 jmp	 ??1?$CList@VCHorizontalScalePtrData@@AAV1@@@UAE@XZ ; CList<CHorizontalScalePtrData,CHorizontalScalePtrData &>::~CList<CHorizontalScalePtrData,CHorizontalScalePtrData &>
??1CHorizontalScalePtrDataList@@QAE@XZ ENDP		; CHorizontalScalePtrDataList::~CHorizontalScalePtrDataList
_TEXT	ENDS
; Function compile flags: /Ogtp
; File C:\Program Files (x86)\Microsoft Visual Studio\2019\Community\VC\Tools\MSVC\14.29.30133\atlmfc\include\afx.inl
;	COMDAT ??_G?$CList@VCHorizontalScalePtrData@@AAV1@@@UAEPAXI@Z
_TEXT	SEGMENT
___flags$ = 8						; size = 4
??_G?$CList@VCHorizontalScalePtrData@@AAV1@@@UAEPAXI@Z PROC ; CList<CHorizontalScalePtrData,CHorizontalScalePtrData &>::`scalar deleting destructor', COMDAT
; _this$ = ecx
  00000	55		 push	 ebp
  00001	8b ec		 mov	 ebp, esp
  00003	56		 push	 esi
  00004	8b f1		 mov	 esi, ecx
  00006	e8 00 00 00 00	 call	 ??1?$CList@VCHorizontalScalePtrData@@AAV1@@@UAE@XZ ; CList<CHorizontalScalePtrData,CHorizontalScalePtrData &>::~CList<CHorizontalScalePtrData,CHorizontalScalePtrData &>
  0000b	8b 45 08	 mov	 eax, DWORD PTR ___flags$[ebp]
  0000e	a8 01		 test	 al, 1
  00010	74 1f		 je	 SHORT $LN9@scalar
  00012	a8 04		 test	 al, 4
  00014	75 10		 jne	 SHORT $LN3@scalar

; 112  : 	{ ::operator delete(p); }

  00016	56		 push	 esi
  00017	e8 00 00 00 00	 call	 ??3@YAXPAX@Z		; operator delete
  0001c	83 c4 04	 add	 esp, 4
  0001f	8b c6		 mov	 eax, esi
  00021	5e		 pop	 esi
  00022	5d		 pop	 ebp
  00023	c2 04 00	 ret	 4
$LN3@scalar:
  00026	6a 1c		 push	 28			; 0000001cH
  00028	56		 push	 esi
  00029	e8 00 00 00 00	 call	 ?__global_delete@@YAXPAXI@Z ; __global_delete
  0002e	83 c4 08	 add	 esp, 8
$LN9@scalar:
  00031	8b c6		 mov	 eax, esi
  00033	5e		 pop	 esi
  00034	5d		 pop	 ebp
  00035	c2 04 00	 ret	 4
??_G?$CList@VCHorizontalScalePtrData@@AAV1@@@UAEPAXI@Z ENDP ; CList<CHorizontalScalePtrData,CHorizontalScalePtrData &>::`scalar deleting destructor'
_TEXT	ENDS
; Function compile flags: /Ogtp
; File C:\Program Files (x86)\Microsoft Visual Studio\2019\Community\VC\Tools\MSVC\14.29.30133\atlmfc\include\afxtempl.h
; File C:\Program Files (x86)\Microsoft Visual Studio\2019\Community\VC\Tools\MSVC\14.29.30133\atlmfc\include\afx.inl
; File C:\Program Files (x86)\Microsoft Visual Studio\2019\Community\VC\Tools\MSVC\14.29.30133\atlmfc\include\afxtempl.h
; File C:\Program Files (x86)\Microsoft Visual Studio\2019\Community\VC\Tools\MSVC\14.29.30133\atlmfc\include\afx.inl
; File C:\Program Files (x86)\Microsoft Visual Studio\2019\Community\VC\Tools\MSVC\14.29.30133\atlmfc\include\afxtempl.h
; File C:\Program Files (x86)\Microsoft Visual Studio\2019\Community\VC\Tools\MSVC\14.29.30133\atlmfc\include\afx.inl
; File C:\Program Files (x86)\Microsoft Visual Studio\2019\Community\VC\Tools\MSVC\14.29.30133\atlmfc\include\afxtempl.h
; File C:\Program Files (x86)\Microsoft Visual Studio\2019\Community\VC\Tools\MSVC\14.29.30133\atlmfc\include\afx.inl
; File C:\Program Files (x86)\Microsoft Visual Studio\2019\Community\VC\Tools\MSVC\14.29.30133\atlmfc\include\afxtempl.h
; File C:\Program Files (x86)\Microsoft Visual Studio\2019\Community\VC\Tools\MSVC\14.29.30133\atlmfc\include\afx.inl
; File C:\Program Files (x86)\Microsoft Visual Studio\2019\Community\VC\Tools\MSVC\14.29.30133\atlmfc\include\afxtempl.h
; File C:\Program Files (x86)\Microsoft Visual Studio\2019\Community\VC\Tools\MSVC\14.29.30133\atlmfc\include\afx.inl
; File C:\Program Files (x86)\Microsoft Visual Studio\2019\Community\VC\Tools\MSVC\14.29.30133\atlmfc\include\afxtempl.h
;	COMDAT ?Serialize@?$CList@VCHorizontalScalePtrData@@AAV1@@@UAEXAAVCArchive@@@Z
_TEXT	SEGMENT
_newData$2 = -32					; size = 8
_nNewCount$1$ = -24					; size = 4
_pData$1$ = -20						; size = 4
_pData$1$ = -20						; size = 4
_pNode$1$ = -20						; size = 4
_nElementsLeft$1$ = -16					; size = 4
_this$1$ = -16						; size = 4
__$EHRec$ = -12						; size = 12
_ar$ = 8						; size = 4
?Serialize@?$CList@VCHorizontalScalePtrData@@AAV1@@@UAEXAAVCArchive@@@Z PROC ; CList<CHorizontalScalePtrData,CHorizontalScalePtrData &>::Serialize, COMDAT
; _this$ = ecx

; 1169 : {

  00000	55		 push	 ebp
  00001	8b ec		 mov	 ebp, esp
  00003	6a ff		 push	 -1
  00005	68 00 00 00 00	 push	 __ehhandler$?Serialize@?$CList@VCHorizontalScalePtrData@@AAV1@@@UAEXAAVCArchive@@@Z
  0000a	64 a1 00 00 00
	00		 mov	 eax, DWORD PTR fs:0
  00010	50		 push	 eax
  00011	83 ec 14	 sub	 esp, 20			; 00000014H
  00014	53		 push	 ebx
  00015	56		 push	 esi
  00016	57		 push	 edi
  00017	a1 00 00 00 00	 mov	 eax, DWORD PTR ___security_cookie
  0001c	33 c5		 xor	 eax, ebp
  0001e	50		 push	 eax
  0001f	8d 45 f4	 lea	 eax, DWORD PTR __$EHRec$[ebp]
  00022	64 a3 00 00 00
	00		 mov	 DWORD PTR fs:0, eax
  00028	8b d9		 mov	 ebx, ecx
  0002a	89 5d f0	 mov	 DWORD PTR _this$1$[ebp], ebx
; File C:\Program Files (x86)\Microsoft Visual Studio\2019\Community\VC\Tools\MSVC\14.29.30133\atlmfc\include\afx.inl

; 212  : 	{ return (m_nMode & CArchive::load) == 0; }

  0002d	8b 4d 08	 mov	 ecx, DWORD PTR _ar$[ebp]
  00030	8b 41 18	 mov	 eax, DWORD PTR [ecx+24]
  00033	f7 d0		 not	 eax
  00035	a8 01		 test	 al, 1
; File C:\Program Files (x86)\Microsoft Visual Studio\2019\Community\VC\Tools\MSVC\14.29.30133\atlmfc\include\afxtempl.h

; 1174 : 	if (ar.IsStoring())

  00037	0f 84 b9 00 00
	00		 je	 $LN7@Serialize

; 1175 : 	{
; 1176 : 		ar.WriteCount(m_nCount);

  0003d	ff 73 0c	 push	 DWORD PTR [ebx+12]
  00040	e8 00 00 00 00	 call	 ?WriteCount@CArchive@@QAEXK@Z ; CArchive::WriteCount

; 1177 : 		for (CNode* pNode = m_pNodeHead; pNode != NULL; pNode = pNode->pNext)

  00045	8b 43 04	 mov	 eax, DWORD PTR [ebx+4]
  00048	89 45 ec	 mov	 DWORD PTR _pNode$1$[ebp], eax
  0004b	85 c0		 test	 eax, eax
  0004d	0f 84 ee 01 00
	00		 je	 $LN87@Serialize
$LL4@Serialize:

; 1178 : 		{
; 1179 : 			ASSERT(AfxIsValidAddress(pNode, sizeof(CNode)));
; 1180 : 			TYPE* pData;
; 1181 : 			/*
; 1182 : 			 * in some cases the & operator might be overloaded, and we cannot use it to obtain
; 1183 : 			 * the address of a given object.  We then use the following trick to get the address
; 1184 : 			 */
; 1185 : 			pData = reinterpret_cast< TYPE* >( &reinterpret_cast< int& >( static_cast< TYPE& >( pNode->data ) ) );

  00053	8d 70 08	 lea	 esi, DWORD PTR [eax+8]

; 68   : 	ENSURE(nCount == 0 || pElements != NULL);

  00056	85 f6		 test	 esi, esi
  00058	0f 84 00 02 00
	00		 je	 $LN77@Serialize
; File C:\Program Files (x86)\Microsoft Visual Studio\2019\Community\VC\Tools\MSVC\14.29.30133\atlmfc\include\afx.inl

; 212  : 	{ return (m_nMode & CArchive::load) == 0; }

  0005e	8b 4d 08	 mov	 ecx, DWORD PTR _ar$[ebp]
  00061	8b 41 18	 mov	 eax, DWORD PTR [ecx+24]
  00064	f7 d0		 not	 eax
  00066	a8 01		 test	 al, 1
; File C:\Program Files (x86)\Microsoft Visual Studio\2019\Community\VC\Tools\MSVC\14.29.30133\atlmfc\include\afxtempl.h

; 73   : 	if (ar.IsStoring())

  00068	74 33		 je	 SHORT $LN22@Serialize

; 74   : 	{
; 75   : 		TYPE* pData;
; 76   : 		UINT_PTR nElementsLeft;
; 77   : 
; 78   : 		nElementsLeft = nCount;

  0006a	b8 01 00 00 00	 mov	 eax, 1
  0006f	89 45 f0	 mov	 DWORD PTR _nElementsLeft$1$[ebp], eax
$LL17@Serialize:

; 79   : 		pData = pElements;
; 80   : 		while( nElementsLeft > 0 )
; 81   : 		{
; 82   : 			UINT nElementsToWrite;
; 83   : 
; 84   : 			nElementsToWrite = UINT(__min(nElementsLeft, INT_MAX/sizeof(TYPE)));

  00072	bb ff ff ff 0f	 mov	 ebx, 268435455		; 0fffffffH
  00077	3b c3		 cmp	 eax, ebx
  00079	0f 42 d8	 cmovb	 ebx, eax

; 85   : 			ar.Write(pData, nElementsToWrite*sizeof(TYPE));

  0007c	8d 3c dd 00 00
	00 00		 lea	 edi, DWORD PTR [ebx*8]
  00083	57		 push	 edi
  00084	56		 push	 esi
  00085	e8 00 00 00 00	 call	 ?Write@CArchive@@QAEXPBXI@Z ; CArchive::Write

; 86   : 			nElementsLeft -= nElementsToWrite;

  0008a	8b 45 f0	 mov	 eax, DWORD PTR _nElementsLeft$1$[ebp]

; 87   : 			pData += nElementsToWrite;

  0008d	03 f7		 add	 esi, edi
  0008f	8b 4d 08	 mov	 ecx, DWORD PTR _ar$[ebp]
  00092	2b c3		 sub	 eax, ebx
  00094	89 45 f0	 mov	 DWORD PTR _nElementsLeft$1$[ebp], eax
  00097	85 c0		 test	 eax, eax
  00099	75 d7		 jne	 SHORT $LL17@Serialize

; 88   : 		}
; 89   : 	}

  0009b	eb 35		 jmp	 SHORT $LN2@Serialize
$LN22@Serialize:

; 90   : 	else
; 91   : 	{
; 92   : 		TYPE* pData;
; 93   : 		UINT_PTR nElementsLeft;
; 94   : 
; 95   : 		nElementsLeft = nCount;

  0009d	bf 01 00 00 00	 mov	 edi, 1
$LL19@Serialize:

; 98   : 		{
; 99   : 			UINT nElementsToRead;
; 100  : 
; 101  : 			nElementsToRead = UINT(__min(nElementsLeft, INT_MAX/sizeof(TYPE)));

  000a2	bb ff ff ff 0f	 mov	 ebx, 268435455		; 0fffffffH
  000a7	3b fb		 cmp	 edi, ebx
  000a9	0f 42 df	 cmovb	 ebx, edi

; 102  : 			ar.EnsureRead(pData, nElementsToRead*sizeof(TYPE));

  000ac	8d 04 dd 00 00
	00 00		 lea	 eax, DWORD PTR [ebx*8]
; File C:\Program Files (x86)\Microsoft Visual Studio\2019\Community\VC\Tools\MSVC\14.29.30133\atlmfc\include\afx.inl

; 399  : 	UINT nRead=Read(lpBuf, nCount);

  000b3	50		 push	 eax
  000b4	56		 push	 esi
  000b5	e8 00 00 00 00	 call	 ?Read@CArchive@@QAEIPAXI@Z ; CArchive::Read

; 400  : 	if(nRead!=nCount)

  000ba	8d 0c dd 00 00
	00 00		 lea	 ecx, DWORD PTR [ebx*8]
  000c1	3b c1		 cmp	 eax, ecx
  000c3	0f 85 8c 01 00
	00		 jne	 $LN76@Serialize
; File C:\Program Files (x86)\Microsoft Visual Studio\2019\Community\VC\Tools\MSVC\14.29.30133\atlmfc\include\afxtempl.h

; 97   : 		while( nElementsLeft > 0 )

  000c9	03 f1		 add	 esi, ecx
  000cb	8b 4d 08	 mov	 ecx, DWORD PTR _ar$[ebp]

; 103  : 			nElementsLeft -= nElementsToRead;

  000ce	2b fb		 sub	 edi, ebx
  000d0	75 d0		 jne	 SHORT $LL19@Serialize
$LN2@Serialize:

; 1177 : 		for (CNode* pNode = m_pNodeHead; pNode != NULL; pNode = pNode->pNext)

  000d2	8b 45 ec	 mov	 eax, DWORD PTR _pNode$1$[ebp]
  000d5	8b 00		 mov	 eax, DWORD PTR [eax]
  000d7	89 45 ec	 mov	 DWORD PTR _pNode$1$[ebp], eax
  000da	85 c0		 test	 eax, eax
  000dc	0f 85 71 ff ff
	ff		 jne	 $LL4@Serialize

; 1198 : 	}
; 1199 : }

  000e2	8b 4d f4	 mov	 ecx, DWORD PTR __$EHRec$[ebp]
  000e5	64 89 0d 00 00
	00 00		 mov	 DWORD PTR fs:0, ecx
  000ec	59		 pop	 ecx
  000ed	5f		 pop	 edi
  000ee	5e		 pop	 esi
  000ef	5b		 pop	 ebx
  000f0	8b e5		 mov	 esp, ebp
  000f2	5d		 pop	 ebp
  000f3	c2 04 00	 ret	 4
$LN7@Serialize:

; 1186 : 			SerializeElements<TYPE>(ar, pData, 1);
; 1187 : 		}
; 1188 : 	}
; 1189 : 	else
; 1190 : 	{
; 1191 : 		DWORD_PTR nNewCount = ar.ReadCount();

  000f6	e8 00 00 00 00	 call	 ?ReadCount@CArchive@@QAEKXZ ; CArchive::ReadCount

; 1192 : 		while (nNewCount--)

  000fb	85 c0		 test	 eax, eax
  000fd	0f 84 3e 01 00
	00		 je	 $LN87@Serialize
$LL5@Serialize:

; 1194 : 			TYPE newData[1];

  00103	68 00 00 00 00	 push	 OFFSET ??1CHorizontalScalePtrData@@QAE@XZ
  00108	68 00 00 00 00	 push	 OFFSET ??0CHorizontalScalePtrData@@QAE@XZ ; CHorizontalScalePtrData::CHorizontalScalePtrData
  0010d	48		 dec	 eax
  0010e	6a 01		 push	 1
  00110	89 45 e8	 mov	 DWORD PTR _nNewCount$1$[ebp], eax
  00113	8d 45 e0	 lea	 eax, DWORD PTR _newData$2[ebp]
  00116	6a 08		 push	 8
  00118	50		 push	 eax
  00119	e8 00 00 00 00	 call	 ??_L@YGXPAXIIP6EX0@Z1@Z
; File C:\Program Files (x86)\Microsoft Visual Studio\2019\Community\VC\Tools\MSVC\14.29.30133\atlmfc\include\afx.inl

; 212  : 	{ return (m_nMode & CArchive::load) == 0; }

  0011e	8b 4d 08	 mov	 ecx, DWORD PTR _ar$[ebp]
; File C:\Program Files (x86)\Microsoft Visual Studio\2019\Community\VC\Tools\MSVC\14.29.30133\atlmfc\include\afxtempl.h

; 1194 : 			TYPE newData[1];

  00121	c7 45 fc 00 00
	00 00		 mov	 DWORD PTR __$EHRec$[ebp+8], 0
; File C:\Program Files (x86)\Microsoft Visual Studio\2019\Community\VC\Tools\MSVC\14.29.30133\atlmfc\include\afx.inl

; 212  : 	{ return (m_nMode & CArchive::load) == 0; }

  00128	8b 41 18	 mov	 eax, DWORD PTR [ecx+24]
  0012b	f7 d0		 not	 eax
  0012d	a8 01		 test	 al, 1
; File C:\Program Files (x86)\Microsoft Visual Studio\2019\Community\VC\Tools\MSVC\14.29.30133\atlmfc\include\afxtempl.h

; 73   : 	if (ar.IsStoring())

  0012f	8d 45 e0	 lea	 eax, DWORD PTR _newData$2[ebp]
  00132	89 45 ec	 mov	 DWORD PTR _pData$1$[ebp], eax
  00135	74 35		 je	 SHORT $LN43@Serialize

; 74   : 	{
; 75   : 		TYPE* pData;
; 76   : 		UINT_PTR nElementsLeft;
; 77   : 
; 78   : 		nElementsLeft = nCount;

  00137	bb 01 00 00 00	 mov	 ebx, 1
  0013c	0f 1f 40 00	 npad	 4
$LL38@Serialize:

; 79   : 		pData = pElements;
; 80   : 		while( nElementsLeft > 0 )
; 81   : 		{
; 82   : 			UINT nElementsToWrite;
; 83   : 
; 84   : 			nElementsToWrite = UINT(__min(nElementsLeft, INT_MAX/sizeof(TYPE)));

  00140	bf ff ff ff 0f	 mov	 edi, 268435455		; 0fffffffH
  00145	3b df		 cmp	 ebx, edi
  00147	0f 42 fb	 cmovb	 edi, ebx

; 85   : 			ar.Write(pData, nElementsToWrite*sizeof(TYPE));

  0014a	8d 34 fd 00 00
	00 00		 lea	 esi, DWORD PTR [edi*8]
  00151	56		 push	 esi
  00152	50		 push	 eax
  00153	e8 00 00 00 00	 call	 ?Write@CArchive@@QAEXPBXI@Z ; CArchive::Write

; 87   : 			pData += nElementsToWrite;

  00158	8b 45 ec	 mov	 eax, DWORD PTR _pData$1$[ebp]
  0015b	8b 4d 08	 mov	 ecx, DWORD PTR _ar$[ebp]
  0015e	03 c6		 add	 eax, esi
  00160	89 45 ec	 mov	 DWORD PTR _pData$1$[ebp], eax
  00163	2b df		 sub	 ebx, edi
  00165	75 d9		 jne	 SHORT $LL38@Serialize

; 88   : 		}
; 89   : 	}

  00167	8b 5d f0	 mov	 ebx, DWORD PTR _this$1$[ebp]
  0016a	eb 3b		 jmp	 SHORT $LN41@Serialize
$LN43@Serialize:

; 90   : 	else
; 91   : 	{
; 92   : 		TYPE* pData;
; 93   : 		UINT_PTR nElementsLeft;
; 94   : 
; 95   : 		nElementsLeft = nCount;

  0016c	be 01 00 00 00	 mov	 esi, 1
$LL40@Serialize:

; 98   : 		{
; 99   : 			UINT nElementsToRead;
; 100  : 
; 101  : 			nElementsToRead = UINT(__min(nElementsLeft, INT_MAX/sizeof(TYPE)));

  00171	bf ff ff ff 0f	 mov	 edi, 268435455		; 0fffffffH
  00176	3b f7		 cmp	 esi, edi
  00178	0f 42 fe	 cmovb	 edi, esi

; 102  : 			ar.EnsureRead(pData, nElementsToRead*sizeof(TYPE));

  0017b	8d 14 fd 00 00
	00 00		 lea	 edx, DWORD PTR [edi*8]
; File C:\Program Files (x86)\Microsoft Visual Studio\2019\Community\VC\Tools\MSVC\14.29.30133\atlmfc\include\afx.inl

; 399  : 	UINT nRead=Read(lpBuf, nCount);

  00182	52		 push	 edx
  00183	50		 push	 eax
  00184	e8 00 00 00 00	 call	 ?Read@CArchive@@QAEIPAXI@Z ; CArchive::Read

; 400  : 	if(nRead!=nCount)

  00189	8d 0c fd 00 00
	00 00		 lea	 ecx, DWORD PTR [edi*8]
  00190	3b c1		 cmp	 eax, ecx
  00192	0f 85 bd 00 00
	00		 jne	 $LN76@Serialize
; File C:\Program Files (x86)\Microsoft Visual Studio\2019\Community\VC\Tools\MSVC\14.29.30133\atlmfc\include\afxtempl.h

; 104  : 			pData += nElementsToRead;

  00198	8b 45 ec	 mov	 eax, DWORD PTR _pData$1$[ebp]
  0019b	03 c1		 add	 eax, ecx
  0019d	8b 4d 08	 mov	 ecx, DWORD PTR _ar$[ebp]
  001a0	89 45 ec	 mov	 DWORD PTR _pData$1$[ebp], eax
  001a3	2b f7		 sub	 esi, edi
  001a5	75 ca		 jne	 SHORT $LL40@Serialize
$LN41@Serialize:

; 902  : 	if (m_pNodeFree == NULL)

  001a7	83 7b 10 00	 cmp	 DWORD PTR [ebx+16], 0

; 968  : 	CNode* pNewNode = NewNode(m_pNodeTail, NULL);

  001ab	8b 73 08	 mov	 esi, DWORD PTR [ebx+8]

; 902  : 	if (m_pNodeFree == NULL)

  001ae	75 30		 jne	 SHORT $LN64@Serialize

; 903  : 	{
; 904  : 		// add another block
; 905  : 		CPlex* pNewBlock = CPlex::Create(m_pBlocks, m_nBlockSize,

  001b0	6a 10		 push	 16			; 00000010H
  001b2	ff 73 18	 push	 DWORD PTR [ebx+24]
  001b5	8d 43 14	 lea	 eax, DWORD PTR [ebx+20]
  001b8	50		 push	 eax
  001b9	e8 00 00 00 00	 call	 ?Create@CPlex@@SGPAU1@AAPAU1@II@Z ; CPlex::Create

; 906  : 				 sizeof(CNode));
; 907  : 
; 908  : 		// chain them into free list
; 909  : 		CNode* pNode = (CNode*) pNewBlock->data();
; 910  : 		// free in reverse order to make it easier to debug
; 911  : 		pNode += m_nBlockSize - 1;

  001be	8b 53 18	 mov	 edx, DWORD PTR [ebx+24]
  001c1	8b ca		 mov	 ecx, edx
  001c3	c1 e1 04	 shl	 ecx, 4
  001c6	83 c1 f8	 add	 ecx, -8			; fffffff8H
  001c9	03 c8		 add	 ecx, eax

; 912  : 		for (INT_PTR i = m_nBlockSize-1; i >= 0; i--, pNode--)

  001cb	83 c2 ff	 add	 edx, -1
  001ce	78 10		 js	 SHORT $LN64@Serialize
$LL61@Serialize:

; 913  : 		{
; 914  : 			pNode->pNext = m_pNodeFree;

  001d0	8b 43 10	 mov	 eax, DWORD PTR [ebx+16]
  001d3	89 01		 mov	 DWORD PTR [ecx], eax

; 915  : 			m_pNodeFree = pNode;

  001d5	89 4b 10	 mov	 DWORD PTR [ebx+16], ecx
  001d8	83 e9 10	 sub	 ecx, 16			; 00000010H
  001db	83 ea 01	 sub	 edx, 1
  001de	79 f0		 jns	 SHORT $LL61@Serialize
$LN64@Serialize:

; 916  : 		}
; 917  : 	}
; 918  : 	ENSURE(m_pNodeFree != NULL);  // we must have something

  001e0	8b 7b 10	 mov	 edi, DWORD PTR [ebx+16]
  001e3	85 ff		 test	 edi, edi
  001e5	74 77		 je	 SHORT $LN77@Serialize

; 919  : 
; 920  : 	CList::CNode* pNode = m_pNodeFree;
; 921  : 	m_pNodeFree = m_pNodeFree->pNext;

  001e7	8b 07		 mov	 eax, DWORD PTR [edi]

; 922  : 	pNode->pPrev = pPrev;
; 923  : 	pNode->pNext = pNext;
; 924  : 	m_nCount++;
; 925  : 	ASSERT(m_nCount > 0);  // make sure we don't overflow
; 926  : 
; 927  : #pragma push_macro("new")
; 928  : #undef new
; 929  : 	::new( (void*)( &pNode->data ) ) TYPE;

  001e9	8d 4f 08	 lea	 ecx, DWORD PTR [edi+8]
  001ec	89 43 10	 mov	 DWORD PTR [ebx+16], eax
  001ef	89 77 04	 mov	 DWORD PTR [edi+4], esi
  001f2	c7 07 00 00 00
	00		 mov	 DWORD PTR [edi], 0
  001f8	ff 43 0c	 inc	 DWORD PTR [ebx+12]
  001fb	e8 00 00 00 00	 call	 ??0CHorizontalScalePtrData@@QAE@XZ ; CHorizontalScalePtrData::CHorizontalScalePtrData

; 969  : 	pNewNode->data = newElement;

  00200	8d 45 e0	 lea	 eax, DWORD PTR _newData$2[ebp]
  00203	50		 push	 eax
  00204	8d 4f 08	 lea	 ecx, DWORD PTR [edi+8]
  00207	e8 00 00 00 00	 call	 ??4CHorizontalScalePtrData@@QAEAAV0@ABV0@@Z ; CHorizontalScalePtrData::operator=

; 970  : 	if (m_pNodeTail != NULL)

  0020c	8b 43 08	 mov	 eax, DWORD PTR [ebx+8]
  0020f	85 c0		 test	 eax, eax
  00211	74 04		 je	 SHORT $LN55@Serialize

; 971  : 		m_pNodeTail->pNext = pNewNode;

  00213	89 38		 mov	 DWORD PTR [eax], edi
  00215	eb 03		 jmp	 SHORT $LN56@Serialize
$LN55@Serialize:

; 972  : 	else
; 973  : 		m_pNodeHead = pNewNode;

  00217	89 7b 04	 mov	 DWORD PTR [ebx+4], edi
$LN56@Serialize:

; 1195 : 			SerializeElements<TYPE>(ar, newData, 1);
; 1196 : 			AddTail(newData[0]);
; 1197 : 		}

  0021a	68 00 00 00 00	 push	 OFFSET ??1CHorizontalScalePtrData@@QAE@XZ
  0021f	6a 01		 push	 1
  00221	6a 08		 push	 8
  00223	8d 45 e0	 lea	 eax, DWORD PTR _newData$2[ebp]

; 974  : 	m_pNodeTail = pNewNode;

  00226	89 7b 08	 mov	 DWORD PTR [ebx+8], edi

; 1195 : 			SerializeElements<TYPE>(ar, newData, 1);
; 1196 : 			AddTail(newData[0]);
; 1197 : 		}

  00229	50		 push	 eax
  0022a	c7 45 fc ff ff
	ff ff		 mov	 DWORD PTR __$EHRec$[ebp+8], -1
  00231	e8 00 00 00 00	 call	 ??_M@YGXPAXIIP6EX0@Z@Z
  00236	8b 45 e8	 mov	 eax, DWORD PTR _nNewCount$1$[ebp]
  00239	85 c0		 test	 eax, eax
  0023b	0f 85 c2 fe ff
	ff		 jne	 $LL5@Serialize
$LN87@Serialize:

; 1198 : 	}
; 1199 : }

  00241	8b 4d f4	 mov	 ecx, DWORD PTR __$EHRec$[ebp]
  00244	64 89 0d 00 00
	00 00		 mov	 DWORD PTR fs:0, ecx
  0024b	59		 pop	 ecx
  0024c	5f		 pop	 edi
  0024d	5e		 pop	 esi
  0024e	5b		 pop	 ebx
  0024f	8b e5		 mov	 esp, ebp
  00251	5d		 pop	 ebp
  00252	c2 04 00	 ret	 4
$LN76@Serialize:
  00255	6a 00		 push	 0
  00257	6a 03		 push	 3
  00259	e8 00 00 00 00	 call	 ?AfxThrowArchiveException@@YGXHPBD@Z ; AfxThrowArchiveException
$LN77@Serialize:
  0025e	e8 00 00 00 00	 call	 ?AfxThrowInvalidArgException@@YGXXZ ; AfxThrowInvalidArgException
$LN107@Serialize:
  00263	cc		 int	 3
_TEXT	ENDS
;	COMDAT text$x
text$x	SEGMENT
__unwindfunclet$?Serialize@?$CList@VCHorizontalScalePtrData@@AAV1@@@UAEXAAVCArchive@@@Z$0:
  00000	68 00 00 00 00	 push	 OFFSET ??1CHorizontalScalePtrData@@QAE@XZ
  00005	6a 01		 push	 1
  00007	6a 08		 push	 8
  00009	8d 45 e0	 lea	 eax, DWORD PTR _newData$2[ebp]
  0000c	50		 push	 eax
  0000d	e8 00 00 00 00	 call	 ??_M@YGXPAXIIP6EX0@Z@Z
  00012	c3		 ret	 0
  00013	cc		 int	 3
  00014	cc		 int	 3
  00015	cc		 int	 3
  00016	cc		 int	 3
  00017	cc		 int	 3
__ehhandler$?Serialize@?$CList@VCHorizontalScalePtrData@@AAV1@@@UAEXAAVCArchive@@@Z:
  00018	90		 npad	 1
  00019	90		 npad	 1
  0001a	8b 54 24 08	 mov	 edx, DWORD PTR [esp+8]
  0001e	8d 42 0c	 lea	 eax, DWORD PTR [edx+12]
  00021	8b 4a dc	 mov	 ecx, DWORD PTR [edx-36]
  00024	33 c8		 xor	 ecx, eax
  00026	e8 00 00 00 00	 call	 @__security_check_cookie@4
  0002b	b8 00 00 00 00	 mov	 eax, OFFSET __ehfuncinfo$?Serialize@?$CList@VCHorizontalScalePtrData@@AAV1@@@UAEXAAVCArchive@@@Z
  00030	e9 00 00 00 00	 jmp	 ___CxxFrameHandler3
text$x	ENDS
?Serialize@?$CList@VCHorizontalScalePtrData@@AAV1@@@UAEXAAVCArchive@@@Z ENDP ; CList<CHorizontalScalePtrData,CHorizontalScalePtrData &>::Serialize
; Function compile flags: /Ogtp
; File C:\Program Files (x86)\Microsoft Visual Studio\2019\Community\VC\Tools\MSVC\14.29.30133\atlmfc\include\afxtempl.h
;	COMDAT ??1?$CList@VCHorizontalScalePtrData@@AAV1@@@UAE@XZ
_TEXT	SEGMENT
__$EHRec$ = -12						; size = 12
??1?$CList@VCHorizontalScalePtrData@@AAV1@@@UAE@XZ PROC	; CList<CHorizontalScalePtrData,CHorizontalScalePtrData &>::~CList<CHorizontalScalePtrData,CHorizontalScalePtrData &>, COMDAT
; _this$ = ecx

; 878  : {

  00000	55		 push	 ebp
  00001	8b ec		 mov	 ebp, esp
  00003	6a ff		 push	 -1
  00005	68 00 00 00 00	 push	 __ehhandler$??1?$CList@VCHorizontalScalePtrData@@AAV1@@@UAE@XZ
  0000a	64 a1 00 00 00
	00		 mov	 eax, DWORD PTR fs:0
  00010	50		 push	 eax
  00011	56		 push	 esi
  00012	57		 push	 edi
  00013	a1 00 00 00 00	 mov	 eax, DWORD PTR ___security_cookie
  00018	33 c5		 xor	 eax, ebp
  0001a	50		 push	 eax
  0001b	8d 45 f4	 lea	 eax, DWORD PTR __$EHRec$[ebp]
  0001e	64 a3 00 00 00
	00		 mov	 DWORD PTR fs:0, eax
  00024	8b f9		 mov	 edi, ecx

; 867  : 	for (pNode = m_pNodeHead; pNode != NULL; pNode = pNode->pNext)

  00026	8b 77 04	 mov	 esi, DWORD PTR [edi+4]

; 878  : {

  00029	c7 07 00 00 00
	00		 mov	 DWORD PTR [edi], OFFSET ??_7?$CList@VCHorizontalScalePtrData@@AAV1@@@6B@

; 867  : 	for (pNode = m_pNodeHead; pNode != NULL; pNode = pNode->pNext)

  0002f	85 f6		 test	 esi, esi
  00031	74 0f		 je	 SHORT $LN5@CList
$LL6@CList:

; 868  : 		pNode->data.~TYPE();

  00033	8d 4e 0c	 lea	 ecx, DWORD PTR [esi+12]
  00036	ff 15 00 00 00
	00		 call	 DWORD PTR __imp_??1?$CStringT@DV?$StrTraitMFC_DLL@DV?$ChTraitsCRT@D@ATL@@@@@ATL@@QAE@XZ

; 867  : 	for (pNode = m_pNodeHead; pNode != NULL; pNode = pNode->pNext)

  0003c	8b 36		 mov	 esi, DWORD PTR [esi]
  0003e	85 f6		 test	 esi, esi
  00040	75 f1		 jne	 SHORT $LL6@CList
$LN5@CList:

; 869  : 
; 870  : 	m_nCount = 0;
; 871  : 	m_pNodeHead = m_pNodeTail = m_pNodeFree = NULL;
; 872  : 	m_pBlocks->FreeDataChain();

  00042	8b 4f 14	 mov	 ecx, DWORD PTR [edi+20]
  00045	c7 47 0c 00 00
	00 00		 mov	 DWORD PTR [edi+12], 0
  0004c	c7 47 10 00 00
	00 00		 mov	 DWORD PTR [edi+16], 0
  00053	c7 47 08 00 00
	00 00		 mov	 DWORD PTR [edi+8], 0
  0005a	c7 47 04 00 00
	00 00		 mov	 DWORD PTR [edi+4], 0
  00061	e8 00 00 00 00	 call	 ?FreeDataChain@CPlex@@QAEXXZ ; CPlex::FreeDataChain

; 873  : 	m_pBlocks = NULL;

  00066	c7 47 14 00 00
	00 00		 mov	 DWORD PTR [edi+20], 0

; 879  : 	RemoveAll();
; 880  : 	ASSERT(m_nCount == 0);
; 881  : }

  0006d	8b 4d f4	 mov	 ecx, DWORD PTR __$EHRec$[ebp]
  00070	64 89 0d 00 00
	00 00		 mov	 DWORD PTR fs:0, ecx
  00077	59		 pop	 ecx
  00078	5f		 pop	 edi
  00079	5e		 pop	 esi
  0007a	8b e5		 mov	 esp, ebp
  0007c	5d		 pop	 ebp
  0007d	c3		 ret	 0
  0007e	cc		 int	 3
  0007f	cc		 int	 3
  00080	cc		 int	 3
  00081	cc		 int	 3
  00082	cc		 int	 3
_TEXT	ENDS
;	COMDAT text$x
text$x	SEGMENT
__ehhandler$??1?$CList@VCHorizontalScalePtrData@@AAV1@@@UAE@XZ:
  00000	90		 npad	 1
  00001	90		 npad	 1
  00002	8b 54 24 08	 mov	 edx, DWORD PTR [esp+8]
  00006	8d 42 0c	 lea	 eax, DWORD PTR [edx+12]
  00009	8b 4a f4	 mov	 ecx, DWORD PTR [edx-12]
  0000c	33 c8		 xor	 ecx, eax
  0000e	e8 00 00 00 00	 call	 @__security_check_cookie@4
  00013	b8 00 00 00 00	 mov	 eax, OFFSET __ehfuncinfo$??1?$CList@VCHorizontalScalePtrData@@AAV1@@@UAE@XZ
  00018	e9 00 00 00 00	 jmp	 ___CxxFrameHandler3
text$x	ENDS
??1?$CList@VCHorizontalScalePtrData@@AAV1@@@UAE@XZ ENDP	; CList<CHorizontalScalePtrData,CHorizontalScalePtrData &>::~CList<CHorizontalScalePtrData,CHorizontalScalePtrData &>
; Function compile flags: /Ogtp
; File C:\Program Files (x86)\Microsoft Visual Studio\2019\Community\VC\Tools\MSVC\14.29.30133\atlmfc\include\afxtempl.h
;	COMDAT ?NewNode@?$CList@VCHorizontalScalePtrData@@AAV1@@@IAEPAUCNode@1@PAU21@0@Z
_TEXT	SEGMENT
_pPrev$ = 8						; size = 4
_pNext$ = 12						; size = 4
?NewNode@?$CList@VCHorizontalScalePtrData@@AAV1@@@IAEPAUCNode@1@PAU21@0@Z PROC ; CList<CHorizontalScalePtrData,CHorizontalScalePtrData &>::NewNode, COMDAT
; _this$ = ecx

; 901  : {

  00000	55		 push	 ebp
  00001	8b ec		 mov	 ebp, esp
  00003	56		 push	 esi
  00004	8b f1		 mov	 esi, ecx
  00006	57		 push	 edi

; 902  : 	if (m_pNodeFree == NULL)

  00007	83 7e 10 00	 cmp	 DWORD PTR [esi+16], 0
  0000b	75 33		 jne	 SHORT $LN7@NewNode

; 903  : 	{
; 904  : 		// add another block
; 905  : 		CPlex* pNewBlock = CPlex::Create(m_pBlocks, m_nBlockSize,

  0000d	6a 10		 push	 16			; 00000010H
  0000f	ff 76 18	 push	 DWORD PTR [esi+24]
  00012	8d 46 14	 lea	 eax, DWORD PTR [esi+20]
  00015	50		 push	 eax
  00016	e8 00 00 00 00	 call	 ?Create@CPlex@@SGPAU1@AAPAU1@II@Z ; CPlex::Create

; 906  : 				 sizeof(CNode));
; 907  : 
; 908  : 		// chain them into free list
; 909  : 		CNode* pNode = (CNode*) pNewBlock->data();
; 910  : 		// free in reverse order to make it easier to debug
; 911  : 		pNode += m_nBlockSize - 1;

  0001b	8b 56 18	 mov	 edx, DWORD PTR [esi+24]
  0001e	83 c0 08	 add	 eax, 8
  00021	8b ca		 mov	 ecx, edx
  00023	c1 e1 04	 shl	 ecx, 4
  00026	83 c1 f0	 add	 ecx, -16		; fffffff0H
  00029	03 c1		 add	 eax, ecx

; 912  : 		for (INT_PTR i = m_nBlockSize-1; i >= 0; i--, pNode--)

  0002b	83 c2 ff	 add	 edx, -1
  0002e	78 10		 js	 SHORT $LN7@NewNode
$LL4@NewNode:

; 913  : 		{
; 914  : 			pNode->pNext = m_pNodeFree;

  00030	8b 4e 10	 mov	 ecx, DWORD PTR [esi+16]
  00033	89 08		 mov	 DWORD PTR [eax], ecx

; 915  : 			m_pNodeFree = pNode;

  00035	89 46 10	 mov	 DWORD PTR [esi+16], eax
  00038	83 e8 10	 sub	 eax, 16			; 00000010H
  0003b	83 ea 01	 sub	 edx, 1
  0003e	79 f0		 jns	 SHORT $LL4@NewNode
$LN7@NewNode:

; 916  : 		}
; 917  : 	}
; 918  : 	ENSURE(m_pNodeFree != NULL);  // we must have something

  00040	8b 7e 10	 mov	 edi, DWORD PTR [esi+16]
  00043	85 ff		 test	 edi, edi
  00045	74 23		 je	 SHORT $LN17@NewNode

; 919  : 
; 920  : 	CList::CNode* pNode = m_pNodeFree;
; 921  : 	m_pNodeFree = m_pNodeFree->pNext;

  00047	8b 07		 mov	 eax, DWORD PTR [edi]

; 922  : 	pNode->pPrev = pPrev;

  00049	8b 4d 08	 mov	 ecx, DWORD PTR _pPrev$[ebp]
  0004c	89 46 10	 mov	 DWORD PTR [esi+16], eax
  0004f	89 4f 04	 mov	 DWORD PTR [edi+4], ecx

; 923  : 	pNode->pNext = pNext;

  00052	8b 4d 0c	 mov	 ecx, DWORD PTR _pNext$[ebp]
  00055	89 0f		 mov	 DWORD PTR [edi], ecx

; 924  : 	m_nCount++;
; 925  : 	ASSERT(m_nCount > 0);  // make sure we don't overflow
; 926  : 
; 927  : #pragma push_macro("new")
; 928  : #undef new
; 929  : 	::new( (void*)( &pNode->data ) ) TYPE;

  00057	8d 4f 08	 lea	 ecx, DWORD PTR [edi+8]
  0005a	ff 46 0c	 inc	 DWORD PTR [esi+12]
  0005d	e8 00 00 00 00	 call	 ??0CHorizontalScalePtrData@@QAE@XZ ; CHorizontalScalePtrData::CHorizontalScalePtrData

; 930  : #pragma pop_macro("new")
; 931  : 	return pNode;

  00062	8b c7		 mov	 eax, edi
  00064	5f		 pop	 edi
  00065	5e		 pop	 esi

; 932  : }

  00066	5d		 pop	 ebp
  00067	c2 08 00	 ret	 8
$LN17@NewNode:

; 916  : 		}
; 917  : 	}
; 918  : 	ENSURE(m_pNodeFree != NULL);  // we must have something

  0006a	e8 00 00 00 00	 call	 ?AfxThrowInvalidArgException@@YGXXZ ; AfxThrowInvalidArgException
$LN15@NewNode:
  0006f	cc		 int	 3
?NewNode@?$CList@VCHorizontalScalePtrData@@AAV1@@@IAEPAUCNode@1@PAU21@0@Z ENDP ; CList<CHorizontalScalePtrData,CHorizontalScalePtrData &>::NewNode
_TEXT	ENDS
; Function compile flags: /Ogtp
; File C:\Program Files (x86)\Microsoft Visual Studio\2019\Community\VC\Tools\MSVC\14.29.30133\atlmfc\include\afxtempl.h
;	COMDAT ?RemoveAll@?$CList@VCHorizontalScalePtrData@@AAV1@@@QAEXXZ
_TEXT	SEGMENT
?RemoveAll@?$CList@VCHorizontalScalePtrData@@AAV1@@@QAEXXZ PROC ; CList<CHorizontalScalePtrData,CHorizontalScalePtrData &>::RemoveAll, COMDAT
; _this$ = ecx

; 862  : {

  00000	56		 push	 esi
  00001	57		 push	 edi
  00002	8b f9		 mov	 edi, ecx

; 863  : 	ASSERT_VALID(this);
; 864  : 
; 865  : 	// destroy elements
; 866  : 	CNode* pNode;
; 867  : 	for (pNode = m_pNodeHead; pNode != NULL; pNode = pNode->pNext)

  00004	8b 77 04	 mov	 esi, DWORD PTR [edi+4]
  00007	85 f6		 test	 esi, esi
  00009	74 14		 je	 SHORT $LN3@RemoveAll
  0000b	0f 1f 44 00 00	 npad	 5
$LL4@RemoveAll:

; 868  : 		pNode->data.~TYPE();

  00010	8d 4e 0c	 lea	 ecx, DWORD PTR [esi+12]
  00013	ff 15 00 00 00
	00		 call	 DWORD PTR __imp_??1?$CStringT@DV?$StrTraitMFC_DLL@DV?$ChTraitsCRT@D@ATL@@@@@ATL@@QAE@XZ
  00019	8b 36		 mov	 esi, DWORD PTR [esi]
  0001b	85 f6		 test	 esi, esi
  0001d	75 f1		 jne	 SHORT $LL4@RemoveAll
$LN3@RemoveAll:

; 869  : 
; 870  : 	m_nCount = 0;
; 871  : 	m_pNodeHead = m_pNodeTail = m_pNodeFree = NULL;
; 872  : 	m_pBlocks->FreeDataChain();

  0001f	8b 4f 14	 mov	 ecx, DWORD PTR [edi+20]
  00022	c7 47 0c 00 00
	00 00		 mov	 DWORD PTR [edi+12], 0
  00029	c7 47 10 00 00
	00 00		 mov	 DWORD PTR [edi+16], 0
  00030	c7 47 08 00 00
	00 00		 mov	 DWORD PTR [edi+8], 0
  00037	c7 47 04 00 00
	00 00		 mov	 DWORD PTR [edi+4], 0
  0003e	e8 00 00 00 00	 call	 ?FreeDataChain@CPlex@@QAEXXZ ; CPlex::FreeDataChain

; 873  : 	m_pBlocks = NULL;

  00043	c7 47 14 00 00
	00 00		 mov	 DWORD PTR [edi+20], 0
  0004a	5f		 pop	 edi
  0004b	5e		 pop	 esi

; 874  : }

  0004c	c3		 ret	 0
?RemoveAll@?$CList@VCHorizontalScalePtrData@@AAV1@@@QAEXXZ ENDP ; CList<CHorizontalScalePtrData,CHorizontalScalePtrData &>::RemoveAll
_TEXT	ENDS
; Function compile flags: /Ogtp
; File C:\Program Files (x86)\Microsoft Visual Studio\2019\Community\VC\Tools\MSVC\14.29.30133\atlmfc\include\afxtempl.h
;	COMDAT ?AddTail@?$CList@VCHorizontalScalePtrData@@AAV1@@@QAEPAU__POSITION@@AAVCHorizontalScalePtrData@@@Z
_TEXT	SEGMENT
_newElement$ = 8					; size = 4
?AddTail@?$CList@VCHorizontalScalePtrData@@AAV1@@@QAEPAU__POSITION@@AAVCHorizontalScalePtrData@@@Z PROC ; CList<CHorizontalScalePtrData,CHorizontalScalePtrData &>::AddTail, COMDAT
; _this$ = ecx

; 965  : {

  00000	55		 push	 ebp
  00001	8b ec		 mov	 ebp, esp
  00003	53		 push	 ebx
  00004	56		 push	 esi
  00005	8b f1		 mov	 esi, ecx
  00007	57		 push	 edi

; 902  : 	if (m_pNodeFree == NULL)

  00008	83 7e 10 00	 cmp	 DWORD PTR [esi+16], 0

; 966  : 	ASSERT_VALID(this);
; 967  : 
; 968  : 	CNode* pNewNode = NewNode(m_pNodeTail, NULL);

  0000c	8b 7e 08	 mov	 edi, DWORD PTR [esi+8]

; 902  : 	if (m_pNodeFree == NULL)

  0000f	75 33		 jne	 SHORT $LN11@AddTail

; 903  : 	{
; 904  : 		// add another block
; 905  : 		CPlex* pNewBlock = CPlex::Create(m_pBlocks, m_nBlockSize,

  00011	6a 10		 push	 16			; 00000010H
  00013	ff 76 18	 push	 DWORD PTR [esi+24]
  00016	8d 46 14	 lea	 eax, DWORD PTR [esi+20]
  00019	50		 push	 eax
  0001a	e8 00 00 00 00	 call	 ?Create@CPlex@@SGPAU1@AAPAU1@II@Z ; CPlex::Create

; 906  : 				 sizeof(CNode));
; 907  : 
; 908  : 		// chain them into free list
; 909  : 		CNode* pNode = (CNode*) pNewBlock->data();
; 910  : 		// free in reverse order to make it easier to debug
; 911  : 		pNode += m_nBlockSize - 1;

  0001f	8b 56 18	 mov	 edx, DWORD PTR [esi+24]
  00022	83 c0 08	 add	 eax, 8
  00025	8b ca		 mov	 ecx, edx
  00027	c1 e1 04	 shl	 ecx, 4
  0002a	83 c1 f0	 add	 ecx, -16		; fffffff0H
  0002d	03 c8		 add	 ecx, eax

; 912  : 		for (INT_PTR i = m_nBlockSize-1; i >= 0; i--, pNode--)

  0002f	83 c2 ff	 add	 edx, -1
  00032	78 10		 js	 SHORT $LN11@AddTail
$LL8@AddTail:

; 913  : 		{
; 914  : 			pNode->pNext = m_pNodeFree;

  00034	8b 46 10	 mov	 eax, DWORD PTR [esi+16]
  00037	89 01		 mov	 DWORD PTR [ecx], eax

; 915  : 			m_pNodeFree = pNode;

  00039	89 4e 10	 mov	 DWORD PTR [esi+16], ecx
  0003c	83 e9 10	 sub	 ecx, 16			; 00000010H
  0003f	83 ea 01	 sub	 edx, 1
  00042	79 f0		 jns	 SHORT $LL8@AddTail
$LN11@AddTail:

; 916  : 		}
; 917  : 	}
; 918  : 	ENSURE(m_pNodeFree != NULL);  // we must have something

  00044	8b 5e 10	 mov	 ebx, DWORD PTR [esi+16]
  00047	85 db		 test	 ebx, ebx
  00049	74 48		 je	 SHORT $LN22@AddTail

; 919  : 
; 920  : 	CList::CNode* pNode = m_pNodeFree;
; 921  : 	m_pNodeFree = m_pNodeFree->pNext;

  0004b	8b 03		 mov	 eax, DWORD PTR [ebx]

; 922  : 	pNode->pPrev = pPrev;
; 923  : 	pNode->pNext = pNext;
; 924  : 	m_nCount++;
; 925  : 	ASSERT(m_nCount > 0);  // make sure we don't overflow
; 926  : 
; 927  : #pragma push_macro("new")
; 928  : #undef new
; 929  : 	::new( (void*)( &pNode->data ) ) TYPE;

  0004d	8d 4b 08	 lea	 ecx, DWORD PTR [ebx+8]
  00050	89 46 10	 mov	 DWORD PTR [esi+16], eax
  00053	89 7b 04	 mov	 DWORD PTR [ebx+4], edi
  00056	c7 03 00 00 00
	00		 mov	 DWORD PTR [ebx], 0
  0005c	ff 46 0c	 inc	 DWORD PTR [esi+12]
  0005f	e8 00 00 00 00	 call	 ??0CHorizontalScalePtrData@@QAE@XZ ; CHorizontalScalePtrData::CHorizontalScalePtrData

; 969  : 	pNewNode->data = newElement;

  00064	ff 75 08	 push	 DWORD PTR _newElement$[ebp]
  00067	8d 4b 08	 lea	 ecx, DWORD PTR [ebx+8]
  0006a	e8 00 00 00 00	 call	 ??4CHorizontalScalePtrData@@QAEAAV0@ABV0@@Z ; CHorizontalScalePtrData::operator=

; 970  : 	if (m_pNodeTail != NULL)

  0006f	8b 46 08	 mov	 eax, DWORD PTR [esi+8]
  00072	85 c0		 test	 eax, eax
  00074	74 0e		 je	 SHORT $LN2@AddTail

; 971  : 		m_pNodeTail->pNext = pNewNode;

  00076	89 18		 mov	 DWORD PTR [eax], ebx

; 972  : 	else
; 973  : 		m_pNodeHead = pNewNode;
; 974  : 	m_pNodeTail = pNewNode;
; 975  : 	return (POSITION) pNewNode;

  00078	8b c3		 mov	 eax, ebx
  0007a	5f		 pop	 edi
  0007b	89 5e 08	 mov	 DWORD PTR [esi+8], ebx
  0007e	5e		 pop	 esi
  0007f	5b		 pop	 ebx

; 976  : }

  00080	5d		 pop	 ebp
  00081	c2 04 00	 ret	 4
$LN2@AddTail:

; 972  : 	else
; 973  : 		m_pNodeHead = pNewNode;
; 974  : 	m_pNodeTail = pNewNode;
; 975  : 	return (POSITION) pNewNode;

  00084	5f		 pop	 edi
  00085	89 5e 04	 mov	 DWORD PTR [esi+4], ebx
  00088	8b c3		 mov	 eax, ebx
  0008a	89 5e 08	 mov	 DWORD PTR [esi+8], ebx
  0008d	5e		 pop	 esi
  0008e	5b		 pop	 ebx

; 976  : }

  0008f	5d		 pop	 ebp
  00090	c2 04 00	 ret	 4
$LN22@AddTail:

; 918  : 	ENSURE(m_pNodeFree != NULL);  // we must have something

  00093	e8 00 00 00 00	 call	 ?AfxThrowInvalidArgException@@YGXXZ ; AfxThrowInvalidArgException
$LN20@AddTail:
  00098	cc		 int	 3
?AddTail@?$CList@VCHorizontalScalePtrData@@AAV1@@@QAEPAU__POSITION@@AAVCHorizontalScalePtrData@@@Z ENDP ; CList<CHorizontalScalePtrData,CHorizontalScalePtrData &>::AddTail
_TEXT	ENDS
; Function compile flags: /Ogtp
;	COMDAT ??1CHorizontalScalePtrData@@QAE@XZ
_TEXT	SEGMENT
??1CHorizontalScalePtrData@@QAE@XZ PROC			; CHorizontalScalePtrData::~CHorizontalScalePtrData, COMDAT
; _this$ = ecx
  00000	83 c1 04	 add	 ecx, 4
  00003	ff 25 00 00 00
	00		 jmp	 DWORD PTR __imp_??1?$CStringT@DV?$StrTraitMFC_DLL@DV?$ChTraitsCRT@D@ATL@@@@@ATL@@QAE@XZ
??1CHorizontalScalePtrData@@QAE@XZ ENDP			; CHorizontalScalePtrData::~CHorizontalScalePtrData
_TEXT	ENDS
; Function compile flags: /Ogtp
; File D:\git\src\IBK\IBK_DRFN\ProjSrc\SrcChartEx\ChartOCX\Include_Chart\Dll_Load\IMetaTable.h
; File C:\Program Files (x86)\Microsoft Visual Studio\2019\Community\VC\Tools\MSVC\14.29.30133\atlmfc\include\afxwin1.inl
; File D:\git\src\IBK\IBK_DRFN\ProjSrc\SrcChartEx\ChartOCX\Include_Chart\Dll_Load\IMetaTable.h
;	COMDAT ??1CMultiLanguageResourceSetter@@QAE@XZ
_TEXT	SEGMENT
__$EHRec$ = -12						; size = 12
??1CMultiLanguageResourceSetter@@QAE@XZ PROC		; CMultiLanguageResourceSetter::~CMultiLanguageResourceSetter, COMDAT
; _this$ = ecx

; 1036 : 	{

  00000	55		 push	 ebp
  00001	8b ec		 mov	 ebp, esp
  00003	6a ff		 push	 -1
  00005	68 00 00 00 00	 push	 __ehhandler$??1CMultiLanguageResourceSetter@@QAE@XZ
  0000a	64 a1 00 00 00
	00		 mov	 eax, DWORD PTR fs:0
  00010	50		 push	 eax
  00011	56		 push	 esi
  00012	a1 00 00 00 00	 mov	 eax, DWORD PTR ___security_cookie
  00017	33 c5		 xor	 eax, ebp
  00019	50		 push	 eax
  0001a	8d 45 f4	 lea	 eax, DWORD PTR __$EHRec$[ebp]
  0001d	64 a3 00 00 00
	00		 mov	 DWORD PTR fs:0, eax

; 1037 : 		AfxSetResourceHandle( m_hInstance);

  00023	8b 31		 mov	 esi, DWORD PTR [ecx]
; File C:\Program Files (x86)\Microsoft Visual Studio\2019\Community\VC\Tools\MSVC\14.29.30133\atlmfc\include\afxwin1.inl

; 27   : 	{ ASSERT(hInstResource != NULL); afxCurrentResourceHandle = hInstResource; }

  00025	e8 00 00 00 00	 call	 ?AfxGetModuleState@@YGPAVAFX_MODULE_STATE@@XZ ; AfxGetModuleState
  0002a	89 70 0c	 mov	 DWORD PTR [eax+12], esi
; File D:\git\src\IBK\IBK_DRFN\ProjSrc\SrcChartEx\ChartOCX\Include_Chart\Dll_Load\IMetaTable.h

; 1038 : 	}

  0002d	8b 4d f4	 mov	 ecx, DWORD PTR __$EHRec$[ebp]
  00030	64 89 0d 00 00
	00 00		 mov	 DWORD PTR fs:0, ecx
  00037	59		 pop	 ecx
  00038	5e		 pop	 esi
  00039	8b e5		 mov	 esp, ebp
  0003b	5d		 pop	 ebp
  0003c	c3		 ret	 0
  0003d	cc		 int	 3
  0003e	cc		 int	 3
  0003f	cc		 int	 3
  00040	cc		 int	 3
  00041	cc		 int	 3
_TEXT	ENDS
;	COMDAT text$x
text$x	SEGMENT
__ehhandler$??1CMultiLanguageResourceSetter@@QAE@XZ:
  00000	90		 npad	 1
  00001	90		 npad	 1
  00002	8b 54 24 08	 mov	 edx, DWORD PTR [esp+8]
  00006	8d 42 0c	 lea	 eax, DWORD PTR [edx+12]
  00009	8b 4a f8	 mov	 ecx, DWORD PTR [edx-8]
  0000c	33 c8		 xor	 ecx, eax
  0000e	e8 00 00 00 00	 call	 @__security_check_cookie@4
  00013	b8 00 00 00 00	 mov	 eax, OFFSET __ehfuncinfo$??1CMultiLanguageResourceSetter@@QAE@XZ
  00018	e9 00 00 00 00	 jmp	 ___CxxFrameHandler3
text$x	ENDS
??1CMultiLanguageResourceSetter@@QAE@XZ ENDP		; CMultiLanguageResourceSetter::~CMultiLanguageResourceSetter
; Function compile flags: /Ogtp
; File D:\git\src\IBK\IBK_DRFN\ProjSrc\SrcChartEx\ChartOCX\Include_Chart\Dll_Load\IMetaTable.h
;	COMDAT ?LoadResourceDLL@IMetaTable@@QAEPAUHINSTANCE__@@PAUHWND__@@PAU2@@Z
_TEXT	SEGMENT
_p1$ = 8						; size = 4
_p2$ = 12						; size = 4
?LoadResourceDLL@IMetaTable@@QAEPAUHINSTANCE__@@PAUHWND__@@PAU2@@Z PROC ; IMetaTable::LoadResourceDLL, COMDAT
; _this$ = ecx

; 936  : 	DECLARE_FUNCTION2(	LoadResourceDLL,				HMODULE, AfxGetStaticModuleState()->m_hCurrentInstanceHandle, HWND, HMODULE);

  00000	55		 push	 ebp
  00001	8b ec		 mov	 ebp, esp
  00003	56		 push	 esi
  00004	8b f1		 mov	 esi, ecx
  00006	8b 46 04	 mov	 eax, DWORD PTR [esi+4]
  00009	85 c0		 test	 eax, eax
  0000b	74 4d		 je	 SHORT $LN4@LoadResour
  0000d	57		 push	 edi
  0000e	bf 80 0d 00 00	 mov	 edi, 3456		; 00000d80H
  00013	66 3b be 94 00
	00 00		 cmp	 di, WORD PTR [esi+148]
  0001a	74 23		 je	 SHORT $LN3@LoadResour
  0001c	68 00 00 00 00	 push	 OFFSET ??_C@_0BA@ENJOCHIO@LoadResourceDLL@
  00021	50		 push	 eax
  00022	c7 86 90 00 00
	00 00 00 00 00	 mov	 DWORD PTR [esi+144], 0
  0002c	ff 15 00 00 00
	00		 call	 DWORD PTR __imp__GetProcAddress@8
  00032	89 86 90 00 00
	00		 mov	 DWORD PTR [esi+144], eax
  00038	66 89 be 94 00
	00 00		 mov	 WORD PTR [esi+148], di
$LN3@LoadResour:
  0003f	8b 86 90 00 00
	00		 mov	 eax, DWORD PTR [esi+144]
  00045	5f		 pop	 edi
  00046	85 c0		 test	 eax, eax
  00048	74 10		 je	 SHORT $LN4@LoadResour
  0004a	ff 75 0c	 push	 DWORD PTR _p2$[ebp]
  0004d	ff 75 08	 push	 DWORD PTR _p1$[ebp]
  00050	ff d0		 call	 eax
  00052	83 c4 08	 add	 esp, 8
  00055	5e		 pop	 esi
  00056	5d		 pop	 ebp
  00057	c2 08 00	 ret	 8
$LN4@LoadResour:
  0005a	e8 00 00 00 00	 call	 ?AfxGetStaticModuleState@@YGPAVAFX_MODULE_STATE@@XZ ; AfxGetStaticModuleState
  0005f	5e		 pop	 esi
  00060	8b 40 08	 mov	 eax, DWORD PTR [eax+8]
  00063	5d		 pop	 ebp
  00064	c2 08 00	 ret	 8
?LoadResourceDLL@IMetaTable@@QAEPAUHINSTANCE__@@PAUHWND__@@PAU2@@Z ENDP ; IMetaTable::LoadResourceDLL
_TEXT	ENDS
; Function compile flags: /Ogtp
; File D:\git\src\IBK\IBK_DRFN\ProjSrc\SrcChartEx\ChartOCX\ChartObject\ScaleTool.cpp
; File C:\Program Files (x86)\Microsoft Visual Studio\2019\Community\VC\Tools\MSVC\14.29.30133\atlmfc\include\afxwin2.inl
; File D:\git\src\IBK\IBK_DRFN\ProjSrc\SrcChartEx\ChartOCX\ChartObject\ScaleTool.cpp
; File C:\Program Files (x86)\Microsoft Visual Studio\2019\Community\VC\Tools\MSVC\14.29.30133\atlmfc\include\afxwin1.inl
; File D:\git\src\IBK\IBK_DRFN\ProjSrc\SrcChartEx\ChartOCX\Include_Chart\Dll_Load\IMetaTable.h
; File C:\Program Files (x86)\Microsoft Visual Studio\2019\Community\VC\Tools\MSVC\14.29.30133\atlmfc\include\afxwin1.inl
; File D:\git\src\IBK\IBK_DRFN\ProjSrc\SrcChartEx\ChartOCX\ChartObject\ScaleTool.cpp
; File D:\git\src\IBK\IBK_DRFN\ProjSrc\SrcChartEx\ChartOCX\Include_Chart\Dll_Load\IMetaTable.h
; File C:\Program Files (x86)\Microsoft Visual Studio\2019\Community\VC\Tools\MSVC\14.29.30133\atlmfc\include\afxwin1.inl
; File D:\git\src\IBK\IBK_DRFN\ProjSrc\SrcChartEx\ChartOCX\ChartObject\ScaleTool.cpp
; File C:\Program Files (x86)\Microsoft Visual Studio\2019\Community\VC\Tools\MSVC\14.29.30133\atlmfc\include\afxwin1.inl
; File D:\git\src\IBK\IBK_DRFN\ProjSrc\SrcChartEx\ChartOCX\ChartObject\ScaleTool.cpp
;	COMDAT ?ShowVertScaleSettingDlg@CVertScaleTool@@IAE_NPAVCMainBlock@@H@Z
_TEXT	SEGMENT
_dlg$ = -736						; size = 600
_gsi$2 = -136						; size = 68
_vertScalePtrDataList$ = -68				; size = 48
_this$1$ = -20						; size = 4
_strValue$ = -16					; size = 4
__$EHRec$ = -12						; size = 12
_pParent$1$ = 8						; size = 4
_pMainBlock$ = 8					; size = 4
___mlrs__$ = 12						; size = 4
_p_nSelectedIndex$ = 12					; size = 4
?ShowVertScaleSettingDlg@CVertScaleTool@@IAE_NPAVCMainBlock@@H@Z PROC ; CVertScaleTool::ShowVertScaleSettingDlg, COMDAT
; _this$ = ecx

; 264  : {

  00000	55		 push	 ebp
  00001	8b ec		 mov	 ebp, esp
  00003	6a ff		 push	 -1
  00005	68 00 00 00 00	 push	 __ehhandler$?ShowVertScaleSettingDlg@CVertScaleTool@@IAE_NPAVCMainBlock@@H@Z
  0000a	64 a1 00 00 00
	00		 mov	 eax, DWORD PTR fs:0
  00010	50		 push	 eax
  00011	81 ec d4 02 00
	00		 sub	 esp, 724		; 000002d4H
  00017	53		 push	 ebx
  00018	56		 push	 esi
  00019	57		 push	 edi
  0001a	a1 00 00 00 00	 mov	 eax, DWORD PTR ___security_cookie
  0001f	33 c5		 xor	 eax, ebp
  00021	50		 push	 eax
  00022	8d 45 f4	 lea	 eax, DWORD PTR __$EHRec$[ebp]
  00025	64 a3 00 00 00
	00		 mov	 DWORD PTR fs:0, eax
  0002b	8b d9		 mov	 ebx, ecx
  0002d	89 5d ec	 mov	 DWORD PTR _this$1$[ebp], ebx

; 265  : 	assert(pMainBlock != NULL);
; 266  : 
; 267  : 	CVerticalScalePtrDataList vertScalePtrDataList;

  00030	8d 4d bc	 lea	 ecx, DWORD PTR _vertScalePtrDataList$[ebp]
  00033	e8 00 00 00 00	 call	 ??0CVerticalScalePtrDataList@@QAE@XZ ; CVerticalScalePtrDataList::CVerticalScalePtrDataList

; 306  : 	vertScalePtrDataList.RemoveAll();

  00038	8d 4d bc	 lea	 ecx, DWORD PTR _vertScalePtrDataList$[ebp]

; 265  : 	assert(pMainBlock != NULL);
; 266  : 
; 267  : 	CVerticalScalePtrDataList vertScalePtrDataList;

  0003b	c7 45 fc 00 00
	00 00		 mov	 DWORD PTR __$EHRec$[ebp+8], 0

; 306  : 	vertScalePtrDataList.RemoveAll();

  00042	e8 00 00 00 00	 call	 ?RemoveAll@CVerticalScalePtrDataList@@QAEXXZ ; CVerticalScalePtrDataList::RemoveAll

; 307  : 	
; 308  : 	CScaleColor* pScaleColor = &pMainBlock->GetScaleColor();

  00047	8b 7d 08	 mov	 edi, DWORD PTR _pMainBlock$[ebp]
  0004a	8b cf		 mov	 ecx, edi
  0004c	8b 07		 mov	 eax, DWORD PTR [edi]
  0004e	ff 90 f0 01 00
	00		 call	 DWORD PTR [eax+496]
  00054	8b f0		 mov	 esi, eax

; 309  : 	if(pScaleColor == NULL || CScaleTool::GetBlock() == NULL)

  00056	85 f6		 test	 esi, esi
  00058	74 4b		 je	 SHORT $LN15@ShowVertSc
  0005a	83 7b 0c 00	 cmp	 DWORD PTR [ebx+12], 0
  0005e	74 45		 je	 SHORT $LN15@ShowVertSc

; 310  : 		return;
; 311  : 
; 312  : 	vertScalePtrDataList.SetScaleColor( &pScaleColor->GetVertScaleColor(), &pScaleColor->GetScaleTextColor());

  00060	8b ce		 mov	 ecx, esi
  00062	ff 15 00 00 00
	00		 call	 DWORD PTR __imp_?GetScaleTextColor@CScaleColor@@QAEAAKXZ
  00068	50		 push	 eax
  00069	8b ce		 mov	 ecx, esi
  0006b	ff 15 00 00 00
	00		 call	 DWORD PTR __imp_?GetVertScaleColor@CScaleColor@@QAEAAKXZ
  00071	50		 push	 eax
  00072	8d 4d bc	 lea	 ecx, DWORD PTR _vertScalePtrDataList$[ebp]
  00075	e8 00 00 00 00	 call	 ?SetScaleColor@CVerticalScalePtrDataList@@QAEXPAK0@Z ; CVerticalScalePtrDataList::SetScaleColor

; 313  : 	vertScalePtrDataList.SetLogType( &CScaleTool::GetBlock()->GetBlockData().GetVertScaleLogType());

  0007a	8b 4b 0c	 mov	 ecx, DWORD PTR [ebx+12]
  0007d	e8 00 00 00 00	 call	 ?GetBlockData@CBlockImp@@QAEAAVCBlockData@@XZ ; CBlockImp::GetBlockData
  00082	8b c8		 mov	 ecx, eax
  00084	e8 00 00 00 00	 call	 ?GetVertScaleLogType@CBlockData@@QAEAA_NXZ ; CBlockData::GetVertScaleLogType
  00089	50		 push	 eax
  0008a	8d 4d bc	 lea	 ecx, DWORD PTR _vertScalePtrDataList$[ebp]
  0008d	e8 00 00 00 00	 call	 ?SetLogType@CVerticalScalePtrDataList@@QAEXPA_N@Z ; CVerticalScalePtrDataList::SetLogType

; 314  : 	CScaleTool::GetBlock()->GetVertScaleGroupList().GetVertScalePtrDataList(vertScalePtrDataList);

  00092	8b 4b 0c	 mov	 ecx, DWORD PTR [ebx+12]
  00095	8d 45 bc	 lea	 eax, DWORD PTR _vertScalePtrDataList$[ebp]
  00098	50		 push	 eax
  00099	e8 00 00 00 00	 call	 ?GetVertScaleGroupList@CBlockImp@@QAEAAVCVertScaleGroupList@@XZ ; CBlockImp::GetVertScaleGroupList
  0009e	8b c8		 mov	 ecx, eax
  000a0	e8 00 00 00 00	 call	 ?GetVertScalePtrDataList@CVertScaleGroupList@@QBEXAAVCVerticalScalePtrDataList@@@Z ; CVertScaleGroupList::GetVertScalePtrDataList
$LN15@ShowVertSc:

; 268  : 	GetVertScalePtrDataList(pMainBlock, vertScalePtrDataList);
; 269  : 	if(vertScalePtrDataList.GetCount() <= 0)

  000a5	8d 4d bc	 lea	 ecx, DWORD PTR _vertScalePtrDataList$[ebp]
  000a8	e8 00 00 00 00	 call	 ?GetCount@CVerticalScalePtrDataList@@QBEHXZ ; CVerticalScalePtrDataList::GetCount
  000ad	85 c0		 test	 eax, eax
  000af	0f 8e aa 01 00
	00		 jle	 $LN5@ShowVertSc

; 270  : 		return false;
; 271  : 
; 272  : 	// (2007/7/13 - Seung-Won, Bae) Reset Selected VScale with Double Click or Popup Menu.
; 273  : 	if( 0 <= p_nSelectedIndex) vertScalePtrDataList.SetFirstIndex( p_nSelectedIndex);

  000b5	8b 45 0c	 mov	 eax, DWORD PTR _p_nSelectedIndex$[ebp]
  000b8	85 c0		 test	 eax, eax
  000ba	78 09		 js	 SHORT $LN3@ShowVertSc
  000bc	50		 push	 eax
  000bd	8d 4d bc	 lea	 ecx, DWORD PTR _vertScalePtrDataList$[ebp]
  000c0	e8 00 00 00 00	 call	 ?SetFirstIndex@CVerticalScalePtrDataList@@QAEXH@Z ; CVerticalScalePtrDataList::SetFirstIndex
$LN3@ShowVertSc:

; 274  : 
; 275  : 	// (2007/7/10 - Seung-Won, Bae) Use Horizontal Scale Setting UI Directly.
; 276  : 	//	CChartObjectWrapperHelper wrapperHelper(pMainBlock->GetOCXPath());
; 277  : 	//	if(!wrapperHelper.SetVertScale(CBaseTool::GetParent(), &vertScalePtrDataList)) return false;
; 278  : 	CWnd *pParent = CBaseTool::GetParent();

  000c5	8b cb		 mov	 ecx, ebx
  000c7	e8 00 00 00 00	 call	 ?GetParent@CBaseTool@@QBEPAVCWnd@@XZ ; CBaseTool::GetParent
  000cc	8b f0		 mov	 esi, eax
  000ce	89 75 08	 mov	 DWORD PTR _pParent$1$[ebp], esi

; 279  : 	if( pParent == NULL || vertScalePtrDataList.GetCount() <= 0) return false;

  000d1	85 f6		 test	 esi, esi
  000d3	0f 84 86 01 00
	00		 je	 $LN5@ShowVertSc
  000d9	8d 4d bc	 lea	 ecx, DWORD PTR _vertScalePtrDataList$[ebp]
  000dc	e8 00 00 00 00	 call	 ?GetCount@CVerticalScalePtrDataList@@QBEHXZ ; CVerticalScalePtrDataList::GetCount
  000e1	85 c0		 test	 eax, eax
  000e3	0f 8e 76 01 00
	00		 jle	 $LN5@ShowVertSc

; 280  : 
; 281  : 	// ,   - ojtaso (20070917)
; 282  : 	BOOL bHogaUnit = FALSE;
; 283  : 	CString strValue;

  000e9	8d 4d f0	 lea	 ecx, DWORD PTR _strValue$[ebp]
  000ec	ff 15 00 00 00
	00		 call	 DWORD PTR __imp_??0?$CStringT@DV?$StrTraitMFC_DLL@DV?$ChTraitsCRT@D@ATL@@@@@ATL@@QAE@XZ

; 284  : 	bHogaUnit = pMainBlock->GetPacketList()->GetHelpMessageItem(_T("HOGAUNIT"), strValue);

  000f2	8d 45 f0	 lea	 eax, DWORD PTR _strValue$[ebp]
  000f5	c6 45 fc 01	 mov	 BYTE PTR __$EHRec$[ebp+8], 1
  000f9	50		 push	 eax
  000fa	8b 07		 mov	 eax, DWORD PTR [edi]
  000fc	8b cf		 mov	 ecx, edi
  000fe	68 00 00 00 00	 push	 OFFSET ??_C@_08ODANEJJL@HOGAUNIT@
  00103	ff 90 3c 02 00
	00		 call	 DWORD PTR [eax+572]
  00109	8b c8		 mov	 ecx, eax
  0010b	ff 15 00 00 00
	00		 call	 DWORD PTR __imp_?GetHelpMessageItem@CPacketList@@QAEHPBDAAV?$CStringT@DV?$StrTraitMFC_DLL@DV?$ChTraitsCRT@D@ATL@@@@@ATL@@@Z
; File C:\Program Files (x86)\Microsoft Visual Studio\2019\Community\VC\Tools\MSVC\14.29.30133\atlmfc\include\afxwin2.inl

; 25   : 	{ return this == NULL ? NULL : m_hWnd; }

  00111	8b 76 20	 mov	 esi, DWORD PTR [esi+32]
; File D:\git\src\IBK\IBK_DRFN\ProjSrc\SrcChartEx\ChartOCX\ChartObject\ScaleTool.cpp

; 284  : 	bHogaUnit = pMainBlock->GetPacketList()->GetHelpMessageItem(_T("HOGAUNIT"), strValue);

  00114	8b d8		 mov	 ebx, eax

; 285  : 
; 286  : 	_MHWND( pParent->GetSafeHwnd());
; 287  : 	// ,   - ojtaso (20070917)
; 288  : 	ML_SET_LANGUAGE_RES();

  00116	e8 00 00 00 00	 call	 ?AfxGetStaticModuleState@@YGPAVAFX_MODULE_STATE@@XZ ; AfxGetStaticModuleState
  0011b	8b 48 08	 mov	 ecx, DWORD PTR [eax+8]
  0011e	51		 push	 ecx
  0011f	56		 push	 esi
  00120	b9 00 00 00 00	 mov	 ecx, OFFSET ?g_iMetaTable@@3VIMetaTable@@A ; g_iMetaTable
  00125	e8 00 00 00 00	 call	 ?LoadResourceDLL@IMetaTable@@QAEPAUHINSTANCE__@@PAUHWND__@@PAU2@@Z ; IMetaTable::LoadResourceDLL
  0012a	8b f8		 mov	 edi, eax
; File C:\Program Files (x86)\Microsoft Visual Studio\2019\Community\VC\Tools\MSVC\14.29.30133\atlmfc\include\afxwin1.inl

; 25   : 		return afxCurrentResourceHandle; }

  0012c	e8 00 00 00 00	 call	 ?AfxGetModuleState@@YGPAVAFX_MODULE_STATE@@XZ ; AfxGetModuleState
; File D:\git\src\IBK\IBK_DRFN\ProjSrc\SrcChartEx\ChartOCX\Include_Chart\Dll_Load\IMetaTable.h

; 1032 : 		m_hInstance = AfxGetResourceHandle();

  00131	8b 70 0c	 mov	 esi, DWORD PTR [eax+12]
  00134	89 75 0c	 mov	 DWORD PTR ___mlrs__$[ebp], esi
; File C:\Program Files (x86)\Microsoft Visual Studio\2019\Community\VC\Tools\MSVC\14.29.30133\atlmfc\include\afxwin1.inl

; 27   : 	{ ASSERT(hInstResource != NULL); afxCurrentResourceHandle = hInstResource; }

  00137	e8 00 00 00 00	 call	 ?AfxGetModuleState@@YGPAVAFX_MODULE_STATE@@XZ ; AfxGetModuleState
  0013c	89 78 0c	 mov	 DWORD PTR [eax+12], edi
; File D:\git\src\IBK\IBK_DRFN\ProjSrc\SrcChartEx\ChartOCX\ChartObject\ScaleTool.cpp

; 289  : 	CDlgVertScaleSet dlg( pParent, &vertScalePtrDataList, bHogaUnit);

  0013f	53		 push	 ebx
  00140	8d 45 bc	 lea	 eax, DWORD PTR _vertScalePtrDataList$[ebp]
  00143	c6 45 fc 02	 mov	 BYTE PTR __$EHRec$[ebp+8], 2
  00147	50		 push	 eax
  00148	ff 75 08	 push	 DWORD PTR _pParent$1$[ebp]
  0014b	8d 8d 20 fd ff
	ff		 lea	 ecx, DWORD PTR _dlg$[ebp]
  00151	e8 00 00 00 00	 call	 ??0CDlgVertScaleSet@@QAE@PAVCWnd@@PAVCVerticalScalePtrDataList@@H@Z ; CDlgVertScaleSet::CDlgVertScaleSet

; 290  : 	dlg.DoModal();

  00156	8d 8d 20 fd ff
	ff		 lea	 ecx, DWORD PTR _dlg$[ebp]
  0015c	c6 45 fc 03	 mov	 BYTE PTR __$EHRec$[ebp+8], 3
  00160	e8 00 00 00 00	 call	 ?DoModal@CDialog@@UAEHXZ ; CDialog::DoModal

; 322  : 	if(CBaseTool::GetIChartCtrl() == NULL || CScaleTool::GetBlock() == NULL)

  00165	8b 7d ec	 mov	 edi, DWORD PTR _this$1$[ebp]
  00168	8b cf		 mov	 ecx, edi
  0016a	e8 00 00 00 00	 call	 ?GetIChartCtrl@CBaseTool@@QBEPAUIChartCtrl@@XZ ; CBaseTool::GetIChartCtrl
  0016f	85 c0		 test	 eax, eax
  00171	0f 84 8b 00 00
	00		 je	 $LN35@ShowVertSc
  00177	83 7f 0c 00	 cmp	 DWORD PTR [edi+12], 0
  0017b	0f 84 81 00 00
	00		 je	 $LN35@ShowVertSc
  00181	8d 8d 78 ff ff
	ff		 lea	 ecx, DWORD PTR _gsi$2[ebp]
  00187	e8 00 00 00 00	 call	 ??0CGraphSearchInfo@@QAE@XZ ; CGraphSearchInfo::CGraphSearchInfo
  0018c	8d 4d b8	 lea	 ecx, DWORD PTR _gsi$2[ebp+64]
  0018f	c7 85 78 ff ff
	ff 00 00 00 00	 mov	 DWORD PTR _gsi$2[ebp], OFFSET ??_7CGraphSearchInfo_IndicatorName@@6B@
  00199	ff 15 00 00 00
	00		 call	 DWORD PTR __imp_??0?$CStringT@DV?$StrTraitMFC_DLL@DV?$ChTraitsCRT@D@ATL@@@@@ATL@@QAE@XZ

; 323  : 		return;
; 324  : 
; 325  : 	// ""   .
; 326  : 	CGraphSearchInfo_IndicatorName gsi;
; 327  : 	gsi.m_strIndicatorName = _MTEXT( C2_PRICE_CHART);

  0019f	a1 54 00 00 00	 mov	 eax, DWORD PTR ?g_iMetaTable@@3VIMetaTable@@A+84
  001a4	8d 4d b8	 lea	 ecx, DWORD PTR _gsi$2[ebp+64]
  001a7	c6 45 fc 04	 mov	 BYTE PTR __$EHRec$[ebp+8], 4
  001ab	ff b0 28 03 00
	00		 push	 DWORD PTR [eax+808]
  001b1	ff 15 00 00 00
	00		 call	 DWORD PTR __imp_??4?$CStringT@DV?$StrTraitMFC_DLL@DV?$ChTraitsCRT@D@ATL@@@@@ATL@@QAEAAV01@PBD@Z

; 328  : 	if( !CScaleTool::GetBlock()->GetVertScaleGroupList().FindGraph( &gsi)) return;

  001b7	8b 4f 0c	 mov	 ecx, DWORD PTR [edi+12]
  001ba	8d 85 78 ff ff
	ff		 lea	 eax, DWORD PTR _gsi$2[ebp]
  001c0	50		 push	 eax
  001c1	e8 00 00 00 00	 call	 ?GetVertScaleGroupList@CBlockImp@@QAEAAVCVertScaleGroupList@@XZ ; CBlockImp::GetVertScaleGroupList
  001c6	8b c8		 mov	 ecx, eax
  001c8	e8 00 00 00 00	 call	 ?FindGraph@CVertScaleGroupList@@QBEHPAVCGraphSearchInfo@@@Z ; CVertScaleGroupList::FindGraph
  001cd	85 c0		 test	 eax, eax
  001cf	74 28		 je	 SHORT $LN72@ShowVertSc

; 329  : 
; 330  : 	bool bLog = CScaleTool::GetBlock()->GetBlockData().GetVertScaleLogType();

  001d1	8b 4f 0c	 mov	 ecx, DWORD PTR [edi+12]
  001d4	e8 00 00 00 00	 call	 ?GetBlockData@CBlockImp@@QAEAAVCBlockData@@XZ ; CBlockImp::GetBlockData
  001d9	8b c8		 mov	 ecx, eax
  001db	e8 00 00 00 00	 call	 ?GetVertScaleLogType@CBlockData@@QAEAA_NXZ ; CBlockData::GetVertScaleLogType

; 331  : 	CBaseTool::GetIChartCtrl()->OnScaleSettingMessage( CCommonInterfaceEnum::PRICE_LOG, (int)bLog);

  001e0	8b cf		 mov	 ecx, edi
  001e2	8a 18		 mov	 bl, BYTE PTR [eax]
  001e4	e8 00 00 00 00	 call	 ?GetIChartCtrl@CBaseTool@@QBEPAUIChartCtrl@@XZ ; CBaseTool::GetIChartCtrl
  001e9	0f b6 cb	 movzx	 ecx, bl
  001ec	51		 push	 ecx
  001ed	6a 00		 push	 0
  001ef	8b 10		 mov	 edx, DWORD PTR [eax]
  001f1	8b c8		 mov	 ecx, eax
  001f3	ff 92 7c 06 00
	00		 call	 DWORD PTR [edx+1660]
$LN72@ShowVertSc:

; 293  : 	return true;

  001f9	8d 4d b8	 lea	 ecx, DWORD PTR _gsi$2[ebp+64]
  001fc	ff 15 00 00 00
	00		 call	 DWORD PTR __imp_??1?$CStringT@DV?$StrTraitMFC_DLL@DV?$ChTraitsCRT@D@ATL@@@@@ATL@@QAE@XZ
$LN35@ShowVertSc:
  00202	8d 8d 5c ff ff
	ff		 lea	 ecx, DWORD PTR _dlg$[ebp+572]
  00208	b3 01		 mov	 bl, 1
  0020a	e8 00 00 00 00	 call	 ??1?$CList@VCVerticalScale@@AAV1@@@UAE@XZ ; CList<CVerticalScale,CVerticalScale &>::~CList<CVerticalScale,CVerticalScale &>
  0020f	8d 8d 44 ff ff
	ff		 lea	 ecx, DWORD PTR _dlg$[ebp+548]
  00215	ff 15 00 00 00
	00		 call	 DWORD PTR __imp_??1?$CStringT@DV?$StrTraitMFC_DLL@DV?$ChTraitsCRT@D@ATL@@@@@ATL@@QAE@XZ
  0021b	8d 8d 40 ff ff
	ff		 lea	 ecx, DWORD PTR _dlg$[ebp+544]
  00221	ff 15 00 00 00
	00		 call	 DWORD PTR __imp_??1?$CStringT@DV?$StrTraitMFC_DLL@DV?$ChTraitsCRT@D@ATL@@@@@ATL@@QAE@XZ
  00227	8d 8d 68 fe ff
	ff		 lea	 ecx, DWORD PTR _dlg$[ebp+328]
  0022d	e8 00 00 00 00	 call	 ??1CButton@@UAE@XZ	; CButton::~CButton
  00232	8d 8d e0 fd ff
	ff		 lea	 ecx, DWORD PTR _dlg$[ebp+192]
  00238	e8 00 00 00 00	 call	 ??1CButton@@UAE@XZ	; CButton::~CButton
  0023d	8d 8d 20 fd ff
	ff		 lea	 ecx, DWORD PTR _dlg$[ebp]
  00243	e8 00 00 00 00	 call	 ??1CDialog@@UAE@XZ	; CDialog::~CDialog
; File D:\git\src\IBK\IBK_DRFN\ProjSrc\SrcChartEx\ChartOCX\Include_Chart\Dll_Load\IMetaTable.h

; 1036 : 	{

  00248	c6 45 fc 05	 mov	 BYTE PTR __$EHRec$[ebp+8], 5
; File C:\Program Files (x86)\Microsoft Visual Studio\2019\Community\VC\Tools\MSVC\14.29.30133\atlmfc\include\afxwin1.inl

; 27   : 	{ ASSERT(hInstResource != NULL); afxCurrentResourceHandle = hInstResource; }

  0024c	e8 00 00 00 00	 call	 ?AfxGetModuleState@@YGPAVAFX_MODULE_STATE@@XZ ; AfxGetModuleState
; File D:\git\src\IBK\IBK_DRFN\ProjSrc\SrcChartEx\ChartOCX\ChartObject\ScaleTool.cpp

; 293  : 	return true;

  00251	8d 4d f0	 lea	 ecx, DWORD PTR _strValue$[ebp]
; File C:\Program Files (x86)\Microsoft Visual Studio\2019\Community\VC\Tools\MSVC\14.29.30133\atlmfc\include\afxwin1.inl

; 27   : 	{ ASSERT(hInstResource != NULL); afxCurrentResourceHandle = hInstResource; }

  00254	89 70 0c	 mov	 DWORD PTR [eax+12], esi
; File D:\git\src\IBK\IBK_DRFN\ProjSrc\SrcChartEx\ChartOCX\ChartObject\ScaleTool.cpp

; 293  : 	return true;

  00257	ff 15 00 00 00
	00		 call	 DWORD PTR __imp_??1?$CStringT@DV?$StrTraitMFC_DLL@DV?$ChTraitsCRT@D@ATL@@@@@ATL@@QAE@XZ
  0025d	eb 02		 jmp	 SHORT $LN12@ShowVertSc
$LN5@ShowVertSc:
  0025f	32 db		 xor	 bl, bl
$LN12@ShowVertSc:
  00261	8d 4d d0	 lea	 ecx, DWORD PTR _vertScalePtrDataList$[ebp+20]
  00264	e8 00 00 00 00	 call	 ??1?$CList@VCVerticalScalePtrData@@AAV1@@@UAE@XZ ; CList<CVerticalScalePtrData,CVerticalScalePtrData &>::~CList<CVerticalScalePtrData,CVerticalScalePtrData &>
  00269	8a c3		 mov	 al, bl

; 294  : }

  0026b	8b 4d f4	 mov	 ecx, DWORD PTR __$EHRec$[ebp]
  0026e	64 89 0d 00 00
	00 00		 mov	 DWORD PTR fs:0, ecx
  00275	59		 pop	 ecx
  00276	5f		 pop	 edi
  00277	5e		 pop	 esi
  00278	5b		 pop	 ebx
  00279	8b e5		 mov	 esp, ebp
  0027b	5d		 pop	 ebp
  0027c	c2 08 00	 ret	 8
_TEXT	ENDS
;	COMDAT text$x
text$x	SEGMENT
__unwindfunclet$?ShowVertScaleSettingDlg@CVertScaleTool@@IAE_NPAVCMainBlock@@H@Z$0:
  00000	8d 4d bc	 lea	 ecx, DWORD PTR _vertScalePtrDataList$[ebp]
  00003	e9 00 00 00 00	 jmp	 ??1CVerticalScalePtrDataList@@QAE@XZ
__unwindfunclet$?ShowVertScaleSettingDlg@CVertScaleTool@@IAE_NPAVCMainBlock@@H@Z$1:
  00008	8d 4d f0	 lea	 ecx, DWORD PTR _strValue$[ebp]
  0000b	ff 25 00 00 00
	00		 jmp	 DWORD PTR __imp_??1?$CStringT@DV?$StrTraitMFC_DLL@DV?$ChTraitsCRT@D@ATL@@@@@ATL@@QAE@XZ
__unwindfunclet$?ShowVertScaleSettingDlg@CVertScaleTool@@IAE_NPAVCMainBlock@@H@Z$2:
  00011	8d 4d 0c	 lea	 ecx, DWORD PTR ___mlrs__$[ebp]
  00014	e9 00 00 00 00	 jmp	 ??1CMultiLanguageResourceSetter@@QAE@XZ ; CMultiLanguageResourceSetter::~CMultiLanguageResourceSetter
__unwindfunclet$?ShowVertScaleSettingDlg@CVertScaleTool@@IAE_NPAVCMainBlock@@H@Z$3:
  00019	8d 8d 20 fd ff
	ff		 lea	 ecx, DWORD PTR _dlg$[ebp]
  0001f	e9 00 00 00 00	 jmp	 ??1CDlgVertScaleSet@@UAE@XZ
__unwindfunclet$?ShowVertScaleSettingDlg@CVertScaleTool@@IAE_NPAVCMainBlock@@H@Z$6:
  00024	8d 8d 78 ff ff
	ff		 lea	 ecx, DWORD PTR _gsi$2[ebp]
  0002a	e9 00 00 00 00	 jmp	 ??1CGraphSearchInfo_IndicatorName@@QAE@XZ
  0002f	cc		 int	 3
  00030	cc		 int	 3
  00031	cc		 int	 3
  00032	cc		 int	 3
  00033	cc		 int	 3
__ehhandler$?ShowVertScaleSettingDlg@CVertScaleTool@@IAE_NPAVCMainBlock@@H@Z:
  00034	90		 npad	 1
  00035	90		 npad	 1
  00036	8b 54 24 08	 mov	 edx, DWORD PTR [esp+8]
  0003a	8d 42 0c	 lea	 eax, DWORD PTR [edx+12]
  0003d	8b 8a 1c fd ff
	ff		 mov	 ecx, DWORD PTR [edx-740]
  00043	33 c8		 xor	 ecx, eax
  00045	e8 00 00 00 00	 call	 @__security_check_cookie@4
  0004a	b8 00 00 00 00	 mov	 eax, OFFSET __ehfuncinfo$?ShowVertScaleSettingDlg@CVertScaleTool@@IAE_NPAVCMainBlock@@H@Z
  0004f	e9 00 00 00 00	 jmp	 ___CxxFrameHandler3
text$x	ENDS
?ShowVertScaleSettingDlg@CVertScaleTool@@IAE_NPAVCMainBlock@@H@Z ENDP ; CVertScaleTool::ShowVertScaleSettingDlg
; Function compile flags: /Ogtp
; File D:\git\src\IBK\IBK_DRFN\ProjSrc\SrcChartEx\ChartOCX\ChartObject\ScaleTool.cpp
;	COMDAT ?SendMessage_VertScaleSetting@CVertScaleTool@@AAEXXZ
_TEXT	SEGMENT
_gsi$ = -80						; size = 68
__$EHRec$ = -12						; size = 12
?SendMessage_VertScaleSetting@CVertScaleTool@@AAEXXZ PROC ; CVertScaleTool::SendMessage_VertScaleSetting, COMDAT
; _this$ = ecx

; 321  : {

  00000	55		 push	 ebp
  00001	8b ec		 mov	 ebp, esp
  00003	6a ff		 push	 -1
  00005	68 00 00 00 00	 push	 __ehhandler$?SendMessage_VertScaleSetting@CVertScaleTool@@AAEXXZ
  0000a	64 a1 00 00 00
	00		 mov	 eax, DWORD PTR fs:0
  00010	50		 push	 eax
  00011	83 ec 44	 sub	 esp, 68			; 00000044H
  00014	53		 push	 ebx
  00015	56		 push	 esi
  00016	a1 00 00 00 00	 mov	 eax, DWORD PTR ___security_cookie
  0001b	33 c5		 xor	 eax, ebp
  0001d	50		 push	 eax
  0001e	8d 45 f4	 lea	 eax, DWORD PTR __$EHRec$[ebp]
  00021	64 a3 00 00 00
	00		 mov	 DWORD PTR fs:0, eax
  00027	8b f1		 mov	 esi, ecx

; 322  : 	if(CBaseTool::GetIChartCtrl() == NULL || CScaleTool::GetBlock() == NULL)

  00029	e8 00 00 00 00	 call	 ?GetIChartCtrl@CBaseTool@@QBEPAUIChartCtrl@@XZ ; CBaseTool::GetIChartCtrl
  0002e	85 c0		 test	 eax, eax
  00030	0f 84 81 00 00
	00		 je	 $LN3@SendMessag
  00036	83 7e 0c 00	 cmp	 DWORD PTR [esi+12], 0
  0003a	74 7b		 je	 SHORT $LN3@SendMessag

; 323  : 		return;
; 324  : 
; 325  : 	// ""   .
; 326  : 	CGraphSearchInfo_IndicatorName gsi;

  0003c	8d 4d b0	 lea	 ecx, DWORD PTR _gsi$[ebp]
  0003f	e8 00 00 00 00	 call	 ??0CGraphSearchInfo@@QAE@XZ ; CGraphSearchInfo::CGraphSearchInfo
  00044	8d 4d f0	 lea	 ecx, DWORD PTR _gsi$[ebp+64]
  00047	c7 45 b0 00 00
	00 00		 mov	 DWORD PTR _gsi$[ebp], OFFSET ??_7CGraphSearchInfo_IndicatorName@@6B@
  0004e	ff 15 00 00 00
	00		 call	 DWORD PTR __imp_??0?$CStringT@DV?$StrTraitMFC_DLL@DV?$ChTraitsCRT@D@ATL@@@@@ATL@@QAE@XZ

; 327  : 	gsi.m_strIndicatorName = _MTEXT( C2_PRICE_CHART);

  00054	a1 54 00 00 00	 mov	 eax, DWORD PTR ?g_iMetaTable@@3VIMetaTable@@A+84
  00059	8d 4d f0	 lea	 ecx, DWORD PTR _gsi$[ebp+64]
  0005c	c7 45 fc 00 00
	00 00		 mov	 DWORD PTR __$EHRec$[ebp+8], 0
  00063	ff b0 28 03 00
	00		 push	 DWORD PTR [eax+808]
  00069	ff 15 00 00 00
	00		 call	 DWORD PTR __imp_??4?$CStringT@DV?$StrTraitMFC_DLL@DV?$ChTraitsCRT@D@ATL@@@@@ATL@@QAEAAV01@PBD@Z

; 328  : 	if( !CScaleTool::GetBlock()->GetVertScaleGroupList().FindGraph( &gsi)) return;

  0006f	8b 4e 0c	 mov	 ecx, DWORD PTR [esi+12]
  00072	8d 45 b0	 lea	 eax, DWORD PTR _gsi$[ebp]
  00075	50		 push	 eax
  00076	e8 00 00 00 00	 call	 ?GetVertScaleGroupList@CBlockImp@@QAEAAVCVertScaleGroupList@@XZ ; CBlockImp::GetVertScaleGroupList
  0007b	8b c8		 mov	 ecx, eax
  0007d	e8 00 00 00 00	 call	 ?FindGraph@CVertScaleGroupList@@QBEHPAVCGraphSearchInfo@@@Z ; CVertScaleGroupList::FindGraph
  00082	85 c0		 test	 eax, eax
  00084	74 28		 je	 SHORT $LN7@SendMessag

; 329  : 
; 330  : 	bool bLog = CScaleTool::GetBlock()->GetBlockData().GetVertScaleLogType();

  00086	8b 4e 0c	 mov	 ecx, DWORD PTR [esi+12]
  00089	e8 00 00 00 00	 call	 ?GetBlockData@CBlockImp@@QAEAAVCBlockData@@XZ ; CBlockImp::GetBlockData
  0008e	8b c8		 mov	 ecx, eax
  00090	e8 00 00 00 00	 call	 ?GetVertScaleLogType@CBlockData@@QAEAA_NXZ ; CBlockData::GetVertScaleLogType

; 331  : 	CBaseTool::GetIChartCtrl()->OnScaleSettingMessage( CCommonInterfaceEnum::PRICE_LOG, (int)bLog);

  00095	8b ce		 mov	 ecx, esi
  00097	8a 18		 mov	 bl, BYTE PTR [eax]
  00099	e8 00 00 00 00	 call	 ?GetIChartCtrl@CBaseTool@@QBEPAUIChartCtrl@@XZ ; CBaseTool::GetIChartCtrl
  0009e	0f b6 cb	 movzx	 ecx, bl
  000a1	51		 push	 ecx
  000a2	6a 00		 push	 0
  000a4	8b 10		 mov	 edx, DWORD PTR [eax]
  000a6	8b c8		 mov	 ecx, eax
  000a8	ff 92 7c 06 00
	00		 call	 DWORD PTR [edx+1660]
$LN7@SendMessag:
  000ae	8d 4d f0	 lea	 ecx, DWORD PTR _gsi$[ebp+64]
  000b1	ff 15 00 00 00
	00		 call	 DWORD PTR __imp_??1?$CStringT@DV?$StrTraitMFC_DLL@DV?$ChTraitsCRT@D@ATL@@@@@ATL@@QAE@XZ
$LN3@SendMessag:

; 332  : }

  000b7	8b 4d f4	 mov	 ecx, DWORD PTR __$EHRec$[ebp]
  000ba	64 89 0d 00 00
	00 00		 mov	 DWORD PTR fs:0, ecx
  000c1	59		 pop	 ecx
  000c2	5e		 pop	 esi
  000c3	5b		 pop	 ebx
  000c4	8b e5		 mov	 esp, ebp
  000c6	5d		 pop	 ebp
  000c7	c3		 ret	 0
_TEXT	ENDS
;	COMDAT text$x
text$x	SEGMENT
__unwindfunclet$?SendMessage_VertScaleSetting@CVertScaleTool@@AAEXXZ$0:
  00000	8d 4d b0	 lea	 ecx, DWORD PTR _gsi$[ebp]
  00003	e9 00 00 00 00	 jmp	 ??1CGraphSearchInfo_IndicatorName@@QAE@XZ
  00008	cc		 int	 3
  00009	cc		 int	 3
  0000a	cc		 int	 3
  0000b	cc		 int	 3
  0000c	cc		 int	 3
__ehhandler$?SendMessage_VertScaleSetting@CVertScaleTool@@AAEXXZ:
  0000d	90		 npad	 1
  0000e	90		 npad	 1
  0000f	8b 54 24 08	 mov	 edx, DWORD PTR [esp+8]
  00013	8d 42 0c	 lea	 eax, DWORD PTR [edx+12]
  00016	8b 4a b0	 mov	 ecx, DWORD PTR [edx-80]
  00019	33 c8		 xor	 ecx, eax
  0001b	e8 00 00 00 00	 call	 @__security_check_cookie@4
  00020	b8 00 00 00 00	 mov	 eax, OFFSET __ehfuncinfo$?SendMessage_VertScaleSetting@CVertScaleTool@@AAEXXZ
  00025	e9 00 00 00 00	 jmp	 ___CxxFrameHandler3
text$x	ENDS
?SendMessage_VertScaleSetting@CVertScaleTool@@AAEXXZ ENDP ; CVertScaleTool::SendMessage_VertScaleSetting
; Function compile flags: /Ogtp
; File D:\git\src\IBK\IBK_DRFN\ProjSrc\SrcChartEx\ChartOCX\ChartObject\ScaleTool.cpp
;	COMDAT ?GetVertScalePtrDataList@CVertScaleTool@@AAEXPAVCMainBlock@@AAVCVerticalScalePtrDataList@@@Z
_TEXT	SEGMENT
_pMainBlock$ = 8					; size = 4
_vertScalePtrDataList$ = 12				; size = 4
?GetVertScalePtrDataList@CVertScaleTool@@AAEXPAVCMainBlock@@AAVCVerticalScalePtrDataList@@@Z PROC ; CVertScaleTool::GetVertScalePtrDataList, COMDAT
; _this$ = ecx

; 305  : {

  00000	55		 push	 ebp
  00001	8b ec		 mov	 ebp, esp
  00003	53		 push	 ebx
  00004	56		 push	 esi
  00005	57		 push	 edi

; 306  : 	vertScalePtrDataList.RemoveAll();

  00006	8b 7d 0c	 mov	 edi, DWORD PTR _vertScalePtrDataList$[ebp]
  00009	8b f1		 mov	 esi, ecx
  0000b	8b cf		 mov	 ecx, edi
  0000d	e8 00 00 00 00	 call	 ?RemoveAll@CVerticalScalePtrDataList@@QAEXXZ ; CVerticalScalePtrDataList::RemoveAll

; 307  : 	
; 308  : 	CScaleColor* pScaleColor = &pMainBlock->GetScaleColor();

  00012	8b 4d 08	 mov	 ecx, DWORD PTR _pMainBlock$[ebp]
  00015	8b 01		 mov	 eax, DWORD PTR [ecx]
  00017	ff 90 f0 01 00
	00		 call	 DWORD PTR [eax+496]
  0001d	8b d8		 mov	 ebx, eax

; 309  : 	if(pScaleColor == NULL || CScaleTool::GetBlock() == NULL)

  0001f	85 db		 test	 ebx, ebx
  00021	74 46		 je	 SHORT $LN3@GetVertSca
  00023	83 7e 0c 00	 cmp	 DWORD PTR [esi+12], 0
  00027	74 40		 je	 SHORT $LN3@GetVertSca

; 310  : 		return;
; 311  : 
; 312  : 	vertScalePtrDataList.SetScaleColor( &pScaleColor->GetVertScaleColor(), &pScaleColor->GetScaleTextColor());

  00029	8b cb		 mov	 ecx, ebx
  0002b	ff 15 00 00 00
	00		 call	 DWORD PTR __imp_?GetScaleTextColor@CScaleColor@@QAEAAKXZ
  00031	50		 push	 eax
  00032	8b cb		 mov	 ecx, ebx
  00034	ff 15 00 00 00
	00		 call	 DWORD PTR __imp_?GetVertScaleColor@CScaleColor@@QAEAAKXZ
  0003a	50		 push	 eax
  0003b	8b cf		 mov	 ecx, edi
  0003d	e8 00 00 00 00	 call	 ?SetScaleColor@CVerticalScalePtrDataList@@QAEXPAK0@Z ; CVerticalScalePtrDataList::SetScaleColor

; 313  : 	vertScalePtrDataList.SetLogType( &CScaleTool::GetBlock()->GetBlockData().GetVertScaleLogType());

  00042	8b 4e 0c	 mov	 ecx, DWORD PTR [esi+12]
  00045	e8 00 00 00 00	 call	 ?GetBlockData@CBlockImp@@QAEAAVCBlockData@@XZ ; CBlockImp::GetBlockData
  0004a	8b c8		 mov	 ecx, eax
  0004c	e8 00 00 00 00	 call	 ?GetVertScaleLogType@CBlockData@@QAEAA_NXZ ; CBlockData::GetVertScaleLogType
  00051	50		 push	 eax
  00052	8b cf		 mov	 ecx, edi
  00054	e8 00 00 00 00	 call	 ?SetLogType@CVerticalScalePtrDataList@@QAEXPA_N@Z ; CVerticalScalePtrDataList::SetLogType

; 314  : 	CScaleTool::GetBlock()->GetVertScaleGroupList().GetVertScalePtrDataList(vertScalePtrDataList);

  00059	8b 4e 0c	 mov	 ecx, DWORD PTR [esi+12]
  0005c	57		 push	 edi
  0005d	e8 00 00 00 00	 call	 ?GetVertScaleGroupList@CBlockImp@@QAEAAVCVertScaleGroupList@@XZ ; CBlockImp::GetVertScaleGroupList
  00062	8b c8		 mov	 ecx, eax
  00064	e8 00 00 00 00	 call	 ?GetVertScalePtrDataList@CVertScaleGroupList@@QBEXAAVCVerticalScalePtrDataList@@@Z ; CVertScaleGroupList::GetVertScalePtrDataList
$LN3@GetVertSca:

; 315  : }

  00069	5f		 pop	 edi
  0006a	5e		 pop	 esi
  0006b	5b		 pop	 ebx
  0006c	5d		 pop	 ebp
  0006d	c2 08 00	 ret	 8
?GetVertScalePtrDataList@CVertScaleTool@@AAEXPAVCMainBlock@@AAVCVerticalScalePtrDataList@@@Z ENDP ; CVertScaleTool::GetVertScalePtrDataList
_TEXT	ENDS
; Function compile flags: /Ogtp
; File D:\git\src\IBK\IBK_DRFN\ProjSrc\SrcChartEx\ChartOCX\ChartObject\ScaleTool.cpp
;	COMDAT ?FindScale@CVertScaleTool@@MAE_NPAVCBlockImp@@ABVCPoint@@@Z
_TEXT	SEGMENT
$T1 = -168						; size = 132
$T2 = -36						; size = 32
__$ArrayPad$ = -4					; size = 4
_pBlock$ = 8						; size = 4
_point$ = 12						; size = 4
?FindScale@CVertScaleTool@@MAE_NPAVCBlockImp@@ABVCPoint@@@Z PROC ; CVertScaleTool::FindScale, COMDAT
; _this$ = ecx

; 297  : {

  00000	55		 push	 ebp
  00001	8b ec		 mov	 ebp, esp
  00003	81 ec a8 00 00
	00		 sub	 esp, 168		; 000000a8H
  00009	a1 00 00 00 00	 mov	 eax, DWORD PTR ___security_cookie
  0000e	33 c5		 xor	 eax, ebp
  00010	89 45 fc	 mov	 DWORD PTR __$ArrayPad$[ebp], eax
  00013	8b 45 0c	 mov	 eax, DWORD PTR _point$[ebp]
  00016	8b 4d 08	 mov	 ecx, DWORD PTR _pBlock$[ebp]

; 298  : 	assert(pBlock != NULL);
; 299  : 	return pBlock->GetVertScaleGroupList().GetDrawingRegion().GetVertScaleRegion().PointInRegion(point);

  00019	50		 push	 eax
  0001a	8d 45 dc	 lea	 eax, DWORD PTR $T2[ebp]
  0001d	50		 push	 eax
  0001e	8d 85 58 ff ff
	ff		 lea	 eax, DWORD PTR $T1[ebp]
  00024	50		 push	 eax
  00025	e8 00 00 00 00	 call	 ?GetVertScaleGroupList@CBlockImp@@QAEAAVCVertScaleGroupList@@XZ ; CBlockImp::GetVertScaleGroupList
  0002a	8b c8		 mov	 ecx, eax
  0002c	e8 00 00 00 00	 call	 ?GetDrawingRegion@CVertScaleGroupList@@QBE?AVCDrawingRegion@@XZ ; CVertScaleGroupList::GetDrawingRegion
  00031	8b c8		 mov	 ecx, eax
  00033	e8 00 00 00 00	 call	 ?GetVertScaleRegion@CDrawingRegion@@QBE?AVCVertScaleRegion@@XZ ; CDrawingRegion::GetVertScaleRegion
  00038	8b c8		 mov	 ecx, eax
  0003a	ff 15 00 00 00
	00		 call	 DWORD PTR __imp_?PointInRegion@CVertScaleRegion@@QBE_NABVCPoint@@@Z

; 300  : }

  00040	8b 4d fc	 mov	 ecx, DWORD PTR __$ArrayPad$[ebp]
  00043	33 cd		 xor	 ecx, ebp
  00045	e8 00 00 00 00	 call	 @__security_check_cookie@4
  0004a	8b e5		 mov	 esp, ebp
  0004c	5d		 pop	 ebp
  0004d	c2 08 00	 ret	 8
?FindScale@CVertScaleTool@@MAE_NPAVCBlockImp@@ABVCPoint@@@Z ENDP ; CVertScaleTool::FindScale
_TEXT	ENDS
; Function compile flags: /Ogtp
; File D:\git\src\IBK\IBK_DRFN\ProjSrc\SrcChartEx\ChartOCX\ChartObject\ScaleTool.cpp
; File D:\git\src\IBK\IBK_DRFN\ProjSrc\SrcChartEx\ChartOCX\ChartObject\GraphSearchInfo.h
; File D:\git\src\IBK\IBK_DRFN\ProjSrc\SrcChartEx\ChartOCX\ChartObject\ScaleTool.cpp
; File D:\git\src\IBK\IBK_DRFN\ProjSrc\SrcChartEx\ChartOCX\ChartObject\GraphSearchInfo.h
; File D:\git\src\IBK\IBK_DRFN\ProjSrc\SrcChartEx\ChartOCX\ChartObject\ScaleTool.cpp
; File D:\git\src\IBK\IBK_DRFN\ProjSrc\SrcChartEx\ChartOCX\ChartObject\GraphSearchInfo.h
; File D:\git\src\IBK\IBK_DRFN\ProjSrc\SrcChartEx\ChartOCX\ChartObject\ScaleTool.cpp
; File D:\git\src\IBK\IBK_DRFN\ProjSrc\SrcChartEx\ChartOCX\ChartObject\GraphSearchInfo.h
; File D:\git\src\IBK\IBK_DRFN\ProjSrc\SrcChartEx\ChartOCX\ChartObject\ScaleTool.cpp
; File C:\Program Files (x86)\Microsoft Visual Studio\2019\Community\VC\Tools\MSVC\14.29.30133\atlmfc\include\atltypes.h
; File D:\git\src\IBK\IBK_DRFN\ProjSrc\SrcChartEx\ChartOCX\ChartObject\ScaleTool.cpp
;	COMDAT ?OnMenu_ScaleSet@CVertScaleTool@@MAE_NPAVCMainBlock@@H@Z
_TEXT	SEGMENT
_gsi$ = -264						; size = 68
_this$GSCopy$1$ = -196					; size = 4
_pMainBlock$GSCopy$1$ = -192				; size = 4
tv205 = -188						; size = 4
$T1 = -184						; size = 132
$T2 = -52						; size = 32
$T3 = -20						; size = 16
$T4 = -12						; size = 8
__$ArrayPad$ = -4					; size = 4
_pMainBlock$ = 8					; size = 4
___formal$ = 12						; size = 4
?OnMenu_ScaleSet@CVertScaleTool@@MAE_NPAVCMainBlock@@H@Z PROC ; CVertScaleTool::OnMenu_ScaleSet, COMDAT
; _this$ = ecx

; 246  : {

  00000	55		 push	 ebp
  00001	8b ec		 mov	 ebp, esp
  00003	81 ec 08 01 00
	00		 sub	 esp, 264		; 00000108H
  00009	a1 00 00 00 00	 mov	 eax, DWORD PTR ___security_cookie
  0000e	33 c5		 xor	 eax, ebp
  00010	89 45 fc	 mov	 DWORD PTR __$ArrayPad$[ebp], eax
  00013	53		 push	 ebx
  00014	8b 5d 08	 mov	 ebx, DWORD PTR _pMainBlock$[ebp]
  00017	8b c1		 mov	 eax, ecx
  00019	89 85 3c ff ff
	ff		 mov	 DWORD PTR _this$GSCopy$1$[ebp], eax
  0001f	89 9d 40 ff ff
	ff		 mov	 DWORD PTR _pMainBlock$GSCopy$1$[ebp], ebx
  00025	56		 push	 esi
  00026	57		 push	 edi

; 247  : 	if( !pMainBlock) return false;

  00027	85 db		 test	 ebx, ebx
  00029	0f 84 d3 00 00
	00		 je	 $LN9@OnMenu_Sca

; 248  : 
; 249  : 	CBlockImp *pBlock = ( CBlockImp *)pMainBlock->GetBlock( pMainBlock->FindBlockIndex( m_ptSelectedPoint));

  0002f	8b 33		 mov	 esi, DWORD PTR [ebx]
  00031	8d 78 10	 lea	 edi, DWORD PTR [eax+16]
  00034	57		 push	 edi
  00035	8d 45 f4	 lea	 eax, DWORD PTR $T4[ebp]
  00038	89 bd 44 ff ff
	ff		 mov	 DWORD PTR tv205[ebp], edi
  0003e	50		 push	 eax
  0003f	8b cb		 mov	 ecx, ebx
  00041	ff 56 04	 call	 DWORD PTR [esi+4]
  00044	50		 push	 eax
  00045	8b cb		 mov	 ecx, ebx
  00047	ff 56 08	 call	 DWORD PTR [esi+8]

; 250  : 	if( pBlock == NULL) return false;

  0004a	85 c0		 test	 eax, eax
  0004c	0f 84 b0 00 00
	00		 je	 $LN9@OnMenu_Sca

; 251  : 	CVertScaleGroupList &vertScaleGroupList = pBlock->GetVertScaleGroupList();

  00052	8b c8		 mov	 ecx, eax
  00054	e8 00 00 00 00	 call	 ?GetVertScaleGroupList@CBlockImp@@QAEAAVCVertScaleGroupList@@XZ ; CBlockImp::GetVertScaleGroupList
; File D:\git\src\IBK\IBK_DRFN\ProjSrc\SrcChartEx\ChartOCX\ChartObject\GraphSearchInfo.h

; 141  : 	CGraphSearchInfo_ActiveVertScaleAndGridLine()	{	m_nActiveFlag = -1;	}

  00059	8d 8d f8 fe ff
	ff		 lea	 ecx, DWORD PTR _gsi$[ebp]
; File D:\git\src\IBK\IBK_DRFN\ProjSrc\SrcChartEx\ChartOCX\ChartObject\ScaleTool.cpp

; 251  : 	CVertScaleGroupList &vertScaleGroupList = pBlock->GetVertScaleGroupList();

  0005f	8b d8		 mov	 ebx, eax
; File D:\git\src\IBK\IBK_DRFN\ProjSrc\SrcChartEx\ChartOCX\ChartObject\GraphSearchInfo.h

; 141  : 	CGraphSearchInfo_ActiveVertScaleAndGridLine()	{	m_nActiveFlag = -1;	}

  00061	e8 00 00 00 00	 call	 ??0CGraphSearchInfo@@QAE@XZ ; CGraphSearchInfo::CGraphSearchInfo
; File D:\git\src\IBK\IBK_DRFN\ProjSrc\SrcChartEx\ChartOCX\ChartObject\ScaleTool.cpp

; 254  : 	gsi.m_nActiveFlag = ( vertScaleGroupList.GetDrawingRegion().GetVertScaleRegion().GetLeftScaleRegion().PtInRect( m_ptSelectedPoint) ? VSGA_LEFTSCALE : VSGA_RIGHTSCALE);

  00066	8b b5 44 ff ff
	ff		 mov	 esi, DWORD PTR tv205[ebp]
  0006c	8d 45 ec	 lea	 eax, DWORD PTR $T3[ebp]
  0006f	8b 3f		 mov	 edi, DWORD PTR [edi]
  00071	8b cb		 mov	 ecx, ebx
  00073	50		 push	 eax
  00074	8d 45 cc	 lea	 eax, DWORD PTR $T2[ebp]
; File D:\git\src\IBK\IBK_DRFN\ProjSrc\SrcChartEx\ChartOCX\ChartObject\GraphSearchInfo.h

; 141  : 	CGraphSearchInfo_ActiveVertScaleAndGridLine()	{	m_nActiveFlag = -1;	}

  00077	c7 85 f8 fe ff
	ff 00 00 00 00	 mov	 DWORD PTR _gsi$[ebp], OFFSET ??_7CGraphSearchInfo_ActiveVertScaleAndGridLine@@6B@
; File D:\git\src\IBK\IBK_DRFN\ProjSrc\SrcChartEx\ChartOCX\ChartObject\ScaleTool.cpp

; 254  : 	gsi.m_nActiveFlag = ( vertScaleGroupList.GetDrawingRegion().GetVertScaleRegion().GetLeftScaleRegion().PtInRect( m_ptSelectedPoint) ? VSGA_LEFTSCALE : VSGA_RIGHTSCALE);

  00081	8b 76 04	 mov	 esi, DWORD PTR [esi+4]
  00084	50		 push	 eax
  00085	8d 85 48 ff ff
	ff		 lea	 eax, DWORD PTR $T1[ebp]
; File D:\git\src\IBK\IBK_DRFN\ProjSrc\SrcChartEx\ChartOCX\ChartObject\GraphSearchInfo.h

; 141  : 	CGraphSearchInfo_ActiveVertScaleAndGridLine()	{	m_nActiveFlag = -1;	}

  0008b	c7 85 38 ff ff
	ff ff ff ff ff	 mov	 DWORD PTR _gsi$[ebp+64], -1
; File D:\git\src\IBK\IBK_DRFN\ProjSrc\SrcChartEx\ChartOCX\ChartObject\ScaleTool.cpp

; 254  : 	gsi.m_nActiveFlag = ( vertScaleGroupList.GetDrawingRegion().GetVertScaleRegion().GetLeftScaleRegion().PtInRect( m_ptSelectedPoint) ? VSGA_LEFTSCALE : VSGA_RIGHTSCALE);

  00095	50		 push	 eax
  00096	e8 00 00 00 00	 call	 ?GetDrawingRegion@CVertScaleGroupList@@QBE?AVCDrawingRegion@@XZ ; CVertScaleGroupList::GetDrawingRegion
  0009b	8b c8		 mov	 ecx, eax
  0009d	e8 00 00 00 00	 call	 ?GetVertScaleRegion@CDrawingRegion@@QBE?AVCVertScaleRegion@@XZ ; CDrawingRegion::GetVertScaleRegion
  000a2	8b c8		 mov	 ecx, eax
  000a4	ff 15 00 00 00
	00		 call	 DWORD PTR __imp_?GetLeftScaleRegion@CVertScaleRegion@@QBE?AVCRect@@XZ
; File C:\Program Files (x86)\Microsoft Visual Studio\2019\Community\VC\Tools\MSVC\14.29.30133\atlmfc\include\atltypes.h

; 648  : 	return ::PtInRect(this, point);

  000aa	56		 push	 esi
  000ab	57		 push	 edi
  000ac	50		 push	 eax
  000ad	ff 15 00 00 00
	00		 call	 DWORD PTR __imp__PtInRect@12
; File D:\git\src\IBK\IBK_DRFN\ProjSrc\SrcChartEx\ChartOCX\ChartObject\ScaleTool.cpp

; 254  : 	gsi.m_nActiveFlag = ( vertScaleGroupList.GetDrawingRegion().GetVertScaleRegion().GetLeftScaleRegion().PtInRect( m_ptSelectedPoint) ? VSGA_LEFTSCALE : VSGA_RIGHTSCALE);

  000b3	f7 d8		 neg	 eax

; 255  : 
; 256  : 	// Y Scale  Y Scale     - ojtaso (20071115)
; 257  : 	bool bFind = vertScaleGroupList.FindGraph( &gsi);

  000b5	8b cb		 mov	 ecx, ebx
  000b7	1b c0		 sbb	 eax, eax
  000b9	83 e0 fe	 and	 eax, -2			; fffffffeH
  000bc	83 c0 04	 add	 eax, 4
  000bf	89 85 38 ff ff
	ff		 mov	 DWORD PTR _gsi$[ebp+64], eax
  000c5	8d 85 f8 fe ff
	ff		 lea	 eax, DWORD PTR _gsi$[ebp]
  000cb	50		 push	 eax
  000cc	e8 00 00 00 00	 call	 ?FindGraph@CVertScaleGroupList@@QBEHPAVCGraphSearchInfo@@@Z ; CVertScaleGroupList::FindGraph

; 258  : 	ShowVertScaleSettingDlg( pMainBlock, gsi.m_nVertScaleGroupIndex);

  000d1	ff b5 18 ff ff
	ff		 push	 DWORD PTR _gsi$[ebp+32]
  000d7	8b 8d 3c ff ff
	ff		 mov	 ecx, DWORD PTR _this$GSCopy$1$[ebp]
  000dd	85 c0		 test	 eax, eax
  000df	ff b5 40 ff ff
	ff		 push	 DWORD PTR _pMainBlock$GSCopy$1$[ebp]
  000e5	0f 95 c3	 setne	 bl
  000e8	e8 00 00 00 00	 call	 ?ShowVertScaleSettingDlg@CVertScaleTool@@IAE_NPAVCMainBlock@@H@Z ; CVertScaleTool::ShowVertScaleSettingDlg
  000ed	5f		 pop	 edi

; 259  : 
; 260  : 	return bFind;
; 261  : }

  000ee	5e		 pop	 esi
  000ef	8a c3		 mov	 al, bl
  000f1	5b		 pop	 ebx
  000f2	8b 4d fc	 mov	 ecx, DWORD PTR __$ArrayPad$[ebp]
  000f5	33 cd		 xor	 ecx, ebp
  000f7	e8 00 00 00 00	 call	 @__security_check_cookie@4
  000fc	8b e5		 mov	 esp, ebp
  000fe	5d		 pop	 ebp
  000ff	c2 08 00	 ret	 8
$LN9@OnMenu_Sca:
  00102	8b 4d fc	 mov	 ecx, DWORD PTR __$ArrayPad$[ebp]
  00105	32 c0		 xor	 al, al
  00107	5f		 pop	 edi
  00108	5e		 pop	 esi
  00109	33 cd		 xor	 ecx, ebp
  0010b	5b		 pop	 ebx
  0010c	e8 00 00 00 00	 call	 @__security_check_cookie@4
  00111	8b e5		 mov	 esp, ebp
  00113	5d		 pop	 ebp
  00114	c2 08 00	 ret	 8
?OnMenu_ScaleSet@CVertScaleTool@@MAE_NPAVCMainBlock@@H@Z ENDP ; CVertScaleTool::OnMenu_ScaleSet
_TEXT	ENDS
; Function compile flags: /Ogtp
; File D:\git\src\IBK\IBK_DRFN\ProjSrc\SrcChartEx\ChartOCX\ChartObject\ScaleTool.cpp
;	COMDAT ?OnRButtonUp@CVertScaleTool@@MAE?AW4MENUTYPE@CMenuType@@XZ
_TEXT	SEGMENT
?OnRButtonUp@CVertScaleTool@@MAE?AW4MENUTYPE@CMenuType@@XZ PROC ; CVertScaleTool::OnRButtonUp, COMDAT
; _this$ = ecx

; 235  : 	assert(CScaleTool::GetBlock() != NULL);
; 236  : 
; 237  : 	// x scale  <>,<>  x scale  
; 238  : 	CScaleBaseData::HORZSCALEPOSITION horzScalePosition = CScaleTool::GetBlock()->GetBlockData().GetHorzScale().GetHorzScalePosition();

  00000	8b 49 0c	 mov	 ecx, DWORD PTR [ecx+12]
  00003	e8 00 00 00 00	 call	 ?GetBlockData@CBlockImp@@QAEAAVCBlockData@@XZ ; CBlockImp::GetBlockData
  00008	8b c8		 mov	 ecx, eax
  0000a	e8 00 00 00 00	 call	 ?GetHorzScale@CBlockData@@QAEAAVCHorizontalScale@@XZ ; CBlockData::GetHorzScale
  0000f	8b c8		 mov	 ecx, eax
  00011	ff 15 00 00 00
	00		 call	 DWORD PTR __imp_?GetHorzScalePosition@CHorizontalScale@@QBE?AW4HORZSCALEPOSITION@CScaleBaseData@@XZ

; 239  : 	if(horzScalePosition == CScaleBaseData::HORZ_HIDE || horzScalePosition == CScaleBaseData::HORZ_NONE)

  00017	83 f8 03	 cmp	 eax, 3
  0001a	74 0a		 je	 SHORT $LN3@OnRButtonU
  0001c	83 f8 04	 cmp	 eax, 4

; 241  : 
; 242  : 	return CMenuType::MENU_VERT_SCALE;

  0001f	b8 04 00 00 00	 mov	 eax, 4
  00024	75 05		 jne	 SHORT $LN1@OnRButtonU
$LN3@OnRButtonU:

; 240  : 		return CMenuType::MENU_VERT_HORZ_SCALE;

  00026	b8 05 00 00 00	 mov	 eax, 5
$LN1@OnRButtonU:

; 243  : }

  0002b	c3		 ret	 0
?OnRButtonUp@CVertScaleTool@@MAE?AW4MENUTYPE@CMenuType@@XZ ENDP ; CVertScaleTool::OnRButtonUp
_TEXT	ENDS
; Function compile flags: /Ogtp
; File D:\git\src\IBK\IBK_DRFN\ProjSrc\SrcChartEx\ChartOCX\ChartObject\ScaleTool.cpp
;	COMDAT ?OnRButtonUp@CVertScaleTool@@MAE?AW4MENUTYPE@CMenuType@@PAVCDC@@PAVCMainBlock@@ABVCPoint@@@Z
_TEXT	SEGMENT
$T1 = -8						; size = 8
_pDC$ = 8						; size = 4
_pMainBlock$ = 12					; size = 4
_point$ = 16						; size = 4
?OnRButtonUp@CVertScaleTool@@MAE?AW4MENUTYPE@CMenuType@@PAVCDC@@PAVCMainBlock@@ABVCPoint@@@Z PROC ; CVertScaleTool::OnRButtonUp, COMDAT
; _this$ = ecx

; 228  : {

  00000	55		 push	 ebp
  00001	8b ec		 mov	 ebp, esp
  00003	83 ec 08	 sub	 esp, 8
  00006	53		 push	 ebx

; 229  : 	m_ptSelectedPoint = point;

  00007	8b 5d 10	 mov	 ebx, DWORD PTR _point$[ebp]
  0000a	57		 push	 edi
  0000b	8b f9		 mov	 edi, ecx
  0000d	8b 03		 mov	 eax, DWORD PTR [ebx]
  0000f	8b 53 04	 mov	 edx, DWORD PTR [ebx+4]
  00012	89 47 10	 mov	 DWORD PTR [edi+16], eax

; 69   : 	InitializeAllData();

  00015	8b 07		 mov	 eax, DWORD PTR [edi]

; 229  : 	m_ptSelectedPoint = point;

  00017	89 57 14	 mov	 DWORD PTR [edi+20], edx

; 69   : 	InitializeAllData();

  0001a	ff 10		 call	 DWORD PTR [eax]

; 70   : 	if(pMainBlock == NULL) return false;

  0001c	8b 45 0c	 mov	 eax, DWORD PTR _pMainBlock$[ebp]
  0001f	85 c0		 test	 eax, eax
  00021	74 45		 je	 SHORT $LN10@OnRButtonU

; 71   : 
; 72   : 	m_pBlock = ( CBlockImp *)pMainBlock->GetBlock( pMainBlock->FindBlockIndex( point));

  00023	56		 push	 esi
  00024	8b 30		 mov	 esi, DWORD PTR [eax]
  00026	8d 4d f8	 lea	 ecx, DWORD PTR $T1[ebp]
  00029	53		 push	 ebx
  0002a	51		 push	 ecx
  0002b	8b c8		 mov	 ecx, eax
  0002d	ff 56 04	 call	 DWORD PTR [esi+4]
  00030	8b 4d 0c	 mov	 ecx, DWORD PTR _pMainBlock$[ebp]
  00033	50		 push	 eax
  00034	ff 56 08	 call	 DWORD PTR [esi+8]
  00037	8b c8		 mov	 ecx, eax
  00039	89 4f 0c	 mov	 DWORD PTR [edi+12], ecx
  0003c	5e		 pop	 esi

; 73   : 	if(m_pBlock == NULL) return false;

  0003d	85 c9		 test	 ecx, ecx
  0003f	74 27		 je	 SHORT $LN10@OnRButtonU

; 74   : 
; 75   : 	return FindScale(m_pBlock, point);

  00041	8b 07		 mov	 eax, DWORD PTR [edi]
  00043	53		 push	 ebx
  00044	51		 push	 ecx
  00045	8b cf		 mov	 ecx, edi
  00047	8b 40 30	 mov	 eax, DWORD PTR [eax+48]
  0004a	ff d0		 call	 eax

; 52   : 	if(!Find(pMainBlock, point))

  0004c	84 c0		 test	 al, al
  0004e	74 18		 je	 SHORT $LN10@OnRButtonU

; 53   : 		return CMenuType::MENU_NONE;
; 54   : 
; 55   : 	CBaseTool::SetProcessEnded(false);

  00050	6a 00		 push	 0
  00052	8b cf		 mov	 ecx, edi
  00054	e8 00 00 00 00	 call	 ?SetProcessEnded@CBaseTool@@IAEX_N@Z ; CBaseTool::SetProcessEnded

; 56   : 	return OnRButtonUp();

  00059	8b 07		 mov	 eax, DWORD PTR [edi]
  0005b	8b cf		 mov	 ecx, edi
  0005d	ff 50 28	 call	 DWORD PTR [eax+40]
  00060	5f		 pop	 edi

; 231  : }

  00061	5b		 pop	 ebx
  00062	8b e5		 mov	 esp, ebp
  00064	5d		 pop	 ebp
  00065	c2 0c 00	 ret	 12			; 0000000cH
$LN10@OnRButtonU:
  00068	5f		 pop	 edi

; 230  : 	return CScaleTool::OnRButtonUp( pDC, pMainBlock, point);

  00069	83 c8 ff	 or	 eax, -1

; 231  : }

  0006c	5b		 pop	 ebx
  0006d	8b e5		 mov	 esp, ebp
  0006f	5d		 pop	 ebp
  00070	c2 0c 00	 ret	 12			; 0000000cH
?OnRButtonUp@CVertScaleTool@@MAE?AW4MENUTYPE@CMenuType@@PAVCDC@@PAVCMainBlock@@ABVCPoint@@@Z ENDP ; CVertScaleTool::OnRButtonUp
_TEXT	ENDS
; Function compile flags: /Ogtp
; File D:\git\src\IBK\IBK_DRFN\ProjSrc\SrcChartEx\ChartOCX\ChartObject\ScaleTool.cpp
;	COMDAT ?OnLButtonDblClk@CVertScaleTool@@UAE_NPAVCDC@@PAVCMainBlock@@ABVCPoint@@@Z
_TEXT	SEGMENT
_pDC$ = 8						; size = 4
_pMainBlock$ = 12					; size = 4
_point$ = 16						; size = 4
?OnLButtonDblClk@CVertScaleTool@@UAE_NPAVCDC@@PAVCMainBlock@@ABVCPoint@@@Z PROC ; CVertScaleTool::OnLButtonDblClk, COMDAT
; _this$ = ecx

; 219  : {

  00000	55		 push	 ebp
  00001	8b ec		 mov	 ebp, esp

; 220  : 	// (2007/7/13 - Seung-Won, Bae) Reset Selected VScale with Double Click or Popup Menu.
; 221  : 	m_ptSelectedPoint = point;

  00003	8b 45 10	 mov	 eax, DWORD PTR _point$[ebp]

; 222  : 	if( !OnMenu_ScaleSet( pMainBlock, 0)) return false;

  00006	6a 00		 push	 0
  00008	ff 75 0c	 push	 DWORD PTR _pMainBlock$[ebp]
  0000b	8b 10		 mov	 edx, DWORD PTR [eax]
  0000d	8b 40 04	 mov	 eax, DWORD PTR [eax+4]
  00010	89 41 14	 mov	 DWORD PTR [ecx+20], eax
  00013	8b 01		 mov	 eax, DWORD PTR [ecx]
  00015	89 51 10	 mov	 DWORD PTR [ecx+16], edx
  00018	8b 40 2c	 mov	 eax, DWORD PTR [eax+44]
  0001b	ff d0		 call	 eax
  0001d	84 c0		 test	 al, al
  0001f	0f 95 c0	 setne	 al

; 223  : 	return true;
; 224  : }

  00022	5d		 pop	 ebp
  00023	c2 0c 00	 ret	 12			; 0000000cH
?OnLButtonDblClk@CVertScaleTool@@UAE_NPAVCDC@@PAVCMainBlock@@ABVCPoint@@@Z ENDP ; CVertScaleTool::OnLButtonDblClk
_TEXT	ENDS
; Function compile flags: /Ogtp
; File D:\git\src\IBK\IBK_DRFN\ProjSrc\SrcChartEx\ChartOCX\ChartObject\ScaleTool.cpp
;	COMDAT ?GetToolType@CVertScaleTool@@UBE?AW4TOOLTYPE@CBlockBaseData@@XZ
_TEXT	SEGMENT
?GetToolType@CVertScaleTool@@UBE?AW4TOOLTYPE@CBlockBaseData@@XZ PROC ; CVertScaleTool::GetToolType, COMDAT
; _this$ = ecx

; 213  : 	return CBlockBaseData::TOOL_VERTSCALE;

  00000	b8 04 00 00 00	 mov	 eax, 4

; 214  : }

  00005	c3		 ret	 0
?GetToolType@CVertScaleTool@@UBE?AW4TOOLTYPE@CBlockBaseData@@XZ ENDP ; CVertScaleTool::GetToolType
_TEXT	ENDS
; Function compile flags: /Ogtp
; File D:\git\src\IBK\IBK_DRFN\ProjSrc\SrcChartEx\ChartOCX\ChartObject\ScaleTool.cpp
; File C:\Program Files (x86)\Microsoft Visual Studio\2019\Community\VC\Tools\MSVC\14.29.30133\atlmfc\include\atltypes.h
; File D:\git\src\IBK\IBK_DRFN\ProjSrc\SrcChartEx\ChartOCX\ChartObject\ScaleTool.cpp
;	COMDAT ??0CVertScaleTool@@QAE@XZ
_TEXT	SEGMENT
??0CVertScaleTool@@QAE@XZ PROC				; CVertScaleTool::CVertScaleTool, COMDAT
; _this$ = ecx

; 207  : {

  00000	56		 push	 esi
  00001	8b f1		 mov	 esi, ecx

; 31   : {

  00003	e8 00 00 00 00	 call	 ??0CBaseTool@@QAE@XZ	; CBaseTool::CBaseTool

; 30   : 	m_pBlock(NULL)

  00008	c7 46 0c 00 00
	00 00		 mov	 DWORD PTR [esi+12], 0

; 208  : }

  0000f	8b c6		 mov	 eax, esi
  00011	c7 06 00 00 00
	00		 mov	 DWORD PTR [esi], OFFSET ??_7CVertScaleTool@@6B@
; File C:\Program Files (x86)\Microsoft Visual Studio\2019\Community\VC\Tools\MSVC\14.29.30133\atlmfc\include\atltypes.h

; 400  : 	x = 0;

  00017	c7 46 10 00 00
	00 00		 mov	 DWORD PTR [esi+16], 0

; 401  : 	y = 0;

  0001e	c7 46 14 00 00
	00 00		 mov	 DWORD PTR [esi+20], 0
; File D:\git\src\IBK\IBK_DRFN\ProjSrc\SrcChartEx\ChartOCX\ChartObject\ScaleTool.cpp

; 208  : }

  00025	5e		 pop	 esi
  00026	c3		 ret	 0
??0CVertScaleTool@@QAE@XZ ENDP				; CVertScaleTool::CVertScaleTool
_TEXT	ENDS
; Function compile flags: /Ogtp
; File D:\git\src\IBK\IBK_DRFN\ProjSrc\SrcChartEx\ChartOCX\ChartObject\ScaleTool.cpp
;	COMDAT ?GetHorzScalePtrDataList@CHorzScaleTool@@AAEXPAVCMainBlock@@HAAVCHorizontalScalePtrDataList@@@Z
_TEXT	SEGMENT
_pMainBlock$ = 8					; size = 4
_nMarginCount$ = 12					; size = 4
_horzScalePtrDataList$ = 16				; size = 4
?GetHorzScalePtrDataList@CHorzScaleTool@@AAEXPAVCMainBlock@@HAAVCHorizontalScalePtrDataList@@@Z PROC ; CHorzScaleTool::GetHorzScalePtrDataList, COMDAT
; _this$ = ecx

; 188  : {

  00000	55		 push	 ebp
  00001	8b ec		 mov	 ebp, esp
  00003	53		 push	 ebx
  00004	56		 push	 esi

; 189  : 	horzScalePtrDataList.RemoveAll();

  00005	8b 75 10	 mov	 esi, DWORD PTR _horzScalePtrDataList$[ebp]
  00008	57		 push	 edi
  00009	8b f9		 mov	 edi, ecx
  0000b	8b ce		 mov	 ecx, esi
  0000d	e8 00 00 00 00	 call	 ?RemoveAll@CHorizontalScalePtrDataList@@QAEXXZ ; CHorizontalScalePtrDataList::RemoveAll

; 190  : 
; 191  : 	CScaleColor* pScaleColor = &pMainBlock->GetScaleColor();

  00012	8b 4d 08	 mov	 ecx, DWORD PTR _pMainBlock$[ebp]
  00015	8b 01		 mov	 eax, DWORD PTR [ecx]
  00017	ff 90 f0 01 00
	00		 call	 DWORD PTR [eax+496]
  0001d	8b d8		 mov	 ebx, eax

; 192  : 	if(pScaleColor == NULL || CScaleTool::GetBlock() == NULL || nMarginCount < 0)

  0001f	85 db		 test	 ebx, ebx
  00021	74 41		 je	 SHORT $LN3@GetHorzSca
  00023	83 7f 0c 00	 cmp	 DWORD PTR [edi+12], 0
  00027	74 3b		 je	 SHORT $LN3@GetHorzSca
  00029	8b 4d 0c	 mov	 ecx, DWORD PTR _nMarginCount$[ebp]
  0002c	85 c9		 test	 ecx, ecx
  0002e	78 34		 js	 SHORT $LN3@GetHorzSca

; 193  : 		return;
; 194  : 
; 195  : 	if(nMarginCount > 0)

  00030	7e 08		 jle	 SHORT $LN4@GetHorzSca

; 196  : 		horzScalePtrDataList.SetMarginCount(nMarginCount);

  00032	51		 push	 ecx
  00033	8b ce		 mov	 ecx, esi
  00035	e8 00 00 00 00	 call	 ?SetMarginCount@CHorizontalScalePtrDataList@@QAEXH@Z ; CHorizontalScalePtrDataList::SetMarginCount
$LN4@GetHorzSca:

; 197  : 	horzScalePtrDataList.SetScaleColor(&pScaleColor->GetHorzScaleColor(), &pScaleColor->GetScaleTextColor());

  0003a	8b cb		 mov	 ecx, ebx
  0003c	ff 15 00 00 00
	00		 call	 DWORD PTR __imp_?GetScaleTextColor@CScaleColor@@QAEAAKXZ
  00042	50		 push	 eax
  00043	8b cb		 mov	 ecx, ebx
  00045	ff 15 00 00 00
	00		 call	 DWORD PTR __imp_?GetHorzScaleColor@CScaleColor@@QAEAAKXZ
  0004b	50		 push	 eax
  0004c	8b ce		 mov	 ecx, esi
  0004e	e8 00 00 00 00	 call	 ?SetScaleColor@CHorizontalScalePtrDataList@@QAEXPAK0@Z ; CHorizontalScalePtrDataList::SetScaleColor

; 198  : 	CScaleTool::GetBlock()->GetBlocksColumn()->GetHorzScalePtrDataList(CScaleTool::GetBlock(), horzScalePtrDataList);

  00053	8b 4f 0c	 mov	 ecx, DWORD PTR [edi+12]
  00056	56		 push	 esi
  00057	51		 push	 ecx
  00058	e8 00 00 00 00	 call	 ?GetBlocksColumn@CBlockImp@@QAEPAVCBlocksColumn@@XZ ; CBlockImp::GetBlocksColumn
  0005d	8b c8		 mov	 ecx, eax
  0005f	e8 00 00 00 00	 call	 ?GetHorzScalePtrDataList@CBlocksColumn@@QBEXPBVCBlockImp@@AAVCHorizontalScalePtrDataList@@@Z ; CBlocksColumn::GetHorzScalePtrDataList
$LN3@GetHorzSca:

; 199  : }

  00064	5f		 pop	 edi
  00065	5e		 pop	 esi
  00066	5b		 pop	 ebx
  00067	5d		 pop	 ebp
  00068	c2 0c 00	 ret	 12			; 0000000cH
?GetHorzScalePtrDataList@CHorzScaleTool@@AAEXPAVCMainBlock@@HAAVCHorizontalScalePtrDataList@@@Z ENDP ; CHorzScaleTool::GetHorzScalePtrDataList
_TEXT	ENDS
; Function compile flags: /Ogtp
; File D:\git\src\IBK\IBK_DRFN\ProjSrc\SrcChartEx\ChartOCX\ChartObject\ScaleTool.cpp
;	COMDAT ?FindScale@CHorzScaleTool@@MAE_NPAVCBlockImp@@ABVCPoint@@@Z
_TEXT	SEGMENT
$T1 = -168						; size = 132
$T2 = -36						; size = 32
__$ArrayPad$ = -4					; size = 4
_pBlock$ = 8						; size = 4
_point$ = 12						; size = 4
?FindScale@CHorzScaleTool@@MAE_NPAVCBlockImp@@ABVCPoint@@@Z PROC ; CHorzScaleTool::FindScale, COMDAT
; _this$ = ecx

; 180  : {

  00000	55		 push	 ebp
  00001	8b ec		 mov	 ebp, esp
  00003	81 ec a8 00 00
	00		 sub	 esp, 168		; 000000a8H
  00009	a1 00 00 00 00	 mov	 eax, DWORD PTR ___security_cookie
  0000e	33 c5		 xor	 eax, ebp
  00010	89 45 fc	 mov	 DWORD PTR __$ArrayPad$[ebp], eax
  00013	8b 45 0c	 mov	 eax, DWORD PTR _point$[ebp]
  00016	8b 4d 08	 mov	 ecx, DWORD PTR _pBlock$[ebp]

; 181  : 	assert(pBlock != NULL);
; 182  : 	return pBlock->GetVertScaleGroupList().GetDrawingRegion().GetHorzScaleRegion().PointInRegion(point);

  00019	50		 push	 eax
  0001a	8d 45 dc	 lea	 eax, DWORD PTR $T2[ebp]
  0001d	50		 push	 eax
  0001e	8d 85 58 ff ff
	ff		 lea	 eax, DWORD PTR $T1[ebp]
  00024	50		 push	 eax
  00025	e8 00 00 00 00	 call	 ?GetVertScaleGroupList@CBlockImp@@QAEAAVCVertScaleGroupList@@XZ ; CBlockImp::GetVertScaleGroupList
  0002a	8b c8		 mov	 ecx, eax
  0002c	e8 00 00 00 00	 call	 ?GetDrawingRegion@CVertScaleGroupList@@QBE?AVCDrawingRegion@@XZ ; CVertScaleGroupList::GetDrawingRegion
  00031	8b c8		 mov	 ecx, eax
  00033	e8 00 00 00 00	 call	 ?GetHorzScaleRegion@CDrawingRegion@@QBE?AVCHorzScaleRegion@@XZ ; CDrawingRegion::GetHorzScaleRegion
  00038	8b c8		 mov	 ecx, eax
  0003a	ff 15 00 00 00
	00		 call	 DWORD PTR __imp_?PointInRegion@CHorzScaleRegion@@QBE_NABVCPoint@@@Z

; 183  : }

  00040	8b 4d fc	 mov	 ecx, DWORD PTR __$ArrayPad$[ebp]
  00043	33 cd		 xor	 ecx, ebp
  00045	e8 00 00 00 00	 call	 @__security_check_cookie@4
  0004a	8b e5		 mov	 esp, ebp
  0004c	5d		 pop	 ebp
  0004d	c2 08 00	 ret	 8
?FindScale@CHorzScaleTool@@MAE_NPAVCBlockImp@@ABVCPoint@@@Z ENDP ; CHorzScaleTool::FindScale
_TEXT	ENDS
; Function compile flags: /Ogtp
; File D:\git\src\IBK\IBK_DRFN\ProjSrc\SrcChartEx\ChartOCX\ChartObject\ScaleTool.cpp
; File C:\Program Files (x86)\Microsoft Visual Studio\2019\Community\VC\Tools\MSVC\14.29.30133\atlmfc\include\afxwin1.inl
; File D:\git\src\IBK\IBK_DRFN\ProjSrc\SrcChartEx\ChartOCX\Include_Chart\Dll_Load\IMetaTable.h
; File C:\Program Files (x86)\Microsoft Visual Studio\2019\Community\VC\Tools\MSVC\14.29.30133\atlmfc\include\afxwin1.inl
; File D:\git\src\IBK\IBK_DRFN\ProjSrc\SrcChartEx\ChartOCX\ChartObject\ScaleTool.cpp
; File D:\git\src\IBK\IBK_DRFN\ProjSrc\SrcChartEx\ChartOCX\Include_Chart\Dll_Load\IMetaTable.h
; File C:\Program Files (x86)\Microsoft Visual Studio\2019\Community\VC\Tools\MSVC\14.29.30133\atlmfc\include\afxwin1.inl
; File D:\git\src\IBK\IBK_DRFN\ProjSrc\SrcChartEx\ChartOCX\Include_Chart\Dll_Load\IMetaTable.h
; File D:\git\src\IBK\IBK_DRFN\ProjSrc\SrcChartEx\ChartOCX\ChartObject\ScaleTool.cpp
;	COMDAT ?OnMenu_ScaleSet@CHorzScaleTool@@MAE_NPAVCMainBlock@@H@Z
_TEXT	SEGMENT
_dlg$ = -604						; size = 544
_horzScalePtrDataList$ = -60				; size = 48
__$EHRec$ = -12						; size = 12
_pParent$1$ = 8						; size = 4
_pMainBlock$ = 8					; size = 4
___mlrs__$ = 12						; size = 4
_nMarginCount$ = 12					; size = 4
?OnMenu_ScaleSet@CHorzScaleTool@@MAE_NPAVCMainBlock@@H@Z PROC ; CHorzScaleTool::OnMenu_ScaleSet, COMDAT
; _this$ = ecx

; 158  : {

  00000	55		 push	 ebp
  00001	8b ec		 mov	 ebp, esp
  00003	6a ff		 push	 -1
  00005	68 00 00 00 00	 push	 __ehhandler$?OnMenu_ScaleSet@CHorzScaleTool@@MAE_NPAVCMainBlock@@H@Z
  0000a	64 a1 00 00 00
	00		 mov	 eax, DWORD PTR fs:0
  00010	50		 push	 eax
  00011	81 ec 50 02 00
	00		 sub	 esp, 592		; 00000250H
  00017	53		 push	 ebx
  00018	56		 push	 esi
  00019	57		 push	 edi
  0001a	a1 00 00 00 00	 mov	 eax, DWORD PTR ___security_cookie
  0001f	33 c5		 xor	 eax, ebp
  00021	50		 push	 eax
  00022	8d 45 f4	 lea	 eax, DWORD PTR __$EHRec$[ebp]
  00025	64 a3 00 00 00
	00		 mov	 DWORD PTR fs:0, eax
  0002b	8b f1		 mov	 esi, ecx

; 159  : 	assert(pMainBlock != NULL);
; 160  : 
; 161  : 	CHorizontalScalePtrDataList horzScalePtrDataList( pMainBlock);

  0002d	8b 5d 08	 mov	 ebx, DWORD PTR _pMainBlock$[ebp]
  00030	8d 4d c4	 lea	 ecx, DWORD PTR _horzScalePtrDataList$[ebp]
  00033	53		 push	 ebx
  00034	e8 00 00 00 00	 call	 ??0CHorizontalScalePtrDataList@@QAE@PAVCMainBlock@@@Z ; CHorizontalScalePtrDataList::CHorizontalScalePtrDataList

; 189  : 	horzScalePtrDataList.RemoveAll();

  00039	8d 4d c4	 lea	 ecx, DWORD PTR _horzScalePtrDataList$[ebp]

; 159  : 	assert(pMainBlock != NULL);
; 160  : 
; 161  : 	CHorizontalScalePtrDataList horzScalePtrDataList( pMainBlock);

  0003c	c7 45 fc 00 00
	00 00		 mov	 DWORD PTR __$EHRec$[ebp+8], 0

; 189  : 	horzScalePtrDataList.RemoveAll();

  00043	e8 00 00 00 00	 call	 ?RemoveAll@CHorizontalScalePtrDataList@@QAEXXZ ; CHorizontalScalePtrDataList::RemoveAll

; 190  : 
; 191  : 	CScaleColor* pScaleColor = &pMainBlock->GetScaleColor();

  00048	8b 03		 mov	 eax, DWORD PTR [ebx]
  0004a	8b cb		 mov	 ecx, ebx
  0004c	ff 90 f0 01 00
	00		 call	 DWORD PTR [eax+496]
  00052	8b f8		 mov	 edi, eax

; 192  : 	if(pScaleColor == NULL || CScaleTool::GetBlock() == NULL || nMarginCount < 0)

  00054	85 ff		 test	 edi, edi
  00056	74 46		 je	 SHORT $LN13@OnMenu_Sca
  00058	83 7e 0c 00	 cmp	 DWORD PTR [esi+12], 0
  0005c	74 40		 je	 SHORT $LN13@OnMenu_Sca
  0005e	8b 4d 0c	 mov	 ecx, DWORD PTR _nMarginCount$[ebp]
  00061	85 c9		 test	 ecx, ecx
  00063	78 39		 js	 SHORT $LN13@OnMenu_Sca

; 193  : 		return;
; 194  : 
; 195  : 	if(nMarginCount > 0)

  00065	7e 09		 jle	 SHORT $LN14@OnMenu_Sca

; 196  : 		horzScalePtrDataList.SetMarginCount(nMarginCount);

  00067	51		 push	 ecx
  00068	8d 4d c4	 lea	 ecx, DWORD PTR _horzScalePtrDataList$[ebp]
  0006b	e8 00 00 00 00	 call	 ?SetMarginCount@CHorizontalScalePtrDataList@@QAEXH@Z ; CHorizontalScalePtrDataList::SetMarginCount
$LN14@OnMenu_Sca:

; 197  : 	horzScalePtrDataList.SetScaleColor(&pScaleColor->GetHorzScaleColor(), &pScaleColor->GetScaleTextColor());

  00070	8b cf		 mov	 ecx, edi
  00072	ff 15 00 00 00
	00		 call	 DWORD PTR __imp_?GetScaleTextColor@CScaleColor@@QAEAAKXZ
  00078	50		 push	 eax
  00079	8b cf		 mov	 ecx, edi
  0007b	ff 15 00 00 00
	00		 call	 DWORD PTR __imp_?GetHorzScaleColor@CScaleColor@@QAEAAKXZ
  00081	50		 push	 eax
  00082	8d 4d c4	 lea	 ecx, DWORD PTR _horzScalePtrDataList$[ebp]
  00085	e8 00 00 00 00	 call	 ?SetScaleColor@CHorizontalScalePtrDataList@@QAEXPAK0@Z ; CHorizontalScalePtrDataList::SetScaleColor

; 198  : 	CScaleTool::GetBlock()->GetBlocksColumn()->GetHorzScalePtrDataList(CScaleTool::GetBlock(), horzScalePtrDataList);

  0008a	8b 4e 0c	 mov	 ecx, DWORD PTR [esi+12]
  0008d	8d 45 c4	 lea	 eax, DWORD PTR _horzScalePtrDataList$[ebp]
  00090	50		 push	 eax
  00091	51		 push	 ecx
  00092	e8 00 00 00 00	 call	 ?GetBlocksColumn@CBlockImp@@QAEPAVCBlocksColumn@@XZ ; CBlockImp::GetBlocksColumn
  00097	8b c8		 mov	 ecx, eax
  00099	e8 00 00 00 00	 call	 ?GetHorzScalePtrDataList@CBlocksColumn@@QBEXPBVCBlockImp@@AAVCHorizontalScalePtrDataList@@@Z ; CBlocksColumn::GetHorzScalePtrDataList
$LN13@OnMenu_Sca:

; 162  : 	GetHorzScalePtrDataList(pMainBlock, nMarginCount, horzScalePtrDataList);
; 163  : 	if(horzScalePtrDataList.GetCount() <= 0)

  0009e	8d 4d c4	 lea	 ecx, DWORD PTR _horzScalePtrDataList$[ebp]
  000a1	e8 00 00 00 00	 call	 ?GetCount@CHorizontalScalePtrDataList@@QBEHXZ ; CHorizontalScalePtrDataList::GetCount
  000a6	85 c0		 test	 eax, eax
  000a8	0f 8e d7 00 00
	00		 jle	 $LN4@OnMenu_Sca

; 164  : 		return false;
; 165  : 
; 166  : 	// (2007/7/10 - Seung-Won, Bae) Use Horizontal Scale Setting UI Directly.
; 167  : 	//	CChartObjectWrapperHelper wrapperHelper(pMainBlock->GetOCXPath());
; 168  : 	//	// xScaleManager  : xScaleManager - ojtaso (20070525)
; 169  : 	//	return wrapperHelper.SetHorzScale(CBaseTool::GetParent(), &horzScalePtrDataList, pMainBlock->GetXScaleManager());
; 170  : 	CWnd *pParent = CBaseTool::GetParent();

  000ae	8b ce		 mov	 ecx, esi
  000b0	e8 00 00 00 00	 call	 ?GetParent@CBaseTool@@QBEPAVCWnd@@XZ ; CBaseTool::GetParent
  000b5	89 45 08	 mov	 DWORD PTR _pParent$1$[ebp], eax

; 171  : 	if( pParent == NULL || horzScalePtrDataList.GetCount() <= 0) return false;

  000b8	85 c0		 test	 eax, eax
  000ba	0f 84 c5 00 00
	00		 je	 $LN4@OnMenu_Sca
  000c0	8d 4d c4	 lea	 ecx, DWORD PTR _horzScalePtrDataList$[ebp]
  000c3	e8 00 00 00 00	 call	 ?GetCount@CHorizontalScalePtrDataList@@QBEHXZ ; CHorizontalScalePtrDataList::GetCount
  000c8	85 c0		 test	 eax, eax
  000ca	0f 8e b5 00 00
	00		 jle	 $LN4@OnMenu_Sca

; 172  : 	_MHWND( m_pIChartCtrl->GetWndHandle());

  000d0	8b 4e 04	 mov	 ecx, DWORD PTR [esi+4]
  000d3	8b 01		 mov	 eax, DWORD PTR [ecx]
  000d5	ff 90 a0 03 00
	00		 call	 DWORD PTR [eax+928]
  000db	8b f0		 mov	 esi, eax

; 173  : 	ML_SET_LANGUAGE_RES();

  000dd	e8 00 00 00 00	 call	 ?AfxGetStaticModuleState@@YGPAVAFX_MODULE_STATE@@XZ ; AfxGetStaticModuleState
  000e2	8b 48 08	 mov	 ecx, DWORD PTR [eax+8]
  000e5	51		 push	 ecx
  000e6	56		 push	 esi
  000e7	b9 00 00 00 00	 mov	 ecx, OFFSET ?g_iMetaTable@@3VIMetaTable@@A ; g_iMetaTable
  000ec	e8 00 00 00 00	 call	 ?LoadResourceDLL@IMetaTable@@QAEPAUHINSTANCE__@@PAUHWND__@@PAU2@@Z ; IMetaTable::LoadResourceDLL
  000f1	8b f8		 mov	 edi, eax
; File C:\Program Files (x86)\Microsoft Visual Studio\2019\Community\VC\Tools\MSVC\14.29.30133\atlmfc\include\afxwin1.inl

; 25   : 		return afxCurrentResourceHandle; }

  000f3	e8 00 00 00 00	 call	 ?AfxGetModuleState@@YGPAVAFX_MODULE_STATE@@XZ ; AfxGetModuleState
; File D:\git\src\IBK\IBK_DRFN\ProjSrc\SrcChartEx\ChartOCX\Include_Chart\Dll_Load\IMetaTable.h

; 1032 : 		m_hInstance = AfxGetResourceHandle();

  000f8	8b 70 0c	 mov	 esi, DWORD PTR [eax+12]
  000fb	89 75 0c	 mov	 DWORD PTR ___mlrs__$[ebp], esi
; File C:\Program Files (x86)\Microsoft Visual Studio\2019\Community\VC\Tools\MSVC\14.29.30133\atlmfc\include\afxwin1.inl

; 27   : 	{ ASSERT(hInstResource != NULL); afxCurrentResourceHandle = hInstResource; }

  000fe	e8 00 00 00 00	 call	 ?AfxGetModuleState@@YGPAVAFX_MODULE_STATE@@XZ ; AfxGetModuleState
  00103	89 78 0c	 mov	 DWORD PTR [eax+12], edi
; File D:\git\src\IBK\IBK_DRFN\ProjSrc\SrcChartEx\ChartOCX\ChartObject\ScaleTool.cpp

; 174  : 	CDlgHorzScaleSet dlg( pParent, pMainBlock, &horzScalePtrDataList, pMainBlock->GetXScaleManager());

  00106	8b 03		 mov	 eax, DWORD PTR [ebx]
  00108	8b cb		 mov	 ecx, ebx
  0010a	c6 45 fc 01	 mov	 BYTE PTR __$EHRec$[ebp+8], 1
  0010e	ff 90 44 02 00
	00		 call	 DWORD PTR [eax+580]
  00114	50		 push	 eax
  00115	8d 45 c4	 lea	 eax, DWORD PTR _horzScalePtrDataList$[ebp]
  00118	50		 push	 eax
  00119	53		 push	 ebx
  0011a	ff 75 08	 push	 DWORD PTR _pParent$1$[ebp]
  0011d	8d 8d a4 fd ff
	ff		 lea	 ecx, DWORD PTR _dlg$[ebp]
  00123	e8 00 00 00 00	 call	 ??0CDlgHorzScaleSet@@QAE@PAVCWnd@@PAVCMainBlock@@PAVCHorizontalScalePtrDataList@@PAVCXScaleManager@@@Z ; CDlgHorzScaleSet::CDlgHorzScaleSet

; 175  : 	dlg.DoModal();

  00128	8d 8d a4 fd ff
	ff		 lea	 ecx, DWORD PTR _dlg$[ebp]
  0012e	c6 45 fc 02	 mov	 BYTE PTR __$EHRec$[ebp+8], 2
  00132	e8 00 00 00 00	 call	 ?DoModal@CDialog@@UAEHXZ ; CDialog::DoModal
  00137	8d 4d a0	 lea	 ecx, DWORD PTR _dlg$[ebp+508]

; 176  : 	return true;

  0013a	b3 01		 mov	 bl, 1
  0013c	e8 00 00 00 00	 call	 ??1?$CList@VCHorizontalScale@@AAV1@@@UAE@XZ ; CList<CHorizontalScale,CHorizontalScale &>::~CList<CHorizontalScale,CHorizontalScale &>
  00141	8d 4d 80	 lea	 ecx, DWORD PTR _dlg$[ebp+476]
  00144	ff 15 00 00 00
	00		 call	 DWORD PTR __imp_??1?$CStringT@DV?$StrTraitMFC_DLL@DV?$ChTraitsCRT@D@ATL@@@@@ATL@@QAE@XZ
  0014a	8d 8d 7c ff ff
	ff		 lea	 ecx, DWORD PTR _dlg$[ebp+472]
  00150	ff 15 00 00 00
	00		 call	 DWORD PTR __imp_??1?$CStringT@DV?$StrTraitMFC_DLL@DV?$ChTraitsCRT@D@ATL@@@@@ATL@@QAE@XZ
  00156	8d 8d ec fe ff
	ff		 lea	 ecx, DWORD PTR _dlg$[ebp+328]
  0015c	e8 00 00 00 00	 call	 ??1CButton@@UAE@XZ	; CButton::~CButton
  00161	8d 8d 64 fe ff
	ff		 lea	 ecx, DWORD PTR _dlg$[ebp+192]
  00167	e8 00 00 00 00	 call	 ??1CButton@@UAE@XZ	; CButton::~CButton
  0016c	8d 8d a4 fd ff
	ff		 lea	 ecx, DWORD PTR _dlg$[ebp]
  00172	e8 00 00 00 00	 call	 ??1CDialog@@UAE@XZ	; CDialog::~CDialog
; File D:\git\src\IBK\IBK_DRFN\ProjSrc\SrcChartEx\ChartOCX\Include_Chart\Dll_Load\IMetaTable.h

; 1036 : 	{

  00177	c6 45 fc 03	 mov	 BYTE PTR __$EHRec$[ebp+8], 3
; File C:\Program Files (x86)\Microsoft Visual Studio\2019\Community\VC\Tools\MSVC\14.29.30133\atlmfc\include\afxwin1.inl

; 27   : 	{ ASSERT(hInstResource != NULL); afxCurrentResourceHandle = hInstResource; }

  0017b	e8 00 00 00 00	 call	 ?AfxGetModuleState@@YGPAVAFX_MODULE_STATE@@XZ ; AfxGetModuleState
  00180	89 70 0c	 mov	 DWORD PTR [eax+12], esi
; File D:\git\src\IBK\IBK_DRFN\ProjSrc\SrcChartEx\ChartOCX\Include_Chart\Dll_Load\IMetaTable.h

; 1038 : 	}

  00183	eb 02		 jmp	 SHORT $LN44@OnMenu_Sca
$LN4@OnMenu_Sca:
  00185	32 db		 xor	 bl, bl
$LN44@OnMenu_Sca:
  00187	8d 4d d4	 lea	 ecx, DWORD PTR _horzScalePtrDataList$[ebp+16]
  0018a	e8 00 00 00 00	 call	 ??1?$CList@VCHorizontalScalePtrData@@AAV1@@@UAE@XZ ; CList<CHorizontalScalePtrData,CHorizontalScalePtrData &>::~CList<CHorizontalScalePtrData,CHorizontalScalePtrData &>
; File D:\git\src\IBK\IBK_DRFN\ProjSrc\SrcChartEx\ChartOCX\ChartObject\ScaleTool.cpp

; 176  : 	return true;

  0018f	8a c3		 mov	 al, bl

; 177  : }

  00191	8b 4d f4	 mov	 ecx, DWORD PTR __$EHRec$[ebp]
  00194	64 89 0d 00 00
	00 00		 mov	 DWORD PTR fs:0, ecx
  0019b	59		 pop	 ecx
  0019c	5f		 pop	 edi
  0019d	5e		 pop	 esi
  0019e	5b		 pop	 ebx
  0019f	8b e5		 mov	 esp, ebp
  001a1	5d		 pop	 ebp
  001a2	c2 08 00	 ret	 8
_TEXT	ENDS
;	COMDAT text$x
text$x	SEGMENT
__unwindfunclet$?OnMenu_ScaleSet@CHorzScaleTool@@MAE_NPAVCMainBlock@@H@Z$0:
  00000	8d 4d c4	 lea	 ecx, DWORD PTR _horzScalePtrDataList$[ebp]
  00003	e9 00 00 00 00	 jmp	 ??1CHorizontalScalePtrDataList@@QAE@XZ
__unwindfunclet$?OnMenu_ScaleSet@CHorzScaleTool@@MAE_NPAVCMainBlock@@H@Z$1:
  00008	8d 4d 0c	 lea	 ecx, DWORD PTR ___mlrs__$[ebp]
  0000b	e9 00 00 00 00	 jmp	 ??1CMultiLanguageResourceSetter@@QAE@XZ ; CMultiLanguageResourceSetter::~CMultiLanguageResourceSetter
__unwindfunclet$?OnMenu_ScaleSet@CHorzScaleTool@@MAE_NPAVCMainBlock@@H@Z$2:
  00010	8d 8d a4 fd ff
	ff		 lea	 ecx, DWORD PTR _dlg$[ebp]
  00016	e9 00 00 00 00	 jmp	 ??1CDlgHorzScaleSet@@UAE@XZ
  0001b	cc		 int	 3
  0001c	cc		 int	 3
  0001d	cc		 int	 3
  0001e	cc		 int	 3
  0001f	cc		 int	 3
__ehhandler$?OnMenu_ScaleSet@CHorzScaleTool@@MAE_NPAVCMainBlock@@H@Z:
  00020	90		 npad	 1
  00021	90		 npad	 1
  00022	8b 54 24 08	 mov	 edx, DWORD PTR [esp+8]
  00026	8d 42 0c	 lea	 eax, DWORD PTR [edx+12]
  00029	8b 8a a0 fd ff
	ff		 mov	 ecx, DWORD PTR [edx-608]
  0002f	33 c8		 xor	 ecx, eax
  00031	e8 00 00 00 00	 call	 @__security_check_cookie@4
  00036	b8 00 00 00 00	 mov	 eax, OFFSET __ehfuncinfo$?OnMenu_ScaleSet@CHorzScaleTool@@MAE_NPAVCMainBlock@@H@Z
  0003b	e9 00 00 00 00	 jmp	 ___CxxFrameHandler3
text$x	ENDS
?OnMenu_ScaleSet@CHorzScaleTool@@MAE_NPAVCMainBlock@@H@Z ENDP ; CHorzScaleTool::OnMenu_ScaleSet
; Function compile flags: /Ogtp
; File D:\git\src\IBK\IBK_DRFN\ProjSrc\SrcChartEx\ChartOCX\ChartObject\ScaleTool.cpp
;	COMDAT ?OnRButtonUp@CHorzScaleTool@@MAE?AW4MENUTYPE@CMenuType@@XZ
_TEXT	SEGMENT
?OnRButtonUp@CHorzScaleTool@@MAE?AW4MENUTYPE@CMenuType@@XZ PROC ; CHorzScaleTool::OnRButtonUp, COMDAT
; _this$ = ecx

; 154  : 	return CMenuType::MENU_HORZ_SCALE;

  00000	b8 03 00 00 00	 mov	 eax, 3

; 155  : }

  00005	c3		 ret	 0
?OnRButtonUp@CHorzScaleTool@@MAE?AW4MENUTYPE@CMenuType@@XZ ENDP ; CHorzScaleTool::OnRButtonUp
_TEXT	ENDS
; Function compile flags: /Ogtp
; File D:\git\src\IBK\IBK_DRFN\ProjSrc\SrcChartEx\ChartOCX\ChartObject\ScaleTool.cpp
;	COMDAT ?OnLButtonDblClk@CHorzScaleTool@@UAE_NPAVCDC@@PAVCMainBlock@@ABVCPoint@@@Z
_TEXT	SEGMENT
_pDC$ = 8						; size = 4
_pMainBlock$ = 12					; size = 4
_point$ = 16						; size = 4
?OnLButtonDblClk@CHorzScaleTool@@UAE_NPAVCDC@@PAVCMainBlock@@ABVCPoint@@@Z PROC ; CHorzScaleTool::OnLButtonDblClk, COMDAT
; _this$ = ecx

; 148  : {

  00000	55		 push	 ebp
  00001	8b ec		 mov	 ebp, esp
  00003	56		 push	 esi
  00004	57		 push	 edi
  00005	8b f9		 mov	 edi, ecx

; 149  : 	return OnMenu_ScaleSet(pMainBlock, CBaseTool::GetMargin());

  00007	8b 37		 mov	 esi, DWORD PTR [edi]
  00009	e8 00 00 00 00	 call	 ?GetMargin@CBaseTool@@IBEHXZ ; CBaseTool::GetMargin
  0000e	50		 push	 eax
  0000f	ff 75 0c	 push	 DWORD PTR _pMainBlock$[ebp]
  00012	8b 46 2c	 mov	 eax, DWORD PTR [esi+44]
  00015	8b cf		 mov	 ecx, edi
  00017	ff d0		 call	 eax
  00019	5f		 pop	 edi
  0001a	5e		 pop	 esi

; 150  : }

  0001b	5d		 pop	 ebp
  0001c	c2 0c 00	 ret	 12			; 0000000cH
?OnLButtonDblClk@CHorzScaleTool@@UAE_NPAVCDC@@PAVCMainBlock@@ABVCPoint@@@Z ENDP ; CHorzScaleTool::OnLButtonDblClk
_TEXT	ENDS
; Function compile flags: /Ogtp
; File D:\git\src\IBK\IBK_DRFN\ProjSrc\SrcChartEx\ChartOCX\ChartObject\ScaleTool.cpp
;	COMDAT ?GetToolType@CHorzScaleTool@@UBE?AW4TOOLTYPE@CBlockBaseData@@XZ
_TEXT	SEGMENT
?GetToolType@CHorzScaleTool@@UBE?AW4TOOLTYPE@CBlockBaseData@@XZ PROC ; CHorzScaleTool::GetToolType, COMDAT
; _this$ = ecx

; 142  : 	return CBlockBaseData::TOOL_HORZSCALE;

  00000	b8 03 00 00 00	 mov	 eax, 3

; 143  : }

  00005	c3		 ret	 0
?GetToolType@CHorzScaleTool@@UBE?AW4TOOLTYPE@CBlockBaseData@@XZ ENDP ; CHorzScaleTool::GetToolType
_TEXT	ENDS
; Function compile flags: /Ogtp
; File D:\git\src\IBK\IBK_DRFN\ProjSrc\SrcChartEx\ChartOCX\ChartObject\ScaleTool.cpp
;	COMDAT ??0CHorzScaleTool@@QAE@XZ
_TEXT	SEGMENT
??0CHorzScaleTool@@QAE@XZ PROC				; CHorzScaleTool::CHorzScaleTool, COMDAT
; _this$ = ecx

; 135  : {

  00000	56		 push	 esi
  00001	8b f1		 mov	 esi, ecx

; 31   : {

  00003	e8 00 00 00 00	 call	 ??0CBaseTool@@QAE@XZ	; CBaseTool::CBaseTool

; 30   : 	m_pBlock(NULL)

  00008	c7 46 0c 00 00
	00 00		 mov	 DWORD PTR [esi+12], 0

; 136  : }

  0000f	8b c6		 mov	 eax, esi
  00011	c7 06 00 00 00
	00		 mov	 DWORD PTR [esi], OFFSET ??_7CHorzScaleTool@@6B@
  00017	5e		 pop	 esi
  00018	c3		 ret	 0
??0CHorzScaleTool@@QAE@XZ ENDP				; CHorzScaleTool::CHorzScaleTool
_TEXT	ENDS
; Function compile flags: /Ogtp
; File D:\git\src\IBK\IBK_DRFN\ProjSrc\SrcChartEx\ChartOCX\ChartObject\ScaleTool.cpp
;	COMDAT ?OnMenu_HorzScalePosition@CScaleTool@@AAE_NPAVCMainBlock@@W4HORZSCALEPOSITION@CScaleBaseData@@@Z
_TEXT	SEGMENT
_pMainBlock$ = 8					; size = 4
_horzPosition$ = 12					; size = 4
?OnMenu_HorzScalePosition@CScaleTool@@AAE_NPAVCMainBlock@@W4HORZSCALEPOSITION@CScaleBaseData@@@Z PROC ; CScaleTool::OnMenu_HorzScalePosition, COMDAT
; _this$ = ecx

; 104  : {

  00000	55		 push	 ebp
  00001	8b ec		 mov	 ebp, esp
  00003	53		 push	 ebx
  00004	8b d9		 mov	 ebx, ecx

; 105  : 	if(m_pBlock == NULL)

  00006	83 7b 0c 00	 cmp	 DWORD PTR [ebx+12], 0
  0000a	75 07		 jne	 SHORT $LN2@OnMenu_Hor

; 106  : 		return false;

  0000c	32 c0		 xor	 al, al
  0000e	5b		 pop	 ebx

; 127  : }

  0000f	5d		 pop	 ebp
  00010	c2 08 00	 ret	 8
$LN2@OnMenu_Hor:

; 107  : 
; 108  : 	// x  .
; 109  : 	// -> HORZ_HIDE() : block  1  HORZ_NONE() .
; 110  : 	if(horzPosition == CScaleBaseData::HORZ_HIDE)

  00013	83 7d 0c 03	 cmp	 DWORD PTR _horzPosition$[ebp], 3
  00017	56		 push	 esi
  00018	57		 push	 edi
  00019	75 20		 jne	 SHORT $LN4@OnMenu_Hor

; 111  : 	{
; 112  : 		// block  1  grid line .
; 113  : 		if(pMainBlock != NULL && pMainBlock->GetRowCount() == 1)

  0001b	8b 4d 08	 mov	 ecx, DWORD PTR _pMainBlock$[ebp]
  0001e	85 c9		 test	 ecx, ecx
  00020	74 19		 je	 SHORT $LN4@OnMenu_Hor
  00022	8b 01		 mov	 eax, DWORD PTR [ecx]
  00024	ff 90 a4 01 00
	00		 call	 DWORD PTR [eax+420]
  0002a	83 f8 01	 cmp	 eax, 1
  0002d	75 0c		 jne	 SHORT $LN4@OnMenu_Hor

; 114  : 		{
; 115  : 			// (2009/9/6 - Seung-Won, Bae) Do not support CHorizontalScale::SetHorzScalePosition() as public.
; 116  : 			//		To rearrange the row positions. Use CMainBlockImp::SetHorzScalePosition().
; 117  : 			m_pBlock->GetMainBlock()->SetHorzScalePosition( m_pBlock->GetBlockData().GetHorzScale(), CScaleBaseData::HORZ_NONE);

  0002f	8b 4b 0c	 mov	 ecx, DWORD PTR [ebx+12]
  00032	e8 00 00 00 00	 call	 ?GetMainBlock@CBlockImp@@QBEPAVCMainBlockImp@@XZ ; CBlockImp::GetMainBlock
  00037	6a 04		 push	 4

; 118  : 			return true;

  00039	eb 0b		 jmp	 SHORT $LN8@OnMenu_Hor
$LN4@OnMenu_Hor:

; 119  : 		}
; 120  : 	}
; 121  : 
; 122  : 	// (2009/9/6 - Seung-Won, Bae) Do not support CHorizontalScale::SetHorzScalePosition() as public.
; 123  : 	//		To rearrange the row positions. Use CMainBlockImp::SetHorzScalePosition().
; 124  : 	m_pBlock->GetMainBlock()->SetHorzScalePosition( m_pBlock->GetBlockData().GetHorzScale(), horzPosition);

  0003b	8b 4b 0c	 mov	 ecx, DWORD PTR [ebx+12]
  0003e	e8 00 00 00 00	 call	 ?GetMainBlock@CBlockImp@@QBEPAVCMainBlockImp@@XZ ; CBlockImp::GetMainBlock
  00043	ff 75 0c	 push	 DWORD PTR _horzPosition$[ebp]
$LN8@OnMenu_Hor:
  00046	8b 4b 0c	 mov	 ecx, DWORD PTR [ebx+12]
  00049	8b f0		 mov	 esi, eax
  0004b	8b 3e		 mov	 edi, DWORD PTR [esi]
  0004d	e8 00 00 00 00	 call	 ?GetBlockData@CBlockImp@@QAEAAVCBlockData@@XZ ; CBlockImp::GetBlockData
  00052	8b c8		 mov	 ecx, eax
  00054	e8 00 00 00 00	 call	 ?GetHorzScale@CBlockData@@QAEAAVCHorizontalScale@@XZ ; CBlockData::GetHorzScale
  00059	50		 push	 eax
  0005a	8b ce		 mov	 ecx, esi
  0005c	ff 97 d8 00 00
	00		 call	 DWORD PTR [edi+216]
  00062	5f		 pop	 edi
  00063	5e		 pop	 esi

; 125  : 
; 126  : 	return true;

  00064	b0 01		 mov	 al, 1
  00066	5b		 pop	 ebx

; 127  : }

  00067	5d		 pop	 ebp
  00068	c2 08 00	 ret	 8
?OnMenu_HorzScalePosition@CScaleTool@@AAE_NPAVCMainBlock@@W4HORZSCALEPOSITION@CScaleBaseData@@@Z ENDP ; CScaleTool::OnMenu_HorzScalePosition
_TEXT	ENDS
; Function compile flags: /Ogtp
; File D:\git\src\IBK\IBK_DRFN\ProjSrc\SrcChartEx\ChartOCX\ChartObject\ScaleTool.cpp
;	COMDAT ?OnMenu@CScaleTool@@AAE_NPAVCMainBlock@@W4ELEMENTMENU@CMenuType@@H@Z
_TEXT	SEGMENT
_pMainBlock$ = 8					; size = 4
_menuType$ = 12						; size = 4
_nMenuData$ = 16					; size = 4
?OnMenu@CScaleTool@@AAE_NPAVCMainBlock@@W4ELEMENTMENU@CMenuType@@H@Z PROC ; CScaleTool::OnMenu, COMDAT
; _this$ = ecx

; 88   : {

  00000	55		 push	 ebp
  00001	8b ec		 mov	 ebp, esp
  00003	53		 push	 ebx
  00004	8b d9		 mov	 ebx, ecx

; 89   : 	if(pMainBlock == NULL || m_pBlock == NULL || nMenuData < 0)

  00006	8b 4d 08	 mov	 ecx, DWORD PTR _pMainBlock$[ebp]
  00009	85 c9		 test	 ecx, ecx
  0000b	74 7a		 je	 SHORT $LN5@OnMenu
  0000d	83 7b 0c 00	 cmp	 DWORD PTR [ebx+12], 0
  00011	74 74		 je	 SHORT $LN5@OnMenu
  00013	8b 55 10	 mov	 edx, DWORD PTR _nMenuData$[ebp]
  00016	85 d2		 test	 edx, edx
  00018	78 6d		 js	 SHORT $LN5@OnMenu

; 91   : 
; 92   : 	switch(menuType)

  0001a	8b 45 0c	 mov	 eax, DWORD PTR _menuType$[ebp]
  0001d	83 e8 01	 sub	 eax, 1
  00020	74 55		 je	 SHORT $LN6@OnMenu
  00022	83 e8 06	 sub	 eax, 6
  00025	75 60		 jne	 SHORT $LN5@OnMenu

; 110  : 	if(horzPosition == CScaleBaseData::HORZ_HIDE)

  00027	56		 push	 esi
  00028	57		 push	 edi
  00029	83 fa 03	 cmp	 edx, 3
  0002c	75 19		 jne	 SHORT $LN14@OnMenu

; 111  : 	{
; 112  : 		// block  1  grid line .
; 113  : 		if(pMainBlock != NULL && pMainBlock->GetRowCount() == 1)

  0002e	8b 01		 mov	 eax, DWORD PTR [ecx]
  00030	ff 90 a4 01 00
	00		 call	 DWORD PTR [eax+420]
  00036	83 f8 01	 cmp	 eax, 1
  00039	75 0c		 jne	 SHORT $LN14@OnMenu

; 114  : 		{
; 115  : 			// (2009/9/6 - Seung-Won, Bae) Do not support CHorizontalScale::SetHorzScalePosition() as public.
; 116  : 			//		To rearrange the row positions. Use CMainBlockImp::SetHorzScalePosition().
; 117  : 			m_pBlock->GetMainBlock()->SetHorzScalePosition( m_pBlock->GetBlockData().GetHorzScale(), CScaleBaseData::HORZ_NONE);

  0003b	8b 4b 0c	 mov	 ecx, DWORD PTR [ebx+12]
  0003e	e8 00 00 00 00	 call	 ?GetMainBlock@CBlockImp@@QBEPAVCMainBlockImp@@XZ ; CBlockImp::GetMainBlock
  00043	6a 04		 push	 4

; 118  : 			return true;

  00045	eb 0b		 jmp	 SHORT $LN15@OnMenu
$LN14@OnMenu:

; 119  : 		}
; 120  : 	}
; 121  : 
; 122  : 	// (2009/9/6 - Seung-Won, Bae) Do not support CHorizontalScale::SetHorzScalePosition() as public.
; 123  : 	//		To rearrange the row positions. Use CMainBlockImp::SetHorzScalePosition().
; 124  : 	m_pBlock->GetMainBlock()->SetHorzScalePosition( m_pBlock->GetBlockData().GetHorzScale(), horzPosition);

  00047	8b 4b 0c	 mov	 ecx, DWORD PTR [ebx+12]
  0004a	e8 00 00 00 00	 call	 ?GetMainBlock@CBlockImp@@QBEPAVCMainBlockImp@@XZ ; CBlockImp::GetMainBlock
  0004f	ff 75 10	 push	 DWORD PTR _nMenuData$[ebp]
$LN15@OnMenu:

; 96   : 	case CMenuType::MENU_HORZSCALE_POSITION:
; 97   : 		return OnMenu_HorzScalePosition(pMainBlock, (CScaleBaseData::HORZSCALEPOSITION) nMenuData);

  00052	8b 4b 0c	 mov	 ecx, DWORD PTR [ebx+12]
  00055	8b f0		 mov	 esi, eax
  00057	8b 3e		 mov	 edi, DWORD PTR [esi]
  00059	e8 00 00 00 00	 call	 ?GetBlockData@CBlockImp@@QAEAAVCBlockData@@XZ ; CBlockImp::GetBlockData
  0005e	8b c8		 mov	 ecx, eax
  00060	e8 00 00 00 00	 call	 ?GetHorzScale@CBlockData@@QAEAAVCHorizontalScale@@XZ ; CBlockData::GetHorzScale
  00065	50		 push	 eax
  00066	8b ce		 mov	 ecx, esi
  00068	ff 97 d8 00 00
	00		 call	 DWORD PTR [edi+216]
  0006e	5f		 pop	 edi
  0006f	5e		 pop	 esi
  00070	b0 01		 mov	 al, 1
  00072	5b		 pop	 ebx

; 98   : 	}
; 99   : 
; 100  : 	return false;
; 101  : }

  00073	5d		 pop	 ebp
  00074	c2 0c 00	 ret	 12			; 0000000cH
$LN6@OnMenu:

; 93   : 	{
; 94   : 	case CMenuType::MENU_SET:	//  Dlg
; 95   : 		return OnMenu_ScaleSet(pMainBlock, nMenuData);

  00077	8b 03		 mov	 eax, DWORD PTR [ebx]
  00079	52		 push	 edx
  0007a	51		 push	 ecx
  0007b	8b cb		 mov	 ecx, ebx
  0007d	8b 40 2c	 mov	 eax, DWORD PTR [eax+44]
  00080	ff d0		 call	 eax
  00082	5b		 pop	 ebx

; 98   : 	}
; 99   : 
; 100  : 	return false;
; 101  : }

  00083	5d		 pop	 ebp
  00084	c2 0c 00	 ret	 12			; 0000000cH
$LN5@OnMenu:

; 90   : 		return false;

  00087	32 c0		 xor	 al, al
  00089	5b		 pop	 ebx

; 98   : 	}
; 99   : 
; 100  : 	return false;
; 101  : }

  0008a	5d		 pop	 ebp
  0008b	c2 0c 00	 ret	 12			; 0000000cH
?OnMenu@CScaleTool@@AAE_NPAVCMainBlock@@W4ELEMENTMENU@CMenuType@@H@Z ENDP ; CScaleTool::OnMenu
_TEXT	ENDS
; Function compile flags: /Ogtp
; File D:\git\src\IBK\IBK_DRFN\ProjSrc\SrcChartEx\ChartOCX\ChartObject\ScaleTool.cpp
;	COMDAT ?GetBlock@CScaleTool@@IBEPAVCBlockImp@@XZ
_TEXT	SEGMENT
?GetBlock@CScaleTool@@IBEPAVCBlockImp@@XZ PROC		; CScaleTool::GetBlock, COMDAT
; _this$ = ecx

; 82   : 	return m_pBlock;

  00000	8b 41 0c	 mov	 eax, DWORD PTR [ecx+12]

; 83   : }

  00003	c3		 ret	 0
?GetBlock@CScaleTool@@IBEPAVCBlockImp@@XZ ENDP		; CScaleTool::GetBlock
_TEXT	ENDS
; Function compile flags: /Ogtp
; File D:\git\src\IBK\IBK_DRFN\ProjSrc\SrcChartEx\ChartOCX\ChartObject\ScaleTool.cpp
;	COMDAT ?Find@CScaleTool@@QAE_NPAVCMainBlock@@ABVCPoint@@@Z
_TEXT	SEGMENT
$T1 = -8						; size = 8
_pMainBlock$ = 8					; size = 4
_point$ = 12						; size = 4
?Find@CScaleTool@@QAE_NPAVCMainBlock@@ABVCPoint@@@Z PROC ; CScaleTool::Find, COMDAT
; _this$ = ecx

; 68   : {

  00000	55		 push	 ebp
  00001	8b ec		 mov	 ebp, esp
  00003	83 ec 08	 sub	 esp, 8
  00006	53		 push	 ebx
  00007	57		 push	 edi
  00008	8b f9		 mov	 edi, ecx

; 69   : 	InitializeAllData();

  0000a	8b 07		 mov	 eax, DWORD PTR [edi]
  0000c	ff 10		 call	 DWORD PTR [eax]

; 70   : 	if(pMainBlock == NULL) return false;

  0000e	8b 5d 08	 mov	 ebx, DWORD PTR _pMainBlock$[ebp]
  00011	85 db		 test	 ebx, ebx
  00013	74 34		 je	 SHORT $LN5@Find

; 71   : 
; 72   : 	m_pBlock = ( CBlockImp *)pMainBlock->GetBlock( pMainBlock->FindBlockIndex( point));

  00015	56		 push	 esi
  00016	ff 75 0c	 push	 DWORD PTR _point$[ebp]
  00019	8b 33		 mov	 esi, DWORD PTR [ebx]
  0001b	8d 45 f8	 lea	 eax, DWORD PTR $T1[ebp]
  0001e	50		 push	 eax
  0001f	8b cb		 mov	 ecx, ebx
  00021	ff 56 04	 call	 DWORD PTR [esi+4]
  00024	50		 push	 eax
  00025	8b cb		 mov	 ecx, ebx
  00027	ff 56 08	 call	 DWORD PTR [esi+8]
  0002a	8b c8		 mov	 ecx, eax
  0002c	89 4f 0c	 mov	 DWORD PTR [edi+12], ecx
  0002f	5e		 pop	 esi

; 73   : 	if(m_pBlock == NULL) return false;

  00030	85 c9		 test	 ecx, ecx
  00032	74 15		 je	 SHORT $LN5@Find

; 74   : 
; 75   : 	return FindScale(m_pBlock, point);

  00034	8b 07		 mov	 eax, DWORD PTR [edi]
  00036	ff 75 0c	 push	 DWORD PTR _point$[ebp]
  00039	51		 push	 ecx
  0003a	8b 40 30	 mov	 eax, DWORD PTR [eax+48]
  0003d	8b cf		 mov	 ecx, edi
  0003f	ff d0		 call	 eax
  00041	5f		 pop	 edi

; 76   : }

  00042	5b		 pop	 ebx
  00043	8b e5		 mov	 esp, ebp
  00045	5d		 pop	 ebp
  00046	c2 08 00	 ret	 8
$LN5@Find:
  00049	5f		 pop	 edi

; 73   : 	if(m_pBlock == NULL) return false;

  0004a	32 c0		 xor	 al, al

; 76   : }

  0004c	5b		 pop	 ebx
  0004d	8b e5		 mov	 esp, ebp
  0004f	5d		 pop	 ebp
  00050	c2 08 00	 ret	 8
?Find@CScaleTool@@QAE_NPAVCMainBlock@@ABVCPoint@@@Z ENDP ; CScaleTool::Find
_TEXT	ENDS
; Function compile flags: /Ogtp
; File D:\git\src\IBK\IBK_DRFN\ProjSrc\SrcChartEx\ChartOCX\ChartObject\ScaleTool.cpp
;	COMDAT ?OnMenu@CScaleTool@@UAE_NPAVCMainBlock@@W4ELEMENTMENU@CMenuType@@I@Z
_TEXT	SEGMENT
_pMainBlock$ = 8					; size = 4
_menuType$ = 12						; size = 4
_wParam$ = 16						; size = 4
?OnMenu@CScaleTool@@UAE_NPAVCMainBlock@@W4ELEMENTMENU@CMenuType@@I@Z PROC ; CScaleTool::OnMenu, COMDAT
; _this$ = ecx

; 60   : {

  00000	55		 push	 ebp
  00001	8b ec		 mov	 ebp, esp
  00003	53		 push	 ebx

; 61   : 	CBaseTool::SetProcessEnded(true);	

  00004	6a 01		 push	 1
  00006	8b d9		 mov	 ebx, ecx
  00008	e8 00 00 00 00	 call	 ?SetProcessEnded@CBaseTool@@IAEX_N@Z ; CBaseTool::SetProcessEnded

; 89   : 	if(pMainBlock == NULL || m_pBlock == NULL || nMenuData < 0)

  0000d	8b 4d 08	 mov	 ecx, DWORD PTR _pMainBlock$[ebp]
  00010	85 c9		 test	 ecx, ecx
  00012	74 7a		 je	 SHORT $LN7@OnMenu
  00014	83 7b 0c 00	 cmp	 DWORD PTR [ebx+12], 0
  00018	74 74		 je	 SHORT $LN7@OnMenu
  0001a	8b 55 10	 mov	 edx, DWORD PTR _wParam$[ebp]
  0001d	85 d2		 test	 edx, edx
  0001f	78 6d		 js	 SHORT $LN7@OnMenu

; 90   : 		return false;
; 91   : 
; 92   : 	switch(menuType)

  00021	8b 45 0c	 mov	 eax, DWORD PTR _menuType$[ebp]
  00024	83 e8 01	 sub	 eax, 1
  00027	74 55		 je	 SHORT $LN8@OnMenu
  00029	83 e8 06	 sub	 eax, 6
  0002c	75 60		 jne	 SHORT $LN7@OnMenu
  0002e	56		 push	 esi
  0002f	57		 push	 edi

; 110  : 	if(horzPosition == CScaleBaseData::HORZ_HIDE)

  00030	83 fa 03	 cmp	 edx, 3
  00033	75 19		 jne	 SHORT $LN16@OnMenu

; 111  : 	{
; 112  : 		// block  1  grid line .
; 113  : 		if(pMainBlock != NULL && pMainBlock->GetRowCount() == 1)

  00035	8b 01		 mov	 eax, DWORD PTR [ecx]
  00037	ff 90 a4 01 00
	00		 call	 DWORD PTR [eax+420]
  0003d	83 f8 01	 cmp	 eax, 1
  00040	75 0c		 jne	 SHORT $LN16@OnMenu

; 114  : 		{
; 115  : 			// (2009/9/6 - Seung-Won, Bae) Do not support CHorizontalScale::SetHorzScalePosition() as public.
; 116  : 			//		To rearrange the row positions. Use CMainBlockImp::SetHorzScalePosition().
; 117  : 			m_pBlock->GetMainBlock()->SetHorzScalePosition( m_pBlock->GetBlockData().GetHorzScale(), CScaleBaseData::HORZ_NONE);

  00042	8b 4b 0c	 mov	 ecx, DWORD PTR [ebx+12]
  00045	e8 00 00 00 00	 call	 ?GetMainBlock@CBlockImp@@QBEPAVCMainBlockImp@@XZ ; CBlockImp::GetMainBlock
  0004a	6a 04		 push	 4

; 118  : 			return true;

  0004c	eb 0b		 jmp	 SHORT $LN17@OnMenu
$LN16@OnMenu:

; 119  : 		}
; 120  : 	}
; 121  : 
; 122  : 	// (2009/9/6 - Seung-Won, Bae) Do not support CHorizontalScale::SetHorzScalePosition() as public.
; 123  : 	//		To rearrange the row positions. Use CMainBlockImp::SetHorzScalePosition().
; 124  : 	m_pBlock->GetMainBlock()->SetHorzScalePosition( m_pBlock->GetBlockData().GetHorzScale(), horzPosition);

  0004e	8b 4b 0c	 mov	 ecx, DWORD PTR [ebx+12]
  00051	e8 00 00 00 00	 call	 ?GetMainBlock@CBlockImp@@QBEPAVCMainBlockImp@@XZ ; CBlockImp::GetMainBlock
  00056	ff 75 10	 push	 DWORD PTR _wParam$[ebp]
$LN17@OnMenu:

; 97   : 		return OnMenu_HorzScalePosition(pMainBlock, (CScaleBaseData::HORZSCALEPOSITION) nMenuData);

  00059	8b 4b 0c	 mov	 ecx, DWORD PTR [ebx+12]
  0005c	8b f0		 mov	 esi, eax
  0005e	8b 3e		 mov	 edi, DWORD PTR [esi]
  00060	e8 00 00 00 00	 call	 ?GetBlockData@CBlockImp@@QAEAAVCBlockData@@XZ ; CBlockImp::GetBlockData
  00065	8b c8		 mov	 ecx, eax
  00067	e8 00 00 00 00	 call	 ?GetHorzScale@CBlockData@@QAEAAVCHorizontalScale@@XZ ; CBlockData::GetHorzScale
  0006c	50		 push	 eax
  0006d	8b ce		 mov	 ecx, esi
  0006f	ff 97 d8 00 00
	00		 call	 DWORD PTR [edi+216]

; 62   : 	return OnMenu(pMainBlock, menuType, (int) wParam);

  00075	5f		 pop	 edi
  00076	5e		 pop	 esi

; 97   : 		return OnMenu_HorzScalePosition(pMainBlock, (CScaleBaseData::HORZSCALEPOSITION) nMenuData);

  00077	b0 01		 mov	 al, 1
  00079	5b		 pop	 ebx

; 63   : }

  0007a	5d		 pop	 ebp
  0007b	c2 0c 00	 ret	 12			; 0000000cH
$LN8@OnMenu:

; 95   : 		return OnMenu_ScaleSet(pMainBlock, nMenuData);

  0007e	8b 03		 mov	 eax, DWORD PTR [ebx]
  00080	52		 push	 edx
  00081	51		 push	 ecx
  00082	8b cb		 mov	 ecx, ebx
  00084	8b 40 2c	 mov	 eax, DWORD PTR [eax+44]
  00087	ff d0		 call	 eax
  00089	5b		 pop	 ebx

; 63   : }

  0008a	5d		 pop	 ebp
  0008b	c2 0c 00	 ret	 12			; 0000000cH
$LN7@OnMenu:
  0008e	32 c0		 xor	 al, al
  00090	5b		 pop	 ebx
  00091	5d		 pop	 ebp
  00092	c2 0c 00	 ret	 12			; 0000000cH
?OnMenu@CScaleTool@@UAE_NPAVCMainBlock@@W4ELEMENTMENU@CMenuType@@I@Z ENDP ; CScaleTool::OnMenu
_TEXT	ENDS
; Function compile flags: /Ogtp
; File D:\git\src\IBK\IBK_DRFN\ProjSrc\SrcChartEx\ChartOCX\ChartObject\ScaleTool.cpp
;	COMDAT ?OnRButtonUp@CScaleTool@@UAE?AW4MENUTYPE@CMenuType@@PAVCDC@@PAVCMainBlock@@ABVCPoint@@@Z
_TEXT	SEGMENT
$T1 = -8						; size = 8
___formal$ = 8						; size = 4
_pMainBlock$ = 12					; size = 4
_point$ = 16						; size = 4
?OnRButtonUp@CScaleTool@@UAE?AW4MENUTYPE@CMenuType@@PAVCDC@@PAVCMainBlock@@ABVCPoint@@@Z PROC ; CScaleTool::OnRButtonUp, COMDAT
; _this$ = ecx

; 51   : {

  00000	55		 push	 ebp
  00001	8b ec		 mov	 ebp, esp
  00003	83 ec 08	 sub	 esp, 8
  00006	53		 push	 ebx
  00007	57		 push	 edi
  00008	8b f9		 mov	 edi, ecx

; 69   : 	InitializeAllData();

  0000a	8b 07		 mov	 eax, DWORD PTR [edi]
  0000c	ff 10		 call	 DWORD PTR [eax]

; 70   : 	if(pMainBlock == NULL) return false;

  0000e	8b 5d 0c	 mov	 ebx, DWORD PTR _pMainBlock$[ebp]
  00011	85 db		 test	 ebx, ebx
  00013	74 48		 je	 SHORT $LN8@OnRButtonU

; 71   : 
; 72   : 	m_pBlock = ( CBlockImp *)pMainBlock->GetBlock( pMainBlock->FindBlockIndex( point));

  00015	56		 push	 esi
  00016	ff 75 10	 push	 DWORD PTR _point$[ebp]
  00019	8b 33		 mov	 esi, DWORD PTR [ebx]
  0001b	8d 45 f8	 lea	 eax, DWORD PTR $T1[ebp]
  0001e	50		 push	 eax
  0001f	8b cb		 mov	 ecx, ebx
  00021	ff 56 04	 call	 DWORD PTR [esi+4]
  00024	50		 push	 eax
  00025	8b cb		 mov	 ecx, ebx
  00027	ff 56 08	 call	 DWORD PTR [esi+8]
  0002a	8b c8		 mov	 ecx, eax
  0002c	89 4f 0c	 mov	 DWORD PTR [edi+12], ecx
  0002f	5e		 pop	 esi

; 73   : 	if(m_pBlock == NULL) return false;

  00030	85 c9		 test	 ecx, ecx
  00032	74 29		 je	 SHORT $LN8@OnRButtonU

; 74   : 
; 75   : 	return FindScale(m_pBlock, point);

  00034	8b 07		 mov	 eax, DWORD PTR [edi]
  00036	ff 75 10	 push	 DWORD PTR _point$[ebp]
  00039	51		 push	 ecx
  0003a	8b 40 30	 mov	 eax, DWORD PTR [eax+48]
  0003d	8b cf		 mov	 ecx, edi
  0003f	ff d0		 call	 eax

; 52   : 	if(!Find(pMainBlock, point))

  00041	84 c0		 test	 al, al
  00043	74 18		 je	 SHORT $LN8@OnRButtonU

; 54   : 
; 55   : 	CBaseTool::SetProcessEnded(false);

  00045	6a 00		 push	 0
  00047	8b cf		 mov	 ecx, edi
  00049	e8 00 00 00 00	 call	 ?SetProcessEnded@CBaseTool@@IAEX_N@Z ; CBaseTool::SetProcessEnded

; 56   : 	return OnRButtonUp();

  0004e	8b 07		 mov	 eax, DWORD PTR [edi]
  00050	8b cf		 mov	 ecx, edi
  00052	ff 50 28	 call	 DWORD PTR [eax+40]
  00055	5f		 pop	 edi

; 57   : }

  00056	5b		 pop	 ebx
  00057	8b e5		 mov	 esp, ebp
  00059	5d		 pop	 ebp
  0005a	c2 0c 00	 ret	 12			; 0000000cH
$LN8@OnRButtonU:
  0005d	5f		 pop	 edi

; 53   : 		return CMenuType::MENU_NONE;

  0005e	83 c8 ff	 or	 eax, -1

; 57   : }

  00061	5b		 pop	 ebx
  00062	8b e5		 mov	 esp, ebp
  00064	5d		 pop	 ebp
  00065	c2 0c 00	 ret	 12			; 0000000cH
?OnRButtonUp@CScaleTool@@UAE?AW4MENUTYPE@CMenuType@@PAVCDC@@PAVCMainBlock@@ABVCPoint@@@Z ENDP ; CScaleTool::OnRButtonUp
_TEXT	ENDS
; Function compile flags: /Ogtp
; File D:\git\src\IBK\IBK_DRFN\ProjSrc\SrcChartEx\ChartOCX\ChartObject\ScaleTool.cpp
;	COMDAT ?OnLButtonDown@CScaleTool@@UAE_NPAVCDC@@PAVCMainBlock@@IABVCPoint@@@Z
_TEXT	SEGMENT
_pDC$ = 8						; size = 4
_pMainBlock$ = 12					; size = 4
_nFlags$ = 16						; size = 4
_point$ = 20						; size = 4
?OnLButtonDown@CScaleTool@@UAE_NPAVCDC@@PAVCMainBlock@@IABVCPoint@@@Z PROC ; CScaleTool::OnLButtonDown, COMDAT
; _this$ = ecx

; 44   : {

  00000	55		 push	 ebp
  00001	8b ec		 mov	 ebp, esp
  00003	56		 push	 esi

; 45   : 	CBaseTool::OnLButtonDown(pDC, pMainBlock, nFlags, point);

  00004	ff 75 14	 push	 DWORD PTR _point$[ebp]
  00007	8b f1		 mov	 esi, ecx
  00009	ff 75 10	 push	 DWORD PTR _nFlags$[ebp]
  0000c	ff 75 0c	 push	 DWORD PTR _pMainBlock$[ebp]
  0000f	ff 75 08	 push	 DWORD PTR _pDC$[ebp]
  00012	e8 00 00 00 00	 call	 ?OnLButtonDown@CBaseTool@@UAE_NPAVCDC@@PAVCMainBlock@@IABVCPoint@@@Z ; CBaseTool::OnLButtonDown

; 46   : 	InitializeAllData();

  00017	8b 06		 mov	 eax, DWORD PTR [esi]
  00019	8b ce		 mov	 ecx, esi
  0001b	ff 10		 call	 DWORD PTR [eax]

; 47   : 	return false;

  0001d	32 c0		 xor	 al, al
  0001f	5e		 pop	 esi

; 48   : }

  00020	5d		 pop	 ebp
  00021	c2 10 00	 ret	 16			; 00000010H
?OnLButtonDown@CScaleTool@@UAE_NPAVCDC@@PAVCMainBlock@@IABVCPoint@@@Z ENDP ; CScaleTool::OnLButtonDown
_TEXT	ENDS
; Function compile flags: /Ogtp
; File D:\git\src\IBK\IBK_DRFN\ProjSrc\SrcChartEx\ChartOCX\ChartObject\ScaleTool.cpp
;	COMDAT ?InitializeAllData@CScaleTool@@UAEXXZ
_TEXT	SEGMENT
?InitializeAllData@CScaleTool@@UAEXXZ PROC		; CScaleTool::InitializeAllData, COMDAT
; _this$ = ecx

; 37   : {

  00000	56		 push	 esi
  00001	8b f1		 mov	 esi, ecx

; 38   : 	CBaseTool::InitializeAllData();

  00003	e8 00 00 00 00	 call	 ?InitializeAllData@CBaseTool@@UAEXXZ ; CBaseTool::InitializeAllData

; 39   : 	m_pBlock = NULL;

  00008	c7 46 0c 00 00
	00 00		 mov	 DWORD PTR [esi+12], 0
  0000f	5e		 pop	 esi

; 40   : }

  00010	c3		 ret	 0
?InitializeAllData@CScaleTool@@UAEXXZ ENDP		; CScaleTool::InitializeAllData
_TEXT	ENDS
; Function compile flags: /Ogtp
; File D:\git\src\IBK\IBK_DRFN\ProjSrc\SrcChartEx\ChartOCX\ChartObject\ScaleTool.cpp
;	COMDAT ??0CScaleTool@@QAE@XZ
_TEXT	SEGMENT
??0CScaleTool@@QAE@XZ PROC				; CScaleTool::CScaleTool, COMDAT
; _this$ = ecx

; 31   : {

  00000	56		 push	 esi
  00001	8b f1		 mov	 esi, ecx
  00003	e8 00 00 00 00	 call	 ??0CBaseTool@@QAE@XZ	; CBaseTool::CBaseTool
  00008	c7 06 00 00 00
	00		 mov	 DWORD PTR [esi], OFFSET ??_7CScaleTool@@6B@

; 32   : }

  0000e	8b c6		 mov	 eax, esi
  00010	c7 46 0c 00 00
	00 00		 mov	 DWORD PTR [esi+12], 0
  00017	5e		 pop	 esi
  00018	c3		 ret	 0
??0CScaleTool@@QAE@XZ ENDP				; CScaleTool::CScaleTool
_TEXT	ENDS
; Function compile flags: /Ogtp
; File C:\Program Files (x86)\Microsoft Visual Studio\2019\Community\VC\Tools\MSVC\14.29.30133\atlmfc\include\afx.inl
;	COMDAT ?Dump@CObject@@UBEXAAVCDumpContext@@@Z
_TEXT	SEGMENT
___formal$ = 8						; size = 4
?Dump@CObject@@UBEXAAVCDumpContext@@@Z PROC		; CObject::Dump, COMDAT
; _this$ = ecx

; 122  : 	{ /* no dumping in release builds */ }

  00000	c2 04 00	 ret	 4
?Dump@CObject@@UBEXAAVCDumpContext@@@Z ENDP		; CObject::Dump
_TEXT	ENDS
; Function compile flags: /Ogtp
; File C:\Program Files (x86)\Microsoft Visual Studio\2019\Community\VC\Tools\MSVC\14.29.30133\atlmfc\include\afx.inl
;	COMDAT ?AssertValid@CObject@@UBEXXZ
_TEXT	SEGMENT
?AssertValid@CObject@@UBEXXZ PROC			; CObject::AssertValid, COMDAT
; _this$ = ecx

; 120  : 	{ /* no asserts in release builds */ }

  00000	c2 00 00	 ret	 0
?AssertValid@CObject@@UBEXXZ ENDP			; CObject::AssertValid
_TEXT	ENDS
; Function compile flags: /Ogtp
; File C:\Program Files (x86)\Microsoft Visual Studio\2019\Community\VC\Tools\MSVC\14.29.30133\atlmfc\include\afx.inl
;	COMDAT ?Serialize@CObject@@UAEXAAVCArchive@@@Z
_TEXT	SEGMENT
___formal$ = 8						; size = 4
?Serialize@CObject@@UAEXAAVCArchive@@@Z PROC		; CObject::Serialize, COMDAT
; _this$ = ecx

; 106  : 	{ /* CObject does not serialize anything by default */ }

  00000	c2 04 00	 ret	 4
?Serialize@CObject@@UAEXAAVCArchive@@@Z ENDP		; CObject::Serialize
_TEXT	ENDS
; Function compile flags: /Ogtp
; File C:\Program Files (x86)\Microsoft Visual Studio\2019\Community\VC\Tools\MSVC\14.29.30133\atlmfc\include\afx.inl
;	COMDAT ??1CObject@@UAE@XZ
_TEXT	SEGMENT
??1CObject@@UAE@XZ PROC					; CObject::~CObject, COMDAT
; _this$ = ecx

; 104  : 	{ }

  00000	c2 00 00	 ret	 0
??1CObject@@UAE@XZ ENDP					; CObject::~CObject
_TEXT	ENDS
; Function compile flags: /Ogtp
; File D:\git\src\IBK\IBK_DRFN\ProjSrc\SrcChartEx\ChartOCX\ChartObject\ScaleTool.cpp
;	COMDAT ?__empty_global_delete@@YAXPAXI@Z
_TEXT	SEGMENT
___formal$ = 8						; size = 4
___formal$ = 12						; size = 4
?__empty_global_delete@@YAXPAXI@Z PROC			; __empty_global_delete, COMDAT

  00000	c2 00 00	 ret	 0
?__empty_global_delete@@YAXPAXI@Z ENDP			; __empty_global_delete
_TEXT	ENDS
; Function compile flags: /Ogtp
; File D:\git\src\IBK\IBK_DRFN\ProjSrc\SrcChartEx\ChartOCX\ChartObject\ScaleTool.cpp
;	COMDAT ?__empty_global_delete@@YAXPAX@Z
_TEXT	SEGMENT
___formal$ = 8						; size = 4
?__empty_global_delete@@YAXPAX@Z PROC			; __empty_global_delete, COMDAT

  00000	c2 00 00	 ret	 0
?__empty_global_delete@@YAXPAX@Z ENDP			; __empty_global_delete
_TEXT	ENDS
END
