; Listing generated by Microsoft (R) Optimizing Compiler Version 19.29.30145.0 

	TITLE	D:\git\src\IBK\IBK_DRFN\#DRfn-CS\_Obj\ChartObject\ScaleSet.obj
	.686P
	.XMM
	include listing.inc
	.model	flat

INCLUDELIB MSVCRT
INCLUDELIB OLDNAMES

PUBLIC	?__empty_global_delete@@YAXPAX@Z		; __empty_global_delete
PUBLIC	?__empty_global_delete@@YAXPAXI@Z		; __empty_global_delete
PUBLIC	?Serialize@CObject@@UAEXAAVCArchive@@@Z		; CObject::Serialize
PUBLIC	?AssertValid@CObject@@UBEXXZ			; CObject::AssertValid
PUBLIC	?Dump@CObject@@UBEXAAVCDumpContext@@@Z		; CObject::Dump
PUBLIC	?DoDataExchange@CWnd@@MAEXPAVCDataExchange@@@Z	; CWnd::DoDataExchange
PUBLIC	?BeginModalState@CWnd@@UAEXXZ			; CWnd::BeginModalState
PUBLIC	?EndModalState@CWnd@@UAEXXZ			; CWnd::EndModalState
PUBLIC	?Create@CDialog@@UAEHIPAVCWnd@@@Z		; CDialog::Create
PUBLIC	??1CCommonDialog@@UAE@XZ			; CCommonDialog::~CCommonDialog
PUBLIC	??_GCCommonDialog@@UAEPAXI@Z			; CCommonDialog::`scalar deleting destructor'
PUBLIC	??1CColorDialog@@UAE@XZ				; CColorDialog::~CColorDialog
PUBLIC	??1CColorButton@@UAE@XZ				; CColorButton::~CColorButton
PUBLIC	??0CScaleSet@@QAE@IPAVCWnd@@@Z			; CScaleSet::CScaleSet
PUBLIC	?DoDataExchange@CScaleSet@@MAEXPAVCDataExchange@@@Z ; CScaleSet::DoDataExchange
PUBLIC	?OnInitDialog@CScaleSet@@MAEHXZ			; CScaleSet::OnInitDialog
PUBLIC	?OnOK@CScaleSet@@MAEXXZ				; CScaleSet::OnOK
PUBLIC	?OnCancel@CScaleSet@@MAEXXZ			; CScaleSet::OnCancel
PUBLIC	?OnApplyBt@CScaleSet@@IAEXXZ			; CScaleSet::OnApplyBt
PUBLIC	?OnAllscalegroupCheck@CScaleSet@@IAEXXZ		; CScaleSet::OnAllscalegroupCheck
PUBLIC	?OnSelchangeScalegroup@CScaleSet@@IAEXXZ	; CScaleSet::OnSelchangeScalegroup
PUBLIC	?OnGridColor@CScaleSet@@IAEXXZ			; CScaleSet::OnGridColor
PUBLIC	?OnTextColor@CScaleSet@@IAEXXZ			; CScaleSet::OnTextColor
PUBLIC	?EnableWindowOnAllScaleGroup@CScaleSet@@MAEXXZ	; CScaleSet::EnableWindowOnAllScaleGroup
PUBLIC	?SetAllScaleGroup@CScaleSet@@IAEXH@Z		; CScaleSet::SetAllScaleGroup
PUBLIC	?SetScalePosition@CScaleSet@@IAEXH@Z		; CScaleSet::SetScalePosition
PUBLIC	?SetScaleColorInButton@CScaleSet@@IAEXABK0@Z	; CScaleSet::SetScaleColorInButton
PUBLIC	?GetParent@CScaleSet@@IAEPAVCWnd@@XZ		; CScaleSet::GetParent
PUBLIC	?IsAllScaleGroup@CScaleSet@@IBEHXZ		; CScaleSet::IsAllScaleGroup
PUBLIC	?GetScalePosition@CScaleSet@@IBEHXZ		; CScaleSet::GetScalePosition
PUBLIC	?GetScaleGrid@CScaleSet@@IBEHXZ			; CScaleSet::GetScaleGrid
PUBLIC	?ChangeScaleWindow@CScaleSet@@IAEXHHH@Z		; CScaleSet::ChangeScaleWindow
PUBLIC	?EnableWindow@CScaleSet@@IAEXPAVCWnd@@@Z	; CScaleSet::EnableWindow
PUBLIC	?EnableWindow@CScaleSet@@IAEXPAVCWnd@@_N@Z	; CScaleSet::EnableWindow
PUBLIC	?ApplyInAllData@CScaleSet@@AAEHXZ		; CScaleSet::ApplyInAllData
PUBLIC	?SetScale@CScaleSet@@AAEHXZ			; CScaleSet::SetScale
PUBLIC	?SetScaleColorInButton@CScaleSet@@AAEXPAVCColorButton@@ABK@Z ; CScaleSet::SetScaleColorInButton
PUBLIC	??_GCScaleSet@@UAEPAXI@Z			; CScaleSet::`scalar deleting destructor'
PUBLIC	??_7CCommonDialog@@6B@				; CCommonDialog::`vftable'
PUBLIC	??_R0?AVCObject@@@8				; CObject `RTTI Type Descriptor'
PUBLIC	??_R3CObject@@8					; CObject::`RTTI Class Hierarchy Descriptor'
PUBLIC	??_R2CObject@@8					; CObject::`RTTI Base Class Array'
PUBLIC	??_R1A@?0A@EA@CObject@@8			; CObject::`RTTI Base Class Descriptor at (0,-1,0,64)'
PUBLIC	??_R1A@?0A@EA@CWnd@@8				; CWnd::`RTTI Base Class Descriptor at (0,-1,0,64)'
PUBLIC	??_R0?AVCWnd@@@8				; CWnd `RTTI Type Descriptor'
PUBLIC	??_R3CWnd@@8					; CWnd::`RTTI Class Hierarchy Descriptor'
PUBLIC	??_R2CWnd@@8					; CWnd::`RTTI Base Class Array'
PUBLIC	??_R1A@?0A@EA@CCmdTarget@@8			; CCmdTarget::`RTTI Base Class Descriptor at (0,-1,0,64)'
PUBLIC	??_R0?AVCCmdTarget@@@8				; CCmdTarget `RTTI Type Descriptor'
PUBLIC	??_R3CCmdTarget@@8				; CCmdTarget::`RTTI Class Hierarchy Descriptor'
PUBLIC	??_R2CCmdTarget@@8				; CCmdTarget::`RTTI Base Class Array'
PUBLIC	??_R4CCommonDialog@@6B@				; CCommonDialog::`RTTI Complete Object Locator'
PUBLIC	??_R0?AVCCommonDialog@@@8			; CCommonDialog `RTTI Type Descriptor'
PUBLIC	??_R3CCommonDialog@@8				; CCommonDialog::`RTTI Class Hierarchy Descriptor'
PUBLIC	??_R2CCommonDialog@@8				; CCommonDialog::`RTTI Base Class Array'
PUBLIC	??_R1A@?0A@EA@CCommonDialog@@8			; CCommonDialog::`RTTI Base Class Descriptor at (0,-1,0,64)'
PUBLIC	??_R1A@?0A@EA@CDialog@@8			; CDialog::`RTTI Base Class Descriptor at (0,-1,0,64)'
PUBLIC	??_R0?AVCDialog@@@8				; CDialog `RTTI Type Descriptor'
PUBLIC	??_R3CDialog@@8					; CDialog::`RTTI Class Hierarchy Descriptor'
PUBLIC	??_R2CDialog@@8					; CDialog::`RTTI Base Class Array'
PUBLIC	??_7CScaleSet@@6B@				; CScaleSet::`vftable'
PUBLIC	??_R4CScaleSet@@6B@				; CScaleSet::`RTTI Complete Object Locator'
PUBLIC	??_R0?AVCScaleSet@@@8				; CScaleSet `RTTI Type Descriptor'
PUBLIC	??_R3CScaleSet@@8				; CScaleSet::`RTTI Class Hierarchy Descriptor'
PUBLIC	??_R2CScaleSet@@8				; CScaleSet::`RTTI Base Class Array'
PUBLIC	??_R1A@?0A@EA@CScaleSet@@8			; CScaleSet::`RTTI Base Class Descriptor at (0,-1,0,64)'
EXTRN	__purecall:PROC
EXTRN	??3@YAXPAX@Z:PROC				; operator delete
EXTRN	?__global_delete@@YAXPAXI@Z:PROC		; __global_delete
EXTRN	__imp__mouse_event@20:PROC
EXTRN	__imp__EnableWindow@8:PROC
EXTRN	__imp__InvalidateRect@12:PROC
EXTRN	?DDX_Check@@YGXPAVCDataExchange@@HAAH@Z:PROC	; DDX_Check
EXTRN	?DDX_Radio@@YGXPAVCDataExchange@@HAAH@Z:PROC	; DDX_Radio
EXTRN	?DDX_CBIndex@@YGXPAVCDataExchange@@HAAH@Z:PROC	; DDX_CBIndex
EXTRN	?DDX_Control@@YGXPAVCDataExchange@@HAAVCWnd@@@Z:PROC ; DDX_Control
EXTRN	?IsInvokeAllowed@CCmdTarget@@UAEHJ@Z:PROC	; CCmdTarget::IsInvokeAllowed
EXTRN	?GetDispatchIID@CCmdTarget@@UAEHPAU_GUID@@@Z:PROC ; CCmdTarget::GetDispatchIID
EXTRN	?GetTypeInfoCount@CCmdTarget@@UAEIXZ:PROC	; CCmdTarget::GetTypeInfoCount
EXTRN	?GetTypeLibCache@CCmdTarget@@UAEPAVCTypeLibCache@@XZ:PROC ; CCmdTarget::GetTypeLibCache
EXTRN	?GetTypeLib@CCmdTarget@@UAEJKPAPAUITypeLib@@@Z:PROC ; CCmdTarget::GetTypeLib
EXTRN	?GetCommandMap@CCmdTarget@@MBEPBUAFX_OLECMDMAP@@XZ:PROC ; CCmdTarget::GetCommandMap
EXTRN	?GetDispatchMap@CCmdTarget@@MBEPBUAFX_DISPMAP@@XZ:PROC ; CCmdTarget::GetDispatchMap
EXTRN	?GetConnectionMap@CCmdTarget@@MBEPBUAFX_CONNECTIONMAP@@XZ:PROC ; CCmdTarget::GetConnectionMap
EXTRN	?GetEventSinkMap@CCmdTarget@@MBEPBUAFX_EVENTSINKMAP@@XZ:PROC ; CCmdTarget::GetEventSinkMap
EXTRN	?OnCreateAggregates@CCmdTarget@@UAEHXZ:PROC	; CCmdTarget::OnCreateAggregates
EXTRN	?GetInterfaceHook@CCmdTarget@@UAEPAUIUnknown@@PBX@Z:PROC ; CCmdTarget::GetInterfaceHook
EXTRN	?GetExtraConnectionPoints@CCmdTarget@@MAEHPAVCPtrArray@@@Z:PROC ; CCmdTarget::GetExtraConnectionPoints
EXTRN	?GetConnectionHook@CCmdTarget@@MAEPAUIConnectionPoint@@ABU_GUID@@@Z:PROC ; CCmdTarget::GetConnectionHook
EXTRN	?PreSubclassWindow@CWnd@@UAEXXZ:PROC		; CWnd::PreSubclassWindow
EXTRN	?Create@CWnd@@UAEHPBD0KABUtagRECT@@PAV1@IPAUCCreateContext@@@Z:PROC ; CWnd::Create
EXTRN	?CreateEx@CWnd@@UAEHKPBD0KHHHHPAUHWND__@@PAUHMENU__@@PAX@Z:PROC ; CWnd::CreateEx
EXTRN	?CreateEx@CWnd@@UAEHKPBD0KABUtagRECT@@PAV1@IPAX@Z:PROC ; CWnd::CreateEx
EXTRN	?DestroyWindow@CWnd@@UAEHXZ:PROC		; CWnd::DestroyWindow
EXTRN	?PreCreateWindow@CWnd@@UAEHAAUtagCREATESTRUCTA@@@Z:PROC ; CWnd::PreCreateWindow
EXTRN	?CalcWindowRect@CWnd@@UAEXPAUtagRECT@@I@Z:PROC	; CWnd::CalcWindowRect
EXTRN	?GetDlgItem@CWnd@@QBEPAV1@H@Z:PROC		; CWnd::GetDlgItem
EXTRN	?GetMenu@CWnd@@UBEPAVCMenu@@XZ:PROC		; CWnd::GetMenu
EXTRN	?SetMenu@CWnd@@UAEHPAVCMenu@@@Z:PROC		; CWnd::SetMenu
EXTRN	?OnToolHitTest@CWnd@@UBEHVCPoint@@PAUtagTOOLINFOA@@@Z:PROC ; CWnd::OnToolHitTest
EXTRN	?EnableWindow@CWnd@@QAEHH@Z:PROC		; CWnd::EnableWindow
EXTRN	?GetScrollBarCtrl@CWnd@@UBEPAVCScrollBar@@H@Z:PROC ; CWnd::GetScrollBarCtrl
EXTRN	?UpdateData@CWnd@@QAEHH@Z:PROC			; CWnd::UpdateData
EXTRN	?WinHelpA@CWnd@@UAEXKI@Z:PROC			; CWnd::WinHelpA
EXTRN	?HtmlHelpA@CWnd@@UAEXKI@Z:PROC			; CWnd::HtmlHelpA
EXTRN	?WinHelpInternal@CWnd@@UAEXKI@Z:PROC		; CWnd::WinHelpInternal
EXTRN	?ContinueModal@CWnd@@UAEHXZ:PROC		; CWnd::ContinueModal
EXTRN	?EndModalLoop@CWnd@@UAEXH@Z:PROC		; CWnd::EndModalLoop
EXTRN	?OnDrawIconicThumbnailOrLivePreview@CWnd@@UAEXAAVCDC@@VCRect@@VCSize@@HAAH@Z:PROC ; CWnd::OnDrawIconicThumbnailOrLivePreview
EXTRN	?GetInterfaceMap@CWnd@@MBEPBUAFX_INTERFACEMAP@@XZ:PROC ; CWnd::GetInterfaceMap
EXTRN	?EnsureStdObj@CWnd@@UAEJXZ:PROC			; CWnd::EnsureStdObj
EXTRN	?get_accParent@CWnd@@UAEJPAPAUIDispatch@@@Z:PROC ; CWnd::get_accParent
EXTRN	?get_accChildCount@CWnd@@UAEJPAJ@Z:PROC		; CWnd::get_accChildCount
EXTRN	?get_accChild@CWnd@@UAEJUtagVARIANT@@PAPAUIDispatch@@@Z:PROC ; CWnd::get_accChild
EXTRN	?get_accName@CWnd@@UAEJUtagVARIANT@@PAPA_W@Z:PROC ; CWnd::get_accName
EXTRN	?get_accValue@CWnd@@UAEJUtagVARIANT@@PAPA_W@Z:PROC ; CWnd::get_accValue
EXTRN	?get_accDescription@CWnd@@UAEJUtagVARIANT@@PAPA_W@Z:PROC ; CWnd::get_accDescription
EXTRN	?get_accRole@CWnd@@UAEJUtagVARIANT@@PAU2@@Z:PROC ; CWnd::get_accRole
EXTRN	?get_accState@CWnd@@UAEJUtagVARIANT@@PAU2@@Z:PROC ; CWnd::get_accState
EXTRN	?get_accHelp@CWnd@@UAEJUtagVARIANT@@PAPA_W@Z:PROC ; CWnd::get_accHelp
EXTRN	?get_accHelpTopic@CWnd@@UAEJPAPA_WUtagVARIANT@@PAJ@Z:PROC ; CWnd::get_accHelpTopic
EXTRN	?get_accKeyboardShortcut@CWnd@@UAEJUtagVARIANT@@PAPA_W@Z:PROC ; CWnd::get_accKeyboardShortcut
EXTRN	?get_accFocus@CWnd@@UAEJPAUtagVARIANT@@@Z:PROC	; CWnd::get_accFocus
EXTRN	?get_accSelection@CWnd@@UAEJPAUtagVARIANT@@@Z:PROC ; CWnd::get_accSelection
EXTRN	?get_accDefaultAction@CWnd@@UAEJUtagVARIANT@@PAPA_W@Z:PROC ; CWnd::get_accDefaultAction
EXTRN	?accSelect@CWnd@@UAEJJUtagVARIANT@@@Z:PROC	; CWnd::accSelect
EXTRN	?accLocation@CWnd@@UAEJPAJ000UtagVARIANT@@@Z:PROC ; CWnd::accLocation
EXTRN	?accNavigate@CWnd@@UAEJJUtagVARIANT@@PAU2@@Z:PROC ; CWnd::accNavigate
EXTRN	?accHitTest@CWnd@@UAEJJJPAUtagVARIANT@@@Z:PROC	; CWnd::accHitTest
EXTRN	?accDoDefaultAction@CWnd@@UAEJUtagVARIANT@@@Z:PROC ; CWnd::accDoDefaultAction
EXTRN	?put_accName@CWnd@@UAEJUtagVARIANT@@PA_W@Z:PROC	; CWnd::put_accName
EXTRN	?put_accValue@CWnd@@UAEJUtagVARIANT@@PA_W@Z:PROC ; CWnd::put_accValue
EXTRN	?SetProxy@CWnd@@UAEJPAUIAccessibleProxy@@@Z:PROC ; CWnd::SetProxy
EXTRN	?CreateAccessibleProxy@CWnd@@UAEJIJPAJ@Z:PROC	; CWnd::CreateAccessibleProxy
EXTRN	?OnCommand@CWnd@@MAEHIJ@Z:PROC			; CWnd::OnCommand
EXTRN	?OnNotify@CWnd@@MAEHIJPAJ@Z:PROC		; CWnd::OnNotify
EXTRN	?GetSuperWndProcAddr@CWnd@@MAEPAP6GJPAUHWND__@@IIJ@ZXZ:PROC ; CWnd::GetSuperWndProcAddr
EXTRN	?OnAmbientProperty@CWnd@@UAEHPAVCOleControlSite@@JPAUtagVARIANT@@@Z:PROC ; CWnd::OnAmbientProperty
EXTRN	?WindowProc@CWnd@@MAEJIIJ@Z:PROC		; CWnd::WindowProc
EXTRN	?OnWndMsg@CWnd@@MAEHIIJPAJ@Z:PROC		; CWnd::OnWndMsg
EXTRN	?DefWindowProcA@CWnd@@MAEJIIJ@Z:PROC		; CWnd::DefWindowProcA
EXTRN	?PostNcDestroy@CWnd@@MAEXXZ:PROC		; CWnd::PostNcDestroy
EXTRN	?OnChildNotify@CWnd@@MAEHIIJPAJ@Z:PROC		; CWnd::OnChildNotify
EXTRN	?OnTouchInputs@CWnd@@MAEHIPAUtagTOUCHINPUT@@@Z:PROC ; CWnd::OnTouchInputs
EXTRN	?OnTouchInput@CWnd@@MAEHVCPoint@@HHPAUtagTOUCHINPUT@@@Z:PROC ; CWnd::OnTouchInput
EXTRN	?GetGestureStatus@CWnd@@MAEKVCPoint@@@Z:PROC	; CWnd::GetGestureStatus
EXTRN	?OnGestureZoom@CWnd@@MAEHVCPoint@@J@Z:PROC	; CWnd::OnGestureZoom
EXTRN	?OnGesturePan@CWnd@@MAEHVCPoint@@0@Z:PROC	; CWnd::OnGesturePan
EXTRN	?OnGestureRotate@CWnd@@MAEHVCPoint@@N@Z:PROC	; CWnd::OnGestureRotate
EXTRN	?OnGestureTwoFingerTap@CWnd@@MAEHVCPoint@@@Z:PROC ; CWnd::OnGestureTwoFingerTap
EXTRN	?OnGesturePressAndTap@CWnd@@MAEHVCPoint@@J@Z:PROC ; CWnd::OnGesturePressAndTap
EXTRN	?ResizeDynamicLayout@CWnd@@MAEXXZ:PROC		; CWnd::ResizeDynamicLayout
EXTRN	?IsFrameWnd@CWnd@@UBEHXZ:PROC			; CWnd::IsFrameWnd
EXTRN	?OnFinalRelease@CWnd@@UAEXXZ:PROC		; CWnd::OnFinalRelease
EXTRN	?CreateControlContainer@CWnd@@MAEHPAPAVCOleControlContainer@@@Z:PROC ; CWnd::CreateControlContainer
EXTRN	?CreateControlSite@CWnd@@MAEHPAVCOleControlContainer@@PAPAVCOleControlSite@@IABU_GUID@@@Z:PROC ; CWnd::CreateControlSite
EXTRN	?GetRuntimeClass@CDialog@@UBEPAUCRuntimeClass@@XZ:PROC ; CDialog::GetRuntimeClass
EXTRN	?Create@CDialog@@UAEHPBDPAVCWnd@@@Z:PROC	; CDialog::Create
EXTRN	?CreateIndirect@CDialog@@UAEHPBUDLGTEMPLATE@@PAVCWnd@@PAX@Z:PROC ; CDialog::CreateIndirect
EXTRN	?CreateIndirect@CDialog@@UAEHPAXPAVCWnd@@@Z:PROC ; CDialog::CreateIndirect
EXTRN	??0CDialog@@QAE@IPAVCWnd@@@Z:PROC		; CDialog::CDialog
EXTRN	?DoModal@CDialog@@UAEHXZ:PROC			; CDialog::DoModal
EXTRN	?EndDialog@CDialog@@QAEXH@Z:PROC		; CDialog::EndDialog
EXTRN	?OnInitDialog@CDialog@@UAEHXZ:PROC		; CDialog::OnInitDialog
EXTRN	?OnSetFont@CDialog@@UAEXPAVCFont@@@Z:PROC	; CDialog::OnSetFont
EXTRN	?OnCancel@CDialog@@MAEXXZ:PROC			; CDialog::OnCancel
EXTRN	??1CDialog@@UAE@XZ:PROC				; CDialog::~CDialog
EXTRN	?PreTranslateMessage@CDialog@@UAEHPAUtagMSG@@@Z:PROC ; CDialog::PreTranslateMessage
EXTRN	?OnCmdMsg@CDialog@@UAEHIHPAXPAUAFX_CMDHANDLERINFO@@@Z:PROC ; CDialog::OnCmdMsg
EXTRN	?CheckAutoCenter@CDialog@@UAEHXZ:PROC		; CDialog::CheckAutoCenter
EXTRN	?SetOccDialogInfo@CDialog@@MAEHPAU_AFX_OCC_DIALOG_INFO@@@Z:PROC ; CDialog::SetOccDialogInfo
EXTRN	?GetOccDialogInfo@CDialog@@MAEPAU_AFX_OCC_DIALOG_INFO@@XZ:PROC ; CDialog::GetOccDialogInfo
EXTRN	?PreInitDialog@CDialog@@MAEXXZ:PROC		; CDialog::PreInitDialog
EXTRN	?GetMessageMap@CDialog@@MBEPBUAFX_MSGMAP@@XZ:PROC ; CDialog::GetMessageMap
EXTRN	??1CButton@@UAE@XZ:PROC				; CButton::~CButton
EXTRN	?GetRuntimeClass@CCommonDialog@@UBEPAUCRuntimeClass@@XZ:PROC ; CCommonDialog::GetRuntimeClass
EXTRN	?OnOK@CCommonDialog@@MAEXXZ:PROC		; CCommonDialog::OnOK
EXTRN	?OnCancel@CCommonDialog@@MAEXXZ:PROC		; CCommonDialog::OnCancel
EXTRN	?GetMessageMap@CCommonDialog@@MBEPBUAFX_MSGMAP@@XZ:PROC ; CCommonDialog::GetMessageMap
EXTRN	??_ECCommonDialog@@UAEPAXI@Z:PROC		; CCommonDialog::`vector deleting destructor'
EXTRN	??0CColorDialog@@QAE@KKPAVCWnd@@@Z:PROC		; CColorDialog::CColorDialog
EXTRN	?DoModal@CColorDialog@@UAEHXZ:PROC		; CColorDialog::DoModal
EXTRN	??0CColorButton@@QAE@XZ:PROC			; CColorButton::CColorButton
EXTRN	?SetColor@CColorButton@@QAEXABK@Z:PROC		; CColorButton::SetColor
EXTRN	?GetColor@CColorButton@@QBEKXZ:PROC		; CColorButton::GetColor
EXTRN	??_ECScaleSet@@UAEPAXI@Z:PROC			; CScaleSet::`vector deleting destructor'
EXTRN	@__security_check_cookie@4:PROC
EXTRN	___CxxFrameHandler3:PROC
EXTRN	??_7type_info@@6B@:QWORD			; type_info::`vftable'
EXTRN	___security_cookie:DWORD
;	COMDAT ??_R1A@?0A@EA@CScaleSet@@8
rdata$r	SEGMENT
??_R1A@?0A@EA@CScaleSet@@8 DD FLAT:??_R0?AVCScaleSet@@@8 ; CScaleSet::`RTTI Base Class Descriptor at (0,-1,0,64)'
	DD	04H
	DD	00H
	DD	0ffffffffH
	DD	00H
	DD	040H
	DD	FLAT:??_R3CScaleSet@@8
rdata$r	ENDS
;	COMDAT ??_R2CScaleSet@@8
rdata$r	SEGMENT
??_R2CScaleSet@@8 DD FLAT:??_R1A@?0A@EA@CScaleSet@@8	; CScaleSet::`RTTI Base Class Array'
	DD	FLAT:??_R1A@?0A@EA@CDialog@@8
	DD	FLAT:??_R1A@?0A@EA@CWnd@@8
	DD	FLAT:??_R1A@?0A@EA@CCmdTarget@@8
	DD	FLAT:??_R1A@?0A@EA@CObject@@8
rdata$r	ENDS
;	COMDAT ??_R3CScaleSet@@8
rdata$r	SEGMENT
??_R3CScaleSet@@8 DD 00H				; CScaleSet::`RTTI Class Hierarchy Descriptor'
	DD	00H
	DD	05H
	DD	FLAT:??_R2CScaleSet@@8
rdata$r	ENDS
;	COMDAT ??_R0?AVCScaleSet@@@8
data$rs	SEGMENT
??_R0?AVCScaleSet@@@8 DD FLAT:??_7type_info@@6B@	; CScaleSet `RTTI Type Descriptor'
	DD	00H
	DB	'.?AVCScaleSet@@', 00H
data$rs	ENDS
;	COMDAT ??_R4CScaleSet@@6B@
rdata$r	SEGMENT
??_R4CScaleSet@@6B@ DD 00H				; CScaleSet::`RTTI Complete Object Locator'
	DD	00H
	DD	00H
	DD	FLAT:??_R0?AVCScaleSet@@@8
	DD	FLAT:??_R3CScaleSet@@8
rdata$r	ENDS
;	COMDAT ??_7CScaleSet@@6B@
CONST	SEGMENT
??_7CScaleSet@@6B@ DD FLAT:??_R4CScaleSet@@6B@		; CScaleSet::`vftable'
	DD	FLAT:?GetRuntimeClass@CDialog@@UBEPAUCRuntimeClass@@XZ
	DD	FLAT:??_ECScaleSet@@UAEPAXI@Z
	DD	FLAT:?Serialize@CObject@@UAEXAAVCArchive@@@Z
	DD	FLAT:?AssertValid@CObject@@UBEXXZ
	DD	FLAT:?Dump@CObject@@UBEXAAVCDumpContext@@@Z
	DD	FLAT:?OnCmdMsg@CDialog@@UAEHIHPAXPAUAFX_CMDHANDLERINFO@@@Z
	DD	FLAT:?OnFinalRelease@CWnd@@UAEXXZ
	DD	FLAT:?IsInvokeAllowed@CCmdTarget@@UAEHJ@Z
	DD	FLAT:?GetDispatchIID@CCmdTarget@@UAEHPAU_GUID@@@Z
	DD	FLAT:?GetTypeInfoCount@CCmdTarget@@UAEIXZ
	DD	FLAT:?GetTypeLibCache@CCmdTarget@@UAEPAVCTypeLibCache@@XZ
	DD	FLAT:?GetTypeLib@CCmdTarget@@UAEJKPAPAUITypeLib@@@Z
	DD	FLAT:?GetMessageMap@CDialog@@MBEPBUAFX_MSGMAP@@XZ
	DD	FLAT:?GetCommandMap@CCmdTarget@@MBEPBUAFX_OLECMDMAP@@XZ
	DD	FLAT:?GetDispatchMap@CCmdTarget@@MBEPBUAFX_DISPMAP@@XZ
	DD	FLAT:?GetConnectionMap@CCmdTarget@@MBEPBUAFX_CONNECTIONMAP@@XZ
	DD	FLAT:?GetInterfaceMap@CWnd@@MBEPBUAFX_INTERFACEMAP@@XZ
	DD	FLAT:?GetEventSinkMap@CCmdTarget@@MBEPBUAFX_EVENTSINKMAP@@XZ
	DD	FLAT:?OnCreateAggregates@CCmdTarget@@UAEHXZ
	DD	FLAT:?GetInterfaceHook@CCmdTarget@@UAEPAUIUnknown@@PBX@Z
	DD	FLAT:?GetExtraConnectionPoints@CCmdTarget@@MAEHPAVCPtrArray@@@Z
	DD	FLAT:?GetConnectionHook@CCmdTarget@@MAEPAUIConnectionPoint@@ABU_GUID@@@Z
	DD	FLAT:?PreSubclassWindow@CWnd@@UAEXXZ
	DD	FLAT:?Create@CWnd@@UAEHPBD0KABUtagRECT@@PAV1@IPAUCCreateContext@@@Z
	DD	FLAT:?CreateEx@CWnd@@UAEHKPBD0KABUtagRECT@@PAV1@IPAX@Z
	DD	FLAT:?CreateEx@CWnd@@UAEHKPBD0KHHHHPAUHWND__@@PAUHMENU__@@PAX@Z
	DD	FLAT:?DestroyWindow@CWnd@@UAEHXZ
	DD	FLAT:?PreCreateWindow@CWnd@@UAEHAAUtagCREATESTRUCTA@@@Z
	DD	FLAT:?CalcWindowRect@CWnd@@UAEXPAUtagRECT@@I@Z
	DD	FLAT:?GetMenu@CWnd@@UBEPAVCMenu@@XZ
	DD	FLAT:?SetMenu@CWnd@@UAEHPAVCMenu@@@Z
	DD	FLAT:?OnToolHitTest@CWnd@@UBEHVCPoint@@PAUtagTOOLINFOA@@@Z
	DD	FLAT:?GetScrollBarCtrl@CWnd@@UBEPAVCScrollBar@@H@Z
	DD	FLAT:?WinHelpA@CWnd@@UAEXKI@Z
	DD	FLAT:?HtmlHelpA@CWnd@@UAEXKI@Z
	DD	FLAT:?WinHelpInternal@CWnd@@UAEXKI@Z
	DD	FLAT:?ContinueModal@CWnd@@UAEHXZ
	DD	FLAT:?EndModalLoop@CWnd@@UAEXH@Z
	DD	FLAT:?OnDrawIconicThumbnailOrLivePreview@CWnd@@UAEXAAVCDC@@VCRect@@VCSize@@HAAH@Z
	DD	FLAT:?EnsureStdObj@CWnd@@UAEJXZ
	DD	FLAT:?get_accParent@CWnd@@UAEJPAPAUIDispatch@@@Z
	DD	FLAT:?get_accChildCount@CWnd@@UAEJPAJ@Z
	DD	FLAT:?get_accChild@CWnd@@UAEJUtagVARIANT@@PAPAUIDispatch@@@Z
	DD	FLAT:?get_accName@CWnd@@UAEJUtagVARIANT@@PAPA_W@Z
	DD	FLAT:?get_accValue@CWnd@@UAEJUtagVARIANT@@PAPA_W@Z
	DD	FLAT:?get_accDescription@CWnd@@UAEJUtagVARIANT@@PAPA_W@Z
	DD	FLAT:?get_accRole@CWnd@@UAEJUtagVARIANT@@PAU2@@Z
	DD	FLAT:?get_accState@CWnd@@UAEJUtagVARIANT@@PAU2@@Z
	DD	FLAT:?get_accHelp@CWnd@@UAEJUtagVARIANT@@PAPA_W@Z
	DD	FLAT:?get_accHelpTopic@CWnd@@UAEJPAPA_WUtagVARIANT@@PAJ@Z
	DD	FLAT:?get_accKeyboardShortcut@CWnd@@UAEJUtagVARIANT@@PAPA_W@Z
	DD	FLAT:?get_accFocus@CWnd@@UAEJPAUtagVARIANT@@@Z
	DD	FLAT:?get_accSelection@CWnd@@UAEJPAUtagVARIANT@@@Z
	DD	FLAT:?get_accDefaultAction@CWnd@@UAEJUtagVARIANT@@PAPA_W@Z
	DD	FLAT:?accSelect@CWnd@@UAEJJUtagVARIANT@@@Z
	DD	FLAT:?accLocation@CWnd@@UAEJPAJ000UtagVARIANT@@@Z
	DD	FLAT:?accNavigate@CWnd@@UAEJJUtagVARIANT@@PAU2@@Z
	DD	FLAT:?accHitTest@CWnd@@UAEJJJPAUtagVARIANT@@@Z
	DD	FLAT:?accDoDefaultAction@CWnd@@UAEJUtagVARIANT@@@Z
	DD	FLAT:?put_accName@CWnd@@UAEJUtagVARIANT@@PA_W@Z
	DD	FLAT:?put_accValue@CWnd@@UAEJUtagVARIANT@@PA_W@Z
	DD	FLAT:?SetProxy@CWnd@@UAEJPAUIAccessibleProxy@@@Z
	DD	FLAT:?CreateAccessibleProxy@CWnd@@UAEJIJPAJ@Z
	DD	FLAT:?OnCommand@CWnd@@MAEHIJ@Z
	DD	FLAT:?OnNotify@CWnd@@MAEHIJPAJ@Z
	DD	FLAT:?GetSuperWndProcAddr@CWnd@@MAEPAP6GJPAUHWND__@@IIJ@ZXZ
	DD	FLAT:?DoDataExchange@CScaleSet@@MAEXPAVCDataExchange@@@Z
	DD	FLAT:?BeginModalState@CWnd@@UAEXXZ
	DD	FLAT:?EndModalState@CWnd@@UAEXXZ
	DD	FLAT:?PreTranslateMessage@CDialog@@UAEHPAUtagMSG@@@Z
	DD	FLAT:?OnAmbientProperty@CWnd@@UAEHPAVCOleControlSite@@JPAUtagVARIANT@@@Z
	DD	FLAT:?WindowProc@CWnd@@MAEJIIJ@Z
	DD	FLAT:?OnWndMsg@CWnd@@MAEHIIJPAJ@Z
	DD	FLAT:?DefWindowProcA@CWnd@@MAEJIIJ@Z
	DD	FLAT:?PostNcDestroy@CWnd@@MAEXXZ
	DD	FLAT:?OnChildNotify@CWnd@@MAEHIIJPAJ@Z
	DD	FLAT:?OnTouchInputs@CWnd@@MAEHIPAUtagTOUCHINPUT@@@Z
	DD	FLAT:?OnTouchInput@CWnd@@MAEHVCPoint@@HHPAUtagTOUCHINPUT@@@Z
	DD	FLAT:?GetGestureStatus@CWnd@@MAEKVCPoint@@@Z
	DD	FLAT:?OnGestureZoom@CWnd@@MAEHVCPoint@@J@Z
	DD	FLAT:?OnGesturePan@CWnd@@MAEHVCPoint@@0@Z
	DD	FLAT:?OnGestureRotate@CWnd@@MAEHVCPoint@@N@Z
	DD	FLAT:?OnGestureTwoFingerTap@CWnd@@MAEHVCPoint@@@Z
	DD	FLAT:?OnGesturePressAndTap@CWnd@@MAEHVCPoint@@J@Z
	DD	FLAT:?ResizeDynamicLayout@CWnd@@MAEXXZ
	DD	FLAT:?CheckAutoCenter@CDialog@@UAEHXZ
	DD	FLAT:?IsFrameWnd@CWnd@@UBEHXZ
	DD	FLAT:?CreateControlContainer@CWnd@@MAEHPAPAVCOleControlContainer@@@Z
	DD	FLAT:?CreateControlSite@CWnd@@MAEHPAVCOleControlContainer@@PAPAVCOleControlSite@@IABU_GUID@@@Z
	DD	FLAT:?SetOccDialogInfo@CDialog@@MAEHPAU_AFX_OCC_DIALOG_INFO@@@Z
	DD	FLAT:?GetOccDialogInfo@CDialog@@MAEPAU_AFX_OCC_DIALOG_INFO@@XZ
	DD	FLAT:?Create@CDialog@@UAEHIPAVCWnd@@@Z
	DD	FLAT:?Create@CDialog@@UAEHPBDPAVCWnd@@@Z
	DD	FLAT:?CreateIndirect@CDialog@@UAEHPAXPAVCWnd@@@Z
	DD	FLAT:?CreateIndirect@CDialog@@UAEHPBUDLGTEMPLATE@@PAVCWnd@@PAX@Z
	DD	FLAT:?DoModal@CDialog@@UAEHXZ
	DD	FLAT:?OnInitDialog@CScaleSet@@MAEHXZ
	DD	FLAT:?OnSetFont@CDialog@@UAEXPAVCFont@@@Z
	DD	FLAT:?OnOK@CScaleSet@@MAEXXZ
	DD	FLAT:?OnCancel@CScaleSet@@MAEXXZ
	DD	FLAT:?PreInitDialog@CDialog@@MAEXXZ
	DD	FLAT:__purecall
	DD	FLAT:__purecall
	DD	FLAT:__purecall
	DD	FLAT:__purecall
	DD	FLAT:__purecall
	DD	FLAT:__purecall
	DD	FLAT:?EnableWindowOnAllScaleGroup@CScaleSet@@MAEXXZ
CONST	ENDS
;	COMDAT ??_R2CDialog@@8
rdata$r	SEGMENT
??_R2CDialog@@8 DD FLAT:??_R1A@?0A@EA@CDialog@@8	; CDialog::`RTTI Base Class Array'
	DD	FLAT:??_R1A@?0A@EA@CWnd@@8
	DD	FLAT:??_R1A@?0A@EA@CCmdTarget@@8
	DD	FLAT:??_R1A@?0A@EA@CObject@@8
rdata$r	ENDS
;	COMDAT ??_R3CDialog@@8
rdata$r	SEGMENT
??_R3CDialog@@8 DD 00H					; CDialog::`RTTI Class Hierarchy Descriptor'
	DD	00H
	DD	04H
	DD	FLAT:??_R2CDialog@@8
rdata$r	ENDS
;	COMDAT ??_R0?AVCDialog@@@8
data$rs	SEGMENT
??_R0?AVCDialog@@@8 DD FLAT:??_7type_info@@6B@		; CDialog `RTTI Type Descriptor'
	DD	00H
	DB	'.?AVCDialog@@', 00H
data$rs	ENDS
;	COMDAT ??_R1A@?0A@EA@CDialog@@8
rdata$r	SEGMENT
??_R1A@?0A@EA@CDialog@@8 DD FLAT:??_R0?AVCDialog@@@8	; CDialog::`RTTI Base Class Descriptor at (0,-1,0,64)'
	DD	03H
	DD	00H
	DD	0ffffffffH
	DD	00H
	DD	040H
	DD	FLAT:??_R3CDialog@@8
rdata$r	ENDS
;	COMDAT ??_R1A@?0A@EA@CCommonDialog@@8
rdata$r	SEGMENT
??_R1A@?0A@EA@CCommonDialog@@8 DD FLAT:??_R0?AVCCommonDialog@@@8 ; CCommonDialog::`RTTI Base Class Descriptor at (0,-1,0,64)'
	DD	04H
	DD	00H
	DD	0ffffffffH
	DD	00H
	DD	040H
	DD	FLAT:??_R3CCommonDialog@@8
rdata$r	ENDS
;	COMDAT ??_R2CCommonDialog@@8
rdata$r	SEGMENT
??_R2CCommonDialog@@8 DD FLAT:??_R1A@?0A@EA@CCommonDialog@@8 ; CCommonDialog::`RTTI Base Class Array'
	DD	FLAT:??_R1A@?0A@EA@CDialog@@8
	DD	FLAT:??_R1A@?0A@EA@CWnd@@8
	DD	FLAT:??_R1A@?0A@EA@CCmdTarget@@8
	DD	FLAT:??_R1A@?0A@EA@CObject@@8
rdata$r	ENDS
;	COMDAT ??_R3CCommonDialog@@8
rdata$r	SEGMENT
??_R3CCommonDialog@@8 DD 00H				; CCommonDialog::`RTTI Class Hierarchy Descriptor'
	DD	00H
	DD	05H
	DD	FLAT:??_R2CCommonDialog@@8
rdata$r	ENDS
;	COMDAT ??_R0?AVCCommonDialog@@@8
data$rs	SEGMENT
??_R0?AVCCommonDialog@@@8 DD FLAT:??_7type_info@@6B@	; CCommonDialog `RTTI Type Descriptor'
	DD	00H
	DB	'.?AVCCommonDialog@@', 00H
data$rs	ENDS
;	COMDAT ??_R4CCommonDialog@@6B@
rdata$r	SEGMENT
??_R4CCommonDialog@@6B@ DD 00H				; CCommonDialog::`RTTI Complete Object Locator'
	DD	00H
	DD	00H
	DD	FLAT:??_R0?AVCCommonDialog@@@8
	DD	FLAT:??_R3CCommonDialog@@8
rdata$r	ENDS
;	COMDAT ??_R2CCmdTarget@@8
rdata$r	SEGMENT
??_R2CCmdTarget@@8 DD FLAT:??_R1A@?0A@EA@CCmdTarget@@8	; CCmdTarget::`RTTI Base Class Array'
	DD	FLAT:??_R1A@?0A@EA@CObject@@8
rdata$r	ENDS
;	COMDAT ??_R3CCmdTarget@@8
rdata$r	SEGMENT
??_R3CCmdTarget@@8 DD 00H				; CCmdTarget::`RTTI Class Hierarchy Descriptor'
	DD	00H
	DD	02H
	DD	FLAT:??_R2CCmdTarget@@8
rdata$r	ENDS
;	COMDAT ??_R0?AVCCmdTarget@@@8
data$rs	SEGMENT
??_R0?AVCCmdTarget@@@8 DD FLAT:??_7type_info@@6B@	; CCmdTarget `RTTI Type Descriptor'
	DD	00H
	DB	'.?AVCCmdTarget@@', 00H
data$rs	ENDS
;	COMDAT ??_R1A@?0A@EA@CCmdTarget@@8
rdata$r	SEGMENT
??_R1A@?0A@EA@CCmdTarget@@8 DD FLAT:??_R0?AVCCmdTarget@@@8 ; CCmdTarget::`RTTI Base Class Descriptor at (0,-1,0,64)'
	DD	01H
	DD	00H
	DD	0ffffffffH
	DD	00H
	DD	040H
	DD	FLAT:??_R3CCmdTarget@@8
rdata$r	ENDS
;	COMDAT ??_R2CWnd@@8
rdata$r	SEGMENT
??_R2CWnd@@8 DD	FLAT:??_R1A@?0A@EA@CWnd@@8		; CWnd::`RTTI Base Class Array'
	DD	FLAT:??_R1A@?0A@EA@CCmdTarget@@8
	DD	FLAT:??_R1A@?0A@EA@CObject@@8
rdata$r	ENDS
;	COMDAT ??_R3CWnd@@8
rdata$r	SEGMENT
??_R3CWnd@@8 DD	00H					; CWnd::`RTTI Class Hierarchy Descriptor'
	DD	00H
	DD	03H
	DD	FLAT:??_R2CWnd@@8
rdata$r	ENDS
;	COMDAT ??_R0?AVCWnd@@@8
data$rs	SEGMENT
??_R0?AVCWnd@@@8 DD FLAT:??_7type_info@@6B@		; CWnd `RTTI Type Descriptor'
	DD	00H
	DB	'.?AVCWnd@@', 00H
data$rs	ENDS
;	COMDAT ??_R1A@?0A@EA@CWnd@@8
rdata$r	SEGMENT
??_R1A@?0A@EA@CWnd@@8 DD FLAT:??_R0?AVCWnd@@@8		; CWnd::`RTTI Base Class Descriptor at (0,-1,0,64)'
	DD	02H
	DD	00H
	DD	0ffffffffH
	DD	00H
	DD	040H
	DD	FLAT:??_R3CWnd@@8
rdata$r	ENDS
;	COMDAT ??_R1A@?0A@EA@CObject@@8
rdata$r	SEGMENT
??_R1A@?0A@EA@CObject@@8 DD FLAT:??_R0?AVCObject@@@8	; CObject::`RTTI Base Class Descriptor at (0,-1,0,64)'
	DD	00H
	DD	00H
	DD	0ffffffffH
	DD	00H
	DD	040H
	DD	FLAT:??_R3CObject@@8
rdata$r	ENDS
;	COMDAT ??_R2CObject@@8
rdata$r	SEGMENT
??_R2CObject@@8 DD FLAT:??_R1A@?0A@EA@CObject@@8	; CObject::`RTTI Base Class Array'
rdata$r	ENDS
;	COMDAT ??_R3CObject@@8
rdata$r	SEGMENT
??_R3CObject@@8 DD 00H					; CObject::`RTTI Class Hierarchy Descriptor'
	DD	00H
	DD	01H
	DD	FLAT:??_R2CObject@@8
rdata$r	ENDS
;	COMDAT ??_R0?AVCObject@@@8
data$rs	SEGMENT
??_R0?AVCObject@@@8 DD FLAT:??_7type_info@@6B@		; CObject `RTTI Type Descriptor'
	DD	00H
	DB	'.?AVCObject@@', 00H
data$rs	ENDS
;	COMDAT ??_7CCommonDialog@@6B@
CONST	SEGMENT
??_7CCommonDialog@@6B@ DD FLAT:??_R4CCommonDialog@@6B@	; CCommonDialog::`vftable'
	DD	FLAT:?GetRuntimeClass@CCommonDialog@@UBEPAUCRuntimeClass@@XZ
	DD	FLAT:??_ECCommonDialog@@UAEPAXI@Z
	DD	FLAT:?Serialize@CObject@@UAEXAAVCArchive@@@Z
	DD	FLAT:?AssertValid@CObject@@UBEXXZ
	DD	FLAT:?Dump@CObject@@UBEXAAVCDumpContext@@@Z
	DD	FLAT:?OnCmdMsg@CDialog@@UAEHIHPAXPAUAFX_CMDHANDLERINFO@@@Z
	DD	FLAT:?OnFinalRelease@CWnd@@UAEXXZ
	DD	FLAT:?IsInvokeAllowed@CCmdTarget@@UAEHJ@Z
	DD	FLAT:?GetDispatchIID@CCmdTarget@@UAEHPAU_GUID@@@Z
	DD	FLAT:?GetTypeInfoCount@CCmdTarget@@UAEIXZ
	DD	FLAT:?GetTypeLibCache@CCmdTarget@@UAEPAVCTypeLibCache@@XZ
	DD	FLAT:?GetTypeLib@CCmdTarget@@UAEJKPAPAUITypeLib@@@Z
	DD	FLAT:?GetMessageMap@CCommonDialog@@MBEPBUAFX_MSGMAP@@XZ
	DD	FLAT:?GetCommandMap@CCmdTarget@@MBEPBUAFX_OLECMDMAP@@XZ
	DD	FLAT:?GetDispatchMap@CCmdTarget@@MBEPBUAFX_DISPMAP@@XZ
	DD	FLAT:?GetConnectionMap@CCmdTarget@@MBEPBUAFX_CONNECTIONMAP@@XZ
	DD	FLAT:?GetInterfaceMap@CWnd@@MBEPBUAFX_INTERFACEMAP@@XZ
	DD	FLAT:?GetEventSinkMap@CCmdTarget@@MBEPBUAFX_EVENTSINKMAP@@XZ
	DD	FLAT:?OnCreateAggregates@CCmdTarget@@UAEHXZ
	DD	FLAT:?GetInterfaceHook@CCmdTarget@@UAEPAUIUnknown@@PBX@Z
	DD	FLAT:?GetExtraConnectionPoints@CCmdTarget@@MAEHPAVCPtrArray@@@Z
	DD	FLAT:?GetConnectionHook@CCmdTarget@@MAEPAUIConnectionPoint@@ABU_GUID@@@Z
	DD	FLAT:?PreSubclassWindow@CWnd@@UAEXXZ
	DD	FLAT:?Create@CWnd@@UAEHPBD0KABUtagRECT@@PAV1@IPAUCCreateContext@@@Z
	DD	FLAT:?CreateEx@CWnd@@UAEHKPBD0KABUtagRECT@@PAV1@IPAX@Z
	DD	FLAT:?CreateEx@CWnd@@UAEHKPBD0KHHHHPAUHWND__@@PAUHMENU__@@PAX@Z
	DD	FLAT:?DestroyWindow@CWnd@@UAEHXZ
	DD	FLAT:?PreCreateWindow@CWnd@@UAEHAAUtagCREATESTRUCTA@@@Z
	DD	FLAT:?CalcWindowRect@CWnd@@UAEXPAUtagRECT@@I@Z
	DD	FLAT:?GetMenu@CWnd@@UBEPAVCMenu@@XZ
	DD	FLAT:?SetMenu@CWnd@@UAEHPAVCMenu@@@Z
	DD	FLAT:?OnToolHitTest@CWnd@@UBEHVCPoint@@PAUtagTOOLINFOA@@@Z
	DD	FLAT:?GetScrollBarCtrl@CWnd@@UBEPAVCScrollBar@@H@Z
	DD	FLAT:?WinHelpA@CWnd@@UAEXKI@Z
	DD	FLAT:?HtmlHelpA@CWnd@@UAEXKI@Z
	DD	FLAT:?WinHelpInternal@CWnd@@UAEXKI@Z
	DD	FLAT:?ContinueModal@CWnd@@UAEHXZ
	DD	FLAT:?EndModalLoop@CWnd@@UAEXH@Z
	DD	FLAT:?OnDrawIconicThumbnailOrLivePreview@CWnd@@UAEXAAVCDC@@VCRect@@VCSize@@HAAH@Z
	DD	FLAT:?EnsureStdObj@CWnd@@UAEJXZ
	DD	FLAT:?get_accParent@CWnd@@UAEJPAPAUIDispatch@@@Z
	DD	FLAT:?get_accChildCount@CWnd@@UAEJPAJ@Z
	DD	FLAT:?get_accChild@CWnd@@UAEJUtagVARIANT@@PAPAUIDispatch@@@Z
	DD	FLAT:?get_accName@CWnd@@UAEJUtagVARIANT@@PAPA_W@Z
	DD	FLAT:?get_accValue@CWnd@@UAEJUtagVARIANT@@PAPA_W@Z
	DD	FLAT:?get_accDescription@CWnd@@UAEJUtagVARIANT@@PAPA_W@Z
	DD	FLAT:?get_accRole@CWnd@@UAEJUtagVARIANT@@PAU2@@Z
	DD	FLAT:?get_accState@CWnd@@UAEJUtagVARIANT@@PAU2@@Z
	DD	FLAT:?get_accHelp@CWnd@@UAEJUtagVARIANT@@PAPA_W@Z
	DD	FLAT:?get_accHelpTopic@CWnd@@UAEJPAPA_WUtagVARIANT@@PAJ@Z
	DD	FLAT:?get_accKeyboardShortcut@CWnd@@UAEJUtagVARIANT@@PAPA_W@Z
	DD	FLAT:?get_accFocus@CWnd@@UAEJPAUtagVARIANT@@@Z
	DD	FLAT:?get_accSelection@CWnd@@UAEJPAUtagVARIANT@@@Z
	DD	FLAT:?get_accDefaultAction@CWnd@@UAEJUtagVARIANT@@PAPA_W@Z
	DD	FLAT:?accSelect@CWnd@@UAEJJUtagVARIANT@@@Z
	DD	FLAT:?accLocation@CWnd@@UAEJPAJ000UtagVARIANT@@@Z
	DD	FLAT:?accNavigate@CWnd@@UAEJJUtagVARIANT@@PAU2@@Z
	DD	FLAT:?accHitTest@CWnd@@UAEJJJPAUtagVARIANT@@@Z
	DD	FLAT:?accDoDefaultAction@CWnd@@UAEJUtagVARIANT@@@Z
	DD	FLAT:?put_accName@CWnd@@UAEJUtagVARIANT@@PA_W@Z
	DD	FLAT:?put_accValue@CWnd@@UAEJUtagVARIANT@@PA_W@Z
	DD	FLAT:?SetProxy@CWnd@@UAEJPAUIAccessibleProxy@@@Z
	DD	FLAT:?CreateAccessibleProxy@CWnd@@UAEJIJPAJ@Z
	DD	FLAT:?OnCommand@CWnd@@MAEHIJ@Z
	DD	FLAT:?OnNotify@CWnd@@MAEHIJPAJ@Z
	DD	FLAT:?GetSuperWndProcAddr@CWnd@@MAEPAP6GJPAUHWND__@@IIJ@ZXZ
	DD	FLAT:?DoDataExchange@CWnd@@MAEXPAVCDataExchange@@@Z
	DD	FLAT:?BeginModalState@CWnd@@UAEXXZ
	DD	FLAT:?EndModalState@CWnd@@UAEXXZ
	DD	FLAT:?PreTranslateMessage@CDialog@@UAEHPAUtagMSG@@@Z
	DD	FLAT:?OnAmbientProperty@CWnd@@UAEHPAVCOleControlSite@@JPAUtagVARIANT@@@Z
	DD	FLAT:?WindowProc@CWnd@@MAEJIIJ@Z
	DD	FLAT:?OnWndMsg@CWnd@@MAEHIIJPAJ@Z
	DD	FLAT:?DefWindowProcA@CWnd@@MAEJIIJ@Z
	DD	FLAT:?PostNcDestroy@CWnd@@MAEXXZ
	DD	FLAT:?OnChildNotify@CWnd@@MAEHIIJPAJ@Z
	DD	FLAT:?OnTouchInputs@CWnd@@MAEHIPAUtagTOUCHINPUT@@@Z
	DD	FLAT:?OnTouchInput@CWnd@@MAEHVCPoint@@HHPAUtagTOUCHINPUT@@@Z
	DD	FLAT:?GetGestureStatus@CWnd@@MAEKVCPoint@@@Z
	DD	FLAT:?OnGestureZoom@CWnd@@MAEHVCPoint@@J@Z
	DD	FLAT:?OnGesturePan@CWnd@@MAEHVCPoint@@0@Z
	DD	FLAT:?OnGestureRotate@CWnd@@MAEHVCPoint@@N@Z
	DD	FLAT:?OnGestureTwoFingerTap@CWnd@@MAEHVCPoint@@@Z
	DD	FLAT:?OnGesturePressAndTap@CWnd@@MAEHVCPoint@@J@Z
	DD	FLAT:?ResizeDynamicLayout@CWnd@@MAEXXZ
	DD	FLAT:?CheckAutoCenter@CDialog@@UAEHXZ
	DD	FLAT:?IsFrameWnd@CWnd@@UBEHXZ
	DD	FLAT:?CreateControlContainer@CWnd@@MAEHPAPAVCOleControlContainer@@@Z
	DD	FLAT:?CreateControlSite@CWnd@@MAEHPAVCOleControlContainer@@PAPAVCOleControlSite@@IABU_GUID@@@Z
	DD	FLAT:?SetOccDialogInfo@CDialog@@MAEHPAU_AFX_OCC_DIALOG_INFO@@@Z
	DD	FLAT:?GetOccDialogInfo@CDialog@@MAEPAU_AFX_OCC_DIALOG_INFO@@XZ
	DD	FLAT:?Create@CDialog@@UAEHIPAVCWnd@@@Z
	DD	FLAT:?Create@CDialog@@UAEHPBDPAVCWnd@@@Z
	DD	FLAT:?CreateIndirect@CDialog@@UAEHPAXPAVCWnd@@@Z
	DD	FLAT:?CreateIndirect@CDialog@@UAEHPBUDLGTEMPLATE@@PAVCWnd@@PAX@Z
	DD	FLAT:?DoModal@CDialog@@UAEHXZ
	DD	FLAT:?OnInitDialog@CDialog@@UAEHXZ
	DD	FLAT:?OnSetFont@CDialog@@UAEXPAVCFont@@@Z
	DD	FLAT:?OnOK@CCommonDialog@@MAEXXZ
	DD	FLAT:?OnCancel@CCommonDialog@@MAEXXZ
	DD	FLAT:?PreInitDialog@CDialog@@MAEXXZ
CONST	ENDS
;	COMDAT xdata$x
xdata$x	SEGMENT
__unwindtable$?OnTextColor@CScaleSet@@IAEXXZ DD 0ffffffffH
	DD	FLAT:__unwindfunclet$?OnTextColor@CScaleSet@@IAEXXZ$0
__ehfuncinfo$?OnTextColor@CScaleSet@@IAEXXZ DD 019930522H
	DD	01H
	DD	FLAT:__unwindtable$?OnTextColor@CScaleSet@@IAEXXZ
	DD	2 DUP(00H)
	DD	2 DUP(00H)
	DD	00H
	DD	01H
xdata$x	ENDS
;	COMDAT xdata$x
xdata$x	SEGMENT
__unwindtable$?OnGridColor@CScaleSet@@IAEXXZ DD 0ffffffffH
	DD	FLAT:__unwindfunclet$?OnGridColor@CScaleSet@@IAEXXZ$0
__ehfuncinfo$?OnGridColor@CScaleSet@@IAEXXZ DD 019930522H
	DD	01H
	DD	FLAT:__unwindtable$?OnGridColor@CScaleSet@@IAEXXZ
	DD	2 DUP(00H)
	DD	2 DUP(00H)
	DD	00H
	DD	01H
xdata$x	ENDS
;	COMDAT xdata$x
xdata$x	SEGMENT
__unwindtable$??0CScaleSet@@QAE@IPAVCWnd@@@Z DD 0ffffffffH
	DD	FLAT:__unwindfunclet$??0CScaleSet@@QAE@IPAVCWnd@@@Z$0
	DD	00H
	DD	FLAT:__unwindfunclet$??0CScaleSet@@QAE@IPAVCWnd@@@Z$1
__ehfuncinfo$??0CScaleSet@@QAE@IPAVCWnd@@@Z DD 019930522H
	DD	02H
	DD	FLAT:__unwindtable$??0CScaleSet@@QAE@IPAVCWnd@@@Z
	DD	2 DUP(00H)
	DD	2 DUP(00H)
	DD	00H
	DD	01H
xdata$x	ENDS
; Function compile flags: /Ogtp
; File C:\Program Files (x86)\Microsoft Visual Studio\2019\Community\VC\Tools\MSVC\14.29.30133\atlmfc\include\afx.inl
;	COMDAT ??_GCScaleSet@@UAEPAXI@Z
_TEXT	SEGMENT
___flags$ = 8						; size = 4
??_GCScaleSet@@UAEPAXI@Z PROC				; CScaleSet::`scalar deleting destructor', COMDAT
; _this$ = ecx
  00000	55		 push	 ebp
  00001	8b ec		 mov	 ebp, esp
  00003	56		 push	 esi
  00004	8b f1		 mov	 esi, ecx
  00006	8d 8e 48 01 00
	00		 lea	 ecx, DWORD PTR [esi+328]
  0000c	e8 00 00 00 00	 call	 ??1CButton@@UAE@XZ	; CButton::~CButton
  00011	8d 8e c0 00 00
	00		 lea	 ecx, DWORD PTR [esi+192]
  00017	e8 00 00 00 00	 call	 ??1CButton@@UAE@XZ	; CButton::~CButton
  0001c	8b ce		 mov	 ecx, esi
  0001e	e8 00 00 00 00	 call	 ??1CDialog@@UAE@XZ	; CDialog::~CDialog
  00023	8b 45 08	 mov	 eax, DWORD PTR ___flags$[ebp]
  00026	a8 01		 test	 al, 1
  00028	74 22		 je	 SHORT $LN18@scalar
  0002a	a8 04		 test	 al, 4
  0002c	75 10		 jne	 SHORT $LN3@scalar

; 112  : 	{ ::operator delete(p); }

  0002e	56		 push	 esi
  0002f	e8 00 00 00 00	 call	 ??3@YAXPAX@Z		; operator delete
  00034	83 c4 04	 add	 esp, 4
  00037	8b c6		 mov	 eax, esi
  00039	5e		 pop	 esi
  0003a	5d		 pop	 ebp
  0003b	c2 04 00	 ret	 4
$LN3@scalar:
  0003e	68 d8 01 00 00	 push	 472			; 000001d8H
  00043	56		 push	 esi
  00044	e8 00 00 00 00	 call	 ?__global_delete@@YAXPAXI@Z ; __global_delete
  00049	83 c4 08	 add	 esp, 8
$LN18@scalar:
  0004c	8b c6		 mov	 eax, esi
  0004e	5e		 pop	 esi
  0004f	5d		 pop	 ebp
  00050	c2 04 00	 ret	 4
??_GCScaleSet@@UAEPAXI@Z ENDP				; CScaleSet::`scalar deleting destructor'
_TEXT	ENDS
; Function compile flags: /Ogtp
; File D:\git\src\IBK\IBK_DRFN\ProjSrc\SrcChartEx\ChartOCX\ChartObject\ScaleSet.cpp
; File C:\Program Files (x86)\Microsoft Visual Studio\2019\Community\VC\Tools\MSVC\14.29.30133\atlmfc\include\afxwin2.inl
; File D:\git\src\IBK\IBK_DRFN\ProjSrc\SrcChartEx\ChartOCX\ChartObject\ScaleSet.cpp
;	COMDAT ?SetScaleColorInButton@CScaleSet@@AAEXPAVCColorButton@@ABK@Z
_TEXT	SEGMENT
_pColorButton$ = 8					; size = 4
_color$ = 12						; size = 4
?SetScaleColorInButton@CScaleSet@@AAEXPAVCColorButton@@ABK@Z PROC ; CScaleSet::SetScaleColorInButton, COMDAT
; _this$ = ecx

; 212  : {

  00000	55		 push	 ebp
  00001	8b ec		 mov	 ebp, esp
  00003	56		 push	 esi

; 213  : 	if(pColorButton == NULL)

  00004	8b 75 08	 mov	 esi, DWORD PTR _pColorButton$[ebp]
  00007	85 f6		 test	 esi, esi
  00009	74 17		 je	 SHORT $LN1@SetScaleCo

; 214  : 		return;
; 215  : 
; 216  : 	pColorButton->SetColor(color);

  0000b	ff 75 0c	 push	 DWORD PTR _color$[ebp]
  0000e	8b ce		 mov	 ecx, esi
  00010	e8 00 00 00 00	 call	 ?SetColor@CColorButton@@QAEXABK@Z ; CColorButton::SetColor
; File C:\Program Files (x86)\Microsoft Visual Studio\2019\Community\VC\Tools\MSVC\14.29.30133\atlmfc\include\afxwin2.inl

; 114  : 	{ ASSERT(::IsWindow(m_hWnd)); ::InvalidateRect(m_hWnd, NULL, bErase); }

  00015	6a 01		 push	 1
  00017	6a 00		 push	 0
  00019	ff 76 20	 push	 DWORD PTR [esi+32]
  0001c	ff 15 00 00 00
	00		 call	 DWORD PTR __imp__InvalidateRect@12
$LN1@SetScaleCo:
  00022	5e		 pop	 esi
; File D:\git\src\IBK\IBK_DRFN\ProjSrc\SrcChartEx\ChartOCX\ChartObject\ScaleSet.cpp

; 218  : }

  00023	5d		 pop	 ebp
  00024	c2 08 00	 ret	 8
?SetScaleColorInButton@CScaleSet@@AAEXPAVCColorButton@@ABK@Z ENDP ; CScaleSet::SetScaleColorInButton
_TEXT	ENDS
; Function compile flags: /Ogtp
; File D:\git\src\IBK\IBK_DRFN\ProjSrc\SrcChartEx\ChartOCX\ChartObject\ScaleSet.cpp
;	COMDAT ?SetScale@CScaleSet@@AAEHXZ
_TEXT	SEGMENT
?SetScale@CScaleSet@@AAEHXZ PROC			; CScaleSet::SetScale, COMDAT
; _this$ = ecx

; 201  : {

  00000	56		 push	 esi

; 202  : 	if( !UpdateData(TRUE)) return FALSE;

  00001	6a 01		 push	 1
  00003	8b f1		 mov	 esi, ecx
  00005	e8 00 00 00 00	 call	 ?UpdateData@CWnd@@QAEHH@Z ; CWnd::UpdateData
  0000a	85 c0		 test	 eax, eax
  0000c	75 02		 jne	 SHORT $LN2@SetScale
  0000e	5e		 pop	 esi

; 209  : }

  0000f	c3		 ret	 0
$LN2@SetScale:

; 203  : 
; 204  : 	if(m_bAllScaleGroup)

  00010	83 be ac 00 00
	00 00		 cmp	 DWORD PTR [esi+172], 0
  00017	8b ce		 mov	 ecx, esi
  00019	8b 06		 mov	 eax, DWORD PTR [esi]
  0001b	74 0d		 je	 SHORT $LN3@SetScale

; 205  : 		SetAllScale();

  0001d	ff 90 9c 01 00
	00		 call	 DWORD PTR [eax+412]

; 208  : 	return TRUE;

  00023	b8 01 00 00 00	 mov	 eax, 1
  00028	5e		 pop	 esi

; 209  : }

  00029	c3		 ret	 0
$LN3@SetScale:

; 206  : 	else
; 207  : 		SetScale(m_nScaleGroup);

  0002a	ff b6 b0 00 00
	00		 push	 DWORD PTR [esi+176]
  00030	ff 90 a0 01 00
	00		 call	 DWORD PTR [eax+416]

; 208  : 	return TRUE;

  00036	b8 01 00 00 00	 mov	 eax, 1
  0003b	5e		 pop	 esi

; 209  : }

  0003c	c3		 ret	 0
?SetScale@CScaleSet@@AAEHXZ ENDP			; CScaleSet::SetScale
_TEXT	ENDS
; Function compile flags: /Ogtp
; File D:\git\src\IBK\IBK_DRFN\ProjSrc\SrcChartEx\ChartOCX\ChartObject\ScaleSet.cpp
;	COMDAT ?ApplyInAllData@CScaleSet@@AAEHXZ
_TEXT	SEGMENT
$T1 = -8						; size = 4
$T2 = -4						; size = 4
?ApplyInAllData@CScaleSet@@AAEHXZ PROC			; CScaleSet::ApplyInAllData, COMDAT
; _this$ = ecx

; 193  : {

  00000	55		 push	 ebp
  00001	8b ec		 mov	 ebp, esp
  00003	83 ec 08	 sub	 esp, 8
  00006	56		 push	 esi

; 202  : 	if( !UpdateData(TRUE)) return FALSE;

  00007	6a 01		 push	 1

; 193  : {

  00009	8b f1		 mov	 esi, ecx

; 202  : 	if( !UpdateData(TRUE)) return FALSE;

  0000b	e8 00 00 00 00	 call	 ?UpdateData@CWnd@@QAEHH@Z ; CWnd::UpdateData
  00010	85 c0		 test	 eax, eax
  00012	74 63		 je	 SHORT $LN9@ApplyInAll

; 203  : 
; 204  : 	if(m_bAllScaleGroup)

  00014	83 be ac 00 00
	00 00		 cmp	 DWORD PTR [esi+172], 0
  0001b	8b ce		 mov	 ecx, esi
  0001d	8b 06		 mov	 eax, DWORD PTR [esi]
  0001f	74 08		 je	 SHORT $LN6@ApplyInAll

; 205  : 		SetAllScale();

  00021	ff 90 9c 01 00
	00		 call	 DWORD PTR [eax+412]
  00027	eb 0c		 jmp	 SHORT $LN2@ApplyInAll
$LN6@ApplyInAll:

; 206  : 	else
; 207  : 		SetScale(m_nScaleGroup);

  00029	ff b6 b0 00 00
	00		 push	 DWORD PTR [esi+176]
  0002f	ff 90 a0 01 00
	00		 call	 DWORD PTR [eax+416]
$LN2@ApplyInAll:

; 195  : 	SetScaleColor(m_ctlGridColor.GetColor(), m_ctlTextColor.GetColor());

  00035	8d 8e 48 01 00
	00		 lea	 ecx, DWORD PTR [esi+328]
  0003b	e8 00 00 00 00	 call	 ?GetColor@CColorButton@@QBEKXZ ; CColorButton::GetColor
  00040	8d 8e c0 00 00
	00		 lea	 ecx, DWORD PTR [esi+192]
  00046	89 45 fc	 mov	 DWORD PTR $T2[ebp], eax
  00049	e8 00 00 00 00	 call	 ?GetColor@CColorButton@@QBEKXZ ; CColorButton::GetColor
  0004e	8d 4d fc	 lea	 ecx, DWORD PTR $T2[ebp]
  00051	89 45 f8	 mov	 DWORD PTR $T1[ebp], eax
  00054	8b 06		 mov	 eax, DWORD PTR [esi]
  00056	51		 push	 ecx
  00057	8d 4d f8	 lea	 ecx, DWORD PTR $T1[ebp]
  0005a	51		 push	 ecx
  0005b	8b ce		 mov	 ecx, esi
  0005d	ff 90 a4 01 00
	00		 call	 DWORD PTR [eax+420]

; 196  : 	ApplyInEtcData();

  00063	8b 06		 mov	 eax, DWORD PTR [esi]
  00065	8b ce		 mov	 ecx, esi
  00067	ff 90 98 01 00
	00		 call	 DWORD PTR [eax+408]

; 197  : 	return TRUE;

  0006d	b8 01 00 00 00	 mov	 eax, 1
  00072	5e		 pop	 esi

; 198  : }

  00073	8b e5		 mov	 esp, ebp
  00075	5d		 pop	 ebp
  00076	c3		 ret	 0
$LN9@ApplyInAll:

; 194  : 	if( !SetScale()) return FALSE;

  00077	33 c0		 xor	 eax, eax
  00079	5e		 pop	 esi

; 198  : }

  0007a	8b e5		 mov	 esp, ebp
  0007c	5d		 pop	 ebp
  0007d	c3		 ret	 0
?ApplyInAllData@CScaleSet@@AAEHXZ ENDP			; CScaleSet::ApplyInAllData
_TEXT	ENDS
; Function compile flags: /Ogtp
; File D:\git\src\IBK\IBK_DRFN\ProjSrc\SrcChartEx\ChartOCX\ChartObject\ScaleSet.cpp
;	COMDAT ?EnableWindow@CScaleSet@@IAEXPAVCWnd@@_N@Z
_TEXT	SEGMENT
_pItem$ = 8						; size = 4
_bEnable$ = 12						; size = 1
?EnableWindow@CScaleSet@@IAEXPAVCWnd@@_N@Z PROC		; CScaleSet::EnableWindow, COMDAT
; _this$ = ecx

; 183  : {

  00000	55		 push	 ebp
  00001	8b ec		 mov	 ebp, esp

; 184  : 	if(pItem == NULL)

  00003	8b 4d 08	 mov	 ecx, DWORD PTR _pItem$[ebp]
  00006	85 c9		 test	 ecx, ecx
  00008	74 0a		 je	 SHORT $LN1@EnableWind

; 185  : 		return;
; 186  : 
; 187  : 	pItem->EnableWindow(bEnable);

  0000a	0f b6 45 0c	 movzx	 eax, BYTE PTR _bEnable$[ebp]
  0000e	50		 push	 eax
  0000f	e8 00 00 00 00	 call	 ?EnableWindow@CWnd@@QAEHH@Z ; CWnd::EnableWindow
$LN1@EnableWind:

; 188  : }

  00014	5d		 pop	 ebp
  00015	c2 08 00	 ret	 8
?EnableWindow@CScaleSet@@IAEXPAVCWnd@@_N@Z ENDP		; CScaleSet::EnableWindow
_TEXT	ENDS
; Function compile flags: /Ogtp
; File D:\git\src\IBK\IBK_DRFN\ProjSrc\SrcChartEx\ChartOCX\ChartObject\ScaleSet.cpp
;	COMDAT ?EnableWindow@CScaleSet@@IAEXPAVCWnd@@@Z
_TEXT	SEGMENT
_pItem$ = 8						; size = 4
?EnableWindow@CScaleSet@@IAEXPAVCWnd@@@Z PROC		; CScaleSet::EnableWindow, COMDAT
; _this$ = ecx

; 178  : {

  00000	55		 push	 ebp
  00001	8b ec		 mov	 ebp, esp
  00003	8b d1		 mov	 edx, ecx

; 184  : 	if(pItem == NULL)

  00005	8b 4d 08	 mov	 ecx, DWORD PTR _pItem$[ebp]
  00008	85 c9		 test	 ecx, ecx
  0000a	74 14		 je	 SHORT $LN3@EnableWind

; 179  : 	EnableWindow(pItem, !m_bAllScaleGroup);

  0000c	33 c0		 xor	 eax, eax
  0000e	39 82 ac 00 00
	00		 cmp	 DWORD PTR [edx+172], eax
  00014	0f 94 c0	 sete	 al

; 187  : 	pItem->EnableWindow(bEnable);

  00017	89 45 08	 mov	 DWORD PTR _pItem$[ebp], eax

; 180  : }

  0001a	5d		 pop	 ebp

; 187  : 	pItem->EnableWindow(bEnable);

  0001b	e9 00 00 00 00	 jmp	 ?EnableWindow@CWnd@@QAEHH@Z ; CWnd::EnableWindow
$LN3@EnableWind:

; 180  : }

  00020	5d		 pop	 ebp
  00021	c2 04 00	 ret	 4
?EnableWindow@CScaleSet@@IAEXPAVCWnd@@@Z ENDP		; CScaleSet::EnableWindow
_TEXT	ENDS
; Function compile flags: /Ogtp
; File D:\git\src\IBK\IBK_DRFN\ProjSrc\SrcChartEx\ChartOCX\ChartObject\ScaleSet.cpp
;	COMDAT ?ChangeScaleWindow@CScaleSet@@IAEXHHH@Z
_TEXT	SEGMENT
_nGroup$ = 8						; size = 4
_nPosition$ = 12					; size = 4
_nGrid$ = 16						; size = 4
?ChangeScaleWindow@CScaleSet@@IAEXHHH@Z PROC		; CScaleSet::ChangeScaleWindow, COMDAT
; _this$ = ecx

; 169  : {

  00000	55		 push	 ebp
  00001	8b ec		 mov	 ebp, esp

; 170  : 	m_nScaleGroup = nGroup;

  00003	8b 45 08	 mov	 eax, DWORD PTR _nGroup$[ebp]
  00006	89 81 b0 00 00
	00		 mov	 DWORD PTR [ecx+176], eax

; 171  : 	m_nScalePosition = nPosition;

  0000c	8b 45 0c	 mov	 eax, DWORD PTR _nPosition$[ebp]
  0000f	89 81 b4 00 00
	00		 mov	 DWORD PTR [ecx+180], eax

; 172  : 	m_nScaleGrid = nGrid;

  00015	8b 45 10	 mov	 eax, DWORD PTR _nGrid$[ebp]

; 173  : 
; 174  : 	UpdateData(FALSE);

  00018	6a 00		 push	 0
  0001a	89 81 b8 00 00
	00		 mov	 DWORD PTR [ecx+184], eax
  00020	e8 00 00 00 00	 call	 ?UpdateData@CWnd@@QAEHH@Z ; CWnd::UpdateData

; 175  : }

  00025	5d		 pop	 ebp
  00026	c2 0c 00	 ret	 12			; 0000000cH
?ChangeScaleWindow@CScaleSet@@IAEXHHH@Z ENDP		; CScaleSet::ChangeScaleWindow
_TEXT	ENDS
; Function compile flags: /Ogtp
; File D:\git\src\IBK\IBK_DRFN\ProjSrc\SrcChartEx\ChartOCX\ChartObject\ScaleSet.cpp
;	COMDAT ?GetScaleGrid@CScaleSet@@IBEHXZ
_TEXT	SEGMENT
?GetScaleGrid@CScaleSet@@IBEHXZ PROC			; CScaleSet::GetScaleGrid, COMDAT
; _this$ = ecx

; 164  : 	return m_nScaleGrid;

  00000	8b 81 b8 00 00
	00		 mov	 eax, DWORD PTR [ecx+184]

; 165  : }

  00006	c3		 ret	 0
?GetScaleGrid@CScaleSet@@IBEHXZ ENDP			; CScaleSet::GetScaleGrid
_TEXT	ENDS
; Function compile flags: /Ogtp
; File D:\git\src\IBK\IBK_DRFN\ProjSrc\SrcChartEx\ChartOCX\ChartObject\ScaleSet.cpp
;	COMDAT ?GetScalePosition@CScaleSet@@IBEHXZ
_TEXT	SEGMENT
?GetScalePosition@CScaleSet@@IBEHXZ PROC		; CScaleSet::GetScalePosition, COMDAT
; _this$ = ecx

; 159  : 	return m_nScalePosition;

  00000	8b 81 b4 00 00
	00		 mov	 eax, DWORD PTR [ecx+180]

; 160  : }

  00006	c3		 ret	 0
?GetScalePosition@CScaleSet@@IBEHXZ ENDP		; CScaleSet::GetScalePosition
_TEXT	ENDS
; Function compile flags: /Ogtp
; File D:\git\src\IBK\IBK_DRFN\ProjSrc\SrcChartEx\ChartOCX\ChartObject\ScaleSet.cpp
;	COMDAT ?IsAllScaleGroup@CScaleSet@@IBEHXZ
_TEXT	SEGMENT
?IsAllScaleGroup@CScaleSet@@IBEHXZ PROC			; CScaleSet::IsAllScaleGroup, COMDAT
; _this$ = ecx

; 154  : 	return m_bAllScaleGroup;

  00000	8b 81 ac 00 00
	00		 mov	 eax, DWORD PTR [ecx+172]

; 155  : }

  00006	c3		 ret	 0
?IsAllScaleGroup@CScaleSet@@IBEHXZ ENDP			; CScaleSet::IsAllScaleGroup
_TEXT	ENDS
; Function compile flags: /Ogtp
; File D:\git\src\IBK\IBK_DRFN\ProjSrc\SrcChartEx\ChartOCX\ChartObject\ScaleSet.cpp
;	COMDAT ?GetParent@CScaleSet@@IAEPAVCWnd@@XZ
_TEXT	SEGMENT
?GetParent@CScaleSet@@IAEPAVCWnd@@XZ PROC		; CScaleSet::GetParent, COMDAT
; _this$ = ecx

; 149  : 	return m_pParent;

  00000	8b 81 a8 00 00
	00		 mov	 eax, DWORD PTR [ecx+168]

; 150  : }

  00006	c3		 ret	 0
?GetParent@CScaleSet@@IAEPAVCWnd@@XZ ENDP		; CScaleSet::GetParent
_TEXT	ENDS
; Function compile flags: /Ogtp
; File D:\git\src\IBK\IBK_DRFN\ProjSrc\SrcChartEx\ChartOCX\ChartObject\ScaleSet.cpp
; File C:\Program Files (x86)\Microsoft Visual Studio\2019\Community\VC\Tools\MSVC\14.29.30133\atlmfc\include\afxwin2.inl
; File D:\git\src\IBK\IBK_DRFN\ProjSrc\SrcChartEx\ChartOCX\ChartObject\ScaleSet.cpp
; File C:\Program Files (x86)\Microsoft Visual Studio\2019\Community\VC\Tools\MSVC\14.29.30133\atlmfc\include\afxwin2.inl
; File D:\git\src\IBK\IBK_DRFN\ProjSrc\SrcChartEx\ChartOCX\ChartObject\ScaleSet.cpp
;	COMDAT ?SetScaleColorInButton@CScaleSet@@IAEXABK0@Z
_TEXT	SEGMENT
_gridColor$ = 8						; size = 4
_textColor$ = 12					; size = 4
?SetScaleColorInButton@CScaleSet@@IAEXABK0@Z PROC	; CScaleSet::SetScaleColorInButton, COMDAT
; _this$ = ecx

; 141  : {

  00000	55		 push	 ebp
  00001	8b ec		 mov	 ebp, esp
  00003	56		 push	 esi
  00004	57		 push	 edi
  00005	8b f9		 mov	 edi, ecx

; 142  : 	SetScaleColorInButton(&m_ctlGridColor, gridColor);

  00007	8d b7 c0 00 00
	00		 lea	 esi, DWORD PTR [edi+192]

; 213  : 	if(pColorButton == NULL)

  0000d	85 f6		 test	 esi, esi
  0000f	74 17		 je	 SHORT $LN3@SetScaleCo

; 214  : 		return;
; 215  : 
; 216  : 	pColorButton->SetColor(color);

  00011	ff 75 08	 push	 DWORD PTR _gridColor$[ebp]
  00014	8b ce		 mov	 ecx, esi
  00016	e8 00 00 00 00	 call	 ?SetColor@CColorButton@@QAEXABK@Z ; CColorButton::SetColor
; File C:\Program Files (x86)\Microsoft Visual Studio\2019\Community\VC\Tools\MSVC\14.29.30133\atlmfc\include\afxwin2.inl

; 114  : 	{ ASSERT(::IsWindow(m_hWnd)); ::InvalidateRect(m_hWnd, NULL, bErase); }

  0001b	6a 01		 push	 1
  0001d	6a 00		 push	 0
  0001f	ff 76 20	 push	 DWORD PTR [esi+32]
  00022	ff 15 00 00 00
	00		 call	 DWORD PTR __imp__InvalidateRect@12
$LN3@SetScaleCo:
; File D:\git\src\IBK\IBK_DRFN\ProjSrc\SrcChartEx\ChartOCX\ChartObject\ScaleSet.cpp

; 143  : 	SetScaleColorInButton(&m_ctlTextColor, textColor);

  00028	8d b7 48 01 00
	00		 lea	 esi, DWORD PTR [edi+328]

; 213  : 	if(pColorButton == NULL)

  0002e	85 f6		 test	 esi, esi
  00030	74 17		 je	 SHORT $LN8@SetScaleCo

; 214  : 		return;
; 215  : 
; 216  : 	pColorButton->SetColor(color);

  00032	ff 75 0c	 push	 DWORD PTR _textColor$[ebp]
  00035	8b ce		 mov	 ecx, esi
  00037	e8 00 00 00 00	 call	 ?SetColor@CColorButton@@QAEXABK@Z ; CColorButton::SetColor
; File C:\Program Files (x86)\Microsoft Visual Studio\2019\Community\VC\Tools\MSVC\14.29.30133\atlmfc\include\afxwin2.inl

; 114  : 	{ ASSERT(::IsWindow(m_hWnd)); ::InvalidateRect(m_hWnd, NULL, bErase); }

  0003c	6a 01		 push	 1
  0003e	6a 00		 push	 0
  00040	ff 76 20	 push	 DWORD PTR [esi+32]
  00043	ff 15 00 00 00
	00		 call	 DWORD PTR __imp__InvalidateRect@12
$LN8@SetScaleCo:
  00049	5f		 pop	 edi
; File D:\git\src\IBK\IBK_DRFN\ProjSrc\SrcChartEx\ChartOCX\ChartObject\ScaleSet.cpp

; 144  : }

  0004a	5e		 pop	 esi
  0004b	5d		 pop	 ebp
  0004c	c2 08 00	 ret	 8
?SetScaleColorInButton@CScaleSet@@IAEXABK0@Z ENDP	; CScaleSet::SetScaleColorInButton
_TEXT	ENDS
; Function compile flags: /Ogtp
; File D:\git\src\IBK\IBK_DRFN\ProjSrc\SrcChartEx\ChartOCX\ChartObject\ScaleSet.cpp
;	COMDAT ?SetScalePosition@CScaleSet@@IAEXH@Z
_TEXT	SEGMENT
_nScalePosition$ = 8					; size = 4
?SetScalePosition@CScaleSet@@IAEXH@Z PROC		; CScaleSet::SetScalePosition, COMDAT
; _this$ = ecx

; 136  : {

  00000	55		 push	 ebp
  00001	8b ec		 mov	 ebp, esp

; 137  : 	m_nScalePosition = nScalePosition;

  00003	8b 45 08	 mov	 eax, DWORD PTR _nScalePosition$[ebp]
  00006	89 81 b4 00 00
	00		 mov	 DWORD PTR [ecx+180], eax

; 138  : }

  0000c	5d		 pop	 ebp
  0000d	c2 04 00	 ret	 4
?SetScalePosition@CScaleSet@@IAEXH@Z ENDP		; CScaleSet::SetScalePosition
_TEXT	ENDS
; Function compile flags: /Ogtp
; File D:\git\src\IBK\IBK_DRFN\ProjSrc\SrcChartEx\ChartOCX\ChartObject\ScaleSet.cpp
;	COMDAT ?SetAllScaleGroup@CScaleSet@@IAEXH@Z
_TEXT	SEGMENT
_bAllScaleGroup$ = 8					; size = 4
?SetAllScaleGroup@CScaleSet@@IAEXH@Z PROC		; CScaleSet::SetAllScaleGroup, COMDAT
; _this$ = ecx

; 131  : {

  00000	55		 push	 ebp
  00001	8b ec		 mov	 ebp, esp

; 132  : 	m_bAllScaleGroup = bAllScaleGroup;

  00003	8b 45 08	 mov	 eax, DWORD PTR _bAllScaleGroup$[ebp]
  00006	89 81 ac 00 00
	00		 mov	 DWORD PTR [ecx+172], eax

; 133  : }

  0000c	5d		 pop	 ebp
  0000d	c2 04 00	 ret	 4
?SetAllScaleGroup@CScaleSet@@IAEXH@Z ENDP		; CScaleSet::SetAllScaleGroup
_TEXT	ENDS
; Function compile flags: /Ogtp
; File D:\git\src\IBK\IBK_DRFN\ProjSrc\SrcChartEx\ChartOCX\ChartObject\ScaleSet.cpp
;	COMDAT ?EnableWindowOnAllScaleGroup@CScaleSet@@MAEXXZ
_TEXT	SEGMENT
?EnableWindowOnAllScaleGroup@CScaleSet@@MAEXXZ PROC	; CScaleSet::EnableWindowOnAllScaleGroup, COMDAT
; _this$ = ecx

; 124  : {

  00000	56		 push	 esi

; 125  : 	// scale group
; 126  : 	EnableWindow(GetDlgItem(IDC_SCALEGROUP));

  00001	68 ea 03 00 00	 push	 1002			; 000003eaH
  00006	8b f1		 mov	 esi, ecx
  00008	e8 00 00 00 00	 call	 ?GetDlgItem@CWnd@@QBEPAV1@H@Z ; CWnd::GetDlgItem

; 184  : 	if(pItem == NULL)

  0000d	85 c0		 test	 eax, eax
  0000f	74 13		 je	 SHORT $LN5@EnableWind

; 179  : 	EnableWindow(pItem, !m_bAllScaleGroup);

  00011	33 d2		 xor	 edx, edx

; 187  : 	pItem->EnableWindow(bEnable);

  00013	8b c8		 mov	 ecx, eax

; 179  : 	EnableWindow(pItem, !m_bAllScaleGroup);

  00015	39 96 ac 00 00
	00		 cmp	 DWORD PTR [esi+172], edx
  0001b	0f 94 c2	 sete	 dl

; 187  : 	pItem->EnableWindow(bEnable);

  0001e	52		 push	 edx
  0001f	e8 00 00 00 00	 call	 ?EnableWindow@CWnd@@QAEHH@Z ; CWnd::EnableWindow
$LN5@EnableWind:
  00024	5e		 pop	 esi

; 127  : }

  00025	c3		 ret	 0
?EnableWindowOnAllScaleGroup@CScaleSet@@MAEXXZ ENDP	; CScaleSet::EnableWindowOnAllScaleGroup
_TEXT	ENDS
; Function compile flags: /Ogtp
; File D:\git\src\IBK\IBK_DRFN\ProjSrc\SrcChartEx\ChartOCX\ChartObject\ScaleSet.cpp
; File C:\Program Files (x86)\Microsoft Visual Studio\2019\Community\VC\Tools\MSVC\14.29.30133\atlmfc\include\afxwin2.inl
; File C:\Program Files (x86)\Microsoft Visual Studio\2019\Community\VC\Tools\MSVC\14.29.30133\atlmfc\include\afxdlgs.h
; File D:\git\src\IBK\IBK_DRFN\ProjSrc\SrcChartEx\ChartOCX\ChartObject\ScaleSet.cpp
;	COMDAT ?OnTextColor@CScaleSet@@IAEXXZ
_TEXT	SEGMENT
_colorDlg$ = -224					; size = 208
$T2 = -16						; size = 4
__$EHRec$ = -12						; size = 12
?OnTextColor@CScaleSet@@IAEXXZ PROC			; CScaleSet::OnTextColor, COMDAT
; _this$ = ecx

; 112  : {

  00000	55		 push	 ebp
  00001	8b ec		 mov	 ebp, esp
  00003	6a ff		 push	 -1
  00005	68 00 00 00 00	 push	 __ehhandler$?OnTextColor@CScaleSet@@IAEXXZ
  0000a	64 a1 00 00 00
	00		 mov	 eax, DWORD PTR fs:0
  00010	50		 push	 eax
  00011	81 ec d4 00 00
	00		 sub	 esp, 212		; 000000d4H
  00017	56		 push	 esi
  00018	a1 00 00 00 00	 mov	 eax, DWORD PTR ___security_cookie
  0001d	33 c5		 xor	 eax, ebp
  0001f	50		 push	 eax
  00020	8d 45 f4	 lea	 eax, DWORD PTR __$EHRec$[ebp]
  00023	64 a3 00 00 00
	00		 mov	 DWORD PTR fs:0, eax
  00029	8b f1		 mov	 esi, ecx

; 113  : 	CColorDialog colorDlg;

  0002b	6a 00		 push	 0
  0002d	6a 00		 push	 0
  0002f	6a 00		 push	 0
  00031	8d 8d 20 ff ff
	ff		 lea	 ecx, DWORD PTR _colorDlg$[ebp]
  00037	e8 00 00 00 00	 call	 ??0CColorDialog@@QAE@KKPAVCWnd@@@Z ; CColorDialog::CColorDialog

; 114  : 
; 115  : 	if(colorDlg.DoModal() != IDOK)

  0003c	8d 8d 20 ff ff
	ff		 lea	 ecx, DWORD PTR _colorDlg$[ebp]
  00042	c7 45 fc 00 00
	00 00		 mov	 DWORD PTR __$EHRec$[ebp+8], 0
  00049	e8 00 00 00 00	 call	 ?DoModal@CColorDialog@@UAEHXZ ; CColorDialog::DoModal
  0004e	83 f8 01	 cmp	 eax, 1
  00051	75 26		 jne	 SHORT $LN12@OnTextColo

; 116  : 		return;
; 117  : 
; 118  : 	SetScaleColorInButton(&m_ctlTextColor, colorDlg.GetColor());

  00053	8b 45 d4	 mov	 eax, DWORD PTR _colorDlg$[ebp+180]
  00056	89 45 f0	 mov	 DWORD PTR $T2[ebp], eax
  00059	81 c6 48 01 00
	00		 add	 esi, 328		; 00000148H

; 213  : 	if(pColorButton == NULL)

  0005f	74 18		 je	 SHORT $LN12@OnTextColo

; 214  : 		return;
; 215  : 
; 216  : 	pColorButton->SetColor(color);

  00061	8d 45 f0	 lea	 eax, DWORD PTR $T2[ebp]
  00064	8b ce		 mov	 ecx, esi
  00066	50		 push	 eax
  00067	e8 00 00 00 00	 call	 ?SetColor@CColorButton@@QAEXABK@Z ; CColorButton::SetColor
; File C:\Program Files (x86)\Microsoft Visual Studio\2019\Community\VC\Tools\MSVC\14.29.30133\atlmfc\include\afxwin2.inl

; 114  : 	{ ASSERT(::IsWindow(m_hWnd)); ::InvalidateRect(m_hWnd, NULL, bErase); }

  0006c	6a 01		 push	 1
  0006e	6a 00		 push	 0
  00070	ff 76 20	 push	 DWORD PTR [esi+32]
  00073	ff 15 00 00 00
	00		 call	 DWORD PTR __imp__InvalidateRect@12
$LN12@OnTextColo:
; File C:\Program Files (x86)\Microsoft Visual Studio\2019\Community\VC\Tools\MSVC\14.29.30133\atlmfc\include\afxdlgs.h

; 110  :     virtual ~CCommonDialog() {};

  00079	8d 8d 20 ff ff
	ff		 lea	 ecx, DWORD PTR _colorDlg$[ebp]
  0007f	c7 85 20 ff ff
	ff 00 00 00 00	 mov	 DWORD PTR _colorDlg$[ebp], OFFSET ??_7CCommonDialog@@6B@
  00089	e8 00 00 00 00	 call	 ??1CDialog@@UAE@XZ	; CDialog::~CDialog
; File D:\git\src\IBK\IBK_DRFN\ProjSrc\SrcChartEx\ChartOCX\ChartObject\ScaleSet.cpp

; 119  : }

  0008e	8b 4d f4	 mov	 ecx, DWORD PTR __$EHRec$[ebp]
  00091	64 89 0d 00 00
	00 00		 mov	 DWORD PTR fs:0, ecx
  00098	59		 pop	 ecx
  00099	5e		 pop	 esi
  0009a	8b e5		 mov	 esp, ebp
  0009c	5d		 pop	 ebp
  0009d	c3		 ret	 0
_TEXT	ENDS
;	COMDAT text$x
text$x	SEGMENT
__unwindfunclet$?OnTextColor@CScaleSet@@IAEXXZ$0:
  00000	8d 8d 20 ff ff
	ff		 lea	 ecx, DWORD PTR _colorDlg$[ebp]
  00006	e9 00 00 00 00	 jmp	 ??1CColorDialog@@UAE@XZ
  0000b	cc		 int	 3
  0000c	cc		 int	 3
  0000d	cc		 int	 3
  0000e	cc		 int	 3
  0000f	cc		 int	 3
__ehhandler$?OnTextColor@CScaleSet@@IAEXXZ:
  00010	90		 npad	 1
  00011	90		 npad	 1
  00012	8b 54 24 08	 mov	 edx, DWORD PTR [esp+8]
  00016	8d 42 0c	 lea	 eax, DWORD PTR [edx+12]
  00019	8b 8a 24 ff ff
	ff		 mov	 ecx, DWORD PTR [edx-220]
  0001f	33 c8		 xor	 ecx, eax
  00021	e8 00 00 00 00	 call	 @__security_check_cookie@4
  00026	b8 00 00 00 00	 mov	 eax, OFFSET __ehfuncinfo$?OnTextColor@CScaleSet@@IAEXXZ
  0002b	e9 00 00 00 00	 jmp	 ___CxxFrameHandler3
text$x	ENDS
?OnTextColor@CScaleSet@@IAEXXZ ENDP			; CScaleSet::OnTextColor
; Function compile flags: /Ogtp
; File D:\git\src\IBK\IBK_DRFN\ProjSrc\SrcChartEx\ChartOCX\ChartObject\ScaleSet.cpp
; File C:\Program Files (x86)\Microsoft Visual Studio\2019\Community\VC\Tools\MSVC\14.29.30133\atlmfc\include\afxwin2.inl
; File C:\Program Files (x86)\Microsoft Visual Studio\2019\Community\VC\Tools\MSVC\14.29.30133\atlmfc\include\afxdlgs.h
; File D:\git\src\IBK\IBK_DRFN\ProjSrc\SrcChartEx\ChartOCX\ChartObject\ScaleSet.cpp
;	COMDAT ?OnGridColor@CScaleSet@@IAEXXZ
_TEXT	SEGMENT
_colorDlg$ = -224					; size = 208
$T2 = -16						; size = 4
__$EHRec$ = -12						; size = 12
?OnGridColor@CScaleSet@@IAEXXZ PROC			; CScaleSet::OnGridColor, COMDAT
; _this$ = ecx

; 102  : {

  00000	55		 push	 ebp
  00001	8b ec		 mov	 ebp, esp
  00003	6a ff		 push	 -1
  00005	68 00 00 00 00	 push	 __ehhandler$?OnGridColor@CScaleSet@@IAEXXZ
  0000a	64 a1 00 00 00
	00		 mov	 eax, DWORD PTR fs:0
  00010	50		 push	 eax
  00011	81 ec d4 00 00
	00		 sub	 esp, 212		; 000000d4H
  00017	56		 push	 esi
  00018	a1 00 00 00 00	 mov	 eax, DWORD PTR ___security_cookie
  0001d	33 c5		 xor	 eax, ebp
  0001f	50		 push	 eax
  00020	8d 45 f4	 lea	 eax, DWORD PTR __$EHRec$[ebp]
  00023	64 a3 00 00 00
	00		 mov	 DWORD PTR fs:0, eax
  00029	8b f1		 mov	 esi, ecx

; 103  : 	CColorDialog colorDlg;

  0002b	6a 00		 push	 0
  0002d	6a 00		 push	 0
  0002f	6a 00		 push	 0
  00031	8d 8d 20 ff ff
	ff		 lea	 ecx, DWORD PTR _colorDlg$[ebp]
  00037	e8 00 00 00 00	 call	 ??0CColorDialog@@QAE@KKPAVCWnd@@@Z ; CColorDialog::CColorDialog

; 104  : 
; 105  : 	if(colorDlg.DoModal() != IDOK)

  0003c	8d 8d 20 ff ff
	ff		 lea	 ecx, DWORD PTR _colorDlg$[ebp]
  00042	c7 45 fc 00 00
	00 00		 mov	 DWORD PTR __$EHRec$[ebp+8], 0
  00049	e8 00 00 00 00	 call	 ?DoModal@CColorDialog@@UAEHXZ ; CColorDialog::DoModal
  0004e	83 f8 01	 cmp	 eax, 1
  00051	75 26		 jne	 SHORT $LN12@OnGridColo

; 106  : 		return;
; 107  : 
; 108  : 	SetScaleColorInButton(&m_ctlGridColor, colorDlg.GetColor());

  00053	8b 45 d4	 mov	 eax, DWORD PTR _colorDlg$[ebp+180]
  00056	89 45 f0	 mov	 DWORD PTR $T2[ebp], eax
  00059	81 c6 c0 00 00
	00		 add	 esi, 192		; 000000c0H

; 213  : 	if(pColorButton == NULL)

  0005f	74 18		 je	 SHORT $LN12@OnGridColo

; 214  : 		return;
; 215  : 
; 216  : 	pColorButton->SetColor(color);

  00061	8d 45 f0	 lea	 eax, DWORD PTR $T2[ebp]
  00064	8b ce		 mov	 ecx, esi
  00066	50		 push	 eax
  00067	e8 00 00 00 00	 call	 ?SetColor@CColorButton@@QAEXABK@Z ; CColorButton::SetColor
; File C:\Program Files (x86)\Microsoft Visual Studio\2019\Community\VC\Tools\MSVC\14.29.30133\atlmfc\include\afxwin2.inl

; 114  : 	{ ASSERT(::IsWindow(m_hWnd)); ::InvalidateRect(m_hWnd, NULL, bErase); }

  0006c	6a 01		 push	 1
  0006e	6a 00		 push	 0
  00070	ff 76 20	 push	 DWORD PTR [esi+32]
  00073	ff 15 00 00 00
	00		 call	 DWORD PTR __imp__InvalidateRect@12
$LN12@OnGridColo:
; File C:\Program Files (x86)\Microsoft Visual Studio\2019\Community\VC\Tools\MSVC\14.29.30133\atlmfc\include\afxdlgs.h

; 110  :     virtual ~CCommonDialog() {};

  00079	8d 8d 20 ff ff
	ff		 lea	 ecx, DWORD PTR _colorDlg$[ebp]
  0007f	c7 85 20 ff ff
	ff 00 00 00 00	 mov	 DWORD PTR _colorDlg$[ebp], OFFSET ??_7CCommonDialog@@6B@
  00089	e8 00 00 00 00	 call	 ??1CDialog@@UAE@XZ	; CDialog::~CDialog
; File D:\git\src\IBK\IBK_DRFN\ProjSrc\SrcChartEx\ChartOCX\ChartObject\ScaleSet.cpp

; 109  : }

  0008e	8b 4d f4	 mov	 ecx, DWORD PTR __$EHRec$[ebp]
  00091	64 89 0d 00 00
	00 00		 mov	 DWORD PTR fs:0, ecx
  00098	59		 pop	 ecx
  00099	5e		 pop	 esi
  0009a	8b e5		 mov	 esp, ebp
  0009c	5d		 pop	 ebp
  0009d	c3		 ret	 0
_TEXT	ENDS
;	COMDAT text$x
text$x	SEGMENT
__unwindfunclet$?OnGridColor@CScaleSet@@IAEXXZ$0:
  00000	8d 8d 20 ff ff
	ff		 lea	 ecx, DWORD PTR _colorDlg$[ebp]
  00006	e9 00 00 00 00	 jmp	 ??1CColorDialog@@UAE@XZ
  0000b	cc		 int	 3
  0000c	cc		 int	 3
  0000d	cc		 int	 3
  0000e	cc		 int	 3
  0000f	cc		 int	 3
__ehhandler$?OnGridColor@CScaleSet@@IAEXXZ:
  00010	90		 npad	 1
  00011	90		 npad	 1
  00012	8b 54 24 08	 mov	 edx, DWORD PTR [esp+8]
  00016	8d 42 0c	 lea	 eax, DWORD PTR [edx+12]
  00019	8b 8a 24 ff ff
	ff		 mov	 ecx, DWORD PTR [edx-220]
  0001f	33 c8		 xor	 ecx, eax
  00021	e8 00 00 00 00	 call	 @__security_check_cookie@4
  00026	b8 00 00 00 00	 mov	 eax, OFFSET __ehfuncinfo$?OnGridColor@CScaleSet@@IAEXXZ
  0002b	e9 00 00 00 00	 jmp	 ___CxxFrameHandler3
text$x	ENDS
?OnGridColor@CScaleSet@@IAEXXZ ENDP			; CScaleSet::OnGridColor
; Function compile flags: /Ogtp
; File D:\git\src\IBK\IBK_DRFN\ProjSrc\SrcChartEx\ChartOCX\ChartObject\ScaleSet.cpp
;	COMDAT ?OnSelchangeScalegroup@CScaleSet@@IAEXXZ
_TEXT	SEGMENT
?OnSelchangeScalegroup@CScaleSet@@IAEXXZ PROC		; CScaleSet::OnSelchangeScalegroup, COMDAT
; _this$ = ecx

; 94   : {

  00000	56		 push	 esi
  00001	57		 push	 edi
  00002	8b f9		 mov	 edi, ecx

; 95   : 	int nLastScaleGroup = m_nScaleGroup;
; 96   : 	UpdateData(TRUE);

  00004	6a 01		 push	 1
  00006	8b b7 b0 00 00
	00		 mov	 esi, DWORD PTR [edi+176]
  0000c	e8 00 00 00 00	 call	 ?UpdateData@CWnd@@QAEHH@Z ; CWnd::UpdateData

; 97   : 	SetScale( nLastScaleGroup);

  00011	8b 07		 mov	 eax, DWORD PTR [edi]
  00013	8b cf		 mov	 ecx, edi
  00015	56		 push	 esi
  00016	ff 90 a0 01 00
	00		 call	 DWORD PTR [eax+416]

; 98   : 	ChangeScaleWindow(m_nScaleGroup);

  0001c	8b 07		 mov	 eax, DWORD PTR [edi]
  0001e	8b cf		 mov	 ecx, edi
  00020	ff b7 b0 00 00
	00		 push	 DWORD PTR [edi+176]
  00026	ff 90 a8 01 00
	00		 call	 DWORD PTR [eax+424]
  0002c	5f		 pop	 edi
  0002d	5e		 pop	 esi

; 99   : }

  0002e	c3		 ret	 0
?OnSelchangeScalegroup@CScaleSet@@IAEXXZ ENDP		; CScaleSet::OnSelchangeScalegroup
_TEXT	ENDS
; Function compile flags: /Ogtp
; File D:\git\src\IBK\IBK_DRFN\ProjSrc\SrcChartEx\ChartOCX\ChartObject\ScaleSet.cpp
;	COMDAT ?OnAllscalegroupCheck@CScaleSet@@IAEXXZ
_TEXT	SEGMENT
?OnAllscalegroupCheck@CScaleSet@@IAEXXZ PROC		; CScaleSet::OnAllscalegroupCheck, COMDAT
; _this$ = ecx

; 88   : {

  00000	56		 push	 esi

; 89   : 	UpdateData(TRUE);

  00001	6a 01		 push	 1
  00003	8b f1		 mov	 esi, ecx
  00005	e8 00 00 00 00	 call	 ?UpdateData@CWnd@@QAEHH@Z ; CWnd::UpdateData

; 90   : 	EnableWindowOnAllScaleGroup();

  0000a	8b 06		 mov	 eax, DWORD PTR [esi]
  0000c	8b ce		 mov	 ecx, esi
  0000e	5e		 pop	 esi
  0000f	ff a0 ac 01 00
	00		 jmp	 DWORD PTR [eax+428]
?OnAllscalegroupCheck@CScaleSet@@IAEXXZ ENDP		; CScaleSet::OnAllscalegroupCheck
_TEXT	ENDS
; Function compile flags: /Ogtp
; File D:\git\src\IBK\IBK_DRFN\ProjSrc\SrcChartEx\ChartOCX\ChartObject\ScaleSet.cpp
; File C:\Program Files (x86)\Microsoft Visual Studio\2019\Community\VC\Tools\MSVC\14.29.30133\atlmfc\include\afxwin2.inl
; File D:\git\src\IBK\IBK_DRFN\ProjSrc\SrcChartEx\ChartOCX\ChartObject\ScaleSet.cpp
;	COMDAT ?OnApplyBt@CScaleSet@@IAEXXZ
_TEXT	SEGMENT
?OnApplyBt@CScaleSet@@IAEXXZ PROC			; CScaleSet::OnApplyBt, COMDAT
; _this$ = ecx

; 81   : {

  00000	56		 push	 esi
  00001	8b f1		 mov	 esi, ecx

; 82   : 	ApplyInAllData();

  00003	e8 00 00 00 00	 call	 ?ApplyInAllData@CScaleSet@@AAEHXZ ; CScaleSet::ApplyInAllData

; 83   : 	if(m_pParent != NULL)

  00008	8b 86 a8 00 00
	00		 mov	 eax, DWORD PTR [esi+168]
  0000e	5e		 pop	 esi
  0000f	85 c0		 test	 eax, eax
  00011	74 0d		 je	 SHORT $LN2@OnApplyBt
; File C:\Program Files (x86)\Microsoft Visual Studio\2019\Community\VC\Tools\MSVC\14.29.30133\atlmfc\include\afxwin2.inl

; 114  : 	{ ASSERT(::IsWindow(m_hWnd)); ::InvalidateRect(m_hWnd, NULL, bErase); }

  00013	6a 01		 push	 1
  00015	6a 00		 push	 0
  00017	ff 70 20	 push	 DWORD PTR [eax+32]
  0001a	ff 15 00 00 00
	00		 call	 DWORD PTR __imp__InvalidateRect@12
$LN2@OnApplyBt:
; File D:\git\src\IBK\IBK_DRFN\ProjSrc\SrcChartEx\ChartOCX\ChartObject\ScaleSet.cpp

; 85   : }

  00020	c3		 ret	 0
?OnApplyBt@CScaleSet@@IAEXXZ ENDP			; CScaleSet::OnApplyBt
_TEXT	ENDS
; Function compile flags: /Ogtp
; File D:\git\src\IBK\IBK_DRFN\ProjSrc\SrcChartEx\ChartOCX\ChartObject\ScaleSet.cpp
; File C:\Program Files (x86)\Microsoft Visual Studio\2019\Community\VC\Tools\MSVC\14.29.30133\atlmfc\include\afxwin2.inl
; File D:\git\src\IBK\IBK_DRFN\ProjSrc\SrcChartEx\ChartOCX\ChartObject\ScaleSet.cpp
;	COMDAT ?OnCancel@CScaleSet@@MAEXXZ
_TEXT	SEGMENT
?OnCancel@CScaleSet@@MAEXXZ PROC			; CScaleSet::OnCancel, COMDAT
; _this$ = ecx

; 73   : {

  00000	56		 push	 esi
  00001	8b f1		 mov	 esi, ecx

; 74   : 	if(m_pParent != NULL)

  00003	8b 86 a8 00 00
	00		 mov	 eax, DWORD PTR [esi+168]
  00009	85 c0		 test	 eax, eax
  0000b	74 0d		 je	 SHORT $LN2@OnCancel
; File C:\Program Files (x86)\Microsoft Visual Studio\2019\Community\VC\Tools\MSVC\14.29.30133\atlmfc\include\afxwin2.inl

; 114  : 	{ ASSERT(::IsWindow(m_hWnd)); ::InvalidateRect(m_hWnd, NULL, bErase); }

  0000d	6a 01		 push	 1
  0000f	6a 00		 push	 0
  00011	ff 70 20	 push	 DWORD PTR [eax+32]
  00014	ff 15 00 00 00
	00		 call	 DWORD PTR __imp__InvalidateRect@12
$LN2@OnCancel:
; File D:\git\src\IBK\IBK_DRFN\ProjSrc\SrcChartEx\ChartOCX\ChartObject\ScaleSet.cpp

; 77   : 	CDialog::OnCancel();

  0001a	8b ce		 mov	 ecx, esi
  0001c	5e		 pop	 esi
  0001d	e9 00 00 00 00	 jmp	 ?OnCancel@CDialog@@MAEXXZ ; CDialog::OnCancel
?OnCancel@CScaleSet@@MAEXXZ ENDP			; CScaleSet::OnCancel
_TEXT	ENDS
; Function compile flags: /Ogtp
; File D:\git\src\IBK\IBK_DRFN\ProjSrc\SrcChartEx\ChartOCX\ChartObject\ScaleSet.cpp
;	COMDAT ?OnOK@CScaleSet@@MAEXXZ
_TEXT	SEGMENT
?OnOK@CScaleSet@@MAEXXZ PROC				; CScaleSet::OnOK, COMDAT
; _this$ = ecx

; 65   : {

  00000	56		 push	 esi
  00001	8b f1		 mov	 esi, ecx

; 66   : 	if( !ApplyInAllData()) return;

  00003	e8 00 00 00 00	 call	 ?ApplyInAllData@CScaleSet@@AAEHXZ ; CScaleSet::ApplyInAllData
  00008	85 c0		 test	 eax, eax
  0000a	74 09		 je	 SHORT $LN1@OnOK

; 67   : 
; 68   : 	// (2007/7/16 - Seung-Won, Bae) Do not call UpdateData(). It was called in ApplyInAllData().
; 69   : 	EndDialog(IDOK);

  0000c	6a 01		 push	 1
  0000e	8b ce		 mov	 ecx, esi
  00010	e8 00 00 00 00	 call	 ?EndDialog@CDialog@@QAEXH@Z ; CDialog::EndDialog
$LN1@OnOK:

; 70   : }

  00015	5e		 pop	 esi
  00016	c3		 ret	 0
?OnOK@CScaleSet@@MAEXXZ ENDP				; CScaleSet::OnOK
_TEXT	ENDS
; Function compile flags: /Ogtp
; File D:\git\src\IBK\IBK_DRFN\ProjSrc\SrcChartEx\ChartOCX\ChartObject\ScaleSet.cpp
;	COMDAT ?OnInitDialog@CScaleSet@@MAEHXZ
_TEXT	SEGMENT
?OnInitDialog@CScaleSet@@MAEHXZ PROC			; CScaleSet::OnInitDialog, COMDAT
; _this$ = ecx

; 50   : {

  00000	57		 push	 edi
  00001	8b f9		 mov	 edi, ecx

; 51   : 	CDialog::OnInitDialog();

  00003	e8 00 00 00 00	 call	 ?OnInitDialog@CDialog@@UAEHXZ ; CDialog::OnInitDialog

; 52   : 	
; 53   : 	// Dialog    
; 54   : 	mouse_event(MOUSEEVENTF_LEFTDOWN, 0, 0, 0, 0);

  00008	6a 00		 push	 0
  0000a	6a 00		 push	 0
  0000c	6a 00		 push	 0
  0000e	6a 00		 push	 0
  00010	6a 02		 push	 2
  00012	ff 15 00 00 00
	00		 call	 DWORD PTR __imp__mouse_event@20

; 55   : 	mouse_event(MOUSEEVENTF_LEFTUP, 0, 0, 0, 0);

  00018	6a 00		 push	 0
  0001a	6a 00		 push	 0
  0001c	6a 00		 push	 0
  0001e	6a 00		 push	 0
  00020	6a 04		 push	 4
  00022	ff 15 00 00 00
	00		 call	 DWORD PTR __imp__mouse_event@20

; 56   : 
; 57   : 	InitializeData();

  00028	8b 07		 mov	 eax, DWORD PTR [edi]
  0002a	8b cf		 mov	 ecx, edi
  0002c	ff 90 94 01 00
	00		 call	 DWORD PTR [eax+404]

; 58   : 
; 59   : 	return TRUE;  // return TRUE unless you set the focus to a control

  00032	b8 01 00 00 00	 mov	 eax, 1
  00037	5f		 pop	 edi

; 60   : 	              // EXCEPTION: OCX Property Pages should return FALSE
; 61   : }

  00038	c3		 ret	 0
?OnInitDialog@CScaleSet@@MAEHXZ ENDP			; CScaleSet::OnInitDialog
_TEXT	ENDS
; Function compile flags: /Ogtp
; File D:\git\src\IBK\IBK_DRFN\ProjSrc\SrcChartEx\ChartOCX\ChartObject\ScaleSet.cpp
;	COMDAT ?DoDataExchange@CScaleSet@@MAEXPAVCDataExchange@@@Z
_TEXT	SEGMENT
_pDX$ = 8						; size = 4
?DoDataExchange@CScaleSet@@MAEXPAVCDataExchange@@@Z PROC ; CScaleSet::DoDataExchange, COMDAT
; _this$ = ecx

; 37   : {

  00000	55		 push	 ebp
  00001	8b ec		 mov	 ebp, esp
  00003	56		 push	 esi

; 38   : 	CDialog::DoDataExchange(pDX);
; 39   : 	//{{AFX_DATA_MAP(CDlgVertScaleSet)
; 40   : 	DDX_Check(pDX, IDC_ALLSCALEGROUP_CHECK, m_bAllScaleGroup);

  00004	8b 75 08	 mov	 esi, DWORD PTR _pDX$[ebp]
  00007	57		 push	 edi
  00008	8b f9		 mov	 edi, ecx
  0000a	8d 87 ac 00 00
	00		 lea	 eax, DWORD PTR [edi+172]
  00010	50		 push	 eax
  00011	68 41 1f 00 00	 push	 8001			; 00001f41H
  00016	56		 push	 esi
  00017	e8 00 00 00 00	 call	 ?DDX_Check@@YGXPAVCDataExchange@@HAAH@Z ; DDX_Check

; 41   : 	DDX_CBIndex(pDX, IDC_SCALEGROUP, m_nScaleGroup);

  0001c	8d 87 b0 00 00
	00		 lea	 eax, DWORD PTR [edi+176]
  00022	50		 push	 eax
  00023	68 ea 03 00 00	 push	 1002			; 000003eaH
  00028	56		 push	 esi
  00029	e8 00 00 00 00	 call	 ?DDX_CBIndex@@YGXPAVCDataExchange@@HAAH@Z ; DDX_CBIndex

; 42   : 	DDX_Radio(pDX, IDC_SCALEPOSITION, m_nScalePosition);

  0002e	8d 87 b4 00 00
	00		 lea	 eax, DWORD PTR [edi+180]
  00034	50		 push	 eax
  00035	68 eb 03 00 00	 push	 1003			; 000003ebH
  0003a	56		 push	 esi
  0003b	e8 00 00 00 00	 call	 ?DDX_Radio@@YGXPAVCDataExchange@@HAAH@Z ; DDX_Radio

; 43   : 	DDX_Radio(pDX, IDC_SCALEGRID, m_nScaleGrid);

  00040	8d 87 b8 00 00
	00		 lea	 eax, DWORD PTR [edi+184]
  00046	50		 push	 eax
  00047	68 ef 03 00 00	 push	 1007			; 000003efH
  0004c	56		 push	 esi
  0004d	e8 00 00 00 00	 call	 ?DDX_Radio@@YGXPAVCDataExchange@@HAAH@Z ; DDX_Radio

; 44   : 	DDX_Control(pDX, IDC_TEXT_COLOR, m_ctlTextColor);

  00052	8d 87 48 01 00
	00		 lea	 eax, DWORD PTR [edi+328]
  00058	50		 push	 eax
  00059	68 46 1f 00 00	 push	 8006			; 00001f46H
  0005e	56		 push	 esi
  0005f	e8 00 00 00 00	 call	 ?DDX_Control@@YGXPAVCDataExchange@@HAAVCWnd@@@Z ; DDX_Control

; 45   : 	DDX_Control(pDX, IDC_GRID_COLOR, m_ctlGridColor);

  00064	8d 87 c0 00 00
	00		 lea	 eax, DWORD PTR [edi+192]
  0006a	50		 push	 eax
  0006b	68 14 27 00 00	 push	 10004			; 00002714H
  00070	56		 push	 esi
  00071	e8 00 00 00 00	 call	 ?DDX_Control@@YGXPAVCDataExchange@@HAAVCWnd@@@Z ; DDX_Control
  00076	5f		 pop	 edi
  00077	5e		 pop	 esi

; 46   : 	//}}AFX_DATA_MAP
; 47   : }

  00078	5d		 pop	 ebp
  00079	c2 04 00	 ret	 4
?DoDataExchange@CScaleSet@@MAEXPAVCDataExchange@@@Z ENDP ; CScaleSet::DoDataExchange
_TEXT	ENDS
; Function compile flags: /Ogtp
; File D:\git\src\IBK\IBK_DRFN\ProjSrc\SrcChartEx\ChartOCX\ChartObject\ScaleSet.cpp
;	COMDAT ??0CScaleSet@@QAE@IPAVCWnd@@@Z
_TEXT	SEGMENT
_this$ = -16						; size = 4
__$EHRec$ = -12						; size = 12
_nIDTemplate$ = 8					; size = 4
_pParent$ = 12						; size = 4
??0CScaleSet@@QAE@IPAVCWnd@@@Z PROC			; CScaleSet::CScaleSet, COMDAT
; _this$ = ecx

; 24   : {

  00000	55		 push	 ebp
  00001	8b ec		 mov	 ebp, esp
  00003	6a ff		 push	 -1
  00005	68 00 00 00 00	 push	 __ehhandler$??0CScaleSet@@QAE@IPAVCWnd@@@Z
  0000a	64 a1 00 00 00
	00		 mov	 eax, DWORD PTR fs:0
  00010	50		 push	 eax
  00011	51		 push	 ecx
  00012	56		 push	 esi
  00013	57		 push	 edi
  00014	a1 00 00 00 00	 mov	 eax, DWORD PTR ___security_cookie
  00019	33 c5		 xor	 eax, ebp
  0001b	50		 push	 eax
  0001c	8d 45 f4	 lea	 eax, DWORD PTR __$EHRec$[ebp]
  0001f	64 a3 00 00 00
	00		 mov	 DWORD PTR fs:0, eax
  00025	8b f1		 mov	 esi, ecx
  00027	89 75 f0	 mov	 DWORD PTR _this$[ebp], esi

; 22   : 	: CDialog(nIDTemplate, pParent),

  0002a	8b 7d 0c	 mov	 edi, DWORD PTR _pParent$[ebp]
  0002d	57		 push	 edi
  0002e	ff 75 08	 push	 DWORD PTR _nIDTemplate$[ebp]
  00031	e8 00 00 00 00	 call	 ??0CDialog@@QAE@IPAVCWnd@@@Z ; CDialog::CDialog

; 24   : {

  00036	8d 8e c0 00 00
	00		 lea	 ecx, DWORD PTR [esi+192]
  0003c	c7 45 fc 00 00
	00 00		 mov	 DWORD PTR __$EHRec$[ebp+8], 0
  00043	c7 06 00 00 00
	00		 mov	 DWORD PTR [esi], OFFSET ??_7CScaleSet@@6B@
  00049	89 be a8 00 00
	00		 mov	 DWORD PTR [esi+168], edi
  0004f	e8 00 00 00 00	 call	 ??0CColorButton@@QAE@XZ	; CColorButton::CColorButton
  00054	8d 8e 48 01 00
	00		 lea	 ecx, DWORD PTR [esi+328]
  0005a	c6 45 fc 01	 mov	 BYTE PTR __$EHRec$[ebp+8], 1
  0005e	e8 00 00 00 00	 call	 ??0CColorButton@@QAE@XZ	; CColorButton::CColorButton

; 25   : 	m_bAllScaleGroup = FALSE;

  00063	c7 86 ac 00 00
	00 00 00 00 00	 mov	 DWORD PTR [esi+172], 0

; 26   : 	m_nScaleGroup = 0;

  0006d	c7 86 b0 00 00
	00 00 00 00 00	 mov	 DWORD PTR [esi+176], 0

; 27   : 	m_nScaleGrid = 0; 

  00077	c7 86 b8 00 00
	00 00 00 00 00	 mov	 DWORD PTR [esi+184], 0

; 28   : 
; 29   : 	// (2008/1/22 - Seung-Won, Bae) for Multi-Language
; 30   : 	m_hOcxWnd = NULL;

  00081	c7 86 d0 01 00
	00 00 00 00 00	 mov	 DWORD PTR [esi+464], 0

; 31   : 	if( pParent) m_hOcxWnd = pParent->GetSafeHwnd();

  0008b	85 ff		 test	 edi, edi
  0008d	74 09		 je	 SHORT $LN11@CScaleSet
  0008f	8b 47 20	 mov	 eax, DWORD PTR [edi+32]
  00092	89 86 d0 01 00
	00		 mov	 DWORD PTR [esi+464], eax
$LN11@CScaleSet:

; 32   : }

  00098	8b c6		 mov	 eax, esi
  0009a	8b 4d f4	 mov	 ecx, DWORD PTR __$EHRec$[ebp]
  0009d	64 89 0d 00 00
	00 00		 mov	 DWORD PTR fs:0, ecx
  000a4	59		 pop	 ecx
  000a5	5f		 pop	 edi
  000a6	5e		 pop	 esi
  000a7	8b e5		 mov	 esp, ebp
  000a9	5d		 pop	 ebp
  000aa	c2 08 00	 ret	 8
_TEXT	ENDS
;	COMDAT text$x
text$x	SEGMENT
__unwindfunclet$??0CScaleSet@@QAE@IPAVCWnd@@@Z$0:
  00000	8b 4d f0	 mov	 ecx, DWORD PTR _this$[ebp]
  00003	e9 00 00 00 00	 jmp	 ??1CDialog@@UAE@XZ	; CDialog::~CDialog
__unwindfunclet$??0CScaleSet@@QAE@IPAVCWnd@@@Z$1:
  00008	8b 4d f0	 mov	 ecx, DWORD PTR _this$[ebp]
  0000b	81 c1 c0 00 00
	00		 add	 ecx, 192		; 000000c0H
  00011	e9 00 00 00 00	 jmp	 ??1CColorButton@@UAE@XZ
  00016	cc		 int	 3
  00017	cc		 int	 3
  00018	cc		 int	 3
  00019	cc		 int	 3
  0001a	cc		 int	 3
__ehhandler$??0CScaleSet@@QAE@IPAVCWnd@@@Z:
  0001b	90		 npad	 1
  0001c	90		 npad	 1
  0001d	8b 54 24 08	 mov	 edx, DWORD PTR [esp+8]
  00021	8d 42 0c	 lea	 eax, DWORD PTR [edx+12]
  00024	8b 4a f0	 mov	 ecx, DWORD PTR [edx-16]
  00027	33 c8		 xor	 ecx, eax
  00029	e8 00 00 00 00	 call	 @__security_check_cookie@4
  0002e	b8 00 00 00 00	 mov	 eax, OFFSET __ehfuncinfo$??0CScaleSet@@QAE@IPAVCWnd@@@Z
  00033	e9 00 00 00 00	 jmp	 ___CxxFrameHandler3
text$x	ENDS
??0CScaleSet@@QAE@IPAVCWnd@@@Z ENDP			; CScaleSet::CScaleSet
; Function compile flags: /Ogtp
;	COMDAT ??1CColorButton@@UAE@XZ
_TEXT	SEGMENT
??1CColorButton@@UAE@XZ PROC				; CColorButton::~CColorButton, COMDAT
; _this$ = ecx
  00000	e9 00 00 00 00	 jmp	 ??1CButton@@UAE@XZ	; CButton::~CButton
??1CColorButton@@UAE@XZ ENDP				; CColorButton::~CColorButton
_TEXT	ENDS
; Function compile flags: /Ogtp
; File C:\Program Files (x86)\Microsoft Visual Studio\2019\Community\VC\Tools\MSVC\14.29.30133\atlmfc\include\afxdlgs.h
;	COMDAT ??1CColorDialog@@UAE@XZ
_TEXT	SEGMENT
??1CColorDialog@@UAE@XZ PROC				; CColorDialog::~CColorDialog, COMDAT
; _this$ = ecx

; 110  :     virtual ~CCommonDialog() {};

  00000	c7 01 00 00 00
	00		 mov	 DWORD PTR [ecx], OFFSET ??_7CCommonDialog@@6B@
  00006	e9 00 00 00 00	 jmp	 ??1CDialog@@UAE@XZ	; CDialog::~CDialog
??1CColorDialog@@UAE@XZ ENDP				; CColorDialog::~CColorDialog
_TEXT	ENDS
; Function compile flags: /Ogtp
; File C:\Program Files (x86)\Microsoft Visual Studio\2019\Community\VC\Tools\MSVC\14.29.30133\atlmfc\include\afxdlgs.h
; File C:\Program Files (x86)\Microsoft Visual Studio\2019\Community\VC\Tools\MSVC\14.29.30133\atlmfc\include\afx.inl
;	COMDAT ??_GCCommonDialog@@UAEPAXI@Z
_TEXT	SEGMENT
___flags$ = 8						; size = 4
??_GCCommonDialog@@UAEPAXI@Z PROC			; CCommonDialog::`scalar deleting destructor', COMDAT
; _this$ = ecx
  00000	55		 push	 ebp
  00001	8b ec		 mov	 ebp, esp
; File C:\Program Files (x86)\Microsoft Visual Studio\2019\Community\VC\Tools\MSVC\14.29.30133\atlmfc\include\afxdlgs.h

; 110  :     virtual ~CCommonDialog() {};

  00003	56		 push	 esi
  00004	8b f1		 mov	 esi, ecx
  00006	c7 06 00 00 00
	00		 mov	 DWORD PTR [esi], OFFSET ??_7CCommonDialog@@6B@
  0000c	e8 00 00 00 00	 call	 ??1CDialog@@UAE@XZ	; CDialog::~CDialog
  00011	8b 45 08	 mov	 eax, DWORD PTR ___flags$[ebp]
  00014	a8 01		 test	 al, 1
  00016	74 22		 je	 SHORT $LN12@scalar
  00018	a8 04		 test	 al, 4
  0001a	75 10		 jne	 SHORT $LN3@scalar
; File C:\Program Files (x86)\Microsoft Visual Studio\2019\Community\VC\Tools\MSVC\14.29.30133\atlmfc\include\afx.inl

; 112  : 	{ ::operator delete(p); }

  0001c	56		 push	 esi
  0001d	e8 00 00 00 00	 call	 ??3@YAXPAX@Z		; operator delete
  00022	83 c4 04	 add	 esp, 4
  00025	8b c6		 mov	 eax, esi
  00027	5e		 pop	 esi
  00028	5d		 pop	 ebp
  00029	c2 04 00	 ret	 4
$LN3@scalar:
  0002c	68 a8 00 00 00	 push	 168			; 000000a8H
  00031	56		 push	 esi
  00032	e8 00 00 00 00	 call	 ?__global_delete@@YAXPAXI@Z ; __global_delete
  00037	83 c4 08	 add	 esp, 8
$LN12@scalar:
  0003a	8b c6		 mov	 eax, esi
  0003c	5e		 pop	 esi
  0003d	5d		 pop	 ebp
  0003e	c2 04 00	 ret	 4
??_GCCommonDialog@@UAEPAXI@Z ENDP			; CCommonDialog::`scalar deleting destructor'
_TEXT	ENDS
; Function compile flags: /Ogtp
; File C:\Program Files (x86)\Microsoft Visual Studio\2019\Community\VC\Tools\MSVC\14.29.30133\atlmfc\include\afxdlgs.h
;	COMDAT ??1CCommonDialog@@UAE@XZ
_TEXT	SEGMENT
??1CCommonDialog@@UAE@XZ PROC				; CCommonDialog::~CCommonDialog, COMDAT
; _this$ = ecx

; 110  :     virtual ~CCommonDialog() {};

  00000	c7 01 00 00 00
	00		 mov	 DWORD PTR [ecx], OFFSET ??_7CCommonDialog@@6B@
  00006	e9 00 00 00 00	 jmp	 ??1CDialog@@UAE@XZ	; CDialog::~CDialog
??1CCommonDialog@@UAE@XZ ENDP				; CCommonDialog::~CCommonDialog
_TEXT	ENDS
; Function compile flags: /Ogtp
; File C:\Program Files (x86)\Microsoft Visual Studio\2019\Community\VC\Tools\MSVC\14.29.30133\atlmfc\include\afxwin2.inl
;	COMDAT ?Create@CDialog@@UAEHIPAVCWnd@@@Z
_TEXT	SEGMENT
_nIDTemplate$ = 8					; size = 4
_pParentWnd$ = 12					; size = 4
?Create@CDialog@@UAEHIPAVCWnd@@@Z PROC			; CDialog::Create, COMDAT
; _this$ = ecx

; 585  : 	{ return CDialog::Create(ATL_MAKEINTRESOURCE(nIDTemplate), pParentWnd); }

  00000	55		 push	 ebp
  00001	8b ec		 mov	 ebp, esp
  00003	0f b7 45 08	 movzx	 eax, WORD PTR _nIDTemplate$[ebp]
  00007	89 45 08	 mov	 DWORD PTR _nIDTemplate$[ebp], eax
  0000a	5d		 pop	 ebp
  0000b	e9 00 00 00 00	 jmp	 ?Create@CDialog@@UAEHPBDPAVCWnd@@@Z ; CDialog::Create
?Create@CDialog@@UAEHIPAVCWnd@@@Z ENDP			; CDialog::Create
_TEXT	ENDS
; Function compile flags: /Ogtp
; File C:\Program Files (x86)\Microsoft Visual Studio\2019\Community\VC\Tools\MSVC\14.29.30133\atlmfc\include\afxwin2.inl
;	COMDAT ?EndModalState@CWnd@@UAEXXZ
_TEXT	SEGMENT
?EndModalState@CWnd@@UAEXXZ PROC			; CWnd::EndModalState, COMDAT
; _this$ = ecx

; 567  : 	{ ::EnableWindow(m_hWnd, TRUE); }

  00000	6a 01		 push	 1
  00002	ff 71 20	 push	 DWORD PTR [ecx+32]
  00005	ff 15 00 00 00
	00		 call	 DWORD PTR __imp__EnableWindow@8
  0000b	c3		 ret	 0
?EndModalState@CWnd@@UAEXXZ ENDP			; CWnd::EndModalState
_TEXT	ENDS
; Function compile flags: /Ogtp
; File C:\Program Files (x86)\Microsoft Visual Studio\2019\Community\VC\Tools\MSVC\14.29.30133\atlmfc\include\afxwin2.inl
;	COMDAT ?BeginModalState@CWnd@@UAEXXZ
_TEXT	SEGMENT
?BeginModalState@CWnd@@UAEXXZ PROC			; CWnd::BeginModalState, COMDAT
; _this$ = ecx

; 565  : 	{ ::EnableWindow(m_hWnd, FALSE); }

  00000	6a 00		 push	 0
  00002	ff 71 20	 push	 DWORD PTR [ecx+32]
  00005	ff 15 00 00 00
	00		 call	 DWORD PTR __imp__EnableWindow@8
  0000b	c3		 ret	 0
?BeginModalState@CWnd@@UAEXXZ ENDP			; CWnd::BeginModalState
_TEXT	ENDS
; Function compile flags: /Ogtp
; File C:\Program Files (x86)\Microsoft Visual Studio\2019\Community\VC\Tools\MSVC\14.29.30133\atlmfc\include\afxwin2.inl
;	COMDAT ?DoDataExchange@CWnd@@MAEXPAVCDataExchange@@@Z
_TEXT	SEGMENT
___formal$ = 8						; size = 4
?DoDataExchange@CWnd@@MAEXPAVCDataExchange@@@Z PROC	; CWnd::DoDataExchange, COMDAT
; _this$ = ecx

; 561  : 	{ } // default does nothing

  00000	c2 04 00	 ret	 4
?DoDataExchange@CWnd@@MAEXPAVCDataExchange@@@Z ENDP	; CWnd::DoDataExchange
_TEXT	ENDS
; Function compile flags: /Ogtp
; File C:\Program Files (x86)\Microsoft Visual Studio\2019\Community\VC\Tools\MSVC\14.29.30133\atlmfc\include\afx.inl
;	COMDAT ?Dump@CObject@@UBEXAAVCDumpContext@@@Z
_TEXT	SEGMENT
___formal$ = 8						; size = 4
?Dump@CObject@@UBEXAAVCDumpContext@@@Z PROC		; CObject::Dump, COMDAT
; _this$ = ecx

; 122  : 	{ /* no dumping in release builds */ }

  00000	c2 04 00	 ret	 4
?Dump@CObject@@UBEXAAVCDumpContext@@@Z ENDP		; CObject::Dump
_TEXT	ENDS
; Function compile flags: /Ogtp
; File C:\Program Files (x86)\Microsoft Visual Studio\2019\Community\VC\Tools\MSVC\14.29.30133\atlmfc\include\afx.inl
;	COMDAT ?AssertValid@CObject@@UBEXXZ
_TEXT	SEGMENT
?AssertValid@CObject@@UBEXXZ PROC			; CObject::AssertValid, COMDAT
; _this$ = ecx

; 120  : 	{ /* no asserts in release builds */ }

  00000	c2 00 00	 ret	 0
?AssertValid@CObject@@UBEXXZ ENDP			; CObject::AssertValid
_TEXT	ENDS
; Function compile flags: /Ogtp
; File C:\Program Files (x86)\Microsoft Visual Studio\2019\Community\VC\Tools\MSVC\14.29.30133\atlmfc\include\afx.inl
;	COMDAT ?Serialize@CObject@@UAEXAAVCArchive@@@Z
_TEXT	SEGMENT
___formal$ = 8						; size = 4
?Serialize@CObject@@UAEXAAVCArchive@@@Z PROC		; CObject::Serialize, COMDAT
; _this$ = ecx

; 106  : 	{ /* CObject does not serialize anything by default */ }

  00000	c2 04 00	 ret	 4
?Serialize@CObject@@UAEXAAVCArchive@@@Z ENDP		; CObject::Serialize
_TEXT	ENDS
; Function compile flags: /Ogtp
; File D:\git\src\IBK\IBK_DRFN\ProjSrc\SrcChartEx\ChartOCX\ChartObject\ScaleSet.cpp
;	COMDAT ?__empty_global_delete@@YAXPAXI@Z
_TEXT	SEGMENT
___formal$ = 8						; size = 4
___formal$ = 12						; size = 4
?__empty_global_delete@@YAXPAXI@Z PROC			; __empty_global_delete, COMDAT

  00000	c2 00 00	 ret	 0
?__empty_global_delete@@YAXPAXI@Z ENDP			; __empty_global_delete
_TEXT	ENDS
; Function compile flags: /Ogtp
; File D:\git\src\IBK\IBK_DRFN\ProjSrc\SrcChartEx\ChartOCX\ChartObject\ScaleSet.cpp
;	COMDAT ?__empty_global_delete@@YAXPAX@Z
_TEXT	SEGMENT
___formal$ = 8						; size = 4
?__empty_global_delete@@YAXPAX@Z PROC			; __empty_global_delete, COMDAT

  00000	c2 00 00	 ret	 0
?__empty_global_delete@@YAXPAX@Z ENDP			; __empty_global_delete
_TEXT	ENDS
END
