; Listing generated by Microsoft (R) Optimizing Compiler Version 19.29.30145.0 

	TITLE	D:\git\src\IBK\IBK_DRFN\#DRfn-CS\_Obj\ChartObject\SubGraph.obj
	.686P
	.XMM
	include listing.inc
	.model	flat

INCLUDELIB MSVCRT
INCLUDELIB OLDNAMES

CONST	SEGMENT
?_Fake_alloc@std@@3U_Fake_allocator@1@B	ORG $+1		; std::_Fake_alloc
CONST	ENDS
PUBLIC	?__empty_global_delete@@YAXPAX@Z		; __empty_global_delete
PUBLIC	?__empty_global_delete@@YAXPAXI@Z		; __empty_global_delete
PUBLIC	??1CObject@@UAE@XZ				; CObject::~CObject
PUBLIC	??3CObject@@SGXPAX@Z				; CObject::operator delete
PUBLIC	?Serialize@CObject@@UAEXAAVCArchive@@@Z		; CObject::Serialize
PUBLIC	?AssertValid@CObject@@UBEXXZ			; CObject::AssertValid
PUBLIC	?Dump@CObject@@UBEXAAVCDumpContext@@@Z		; CObject::Dump
PUBLIC	??0?$CList@PAVCPacket@@PAV1@@@QAE@H@Z		; CList<CPacket *,CPacket *>::CList<CPacket *,CPacket *>
PUBLIC	?AddTail@?$CList@PAVCPacket@@PAV1@@@QAEPAU__POSITION@@PAVCPacket@@@Z ; CList<CPacket *,CPacket *>::AddTail
PUBLIC	?RemoveAll@?$CList@PAVCPacket@@PAV1@@@QAEXXZ	; CList<CPacket *,CPacket *>::RemoveAll
PUBLIC	?NewNode@?$CList@PAVCPacket@@PAV1@@@IAEPAUCNode@1@PAU21@0@Z ; CList<CPacket *,CPacket *>::NewNode
PUBLIC	??1?$CList@PAVCPacket@@PAV1@@@UAE@XZ		; CList<CPacket *,CPacket *>::~CList<CPacket *,CPacket *>
PUBLIC	?Serialize@?$CList@PAVCPacket@@PAV1@@@UAEXAAVCArchive@@@Z ; CList<CPacket *,CPacket *>::Serialize
PUBLIC	??_G?$CList@PAVCPacket@@PAV1@@@UAEPAXI@Z	; CList<CPacket *,CPacket *>::`scalar deleting destructor'
PUBLIC	??1CSubGraphPacketList@@QAE@XZ			; CSubGraphPacketList::~CSubGraphPacketList
PUBLIC	?MakeSubGraph@CSubGraph@@SAPAV1@PAVCMainBlockBaseData@@PAVCSubGraphList@@ABVCSubGraphData@@@Z ; CSubGraph::MakeSubGraph
PUBLIC	?MakeSubGraph@CSubGraph@@SAPAV1@PAVCMainBlockBaseData@@PAVCSubGraphList@@W4GRAPHTYPE@CGraphBaseData@@ABVCGraphStyle@@ABVCGraphDrawStyle@@ABV?$CStringT@DV?$StrTraitMFC_DLL@DV?$ChTraitsCRT@D@ATL@@@@@ATL@@5_NABVCGraphColor@@ABVCPenThickness@@ABVCGraphPaintStyle@@ABVCGraphBaseLineStyle@@@Z ; CSubGraph::MakeSubGraph
PUBLIC	?Delete@CSubGraph@@SAXPAV1@@Z			; CSubGraph::Delete
PUBLIC	??0CSubGraph@@QAE@PAVCMainBlockBaseData@@PAVCSubGraphList@@ABVCSubGraphData@@@Z ; CSubGraph::CSubGraph
PUBLIC	??0CSubGraph@@QAE@PAVCMainBlockBaseData@@PAVCSubGraphList@@W4GRAPHTYPE@CGraphBaseData@@ABVCGraphStyle@@ABVCGraphDrawStyle@@ABV?$CStringT@DV?$StrTraitMFC_DLL@DV?$ChTraitsCRT@D@ATL@@@@@ATL@@5_NABVCGraphColor@@ABVCPenThickness@@ABVCGraphPaintStyle@@ABVCGraphBaseLineStyle@@@Z ; CSubGraph::CSubGraph
PUBLIC	?Delete@CSubGraph@@QAEXXZ			; CSubGraph::Delete
PUBLIC	?DeleteAllPackets@CSubGraph@@QAEX_N@Z		; CSubGraph::DeleteAllPackets
PUBLIC	?ClearAllPackets@CSubGraph@@QAEX_N@Z		; CSubGraph::ClearAllPackets
PUBLIC	?SetSubGraphList@CSubGraph@@QAEXPAVCSubGraphList@@@Z ; CSubGraph::SetSubGraphList
PUBLIC	?SetSubGraphData@CSubGraph@@QAEXABVCSubGraphData@@_N@Z ; CSubGraph::SetSubGraphData
PUBLIC	?SetHiding@CSubGraph@@QAE_N_N@Z			; CSubGraph::SetHiding
PUBLIC	?GetHiding@CSubGraph@@QBEHXZ			; CSubGraph::GetHiding
PUBLIC	?SetMainBlockBaseData@CSubGraph@@QAEXPAVCMainBlockBaseData@@@Z ; CSubGraph::SetMainBlockBaseData
PUBLIC	?GetGraph@CSubGraph@@QBEPAVCGraphImp@@XZ	; CSubGraph::GetGraph
PUBLIC	?GetSubGraphList@CSubGraph@@QBEPAVCSubGraphList@@XZ ; CSubGraph::GetSubGraphList
PUBLIC	?GetSubGraphData@CSubGraph@@QBEABVCSubGraphData@@XZ ; CSubGraph::GetSubGraphData
PUBLIC	?GetSubGraphData@CSubGraph@@QAEAAVCSubGraphData@@XZ ; CSubGraph::GetSubGraphData
PUBLIC	?GetSubGraphData_PointerType@CSubGraph@@QAEPAVCSubGraphData@@XZ ; CSubGraph::GetSubGraphData_PointerType
PUBLIC	?GetSubGraphPacketList@CSubGraph@@QAEAAVCSubGraphPacketList@@XZ ; CSubGraph::GetSubGraphPacketList
PUBLIC	?GetSubGraphStringData@CSubGraph@@QBEXAAV?$CStringT@DV?$StrTraitMFC_DLL@DV?$ChTraitsCRT@D@ATL@@@@@ATL@@@Z ; CSubGraph::GetSubGraphStringData
PUBLIC	?GetSubGraphTitleRegion@CSubGraph@@QBE?AVCRect@@PAVCDC@@ABV2@AAH@Z ; CSubGraph::GetSubGraphTitleRegion
PUBLIC	?GetSubGraphTitleRegion@CSubGraph@@QBE?AVCRect@@PAVCDC@@ABV2@AAH2@Z ; CSubGraph::GetSubGraphTitleRegion
PUBLIC	?GetSubGraphViewDataList@CSubGraph@@QBEXABV?$CStringT@DV?$StrTraitMFC_DLL@DV?$ChTraitsCRT@D@ATL@@@@@ATL@@0AAVCSubGraphViewDataList@@@Z ; CSubGraph::GetSubGraphViewDataList
PUBLIC	?GetHeadPacketAndDataType@CSubGraph@@QBE_NAAPAVCPacket@@AAN@Z ; CSubGraph::GetHeadPacketAndDataType
PUBLIC	?GetSubGraphPacketList@CSubGraph@@QBE_NAAV?$CList@PAVCPacket@@PAV1@@@@Z ; CSubGraph::GetSubGraphPacketList
PUBLIC	?PointInSubGraph@CSubGraph@@QBEHABVCPoint@@@Z	; CSubGraph::PointInSubGraph
PUBLIC	?IsExistenceSamePacketInGraph@CSubGraph@@QBE_NPAVCGraphImp@@@Z ; CSubGraph::IsExistenceSamePacketInGraph
PUBLIC	?GetVertScaleRegionWidth@CSubGraph@@QAEHPAVCDC@@PAVCVertScaleMaxWidthCalculatorData@@@Z ; CSubGraph::GetVertScaleRegionWidth
PUBLIC	?GetDisplayDataMinMax@CSubGraph@@QAE_NPAVCVertDisplayDataMinMaxInputData@@AAVCDisplayDataMinMax@@H@Z ; CSubGraph::GetDisplayDataMinMax
PUBLIC	?DrawSubGraphTitle@CSubGraph@@QAE_NPAVCDC@@PAVCDrawingGraphData@@AAH2ABH@Z ; CSubGraph::DrawSubGraphTitle
PUBLIC	?DrawSubGraph@CSubGraph@@QAE_NPAVCDC@@PAVCDrawingGraphData@@@Z ; CSubGraph::DrawSubGraph
PUBLIC	?DrawGripedSubGraphTitle@CSubGraph@@QAEXPAVCDC@@@Z ; CSubGraph::DrawGripedSubGraphTitle
PUBLIC	?DrawGrip@CSubGraph@@QAE_NPAVCDC@@H@Z		; CSubGraph::DrawGrip
PUBLIC	?ResetMaxVerticalScaleWidth@CSubGraph@@QAEXXZ	; CSubGraph::ResetMaxVerticalScaleWidth
PUBLIC	?CalculateGraph@CSubGraph@@AAEXXZ		; CSubGraph::CalculateGraph
PUBLIC	?IsDisplayDataMinMax@CSubGraph@@ABE_NXZ		; CSubGraph::IsDisplayDataMinMax
PUBLIC	?IsAddTail_SubGraphViewData@CSubGraph@@ABE_NABV?$CStringT@DV?$StrTraitMFC_DLL@DV?$ChTraitsCRT@D@ATL@@@@@ATL@@AAVCSubGraphViewDataList@@@Z ; CSubGraph::IsAddTail_SubGraphViewData
PUBLIC	?IsPointInSubGraph@CSubGraph@@ABE_NABVCPoint@@@Z ; CSubGraph::IsPointInSubGraph
PUBLIC	?GetSelectSubGraphData@CSubGraph@@ABE_NAAVCSelectSubGraphData@@@Z ; CSubGraph::GetSelectSubGraphData
PUBLIC	?GetSelectSubGraphData_InVertScaleGroupData@CSubGraph@@ABE_NAAVCSelectSubGraphData@@@Z ; CSubGraph::GetSelectSubGraphData_InVertScaleGroupData
PUBLIC	?GetSelectSubGraphData_InBlock@CSubGraph@@ABE_NAAVCSelectSubGraphData@@@Z ; CSubGraph::GetSelectSubGraphData_InBlock
PUBLIC	?GetSelectSubGraphData_Etc@CSubGraph@@ABE_NAAVCSelectSubGraphData@@@Z ; CSubGraph::GetSelectSubGraphData_Etc
PUBLIC	?GetSubGraphViewData@CSubGraph@@ABE?AVCSubGraphViewData@@ABV?$CStringT@DV?$StrTraitMFC_DLL@DV?$ChTraitsCRT@D@ATL@@@@@ATL@@0@Z ; CSubGraph::GetSubGraphViewData
PUBLIC	?GetBlock@CSubGraph@@ABEPAVCBlockImp@@XZ	; CSubGraph::GetBlock
PUBLIC	?GetVertScaleGroupList@CSubGraph@@ABEPAVCVertScaleGroupList@@XZ ; CSubGraph::GetVertScaleGroupList
PUBLIC	?GetVertScaleGroup@CSubGraph@@ABEPAVCVertScaleGroup@@PAVCGraphImp@@@Z ; CSubGraph::GetVertScaleGroup
PUBLIC	??_GCSubGraph@@UAEPAXI@Z			; CSubGraph::`scalar deleting destructor'
PUBLIC	??1CSubGraphViewData@@QAE@XZ			; CSubGraphViewData::~CSubGraphViewData
PUBLIC	??0CSubGraphViewData@@QAE@ABV0@@Z		; CSubGraphViewData::CSubGraphViewData
PUBLIC	??1CSelectSubGraphData@@QAE@XZ			; CSelectSubGraphData::~CSelectSubGraphData
PUBLIC	??$SerializeElements@PAVCPacket@@@@YGXAAVCArchive@@PAPAVCPacket@@H@Z ; SerializeElements<CPacket *>
PUBLIC	??_R0?AVCObject@@@8				; CObject `RTTI Type Descriptor'
PUBLIC	??_R3CObject@@8					; CObject::`RTTI Class Hierarchy Descriptor'
PUBLIC	??_R2CObject@@8					; CObject::`RTTI Base Class Array'
PUBLIC	??_R1A@?0A@EA@CObject@@8			; CObject::`RTTI Base Class Descriptor at (0,-1,0,64)'
PUBLIC	??_7?$CList@PAVCPacket@@PAV1@@@6B@		; CList<CPacket *,CPacket *>::`vftable'
PUBLIC	??_7CSubGraph@@6B@				; CSubGraph::`vftable'
PUBLIC	??_R4CSubGraph@@6B@				; CSubGraph::`RTTI Complete Object Locator'
PUBLIC	??_R0?AVCSubGraph@@@8				; CSubGraph `RTTI Type Descriptor'
PUBLIC	??_R3CSubGraph@@8				; CSubGraph::`RTTI Class Hierarchy Descriptor'
PUBLIC	??_R2CSubGraph@@8				; CSubGraph::`RTTI Base Class Array'
PUBLIC	??_R1A@?0A@EA@CSubGraph@@8			; CSubGraph::`RTTI Base Class Descriptor at (0,-1,0,64)'
PUBLIC	??_R4?$CList@PAVCPacket@@PAV1@@@6B@		; CList<CPacket *,CPacket *>::`RTTI Complete Object Locator'
PUBLIC	??_R0?AV?$CList@PAVCPacket@@PAV1@@@@8		; CList<CPacket *,CPacket *> `RTTI Type Descriptor'
PUBLIC	??_R3?$CList@PAVCPacket@@PAV1@@@8		; CList<CPacket *,CPacket *>::`RTTI Class Hierarchy Descriptor'
PUBLIC	??_R2?$CList@PAVCPacket@@PAV1@@@8		; CList<CPacket *,CPacket *>::`RTTI Base Class Array'
PUBLIC	??_R1A@?0A@EA@?$CList@PAVCPacket@@PAV1@@@8	; CList<CPacket *,CPacket *>::`RTTI Base Class Descriptor at (0,-1,0,64)'
EXTRN	??2@YAPAXI@Z:PROC				; operator new
EXTRN	??3@YAXPAX@Z:PROC				; operator delete
EXTRN	?__global_delete@@YAXPAXI@Z:PROC		; __global_delete
EXTRN	___std_terminate:PROC
EXTRN	__imp__Rectangle@20:PROC
EXTRN	__imp__InflateRect@12:PROC
EXTRN	__imp__OffsetRect@12:PROC
EXTRN	__imp__PtInRect@12:PROC
EXTRN	?AfxThrowInvalidArgException@@YGXXZ:PROC	; AfxThrowInvalidArgException
EXTRN	?AfxThrowArchiveException@@YGXHPBD@Z:PROC	; AfxThrowArchiveException
EXTRN	?GetRuntimeClass@CObject@@UBEPAUCRuntimeClass@@XZ:PROC ; CObject::GetRuntimeClass
EXTRN	__imp_?Concatenate@?$CSimpleStringT@D$00@ATL@@KAXAAV12@PBDH1H@Z:PROC
EXTRN	__imp_??0?$CStringT@DV?$StrTraitMFC_DLL@DV?$ChTraitsCRT@D@ATL@@@@@ATL@@QAE@XZ:PROC
EXTRN	__imp_??0?$CStringT@DV?$StrTraitMFC_DLL@DV?$ChTraitsCRT@D@ATL@@@@@ATL@@QAE@PAUIAtlStringMgr@1@@Z:PROC
EXTRN	__imp_??0?$CStringT@DV?$StrTraitMFC_DLL@DV?$ChTraitsCRT@D@ATL@@@@@ATL@@QAE@ABV01@@Z:PROC
EXTRN	__imp_??0?$CStringT@DV?$StrTraitMFC_DLL@DV?$ChTraitsCRT@D@ATL@@@@@ATL@@QAE@PBD@Z:PROC
EXTRN	__imp_??1?$CStringT@DV?$StrTraitMFC_DLL@DV?$ChTraitsCRT@D@ATL@@@@@ATL@@QAE@XZ:PROC
EXTRN	__imp_??4?$CStringT@DV?$StrTraitMFC_DLL@DV?$ChTraitsCRT@D@ATL@@@@@ATL@@QAEAAV01@ABV01@@Z:PROC
EXTRN	__imp_??Y?$CStringT@DV?$StrTraitMFC_DLL@DV?$ChTraitsCRT@D@ATL@@@@@ATL@@QAEAAV01@ABV?$CSimpleStringT@D$00@1@@Z:PROC
EXTRN	__imp_?GetManager@?$CStringT@DV?$StrTraitMFC_DLL@DV?$ChTraitsCRT@D@ATL@@@@@ATL@@QBEPAUIAtlStringMgr@2@XZ:PROC
EXTRN	__imp_?Compare@?$CStringT@DV?$StrTraitMFC_DLL@DV?$ChTraitsCRT@D@ATL@@@@@ATL@@QBEHPBD@Z:PROC
EXTRN	?Read@CArchive@@QAEIPAXI@Z:PROC			; CArchive::Read
EXTRN	?Write@CArchive@@QAEXPBXI@Z:PROC		; CArchive::Write
EXTRN	?ReadCount@CArchive@@QAEKXZ:PROC		; CArchive::ReadCount
EXTRN	?WriteCount@CArchive@@QAEXK@Z:PROC		; CArchive::WriteCount
EXTRN	?Create@CPlex@@SGPAU1@AAPAU1@II@Z:PROC		; CPlex::Create
EXTRN	?FreeDataChain@CPlex@@QAEXXZ:PROC		; CPlex::FreeDataChain
EXTRN	?SelectObject@CDC@@QAEPAVCBrush@@PAV2@@Z:PROC	; CDC::SelectObject
EXTRN	?SetROP2@CDC@@QAEHH@Z:PROC			; CDC::SetROP2
EXTRN	?MoveTo@CDC@@QAE?AVCPoint@@HH@Z:PROC		; CDC::MoveTo
EXTRN	?LineTo@CDC@@QAEHHH@Z:PROC			; CDC::LineTo
EXTRN	__imp_?DrawGraphTitle@CGraphDrawer@@QAE_NPAVCDC@@ABVCDrawingGraphData@@ABVCSubGraphData@@AAH3@Z:PROC
EXTRN	__imp_?DrawGraph@CGraphDrawer@@QAE_NPAVCDC@@ABVCDrawingGraphData@@ABVCSubGraphData@@ABV?$CStringT@DV?$StrTraitMFC_DLL@DV?$ChTraitsCRT@D@ATL@@@@@ATL@@PAVCXScaleManager@@@Z:PROC
EXTRN	__imp_?DrawGrip@CGraphDrawer@@QAE_NPAVCDC@@HABVCSelectSubGraphData@@@Z:PROC
EXTRN	__imp_?PointInSubGraph@CGraphDrawer@@QAEHABVCPoint@@ABVCSelectSubGraphData@@PAVCIndicatorList@@@Z:PROC
EXTRN	__imp_?GetGraphName@CGraphData@@QBE?AV?$CStringT@DV?$StrTraitMFC_DLL@DV?$ChTraitsCRT@D@ATL@@@@@ATL@@XZ:PROC
EXTRN	__imp_?GetIndicatorName@CGraphData@@QBE?AV?$CStringT@DV?$StrTraitMFC_DLL@DV?$ChTraitsCRT@D@ATL@@@@@ATL@@XZ:PROC
EXTRN	__imp_?SetTitleEndPosition@CSubGraphDataBase@@QAEXHH@Z:PROC
EXTRN	__imp_?SetHiding@CSubGraphDataBase@@QAEX_N@Z:PROC
EXTRN	__imp_?ChangeKeyPart@CSubGraphDataBase@@QAEXABV1@@Z:PROC
EXTRN	__imp_?SetSubGraphIndex@CSubGraphDataBase@@QAEXH@Z:PROC
EXTRN	__imp_?GetTitleEndPosition@CSubGraphDataBase@@QBEHXZ:PROC
EXTRN	__imp_?GetTitleEndLine@CSubGraphDataBase@@QBEHXZ:PROC
EXTRN	__imp_?GetType@CSubGraphDataBase@@QBE?AW4GRAPHTYPE@CGraphBaseData@@XZ:PROC
EXTRN	__imp_?GetStyle@CSubGraphDataBase@@QBE?AVCGraphStyle@@XZ:PROC
EXTRN	__imp_?GetDrawStyle@CSubGraphDataBase@@QBE?AVCGraphDrawStyle@@XZ:PROC
EXTRN	__imp_?GetName@CSubGraphDataBase@@QBE?AV?$CStringT@DV?$StrTraitMFC_DLL@DV?$ChTraitsCRT@D@ATL@@@@@ATL@@XZ:PROC
EXTRN	__imp_?GetTitle@CSubGraphDataBase@@QBE?AV?$CStringT@DV?$StrTraitMFC_DLL@DV?$ChTraitsCRT@D@ATL@@@@@ATL@@XZ:PROC
EXTRN	__imp_?GetStringData@CSubGraphDataBase@@QBEXAAV?$CStringT@DV?$StrTraitMFC_DLL@DV?$ChTraitsCRT@D@ATL@@@@@ATL@@@Z:PROC
EXTRN	__imp_??0CSubGraphData@@QAE@W4GRAPHTYPE@CGraphBaseData@@ABVCGraphStyle@@ABVCGraphDrawStyle@@ABV?$CStringT@DV?$StrTraitMFC_DLL@DV?$ChTraitsCRT@D@ATL@@@@@ATL@@3_NABVCGraphColor@@ABVCPenThickness@@ABVCGraphPaintStyle@@ABVCGraphBaseLineStyle@@@Z:PROC
EXTRN	__imp_??0CSubGraphData@@QAE@ABV0@@Z:PROC
EXTRN	__imp_??1CSubGraphData@@QAE@XZ:PROC
EXTRN	__imp_?GetHiding@CSubGraphData@@ABE_NXZ:PROC
EXTRN	__imp_??4CSubGraphData@@QAEAAV0@ABV0@@Z:PROC
EXTRN	?RemoveAll@CSubGraphPacketList@@QAEXXZ:PROC	; CSubGraphPacketList::RemoveAll
EXTRN	?GetHeadPosition@CSubGraphPacketList@@QBEPAU__POSITION@@XZ:PROC ; CSubGraphPacketList::GetHeadPosition
EXTRN	?GetHeadPosition@CSubGraphPacketList@@QAEPAU__POSITION@@XZ:PROC ; CSubGraphPacketList::GetHeadPosition
EXTRN	?GetHeadPacket@CSubGraphPacketList@@QBEPAVCPacket@@XZ:PROC ; CSubGraphPacketList::GetHeadPacket
EXTRN	?GetHeadPacket@CSubGraphPacketList@@QAEPAVCPacket@@XZ:PROC ; CSubGraphPacketList::GetHeadPacket
EXTRN	?GetNext@CSubGraphPacketList@@QBEPAVCPacket@@AAPAU__POSITION@@@Z:PROC ; CSubGraphPacketList::GetNext
EXTRN	?GetNext@CSubGraphPacketList@@QAEPAVCPacket@@AAPAU__POSITION@@@Z:PROC ; CSubGraphPacketList::GetNext
EXTRN	??_E?$CList@PAVCPacket@@PAV1@@@UAEPAXI@Z:PROC	; CList<CPacket *,CPacket *>::`vector deleting destructor'
EXTRN	__imp_??4CDisplayDataMinMax@@QAEAAV0@ABV0@@Z:PROC
EXTRN	__imp_??0CDisplayDataMinMax@@QAE@XZ:PROC
EXTRN	??_ECSubGraph@@UAEPAXI@Z:PROC			; CSubGraph::`vector deleting destructor'
EXTRN	__imp_?GetName@CPacket@@QAE?AV?$CStringT@DV?$StrTraitMFC_DLL@DV?$ChTraitsCRT@D@ATL@@@@@ATL@@XZ:PROC
EXTRN	__imp_?GetScaleTypeFormatDouble@CPacket@@QAENXZ:PROC
EXTRN	__imp_?DeleteOrClearPacket@CPacketList@@QAE_NPAVCPacket@@_N1@Z:PROC
EXTRN	__imp_?GetIndicatorName@CIndicatorInfo@@QBE?AV?$CStringT@DV?$StrTraitMFC_DLL@DV?$ChTraitsCRT@D@ATL@@@@@ATL@@XZ:PROC
EXTRN	??0CSubGraphViewData@@QAE@W4GRAPHTYPE@CGraphBaseData@@ABVCGraphStyle@@ABV?$CStringT@DV?$StrTraitMFC_DLL@DV?$ChTraitsCRT@D@ATL@@@@@ATL@@22@Z:PROC ; CSubGraphViewData::CSubGraphViewData
EXTRN	?GetTitle@CSubGraphViewData@@QBE?AV?$CStringT@DV?$StrTraitMFC_DLL@DV?$ChTraitsCRT@D@ATL@@@@@ATL@@XZ:PROC ; CSubGraphViewData::GetTitle
EXTRN	?GetPacketNames@CSubGraphViewData@@QBE?AV?$CStringT@DV?$StrTraitMFC_DLL@DV?$ChTraitsCRT@D@ATL@@@@@ATL@@XZ:PROC ; CSubGraphViewData::GetPacketNames
EXTRN	?GetRQ@CSubGraphViewData@@QBE?AV?$CStringT@DV?$StrTraitMFC_DLL@DV?$ChTraitsCRT@D@ATL@@@@@ATL@@XZ:PROC ; CSubGraphViewData::GetRQ
EXTRN	?AddTail@CSubGraphViewDataList@@QAEXVCSubGraphViewData@@@Z:PROC ; CSubGraphViewDataList::AddTail
EXTRN	?GetAt@CSubGraphViewDataList@@QAEAAVCSubGraphViewData@@H@Z:PROC ; CSubGraphViewDataList::GetAt
EXTRN	?GetCount@CSubGraphViewDataList@@QBEHXZ:PROC	; CSubGraphViewDataList::GetCount
EXTRN	?GetDataStartInBlock@CDisplayAttributes@@QBEHXZ:PROC ; CDisplayAttributes::GetDataStartInBlock
EXTRN	?GetDataEndInBlock@CDisplayAttributes@@QBEHXZ:PROC ; CDisplayAttributes::GetDataEndInBlock
EXTRN	?GetDrawingRegion@CGraphRegions@@QBE?AVCRect@@W4GRAPHTYPE@CGraphBaseData@@ABVCGraphStyle@@@Z:PROC ; CGraphRegions::GetDrawingRegion
EXTRN	?GetGraphRegions@CDrawingRegion@@QAEAAVCGraphRegions@@XZ:PROC ; CDrawingRegion::GetGraphRegions
EXTRN	?SetSubGraphPacketList@CDrawingGraphData@@QAEXPAVCSubGraphPacketList@@@Z:PROC ; CDrawingGraphData::SetSubGraphPacketList
EXTRN	??0CSelectSubGraphData@@QAE@XZ:PROC		; CSelectSubGraphData::CSelectSubGraphData
EXTRN	?SetDrawingOrderType@CSelectSubGraphData@@QAEXW4DRAWINGORDER@CDrawingOption@@@Z:PROC ; CSelectSubGraphData::SetDrawingOrderType
EXTRN	?SetGraphName@CSelectSubGraphData@@QAEXABV?$CStringT@DV?$StrTraitMFC_DLL@DV?$ChTraitsCRT@D@ATL@@@@@ATL@@@Z:PROC ; CSelectSubGraphData::SetGraphName
EXTRN	?SetVertScaleLogType@CSelectSubGraphData@@QAEX_N@Z:PROC ; CSelectSubGraphData::SetVertScaleLogType
EXTRN	?SetVertScaleInvertType@CSelectSubGraphData@@QAEX_N@Z:PROC ; CSelectSubGraphData::SetVertScaleInvertType
EXTRN	?SetGraphRegions@CSelectSubGraphData@@QAEXABVCGraphRegions@@@Z:PROC ; CSelectSubGraphData::SetGraphRegions
EXTRN	?SetSubGraphType@CSelectSubGraphData@@QAEXW4GRAPHTYPE@CGraphBaseData@@@Z:PROC ; CSelectSubGraphData::SetSubGraphType
EXTRN	?SetSubGraphStyle@CSelectSubGraphData@@QAEXABVCGraphStyle@@@Z:PROC ; CSelectSubGraphData::SetSubGraphStyle
EXTRN	?SetSubGraphDrawStyle@CSelectSubGraphData@@QAEXABVCGraphDrawStyle@@@Z:PROC ; CSelectSubGraphData::SetSubGraphDrawStyle
EXTRN	?SetDisplayDataHorzMinMax@CSelectSubGraphData@@QAEXABVCDisplayDataMinMax@@@Z:PROC ; CSelectSubGraphData::SetDisplayDataHorzMinMax
EXTRN	?SetDisplayDataVertMinMax@CSelectSubGraphData@@QAEXABVCDisplayDataMinMax@@@Z:PROC ; CSelectSubGraphData::SetDisplayDataVertMinMax
EXTRN	?SetDisplayAttributes@CSelectSubGraphData@@QAEXABVCDisplayAttributes@@@Z:PROC ; CSelectSubGraphData::SetDisplayAttributes
EXTRN	?SetSubGraphPacketList@CSelectSubGraphData@@QAEXPAVCSubGraphPacketList@@@Z:PROC ; CSelectSubGraphData::SetSubGraphPacketList
EXTRN	?SetIndicatorInfo@CSelectSubGraphData@@QAEXPAVCIndicatorInfo@@@Z:PROC ; CSelectSubGraphData::SetIndicatorInfo
EXTRN	?SetXScaleManager@CSelectSubGraphData@@QAEXPAVCXScaleManager@@@Z:PROC ; CSelectSubGraphData::SetXScaleManager
EXTRN	?SetRQ@CSelectSubGraphData@@QAEXV?$CStringT@DV?$StrTraitMFC_DLL@DV?$ChTraitsCRT@D@ATL@@@@@ATL@@@Z:PROC ; CSelectSubGraphData::SetRQ
EXTRN	?GetGraphRegions@CSelectSubGraphData@@QBE?AVCGraphRegions@@XZ:PROC ; CSelectSubGraphData::GetGraphRegions
EXTRN	?SelectClipRegion@CDataConversion@@SAXPAVCDC@@ABVCRect@@@Z:PROC ; CDataConversion::SelectClipRegion
EXTRN	?SelectClipRegion@CDataConversion@@SAXPAVCDC@@@Z:PROC ; CDataConversion::SelectClipRegion
EXTRN	?GetMainBlockImpl@CMainAttributes@@QBEPAVCMainBlockImp@@XZ:PROC ; CMainAttributes::GetMainBlockImpl
EXTRN	?GetIChartCtrl@CMainAttributes@@QBEPAUIChartCtrl@@XZ:PROC ; CMainAttributes::GetIChartCtrl
EXTRN	?GetXScaleManager@CMainAttributes@@QBEPAVCXScaleManager@@XZ:PROC ; CMainAttributes::GetXScaleManager
EXTRN	?GetChartMode@CMainAttributes@@QBE?AW4CHART_MODE@CChartInfo@@XZ:PROC ; CMainAttributes::GetChartMode
EXTRN	?GetMinVertScaleRegionWidth@CScaleAttributes@@QBEHXZ:PROC ; CScaleAttributes::GetMinVertScaleRegionWidth
EXTRN	?GetDrawingOrderType@CViewAttributes@@QAEAAW4DRAWINGORDER@CDrawingOption@@XZ:PROC ; CViewAttributes::GetDrawingOrderType
EXTRN	?GetMainAttributes@CMainBlockBaseData@@QAEAAVCMainAttributes@@XZ:PROC ; CMainBlockBaseData::GetMainAttributes
EXTRN	?GetScaleAttributes@CMainBlockBaseData@@QAEAAVCScaleAttributes@@XZ:PROC ; CMainBlockBaseData::GetScaleAttributes
EXTRN	?GetViewAttributes@CMainBlockBaseData@@QAEAAVCViewAttributes@@XZ:PROC ; CMainBlockBaseData::GetViewAttributes
EXTRN	?GetParent_Handle@CMainBlockBaseData@@QBEPAUHWND__@@XZ:PROC ; CMainBlockBaseData::GetParent_Handle
EXTRN	?GetPacketList@CMainBlockBaseData@@QBEPAVCPacketList@@XZ:PROC ; CMainBlockBaseData::GetPacketList
EXTRN	?GetDisplayAttributes@CMainBlockBaseData@@QBE?AVCDisplayAttributes@@XZ:PROC ; CMainBlockBaseData::GetDisplayAttributes
EXTRN	?GetVertScaleLogType@CBlockData@@QAEAA_NXZ:PROC	; CBlockData::GetVertScaleLogType
EXTRN	?SetSubGraphData@CVertDisplayDataMinMaxInputData@@QAEXPAVCSubGraphData@@@Z:PROC ; CVertDisplayDataMinMaxInputData::SetSubGraphData
EXTRN	?SetSubGraphPacketList@CVertDisplayDataMinMaxInputData@@QAEXPAVCSubGraphPacketList@@@Z:PROC ; CVertDisplayDataMinMaxInputData::SetSubGraphPacketList
EXTRN	?GetDisplayAttributes@CVertDisplayDataMinMaxInputData@@QBE?AVCDisplayAttributes@@XZ:PROC ; CVertDisplayDataMinMaxInputData::GetDisplayAttributes
EXTRN	?SetDataStartEndInBlock@CVertDisplayDataMinMaxInputData@@QAEXHH@Z:PROC ; CVertDisplayDataMinMaxInputData::SetDataStartEndInBlock
EXTRN	?SetSubGraphName@CVertScaleMaxWidthCalculatorData@@QAEXABV?$CStringT@DV?$StrTraitMFC_DLL@DV?$ChTraitsCRT@D@ATL@@@@@ATL@@@Z:PROC ; CVertScaleMaxWidthCalculatorData::SetSubGraphName
EXTRN	?SetSubGraphPacketList@CVertScaleMaxWidthCalculatorData@@QAEXPAVCSubGraphPacketList@@@Z:PROC ; CVertScaleMaxWidthCalculatorData::SetSubGraphPacketList
EXTRN	?SetSubGraphDisplayMinMax@CVertScaleMaxWidthCalculatorData@@QAEXABVCDisplayDataMinMax@@@Z:PROC ; CVertScaleMaxWidthCalculatorData::SetSubGraphDisplayMinMax
EXTRN	?GetViewVertMinMax@CViewMinMaxCalculator@@QAE_NABVCVertDisplayDataMinMaxInputData@@AAVCDisplayDataMinMax@@HH@Z:PROC ; CViewMinMaxCalculator::GetViewVertMinMax
EXTRN	?GetMaxVertScaleTextSize@CTextSizeCalculator@@QBE?AVCSize@@PAVCDC@@ABVCVertScaleMaxWidthCalculatorData@@@Z:PROC ; CTextSizeCalculator::GetMaxVertScaleTextSize
EXTRN	?GetBlock@CVertScaleGroupList@@QBEPAVCBlockImp@@XZ:PROC ; CVertScaleGroupList::GetBlock
EXTRN	?GetDrawingRegion@CVertScaleGroupList@@QBE?AVCDrawingRegion@@XZ:PROC ; CVertScaleGroupList::GetDrawingRegion
EXTRN	?GetGraphRegions@CVertScaleGroupList@@QBE?AVCGraphRegions@@XZ:PROC ; CVertScaleGroupList::GetGraphRegions
EXTRN	?GetSubGraphTitleRegion@CVertScaleGroupList@@QBE?AVCRect@@PAVCDC@@PBVCSubGraph@@@Z:PROC ; CVertScaleGroupList::GetSubGraphTitleRegion
EXTRN	?SetActivate@CVertScaleGroupList@@QAEXPAVCVertScaleGroup@@@Z:PROC ; CVertScaleGroupList::SetActivate
EXTRN	?GetBlockData@CBlockImp@@QAEAAVCBlockData@@XZ:PROC ; CBlockImp::GetBlockData
EXTRN	?GetVertScaleGroupList@CBlockImp@@QAEAAVCVertScaleGroupList@@XZ:PROC ; CBlockImp::GetVertScaleGroupList
EXTRN	?GetViewHorzMinMax@CBlockImp@@QAE?AVCDisplayDataMinMax@@XZ:PROC ; CBlockImp::GetViewHorzMinMax
EXTRN	?GetVertScaleGroupList@CVertScaleGroup@@QBEPAVCVertScaleGroupList@@XZ:PROC ; CVertScaleGroup::GetVertScaleGroupList
EXTRN	?GetDisplayDataMinMax@CVertScaleGroup@@QBE?AVCDisplayDataMinMax@@XZ:PROC ; CVertScaleGroup::GetDisplayDataMinMax
EXTRN	?GetVertScaleInvertType@CVertScaleGroup@@QBE_NXZ:PROC ; CVertScaleGroup::GetVertScaleInvertType
EXTRN	?IsExistenceSamePacket@CSubGraphList@@QBE_NPAVCPacket@@@Z:PROC ; CSubGraphList::IsExistenceSamePacket
EXTRN	?GetGraph@CSubGraphList@@QBEPAVCGraphImp@@XZ:PROC ; CSubGraphList::GetGraph
EXTRN	?Initialize_AllPackets@CGraphImp@@QAEX_N@Z:PROC	; CGraphImp::Initialize_AllPackets
EXTRN	?GetMainBlock@CGraphImp@@QBEPAVCMainBlockImp@@XZ:PROC ; CGraphImp::GetMainBlock
EXTRN	?GetVertScaleGroupList@CGraphImp@@QBEPAVCVertScaleGroupList@@XZ:PROC ; CGraphImp::GetVertScaleGroupList
EXTRN	?GetVertScaleGroup@CGraphImp@@QBEPAVCVertScaleGroup@@XZ:PROC ; CGraphImp::GetVertScaleGroup
EXTRN	?GetGraphData@CGraphImp@@QAEAAVCGraphData@@XZ:PROC ; CGraphImp::GetGraphData
EXTRN	?GetSubGraphList@CGraphImp@@QAEAAVCSubGraphList@@XZ:PROC ; CGraphImp::GetSubGraphList
EXTRN	?GetIndicatorInfo@CGraphImp@@QAEPAVCIndicatorInfo@@XZ:PROC ; CGraphImp::GetIndicatorInfo
EXTRN	?GetPacketRQ@CGraphImp@@QAEPAVCPacketRQ@@XZ:PROC ; CGraphImp::GetPacketRQ
EXTRN	@__security_check_cookie@4:PROC
EXTRN	___CxxFrameHandler3:PROC
EXTRN	??_7type_info@@6B@:QWORD			; type_info::`vftable'
EXTRN	?g_iMetaTable@@3VIMetaTable@@A:BYTE		; g_iMetaTable
EXTRN	___security_cookie:DWORD
EXTRN	__fltused:DWORD
;	COMDAT ??_R1A@?0A@EA@?$CList@PAVCPacket@@PAV1@@@8
rdata$r	SEGMENT
??_R1A@?0A@EA@?$CList@PAVCPacket@@PAV1@@@8 DD FLAT:??_R0?AV?$CList@PAVCPacket@@PAV1@@@@8 ; CList<CPacket *,CPacket *>::`RTTI Base Class Descriptor at (0,-1,0,64)'
	DD	01H
	DD	00H
	DD	0ffffffffH
	DD	00H
	DD	040H
	DD	FLAT:??_R3?$CList@PAVCPacket@@PAV1@@@8
rdata$r	ENDS
;	COMDAT ??_R2?$CList@PAVCPacket@@PAV1@@@8
rdata$r	SEGMENT
??_R2?$CList@PAVCPacket@@PAV1@@@8 DD FLAT:??_R1A@?0A@EA@?$CList@PAVCPacket@@PAV1@@@8 ; CList<CPacket *,CPacket *>::`RTTI Base Class Array'
	DD	FLAT:??_R1A@?0A@EA@CObject@@8
rdata$r	ENDS
;	COMDAT ??_R3?$CList@PAVCPacket@@PAV1@@@8
rdata$r	SEGMENT
??_R3?$CList@PAVCPacket@@PAV1@@@8 DD 00H		; CList<CPacket *,CPacket *>::`RTTI Class Hierarchy Descriptor'
	DD	00H
	DD	02H
	DD	FLAT:??_R2?$CList@PAVCPacket@@PAV1@@@8
rdata$r	ENDS
;	COMDAT ??_R0?AV?$CList@PAVCPacket@@PAV1@@@@8
data$rs	SEGMENT
??_R0?AV?$CList@PAVCPacket@@PAV1@@@@8 DD FLAT:??_7type_info@@6B@ ; CList<CPacket *,CPacket *> `RTTI Type Descriptor'
	DD	00H
	DB	'.?AV?$CList@PAVCPacket@@PAV1@@@', 00H
data$rs	ENDS
;	COMDAT ??_R4?$CList@PAVCPacket@@PAV1@@@6B@
rdata$r	SEGMENT
??_R4?$CList@PAVCPacket@@PAV1@@@6B@ DD 00H		; CList<CPacket *,CPacket *>::`RTTI Complete Object Locator'
	DD	00H
	DD	00H
	DD	FLAT:??_R0?AV?$CList@PAVCPacket@@PAV1@@@@8
	DD	FLAT:??_R3?$CList@PAVCPacket@@PAV1@@@8
rdata$r	ENDS
;	COMDAT ??_R1A@?0A@EA@CSubGraph@@8
rdata$r	SEGMENT
??_R1A@?0A@EA@CSubGraph@@8 DD FLAT:??_R0?AVCSubGraph@@@8 ; CSubGraph::`RTTI Base Class Descriptor at (0,-1,0,64)'
	DD	01H
	DD	00H
	DD	0ffffffffH
	DD	00H
	DD	040H
	DD	FLAT:??_R3CSubGraph@@8
rdata$r	ENDS
;	COMDAT ??_R2CSubGraph@@8
rdata$r	SEGMENT
??_R2CSubGraph@@8 DD FLAT:??_R1A@?0A@EA@CSubGraph@@8	; CSubGraph::`RTTI Base Class Array'
	DD	FLAT:??_R1A@?0A@EA@CObject@@8
rdata$r	ENDS
;	COMDAT ??_R3CSubGraph@@8
rdata$r	SEGMENT
??_R3CSubGraph@@8 DD 00H				; CSubGraph::`RTTI Class Hierarchy Descriptor'
	DD	00H
	DD	02H
	DD	FLAT:??_R2CSubGraph@@8
rdata$r	ENDS
;	COMDAT ??_R0?AVCSubGraph@@@8
data$rs	SEGMENT
??_R0?AVCSubGraph@@@8 DD FLAT:??_7type_info@@6B@	; CSubGraph `RTTI Type Descriptor'
	DD	00H
	DB	'.?AVCSubGraph@@', 00H
data$rs	ENDS
;	COMDAT ??_R4CSubGraph@@6B@
rdata$r	SEGMENT
??_R4CSubGraph@@6B@ DD 00H				; CSubGraph::`RTTI Complete Object Locator'
	DD	00H
	DD	00H
	DD	FLAT:??_R0?AVCSubGraph@@@8
	DD	FLAT:??_R3CSubGraph@@8
rdata$r	ENDS
;	COMDAT ??_7CSubGraph@@6B@
CONST	SEGMENT
??_7CSubGraph@@6B@ DD FLAT:??_R4CSubGraph@@6B@		; CSubGraph::`vftable'
	DD	FLAT:?GetRuntimeClass@CObject@@UBEPAUCRuntimeClass@@XZ
	DD	FLAT:??_ECSubGraph@@UAEPAXI@Z
	DD	FLAT:?Serialize@CObject@@UAEXAAVCArchive@@@Z
	DD	FLAT:?AssertValid@CObject@@UBEXXZ
	DD	FLAT:?Dump@CObject@@UBEXAAVCDumpContext@@@Z
CONST	ENDS
;	COMDAT ??_7?$CList@PAVCPacket@@PAV1@@@6B@
CONST	SEGMENT
??_7?$CList@PAVCPacket@@PAV1@@@6B@ DD FLAT:??_R4?$CList@PAVCPacket@@PAV1@@@6B@ ; CList<CPacket *,CPacket *>::`vftable'
	DD	FLAT:?GetRuntimeClass@CObject@@UBEPAUCRuntimeClass@@XZ
	DD	FLAT:??_E?$CList@PAVCPacket@@PAV1@@@UAEPAXI@Z
	DD	FLAT:?Serialize@?$CList@PAVCPacket@@PAV1@@@UAEXAAVCArchive@@@Z
	DD	FLAT:?AssertValid@CObject@@UBEXXZ
	DD	FLAT:?Dump@CObject@@UBEXAAVCDumpContext@@@Z
CONST	ENDS
;	COMDAT ??_R1A@?0A@EA@CObject@@8
rdata$r	SEGMENT
??_R1A@?0A@EA@CObject@@8 DD FLAT:??_R0?AVCObject@@@8	; CObject::`RTTI Base Class Descriptor at (0,-1,0,64)'
	DD	00H
	DD	00H
	DD	0ffffffffH
	DD	00H
	DD	040H
	DD	FLAT:??_R3CObject@@8
rdata$r	ENDS
;	COMDAT ??_R2CObject@@8
rdata$r	SEGMENT
??_R2CObject@@8 DD FLAT:??_R1A@?0A@EA@CObject@@8	; CObject::`RTTI Base Class Array'
rdata$r	ENDS
;	COMDAT ??_R3CObject@@8
rdata$r	SEGMENT
??_R3CObject@@8 DD 00H					; CObject::`RTTI Class Hierarchy Descriptor'
	DD	00H
	DD	01H
	DD	FLAT:??_R2CObject@@8
rdata$r	ENDS
;	COMDAT ??_R0?AVCObject@@@8
data$rs	SEGMENT
??_R0?AVCObject@@@8 DD FLAT:??_7type_info@@6B@		; CObject `RTTI Type Descriptor'
	DD	00H
	DB	'.?AVCObject@@', 00H
data$rs	ENDS
;	COMDAT xdata$x
xdata$x	SEGMENT
__unwindtable$??0CSubGraphViewData@@QAE@ABV0@@Z DD 0ffffffffH
	DD	FLAT:__unwindfunclet$??0CSubGraphViewData@@QAE@ABV0@@Z$0
	DD	00H
	DD	FLAT:__unwindfunclet$??0CSubGraphViewData@@QAE@ABV0@@Z$1
__ehfuncinfo$??0CSubGraphViewData@@QAE@ABV0@@Z DD 019930522H
	DD	02H
	DD	FLAT:__unwindtable$??0CSubGraphViewData@@QAE@ABV0@@Z
	DD	2 DUP(00H)
	DD	2 DUP(00H)
	DD	00H
	DD	01H
xdata$x	ENDS
;	COMDAT xdata$x
xdata$x	SEGMENT
__unwindtable$??_GCSubGraph@@UAEPAXI@Z DD 0ffffffffH
	DD	FLAT:___std_terminate
__ehfuncinfo$??_GCSubGraph@@UAEPAXI@Z DD 019930522H
	DD	01H
	DD	FLAT:__unwindtable$??_GCSubGraph@@UAEPAXI@Z
	DD	2 DUP(00H)
	DD	2 DUP(00H)
	DD	00H
	DD	05H
xdata$x	ENDS
;	COMDAT xdata$x
xdata$x	SEGMENT
__unwindtable$??1CSubGraph@@UAE@XZ DD 0ffffffffH
	DD	FLAT:___std_terminate
__ehfuncinfo$??1CSubGraph@@UAE@XZ DD 019930522H
	DD	01H
	DD	FLAT:__unwindtable$??1CSubGraph@@UAE@XZ
	DD	2 DUP(00H)
	DD	2 DUP(00H)
	DD	00H
	DD	05H
xdata$x	ENDS
;	COMDAT xdata$x
xdata$x	SEGMENT
__ehfuncinfo$?GetSubGraphViewData@CSubGraph@@ABE?AVCSubGraphViewData@@ABV?$CStringT@DV?$StrTraitMFC_DLL@DV?$ChTraitsCRT@D@ATL@@@@@ATL@@0@Z DD 019930522H
	DD	05H
	DD	FLAT:__unwindtable$?GetSubGraphViewData@CSubGraph@@ABE?AVCSubGraphViewData@@ABV?$CStringT@DV?$StrTraitMFC_DLL@DV?$ChTraitsCRT@D@ATL@@@@@ATL@@0@Z
	DD	2 DUP(00H)
	DD	2 DUP(00H)
	DD	00H
	DD	01H
__unwindtable$?GetSubGraphViewData@CSubGraph@@ABE?AVCSubGraphViewData@@ABV?$CStringT@DV?$StrTraitMFC_DLL@DV?$ChTraitsCRT@D@ATL@@@@@ATL@@0@Z DD 0ffffffffH
	DD	FLAT:__unwindfunclet$?GetSubGraphViewData@CSubGraph@@ABE?AVCSubGraphViewData@@ABV?$CStringT@DV?$StrTraitMFC_DLL@DV?$ChTraitsCRT@D@ATL@@@@@ATL@@0@Z$0
	DD	00H
	DD	FLAT:__unwindfunclet$?GetSubGraphViewData@CSubGraph@@ABE?AVCSubGraphViewData@@ABV?$CStringT@DV?$StrTraitMFC_DLL@DV?$ChTraitsCRT@D@ATL@@@@@ATL@@0@Z$1
	DD	01H
	DD	FLAT:__unwindfunclet$?GetSubGraphViewData@CSubGraph@@ABE?AVCSubGraphViewData@@ABV?$CStringT@DV?$StrTraitMFC_DLL@DV?$ChTraitsCRT@D@ATL@@@@@ATL@@0@Z$6
	DD	00H
	DD	FLAT:__unwindfunclet$?GetSubGraphViewData@CSubGraph@@ABE?AVCSubGraphViewData@@ABV?$CStringT@DV?$StrTraitMFC_DLL@DV?$ChTraitsCRT@D@ATL@@@@@ATL@@0@Z$3
	DD	03H
	DD	FLAT:__unwindfunclet$?GetSubGraphViewData@CSubGraph@@ABE?AVCSubGraphViewData@@ABV?$CStringT@DV?$StrTraitMFC_DLL@DV?$ChTraitsCRT@D@ATL@@@@@ATL@@0@Z$4
xdata$x	ENDS
;	COMDAT xdata$x
xdata$x	SEGMENT
__unwindtable$?GetSelectSubGraphData_Etc@CSubGraph@@ABE_NAAVCSelectSubGraphData@@@Z DD 0ffffffffH
	DD	FLAT:__unwindfunclet$?GetSelectSubGraphData_Etc@CSubGraph@@ABE_NAAVCSelectSubGraphData@@@Z$0
	DD	0ffffffffH
	DD	FLAT:__unwindfunclet$?GetSelectSubGraphData_Etc@CSubGraph@@ABE_NAAVCSelectSubGraphData@@@Z$1
	DD	0ffffffffH
	DD	FLAT:__unwindfunclet$?GetSelectSubGraphData_Etc@CSubGraph@@ABE_NAAVCSelectSubGraphData@@@Z$2
__ehfuncinfo$?GetSelectSubGraphData_Etc@CSubGraph@@ABE_NAAVCSelectSubGraphData@@@Z DD 019930522H
	DD	03H
	DD	FLAT:__unwindtable$?GetSelectSubGraphData_Etc@CSubGraph@@ABE_NAAVCSelectSubGraphData@@@Z
	DD	2 DUP(00H)
	DD	2 DUP(00H)
	DD	00H
	DD	01H
xdata$x	ENDS
;	COMDAT xdata$x
xdata$x	SEGMENT
__ehfuncinfo$?IsAddTail_SubGraphViewData@CSubGraph@@ABE_NABV?$CStringT@DV?$StrTraitMFC_DLL@DV?$ChTraitsCRT@D@ATL@@@@@ATL@@AAVCSubGraphViewDataList@@@Z DD 019930522H
	DD	08H
	DD	FLAT:__unwindtable$?IsAddTail_SubGraphViewData@CSubGraph@@ABE_NABV?$CStringT@DV?$StrTraitMFC_DLL@DV?$ChTraitsCRT@D@ATL@@@@@ATL@@AAVCSubGraphViewDataList@@@Z
	DD	2 DUP(00H)
	DD	2 DUP(00H)
	DD	00H
	DD	01H
__unwindtable$?IsAddTail_SubGraphViewData@CSubGraph@@ABE_NABV?$CStringT@DV?$StrTraitMFC_DLL@DV?$ChTraitsCRT@D@ATL@@@@@ATL@@AAVCSubGraphViewDataList@@@Z DD 0ffffffffH
	DD	FLAT:__unwindfunclet$?IsAddTail_SubGraphViewData@CSubGraph@@ABE_NABV?$CStringT@DV?$StrTraitMFC_DLL@DV?$ChTraitsCRT@D@ATL@@@@@ATL@@AAVCSubGraphViewDataList@@@Z$0
	DD	00H
	DD	FLAT:__unwindfunclet$?IsAddTail_SubGraphViewData@CSubGraph@@ABE_NABV?$CStringT@DV?$StrTraitMFC_DLL@DV?$ChTraitsCRT@D@ATL@@@@@ATL@@AAVCSubGraphViewDataList@@@Z$6
	DD	01H
	DD	FLAT:__unwindfunclet$?IsAddTail_SubGraphViewData@CSubGraph@@ABE_NABV?$CStringT@DV?$StrTraitMFC_DLL@DV?$ChTraitsCRT@D@ATL@@@@@ATL@@AAVCSubGraphViewDataList@@@Z$7
	DD	00H
	DD	FLAT:__unwindfunclet$?IsAddTail_SubGraphViewData@CSubGraph@@ABE_NABV?$CStringT@DV?$StrTraitMFC_DLL@DV?$ChTraitsCRT@D@ATL@@@@@ATL@@AAVCSubGraphViewDataList@@@Z$1
	DD	03H
	DD	FLAT:__unwindfunclet$?IsAddTail_SubGraphViewData@CSubGraph@@ABE_NABV?$CStringT@DV?$StrTraitMFC_DLL@DV?$ChTraitsCRT@D@ATL@@@@@ATL@@AAVCSubGraphViewDataList@@@Z$2
	DD	04H
	DD	FLAT:__unwindfunclet$?IsAddTail_SubGraphViewData@CSubGraph@@ABE_NABV?$CStringT@DV?$StrTraitMFC_DLL@DV?$ChTraitsCRT@D@ATL@@@@@ATL@@AAVCSubGraphViewDataList@@@Z$3
	DD	05H
	DD	FLAT:__unwindfunclet$?IsAddTail_SubGraphViewData@CSubGraph@@ABE_NABV?$CStringT@DV?$StrTraitMFC_DLL@DV?$ChTraitsCRT@D@ATL@@@@@ATL@@AAVCSubGraphViewDataList@@@Z$4
	DD	06H
	DD	FLAT:__unwindfunclet$?IsAddTail_SubGraphViewData@CSubGraph@@ABE_NABV?$CStringT@DV?$StrTraitMFC_DLL@DV?$ChTraitsCRT@D@ATL@@@@@ATL@@AAVCSubGraphViewDataList@@@Z$5
xdata$x	ENDS
;	COMDAT xdata$x
xdata$x	SEGMENT
__unwindtable$?DrawGrip@CSubGraph@@QAE_NPAVCDC@@H@Z DD 0ffffffffH
	DD	FLAT:__unwindfunclet$?DrawGrip@CSubGraph@@QAE_NPAVCDC@@H@Z$0
__ehfuncinfo$?DrawGrip@CSubGraph@@QAE_NPAVCDC@@H@Z DD 019930522H
	DD	01H
	DD	FLAT:__unwindtable$?DrawGrip@CSubGraph@@QAE_NPAVCDC@@H@Z
	DD	2 DUP(00H)
	DD	2 DUP(00H)
	DD	00H
	DD	01H
xdata$x	ENDS
;	COMDAT xdata$x
xdata$x	SEGMENT
__unwindtable$?DrawSubGraph@CSubGraph@@QAE_NPAVCDC@@PAVCDrawingGraphData@@@Z DD 0ffffffffH
	DD	FLAT:__unwindfunclet$?DrawSubGraph@CSubGraph@@QAE_NPAVCDC@@PAVCDrawingGraphData@@@Z$0
__ehfuncinfo$?DrawSubGraph@CSubGraph@@QAE_NPAVCDC@@PAVCDrawingGraphData@@@Z DD 019930522H
	DD	01H
	DD	FLAT:__unwindtable$?DrawSubGraph@CSubGraph@@QAE_NPAVCDC@@PAVCDrawingGraphData@@@Z
	DD	2 DUP(00H)
	DD	2 DUP(00H)
	DD	00H
	DD	01H
xdata$x	ENDS
;	COMDAT xdata$x
xdata$x	SEGMENT
__unwindtable$?GetDisplayDataMinMax@CSubGraph@@QAE_NPAVCVertDisplayDataMinMaxInputData@@AAVCDisplayDataMinMax@@H@Z DD 0ffffffffH
	DD	FLAT:__unwindfunclet$?GetDisplayDataMinMax@CSubGraph@@QAE_NPAVCVertDisplayDataMinMaxInputData@@AAVCDisplayDataMinMax@@H@Z$0
	DD	00H
	DD	FLAT:__unwindfunclet$?GetDisplayDataMinMax@CSubGraph@@QAE_NPAVCVertDisplayDataMinMaxInputData@@AAVCDisplayDataMinMax@@H@Z$1
__ehfuncinfo$?GetDisplayDataMinMax@CSubGraph@@QAE_NPAVCVertDisplayDataMinMaxInputData@@AAVCDisplayDataMinMax@@H@Z DD 019930522H
	DD	02H
	DD	FLAT:__unwindtable$?GetDisplayDataMinMax@CSubGraph@@QAE_NPAVCVertDisplayDataMinMaxInputData@@AAVCDisplayDataMinMax@@H@Z
	DD	2 DUP(00H)
	DD	2 DUP(00H)
	DD	00H
	DD	01H
xdata$x	ENDS
;	COMDAT xdata$x
xdata$x	SEGMENT
__unwindtable$?GetVertScaleRegionWidth@CSubGraph@@QAEHPAVCDC@@PAVCVertScaleMaxWidthCalculatorData@@@Z DD 0ffffffffH
	DD	FLAT:__unwindfunclet$?GetVertScaleRegionWidth@CSubGraph@@QAEHPAVCDC@@PAVCVertScaleMaxWidthCalculatorData@@@Z$0
	DD	0ffffffffH
	DD	FLAT:__unwindfunclet$?GetVertScaleRegionWidth@CSubGraph@@QAEHPAVCDC@@PAVCVertScaleMaxWidthCalculatorData@@@Z$1
__ehfuncinfo$?GetVertScaleRegionWidth@CSubGraph@@QAEHPAVCDC@@PAVCVertScaleMaxWidthCalculatorData@@@Z DD 019930522H
	DD	02H
	DD	FLAT:__unwindtable$?GetVertScaleRegionWidth@CSubGraph@@QAEHPAVCDC@@PAVCVertScaleMaxWidthCalculatorData@@@Z
	DD	2 DUP(00H)
	DD	2 DUP(00H)
	DD	00H
	DD	01H
xdata$x	ENDS
;	COMDAT xdata$x
xdata$x	SEGMENT
__unwindtable$?PointInSubGraph@CSubGraph@@QBEHABVCPoint@@@Z DD 0ffffffffH
	DD	FLAT:__unwindfunclet$?PointInSubGraph@CSubGraph@@QBEHABVCPoint@@@Z$0
__ehfuncinfo$?PointInSubGraph@CSubGraph@@QBEHABVCPoint@@@Z DD 019930522H
	DD	01H
	DD	FLAT:__unwindtable$?PointInSubGraph@CSubGraph@@QBEHABVCPoint@@@Z
	DD	2 DUP(00H)
	DD	2 DUP(00H)
	DD	00H
	DD	01H
xdata$x	ENDS
;	COMDAT xdata$x
xdata$x	SEGMENT
__ehfuncinfo$?GetSubGraphViewDataList@CSubGraph@@QBEXABV?$CStringT@DV?$StrTraitMFC_DLL@DV?$ChTraitsCRT@D@ATL@@@@@ATL@@0AAVCSubGraphViewDataList@@@Z DD 019930522H
	DD	07H
	DD	FLAT:__unwindtable$?GetSubGraphViewDataList@CSubGraph@@QBEXABV?$CStringT@DV?$StrTraitMFC_DLL@DV?$ChTraitsCRT@D@ATL@@@@@ATL@@0AAVCSubGraphViewDataList@@@Z
	DD	2 DUP(00H)
	DD	2 DUP(00H)
	DD	00H
	DD	01H
__unwindtable$?GetSubGraphViewDataList@CSubGraph@@QBEXABV?$CStringT@DV?$StrTraitMFC_DLL@DV?$ChTraitsCRT@D@ATL@@@@@ATL@@0AAVCSubGraphViewDataList@@@Z DD 0ffffffffH
	DD	FLAT:__unwindfunclet$?GetSubGraphViewDataList@CSubGraph@@QBEXABV?$CStringT@DV?$StrTraitMFC_DLL@DV?$ChTraitsCRT@D@ATL@@@@@ATL@@0AAVCSubGraphViewDataList@@@Z$3
	DD	00H
	DD	FLAT:__unwindfunclet$?GetSubGraphViewDataList@CSubGraph@@QBEXABV?$CStringT@DV?$StrTraitMFC_DLL@DV?$ChTraitsCRT@D@ATL@@@@@ATL@@0AAVCSubGraphViewDataList@@@Z$4
	DD	01H
	DD	FLAT:__unwindfunclet$?GetSubGraphViewDataList@CSubGraph@@QBEXABV?$CStringT@DV?$StrTraitMFC_DLL@DV?$ChTraitsCRT@D@ATL@@@@@ATL@@0AAVCSubGraphViewDataList@@@Z$9
	DD	00H
	DD	FLAT:__unwindfunclet$?GetSubGraphViewDataList@CSubGraph@@QBEXABV?$CStringT@DV?$StrTraitMFC_DLL@DV?$ChTraitsCRT@D@ATL@@@@@ATL@@0AAVCSubGraphViewDataList@@@Z$6
	DD	03H
	DD	FLAT:__unwindfunclet$?GetSubGraphViewDataList@CSubGraph@@QBEXABV?$CStringT@DV?$StrTraitMFC_DLL@DV?$ChTraitsCRT@D@ATL@@@@@ATL@@0AAVCSubGraphViewDataList@@@Z$7
	DD	0ffffffffH
	DD	FLAT:__unwindfunclet$?GetSubGraphViewDataList@CSubGraph@@QBEXABV?$CStringT@DV?$StrTraitMFC_DLL@DV?$ChTraitsCRT@D@ATL@@@@@ATL@@0AAVCSubGraphViewDataList@@@Z$0
	DD	05H
	DD	FLAT:__unwindfunclet$?GetSubGraphViewDataList@CSubGraph@@QBEXABV?$CStringT@DV?$StrTraitMFC_DLL@DV?$ChTraitsCRT@D@ATL@@@@@ATL@@0AAVCSubGraphViewDataList@@@Z$1
xdata$x	ENDS
;	COMDAT xdata$x
xdata$x	SEGMENT
__unwindtable$??0CSubGraph@@QAE@PAVCMainBlockBaseData@@PAVCSubGraphList@@W4GRAPHTYPE@CGraphBaseData@@ABVCGraphStyle@@ABVCGraphDrawStyle@@ABV?$CStringT@DV?$StrTraitMFC_DLL@DV?$ChTraitsCRT@D@ATL@@@@@ATL@@5_NABVCGraphColor@@ABVCPenThickness@@ABVCGraphPaintStyle@@ABVCGraphBaseLineStyle@@@Z DD 0ffffffffH
	DD	FLAT:__unwindfunclet$??0CSubGraph@@QAE@PAVCMainBlockBaseData@@PAVCSubGraphList@@W4GRAPHTYPE@CGraphBaseData@@ABVCGraphStyle@@ABVCGraphDrawStyle@@ABV?$CStringT@DV?$StrTraitMFC_DLL@DV?$ChTraitsCRT@D@ATL@@@@@ATL@@5_NABVCGraphColor@@ABVCPenThickness@@ABVCGraphPaintStyle@@ABVCGraphBaseLineStyle@@@Z$0
	DD	00H
	DD	FLAT:__unwindfunclet$??0CSubGraph@@QAE@PAVCMainBlockBaseData@@PAVCSubGraphList@@W4GRAPHTYPE@CGraphBaseData@@ABVCGraphStyle@@ABVCGraphDrawStyle@@ABV?$CStringT@DV?$StrTraitMFC_DLL@DV?$ChTraitsCRT@D@ATL@@@@@ATL@@5_NABVCGraphColor@@ABVCPenThickness@@ABVCGraphPaintStyle@@ABVCGraphBaseLineStyle@@@Z$1
__ehfuncinfo$??0CSubGraph@@QAE@PAVCMainBlockBaseData@@PAVCSubGraphList@@W4GRAPHTYPE@CGraphBaseData@@ABVCGraphStyle@@ABVCGraphDrawStyle@@ABV?$CStringT@DV?$StrTraitMFC_DLL@DV?$ChTraitsCRT@D@ATL@@@@@ATL@@5_NABVCGraphColor@@ABVCPenThickness@@ABVCGraphPaintStyle@@ABVCGraphBaseLineStyle@@@Z DD 019930522H
	DD	02H
	DD	FLAT:__unwindtable$??0CSubGraph@@QAE@PAVCMainBlockBaseData@@PAVCSubGraphList@@W4GRAPHTYPE@CGraphBaseData@@ABVCGraphStyle@@ABVCGraphDrawStyle@@ABV?$CStringT@DV?$StrTraitMFC_DLL@DV?$ChTraitsCRT@D@ATL@@@@@ATL@@5_NABVCGraphColor@@ABVCPenThickness@@ABVCGraphPaintStyle@@ABVCGraphBaseLineStyle@@@Z
	DD	2 DUP(00H)
	DD	2 DUP(00H)
	DD	00H
	DD	01H
xdata$x	ENDS
;	COMDAT xdata$x
xdata$x	SEGMENT
__unwindtable$??0CSubGraph@@QAE@PAVCMainBlockBaseData@@PAVCSubGraphList@@ABVCSubGraphData@@@Z DD 0ffffffffH
	DD	FLAT:__unwindfunclet$??0CSubGraph@@QAE@PAVCMainBlockBaseData@@PAVCSubGraphList@@ABVCSubGraphData@@@Z$0
	DD	00H
	DD	FLAT:__unwindfunclet$??0CSubGraph@@QAE@PAVCMainBlockBaseData@@PAVCSubGraphList@@ABVCSubGraphData@@@Z$1
__ehfuncinfo$??0CSubGraph@@QAE@PAVCMainBlockBaseData@@PAVCSubGraphList@@ABVCSubGraphData@@@Z DD 019930522H
	DD	02H
	DD	FLAT:__unwindtable$??0CSubGraph@@QAE@PAVCMainBlockBaseData@@PAVCSubGraphList@@ABVCSubGraphData@@@Z
	DD	2 DUP(00H)
	DD	2 DUP(00H)
	DD	00H
	DD	01H
xdata$x	ENDS
;	COMDAT xdata$x
xdata$x	SEGMENT
__unwindtable$?MakeSubGraph@CSubGraph@@SAPAV1@PAVCMainBlockBaseData@@PAVCSubGraphList@@W4GRAPHTYPE@CGraphBaseData@@ABVCGraphStyle@@ABVCGraphDrawStyle@@ABV?$CStringT@DV?$StrTraitMFC_DLL@DV?$ChTraitsCRT@D@ATL@@@@@ATL@@5_NABVCGraphColor@@ABVCPenThickness@@ABVCGraphPaintStyle@@ABVCGraphBaseLineStyle@@@Z DD 0ffffffffH
	DD	FLAT:__unwindfunclet$?MakeSubGraph@CSubGraph@@SAPAV1@PAVCMainBlockBaseData@@PAVCSubGraphList@@W4GRAPHTYPE@CGraphBaseData@@ABVCGraphStyle@@ABVCGraphDrawStyle@@ABV?$CStringT@DV?$StrTraitMFC_DLL@DV?$ChTraitsCRT@D@ATL@@@@@ATL@@5_NABVCGraphColor@@ABVCPenThickness@@ABVCGraphPaintStyle@@ABVCGraphBaseLineStyle@@@Z$0
	DD	00H
	DD	FLAT:__unwindfunclet$?MakeSubGraph@CSubGraph@@SAPAV1@PAVCMainBlockBaseData@@PAVCSubGraphList@@W4GRAPHTYPE@CGraphBaseData@@ABVCGraphStyle@@ABVCGraphDrawStyle@@ABV?$CStringT@DV?$StrTraitMFC_DLL@DV?$ChTraitsCRT@D@ATL@@@@@ATL@@5_NABVCGraphColor@@ABVCPenThickness@@ABVCGraphPaintStyle@@ABVCGraphBaseLineStyle@@@Z$1
	DD	01H
	DD	FLAT:__unwindfunclet$?MakeSubGraph@CSubGraph@@SAPAV1@PAVCMainBlockBaseData@@PAVCSubGraphList@@W4GRAPHTYPE@CGraphBaseData@@ABVCGraphStyle@@ABVCGraphDrawStyle@@ABV?$CStringT@DV?$StrTraitMFC_DLL@DV?$ChTraitsCRT@D@ATL@@@@@ATL@@5_NABVCGraphColor@@ABVCPenThickness@@ABVCGraphPaintStyle@@ABVCGraphBaseLineStyle@@@Z$2
__ehfuncinfo$?MakeSubGraph@CSubGraph@@SAPAV1@PAVCMainBlockBaseData@@PAVCSubGraphList@@W4GRAPHTYPE@CGraphBaseData@@ABVCGraphStyle@@ABVCGraphDrawStyle@@ABV?$CStringT@DV?$StrTraitMFC_DLL@DV?$ChTraitsCRT@D@ATL@@@@@ATL@@5_NABVCGraphColor@@ABVCPenThickness@@ABVCGraphPaintStyle@@ABVCGraphBaseLineStyle@@@Z DD 019930522H
	DD	03H
	DD	FLAT:__unwindtable$?MakeSubGraph@CSubGraph@@SAPAV1@PAVCMainBlockBaseData@@PAVCSubGraphList@@W4GRAPHTYPE@CGraphBaseData@@ABVCGraphStyle@@ABVCGraphDrawStyle@@ABV?$CStringT@DV?$StrTraitMFC_DLL@DV?$ChTraitsCRT@D@ATL@@@@@ATL@@5_NABVCGraphColor@@ABVCPenThickness@@ABVCGraphPaintStyle@@ABVCGraphBaseLineStyle@@@Z
	DD	2 DUP(00H)
	DD	2 DUP(00H)
	DD	00H
	DD	01H
xdata$x	ENDS
;	COMDAT xdata$x
xdata$x	SEGMENT
__unwindtable$?MakeSubGraph@CSubGraph@@SAPAV1@PAVCMainBlockBaseData@@PAVCSubGraphList@@ABVCSubGraphData@@@Z DD 0ffffffffH
	DD	FLAT:__unwindfunclet$?MakeSubGraph@CSubGraph@@SAPAV1@PAVCMainBlockBaseData@@PAVCSubGraphList@@ABVCSubGraphData@@@Z$0
	DD	00H
	DD	FLAT:__unwindfunclet$?MakeSubGraph@CSubGraph@@SAPAV1@PAVCMainBlockBaseData@@PAVCSubGraphList@@ABVCSubGraphData@@@Z$1
	DD	01H
	DD	FLAT:__unwindfunclet$?MakeSubGraph@CSubGraph@@SAPAV1@PAVCMainBlockBaseData@@PAVCSubGraphList@@ABVCSubGraphData@@@Z$2
__ehfuncinfo$?MakeSubGraph@CSubGraph@@SAPAV1@PAVCMainBlockBaseData@@PAVCSubGraphList@@ABVCSubGraphData@@@Z DD 019930522H
	DD	03H
	DD	FLAT:__unwindtable$?MakeSubGraph@CSubGraph@@SAPAV1@PAVCMainBlockBaseData@@PAVCSubGraphList@@ABVCSubGraphData@@@Z
	DD	2 DUP(00H)
	DD	2 DUP(00H)
	DD	00H
	DD	01H
xdata$x	ENDS
;	COMDAT xdata$x
xdata$x	SEGMENT
__unwindtable$??1CSubGraphPacketList@@QAE@XZ DD 0ffffffffH
	DD	FLAT:___std_terminate
__ehfuncinfo$??1CSubGraphPacketList@@QAE@XZ DD 019930522H
	DD	01H
	DD	FLAT:__unwindtable$??1CSubGraphPacketList@@QAE@XZ
	DD	2 DUP(00H)
	DD	2 DUP(00H)
	DD	00H
	DD	05H
xdata$x	ENDS
;	COMDAT xdata$x
xdata$x	SEGMENT
__unwindtable$??_G?$CList@PAVCPacket@@PAV1@@@UAEPAXI@Z DD 0ffffffffH
	DD	FLAT:___std_terminate
__ehfuncinfo$??_G?$CList@PAVCPacket@@PAV1@@@UAEPAXI@Z DD 019930522H
	DD	01H
	DD	FLAT:__unwindtable$??_G?$CList@PAVCPacket@@PAV1@@@UAEPAXI@Z
	DD	2 DUP(00H)
	DD	2 DUP(00H)
	DD	00H
	DD	05H
xdata$x	ENDS
;	COMDAT xdata$x
xdata$x	SEGMENT
__ehfuncinfo$??1?$CList@PAVCPacket@@PAV1@@@UAE@XZ DD 019930522H
	DD	00H
	DD	00H
	DD	2 DUP(00H)
	DD	2 DUP(00H)
	DD	00H
	DD	05H
xdata$x	ENDS
;	COMDAT xdata$x
xdata$x	SEGMENT
__unwindtable$??HATL@@YA?AV?$CStringT@DV?$StrTraitMFC_DLL@DV?$ChTraitsCRT@D@ATL@@@@@0@ABV10@D@Z DD 0ffffffffH
	DD	FLAT:__unwindfunclet$??HATL@@YA?AV?$CStringT@DV?$StrTraitMFC_DLL@DV?$ChTraitsCRT@D@ATL@@@@@0@ABV10@D@Z$0
__ehfuncinfo$??HATL@@YA?AV?$CStringT@DV?$StrTraitMFC_DLL@DV?$ChTraitsCRT@D@ATL@@@@@0@ABV10@D@Z DD 019930522H
	DD	01H
	DD	FLAT:__unwindtable$??HATL@@YA?AV?$CStringT@DV?$StrTraitMFC_DLL@DV?$ChTraitsCRT@D@ATL@@@@@0@ABV10@D@Z
	DD	2 DUP(00H)
	DD	2 DUP(00H)
	DD	00H
	DD	01H
xdata$x	ENDS
; Function compile flags: /Ogtp
; File C:\Program Files (x86)\Microsoft Visual Studio\2019\Community\VC\Tools\MSVC\14.29.30133\atlmfc\include\afxtempl.h
; File C:\Program Files (x86)\Microsoft Visual Studio\2019\Community\VC\Tools\MSVC\14.29.30133\atlmfc\include\afx.inl
; File C:\Program Files (x86)\Microsoft Visual Studio\2019\Community\VC\Tools\MSVC\14.29.30133\atlmfc\include\afxtempl.h
; File C:\Program Files (x86)\Microsoft Visual Studio\2019\Community\VC\Tools\MSVC\14.29.30133\atlmfc\include\afx.inl
; File C:\Program Files (x86)\Microsoft Visual Studio\2019\Community\VC\Tools\MSVC\14.29.30133\atlmfc\include\afxtempl.h
; File C:\Program Files (x86)\Microsoft Visual Studio\2019\Community\VC\Tools\MSVC\14.29.30133\atlmfc\include\afx.inl
; File C:\Program Files (x86)\Microsoft Visual Studio\2019\Community\VC\Tools\MSVC\14.29.30133\atlmfc\include\afxtempl.h
;	COMDAT ??$SerializeElements@PAVCPacket@@@@YGXAAVCArchive@@PAPAVCPacket@@H@Z
_TEXT	SEGMENT
_ar$ = 8						; size = 4
_pElements$ = 12					; size = 4
_nCount$ = 16						; size = 4
??$SerializeElements@PAVCPacket@@@@YGXAAVCArchive@@PAPAVCPacket@@H@Z PROC ; SerializeElements<CPacket *>, COMDAT

; 67   : {

  00000	55		 push	 ebp
  00001	8b ec		 mov	 ebp, esp

; 68   : 	ENSURE(nCount == 0 || pElements != NULL);

  00003	8b 4d 0c	 mov	 ecx, DWORD PTR _pElements$[ebp]
  00006	53		 push	 ebx
  00007	56		 push	 esi
  00008	8b 75 10	 mov	 esi, DWORD PTR _nCount$[ebp]
  0000b	57		 push	 edi
  0000c	85 f6		 test	 esi, esi
  0000e	74 08		 je	 SHORT $LN2@SerializeE
  00010	85 c9		 test	 ecx, ecx
  00012	0f 84 89 00 00
	00		 je	 $LN34@SerializeE
$LN2@SerializeE:
; File C:\Program Files (x86)\Microsoft Visual Studio\2019\Community\VC\Tools\MSVC\14.29.30133\atlmfc\include\afx.inl

; 212  : 	{ return (m_nMode & CArchive::load) == 0; }

  00018	8b 55 08	 mov	 edx, DWORD PTR _ar$[ebp]
  0001b	8b 42 18	 mov	 eax, DWORD PTR [edx+24]
  0001e	f7 d0		 not	 eax
  00020	a8 01		 test	 al, 1
; File C:\Program Files (x86)\Microsoft Visual Studio\2019\Community\VC\Tools\MSVC\14.29.30133\atlmfc\include\afxtempl.h

; 73   : 	if (ar.IsStoring())

  00022	74 3c		 je	 SHORT $LN10@SerializeE

; 74   : 	{
; 75   : 		TYPE* pData;
; 76   : 		UINT_PTR nElementsLeft;
; 77   : 
; 78   : 		nElementsLeft = nCount;
; 79   : 		pData = pElements;
; 80   : 		while( nElementsLeft > 0 )

  00024	85 f6		 test	 esi, esi
  00026	74 31		 je	 SHORT $LN8@SerializeE
  00028	0f 1f 84 00 00
	00 00 00	 npad	 8
$LL5@SerializeE:

; 81   : 		{
; 82   : 			UINT nElementsToWrite;
; 83   : 
; 84   : 			nElementsToWrite = UINT(__min(nElementsLeft, INT_MAX/sizeof(TYPE)));

  00030	bb ff ff ff 1f	 mov	 ebx, 536870911		; 1fffffffH
  00035	3b f3		 cmp	 esi, ebx
  00037	0f 42 de	 cmovb	 ebx, esi

; 85   : 			ar.Write(pData, nElementsToWrite*sizeof(TYPE));

  0003a	8d 3c 9d 00 00
	00 00		 lea	 edi, DWORD PTR [ebx*4]
  00041	57		 push	 edi
  00042	51		 push	 ecx
  00043	8b ca		 mov	 ecx, edx
  00045	e8 00 00 00 00	 call	 ?Write@CArchive@@QAEXPBXI@Z ; CArchive::Write

; 86   : 			nElementsLeft -= nElementsToWrite;
; 87   : 			pData += nElementsToWrite;

  0004a	8b 4d 0c	 mov	 ecx, DWORD PTR _pElements$[ebp]
  0004d	8b 55 08	 mov	 edx, DWORD PTR _ar$[ebp]
  00050	03 cf		 add	 ecx, edi
  00052	89 4d 0c	 mov	 DWORD PTR _pElements$[ebp], ecx
  00055	2b f3		 sub	 esi, ebx
  00057	75 d7		 jne	 SHORT $LL5@SerializeE
$LN8@SerializeE:
  00059	5f		 pop	 edi

; 105  : 		}
; 106  : 	}
; 107  : }

  0005a	5e		 pop	 esi
  0005b	5b		 pop	 ebx
  0005c	5d		 pop	 ebp
  0005d	c2 0c 00	 ret	 12			; 0000000cH
$LN10@SerializeE:

; 97   : 		while( nElementsLeft > 0 )

  00060	85 f6		 test	 esi, esi
  00062	74 f5		 je	 SHORT $LN8@SerializeE
$LL7@SerializeE:

; 98   : 		{
; 99   : 			UINT nElementsToRead;
; 100  : 
; 101  : 			nElementsToRead = UINT(__min(nElementsLeft, INT_MAX/sizeof(TYPE)));

  00064	bf ff ff ff 1f	 mov	 edi, 536870911		; 1fffffffH
  00069	3b f7		 cmp	 esi, edi
  0006b	0f 42 fe	 cmovb	 edi, esi

; 102  : 			ar.EnsureRead(pData, nElementsToRead*sizeof(TYPE));

  0006e	8d 1c bd 00 00
	00 00		 lea	 ebx, DWORD PTR [edi*4]
; File C:\Program Files (x86)\Microsoft Visual Studio\2019\Community\VC\Tools\MSVC\14.29.30133\atlmfc\include\afx.inl

; 399  : 	UINT nRead=Read(lpBuf, nCount);

  00075	53		 push	 ebx
  00076	51		 push	 ecx
  00077	8b ca		 mov	 ecx, edx
  00079	e8 00 00 00 00	 call	 ?Read@CArchive@@QAEIPAXI@Z ; CArchive::Read

; 400  : 	if(nRead!=nCount)

  0007e	3b c3		 cmp	 eax, ebx
  00080	75 16		 jne	 SHORT $LN23@SerializeE
; File C:\Program Files (x86)\Microsoft Visual Studio\2019\Community\VC\Tools\MSVC\14.29.30133\atlmfc\include\afxtempl.h

; 97   : 		while( nElementsLeft > 0 )

  00082	8b 4d 0c	 mov	 ecx, DWORD PTR _pElements$[ebp]
  00085	8b 55 08	 mov	 edx, DWORD PTR _ar$[ebp]

; 103  : 			nElementsLeft -= nElementsToRead;
; 104  : 			pData += nElementsToRead;

  00088	03 cb		 add	 ecx, ebx
  0008a	89 4d 0c	 mov	 DWORD PTR _pElements$[ebp], ecx
  0008d	2b f7		 sub	 esi, edi
  0008f	75 d3		 jne	 SHORT $LL7@SerializeE

; 105  : 		}
; 106  : 	}
; 107  : }

  00091	5f		 pop	 edi
  00092	5e		 pop	 esi
  00093	5b		 pop	 ebx
  00094	5d		 pop	 ebp
  00095	c2 0c 00	 ret	 12			; 0000000cH
$LN23@SerializeE:
; File C:\Program Files (x86)\Microsoft Visual Studio\2019\Community\VC\Tools\MSVC\14.29.30133\atlmfc\include\afx.inl

; 402  : 		AfxThrowArchiveException(CArchiveException::endOfFile);

  00098	6a 00		 push	 0
  0009a	6a 03		 push	 3
  0009c	e8 00 00 00 00	 call	 ?AfxThrowArchiveException@@YGXHPBD@Z ; AfxThrowArchiveException
$LN34@SerializeE:
; File C:\Program Files (x86)\Microsoft Visual Studio\2019\Community\VC\Tools\MSVC\14.29.30133\atlmfc\include\afxtempl.h

; 68   : 	ENSURE(nCount == 0 || pElements != NULL);

  000a1	e8 00 00 00 00	 call	 ?AfxThrowInvalidArgException@@YGXXZ ; AfxThrowInvalidArgException
$LN32@SerializeE:
  000a6	cc		 int	 3
??$SerializeElements@PAVCPacket@@@@YGXAAVCArchive@@PAPAVCPacket@@H@Z ENDP ; SerializeElements<CPacket *>
_TEXT	ENDS
; Function compile flags: /Ogtp
;	COMDAT ??1CSelectSubGraphData@@QAE@XZ
_TEXT	SEGMENT
??1CSelectSubGraphData@@QAE@XZ PROC			; CSelectSubGraphData::~CSelectSubGraphData, COMDAT
; _this$ = ecx
  00000	56		 push	 esi
  00001	8b f1		 mov	 esi, ecx
  00003	8d 8e 94 00 00
	00		 lea	 ecx, DWORD PTR [esi+148]
  00009	ff 15 00 00 00
	00		 call	 DWORD PTR __imp_??1?$CStringT@DV?$StrTraitMFC_DLL@DV?$ChTraitsCRT@D@ATL@@@@@ATL@@QAE@XZ
  0000f	8d 4e 08	 lea	 ecx, DWORD PTR [esi+8]
  00012	ff 15 00 00 00
	00		 call	 DWORD PTR __imp_??1?$CStringT@DV?$StrTraitMFC_DLL@DV?$ChTraitsCRT@D@ATL@@@@@ATL@@QAE@XZ
  00018	8d 4e 04	 lea	 ecx, DWORD PTR [esi+4]
  0001b	5e		 pop	 esi
  0001c	ff 25 00 00 00
	00		 jmp	 DWORD PTR __imp_??1?$CStringT@DV?$StrTraitMFC_DLL@DV?$ChTraitsCRT@D@ATL@@@@@ATL@@QAE@XZ
??1CSelectSubGraphData@@QAE@XZ ENDP			; CSelectSubGraphData::~CSelectSubGraphData
_TEXT	ENDS
; Function compile flags: /Ogtp
;	COMDAT ??0CSubGraphViewData@@QAE@ABV0@@Z
_TEXT	SEGMENT
_this$ = -16						; size = 4
__$EHRec$ = -12						; size = 12
___that$ = 8						; size = 4
??0CSubGraphViewData@@QAE@ABV0@@Z PROC			; CSubGraphViewData::CSubGraphViewData, COMDAT
; _this$ = ecx
  00000	55		 push	 ebp
  00001	8b ec		 mov	 ebp, esp
  00003	6a ff		 push	 -1
  00005	68 00 00 00 00	 push	 __ehhandler$??0CSubGraphViewData@@QAE@ABV0@@Z
  0000a	64 a1 00 00 00
	00		 mov	 eax, DWORD PTR fs:0
  00010	50		 push	 eax
  00011	51		 push	 ecx
  00012	56		 push	 esi
  00013	57		 push	 edi
  00014	a1 00 00 00 00	 mov	 eax, DWORD PTR ___security_cookie
  00019	33 c5		 xor	 eax, ebp
  0001b	50		 push	 eax
  0001c	8d 45 f4	 lea	 eax, DWORD PTR __$EHRec$[ebp]
  0001f	64 a3 00 00 00
	00		 mov	 DWORD PTR fs:0, eax
  00025	8b f9		 mov	 edi, ecx
  00027	89 7d f0	 mov	 DWORD PTR _this$[ebp], edi
  0002a	8b 75 08	 mov	 esi, DWORD PTR ___that$[ebp]
  0002d	8d 4f 08	 lea	 ecx, DWORD PTR [edi+8]
  00030	8b 06		 mov	 eax, DWORD PTR [esi]
  00032	89 07		 mov	 DWORD PTR [edi], eax
  00034	8b 46 04	 mov	 eax, DWORD PTR [esi+4]
  00037	89 47 04	 mov	 DWORD PTR [edi+4], eax
  0003a	8d 46 08	 lea	 eax, DWORD PTR [esi+8]
  0003d	50		 push	 eax
  0003e	ff 15 00 00 00
	00		 call	 DWORD PTR __imp_??0?$CStringT@DV?$StrTraitMFC_DLL@DV?$ChTraitsCRT@D@ATL@@@@@ATL@@QAE@ABV01@@Z
  00044	8d 46 0c	 lea	 eax, DWORD PTR [esi+12]
  00047	c7 45 fc 00 00
	00 00		 mov	 DWORD PTR __$EHRec$[ebp+8], 0
  0004e	50		 push	 eax
  0004f	8d 4f 0c	 lea	 ecx, DWORD PTR [edi+12]
  00052	ff 15 00 00 00
	00		 call	 DWORD PTR __imp_??0?$CStringT@DV?$StrTraitMFC_DLL@DV?$ChTraitsCRT@D@ATL@@@@@ATL@@QAE@ABV01@@Z
  00058	8d 46 10	 lea	 eax, DWORD PTR [esi+16]
  0005b	c6 45 fc 01	 mov	 BYTE PTR __$EHRec$[ebp+8], 1
  0005f	50		 push	 eax
  00060	8d 4f 10	 lea	 ecx, DWORD PTR [edi+16]
  00063	ff 15 00 00 00
	00		 call	 DWORD PTR __imp_??0?$CStringT@DV?$StrTraitMFC_DLL@DV?$ChTraitsCRT@D@ATL@@@@@ATL@@QAE@ABV01@@Z
  00069	8b c7		 mov	 eax, edi
  0006b	8b 4d f4	 mov	 ecx, DWORD PTR __$EHRec$[ebp]
  0006e	64 89 0d 00 00
	00 00		 mov	 DWORD PTR fs:0, ecx
  00075	59		 pop	 ecx
  00076	5f		 pop	 edi
  00077	5e		 pop	 esi
  00078	8b e5		 mov	 esp, ebp
  0007a	5d		 pop	 ebp
  0007b	c2 04 00	 ret	 4
_TEXT	ENDS
;	COMDAT text$x
text$x	SEGMENT
__unwindfunclet$??0CSubGraphViewData@@QAE@ABV0@@Z$0:
  00000	8b 4d f0	 mov	 ecx, DWORD PTR _this$[ebp]
  00003	83 c1 08	 add	 ecx, 8
  00006	ff 25 00 00 00
	00		 jmp	 DWORD PTR __imp_??1?$CStringT@DV?$StrTraitMFC_DLL@DV?$ChTraitsCRT@D@ATL@@@@@ATL@@QAE@XZ
__unwindfunclet$??0CSubGraphViewData@@QAE@ABV0@@Z$1:
  0000c	8b 4d f0	 mov	 ecx, DWORD PTR _this$[ebp]
  0000f	83 c1 0c	 add	 ecx, 12			; 0000000cH
  00012	ff 25 00 00 00
	00		 jmp	 DWORD PTR __imp_??1?$CStringT@DV?$StrTraitMFC_DLL@DV?$ChTraitsCRT@D@ATL@@@@@ATL@@QAE@XZ
  00018	cc		 int	 3
  00019	cc		 int	 3
  0001a	cc		 int	 3
  0001b	cc		 int	 3
  0001c	cc		 int	 3
__ehhandler$??0CSubGraphViewData@@QAE@ABV0@@Z:
  0001d	90		 npad	 1
  0001e	90		 npad	 1
  0001f	8b 54 24 08	 mov	 edx, DWORD PTR [esp+8]
  00023	8d 42 0c	 lea	 eax, DWORD PTR [edx+12]
  00026	8b 4a f0	 mov	 ecx, DWORD PTR [edx-16]
  00029	33 c8		 xor	 ecx, eax
  0002b	e8 00 00 00 00	 call	 @__security_check_cookie@4
  00030	b8 00 00 00 00	 mov	 eax, OFFSET __ehfuncinfo$??0CSubGraphViewData@@QAE@ABV0@@Z
  00035	e9 00 00 00 00	 jmp	 ___CxxFrameHandler3
text$x	ENDS
??0CSubGraphViewData@@QAE@ABV0@@Z ENDP			; CSubGraphViewData::CSubGraphViewData
; Function compile flags: /Ogtp
;	COMDAT ??1CSubGraphViewData@@QAE@XZ
_TEXT	SEGMENT
??1CSubGraphViewData@@QAE@XZ PROC			; CSubGraphViewData::~CSubGraphViewData, COMDAT
; _this$ = ecx
  00000	56		 push	 esi
  00001	8b f1		 mov	 esi, ecx
  00003	8d 4e 10	 lea	 ecx, DWORD PTR [esi+16]
  00006	ff 15 00 00 00
	00		 call	 DWORD PTR __imp_??1?$CStringT@DV?$StrTraitMFC_DLL@DV?$ChTraitsCRT@D@ATL@@@@@ATL@@QAE@XZ
  0000c	8d 4e 0c	 lea	 ecx, DWORD PTR [esi+12]
  0000f	ff 15 00 00 00
	00		 call	 DWORD PTR __imp_??1?$CStringT@DV?$StrTraitMFC_DLL@DV?$ChTraitsCRT@D@ATL@@@@@ATL@@QAE@XZ
  00015	8d 4e 08	 lea	 ecx, DWORD PTR [esi+8]
  00018	5e		 pop	 esi
  00019	ff 25 00 00 00
	00		 jmp	 DWORD PTR __imp_??1?$CStringT@DV?$StrTraitMFC_DLL@DV?$ChTraitsCRT@D@ATL@@@@@ATL@@QAE@XZ
??1CSubGraphViewData@@QAE@XZ ENDP			; CSubGraphViewData::~CSubGraphViewData
_TEXT	ENDS
; Function compile flags: /Ogtp
; File C:\Program Files (x86)\Microsoft Visual Studio\2019\Community\VC\Tools\MSVC\14.29.30133\atlmfc\include\afxtempl.h
; File C:\Program Files (x86)\Microsoft Visual Studio\2019\Community\VC\Tools\MSVC\14.29.30133\atlmfc\include\afx.inl
;	COMDAT ??_GCSubGraph@@UAEPAXI@Z
_TEXT	SEGMENT
__$EHRec$ = -12						; size = 12
___flags$ = 8						; size = 4
??_GCSubGraph@@UAEPAXI@Z PROC				; CSubGraph::`scalar deleting destructor', COMDAT
; _this$ = ecx
  00000	55		 push	 ebp
  00001	8b ec		 mov	 ebp, esp
  00003	6a ff		 push	 -1
  00005	68 00 00 00 00	 push	 __ehhandler$??_GCSubGraph@@UAEPAXI@Z
  0000a	64 a1 00 00 00
	00		 mov	 eax, DWORD PTR fs:0
  00010	50		 push	 eax
  00011	56		 push	 esi
  00012	a1 00 00 00 00	 mov	 eax, DWORD PTR ___security_cookie
  00017	33 c5		 xor	 eax, ebp
  00019	50		 push	 eax
  0001a	8d 45 f4	 lea	 eax, DWORD PTR __$EHRec$[ebp]
  0001d	64 a3 00 00 00
	00		 mov	 DWORD PTR fs:0, eax
  00023	8b f1		 mov	 esi, ecx
; File C:\Program Files (x86)\Microsoft Visual Studio\2019\Community\VC\Tools\MSVC\14.29.30133\atlmfc\include\afxtempl.h

; 872  : 	m_pBlocks->FreeDataChain();

  00025	8b 8e a8 00 00
	00		 mov	 ecx, DWORD PTR [esi+168]

; 878  : {

  0002b	c7 45 fc 00 00
	00 00		 mov	 DWORD PTR __$EHRec$[ebp+8], 0
  00032	c7 86 94 00 00
	00 00 00 00 00	 mov	 DWORD PTR [esi+148], OFFSET ??_7?$CList@PAVCPacket@@PAV1@@@6B@

; 870  : 	m_nCount = 0;

  0003c	c7 86 a0 00 00
	00 00 00 00 00	 mov	 DWORD PTR [esi+160], 0

; 871  : 	m_pNodeHead = m_pNodeTail = m_pNodeFree = NULL;

  00046	c7 86 a4 00 00
	00 00 00 00 00	 mov	 DWORD PTR [esi+164], 0
  00050	c7 86 9c 00 00
	00 00 00 00 00	 mov	 DWORD PTR [esi+156], 0
  0005a	c7 86 98 00 00
	00 00 00 00 00	 mov	 DWORD PTR [esi+152], 0

; 872  : 	m_pBlocks->FreeDataChain();

  00064	e8 00 00 00 00	 call	 ?FreeDataChain@CPlex@@QAEXXZ ; CPlex::FreeDataChain
  00069	8d 4e 0c	 lea	 ecx, DWORD PTR [esi+12]

; 873  : 	m_pBlocks = NULL;

  0006c	c7 86 a8 00 00
	00 00 00 00 00	 mov	 DWORD PTR [esi+168], 0
  00076	ff 15 00 00 00
	00		 call	 DWORD PTR __imp_??1CSubGraphData@@QAE@XZ
  0007c	8b 45 08	 mov	 eax, DWORD PTR ___flags$[ebp]
  0007f	a8 01		 test	 al, 1
  00081	74 2f		 je	 SHORT $LN28@scalar
  00083	a8 04		 test	 al, 4
  00085	75 1d		 jne	 SHORT $LN3@scalar
; File C:\Program Files (x86)\Microsoft Visual Studio\2019\Community\VC\Tools\MSVC\14.29.30133\atlmfc\include\afx.inl

; 112  : 	{ ::operator delete(p); }

  00087	56		 push	 esi
  00088	e8 00 00 00 00	 call	 ??3@YAXPAX@Z		; operator delete
  0008d	83 c4 04	 add	 esp, 4
  00090	8b c6		 mov	 eax, esi
  00092	8b 4d f4	 mov	 ecx, DWORD PTR __$EHRec$[ebp]
  00095	64 89 0d 00 00
	00 00		 mov	 DWORD PTR fs:0, ecx
  0009c	59		 pop	 ecx
  0009d	5e		 pop	 esi
  0009e	8b e5		 mov	 esp, ebp
  000a0	5d		 pop	 ebp
  000a1	c2 04 00	 ret	 4
$LN3@scalar:
  000a4	68 c8 00 00 00	 push	 200			; 000000c8H
  000a9	56		 push	 esi
  000aa	e8 00 00 00 00	 call	 ?__global_delete@@YAXPAXI@Z ; __global_delete
  000af	83 c4 08	 add	 esp, 8
$LN28@scalar:
  000b2	8b c6		 mov	 eax, esi
  000b4	8b 4d f4	 mov	 ecx, DWORD PTR __$EHRec$[ebp]
  000b7	64 89 0d 00 00
	00 00		 mov	 DWORD PTR fs:0, ecx
  000be	59		 pop	 ecx
  000bf	5e		 pop	 esi
  000c0	8b e5		 mov	 esp, ebp
  000c2	5d		 pop	 ebp
  000c3	c2 04 00	 ret	 4
  000c6	cc		 int	 3
  000c7	cc		 int	 3
  000c8	cc		 int	 3
  000c9	cc		 int	 3
  000ca	cc		 int	 3
_TEXT	ENDS
;	COMDAT text$x
text$x	SEGMENT
__ehhandler$??_GCSubGraph@@UAEPAXI@Z:
  00000	90		 npad	 1
  00001	90		 npad	 1
  00002	8b 54 24 08	 mov	 edx, DWORD PTR [esp+8]
  00006	8d 42 0c	 lea	 eax, DWORD PTR [edx+12]
  00009	8b 4a f8	 mov	 ecx, DWORD PTR [edx-8]
  0000c	33 c8		 xor	 ecx, eax
  0000e	e8 00 00 00 00	 call	 @__security_check_cookie@4
  00013	b8 00 00 00 00	 mov	 eax, OFFSET __ehfuncinfo$??_GCSubGraph@@UAEPAXI@Z
  00018	e9 00 00 00 00	 jmp	 ___CxxFrameHandler3
text$x	ENDS
??_GCSubGraph@@UAEPAXI@Z ENDP				; CSubGraph::`scalar deleting destructor'
; Function compile flags: /Ogtp
; File D:\git\src\IBK\IBK_DRFN\ProjSrc\SrcChartEx\ChartOCX\ChartObject\SubGraph.cpp
;	COMDAT ?GetVertScaleGroup@CSubGraph@@ABEPAVCVertScaleGroup@@PAVCGraphImp@@@Z
_TEXT	SEGMENT
_pGraph$ = 8						; size = 4
?GetVertScaleGroup@CSubGraph@@ABEPAVCVertScaleGroup@@PAVCGraphImp@@@Z PROC ; CSubGraph::GetVertScaleGroup, COMDAT
; _this$ = ecx

; 717  : {

  00000	55		 push	 ebp
  00001	8b ec		 mov	 ebp, esp

; 718  : 	if(pGraph == NULL)

  00003	8b 4d 08	 mov	 ecx, DWORD PTR _pGraph$[ebp]
  00006	85 c9		 test	 ecx, ecx
  00008	75 06		 jne	 SHORT $LN2@GetVertSca

; 719  : 		return NULL;

  0000a	33 c0		 xor	 eax, eax

; 722  : }

  0000c	5d		 pop	 ebp
  0000d	c2 04 00	 ret	 4
$LN2@GetVertSca:

; 720  : 
; 721  : 	return pGraph->GetVertScaleGroup();

  00010	e8 00 00 00 00	 call	 ?GetVertScaleGroup@CGraphImp@@QBEPAVCVertScaleGroup@@XZ ; CGraphImp::GetVertScaleGroup

; 722  : }

  00015	5d		 pop	 ebp
  00016	c2 04 00	 ret	 4
?GetVertScaleGroup@CSubGraph@@ABEPAVCVertScaleGroup@@PAVCGraphImp@@@Z ENDP ; CSubGraph::GetVertScaleGroup
_TEXT	ENDS
; Function compile flags: /Ogtp
; File D:\git\src\IBK\IBK_DRFN\ProjSrc\SrcChartEx\ChartOCX\ChartObject\SubGraph.cpp
;	COMDAT ?GetVertScaleGroupList@CSubGraph@@ABEPAVCVertScaleGroupList@@XZ
_TEXT	SEGMENT
?GetVertScaleGroupList@CSubGraph@@ABEPAVCVertScaleGroupList@@XZ PROC ; CSubGraph::GetVertScaleGroupList, COMDAT
; _this$ = ecx

; 184  : 	if(m_pSubGraphList == NULL)

  00000	8b 49 08	 mov	 ecx, DWORD PTR [ecx+8]
  00003	85 c9		 test	 ecx, ecx
  00005	74 10		 je	 SHORT $LN7@GetVertSca

; 185  : 		return NULL;
; 186  : 
; 187  : 	return m_pSubGraphList->GetGraph();

  00007	e8 00 00 00 00	 call	 ?GetGraph@CSubGraphList@@QBEPAVCGraphImp@@XZ ; CSubGraphList::GetGraph

; 709  : 	CGraphImp* pGraph = GetGraph();
; 710  : 	if(pGraph == NULL)

  0000c	85 c0		 test	 eax, eax
  0000e	74 07		 je	 SHORT $LN7@GetVertSca

; 712  : 
; 713  : 	return pGraph->GetVertScaleGroupList();

  00010	8b c8		 mov	 ecx, eax
  00012	e9 00 00 00 00	 jmp	 ?GetVertScaleGroupList@CGraphImp@@QBEPAVCVertScaleGroupList@@XZ ; CGraphImp::GetVertScaleGroupList
$LN7@GetVertSca:

; 711  : 		return false;

  00017	33 c0		 xor	 eax, eax

; 714  : }

  00019	c3		 ret	 0
?GetVertScaleGroupList@CSubGraph@@ABEPAVCVertScaleGroupList@@XZ ENDP ; CSubGraph::GetVertScaleGroupList
_TEXT	ENDS
; Function compile flags: /Ogtp
; File D:\git\src\IBK\IBK_DRFN\ProjSrc\SrcChartEx\ChartOCX\ChartObject\SubGraph.cpp
;	COMDAT ?GetBlock@CSubGraph@@ABEPAVCBlockImp@@XZ
_TEXT	SEGMENT
?GetBlock@CSubGraph@@ABEPAVCBlockImp@@XZ PROC		; CSubGraph::GetBlock, COMDAT
; _this$ = ecx

; 184  : 	if(m_pSubGraphList == NULL)

  00000	8b 49 08	 mov	 ecx, DWORD PTR [ecx+8]
  00003	85 c9		 test	 ecx, ecx
  00005	74 22		 je	 SHORT $LN11@GetBlock

; 185  : 		return NULL;
; 186  : 
; 187  : 	return m_pSubGraphList->GetGraph();

  00007	e8 00 00 00 00	 call	 ?GetGraph@CSubGraphList@@QBEPAVCGraphImp@@XZ ; CSubGraphList::GetGraph

; 718  : 	if(pGraph == NULL)

  0000c	85 c0		 test	 eax, eax
  0000e	74 19		 je	 SHORT $LN11@GetBlock

; 719  : 		return NULL;
; 720  : 
; 721  : 	return pGraph->GetVertScaleGroup();

  00010	8b c8		 mov	 ecx, eax
  00012	e8 00 00 00 00	 call	 ?GetVertScaleGroup@CGraphImp@@QBEPAVCVertScaleGroup@@XZ ; CGraphImp::GetVertScaleGroup

; 700  : 	CVertScaleGroup* pVertScaleGroup = GetVertScaleGroup(GetGraph());
; 701  : 	if(pVertScaleGroup == NULL)

  00017	85 c0		 test	 eax, eax
  00019	74 0e		 je	 SHORT $LN11@GetBlock

; 703  : 
; 704  : 	return pVertScaleGroup->GetVertScaleGroupList()->GetBlock();

  0001b	8b c8		 mov	 ecx, eax
  0001d	e8 00 00 00 00	 call	 ?GetVertScaleGroupList@CVertScaleGroup@@QBEPAVCVertScaleGroupList@@XZ ; CVertScaleGroup::GetVertScaleGroupList
  00022	8b c8		 mov	 ecx, eax
  00024	e9 00 00 00 00	 jmp	 ?GetBlock@CVertScaleGroupList@@QBEPAVCBlockImp@@XZ ; CVertScaleGroupList::GetBlock
$LN11@GetBlock:

; 702  : 		return NULL;

  00029	33 c0		 xor	 eax, eax

; 705  : }

  0002b	c3		 ret	 0
?GetBlock@CSubGraph@@ABEPAVCBlockImp@@XZ ENDP		; CSubGraph::GetBlock
_TEXT	ENDS
; Function compile flags: /Ogtp
; File D:\git\src\IBK\IBK_DRFN\ProjSrc\SrcChartEx\ChartOCX\ChartObject\SubGraph.cpp
; File C:\Program Files (x86)\Microsoft Visual Studio\2019\Community\VC\Tools\MSVC\14.29.30133\atlmfc\include\cstringt.h
; File D:\git\src\IBK\IBK_DRFN\ProjSrc\SrcChartEx\ChartOCX\ChartObject\SubGraph.cpp
; File C:\Program Files (x86)\Microsoft Visual Studio\2019\Community\VC\Tools\MSVC\14.29.30133\atlmfc\include\cstringt.h
; File C:\Program Files (x86)\Microsoft Visual Studio\2019\Community\VC\Tools\MSVC\14.29.30133\atlmfc\include\atlsimpstr.h
; File C:\Program Files (x86)\Microsoft Visual Studio\2019\Community\VC\Tools\MSVC\14.29.30133\atlmfc\include\cstringt.h
; File D:\git\src\IBK\IBK_DRFN\ProjSrc\SrcChartEx\ChartOCX\ChartObject\SubGraph.cpp
;	COMDAT ?GetSubGraphViewData@CSubGraph@@ABE?AVCSubGraphViewData@@ABV?$CStringT@DV?$StrTraitMFC_DLL@DV?$ChTraitsCRT@D@ATL@@@@@ATL@@0@Z
_TEXT	SEGMENT
_this$1$ = -40						; size = 4
$T2 = -40						; size = 4
$T3 = -36						; size = 4
$T4 = -36						; size = 4
$T5 = -32						; size = 4
_pos$ = -28						; size = 4
_packetNames$ = -24					; size = 4
$T6 = -20						; size = 4
$T7 = -20						; size = 4
_chTemp$8 = -13						; size = 1
__$EHRec$ = -12						; size = 12
___$ReturnUdt$ = 8					; size = 4
_GraphName$ = 12					; size = 4
_packetName$ = 16					; size = 4
?GetSubGraphViewData@CSubGraph@@ABE?AVCSubGraphViewData@@ABV?$CStringT@DV?$StrTraitMFC_DLL@DV?$ChTraitsCRT@D@ATL@@@@@ATL@@0@Z PROC ; CSubGraph::GetSubGraphViewData, COMDAT
; _this$ = ecx

; 684  : {

  00000	55		 push	 ebp
  00001	8b ec		 mov	 ebp, esp
  00003	6a ff		 push	 -1
  00005	68 00 00 00 00	 push	 __ehhandler$?GetSubGraphViewData@CSubGraph@@ABE?AVCSubGraphViewData@@ABV?$CStringT@DV?$StrTraitMFC_DLL@DV?$ChTraitsCRT@D@ATL@@@@@ATL@@0@Z
  0000a	64 a1 00 00 00
	00		 mov	 eax, DWORD PTR fs:0
  00010	50		 push	 eax
  00011	83 ec 1c	 sub	 esp, 28			; 0000001cH
  00014	53		 push	 ebx
  00015	56		 push	 esi
  00016	57		 push	 edi
  00017	a1 00 00 00 00	 mov	 eax, DWORD PTR ___security_cookie
  0001c	33 c5		 xor	 eax, ebp
  0001e	50		 push	 eax
  0001f	8d 45 f4	 lea	 eax, DWORD PTR __$EHRec$[ebp]
  00022	64 a3 00 00 00
	00		 mov	 DWORD PTR fs:0, eax
  00028	8b f1		 mov	 esi, ecx
  0002a	89 75 d8	 mov	 DWORD PTR _this$1$[ebp], esi
  0002d	33 ff		 xor	 edi, edi

; 685  : 	CString packetNames;

  0002f	8d 4d e8	 lea	 ecx, DWORD PTR _packetNames$[ebp]
  00032	89 7d e0	 mov	 DWORD PTR $T5[ebp], edi
  00035	ff 15 00 00 00
	00		 call	 DWORD PTR __imp_??0?$CStringT@DV?$StrTraitMFC_DLL@DV?$ChTraitsCRT@D@ATL@@@@@ATL@@QAE@XZ

; 686  : 	POSITION pos = m_subGraphPacketList.GetHeadPosition();

  0003b	8d 9e 94 00 00
	00		 lea	 ebx, DWORD PTR [esi+148]
  00041	89 7d fc	 mov	 DWORD PTR __$EHRec$[ebp+8], edi
  00044	8b cb		 mov	 ecx, ebx
  00046	e8 00 00 00 00	 call	 ?GetHeadPosition@CSubGraphPacketList@@QBEPAU__POSITION@@XZ ; CSubGraphPacketList::GetHeadPosition
  0004b	89 45 e4	 mov	 DWORD PTR _pos$[ebp], eax

; 687  : 	while(pos != NULL){

  0004e	85 c0		 test	 eax, eax
  00050	0f 84 81 00 00
	00		 je	 $LN3@GetSubGrap
$LL2@GetSubGrap:

; 688  : 		CPacket* pPacket = m_subGraphPacketList.GetNext(pos);

  00056	8d 45 e4	 lea	 eax, DWORD PTR _pos$[ebp]
  00059	8b cb		 mov	 ecx, ebx
  0005b	50		 push	 eax
  0005c	e8 00 00 00 00	 call	 ?GetNext@CSubGraphPacketList@@QBEPAVCPacket@@AAPAU__POSITION@@@Z ; CSubGraphPacketList::GetNext

; 690  : 		packetNames += (pPacket->GetName() + ',');

  00061	8d 4d dc	 lea	 ecx, DWORD PTR $T4[ebp]
  00064	51		 push	 ecx
  00065	8b c8		 mov	 ecx, eax
  00067	ff 15 00 00 00
	00		 call	 DWORD PTR __imp_?GetName@CPacket@@QAE?AV?$CStringT@DV?$StrTraitMFC_DLL@DV?$ChTraitsCRT@D@ATL@@@@@ATL@@XZ
  0006d	8b f0		 mov	 esi, eax
; File C:\Program Files (x86)\Microsoft Visual Studio\2019\Community\VC\Tools\MSVC\14.29.30133\atlmfc\include\cstringt.h

; 2429 : 		CStringT strResult( str1.GetManager() );

  0006f	8b ce		 mov	 ecx, esi
; File D:\git\src\IBK\IBK_DRFN\ProjSrc\SrcChartEx\ChartOCX\ChartObject\SubGraph.cpp

; 690  : 		packetNames += (pPacket->GetName() + ',');

  00071	c6 45 fc 02	 mov	 BYTE PTR __$EHRec$[ebp+8], 2
; File C:\Program Files (x86)\Microsoft Visual Studio\2019\Community\VC\Tools\MSVC\14.29.30133\atlmfc\include\cstringt.h

; 2429 : 		CStringT strResult( str1.GetManager() );

  00075	ff 15 00 00 00
	00		 call	 DWORD PTR __imp_?GetManager@?$CStringT@DV?$StrTraitMFC_DLL@DV?$ChTraitsCRT@D@ATL@@@@@ATL@@QBEPAUIAtlStringMgr@2@XZ
  0007b	50		 push	 eax
  0007c	8d 4d ec	 lea	 ecx, DWORD PTR $T7[ebp]
  0007f	ff 15 00 00 00
	00		 call	 DWORD PTR __imp_??0?$CStringT@DV?$StrTraitMFC_DLL@DV?$ChTraitsCRT@D@ATL@@@@@ATL@@QAE@PAUIAtlStringMgr@1@@Z
; File C:\Program Files (x86)\Microsoft Visual Studio\2019\Community\VC\Tools\MSVC\14.29.30133\atlmfc\include\atlsimpstr.h

; 519  : 		return( GetData()->nDataLength );

  00085	8b 06		 mov	 eax, DWORD PTR [esi]
; File C:\Program Files (x86)\Microsoft Visual Studio\2019\Community\VC\Tools\MSVC\14.29.30133\atlmfc\include\cstringt.h

; 2432 : 		CThisSimpleString::Concatenate( strResult, str1, str1.GetLength(), &chTemp, 1 );

  00087	8d 4d f3	 lea	 ecx, DWORD PTR _chTemp$8[ebp]
  0008a	6a 01		 push	 1
  0008c	51		 push	 ecx
  0008d	c6 45 f3 2c	 mov	 BYTE PTR _chTemp$8[ebp], 44 ; 0000002cH

; 2433 : 
; 2434 : 		return( strResult );

  00091	83 cf 02	 or	 edi, 2
  00094	ff 70 f4	 push	 DWORD PTR [eax-12]
  00097	89 7d e0	 mov	 DWORD PTR $T5[ebp], edi
  0009a	50		 push	 eax
  0009b	8d 45 ec	 lea	 eax, DWORD PTR $T7[ebp]
  0009e	50		 push	 eax
  0009f	ff 15 00 00 00
	00		 call	 DWORD PTR __imp_?Concatenate@?$CSimpleStringT@D$00@ATL@@KAXAAV12@PBDH1H@Z
  000a5	83 c4 14	 add	 esp, 20			; 00000014H
; File D:\git\src\IBK\IBK_DRFN\ProjSrc\SrcChartEx\ChartOCX\ChartObject\SubGraph.cpp

; 690  : 		packetNames += (pPacket->GetName() + ',');

  000a8	8d 45 ec	 lea	 eax, DWORD PTR $T7[ebp]
  000ab	8d 4d e8	 lea	 ecx, DWORD PTR _packetNames$[ebp]
  000ae	50		 push	 eax
  000af	ff 15 00 00 00
	00		 call	 DWORD PTR __imp_??Y?$CStringT@DV?$StrTraitMFC_DLL@DV?$ChTraitsCRT@D@ATL@@@@@ATL@@QAEAAV01@ABV?$CSimpleStringT@D$00@1@@Z
  000b5	8d 4d ec	 lea	 ecx, DWORD PTR $T7[ebp]
  000b8	83 e7 fd	 and	 edi, -3			; fffffffdH
  000bb	ff 15 00 00 00
	00		 call	 DWORD PTR __imp_??1?$CStringT@DV?$StrTraitMFC_DLL@DV?$ChTraitsCRT@D@ATL@@@@@ATL@@QAE@XZ
  000c1	8d 4d dc	 lea	 ecx, DWORD PTR $T4[ebp]
  000c4	c6 45 fc 00	 mov	 BYTE PTR __$EHRec$[ebp+8], 0
  000c8	ff 15 00 00 00
	00		 call	 DWORD PTR __imp_??1?$CStringT@DV?$StrTraitMFC_DLL@DV?$ChTraitsCRT@D@ATL@@@@@ATL@@QAE@XZ
  000ce	83 7d e4 00	 cmp	 DWORD PTR _pos$[ebp], 0
  000d2	75 82		 jne	 SHORT $LL2@GetSubGrap
  000d4	8b 75 d8	 mov	 esi, DWORD PTR _this$1$[ebp]
$LN3@GetSubGrap:

; 184  : 	if(m_pSubGraphList == NULL)

  000d7	8b 4e 08	 mov	 ecx, DWORD PTR [esi+8]
  000da	85 c9		 test	 ecx, ecx
  000dc	75 04		 jne	 SHORT $LN23@GetSubGrap

; 185  : 		return NULL;

  000de	33 c0		 xor	 eax, eax
  000e0	eb 05		 jmp	 SHORT $LN22@GetSubGrap
$LN23@GetSubGrap:

; 186  : 
; 187  : 	return m_pSubGraphList->GetGraph();

  000e2	e8 00 00 00 00	 call	 ?GetGraph@CSubGraphList@@QBEPAVCGraphImp@@XZ ; CSubGraphList::GetGraph
$LN22@GetSubGrap:

; 691  : 	}
; 692  : 
; 693  : 	return CSubGraphViewData(m_subGraphData.GetType(), m_subGraphData.GetStyle(), m_subGraphData.GetTitle(), packetNames, GetGraph()->GetGraphRQ());

  000e7	8b 10		 mov	 edx, DWORD PTR [eax]
  000e9	8b c8		 mov	 ecx, eax
  000eb	ff 52 1c	 call	 DWORD PTR [edx+28]
  000ee	50		 push	 eax
  000ef	8d 4d ec	 lea	 ecx, DWORD PTR $T6[ebp]
  000f2	ff 15 00 00 00
	00		 call	 DWORD PTR __imp_??0?$CStringT@DV?$StrTraitMFC_DLL@DV?$ChTraitsCRT@D@ATL@@@@@ATL@@QAE@PBD@Z
  000f8	8d 45 d8	 lea	 eax, DWORD PTR $T2[ebp]
  000fb	c6 45 fc 03	 mov	 BYTE PTR __$EHRec$[ebp+8], 3
  000ff	83 c6 0c	 add	 esi, 12			; 0000000cH
  00102	50		 push	 eax
  00103	8b ce		 mov	 ecx, esi
  00105	ff 15 00 00 00
	00		 call	 DWORD PTR __imp_?GetTitle@CSubGraphDataBase@@QBE?AV?$CStringT@DV?$StrTraitMFC_DLL@DV?$ChTraitsCRT@D@ATL@@@@@ATL@@XZ
  0010b	8d 4d ec	 lea	 ecx, DWORD PTR $T6[ebp]
  0010e	c6 45 fc 04	 mov	 BYTE PTR __$EHRec$[ebp+8], 4
  00112	51		 push	 ecx
  00113	8d 4d e8	 lea	 ecx, DWORD PTR _packetNames$[ebp]
  00116	51		 push	 ecx
  00117	50		 push	 eax
  00118	8d 45 dc	 lea	 eax, DWORD PTR $T3[ebp]
  0011b	8b ce		 mov	 ecx, esi
  0011d	50		 push	 eax
  0011e	ff 15 00 00 00
	00		 call	 DWORD PTR __imp_?GetStyle@CSubGraphDataBase@@QBE?AVCGraphStyle@@XZ
  00124	50		 push	 eax
  00125	8b ce		 mov	 ecx, esi
  00127	ff 15 00 00 00
	00		 call	 DWORD PTR __imp_?GetType@CSubGraphDataBase@@QBE?AW4GRAPHTYPE@CGraphBaseData@@XZ
  0012d	8b 4d 08	 mov	 ecx, DWORD PTR ___$ReturnUdt$[ebp]
  00130	50		 push	 eax
  00131	e8 00 00 00 00	 call	 ??0CSubGraphViewData@@QAE@W4GRAPHTYPE@CGraphBaseData@@ABVCGraphStyle@@ABV?$CStringT@DV?$StrTraitMFC_DLL@DV?$ChTraitsCRT@D@ATL@@@@@ATL@@22@Z ; CSubGraphViewData::CSubGraphViewData
  00136	8d 4d d8	 lea	 ecx, DWORD PTR $T2[ebp]
  00139	ff 15 00 00 00
	00		 call	 DWORD PTR __imp_??1?$CStringT@DV?$StrTraitMFC_DLL@DV?$ChTraitsCRT@D@ATL@@@@@ATL@@QAE@XZ
  0013f	8d 4d ec	 lea	 ecx, DWORD PTR $T6[ebp]
  00142	ff 15 00 00 00
	00		 call	 DWORD PTR __imp_??1?$CStringT@DV?$StrTraitMFC_DLL@DV?$ChTraitsCRT@D@ATL@@@@@ATL@@QAE@XZ
  00148	8d 4d e8	 lea	 ecx, DWORD PTR _packetNames$[ebp]
  0014b	ff 15 00 00 00
	00		 call	 DWORD PTR __imp_??1?$CStringT@DV?$StrTraitMFC_DLL@DV?$ChTraitsCRT@D@ATL@@@@@ATL@@QAE@XZ
  00151	8b 45 08	 mov	 eax, DWORD PTR ___$ReturnUdt$[ebp]

; 694  : }

  00154	8b 4d f4	 mov	 ecx, DWORD PTR __$EHRec$[ebp]
  00157	64 89 0d 00 00
	00 00		 mov	 DWORD PTR fs:0, ecx
  0015e	59		 pop	 ecx
  0015f	5f		 pop	 edi
  00160	5e		 pop	 esi
  00161	5b		 pop	 ebx
  00162	8b e5		 mov	 esp, ebp
  00164	5d		 pop	 ebp
  00165	c2 0c 00	 ret	 12			; 0000000cH
_TEXT	ENDS
;	COMDAT text$x
text$x	SEGMENT
__unwindfunclet$?GetSubGraphViewData@CSubGraph@@ABE?AVCSubGraphViewData@@ABV?$CStringT@DV?$StrTraitMFC_DLL@DV?$ChTraitsCRT@D@ATL@@@@@ATL@@0@Z$0:
  00000	8d 4d e8	 lea	 ecx, DWORD PTR _packetNames$[ebp]
  00003	ff 25 00 00 00
	00		 jmp	 DWORD PTR __imp_??1?$CStringT@DV?$StrTraitMFC_DLL@DV?$ChTraitsCRT@D@ATL@@@@@ATL@@QAE@XZ
__unwindfunclet$?GetSubGraphViewData@CSubGraph@@ABE?AVCSubGraphViewData@@ABV?$CStringT@DV?$StrTraitMFC_DLL@DV?$ChTraitsCRT@D@ATL@@@@@ATL@@0@Z$1:
  00009	8d 4d dc	 lea	 ecx, DWORD PTR $T4[ebp]
  0000c	ff 25 00 00 00
	00		 jmp	 DWORD PTR __imp_??1?$CStringT@DV?$StrTraitMFC_DLL@DV?$ChTraitsCRT@D@ATL@@@@@ATL@@QAE@XZ
__unwindfunclet$?GetSubGraphViewData@CSubGraph@@ABE?AVCSubGraphViewData@@ABV?$CStringT@DV?$StrTraitMFC_DLL@DV?$ChTraitsCRT@D@ATL@@@@@ATL@@0@Z$6:
  00012	8b 45 e0	 mov	 eax, DWORD PTR $T5[ebp]
  00015	83 e0 02	 and	 eax, 2
  00018	0f 84 0d 00 00
	00		 je	 $LN15@GetSubGrap
  0001e	83 65 e0 fd	 and	 DWORD PTR $T5[ebp], -3	; fffffffdH
  00022	8d 4d ec	 lea	 ecx, DWORD PTR $T7[ebp]
  00025	ff 25 00 00 00
	00		 jmp	 DWORD PTR __imp_??1?$CStringT@DV?$StrTraitMFC_DLL@DV?$ChTraitsCRT@D@ATL@@@@@ATL@@QAE@XZ
$LN15@GetSubGrap:
  0002b	c3		 ret	 0
__unwindfunclet$?GetSubGraphViewData@CSubGraph@@ABE?AVCSubGraphViewData@@ABV?$CStringT@DV?$StrTraitMFC_DLL@DV?$ChTraitsCRT@D@ATL@@@@@ATL@@0@Z$3:
  0002c	8d 4d ec	 lea	 ecx, DWORD PTR $T6[ebp]
  0002f	ff 25 00 00 00
	00		 jmp	 DWORD PTR __imp_??1?$CStringT@DV?$StrTraitMFC_DLL@DV?$ChTraitsCRT@D@ATL@@@@@ATL@@QAE@XZ
__unwindfunclet$?GetSubGraphViewData@CSubGraph@@ABE?AVCSubGraphViewData@@ABV?$CStringT@DV?$StrTraitMFC_DLL@DV?$ChTraitsCRT@D@ATL@@@@@ATL@@0@Z$4:
  00035	8d 4d d8	 lea	 ecx, DWORD PTR $T2[ebp]
  00038	ff 25 00 00 00
	00		 jmp	 DWORD PTR __imp_??1?$CStringT@DV?$StrTraitMFC_DLL@DV?$ChTraitsCRT@D@ATL@@@@@ATL@@QAE@XZ
  0003e	cc		 int	 3
  0003f	cc		 int	 3
  00040	cc		 int	 3
  00041	cc		 int	 3
  00042	cc		 int	 3
__ehhandler$?GetSubGraphViewData@CSubGraph@@ABE?AVCSubGraphViewData@@ABV?$CStringT@DV?$StrTraitMFC_DLL@DV?$ChTraitsCRT@D@ATL@@@@@ATL@@0@Z:
  00043	90		 npad	 1
  00044	90		 npad	 1
  00045	8b 54 24 08	 mov	 edx, DWORD PTR [esp+8]
  00049	8d 42 0c	 lea	 eax, DWORD PTR [edx+12]
  0004c	8b 4a d4	 mov	 ecx, DWORD PTR [edx-44]
  0004f	33 c8		 xor	 ecx, eax
  00051	e8 00 00 00 00	 call	 @__security_check_cookie@4
  00056	b8 00 00 00 00	 mov	 eax, OFFSET __ehfuncinfo$?GetSubGraphViewData@CSubGraph@@ABE?AVCSubGraphViewData@@ABV?$CStringT@DV?$StrTraitMFC_DLL@DV?$ChTraitsCRT@D@ATL@@@@@ATL@@0@Z
  0005b	e9 00 00 00 00	 jmp	 ___CxxFrameHandler3
text$x	ENDS
?GetSubGraphViewData@CSubGraph@@ABE?AVCSubGraphViewData@@ABV?$CStringT@DV?$StrTraitMFC_DLL@DV?$ChTraitsCRT@D@ATL@@@@@ATL@@0@Z ENDP ; CSubGraph::GetSubGraphViewData
; Function compile flags: /Ogtp
; File D:\git\src\IBK\IBK_DRFN\ProjSrc\SrcChartEx\ChartOCX\ChartObject\SubGraph.cpp
; File D:\git\src\IBK\IBK_DRFN\ProjSrc\SrcChartEx\ChartOCX\Include_Chart\SelectSubGraphData.h
; File D:\git\src\IBK\IBK_DRFN\ProjSrc\SrcChartEx\ChartOCX\ChartObject\SubGraph.cpp
; File D:\git\src\IBK\IBK_DRFN\ProjSrc\SrcChartEx\ChartOCX\Include_Chart\SelectSubGraphData.h
; File D:\git\src\IBK\IBK_DRFN\ProjSrc\SrcChartEx\ChartOCX\ChartObject\SubGraph.cpp
;	COMDAT ?GetSelectSubGraphData_Etc@CSubGraph@@ABE_NAAVCSelectSubGraphData@@@Z
_TEXT	SEGMENT
$T2 = -24						; size = 8
_strRQ$ = -16						; size = 4
__$EHRec$ = -12						; size = 12
$T3 = 8							; size = 4
$T4 = 8							; size = 4
_selectSubGraphData$ = 8				; size = 4
?GetSelectSubGraphData_Etc@CSubGraph@@ABE_NAAVCSelectSubGraphData@@@Z PROC ; CSubGraph::GetSelectSubGraphData_Etc, COMDAT
; _this$ = ecx

; 654  : {

  00000	55		 push	 ebp
  00001	8b ec		 mov	 ebp, esp
  00003	6a ff		 push	 -1
  00005	68 00 00 00 00	 push	 __ehhandler$?GetSelectSubGraphData_Etc@CSubGraph@@ABE_NAAVCSelectSubGraphData@@@Z
  0000a	64 a1 00 00 00
	00		 mov	 eax, DWORD PTR fs:0
  00010	50		 push	 eax
  00011	83 ec 0c	 sub	 esp, 12			; 0000000cH
  00014	53		 push	 ebx
  00015	56		 push	 esi
  00016	57		 push	 edi
  00017	a1 00 00 00 00	 mov	 eax, DWORD PTR ___security_cookie
  0001c	33 c5		 xor	 eax, ebp
  0001e	50		 push	 eax
  0001f	8d 45 f4	 lea	 eax, DWORD PTR __$EHRec$[ebp]
  00022	64 a3 00 00 00
	00		 mov	 DWORD PTR fs:0, eax
  00028	8b f1		 mov	 esi, ecx

; 655  : 	if(m_pMainBlockBaseData == NULL)

  0002a	83 7e 04 00	 cmp	 DWORD PTR [esi+4], 0
  0002e	0f 84 5f 01 00
	00		 je	 $LN19@GetSelectS

; 184  : 	if(m_pSubGraphList == NULL)

  00034	8b 4e 08	 mov	 ecx, DWORD PTR [esi+8]
  00037	85 c9		 test	 ecx, ecx
  00039	0f 84 54 01 00
	00		 je	 $LN19@GetSelectS

; 186  : 
; 187  : 	return m_pSubGraphList->GetGraph();

  0003f	e8 00 00 00 00	 call	 ?GetGraph@CSubGraphList@@QBEPAVCGraphImp@@XZ ; CSubGraphList::GetGraph
  00044	8b f8		 mov	 edi, eax

; 656  : 		return false;
; 657  : 
; 658  : 	CGraphImp* pGraph = GetGraph();
; 659  : 	if(pGraph == NULL)

  00046	85 ff		 test	 edi, edi
  00048	0f 84 45 01 00
	00		 je	 $LN19@GetSelectS

; 661  : 
; 662  : 	// CIndicatorInfo
; 663  : 	selectSubGraphData.SetIndicatorInfo(pGraph->GetIndicatorInfo());

  0004e	8b cf		 mov	 ecx, edi
  00050	e8 00 00 00 00	 call	 ?GetIndicatorInfo@CGraphImp@@QAEPAVCIndicatorInfo@@XZ ; CGraphImp::GetIndicatorInfo
  00055	8b 5d 08	 mov	 ebx, DWORD PTR _selectSubGraphData$[ebp]
  00058	8b cb		 mov	 ecx, ebx
  0005a	50		 push	 eax
  0005b	e8 00 00 00 00	 call	 ?SetIndicatorInfo@CSelectSubGraphData@@QAEXPAVCIndicatorInfo@@@Z ; CSelectSubGraphData::SetIndicatorInfo

; 664  : 	// 
; 665  : 	selectSubGraphData.SetGraphName(		pGraph->GetGraphData().GetGraphName());

  00060	8d 45 08	 lea	 eax, DWORD PTR $T4[ebp]
  00063	8b cf		 mov	 ecx, edi
  00065	50		 push	 eax
  00066	e8 00 00 00 00	 call	 ?GetGraphData@CGraphImp@@QAEAAVCGraphData@@XZ ; CGraphImp::GetGraphData
  0006b	8b c8		 mov	 ecx, eax
  0006d	ff 15 00 00 00
	00		 call	 DWORD PTR __imp_?GetGraphName@CGraphData@@QBE?AV?$CStringT@DV?$StrTraitMFC_DLL@DV?$ChTraitsCRT@D@ATL@@@@@ATL@@XZ
  00073	50		 push	 eax
  00074	8b cb		 mov	 ecx, ebx
  00076	c7 45 fc 00 00
	00 00		 mov	 DWORD PTR __$EHRec$[ebp+8], 0
  0007d	e8 00 00 00 00	 call	 ?SetGraphName@CSelectSubGraphData@@QAEXABV?$CStringT@DV?$StrTraitMFC_DLL@DV?$ChTraitsCRT@D@ATL@@@@@ATL@@@Z ; CSelectSubGraphData::SetGraphName
  00082	8d 4d 08	 lea	 ecx, DWORD PTR $T4[ebp]
  00085	c7 45 fc ff ff
	ff ff		 mov	 DWORD PTR __$EHRec$[ebp+8], -1
  0008c	ff 15 00 00 00
	00		 call	 DWORD PTR __imp_??1?$CStringT@DV?$StrTraitMFC_DLL@DV?$ChTraitsCRT@D@ATL@@@@@ATL@@QAE@XZ

; 666  : 	selectSubGraphData.SetIndicatorName(	pGraph->GetGraphData().GetIndicatorName());

  00092	8d 45 08	 lea	 eax, DWORD PTR $T3[ebp]
  00095	8b cf		 mov	 ecx, edi
  00097	50		 push	 eax
  00098	e8 00 00 00 00	 call	 ?GetGraphData@CGraphImp@@QAEAAVCGraphData@@XZ ; CGraphImp::GetGraphData
  0009d	8b c8		 mov	 ecx, eax
  0009f	ff 15 00 00 00
	00		 call	 DWORD PTR __imp_?GetIndicatorName@CGraphData@@QBE?AV?$CStringT@DV?$StrTraitMFC_DLL@DV?$ChTraitsCRT@D@ATL@@@@@ATL@@XZ
; File D:\git\src\IBK\IBK_DRFN\ProjSrc\SrcChartEx\ChartOCX\Include_Chart\SelectSubGraphData.h

; 25   : 	void SetIndicatorName( const CString &p_strIndicatorName)	{	m_strIndicatorName = p_strIndicatorName;	}

  000a5	50		 push	 eax
  000a6	8d 4b 08	 lea	 ecx, DWORD PTR [ebx+8]
; File D:\git\src\IBK\IBK_DRFN\ProjSrc\SrcChartEx\ChartOCX\ChartObject\SubGraph.cpp

; 666  : 	selectSubGraphData.SetIndicatorName(	pGraph->GetGraphData().GetIndicatorName());

  000a9	c7 45 fc 01 00
	00 00		 mov	 DWORD PTR __$EHRec$[ebp+8], 1
; File D:\git\src\IBK\IBK_DRFN\ProjSrc\SrcChartEx\ChartOCX\Include_Chart\SelectSubGraphData.h

; 25   : 	void SetIndicatorName( const CString &p_strIndicatorName)	{	m_strIndicatorName = p_strIndicatorName;	}

  000b0	ff 15 00 00 00
	00		 call	 DWORD PTR __imp_??4?$CStringT@DV?$StrTraitMFC_DLL@DV?$ChTraitsCRT@D@ATL@@@@@ATL@@QAEAAV01@ABV01@@Z
; File D:\git\src\IBK\IBK_DRFN\ProjSrc\SrcChartEx\ChartOCX\ChartObject\SubGraph.cpp

; 666  : 	selectSubGraphData.SetIndicatorName(	pGraph->GetGraphData().GetIndicatorName());

  000b6	8d 4d 08	 lea	 ecx, DWORD PTR $T3[ebp]
  000b9	c7 45 fc ff ff
	ff ff		 mov	 DWORD PTR __$EHRec$[ebp+8], -1
  000c0	ff 15 00 00 00
	00		 call	 DWORD PTR __imp_??1?$CStringT@DV?$StrTraitMFC_DLL@DV?$ChTraitsCRT@D@ATL@@@@@ATL@@QAE@XZ

; 667  : 	//   start/end
; 668  : 	selectSubGraphData.SetDisplayAttributes(m_pMainBlockBaseData->GetDisplayAttributes());

  000c6	8b 4e 04	 mov	 ecx, DWORD PTR [esi+4]
  000c9	8d 45 e8	 lea	 eax, DWORD PTR $T2[ebp]
  000cc	50		 push	 eax
  000cd	e8 00 00 00 00	 call	 ?GetDisplayAttributes@CMainBlockBaseData@@QBE?AVCDisplayAttributes@@XZ ; CMainBlockBaseData::GetDisplayAttributes
  000d2	50		 push	 eax
  000d3	8b cb		 mov	 ecx, ebx
  000d5	e8 00 00 00 00	 call	 ?SetDisplayAttributes@CSelectSubGraphData@@QAEXABVCDisplayAttributes@@@Z ; CSelectSubGraphData::SetDisplayAttributes

; 669  : 	//  packet .
; 670  : 	selectSubGraphData.SetSubGraphPacketList(const_cast<CSubGraphPacketList*>(&m_subGraphPacketList));

  000da	8d be 94 00 00
	00		 lea	 edi, DWORD PTR [esi+148]
  000e0	8b cb		 mov	 ecx, ebx
  000e2	57		 push	 edi
  000e3	e8 00 00 00 00	 call	 ?SetSubGraphPacketList@CSelectSubGraphData@@QAEXPAVCSubGraphPacketList@@@Z ; CSelectSubGraphData::SetSubGraphPacketList

; 671  : 	// XScale  Set.
; 672  : 	selectSubGraphData.SetXScaleManager(m_pMainBlockBaseData->GetMainAttributes().GetXScaleManager());

  000e8	8b 4e 04	 mov	 ecx, DWORD PTR [esi+4]
  000eb	e8 00 00 00 00	 call	 ?GetMainAttributes@CMainBlockBaseData@@QAEAAVCMainAttributes@@XZ ; CMainBlockBaseData::GetMainAttributes
  000f0	8b c8		 mov	 ecx, eax
  000f2	e8 00 00 00 00	 call	 ?GetXScaleManager@CMainAttributes@@QBEPAVCXScaleManager@@XZ ; CMainAttributes::GetXScaleManager
  000f7	50		 push	 eax
  000f8	8b cb		 mov	 ecx, ebx
  000fa	e8 00 00 00 00	 call	 ?SetXScaleManager@CSelectSubGraphData@@QAEXPAVCXScaleManager@@@Z ; CSelectSubGraphData::SetXScaleManager

; 184  : 	if(m_pSubGraphList == NULL)

  000ff	8b 4e 08	 mov	 ecx, DWORD PTR [esi+8]
  00102	85 c9		 test	 ecx, ecx
  00104	75 04		 jne	 SHORT $LN17@GetSelectS

; 185  : 		return NULL;

  00106	33 c0		 xor	 eax, eax
  00108	eb 05		 jmp	 SHORT $LN16@GetSelectS
$LN17@GetSelectS:

; 186  : 
; 187  : 	return m_pSubGraphList->GetGraph();

  0010a	e8 00 00 00 00	 call	 ?GetGraph@CSubGraphList@@QBEPAVCGraphImp@@XZ ; CSubGraphList::GetGraph
$LN16@GetSelectS:

; 673  : 	// RQ  Set
; 674  : 	CString strRQ = GetGraph()->GetGraphRQ();

  0010f	8b 10		 mov	 edx, DWORD PTR [eax]
  00111	8b c8		 mov	 ecx, eax
  00113	ff 52 1c	 call	 DWORD PTR [edx+28]
  00116	50		 push	 eax
  00117	8d 4d f0	 lea	 ecx, DWORD PTR _strRQ$[ebp]
  0011a	ff 15 00 00 00
	00		 call	 DWORD PTR __imp_??0?$CStringT@DV?$StrTraitMFC_DLL@DV?$ChTraitsCRT@D@ATL@@@@@ATL@@QAE@PBD@Z

; 675  : 	selectSubGraphData.SetRQ(strRQ);

  00120	51		 push	 ecx
  00121	8d 45 f0	 lea	 eax, DWORD PTR _strRQ$[ebp]
  00124	c7 45 fc 02 00
	00 00		 mov	 DWORD PTR __$EHRec$[ebp+8], 2
  0012b	8b cc		 mov	 ecx, esp
  0012d	50		 push	 eax
  0012e	ff 15 00 00 00
	00		 call	 DWORD PTR __imp_??0?$CStringT@DV?$StrTraitMFC_DLL@DV?$ChTraitsCRT@D@ATL@@@@@ATL@@QAE@ABV01@@Z
  00134	8b cb		 mov	 ecx, ebx
  00136	e8 00 00 00 00	 call	 ?SetRQ@CSelectSubGraphData@@QAEXV?$CStringT@DV?$StrTraitMFC_DLL@DV?$ChTraitsCRT@D@ATL@@@@@ATL@@@Z ; CSelectSubGraphData::SetRQ

; 676  : 
; 677  : 	CPacket* pPacket = m_subGraphPacketList.GetHeadPacket();

  0013b	8b cf		 mov	 ecx, edi
  0013d	e8 00 00 00 00	 call	 ?GetHeadPacket@CSubGraphPacketList@@QBEPAVCPacket@@XZ ; CSubGraphPacketList::GetHeadPacket

; 678  : 	return (pPacket != NULL && pPacket->GetCount() > 0);

  00142	85 c0		 test	 eax, eax
  00144	74 2c		 je	 SHORT $LN5@GetSelectS
  00146	8b 10		 mov	 edx, DWORD PTR [eax]
  00148	8b c8		 mov	 ecx, eax
  0014a	ff 52 14	 call	 DWORD PTR [edx+20]
  0014d	85 c0		 test	 eax, eax
  0014f	7e 21		 jle	 SHORT $LN5@GetSelectS
  00151	8d 4d f0	 lea	 ecx, DWORD PTR _strRQ$[ebp]
  00154	b3 01		 mov	 bl, 1
  00156	ff 15 00 00 00
	00		 call	 DWORD PTR __imp_??1?$CStringT@DV?$StrTraitMFC_DLL@DV?$ChTraitsCRT@D@ATL@@@@@ATL@@QAE@XZ
  0015c	8a c3		 mov	 al, bl

; 679  : }

  0015e	8b 4d f4	 mov	 ecx, DWORD PTR __$EHRec$[ebp]
  00161	64 89 0d 00 00
	00 00		 mov	 DWORD PTR fs:0, ecx
  00168	59		 pop	 ecx
  00169	5f		 pop	 edi
  0016a	5e		 pop	 esi
  0016b	5b		 pop	 ebx
  0016c	8b e5		 mov	 esp, ebp
  0016e	5d		 pop	 ebp
  0016f	c2 04 00	 ret	 4
$LN5@GetSelectS:

; 678  : 	return (pPacket != NULL && pPacket->GetCount() > 0);

  00172	8d 4d f0	 lea	 ecx, DWORD PTR _strRQ$[ebp]
  00175	32 db		 xor	 bl, bl
  00177	ff 15 00 00 00
	00		 call	 DWORD PTR __imp_??1?$CStringT@DV?$StrTraitMFC_DLL@DV?$ChTraitsCRT@D@ATL@@@@@ATL@@QAE@XZ
  0017d	8a c3		 mov	 al, bl

; 679  : }

  0017f	8b 4d f4	 mov	 ecx, DWORD PTR __$EHRec$[ebp]
  00182	64 89 0d 00 00
	00 00		 mov	 DWORD PTR fs:0, ecx
  00189	59		 pop	 ecx
  0018a	5f		 pop	 edi
  0018b	5e		 pop	 esi
  0018c	5b		 pop	 ebx
  0018d	8b e5		 mov	 esp, ebp
  0018f	5d		 pop	 ebp
  00190	c2 04 00	 ret	 4
$LN19@GetSelectS:

; 660  : 		return false;

  00193	32 c0		 xor	 al, al

; 679  : }

  00195	8b 4d f4	 mov	 ecx, DWORD PTR __$EHRec$[ebp]
  00198	64 89 0d 00 00
	00 00		 mov	 DWORD PTR fs:0, ecx
  0019f	59		 pop	 ecx
  001a0	5f		 pop	 edi
  001a1	5e		 pop	 esi
  001a2	5b		 pop	 ebx
  001a3	8b e5		 mov	 esp, ebp
  001a5	5d		 pop	 ebp
  001a6	c2 04 00	 ret	 4
_TEXT	ENDS
;	COMDAT text$x
text$x	SEGMENT
__unwindfunclet$?GetSelectSubGraphData_Etc@CSubGraph@@ABE_NAAVCSelectSubGraphData@@@Z$0:
  00000	8d 4d 08	 lea	 ecx, DWORD PTR $T4[ebp]
  00003	ff 25 00 00 00
	00		 jmp	 DWORD PTR __imp_??1?$CStringT@DV?$StrTraitMFC_DLL@DV?$ChTraitsCRT@D@ATL@@@@@ATL@@QAE@XZ
__unwindfunclet$?GetSelectSubGraphData_Etc@CSubGraph@@ABE_NAAVCSelectSubGraphData@@@Z$1:
  00009	8d 4d 08	 lea	 ecx, DWORD PTR $T3[ebp]
  0000c	ff 25 00 00 00
	00		 jmp	 DWORD PTR __imp_??1?$CStringT@DV?$StrTraitMFC_DLL@DV?$ChTraitsCRT@D@ATL@@@@@ATL@@QAE@XZ
__unwindfunclet$?GetSelectSubGraphData_Etc@CSubGraph@@ABE_NAAVCSelectSubGraphData@@@Z$2:
  00012	8d 4d f0	 lea	 ecx, DWORD PTR _strRQ$[ebp]
  00015	ff 25 00 00 00
	00		 jmp	 DWORD PTR __imp_??1?$CStringT@DV?$StrTraitMFC_DLL@DV?$ChTraitsCRT@D@ATL@@@@@ATL@@QAE@XZ
  0001b	cc		 int	 3
  0001c	cc		 int	 3
  0001d	cc		 int	 3
  0001e	cc		 int	 3
  0001f	cc		 int	 3
__ehhandler$?GetSelectSubGraphData_Etc@CSubGraph@@ABE_NAAVCSelectSubGraphData@@@Z:
  00020	90		 npad	 1
  00021	90		 npad	 1
  00022	8b 54 24 08	 mov	 edx, DWORD PTR [esp+8]
  00026	8d 42 0c	 lea	 eax, DWORD PTR [edx+12]
  00029	8b 4a e4	 mov	 ecx, DWORD PTR [edx-28]
  0002c	33 c8		 xor	 ecx, eax
  0002e	e8 00 00 00 00	 call	 @__security_check_cookie@4
  00033	b8 00 00 00 00	 mov	 eax, OFFSET __ehfuncinfo$?GetSelectSubGraphData_Etc@CSubGraph@@ABE_NAAVCSelectSubGraphData@@@Z
  00038	e9 00 00 00 00	 jmp	 ___CxxFrameHandler3
text$x	ENDS
?GetSelectSubGraphData_Etc@CSubGraph@@ABE_NAAVCSelectSubGraphData@@@Z ENDP ; CSubGraph::GetSelectSubGraphData_Etc
; Function compile flags: /Ogtp
; File D:\git\src\IBK\IBK_DRFN\ProjSrc\SrcChartEx\ChartOCX\ChartObject\SubGraph.cpp
;	COMDAT ?GetSelectSubGraphData_InBlock@CSubGraph@@ABE_NAAVCSelectSubGraphData@@@Z
_TEXT	SEGMENT
$T1 = -16						; size = 16
_selectSubGraphData$ = 8				; size = 4
?GetSelectSubGraphData_InBlock@CSubGraph@@ABE_NAAVCSelectSubGraphData@@@Z PROC ; CSubGraph::GetSelectSubGraphData_InBlock, COMDAT
; _this$ = ecx

; 632  : {

  00000	55		 push	 ebp
  00001	8b ec		 mov	 ebp, esp
  00003	83 ec 10	 sub	 esp, 16			; 00000010H
  00006	56		 push	 esi
  00007	8b f1		 mov	 esi, ecx
  00009	57		 push	 edi

; 633  : 	if(m_pMainBlockBaseData == NULL)

  0000a	83 7e 04 00	 cmp	 DWORD PTR [esi+4], 0
  0000e	0f 84 bf 00 00
	00		 je	 $LN22@GetSelectS

; 184  : 	if(m_pSubGraphList == NULL)

  00014	8b 4e 08	 mov	 ecx, DWORD PTR [esi+8]
  00017	85 c9		 test	 ecx, ecx
  00019	0f 84 b4 00 00
	00		 je	 $LN22@GetSelectS

; 185  : 		return NULL;
; 186  : 
; 187  : 	return m_pSubGraphList->GetGraph();

  0001f	e8 00 00 00 00	 call	 ?GetGraph@CSubGraphList@@QBEPAVCGraphImp@@XZ ; CSubGraphList::GetGraph

; 718  : 	if(pGraph == NULL)

  00024	85 c0		 test	 eax, eax
  00026	0f 84 a7 00 00
	00		 je	 $LN22@GetSelectS

; 720  : 
; 721  : 	return pGraph->GetVertScaleGroup();

  0002c	8b c8		 mov	 ecx, eax
  0002e	e8 00 00 00 00	 call	 ?GetVertScaleGroup@CGraphImp@@QBEPAVCVertScaleGroup@@XZ ; CGraphImp::GetVertScaleGroup

; 701  : 	if(pVertScaleGroup == NULL)

  00033	85 c0		 test	 eax, eax
  00035	0f 84 98 00 00
	00		 je	 $LN22@GetSelectS

; 702  : 		return NULL;
; 703  : 
; 704  : 	return pVertScaleGroup->GetVertScaleGroupList()->GetBlock();

  0003b	8b c8		 mov	 ecx, eax
  0003d	e8 00 00 00 00	 call	 ?GetVertScaleGroupList@CVertScaleGroup@@QBEPAVCVertScaleGroupList@@XZ ; CVertScaleGroup::GetVertScaleGroupList
  00042	8b c8		 mov	 ecx, eax
  00044	e8 00 00 00 00	 call	 ?GetBlock@CVertScaleGroupList@@QBEPAVCBlockImp@@XZ ; CVertScaleGroupList::GetBlock
  00049	8b f8		 mov	 edi, eax

; 634  : 		return false;
; 635  : 
; 636  : 	CBlockImp* pBlock = GetBlock();
; 637  : 	if(pBlock == NULL)

  0004b	85 ff		 test	 edi, edi
  0004d	0f 84 80 00 00
	00		 je	 $LN22@GetSelectS

; 639  : 
; 640  : 	// draw order
; 641  : 	selectSubGraphData.SetDrawingOrderType(m_pMainBlockBaseData->GetViewAttributes().GetDrawingOrderType());

  00053	8b 4e 04	 mov	 ecx, DWORD PTR [esi+4]
  00056	53		 push	 ebx
  00057	e8 00 00 00 00	 call	 ?GetViewAttributes@CMainBlockBaseData@@QAEAAVCViewAttributes@@XZ ; CMainBlockBaseData::GetViewAttributes
  0005c	8b c8		 mov	 ecx, eax
  0005e	e8 00 00 00 00	 call	 ?GetDrawingOrderType@CViewAttributes@@QAEAAW4DRAWINGORDER@CDrawingOption@@XZ ; CViewAttributes::GetDrawingOrderType
  00063	8b 5d 08	 mov	 ebx, DWORD PTR _selectSubGraphData$[ebp]
  00066	8b cb		 mov	 ecx, ebx
  00068	ff 30		 push	 DWORD PTR [eax]
  0006a	e8 00 00 00 00	 call	 ?SetDrawingOrderType@CSelectSubGraphData@@QAEXW4DRAWINGORDER@CDrawingOption@@@Z ; CSelectSubGraphData::SetDrawingOrderType

; 642  : 	// log
; 643  : 	selectSubGraphData.SetVertScaleLogType(pBlock->GetBlockData().GetVertScaleLogType());

  0006f	8b cf		 mov	 ecx, edi
  00071	e8 00 00 00 00	 call	 ?GetBlockData@CBlockImp@@QAEAAVCBlockData@@XZ ; CBlockImp::GetBlockData
  00076	8b c8		 mov	 ecx, eax
  00078	e8 00 00 00 00	 call	 ?GetVertScaleLogType@CBlockData@@QAEAA_NXZ ; CBlockData::GetVertScaleLogType
  0007d	8b cb		 mov	 ecx, ebx
  0007f	0f b6 00	 movzx	 eax, BYTE PTR [eax]
  00082	50		 push	 eax
  00083	e8 00 00 00 00	 call	 ?SetVertScaleLogType@CSelectSubGraphData@@QAEX_N@Z ; CSelectSubGraphData::SetVertScaleLogType

; 184  : 	if(m_pSubGraphList == NULL)

  00088	8b 4e 08	 mov	 ecx, DWORD PTR [esi+8]
  0008b	85 c9		 test	 ecx, ecx
  0008d	74 12		 je	 SHORT $LN23@GetSelectS

; 185  : 		return NULL;
; 186  : 
; 187  : 	return m_pSubGraphList->GetGraph();

  0008f	e8 00 00 00 00	 call	 ?GetGraph@CSubGraphList@@QBEPAVCGraphImp@@XZ ; CSubGraphList::GetGraph

; 718  : 	if(pGraph == NULL)

  00094	85 c0		 test	 eax, eax
  00096	74 09		 je	 SHORT $LN23@GetSelectS

; 720  : 
; 721  : 	return pGraph->GetVertScaleGroup();

  00098	8b c8		 mov	 ecx, eax
  0009a	e8 00 00 00 00	 call	 ?GetVertScaleGroup@CGraphImp@@QBEPAVCVertScaleGroup@@XZ ; CGraphImp::GetVertScaleGroup
  0009f	eb 02		 jmp	 SHORT $LN17@GetSelectS
$LN23@GetSelectS:

; 719  : 		return NULL;

  000a1	33 c0		 xor	 eax, eax
$LN17@GetSelectS:

; 644  : 	// invert
; 645  : 	//   - ojtaso (20071023)
; 646  : 	selectSubGraphData.SetVertScaleInvertType(GetVertScaleGroup(GetGraph())->GetVertScaleInvertType());

  000a3	8b c8		 mov	 ecx, eax
  000a5	e8 00 00 00 00	 call	 ?GetVertScaleInvertType@CVertScaleGroup@@QBE_NXZ ; CVertScaleGroup::GetVertScaleInvertType
  000aa	0f b6 c0	 movzx	 eax, al
  000ad	8b cb		 mov	 ecx, ebx
  000af	50		 push	 eax
  000b0	e8 00 00 00 00	 call	 ?SetVertScaleInvertType@CSelectSubGraphData@@QAEX_N@Z ; CSelectSubGraphData::SetVertScaleInvertType

; 647  : 	// hors scale min/max
; 648  : 	selectSubGraphData.SetDisplayDataHorzMinMax(pBlock->GetViewHorzMinMax());

  000b5	8d 45 f0	 lea	 eax, DWORD PTR $T1[ebp]
  000b8	8b cf		 mov	 ecx, edi
  000ba	50		 push	 eax
  000bb	e8 00 00 00 00	 call	 ?GetViewHorzMinMax@CBlockImp@@QAE?AVCDisplayDataMinMax@@XZ ; CBlockImp::GetViewHorzMinMax
  000c0	50		 push	 eax
  000c1	8b cb		 mov	 ecx, ebx
  000c3	e8 00 00 00 00	 call	 ?SetDisplayDataHorzMinMax@CSelectSubGraphData@@QAEXABVCDisplayDataMinMax@@@Z ; CSelectSubGraphData::SetDisplayDataHorzMinMax

; 649  : 	return true;

  000c8	5b		 pop	 ebx
  000c9	5f		 pop	 edi
  000ca	b0 01		 mov	 al, 1

; 650  : }

  000cc	5e		 pop	 esi
  000cd	8b e5		 mov	 esp, ebp
  000cf	5d		 pop	 ebp
  000d0	c2 04 00	 ret	 4
$LN22@GetSelectS:
  000d3	5f		 pop	 edi

; 638  : 		return false;

  000d4	32 c0		 xor	 al, al

; 650  : }

  000d6	5e		 pop	 esi
  000d7	8b e5		 mov	 esp, ebp
  000d9	5d		 pop	 ebp
  000da	c2 04 00	 ret	 4
?GetSelectSubGraphData_InBlock@CSubGraph@@ABE_NAAVCSelectSubGraphData@@@Z ENDP ; CSubGraph::GetSelectSubGraphData_InBlock
_TEXT	ENDS
; Function compile flags: /Ogtp
; File D:\git\src\IBK\IBK_DRFN\ProjSrc\SrcChartEx\ChartOCX\ChartObject\SubGraph.cpp
;	COMDAT ?GetSelectSubGraphData_InVertScaleGroupData@CSubGraph@@ABE_NAAVCSelectSubGraphData@@@Z
_TEXT	SEGMENT
$T1 = -88						; size = 16
$T2 = -72						; size = 68
__$ArrayPad$ = -4					; size = 4
_selectSubGraphData$ = 8				; size = 4
?GetSelectSubGraphData_InVertScaleGroupData@CSubGraph@@ABE_NAAVCSelectSubGraphData@@@Z PROC ; CSubGraph::GetSelectSubGraphData_InVertScaleGroupData, COMDAT
; _this$ = ecx

; 616  : {

  00000	55		 push	 ebp
  00001	8b ec		 mov	 ebp, esp
  00003	83 ec 58	 sub	 esp, 88			; 00000058H
  00006	a1 00 00 00 00	 mov	 eax, DWORD PTR ___security_cookie
  0000b	33 c5		 xor	 eax, ebp
  0000d	89 45 fc	 mov	 DWORD PTR __$ArrayPad$[ebp], eax

; 184  : 	if(m_pSubGraphList == NULL)

  00010	8b 49 08	 mov	 ecx, DWORD PTR [ecx+8]

; 616  : {

  00013	56		 push	 esi
  00014	57		 push	 edi
  00015	8b 7d 08	 mov	 edi, DWORD PTR _selectSubGraphData$[ebp]

; 184  : 	if(m_pSubGraphList == NULL)

  00018	85 c9		 test	 ecx, ecx
  0001a	74 57		 je	 SHORT $LN11@GetSelectS

; 185  : 		return NULL;
; 186  : 
; 187  : 	return m_pSubGraphList->GetGraph();

  0001c	e8 00 00 00 00	 call	 ?GetGraph@CSubGraphList@@QBEPAVCGraphImp@@XZ ; CSubGraphList::GetGraph

; 718  : 	if(pGraph == NULL)

  00021	85 c0		 test	 eax, eax
  00023	74 4e		 je	 SHORT $LN11@GetSelectS

; 719  : 		return NULL;
; 720  : 
; 721  : 	return pGraph->GetVertScaleGroup();

  00025	8b c8		 mov	 ecx, eax
  00027	e8 00 00 00 00	 call	 ?GetVertScaleGroup@CGraphImp@@QBEPAVCVertScaleGroup@@XZ ; CGraphImp::GetVertScaleGroup
  0002c	8b f0		 mov	 esi, eax

; 617  : 	CVertScaleGroup* pVertScaleGroup = GetVertScaleGroup(GetGraph());
; 618  : 	if(pVertScaleGroup == NULL)

  0002e	85 f6		 test	 esi, esi
  00030	74 41		 je	 SHORT $LN11@GetSelectS

; 619  : 		return false;
; 620  : 
; 621  : 	//  graph  .
; 622  : 	CVertScaleGroupList* pVertScaleGroupList = pVertScaleGroup->GetVertScaleGroupList();

  00032	8b ce		 mov	 ecx, esi
  00034	e8 00 00 00 00	 call	 ?GetVertScaleGroupList@CVertScaleGroup@@QBEPAVCVertScaleGroupList@@XZ ; CVertScaleGroup::GetVertScaleGroupList

; 623  : 	assert(pVertScaleGroupList != NULL);
; 624  : 	selectSubGraphData.SetGraphRegions(pVertScaleGroupList->GetGraphRegions());

  00039	8d 4d b8	 lea	 ecx, DWORD PTR $T2[ebp]
  0003c	51		 push	 ecx
  0003d	8b c8		 mov	 ecx, eax
  0003f	e8 00 00 00 00	 call	 ?GetGraphRegions@CVertScaleGroupList@@QBE?AVCGraphRegions@@XZ ; CVertScaleGroupList::GetGraphRegions
  00044	50		 push	 eax
  00045	8b cf		 mov	 ecx, edi
  00047	e8 00 00 00 00	 call	 ?SetGraphRegions@CSelectSubGraphData@@QAEXABVCGraphRegions@@@Z ; CSelectSubGraphData::SetGraphRegions

; 625  : 	// vert scale min/max
; 626  : 	selectSubGraphData.SetDisplayDataVertMinMax(pVertScaleGroup->GetDisplayDataMinMax());

  0004c	8d 45 a8	 lea	 eax, DWORD PTR $T1[ebp]
  0004f	8b ce		 mov	 ecx, esi
  00051	50		 push	 eax
  00052	e8 00 00 00 00	 call	 ?GetDisplayDataMinMax@CVertScaleGroup@@QBE?AVCDisplayDataMinMax@@XZ ; CVertScaleGroup::GetDisplayDataMinMax
  00057	50		 push	 eax
  00058	8b cf		 mov	 ecx, edi
  0005a	e8 00 00 00 00	 call	 ?SetDisplayDataVertMinMax@CSelectSubGraphData@@QAEXABVCDisplayDataMinMax@@@Z ; CSelectSubGraphData::SetDisplayDataVertMinMax
  0005f	5f		 pop	 edi

; 627  : 	return true;

  00060	b0 01		 mov	 al, 1

; 628  : }

  00062	5e		 pop	 esi
  00063	8b 4d fc	 mov	 ecx, DWORD PTR __$ArrayPad$[ebp]
  00066	33 cd		 xor	 ecx, ebp
  00068	e8 00 00 00 00	 call	 @__security_check_cookie@4
  0006d	8b e5		 mov	 esp, ebp
  0006f	5d		 pop	 ebp
  00070	c2 04 00	 ret	 4
$LN11@GetSelectS:
  00073	8b 4d fc	 mov	 ecx, DWORD PTR __$ArrayPad$[ebp]
  00076	32 c0		 xor	 al, al
  00078	5f		 pop	 edi
  00079	33 cd		 xor	 ecx, ebp
  0007b	5e		 pop	 esi
  0007c	e8 00 00 00 00	 call	 @__security_check_cookie@4
  00081	8b e5		 mov	 esp, ebp
  00083	5d		 pop	 ebp
  00084	c2 04 00	 ret	 4
?GetSelectSubGraphData_InVertScaleGroupData@CSubGraph@@ABE_NAAVCSelectSubGraphData@@@Z ENDP ; CSubGraph::GetSelectSubGraphData_InVertScaleGroupData
_TEXT	ENDS
; Function compile flags: /Ogtp
; File D:\git\src\IBK\IBK_DRFN\ProjSrc\SrcChartEx\ChartOCX\ChartObject\SubGraph.cpp
;	COMDAT ?GetSelectSubGraphData@CSubGraph@@ABE_NAAVCSelectSubGraphData@@@Z
_TEXT	SEGMENT
$T1 = -92						; size = 16
$T2 = -92						; size = 16
$T3 = -76						; size = 4
$T4 = -76						; size = 4
$T5 = -72						; size = 68
__$ArrayPad$ = -4					; size = 4
_selectSubGraphData$ = 8				; size = 4
?GetSelectSubGraphData@CSubGraph@@ABE_NAAVCSelectSubGraphData@@@Z PROC ; CSubGraph::GetSelectSubGraphData, COMDAT
; _this$ = ecx

; 599  : {

  00000	55		 push	 ebp
  00001	8b ec		 mov	 ebp, esp
  00003	83 ec 5c	 sub	 esp, 92			; 0000005cH
  00006	a1 00 00 00 00	 mov	 eax, DWORD PTR ___security_cookie
  0000b	33 c5		 xor	 eax, ebp
  0000d	89 45 fc	 mov	 DWORD PTR __$ArrayPad$[ebp], eax
  00010	53		 push	 ebx
  00011	8b d9		 mov	 ebx, ecx
  00013	56		 push	 esi
  00014	57		 push	 edi
  00015	8b 7d 08	 mov	 edi, DWORD PTR _selectSubGraphData$[ebp]

; 600  : 	// type / style / draw style
; 601  : 	selectSubGraphData.SetSubGraphType(m_subGraphData.GetType());

  00018	8d 4b 0c	 lea	 ecx, DWORD PTR [ebx+12]
  0001b	ff 15 00 00 00
	00		 call	 DWORD PTR __imp_?GetType@CSubGraphDataBase@@QBE?AW4GRAPHTYPE@CGraphBaseData@@XZ
  00021	50		 push	 eax
  00022	8b cf		 mov	 ecx, edi
  00024	e8 00 00 00 00	 call	 ?SetSubGraphType@CSelectSubGraphData@@QAEXW4GRAPHTYPE@CGraphBaseData@@@Z ; CSelectSubGraphData::SetSubGraphType

; 602  : 	selectSubGraphData.SetSubGraphStyle(m_subGraphData.GetStyle());

  00029	8d 45 b4	 lea	 eax, DWORD PTR $T4[ebp]
  0002c	50		 push	 eax
  0002d	8d 4b 0c	 lea	 ecx, DWORD PTR [ebx+12]
  00030	ff 15 00 00 00
	00		 call	 DWORD PTR __imp_?GetStyle@CSubGraphDataBase@@QBE?AVCGraphStyle@@XZ
  00036	50		 push	 eax
  00037	8b cf		 mov	 ecx, edi
  00039	e8 00 00 00 00	 call	 ?SetSubGraphStyle@CSelectSubGraphData@@QAEXABVCGraphStyle@@@Z ; CSelectSubGraphData::SetSubGraphStyle

; 603  : 	selectSubGraphData.SetSubGraphDrawStyle(m_subGraphData.GetDrawStyle());

  0003e	8d 45 b4	 lea	 eax, DWORD PTR $T3[ebp]
  00041	50		 push	 eax
  00042	8d 4b 0c	 lea	 ecx, DWORD PTR [ebx+12]
  00045	ff 15 00 00 00
	00		 call	 DWORD PTR __imp_?GetDrawStyle@CSubGraphDataBase@@QBE?AVCGraphDrawStyle@@XZ
  0004b	50		 push	 eax
  0004c	8b cf		 mov	 ecx, edi
  0004e	e8 00 00 00 00	 call	 ?SetSubGraphDrawStyle@CSelectSubGraphData@@QAEXABVCGraphDrawStyle@@@Z ; CSelectSubGraphData::SetSubGraphDrawStyle

; 184  : 	if(m_pSubGraphList == NULL)

  00053	8b 4b 08	 mov	 ecx, DWORD PTR [ebx+8]
  00056	85 c9		 test	 ecx, ecx
  00058	0f 84 20 01 00
	00		 je	 $LN36@GetSelectS

; 185  : 		return NULL;
; 186  : 
; 187  : 	return m_pSubGraphList->GetGraph();

  0005e	e8 00 00 00 00	 call	 ?GetGraph@CSubGraphList@@QBEPAVCGraphImp@@XZ ; CSubGraphList::GetGraph

; 718  : 	if(pGraph == NULL)

  00063	85 c0		 test	 eax, eax
  00065	0f 84 13 01 00
	00		 je	 $LN36@GetSelectS

; 720  : 
; 721  : 	return pGraph->GetVertScaleGroup();

  0006b	8b c8		 mov	 ecx, eax
  0006d	e8 00 00 00 00	 call	 ?GetVertScaleGroup@CGraphImp@@QBEPAVCVertScaleGroup@@XZ ; CGraphImp::GetVertScaleGroup
  00072	8b f0		 mov	 esi, eax

; 618  : 	if(pVertScaleGroup == NULL)

  00074	85 f6		 test	 esi, esi
  00076	0f 84 02 01 00
	00		 je	 $LN36@GetSelectS

; 619  : 		return false;
; 620  : 
; 621  : 	//  graph  .
; 622  : 	CVertScaleGroupList* pVertScaleGroupList = pVertScaleGroup->GetVertScaleGroupList();

  0007c	8b ce		 mov	 ecx, esi
  0007e	e8 00 00 00 00	 call	 ?GetVertScaleGroupList@CVertScaleGroup@@QBEPAVCVertScaleGroupList@@XZ ; CVertScaleGroup::GetVertScaleGroupList

; 623  : 	assert(pVertScaleGroupList != NULL);
; 624  : 	selectSubGraphData.SetGraphRegions(pVertScaleGroupList->GetGraphRegions());

  00083	8d 4d b8	 lea	 ecx, DWORD PTR $T5[ebp]
  00086	51		 push	 ecx
  00087	8b c8		 mov	 ecx, eax
  00089	e8 00 00 00 00	 call	 ?GetGraphRegions@CVertScaleGroupList@@QBE?AVCGraphRegions@@XZ ; CVertScaleGroupList::GetGraphRegions
  0008e	50		 push	 eax
  0008f	8b cf		 mov	 ecx, edi
  00091	e8 00 00 00 00	 call	 ?SetGraphRegions@CSelectSubGraphData@@QAEXABVCGraphRegions@@@Z ; CSelectSubGraphData::SetGraphRegions

; 625  : 	// vert scale min/max
; 626  : 	selectSubGraphData.SetDisplayDataVertMinMax(pVertScaleGroup->GetDisplayDataMinMax());

  00096	8d 45 a4	 lea	 eax, DWORD PTR $T2[ebp]
  00099	8b ce		 mov	 ecx, esi
  0009b	50		 push	 eax
  0009c	e8 00 00 00 00	 call	 ?GetDisplayDataMinMax@CVertScaleGroup@@QBE?AVCDisplayDataMinMax@@XZ ; CVertScaleGroup::GetDisplayDataMinMax
  000a1	50		 push	 eax
  000a2	8b cf		 mov	 ecx, edi
  000a4	e8 00 00 00 00	 call	 ?SetDisplayDataVertMinMax@CSelectSubGraphData@@QAEXABVCDisplayDataMinMax@@@Z ; CSelectSubGraphData::SetDisplayDataVertMinMax

; 633  : 	if(m_pMainBlockBaseData == NULL)

  000a9	83 7b 04 00	 cmp	 DWORD PTR [ebx+4], 0
  000ad	0f 84 cb 00 00
	00		 je	 $LN36@GetSelectS

; 184  : 	if(m_pSubGraphList == NULL)

  000b3	8b 4b 08	 mov	 ecx, DWORD PTR [ebx+8]
  000b6	85 c9		 test	 ecx, ecx
  000b8	0f 84 c0 00 00
	00		 je	 $LN36@GetSelectS

; 185  : 		return NULL;
; 186  : 
; 187  : 	return m_pSubGraphList->GetGraph();

  000be	e8 00 00 00 00	 call	 ?GetGraph@CSubGraphList@@QBEPAVCGraphImp@@XZ ; CSubGraphList::GetGraph

; 718  : 	if(pGraph == NULL)

  000c3	85 c0		 test	 eax, eax
  000c5	0f 84 b3 00 00
	00		 je	 $LN36@GetSelectS

; 720  : 
; 721  : 	return pGraph->GetVertScaleGroup();

  000cb	8b c8		 mov	 ecx, eax
  000cd	e8 00 00 00 00	 call	 ?GetVertScaleGroup@CGraphImp@@QBEPAVCVertScaleGroup@@XZ ; CGraphImp::GetVertScaleGroup

; 701  : 	if(pVertScaleGroup == NULL)

  000d2	85 c0		 test	 eax, eax
  000d4	0f 84 a4 00 00
	00		 je	 $LN36@GetSelectS

; 702  : 		return NULL;
; 703  : 
; 704  : 	return pVertScaleGroup->GetVertScaleGroupList()->GetBlock();

  000da	8b c8		 mov	 ecx, eax
  000dc	e8 00 00 00 00	 call	 ?GetVertScaleGroupList@CVertScaleGroup@@QBEPAVCVertScaleGroupList@@XZ ; CVertScaleGroup::GetVertScaleGroupList
  000e1	8b c8		 mov	 ecx, eax
  000e3	e8 00 00 00 00	 call	 ?GetBlock@CVertScaleGroupList@@QBEPAVCBlockImp@@XZ ; CVertScaleGroupList::GetBlock
  000e8	8b f0		 mov	 esi, eax

; 637  : 	if(pBlock == NULL)

  000ea	85 f6		 test	 esi, esi
  000ec	0f 84 8c 00 00
	00		 je	 $LN36@GetSelectS

; 638  : 		return false;
; 639  : 
; 640  : 	// draw order
; 641  : 	selectSubGraphData.SetDrawingOrderType(m_pMainBlockBaseData->GetViewAttributes().GetDrawingOrderType());

  000f2	8b 4b 04	 mov	 ecx, DWORD PTR [ebx+4]
  000f5	e8 00 00 00 00	 call	 ?GetViewAttributes@CMainBlockBaseData@@QAEAAVCViewAttributes@@XZ ; CMainBlockBaseData::GetViewAttributes
  000fa	8b c8		 mov	 ecx, eax
  000fc	e8 00 00 00 00	 call	 ?GetDrawingOrderType@CViewAttributes@@QAEAAW4DRAWINGORDER@CDrawingOption@@XZ ; CViewAttributes::GetDrawingOrderType
  00101	8b cf		 mov	 ecx, edi
  00103	ff 30		 push	 DWORD PTR [eax]
  00105	e8 00 00 00 00	 call	 ?SetDrawingOrderType@CSelectSubGraphData@@QAEXW4DRAWINGORDER@CDrawingOption@@@Z ; CSelectSubGraphData::SetDrawingOrderType

; 642  : 	// log
; 643  : 	selectSubGraphData.SetVertScaleLogType(pBlock->GetBlockData().GetVertScaleLogType());

  0010a	8b ce		 mov	 ecx, esi
  0010c	e8 00 00 00 00	 call	 ?GetBlockData@CBlockImp@@QAEAAVCBlockData@@XZ ; CBlockImp::GetBlockData
  00111	8b c8		 mov	 ecx, eax
  00113	e8 00 00 00 00	 call	 ?GetVertScaleLogType@CBlockData@@QAEAA_NXZ ; CBlockData::GetVertScaleLogType
  00118	8b cf		 mov	 ecx, edi
  0011a	0f b6 00	 movzx	 eax, BYTE PTR [eax]
  0011d	50		 push	 eax
  0011e	e8 00 00 00 00	 call	 ?SetVertScaleLogType@CSelectSubGraphData@@QAEX_N@Z ; CSelectSubGraphData::SetVertScaleLogType

; 184  : 	if(m_pSubGraphList == NULL)

  00123	8b 4b 08	 mov	 ecx, DWORD PTR [ebx+8]
  00126	85 c9		 test	 ecx, ecx
  00128	74 12		 je	 SHORT $LN40@GetSelectS

; 185  : 		return NULL;
; 186  : 
; 187  : 	return m_pSubGraphList->GetGraph();

  0012a	e8 00 00 00 00	 call	 ?GetGraph@CSubGraphList@@QBEPAVCGraphImp@@XZ ; CSubGraphList::GetGraph

; 718  : 	if(pGraph == NULL)

  0012f	85 c0		 test	 eax, eax
  00131	74 09		 je	 SHORT $LN40@GetSelectS

; 720  : 
; 721  : 	return pGraph->GetVertScaleGroup();

  00133	8b c8		 mov	 ecx, eax
  00135	e8 00 00 00 00	 call	 ?GetVertScaleGroup@CGraphImp@@QBEPAVCVertScaleGroup@@XZ ; CGraphImp::GetVertScaleGroup
  0013a	eb 02		 jmp	 SHORT $LN30@GetSelectS
$LN40@GetSelectS:

; 719  : 		return NULL;

  0013c	33 c0		 xor	 eax, eax
$LN30@GetSelectS:

; 646  : 	selectSubGraphData.SetVertScaleInvertType(GetVertScaleGroup(GetGraph())->GetVertScaleInvertType());

  0013e	8b c8		 mov	 ecx, eax
  00140	e8 00 00 00 00	 call	 ?GetVertScaleInvertType@CVertScaleGroup@@QBE_NXZ ; CVertScaleGroup::GetVertScaleInvertType
  00145	0f b6 c0	 movzx	 eax, al
  00148	8b cf		 mov	 ecx, edi
  0014a	50		 push	 eax
  0014b	e8 00 00 00 00	 call	 ?SetVertScaleInvertType@CSelectSubGraphData@@QAEX_N@Z ; CSelectSubGraphData::SetVertScaleInvertType

; 647  : 	// hors scale min/max
; 648  : 	selectSubGraphData.SetDisplayDataHorzMinMax(pBlock->GetViewHorzMinMax());

  00150	8d 45 a4	 lea	 eax, DWORD PTR $T1[ebp]
  00153	8b ce		 mov	 ecx, esi
  00155	50		 push	 eax
  00156	e8 00 00 00 00	 call	 ?GetViewHorzMinMax@CBlockImp@@QAE?AVCDisplayDataMinMax@@XZ ; CBlockImp::GetViewHorzMinMax
  0015b	50		 push	 eax
  0015c	8b cf		 mov	 ecx, edi
  0015e	e8 00 00 00 00	 call	 ?SetDisplayDataHorzMinMax@CSelectSubGraphData@@QAEXABVCDisplayDataMinMax@@@Z ; CSelectSubGraphData::SetDisplayDataHorzMinMax

; 604  : 	// vertScaleGroup  data
; 605  : 	if(!GetSelectSubGraphData_InVertScaleGroupData(selectSubGraphData))
; 606  : 		return false;
; 607  : 	// block  data
; 608  : 	if(!GetSelectSubGraphData_InBlock(selectSubGraphData))
; 609  : 		return false;
; 610  : 	//  data
; 611  : 	return GetSelectSubGraphData_Etc(selectSubGraphData);

  00163	57		 push	 edi
  00164	8b cb		 mov	 ecx, ebx
  00166	e8 00 00 00 00	 call	 ?GetSelectSubGraphData_Etc@CSubGraph@@ABE_NAAVCSelectSubGraphData@@@Z ; CSubGraph::GetSelectSubGraphData_Etc
  0016b	5f		 pop	 edi

; 612  : }

  0016c	5e		 pop	 esi
  0016d	5b		 pop	 ebx
  0016e	8b 4d fc	 mov	 ecx, DWORD PTR __$ArrayPad$[ebp]
  00171	33 cd		 xor	 ecx, ebp
  00173	e8 00 00 00 00	 call	 @__security_check_cookie@4
  00178	8b e5		 mov	 esp, ebp
  0017a	5d		 pop	 ebp
  0017b	c2 04 00	 ret	 4
$LN36@GetSelectS:
  0017e	8b 4d fc	 mov	 ecx, DWORD PTR __$ArrayPad$[ebp]
  00181	32 c0		 xor	 al, al
  00183	5f		 pop	 edi
  00184	5e		 pop	 esi
  00185	33 cd		 xor	 ecx, ebp
  00187	5b		 pop	 ebx
  00188	e8 00 00 00 00	 call	 @__security_check_cookie@4
  0018d	8b e5		 mov	 esp, ebp
  0018f	5d		 pop	 ebp
  00190	c2 04 00	 ret	 4
?GetSelectSubGraphData@CSubGraph@@ABE_NAAVCSelectSubGraphData@@@Z ENDP ; CSubGraph::GetSelectSubGraphData
_TEXT	ENDS
; Function compile flags: /Ogtp
; File D:\git\src\IBK\IBK_DRFN\ProjSrc\SrcChartEx\ChartOCX\ChartObject\SubGraph.cpp
; File C:\Program Files (x86)\Microsoft Visual Studio\2019\Community\VC\Tools\MSVC\14.29.30133\atlmfc\include\atltypes.h
; File D:\git\src\IBK\IBK_DRFN\ProjSrc\SrcChartEx\ChartOCX\ChartObject\SubGraph.cpp
;	COMDAT ?IsPointInSubGraph@CSubGraph@@ABE_NABVCPoint@@@Z
_TEXT	SEGMENT
$T1 = -156						; size = 4
$T2 = -152						; size = 132
_drawRegion$ = -20					; size = 16
__$ArrayPad$ = -4					; size = 4
_point$ = 8						; size = 4
?IsPointInSubGraph@CSubGraph@@ABE_NABVCPoint@@@Z PROC	; CSubGraph::IsPointInSubGraph, COMDAT
; _this$ = ecx

; 583  : {

  00000	55		 push	 ebp
  00001	8b ec		 mov	 ebp, esp
  00003	81 ec 9c 00 00
	00		 sub	 esp, 156		; 0000009cH
  00009	a1 00 00 00 00	 mov	 eax, DWORD PTR ___security_cookie
  0000e	33 c5		 xor	 eax, ebp
  00010	89 45 fc	 mov	 DWORD PTR __$ArrayPad$[ebp], eax
  00013	53		 push	 ebx
  00014	8b 5d 08	 mov	 ebx, DWORD PTR _point$[ebp]
  00017	56		 push	 esi
  00018	8b f1		 mov	 esi, ecx
  0001a	57		 push	 edi

; 584  : 	// graph   !!
; 585  : 	if(m_subGraphData.GetHiding())

  0001b	8d 7e 0c	 lea	 edi, DWORD PTR [esi+12]
  0001e	8b cf		 mov	 ecx, edi
  00020	ff 15 00 00 00
	00		 call	 DWORD PTR __imp_?GetHiding@CSubGraphData@@ABE_NXZ
  00026	84 c0		 test	 al, al
  00028	75 7d		 jne	 SHORT $LN14@IsPointInS

; 184  : 	if(m_pSubGraphList == NULL)

  0002a	8b 4e 08	 mov	 ecx, DWORD PTR [esi+8]
  0002d	85 c9		 test	 ecx, ecx
  0002f	74 76		 je	 SHORT $LN14@IsPointInS

; 185  : 		return NULL;
; 186  : 
; 187  : 	return m_pSubGraphList->GetGraph();

  00031	e8 00 00 00 00	 call	 ?GetGraph@CSubGraphList@@QBEPAVCGraphImp@@XZ ; CSubGraphList::GetGraph

; 710  : 	if(pGraph == NULL)

  00036	85 c0		 test	 eax, eax
  00038	74 6d		 je	 SHORT $LN14@IsPointInS

; 711  : 		return false;
; 712  : 
; 713  : 	return pGraph->GetVertScaleGroupList();

  0003a	8b c8		 mov	 ecx, eax
  0003c	e8 00 00 00 00	 call	 ?GetVertScaleGroupList@CGraphImp@@QBEPAVCVertScaleGroupList@@XZ ; CGraphImp::GetVertScaleGroupList
  00041	8b f0		 mov	 esi, eax

; 586  : 		return false;
; 587  : 
; 588  : 	CVertScaleGroupList* pVertScaleGroupList = GetVertScaleGroupList();
; 589  : 	if(pVertScaleGroupList == NULL)

  00043	85 f6		 test	 esi, esi
  00045	74 60		 je	 SHORT $LN14@IsPointInS

; 590  : 		return false;
; 591  : 
; 592  : 	CRect drawRegion = pVertScaleGroupList->GetDrawingRegion().GetGraphRegions().GetDrawingRegion(m_subGraphData.GetType(), m_subGraphData.GetStyle());

  00047	8d 85 64 ff ff
	ff		 lea	 eax, DWORD PTR $T1[ebp]
  0004d	8b cf		 mov	 ecx, edi
  0004f	50		 push	 eax
  00050	ff 15 00 00 00
	00		 call	 DWORD PTR __imp_?GetStyle@CSubGraphDataBase@@QBE?AVCGraphStyle@@XZ
  00056	50		 push	 eax
  00057	8b cf		 mov	 ecx, edi
  00059	ff 15 00 00 00
	00		 call	 DWORD PTR __imp_?GetType@CSubGraphDataBase@@QBE?AW4GRAPHTYPE@CGraphBaseData@@XZ
  0005f	50		 push	 eax
  00060	8d 45 ec	 lea	 eax, DWORD PTR _drawRegion$[ebp]
  00063	8b ce		 mov	 ecx, esi
  00065	50		 push	 eax
  00066	8d 85 68 ff ff
	ff		 lea	 eax, DWORD PTR $T2[ebp]
  0006c	50		 push	 eax
  0006d	e8 00 00 00 00	 call	 ?GetDrawingRegion@CVertScaleGroupList@@QBE?AVCDrawingRegion@@XZ ; CVertScaleGroupList::GetDrawingRegion
  00072	8b c8		 mov	 ecx, eax
  00074	e8 00 00 00 00	 call	 ?GetGraphRegions@CDrawingRegion@@QAEAAVCGraphRegions@@XZ ; CDrawingRegion::GetGraphRegions
  00079	8b c8		 mov	 ecx, eax
  0007b	e8 00 00 00 00	 call	 ?GetDrawingRegion@CGraphRegions@@QBE?AVCRect@@W4GRAPHTYPE@CGraphBaseData@@ABVCGraphStyle@@@Z ; CGraphRegions::GetDrawingRegion
; File C:\Program Files (x86)\Microsoft Visual Studio\2019\Community\VC\Tools\MSVC\14.29.30133\atlmfc\include\atltypes.h

; 648  : 	return ::PtInRect(this, point);

  00080	ff 73 04	 push	 DWORD PTR [ebx+4]
  00083	8d 45 ec	 lea	 eax, DWORD PTR _drawRegion$[ebp]
  00086	ff 33		 push	 DWORD PTR [ebx]
  00088	50		 push	 eax
  00089	ff 15 00 00 00
	00		 call	 DWORD PTR __imp__PtInRect@12
  0008f	5f		 pop	 edi
; File D:\git\src\IBK\IBK_DRFN\ProjSrc\SrcChartEx\ChartOCX\ChartObject\SubGraph.cpp

; 593  : 	return drawRegion.PtInRect(point) ? true : false;

  00090	85 c0		 test	 eax, eax

; 594  : }

  00092	5e		 pop	 esi
  00093	0f 95 c0	 setne	 al
  00096	5b		 pop	 ebx
  00097	8b 4d fc	 mov	 ecx, DWORD PTR __$ArrayPad$[ebp]
  0009a	33 cd		 xor	 ecx, ebp
  0009c	e8 00 00 00 00	 call	 @__security_check_cookie@4
  000a1	8b e5		 mov	 esp, ebp
  000a3	5d		 pop	 ebp
  000a4	c2 04 00	 ret	 4
$LN14@IsPointInS:
  000a7	8b 4d fc	 mov	 ecx, DWORD PTR __$ArrayPad$[ebp]
  000aa	32 c0		 xor	 al, al
  000ac	5f		 pop	 edi
  000ad	5e		 pop	 esi
  000ae	33 cd		 xor	 ecx, ebp
  000b0	5b		 pop	 ebx
  000b1	e8 00 00 00 00	 call	 @__security_check_cookie@4
  000b6	8b e5		 mov	 esp, ebp
  000b8	5d		 pop	 ebp
  000b9	c2 04 00	 ret	 4
?IsPointInSubGraph@CSubGraph@@ABE_NABVCPoint@@@Z ENDP	; CSubGraph::IsPointInSubGraph
_TEXT	ENDS
; Function compile flags: /Ogtp
; File D:\git\src\IBK\IBK_DRFN\ProjSrc\SrcChartEx\ChartOCX\ChartObject\SubGraph.cpp
; File C:\Program Files (x86)\Microsoft Visual Studio\2019\Community\VC\Tools\MSVC\14.29.30133\atlmfc\include\cstringt.h
; File D:\git\src\IBK\IBK_DRFN\ProjSrc\SrcChartEx\ChartOCX\ChartObject\SubGraph.cpp
; File C:\Program Files (x86)\Microsoft Visual Studio\2019\Community\VC\Tools\MSVC\14.29.30133\atlmfc\include\cstringt.h
; File D:\git\src\IBK\IBK_DRFN\ProjSrc\SrcChartEx\ChartOCX\ChartObject\SubGraph.cpp
; File C:\Program Files (x86)\Microsoft Visual Studio\2019\Community\VC\Tools\MSVC\14.29.30133\atlmfc\include\cstringt.h
; File D:\git\src\IBK\IBK_DRFN\ProjSrc\SrcChartEx\ChartOCX\ChartObject\SubGraph.cpp
; File C:\Program Files (x86)\Microsoft Visual Studio\2019\Community\VC\Tools\MSVC\14.29.30133\atlmfc\include\cstringt.h
; File D:\git\src\IBK\IBK_DRFN\ProjSrc\SrcChartEx\ChartOCX\ChartObject\SubGraph.cpp
; File C:\Program Files (x86)\Microsoft Visual Studio\2019\Community\VC\Tools\MSVC\14.29.30133\atlmfc\include\cstringt.h
; File D:\git\src\IBK\IBK_DRFN\ProjSrc\SrcChartEx\ChartOCX\ChartObject\SubGraph.cpp
; File C:\Program Files (x86)\Microsoft Visual Studio\2019\Community\VC\Tools\MSVC\14.29.30133\atlmfc\include\cstringt.h
; File D:\git\src\IBK\IBK_DRFN\ProjSrc\SrcChartEx\ChartOCX\ChartObject\SubGraph.cpp
; File C:\Program Files (x86)\Microsoft Visual Studio\2019\Community\VC\Tools\MSVC\14.29.30133\atlmfc\include\cstringt.h
; File D:\git\src\IBK\IBK_DRFN\ProjSrc\SrcChartEx\ChartOCX\ChartObject\SubGraph.cpp
; File C:\Program Files (x86)\Microsoft Visual Studio\2019\Community\VC\Tools\MSVC\14.29.30133\atlmfc\include\cstringt.h
; File D:\git\src\IBK\IBK_DRFN\ProjSrc\SrcChartEx\ChartOCX\ChartObject\SubGraph.cpp
; File C:\Program Files (x86)\Microsoft Visual Studio\2019\Community\VC\Tools\MSVC\14.29.30133\atlmfc\include\cstringt.h
; File D:\git\src\IBK\IBK_DRFN\ProjSrc\SrcChartEx\ChartOCX\ChartObject\SubGraph.cpp
;	COMDAT ?IsAddTail_SubGraphViewData@CSubGraph@@ABE_NABV?$CStringT@DV?$StrTraitMFC_DLL@DV?$ChTraitsCRT@D@ATL@@@@@ATL@@AAVCSubGraphViewDataList@@@Z
_TEXT	SEGMENT
_subGraphViewData$2 = -64				; size = 20
$T3 = -44						; size = 4
$T4 = -40						; size = 4
$T5 = -36						; size = 4
$T6 = -32						; size = 4
_this$1$ = -28						; size = 4
_strRQ$ = -24						; size = 4
$T7 = -20						; size = 4
$T8 = -13						; size = 1
__$EHRec$ = -12						; size = 12
_packetName$ = 8					; size = 4
_subGraphViewDataList$ = 12				; size = 4
?IsAddTail_SubGraphViewData@CSubGraph@@ABE_NABV?$CStringT@DV?$StrTraitMFC_DLL@DV?$ChTraitsCRT@D@ATL@@@@@ATL@@AAVCSubGraphViewDataList@@@Z PROC ; CSubGraph::IsAddTail_SubGraphViewData, COMDAT
; _this$ = ecx

; 571  : { 

  00000	55		 push	 ebp
  00001	8b ec		 mov	 ebp, esp
  00003	6a ff		 push	 -1
  00005	68 00 00 00 00	 push	 __ehhandler$?IsAddTail_SubGraphViewData@CSubGraph@@ABE_NABV?$CStringT@DV?$StrTraitMFC_DLL@DV?$ChTraitsCRT@D@ATL@@@@@ATL@@AAVCSubGraphViewDataList@@@Z
  0000a	64 a1 00 00 00
	00		 mov	 eax, DWORD PTR fs:0
  00010	50		 push	 eax
  00011	83 ec 34	 sub	 esp, 52			; 00000034H
  00014	53		 push	 ebx
  00015	56		 push	 esi
  00016	57		 push	 edi
  00017	a1 00 00 00 00	 mov	 eax, DWORD PTR ___security_cookie
  0001c	33 c5		 xor	 eax, ebp
  0001e	50		 push	 eax
  0001f	8d 45 f4	 lea	 eax, DWORD PTR __$EHRec$[ebp]
  00022	64 a3 00 00 00
	00		 mov	 DWORD PTR fs:0, eax
  00028	8b c1		 mov	 eax, ecx
  0002a	89 45 e4	 mov	 DWORD PTR _this$1$[ebp], eax
  0002d	33 db		 xor	 ebx, ebx
  0002f	89 5d ec	 mov	 DWORD PTR $T7[ebp], ebx

; 184  : 	if(m_pSubGraphList == NULL)

  00032	8b 48 08	 mov	 ecx, DWORD PTR [eax+8]
  00035	85 c9		 test	 ecx, ecx
  00037	75 04		 jne	 SHORT $LN25@IsAddTail_

; 185  : 		return NULL;

  00039	33 c0		 xor	 eax, eax
  0003b	eb 05		 jmp	 SHORT $LN24@IsAddTail_
$LN25@IsAddTail_:

; 186  : 
; 187  : 	return m_pSubGraphList->GetGraph();

  0003d	e8 00 00 00 00	 call	 ?GetGraph@CSubGraphList@@QBEPAVCGraphImp@@XZ ; CSubGraphList::GetGraph
$LN24@IsAddTail_:

; 572  : 	// RQ :  - ojtaso (20070701)
; 573  : 	CString strRQ = GetGraph()->GetGraphRQ();

  00042	8b 10		 mov	 edx, DWORD PTR [eax]
  00044	8b c8		 mov	 ecx, eax
  00046	ff 52 1c	 call	 DWORD PTR [edx+28]
  00049	50		 push	 eax
  0004a	8d 4d e8	 lea	 ecx, DWORD PTR _strRQ$[ebp]
  0004d	ff 15 00 00 00
	00		 call	 DWORD PTR __imp_??0?$CStringT@DV?$StrTraitMFC_DLL@DV?$ChTraitsCRT@D@ATL@@@@@ATL@@QAE@PBD@Z

; 574  : 	for(int nIndex = 0; nIndex < subGraphViewDataList.GetCount(); nIndex++){

  00053	8b 75 0c	 mov	 esi, DWORD PTR _subGraphViewDataList$[ebp]
  00056	33 ff		 xor	 edi, edi
  00058	8b ce		 mov	 ecx, esi
  0005a	c7 45 fc 00 00
	00 00		 mov	 DWORD PTR __$EHRec$[ebp+8], 0
  00061	e8 00 00 00 00	 call	 ?GetCount@CSubGraphViewDataList@@QBEHXZ ; CSubGraphViewDataList::GetCount
  00066	85 c0		 test	 eax, eax
  00068	0f 8e 6a 01 00
	00		 jle	 $LN3@IsAddTail_
  0006e	66 90		 npad	 2
$LL4@IsAddTail_:

; 575  : 		CSubGraphViewData subGraphViewData = subGraphViewDataList.GetAt(nIndex);

  00070	57		 push	 edi
  00071	8b ce		 mov	 ecx, esi
  00073	e8 00 00 00 00	 call	 ?GetAt@CSubGraphViewDataList@@QAEAAVCSubGraphViewData@@H@Z ; CSubGraphViewDataList::GetAt
  00078	8b f0		 mov	 esi, eax
  0007a	8b 0e		 mov	 ecx, DWORD PTR [esi]
  0007c	89 4d c0	 mov	 DWORD PTR _subGraphViewData$2[ebp], ecx
  0007f	8b 4e 04	 mov	 ecx, DWORD PTR [esi+4]
  00082	89 4d c4	 mov	 DWORD PTR _subGraphViewData$2[ebp+4], ecx
  00085	8d 4e 08	 lea	 ecx, DWORD PTR [esi+8]
  00088	51		 push	 ecx
  00089	8d 4d c8	 lea	 ecx, DWORD PTR _subGraphViewData$2[ebp+8]
  0008c	ff 15 00 00 00
	00		 call	 DWORD PTR __imp_??0?$CStringT@DV?$StrTraitMFC_DLL@DV?$ChTraitsCRT@D@ATL@@@@@ATL@@QAE@ABV01@@Z
  00092	8d 46 0c	 lea	 eax, DWORD PTR [esi+12]
  00095	c6 45 fc 01	 mov	 BYTE PTR __$EHRec$[ebp+8], 1
  00099	50		 push	 eax
  0009a	8d 4d cc	 lea	 ecx, DWORD PTR _subGraphViewData$2[ebp+12]
  0009d	ff 15 00 00 00
	00		 call	 DWORD PTR __imp_??0?$CStringT@DV?$StrTraitMFC_DLL@DV?$ChTraitsCRT@D@ATL@@@@@ATL@@QAE@ABV01@@Z
  000a3	8d 46 10	 lea	 eax, DWORD PTR [esi+16]
  000a6	c6 45 fc 02	 mov	 BYTE PTR __$EHRec$[ebp+8], 2
  000aa	50		 push	 eax
  000ab	8d 4d d0	 lea	 ecx, DWORD PTR _subGraphViewData$2[ebp+16]
  000ae	ff 15 00 00 00
	00		 call	 DWORD PTR __imp_??0?$CStringT@DV?$StrTraitMFC_DLL@DV?$ChTraitsCRT@D@ATL@@@@@ATL@@QAE@ABV01@@Z

; 576  : 		if(strRQ == subGraphViewData.GetRQ() && subGraphViewData.GetTitle() == m_subGraphData.GetTitle() && subGraphViewData.GetPacketNames() == packetName)

  000b4	8d 45 d4	 lea	 eax, DWORD PTR $T3[ebp]
  000b7	c6 45 fc 03	 mov	 BYTE PTR __$EHRec$[ebp+8], 3
  000bb	50		 push	 eax
  000bc	8d 4d c0	 lea	 ecx, DWORD PTR _subGraphViewData$2[ebp]
  000bf	e8 00 00 00 00	 call	 ?GetRQ@CSubGraphViewData@@QBE?AV?$CStringT@DV?$StrTraitMFC_DLL@DV?$ChTraitsCRT@D@ATL@@@@@ATL@@XZ ; CSubGraphViewData::GetRQ
; File C:\Program Files (x86)\Microsoft Visual Studio\2019\Community\VC\Tools\MSVC\14.29.30133\atlmfc\include\cstringt.h

; 2479 : 		return(str1.Compare(str2) == 0);

  000c4	ff 30		 push	 DWORD PTR [eax]
; File D:\git\src\IBK\IBK_DRFN\ProjSrc\SrcChartEx\ChartOCX\ChartObject\SubGraph.cpp

; 576  : 		if(strRQ == subGraphViewData.GetRQ() && subGraphViewData.GetTitle() == m_subGraphData.GetTitle() && subGraphViewData.GetPacketNames() == packetName)

  000c6	83 cb 01	 or	 ebx, 1
  000c9	c6 45 fc 04	 mov	 BYTE PTR __$EHRec$[ebp+8], 4
; File C:\Program Files (x86)\Microsoft Visual Studio\2019\Community\VC\Tools\MSVC\14.29.30133\atlmfc\include\cstringt.h

; 2479 : 		return(str1.Compare(str2) == 0);

  000cd	8d 4d e8	 lea	 ecx, DWORD PTR _strRQ$[ebp]
; File D:\git\src\IBK\IBK_DRFN\ProjSrc\SrcChartEx\ChartOCX\ChartObject\SubGraph.cpp

; 576  : 		if(strRQ == subGraphViewData.GetRQ() && subGraphViewData.GetTitle() == m_subGraphData.GetTitle() && subGraphViewData.GetPacketNames() == packetName)

  000d0	89 5d ec	 mov	 DWORD PTR $T7[ebp], ebx
; File C:\Program Files (x86)\Microsoft Visual Studio\2019\Community\VC\Tools\MSVC\14.29.30133\atlmfc\include\cstringt.h

; 2479 : 		return(str1.Compare(str2) == 0);

  000d3	ff 15 00 00 00
	00		 call	 DWORD PTR __imp_?Compare@?$CStringT@DV?$StrTraitMFC_DLL@DV?$ChTraitsCRT@D@ATL@@@@@ATL@@QBEHPBD@Z
  000d9	85 c0		 test	 eax, eax
; File D:\git\src\IBK\IBK_DRFN\ProjSrc\SrcChartEx\ChartOCX\ChartObject\SubGraph.cpp

; 576  : 		if(strRQ == subGraphViewData.GetRQ() && subGraphViewData.GetTitle() == m_subGraphData.GetTitle() && subGraphViewData.GetPacketNames() == packetName)

  000db	75 74		 jne	 SHORT $LN7@IsAddTail_
  000dd	8b 4d e4	 mov	 ecx, DWORD PTR _this$1$[ebp]
  000e0	8d 45 d8	 lea	 eax, DWORD PTR $T4[ebp]
  000e3	50		 push	 eax
  000e4	8d 49 0c	 lea	 ecx, DWORD PTR [ecx+12]
  000e7	ff 15 00 00 00
	00		 call	 DWORD PTR __imp_?GetTitle@CSubGraphDataBase@@QBE?AV?$CStringT@DV?$StrTraitMFC_DLL@DV?$ChTraitsCRT@D@ATL@@@@@ATL@@XZ
  000ed	8b f0		 mov	 esi, eax
  000ef	8d 45 dc	 lea	 eax, DWORD PTR $T5[ebp]
  000f2	c7 45 fc 05 00
	00 00		 mov	 DWORD PTR __$EHRec$[ebp+8], 5
  000f9	83 cb 02	 or	 ebx, 2
  000fc	8d 4d c0	 lea	 ecx, DWORD PTR _subGraphViewData$2[ebp]
  000ff	50		 push	 eax
  00100	89 5d ec	 mov	 DWORD PTR $T7[ebp], ebx
  00103	e8 00 00 00 00	 call	 ?GetTitle@CSubGraphViewData@@QBE?AV?$CStringT@DV?$StrTraitMFC_DLL@DV?$ChTraitsCRT@D@ATL@@@@@ATL@@XZ ; CSubGraphViewData::GetTitle
; File C:\Program Files (x86)\Microsoft Visual Studio\2019\Community\VC\Tools\MSVC\14.29.30133\atlmfc\include\cstringt.h

; 2479 : 		return(str1.Compare(str2) == 0);

  00108	ff 36		 push	 DWORD PTR [esi]
; File D:\git\src\IBK\IBK_DRFN\ProjSrc\SrcChartEx\ChartOCX\ChartObject\SubGraph.cpp

; 576  : 		if(strRQ == subGraphViewData.GetRQ() && subGraphViewData.GetTitle() == m_subGraphData.GetTitle() && subGraphViewData.GetPacketNames() == packetName)

  0010a	83 cb 04	 or	 ebx, 4
  0010d	c7 45 fc 06 00
	00 00		 mov	 DWORD PTR __$EHRec$[ebp+8], 6
; File C:\Program Files (x86)\Microsoft Visual Studio\2019\Community\VC\Tools\MSVC\14.29.30133\atlmfc\include\cstringt.h

; 2479 : 		return(str1.Compare(str2) == 0);

  00114	8b c8		 mov	 ecx, eax
; File D:\git\src\IBK\IBK_DRFN\ProjSrc\SrcChartEx\ChartOCX\ChartObject\SubGraph.cpp

; 576  : 		if(strRQ == subGraphViewData.GetRQ() && subGraphViewData.GetTitle() == m_subGraphData.GetTitle() && subGraphViewData.GetPacketNames() == packetName)

  00116	89 5d ec	 mov	 DWORD PTR $T7[ebp], ebx
; File C:\Program Files (x86)\Microsoft Visual Studio\2019\Community\VC\Tools\MSVC\14.29.30133\atlmfc\include\cstringt.h

; 2479 : 		return(str1.Compare(str2) == 0);

  00119	ff 15 00 00 00
	00		 call	 DWORD PTR __imp_?Compare@?$CStringT@DV?$StrTraitMFC_DLL@DV?$ChTraitsCRT@D@ATL@@@@@ATL@@QBEHPBD@Z
  0011f	85 c0		 test	 eax, eax
; File D:\git\src\IBK\IBK_DRFN\ProjSrc\SrcChartEx\ChartOCX\ChartObject\SubGraph.cpp

; 576  : 		if(strRQ == subGraphViewData.GetRQ() && subGraphViewData.GetTitle() == m_subGraphData.GetTitle() && subGraphViewData.GetPacketNames() == packetName)

  00121	75 2e		 jne	 SHORT $LN7@IsAddTail_
  00123	8d 45 e0	 lea	 eax, DWORD PTR $T6[ebp]
  00126	50		 push	 eax
  00127	8d 4d c0	 lea	 ecx, DWORD PTR _subGraphViewData$2[ebp]
  0012a	e8 00 00 00 00	 call	 ?GetPacketNames@CSubGraphViewData@@QBE?AV?$CStringT@DV?$StrTraitMFC_DLL@DV?$ChTraitsCRT@D@ATL@@@@@ATL@@XZ ; CSubGraphViewData::GetPacketNames
; File C:\Program Files (x86)\Microsoft Visual Studio\2019\Community\VC\Tools\MSVC\14.29.30133\atlmfc\include\cstringt.h

; 2479 : 		return(str1.Compare(str2) == 0);

  0012f	8b 4d 08	 mov	 ecx, DWORD PTR _packetName$[ebp]
; File D:\git\src\IBK\IBK_DRFN\ProjSrc\SrcChartEx\ChartOCX\ChartObject\SubGraph.cpp

; 576  : 		if(strRQ == subGraphViewData.GetRQ() && subGraphViewData.GetTitle() == m_subGraphData.GetTitle() && subGraphViewData.GetPacketNames() == packetName)

  00132	83 cb 08	 or	 ebx, 8
  00135	c7 45 fc 07 00
	00 00		 mov	 DWORD PTR __$EHRec$[ebp+8], 7
  0013c	89 5d ec	 mov	 DWORD PTR $T7[ebp], ebx
; File C:\Program Files (x86)\Microsoft Visual Studio\2019\Community\VC\Tools\MSVC\14.29.30133\atlmfc\include\cstringt.h

; 2479 : 		return(str1.Compare(str2) == 0);

  0013f	ff 31		 push	 DWORD PTR [ecx]
  00141	8b c8		 mov	 ecx, eax
  00143	ff 15 00 00 00
	00		 call	 DWORD PTR __imp_?Compare@?$CStringT@DV?$StrTraitMFC_DLL@DV?$ChTraitsCRT@D@ATL@@@@@ATL@@QBEHPBD@Z
; File D:\git\src\IBK\IBK_DRFN\ProjSrc\SrcChartEx\ChartOCX\ChartObject\SubGraph.cpp

; 576  : 		if(strRQ == subGraphViewData.GetRQ() && subGraphViewData.GetTitle() == m_subGraphData.GetTitle() && subGraphViewData.GetPacketNames() == packetName)

  00149	c6 45 f3 01	 mov	 BYTE PTR $T8[ebp], 1
; File C:\Program Files (x86)\Microsoft Visual Studio\2019\Community\VC\Tools\MSVC\14.29.30133\atlmfc\include\cstringt.h

; 2479 : 		return(str1.Compare(str2) == 0);

  0014d	85 c0		 test	 eax, eax
; File D:\git\src\IBK\IBK_DRFN\ProjSrc\SrcChartEx\ChartOCX\ChartObject\SubGraph.cpp

; 576  : 		if(strRQ == subGraphViewData.GetRQ() && subGraphViewData.GetTitle() == m_subGraphData.GetTitle() && subGraphViewData.GetPacketNames() == packetName)

  0014f	74 04		 je	 SHORT $LN8@IsAddTail_
$LN7@IsAddTail_:
  00151	c6 45 f3 00	 mov	 BYTE PTR $T8[ebp], 0
$LN8@IsAddTail_:
  00155	f6 c3 08	 test	 bl, 8
  00158	74 0c		 je	 SHORT $LN19@IsAddTail_
  0015a	8d 4d e0	 lea	 ecx, DWORD PTR $T6[ebp]
  0015d	83 e3 f7	 and	 ebx, -9			; fffffff7H
  00160	ff 15 00 00 00
	00		 call	 DWORD PTR __imp_??1?$CStringT@DV?$StrTraitMFC_DLL@DV?$ChTraitsCRT@D@ATL@@@@@ATL@@QAE@XZ
$LN19@IsAddTail_:
  00166	f6 c3 04	 test	 bl, 4
  00169	74 0c		 je	 SHORT $LN20@IsAddTail_
  0016b	8d 4d dc	 lea	 ecx, DWORD PTR $T5[ebp]
  0016e	83 e3 fb	 and	 ebx, -5			; fffffffbH
  00171	ff 15 00 00 00
	00		 call	 DWORD PTR __imp_??1?$CStringT@DV?$StrTraitMFC_DLL@DV?$ChTraitsCRT@D@ATL@@@@@ATL@@QAE@XZ
$LN20@IsAddTail_:
  00177	f6 c3 02	 test	 bl, 2
  0017a	74 0c		 je	 SHORT $LN21@IsAddTail_
  0017c	8d 4d d8	 lea	 ecx, DWORD PTR $T4[ebp]
  0017f	83 e3 fd	 and	 ebx, -3			; fffffffdH
  00182	ff 15 00 00 00
	00		 call	 DWORD PTR __imp_??1?$CStringT@DV?$StrTraitMFC_DLL@DV?$ChTraitsCRT@D@ATL@@@@@ATL@@QAE@XZ
$LN21@IsAddTail_:
  00188	c7 45 fc 03 00
	00 00		 mov	 DWORD PTR __$EHRec$[ebp+8], 3
  0018f	f6 c3 01	 test	 bl, 1
  00192	74 0c		 je	 SHORT $LN22@IsAddTail_
  00194	8d 4d d4	 lea	 ecx, DWORD PTR $T3[ebp]
  00197	83 e3 fe	 and	 ebx, -2			; fffffffeH
  0019a	ff 15 00 00 00
	00		 call	 DWORD PTR __imp_??1?$CStringT@DV?$StrTraitMFC_DLL@DV?$ChTraitsCRT@D@ATL@@@@@ATL@@QAE@XZ
$LN22@IsAddTail_:
  001a0	80 7d f3 00	 cmp	 BYTE PTR $T8[ebp], 0
  001a4	8d 4d d0	 lea	 ecx, DWORD PTR _subGraphViewData$2[ebp+16]
  001a7	75 50		 jne	 SHORT $LN51@IsAddTail_

; 577  : 			return false;
; 578  : 	}

  001a9	c6 45 fc 00	 mov	 BYTE PTR __$EHRec$[ebp+8], 0
  001ad	ff 15 00 00 00
	00		 call	 DWORD PTR __imp_??1?$CStringT@DV?$StrTraitMFC_DLL@DV?$ChTraitsCRT@D@ATL@@@@@ATL@@QAE@XZ
  001b3	8d 4d cc	 lea	 ecx, DWORD PTR _subGraphViewData$2[ebp+12]
  001b6	ff 15 00 00 00
	00		 call	 DWORD PTR __imp_??1?$CStringT@DV?$StrTraitMFC_DLL@DV?$ChTraitsCRT@D@ATL@@@@@ATL@@QAE@XZ
  001bc	8d 4d c8	 lea	 ecx, DWORD PTR _subGraphViewData$2[ebp+8]
  001bf	ff 15 00 00 00
	00		 call	 DWORD PTR __imp_??1?$CStringT@DV?$StrTraitMFC_DLL@DV?$ChTraitsCRT@D@ATL@@@@@ATL@@QAE@XZ
  001c5	8b 75 0c	 mov	 esi, DWORD PTR _subGraphViewDataList$[ebp]
  001c8	47		 inc	 edi
  001c9	8b ce		 mov	 ecx, esi
  001cb	e8 00 00 00 00	 call	 ?GetCount@CSubGraphViewDataList@@QBEHXZ ; CSubGraphViewDataList::GetCount
  001d0	3b f8		 cmp	 edi, eax
  001d2	0f 8c 98 fe ff
	ff		 jl	 $LL4@IsAddTail_
$LN3@IsAddTail_:

; 579  : 	return true;

  001d8	b3 01		 mov	 bl, 1
$LN23@IsAddTail_:
  001da	8d 4d e8	 lea	 ecx, DWORD PTR _strRQ$[ebp]
  001dd	ff 15 00 00 00
	00		 call	 DWORD PTR __imp_??1?$CStringT@DV?$StrTraitMFC_DLL@DV?$ChTraitsCRT@D@ATL@@@@@ATL@@QAE@XZ
  001e3	8a c3		 mov	 al, bl

; 580  : }

  001e5	8b 4d f4	 mov	 ecx, DWORD PTR __$EHRec$[ebp]
  001e8	64 89 0d 00 00
	00 00		 mov	 DWORD PTR fs:0, ecx
  001ef	59		 pop	 ecx
  001f0	5f		 pop	 edi
  001f1	5e		 pop	 esi
  001f2	5b		 pop	 ebx
  001f3	8b e5		 mov	 esp, ebp
  001f5	5d		 pop	 ebp
  001f6	c2 08 00	 ret	 8
$LN51@IsAddTail_:
  001f9	ff 15 00 00 00
	00		 call	 DWORD PTR __imp_??1?$CStringT@DV?$StrTraitMFC_DLL@DV?$ChTraitsCRT@D@ATL@@@@@ATL@@QAE@XZ
  001ff	8d 4d cc	 lea	 ecx, DWORD PTR _subGraphViewData$2[ebp+12]
  00202	ff 15 00 00 00
	00		 call	 DWORD PTR __imp_??1?$CStringT@DV?$StrTraitMFC_DLL@DV?$ChTraitsCRT@D@ATL@@@@@ATL@@QAE@XZ
  00208	8d 4d c8	 lea	 ecx, DWORD PTR _subGraphViewData$2[ebp+8]
  0020b	ff 15 00 00 00
	00		 call	 DWORD PTR __imp_??1?$CStringT@DV?$StrTraitMFC_DLL@DV?$ChTraitsCRT@D@ATL@@@@@ATL@@QAE@XZ
  00211	32 db		 xor	 bl, bl
  00213	eb c5		 jmp	 SHORT $LN23@IsAddTail_
_TEXT	ENDS
;	COMDAT text$x
text$x	SEGMENT
__unwindfunclet$?IsAddTail_SubGraphViewData@CSubGraph@@ABE_NABV?$CStringT@DV?$StrTraitMFC_DLL@DV?$ChTraitsCRT@D@ATL@@@@@ATL@@AAVCSubGraphViewDataList@@@Z$0:
  00000	8d 4d e8	 lea	 ecx, DWORD PTR _strRQ$[ebp]
  00003	ff 25 00 00 00
	00		 jmp	 DWORD PTR __imp_??1?$CStringT@DV?$StrTraitMFC_DLL@DV?$ChTraitsCRT@D@ATL@@@@@ATL@@QAE@XZ
__unwindfunclet$?IsAddTail_SubGraphViewData@CSubGraph@@ABE_NABV?$CStringT@DV?$StrTraitMFC_DLL@DV?$ChTraitsCRT@D@ATL@@@@@ATL@@AAVCSubGraphViewDataList@@@Z$6:
  00009	8d 4d c8	 lea	 ecx, DWORD PTR _subGraphViewData$2[ebp+8]
  0000c	ff 25 00 00 00
	00		 jmp	 DWORD PTR __imp_??1?$CStringT@DV?$StrTraitMFC_DLL@DV?$ChTraitsCRT@D@ATL@@@@@ATL@@QAE@XZ
__unwindfunclet$?IsAddTail_SubGraphViewData@CSubGraph@@ABE_NABV?$CStringT@DV?$StrTraitMFC_DLL@DV?$ChTraitsCRT@D@ATL@@@@@ATL@@AAVCSubGraphViewDataList@@@Z$7:
  00012	8d 4d cc	 lea	 ecx, DWORD PTR _subGraphViewData$2[ebp+12]
  00015	ff 25 00 00 00
	00		 jmp	 DWORD PTR __imp_??1?$CStringT@DV?$StrTraitMFC_DLL@DV?$ChTraitsCRT@D@ATL@@@@@ATL@@QAE@XZ
__unwindfunclet$?IsAddTail_SubGraphViewData@CSubGraph@@ABE_NABV?$CStringT@DV?$StrTraitMFC_DLL@DV?$ChTraitsCRT@D@ATL@@@@@ATL@@AAVCSubGraphViewDataList@@@Z$1:
  0001b	8d 4d c0	 lea	 ecx, DWORD PTR _subGraphViewData$2[ebp]
  0001e	e9 00 00 00 00	 jmp	 ??1CSubGraphViewData@@QAE@XZ
__unwindfunclet$?IsAddTail_SubGraphViewData@CSubGraph@@ABE_NABV?$CStringT@DV?$StrTraitMFC_DLL@DV?$ChTraitsCRT@D@ATL@@@@@ATL@@AAVCSubGraphViewDataList@@@Z$2:
  00023	8b 45 ec	 mov	 eax, DWORD PTR $T7[ebp]
  00026	83 e0 01	 and	 eax, 1
  00029	0f 84 0d 00 00
	00		 je	 $LN12@IsAddTail_
  0002f	83 65 ec fe	 and	 DWORD PTR $T7[ebp], -2	; fffffffeH
  00033	8d 4d d4	 lea	 ecx, DWORD PTR $T3[ebp]
  00036	ff 25 00 00 00
	00		 jmp	 DWORD PTR __imp_??1?$CStringT@DV?$StrTraitMFC_DLL@DV?$ChTraitsCRT@D@ATL@@@@@ATL@@QAE@XZ
$LN12@IsAddTail_:
  0003c	c3		 ret	 0
__unwindfunclet$?IsAddTail_SubGraphViewData@CSubGraph@@ABE_NABV?$CStringT@DV?$StrTraitMFC_DLL@DV?$ChTraitsCRT@D@ATL@@@@@ATL@@AAVCSubGraphViewDataList@@@Z$3:
  0003d	8b 45 ec	 mov	 eax, DWORD PTR $T7[ebp]
  00040	83 e0 02	 and	 eax, 2
  00043	0f 84 0d 00 00
	00		 je	 $LN14@IsAddTail_
  00049	83 65 ec fd	 and	 DWORD PTR $T7[ebp], -3	; fffffffdH
  0004d	8d 4d d8	 lea	 ecx, DWORD PTR $T4[ebp]
  00050	ff 25 00 00 00
	00		 jmp	 DWORD PTR __imp_??1?$CStringT@DV?$StrTraitMFC_DLL@DV?$ChTraitsCRT@D@ATL@@@@@ATL@@QAE@XZ
$LN14@IsAddTail_:
  00056	c3		 ret	 0
__unwindfunclet$?IsAddTail_SubGraphViewData@CSubGraph@@ABE_NABV?$CStringT@DV?$StrTraitMFC_DLL@DV?$ChTraitsCRT@D@ATL@@@@@ATL@@AAVCSubGraphViewDataList@@@Z$4:
  00057	8b 45 ec	 mov	 eax, DWORD PTR $T7[ebp]
  0005a	83 e0 04	 and	 eax, 4
  0005d	0f 84 0d 00 00
	00		 je	 $LN16@IsAddTail_
  00063	83 65 ec fb	 and	 DWORD PTR $T7[ebp], -5	; fffffffbH
  00067	8d 4d dc	 lea	 ecx, DWORD PTR $T5[ebp]
  0006a	ff 25 00 00 00
	00		 jmp	 DWORD PTR __imp_??1?$CStringT@DV?$StrTraitMFC_DLL@DV?$ChTraitsCRT@D@ATL@@@@@ATL@@QAE@XZ
$LN16@IsAddTail_:
  00070	c3		 ret	 0
__unwindfunclet$?IsAddTail_SubGraphViewData@CSubGraph@@ABE_NABV?$CStringT@DV?$StrTraitMFC_DLL@DV?$ChTraitsCRT@D@ATL@@@@@ATL@@AAVCSubGraphViewDataList@@@Z$5:
  00071	8b 45 ec	 mov	 eax, DWORD PTR $T7[ebp]
  00074	83 e0 08	 and	 eax, 8
  00077	0f 84 0d 00 00
	00		 je	 $LN18@IsAddTail_
  0007d	83 65 ec f7	 and	 DWORD PTR $T7[ebp], -9	; fffffff7H
  00081	8d 4d e0	 lea	 ecx, DWORD PTR $T6[ebp]
  00084	ff 25 00 00 00
	00		 jmp	 DWORD PTR __imp_??1?$CStringT@DV?$StrTraitMFC_DLL@DV?$ChTraitsCRT@D@ATL@@@@@ATL@@QAE@XZ
$LN18@IsAddTail_:
  0008a	c3		 ret	 0
  0008b	cc		 int	 3
  0008c	cc		 int	 3
  0008d	cc		 int	 3
  0008e	cc		 int	 3
  0008f	cc		 int	 3
__ehhandler$?IsAddTail_SubGraphViewData@CSubGraph@@ABE_NABV?$CStringT@DV?$StrTraitMFC_DLL@DV?$ChTraitsCRT@D@ATL@@@@@ATL@@AAVCSubGraphViewDataList@@@Z:
  00090	90		 npad	 1
  00091	90		 npad	 1
  00092	8b 54 24 08	 mov	 edx, DWORD PTR [esp+8]
  00096	8d 42 0c	 lea	 eax, DWORD PTR [edx+12]
  00099	8b 4a bc	 mov	 ecx, DWORD PTR [edx-68]
  0009c	33 c8		 xor	 ecx, eax
  0009e	e8 00 00 00 00	 call	 @__security_check_cookie@4
  000a3	b8 00 00 00 00	 mov	 eax, OFFSET __ehfuncinfo$?IsAddTail_SubGraphViewData@CSubGraph@@ABE_NABV?$CStringT@DV?$StrTraitMFC_DLL@DV?$ChTraitsCRT@D@ATL@@@@@ATL@@AAVCSubGraphViewDataList@@@Z
  000a8	e9 00 00 00 00	 jmp	 ___CxxFrameHandler3
text$x	ENDS
?IsAddTail_SubGraphViewData@CSubGraph@@ABE_NABV?$CStringT@DV?$StrTraitMFC_DLL@DV?$ChTraitsCRT@D@ATL@@@@@ATL@@AAVCSubGraphViewDataList@@@Z ENDP ; CSubGraph::IsAddTail_SubGraphViewData
; Function compile flags: /Ogtp
; File D:\git\src\IBK\IBK_DRFN\ProjSrc\SrcChartEx\ChartOCX\ChartObject\SubGraph.cpp
;	COMDAT ?IsDisplayDataMinMax@CSubGraph@@ABE_NXZ
_TEXT	SEGMENT
$T1 = -4						; size = 4
?IsDisplayDataMinMax@CSubGraph@@ABE_NXZ PROC		; CSubGraph::IsDisplayDataMinMax, COMDAT
; _this$ = ecx

; 553  : {

  00000	55		 push	 ebp
  00001	8b ec		 mov	 ebp, esp
  00003	51		 push	 ecx
  00004	56		 push	 esi

; 554  : 	if(m_subGraphData.GetHiding())

  00005	8d 71 0c	 lea	 esi, DWORD PTR [ecx+12]
  00008	8b ce		 mov	 ecx, esi
  0000a	ff 15 00 00 00
	00		 call	 DWORD PTR __imp_?GetHiding@CSubGraphData@@ABE_NXZ
  00010	84 c0		 test	 al, al
  00012	75 39		 jne	 SHORT $LN8@IsDisplayD

; 555  : 		return false;
; 556  : 
; 557  : 	if(m_subGraphData.GetType() == CGraphBaseData::DataView_Type)

  00014	8b ce		 mov	 ecx, esi
  00016	ff 15 00 00 00
	00		 call	 DWORD PTR __imp_?GetType@CSubGraphDataBase@@QBE?AW4GRAPHTYPE@CGraphBaseData@@XZ
  0001c	83 f8 06	 cmp	 eax, 6
  0001f	74 2c		 je	 SHORT $LN8@IsDisplayD

; 558  : 		return false;
; 559  : 
; 560  : 	if(m_subGraphData.GetType() == CGraphBaseData::Line_Type)

  00021	8b ce		 mov	 ecx, esi
  00023	ff 15 00 00 00
	00		 call	 DWORD PTR __imp_?GetType@CSubGraphDataBase@@QBE?AW4GRAPHTYPE@CGraphBaseData@@XZ
  00029	83 f8 01	 cmp	 eax, 1
  0002c	75 18		 jne	 SHORT $LN4@IsDisplayD

; 561  : 	{
; 562  : 		CGraphBaseData::LINESTYLE eLineStyle = m_subGraphData.GetStyle().GetGraphLineStyle();

  0002e	8d 45 fc	 lea	 eax, DWORD PTR $T1[ebp]
  00031	8b ce		 mov	 ecx, esi
  00033	50		 push	 eax
  00034	ff 15 00 00 00
	00		 call	 DWORD PTR __imp_?GetStyle@CSubGraphDataBase@@QBE?AVCGraphStyle@@XZ
  0003a	8b 00		 mov	 eax, DWORD PTR [eax]

; 563  : 		return (eLineStyle != CGraphBaseData::HorizontalLine && eLineStyle != CGraphBaseData::VerticalLine);

  0003c	83 f8 03	 cmp	 eax, 3
  0003f	74 0c		 je	 SHORT $LN8@IsDisplayD
  00041	83 f8 0b	 cmp	 eax, 11			; 0000000bH
  00044	74 07		 je	 SHORT $LN8@IsDisplayD
$LN4@IsDisplayD:

; 564  : 	}
; 565  : 
; 566  : 	return true;
; 567  : }

  00046	b0 01		 mov	 al, 1
  00048	5e		 pop	 esi
  00049	8b e5		 mov	 esp, ebp
  0004b	5d		 pop	 ebp
  0004c	c3		 ret	 0
$LN8@IsDisplayD:
  0004d	32 c0		 xor	 al, al
  0004f	5e		 pop	 esi
  00050	8b e5		 mov	 esp, ebp
  00052	5d		 pop	 ebp
  00053	c3		 ret	 0
?IsDisplayDataMinMax@CSubGraph@@ABE_NXZ ENDP		; CSubGraph::IsDisplayDataMinMax
_TEXT	ENDS
; Function compile flags: /Ogtp
; File D:\git\src\IBK\IBK_DRFN\ProjSrc\SrcChartEx\ChartOCX\ChartObject\SubGraph.cpp
;	COMDAT ?CalculateGraph@CSubGraph@@AAEXXZ
_TEXT	SEGMENT
?CalculateGraph@CSubGraph@@AAEXXZ PROC			; CSubGraph::CalculateGraph, COMDAT
; _this$ = ecx

; 536  : {

  00000	56		 push	 esi
  00001	8b f1		 mov	 esi, ecx

; 537  : 	// "" packet* = null    
; 538  : 	if(m_subGraphData.GetHiding() || m_subGraphPacketList.GetHeadPacket() != NULL)

  00003	8d 4e 0c	 lea	 ecx, DWORD PTR [esi+12]
  00006	ff 15 00 00 00
	00		 call	 DWORD PTR __imp_?GetHiding@CSubGraphData@@ABE_NXZ
  0000c	84 c0		 test	 al, al
  0000e	75 28		 jne	 SHORT $LN3@CalculateG
  00010	8d 8e 94 00 00
	00		 lea	 ecx, DWORD PTR [esi+148]
  00016	e8 00 00 00 00	 call	 ?GetHeadPacket@CSubGraphPacketList@@QAEPAVCPacket@@XZ ; CSubGraphPacketList::GetHeadPacket
  0001b	85 c0		 test	 eax, eax
  0001d	75 19		 jne	 SHORT $LN3@CalculateG

; 184  : 	if(m_pSubGraphList == NULL)

  0001f	8b 4e 08	 mov	 ecx, DWORD PTR [esi+8]
  00022	85 c9		 test	 ecx, ecx
  00024	74 12		 je	 SHORT $LN3@CalculateG

; 185  : 		return NULL;
; 186  : 
; 187  : 	return m_pSubGraphList->GetGraph();

  00026	e8 00 00 00 00	 call	 ?GetGraph@CSubGraphList@@QBEPAVCGraphImp@@XZ ; CSubGraphList::GetGraph

; 539  : 		return;
; 540  : 
; 541  : 	CGraphImp* pGraph = GetGraph();
; 542  : 	if(pGraph != NULL)

  0002b	85 c0		 test	 eax, eax
  0002d	74 09		 je	 SHORT $LN3@CalculateG

; 543  : 		pGraph->Initialize_AllPackets(true);

  0002f	6a 01		 push	 1
  00031	8b c8		 mov	 ecx, eax
  00033	e8 00 00 00 00	 call	 ?Initialize_AllPackets@CGraphImp@@QAEX_N@Z ; CGraphImp::Initialize_AllPackets
$LN3@CalculateG:

; 544  : }

  00038	5e		 pop	 esi
  00039	c3		 ret	 0
?CalculateGraph@CSubGraph@@AAEXXZ ENDP			; CSubGraph::CalculateGraph
_TEXT	ENDS
; Function compile flags: /Ogtp
; File D:\git\src\IBK\IBK_DRFN\ProjSrc\SrcChartEx\ChartOCX\ChartObject\SubGraph.cpp
;	COMDAT ?ResetMaxVerticalScaleWidth@CSubGraph@@QAEXXZ
_TEXT	SEGMENT
?ResetMaxVerticalScaleWidth@CSubGraph@@QAEXXZ PROC	; CSubGraph::ResetMaxVerticalScaleWidth, COMDAT
; _this$ = ecx

; 744  : 	m_nVerticalScaleMaxWidth = -1;

  00000	c7 81 c0 00 00
	00 ff ff ff ff	 mov	 DWORD PTR [ecx+192], -1

; 745  : }

  0000a	c3		 ret	 0
?ResetMaxVerticalScaleWidth@CSubGraph@@QAEXXZ ENDP	; CSubGraph::ResetMaxVerticalScaleWidth
_TEXT	ENDS
; Function compile flags: /Ogtp
; File D:\git\src\IBK\IBK_DRFN\ProjSrc\SrcChartEx\ChartOCX\ChartObject\SubGraph.cpp
; File D:\git\src\IBK\IBK_DRFN\ProjSrc\SrcChartEx\ChartOCX\Include_Chart\BaseData.h
; File D:\git\src\IBK\IBK_DRFN\ProjSrc\SrcChartEx\ChartOCX\ChartObject\SubGraph.cpp
; File D:\git\src\IBK\IBK_DRFN\ProjSrc\SrcChartEx\ChartOCX\Include_Chart\BaseData.h
; File D:\git\src\IBK\IBK_DRFN\ProjSrc\SrcChartEx\ChartOCX\ChartObject\SubGraph.cpp
; File C:\Program Files (x86)\Microsoft Visual Studio\2019\Community\VC\Tools\MSVC\14.29.30133\atlmfc\include\atltypes.h
; File D:\git\src\IBK\IBK_DRFN\ProjSrc\SrcChartEx\ChartOCX\ChartObject\SubGraph.cpp
; File C:\Program Files (x86)\Microsoft Visual Studio\2019\Community\VC\Tools\MSVC\14.29.30133\atlmfc\include\afxwin1.inl
; File D:\git\src\IBK\IBK_DRFN\ProjSrc\SrcChartEx\ChartOCX\ChartObject\SubGraph.cpp
; File C:\Program Files (x86)\Microsoft Visual Studio\2019\Community\VC\Tools\MSVC\14.29.30133\atlmfc\include\afxwin1.inl
; File D:\git\src\IBK\IBK_DRFN\ProjSrc\SrcChartEx\ChartOCX\ChartObject\SubGraph.cpp
;	COMDAT ?DrawGrip@CSubGraph@@QAE_NPAVCDC@@H@Z
_TEXT	SEGMENT
_pBlock$1$ = -268					; size = 4
_this$GSCopy$1$ = -264					; size = 4
_pDC$GSCopy$1$ = -260					; size = 4
$T2 = -253						; size = 1
_bResult$1$ = -253					; size = 1
$T3 = -253						; size = 1
$T4 = -252						; size = 68
_selectSubGraphData$ = -184				; size = 152
_region$5 = -32						; size = 16
$T6 = -32						; size = 16
__$ArrayPad$ = -16					; size = 4
__$EHRec$ = -12						; size = 12
_pDC$ = 8						; size = 4
_nDataIndex$ = 12					; size = 4
?DrawGrip@CSubGraph@@QAE_NPAVCDC@@H@Z PROC		; CSubGraph::DrawGrip, COMDAT
; _this$ = ecx

; 514  : {

  00000	55		 push	 ebp
  00001	8b ec		 mov	 ebp, esp
  00003	6a ff		 push	 -1
  00005	68 00 00 00 00	 push	 __ehhandler$?DrawGrip@CSubGraph@@QAE_NPAVCDC@@H@Z
  0000a	64 a1 00 00 00
	00		 mov	 eax, DWORD PTR fs:0
  00010	50		 push	 eax
  00011	81 ec 00 01 00
	00		 sub	 esp, 256		; 00000100H
  00017	a1 00 00 00 00	 mov	 eax, DWORD PTR ___security_cookie
  0001c	33 c5		 xor	 eax, ebp
  0001e	89 45 f0	 mov	 DWORD PTR __$ArrayPad$[ebp], eax
  00021	56		 push	 esi
  00022	57		 push	 edi
  00023	50		 push	 eax
  00024	8d 45 f4	 lea	 eax, DWORD PTR __$EHRec$[ebp]
  00027	64 a3 00 00 00
	00		 mov	 DWORD PTR fs:0, eax
  0002d	8b f1		 mov	 esi, ecx
  0002f	89 b5 f8 fe ff
	ff		 mov	 DWORD PTR _this$GSCopy$1$[ebp], esi

; 515  : 	if(nDataIndex < -1 || m_subGraphData.GetHiding())

  00035	83 7d 0c ff	 cmp	 DWORD PTR _nDataIndex$[ebp], -1
  00039	8b 7d 08	 mov	 edi, DWORD PTR _pDC$[ebp]
  0003c	89 bd fc fe ff
	ff		 mov	 DWORD PTR _pDC$GSCopy$1$[ebp], edi
  00042	0f 8c 93 01 00
	00		 jl	 $LN3@DrawGrip
  00048	8d 4e 0c	 lea	 ecx, DWORD PTR [esi+12]
  0004b	ff 15 00 00 00
	00		 call	 DWORD PTR __imp_?GetHiding@CSubGraphData@@ABE_NXZ
  00051	84 c0		 test	 al, al
  00053	0f 85 82 01 00
	00		 jne	 $LN3@DrawGrip

; 517  : 
; 518  : 	CSelectSubGraphData selectSubGraphData;

  00059	8d 8d 48 ff ff
	ff		 lea	 ecx, DWORD PTR _selectSubGraphData$[ebp]
  0005f	e8 00 00 00 00	 call	 ??0CSelectSubGraphData@@QAE@XZ ; CSelectSubGraphData::CSelectSubGraphData

; 519  : 	if(!GetSelectSubGraphData(selectSubGraphData))

  00064	8d 85 48 ff ff
	ff		 lea	 eax, DWORD PTR _selectSubGraphData$[ebp]
  0006a	c7 45 fc 00 00
	00 00		 mov	 DWORD PTR __$EHRec$[ebp+8], 0
  00071	50		 push	 eax
  00072	8b ce		 mov	 ecx, esi
  00074	e8 00 00 00 00	 call	 ?GetSelectSubGraphData@CSubGraph@@ABE_NAAVCSelectSubGraphData@@@Z ; CSubGraph::GetSelectSubGraphData
  00079	84 c0		 test	 al, al
  0007b	0f 84 2a 01 00
	00		 je	 $LN8@DrawGrip

; 522  : 	CDataConversion::SelectClipRegion(pDC, selectSubGraphData.GetGraphRegions().GetNoFrameRegionAndMargin());

  00081	8d 85 04 ff ff
	ff		 lea	 eax, DWORD PTR $T4[ebp]
  00087	50		 push	 eax
  00088	8d 8d 48 ff ff
	ff		 lea	 ecx, DWORD PTR _selectSubGraphData$[ebp]
  0008e	e8 00 00 00 00	 call	 ?GetGraphRegions@CSelectSubGraphData@@QBE?AVCGraphRegions@@XZ ; CSelectSubGraphData::GetGraphRegions
; File D:\git\src\IBK\IBK_DRFN\ProjSrc\SrcChartEx\ChartOCX\Include_Chart\BaseData.h

; 94   : 	CRect	GetNoFrameRegionAndMargin() const	{	return m_rctNoFrameAndMargin;	}

  00093	0f 10 40 24	 movups	 xmm0, XMMWORD PTR [eax+36]
; File D:\git\src\IBK\IBK_DRFN\ProjSrc\SrcChartEx\ChartOCX\ChartObject\SubGraph.cpp

; 522  : 	CDataConversion::SelectClipRegion(pDC, selectSubGraphData.GetGraphRegions().GetNoFrameRegionAndMargin());

  00097	8d 45 e0	 lea	 eax, DWORD PTR $T6[ebp]
  0009a	50		 push	 eax
  0009b	57		 push	 edi
; File D:\git\src\IBK\IBK_DRFN\ProjSrc\SrcChartEx\ChartOCX\Include_Chart\BaseData.h

; 94   : 	CRect	GetNoFrameRegionAndMargin() const	{	return m_rctNoFrameAndMargin;	}

  0009c	0f 11 45 e0	 movups	 XMMWORD PTR $T6[ebp], xmm0
; File D:\git\src\IBK\IBK_DRFN\ProjSrc\SrcChartEx\ChartOCX\ChartObject\SubGraph.cpp

; 522  : 	CDataConversion::SelectClipRegion(pDC, selectSubGraphData.GetGraphRegions().GetNoFrameRegionAndMargin());

  000a0	e8 00 00 00 00	 call	 ?SelectClipRegion@CDataConversion@@SAXPAVCDC@@ABVCRect@@@Z ; CDataConversion::SelectClipRegion
  000a5	83 c4 08	 add	 esp, 8

; 523  : 	bool bResult = CGraphDrawer().DrawGrip(pDC, nDataIndex, selectSubGraphData);

  000a8	8d 85 48 ff ff
	ff		 lea	 eax, DWORD PTR _selectSubGraphData$[ebp]
  000ae	8d 8d 03 ff ff
	ff		 lea	 ecx, DWORD PTR $T3[ebp]
  000b4	50		 push	 eax
  000b5	ff 75 0c	 push	 DWORD PTR _nDataIndex$[ebp]
  000b8	57		 push	 edi
  000b9	ff 15 00 00 00
	00		 call	 DWORD PTR __imp_?DrawGrip@CGraphDrawer@@QAE_NPAVCDC@@HABVCSelectSubGraphData@@@Z

; 524  : 	CDataConversion::SelectClipRegion(pDC);

  000bf	57		 push	 edi
  000c0	88 85 03 ff ff
	ff		 mov	 BYTE PTR _bResult$1$[ebp], al
  000c6	e8 00 00 00 00	 call	 ?SelectClipRegion@CDataConversion@@SAXPAVCDC@@@Z ; CDataConversion::SelectClipRegion
  000cb	83 c4 04	 add	 esp, 4

; 525  : 	if(!bResult)

  000ce	80 bd 03 ff ff
	ff 00		 cmp	 BYTE PTR _bResult$1$[ebp], 0
  000d5	0f 84 d0 00 00
	00		 je	 $LN8@DrawGrip

; 184  : 	if(m_pSubGraphList == NULL)

  000db	8b 4e 08	 mov	 ecx, DWORD PTR [esi+8]
  000de	85 c9		 test	 ecx, ecx
  000e0	0f 84 bc 00 00
	00		 je	 $LN12@DrawGrip

; 185  : 		return NULL;
; 186  : 
; 187  : 	return m_pSubGraphList->GetGraph();

  000e6	e8 00 00 00 00	 call	 ?GetGraph@CSubGraphList@@QBEPAVCGraphImp@@XZ ; CSubGraphList::GetGraph

; 718  : 	if(pGraph == NULL)

  000eb	85 c0		 test	 eax, eax
  000ed	0f 84 af 00 00
	00		 je	 $LN12@DrawGrip

; 719  : 		return NULL;
; 720  : 
; 721  : 	return pGraph->GetVertScaleGroup();

  000f3	8b c8		 mov	 ecx, eax
  000f5	e8 00 00 00 00	 call	 ?GetVertScaleGroup@CGraphImp@@QBEPAVCVertScaleGroup@@XZ ; CGraphImp::GetVertScaleGroup

; 701  : 	if(pVertScaleGroup == NULL)

  000fa	85 c0		 test	 eax, eax
  000fc	0f 84 a0 00 00
	00		 je	 $LN12@DrawGrip

; 702  : 		return NULL;
; 703  : 
; 704  : 	return pVertScaleGroup->GetVertScaleGroupList()->GetBlock();

  00102	8b c8		 mov	 ecx, eax
  00104	e8 00 00 00 00	 call	 ?GetVertScaleGroupList@CVertScaleGroup@@QBEPAVCVertScaleGroupList@@XZ ; CVertScaleGroup::GetVertScaleGroupList
  00109	8b c8		 mov	 ecx, eax
  0010b	e8 00 00 00 00	 call	 ?GetBlock@CVertScaleGroupList@@QBEPAVCBlockImp@@XZ ; CVertScaleGroupList::GetBlock
  00110	89 85 f4 fe ff
	ff		 mov	 DWORD PTR _pBlock$1$[ebp], eax

; 498  : 	if(pBlock == NULL)

  00116	85 c0		 test	 eax, eax
  00118	0f 84 84 00 00
	00		 je	 $LN12@DrawGrip

; 499  : 		return;
; 500  : 
; 501  : 	CBrush* pOldBrush = (CBrush*) pDC->SelectStockObject(NULL_BRUSH);

  0011e	8b 17		 mov	 edx, DWORD PTR [edi]
  00120	8b cf		 mov	 ecx, edi
  00122	6a 05		 push	 5
  00124	8b 52 2c	 mov	 edx, DWORD PTR [edx+44]
  00127	ff d2		 call	 edx

; 502  : 	int oldDrawMode = pDC->SetROP2(R2_NOT);

  00129	8b 8d fc fe ff
	ff		 mov	 ecx, DWORD PTR _pDC$GSCopy$1$[ebp]
  0012f	8b f8		 mov	 edi, eax
  00131	6a 06		 push	 6
  00133	e8 00 00 00 00	 call	 ?SetROP2@CDC@@QAEHH@Z	; CDC::SetROP2

; 503  : 
; 504  : 	CRect region = pBlock->GetVertScaleGroupList().GetSubGraphTitleRegion(pDC, this);

  00138	ff b5 f8 fe ff
	ff		 push	 DWORD PTR _this$GSCopy$1$[ebp]
  0013e	8b 8d f4 fe ff
	ff		 mov	 ecx, DWORD PTR _pBlock$1$[ebp]
  00144	8b f0		 mov	 esi, eax
  00146	ff b5 fc fe ff
	ff		 push	 DWORD PTR _pDC$GSCopy$1$[ebp]
  0014c	8d 45 e0	 lea	 eax, DWORD PTR _region$5[ebp]
  0014f	50		 push	 eax
  00150	e8 00 00 00 00	 call	 ?GetVertScaleGroupList@CBlockImp@@QAEAAVCVertScaleGroupList@@XZ ; CBlockImp::GetVertScaleGroupList
  00155	8b c8		 mov	 ecx, eax
  00157	e8 00 00 00 00	 call	 ?GetSubGraphTitleRegion@CVertScaleGroupList@@QBE?AVCRect@@PAVCDC@@PBVCSubGraph@@@Z ; CVertScaleGroupList::GetSubGraphTitleRegion
; File C:\Program Files (x86)\Microsoft Visual Studio\2019\Community\VC\Tools\MSVC\14.29.30133\atlmfc\include\atltypes.h

; 686  : 	::InflateRect(this, x, y);

  0015c	6a 02		 push	 2
  0015e	6a 02		 push	 2
  00160	8d 45 e0	 lea	 eax, DWORD PTR _region$5[ebp]
  00163	50		 push	 eax
  00164	ff 15 00 00 00
	00		 call	 DWORD PTR __imp__InflateRect@12
; File D:\git\src\IBK\IBK_DRFN\ProjSrc\SrcChartEx\ChartOCX\ChartObject\SubGraph.cpp

; 506  : 	region.bottom -= 1;

  0016a	8b 45 ec	 mov	 eax, DWORD PTR _region$5[ebp+12]
  0016d	48		 dec	 eax
; File C:\Program Files (x86)\Microsoft Visual Studio\2019\Community\VC\Tools\MSVC\14.29.30133\atlmfc\include\afxwin1.inl

; 541  : 	{ ASSERT(m_hDC != NULL); return ::Rectangle(m_hDC, lpRect->left, lpRect->top,

  0016e	50		 push	 eax
  0016f	ff 75 e8	 push	 DWORD PTR _region$5[ebp+8]
; File D:\git\src\IBK\IBK_DRFN\ProjSrc\SrcChartEx\ChartOCX\ChartObject\SubGraph.cpp

; 506  : 	region.bottom -= 1;

  00172	89 45 ec	 mov	 DWORD PTR _region$5[ebp+12], eax
; File C:\Program Files (x86)\Microsoft Visual Studio\2019\Community\VC\Tools\MSVC\14.29.30133\atlmfc\include\afxwin1.inl

; 541  : 	{ ASSERT(m_hDC != NULL); return ::Rectangle(m_hDC, lpRect->left, lpRect->top,

  00175	ff 75 e4	 push	 DWORD PTR _region$5[ebp+4]
  00178	8b 85 fc fe ff
	ff		 mov	 eax, DWORD PTR _pDC$GSCopy$1$[ebp]
  0017e	ff 75 e0	 push	 DWORD PTR _region$5[ebp]
  00181	ff 70 04	 push	 DWORD PTR [eax+4]
  00184	ff 15 00 00 00
	00		 call	 DWORD PTR __imp__Rectangle@20
; File D:\git\src\IBK\IBK_DRFN\ProjSrc\SrcChartEx\ChartOCX\ChartObject\SubGraph.cpp

; 509  : 	pDC->SetROP2(oldDrawMode);

  0018a	8b 8d fc fe ff
	ff		 mov	 ecx, DWORD PTR _pDC$GSCopy$1$[ebp]
  00190	56		 push	 esi
  00191	e8 00 00 00 00	 call	 ?SetROP2@CDC@@QAEHH@Z	; CDC::SetROP2

; 510  : 	pDC->SelectObject(pOldBrush);

  00196	8b 8d fc fe ff
	ff		 mov	 ecx, DWORD PTR _pDC$GSCopy$1$[ebp]
  0019c	57		 push	 edi
  0019d	e8 00 00 00 00	 call	 ?SelectObject@CDC@@QAEPAVCBrush@@PAV2@@Z ; CDC::SelectObject
$LN12@DrawGrip:

; 526  : 		return false;
; 527  : 
; 528  : 	DrawGripedSubGraphTitle(pDC);
; 529  : 	return true;

  001a2	c6 85 03 ff ff
	ff 01		 mov	 BYTE PTR $T2[ebp], 1
  001a9	eb 07		 jmp	 SHORT $LN9@DrawGrip
$LN8@DrawGrip:
  001ab	c6 85 03 ff ff
	ff 00		 mov	 BYTE PTR $T2[ebp], 0
$LN9@DrawGrip:
  001b2	8d 4d dc	 lea	 ecx, DWORD PTR _selectSubGraphData$[ebp+148]
  001b5	ff 15 00 00 00
	00		 call	 DWORD PTR __imp_??1?$CStringT@DV?$StrTraitMFC_DLL@DV?$ChTraitsCRT@D@ATL@@@@@ATL@@QAE@XZ
  001bb	8d 8d 50 ff ff
	ff		 lea	 ecx, DWORD PTR _selectSubGraphData$[ebp+8]
  001c1	ff 15 00 00 00
	00		 call	 DWORD PTR __imp_??1?$CStringT@DV?$StrTraitMFC_DLL@DV?$ChTraitsCRT@D@ATL@@@@@ATL@@QAE@XZ
  001c7	8d 8d 4c ff ff
	ff		 lea	 ecx, DWORD PTR _selectSubGraphData$[ebp+4]
  001cd	ff 15 00 00 00
	00		 call	 DWORD PTR __imp_??1?$CStringT@DV?$StrTraitMFC_DLL@DV?$ChTraitsCRT@D@ATL@@@@@ATL@@QAE@XZ
  001d3	8a 85 03 ff ff
	ff		 mov	 al, BYTE PTR $T2[ebp]
  001d9	eb 02		 jmp	 SHORT $LN1@DrawGrip
$LN3@DrawGrip:

; 516  : 		return false;

  001db	32 c0		 xor	 al, al
$LN1@DrawGrip:

; 530  : }

  001dd	8b 4d f4	 mov	 ecx, DWORD PTR __$EHRec$[ebp]
  001e0	64 89 0d 00 00
	00 00		 mov	 DWORD PTR fs:0, ecx
  001e7	59		 pop	 ecx
  001e8	5f		 pop	 edi
  001e9	5e		 pop	 esi
  001ea	8b 4d f0	 mov	 ecx, DWORD PTR __$ArrayPad$[ebp]
  001ed	33 cd		 xor	 ecx, ebp
  001ef	e8 00 00 00 00	 call	 @__security_check_cookie@4
  001f4	8b e5		 mov	 esp, ebp
  001f6	5d		 pop	 ebp
  001f7	c2 08 00	 ret	 8
_TEXT	ENDS
;	COMDAT text$x
text$x	SEGMENT
__unwindfunclet$?DrawGrip@CSubGraph@@QAE_NPAVCDC@@H@Z$0:
  00000	8d 8d 48 ff ff
	ff		 lea	 ecx, DWORD PTR _selectSubGraphData$[ebp]
  00006	e9 00 00 00 00	 jmp	 ??1CSelectSubGraphData@@QAE@XZ
  0000b	cc		 int	 3
  0000c	cc		 int	 3
  0000d	cc		 int	 3
  0000e	cc		 int	 3
  0000f	cc		 int	 3
__ehhandler$?DrawGrip@CSubGraph@@QAE_NPAVCDC@@H@Z:
  00010	90		 npad	 1
  00011	90		 npad	 1
  00012	8b 54 24 08	 mov	 edx, DWORD PTR [esp+8]
  00016	8d 42 0c	 lea	 eax, DWORD PTR [edx+12]
  00019	8b 8a f4 fe ff
	ff		 mov	 ecx, DWORD PTR [edx-268]
  0001f	33 c8		 xor	 ecx, eax
  00021	e8 00 00 00 00	 call	 @__security_check_cookie@4
  00026	8b 4a fc	 mov	 ecx, DWORD PTR [edx-4]
  00029	33 c8		 xor	 ecx, eax
  0002b	e8 00 00 00 00	 call	 @__security_check_cookie@4
  00030	b8 00 00 00 00	 mov	 eax, OFFSET __ehfuncinfo$?DrawGrip@CSubGraph@@QAE_NPAVCDC@@H@Z
  00035	e9 00 00 00 00	 jmp	 ___CxxFrameHandler3
text$x	ENDS
?DrawGrip@CSubGraph@@QAE_NPAVCDC@@H@Z ENDP		; CSubGraph::DrawGrip
; Function compile flags: /Ogtp
; File D:\git\src\IBK\IBK_DRFN\ProjSrc\SrcChartEx\ChartOCX\ChartObject\SubGraph.cpp
; File C:\Program Files (x86)\Microsoft Visual Studio\2019\Community\VC\Tools\MSVC\14.29.30133\atlmfc\include\atltypes.h
; File D:\git\src\IBK\IBK_DRFN\ProjSrc\SrcChartEx\ChartOCX\ChartObject\SubGraph.cpp
; File C:\Program Files (x86)\Microsoft Visual Studio\2019\Community\VC\Tools\MSVC\14.29.30133\atlmfc\include\afxwin1.inl
; File D:\git\src\IBK\IBK_DRFN\ProjSrc\SrcChartEx\ChartOCX\ChartObject\SubGraph.cpp
; File C:\Program Files (x86)\Microsoft Visual Studio\2019\Community\VC\Tools\MSVC\14.29.30133\atlmfc\include\afxwin1.inl
; File D:\git\src\IBK\IBK_DRFN\ProjSrc\SrcChartEx\ChartOCX\ChartObject\SubGraph.cpp
;	COMDAT ?DrawGripedSubGraphTitle@CSubGraph@@QAEXPAVCDC@@@Z
_TEXT	SEGMENT
_pBlock$1$ = -28					; size = 4
_this$GSCopy$1$ = -24					; size = 4
_region$ = -20						; size = 16
__$ArrayPad$ = -4					; size = 4
_pDC$ = 8						; size = 4
?DrawGripedSubGraphTitle@CSubGraph@@QAEXPAVCDC@@@Z PROC	; CSubGraph::DrawGripedSubGraphTitle, COMDAT
; _this$ = ecx

; 496  : {

  00000	55		 push	 ebp
  00001	8b ec		 mov	 ebp, esp
  00003	83 ec 1c	 sub	 esp, 28			; 0000001cH
  00006	a1 00 00 00 00	 mov	 eax, DWORD PTR ___security_cookie
  0000b	33 c5		 xor	 eax, ebp
  0000d	89 45 fc	 mov	 DWORD PTR __$ArrayPad$[ebp], eax
  00010	8b c1		 mov	 eax, ecx
  00012	53		 push	 ebx
  00013	8b 5d 08	 mov	 ebx, DWORD PTR _pDC$[ebp]
  00016	89 45 e8	 mov	 DWORD PTR _this$GSCopy$1$[ebp], eax

; 184  : 	if(m_pSubGraphList == NULL)

  00019	8b 48 08	 mov	 ecx, DWORD PTR [eax+8]
  0001c	85 c9		 test	 ecx, ecx
  0001e	0f 84 96 00 00
	00		 je	 $LN1@DrawGriped

; 185  : 		return NULL;
; 186  : 
; 187  : 	return m_pSubGraphList->GetGraph();

  00024	e8 00 00 00 00	 call	 ?GetGraph@CSubGraphList@@QBEPAVCGraphImp@@XZ ; CSubGraphList::GetGraph

; 718  : 	if(pGraph == NULL)

  00029	85 c0		 test	 eax, eax
  0002b	0f 84 89 00 00
	00		 je	 $LN1@DrawGriped

; 719  : 		return NULL;
; 720  : 
; 721  : 	return pGraph->GetVertScaleGroup();

  00031	8b c8		 mov	 ecx, eax
  00033	e8 00 00 00 00	 call	 ?GetVertScaleGroup@CGraphImp@@QBEPAVCVertScaleGroup@@XZ ; CGraphImp::GetVertScaleGroup

; 701  : 	if(pVertScaleGroup == NULL)

  00038	85 c0		 test	 eax, eax
  0003a	74 7e		 je	 SHORT $LN1@DrawGriped

; 702  : 		return NULL;
; 703  : 
; 704  : 	return pVertScaleGroup->GetVertScaleGroupList()->GetBlock();

  0003c	8b c8		 mov	 ecx, eax
  0003e	e8 00 00 00 00	 call	 ?GetVertScaleGroupList@CVertScaleGroup@@QBEPAVCVertScaleGroupList@@XZ ; CVertScaleGroup::GetVertScaleGroupList
  00043	8b c8		 mov	 ecx, eax
  00045	e8 00 00 00 00	 call	 ?GetBlock@CVertScaleGroupList@@QBEPAVCBlockImp@@XZ ; CVertScaleGroupList::GetBlock
  0004a	89 45 e4	 mov	 DWORD PTR _pBlock$1$[ebp], eax

; 497  : 	CBlockImp* pBlock = GetBlock();
; 498  : 	if(pBlock == NULL)

  0004d	85 c0		 test	 eax, eax
  0004f	74 69		 je	 SHORT $LN1@DrawGriped

; 499  : 		return;
; 500  : 
; 501  : 	CBrush* pOldBrush = (CBrush*) pDC->SelectStockObject(NULL_BRUSH);

  00051	8b 13		 mov	 edx, DWORD PTR [ebx]
  00053	8b cb		 mov	 ecx, ebx
  00055	56		 push	 esi
  00056	57		 push	 edi
  00057	6a 05		 push	 5
  00059	ff 52 2c	 call	 DWORD PTR [edx+44]

; 502  : 	int oldDrawMode = pDC->SetROP2(R2_NOT);

  0005c	6a 06		 push	 6
  0005e	8b cb		 mov	 ecx, ebx
  00060	8b f8		 mov	 edi, eax
  00062	e8 00 00 00 00	 call	 ?SetROP2@CDC@@QAEHH@Z	; CDC::SetROP2

; 503  : 
; 504  : 	CRect region = pBlock->GetVertScaleGroupList().GetSubGraphTitleRegion(pDC, this);

  00067	ff 75 e8	 push	 DWORD PTR _this$GSCopy$1$[ebp]
  0006a	8b 4d e4	 mov	 ecx, DWORD PTR _pBlock$1$[ebp]
  0006d	8b f0		 mov	 esi, eax
  0006f	53		 push	 ebx
  00070	8d 45 ec	 lea	 eax, DWORD PTR _region$[ebp]
  00073	50		 push	 eax
  00074	e8 00 00 00 00	 call	 ?GetVertScaleGroupList@CBlockImp@@QAEAAVCVertScaleGroupList@@XZ ; CBlockImp::GetVertScaleGroupList
  00079	8b c8		 mov	 ecx, eax
  0007b	e8 00 00 00 00	 call	 ?GetSubGraphTitleRegion@CVertScaleGroupList@@QBE?AVCRect@@PAVCDC@@PBVCSubGraph@@@Z ; CVertScaleGroupList::GetSubGraphTitleRegion
; File C:\Program Files (x86)\Microsoft Visual Studio\2019\Community\VC\Tools\MSVC\14.29.30133\atlmfc\include\atltypes.h

; 686  : 	::InflateRect(this, x, y);

  00080	6a 02		 push	 2
  00082	6a 02		 push	 2
  00084	8d 45 ec	 lea	 eax, DWORD PTR _region$[ebp]
  00087	50		 push	 eax
  00088	ff 15 00 00 00
	00		 call	 DWORD PTR __imp__InflateRect@12
; File D:\git\src\IBK\IBK_DRFN\ProjSrc\SrcChartEx\ChartOCX\ChartObject\SubGraph.cpp

; 506  : 	region.bottom -= 1;

  0008e	8b 45 f8	 mov	 eax, DWORD PTR _region$[ebp+12]
  00091	48		 dec	 eax
; File C:\Program Files (x86)\Microsoft Visual Studio\2019\Community\VC\Tools\MSVC\14.29.30133\atlmfc\include\afxwin1.inl

; 541  : 	{ ASSERT(m_hDC != NULL); return ::Rectangle(m_hDC, lpRect->left, lpRect->top,

  00092	50		 push	 eax
  00093	ff 75 f4	 push	 DWORD PTR _region$[ebp+8]
; File D:\git\src\IBK\IBK_DRFN\ProjSrc\SrcChartEx\ChartOCX\ChartObject\SubGraph.cpp

; 506  : 	region.bottom -= 1;

  00096	89 45 f8	 mov	 DWORD PTR _region$[ebp+12], eax
; File C:\Program Files (x86)\Microsoft Visual Studio\2019\Community\VC\Tools\MSVC\14.29.30133\atlmfc\include\afxwin1.inl

; 541  : 	{ ASSERT(m_hDC != NULL); return ::Rectangle(m_hDC, lpRect->left, lpRect->top,

  00099	ff 75 f0	 push	 DWORD PTR _region$[ebp+4]
  0009c	ff 75 ec	 push	 DWORD PTR _region$[ebp]
  0009f	ff 73 04	 push	 DWORD PTR [ebx+4]
  000a2	ff 15 00 00 00
	00		 call	 DWORD PTR __imp__Rectangle@20
; File D:\git\src\IBK\IBK_DRFN\ProjSrc\SrcChartEx\ChartOCX\ChartObject\SubGraph.cpp

; 509  : 	pDC->SetROP2(oldDrawMode);

  000a8	56		 push	 esi
  000a9	8b cb		 mov	 ecx, ebx
  000ab	e8 00 00 00 00	 call	 ?SetROP2@CDC@@QAEHH@Z	; CDC::SetROP2

; 510  : 	pDC->SelectObject(pOldBrush);

  000b0	57		 push	 edi
  000b1	8b cb		 mov	 ecx, ebx
  000b3	e8 00 00 00 00	 call	 ?SelectObject@CDC@@QAEPAVCBrush@@PAV2@@Z ; CDC::SelectObject
  000b8	5f		 pop	 edi
  000b9	5e		 pop	 esi
$LN1@DrawGriped:

; 511  : }

  000ba	8b 4d fc	 mov	 ecx, DWORD PTR __$ArrayPad$[ebp]
  000bd	33 cd		 xor	 ecx, ebp
  000bf	5b		 pop	 ebx
  000c0	e8 00 00 00 00	 call	 @__security_check_cookie@4
  000c5	8b e5		 mov	 esp, ebp
  000c7	5d		 pop	 ebp
  000c8	c2 04 00	 ret	 4
?DrawGripedSubGraphTitle@CSubGraph@@QAEXPAVCDC@@@Z ENDP	; CSubGraph::DrawGripedSubGraphTitle
_TEXT	ENDS
; Function compile flags: /Ogtp
; File D:\git\src\IBK\IBK_DRFN\ProjSrc\SrcChartEx\ChartOCX\ChartObject\SubGraph.cpp
;	COMDAT ?DrawSubGraph@CSubGraph@@QAE_NPAVCDC@@PAVCDrawingGraphData@@@Z
_TEXT	SEGMENT
_strRQ$ = -16						; size = 4
__$EHRec$ = -12						; size = 12
_pDC$ = 8						; size = 4
_pDrawingGraphData$ = 12				; size = 4
$T2 = 15						; size = 1
?DrawSubGraph@CSubGraph@@QAE_NPAVCDC@@PAVCDrawingGraphData@@@Z PROC ; CSubGraph::DrawSubGraph, COMDAT
; _this$ = ecx

; 482  : {

  00000	55		 push	 ebp
  00001	8b ec		 mov	 ebp, esp
  00003	6a ff		 push	 -1
  00005	68 00 00 00 00	 push	 __ehhandler$?DrawSubGraph@CSubGraph@@QAE_NPAVCDC@@PAVCDrawingGraphData@@@Z
  0000a	64 a1 00 00 00
	00		 mov	 eax, DWORD PTR fs:0
  00010	50		 push	 eax
  00011	51		 push	 ecx
  00012	53		 push	 ebx
  00013	56		 push	 esi
  00014	57		 push	 edi
  00015	a1 00 00 00 00	 mov	 eax, DWORD PTR ___security_cookie
  0001a	33 c5		 xor	 eax, ebp
  0001c	50		 push	 eax
  0001d	8d 45 f4	 lea	 eax, DWORD PTR __$EHRec$[ebp]
  00020	64 a3 00 00 00
	00		 mov	 DWORD PTR fs:0, eax
  00026	8b f1		 mov	 esi, ecx

; 483  : 	if(m_subGraphData.GetHiding())

  00028	8d 7e 0c	 lea	 edi, DWORD PTR [esi+12]
  0002b	8b cf		 mov	 ecx, edi
  0002d	ff 15 00 00 00
	00		 call	 DWORD PTR __imp_?GetHiding@CSubGraphData@@ABE_NXZ
  00033	84 c0		 test	 al, al
  00035	74 16		 je	 SHORT $LN2@DrawSubGra

; 484  : 		return false;

  00037	32 c0		 xor	 al, al

; 493  : }

  00039	8b 4d f4	 mov	 ecx, DWORD PTR __$EHRec$[ebp]
  0003c	64 89 0d 00 00
	00 00		 mov	 DWORD PTR fs:0, ecx
  00043	59		 pop	 ecx
  00044	5f		 pop	 edi
  00045	5e		 pop	 esi
  00046	5b		 pop	 ebx
  00047	8b e5		 mov	 esp, ebp
  00049	5d		 pop	 ebp
  0004a	c2 08 00	 ret	 8
$LN2@DrawSubGra:

; 485  : 
; 486  : 	pDrawingGraphData->SetSubGraphPacketList(&m_subGraphPacketList);

  0004d	8b 5d 0c	 mov	 ebx, DWORD PTR _pDrawingGraphData$[ebp]
  00050	8d 86 94 00 00
	00		 lea	 eax, DWORD PTR [esi+148]
  00056	50		 push	 eax
  00057	8b cb		 mov	 ecx, ebx
  00059	e8 00 00 00 00	 call	 ?SetSubGraphPacketList@CDrawingGraphData@@QAEXPAVCSubGraphPacketList@@@Z ; CDrawingGraphData::SetSubGraphPacketList

; 184  : 	if(m_pSubGraphList == NULL)

  0005e	8b 4e 08	 mov	 ecx, DWORD PTR [esi+8]
  00061	85 c9		 test	 ecx, ecx
  00063	75 04		 jne	 SHORT $LN6@DrawSubGra

; 185  : 		return NULL;

  00065	33 c0		 xor	 eax, eax
  00067	eb 05		 jmp	 SHORT $LN5@DrawSubGra
$LN6@DrawSubGra:

; 186  : 
; 187  : 	return m_pSubGraphList->GetGraph();

  00069	e8 00 00 00 00	 call	 ?GetGraph@CSubGraphList@@QBEPAVCGraphImp@@XZ ; CSubGraphList::GetGraph
$LN5@DrawSubGra:

; 487  : 	
; 488  : 	// yiilyoul@magicn.com - XScaleManager
; 489  : 	CString strRQ = this->GetGraph()->GetGraphRQ();

  0006e	8b 10		 mov	 edx, DWORD PTR [eax]
  00070	8b c8		 mov	 ecx, eax
  00072	ff 52 1c	 call	 DWORD PTR [edx+28]
  00075	50		 push	 eax
  00076	8d 4d f0	 lea	 ecx, DWORD PTR _strRQ$[ebp]
  00079	ff 15 00 00 00
	00		 call	 DWORD PTR __imp_??0?$CStringT@DV?$StrTraitMFC_DLL@DV?$ChTraitsCRT@D@ATL@@@@@ATL@@QAE@PBD@Z

; 184  : 	if(m_pSubGraphList == NULL)

  0007f	8b 4e 08	 mov	 ecx, DWORD PTR [esi+8]

; 487  : 	
; 488  : 	// yiilyoul@magicn.com - XScaleManager
; 489  : 	CString strRQ = this->GetGraph()->GetGraphRQ();

  00082	c7 45 fc 00 00
	00 00		 mov	 DWORD PTR __$EHRec$[ebp+8], 0

; 184  : 	if(m_pSubGraphList == NULL)

  00089	85 c9		 test	 ecx, ecx
  0008b	75 04		 jne	 SHORT $LN9@DrawSubGra

; 185  : 		return NULL;

  0008d	33 c0		 xor	 eax, eax
  0008f	eb 05		 jmp	 SHORT $LN8@DrawSubGra
$LN9@DrawSubGra:

; 186  : 
; 187  : 	return m_pSubGraphList->GetGraph();

  00091	e8 00 00 00 00	 call	 ?GetGraph@CSubGraphList@@QBEPAVCGraphImp@@XZ ; CSubGraphList::GetGraph
$LN8@DrawSubGra:

; 490  : 	CXScaleManager* pxScaleManager = GetGraph()->GetMainBlock()->GetXScaleManager();

  00096	8b c8		 mov	 ecx, eax
  00098	e8 00 00 00 00	 call	 ?GetMainBlock@CGraphImp@@QBEPAVCMainBlockImp@@XZ ; CGraphImp::GetMainBlock
  0009d	8b c8		 mov	 ecx, eax
  0009f	8b 10		 mov	 edx, DWORD PTR [eax]
  000a1	ff 92 44 02 00
	00		 call	 DWORD PTR [edx+580]

; 491  : 	
; 492  : 	return CGraphDrawer().DrawGraph(pDC, *pDrawingGraphData, m_subGraphData, strRQ, pxScaleManager);

  000a7	50		 push	 eax
  000a8	8d 45 f0	 lea	 eax, DWORD PTR _strRQ$[ebp]
  000ab	50		 push	 eax
  000ac	57		 push	 edi
  000ad	53		 push	 ebx
  000ae	ff 75 08	 push	 DWORD PTR _pDC$[ebp]
  000b1	8d 4d 0f	 lea	 ecx, DWORD PTR $T2[ebp]
  000b4	ff 15 00 00 00
	00		 call	 DWORD PTR __imp_?DrawGraph@CGraphDrawer@@QAE_NPAVCDC@@ABVCDrawingGraphData@@ABVCSubGraphData@@ABV?$CStringT@DV?$StrTraitMFC_DLL@DV?$ChTraitsCRT@D@ATL@@@@@ATL@@PAVCXScaleManager@@@Z
  000ba	8d 4d f0	 lea	 ecx, DWORD PTR _strRQ$[ebp]
  000bd	8a d8		 mov	 bl, al
  000bf	ff 15 00 00 00
	00		 call	 DWORD PTR __imp_??1?$CStringT@DV?$StrTraitMFC_DLL@DV?$ChTraitsCRT@D@ATL@@@@@ATL@@QAE@XZ
  000c5	8a c3		 mov	 al, bl

; 493  : }

  000c7	8b 4d f4	 mov	 ecx, DWORD PTR __$EHRec$[ebp]
  000ca	64 89 0d 00 00
	00 00		 mov	 DWORD PTR fs:0, ecx
  000d1	59		 pop	 ecx
  000d2	5f		 pop	 edi
  000d3	5e		 pop	 esi
  000d4	5b		 pop	 ebx
  000d5	8b e5		 mov	 esp, ebp
  000d7	5d		 pop	 ebp
  000d8	c2 08 00	 ret	 8
_TEXT	ENDS
;	COMDAT text$x
text$x	SEGMENT
__unwindfunclet$?DrawSubGraph@CSubGraph@@QAE_NPAVCDC@@PAVCDrawingGraphData@@@Z$0:
  00000	8d 4d f0	 lea	 ecx, DWORD PTR _strRQ$[ebp]
  00003	ff 25 00 00 00
	00		 jmp	 DWORD PTR __imp_??1?$CStringT@DV?$StrTraitMFC_DLL@DV?$ChTraitsCRT@D@ATL@@@@@ATL@@QAE@XZ
  00009	cc		 int	 3
  0000a	cc		 int	 3
  0000b	cc		 int	 3
  0000c	cc		 int	 3
  0000d	cc		 int	 3
__ehhandler$?DrawSubGraph@CSubGraph@@QAE_NPAVCDC@@PAVCDrawingGraphData@@@Z:
  0000e	90		 npad	 1
  0000f	90		 npad	 1
  00010	8b 54 24 08	 mov	 edx, DWORD PTR [esp+8]
  00014	8d 42 0c	 lea	 eax, DWORD PTR [edx+12]
  00017	8b 4a ec	 mov	 ecx, DWORD PTR [edx-20]
  0001a	33 c8		 xor	 ecx, eax
  0001c	e8 00 00 00 00	 call	 @__security_check_cookie@4
  00021	b8 00 00 00 00	 mov	 eax, OFFSET __ehfuncinfo$?DrawSubGraph@CSubGraph@@QAE_NPAVCDC@@PAVCDrawingGraphData@@@Z
  00026	e9 00 00 00 00	 jmp	 ___CxxFrameHandler3
text$x	ENDS
?DrawSubGraph@CSubGraph@@QAE_NPAVCDC@@PAVCDrawingGraphData@@@Z ENDP ; CSubGraph::DrawSubGraph
; Function compile flags: /Ogtp
; File D:\git\src\IBK\IBK_DRFN\ProjSrc\SrcChartEx\ChartOCX\ChartObject\SubGraph.cpp
;	COMDAT ?DrawSubGraphTitle@CSubGraph@@QAE_NPAVCDC@@PAVCDrawingGraphData@@AAH2ABH@Z
_TEXT	SEGMENT
$T1 = -48						; size = 8
_lpPacketListManager$1$ = -44				; size = 4
_nSubGraphIndex$GSCopy$1$ = -40				; size = 4
_pDC$GSCopy$1$ = -36					; size = 4
_graphTitlePosition$GSCopy$1$ = -32			; size = 4
_graphTitleLine$GSCopy$1$ = -28				; size = 4
_bResult$1$ = -21					; size = 1
$T2 = -21						; size = 1
_region$3 = -20						; size = 16
__$ArrayPad$ = -4					; size = 4
_pDC$ = 8						; size = 4
_pDrawingGraphData$ = 12				; size = 4
_graphTitlePosition$ = 16				; size = 4
_graphTitleLine$ = 20					; size = 4
_nSubGraphIndex$ = 24					; size = 4
?DrawSubGraphTitle@CSubGraph@@QAE_NPAVCDC@@PAVCDrawingGraphData@@AAH2ABH@Z PROC ; CSubGraph::DrawSubGraphTitle, COMDAT
; _this$ = ecx

; 432  : {

  00000	55		 push	 ebp
  00001	8b ec		 mov	 ebp, esp
  00003	83 ec 30	 sub	 esp, 48			; 00000030H
  00006	a1 00 00 00 00	 mov	 eax, DWORD PTR ___security_cookie
  0000b	33 c5		 xor	 eax, ebp
  0000d	89 45 fc	 mov	 DWORD PTR __$ArrayPad$[ebp], eax
  00010	8b 45 08	 mov	 eax, DWORD PTR _pDC$[ebp]
  00013	53		 push	 ebx
  00014	8b 5d 0c	 mov	 ebx, DWORD PTR _pDrawingGraphData$[ebp]
  00017	56		 push	 esi
  00018	57		 push	 edi
  00019	8b f9		 mov	 edi, ecx
  0001b	89 45 dc	 mov	 DWORD PTR _pDC$GSCopy$1$[ebp], eax
  0001e	8b 45 10	 mov	 eax, DWORD PTR _graphTitlePosition$[ebp]
  00021	89 45 e0	 mov	 DWORD PTR _graphTitlePosition$GSCopy$1$[ebp], eax
  00024	8b 45 14	 mov	 eax, DWORD PTR _graphTitleLine$[ebp]
  00027	89 45 e4	 mov	 DWORD PTR _graphTitleLine$GSCopy$1$[ebp], eax

; 433  : 	if(m_subGraphData.GetHiding())

  0002a	8d 77 0c	 lea	 esi, DWORD PTR [edi+12]
  0002d	8b 45 18	 mov	 eax, DWORD PTR _nSubGraphIndex$[ebp]
  00030	8b ce		 mov	 ecx, esi
  00032	89 45 d8	 mov	 DWORD PTR _nSubGraphIndex$GSCopy$1$[ebp], eax
  00035	ff 15 00 00 00
	00		 call	 DWORD PTR __imp_?GetHiding@CSubGraphData@@ABE_NXZ
  0003b	84 c0		 test	 al, al
  0003d	74 15		 je	 SHORT $LN2@DrawSubGra

; 478  : }

  0003f	5f		 pop	 edi
  00040	5e		 pop	 esi
  00041	32 c0		 xor	 al, al
  00043	5b		 pop	 ebx
  00044	8b 4d fc	 mov	 ecx, DWORD PTR __$ArrayPad$[ebp]
  00047	33 cd		 xor	 ecx, ebp
  00049	e8 00 00 00 00	 call	 @__security_check_cookie@4
  0004e	8b e5		 mov	 esp, ebp
  00050	5d		 pop	 ebp
  00051	c2 14 00	 ret	 20			; 00000014H
$LN2@DrawSubGra:

; 434  : 		return false;
; 435  : 
; 436  : 	pDrawingGraphData->SetSubGraphPacketList(&m_subGraphPacketList);

  00054	8d 87 94 00 00
	00		 lea	 eax, DWORD PTR [edi+148]
  0005a	8b cb		 mov	 ecx, ebx
  0005c	50		 push	 eax
  0005d	e8 00 00 00 00	 call	 ?SetSubGraphPacketList@CDrawingGraphData@@QAEXPAVCSubGraphPacketList@@@Z ; CDrawingGraphData::SetSubGraphPacketList

; 184  : 	if(m_pSubGraphList == NULL)

  00062	8b 4f 08	 mov	 ecx, DWORD PTR [edi+8]
  00065	85 c9		 test	 ecx, ecx
  00067	75 04		 jne	 SHORT $LN8@DrawSubGra

; 185  : 		return NULL;

  00069	33 c0		 xor	 eax, eax
  0006b	eb 05		 jmp	 SHORT $LN7@DrawSubGra
$LN8@DrawSubGra:

; 186  : 
; 187  : 	return m_pSubGraphList->GetGraph();

  0006d	e8 00 00 00 00	 call	 ?GetGraph@CSubGraphList@@QBEPAVCGraphImp@@XZ ; CSubGraphList::GetGraph
$LN7@DrawSubGra:

; 437  : 	
; 438  : 	// CPacketListManager  :  - ojtaso (20070705)
; 439  : 	CPacketListManager* lpPacketListManager = GetGraph()->GetMainBlock()->GetPacketListManager();

  00072	8b c8		 mov	 ecx, eax
  00074	e8 00 00 00 00	 call	 ?GetMainBlock@CGraphImp@@QBEPAVCMainBlockImp@@XZ ; CGraphImp::GetMainBlock
  00079	8b c8		 mov	 ecx, eax
  0007b	8b 10		 mov	 edx, DWORD PTR [eax]
  0007d	ff 92 48 02 00
	00		 call	 DWORD PTR [edx+584]
  00083	89 45 d4	 mov	 DWORD PTR _lpPacketListManager$1$[ebp], eax

; 440  : //	//     :  - ojtaso (20070705)
; 441  : //	if(lpPacketListManager->GetPacketListCount() > 1)
; 442  : //	{
; 443  : //		if( !strcmp( this->GetGraph()->GetGraphRQ(), lpPacketListManager->GetCurrentRQ()))
; 444  : //		{
; 445  : //			CBlockImp* pBlock = GetBlock();
; 446  : //			CRect region = pBlock->GetVertScaleGroupList().GetSubGraphTitleRegion(pDC, this);
; 447  : //			
; 448  : //			pDC->MoveTo(region.left, region.bottom - 1);
; 449  : //			pDC->LineTo(region.right, region.bottom - 1);
; 450  : //			pDC->LineTo(region.right, region.top);
; 451  : //		}
; 452  : //	}
; 453  : 	
; 454  : 	//     - ojtaso (20071116)
; 455  : 	m_subGraphData.SetSubGraphIndex( nSubGraphIndex);

  00086	8b ce		 mov	 ecx, esi
  00088	8b 45 d8	 mov	 eax, DWORD PTR _nSubGraphIndex$GSCopy$1$[ebp]
  0008b	ff 30		 push	 DWORD PTR [eax]
  0008d	ff 15 00 00 00
	00		 call	 DWORD PTR __imp_?SetSubGraphIndex@CSubGraphDataBase@@QAEXH@Z

; 456  : 
; 457  : 	//    :  - ojtaso (20070227)
; 458  : 	bool bResult = CGraphDrawer().DrawGraphTitle(pDC, *pDrawingGraphData, m_subGraphData, graphTitlePosition, graphTitleLine);

  00093	ff 75 e4	 push	 DWORD PTR _graphTitleLine$GSCopy$1$[ebp]
  00096	8d 4d eb	 lea	 ecx, DWORD PTR $T2[ebp]
  00099	ff 75 e0	 push	 DWORD PTR _graphTitlePosition$GSCopy$1$[ebp]
  0009c	56		 push	 esi
  0009d	53		 push	 ebx
  0009e	ff 75 dc	 push	 DWORD PTR _pDC$GSCopy$1$[ebp]
  000a1	ff 15 00 00 00
	00		 call	 DWORD PTR __imp_?DrawGraphTitle@CGraphDrawer@@QAE_NPAVCDC@@ABVCDrawingGraphData@@ABVCSubGraphData@@AAH3@Z
  000a7	8a d8		 mov	 bl, al
  000a9	88 5d eb	 mov	 BYTE PTR _bResult$1$[ebp], bl

; 459  : 	if(bResult)

  000ac	84 db		 test	 bl, bl
  000ae	0f 84 d5 00 00
	00		 je	 $LN5@DrawSubGra

; 460  : 	{
; 461  : 		m_subGraphData.SetTitleEndPosition( graphTitlePosition, graphTitleLine);

  000b4	8b 45 e4	 mov	 eax, DWORD PTR _graphTitleLine$GSCopy$1$[ebp]
  000b7	8b ce		 mov	 ecx, esi
  000b9	ff 30		 push	 DWORD PTR [eax]
  000bb	8b 45 e0	 mov	 eax, DWORD PTR _graphTitlePosition$GSCopy$1$[ebp]
  000be	ff 30		 push	 DWORD PTR [eax]
  000c0	ff 15 00 00 00
	00		 call	 DWORD PTR __imp_?SetTitleEndPosition@CSubGraphDataBase@@QAEXHH@Z

; 462  : 
; 463  : 		//     :  - ojtaso (20070705)
; 464  : 		if(lpPacketListManager->GetPacketListCount() > 1)

  000c6	8b 4d d4	 mov	 ecx, DWORD PTR _lpPacketListManager$1$[ebp]
  000c9	8b 01		 mov	 eax, DWORD PTR [ecx]
  000cb	ff 50 38	 call	 DWORD PTR [eax+56]
  000ce	83 f8 01	 cmp	 eax, 1
  000d1	0f 8e b2 00 00
	00		 jle	 $LN5@DrawSubGra

; 465  : 		{
; 466  : 			if( !strcmp( this->GetGraph()->GetGraphRQ(), m_pMainBlockBaseData->GetMainAttributes().GetIChartCtrl()->GetCurrentRQ()))

  000d7	8b 4f 04	 mov	 ecx, DWORD PTR [edi+4]
  000da	e8 00 00 00 00	 call	 ?GetMainAttributes@CMainBlockBaseData@@QAEAAVCMainAttributes@@XZ ; CMainBlockBaseData::GetMainAttributes
  000df	8b c8		 mov	 ecx, eax
  000e1	e8 00 00 00 00	 call	 ?GetIChartCtrl@CMainAttributes@@QBEPAUIChartCtrl@@XZ ; CMainAttributes::GetIChartCtrl

; 184  : 	if(m_pSubGraphList == NULL)

  000e6	8b 4f 08	 mov	 ecx, DWORD PTR [edi+8]

; 465  : 		{
; 466  : 			if( !strcmp( this->GetGraph()->GetGraphRQ(), m_pMainBlockBaseData->GetMainAttributes().GetIChartCtrl()->GetCurrentRQ()))

  000e9	8b f0		 mov	 esi, eax

; 184  : 	if(m_pSubGraphList == NULL)

  000eb	85 c9		 test	 ecx, ecx
  000ed	75 04		 jne	 SHORT $LN11@DrawSubGra

; 185  : 		return NULL;

  000ef	33 db		 xor	 ebx, ebx
  000f1	eb 07		 jmp	 SHORT $LN10@DrawSubGra
$LN11@DrawSubGra:

; 186  : 
; 187  : 	return m_pSubGraphList->GetGraph();

  000f3	e8 00 00 00 00	 call	 ?GetGraph@CSubGraphList@@QBEPAVCGraphImp@@XZ ; CSubGraphList::GetGraph
  000f8	8b d8		 mov	 ebx, eax
$LN10@DrawSubGra:

; 465  : 		{
; 466  : 			if( !strcmp( this->GetGraph()->GetGraphRQ(), m_pMainBlockBaseData->GetMainAttributes().GetIChartCtrl()->GetCurrentRQ()))

  000fa	8b 16		 mov	 edx, DWORD PTR [esi]
  000fc	8b ce		 mov	 ecx, esi
  000fe	ff 92 d8 02 00
	00		 call	 DWORD PTR [edx+728]
  00104	8b 13		 mov	 edx, DWORD PTR [ebx]
  00106	8b cb		 mov	 ecx, ebx
  00108	8b f0		 mov	 esi, eax
  0010a	ff 52 1c	 call	 DWORD PTR [edx+28]
  0010d	0f 1f 00	 npad	 3
$LL13@DrawSubGra:
  00110	8a 08		 mov	 cl, BYTE PTR [eax]
  00112	3a 0e		 cmp	 cl, BYTE PTR [esi]
  00114	75 1a		 jne	 SHORT $LN14@DrawSubGra
  00116	84 c9		 test	 cl, cl
  00118	74 12		 je	 SHORT $LN15@DrawSubGra
  0011a	8a 48 01	 mov	 cl, BYTE PTR [eax+1]
  0011d	3a 4e 01	 cmp	 cl, BYTE PTR [esi+1]
  00120	75 0e		 jne	 SHORT $LN14@DrawSubGra
  00122	83 c0 02	 add	 eax, 2
  00125	83 c6 02	 add	 esi, 2
  00128	84 c9		 test	 cl, cl
  0012a	75 e4		 jne	 SHORT $LL13@DrawSubGra
$LN15@DrawSubGra:
  0012c	33 c0		 xor	 eax, eax
  0012e	eb 05		 jmp	 SHORT $LN16@DrawSubGra
$LN14@DrawSubGra:
  00130	1b c0		 sbb	 eax, eax
  00132	83 c8 01	 or	 eax, 1
$LN16@DrawSubGra:
  00135	85 c0		 test	 eax, eax
  00137	75 4d		 jne	 SHORT $LN17@DrawSubGra

; 467  : 			{
; 468  : 				CBlockImp* pBlock = GetBlock();

  00139	8b cf		 mov	 ecx, edi
  0013b	e8 00 00 00 00	 call	 ?GetBlock@CSubGraph@@ABEPAVCBlockImp@@XZ ; CSubGraph::GetBlock

; 469  : 				CRect region = pBlock->GetVertScaleGroupList().GetSubGraphTitleRegion(pDC, this);

  00140	8b 5d dc	 mov	 ebx, DWORD PTR _pDC$GSCopy$1$[ebp]
  00143	8d 4d ec	 lea	 ecx, DWORD PTR _region$3[ebp]
  00146	57		 push	 edi
  00147	53		 push	 ebx
  00148	51		 push	 ecx
  00149	8b c8		 mov	 ecx, eax
  0014b	e8 00 00 00 00	 call	 ?GetVertScaleGroupList@CBlockImp@@QAEAAVCVertScaleGroupList@@XZ ; CBlockImp::GetVertScaleGroupList
  00150	8b c8		 mov	 ecx, eax
  00152	e8 00 00 00 00	 call	 ?GetSubGraphTitleRegion@CVertScaleGroupList@@QBE?AVCRect@@PAVCDC@@PBVCSubGraph@@@Z ; CVertScaleGroupList::GetSubGraphTitleRegion

; 470  : 				
; 471  : 				pDC->MoveTo(region.left, region.bottom - 1);

  00157	8b 45 f8	 mov	 eax, DWORD PTR _region$3[ebp+12]
  0015a	8b cb		 mov	 ecx, ebx
  0015c	48		 dec	 eax
  0015d	50		 push	 eax
  0015e	ff 75 ec	 push	 DWORD PTR _region$3[ebp]
  00161	8d 45 d0	 lea	 eax, DWORD PTR $T1[ebp]
  00164	50		 push	 eax
  00165	e8 00 00 00 00	 call	 ?MoveTo@CDC@@QAE?AVCPoint@@HH@Z ; CDC::MoveTo

; 472  : 				pDC->LineTo(region.right, region.bottom - 1);

  0016a	8b 45 f8	 mov	 eax, DWORD PTR _region$3[ebp+12]
  0016d	8b cb		 mov	 ecx, ebx
  0016f	48		 dec	 eax
  00170	50		 push	 eax
  00171	ff 75 f4	 push	 DWORD PTR _region$3[ebp+8]
  00174	e8 00 00 00 00	 call	 ?LineTo@CDC@@QAEHHH@Z	; CDC::LineTo

; 473  : 				pDC->LineTo(region.right, region.top);

  00179	ff 75 f0	 push	 DWORD PTR _region$3[ebp+4]
  0017c	8b cb		 mov	 ecx, ebx
  0017e	ff 75 f4	 push	 DWORD PTR _region$3[ebp+8]
  00181	e8 00 00 00 00	 call	 ?LineTo@CDC@@QAEHHH@Z	; CDC::LineTo
$LN17@DrawSubGra:

; 474  : 			}
; 475  : 		}
; 476  : 	}
; 477  : 	return bResult;

  00186	8a 5d eb	 mov	 bl, BYTE PTR _bResult$1$[ebp]
$LN5@DrawSubGra:

; 478  : }

  00189	8b 4d fc	 mov	 ecx, DWORD PTR __$ArrayPad$[ebp]
  0018c	8a c3		 mov	 al, bl
  0018e	5f		 pop	 edi
  0018f	5e		 pop	 esi
  00190	33 cd		 xor	 ecx, ebp
  00192	5b		 pop	 ebx
  00193	e8 00 00 00 00	 call	 @__security_check_cookie@4
  00198	8b e5		 mov	 esp, ebp
  0019a	5d		 pop	 ebp
  0019b	c2 14 00	 ret	 20			; 00000014H
?DrawSubGraphTitle@CSubGraph@@QAE_NPAVCDC@@PAVCDrawingGraphData@@AAH2ABH@Z ENDP ; CSubGraph::DrawSubGraphTitle
_TEXT	ENDS
; Function compile flags: /Ogtp
; File D:\git\src\IBK\IBK_DRFN\ProjSrc\SrcChartEx\ChartOCX\ChartObject\SubGraph.cpp
; File C:\Program Files (x86)\Microsoft Visual Studio\2019\Community\VC\Tools\MSVC\14.29.30133\atlmfc\include\cstringt.h
; File D:\git\src\IBK\IBK_DRFN\ProjSrc\SrcChartEx\ChartOCX\ChartObject\SubGraph.cpp
; File C:\Program Files (x86)\Microsoft Visual Studio\2019\Community\VC\Tools\MSVC\14.29.30133\atlmfc\include\cstringt.h
; File D:\git\src\IBK\IBK_DRFN\ProjSrc\SrcChartEx\ChartOCX\ChartObject\SubGraph.cpp
;	COMDAT ?GetDisplayDataMinMax@CSubGraph@@QAE_NPAVCVertDisplayDataMinMaxInputData@@AAVCDisplayDataMinMax@@H@Z
_TEXT	SEGMENT
_pxScaleManager$1$ = -48				; size = 4
$T2 = -48						; size = 4
$T3 = -44						; size = 8
$T4 = -44						; size = 8
$T5 = -40						; size = 4
_nDRI_Start$1$ = -36					; size = 4
_nDRI_End$1$ = -32					; size = 4
_nDTI_Start$ = -28					; size = 4
_nDTI_End$ = -24					; size = 4
_strRQ$ = -20						; size = 4
$T6 = -13						; size = 1
__$EHRec$ = -12						; size = 12
_pInputData$ = 8					; size = 4
_displayDataMinMax$ = 12				; size = 4
_p_bWithFullRange$ = 16					; size = 4
?GetDisplayDataMinMax@CSubGraph@@QAE_NPAVCVertDisplayDataMinMaxInputData@@AAVCDisplayDataMinMax@@H@Z PROC ; CSubGraph::GetDisplayDataMinMax, COMDAT
; _this$ = ecx

; 377  : {

  00000	55		 push	 ebp
  00001	8b ec		 mov	 ebp, esp
  00003	6a ff		 push	 -1
  00005	68 00 00 00 00	 push	 __ehhandler$?GetDisplayDataMinMax@CSubGraph@@QAE_NPAVCVertDisplayDataMinMaxInputData@@AAVCDisplayDataMinMax@@H@Z
  0000a	64 a1 00 00 00
	00		 mov	 eax, DWORD PTR fs:0
  00010	50		 push	 eax
  00011	83 ec 24	 sub	 esp, 36			; 00000024H
  00014	53		 push	 ebx
  00015	56		 push	 esi
  00016	57		 push	 edi
  00017	a1 00 00 00 00	 mov	 eax, DWORD PTR ___security_cookie
  0001c	33 c5		 xor	 eax, ebp
  0001e	50		 push	 eax
  0001f	8d 45 f4	 lea	 eax, DWORD PTR __$EHRec$[ebp]
  00022	64 a3 00 00 00
	00		 mov	 DWORD PTR fs:0, eax
  00028	8b f9		 mov	 edi, ecx

; 554  : 	if(m_subGraphData.GetHiding())

  0002a	8d 77 0c	 lea	 esi, DWORD PTR [edi+12]
  0002d	8b ce		 mov	 ecx, esi
  0002f	ff 15 00 00 00
	00		 call	 DWORD PTR __imp_?GetHiding@CSubGraphData@@ABE_NXZ
  00035	84 c0		 test	 al, al
  00037	0f 85 04 02 00
	00		 jne	 $LN31@GetDisplay

; 555  : 		return false;
; 556  : 
; 557  : 	if(m_subGraphData.GetType() == CGraphBaseData::DataView_Type)

  0003d	8b 1d 00 00 00
	00		 mov	 ebx, DWORD PTR __imp_?GetType@CSubGraphDataBase@@QBE?AW4GRAPHTYPE@CGraphBaseData@@XZ
  00043	8b ce		 mov	 ecx, esi
  00045	ff d3		 call	 ebx
  00047	83 f8 06	 cmp	 eax, 6
  0004a	0f 84 f1 01 00
	00		 je	 $LN31@GetDisplay

; 558  : 		return false;
; 559  : 
; 560  : 	if(m_subGraphData.GetType() == CGraphBaseData::Line_Type)

  00050	8b ce		 mov	 ecx, esi
  00052	ff d3		 call	 ebx
  00054	83 f8 01	 cmp	 eax, 1
  00057	75 20		 jne	 SHORT $LN2@GetDisplay

; 561  : 	{
; 562  : 		CGraphBaseData::LINESTYLE eLineStyle = m_subGraphData.GetStyle().GetGraphLineStyle();

  00059	8d 45 d0	 lea	 eax, DWORD PTR $T2[ebp]
  0005c	8b ce		 mov	 ecx, esi
  0005e	50		 push	 eax
  0005f	ff 15 00 00 00
	00		 call	 DWORD PTR __imp_?GetStyle@CSubGraphDataBase@@QBE?AVCGraphStyle@@XZ
  00065	8b 00		 mov	 eax, DWORD PTR [eax]

; 563  : 		return (eLineStyle != CGraphBaseData::HorizontalLine && eLineStyle != CGraphBaseData::VerticalLine);

  00067	83 f8 03	 cmp	 eax, 3
  0006a	0f 84 d1 01 00
	00		 je	 $LN31@GetDisplay
  00070	83 f8 0b	 cmp	 eax, 11			; 0000000bH
  00073	0f 84 c8 01 00
	00		 je	 $LN31@GetDisplay
$LN2@GetDisplay:

; 378  : 	// dataview  ""   .
; 379  : 	if(!IsDisplayDataMinMax())
; 380  : 		return false;
; 381  : 
; 382  : 	pInputData->SetSubGraphData(const_cast<CSubGraphData*>(&m_subGraphData));

  00079	8b 5d 08	 mov	 ebx, DWORD PTR _pInputData$[ebp]
  0007c	8b cb		 mov	 ecx, ebx
  0007e	56		 push	 esi
  0007f	e8 00 00 00 00	 call	 ?SetSubGraphData@CVertDisplayDataMinMaxInputData@@QAEXPAVCSubGraphData@@@Z ; CVertDisplayDataMinMaxInputData::SetSubGraphData

; 383  : 	pInputData->SetSubGraphPacketList(const_cast<CSubGraphPacketList*>(&m_subGraphPacketList));

  00084	8d 87 94 00 00
	00		 lea	 eax, DWORD PTR [edi+148]
  0008a	8b cb		 mov	 ecx, ebx
  0008c	50		 push	 eax
  0008d	e8 00 00 00 00	 call	 ?SetSubGraphPacketList@CVertDisplayDataMinMaxInputData@@QAEXPAVCSubGraphPacketList@@@Z ; CVertDisplayDataMinMaxInputData::SetSubGraphPacketList

; 184  : 	if(m_pSubGraphList == NULL)

  00092	8b 4f 08	 mov	 ecx, DWORD PTR [edi+8]
  00095	85 c9		 test	 ecx, ecx
  00097	75 04		 jne	 SHORT $LN20@GetDisplay

; 185  : 		return NULL;

  00099	33 c0		 xor	 eax, eax
  0009b	eb 05		 jmp	 SHORT $LN19@GetDisplay
$LN20@GetDisplay:

; 186  : 
; 187  : 	return m_pSubGraphList->GetGraph();

  0009d	e8 00 00 00 00	 call	 ?GetGraph@CSubGraphList@@QBEPAVCGraphImp@@XZ ; CSubGraphList::GetGraph
$LN19@GetDisplay:

; 384  : 	
; 385  : //	CPacket* lpPacket = m_subGraphPacketList.GetHeadPacket();
; 386  : 
; 387  : 	// yiilyoul@magicn.com - XScaleManager
; 388  : 	CXScaleManager* pxScaleManager = GetGraph()->GetMainBlock()->GetXScaleManager();

  000a2	8b c8		 mov	 ecx, eax
  000a4	e8 00 00 00 00	 call	 ?GetMainBlock@CGraphImp@@QBEPAVCMainBlockImp@@XZ ; CGraphImp::GetMainBlock
  000a9	8b c8		 mov	 ecx, eax
  000ab	8b 10		 mov	 edx, DWORD PTR [eax]
  000ad	ff 92 44 02 00
	00		 call	 DWORD PTR [edx+580]

; 184  : 	if(m_pSubGraphList == NULL)

  000b3	8b 4f 08	 mov	 ecx, DWORD PTR [edi+8]

; 384  : 	
; 385  : //	CPacket* lpPacket = m_subGraphPacketList.GetHeadPacket();
; 386  : 
; 387  : 	// yiilyoul@magicn.com - XScaleManager
; 388  : 	CXScaleManager* pxScaleManager = GetGraph()->GetMainBlock()->GetXScaleManager();

  000b6	8b f0		 mov	 esi, eax
  000b8	89 75 d0	 mov	 DWORD PTR _pxScaleManager$1$[ebp], esi

; 184  : 	if(m_pSubGraphList == NULL)

  000bb	85 c9		 test	 ecx, ecx
  000bd	75 04		 jne	 SHORT $LN23@GetDisplay

; 185  : 		return NULL;

  000bf	33 c0		 xor	 eax, eax
  000c1	eb 05		 jmp	 SHORT $LN22@GetDisplay
$LN23@GetDisplay:

; 186  : 
; 187  : 	return m_pSubGraphList->GetGraph();

  000c3	e8 00 00 00 00	 call	 ?GetGraph@CSubGraphList@@QBEPAVCGraphImp@@XZ ; CSubGraphList::GetGraph
$LN22@GetDisplay:

; 389  : 	CPacketRQ *pPacketRQ = this->GetGraph()->GetPacketRQ();

  000c8	8b c8		 mov	 ecx, eax
  000ca	e8 00 00 00 00	 call	 ?GetPacketRQ@CGraphImp@@QAEPAVCPacketRQ@@XZ ; CGraphImp::GetPacketRQ

; 390  : 	// (2009/9/20 - Seung-Won, Bae) on deletion of graph, It can be NULL.
; 391  : 	if( !pPacketRQ) return false;

  000cf	85 c0		 test	 eax, eax
  000d1	0f 84 6a 01 00
	00		 je	 $LN31@GetDisplay

; 392  : 	CString strRQ = pPacketRQ->GetRQ();

  000d7	ff 70 04	 push	 DWORD PTR [eax+4]
  000da	8d 4d ec	 lea	 ecx, DWORD PTR _strRQ$[ebp]
  000dd	ff 15 00 00 00
	00		 call	 DWORD PTR __imp_??0?$CStringT@DV?$StrTraitMFC_DLL@DV?$ChTraitsCRT@D@ATL@@@@@ATL@@QAE@PBD@Z

; 393  : 
; 394  : 	int nDRI_Start, nDRI_End;
; 395  : 	int nDTI_Start, nDTI_End;
; 396  : 
; 397  : 	nDRI_Start = pInputData->GetDisplayAttributes().GetDataStartInBlock();

  000e3	8d 45 d4	 lea	 eax, DWORD PTR $T4[ebp]
  000e6	c7 45 fc 00 00
	00 00		 mov	 DWORD PTR __$EHRec$[ebp+8], 0
  000ed	50		 push	 eax
  000ee	8b cb		 mov	 ecx, ebx
  000f0	e8 00 00 00 00	 call	 ?GetDisplayAttributes@CVertDisplayDataMinMaxInputData@@QBE?AVCDisplayAttributes@@XZ ; CVertDisplayDataMinMaxInputData::GetDisplayAttributes
  000f5	8b c8		 mov	 ecx, eax
  000f7	e8 00 00 00 00	 call	 ?GetDataStartInBlock@CDisplayAttributes@@QBEHXZ ; CDisplayAttributes::GetDataStartInBlock
  000fc	89 45 dc	 mov	 DWORD PTR _nDRI_Start$1$[ebp], eax

; 398  : 	nDRI_End = pInputData->GetDisplayAttributes().GetDataEndInBlock();

  000ff	8b cb		 mov	 ecx, ebx
  00101	8d 45 d4	 lea	 eax, DWORD PTR $T3[ebp]
  00104	50		 push	 eax
  00105	e8 00 00 00 00	 call	 ?GetDisplayAttributes@CVertDisplayDataMinMaxInputData@@QBE?AVCDisplayAttributes@@XZ ; CVertDisplayDataMinMaxInputData::GetDisplayAttributes
  0010a	8b c8		 mov	 ecx, eax
  0010c	e8 00 00 00 00	 call	 ?GetDataEndInBlock@CDisplayAttributes@@QBEHXZ ; CDisplayAttributes::GetDataEndInBlock

; 184  : 	if(m_pSubGraphList == NULL)

  00111	8b 4f 08	 mov	 ecx, DWORD PTR [edi+8]

; 398  : 	nDRI_End = pInputData->GetDisplayAttributes().GetDataEndInBlock();

  00114	89 45 e0	 mov	 DWORD PTR _nDRI_End$1$[ebp], eax

; 184  : 	if(m_pSubGraphList == NULL)

  00117	85 c9		 test	 ecx, ecx
  00119	75 04		 jne	 SHORT $LN26@GetDisplay

; 185  : 		return NULL;

  0011b	33 c0		 xor	 eax, eax
  0011d	eb 05		 jmp	 SHORT $LN25@GetDisplay
$LN26@GetDisplay:

; 186  : 
; 187  : 	return m_pSubGraphList->GetGraph();

  0011f	e8 00 00 00 00	 call	 ?GetGraph@CSubGraphList@@QBEPAVCGraphImp@@XZ ; CSubGraphList::GetGraph
$LN25@GetDisplay:

; 399  : 
; 400  : 	CIndicatorInfo* pIndicatorInfo = this->GetGraph()->GetIndicatorInfo();

  00124	8b c8		 mov	 ecx, eax
  00126	e8 00 00 00 00	 call	 ?GetIndicatorInfo@CGraphImp@@QAEPAVCIndicatorInfo@@XZ ; CGraphImp::GetIndicatorInfo

; 401  : 
; 402  : 	if(pIndicatorInfo != NULL)

  0012b	85 c0		 test	 eax, eax
  0012d	74 5e		 je	 SHORT $LN4@GetDisplay

; 404  : 		BOOL bOEBT = (pIndicatorInfo->GetIndicatorName() == _MTEXT( C2_OBVIOUSLY_BALANCE_CHART));

  0012f	8d 4d d8	 lea	 ecx, DWORD PTR $T5[ebp]
  00132	51		 push	 ecx
  00133	8b c8		 mov	 ecx, eax
  00135	ff 15 00 00 00
	00		 call	 DWORD PTR __imp_?GetIndicatorName@CIndicatorInfo@@QBE?AV?$CStringT@DV?$StrTraitMFC_DLL@DV?$ChTraitsCRT@D@ATL@@@@@ATL@@XZ
  0013b	8b 0d 54 00 00
	00		 mov	 ecx, DWORD PTR ?g_iMetaTable@@3VIMetaTable@@A+84
  00141	c6 45 fc 01	 mov	 BYTE PTR __$EHRec$[ebp+8], 1
; File C:\Program Files (x86)\Microsoft Visual Studio\2019\Community\VC\Tools\MSVC\14.29.30133\atlmfc\include\cstringt.h

; 2486 : 		return(str1.Compare(psz2) == 0);

  00145	ff b1 38 03 00
	00		 push	 DWORD PTR [ecx+824]
  0014b	8b c8		 mov	 ecx, eax
  0014d	ff 15 00 00 00
	00		 call	 DWORD PTR __imp_?Compare@?$CStringT@DV?$StrTraitMFC_DLL@DV?$ChTraitsCRT@D@ATL@@@@@ATL@@QBEHPBD@Z
  00153	f7 d8		 neg	 eax
; File D:\git\src\IBK\IBK_DRFN\ProjSrc\SrcChartEx\ChartOCX\ChartObject\SubGraph.cpp

; 404  : 		BOOL bOEBT = (pIndicatorInfo->GetIndicatorName() == _MTEXT( C2_OBVIOUSLY_BALANCE_CHART));

  00155	c6 45 fc 00	 mov	 BYTE PTR __$EHRec$[ebp+8], 0
  00159	8d 4d d8	 lea	 ecx, DWORD PTR $T5[ebp]
; File C:\Program Files (x86)\Microsoft Visual Studio\2019\Community\VC\Tools\MSVC\14.29.30133\atlmfc\include\cstringt.h

; 2486 : 		return(str1.Compare(psz2) == 0);

  0015c	1b f6		 sbb	 esi, esi
  0015e	46		 inc	 esi
; File D:\git\src\IBK\IBK_DRFN\ProjSrc\SrcChartEx\ChartOCX\ChartObject\SubGraph.cpp

; 404  : 		BOOL bOEBT = (pIndicatorInfo->GetIndicatorName() == _MTEXT( C2_OBVIOUSLY_BALANCE_CHART));

  0015f	ff 15 00 00 00
	00		 call	 DWORD PTR __imp_??1?$CStringT@DV?$StrTraitMFC_DLL@DV?$ChTraitsCRT@D@ATL@@@@@ATL@@QAE@XZ

; 405  : 		pxScaleManager->GetDrawIndex(strRQ, FALSE, bOEBT, nDTI_Start, nDTI_End);

  00165	8d 45 e8	 lea	 eax, DWORD PTR _nDTI_End$[ebp]
  00168	50		 push	 eax
  00169	8d 45 e4	 lea	 eax, DWORD PTR _nDTI_Start$[ebp]
  0016c	50		 push	 eax
  0016d	56		 push	 esi
  0016e	6a 00		 push	 0
  00170	51		 push	 ecx
  00171	8d 45 ec	 lea	 eax, DWORD PTR _strRQ$[ebp]
  00174	8b cc		 mov	 ecx, esp
  00176	50		 push	 eax
  00177	ff 15 00 00 00
	00		 call	 DWORD PTR __imp_??0?$CStringT@DV?$StrTraitMFC_DLL@DV?$ChTraitsCRT@D@ATL@@@@@ATL@@QAE@ABV01@@Z
  0017d	8b 4d d0	 mov	 ecx, DWORD PTR _pxScaleManager$1$[ebp]
  00180	8b 01		 mov	 eax, DWORD PTR [ecx]
  00182	ff 90 a4 00 00
	00		 call	 DWORD PTR [eax+164]

; 406  : 	}

  00188	8b 45 e8	 mov	 eax, DWORD PTR _nDTI_End$[ebp]
  0018b	eb 3e		 jmp	 SHORT $LN5@GetDisplay
$LN4@GetDisplay:

; 407  : 	else
; 408  : 	{
; 409  : 		nDTI_Start = pxScaleManager->GetDTIFromDRI_AbleRange(strRQ, nDRI_Start, NULL);

  0018d	6a 00		 push	 0
  0018f	ff 75 dc	 push	 DWORD PTR _nDRI_Start$1$[ebp]
  00192	8d 45 ec	 lea	 eax, DWORD PTR _strRQ$[ebp]
  00195	51		 push	 ecx
  00196	8b cc		 mov	 ecx, esp
  00198	50		 push	 eax
  00199	ff 15 00 00 00
	00		 call	 DWORD PTR __imp_??0?$CStringT@DV?$StrTraitMFC_DLL@DV?$ChTraitsCRT@D@ATL@@@@@ATL@@QAE@ABV01@@Z
  0019f	8b 06		 mov	 eax, DWORD PTR [esi]
  001a1	8b ce		 mov	 ecx, esi
  001a3	ff 90 a8 00 00
	00		 call	 DWORD PTR [eax+168]

; 410  : 		nDTI_End = pxScaleManager->GetDTIFromDRI_AbleRange(strRQ, nDRI_End, NULL);

  001a9	6a 00		 push	 0
  001ab	ff 75 e0	 push	 DWORD PTR _nDRI_End$1$[ebp]
  001ae	89 45 e4	 mov	 DWORD PTR _nDTI_Start$[ebp], eax
  001b1	8d 45 ec	 lea	 eax, DWORD PTR _strRQ$[ebp]
  001b4	51		 push	 ecx
  001b5	8b cc		 mov	 ecx, esp
  001b7	50		 push	 eax
  001b8	ff 15 00 00 00
	00		 call	 DWORD PTR __imp_??0?$CStringT@DV?$StrTraitMFC_DLL@DV?$ChTraitsCRT@D@ATL@@@@@ATL@@QAE@ABV01@@Z
  001be	8b 06		 mov	 eax, DWORD PTR [esi]
  001c0	8b ce		 mov	 ecx, esi
  001c2	ff 90 a8 00 00
	00		 call	 DWORD PTR [eax+168]
  001c8	89 45 e8	 mov	 DWORD PTR _nDTI_End$[ebp], eax
$LN5@GetDisplay:

; 411  : 	}
; 412  : 
; 413  : 	//         .
; 414  : 	pInputData->SetDataStartEndInBlock(nDTI_Start, nDTI_End);

  001cb	50		 push	 eax
  001cc	ff 75 e4	 push	 DWORD PTR _nDTI_Start$[ebp]
  001cf	8b cb		 mov	 ecx, ebx
  001d1	e8 00 00 00 00	 call	 ?SetDataStartEndInBlock@CVertDisplayDataMinMaxInputData@@QAEXHH@Z ; CVertDisplayDataMinMaxInputData::SetDataStartEndInBlock

; 415  : 
; 416  : 	//    Scale   - ojtaso (20071101)
; 417  : 	bool bResult = CViewMinMaxCalculator().GetViewVertMinMax(*pInputData, displayDataMinMax, p_bWithFullRange, m_pMainBlockBaseData->GetMainAttributes().GetMainBlockImpl()->GetDrawBaseLine());

  001d6	8b 4f 04	 mov	 ecx, DWORD PTR [edi+4]
  001d9	e8 00 00 00 00	 call	 ?GetMainAttributes@CMainBlockBaseData@@QAEAAVCMainAttributes@@XZ ; CMainBlockBaseData::GetMainAttributes
  001de	8b c8		 mov	 ecx, eax
  001e0	e8 00 00 00 00	 call	 ?GetMainBlockImpl@CMainAttributes@@QBEPAVCMainBlockImp@@XZ ; CMainAttributes::GetMainBlockImpl
  001e5	8b c8		 mov	 ecx, eax
  001e7	8b 10		 mov	 edx, DWORD PTR [eax]
  001e9	8b 82 00 01 00
	00		 mov	 eax, DWORD PTR [edx+256]
  001ef	ff d0		 call	 eax
  001f1	8b 75 0c	 mov	 esi, DWORD PTR _displayDataMinMax$[ebp]
  001f4	8d 4d f3	 lea	 ecx, DWORD PTR $T6[ebp]
  001f7	0f b6 c0	 movzx	 eax, al
  001fa	50		 push	 eax
  001fb	ff 75 10	 push	 DWORD PTR _p_bWithFullRange$[ebp]
  001fe	56		 push	 esi
  001ff	53		 push	 ebx
  00200	e8 00 00 00 00	 call	 ?GetViewVertMinMax@CViewMinMaxCalculator@@QAE_NABVCVertDisplayDataMinMaxInputData@@AAVCDisplayDataMinMax@@HH@Z ; CViewMinMaxCalculator::GetViewVertMinMax

; 418  : 
; 419  : 	// (2009/1/17 - Seung-Won, Bae) Support Min/Max cache. Do not make Min/Max every time of updating data.
; 420  : 	//		It is initialized in CSubGraph::GetDisplayDataMinMax() for CMainBlockImp::CalculateDataForDrawing().
; 421  : 	m_displayDataMinMax = displayDataMinMax;

  00205	56		 push	 esi
  00206	8d 8f b0 00 00
	00		 lea	 ecx, DWORD PTR [edi+176]
  0020c	8a d8		 mov	 bl, al
  0020e	ff 15 00 00 00
	00		 call	 DWORD PTR __imp_??4CDisplayDataMinMax@@QAEAAV0@ABV0@@Z

; 422  : 
; 423  : 	pInputData->SetDataStartEndInBlock(nDRI_Start, nDRI_End);

  00214	ff 75 e0	 push	 DWORD PTR _nDRI_End$1$[ebp]
  00217	8b 4d 08	 mov	 ecx, DWORD PTR _pInputData$[ebp]
  0021a	ff 75 dc	 push	 DWORD PTR _nDRI_Start$1$[ebp]
  0021d	e8 00 00 00 00	 call	 ?SetDataStartEndInBlock@CVertDisplayDataMinMaxInputData@@QAEXHH@Z ; CVertDisplayDataMinMaxInputData::SetDataStartEndInBlock

; 424  : 
; 425  : 	return bResult;

  00222	8d 4d ec	 lea	 ecx, DWORD PTR _strRQ$[ebp]
  00225	ff 15 00 00 00
	00		 call	 DWORD PTR __imp_??1?$CStringT@DV?$StrTraitMFC_DLL@DV?$ChTraitsCRT@D@ATL@@@@@ATL@@QAE@XZ
  0022b	8a c3		 mov	 al, bl

; 426  : }

  0022d	8b 4d f4	 mov	 ecx, DWORD PTR __$EHRec$[ebp]
  00230	64 89 0d 00 00
	00 00		 mov	 DWORD PTR fs:0, ecx
  00237	59		 pop	 ecx
  00238	5f		 pop	 edi
  00239	5e		 pop	 esi
  0023a	5b		 pop	 ebx
  0023b	8b e5		 mov	 esp, ebp
  0023d	5d		 pop	 ebp
  0023e	c2 0c 00	 ret	 12			; 0000000cH
$LN31@GetDisplay:

; 390  : 	// (2009/9/20 - Seung-Won, Bae) on deletion of graph, It can be NULL.
; 391  : 	if( !pPacketRQ) return false;

  00241	32 c0		 xor	 al, al

; 426  : }

  00243	8b 4d f4	 mov	 ecx, DWORD PTR __$EHRec$[ebp]
  00246	64 89 0d 00 00
	00 00		 mov	 DWORD PTR fs:0, ecx
  0024d	59		 pop	 ecx
  0024e	5f		 pop	 edi
  0024f	5e		 pop	 esi
  00250	5b		 pop	 ebx
  00251	8b e5		 mov	 esp, ebp
  00253	5d		 pop	 ebp
  00254	c2 0c 00	 ret	 12			; 0000000cH
_TEXT	ENDS
;	COMDAT text$x
text$x	SEGMENT
__unwindfunclet$?GetDisplayDataMinMax@CSubGraph@@QAE_NPAVCVertDisplayDataMinMaxInputData@@AAVCDisplayDataMinMax@@H@Z$0:
  00000	8d 4d ec	 lea	 ecx, DWORD PTR _strRQ$[ebp]
  00003	ff 25 00 00 00
	00		 jmp	 DWORD PTR __imp_??1?$CStringT@DV?$StrTraitMFC_DLL@DV?$ChTraitsCRT@D@ATL@@@@@ATL@@QAE@XZ
__unwindfunclet$?GetDisplayDataMinMax@CSubGraph@@QAE_NPAVCVertDisplayDataMinMaxInputData@@AAVCDisplayDataMinMax@@H@Z$1:
  00009	8d 4d d8	 lea	 ecx, DWORD PTR $T5[ebp]
  0000c	ff 25 00 00 00
	00		 jmp	 DWORD PTR __imp_??1?$CStringT@DV?$StrTraitMFC_DLL@DV?$ChTraitsCRT@D@ATL@@@@@ATL@@QAE@XZ
  00012	cc		 int	 3
  00013	cc		 int	 3
  00014	cc		 int	 3
  00015	cc		 int	 3
  00016	cc		 int	 3
__ehhandler$?GetDisplayDataMinMax@CSubGraph@@QAE_NPAVCVertDisplayDataMinMaxInputData@@AAVCDisplayDataMinMax@@H@Z:
  00017	90		 npad	 1
  00018	90		 npad	 1
  00019	8b 54 24 08	 mov	 edx, DWORD PTR [esp+8]
  0001d	8d 42 0c	 lea	 eax, DWORD PTR [edx+12]
  00020	8b 4a cc	 mov	 ecx, DWORD PTR [edx-52]
  00023	33 c8		 xor	 ecx, eax
  00025	e8 00 00 00 00	 call	 @__security_check_cookie@4
  0002a	b8 00 00 00 00	 mov	 eax, OFFSET __ehfuncinfo$?GetDisplayDataMinMax@CSubGraph@@QAE_NPAVCVertDisplayDataMinMaxInputData@@AAVCDisplayDataMinMax@@H@Z
  0002f	e9 00 00 00 00	 jmp	 ___CxxFrameHandler3
text$x	ENDS
?GetDisplayDataMinMax@CSubGraph@@QAE_NPAVCVertDisplayDataMinMaxInputData@@AAVCDisplayDataMinMax@@H@Z ENDP ; CSubGraph::GetDisplayDataMinMax
; Function compile flags: /Ogtp
; File D:\git\src\IBK\IBK_DRFN\ProjSrc\SrcChartEx\ChartOCX\ChartObject\SubGraph.cpp
; File D:\git\src\IBK\IBK_DRFN\ProjSrc\SrcChartEx\ChartOCX\ChartObject\DrawingRegionCalculator.h
; File D:\git\src\IBK\IBK_DRFN\ProjSrc\SrcChartEx\ChartOCX\ChartObject\SubGraph.cpp
; File D:\git\src\IBK\IBK_DRFN\ProjSrc\SrcChartEx\ChartOCX\ChartObject\DrawingRegionCalculator.h
; File D:\git\src\IBK\IBK_DRFN\ProjSrc\SrcChartEx\ChartOCX\ChartObject\SubGraph.cpp
; File C:\Program Files (x86)\Microsoft Visual Studio\2019\Community\VC\Tools\MSVC\14.29.30133\atlmfc\include\cstringt.h
; File D:\git\src\IBK\IBK_DRFN\ProjSrc\SrcChartEx\ChartOCX\ChartObject\SubGraph.cpp
; File C:\Program Files (x86)\Microsoft Visual Studio\2019\Community\VC\Tools\MSVC\14.29.30133\atlmfc\include\cstringt.h
; File D:\git\src\IBK\IBK_DRFN\ProjSrc\SrcChartEx\ChartOCX\ChartObject\SubGraph.cpp
; File C:\Program Files (x86)\Microsoft Visual Studio\2019\Community\VC\Tools\MSVC\14.29.30133\atlmfc\include\cstringt.h
; File D:\git\src\IBK\IBK_DRFN\ProjSrc\SrcChartEx\ChartOCX\ChartObject\SubGraph.cpp
;	COMDAT ?GetVertScaleRegionWidth@CSubGraph@@QAEHPAVCDC@@PAVCVertScaleMaxWidthCalculatorData@@@Z
_TEXT	SEGMENT
$T2 = -28						; size = 8
$T3 = -20						; size = 8
$T4 = -16						; size = 4
__$EHRec$ = -12						; size = 12
_pDC$ = 8						; size = 4
$T5 = 12						; size = 4
_pCalData$ = 12						; size = 4
?GetVertScaleRegionWidth@CSubGraph@@QAEHPAVCDC@@PAVCVertScaleMaxWidthCalculatorData@@@Z PROC ; CSubGraph::GetVertScaleRegionWidth, COMDAT
; _this$ = ecx

; 346  : {

  00000	55		 push	 ebp
  00001	8b ec		 mov	 ebp, esp
  00003	6a ff		 push	 -1
  00005	68 00 00 00 00	 push	 __ehhandler$?GetVertScaleRegionWidth@CSubGraph@@QAEHPAVCDC@@PAVCVertScaleMaxWidthCalculatorData@@@Z
  0000a	64 a1 00 00 00
	00		 mov	 eax, DWORD PTR fs:0
  00010	50		 push	 eax
  00011	83 ec 10	 sub	 esp, 16			; 00000010H
  00014	53		 push	 ebx
  00015	56		 push	 esi
  00016	57		 push	 edi
  00017	a1 00 00 00 00	 mov	 eax, DWORD PTR ___security_cookie
  0001c	33 c5		 xor	 eax, ebp
  0001e	50		 push	 eax
  0001f	8d 45 f4	 lea	 eax, DWORD PTR __$EHRec$[ebp]
  00022	64 a3 00 00 00
	00		 mov	 DWORD PTR fs:0, eax
  00028	8b d9		 mov	 ebx, ecx

; 347  : 	if(m_subGraphData.GetHiding())

  0002a	8d 4b 0c	 lea	 ecx, DWORD PTR [ebx+12]
  0002d	ff 15 00 00 00
	00		 call	 DWORD PTR __imp_?GetHiding@CSubGraphData@@ABE_NXZ
  00033	84 c0		 test	 al, al
  00035	74 16		 je	 SHORT $LN2@GetVertSca

; 348  : 		return 0;

  00037	33 c0		 xor	 eax, eax

; 373  : }

  00039	8b 4d f4	 mov	 ecx, DWORD PTR __$EHRec$[ebp]
  0003c	64 89 0d 00 00
	00 00		 mov	 DWORD PTR fs:0, ecx
  00043	59		 pop	 ecx
  00044	5f		 pop	 edi
  00045	5e		 pop	 esi
  00046	5b		 pop	 ebx
  00047	8b e5		 mov	 esp, ebp
  00049	5d		 pop	 ebp
  0004a	c2 08 00	 ret	 8
$LN2@GetVertSca:

; 349  : 
; 350  : 	pCalData->SetSubGraphName(m_subGraphData.GetName());

  0004d	8d 45 f0	 lea	 eax, DWORD PTR $T4[ebp]
  00050	50		 push	 eax
  00051	8d 4b 0c	 lea	 ecx, DWORD PTR [ebx+12]
  00054	ff 15 00 00 00
	00		 call	 DWORD PTR __imp_?GetName@CSubGraphDataBase@@QBE?AV?$CStringT@DV?$StrTraitMFC_DLL@DV?$ChTraitsCRT@D@ATL@@@@@ATL@@XZ
  0005a	8b 7d 0c	 mov	 edi, DWORD PTR _pCalData$[ebp]
  0005d	8b cf		 mov	 ecx, edi
  0005f	50		 push	 eax
  00060	c7 45 fc 00 00
	00 00		 mov	 DWORD PTR __$EHRec$[ebp+8], 0
  00067	e8 00 00 00 00	 call	 ?SetSubGraphName@CVertScaleMaxWidthCalculatorData@@QAEXABV?$CStringT@DV?$StrTraitMFC_DLL@DV?$ChTraitsCRT@D@ATL@@@@@ATL@@@Z ; CVertScaleMaxWidthCalculatorData::SetSubGraphName
  0006c	8d 4d f0	 lea	 ecx, DWORD PTR $T4[ebp]
  0006f	c7 45 fc ff ff
	ff ff		 mov	 DWORD PTR __$EHRec$[ebp+8], -1
  00076	ff 15 00 00 00
	00		 call	 DWORD PTR __imp_??1?$CStringT@DV?$StrTraitMFC_DLL@DV?$ChTraitsCRT@D@ATL@@@@@ATL@@QAE@XZ

; 351  : 	pCalData->SetSubGraphPacketList(const_cast<CSubGraphPacketList*>(&m_subGraphPacketList));

  0007c	8d 83 94 00 00
	00		 lea	 eax, DWORD PTR [ebx+148]
  00082	8b cf		 mov	 ecx, edi
  00084	50		 push	 eax
  00085	e8 00 00 00 00	 call	 ?SetSubGraphPacketList@CVertScaleMaxWidthCalculatorData@@QAEXPAVCSubGraphPacketList@@@Z ; CVertScaleMaxWidthCalculatorData::SetSubGraphPacketList

; 352  : 
; 353  : 	// (2009/1/17 - Seung-Won, Bae) Support Min/Max cache. Do not make Min/Max every time of updating data.
; 354  : 	//		It is initialized in CSubGraph::GetDisplayDataMinMax() for CMainBlockImp::CalculateDataForDrawing().
; 355  : 	pCalData->SetSubGraphDisplayMinMax( m_displayDataMinMax);

  0008a	8d 83 b0 00 00
	00		 lea	 eax, DWORD PTR [ebx+176]
  00090	8b cf		 mov	 ecx, edi
  00092	50		 push	 eax
  00093	e8 00 00 00 00	 call	 ?SetSubGraphDisplayMinMax@CVertScaleMaxWidthCalculatorData@@QAEXABVCDisplayDataMinMax@@@Z ; CVertScaleMaxWidthCalculatorData::SetSubGraphDisplayMinMax

; 357  : 	int nWidth = CTextSizeCalculator( m_pMainBlockBaseData->GetParent_Handle(), m_pMainBlockBaseData->GetMainAttributes().GetChartMode()).GetMaxVertScaleTextSize(pDC, *pCalData).cx;

  00098	8b 4b 04	 mov	 ecx, DWORD PTR [ebx+4]
  0009b	e8 00 00 00 00	 call	 ?GetMainAttributes@CMainBlockBaseData@@QAEAAVCMainAttributes@@XZ ; CMainBlockBaseData::GetMainAttributes
  000a0	8b c8		 mov	 ecx, eax
  000a2	e8 00 00 00 00	 call	 ?GetChartMode@CMainAttributes@@QBE?AW4CHART_MODE@CChartInfo@@XZ ; CMainAttributes::GetChartMode
  000a7	8b 4b 04	 mov	 ecx, DWORD PTR [ebx+4]
  000aa	8b f0		 mov	 esi, eax
  000ac	e8 00 00 00 00	 call	 ?GetParent_Handle@CMainBlockBaseData@@QBEPAUHWND__@@XZ ; CMainBlockBaseData::GetParent_Handle
  000b1	57		 push	 edi
  000b2	ff 75 08	 push	 DWORD PTR _pDC$[ebp]
; File D:\git\src\IBK\IBK_DRFN\ProjSrc\SrcChartEx\ChartOCX\ChartObject\DrawingRegionCalculator.h

; 94   : 		{	m_hOcxWnd = p_hOcxWnd;	m_eChartMode = p_eChartMode;	}

  000b5	89 45 ec	 mov	 DWORD PTR $T3[ebp], eax
; File D:\git\src\IBK\IBK_DRFN\ProjSrc\SrcChartEx\ChartOCX\ChartObject\SubGraph.cpp

; 357  : 	int nWidth = CTextSizeCalculator( m_pMainBlockBaseData->GetParent_Handle(), m_pMainBlockBaseData->GetMainAttributes().GetChartMode()).GetMaxVertScaleTextSize(pDC, *pCalData).cx;

  000b8	8d 4d ec	 lea	 ecx, DWORD PTR $T3[ebp]
  000bb	8d 45 e4	 lea	 eax, DWORD PTR $T2[ebp]
; File D:\git\src\IBK\IBK_DRFN\ProjSrc\SrcChartEx\ChartOCX\ChartObject\DrawingRegionCalculator.h

; 94   : 		{	m_hOcxWnd = p_hOcxWnd;	m_eChartMode = p_eChartMode;	}

  000be	89 75 f0	 mov	 DWORD PTR $T3[ebp+4], esi
; File D:\git\src\IBK\IBK_DRFN\ProjSrc\SrcChartEx\ChartOCX\ChartObject\SubGraph.cpp

; 357  : 	int nWidth = CTextSizeCalculator( m_pMainBlockBaseData->GetParent_Handle(), m_pMainBlockBaseData->GetMainAttributes().GetChartMode()).GetMaxVertScaleTextSize(pDC, *pCalData).cx;

  000c1	50		 push	 eax
  000c2	e8 00 00 00 00	 call	 ?GetMaxVertScaleTextSize@CTextSizeCalculator@@QBE?AVCSize@@PAVCDC@@ABVCVertScaleMaxWidthCalculatorData@@@Z ; CTextSizeCalculator::GetMaxVertScaleTextSize
  000c7	8b 38		 mov	 edi, DWORD PTR [eax]

; 358  : 	if(nWidth > 0)

  000c9	85 ff		 test	 edi, edi
  000cb	7e 78		 jle	 SHORT $LN3@GetVertSca

; 360  : 		if(m_subGraphData.GetName() == _MTEXT( C3_PRICE))

  000cd	8d 45 0c	 lea	 eax, DWORD PTR $T5[ebp]
  000d0	50		 push	 eax
  000d1	8d 4b 0c	 lea	 ecx, DWORD PTR [ebx+12]
  000d4	ff 15 00 00 00
	00		 call	 DWORD PTR __imp_?GetName@CSubGraphDataBase@@QBE?AV?$CStringT@DV?$StrTraitMFC_DLL@DV?$ChTraitsCRT@D@ATL@@@@@ATL@@XZ
; File C:\Program Files (x86)\Microsoft Visual Studio\2019\Community\VC\Tools\MSVC\14.29.30133\atlmfc\include\cstringt.h

; 2486 : 		return(str1.Compare(psz2) == 0);

  000da	8b 0d 54 00 00
	00		 mov	 ecx, DWORD PTR ?g_iMetaTable@@3VIMetaTable@@A+84
; File D:\git\src\IBK\IBK_DRFN\ProjSrc\SrcChartEx\ChartOCX\ChartObject\SubGraph.cpp

; 360  : 		if(m_subGraphData.GetName() == _MTEXT( C3_PRICE))

  000e0	c7 45 fc 01 00
	00 00		 mov	 DWORD PTR __$EHRec$[ebp+8], 1
; File C:\Program Files (x86)\Microsoft Visual Studio\2019\Community\VC\Tools\MSVC\14.29.30133\atlmfc\include\cstringt.h

; 2486 : 		return(str1.Compare(psz2) == 0);

  000e7	ff b1 b4 04 00
	00		 push	 DWORD PTR [ecx+1204]
  000ed	8b c8		 mov	 ecx, eax
  000ef	ff 15 00 00 00
	00		 call	 DWORD PTR __imp_?Compare@?$CStringT@DV?$StrTraitMFC_DLL@DV?$ChTraitsCRT@D@ATL@@@@@ATL@@QBEHPBD@Z
; File D:\git\src\IBK\IBK_DRFN\ProjSrc\SrcChartEx\ChartOCX\ChartObject\SubGraph.cpp

; 360  : 		if(m_subGraphData.GetName() == _MTEXT( C3_PRICE))

  000f5	8d 4d 0c	 lea	 ecx, DWORD PTR $T5[ebp]
; File C:\Program Files (x86)\Microsoft Visual Studio\2019\Community\VC\Tools\MSVC\14.29.30133\atlmfc\include\cstringt.h

; 2486 : 		return(str1.Compare(psz2) == 0);

  000f8	8b f0		 mov	 esi, eax
; File D:\git\src\IBK\IBK_DRFN\ProjSrc\SrcChartEx\ChartOCX\ChartObject\SubGraph.cpp

; 360  : 		if(m_subGraphData.GetName() == _MTEXT( C3_PRICE))

  000fa	ff 15 00 00 00
	00		 call	 DWORD PTR __imp_??1?$CStringT@DV?$StrTraitMFC_DLL@DV?$ChTraitsCRT@D@ATL@@@@@ATL@@QAE@XZ
  00100	85 f6		 test	 esi, esi
  00102	75 2a		 jne	 SHORT $LN7@GetVertSca

; 361  : 		{
; 362  : 			if(m_nVerticalScaleMaxWidth < nWidth)

  00104	8b 83 c0 00 00
	00		 mov	 eax, DWORD PTR [ebx+192]
  0010a	3b c7		 cmp	 eax, edi
  0010c	7d 1d		 jge	 SHORT $LN5@GetVertSca

; 363  : 				m_nVerticalScaleMaxWidth = nWidth;

  0010e	89 bb c0 00 00
	00		 mov	 DWORD PTR [ebx+192], edi

; 365  : 				nWidth = m_nVerticalScaleMaxWidth;
; 366  : 		}
; 367  : 
; 368  : 		return (nWidth + MARGIN * 3);

  00114	8d 47 0c	 lea	 eax, DWORD PTR [edi+12]

; 373  : }

  00117	8b 4d f4	 mov	 ecx, DWORD PTR __$EHRec$[ebp]
  0011a	64 89 0d 00 00
	00 00		 mov	 DWORD PTR fs:0, ecx
  00121	59		 pop	 ecx
  00122	5f		 pop	 edi
  00123	5e		 pop	 esi
  00124	5b		 pop	 ebx
  00125	8b e5		 mov	 esp, ebp
  00127	5d		 pop	 ebp
  00128	c2 08 00	 ret	 8
$LN5@GetVertSca:

; 364  : 			else if(m_nVerticalScaleMaxWidth > nWidth)

  0012b	0f 4f f8	 cmovg	 edi, eax
$LN7@GetVertSca:

; 365  : 				nWidth = m_nVerticalScaleMaxWidth;
; 366  : 		}
; 367  : 
; 368  : 		return (nWidth + MARGIN * 3);

  0012e	8d 47 0c	 lea	 eax, DWORD PTR [edi+12]

; 373  : }

  00131	8b 4d f4	 mov	 ecx, DWORD PTR __$EHRec$[ebp]
  00134	64 89 0d 00 00
	00 00		 mov	 DWORD PTR fs:0, ecx
  0013b	59		 pop	 ecx
  0013c	5f		 pop	 edi
  0013d	5e		 pop	 esi
  0013e	5b		 pop	 ebx
  0013f	8b e5		 mov	 esp, ebp
  00141	5d		 pop	 ebp
  00142	c2 08 00	 ret	 8
$LN3@GetVertSca:

; 369  : 	}
; 370  : 
; 371  : 	// scale      .
; 372  : 	return m_pMainBlockBaseData->GetScaleAttributes().GetMinVertScaleRegionWidth();

  00145	8b 4b 04	 mov	 ecx, DWORD PTR [ebx+4]
  00148	e8 00 00 00 00	 call	 ?GetScaleAttributes@CMainBlockBaseData@@QAEAAVCScaleAttributes@@XZ ; CMainBlockBaseData::GetScaleAttributes
  0014d	8b c8		 mov	 ecx, eax
  0014f	e8 00 00 00 00	 call	 ?GetMinVertScaleRegionWidth@CScaleAttributes@@QBEHXZ ; CScaleAttributes::GetMinVertScaleRegionWidth

; 373  : }

  00154	8b 4d f4	 mov	 ecx, DWORD PTR __$EHRec$[ebp]
  00157	64 89 0d 00 00
	00 00		 mov	 DWORD PTR fs:0, ecx
  0015e	59		 pop	 ecx
  0015f	5f		 pop	 edi
  00160	5e		 pop	 esi
  00161	5b		 pop	 ebx
  00162	8b e5		 mov	 esp, ebp
  00164	5d		 pop	 ebp
  00165	c2 08 00	 ret	 8
_TEXT	ENDS
;	COMDAT text$x
text$x	SEGMENT
__unwindfunclet$?GetVertScaleRegionWidth@CSubGraph@@QAEHPAVCDC@@PAVCVertScaleMaxWidthCalculatorData@@@Z$0:
  00000	8d 4d f0	 lea	 ecx, DWORD PTR $T4[ebp]
  00003	ff 25 00 00 00
	00		 jmp	 DWORD PTR __imp_??1?$CStringT@DV?$StrTraitMFC_DLL@DV?$ChTraitsCRT@D@ATL@@@@@ATL@@QAE@XZ
__unwindfunclet$?GetVertScaleRegionWidth@CSubGraph@@QAEHPAVCDC@@PAVCVertScaleMaxWidthCalculatorData@@@Z$1:
  00009	8d 4d 0c	 lea	 ecx, DWORD PTR $T5[ebp]
  0000c	ff 25 00 00 00
	00		 jmp	 DWORD PTR __imp_??1?$CStringT@DV?$StrTraitMFC_DLL@DV?$ChTraitsCRT@D@ATL@@@@@ATL@@QAE@XZ
  00012	cc		 int	 3
  00013	cc		 int	 3
  00014	cc		 int	 3
  00015	cc		 int	 3
  00016	cc		 int	 3
__ehhandler$?GetVertScaleRegionWidth@CSubGraph@@QAEHPAVCDC@@PAVCVertScaleMaxWidthCalculatorData@@@Z:
  00017	90		 npad	 1
  00018	90		 npad	 1
  00019	8b 54 24 08	 mov	 edx, DWORD PTR [esp+8]
  0001d	8d 42 0c	 lea	 eax, DWORD PTR [edx+12]
  00020	8b 4a e0	 mov	 ecx, DWORD PTR [edx-32]
  00023	33 c8		 xor	 ecx, eax
  00025	e8 00 00 00 00	 call	 @__security_check_cookie@4
  0002a	b8 00 00 00 00	 mov	 eax, OFFSET __ehfuncinfo$?GetVertScaleRegionWidth@CSubGraph@@QAEHPAVCDC@@PAVCVertScaleMaxWidthCalculatorData@@@Z
  0002f	e9 00 00 00 00	 jmp	 ___CxxFrameHandler3
text$x	ENDS
?GetVertScaleRegionWidth@CSubGraph@@QAEHPAVCDC@@PAVCVertScaleMaxWidthCalculatorData@@@Z ENDP ; CSubGraph::GetVertScaleRegionWidth
; Function compile flags: /Ogtp
; File D:\git\src\IBK\IBK_DRFN\ProjSrc\SrcChartEx\ChartOCX\ChartObject\SubGraph.cpp
;	COMDAT ?IsExistenceSamePacketInGraph@CSubGraph@@QBE_NPAVCGraphImp@@@Z
_TEXT	SEGMENT
_pos$ = 8						; size = 4
_pTargetGraph$ = 8					; size = 4
?IsExistenceSamePacketInGraph@CSubGraph@@QBE_NPAVCGraphImp@@@Z PROC ; CSubGraph::IsExistenceSamePacketInGraph, COMDAT
; _this$ = ecx

; 327  : {

  00000	55		 push	 ebp
  00001	8b ec		 mov	 ebp, esp
  00003	56		 push	 esi

; 328  : 	if(pTargetGraph == NULL)

  00004	8b 75 08	 mov	 esi, DWORD PTR _pTargetGraph$[ebp]
  00007	57		 push	 edi
  00008	85 f6		 test	 esi, esi
  0000a	74 38		 je	 SHORT $LN3@IsExistenc

; 329  : 		return false;
; 330  : 
; 331  : 	POSITION pos = m_subGraphPacketList.GetHeadPosition();

  0000c	8d b9 94 00 00
	00		 lea	 edi, DWORD PTR [ecx+148]
  00012	8b cf		 mov	 ecx, edi
  00014	e8 00 00 00 00	 call	 ?GetHeadPosition@CSubGraphPacketList@@QBEPAU__POSITION@@XZ ; CSubGraphPacketList::GetHeadPosition
  00019	89 45 08	 mov	 DWORD PTR _pos$[ebp], eax

; 332  : 	while(pos != NULL)

  0001c	85 c0		 test	 eax, eax
  0001e	74 24		 je	 SHORT $LN3@IsExistenc
$LL2@IsExistenc:

; 333  : 	{
; 334  : 		CPacket* pPacket = m_subGraphPacketList.GetNext(pos);

  00020	8d 45 08	 lea	 eax, DWORD PTR _pos$[ebp]
  00023	8b cf		 mov	 ecx, edi
  00025	50		 push	 eax
  00026	e8 00 00 00 00	 call	 ?GetNext@CSubGraphPacketList@@QBEPAVCPacket@@AAPAU__POSITION@@@Z ; CSubGraphPacketList::GetNext

; 335  : 		assert(pPacket != NULL);
; 336  : 		if(pTargetGraph->GetSubGraphList().IsExistenceSamePacket(pPacket))

  0002b	50		 push	 eax
  0002c	8b ce		 mov	 ecx, esi
  0002e	e8 00 00 00 00	 call	 ?GetSubGraphList@CGraphImp@@QAEAAVCSubGraphList@@XZ ; CGraphImp::GetSubGraphList
  00033	8b c8		 mov	 ecx, eax
  00035	e8 00 00 00 00	 call	 ?IsExistenceSamePacket@CSubGraphList@@QBE_NPAVCPacket@@@Z ; CSubGraphList::IsExistenceSamePacket
  0003a	84 c0		 test	 al, al
  0003c	75 0e		 jne	 SHORT $LN8@IsExistenc

; 332  : 	while(pos != NULL)

  0003e	83 7d 08 00	 cmp	 DWORD PTR _pos$[ebp], 0
  00042	75 dc		 jne	 SHORT $LL2@IsExistenc
$LN3@IsExistenc:
  00044	5f		 pop	 edi

; 338  : 	}
; 339  : 
; 340  : 	return false;

  00045	32 c0		 xor	 al, al

; 341  : }

  00047	5e		 pop	 esi
  00048	5d		 pop	 ebp
  00049	c2 04 00	 ret	 4
$LN8@IsExistenc:
  0004c	5f		 pop	 edi

; 337  : 			return true;

  0004d	b0 01		 mov	 al, 1

; 341  : }

  0004f	5e		 pop	 esi
  00050	5d		 pop	 ebp
  00051	c2 04 00	 ret	 4
?IsExistenceSamePacketInGraph@CSubGraph@@QBE_NPAVCGraphImp@@@Z ENDP ; CSubGraph::IsExistenceSamePacketInGraph
_TEXT	ENDS
; Function compile flags: /Ogtp
; File D:\git\src\IBK\IBK_DRFN\ProjSrc\SrcChartEx\ChartOCX\ChartObject\SubGraph.cpp
; File C:\Program Files (x86)\Microsoft Visual Studio\2019\Community\VC\Tools\MSVC\14.29.30133\atlmfc\include\atltypes.h
; File D:\git\src\IBK\IBK_DRFN\ProjSrc\SrcChartEx\ChartOCX\ChartObject\SubGraph.cpp
;	COMDAT ?PointInSubGraph@CSubGraph@@QBEHABVCPoint@@@Z
_TEXT	SEGMENT
$T2 = -328						; size = 4
_pVertScaleGroupList$1$ = -324				; size = 4
$T3 = -317						; size = 1
$T4 = -316						; size = 132
_selectSubGraphData$ = -184				; size = 152
_drawRegion$5 = -32					; size = 16
__$ArrayPad$ = -16					; size = 4
__$EHRec$ = -12						; size = 12
_point$ = 8						; size = 4
?PointInSubGraph@CSubGraph@@QBEHABVCPoint@@@Z PROC	; CSubGraph::PointInSubGraph, COMDAT
; _this$ = ecx

; 313  : {

  00000	55		 push	 ebp
  00001	8b ec		 mov	 ebp, esp
  00003	6a ff		 push	 -1
  00005	68 00 00 00 00	 push	 __ehhandler$?PointInSubGraph@CSubGraph@@QBEHABVCPoint@@@Z
  0000a	64 a1 00 00 00
	00		 mov	 eax, DWORD PTR fs:0
  00010	50		 push	 eax
  00011	81 ec 3c 01 00
	00		 sub	 esp, 316		; 0000013cH
  00017	a1 00 00 00 00	 mov	 eax, DWORD PTR ___security_cookie
  0001c	33 c5		 xor	 eax, ebp
  0001e	89 45 f0	 mov	 DWORD PTR __$ArrayPad$[ebp], eax
  00021	53		 push	 ebx
  00022	56		 push	 esi
  00023	57		 push	 edi
  00024	50		 push	 eax
  00025	8d 45 f4	 lea	 eax, DWORD PTR __$EHRec$[ebp]
  00028	64 a3 00 00 00
	00		 mov	 DWORD PTR fs:0, eax
  0002e	8b f1		 mov	 esi, ecx
  00030	8b 7d 08	 mov	 edi, DWORD PTR _point$[ebp]

; 585  : 	if(m_subGraphData.GetHiding())

  00033	8d 4e 0c	 lea	 ecx, DWORD PTR [esi+12]
  00036	ff 15 00 00 00
	00		 call	 DWORD PTR __imp_?GetHiding@CSubGraphData@@ABE_NXZ
  0003c	84 c0		 test	 al, al
  0003e	0f 85 e5 00 00
	00		 jne	 $LN22@PointInSub

; 184  : 	if(m_pSubGraphList == NULL)

  00044	8b 4e 08	 mov	 ecx, DWORD PTR [esi+8]
  00047	85 c9		 test	 ecx, ecx
  00049	0f 84 da 00 00
	00		 je	 $LN22@PointInSub

; 185  : 		return NULL;
; 186  : 
; 187  : 	return m_pSubGraphList->GetGraph();

  0004f	e8 00 00 00 00	 call	 ?GetGraph@CSubGraphList@@QBEPAVCGraphImp@@XZ ; CSubGraphList::GetGraph

; 710  : 	if(pGraph == NULL)

  00054	85 c0		 test	 eax, eax
  00056	0f 84 cd 00 00
	00		 je	 $LN22@PointInSub

; 711  : 		return false;
; 712  : 
; 713  : 	return pGraph->GetVertScaleGroupList();

  0005c	8b c8		 mov	 ecx, eax
  0005e	e8 00 00 00 00	 call	 ?GetVertScaleGroupList@CGraphImp@@QBEPAVCVertScaleGroupList@@XZ ; CGraphImp::GetVertScaleGroupList
  00063	89 85 bc fe ff
	ff		 mov	 DWORD PTR _pVertScaleGroupList$1$[ebp], eax

; 589  : 	if(pVertScaleGroupList == NULL)

  00069	85 c0		 test	 eax, eax
  0006b	0f 84 b8 00 00
	00		 je	 $LN22@PointInSub

; 590  : 		return false;
; 591  : 
; 592  : 	CRect drawRegion = pVertScaleGroupList->GetDrawingRegion().GetGraphRegions().GetDrawingRegion(m_subGraphData.GetType(), m_subGraphData.GetStyle());

  00071	8d 85 b8 fe ff
	ff		 lea	 eax, DWORD PTR $T2[ebp]
  00077	50		 push	 eax
  00078	8d 4e 0c	 lea	 ecx, DWORD PTR [esi+12]
  0007b	ff 15 00 00 00
	00		 call	 DWORD PTR __imp_?GetStyle@CSubGraphDataBase@@QBE?AVCGraphStyle@@XZ
  00081	50		 push	 eax
  00082	8d 4e 0c	 lea	 ecx, DWORD PTR [esi+12]
  00085	ff 15 00 00 00
	00		 call	 DWORD PTR __imp_?GetType@CSubGraphDataBase@@QBE?AW4GRAPHTYPE@CGraphBaseData@@XZ
  0008b	8b 8d bc fe ff
	ff		 mov	 ecx, DWORD PTR _pVertScaleGroupList$1$[ebp]
  00091	50		 push	 eax
  00092	8d 45 e0	 lea	 eax, DWORD PTR _drawRegion$5[ebp]
  00095	50		 push	 eax
  00096	8d 85 c4 fe ff
	ff		 lea	 eax, DWORD PTR $T4[ebp]
  0009c	50		 push	 eax
  0009d	e8 00 00 00 00	 call	 ?GetDrawingRegion@CVertScaleGroupList@@QBE?AVCDrawingRegion@@XZ ; CVertScaleGroupList::GetDrawingRegion
  000a2	8b c8		 mov	 ecx, eax
  000a4	e8 00 00 00 00	 call	 ?GetGraphRegions@CDrawingRegion@@QAEAAVCGraphRegions@@XZ ; CDrawingRegion::GetGraphRegions
  000a9	8b c8		 mov	 ecx, eax
  000ab	e8 00 00 00 00	 call	 ?GetDrawingRegion@CGraphRegions@@QBE?AVCRect@@W4GRAPHTYPE@CGraphBaseData@@ABVCGraphStyle@@@Z ; CGraphRegions::GetDrawingRegion
; File C:\Program Files (x86)\Microsoft Visual Studio\2019\Community\VC\Tools\MSVC\14.29.30133\atlmfc\include\atltypes.h

; 648  : 	return ::PtInRect(this, point);

  000b0	ff 77 04	 push	 DWORD PTR [edi+4]
  000b3	8d 45 e0	 lea	 eax, DWORD PTR _drawRegion$5[ebp]
  000b6	ff 37		 push	 DWORD PTR [edi]
  000b8	50		 push	 eax
  000b9	ff 15 00 00 00
	00		 call	 DWORD PTR __imp__PtInRect@12
; File D:\git\src\IBK\IBK_DRFN\ProjSrc\SrcChartEx\ChartOCX\ChartObject\SubGraph.cpp

; 314  : 	if(!IsPointInSubGraph(point))

  000bf	85 c0		 test	 eax, eax
  000c1	74 66		 je	 SHORT $LN22@PointInSub

; 316  : 
; 317  : 	CSelectSubGraphData selectSubGraphData;

  000c3	8d 8d 48 ff ff
	ff		 lea	 ecx, DWORD PTR _selectSubGraphData$[ebp]
  000c9	e8 00 00 00 00	 call	 ??0CSelectSubGraphData@@QAE@XZ ; CSelectSubGraphData::CSelectSubGraphData

; 318  : 	if(!GetSelectSubGraphData(selectSubGraphData))

  000ce	8d 85 48 ff ff
	ff		 lea	 eax, DWORD PTR _selectSubGraphData$[ebp]
  000d4	c7 45 fc 00 00
	00 00		 mov	 DWORD PTR __$EHRec$[ebp+8], 0
  000db	50		 push	 eax
  000dc	8b ce		 mov	 ecx, esi
  000de	e8 00 00 00 00	 call	 ?GetSelectSubGraphData@CSubGraph@@ABE_NAAVCSelectSubGraphData@@@Z ; CSubGraph::GetSelectSubGraphData
  000e3	84 c0		 test	 al, al
  000e5	75 05		 jne	 SHORT $LN3@PointInSub
  000e7	83 ce ff	 or	 esi, -1
  000ea	eb 18		 jmp	 SHORT $LN6@PointInSub
$LN3@PointInSub:

; 319  : 		return -1;
; 320  : 
; 321  : 	return CGraphDrawer().PointInSubGraph(point, selectSubGraphData, NULL);

  000ec	6a 00		 push	 0
  000ee	8d 85 48 ff ff
	ff		 lea	 eax, DWORD PTR _selectSubGraphData$[ebp]
  000f4	50		 push	 eax
  000f5	57		 push	 edi
  000f6	8d 8d c3 fe ff
	ff		 lea	 ecx, DWORD PTR $T3[ebp]
  000fc	ff 15 00 00 00
	00		 call	 DWORD PTR __imp_?PointInSubGraph@CGraphDrawer@@QAEHABVCPoint@@ABVCSelectSubGraphData@@PAVCIndicatorList@@@Z
  00102	8b f0		 mov	 esi, eax
$LN6@PointInSub:
  00104	8d 4d dc	 lea	 ecx, DWORD PTR _selectSubGraphData$[ebp+148]
  00107	ff 15 00 00 00
	00		 call	 DWORD PTR __imp_??1?$CStringT@DV?$StrTraitMFC_DLL@DV?$ChTraitsCRT@D@ATL@@@@@ATL@@QAE@XZ
  0010d	8d 8d 50 ff ff
	ff		 lea	 ecx, DWORD PTR _selectSubGraphData$[ebp+8]
  00113	ff 15 00 00 00
	00		 call	 DWORD PTR __imp_??1?$CStringT@DV?$StrTraitMFC_DLL@DV?$ChTraitsCRT@D@ATL@@@@@ATL@@QAE@XZ
  00119	8d 8d 4c ff ff
	ff		 lea	 ecx, DWORD PTR _selectSubGraphData$[ebp+4]
  0011f	ff 15 00 00 00
	00		 call	 DWORD PTR __imp_??1?$CStringT@DV?$StrTraitMFC_DLL@DV?$ChTraitsCRT@D@ATL@@@@@ATL@@QAE@XZ
  00125	8b c6		 mov	 eax, esi
  00127	eb 03		 jmp	 SHORT $LN1@PointInSub
$LN22@PointInSub:

; 315  : 		return -1;

  00129	83 c8 ff	 or	 eax, -1
$LN1@PointInSub:

; 322  : }

  0012c	8b 4d f4	 mov	 ecx, DWORD PTR __$EHRec$[ebp]
  0012f	64 89 0d 00 00
	00 00		 mov	 DWORD PTR fs:0, ecx
  00136	59		 pop	 ecx
  00137	5f		 pop	 edi
  00138	5e		 pop	 esi
  00139	5b		 pop	 ebx
  0013a	8b 4d f0	 mov	 ecx, DWORD PTR __$ArrayPad$[ebp]
  0013d	33 cd		 xor	 ecx, ebp
  0013f	e8 00 00 00 00	 call	 @__security_check_cookie@4
  00144	8b e5		 mov	 esp, ebp
  00146	5d		 pop	 ebp
  00147	c2 04 00	 ret	 4
_TEXT	ENDS
;	COMDAT text$x
text$x	SEGMENT
__unwindfunclet$?PointInSubGraph@CSubGraph@@QBEHABVCPoint@@@Z$0:
  00000	8d 8d 48 ff ff
	ff		 lea	 ecx, DWORD PTR _selectSubGraphData$[ebp]
  00006	e9 00 00 00 00	 jmp	 ??1CSelectSubGraphData@@QAE@XZ
  0000b	cc		 int	 3
  0000c	cc		 int	 3
  0000d	cc		 int	 3
  0000e	cc		 int	 3
  0000f	cc		 int	 3
__ehhandler$?PointInSubGraph@CSubGraph@@QBEHABVCPoint@@@Z:
  00010	90		 npad	 1
  00011	90		 npad	 1
  00012	8b 54 24 08	 mov	 edx, DWORD PTR [esp+8]
  00016	8d 42 0c	 lea	 eax, DWORD PTR [edx+12]
  00019	8b 8a b4 fe ff
	ff		 mov	 ecx, DWORD PTR [edx-332]
  0001f	33 c8		 xor	 ecx, eax
  00021	e8 00 00 00 00	 call	 @__security_check_cookie@4
  00026	8b 4a fc	 mov	 ecx, DWORD PTR [edx-4]
  00029	33 c8		 xor	 ecx, eax
  0002b	e8 00 00 00 00	 call	 @__security_check_cookie@4
  00030	b8 00 00 00 00	 mov	 eax, OFFSET __ehfuncinfo$?PointInSubGraph@CSubGraph@@QBEHABVCPoint@@@Z
  00035	e9 00 00 00 00	 jmp	 ___CxxFrameHandler3
text$x	ENDS
?PointInSubGraph@CSubGraph@@QBEHABVCPoint@@@Z ENDP	; CSubGraph::PointInSubGraph
; Function compile flags: /Ogtp
; File D:\git\src\IBK\IBK_DRFN\ProjSrc\SrcChartEx\ChartOCX\ChartObject\SubGraph.cpp
; File C:\Program Files (x86)\Microsoft Visual Studio\2019\Community\VC\Tools\MSVC\14.29.30133\atlmfc\include\afxtempl.h
; File D:\git\src\IBK\IBK_DRFN\ProjSrc\SrcChartEx\ChartOCX\ChartObject\SubGraph.cpp
; File C:\Program Files (x86)\Microsoft Visual Studio\2019\Community\VC\Tools\MSVC\14.29.30133\atlmfc\include\afxtempl.h
; File D:\git\src\IBK\IBK_DRFN\ProjSrc\SrcChartEx\ChartOCX\ChartObject\SubGraph.cpp
;	COMDAT ?GetSubGraphPacketList@CSubGraph@@QBE_NAAV?$CList@PAVCPacket@@PAV1@@@@Z
_TEXT	SEGMENT
tv288 = -8						; size = 4
_pos$ = -4						; size = 4
_packetList$ = 8					; size = 4
?GetSubGraphPacketList@CSubGraph@@QBE_NAAV?$CList@PAVCPacket@@PAV1@@@@Z PROC ; CSubGraph::GetSubGraphPacketList, COMDAT
; _this$ = ecx

; 294  : {

  00000	55		 push	 ebp
  00001	8b ec		 mov	 ebp, esp
  00003	83 ec 08	 sub	 esp, 8
  00006	53		 push	 ebx
  00007	57		 push	 edi

; 295  : 	bool bResult = false;
; 296  : 	POSITION pos = m_subGraphPacketList.GetHeadPosition();

  00008	8d b9 94 00 00
	00		 lea	 edi, DWORD PTR [ecx+148]
  0000e	32 db		 xor	 bl, bl
  00010	8b cf		 mov	 ecx, edi
  00012	89 7d f8	 mov	 DWORD PTR tv288[ebp], edi
  00015	e8 00 00 00 00	 call	 ?GetHeadPosition@CSubGraphPacketList@@QBEPAU__POSITION@@XZ ; CSubGraphPacketList::GetHeadPosition
  0001a	89 45 fc	 mov	 DWORD PTR _pos$[ebp], eax

; 297  : 	while(pos != NULL)

  0001d	85 c0		 test	 eax, eax
  0001f	0f 84 98 00 00
	00		 je	 $LN32@GetSubGrap
  00025	56		 push	 esi
  00026	8b 75 08	 mov	 esi, DWORD PTR _packetList$[ebp]
  00029	0f 1f 80 00 00
	00 00		 npad	 7
$LL2@GetSubGrap:

; 298  : 	{
; 299  : 		CPacket* pPacket = m_subGraphPacketList.GetNext(pos);

  00030	8d 45 fc	 lea	 eax, DWORD PTR _pos$[ebp]
  00033	8b cf		 mov	 ecx, edi
  00035	50		 push	 eax
  00036	e8 00 00 00 00	 call	 ?GetNext@CSubGraphPacketList@@QBEPAVCPacket@@AAPAU__POSITION@@@Z ; CSubGraphPacketList::GetNext
  0003b	8b f8		 mov	 edi, eax

; 300  : 		if(pPacket == NULL)

  0003d	85 ff		 test	 edi, edi
  0003f	74 6d		 je	 SHORT $LN27@GetSubGrap
; File C:\Program Files (x86)\Microsoft Visual Studio\2019\Community\VC\Tools\MSVC\14.29.30133\atlmfc\include\afxtempl.h

; 902  : 	if (m_pNodeFree == NULL)

  00041	83 7e 10 00	 cmp	 DWORD PTR [esi+16], 0

; 968  : 	CNode* pNewNode = NewNode(m_pNodeTail, NULL);

  00045	8b 5e 08	 mov	 ebx, DWORD PTR [esi+8]

; 902  : 	if (m_pNodeFree == NULL)

  00048	75 36		 jne	 SHORT $LN16@GetSubGrap

; 903  : 	{
; 904  : 		// add another block
; 905  : 		CPlex* pNewBlock = CPlex::Create(m_pBlocks, m_nBlockSize,

  0004a	6a 0c		 push	 12			; 0000000cH
  0004c	ff 76 18	 push	 DWORD PTR [esi+24]
  0004f	8d 46 14	 lea	 eax, DWORD PTR [esi+20]
  00052	50		 push	 eax
  00053	e8 00 00 00 00	 call	 ?Create@CPlex@@SGPAU1@AAPAU1@II@Z ; CPlex::Create

; 906  : 				 sizeof(CNode));
; 907  : 
; 908  : 		// chain them into free list
; 909  : 		CNode* pNode = (CNode*) pNewBlock->data();
; 910  : 		// free in reverse order to make it easier to debug
; 911  : 		pNode += m_nBlockSize - 1;

  00058	8b 4e 18	 mov	 ecx, DWORD PTR [esi+24]
  0005b	8d 50 08	 lea	 edx, DWORD PTR [eax+8]
  0005e	8d 04 49	 lea	 eax, DWORD PTR [ecx+ecx*2]
  00061	8d 14 82	 lea	 edx, DWORD PTR [edx+eax*4]
  00064	83 c2 f4	 add	 edx, -12		; fffffff4H

; 912  : 		for (INT_PTR i = m_nBlockSize-1; i >= 0; i--, pNode--)

  00067	83 c1 ff	 add	 ecx, -1
  0006a	78 14		 js	 SHORT $LN16@GetSubGrap
  0006c	0f 1f 40 00	 npad	 4
$LL13@GetSubGrap:

; 913  : 		{
; 914  : 			pNode->pNext = m_pNodeFree;

  00070	8b 46 10	 mov	 eax, DWORD PTR [esi+16]
  00073	89 02		 mov	 DWORD PTR [edx], eax

; 915  : 			m_pNodeFree = pNode;

  00075	89 56 10	 mov	 DWORD PTR [esi+16], edx
  00078	83 ea 0c	 sub	 edx, 12			; 0000000cH
  0007b	83 e9 01	 sub	 ecx, 1
  0007e	79 f0		 jns	 SHORT $LL13@GetSubGrap
$LN16@GetSubGrap:

; 918  : 	ENSURE(m_pNodeFree != NULL);  // we must have something

  00080	8b 4e 10	 mov	 ecx, DWORD PTR [esi+16]
  00083	85 c9		 test	 ecx, ecx
  00085	74 40		 je	 SHORT $LN25@GetSubGrap

; 919  : 
; 920  : 	CList::CNode* pNode = m_pNodeFree;
; 921  : 	m_pNodeFree = m_pNodeFree->pNext;

  00087	8b 01		 mov	 eax, DWORD PTR [ecx]
  00089	89 46 10	 mov	 DWORD PTR [esi+16], eax

; 922  : 	pNode->pPrev = pPrev;

  0008c	89 59 04	 mov	 DWORD PTR [ecx+4], ebx

; 923  : 	pNode->pNext = pNext;

  0008f	c7 01 00 00 00
	00		 mov	 DWORD PTR [ecx], 0

; 924  : 	m_nCount++;

  00095	ff 46 0c	 inc	 DWORD PTR [esi+12]

; 969  : 	pNewNode->data = newElement;

  00098	89 79 08	 mov	 DWORD PTR [ecx+8], edi

; 970  : 	if (m_pNodeTail != NULL)

  0009b	8b 46 08	 mov	 eax, DWORD PTR [esi+8]
  0009e	85 c0		 test	 eax, eax
  000a0	74 04		 je	 SHORT $LN7@GetSubGrap

; 971  : 		m_pNodeTail->pNext = pNewNode;

  000a2	89 08		 mov	 DWORD PTR [eax], ecx
  000a4	eb 03		 jmp	 SHORT $LN8@GetSubGrap
$LN7@GetSubGrap:

; 972  : 	else
; 973  : 		m_pNodeHead = pNewNode;

  000a6	89 4e 04	 mov	 DWORD PTR [esi+4], ecx
$LN8@GetSubGrap:

; 974  : 	m_pNodeTail = pNewNode;

  000a9	89 4e 08	 mov	 DWORD PTR [esi+8], ecx
; File D:\git\src\IBK\IBK_DRFN\ProjSrc\SrcChartEx\ChartOCX\ChartObject\SubGraph.cpp

; 304  : 		bResult = true;

  000ac	b3 01		 mov	 bl, 1
$LN27@GetSubGrap:

; 297  : 	while(pos != NULL)

  000ae	83 7d fc 00	 cmp	 DWORD PTR _pos$[ebp], 0
  000b2	74 08		 je	 SHORT $LN33@GetSubGrap
  000b4	8b 7d f8	 mov	 edi, DWORD PTR tv288[ebp]
  000b7	e9 74 ff ff ff	 jmp	 $LL2@GetSubGrap
$LN33@GetSubGrap:
  000bc	5e		 pop	 esi
$LN32@GetSubGrap:

; 305  : 	}
; 306  : 
; 307  : 	return bResult;

  000bd	5f		 pop	 edi
  000be	8a c3		 mov	 al, bl
  000c0	5b		 pop	 ebx

; 308  : }

  000c1	8b e5		 mov	 esp, ebp
  000c3	5d		 pop	 ebp
  000c4	c2 04 00	 ret	 4
$LN25@GetSubGrap:
; File C:\Program Files (x86)\Microsoft Visual Studio\2019\Community\VC\Tools\MSVC\14.29.30133\atlmfc\include\afxtempl.h

; 918  : 	ENSURE(m_pNodeFree != NULL);  // we must have something

  000c7	e8 00 00 00 00	 call	 ?AfxThrowInvalidArgException@@YGXXZ ; AfxThrowInvalidArgException
$LN34@GetSubGrap:
  000cc	cc		 int	 3
?GetSubGraphPacketList@CSubGraph@@QBE_NAAV?$CList@PAVCPacket@@PAV1@@@@Z ENDP ; CSubGraph::GetSubGraphPacketList
_TEXT	ENDS
; Function compile flags: /Ogtp
; File D:\git\src\IBK\IBK_DRFN\ProjSrc\SrcChartEx\ChartOCX\ChartObject\SubGraph.cpp
;	COMDAT ?GetHeadPacketAndDataType@CSubGraph@@QBE_NAAPAVCPacket@@AAN@Z
_TEXT	SEGMENT
_pPacket$ = 8						; size = 4
_dDataType$ = 12					; size = 4
?GetHeadPacketAndDataType@CSubGraph@@QBE_NAAPAVCPacket@@AAN@Z PROC ; CSubGraph::GetHeadPacketAndDataType, COMDAT
; _this$ = ecx

; 283  : {

  00000	55		 push	 ebp
  00001	8b ec		 mov	 ebp, esp

; 284  : 	pPacket = m_subGraphPacketList.GetHeadPacket();

  00003	81 c1 94 00 00
	00		 add	 ecx, 148		; 00000094H
  00009	e8 00 00 00 00	 call	 ?GetHeadPacket@CSubGraphPacketList@@QBEPAVCPacket@@XZ ; CSubGraphPacketList::GetHeadPacket
  0000e	8b 4d 08	 mov	 ecx, DWORD PTR _pPacket$[ebp]
  00011	89 01		 mov	 DWORD PTR [ecx], eax

; 285  : 	if(pPacket == NULL)

  00013	85 c0		 test	 eax, eax
  00015	75 06		 jne	 SHORT $LN2@GetHeadPac

; 286  : 		return false;

  00017	32 c0		 xor	 al, al

; 291  : }

  00019	5d		 pop	 ebp
  0001a	c2 08 00	 ret	 8
$LN2@GetHeadPac:

; 287  : 
; 288  : 	// (2007/2/24 - Seung-Won, Bae) Support ScaleType
; 289  : 	dDataType = pPacket->GetScaleTypeFormatDouble();

  0001d	8b c8		 mov	 ecx, eax
  0001f	ff 15 00 00 00
	00		 call	 DWORD PTR __imp_?GetScaleTypeFormatDouble@CPacket@@QAENXZ
  00025	8b 45 0c	 mov	 eax, DWORD PTR _dDataType$[ebp]
  00028	dd 18		 fstp	 QWORD PTR [eax]

; 290  : 	return true;

  0002a	b0 01		 mov	 al, 1

; 291  : }

  0002c	5d		 pop	 ebp
  0002d	c2 08 00	 ret	 8
?GetHeadPacketAndDataType@CSubGraph@@QBE_NAAPAVCPacket@@AAN@Z ENDP ; CSubGraph::GetHeadPacketAndDataType
_TEXT	ENDS
; Function compile flags: /Ogtp
; File D:\git\src\IBK\IBK_DRFN\ProjSrc\SrcChartEx\ChartOCX\ChartObject\SubGraph.cpp
; File C:\Program Files (x86)\Microsoft Visual Studio\2019\Community\VC\Tools\MSVC\14.29.30133\atlmfc\include\cstringt.h
; File D:\git\src\IBK\IBK_DRFN\ProjSrc\SrcChartEx\ChartOCX\ChartObject\SubGraph.cpp
; File C:\Program Files (x86)\Microsoft Visual Studio\2019\Community\VC\Tools\MSVC\14.29.30133\atlmfc\include\cstringt.h
; File C:\Program Files (x86)\Microsoft Visual Studio\2019\Community\VC\Tools\MSVC\14.29.30133\atlmfc\include\atlsimpstr.h
; File C:\Program Files (x86)\Microsoft Visual Studio\2019\Community\VC\Tools\MSVC\14.29.30133\atlmfc\include\cstringt.h
; File D:\git\src\IBK\IBK_DRFN\ProjSrc\SrcChartEx\ChartOCX\ChartObject\SubGraph.cpp
;	COMDAT ?GetSubGraphViewDataList@CSubGraph@@QBEXABV?$CStringT@DV?$StrTraitMFC_DLL@DV?$ChTraitsCRT@D@ATL@@@@@ATL@@0AAVCSubGraphViewDataList@@@Z
_TEXT	SEGMENT
_subGraphViewData$ = -68				; size = 20
$T2 = -48						; size = 4
tv314 = -44						; size = 4
$T3 = -44						; size = 4
_this$1$ = -40						; size = 4
$T4 = -40						; size = 4
$T5 = -36						; size = 4
tv313 = -32						; size = 4
$T6 = -32						; size = 4
$T7 = -32						; size = 4
_pos$8 = -28						; size = 4
_packetNames$9 = -24					; size = 4
$T10 = -20						; size = 4
_chTemp$11 = -13					; size = 1
__$EHRec$ = -12						; size = 12
_GraphName$ = 8						; size = 4
_packetName$ = 12					; size = 4
_subGraphViewDataList$ = 16				; size = 4
?GetSubGraphViewDataList@CSubGraph@@QBEXABV?$CStringT@DV?$StrTraitMFC_DLL@DV?$ChTraitsCRT@D@ATL@@@@@ATL@@0AAVCSubGraphViewDataList@@@Z PROC ; CSubGraph::GetSubGraphViewDataList, COMDAT
; _this$ = ecx

; 270  : {

  00000	55		 push	 ebp
  00001	8b ec		 mov	 ebp, esp
  00003	6a ff		 push	 -1
  00005	68 00 00 00 00	 push	 __ehhandler$?GetSubGraphViewDataList@CSubGraph@@QBEXABV?$CStringT@DV?$StrTraitMFC_DLL@DV?$ChTraitsCRT@D@ATL@@@@@ATL@@0AAVCSubGraphViewDataList@@@Z
  0000a	64 a1 00 00 00
	00		 mov	 eax, DWORD PTR fs:0
  00010	50		 push	 eax
  00011	83 ec 38	 sub	 esp, 56			; 00000038H
  00014	53		 push	 ebx
  00015	56		 push	 esi
  00016	57		 push	 edi
  00017	a1 00 00 00 00	 mov	 eax, DWORD PTR ___security_cookie
  0001c	33 c5		 xor	 eax, ebp
  0001e	50		 push	 eax
  0001f	8d 45 f4	 lea	 eax, DWORD PTR __$EHRec$[ebp]
  00022	64 a3 00 00 00
	00		 mov	 DWORD PTR fs:0, eax
  00028	8b d9		 mov	 ebx, ecx
  0002a	89 5d d8	 mov	 DWORD PTR _this$1$[ebp], ebx

; 271  : 	if(m_subGraphData.GetHiding() || m_subGraphData.GetType() == CGraphBaseData::DataView_Type)

  0002d	8d 73 0c	 lea	 esi, DWORD PTR [ebx+12]
  00030	33 ff		 xor	 edi, edi
  00032	89 7d e0	 mov	 DWORD PTR $T6[ebp], edi
  00035	8b ce		 mov	 ecx, esi
  00037	89 75 d4	 mov	 DWORD PTR tv314[ebp], esi
  0003a	ff 15 00 00 00
	00		 call	 DWORD PTR __imp_?GetHiding@CSubGraphData@@ABE_NXZ
  00040	84 c0		 test	 al, al
  00042	0f 85 9a 01 00
	00		 jne	 $LN3@GetSubGrap
  00048	8b ce		 mov	 ecx, esi
  0004a	ff 15 00 00 00
	00		 call	 DWORD PTR __imp_?GetType@CSubGraphDataBase@@QBE?AW4GRAPHTYPE@CGraphBaseData@@XZ
  00050	83 f8 06	 cmp	 eax, 6
  00053	0f 84 89 01 00
	00		 je	 $LN3@GetSubGrap

; 685  : 	CString packetNames;

  00059	8d 4d e8	 lea	 ecx, DWORD PTR _packetNames$9[ebp]
  0005c	ff 15 00 00 00
	00		 call	 DWORD PTR __imp_??0?$CStringT@DV?$StrTraitMFC_DLL@DV?$ChTraitsCRT@D@ATL@@@@@ATL@@QAE@XZ

; 686  : 	POSITION pos = m_subGraphPacketList.GetHeadPosition();

  00062	8d 8b 94 00 00
	00		 lea	 ecx, DWORD PTR [ebx+148]
  00068	89 7d fc	 mov	 DWORD PTR __$EHRec$[ebp+8], edi
  0006b	89 4d e0	 mov	 DWORD PTR tv313[ebp], ecx
  0006e	e8 00 00 00 00	 call	 ?GetHeadPosition@CSubGraphPacketList@@QBEPAU__POSITION@@XZ ; CSubGraphPacketList::GetHeadPosition
  00073	89 45 e4	 mov	 DWORD PTR _pos$8[ebp], eax

; 687  : 	while(pos != NULL){

  00076	85 c0		 test	 eax, eax
  00078	0f 84 87 00 00
	00		 je	 $LN11@GetSubGrap
  0007e	8b 5d e0	 mov	 ebx, DWORD PTR tv313[ebp]
$LL10@GetSubGrap:

; 688  : 		CPacket* pPacket = m_subGraphPacketList.GetNext(pos);

  00081	8d 45 e4	 lea	 eax, DWORD PTR _pos$8[ebp]
  00084	8b cb		 mov	 ecx, ebx
  00086	50		 push	 eax
  00087	e8 00 00 00 00	 call	 ?GetNext@CSubGraphPacketList@@QBEPAVCPacket@@AAPAU__POSITION@@@Z ; CSubGraphPacketList::GetNext

; 690  : 		packetNames += (pPacket->GetName() + ',');

  0008c	8d 4d dc	 lea	 ecx, DWORD PTR $T5[ebp]
  0008f	51		 push	 ecx
  00090	8b c8		 mov	 ecx, eax
  00092	ff 15 00 00 00
	00		 call	 DWORD PTR __imp_?GetName@CPacket@@QAE?AV?$CStringT@DV?$StrTraitMFC_DLL@DV?$ChTraitsCRT@D@ATL@@@@@ATL@@XZ
  00098	8b f0		 mov	 esi, eax
; File C:\Program Files (x86)\Microsoft Visual Studio\2019\Community\VC\Tools\MSVC\14.29.30133\atlmfc\include\cstringt.h

; 2429 : 		CStringT strResult( str1.GetManager() );

  0009a	8b ce		 mov	 ecx, esi
; File D:\git\src\IBK\IBK_DRFN\ProjSrc\SrcChartEx\ChartOCX\ChartObject\SubGraph.cpp

; 690  : 		packetNames += (pPacket->GetName() + ',');

  0009c	c6 45 fc 02	 mov	 BYTE PTR __$EHRec$[ebp+8], 2
; File C:\Program Files (x86)\Microsoft Visual Studio\2019\Community\VC\Tools\MSVC\14.29.30133\atlmfc\include\cstringt.h

; 2429 : 		CStringT strResult( str1.GetManager() );

  000a0	ff 15 00 00 00
	00		 call	 DWORD PTR __imp_?GetManager@?$CStringT@DV?$StrTraitMFC_DLL@DV?$ChTraitsCRT@D@ATL@@@@@ATL@@QBEPAUIAtlStringMgr@2@XZ
  000a6	50		 push	 eax
  000a7	8d 4d ec	 lea	 ecx, DWORD PTR $T10[ebp]
  000aa	ff 15 00 00 00
	00		 call	 DWORD PTR __imp_??0?$CStringT@DV?$StrTraitMFC_DLL@DV?$ChTraitsCRT@D@ATL@@@@@ATL@@QAE@PAUIAtlStringMgr@1@@Z
; File C:\Program Files (x86)\Microsoft Visual Studio\2019\Community\VC\Tools\MSVC\14.29.30133\atlmfc\include\atlsimpstr.h

; 519  : 		return( GetData()->nDataLength );

  000b0	8b 06		 mov	 eax, DWORD PTR [esi]
; File C:\Program Files (x86)\Microsoft Visual Studio\2019\Community\VC\Tools\MSVC\14.29.30133\atlmfc\include\cstringt.h

; 2432 : 		CThisSimpleString::Concatenate( strResult, str1, str1.GetLength(), &chTemp, 1 );

  000b2	8d 4d f3	 lea	 ecx, DWORD PTR _chTemp$11[ebp]
  000b5	6a 01		 push	 1
  000b7	51		 push	 ecx
  000b8	c6 45 f3 2c	 mov	 BYTE PTR _chTemp$11[ebp], 44 ; 0000002cH

; 2433 : 
; 2434 : 		return( strResult );

  000bc	83 cf 02	 or	 edi, 2
  000bf	ff 70 f4	 push	 DWORD PTR [eax-12]
  000c2	89 7d e0	 mov	 DWORD PTR $T6[ebp], edi
  000c5	50		 push	 eax
  000c6	8d 45 ec	 lea	 eax, DWORD PTR $T10[ebp]
  000c9	50		 push	 eax
  000ca	ff 15 00 00 00
	00		 call	 DWORD PTR __imp_?Concatenate@?$CSimpleStringT@D$00@ATL@@KAXAAV12@PBDH1H@Z
  000d0	83 c4 14	 add	 esp, 20			; 00000014H
; File D:\git\src\IBK\IBK_DRFN\ProjSrc\SrcChartEx\ChartOCX\ChartObject\SubGraph.cpp

; 690  : 		packetNames += (pPacket->GetName() + ',');

  000d3	8d 45 ec	 lea	 eax, DWORD PTR $T10[ebp]
  000d6	8d 4d e8	 lea	 ecx, DWORD PTR _packetNames$9[ebp]
  000d9	50		 push	 eax
  000da	ff 15 00 00 00
	00		 call	 DWORD PTR __imp_??Y?$CStringT@DV?$StrTraitMFC_DLL@DV?$ChTraitsCRT@D@ATL@@@@@ATL@@QAEAAV01@ABV?$CSimpleStringT@D$00@1@@Z
  000e0	8d 4d ec	 lea	 ecx, DWORD PTR $T10[ebp]
  000e3	83 e7 fd	 and	 edi, -3			; fffffffdH
  000e6	ff 15 00 00 00
	00		 call	 DWORD PTR __imp_??1?$CStringT@DV?$StrTraitMFC_DLL@DV?$ChTraitsCRT@D@ATL@@@@@ATL@@QAE@XZ
  000ec	8d 4d dc	 lea	 ecx, DWORD PTR $T5[ebp]
  000ef	c6 45 fc 00	 mov	 BYTE PTR __$EHRec$[ebp+8], 0
  000f3	ff 15 00 00 00
	00		 call	 DWORD PTR __imp_??1?$CStringT@DV?$StrTraitMFC_DLL@DV?$ChTraitsCRT@D@ATL@@@@@ATL@@QAE@XZ
  000f9	83 7d e4 00	 cmp	 DWORD PTR _pos$8[ebp], 0
  000fd	75 82		 jne	 SHORT $LL10@GetSubGrap
  000ff	8b 5d d8	 mov	 ebx, DWORD PTR _this$1$[ebp]
  00102	8b 75 d4	 mov	 esi, DWORD PTR tv314[ebp]
$LN11@GetSubGrap:

; 184  : 	if(m_pSubGraphList == NULL)

  00105	8b 4b 08	 mov	 ecx, DWORD PTR [ebx+8]
  00108	85 c9		 test	 ecx, ecx
  0010a	75 04		 jne	 SHORT $LN31@GetSubGrap

; 185  : 		return NULL;

  0010c	33 c0		 xor	 eax, eax
  0010e	eb 05		 jmp	 SHORT $LN30@GetSubGrap
$LN31@GetSubGrap:

; 186  : 
; 187  : 	return m_pSubGraphList->GetGraph();

  00110	e8 00 00 00 00	 call	 ?GetGraph@CSubGraphList@@QBEPAVCGraphImp@@XZ ; CSubGraphList::GetGraph
$LN30@GetSubGrap:

; 693  : 	return CSubGraphViewData(m_subGraphData.GetType(), m_subGraphData.GetStyle(), m_subGraphData.GetTitle(), packetNames, GetGraph()->GetGraphRQ());

  00115	8b 10		 mov	 edx, DWORD PTR [eax]
  00117	8b c8		 mov	 ecx, eax
  00119	ff 52 1c	 call	 DWORD PTR [edx+28]
  0011c	50		 push	 eax
  0011d	8d 4d e0	 lea	 ecx, DWORD PTR $T7[ebp]
  00120	ff 15 00 00 00
	00		 call	 DWORD PTR __imp_??0?$CStringT@DV?$StrTraitMFC_DLL@DV?$ChTraitsCRT@D@ATL@@@@@ATL@@QAE@PBD@Z
  00126	8d 45 d4	 lea	 eax, DWORD PTR $T3[ebp]
  00129	c6 45 fc 03	 mov	 BYTE PTR __$EHRec$[ebp+8], 3
  0012d	50		 push	 eax
  0012e	8b ce		 mov	 ecx, esi
  00130	ff 15 00 00 00
	00		 call	 DWORD PTR __imp_?GetTitle@CSubGraphDataBase@@QBE?AV?$CStringT@DV?$StrTraitMFC_DLL@DV?$ChTraitsCRT@D@ATL@@@@@ATL@@XZ
  00136	8d 4d e0	 lea	 ecx, DWORD PTR $T7[ebp]
  00139	c6 45 fc 04	 mov	 BYTE PTR __$EHRec$[ebp+8], 4
  0013d	51		 push	 ecx
  0013e	8d 4d e8	 lea	 ecx, DWORD PTR _packetNames$9[ebp]
  00141	51		 push	 ecx
  00142	50		 push	 eax
  00143	8d 45 d8	 lea	 eax, DWORD PTR $T4[ebp]
  00146	8b ce		 mov	 ecx, esi
  00148	50		 push	 eax
  00149	ff 15 00 00 00
	00		 call	 DWORD PTR __imp_?GetStyle@CSubGraphDataBase@@QBE?AVCGraphStyle@@XZ
  0014f	50		 push	 eax
  00150	8b ce		 mov	 ecx, esi
  00152	ff 15 00 00 00
	00		 call	 DWORD PTR __imp_?GetType@CSubGraphDataBase@@QBE?AW4GRAPHTYPE@CGraphBaseData@@XZ
  00158	50		 push	 eax
  00159	8d 4d bc	 lea	 ecx, DWORD PTR _subGraphViewData$[ebp]
  0015c	e8 00 00 00 00	 call	 ??0CSubGraphViewData@@QAE@W4GRAPHTYPE@CGraphBaseData@@ABVCGraphStyle@@ABV?$CStringT@DV?$StrTraitMFC_DLL@DV?$ChTraitsCRT@D@ATL@@@@@ATL@@22@Z ; CSubGraphViewData::CSubGraphViewData
  00161	8d 4d d4	 lea	 ecx, DWORD PTR $T3[ebp]
  00164	ff 15 00 00 00
	00		 call	 DWORD PTR __imp_??1?$CStringT@DV?$StrTraitMFC_DLL@DV?$ChTraitsCRT@D@ATL@@@@@ATL@@QAE@XZ
  0016a	8d 4d e0	 lea	 ecx, DWORD PTR $T7[ebp]
  0016d	ff 15 00 00 00
	00		 call	 DWORD PTR __imp_??1?$CStringT@DV?$StrTraitMFC_DLL@DV?$ChTraitsCRT@D@ATL@@@@@ATL@@QAE@XZ
  00173	8d 4d e8	 lea	 ecx, DWORD PTR _packetNames$9[ebp]
  00176	ff 15 00 00 00
	00		 call	 DWORD PTR __imp_??1?$CStringT@DV?$StrTraitMFC_DLL@DV?$ChTraitsCRT@D@ATL@@@@@ATL@@QAE@XZ

; 272  : 		return;
; 273  : 	
; 274  : 	CSubGraphViewData subGraphViewData = GetSubGraphViewData(GraphName, packetName);
; 275  : 	if(IsAddTail_SubGraphViewData(subGraphViewData.GetPacketNames(), subGraphViewDataList)){

  0017c	8d 45 d0	 lea	 eax, DWORD PTR $T2[ebp]
  0017f	c7 45 fc 05 00
	00 00		 mov	 DWORD PTR __$EHRec$[ebp+8], 5
  00186	50		 push	 eax
  00187	8d 4d bc	 lea	 ecx, DWORD PTR _subGraphViewData$[ebp]
  0018a	e8 00 00 00 00	 call	 ?GetPacketNames@CSubGraphViewData@@QBE?AV?$CStringT@DV?$StrTraitMFC_DLL@DV?$ChTraitsCRT@D@ATL@@@@@ATL@@XZ ; CSubGraphViewData::GetPacketNames
  0018f	8b 75 10	 mov	 esi, DWORD PTR _subGraphViewDataList$[ebp]
  00192	8b cb		 mov	 ecx, ebx
  00194	56		 push	 esi
  00195	50		 push	 eax
  00196	c6 45 fc 06	 mov	 BYTE PTR __$EHRec$[ebp+8], 6
  0019a	e8 00 00 00 00	 call	 ?IsAddTail_SubGraphViewData@CSubGraph@@ABE_NABV?$CStringT@DV?$StrTraitMFC_DLL@DV?$ChTraitsCRT@D@ATL@@@@@ATL@@AAVCSubGraphViewDataList@@@Z ; CSubGraph::IsAddTail_SubGraphViewData
  0019f	8d 4d d0	 lea	 ecx, DWORD PTR $T2[ebp]
  001a2	c6 45 fc 05	 mov	 BYTE PTR __$EHRec$[ebp+8], 5
  001a6	8a d8		 mov	 bl, al
  001a8	ff 15 00 00 00
	00		 call	 DWORD PTR __imp_??1?$CStringT@DV?$StrTraitMFC_DLL@DV?$ChTraitsCRT@D@ATL@@@@@ATL@@QAE@XZ
  001ae	84 db		 test	 bl, bl
  001b0	74 15		 je	 SHORT $LN4@GetSubGrap

; 276  : 		subGraphViewDataList.AddTail(subGraphViewData);

  001b2	83 ec 14	 sub	 esp, 20			; 00000014H
  001b5	8d 45 bc	 lea	 eax, DWORD PTR _subGraphViewData$[ebp]
  001b8	8b cc		 mov	 ecx, esp
  001ba	50		 push	 eax
  001bb	e8 00 00 00 00	 call	 ??0CSubGraphViewData@@QAE@ABV0@@Z
  001c0	8b ce		 mov	 ecx, esi
  001c2	e8 00 00 00 00	 call	 ?AddTail@CSubGraphViewDataList@@QAEXVCSubGraphViewData@@@Z ; CSubGraphViewDataList::AddTail
$LN4@GetSubGrap:
  001c7	8d 4d cc	 lea	 ecx, DWORD PTR _subGraphViewData$[ebp+16]
  001ca	ff 15 00 00 00
	00		 call	 DWORD PTR __imp_??1?$CStringT@DV?$StrTraitMFC_DLL@DV?$ChTraitsCRT@D@ATL@@@@@ATL@@QAE@XZ
  001d0	8d 4d c8	 lea	 ecx, DWORD PTR _subGraphViewData$[ebp+12]
  001d3	ff 15 00 00 00
	00		 call	 DWORD PTR __imp_??1?$CStringT@DV?$StrTraitMFC_DLL@DV?$ChTraitsCRT@D@ATL@@@@@ATL@@QAE@XZ
  001d9	8d 4d c4	 lea	 ecx, DWORD PTR _subGraphViewData$[ebp+8]
  001dc	ff 15 00 00 00
	00		 call	 DWORD PTR __imp_??1?$CStringT@DV?$StrTraitMFC_DLL@DV?$ChTraitsCRT@D@ATL@@@@@ATL@@QAE@XZ
$LN3@GetSubGrap:

; 277  : 	}
; 278  : }

  001e2	8b 4d f4	 mov	 ecx, DWORD PTR __$EHRec$[ebp]
  001e5	64 89 0d 00 00
	00 00		 mov	 DWORD PTR fs:0, ecx
  001ec	59		 pop	 ecx
  001ed	5f		 pop	 edi
  001ee	5e		 pop	 esi
  001ef	5b		 pop	 ebx
  001f0	8b e5		 mov	 esp, ebp
  001f2	5d		 pop	 ebp
  001f3	c2 0c 00	 ret	 12			; 0000000cH
_TEXT	ENDS
;	COMDAT text$x
text$x	SEGMENT
__unwindfunclet$?GetSubGraphViewDataList@CSubGraph@@QBEXABV?$CStringT@DV?$StrTraitMFC_DLL@DV?$ChTraitsCRT@D@ATL@@@@@ATL@@0AAVCSubGraphViewDataList@@@Z$3:
  00000	8d 4d e8	 lea	 ecx, DWORD PTR _packetNames$9[ebp]
  00003	ff 25 00 00 00
	00		 jmp	 DWORD PTR __imp_??1?$CStringT@DV?$StrTraitMFC_DLL@DV?$ChTraitsCRT@D@ATL@@@@@ATL@@QAE@XZ
__unwindfunclet$?GetSubGraphViewDataList@CSubGraph@@QBEXABV?$CStringT@DV?$StrTraitMFC_DLL@DV?$ChTraitsCRT@D@ATL@@@@@ATL@@0AAVCSubGraphViewDataList@@@Z$4:
  00009	8d 4d dc	 lea	 ecx, DWORD PTR $T5[ebp]
  0000c	ff 25 00 00 00
	00		 jmp	 DWORD PTR __imp_??1?$CStringT@DV?$StrTraitMFC_DLL@DV?$ChTraitsCRT@D@ATL@@@@@ATL@@QAE@XZ
__unwindfunclet$?GetSubGraphViewDataList@CSubGraph@@QBEXABV?$CStringT@DV?$StrTraitMFC_DLL@DV?$ChTraitsCRT@D@ATL@@@@@ATL@@0AAVCSubGraphViewDataList@@@Z$9:
  00012	8b 45 e0	 mov	 eax, DWORD PTR $T6[ebp]
  00015	83 e0 02	 and	 eax, 2
  00018	0f 84 0d 00 00
	00		 je	 $LN23@GetSubGrap
  0001e	83 65 e0 fd	 and	 DWORD PTR $T6[ebp], -3	; fffffffdH
  00022	8d 4d ec	 lea	 ecx, DWORD PTR $T10[ebp]
  00025	ff 25 00 00 00
	00		 jmp	 DWORD PTR __imp_??1?$CStringT@DV?$StrTraitMFC_DLL@DV?$ChTraitsCRT@D@ATL@@@@@ATL@@QAE@XZ
$LN23@GetSubGrap:
  0002b	c3		 ret	 0
__unwindfunclet$?GetSubGraphViewDataList@CSubGraph@@QBEXABV?$CStringT@DV?$StrTraitMFC_DLL@DV?$ChTraitsCRT@D@ATL@@@@@ATL@@0AAVCSubGraphViewDataList@@@Z$6:
  0002c	8d 4d e0	 lea	 ecx, DWORD PTR $T7[ebp]
  0002f	ff 25 00 00 00
	00		 jmp	 DWORD PTR __imp_??1?$CStringT@DV?$StrTraitMFC_DLL@DV?$ChTraitsCRT@D@ATL@@@@@ATL@@QAE@XZ
__unwindfunclet$?GetSubGraphViewDataList@CSubGraph@@QBEXABV?$CStringT@DV?$StrTraitMFC_DLL@DV?$ChTraitsCRT@D@ATL@@@@@ATL@@0AAVCSubGraphViewDataList@@@Z$7:
  00035	8d 4d d4	 lea	 ecx, DWORD PTR $T3[ebp]
  00038	ff 25 00 00 00
	00		 jmp	 DWORD PTR __imp_??1?$CStringT@DV?$StrTraitMFC_DLL@DV?$ChTraitsCRT@D@ATL@@@@@ATL@@QAE@XZ
__unwindfunclet$?GetSubGraphViewDataList@CSubGraph@@QBEXABV?$CStringT@DV?$StrTraitMFC_DLL@DV?$ChTraitsCRT@D@ATL@@@@@ATL@@0AAVCSubGraphViewDataList@@@Z$0:
  0003e	8d 4d bc	 lea	 ecx, DWORD PTR _subGraphViewData$[ebp]
  00041	e9 00 00 00 00	 jmp	 ??1CSubGraphViewData@@QAE@XZ
__unwindfunclet$?GetSubGraphViewDataList@CSubGraph@@QBEXABV?$CStringT@DV?$StrTraitMFC_DLL@DV?$ChTraitsCRT@D@ATL@@@@@ATL@@0AAVCSubGraphViewDataList@@@Z$1:
  00046	8d 4d d0	 lea	 ecx, DWORD PTR $T2[ebp]
  00049	ff 25 00 00 00
	00		 jmp	 DWORD PTR __imp_??1?$CStringT@DV?$StrTraitMFC_DLL@DV?$ChTraitsCRT@D@ATL@@@@@ATL@@QAE@XZ
  0004f	cc		 int	 3
  00050	cc		 int	 3
  00051	cc		 int	 3
  00052	cc		 int	 3
  00053	cc		 int	 3
__ehhandler$?GetSubGraphViewDataList@CSubGraph@@QBEXABV?$CStringT@DV?$StrTraitMFC_DLL@DV?$ChTraitsCRT@D@ATL@@@@@ATL@@0AAVCSubGraphViewDataList@@@Z:
  00054	90		 npad	 1
  00055	90		 npad	 1
  00056	8b 54 24 08	 mov	 edx, DWORD PTR [esp+8]
  0005a	8d 42 0c	 lea	 eax, DWORD PTR [edx+12]
  0005d	8b 4a b8	 mov	 ecx, DWORD PTR [edx-72]
  00060	33 c8		 xor	 ecx, eax
  00062	e8 00 00 00 00	 call	 @__security_check_cookie@4
  00067	b8 00 00 00 00	 mov	 eax, OFFSET __ehfuncinfo$?GetSubGraphViewDataList@CSubGraph@@QBEXABV?$CStringT@DV?$StrTraitMFC_DLL@DV?$ChTraitsCRT@D@ATL@@@@@ATL@@0AAVCSubGraphViewDataList@@@Z
  0006c	e9 00 00 00 00	 jmp	 ___CxxFrameHandler3
text$x	ENDS
?GetSubGraphViewDataList@CSubGraph@@QBEXABV?$CStringT@DV?$StrTraitMFC_DLL@DV?$ChTraitsCRT@D@ATL@@@@@ATL@@0AAVCSubGraphViewDataList@@@Z ENDP ; CSubGraph::GetSubGraphViewDataList
; Function compile flags: /Ogtp
; File D:\git\src\IBK\IBK_DRFN\ProjSrc\SrcChartEx\ChartOCX\ChartObject\SubGraph.cpp
; File C:\Program Files (x86)\Microsoft Visual Studio\2019\Community\VC\Tools\MSVC\14.29.30133\atlmfc\include\atlsimpstr.h
; File D:\git\src\IBK\IBK_DRFN\ProjSrc\SrcChartEx\ChartOCX\ChartObject\SubGraph.cpp
; File C:\Program Files (x86)\Microsoft Visual Studio\2019\Community\VC\Tools\MSVC\14.29.30133\atlmfc\include\atltypes.h
; File D:\git\src\IBK\IBK_DRFN\ProjSrc\SrcChartEx\ChartOCX\ChartObject\SubGraph.cpp
; File C:\Program Files (x86)\Microsoft Visual Studio\2019\Community\VC\Tools\MSVC\14.29.30133\atlmfc\include\atltypes.h
; File D:\git\src\IBK\IBK_DRFN\ProjSrc\SrcChartEx\ChartOCX\ChartObject\SubGraph.cpp
; File C:\Program Files (x86)\Microsoft Visual Studio\2019\Community\VC\Tools\MSVC\14.29.30133\atlmfc\include\atltypes.h
; File D:\git\src\IBK\IBK_DRFN\ProjSrc\SrcChartEx\ChartOCX\ChartObject\SubGraph.cpp
;	COMDAT ?GetSubGraphTitleRegion@CSubGraph@@QBE?AVCRect@@PAVCDC@@ABV2@AAH2@Z
_TEXT	SEGMENT
$T1 = -44						; size = 4
$T2 = -40						; size = 4
_nPreLineCount$GSCopy$1$ = -36				; size = 4
_preTitleEndPosition$GSCopy$1$ = -32			; size = 4
_allTitleRegion$GSCopy$1$ = -28				; size = 4
$T3 = -21						; size = 1
_titleRegion$ = -20					; size = 16
__$ArrayPad$ = -4					; size = 4
___$ReturnUdt$ = 8					; size = 4
_pDC$ = 12						; size = 4
_allTitleRegion$ = 16					; size = 4
_preTitleEndPosition$ = 20				; size = 4
_nPreLineCount$ = 24					; size = 4
?GetSubGraphTitleRegion@CSubGraph@@QBE?AVCRect@@PAVCDC@@ABV2@AAH2@Z PROC ; CSubGraph::GetSubGraphTitleRegion, COMDAT
; _this$ = ecx

; 241  : {

  00000	55		 push	 ebp
  00001	8b ec		 mov	 ebp, esp
  00003	83 ec 2c	 sub	 esp, 44			; 0000002cH
  00006	a1 00 00 00 00	 mov	 eax, DWORD PTR ___security_cookie
  0000b	33 c5		 xor	 eax, ebp
  0000d	89 45 fc	 mov	 DWORD PTR __$ArrayPad$[ebp], eax
  00010	8b 45 10	 mov	 eax, DWORD PTR _allTitleRegion$[ebp]
  00013	53		 push	 ebx
  00014	89 45 e4	 mov	 DWORD PTR _allTitleRegion$GSCopy$1$[ebp], eax

; 242  : 	if(m_subGraphData.GetHiding() || m_subGraphData.GetTitle().IsEmpty())

  00017	8d 59 0c	 lea	 ebx, DWORD PTR [ecx+12]
  0001a	8b 45 14	 mov	 eax, DWORD PTR _preTitleEndPosition$[ebp]
  0001d	8b cb		 mov	 ecx, ebx
  0001f	89 45 e0	 mov	 DWORD PTR _preTitleEndPosition$GSCopy$1$[ebp], eax
  00022	8b 45 18	 mov	 eax, DWORD PTR _nPreLineCount$[ebp]
  00025	56		 push	 esi
  00026	8b 75 08	 mov	 esi, DWORD PTR ___$ReturnUdt$[ebp]
  00029	89 45 dc	 mov	 DWORD PTR _nPreLineCount$GSCopy$1$[ebp], eax
  0002c	c7 45 d8 00 00
	00 00		 mov	 DWORD PTR $T2[ebp], 0
  00033	ff 15 00 00 00
	00		 call	 DWORD PTR __imp_?GetHiding@CSubGraphData@@ABE_NXZ
  00039	84 c0		 test	 al, al
  0003b	75 1f		 jne	 SHORT $LN26@GetSubGrap
  0003d	8d 45 d4	 lea	 eax, DWORD PTR $T1[ebp]
  00040	8b cb		 mov	 ecx, ebx
  00042	50		 push	 eax
  00043	ff 15 00 00 00
	00		 call	 DWORD PTR __imp_?GetTitle@CSubGraphDataBase@@QBE?AV?$CStringT@DV?$StrTraitMFC_DLL@DV?$ChTraitsCRT@D@ATL@@@@@ATL@@XZ
  00049	b9 01 00 00 00	 mov	 ecx, 1
; File C:\Program Files (x86)\Microsoft Visual Studio\2019\Community\VC\Tools\MSVC\14.29.30133\atlmfc\include\atlsimpstr.h

; 533  : 		return( GetLength() == 0 );

  0004e	8b 00		 mov	 eax, DWORD PTR [eax]
  00050	83 78 f4 00	 cmp	 DWORD PTR [eax-12], 0
; File D:\git\src\IBK\IBK_DRFN\ProjSrc\SrcChartEx\ChartOCX\ChartObject\SubGraph.cpp

; 242  : 	if(m_subGraphData.GetHiding() || m_subGraphData.GetTitle().IsEmpty())

  00054	74 09		 je	 SHORT $LN5@GetSubGrap
  00056	c6 45 eb 00	 mov	 BYTE PTR $T3[ebp], 0
  0005a	eb 07		 jmp	 SHORT $LN6@GetSubGrap
$LN26@GetSubGrap:
  0005c	8b 4d d8	 mov	 ecx, DWORD PTR $T2[ebp]
$LN5@GetSubGrap:
  0005f	c6 45 eb 01	 mov	 BYTE PTR $T3[ebp], 1
$LN6@GetSubGrap:
  00063	f6 c1 01	 test	 cl, 1
  00066	74 09		 je	 SHORT $LN11@GetSubGrap
  00068	8d 4d d4	 lea	 ecx, DWORD PTR $T1[ebp]
  0006b	ff 15 00 00 00
	00		 call	 DWORD PTR __imp_??1?$CStringT@DV?$StrTraitMFC_DLL@DV?$ChTraitsCRT@D@ATL@@@@@ATL@@QAE@XZ
$LN11@GetSubGrap:
  00071	80 7d eb 00	 cmp	 BYTE PTR $T3[ebp], 0
  00075	74 2f		 je	 SHORT $LN2@GetSubGrap
; File C:\Program Files (x86)\Microsoft Visual Studio\2019\Community\VC\Tools\MSVC\14.29.30133\atlmfc\include\atltypes.h

; 540  : 	left = l;

  00077	c7 06 00 00 00
	00		 mov	 DWORD PTR [esi], 0
; File D:\git\src\IBK\IBK_DRFN\ProjSrc\SrcChartEx\ChartOCX\ChartObject\SubGraph.cpp

; 265  : }

  0007d	8b c6		 mov	 eax, esi
; File C:\Program Files (x86)\Microsoft Visual Studio\2019\Community\VC\Tools\MSVC\14.29.30133\atlmfc\include\atltypes.h

; 541  : 	top = t;

  0007f	c7 46 04 00 00
	00 00		 mov	 DWORD PTR [esi+4], 0

; 542  : 	right = r;

  00086	c7 46 08 00 00
	00 00		 mov	 DWORD PTR [esi+8], 0

; 543  : 	bottom = b;

  0008d	c7 46 0c 00 00
	00 00		 mov	 DWORD PTR [esi+12], 0
  00094	5e		 pop	 esi
; File D:\git\src\IBK\IBK_DRFN\ProjSrc\SrcChartEx\ChartOCX\ChartObject\SubGraph.cpp

; 265  : }

  00095	5b		 pop	 ebx
  00096	8b 4d fc	 mov	 ecx, DWORD PTR __$ArrayPad$[ebp]
  00099	33 cd		 xor	 ecx, ebp
  0009b	e8 00 00 00 00	 call	 @__security_check_cookie@4
  000a0	8b e5		 mov	 esp, ebp
  000a2	5d		 pop	 ebp
  000a3	c2 14 00	 ret	 20			; 00000014H
$LN2@GetSubGrap:
  000a6	57		 push	 edi

; 243  : 		return CRect(0, 0, 0, 0);
; 244  : 
; 245  : 	//    :  - ojtaso (20070227)
; 246  : 	int nLine = m_subGraphData.GetTitleEndLine();

  000a7	8b cb		 mov	 ecx, ebx
  000a9	ff 15 00 00 00
	00		 call	 DWORD PTR __imp_?GetTitleEndLine@CSubGraphDataBase@@QBEHXZ
  000af	8b f8		 mov	 edi, eax

; 247  : 	int nLeft = (nLine > nPreLineCount) ? VSGL_TITLE_START_POSITION : preTitleEndPosition;

  000b1	8b 45 dc	 mov	 eax, DWORD PTR _nPreLineCount$GSCopy$1$[ebp]
  000b4	3b 38		 cmp	 edi, DWORD PTR [eax]
  000b6	7e 07		 jle	 SHORT $LN7@GetSubGrap
  000b8	b9 0c 00 00 00	 mov	 ecx, 12			; 0000000cH
  000bd	eb 05		 jmp	 SHORT $LN8@GetSubGrap
$LN7@GetSubGrap:
  000bf	8b 45 e0	 mov	 eax, DWORD PTR _preTitleEndPosition$GSCopy$1$[ebp]
  000c2	8b 08		 mov	 ecx, DWORD PTR [eax]
$LN8@GetSubGrap:

; 248  : 
; 249  : 	CRect titleRegion;
; 250  : 	titleRegion.left = allTitleRegion.left + nLeft + MARGIN;

  000c4	8b 55 e4	 mov	 edx, DWORD PTR _allTitleRegion$GSCopy$1$[ebp]
  000c7	8b 02		 mov	 eax, DWORD PTR [edx]
  000c9	83 c0 04	 add	 eax, 4
  000cc	03 c1		 add	 eax, ecx

; 251  : 	titleRegion.top = allTitleRegion.top + MARGIN;
; 252  : 	titleRegion.right = allTitleRegion.left + m_subGraphData.GetTitleEndPosition();

  000ce	8b cb		 mov	 ecx, ebx
  000d0	89 45 ec	 mov	 DWORD PTR _titleRegion$[ebp], eax
  000d3	8b 42 04	 mov	 eax, DWORD PTR [edx+4]
  000d6	83 c0 04	 add	 eax, 4
  000d9	89 45 f0	 mov	 DWORD PTR _titleRegion$[ebp+4], eax
  000dc	ff 15 00 00 00
	00		 call	 DWORD PTR __imp_?GetTitleEndPosition@CSubGraphDataBase@@QBEHXZ
  000e2	8b 55 e4	 mov	 edx, DWORD PTR _allTitleRegion$GSCopy$1$[ebp]
  000e5	8b 0a		 mov	 ecx, DWORD PTR [edx]

; 253  : 	titleRegion.bottom = allTitleRegion.bottom;

  000e7	8b 52 0c	 mov	 edx, DWORD PTR [edx+12]
  000ea	03 c8		 add	 ecx, eax
  000ec	89 4d f4	 mov	 DWORD PTR _titleRegion$[ebp+8], ecx
  000ef	89 55 f8	 mov	 DWORD PTR _titleRegion$[ebp+12], edx

; 254  : 
; 255  : 	if(nLine > 1)

  000f2	83 ff 01	 cmp	 edi, 1
  000f5	7e 19		 jle	 SHORT $LN3@GetSubGrap

; 256  : 	{
; 257  : 		nLeft = (titleRegion.Height() + MARGIN) * (nLine - 1);

  000f7	2b 55 f0	 sub	 edx, DWORD PTR _titleRegion$[ebp+4]
  000fa	8d 47 ff	 lea	 eax, DWORD PTR [edi-1]
  000fd	83 c2 04	 add	 edx, 4
  00100	0f af d0	 imul	 edx, eax
; File C:\Program Files (x86)\Microsoft Visual Studio\2019\Community\VC\Tools\MSVC\14.29.30133\atlmfc\include\atltypes.h

; 710  : 	::OffsetRect(this, x, y);

  00103	8d 45 ec	 lea	 eax, DWORD PTR _titleRegion$[ebp]
  00106	52		 push	 edx
  00107	6a 00		 push	 0
  00109	50		 push	 eax
  0010a	ff 15 00 00 00
	00		 call	 DWORD PTR __imp__OffsetRect@12
$LN3@GetSubGrap:
; File D:\git\src\IBK\IBK_DRFN\ProjSrc\SrcChartEx\ChartOCX\ChartObject\SubGraph.cpp

; 261  : 	preTitleEndPosition = m_subGraphData.GetTitleEndPosition();

  00110	8b cb		 mov	 ecx, ebx
  00112	ff 15 00 00 00
	00		 call	 DWORD PTR __imp_?GetTitleEndPosition@CSubGraphDataBase@@QBEHXZ
  00118	8b 4d e0	 mov	 ecx, DWORD PTR _preTitleEndPosition$GSCopy$1$[ebp]

; 262  : 	nPreLineCount = nLine;
; 263  : 
; 264  : 	return titleRegion;

  0011b	0f 10 45 ec	 movups	 xmm0, XMMWORD PTR _titleRegion$[ebp]
  0011f	89 01		 mov	 DWORD PTR [ecx], eax
  00121	8b 45 dc	 mov	 eax, DWORD PTR _nPreLineCount$GSCopy$1$[ebp]

; 265  : }

  00124	8b 4d fc	 mov	 ecx, DWORD PTR __$ArrayPad$[ebp]
  00127	33 cd		 xor	 ecx, ebp
  00129	89 38		 mov	 DWORD PTR [eax], edi
  0012b	8b c6		 mov	 eax, esi
  0012d	5f		 pop	 edi
  0012e	0f 11 06	 movups	 XMMWORD PTR [esi], xmm0
  00131	5e		 pop	 esi
  00132	5b		 pop	 ebx
  00133	e8 00 00 00 00	 call	 @__security_check_cookie@4
  00138	8b e5		 mov	 esp, ebp
  0013a	5d		 pop	 ebp
  0013b	c2 14 00	 ret	 20			; 00000014H
?GetSubGraphTitleRegion@CSubGraph@@QBE?AVCRect@@PAVCDC@@ABV2@AAH2@Z ENDP ; CSubGraph::GetSubGraphTitleRegion
_TEXT	ENDS
; Function compile flags: /Ogtp
; File D:\git\src\IBK\IBK_DRFN\ProjSrc\SrcChartEx\ChartOCX\ChartObject\SubGraph.cpp
; File C:\Program Files (x86)\Microsoft Visual Studio\2019\Community\VC\Tools\MSVC\14.29.30133\atlmfc\include\atlsimpstr.h
; File D:\git\src\IBK\IBK_DRFN\ProjSrc\SrcChartEx\ChartOCX\ChartObject\SubGraph.cpp
; File C:\Program Files (x86)\Microsoft Visual Studio\2019\Community\VC\Tools\MSVC\14.29.30133\atlmfc\include\atltypes.h
; File D:\git\src\IBK\IBK_DRFN\ProjSrc\SrcChartEx\ChartOCX\ChartObject\SubGraph.cpp
; File C:\Program Files (x86)\Microsoft Visual Studio\2019\Community\VC\Tools\MSVC\14.29.30133\atlmfc\include\atltypes.h
; File D:\git\src\IBK\IBK_DRFN\ProjSrc\SrcChartEx\ChartOCX\ChartObject\SubGraph.cpp
;	COMDAT ?GetSubGraphTitleRegion@CSubGraph@@QBE?AVCRect@@PAVCDC@@ABV2@AAH@Z
_TEXT	SEGMENT
tv332 = -16						; size = 4
tv338 = -12						; size = 4
$T1 = -12						; size = 4
tv341 = -8						; size = 4
$T2 = -8						; size = 4
$T3 = -1						; size = 1
___$ReturnUdt$ = 8					; size = 4
_pDC$ = 12						; size = 4
tv337 = 16						; size = 4
_allTitleRegion$ = 16					; size = 4
_preTitleEndPosition$ = 20				; size = 4
?GetSubGraphTitleRegion@CSubGraph@@QBE?AVCRect@@PAVCDC@@ABV2@AAH@Z PROC ; CSubGraph::GetSubGraphTitleRegion, COMDAT
; _this$ = ecx

; 224  : {

  00000	55		 push	 ebp
  00001	8b ec		 mov	 ebp, esp
  00003	83 ec 10	 sub	 esp, 16			; 00000010H
  00006	53		 push	 ebx
  00007	8b 5d 08	 mov	 ebx, DWORD PTR ___$ReturnUdt$[ebp]
  0000a	56		 push	 esi

; 225  : 	if(m_subGraphData.GetHiding() || m_subGraphData.GetTitle().IsEmpty())

  0000b	8d 71 0c	 lea	 esi, DWORD PTR [ecx+12]
  0000e	c7 45 f8 00 00
	00 00		 mov	 DWORD PTR $T2[ebp], 0
  00015	8b ce		 mov	 ecx, esi
  00017	89 75 f0	 mov	 DWORD PTR tv332[ebp], esi
  0001a	ff 15 00 00 00
	00		 call	 DWORD PTR __imp_?GetHiding@CSubGraphData@@ABE_NXZ
  00020	84 c0		 test	 al, al
  00022	75 1f		 jne	 SHORT $LN19@GetSubGrap
  00024	8d 45 f4	 lea	 eax, DWORD PTR $T1[ebp]
  00027	8b ce		 mov	 ecx, esi
  00029	50		 push	 eax
  0002a	ff 15 00 00 00
	00		 call	 DWORD PTR __imp_?GetTitle@CSubGraphDataBase@@QBE?AV?$CStringT@DV?$StrTraitMFC_DLL@DV?$ChTraitsCRT@D@ATL@@@@@ATL@@XZ
  00030	b9 01 00 00 00	 mov	 ecx, 1
; File C:\Program Files (x86)\Microsoft Visual Studio\2019\Community\VC\Tools\MSVC\14.29.30133\atlmfc\include\atlsimpstr.h

; 533  : 		return( GetLength() == 0 );

  00035	8b 00		 mov	 eax, DWORD PTR [eax]
  00037	83 78 f4 00	 cmp	 DWORD PTR [eax-12], 0
; File D:\git\src\IBK\IBK_DRFN\ProjSrc\SrcChartEx\ChartOCX\ChartObject\SubGraph.cpp

; 225  : 	if(m_subGraphData.GetHiding() || m_subGraphData.GetTitle().IsEmpty())

  0003b	74 09		 je	 SHORT $LN4@GetSubGrap
  0003d	c6 45 ff 00	 mov	 BYTE PTR $T3[ebp], 0
  00041	eb 07		 jmp	 SHORT $LN5@GetSubGrap
$LN19@GetSubGrap:
  00043	8b 4d f8	 mov	 ecx, DWORD PTR $T2[ebp]
$LN4@GetSubGrap:
  00046	c6 45 ff 01	 mov	 BYTE PTR $T3[ebp], 1
$LN5@GetSubGrap:
  0004a	f6 c1 01	 test	 cl, 1
  0004d	74 09		 je	 SHORT $LN8@GetSubGrap
  0004f	8d 4d f4	 lea	 ecx, DWORD PTR $T1[ebp]
  00052	ff 15 00 00 00
	00		 call	 DWORD PTR __imp_??1?$CStringT@DV?$StrTraitMFC_DLL@DV?$ChTraitsCRT@D@ATL@@@@@ATL@@QAE@XZ
$LN8@GetSubGrap:
  00058	80 7d ff 00	 cmp	 BYTE PTR $T3[ebp], 0
  0005c	74 25		 je	 SHORT $LN2@GetSubGrap
  0005e	5e		 pop	 esi
; File C:\Program Files (x86)\Microsoft Visual Studio\2019\Community\VC\Tools\MSVC\14.29.30133\atlmfc\include\atltypes.h

; 540  : 	left = l;

  0005f	c7 03 00 00 00
	00		 mov	 DWORD PTR [ebx], 0
; File D:\git\src\IBK\IBK_DRFN\ProjSrc\SrcChartEx\ChartOCX\ChartObject\SubGraph.cpp

; 226  : 		return CRect(0, 0, 0, 0);

  00065	8b c3		 mov	 eax, ebx
; File C:\Program Files (x86)\Microsoft Visual Studio\2019\Community\VC\Tools\MSVC\14.29.30133\atlmfc\include\atltypes.h

; 541  : 	top = t;

  00067	c7 43 04 00 00
	00 00		 mov	 DWORD PTR [ebx+4], 0

; 542  : 	right = r;

  0006e	c7 43 08 00 00
	00 00		 mov	 DWORD PTR [ebx+8], 0

; 543  : 	bottom = b;

  00075	c7 43 0c 00 00
	00 00		 mov	 DWORD PTR [ebx+12], 0
; File D:\git\src\IBK\IBK_DRFN\ProjSrc\SrcChartEx\ChartOCX\ChartObject\SubGraph.cpp

; 237  : }

  0007c	5b		 pop	 ebx
  0007d	8b e5		 mov	 esp, ebp
  0007f	5d		 pop	 ebp
  00080	c2 10 00	 ret	 16			; 00000010H
$LN2@GetSubGrap:
  00083	57		 push	 edi

; 227  : 
; 228  : 	CRect titleRegion;
; 229  : 	titleRegion.left = allTitleRegion.left + preTitleEndPosition + MARGIN;

  00084	8b 7d 10	 mov	 edi, DWORD PTR _allTitleRegion$[ebp]

; 230  : 	titleRegion.top = allTitleRegion.top + MARGIN;
; 231  : 	titleRegion.right = allTitleRegion.left + m_subGraphData.GetTitleEndPosition();

  00087	8b ce		 mov	 ecx, esi
  00089	8b 35 00 00 00
	00		 mov	 esi, DWORD PTR __imp_?GetTitleEndPosition@CSubGraphDataBase@@QBEHXZ
  0008f	8b 07		 mov	 eax, DWORD PTR [edi]
  00091	89 45 f4	 mov	 DWORD PTR tv338[ebp], eax
  00094	8b 45 14	 mov	 eax, DWORD PTR _preTitleEndPosition$[ebp]
  00097	8b 00		 mov	 eax, DWORD PTR [eax]
  00099	89 45 10	 mov	 DWORD PTR tv337[ebp], eax
  0009c	8b 47 04	 mov	 eax, DWORD PTR [edi+4]
  0009f	83 c0 04	 add	 eax, 4
  000a2	89 45 f8	 mov	 DWORD PTR tv341[ebp], eax
  000a5	ff d6		 call	 esi
  000a7	8b 1f		 mov	 ebx, DWORD PTR [edi]

; 232  : 	titleRegion.bottom = allTitleRegion.bottom;
; 233  : 
; 234  : 	preTitleEndPosition = m_subGraphData.GetTitleEndPosition();

  000a9	8b 4d f0	 mov	 ecx, DWORD PTR tv332[ebp]
  000ac	03 d8		 add	 ebx, eax
  000ae	8b 7f 0c	 mov	 edi, DWORD PTR [edi+12]
  000b1	ff d6		 call	 esi
  000b3	8b 4d 14	 mov	 ecx, DWORD PTR _preTitleEndPosition$[ebp]
  000b6	89 01		 mov	 DWORD PTR [ecx], eax
  000b8	8b 4d f4	 mov	 ecx, DWORD PTR tv338[ebp]
  000bb	8b 45 10	 mov	 eax, DWORD PTR tv337[ebp]
  000be	83 c1 04	 add	 ecx, 4
  000c1	03 c1		 add	 eax, ecx

; 235  : 
; 236  : 	return titleRegion;

  000c3	8b 4d 08	 mov	 ecx, DWORD PTR ___$ReturnUdt$[ebp]
  000c6	89 01		 mov	 DWORD PTR [ecx], eax
  000c8	8b 45 f8	 mov	 eax, DWORD PTR tv341[ebp]
  000cb	89 41 04	 mov	 DWORD PTR [ecx+4], eax
  000ce	8b c1		 mov	 eax, ecx
  000d0	89 59 08	 mov	 DWORD PTR [ecx+8], ebx
  000d3	89 79 0c	 mov	 DWORD PTR [ecx+12], edi
  000d6	5f		 pop	 edi
  000d7	5e		 pop	 esi

; 237  : }

  000d8	5b		 pop	 ebx
  000d9	8b e5		 mov	 esp, ebp
  000db	5d		 pop	 ebp
  000dc	c2 10 00	 ret	 16			; 00000010H
?GetSubGraphTitleRegion@CSubGraph@@QBE?AVCRect@@PAVCDC@@ABV2@AAH@Z ENDP ; CSubGraph::GetSubGraphTitleRegion
_TEXT	ENDS
; Function compile flags: /Ogtp
; File D:\git\src\IBK\IBK_DRFN\ProjSrc\SrcChartEx\ChartOCX\ChartObject\SubGraph.cpp
;	COMDAT ?GetSubGraphStringData@CSubGraph@@QBEXAAV?$CStringT@DV?$StrTraitMFC_DLL@DV?$ChTraitsCRT@D@ATL@@@@@ATL@@@Z
_TEXT	SEGMENT
_p_strSubGraphData$ = 8					; size = 4
?GetSubGraphStringData@CSubGraph@@QBEXAAV?$CStringT@DV?$StrTraitMFC_DLL@DV?$ChTraitsCRT@D@ATL@@@@@ATL@@@Z PROC ; CSubGraph::GetSubGraphStringData, COMDAT
; _this$ = ecx

; 217  : {

  00000	55		 push	 ebp
  00001	8b ec		 mov	 ebp, esp

; 218  : 	m_subGraphData.GetStringData( p_strSubGraphData);

  00003	83 c1 0c	 add	 ecx, 12			; 0000000cH

; 219  : }

  00006	5d		 pop	 ebp

; 218  : 	m_subGraphData.GetStringData( p_strSubGraphData);

  00007	ff 25 00 00 00
	00		 jmp	 DWORD PTR __imp_?GetStringData@CSubGraphDataBase@@QBEXAAV?$CStringT@DV?$StrTraitMFC_DLL@DV?$ChTraitsCRT@D@ATL@@@@@ATL@@@Z
?GetSubGraphStringData@CSubGraph@@QBEXAAV?$CStringT@DV?$StrTraitMFC_DLL@DV?$ChTraitsCRT@D@ATL@@@@@ATL@@@Z ENDP ; CSubGraph::GetSubGraphStringData
_TEXT	ENDS
; Function compile flags: /Ogtp
; File D:\git\src\IBK\IBK_DRFN\ProjSrc\SrcChartEx\ChartOCX\ChartObject\SubGraph.cpp
;	COMDAT ?GetSubGraphPacketList@CSubGraph@@QAEAAVCSubGraphPacketList@@XZ
_TEXT	SEGMENT
?GetSubGraphPacketList@CSubGraph@@QAEAAVCSubGraphPacketList@@XZ PROC ; CSubGraph::GetSubGraphPacketList, COMDAT
; _this$ = ecx

; 212  : 	return m_subGraphPacketList;

  00000	8d 81 94 00 00
	00		 lea	 eax, DWORD PTR [ecx+148]

; 213  : }

  00006	c3		 ret	 0
?GetSubGraphPacketList@CSubGraph@@QAEAAVCSubGraphPacketList@@XZ ENDP ; CSubGraph::GetSubGraphPacketList
_TEXT	ENDS
; Function compile flags: /Ogtp
; File D:\git\src\IBK\IBK_DRFN\ProjSrc\SrcChartEx\ChartOCX\ChartObject\SubGraph.cpp
;	COMDAT ?GetSubGraphData_PointerType@CSubGraph@@QAEPAVCSubGraphData@@XZ
_TEXT	SEGMENT
?GetSubGraphData_PointerType@CSubGraph@@QAEPAVCSubGraphData@@XZ PROC ; CSubGraph::GetSubGraphData_PointerType, COMDAT
; _this$ = ecx

; 207  : 	return &m_subGraphData;

  00000	8d 41 0c	 lea	 eax, DWORD PTR [ecx+12]

; 208  : }

  00003	c3		 ret	 0
?GetSubGraphData_PointerType@CSubGraph@@QAEPAVCSubGraphData@@XZ ENDP ; CSubGraph::GetSubGraphData_PointerType
_TEXT	ENDS
; Function compile flags: /Ogtp
; File D:\git\src\IBK\IBK_DRFN\ProjSrc\SrcChartEx\ChartOCX\ChartObject\SubGraph.cpp
;	COMDAT ?GetSubGraphData@CSubGraph@@QAEAAVCSubGraphData@@XZ
_TEXT	SEGMENT
?GetSubGraphData@CSubGraph@@QAEAAVCSubGraphData@@XZ PROC ; CSubGraph::GetSubGraphData, COMDAT
; _this$ = ecx

; 202  : 	return m_subGraphData;

  00000	8d 41 0c	 lea	 eax, DWORD PTR [ecx+12]

; 203  : }

  00003	c3		 ret	 0
?GetSubGraphData@CSubGraph@@QAEAAVCSubGraphData@@XZ ENDP ; CSubGraph::GetSubGraphData
_TEXT	ENDS
; Function compile flags: /Ogtp
; File D:\git\src\IBK\IBK_DRFN\ProjSrc\SrcChartEx\ChartOCX\ChartObject\SubGraph.cpp
;	COMDAT ?GetSubGraphData@CSubGraph@@QBEABVCSubGraphData@@XZ
_TEXT	SEGMENT
?GetSubGraphData@CSubGraph@@QBEABVCSubGraphData@@XZ PROC ; CSubGraph::GetSubGraphData, COMDAT
; _this$ = ecx

; 197  : 	return m_subGraphData;

  00000	8d 41 0c	 lea	 eax, DWORD PTR [ecx+12]

; 198  : }

  00003	c3		 ret	 0
?GetSubGraphData@CSubGraph@@QBEABVCSubGraphData@@XZ ENDP ; CSubGraph::GetSubGraphData
_TEXT	ENDS
; Function compile flags: /Ogtp
; File D:\git\src\IBK\IBK_DRFN\ProjSrc\SrcChartEx\ChartOCX\ChartObject\SubGraph.cpp
;	COMDAT ?GetSubGraphList@CSubGraph@@QBEPAVCSubGraphList@@XZ
_TEXT	SEGMENT
?GetSubGraphList@CSubGraph@@QBEPAVCSubGraphList@@XZ PROC ; CSubGraph::GetSubGraphList, COMDAT
; _this$ = ecx

; 192  : 	return m_pSubGraphList;

  00000	8b 41 08	 mov	 eax, DWORD PTR [ecx+8]

; 193  : }

  00003	c3		 ret	 0
?GetSubGraphList@CSubGraph@@QBEPAVCSubGraphList@@XZ ENDP ; CSubGraph::GetSubGraphList
_TEXT	ENDS
; Function compile flags: /Ogtp
; File D:\git\src\IBK\IBK_DRFN\ProjSrc\SrcChartEx\ChartOCX\ChartObject\SubGraph.cpp
;	COMDAT ?GetGraph@CSubGraph@@QBEPAVCGraphImp@@XZ
_TEXT	SEGMENT
?GetGraph@CSubGraph@@QBEPAVCGraphImp@@XZ PROC		; CSubGraph::GetGraph, COMDAT
; _this$ = ecx

; 184  : 	if(m_pSubGraphList == NULL)

  00000	8b 49 08	 mov	 ecx, DWORD PTR [ecx+8]
  00003	85 c9		 test	 ecx, ecx
  00005	75 03		 jne	 SHORT $LN2@GetGraph

; 185  : 		return NULL;

  00007	33 c0		 xor	 eax, eax

; 188  : }

  00009	c3		 ret	 0
$LN2@GetGraph:

; 186  : 
; 187  : 	return m_pSubGraphList->GetGraph();

  0000a	e9 00 00 00 00	 jmp	 ?GetGraph@CSubGraphList@@QBEPAVCGraphImp@@XZ ; CSubGraphList::GetGraph
?GetGraph@CSubGraph@@QBEPAVCGraphImp@@XZ ENDP		; CSubGraph::GetGraph
_TEXT	ENDS
; Function compile flags: /Ogtp
; File D:\git\src\IBK\IBK_DRFN\ProjSrc\SrcChartEx\ChartOCX\ChartObject\SubGraph.cpp
;	COMDAT ?SetMainBlockBaseData@CSubGraph@@QAEXPAVCMainBlockBaseData@@@Z
_TEXT	SEGMENT
_pMainBlockBaseData$ = 8				; size = 4
?SetMainBlockBaseData@CSubGraph@@QAEXPAVCMainBlockBaseData@@@Z PROC ; CSubGraph::SetMainBlockBaseData, COMDAT
; _this$ = ecx

; 178  : {

  00000	55		 push	 ebp
  00001	8b ec		 mov	 ebp, esp

; 179  : 	m_pMainBlockBaseData = pMainBlockBaseData;

  00003	8b 45 08	 mov	 eax, DWORD PTR _pMainBlockBaseData$[ebp]
  00006	89 41 04	 mov	 DWORD PTR [ecx+4], eax

; 180  : }

  00009	5d		 pop	 ebp
  0000a	c2 04 00	 ret	 4
?SetMainBlockBaseData@CSubGraph@@QAEXPAVCMainBlockBaseData@@@Z ENDP ; CSubGraph::SetMainBlockBaseData
_TEXT	ENDS
; Function compile flags: /Ogtp
; File D:\git\src\IBK\IBK_DRFN\ProjSrc\SrcChartEx\ChartOCX\ChartObject\SubGraph.cpp
;	COMDAT ?GetHiding@CSubGraph@@QBEHXZ
_TEXT	SEGMENT
?GetHiding@CSubGraph@@QBEHXZ PROC			; CSubGraph::GetHiding, COMDAT
; _this$ = ecx

; 167  : {

  00000	56		 push	 esi
  00001	8b f1		 mov	 esi, ecx

; 168  : 	BOOL bHiding = m_subGraphData.GetHiding();

  00003	8d 4e 0c	 lea	 ecx, DWORD PTR [esi+12]
  00006	ff 15 00 00 00
	00		 call	 DWORD PTR __imp_?GetHiding@CSubGraphData@@ABE_NXZ

; 169  : 	if( bHiding) return TRUE;

  0000c	84 c0		 test	 al, al
  0000e	75 18		 jne	 SHORT $LN8@GetHiding

; 184  : 	if(m_pSubGraphList == NULL)

  00010	8b 4e 08	 mov	 ecx, DWORD PTR [esi+8]
  00013	85 c9		 test	 ecx, ecx
  00015	74 11		 je	 SHORT $LN8@GetHiding

; 185  : 		return NULL;
; 186  : 
; 187  : 	return m_pSubGraphList->GetGraph();

  00017	e8 00 00 00 00	 call	 ?GetGraph@CSubGraphList@@QBEPAVCGraphImp@@XZ ; CSubGraphList::GetGraph

; 170  : 	CGraphImp *pGraph = GetGraph();
; 171  : 	if( !pGraph) return TRUE;

  0001c	85 c0		 test	 eax, eax
  0001e	74 08		 je	 SHORT $LN8@GetHiding

; 172  : 	return pGraph->IsGraphHide();

  00020	8b 10		 mov	 edx, DWORD PTR [eax]
  00022	8b c8		 mov	 ecx, eax
  00024	5e		 pop	 esi
  00025	ff 62 18	 jmp	 DWORD PTR [edx+24]
$LN8@GetHiding:

; 170  : 	CGraphImp *pGraph = GetGraph();
; 171  : 	if( !pGraph) return TRUE;

  00028	b8 01 00 00 00	 mov	 eax, 1
  0002d	5e		 pop	 esi

; 173  : }

  0002e	c3		 ret	 0
?GetHiding@CSubGraph@@QBEHXZ ENDP			; CSubGraph::GetHiding
_TEXT	ENDS
; Function compile flags: /Ogtp
; File D:\git\src\IBK\IBK_DRFN\ProjSrc\SrcChartEx\ChartOCX\ChartObject\SubGraph.cpp
;	COMDAT ?SetHiding@CSubGraph@@QAE_N_N@Z
_TEXT	SEGMENT
_bIsHiding$ = 8						; size = 1
?SetHiding@CSubGraph@@QAE_N_N@Z PROC			; CSubGraph::SetHiding, COMDAT
; _this$ = ecx

; 145  : {

  00000	55		 push	 ebp
  00001	8b ec		 mov	 ebp, esp
  00003	56		 push	 esi
  00004	8b f1		 mov	 esi, ecx
  00006	57		 push	 edi

; 146  : 	if(m_subGraphData.GetHiding() == bIsHiding)

  00007	8d 4e 0c	 lea	 ecx, DWORD PTR [esi+12]
  0000a	ff 15 00 00 00
	00		 call	 DWORD PTR __imp_?GetHiding@CSubGraphData@@ABE_NXZ
  00010	8b 4d 08	 mov	 ecx, DWORD PTR _bIsHiding$[ebp]
  00013	3a c1		 cmp	 al, cl
  00015	75 08		 jne	 SHORT $LN2@SetHiding

; 147  : 		return false;

  00017	5f		 pop	 edi
  00018	32 c0		 xor	 al, al

; 163  : }

  0001a	5e		 pop	 esi
  0001b	5d		 pop	 ebp
  0001c	c2 04 00	 ret	 4
$LN2@SetHiding:

; 148  : 	m_subGraphData.SetHiding( bIsHiding);

  0001f	51		 push	 ecx
  00020	8d 4e 0c	 lea	 ecx, DWORD PTR [esi+12]
  00023	ff 15 00 00 00
	00		 call	 DWORD PTR __imp_?SetHiding@CSubGraphDataBase@@QAEX_N@Z

; 538  : 	if(m_subGraphData.GetHiding() || m_subGraphPacketList.GetHeadPacket() != NULL)

  00029	8d 4e 0c	 lea	 ecx, DWORD PTR [esi+12]
  0002c	ff 15 00 00 00
	00		 call	 DWORD PTR __imp_?GetHiding@CSubGraphData@@ABE_NXZ
  00032	84 c0		 test	 al, al
  00034	75 28		 jne	 SHORT $LN8@SetHiding
  00036	8d 8e 94 00 00
	00		 lea	 ecx, DWORD PTR [esi+148]
  0003c	e8 00 00 00 00	 call	 ?GetHeadPacket@CSubGraphPacketList@@QAEPAVCPacket@@XZ ; CSubGraphPacketList::GetHeadPacket
  00041	85 c0		 test	 eax, eax
  00043	75 19		 jne	 SHORT $LN8@SetHiding

; 184  : 	if(m_pSubGraphList == NULL)

  00045	8b 4e 08	 mov	 ecx, DWORD PTR [esi+8]
  00048	85 c9		 test	 ecx, ecx
  0004a	74 12		 je	 SHORT $LN8@SetHiding

; 185  : 		return NULL;
; 186  : 
; 187  : 	return m_pSubGraphList->GetGraph();

  0004c	e8 00 00 00 00	 call	 ?GetGraph@CSubGraphList@@QBEPAVCGraphImp@@XZ ; CSubGraphList::GetGraph

; 542  : 	if(pGraph != NULL)

  00051	85 c0		 test	 eax, eax
  00053	74 09		 je	 SHORT $LN8@SetHiding

; 543  : 		pGraph->Initialize_AllPackets(true);

  00055	6a 01		 push	 1
  00057	8b c8		 mov	 ecx, eax
  00059	e8 00 00 00 00	 call	 ?Initialize_AllPackets@CGraphImp@@QAEX_N@Z ; CGraphImp::Initialize_AllPackets
$LN8@SetHiding:

; 184  : 	if(m_pSubGraphList == NULL)

  0005e	8b 4e 08	 mov	 ecx, DWORD PTR [esi+8]
  00061	85 c9		 test	 ecx, ecx
  00063	74 25		 je	 SHORT $LN4@SetHiding

; 185  : 		return NULL;
; 186  : 
; 187  : 	return m_pSubGraphList->GetGraph();

  00065	e8 00 00 00 00	 call	 ?GetGraph@CSubGraphList@@QBEPAVCGraphImp@@XZ ; CSubGraphList::GetGraph

; 149  : 
; 150  : //	SendMessage_SubGraph(true);
; 151  : 	CalculateGraph();
; 152  : 
; 153  : 	// (2007/1/19 - Seung-Won, Bae) Activate Vertical Scale Group.
; 154  : 	CGraphImp *pGraph = GetGraph();
; 155  : 	if( pGraph)

  0006a	85 c0		 test	 eax, eax
  0006c	74 1c		 je	 SHORT $LN4@SetHiding

; 156  : 	{
; 157  : 		CVertScaleGroup *pVertScaleGroup = pGraph->GetVertScaleGroup();

  0006e	8b c8		 mov	 ecx, eax
  00070	e8 00 00 00 00	 call	 ?GetVertScaleGroup@CGraphImp@@QBEPAVCVertScaleGroup@@XZ ; CGraphImp::GetVertScaleGroup
  00075	8b f0		 mov	 esi, eax

; 158  : 		CVertScaleGroupList *pVertScaleGroupList = pVertScaleGroup->GetVertScaleGroupList();

  00077	8b ce		 mov	 ecx, esi
  00079	e8 00 00 00 00	 call	 ?GetVertScaleGroupList@CVertScaleGroup@@QBEPAVCVertScaleGroupList@@XZ ; CVertScaleGroup::GetVertScaleGroupList

; 159  : 		if( pVertScaleGroupList) pVertScaleGroupList->SetActivate( pVertScaleGroup);

  0007e	85 c0		 test	 eax, eax
  00080	74 08		 je	 SHORT $LN4@SetHiding
  00082	56		 push	 esi
  00083	8b c8		 mov	 ecx, eax
  00085	e8 00 00 00 00	 call	 ?SetActivate@CVertScaleGroupList@@QAEXPAVCVertScaleGroup@@@Z ; CVertScaleGroupList::SetActivate
$LN4@SetHiding:

; 160  : 	}
; 161  : 
; 162  : 	return true;

  0008a	5f		 pop	 edi
  0008b	b0 01		 mov	 al, 1

; 163  : }

  0008d	5e		 pop	 esi
  0008e	5d		 pop	 ebp
  0008f	c2 04 00	 ret	 4
?SetHiding@CSubGraph@@QAE_N_N@Z ENDP			; CSubGraph::SetHiding
_TEXT	ENDS
; Function compile flags: /Ogtp
; File D:\git\src\IBK\IBK_DRFN\ProjSrc\SrcChartEx\ChartOCX\ChartObject\SubGraph.cpp
;	COMDAT ?SetSubGraphData@CSubGraph@@QAEXABVCSubGraphData@@_N@Z
_TEXT	SEGMENT
_sourceSubGraphData$ = 8				; size = 4
_bIsAllChange$ = 12					; size = 1
?SetSubGraphData@CSubGraph@@QAEXABVCSubGraphData@@_N@Z PROC ; CSubGraph::SetSubGraphData, COMDAT
; _this$ = ecx

; 137  : {

  00000	55		 push	 ebp
  00001	8b ec		 mov	 ebp, esp

; 138  : 	if(bIsAllChange)

  00003	ff 75 08	 push	 DWORD PTR _sourceSubGraphData$[ebp]
  00006	83 c1 0c	 add	 ecx, 12			; 0000000cH
  00009	80 7d 0c 00	 cmp	 BYTE PTR _bIsAllChange$[ebp], 0
  0000d	74 0a		 je	 SHORT $LN2@SetSubGrap

; 139  : 		m_subGraphData = sourceSubGraphData;

  0000f	ff 15 00 00 00
	00		 call	 DWORD PTR __imp_??4CSubGraphData@@QAEAAV0@ABV0@@Z

; 142  : }

  00015	5d		 pop	 ebp
  00016	c2 08 00	 ret	 8
$LN2@SetSubGrap:

; 140  : 	else
; 141  : 		m_subGraphData.ChangeKeyPart(sourceSubGraphData);

  00019	ff 15 00 00 00
	00		 call	 DWORD PTR __imp_?ChangeKeyPart@CSubGraphDataBase@@QAEXABV1@@Z

; 142  : }

  0001f	5d		 pop	 ebp
  00020	c2 08 00	 ret	 8
?SetSubGraphData@CSubGraph@@QAEXABVCSubGraphData@@_N@Z ENDP ; CSubGraph::SetSubGraphData
_TEXT	ENDS
; Function compile flags: /Ogtp
; File D:\git\src\IBK\IBK_DRFN\ProjSrc\SrcChartEx\ChartOCX\ChartObject\SubGraph.cpp
;	COMDAT ?SetSubGraphList@CSubGraph@@QAEXPAVCSubGraphList@@@Z
_TEXT	SEGMENT
_pSubGraphList$ = 8					; size = 4
?SetSubGraphList@CSubGraph@@QAEXPAVCSubGraphList@@@Z PROC ; CSubGraph::SetSubGraphList, COMDAT
; _this$ = ecx

; 132  : {

  00000	55		 push	 ebp
  00001	8b ec		 mov	 ebp, esp

; 133  : 	m_pSubGraphList = pSubGraphList;

  00003	8b 45 08	 mov	 eax, DWORD PTR _pSubGraphList$[ebp]
  00006	89 41 08	 mov	 DWORD PTR [ecx+8], eax

; 134  : }

  00009	5d		 pop	 ebp
  0000a	c2 04 00	 ret	 4
?SetSubGraphList@CSubGraph@@QAEXPAVCSubGraphList@@@Z ENDP ; CSubGraph::SetSubGraphList
_TEXT	ENDS
; Function compile flags: /Ogtp
; File D:\git\src\IBK\IBK_DRFN\ProjSrc\SrcChartEx\ChartOCX\ChartObject\SubGraph.cpp
;	COMDAT ?ClearAllPackets@CSubGraph@@QAEX_N@Z
_TEXT	SEGMENT
_pos$ = -4						; size = 4
_bIsOnlyNoTRData$ = 8					; size = 1
?ClearAllPackets@CSubGraph@@QAEX_N@Z PROC		; CSubGraph::ClearAllPackets, COMDAT
; _this$ = ecx

; 112  : {

  00000	55		 push	 ebp
  00001	8b ec		 mov	 ebp, esp
  00003	51		 push	 ecx
  00004	56		 push	 esi
  00005	8b f1		 mov	 esi, ecx

; 113  : 	if(m_pMainBlockBaseData == NULL)

  00007	8b 4e 04	 mov	 ecx, DWORD PTR [esi+4]
  0000a	85 c9		 test	 ecx, ecx
  0000c	74 4e		 je	 SHORT $LN1@ClearAllPa

; 114  : 		return;
; 115  : 
; 116  : 	CPacketList* pPacketList = m_pMainBlockBaseData->GetPacketList();

  0000e	57		 push	 edi
  0000f	e8 00 00 00 00	 call	 ?GetPacketList@CMainBlockBaseData@@QBEPAVCPacketList@@XZ ; CMainBlockBaseData::GetPacketList
  00014	8b f8		 mov	 edi, eax

; 117  : 	if(pPacketList == NULL)

  00016	85 ff		 test	 edi, edi
  00018	74 41		 je	 SHORT $LN13@ClearAllPa

; 118  : 		return;
; 119  : 
; 120  : 	POSITION pos = m_subGraphPacketList.GetHeadPosition();

  0001a	81 c6 94 00 00
	00		 add	 esi, 148		; 00000094H
  00020	8b ce		 mov	 ecx, esi
  00022	e8 00 00 00 00	 call	 ?GetHeadPosition@CSubGraphPacketList@@QAEPAU__POSITION@@XZ ; CSubGraphPacketList::GetHeadPosition
  00027	89 45 fc	 mov	 DWORD PTR _pos$[ebp], eax

; 121  : 	while(pos != NULL){

  0002a	85 c0		 test	 eax, eax
  0002c	74 26		 je	 SHORT $LN3@ClearAllPa
  0002e	53		 push	 ebx
  0002f	8b 5d 08	 mov	 ebx, DWORD PTR _bIsOnlyNoTRData$[ebp]
$LL2@ClearAllPa:

; 122  : 		CPacket* pPacket = m_subGraphPacketList.GetNext(pos);

  00032	8d 45 fc	 lea	 eax, DWORD PTR _pos$[ebp]
  00035	8b ce		 mov	 ecx, esi
  00037	50		 push	 eax
  00038	e8 00 00 00 00	 call	 ?GetNext@CSubGraphPacketList@@QAEPAVCPacket@@AAPAU__POSITION@@@Z ; CSubGraphPacketList::GetNext

; 123  : 		if(pPacket == NULL)

  0003d	85 c0		 test	 eax, eax
  0003f	74 0c		 je	 SHORT $LN10@ClearAllPa

; 124  : 			continue;
; 125  : 		pPacketList->DeleteOrClearPacket(pPacket, false, bIsOnlyNoTRData);

  00041	53		 push	 ebx
  00042	6a 00		 push	 0
  00044	50		 push	 eax
  00045	8b cf		 mov	 ecx, edi
  00047	ff 15 00 00 00
	00		 call	 DWORD PTR __imp_?DeleteOrClearPacket@CPacketList@@QAE_NPAVCPacket@@_N1@Z
$LN10@ClearAllPa:

; 121  : 	while(pos != NULL){

  0004d	83 7d fc 00	 cmp	 DWORD PTR _pos$[ebp], 0
  00051	75 df		 jne	 SHORT $LL2@ClearAllPa
  00053	5b		 pop	 ebx
$LN3@ClearAllPa:

; 126  : 	}
; 127  : 	m_subGraphPacketList.RemoveAll();

  00054	8b ce		 mov	 ecx, esi
  00056	e8 00 00 00 00	 call	 ?RemoveAll@CSubGraphPacketList@@QAEXXZ ; CSubGraphPacketList::RemoveAll
$LN13@ClearAllPa:
  0005b	5f		 pop	 edi
$LN1@ClearAllPa:
  0005c	5e		 pop	 esi

; 128  : }

  0005d	8b e5		 mov	 esp, ebp
  0005f	5d		 pop	 ebp
  00060	c2 04 00	 ret	 4
?ClearAllPackets@CSubGraph@@QAEX_N@Z ENDP		; CSubGraph::ClearAllPackets
_TEXT	ENDS
; Function compile flags: /Ogtp
; File D:\git\src\IBK\IBK_DRFN\ProjSrc\SrcChartEx\ChartOCX\ChartObject\SubGraph.cpp
;	COMDAT ?DeleteAllPackets@CSubGraph@@QAEX_N@Z
_TEXT	SEGMENT
_pos$ = -4						; size = 4
_bIsOnlyNoTRData$ = 8					; size = 1
?DeleteAllPackets@CSubGraph@@QAEX_N@Z PROC		; CSubGraph::DeleteAllPackets, COMDAT
; _this$ = ecx

; 93   : {

  00000	55		 push	 ebp
  00001	8b ec		 mov	 ebp, esp
  00003	51		 push	 ecx
  00004	56		 push	 esi
  00005	8b f1		 mov	 esi, ecx

; 94   : 	if(m_pMainBlockBaseData == NULL)

  00007	8b 4e 04	 mov	 ecx, DWORD PTR [esi+4]
  0000a	85 c9		 test	 ecx, ecx
  0000c	74 4e		 je	 SHORT $LN1@DeleteAllP

; 95   : 		return;
; 96   : 
; 97   : 	CPacketList* pPacketList = m_pMainBlockBaseData->GetPacketList();

  0000e	57		 push	 edi
  0000f	e8 00 00 00 00	 call	 ?GetPacketList@CMainBlockBaseData@@QBEPAVCPacketList@@XZ ; CMainBlockBaseData::GetPacketList
  00014	8b f8		 mov	 edi, eax

; 98   : 	if(pPacketList == NULL)

  00016	85 ff		 test	 edi, edi
  00018	74 41		 je	 SHORT $LN13@DeleteAllP

; 99   : 		return;
; 100  : 
; 101  : 	POSITION pos = m_subGraphPacketList.GetHeadPosition();

  0001a	81 c6 94 00 00
	00		 add	 esi, 148		; 00000094H
  00020	8b ce		 mov	 ecx, esi
  00022	e8 00 00 00 00	 call	 ?GetHeadPosition@CSubGraphPacketList@@QAEPAU__POSITION@@XZ ; CSubGraphPacketList::GetHeadPosition
  00027	89 45 fc	 mov	 DWORD PTR _pos$[ebp], eax

; 102  : 	while(pos != NULL){

  0002a	85 c0		 test	 eax, eax
  0002c	74 26		 je	 SHORT $LN3@DeleteAllP
  0002e	53		 push	 ebx
  0002f	8b 5d 08	 mov	 ebx, DWORD PTR _bIsOnlyNoTRData$[ebp]
$LL2@DeleteAllP:

; 103  : 		CPacket* pPacket = m_subGraphPacketList.GetNext(pos);

  00032	8d 45 fc	 lea	 eax, DWORD PTR _pos$[ebp]
  00035	8b ce		 mov	 ecx, esi
  00037	50		 push	 eax
  00038	e8 00 00 00 00	 call	 ?GetNext@CSubGraphPacketList@@QAEPAVCPacket@@AAPAU__POSITION@@@Z ; CSubGraphPacketList::GetNext

; 104  : 		if(pPacket == NULL)

  0003d	85 c0		 test	 eax, eax
  0003f	74 0c		 je	 SHORT $LN10@DeleteAllP

; 105  : 			continue;
; 106  : 		pPacketList->DeleteOrClearPacket(pPacket, true, bIsOnlyNoTRData);

  00041	53		 push	 ebx
  00042	6a 01		 push	 1
  00044	50		 push	 eax
  00045	8b cf		 mov	 ecx, edi
  00047	ff 15 00 00 00
	00		 call	 DWORD PTR __imp_?DeleteOrClearPacket@CPacketList@@QAE_NPAVCPacket@@_N1@Z
$LN10@DeleteAllP:

; 102  : 	while(pos != NULL){

  0004d	83 7d fc 00	 cmp	 DWORD PTR _pos$[ebp], 0
  00051	75 df		 jne	 SHORT $LL2@DeleteAllP
  00053	5b		 pop	 ebx
$LN3@DeleteAllP:

; 107  : 	}
; 108  : 	m_subGraphPacketList.RemoveAll();

  00054	8b ce		 mov	 ecx, esi
  00056	e8 00 00 00 00	 call	 ?RemoveAll@CSubGraphPacketList@@QAEXXZ ; CSubGraphPacketList::RemoveAll
$LN13@DeleteAllP:
  0005b	5f		 pop	 edi
$LN1@DeleteAllP:
  0005c	5e		 pop	 esi

; 109  : }

  0005d	8b e5		 mov	 esp, ebp
  0005f	5d		 pop	 ebp
  00060	c2 04 00	 ret	 4
?DeleteAllPackets@CSubGraph@@QAEX_N@Z ENDP		; CSubGraph::DeleteAllPackets
_TEXT	ENDS
; Function compile flags: /Ogtp
; File D:\git\src\IBK\IBK_DRFN\ProjSrc\SrcChartEx\ChartOCX\ChartObject\SubGraph.cpp
;	COMDAT ?Delete@CSubGraph@@QAEXXZ
_TEXT	SEGMENT
?Delete@CSubGraph@@QAEXXZ PROC				; CSubGraph::Delete, COMDAT
; _this$ = ecx

; 59   : 	delete pSubGraph;

  00000	85 c9		 test	 ecx, ecx
  00002	74 07		 je	 SHORT $LN5@Delete
  00004	8b 01		 mov	 eax, DWORD PTR [ecx]
  00006	6a 01		 push	 1
  00008	ff 50 04	 call	 DWORD PTR [eax+4]
$LN5@Delete:

; 87   : //	SendMessage_SubGraph(false);
; 88   : 	CSubGraph::Delete(this);
; 89   : }

  0000b	c3		 ret	 0
?Delete@CSubGraph@@QAEXXZ ENDP				; CSubGraph::Delete
_TEXT	ENDS
; Function compile flags: /Ogtp
; File D:\git\src\IBK\IBK_DRFN\ProjSrc\SrcChartEx\ChartOCX\ChartObject\SubGraph.cpp
; File C:\Program Files (x86)\Microsoft Visual Studio\2019\Community\VC\Tools\MSVC\14.29.30133\atlmfc\include\afxtempl.h
; File D:\git\src\IBK\IBK_DRFN\ProjSrc\SrcChartEx\ChartOCX\ChartObject\SubGraph.cpp
;	COMDAT ??0CSubGraph@@QAE@PAVCMainBlockBaseData@@PAVCSubGraphList@@W4GRAPHTYPE@CGraphBaseData@@ABVCGraphStyle@@ABVCGraphDrawStyle@@ABV?$CStringT@DV?$StrTraitMFC_DLL@DV?$ChTraitsCRT@D@ATL@@@@@ATL@@5_NABVCGraphColor@@ABVCPenThickness@@ABVCGraphPaintStyle@@ABVCGraphBaseLineStyle@@@Z
_TEXT	SEGMENT
_this$ = -16						; size = 4
__$EHRec$ = -12						; size = 12
_pMainBlockBaseData$ = 8				; size = 4
_pSubGraphList$ = 12					; size = 4
_type$ = 16						; size = 4
_style$ = 20						; size = 4
_drawStyle$ = 24					; size = 4
_name$ = 28						; size = 4
_title$ = 32						; size = 4
_hiding$ = 36						; size = 1
_color$ = 40						; size = 4
_penThickness$ = 44					; size = 4
_paintStyle$ = 48					; size = 4
_baseLineStyle$ = 52					; size = 4
??0CSubGraph@@QAE@PAVCMainBlockBaseData@@PAVCSubGraphList@@W4GRAPHTYPE@CGraphBaseData@@ABVCGraphStyle@@ABVCGraphDrawStyle@@ABV?$CStringT@DV?$StrTraitMFC_DLL@DV?$ChTraitsCRT@D@ATL@@@@@ATL@@5_NABVCGraphColor@@ABVCPenThickness@@ABVCGraphPaintStyle@@ABVCGraphBaseLineStyle@@@Z PROC ; CSubGraph::CSubGraph, COMDAT
; _this$ = ecx

; 80   : {

  00000	55		 push	 ebp
  00001	8b ec		 mov	 ebp, esp
  00003	6a ff		 push	 -1
  00005	68 00 00 00 00	 push	 __ehhandler$??0CSubGraph@@QAE@PAVCMainBlockBaseData@@PAVCSubGraphList@@W4GRAPHTYPE@CGraphBaseData@@ABVCGraphStyle@@ABVCGraphDrawStyle@@ABV?$CStringT@DV?$StrTraitMFC_DLL@DV?$ChTraitsCRT@D@ATL@@@@@ATL@@5_NABVCGraphColor@@ABVCPenThickness@@ABVCGraphPaintStyle@@ABVCGraphBaseLineStyle@@@Z
  0000a	64 a1 00 00 00
	00		 mov	 eax, DWORD PTR fs:0
  00010	50		 push	 eax
  00011	51		 push	 ecx
  00012	56		 push	 esi
  00013	a1 00 00 00 00	 mov	 eax, DWORD PTR ___security_cookie
  00018	33 c5		 xor	 eax, ebp
  0001a	50		 push	 eax
  0001b	8d 45 f4	 lea	 eax, DWORD PTR __$EHRec$[ebp]
  0001e	64 a3 00 00 00
	00		 mov	 DWORD PTR fs:0, eax
  00024	8b f1		 mov	 esi, ecx
  00026	89 75 f0	 mov	 DWORD PTR _this$[ebp], esi

; 78   : 	m_subGraphData(type, style, drawStyle, name, title, hiding, color, penThickness, paintStyle, baseLineStyle),	// Singbar Graph    - ojtaso (20071121)

  00029	ff 75 34	 push	 DWORD PTR _baseLineStyle$[ebp]
  0002c	8b 45 08	 mov	 eax, DWORD PTR _pMainBlockBaseData$[ebp]
  0002f	8d 4e 0c	 lea	 ecx, DWORD PTR [esi+12]
  00032	ff 75 30	 push	 DWORD PTR _paintStyle$[ebp]
  00035	89 46 04	 mov	 DWORD PTR [esi+4], eax
  00038	ff 75 2c	 push	 DWORD PTR _penThickness$[ebp]
  0003b	8b 45 0c	 mov	 eax, DWORD PTR _pSubGraphList$[ebp]
  0003e	ff 75 28	 push	 DWORD PTR _color$[ebp]
  00041	c7 06 00 00 00
	00		 mov	 DWORD PTR [esi], OFFSET ??_7CSubGraph@@6B@
  00047	ff 75 24	 push	 DWORD PTR _hiding$[ebp]
  0004a	89 46 08	 mov	 DWORD PTR [esi+8], eax
  0004d	ff 75 20	 push	 DWORD PTR _title$[ebp]
  00050	ff 75 1c	 push	 DWORD PTR _name$[ebp]
  00053	ff 75 18	 push	 DWORD PTR _drawStyle$[ebp]
  00056	ff 75 14	 push	 DWORD PTR _style$[ebp]
  00059	ff 75 10	 push	 DWORD PTR _type$[ebp]
  0005c	ff 15 00 00 00
	00		 call	 DWORD PTR __imp_??0CSubGraphData@@QAE@W4GRAPHTYPE@CGraphBaseData@@ABVCGraphStyle@@ABVCGraphDrawStyle@@ABV?$CStringT@DV?$StrTraitMFC_DLL@DV?$ChTraitsCRT@D@ATL@@@@@ATL@@3_NABVCGraphColor@@ABVCPenThickness@@ABVCGraphPaintStyle@@ABVCGraphBaseLineStyle@@@Z
  00062	c7 45 fc 00 00
	00 00		 mov	 DWORD PTR __$EHRec$[ebp+8], 0
; File C:\Program Files (x86)\Microsoft Visual Studio\2019\Community\VC\Tools\MSVC\14.29.30133\atlmfc\include\afxtempl.h

; 851  : {

  00069	c7 86 94 00 00
	00 00 00 00 00	 mov	 DWORD PTR [esi+148], OFFSET ??_7?$CList@PAVCPacket@@PAV1@@@6B@

; 852  : 	ASSERT(nBlockSize > 0);
; 853  : 
; 854  : 	m_nCount = 0;

  00073	c7 86 a0 00 00
	00 00 00 00 00	 mov	 DWORD PTR [esi+160], 0

; 855  : 	m_pNodeHead = m_pNodeTail = m_pNodeFree = NULL;

  0007d	c7 86 a4 00 00
	00 00 00 00 00	 mov	 DWORD PTR [esi+164], 0
  00087	c7 86 9c 00 00
	00 00 00 00 00	 mov	 DWORD PTR [esi+156], 0
  00091	c7 86 98 00 00
	00 00 00 00 00	 mov	 DWORD PTR [esi+152], 0

; 856  : 	m_pBlocks = NULL;

  0009b	c7 86 a8 00 00
	00 00 00 00 00	 mov	 DWORD PTR [esi+168], 0

; 857  : 	m_nBlockSize = nBlockSize;

  000a5	c7 86 ac 00 00
	00 0a 00 00 00	 mov	 DWORD PTR [esi+172], 10	; 0000000aH
; File D:\git\src\IBK\IBK_DRFN\ProjSrc\SrcChartEx\ChartOCX\ChartObject\SubGraph.cpp

; 80   : {

  000af	8d 8e b0 00 00
	00		 lea	 ecx, DWORD PTR [esi+176]
  000b5	c6 45 fc 01	 mov	 BYTE PTR __$EHRec$[ebp+8], 1
  000b9	ff 15 00 00 00
	00		 call	 DWORD PTR __imp_??0CDisplayDataMinMax@@QAE@XZ

; 79   : 	m_nVerticalScaleMaxWidth(-1)

  000bf	c7 86 c0 00 00
	00 ff ff ff ff	 mov	 DWORD PTR [esi+192], -1

; 81   : //	SendMessage_SubGraph(true);
; 82   : }

  000c9	8b c6		 mov	 eax, esi
  000cb	8b 4d f4	 mov	 ecx, DWORD PTR __$EHRec$[ebp]
  000ce	64 89 0d 00 00
	00 00		 mov	 DWORD PTR fs:0, ecx
  000d5	59		 pop	 ecx
  000d6	5e		 pop	 esi
  000d7	8b e5		 mov	 esp, ebp
  000d9	5d		 pop	 ebp
  000da	c2 30 00	 ret	 48			; 00000030H
_TEXT	ENDS
;	COMDAT text$x
text$x	SEGMENT
__unwindfunclet$??0CSubGraph@@QAE@PAVCMainBlockBaseData@@PAVCSubGraphList@@W4GRAPHTYPE@CGraphBaseData@@ABVCGraphStyle@@ABVCGraphDrawStyle@@ABV?$CStringT@DV?$StrTraitMFC_DLL@DV?$ChTraitsCRT@D@ATL@@@@@ATL@@5_NABVCGraphColor@@ABVCPenThickness@@ABVCGraphPaintStyle@@ABVCGraphBaseLineStyle@@@Z$0:
  00000	8b 4d f0	 mov	 ecx, DWORD PTR _this$[ebp]
  00003	83 c1 0c	 add	 ecx, 12			; 0000000cH
  00006	ff 25 00 00 00
	00		 jmp	 DWORD PTR __imp_??1CSubGraphData@@QAE@XZ
__unwindfunclet$??0CSubGraph@@QAE@PAVCMainBlockBaseData@@PAVCSubGraphList@@W4GRAPHTYPE@CGraphBaseData@@ABVCGraphStyle@@ABVCGraphDrawStyle@@ABV?$CStringT@DV?$StrTraitMFC_DLL@DV?$ChTraitsCRT@D@ATL@@@@@ATL@@5_NABVCGraphColor@@ABVCPenThickness@@ABVCGraphPaintStyle@@ABVCGraphBaseLineStyle@@@Z$1:
  0000c	8b 4d f0	 mov	 ecx, DWORD PTR _this$[ebp]
  0000f	81 c1 94 00 00
	00		 add	 ecx, 148		; 00000094H
  00015	e9 00 00 00 00	 jmp	 ??1CSubGraphPacketList@@QAE@XZ
  0001a	cc		 int	 3
  0001b	cc		 int	 3
  0001c	cc		 int	 3
  0001d	cc		 int	 3
  0001e	cc		 int	 3
__ehhandler$??0CSubGraph@@QAE@PAVCMainBlockBaseData@@PAVCSubGraphList@@W4GRAPHTYPE@CGraphBaseData@@ABVCGraphStyle@@ABVCGraphDrawStyle@@ABV?$CStringT@DV?$StrTraitMFC_DLL@DV?$ChTraitsCRT@D@ATL@@@@@ATL@@5_NABVCGraphColor@@ABVCPenThickness@@ABVCGraphPaintStyle@@ABVCGraphBaseLineStyle@@@Z:
  0001f	90		 npad	 1
  00020	90		 npad	 1
  00021	8b 54 24 08	 mov	 edx, DWORD PTR [esp+8]
  00025	8d 42 0c	 lea	 eax, DWORD PTR [edx+12]
  00028	8b 4a f4	 mov	 ecx, DWORD PTR [edx-12]
  0002b	33 c8		 xor	 ecx, eax
  0002d	e8 00 00 00 00	 call	 @__security_check_cookie@4
  00032	b8 00 00 00 00	 mov	 eax, OFFSET __ehfuncinfo$??0CSubGraph@@QAE@PAVCMainBlockBaseData@@PAVCSubGraphList@@W4GRAPHTYPE@CGraphBaseData@@ABVCGraphStyle@@ABVCGraphDrawStyle@@ABV?$CStringT@DV?$StrTraitMFC_DLL@DV?$ChTraitsCRT@D@ATL@@@@@ATL@@5_NABVCGraphColor@@ABVCPenThickness@@ABVCGraphPaintStyle@@ABVCGraphBaseLineStyle@@@Z
  00037	e9 00 00 00 00	 jmp	 ___CxxFrameHandler3
text$x	ENDS
??0CSubGraph@@QAE@PAVCMainBlockBaseData@@PAVCSubGraphList@@W4GRAPHTYPE@CGraphBaseData@@ABVCGraphStyle@@ABVCGraphDrawStyle@@ABV?$CStringT@DV?$StrTraitMFC_DLL@DV?$ChTraitsCRT@D@ATL@@@@@ATL@@5_NABVCGraphColor@@ABVCPenThickness@@ABVCGraphPaintStyle@@ABVCGraphBaseLineStyle@@@Z ENDP ; CSubGraph::CSubGraph
; Function compile flags: /Ogtp
; File D:\git\src\IBK\IBK_DRFN\ProjSrc\SrcChartEx\ChartOCX\ChartObject\SubGraph.cpp
; File C:\Program Files (x86)\Microsoft Visual Studio\2019\Community\VC\Tools\MSVC\14.29.30133\atlmfc\include\afxtempl.h
; File D:\git\src\IBK\IBK_DRFN\ProjSrc\SrcChartEx\ChartOCX\ChartObject\SubGraph.cpp
;	COMDAT ??0CSubGraph@@QAE@PAVCMainBlockBaseData@@PAVCSubGraphList@@ABVCSubGraphData@@@Z
_TEXT	SEGMENT
_this$ = -16						; size = 4
__$EHRec$ = -12						; size = 12
_pMainBlockBaseData$ = 8				; size = 4
_pSubGraphList$ = 12					; size = 4
_subGraphData$ = 16					; size = 4
??0CSubGraph@@QAE@PAVCMainBlockBaseData@@PAVCSubGraphList@@ABVCSubGraphData@@@Z PROC ; CSubGraph::CSubGraph, COMDAT
; _this$ = ecx

; 69   : {

  00000	55		 push	 ebp
  00001	8b ec		 mov	 ebp, esp
  00003	6a ff		 push	 -1
  00005	68 00 00 00 00	 push	 __ehhandler$??0CSubGraph@@QAE@PAVCMainBlockBaseData@@PAVCSubGraphList@@ABVCSubGraphData@@@Z
  0000a	64 a1 00 00 00
	00		 mov	 eax, DWORD PTR fs:0
  00010	50		 push	 eax
  00011	51		 push	 ecx
  00012	56		 push	 esi
  00013	a1 00 00 00 00	 mov	 eax, DWORD PTR ___security_cookie
  00018	33 c5		 xor	 eax, ebp
  0001a	50		 push	 eax
  0001b	8d 45 f4	 lea	 eax, DWORD PTR __$EHRec$[ebp]
  0001e	64 a3 00 00 00
	00		 mov	 DWORD PTR fs:0, eax
  00024	8b f1		 mov	 esi, ecx
  00026	89 75 f0	 mov	 DWORD PTR _this$[ebp], esi

; 65   : 	m_pMainBlockBaseData(pMainBlockBaseData),

  00029	8b 45 08	 mov	 eax, DWORD PTR _pMainBlockBaseData$[ebp]

; 66   : 	m_pSubGraphList(pSubGraphList),
; 67   : 	m_subGraphData(subGraphData),

  0002c	8d 4e 0c	 lea	 ecx, DWORD PTR [esi+12]
  0002f	ff 75 10	 push	 DWORD PTR _subGraphData$[ebp]
  00032	89 46 04	 mov	 DWORD PTR [esi+4], eax
  00035	8b 45 0c	 mov	 eax, DWORD PTR _pSubGraphList$[ebp]
  00038	c7 06 00 00 00
	00		 mov	 DWORD PTR [esi], OFFSET ??_7CSubGraph@@6B@
  0003e	89 46 08	 mov	 DWORD PTR [esi+8], eax
  00041	ff 15 00 00 00
	00		 call	 DWORD PTR __imp_??0CSubGraphData@@QAE@ABV0@@Z
  00047	c7 45 fc 00 00
	00 00		 mov	 DWORD PTR __$EHRec$[ebp+8], 0
; File C:\Program Files (x86)\Microsoft Visual Studio\2019\Community\VC\Tools\MSVC\14.29.30133\atlmfc\include\afxtempl.h

; 851  : {

  0004e	c7 86 94 00 00
	00 00 00 00 00	 mov	 DWORD PTR [esi+148], OFFSET ??_7?$CList@PAVCPacket@@PAV1@@@6B@

; 852  : 	ASSERT(nBlockSize > 0);
; 853  : 
; 854  : 	m_nCount = 0;

  00058	c7 86 a0 00 00
	00 00 00 00 00	 mov	 DWORD PTR [esi+160], 0

; 855  : 	m_pNodeHead = m_pNodeTail = m_pNodeFree = NULL;

  00062	c7 86 a4 00 00
	00 00 00 00 00	 mov	 DWORD PTR [esi+164], 0
  0006c	c7 86 9c 00 00
	00 00 00 00 00	 mov	 DWORD PTR [esi+156], 0
  00076	c7 86 98 00 00
	00 00 00 00 00	 mov	 DWORD PTR [esi+152], 0

; 856  : 	m_pBlocks = NULL;

  00080	c7 86 a8 00 00
	00 00 00 00 00	 mov	 DWORD PTR [esi+168], 0

; 857  : 	m_nBlockSize = nBlockSize;

  0008a	c7 86 ac 00 00
	00 0a 00 00 00	 mov	 DWORD PTR [esi+172], 10	; 0000000aH
; File D:\git\src\IBK\IBK_DRFN\ProjSrc\SrcChartEx\ChartOCX\ChartObject\SubGraph.cpp

; 69   : {

  00094	8d 8e b0 00 00
	00		 lea	 ecx, DWORD PTR [esi+176]
  0009a	c6 45 fc 01	 mov	 BYTE PTR __$EHRec$[ebp+8], 1
  0009e	ff 15 00 00 00
	00		 call	 DWORD PTR __imp_??0CDisplayDataMinMax@@QAE@XZ

; 68   : 	m_nVerticalScaleMaxWidth(-1)

  000a4	c7 86 c0 00 00
	00 ff ff ff ff	 mov	 DWORD PTR [esi+192], -1

; 70   : //	SendMessage_SubGraph(true);
; 71   : }

  000ae	8b c6		 mov	 eax, esi
  000b0	8b 4d f4	 mov	 ecx, DWORD PTR __$EHRec$[ebp]
  000b3	64 89 0d 00 00
	00 00		 mov	 DWORD PTR fs:0, ecx
  000ba	59		 pop	 ecx
  000bb	5e		 pop	 esi
  000bc	8b e5		 mov	 esp, ebp
  000be	5d		 pop	 ebp
  000bf	c2 0c 00	 ret	 12			; 0000000cH
_TEXT	ENDS
;	COMDAT text$x
text$x	SEGMENT
__unwindfunclet$??0CSubGraph@@QAE@PAVCMainBlockBaseData@@PAVCSubGraphList@@ABVCSubGraphData@@@Z$0:
  00000	8b 4d f0	 mov	 ecx, DWORD PTR _this$[ebp]
  00003	83 c1 0c	 add	 ecx, 12			; 0000000cH
  00006	ff 25 00 00 00
	00		 jmp	 DWORD PTR __imp_??1CSubGraphData@@QAE@XZ
__unwindfunclet$??0CSubGraph@@QAE@PAVCMainBlockBaseData@@PAVCSubGraphList@@ABVCSubGraphData@@@Z$1:
  0000c	8b 4d f0	 mov	 ecx, DWORD PTR _this$[ebp]
  0000f	81 c1 94 00 00
	00		 add	 ecx, 148		; 00000094H
  00015	e9 00 00 00 00	 jmp	 ??1CSubGraphPacketList@@QAE@XZ
  0001a	cc		 int	 3
  0001b	cc		 int	 3
  0001c	cc		 int	 3
  0001d	cc		 int	 3
  0001e	cc		 int	 3
__ehhandler$??0CSubGraph@@QAE@PAVCMainBlockBaseData@@PAVCSubGraphList@@ABVCSubGraphData@@@Z:
  0001f	90		 npad	 1
  00020	90		 npad	 1
  00021	8b 54 24 08	 mov	 edx, DWORD PTR [esp+8]
  00025	8d 42 0c	 lea	 eax, DWORD PTR [edx+12]
  00028	8b 4a f4	 mov	 ecx, DWORD PTR [edx-12]
  0002b	33 c8		 xor	 ecx, eax
  0002d	e8 00 00 00 00	 call	 @__security_check_cookie@4
  00032	b8 00 00 00 00	 mov	 eax, OFFSET __ehfuncinfo$??0CSubGraph@@QAE@PAVCMainBlockBaseData@@PAVCSubGraphList@@ABVCSubGraphData@@@Z
  00037	e9 00 00 00 00	 jmp	 ___CxxFrameHandler3
text$x	ENDS
??0CSubGraph@@QAE@PAVCMainBlockBaseData@@PAVCSubGraphList@@ABVCSubGraphData@@@Z ENDP ; CSubGraph::CSubGraph
; Function compile flags: /Ogtp
; File D:\git\src\IBK\IBK_DRFN\ProjSrc\SrcChartEx\ChartOCX\ChartObject\SubGraph.cpp
;	COMDAT ?Delete@CSubGraph@@SAXPAV1@@Z
_TEXT	SEGMENT
_pSubGraph$ = 8						; size = 4
?Delete@CSubGraph@@SAXPAV1@@Z PROC			; CSubGraph::Delete, COMDAT

; 58   : {

  00000	55		 push	 ebp
  00001	8b ec		 mov	 ebp, esp

; 59   : 	delete pSubGraph;

  00003	8b 4d 08	 mov	 ecx, DWORD PTR _pSubGraph$[ebp]
  00006	85 c9		 test	 ecx, ecx
  00008	74 07		 je	 SHORT $LN3@Delete
  0000a	8b 01		 mov	 eax, DWORD PTR [ecx]
  0000c	6a 01		 push	 1
  0000e	ff 50 04	 call	 DWORD PTR [eax+4]
$LN3@Delete:

; 60   : }

  00011	5d		 pop	 ebp
  00012	c3		 ret	 0
?Delete@CSubGraph@@SAXPAV1@@Z ENDP			; CSubGraph::Delete
_TEXT	ENDS
; Function compile flags: /Ogtp
; File D:\git\src\IBK\IBK_DRFN\ProjSrc\SrcChartEx\ChartOCX\ChartObject\SubGraph.cpp
; File C:\Program Files (x86)\Microsoft Visual Studio\2019\Community\VC\Tools\MSVC\14.29.30133\atlmfc\include\afx.inl
; File D:\git\src\IBK\IBK_DRFN\ProjSrc\SrcChartEx\ChartOCX\ChartObject\SubGraph.cpp
; File C:\Program Files (x86)\Microsoft Visual Studio\2019\Community\VC\Tools\MSVC\14.29.30133\atlmfc\include\afx.inl
; File D:\git\src\IBK\IBK_DRFN\ProjSrc\SrcChartEx\ChartOCX\ChartObject\SubGraph.cpp
; File C:\Program Files (x86)\Microsoft Visual Studio\2019\Community\VC\Tools\MSVC\14.29.30133\atlmfc\include\afxtempl.h
; File D:\git\src\IBK\IBK_DRFN\ProjSrc\SrcChartEx\ChartOCX\ChartObject\SubGraph.cpp
;	COMDAT ?MakeSubGraph@CSubGraph@@SAPAV1@PAVCMainBlockBaseData@@PAVCSubGraphList@@W4GRAPHTYPE@CGraphBaseData@@ABVCGraphStyle@@ABVCGraphDrawStyle@@ABV?$CStringT@DV?$StrTraitMFC_DLL@DV?$ChTraitsCRT@D@ATL@@@@@ATL@@5_NABVCGraphColor@@ABVCPenThickness@@ABVCGraphPaintStyle@@ABVCGraphBaseLineStyle@@@Z
_TEXT	SEGMENT
$T2 = -16						; size = 4
__$EHRec$ = -12						; size = 12
_pMainBlockBaseData$ = 8				; size = 4
_pSubGraphList$ = 12					; size = 4
_type$ = 16						; size = 4
_style$ = 20						; size = 4
_drawStyle$ = 24					; size = 4
_name$ = 28						; size = 4
_title$ = 32						; size = 4
_hiding$ = 36						; size = 1
_color$ = 40						; size = 4
_penThickness$ = 44					; size = 4
_paintStyle$ = 48					; size = 4
_baseLineStyle$ = 52					; size = 4
?MakeSubGraph@CSubGraph@@SAPAV1@PAVCMainBlockBaseData@@PAVCSubGraphList@@W4GRAPHTYPE@CGraphBaseData@@ABVCGraphStyle@@ABVCGraphDrawStyle@@ABV?$CStringT@DV?$StrTraitMFC_DLL@DV?$ChTraitsCRT@D@ATL@@@@@ATL@@5_NABVCGraphColor@@ABVCPenThickness@@ABVCGraphPaintStyle@@ABVCGraphBaseLineStyle@@@Z PROC ; CSubGraph::MakeSubGraph, COMDAT

; 51   : {

  00000	55		 push	 ebp
  00001	8b ec		 mov	 ebp, esp
  00003	6a ff		 push	 -1
  00005	68 00 00 00 00	 push	 __ehhandler$?MakeSubGraph@CSubGraph@@SAPAV1@PAVCMainBlockBaseData@@PAVCSubGraphList@@W4GRAPHTYPE@CGraphBaseData@@ABVCGraphStyle@@ABVCGraphDrawStyle@@ABV?$CStringT@DV?$StrTraitMFC_DLL@DV?$ChTraitsCRT@D@ATL@@@@@ATL@@5_NABVCGraphColor@@ABVCPenThickness@@ABVCGraphPaintStyle@@ABVCGraphBaseLineStyle@@@Z
  0000a	64 a1 00 00 00
	00		 mov	 eax, DWORD PTR fs:0
  00010	50		 push	 eax
  00011	51		 push	 ecx
  00012	56		 push	 esi
  00013	a1 00 00 00 00	 mov	 eax, DWORD PTR ___security_cookie
  00018	33 c5		 xor	 eax, ebp
  0001a	50		 push	 eax
  0001b	8d 45 f4	 lea	 eax, DWORD PTR __$EHRec$[ebp]
  0001e	64 a3 00 00 00
	00		 mov	 DWORD PTR fs:0, eax
; File C:\Program Files (x86)\Microsoft Visual Studio\2019\Community\VC\Tools\MSVC\14.29.30133\atlmfc\include\afx.inl

; 116  : 	{ return ::operator new(nSize); }

  00024	68 c8 00 00 00	 push	 200			; 000000c8H
  00029	e8 00 00 00 00	 call	 ??2@YAPAXI@Z		; operator new
; File D:\git\src\IBK\IBK_DRFN\ProjSrc\SrcChartEx\ChartOCX\ChartObject\SubGraph.cpp

; 53   : 	return new CSubGraph(pMainBlockBaseData, pSubGraphList, type, style, drawStyle, name, title, hiding, color, penThickness, paintStyle, baseLineStyle);

  0002e	8b f0		 mov	 esi, eax
; File C:\Program Files (x86)\Microsoft Visual Studio\2019\Community\VC\Tools\MSVC\14.29.30133\atlmfc\include\afx.inl

; 116  : 	{ return ::operator new(nSize); }

  00030	83 c4 04	 add	 esp, 4
; File D:\git\src\IBK\IBK_DRFN\ProjSrc\SrcChartEx\ChartOCX\ChartObject\SubGraph.cpp

; 53   : 	return new CSubGraph(pMainBlockBaseData, pSubGraphList, type, style, drawStyle, name, title, hiding, color, penThickness, paintStyle, baseLineStyle);

  00033	89 75 f0	 mov	 DWORD PTR $T2[ebp], esi
  00036	c7 45 fc 00 00
	00 00		 mov	 DWORD PTR __$EHRec$[ebp+8], 0
  0003d	85 f6		 test	 esi, esi
  0003f	0f 84 ab 00 00
	00		 je	 $LN3@MakeSubGra

; 78   : 	m_subGraphData(type, style, drawStyle, name, title, hiding, color, penThickness, paintStyle, baseLineStyle),	// Singbar Graph    - ojtaso (20071121)

  00045	ff 75 34	 push	 DWORD PTR _baseLineStyle$[ebp]
  00048	8b 45 08	 mov	 eax, DWORD PTR _pMainBlockBaseData$[ebp]
  0004b	8d 4e 0c	 lea	 ecx, DWORD PTR [esi+12]
  0004e	ff 75 30	 push	 DWORD PTR _paintStyle$[ebp]
  00051	89 46 04	 mov	 DWORD PTR [esi+4], eax
  00054	ff 75 2c	 push	 DWORD PTR _penThickness$[ebp]
  00057	8b 45 0c	 mov	 eax, DWORD PTR _pSubGraphList$[ebp]
  0005a	ff 75 28	 push	 DWORD PTR _color$[ebp]
  0005d	c7 06 00 00 00
	00		 mov	 DWORD PTR [esi], OFFSET ??_7CSubGraph@@6B@
  00063	ff 75 24	 push	 DWORD PTR _hiding$[ebp]
  00066	89 46 08	 mov	 DWORD PTR [esi+8], eax
  00069	ff 75 20	 push	 DWORD PTR _title$[ebp]
  0006c	ff 75 1c	 push	 DWORD PTR _name$[ebp]
  0006f	ff 75 18	 push	 DWORD PTR _drawStyle$[ebp]
  00072	ff 75 14	 push	 DWORD PTR _style$[ebp]
  00075	ff 75 10	 push	 DWORD PTR _type$[ebp]
  00078	ff 15 00 00 00
	00		 call	 DWORD PTR __imp_??0CSubGraphData@@QAE@W4GRAPHTYPE@CGraphBaseData@@ABVCGraphStyle@@ABVCGraphDrawStyle@@ABV?$CStringT@DV?$StrTraitMFC_DLL@DV?$ChTraitsCRT@D@ATL@@@@@ATL@@3_NABVCGraphColor@@ABVCPenThickness@@ABVCGraphPaintStyle@@ABVCGraphBaseLineStyle@@@Z
; File C:\Program Files (x86)\Microsoft Visual Studio\2019\Community\VC\Tools\MSVC\14.29.30133\atlmfc\include\afxtempl.h

; 851  : {

  0007e	c7 86 94 00 00
	00 00 00 00 00	 mov	 DWORD PTR [esi+148], OFFSET ??_7?$CList@PAVCPacket@@PAV1@@@6B@

; 852  : 	ASSERT(nBlockSize > 0);
; 853  : 
; 854  : 	m_nCount = 0;

  00088	c7 86 a0 00 00
	00 00 00 00 00	 mov	 DWORD PTR [esi+160], 0

; 855  : 	m_pNodeHead = m_pNodeTail = m_pNodeFree = NULL;

  00092	c7 86 a4 00 00
	00 00 00 00 00	 mov	 DWORD PTR [esi+164], 0
  0009c	c7 86 9c 00 00
	00 00 00 00 00	 mov	 DWORD PTR [esi+156], 0
  000a6	c7 86 98 00 00
	00 00 00 00 00	 mov	 DWORD PTR [esi+152], 0

; 856  : 	m_pBlocks = NULL;

  000b0	c7 86 a8 00 00
	00 00 00 00 00	 mov	 DWORD PTR [esi+168], 0

; 857  : 	m_nBlockSize = nBlockSize;

  000ba	c7 86 ac 00 00
	00 0a 00 00 00	 mov	 DWORD PTR [esi+172], 10	; 0000000aH
; File D:\git\src\IBK\IBK_DRFN\ProjSrc\SrcChartEx\ChartOCX\ChartObject\SubGraph.cpp

; 80   : {

  000c4	8d 8e b0 00 00
	00		 lea	 ecx, DWORD PTR [esi+176]
  000ca	c6 45 fc 02	 mov	 BYTE PTR __$EHRec$[ebp+8], 2
  000ce	ff 15 00 00 00
	00		 call	 DWORD PTR __imp_??0CDisplayDataMinMax@@QAE@XZ

; 79   : 	m_nVerticalScaleMaxWidth(-1)

  000d4	c7 86 c0 00 00
	00 ff ff ff ff	 mov	 DWORD PTR [esi+192], -1

; 53   : 	return new CSubGraph(pMainBlockBaseData, pSubGraphList, type, style, drawStyle, name, title, hiding, color, penThickness, paintStyle, baseLineStyle);

  000de	8b c6		 mov	 eax, esi

; 54   : }

  000e0	8b 4d f4	 mov	 ecx, DWORD PTR __$EHRec$[ebp]
  000e3	64 89 0d 00 00
	00 00		 mov	 DWORD PTR fs:0, ecx
  000ea	59		 pop	 ecx
  000eb	5e		 pop	 esi
  000ec	8b e5		 mov	 esp, ebp
  000ee	5d		 pop	 ebp
  000ef	c3		 ret	 0
$LN3@MakeSubGra:

; 53   : 	return new CSubGraph(pMainBlockBaseData, pSubGraphList, type, style, drawStyle, name, title, hiding, color, penThickness, paintStyle, baseLineStyle);

  000f0	33 c0		 xor	 eax, eax

; 54   : }

  000f2	8b 4d f4	 mov	 ecx, DWORD PTR __$EHRec$[ebp]
  000f5	64 89 0d 00 00
	00 00		 mov	 DWORD PTR fs:0, ecx
  000fc	59		 pop	 ecx
  000fd	5e		 pop	 esi
  000fe	8b e5		 mov	 esp, ebp
  00100	5d		 pop	 ebp
  00101	c3		 ret	 0
_TEXT	ENDS
;	COMDAT text$x
text$x	SEGMENT
__unwindfunclet$?MakeSubGraph@CSubGraph@@SAPAV1@PAVCMainBlockBaseData@@PAVCSubGraphList@@W4GRAPHTYPE@CGraphBaseData@@ABVCGraphStyle@@ABVCGraphDrawStyle@@ABV?$CStringT@DV?$StrTraitMFC_DLL@DV?$ChTraitsCRT@D@ATL@@@@@ATL@@5_NABVCGraphColor@@ABVCPenThickness@@ABVCGraphPaintStyle@@ABVCGraphBaseLineStyle@@@Z$0:
  00000	8b 45 f0	 mov	 eax, DWORD PTR $T2[ebp]
  00003	50		 push	 eax
  00004	e8 00 00 00 00	 call	 ??3CObject@@SGXPAX@Z	; CObject::operator delete
  00009	c3		 ret	 0
__unwindfunclet$?MakeSubGraph@CSubGraph@@SAPAV1@PAVCMainBlockBaseData@@PAVCSubGraphList@@W4GRAPHTYPE@CGraphBaseData@@ABVCGraphStyle@@ABVCGraphDrawStyle@@ABV?$CStringT@DV?$StrTraitMFC_DLL@DV?$ChTraitsCRT@D@ATL@@@@@ATL@@5_NABVCGraphColor@@ABVCPenThickness@@ABVCGraphPaintStyle@@ABVCGraphBaseLineStyle@@@Z$1:
  0000a	8b 4d f0	 mov	 ecx, DWORD PTR $T2[ebp]
  0000d	83 c1 0c	 add	 ecx, 12			; 0000000cH
  00010	ff 25 00 00 00
	00		 jmp	 DWORD PTR __imp_??1CSubGraphData@@QAE@XZ
__unwindfunclet$?MakeSubGraph@CSubGraph@@SAPAV1@PAVCMainBlockBaseData@@PAVCSubGraphList@@W4GRAPHTYPE@CGraphBaseData@@ABVCGraphStyle@@ABVCGraphDrawStyle@@ABV?$CStringT@DV?$StrTraitMFC_DLL@DV?$ChTraitsCRT@D@ATL@@@@@ATL@@5_NABVCGraphColor@@ABVCPenThickness@@ABVCGraphPaintStyle@@ABVCGraphBaseLineStyle@@@Z$2:
  00016	8b 4d f0	 mov	 ecx, DWORD PTR $T2[ebp]
  00019	81 c1 94 00 00
	00		 add	 ecx, 148		; 00000094H
  0001f	e9 00 00 00 00	 jmp	 ??1CSubGraphPacketList@@QAE@XZ
  00024	cc		 int	 3
  00025	cc		 int	 3
  00026	cc		 int	 3
  00027	cc		 int	 3
  00028	cc		 int	 3
__ehhandler$?MakeSubGraph@CSubGraph@@SAPAV1@PAVCMainBlockBaseData@@PAVCSubGraphList@@W4GRAPHTYPE@CGraphBaseData@@ABVCGraphStyle@@ABVCGraphDrawStyle@@ABV?$CStringT@DV?$StrTraitMFC_DLL@DV?$ChTraitsCRT@D@ATL@@@@@ATL@@5_NABVCGraphColor@@ABVCPenThickness@@ABVCGraphPaintStyle@@ABVCGraphBaseLineStyle@@@Z:
  00029	90		 npad	 1
  0002a	90		 npad	 1
  0002b	8b 54 24 08	 mov	 edx, DWORD PTR [esp+8]
  0002f	8d 42 0c	 lea	 eax, DWORD PTR [edx+12]
  00032	8b 4a f4	 mov	 ecx, DWORD PTR [edx-12]
  00035	33 c8		 xor	 ecx, eax
  00037	e8 00 00 00 00	 call	 @__security_check_cookie@4
  0003c	b8 00 00 00 00	 mov	 eax, OFFSET __ehfuncinfo$?MakeSubGraph@CSubGraph@@SAPAV1@PAVCMainBlockBaseData@@PAVCSubGraphList@@W4GRAPHTYPE@CGraphBaseData@@ABVCGraphStyle@@ABVCGraphDrawStyle@@ABV?$CStringT@DV?$StrTraitMFC_DLL@DV?$ChTraitsCRT@D@ATL@@@@@ATL@@5_NABVCGraphColor@@ABVCPenThickness@@ABVCGraphPaintStyle@@ABVCGraphBaseLineStyle@@@Z
  00041	e9 00 00 00 00	 jmp	 ___CxxFrameHandler3
text$x	ENDS
?MakeSubGraph@CSubGraph@@SAPAV1@PAVCMainBlockBaseData@@PAVCSubGraphList@@W4GRAPHTYPE@CGraphBaseData@@ABVCGraphStyle@@ABVCGraphDrawStyle@@ABV?$CStringT@DV?$StrTraitMFC_DLL@DV?$ChTraitsCRT@D@ATL@@@@@ATL@@5_NABVCGraphColor@@ABVCPenThickness@@ABVCGraphPaintStyle@@ABVCGraphBaseLineStyle@@@Z ENDP ; CSubGraph::MakeSubGraph
; Function compile flags: /Ogtp
; File D:\git\src\IBK\IBK_DRFN\ProjSrc\SrcChartEx\ChartOCX\ChartObject\SubGraph.cpp
; File C:\Program Files (x86)\Microsoft Visual Studio\2019\Community\VC\Tools\MSVC\14.29.30133\atlmfc\include\afx.inl
; File D:\git\src\IBK\IBK_DRFN\ProjSrc\SrcChartEx\ChartOCX\ChartObject\SubGraph.cpp
; File C:\Program Files (x86)\Microsoft Visual Studio\2019\Community\VC\Tools\MSVC\14.29.30133\atlmfc\include\afx.inl
; File D:\git\src\IBK\IBK_DRFN\ProjSrc\SrcChartEx\ChartOCX\ChartObject\SubGraph.cpp
; File C:\Program Files (x86)\Microsoft Visual Studio\2019\Community\VC\Tools\MSVC\14.29.30133\atlmfc\include\afxtempl.h
; File D:\git\src\IBK\IBK_DRFN\ProjSrc\SrcChartEx\ChartOCX\ChartObject\SubGraph.cpp
;	COMDAT ?MakeSubGraph@CSubGraph@@SAPAV1@PAVCMainBlockBaseData@@PAVCSubGraphList@@ABVCSubGraphData@@@Z
_TEXT	SEGMENT
$T2 = -16						; size = 4
__$EHRec$ = -12						; size = 12
_pMainBlockBaseData$ = 8				; size = 4
_pSubGraphList$ = 12					; size = 4
_subGraphData$ = 16					; size = 4
?MakeSubGraph@CSubGraph@@SAPAV1@PAVCMainBlockBaseData@@PAVCSubGraphList@@ABVCSubGraphData@@@Z PROC ; CSubGraph::MakeSubGraph, COMDAT

; 44   : {

  00000	55		 push	 ebp
  00001	8b ec		 mov	 ebp, esp
  00003	6a ff		 push	 -1
  00005	68 00 00 00 00	 push	 __ehhandler$?MakeSubGraph@CSubGraph@@SAPAV1@PAVCMainBlockBaseData@@PAVCSubGraphList@@ABVCSubGraphData@@@Z
  0000a	64 a1 00 00 00
	00		 mov	 eax, DWORD PTR fs:0
  00010	50		 push	 eax
  00011	51		 push	 ecx
  00012	56		 push	 esi
  00013	a1 00 00 00 00	 mov	 eax, DWORD PTR ___security_cookie
  00018	33 c5		 xor	 eax, ebp
  0001a	50		 push	 eax
  0001b	8d 45 f4	 lea	 eax, DWORD PTR __$EHRec$[ebp]
  0001e	64 a3 00 00 00
	00		 mov	 DWORD PTR fs:0, eax
; File C:\Program Files (x86)\Microsoft Visual Studio\2019\Community\VC\Tools\MSVC\14.29.30133\atlmfc\include\afx.inl

; 116  : 	{ return ::operator new(nSize); }

  00024	68 c8 00 00 00	 push	 200			; 000000c8H
  00029	e8 00 00 00 00	 call	 ??2@YAPAXI@Z		; operator new
; File D:\git\src\IBK\IBK_DRFN\ProjSrc\SrcChartEx\ChartOCX\ChartObject\SubGraph.cpp

; 45   : 	return new CSubGraph(pMainBlockBaseData, pSubGraphList, subGraphData);

  0002e	8b f0		 mov	 esi, eax
; File C:\Program Files (x86)\Microsoft Visual Studio\2019\Community\VC\Tools\MSVC\14.29.30133\atlmfc\include\afx.inl

; 116  : 	{ return ::operator new(nSize); }

  00030	83 c4 04	 add	 esp, 4
; File D:\git\src\IBK\IBK_DRFN\ProjSrc\SrcChartEx\ChartOCX\ChartObject\SubGraph.cpp

; 45   : 	return new CSubGraph(pMainBlockBaseData, pSubGraphList, subGraphData);

  00033	89 75 f0	 mov	 DWORD PTR $T2[ebp], esi
  00036	c7 45 fc 00 00
	00 00		 mov	 DWORD PTR __$EHRec$[ebp+8], 0
  0003d	85 f6		 test	 esi, esi
  0003f	0f 84 90 00 00
	00		 je	 $LN3@MakeSubGra

; 65   : 	m_pMainBlockBaseData(pMainBlockBaseData),

  00045	8b 45 08	 mov	 eax, DWORD PTR _pMainBlockBaseData$[ebp]

; 66   : 	m_pSubGraphList(pSubGraphList),
; 67   : 	m_subGraphData(subGraphData),

  00048	8d 4e 0c	 lea	 ecx, DWORD PTR [esi+12]
  0004b	ff 75 10	 push	 DWORD PTR _subGraphData$[ebp]
  0004e	89 46 04	 mov	 DWORD PTR [esi+4], eax
  00051	8b 45 0c	 mov	 eax, DWORD PTR _pSubGraphList$[ebp]
  00054	c7 06 00 00 00
	00		 mov	 DWORD PTR [esi], OFFSET ??_7CSubGraph@@6B@
  0005a	89 46 08	 mov	 DWORD PTR [esi+8], eax
  0005d	ff 15 00 00 00
	00		 call	 DWORD PTR __imp_??0CSubGraphData@@QAE@ABV0@@Z
; File C:\Program Files (x86)\Microsoft Visual Studio\2019\Community\VC\Tools\MSVC\14.29.30133\atlmfc\include\afxtempl.h

; 851  : {

  00063	c7 86 94 00 00
	00 00 00 00 00	 mov	 DWORD PTR [esi+148], OFFSET ??_7?$CList@PAVCPacket@@PAV1@@@6B@

; 852  : 	ASSERT(nBlockSize > 0);
; 853  : 
; 854  : 	m_nCount = 0;

  0006d	c7 86 a0 00 00
	00 00 00 00 00	 mov	 DWORD PTR [esi+160], 0

; 855  : 	m_pNodeHead = m_pNodeTail = m_pNodeFree = NULL;

  00077	c7 86 a4 00 00
	00 00 00 00 00	 mov	 DWORD PTR [esi+164], 0
  00081	c7 86 9c 00 00
	00 00 00 00 00	 mov	 DWORD PTR [esi+156], 0
  0008b	c7 86 98 00 00
	00 00 00 00 00	 mov	 DWORD PTR [esi+152], 0

; 856  : 	m_pBlocks = NULL;

  00095	c7 86 a8 00 00
	00 00 00 00 00	 mov	 DWORD PTR [esi+168], 0

; 857  : 	m_nBlockSize = nBlockSize;

  0009f	c7 86 ac 00 00
	00 0a 00 00 00	 mov	 DWORD PTR [esi+172], 10	; 0000000aH
; File D:\git\src\IBK\IBK_DRFN\ProjSrc\SrcChartEx\ChartOCX\ChartObject\SubGraph.cpp

; 69   : {

  000a9	8d 8e b0 00 00
	00		 lea	 ecx, DWORD PTR [esi+176]
  000af	c6 45 fc 02	 mov	 BYTE PTR __$EHRec$[ebp+8], 2
  000b3	ff 15 00 00 00
	00		 call	 DWORD PTR __imp_??0CDisplayDataMinMax@@QAE@XZ

; 68   : 	m_nVerticalScaleMaxWidth(-1)

  000b9	c7 86 c0 00 00
	00 ff ff ff ff	 mov	 DWORD PTR [esi+192], -1

; 45   : 	return new CSubGraph(pMainBlockBaseData, pSubGraphList, subGraphData);

  000c3	8b c6		 mov	 eax, esi

; 46   : }

  000c5	8b 4d f4	 mov	 ecx, DWORD PTR __$EHRec$[ebp]
  000c8	64 89 0d 00 00
	00 00		 mov	 DWORD PTR fs:0, ecx
  000cf	59		 pop	 ecx
  000d0	5e		 pop	 esi
  000d1	8b e5		 mov	 esp, ebp
  000d3	5d		 pop	 ebp
  000d4	c3		 ret	 0
$LN3@MakeSubGra:

; 45   : 	return new CSubGraph(pMainBlockBaseData, pSubGraphList, subGraphData);

  000d5	33 c0		 xor	 eax, eax

; 46   : }

  000d7	8b 4d f4	 mov	 ecx, DWORD PTR __$EHRec$[ebp]
  000da	64 89 0d 00 00
	00 00		 mov	 DWORD PTR fs:0, ecx
  000e1	59		 pop	 ecx
  000e2	5e		 pop	 esi
  000e3	8b e5		 mov	 esp, ebp
  000e5	5d		 pop	 ebp
  000e6	c3		 ret	 0
_TEXT	ENDS
;	COMDAT text$x
text$x	SEGMENT
__unwindfunclet$?MakeSubGraph@CSubGraph@@SAPAV1@PAVCMainBlockBaseData@@PAVCSubGraphList@@ABVCSubGraphData@@@Z$0:
  00000	8b 45 f0	 mov	 eax, DWORD PTR $T2[ebp]
  00003	50		 push	 eax
  00004	e8 00 00 00 00	 call	 ??3CObject@@SGXPAX@Z	; CObject::operator delete
  00009	c3		 ret	 0
__unwindfunclet$?MakeSubGraph@CSubGraph@@SAPAV1@PAVCMainBlockBaseData@@PAVCSubGraphList@@ABVCSubGraphData@@@Z$1:
  0000a	8b 4d f0	 mov	 ecx, DWORD PTR $T2[ebp]
  0000d	83 c1 0c	 add	 ecx, 12			; 0000000cH
  00010	ff 25 00 00 00
	00		 jmp	 DWORD PTR __imp_??1CSubGraphData@@QAE@XZ
__unwindfunclet$?MakeSubGraph@CSubGraph@@SAPAV1@PAVCMainBlockBaseData@@PAVCSubGraphList@@ABVCSubGraphData@@@Z$2:
  00016	8b 4d f0	 mov	 ecx, DWORD PTR $T2[ebp]
  00019	81 c1 94 00 00
	00		 add	 ecx, 148		; 00000094H
  0001f	e9 00 00 00 00	 jmp	 ??1CSubGraphPacketList@@QAE@XZ
  00024	cc		 int	 3
  00025	cc		 int	 3
  00026	cc		 int	 3
  00027	cc		 int	 3
  00028	cc		 int	 3
__ehhandler$?MakeSubGraph@CSubGraph@@SAPAV1@PAVCMainBlockBaseData@@PAVCSubGraphList@@ABVCSubGraphData@@@Z:
  00029	90		 npad	 1
  0002a	90		 npad	 1
  0002b	8b 54 24 08	 mov	 edx, DWORD PTR [esp+8]
  0002f	8d 42 0c	 lea	 eax, DWORD PTR [edx+12]
  00032	8b 4a f4	 mov	 ecx, DWORD PTR [edx-12]
  00035	33 c8		 xor	 ecx, eax
  00037	e8 00 00 00 00	 call	 @__security_check_cookie@4
  0003c	b8 00 00 00 00	 mov	 eax, OFFSET __ehfuncinfo$?MakeSubGraph@CSubGraph@@SAPAV1@PAVCMainBlockBaseData@@PAVCSubGraphList@@ABVCSubGraphData@@@Z
  00041	e9 00 00 00 00	 jmp	 ___CxxFrameHandler3
text$x	ENDS
?MakeSubGraph@CSubGraph@@SAPAV1@PAVCMainBlockBaseData@@PAVCSubGraphList@@ABVCSubGraphData@@@Z ENDP ; CSubGraph::MakeSubGraph
; Function compile flags: /Ogtp
; File C:\Program Files (x86)\Microsoft Visual Studio\2019\Community\VC\Tools\MSVC\14.29.30133\atlmfc\include\afxtempl.h
;	COMDAT ??1CSubGraphPacketList@@QAE@XZ
_TEXT	SEGMENT
__$EHRec$ = -12						; size = 12
??1CSubGraphPacketList@@QAE@XZ PROC			; CSubGraphPacketList::~CSubGraphPacketList, COMDAT
; _this$ = ecx
  00000	55		 push	 ebp
  00001	8b ec		 mov	 ebp, esp
  00003	6a ff		 push	 -1
  00005	68 00 00 00 00	 push	 __ehhandler$??1CSubGraphPacketList@@QAE@XZ
  0000a	64 a1 00 00 00
	00		 mov	 eax, DWORD PTR fs:0
  00010	50		 push	 eax
  00011	56		 push	 esi
  00012	a1 00 00 00 00	 mov	 eax, DWORD PTR ___security_cookie
  00017	33 c5		 xor	 eax, ebp
  00019	50		 push	 eax
  0001a	8d 45 f4	 lea	 eax, DWORD PTR __$EHRec$[ebp]
  0001d	64 a3 00 00 00
	00		 mov	 DWORD PTR fs:0, eax
  00023	8b f1		 mov	 esi, ecx

; 872  : 	m_pBlocks->FreeDataChain();

  00025	8b 4e 14	 mov	 ecx, DWORD PTR [esi+20]

; 878  : {

  00028	c7 45 fc 00 00
	00 00		 mov	 DWORD PTR __$EHRec$[ebp+8], 0
  0002f	c7 06 00 00 00
	00		 mov	 DWORD PTR [esi], OFFSET ??_7?$CList@PAVCPacket@@PAV1@@@6B@

; 870  : 	m_nCount = 0;

  00035	c7 46 0c 00 00
	00 00		 mov	 DWORD PTR [esi+12], 0

; 871  : 	m_pNodeHead = m_pNodeTail = m_pNodeFree = NULL;

  0003c	c7 46 10 00 00
	00 00		 mov	 DWORD PTR [esi+16], 0
  00043	c7 46 08 00 00
	00 00		 mov	 DWORD PTR [esi+8], 0
  0004a	c7 46 04 00 00
	00 00		 mov	 DWORD PTR [esi+4], 0

; 872  : 	m_pBlocks->FreeDataChain();

  00051	e8 00 00 00 00	 call	 ?FreeDataChain@CPlex@@QAEXXZ ; CPlex::FreeDataChain

; 873  : 	m_pBlocks = NULL;

  00056	c7 46 14 00 00
	00 00		 mov	 DWORD PTR [esi+20], 0
  0005d	8b 4d f4	 mov	 ecx, DWORD PTR __$EHRec$[ebp]
  00060	64 89 0d 00 00
	00 00		 mov	 DWORD PTR fs:0, ecx
  00067	59		 pop	 ecx
  00068	5e		 pop	 esi
  00069	8b e5		 mov	 esp, ebp
  0006b	5d		 pop	 ebp
  0006c	c3		 ret	 0
  0006d	cc		 int	 3
  0006e	cc		 int	 3
  0006f	cc		 int	 3
  00070	cc		 int	 3
  00071	cc		 int	 3
_TEXT	ENDS
;	COMDAT text$x
text$x	SEGMENT
__ehhandler$??1CSubGraphPacketList@@QAE@XZ:
  00000	90		 npad	 1
  00001	90		 npad	 1
  00002	8b 54 24 08	 mov	 edx, DWORD PTR [esp+8]
  00006	8d 42 0c	 lea	 eax, DWORD PTR [edx+12]
  00009	8b 4a f8	 mov	 ecx, DWORD PTR [edx-8]
  0000c	33 c8		 xor	 ecx, eax
  0000e	e8 00 00 00 00	 call	 @__security_check_cookie@4
  00013	b8 00 00 00 00	 mov	 eax, OFFSET __ehfuncinfo$??1CSubGraphPacketList@@QAE@XZ
  00018	e9 00 00 00 00	 jmp	 ___CxxFrameHandler3
text$x	ENDS
??1CSubGraphPacketList@@QAE@XZ ENDP			; CSubGraphPacketList::~CSubGraphPacketList
; Function compile flags: /Ogtp
; File C:\Program Files (x86)\Microsoft Visual Studio\2019\Community\VC\Tools\MSVC\14.29.30133\atlmfc\include\afxtempl.h
; File C:\Program Files (x86)\Microsoft Visual Studio\2019\Community\VC\Tools\MSVC\14.29.30133\atlmfc\include\afx.inl
;	COMDAT ??_G?$CList@PAVCPacket@@PAV1@@@UAEPAXI@Z
_TEXT	SEGMENT
__$EHRec$ = -12						; size = 12
___flags$ = 8						; size = 4
??_G?$CList@PAVCPacket@@PAV1@@@UAEPAXI@Z PROC		; CList<CPacket *,CPacket *>::`scalar deleting destructor', COMDAT
; _this$ = ecx
  00000	55		 push	 ebp
  00001	8b ec		 mov	 ebp, esp
  00003	6a ff		 push	 -1
  00005	68 00 00 00 00	 push	 __ehhandler$??_G?$CList@PAVCPacket@@PAV1@@@UAEPAXI@Z
  0000a	64 a1 00 00 00
	00		 mov	 eax, DWORD PTR fs:0
  00010	50		 push	 eax
  00011	56		 push	 esi
  00012	a1 00 00 00 00	 mov	 eax, DWORD PTR ___security_cookie
  00017	33 c5		 xor	 eax, ebp
  00019	50		 push	 eax
  0001a	8d 45 f4	 lea	 eax, DWORD PTR __$EHRec$[ebp]
  0001d	64 a3 00 00 00
	00		 mov	 DWORD PTR fs:0, eax
  00023	8b f1		 mov	 esi, ecx
; File C:\Program Files (x86)\Microsoft Visual Studio\2019\Community\VC\Tools\MSVC\14.29.30133\atlmfc\include\afxtempl.h

; 872  : 	m_pBlocks->FreeDataChain();

  00025	8b 4e 14	 mov	 ecx, DWORD PTR [esi+20]

; 878  : {

  00028	c7 45 fc 00 00
	00 00		 mov	 DWORD PTR __$EHRec$[ebp+8], 0
  0002f	c7 06 00 00 00
	00		 mov	 DWORD PTR [esi], OFFSET ??_7?$CList@PAVCPacket@@PAV1@@@6B@

; 870  : 	m_nCount = 0;

  00035	c7 46 0c 00 00
	00 00		 mov	 DWORD PTR [esi+12], 0

; 871  : 	m_pNodeHead = m_pNodeTail = m_pNodeFree = NULL;

  0003c	c7 46 10 00 00
	00 00		 mov	 DWORD PTR [esi+16], 0
  00043	c7 46 08 00 00
	00 00		 mov	 DWORD PTR [esi+8], 0
  0004a	c7 46 04 00 00
	00 00		 mov	 DWORD PTR [esi+4], 0

; 872  : 	m_pBlocks->FreeDataChain();

  00051	e8 00 00 00 00	 call	 ?FreeDataChain@CPlex@@QAEXXZ ; CPlex::FreeDataChain

; 873  : 	m_pBlocks = NULL;

  00056	8b 45 08	 mov	 eax, DWORD PTR ___flags$[ebp]
  00059	c7 46 14 00 00
	00 00		 mov	 DWORD PTR [esi+20], 0
  00060	a8 01		 test	 al, 1
  00062	74 2c		 je	 SHORT $LN22@scalar
  00064	a8 04		 test	 al, 4
  00066	75 1d		 jne	 SHORT $LN3@scalar
; File C:\Program Files (x86)\Microsoft Visual Studio\2019\Community\VC\Tools\MSVC\14.29.30133\atlmfc\include\afx.inl

; 112  : 	{ ::operator delete(p); }

  00068	56		 push	 esi
  00069	e8 00 00 00 00	 call	 ??3@YAXPAX@Z		; operator delete
  0006e	83 c4 04	 add	 esp, 4
  00071	8b c6		 mov	 eax, esi
  00073	8b 4d f4	 mov	 ecx, DWORD PTR __$EHRec$[ebp]
  00076	64 89 0d 00 00
	00 00		 mov	 DWORD PTR fs:0, ecx
  0007d	59		 pop	 ecx
  0007e	5e		 pop	 esi
  0007f	8b e5		 mov	 esp, ebp
  00081	5d		 pop	 ebp
  00082	c2 04 00	 ret	 4
$LN3@scalar:
  00085	6a 1c		 push	 28			; 0000001cH
  00087	56		 push	 esi
  00088	e8 00 00 00 00	 call	 ?__global_delete@@YAXPAXI@Z ; __global_delete
  0008d	83 c4 08	 add	 esp, 8
$LN22@scalar:
  00090	8b c6		 mov	 eax, esi
  00092	8b 4d f4	 mov	 ecx, DWORD PTR __$EHRec$[ebp]
  00095	64 89 0d 00 00
	00 00		 mov	 DWORD PTR fs:0, ecx
  0009c	59		 pop	 ecx
  0009d	5e		 pop	 esi
  0009e	8b e5		 mov	 esp, ebp
  000a0	5d		 pop	 ebp
  000a1	c2 04 00	 ret	 4
  000a4	cc		 int	 3
  000a5	cc		 int	 3
  000a6	cc		 int	 3
  000a7	cc		 int	 3
  000a8	cc		 int	 3
_TEXT	ENDS
;	COMDAT text$x
text$x	SEGMENT
__ehhandler$??_G?$CList@PAVCPacket@@PAV1@@@UAEPAXI@Z:
  00000	90		 npad	 1
  00001	90		 npad	 1
  00002	8b 54 24 08	 mov	 edx, DWORD PTR [esp+8]
  00006	8d 42 0c	 lea	 eax, DWORD PTR [edx+12]
  00009	8b 4a f8	 mov	 ecx, DWORD PTR [edx-8]
  0000c	33 c8		 xor	 ecx, eax
  0000e	e8 00 00 00 00	 call	 @__security_check_cookie@4
  00013	b8 00 00 00 00	 mov	 eax, OFFSET __ehfuncinfo$??_G?$CList@PAVCPacket@@PAV1@@@UAEPAXI@Z
  00018	e9 00 00 00 00	 jmp	 ___CxxFrameHandler3
text$x	ENDS
??_G?$CList@PAVCPacket@@PAV1@@@UAEPAXI@Z ENDP		; CList<CPacket *,CPacket *>::`scalar deleting destructor'
; Function compile flags: /Ogtp
; File C:\Program Files (x86)\Microsoft Visual Studio\2019\Community\VC\Tools\MSVC\14.29.30133\atlmfc\include\afxtempl.h
; File C:\Program Files (x86)\Microsoft Visual Studio\2019\Community\VC\Tools\MSVC\14.29.30133\atlmfc\include\afx.inl
; File C:\Program Files (x86)\Microsoft Visual Studio\2019\Community\VC\Tools\MSVC\14.29.30133\atlmfc\include\afxtempl.h
; File C:\Program Files (x86)\Microsoft Visual Studio\2019\Community\VC\Tools\MSVC\14.29.30133\atlmfc\include\afx.inl
; File C:\Program Files (x86)\Microsoft Visual Studio\2019\Community\VC\Tools\MSVC\14.29.30133\atlmfc\include\afxtempl.h
; File C:\Program Files (x86)\Microsoft Visual Studio\2019\Community\VC\Tools\MSVC\14.29.30133\atlmfc\include\afx.inl
; File C:\Program Files (x86)\Microsoft Visual Studio\2019\Community\VC\Tools\MSVC\14.29.30133\atlmfc\include\afxtempl.h
; File C:\Program Files (x86)\Microsoft Visual Studio\2019\Community\VC\Tools\MSVC\14.29.30133\atlmfc\include\afx.inl
; File C:\Program Files (x86)\Microsoft Visual Studio\2019\Community\VC\Tools\MSVC\14.29.30133\atlmfc\include\afxtempl.h
; File C:\Program Files (x86)\Microsoft Visual Studio\2019\Community\VC\Tools\MSVC\14.29.30133\atlmfc\include\afx.inl
; File C:\Program Files (x86)\Microsoft Visual Studio\2019\Community\VC\Tools\MSVC\14.29.30133\atlmfc\include\afxtempl.h
; File C:\Program Files (x86)\Microsoft Visual Studio\2019\Community\VC\Tools\MSVC\14.29.30133\atlmfc\include\afx.inl
; File C:\Program Files (x86)\Microsoft Visual Studio\2019\Community\VC\Tools\MSVC\14.29.30133\atlmfc\include\afxtempl.h
;	COMDAT ?Serialize@?$CList@PAVCPacket@@PAV1@@@UAEXAAVCArchive@@@Z
_TEXT	SEGMENT
_nNewCount$1$ = -16					; size = 4
_newData$1 = -12					; size = 4
_pData$1$ = -8						; size = 4
_pNode$1$ = -8						; size = 4
_nElementsLeft$1$ = -4					; size = 4
_this$1$ = -4						; size = 4
_ar$ = 8						; size = 4
?Serialize@?$CList@PAVCPacket@@PAV1@@@UAEXAAVCArchive@@@Z PROC ; CList<CPacket *,CPacket *>::Serialize, COMDAT
; _this$ = ecx

; 1169 : {

  00000	55		 push	 ebp
  00001	8b ec		 mov	 ebp, esp
  00003	83 ec 10	 sub	 esp, 16			; 00000010H
  00006	53		 push	 ebx
  00007	8b d9		 mov	 ebx, ecx
; File C:\Program Files (x86)\Microsoft Visual Studio\2019\Community\VC\Tools\MSVC\14.29.30133\atlmfc\include\afx.inl

; 212  : 	{ return (m_nMode & CArchive::load) == 0; }

  00009	8b 4d 08	 mov	 ecx, DWORD PTR _ar$[ebp]
; File C:\Program Files (x86)\Microsoft Visual Studio\2019\Community\VC\Tools\MSVC\14.29.30133\atlmfc\include\afxtempl.h

; 1169 : {

  0000c	56		 push	 esi
  0000d	57		 push	 edi
  0000e	89 5d fc	 mov	 DWORD PTR _this$1$[ebp], ebx
; File C:\Program Files (x86)\Microsoft Visual Studio\2019\Community\VC\Tools\MSVC\14.29.30133\atlmfc\include\afx.inl

; 212  : 	{ return (m_nMode & CArchive::load) == 0; }

  00011	8b 41 18	 mov	 eax, DWORD PTR [ecx+24]
  00014	f7 d0		 not	 eax
  00016	a8 01		 test	 al, 1
; File C:\Program Files (x86)\Microsoft Visual Studio\2019\Community\VC\Tools\MSVC\14.29.30133\atlmfc\include\afxtempl.h

; 1174 : 	if (ar.IsStoring())

  00018	0f 84 ae 00 00
	00		 je	 $LN7@Serialize

; 1175 : 	{
; 1176 : 		ar.WriteCount(m_nCount);

  0001e	ff 73 0c	 push	 DWORD PTR [ebx+12]
  00021	e8 00 00 00 00	 call	 ?WriteCount@CArchive@@QAEXK@Z ; CArchive::WriteCount

; 1177 : 		for (CNode* pNode = m_pNodeHead; pNode != NULL; pNode = pNode->pNext)

  00026	8b 43 04	 mov	 eax, DWORD PTR [ebx+4]
  00029	89 45 f8	 mov	 DWORD PTR _pNode$1$[ebp], eax
  0002c	85 c0		 test	 eax, eax
  0002e	0f 84 43 01 00
	00		 je	 $LN68@Serialize
$LL4@Serialize:

; 1178 : 		{
; 1179 : 			ASSERT(AfxIsValidAddress(pNode, sizeof(CNode)));
; 1180 : 			TYPE* pData;
; 1181 : 			/*
; 1182 : 			 * in some cases the & operator might be overloaded, and we cannot use it to obtain
; 1183 : 			 * the address of a given object.  We then use the following trick to get the address
; 1184 : 			 */
; 1185 : 			pData = reinterpret_cast< TYPE* >( &reinterpret_cast< int& >( static_cast< TYPE& >( pNode->data ) ) );

  00034	8d 70 08	 lea	 esi, DWORD PTR [eax+8]

; 68   : 	ENSURE(nCount == 0 || pElements != NULL);

  00037	85 f6		 test	 esi, esi
  00039	0f 84 4a 01 00
	00		 je	 $LN60@Serialize
; File C:\Program Files (x86)\Microsoft Visual Studio\2019\Community\VC\Tools\MSVC\14.29.30133\atlmfc\include\afx.inl

; 212  : 	{ return (m_nMode & CArchive::load) == 0; }

  0003f	8b 4d 08	 mov	 ecx, DWORD PTR _ar$[ebp]
  00042	8b 41 18	 mov	 eax, DWORD PTR [ecx+24]
  00045	f7 d0		 not	 eax
  00047	a8 01		 test	 al, 1
; File C:\Program Files (x86)\Microsoft Visual Studio\2019\Community\VC\Tools\MSVC\14.29.30133\atlmfc\include\afxtempl.h

; 73   : 	if (ar.IsStoring())

  00049	74 33		 je	 SHORT $LN21@Serialize

; 74   : 	{
; 75   : 		TYPE* pData;
; 76   : 		UINT_PTR nElementsLeft;
; 77   : 
; 78   : 		nElementsLeft = nCount;

  0004b	b8 01 00 00 00	 mov	 eax, 1
  00050	89 45 fc	 mov	 DWORD PTR _nElementsLeft$1$[ebp], eax
$LL16@Serialize:

; 80   : 		while( nElementsLeft > 0 )
; 81   : 		{
; 82   : 			UINT nElementsToWrite;
; 83   : 
; 84   : 			nElementsToWrite = UINT(__min(nElementsLeft, INT_MAX/sizeof(TYPE)));

  00053	bb ff ff ff 1f	 mov	 ebx, 536870911		; 1fffffffH
  00058	3b c3		 cmp	 eax, ebx
  0005a	0f 42 d8	 cmovb	 ebx, eax

; 85   : 			ar.Write(pData, nElementsToWrite*sizeof(TYPE));

  0005d	8d 3c 9d 00 00
	00 00		 lea	 edi, DWORD PTR [ebx*4]
  00064	57		 push	 edi
  00065	56		 push	 esi
  00066	e8 00 00 00 00	 call	 ?Write@CArchive@@QAEXPBXI@Z ; CArchive::Write

; 86   : 			nElementsLeft -= nElementsToWrite;

  0006b	8b 45 fc	 mov	 eax, DWORD PTR _nElementsLeft$1$[ebp]

; 87   : 			pData += nElementsToWrite;

  0006e	03 f7		 add	 esi, edi
  00070	8b 4d 08	 mov	 ecx, DWORD PTR _ar$[ebp]
  00073	2b c3		 sub	 eax, ebx
  00075	89 45 fc	 mov	 DWORD PTR _nElementsLeft$1$[ebp], eax
  00078	85 c0		 test	 eax, eax
  0007a	75 d7		 jne	 SHORT $LL16@Serialize

; 88   : 		}
; 89   : 	}

  0007c	eb 35		 jmp	 SHORT $LN2@Serialize
$LN21@Serialize:

; 90   : 	else
; 91   : 	{
; 92   : 		TYPE* pData;
; 93   : 		UINT_PTR nElementsLeft;
; 94   : 
; 95   : 		nElementsLeft = nCount;

  0007e	bf 01 00 00 00	 mov	 edi, 1
$LL18@Serialize:

; 98   : 		{
; 99   : 			UINT nElementsToRead;
; 100  : 
; 101  : 			nElementsToRead = UINT(__min(nElementsLeft, INT_MAX/sizeof(TYPE)));

  00083	bb ff ff ff 1f	 mov	 ebx, 536870911		; 1fffffffH
  00088	3b fb		 cmp	 edi, ebx
  0008a	0f 42 df	 cmovb	 ebx, edi

; 102  : 			ar.EnsureRead(pData, nElementsToRead*sizeof(TYPE));

  0008d	8d 04 9d 00 00
	00 00		 lea	 eax, DWORD PTR [ebx*4]
; File C:\Program Files (x86)\Microsoft Visual Studio\2019\Community\VC\Tools\MSVC\14.29.30133\atlmfc\include\afx.inl

; 399  : 	UINT nRead=Read(lpBuf, nCount);

  00094	50		 push	 eax
  00095	56		 push	 esi
  00096	e8 00 00 00 00	 call	 ?Read@CArchive@@QAEIPAXI@Z ; CArchive::Read

; 400  : 	if(nRead!=nCount)

  0009b	8d 0c 9d 00 00
	00 00		 lea	 ecx, DWORD PTR [ebx*4]
  000a2	3b c1		 cmp	 eax, ecx
  000a4	0f 85 d6 00 00
	00		 jne	 $LN59@Serialize
; File C:\Program Files (x86)\Microsoft Visual Studio\2019\Community\VC\Tools\MSVC\14.29.30133\atlmfc\include\afxtempl.h

; 97   : 		while( nElementsLeft > 0 )

  000aa	03 f1		 add	 esi, ecx
  000ac	8b 4d 08	 mov	 ecx, DWORD PTR _ar$[ebp]

; 103  : 			nElementsLeft -= nElementsToRead;

  000af	2b fb		 sub	 edi, ebx
  000b1	75 d0		 jne	 SHORT $LL18@Serialize
$LN2@Serialize:

; 1177 : 		for (CNode* pNode = m_pNodeHead; pNode != NULL; pNode = pNode->pNext)

  000b3	8b 45 f8	 mov	 eax, DWORD PTR _pNode$1$[ebp]
  000b6	8b 00		 mov	 eax, DWORD PTR [eax]
  000b8	89 45 f8	 mov	 DWORD PTR _pNode$1$[ebp], eax
  000bb	85 c0		 test	 eax, eax
  000bd	0f 85 71 ff ff
	ff		 jne	 $LL4@Serialize

; 1197 : 		}
; 1198 : 	}
; 1199 : }

  000c3	5f		 pop	 edi
  000c4	5e		 pop	 esi
  000c5	5b		 pop	 ebx
  000c6	8b e5		 mov	 esp, ebp
  000c8	5d		 pop	 ebp
  000c9	c2 04 00	 ret	 4
$LN7@Serialize:

; 1186 : 			SerializeElements<TYPE>(ar, pData, 1);
; 1187 : 		}
; 1188 : 	}
; 1189 : 	else
; 1190 : 	{
; 1191 : 		DWORD_PTR nNewCount = ar.ReadCount();

  000cc	e8 00 00 00 00	 call	 ?ReadCount@CArchive@@QAEKXZ ; CArchive::ReadCount

; 1192 : 		while (nNewCount--)

  000d1	85 c0		 test	 eax, eax
  000d3	0f 84 9e 00 00
	00		 je	 $LN68@Serialize
  000d9	0f 1f 80 00 00
	00 00		 npad	 7
$LL5@Serialize:
  000e0	48		 dec	 eax
  000e1	89 45 f0	 mov	 DWORD PTR _nNewCount$1$[ebp], eax
; File C:\Program Files (x86)\Microsoft Visual Studio\2019\Community\VC\Tools\MSVC\14.29.30133\atlmfc\include\afx.inl

; 212  : 	{ return (m_nMode & CArchive::load) == 0; }

  000e4	8b 45 08	 mov	 eax, DWORD PTR _ar$[ebp]
  000e7	8b 48 18	 mov	 ecx, DWORD PTR [eax+24]
  000ea	f7 d1		 not	 ecx
  000ec	f6 c1 01	 test	 cl, 1
; File C:\Program Files (x86)\Microsoft Visual Studio\2019\Community\VC\Tools\MSVC\14.29.30133\atlmfc\include\afxtempl.h

; 73   : 	if (ar.IsStoring())

  000ef	74 3a		 je	 SHORT $LN42@Serialize

; 79   : 		pData = pElements;

  000f1	8d 4d f4	 lea	 ecx, DWORD PTR _newData$1[ebp]
  000f4	bb 01 00 00 00	 mov	 ebx, 1
  000f9	89 4d f8	 mov	 DWORD PTR _pData$1$[ebp], ecx
  000fc	0f 1f 40 00	 npad	 4
$LL37@Serialize:

; 80   : 		while( nElementsLeft > 0 )
; 81   : 		{
; 82   : 			UINT nElementsToWrite;
; 83   : 
; 84   : 			nElementsToWrite = UINT(__min(nElementsLeft, INT_MAX/sizeof(TYPE)));

  00100	bf ff ff ff 1f	 mov	 edi, 536870911		; 1fffffffH
  00105	3b df		 cmp	 ebx, edi
  00107	0f 42 fb	 cmovb	 edi, ebx

; 85   : 			ar.Write(pData, nElementsToWrite*sizeof(TYPE));

  0010a	8d 34 bd 00 00
	00 00		 lea	 esi, DWORD PTR [edi*4]
  00111	56		 push	 esi
  00112	51		 push	 ecx
  00113	8b c8		 mov	 ecx, eax
  00115	e8 00 00 00 00	 call	 ?Write@CArchive@@QAEXPBXI@Z ; CArchive::Write

; 87   : 			pData += nElementsToWrite;

  0011a	8b 4d f8	 mov	 ecx, DWORD PTR _pData$1$[ebp]
  0011d	8b 45 08	 mov	 eax, DWORD PTR _ar$[ebp]
  00120	03 ce		 add	 ecx, esi
  00122	89 4d f8	 mov	 DWORD PTR _pData$1$[ebp], ecx
  00125	2b df		 sub	 ebx, edi
  00127	75 d7		 jne	 SHORT $LL37@Serialize

; 88   : 		}
; 89   : 	}

  00129	eb 36		 jmp	 SHORT $LN40@Serialize
$LN42@Serialize:

; 90   : 	else
; 91   : 	{
; 92   : 		TYPE* pData;
; 93   : 		UINT_PTR nElementsLeft;
; 94   : 
; 95   : 		nElementsLeft = nCount;

  0012b	be 01 00 00 00	 mov	 esi, 1

; 96   : 		pData = pElements;

  00130	8d 5d f4	 lea	 ebx, DWORD PTR _newData$1[ebp]
$LL39@Serialize:

; 98   : 		{
; 99   : 			UINT nElementsToRead;
; 100  : 
; 101  : 			nElementsToRead = UINT(__min(nElementsLeft, INT_MAX/sizeof(TYPE)));

  00133	bf ff ff ff 1f	 mov	 edi, 536870911		; 1fffffffH
  00138	3b f7		 cmp	 esi, edi
  0013a	0f 42 fe	 cmovb	 edi, esi

; 102  : 			ar.EnsureRead(pData, nElementsToRead*sizeof(TYPE));

  0013d	8d 0c bd 00 00
	00 00		 lea	 ecx, DWORD PTR [edi*4]
; File C:\Program Files (x86)\Microsoft Visual Studio\2019\Community\VC\Tools\MSVC\14.29.30133\atlmfc\include\afx.inl

; 399  : 	UINT nRead=Read(lpBuf, nCount);

  00144	51		 push	 ecx
  00145	53		 push	 ebx
  00146	8b c8		 mov	 ecx, eax
  00148	e8 00 00 00 00	 call	 ?Read@CArchive@@QAEIPAXI@Z ; CArchive::Read

; 400  : 	if(nRead!=nCount)

  0014d	8d 0c bd 00 00
	00 00		 lea	 ecx, DWORD PTR [edi*4]
  00154	3b c1		 cmp	 eax, ecx
  00156	75 28		 jne	 SHORT $LN59@Serialize
; File C:\Program Files (x86)\Microsoft Visual Studio\2019\Community\VC\Tools\MSVC\14.29.30133\atlmfc\include\afxtempl.h

; 104  : 			pData += nElementsToRead;

  00158	8b 45 08	 mov	 eax, DWORD PTR _ar$[ebp]
  0015b	03 d9		 add	 ebx, ecx
  0015d	2b f7		 sub	 esi, edi
  0015f	75 d2		 jne	 SHORT $LL39@Serialize
$LN40@Serialize:

; 1193 : 		{
; 1194 : 			TYPE newData[1];
; 1195 : 			SerializeElements<TYPE>(ar, newData, 1);
; 1196 : 			AddTail(newData[0]);

  00161	ff 75 f4	 push	 DWORD PTR _newData$1[ebp]
  00164	8b 4d fc	 mov	 ecx, DWORD PTR _this$1$[ebp]
  00167	e8 00 00 00 00	 call	 ?AddTail@?$CList@PAVCPacket@@PAV1@@@QAEPAU__POSITION@@PAVCPacket@@@Z ; CList<CPacket *,CPacket *>::AddTail
  0016c	8b 45 f0	 mov	 eax, DWORD PTR _nNewCount$1$[ebp]
  0016f	85 c0		 test	 eax, eax
  00171	0f 85 69 ff ff
	ff		 jne	 $LL5@Serialize
$LN68@Serialize:
  00177	5f		 pop	 edi

; 1197 : 		}
; 1198 : 	}
; 1199 : }

  00178	5e		 pop	 esi
  00179	5b		 pop	 ebx
  0017a	8b e5		 mov	 esp, ebp
  0017c	5d		 pop	 ebp
  0017d	c2 04 00	 ret	 4
$LN59@Serialize:
  00180	6a 00		 push	 0
  00182	6a 03		 push	 3
  00184	e8 00 00 00 00	 call	 ?AfxThrowArchiveException@@YGXHPBD@Z ; AfxThrowArchiveException
$LN60@Serialize:

; 68   : 	ENSURE(nCount == 0 || pElements != NULL);

  00189	e8 00 00 00 00	 call	 ?AfxThrowInvalidArgException@@YGXXZ ; AfxThrowInvalidArgException
$LN85@Serialize:
  0018e	cc		 int	 3
?Serialize@?$CList@PAVCPacket@@PAV1@@@UAEXAAVCArchive@@@Z ENDP ; CList<CPacket *,CPacket *>::Serialize
_TEXT	ENDS
; Function compile flags: /Ogtp
; File C:\Program Files (x86)\Microsoft Visual Studio\2019\Community\VC\Tools\MSVC\14.29.30133\atlmfc\include\afxtempl.h
;	COMDAT ??1?$CList@PAVCPacket@@PAV1@@@UAE@XZ
_TEXT	SEGMENT
__$EHRec$ = -12						; size = 12
??1?$CList@PAVCPacket@@PAV1@@@UAE@XZ PROC		; CList<CPacket *,CPacket *>::~CList<CPacket *,CPacket *>, COMDAT
; _this$ = ecx

; 878  : {

  00000	55		 push	 ebp
  00001	8b ec		 mov	 ebp, esp
  00003	6a ff		 push	 -1
  00005	68 00 00 00 00	 push	 __ehhandler$??1?$CList@PAVCPacket@@PAV1@@@UAE@XZ
  0000a	64 a1 00 00 00
	00		 mov	 eax, DWORD PTR fs:0
  00010	50		 push	 eax
  00011	56		 push	 esi
  00012	a1 00 00 00 00	 mov	 eax, DWORD PTR ___security_cookie
  00017	33 c5		 xor	 eax, ebp
  00019	50		 push	 eax
  0001a	8d 45 f4	 lea	 eax, DWORD PTR __$EHRec$[ebp]
  0001d	64 a3 00 00 00
	00		 mov	 DWORD PTR fs:0, eax
  00023	8b f1		 mov	 esi, ecx

; 872  : 	m_pBlocks->FreeDataChain();

  00025	8b 4e 14	 mov	 ecx, DWORD PTR [esi+20]

; 878  : {

  00028	c7 06 00 00 00
	00		 mov	 DWORD PTR [esi], OFFSET ??_7?$CList@PAVCPacket@@PAV1@@@6B@

; 870  : 	m_nCount = 0;

  0002e	c7 46 0c 00 00
	00 00		 mov	 DWORD PTR [esi+12], 0

; 871  : 	m_pNodeHead = m_pNodeTail = m_pNodeFree = NULL;

  00035	c7 46 10 00 00
	00 00		 mov	 DWORD PTR [esi+16], 0
  0003c	c7 46 08 00 00
	00 00		 mov	 DWORD PTR [esi+8], 0
  00043	c7 46 04 00 00
	00 00		 mov	 DWORD PTR [esi+4], 0

; 872  : 	m_pBlocks->FreeDataChain();

  0004a	e8 00 00 00 00	 call	 ?FreeDataChain@CPlex@@QAEXXZ ; CPlex::FreeDataChain

; 873  : 	m_pBlocks = NULL;

  0004f	c7 46 14 00 00
	00 00		 mov	 DWORD PTR [esi+20], 0

; 879  : 	RemoveAll();
; 880  : 	ASSERT(m_nCount == 0);
; 881  : }

  00056	8b 4d f4	 mov	 ecx, DWORD PTR __$EHRec$[ebp]
  00059	64 89 0d 00 00
	00 00		 mov	 DWORD PTR fs:0, ecx
  00060	59		 pop	 ecx
  00061	5e		 pop	 esi
  00062	8b e5		 mov	 esp, ebp
  00064	5d		 pop	 ebp
  00065	c3		 ret	 0
  00066	cc		 int	 3
  00067	cc		 int	 3
  00068	cc		 int	 3
  00069	cc		 int	 3
  0006a	cc		 int	 3
_TEXT	ENDS
;	COMDAT text$x
text$x	SEGMENT
__ehhandler$??1?$CList@PAVCPacket@@PAV1@@@UAE@XZ:
  00000	90		 npad	 1
  00001	90		 npad	 1
  00002	8b 54 24 08	 mov	 edx, DWORD PTR [esp+8]
  00006	8d 42 0c	 lea	 eax, DWORD PTR [edx+12]
  00009	8b 4a f8	 mov	 ecx, DWORD PTR [edx-8]
  0000c	33 c8		 xor	 ecx, eax
  0000e	e8 00 00 00 00	 call	 @__security_check_cookie@4
  00013	b8 00 00 00 00	 mov	 eax, OFFSET __ehfuncinfo$??1?$CList@PAVCPacket@@PAV1@@@UAE@XZ
  00018	e9 00 00 00 00	 jmp	 ___CxxFrameHandler3
text$x	ENDS
??1?$CList@PAVCPacket@@PAV1@@@UAE@XZ ENDP		; CList<CPacket *,CPacket *>::~CList<CPacket *,CPacket *>
; Function compile flags: /Ogtp
; File C:\Program Files (x86)\Microsoft Visual Studio\2019\Community\VC\Tools\MSVC\14.29.30133\atlmfc\include\afxtempl.h
;	COMDAT ?NewNode@?$CList@PAVCPacket@@PAV1@@@IAEPAUCNode@1@PAU21@0@Z
_TEXT	SEGMENT
_pPrev$ = 8						; size = 4
_pNext$ = 12						; size = 4
?NewNode@?$CList@PAVCPacket@@PAV1@@@IAEPAUCNode@1@PAU21@0@Z PROC ; CList<CPacket *,CPacket *>::NewNode, COMDAT
; _this$ = ecx

; 901  : {

  00000	55		 push	 ebp
  00001	8b ec		 mov	 ebp, esp
  00003	56		 push	 esi
  00004	8b f1		 mov	 esi, ecx

; 902  : 	if (m_pNodeFree == NULL)

  00006	83 7e 10 00	 cmp	 DWORD PTR [esi+16], 0
  0000a	75 34		 jne	 SHORT $LN7@NewNode

; 903  : 	{
; 904  : 		// add another block
; 905  : 		CPlex* pNewBlock = CPlex::Create(m_pBlocks, m_nBlockSize,

  0000c	6a 0c		 push	 12			; 0000000cH
  0000e	ff 76 18	 push	 DWORD PTR [esi+24]
  00011	8d 46 14	 lea	 eax, DWORD PTR [esi+20]
  00014	50		 push	 eax
  00015	e8 00 00 00 00	 call	 ?Create@CPlex@@SGPAU1@AAPAU1@II@Z ; CPlex::Create

; 906  : 				 sizeof(CNode));
; 907  : 
; 908  : 		// chain them into free list
; 909  : 		CNode* pNode = (CNode*) pNewBlock->data();
; 910  : 		// free in reverse order to make it easier to debug
; 911  : 		pNode += m_nBlockSize - 1;

  0001a	8b 56 18	 mov	 edx, DWORD PTR [esi+24]
  0001d	83 c0 08	 add	 eax, 8
  00020	8d 0c 52	 lea	 ecx, DWORD PTR [edx+edx*2]
  00023	8d 04 88	 lea	 eax, DWORD PTR [eax+ecx*4]
  00026	83 c0 f4	 add	 eax, -12		; fffffff4H

; 912  : 		for (INT_PTR i = m_nBlockSize-1; i >= 0; i--, pNode--)

  00029	83 c2 ff	 add	 edx, -1
  0002c	78 12		 js	 SHORT $LN7@NewNode
  0002e	66 90		 npad	 2
$LL4@NewNode:

; 913  : 		{
; 914  : 			pNode->pNext = m_pNodeFree;

  00030	8b 4e 10	 mov	 ecx, DWORD PTR [esi+16]
  00033	89 08		 mov	 DWORD PTR [eax], ecx

; 915  : 			m_pNodeFree = pNode;

  00035	89 46 10	 mov	 DWORD PTR [esi+16], eax
  00038	83 e8 0c	 sub	 eax, 12			; 0000000cH
  0003b	83 ea 01	 sub	 edx, 1
  0003e	79 f0		 jns	 SHORT $LL4@NewNode
$LN7@NewNode:

; 916  : 		}
; 917  : 	}
; 918  : 	ENSURE(m_pNodeFree != NULL);  // we must have something

  00040	8b 46 10	 mov	 eax, DWORD PTR [esi+16]
  00043	85 c0		 test	 eax, eax
  00045	74 18		 je	 SHORT $LN17@NewNode

; 919  : 
; 920  : 	CList::CNode* pNode = m_pNodeFree;
; 921  : 	m_pNodeFree = m_pNodeFree->pNext;

  00047	8b 08		 mov	 ecx, DWORD PTR [eax]
  00049	89 4e 10	 mov	 DWORD PTR [esi+16], ecx

; 922  : 	pNode->pPrev = pPrev;

  0004c	8b 4d 08	 mov	 ecx, DWORD PTR _pPrev$[ebp]
  0004f	89 48 04	 mov	 DWORD PTR [eax+4], ecx

; 923  : 	pNode->pNext = pNext;

  00052	8b 4d 0c	 mov	 ecx, DWORD PTR _pNext$[ebp]
  00055	89 08		 mov	 DWORD PTR [eax], ecx

; 924  : 	m_nCount++;

  00057	ff 46 0c	 inc	 DWORD PTR [esi+12]

; 925  : 	ASSERT(m_nCount > 0);  // make sure we don't overflow
; 926  : 
; 927  : #pragma push_macro("new")
; 928  : #undef new
; 929  : 	::new( (void*)( &pNode->data ) ) TYPE;
; 930  : #pragma pop_macro("new")
; 931  : 	return pNode;

  0005a	5e		 pop	 esi

; 932  : }

  0005b	5d		 pop	 ebp
  0005c	c2 08 00	 ret	 8
$LN17@NewNode:

; 916  : 		}
; 917  : 	}
; 918  : 	ENSURE(m_pNodeFree != NULL);  // we must have something

  0005f	e8 00 00 00 00	 call	 ?AfxThrowInvalidArgException@@YGXXZ ; AfxThrowInvalidArgException
$LN15@NewNode:
  00064	cc		 int	 3
?NewNode@?$CList@PAVCPacket@@PAV1@@@IAEPAUCNode@1@PAU21@0@Z ENDP ; CList<CPacket *,CPacket *>::NewNode
_TEXT	ENDS
; Function compile flags: /Ogtp
; File C:\Program Files (x86)\Microsoft Visual Studio\2019\Community\VC\Tools\MSVC\14.29.30133\atlmfc\include\afxtempl.h
;	COMDAT ?RemoveAll@?$CList@PAVCPacket@@PAV1@@@QAEXXZ
_TEXT	SEGMENT
?RemoveAll@?$CList@PAVCPacket@@PAV1@@@QAEXXZ PROC	; CList<CPacket *,CPacket *>::RemoveAll, COMDAT
; _this$ = ecx

; 862  : {

  00000	56		 push	 esi
  00001	8b f1		 mov	 esi, ecx

; 863  : 	ASSERT_VALID(this);
; 864  : 
; 865  : 	// destroy elements
; 866  : 	CNode* pNode;
; 867  : 	for (pNode = m_pNodeHead; pNode != NULL; pNode = pNode->pNext)
; 868  : 		pNode->data.~TYPE();
; 869  : 
; 870  : 	m_nCount = 0;
; 871  : 	m_pNodeHead = m_pNodeTail = m_pNodeFree = NULL;
; 872  : 	m_pBlocks->FreeDataChain();

  00003	8b 4e 14	 mov	 ecx, DWORD PTR [esi+20]
  00006	c7 46 0c 00 00
	00 00		 mov	 DWORD PTR [esi+12], 0
  0000d	c7 46 10 00 00
	00 00		 mov	 DWORD PTR [esi+16], 0
  00014	c7 46 08 00 00
	00 00		 mov	 DWORD PTR [esi+8], 0
  0001b	c7 46 04 00 00
	00 00		 mov	 DWORD PTR [esi+4], 0
  00022	e8 00 00 00 00	 call	 ?FreeDataChain@CPlex@@QAEXXZ ; CPlex::FreeDataChain

; 873  : 	m_pBlocks = NULL;

  00027	c7 46 14 00 00
	00 00		 mov	 DWORD PTR [esi+20], 0
  0002e	5e		 pop	 esi

; 874  : }

  0002f	c3		 ret	 0
?RemoveAll@?$CList@PAVCPacket@@PAV1@@@QAEXXZ ENDP	; CList<CPacket *,CPacket *>::RemoveAll
_TEXT	ENDS
; Function compile flags: /Ogtp
; File C:\Program Files (x86)\Microsoft Visual Studio\2019\Community\VC\Tools\MSVC\14.29.30133\atlmfc\include\afxtempl.h
;	COMDAT ?AddTail@?$CList@PAVCPacket@@PAV1@@@QAEPAU__POSITION@@PAVCPacket@@@Z
_TEXT	SEGMENT
_newElement$ = 8					; size = 4
?AddTail@?$CList@PAVCPacket@@PAV1@@@QAEPAU__POSITION@@PAVCPacket@@@Z PROC ; CList<CPacket *,CPacket *>::AddTail, COMDAT
; _this$ = ecx

; 965  : {

  00000	55		 push	 ebp
  00001	8b ec		 mov	 ebp, esp
  00003	56		 push	 esi
  00004	8b f1		 mov	 esi, ecx
  00006	57		 push	 edi

; 902  : 	if (m_pNodeFree == NULL)

  00007	83 7e 10 00	 cmp	 DWORD PTR [esi+16], 0

; 966  : 	ASSERT_VALID(this);
; 967  : 
; 968  : 	CNode* pNewNode = NewNode(m_pNodeTail, NULL);

  0000b	8b 7e 08	 mov	 edi, DWORD PTR [esi+8]

; 902  : 	if (m_pNodeFree == NULL)

  0000e	75 32		 jne	 SHORT $LN11@AddTail

; 903  : 	{
; 904  : 		// add another block
; 905  : 		CPlex* pNewBlock = CPlex::Create(m_pBlocks, m_nBlockSize,

  00010	6a 0c		 push	 12			; 0000000cH
  00012	ff 76 18	 push	 DWORD PTR [esi+24]
  00015	8d 46 14	 lea	 eax, DWORD PTR [esi+20]
  00018	50		 push	 eax
  00019	e8 00 00 00 00	 call	 ?Create@CPlex@@SGPAU1@AAPAU1@II@Z ; CPlex::Create

; 906  : 				 sizeof(CNode));
; 907  : 
; 908  : 		// chain them into free list
; 909  : 		CNode* pNode = (CNode*) pNewBlock->data();
; 910  : 		// free in reverse order to make it easier to debug
; 911  : 		pNode += m_nBlockSize - 1;

  0001e	8b 56 18	 mov	 edx, DWORD PTR [esi+24]
  00021	83 c0 08	 add	 eax, 8
  00024	8d 4a ff	 lea	 ecx, DWORD PTR [edx-1]

; 912  : 		for (INT_PTR i = m_nBlockSize-1; i >= 0; i--, pNode--)

  00027	83 c2 ff	 add	 edx, -1
  0002a	8d 0c 49	 lea	 ecx, DWORD PTR [ecx+ecx*2]
  0002d	8d 0c 88	 lea	 ecx, DWORD PTR [eax+ecx*4]
  00030	78 10		 js	 SHORT $LN11@AddTail
$LL8@AddTail:

; 913  : 		{
; 914  : 			pNode->pNext = m_pNodeFree;

  00032	8b 46 10	 mov	 eax, DWORD PTR [esi+16]
  00035	89 01		 mov	 DWORD PTR [ecx], eax

; 915  : 			m_pNodeFree = pNode;

  00037	89 4e 10	 mov	 DWORD PTR [esi+16], ecx
  0003a	83 e9 0c	 sub	 ecx, 12			; 0000000cH
  0003d	83 ea 01	 sub	 edx, 1
  00040	79 f0		 jns	 SHORT $LL8@AddTail
$LN11@AddTail:

; 916  : 		}
; 917  : 	}
; 918  : 	ENSURE(m_pNodeFree != NULL);  // we must have something

  00042	8b 4e 10	 mov	 ecx, DWORD PTR [esi+16]
  00045	85 c9		 test	 ecx, ecx
  00047	74 39		 je	 SHORT $LN22@AddTail

; 919  : 
; 920  : 	CList::CNode* pNode = m_pNodeFree;
; 921  : 	m_pNodeFree = m_pNodeFree->pNext;

  00049	8b 01		 mov	 eax, DWORD PTR [ecx]
  0004b	89 46 10	 mov	 DWORD PTR [esi+16], eax

; 969  : 	pNewNode->data = newElement;

  0004e	8b 45 08	 mov	 eax, DWORD PTR _newElement$[ebp]

; 922  : 	pNode->pPrev = pPrev;

  00051	89 79 04	 mov	 DWORD PTR [ecx+4], edi

; 923  : 	pNode->pNext = pNext;

  00054	c7 01 00 00 00
	00		 mov	 DWORD PTR [ecx], 0

; 924  : 	m_nCount++;

  0005a	ff 46 0c	 inc	 DWORD PTR [esi+12]

; 969  : 	pNewNode->data = newElement;

  0005d	89 41 08	 mov	 DWORD PTR [ecx+8], eax

; 970  : 	if (m_pNodeTail != NULL)

  00060	8b 46 08	 mov	 eax, DWORD PTR [esi+8]
  00063	85 c0		 test	 eax, eax
  00065	74 0d		 je	 SHORT $LN2@AddTail

; 971  : 		m_pNodeTail->pNext = pNewNode;

  00067	89 08		 mov	 DWORD PTR [eax], ecx

; 972  : 	else
; 973  : 		m_pNodeHead = pNewNode;
; 974  : 	m_pNodeTail = pNewNode;
; 975  : 	return (POSITION) pNewNode;

  00069	8b c1		 mov	 eax, ecx
  0006b	5f		 pop	 edi
  0006c	89 4e 08	 mov	 DWORD PTR [esi+8], ecx
  0006f	5e		 pop	 esi

; 976  : }

  00070	5d		 pop	 ebp
  00071	c2 04 00	 ret	 4
$LN2@AddTail:

; 972  : 	else
; 973  : 		m_pNodeHead = pNewNode;
; 974  : 	m_pNodeTail = pNewNode;
; 975  : 	return (POSITION) pNewNode;

  00074	5f		 pop	 edi
  00075	89 4e 04	 mov	 DWORD PTR [esi+4], ecx
  00078	8b c1		 mov	 eax, ecx
  0007a	89 4e 08	 mov	 DWORD PTR [esi+8], ecx
  0007d	5e		 pop	 esi

; 976  : }

  0007e	5d		 pop	 ebp
  0007f	c2 04 00	 ret	 4
$LN22@AddTail:

; 918  : 	ENSURE(m_pNodeFree != NULL);  // we must have something

  00082	e8 00 00 00 00	 call	 ?AfxThrowInvalidArgException@@YGXXZ ; AfxThrowInvalidArgException
$LN20@AddTail:
  00087	cc		 int	 3
?AddTail@?$CList@PAVCPacket@@PAV1@@@QAEPAU__POSITION@@PAVCPacket@@@Z ENDP ; CList<CPacket *,CPacket *>::AddTail
_TEXT	ENDS
; Function compile flags: /Ogtp
; File C:\Program Files (x86)\Microsoft Visual Studio\2019\Community\VC\Tools\MSVC\14.29.30133\atlmfc\include\afxtempl.h
;	COMDAT ??0?$CList@PAVCPacket@@PAV1@@@QAE@H@Z
_TEXT	SEGMENT
_nBlockSize$ = 8					; size = 4
??0?$CList@PAVCPacket@@PAV1@@@QAE@H@Z PROC		; CList<CPacket *,CPacket *>::CList<CPacket *,CPacket *>, COMDAT
; _this$ = ecx

; 851  : {

  00000	55		 push	 ebp
  00001	8b ec		 mov	 ebp, esp

; 852  : 	ASSERT(nBlockSize > 0);
; 853  : 
; 854  : 	m_nCount = 0;
; 855  : 	m_pNodeHead = m_pNodeTail = m_pNodeFree = NULL;
; 856  : 	m_pBlocks = NULL;
; 857  : 	m_nBlockSize = nBlockSize;

  00003	8b 45 08	 mov	 eax, DWORD PTR _nBlockSize$[ebp]
  00006	89 41 18	 mov	 DWORD PTR [ecx+24], eax

; 858  : }

  00009	8b c1		 mov	 eax, ecx
  0000b	c7 01 00 00 00
	00		 mov	 DWORD PTR [ecx], OFFSET ??_7?$CList@PAVCPacket@@PAV1@@@6B@
  00011	c7 41 0c 00 00
	00 00		 mov	 DWORD PTR [ecx+12], 0
  00018	c7 41 10 00 00
	00 00		 mov	 DWORD PTR [ecx+16], 0
  0001f	c7 41 08 00 00
	00 00		 mov	 DWORD PTR [ecx+8], 0
  00026	c7 41 04 00 00
	00 00		 mov	 DWORD PTR [ecx+4], 0
  0002d	c7 41 14 00 00
	00 00		 mov	 DWORD PTR [ecx+20], 0
  00034	5d		 pop	 ebp
  00035	c2 04 00	 ret	 4
??0?$CList@PAVCPacket@@PAV1@@@QAE@H@Z ENDP		; CList<CPacket *,CPacket *>::CList<CPacket *,CPacket *>
_TEXT	ENDS
; Function compile flags: /Ogtp
; File C:\Program Files (x86)\Microsoft Visual Studio\2019\Community\VC\Tools\MSVC\14.29.30133\atlmfc\include\afx.inl
;	COMDAT ?Dump@CObject@@UBEXAAVCDumpContext@@@Z
_TEXT	SEGMENT
___formal$ = 8						; size = 4
?Dump@CObject@@UBEXAAVCDumpContext@@@Z PROC		; CObject::Dump, COMDAT
; _this$ = ecx

; 122  : 	{ /* no dumping in release builds */ }

  00000	c2 04 00	 ret	 4
?Dump@CObject@@UBEXAAVCDumpContext@@@Z ENDP		; CObject::Dump
_TEXT	ENDS
; Function compile flags: /Ogtp
; File C:\Program Files (x86)\Microsoft Visual Studio\2019\Community\VC\Tools\MSVC\14.29.30133\atlmfc\include\afx.inl
;	COMDAT ?AssertValid@CObject@@UBEXXZ
_TEXT	SEGMENT
?AssertValid@CObject@@UBEXXZ PROC			; CObject::AssertValid, COMDAT
; _this$ = ecx

; 120  : 	{ /* no asserts in release builds */ }

  00000	c2 00 00	 ret	 0
?AssertValid@CObject@@UBEXXZ ENDP			; CObject::AssertValid
_TEXT	ENDS
; Function compile flags: /Ogtp
; File C:\Program Files (x86)\Microsoft Visual Studio\2019\Community\VC\Tools\MSVC\14.29.30133\atlmfc\include\afx.inl
;	COMDAT ?Serialize@CObject@@UAEXAAVCArchive@@@Z
_TEXT	SEGMENT
___formal$ = 8						; size = 4
?Serialize@CObject@@UAEXAAVCArchive@@@Z PROC		; CObject::Serialize, COMDAT
; _this$ = ecx

; 106  : 	{ /* CObject does not serialize anything by default */ }

  00000	c2 04 00	 ret	 4
?Serialize@CObject@@UAEXAAVCArchive@@@Z ENDP		; CObject::Serialize
_TEXT	ENDS
; Function compile flags: /Ogtp
; File C:\Program Files (x86)\Microsoft Visual Studio\2019\Community\VC\Tools\MSVC\14.29.30133\atlmfc\include\afx.inl
;	COMDAT ??3CObject@@SGXPAX@Z
_TEXT	SEGMENT
_p$ = 8							; size = 4
??3CObject@@SGXPAX@Z PROC				; CObject::operator delete, COMDAT

; 112  : 	{ ::operator delete(p); }

  00000	55		 push	 ebp
  00001	8b ec		 mov	 ebp, esp
  00003	ff 75 08	 push	 DWORD PTR _p$[ebp]
  00006	e8 00 00 00 00	 call	 ??3@YAXPAX@Z		; operator delete
  0000b	83 c4 04	 add	 esp, 4
  0000e	5d		 pop	 ebp
  0000f	c2 04 00	 ret	 4
??3CObject@@SGXPAX@Z ENDP				; CObject::operator delete
_TEXT	ENDS
; Function compile flags: /Ogtp
; File C:\Program Files (x86)\Microsoft Visual Studio\2019\Community\VC\Tools\MSVC\14.29.30133\atlmfc\include\afx.inl
;	COMDAT ??1CObject@@UAE@XZ
_TEXT	SEGMENT
??1CObject@@UAE@XZ PROC					; CObject::~CObject, COMDAT
; _this$ = ecx

; 104  : 	{ }

  00000	c2 00 00	 ret	 0
??1CObject@@UAE@XZ ENDP					; CObject::~CObject
_TEXT	ENDS
; Function compile flags: /Ogtp
; File D:\git\src\IBK\IBK_DRFN\ProjSrc\SrcChartEx\ChartOCX\ChartObject\SubGraph.cpp
;	COMDAT ?__empty_global_delete@@YAXPAXI@Z
_TEXT	SEGMENT
___formal$ = 8						; size = 4
___formal$ = 12						; size = 4
?__empty_global_delete@@YAXPAXI@Z PROC			; __empty_global_delete, COMDAT

  00000	c2 00 00	 ret	 0
?__empty_global_delete@@YAXPAXI@Z ENDP			; __empty_global_delete
_TEXT	ENDS
; Function compile flags: /Ogtp
; File D:\git\src\IBK\IBK_DRFN\ProjSrc\SrcChartEx\ChartOCX\ChartObject\SubGraph.cpp
;	COMDAT ?__empty_global_delete@@YAXPAX@Z
_TEXT	SEGMENT
___formal$ = 8						; size = 4
?__empty_global_delete@@YAXPAX@Z PROC			; __empty_global_delete, COMDAT

  00000	c2 00 00	 ret	 0
?__empty_global_delete@@YAXPAX@Z ENDP			; __empty_global_delete
_TEXT	ENDS
END
