; Listing generated by Microsoft (R) Optimizing Compiler Version 19.29.30145.0 

	TITLE	D:\git\src\IBK\IBK_DRFN\#DRfn-CS\_Obj\ChartObject\VertScaleGroup.obj
	.686P
	.XMM
	include listing.inc
	.model	flat

INCLUDELIB MSVCRT
INCLUDELIB OLDNAMES

CONST	SEGMENT
?_Fake_alloc@std@@3U_Fake_allocator@1@B	ORG $+1		; std::_Fake_alloc
CONST	ENDS
PUBLIC	??_H@YGXPAXIIP6EPAX0@Z@Z			; `vector constructor iterator'
PUBLIC	?__empty_global_delete@@YAXPAX@Z		; __empty_global_delete
PUBLIC	?__empty_global_delete@@YAXPAXI@Z		; __empty_global_delete
PUBLIC	??1CObject@@UAE@XZ				; CObject::~CObject
PUBLIC	??3CObject@@SGXPAX@Z				; CObject::operator delete
PUBLIC	?Serialize@CObject@@UAEXAAVCArchive@@@Z		; CObject::Serialize
PUBLIC	?AssertValid@CObject@@UBEXXZ			; CObject::AssertValid
PUBLIC	?Dump@CObject@@UBEXAAVCDumpContext@@@Z		; CObject::Dump
PUBLIC	??9ATL@@YA_NABV?$CStringT@DV?$StrTraitMFC_DLL@DV?$ChTraitsCRT@D@ATL@@@@@0@0@Z ; ATL::operator!=
PUBLIC	??0CVertScaleGroup@@QAE@PAVCMainBlockBaseData@@PAVCVertScaleGroupList@@@Z ; CVertScaleGroup::CVertScaleGroup
PUBLIC	??0CVertScaleGroup@@QAE@PAVCMainBlockBaseData@@PAVCVertScaleGroupList@@PAD@Z ; CVertScaleGroup::CVertScaleGroup
PUBLIC	??0CVertScaleGroup@@QAE@PAXPAVCMainBlockBaseData@@PAVCVertScaleGroupList@@PAD@Z ; CVertScaleGroup::CVertScaleGroup
PUBLIC	??0CVertScaleGroup@@QAE@PAVCMainBlockBaseData@@PAVCVertScaleGroupList@@ABVCVerticalScale@@@Z ; CVertScaleGroup::CVertScaleGroup
PUBLIC	??1CVertScaleGroup@@MAE@XZ			; CVertScaleGroup::~CVertScaleGroup
PUBLIC	?DeleteAllIndicator@CVertScaleGroup@@QAEHPBD@Z	; CVertScaleGroup::DeleteAllIndicator
PUBLIC	?FindGraph@CVertScaleGroup@@QBEHPAVCGraphSearchInfo@@@Z ; CVertScaleGroup::FindGraph
PUBLIC	?FindGraph@CVertScaleGroup@@QBEHPAXPAVCGraphSearchInfo@@@Z ; CVertScaleGroup::FindGraph
PUBLIC	?GetSubGraph@CVertScaleGroup@@QBEPAVCSubGraph@@HH@Z ; CVertScaleGroup::GetSubGraph
PUBLIC	?ShowIndicator@CVertScaleGroup@@QAEXPBDHH@Z	; CVertScaleGroup::ShowIndicator
PUBLIC	?MakeVertScaleGroup@CVertScaleGroup@@SAPAV1@PAVCMainBlockBaseData@@PAVCVertScaleGroupList@@@Z ; CVertScaleGroup::MakeVertScaleGroup
PUBLIC	?MakeVertScaleGroup@CVertScaleGroup@@SAPAV1@PAVCMainBlockBaseData@@PAVCVertScaleGroupList@@PAD@Z ; CVertScaleGroup::MakeVertScaleGroup
PUBLIC	?MakeVertScaleGroup@CVertScaleGroup@@SAPAV1@PAXPAVCMainBlockBaseData@@PAVCVertScaleGroupList@@PAD@Z ; CVertScaleGroup::MakeVertScaleGroup
PUBLIC	?MakeVertScaleGroup@CVertScaleGroup@@SAPAV1@PAVCMainBlockBaseData@@PAVCVertScaleGroupList@@ABVCVerticalScale@@@Z ; CVertScaleGroup::MakeVertScaleGroup
PUBLIC	?Delete@CVertScaleGroup@@SAXPAV1@@Z		; CVertScaleGroup::Delete
PUBLIC	?FindBaseGraphForDrawingVertScaleData@CVertScaleGroup@@QBEPAVCGraphImp@@XZ ; CVertScaleGroup::FindBaseGraphForDrawingVertScaleData
PUBLIC	?MakeNewGraph@CVertScaleGroup@@AAEPAVCGraphImp@@PAD@Z ; CVertScaleGroup::MakeNewGraph
PUBLIC	?MakeNewGraph@CVertScaleGroup@@AAEPAVCGraphImp@@PAXPAD@Z ; CVertScaleGroup::MakeNewGraph
PUBLIC	?DeleteEmptyGroup@CVertScaleGroup@@AAE_NXZ	; CVertScaleGroup::DeleteEmptyGroup
PUBLIC	?DeleteGraph@CVertScaleGroup@@AAEXPAVCGraphImp@@0@Z ; CVertScaleGroup::DeleteGraph
PUBLIC	?DeleteGraphNoDeletePacket@CVertScaleGroup@@AAEXPAVCGraphImp@@@Z ; CVertScaleGroup::DeleteGraphNoDeletePacket
PUBLIC	?ChangeGraph@CVertScaleGroup@@AAEXPAVCGraphImp@@0@Z ; CVertScaleGroup::ChangeGraph
PUBLIC	?ModifyGraph@CVertScaleGroup@@AAEXPAVCGraphImp@@PAD@Z ; CVertScaleGroup::ModifyGraph
PUBLIC	?GetDisplayDataMinMaxInAll@CVertScaleGroup@@ABE?AVCDisplayDataMinMax@@XZ ; CVertScaleGroup::GetDisplayDataMinMaxInAll
PUBLIC	?GetDisplayDataMinMaxInOnlyPrice@CVertScaleGroup@@ABE_NAAVCDisplayDataMinMax@@@Z ; CVertScaleGroup::GetDisplayDataMinMaxInOnlyPrice
PUBLIC	?GetDisplayDataMinMax@CVertScaleGroup@@ABEXPAVCGraphImp@@AAVCDisplayDataMinMax@@@Z ; CVertScaleGroup::GetDisplayDataMinMax
PUBLIC	?SetDrawingVertScaleData@CVertScaleGroup@@AAEXPAVCDrawingVertScaleData@@@Z ; CVertScaleGroup::SetDrawingVertScaleData
PUBLIC	?InitializeDrawingVertScaleData@CVertScaleGroup@@AAEXPAVCDrawingVertScaleData@@@Z ; CVertScaleGroup::InitializeDrawingVertScaleData
PUBLIC	?IsVertScaleDrawing@CVertScaleGroup@@ABE_NXZ	; CVertScaleGroup::IsVertScaleDrawing
PUBLIC	?DoesOnlyPriceVertScale@CVertScaleGroup@@ABE_NXZ ; CVertScaleGroup::DoesOnlyPriceVertScale
PUBLIC	?GetNext@?$_CTypedPtrList@VCObList@@PAVCGraphImp@@@@QAEAAPAVCGraphImp@@AAPAU__POSITION@@@Z ; _CTypedPtrList<CObList,CGraphImp *>::GetNext
PUBLIC	?GetNext@?$_CTypedPtrList@VCObList@@PAVCGraphImp@@@@QBEPAVCGraphImp@@AAPAU__POSITION@@@Z ; _CTypedPtrList<CObList,CGraphImp *>::GetNext
PUBLIC	??_G?$_CTypedPtrList@VCObList@@PAVCGraphImp@@@@UAEPAXI@Z ; _CTypedPtrList<CObList,CGraphImp *>::`scalar deleting destructor'
PUBLIC	??1?$CTypedPtrList@VCObList@@PAVCGraphImp@@@@UAE@XZ ; CTypedPtrList<CObList,CGraphImp *>::~CTypedPtrList<CObList,CGraphImp *>
PUBLIC	??_G?$CTypedPtrList@VCObList@@PAVCGraphImp@@@@UAEPAXI@Z ; CTypedPtrList<CObList,CGraphImp *>::`scalar deleting destructor'
PUBLIC	?MakeGraphs@CVertScaleGroup@@QAEXPAD@Z		; CVertScaleGroup::MakeGraphs
PUBLIC	?MakeGraphs@CVertScaleGroup@@QAEXPAXPAD@Z	; CVertScaleGroup::MakeGraphs
PUBLIC	?MakeGraph@CVertScaleGroup@@QAE_NPAD_N@Z	; CVertScaleGroup::MakeGraph
PUBLIC	?MakeGraph@CVertScaleGroup@@QAE_NPAXPAD_N@Z	; CVertScaleGroup::MakeGraph
PUBLIC	?DeleteGraphWithNotify@CVertScaleGroup@@QAE_NPAVCGraphImp@@_N@Z ; CVertScaleGroup::DeleteGraphWithNotify
PUBLIC	?DeleteGraph@CVertScaleGroup@@QAE_NPAVCGraphImp@@_N@Z ; CVertScaleGroup::DeleteGraph
PUBLIC	?DeleteAll@CVertScaleGroup@@QAEXXZ		; CVertScaleGroup::DeleteAll
PUBLIC	?AddGraph@CVertScaleGroup@@QAEXPAVCGraphImp@@_N@Z ; CVertScaleGroup::AddGraph
PUBLIC	?RemoveAt@CVertScaleGroup@@QAE_NPAVCGraphImp@@_N@Z ; CVertScaleGroup::RemoveAt
PUBLIC	?MoveAllGraphs@CVertScaleGroup@@QAE_NAAVCVertScaleGroupList@@@Z ; CVertScaleGroup::MoveAllGraphs
PUBLIC	?MoveAllGraphs@CVertScaleGroup@@QAE_NPAV1@@Z	; CVertScaleGroup::MoveAllGraphs
PUBLIC	?ChangeGraphType@CVertScaleGroup@@QAE_NABV?$CStringT@DV?$StrTraitMFC_DLL@DV?$ChTraitsCRT@D@ATL@@@@@ATL@@ABW4GRAPHTYPE@CGraphBaseData@@ABVCGraphStyle@@ABVCGraphDrawStyle@@0@Z ; CVertScaleGroup::ChangeGraphType
PUBLIC	?ChangeSubGraphData@CVertScaleGroup@@QAE_NABV?$CStringT@DV?$StrTraitMFC_DLL@DV?$ChTraitsCRT@D@ATL@@@@@ATL@@0ABVCSubGraphData@@@Z ; CVertScaleGroup::ChangeSubGraphData
PUBLIC	?ChangeSubGraphPenThickness@CVertScaleGroup@@QAE_NABV?$CStringT@DV?$StrTraitMFC_DLL@DV?$ChTraitsCRT@D@ATL@@@@@ATL@@HABVCPenThickness@@@Z ; CVertScaleGroup::ChangeSubGraphPenThickness
PUBLIC	?ChangeSubGraphTitle@CVertScaleGroup@@QAE_NABV?$CStringT@DV?$StrTraitMFC_DLL@DV?$ChTraitsCRT@D@ATL@@@@@ATL@@0@Z ; CVertScaleGroup::ChangeSubGraphTitle
PUBLIC	?ChangeAllHeadSubGraphColor@CVertScaleGroup@@QBE_NABV?$CList@VCGraphColor@@AAV1@@@AAPAU__POSITION@@@Z ; CVertScaleGroup::ChangeAllHeadSubGraphColor
PUBLIC	?ModifyGraphDataInVertScaleGroup@CVertScaleGroup@@QAEXPAD_N@Z ; CVertScaleGroup::ModifyGraphDataInVertScaleGroup
PUBLIC	?ChangeAllIndicatorInfoFromGraphData@CVertScaleGroup@@QAE_NXZ ; CVertScaleGroup::ChangeAllIndicatorInfoFromGraphData
PUBLIC	?ChangeAllGraphDataFromIndicatorInfo@CVertScaleGroup@@QAEHH@Z ; CVertScaleGroup::ChangeAllGraphDataFromIndicatorInfo
PUBLIC	?ChangeAllMapDefaultIndicatorInfo@CVertScaleGroup@@QAE_NPAVCIndicatorList@@@Z ; CVertScaleGroup::ChangeAllMapDefaultIndicatorInfo
PUBLIC	?SetVertScaleGroupList@CVertScaleGroup@@QAEXPAVCVertScaleGroupList@@@Z ; CVertScaleGroup::SetVertScaleGroupList
PUBLIC	?SetMainBlockBaseData@CVertScaleGroup@@QAEXPAVCMainBlockBaseData@@@Z ; CVertScaleGroup::SetMainBlockBaseData
PUBLIC	?SetVerticalScale@CVertScaleGroup@@QAEXABVCVerticalScale@@@Z ; CVertScaleGroup::SetVerticalScale
PUBLIC	?SetAllGraphsHiding@CVertScaleGroup@@QAEX_N@Z	; CVertScaleGroup::SetAllGraphsHiding
PUBLIC	?SetSubGraphHiding@CVertScaleGroup@@QAE_NABV?$CStringT@DV?$StrTraitMFC_DLL@DV?$ChTraitsCRT@D@ATL@@@@@ATL@@_N@Z ; CVertScaleGroup::SetSubGraphHiding
PUBLIC	?SetSubGraphHiding@CVertScaleGroup@@QAE_NABV?$CStringT@DV?$StrTraitMFC_DLL@DV?$ChTraitsCRT@D@ATL@@@@@ATL@@H_N@Z ; CVertScaleGroup::SetSubGraphHiding
PUBLIC	?Initialize_IndicatorInfo@CVertScaleGroup@@QAEX_N@Z ; CVertScaleGroup::Initialize_IndicatorInfo
PUBLIC	?Initialize_AllPackets@CVertScaleGroup@@QAEX_N@Z ; CVertScaleGroup::Initialize_AllPackets
PUBLIC	?Initialize_Packet@CVertScaleGroup@@QAE_NABV?$CStringT@DV?$StrTraitMFC_DLL@DV?$ChTraitsCRT@D@ATL@@@@@ATL@@_N@Z ; CVertScaleGroup::Initialize_Packet
PUBLIC	?CalculateAllGraphs@CVertScaleGroup@@QAEXW4CALCULATETYPE@CCalculateBaseData@@@Z ; CVertScaleGroup::CalculateAllGraphs
PUBLIC	?CalculateAllGraphs@CVertScaleGroup@@QAE_NABV?$CList@V?$CStringT@DV?$StrTraitMFC_DLL@DV?$ChTraitsCRT@D@ATL@@@@@ATL@@V12@@@W4CALCULATETYPE@CCalculateBaseData@@_N@Z ; CVertScaleGroup::CalculateAllGraphs
PUBLIC	?CalculateDisplayDataMinMax@CVertScaleGroup@@QAEXXZ ; CVertScaleGroup::CalculateDisplayDataMinMax
PUBLIC	?GetMainChartFormulate@CVertScaleGroup@@QBEPAVCMainChartFormulate@@XZ ; CVertScaleGroup::GetMainChartFormulate
PUBLIC	?GetBlock@CVertScaleGroup@@QBEPAVCBlockImp@@XZ	; CVertScaleGroup::GetBlock
PUBLIC	?GetVertScaleGroupList@CVertScaleGroup@@QBEPAVCVertScaleGroupList@@XZ ; CVertScaleGroup::GetVertScaleGroupList
PUBLIC	?GetVertScale@CVertScaleGroup@@QAEAAVCVerticalScale@@XZ ; CVertScaleGroup::GetVertScale
PUBLIC	?GetVertScale@CVertScaleGroup@@QBEABVCVerticalScale@@XZ ; CVertScaleGroup::GetVertScale
PUBLIC	?GetVertScaleGroupAllData@CVertScaleGroup@@QBEXAAVCStringList@@@Z ; CVertScaleGroup::GetVertScaleGroupAllData
PUBLIC	?GetAllIndicatorName@CVertScaleGroup@@QBE_NAAV?$CList@V?$CStringT@DV?$StrTraitMFC_DLL@DV?$ChTraitsCRT@D@ATL@@@@@ATL@@V12@@@@Z ; CVertScaleGroup::GetAllIndicatorName
PUBLIC	?GetAllGraphName@CVertScaleGroup@@QBE_NAAV?$CList@V?$CStringT@DV?$StrTraitMFC_DLL@DV?$ChTraitsCRT@D@ATL@@@@@ATL@@V12@@@@Z ; CVertScaleGroup::GetAllGraphName
PUBLIC	?GetGraphCount@CVertScaleGroup@@QBEHXZ		; CVertScaleGroup::GetGraphCount
PUBLIC	?GetGraphsGraphName@CVertScaleGroup@@QBE?AV?$CStringT@DV?$StrTraitMFC_DLL@DV?$ChTraitsCRT@D@ATL@@@@@ATL@@XZ ; CVertScaleGroup::GetGraphsGraphName
PUBLIC	?GetAllHeadSubGraphColor@CVertScaleGroup@@QBE_NAAV?$CList@VCGraphColor@@AAV1@@@@Z ; CVertScaleGroup::GetAllHeadSubGraphColor
PUBLIC	?GetGraphColor1@CVertScaleGroup@@QBEKHH@Z	; CVertScaleGroup::GetGraphColor1
PUBLIC	?GetSubGraphTitleRegion@CVertScaleGroup@@QBE?AVCRect@@PAVCDC@@PBVCSubGraph@@ABV2@AAH3@Z ; CVertScaleGroup::GetSubGraphTitleRegion
PUBLIC	?GetLeftVertScaleRegionWidth@CVertScaleGroup@@QBEXPAVCDC@@AAHH@Z ; CVertScaleGroup::GetLeftVertScaleRegionWidth
PUBLIC	?GetRightVertScaleRegionWidth@CVertScaleGroup@@QBEXPAVCDC@@AAHH@Z ; CVertScaleGroup::GetRightVertScaleRegionWidth
PUBLIC	?GetSubGraphViewDataList@CVertScaleGroup@@QBEXPBDAAVCSubGraphViewDataList@@@Z ; CVertScaleGroup::GetSubGraphViewDataList
PUBLIC	?GetDisplayDataMinMax@CVertScaleGroup@@QBE?AVCDisplayDataMinMax@@XZ ; CVertScaleGroup::GetDisplayDataMinMax
PUBLIC	?IsViewableGraphTitleEmpty@CVertScaleGroup@@QBE_NXZ ; CVertScaleGroup::IsViewableGraphTitleEmpty
PUBLIC	?IsExistenceGraph@CVertScaleGroup@@QBE_NABV?$CStringT@DV?$StrTraitMFC_DLL@DV?$ChTraitsCRT@D@ATL@@@@@ATL@@@Z ; CVertScaleGroup::IsExistenceGraph
PUBLIC	?IsExistenceGraph@CVertScaleGroup@@QBE_NPBDABV?$CStringT@DV?$StrTraitMFC_DLL@DV?$ChTraitsCRT@D@ATL@@@@@ATL@@@Z ; CVertScaleGroup::IsExistenceGraph
PUBLIC	?IsExistenceGraph@CVertScaleGroup@@QBE_NPAXABV?$CStringT@DV?$StrTraitMFC_DLL@DV?$ChTraitsCRT@D@ATL@@@@@ATL@@@Z ; CVertScaleGroup::IsExistenceGraph
PUBLIC	?IsExistenceIndicator@CVertScaleGroup@@QBE_NABV?$CStringT@DV?$StrTraitMFC_DLL@DV?$ChTraitsCRT@D@ATL@@@@@ATL@@@Z ; CVertScaleGroup::IsExistenceIndicator
PUBLIC	?IsExistenceIndicator@CVertScaleGroup@@QBE_NPBDABV?$CStringT@DV?$StrTraitMFC_DLL@DV?$ChTraitsCRT@D@ATL@@@@@ATL@@@Z ; CVertScaleGroup::IsExistenceIndicator
PUBLIC	?IsViewableGraphType@CVertScaleGroup@@QBE_NW4GRAPHTYPE@CGraphBaseData@@@Z ; CVertScaleGroup::IsViewableGraphType
PUBLIC	?IsViewableGraphStyle@CVertScaleGroup@@QBE_NW4GRAPHTYPE@CGraphBaseData@@H@Z ; CVertScaleGroup::IsViewableGraphStyle
PUBLIC	?IsViewableGraphDrawStyle@CVertScaleGroup@@QBE_NW4GRAPHTYPE@CGraphBaseData@@HH@Z ; CVertScaleGroup::IsViewableGraphDrawStyle
PUBLIC	?DoesAreHidingAllGraphs@CVertScaleGroup@@QBE_NXZ ; CVertScaleGroup::DoesAreHidingAllGraphs
PUBLIC	?DoesUseEqualIndicatorInfo@CVertScaleGroup@@QBE_NPBVCIndicatorInfo@@PBVCGraphImp@@@Z ; CVertScaleGroup::DoesUseEqualIndicatorInfo
PUBLIC	?DrawVertScale@CVertScaleGroup@@QAEXPAVCDC@@PAVCDrawingVertScaleData@@ABVCDrawingRegion@@@Z ; CVertScaleGroup::DrawVertScale
PUBLIC	?DrawGraphs@CVertScaleGroup@@QAEXPAVCDC@@PAVCDrawingGraphData@@AAH22@Z ; CVertScaleGroup::DrawGraphs
PUBLIC	?DrawGraphAndSignal@CVertScaleGroup@@SAIPAX@Z	; CVertScaleGroup::DrawGraphAndSignal
PUBLIC	?FindGraph@CVertScaleGroup@@QBEPAVCGraphImp@@ABV?$CStringT@DV?$StrTraitMFC_DLL@DV?$ChTraitsCRT@D@ATL@@@@@ATL@@@Z ; CVertScaleGroup::FindGraph
PUBLIC	?FindGraph@CVertScaleGroup@@QBEPAVCGraphImp@@PBDABV?$CStringT@DV?$StrTraitMFC_DLL@DV?$ChTraitsCRT@D@ATL@@@@@ATL@@@Z ; CVertScaleGroup::FindGraph
PUBLIC	?GetGraph@CVertScaleGroup@@QBEPAVCGraphImp@@H@Z	; CVertScaleGroup::GetGraph
PUBLIC	?FindGraph@CVertScaleGroup@@QBEPAVCGraphImp@@ABV?$CStringT@DV?$StrTraitMFC_DLL@DV?$ChTraitsCRT@D@ATL@@@@@ATL@@AAH@Z ; CVertScaleGroup::FindGraph
PUBLIC	?FindIndicator@CVertScaleGroup@@QBEPAVCGraphImp@@ABV?$CStringT@DV?$StrTraitMFC_DLL@DV?$ChTraitsCRT@D@ATL@@@@@ATL@@@Z ; CVertScaleGroup::FindIndicator
PUBLIC	?FindIndicator@CVertScaleGroup@@QBEPAVCGraphImp@@PBDABV?$CStringT@DV?$StrTraitMFC_DLL@DV?$ChTraitsCRT@D@ATL@@@@@ATL@@@Z ; CVertScaleGroup::FindIndicator
PUBLIC	?FindSubGraphTitle@CVertScaleGroup@@QBEPAVCSubGraph@@PAVCDC@@ABVCRect@@ABVCPoint@@AAV4@AAH4@Z ; CVertScaleGroup::FindSubGraphTitle
PUBLIC	?FindSubGraph@CVertScaleGroup@@QBE_NABVCPoint@@AAVCSelectedSubGraphDeque@@@Z ; CVertScaleGroup::FindSubGraph
PUBLIC	?GetIndexOfGraph@CVertScaleGroup@@QAEHPBDAAH@Z	; CVertScaleGroup::GetIndexOfGraph
PUBLIC	?ChangeIndicatorPacketNames@CVertScaleGroup@@QAEHPBDH0@Z ; CVertScaleGroup::ChangeIndicatorPacketNames
PUBLIC	?IsScaleTextDrawing@CVertScaleGroup@@QAEHXZ	; CVertScaleGroup::IsScaleTextDrawing
PUBLIC	?SetSelectedGraph@CVertScaleGroup@@QAEXAAPAVCGraphImp@@@Z ; CVertScaleGroup::SetSelectedGraph
PUBLIC	?GetVertScaleInvertType@CVertScaleGroup@@QBE_NXZ ; CVertScaleGroup::GetVertScaleInvertType
PUBLIC	?SetVertScaleInvertType@CVertScaleGroup@@QAEX_N@Z ; CVertScaleGroup::SetVertScaleInvertType
PUBLIC	??_GCVertScaleGroup@@MAEPAXI@Z			; CVertScaleGroup::`scalar deleting destructor'
PUBLIC	??1CVertScaleMaxWidthCalculatorData@@QAE@XZ	; CVertScaleMaxWidthCalculatorData::~CVertScaleMaxWidthCalculatorData
PUBLIC	?AddTail@?$CList@VCGraphColor@@AAV1@@@QAEPAU__POSITION@@AAVCGraphColor@@@Z ; CList<CGraphColor,CGraphColor &>::AddTail
PUBLIC	?NewNode@?$CList@VCGraphColor@@AAV1@@@IAEPAUCNode@1@PAU21@0@Z ; CList<CGraphColor,CGraphColor &>::NewNode
PUBLIC	?AddTail@?$CList@V?$CStringT@DV?$StrTraitMFC_DLL@DV?$ChTraitsCRT@D@ATL@@@@@ATL@@V12@@@QAEPAU__POSITION@@V?$CStringT@DV?$StrTraitMFC_DLL@DV?$ChTraitsCRT@D@ATL@@@@@ATL@@@Z ; CList<ATL::CStringT<char,StrTraitMFC_DLL<char,ATL::ChTraitsCRT<char> > >,ATL::CStringT<char,StrTraitMFC_DLL<char,ATL::ChTraitsCRT<char> > > >::AddTail
PUBLIC	?NewNode@?$CList@V?$CStringT@DV?$StrTraitMFC_DLL@DV?$ChTraitsCRT@D@ATL@@@@@ATL@@V12@@@IAEPAUCNode@1@PAU21@0@Z ; CList<ATL::CStringT<char,StrTraitMFC_DLL<char,ATL::ChTraitsCRT<char> > >,ATL::CStringT<char,StrTraitMFC_DLL<char,ATL::ChTraitsCRT<char> > > >::NewNode
PUBLIC	??_C@_00CNPNBAHC@@				; `string'
PUBLIC	??_R0?AVCObject@@@8				; CObject `RTTI Type Descriptor'
PUBLIC	??_R3CObject@@8					; CObject::`RTTI Class Hierarchy Descriptor'
PUBLIC	??_R2CObject@@8					; CObject::`RTTI Base Class Array'
PUBLIC	??_R1A@?0A@EA@CObject@@8			; CObject::`RTTI Base Class Descriptor at (0,-1,0,64)'
PUBLIC	??_R1A@?0A@EA@CObList@@8			; CObList::`RTTI Base Class Descriptor at (0,-1,0,64)'
PUBLIC	??_R0?AVCObList@@@8				; CObList `RTTI Type Descriptor'
PUBLIC	??_R3CObList@@8					; CObList::`RTTI Class Hierarchy Descriptor'
PUBLIC	??_R2CObList@@8					; CObList::`RTTI Base Class Array'
PUBLIC	??_7?$_CTypedPtrList@VCObList@@PAVCGraphImp@@@@6B@ ; _CTypedPtrList<CObList,CGraphImp *>::`vftable'
PUBLIC	??_7?$CTypedPtrList@VCObList@@PAVCGraphImp@@@@6B@ ; CTypedPtrList<CObList,CGraphImp *>::`vftable'
PUBLIC	??_7CVertScaleGroup@@6B@			; CVertScaleGroup::`vftable'
PUBLIC	??_7CGraphSearchInfo_VisibleSubGraph@@6B@	; CGraphSearchInfo_VisibleSubGraph::`vftable'
PUBLIC	??_7CGraphSearchInfo_GraphType@@6B@		; CGraphSearchInfo_GraphType::`vftable'
PUBLIC	??_7CGraphSearchInfo_TypeStyleDrawStyle@@6B@	; CGraphSearchInfo_TypeStyleDrawStyle::`vftable'
PUBLIC	??_7CGraphSearchInfo_VisibleTypeStyleDrawStyle@@6B@ ; CGraphSearchInfo_VisibleTypeStyleDrawStyle::`vftable'
PUBLIC	??_C@_02PCIJFNDE@?$AN?6@			; `string'
PUBLIC	??_C@_08BHMMGBBH@Graph?$DL?$AN?6@		; `string'
PUBLIC	??_C@_0M@DGHFHKEI@GraphEnd?$DL?$AN?6@		; `string'
PUBLIC	??_C@_0L@NBHIHAGD@_Price?5MA_@			; `string'
PUBLIC	??_C@_0M@HCFJODHH@_Volume?5MA_@			; `string'
PUBLIC	??_C@_01FJMABOPO@x@				; `string'
PUBLIC	??_C@_01MMEEDKFM@X@				; `string'
PUBLIC	??_C@_02LLFJKDMN@?$KB?$LP@			; `string'
PUBLIC	??_C@_0BC@DJOHDNOJ@VertScaleGroup?$DL?$AN?6@	; `string'
PUBLIC	??_C@_0BF@DDJNMPKE@VertScaleGroupEnd?$DL?$AN?6@	; `string'
PUBLIC	??_C@_03PHGIHNDE@RQ?3@				; `string'
PUBLIC	??_C@_05GHAPOLAB@?$CD?$CF04X@			; `string'
PUBLIC	??_R4CVertScaleGroup@@6B@			; CVertScaleGroup::`RTTI Complete Object Locator'
PUBLIC	??_R0?AVCVertScaleGroup@@@8			; CVertScaleGroup `RTTI Type Descriptor'
PUBLIC	??_R3CVertScaleGroup@@8				; CVertScaleGroup::`RTTI Class Hierarchy Descriptor'
PUBLIC	??_R2CVertScaleGroup@@8				; CVertScaleGroup::`RTTI Base Class Array'
PUBLIC	??_R1A@?0A@EA@CVertScaleGroup@@8		; CVertScaleGroup::`RTTI Base Class Descriptor at (0,-1,0,64)'
PUBLIC	??_R4?$CTypedPtrList@VCObList@@PAVCGraphImp@@@@6B@ ; CTypedPtrList<CObList,CGraphImp *>::`RTTI Complete Object Locator'
PUBLIC	??_R0?AV?$CTypedPtrList@VCObList@@PAVCGraphImp@@@@@8 ; CTypedPtrList<CObList,CGraphImp *> `RTTI Type Descriptor'
PUBLIC	??_R3?$CTypedPtrList@VCObList@@PAVCGraphImp@@@@8 ; CTypedPtrList<CObList,CGraphImp *>::`RTTI Class Hierarchy Descriptor'
PUBLIC	??_R2?$CTypedPtrList@VCObList@@PAVCGraphImp@@@@8 ; CTypedPtrList<CObList,CGraphImp *>::`RTTI Base Class Array'
PUBLIC	??_R1A@?0A@EA@?$CTypedPtrList@VCObList@@PAVCGraphImp@@@@8 ; CTypedPtrList<CObList,CGraphImp *>::`RTTI Base Class Descriptor at (0,-1,0,64)'
PUBLIC	??_R1A@?0A@EA@?$_CTypedPtrList@VCObList@@PAVCGraphImp@@@@8 ; _CTypedPtrList<CObList,CGraphImp *>::`RTTI Base Class Descriptor at (0,-1,0,64)'
PUBLIC	??_R0?AV?$_CTypedPtrList@VCObList@@PAVCGraphImp@@@@@8 ; _CTypedPtrList<CObList,CGraphImp *> `RTTI Type Descriptor'
PUBLIC	??_R3?$_CTypedPtrList@VCObList@@PAVCGraphImp@@@@8 ; _CTypedPtrList<CObList,CGraphImp *>::`RTTI Class Hierarchy Descriptor'
PUBLIC	??_R2?$_CTypedPtrList@VCObList@@PAVCGraphImp@@@@8 ; _CTypedPtrList<CObList,CGraphImp *>::`RTTI Base Class Array'
PUBLIC	??_R4?$_CTypedPtrList@VCObList@@PAVCGraphImp@@@@6B@ ; _CTypedPtrList<CObList,CGraphImp *>::`RTTI Complete Object Locator'
PUBLIC	??_R1A@?0A@EA@CGraphSearchInfo@@8		; CGraphSearchInfo::`RTTI Base Class Descriptor at (0,-1,0,64)'
PUBLIC	??_R0?AVCGraphSearchInfo@@@8			; CGraphSearchInfo `RTTI Type Descriptor'
PUBLIC	??_R3CGraphSearchInfo@@8			; CGraphSearchInfo::`RTTI Class Hierarchy Descriptor'
PUBLIC	??_R2CGraphSearchInfo@@8			; CGraphSearchInfo::`RTTI Base Class Array'
PUBLIC	??_R4CGraphSearchInfo_VisibleSubGraph@@6B@	; CGraphSearchInfo_VisibleSubGraph::`RTTI Complete Object Locator'
PUBLIC	??_R0?AVCGraphSearchInfo_VisibleSubGraph@@@8	; CGraphSearchInfo_VisibleSubGraph `RTTI Type Descriptor'
PUBLIC	??_R3CGraphSearchInfo_VisibleSubGraph@@8	; CGraphSearchInfo_VisibleSubGraph::`RTTI Class Hierarchy Descriptor'
PUBLIC	??_R2CGraphSearchInfo_VisibleSubGraph@@8	; CGraphSearchInfo_VisibleSubGraph::`RTTI Base Class Array'
PUBLIC	??_R1A@?0A@EA@CGraphSearchInfo_VisibleSubGraph@@8 ; CGraphSearchInfo_VisibleSubGraph::`RTTI Base Class Descriptor at (0,-1,0,64)'
PUBLIC	??_R4CGraphSearchInfo_GraphType@@6B@		; CGraphSearchInfo_GraphType::`RTTI Complete Object Locator'
PUBLIC	??_R0?AVCGraphSearchInfo_GraphType@@@8		; CGraphSearchInfo_GraphType `RTTI Type Descriptor'
PUBLIC	??_R3CGraphSearchInfo_GraphType@@8		; CGraphSearchInfo_GraphType::`RTTI Class Hierarchy Descriptor'
PUBLIC	??_R2CGraphSearchInfo_GraphType@@8		; CGraphSearchInfo_GraphType::`RTTI Base Class Array'
PUBLIC	??_R1A@?0A@EA@CGraphSearchInfo_GraphType@@8	; CGraphSearchInfo_GraphType::`RTTI Base Class Descriptor at (0,-1,0,64)'
PUBLIC	??_R4CGraphSearchInfo_TypeStyleDrawStyle@@6B@	; CGraphSearchInfo_TypeStyleDrawStyle::`RTTI Complete Object Locator'
PUBLIC	??_R0?AVCGraphSearchInfo_TypeStyleDrawStyle@@@8	; CGraphSearchInfo_TypeStyleDrawStyle `RTTI Type Descriptor'
PUBLIC	??_R3CGraphSearchInfo_TypeStyleDrawStyle@@8	; CGraphSearchInfo_TypeStyleDrawStyle::`RTTI Class Hierarchy Descriptor'
PUBLIC	??_R2CGraphSearchInfo_TypeStyleDrawStyle@@8	; CGraphSearchInfo_TypeStyleDrawStyle::`RTTI Base Class Array'
PUBLIC	??_R1A@?0A@EA@CGraphSearchInfo_TypeStyleDrawStyle@@8 ; CGraphSearchInfo_TypeStyleDrawStyle::`RTTI Base Class Descriptor at (0,-1,0,64)'
PUBLIC	??_R4CGraphSearchInfo_VisibleTypeStyleDrawStyle@@6B@ ; CGraphSearchInfo_VisibleTypeStyleDrawStyle::`RTTI Complete Object Locator'
PUBLIC	??_R0?AVCGraphSearchInfo_VisibleTypeStyleDrawStyle@@@8 ; CGraphSearchInfo_VisibleTypeStyleDrawStyle `RTTI Type Descriptor'
PUBLIC	??_R3CGraphSearchInfo_VisibleTypeStyleDrawStyle@@8 ; CGraphSearchInfo_VisibleTypeStyleDrawStyle::`RTTI Class Hierarchy Descriptor'
PUBLIC	??_R2CGraphSearchInfo_VisibleTypeStyleDrawStyle@@8 ; CGraphSearchInfo_VisibleTypeStyleDrawStyle::`RTTI Base Class Array'
PUBLIC	??_R1A@?0A@EA@CGraphSearchInfo_VisibleTypeStyleDrawStyle@@8 ; CGraphSearchInfo_VisibleTypeStyleDrawStyle::`RTTI Base Class Descriptor at (0,-1,0,64)'
PUBLIC	__real@4034000000000000
PUBLIC	__real@7ff0000000000000
PUBLIC	__real@c034000000000000
PUBLIC	__real@fff0000000000000
EXTRN	??2@YAPAXI@Z:PROC				; operator new
EXTRN	??3@YAXPAX@Z:PROC				; operator delete
EXTRN	?__global_delete@@YAXPAXI@Z:PROC		; __global_delete
EXTRN	___std_terminate:PROC
EXTRN	_strstr:PROC
EXTRN	__imp__lstrcmpA@8:PROC
EXTRN	__imp__GetKeyState@4:PROC
EXTRN	__imp__IsRectEmpty@4:PROC
EXTRN	__imp__rand:PROC
EXTRN	__imp__atof:PROC
EXTRN	?AfxThrowInvalidArgException@@YGXXZ:PROC	; AfxThrowInvalidArgException
EXTRN	?GetRuntimeClass@CObject@@UBEPAUCRuntimeClass@@XZ:PROC ; CObject::GetRuntimeClass
EXTRN	__imp_?GetAt@?$CSimpleStringT@D$00@ATL@@QBEDH@Z:PROC
EXTRN	__imp_?Concatenate@?$CSimpleStringT@D$00@ATL@@KAXAAV12@PBDH1H@Z:PROC
EXTRN	__imp_??0?$CStringT@DV?$StrTraitMFC_DLL@DV?$ChTraitsCRT@D@ATL@@@@@ATL@@QAE@XZ:PROC
EXTRN	__imp_??0?$CStringT@DV?$StrTraitMFC_DLL@DV?$ChTraitsCRT@D@ATL@@@@@ATL@@QAE@PAUIAtlStringMgr@1@@Z:PROC
EXTRN	__imp_??0?$CStringT@DV?$StrTraitMFC_DLL@DV?$ChTraitsCRT@D@ATL@@@@@ATL@@QAE@ABV01@@Z:PROC
EXTRN	__imp_??0?$CStringT@DV?$StrTraitMFC_DLL@DV?$ChTraitsCRT@D@ATL@@@@@ATL@@QAE@PBD@Z:PROC
EXTRN	__imp_??1?$CStringT@DV?$StrTraitMFC_DLL@DV?$ChTraitsCRT@D@ATL@@@@@ATL@@QAE@XZ:PROC
EXTRN	__imp_??4?$CStringT@DV?$StrTraitMFC_DLL@DV?$ChTraitsCRT@D@ATL@@@@@ATL@@QAEAAV01@ABV01@@Z:PROC
EXTRN	__imp_??Y?$CStringT@DV?$StrTraitMFC_DLL@DV?$ChTraitsCRT@D@ATL@@@@@ATL@@QAEAAV01@ABV?$CSimpleStringT@D$00@1@@Z:PROC
EXTRN	__imp_?GetManager@?$CStringT@DV?$StrTraitMFC_DLL@DV?$ChTraitsCRT@D@ATL@@@@@ATL@@QBEPAUIAtlStringMgr@2@XZ:PROC
EXTRN	__imp_?Compare@?$CStringT@DV?$StrTraitMFC_DLL@DV?$ChTraitsCRT@D@ATL@@@@@ATL@@QBEHPBD@Z:PROC
EXTRN	__imp_?Replace@?$CStringT@DV?$StrTraitMFC_DLL@DV?$ChTraitsCRT@D@ATL@@@@@ATL@@QAEHDD@Z:PROC
EXTRN	__imp_?Replace@?$CStringT@DV?$StrTraitMFC_DLL@DV?$ChTraitsCRT@D@ATL@@@@@ATL@@QAEHPBD0@Z:PROC
EXTRN	__imp_?Format@?$CStringT@DV?$StrTraitMFC_DLL@DV?$ChTraitsCRT@D@ATL@@@@@ATL@@QAAXPBDZZ:PROC
EXTRN	?GetRuntimeClass@CObList@@UBEPAUCRuntimeClass@@XZ:PROC ; CObList::GetRuntimeClass
EXTRN	??0CObList@@QAE@H@Z:PROC			; CObList::CObList
EXTRN	?AddHead@CObList@@QAEPAU__POSITION@@PAVCObject@@@Z:PROC ; CObList::AddHead
EXTRN	?AddTail@CObList@@QAEPAU__POSITION@@PAVCObject@@@Z:PROC ; CObList::AddTail
EXTRN	?RemoveAt@CObList@@QAEXPAU__POSITION@@@Z:PROC	; CObList::RemoveAt
EXTRN	?InsertBefore@CObList@@QAEPAU__POSITION@@PAU2@PAVCObject@@@Z:PROC ; CObList::InsertBefore
EXTRN	?Find@CObList@@QBEPAU__POSITION@@PAVCObject@@PAU2@@Z:PROC ; CObList::Find
EXTRN	?FindIndex@CObList@@QBEPAU__POSITION@@H@Z:PROC	; CObList::FindIndex
EXTRN	??1CObList@@UAE@XZ:PROC				; CObList::~CObList
EXTRN	?Serialize@CObList@@UAEXAAVCArchive@@@Z:PROC	; CObList::Serialize
EXTRN	??0CStringList@@QAE@H@Z:PROC			; CStringList::CStringList
EXTRN	?AddTail@CStringList@@QAEPAU__POSITION@@PBD@Z:PROC ; CStringList::AddTail
EXTRN	?AddTail@CStringList@@QAEPAU__POSITION@@ABV?$CStringT@DV?$StrTraitMFC_DLL@DV?$ChTraitsCRT@D@ATL@@@@@ATL@@@Z:PROC ; CStringList::AddTail
EXTRN	?AddTail@CStringList@@QAEXPAV1@@Z:PROC		; CStringList::AddTail
EXTRN	??1CStringList@@UAE@XZ:PROC			; CStringList::~CStringList
EXTRN	?Create@CPlex@@SGPAU1@AAPAU1@II@Z:PROC		; CPlex::Create
EXTRN	__imp_?GetScaleData@CScale@@QBE?AV?$CStringT@DV?$StrTraitMFC_DLL@DV?$ChTraitsCRT@D@ATL@@@@@ATL@@XZ:PROC
EXTRN	__imp_??0CVerticalScale@@QAE@XZ:PROC
EXTRN	__imp_??4CVerticalScale@@QAEAAV0@ABV0@@Z:PROC
EXTRN	__imp_?GetVertScalePosition@CVerticalScale@@QBE?AW4VERTSCALEPOSITION@CScaleBaseData@@XZ:PROC
EXTRN	__imp_?GetScaleAllData@CVerticalScale@@QBEXAAV?$CStringT@DV?$StrTraitMFC_DLL@DV?$ChTraitsCRT@D@ATL@@@@@ATL@@PBD@Z:PROC
EXTRN	__imp_?GetActiveFlag@CVerticalScale@@QBEHXZ:PROC
EXTRN	__imp_??1CVerticalScale@@QAE@XZ:PROC
EXTRN	__imp_??0CVerticalScale@@QAE@ABV0@@Z:PROC
EXTRN	__imp_??4CDisplayDataMinMax@@QAEAAV0@ABV0@@Z:PROC
EXTRN	__imp_??0CDisplayDataMinMax@@QAE@XZ:PROC
EXTRN	__imp_??0CDisplayDataMinMax@@QAE@ABN0@Z:PROC
EXTRN	__imp_?SetDisplayData@CDisplayDataMinMax@@QAEXABN0@Z:PROC
EXTRN	__imp_?GetDisplayMin@CDisplayDataMinMax@@QBENXZ:PROC
EXTRN	__imp_?GetDisplayMax@CDisplayDataMinMax@@QBENXZ:PROC
EXTRN	__imp_?IsInitialized@CDisplayDataMinMax@@QBEHXZ:PROC
EXTRN	__imp_??4CGraphColor@@QAEAAV0@ABV0@@Z:PROC
EXTRN	__imp_??0CGraphColor@@QAE@XZ:PROC
EXTRN	__imp_??0CGraphData@@QAE@PBDPAUHWND__@@@Z:PROC
EXTRN	__imp_?GetPacketNames@CGraphData@@QBE?AV?$CStringT@DV?$StrTraitMFC_DLL@DV?$ChTraitsCRT@D@ATL@@@@@ATL@@XZ:PROC
EXTRN	__imp_?GetGraphName@CGraphData@@QBE?AV?$CStringT@DV?$StrTraitMFC_DLL@DV?$ChTraitsCRT@D@ATL@@@@@ATL@@XZ:PROC
EXTRN	__imp_?GetIndicatorName@CGraphData@@QBE?AV?$CStringT@DV?$StrTraitMFC_DLL@DV?$ChTraitsCRT@D@ATL@@@@@ATL@@XZ:PROC
EXTRN	__imp_??1CGraphData@@QAE@XZ:PROC
EXTRN	?GetVertScaleRegion@CDrawingRegion@@QBE?AVCVertScaleRegion@@XZ:PROC ; CDrawingRegion::GetVertScaleRegion
EXTRN	?SetDisplayDataVertMinMax@CDrawingGraphData@@QAEXABVCDisplayDataMinMax@@@Z:PROC ; CDrawingGraphData::SetDisplayDataVertMinMax
EXTRN	?GetScaleDrawerType@CDrawingVertScaleData@@QBE?AW4VERTSCALEDRAWERTYPE@CScaleBaseData@@XZ:PROC ; CDrawingVertScaleData::GetScaleDrawerType
EXTRN	?SetSubGraphNames@CDrawingVertScaleData@@QAEXABV?$CStringT@DV?$StrTraitMFC_DLL@DV?$ChTraitsCRT@D@ATL@@@@@ATL@@@Z:PROC ; CDrawingVertScaleData::SetSubGraphNames
EXTRN	?SetPacketNames@CDrawingVertScaleData@@QAEXABV?$CStringT@DV?$StrTraitMFC_DLL@DV?$ChTraitsCRT@D@ATL@@@@@ATL@@@Z:PROC ; CDrawingVertScaleData::SetPacketNames
EXTRN	?SetIndicatorName@CDrawingVertScaleData@@QAEXABV?$CStringT@DV?$StrTraitMFC_DLL@DV?$ChTraitsCRT@D@ATL@@@@@ATL@@@Z:PROC ; CDrawingVertScaleData::SetIndicatorName
EXTRN	?SetScaleDrawerType@CDrawingVertScaleData@@QAEXABW4VERTSCALEDRAWERTYPE@CScaleBaseData@@@Z:PROC ; CDrawingVertScaleData::SetScaleDrawerType
EXTRN	?SetDisplayDataMinMax@CDrawingVertScaleData@@QAEXABVCDisplayDataMinMax@@@Z:PROC ; CDrawingVertScaleData::SetDisplayDataMinMax
EXTRN	?SetIndicatorInfo@CDrawingVertScaleData@@QAEXPAVCIndicatorInfo@@@Z:PROC ; CDrawingVertScaleData::SetIndicatorInfo
EXTRN	?SetPacket@CDrawingVertScaleData@@QAEXPAVCPacket@@@Z:PROC ; CDrawingVertScaleData::SetPacket
EXTRN	??_E?$_CTypedPtrList@VCObList@@PAVCGraphImp@@@@UAEPAXI@Z:PROC ; _CTypedPtrList<CObList,CGraphImp *>::`vector deleting destructor'
EXTRN	??_E?$CTypedPtrList@VCObList@@PAVCGraphImp@@@@UAEPAXI@Z:PROC ; CTypedPtrList<CObList,CGraphImp *>::`vector deleting destructor'
EXTRN	??_ECVertScaleGroup@@MAEPAXI@Z:PROC		; CVertScaleGroup::`vector deleting destructor'
EXTRN	__imp_?GetGraphIndicatorInfo@CIndicatorList@@QAEPAVCIndicatorInfo@@W4EIndicatorListType@@PBD1W4EIndicatorInfoGettingType@@@Z:PROC
EXTRN	__imp_?CreateGraphIndicatorInfo@CIndicatorList@@QAEPAVCIndicatorInfo@@PBD@Z:PROC
EXTRN	__imp_?GetIndicatorName@CIndicatorInfo@@QBE?AV?$CStringT@DV?$StrTraitMFC_DLL@DV?$ChTraitsCRT@D@ATL@@@@@ATL@@XZ:PROC
EXTRN	__imp_?GetGraphName@CIndicatorInfo@@QBE?AV?$CStringT@DV?$StrTraitMFC_DLL@DV?$ChTraitsCRT@D@ATL@@@@@ATL@@XZ:PROC
EXTRN	__imp_?SetCommonPacketNames@CIndicatorInfo@@QAE_NABV?$CStringT@DV?$StrTraitMFC_DLL@DV?$ChTraitsCRT@D@ATL@@@@@ATL@@@Z:PROC
EXTRN	__imp_?SetAllPacketNames_SubGraphPart@CIndicatorInfo@@QAE_NABV?$CStringT@DV?$StrTraitMFC_DLL@DV?$ChTraitsCRT@D@ATL@@@@@ATL@@_N@Z:PROC
EXTRN	__imp_?SetPacketNames@CIndicatorInfo@@QAE_NHABV?$CStringT@DV?$StrTraitMFC_DLL@DV?$ChTraitsCRT@D@ATL@@@@@ATL@@@Z:PROC
EXTRN	__imp_?GetType@CPacket@@QAE?AV?$CStringT@DV?$StrTraitMFC_DLL@DV?$ChTraitsCRT@D@ATL@@@@@ATL@@_N@Z:PROC
EXTRN	?IsScaleGroup_Price@IMetaTable@@QAE_NABV?$CStringT@DV?$StrTraitMFC_DLL@DV?$ChTraitsCRT@D@ATL@@@@@ATL@@@Z:PROC ; IMetaTable::IsScaleGroup_Price
EXTRN	?IsScaleGroup_Volume@IMetaTable@@QAE_NABV?$CStringT@DV?$StrTraitMFC_DLL@DV?$ChTraitsCRT@D@ATL@@@@@ATL@@@Z:PROC ; IMetaTable::IsScaleGroup_Volume
EXTRN	?GetMainBlockImpl@CMainAttributes@@QBEPAVCMainBlockImp@@XZ:PROC ; CMainAttributes::GetMainBlockImpl
EXTRN	?GetIChartCtrl@CMainAttributes@@QBEPAUIChartCtrl@@XZ:PROC ; CMainAttributes::GetIChartCtrl
EXTRN	?GetIndicatorList@CMainAttributes@@QBEPAVCIndicatorList@@XZ:PROC ; CMainAttributes::GetIndicatorList
EXTRN	?GetMainChartFormulate@CMainAttributes@@QBEPAVCMainChartFormulate@@XZ:PROC ; CMainAttributes::GetMainChartFormulate
EXTRN	?GetPacketListManager@CMainAttributes@@QBEPAVCPacketListManager@@XZ:PROC ; CMainAttributes::GetPacketListManager
EXTRN	?GetChartMode@CMainAttributes@@QBE?AW4CHART_MODE@CChartInfo@@XZ:PROC ; CMainAttributes::GetChartMode
EXTRN	?DoesOnlyPriceVertScale@CScaleAttributes@@QBE_NXZ:PROC ; CScaleAttributes::DoesOnlyPriceVertScale
EXTRN	?GetMainAttributes@CMainBlockBaseData@@QAEAAVCMainAttributes@@XZ:PROC ; CMainBlockBaseData::GetMainAttributes
EXTRN	?GetScaleAttributes@CMainBlockBaseData@@QAEAAVCScaleAttributes@@XZ:PROC ; CMainBlockBaseData::GetScaleAttributes
EXTRN	?GetParent_Handle@CMainBlockBaseData@@QBEPAUHWND__@@XZ:PROC ; CMainBlockBaseData::GetParent_Handle
EXTRN	?GetDisplayAttributes@CMainBlockBaseData@@QBE?AVCDisplayAttributes@@XZ:PROC ; CMainBlockBaseData::GetDisplayAttributes
EXTRN	?GetBlock@CVertScaleGroupList@@QBEPAVCBlockImp@@XZ:PROC ; CVertScaleGroupList::GetBlock
EXTRN	?DeleteVertScaleGroup@CVertScaleGroupList@@QAE_NPAVCVertScaleGroup@@_N@Z:PROC ; CVertScaleGroupList::DeleteVertScaleGroup
EXTRN	?MoveGraph@CVertScaleGroupList@@QAE_NPAVCGraphImp@@H_N1@Z:PROC ; CVertScaleGroupList::MoveGraph
EXTRN	?SetActivate@CVertScaleGroupList@@QAEXPAVCVertScaleGroup@@@Z:PROC ; CVertScaleGroupList::SetActivate
EXTRN	?RecalculateTitleRegion@CVertScaleGroupList@@QAEXH@Z:PROC ; CVertScaleGroupList::RecalculateTitleRegion
EXTRN	?GetBlocksColumn@CBlockImp@@QAEPAVCBlocksColumn@@XZ:PROC ; CBlockImp::GetBlocksColumn
EXTRN	?GetColumnIndex@CBlocksColumn@@QAEHXZ:PROC	; CBlocksColumn::GetColumnIndex
EXTRN	?SetAllHiding@CSubGraphList@@QAE_N_N@Z:PROC	; CSubGraphList::SetAllHiding
EXTRN	?SetHiding@CSubGraphList@@QAE_NABV?$CStringT@DV?$StrTraitMFC_DLL@DV?$ChTraitsCRT@D@ATL@@@@@ATL@@_N@Z:PROC ; CSubGraphList::SetHiding
EXTRN	?SetHiding@CSubGraphList@@QAE_NH_N@Z:PROC	; CSubGraphList::SetHiding
EXTRN	?SetTitle@CSubGraphList@@QAE_NABV?$CStringT@DV?$StrTraitMFC_DLL@DV?$ChTraitsCRT@D@ATL@@@@@ATL@@0@Z:PROC ; CSubGraphList::SetTitle
EXTRN	?SetType@CSubGraphList@@QAE_NHABW4GRAPHTYPE@CGraphBaseData@@ABVCGraphStyle@@ABVCGraphDrawStyle@@@Z:PROC ; CSubGraphList::SetType
EXTRN	?SetAllSubGraphPenThickness@CSubGraphList@@QAE_NABVCPenThickness@@@Z:PROC ; CSubGraphList::SetAllSubGraphPenThickness
EXTRN	?SetPenThickness@CSubGraphList@@QAE_NHABVCPenThickness@@@Z:PROC ; CSubGraphList::SetPenThickness
EXTRN	?SetSubGraphColor@CSubGraphList@@QAE_NHABVCGraphColor@@@Z:PROC ; CSubGraphList::SetSubGraphColor
EXTRN	?ChangeSubGraphData@CSubGraphList@@QAE_NABV?$CStringT@DV?$StrTraitMFC_DLL@DV?$ChTraitsCRT@D@ATL@@@@@ATL@@ABVCSubGraphData@@@Z:PROC ; CSubGraphList::ChangeSubGraphData
EXTRN	?AreHidingAllSubGraphs@CSubGraphList@@QBE_NXZ:PROC ; CSubGraphList::AreHidingAllSubGraphs
EXTRN	?IsViewableSubGraphTitleEmpty@CSubGraphList@@QBE_NXZ:PROC ; CSubGraphList::IsViewableSubGraphTitleEmpty
EXTRN	?IsViewableGraphType@CSubGraphList@@QBE_NW4GRAPHTYPE@CGraphBaseData@@@Z:PROC ; CSubGraphList::IsViewableGraphType
EXTRN	?IsViewableGraphStyle@CSubGraphList@@QBE_NW4GRAPHTYPE@CGraphBaseData@@H@Z:PROC ; CSubGraphList::IsViewableGraphStyle
EXTRN	?IsViewableGraphStyle@CSubGraphList@@QBE_NW4GRAPHTYPE@CGraphBaseData@@HH@Z:PROC ; CSubGraphList::IsViewableGraphStyle
EXTRN	?IsViewableGraphDrawStyle@CSubGraphList@@QBE_NW4GRAPHTYPE@CGraphBaseData@@HH@Z:PROC ; CSubGraphList::IsViewableGraphDrawStyle
EXTRN	?IsExistenceSamePacketInGraph@CSubGraphList@@QBE_NPAVCGraphImp@@@Z:PROC ; CSubGraphList::IsExistenceSamePacketInGraph
EXTRN	?GetViewableSubGraphNames@CSubGraphList@@QBE?AV?$CStringT@DV?$StrTraitMFC_DLL@DV?$ChTraitsCRT@D@ATL@@@@@ATL@@XZ:PROC ; CSubGraphList::GetViewableSubGraphNames
EXTRN	?GetSameTitleSubgraphIndex@CSubGraphList@@QBEHABV?$CStringT@DV?$StrTraitMFC_DLL@DV?$ChTraitsCRT@D@ATL@@@@@ATL@@@Z:PROC ; CSubGraphList::GetSameTitleSubgraphIndex
EXTRN	?GetGraphColor@CSubGraphList@@QBEPAVCGraphColor@@H@Z:PROC ; CSubGraphList::GetGraphColor
EXTRN	?GetGraphColor1@CSubGraphList@@QBEKH@Z:PROC	; CSubGraphList::GetGraphColor1
EXTRN	?GetSubGraphTitleRegion@CSubGraphList@@QBE?AVCRect@@PAVCDC@@PBVCSubGraph@@ABV2@AAH3@Z:PROC ; CSubGraphList::GetSubGraphTitleRegion
EXTRN	?GetHeadPacket@CSubGraphList@@QBEPAVCPacket@@XZ:PROC ; CSubGraphList::GetHeadPacket
EXTRN	?FindSubGraphTitle@CSubGraphList@@QBEPAVCSubGraph@@PAVCDC@@ABVCRect@@ABVCPoint@@AAV4@AAH4@Z:PROC ; CSubGraphList::FindSubGraphTitle
EXTRN	?FindSubGraph@CSubGraphList@@QBEPAVCSubGraph@@H@Z:PROC ; CSubGraphList::FindSubGraph
EXTRN	?FindSubGraph@CSubGraphList@@QBE_NABVCPoint@@AAVCSelectedSubGraphDeque@@@Z:PROC ; CSubGraphList::FindSubGraph
EXTRN	?MakeGraph@CGraphImp@@SAPAV1@PAVCMainBlockBaseData@@PAVCVertScaleGroup@@ABVCGraphData@@PAD@Z:PROC ; CGraphImp::MakeGraph
EXTRN	?MakeGraph@CGraphImp@@SAPAV1@PAXPAVCMainBlockBaseData@@PAVCVertScaleGroup@@ABVCGraphData@@PAD@Z:PROC ; CGraphImp::MakeGraph
EXTRN	?Delete@CGraphImp@@SAXPAV1@@Z:PROC		; CGraphImp::Delete
EXTRN	?DeletePacket@CGraphImp@@QAEX_N@Z:PROC		; CGraphImp::DeletePacket
EXTRN	?CalculateGraph@CGraphImp@@QAE_NW4CALCULATETYPE@CCalculateBaseData@@_N11@Z:PROC ; CGraphImp::CalculateGraph
EXTRN	?Initialize_AllPackets@CGraphImp@@QAEX_N@Z:PROC	; CGraphImp::Initialize_AllPackets
EXTRN	?Initialize_IndicatorInfo@CGraphImp@@QAEX_N@Z:PROC ; CGraphImp::Initialize_IndicatorInfo
EXTRN	?ChangeGraphDataFromIndicatorInfo@CGraphImp@@QAE_N_N@Z:PROC ; CGraphImp::ChangeGraphDataFromIndicatorInfo
EXTRN	?ChangeIndicatorInfoFromGraphData@CGraphImp@@QAE_NXZ:PROC ; CGraphImp::ChangeIndicatorInfoFromGraphData
EXTRN	?ChangeMapDefaultIndicatorInfo@CGraphImp@@QAE_NPAVCIndicatorList@@@Z:PROC ; CGraphImp::ChangeMapDefaultIndicatorInfo
EXTRN	?SetVertScaleGroup@CGraphImp@@QAEXPAVCVertScaleGroup@@@Z:PROC ; CGraphImp::SetVertScaleGroup
EXTRN	?SetPacketNames@CGraphImp@@QAE_NABV?$CStringT@DV?$StrTraitMFC_DLL@DV?$ChTraitsCRT@D@ATL@@@@@ATL@@_N1@Z:PROC ; CGraphImp::SetPacketNames
EXTRN	?SetMainBlockBaseData@CGraphImp@@QAEXPAVCMainBlockBaseData@@@Z:PROC ; CGraphImp::SetMainBlockBaseData
EXTRN	?GetMainBlock@CGraphImp@@QBEPAVCMainBlockImp@@XZ:PROC ; CGraphImp::GetMainBlock
EXTRN	?GetGraphData@CGraphImp@@QAEAAVCGraphData@@XZ:PROC ; CGraphImp::GetGraphData
EXTRN	?GetSubGraphList@CGraphImp@@QAEAAVCSubGraphList@@XZ:PROC ; CGraphImp::GetSubGraphList
EXTRN	?GetIndicatorInfo@CGraphImp@@QAEPAVCIndicatorInfo@@XZ:PROC ; CGraphImp::GetIndicatorInfo
EXTRN	?GetStringGraphData@CGraphImp@@QBEXAAVCStringList@@@Z:PROC ; CGraphImp::GetStringGraphData
EXTRN	?GetSubGraphViewDataList@CGraphImp@@QBEXAAVCSubGraphViewDataList@@@Z:PROC ; CGraphImp::GetSubGraphViewDataList
EXTRN	?GetLeftVertScaleRegionWidth@CGraphImp@@QBEHPAVCDC@@PAVCVertScaleMaxWidthCalculatorData@@@Z:PROC ; CGraphImp::GetLeftVertScaleRegionWidth
EXTRN	?GetRightVertScaleRegionWidth@CGraphImp@@QBEHPAVCDC@@PAVCVertScaleMaxWidthCalculatorData@@@Z:PROC ; CGraphImp::GetRightVertScaleRegionWidth
EXTRN	?GetDisplayDataMinMax@CGraphImp@@QBE_NABV?$CStringT@DV?$StrTraitMFC_DLL@DV?$ChTraitsCRT@D@ATL@@@@@ATL@@AAVCDisplayDataMinMax@@H@Z:PROC ; CGraphImp::GetDisplayDataMinMax
EXTRN	?IsExistencePacketName@CGraphImp@@QBE_NABV?$CList@V?$CStringT@DV?$StrTraitMFC_DLL@DV?$ChTraitsCRT@D@ATL@@@@@ATL@@V12@@@@Z:PROC ; CGraphImp::IsExistencePacketName
EXTRN	?IsExistencePacketName@CGraphImp@@QBE_NABV?$CStringT@DV?$StrTraitMFC_DLL@DV?$ChTraitsCRT@D@ATL@@@@@ATL@@@Z:PROC ; CGraphImp::IsExistencePacketName
EXTRN	?DrawGraphTitle@CGraphImp@@QAEXPAVCDC@@PAVCDrawingGraphData@@AAH22@Z:PROC ; CGraphImp::DrawGraphTitle
EXTRN	?DrawGraphAndSignal@CGraphImp@@QAEXPAVCDC@@PAVCDrawingGraphData@@@Z:PROC ; CGraphImp::DrawGraphAndSignal
EXTRN	?ComparePacketRQ@CGraphImp@@QAEHPAX@Z:PROC	; CGraphImp::ComparePacketRQ
EXTRN	?DrawVertScale@CBlockScaleDrawer@@QAEXPAVCDC@@PAVCDrawingVertScaleData@@ABVCVertScaleRegion@@ABVCVerticalScale@@PAUHWND__@@W4CHART_MODE@CChartInfo@@@Z:PROC ; CBlockScaleDrawer::DrawVertScale
EXTRN	??0CVertScaleMaxWidthCalculatorData@@QAE@_NABVCDisplayAttributes@@ABVCVerticalScale@@H@Z:PROC ; CVertScaleMaxWidthCalculatorData::CVertScaleMaxWidthCalculatorData
EXTRN	??0CGraphSearchInfo@@QAE@XZ:PROC		; CGraphSearchInfo::CGraphSearchInfo
EXTRN	?FindGraph@CGraphSearchInfo@@UAEHPBVCBlocksColumn@@@Z:PROC ; CGraphSearchInfo::FindGraph
EXTRN	?FindGraph@CGraphSearchInfo@@UAEHPAXPBVCBlockImp@@@Z:PROC ; CGraphSearchInfo::FindGraph
EXTRN	?FindGraph@CGraphSearchInfo@@UAEHPBVCBlockImp@@@Z:PROC ; CGraphSearchInfo::FindGraph
EXTRN	?FindGraph@CGraphSearchInfo@@UAEHPAXPBVCVertScaleGroup@@@Z:PROC ; CGraphSearchInfo::FindGraph
EXTRN	?FindGraph@CGraphSearchInfo@@UAEHPBVCVertScaleGroup@@@Z:PROC ; CGraphSearchInfo::FindGraph
EXTRN	?FindGraph@CGraphSearchInfo@@UAEHPBVCGraphImp@@@Z:PROC ; CGraphSearchInfo::FindGraph
EXTRN	?FindGraph@CGraphSearchInfo_VisibleSubGraph@@UAEHPBVCSubGraph@@@Z:PROC ; CGraphSearchInfo_VisibleSubGraph::FindGraph
EXTRN	?FindGraph@CGraphSearchInfo_GraphType@@UAEHPBVCSubGraph@@@Z:PROC ; CGraphSearchInfo_GraphType::FindGraph
EXTRN	?FindGraph@CGraphSearchInfo_TypeStyleDrawStyle@@UAEHPBVCSubGraph@@@Z:PROC ; CGraphSearchInfo_TypeStyleDrawStyle::FindGraph
EXTRN	?FindGraph@CGraphSearchInfo_VisibleTypeStyleDrawStyle@@UAEHPBVCSubGraph@@@Z:PROC ; CGraphSearchInfo_VisibleTypeStyleDrawStyle::FindGraph
EXTRN	@__security_check_cookie@4:PROC
EXTRN	___CxxFrameHandler3:PROC
EXTRN	??_7type_info@@6B@:QWORD			; type_info::`vftable'
EXTRN	?g_iMetaTable@@3VIMetaTable@@A:BYTE		; g_iMetaTable
EXTRN	___security_cookie:DWORD
EXTRN	__fltused:DWORD
;	COMDAT __real@fff0000000000000
CONST	SEGMENT
__real@fff0000000000000 DQ 0fff0000000000000r	; -inf
CONST	ENDS
;	COMDAT __real@c034000000000000
CONST	SEGMENT
__real@c034000000000000 DQ 0c034000000000000r	; -20
CONST	ENDS
;	COMDAT __real@7ff0000000000000
CONST	SEGMENT
__real@7ff0000000000000 DQ 07ff0000000000000r	; inf
CONST	ENDS
;	COMDAT __real@4034000000000000
CONST	SEGMENT
__real@4034000000000000 DQ 04034000000000000r	; 20
CONST	ENDS
;	COMDAT ??_R1A@?0A@EA@CGraphSearchInfo_VisibleTypeStyleDrawStyle@@8
rdata$r	SEGMENT
??_R1A@?0A@EA@CGraphSearchInfo_VisibleTypeStyleDrawStyle@@8 DD FLAT:??_R0?AVCGraphSearchInfo_VisibleTypeStyleDrawStyle@@@8 ; CGraphSearchInfo_VisibleTypeStyleDrawStyle::`RTTI Base Class Descriptor at (0,-1,0,64)'
	DD	03H
	DD	00H
	DD	0ffffffffH
	DD	00H
	DD	040H
	DD	FLAT:??_R3CGraphSearchInfo_VisibleTypeStyleDrawStyle@@8
rdata$r	ENDS
;	COMDAT ??_R2CGraphSearchInfo_VisibleTypeStyleDrawStyle@@8
rdata$r	SEGMENT
??_R2CGraphSearchInfo_VisibleTypeStyleDrawStyle@@8 DD FLAT:??_R1A@?0A@EA@CGraphSearchInfo_VisibleTypeStyleDrawStyle@@8 ; CGraphSearchInfo_VisibleTypeStyleDrawStyle::`RTTI Base Class Array'
	DD	FLAT:??_R1A@?0A@EA@CGraphSearchInfo_TypeStyleDrawStyle@@8
	DD	FLAT:??_R1A@?0A@EA@CGraphSearchInfo_GraphType@@8
	DD	FLAT:??_R1A@?0A@EA@CGraphSearchInfo@@8
rdata$r	ENDS
;	COMDAT ??_R3CGraphSearchInfo_VisibleTypeStyleDrawStyle@@8
rdata$r	SEGMENT
??_R3CGraphSearchInfo_VisibleTypeStyleDrawStyle@@8 DD 00H ; CGraphSearchInfo_VisibleTypeStyleDrawStyle::`RTTI Class Hierarchy Descriptor'
	DD	00H
	DD	04H
	DD	FLAT:??_R2CGraphSearchInfo_VisibleTypeStyleDrawStyle@@8
rdata$r	ENDS
;	COMDAT ??_R0?AVCGraphSearchInfo_VisibleTypeStyleDrawStyle@@@8
data$rs	SEGMENT
??_R0?AVCGraphSearchInfo_VisibleTypeStyleDrawStyle@@@8 DD FLAT:??_7type_info@@6B@ ; CGraphSearchInfo_VisibleTypeStyleDrawStyle `RTTI Type Descriptor'
	DD	00H
	DB	'.?AVCGraphSearchInfo_VisibleTypeStyleDrawStyle@@', 00H
data$rs	ENDS
;	COMDAT ??_R4CGraphSearchInfo_VisibleTypeStyleDrawStyle@@6B@
rdata$r	SEGMENT
??_R4CGraphSearchInfo_VisibleTypeStyleDrawStyle@@6B@ DD 00H ; CGraphSearchInfo_VisibleTypeStyleDrawStyle::`RTTI Complete Object Locator'
	DD	00H
	DD	00H
	DD	FLAT:??_R0?AVCGraphSearchInfo_VisibleTypeStyleDrawStyle@@@8
	DD	FLAT:??_R3CGraphSearchInfo_VisibleTypeStyleDrawStyle@@8
rdata$r	ENDS
;	COMDAT ??_R1A@?0A@EA@CGraphSearchInfo_TypeStyleDrawStyle@@8
rdata$r	SEGMENT
??_R1A@?0A@EA@CGraphSearchInfo_TypeStyleDrawStyle@@8 DD FLAT:??_R0?AVCGraphSearchInfo_TypeStyleDrawStyle@@@8 ; CGraphSearchInfo_TypeStyleDrawStyle::`RTTI Base Class Descriptor at (0,-1,0,64)'
	DD	02H
	DD	00H
	DD	0ffffffffH
	DD	00H
	DD	040H
	DD	FLAT:??_R3CGraphSearchInfo_TypeStyleDrawStyle@@8
rdata$r	ENDS
;	COMDAT ??_R2CGraphSearchInfo_TypeStyleDrawStyle@@8
rdata$r	SEGMENT
??_R2CGraphSearchInfo_TypeStyleDrawStyle@@8 DD FLAT:??_R1A@?0A@EA@CGraphSearchInfo_TypeStyleDrawStyle@@8 ; CGraphSearchInfo_TypeStyleDrawStyle::`RTTI Base Class Array'
	DD	FLAT:??_R1A@?0A@EA@CGraphSearchInfo_GraphType@@8
	DD	FLAT:??_R1A@?0A@EA@CGraphSearchInfo@@8
rdata$r	ENDS
;	COMDAT ??_R3CGraphSearchInfo_TypeStyleDrawStyle@@8
rdata$r	SEGMENT
??_R3CGraphSearchInfo_TypeStyleDrawStyle@@8 DD 00H	; CGraphSearchInfo_TypeStyleDrawStyle::`RTTI Class Hierarchy Descriptor'
	DD	00H
	DD	03H
	DD	FLAT:??_R2CGraphSearchInfo_TypeStyleDrawStyle@@8
rdata$r	ENDS
;	COMDAT ??_R0?AVCGraphSearchInfo_TypeStyleDrawStyle@@@8
data$rs	SEGMENT
??_R0?AVCGraphSearchInfo_TypeStyleDrawStyle@@@8 DD FLAT:??_7type_info@@6B@ ; CGraphSearchInfo_TypeStyleDrawStyle `RTTI Type Descriptor'
	DD	00H
	DB	'.?AVCGraphSearchInfo_TypeStyleDrawStyle@@', 00H
data$rs	ENDS
;	COMDAT ??_R4CGraphSearchInfo_TypeStyleDrawStyle@@6B@
rdata$r	SEGMENT
??_R4CGraphSearchInfo_TypeStyleDrawStyle@@6B@ DD 00H	; CGraphSearchInfo_TypeStyleDrawStyle::`RTTI Complete Object Locator'
	DD	00H
	DD	00H
	DD	FLAT:??_R0?AVCGraphSearchInfo_TypeStyleDrawStyle@@@8
	DD	FLAT:??_R3CGraphSearchInfo_TypeStyleDrawStyle@@8
rdata$r	ENDS
;	COMDAT ??_R1A@?0A@EA@CGraphSearchInfo_GraphType@@8
rdata$r	SEGMENT
??_R1A@?0A@EA@CGraphSearchInfo_GraphType@@8 DD FLAT:??_R0?AVCGraphSearchInfo_GraphType@@@8 ; CGraphSearchInfo_GraphType::`RTTI Base Class Descriptor at (0,-1,0,64)'
	DD	01H
	DD	00H
	DD	0ffffffffH
	DD	00H
	DD	040H
	DD	FLAT:??_R3CGraphSearchInfo_GraphType@@8
rdata$r	ENDS
;	COMDAT ??_R2CGraphSearchInfo_GraphType@@8
rdata$r	SEGMENT
??_R2CGraphSearchInfo_GraphType@@8 DD FLAT:??_R1A@?0A@EA@CGraphSearchInfo_GraphType@@8 ; CGraphSearchInfo_GraphType::`RTTI Base Class Array'
	DD	FLAT:??_R1A@?0A@EA@CGraphSearchInfo@@8
rdata$r	ENDS
;	COMDAT ??_R3CGraphSearchInfo_GraphType@@8
rdata$r	SEGMENT
??_R3CGraphSearchInfo_GraphType@@8 DD 00H		; CGraphSearchInfo_GraphType::`RTTI Class Hierarchy Descriptor'
	DD	00H
	DD	02H
	DD	FLAT:??_R2CGraphSearchInfo_GraphType@@8
rdata$r	ENDS
;	COMDAT ??_R0?AVCGraphSearchInfo_GraphType@@@8
data$rs	SEGMENT
??_R0?AVCGraphSearchInfo_GraphType@@@8 DD FLAT:??_7type_info@@6B@ ; CGraphSearchInfo_GraphType `RTTI Type Descriptor'
	DD	00H
	DB	'.?AVCGraphSearchInfo_GraphType@@', 00H
data$rs	ENDS
;	COMDAT ??_R4CGraphSearchInfo_GraphType@@6B@
rdata$r	SEGMENT
??_R4CGraphSearchInfo_GraphType@@6B@ DD 00H		; CGraphSearchInfo_GraphType::`RTTI Complete Object Locator'
	DD	00H
	DD	00H
	DD	FLAT:??_R0?AVCGraphSearchInfo_GraphType@@@8
	DD	FLAT:??_R3CGraphSearchInfo_GraphType@@8
rdata$r	ENDS
;	COMDAT ??_R1A@?0A@EA@CGraphSearchInfo_VisibleSubGraph@@8
rdata$r	SEGMENT
??_R1A@?0A@EA@CGraphSearchInfo_VisibleSubGraph@@8 DD FLAT:??_R0?AVCGraphSearchInfo_VisibleSubGraph@@@8 ; CGraphSearchInfo_VisibleSubGraph::`RTTI Base Class Descriptor at (0,-1,0,64)'
	DD	01H
	DD	00H
	DD	0ffffffffH
	DD	00H
	DD	040H
	DD	FLAT:??_R3CGraphSearchInfo_VisibleSubGraph@@8
rdata$r	ENDS
;	COMDAT ??_R2CGraphSearchInfo_VisibleSubGraph@@8
rdata$r	SEGMENT
??_R2CGraphSearchInfo_VisibleSubGraph@@8 DD FLAT:??_R1A@?0A@EA@CGraphSearchInfo_VisibleSubGraph@@8 ; CGraphSearchInfo_VisibleSubGraph::`RTTI Base Class Array'
	DD	FLAT:??_R1A@?0A@EA@CGraphSearchInfo@@8
rdata$r	ENDS
;	COMDAT ??_R3CGraphSearchInfo_VisibleSubGraph@@8
rdata$r	SEGMENT
??_R3CGraphSearchInfo_VisibleSubGraph@@8 DD 00H		; CGraphSearchInfo_VisibleSubGraph::`RTTI Class Hierarchy Descriptor'
	DD	00H
	DD	02H
	DD	FLAT:??_R2CGraphSearchInfo_VisibleSubGraph@@8
rdata$r	ENDS
;	COMDAT ??_R0?AVCGraphSearchInfo_VisibleSubGraph@@@8
data$rs	SEGMENT
??_R0?AVCGraphSearchInfo_VisibleSubGraph@@@8 DD FLAT:??_7type_info@@6B@ ; CGraphSearchInfo_VisibleSubGraph `RTTI Type Descriptor'
	DD	00H
	DB	'.?AVCGraphSearchInfo_VisibleSubGraph@@', 00H
data$rs	ENDS
;	COMDAT ??_R4CGraphSearchInfo_VisibleSubGraph@@6B@
rdata$r	SEGMENT
??_R4CGraphSearchInfo_VisibleSubGraph@@6B@ DD 00H	; CGraphSearchInfo_VisibleSubGraph::`RTTI Complete Object Locator'
	DD	00H
	DD	00H
	DD	FLAT:??_R0?AVCGraphSearchInfo_VisibleSubGraph@@@8
	DD	FLAT:??_R3CGraphSearchInfo_VisibleSubGraph@@8
rdata$r	ENDS
;	COMDAT ??_R2CGraphSearchInfo@@8
rdata$r	SEGMENT
??_R2CGraphSearchInfo@@8 DD FLAT:??_R1A@?0A@EA@CGraphSearchInfo@@8 ; CGraphSearchInfo::`RTTI Base Class Array'
rdata$r	ENDS
;	COMDAT ??_R3CGraphSearchInfo@@8
rdata$r	SEGMENT
??_R3CGraphSearchInfo@@8 DD 00H				; CGraphSearchInfo::`RTTI Class Hierarchy Descriptor'
	DD	00H
	DD	01H
	DD	FLAT:??_R2CGraphSearchInfo@@8
rdata$r	ENDS
;	COMDAT ??_R0?AVCGraphSearchInfo@@@8
data$rs	SEGMENT
??_R0?AVCGraphSearchInfo@@@8 DD FLAT:??_7type_info@@6B@	; CGraphSearchInfo `RTTI Type Descriptor'
	DD	00H
	DB	'.?AVCGraphSearchInfo@@', 00H
data$rs	ENDS
;	COMDAT ??_R1A@?0A@EA@CGraphSearchInfo@@8
rdata$r	SEGMENT
??_R1A@?0A@EA@CGraphSearchInfo@@8 DD FLAT:??_R0?AVCGraphSearchInfo@@@8 ; CGraphSearchInfo::`RTTI Base Class Descriptor at (0,-1,0,64)'
	DD	00H
	DD	00H
	DD	0ffffffffH
	DD	00H
	DD	040H
	DD	FLAT:??_R3CGraphSearchInfo@@8
rdata$r	ENDS
;	COMDAT ??_R4?$_CTypedPtrList@VCObList@@PAVCGraphImp@@@@6B@
rdata$r	SEGMENT
??_R4?$_CTypedPtrList@VCObList@@PAVCGraphImp@@@@6B@ DD 00H ; _CTypedPtrList<CObList,CGraphImp *>::`RTTI Complete Object Locator'
	DD	00H
	DD	00H
	DD	FLAT:??_R0?AV?$_CTypedPtrList@VCObList@@PAVCGraphImp@@@@@8
	DD	FLAT:??_R3?$_CTypedPtrList@VCObList@@PAVCGraphImp@@@@8
rdata$r	ENDS
;	COMDAT ??_R2?$_CTypedPtrList@VCObList@@PAVCGraphImp@@@@8
rdata$r	SEGMENT
??_R2?$_CTypedPtrList@VCObList@@PAVCGraphImp@@@@8 DD FLAT:??_R1A@?0A@EA@?$_CTypedPtrList@VCObList@@PAVCGraphImp@@@@8 ; _CTypedPtrList<CObList,CGraphImp *>::`RTTI Base Class Array'
	DD	FLAT:??_R1A@?0A@EA@CObList@@8
	DD	FLAT:??_R1A@?0A@EA@CObject@@8
rdata$r	ENDS
;	COMDAT ??_R3?$_CTypedPtrList@VCObList@@PAVCGraphImp@@@@8
rdata$r	SEGMENT
??_R3?$_CTypedPtrList@VCObList@@PAVCGraphImp@@@@8 DD 00H ; _CTypedPtrList<CObList,CGraphImp *>::`RTTI Class Hierarchy Descriptor'
	DD	00H
	DD	03H
	DD	FLAT:??_R2?$_CTypedPtrList@VCObList@@PAVCGraphImp@@@@8
rdata$r	ENDS
;	COMDAT ??_R0?AV?$_CTypedPtrList@VCObList@@PAVCGraphImp@@@@@8
data$rs	SEGMENT
??_R0?AV?$_CTypedPtrList@VCObList@@PAVCGraphImp@@@@@8 DD FLAT:??_7type_info@@6B@ ; _CTypedPtrList<CObList,CGraphImp *> `RTTI Type Descriptor'
	DD	00H
	DB	'.?AV?$_CTypedPtrList@VCObList@@PAVCGraphImp@@@@', 00H
data$rs	ENDS
;	COMDAT ??_R1A@?0A@EA@?$_CTypedPtrList@VCObList@@PAVCGraphImp@@@@8
rdata$r	SEGMENT
??_R1A@?0A@EA@?$_CTypedPtrList@VCObList@@PAVCGraphImp@@@@8 DD FLAT:??_R0?AV?$_CTypedPtrList@VCObList@@PAVCGraphImp@@@@@8 ; _CTypedPtrList<CObList,CGraphImp *>::`RTTI Base Class Descriptor at (0,-1,0,64)'
	DD	02H
	DD	00H
	DD	0ffffffffH
	DD	00H
	DD	040H
	DD	FLAT:??_R3?$_CTypedPtrList@VCObList@@PAVCGraphImp@@@@8
rdata$r	ENDS
;	COMDAT ??_R1A@?0A@EA@?$CTypedPtrList@VCObList@@PAVCGraphImp@@@@8
rdata$r	SEGMENT
??_R1A@?0A@EA@?$CTypedPtrList@VCObList@@PAVCGraphImp@@@@8 DD FLAT:??_R0?AV?$CTypedPtrList@VCObList@@PAVCGraphImp@@@@@8 ; CTypedPtrList<CObList,CGraphImp *>::`RTTI Base Class Descriptor at (0,-1,0,64)'
	DD	03H
	DD	00H
	DD	0ffffffffH
	DD	00H
	DD	040H
	DD	FLAT:??_R3?$CTypedPtrList@VCObList@@PAVCGraphImp@@@@8
rdata$r	ENDS
;	COMDAT ??_R2?$CTypedPtrList@VCObList@@PAVCGraphImp@@@@8
rdata$r	SEGMENT
??_R2?$CTypedPtrList@VCObList@@PAVCGraphImp@@@@8 DD FLAT:??_R1A@?0A@EA@?$CTypedPtrList@VCObList@@PAVCGraphImp@@@@8 ; CTypedPtrList<CObList,CGraphImp *>::`RTTI Base Class Array'
	DD	FLAT:??_R1A@?0A@EA@?$_CTypedPtrList@VCObList@@PAVCGraphImp@@@@8
	DD	FLAT:??_R1A@?0A@EA@CObList@@8
	DD	FLAT:??_R1A@?0A@EA@CObject@@8
rdata$r	ENDS
;	COMDAT ??_R3?$CTypedPtrList@VCObList@@PAVCGraphImp@@@@8
rdata$r	SEGMENT
??_R3?$CTypedPtrList@VCObList@@PAVCGraphImp@@@@8 DD 00H	; CTypedPtrList<CObList,CGraphImp *>::`RTTI Class Hierarchy Descriptor'
	DD	00H
	DD	04H
	DD	FLAT:??_R2?$CTypedPtrList@VCObList@@PAVCGraphImp@@@@8
rdata$r	ENDS
;	COMDAT ??_R0?AV?$CTypedPtrList@VCObList@@PAVCGraphImp@@@@@8
data$rs	SEGMENT
??_R0?AV?$CTypedPtrList@VCObList@@PAVCGraphImp@@@@@8 DD FLAT:??_7type_info@@6B@ ; CTypedPtrList<CObList,CGraphImp *> `RTTI Type Descriptor'
	DD	00H
	DB	'.?AV?$CTypedPtrList@VCObList@@PAVCGraphImp@@@@', 00H
data$rs	ENDS
;	COMDAT ??_R4?$CTypedPtrList@VCObList@@PAVCGraphImp@@@@6B@
rdata$r	SEGMENT
??_R4?$CTypedPtrList@VCObList@@PAVCGraphImp@@@@6B@ DD 00H ; CTypedPtrList<CObList,CGraphImp *>::`RTTI Complete Object Locator'
	DD	00H
	DD	00H
	DD	FLAT:??_R0?AV?$CTypedPtrList@VCObList@@PAVCGraphImp@@@@@8
	DD	FLAT:??_R3?$CTypedPtrList@VCObList@@PAVCGraphImp@@@@8
rdata$r	ENDS
;	COMDAT ??_R1A@?0A@EA@CVertScaleGroup@@8
rdata$r	SEGMENT
??_R1A@?0A@EA@CVertScaleGroup@@8 DD FLAT:??_R0?AVCVertScaleGroup@@@8 ; CVertScaleGroup::`RTTI Base Class Descriptor at (0,-1,0,64)'
	DD	01H
	DD	00H
	DD	0ffffffffH
	DD	00H
	DD	040H
	DD	FLAT:??_R3CVertScaleGroup@@8
rdata$r	ENDS
;	COMDAT ??_R2CVertScaleGroup@@8
rdata$r	SEGMENT
??_R2CVertScaleGroup@@8 DD FLAT:??_R1A@?0A@EA@CVertScaleGroup@@8 ; CVertScaleGroup::`RTTI Base Class Array'
	DD	FLAT:??_R1A@?0A@EA@CObject@@8
rdata$r	ENDS
;	COMDAT ??_R3CVertScaleGroup@@8
rdata$r	SEGMENT
??_R3CVertScaleGroup@@8 DD 00H				; CVertScaleGroup::`RTTI Class Hierarchy Descriptor'
	DD	00H
	DD	02H
	DD	FLAT:??_R2CVertScaleGroup@@8
rdata$r	ENDS
;	COMDAT ??_R0?AVCVertScaleGroup@@@8
data$rs	SEGMENT
??_R0?AVCVertScaleGroup@@@8 DD FLAT:??_7type_info@@6B@	; CVertScaleGroup `RTTI Type Descriptor'
	DD	00H
	DB	'.?AVCVertScaleGroup@@', 00H
data$rs	ENDS
;	COMDAT ??_R4CVertScaleGroup@@6B@
rdata$r	SEGMENT
??_R4CVertScaleGroup@@6B@ DD 00H			; CVertScaleGroup::`RTTI Complete Object Locator'
	DD	00H
	DD	00H
	DD	FLAT:??_R0?AVCVertScaleGroup@@@8
	DD	FLAT:??_R3CVertScaleGroup@@8
rdata$r	ENDS
;	COMDAT ??_C@_05GHAPOLAB@?$CD?$CF04X@
CONST	SEGMENT
??_C@_05GHAPOLAB@?$CD?$CF04X@ DB '#%04X', 00H		; `string'
CONST	ENDS
;	COMDAT ??_C@_03PHGIHNDE@RQ?3@
CONST	SEGMENT
??_C@_03PHGIHNDE@RQ?3@ DB 'RQ:', 00H			; `string'
CONST	ENDS
;	COMDAT ??_C@_0BF@DDJNMPKE@VertScaleGroupEnd?$DL?$AN?6@
CONST	SEGMENT
??_C@_0BF@DDJNMPKE@VertScaleGroupEnd?$DL?$AN?6@ DB 'VertScaleGroupEnd;', 0dH
	DB	0aH, 00H					; `string'
CONST	ENDS
;	COMDAT ??_C@_0BC@DJOHDNOJ@VertScaleGroup?$DL?$AN?6@
CONST	SEGMENT
??_C@_0BC@DJOHDNOJ@VertScaleGroup?$DL?$AN?6@ DB 'VertScaleGroup;', 0dH, 0aH
	DB	00H						; `string'
CONST	ENDS
;	COMDAT ??_C@_02LLFJKDMN@?$KB?$LP@
CONST	SEGMENT
??_C@_02LLFJKDMN@?$KB?$LP@ DB 0a1H, 0bfH, 00H		; `string'
CONST	ENDS
;	COMDAT ??_C@_01MMEEDKFM@X@
CONST	SEGMENT
??_C@_01MMEEDKFM@X@ DB 'X', 00H				; `string'
CONST	ENDS
;	COMDAT ??_C@_01FJMABOPO@x@
CONST	SEGMENT
??_C@_01FJMABOPO@x@ DB 'x', 00H				; `string'
CONST	ENDS
;	COMDAT ??_C@_0M@HCFJODHH@_Volume?5MA_@
CONST	SEGMENT
??_C@_0M@HCFJODHH@_Volume?5MA_@ DB '_Volume MA_', 00H	; `string'
CONST	ENDS
;	COMDAT ??_C@_0L@NBHIHAGD@_Price?5MA_@
CONST	SEGMENT
??_C@_0L@NBHIHAGD@_Price?5MA_@ DB '_Price MA_', 00H	; `string'
CONST	ENDS
;	COMDAT ??_C@_0M@DGHFHKEI@GraphEnd?$DL?$AN?6@
CONST	SEGMENT
??_C@_0M@DGHFHKEI@GraphEnd?$DL?$AN?6@ DB 'GraphEnd;', 0dH, 0aH, 00H ; `string'
CONST	ENDS
;	COMDAT ??_C@_08BHMMGBBH@Graph?$DL?$AN?6@
CONST	SEGMENT
??_C@_08BHMMGBBH@Graph?$DL?$AN?6@ DB 'Graph;', 0dH, 0aH, 00H ; `string'
CONST	ENDS
;	COMDAT ??_C@_02PCIJFNDE@?$AN?6@
CONST	SEGMENT
??_C@_02PCIJFNDE@?$AN?6@ DB 0dH, 0aH, 00H		; `string'
CONST	ENDS
;	COMDAT ??_7CGraphSearchInfo_VisibleTypeStyleDrawStyle@@6B@
CONST	SEGMENT
??_7CGraphSearchInfo_VisibleTypeStyleDrawStyle@@6B@ DD FLAT:??_R4CGraphSearchInfo_VisibleTypeStyleDrawStyle@@6B@ ; CGraphSearchInfo_VisibleTypeStyleDrawStyle::`vftable'
	DD	FLAT:?FindGraph@CGraphSearchInfo_VisibleTypeStyleDrawStyle@@UAEHPBVCSubGraph@@@Z
	DD	FLAT:?FindGraph@CGraphSearchInfo@@UAEHPBVCGraphImp@@@Z
	DD	FLAT:?FindGraph@CGraphSearchInfo@@UAEHPBVCVertScaleGroup@@@Z
	DD	FLAT:?FindGraph@CGraphSearchInfo@@UAEHPAXPBVCVertScaleGroup@@@Z
	DD	FLAT:?FindGraph@CGraphSearchInfo@@UAEHPBVCBlockImp@@@Z
	DD	FLAT:?FindGraph@CGraphSearchInfo@@UAEHPAXPBVCBlockImp@@@Z
	DD	FLAT:?FindGraph@CGraphSearchInfo@@UAEHPBVCBlocksColumn@@@Z
CONST	ENDS
;	COMDAT ??_7CGraphSearchInfo_TypeStyleDrawStyle@@6B@
CONST	SEGMENT
??_7CGraphSearchInfo_TypeStyleDrawStyle@@6B@ DD FLAT:??_R4CGraphSearchInfo_TypeStyleDrawStyle@@6B@ ; CGraphSearchInfo_TypeStyleDrawStyle::`vftable'
	DD	FLAT:?FindGraph@CGraphSearchInfo_TypeStyleDrawStyle@@UAEHPBVCSubGraph@@@Z
	DD	FLAT:?FindGraph@CGraphSearchInfo@@UAEHPBVCGraphImp@@@Z
	DD	FLAT:?FindGraph@CGraphSearchInfo@@UAEHPBVCVertScaleGroup@@@Z
	DD	FLAT:?FindGraph@CGraphSearchInfo@@UAEHPAXPBVCVertScaleGroup@@@Z
	DD	FLAT:?FindGraph@CGraphSearchInfo@@UAEHPBVCBlockImp@@@Z
	DD	FLAT:?FindGraph@CGraphSearchInfo@@UAEHPAXPBVCBlockImp@@@Z
	DD	FLAT:?FindGraph@CGraphSearchInfo@@UAEHPBVCBlocksColumn@@@Z
CONST	ENDS
;	COMDAT ??_7CGraphSearchInfo_GraphType@@6B@
CONST	SEGMENT
??_7CGraphSearchInfo_GraphType@@6B@ DD FLAT:??_R4CGraphSearchInfo_GraphType@@6B@ ; CGraphSearchInfo_GraphType::`vftable'
	DD	FLAT:?FindGraph@CGraphSearchInfo_GraphType@@UAEHPBVCSubGraph@@@Z
	DD	FLAT:?FindGraph@CGraphSearchInfo@@UAEHPBVCGraphImp@@@Z
	DD	FLAT:?FindGraph@CGraphSearchInfo@@UAEHPBVCVertScaleGroup@@@Z
	DD	FLAT:?FindGraph@CGraphSearchInfo@@UAEHPAXPBVCVertScaleGroup@@@Z
	DD	FLAT:?FindGraph@CGraphSearchInfo@@UAEHPBVCBlockImp@@@Z
	DD	FLAT:?FindGraph@CGraphSearchInfo@@UAEHPAXPBVCBlockImp@@@Z
	DD	FLAT:?FindGraph@CGraphSearchInfo@@UAEHPBVCBlocksColumn@@@Z
CONST	ENDS
;	COMDAT ??_7CGraphSearchInfo_VisibleSubGraph@@6B@
CONST	SEGMENT
??_7CGraphSearchInfo_VisibleSubGraph@@6B@ DD FLAT:??_R4CGraphSearchInfo_VisibleSubGraph@@6B@ ; CGraphSearchInfo_VisibleSubGraph::`vftable'
	DD	FLAT:?FindGraph@CGraphSearchInfo_VisibleSubGraph@@UAEHPBVCSubGraph@@@Z
	DD	FLAT:?FindGraph@CGraphSearchInfo@@UAEHPBVCGraphImp@@@Z
	DD	FLAT:?FindGraph@CGraphSearchInfo@@UAEHPBVCVertScaleGroup@@@Z
	DD	FLAT:?FindGraph@CGraphSearchInfo@@UAEHPAXPBVCVertScaleGroup@@@Z
	DD	FLAT:?FindGraph@CGraphSearchInfo@@UAEHPBVCBlockImp@@@Z
	DD	FLAT:?FindGraph@CGraphSearchInfo@@UAEHPAXPBVCBlockImp@@@Z
	DD	FLAT:?FindGraph@CGraphSearchInfo@@UAEHPBVCBlocksColumn@@@Z
CONST	ENDS
;	COMDAT ??_7CVertScaleGroup@@6B@
CONST	SEGMENT
??_7CVertScaleGroup@@6B@ DD FLAT:??_R4CVertScaleGroup@@6B@ ; CVertScaleGroup::`vftable'
	DD	FLAT:?GetRuntimeClass@CObject@@UBEPAUCRuntimeClass@@XZ
	DD	FLAT:??_ECVertScaleGroup@@MAEPAXI@Z
	DD	FLAT:?Serialize@CObject@@UAEXAAVCArchive@@@Z
	DD	FLAT:?AssertValid@CObject@@UBEXXZ
	DD	FLAT:?Dump@CObject@@UBEXAAVCDumpContext@@@Z
CONST	ENDS
;	COMDAT ??_7?$CTypedPtrList@VCObList@@PAVCGraphImp@@@@6B@
CONST	SEGMENT
??_7?$CTypedPtrList@VCObList@@PAVCGraphImp@@@@6B@ DD FLAT:??_R4?$CTypedPtrList@VCObList@@PAVCGraphImp@@@@6B@ ; CTypedPtrList<CObList,CGraphImp *>::`vftable'
	DD	FLAT:?GetRuntimeClass@CObList@@UBEPAUCRuntimeClass@@XZ
	DD	FLAT:??_E?$CTypedPtrList@VCObList@@PAVCGraphImp@@@@UAEPAXI@Z
	DD	FLAT:?Serialize@CObList@@UAEXAAVCArchive@@@Z
	DD	FLAT:?AssertValid@CObject@@UBEXXZ
	DD	FLAT:?Dump@CObject@@UBEXAAVCDumpContext@@@Z
CONST	ENDS
;	COMDAT ??_7?$_CTypedPtrList@VCObList@@PAVCGraphImp@@@@6B@
CONST	SEGMENT
??_7?$_CTypedPtrList@VCObList@@PAVCGraphImp@@@@6B@ DD FLAT:??_R4?$_CTypedPtrList@VCObList@@PAVCGraphImp@@@@6B@ ; _CTypedPtrList<CObList,CGraphImp *>::`vftable'
	DD	FLAT:?GetRuntimeClass@CObList@@UBEPAUCRuntimeClass@@XZ
	DD	FLAT:??_E?$_CTypedPtrList@VCObList@@PAVCGraphImp@@@@UAEPAXI@Z
	DD	FLAT:?Serialize@CObList@@UAEXAAVCArchive@@@Z
	DD	FLAT:?AssertValid@CObject@@UBEXXZ
	DD	FLAT:?Dump@CObject@@UBEXAAVCDumpContext@@@Z
CONST	ENDS
;	COMDAT ??_R2CObList@@8
rdata$r	SEGMENT
??_R2CObList@@8 DD FLAT:??_R1A@?0A@EA@CObList@@8	; CObList::`RTTI Base Class Array'
	DD	FLAT:??_R1A@?0A@EA@CObject@@8
rdata$r	ENDS
;	COMDAT ??_R3CObList@@8
rdata$r	SEGMENT
??_R3CObList@@8 DD 00H					; CObList::`RTTI Class Hierarchy Descriptor'
	DD	00H
	DD	02H
	DD	FLAT:??_R2CObList@@8
rdata$r	ENDS
;	COMDAT ??_R0?AVCObList@@@8
data$rs	SEGMENT
??_R0?AVCObList@@@8 DD FLAT:??_7type_info@@6B@		; CObList `RTTI Type Descriptor'
	DD	00H
	DB	'.?AVCObList@@', 00H
data$rs	ENDS
;	COMDAT ??_R1A@?0A@EA@CObList@@8
rdata$r	SEGMENT
??_R1A@?0A@EA@CObList@@8 DD FLAT:??_R0?AVCObList@@@8	; CObList::`RTTI Base Class Descriptor at (0,-1,0,64)'
	DD	01H
	DD	00H
	DD	0ffffffffH
	DD	00H
	DD	040H
	DD	FLAT:??_R3CObList@@8
rdata$r	ENDS
;	COMDAT ??_R1A@?0A@EA@CObject@@8
rdata$r	SEGMENT
??_R1A@?0A@EA@CObject@@8 DD FLAT:??_R0?AVCObject@@@8	; CObject::`RTTI Base Class Descriptor at (0,-1,0,64)'
	DD	00H
	DD	00H
	DD	0ffffffffH
	DD	00H
	DD	040H
	DD	FLAT:??_R3CObject@@8
rdata$r	ENDS
;	COMDAT ??_R2CObject@@8
rdata$r	SEGMENT
??_R2CObject@@8 DD FLAT:??_R1A@?0A@EA@CObject@@8	; CObject::`RTTI Base Class Array'
rdata$r	ENDS
;	COMDAT ??_R3CObject@@8
rdata$r	SEGMENT
??_R3CObject@@8 DD 00H					; CObject::`RTTI Class Hierarchy Descriptor'
	DD	00H
	DD	01H
	DD	FLAT:??_R2CObject@@8
rdata$r	ENDS
;	COMDAT ??_R0?AVCObject@@@8
data$rs	SEGMENT
??_R0?AVCObject@@@8 DD FLAT:??_7type_info@@6B@		; CObject `RTTI Type Descriptor'
	DD	00H
	DB	'.?AVCObject@@', 00H
data$rs	ENDS
;	COMDAT ??_C@_00CNPNBAHC@@
CONST	SEGMENT
??_C@_00CNPNBAHC@@ DB 00H				; `string'
CONST	ENDS
;	COMDAT xdata$x
xdata$x	SEGMENT
__unwindtable$?AddTail@?$CList@V?$CStringT@DV?$StrTraitMFC_DLL@DV?$ChTraitsCRT@D@ATL@@@@@ATL@@V12@@@QAEPAU__POSITION@@V?$CStringT@DV?$StrTraitMFC_DLL@DV?$ChTraitsCRT@D@ATL@@@@@ATL@@@Z DD 0ffffffffH
	DD	FLAT:__unwindfunclet$?AddTail@?$CList@V?$CStringT@DV?$StrTraitMFC_DLL@DV?$ChTraitsCRT@D@ATL@@@@@ATL@@V12@@@QAEPAU__POSITION@@V?$CStringT@DV?$StrTraitMFC_DLL@DV?$ChTraitsCRT@D@ATL@@@@@ATL@@@Z$0
__ehfuncinfo$?AddTail@?$CList@V?$CStringT@DV?$StrTraitMFC_DLL@DV?$ChTraitsCRT@D@ATL@@@@@ATL@@V12@@@QAEPAU__POSITION@@V?$CStringT@DV?$StrTraitMFC_DLL@DV?$ChTraitsCRT@D@ATL@@@@@ATL@@@Z DD 019930522H
	DD	01H
	DD	FLAT:__unwindtable$?AddTail@?$CList@V?$CStringT@DV?$StrTraitMFC_DLL@DV?$ChTraitsCRT@D@ATL@@@@@ATL@@V12@@@QAEPAU__POSITION@@V?$CStringT@DV?$StrTraitMFC_DLL@DV?$ChTraitsCRT@D@ATL@@@@@ATL@@@Z
	DD	2 DUP(00H)
	DD	2 DUP(00H)
	DD	00H
	DD	01H
xdata$x	ENDS
;	COMDAT xdata$x
xdata$x	SEGMENT
__unwindtable$??_GCVertScaleGroup@@MAEPAXI@Z DD 0ffffffffH
	DD	FLAT:___std_terminate
__ehfuncinfo$??_GCVertScaleGroup@@MAEPAXI@Z DD 019930522H
	DD	01H
	DD	FLAT:__unwindtable$??_GCVertScaleGroup@@MAEPAXI@Z
	DD	2 DUP(00H)
	DD	2 DUP(00H)
	DD	00H
	DD	05H
xdata$x	ENDS
;	COMDAT xdata$x
xdata$x	SEGMENT
__unwindtable$?ChangeIndicatorPacketNames@CVertScaleGroup@@QAEHPBDH0@Z DD 0ffffffffH
	DD	FLAT:__unwindfunclet$?ChangeIndicatorPacketNames@CVertScaleGroup@@QAEHPBDH0@Z$0
	DD	0ffffffffH
	DD	FLAT:__unwindfunclet$?ChangeIndicatorPacketNames@CVertScaleGroup@@QAEHPBDH0@Z$1
	DD	0ffffffffH
	DD	FLAT:__unwindfunclet$?ChangeIndicatorPacketNames@CVertScaleGroup@@QAEHPBDH0@Z$2
	DD	0ffffffffH
	DD	FLAT:__unwindfunclet$?ChangeIndicatorPacketNames@CVertScaleGroup@@QAEHPBDH0@Z$3
__ehfuncinfo$?ChangeIndicatorPacketNames@CVertScaleGroup@@QAEHPBDH0@Z DD 019930522H
	DD	04H
	DD	FLAT:__unwindtable$?ChangeIndicatorPacketNames@CVertScaleGroup@@QAEHPBDH0@Z
	DD	2 DUP(00H)
	DD	2 DUP(00H)
	DD	00H
	DD	01H
xdata$x	ENDS
;	COMDAT xdata$x
xdata$x	SEGMENT
__unwindtable$?GetIndexOfGraph@CVertScaleGroup@@QAEHPBDAAH@Z DD 0ffffffffH
	DD	FLAT:__unwindfunclet$?GetIndexOfGraph@CVertScaleGroup@@QAEHPBDAAH@Z$0
__ehfuncinfo$?GetIndexOfGraph@CVertScaleGroup@@QAEHPBDAAH@Z DD 019930522H
	DD	01H
	DD	FLAT:__unwindtable$?GetIndexOfGraph@CVertScaleGroup@@QAEHPBDAAH@Z
	DD	2 DUP(00H)
	DD	2 DUP(00H)
	DD	00H
	DD	01H
xdata$x	ENDS
;	COMDAT xdata$x
xdata$x	SEGMENT
__unwindtable$?FindIndicator@CVertScaleGroup@@QBEPAVCGraphImp@@PBDABV?$CStringT@DV?$StrTraitMFC_DLL@DV?$ChTraitsCRT@D@ATL@@@@@ATL@@@Z DD 0ffffffffH
	DD	FLAT:__unwindfunclet$?FindIndicator@CVertScaleGroup@@QBEPAVCGraphImp@@PBDABV?$CStringT@DV?$StrTraitMFC_DLL@DV?$ChTraitsCRT@D@ATL@@@@@ATL@@@Z$0
__ehfuncinfo$?FindIndicator@CVertScaleGroup@@QBEPAVCGraphImp@@PBDABV?$CStringT@DV?$StrTraitMFC_DLL@DV?$ChTraitsCRT@D@ATL@@@@@ATL@@@Z DD 019930522H
	DD	01H
	DD	FLAT:__unwindtable$?FindIndicator@CVertScaleGroup@@QBEPAVCGraphImp@@PBDABV?$CStringT@DV?$StrTraitMFC_DLL@DV?$ChTraitsCRT@D@ATL@@@@@ATL@@@Z
	DD	2 DUP(00H)
	DD	2 DUP(00H)
	DD	00H
	DD	01H
xdata$x	ENDS
;	COMDAT xdata$x
xdata$x	SEGMENT
__unwindtable$?FindIndicator@CVertScaleGroup@@QBEPAVCGraphImp@@ABV?$CStringT@DV?$StrTraitMFC_DLL@DV?$ChTraitsCRT@D@ATL@@@@@ATL@@@Z DD 0ffffffffH
	DD	FLAT:__unwindfunclet$?FindIndicator@CVertScaleGroup@@QBEPAVCGraphImp@@ABV?$CStringT@DV?$StrTraitMFC_DLL@DV?$ChTraitsCRT@D@ATL@@@@@ATL@@@Z$0
__ehfuncinfo$?FindIndicator@CVertScaleGroup@@QBEPAVCGraphImp@@ABV?$CStringT@DV?$StrTraitMFC_DLL@DV?$ChTraitsCRT@D@ATL@@@@@ATL@@@Z DD 019930522H
	DD	01H
	DD	FLAT:__unwindtable$?FindIndicator@CVertScaleGroup@@QBEPAVCGraphImp@@ABV?$CStringT@DV?$StrTraitMFC_DLL@DV?$ChTraitsCRT@D@ATL@@@@@ATL@@@Z
	DD	2 DUP(00H)
	DD	2 DUP(00H)
	DD	00H
	DD	01H
xdata$x	ENDS
;	COMDAT xdata$x
xdata$x	SEGMENT
__unwindtable$?FindGraph@CVertScaleGroup@@QBEPAVCGraphImp@@PBDABV?$CStringT@DV?$StrTraitMFC_DLL@DV?$ChTraitsCRT@D@ATL@@@@@ATL@@@Z DD 0ffffffffH
	DD	FLAT:__unwindfunclet$?FindGraph@CVertScaleGroup@@QBEPAVCGraphImp@@PBDABV?$CStringT@DV?$StrTraitMFC_DLL@DV?$ChTraitsCRT@D@ATL@@@@@ATL@@@Z$0
__ehfuncinfo$?FindGraph@CVertScaleGroup@@QBEPAVCGraphImp@@PBDABV?$CStringT@DV?$StrTraitMFC_DLL@DV?$ChTraitsCRT@D@ATL@@@@@ATL@@@Z DD 019930522H
	DD	01H
	DD	FLAT:__unwindtable$?FindGraph@CVertScaleGroup@@QBEPAVCGraphImp@@PBDABV?$CStringT@DV?$StrTraitMFC_DLL@DV?$ChTraitsCRT@D@ATL@@@@@ATL@@@Z
	DD	2 DUP(00H)
	DD	2 DUP(00H)
	DD	00H
	DD	01H
xdata$x	ENDS
;	COMDAT xdata$x
xdata$x	SEGMENT
__unwindtable$?FindGraph@CVertScaleGroup@@QBEPAVCGraphImp@@ABV?$CStringT@DV?$StrTraitMFC_DLL@DV?$ChTraitsCRT@D@ATL@@@@@ATL@@@Z DD 0ffffffffH
	DD	FLAT:__unwindfunclet$?FindGraph@CVertScaleGroup@@QBEPAVCGraphImp@@ABV?$CStringT@DV?$StrTraitMFC_DLL@DV?$ChTraitsCRT@D@ATL@@@@@ATL@@@Z$0
__ehfuncinfo$?FindGraph@CVertScaleGroup@@QBEPAVCGraphImp@@ABV?$CStringT@DV?$StrTraitMFC_DLL@DV?$ChTraitsCRT@D@ATL@@@@@ATL@@@Z DD 019930522H
	DD	01H
	DD	FLAT:__unwindtable$?FindGraph@CVertScaleGroup@@QBEPAVCGraphImp@@ABV?$CStringT@DV?$StrTraitMFC_DLL@DV?$ChTraitsCRT@D@ATL@@@@@ATL@@@Z
	DD	2 DUP(00H)
	DD	2 DUP(00H)
	DD	00H
	DD	01H
xdata$x	ENDS
;	COMDAT xdata$x
xdata$x	SEGMENT
__ehfuncinfo$?DrawGraphs@CVertScaleGroup@@QAEXPAVCDC@@PAVCDrawingGraphData@@AAH22@Z DD 019930522H
	DD	05H
	DD	FLAT:__unwindtable$?DrawGraphs@CVertScaleGroup@@QAEXPAVCDC@@PAVCDrawingGraphData@@AAH22@Z
	DD	2 DUP(00H)
	DD	2 DUP(00H)
	DD	00H
	DD	01H
__unwindtable$?DrawGraphs@CVertScaleGroup@@QAEXPAVCDC@@PAVCDrawingGraphData@@AAH22@Z DD 0ffffffffH
	DD	FLAT:__unwindfunclet$?DrawGraphs@CVertScaleGroup@@QAEXPAVCDC@@PAVCDrawingGraphData@@AAH22@Z$0
	DD	0ffffffffH
	DD	FLAT:__unwindfunclet$?DrawGraphs@CVertScaleGroup@@QAEXPAVCDC@@PAVCDrawingGraphData@@AAH22@Z$1
	DD	01H
	DD	FLAT:__unwindfunclet$?DrawGraphs@CVertScaleGroup@@QAEXPAVCDC@@PAVCDrawingGraphData@@AAH22@Z$2
	DD	0ffffffffH
	DD	FLAT:__unwindfunclet$?DrawGraphs@CVertScaleGroup@@QAEXPAVCDC@@PAVCDrawingGraphData@@AAH22@Z$3
	DD	03H
	DD	FLAT:__unwindfunclet$?DrawGraphs@CVertScaleGroup@@QAEXPAVCDC@@PAVCDrawingGraphData@@AAH22@Z$4
xdata$x	ENDS
;	COMDAT xdata$x
xdata$x	SEGMENT
__unwindtable$?DrawVertScale@CVertScaleGroup@@QAEXPAVCDC@@PAVCDrawingVertScaleData@@ABVCDrawingRegion@@@Z DD 0ffffffffH
	DD	FLAT:__unwindfunclet$?DrawVertScale@CVertScaleGroup@@QAEXPAVCDC@@PAVCDrawingVertScaleData@@ABVCDrawingRegion@@@Z$0
	DD	0ffffffffH
	DD	FLAT:__unwindfunclet$?DrawVertScale@CVertScaleGroup@@QAEXPAVCDC@@PAVCDrawingVertScaleData@@ABVCDrawingRegion@@@Z$1
	DD	0ffffffffH
	DD	FLAT:__unwindfunclet$?DrawVertScale@CVertScaleGroup@@QAEXPAVCDC@@PAVCDrawingVertScaleData@@ABVCDrawingRegion@@@Z$2
__ehfuncinfo$?DrawVertScale@CVertScaleGroup@@QAEXPAVCDC@@PAVCDrawingVertScaleData@@ABVCDrawingRegion@@@Z DD 019930522H
	DD	03H
	DD	FLAT:__unwindtable$?DrawVertScale@CVertScaleGroup@@QAEXPAVCDC@@PAVCDrawingVertScaleData@@ABVCDrawingRegion@@@Z
	DD	2 DUP(00H)
	DD	2 DUP(00H)
	DD	00H
	DD	01H
xdata$x	ENDS
;	COMDAT xdata$x
xdata$x	SEGMENT
__unwindtable$?IsExistenceIndicator@CVertScaleGroup@@QBE_NPBDABV?$CStringT@DV?$StrTraitMFC_DLL@DV?$ChTraitsCRT@D@ATL@@@@@ATL@@@Z DD 0ffffffffH
	DD	FLAT:__unwindfunclet$?IsExistenceIndicator@CVertScaleGroup@@QBE_NPBDABV?$CStringT@DV?$StrTraitMFC_DLL@DV?$ChTraitsCRT@D@ATL@@@@@ATL@@@Z$0
__ehfuncinfo$?IsExistenceIndicator@CVertScaleGroup@@QBE_NPBDABV?$CStringT@DV?$StrTraitMFC_DLL@DV?$ChTraitsCRT@D@ATL@@@@@ATL@@@Z DD 019930522H
	DD	01H
	DD	FLAT:__unwindtable$?IsExistenceIndicator@CVertScaleGroup@@QBE_NPBDABV?$CStringT@DV?$StrTraitMFC_DLL@DV?$ChTraitsCRT@D@ATL@@@@@ATL@@@Z
	DD	2 DUP(00H)
	DD	2 DUP(00H)
	DD	00H
	DD	01H
xdata$x	ENDS
;	COMDAT xdata$x
xdata$x	SEGMENT
__unwindtable$?IsExistenceIndicator@CVertScaleGroup@@QBE_NABV?$CStringT@DV?$StrTraitMFC_DLL@DV?$ChTraitsCRT@D@ATL@@@@@ATL@@@Z DD 0ffffffffH
	DD	FLAT:__unwindfunclet$?IsExistenceIndicator@CVertScaleGroup@@QBE_NABV?$CStringT@DV?$StrTraitMFC_DLL@DV?$ChTraitsCRT@D@ATL@@@@@ATL@@@Z$0
__ehfuncinfo$?IsExistenceIndicator@CVertScaleGroup@@QBE_NABV?$CStringT@DV?$StrTraitMFC_DLL@DV?$ChTraitsCRT@D@ATL@@@@@ATL@@@Z DD 019930522H
	DD	01H
	DD	FLAT:__unwindtable$?IsExistenceIndicator@CVertScaleGroup@@QBE_NABV?$CStringT@DV?$StrTraitMFC_DLL@DV?$ChTraitsCRT@D@ATL@@@@@ATL@@@Z
	DD	2 DUP(00H)
	DD	2 DUP(00H)
	DD	00H
	DD	01H
xdata$x	ENDS
;	COMDAT xdata$x
xdata$x	SEGMENT
__unwindtable$?IsExistenceGraph@CVertScaleGroup@@QBE_NPAXABV?$CStringT@DV?$StrTraitMFC_DLL@DV?$ChTraitsCRT@D@ATL@@@@@ATL@@@Z DD 0ffffffffH
	DD	FLAT:__unwindfunclet$?IsExistenceGraph@CVertScaleGroup@@QBE_NPAXABV?$CStringT@DV?$StrTraitMFC_DLL@DV?$ChTraitsCRT@D@ATL@@@@@ATL@@@Z$0
__ehfuncinfo$?IsExistenceGraph@CVertScaleGroup@@QBE_NPAXABV?$CStringT@DV?$StrTraitMFC_DLL@DV?$ChTraitsCRT@D@ATL@@@@@ATL@@@Z DD 019930522H
	DD	01H
	DD	FLAT:__unwindtable$?IsExistenceGraph@CVertScaleGroup@@QBE_NPAXABV?$CStringT@DV?$StrTraitMFC_DLL@DV?$ChTraitsCRT@D@ATL@@@@@ATL@@@Z
	DD	2 DUP(00H)
	DD	2 DUP(00H)
	DD	00H
	DD	01H
xdata$x	ENDS
;	COMDAT xdata$x
xdata$x	SEGMENT
__unwindtable$?IsExistenceGraph@CVertScaleGroup@@QBE_NPBDABV?$CStringT@DV?$StrTraitMFC_DLL@DV?$ChTraitsCRT@D@ATL@@@@@ATL@@@Z DD 0ffffffffH
	DD	FLAT:__unwindfunclet$?IsExistenceGraph@CVertScaleGroup@@QBE_NPBDABV?$CStringT@DV?$StrTraitMFC_DLL@DV?$ChTraitsCRT@D@ATL@@@@@ATL@@@Z$0
__ehfuncinfo$?IsExistenceGraph@CVertScaleGroup@@QBE_NPBDABV?$CStringT@DV?$StrTraitMFC_DLL@DV?$ChTraitsCRT@D@ATL@@@@@ATL@@@Z DD 019930522H
	DD	01H
	DD	FLAT:__unwindtable$?IsExistenceGraph@CVertScaleGroup@@QBE_NPBDABV?$CStringT@DV?$StrTraitMFC_DLL@DV?$ChTraitsCRT@D@ATL@@@@@ATL@@@Z
	DD	2 DUP(00H)
	DD	2 DUP(00H)
	DD	00H
	DD	01H
xdata$x	ENDS
;	COMDAT xdata$x
xdata$x	SEGMENT
__unwindtable$?IsExistenceGraph@CVertScaleGroup@@QBE_NABV?$CStringT@DV?$StrTraitMFC_DLL@DV?$ChTraitsCRT@D@ATL@@@@@ATL@@@Z DD 0ffffffffH
	DD	FLAT:__unwindfunclet$?IsExistenceGraph@CVertScaleGroup@@QBE_NABV?$CStringT@DV?$StrTraitMFC_DLL@DV?$ChTraitsCRT@D@ATL@@@@@ATL@@@Z$0
__ehfuncinfo$?IsExistenceGraph@CVertScaleGroup@@QBE_NABV?$CStringT@DV?$StrTraitMFC_DLL@DV?$ChTraitsCRT@D@ATL@@@@@ATL@@@Z DD 019930522H
	DD	01H
	DD	FLAT:__unwindtable$?IsExistenceGraph@CVertScaleGroup@@QBE_NABV?$CStringT@DV?$StrTraitMFC_DLL@DV?$ChTraitsCRT@D@ATL@@@@@ATL@@@Z
	DD	2 DUP(00H)
	DD	2 DUP(00H)
	DD	00H
	DD	01H
xdata$x	ENDS
;	COMDAT xdata$x
xdata$x	SEGMENT
__unwindtable$?GetRightVertScaleRegionWidth@CVertScaleGroup@@QBEXPAVCDC@@AAHH@Z DD 0ffffffffH
	DD	FLAT:__unwindfunclet$?GetRightVertScaleRegionWidth@CVertScaleGroup@@QBEXPAVCDC@@AAHH@Z$1
__ehfuncinfo$?GetRightVertScaleRegionWidth@CVertScaleGroup@@QBEXPAVCDC@@AAHH@Z DD 019930522H
	DD	01H
	DD	FLAT:__unwindtable$?GetRightVertScaleRegionWidth@CVertScaleGroup@@QBEXPAVCDC@@AAHH@Z
	DD	2 DUP(00H)
	DD	2 DUP(00H)
	DD	00H
	DD	01H
xdata$x	ENDS
;	COMDAT xdata$x
xdata$x	SEGMENT
__unwindtable$?GetLeftVertScaleRegionWidth@CVertScaleGroup@@QBEXPAVCDC@@AAHH@Z DD 0ffffffffH
	DD	FLAT:__unwindfunclet$?GetLeftVertScaleRegionWidth@CVertScaleGroup@@QBEXPAVCDC@@AAHH@Z$1
__ehfuncinfo$?GetLeftVertScaleRegionWidth@CVertScaleGroup@@QBEXPAVCDC@@AAHH@Z DD 019930522H
	DD	01H
	DD	FLAT:__unwindtable$?GetLeftVertScaleRegionWidth@CVertScaleGroup@@QBEXPAVCDC@@AAHH@Z
	DD	2 DUP(00H)
	DD	2 DUP(00H)
	DD	00H
	DD	01H
xdata$x	ENDS
;	COMDAT xdata$x
xdata$x	SEGMENT
__unwindtable$?GetGraphsGraphName@CVertScaleGroup@@QBE?AV?$CStringT@DV?$StrTraitMFC_DLL@DV?$ChTraitsCRT@D@ATL@@@@@ATL@@XZ DD 0ffffffffH
	DD	FLAT:__unwindfunclet$?GetGraphsGraphName@CVertScaleGroup@@QBE?AV?$CStringT@DV?$StrTraitMFC_DLL@DV?$ChTraitsCRT@D@ATL@@@@@ATL@@XZ$0
	DD	00H
	DD	FLAT:__unwindfunclet$?GetGraphsGraphName@CVertScaleGroup@@QBE?AV?$CStringT@DV?$StrTraitMFC_DLL@DV?$ChTraitsCRT@D@ATL@@@@@ATL@@XZ$1
	DD	01H
	DD	FLAT:__unwindfunclet$?GetGraphsGraphName@CVertScaleGroup@@QBE?AV?$CStringT@DV?$StrTraitMFC_DLL@DV?$ChTraitsCRT@D@ATL@@@@@ATL@@XZ$3
__ehfuncinfo$?GetGraphsGraphName@CVertScaleGroup@@QBE?AV?$CStringT@DV?$StrTraitMFC_DLL@DV?$ChTraitsCRT@D@ATL@@@@@ATL@@XZ DD 019930522H
	DD	03H
	DD	FLAT:__unwindtable$?GetGraphsGraphName@CVertScaleGroup@@QBE?AV?$CStringT@DV?$StrTraitMFC_DLL@DV?$ChTraitsCRT@D@ATL@@@@@ATL@@XZ
	DD	2 DUP(00H)
	DD	2 DUP(00H)
	DD	00H
	DD	01H
xdata$x	ENDS
;	COMDAT xdata$x
xdata$x	SEGMENT
__unwindtable$?GetAllGraphName@CVertScaleGroup@@QBE_NAAV?$CList@V?$CStringT@DV?$StrTraitMFC_DLL@DV?$ChTraitsCRT@D@ATL@@@@@ATL@@V12@@@@Z DD 0ffffffffH
	DD	FLAT:__unwindfunclet$?GetAllGraphName@CVertScaleGroup@@QBE_NAAV?$CList@V?$CStringT@DV?$StrTraitMFC_DLL@DV?$ChTraitsCRT@D@ATL@@@@@ATL@@V12@@@@Z$0
__ehfuncinfo$?GetAllGraphName@CVertScaleGroup@@QBE_NAAV?$CList@V?$CStringT@DV?$StrTraitMFC_DLL@DV?$ChTraitsCRT@D@ATL@@@@@ATL@@V12@@@@Z DD 019930522H
	DD	01H
	DD	FLAT:__unwindtable$?GetAllGraphName@CVertScaleGroup@@QBE_NAAV?$CList@V?$CStringT@DV?$StrTraitMFC_DLL@DV?$ChTraitsCRT@D@ATL@@@@@ATL@@V12@@@@Z
	DD	2 DUP(00H)
	DD	2 DUP(00H)
	DD	00H
	DD	01H
xdata$x	ENDS
;	COMDAT xdata$x
xdata$x	SEGMENT
__unwindtable$?GetAllIndicatorName@CVertScaleGroup@@QBE_NAAV?$CList@V?$CStringT@DV?$StrTraitMFC_DLL@DV?$ChTraitsCRT@D@ATL@@@@@ATL@@V12@@@@Z DD 0ffffffffH
	DD	FLAT:__unwindfunclet$?GetAllIndicatorName@CVertScaleGroup@@QBE_NAAV?$CList@V?$CStringT@DV?$StrTraitMFC_DLL@DV?$ChTraitsCRT@D@ATL@@@@@ATL@@V12@@@@Z$0
__ehfuncinfo$?GetAllIndicatorName@CVertScaleGroup@@QBE_NAAV?$CList@V?$CStringT@DV?$StrTraitMFC_DLL@DV?$ChTraitsCRT@D@ATL@@@@@ATL@@V12@@@@Z DD 019930522H
	DD	01H
	DD	FLAT:__unwindtable$?GetAllIndicatorName@CVertScaleGroup@@QBE_NAAV?$CList@V?$CStringT@DV?$StrTraitMFC_DLL@DV?$ChTraitsCRT@D@ATL@@@@@ATL@@V12@@@@Z
	DD	2 DUP(00H)
	DD	2 DUP(00H)
	DD	00H
	DD	01H
xdata$x	ENDS
;	COMDAT xdata$x
xdata$x	SEGMENT
__unwindtable$?GetVertScaleGroupAllData@CVertScaleGroup@@QBEXAAVCStringList@@@Z DD 0ffffffffH
	DD	FLAT:__unwindfunclet$?GetVertScaleGroupAllData@CVertScaleGroup@@QBEXAAVCStringList@@@Z$0
	DD	00H
	DD	FLAT:__unwindfunclet$?GetVertScaleGroupAllData@CVertScaleGroup@@QBEXAAVCStringList@@@Z$1
__ehfuncinfo$?GetVertScaleGroupAllData@CVertScaleGroup@@QBEXAAVCStringList@@@Z DD 019930522H
	DD	02H
	DD	FLAT:__unwindtable$?GetVertScaleGroupAllData@CVertScaleGroup@@QBEXAAVCStringList@@@Z
	DD	2 DUP(00H)
	DD	2 DUP(00H)
	DD	00H
	DD	01H
xdata$x	ENDS
;	COMDAT xdata$x
xdata$x	SEGMENT
__ehfuncinfo$?CalculateDisplayDataMinMax@CVertScaleGroup@@QAEXXZ DD 019930522H
	DD	05H
	DD	FLAT:__unwindtable$?CalculateDisplayDataMinMax@CVertScaleGroup@@QAEXXZ
	DD	2 DUP(00H)
	DD	2 DUP(00H)
	DD	00H
	DD	01H
__unwindtable$?CalculateDisplayDataMinMax@CVertScaleGroup@@QAEXXZ DD 0ffffffffH
	DD	FLAT:__unwindfunclet$?CalculateDisplayDataMinMax@CVertScaleGroup@@QAEXXZ$1
	DD	00H
	DD	FLAT:__unwindfunclet$?CalculateDisplayDataMinMax@CVertScaleGroup@@QAEXXZ$2
	DD	00H
	DD	FLAT:__unwindfunclet$?CalculateDisplayDataMinMax@CVertScaleGroup@@QAEXXZ$3
	DD	0ffffffffH
	DD	FLAT:__unwindfunclet$?CalculateDisplayDataMinMax@CVertScaleGroup@@QAEXXZ$4
	DD	0ffffffffH
	DD	FLAT:__unwindfunclet$?CalculateDisplayDataMinMax@CVertScaleGroup@@QAEXXZ$0
xdata$x	ENDS
;	COMDAT xdata$x
xdata$x	SEGMENT
__unwindtable$?ChangeSubGraphData@CVertScaleGroup@@QAE_NABV?$CStringT@DV?$StrTraitMFC_DLL@DV?$ChTraitsCRT@D@ATL@@@@@ATL@@0ABVCSubGraphData@@@Z DD 0ffffffffH
	DD	FLAT:__unwindfunclet$?ChangeSubGraphData@CVertScaleGroup@@QAE_NABV?$CStringT@DV?$StrTraitMFC_DLL@DV?$ChTraitsCRT@D@ATL@@@@@ATL@@0ABVCSubGraphData@@@Z$0
__ehfuncinfo$?ChangeSubGraphData@CVertScaleGroup@@QAE_NABV?$CStringT@DV?$StrTraitMFC_DLL@DV?$ChTraitsCRT@D@ATL@@@@@ATL@@0ABVCSubGraphData@@@Z DD 019930522H
	DD	01H
	DD	FLAT:__unwindtable$?ChangeSubGraphData@CVertScaleGroup@@QAE_NABV?$CStringT@DV?$StrTraitMFC_DLL@DV?$ChTraitsCRT@D@ATL@@@@@ATL@@0ABVCSubGraphData@@@Z
	DD	2 DUP(00H)
	DD	2 DUP(00H)
	DD	00H
	DD	01H
xdata$x	ENDS
;	COMDAT xdata$x
xdata$x	SEGMENT
__unwindtable$?DeleteAll@CVertScaleGroup@@QAEXXZ DD 0ffffffffH
	DD	FLAT:__unwindfunclet$?DeleteAll@CVertScaleGroup@@QAEXXZ$0
	DD	00H
	DD	FLAT:__unwindfunclet$?DeleteAll@CVertScaleGroup@@QAEXXZ$1
	DD	0ffffffffH
	DD	FLAT:__unwindfunclet$?DeleteAll@CVertScaleGroup@@QAEXXZ$2
	DD	02H
	DD	FLAT:__unwindfunclet$?DeleteAll@CVertScaleGroup@@QAEXXZ$3
__ehfuncinfo$?DeleteAll@CVertScaleGroup@@QAEXXZ DD 019930522H
	DD	04H
	DD	FLAT:__unwindtable$?DeleteAll@CVertScaleGroup@@QAEXXZ
	DD	2 DUP(00H)
	DD	2 DUP(00H)
	DD	00H
	DD	01H
xdata$x	ENDS
;	COMDAT xdata$x
xdata$x	SEGMENT
__unwindtable$?DeleteGraph@CVertScaleGroup@@QAE_NPAVCGraphImp@@_N@Z DD 0ffffffffH
	DD	FLAT:__unwindfunclet$?DeleteGraph@CVertScaleGroup@@QAE_NPAVCGraphImp@@_N@Z$0
	DD	00H
	DD	FLAT:__unwindfunclet$?DeleteGraph@CVertScaleGroup@@QAE_NPAVCGraphImp@@_N@Z$1
__ehfuncinfo$?DeleteGraph@CVertScaleGroup@@QAE_NPAVCGraphImp@@_N@Z DD 019930522H
	DD	02H
	DD	FLAT:__unwindtable$?DeleteGraph@CVertScaleGroup@@QAE_NPAVCGraphImp@@_N@Z
	DD	2 DUP(00H)
	DD	2 DUP(00H)
	DD	00H
	DD	01H
xdata$x	ENDS
;	COMDAT xdata$x
xdata$x	SEGMENT
__unwindtable$?DeleteGraphWithNotify@CVertScaleGroup@@QAE_NPAVCGraphImp@@_N@Z DD 0ffffffffH
	DD	FLAT:__unwindfunclet$?DeleteGraphWithNotify@CVertScaleGroup@@QAE_NPAVCGraphImp@@_N@Z$0
	DD	00H
	DD	FLAT:__unwindfunclet$?DeleteGraphWithNotify@CVertScaleGroup@@QAE_NPAVCGraphImp@@_N@Z$1
	DD	0ffffffffH
	DD	FLAT:__unwindfunclet$?DeleteGraphWithNotify@CVertScaleGroup@@QAE_NPAVCGraphImp@@_N@Z$2
	DD	02H
	DD	FLAT:__unwindfunclet$?DeleteGraphWithNotify@CVertScaleGroup@@QAE_NPAVCGraphImp@@_N@Z$3
__ehfuncinfo$?DeleteGraphWithNotify@CVertScaleGroup@@QAE_NPAVCGraphImp@@_N@Z DD 019930522H
	DD	04H
	DD	FLAT:__unwindtable$?DeleteGraphWithNotify@CVertScaleGroup@@QAE_NPAVCGraphImp@@_N@Z
	DD	2 DUP(00H)
	DD	2 DUP(00H)
	DD	00H
	DD	01H
xdata$x	ENDS
;	COMDAT xdata$x
xdata$x	SEGMENT
__unwindtable$?MakeGraph@CVertScaleGroup@@QAE_NPAXPAD_N@Z DD 0ffffffffH
	DD	FLAT:__unwindfunclet$?MakeGraph@CVertScaleGroup@@QAE_NPAXPAD_N@Z$0
	DD	00H
	DD	FLAT:__unwindfunclet$?MakeGraph@CVertScaleGroup@@QAE_NPAXPAD_N@Z$1
__ehfuncinfo$?MakeGraph@CVertScaleGroup@@QAE_NPAXPAD_N@Z DD 019930522H
	DD	02H
	DD	FLAT:__unwindtable$?MakeGraph@CVertScaleGroup@@QAE_NPAXPAD_N@Z
	DD	2 DUP(00H)
	DD	2 DUP(00H)
	DD	00H
	DD	01H
xdata$x	ENDS
;	COMDAT xdata$x
xdata$x	SEGMENT
__unwindtable$?MakeGraph@CVertScaleGroup@@QAE_NPAD_N@Z DD 0ffffffffH
	DD	FLAT:__unwindfunclet$?MakeGraph@CVertScaleGroup@@QAE_NPAD_N@Z$0
	DD	00H
	DD	FLAT:__unwindfunclet$?MakeGraph@CVertScaleGroup@@QAE_NPAD_N@Z$1
__ehfuncinfo$?MakeGraph@CVertScaleGroup@@QAE_NPAD_N@Z DD 019930522H
	DD	02H
	DD	FLAT:__unwindtable$?MakeGraph@CVertScaleGroup@@QAE_NPAD_N@Z
	DD	2 DUP(00H)
	DD	2 DUP(00H)
	DD	00H
	DD	01H
xdata$x	ENDS
;	COMDAT xdata$x
xdata$x	SEGMENT
__unwindtable$?MakeGraphs@CVertScaleGroup@@QAEXPAXPAD@Z DD 0ffffffffH
	DD	FLAT:__unwindfunclet$?MakeGraphs@CVertScaleGroup@@QAEXPAXPAD@Z$0
	DD	00H
	DD	FLAT:__unwindfunclet$?MakeGraphs@CVertScaleGroup@@QAEXPAXPAD@Z$1
__ehfuncinfo$?MakeGraphs@CVertScaleGroup@@QAEXPAXPAD@Z DD 019930522H
	DD	02H
	DD	FLAT:__unwindtable$?MakeGraphs@CVertScaleGroup@@QAEXPAXPAD@Z
	DD	2 DUP(00H)
	DD	2 DUP(00H)
	DD	00H
	DD	01H
xdata$x	ENDS
;	COMDAT xdata$x
xdata$x	SEGMENT
__unwindtable$?SetDrawingVertScaleData@CVertScaleGroup@@AAEXPAVCDrawingVertScaleData@@@Z DD 0ffffffffH
	DD	FLAT:__unwindfunclet$?SetDrawingVertScaleData@CVertScaleGroup@@AAEXPAVCDrawingVertScaleData@@@Z$0
	DD	0ffffffffH
	DD	FLAT:__unwindfunclet$?SetDrawingVertScaleData@CVertScaleGroup@@AAEXPAVCDrawingVertScaleData@@@Z$1
	DD	0ffffffffH
	DD	FLAT:__unwindfunclet$?SetDrawingVertScaleData@CVertScaleGroup@@AAEXPAVCDrawingVertScaleData@@@Z$2
__ehfuncinfo$?SetDrawingVertScaleData@CVertScaleGroup@@AAEXPAVCDrawingVertScaleData@@@Z DD 019930522H
	DD	03H
	DD	FLAT:__unwindtable$?SetDrawingVertScaleData@CVertScaleGroup@@AAEXPAVCDrawingVertScaleData@@@Z
	DD	2 DUP(00H)
	DD	2 DUP(00H)
	DD	00H
	DD	01H
xdata$x	ENDS
;	COMDAT xdata$x
xdata$x	SEGMENT
__unwindtable$?GetDisplayDataMinMax@CVertScaleGroup@@ABEXPAVCGraphImp@@AAVCDisplayDataMinMax@@@Z DD 0ffffffffH
	DD	FLAT:__unwindfunclet$?GetDisplayDataMinMax@CVertScaleGroup@@ABEXPAVCGraphImp@@AAVCDisplayDataMinMax@@@Z$0
__ehfuncinfo$?GetDisplayDataMinMax@CVertScaleGroup@@ABEXPAVCGraphImp@@AAVCDisplayDataMinMax@@@Z DD 019930522H
	DD	01H
	DD	FLAT:__unwindtable$?GetDisplayDataMinMax@CVertScaleGroup@@ABEXPAVCGraphImp@@AAVCDisplayDataMinMax@@@Z
	DD	2 DUP(00H)
	DD	2 DUP(00H)
	DD	00H
	DD	01H
xdata$x	ENDS
;	COMDAT xdata$x
xdata$x	SEGMENT
__unwindtable$?GetDisplayDataMinMaxInOnlyPrice@CVertScaleGroup@@ABE_NAAVCDisplayDataMinMax@@@Z DD 0ffffffffH
	DD	FLAT:__unwindfunclet$?GetDisplayDataMinMaxInOnlyPrice@CVertScaleGroup@@ABE_NAAVCDisplayDataMinMax@@@Z$0
__ehfuncinfo$?GetDisplayDataMinMaxInOnlyPrice@CVertScaleGroup@@ABE_NAAVCDisplayDataMinMax@@@Z DD 019930522H
	DD	01H
	DD	FLAT:__unwindtable$?GetDisplayDataMinMaxInOnlyPrice@CVertScaleGroup@@ABE_NAAVCDisplayDataMinMax@@@Z
	DD	2 DUP(00H)
	DD	2 DUP(00H)
	DD	00H
	DD	01H
xdata$x	ENDS
;	COMDAT xdata$x
xdata$x	SEGMENT
__ehfuncinfo$?MakeNewGraph@CVertScaleGroup@@AAEPAVCGraphImp@@PAXPAD@Z DD 019930522H
	DD	05H
	DD	FLAT:__unwindtable$?MakeNewGraph@CVertScaleGroup@@AAEPAVCGraphImp@@PAXPAD@Z
	DD	2 DUP(00H)
	DD	2 DUP(00H)
	DD	00H
	DD	01H
__unwindtable$?MakeNewGraph@CVertScaleGroup@@AAEPAVCGraphImp@@PAXPAD@Z DD 0ffffffffH
	DD	FLAT:__unwindfunclet$?MakeNewGraph@CVertScaleGroup@@AAEPAVCGraphImp@@PAXPAD@Z$0
	DD	00H
	DD	FLAT:__unwindfunclet$?MakeNewGraph@CVertScaleGroup@@AAEPAVCGraphImp@@PAXPAD@Z$1
	DD	01H
	DD	FLAT:__unwindfunclet$?MakeNewGraph@CVertScaleGroup@@AAEPAVCGraphImp@@PAXPAD@Z$4
	DD	01H
	DD	FLAT:__unwindfunclet$?MakeNewGraph@CVertScaleGroup@@AAEPAVCGraphImp@@PAXPAD@Z$2
	DD	01H
	DD	FLAT:__unwindfunclet$?MakeNewGraph@CVertScaleGroup@@AAEPAVCGraphImp@@PAXPAD@Z$3
xdata$x	ENDS
;	COMDAT xdata$x
xdata$x	SEGMENT
__ehfuncinfo$?MakeNewGraph@CVertScaleGroup@@AAEPAVCGraphImp@@PAD@Z DD 019930522H
	DD	05H
	DD	FLAT:__unwindtable$?MakeNewGraph@CVertScaleGroup@@AAEPAVCGraphImp@@PAD@Z
	DD	2 DUP(00H)
	DD	2 DUP(00H)
	DD	00H
	DD	01H
__unwindtable$?MakeNewGraph@CVertScaleGroup@@AAEPAVCGraphImp@@PAD@Z DD 0ffffffffH
	DD	FLAT:__unwindfunclet$?MakeNewGraph@CVertScaleGroup@@AAEPAVCGraphImp@@PAD@Z$0
	DD	00H
	DD	FLAT:__unwindfunclet$?MakeNewGraph@CVertScaleGroup@@AAEPAVCGraphImp@@PAD@Z$1
	DD	01H
	DD	FLAT:__unwindfunclet$?MakeNewGraph@CVertScaleGroup@@AAEPAVCGraphImp@@PAD@Z$4
	DD	01H
	DD	FLAT:__unwindfunclet$?MakeNewGraph@CVertScaleGroup@@AAEPAVCGraphImp@@PAD@Z$2
	DD	01H
	DD	FLAT:__unwindfunclet$?MakeNewGraph@CVertScaleGroup@@AAEPAVCGraphImp@@PAD@Z$3
xdata$x	ENDS
;	COMDAT xdata$x
xdata$x	SEGMENT
__unwindtable$?FindBaseGraphForDrawingVertScaleData@CVertScaleGroup@@QBEPAVCGraphImp@@XZ DD 0ffffffffH
	DD	FLAT:__unwindfunclet$?FindBaseGraphForDrawingVertScaleData@CVertScaleGroup@@QBEPAVCGraphImp@@XZ$0
	DD	00H
	DD	FLAT:__unwindfunclet$?FindBaseGraphForDrawingVertScaleData@CVertScaleGroup@@QBEPAVCGraphImp@@XZ$1
	DD	00H
	DD	FLAT:__unwindfunclet$?FindBaseGraphForDrawingVertScaleData@CVertScaleGroup@@QBEPAVCGraphImp@@XZ$2
__ehfuncinfo$?FindBaseGraphForDrawingVertScaleData@CVertScaleGroup@@QBEPAVCGraphImp@@XZ DD 019930522H
	DD	03H
	DD	FLAT:__unwindtable$?FindBaseGraphForDrawingVertScaleData@CVertScaleGroup@@QBEPAVCGraphImp@@XZ
	DD	2 DUP(00H)
	DD	2 DUP(00H)
	DD	00H
	DD	01H
xdata$x	ENDS
;	COMDAT xdata$x
xdata$x	SEGMENT
__unwindtable$?MakeVertScaleGroup@CVertScaleGroup@@SAPAV1@PAVCMainBlockBaseData@@PAVCVertScaleGroupList@@ABVCVerticalScale@@@Z DD 0ffffffffH
	DD	FLAT:__unwindfunclet$?MakeVertScaleGroup@CVertScaleGroup@@SAPAV1@PAVCMainBlockBaseData@@PAVCVertScaleGroupList@@ABVCVerticalScale@@@Z$0
	DD	00H
	DD	FLAT:__unwindfunclet$?MakeVertScaleGroup@CVertScaleGroup@@SAPAV1@PAVCMainBlockBaseData@@PAVCVertScaleGroupList@@ABVCVerticalScale@@@Z$1
__ehfuncinfo$?MakeVertScaleGroup@CVertScaleGroup@@SAPAV1@PAVCMainBlockBaseData@@PAVCVertScaleGroupList@@ABVCVerticalScale@@@Z DD 019930522H
	DD	02H
	DD	FLAT:__unwindtable$?MakeVertScaleGroup@CVertScaleGroup@@SAPAV1@PAVCMainBlockBaseData@@PAVCVertScaleGroupList@@ABVCVerticalScale@@@Z
	DD	2 DUP(00H)
	DD	2 DUP(00H)
	DD	00H
	DD	01H
xdata$x	ENDS
;	COMDAT xdata$x
xdata$x	SEGMENT
__unwindtable$?MakeVertScaleGroup@CVertScaleGroup@@SAPAV1@PAXPAVCMainBlockBaseData@@PAVCVertScaleGroupList@@PAD@Z DD 0ffffffffH
	DD	FLAT:__unwindfunclet$?MakeVertScaleGroup@CVertScaleGroup@@SAPAV1@PAXPAVCMainBlockBaseData@@PAVCVertScaleGroupList@@PAD@Z$0
	DD	00H
	DD	FLAT:__unwindfunclet$?MakeVertScaleGroup@CVertScaleGroup@@SAPAV1@PAXPAVCMainBlockBaseData@@PAVCVertScaleGroupList@@PAD@Z$1
	DD	01H
	DD	FLAT:__unwindfunclet$?MakeVertScaleGroup@CVertScaleGroup@@SAPAV1@PAXPAVCMainBlockBaseData@@PAVCVertScaleGroupList@@PAD@Z$2
__ehfuncinfo$?MakeVertScaleGroup@CVertScaleGroup@@SAPAV1@PAXPAVCMainBlockBaseData@@PAVCVertScaleGroupList@@PAD@Z DD 019930522H
	DD	03H
	DD	FLAT:__unwindtable$?MakeVertScaleGroup@CVertScaleGroup@@SAPAV1@PAXPAVCMainBlockBaseData@@PAVCVertScaleGroupList@@PAD@Z
	DD	2 DUP(00H)
	DD	2 DUP(00H)
	DD	00H
	DD	01H
xdata$x	ENDS
;	COMDAT xdata$x
xdata$x	SEGMENT
__unwindtable$?MakeVertScaleGroup@CVertScaleGroup@@SAPAV1@PAVCMainBlockBaseData@@PAVCVertScaleGroupList@@PAD@Z DD 0ffffffffH
	DD	FLAT:__unwindfunclet$?MakeVertScaleGroup@CVertScaleGroup@@SAPAV1@PAVCMainBlockBaseData@@PAVCVertScaleGroupList@@PAD@Z$0
	DD	00H
	DD	FLAT:__unwindfunclet$?MakeVertScaleGroup@CVertScaleGroup@@SAPAV1@PAVCMainBlockBaseData@@PAVCVertScaleGroupList@@PAD@Z$1
	DD	01H
	DD	FLAT:__unwindfunclet$?MakeVertScaleGroup@CVertScaleGroup@@SAPAV1@PAVCMainBlockBaseData@@PAVCVertScaleGroupList@@PAD@Z$2
__ehfuncinfo$?MakeVertScaleGroup@CVertScaleGroup@@SAPAV1@PAVCMainBlockBaseData@@PAVCVertScaleGroupList@@PAD@Z DD 019930522H
	DD	03H
	DD	FLAT:__unwindtable$?MakeVertScaleGroup@CVertScaleGroup@@SAPAV1@PAVCMainBlockBaseData@@PAVCVertScaleGroupList@@PAD@Z
	DD	2 DUP(00H)
	DD	2 DUP(00H)
	DD	00H
	DD	01H
xdata$x	ENDS
;	COMDAT xdata$x
xdata$x	SEGMENT
__unwindtable$?MakeVertScaleGroup@CVertScaleGroup@@SAPAV1@PAVCMainBlockBaseData@@PAVCVertScaleGroupList@@@Z DD 0ffffffffH
	DD	FLAT:__unwindfunclet$?MakeVertScaleGroup@CVertScaleGroup@@SAPAV1@PAVCMainBlockBaseData@@PAVCVertScaleGroupList@@@Z$0
	DD	00H
	DD	FLAT:__unwindfunclet$?MakeVertScaleGroup@CVertScaleGroup@@SAPAV1@PAVCMainBlockBaseData@@PAVCVertScaleGroupList@@@Z$1
__ehfuncinfo$?MakeVertScaleGroup@CVertScaleGroup@@SAPAV1@PAVCMainBlockBaseData@@PAVCVertScaleGroupList@@@Z DD 019930522H
	DD	02H
	DD	FLAT:__unwindtable$?MakeVertScaleGroup@CVertScaleGroup@@SAPAV1@PAVCMainBlockBaseData@@PAVCVertScaleGroupList@@@Z
	DD	2 DUP(00H)
	DD	2 DUP(00H)
	DD	00H
	DD	01H
xdata$x	ENDS
;	COMDAT xdata$x
xdata$x	SEGMENT
__unwindtable$?ShowIndicator@CVertScaleGroup@@QAEXPBDHH@Z DD 0ffffffffH
	DD	FLAT:__unwindfunclet$?ShowIndicator@CVertScaleGroup@@QAEXPBDHH@Z$0
__ehfuncinfo$?ShowIndicator@CVertScaleGroup@@QAEXPBDHH@Z DD 019930522H
	DD	01H
	DD	FLAT:__unwindtable$?ShowIndicator@CVertScaleGroup@@QAEXPBDHH@Z
	DD	2 DUP(00H)
	DD	2 DUP(00H)
	DD	00H
	DD	01H
xdata$x	ENDS
;	COMDAT xdata$x
xdata$x	SEGMENT
__unwindtable$?DeleteAllIndicator@CVertScaleGroup@@QAEHPBD@Z DD 0ffffffffH
	DD	FLAT:__unwindfunclet$?DeleteAllIndicator@CVertScaleGroup@@QAEHPBD@Z$0
__ehfuncinfo$?DeleteAllIndicator@CVertScaleGroup@@QAEHPBD@Z DD 019930522H
	DD	01H
	DD	FLAT:__unwindtable$?DeleteAllIndicator@CVertScaleGroup@@QAEHPBD@Z
	DD	2 DUP(00H)
	DD	2 DUP(00H)
	DD	00H
	DD	01H
xdata$x	ENDS
;	COMDAT xdata$x
xdata$x	SEGMENT
__ehfuncinfo$??1CVertScaleGroup@@MAE@XZ DD 019930522H
	DD	00H
	DD	00H
	DD	2 DUP(00H)
	DD	2 DUP(00H)
	DD	00H
	DD	05H
xdata$x	ENDS
;	COMDAT xdata$x
xdata$x	SEGMENT
__unwindtable$??0CVertScaleGroup@@QAE@PAVCMainBlockBaseData@@PAVCVertScaleGroupList@@ABVCVerticalScale@@@Z DD 0ffffffffH
	DD	FLAT:__unwindfunclet$??0CVertScaleGroup@@QAE@PAVCMainBlockBaseData@@PAVCVertScaleGroupList@@ABVCVerticalScale@@@Z$0
__ehfuncinfo$??0CVertScaleGroup@@QAE@PAVCMainBlockBaseData@@PAVCVertScaleGroupList@@ABVCVerticalScale@@@Z DD 019930522H
	DD	01H
	DD	FLAT:__unwindtable$??0CVertScaleGroup@@QAE@PAVCMainBlockBaseData@@PAVCVertScaleGroupList@@ABVCVerticalScale@@@Z
	DD	2 DUP(00H)
	DD	2 DUP(00H)
	DD	00H
	DD	01H
xdata$x	ENDS
;	COMDAT xdata$x
xdata$x	SEGMENT
__unwindtable$??0CVertScaleGroup@@QAE@PAXPAVCMainBlockBaseData@@PAVCVertScaleGroupList@@PAD@Z DD 0ffffffffH
	DD	FLAT:__unwindfunclet$??0CVertScaleGroup@@QAE@PAXPAVCMainBlockBaseData@@PAVCVertScaleGroupList@@PAD@Z$0
	DD	00H
	DD	FLAT:__unwindfunclet$??0CVertScaleGroup@@QAE@PAXPAVCMainBlockBaseData@@PAVCVertScaleGroupList@@PAD@Z$1
__ehfuncinfo$??0CVertScaleGroup@@QAE@PAXPAVCMainBlockBaseData@@PAVCVertScaleGroupList@@PAD@Z DD 019930522H
	DD	02H
	DD	FLAT:__unwindtable$??0CVertScaleGroup@@QAE@PAXPAVCMainBlockBaseData@@PAVCVertScaleGroupList@@PAD@Z
	DD	2 DUP(00H)
	DD	2 DUP(00H)
	DD	00H
	DD	01H
xdata$x	ENDS
;	COMDAT xdata$x
xdata$x	SEGMENT
__unwindtable$??0CVertScaleGroup@@QAE@PAVCMainBlockBaseData@@PAVCVertScaleGroupList@@PAD@Z DD 0ffffffffH
	DD	FLAT:__unwindfunclet$??0CVertScaleGroup@@QAE@PAVCMainBlockBaseData@@PAVCVertScaleGroupList@@PAD@Z$0
	DD	00H
	DD	FLAT:__unwindfunclet$??0CVertScaleGroup@@QAE@PAVCMainBlockBaseData@@PAVCVertScaleGroupList@@PAD@Z$1
__ehfuncinfo$??0CVertScaleGroup@@QAE@PAVCMainBlockBaseData@@PAVCVertScaleGroupList@@PAD@Z DD 019930522H
	DD	02H
	DD	FLAT:__unwindtable$??0CVertScaleGroup@@QAE@PAVCMainBlockBaseData@@PAVCVertScaleGroupList@@PAD@Z
	DD	2 DUP(00H)
	DD	2 DUP(00H)
	DD	00H
	DD	01H
xdata$x	ENDS
;	COMDAT xdata$x
xdata$x	SEGMENT
__unwindtable$??0CVertScaleGroup@@QAE@PAVCMainBlockBaseData@@PAVCVertScaleGroupList@@@Z DD 0ffffffffH
	DD	FLAT:__unwindfunclet$??0CVertScaleGroup@@QAE@PAVCMainBlockBaseData@@PAVCVertScaleGroupList@@@Z$0
__ehfuncinfo$??0CVertScaleGroup@@QAE@PAVCMainBlockBaseData@@PAVCVertScaleGroupList@@@Z DD 019930522H
	DD	01H
	DD	FLAT:__unwindtable$??0CVertScaleGroup@@QAE@PAVCMainBlockBaseData@@PAVCVertScaleGroupList@@@Z
	DD	2 DUP(00H)
	DD	2 DUP(00H)
	DD	00H
	DD	01H
xdata$x	ENDS
;	COMDAT xdata$x
xdata$x	SEGMENT
__unwindtable$??HATL@@YA?AV?$CStringT@DV?$StrTraitMFC_DLL@DV?$ChTraitsCRT@D@ATL@@@@@0@ABV10@D@Z DD 0ffffffffH
	DD	FLAT:__unwindfunclet$??HATL@@YA?AV?$CStringT@DV?$StrTraitMFC_DLL@DV?$ChTraitsCRT@D@ATL@@@@@0@ABV10@D@Z$0
__ehfuncinfo$??HATL@@YA?AV?$CStringT@DV?$StrTraitMFC_DLL@DV?$ChTraitsCRT@D@ATL@@@@@0@ABV10@D@Z DD 019930522H
	DD	01H
	DD	FLAT:__unwindtable$??HATL@@YA?AV?$CStringT@DV?$StrTraitMFC_DLL@DV?$ChTraitsCRT@D@ATL@@@@@0@ABV10@D@Z
	DD	2 DUP(00H)
	DD	2 DUP(00H)
	DD	00H
	DD	01H
xdata$x	ENDS
; Function compile flags: /Ogtp
; File C:\Program Files (x86)\Microsoft Visual Studio\2019\Community\VC\Tools\MSVC\14.29.30133\atlmfc\include\afxtempl.h
;	COMDAT ?NewNode@?$CList@V?$CStringT@DV?$StrTraitMFC_DLL@DV?$ChTraitsCRT@D@ATL@@@@@ATL@@V12@@@IAEPAUCNode@1@PAU21@0@Z
_TEXT	SEGMENT
_pPrev$ = 8						; size = 4
_pNext$ = 12						; size = 4
?NewNode@?$CList@V?$CStringT@DV?$StrTraitMFC_DLL@DV?$ChTraitsCRT@D@ATL@@@@@ATL@@V12@@@IAEPAUCNode@1@PAU21@0@Z PROC ; CList<ATL::CStringT<char,StrTraitMFC_DLL<char,ATL::ChTraitsCRT<char> > >,ATL::CStringT<char,StrTraitMFC_DLL<char,ATL::ChTraitsCRT<char> > > >::NewNode, COMDAT
; _this$ = ecx

; 901  : {

  00000	55		 push	 ebp
  00001	8b ec		 mov	 ebp, esp
  00003	56		 push	 esi
  00004	8b f1		 mov	 esi, ecx
  00006	57		 push	 edi

; 902  : 	if (m_pNodeFree == NULL)

  00007	83 7e 10 00	 cmp	 DWORD PTR [esi+16], 0
  0000b	75 33		 jne	 SHORT $LN7@NewNode

; 903  : 	{
; 904  : 		// add another block
; 905  : 		CPlex* pNewBlock = CPlex::Create(m_pBlocks, m_nBlockSize,

  0000d	6a 0c		 push	 12			; 0000000cH
  0000f	ff 76 18	 push	 DWORD PTR [esi+24]
  00012	8d 46 14	 lea	 eax, DWORD PTR [esi+20]
  00015	50		 push	 eax
  00016	e8 00 00 00 00	 call	 ?Create@CPlex@@SGPAU1@AAPAU1@II@Z ; CPlex::Create

; 906  : 				 sizeof(CNode));
; 907  : 
; 908  : 		// chain them into free list
; 909  : 		CNode* pNode = (CNode*) pNewBlock->data();
; 910  : 		// free in reverse order to make it easier to debug
; 911  : 		pNode += m_nBlockSize - 1;

  0001b	8b 56 18	 mov	 edx, DWORD PTR [esi+24]
  0001e	83 c0 08	 add	 eax, 8
  00021	8d 0c 52	 lea	 ecx, DWORD PTR [edx+edx*2]
  00024	8d 04 88	 lea	 eax, DWORD PTR [eax+ecx*4]
  00027	83 c0 f4	 add	 eax, -12		; fffffff4H

; 912  : 		for (INT_PTR i = m_nBlockSize-1; i >= 0; i--, pNode--)

  0002a	83 c2 ff	 add	 edx, -1
  0002d	78 11		 js	 SHORT $LN7@NewNode
  0002f	90		 npad	 1
$LL4@NewNode:

; 913  : 		{
; 914  : 			pNode->pNext = m_pNodeFree;

  00030	8b 4e 10	 mov	 ecx, DWORD PTR [esi+16]
  00033	89 08		 mov	 DWORD PTR [eax], ecx

; 915  : 			m_pNodeFree = pNode;

  00035	89 46 10	 mov	 DWORD PTR [esi+16], eax
  00038	83 e8 0c	 sub	 eax, 12			; 0000000cH
  0003b	83 ea 01	 sub	 edx, 1
  0003e	79 f0		 jns	 SHORT $LL4@NewNode
$LN7@NewNode:

; 916  : 		}
; 917  : 	}
; 918  : 	ENSURE(m_pNodeFree != NULL);  // we must have something

  00040	8b 7e 10	 mov	 edi, DWORD PTR [esi+16]
  00043	85 ff		 test	 edi, edi
  00045	74 24		 je	 SHORT $LN17@NewNode

; 919  : 
; 920  : 	CList::CNode* pNode = m_pNodeFree;
; 921  : 	m_pNodeFree = m_pNodeFree->pNext;

  00047	8b 07		 mov	 eax, DWORD PTR [edi]

; 922  : 	pNode->pPrev = pPrev;

  00049	8b 4d 08	 mov	 ecx, DWORD PTR _pPrev$[ebp]
  0004c	89 46 10	 mov	 DWORD PTR [esi+16], eax
  0004f	89 4f 04	 mov	 DWORD PTR [edi+4], ecx

; 923  : 	pNode->pNext = pNext;

  00052	8b 4d 0c	 mov	 ecx, DWORD PTR _pNext$[ebp]
  00055	89 0f		 mov	 DWORD PTR [edi], ecx

; 924  : 	m_nCount++;
; 925  : 	ASSERT(m_nCount > 0);  // make sure we don't overflow
; 926  : 
; 927  : #pragma push_macro("new")
; 928  : #undef new
; 929  : 	::new( (void*)( &pNode->data ) ) TYPE;

  00057	8d 4f 08	 lea	 ecx, DWORD PTR [edi+8]
  0005a	ff 46 0c	 inc	 DWORD PTR [esi+12]
  0005d	ff 15 00 00 00
	00		 call	 DWORD PTR __imp_??0?$CStringT@DV?$StrTraitMFC_DLL@DV?$ChTraitsCRT@D@ATL@@@@@ATL@@QAE@XZ

; 930  : #pragma pop_macro("new")
; 931  : 	return pNode;

  00063	8b c7		 mov	 eax, edi
  00065	5f		 pop	 edi
  00066	5e		 pop	 esi

; 932  : }

  00067	5d		 pop	 ebp
  00068	c2 08 00	 ret	 8
$LN17@NewNode:

; 916  : 		}
; 917  : 	}
; 918  : 	ENSURE(m_pNodeFree != NULL);  // we must have something

  0006b	e8 00 00 00 00	 call	 ?AfxThrowInvalidArgException@@YGXXZ ; AfxThrowInvalidArgException
$LN15@NewNode:
  00070	cc		 int	 3
?NewNode@?$CList@V?$CStringT@DV?$StrTraitMFC_DLL@DV?$ChTraitsCRT@D@ATL@@@@@ATL@@V12@@@IAEPAUCNode@1@PAU21@0@Z ENDP ; CList<ATL::CStringT<char,StrTraitMFC_DLL<char,ATL::ChTraitsCRT<char> > >,ATL::CStringT<char,StrTraitMFC_DLL<char,ATL::ChTraitsCRT<char> > > >::NewNode
_TEXT	ENDS
; Function compile flags: /Ogtp
; File C:\Program Files (x86)\Microsoft Visual Studio\2019\Community\VC\Tools\MSVC\14.29.30133\atlmfc\include\afxtempl.h
;	COMDAT ?AddTail@?$CList@V?$CStringT@DV?$StrTraitMFC_DLL@DV?$ChTraitsCRT@D@ATL@@@@@ATL@@V12@@@QAEPAU__POSITION@@V?$CStringT@DV?$StrTraitMFC_DLL@DV?$ChTraitsCRT@D@ATL@@@@@ATL@@@Z
_TEXT	SEGMENT
__$EHRec$ = -12						; size = 12
_newElement$ = 8					; size = 4
?AddTail@?$CList@V?$CStringT@DV?$StrTraitMFC_DLL@DV?$ChTraitsCRT@D@ATL@@@@@ATL@@V12@@@QAEPAU__POSITION@@V?$CStringT@DV?$StrTraitMFC_DLL@DV?$ChTraitsCRT@D@ATL@@@@@ATL@@@Z PROC ; CList<ATL::CStringT<char,StrTraitMFC_DLL<char,ATL::ChTraitsCRT<char> > >,ATL::CStringT<char,StrTraitMFC_DLL<char,ATL::ChTraitsCRT<char> > > >::AddTail, COMDAT
; _this$ = ecx

; 965  : {

  00000	55		 push	 ebp
  00001	8b ec		 mov	 ebp, esp
  00003	6a ff		 push	 -1
  00005	68 00 00 00 00	 push	 __ehhandler$?AddTail@?$CList@V?$CStringT@DV?$StrTraitMFC_DLL@DV?$ChTraitsCRT@D@ATL@@@@@ATL@@V12@@@QAEPAU__POSITION@@V?$CStringT@DV?$StrTraitMFC_DLL@DV?$ChTraitsCRT@D@ATL@@@@@ATL@@@Z
  0000a	64 a1 00 00 00
	00		 mov	 eax, DWORD PTR fs:0
  00010	50		 push	 eax
  00011	53		 push	 ebx
  00012	56		 push	 esi
  00013	57		 push	 edi
  00014	a1 00 00 00 00	 mov	 eax, DWORD PTR ___security_cookie
  00019	33 c5		 xor	 eax, ebp
  0001b	50		 push	 eax
  0001c	8d 45 f4	 lea	 eax, DWORD PTR __$EHRec$[ebp]
  0001f	64 a3 00 00 00
	00		 mov	 DWORD PTR fs:0, eax
  00025	8b f1		 mov	 esi, ecx

; 902  : 	if (m_pNodeFree == NULL)

  00027	83 7e 10 00	 cmp	 DWORD PTR [esi+16], 0

; 966  : 	ASSERT_VALID(this);
; 967  : 
; 968  : 	CNode* pNewNode = NewNode(m_pNodeTail, NULL);

  0002b	8b 7e 08	 mov	 edi, DWORD PTR [esi+8]
  0002e	c7 45 fc 00 00
	00 00		 mov	 DWORD PTR __$EHRec$[ebp+8], 0

; 902  : 	if (m_pNodeFree == NULL)

  00035	75 39		 jne	 SHORT $LN12@AddTail

; 903  : 	{
; 904  : 		// add another block
; 905  : 		CPlex* pNewBlock = CPlex::Create(m_pBlocks, m_nBlockSize,

  00037	6a 0c		 push	 12			; 0000000cH
  00039	ff 76 18	 push	 DWORD PTR [esi+24]
  0003c	8d 46 14	 lea	 eax, DWORD PTR [esi+20]
  0003f	50		 push	 eax
  00040	e8 00 00 00 00	 call	 ?Create@CPlex@@SGPAU1@AAPAU1@II@Z ; CPlex::Create

; 906  : 				 sizeof(CNode));
; 907  : 
; 908  : 		// chain them into free list
; 909  : 		CNode* pNode = (CNode*) pNewBlock->data();
; 910  : 		// free in reverse order to make it easier to debug
; 911  : 		pNode += m_nBlockSize - 1;

  00045	8b 56 18	 mov	 edx, DWORD PTR [esi+24]
  00048	83 c0 08	 add	 eax, 8
  0004b	8d 4a ff	 lea	 ecx, DWORD PTR [edx-1]

; 912  : 		for (INT_PTR i = m_nBlockSize-1; i >= 0; i--, pNode--)

  0004e	83 c2 ff	 add	 edx, -1
  00051	8d 0c 49	 lea	 ecx, DWORD PTR [ecx+ecx*2]
  00054	8d 0c 88	 lea	 ecx, DWORD PTR [eax+ecx*4]
  00057	78 17		 js	 SHORT $LN12@AddTail
  00059	0f 1f 80 00 00
	00 00		 npad	 7
$LL9@AddTail:

; 913  : 		{
; 914  : 			pNode->pNext = m_pNodeFree;

  00060	8b 46 10	 mov	 eax, DWORD PTR [esi+16]
  00063	89 01		 mov	 DWORD PTR [ecx], eax

; 915  : 			m_pNodeFree = pNode;

  00065	89 4e 10	 mov	 DWORD PTR [esi+16], ecx
  00068	83 e9 0c	 sub	 ecx, 12			; 0000000cH
  0006b	83 ea 01	 sub	 edx, 1
  0006e	79 f0		 jns	 SHORT $LL9@AddTail
$LN12@AddTail:

; 916  : 		}
; 917  : 	}
; 918  : 	ENSURE(m_pNodeFree != NULL);  // we must have something

  00070	8b 5e 10	 mov	 ebx, DWORD PTR [esi+16]
  00073	85 db		 test	 ebx, ebx
  00075	74 57		 je	 SHORT $LN24@AddTail

; 919  : 
; 920  : 	CList::CNode* pNode = m_pNodeFree;
; 921  : 	m_pNodeFree = m_pNodeFree->pNext;

  00077	8b 03		 mov	 eax, DWORD PTR [ebx]

; 922  : 	pNode->pPrev = pPrev;
; 923  : 	pNode->pNext = pNext;
; 924  : 	m_nCount++;
; 925  : 	ASSERT(m_nCount > 0);  // make sure we don't overflow
; 926  : 
; 927  : #pragma push_macro("new")
; 928  : #undef new
; 929  : 	::new( (void*)( &pNode->data ) ) TYPE;

  00079	8d 4b 08	 lea	 ecx, DWORD PTR [ebx+8]
  0007c	89 46 10	 mov	 DWORD PTR [esi+16], eax
  0007f	89 7b 04	 mov	 DWORD PTR [ebx+4], edi
  00082	c7 03 00 00 00
	00		 mov	 DWORD PTR [ebx], 0
  00088	ff 46 0c	 inc	 DWORD PTR [esi+12]
  0008b	ff 15 00 00 00
	00		 call	 DWORD PTR __imp_??0?$CStringT@DV?$StrTraitMFC_DLL@DV?$ChTraitsCRT@D@ATL@@@@@ATL@@QAE@XZ

; 969  : 	pNewNode->data = newElement;

  00091	8d 45 08	 lea	 eax, DWORD PTR _newElement$[ebp]
  00094	50		 push	 eax
  00095	8d 4b 08	 lea	 ecx, DWORD PTR [ebx+8]
  00098	ff 15 00 00 00
	00		 call	 DWORD PTR __imp_??4?$CStringT@DV?$StrTraitMFC_DLL@DV?$ChTraitsCRT@D@ATL@@@@@ATL@@QAEAAV01@ABV01@@Z

; 970  : 	if (m_pNodeTail != NULL)

  0009e	8b 46 08	 mov	 eax, DWORD PTR [esi+8]
  000a1	85 c0		 test	 eax, eax
  000a3	74 04		 je	 SHORT $LN2@AddTail

; 971  : 		m_pNodeTail->pNext = pNewNode;

  000a5	89 18		 mov	 DWORD PTR [eax], ebx
  000a7	eb 03		 jmp	 SHORT $LN3@AddTail
$LN2@AddTail:

; 972  : 	else
; 973  : 		m_pNodeHead = pNewNode;

  000a9	89 5e 04	 mov	 DWORD PTR [esi+4], ebx
$LN3@AddTail:

; 974  : 	m_pNodeTail = pNewNode;
; 975  : 	return (POSITION) pNewNode;

  000ac	8d 4d 08	 lea	 ecx, DWORD PTR _newElement$[ebp]
  000af	89 5e 08	 mov	 DWORD PTR [esi+8], ebx
  000b2	ff 15 00 00 00
	00		 call	 DWORD PTR __imp_??1?$CStringT@DV?$StrTraitMFC_DLL@DV?$ChTraitsCRT@D@ATL@@@@@ATL@@QAE@XZ
  000b8	8b c3		 mov	 eax, ebx

; 976  : }

  000ba	8b 4d f4	 mov	 ecx, DWORD PTR __$EHRec$[ebp]
  000bd	64 89 0d 00 00
	00 00		 mov	 DWORD PTR fs:0, ecx
  000c4	59		 pop	 ecx
  000c5	5f		 pop	 edi
  000c6	5e		 pop	 esi
  000c7	5b		 pop	 ebx
  000c8	8b e5		 mov	 esp, ebp
  000ca	5d		 pop	 ebp
  000cb	c2 04 00	 ret	 4
$LN24@AddTail:

; 918  : 	ENSURE(m_pNodeFree != NULL);  // we must have something

  000ce	e8 00 00 00 00	 call	 ?AfxThrowInvalidArgException@@YGXXZ ; AfxThrowInvalidArgException
$LN22@AddTail:
  000d3	cc		 int	 3
_TEXT	ENDS
;	COMDAT text$x
text$x	SEGMENT
__unwindfunclet$?AddTail@?$CList@V?$CStringT@DV?$StrTraitMFC_DLL@DV?$ChTraitsCRT@D@ATL@@@@@ATL@@V12@@@QAEPAU__POSITION@@V?$CStringT@DV?$StrTraitMFC_DLL@DV?$ChTraitsCRT@D@ATL@@@@@ATL@@@Z$0:
  00000	8d 4d 08	 lea	 ecx, DWORD PTR _newElement$[ebp]
  00003	ff 25 00 00 00
	00		 jmp	 DWORD PTR __imp_??1?$CStringT@DV?$StrTraitMFC_DLL@DV?$ChTraitsCRT@D@ATL@@@@@ATL@@QAE@XZ
  00009	cc		 int	 3
  0000a	cc		 int	 3
  0000b	cc		 int	 3
  0000c	cc		 int	 3
  0000d	cc		 int	 3
__ehhandler$?AddTail@?$CList@V?$CStringT@DV?$StrTraitMFC_DLL@DV?$ChTraitsCRT@D@ATL@@@@@ATL@@V12@@@QAEPAU__POSITION@@V?$CStringT@DV?$StrTraitMFC_DLL@DV?$ChTraitsCRT@D@ATL@@@@@ATL@@@Z:
  0000e	90		 npad	 1
  0000f	90		 npad	 1
  00010	8b 54 24 08	 mov	 edx, DWORD PTR [esp+8]
  00014	8d 42 0c	 lea	 eax, DWORD PTR [edx+12]
  00017	8b 4a f0	 mov	 ecx, DWORD PTR [edx-16]
  0001a	33 c8		 xor	 ecx, eax
  0001c	e8 00 00 00 00	 call	 @__security_check_cookie@4
  00021	b8 00 00 00 00	 mov	 eax, OFFSET __ehfuncinfo$?AddTail@?$CList@V?$CStringT@DV?$StrTraitMFC_DLL@DV?$ChTraitsCRT@D@ATL@@@@@ATL@@V12@@@QAEPAU__POSITION@@V?$CStringT@DV?$StrTraitMFC_DLL@DV?$ChTraitsCRT@D@ATL@@@@@ATL@@@Z
  00026	e9 00 00 00 00	 jmp	 ___CxxFrameHandler3
text$x	ENDS
?AddTail@?$CList@V?$CStringT@DV?$StrTraitMFC_DLL@DV?$ChTraitsCRT@D@ATL@@@@@ATL@@V12@@@QAEPAU__POSITION@@V?$CStringT@DV?$StrTraitMFC_DLL@DV?$ChTraitsCRT@D@ATL@@@@@ATL@@@Z ENDP ; CList<ATL::CStringT<char,StrTraitMFC_DLL<char,ATL::ChTraitsCRT<char> > >,ATL::CStringT<char,StrTraitMFC_DLL<char,ATL::ChTraitsCRT<char> > > >::AddTail
; Function compile flags: /Ogtp
; File C:\Program Files (x86)\Microsoft Visual Studio\2019\Community\VC\Tools\MSVC\14.29.30133\atlmfc\include\afxtempl.h
;	COMDAT ?NewNode@?$CList@VCGraphColor@@AAV1@@@IAEPAUCNode@1@PAU21@0@Z
_TEXT	SEGMENT
_pPrev$ = 8						; size = 4
_pNext$ = 12						; size = 4
?NewNode@?$CList@VCGraphColor@@AAV1@@@IAEPAUCNode@1@PAU21@0@Z PROC ; CList<CGraphColor,CGraphColor &>::NewNode, COMDAT
; _this$ = ecx

; 901  : {

  00000	55		 push	 ebp
  00001	8b ec		 mov	 ebp, esp
  00003	56		 push	 esi
  00004	8b f1		 mov	 esi, ecx
  00006	57		 push	 edi

; 902  : 	if (m_pNodeFree == NULL)

  00007	83 7e 10 00	 cmp	 DWORD PTR [esi+16], 0
  0000b	75 33		 jne	 SHORT $LN7@NewNode

; 903  : 	{
; 904  : 		// add another block
; 905  : 		CPlex* pNewBlock = CPlex::Create(m_pBlocks, m_nBlockSize,

  0000d	6a 34		 push	 52			; 00000034H
  0000f	ff 76 18	 push	 DWORD PTR [esi+24]
  00012	8d 46 14	 lea	 eax, DWORD PTR [esi+20]
  00015	50		 push	 eax
  00016	e8 00 00 00 00	 call	 ?Create@CPlex@@SGPAU1@AAPAU1@II@Z ; CPlex::Create

; 906  : 				 sizeof(CNode));
; 907  : 
; 908  : 		// chain them into free list
; 909  : 		CNode* pNode = (CNode*) pNewBlock->data();
; 910  : 		// free in reverse order to make it easier to debug
; 911  : 		pNode += m_nBlockSize - 1;

  0001b	8b 56 18	 mov	 edx, DWORD PTR [esi+24]
  0001e	83 c0 08	 add	 eax, 8
  00021	6b ca 34	 imul	 ecx, edx, 52
  00024	83 c1 cc	 add	 ecx, -52		; ffffffccH
  00027	03 c1		 add	 eax, ecx

; 912  : 		for (INT_PTR i = m_nBlockSize-1; i >= 0; i--, pNode--)

  00029	83 c2 ff	 add	 edx, -1
  0002c	78 12		 js	 SHORT $LN7@NewNode
  0002e	66 90		 npad	 2
$LL4@NewNode:

; 913  : 		{
; 914  : 			pNode->pNext = m_pNodeFree;

  00030	8b 4e 10	 mov	 ecx, DWORD PTR [esi+16]
  00033	89 08		 mov	 DWORD PTR [eax], ecx

; 915  : 			m_pNodeFree = pNode;

  00035	89 46 10	 mov	 DWORD PTR [esi+16], eax
  00038	83 e8 34	 sub	 eax, 52			; 00000034H
  0003b	83 ea 01	 sub	 edx, 1
  0003e	79 f0		 jns	 SHORT $LL4@NewNode
$LN7@NewNode:

; 916  : 		}
; 917  : 	}
; 918  : 	ENSURE(m_pNodeFree != NULL);  // we must have something

  00040	8b 7e 10	 mov	 edi, DWORD PTR [esi+16]
  00043	85 ff		 test	 edi, edi
  00045	74 24		 je	 SHORT $LN17@NewNode

; 919  : 
; 920  : 	CList::CNode* pNode = m_pNodeFree;
; 921  : 	m_pNodeFree = m_pNodeFree->pNext;

  00047	8b 07		 mov	 eax, DWORD PTR [edi]

; 922  : 	pNode->pPrev = pPrev;

  00049	8b 4d 08	 mov	 ecx, DWORD PTR _pPrev$[ebp]
  0004c	89 46 10	 mov	 DWORD PTR [esi+16], eax
  0004f	89 4f 04	 mov	 DWORD PTR [edi+4], ecx

; 923  : 	pNode->pNext = pNext;

  00052	8b 4d 0c	 mov	 ecx, DWORD PTR _pNext$[ebp]
  00055	89 0f		 mov	 DWORD PTR [edi], ecx

; 924  : 	m_nCount++;
; 925  : 	ASSERT(m_nCount > 0);  // make sure we don't overflow
; 926  : 
; 927  : #pragma push_macro("new")
; 928  : #undef new
; 929  : 	::new( (void*)( &pNode->data ) ) TYPE;

  00057	8d 4f 08	 lea	 ecx, DWORD PTR [edi+8]
  0005a	ff 46 0c	 inc	 DWORD PTR [esi+12]
  0005d	ff 15 00 00 00
	00		 call	 DWORD PTR __imp_??0CGraphColor@@QAE@XZ

; 930  : #pragma pop_macro("new")
; 931  : 	return pNode;

  00063	8b c7		 mov	 eax, edi
  00065	5f		 pop	 edi
  00066	5e		 pop	 esi

; 932  : }

  00067	5d		 pop	 ebp
  00068	c2 08 00	 ret	 8
$LN17@NewNode:

; 916  : 		}
; 917  : 	}
; 918  : 	ENSURE(m_pNodeFree != NULL);  // we must have something

  0006b	e8 00 00 00 00	 call	 ?AfxThrowInvalidArgException@@YGXXZ ; AfxThrowInvalidArgException
$LN15@NewNode:
  00070	cc		 int	 3
?NewNode@?$CList@VCGraphColor@@AAV1@@@IAEPAUCNode@1@PAU21@0@Z ENDP ; CList<CGraphColor,CGraphColor &>::NewNode
_TEXT	ENDS
; Function compile flags: /Ogtp
; File C:\Program Files (x86)\Microsoft Visual Studio\2019\Community\VC\Tools\MSVC\14.29.30133\atlmfc\include\afxtempl.h
;	COMDAT ?AddTail@?$CList@VCGraphColor@@AAV1@@@QAEPAU__POSITION@@AAVCGraphColor@@@Z
_TEXT	SEGMENT
_newElement$ = 8					; size = 4
?AddTail@?$CList@VCGraphColor@@AAV1@@@QAEPAU__POSITION@@AAVCGraphColor@@@Z PROC ; CList<CGraphColor,CGraphColor &>::AddTail, COMDAT
; _this$ = ecx

; 965  : {

  00000	55		 push	 ebp
  00001	8b ec		 mov	 ebp, esp
  00003	53		 push	 ebx
  00004	56		 push	 esi
  00005	8b f1		 mov	 esi, ecx
  00007	57		 push	 edi

; 902  : 	if (m_pNodeFree == NULL)

  00008	83 7e 10 00	 cmp	 DWORD PTR [esi+16], 0

; 966  : 	ASSERT_VALID(this);
; 967  : 
; 968  : 	CNode* pNewNode = NewNode(m_pNodeTail, NULL);

  0000c	8b 7e 08	 mov	 edi, DWORD PTR [esi+8]

; 902  : 	if (m_pNodeFree == NULL)

  0000f	75 31		 jne	 SHORT $LN11@AddTail

; 903  : 	{
; 904  : 		// add another block
; 905  : 		CPlex* pNewBlock = CPlex::Create(m_pBlocks, m_nBlockSize,

  00011	6a 34		 push	 52			; 00000034H
  00013	ff 76 18	 push	 DWORD PTR [esi+24]
  00016	8d 46 14	 lea	 eax, DWORD PTR [esi+20]
  00019	50		 push	 eax
  0001a	e8 00 00 00 00	 call	 ?Create@CPlex@@SGPAU1@AAPAU1@II@Z ; CPlex::Create

; 906  : 				 sizeof(CNode));
; 907  : 
; 908  : 		// chain them into free list
; 909  : 		CNode* pNode = (CNode*) pNewBlock->data();
; 910  : 		// free in reverse order to make it easier to debug
; 911  : 		pNode += m_nBlockSize - 1;

  0001f	8b 56 18	 mov	 edx, DWORD PTR [esi+24]
  00022	83 c0 08	 add	 eax, 8
  00025	6b ca 34	 imul	 ecx, edx, 52
  00028	83 c1 cc	 add	 ecx, -52		; ffffffccH
  0002b	03 c8		 add	 ecx, eax

; 912  : 		for (INT_PTR i = m_nBlockSize-1; i >= 0; i--, pNode--)

  0002d	83 c2 ff	 add	 edx, -1
  00030	78 10		 js	 SHORT $LN11@AddTail
$LL8@AddTail:

; 913  : 		{
; 914  : 			pNode->pNext = m_pNodeFree;

  00032	8b 46 10	 mov	 eax, DWORD PTR [esi+16]
  00035	89 01		 mov	 DWORD PTR [ecx], eax

; 915  : 			m_pNodeFree = pNode;

  00037	89 4e 10	 mov	 DWORD PTR [esi+16], ecx
  0003a	83 e9 34	 sub	 ecx, 52			; 00000034H
  0003d	83 ea 01	 sub	 edx, 1
  00040	79 f0		 jns	 SHORT $LL8@AddTail
$LN11@AddTail:

; 916  : 		}
; 917  : 	}
; 918  : 	ENSURE(m_pNodeFree != NULL);  // we must have something

  00042	8b 5e 10	 mov	 ebx, DWORD PTR [esi+16]
  00045	85 db		 test	 ebx, ebx
  00047	74 4a		 je	 SHORT $LN22@AddTail

; 919  : 
; 920  : 	CList::CNode* pNode = m_pNodeFree;
; 921  : 	m_pNodeFree = m_pNodeFree->pNext;

  00049	8b 03		 mov	 eax, DWORD PTR [ebx]

; 922  : 	pNode->pPrev = pPrev;
; 923  : 	pNode->pNext = pNext;
; 924  : 	m_nCount++;
; 925  : 	ASSERT(m_nCount > 0);  // make sure we don't overflow
; 926  : 
; 927  : #pragma push_macro("new")
; 928  : #undef new
; 929  : 	::new( (void*)( &pNode->data ) ) TYPE;

  0004b	8d 4b 08	 lea	 ecx, DWORD PTR [ebx+8]
  0004e	89 46 10	 mov	 DWORD PTR [esi+16], eax
  00051	89 7b 04	 mov	 DWORD PTR [ebx+4], edi
  00054	c7 03 00 00 00
	00		 mov	 DWORD PTR [ebx], 0
  0005a	ff 46 0c	 inc	 DWORD PTR [esi+12]
  0005d	ff 15 00 00 00
	00		 call	 DWORD PTR __imp_??0CGraphColor@@QAE@XZ

; 969  : 	pNewNode->data = newElement;

  00063	ff 75 08	 push	 DWORD PTR _newElement$[ebp]
  00066	8d 4b 08	 lea	 ecx, DWORD PTR [ebx+8]
  00069	ff 15 00 00 00
	00		 call	 DWORD PTR __imp_??4CGraphColor@@QAEAAV0@ABV0@@Z

; 970  : 	if (m_pNodeTail != NULL)

  0006f	8b 46 08	 mov	 eax, DWORD PTR [esi+8]
  00072	85 c0		 test	 eax, eax
  00074	74 0e		 je	 SHORT $LN2@AddTail

; 971  : 		m_pNodeTail->pNext = pNewNode;

  00076	89 18		 mov	 DWORD PTR [eax], ebx

; 972  : 	else
; 973  : 		m_pNodeHead = pNewNode;
; 974  : 	m_pNodeTail = pNewNode;
; 975  : 	return (POSITION) pNewNode;

  00078	8b c3		 mov	 eax, ebx
  0007a	5f		 pop	 edi
  0007b	89 5e 08	 mov	 DWORD PTR [esi+8], ebx
  0007e	5e		 pop	 esi
  0007f	5b		 pop	 ebx

; 976  : }

  00080	5d		 pop	 ebp
  00081	c2 04 00	 ret	 4
$LN2@AddTail:

; 972  : 	else
; 973  : 		m_pNodeHead = pNewNode;
; 974  : 	m_pNodeTail = pNewNode;
; 975  : 	return (POSITION) pNewNode;

  00084	5f		 pop	 edi
  00085	89 5e 04	 mov	 DWORD PTR [esi+4], ebx
  00088	8b c3		 mov	 eax, ebx
  0008a	89 5e 08	 mov	 DWORD PTR [esi+8], ebx
  0008d	5e		 pop	 esi
  0008e	5b		 pop	 ebx

; 976  : }

  0008f	5d		 pop	 ebp
  00090	c2 04 00	 ret	 4
$LN22@AddTail:

; 918  : 	ENSURE(m_pNodeFree != NULL);  // we must have something

  00093	e8 00 00 00 00	 call	 ?AfxThrowInvalidArgException@@YGXXZ ; AfxThrowInvalidArgException
$LN20@AddTail:
  00098	cc		 int	 3
?AddTail@?$CList@VCGraphColor@@AAV1@@@QAEPAU__POSITION@@AAVCGraphColor@@@Z ENDP ; CList<CGraphColor,CGraphColor &>::AddTail
_TEXT	ENDS
; Function compile flags: /Ogtp
;	COMDAT ??1CVertScaleMaxWidthCalculatorData@@QAE@XZ
_TEXT	SEGMENT
??1CVertScaleMaxWidthCalculatorData@@QAE@XZ PROC	; CVertScaleMaxWidthCalculatorData::~CVertScaleMaxWidthCalculatorData, COMDAT
; _this$ = ecx
  00000	56		 push	 esi
  00001	8b f1		 mov	 esi, ecx
  00003	8d 4e 64	 lea	 ecx, DWORD PTR [esi+100]
  00006	ff 15 00 00 00
	00		 call	 DWORD PTR __imp_??1?$CStringT@DV?$StrTraitMFC_DLL@DV?$ChTraitsCRT@D@ATL@@@@@ATL@@QAE@XZ
  0000c	8d 4e 60	 lea	 ecx, DWORD PTR [esi+96]
  0000f	ff 15 00 00 00
	00		 call	 DWORD PTR __imp_??1?$CStringT@DV?$StrTraitMFC_DLL@DV?$ChTraitsCRT@D@ATL@@@@@ATL@@QAE@XZ
  00015	8d 4e 08	 lea	 ecx, DWORD PTR [esi+8]
  00018	5e		 pop	 esi
  00019	ff 25 00 00 00
	00		 jmp	 DWORD PTR __imp_??1CVerticalScale@@QAE@XZ
??1CVertScaleMaxWidthCalculatorData@@QAE@XZ ENDP	; CVertScaleMaxWidthCalculatorData::~CVertScaleMaxWidthCalculatorData
_TEXT	ENDS
; Function compile flags: /Ogtp
; File D:\git\src\IBK\IBK_DRFN\ProjSrc\SrcChartEx\ChartOCX\ChartObject\VertScaleGroup.cpp
; File C:\Program Files (x86)\Microsoft Visual Studio\2019\Community\VC\Tools\MSVC\14.29.30133\atlmfc\include\afx.inl
;	COMDAT ??_GCVertScaleGroup@@MAEPAXI@Z
_TEXT	SEGMENT
__$EHRec$ = -12						; size = 12
___flags$ = 8						; size = 4
??_GCVertScaleGroup@@MAEPAXI@Z PROC			; CVertScaleGroup::`scalar deleting destructor', COMDAT
; _this$ = ecx
  00000	55		 push	 ebp
  00001	8b ec		 mov	 ebp, esp
  00003	6a ff		 push	 -1
  00005	68 00 00 00 00	 push	 __ehhandler$??_GCVertScaleGroup@@MAEPAXI@Z
  0000a	64 a1 00 00 00
	00		 mov	 eax, DWORD PTR fs:0
  00010	50		 push	 eax
  00011	56		 push	 esi
  00012	a1 00 00 00 00	 mov	 eax, DWORD PTR ___security_cookie
  00017	33 c5		 xor	 eax, ebp
  00019	50		 push	 eax
  0001a	8d 45 f4	 lea	 eax, DWORD PTR __$EHRec$[ebp]
  0001d	64 a3 00 00 00
	00		 mov	 DWORD PTR fs:0, eax
  00023	8b f1		 mov	 esi, ecx
; File D:\git\src\IBK\IBK_DRFN\ProjSrc\SrcChartEx\ChartOCX\ChartObject\VertScaleGroup.cpp

; 97   : {

  00025	c7 45 fc 00 00
	00 00		 mov	 DWORD PTR __$EHRec$[ebp+8], 0
  0002c	c7 06 00 00 00
	00		 mov	 DWORD PTR [esi], OFFSET ??_7CVertScaleGroup@@6B@

; 98   : 	// (2007/2/16 - Seung-Won, Bae) Protect the redestructing on Destructor.
; 99   : 	m_bOnDestructor = TRUE;

  00032	c7 46 04 01 00
	00 00		 mov	 DWORD PTR [esi+4], 1

; 100  : 
; 101  : 	// (2007/1/14 - Seung-Won, Bae) Get the Base Packet for Default Scale Min/Max
; 102  : 	m_pBaseGraph	= NULL;

  00039	c7 86 98 00 00
	00 00 00 00 00	 mov	 DWORD PTR [esi+152], 0

; 103  : 	m_pBasePacket	= NULL;

  00043	c7 86 9c 00 00
	00 00 00 00 00	 mov	 DWORD PTR [esi+156], 0

; 104  : 
; 105  : 	// Y Scale    - ojtaso (20070807)
; 106  : 	m_lpSelectedGraph = NULL;

  0004d	c7 86 94 00 00
	00 00 00 00 00	 mov	 DWORD PTR [esi+148], 0

; 107  : 
; 108  : 	DeleteAll();

  00057	e8 00 00 00 00	 call	 ?DeleteAll@CVertScaleGroup@@QAEXXZ ; CVertScaleGroup::DeleteAll

; 109  : }

  0005c	8d 4e 78	 lea	 ecx, DWORD PTR [esi+120]
  0005f	e8 00 00 00 00	 call	 ??1CObList@@UAE@XZ	; CObList::~CObList
  00064	8d 4e 10	 lea	 ecx, DWORD PTR [esi+16]
  00067	ff 15 00 00 00
	00		 call	 DWORD PTR __imp_??1CVerticalScale@@QAE@XZ
  0006d	8b 45 08	 mov	 eax, DWORD PTR ___flags$[ebp]
  00070	a8 01		 test	 al, 1
  00072	74 2f		 je	 SHORT $LN18@scalar
  00074	a8 04		 test	 al, 4
  00076	75 1d		 jne	 SHORT $LN3@scalar
; File C:\Program Files (x86)\Microsoft Visual Studio\2019\Community\VC\Tools\MSVC\14.29.30133\atlmfc\include\afx.inl

; 112  : 	{ ::operator delete(p); }

  00078	56		 push	 esi
  00079	e8 00 00 00 00	 call	 ??3@YAXPAX@Z		; operator delete
  0007e	83 c4 04	 add	 esp, 4
  00081	8b c6		 mov	 eax, esi
  00083	8b 4d f4	 mov	 ecx, DWORD PTR __$EHRec$[ebp]
  00086	64 89 0d 00 00
	00 00		 mov	 DWORD PTR fs:0, ecx
  0008d	59		 pop	 ecx
  0008e	5e		 pop	 esi
  0008f	8b e5		 mov	 esp, ebp
  00091	5d		 pop	 ebp
  00092	c2 04 00	 ret	 4
$LN3@scalar:
  00095	68 a0 00 00 00	 push	 160			; 000000a0H
  0009a	56		 push	 esi
  0009b	e8 00 00 00 00	 call	 ?__global_delete@@YAXPAXI@Z ; __global_delete
  000a0	83 c4 08	 add	 esp, 8
$LN18@scalar:
  000a3	8b c6		 mov	 eax, esi
  000a5	8b 4d f4	 mov	 ecx, DWORD PTR __$EHRec$[ebp]
  000a8	64 89 0d 00 00
	00 00		 mov	 DWORD PTR fs:0, ecx
  000af	59		 pop	 ecx
  000b0	5e		 pop	 esi
  000b1	8b e5		 mov	 esp, ebp
  000b3	5d		 pop	 ebp
  000b4	c2 04 00	 ret	 4
  000b7	cc		 int	 3
  000b8	cc		 int	 3
  000b9	cc		 int	 3
  000ba	cc		 int	 3
  000bb	cc		 int	 3
_TEXT	ENDS
;	COMDAT text$x
text$x	SEGMENT
__ehhandler$??_GCVertScaleGroup@@MAEPAXI@Z:
  00000	90		 npad	 1
  00001	90		 npad	 1
  00002	8b 54 24 08	 mov	 edx, DWORD PTR [esp+8]
  00006	8d 42 0c	 lea	 eax, DWORD PTR [edx+12]
  00009	8b 4a f8	 mov	 ecx, DWORD PTR [edx-8]
  0000c	33 c8		 xor	 ecx, eax
  0000e	e8 00 00 00 00	 call	 @__security_check_cookie@4
  00013	b8 00 00 00 00	 mov	 eax, OFFSET __ehfuncinfo$??_GCVertScaleGroup@@MAEPAXI@Z
  00018	e9 00 00 00 00	 jmp	 ___CxxFrameHandler3
text$x	ENDS
??_GCVertScaleGroup@@MAEPAXI@Z ENDP			; CVertScaleGroup::`scalar deleting destructor'
; Function compile flags: /Ogtp
; File D:\git\src\IBK\IBK_DRFN\ProjSrc\SrcChartEx\ChartOCX\ChartObject\VertScaleGroup.cpp
; File D:\git\src\IBK\IBK_DRFN\ProjSrc\SrcChartEx\ChartOCX\Include_Chart\ScaleBaseData.h
; File D:\git\src\IBK\IBK_DRFN\ProjSrc\SrcChartEx\ChartOCX\ChartObject\VertScaleGroup.cpp
;	COMDAT ?SetVertScaleInvertType@CVertScaleGroup@@QAEX_N@Z
_TEXT	SEGMENT
_bIsVertScaleInvertType$ = 8				; size = 1
?SetVertScaleInvertType@CVertScaleGroup@@QAEX_N@Z PROC	; CVertScaleGroup::SetVertScaleInvertType, COMDAT
; _this$ = ecx

; 2128 : {

  00000	55		 push	 ebp
  00001	8b ec		 mov	 ebp, esp
; File D:\git\src\IBK\IBK_DRFN\ProjSrc\SrcChartEx\ChartOCX\Include_Chart\ScaleBaseData.h

; 232  : 	void	SetVertScaleInvertType(const bool bIsVertScaleInvertType)	{	m_bIsVertScaleInvertType = bIsVertScaleInvertType;	}

  00003	8a 45 08	 mov	 al, BYTE PTR _bIsVertScaleInvertType$[ebp]
  00006	88 41 44	 mov	 BYTE PTR [ecx+68], al
; File D:\git\src\IBK\IBK_DRFN\ProjSrc\SrcChartEx\ChartOCX\ChartObject\VertScaleGroup.cpp

; 2130 : }

  00009	5d		 pop	 ebp
  0000a	c2 04 00	 ret	 4
?SetVertScaleInvertType@CVertScaleGroup@@QAEX_N@Z ENDP	; CVertScaleGroup::SetVertScaleInvertType
_TEXT	ENDS
; Function compile flags: /Ogtp
; File D:\git\src\IBK\IBK_DRFN\ProjSrc\SrcChartEx\ChartOCX\ChartObject\VertScaleGroup.cpp
;	COMDAT ?GetVertScaleInvertType@CVertScaleGroup@@QBE_NXZ
_TEXT	SEGMENT
?GetVertScaleInvertType@CVertScaleGroup@@QBE_NXZ PROC	; CVertScaleGroup::GetVertScaleInvertType, COMDAT
; _this$ = ecx

; 2123 : 	return m_vertScale.GetVertScaleInvertType();

  00000	8a 41 44	 mov	 al, BYTE PTR [ecx+68]

; 2124 : }

  00003	c3		 ret	 0
?GetVertScaleInvertType@CVertScaleGroup@@QBE_NXZ ENDP	; CVertScaleGroup::GetVertScaleInvertType
_TEXT	ENDS
; Function compile flags: /Ogtp
; File D:\git\src\IBK\IBK_DRFN\ProjSrc\SrcChartEx\ChartOCX\ChartObject\VertScaleGroup.cpp
;	COMDAT ?SetSelectedGraph@CVertScaleGroup@@QAEXAAPAVCGraphImp@@@Z
_TEXT	SEGMENT
_lpSelectedGraph$ = 8					; size = 4
?SetSelectedGraph@CVertScaleGroup@@QAEXAAPAVCGraphImp@@@Z PROC ; CVertScaleGroup::SetSelectedGraph, COMDAT
; _this$ = ecx

; 2116 : {

  00000	55		 push	 ebp
  00001	8b ec		 mov	 ebp, esp

; 2117 : 	m_lpSelectedGraph = lpSelectedGraph;

  00003	8b 45 08	 mov	 eax, DWORD PTR _lpSelectedGraph$[ebp]
  00006	8b 00		 mov	 eax, DWORD PTR [eax]
  00008	89 81 94 00 00
	00		 mov	 DWORD PTR [ecx+148], eax

; 2118 : }

  0000e	5d		 pop	 ebp
  0000f	c2 04 00	 ret	 4
?SetSelectedGraph@CVertScaleGroup@@QAEXAAPAVCGraphImp@@@Z ENDP ; CVertScaleGroup::SetSelectedGraph
_TEXT	ENDS
; Function compile flags: /Ogtp
; File D:\git\src\IBK\IBK_DRFN\ProjSrc\SrcChartEx\ChartOCX\ChartObject\VertScaleGroup.cpp
;	COMDAT ?IsScaleTextDrawing@CVertScaleGroup@@QAEHXZ
_TEXT	SEGMENT
?IsScaleTextDrawing@CVertScaleGroup@@QAEHXZ PROC	; CVertScaleGroup::IsScaleTextDrawing, COMDAT
; _this$ = ecx

; 2111 : 	return IsVertScaleDrawing();

  00000	e8 00 00 00 00	 call	 ?IsVertScaleDrawing@CVertScaleGroup@@ABE_NXZ ; CVertScaleGroup::IsVertScaleDrawing
  00005	0f b6 c0	 movzx	 eax, al

; 2112 : }

  00008	c3		 ret	 0
?IsScaleTextDrawing@CVertScaleGroup@@QAEHXZ ENDP	; CVertScaleGroup::IsScaleTextDrawing
_TEXT	ENDS
; Function compile flags: /Ogtp
; File D:\git\src\IBK\IBK_DRFN\ProjSrc\SrcChartEx\ChartOCX\ChartObject\VertScaleGroup.cpp
; File C:\Program Files (x86)\Microsoft Visual Studio\2019\Community\VC\Tools\MSVC\14.29.30133\atlmfc\include\afxcoll.inl
; File D:\git\src\IBK\IBK_DRFN\ProjSrc\SrcChartEx\ChartOCX\ChartObject\VertScaleGroup.cpp
; File C:\Program Files (x86)\Microsoft Visual Studio\2019\Community\VC\Tools\MSVC\14.29.30133\atlmfc\include\cstringt.h
; File D:\git\src\IBK\IBK_DRFN\ProjSrc\SrcChartEx\ChartOCX\ChartObject\VertScaleGroup.cpp
; File C:\Program Files (x86)\Microsoft Visual Studio\2019\Community\VC\Tools\MSVC\14.29.30133\atlmfc\include\cstringt.h
; File D:\git\src\IBK\IBK_DRFN\ProjSrc\SrcChartEx\ChartOCX\ChartObject\VertScaleGroup.cpp
; File C:\Program Files (x86)\Microsoft Visual Studio\2019\Community\VC\Tools\MSVC\14.29.30133\atlmfc\include\cstringt.h
; File D:\git\src\IBK\IBK_DRFN\ProjSrc\SrcChartEx\ChartOCX\ChartObject\VertScaleGroup.cpp
;	COMDAT ?ChangeIndicatorPacketNames@CVertScaleGroup@@QAEHPBDH0@Z
_TEXT	SEGMENT
_pGraph$1$ = -36					; size = 4
$T2 = -32						; size = 4
$T3 = -28						; size = 4
$T4 = -24						; size = 4
$T5 = -20						; size = 4
_bResult$1$ = -16					; size = 4
__$EHRec$ = -12						; size = 12
_p_szIndicatorName$ = 8					; size = 4
_p_nSubGraphIndex$ = 12					; size = 4
_p_szPacketNames$ = 16					; size = 4
?ChangeIndicatorPacketNames@CVertScaleGroup@@QAEHPBDH0@Z PROC ; CVertScaleGroup::ChangeIndicatorPacketNames, COMDAT
; _this$ = ecx

; 2079 : {

  00000	55		 push	 ebp
  00001	8b ec		 mov	 ebp, esp
  00003	6a ff		 push	 -1
  00005	68 00 00 00 00	 push	 __ehhandler$?ChangeIndicatorPacketNames@CVertScaleGroup@@QAEHPBDH0@Z
  0000a	64 a1 00 00 00
	00		 mov	 eax, DWORD PTR fs:0
  00010	50		 push	 eax
  00011	83 ec 18	 sub	 esp, 24			; 00000018H
  00014	53		 push	 ebx
  00015	56		 push	 esi
  00016	57		 push	 edi
  00017	a1 00 00 00 00	 mov	 eax, DWORD PTR ___security_cookie
  0001c	33 c5		 xor	 eax, ebp
  0001e	50		 push	 eax
  0001f	8d 45 f4	 lea	 eax, DWORD PTR __$EHRec$[ebp]
  00022	64 a3 00 00 00
	00		 mov	 DWORD PTR fs:0, eax
  00028	8b f9		 mov	 edi, ecx

; 2080 : 	if( !p_szIndicatorName || !p_szPacketNames) return FALSE;

  0002a	8b 45 08	 mov	 eax, DWORD PTR _p_szIndicatorName$[ebp]
  0002d	85 c0		 test	 eax, eax
  0002f	0f 84 59 01 00
	00		 je	 $LN5@ChangeIndi
  00035	8b 75 10	 mov	 esi, DWORD PTR _p_szPacketNames$[ebp]
  00038	85 f6		 test	 esi, esi
  0003a	0f 84 4e 01 00
	00		 je	 $LN5@ChangeIndi

; 2081 : 	if( !*p_szIndicatorName || !*p_szPacketNames) return FALSE;

  00040	80 38 00	 cmp	 BYTE PTR [eax], 0
  00043	0f 84 45 01 00
	00		 je	 $LN5@ChangeIndi
  00049	80 3e 00	 cmp	 BYTE PTR [esi], 0
  0004c	0f 84 3c 01 00
	00		 je	 $LN5@ChangeIndi

; 2082 : 
; 2083 : 	BOOL bResult = FALSE;
; 2084 : 	CGraphImp *pGraph = NULL;
; 2085 : 	CIndicatorInfo *pIndicatorInfo = NULL;
; 2086 : 	POSITION pos = m_GraphList.GetHeadPosition();

  00052	8b 7f 7c	 mov	 edi, DWORD PTR [edi+124]
  00055	33 c9		 xor	 ecx, ecx
  00057	89 4d f0	 mov	 DWORD PTR _bResult$1$[ebp], ecx

; 2087 : 	while( pos)

  0005a	85 ff		 test	 edi, edi
  0005c	0f 84 16 01 00
	00		 je	 $LN3@ChangeIndi
$LL2@ChangeIndi:

; 2089 : 		pGraph = m_GraphList.GetNext( pos);

  00062	8b 47 08	 mov	 eax, DWORD PTR [edi+8]
; File C:\Program Files (x86)\Microsoft Visual Studio\2019\Community\VC\Tools\MSVC\14.29.30133\atlmfc\include\afxcoll.inl

; 432  : 		rPosition = (POSITION) pNode->pNext;

  00065	8b 3f		 mov	 edi, DWORD PTR [edi]
; File D:\git\src\IBK\IBK_DRFN\ProjSrc\SrcChartEx\ChartOCX\ChartObject\VertScaleGroup.cpp

; 2089 : 		pGraph = m_GraphList.GetNext( pos);

  00067	89 45 dc	 mov	 DWORD PTR _pGraph$1$[ebp], eax

; 2090 : 		if( !pGraph) continue;

  0006a	85 c0		 test	 eax, eax
  0006c	0f 84 fe 00 00
	00		 je	 $LN34@ChangeIndi

; 2091 : 		pIndicatorInfo = pGraph->GetIndicatorInfo();

  00072	8b c8		 mov	 ecx, eax
  00074	e8 00 00 00 00	 call	 ?GetIndicatorInfo@CGraphImp@@QAEPAVCIndicatorInfo@@XZ ; CGraphImp::GetIndicatorInfo
  00079	8b d8		 mov	 ebx, eax

; 2092 : 		if( !pIndicatorInfo) continue;

  0007b	85 db		 test	 ebx, ebx
  0007d	0f 84 ea 00 00
	00		 je	 $LN39@ChangeIndi

; 2093 : 		if( pIndicatorInfo->GetIndicatorName() != p_szIndicatorName) continue;

  00083	8d 45 e0	 lea	 eax, DWORD PTR $T2[ebp]
  00086	8b cb		 mov	 ecx, ebx
  00088	50		 push	 eax
  00089	ff 15 00 00 00
	00		 call	 DWORD PTR __imp_?GetIndicatorName@CIndicatorInfo@@QBE?AV?$CStringT@DV?$StrTraitMFC_DLL@DV?$ChTraitsCRT@D@ATL@@@@@ATL@@XZ
; File C:\Program Files (x86)\Microsoft Visual Studio\2019\Community\VC\Tools\MSVC\14.29.30133\atlmfc\include\cstringt.h

; 2567 : 		return( str1.Compare( psz2 ) != 0 );

  0008f	ff 75 08	 push	 DWORD PTR _p_szIndicatorName$[ebp]
  00092	8b c8		 mov	 ecx, eax
; File D:\git\src\IBK\IBK_DRFN\ProjSrc\SrcChartEx\ChartOCX\ChartObject\VertScaleGroup.cpp

; 2093 : 		if( pIndicatorInfo->GetIndicatorName() != p_szIndicatorName) continue;

  00094	c7 45 fc 00 00
	00 00		 mov	 DWORD PTR __$EHRec$[ebp+8], 0
; File C:\Program Files (x86)\Microsoft Visual Studio\2019\Community\VC\Tools\MSVC\14.29.30133\atlmfc\include\cstringt.h

; 2567 : 		return( str1.Compare( psz2 ) != 0 );

  0009b	ff 15 00 00 00
	00		 call	 DWORD PTR __imp_?Compare@?$CStringT@DV?$StrTraitMFC_DLL@DV?$ChTraitsCRT@D@ATL@@@@@ATL@@QBEHPBD@Z
; File D:\git\src\IBK\IBK_DRFN\ProjSrc\SrcChartEx\ChartOCX\ChartObject\VertScaleGroup.cpp

; 2093 : 		if( pIndicatorInfo->GetIndicatorName() != p_szIndicatorName) continue;

  000a1	8d 4d e0	 lea	 ecx, DWORD PTR $T2[ebp]
  000a4	c7 45 fc ff ff
	ff ff		 mov	 DWORD PTR __$EHRec$[ebp+8], -1
; File C:\Program Files (x86)\Microsoft Visual Studio\2019\Community\VC\Tools\MSVC\14.29.30133\atlmfc\include\cstringt.h

; 2567 : 		return( str1.Compare( psz2 ) != 0 );

  000ab	8b f0		 mov	 esi, eax
; File D:\git\src\IBK\IBK_DRFN\ProjSrc\SrcChartEx\ChartOCX\ChartObject\VertScaleGroup.cpp

; 2093 : 		if( pIndicatorInfo->GetIndicatorName() != p_szIndicatorName) continue;

  000ad	ff 15 00 00 00
	00		 call	 DWORD PTR __imp_??1?$CStringT@DV?$StrTraitMFC_DLL@DV?$ChTraitsCRT@D@ATL@@@@@ATL@@QAE@XZ
  000b3	85 f6		 test	 esi, esi
  000b5	0f 85 b2 00 00
	00		 jne	 $LN39@ChangeIndi

; 2094 : 
; 2095 : 		if( p_nSubGraphIndex < 0)

  000bb	8b 75 0c	 mov	 esi, DWORD PTR _p_nSubGraphIndex$[ebp]
  000be	85 f6		 test	 esi, esi
  000c0	79 61		 jns	 SHORT $LN11@ChangeIndi

; 2096 : 		{
; 2097 : 			pIndicatorInfo->SetCommonPacketNames( p_szPacketNames);

  000c2	8b 75 10	 mov	 esi, DWORD PTR _p_szPacketNames$[ebp]
  000c5	8d 4d ec	 lea	 ecx, DWORD PTR $T5[ebp]
  000c8	56		 push	 esi
  000c9	ff 15 00 00 00
	00		 call	 DWORD PTR __imp_??0?$CStringT@DV?$StrTraitMFC_DLL@DV?$ChTraitsCRT@D@ATL@@@@@ATL@@QAE@PBD@Z
  000cf	8d 45 ec	 lea	 eax, DWORD PTR $T5[ebp]
  000d2	c7 45 fc 01 00
	00 00		 mov	 DWORD PTR __$EHRec$[ebp+8], 1
  000d9	50		 push	 eax
  000da	8b cb		 mov	 ecx, ebx
  000dc	ff 15 00 00 00
	00		 call	 DWORD PTR __imp_?SetCommonPacketNames@CIndicatorInfo@@QAE_NABV?$CStringT@DV?$StrTraitMFC_DLL@DV?$ChTraitsCRT@D@ATL@@@@@ATL@@@Z
  000e2	8d 4d ec	 lea	 ecx, DWORD PTR $T5[ebp]
  000e5	c7 45 fc ff ff
	ff ff		 mov	 DWORD PTR __$EHRec$[ebp+8], -1
  000ec	ff 15 00 00 00
	00		 call	 DWORD PTR __imp_??1?$CStringT@DV?$StrTraitMFC_DLL@DV?$ChTraitsCRT@D@ATL@@@@@ATL@@QAE@XZ

; 2098 : 			pIndicatorInfo->SetAllPacketNames_SubGraphPart( p_szPacketNames, false);

  000f2	56		 push	 esi
  000f3	8d 4d e8	 lea	 ecx, DWORD PTR $T4[ebp]
  000f6	ff 15 00 00 00
	00		 call	 DWORD PTR __imp_??0?$CStringT@DV?$StrTraitMFC_DLL@DV?$ChTraitsCRT@D@ATL@@@@@ATL@@QAE@PBD@Z
  000fc	6a 00		 push	 0
  000fe	8d 45 e8	 lea	 eax, DWORD PTR $T4[ebp]
  00101	c7 45 fc 02 00
	00 00		 mov	 DWORD PTR __$EHRec$[ebp+8], 2
  00108	50		 push	 eax
  00109	8b cb		 mov	 ecx, ebx
  0010b	ff 15 00 00 00
	00		 call	 DWORD PTR __imp_?SetAllPacketNames_SubGraphPart@CIndicatorInfo@@QAE_NABV?$CStringT@DV?$StrTraitMFC_DLL@DV?$ChTraitsCRT@D@ATL@@@@@ATL@@_N@Z
  00111	8d 4d e8	 lea	 ecx, DWORD PTR $T4[ebp]
  00114	c7 45 fc ff ff
	ff ff		 mov	 DWORD PTR __$EHRec$[ebp+8], -1
  0011b	ff 15 00 00 00
	00		 call	 DWORD PTR __imp_??1?$CStringT@DV?$StrTraitMFC_DLL@DV?$ChTraitsCRT@D@ATL@@@@@ATL@@QAE@XZ

; 2099 : 		}

  00121	eb 36		 jmp	 SHORT $LN13@ChangeIndi
$LN11@ChangeIndi:

; 2100 : 		else if( !pIndicatorInfo->SetPacketNames( p_nSubGraphIndex, p_szPacketNames)) continue;

  00123	ff 75 10	 push	 DWORD PTR _p_szPacketNames$[ebp]
  00126	8d 4d e4	 lea	 ecx, DWORD PTR $T3[ebp]
  00129	ff 15 00 00 00
	00		 call	 DWORD PTR __imp_??0?$CStringT@DV?$StrTraitMFC_DLL@DV?$ChTraitsCRT@D@ATL@@@@@ATL@@QAE@PBD@Z
  0012f	8d 45 e4	 lea	 eax, DWORD PTR $T3[ebp]
  00132	c7 45 fc 03 00
	00 00		 mov	 DWORD PTR __$EHRec$[ebp+8], 3
  00139	50		 push	 eax
  0013a	56		 push	 esi
  0013b	8b cb		 mov	 ecx, ebx
  0013d	ff 15 00 00 00
	00		 call	 DWORD PTR __imp_?SetPacketNames@CIndicatorInfo@@QAE_NHABV?$CStringT@DV?$StrTraitMFC_DLL@DV?$ChTraitsCRT@D@ATL@@@@@ATL@@@Z
  00143	8d 4d e4	 lea	 ecx, DWORD PTR $T3[ebp]
  00146	c7 45 fc ff ff
	ff ff		 mov	 DWORD PTR __$EHRec$[ebp+8], -1
  0014d	8a d8		 mov	 bl, al
  0014f	ff 15 00 00 00
	00		 call	 DWORD PTR __imp_??1?$CStringT@DV?$StrTraitMFC_DLL@DV?$ChTraitsCRT@D@ATL@@@@@ATL@@QAE@XZ
  00155	84 db		 test	 bl, bl
  00157	74 14		 je	 SHORT $LN39@ChangeIndi
$LN13@ChangeIndi:

; 2101 : 
; 2102 : 		pGraph->ChangeGraphDataFromIndicatorInfo( true);

  00159	8b 4d dc	 mov	 ecx, DWORD PTR _pGraph$1$[ebp]
  0015c	6a 01		 push	 1
  0015e	e8 00 00 00 00	 call	 ?ChangeGraphDataFromIndicatorInfo@CGraphImp@@QAE_N_N@Z ; CGraphImp::ChangeGraphDataFromIndicatorInfo

; 2103 : 		bResult = TRUE;

  00163	b9 01 00 00 00	 mov	 ecx, 1
  00168	89 4d f0	 mov	 DWORD PTR _bResult$1$[ebp], ecx
  0016b	eb 03		 jmp	 SHORT $LN34@ChangeIndi
$LN39@ChangeIndi:

; 2087 : 	while( pos)

  0016d	8b 4d f0	 mov	 ecx, DWORD PTR _bResult$1$[ebp]
$LN34@ChangeIndi:
  00170	85 ff		 test	 edi, edi
  00172	0f 85 ea fe ff
	ff		 jne	 $LL2@ChangeIndi
$LN3@ChangeIndi:

; 2104 : 	}
; 2105 : 	return bResult;

  00178	8b c1		 mov	 eax, ecx

; 2106 : }

  0017a	8b 4d f4	 mov	 ecx, DWORD PTR __$EHRec$[ebp]
  0017d	64 89 0d 00 00
	00 00		 mov	 DWORD PTR fs:0, ecx
  00184	59		 pop	 ecx
  00185	5f		 pop	 edi
  00186	5e		 pop	 esi
  00187	5b		 pop	 ebx
  00188	8b e5		 mov	 esp, ebp
  0018a	5d		 pop	 ebp
  0018b	c2 0c 00	 ret	 12			; 0000000cH
$LN5@ChangeIndi:

; 2080 : 	if( !p_szIndicatorName || !p_szPacketNames) return FALSE;

  0018e	33 c0		 xor	 eax, eax

; 2106 : }

  00190	8b 4d f4	 mov	 ecx, DWORD PTR __$EHRec$[ebp]
  00193	64 89 0d 00 00
	00 00		 mov	 DWORD PTR fs:0, ecx
  0019a	59		 pop	 ecx
  0019b	5f		 pop	 edi
  0019c	5e		 pop	 esi
  0019d	5b		 pop	 ebx
  0019e	8b e5		 mov	 esp, ebp
  001a0	5d		 pop	 ebp
  001a1	c2 0c 00	 ret	 12			; 0000000cH
_TEXT	ENDS
;	COMDAT text$x
text$x	SEGMENT
__unwindfunclet$?ChangeIndicatorPacketNames@CVertScaleGroup@@QAEHPBDH0@Z$0:
  00000	8d 4d e0	 lea	 ecx, DWORD PTR $T2[ebp]
  00003	ff 25 00 00 00
	00		 jmp	 DWORD PTR __imp_??1?$CStringT@DV?$StrTraitMFC_DLL@DV?$ChTraitsCRT@D@ATL@@@@@ATL@@QAE@XZ
__unwindfunclet$?ChangeIndicatorPacketNames@CVertScaleGroup@@QAEHPBDH0@Z$1:
  00009	8d 4d ec	 lea	 ecx, DWORD PTR $T5[ebp]
  0000c	ff 25 00 00 00
	00		 jmp	 DWORD PTR __imp_??1?$CStringT@DV?$StrTraitMFC_DLL@DV?$ChTraitsCRT@D@ATL@@@@@ATL@@QAE@XZ
__unwindfunclet$?ChangeIndicatorPacketNames@CVertScaleGroup@@QAEHPBDH0@Z$2:
  00012	8d 4d e8	 lea	 ecx, DWORD PTR $T4[ebp]
  00015	ff 25 00 00 00
	00		 jmp	 DWORD PTR __imp_??1?$CStringT@DV?$StrTraitMFC_DLL@DV?$ChTraitsCRT@D@ATL@@@@@ATL@@QAE@XZ
__unwindfunclet$?ChangeIndicatorPacketNames@CVertScaleGroup@@QAEHPBDH0@Z$3:
  0001b	8d 4d e4	 lea	 ecx, DWORD PTR $T3[ebp]
  0001e	ff 25 00 00 00
	00		 jmp	 DWORD PTR __imp_??1?$CStringT@DV?$StrTraitMFC_DLL@DV?$ChTraitsCRT@D@ATL@@@@@ATL@@QAE@XZ
  00024	cc		 int	 3
  00025	cc		 int	 3
  00026	cc		 int	 3
  00027	cc		 int	 3
  00028	cc		 int	 3
__ehhandler$?ChangeIndicatorPacketNames@CVertScaleGroup@@QAEHPBDH0@Z:
  00029	90		 npad	 1
  0002a	90		 npad	 1
  0002b	8b 54 24 08	 mov	 edx, DWORD PTR [esp+8]
  0002f	8d 42 0c	 lea	 eax, DWORD PTR [edx+12]
  00032	8b 4a d8	 mov	 ecx, DWORD PTR [edx-40]
  00035	33 c8		 xor	 ecx, eax
  00037	e8 00 00 00 00	 call	 @__security_check_cookie@4
  0003c	b8 00 00 00 00	 mov	 eax, OFFSET __ehfuncinfo$?ChangeIndicatorPacketNames@CVertScaleGroup@@QAEHPBDH0@Z
  00041	e9 00 00 00 00	 jmp	 ___CxxFrameHandler3
text$x	ENDS
?ChangeIndicatorPacketNames@CVertScaleGroup@@QAEHPBDH0@Z ENDP ; CVertScaleGroup::ChangeIndicatorPacketNames
; Function compile flags: /Ogtp
; File D:\git\src\IBK\IBK_DRFN\ProjSrc\SrcChartEx\ChartOCX\ChartObject\VertScaleGroup.cpp
; File C:\Program Files (x86)\Microsoft Visual Studio\2019\Community\VC\Tools\MSVC\14.29.30133\atlmfc\include\afxcoll.inl
; File D:\git\src\IBK\IBK_DRFN\ProjSrc\SrcChartEx\ChartOCX\ChartObject\VertScaleGroup.cpp
; File C:\Program Files (x86)\Microsoft Visual Studio\2019\Community\VC\Tools\MSVC\14.29.30133\atlmfc\include\cstringt.h
; File D:\git\src\IBK\IBK_DRFN\ProjSrc\SrcChartEx\ChartOCX\ChartObject\VertScaleGroup.cpp
; File C:\Program Files (x86)\Microsoft Visual Studio\2019\Community\VC\Tools\MSVC\14.29.30133\atlmfc\include\cstringt.h
; File D:\git\src\IBK\IBK_DRFN\ProjSrc\SrcChartEx\ChartOCX\ChartObject\VertScaleGroup.cpp
; File C:\Program Files (x86)\Microsoft Visual Studio\2019\Community\VC\Tools\MSVC\14.29.30133\atlmfc\include\cstringt.h
; File D:\git\src\IBK\IBK_DRFN\ProjSrc\SrcChartEx\ChartOCX\ChartObject\VertScaleGroup.cpp
;	COMDAT ?GetIndexOfGraph@CVertScaleGroup@@QAEHPBDAAH@Z
_TEXT	SEGMENT
__$EHRec$ = -12						; size = 12
_p_szGraphName$ = 8					; size = 4
$T2 = 12						; size = 4
_p_nG$ = 12						; size = 4
?GetIndexOfGraph@CVertScaleGroup@@QAEHPBDAAH@Z PROC	; CVertScaleGroup::GetIndexOfGraph, COMDAT
; _this$ = ecx

; 2058 : {

  00000	55		 push	 ebp
  00001	8b ec		 mov	 ebp, esp
  00003	6a ff		 push	 -1
  00005	68 00 00 00 00	 push	 __ehhandler$?GetIndexOfGraph@CVertScaleGroup@@QAEHPBDAAH@Z
  0000a	64 a1 00 00 00
	00		 mov	 eax, DWORD PTR fs:0
  00010	50		 push	 eax
  00011	53		 push	 ebx
  00012	56		 push	 esi
  00013	57		 push	 edi
  00014	a1 00 00 00 00	 mov	 eax, DWORD PTR ___security_cookie
  00019	33 c5		 xor	 eax, ebp
  0001b	50		 push	 eax
  0001c	8d 45 f4	 lea	 eax, DWORD PTR __$EHRec$[ebp]
  0001f	64 a3 00 00 00
	00		 mov	 DWORD PTR fs:0, eax

; 2059 : 	p_nG = -1;

  00025	8b 75 0c	 mov	 esi, DWORD PTR _p_nG$[ebp]

; 2060 : 	if( !p_szGraphName) return FALSE;

  00028	8b 7d 08	 mov	 edi, DWORD PTR _p_szGraphName$[ebp]
  0002b	c7 06 ff ff ff
	ff		 mov	 DWORD PTR [esi], -1
  00031	85 ff		 test	 edi, edi
  00033	74 5f		 je	 SHORT $LN24@GetIndexOf

; 2061 : 	if( !*p_szGraphName) return FALSE;

  00035	80 3f 00	 cmp	 BYTE PTR [edi], 0
  00038	74 5a		 je	 SHORT $LN24@GetIndexOf

; 2062 : 
; 2063 : 	p_nG = 0;

  0003a	c7 06 00 00 00
	00		 mov	 DWORD PTR [esi], 0

; 2064 : 	POSITION pos = m_GraphList.GetHeadPosition();

  00040	8b 59 7c	 mov	 ebx, DWORD PTR [ecx+124]

; 2065 : 	while(pos != NULL)

  00043	85 db		 test	 ebx, ebx
  00045	74 47		 je	 SHORT $LN3@GetIndexOf
$LL2@GetIndexOf:
; File C:\Program Files (x86)\Microsoft Visual Studio\2019\Community\VC\Tools\MSVC\14.29.30133\atlmfc\include\afxcoll.inl

; 428  : 	{ CNode* pNode = (CNode*) rPosition;

  00047	8d 03		 lea	 eax, DWORD PTR [ebx]

; 429  : 		ASSERT(AfxIsValidAddress(pNode, sizeof(CNode)));
; 430  : 		if( pNode == NULL )
; 431  : 			AfxThrowInvalidArgException();
; 432  : 		rPosition = (POSITION) pNode->pNext;

  00049	8b 1b		 mov	 ebx, DWORD PTR [ebx]
; File D:\git\src\IBK\IBK_DRFN\ProjSrc\SrcChartEx\ChartOCX\ChartObject\VertScaleGroup.cpp

; 2069 : 		if( pGraph->GetGraphData().GetGraphName() == p_szGraphName) return TRUE;

  0004b	8d 4d 0c	 lea	 ecx, DWORD PTR $T2[ebp]
  0004e	51		 push	 ecx
  0004f	8b 48 08	 mov	 ecx, DWORD PTR [eax+8]
  00052	e8 00 00 00 00	 call	 ?GetGraphData@CGraphImp@@QAEAAVCGraphData@@XZ ; CGraphImp::GetGraphData
  00057	8b c8		 mov	 ecx, eax
  00059	ff 15 00 00 00
	00		 call	 DWORD PTR __imp_?GetGraphName@CGraphData@@QBE?AV?$CStringT@DV?$StrTraitMFC_DLL@DV?$ChTraitsCRT@D@ATL@@@@@ATL@@XZ
; File C:\Program Files (x86)\Microsoft Visual Studio\2019\Community\VC\Tools\MSVC\14.29.30133\atlmfc\include\cstringt.h

; 2486 : 		return(str1.Compare(psz2) == 0);

  0005f	57		 push	 edi
  00060	8b c8		 mov	 ecx, eax
; File D:\git\src\IBK\IBK_DRFN\ProjSrc\SrcChartEx\ChartOCX\ChartObject\VertScaleGroup.cpp

; 2069 : 		if( pGraph->GetGraphData().GetGraphName() == p_szGraphName) return TRUE;

  00062	c7 45 fc 00 00
	00 00		 mov	 DWORD PTR __$EHRec$[ebp+8], 0
; File C:\Program Files (x86)\Microsoft Visual Studio\2019\Community\VC\Tools\MSVC\14.29.30133\atlmfc\include\cstringt.h

; 2486 : 		return(str1.Compare(psz2) == 0);

  00069	ff 15 00 00 00
	00		 call	 DWORD PTR __imp_?Compare@?$CStringT@DV?$StrTraitMFC_DLL@DV?$ChTraitsCRT@D@ATL@@@@@ATL@@QBEHPBD@Z
; File D:\git\src\IBK\IBK_DRFN\ProjSrc\SrcChartEx\ChartOCX\ChartObject\VertScaleGroup.cpp

; 2069 : 		if( pGraph->GetGraphData().GetGraphName() == p_szGraphName) return TRUE;

  0006f	8d 4d 0c	 lea	 ecx, DWORD PTR $T2[ebp]
  00072	c7 45 fc ff ff
	ff ff		 mov	 DWORD PTR __$EHRec$[ebp+8], -1
; File C:\Program Files (x86)\Microsoft Visual Studio\2019\Community\VC\Tools\MSVC\14.29.30133\atlmfc\include\cstringt.h

; 2486 : 		return(str1.Compare(psz2) == 0);

  00079	8b f8		 mov	 edi, eax
; File D:\git\src\IBK\IBK_DRFN\ProjSrc\SrcChartEx\ChartOCX\ChartObject\VertScaleGroup.cpp

; 2069 : 		if( pGraph->GetGraphData().GetGraphName() == p_szGraphName) return TRUE;

  0007b	ff 15 00 00 00
	00		 call	 DWORD PTR __imp_??1?$CStringT@DV?$StrTraitMFC_DLL@DV?$ChTraitsCRT@D@ATL@@@@@ATL@@QAE@XZ
  00081	85 ff		 test	 edi, edi
  00083	74 25		 je	 SHORT $LN20@GetIndexOf

; 2070 : 		p_nG++;

  00085	ff 06		 inc	 DWORD PTR [esi]
  00087	8b 7d 08	 mov	 edi, DWORD PTR _p_szGraphName$[ebp]
  0008a	85 db		 test	 ebx, ebx
  0008c	75 b9		 jne	 SHORT $LL2@GetIndexOf
$LN3@GetIndexOf:

; 2071 : 	}
; 2072 : 
; 2073 : 	p_nG = -1;

  0008e	c7 06 ff ff ff
	ff		 mov	 DWORD PTR [esi], -1
$LN24@GetIndexOf:

; 2074 : 	return FALSE;
; 2075 : }

  00094	33 c0		 xor	 eax, eax
  00096	8b 4d f4	 mov	 ecx, DWORD PTR __$EHRec$[ebp]
  00099	64 89 0d 00 00
	00 00		 mov	 DWORD PTR fs:0, ecx
  000a0	59		 pop	 ecx
  000a1	5f		 pop	 edi
  000a2	5e		 pop	 esi
  000a3	5b		 pop	 ebx
  000a4	8b e5		 mov	 esp, ebp
  000a6	5d		 pop	 ebp
  000a7	c2 08 00	 ret	 8
$LN20@GetIndexOf:

; 2069 : 		if( pGraph->GetGraphData().GetGraphName() == p_szGraphName) return TRUE;

  000aa	b8 01 00 00 00	 mov	 eax, 1

; 2074 : 	return FALSE;
; 2075 : }

  000af	8b 4d f4	 mov	 ecx, DWORD PTR __$EHRec$[ebp]
  000b2	64 89 0d 00 00
	00 00		 mov	 DWORD PTR fs:0, ecx
  000b9	59		 pop	 ecx
  000ba	5f		 pop	 edi
  000bb	5e		 pop	 esi
  000bc	5b		 pop	 ebx
  000bd	8b e5		 mov	 esp, ebp
  000bf	5d		 pop	 ebp
  000c0	c2 08 00	 ret	 8
_TEXT	ENDS
;	COMDAT text$x
text$x	SEGMENT
__unwindfunclet$?GetIndexOfGraph@CVertScaleGroup@@QAEHPBDAAH@Z$0:
  00000	8d 4d 0c	 lea	 ecx, DWORD PTR $T2[ebp]
  00003	ff 25 00 00 00
	00		 jmp	 DWORD PTR __imp_??1?$CStringT@DV?$StrTraitMFC_DLL@DV?$ChTraitsCRT@D@ATL@@@@@ATL@@QAE@XZ
  00009	cc		 int	 3
  0000a	cc		 int	 3
  0000b	cc		 int	 3
  0000c	cc		 int	 3
  0000d	cc		 int	 3
__ehhandler$?GetIndexOfGraph@CVertScaleGroup@@QAEHPBDAAH@Z:
  0000e	90		 npad	 1
  0000f	90		 npad	 1
  00010	8b 54 24 08	 mov	 edx, DWORD PTR [esp+8]
  00014	8d 42 0c	 lea	 eax, DWORD PTR [edx+12]
  00017	8b 4a f0	 mov	 ecx, DWORD PTR [edx-16]
  0001a	33 c8		 xor	 ecx, eax
  0001c	e8 00 00 00 00	 call	 @__security_check_cookie@4
  00021	b8 00 00 00 00	 mov	 eax, OFFSET __ehfuncinfo$?GetIndexOfGraph@CVertScaleGroup@@QAEHPBDAAH@Z
  00026	e9 00 00 00 00	 jmp	 ___CxxFrameHandler3
text$x	ENDS
?GetIndexOfGraph@CVertScaleGroup@@QAEHPBDAAH@Z ENDP	; CVertScaleGroup::GetIndexOfGraph
; Function compile flags: /Ogtp
; File D:\git\src\IBK\IBK_DRFN\ProjSrc\SrcChartEx\ChartOCX\ChartObject\VertScaleGroup.cpp
; File C:\Program Files (x86)\Microsoft Visual Studio\2019\Community\VC\Tools\MSVC\14.29.30133\atlmfc\include\afxtempl.h
; File D:\git\src\IBK\IBK_DRFN\ProjSrc\SrcChartEx\ChartOCX\ChartObject\VertScaleGroup.cpp
; File C:\Program Files (x86)\Microsoft Visual Studio\2019\Community\VC\Tools\MSVC\14.29.30133\atlmfc\include\afxcoll.inl
; File D:\git\src\IBK\IBK_DRFN\ProjSrc\SrcChartEx\ChartOCX\ChartObject\VertScaleGroup.cpp
;	COMDAT ?FindSubGraph@CVertScaleGroup@@QBE_NABVCPoint@@AAVCSelectedSubGraphDeque@@@Z
_TEXT	SEGMENT
_this$1$ = -4						; size = 4
_point$ = 8						; size = 4
_selectedSubGraphDeque$ = 12				; size = 4
?FindSubGraph@CVertScaleGroup@@QBE_NABVCPoint@@AAVCSelectedSubGraphDeque@@@Z PROC ; CVertScaleGroup::FindSubGraph, COMDAT
; _this$ = ecx

; 1637 : {

  00000	55		 push	 ebp
  00001	8b ec		 mov	 ebp, esp
  00003	51		 push	 ecx
  00004	53		 push	 ebx
  00005	8b d9		 mov	 ebx, ecx
  00007	56		 push	 esi
  00008	57		 push	 edi
  00009	89 5d fc	 mov	 DWORD PTR _this$1$[ebp], ebx

; 1638 : 	// (2007/2/1 - Seung-Won, Bae) 
; 1639 : 	if( !m_displayDataMinMax.IsInitialized()) return false;

  0000c	8d 4b 68	 lea	 ecx, DWORD PTR [ebx+104]
  0000f	ff 15 00 00 00
	00		 call	 DWORD PTR __imp_?IsInitialized@CDisplayDataMinMax@@QBEHXZ
  00015	85 c0		 test	 eax, eax
  00017	74 29		 je	 SHORT $LN3@FindSubGra

; 1640 : 
; 1641 : 	POSITION pos = m_GraphList.GetHeadPosition();

  00019	8b 73 7c	 mov	 esi, DWORD PTR [ebx+124]

; 1642 : 	while(pos != NULL){

  0001c	85 f6		 test	 esi, esi
  0001e	74 22		 je	 SHORT $LN3@FindSubGra
  00020	8b 7d 0c	 mov	 edi, DWORD PTR _selectedSubGraphDeque$[ebp]
$LL2@FindSubGra:
; File C:\Program Files (x86)\Microsoft Visual Studio\2019\Community\VC\Tools\MSVC\14.29.30133\atlmfc\include\afxtempl.h

; 1898 : 		{ return (TYPE)BASE_CLASS::GetNext(rPosition); }

  00023	8b 5e 08	 mov	 ebx, DWORD PTR [esi+8]
; File D:\git\src\IBK\IBK_DRFN\ProjSrc\SrcChartEx\ChartOCX\ChartObject\VertScaleGroup.cpp

; 1645 : 		if(pGraph->GetSubGraphList().FindSubGraph(point, selectedSubGraphDeque))

  00026	8b cb		 mov	 ecx, ebx
; File C:\Program Files (x86)\Microsoft Visual Studio\2019\Community\VC\Tools\MSVC\14.29.30133\atlmfc\include\afxcoll.inl

; 439  : 		rPosition = (POSITION) pNode->pNext;

  00028	8b 36		 mov	 esi, DWORD PTR [esi]
; File D:\git\src\IBK\IBK_DRFN\ProjSrc\SrcChartEx\ChartOCX\ChartObject\VertScaleGroup.cpp

; 1645 : 		if(pGraph->GetSubGraphList().FindSubGraph(point, selectedSubGraphDeque))

  0002a	57		 push	 edi
  0002b	ff 75 08	 push	 DWORD PTR _point$[ebp]
  0002e	e8 00 00 00 00	 call	 ?GetSubGraphList@CGraphImp@@QAEAAVCSubGraphList@@XZ ; CGraphImp::GetSubGraphList
  00033	8b c8		 mov	 ecx, eax
  00035	e8 00 00 00 00	 call	 ?FindSubGraph@CSubGraphList@@QBE_NABVCPoint@@AAVCSelectedSubGraphDeque@@@Z ; CSubGraphList::FindSubGraph
  0003a	84 c0		 test	 al, al
  0003c	75 0f		 jne	 SHORT $LN17@FindSubGra

; 1642 : 	while(pos != NULL){

  0003e	85 f6		 test	 esi, esi
  00040	75 e1		 jne	 SHORT $LL2@FindSubGra
$LN3@FindSubGra:
  00042	5f		 pop	 edi

; 1655 :  			}
; 1656 :  			return true;
; 1657 : 		}
; 1658 : 	}
; 1659 : 	return false;
; 1660 : }

  00043	5e		 pop	 esi
  00044	32 c0		 xor	 al, al
  00046	5b		 pop	 ebx
  00047	8b e5		 mov	 esp, ebp
  00049	5d		 pop	 ebp
  0004a	c2 08 00	 ret	 8
$LN17@FindSubGra:

; 1646 : 		{
; 1647 :  			// /   RQ :  - ojtaso (20070106)
; 1648 :  			if(GetKeyState(VK_LBUTTON) < 0)

  0004d	6a 01		 push	 1
  0004f	ff 15 00 00 00
	00		 call	 DWORD PTR __imp__GetKeyState@4
  00055	66 85 c0	 test	 ax, ax
  00058	79 31		 jns	 SHORT $LN6@FindSubGra

; 1649 :  			{
; 1650 :  				IChartCtrl* pChartCtrl = m_pMainBlockBaseData->GetMainAttributes().GetIChartCtrl();

  0005a	8b 4d fc	 mov	 ecx, DWORD PTR _this$1$[ebp]
  0005d	8b 49 08	 mov	 ecx, DWORD PTR [ecx+8]
  00060	e8 00 00 00 00	 call	 ?GetMainAttributes@CMainBlockBaseData@@QAEAAVCMainAttributes@@XZ ; CMainBlockBaseData::GetMainAttributes
  00065	8b c8		 mov	 ecx, eax
  00067	e8 00 00 00 00	 call	 ?GetIChartCtrl@CMainAttributes@@QBEPAUIChartCtrl@@XZ ; CMainAttributes::GetIChartCtrl

; 1651 :  				pChartCtrl->SelectedGraph(pGraph->GetGraphRQ());

  0006c	8b 13		 mov	 edx, DWORD PTR [ebx]
  0006e	8b f0		 mov	 esi, eax
  00070	6a 01		 push	 1
  00072	8b cb		 mov	 ecx, ebx
  00074	8b 3e		 mov	 edi, DWORD PTR [esi]
  00076	ff 52 1c	 call	 DWORD PTR [edx+28]
  00079	50		 push	 eax
  0007a	8b ce		 mov	 ecx, esi
  0007c	ff 97 fc 06 00
	00		 call	 DWORD PTR [edi+1788]

; 1652 : 
; 1653 : 				// Y Scale    - ojtaso (20070807)
; 1654 : 				const_cast<CGraphImp*>(m_lpSelectedGraph) = pGraph;

  00082	8b 45 fc	 mov	 eax, DWORD PTR _this$1$[ebp]
  00085	89 98 94 00 00
	00		 mov	 DWORD PTR [eax+148], ebx
$LN6@FindSubGra:

; 1655 :  			}
; 1656 :  			return true;
; 1657 : 		}
; 1658 : 	}
; 1659 : 	return false;
; 1660 : }

  0008b	5f		 pop	 edi
  0008c	5e		 pop	 esi
  0008d	b0 01		 mov	 al, 1
  0008f	5b		 pop	 ebx
  00090	8b e5		 mov	 esp, ebp
  00092	5d		 pop	 ebp
  00093	c2 08 00	 ret	 8
?FindSubGraph@CVertScaleGroup@@QBE_NABVCPoint@@AAVCSelectedSubGraphDeque@@@Z ENDP ; CVertScaleGroup::FindSubGraph
_TEXT	ENDS
; Function compile flags: /Ogtp
; File D:\git\src\IBK\IBK_DRFN\ProjSrc\SrcChartEx\ChartOCX\ChartObject\VertScaleGroup.cpp
; File C:\Program Files (x86)\Microsoft Visual Studio\2019\Community\VC\Tools\MSVC\14.29.30133\atlmfc\include\afxtempl.h
; File D:\git\src\IBK\IBK_DRFN\ProjSrc\SrcChartEx\ChartOCX\ChartObject\VertScaleGroup.cpp
; File C:\Program Files (x86)\Microsoft Visual Studio\2019\Community\VC\Tools\MSVC\14.29.30133\atlmfc\include\afxcoll.inl
; File D:\git\src\IBK\IBK_DRFN\ProjSrc\SrcChartEx\ChartOCX\ChartObject\VertScaleGroup.cpp
;	COMDAT ?FindSubGraphTitle@CVertScaleGroup@@QBEPAVCSubGraph@@PAVCDC@@ABVCRect@@ABVCPoint@@AAV4@AAH4@Z
_TEXT	SEGMENT
_this$1$ = -4						; size = 4
_pDC$ = 8						; size = 4
_allTitleRegion$ = 12					; size = 4
_point$ = 16						; size = 4
_titleRegion$ = 20					; size = 4
_preTitleEndPosition$ = 24				; size = 4
_nPreLineCount$ = 28					; size = 4
?FindSubGraphTitle@CVertScaleGroup@@QBEPAVCSubGraph@@PAVCDC@@ABVCRect@@ABVCPoint@@AAV4@AAH4@Z PROC ; CVertScaleGroup::FindSubGraphTitle, COMDAT
; _this$ = ecx

; 1607 : {

  00000	55		 push	 ebp
  00001	8b ec		 mov	 ebp, esp
  00003	51		 push	 ecx
  00004	8b c1		 mov	 eax, ecx
  00006	53		 push	 ebx
  00007	56		 push	 esi
  00008	57		 push	 edi

; 1608 : 	POSITION pos = m_GraphList.GetHeadPosition();

  00009	8b 70 7c	 mov	 esi, DWORD PTR [eax+124]
  0000c	89 45 fc	 mov	 DWORD PTR _this$1$[ebp], eax

; 1609 : 
; 1610 : 	while(pos != NULL){

  0000f	85 f6		 test	 esi, esi
  00011	74 2f		 je	 SHORT $LN3@FindSubGra
$LL2@FindSubGra:

; 1614 : 		CSubGraph* pSubGraph = pGraph->GetSubGraphList().FindSubGraphTitle(pDC, allTitleRegion, point, titleRegion, preTitleEndPosition, nPreLineCount);

  00013	ff 75 1c	 push	 DWORD PTR _nPreLineCount$[ebp]
; File C:\Program Files (x86)\Microsoft Visual Studio\2019\Community\VC\Tools\MSVC\14.29.30133\atlmfc\include\afxtempl.h

; 1898 : 		{ return (TYPE)BASE_CLASS::GetNext(rPosition); }

  00016	8b 5e 08	 mov	 ebx, DWORD PTR [esi+8]
; File D:\git\src\IBK\IBK_DRFN\ProjSrc\SrcChartEx\ChartOCX\ChartObject\VertScaleGroup.cpp

; 1614 : 		CSubGraph* pSubGraph = pGraph->GetSubGraphList().FindSubGraphTitle(pDC, allTitleRegion, point, titleRegion, preTitleEndPosition, nPreLineCount);

  00019	8b cb		 mov	 ecx, ebx
  0001b	ff 75 18	 push	 DWORD PTR _preTitleEndPosition$[ebp]
; File C:\Program Files (x86)\Microsoft Visual Studio\2019\Community\VC\Tools\MSVC\14.29.30133\atlmfc\include\afxcoll.inl

; 439  : 		rPosition = (POSITION) pNode->pNext;

  0001e	8b 36		 mov	 esi, DWORD PTR [esi]
; File D:\git\src\IBK\IBK_DRFN\ProjSrc\SrcChartEx\ChartOCX\ChartObject\VertScaleGroup.cpp

; 1614 : 		CSubGraph* pSubGraph = pGraph->GetSubGraphList().FindSubGraphTitle(pDC, allTitleRegion, point, titleRegion, preTitleEndPosition, nPreLineCount);

  00020	ff 75 14	 push	 DWORD PTR _titleRegion$[ebp]
  00023	ff 75 10	 push	 DWORD PTR _point$[ebp]
  00026	ff 75 0c	 push	 DWORD PTR _allTitleRegion$[ebp]
  00029	ff 75 08	 push	 DWORD PTR _pDC$[ebp]
  0002c	e8 00 00 00 00	 call	 ?GetSubGraphList@CGraphImp@@QAEAAVCSubGraphList@@XZ ; CGraphImp::GetSubGraphList
  00031	8b c8		 mov	 ecx, eax
  00033	e8 00 00 00 00	 call	 ?FindSubGraphTitle@CSubGraphList@@QBEPAVCSubGraph@@PAVCDC@@ABVCRect@@ABVCPoint@@AAV4@AAH4@Z ; CSubGraphList::FindSubGraphTitle
  00038	8b f8		 mov	 edi, eax

; 1615 : 		if(pSubGraph != NULL)

  0003a	85 ff		 test	 edi, edi
  0003c	75 0f		 jne	 SHORT $LN16@FindSubGra

; 1609 : 
; 1610 : 	while(pos != NULL){

  0003e	85 f6		 test	 esi, esi
  00040	75 d1		 jne	 SHORT $LL2@FindSubGra
$LN3@FindSubGra:
  00042	5f		 pop	 edi

; 1629 :    		}
; 1630 : 	}
; 1631 : 
; 1632 : 	return NULL;
; 1633 : }

  00043	5e		 pop	 esi
  00044	33 c0		 xor	 eax, eax
  00046	5b		 pop	 ebx
  00047	8b e5		 mov	 esp, ebp
  00049	5d		 pop	 ebp
  0004a	c2 18 00	 ret	 24			; 00000018H
$LN16@FindSubGra:

; 1616 :  		{
; 1617 : 			// /   RQ :  - ojtaso (20070106)
; 1618 : 			if(GetKeyState(VK_LBUTTON) < 0)

  0004d	6a 01		 push	 1
  0004f	ff 15 00 00 00
	00		 call	 DWORD PTR __imp__GetKeyState@4
  00055	66 85 c0	 test	 ax, ax
  00058	79 31		 jns	 SHORT $LN5@FindSubGra

; 1619 : 			{
; 1620 : 				IChartCtrl* pChartCtrl = m_pMainBlockBaseData->GetMainAttributes().GetIChartCtrl();

  0005a	8b 4d fc	 mov	 ecx, DWORD PTR _this$1$[ebp]
  0005d	8b 49 08	 mov	 ecx, DWORD PTR [ecx+8]
  00060	e8 00 00 00 00	 call	 ?GetMainAttributes@CMainBlockBaseData@@QAEAAVCMainAttributes@@XZ ; CMainBlockBaseData::GetMainAttributes
  00065	8b c8		 mov	 ecx, eax
  00067	e8 00 00 00 00	 call	 ?GetIChartCtrl@CMainAttributes@@QBEPAUIChartCtrl@@XZ ; CMainAttributes::GetIChartCtrl

; 1621 : 
; 1622 : 				LPCTSTR lpszRQ = pGraph->GetGraphRQ();

  0006c	8b 13		 mov	 edx, DWORD PTR [ebx]
  0006e	8b cb		 mov	 ecx, ebx
  00070	8b f0		 mov	 esi, eax
  00072	ff 52 1c	 call	 DWORD PTR [edx+28]

; 1623 : 				pChartCtrl->SelectedGraph(lpszRQ);

  00075	8b 16		 mov	 edx, DWORD PTR [esi]
  00077	8b ce		 mov	 ecx, esi
  00079	6a 01		 push	 1
  0007b	50		 push	 eax
  0007c	ff 92 fc 06 00
	00		 call	 DWORD PTR [edx+1788]

; 1624 : 				
; 1625 : 				// Y Scale    - ojtaso (20070807)
; 1626 : 				const_cast<CGraphImp*>(m_lpSelectedGraph) = pGraph;

  00082	8b 45 fc	 mov	 eax, DWORD PTR _this$1$[ebp]
  00085	89 98 94 00 00
	00		 mov	 DWORD PTR [eax+148], ebx
$LN5@FindSubGra:

; 1627 : 			}
; 1628 :    			return pSubGraph;

  0008b	8b c7		 mov	 eax, edi
  0008d	5f		 pop	 edi

; 1629 :    		}
; 1630 : 	}
; 1631 : 
; 1632 : 	return NULL;
; 1633 : }

  0008e	5e		 pop	 esi
  0008f	5b		 pop	 ebx
  00090	8b e5		 mov	 esp, ebp
  00092	5d		 pop	 ebp
  00093	c2 18 00	 ret	 24			; 00000018H
?FindSubGraphTitle@CVertScaleGroup@@QBEPAVCSubGraph@@PAVCDC@@ABVCRect@@ABVCPoint@@AAV4@AAH4@Z ENDP ; CVertScaleGroup::FindSubGraphTitle
_TEXT	ENDS
; Function compile flags: /Ogtp
; File D:\git\src\IBK\IBK_DRFN\ProjSrc\SrcChartEx\ChartOCX\ChartObject\VertScaleGroup.cpp
; File C:\Program Files (x86)\Microsoft Visual Studio\2019\Community\VC\Tools\MSVC\14.29.30133\atlmfc\include\afxtempl.h
; File D:\git\src\IBK\IBK_DRFN\ProjSrc\SrcChartEx\ChartOCX\ChartObject\VertScaleGroup.cpp
; File C:\Program Files (x86)\Microsoft Visual Studio\2019\Community\VC\Tools\MSVC\14.29.30133\atlmfc\include\afxcoll.inl
; File D:\git\src\IBK\IBK_DRFN\ProjSrc\SrcChartEx\ChartOCX\ChartObject\VertScaleGroup.cpp
; File C:\Program Files (x86)\Microsoft Visual Studio\2019\Community\VC\Tools\MSVC\14.29.30133\atlmfc\include\cstringt.h
; File D:\git\src\IBK\IBK_DRFN\ProjSrc\SrcChartEx\ChartOCX\ChartObject\VertScaleGroup.cpp
; File C:\Program Files (x86)\Microsoft Visual Studio\2019\Community\VC\Tools\MSVC\14.29.30133\atlmfc\include\cstringt.h
; File D:\git\src\IBK\IBK_DRFN\ProjSrc\SrcChartEx\ChartOCX\ChartObject\VertScaleGroup.cpp
; File C:\Program Files (x86)\Microsoft Visual Studio\2019\Community\VC\Tools\MSVC\14.29.30133\atlmfc\include\cstringt.h
; File D:\git\src\IBK\IBK_DRFN\ProjSrc\SrcChartEx\ChartOCX\ChartObject\VertScaleGroup.cpp
;	COMDAT ?FindIndicator@CVertScaleGroup@@QBEPAVCGraphImp@@PBDABV?$CStringT@DV?$StrTraitMFC_DLL@DV?$ChTraitsCRT@D@ATL@@@@@ATL@@@Z
_TEXT	SEGMENT
$T2 = -24						; size = 4
$T3 = -20						; size = 4
$T4 = -13						; size = 1
__$EHRec$ = -12						; size = 12
_lpszRQ$ = 8						; size = 4
_strIndicatorName$ = 12					; size = 4
?FindIndicator@CVertScaleGroup@@QBEPAVCGraphImp@@PBDABV?$CStringT@DV?$StrTraitMFC_DLL@DV?$ChTraitsCRT@D@ATL@@@@@ATL@@@Z PROC ; CVertScaleGroup::FindIndicator, COMDAT
; _this$ = ecx

; 1591 : {

  00000	55		 push	 ebp
  00001	8b ec		 mov	 ebp, esp
  00003	6a ff		 push	 -1
  00005	68 00 00 00 00	 push	 __ehhandler$?FindIndicator@CVertScaleGroup@@QBEPAVCGraphImp@@PBDABV?$CStringT@DV?$StrTraitMFC_DLL@DV?$ChTraitsCRT@D@ATL@@@@@ATL@@@Z
  0000a	64 a1 00 00 00
	00		 mov	 eax, DWORD PTR fs:0
  00010	50		 push	 eax
  00011	83 ec 0c	 sub	 esp, 12			; 0000000cH
  00014	53		 push	 ebx
  00015	56		 push	 esi
  00016	57		 push	 edi
  00017	a1 00 00 00 00	 mov	 eax, DWORD PTR ___security_cookie
  0001c	33 c5		 xor	 eax, ebp
  0001e	50		 push	 eax
  0001f	8d 45 f4	 lea	 eax, DWORD PTR __$EHRec$[ebp]
  00022	64 a3 00 00 00
	00		 mov	 DWORD PTR fs:0, eax
  00028	33 db		 xor	 ebx, ebx
  0002a	89 5d ec	 mov	 DWORD PTR $T3[ebp], ebx

; 1592 : 	POSITION pos = m_GraphList.GetHeadPosition();

  0002d	8b 71 7c	 mov	 esi, DWORD PTR [ecx+124]

; 1593 : 
; 1594 : 	while(pos != NULL){

  00030	85 f6		 test	 esi, esi
  00032	74 75		 je	 SHORT $LN3@FindIndica
$LL2@FindIndica:
; File C:\Program Files (x86)\Microsoft Visual Studio\2019\Community\VC\Tools\MSVC\14.29.30133\atlmfc\include\afxtempl.h

; 1898 : 		{ return (TYPE)BASE_CLASS::GetNext(rPosition); }

  00034	8b 7e 08	 mov	 edi, DWORD PTR [esi+8]
; File D:\git\src\IBK\IBK_DRFN\ProjSrc\SrcChartEx\ChartOCX\ChartObject\VertScaleGroup.cpp

; 1597 : 		if(!::lstrcmp(lpszRQ, pGraph->GetGraphRQ()) && 

  00037	8b cf		 mov	 ecx, edi
; File C:\Program Files (x86)\Microsoft Visual Studio\2019\Community\VC\Tools\MSVC\14.29.30133\atlmfc\include\afxcoll.inl

; 439  : 		rPosition = (POSITION) pNode->pNext;

  00039	8b 36		 mov	 esi, DWORD PTR [esi]
; File D:\git\src\IBK\IBK_DRFN\ProjSrc\SrcChartEx\ChartOCX\ChartObject\VertScaleGroup.cpp

; 1597 : 		if(!::lstrcmp(lpszRQ, pGraph->GetGraphRQ()) && 

  0003b	8b 07		 mov	 eax, DWORD PTR [edi]
  0003d	ff 50 1c	 call	 DWORD PTR [eax+28]
  00040	50		 push	 eax
  00041	ff 75 08	 push	 DWORD PTR _lpszRQ$[ebp]
  00044	ff 15 00 00 00
	00		 call	 DWORD PTR __imp__lstrcmpA@8
  0004a	85 c0		 test	 eax, eax
  0004c	75 35		 jne	 SHORT $LN6@FindIndica
  0004e	8d 45 e8	 lea	 eax, DWORD PTR $T2[ebp]
  00051	8b cf		 mov	 ecx, edi
  00053	50		 push	 eax
  00054	e8 00 00 00 00	 call	 ?GetGraphData@CGraphImp@@QAEAAVCGraphData@@XZ ; CGraphImp::GetGraphData
  00059	8b c8		 mov	 ecx, eax
  0005b	ff 15 00 00 00
	00		 call	 DWORD PTR __imp_?GetIndicatorName@CGraphData@@QBE?AV?$CStringT@DV?$StrTraitMFC_DLL@DV?$ChTraitsCRT@D@ATL@@@@@ATL@@XZ
; File C:\Program Files (x86)\Microsoft Visual Studio\2019\Community\VC\Tools\MSVC\14.29.30133\atlmfc\include\cstringt.h

; 2479 : 		return(str1.Compare(str2) == 0);

  00061	8b 4d 0c	 mov	 ecx, DWORD PTR _strIndicatorName$[ebp]
; File D:\git\src\IBK\IBK_DRFN\ProjSrc\SrcChartEx\ChartOCX\ChartObject\VertScaleGroup.cpp

; 1597 : 		if(!::lstrcmp(lpszRQ, pGraph->GetGraphRQ()) && 

  00064	83 cb 01	 or	 ebx, 1
  00067	c7 45 fc 00 00
	00 00		 mov	 DWORD PTR __$EHRec$[ebp+8], 0
  0006e	89 5d ec	 mov	 DWORD PTR $T3[ebp], ebx
; File C:\Program Files (x86)\Microsoft Visual Studio\2019\Community\VC\Tools\MSVC\14.29.30133\atlmfc\include\cstringt.h

; 2479 : 		return(str1.Compare(str2) == 0);

  00071	ff 31		 push	 DWORD PTR [ecx]
  00073	8b c8		 mov	 ecx, eax
  00075	ff 15 00 00 00
	00		 call	 DWORD PTR __imp_?Compare@?$CStringT@DV?$StrTraitMFC_DLL@DV?$ChTraitsCRT@D@ATL@@@@@ATL@@QBEHPBD@Z
; File D:\git\src\IBK\IBK_DRFN\ProjSrc\SrcChartEx\ChartOCX\ChartObject\VertScaleGroup.cpp

; 1597 : 		if(!::lstrcmp(lpszRQ, pGraph->GetGraphRQ()) && 

  0007b	c6 45 f3 01	 mov	 BYTE PTR $T4[ebp], 1
; File C:\Program Files (x86)\Microsoft Visual Studio\2019\Community\VC\Tools\MSVC\14.29.30133\atlmfc\include\cstringt.h

; 2479 : 		return(str1.Compare(str2) == 0);

  0007f	85 c0		 test	 eax, eax
; File D:\git\src\IBK\IBK_DRFN\ProjSrc\SrcChartEx\ChartOCX\ChartObject\VertScaleGroup.cpp

; 1597 : 		if(!::lstrcmp(lpszRQ, pGraph->GetGraphRQ()) && 

  00081	74 04		 je	 SHORT $LN7@FindIndica
$LN6@FindIndica:
  00083	c6 45 f3 00	 mov	 BYTE PTR $T4[ebp], 0
$LN7@FindIndica:
  00087	c7 45 fc ff ff
	ff ff		 mov	 DWORD PTR __$EHRec$[ebp+8], -1
  0008e	f6 c3 01	 test	 bl, 1
  00091	74 0c		 je	 SHORT $LN10@FindIndica
  00093	8d 4d e8	 lea	 ecx, DWORD PTR $T2[ebp]
  00096	83 e3 fe	 and	 ebx, -2			; fffffffeH
  00099	ff 15 00 00 00
	00		 call	 DWORD PTR __imp_??1?$CStringT@DV?$StrTraitMFC_DLL@DV?$ChTraitsCRT@D@ATL@@@@@ATL@@QAE@XZ
$LN10@FindIndica:
  0009f	80 7d f3 00	 cmp	 BYTE PTR $T4[ebp], 0
  000a3	75 1a		 jne	 SHORT $LN24@FindIndica

; 1593 : 
; 1594 : 	while(pos != NULL){

  000a5	85 f6		 test	 esi, esi
  000a7	75 8b		 jne	 SHORT $LL2@FindIndica
$LN3@FindIndica:

; 1600 : 	}
; 1601 : 	return NULL;

  000a9	33 c0		 xor	 eax, eax

; 1602 : }

  000ab	8b 4d f4	 mov	 ecx, DWORD PTR __$EHRec$[ebp]
  000ae	64 89 0d 00 00
	00 00		 mov	 DWORD PTR fs:0, ecx
  000b5	59		 pop	 ecx
  000b6	5f		 pop	 edi
  000b7	5e		 pop	 esi
  000b8	5b		 pop	 ebx
  000b9	8b e5		 mov	 esp, ebp
  000bb	5d		 pop	 ebp
  000bc	c2 08 00	 ret	 8
$LN24@FindIndica:

; 1598 : 			pGraph->GetGraphData().GetIndicatorName() == strIndicatorName)
; 1599 : 			return pGraph;

  000bf	8b c7		 mov	 eax, edi

; 1602 : }

  000c1	8b 4d f4	 mov	 ecx, DWORD PTR __$EHRec$[ebp]
  000c4	64 89 0d 00 00
	00 00		 mov	 DWORD PTR fs:0, ecx
  000cb	59		 pop	 ecx
  000cc	5f		 pop	 edi
  000cd	5e		 pop	 esi
  000ce	5b		 pop	 ebx
  000cf	8b e5		 mov	 esp, ebp
  000d1	5d		 pop	 ebp
  000d2	c2 08 00	 ret	 8
_TEXT	ENDS
;	COMDAT text$x
text$x	SEGMENT
__unwindfunclet$?FindIndicator@CVertScaleGroup@@QBEPAVCGraphImp@@PBDABV?$CStringT@DV?$StrTraitMFC_DLL@DV?$ChTraitsCRT@D@ATL@@@@@ATL@@@Z$0:
  00000	8b 45 ec	 mov	 eax, DWORD PTR $T3[ebp]
  00003	83 e0 01	 and	 eax, 1
  00006	0f 84 0d 00 00
	00		 je	 $LN9@FindIndica
  0000c	83 65 ec fe	 and	 DWORD PTR $T3[ebp], -2	; fffffffeH
  00010	8d 4d e8	 lea	 ecx, DWORD PTR $T2[ebp]
  00013	ff 25 00 00 00
	00		 jmp	 DWORD PTR __imp_??1?$CStringT@DV?$StrTraitMFC_DLL@DV?$ChTraitsCRT@D@ATL@@@@@ATL@@QAE@XZ
$LN9@FindIndica:
  00019	c3		 ret	 0
  0001a	cc		 int	 3
  0001b	cc		 int	 3
  0001c	cc		 int	 3
  0001d	cc		 int	 3
  0001e	cc		 int	 3
__ehhandler$?FindIndicator@CVertScaleGroup@@QBEPAVCGraphImp@@PBDABV?$CStringT@DV?$StrTraitMFC_DLL@DV?$ChTraitsCRT@D@ATL@@@@@ATL@@@Z:
  0001f	90		 npad	 1
  00020	90		 npad	 1
  00021	8b 54 24 08	 mov	 edx, DWORD PTR [esp+8]
  00025	8d 42 0c	 lea	 eax, DWORD PTR [edx+12]
  00028	8b 4a e4	 mov	 ecx, DWORD PTR [edx-28]
  0002b	33 c8		 xor	 ecx, eax
  0002d	e8 00 00 00 00	 call	 @__security_check_cookie@4
  00032	b8 00 00 00 00	 mov	 eax, OFFSET __ehfuncinfo$?FindIndicator@CVertScaleGroup@@QBEPAVCGraphImp@@PBDABV?$CStringT@DV?$StrTraitMFC_DLL@DV?$ChTraitsCRT@D@ATL@@@@@ATL@@@Z
  00037	e9 00 00 00 00	 jmp	 ___CxxFrameHandler3
text$x	ENDS
?FindIndicator@CVertScaleGroup@@QBEPAVCGraphImp@@PBDABV?$CStringT@DV?$StrTraitMFC_DLL@DV?$ChTraitsCRT@D@ATL@@@@@ATL@@@Z ENDP ; CVertScaleGroup::FindIndicator
; Function compile flags: /Ogtp
; File D:\git\src\IBK\IBK_DRFN\ProjSrc\SrcChartEx\ChartOCX\ChartObject\VertScaleGroup.cpp
; File C:\Program Files (x86)\Microsoft Visual Studio\2019\Community\VC\Tools\MSVC\14.29.30133\atlmfc\include\afxtempl.h
; File D:\git\src\IBK\IBK_DRFN\ProjSrc\SrcChartEx\ChartOCX\ChartObject\VertScaleGroup.cpp
; File C:\Program Files (x86)\Microsoft Visual Studio\2019\Community\VC\Tools\MSVC\14.29.30133\atlmfc\include\afxcoll.inl
; File D:\git\src\IBK\IBK_DRFN\ProjSrc\SrcChartEx\ChartOCX\ChartObject\VertScaleGroup.cpp
; File C:\Program Files (x86)\Microsoft Visual Studio\2019\Community\VC\Tools\MSVC\14.29.30133\atlmfc\include\cstringt.h
; File D:\git\src\IBK\IBK_DRFN\ProjSrc\SrcChartEx\ChartOCX\ChartObject\VertScaleGroup.cpp
; File C:\Program Files (x86)\Microsoft Visual Studio\2019\Community\VC\Tools\MSVC\14.29.30133\atlmfc\include\cstringt.h
; File D:\git\src\IBK\IBK_DRFN\ProjSrc\SrcChartEx\ChartOCX\ChartObject\VertScaleGroup.cpp
; File C:\Program Files (x86)\Microsoft Visual Studio\2019\Community\VC\Tools\MSVC\14.29.30133\atlmfc\include\cstringt.h
; File D:\git\src\IBK\IBK_DRFN\ProjSrc\SrcChartEx\ChartOCX\ChartObject\VertScaleGroup.cpp
;	COMDAT ?FindIndicator@CVertScaleGroup@@QBEPAVCGraphImp@@ABV?$CStringT@DV?$StrTraitMFC_DLL@DV?$ChTraitsCRT@D@ATL@@@@@ATL@@@Z
_TEXT	SEGMENT
$T2 = -16						; size = 4
__$EHRec$ = -12						; size = 12
_strIndicatorName$ = 8					; size = 4
?FindIndicator@CVertScaleGroup@@QBEPAVCGraphImp@@ABV?$CStringT@DV?$StrTraitMFC_DLL@DV?$ChTraitsCRT@D@ATL@@@@@ATL@@@Z PROC ; CVertScaleGroup::FindIndicator, COMDAT
; _this$ = ecx

; 1577 : {

  00000	55		 push	 ebp
  00001	8b ec		 mov	 ebp, esp
  00003	6a ff		 push	 -1
  00005	68 00 00 00 00	 push	 __ehhandler$?FindIndicator@CVertScaleGroup@@QBEPAVCGraphImp@@ABV?$CStringT@DV?$StrTraitMFC_DLL@DV?$ChTraitsCRT@D@ATL@@@@@ATL@@@Z
  0000a	64 a1 00 00 00
	00		 mov	 eax, DWORD PTR fs:0
  00010	50		 push	 eax
  00011	51		 push	 ecx
  00012	53		 push	 ebx
  00013	56		 push	 esi
  00014	57		 push	 edi
  00015	a1 00 00 00 00	 mov	 eax, DWORD PTR ___security_cookie
  0001a	33 c5		 xor	 eax, ebp
  0001c	50		 push	 eax
  0001d	8d 45 f4	 lea	 eax, DWORD PTR __$EHRec$[ebp]
  00020	64 a3 00 00 00
	00		 mov	 DWORD PTR fs:0, eax

; 1578 : 	POSITION pos = m_GraphList.GetHeadPosition();

  00026	8b 71 7c	 mov	 esi, DWORD PTR [ecx+124]

; 1579 : 
; 1580 : 	while(pos != NULL){

  00029	85 f6		 test	 esi, esi
  0002b	74 49		 je	 SHORT $LN3@FindIndica
  0002d	0f 1f 00	 npad	 3
$LL2@FindIndica:
; File C:\Program Files (x86)\Microsoft Visual Studio\2019\Community\VC\Tools\MSVC\14.29.30133\atlmfc\include\afxtempl.h

; 1898 : 		{ return (TYPE)BASE_CLASS::GetNext(rPosition); }

  00030	8b 5e 08	 mov	 ebx, DWORD PTR [esi+8]
; File D:\git\src\IBK\IBK_DRFN\ProjSrc\SrcChartEx\ChartOCX\ChartObject\VertScaleGroup.cpp

; 1583 : 		if(pGraph->GetGraphData().GetIndicatorName() == strIndicatorName)

  00033	8d 45 f0	 lea	 eax, DWORD PTR $T2[ebp]
; File C:\Program Files (x86)\Microsoft Visual Studio\2019\Community\VC\Tools\MSVC\14.29.30133\atlmfc\include\afxcoll.inl

; 439  : 		rPosition = (POSITION) pNode->pNext;

  00036	8b 36		 mov	 esi, DWORD PTR [esi]
; File D:\git\src\IBK\IBK_DRFN\ProjSrc\SrcChartEx\ChartOCX\ChartObject\VertScaleGroup.cpp

; 1583 : 		if(pGraph->GetGraphData().GetIndicatorName() == strIndicatorName)

  00038	8b cb		 mov	 ecx, ebx
  0003a	50		 push	 eax
  0003b	e8 00 00 00 00	 call	 ?GetGraphData@CGraphImp@@QAEAAVCGraphData@@XZ ; CGraphImp::GetGraphData
  00040	8b c8		 mov	 ecx, eax
  00042	ff 15 00 00 00
	00		 call	 DWORD PTR __imp_?GetIndicatorName@CGraphData@@QBE?AV?$CStringT@DV?$StrTraitMFC_DLL@DV?$ChTraitsCRT@D@ATL@@@@@ATL@@XZ
; File C:\Program Files (x86)\Microsoft Visual Studio\2019\Community\VC\Tools\MSVC\14.29.30133\atlmfc\include\cstringt.h

; 2479 : 		return(str1.Compare(str2) == 0);

  00048	8b 4d 08	 mov	 ecx, DWORD PTR _strIndicatorName$[ebp]
; File D:\git\src\IBK\IBK_DRFN\ProjSrc\SrcChartEx\ChartOCX\ChartObject\VertScaleGroup.cpp

; 1583 : 		if(pGraph->GetGraphData().GetIndicatorName() == strIndicatorName)

  0004b	c7 45 fc 00 00
	00 00		 mov	 DWORD PTR __$EHRec$[ebp+8], 0
; File C:\Program Files (x86)\Microsoft Visual Studio\2019\Community\VC\Tools\MSVC\14.29.30133\atlmfc\include\cstringt.h

; 2479 : 		return(str1.Compare(str2) == 0);

  00052	ff 31		 push	 DWORD PTR [ecx]
  00054	8b c8		 mov	 ecx, eax
  00056	ff 15 00 00 00
	00		 call	 DWORD PTR __imp_?Compare@?$CStringT@DV?$StrTraitMFC_DLL@DV?$ChTraitsCRT@D@ATL@@@@@ATL@@QBEHPBD@Z
; File D:\git\src\IBK\IBK_DRFN\ProjSrc\SrcChartEx\ChartOCX\ChartObject\VertScaleGroup.cpp

; 1583 : 		if(pGraph->GetGraphData().GetIndicatorName() == strIndicatorName)

  0005c	8d 4d f0	 lea	 ecx, DWORD PTR $T2[ebp]
  0005f	c7 45 fc ff ff
	ff ff		 mov	 DWORD PTR __$EHRec$[ebp+8], -1
; File C:\Program Files (x86)\Microsoft Visual Studio\2019\Community\VC\Tools\MSVC\14.29.30133\atlmfc\include\cstringt.h

; 2479 : 		return(str1.Compare(str2) == 0);

  00066	8b f8		 mov	 edi, eax
; File D:\git\src\IBK\IBK_DRFN\ProjSrc\SrcChartEx\ChartOCX\ChartObject\VertScaleGroup.cpp

; 1583 : 		if(pGraph->GetGraphData().GetIndicatorName() == strIndicatorName)

  00068	ff 15 00 00 00
	00		 call	 DWORD PTR __imp_??1?$CStringT@DV?$StrTraitMFC_DLL@DV?$ChTraitsCRT@D@ATL@@@@@ATL@@QAE@XZ
  0006e	85 ff		 test	 edi, edi
  00070	74 1a		 je	 SHORT $LN20@FindIndica

; 1579 : 
; 1580 : 	while(pos != NULL){

  00072	85 f6		 test	 esi, esi
  00074	75 ba		 jne	 SHORT $LL2@FindIndica
$LN3@FindIndica:

; 1585 : 	}
; 1586 : 	return NULL;

  00076	33 c0		 xor	 eax, eax

; 1587 : }

  00078	8b 4d f4	 mov	 ecx, DWORD PTR __$EHRec$[ebp]
  0007b	64 89 0d 00 00
	00 00		 mov	 DWORD PTR fs:0, ecx
  00082	59		 pop	 ecx
  00083	5f		 pop	 edi
  00084	5e		 pop	 esi
  00085	5b		 pop	 ebx
  00086	8b e5		 mov	 esp, ebp
  00088	5d		 pop	 ebp
  00089	c2 04 00	 ret	 4
$LN20@FindIndica:

; 1584 : 			return pGraph;

  0008c	8b c3		 mov	 eax, ebx

; 1587 : }

  0008e	8b 4d f4	 mov	 ecx, DWORD PTR __$EHRec$[ebp]
  00091	64 89 0d 00 00
	00 00		 mov	 DWORD PTR fs:0, ecx
  00098	59		 pop	 ecx
  00099	5f		 pop	 edi
  0009a	5e		 pop	 esi
  0009b	5b		 pop	 ebx
  0009c	8b e5		 mov	 esp, ebp
  0009e	5d		 pop	 ebp
  0009f	c2 04 00	 ret	 4
_TEXT	ENDS
;	COMDAT text$x
text$x	SEGMENT
__unwindfunclet$?FindIndicator@CVertScaleGroup@@QBEPAVCGraphImp@@ABV?$CStringT@DV?$StrTraitMFC_DLL@DV?$ChTraitsCRT@D@ATL@@@@@ATL@@@Z$0:
  00000	8d 4d f0	 lea	 ecx, DWORD PTR $T2[ebp]
  00003	ff 25 00 00 00
	00		 jmp	 DWORD PTR __imp_??1?$CStringT@DV?$StrTraitMFC_DLL@DV?$ChTraitsCRT@D@ATL@@@@@ATL@@QAE@XZ
  00009	cc		 int	 3
  0000a	cc		 int	 3
  0000b	cc		 int	 3
  0000c	cc		 int	 3
  0000d	cc		 int	 3
__ehhandler$?FindIndicator@CVertScaleGroup@@QBEPAVCGraphImp@@ABV?$CStringT@DV?$StrTraitMFC_DLL@DV?$ChTraitsCRT@D@ATL@@@@@ATL@@@Z:
  0000e	90		 npad	 1
  0000f	90		 npad	 1
  00010	8b 54 24 08	 mov	 edx, DWORD PTR [esp+8]
  00014	8d 42 0c	 lea	 eax, DWORD PTR [edx+12]
  00017	8b 4a ec	 mov	 ecx, DWORD PTR [edx-20]
  0001a	33 c8		 xor	 ecx, eax
  0001c	e8 00 00 00 00	 call	 @__security_check_cookie@4
  00021	b8 00 00 00 00	 mov	 eax, OFFSET __ehfuncinfo$?FindIndicator@CVertScaleGroup@@QBEPAVCGraphImp@@ABV?$CStringT@DV?$StrTraitMFC_DLL@DV?$ChTraitsCRT@D@ATL@@@@@ATL@@@Z
  00026	e9 00 00 00 00	 jmp	 ___CxxFrameHandler3
text$x	ENDS
?FindIndicator@CVertScaleGroup@@QBEPAVCGraphImp@@ABV?$CStringT@DV?$StrTraitMFC_DLL@DV?$ChTraitsCRT@D@ATL@@@@@ATL@@@Z ENDP ; CVertScaleGroup::FindIndicator
; Function compile flags: /Ogtp
; File D:\git\src\IBK\IBK_DRFN\ProjSrc\SrcChartEx\ChartOCX\ChartObject\VertScaleGroup.cpp
;	COMDAT ?FindGraph@CVertScaleGroup@@QBEPAVCGraphImp@@ABV?$CStringT@DV?$StrTraitMFC_DLL@DV?$ChTraitsCRT@D@ATL@@@@@ATL@@AAH@Z
_TEXT	SEGMENT
_pos$ = -4						; size = 4
_strTitleName$ = 8					; size = 4
_nSubGraphIndex$ = 12					; size = 4
?FindGraph@CVertScaleGroup@@QBEPAVCGraphImp@@ABV?$CStringT@DV?$StrTraitMFC_DLL@DV?$ChTraitsCRT@D@ATL@@@@@ATL@@AAH@Z PROC ; CVertScaleGroup::FindGraph, COMDAT
; _this$ = ecx

; 1560 : {

  00000	55		 push	 ebp
  00001	8b ec		 mov	 ebp, esp
  00003	51		 push	 ecx
  00004	53		 push	 ebx

; 1561 : 	POSITION pos = m_GraphList.GetHeadPosition();

  00005	8b 5d 08	 mov	 ebx, DWORD PTR _strTitleName$[ebp]
  00008	56		 push	 esi
  00009	57		 push	 edi
  0000a	8b f9		 mov	 edi, ecx
  0000c	8b 47 7c	 mov	 eax, DWORD PTR [edi+124]
  0000f	89 45 fc	 mov	 DWORD PTR _pos$[ebp], eax
$LL2@FindGraph:

; 1562 : 	while(pos != NULL){

  00012	85 c0		 test	 eax, eax
  00014	74 38		 je	 SHORT $LN3@FindGraph

; 1563 : 		CGraphImp* pGraph = m_GraphList.GetNext(pos);

  00016	8d 45 fc	 lea	 eax, DWORD PTR _pos$[ebp]
  00019	50		 push	 eax
  0001a	8d 4f 78	 lea	 ecx, DWORD PTR [edi+120]
  0001d	e8 00 00 00 00	 call	 ?GetNext@?$_CTypedPtrList@VCObList@@PAVCGraphImp@@@@QBEPAVCGraphImp@@AAPAU__POSITION@@@Z ; _CTypedPtrList<CObList,CGraphImp *>::GetNext
  00022	8b f0		 mov	 esi, eax

; 1564 : 		assert(pGraph != NULL);
; 1565 : 		int nIndex = pGraph->GetSubGraphList().GetSameTitleSubgraphIndex(strTitleName);

  00024	53		 push	 ebx
  00025	8b ce		 mov	 ecx, esi
  00027	e8 00 00 00 00	 call	 ?GetSubGraphList@CGraphImp@@QAEAAVCSubGraphList@@XZ ; CGraphImp::GetSubGraphList
  0002c	8b c8		 mov	 ecx, eax
  0002e	e8 00 00 00 00	 call	 ?GetSameTitleSubgraphIndex@CSubGraphList@@QBEHABV?$CStringT@DV?$StrTraitMFC_DLL@DV?$ChTraitsCRT@D@ATL@@@@@ATL@@@Z ; CSubGraphList::GetSameTitleSubgraphIndex
  00033	8b c8		 mov	 ecx, eax

; 1566 : 		if(nIndex < 0)

  00035	85 c9		 test	 ecx, ecx
  00037	79 05		 jns	 SHORT $LN13@FindGraph
  00039	8b 45 fc	 mov	 eax, DWORD PTR _pos$[ebp]
  0003c	eb d4		 jmp	 SHORT $LL2@FindGraph
$LN13@FindGraph:

; 1567 : 			continue;
; 1568 : 
; 1569 : 		nSubGraphIndex = nIndex;

  0003e	8b 45 0c	 mov	 eax, DWORD PTR _nSubGraphIndex$[ebp]
  00041	5f		 pop	 edi
  00042	89 08		 mov	 DWORD PTR [eax], ecx

; 1570 : 		return pGraph;

  00044	8b c6		 mov	 eax, esi

; 1571 : 	}
; 1572 : 
; 1573 : 	return NULL;
; 1574 : }

  00046	5e		 pop	 esi
  00047	5b		 pop	 ebx
  00048	8b e5		 mov	 esp, ebp
  0004a	5d		 pop	 ebp
  0004b	c2 08 00	 ret	 8
$LN3@FindGraph:
  0004e	5f		 pop	 edi
  0004f	5e		 pop	 esi
  00050	33 c0		 xor	 eax, eax
  00052	5b		 pop	 ebx
  00053	8b e5		 mov	 esp, ebp
  00055	5d		 pop	 ebp
  00056	c2 08 00	 ret	 8
?FindGraph@CVertScaleGroup@@QBEPAVCGraphImp@@ABV?$CStringT@DV?$StrTraitMFC_DLL@DV?$ChTraitsCRT@D@ATL@@@@@ATL@@AAH@Z ENDP ; CVertScaleGroup::FindGraph
_TEXT	ENDS
; Function compile flags: /Ogtp
; File D:\git\src\IBK\IBK_DRFN\ProjSrc\SrcChartEx\ChartOCX\ChartObject\VertScaleGroup.cpp
;	COMDAT ?GetGraph@CVertScaleGroup@@QBEPAVCGraphImp@@H@Z
_TEXT	SEGMENT
_nIndex$ = 8						; size = 4
?GetGraph@CVertScaleGroup@@QBEPAVCGraphImp@@H@Z PROC	; CVertScaleGroup::GetGraph, COMDAT
; _this$ = ecx

; 1551 : {

  00000	55		 push	 ebp
  00001	8b ec		 mov	 ebp, esp

; 1552 : 	POSITION pos = m_GraphList.FindIndex(nIndex);

  00003	ff 75 08	 push	 DWORD PTR _nIndex$[ebp]
  00006	83 c1 78	 add	 ecx, 120		; 00000078H
  00009	e8 00 00 00 00	 call	 ?FindIndex@CObList@@QBEPAU__POSITION@@H@Z ; CObList::FindIndex

; 1553 : 	if(pos == NULL)

  0000e	85 c0		 test	 eax, eax
  00010	75 04		 jne	 SHORT $LN2@GetGraph

; 1557 : }

  00012	5d		 pop	 ebp
  00013	c2 04 00	 ret	 4
$LN2@GetGraph:

; 1554 : 		return NULL;
; 1555 : 
; 1556 : 	return m_GraphList.GetAt(pos);

  00016	8b 40 08	 mov	 eax, DWORD PTR [eax+8]

; 1557 : }

  00019	5d		 pop	 ebp
  0001a	c2 04 00	 ret	 4
?GetGraph@CVertScaleGroup@@QBEPAVCGraphImp@@H@Z ENDP	; CVertScaleGroup::GetGraph
_TEXT	ENDS
; Function compile flags: /Ogtp
; File D:\git\src\IBK\IBK_DRFN\ProjSrc\SrcChartEx\ChartOCX\ChartObject\VertScaleGroup.cpp
; File C:\Program Files (x86)\Microsoft Visual Studio\2019\Community\VC\Tools\MSVC\14.29.30133\atlmfc\include\afxtempl.h
; File D:\git\src\IBK\IBK_DRFN\ProjSrc\SrcChartEx\ChartOCX\ChartObject\VertScaleGroup.cpp
; File C:\Program Files (x86)\Microsoft Visual Studio\2019\Community\VC\Tools\MSVC\14.29.30133\atlmfc\include\afxcoll.inl
; File D:\git\src\IBK\IBK_DRFN\ProjSrc\SrcChartEx\ChartOCX\ChartObject\VertScaleGroup.cpp
; File C:\Program Files (x86)\Microsoft Visual Studio\2019\Community\VC\Tools\MSVC\14.29.30133\atlmfc\include\cstringt.h
; File D:\git\src\IBK\IBK_DRFN\ProjSrc\SrcChartEx\ChartOCX\ChartObject\VertScaleGroup.cpp
; File C:\Program Files (x86)\Microsoft Visual Studio\2019\Community\VC\Tools\MSVC\14.29.30133\atlmfc\include\cstringt.h
; File D:\git\src\IBK\IBK_DRFN\ProjSrc\SrcChartEx\ChartOCX\ChartObject\VertScaleGroup.cpp
; File C:\Program Files (x86)\Microsoft Visual Studio\2019\Community\VC\Tools\MSVC\14.29.30133\atlmfc\include\cstringt.h
; File D:\git\src\IBK\IBK_DRFN\ProjSrc\SrcChartEx\ChartOCX\ChartObject\VertScaleGroup.cpp
;	COMDAT ?FindGraph@CVertScaleGroup@@QBEPAVCGraphImp@@PBDABV?$CStringT@DV?$StrTraitMFC_DLL@DV?$ChTraitsCRT@D@ATL@@@@@ATL@@@Z
_TEXT	SEGMENT
$T2 = -24						; size = 4
$T3 = -20						; size = 4
$T4 = -13						; size = 1
__$EHRec$ = -12						; size = 12
_lpszRQ$ = 8						; size = 4
_strGraphName$ = 12					; size = 4
?FindGraph@CVertScaleGroup@@QBEPAVCGraphImp@@PBDABV?$CStringT@DV?$StrTraitMFC_DLL@DV?$ChTraitsCRT@D@ATL@@@@@ATL@@@Z PROC ; CVertScaleGroup::FindGraph, COMDAT
; _this$ = ecx

; 1537 : {

  00000	55		 push	 ebp
  00001	8b ec		 mov	 ebp, esp
  00003	6a ff		 push	 -1
  00005	68 00 00 00 00	 push	 __ehhandler$?FindGraph@CVertScaleGroup@@QBEPAVCGraphImp@@PBDABV?$CStringT@DV?$StrTraitMFC_DLL@DV?$ChTraitsCRT@D@ATL@@@@@ATL@@@Z
  0000a	64 a1 00 00 00
	00		 mov	 eax, DWORD PTR fs:0
  00010	50		 push	 eax
  00011	83 ec 0c	 sub	 esp, 12			; 0000000cH
  00014	53		 push	 ebx
  00015	56		 push	 esi
  00016	57		 push	 edi
  00017	a1 00 00 00 00	 mov	 eax, DWORD PTR ___security_cookie
  0001c	33 c5		 xor	 eax, ebp
  0001e	50		 push	 eax
  0001f	8d 45 f4	 lea	 eax, DWORD PTR __$EHRec$[ebp]
  00022	64 a3 00 00 00
	00		 mov	 DWORD PTR fs:0, eax
  00028	33 db		 xor	 ebx, ebx
  0002a	89 5d ec	 mov	 DWORD PTR $T3[ebp], ebx

; 1538 : 	POSITION pos = m_GraphList.GetHeadPosition();

  0002d	8b 71 7c	 mov	 esi, DWORD PTR [ecx+124]

; 1539 : 
; 1540 : 	while(pos != NULL){

  00030	85 f6		 test	 esi, esi
  00032	74 75		 je	 SHORT $LN3@FindGraph
$LL2@FindGraph:
; File C:\Program Files (x86)\Microsoft Visual Studio\2019\Community\VC\Tools\MSVC\14.29.30133\atlmfc\include\afxtempl.h

; 1898 : 		{ return (TYPE)BASE_CLASS::GetNext(rPosition); }

  00034	8b 7e 08	 mov	 edi, DWORD PTR [esi+8]
; File D:\git\src\IBK\IBK_DRFN\ProjSrc\SrcChartEx\ChartOCX\ChartObject\VertScaleGroup.cpp

; 1543 : 		if(!::lstrcmp(lpszRQ, pGraph->GetGraphRQ()) && 

  00037	8b cf		 mov	 ecx, edi
; File C:\Program Files (x86)\Microsoft Visual Studio\2019\Community\VC\Tools\MSVC\14.29.30133\atlmfc\include\afxcoll.inl

; 439  : 		rPosition = (POSITION) pNode->pNext;

  00039	8b 36		 mov	 esi, DWORD PTR [esi]
; File D:\git\src\IBK\IBK_DRFN\ProjSrc\SrcChartEx\ChartOCX\ChartObject\VertScaleGroup.cpp

; 1543 : 		if(!::lstrcmp(lpszRQ, pGraph->GetGraphRQ()) && 

  0003b	8b 07		 mov	 eax, DWORD PTR [edi]
  0003d	ff 50 1c	 call	 DWORD PTR [eax+28]
  00040	50		 push	 eax
  00041	ff 75 08	 push	 DWORD PTR _lpszRQ$[ebp]
  00044	ff 15 00 00 00
	00		 call	 DWORD PTR __imp__lstrcmpA@8
  0004a	85 c0		 test	 eax, eax
  0004c	75 35		 jne	 SHORT $LN6@FindGraph
  0004e	8d 45 e8	 lea	 eax, DWORD PTR $T2[ebp]
  00051	8b cf		 mov	 ecx, edi
  00053	50		 push	 eax
  00054	e8 00 00 00 00	 call	 ?GetGraphData@CGraphImp@@QAEAAVCGraphData@@XZ ; CGraphImp::GetGraphData
  00059	8b c8		 mov	 ecx, eax
  0005b	ff 15 00 00 00
	00		 call	 DWORD PTR __imp_?GetGraphName@CGraphData@@QBE?AV?$CStringT@DV?$StrTraitMFC_DLL@DV?$ChTraitsCRT@D@ATL@@@@@ATL@@XZ
; File C:\Program Files (x86)\Microsoft Visual Studio\2019\Community\VC\Tools\MSVC\14.29.30133\atlmfc\include\cstringt.h

; 2479 : 		return(str1.Compare(str2) == 0);

  00061	8b 4d 0c	 mov	 ecx, DWORD PTR _strGraphName$[ebp]
; File D:\git\src\IBK\IBK_DRFN\ProjSrc\SrcChartEx\ChartOCX\ChartObject\VertScaleGroup.cpp

; 1543 : 		if(!::lstrcmp(lpszRQ, pGraph->GetGraphRQ()) && 

  00064	83 cb 01	 or	 ebx, 1
  00067	c7 45 fc 00 00
	00 00		 mov	 DWORD PTR __$EHRec$[ebp+8], 0
  0006e	89 5d ec	 mov	 DWORD PTR $T3[ebp], ebx
; File C:\Program Files (x86)\Microsoft Visual Studio\2019\Community\VC\Tools\MSVC\14.29.30133\atlmfc\include\cstringt.h

; 2479 : 		return(str1.Compare(str2) == 0);

  00071	ff 31		 push	 DWORD PTR [ecx]
  00073	8b c8		 mov	 ecx, eax
  00075	ff 15 00 00 00
	00		 call	 DWORD PTR __imp_?Compare@?$CStringT@DV?$StrTraitMFC_DLL@DV?$ChTraitsCRT@D@ATL@@@@@ATL@@QBEHPBD@Z
; File D:\git\src\IBK\IBK_DRFN\ProjSrc\SrcChartEx\ChartOCX\ChartObject\VertScaleGroup.cpp

; 1543 : 		if(!::lstrcmp(lpszRQ, pGraph->GetGraphRQ()) && 

  0007b	c6 45 f3 01	 mov	 BYTE PTR $T4[ebp], 1
; File C:\Program Files (x86)\Microsoft Visual Studio\2019\Community\VC\Tools\MSVC\14.29.30133\atlmfc\include\cstringt.h

; 2479 : 		return(str1.Compare(str2) == 0);

  0007f	85 c0		 test	 eax, eax
; File D:\git\src\IBK\IBK_DRFN\ProjSrc\SrcChartEx\ChartOCX\ChartObject\VertScaleGroup.cpp

; 1543 : 		if(!::lstrcmp(lpszRQ, pGraph->GetGraphRQ()) && 

  00081	74 04		 je	 SHORT $LN7@FindGraph
$LN6@FindGraph:
  00083	c6 45 f3 00	 mov	 BYTE PTR $T4[ebp], 0
$LN7@FindGraph:
  00087	c7 45 fc ff ff
	ff ff		 mov	 DWORD PTR __$EHRec$[ebp+8], -1
  0008e	f6 c3 01	 test	 bl, 1
  00091	74 0c		 je	 SHORT $LN10@FindGraph
  00093	8d 4d e8	 lea	 ecx, DWORD PTR $T2[ebp]
  00096	83 e3 fe	 and	 ebx, -2			; fffffffeH
  00099	ff 15 00 00 00
	00		 call	 DWORD PTR __imp_??1?$CStringT@DV?$StrTraitMFC_DLL@DV?$ChTraitsCRT@D@ATL@@@@@ATL@@QAE@XZ
$LN10@FindGraph:
  0009f	80 7d f3 00	 cmp	 BYTE PTR $T4[ebp], 0
  000a3	75 1a		 jne	 SHORT $LN24@FindGraph

; 1539 : 
; 1540 : 	while(pos != NULL){

  000a5	85 f6		 test	 esi, esi
  000a7	75 8b		 jne	 SHORT $LL2@FindGraph
$LN3@FindGraph:

; 1546 : 	}
; 1547 : 	return NULL;

  000a9	33 c0		 xor	 eax, eax

; 1548 : }

  000ab	8b 4d f4	 mov	 ecx, DWORD PTR __$EHRec$[ebp]
  000ae	64 89 0d 00 00
	00 00		 mov	 DWORD PTR fs:0, ecx
  000b5	59		 pop	 ecx
  000b6	5f		 pop	 edi
  000b7	5e		 pop	 esi
  000b8	5b		 pop	 ebx
  000b9	8b e5		 mov	 esp, ebp
  000bb	5d		 pop	 ebp
  000bc	c2 08 00	 ret	 8
$LN24@FindGraph:

; 1544 : 			pGraph->GetGraphData().GetGraphName() == strGraphName)
; 1545 : 			return pGraph;

  000bf	8b c7		 mov	 eax, edi

; 1548 : }

  000c1	8b 4d f4	 mov	 ecx, DWORD PTR __$EHRec$[ebp]
  000c4	64 89 0d 00 00
	00 00		 mov	 DWORD PTR fs:0, ecx
  000cb	59		 pop	 ecx
  000cc	5f		 pop	 edi
  000cd	5e		 pop	 esi
  000ce	5b		 pop	 ebx
  000cf	8b e5		 mov	 esp, ebp
  000d1	5d		 pop	 ebp
  000d2	c2 08 00	 ret	 8
_TEXT	ENDS
;	COMDAT text$x
text$x	SEGMENT
__unwindfunclet$?FindGraph@CVertScaleGroup@@QBEPAVCGraphImp@@PBDABV?$CStringT@DV?$StrTraitMFC_DLL@DV?$ChTraitsCRT@D@ATL@@@@@ATL@@@Z$0:
  00000	8b 45 ec	 mov	 eax, DWORD PTR $T3[ebp]
  00003	83 e0 01	 and	 eax, 1
  00006	0f 84 0d 00 00
	00		 je	 $LN9@FindGraph
  0000c	83 65 ec fe	 and	 DWORD PTR $T3[ebp], -2	; fffffffeH
  00010	8d 4d e8	 lea	 ecx, DWORD PTR $T2[ebp]
  00013	ff 25 00 00 00
	00		 jmp	 DWORD PTR __imp_??1?$CStringT@DV?$StrTraitMFC_DLL@DV?$ChTraitsCRT@D@ATL@@@@@ATL@@QAE@XZ
$LN9@FindGraph:
  00019	c3		 ret	 0
  0001a	cc		 int	 3
  0001b	cc		 int	 3
  0001c	cc		 int	 3
  0001d	cc		 int	 3
  0001e	cc		 int	 3
__ehhandler$?FindGraph@CVertScaleGroup@@QBEPAVCGraphImp@@PBDABV?$CStringT@DV?$StrTraitMFC_DLL@DV?$ChTraitsCRT@D@ATL@@@@@ATL@@@Z:
  0001f	90		 npad	 1
  00020	90		 npad	 1
  00021	8b 54 24 08	 mov	 edx, DWORD PTR [esp+8]
  00025	8d 42 0c	 lea	 eax, DWORD PTR [edx+12]
  00028	8b 4a e4	 mov	 ecx, DWORD PTR [edx-28]
  0002b	33 c8		 xor	 ecx, eax
  0002d	e8 00 00 00 00	 call	 @__security_check_cookie@4
  00032	b8 00 00 00 00	 mov	 eax, OFFSET __ehfuncinfo$?FindGraph@CVertScaleGroup@@QBEPAVCGraphImp@@PBDABV?$CStringT@DV?$StrTraitMFC_DLL@DV?$ChTraitsCRT@D@ATL@@@@@ATL@@@Z
  00037	e9 00 00 00 00	 jmp	 ___CxxFrameHandler3
text$x	ENDS
?FindGraph@CVertScaleGroup@@QBEPAVCGraphImp@@PBDABV?$CStringT@DV?$StrTraitMFC_DLL@DV?$ChTraitsCRT@D@ATL@@@@@ATL@@@Z ENDP ; CVertScaleGroup::FindGraph
; Function compile flags: /Ogtp
; File D:\git\src\IBK\IBK_DRFN\ProjSrc\SrcChartEx\ChartOCX\ChartObject\VertScaleGroup.cpp
; File C:\Program Files (x86)\Microsoft Visual Studio\2019\Community\VC\Tools\MSVC\14.29.30133\atlmfc\include\afxtempl.h
; File D:\git\src\IBK\IBK_DRFN\ProjSrc\SrcChartEx\ChartOCX\ChartObject\VertScaleGroup.cpp
; File C:\Program Files (x86)\Microsoft Visual Studio\2019\Community\VC\Tools\MSVC\14.29.30133\atlmfc\include\afxcoll.inl
; File D:\git\src\IBK\IBK_DRFN\ProjSrc\SrcChartEx\ChartOCX\ChartObject\VertScaleGroup.cpp
; File C:\Program Files (x86)\Microsoft Visual Studio\2019\Community\VC\Tools\MSVC\14.29.30133\atlmfc\include\cstringt.h
; File D:\git\src\IBK\IBK_DRFN\ProjSrc\SrcChartEx\ChartOCX\ChartObject\VertScaleGroup.cpp
; File C:\Program Files (x86)\Microsoft Visual Studio\2019\Community\VC\Tools\MSVC\14.29.30133\atlmfc\include\cstringt.h
; File D:\git\src\IBK\IBK_DRFN\ProjSrc\SrcChartEx\ChartOCX\ChartObject\VertScaleGroup.cpp
; File C:\Program Files (x86)\Microsoft Visual Studio\2019\Community\VC\Tools\MSVC\14.29.30133\atlmfc\include\cstringt.h
; File D:\git\src\IBK\IBK_DRFN\ProjSrc\SrcChartEx\ChartOCX\ChartObject\VertScaleGroup.cpp
;	COMDAT ?FindGraph@CVertScaleGroup@@QBEPAVCGraphImp@@ABV?$CStringT@DV?$StrTraitMFC_DLL@DV?$ChTraitsCRT@D@ATL@@@@@ATL@@@Z
_TEXT	SEGMENT
$T2 = -16						; size = 4
__$EHRec$ = -12						; size = 12
_strGraphName$ = 8					; size = 4
?FindGraph@CVertScaleGroup@@QBEPAVCGraphImp@@ABV?$CStringT@DV?$StrTraitMFC_DLL@DV?$ChTraitsCRT@D@ATL@@@@@ATL@@@Z PROC ; CVertScaleGroup::FindGraph, COMDAT
; _this$ = ecx

; 1523 : {

  00000	55		 push	 ebp
  00001	8b ec		 mov	 ebp, esp
  00003	6a ff		 push	 -1
  00005	68 00 00 00 00	 push	 __ehhandler$?FindGraph@CVertScaleGroup@@QBEPAVCGraphImp@@ABV?$CStringT@DV?$StrTraitMFC_DLL@DV?$ChTraitsCRT@D@ATL@@@@@ATL@@@Z
  0000a	64 a1 00 00 00
	00		 mov	 eax, DWORD PTR fs:0
  00010	50		 push	 eax
  00011	51		 push	 ecx
  00012	53		 push	 ebx
  00013	56		 push	 esi
  00014	57		 push	 edi
  00015	a1 00 00 00 00	 mov	 eax, DWORD PTR ___security_cookie
  0001a	33 c5		 xor	 eax, ebp
  0001c	50		 push	 eax
  0001d	8d 45 f4	 lea	 eax, DWORD PTR __$EHRec$[ebp]
  00020	64 a3 00 00 00
	00		 mov	 DWORD PTR fs:0, eax

; 1524 : 	POSITION pos = m_GraphList.GetHeadPosition();

  00026	8b 71 7c	 mov	 esi, DWORD PTR [ecx+124]

; 1525 : 
; 1526 : 	while(pos != NULL){

  00029	85 f6		 test	 esi, esi
  0002b	74 49		 je	 SHORT $LN3@FindGraph
  0002d	0f 1f 00	 npad	 3
$LL2@FindGraph:
; File C:\Program Files (x86)\Microsoft Visual Studio\2019\Community\VC\Tools\MSVC\14.29.30133\atlmfc\include\afxtempl.h

; 1898 : 		{ return (TYPE)BASE_CLASS::GetNext(rPosition); }

  00030	8b 5e 08	 mov	 ebx, DWORD PTR [esi+8]
; File D:\git\src\IBK\IBK_DRFN\ProjSrc\SrcChartEx\ChartOCX\ChartObject\VertScaleGroup.cpp

; 1529 : 		if(pGraph->GetGraphData().GetGraphName() == strGraphName)

  00033	8d 45 f0	 lea	 eax, DWORD PTR $T2[ebp]
; File C:\Program Files (x86)\Microsoft Visual Studio\2019\Community\VC\Tools\MSVC\14.29.30133\atlmfc\include\afxcoll.inl

; 439  : 		rPosition = (POSITION) pNode->pNext;

  00036	8b 36		 mov	 esi, DWORD PTR [esi]
; File D:\git\src\IBK\IBK_DRFN\ProjSrc\SrcChartEx\ChartOCX\ChartObject\VertScaleGroup.cpp

; 1529 : 		if(pGraph->GetGraphData().GetGraphName() == strGraphName)

  00038	8b cb		 mov	 ecx, ebx
  0003a	50		 push	 eax
  0003b	e8 00 00 00 00	 call	 ?GetGraphData@CGraphImp@@QAEAAVCGraphData@@XZ ; CGraphImp::GetGraphData
  00040	8b c8		 mov	 ecx, eax
  00042	ff 15 00 00 00
	00		 call	 DWORD PTR __imp_?GetGraphName@CGraphData@@QBE?AV?$CStringT@DV?$StrTraitMFC_DLL@DV?$ChTraitsCRT@D@ATL@@@@@ATL@@XZ
; File C:\Program Files (x86)\Microsoft Visual Studio\2019\Community\VC\Tools\MSVC\14.29.30133\atlmfc\include\cstringt.h

; 2479 : 		return(str1.Compare(str2) == 0);

  00048	8b 4d 08	 mov	 ecx, DWORD PTR _strGraphName$[ebp]
; File D:\git\src\IBK\IBK_DRFN\ProjSrc\SrcChartEx\ChartOCX\ChartObject\VertScaleGroup.cpp

; 1529 : 		if(pGraph->GetGraphData().GetGraphName() == strGraphName)

  0004b	c7 45 fc 00 00
	00 00		 mov	 DWORD PTR __$EHRec$[ebp+8], 0
; File C:\Program Files (x86)\Microsoft Visual Studio\2019\Community\VC\Tools\MSVC\14.29.30133\atlmfc\include\cstringt.h

; 2479 : 		return(str1.Compare(str2) == 0);

  00052	ff 31		 push	 DWORD PTR [ecx]
  00054	8b c8		 mov	 ecx, eax
  00056	ff 15 00 00 00
	00		 call	 DWORD PTR __imp_?Compare@?$CStringT@DV?$StrTraitMFC_DLL@DV?$ChTraitsCRT@D@ATL@@@@@ATL@@QBEHPBD@Z
; File D:\git\src\IBK\IBK_DRFN\ProjSrc\SrcChartEx\ChartOCX\ChartObject\VertScaleGroup.cpp

; 1529 : 		if(pGraph->GetGraphData().GetGraphName() == strGraphName)

  0005c	8d 4d f0	 lea	 ecx, DWORD PTR $T2[ebp]
  0005f	c7 45 fc ff ff
	ff ff		 mov	 DWORD PTR __$EHRec$[ebp+8], -1
; File C:\Program Files (x86)\Microsoft Visual Studio\2019\Community\VC\Tools\MSVC\14.29.30133\atlmfc\include\cstringt.h

; 2479 : 		return(str1.Compare(str2) == 0);

  00066	8b f8		 mov	 edi, eax
; File D:\git\src\IBK\IBK_DRFN\ProjSrc\SrcChartEx\ChartOCX\ChartObject\VertScaleGroup.cpp

; 1529 : 		if(pGraph->GetGraphData().GetGraphName() == strGraphName)

  00068	ff 15 00 00 00
	00		 call	 DWORD PTR __imp_??1?$CStringT@DV?$StrTraitMFC_DLL@DV?$ChTraitsCRT@D@ATL@@@@@ATL@@QAE@XZ
  0006e	85 ff		 test	 edi, edi
  00070	74 1a		 je	 SHORT $LN20@FindGraph

; 1525 : 
; 1526 : 	while(pos != NULL){

  00072	85 f6		 test	 esi, esi
  00074	75 ba		 jne	 SHORT $LL2@FindGraph
$LN3@FindGraph:

; 1531 : 	}
; 1532 : 	return NULL;

  00076	33 c0		 xor	 eax, eax

; 1533 : }

  00078	8b 4d f4	 mov	 ecx, DWORD PTR __$EHRec$[ebp]
  0007b	64 89 0d 00 00
	00 00		 mov	 DWORD PTR fs:0, ecx
  00082	59		 pop	 ecx
  00083	5f		 pop	 edi
  00084	5e		 pop	 esi
  00085	5b		 pop	 ebx
  00086	8b e5		 mov	 esp, ebp
  00088	5d		 pop	 ebp
  00089	c2 04 00	 ret	 4
$LN20@FindGraph:

; 1530 : 			return pGraph;

  0008c	8b c3		 mov	 eax, ebx

; 1533 : }

  0008e	8b 4d f4	 mov	 ecx, DWORD PTR __$EHRec$[ebp]
  00091	64 89 0d 00 00
	00 00		 mov	 DWORD PTR fs:0, ecx
  00098	59		 pop	 ecx
  00099	5f		 pop	 edi
  0009a	5e		 pop	 esi
  0009b	5b		 pop	 ebx
  0009c	8b e5		 mov	 esp, ebp
  0009e	5d		 pop	 ebp
  0009f	c2 04 00	 ret	 4
_TEXT	ENDS
;	COMDAT text$x
text$x	SEGMENT
__unwindfunclet$?FindGraph@CVertScaleGroup@@QBEPAVCGraphImp@@ABV?$CStringT@DV?$StrTraitMFC_DLL@DV?$ChTraitsCRT@D@ATL@@@@@ATL@@@Z$0:
  00000	8d 4d f0	 lea	 ecx, DWORD PTR $T2[ebp]
  00003	ff 25 00 00 00
	00		 jmp	 DWORD PTR __imp_??1?$CStringT@DV?$StrTraitMFC_DLL@DV?$ChTraitsCRT@D@ATL@@@@@ATL@@QAE@XZ
  00009	cc		 int	 3
  0000a	cc		 int	 3
  0000b	cc		 int	 3
  0000c	cc		 int	 3
  0000d	cc		 int	 3
__ehhandler$?FindGraph@CVertScaleGroup@@QBEPAVCGraphImp@@ABV?$CStringT@DV?$StrTraitMFC_DLL@DV?$ChTraitsCRT@D@ATL@@@@@ATL@@@Z:
  0000e	90		 npad	 1
  0000f	90		 npad	 1
  00010	8b 54 24 08	 mov	 edx, DWORD PTR [esp+8]
  00014	8d 42 0c	 lea	 eax, DWORD PTR [edx+12]
  00017	8b 4a ec	 mov	 ecx, DWORD PTR [edx-20]
  0001a	33 c8		 xor	 ecx, eax
  0001c	e8 00 00 00 00	 call	 @__security_check_cookie@4
  00021	b8 00 00 00 00	 mov	 eax, OFFSET __ehfuncinfo$?FindGraph@CVertScaleGroup@@QBEPAVCGraphImp@@ABV?$CStringT@DV?$StrTraitMFC_DLL@DV?$ChTraitsCRT@D@ATL@@@@@ATL@@@Z
  00026	e9 00 00 00 00	 jmp	 ___CxxFrameHandler3
text$x	ENDS
?FindGraph@CVertScaleGroup@@QBEPAVCGraphImp@@ABV?$CStringT@DV?$StrTraitMFC_DLL@DV?$ChTraitsCRT@D@ATL@@@@@ATL@@@Z ENDP ; CVertScaleGroup::FindGraph
; Function compile flags: /Ogtp
; File D:\git\src\IBK\IBK_DRFN\ProjSrc\SrcChartEx\ChartOCX\ChartObject\VertScaleGroup.cpp
;	COMDAT ?DrawGraphAndSignal@CVertScaleGroup@@SAIPAX@Z
_TEXT	SEGMENT
_pParam$ = 8						; size = 4
?DrawGraphAndSignal@CVertScaleGroup@@SAIPAX@Z PROC	; CVertScaleGroup::DrawGraphAndSignal, COMDAT

; 1513 : {

  00000	55		 push	 ebp
  00001	8b ec		 mov	 ebp, esp
  00003	56		 push	 esi

; 1514 : 	CGraphImp *pGraph = ( CGraphImp *)pParam;
; 1515 : 	pGraph->DrawGraphAndSignal( pGraph->m_pDC, pGraph->m_pDrawingGraphData);

  00004	8b 75 08	 mov	 esi, DWORD PTR _pParam$[ebp]
  00007	8b ce		 mov	 ecx, esi
  00009	ff 76 70	 push	 DWORD PTR [esi+112]
  0000c	ff 76 6c	 push	 DWORD PTR [esi+108]
  0000f	e8 00 00 00 00	 call	 ?DrawGraphAndSignal@CGraphImp@@QAEXPAVCDC@@PAVCDrawingGraphData@@@Z ; CGraphImp::DrawGraphAndSignal

; 1516 : 	pGraph->GetMainBlock()->m_nThreadCount--;

  00014	8b ce		 mov	 ecx, esi
  00016	e8 00 00 00 00	 call	 ?GetMainBlock@CGraphImp@@QBEPAVCMainBlockImp@@XZ ; CGraphImp::GetMainBlock

; 1517 : 	return 0;

  0001b	5e		 pop	 esi
  0001c	ff 88 dc 03 00
	00		 dec	 DWORD PTR [eax+988]
  00022	33 c0		 xor	 eax, eax

; 1518 : }

  00024	5d		 pop	 ebp
  00025	c3		 ret	 0
?DrawGraphAndSignal@CVertScaleGroup@@SAIPAX@Z ENDP	; CVertScaleGroup::DrawGraphAndSignal
_TEXT	ENDS
; Function compile flags: /Ogtp
; File D:\git\src\IBK\IBK_DRFN\ProjSrc\SrcChartEx\ChartOCX\ChartObject\VertScaleGroup.cpp
; File C:\Program Files (x86)\Microsoft Visual Studio\2019\Community\VC\Tools\MSVC\14.29.30133\atlmfc\include\afxcoll.inl
; File D:\git\src\IBK\IBK_DRFN\ProjSrc\SrcChartEx\ChartOCX\ChartObject\VertScaleGroup.cpp
;	COMDAT ?DrawGraphs@CVertScaleGroup@@QAEXPAVCDC@@PAVCDrawingGraphData@@AAH22@Z
_TEXT	SEGMENT
$T2 = -44						; size = 4
tv519 = -40						; size = 4
_nPreGraphTitleEndLine$1$ = -36				; size = 4
_pMainBlock$1$ = -32					; size = 4
_pXScaleManager$1$ = -28				; size = 4
_szIndiName$3 = -24					; size = 4
$T4 = -24						; size = 4
_nThread_Flag$1$ = -20					; size = 4
_bExtraDraw$1$ = -13					; size = 1
__$EHRec$ = -12						; size = 12
_pDC$ = 8						; size = 4
_szIndiName$5 = 12					; size = 4
_pDrawingGraphData$ = 12				; size = 4
$T6 = 16						; size = 4
_preGraphTitleEndPosition$ = 16				; size = 4
_nEndLimit$ = 20					; size = 4
_pos$1$ = 24						; size = 4
_nGraphTitleEndLine$ = 24				; size = 4
?DrawGraphs@CVertScaleGroup@@QAEXPAVCDC@@PAVCDrawingGraphData@@AAH22@Z PROC ; CVertScaleGroup::DrawGraphs, COMDAT
; _this$ = ecx

; 1385 : {

  00000	55		 push	 ebp
  00001	8b ec		 mov	 ebp, esp
  00003	6a ff		 push	 -1
  00005	68 00 00 00 00	 push	 __ehhandler$?DrawGraphs@CVertScaleGroup@@QAEXPAVCDC@@PAVCDrawingGraphData@@AAH22@Z
  0000a	64 a1 00 00 00
	00		 mov	 eax, DWORD PTR fs:0
  00010	50		 push	 eax
  00011	83 ec 20	 sub	 esp, 32			; 00000020H
  00014	53		 push	 ebx
  00015	56		 push	 esi
  00016	57		 push	 edi
  00017	a1 00 00 00 00	 mov	 eax, DWORD PTR ___security_cookie
  0001c	33 c5		 xor	 eax, ebp
  0001e	50		 push	 eax
  0001f	8d 45 f4	 lea	 eax, DWORD PTR __$EHRec$[ebp]
  00022	64 a3 00 00 00
	00		 mov	 DWORD PTR fs:0, eax
  00028	8b f9		 mov	 edi, ecx

; 1386 : 	if( pDrawingGraphData == NULL) return;

  0002a	8b 5d 0c	 mov	 ebx, DWORD PTR _pDrawingGraphData$[ebp]
  0002d	85 db		 test	 ebx, ebx
  0002f	0f 84 0e 03 00
	00		 je	 $LN26@DrawGraphs

; 1387 : 
; 1388 : 	int nPreGraphTitleEndLine = 1;
; 1389 : 
; 1390 : 	//       - ojtaso (20080104)
; 1391 : 	if(!m_lpSelectedGraph)

  00035	83 bf 94 00 00
	00 00		 cmp	 DWORD PTR [edi+148], 0
  0003c	c7 45 dc 01 00
	00 00		 mov	 DWORD PTR _nPreGraphTitleEndLine$1$[ebp], 1
  00043	75 3c		 jne	 SHORT $LN5@DrawGraphs

; 1392 : 		m_lpSelectedGraph = FindGraph( _MTEXT( C2_PRICE_CHART));

  00045	a1 54 00 00 00	 mov	 eax, DWORD PTR ?g_iMetaTable@@3VIMetaTable@@A+84
  0004a	8d 4d e8	 lea	 ecx, DWORD PTR $T4[ebp]
  0004d	ff b0 28 03 00
	00		 push	 DWORD PTR [eax+808]
  00053	ff 15 00 00 00
	00		 call	 DWORD PTR __imp_??0?$CStringT@DV?$StrTraitMFC_DLL@DV?$ChTraitsCRT@D@ATL@@@@@ATL@@QAE@PBD@Z
  00059	8d 45 e8	 lea	 eax, DWORD PTR $T4[ebp]
  0005c	c7 45 fc 00 00
	00 00		 mov	 DWORD PTR __$EHRec$[ebp+8], 0
  00063	50		 push	 eax
  00064	8b cf		 mov	 ecx, edi
  00066	e8 00 00 00 00	 call	 ?FindGraph@CVertScaleGroup@@QBEPAVCGraphImp@@ABV?$CStringT@DV?$StrTraitMFC_DLL@DV?$ChTraitsCRT@D@ATL@@@@@ATL@@@Z ; CVertScaleGroup::FindGraph
  0006b	8d 4d e8	 lea	 ecx, DWORD PTR $T4[ebp]
  0006e	89 87 94 00 00
	00		 mov	 DWORD PTR [edi+148], eax
  00074	c7 45 fc ff ff
	ff ff		 mov	 DWORD PTR __$EHRec$[ebp+8], -1
  0007b	ff 15 00 00 00
	00		 call	 DWORD PTR __imp_??1?$CStringT@DV?$StrTraitMFC_DLL@DV?$ChTraitsCRT@D@ATL@@@@@ATL@@QAE@XZ
$LN5@DrawGraphs:

; 1393 : 
; 1394 : 	int nThread_Flag = 0;
; 1395 : 
; 1396 : 	// (2009/2/20 - Seung-Won, Bae) check no graph region
; 1397 : 	CMainBlockImp *pMainBlock = m_pMainBlockBaseData->GetMainAttributes().GetMainBlockImpl();

  00081	8b 4f 08	 mov	 ecx, DWORD PTR [edi+8]
  00084	c7 45 ec 00 00
	00 00		 mov	 DWORD PTR _nThread_Flag$1$[ebp], 0
  0008b	e8 00 00 00 00	 call	 ?GetMainAttributes@CMainBlockBaseData@@QAEAAVCMainAttributes@@XZ ; CMainBlockBaseData::GetMainAttributes
  00090	8b c8		 mov	 ecx, eax
  00092	e8 00 00 00 00	 call	 ?GetMainBlockImpl@CMainAttributes@@QBEPAVCMainBlockImp@@XZ ; CMainAttributes::GetMainBlockImpl
  00097	8b c8		 mov	 ecx, eax
  00099	89 4d e0	 mov	 DWORD PTR _pMainBlock$1$[ebp], ecx

; 1398 : 	CXScaleManager *pXScaleManager = pMainBlock->GetXScaleManager();

  0009c	8b 01		 mov	 eax, DWORD PTR [ecx]
  0009e	ff 90 44 02 00
	00		 call	 DWORD PTR [eax+580]

; 1399 : 	BOOL bNoRegion = ( pXScaleManager->GetScreenWidth( GetVertScaleGroupList()->GetBlock()->GetBlocksColumn()->GetColumnIndex()) <= 0);

  000a4	8b 4f 0c	 mov	 ecx, DWORD PTR [edi+12]
  000a7	89 45 e4	 mov	 DWORD PTR _pXScaleManager$1$[ebp], eax
  000aa	8b 30		 mov	 esi, DWORD PTR [eax]
  000ac	e8 00 00 00 00	 call	 ?GetBlock@CVertScaleGroupList@@QBEPAVCBlockImp@@XZ ; CVertScaleGroupList::GetBlock
  000b1	8b c8		 mov	 ecx, eax
  000b3	e8 00 00 00 00	 call	 ?GetBlocksColumn@CBlockImp@@QAEPAVCBlocksColumn@@XZ ; CBlockImp::GetBlocksColumn
  000b8	8b c8		 mov	 ecx, eax
  000ba	e8 00 00 00 00	 call	 ?GetColumnIndex@CBlocksColumn@@QAEHXZ ; CBlocksColumn::GetColumnIndex
  000bf	8b 4d e4	 mov	 ecx, DWORD PTR _pXScaleManager$1$[ebp]
  000c2	50		 push	 eax
  000c3	ff 96 2c 01 00
	00		 call	 DWORD PTR [esi+300]

; 1400 : 
; 1401 : 	//NH-alzioyes.100616   .
; 1402 : 	bool bExtraDraw = false;
; 1403 : 	if( !bNoRegion) 

  000c9	8b 35 00 00 00
	00		 mov	 esi, DWORD PTR __imp_?GetIndicatorName@CIndicatorInfo@@QBE?AV?$CStringT@DV?$StrTraitMFC_DLL@DV?$ChTraitsCRT@D@ATL@@@@@ATL@@XZ
  000cf	33 c9		 xor	 ecx, ecx
  000d1	85 c0		 test	 eax, eax
  000d3	c6 45 f3 00	 mov	 BYTE PTR _bExtraDraw$1$[ebp], 0
  000d7	0f 9e c1	 setle	 cl
  000da	89 4d d8	 mov	 DWORD PTR tv519[ebp], ecx
  000dd	85 c0		 test	 eax, eax
  000df	0f 8e 97 00 00
	00		 jle	 $LN6@DrawGraphs

; 1404 : 	{
; 1405 : 		CString szIndiName;

  000e5	8d 4d e8	 lea	 ecx, DWORD PTR _szIndiName$3[ebp]
  000e8	ff 15 00 00 00
	00		 call	 DWORD PTR __imp_??0?$CStringT@DV?$StrTraitMFC_DLL@DV?$ChTraitsCRT@D@ATL@@@@@ATL@@QAE@XZ

; 1406 : 		if(nThread_Flag != THREAD_DRAWING)   //2009.01.06  -   .    .
; 1407 : 		{
; 1408 : 			if(m_lpSelectedGraph && m_lpSelectedGraph->GetIndicatorInfo())

  000ee	8b 8f 94 00 00
	00		 mov	 ecx, DWORD PTR [edi+148]
  000f4	c7 45 fc 01 00
	00 00		 mov	 DWORD PTR __$EHRec$[ebp+8], 1
  000fb	85 c9		 test	 ecx, ecx
  000fd	74 6d		 je	 SHORT $LN9@DrawGraphs
  000ff	e8 00 00 00 00	 call	 ?GetIndicatorInfo@CGraphImp@@QAEPAVCIndicatorInfo@@XZ ; CGraphImp::GetIndicatorInfo
  00104	85 c0		 test	 eax, eax
  00106	74 64		 je	 SHORT $LN9@DrawGraphs

; 1409 : 			{
; 1410 : 				szIndiName = m_lpSelectedGraph->GetIndicatorInfo()->GetIndicatorName();

  00108	8b 8f 94 00 00
	00		 mov	 ecx, DWORD PTR [edi+148]
  0010e	8d 45 d4	 lea	 eax, DWORD PTR $T2[ebp]
  00111	50		 push	 eax
  00112	e8 00 00 00 00	 call	 ?GetIndicatorInfo@CGraphImp@@QAEPAVCIndicatorInfo@@XZ ; CGraphImp::GetIndicatorInfo
  00117	8b c8		 mov	 ecx, eax
  00119	ff d6		 call	 esi
  0011b	50		 push	 eax
  0011c	8d 4d e8	 lea	 ecx, DWORD PTR _szIndiName$3[ebp]
  0011f	c6 45 fc 02	 mov	 BYTE PTR __$EHRec$[ebp+8], 2
  00123	ff 15 00 00 00
	00		 call	 DWORD PTR __imp_??4?$CStringT@DV?$StrTraitMFC_DLL@DV?$ChTraitsCRT@D@ATL@@@@@ATL@@QAEAAV01@ABV01@@Z
  00129	8d 4d d4	 lea	 ecx, DWORD PTR $T2[ebp]
  0012c	c6 45 fc 01	 mov	 BYTE PTR __$EHRec$[ebp+8], 1
  00130	ff 15 00 00 00
	00		 call	 DWORD PTR __imp_??1?$CStringT@DV?$StrTraitMFC_DLL@DV?$ChTraitsCRT@D@ATL@@@@@ATL@@QAE@XZ

; 1411 : 				if(szIndiName.Compare(_MTEXT( C2_OVERHANGING_SUPPLY))==0)

  00136	a1 54 00 00 00	 mov	 eax, DWORD PTR ?g_iMetaTable@@3VIMetaTable@@A+84
  0013b	8d 4d e8	 lea	 ecx, DWORD PTR _szIndiName$3[ebp]
  0013e	ff b0 34 03 00
	00		 push	 DWORD PTR [eax+820]
  00144	ff 15 00 00 00
	00		 call	 DWORD PTR __imp_?Compare@?$CStringT@DV?$StrTraitMFC_DLL@DV?$ChTraitsCRT@D@ATL@@@@@ATL@@QBEHPBD@Z
  0014a	85 c0		 test	 eax, eax
  0014c	75 1e		 jne	 SHORT $LN9@DrawGraphs

; 1412 : 				{
; 1413 : 					pDrawingGraphData->SetDisplayDataVertMinMax(m_displayDataMinMax);

  0014e	8d 47 68	 lea	 eax, DWORD PTR [edi+104]
  00151	8b cb		 mov	 ecx, ebx
  00153	50		 push	 eax
  00154	e8 00 00 00 00	 call	 ?SetDisplayDataVertMinMax@CDrawingGraphData@@QAEXABVCDisplayDataMinMax@@@Z ; CDrawingGraphData::SetDisplayDataVertMinMax

; 1414 : 					m_lpSelectedGraph->DrawGraphAndSignal( pDC, pDrawingGraphData);

  00159	8b 8f 94 00 00
	00		 mov	 ecx, DWORD PTR [edi+148]
  0015f	53		 push	 ebx
  00160	ff 75 08	 push	 DWORD PTR _pDC$[ebp]
  00163	e8 00 00 00 00	 call	 ?DrawGraphAndSignal@CGraphImp@@QAEXPAVCDC@@PAVCDrawingGraphData@@@Z ; CGraphImp::DrawGraphAndSignal

; 1415 : 					bExtraDraw = true;

  00168	c6 45 f3 01	 mov	 BYTE PTR _bExtraDraw$1$[ebp], 1
$LN9@DrawGraphs:

; 1416 : 				}
; 1417 : 			}
; 1418 : 		}
; 1419 : 	}

  0016c	8d 4d e8	 lea	 ecx, DWORD PTR _szIndiName$3[ebp]
  0016f	c7 45 fc ff ff
	ff ff		 mov	 DWORD PTR __$EHRec$[ebp+8], -1
  00176	ff 15 00 00 00
	00		 call	 DWORD PTR __imp_??1?$CStringT@DV?$StrTraitMFC_DLL@DV?$ChTraitsCRT@D@ATL@@@@@ATL@@QAE@XZ
$LN6@DrawGraphs:

; 1420 : 
; 1421 : 	POSITION pos = m_GraphList.GetHeadPosition();

  0017c	8b 4f 7c	 mov	 ecx, DWORD PTR [edi+124]

; 1422 : 	while(pos != NULL){

  0017f	85 c9		 test	 ecx, ecx
  00181	0f 84 f4 00 00
	00		 je	 $LN3@DrawGraphs
  00187	8b 5d 18	 mov	 ebx, DWORD PTR _nGraphTitleEndLine$[ebp]
  0018a	66 0f 1f 44 00
	00		 npad	 6
$LL2@DrawGraphs:

; 1423 : 		CGraphImp* pGraph = m_GraphList.GetNext(pos);

  00190	8b 71 08	 mov	 esi, DWORD PTR [ecx+8]

; 1425 : 		pDrawingGraphData->SetDisplayDataVertMinMax(m_displayDataMinMax);

  00193	8d 47 68	 lea	 eax, DWORD PTR [edi+104]
; File C:\Program Files (x86)\Microsoft Visual Studio\2019\Community\VC\Tools\MSVC\14.29.30133\atlmfc\include\afxcoll.inl

; 432  : 		rPosition = (POSITION) pNode->pNext;

  00196	8b 09		 mov	 ecx, DWORD PTR [ecx]
  00198	89 4d 18	 mov	 DWORD PTR _pos$1$[ebp], ecx
; File D:\git\src\IBK\IBK_DRFN\ProjSrc\SrcChartEx\ChartOCX\ChartObject\VertScaleGroup.cpp

; 1425 : 		pDrawingGraphData->SetDisplayDataVertMinMax(m_displayDataMinMax);

  0019b	8b 4d 0c	 mov	 ecx, DWORD PTR _pDrawingGraphData$[ebp]
  0019e	50		 push	 eax
  0019f	e8 00 00 00 00	 call	 ?SetDisplayDataVertMinMax@CDrawingGraphData@@QAEXABVCDisplayDataMinMax@@@Z ; CDrawingGraphData::SetDisplayDataVertMinMax

; 1426 : 		//    :  - ojtaso (20070227)
; 1427 : 		
; 1428 : 		nThread_Flag = pMainBlock->GetXScaleManager()->GetThreadFlag();

  001a4	8b 4d e0	 mov	 ecx, DWORD PTR _pMainBlock$1$[ebp]
  001a7	8b 01		 mov	 eax, DWORD PTR [ecx]
  001a9	ff 90 44 02 00
	00		 call	 DWORD PTR [eax+580]
  001af	8b c8		 mov	 ecx, eax
  001b1	8b 10		 mov	 edx, DWORD PTR [eax]
  001b3	ff 92 f8 00 00
	00		 call	 DWORD PTR [edx+248]
  001b9	89 45 ec	 mov	 DWORD PTR _nThread_Flag$1$[ebp], eax

; 1429 : 		
; 1430 : 		// (2009/1/7 - Seung-Won, Bae) Draw all graph title on drawing-thread.
; 1431 : 		if( nThread_Flag == THREAD_DRAWING)

  001bc	83 f8 02	 cmp	 eax, 2
  001bf	75 17		 jne	 SHORT $LN10@DrawGraphs

; 1432 : 			pGraph->DrawGraphTitle( pDC, pDrawingGraphData, preGraphTitleEndPosition, nEndLimit, nGraphTitleEndLine);

  001c1	53		 push	 ebx
  001c2	ff 75 14	 push	 DWORD PTR _nEndLimit$[ebp]
  001c5	8b ce		 mov	 ecx, esi
  001c7	ff 75 10	 push	 DWORD PTR _preGraphTitleEndPosition$[ebp]
  001ca	ff 75 0c	 push	 DWORD PTR _pDrawingGraphData$[ebp]
  001cd	ff 75 08	 push	 DWORD PTR _pDC$[ebp]
  001d0	e8 00 00 00 00	 call	 ?DrawGraphTitle@CGraphImp@@QAEXPAVCDC@@PAVCDrawingGraphData@@AAH22@Z ; CGraphImp::DrawGraphTitle
  001d5	8b 45 ec	 mov	 eax, DWORD PTR _nThread_Flag$1$[ebp]
$LN10@DrawGraphs:

; 1433 : 
; 1434 : 		// (2009/1/7 - Seung-Won, Bae) Do not call the selected graph on drawing. it will be done at last.
; 1435 : 		if( !bNoRegion) if( pGraph != m_lpSelectedGraph || nThread_Flag != THREAD_DRAWING)

  001d8	83 7d d8 00	 cmp	 DWORD PTR tv519[ebp], 0
  001dc	75 5c		 jne	 SHORT $LN15@DrawGraphs
  001de	3b b7 94 00 00
	00		 cmp	 esi, DWORD PTR [edi+148]
  001e4	75 05		 jne	 SHORT $LN13@DrawGraphs
  001e6	83 f8 02	 cmp	 eax, 2
  001e9	74 4f		 je	 SHORT $LN15@DrawGraphs
$LN13@DrawGraphs:

; 1436 : 		{
; 1437 : 			// (2009/10/9 - Seung-Won, Bae) for Thread Draw.
; 1438 : 			if( THREAD_CALCULATION != nThread_Flag || 1 != pXScaleManager->GetCalculationMode())

  001eb	83 f8 01	 cmp	 eax, 1
  001ee	75 3d		 jne	 SHORT $LN16@DrawGraphs
  001f0	8b 4d e4	 mov	 ecx, DWORD PTR _pXScaleManager$1$[ebp]
  001f3	8b 01		 mov	 eax, DWORD PTR [ecx]
  001f5	ff 90 fc 00 00
	00		 call	 DWORD PTR [eax+252]
  001fb	83 f8 01	 cmp	 eax, 1
  001fe	75 2d		 jne	 SHORT $LN16@DrawGraphs

; 1440 : 			else
; 1441 : 			{
; 1442 : 				pMainBlock->m_nThreadCount++;

  00200	8b 45 e0	 mov	 eax, DWORD PTR _pMainBlock$1$[ebp]

; 1443 : 				pGraph->m_pDC = pDC;

  00203	8b 4d 08	 mov	 ecx, DWORD PTR _pDC$[ebp]
  00206	ff 80 dc 03 00
	00		 inc	 DWORD PTR [eax+988]

; 1444 : 				pGraph->m_pDrawingGraphData = pDrawingGraphData;

  0020c	8b 45 0c	 mov	 eax, DWORD PTR _pDrawingGraphData$[ebp]

; 1515 : 	pGraph->DrawGraphAndSignal( pGraph->m_pDC, pGraph->m_pDrawingGraphData);

  0020f	50		 push	 eax

; 1443 : 				pGraph->m_pDC = pDC;

  00210	89 4e 6c	 mov	 DWORD PTR [esi+108], ecx

; 1515 : 	pGraph->DrawGraphAndSignal( pGraph->m_pDC, pGraph->m_pDrawingGraphData);

  00213	51		 push	 ecx
  00214	8b ce		 mov	 ecx, esi

; 1444 : 				pGraph->m_pDrawingGraphData = pDrawingGraphData;

  00216	89 46 70	 mov	 DWORD PTR [esi+112], eax

; 1515 : 	pGraph->DrawGraphAndSignal( pGraph->m_pDC, pGraph->m_pDrawingGraphData);

  00219	e8 00 00 00 00	 call	 ?DrawGraphAndSignal@CGraphImp@@QAEXPAVCDC@@PAVCDrawingGraphData@@@Z ; CGraphImp::DrawGraphAndSignal

; 1516 : 	pGraph->GetMainBlock()->m_nThreadCount--;

  0021e	8b ce		 mov	 ecx, esi
  00220	e8 00 00 00 00	 call	 ?GetMainBlock@CGraphImp@@QBEPAVCMainBlockImp@@XZ ; CGraphImp::GetMainBlock
  00225	ff 88 dc 03 00
	00		 dec	 DWORD PTR [eax+988]
  0022b	eb 0d		 jmp	 SHORT $LN15@DrawGraphs
$LN16@DrawGraphs:

; 1439 : 				pGraph->DrawGraphAndSignal( pDC, pDrawingGraphData);

  0022d	ff 75 0c	 push	 DWORD PTR _pDrawingGraphData$[ebp]
  00230	8b ce		 mov	 ecx, esi
  00232	ff 75 08	 push	 DWORD PTR _pDC$[ebp]
  00235	e8 00 00 00 00	 call	 ?DrawGraphAndSignal@CGraphImp@@QAEXPAVCDC@@PAVCDrawingGraphData@@@Z ; CGraphImp::DrawGraphAndSignal
$LN15@DrawGraphs:

; 1445 : 				//20100506     >>
; 1446 : 				//AfxBeginThread( DrawGraphAndSignal, pGraph);
; 1447 : 				DrawGraphAndSignal( pGraph );
; 1448 : 
; 1449 : 			}
; 1450 : 		}
; 1451 : 
; 1452 : //>>         - vntsorl (20090106)
; 1453 : 		if(nEndLimit <= preGraphTitleEndPosition + MARGIN * 2)

  0023a	8b 4d 10	 mov	 ecx, DWORD PTR _preGraphTitleEndPosition$[ebp]
  0023d	8b 55 14	 mov	 edx, DWORD PTR _nEndLimit$[ebp]
  00240	8b 01		 mov	 eax, DWORD PTR [ecx]
  00242	83 c0 08	 add	 eax, 8
  00245	39 02		 cmp	 DWORD PTR [edx], eax
  00247	7f 08		 jg	 SHORT $LN46@DrawGraphs

; 1454 : //<<         - vntsorl (20090106)
; 1455 : 		{
; 1456 : 			preGraphTitleEndPosition = VSGL_TITLE_START_POSITION;

  00249	c7 01 0c 00 00
	00		 mov	 DWORD PTR [ecx], 12	; 0000000cH

; 1457 : 			nGraphTitleEndLine++;

  0024f	ff 03		 inc	 DWORD PTR [ebx]
$LN46@DrawGraphs:

; 1458 : 		}
; 1459 : 
; 1460 : 		if(nGraphTitleEndLine > nPreGraphTitleEndLine)

  00251	8b 03		 mov	 eax, DWORD PTR [ebx]
  00253	3b 45 dc	 cmp	 eax, DWORD PTR _nPreGraphTitleEndLine$1$[ebp]
  00256	7e 0c		 jle	 SHORT $LN48@DrawGraphs

; 1461 : 			m_pVertScaleGroupList->RecalculateTitleRegion(TRUE);

  00258	8b 4f 0c	 mov	 ecx, DWORD PTR [edi+12]
  0025b	6a 01		 push	 1
  0025d	e8 00 00 00 00	 call	 ?RecalculateTitleRegion@CVertScaleGroupList@@QAEXH@Z ; CVertScaleGroupList::RecalculateTitleRegion
  00262	8b 03		 mov	 eax, DWORD PTR [ebx]
$LN48@DrawGraphs:

; 1462 : 
; 1463 : 		nPreGraphTitleEndLine = nGraphTitleEndLine;

  00264	8b 4d 18	 mov	 ecx, DWORD PTR _pos$1$[ebp]
  00267	89 45 dc	 mov	 DWORD PTR _nPreGraphTitleEndLine$1$[ebp], eax
  0026a	85 c9		 test	 ecx, ecx
  0026c	0f 85 1e ff ff
	ff		 jne	 $LL2@DrawGraphs
  00272	8b 5d 0c	 mov	 ebx, DWORD PTR _pDrawingGraphData$[ebp]
  00275	8b 35 00 00 00
	00		 mov	 esi, DWORD PTR __imp_?GetIndicatorName@CIndicatorInfo@@QBE?AV?$CStringT@DV?$StrTraitMFC_DLL@DV?$ChTraitsCRT@D@ATL@@@@@ATL@@XZ
$LN3@DrawGraphs:

; 1464 : 	}	
; 1465 : 
; 1466 : 	//     (20071007)
; 1467 : 	//NH-alzioyes.100616   .
; 1468 : 	if( !bNoRegion) 

  0027b	83 7d d8 00	 cmp	 DWORD PTR tv519[ebp], 0
  0027f	0f 85 be 00 00
	00		 jne	 $LN26@DrawGraphs

; 1469 : 	{
; 1470 : 		if(bExtraDraw)

  00285	80 7d f3 00	 cmp	 BYTE PTR _bExtraDraw$1$[ebp], 0
  00289	0f 84 9b 00 00
	00		 je	 $LN20@DrawGraphs

; 1471 : 		{
; 1472 : 			CString szIndiName;

  0028f	8d 4d 0c	 lea	 ecx, DWORD PTR _szIndiName$5[ebp]
  00292	ff 15 00 00 00
	00		 call	 DWORD PTR __imp_??0?$CStringT@DV?$StrTraitMFC_DLL@DV?$ChTraitsCRT@D@ATL@@@@@ATL@@QAE@XZ

; 1473 : 			if(nThread_Flag == THREAD_DRAWING)

  00298	83 7d ec 02	 cmp	 DWORD PTR _nThread_Flag$1$[ebp], 2
  0029c	c7 45 fc 03 00
	00 00		 mov	 DWORD PTR __$EHRec$[ebp+8], 3
  002a3	75 68		 jne	 SHORT $LN24@DrawGraphs

; 1474 : 			{
; 1475 : 				if(m_lpSelectedGraph && m_lpSelectedGraph->GetIndicatorInfo())

  002a5	8b 8f 94 00 00
	00		 mov	 ecx, DWORD PTR [edi+148]
  002ab	85 c9		 test	 ecx, ecx
  002ad	74 5e		 je	 SHORT $LN24@DrawGraphs
  002af	e8 00 00 00 00	 call	 ?GetIndicatorInfo@CGraphImp@@QAEPAVCIndicatorInfo@@XZ ; CGraphImp::GetIndicatorInfo
  002b4	85 c0		 test	 eax, eax
  002b6	74 55		 je	 SHORT $LN24@DrawGraphs

; 1476 : 				{
; 1477 : 					szIndiName = m_lpSelectedGraph->GetIndicatorInfo()->GetIndicatorName();

  002b8	8b 8f 94 00 00
	00		 mov	 ecx, DWORD PTR [edi+148]
  002be	8d 45 10	 lea	 eax, DWORD PTR $T6[ebp]
  002c1	50		 push	 eax
  002c2	e8 00 00 00 00	 call	 ?GetIndicatorInfo@CGraphImp@@QAEPAVCIndicatorInfo@@XZ ; CGraphImp::GetIndicatorInfo
  002c7	8b c8		 mov	 ecx, eax
  002c9	ff d6		 call	 esi
  002cb	50		 push	 eax
  002cc	8d 4d 0c	 lea	 ecx, DWORD PTR _szIndiName$5[ebp]
  002cf	c6 45 fc 04	 mov	 BYTE PTR __$EHRec$[ebp+8], 4
  002d3	ff 15 00 00 00
	00		 call	 DWORD PTR __imp_??4?$CStringT@DV?$StrTraitMFC_DLL@DV?$ChTraitsCRT@D@ATL@@@@@ATL@@QAEAAV01@ABV01@@Z
  002d9	8d 4d 10	 lea	 ecx, DWORD PTR $T6[ebp]
  002dc	c6 45 fc 03	 mov	 BYTE PTR __$EHRec$[ebp+8], 3
  002e0	ff 15 00 00 00
	00		 call	 DWORD PTR __imp_??1?$CStringT@DV?$StrTraitMFC_DLL@DV?$ChTraitsCRT@D@ATL@@@@@ATL@@QAE@XZ

; 1478 : 					if(szIndiName.Compare(_MTEXT( C2_OVERHANGING_SUPPLY))!=0)

  002e6	a1 54 00 00 00	 mov	 eax, DWORD PTR ?g_iMetaTable@@3VIMetaTable@@A+84
  002eb	8d 4d 0c	 lea	 ecx, DWORD PTR _szIndiName$5[ebp]
  002ee	ff b0 34 03 00
	00		 push	 DWORD PTR [eax+820]
  002f4	ff 15 00 00 00
	00		 call	 DWORD PTR __imp_?Compare@?$CStringT@DV?$StrTraitMFC_DLL@DV?$ChTraitsCRT@D@ATL@@@@@ATL@@QBEHPBD@Z
  002fa	85 c0		 test	 eax, eax
  002fc	74 0f		 je	 SHORT $LN24@DrawGraphs

; 1479 : 						m_lpSelectedGraph->DrawGraphAndSignal( pDC, pDrawingGraphData);

  002fe	8b 8f 94 00 00
	00		 mov	 ecx, DWORD PTR [edi+148]
  00304	53		 push	 ebx
  00305	ff 75 08	 push	 DWORD PTR _pDC$[ebp]
  00308	e8 00 00 00 00	 call	 ?DrawGraphAndSignal@CGraphImp@@QAEXPAVCDC@@PAVCDrawingGraphData@@@Z ; CGraphImp::DrawGraphAndSignal
$LN24@DrawGraphs:

; 1480 : 				}
; 1481 : 			}
; 1482 : 		}

  0030d	8d 4d 0c	 lea	 ecx, DWORD PTR _szIndiName$5[ebp]
  00310	ff 15 00 00 00
	00		 call	 DWORD PTR __imp_??1?$CStringT@DV?$StrTraitMFC_DLL@DV?$ChTraitsCRT@D@ATL@@@@@ATL@@QAE@XZ

; 1488 : 		}
; 1489 : 	}
; 1490 : // 	if( !bNoRegion) 
; 1491 : // 		if(nThread_Flag == THREAD_DRAWING)   //2009.01.06  -   .    .
; 1492 : // 			if(m_lpSelectedGraph)
; 1493 : // 				m_lpSelectedGraph->DrawGraphAndSignal( pDC, pDrawingGraphData);
; 1494 : 
; 1495 : // 	//NH-alzioyes.100616   .
; 1496 : // 	if( !bNoRegion) 
; 1497 : // 	{
; 1498 : // 		CString szIndiName;
; 1499 : // 		if(nThread_Flag == THREAD_DRAWING)
; 1500 : // 		{
; 1501 : // 			if(m_lpSelectedGraph && m_lpSelectedGraph->GetIndicatorInfo())
; 1502 : // 			{
; 1503 : // 				szIndiName = m_lpSelectedGraph->GetIndicatorInfo()->GetIndicatorName();
; 1504 : // 				if(szIndiName.Compare(_MTEXT( C2_OVERHANGING_SUPPLY))!=0)
; 1505 : // 					m_lpSelectedGraph->DrawGraphAndSignal( pDC, pDrawingGraphData);
; 1506 : // 			}
; 1507 : // 		}
; 1508 : // 	}
; 1509 : }

  00316	8b 4d f4	 mov	 ecx, DWORD PTR __$EHRec$[ebp]
  00319	64 89 0d 00 00
	00 00		 mov	 DWORD PTR fs:0, ecx
  00320	59		 pop	 ecx
  00321	5f		 pop	 edi
  00322	5e		 pop	 esi
  00323	5b		 pop	 ebx
  00324	8b e5		 mov	 esp, ebp
  00326	5d		 pop	 ebp
  00327	c2 14 00	 ret	 20			; 00000014H
$LN20@DrawGraphs:

; 1483 : 		else
; 1484 : 		{
; 1485 : 			if(nThread_Flag == THREAD_DRAWING)   //2009.01.06  -   .    .

  0032a	83 7d ec 02	 cmp	 DWORD PTR _nThread_Flag$1$[ebp], 2
  0032e	75 13		 jne	 SHORT $LN26@DrawGraphs

; 1486 : 				if(m_lpSelectedGraph)

  00330	8b 8f 94 00 00
	00		 mov	 ecx, DWORD PTR [edi+148]
  00336	85 c9		 test	 ecx, ecx
  00338	74 09		 je	 SHORT $LN26@DrawGraphs

; 1487 : 				m_lpSelectedGraph->DrawGraphAndSignal( pDC, pDrawingGraphData);

  0033a	53		 push	 ebx
  0033b	ff 75 08	 push	 DWORD PTR _pDC$[ebp]
  0033e	e8 00 00 00 00	 call	 ?DrawGraphAndSignal@CGraphImp@@QAEXPAVCDC@@PAVCDrawingGraphData@@@Z ; CGraphImp::DrawGraphAndSignal
$LN26@DrawGraphs:

; 1488 : 		}
; 1489 : 	}
; 1490 : // 	if( !bNoRegion) 
; 1491 : // 		if(nThread_Flag == THREAD_DRAWING)   //2009.01.06  -   .    .
; 1492 : // 			if(m_lpSelectedGraph)
; 1493 : // 				m_lpSelectedGraph->DrawGraphAndSignal( pDC, pDrawingGraphData);
; 1494 : 
; 1495 : // 	//NH-alzioyes.100616   .
; 1496 : // 	if( !bNoRegion) 
; 1497 : // 	{
; 1498 : // 		CString szIndiName;
; 1499 : // 		if(nThread_Flag == THREAD_DRAWING)
; 1500 : // 		{
; 1501 : // 			if(m_lpSelectedGraph && m_lpSelectedGraph->GetIndicatorInfo())
; 1502 : // 			{
; 1503 : // 				szIndiName = m_lpSelectedGraph->GetIndicatorInfo()->GetIndicatorName();
; 1504 : // 				if(szIndiName.Compare(_MTEXT( C2_OVERHANGING_SUPPLY))!=0)
; 1505 : // 					m_lpSelectedGraph->DrawGraphAndSignal( pDC, pDrawingGraphData);
; 1506 : // 			}
; 1507 : // 		}
; 1508 : // 	}
; 1509 : }

  00343	8b 4d f4	 mov	 ecx, DWORD PTR __$EHRec$[ebp]
  00346	64 89 0d 00 00
	00 00		 mov	 DWORD PTR fs:0, ecx
  0034d	59		 pop	 ecx
  0034e	5f		 pop	 edi
  0034f	5e		 pop	 esi
  00350	5b		 pop	 ebx
  00351	8b e5		 mov	 esp, ebp
  00353	5d		 pop	 ebp
  00354	c2 14 00	 ret	 20			; 00000014H
_TEXT	ENDS
;	COMDAT text$x
text$x	SEGMENT
__unwindfunclet$?DrawGraphs@CVertScaleGroup@@QAEXPAVCDC@@PAVCDrawingGraphData@@AAH22@Z$0:
  00000	8d 4d e8	 lea	 ecx, DWORD PTR $T4[ebp]
  00003	ff 25 00 00 00
	00		 jmp	 DWORD PTR __imp_??1?$CStringT@DV?$StrTraitMFC_DLL@DV?$ChTraitsCRT@D@ATL@@@@@ATL@@QAE@XZ
__unwindfunclet$?DrawGraphs@CVertScaleGroup@@QAEXPAVCDC@@PAVCDrawingGraphData@@AAH22@Z$1:
  00009	8d 4d e8	 lea	 ecx, DWORD PTR _szIndiName$3[ebp]
  0000c	ff 25 00 00 00
	00		 jmp	 DWORD PTR __imp_??1?$CStringT@DV?$StrTraitMFC_DLL@DV?$ChTraitsCRT@D@ATL@@@@@ATL@@QAE@XZ
__unwindfunclet$?DrawGraphs@CVertScaleGroup@@QAEXPAVCDC@@PAVCDrawingGraphData@@AAH22@Z$2:
  00012	8d 4d d4	 lea	 ecx, DWORD PTR $T2[ebp]
  00015	ff 25 00 00 00
	00		 jmp	 DWORD PTR __imp_??1?$CStringT@DV?$StrTraitMFC_DLL@DV?$ChTraitsCRT@D@ATL@@@@@ATL@@QAE@XZ
__unwindfunclet$?DrawGraphs@CVertScaleGroup@@QAEXPAVCDC@@PAVCDrawingGraphData@@AAH22@Z$3:
  0001b	8d 4d 0c	 lea	 ecx, DWORD PTR _szIndiName$5[ebp]
  0001e	ff 25 00 00 00
	00		 jmp	 DWORD PTR __imp_??1?$CStringT@DV?$StrTraitMFC_DLL@DV?$ChTraitsCRT@D@ATL@@@@@ATL@@QAE@XZ
__unwindfunclet$?DrawGraphs@CVertScaleGroup@@QAEXPAVCDC@@PAVCDrawingGraphData@@AAH22@Z$4:
  00024	8d 4d 10	 lea	 ecx, DWORD PTR $T6[ebp]
  00027	ff 25 00 00 00
	00		 jmp	 DWORD PTR __imp_??1?$CStringT@DV?$StrTraitMFC_DLL@DV?$ChTraitsCRT@D@ATL@@@@@ATL@@QAE@XZ
  0002d	cc		 int	 3
  0002e	cc		 int	 3
  0002f	cc		 int	 3
  00030	cc		 int	 3
  00031	cc		 int	 3
__ehhandler$?DrawGraphs@CVertScaleGroup@@QAEXPAVCDC@@PAVCDrawingGraphData@@AAH22@Z:
  00032	90		 npad	 1
  00033	90		 npad	 1
  00034	8b 54 24 08	 mov	 edx, DWORD PTR [esp+8]
  00038	8d 42 0c	 lea	 eax, DWORD PTR [edx+12]
  0003b	8b 4a d0	 mov	 ecx, DWORD PTR [edx-48]
  0003e	33 c8		 xor	 ecx, eax
  00040	e8 00 00 00 00	 call	 @__security_check_cookie@4
  00045	b8 00 00 00 00	 mov	 eax, OFFSET __ehfuncinfo$?DrawGraphs@CVertScaleGroup@@QAEXPAVCDC@@PAVCDrawingGraphData@@AAH22@Z
  0004a	e9 00 00 00 00	 jmp	 ___CxxFrameHandler3
text$x	ENDS
?DrawGraphs@CVertScaleGroup@@QAEXPAVCDC@@PAVCDrawingGraphData@@AAH22@Z ENDP ; CVertScaleGroup::DrawGraphs
; Function compile flags: /Ogtp
; File D:\git\src\IBK\IBK_DRFN\ProjSrc\SrcChartEx\ChartOCX\ChartObject\VertScaleGroup.cpp
;	COMDAT ?DrawVertScale@CVertScaleGroup@@QAEXPAVCDC@@PAVCDrawingVertScaleData@@ABVCDrawingRegion@@@Z
_TEXT	SEGMENT
$T2 = -68						; size = 4
_pDC$GSCopy$1$ = -64					; size = 4
_drawingRegion$GSCopy$1$ = -60				; size = 4
$T3 = -53						; size = 1
$T4 = -52						; size = 4
$T5 = -52						; size = 4
$T6 = -52						; size = 4
$T7 = -52						; size = 4
$T8 = -48						; size = 32
__$ArrayPad$ = -16					; size = 4
__$EHRec$ = -12						; size = 12
_pDC$ = 8						; size = 4
_pDrawingVertScaleData$ = 12				; size = 4
_drawingRegion$ = 16					; size = 4
?DrawVertScale@CVertScaleGroup@@QAEXPAVCDC@@PAVCDrawingVertScaleData@@ABVCDrawingRegion@@@Z PROC ; CVertScaleGroup::DrawVertScale, COMDAT
; _this$ = ecx

; 1367 : {

  00000	55		 push	 ebp
  00001	8b ec		 mov	 ebp, esp
  00003	6a ff		 push	 -1
  00005	68 00 00 00 00	 push	 __ehhandler$?DrawVertScale@CVertScaleGroup@@QAEXPAVCDC@@PAVCDrawingVertScaleData@@ABVCDrawingRegion@@@Z
  0000a	64 a1 00 00 00
	00		 mov	 eax, DWORD PTR fs:0
  00010	50		 push	 eax
  00011	83 ec 38	 sub	 esp, 56			; 00000038H
  00014	a1 00 00 00 00	 mov	 eax, DWORD PTR ___security_cookie
  00019	33 c5		 xor	 eax, ebp
  0001b	89 45 f0	 mov	 DWORD PTR __$ArrayPad$[ebp], eax
  0001e	53		 push	 ebx
  0001f	56		 push	 esi
  00020	57		 push	 edi
  00021	50		 push	 eax
  00022	8d 45 f4	 lea	 eax, DWORD PTR __$EHRec$[ebp]
  00025	64 a3 00 00 00
	00		 mov	 DWORD PTR fs:0, eax
  0002b	8b f1		 mov	 esi, ecx
  0002d	8b 45 08	 mov	 eax, DWORD PTR _pDC$[ebp]
  00030	8b 7d 0c	 mov	 edi, DWORD PTR _pDrawingVertScaleData$[ebp]
  00033	89 45 c0	 mov	 DWORD PTR _pDC$GSCopy$1$[ebp], eax
  00036	8b 45 10	 mov	 eax, DWORD PTR _drawingRegion$[ebp]
  00039	89 45 c4	 mov	 DWORD PTR _drawingRegion$GSCopy$1$[ebp], eax

; 1368 : 	if(!IsVertScaleDrawing() || pDrawingVertScaleData == NULL) return;

  0003c	e8 00 00 00 00	 call	 ?IsVertScaleDrawing@CVertScaleGroup@@ABE_NXZ ; CVertScaleGroup::IsVertScaleDrawing
  00041	84 c0		 test	 al, al
  00043	0f 84 9a 01 00
	00		 je	 $LN3@DrawVertSc
  00049	85 ff		 test	 edi, edi
  0004b	0f 84 92 01 00
	00		 je	 $LN3@DrawVertSc

; 1369 : 
; 1370 : 	// (2008/12/19 - Seung-Won, Bae) Calc it in VScale Draw for Including BaseLine.
; 1371 : 	//real data  Min/Max .
; 1372 : 	CalculateDisplayDataMinMax();

  00051	8b ce		 mov	 ecx, esi
  00053	e8 00 00 00 00	 call	 ?CalculateDisplayDataMinMax@CVertScaleGroup@@QAEXXZ ; CVertScaleGroup::CalculateDisplayDataMinMax

; 1373 : 
; 1374 : 	// (2006/11/19 - Seung-Won, Bae) Deny to draw of Not-Initialized Scale.
; 1375 : 	if( !m_displayDataMinMax.IsInitialized()) return;

  00058	8d 5e 68	 lea	 ebx, DWORD PTR [esi+104]
  0005b	8b cb		 mov	 ecx, ebx
  0005d	ff 15 00 00 00
	00		 call	 DWORD PTR __imp_?IsInitialized@CDisplayDataMinMax@@QBEHXZ
  00063	85 c0		 test	 eax, eax
  00065	0f 84 78 01 00
	00		 je	 $LN3@DrawVertSc

; 1967 : 	if(pDrawingVertScaleData == NULL || m_GraphList.GetCount() <= 0)

  0006b	83 be 84 00 00
	00 00		 cmp	 DWORD PTR [esi+132], 0
  00072	0f 8e 17 01 00
	00		 jle	 $LN8@DrawVertSc

; 1968 : 		return;
; 1969 : 
; 1970 : 	// (2007/1/14 - Seung-Won, Bae) Get the Base Packet for Default Scale Min/Max
; 1971 : 	if( !m_pBaseGraph && !m_pBasePacket) return;

  00078	83 be 98 00 00
	00 00		 cmp	 DWORD PTR [esi+152], 0
  0007f	75 0d		 jne	 SHORT $LN20@DrawVertSc
  00081	83 be 9c 00 00
	00 00		 cmp	 DWORD PTR [esi+156], 0
  00088	0f 84 01 01 00
	00		 je	 $LN8@DrawVertSc
$LN20@DrawVertSc:

; 1972 : 
; 1973 : 	pDrawingVertScaleData->SetDisplayDataMinMax(	m_displayDataMinMax);

  0008e	53		 push	 ebx
  0008f	8b cf		 mov	 ecx, edi
  00091	e8 00 00 00 00	 call	 ?SetDisplayDataMinMax@CDrawingVertScaleData@@QAEXABVCDisplayDataMinMax@@@Z ; CDrawingVertScaleData::SetDisplayDataMinMax

; 1974 : 	pDrawingVertScaleData->SetIndicatorName(		m_pBaseGraph->GetGraphData().GetIndicatorName());

  00096	8b 8e 98 00 00
	00		 mov	 ecx, DWORD PTR [esi+152]
  0009c	8d 45 cc	 lea	 eax, DWORD PTR $T7[ebp]
  0009f	50		 push	 eax
  000a0	e8 00 00 00 00	 call	 ?GetGraphData@CGraphImp@@QAEAAVCGraphData@@XZ ; CGraphImp::GetGraphData
  000a5	8b c8		 mov	 ecx, eax
  000a7	ff 15 00 00 00
	00		 call	 DWORD PTR __imp_?GetIndicatorName@CGraphData@@QBE?AV?$CStringT@DV?$StrTraitMFC_DLL@DV?$ChTraitsCRT@D@ATL@@@@@ATL@@XZ
  000ad	50		 push	 eax
  000ae	8b cf		 mov	 ecx, edi
  000b0	c7 45 fc 00 00
	00 00		 mov	 DWORD PTR __$EHRec$[ebp+8], 0
  000b7	e8 00 00 00 00	 call	 ?SetIndicatorName@CDrawingVertScaleData@@QAEXABV?$CStringT@DV?$StrTraitMFC_DLL@DV?$ChTraitsCRT@D@ATL@@@@@ATL@@@Z ; CDrawingVertScaleData::SetIndicatorName
  000bc	8d 4d cc	 lea	 ecx, DWORD PTR $T7[ebp]
  000bf	c7 45 fc ff ff
	ff ff		 mov	 DWORD PTR __$EHRec$[ebp+8], -1
  000c6	ff 15 00 00 00
	00		 call	 DWORD PTR __imp_??1?$CStringT@DV?$StrTraitMFC_DLL@DV?$ChTraitsCRT@D@ATL@@@@@ATL@@QAE@XZ

; 1975 : 	pDrawingVertScaleData->SetSubGraphNames(		m_pBaseGraph->GetSubGraphList().GetViewableSubGraphNames());

  000cc	8b 8e 98 00 00
	00		 mov	 ecx, DWORD PTR [esi+152]
  000d2	8d 45 cc	 lea	 eax, DWORD PTR $T6[ebp]
  000d5	50		 push	 eax
  000d6	e8 00 00 00 00	 call	 ?GetSubGraphList@CGraphImp@@QAEAAVCSubGraphList@@XZ ; CGraphImp::GetSubGraphList
  000db	8b c8		 mov	 ecx, eax
  000dd	e8 00 00 00 00	 call	 ?GetViewableSubGraphNames@CSubGraphList@@QBE?AV?$CStringT@DV?$StrTraitMFC_DLL@DV?$ChTraitsCRT@D@ATL@@@@@ATL@@XZ ; CSubGraphList::GetViewableSubGraphNames
  000e2	50		 push	 eax
  000e3	8b cf		 mov	 ecx, edi
  000e5	c7 45 fc 01 00
	00 00		 mov	 DWORD PTR __$EHRec$[ebp+8], 1
  000ec	e8 00 00 00 00	 call	 ?SetSubGraphNames@CDrawingVertScaleData@@QAEXABV?$CStringT@DV?$StrTraitMFC_DLL@DV?$ChTraitsCRT@D@ATL@@@@@ATL@@@Z ; CDrawingVertScaleData::SetSubGraphNames
  000f1	8d 4d cc	 lea	 ecx, DWORD PTR $T6[ebp]
  000f4	c7 45 fc ff ff
	ff ff		 mov	 DWORD PTR __$EHRec$[ebp+8], -1
  000fb	ff 15 00 00 00
	00		 call	 DWORD PTR __imp_??1?$CStringT@DV?$StrTraitMFC_DLL@DV?$ChTraitsCRT@D@ATL@@@@@ATL@@QAE@XZ

; 1976 : 	pDrawingVertScaleData->SetPacketNames(			m_pBaseGraph->GetGraphData().GetPacketNames());

  00101	8b 8e 98 00 00
	00		 mov	 ecx, DWORD PTR [esi+152]
  00107	8d 45 cc	 lea	 eax, DWORD PTR $T5[ebp]
  0010a	50		 push	 eax
  0010b	e8 00 00 00 00	 call	 ?GetGraphData@CGraphImp@@QAEAAVCGraphData@@XZ ; CGraphImp::GetGraphData
  00110	8b c8		 mov	 ecx, eax
  00112	ff 15 00 00 00
	00		 call	 DWORD PTR __imp_?GetPacketNames@CGraphData@@QBE?AV?$CStringT@DV?$StrTraitMFC_DLL@DV?$ChTraitsCRT@D@ATL@@@@@ATL@@XZ
  00118	50		 push	 eax
  00119	8b cf		 mov	 ecx, edi
  0011b	c7 45 fc 02 00
	00 00		 mov	 DWORD PTR __$EHRec$[ebp+8], 2
  00122	e8 00 00 00 00	 call	 ?SetPacketNames@CDrawingVertScaleData@@QAEXABV?$CStringT@DV?$StrTraitMFC_DLL@DV?$ChTraitsCRT@D@ATL@@@@@ATL@@@Z ; CDrawingVertScaleData::SetPacketNames
  00127	8d 4d cc	 lea	 ecx, DWORD PTR $T5[ebp]
  0012a	c7 45 fc ff ff
	ff ff		 mov	 DWORD PTR __$EHRec$[ebp+8], -1
  00131	ff 15 00 00 00
	00		 call	 DWORD PTR __imp_??1?$CStringT@DV?$StrTraitMFC_DLL@DV?$ChTraitsCRT@D@ATL@@@@@ATL@@QAE@XZ

; 1977 : 	pDrawingVertScaleData->SetIndicatorInfo(		m_pBaseGraph->GetIndicatorInfo());

  00137	8b 8e 98 00 00
	00		 mov	 ecx, DWORD PTR [esi+152]
  0013d	e8 00 00 00 00	 call	 ?GetIndicatorInfo@CGraphImp@@QAEPAVCIndicatorInfo@@XZ ; CGraphImp::GetIndicatorInfo
  00142	50		 push	 eax
  00143	8b cf		 mov	 ecx, edi
  00145	e8 00 00 00 00	 call	 ?SetIndicatorInfo@CDrawingVertScaleData@@QAEXPAVCIndicatorInfo@@@Z ; CDrawingVertScaleData::SetIndicatorInfo

; 1978 : 	pDrawingVertScaleData->SetPacket(				m_pBasePacket);

  0014a	ff b6 9c 00 00
	00		 push	 DWORD PTR [esi+156]
  00150	8b cf		 mov	 ecx, edi
  00152	e8 00 00 00 00	 call	 ?SetPacket@CDrawingVertScaleData@@QAEXPAVCPacket@@@Z ; CDrawingVertScaleData::SetPacket

; 1979 : 
; 1980 : 	if( pDrawingVertScaleData->GetScaleDrawerType() == CScaleBaseData::VERT_NOTYPE){

  00157	8b cf		 mov	 ecx, edi
  00159	e8 00 00 00 00	 call	 ?GetScaleDrawerType@CDrawingVertScaleData@@QBE?AW4VERTSCALEDRAWERTYPE@CScaleBaseData@@XZ ; CDrawingVertScaleData::GetScaleDrawerType
  0015e	85 c0		 test	 eax, eax
  00160	75 2d		 jne	 SHORT $LN8@DrawVertSc

; 1981 : 		// <> <>   -> ScaleDrawerType : <+>
; 1982 : 		if( m_pBaseGraph->GetSubGraphList().IsViewableGraphStyle(CGraphBaseData::Bar_Type, CGraphBaseData::FixedRateCombBar, 0))

  00162	8b 8e 98 00 00
	00		 mov	 ecx, DWORD PTR [esi+152]
  00168	50		 push	 eax
  00169	6a 0e		 push	 14			; 0000000eH
  0016b	6a 02		 push	 2
  0016d	e8 00 00 00 00	 call	 ?GetSubGraphList@CGraphImp@@QAEAAVCSubGraphList@@XZ ; CGraphImp::GetSubGraphList
  00172	8b c8		 mov	 ecx, eax
  00174	e8 00 00 00 00	 call	 ?IsViewableGraphStyle@CSubGraphList@@QBE_NW4GRAPHTYPE@CGraphBaseData@@HH@Z ; CSubGraphList::IsViewableGraphStyle
  00179	84 c0		 test	 al, al
  0017b	74 12		 je	 SHORT $LN8@DrawVertSc

; 1983 : 			pDrawingVertScaleData->SetScaleDrawerType(CScaleBaseData::VERT_TOPBUTTOM_PLUS);

  0017d	8d 45 cc	 lea	 eax, DWORD PTR $T4[ebp]
  00180	c7 45 cc 0a 00
	00 00		 mov	 DWORD PTR $T4[ebp], 10	; 0000000aH
  00187	50		 push	 eax
  00188	8b cf		 mov	 ecx, edi
  0018a	e8 00 00 00 00	 call	 ?SetScaleDrawerType@CDrawingVertScaleData@@QAEXABW4VERTSCALEDRAWERTYPE@CScaleBaseData@@@Z ; CDrawingVertScaleData::SetScaleDrawerType
$LN8@DrawVertSc:

; 1376 : 
; 1377 : 	SetDrawingVertScaleData(pDrawingVertScaleData);
; 1378 : 	CBlockScaleDrawer().DrawVertScale(pDC, pDrawingVertScaleData, drawingRegion.GetVertScaleRegion(), m_vertScale, m_pMainBlockBaseData->GetParent_Handle(), m_pMainBlockBaseData->GetMainAttributes().GetChartMode());

  0018f	8b 4e 08	 mov	 ecx, DWORD PTR [esi+8]
  00192	e8 00 00 00 00	 call	 ?GetMainAttributes@CMainBlockBaseData@@QAEAAVCMainAttributes@@XZ ; CMainBlockBaseData::GetMainAttributes
  00197	8b c8		 mov	 ecx, eax
  00199	e8 00 00 00 00	 call	 ?GetChartMode@CMainAttributes@@QBE?AW4CHART_MODE@CChartInfo@@XZ ; CMainAttributes::GetChartMode
  0019e	8b 4e 08	 mov	 ecx, DWORD PTR [esi+8]
  001a1	50		 push	 eax
  001a2	e8 00 00 00 00	 call	 ?GetParent_Handle@CMainBlockBaseData@@QBEPAUHWND__@@XZ ; CMainBlockBaseData::GetParent_Handle
  001a7	8b 4d c4	 mov	 ecx, DWORD PTR _drawingRegion$GSCopy$1$[ebp]
  001aa	50		 push	 eax
  001ab	8d 46 10	 lea	 eax, DWORD PTR [esi+16]
  001ae	50		 push	 eax
  001af	8d 45 d0	 lea	 eax, DWORD PTR $T8[ebp]
  001b2	50		 push	 eax
  001b3	e8 00 00 00 00	 call	 ?GetVertScaleRegion@CDrawingRegion@@QBE?AVCVertScaleRegion@@XZ ; CDrawingRegion::GetVertScaleRegion
  001b8	50		 push	 eax
  001b9	57		 push	 edi
  001ba	ff 75 c0	 push	 DWORD PTR _pDC$GSCopy$1$[ebp]
  001bd	8d 4d cb	 lea	 ecx, DWORD PTR $T3[ebp]
  001c0	e8 00 00 00 00	 call	 ?DrawVertScale@CBlockScaleDrawer@@QAEXPAVCDC@@PAVCDrawingVertScaleData@@ABVCVertScaleRegion@@ABVCVerticalScale@@PAUHWND__@@W4CHART_MODE@CChartInfo@@@Z ; CBlockScaleDrawer::DrawVertScale

; 1990 : 	if(pDrawingVertScaleData->GetScaleDrawerType() == CScaleBaseData::VERT_LOG)

  001c5	8b cf		 mov	 ecx, edi
  001c7	e8 00 00 00 00	 call	 ?GetScaleDrawerType@CDrawingVertScaleData@@QBE?AW4VERTSCALEDRAWERTYPE@CScaleBaseData@@XZ ; CDrawingVertScaleData::GetScaleDrawerType
  001cc	83 f8 08	 cmp	 eax, 8
  001cf	74 12		 je	 SHORT $LN3@DrawVertSc

; 1991 : 		return;
; 1992 : 
; 1993 : 	pDrawingVertScaleData->SetScaleDrawerType(CScaleBaseData::VERT_NOTYPE);

  001d1	8d 45 bc	 lea	 eax, DWORD PTR $T2[ebp]
  001d4	c7 45 bc 00 00
	00 00		 mov	 DWORD PTR $T2[ebp], 0
  001db	50		 push	 eax
  001dc	8b cf		 mov	 ecx, edi
  001de	e8 00 00 00 00	 call	 ?SetScaleDrawerType@CDrawingVertScaleData@@QAEXABW4VERTSCALEDRAWERTYPE@CScaleBaseData@@@Z ; CDrawingVertScaleData::SetScaleDrawerType
$LN3@DrawVertSc:

; 1379 : 	InitializeDrawingVertScaleData(pDrawingVertScaleData);
; 1380 : }

  001e3	8b 4d f4	 mov	 ecx, DWORD PTR __$EHRec$[ebp]
  001e6	64 89 0d 00 00
	00 00		 mov	 DWORD PTR fs:0, ecx
  001ed	59		 pop	 ecx
  001ee	5f		 pop	 edi
  001ef	5e		 pop	 esi
  001f0	5b		 pop	 ebx
  001f1	8b 4d f0	 mov	 ecx, DWORD PTR __$ArrayPad$[ebp]
  001f4	33 cd		 xor	 ecx, ebp
  001f6	e8 00 00 00 00	 call	 @__security_check_cookie@4
  001fb	8b e5		 mov	 esp, ebp
  001fd	5d		 pop	 ebp
  001fe	c2 0c 00	 ret	 12			; 0000000cH
_TEXT	ENDS
;	COMDAT text$x
text$x	SEGMENT
__unwindfunclet$?DrawVertScale@CVertScaleGroup@@QAEXPAVCDC@@PAVCDrawingVertScaleData@@ABVCDrawingRegion@@@Z$0:
  00000	8d 4d cc	 lea	 ecx, DWORD PTR $T7[ebp]
  00003	ff 25 00 00 00
	00		 jmp	 DWORD PTR __imp_??1?$CStringT@DV?$StrTraitMFC_DLL@DV?$ChTraitsCRT@D@ATL@@@@@ATL@@QAE@XZ
__unwindfunclet$?DrawVertScale@CVertScaleGroup@@QAEXPAVCDC@@PAVCDrawingVertScaleData@@ABVCDrawingRegion@@@Z$1:
  00009	8d 4d cc	 lea	 ecx, DWORD PTR $T6[ebp]
  0000c	ff 25 00 00 00
	00		 jmp	 DWORD PTR __imp_??1?$CStringT@DV?$StrTraitMFC_DLL@DV?$ChTraitsCRT@D@ATL@@@@@ATL@@QAE@XZ
__unwindfunclet$?DrawVertScale@CVertScaleGroup@@QAEXPAVCDC@@PAVCDrawingVertScaleData@@ABVCDrawingRegion@@@Z$2:
  00012	8d 4d cc	 lea	 ecx, DWORD PTR $T5[ebp]
  00015	ff 25 00 00 00
	00		 jmp	 DWORD PTR __imp_??1?$CStringT@DV?$StrTraitMFC_DLL@DV?$ChTraitsCRT@D@ATL@@@@@ATL@@QAE@XZ
  0001b	cc		 int	 3
  0001c	cc		 int	 3
  0001d	cc		 int	 3
  0001e	cc		 int	 3
  0001f	cc		 int	 3
__ehhandler$?DrawVertScale@CVertScaleGroup@@QAEXPAVCDC@@PAVCDrawingVertScaleData@@ABVCDrawingRegion@@@Z:
  00020	90		 npad	 1
  00021	90		 npad	 1
  00022	8b 54 24 08	 mov	 edx, DWORD PTR [esp+8]
  00026	8d 42 0c	 lea	 eax, DWORD PTR [edx+12]
  00029	8b 4a b8	 mov	 ecx, DWORD PTR [edx-72]
  0002c	33 c8		 xor	 ecx, eax
  0002e	e8 00 00 00 00	 call	 @__security_check_cookie@4
  00033	8b 4a fc	 mov	 ecx, DWORD PTR [edx-4]
  00036	33 c8		 xor	 ecx, eax
  00038	e8 00 00 00 00	 call	 @__security_check_cookie@4
  0003d	b8 00 00 00 00	 mov	 eax, OFFSET __ehfuncinfo$?DrawVertScale@CVertScaleGroup@@QAEXPAVCDC@@PAVCDrawingVertScaleData@@ABVCDrawingRegion@@@Z
  00042	e9 00 00 00 00	 jmp	 ___CxxFrameHandler3
text$x	ENDS
?DrawVertScale@CVertScaleGroup@@QAEXPAVCDC@@PAVCDrawingVertScaleData@@ABVCDrawingRegion@@@Z ENDP ; CVertScaleGroup::DrawVertScale
; Function compile flags: /Ogtp
; File D:\git\src\IBK\IBK_DRFN\ProjSrc\SrcChartEx\ChartOCX\ChartObject\VertScaleGroup.cpp
; File C:\Program Files (x86)\Microsoft Visual Studio\2019\Community\VC\Tools\MSVC\14.29.30133\atlmfc\include\afxcoll.inl
; File C:\Program Files (x86)\Microsoft Visual Studio\2019\Community\VC\Tools\MSVC\14.29.30133\atlmfc\include\afxtempl.h
; File D:\git\src\IBK\IBK_DRFN\ProjSrc\SrcChartEx\ChartOCX\ChartObject\VertScaleGroup.cpp
;	COMDAT ?DoesUseEqualIndicatorInfo@CVertScaleGroup@@QBE_NPBVCIndicatorInfo@@PBVCGraphImp@@@Z
_TEXT	SEGMENT
_pIndiInfo$ = 8						; size = 4
_pExceptionGraph$ = 12					; size = 4
?DoesUseEqualIndicatorInfo@CVertScaleGroup@@QBE_NPBVCIndicatorInfo@@PBVCGraphImp@@@Z PROC ; CVertScaleGroup::DoesUseEqualIndicatorInfo, COMDAT
; _this$ = ecx

; 1351 : {

  00000	55		 push	 ebp
  00001	8b ec		 mov	 ebp, esp
  00003	53		 push	 ebx
  00004	56		 push	 esi

; 1352 : 	POSITION pos = m_GraphList.GetHeadPosition();

  00005	8b 71 7c	 mov	 esi, DWORD PTR [ecx+124]
  00008	57		 push	 edi

; 1353 : 	while(pos != NULL){

  00009	85 f6		 test	 esi, esi
  0000b	74 1e		 je	 SHORT $LN20@DoesUseEqu
  0000d	8b 7d 0c	 mov	 edi, DWORD PTR _pExceptionGraph$[ebp]
  00010	8b 5d 08	 mov	 ebx, DWORD PTR _pIndiInfo$[ebp]
$LL2@DoesUseEqu:
; File C:\Program Files (x86)\Microsoft Visual Studio\2019\Community\VC\Tools\MSVC\14.29.30133\atlmfc\include\afxcoll.inl

; 435  : 	{ CNode* pNode = (CNode*) rPosition;

  00013	8b c6		 mov	 eax, esi

; 436  : 		ASSERT(AfxIsValidAddress(pNode, sizeof(CNode)));
; 437  : 		if( pNode == NULL )
; 438  : 			AfxThrowInvalidArgException();
; 439  : 		rPosition = (POSITION) pNode->pNext;

  00015	8b 36		 mov	 esi, DWORD PTR [esi]
; File C:\Program Files (x86)\Microsoft Visual Studio\2019\Community\VC\Tools\MSVC\14.29.30133\atlmfc\include\afxtempl.h

; 1898 : 		{ return (TYPE)BASE_CLASS::GetNext(rPosition); }

  00017	8b 48 08	 mov	 ecx, DWORD PTR [eax+8]
; File D:\git\src\IBK\IBK_DRFN\ProjSrc\SrcChartEx\ChartOCX\ChartObject\VertScaleGroup.cpp

; 1356 : 		if(pGraph == pExceptionGraph)

  0001a	3b cf		 cmp	 ecx, edi
  0001c	74 09		 je	 SHORT $LN5@DoesUseEqu

; 1357 : 			continue;
; 1358 : 		if(pGraph->GetIndicatorInfo() == pIndiInfo)

  0001e	e8 00 00 00 00	 call	 ?GetIndicatorInfo@CGraphImp@@QAEPAVCIndicatorInfo@@XZ ; CGraphImp::GetIndicatorInfo
  00023	3b c3		 cmp	 eax, ebx
  00025	74 0d		 je	 SHORT $LN17@DoesUseEqu
$LN5@DoesUseEqu:

; 1353 : 	while(pos != NULL){

  00027	85 f6		 test	 esi, esi
  00029	75 e8		 jne	 SHORT $LL2@DoesUseEqu
$LN20@DoesUseEqu:
  0002b	5f		 pop	 edi

; 1359 : 			return true;
; 1360 : 	}
; 1361 : 	return false;
; 1362 : }

  0002c	5e		 pop	 esi
  0002d	32 c0		 xor	 al, al
  0002f	5b		 pop	 ebx
  00030	5d		 pop	 ebp
  00031	c2 08 00	 ret	 8
$LN17@DoesUseEqu:
  00034	5f		 pop	 edi
  00035	5e		 pop	 esi
  00036	b0 01		 mov	 al, 1
  00038	5b		 pop	 ebx
  00039	5d		 pop	 ebp
  0003a	c2 08 00	 ret	 8
?DoesUseEqualIndicatorInfo@CVertScaleGroup@@QBE_NPBVCIndicatorInfo@@PBVCGraphImp@@@Z ENDP ; CVertScaleGroup::DoesUseEqualIndicatorInfo
_TEXT	ENDS
; Function compile flags: /Ogtp
; File D:\git\src\IBK\IBK_DRFN\ProjSrc\SrcChartEx\ChartOCX\ChartObject\VertScaleGroup.cpp
; File C:\Program Files (x86)\Microsoft Visual Studio\2019\Community\VC\Tools\MSVC\14.29.30133\atlmfc\include\afxcoll.inl
; File D:\git\src\IBK\IBK_DRFN\ProjSrc\SrcChartEx\ChartOCX\ChartObject\VertScaleGroup.cpp
;	COMDAT ?DoesAreHidingAllGraphs@CVertScaleGroup@@QBE_NXZ
_TEXT	SEGMENT
?DoesAreHidingAllGraphs@CVertScaleGroup@@QBE_NXZ PROC	; CVertScaleGroup::DoesAreHidingAllGraphs, COMDAT
; _this$ = ecx

; 1337 : {

  00000	56		 push	 esi

; 1338 : 	POSITION pos = m_GraphList.GetHeadPosition();

  00001	8b 71 7c	 mov	 esi, DWORD PTR [ecx+124]

; 1339 : 	while(pos != NULL){

  00004	85 f6		 test	 esi, esi
  00006	74 21		 je	 SHORT $LN3@DoesAreHid
  00008	0f 1f 84 00 00
	00 00 00	 npad	 8
$LL2@DoesAreHid:

; 1342 : 		if(!pGraph->GetSubGraphList().AreHidingAllSubGraphs())

  00010	8b 4e 08	 mov	 ecx, DWORD PTR [esi+8]
; File C:\Program Files (x86)\Microsoft Visual Studio\2019\Community\VC\Tools\MSVC\14.29.30133\atlmfc\include\afxcoll.inl

; 439  : 		rPosition = (POSITION) pNode->pNext;

  00013	8b 36		 mov	 esi, DWORD PTR [esi]
; File D:\git\src\IBK\IBK_DRFN\ProjSrc\SrcChartEx\ChartOCX\ChartObject\VertScaleGroup.cpp

; 1342 : 		if(!pGraph->GetSubGraphList().AreHidingAllSubGraphs())

  00015	e8 00 00 00 00	 call	 ?GetSubGraphList@CGraphImp@@QAEAAVCSubGraphList@@XZ ; CGraphImp::GetSubGraphList
  0001a	8b c8		 mov	 ecx, eax
  0001c	e8 00 00 00 00	 call	 ?AreHidingAllSubGraphs@CSubGraphList@@QBE_NXZ ; CSubGraphList::AreHidingAllSubGraphs
  00021	84 c0		 test	 al, al
  00023	74 08		 je	 SHORT $LN15@DoesAreHid

; 1339 : 	while(pos != NULL){

  00025	85 f6		 test	 esi, esi
  00027	75 e7		 jne	 SHORT $LL2@DoesAreHid
$LN3@DoesAreHid:

; 1344 : 	}
; 1345 : 	return true;

  00029	b0 01		 mov	 al, 1
  0002b	5e		 pop	 esi

; 1346 : }

  0002c	c3		 ret	 0
$LN15@DoesAreHid:

; 1343 : 			return false;

  0002d	32 c0		 xor	 al, al
  0002f	5e		 pop	 esi

; 1346 : }

  00030	c3		 ret	 0
?DoesAreHidingAllGraphs@CVertScaleGroup@@QBE_NXZ ENDP	; CVertScaleGroup::DoesAreHidingAllGraphs
_TEXT	ENDS
; Function compile flags: /Ogtp
; File D:\git\src\IBK\IBK_DRFN\ProjSrc\SrcChartEx\ChartOCX\ChartObject\VertScaleGroup.cpp
; File C:\Program Files (x86)\Microsoft Visual Studio\2019\Community\VC\Tools\MSVC\14.29.30133\atlmfc\include\afxcoll.inl
; File D:\git\src\IBK\IBK_DRFN\ProjSrc\SrcChartEx\ChartOCX\ChartObject\VertScaleGroup.cpp
;	COMDAT ?IsViewableGraphDrawStyle@CVertScaleGroup@@QBE_NW4GRAPHTYPE@CGraphBaseData@@HH@Z
_TEXT	SEGMENT
_eGraphType$ = 8					; size = 4
_nGraphStyle$ = 12					; size = 4
_nDrawStyle$ = 16					; size = 4
?IsViewableGraphDrawStyle@CVertScaleGroup@@QBE_NW4GRAPHTYPE@CGraphBaseData@@HH@Z PROC ; CVertScaleGroup::IsViewableGraphDrawStyle, COMDAT
; _this$ = ecx

; 1324 : {

  00000	55		 push	 ebp
  00001	8b ec		 mov	 ebp, esp
  00003	53		 push	 ebx
  00004	56		 push	 esi

; 1325 : 	POSITION pos = m_GraphList.GetHeadPosition();

  00005	8b 71 7c	 mov	 esi, DWORD PTR [ecx+124]
  00008	57		 push	 edi

; 1326 : 	while(pos != NULL){

  00009	85 f6		 test	 esi, esi
  0000b	74 24		 je	 SHORT $LN3@IsViewable
  0000d	8b 7d 10	 mov	 edi, DWORD PTR _nDrawStyle$[ebp]
  00010	8b 5d 0c	 mov	 ebx, DWORD PTR _nGraphStyle$[ebp]
$LL2@IsViewable:

; 1329 : 		if(pGraph->GetSubGraphList().IsViewableGraphDrawStyle(eGraphType, nGraphStyle, nDrawStyle))

  00013	8b 4e 08	 mov	 ecx, DWORD PTR [esi+8]
; File C:\Program Files (x86)\Microsoft Visual Studio\2019\Community\VC\Tools\MSVC\14.29.30133\atlmfc\include\afxcoll.inl

; 439  : 		rPosition = (POSITION) pNode->pNext;

  00016	8b 36		 mov	 esi, DWORD PTR [esi]
; File D:\git\src\IBK\IBK_DRFN\ProjSrc\SrcChartEx\ChartOCX\ChartObject\VertScaleGroup.cpp

; 1329 : 		if(pGraph->GetSubGraphList().IsViewableGraphDrawStyle(eGraphType, nGraphStyle, nDrawStyle))

  00018	57		 push	 edi
  00019	53		 push	 ebx
  0001a	ff 75 08	 push	 DWORD PTR _eGraphType$[ebp]
  0001d	e8 00 00 00 00	 call	 ?GetSubGraphList@CGraphImp@@QAEAAVCSubGraphList@@XZ ; CGraphImp::GetSubGraphList
  00022	8b c8		 mov	 ecx, eax
  00024	e8 00 00 00 00	 call	 ?IsViewableGraphDrawStyle@CSubGraphList@@QBE_NW4GRAPHTYPE@CGraphBaseData@@HH@Z ; CSubGraphList::IsViewableGraphDrawStyle
  00029	84 c0		 test	 al, al
  0002b	75 0d		 jne	 SHORT $LN15@IsViewable

; 1326 : 	while(pos != NULL){

  0002d	85 f6		 test	 esi, esi
  0002f	75 e2		 jne	 SHORT $LL2@IsViewable
$LN3@IsViewable:
  00031	5f		 pop	 edi

; 1330 : 			return true;
; 1331 : 	}
; 1332 : 	return false;
; 1333 : }

  00032	5e		 pop	 esi
  00033	32 c0		 xor	 al, al
  00035	5b		 pop	 ebx
  00036	5d		 pop	 ebp
  00037	c2 0c 00	 ret	 12			; 0000000cH
$LN15@IsViewable:
  0003a	5f		 pop	 edi
  0003b	5e		 pop	 esi
  0003c	b0 01		 mov	 al, 1
  0003e	5b		 pop	 ebx
  0003f	5d		 pop	 ebp
  00040	c2 0c 00	 ret	 12			; 0000000cH
?IsViewableGraphDrawStyle@CVertScaleGroup@@QBE_NW4GRAPHTYPE@CGraphBaseData@@HH@Z ENDP ; CVertScaleGroup::IsViewableGraphDrawStyle
_TEXT	ENDS
; Function compile flags: /Ogtp
; File D:\git\src\IBK\IBK_DRFN\ProjSrc\SrcChartEx\ChartOCX\ChartObject\VertScaleGroup.cpp
; File C:\Program Files (x86)\Microsoft Visual Studio\2019\Community\VC\Tools\MSVC\14.29.30133\atlmfc\include\afxcoll.inl
; File D:\git\src\IBK\IBK_DRFN\ProjSrc\SrcChartEx\ChartOCX\ChartObject\VertScaleGroup.cpp
;	COMDAT ?IsViewableGraphStyle@CVertScaleGroup@@QBE_NW4GRAPHTYPE@CGraphBaseData@@H@Z
_TEXT	SEGMENT
_eGraphType$ = 8					; size = 4
_nGraphStyle$ = 12					; size = 4
?IsViewableGraphStyle@CVertScaleGroup@@QBE_NW4GRAPHTYPE@CGraphBaseData@@H@Z PROC ; CVertScaleGroup::IsViewableGraphStyle, COMDAT
; _this$ = ecx

; 1310 : {

  00000	55		 push	 ebp
  00001	8b ec		 mov	 ebp, esp
  00003	53		 push	 ebx
  00004	56		 push	 esi

; 1311 : 	POSITION pos = m_GraphList.GetHeadPosition();

  00005	8b 71 7c	 mov	 esi, DWORD PTR [ecx+124]
  00008	57		 push	 edi

; 1312 : 	while(pos != NULL)

  00009	85 f6		 test	 esi, esi
  0000b	74 21		 je	 SHORT $LN3@IsViewable
  0000d	8b 7d 0c	 mov	 edi, DWORD PTR _nGraphStyle$[ebp]
  00010	8b 5d 08	 mov	 ebx, DWORD PTR _eGraphType$[ebp]
$LL2@IsViewable:

; 1316 : 		if(pGraph->GetSubGraphList().IsViewableGraphStyle(eGraphType, nGraphStyle))

  00013	8b 4e 08	 mov	 ecx, DWORD PTR [esi+8]
; File C:\Program Files (x86)\Microsoft Visual Studio\2019\Community\VC\Tools\MSVC\14.29.30133\atlmfc\include\afxcoll.inl

; 439  : 		rPosition = (POSITION) pNode->pNext;

  00016	8b 36		 mov	 esi, DWORD PTR [esi]
; File D:\git\src\IBK\IBK_DRFN\ProjSrc\SrcChartEx\ChartOCX\ChartObject\VertScaleGroup.cpp

; 1316 : 		if(pGraph->GetSubGraphList().IsViewableGraphStyle(eGraphType, nGraphStyle))

  00018	57		 push	 edi
  00019	53		 push	 ebx
  0001a	e8 00 00 00 00	 call	 ?GetSubGraphList@CGraphImp@@QAEAAVCSubGraphList@@XZ ; CGraphImp::GetSubGraphList
  0001f	8b c8		 mov	 ecx, eax
  00021	e8 00 00 00 00	 call	 ?IsViewableGraphStyle@CSubGraphList@@QBE_NW4GRAPHTYPE@CGraphBaseData@@H@Z ; CSubGraphList::IsViewableGraphStyle
  00026	84 c0		 test	 al, al
  00028	75 0d		 jne	 SHORT $LN15@IsViewable

; 1312 : 	while(pos != NULL)

  0002a	85 f6		 test	 esi, esi
  0002c	75 e5		 jne	 SHORT $LL2@IsViewable
$LN3@IsViewable:
  0002e	5f		 pop	 edi

; 1317 : 			return true;
; 1318 : 	}
; 1319 : 	return false;
; 1320 : }

  0002f	5e		 pop	 esi
  00030	32 c0		 xor	 al, al
  00032	5b		 pop	 ebx
  00033	5d		 pop	 ebp
  00034	c2 08 00	 ret	 8
$LN15@IsViewable:
  00037	5f		 pop	 edi
  00038	5e		 pop	 esi
  00039	b0 01		 mov	 al, 1
  0003b	5b		 pop	 ebx
  0003c	5d		 pop	 ebp
  0003d	c2 08 00	 ret	 8
?IsViewableGraphStyle@CVertScaleGroup@@QBE_NW4GRAPHTYPE@CGraphBaseData@@H@Z ENDP ; CVertScaleGroup::IsViewableGraphStyle
_TEXT	ENDS
; Function compile flags: /Ogtp
; File D:\git\src\IBK\IBK_DRFN\ProjSrc\SrcChartEx\ChartOCX\ChartObject\VertScaleGroup.cpp
; File C:\Program Files (x86)\Microsoft Visual Studio\2019\Community\VC\Tools\MSVC\14.29.30133\atlmfc\include\afxcoll.inl
; File D:\git\src\IBK\IBK_DRFN\ProjSrc\SrcChartEx\ChartOCX\ChartObject\VertScaleGroup.cpp
;	COMDAT ?IsViewableGraphType@CVertScaleGroup@@QBE_NW4GRAPHTYPE@CGraphBaseData@@@Z
_TEXT	SEGMENT
_eGraphType$ = 8					; size = 4
?IsViewableGraphType@CVertScaleGroup@@QBE_NW4GRAPHTYPE@CGraphBaseData@@@Z PROC ; CVertScaleGroup::IsViewableGraphType, COMDAT
; _this$ = ecx

; 1297 : {

  00000	55		 push	 ebp
  00001	8b ec		 mov	 ebp, esp
  00003	56		 push	 esi

; 1298 : 	POSITION pos = m_GraphList.GetHeadPosition();

  00004	8b 71 7c	 mov	 esi, DWORD PTR [ecx+124]
  00007	57		 push	 edi

; 1299 : 	while(pos != NULL){

  00008	85 f6		 test	 esi, esi
  0000a	74 1e		 je	 SHORT $LN3@IsViewable
  0000c	8b 7d 08	 mov	 edi, DWORD PTR _eGraphType$[ebp]
  0000f	90		 npad	 1
$LL2@IsViewable:

; 1302 : 		if(pGraph->GetSubGraphList().IsViewableGraphType(eGraphType))

  00010	8b 4e 08	 mov	 ecx, DWORD PTR [esi+8]
; File C:\Program Files (x86)\Microsoft Visual Studio\2019\Community\VC\Tools\MSVC\14.29.30133\atlmfc\include\afxcoll.inl

; 439  : 		rPosition = (POSITION) pNode->pNext;

  00013	8b 36		 mov	 esi, DWORD PTR [esi]
; File D:\git\src\IBK\IBK_DRFN\ProjSrc\SrcChartEx\ChartOCX\ChartObject\VertScaleGroup.cpp

; 1302 : 		if(pGraph->GetSubGraphList().IsViewableGraphType(eGraphType))

  00015	57		 push	 edi
  00016	e8 00 00 00 00	 call	 ?GetSubGraphList@CGraphImp@@QAEAAVCSubGraphList@@XZ ; CGraphImp::GetSubGraphList
  0001b	8b c8		 mov	 ecx, eax
  0001d	e8 00 00 00 00	 call	 ?IsViewableGraphType@CSubGraphList@@QBE_NW4GRAPHTYPE@CGraphBaseData@@@Z ; CSubGraphList::IsViewableGraphType
  00022	84 c0		 test	 al, al
  00024	75 0c		 jne	 SHORT $LN15@IsViewable

; 1299 : 	while(pos != NULL){

  00026	85 f6		 test	 esi, esi
  00028	75 e6		 jne	 SHORT $LL2@IsViewable
$LN3@IsViewable:
  0002a	5f		 pop	 edi

; 1304 : 	}
; 1305 : 	return false;

  0002b	32 c0		 xor	 al, al

; 1306 : }

  0002d	5e		 pop	 esi
  0002e	5d		 pop	 ebp
  0002f	c2 04 00	 ret	 4
$LN15@IsViewable:
  00032	5f		 pop	 edi

; 1303 : 			return true;

  00033	b0 01		 mov	 al, 1

; 1306 : }

  00035	5e		 pop	 esi
  00036	5d		 pop	 ebp
  00037	c2 04 00	 ret	 4
?IsViewableGraphType@CVertScaleGroup@@QBE_NW4GRAPHTYPE@CGraphBaseData@@@Z ENDP ; CVertScaleGroup::IsViewableGraphType
_TEXT	ENDS
; Function compile flags: /Ogtp
; File D:\git\src\IBK\IBK_DRFN\ProjSrc\SrcChartEx\ChartOCX\ChartObject\VertScaleGroup.cpp
; File C:\Program Files (x86)\Microsoft Visual Studio\2019\Community\VC\Tools\MSVC\14.29.30133\atlmfc\include\afxtempl.h
; File D:\git\src\IBK\IBK_DRFN\ProjSrc\SrcChartEx\ChartOCX\ChartObject\VertScaleGroup.cpp
; File C:\Program Files (x86)\Microsoft Visual Studio\2019\Community\VC\Tools\MSVC\14.29.30133\atlmfc\include\afxcoll.inl
; File D:\git\src\IBK\IBK_DRFN\ProjSrc\SrcChartEx\ChartOCX\ChartObject\VertScaleGroup.cpp
; File C:\Program Files (x86)\Microsoft Visual Studio\2019\Community\VC\Tools\MSVC\14.29.30133\atlmfc\include\cstringt.h
; File D:\git\src\IBK\IBK_DRFN\ProjSrc\SrcChartEx\ChartOCX\ChartObject\VertScaleGroup.cpp
; File C:\Program Files (x86)\Microsoft Visual Studio\2019\Community\VC\Tools\MSVC\14.29.30133\atlmfc\include\cstringt.h
; File D:\git\src\IBK\IBK_DRFN\ProjSrc\SrcChartEx\ChartOCX\ChartObject\VertScaleGroup.cpp
; File C:\Program Files (x86)\Microsoft Visual Studio\2019\Community\VC\Tools\MSVC\14.29.30133\atlmfc\include\cstringt.h
; File D:\git\src\IBK\IBK_DRFN\ProjSrc\SrcChartEx\ChartOCX\ChartObject\VertScaleGroup.cpp
;	COMDAT ?IsExistenceIndicator@CVertScaleGroup@@QBE_NPBDABV?$CStringT@DV?$StrTraitMFC_DLL@DV?$ChTraitsCRT@D@ATL@@@@@ATL@@@Z
_TEXT	SEGMENT
$T2 = -24						; size = 4
$T3 = -20						; size = 4
$T4 = -13						; size = 1
__$EHRec$ = -12						; size = 12
_lpszRQ$ = 8						; size = 4
_strIndicatorName$ = 12					; size = 4
?IsExistenceIndicator@CVertScaleGroup@@QBE_NPBDABV?$CStringT@DV?$StrTraitMFC_DLL@DV?$ChTraitsCRT@D@ATL@@@@@ATL@@@Z PROC ; CVertScaleGroup::IsExistenceIndicator, COMDAT
; _this$ = ecx

; 1284 : {

  00000	55		 push	 ebp
  00001	8b ec		 mov	 ebp, esp
  00003	6a ff		 push	 -1
  00005	68 00 00 00 00	 push	 __ehhandler$?IsExistenceIndicator@CVertScaleGroup@@QBE_NPBDABV?$CStringT@DV?$StrTraitMFC_DLL@DV?$ChTraitsCRT@D@ATL@@@@@ATL@@@Z
  0000a	64 a1 00 00 00
	00		 mov	 eax, DWORD PTR fs:0
  00010	50		 push	 eax
  00011	83 ec 0c	 sub	 esp, 12			; 0000000cH
  00014	53		 push	 ebx
  00015	56		 push	 esi
  00016	57		 push	 edi
  00017	a1 00 00 00 00	 mov	 eax, DWORD PTR ___security_cookie
  0001c	33 c5		 xor	 eax, ebp
  0001e	50		 push	 eax
  0001f	8d 45 f4	 lea	 eax, DWORD PTR __$EHRec$[ebp]
  00022	64 a3 00 00 00
	00		 mov	 DWORD PTR fs:0, eax
  00028	33 db		 xor	 ebx, ebx
  0002a	89 5d ec	 mov	 DWORD PTR $T3[ebp], ebx

; 1285 : 	POSITION pos = m_GraphList.GetHeadPosition();

  0002d	8b 71 7c	 mov	 esi, DWORD PTR [ecx+124]

; 1286 : 	while(pos != NULL){

  00030	85 f6		 test	 esi, esi
  00032	74 75		 je	 SHORT $LN3@IsExistenc
$LL2@IsExistenc:
; File C:\Program Files (x86)\Microsoft Visual Studio\2019\Community\VC\Tools\MSVC\14.29.30133\atlmfc\include\afxtempl.h

; 1898 : 		{ return (TYPE)BASE_CLASS::GetNext(rPosition); }

  00034	8b 7e 08	 mov	 edi, DWORD PTR [esi+8]
; File D:\git\src\IBK\IBK_DRFN\ProjSrc\SrcChartEx\ChartOCX\ChartObject\VertScaleGroup.cpp

; 1289 : 		if(!::lstrcmp(lpszRQ, pGraph->GetGraphRQ()) && 

  00037	8b cf		 mov	 ecx, edi
; File C:\Program Files (x86)\Microsoft Visual Studio\2019\Community\VC\Tools\MSVC\14.29.30133\atlmfc\include\afxcoll.inl

; 439  : 		rPosition = (POSITION) pNode->pNext;

  00039	8b 36		 mov	 esi, DWORD PTR [esi]
; File D:\git\src\IBK\IBK_DRFN\ProjSrc\SrcChartEx\ChartOCX\ChartObject\VertScaleGroup.cpp

; 1289 : 		if(!::lstrcmp(lpszRQ, pGraph->GetGraphRQ()) && 

  0003b	8b 07		 mov	 eax, DWORD PTR [edi]
  0003d	ff 50 1c	 call	 DWORD PTR [eax+28]
  00040	50		 push	 eax
  00041	ff 75 08	 push	 DWORD PTR _lpszRQ$[ebp]
  00044	ff 15 00 00 00
	00		 call	 DWORD PTR __imp__lstrcmpA@8
  0004a	85 c0		 test	 eax, eax
  0004c	75 35		 jne	 SHORT $LN6@IsExistenc
  0004e	8d 45 e8	 lea	 eax, DWORD PTR $T2[ebp]
  00051	8b cf		 mov	 ecx, edi
  00053	50		 push	 eax
  00054	e8 00 00 00 00	 call	 ?GetGraphData@CGraphImp@@QAEAAVCGraphData@@XZ ; CGraphImp::GetGraphData
  00059	8b c8		 mov	 ecx, eax
  0005b	ff 15 00 00 00
	00		 call	 DWORD PTR __imp_?GetIndicatorName@CGraphData@@QBE?AV?$CStringT@DV?$StrTraitMFC_DLL@DV?$ChTraitsCRT@D@ATL@@@@@ATL@@XZ
; File C:\Program Files (x86)\Microsoft Visual Studio\2019\Community\VC\Tools\MSVC\14.29.30133\atlmfc\include\cstringt.h

; 2479 : 		return(str1.Compare(str2) == 0);

  00061	8b 4d 0c	 mov	 ecx, DWORD PTR _strIndicatorName$[ebp]
; File D:\git\src\IBK\IBK_DRFN\ProjSrc\SrcChartEx\ChartOCX\ChartObject\VertScaleGroup.cpp

; 1289 : 		if(!::lstrcmp(lpszRQ, pGraph->GetGraphRQ()) && 

  00064	83 cb 01	 or	 ebx, 1
  00067	c7 45 fc 00 00
	00 00		 mov	 DWORD PTR __$EHRec$[ebp+8], 0
  0006e	89 5d ec	 mov	 DWORD PTR $T3[ebp], ebx
; File C:\Program Files (x86)\Microsoft Visual Studio\2019\Community\VC\Tools\MSVC\14.29.30133\atlmfc\include\cstringt.h

; 2479 : 		return(str1.Compare(str2) == 0);

  00071	ff 31		 push	 DWORD PTR [ecx]
  00073	8b c8		 mov	 ecx, eax
  00075	ff 15 00 00 00
	00		 call	 DWORD PTR __imp_?Compare@?$CStringT@DV?$StrTraitMFC_DLL@DV?$ChTraitsCRT@D@ATL@@@@@ATL@@QBEHPBD@Z
; File D:\git\src\IBK\IBK_DRFN\ProjSrc\SrcChartEx\ChartOCX\ChartObject\VertScaleGroup.cpp

; 1289 : 		if(!::lstrcmp(lpszRQ, pGraph->GetGraphRQ()) && 

  0007b	c6 45 f3 01	 mov	 BYTE PTR $T4[ebp], 1
; File C:\Program Files (x86)\Microsoft Visual Studio\2019\Community\VC\Tools\MSVC\14.29.30133\atlmfc\include\cstringt.h

; 2479 : 		return(str1.Compare(str2) == 0);

  0007f	85 c0		 test	 eax, eax
; File D:\git\src\IBK\IBK_DRFN\ProjSrc\SrcChartEx\ChartOCX\ChartObject\VertScaleGroup.cpp

; 1289 : 		if(!::lstrcmp(lpszRQ, pGraph->GetGraphRQ()) && 

  00081	74 04		 je	 SHORT $LN7@IsExistenc
$LN6@IsExistenc:
  00083	c6 45 f3 00	 mov	 BYTE PTR $T4[ebp], 0
$LN7@IsExistenc:
  00087	c7 45 fc ff ff
	ff ff		 mov	 DWORD PTR __$EHRec$[ebp+8], -1
  0008e	f6 c3 01	 test	 bl, 1
  00091	74 0c		 je	 SHORT $LN10@IsExistenc
  00093	8d 4d e8	 lea	 ecx, DWORD PTR $T2[ebp]
  00096	83 e3 fe	 and	 ebx, -2			; fffffffeH
  00099	ff 15 00 00 00
	00		 call	 DWORD PTR __imp_??1?$CStringT@DV?$StrTraitMFC_DLL@DV?$ChTraitsCRT@D@ATL@@@@@ATL@@QAE@XZ
$LN10@IsExistenc:
  0009f	80 7d f3 00	 cmp	 BYTE PTR $T4[ebp], 0
  000a3	75 1a		 jne	 SHORT $LN24@IsExistenc

; 1286 : 	while(pos != NULL){

  000a5	85 f6		 test	 esi, esi
  000a7	75 8b		 jne	 SHORT $LL2@IsExistenc
$LN3@IsExistenc:

; 1291 : 	}
; 1292 : 	return false;

  000a9	32 c0		 xor	 al, al

; 1293 : }

  000ab	8b 4d f4	 mov	 ecx, DWORD PTR __$EHRec$[ebp]
  000ae	64 89 0d 00 00
	00 00		 mov	 DWORD PTR fs:0, ecx
  000b5	59		 pop	 ecx
  000b6	5f		 pop	 edi
  000b7	5e		 pop	 esi
  000b8	5b		 pop	 ebx
  000b9	8b e5		 mov	 esp, ebp
  000bb	5d		 pop	 ebp
  000bc	c2 08 00	 ret	 8
$LN24@IsExistenc:

; 1290 : 			pGraph->GetGraphData().GetIndicatorName() == strIndicatorName) return true;

  000bf	b0 01		 mov	 al, 1

; 1293 : }

  000c1	8b 4d f4	 mov	 ecx, DWORD PTR __$EHRec$[ebp]
  000c4	64 89 0d 00 00
	00 00		 mov	 DWORD PTR fs:0, ecx
  000cb	59		 pop	 ecx
  000cc	5f		 pop	 edi
  000cd	5e		 pop	 esi
  000ce	5b		 pop	 ebx
  000cf	8b e5		 mov	 esp, ebp
  000d1	5d		 pop	 ebp
  000d2	c2 08 00	 ret	 8
_TEXT	ENDS
;	COMDAT text$x
text$x	SEGMENT
__unwindfunclet$?IsExistenceIndicator@CVertScaleGroup@@QBE_NPBDABV?$CStringT@DV?$StrTraitMFC_DLL@DV?$ChTraitsCRT@D@ATL@@@@@ATL@@@Z$0:
  00000	8b 45 ec	 mov	 eax, DWORD PTR $T3[ebp]
  00003	83 e0 01	 and	 eax, 1
  00006	0f 84 0d 00 00
	00		 je	 $LN9@IsExistenc
  0000c	83 65 ec fe	 and	 DWORD PTR $T3[ebp], -2	; fffffffeH
  00010	8d 4d e8	 lea	 ecx, DWORD PTR $T2[ebp]
  00013	ff 25 00 00 00
	00		 jmp	 DWORD PTR __imp_??1?$CStringT@DV?$StrTraitMFC_DLL@DV?$ChTraitsCRT@D@ATL@@@@@ATL@@QAE@XZ
$LN9@IsExistenc:
  00019	c3		 ret	 0
  0001a	cc		 int	 3
  0001b	cc		 int	 3
  0001c	cc		 int	 3
  0001d	cc		 int	 3
  0001e	cc		 int	 3
__ehhandler$?IsExistenceIndicator@CVertScaleGroup@@QBE_NPBDABV?$CStringT@DV?$StrTraitMFC_DLL@DV?$ChTraitsCRT@D@ATL@@@@@ATL@@@Z:
  0001f	90		 npad	 1
  00020	90		 npad	 1
  00021	8b 54 24 08	 mov	 edx, DWORD PTR [esp+8]
  00025	8d 42 0c	 lea	 eax, DWORD PTR [edx+12]
  00028	8b 4a e4	 mov	 ecx, DWORD PTR [edx-28]
  0002b	33 c8		 xor	 ecx, eax
  0002d	e8 00 00 00 00	 call	 @__security_check_cookie@4
  00032	b8 00 00 00 00	 mov	 eax, OFFSET __ehfuncinfo$?IsExistenceIndicator@CVertScaleGroup@@QBE_NPBDABV?$CStringT@DV?$StrTraitMFC_DLL@DV?$ChTraitsCRT@D@ATL@@@@@ATL@@@Z
  00037	e9 00 00 00 00	 jmp	 ___CxxFrameHandler3
text$x	ENDS
?IsExistenceIndicator@CVertScaleGroup@@QBE_NPBDABV?$CStringT@DV?$StrTraitMFC_DLL@DV?$ChTraitsCRT@D@ATL@@@@@ATL@@@Z ENDP ; CVertScaleGroup::IsExistenceIndicator
; Function compile flags: /Ogtp
; File D:\git\src\IBK\IBK_DRFN\ProjSrc\SrcChartEx\ChartOCX\ChartObject\VertScaleGroup.cpp
; File C:\Program Files (x86)\Microsoft Visual Studio\2019\Community\VC\Tools\MSVC\14.29.30133\atlmfc\include\afxcoll.inl
; File D:\git\src\IBK\IBK_DRFN\ProjSrc\SrcChartEx\ChartOCX\ChartObject\VertScaleGroup.cpp
; File C:\Program Files (x86)\Microsoft Visual Studio\2019\Community\VC\Tools\MSVC\14.29.30133\atlmfc\include\cstringt.h
; File D:\git\src\IBK\IBK_DRFN\ProjSrc\SrcChartEx\ChartOCX\ChartObject\VertScaleGroup.cpp
; File C:\Program Files (x86)\Microsoft Visual Studio\2019\Community\VC\Tools\MSVC\14.29.30133\atlmfc\include\cstringt.h
; File D:\git\src\IBK\IBK_DRFN\ProjSrc\SrcChartEx\ChartOCX\ChartObject\VertScaleGroup.cpp
; File C:\Program Files (x86)\Microsoft Visual Studio\2019\Community\VC\Tools\MSVC\14.29.30133\atlmfc\include\cstringt.h
; File D:\git\src\IBK\IBK_DRFN\ProjSrc\SrcChartEx\ChartOCX\ChartObject\VertScaleGroup.cpp
;	COMDAT ?IsExistenceIndicator@CVertScaleGroup@@QBE_NABV?$CStringT@DV?$StrTraitMFC_DLL@DV?$ChTraitsCRT@D@ATL@@@@@ATL@@@Z
_TEXT	SEGMENT
__$EHRec$ = -12						; size = 12
$T2 = 8							; size = 4
_strIndicatorName$ = 8					; size = 4
?IsExistenceIndicator@CVertScaleGroup@@QBE_NABV?$CStringT@DV?$StrTraitMFC_DLL@DV?$ChTraitsCRT@D@ATL@@@@@ATL@@@Z PROC ; CVertScaleGroup::IsExistenceIndicator, COMDAT
; _this$ = ecx

; 1272 : {

  00000	55		 push	 ebp
  00001	8b ec		 mov	 ebp, esp
  00003	6a ff		 push	 -1
  00005	68 00 00 00 00	 push	 __ehhandler$?IsExistenceIndicator@CVertScaleGroup@@QBE_NABV?$CStringT@DV?$StrTraitMFC_DLL@DV?$ChTraitsCRT@D@ATL@@@@@ATL@@@Z
  0000a	64 a1 00 00 00
	00		 mov	 eax, DWORD PTR fs:0
  00010	50		 push	 eax
  00011	53		 push	 ebx
  00012	56		 push	 esi
  00013	57		 push	 edi
  00014	a1 00 00 00 00	 mov	 eax, DWORD PTR ___security_cookie
  00019	33 c5		 xor	 eax, ebp
  0001b	50		 push	 eax
  0001c	8d 45 f4	 lea	 eax, DWORD PTR __$EHRec$[ebp]
  0001f	64 a3 00 00 00
	00		 mov	 DWORD PTR fs:0, eax

; 1273 : 	POSITION pos = m_GraphList.GetHeadPosition();

  00025	8b 71 7c	 mov	 esi, DWORD PTR [ecx+124]

; 1274 : 	while(pos != NULL){

  00028	85 f6		 test	 esi, esi
  0002a	74 47		 je	 SHORT $LN3@IsExistenc
  0002c	8b 5d 08	 mov	 ebx, DWORD PTR _strIndicatorName$[ebp]
  0002f	90		 npad	 1
$LL2@IsExistenc:
; File C:\Program Files (x86)\Microsoft Visual Studio\2019\Community\VC\Tools\MSVC\14.29.30133\atlmfc\include\afxcoll.inl

; 435  : 	{ CNode* pNode = (CNode*) rPosition;

  00030	8d 06		 lea	 eax, DWORD PTR [esi]

; 436  : 		ASSERT(AfxIsValidAddress(pNode, sizeof(CNode)));
; 437  : 		if( pNode == NULL )
; 438  : 			AfxThrowInvalidArgException();
; 439  : 		rPosition = (POSITION) pNode->pNext;

  00032	8b 36		 mov	 esi, DWORD PTR [esi]
; File D:\git\src\IBK\IBK_DRFN\ProjSrc\SrcChartEx\ChartOCX\ChartObject\VertScaleGroup.cpp

; 1277 : 		if( pGraph->GetGraphData().GetIndicatorName() == strIndicatorName) return true;

  00034	8d 4d 08	 lea	 ecx, DWORD PTR $T2[ebp]
  00037	51		 push	 ecx
  00038	8b 48 08	 mov	 ecx, DWORD PTR [eax+8]
  0003b	e8 00 00 00 00	 call	 ?GetGraphData@CGraphImp@@QAEAAVCGraphData@@XZ ; CGraphImp::GetGraphData
  00040	8b c8		 mov	 ecx, eax
  00042	ff 15 00 00 00
	00		 call	 DWORD PTR __imp_?GetIndicatorName@CGraphData@@QBE?AV?$CStringT@DV?$StrTraitMFC_DLL@DV?$ChTraitsCRT@D@ATL@@@@@ATL@@XZ
; File C:\Program Files (x86)\Microsoft Visual Studio\2019\Community\VC\Tools\MSVC\14.29.30133\atlmfc\include\cstringt.h

; 2479 : 		return(str1.Compare(str2) == 0);

  00048	ff 33		 push	 DWORD PTR [ebx]
  0004a	8b c8		 mov	 ecx, eax
; File D:\git\src\IBK\IBK_DRFN\ProjSrc\SrcChartEx\ChartOCX\ChartObject\VertScaleGroup.cpp

; 1277 : 		if( pGraph->GetGraphData().GetIndicatorName() == strIndicatorName) return true;

  0004c	c7 45 fc 00 00
	00 00		 mov	 DWORD PTR __$EHRec$[ebp+8], 0
; File C:\Program Files (x86)\Microsoft Visual Studio\2019\Community\VC\Tools\MSVC\14.29.30133\atlmfc\include\cstringt.h

; 2479 : 		return(str1.Compare(str2) == 0);

  00053	ff 15 00 00 00
	00		 call	 DWORD PTR __imp_?Compare@?$CStringT@DV?$StrTraitMFC_DLL@DV?$ChTraitsCRT@D@ATL@@@@@ATL@@QBEHPBD@Z
; File D:\git\src\IBK\IBK_DRFN\ProjSrc\SrcChartEx\ChartOCX\ChartObject\VertScaleGroup.cpp

; 1277 : 		if( pGraph->GetGraphData().GetIndicatorName() == strIndicatorName) return true;

  00059	8d 4d 08	 lea	 ecx, DWORD PTR $T2[ebp]
  0005c	c7 45 fc ff ff
	ff ff		 mov	 DWORD PTR __$EHRec$[ebp+8], -1
; File C:\Program Files (x86)\Microsoft Visual Studio\2019\Community\VC\Tools\MSVC\14.29.30133\atlmfc\include\cstringt.h

; 2479 : 		return(str1.Compare(str2) == 0);

  00063	8b f8		 mov	 edi, eax
; File D:\git\src\IBK\IBK_DRFN\ProjSrc\SrcChartEx\ChartOCX\ChartObject\VertScaleGroup.cpp

; 1277 : 		if( pGraph->GetGraphData().GetIndicatorName() == strIndicatorName) return true;

  00065	ff 15 00 00 00
	00		 call	 DWORD PTR __imp_??1?$CStringT@DV?$StrTraitMFC_DLL@DV?$ChTraitsCRT@D@ATL@@@@@ATL@@QAE@XZ
  0006b	85 ff		 test	 edi, edi
  0006d	74 1a		 je	 SHORT $LN20@IsExistenc

; 1274 : 	while(pos != NULL){

  0006f	85 f6		 test	 esi, esi
  00071	75 bd		 jne	 SHORT $LL2@IsExistenc
$LN3@IsExistenc:

; 1278 : 	}
; 1279 : 	return false;

  00073	32 c0		 xor	 al, al

; 1280 : }

  00075	8b 4d f4	 mov	 ecx, DWORD PTR __$EHRec$[ebp]
  00078	64 89 0d 00 00
	00 00		 mov	 DWORD PTR fs:0, ecx
  0007f	59		 pop	 ecx
  00080	5f		 pop	 edi
  00081	5e		 pop	 esi
  00082	5b		 pop	 ebx
  00083	8b e5		 mov	 esp, ebp
  00085	5d		 pop	 ebp
  00086	c2 04 00	 ret	 4
$LN20@IsExistenc:

; 1277 : 		if( pGraph->GetGraphData().GetIndicatorName() == strIndicatorName) return true;

  00089	b0 01		 mov	 al, 1

; 1280 : }

  0008b	8b 4d f4	 mov	 ecx, DWORD PTR __$EHRec$[ebp]
  0008e	64 89 0d 00 00
	00 00		 mov	 DWORD PTR fs:0, ecx
  00095	59		 pop	 ecx
  00096	5f		 pop	 edi
  00097	5e		 pop	 esi
  00098	5b		 pop	 ebx
  00099	8b e5		 mov	 esp, ebp
  0009b	5d		 pop	 ebp
  0009c	c2 04 00	 ret	 4
_TEXT	ENDS
;	COMDAT text$x
text$x	SEGMENT
__unwindfunclet$?IsExistenceIndicator@CVertScaleGroup@@QBE_NABV?$CStringT@DV?$StrTraitMFC_DLL@DV?$ChTraitsCRT@D@ATL@@@@@ATL@@@Z$0:
  00000	8d 4d 08	 lea	 ecx, DWORD PTR $T2[ebp]
  00003	ff 25 00 00 00
	00		 jmp	 DWORD PTR __imp_??1?$CStringT@DV?$StrTraitMFC_DLL@DV?$ChTraitsCRT@D@ATL@@@@@ATL@@QAE@XZ
  00009	cc		 int	 3
  0000a	cc		 int	 3
  0000b	cc		 int	 3
  0000c	cc		 int	 3
  0000d	cc		 int	 3
__ehhandler$?IsExistenceIndicator@CVertScaleGroup@@QBE_NABV?$CStringT@DV?$StrTraitMFC_DLL@DV?$ChTraitsCRT@D@ATL@@@@@ATL@@@Z:
  0000e	90		 npad	 1
  0000f	90		 npad	 1
  00010	8b 54 24 08	 mov	 edx, DWORD PTR [esp+8]
  00014	8d 42 0c	 lea	 eax, DWORD PTR [edx+12]
  00017	8b 4a f0	 mov	 ecx, DWORD PTR [edx-16]
  0001a	33 c8		 xor	 ecx, eax
  0001c	e8 00 00 00 00	 call	 @__security_check_cookie@4
  00021	b8 00 00 00 00	 mov	 eax, OFFSET __ehfuncinfo$?IsExistenceIndicator@CVertScaleGroup@@QBE_NABV?$CStringT@DV?$StrTraitMFC_DLL@DV?$ChTraitsCRT@D@ATL@@@@@ATL@@@Z
  00026	e9 00 00 00 00	 jmp	 ___CxxFrameHandler3
text$x	ENDS
?IsExistenceIndicator@CVertScaleGroup@@QBE_NABV?$CStringT@DV?$StrTraitMFC_DLL@DV?$ChTraitsCRT@D@ATL@@@@@ATL@@@Z ENDP ; CVertScaleGroup::IsExistenceIndicator
; Function compile flags: /Ogtp
; File D:\git\src\IBK\IBK_DRFN\ProjSrc\SrcChartEx\ChartOCX\ChartObject\VertScaleGroup.cpp
; File C:\Program Files (x86)\Microsoft Visual Studio\2019\Community\VC\Tools\MSVC\14.29.30133\atlmfc\include\afxtempl.h
; File D:\git\src\IBK\IBK_DRFN\ProjSrc\SrcChartEx\ChartOCX\ChartObject\VertScaleGroup.cpp
; File C:\Program Files (x86)\Microsoft Visual Studio\2019\Community\VC\Tools\MSVC\14.29.30133\atlmfc\include\afxcoll.inl
; File D:\git\src\IBK\IBK_DRFN\ProjSrc\SrcChartEx\ChartOCX\ChartObject\VertScaleGroup.cpp
; File C:\Program Files (x86)\Microsoft Visual Studio\2019\Community\VC\Tools\MSVC\14.29.30133\atlmfc\include\cstringt.h
; File D:\git\src\IBK\IBK_DRFN\ProjSrc\SrcChartEx\ChartOCX\ChartObject\VertScaleGroup.cpp
; File C:\Program Files (x86)\Microsoft Visual Studio\2019\Community\VC\Tools\MSVC\14.29.30133\atlmfc\include\cstringt.h
; File D:\git\src\IBK\IBK_DRFN\ProjSrc\SrcChartEx\ChartOCX\ChartObject\VertScaleGroup.cpp
; File C:\Program Files (x86)\Microsoft Visual Studio\2019\Community\VC\Tools\MSVC\14.29.30133\atlmfc\include\cstringt.h
; File D:\git\src\IBK\IBK_DRFN\ProjSrc\SrcChartEx\ChartOCX\ChartObject\VertScaleGroup.cpp
;	COMDAT ?IsExistenceGraph@CVertScaleGroup@@QBE_NPAXABV?$CStringT@DV?$StrTraitMFC_DLL@DV?$ChTraitsCRT@D@ATL@@@@@ATL@@@Z
_TEXT	SEGMENT
$T2 = -24						; size = 4
$T3 = -20						; size = 4
$T4 = -13						; size = 1
__$EHRec$ = -12						; size = 12
_pPacketRQ$ = 8						; size = 4
_strGraphName$ = 12					; size = 4
?IsExistenceGraph@CVertScaleGroup@@QBE_NPAXABV?$CStringT@DV?$StrTraitMFC_DLL@DV?$ChTraitsCRT@D@ATL@@@@@ATL@@@Z PROC ; CVertScaleGroup::IsExistenceGraph, COMDAT
; _this$ = ecx

; 1259 : {

  00000	55		 push	 ebp
  00001	8b ec		 mov	 ebp, esp
  00003	6a ff		 push	 -1
  00005	68 00 00 00 00	 push	 __ehhandler$?IsExistenceGraph@CVertScaleGroup@@QBE_NPAXABV?$CStringT@DV?$StrTraitMFC_DLL@DV?$ChTraitsCRT@D@ATL@@@@@ATL@@@Z
  0000a	64 a1 00 00 00
	00		 mov	 eax, DWORD PTR fs:0
  00010	50		 push	 eax
  00011	83 ec 0c	 sub	 esp, 12			; 0000000cH
  00014	53		 push	 ebx
  00015	56		 push	 esi
  00016	57		 push	 edi
  00017	a1 00 00 00 00	 mov	 eax, DWORD PTR ___security_cookie
  0001c	33 c5		 xor	 eax, ebp
  0001e	50		 push	 eax
  0001f	8d 45 f4	 lea	 eax, DWORD PTR __$EHRec$[ebp]
  00022	64 a3 00 00 00
	00		 mov	 DWORD PTR fs:0, eax
  00028	33 db		 xor	 ebx, ebx
  0002a	89 5d ec	 mov	 DWORD PTR $T3[ebp], ebx

; 1260 : 	POSITION pos = m_GraphList.GetHeadPosition();

  0002d	8b 71 7c	 mov	 esi, DWORD PTR [ecx+124]

; 1261 : 	while(pos != NULL){

  00030	85 f6		 test	 esi, esi
  00032	74 6e		 je	 SHORT $LN3@IsExistenc
$LL2@IsExistenc:
; File C:\Program Files (x86)\Microsoft Visual Studio\2019\Community\VC\Tools\MSVC\14.29.30133\atlmfc\include\afxtempl.h

; 1898 : 		{ return (TYPE)BASE_CLASS::GetNext(rPosition); }

  00034	8b 7e 08	 mov	 edi, DWORD PTR [esi+8]
; File D:\git\src\IBK\IBK_DRFN\ProjSrc\SrcChartEx\ChartOCX\ChartObject\VertScaleGroup.cpp

; 1264 : 		if(pGraph->ComparePacketRQ(pPacketRQ) && 

  00037	8b cf		 mov	 ecx, edi
  00039	ff 75 08	 push	 DWORD PTR _pPacketRQ$[ebp]
; File C:\Program Files (x86)\Microsoft Visual Studio\2019\Community\VC\Tools\MSVC\14.29.30133\atlmfc\include\afxcoll.inl

; 439  : 		rPosition = (POSITION) pNode->pNext;

  0003c	8b 36		 mov	 esi, DWORD PTR [esi]
; File D:\git\src\IBK\IBK_DRFN\ProjSrc\SrcChartEx\ChartOCX\ChartObject\VertScaleGroup.cpp

; 1264 : 		if(pGraph->ComparePacketRQ(pPacketRQ) && 

  0003e	e8 00 00 00 00	 call	 ?ComparePacketRQ@CGraphImp@@QAEHPAX@Z ; CGraphImp::ComparePacketRQ
  00043	85 c0		 test	 eax, eax
  00045	74 35		 je	 SHORT $LN6@IsExistenc
  00047	8d 45 e8	 lea	 eax, DWORD PTR $T2[ebp]
  0004a	8b cf		 mov	 ecx, edi
  0004c	50		 push	 eax
  0004d	e8 00 00 00 00	 call	 ?GetGraphData@CGraphImp@@QAEAAVCGraphData@@XZ ; CGraphImp::GetGraphData
  00052	8b c8		 mov	 ecx, eax
  00054	ff 15 00 00 00
	00		 call	 DWORD PTR __imp_?GetGraphName@CGraphData@@QBE?AV?$CStringT@DV?$StrTraitMFC_DLL@DV?$ChTraitsCRT@D@ATL@@@@@ATL@@XZ
; File C:\Program Files (x86)\Microsoft Visual Studio\2019\Community\VC\Tools\MSVC\14.29.30133\atlmfc\include\cstringt.h

; 2479 : 		return(str1.Compare(str2) == 0);

  0005a	8b 4d 0c	 mov	 ecx, DWORD PTR _strGraphName$[ebp]
; File D:\git\src\IBK\IBK_DRFN\ProjSrc\SrcChartEx\ChartOCX\ChartObject\VertScaleGroup.cpp

; 1264 : 		if(pGraph->ComparePacketRQ(pPacketRQ) && 

  0005d	83 cb 01	 or	 ebx, 1
  00060	c7 45 fc 00 00
	00 00		 mov	 DWORD PTR __$EHRec$[ebp+8], 0
  00067	89 5d ec	 mov	 DWORD PTR $T3[ebp], ebx
; File C:\Program Files (x86)\Microsoft Visual Studio\2019\Community\VC\Tools\MSVC\14.29.30133\atlmfc\include\cstringt.h

; 2479 : 		return(str1.Compare(str2) == 0);

  0006a	ff 31		 push	 DWORD PTR [ecx]
  0006c	8b c8		 mov	 ecx, eax
  0006e	ff 15 00 00 00
	00		 call	 DWORD PTR __imp_?Compare@?$CStringT@DV?$StrTraitMFC_DLL@DV?$ChTraitsCRT@D@ATL@@@@@ATL@@QBEHPBD@Z
; File D:\git\src\IBK\IBK_DRFN\ProjSrc\SrcChartEx\ChartOCX\ChartObject\VertScaleGroup.cpp

; 1264 : 		if(pGraph->ComparePacketRQ(pPacketRQ) && 

  00074	c6 45 f3 01	 mov	 BYTE PTR $T4[ebp], 1
; File C:\Program Files (x86)\Microsoft Visual Studio\2019\Community\VC\Tools\MSVC\14.29.30133\atlmfc\include\cstringt.h

; 2479 : 		return(str1.Compare(str2) == 0);

  00078	85 c0		 test	 eax, eax
; File D:\git\src\IBK\IBK_DRFN\ProjSrc\SrcChartEx\ChartOCX\ChartObject\VertScaleGroup.cpp

; 1264 : 		if(pGraph->ComparePacketRQ(pPacketRQ) && 

  0007a	74 04		 je	 SHORT $LN7@IsExistenc
$LN6@IsExistenc:
  0007c	c6 45 f3 00	 mov	 BYTE PTR $T4[ebp], 0
$LN7@IsExistenc:
  00080	c7 45 fc ff ff
	ff ff		 mov	 DWORD PTR __$EHRec$[ebp+8], -1
  00087	f6 c3 01	 test	 bl, 1
  0008a	74 0c		 je	 SHORT $LN10@IsExistenc
  0008c	8d 4d e8	 lea	 ecx, DWORD PTR $T2[ebp]
  0008f	83 e3 fe	 and	 ebx, -2			; fffffffeH
  00092	ff 15 00 00 00
	00		 call	 DWORD PTR __imp_??1?$CStringT@DV?$StrTraitMFC_DLL@DV?$ChTraitsCRT@D@ATL@@@@@ATL@@QAE@XZ
$LN10@IsExistenc:
  00098	80 7d f3 00	 cmp	 BYTE PTR $T4[ebp], 0
  0009c	75 1a		 jne	 SHORT $LN24@IsExistenc

; 1261 : 	while(pos != NULL){

  0009e	85 f6		 test	 esi, esi
  000a0	75 92		 jne	 SHORT $LL2@IsExistenc
$LN3@IsExistenc:

; 1266 : 	}
; 1267 : 	return false;

  000a2	32 c0		 xor	 al, al

; 1268 : }

  000a4	8b 4d f4	 mov	 ecx, DWORD PTR __$EHRec$[ebp]
  000a7	64 89 0d 00 00
	00 00		 mov	 DWORD PTR fs:0, ecx
  000ae	59		 pop	 ecx
  000af	5f		 pop	 edi
  000b0	5e		 pop	 esi
  000b1	5b		 pop	 ebx
  000b2	8b e5		 mov	 esp, ebp
  000b4	5d		 pop	 ebp
  000b5	c2 08 00	 ret	 8
$LN24@IsExistenc:

; 1265 : 			pGraph->GetGraphData().GetGraphName() == strGraphName) return true;

  000b8	b0 01		 mov	 al, 1

; 1268 : }

  000ba	8b 4d f4	 mov	 ecx, DWORD PTR __$EHRec$[ebp]
  000bd	64 89 0d 00 00
	00 00		 mov	 DWORD PTR fs:0, ecx
  000c4	59		 pop	 ecx
  000c5	5f		 pop	 edi
  000c6	5e		 pop	 esi
  000c7	5b		 pop	 ebx
  000c8	8b e5		 mov	 esp, ebp
  000ca	5d		 pop	 ebp
  000cb	c2 08 00	 ret	 8
_TEXT	ENDS
;	COMDAT text$x
text$x	SEGMENT
__unwindfunclet$?IsExistenceGraph@CVertScaleGroup@@QBE_NPAXABV?$CStringT@DV?$StrTraitMFC_DLL@DV?$ChTraitsCRT@D@ATL@@@@@ATL@@@Z$0:
  00000	8b 45 ec	 mov	 eax, DWORD PTR $T3[ebp]
  00003	83 e0 01	 and	 eax, 1
  00006	0f 84 0d 00 00
	00		 je	 $LN9@IsExistenc
  0000c	83 65 ec fe	 and	 DWORD PTR $T3[ebp], -2	; fffffffeH
  00010	8d 4d e8	 lea	 ecx, DWORD PTR $T2[ebp]
  00013	ff 25 00 00 00
	00		 jmp	 DWORD PTR __imp_??1?$CStringT@DV?$StrTraitMFC_DLL@DV?$ChTraitsCRT@D@ATL@@@@@ATL@@QAE@XZ
$LN9@IsExistenc:
  00019	c3		 ret	 0
  0001a	cc		 int	 3
  0001b	cc		 int	 3
  0001c	cc		 int	 3
  0001d	cc		 int	 3
  0001e	cc		 int	 3
__ehhandler$?IsExistenceGraph@CVertScaleGroup@@QBE_NPAXABV?$CStringT@DV?$StrTraitMFC_DLL@DV?$ChTraitsCRT@D@ATL@@@@@ATL@@@Z:
  0001f	90		 npad	 1
  00020	90		 npad	 1
  00021	8b 54 24 08	 mov	 edx, DWORD PTR [esp+8]
  00025	8d 42 0c	 lea	 eax, DWORD PTR [edx+12]
  00028	8b 4a e4	 mov	 ecx, DWORD PTR [edx-28]
  0002b	33 c8		 xor	 ecx, eax
  0002d	e8 00 00 00 00	 call	 @__security_check_cookie@4
  00032	b8 00 00 00 00	 mov	 eax, OFFSET __ehfuncinfo$?IsExistenceGraph@CVertScaleGroup@@QBE_NPAXABV?$CStringT@DV?$StrTraitMFC_DLL@DV?$ChTraitsCRT@D@ATL@@@@@ATL@@@Z
  00037	e9 00 00 00 00	 jmp	 ___CxxFrameHandler3
text$x	ENDS
?IsExistenceGraph@CVertScaleGroup@@QBE_NPAXABV?$CStringT@DV?$StrTraitMFC_DLL@DV?$ChTraitsCRT@D@ATL@@@@@ATL@@@Z ENDP ; CVertScaleGroup::IsExistenceGraph
; Function compile flags: /Ogtp
; File D:\git\src\IBK\IBK_DRFN\ProjSrc\SrcChartEx\ChartOCX\ChartObject\VertScaleGroup.cpp
; File C:\Program Files (x86)\Microsoft Visual Studio\2019\Community\VC\Tools\MSVC\14.29.30133\atlmfc\include\afxtempl.h
; File D:\git\src\IBK\IBK_DRFN\ProjSrc\SrcChartEx\ChartOCX\ChartObject\VertScaleGroup.cpp
; File C:\Program Files (x86)\Microsoft Visual Studio\2019\Community\VC\Tools\MSVC\14.29.30133\atlmfc\include\afxcoll.inl
; File D:\git\src\IBK\IBK_DRFN\ProjSrc\SrcChartEx\ChartOCX\ChartObject\VertScaleGroup.cpp
; File C:\Program Files (x86)\Microsoft Visual Studio\2019\Community\VC\Tools\MSVC\14.29.30133\atlmfc\include\cstringt.h
; File D:\git\src\IBK\IBK_DRFN\ProjSrc\SrcChartEx\ChartOCX\ChartObject\VertScaleGroup.cpp
; File C:\Program Files (x86)\Microsoft Visual Studio\2019\Community\VC\Tools\MSVC\14.29.30133\atlmfc\include\cstringt.h
; File D:\git\src\IBK\IBK_DRFN\ProjSrc\SrcChartEx\ChartOCX\ChartObject\VertScaleGroup.cpp
; File C:\Program Files (x86)\Microsoft Visual Studio\2019\Community\VC\Tools\MSVC\14.29.30133\atlmfc\include\cstringt.h
; File D:\git\src\IBK\IBK_DRFN\ProjSrc\SrcChartEx\ChartOCX\ChartObject\VertScaleGroup.cpp
;	COMDAT ?IsExistenceGraph@CVertScaleGroup@@QBE_NPBDABV?$CStringT@DV?$StrTraitMFC_DLL@DV?$ChTraitsCRT@D@ATL@@@@@ATL@@@Z
_TEXT	SEGMENT
$T2 = -24						; size = 4
$T3 = -20						; size = 4
$T4 = -13						; size = 1
__$EHRec$ = -12						; size = 12
_lpszRQ$ = 8						; size = 4
_strGraphName$ = 12					; size = 4
?IsExistenceGraph@CVertScaleGroup@@QBE_NPBDABV?$CStringT@DV?$StrTraitMFC_DLL@DV?$ChTraitsCRT@D@ATL@@@@@ATL@@@Z PROC ; CVertScaleGroup::IsExistenceGraph, COMDAT
; _this$ = ecx

; 1246 : {

  00000	55		 push	 ebp
  00001	8b ec		 mov	 ebp, esp
  00003	6a ff		 push	 -1
  00005	68 00 00 00 00	 push	 __ehhandler$?IsExistenceGraph@CVertScaleGroup@@QBE_NPBDABV?$CStringT@DV?$StrTraitMFC_DLL@DV?$ChTraitsCRT@D@ATL@@@@@ATL@@@Z
  0000a	64 a1 00 00 00
	00		 mov	 eax, DWORD PTR fs:0
  00010	50		 push	 eax
  00011	83 ec 0c	 sub	 esp, 12			; 0000000cH
  00014	53		 push	 ebx
  00015	56		 push	 esi
  00016	57		 push	 edi
  00017	a1 00 00 00 00	 mov	 eax, DWORD PTR ___security_cookie
  0001c	33 c5		 xor	 eax, ebp
  0001e	50		 push	 eax
  0001f	8d 45 f4	 lea	 eax, DWORD PTR __$EHRec$[ebp]
  00022	64 a3 00 00 00
	00		 mov	 DWORD PTR fs:0, eax
  00028	33 db		 xor	 ebx, ebx
  0002a	89 5d ec	 mov	 DWORD PTR $T3[ebp], ebx

; 1247 : 	POSITION pos = m_GraphList.GetHeadPosition();

  0002d	8b 71 7c	 mov	 esi, DWORD PTR [ecx+124]

; 1248 : 	while(pos != NULL){

  00030	85 f6		 test	 esi, esi
  00032	74 75		 je	 SHORT $LN3@IsExistenc
$LL2@IsExistenc:
; File C:\Program Files (x86)\Microsoft Visual Studio\2019\Community\VC\Tools\MSVC\14.29.30133\atlmfc\include\afxtempl.h

; 1898 : 		{ return (TYPE)BASE_CLASS::GetNext(rPosition); }

  00034	8b 7e 08	 mov	 edi, DWORD PTR [esi+8]
; File D:\git\src\IBK\IBK_DRFN\ProjSrc\SrcChartEx\ChartOCX\ChartObject\VertScaleGroup.cpp

; 1251 : 		if(!::lstrcmp(lpszRQ, pGraph->GetGraphRQ()) && 

  00037	8b cf		 mov	 ecx, edi
; File C:\Program Files (x86)\Microsoft Visual Studio\2019\Community\VC\Tools\MSVC\14.29.30133\atlmfc\include\afxcoll.inl

; 439  : 		rPosition = (POSITION) pNode->pNext;

  00039	8b 36		 mov	 esi, DWORD PTR [esi]
; File D:\git\src\IBK\IBK_DRFN\ProjSrc\SrcChartEx\ChartOCX\ChartObject\VertScaleGroup.cpp

; 1251 : 		if(!::lstrcmp(lpszRQ, pGraph->GetGraphRQ()) && 

  0003b	8b 07		 mov	 eax, DWORD PTR [edi]
  0003d	ff 50 1c	 call	 DWORD PTR [eax+28]
  00040	50		 push	 eax
  00041	ff 75 08	 push	 DWORD PTR _lpszRQ$[ebp]
  00044	ff 15 00 00 00
	00		 call	 DWORD PTR __imp__lstrcmpA@8
  0004a	85 c0		 test	 eax, eax
  0004c	75 35		 jne	 SHORT $LN6@IsExistenc
  0004e	8d 45 e8	 lea	 eax, DWORD PTR $T2[ebp]
  00051	8b cf		 mov	 ecx, edi
  00053	50		 push	 eax
  00054	e8 00 00 00 00	 call	 ?GetGraphData@CGraphImp@@QAEAAVCGraphData@@XZ ; CGraphImp::GetGraphData
  00059	8b c8		 mov	 ecx, eax
  0005b	ff 15 00 00 00
	00		 call	 DWORD PTR __imp_?GetGraphName@CGraphData@@QBE?AV?$CStringT@DV?$StrTraitMFC_DLL@DV?$ChTraitsCRT@D@ATL@@@@@ATL@@XZ
; File C:\Program Files (x86)\Microsoft Visual Studio\2019\Community\VC\Tools\MSVC\14.29.30133\atlmfc\include\cstringt.h

; 2479 : 		return(str1.Compare(str2) == 0);

  00061	8b 4d 0c	 mov	 ecx, DWORD PTR _strGraphName$[ebp]
; File D:\git\src\IBK\IBK_DRFN\ProjSrc\SrcChartEx\ChartOCX\ChartObject\VertScaleGroup.cpp

; 1251 : 		if(!::lstrcmp(lpszRQ, pGraph->GetGraphRQ()) && 

  00064	83 cb 01	 or	 ebx, 1
  00067	c7 45 fc 00 00
	00 00		 mov	 DWORD PTR __$EHRec$[ebp+8], 0
  0006e	89 5d ec	 mov	 DWORD PTR $T3[ebp], ebx
; File C:\Program Files (x86)\Microsoft Visual Studio\2019\Community\VC\Tools\MSVC\14.29.30133\atlmfc\include\cstringt.h

; 2479 : 		return(str1.Compare(str2) == 0);

  00071	ff 31		 push	 DWORD PTR [ecx]
  00073	8b c8		 mov	 ecx, eax
  00075	ff 15 00 00 00
	00		 call	 DWORD PTR __imp_?Compare@?$CStringT@DV?$StrTraitMFC_DLL@DV?$ChTraitsCRT@D@ATL@@@@@ATL@@QBEHPBD@Z
; File D:\git\src\IBK\IBK_DRFN\ProjSrc\SrcChartEx\ChartOCX\ChartObject\VertScaleGroup.cpp

; 1251 : 		if(!::lstrcmp(lpszRQ, pGraph->GetGraphRQ()) && 

  0007b	c6 45 f3 01	 mov	 BYTE PTR $T4[ebp], 1
; File C:\Program Files (x86)\Microsoft Visual Studio\2019\Community\VC\Tools\MSVC\14.29.30133\atlmfc\include\cstringt.h

; 2479 : 		return(str1.Compare(str2) == 0);

  0007f	85 c0		 test	 eax, eax
; File D:\git\src\IBK\IBK_DRFN\ProjSrc\SrcChartEx\ChartOCX\ChartObject\VertScaleGroup.cpp

; 1251 : 		if(!::lstrcmp(lpszRQ, pGraph->GetGraphRQ()) && 

  00081	74 04		 je	 SHORT $LN7@IsExistenc
$LN6@IsExistenc:
  00083	c6 45 f3 00	 mov	 BYTE PTR $T4[ebp], 0
$LN7@IsExistenc:
  00087	c7 45 fc ff ff
	ff ff		 mov	 DWORD PTR __$EHRec$[ebp+8], -1
  0008e	f6 c3 01	 test	 bl, 1
  00091	74 0c		 je	 SHORT $LN10@IsExistenc
  00093	8d 4d e8	 lea	 ecx, DWORD PTR $T2[ebp]
  00096	83 e3 fe	 and	 ebx, -2			; fffffffeH
  00099	ff 15 00 00 00
	00		 call	 DWORD PTR __imp_??1?$CStringT@DV?$StrTraitMFC_DLL@DV?$ChTraitsCRT@D@ATL@@@@@ATL@@QAE@XZ
$LN10@IsExistenc:
  0009f	80 7d f3 00	 cmp	 BYTE PTR $T4[ebp], 0
  000a3	75 1a		 jne	 SHORT $LN24@IsExistenc

; 1248 : 	while(pos != NULL){

  000a5	85 f6		 test	 esi, esi
  000a7	75 8b		 jne	 SHORT $LL2@IsExistenc
$LN3@IsExistenc:

; 1253 : 	}
; 1254 : 	return false;

  000a9	32 c0		 xor	 al, al

; 1255 : }

  000ab	8b 4d f4	 mov	 ecx, DWORD PTR __$EHRec$[ebp]
  000ae	64 89 0d 00 00
	00 00		 mov	 DWORD PTR fs:0, ecx
  000b5	59		 pop	 ecx
  000b6	5f		 pop	 edi
  000b7	5e		 pop	 esi
  000b8	5b		 pop	 ebx
  000b9	8b e5		 mov	 esp, ebp
  000bb	5d		 pop	 ebp
  000bc	c2 08 00	 ret	 8
$LN24@IsExistenc:

; 1252 : 			pGraph->GetGraphData().GetGraphName() == strGraphName) return true;

  000bf	b0 01		 mov	 al, 1

; 1255 : }

  000c1	8b 4d f4	 mov	 ecx, DWORD PTR __$EHRec$[ebp]
  000c4	64 89 0d 00 00
	00 00		 mov	 DWORD PTR fs:0, ecx
  000cb	59		 pop	 ecx
  000cc	5f		 pop	 edi
  000cd	5e		 pop	 esi
  000ce	5b		 pop	 ebx
  000cf	8b e5		 mov	 esp, ebp
  000d1	5d		 pop	 ebp
  000d2	c2 08 00	 ret	 8
_TEXT	ENDS
;	COMDAT text$x
text$x	SEGMENT
__unwindfunclet$?IsExistenceGraph@CVertScaleGroup@@QBE_NPBDABV?$CStringT@DV?$StrTraitMFC_DLL@DV?$ChTraitsCRT@D@ATL@@@@@ATL@@@Z$0:
  00000	8b 45 ec	 mov	 eax, DWORD PTR $T3[ebp]
  00003	83 e0 01	 and	 eax, 1
  00006	0f 84 0d 00 00
	00		 je	 $LN9@IsExistenc
  0000c	83 65 ec fe	 and	 DWORD PTR $T3[ebp], -2	; fffffffeH
  00010	8d 4d e8	 lea	 ecx, DWORD PTR $T2[ebp]
  00013	ff 25 00 00 00
	00		 jmp	 DWORD PTR __imp_??1?$CStringT@DV?$StrTraitMFC_DLL@DV?$ChTraitsCRT@D@ATL@@@@@ATL@@QAE@XZ
$LN9@IsExistenc:
  00019	c3		 ret	 0
  0001a	cc		 int	 3
  0001b	cc		 int	 3
  0001c	cc		 int	 3
  0001d	cc		 int	 3
  0001e	cc		 int	 3
__ehhandler$?IsExistenceGraph@CVertScaleGroup@@QBE_NPBDABV?$CStringT@DV?$StrTraitMFC_DLL@DV?$ChTraitsCRT@D@ATL@@@@@ATL@@@Z:
  0001f	90		 npad	 1
  00020	90		 npad	 1
  00021	8b 54 24 08	 mov	 edx, DWORD PTR [esp+8]
  00025	8d 42 0c	 lea	 eax, DWORD PTR [edx+12]
  00028	8b 4a e4	 mov	 ecx, DWORD PTR [edx-28]
  0002b	33 c8		 xor	 ecx, eax
  0002d	e8 00 00 00 00	 call	 @__security_check_cookie@4
  00032	b8 00 00 00 00	 mov	 eax, OFFSET __ehfuncinfo$?IsExistenceGraph@CVertScaleGroup@@QBE_NPBDABV?$CStringT@DV?$StrTraitMFC_DLL@DV?$ChTraitsCRT@D@ATL@@@@@ATL@@@Z
  00037	e9 00 00 00 00	 jmp	 ___CxxFrameHandler3
text$x	ENDS
?IsExistenceGraph@CVertScaleGroup@@QBE_NPBDABV?$CStringT@DV?$StrTraitMFC_DLL@DV?$ChTraitsCRT@D@ATL@@@@@ATL@@@Z ENDP ; CVertScaleGroup::IsExistenceGraph
; Function compile flags: /Ogtp
; File D:\git\src\IBK\IBK_DRFN\ProjSrc\SrcChartEx\ChartOCX\ChartObject\VertScaleGroup.cpp
; File C:\Program Files (x86)\Microsoft Visual Studio\2019\Community\VC\Tools\MSVC\14.29.30133\atlmfc\include\afxcoll.inl
; File D:\git\src\IBK\IBK_DRFN\ProjSrc\SrcChartEx\ChartOCX\ChartObject\VertScaleGroup.cpp
; File C:\Program Files (x86)\Microsoft Visual Studio\2019\Community\VC\Tools\MSVC\14.29.30133\atlmfc\include\cstringt.h
; File D:\git\src\IBK\IBK_DRFN\ProjSrc\SrcChartEx\ChartOCX\ChartObject\VertScaleGroup.cpp
; File C:\Program Files (x86)\Microsoft Visual Studio\2019\Community\VC\Tools\MSVC\14.29.30133\atlmfc\include\cstringt.h
; File D:\git\src\IBK\IBK_DRFN\ProjSrc\SrcChartEx\ChartOCX\ChartObject\VertScaleGroup.cpp
; File C:\Program Files (x86)\Microsoft Visual Studio\2019\Community\VC\Tools\MSVC\14.29.30133\atlmfc\include\cstringt.h
; File D:\git\src\IBK\IBK_DRFN\ProjSrc\SrcChartEx\ChartOCX\ChartObject\VertScaleGroup.cpp
;	COMDAT ?IsExistenceGraph@CVertScaleGroup@@QBE_NABV?$CStringT@DV?$StrTraitMFC_DLL@DV?$ChTraitsCRT@D@ATL@@@@@ATL@@@Z
_TEXT	SEGMENT
__$EHRec$ = -12						; size = 12
$T2 = 8							; size = 4
_strGraphName$ = 8					; size = 4
?IsExistenceGraph@CVertScaleGroup@@QBE_NABV?$CStringT@DV?$StrTraitMFC_DLL@DV?$ChTraitsCRT@D@ATL@@@@@ATL@@@Z PROC ; CVertScaleGroup::IsExistenceGraph, COMDAT
; _this$ = ecx

; 1234 : {

  00000	55		 push	 ebp
  00001	8b ec		 mov	 ebp, esp
  00003	6a ff		 push	 -1
  00005	68 00 00 00 00	 push	 __ehhandler$?IsExistenceGraph@CVertScaleGroup@@QBE_NABV?$CStringT@DV?$StrTraitMFC_DLL@DV?$ChTraitsCRT@D@ATL@@@@@ATL@@@Z
  0000a	64 a1 00 00 00
	00		 mov	 eax, DWORD PTR fs:0
  00010	50		 push	 eax
  00011	53		 push	 ebx
  00012	56		 push	 esi
  00013	57		 push	 edi
  00014	a1 00 00 00 00	 mov	 eax, DWORD PTR ___security_cookie
  00019	33 c5		 xor	 eax, ebp
  0001b	50		 push	 eax
  0001c	8d 45 f4	 lea	 eax, DWORD PTR __$EHRec$[ebp]
  0001f	64 a3 00 00 00
	00		 mov	 DWORD PTR fs:0, eax

; 1235 : 	POSITION pos = m_GraphList.GetHeadPosition();

  00025	8b 71 7c	 mov	 esi, DWORD PTR [ecx+124]

; 1236 : 	while(pos != NULL){

  00028	85 f6		 test	 esi, esi
  0002a	74 47		 je	 SHORT $LN3@IsExistenc
  0002c	8b 5d 08	 mov	 ebx, DWORD PTR _strGraphName$[ebp]
  0002f	90		 npad	 1
$LL2@IsExistenc:
; File C:\Program Files (x86)\Microsoft Visual Studio\2019\Community\VC\Tools\MSVC\14.29.30133\atlmfc\include\afxcoll.inl

; 435  : 	{ CNode* pNode = (CNode*) rPosition;

  00030	8d 06		 lea	 eax, DWORD PTR [esi]

; 436  : 		ASSERT(AfxIsValidAddress(pNode, sizeof(CNode)));
; 437  : 		if( pNode == NULL )
; 438  : 			AfxThrowInvalidArgException();
; 439  : 		rPosition = (POSITION) pNode->pNext;

  00032	8b 36		 mov	 esi, DWORD PTR [esi]
; File D:\git\src\IBK\IBK_DRFN\ProjSrc\SrcChartEx\ChartOCX\ChartObject\VertScaleGroup.cpp

; 1239 : 		if( pGraph->GetGraphData().GetGraphName() == strGraphName) return true;

  00034	8d 4d 08	 lea	 ecx, DWORD PTR $T2[ebp]
  00037	51		 push	 ecx
  00038	8b 48 08	 mov	 ecx, DWORD PTR [eax+8]
  0003b	e8 00 00 00 00	 call	 ?GetGraphData@CGraphImp@@QAEAAVCGraphData@@XZ ; CGraphImp::GetGraphData
  00040	8b c8		 mov	 ecx, eax
  00042	ff 15 00 00 00
	00		 call	 DWORD PTR __imp_?GetGraphName@CGraphData@@QBE?AV?$CStringT@DV?$StrTraitMFC_DLL@DV?$ChTraitsCRT@D@ATL@@@@@ATL@@XZ
; File C:\Program Files (x86)\Microsoft Visual Studio\2019\Community\VC\Tools\MSVC\14.29.30133\atlmfc\include\cstringt.h

; 2479 : 		return(str1.Compare(str2) == 0);

  00048	ff 33		 push	 DWORD PTR [ebx]
  0004a	8b c8		 mov	 ecx, eax
; File D:\git\src\IBK\IBK_DRFN\ProjSrc\SrcChartEx\ChartOCX\ChartObject\VertScaleGroup.cpp

; 1239 : 		if( pGraph->GetGraphData().GetGraphName() == strGraphName) return true;

  0004c	c7 45 fc 00 00
	00 00		 mov	 DWORD PTR __$EHRec$[ebp+8], 0
; File C:\Program Files (x86)\Microsoft Visual Studio\2019\Community\VC\Tools\MSVC\14.29.30133\atlmfc\include\cstringt.h

; 2479 : 		return(str1.Compare(str2) == 0);

  00053	ff 15 00 00 00
	00		 call	 DWORD PTR __imp_?Compare@?$CStringT@DV?$StrTraitMFC_DLL@DV?$ChTraitsCRT@D@ATL@@@@@ATL@@QBEHPBD@Z
; File D:\git\src\IBK\IBK_DRFN\ProjSrc\SrcChartEx\ChartOCX\ChartObject\VertScaleGroup.cpp

; 1239 : 		if( pGraph->GetGraphData().GetGraphName() == strGraphName) return true;

  00059	8d 4d 08	 lea	 ecx, DWORD PTR $T2[ebp]
  0005c	c7 45 fc ff ff
	ff ff		 mov	 DWORD PTR __$EHRec$[ebp+8], -1
; File C:\Program Files (x86)\Microsoft Visual Studio\2019\Community\VC\Tools\MSVC\14.29.30133\atlmfc\include\cstringt.h

; 2479 : 		return(str1.Compare(str2) == 0);

  00063	8b f8		 mov	 edi, eax
; File D:\git\src\IBK\IBK_DRFN\ProjSrc\SrcChartEx\ChartOCX\ChartObject\VertScaleGroup.cpp

; 1239 : 		if( pGraph->GetGraphData().GetGraphName() == strGraphName) return true;

  00065	ff 15 00 00 00
	00		 call	 DWORD PTR __imp_??1?$CStringT@DV?$StrTraitMFC_DLL@DV?$ChTraitsCRT@D@ATL@@@@@ATL@@QAE@XZ
  0006b	85 ff		 test	 edi, edi
  0006d	74 1a		 je	 SHORT $LN20@IsExistenc

; 1236 : 	while(pos != NULL){

  0006f	85 f6		 test	 esi, esi
  00071	75 bd		 jne	 SHORT $LL2@IsExistenc
$LN3@IsExistenc:

; 1240 : 	}
; 1241 : 	return false;

  00073	32 c0		 xor	 al, al

; 1242 : }

  00075	8b 4d f4	 mov	 ecx, DWORD PTR __$EHRec$[ebp]
  00078	64 89 0d 00 00
	00 00		 mov	 DWORD PTR fs:0, ecx
  0007f	59		 pop	 ecx
  00080	5f		 pop	 edi
  00081	5e		 pop	 esi
  00082	5b		 pop	 ebx
  00083	8b e5		 mov	 esp, ebp
  00085	5d		 pop	 ebp
  00086	c2 04 00	 ret	 4
$LN20@IsExistenc:

; 1239 : 		if( pGraph->GetGraphData().GetGraphName() == strGraphName) return true;

  00089	b0 01		 mov	 al, 1

; 1242 : }

  0008b	8b 4d f4	 mov	 ecx, DWORD PTR __$EHRec$[ebp]
  0008e	64 89 0d 00 00
	00 00		 mov	 DWORD PTR fs:0, ecx
  00095	59		 pop	 ecx
  00096	5f		 pop	 edi
  00097	5e		 pop	 esi
  00098	5b		 pop	 ebx
  00099	8b e5		 mov	 esp, ebp
  0009b	5d		 pop	 ebp
  0009c	c2 04 00	 ret	 4
_TEXT	ENDS
;	COMDAT text$x
text$x	SEGMENT
__unwindfunclet$?IsExistenceGraph@CVertScaleGroup@@QBE_NABV?$CStringT@DV?$StrTraitMFC_DLL@DV?$ChTraitsCRT@D@ATL@@@@@ATL@@@Z$0:
  00000	8d 4d 08	 lea	 ecx, DWORD PTR $T2[ebp]
  00003	ff 25 00 00 00
	00		 jmp	 DWORD PTR __imp_??1?$CStringT@DV?$StrTraitMFC_DLL@DV?$ChTraitsCRT@D@ATL@@@@@ATL@@QAE@XZ
  00009	cc		 int	 3
  0000a	cc		 int	 3
  0000b	cc		 int	 3
  0000c	cc		 int	 3
  0000d	cc		 int	 3
__ehhandler$?IsExistenceGraph@CVertScaleGroup@@QBE_NABV?$CStringT@DV?$StrTraitMFC_DLL@DV?$ChTraitsCRT@D@ATL@@@@@ATL@@@Z:
  0000e	90		 npad	 1
  0000f	90		 npad	 1
  00010	8b 54 24 08	 mov	 edx, DWORD PTR [esp+8]
  00014	8d 42 0c	 lea	 eax, DWORD PTR [edx+12]
  00017	8b 4a f0	 mov	 ecx, DWORD PTR [edx-16]
  0001a	33 c8		 xor	 ecx, eax
  0001c	e8 00 00 00 00	 call	 @__security_check_cookie@4
  00021	b8 00 00 00 00	 mov	 eax, OFFSET __ehfuncinfo$?IsExistenceGraph@CVertScaleGroup@@QBE_NABV?$CStringT@DV?$StrTraitMFC_DLL@DV?$ChTraitsCRT@D@ATL@@@@@ATL@@@Z
  00026	e9 00 00 00 00	 jmp	 ___CxxFrameHandler3
text$x	ENDS
?IsExistenceGraph@CVertScaleGroup@@QBE_NABV?$CStringT@DV?$StrTraitMFC_DLL@DV?$ChTraitsCRT@D@ATL@@@@@ATL@@@Z ENDP ; CVertScaleGroup::IsExistenceGraph
; Function compile flags: /Ogtp
; File D:\git\src\IBK\IBK_DRFN\ProjSrc\SrcChartEx\ChartOCX\ChartObject\VertScaleGroup.cpp
; File C:\Program Files (x86)\Microsoft Visual Studio\2019\Community\VC\Tools\MSVC\14.29.30133\atlmfc\include\afxcoll.inl
; File D:\git\src\IBK\IBK_DRFN\ProjSrc\SrcChartEx\ChartOCX\ChartObject\VertScaleGroup.cpp
;	COMDAT ?IsViewableGraphTitleEmpty@CVertScaleGroup@@QBE_NXZ
_TEXT	SEGMENT
?IsViewableGraphTitleEmpty@CVertScaleGroup@@QBE_NXZ PROC ; CVertScaleGroup::IsViewableGraphTitleEmpty, COMDAT
; _this$ = ecx

; 1220 : {

  00000	56		 push	 esi

; 1221 : 	POSITION pos = m_GraphList.GetHeadPosition();

  00001	8b 71 7c	 mov	 esi, DWORD PTR [ecx+124]

; 1222 : 
; 1223 : 	while(pos != NULL){

  00004	85 f6		 test	 esi, esi
  00006	74 21		 je	 SHORT $LN3@IsViewable
  00008	0f 1f 84 00 00
	00 00 00	 npad	 8
$LL2@IsViewable:

; 1226 : 		if(!pGraph->GetSubGraphList().IsViewableSubGraphTitleEmpty())

  00010	8b 4e 08	 mov	 ecx, DWORD PTR [esi+8]
; File C:\Program Files (x86)\Microsoft Visual Studio\2019\Community\VC\Tools\MSVC\14.29.30133\atlmfc\include\afxcoll.inl

; 439  : 		rPosition = (POSITION) pNode->pNext;

  00013	8b 36		 mov	 esi, DWORD PTR [esi]
; File D:\git\src\IBK\IBK_DRFN\ProjSrc\SrcChartEx\ChartOCX\ChartObject\VertScaleGroup.cpp

; 1226 : 		if(!pGraph->GetSubGraphList().IsViewableSubGraphTitleEmpty())

  00015	e8 00 00 00 00	 call	 ?GetSubGraphList@CGraphImp@@QAEAAVCSubGraphList@@XZ ; CGraphImp::GetSubGraphList
  0001a	8b c8		 mov	 ecx, eax
  0001c	e8 00 00 00 00	 call	 ?IsViewableSubGraphTitleEmpty@CSubGraphList@@QBE_NXZ ; CSubGraphList::IsViewableSubGraphTitleEmpty
  00021	84 c0		 test	 al, al
  00023	74 08		 je	 SHORT $LN15@IsViewable

; 1222 : 
; 1223 : 	while(pos != NULL){

  00025	85 f6		 test	 esi, esi
  00027	75 e7		 jne	 SHORT $LL2@IsViewable
$LN3@IsViewable:

; 1228 : 	}
; 1229 : 	return true;

  00029	b0 01		 mov	 al, 1
  0002b	5e		 pop	 esi

; 1230 : }

  0002c	c3		 ret	 0
$LN15@IsViewable:

; 1227 : 			return false;

  0002d	32 c0		 xor	 al, al
  0002f	5e		 pop	 esi

; 1230 : }

  00030	c3		 ret	 0
?IsViewableGraphTitleEmpty@CVertScaleGroup@@QBE_NXZ ENDP ; CVertScaleGroup::IsViewableGraphTitleEmpty
_TEXT	ENDS
; Function compile flags: /Ogtp
; File D:\git\src\IBK\IBK_DRFN\ProjSrc\SrcChartEx\ChartOCX\ChartObject\VertScaleGroup.cpp
;	COMDAT ?GetDisplayDataMinMax@CVertScaleGroup@@QBE?AVCDisplayDataMinMax@@XZ
_TEXT	SEGMENT
___$ReturnUdt$ = 8					; size = 4
?GetDisplayDataMinMax@CVertScaleGroup@@QBE?AVCDisplayDataMinMax@@XZ PROC ; CVertScaleGroup::GetDisplayDataMinMax, COMDAT
; _this$ = ecx

; 1213 : {

  00000	55		 push	 ebp
  00001	8b ec		 mov	 ebp, esp

; 1214 : 	return m_displayDataMinMax;

  00003	8b 45 08	 mov	 eax, DWORD PTR ___$ReturnUdt$[ebp]
  00006	0f 10 41 68	 movups	 xmm0, XMMWORD PTR [ecx+104]
  0000a	0f 11 00	 movups	 XMMWORD PTR [eax], xmm0

; 1215 : }

  0000d	5d		 pop	 ebp
  0000e	c2 04 00	 ret	 4
?GetDisplayDataMinMax@CVertScaleGroup@@QBE?AVCDisplayDataMinMax@@XZ ENDP ; CVertScaleGroup::GetDisplayDataMinMax
_TEXT	ENDS
; Function compile flags: /Ogtp
; File D:\git\src\IBK\IBK_DRFN\ProjSrc\SrcChartEx\ChartOCX\ChartObject\VertScaleGroup.cpp
; File C:\Program Files (x86)\Microsoft Visual Studio\2019\Community\VC\Tools\MSVC\14.29.30133\atlmfc\include\afxtempl.h
; File C:\Program Files (x86)\Microsoft Visual Studio\2019\Community\VC\Tools\MSVC\14.29.30133\atlmfc\include\afxcoll.inl
; File D:\git\src\IBK\IBK_DRFN\ProjSrc\SrcChartEx\ChartOCX\ChartObject\VertScaleGroup.cpp
;	COMDAT ?GetSubGraphViewDataList@CVertScaleGroup@@QBEXPBDAAVCSubGraphViewDataList@@@Z
_TEXT	SEGMENT
_lpszRQ$ = 8						; size = 4
_subGraphViewDataList$ = 12				; size = 4
?GetSubGraphViewDataList@CVertScaleGroup@@QBEXPBDAAVCSubGraphViewDataList@@@Z PROC ; CVertScaleGroup::GetSubGraphViewDataList, COMDAT
; _this$ = ecx

; 1198 : {

  00000	55		 push	 ebp
  00001	8b ec		 mov	 ebp, esp
  00003	56		 push	 esi

; 1199 : 	POSITION pos = m_GraphList.GetHeadPosition();

  00004	8b 71 7c	 mov	 esi, DWORD PTR [ecx+124]

; 1200 : 	while(pos != NULL){

  00007	85 f6		 test	 esi, esi
  00009	74 36		 je	 SHORT $LN3@GetSubGrap
  0000b	53		 push	 ebx
  0000c	8b 5d 08	 mov	 ebx, DWORD PTR _lpszRQ$[ebp]
  0000f	57		 push	 edi
$LL2@GetSubGrap:
; File C:\Program Files (x86)\Microsoft Visual Studio\2019\Community\VC\Tools\MSVC\14.29.30133\atlmfc\include\afxtempl.h

; 1898 : 		{ return (TYPE)BASE_CLASS::GetNext(rPosition); }

  00010	8b 7e 08	 mov	 edi, DWORD PTR [esi+8]
; File C:\Program Files (x86)\Microsoft Visual Studio\2019\Community\VC\Tools\MSVC\14.29.30133\atlmfc\include\afxcoll.inl

; 439  : 		rPosition = (POSITION) pNode->pNext;

  00013	8b 36		 mov	 esi, DWORD PTR [esi]
; File D:\git\src\IBK\IBK_DRFN\ProjSrc\SrcChartEx\ChartOCX\ChartObject\VertScaleGroup.cpp

; 1204 : 		if( lpszRQ) if( *lpszRQ) if( ::lstrcmp( pGraph->GetGraphRQ(), lpszRQ))

  00015	85 db		 test	 ebx, ebx
  00017	74 18		 je	 SHORT $LN6@GetSubGrap
  00019	80 3b 00	 cmp	 BYTE PTR [ebx], 0
  0001c	74 13		 je	 SHORT $LN6@GetSubGrap
  0001e	8b 07		 mov	 eax, DWORD PTR [edi]
  00020	8b cf		 mov	 ecx, edi
  00022	53		 push	 ebx
  00023	ff 50 1c	 call	 DWORD PTR [eax+28]
  00026	50		 push	 eax
  00027	ff 15 00 00 00
	00		 call	 DWORD PTR __imp__lstrcmpA@8
  0002d	85 c0		 test	 eax, eax
  0002f	75 0a		 jne	 SHORT $LN18@GetSubGrap
$LN6@GetSubGrap:

; 1205 : 			continue;
; 1206 : 		pGraph->GetSubGraphViewDataList(subGraphViewDataList);

  00031	ff 75 0c	 push	 DWORD PTR _subGraphViewDataList$[ebp]
  00034	8b cf		 mov	 ecx, edi
  00036	e8 00 00 00 00	 call	 ?GetSubGraphViewDataList@CGraphImp@@QBEXAAVCSubGraphViewDataList@@@Z ; CGraphImp::GetSubGraphViewDataList
$LN18@GetSubGrap:

; 1200 : 	while(pos != NULL){

  0003b	85 f6		 test	 esi, esi
  0003d	75 d1		 jne	 SHORT $LL2@GetSubGrap
  0003f	5f		 pop	 edi
  00040	5b		 pop	 ebx
$LN3@GetSubGrap:
  00041	5e		 pop	 esi

; 1207 : 	}
; 1208 : }

  00042	5d		 pop	 ebp
  00043	c2 08 00	 ret	 8
?GetSubGraphViewDataList@CVertScaleGroup@@QBEXPBDAAVCSubGraphViewDataList@@@Z ENDP ; CVertScaleGroup::GetSubGraphViewDataList
_TEXT	ENDS
; Function compile flags: /Ogtp
; File D:\git\src\IBK\IBK_DRFN\ProjSrc\SrcChartEx\ChartOCX\ChartObject\VertScaleGroup.cpp
; File C:\Program Files (x86)\Microsoft Visual Studio\2019\Community\VC\Tools\MSVC\14.29.30133\atlmfc\include\atlsimpstr.h
; File D:\git\src\IBK\IBK_DRFN\ProjSrc\SrcChartEx\ChartOCX\ChartObject\VertScaleGroup.cpp
; File C:\Program Files (x86)\Microsoft Visual Studio\2019\Community\VC\Tools\MSVC\14.29.30133\atlmfc\include\afxcoll.inl
; File D:\git\src\IBK\IBK_DRFN\ProjSrc\SrcChartEx\ChartOCX\ChartObject\VertScaleGroup.cpp
;	COMDAT ?GetRightVertScaleRegionWidth@CVertScaleGroup@@QBEXPAVCDC@@AAHH@Z
_TEXT	SEGMENT
_calData$ = -168					; size = 144
$T2 = -24						; size = 8
$T3 = -16						; size = 4
$T4 = -16						; size = 4
__$EHRec$ = -12						; size = 12
_pDC$ = 8						; size = 4
_p_nRightWidth$ = 12					; size = 4
_p_bIsDualScale$ = 16					; size = 4
?GetRightVertScaleRegionWidth@CVertScaleGroup@@QBEXPAVCDC@@AAHH@Z PROC ; CVertScaleGroup::GetRightVertScaleRegionWidth, COMDAT
; _this$ = ecx

; 1177 : {

  00000	55		 push	 ebp
  00001	8b ec		 mov	 ebp, esp
  00003	6a ff		 push	 -1
  00005	68 00 00 00 00	 push	 __ehhandler$?GetRightVertScaleRegionWidth@CVertScaleGroup@@QBEXPAVCDC@@AAHH@Z
  0000a	64 a1 00 00 00
	00		 mov	 eax, DWORD PTR fs:0
  00010	50		 push	 eax
  00011	81 ec 9c 00 00
	00		 sub	 esp, 156		; 0000009cH
  00017	53		 push	 ebx
  00018	56		 push	 esi
  00019	57		 push	 edi
  0001a	a1 00 00 00 00	 mov	 eax, DWORD PTR ___security_cookie
  0001f	33 c5		 xor	 eax, ebp
  00021	50		 push	 eax
  00022	8d 45 f4	 lea	 eax, DWORD PTR __$EHRec$[ebp]
  00025	64 a3 00 00 00
	00		 mov	 DWORD PTR fs:0, eax
  0002b	8b f9		 mov	 edi, ecx
  0002d	33 c9		 xor	 ecx, ecx

; 1179 : 	if( m_pMainBlockBaseData == NULL || m_vertScale.GetScaleData().IsEmpty()) return;

  0002f	8d 77 10	 lea	 esi, DWORD PTR [edi+16]
  00032	89 4d f0	 mov	 DWORD PTR $T3[ebp], ecx
  00035	39 4f 08	 cmp	 DWORD PTR [edi+8], ecx
  00038	74 1d		 je	 SHORT $LN33@GetRightVe
  0003a	8d 45 f0	 lea	 eax, DWORD PTR $T4[ebp]
  0003d	8b ce		 mov	 ecx, esi
  0003f	50		 push	 eax
  00040	ff 15 00 00 00
	00		 call	 DWORD PTR __imp_?GetScaleData@CScale@@QBE?AV?$CStringT@DV?$StrTraitMFC_DLL@DV?$ChTraitsCRT@D@ATL@@@@@ATL@@XZ
  00046	b9 01 00 00 00	 mov	 ecx, 1
; File C:\Program Files (x86)\Microsoft Visual Studio\2019\Community\VC\Tools\MSVC\14.29.30133\atlmfc\include\atlsimpstr.h

; 519  : 		return( GetData()->nDataLength );

  0004b	8b 00		 mov	 eax, DWORD PTR [eax]

; 533  : 		return( GetLength() == 0 );

  0004d	83 78 f4 00	 cmp	 DWORD PTR [eax-12], 0
; File D:\git\src\IBK\IBK_DRFN\ProjSrc\SrcChartEx\ChartOCX\ChartObject\VertScaleGroup.cpp

; 1179 : 	if( m_pMainBlockBaseData == NULL || m_vertScale.GetScaleData().IsEmpty()) return;

  00051	74 04		 je	 SHORT $LN33@GetRightVe
  00053	32 db		 xor	 bl, bl
  00055	eb 02		 jmp	 SHORT $LN9@GetRightVe
$LN33@GetRightVe:
  00057	b3 01		 mov	 bl, 1
$LN9@GetRightVe:
  00059	f6 c1 01	 test	 cl, 1
  0005c	74 09		 je	 SHORT $LN12@GetRightVe
  0005e	8d 4d f0	 lea	 ecx, DWORD PTR $T4[ebp]
  00061	ff 15 00 00 00
	00		 call	 DWORD PTR __imp_??1?$CStringT@DV?$StrTraitMFC_DLL@DV?$ChTraitsCRT@D@ATL@@@@@ATL@@QAE@XZ
$LN12@GetRightVe:
  00067	84 db		 test	 bl, bl
  00069	0f 85 8d 00 00
	00		 jne	 $LN28@GetRightVe

; 1180 : 
; 1181 : 	//scale position = ,  .
; 1182 : 	if( m_vertScale.GetVertScalePosition() != CScaleBaseData::VERT_RIGHT 
; 1183 : 		&& m_vertScale.GetVertScalePosition() != CScaleBaseData::VERT_BOTH) return;

  0006f	8b 1d 00 00 00
	00		 mov	 ebx, DWORD PTR __imp_?GetVertScalePosition@CVerticalScale@@QBE?AW4VERTSCALEPOSITION@CScaleBaseData@@XZ
  00075	8b ce		 mov	 ecx, esi
  00077	ff d3		 call	 ebx
  00079	83 f8 01	 cmp	 eax, 1
  0007c	74 09		 je	 SHORT $LN5@GetRightVe
  0007e	8b ce		 mov	 ecx, esi
  00080	ff d3		 call	 ebx
  00082	83 f8 02	 cmp	 eax, 2
  00085	75 75		 jne	 SHORT $LN28@GetRightVe
$LN5@GetRightVe:

; 1184 : 
; 1185 : 	CVertScaleMaxWidthCalculatorData calData(true, m_pMainBlockBaseData->GetDisplayAttributes(), m_vertScale, p_bIsDualScale);

  00087	ff 75 10	 push	 DWORD PTR _p_bIsDualScale$[ebp]
  0008a	8b 4f 08	 mov	 ecx, DWORD PTR [edi+8]
  0008d	8d 45 e8	 lea	 eax, DWORD PTR $T2[ebp]
  00090	56		 push	 esi
  00091	50		 push	 eax
  00092	e8 00 00 00 00	 call	 ?GetDisplayAttributes@CMainBlockBaseData@@QBE?AVCDisplayAttributes@@XZ ; CMainBlockBaseData::GetDisplayAttributes
  00097	50		 push	 eax
  00098	6a 01		 push	 1
  0009a	8d 8d 58 ff ff
	ff		 lea	 ecx, DWORD PTR _calData$[ebp]
  000a0	e8 00 00 00 00	 call	 ??0CVertScaleMaxWidthCalculatorData@@QAE@_NABVCDisplayAttributes@@ABVCVerticalScale@@H@Z ; CVertScaleMaxWidthCalculatorData::CVertScaleMaxWidthCalculatorData

; 1186 : 	POSITION pos = m_GraphList.GetHeadPosition();

  000a5	8b 77 7c	 mov	 esi, DWORD PTR [edi+124]
  000a8	c7 45 fc 00 00
	00 00		 mov	 DWORD PTR __$EHRec$[ebp+8], 0

; 1187 : 	while(pos != NULL)

  000af	85 f6		 test	 esi, esi
  000b1	74 2b		 je	 SHORT $LN3@GetRightVe
  000b3	8b 7d 0c	 mov	 edi, DWORD PTR _p_nRightWidth$[ebp]
  000b6	8b 5d 08	 mov	 ebx, DWORD PTR _pDC$[ebp]
  000b9	0f 1f 80 00 00
	00 00		 npad	 7
$LL2@GetRightVe:

; 1191 : 		int nTemp = pGraph->GetRightVertScaleRegionWidth(pDC, &calData);

  000c0	8d 8d 58 ff ff
	ff		 lea	 ecx, DWORD PTR _calData$[ebp]
; File C:\Program Files (x86)\Microsoft Visual Studio\2019\Community\VC\Tools\MSVC\14.29.30133\atlmfc\include\afxcoll.inl

; 435  : 	{ CNode* pNode = (CNode*) rPosition;

  000c6	8d 06		 lea	 eax, DWORD PTR [esi]

; 436  : 		ASSERT(AfxIsValidAddress(pNode, sizeof(CNode)));
; 437  : 		if( pNode == NULL )
; 438  : 			AfxThrowInvalidArgException();
; 439  : 		rPosition = (POSITION) pNode->pNext;

  000c8	8b 36		 mov	 esi, DWORD PTR [esi]
; File D:\git\src\IBK\IBK_DRFN\ProjSrc\SrcChartEx\ChartOCX\ChartObject\VertScaleGroup.cpp

; 1191 : 		int nTemp = pGraph->GetRightVertScaleRegionWidth(pDC, &calData);

  000ca	51		 push	 ecx
  000cb	8b 48 08	 mov	 ecx, DWORD PTR [eax+8]
  000ce	53		 push	 ebx
  000cf	e8 00 00 00 00	 call	 ?GetRightVertScaleRegionWidth@CGraphImp@@QBEHPAVCDC@@PAVCVertScaleMaxWidthCalculatorData@@@Z ; CGraphImp::GetRightVertScaleRegionWidth

; 1192 : 		if(nTemp > p_nRightWidth) p_nRightWidth = nTemp;

  000d4	3b 07		 cmp	 eax, DWORD PTR [edi]
  000d6	7e 02		 jle	 SHORT $LN38@GetRightVe
  000d8	89 07		 mov	 DWORD PTR [edi], eax
$LN38@GetRightVe:

; 1187 : 	while(pos != NULL)

  000da	85 f6		 test	 esi, esi
  000dc	75 e2		 jne	 SHORT $LL2@GetRightVe
$LN3@GetRightVe:
  000de	8d 4d bc	 lea	 ecx, DWORD PTR _calData$[ebp+100]
  000e1	ff 15 00 00 00
	00		 call	 DWORD PTR __imp_??1?$CStringT@DV?$StrTraitMFC_DLL@DV?$ChTraitsCRT@D@ATL@@@@@ATL@@QAE@XZ
  000e7	8d 4d b8	 lea	 ecx, DWORD PTR _calData$[ebp+96]
  000ea	ff 15 00 00 00
	00		 call	 DWORD PTR __imp_??1?$CStringT@DV?$StrTraitMFC_DLL@DV?$ChTraitsCRT@D@ATL@@@@@ATL@@QAE@XZ
  000f0	8d 8d 60 ff ff
	ff		 lea	 ecx, DWORD PTR _calData$[ebp+8]
  000f6	ff 15 00 00 00
	00		 call	 DWORD PTR __imp_??1CVerticalScale@@QAE@XZ
$LN28@GetRightVe:

; 1193 : 	}
; 1194 : }

  000fc	8b 4d f4	 mov	 ecx, DWORD PTR __$EHRec$[ebp]
  000ff	64 89 0d 00 00
	00 00		 mov	 DWORD PTR fs:0, ecx
  00106	59		 pop	 ecx
  00107	5f		 pop	 edi
  00108	5e		 pop	 esi
  00109	5b		 pop	 ebx
  0010a	8b e5		 mov	 esp, ebp
  0010c	5d		 pop	 ebp
  0010d	c2 0c 00	 ret	 12			; 0000000cH
_TEXT	ENDS
;	COMDAT text$x
text$x	SEGMENT
__unwindfunclet$?GetRightVertScaleRegionWidth@CVertScaleGroup@@QBEXPAVCDC@@AAHH@Z$1:
  00000	8d 8d 58 ff ff
	ff		 lea	 ecx, DWORD PTR _calData$[ebp]
  00006	e9 00 00 00 00	 jmp	 ??1CVertScaleMaxWidthCalculatorData@@QAE@XZ
  0000b	cc		 int	 3
  0000c	cc		 int	 3
  0000d	cc		 int	 3
  0000e	cc		 int	 3
  0000f	cc		 int	 3
__ehhandler$?GetRightVertScaleRegionWidth@CVertScaleGroup@@QBEXPAVCDC@@AAHH@Z:
  00010	90		 npad	 1
  00011	90		 npad	 1
  00012	8b 54 24 08	 mov	 edx, DWORD PTR [esp+8]
  00016	8d 42 0c	 lea	 eax, DWORD PTR [edx+12]
  00019	8b 8a 54 ff ff
	ff		 mov	 ecx, DWORD PTR [edx-172]
  0001f	33 c8		 xor	 ecx, eax
  00021	e8 00 00 00 00	 call	 @__security_check_cookie@4
  00026	b8 00 00 00 00	 mov	 eax, OFFSET __ehfuncinfo$?GetRightVertScaleRegionWidth@CVertScaleGroup@@QBEXPAVCDC@@AAHH@Z
  0002b	e9 00 00 00 00	 jmp	 ___CxxFrameHandler3
text$x	ENDS
?GetRightVertScaleRegionWidth@CVertScaleGroup@@QBEXPAVCDC@@AAHH@Z ENDP ; CVertScaleGroup::GetRightVertScaleRegionWidth
; Function compile flags: /Ogtp
; File D:\git\src\IBK\IBK_DRFN\ProjSrc\SrcChartEx\ChartOCX\ChartObject\VertScaleGroup.cpp
; File C:\Program Files (x86)\Microsoft Visual Studio\2019\Community\VC\Tools\MSVC\14.29.30133\atlmfc\include\atlsimpstr.h
; File D:\git\src\IBK\IBK_DRFN\ProjSrc\SrcChartEx\ChartOCX\ChartObject\VertScaleGroup.cpp
; File C:\Program Files (x86)\Microsoft Visual Studio\2019\Community\VC\Tools\MSVC\14.29.30133\atlmfc\include\afxcoll.inl
; File D:\git\src\IBK\IBK_DRFN\ProjSrc\SrcChartEx\ChartOCX\ChartObject\VertScaleGroup.cpp
;	COMDAT ?GetLeftVertScaleRegionWidth@CVertScaleGroup@@QBEXPAVCDC@@AAHH@Z
_TEXT	SEGMENT
_calData$ = -168					; size = 144
$T2 = -24						; size = 8
$T3 = -16						; size = 4
$T4 = -16						; size = 4
__$EHRec$ = -12						; size = 12
_pDC$ = 8						; size = 4
_p_nLeftWidth$ = 12					; size = 4
_p_bIsDualScale$ = 16					; size = 4
?GetLeftVertScaleRegionWidth@CVertScaleGroup@@QBEXPAVCDC@@AAHH@Z PROC ; CVertScaleGroup::GetLeftVertScaleRegionWidth, COMDAT
; _this$ = ecx

; 1157 : {

  00000	55		 push	 ebp
  00001	8b ec		 mov	 ebp, esp
  00003	6a ff		 push	 -1
  00005	68 00 00 00 00	 push	 __ehhandler$?GetLeftVertScaleRegionWidth@CVertScaleGroup@@QBEXPAVCDC@@AAHH@Z
  0000a	64 a1 00 00 00
	00		 mov	 eax, DWORD PTR fs:0
  00010	50		 push	 eax
  00011	81 ec 9c 00 00
	00		 sub	 esp, 156		; 0000009cH
  00017	53		 push	 ebx
  00018	56		 push	 esi
  00019	57		 push	 edi
  0001a	a1 00 00 00 00	 mov	 eax, DWORD PTR ___security_cookie
  0001f	33 c5		 xor	 eax, ebp
  00021	50		 push	 eax
  00022	8d 45 f4	 lea	 eax, DWORD PTR __$EHRec$[ebp]
  00025	64 a3 00 00 00
	00		 mov	 DWORD PTR fs:0, eax
  0002b	8b f9		 mov	 edi, ecx
  0002d	33 c9		 xor	 ecx, ecx

; 1160 : 	if( m_pMainBlockBaseData == NULL || m_vertScale.GetScaleData().IsEmpty()) return;

  0002f	8d 77 10	 lea	 esi, DWORD PTR [edi+16]
  00032	89 4d f0	 mov	 DWORD PTR $T3[ebp], ecx
  00035	39 4f 08	 cmp	 DWORD PTR [edi+8], ecx
  00038	74 1d		 je	 SHORT $LN33@GetLeftVer
  0003a	8d 45 f0	 lea	 eax, DWORD PTR $T4[ebp]
  0003d	8b ce		 mov	 ecx, esi
  0003f	50		 push	 eax
  00040	ff 15 00 00 00
	00		 call	 DWORD PTR __imp_?GetScaleData@CScale@@QBE?AV?$CStringT@DV?$StrTraitMFC_DLL@DV?$ChTraitsCRT@D@ATL@@@@@ATL@@XZ
  00046	b9 01 00 00 00	 mov	 ecx, 1
; File C:\Program Files (x86)\Microsoft Visual Studio\2019\Community\VC\Tools\MSVC\14.29.30133\atlmfc\include\atlsimpstr.h

; 519  : 		return( GetData()->nDataLength );

  0004b	8b 00		 mov	 eax, DWORD PTR [eax]

; 533  : 		return( GetLength() == 0 );

  0004d	83 78 f4 00	 cmp	 DWORD PTR [eax-12], 0
; File D:\git\src\IBK\IBK_DRFN\ProjSrc\SrcChartEx\ChartOCX\ChartObject\VertScaleGroup.cpp

; 1160 : 	if( m_pMainBlockBaseData == NULL || m_vertScale.GetScaleData().IsEmpty()) return;

  00051	74 04		 je	 SHORT $LN33@GetLeftVer
  00053	32 db		 xor	 bl, bl
  00055	eb 02		 jmp	 SHORT $LN9@GetLeftVer
$LN33@GetLeftVer:
  00057	b3 01		 mov	 bl, 1
$LN9@GetLeftVer:
  00059	f6 c1 01	 test	 cl, 1
  0005c	74 09		 je	 SHORT $LN12@GetLeftVer
  0005e	8d 4d f0	 lea	 ecx, DWORD PTR $T4[ebp]
  00061	ff 15 00 00 00
	00		 call	 DWORD PTR __imp_??1?$CStringT@DV?$StrTraitMFC_DLL@DV?$ChTraitsCRT@D@ATL@@@@@ATL@@QAE@XZ
$LN12@GetLeftVer:
  00067	84 db		 test	 bl, bl
  00069	0f 85 8d 00 00
	00		 jne	 $LN28@GetLeftVer

; 1161 : 
; 1162 : 	//scale position = ,  .
; 1163 : 	if( m_vertScale.GetVertScalePosition() != CScaleBaseData::VERT_LEFT
; 1164 : 		&& m_vertScale.GetVertScalePosition() != CScaleBaseData::VERT_BOTH) return;

  0006f	8b 1d 00 00 00
	00		 mov	 ebx, DWORD PTR __imp_?GetVertScalePosition@CVerticalScale@@QBE?AW4VERTSCALEPOSITION@CScaleBaseData@@XZ
  00075	8b ce		 mov	 ecx, esi
  00077	ff d3		 call	 ebx
  00079	85 c0		 test	 eax, eax
  0007b	74 09		 je	 SHORT $LN5@GetLeftVer
  0007d	8b ce		 mov	 ecx, esi
  0007f	ff d3		 call	 ebx
  00081	83 f8 02	 cmp	 eax, 2
  00084	75 76		 jne	 SHORT $LN28@GetLeftVer
$LN5@GetLeftVer:

; 1165 : 
; 1166 : 	CVertScaleMaxWidthCalculatorData calData(false, m_pMainBlockBaseData->GetDisplayAttributes(), m_vertScale, p_bIsDualScale);

  00086	ff 75 10	 push	 DWORD PTR _p_bIsDualScale$[ebp]
  00089	8b 4f 08	 mov	 ecx, DWORD PTR [edi+8]
  0008c	8d 45 e8	 lea	 eax, DWORD PTR $T2[ebp]
  0008f	56		 push	 esi
  00090	50		 push	 eax
  00091	e8 00 00 00 00	 call	 ?GetDisplayAttributes@CMainBlockBaseData@@QBE?AVCDisplayAttributes@@XZ ; CMainBlockBaseData::GetDisplayAttributes
  00096	50		 push	 eax
  00097	6a 00		 push	 0
  00099	8d 8d 58 ff ff
	ff		 lea	 ecx, DWORD PTR _calData$[ebp]
  0009f	e8 00 00 00 00	 call	 ??0CVertScaleMaxWidthCalculatorData@@QAE@_NABVCDisplayAttributes@@ABVCVerticalScale@@H@Z ; CVertScaleMaxWidthCalculatorData::CVertScaleMaxWidthCalculatorData

; 1167 : 	POSITION pos = m_GraphList.GetHeadPosition();

  000a4	8b 77 7c	 mov	 esi, DWORD PTR [edi+124]
  000a7	c7 45 fc 00 00
	00 00		 mov	 DWORD PTR __$EHRec$[ebp+8], 0

; 1168 : 	while(pos != NULL)

  000ae	85 f6		 test	 esi, esi
  000b0	74 2c		 je	 SHORT $LN3@GetLeftVer
  000b2	8b 7d 0c	 mov	 edi, DWORD PTR _p_nLeftWidth$[ebp]
  000b5	8b 5d 08	 mov	 ebx, DWORD PTR _pDC$[ebp]
  000b8	0f 1f 84 00 00
	00 00 00	 npad	 8
$LL2@GetLeftVer:

; 1172 : 		int nTemp = pGraph->GetLeftVertScaleRegionWidth(pDC, &calData);

  000c0	8d 8d 58 ff ff
	ff		 lea	 ecx, DWORD PTR _calData$[ebp]
; File C:\Program Files (x86)\Microsoft Visual Studio\2019\Community\VC\Tools\MSVC\14.29.30133\atlmfc\include\afxcoll.inl

; 435  : 	{ CNode* pNode = (CNode*) rPosition;

  000c6	8d 06		 lea	 eax, DWORD PTR [esi]

; 436  : 		ASSERT(AfxIsValidAddress(pNode, sizeof(CNode)));
; 437  : 		if( pNode == NULL )
; 438  : 			AfxThrowInvalidArgException();
; 439  : 		rPosition = (POSITION) pNode->pNext;

  000c8	8b 36		 mov	 esi, DWORD PTR [esi]
; File D:\git\src\IBK\IBK_DRFN\ProjSrc\SrcChartEx\ChartOCX\ChartObject\VertScaleGroup.cpp

; 1172 : 		int nTemp = pGraph->GetLeftVertScaleRegionWidth(pDC, &calData);

  000ca	51		 push	 ecx
  000cb	8b 48 08	 mov	 ecx, DWORD PTR [eax+8]
  000ce	53		 push	 ebx
  000cf	e8 00 00 00 00	 call	 ?GetLeftVertScaleRegionWidth@CGraphImp@@QBEHPAVCDC@@PAVCVertScaleMaxWidthCalculatorData@@@Z ; CGraphImp::GetLeftVertScaleRegionWidth

; 1173 : 		if( nTemp > p_nLeftWidth) p_nLeftWidth = nTemp;

  000d4	3b 07		 cmp	 eax, DWORD PTR [edi]
  000d6	7e 02		 jle	 SHORT $LN38@GetLeftVer
  000d8	89 07		 mov	 DWORD PTR [edi], eax
$LN38@GetLeftVer:

; 1168 : 	while(pos != NULL)

  000da	85 f6		 test	 esi, esi
  000dc	75 e2		 jne	 SHORT $LL2@GetLeftVer
$LN3@GetLeftVer:
  000de	8d 4d bc	 lea	 ecx, DWORD PTR _calData$[ebp+100]
  000e1	ff 15 00 00 00
	00		 call	 DWORD PTR __imp_??1?$CStringT@DV?$StrTraitMFC_DLL@DV?$ChTraitsCRT@D@ATL@@@@@ATL@@QAE@XZ
  000e7	8d 4d b8	 lea	 ecx, DWORD PTR _calData$[ebp+96]
  000ea	ff 15 00 00 00
	00		 call	 DWORD PTR __imp_??1?$CStringT@DV?$StrTraitMFC_DLL@DV?$ChTraitsCRT@D@ATL@@@@@ATL@@QAE@XZ
  000f0	8d 8d 60 ff ff
	ff		 lea	 ecx, DWORD PTR _calData$[ebp+8]
  000f6	ff 15 00 00 00
	00		 call	 DWORD PTR __imp_??1CVerticalScale@@QAE@XZ
$LN28@GetLeftVer:

; 1174 : 	}
; 1175 : }

  000fc	8b 4d f4	 mov	 ecx, DWORD PTR __$EHRec$[ebp]
  000ff	64 89 0d 00 00
	00 00		 mov	 DWORD PTR fs:0, ecx
  00106	59		 pop	 ecx
  00107	5f		 pop	 edi
  00108	5e		 pop	 esi
  00109	5b		 pop	 ebx
  0010a	8b e5		 mov	 esp, ebp
  0010c	5d		 pop	 ebp
  0010d	c2 0c 00	 ret	 12			; 0000000cH
_TEXT	ENDS
;	COMDAT text$x
text$x	SEGMENT
__unwindfunclet$?GetLeftVertScaleRegionWidth@CVertScaleGroup@@QBEXPAVCDC@@AAHH@Z$1:
  00000	8d 8d 58 ff ff
	ff		 lea	 ecx, DWORD PTR _calData$[ebp]
  00006	e9 00 00 00 00	 jmp	 ??1CVertScaleMaxWidthCalculatorData@@QAE@XZ
  0000b	cc		 int	 3
  0000c	cc		 int	 3
  0000d	cc		 int	 3
  0000e	cc		 int	 3
  0000f	cc		 int	 3
__ehhandler$?GetLeftVertScaleRegionWidth@CVertScaleGroup@@QBEXPAVCDC@@AAHH@Z:
  00010	90		 npad	 1
  00011	90		 npad	 1
  00012	8b 54 24 08	 mov	 edx, DWORD PTR [esp+8]
  00016	8d 42 0c	 lea	 eax, DWORD PTR [edx+12]
  00019	8b 8a 54 ff ff
	ff		 mov	 ecx, DWORD PTR [edx-172]
  0001f	33 c8		 xor	 ecx, eax
  00021	e8 00 00 00 00	 call	 @__security_check_cookie@4
  00026	b8 00 00 00 00	 mov	 eax, OFFSET __ehfuncinfo$?GetLeftVertScaleRegionWidth@CVertScaleGroup@@QBEXPAVCDC@@AAHH@Z
  0002b	e9 00 00 00 00	 jmp	 ___CxxFrameHandler3
text$x	ENDS
?GetLeftVertScaleRegionWidth@CVertScaleGroup@@QBEXPAVCDC@@AAHH@Z ENDP ; CVertScaleGroup::GetLeftVertScaleRegionWidth
; Function compile flags: /Ogtp
; File D:\git\src\IBK\IBK_DRFN\ProjSrc\SrcChartEx\ChartOCX\ChartObject\VertScaleGroup.cpp
; File C:\Program Files (x86)\Microsoft Visual Studio\2019\Community\VC\Tools\MSVC\14.29.30133\atlmfc\include\afxcoll.inl
; File D:\git\src\IBK\IBK_DRFN\ProjSrc\SrcChartEx\ChartOCX\ChartObject\VertScaleGroup.cpp
; File C:\Program Files (x86)\Microsoft Visual Studio\2019\Community\VC\Tools\MSVC\14.29.30133\atlmfc\include\atltypes.h
; File D:\git\src\IBK\IBK_DRFN\ProjSrc\SrcChartEx\ChartOCX\ChartObject\VertScaleGroup.cpp
; File C:\Program Files (x86)\Microsoft Visual Studio\2019\Community\VC\Tools\MSVC\14.29.30133\atlmfc\include\atltypes.h
; File D:\git\src\IBK\IBK_DRFN\ProjSrc\SrcChartEx\ChartOCX\ChartObject\VertScaleGroup.cpp
;	COMDAT ?GetSubGraphTitleRegion@CVertScaleGroup@@QBE?AVCRect@@PAVCDC@@PBVCSubGraph@@ABV2@AAH3@Z
_TEXT	SEGMENT
_pDC$GSCopy$1$ = -40					; size = 4
_pSubGraph$GSCopy$1$ = -36				; size = 4
_graphRegion$GSCopy$1$ = -32				; size = 4
_preTitleEndPosition$GSCopy$1$ = -28			; size = 4
_nPreLineCount$GSCopy$1$ = -24				; size = 4
_region$1 = -20						; size = 16
__$ArrayPad$ = -4					; size = 4
___$ReturnUdt$ = 8					; size = 4
_pDC$ = 12						; size = 4
_pSubGraph$ = 16					; size = 4
_graphRegion$ = 20					; size = 4
_preTitleEndPosition$ = 24				; size = 4
_nPreLineCount$ = 28					; size = 4
?GetSubGraphTitleRegion@CVertScaleGroup@@QBE?AVCRect@@PAVCDC@@PBVCSubGraph@@ABV2@AAH3@Z PROC ; CVertScaleGroup::GetSubGraphTitleRegion, COMDAT
; _this$ = ecx

; 1137 : {

  00000	55		 push	 ebp
  00001	8b ec		 mov	 ebp, esp
  00003	83 ec 28	 sub	 esp, 40			; 00000028H
  00006	a1 00 00 00 00	 mov	 eax, DWORD PTR ___security_cookie
  0000b	33 c5		 xor	 eax, ebp
  0000d	89 45 fc	 mov	 DWORD PTR __$ArrayPad$[ebp], eax
  00010	8b 45 10	 mov	 eax, DWORD PTR _pSubGraph$[ebp]
  00013	8b 55 0c	 mov	 edx, DWORD PTR _pDC$[ebp]
  00016	53		 push	 ebx
  00017	89 45 dc	 mov	 DWORD PTR _pSubGraph$GSCopy$1$[ebp], eax
  0001a	8b 45 14	 mov	 eax, DWORD PTR _graphRegion$[ebp]
  0001d	56		 push	 esi
  0001e	8b 75 08	 mov	 esi, DWORD PTR ___$ReturnUdt$[ebp]
  00021	89 45 e0	 mov	 DWORD PTR _graphRegion$GSCopy$1$[ebp], eax
  00024	8b 45 18	 mov	 eax, DWORD PTR _preTitleEndPosition$[ebp]
  00027	57		 push	 edi

; 1138 : 	POSITION pos = m_GraphList.GetHeadPosition();

  00028	8b 79 7c	 mov	 edi, DWORD PTR [ecx+124]
  0002b	89 45 e4	 mov	 DWORD PTR _preTitleEndPosition$GSCopy$1$[ebp], eax
  0002e	8b 45 1c	 mov	 eax, DWORD PTR _nPreLineCount$[ebp]
  00031	89 55 d8	 mov	 DWORD PTR _pDC$GSCopy$1$[ebp], edx
  00034	89 45 e8	 mov	 DWORD PTR _nPreLineCount$GSCopy$1$[ebp], eax

; 1139 : 
; 1140 : 	while(pos != NULL){

  00037	85 ff		 test	 edi, edi
  00039	74 3b		 je	 SHORT $LN3@GetSubGrap
  0003b	8b 1d 00 00 00
	00		 mov	 ebx, DWORD PTR __imp__IsRectEmpty@4
$LL2@GetSubGrap:

; 1144 : 		CRect region = pGraph->GetSubGraphList().GetSubGraphTitleRegion(pDC, pSubGraph, graphRegion, preTitleEndPosition, nPreLineCount);

  00041	ff 75 e8	 push	 DWORD PTR _nPreLineCount$GSCopy$1$[ebp]
; File C:\Program Files (x86)\Microsoft Visual Studio\2019\Community\VC\Tools\MSVC\14.29.30133\atlmfc\include\afxcoll.inl

; 435  : 	{ CNode* pNode = (CNode*) rPosition;

  00044	8d 07		 lea	 eax, DWORD PTR [edi]

; 436  : 		ASSERT(AfxIsValidAddress(pNode, sizeof(CNode)));
; 437  : 		if( pNode == NULL )
; 438  : 			AfxThrowInvalidArgException();
; 439  : 		rPosition = (POSITION) pNode->pNext;

  00046	8b 3f		 mov	 edi, DWORD PTR [edi]
; File D:\git\src\IBK\IBK_DRFN\ProjSrc\SrcChartEx\ChartOCX\ChartObject\VertScaleGroup.cpp

; 1144 : 		CRect region = pGraph->GetSubGraphList().GetSubGraphTitleRegion(pDC, pSubGraph, graphRegion, preTitleEndPosition, nPreLineCount);

  00048	ff 75 e4	 push	 DWORD PTR _preTitleEndPosition$GSCopy$1$[ebp]
  0004b	8d 4d ec	 lea	 ecx, DWORD PTR _region$1[ebp]
  0004e	ff 75 e0	 push	 DWORD PTR _graphRegion$GSCopy$1$[ebp]
  00051	ff 75 dc	 push	 DWORD PTR _pSubGraph$GSCopy$1$[ebp]
  00054	52		 push	 edx
  00055	51		 push	 ecx
  00056	8b 48 08	 mov	 ecx, DWORD PTR [eax+8]
  00059	e8 00 00 00 00	 call	 ?GetSubGraphList@CGraphImp@@QAEAAVCSubGraphList@@XZ ; CGraphImp::GetSubGraphList
  0005e	8b c8		 mov	 ecx, eax
  00060	e8 00 00 00 00	 call	 ?GetSubGraphTitleRegion@CSubGraphList@@QBE?AVCRect@@PAVCDC@@PBVCSubGraph@@ABV2@AAH3@Z ; CSubGraphList::GetSubGraphTitleRegion
; File C:\Program Files (x86)\Microsoft Visual Studio\2019\Community\VC\Tools\MSVC\14.29.30133\atlmfc\include\atltypes.h

; 638  : 	return ::IsRectEmpty(this);

  00065	8d 45 ec	 lea	 eax, DWORD PTR _region$1[ebp]
  00068	50		 push	 eax
  00069	ff d3		 call	 ebx
; File D:\git\src\IBK\IBK_DRFN\ProjSrc\SrcChartEx\ChartOCX\ChartObject\VertScaleGroup.cpp

; 1145 : 		if(!region.IsRectEmpty())

  0006b	85 c0		 test	 eax, eax
  0006d	74 37		 je	 SHORT $LN19@GetSubGrap

; 1139 : 
; 1140 : 	while(pos != NULL){

  0006f	8b 55 d8	 mov	 edx, DWORD PTR _pDC$GSCopy$1$[ebp]
  00072	85 ff		 test	 edi, edi
  00074	75 cb		 jne	 SHORT $LL2@GetSubGrap
$LN3@GetSubGrap:
; File C:\Program Files (x86)\Microsoft Visual Studio\2019\Community\VC\Tools\MSVC\14.29.30133\atlmfc\include\atltypes.h

; 540  : 	left = l;

  00076	c7 06 00 00 00
	00		 mov	 DWORD PTR [esi], 0

; 541  : 	top = t;

  0007c	c7 46 04 00 00
	00 00		 mov	 DWORD PTR [esi+4], 0

; 542  : 	right = r;

  00083	c7 46 08 00 00
	00 00		 mov	 DWORD PTR [esi+8], 0

; 543  : 	bottom = b;

  0008a	c7 46 0c 00 00
	00 00		 mov	 DWORD PTR [esi+12], 0
$LN22@GetSubGrap:
; File D:\git\src\IBK\IBK_DRFN\ProjSrc\SrcChartEx\ChartOCX\ChartObject\VertScaleGroup.cpp

; 1150 : }

  00091	8b 4d fc	 mov	 ecx, DWORD PTR __$ArrayPad$[ebp]
  00094	8b c6		 mov	 eax, esi
  00096	5f		 pop	 edi
  00097	5e		 pop	 esi
  00098	33 cd		 xor	 ecx, ebp
  0009a	5b		 pop	 ebx
  0009b	e8 00 00 00 00	 call	 @__security_check_cookie@4
  000a0	8b e5		 mov	 esp, ebp
  000a2	5d		 pop	 ebp
  000a3	c2 18 00	 ret	 24			; 00000018H
$LN19@GetSubGrap:

; 1146 : 			return region;

  000a6	0f 10 45 ec	 movups	 xmm0, XMMWORD PTR _region$1[ebp]
  000aa	0f 11 06	 movups	 XMMWORD PTR [esi], xmm0
  000ad	eb e2		 jmp	 SHORT $LN22@GetSubGrap
?GetSubGraphTitleRegion@CVertScaleGroup@@QBE?AVCRect@@PAVCDC@@PBVCSubGraph@@ABV2@AAH3@Z ENDP ; CVertScaleGroup::GetSubGraphTitleRegion
_TEXT	ENDS
; Function compile flags: /Ogtp
; File D:\git\src\IBK\IBK_DRFN\ProjSrc\SrcChartEx\ChartOCX\ChartObject\VertScaleGroup.cpp
;	COMDAT ?GetGraphColor1@CVertScaleGroup@@QBEKHH@Z
_TEXT	SEGMENT
_nGraphIndex$ = 8					; size = 4
_nSubGraphIndex$ = 12					; size = 4
?GetGraphColor1@CVertScaleGroup@@QBEKHH@Z PROC		; CVertScaleGroup::GetGraphColor1, COMDAT
; _this$ = ecx

; 1126 : {

  00000	55		 push	 ebp
  00001	8b ec		 mov	 ebp, esp

; 1552 : 	POSITION pos = m_GraphList.FindIndex(nIndex);

  00003	ff 75 08	 push	 DWORD PTR _nGraphIndex$[ebp]
  00006	83 c1 78	 add	 ecx, 120		; 00000078H
  00009	e8 00 00 00 00	 call	 ?FindIndex@CObList@@QBEPAU__POSITION@@H@Z ; CObList::FindIndex

; 1553 : 	if(pos == NULL)

  0000e	85 c0		 test	 eax, eax
  00010	74 1a		 je	 SHORT $LN15@GetGraphCo

; 1554 : 		return NULL;
; 1555 : 
; 1556 : 	return m_GraphList.GetAt(pos);

  00012	8b 48 08	 mov	 ecx, DWORD PTR [eax+8]

; 1127 : 	CGraphImp* pGraph = GetGraph(nGraphIndex);
; 1128 : 	if(pGraph == NULL)

  00015	85 c9		 test	 ecx, ecx
  00017	74 13		 je	 SHORT $LN15@GetGraphCo

; 1130 : 
; 1131 : 	return pGraph->GetSubGraphList().GetGraphColor1(nSubGraphIndex);

  00019	ff 75 0c	 push	 DWORD PTR _nSubGraphIndex$[ebp]
  0001c	e8 00 00 00 00	 call	 ?GetSubGraphList@CGraphImp@@QAEAAVCSubGraphList@@XZ ; CGraphImp::GetSubGraphList
  00021	8b c8		 mov	 ecx, eax
  00023	e8 00 00 00 00	 call	 ?GetGraphColor1@CSubGraphList@@QBEKH@Z ; CSubGraphList::GetGraphColor1

; 1132 : }

  00028	5d		 pop	 ebp
  00029	c2 08 00	 ret	 8
$LN15@GetGraphCo:

; 1129 : 		return RGB(255, 255, 255);

  0002c	b8 ff ff ff 00	 mov	 eax, 16777215		; 00ffffffH

; 1132 : }

  00031	5d		 pop	 ebp
  00032	c2 08 00	 ret	 8
?GetGraphColor1@CVertScaleGroup@@QBEKHH@Z ENDP		; CVertScaleGroup::GetGraphColor1
_TEXT	ENDS
; Function compile flags: /Ogtp
; File D:\git\src\IBK\IBK_DRFN\ProjSrc\SrcChartEx\ChartOCX\ChartObject\VertScaleGroup.cpp
; File C:\Program Files (x86)\Microsoft Visual Studio\2019\Community\VC\Tools\MSVC\14.29.30133\atlmfc\include\afxcoll.inl
; File D:\git\src\IBK\IBK_DRFN\ProjSrc\SrcChartEx\ChartOCX\ChartObject\VertScaleGroup.cpp
;	COMDAT ?GetAllHeadSubGraphColor@CVertScaleGroup@@QBE_NAAV?$CList@VCGraphColor@@AAV1@@@@Z
_TEXT	SEGMENT
_graphColorList$ = 8					; size = 4
?GetAllHeadSubGraphColor@CVertScaleGroup@@QBE_NAAV?$CList@VCGraphColor@@AAV1@@@@Z PROC ; CVertScaleGroup::GetAllHeadSubGraphColor, COMDAT
; _this$ = ecx

; 1107 : {

  00000	55		 push	 ebp
  00001	8b ec		 mov	 ebp, esp
  00003	53		 push	 ebx
  00004	56		 push	 esi

; 1108 : 	bool bResult = false;
; 1109 : 	POSITION pos = m_GraphList.GetHeadPosition();

  00005	8b 71 7c	 mov	 esi, DWORD PTR [ecx+124]
  00008	32 db		 xor	 bl, bl

; 1110 : 	while(pos != NULL)

  0000a	85 f6		 test	 esi, esi
  0000c	74 2a		 je	 SHORT $LN19@GetAllHead
  0000e	57		 push	 edi
  0000f	8b 7d 08	 mov	 edi, DWORD PTR _graphColorList$[ebp]
$LL2@GetAllHead:

; 1114 : 		CGraphColor* pGraphColor = pGraph->GetSubGraphList().GetGraphColor(0);

  00012	8b 4e 08	 mov	 ecx, DWORD PTR [esi+8]
; File C:\Program Files (x86)\Microsoft Visual Studio\2019\Community\VC\Tools\MSVC\14.29.30133\atlmfc\include\afxcoll.inl

; 439  : 		rPosition = (POSITION) pNode->pNext;

  00015	8b 36		 mov	 esi, DWORD PTR [esi]
; File D:\git\src\IBK\IBK_DRFN\ProjSrc\SrcChartEx\ChartOCX\ChartObject\VertScaleGroup.cpp

; 1114 : 		CGraphColor* pGraphColor = pGraph->GetSubGraphList().GetGraphColor(0);

  00017	6a 00		 push	 0
  00019	e8 00 00 00 00	 call	 ?GetSubGraphList@CGraphImp@@QAEAAVCSubGraphList@@XZ ; CGraphImp::GetSubGraphList
  0001e	8b c8		 mov	 ecx, eax
  00020	e8 00 00 00 00	 call	 ?GetGraphColor@CSubGraphList@@QBEPAVCGraphColor@@H@Z ; CSubGraphList::GetGraphColor

; 1115 : 		if(pGraphColor == NULL)

  00025	85 c0		 test	 eax, eax
  00027	74 0a		 je	 SHORT $LN16@GetAllHead

; 1116 : 			continue;
; 1117 : 
; 1118 : 		graphColorList.AddTail(*pGraphColor);

  00029	50		 push	 eax
  0002a	8b cf		 mov	 ecx, edi
  0002c	e8 00 00 00 00	 call	 ?AddTail@?$CList@VCGraphColor@@AAV1@@@QAEPAU__POSITION@@AAVCGraphColor@@@Z ; CList<CGraphColor,CGraphColor &>::AddTail

; 1119 : 		bResult = true;

  00031	b3 01		 mov	 bl, 1
$LN16@GetAllHead:

; 1110 : 	while(pos != NULL)

  00033	85 f6		 test	 esi, esi
  00035	75 db		 jne	 SHORT $LL2@GetAllHead

; 1120 : 	}
; 1121 : 
; 1122 : 	return bResult;

  00037	5f		 pop	 edi
$LN19@GetAllHead:
  00038	5e		 pop	 esi

; 1123 : }

  00039	8a c3		 mov	 al, bl
  0003b	5b		 pop	 ebx
  0003c	5d		 pop	 ebp
  0003d	c2 04 00	 ret	 4
?GetAllHeadSubGraphColor@CVertScaleGroup@@QBE_NAAV?$CList@VCGraphColor@@AAV1@@@@Z ENDP ; CVertScaleGroup::GetAllHeadSubGraphColor
_TEXT	ENDS
; Function compile flags: /Ogtp
; File D:\git\src\IBK\IBK_DRFN\ProjSrc\SrcChartEx\ChartOCX\ChartObject\VertScaleGroup.cpp
; File C:\Program Files (x86)\Microsoft Visual Studio\2019\Community\VC\Tools\MSVC\14.29.30133\atlmfc\include\afxcoll.inl
; File D:\git\src\IBK\IBK_DRFN\ProjSrc\SrcChartEx\ChartOCX\ChartObject\VertScaleGroup.cpp
; File C:\Program Files (x86)\Microsoft Visual Studio\2019\Community\VC\Tools\MSVC\14.29.30133\atlmfc\include\atlsimpstr.h
; File D:\git\src\IBK\IBK_DRFN\ProjSrc\SrcChartEx\ChartOCX\ChartObject\VertScaleGroup.cpp
; File C:\Program Files (x86)\Microsoft Visual Studio\2019\Community\VC\Tools\MSVC\14.29.30133\atlmfc\include\atlsimpstr.h
; File D:\git\src\IBK\IBK_DRFN\ProjSrc\SrcChartEx\ChartOCX\ChartObject\VertScaleGroup.cpp
; File C:\Program Files (x86)\Microsoft Visual Studio\2019\Community\VC\Tools\MSVC\14.29.30133\atlmfc\include\cstringt.h
; File D:\git\src\IBK\IBK_DRFN\ProjSrc\SrcChartEx\ChartOCX\ChartObject\VertScaleGroup.cpp
; File C:\Program Files (x86)\Microsoft Visual Studio\2019\Community\VC\Tools\MSVC\14.29.30133\atlmfc\include\cstringt.h
; File C:\Program Files (x86)\Microsoft Visual Studio\2019\Community\VC\Tools\MSVC\14.29.30133\atlmfc\include\atlsimpstr.h
; File C:\Program Files (x86)\Microsoft Visual Studio\2019\Community\VC\Tools\MSVC\14.29.30133\atlmfc\include\cstringt.h
; File D:\git\src\IBK\IBK_DRFN\ProjSrc\SrcChartEx\ChartOCX\ChartObject\VertScaleGroup.cpp
;	COMDAT ?GetGraphsGraphName@CVertScaleGroup@@QBE?AV?$CStringT@DV?$StrTraitMFC_DLL@DV?$ChTraitsCRT@D@ATL@@@@@ATL@@XZ
_TEXT	SEGMENT
$T2 = -28						; size = 4
$T3 = -24						; size = 4
_strGraphName$4 = -20					; size = 4
_chTemp$5 = -13						; size = 1
__$EHRec$ = -12						; size = 12
___$ReturnUdt$ = 8					; size = 4
?GetGraphsGraphName@CVertScaleGroup@@QBE?AV?$CStringT@DV?$StrTraitMFC_DLL@DV?$ChTraitsCRT@D@ATL@@@@@ATL@@XZ PROC ; CVertScaleGroup::GetGraphsGraphName, COMDAT
; _this$ = ecx

; 1091 : {

  00000	55		 push	 ebp
  00001	8b ec		 mov	 ebp, esp
  00003	6a ff		 push	 -1
  00005	68 00 00 00 00	 push	 __ehhandler$?GetGraphsGraphName@CVertScaleGroup@@QBE?AV?$CStringT@DV?$StrTraitMFC_DLL@DV?$ChTraitsCRT@D@ATL@@@@@ATL@@XZ
  0000a	64 a1 00 00 00
	00		 mov	 eax, DWORD PTR fs:0
  00010	50		 push	 eax
  00011	83 ec 10	 sub	 esp, 16			; 00000010H
  00014	53		 push	 ebx
  00015	56		 push	 esi
  00016	57		 push	 edi
  00017	a1 00 00 00 00	 mov	 eax, DWORD PTR ___security_cookie
  0001c	33 c5		 xor	 eax, ebp
  0001e	50		 push	 eax
  0001f	8d 45 f4	 lea	 eax, DWORD PTR __$EHRec$[ebp]
  00022	64 a3 00 00 00
	00		 mov	 DWORD PTR fs:0, eax
  00028	8b f1		 mov	 esi, ecx
  0002a	c7 45 e8 00 00
	00 00		 mov	 DWORD PTR $T3[ebp], 0

; 1092 : 	CString strData;

  00031	8b 5d 08	 mov	 ebx, DWORD PTR ___$ReturnUdt$[ebp]
  00034	8b cb		 mov	 ecx, ebx
  00036	ff 15 00 00 00
	00		 call	 DWORD PTR __imp_??0?$CStringT@DV?$StrTraitMFC_DLL@DV?$ChTraitsCRT@D@ATL@@@@@ATL@@QAE@XZ

; 1101 : 	return strData;

  0003c	8b 76 7c	 mov	 esi, DWORD PTR [esi+124]
  0003f	bf 01 00 00 00	 mov	 edi, 1
  00044	c7 45 fc 00 00
	00 00		 mov	 DWORD PTR __$EHRec$[ebp+8], 0
  0004b	89 7d e8	 mov	 DWORD PTR $T3[ebp], edi
  0004e	85 f6		 test	 esi, esi
  00050	0f 84 93 00 00
	00		 je	 $LN38@GetGraphsG
$LL2@GetGraphsG:
; File C:\Program Files (x86)\Microsoft Visual Studio\2019\Community\VC\Tools\MSVC\14.29.30133\atlmfc\include\afxcoll.inl

; 435  : 	{ CNode* pNode = (CNode*) rPosition;

  00056	8d 06		 lea	 eax, DWORD PTR [esi]

; 436  : 		ASSERT(AfxIsValidAddress(pNode, sizeof(CNode)));
; 437  : 		if( pNode == NULL )
; 438  : 			AfxThrowInvalidArgException();
; 439  : 		rPosition = (POSITION) pNode->pNext;

  00058	8b 36		 mov	 esi, DWORD PTR [esi]
; File D:\git\src\IBK\IBK_DRFN\ProjSrc\SrcChartEx\ChartOCX\ChartObject\VertScaleGroup.cpp

; 1097 : 		CString strGraphName = pGraph->GetGraphData().GetGraphName();

  0005a	8d 4d ec	 lea	 ecx, DWORD PTR _strGraphName$4[ebp]
  0005d	51		 push	 ecx
  0005e	8b 48 08	 mov	 ecx, DWORD PTR [eax+8]
  00061	e8 00 00 00 00	 call	 ?GetGraphData@CGraphImp@@QAEAAVCGraphData@@XZ ; CGraphImp::GetGraphData
  00066	8b c8		 mov	 ecx, eax
  00068	ff 15 00 00 00
	00		 call	 DWORD PTR __imp_?GetGraphName@CGraphData@@QBE?AV?$CStringT@DV?$StrTraitMFC_DLL@DV?$ChTraitsCRT@D@ATL@@@@@ATL@@XZ
; File C:\Program Files (x86)\Microsoft Visual Studio\2019\Community\VC\Tools\MSVC\14.29.30133\atlmfc\include\atlsimpstr.h

; 519  : 		return( GetData()->nDataLength );

  0006e	8b 45 ec	 mov	 eax, DWORD PTR _strGraphName$4[ebp]
; File D:\git\src\IBK\IBK_DRFN\ProjSrc\SrcChartEx\ChartOCX\ChartObject\VertScaleGroup.cpp

; 1097 : 		CString strGraphName = pGraph->GetGraphData().GetGraphName();

  00071	c7 45 fc 01 00
	00 00		 mov	 DWORD PTR __$EHRec$[ebp+8], 1
; File C:\Program Files (x86)\Microsoft Visual Studio\2019\Community\VC\Tools\MSVC\14.29.30133\atlmfc\include\atlsimpstr.h

; 533  : 		return( GetLength() == 0 );

  00078	83 78 f4 00	 cmp	 DWORD PTR [eax-12], 0
; File D:\git\src\IBK\IBK_DRFN\ProjSrc\SrcChartEx\ChartOCX\ChartObject\VertScaleGroup.cpp

; 1098 : 		if(!strGraphName.IsEmpty())

  0007c	74 56		 je	 SHORT $LN4@GetGraphsG
; File C:\Program Files (x86)\Microsoft Visual Studio\2019\Community\VC\Tools\MSVC\14.29.30133\atlmfc\include\cstringt.h

; 2429 : 		CStringT strResult( str1.GetManager() );

  0007e	8d 4d ec	 lea	 ecx, DWORD PTR _strGraphName$4[ebp]
; File D:\git\src\IBK\IBK_DRFN\ProjSrc\SrcChartEx\ChartOCX\ChartObject\VertScaleGroup.cpp

; 1099 : 			strData += (strGraphName + ';');

  00081	c6 45 fc 02	 mov	 BYTE PTR __$EHRec$[ebp+8], 2
; File C:\Program Files (x86)\Microsoft Visual Studio\2019\Community\VC\Tools\MSVC\14.29.30133\atlmfc\include\cstringt.h

; 2429 : 		CStringT strResult( str1.GetManager() );

  00085	ff 15 00 00 00
	00		 call	 DWORD PTR __imp_?GetManager@?$CStringT@DV?$StrTraitMFC_DLL@DV?$ChTraitsCRT@D@ATL@@@@@ATL@@QBEPAUIAtlStringMgr@2@XZ
  0008b	50		 push	 eax
  0008c	8d 4d e4	 lea	 ecx, DWORD PTR $T2[ebp]
  0008f	ff 15 00 00 00
	00		 call	 DWORD PTR __imp_??0?$CStringT@DV?$StrTraitMFC_DLL@DV?$ChTraitsCRT@D@ATL@@@@@ATL@@QAE@PAUIAtlStringMgr@1@@Z
; File C:\Program Files (x86)\Microsoft Visual Studio\2019\Community\VC\Tools\MSVC\14.29.30133\atlmfc\include\atlsimpstr.h

; 519  : 		return( GetData()->nDataLength );

  00095	8b 45 ec	 mov	 eax, DWORD PTR _strGraphName$4[ebp]
; File C:\Program Files (x86)\Microsoft Visual Studio\2019\Community\VC\Tools\MSVC\14.29.30133\atlmfc\include\cstringt.h

; 2432 : 		CThisSimpleString::Concatenate( strResult, str1, str1.GetLength(), &chTemp, 1 );

  00098	8d 4d f3	 lea	 ecx, DWORD PTR _chTemp$5[ebp]
  0009b	6a 01		 push	 1
  0009d	51		 push	 ecx
  0009e	c6 45 f3 3b	 mov	 BYTE PTR _chTemp$5[ebp], 59 ; 0000003bH

; 2433 : 
; 2434 : 		return( strResult );

  000a2	83 cf 02	 or	 edi, 2
  000a5	ff 70 f4	 push	 DWORD PTR [eax-12]
  000a8	89 7d e8	 mov	 DWORD PTR $T3[ebp], edi
  000ab	50		 push	 eax
  000ac	8d 45 e4	 lea	 eax, DWORD PTR $T2[ebp]
  000af	50		 push	 eax
  000b0	ff 15 00 00 00
	00		 call	 DWORD PTR __imp_?Concatenate@?$CSimpleStringT@D$00@ATL@@KAXAAV12@PBDH1H@Z
  000b6	83 c4 14	 add	 esp, 20			; 00000014H
; File D:\git\src\IBK\IBK_DRFN\ProjSrc\SrcChartEx\ChartOCX\ChartObject\VertScaleGroup.cpp

; 1099 : 			strData += (strGraphName + ';');

  000b9	8d 45 e4	 lea	 eax, DWORD PTR $T2[ebp]
  000bc	8b cb		 mov	 ecx, ebx
  000be	50		 push	 eax
  000bf	ff 15 00 00 00
	00		 call	 DWORD PTR __imp_??Y?$CStringT@DV?$StrTraitMFC_DLL@DV?$ChTraitsCRT@D@ATL@@@@@ATL@@QAEAAV01@ABV?$CSimpleStringT@D$00@1@@Z
  000c5	83 e7 fd	 and	 edi, -3			; fffffffdH
  000c8	8d 4d e4	 lea	 ecx, DWORD PTR $T2[ebp]
  000cb	89 7d e8	 mov	 DWORD PTR $T3[ebp], edi
  000ce	ff 15 00 00 00
	00		 call	 DWORD PTR __imp_??1?$CStringT@DV?$StrTraitMFC_DLL@DV?$ChTraitsCRT@D@ATL@@@@@ATL@@QAE@XZ
$LN4@GetGraphsG:

; 1100 : 	}

  000d4	8d 4d ec	 lea	 ecx, DWORD PTR _strGraphName$4[ebp]
  000d7	c6 45 fc 00	 mov	 BYTE PTR __$EHRec$[ebp+8], 0
  000db	ff 15 00 00 00
	00		 call	 DWORD PTR __imp_??1?$CStringT@DV?$StrTraitMFC_DLL@DV?$ChTraitsCRT@D@ATL@@@@@ATL@@QAE@XZ
  000e1	85 f6		 test	 esi, esi
  000e3	0f 85 6d ff ff
	ff		 jne	 $LL2@GetGraphsG
$LN38@GetGraphsG:

; 1102 : }

  000e9	8b c3		 mov	 eax, ebx
  000eb	8b 4d f4	 mov	 ecx, DWORD PTR __$EHRec$[ebp]
  000ee	64 89 0d 00 00
	00 00		 mov	 DWORD PTR fs:0, ecx
  000f5	59		 pop	 ecx
  000f6	5f		 pop	 edi
  000f7	5e		 pop	 esi
  000f8	5b		 pop	 ebx
  000f9	8b e5		 mov	 esp, ebp
  000fb	5d		 pop	 ebp
  000fc	c2 04 00	 ret	 4
_TEXT	ENDS
;	COMDAT text$x
text$x	SEGMENT
__unwindfunclet$?GetGraphsGraphName@CVertScaleGroup@@QBE?AV?$CStringT@DV?$StrTraitMFC_DLL@DV?$ChTraitsCRT@D@ATL@@@@@ATL@@XZ$0:
  00000	8b 45 e8	 mov	 eax, DWORD PTR $T3[ebp]
  00003	83 e0 01	 and	 eax, 1
  00006	0f 84 0d 00 00
	00		 je	 $LN7@GetGraphsG
  0000c	83 65 e8 fe	 and	 DWORD PTR $T3[ebp], -2	; fffffffeH
  00010	8b 4d 08	 mov	 ecx, DWORD PTR ___$ReturnUdt$[ebp]
  00013	ff 25 00 00 00
	00		 jmp	 DWORD PTR __imp_??1?$CStringT@DV?$StrTraitMFC_DLL@DV?$ChTraitsCRT@D@ATL@@@@@ATL@@QAE@XZ
$LN7@GetGraphsG:
  00019	c3		 ret	 0
__unwindfunclet$?GetGraphsGraphName@CVertScaleGroup@@QBE?AV?$CStringT@DV?$StrTraitMFC_DLL@DV?$ChTraitsCRT@D@ATL@@@@@ATL@@XZ$1:
  0001a	8d 4d ec	 lea	 ecx, DWORD PTR _strGraphName$4[ebp]
  0001d	ff 25 00 00 00
	00		 jmp	 DWORD PTR __imp_??1?$CStringT@DV?$StrTraitMFC_DLL@DV?$ChTraitsCRT@D@ATL@@@@@ATL@@QAE@XZ
__unwindfunclet$?GetGraphsGraphName@CVertScaleGroup@@QBE?AV?$CStringT@DV?$StrTraitMFC_DLL@DV?$ChTraitsCRT@D@ATL@@@@@ATL@@XZ$3:
  00023	8b 45 e8	 mov	 eax, DWORD PTR $T3[ebp]
  00026	83 e0 02	 and	 eax, 2
  00029	0f 84 0d 00 00
	00		 je	 $LN26@GetGraphsG
  0002f	83 65 e8 fd	 and	 DWORD PTR $T3[ebp], -3	; fffffffdH
  00033	8d 4d e4	 lea	 ecx, DWORD PTR $T2[ebp]
  00036	ff 25 00 00 00
	00		 jmp	 DWORD PTR __imp_??1?$CStringT@DV?$StrTraitMFC_DLL@DV?$ChTraitsCRT@D@ATL@@@@@ATL@@QAE@XZ
$LN26@GetGraphsG:
  0003c	c3		 ret	 0
  0003d	cc		 int	 3
  0003e	cc		 int	 3
  0003f	cc		 int	 3
  00040	cc		 int	 3
  00041	cc		 int	 3
__ehhandler$?GetGraphsGraphName@CVertScaleGroup@@QBE?AV?$CStringT@DV?$StrTraitMFC_DLL@DV?$ChTraitsCRT@D@ATL@@@@@ATL@@XZ:
  00042	90		 npad	 1
  00043	90		 npad	 1
  00044	8b 54 24 08	 mov	 edx, DWORD PTR [esp+8]
  00048	8d 42 0c	 lea	 eax, DWORD PTR [edx+12]
  0004b	8b 4a e0	 mov	 ecx, DWORD PTR [edx-32]
  0004e	33 c8		 xor	 ecx, eax
  00050	e8 00 00 00 00	 call	 @__security_check_cookie@4
  00055	b8 00 00 00 00	 mov	 eax, OFFSET __ehfuncinfo$?GetGraphsGraphName@CVertScaleGroup@@QBE?AV?$CStringT@DV?$StrTraitMFC_DLL@DV?$ChTraitsCRT@D@ATL@@@@@ATL@@XZ
  0005a	e9 00 00 00 00	 jmp	 ___CxxFrameHandler3
text$x	ENDS
?GetGraphsGraphName@CVertScaleGroup@@QBE?AV?$CStringT@DV?$StrTraitMFC_DLL@DV?$ChTraitsCRT@D@ATL@@@@@ATL@@XZ ENDP ; CVertScaleGroup::GetGraphsGraphName
; Function compile flags: /Ogtp
; File D:\git\src\IBK\IBK_DRFN\ProjSrc\SrcChartEx\ChartOCX\ChartObject\VertScaleGroup.cpp
;	COMDAT ?GetGraphCount@CVertScaleGroup@@QBEHXZ
_TEXT	SEGMENT
?GetGraphCount@CVertScaleGroup@@QBEHXZ PROC		; CVertScaleGroup::GetGraphCount, COMDAT
; _this$ = ecx

; 1086 : 	return m_GraphList.GetCount();

  00000	8b 81 84 00 00
	00		 mov	 eax, DWORD PTR [ecx+132]

; 1087 : }

  00006	c3		 ret	 0
?GetGraphCount@CVertScaleGroup@@QBEHXZ ENDP		; CVertScaleGroup::GetGraphCount
_TEXT	ENDS
; Function compile flags: /Ogtp
; File D:\git\src\IBK\IBK_DRFN\ProjSrc\SrcChartEx\ChartOCX\ChartObject\VertScaleGroup.cpp
; File C:\Program Files (x86)\Microsoft Visual Studio\2019\Community\VC\Tools\MSVC\14.29.30133\atlmfc\include\afxcoll.inl
; File D:\git\src\IBK\IBK_DRFN\ProjSrc\SrcChartEx\ChartOCX\ChartObject\VertScaleGroup.cpp
; File C:\Program Files (x86)\Microsoft Visual Studio\2019\Community\VC\Tools\MSVC\14.29.30133\atlmfc\include\atlsimpstr.h
; File D:\git\src\IBK\IBK_DRFN\ProjSrc\SrcChartEx\ChartOCX\ChartObject\VertScaleGroup.cpp
; File C:\Program Files (x86)\Microsoft Visual Studio\2019\Community\VC\Tools\MSVC\14.29.30133\atlmfc\include\atlsimpstr.h
; File D:\git\src\IBK\IBK_DRFN\ProjSrc\SrcChartEx\ChartOCX\ChartObject\VertScaleGroup.cpp
;	COMDAT ?GetAllGraphName@CVertScaleGroup@@QBE_NAAV?$CList@V?$CStringT@DV?$StrTraitMFC_DLL@DV?$ChTraitsCRT@D@ATL@@@@@ATL@@V12@@@@Z
_TEXT	SEGMENT
__$EHRec$ = -12						; size = 12
_strGraphName$2 = 8					; size = 4
_strGraphNameList$ = 8					; size = 4
?GetAllGraphName@CVertScaleGroup@@QBE_NAAV?$CList@V?$CStringT@DV?$StrTraitMFC_DLL@DV?$ChTraitsCRT@D@ATL@@@@@ATL@@V12@@@@Z PROC ; CVertScaleGroup::GetAllGraphName, COMDAT
; _this$ = ecx

; 1066 : {

  00000	55		 push	 ebp
  00001	8b ec		 mov	 ebp, esp
  00003	6a ff		 push	 -1
  00005	68 00 00 00 00	 push	 __ehhandler$?GetAllGraphName@CVertScaleGroup@@QBE_NAAV?$CList@V?$CStringT@DV?$StrTraitMFC_DLL@DV?$ChTraitsCRT@D@ATL@@@@@ATL@@V12@@@@Z
  0000a	64 a1 00 00 00
	00		 mov	 eax, DWORD PTR fs:0
  00010	50		 push	 eax
  00011	51		 push	 ecx
  00012	53		 push	 ebx
  00013	56		 push	 esi
  00014	57		 push	 edi
  00015	a1 00 00 00 00	 mov	 eax, DWORD PTR ___security_cookie
  0001a	33 c5		 xor	 eax, ebp
  0001c	50		 push	 eax
  0001d	8d 45 f4	 lea	 eax, DWORD PTR __$EHRec$[ebp]
  00020	64 a3 00 00 00
	00		 mov	 DWORD PTR fs:0, eax

; 1067 : 	bool bResult = false;
; 1068 : 	POSITION pos = m_GraphList.GetHeadPosition();

  00026	8b 71 7c	 mov	 esi, DWORD PTR [ecx+124]
  00029	32 db		 xor	 bl, bl

; 1069 : 	while(pos != NULL){

  0002b	85 f6		 test	 esi, esi
  0002d	74 55		 je	 SHORT $LN27@GetAllGrap
  0002f	8b 7d 08	 mov	 edi, DWORD PTR _strGraphNameList$[ebp]
$LL2@GetAllGrap:
; File C:\Program Files (x86)\Microsoft Visual Studio\2019\Community\VC\Tools\MSVC\14.29.30133\atlmfc\include\afxcoll.inl

; 435  : 	{ CNode* pNode = (CNode*) rPosition;

  00032	8d 06		 lea	 eax, DWORD PTR [esi]

; 436  : 		ASSERT(AfxIsValidAddress(pNode, sizeof(CNode)));
; 437  : 		if( pNode == NULL )
; 438  : 			AfxThrowInvalidArgException();
; 439  : 		rPosition = (POSITION) pNode->pNext;

  00034	8b 36		 mov	 esi, DWORD PTR [esi]
; File D:\git\src\IBK\IBK_DRFN\ProjSrc\SrcChartEx\ChartOCX\ChartObject\VertScaleGroup.cpp

; 1072 : 		CString strGraphName = pGraph->GetGraphData().GetGraphName();

  00036	8d 4d 08	 lea	 ecx, DWORD PTR _strGraphName$2[ebp]
  00039	51		 push	 ecx
  0003a	8b 48 08	 mov	 ecx, DWORD PTR [eax+8]
  0003d	e8 00 00 00 00	 call	 ?GetGraphData@CGraphImp@@QAEAAVCGraphData@@XZ ; CGraphImp::GetGraphData
  00042	8b c8		 mov	 ecx, eax
  00044	ff 15 00 00 00
	00		 call	 DWORD PTR __imp_?GetGraphName@CGraphData@@QBE?AV?$CStringT@DV?$StrTraitMFC_DLL@DV?$ChTraitsCRT@D@ATL@@@@@ATL@@XZ
; File C:\Program Files (x86)\Microsoft Visual Studio\2019\Community\VC\Tools\MSVC\14.29.30133\atlmfc\include\atlsimpstr.h

; 519  : 		return( GetData()->nDataLength );

  0004a	8b 45 08	 mov	 eax, DWORD PTR _strGraphName$2[ebp]
; File D:\git\src\IBK\IBK_DRFN\ProjSrc\SrcChartEx\ChartOCX\ChartObject\VertScaleGroup.cpp

; 1072 : 		CString strGraphName = pGraph->GetGraphData().GetGraphName();

  0004d	c7 45 fc 00 00
	00 00		 mov	 DWORD PTR __$EHRec$[ebp+8], 0
; File C:\Program Files (x86)\Microsoft Visual Studio\2019\Community\VC\Tools\MSVC\14.29.30133\atlmfc\include\atlsimpstr.h

; 533  : 		return( GetLength() == 0 );

  00054	83 78 f4 00	 cmp	 DWORD PTR [eax-12], 0
; File D:\git\src\IBK\IBK_DRFN\ProjSrc\SrcChartEx\ChartOCX\ChartObject\VertScaleGroup.cpp

; 1073 : 		if( strGraphName.IsEmpty())

  00058	74 16		 je	 SHORT $LN29@GetAllGrap

; 1074 : 			continue;
; 1075 : 
; 1076 : 		strGraphNameList.AddTail( strGraphName);

  0005a	51		 push	 ecx
  0005b	8d 45 08	 lea	 eax, DWORD PTR _strGraphName$2[ebp]
  0005e	8b cc		 mov	 ecx, esp
  00060	50		 push	 eax
  00061	ff 15 00 00 00
	00		 call	 DWORD PTR __imp_??0?$CStringT@DV?$StrTraitMFC_DLL@DV?$ChTraitsCRT@D@ATL@@@@@ATL@@QAE@ABV01@@Z
  00067	8b cf		 mov	 ecx, edi
  00069	e8 00 00 00 00	 call	 ?AddTail@?$CList@V?$CStringT@DV?$StrTraitMFC_DLL@DV?$ChTraitsCRT@D@ATL@@@@@ATL@@V12@@@QAEPAU__POSITION@@V?$CStringT@DV?$StrTraitMFC_DLL@DV?$ChTraitsCRT@D@ATL@@@@@ATL@@@Z ; CList<ATL::CStringT<char,StrTraitMFC_DLL<char,ATL::ChTraitsCRT<char> > >,ATL::CStringT<char,StrTraitMFC_DLL<char,ATL::ChTraitsCRT<char> > > >::AddTail

; 1077 : 		bResult = true;

  0006e	b3 01		 mov	 bl, 1
$LN29@GetAllGrap:

; 1069 : 	while(pos != NULL){

  00070	8d 4d 08	 lea	 ecx, DWORD PTR _strGraphName$2[ebp]
  00073	c7 45 fc ff ff
	ff ff		 mov	 DWORD PTR __$EHRec$[ebp+8], -1
  0007a	ff 15 00 00 00
	00		 call	 DWORD PTR __imp_??1?$CStringT@DV?$StrTraitMFC_DLL@DV?$ChTraitsCRT@D@ATL@@@@@ATL@@QAE@XZ
  00080	85 f6		 test	 esi, esi
  00082	75 ae		 jne	 SHORT $LL2@GetAllGrap
$LN27@GetAllGrap:

; 1078 : 	}
; 1079 : 	return bResult;
; 1080 : }

  00084	8a c3		 mov	 al, bl
  00086	8b 4d f4	 mov	 ecx, DWORD PTR __$EHRec$[ebp]
  00089	64 89 0d 00 00
	00 00		 mov	 DWORD PTR fs:0, ecx
  00090	59		 pop	 ecx
  00091	5f		 pop	 edi
  00092	5e		 pop	 esi
  00093	5b		 pop	 ebx
  00094	8b e5		 mov	 esp, ebp
  00096	5d		 pop	 ebp
  00097	c2 04 00	 ret	 4
_TEXT	ENDS
;	COMDAT text$x
text$x	SEGMENT
__unwindfunclet$?GetAllGraphName@CVertScaleGroup@@QBE_NAAV?$CList@V?$CStringT@DV?$StrTraitMFC_DLL@DV?$ChTraitsCRT@D@ATL@@@@@ATL@@V12@@@@Z$0:
  00000	8d 4d 08	 lea	 ecx, DWORD PTR _strGraphName$2[ebp]
  00003	ff 25 00 00 00
	00		 jmp	 DWORD PTR __imp_??1?$CStringT@DV?$StrTraitMFC_DLL@DV?$ChTraitsCRT@D@ATL@@@@@ATL@@QAE@XZ
  00009	cc		 int	 3
  0000a	cc		 int	 3
  0000b	cc		 int	 3
  0000c	cc		 int	 3
  0000d	cc		 int	 3
__ehhandler$?GetAllGraphName@CVertScaleGroup@@QBE_NAAV?$CList@V?$CStringT@DV?$StrTraitMFC_DLL@DV?$ChTraitsCRT@D@ATL@@@@@ATL@@V12@@@@Z:
  0000e	90		 npad	 1
  0000f	90		 npad	 1
  00010	8b 54 24 08	 mov	 edx, DWORD PTR [esp+8]
  00014	8d 42 0c	 lea	 eax, DWORD PTR [edx+12]
  00017	8b 4a ec	 mov	 ecx, DWORD PTR [edx-20]
  0001a	33 c8		 xor	 ecx, eax
  0001c	e8 00 00 00 00	 call	 @__security_check_cookie@4
  00021	b8 00 00 00 00	 mov	 eax, OFFSET __ehfuncinfo$?GetAllGraphName@CVertScaleGroup@@QBE_NAAV?$CList@V?$CStringT@DV?$StrTraitMFC_DLL@DV?$ChTraitsCRT@D@ATL@@@@@ATL@@V12@@@@Z
  00026	e9 00 00 00 00	 jmp	 ___CxxFrameHandler3
text$x	ENDS
?GetAllGraphName@CVertScaleGroup@@QBE_NAAV?$CList@V?$CStringT@DV?$StrTraitMFC_DLL@DV?$ChTraitsCRT@D@ATL@@@@@ATL@@V12@@@@Z ENDP ; CVertScaleGroup::GetAllGraphName
; Function compile flags: /Ogtp
; File D:\git\src\IBK\IBK_DRFN\ProjSrc\SrcChartEx\ChartOCX\ChartObject\VertScaleGroup.cpp
; File C:\Program Files (x86)\Microsoft Visual Studio\2019\Community\VC\Tools\MSVC\14.29.30133\atlmfc\include\afxcoll.inl
; File D:\git\src\IBK\IBK_DRFN\ProjSrc\SrcChartEx\ChartOCX\ChartObject\VertScaleGroup.cpp
; File C:\Program Files (x86)\Microsoft Visual Studio\2019\Community\VC\Tools\MSVC\14.29.30133\atlmfc\include\atlsimpstr.h
; File D:\git\src\IBK\IBK_DRFN\ProjSrc\SrcChartEx\ChartOCX\ChartObject\VertScaleGroup.cpp
; File C:\Program Files (x86)\Microsoft Visual Studio\2019\Community\VC\Tools\MSVC\14.29.30133\atlmfc\include\atlsimpstr.h
; File D:\git\src\IBK\IBK_DRFN\ProjSrc\SrcChartEx\ChartOCX\ChartObject\VertScaleGroup.cpp
;	COMDAT ?GetAllIndicatorName@CVertScaleGroup@@QBE_NAAV?$CList@V?$CStringT@DV?$StrTraitMFC_DLL@DV?$ChTraitsCRT@D@ATL@@@@@ATL@@V12@@@@Z
_TEXT	SEGMENT
__$EHRec$ = -12						; size = 12
_strIndicatorName$2 = 8					; size = 4
_strIndicatorNameList$ = 8				; size = 4
?GetAllIndicatorName@CVertScaleGroup@@QBE_NAAV?$CList@V?$CStringT@DV?$StrTraitMFC_DLL@DV?$ChTraitsCRT@D@ATL@@@@@ATL@@V12@@@@Z PROC ; CVertScaleGroup::GetAllIndicatorName, COMDAT
; _this$ = ecx

; 1049 : {

  00000	55		 push	 ebp
  00001	8b ec		 mov	 ebp, esp
  00003	6a ff		 push	 -1
  00005	68 00 00 00 00	 push	 __ehhandler$?GetAllIndicatorName@CVertScaleGroup@@QBE_NAAV?$CList@V?$CStringT@DV?$StrTraitMFC_DLL@DV?$ChTraitsCRT@D@ATL@@@@@ATL@@V12@@@@Z
  0000a	64 a1 00 00 00
	00		 mov	 eax, DWORD PTR fs:0
  00010	50		 push	 eax
  00011	51		 push	 ecx
  00012	53		 push	 ebx
  00013	56		 push	 esi
  00014	57		 push	 edi
  00015	a1 00 00 00 00	 mov	 eax, DWORD PTR ___security_cookie
  0001a	33 c5		 xor	 eax, ebp
  0001c	50		 push	 eax
  0001d	8d 45 f4	 lea	 eax, DWORD PTR __$EHRec$[ebp]
  00020	64 a3 00 00 00
	00		 mov	 DWORD PTR fs:0, eax

; 1050 : 	bool bResult = false;
; 1051 : 	POSITION pos = m_GraphList.GetHeadPosition();

  00026	8b 71 7c	 mov	 esi, DWORD PTR [ecx+124]
  00029	32 db		 xor	 bl, bl

; 1052 : 	while(pos != NULL){

  0002b	85 f6		 test	 esi, esi
  0002d	74 55		 je	 SHORT $LN27@GetAllIndi
  0002f	8b 7d 08	 mov	 edi, DWORD PTR _strIndicatorNameList$[ebp]
$LL2@GetAllIndi:
; File C:\Program Files (x86)\Microsoft Visual Studio\2019\Community\VC\Tools\MSVC\14.29.30133\atlmfc\include\afxcoll.inl

; 435  : 	{ CNode* pNode = (CNode*) rPosition;

  00032	8d 06		 lea	 eax, DWORD PTR [esi]

; 436  : 		ASSERT(AfxIsValidAddress(pNode, sizeof(CNode)));
; 437  : 		if( pNode == NULL )
; 438  : 			AfxThrowInvalidArgException();
; 439  : 		rPosition = (POSITION) pNode->pNext;

  00034	8b 36		 mov	 esi, DWORD PTR [esi]
; File D:\git\src\IBK\IBK_DRFN\ProjSrc\SrcChartEx\ChartOCX\ChartObject\VertScaleGroup.cpp

; 1055 : 		CString strIndicatorName = pGraph->GetGraphData().GetIndicatorName();

  00036	8d 4d 08	 lea	 ecx, DWORD PTR _strIndicatorName$2[ebp]
  00039	51		 push	 ecx
  0003a	8b 48 08	 mov	 ecx, DWORD PTR [eax+8]
  0003d	e8 00 00 00 00	 call	 ?GetGraphData@CGraphImp@@QAEAAVCGraphData@@XZ ; CGraphImp::GetGraphData
  00042	8b c8		 mov	 ecx, eax
  00044	ff 15 00 00 00
	00		 call	 DWORD PTR __imp_?GetIndicatorName@CGraphData@@QBE?AV?$CStringT@DV?$StrTraitMFC_DLL@DV?$ChTraitsCRT@D@ATL@@@@@ATL@@XZ
; File C:\Program Files (x86)\Microsoft Visual Studio\2019\Community\VC\Tools\MSVC\14.29.30133\atlmfc\include\atlsimpstr.h

; 519  : 		return( GetData()->nDataLength );

  0004a	8b 45 08	 mov	 eax, DWORD PTR _strIndicatorName$2[ebp]
; File D:\git\src\IBK\IBK_DRFN\ProjSrc\SrcChartEx\ChartOCX\ChartObject\VertScaleGroup.cpp

; 1055 : 		CString strIndicatorName = pGraph->GetGraphData().GetIndicatorName();

  0004d	c7 45 fc 00 00
	00 00		 mov	 DWORD PTR __$EHRec$[ebp+8], 0
; File C:\Program Files (x86)\Microsoft Visual Studio\2019\Community\VC\Tools\MSVC\14.29.30133\atlmfc\include\atlsimpstr.h

; 533  : 		return( GetLength() == 0 );

  00054	83 78 f4 00	 cmp	 DWORD PTR [eax-12], 0
; File D:\git\src\IBK\IBK_DRFN\ProjSrc\SrcChartEx\ChartOCX\ChartObject\VertScaleGroup.cpp

; 1056 : 		if( strIndicatorName.IsEmpty())

  00058	74 16		 je	 SHORT $LN29@GetAllIndi

; 1057 : 			continue;
; 1058 : 
; 1059 : 		strIndicatorNameList.AddTail( strIndicatorName);

  0005a	51		 push	 ecx
  0005b	8d 45 08	 lea	 eax, DWORD PTR _strIndicatorName$2[ebp]
  0005e	8b cc		 mov	 ecx, esp
  00060	50		 push	 eax
  00061	ff 15 00 00 00
	00		 call	 DWORD PTR __imp_??0?$CStringT@DV?$StrTraitMFC_DLL@DV?$ChTraitsCRT@D@ATL@@@@@ATL@@QAE@ABV01@@Z
  00067	8b cf		 mov	 ecx, edi
  00069	e8 00 00 00 00	 call	 ?AddTail@?$CList@V?$CStringT@DV?$StrTraitMFC_DLL@DV?$ChTraitsCRT@D@ATL@@@@@ATL@@V12@@@QAEPAU__POSITION@@V?$CStringT@DV?$StrTraitMFC_DLL@DV?$ChTraitsCRT@D@ATL@@@@@ATL@@@Z ; CList<ATL::CStringT<char,StrTraitMFC_DLL<char,ATL::ChTraitsCRT<char> > >,ATL::CStringT<char,StrTraitMFC_DLL<char,ATL::ChTraitsCRT<char> > > >::AddTail

; 1060 : 		bResult = true;

  0006e	b3 01		 mov	 bl, 1
$LN29@GetAllIndi:

; 1052 : 	while(pos != NULL){

  00070	8d 4d 08	 lea	 ecx, DWORD PTR _strIndicatorName$2[ebp]
  00073	c7 45 fc ff ff
	ff ff		 mov	 DWORD PTR __$EHRec$[ebp+8], -1
  0007a	ff 15 00 00 00
	00		 call	 DWORD PTR __imp_??1?$CStringT@DV?$StrTraitMFC_DLL@DV?$ChTraitsCRT@D@ATL@@@@@ATL@@QAE@XZ
  00080	85 f6		 test	 esi, esi
  00082	75 ae		 jne	 SHORT $LL2@GetAllIndi
$LN27@GetAllIndi:

; 1061 : 	}
; 1062 : 	return bResult;
; 1063 : }

  00084	8a c3		 mov	 al, bl
  00086	8b 4d f4	 mov	 ecx, DWORD PTR __$EHRec$[ebp]
  00089	64 89 0d 00 00
	00 00		 mov	 DWORD PTR fs:0, ecx
  00090	59		 pop	 ecx
  00091	5f		 pop	 edi
  00092	5e		 pop	 esi
  00093	5b		 pop	 ebx
  00094	8b e5		 mov	 esp, ebp
  00096	5d		 pop	 ebp
  00097	c2 04 00	 ret	 4
_TEXT	ENDS
;	COMDAT text$x
text$x	SEGMENT
__unwindfunclet$?GetAllIndicatorName@CVertScaleGroup@@QBE_NAAV?$CList@V?$CStringT@DV?$StrTraitMFC_DLL@DV?$ChTraitsCRT@D@ATL@@@@@ATL@@V12@@@@Z$0:
  00000	8d 4d 08	 lea	 ecx, DWORD PTR _strIndicatorName$2[ebp]
  00003	ff 25 00 00 00
	00		 jmp	 DWORD PTR __imp_??1?$CStringT@DV?$StrTraitMFC_DLL@DV?$ChTraitsCRT@D@ATL@@@@@ATL@@QAE@XZ
  00009	cc		 int	 3
  0000a	cc		 int	 3
  0000b	cc		 int	 3
  0000c	cc		 int	 3
  0000d	cc		 int	 3
__ehhandler$?GetAllIndicatorName@CVertScaleGroup@@QBE_NAAV?$CList@V?$CStringT@DV?$StrTraitMFC_DLL@DV?$ChTraitsCRT@D@ATL@@@@@ATL@@V12@@@@Z:
  0000e	90		 npad	 1
  0000f	90		 npad	 1
  00010	8b 54 24 08	 mov	 edx, DWORD PTR [esp+8]
  00014	8d 42 0c	 lea	 eax, DWORD PTR [edx+12]
  00017	8b 4a ec	 mov	 ecx, DWORD PTR [edx-20]
  0001a	33 c8		 xor	 ecx, eax
  0001c	e8 00 00 00 00	 call	 @__security_check_cookie@4
  00021	b8 00 00 00 00	 mov	 eax, OFFSET __ehfuncinfo$?GetAllIndicatorName@CVertScaleGroup@@QBE_NAAV?$CList@V?$CStringT@DV?$StrTraitMFC_DLL@DV?$ChTraitsCRT@D@ATL@@@@@ATL@@V12@@@@Z
  00026	e9 00 00 00 00	 jmp	 ___CxxFrameHandler3
text$x	ENDS
?GetAllIndicatorName@CVertScaleGroup@@QBE_NAAV?$CList@V?$CStringT@DV?$StrTraitMFC_DLL@DV?$ChTraitsCRT@D@ATL@@@@@ATL@@V12@@@@Z ENDP ; CVertScaleGroup::GetAllIndicatorName
; Function compile flags: /Ogtp
; File D:\git\src\IBK\IBK_DRFN\ProjSrc\SrcChartEx\ChartOCX\ChartObject\VertScaleGroup.cpp
; File C:\Program Files (x86)\Microsoft Visual Studio\2019\Community\VC\Tools\MSVC\14.29.30133\atlmfc\include\afxcoll.inl
; File D:\git\src\IBK\IBK_DRFN\ProjSrc\SrcChartEx\ChartOCX\ChartObject\VertScaleGroup.cpp
; File C:\Program Files (x86)\Microsoft Visual Studio\2019\Community\VC\Tools\MSVC\14.29.30133\atlmfc\include\afxcoll.inl
; File D:\git\src\IBK\IBK_DRFN\ProjSrc\SrcChartEx\ChartOCX\ChartObject\VertScaleGroup.cpp
; File C:\Program Files (x86)\Microsoft Visual Studio\2019\Community\VC\Tools\MSVC\14.29.30133\atlmfc\include\afxcoll.inl
; File D:\git\src\IBK\IBK_DRFN\ProjSrc\SrcChartEx\ChartOCX\ChartObject\VertScaleGroup.cpp
; File C:\Program Files (x86)\Microsoft Visual Studio\2019\Community\VC\Tools\MSVC\14.29.30133\atlmfc\include\afxcoll.inl
; File D:\git\src\IBK\IBK_DRFN\ProjSrc\SrcChartEx\ChartOCX\ChartObject\VertScaleGroup.cpp
;	COMDAT ?GetVertScaleGroupAllData@CVertScaleGroup@@QBEXAAVCStringList@@@Z
_TEXT	SEGMENT
_slVertScaleGroupData$ = -40				; size = 28
__$EHRec$ = -12						; size = 12
$T2 = 8							; size = 4
_p_slVertScaleGroupData$ = 8				; size = 4
?GetVertScaleGroupAllData@CVertScaleGroup@@QBEXAAVCStringList@@@Z PROC ; CVertScaleGroup::GetVertScaleGroupAllData, COMDAT
; _this$ = ecx

; 1006 : {

  00000	55		 push	 ebp
  00001	8b ec		 mov	 ebp, esp
  00003	6a ff		 push	 -1
  00005	68 00 00 00 00	 push	 __ehhandler$?GetVertScaleGroupAllData@CVertScaleGroup@@QBEXAAVCStringList@@@Z
  0000a	64 a1 00 00 00
	00		 mov	 eax, DWORD PTR fs:0
  00010	50		 push	 eax
  00011	83 ec 1c	 sub	 esp, 28			; 0000001cH
  00014	56		 push	 esi
  00015	57		 push	 edi
  00016	a1 00 00 00 00	 mov	 eax, DWORD PTR ___security_cookie
  0001b	33 c5		 xor	 eax, ebp
  0001d	50		 push	 eax
  0001e	8d 45 f4	 lea	 eax, DWORD PTR __$EHRec$[ebp]
  00021	64 a3 00 00 00
	00		 mov	 DWORD PTR fs:0, eax
  00027	8b f9		 mov	 edi, ecx

; 1007 : 	//>> JS.Kim_20100929  solomon.. PAIR RQ   ..
; 1008 : 	/*
; 1009 : 	p_slVertScaleGroupData.AddTail( "VertScaleGroup;\r\n");
; 1010 : 
; 1011 : 	p_slVertScaleGroupData.AddTail( CString());
; 1012 : 	CString &strVertScaleData = p_slVertScaleGroupData.GetTail();
; 1013 : 	m_vertScale.GetScaleAllData( strVertScaleData);
; 1014 : 
; 1015 : 
; 1016 : 	POSITION pos = m_GraphList.GetHeadPosition();
; 1017 : 	while( pos)
; 1018 : 	{
; 1019 : 		CGraphImp* pGraph = m_GraphList.GetNext(pos);
; 1020 : 		assert( pGraph != NULL);
; 1021 : 		pGraph->GetStringGraphData( p_slVertScaleGroupData);
; 1022 : 	}
; 1023 : 	
; 1024 : 	p_slVertScaleGroupData.AddTail( "VertScaleGroupEnd;\r\n");
; 1025 : 	*/
; 1026 : 	CStringList slVertScaleGroupData;

  00029	6a 0a		 push	 10			; 0000000aH
  0002b	8d 4d d8	 lea	 ecx, DWORD PTR _slVertScaleGroupData$[ebp]
  0002e	e8 00 00 00 00	 call	 ??0CStringList@@QAE@H@Z	; CStringList::CStringList

; 1027 : 	POSITION pos = m_GraphList.GetHeadPosition();

  00033	8b 77 7c	 mov	 esi, DWORD PTR [edi+124]
  00036	c7 45 fc 00 00
	00 00		 mov	 DWORD PTR __$EHRec$[ebp+8], 0

; 1028 : 	while( pos)

  0003d	85 f6		 test	 esi, esi
  0003f	74 14		 je	 SHORT $LN3@GetVertSca
$LL2@GetVertSca:
; File C:\Program Files (x86)\Microsoft Visual Studio\2019\Community\VC\Tools\MSVC\14.29.30133\atlmfc\include\afxcoll.inl

; 435  : 	{ CNode* pNode = (CNode*) rPosition;

  00041	8d 06		 lea	 eax, DWORD PTR [esi]

; 436  : 		ASSERT(AfxIsValidAddress(pNode, sizeof(CNode)));
; 437  : 		if( pNode == NULL )
; 438  : 			AfxThrowInvalidArgException();
; 439  : 		rPosition = (POSITION) pNode->pNext;

  00043	8b 36		 mov	 esi, DWORD PTR [esi]
; File D:\git\src\IBK\IBK_DRFN\ProjSrc\SrcChartEx\ChartOCX\ChartObject\VertScaleGroup.cpp

; 1032 : 		pGraph->GetStringGraphData( slVertScaleGroupData);

  00045	8d 4d d8	 lea	 ecx, DWORD PTR _slVertScaleGroupData$[ebp]
  00048	51		 push	 ecx
  00049	8b 48 08	 mov	 ecx, DWORD PTR [eax+8]
  0004c	e8 00 00 00 00	 call	 ?GetStringGraphData@CGraphImp@@QBEXAAVCStringList@@@Z ; CGraphImp::GetStringGraphData
  00051	85 f6		 test	 esi, esi
  00053	75 ec		 jne	 SHORT $LL2@GetVertSca
$LN3@GetVertSca:
; File C:\Program Files (x86)\Microsoft Visual Studio\2019\Community\VC\Tools\MSVC\14.29.30133\atlmfc\include\afxcoll.inl

; 483  : 	{ return m_nCount == 0; }

  00055	83 7d e4 00	 cmp	 DWORD PTR _slVertScaleGroupData$[ebp+12], 0
; File D:\git\src\IBK\IBK_DRFN\ProjSrc\SrcChartEx\ChartOCX\ChartObject\VertScaleGroup.cpp

; 1034 : 	if( slVertScaleGroupData.IsEmpty() )		return;

  00059	74 5a		 je	 SHORT $LN8@GetVertSca

; 1035 : 
; 1036 : 	p_slVertScaleGroupData.AddTail( "VertScaleGroup;\r\n");

  0005b	8b 75 08	 mov	 esi, DWORD PTR _p_slVertScaleGroupData$[ebp]
  0005e	8b ce		 mov	 ecx, esi
  00060	68 00 00 00 00	 push	 OFFSET ??_C@_0BC@DJOHDNOJ@VertScaleGroup?$DL?$AN?6@
  00065	e8 00 00 00 00	 call	 ?AddTail@CStringList@@QAEPAU__POSITION@@PBD@Z ; CStringList::AddTail

; 1037 : 
; 1038 : 	p_slVertScaleGroupData.AddTail( CString());

  0006a	8d 4d 08	 lea	 ecx, DWORD PTR $T2[ebp]
  0006d	ff 15 00 00 00
	00		 call	 DWORD PTR __imp_??0?$CStringT@DV?$StrTraitMFC_DLL@DV?$ChTraitsCRT@D@ATL@@@@@ATL@@QAE@XZ
  00073	50		 push	 eax
  00074	8b ce		 mov	 ecx, esi
  00076	c6 45 fc 01	 mov	 BYTE PTR __$EHRec$[ebp+8], 1
  0007a	e8 00 00 00 00	 call	 ?AddTail@CStringList@@QAEPAU__POSITION@@ABV?$CStringT@DV?$StrTraitMFC_DLL@DV?$ChTraitsCRT@D@ATL@@@@@ATL@@@Z ; CStringList::AddTail
  0007f	8d 4d 08	 lea	 ecx, DWORD PTR $T2[ebp]
  00082	c6 45 fc 00	 mov	 BYTE PTR __$EHRec$[ebp+8], 0
  00086	ff 15 00 00 00
	00		 call	 DWORD PTR __imp_??1?$CStringT@DV?$StrTraitMFC_DLL@DV?$ChTraitsCRT@D@ATL@@@@@ATL@@QAE@XZ
; File C:\Program Files (x86)\Microsoft Visual Studio\2019\Community\VC\Tools\MSVC\14.29.30133\atlmfc\include\afxcoll.inl

; 492  : 		return m_pNodeTail->data; }

  0008c	8b 46 08	 mov	 eax, DWORD PTR [esi+8]
; File D:\git\src\IBK\IBK_DRFN\ProjSrc\SrcChartEx\ChartOCX\ChartObject\VertScaleGroup.cpp

; 1040 : 	m_vertScale.GetScaleAllData( strVertScaleData);

  0008f	8d 4f 10	 lea	 ecx, DWORD PTR [edi+16]
  00092	6a 00		 push	 0
; File C:\Program Files (x86)\Microsoft Visual Studio\2019\Community\VC\Tools\MSVC\14.29.30133\atlmfc\include\afxcoll.inl

; 492  : 		return m_pNodeTail->data; }

  00094	83 c0 08	 add	 eax, 8
; File D:\git\src\IBK\IBK_DRFN\ProjSrc\SrcChartEx\ChartOCX\ChartObject\VertScaleGroup.cpp

; 1040 : 	m_vertScale.GetScaleAllData( strVertScaleData);

  00097	50		 push	 eax
  00098	ff 15 00 00 00
	00		 call	 DWORD PTR __imp_?GetScaleAllData@CVerticalScale@@QBEXAAV?$CStringT@DV?$StrTraitMFC_DLL@DV?$ChTraitsCRT@D@ATL@@@@@ATL@@PBD@Z

; 1041 : 
; 1042 : 	p_slVertScaleGroupData.AddTail(&slVertScaleGroupData);

  0009e	8d 45 d8	 lea	 eax, DWORD PTR _slVertScaleGroupData$[ebp]
  000a1	8b ce		 mov	 ecx, esi
  000a3	50		 push	 eax
  000a4	e8 00 00 00 00	 call	 ?AddTail@CStringList@@QAEXPAV1@@Z ; CStringList::AddTail

; 1043 : 	
; 1044 : 	p_slVertScaleGroupData.AddTail( "VertScaleGroupEnd;\r\n");

  000a9	68 00 00 00 00	 push	 OFFSET ??_C@_0BF@DDJNMPKE@VertScaleGroupEnd?$DL?$AN?6@
  000ae	8b ce		 mov	 ecx, esi
  000b0	e8 00 00 00 00	 call	 ?AddTail@CStringList@@QAEPAU__POSITION@@PBD@Z ; CStringList::AddTail
$LN8@GetVertSca:

; 1045 : 	//<<
; 1046 : }

  000b5	8d 4d d8	 lea	 ecx, DWORD PTR _slVertScaleGroupData$[ebp]
  000b8	e8 00 00 00 00	 call	 ??1CStringList@@UAE@XZ	; CStringList::~CStringList
  000bd	8b 4d f4	 mov	 ecx, DWORD PTR __$EHRec$[ebp]
  000c0	64 89 0d 00 00
	00 00		 mov	 DWORD PTR fs:0, ecx
  000c7	59		 pop	 ecx
  000c8	5f		 pop	 edi
  000c9	5e		 pop	 esi
  000ca	8b e5		 mov	 esp, ebp
  000cc	5d		 pop	 ebp
  000cd	c2 04 00	 ret	 4
_TEXT	ENDS
;	COMDAT text$x
text$x	SEGMENT
__unwindfunclet$?GetVertScaleGroupAllData@CVertScaleGroup@@QBEXAAVCStringList@@@Z$0:
  00000	8d 4d d8	 lea	 ecx, DWORD PTR _slVertScaleGroupData$[ebp]
  00003	e9 00 00 00 00	 jmp	 ??1CStringList@@UAE@XZ	; CStringList::~CStringList
__unwindfunclet$?GetVertScaleGroupAllData@CVertScaleGroup@@QBEXAAVCStringList@@@Z$1:
  00008	8d 4d 08	 lea	 ecx, DWORD PTR $T2[ebp]
  0000b	ff 25 00 00 00
	00		 jmp	 DWORD PTR __imp_??1?$CStringT@DV?$StrTraitMFC_DLL@DV?$ChTraitsCRT@D@ATL@@@@@ATL@@QAE@XZ
  00011	cc		 int	 3
  00012	cc		 int	 3
  00013	cc		 int	 3
  00014	cc		 int	 3
  00015	cc		 int	 3
__ehhandler$?GetVertScaleGroupAllData@CVertScaleGroup@@QBEXAAVCStringList@@@Z:
  00016	90		 npad	 1
  00017	90		 npad	 1
  00018	8b 54 24 08	 mov	 edx, DWORD PTR [esp+8]
  0001c	8d 42 0c	 lea	 eax, DWORD PTR [edx+12]
  0001f	8b 4a d8	 mov	 ecx, DWORD PTR [edx-40]
  00022	33 c8		 xor	 ecx, eax
  00024	e8 00 00 00 00	 call	 @__security_check_cookie@4
  00029	b8 00 00 00 00	 mov	 eax, OFFSET __ehfuncinfo$?GetVertScaleGroupAllData@CVertScaleGroup@@QBEXAAVCStringList@@@Z
  0002e	e9 00 00 00 00	 jmp	 ___CxxFrameHandler3
text$x	ENDS
?GetVertScaleGroupAllData@CVertScaleGroup@@QBEXAAVCStringList@@@Z ENDP ; CVertScaleGroup::GetVertScaleGroupAllData
; Function compile flags: /Ogtp
; File D:\git\src\IBK\IBK_DRFN\ProjSrc\SrcChartEx\ChartOCX\ChartObject\VertScaleGroup.cpp
;	COMDAT ?GetVertScale@CVertScaleGroup@@QBEABVCVerticalScale@@XZ
_TEXT	SEGMENT
?GetVertScale@CVertScaleGroup@@QBEABVCVerticalScale@@XZ PROC ; CVertScaleGroup::GetVertScale, COMDAT
; _this$ = ecx

; 1001 : 	return m_vertScale;

  00000	8d 41 10	 lea	 eax, DWORD PTR [ecx+16]

; 1002 : }

  00003	c3		 ret	 0
?GetVertScale@CVertScaleGroup@@QBEABVCVerticalScale@@XZ ENDP ; CVertScaleGroup::GetVertScale
_TEXT	ENDS
; Function compile flags: /Ogtp
; File D:\git\src\IBK\IBK_DRFN\ProjSrc\SrcChartEx\ChartOCX\ChartObject\VertScaleGroup.cpp
;	COMDAT ?GetVertScale@CVertScaleGroup@@QAEAAVCVerticalScale@@XZ
_TEXT	SEGMENT
?GetVertScale@CVertScaleGroup@@QAEAAVCVerticalScale@@XZ PROC ; CVertScaleGroup::GetVertScale, COMDAT
; _this$ = ecx

; 995  : 	return m_vertScale;

  00000	8d 41 10	 lea	 eax, DWORD PTR [ecx+16]

; 996  : }

  00003	c3		 ret	 0
?GetVertScale@CVertScaleGroup@@QAEAAVCVerticalScale@@XZ ENDP ; CVertScaleGroup::GetVertScale
_TEXT	ENDS
; Function compile flags: /Ogtp
; File D:\git\src\IBK\IBK_DRFN\ProjSrc\SrcChartEx\ChartOCX\ChartObject\VertScaleGroup.cpp
;	COMDAT ?GetVertScaleGroupList@CVertScaleGroup@@QBEPAVCVertScaleGroupList@@XZ
_TEXT	SEGMENT
?GetVertScaleGroupList@CVertScaleGroup@@QBEPAVCVertScaleGroupList@@XZ PROC ; CVertScaleGroup::GetVertScaleGroupList, COMDAT
; _this$ = ecx

; 989  : 	return m_pVertScaleGroupList;

  00000	8b 41 0c	 mov	 eax, DWORD PTR [ecx+12]

; 990  : }

  00003	c3		 ret	 0
?GetVertScaleGroupList@CVertScaleGroup@@QBEPAVCVertScaleGroupList@@XZ ENDP ; CVertScaleGroup::GetVertScaleGroupList
_TEXT	ENDS
; Function compile flags: /Ogtp
; File D:\git\src\IBK\IBK_DRFN\ProjSrc\SrcChartEx\ChartOCX\ChartObject\VertScaleGroup.cpp
;	COMDAT ?GetBlock@CVertScaleGroup@@QBEPAVCBlockImp@@XZ
_TEXT	SEGMENT
?GetBlock@CVertScaleGroup@@QBEPAVCBlockImp@@XZ PROC	; CVertScaleGroup::GetBlock, COMDAT
; _this$ = ecx

; 982  : 	if(m_pVertScaleGroupList == NULL)

  00000	8b 49 0c	 mov	 ecx, DWORD PTR [ecx+12]
  00003	85 c9		 test	 ecx, ecx
  00005	75 03		 jne	 SHORT $LN2@GetBlock

; 983  : 		return NULL;

  00007	33 c0		 xor	 eax, eax

; 985  : }

  00009	c3		 ret	 0
$LN2@GetBlock:

; 984  : 	return m_pVertScaleGroupList->GetBlock();

  0000a	e9 00 00 00 00	 jmp	 ?GetBlock@CVertScaleGroupList@@QBEPAVCBlockImp@@XZ ; CVertScaleGroupList::GetBlock
?GetBlock@CVertScaleGroup@@QBEPAVCBlockImp@@XZ ENDP	; CVertScaleGroup::GetBlock
_TEXT	ENDS
; Function compile flags: /Ogtp
; File D:\git\src\IBK\IBK_DRFN\ProjSrc\SrcChartEx\ChartOCX\ChartObject\VertScaleGroup.cpp
;	COMDAT ?GetMainChartFormulate@CVertScaleGroup@@QBEPAVCMainChartFormulate@@XZ
_TEXT	SEGMENT
?GetMainChartFormulate@CVertScaleGroup@@QBEPAVCMainChartFormulate@@XZ PROC ; CVertScaleGroup::GetMainChartFormulate, COMDAT
; _this$ = ecx

; 976  : 	if( !m_pMainBlockBaseData) return NULL;

  00000	8b 49 08	 mov	 ecx, DWORD PTR [ecx+8]
  00003	85 c9		 test	 ecx, ecx
  00005	75 03		 jne	 SHORT $LN2@GetMainCha
  00007	33 c0		 xor	 eax, eax

; 978  : }

  00009	c3		 ret	 0
$LN2@GetMainCha:

; 977  : 	return m_pMainBlockBaseData->GetMainAttributes().GetMainChartFormulate();

  0000a	e8 00 00 00 00	 call	 ?GetMainAttributes@CMainBlockBaseData@@QAEAAVCMainAttributes@@XZ ; CMainBlockBaseData::GetMainAttributes
  0000f	8b c8		 mov	 ecx, eax
  00011	e9 00 00 00 00	 jmp	 ?GetMainChartFormulate@CMainAttributes@@QBEPAVCMainChartFormulate@@XZ ; CMainAttributes::GetMainChartFormulate
?GetMainChartFormulate@CVertScaleGroup@@QBEPAVCMainChartFormulate@@XZ ENDP ; CVertScaleGroup::GetMainChartFormulate
_TEXT	ENDS
; Function compile flags: /Ogtp
; File D:\git\src\IBK\IBK_DRFN\ProjSrc\SrcChartEx\ChartOCX\ChartObject\VertScaleGroup.cpp
; File C:\Program Files (x86)\Microsoft Visual Studio\2019\Community\VC\Tools\MSVC\14.29.30133\atlmfc\include\afxcoll.inl
; File D:\git\src\IBK\IBK_DRFN\ProjSrc\SrcChartEx\ChartOCX\ChartObject\VertScaleGroup.cpp
; File C:\Program Files (x86)\Microsoft Visual Studio\2019\Community\VC\Tools\MSVC\14.29.30133\atlmfc\include\cstringt.h
; File D:\git\src\IBK\IBK_DRFN\ProjSrc\SrcChartEx\ChartOCX\ChartObject\VertScaleGroup.cpp
; File C:\Program Files (x86)\Microsoft Visual Studio\2019\Community\VC\Tools\MSVC\14.29.30133\atlmfc\include\cstringt.h
; File D:\git\src\IBK\IBK_DRFN\ProjSrc\SrcChartEx\ChartOCX\ChartObject\VertScaleGroup.cpp
; File C:\Program Files (x86)\Microsoft Visual Studio\2019\Community\VC\Tools\MSVC\14.29.30133\atlmfc\include\cstringt.h
; File D:\git\src\IBK\IBK_DRFN\ProjSrc\SrcChartEx\ChartOCX\ChartObject\VertScaleGroup.cpp
; File D:\git\src\IBK\IBK_DRFN\ProjSrc\SrcChartEx\ChartOCX\Include_Chart\ScaleBaseData.h
; File D:\git\src\IBK\IBK_DRFN\ProjSrc\SrcChartEx\ChartOCX\ChartObject\VertScaleGroup.cpp
; File D:\git\src\IBK\IBK_DRFN\ProjSrc\SrcChartEx\ChartOCX\Include_Chart\ScaleBaseData.h
; File D:\git\src\IBK\IBK_DRFN\ProjSrc\SrcChartEx\ChartOCX\ChartObject\VertScaleGroup.cpp
; File D:\git\src\IBK\IBK_DRFN\ProjSrc\SrcChartEx\ChartOCX\Include_Chart\ScaleBaseData.h
; File D:\git\src\IBK\IBK_DRFN\ProjSrc\SrcChartEx\ChartOCX\ChartObject\VertScaleGroup.cpp
; File C:\Program Files (x86)\Microsoft Visual Studio\2019\Community\VC\Tools\MSVC\14.29.30133\atlmfc\include\afxtempl.h
; File D:\git\src\IBK\IBK_DRFN\ProjSrc\SrcChartEx\ChartOCX\ChartObject\VertScaleGroup.cpp
; File C:\Program Files (x86)\Microsoft Visual Studio\2019\Community\VC\Tools\MSVC\14.29.30133\atlmfc\include\afxcoll.inl
; File D:\git\src\IBK\IBK_DRFN\ProjSrc\SrcChartEx\ChartOCX\ChartObject\VertScaleGroup.cpp
; File D:\git\src\IBK\IBK_DRFN\ProjSrc\SrcChartEx\ChartOCX\Include_Chart\ScaleBaseData.h
; File D:\git\src\IBK\IBK_DRFN\ProjSrc\SrcChartEx\ChartOCX\ChartObject\VertScaleGroup.cpp
; File D:\git\src\IBK\IBK_DRFN\ProjSrc\SrcChartEx\ChartOCX\Include_Chart\ScaleBaseData.h
; File D:\git\src\IBK\IBK_DRFN\ProjSrc\SrcChartEx\ChartOCX\ChartObject\VertScaleGroup.cpp
;	COMDAT ?CalculateDisplayDataMinMax@CVertScaleGroup@@QAEXXZ
_TEXT	SEGMENT
_gsi$2 = -204						; size = 64
_gsi$3 = -140						; size = 76
_gapData$4 = -64					; size = 16
_dHeight$1$ = -56					; size = 8
$T5 = -56						; size = 8
$T6 = -56						; size = 8
$T7 = -52						; size = 4
$T8 = -48						; size = 16
_dGap$9 = -40						; size = 8
$T10 = -40						; size = 8
$T11 = -40						; size = 8
_nUpSpace$1$ = -36					; size = 4
$T12 = -36						; size = 4
$T13 = -36						; size = 4
_dMax$ = -32						; size = 8
_dMin$ = -24						; size = 8
_strGraphName$14 = -16					; size = 4
_strType$15 = -16					; size = 4
__$EHRec$ = -12						; size = 12
?CalculateDisplayDataMinMax@CVertScaleGroup@@QAEXXZ PROC ; CVertScaleGroup::CalculateDisplayDataMinMax, COMDAT
; _this$ = ecx

; 892  : {

  00000	55		 push	 ebp
  00001	8b ec		 mov	 ebp, esp
  00003	6a ff		 push	 -1
  00005	68 00 00 00 00	 push	 __ehhandler$?CalculateDisplayDataMinMax@CVertScaleGroup@@QAEXXZ
  0000a	64 a1 00 00 00
	00		 mov	 eax, DWORD PTR fs:0
  00010	50		 push	 eax
  00011	81 ec c0 00 00
	00		 sub	 esp, 192		; 000000c0H
  00017	53		 push	 ebx
  00018	56		 push	 esi
  00019	57		 push	 edi
  0001a	a1 00 00 00 00	 mov	 eax, DWORD PTR ___security_cookie
  0001f	33 c5		 xor	 eax, ebp
  00021	50		 push	 eax
  00022	8d 45 f4	 lea	 eax, DWORD PTR __$EHRec$[ebp]
  00025	64 a3 00 00 00
	00		 mov	 DWORD PTR fs:0, eax
  0002b	8b f9		 mov	 edi, ecx
; File C:\Program Files (x86)\Microsoft Visual Studio\2019\Community\VC\Tools\MSVC\14.29.30133\atlmfc\include\afxcoll.inl

; 410  : 	{ return m_nCount == 0; }

  0002d	83 bf 84 00 00
	00 00		 cmp	 DWORD PTR [edi+132], 0
; File D:\git\src\IBK\IBK_DRFN\ProjSrc\SrcChartEx\ChartOCX\ChartObject\VertScaleGroup.cpp

; 2020 : 	if( m_GraphList.IsEmpty()) return NULL;

  00034	74 39		 je	 SHORT $LN2@CalculateD
  00036	8d 8d 34 ff ff
	ff		 lea	 ecx, DWORD PTR _gsi$2[ebp]
  0003c	e8 00 00 00 00	 call	 ??0CGraphSearchInfo@@QAE@XZ ; CGraphSearchInfo::CGraphSearchInfo

; 2021 : 
; 2022 : 	//  head  graph.
; 2023 : 	// (2007/3/11 - Seung-Won, Bae) Retrieve the Visible Graph first.
; 2024 : 	CGraphImp* pBaseGraph = NULL;
; 2025 : 	CGraphSearchInfo_VisibleSubGraph gsi;
; 2026 : 	if( FindGraph( &gsi)) pBaseGraph = gsi.m_pGraphImp;

  00041	8d 85 34 ff ff
	ff		 lea	 eax, DWORD PTR _gsi$2[ebp]
  00047	c7 85 34 ff ff
	ff 00 00 00 00	 mov	 DWORD PTR _gsi$2[ebp], OFFSET ??_7CGraphSearchInfo_VisibleSubGraph@@6B@
  00051	50		 push	 eax
  00052	8b cf		 mov	 ecx, edi
  00054	e8 00 00 00 00	 call	 ?FindGraph@CVertScaleGroup@@QBEHPAVCGraphSearchInfo@@@Z ; CVertScaleGroup::FindGraph
  00059	85 c0		 test	 eax, eax
  0005b	74 08		 je	 SHORT $LN17@CalculateD
  0005d	8b 9d 6c ff ff
	ff		 mov	 ebx, DWORD PTR _gsi$2[ebp+56]
  00063	eb 06		 jmp	 SHORT $LN18@CalculateD
$LN17@CalculateD:

; 2027 : 	else pBaseGraph = m_GraphList.GetHead();

  00065	8b 47 7c	 mov	 eax, DWORD PTR [edi+124]
  00068	8b 58 08	 mov	 ebx, DWORD PTR [eax+8]
$LN18@CalculateD:

; 2028 : 	if( pBaseGraph == NULL) return NULL;

  0006b	85 db		 test	 ebx, ebx
  0006d	75 11		 jne	 SHORT $LN19@CalculateD
$LN2@CalculateD:

; 896  : 	else				m_pBasePacket = NULL;

  0006f	c7 87 98 00 00
	00 00 00 00 00	 mov	 DWORD PTR [edi+152], 0
  00079	33 c0		 xor	 eax, eax
  0007b	e9 04 01 00 00	 jmp	 $LN3@CalculateD
$LN19@CalculateD:

; 2030 : 	CString strGraphName = pBaseGraph->GetGraphData().GetIndicatorName();

  00080	8d 45 f0	 lea	 eax, DWORD PTR _strGraphName$14[ebp]
  00083	8b cb		 mov	 ecx, ebx
  00085	50		 push	 eax
  00086	e8 00 00 00 00	 call	 ?GetGraphData@CGraphImp@@QAEAAVCGraphData@@XZ ; CGraphImp::GetGraphData
  0008b	8b c8		 mov	 ecx, eax
  0008d	ff 15 00 00 00
	00		 call	 DWORD PTR __imp_?GetIndicatorName@CGraphData@@QBE?AV?$CStringT@DV?$StrTraitMFC_DLL@DV?$ChTraitsCRT@D@ATL@@@@@ATL@@XZ

; 2033 : 	if(strGraphName != _MTEXT( C2_PRICE_CHART) && 

  00093	a1 54 00 00 00	 mov	 eax, DWORD PTR ?g_iMetaTable@@3VIMetaTable@@A+84
; File C:\Program Files (x86)\Microsoft Visual Studio\2019\Community\VC\Tools\MSVC\14.29.30133\atlmfc\include\cstringt.h

; 2567 : 		return( str1.Compare( psz2 ) != 0 );

  00098	8d 4d f0	 lea	 ecx, DWORD PTR _strGraphName$14[ebp]
; File D:\git\src\IBK\IBK_DRFN\ProjSrc\SrcChartEx\ChartOCX\ChartObject\VertScaleGroup.cpp

; 2030 : 	CString strGraphName = pBaseGraph->GetGraphData().GetIndicatorName();

  0009b	c7 45 fc 00 00
	00 00		 mov	 DWORD PTR __$EHRec$[ebp+8], 0
; File C:\Program Files (x86)\Microsoft Visual Studio\2019\Community\VC\Tools\MSVC\14.29.30133\atlmfc\include\cstringt.h

; 2567 : 		return( str1.Compare( psz2 ) != 0 );

  000a2	ff b0 28 03 00
	00		 push	 DWORD PTR [eax+808]
  000a8	ff 15 00 00 00
	00		 call	 DWORD PTR __imp_?Compare@?$CStringT@DV?$StrTraitMFC_DLL@DV?$ChTraitsCRT@D@ATL@@@@@ATL@@QBEHPBD@Z
  000ae	85 c0		 test	 eax, eax
; File D:\git\src\IBK\IBK_DRFN\ProjSrc\SrcChartEx\ChartOCX\ChartObject\VertScaleGroup.cpp

; 2033 : 	if(strGraphName != _MTEXT( C2_PRICE_CHART) && 

  000b0	74 58		 je	 SHORT $LN20@CalculateD
  000b2	8d 45 f0	 lea	 eax, DWORD PTR _strGraphName$14[ebp]
  000b5	b9 00 00 00 00	 mov	 ecx, OFFSET ?g_iMetaTable@@3VIMetaTable@@A ; g_iMetaTable
  000ba	50		 push	 eax
  000bb	e8 00 00 00 00	 call	 ?IsScaleGroup_Price@IMetaTable@@QAE_NABV?$CStringT@DV?$StrTraitMFC_DLL@DV?$ChTraitsCRT@D@ATL@@@@@ATL@@@Z ; IMetaTable::IsScaleGroup_Price
  000c0	84 c0		 test	 al, al
  000c2	74 46		 je	 SHORT $LN20@CalculateD

; 2034 : 		g_iMetaTable.IsScaleGroup_Price(strGraphName))
; 2035 : 	{
; 2036 : 		CGraphImp* pGraph = FindGraph( _MTEXT( C2_PRICE_CHART));

  000c4	a1 54 00 00 00	 mov	 eax, DWORD PTR ?g_iMetaTable@@3VIMetaTable@@A+84
  000c9	8d 4d cc	 lea	 ecx, DWORD PTR $T7[ebp]
  000cc	ff b0 28 03 00
	00		 push	 DWORD PTR [eax+808]
  000d2	ff 15 00 00 00
	00		 call	 DWORD PTR __imp_??0?$CStringT@DV?$StrTraitMFC_DLL@DV?$ChTraitsCRT@D@ATL@@@@@ATL@@QAE@PBD@Z
  000d8	8d 45 cc	 lea	 eax, DWORD PTR $T7[ebp]
  000db	c6 45 fc 01	 mov	 BYTE PTR __$EHRec$[ebp+8], 1
  000df	50		 push	 eax
  000e0	8b cf		 mov	 ecx, edi
  000e2	e8 00 00 00 00	 call	 ?FindGraph@CVertScaleGroup@@QBEPAVCGraphImp@@ABV?$CStringT@DV?$StrTraitMFC_DLL@DV?$ChTraitsCRT@D@ATL@@@@@ATL@@@Z ; CVertScaleGroup::FindGraph
  000e7	8d 4d cc	 lea	 ecx, DWORD PTR $T7[ebp]
$LN109@CalculateD:

; 893  : 	// (2007/1/14 - Seung-Won, Bae) Get the Base Packet for Default Scale Min/Max
; 894  : 	m_pBaseGraph = FindBaseGraphForDrawingVertScaleData();
; 895  : 	if( m_pBaseGraph)	m_pBasePacket = m_pBaseGraph->GetSubGraphList().GetHeadPacket();

  000ea	8b f0		 mov	 esi, eax
  000ec	ff 15 00 00 00
	00		 call	 DWORD PTR __imp_??1?$CStringT@DV?$StrTraitMFC_DLL@DV?$ChTraitsCRT@D@ATL@@@@@ATL@@QAE@XZ
  000f2	85 f6		 test	 esi, esi
  000f4	74 66		 je	 SHORT $LN24@CalculateD
  000f6	8d 4d f0	 lea	 ecx, DWORD PTR _strGraphName$14[ebp]
  000f9	c7 45 fc ff ff
	ff ff		 mov	 DWORD PTR __$EHRec$[ebp+8], -1
  00100	ff 15 00 00 00
	00		 call	 DWORD PTR __imp_??1?$CStringT@DV?$StrTraitMFC_DLL@DV?$ChTraitsCRT@D@ATL@@@@@ATL@@QAE@XZ
  00106	8b c6		 mov	 eax, esi
  00108	eb 66		 jmp	 SHORT $LN104@CalculateD
$LN20@CalculateD:

; 2041 : 	else if(strGraphName != _MTEXT( C2_VOLUME_CHART) && 

  0010a	a1 54 00 00 00	 mov	 eax, DWORD PTR ?g_iMetaTable@@3VIMetaTable@@A+84
; File C:\Program Files (x86)\Microsoft Visual Studio\2019\Community\VC\Tools\MSVC\14.29.30133\atlmfc\include\cstringt.h

; 2567 : 		return( str1.Compare( psz2 ) != 0 );

  0010f	8d 4d f0	 lea	 ecx, DWORD PTR _strGraphName$14[ebp]
  00112	ff b0 2c 03 00
	00		 push	 DWORD PTR [eax+812]
  00118	ff 15 00 00 00
	00		 call	 DWORD PTR __imp_?Compare@?$CStringT@DV?$StrTraitMFC_DLL@DV?$ChTraitsCRT@D@ATL@@@@@ATL@@QBEHPBD@Z
  0011e	85 c0		 test	 eax, eax
; File D:\git\src\IBK\IBK_DRFN\ProjSrc\SrcChartEx\ChartOCX\ChartObject\VertScaleGroup.cpp

; 2041 : 	else if(strGraphName != _MTEXT( C2_VOLUME_CHART) && 

  00120	74 3a		 je	 SHORT $LN24@CalculateD
  00122	8d 45 f0	 lea	 eax, DWORD PTR _strGraphName$14[ebp]
  00125	b9 00 00 00 00	 mov	 ecx, OFFSET ?g_iMetaTable@@3VIMetaTable@@A ; g_iMetaTable
  0012a	50		 push	 eax
  0012b	e8 00 00 00 00	 call	 ?IsScaleGroup_Volume@IMetaTable@@QAE_NABV?$CStringT@DV?$StrTraitMFC_DLL@DV?$ChTraitsCRT@D@ATL@@@@@ATL@@@Z ; IMetaTable::IsScaleGroup_Volume
  00130	84 c0		 test	 al, al
  00132	74 28		 je	 SHORT $LN24@CalculateD

; 2042 : 		g_iMetaTable.IsScaleGroup_Volume(strGraphName))
; 2043 : 	{
; 2044 : 		CGraphImp* pGraph = FindGraph( _MTEXT( C2_VOLUME_CHART));

  00134	a1 54 00 00 00	 mov	 eax, DWORD PTR ?g_iMetaTable@@3VIMetaTable@@A+84
  00139	8d 4d dc	 lea	 ecx, DWORD PTR $T13[ebp]
  0013c	ff b0 2c 03 00
	00		 push	 DWORD PTR [eax+812]
  00142	ff 15 00 00 00
	00		 call	 DWORD PTR __imp_??0?$CStringT@DV?$StrTraitMFC_DLL@DV?$ChTraitsCRT@D@ATL@@@@@ATL@@QAE@PBD@Z
  00148	8d 45 dc	 lea	 eax, DWORD PTR $T13[ebp]
  0014b	c6 45 fc 02	 mov	 BYTE PTR __$EHRec$[ebp+8], 2
  0014f	50		 push	 eax
  00150	8b cf		 mov	 ecx, edi
  00152	e8 00 00 00 00	 call	 ?FindGraph@CVertScaleGroup@@QBEPAVCGraphImp@@ABV?$CStringT@DV?$StrTraitMFC_DLL@DV?$ChTraitsCRT@D@ATL@@@@@ATL@@@Z ; CVertScaleGroup::FindGraph
  00157	8d 4d dc	 lea	 ecx, DWORD PTR $T13[ebp]

; 2045 : 		if(pGraph != NULL)
; 2046 : 			return pGraph;

  0015a	eb 8e		 jmp	 SHORT $LN109@CalculateD
$LN24@CalculateD:

; 2047 : 	}
; 2048 : 
; 2049 : 	return pBaseGraph;

  0015c	8d 4d f0	 lea	 ecx, DWORD PTR _strGraphName$14[ebp]
  0015f	c7 45 fc ff ff
	ff ff		 mov	 DWORD PTR __$EHRec$[ebp+8], -1
  00166	ff 15 00 00 00
	00		 call	 DWORD PTR __imp_??1?$CStringT@DV?$StrTraitMFC_DLL@DV?$ChTraitsCRT@D@ATL@@@@@ATL@@QAE@XZ
  0016c	8b f3		 mov	 esi, ebx
  0016e	8b c3		 mov	 eax, ebx
$LN104@CalculateD:

; 893  : 	// (2007/1/14 - Seung-Won, Bae) Get the Base Packet for Default Scale Min/Max
; 894  : 	m_pBaseGraph = FindBaseGraphForDrawingVertScaleData();
; 895  : 	if( m_pBaseGraph)	m_pBasePacket = m_pBaseGraph->GetSubGraphList().GetHeadPacket();

  00170	8b ce		 mov	 ecx, esi
  00172	89 87 98 00 00
	00		 mov	 DWORD PTR [edi+152], eax
  00178	e8 00 00 00 00	 call	 ?GetSubGraphList@CGraphImp@@QAEAAVCSubGraphList@@XZ ; CGraphImp::GetSubGraphList
  0017d	8b c8		 mov	 ecx, eax
  0017f	e8 00 00 00 00	 call	 ?GetHeadPacket@CSubGraphList@@QBEPAVCPacket@@XZ ; CSubGraphList::GetHeadPacket
$LN3@CalculateD:
; File D:\git\src\IBK\IBK_DRFN\ProjSrc\SrcChartEx\ChartOCX\Include_Chart\ScaleBaseData.h

; 204  : 	CScaleBaseData::VERTMINMAXTYPE	GetVertScaleMinMaxType( void) const										{	return m_eMinMaxType;			}

  00184	89 87 9c 00 00
	00		 mov	 DWORD PTR [edi+156], eax
; File D:\git\src\IBK\IBK_DRFN\ProjSrc\SrcChartEx\ChartOCX\ChartObject\VertScaleGroup.cpp

; 899  : 	if( m_vertScale.GetVertScaleMinMaxType() == CScaleBaseData::VERT_MINMAX_OF_USER)

  0018a	83 7f 28 02	 cmp	 DWORD PTR [edi+40], 2
  0018e	75 45		 jne	 SHORT $LN4@CalculateD
; File D:\git\src\IBK\IBK_DRFN\ProjSrc\SrcChartEx\ChartOCX\Include_Chart\ScaleBaseData.h

; 210  : 	double							GetVertScaleMax( void) const											{	return m_dMax;		}

  00190	f2 0f 10 57 38	 movsd	 xmm2, QWORD PTR [edi+56]

; 207  : 	double							GetVertScaleMin( void) const											{	return m_dMin;		}			

  00195	f2 0f 10 4f 30	 movsd	 xmm1, QWORD PTR [edi+48]
; File D:\git\src\IBK\IBK_DRFN\ProjSrc\SrcChartEx\ChartOCX\ChartObject\VertScaleGroup.cpp

; 902  : 		if( m_vertScale.GetVertScaleMax() < m_vertScale.GetVertScaleMin())

  0019a	66 0f 2f ca	 comisd	 xmm1, xmm2
  0019e	76 13		 jbe	 SHORT $LN6@CalculateD
; File D:\git\src\IBK\IBK_DRFN\ProjSrc\SrcChartEx\ChartOCX\Include_Chart\ScaleBaseData.h

; 207  : 	double							GetVertScaleMin( void) const											{	return m_dMin;		}			

  001a0	0f 28 c1	 movaps	 xmm0, xmm1

; 210  : 	double							GetVertScaleMax( void) const											{	return m_dMax;		}

  001a3	0f 28 ca	 movaps	 xmm1, xmm2

; 208  : 	void							SetVertScaleMin( double p_dMin)											{	m_dMin = p_dMin;	}

  001a6	f2 0f 11 4f 30	 movsd	 QWORD PTR [edi+48], xmm1

; 211  : 	void							SetVertScaleMax( double p_dMax)											{	m_dMax = p_dMax;	}

  001ab	0f 28 d0	 movaps	 xmm2, xmm0
  001ae	f2 0f 11 47 38	 movsd	 QWORD PTR [edi+56], xmm0
$LN6@CalculateD:
; File D:\git\src\IBK\IBK_DRFN\ProjSrc\SrcChartEx\ChartOCX\ChartObject\VertScaleGroup.cpp

; 909  : 		m_displayDataMinMax.SetDisplayData( m_vertScale.GetVertScaleMin(), m_vertScale.GetVertScaleMax());

  001b3	8d 45 d8	 lea	 eax, DWORD PTR $T11[ebp]
  001b6	f2 0f 11 55 d8	 movsd	 QWORD PTR $T11[ebp], xmm2
  001bb	50		 push	 eax
  001bc	8d 45 c8	 lea	 eax, DWORD PTR $T6[ebp]
  001bf	f2 0f 11 4d c8	 movsd	 QWORD PTR $T6[ebp], xmm1
  001c4	8d 5f 68	 lea	 ebx, DWORD PTR [edi+104]
  001c7	50		 push	 eax
  001c8	8b cb		 mov	 ecx, ebx
  001ca	ff 15 00 00 00
	00		 call	 DWORD PTR __imp_?SetDisplayData@CDisplayDataMinMax@@QAEXABN0@Z

; 910  : 	}

  001d0	e9 d1 00 00 00	 jmp	 $LN7@CalculateD
$LN4@CalculateD:

; 911  : 	else
; 912  : 	{
; 913  : 		// (2006/10/15 - Seung-Won, Bae) Hide Empty Scale Text (Make Default Scale Range to 0:0)
; 914  : 		//	m_displayDataMinMax.SetDisplayData(-20.0, 20.0);
; 915  : 		//20100515         >>
; 916  : 		//m_displayDataMinMax.SetDisplayData( -HUGE_VAL, -HUGE_VAL);
; 917  : 		m_displayDataMinMax.SetDisplayData( HUGE_VAL, -HUGE_VAL);

  001d5	f2 0f 10 05 00
	00 00 00	 movsd	 xmm0, QWORD PTR __real@fff0000000000000
  001dd	8d 45 d8	 lea	 eax, DWORD PTR $T10[ebp]
  001e0	50		 push	 eax
  001e1	f2 0f 11 45 d8	 movsd	 QWORD PTR $T10[ebp], xmm0
  001e6	8d 45 c8	 lea	 eax, DWORD PTR $T5[ebp]
  001e9	f2 0f 10 05 00
	00 00 00	 movsd	 xmm0, QWORD PTR __real@7ff0000000000000
  001f1	8d 5f 68	 lea	 ebx, DWORD PTR [edi+104]
  001f4	50		 push	 eax
  001f5	8b cb		 mov	 ecx, ebx
  001f7	f2 0f 11 45 c8	 movsd	 QWORD PTR $T5[ebp], xmm0
  001fc	ff 15 00 00 00
	00		 call	 DWORD PTR __imp_?SetDisplayData@CDisplayDataMinMax@@QAEXABN0@Z

; 1933 : 	CGraphImp* pGraph = FindGraph( _MTEXT( C2_PRICE_CHART));

  00202	a1 54 00 00 00	 mov	 eax, DWORD PTR ?g_iMetaTable@@3VIMetaTable@@A+84
  00207	8d 4d dc	 lea	 ecx, DWORD PTR $T12[ebp]
  0020a	ff b0 28 03 00
	00		 push	 DWORD PTR [eax+808]
  00210	ff 15 00 00 00
	00		 call	 DWORD PTR __imp_??0?$CStringT@DV?$StrTraitMFC_DLL@DV?$ChTraitsCRT@D@ATL@@@@@ATL@@QAE@PBD@Z
  00216	8d 45 dc	 lea	 eax, DWORD PTR $T12[ebp]
  00219	c7 45 fc 03 00
	00 00		 mov	 DWORD PTR __$EHRec$[ebp+8], 3
  00220	50		 push	 eax
  00221	8b cf		 mov	 ecx, edi
  00223	e8 00 00 00 00	 call	 ?FindGraph@CVertScaleGroup@@QBEPAVCGraphImp@@ABV?$CStringT@DV?$StrTraitMFC_DLL@DV?$ChTraitsCRT@D@ATL@@@@@ATL@@@Z ; CVertScaleGroup::FindGraph
  00228	8d 4d dc	 lea	 ecx, DWORD PTR $T12[ebp]
  0022b	c7 45 fc ff ff
	ff ff		 mov	 DWORD PTR __$EHRec$[ebp+8], -1
  00232	8b f0		 mov	 esi, eax
  00234	ff 15 00 00 00
	00		 call	 DWORD PTR __imp_??1?$CStringT@DV?$StrTraitMFC_DLL@DV?$ChTraitsCRT@D@ATL@@@@@ATL@@QAE@XZ

; 1934 : 	if(pGraph == NULL) return false;

  0023a	85 f6		 test	 esi, esi
  0023c	74 22		 je	 SHORT $LN102@CalculateD

; 2009 : 	if(m_pMainBlockBaseData == NULL)

  0023e	8b 4f 08	 mov	 ecx, DWORD PTR [edi+8]
  00241	85 c9		 test	 ecx, ecx
  00243	74 1b		 je	 SHORT $LN102@CalculateD

; 2010 : 		return false;
; 2011 : 
; 2012 : 	return m_pMainBlockBaseData->GetScaleAttributes().DoesOnlyPriceVertScale();

  00245	e8 00 00 00 00	 call	 ?GetScaleAttributes@CMainBlockBaseData@@QAEAAVCScaleAttributes@@XZ ; CMainBlockBaseData::GetScaleAttributes
  0024a	8b c8		 mov	 ecx, eax
  0024c	e8 00 00 00 00	 call	 ?DoesOnlyPriceVertScale@CScaleAttributes@@QBE_NXZ ; CScaleAttributes::DoesOnlyPriceVertScale

; 1937 : 	if(!bIsOnlyPriceVertScale) return false;

  00251	84 c0		 test	 al, al
  00253	74 0b		 je	 SHORT $LN102@CalculateD

; 1938 : 
; 1939 : 	GetDisplayDataMinMax(pGraph, displayDataMinMax);

  00255	53		 push	 ebx
  00256	56		 push	 esi
  00257	8b cf		 mov	 ecx, edi
  00259	e8 00 00 00 00	 call	 ?GetDisplayDataMinMax@CVertScaleGroup@@ABEXPAVCGraphImp@@AAVCDisplayDataMinMax@@@Z ; CVertScaleGroup::GetDisplayDataMinMax

; 918  : 		//20100515  <<
; 919  : 
; 920  : 		// <>   < min/max>  ..
; 921  : 		if(!GetDisplayDataMinMaxInOnlyPrice(m_displayDataMinMax))

  0025e	eb 46		 jmp	 SHORT $LN7@CalculateD
$LN102@CalculateD:

; 1914 : 	CDisplayDataMinMax displayDataMinMax, gapData;

  00260	8b 35 00 00 00
	00		 mov	 esi, DWORD PTR __imp_??0CDisplayDataMinMax@@QAE@XZ
  00266	8d 4d d0	 lea	 ecx, DWORD PTR $T8[ebp]
  00269	ff d6		 call	 esi
  0026b	8d 4d c0	 lea	 ecx, DWORD PTR _gapData$4[ebp]
  0026e	ff d6		 call	 esi

; 1915 : 	POSITION pos = m_GraphList.GetHeadPosition();

  00270	8b 77 7c	 mov	 esi, DWORD PTR [edi+124]

; 1916 : 	while(pos != NULL)

  00273	85 f6		 test	 esi, esi
  00275	74 23		 je	 SHORT $LN69@CalculateD
$LL68@CalculateD:
; File C:\Program Files (x86)\Microsoft Visual Studio\2019\Community\VC\Tools\MSVC\14.29.30133\atlmfc\include\afxtempl.h

; 1898 : 		{ return (TYPE)BASE_CLASS::GetNext(rPosition); }

  00277	8b 5e 08	 mov	 ebx, DWORD PTR [esi+8]
; File D:\git\src\IBK\IBK_DRFN\ProjSrc\SrcChartEx\ChartOCX\ChartObject\VertScaleGroup.cpp

; 1922 : 		if( pGraph->IsGraphHide()) continue;

  0027a	8b cb		 mov	 ecx, ebx
; File C:\Program Files (x86)\Microsoft Visual Studio\2019\Community\VC\Tools\MSVC\14.29.30133\atlmfc\include\afxcoll.inl

; 439  : 		rPosition = (POSITION) pNode->pNext;

  0027c	8b 36		 mov	 esi, DWORD PTR [esi]
; File D:\git\src\IBK\IBK_DRFN\ProjSrc\SrcChartEx\ChartOCX\ChartObject\VertScaleGroup.cpp

; 1922 : 		if( pGraph->IsGraphHide()) continue;

  0027e	8b 03		 mov	 eax, DWORD PTR [ebx]
  00280	ff 50 18	 call	 DWORD PTR [eax+24]
  00283	85 c0		 test	 eax, eax
  00285	75 0c		 jne	 SHORT $LN99@CalculateD

; 1923 : 
; 1924 : 		GetDisplayDataMinMax(pGraph, displayDataMinMax);

  00287	8d 45 d0	 lea	 eax, DWORD PTR $T8[ebp]
  0028a	8b cf		 mov	 ecx, edi
  0028c	50		 push	 eax
  0028d	53		 push	 ebx
  0028e	e8 00 00 00 00	 call	 ?GetDisplayDataMinMax@CVertScaleGroup@@ABEXPAVCGraphImp@@AAVCDisplayDataMinMax@@@Z ; CVertScaleGroup::GetDisplayDataMinMax
$LN99@CalculateD:

; 1916 : 	while(pos != NULL)

  00293	85 f6		 test	 esi, esi
  00295	75 e0		 jne	 SHORT $LL68@CalculateD
  00297	8d 5f 68	 lea	 ebx, DWORD PTR [edi+104]
$LN69@CalculateD:

; 922  : 			m_displayDataMinMax = GetDisplayDataMinMaxInAll();

  0029a	8d 45 d0	 lea	 eax, DWORD PTR $T8[ebp]
  0029d	8b cb		 mov	 ecx, ebx
  0029f	50		 push	 eax
  002a0	ff 15 00 00 00
	00		 call	 DWORD PTR __imp_??4CDisplayDataMinMax@@QAEAAV0@ABV0@@Z
$LN7@CalculateD:

; 923  : 	}
; 924  : 
; 925  : 	// (2006/11/19 - Seung-Won, Bae) Deny Empty VScale
; 926  : 	double dMax = m_displayDataMinMax.GetDisplayMax();

  002a6	8b cb		 mov	 ecx, ebx
  002a8	ff 15 00 00 00
	00		 call	 DWORD PTR __imp_?GetDisplayMax@CDisplayDataMinMax@@QBENXZ
  002ae	dd 5d e0	 fstp	 QWORD PTR _dMax$[ebp]

; 927  : 	double dMin = m_displayDataMinMax.GetDisplayMin();

  002b1	8b cb		 mov	 ecx, ebx
  002b3	ff 15 00 00 00
	00		 call	 DWORD PTR __imp_?GetDisplayMin@CDisplayDataMinMax@@QBENXZ

; 928  : 	if( dMax == dMin && m_displayDataMinMax.IsInitialized() && m_pBasePacket)

  002b9	f2 0f 10 45 e0	 movsd	 xmm0, QWORD PTR _dMax$[ebp]
  002be	8b 35 00 00 00
	00		 mov	 esi, DWORD PTR __imp_?IsInitialized@CDisplayDataMinMax@@QBEHXZ
  002c4	dd 5d e8	 fstp	 QWORD PTR _dMin$[ebp]
  002c7	66 0f 2e 45 e8	 ucomisd xmm0, QWORD PTR _dMin$[ebp]
  002cc	9f		 lahf
  002cd	f6 c4 44	 test	 ah, 68			; 00000044H
  002d0	0f 8a cc 00 00
	00		 jp	 $LN105@CalculateD
  002d6	8b cb		 mov	 ecx, ebx
  002d8	ff d6		 call	 esi
  002da	85 c0		 test	 eax, eax
  002dc	0f 84 c0 00 00
	00		 je	 $LN105@CalculateD
  002e2	8b 8f 9c 00 00
	00		 mov	 ecx, DWORD PTR [edi+156]
  002e8	85 c9		 test	 ecx, ecx
  002ea	0f 84 b2 00 00
	00		 je	 $LN105@CalculateD

; 929  : 	{
; 930  : 		CString strType = m_pBasePacket->GetType();

  002f0	6a 01		 push	 1
  002f2	8d 45 f0	 lea	 eax, DWORD PTR _strType$15[ebp]
  002f5	50		 push	 eax
  002f6	ff 15 00 00 00
	00		 call	 DWORD PTR __imp_?GetType@CPacket@@QAE?AV?$CStringT@DV?$StrTraitMFC_DLL@DV?$ChTraitsCRT@D@ATL@@@@@ATL@@_N@Z

; 931  : 		strType.Replace( "x", "");

  002fc	68 00 00 00 00	 push	 OFFSET ??_C@_00CNPNBAHC@@
  00301	68 00 00 00 00	 push	 OFFSET ??_C@_01FJMABOPO@x@
  00306	8d 4d f0	 lea	 ecx, DWORD PTR _strType$15[ebp]
  00309	c7 45 fc 04 00
	00 00		 mov	 DWORD PTR __$EHRec$[ebp+8], 4
  00310	ff 15 00 00 00
	00		 call	 DWORD PTR __imp_?Replace@?$CStringT@DV?$StrTraitMFC_DLL@DV?$ChTraitsCRT@D@ATL@@@@@ATL@@QAEHPBD0@Z

; 932  : 		strType.Replace( "X", "");

  00316	68 00 00 00 00	 push	 OFFSET ??_C@_00CNPNBAHC@@
  0031b	68 00 00 00 00	 push	 OFFSET ??_C@_01MMEEDKFM@X@
  00320	8d 4d f0	 lea	 ecx, DWORD PTR _strType$15[ebp]
  00323	ff 15 00 00 00
	00		 call	 DWORD PTR __imp_?Replace@?$CStringT@DV?$StrTraitMFC_DLL@DV?$ChTraitsCRT@D@ATL@@@@@ATL@@QAEHPBD0@Z

; 933  : 		strType.Replace( '%', ' ');

  00329	6a 20		 push	 32			; 00000020H
  0032b	6a 25		 push	 37			; 00000025H
  0032d	8d 4d f0	 lea	 ecx, DWORD PTR _strType$15[ebp]
  00330	ff 15 00 00 00
	00		 call	 DWORD PTR __imp_?Replace@?$CStringT@DV?$StrTraitMFC_DLL@DV?$ChTraitsCRT@D@ATL@@@@@ATL@@QAEHDD@Z

; 934  : 		strType.Replace( '$', ' ');

  00336	6a 20		 push	 32			; 00000020H
  00338	6a 24		 push	 36			; 00000024H
  0033a	8d 4d f0	 lea	 ecx, DWORD PTR _strType$15[ebp]
  0033d	ff 15 00 00 00
	00		 call	 DWORD PTR __imp_?Replace@?$CStringT@DV?$StrTraitMFC_DLL@DV?$ChTraitsCRT@D@ATL@@@@@ATL@@QAEHDD@Z

; 935  : 		// (2010/4/17 - Seung-Won, Bae) Check with Graphic Character 'X'
; 936  : 		strType.Replace( "", "");

  00343	68 00 00 00 00	 push	 OFFSET ??_C@_00CNPNBAHC@@
  00348	68 00 00 00 00	 push	 OFFSET ??_C@_02LLFJKDMN@?$KB?$LP@
  0034d	8d 4d f0	 lea	 ecx, DWORD PTR _strType$15[ebp]
  00350	ff 15 00 00 00
	00		 call	 DWORD PTR __imp_?Replace@?$CStringT@DV?$StrTraitMFC_DLL@DV?$ChTraitsCRT@D@ATL@@@@@ATL@@QAEHPBD0@Z

; 937  : 		double dGap = atof( strType);

  00356	ff 75 f0	 push	 DWORD PTR _strType$15[ebp]
  00359	ff 15 00 00 00
	00		 call	 DWORD PTR __imp__atof

; 938  : 		dMin -= dGap;

  0035f	f2 0f 10 45 e8	 movsd	 xmm0, QWORD PTR _dMin$[ebp]

; 939  : 		dMax += dGap;
; 940  : 		m_displayDataMinMax.SetDisplayData( dMin, dMax);

  00364	8d 45 e0	 lea	 eax, DWORD PTR _dMax$[ebp]
  00367	83 c4 04	 add	 esp, 4
  0036a	8b cb		 mov	 ecx, ebx
  0036c	dd 5d d8	 fstp	 QWORD PTR _dGap$9[ebp]
  0036f	f2 0f 10 4d d8	 movsd	 xmm1, QWORD PTR _dGap$9[ebp]
  00374	f2 0f 5c c1	 subsd	 xmm0, xmm1
  00378	f2 0f 58 4d e0	 addsd	 xmm1, QWORD PTR _dMax$[ebp]
  0037d	50		 push	 eax
  0037e	8d 45 e8	 lea	 eax, DWORD PTR _dMin$[ebp]
  00381	50		 push	 eax
  00382	f2 0f 11 45 e8	 movsd	 QWORD PTR _dMin$[ebp], xmm0
  00387	f2 0f 11 4d e0	 movsd	 QWORD PTR _dMax$[ebp], xmm1
  0038c	ff 15 00 00 00
	00		 call	 DWORD PTR __imp_?SetDisplayData@CDisplayDataMinMax@@QAEXABN0@Z

; 941  : 	}

  00392	8d 4d f0	 lea	 ecx, DWORD PTR _strType$15[ebp]
  00395	c7 45 fc ff ff
	ff ff		 mov	 DWORD PTR __$EHRec$[ebp+8], -1
  0039c	ff 15 00 00 00
	00		 call	 DWORD PTR __imp_??1?$CStringT@DV?$StrTraitMFC_DLL@DV?$ChTraitsCRT@D@ATL@@@@@ATL@@QAE@XZ
$LN105@CalculateD:

; 942  : 
; 943  : 	// (2007/7/16 - Seung-Won, Bae) Up/Down Space
; 944  : 	if( m_vertScale.GetVertScaleMinMaxType() != CScaleBaseData::VERT_MINMAX_OF_USER && dMax != dMin && m_displayDataMinMax.IsInitialized())

  003a2	83 7f 28 02	 cmp	 DWORD PTR [edi+40], 2
  003a6	0f 84 e1 00 00
	00		 je	 $LN106@CalculateD
  003ac	f2 0f 10 45 e0	 movsd	 xmm0, QWORD PTR _dMax$[ebp]
  003b1	66 0f 2e 45 e8	 ucomisd xmm0, QWORD PTR _dMin$[ebp]
  003b6	9f		 lahf
  003b7	f6 c4 44	 test	 ah, 68			; 00000044H
  003ba	0f 8b cd 00 00
	00		 jnp	 $LN106@CalculateD
  003c0	8b cb		 mov	 ecx, ebx
  003c2	ff d6		 call	 esi
  003c4	85 c0		 test	 eax, eax
  003c6	0f 84 c1 00 00
	00		 je	 $LN106@CalculateD
; File D:\git\src\IBK\IBK_DRFN\ProjSrc\SrcChartEx\ChartOCX\Include_Chart\ScaleBaseData.h

; 240  : 	void	GetSpace( int &p_nUpSpace, int &p_nDownSpace) const		{	p_nUpSpace = m_nUpSpace;	p_nDownSpace = m_nDownSpace;	}

  003cc	8b 47 5c	 mov	 eax, DWORD PTR [edi+92]
  003cf	8b 77 60	 mov	 esi, DWORD PTR [edi+96]
  003d2	89 45 dc	 mov	 DWORD PTR _nUpSpace$1$[ebp], eax
; File D:\git\src\IBK\IBK_DRFN\ProjSrc\SrcChartEx\ChartOCX\ChartObject\VertScaleGroup.cpp

; 948  : 		if( 0 != nUpSpace || 0 != nDownSpace)

  003d5	85 c0		 test	 eax, eax
  003d7	75 08		 jne	 SHORT $LN11@CalculateD
  003d9	85 f6		 test	 esi, esi
  003db	0f 84 ac 00 00
	00		 je	 $LN106@CalculateD
$LN11@CalculateD:

; 949  : 		{
; 950  : 			double dHeight = dMax - dMin;

  003e1	f2 0f 10 45 e0	 movsd	 xmm0, QWORD PTR _dMax$[ebp]
  003e6	8d 8d 74 ff ff
	ff		 lea	 ecx, DWORD PTR _gsi$3[ebp]
  003ec	f2 0f 5c 45 e8	 subsd	 xmm0, QWORD PTR _dMin$[ebp]
  003f1	f2 0f 11 45 c8	 movsd	 QWORD PTR _dHeight$1$[ebp], xmm0
  003f6	e8 00 00 00 00	 call	 ??0CGraphSearchInfo@@QAE@XZ ; CGraphSearchInfo::CGraphSearchInfo

; 951  : 
; 952  : 			// (2007/7/18 - Seung-Won, Bae) Do not Support Down Space for Vertical BarChart (0-Base BarChart)
; 953  : 			CGraphSearchInfo_VisibleTypeStyleDrawStyle gsi;
; 954  : 			gsi.m_eGraphType = CGraphBaseData::Bar_Type;
; 955  : 			gsi.m_nGraphStyle = CGraphBaseData::VerticalBar;
; 956  : 			gsi.m_nDrawStyle = CGraphBaseData::Bar_Draw;
; 957  : 			if( FindGraph( &gsi)) nDownSpace = 0;

  003fb	8d 85 74 ff ff
	ff		 lea	 eax, DWORD PTR _gsi$3[ebp]
  00401	c7 85 74 ff ff
	ff 00 00 00 00	 mov	 DWORD PTR _gsi$3[ebp], OFFSET ??_7CGraphSearchInfo_VisibleTypeStyleDrawStyle@@6B@
  0040b	50		 push	 eax
  0040c	8b cf		 mov	 ecx, edi
  0040e	c7 45 b4 02 00
	00 00		 mov	 DWORD PTR _gsi$3[ebp+64], 2
  00415	c7 45 b8 00 00
	00 00		 mov	 DWORD PTR _gsi$3[ebp+68], 0
  0041c	c7 45 bc 00 00
	00 00		 mov	 DWORD PTR _gsi$3[ebp+72], 0
  00423	e8 00 00 00 00	 call	 ?FindGraph@CVertScaleGroup@@QBEHPAVCGraphSearchInfo@@@Z ; CVertScaleGroup::FindGraph
  00428	33 c9		 xor	 ecx, ecx
  0042a	85 c0		 test	 eax, eax

; 958  : 
; 959  : 			double nHeight = 100 - nUpSpace - nDownSpace;

  0042c	b8 64 00 00 00	 mov	 eax, 100		; 00000064H
  00431	0f 45 f1	 cmovne	 esi, ecx
  00434	8b 4d dc	 mov	 ecx, DWORD PTR _nUpSpace$1$[ebp]
  00437	2b c6		 sub	 eax, esi
  00439	2b c1		 sub	 eax, ecx
  0043b	66 0f 6e c1	 movd	 xmm0, ecx

; 960  : 			dMax += ( dHeight * nUpSpace) / nHeight;
; 961  : 			dMin -= ( dHeight * nDownSpace) / nHeight;
; 962  : 
; 963  : 			m_displayDataMinMax.SetDisplayData( dMin, dMax);

  0043f	8b cb		 mov	 ecx, ebx
  00441	f3 0f e6 c0	 cvtdq2pd xmm0, xmm0
  00445	66 0f 6e d0	 movd	 xmm2, eax
  00449	8d 45 e0	 lea	 eax, DWORD PTR _dMax$[ebp]
  0044c	f2 0f 59 45 c8	 mulsd	 xmm0, QWORD PTR _dHeight$1$[ebp]
  00451	50		 push	 eax
  00452	f3 0f e6 d2	 cvtdq2pd xmm2, xmm2
  00456	8d 45 e8	 lea	 eax, DWORD PTR _dMin$[ebp]
  00459	50		 push	 eax
  0045a	66 0f 6e ce	 movd	 xmm1, esi
  0045e	f3 0f e6 c9	 cvtdq2pd xmm1, xmm1
  00462	f2 0f 5e c2	 divsd	 xmm0, xmm2
  00466	f2 0f 59 4d c8	 mulsd	 xmm1, QWORD PTR _dHeight$1$[ebp]
  0046b	f2 0f 58 45 e0	 addsd	 xmm0, QWORD PTR _dMax$[ebp]
  00470	f2 0f 5e ca	 divsd	 xmm1, xmm2
  00474	f2 0f 11 45 e0	 movsd	 QWORD PTR _dMax$[ebp], xmm0
  00479	f2 0f 10 45 e8	 movsd	 xmm0, QWORD PTR _dMin$[ebp]
  0047e	f2 0f 5c c1	 subsd	 xmm0, xmm1
  00482	f2 0f 11 45 e8	 movsd	 QWORD PTR _dMin$[ebp], xmm0
  00487	ff 15 00 00 00
	00		 call	 DWORD PTR __imp_?SetDisplayData@CDisplayDataMinMax@@QAEXABN0@Z
$LN106@CalculateD:
; File D:\git\src\IBK\IBK_DRFN\ProjSrc\SrcChartEx\ChartOCX\Include_Chart\ScaleBaseData.h

; 208  : 	void							SetVertScaleMin( double p_dMin)											{	m_dMin = p_dMin;	}

  0048d	f2 0f 10 45 e8	 movsd	 xmm0, QWORD PTR _dMin$[ebp]
  00492	f2 0f 11 47 30	 movsd	 QWORD PTR [edi+48], xmm0

; 211  : 	void							SetVertScaleMax( double p_dMax)											{	m_dMax = p_dMax;	}

  00497	f2 0f 10 45 e0	 movsd	 xmm0, QWORD PTR _dMax$[ebp]
  0049c	f2 0f 11 47 38	 movsd	 QWORD PTR [edi+56], xmm0
; File D:\git\src\IBK\IBK_DRFN\ProjSrc\SrcChartEx\ChartOCX\ChartObject\VertScaleGroup.cpp

; 970  : }

  004a1	8b 4d f4	 mov	 ecx, DWORD PTR __$EHRec$[ebp]
  004a4	64 89 0d 00 00
	00 00		 mov	 DWORD PTR fs:0, ecx
  004ab	59		 pop	 ecx
  004ac	5f		 pop	 edi
  004ad	5e		 pop	 esi
  004ae	5b		 pop	 ebx
  004af	8b e5		 mov	 esp, ebp
  004b1	5d		 pop	 ebp
  004b2	c3		 ret	 0
_TEXT	ENDS
;	COMDAT text$x
text$x	SEGMENT
__unwindfunclet$?CalculateDisplayDataMinMax@CVertScaleGroup@@QAEXXZ$1:
  00000	8d 4d f0	 lea	 ecx, DWORD PTR _strGraphName$14[ebp]
  00003	ff 25 00 00 00
	00		 jmp	 DWORD PTR __imp_??1?$CStringT@DV?$StrTraitMFC_DLL@DV?$ChTraitsCRT@D@ATL@@@@@ATL@@QAE@XZ
__unwindfunclet$?CalculateDisplayDataMinMax@CVertScaleGroup@@QAEXXZ$2:
  00009	8d 4d cc	 lea	 ecx, DWORD PTR $T7[ebp]
  0000c	ff 25 00 00 00
	00		 jmp	 DWORD PTR __imp_??1?$CStringT@DV?$StrTraitMFC_DLL@DV?$ChTraitsCRT@D@ATL@@@@@ATL@@QAE@XZ
__unwindfunclet$?CalculateDisplayDataMinMax@CVertScaleGroup@@QAEXXZ$3:
  00012	8d 4d dc	 lea	 ecx, DWORD PTR $T13[ebp]
  00015	ff 25 00 00 00
	00		 jmp	 DWORD PTR __imp_??1?$CStringT@DV?$StrTraitMFC_DLL@DV?$ChTraitsCRT@D@ATL@@@@@ATL@@QAE@XZ
__unwindfunclet$?CalculateDisplayDataMinMax@CVertScaleGroup@@QAEXXZ$4:
  0001b	8d 4d dc	 lea	 ecx, DWORD PTR $T12[ebp]
  0001e	ff 25 00 00 00
	00		 jmp	 DWORD PTR __imp_??1?$CStringT@DV?$StrTraitMFC_DLL@DV?$ChTraitsCRT@D@ATL@@@@@ATL@@QAE@XZ
__unwindfunclet$?CalculateDisplayDataMinMax@CVertScaleGroup@@QAEXXZ$0:
  00024	8d 4d f0	 lea	 ecx, DWORD PTR _strType$15[ebp]
  00027	ff 25 00 00 00
	00		 jmp	 DWORD PTR __imp_??1?$CStringT@DV?$StrTraitMFC_DLL@DV?$ChTraitsCRT@D@ATL@@@@@ATL@@QAE@XZ
  0002d	cc		 int	 3
  0002e	cc		 int	 3
  0002f	cc		 int	 3
  00030	cc		 int	 3
  00031	cc		 int	 3
__ehhandler$?CalculateDisplayDataMinMax@CVertScaleGroup@@QAEXXZ:
  00032	90		 npad	 1
  00033	90		 npad	 1
  00034	8b 54 24 08	 mov	 edx, DWORD PTR [esp+8]
  00038	8d 42 0c	 lea	 eax, DWORD PTR [edx+12]
  0003b	8b 8a 30 ff ff
	ff		 mov	 ecx, DWORD PTR [edx-208]
  00041	33 c8		 xor	 ecx, eax
  00043	e8 00 00 00 00	 call	 @__security_check_cookie@4
  00048	b8 00 00 00 00	 mov	 eax, OFFSET __ehfuncinfo$?CalculateDisplayDataMinMax@CVertScaleGroup@@QAEXXZ
  0004d	e9 00 00 00 00	 jmp	 ___CxxFrameHandler3
text$x	ENDS
?CalculateDisplayDataMinMax@CVertScaleGroup@@QAEXXZ ENDP ; CVertScaleGroup::CalculateDisplayDataMinMax
; Function compile flags: /Ogtp
; File D:\git\src\IBK\IBK_DRFN\ProjSrc\SrcChartEx\ChartOCX\ChartObject\VertScaleGroup.cpp
; File C:\Program Files (x86)\Microsoft Visual Studio\2019\Community\VC\Tools\MSVC\14.29.30133\atlmfc\include\afxcoll.inl
; File D:\git\src\IBK\IBK_DRFN\ProjSrc\SrcChartEx\ChartOCX\ChartObject\VertScaleGroup.cpp
;	COMDAT ?CalculateAllGraphs@CVertScaleGroup@@QAE_NABV?$CList@V?$CStringT@DV?$StrTraitMFC_DLL@DV?$ChTraitsCRT@D@ATL@@@@@ATL@@V12@@@W4CALCULATETYPE@CCalculateBaseData@@_N@Z
_TEXT	SEGMENT
_packetNameList$ = 8					; size = 4
_eCalType$ = 12						; size = 4
_bIsHeadGraph$ = 16					; size = 1
?CalculateAllGraphs@CVertScaleGroup@@QAE_NABV?$CList@V?$CStringT@DV?$StrTraitMFC_DLL@DV?$ChTraitsCRT@D@ATL@@@@@ATL@@V12@@@W4CALCULATETYPE@CCalculateBaseData@@_N@Z PROC ; CVertScaleGroup::CalculateAllGraphs, COMDAT
; _this$ = ecx

; 861  : {

  00000	55		 push	 ebp
  00001	8b ec		 mov	 ebp, esp
  00003	53		 push	 ebx
  00004	56		 push	 esi

; 862  : 	bool bResult = false;
; 863  : 	POSITION pos = m_GraphList.GetHeadPosition();

  00005	8b 71 7c	 mov	 esi, DWORD PTR [ecx+124]
  00008	32 db		 xor	 bl, bl
  0000a	57		 push	 edi

; 864  : 	while(pos != NULL)

  0000b	85 f6		 test	 esi, esi
  0000d	74 30		 je	 SHORT $LN20@CalculateA
  0000f	8a 7d 10	 mov	 bh, BYTE PTR _bIsHeadGraph$[ebp]
$LL2@CalculateA:

; 865  : 	{
; 866  : 		CGraphImp* pGraph = m_GraphList.GetNext(pos);

  00012	8b 7e 08	 mov	 edi, DWORD PTR [esi+8]

; 868  : 		if(!pGraph->IsExistencePacketName(packetNameList))

  00015	8b cf		 mov	 ecx, edi
  00017	ff 75 08	 push	 DWORD PTR _packetNameList$[ebp]
; File C:\Program Files (x86)\Microsoft Visual Studio\2019\Community\VC\Tools\MSVC\14.29.30133\atlmfc\include\afxcoll.inl

; 432  : 		rPosition = (POSITION) pNode->pNext;

  0001a	8b 36		 mov	 esi, DWORD PTR [esi]
; File D:\git\src\IBK\IBK_DRFN\ProjSrc\SrcChartEx\ChartOCX\ChartObject\VertScaleGroup.cpp

; 868  : 		if(!pGraph->IsExistencePacketName(packetNameList))

  0001c	e8 00 00 00 00	 call	 ?IsExistencePacketName@CGraphImp@@QBE_NABV?$CList@V?$CStringT@DV?$StrTraitMFC_DLL@DV?$ChTraitsCRT@D@ATL@@@@@ATL@@V12@@@@Z ; CGraphImp::IsExistencePacketName
  00021	84 c0		 test	 al, al
  00023	74 16		 je	 SHORT $LN5@CalculateA

; 869  : 			continue;
; 870  : 
; 871  : 		pGraph->CalculateGraph(eCalType, true, false, false);

  00025	6a 00		 push	 0
  00027	6a 00		 push	 0
  00029	6a 01		 push	 1
  0002b	ff 75 0c	 push	 DWORD PTR _eCalType$[ebp]
  0002e	8b cf		 mov	 ecx, edi
  00030	e8 00 00 00 00	 call	 ?CalculateGraph@CGraphImp@@QAE_NW4CALCULATETYPE@CCalculateBaseData@@_N11@Z ; CGraphImp::CalculateGraph

; 872  : 
; 873  : 		bResult = true;

  00035	b3 01		 mov	 bl, 1

; 874  : 		if(bIsHeadGraph)

  00037	84 ff		 test	 bh, bh
  00039	75 0d		 jne	 SHORT $LN17@CalculateA
$LN5@CalculateA:

; 864  : 	while(pos != NULL)

  0003b	85 f6		 test	 esi, esi
  0003d	75 d3		 jne	 SHORT $LL2@CalculateA
$LN20@CalculateA:
  0003f	5f		 pop	 edi

; 875  : 			return true;
; 876  : 	}
; 877  : 
; 878  : 	return bResult;
; 879  : }

  00040	5e		 pop	 esi
  00041	8a c3		 mov	 al, bl
  00043	5b		 pop	 ebx
  00044	5d		 pop	 ebp
  00045	c2 0c 00	 ret	 12			; 0000000cH
$LN17@CalculateA:
  00048	5f		 pop	 edi
  00049	5e		 pop	 esi
  0004a	b0 01		 mov	 al, 1
  0004c	5b		 pop	 ebx
  0004d	5d		 pop	 ebp
  0004e	c2 0c 00	 ret	 12			; 0000000cH
?CalculateAllGraphs@CVertScaleGroup@@QAE_NABV?$CList@V?$CStringT@DV?$StrTraitMFC_DLL@DV?$ChTraitsCRT@D@ATL@@@@@ATL@@V12@@@W4CALCULATETYPE@CCalculateBaseData@@_N@Z ENDP ; CVertScaleGroup::CalculateAllGraphs
_TEXT	ENDS
; Function compile flags: /Ogtp
; File D:\git\src\IBK\IBK_DRFN\ProjSrc\SrcChartEx\ChartOCX\ChartObject\VertScaleGroup.cpp
; File C:\Program Files (x86)\Microsoft Visual Studio\2019\Community\VC\Tools\MSVC\14.29.30133\atlmfc\include\afxcoll.inl
; File D:\git\src\IBK\IBK_DRFN\ProjSrc\SrcChartEx\ChartOCX\ChartObject\VertScaleGroup.cpp
;	COMDAT ?CalculateAllGraphs@CVertScaleGroup@@QAEXW4CALCULATETYPE@CCalculateBaseData@@@Z
_TEXT	SEGMENT
_eCalType$ = 8						; size = 4
?CalculateAllGraphs@CVertScaleGroup@@QAEXW4CALCULATETYPE@CCalculateBaseData@@@Z PROC ; CVertScaleGroup::CalculateAllGraphs, COMDAT
; _this$ = ecx

; 848  : {

  00000	55		 push	 ebp
  00001	8b ec		 mov	 ebp, esp
  00003	53		 push	 ebx
  00004	8b d9		 mov	 ebx, ecx
  00006	56		 push	 esi

; 849  : 	POSITION pos = m_GraphList.GetHeadPosition();

  00007	8b 73 7c	 mov	 esi, DWORD PTR [ebx+124]

; 850  : 	while(pos != NULL)

  0000a	85 f6		 test	 esi, esi
  0000c	74 1a		 je	 SHORT $LN3@CalculateA
  0000e	57		 push	 edi
  0000f	8b 7d 08	 mov	 edi, DWORD PTR _eCalType$[ebp]
$LL2@CalculateA:

; 854  : 		pGraph->CalculateGraph(eCalType, false, false, true);

  00012	8b 4e 08	 mov	 ecx, DWORD PTR [esi+8]
; File C:\Program Files (x86)\Microsoft Visual Studio\2019\Community\VC\Tools\MSVC\14.29.30133\atlmfc\include\afxcoll.inl

; 432  : 		rPosition = (POSITION) pNode->pNext;

  00015	8b 36		 mov	 esi, DWORD PTR [esi]
; File D:\git\src\IBK\IBK_DRFN\ProjSrc\SrcChartEx\ChartOCX\ChartObject\VertScaleGroup.cpp

; 854  : 		pGraph->CalculateGraph(eCalType, false, false, true);

  00017	6a 01		 push	 1
  00019	6a 00		 push	 0
  0001b	6a 00		 push	 0
  0001d	57		 push	 edi
  0001e	e8 00 00 00 00	 call	 ?CalculateGraph@CGraphImp@@QAE_NW4CALCULATETYPE@CCalculateBaseData@@_N11@Z ; CGraphImp::CalculateGraph
  00023	85 f6		 test	 esi, esi
  00025	75 eb		 jne	 SHORT $LL2@CalculateA
  00027	5f		 pop	 edi
$LN3@CalculateA:

; 855  : 	}
; 856  : 
; 857  : 	CalculateDisplayDataMinMax();

  00028	8b cb		 mov	 ecx, ebx
  0002a	e8 00 00 00 00	 call	 ?CalculateDisplayDataMinMax@CVertScaleGroup@@QAEXXZ ; CVertScaleGroup::CalculateDisplayDataMinMax
  0002f	5e		 pop	 esi
  00030	5b		 pop	 ebx

; 858  : }

  00031	5d		 pop	 ebp
  00032	c2 04 00	 ret	 4
?CalculateAllGraphs@CVertScaleGroup@@QAEXW4CALCULATETYPE@CCalculateBaseData@@@Z ENDP ; CVertScaleGroup::CalculateAllGraphs
_TEXT	ENDS
; Function compile flags: /Ogtp
; File D:\git\src\IBK\IBK_DRFN\ProjSrc\SrcChartEx\ChartOCX\ChartObject\VertScaleGroup.cpp
; File C:\Program Files (x86)\Microsoft Visual Studio\2019\Community\VC\Tools\MSVC\14.29.30133\atlmfc\include\afxcoll.inl
; File D:\git\src\IBK\IBK_DRFN\ProjSrc\SrcChartEx\ChartOCX\ChartObject\VertScaleGroup.cpp
;	COMDAT ?Initialize_Packet@CVertScaleGroup@@QAE_NABV?$CStringT@DV?$StrTraitMFC_DLL@DV?$ChTraitsCRT@D@ATL@@@@@ATL@@_N@Z
_TEXT	SEGMENT
_strPacketName$ = 8					; size = 4
_bIsCalculate$ = 12					; size = 1
?Initialize_Packet@CVertScaleGroup@@QAE_NABV?$CStringT@DV?$StrTraitMFC_DLL@DV?$ChTraitsCRT@D@ATL@@@@@ATL@@_N@Z PROC ; CVertScaleGroup::Initialize_Packet, COMDAT
; _this$ = ecx

; 832  : {

  00000	55		 push	 ebp
  00001	8b ec		 mov	 ebp, esp
  00003	53		 push	 ebx
  00004	56		 push	 esi

; 833  : 	bool bResult = false;
; 834  : 	POSITION pos = m_GraphList.GetHeadPosition();

  00005	8b 71 7c	 mov	 esi, DWORD PTR [ecx+124]
  00008	32 db		 xor	 bl, bl

; 835  : 	while(pos != NULL){

  0000a	85 f6		 test	 esi, esi
  0000c	74 26		 je	 SHORT $LN17@Initialize
  0000e	57		 push	 edi
  0000f	90		 npad	 1
$LL2@Initialize:

; 836  : 		CGraphImp* pGraph = m_GraphList.GetNext(pos);

  00010	8b 7e 08	 mov	 edi, DWORD PTR [esi+8]

; 838  : 		if(pGraph->IsExistencePacketName(strPacketName)){

  00013	8b cf		 mov	 ecx, edi
  00015	ff 75 08	 push	 DWORD PTR _strPacketName$[ebp]
; File C:\Program Files (x86)\Microsoft Visual Studio\2019\Community\VC\Tools\MSVC\14.29.30133\atlmfc\include\afxcoll.inl

; 432  : 		rPosition = (POSITION) pNode->pNext;

  00018	8b 36		 mov	 esi, DWORD PTR [esi]
; File D:\git\src\IBK\IBK_DRFN\ProjSrc\SrcChartEx\ChartOCX\ChartObject\VertScaleGroup.cpp

; 838  : 		if(pGraph->IsExistencePacketName(strPacketName)){

  0001a	e8 00 00 00 00	 call	 ?IsExistencePacketName@CGraphImp@@QBE_NABV?$CStringT@DV?$StrTraitMFC_DLL@DV?$ChTraitsCRT@D@ATL@@@@@ATL@@@Z ; CGraphImp::IsExistencePacketName
  0001f	84 c0		 test	 al, al
  00021	74 0c		 je	 SHORT $LN4@Initialize

; 839  : 			pGraph->Initialize_AllPackets(bIsCalculate);

  00023	ff 75 0c	 push	 DWORD PTR _bIsCalculate$[ebp]
  00026	8b cf		 mov	 ecx, edi
  00028	e8 00 00 00 00	 call	 ?Initialize_AllPackets@CGraphImp@@QAEX_N@Z ; CGraphImp::Initialize_AllPackets

; 840  : 			bResult = true;

  0002d	b3 01		 mov	 bl, 1
$LN4@Initialize:

; 835  : 	while(pos != NULL){

  0002f	85 f6		 test	 esi, esi
  00031	75 dd		 jne	 SHORT $LL2@Initialize

; 841  : 		}
; 842  : 	}
; 843  : 	return bResult;

  00033	5f		 pop	 edi
$LN17@Initialize:
  00034	5e		 pop	 esi

; 844  : }

  00035	8a c3		 mov	 al, bl
  00037	5b		 pop	 ebx
  00038	5d		 pop	 ebp
  00039	c2 08 00	 ret	 8
?Initialize_Packet@CVertScaleGroup@@QAE_NABV?$CStringT@DV?$StrTraitMFC_DLL@DV?$ChTraitsCRT@D@ATL@@@@@ATL@@_N@Z ENDP ; CVertScaleGroup::Initialize_Packet
_TEXT	ENDS
; Function compile flags: /Ogtp
; File D:\git\src\IBK\IBK_DRFN\ProjSrc\SrcChartEx\ChartOCX\ChartObject\VertScaleGroup.cpp
; File C:\Program Files (x86)\Microsoft Visual Studio\2019\Community\VC\Tools\MSVC\14.29.30133\atlmfc\include\afxcoll.inl
; File D:\git\src\IBK\IBK_DRFN\ProjSrc\SrcChartEx\ChartOCX\ChartObject\VertScaleGroup.cpp
;	COMDAT ?Initialize_AllPackets@CVertScaleGroup@@QAEX_N@Z
_TEXT	SEGMENT
_bIsCalculate$ = 8					; size = 1
?Initialize_AllPackets@CVertScaleGroup@@QAEX_N@Z PROC	; CVertScaleGroup::Initialize_AllPackets, COMDAT
; _this$ = ecx

; 821  : {

  00000	55		 push	 ebp
  00001	8b ec		 mov	 ebp, esp
  00003	56		 push	 esi

; 822  : 	POSITION pos = m_GraphList.GetHeadPosition();

  00004	8b 71 7c	 mov	 esi, DWORD PTR [ecx+124]

; 823  : 	while(pos != NULL){

  00007	85 f6		 test	 esi, esi
  00009	74 15		 je	 SHORT $LN3@Initialize
  0000b	57		 push	 edi
  0000c	8b 7d 08	 mov	 edi, DWORD PTR _bIsCalculate$[ebp]
  0000f	90		 npad	 1
$LL2@Initialize:

; 826  : 		pGraph->Initialize_AllPackets(bIsCalculate);

  00010	8b 4e 08	 mov	 ecx, DWORD PTR [esi+8]
; File C:\Program Files (x86)\Microsoft Visual Studio\2019\Community\VC\Tools\MSVC\14.29.30133\atlmfc\include\afxcoll.inl

; 432  : 		rPosition = (POSITION) pNode->pNext;

  00013	8b 36		 mov	 esi, DWORD PTR [esi]
; File D:\git\src\IBK\IBK_DRFN\ProjSrc\SrcChartEx\ChartOCX\ChartObject\VertScaleGroup.cpp

; 826  : 		pGraph->Initialize_AllPackets(bIsCalculate);

  00015	57		 push	 edi
  00016	e8 00 00 00 00	 call	 ?Initialize_AllPackets@CGraphImp@@QAEX_N@Z ; CGraphImp::Initialize_AllPackets
  0001b	85 f6		 test	 esi, esi
  0001d	75 f1		 jne	 SHORT $LL2@Initialize
  0001f	5f		 pop	 edi
$LN3@Initialize:
  00020	5e		 pop	 esi

; 827  : 	}
; 828  : }

  00021	5d		 pop	 ebp
  00022	c2 04 00	 ret	 4
?Initialize_AllPackets@CVertScaleGroup@@QAEX_N@Z ENDP	; CVertScaleGroup::Initialize_AllPackets
_TEXT	ENDS
; Function compile flags: /Ogtp
; File D:\git\src\IBK\IBK_DRFN\ProjSrc\SrcChartEx\ChartOCX\ChartObject\VertScaleGroup.cpp
; File C:\Program Files (x86)\Microsoft Visual Studio\2019\Community\VC\Tools\MSVC\14.29.30133\atlmfc\include\afxcoll.inl
; File D:\git\src\IBK\IBK_DRFN\ProjSrc\SrcChartEx\ChartOCX\ChartObject\VertScaleGroup.cpp
;	COMDAT ?Initialize_IndicatorInfo@CVertScaleGroup@@QAEX_N@Z
_TEXT	SEGMENT
_bIsNULL$ = 8						; size = 1
?Initialize_IndicatorInfo@CVertScaleGroup@@QAEX_N@Z PROC ; CVertScaleGroup::Initialize_IndicatorInfo, COMDAT
; _this$ = ecx

; 810  : {

  00000	55		 push	 ebp
  00001	8b ec		 mov	 ebp, esp
  00003	56		 push	 esi

; 811  : 	POSITION pos = m_GraphList.GetHeadPosition();

  00004	8b 71 7c	 mov	 esi, DWORD PTR [ecx+124]

; 812  : 	while(pos != NULL){

  00007	85 f6		 test	 esi, esi
  00009	74 15		 je	 SHORT $LN3@Initialize
  0000b	57		 push	 edi
  0000c	8b 7d 08	 mov	 edi, DWORD PTR _bIsNULL$[ebp]
  0000f	90		 npad	 1
$LL2@Initialize:

; 815  : 		pGraph->Initialize_IndicatorInfo(bIsNULL);

  00010	8b 4e 08	 mov	 ecx, DWORD PTR [esi+8]
; File C:\Program Files (x86)\Microsoft Visual Studio\2019\Community\VC\Tools\MSVC\14.29.30133\atlmfc\include\afxcoll.inl

; 432  : 		rPosition = (POSITION) pNode->pNext;

  00013	8b 36		 mov	 esi, DWORD PTR [esi]
; File D:\git\src\IBK\IBK_DRFN\ProjSrc\SrcChartEx\ChartOCX\ChartObject\VertScaleGroup.cpp

; 815  : 		pGraph->Initialize_IndicatorInfo(bIsNULL);

  00015	57		 push	 edi
  00016	e8 00 00 00 00	 call	 ?Initialize_IndicatorInfo@CGraphImp@@QAEX_N@Z ; CGraphImp::Initialize_IndicatorInfo
  0001b	85 f6		 test	 esi, esi
  0001d	75 f1		 jne	 SHORT $LL2@Initialize
  0001f	5f		 pop	 edi
$LN3@Initialize:
  00020	5e		 pop	 esi

; 816  : 	}
; 817  : }

  00021	5d		 pop	 ebp
  00022	c2 04 00	 ret	 4
?Initialize_IndicatorInfo@CVertScaleGroup@@QAEX_N@Z ENDP ; CVertScaleGroup::Initialize_IndicatorInfo
_TEXT	ENDS
; Function compile flags: /Ogtp
; File D:\git\src\IBK\IBK_DRFN\ProjSrc\SrcChartEx\ChartOCX\ChartObject\VertScaleGroup.cpp
;	COMDAT ?SetSubGraphHiding@CVertScaleGroup@@QAE_NABV?$CStringT@DV?$StrTraitMFC_DLL@DV?$ChTraitsCRT@D@ATL@@@@@ATL@@H_N@Z
_TEXT	SEGMENT
_strGraphName$ = 8					; size = 4
_nSubGraphIndex$ = 12					; size = 4
_bIsHiding$ = 16					; size = 1
?SetSubGraphHiding@CVertScaleGroup@@QAE_NABV?$CStringT@DV?$StrTraitMFC_DLL@DV?$ChTraitsCRT@D@ATL@@@@@ATL@@H_N@Z PROC ; CVertScaleGroup::SetSubGraphHiding, COMDAT
; _this$ = ecx

; 794  : {

  00000	55		 push	 ebp
  00001	8b ec		 mov	 ebp, esp
  00003	56		 push	 esi

; 795  : 	CGraphImp* pGraph = FindGraph(strGraphName);

  00004	ff 75 08	 push	 DWORD PTR _strGraphName$[ebp]
  00007	8b f1		 mov	 esi, ecx
  00009	e8 00 00 00 00	 call	 ?FindGraph@CVertScaleGroup@@QBEPAVCGraphImp@@ABV?$CStringT@DV?$StrTraitMFC_DLL@DV?$ChTraitsCRT@D@ATL@@@@@ATL@@@Z ; CVertScaleGroup::FindGraph

; 796  : 	if(pGraph == NULL)

  0000e	85 c0		 test	 eax, eax
  00010	74 26		 je	 SHORT $LN5@SetSubGrap

; 797  : 		return false;
; 798  : 
; 799  : 	if(!pGraph->GetSubGraphList().SetHiding(nSubGraphIndex, bIsHiding))

  00012	ff 75 10	 push	 DWORD PTR _bIsHiding$[ebp]
  00015	8b c8		 mov	 ecx, eax
  00017	ff 75 0c	 push	 DWORD PTR _nSubGraphIndex$[ebp]
  0001a	e8 00 00 00 00	 call	 ?GetSubGraphList@CGraphImp@@QAEAAVCSubGraphList@@XZ ; CGraphImp::GetSubGraphList
  0001f	8b c8		 mov	 ecx, eax
  00021	e8 00 00 00 00	 call	 ?SetHiding@CSubGraphList@@QAE_NH_N@Z ; CSubGraphList::SetHiding
  00026	84 c0		 test	 al, al
  00028	74 0e		 je	 SHORT $LN5@SetSubGrap

; 801  : 
; 802  : 	/// Min/Max   .
; 803  : 	CalculateDisplayDataMinMax();

  0002a	8b ce		 mov	 ecx, esi
  0002c	e8 00 00 00 00	 call	 ?CalculateDisplayDataMinMax@CVertScaleGroup@@QAEXXZ ; CVertScaleGroup::CalculateDisplayDataMinMax

; 804  : 	return true;

  00031	b0 01		 mov	 al, 1
  00033	5e		 pop	 esi

; 805  : }

  00034	5d		 pop	 ebp
  00035	c2 0c 00	 ret	 12			; 0000000cH
$LN5@SetSubGrap:

; 800  : 		return false;

  00038	32 c0		 xor	 al, al
  0003a	5e		 pop	 esi

; 805  : }

  0003b	5d		 pop	 ebp
  0003c	c2 0c 00	 ret	 12			; 0000000cH
?SetSubGraphHiding@CVertScaleGroup@@QAE_NABV?$CStringT@DV?$StrTraitMFC_DLL@DV?$ChTraitsCRT@D@ATL@@@@@ATL@@H_N@Z ENDP ; CVertScaleGroup::SetSubGraphHiding
_TEXT	ENDS
; Function compile flags: /Ogtp
; File D:\git\src\IBK\IBK_DRFN\ProjSrc\SrcChartEx\ChartOCX\ChartObject\VertScaleGroup.cpp
; File C:\Program Files (x86)\Microsoft Visual Studio\2019\Community\VC\Tools\MSVC\14.29.30133\atlmfc\include\afxcoll.inl
; File D:\git\src\IBK\IBK_DRFN\ProjSrc\SrcChartEx\ChartOCX\ChartObject\VertScaleGroup.cpp
;	COMDAT ?SetSubGraphHiding@CVertScaleGroup@@QAE_NABV?$CStringT@DV?$StrTraitMFC_DLL@DV?$ChTraitsCRT@D@ATL@@@@@ATL@@_N@Z
_TEXT	SEGMENT
_this$1$ = -4						; size = 4
_subGraphTitle$ = 8					; size = 4
_bIsHiding$ = 12					; size = 1
?SetSubGraphHiding@CVertScaleGroup@@QAE_NABV?$CStringT@DV?$StrTraitMFC_DLL@DV?$ChTraitsCRT@D@ATL@@@@@ATL@@_N@Z PROC ; CVertScaleGroup::SetSubGraphHiding, COMDAT
; _this$ = ecx

; 772  : {

  00000	55		 push	 ebp
  00001	8b ec		 mov	 ebp, esp
  00003	51		 push	 ecx
  00004	8b c1		 mov	 eax, ecx
  00006	53		 push	 ebx
  00007	56		 push	 esi

; 773  : 	bool bResult = false;

  00008	32 db		 xor	 bl, bl
  0000a	89 45 fc	 mov	 DWORD PTR _this$1$[ebp], eax

; 774  : 	POSITION pos = m_GraphList.GetHeadPosition();

  0000d	8b 70 7c	 mov	 esi, DWORD PTR [eax+124]

; 775  : 	while(pos != NULL){

  00010	85 f6		 test	 esi, esi
  00012	74 38		 je	 SHORT $LN19@SetSubGrap
  00014	57		 push	 edi
$LL2@SetSubGrap:

; 778  : 		if(pGraph->GetSubGraphList().SetHiding(subGraphTitle, bIsHiding))

  00015	ff 75 0c	 push	 DWORD PTR _bIsHiding$[ebp]
  00018	8b 7e 08	 mov	 edi, DWORD PTR [esi+8]
  0001b	8b cf		 mov	 ecx, edi
  0001d	ff 75 08	 push	 DWORD PTR _subGraphTitle$[ebp]
; File C:\Program Files (x86)\Microsoft Visual Studio\2019\Community\VC\Tools\MSVC\14.29.30133\atlmfc\include\afxcoll.inl

; 432  : 		rPosition = (POSITION) pNode->pNext;

  00020	8b 36		 mov	 esi, DWORD PTR [esi]
; File D:\git\src\IBK\IBK_DRFN\ProjSrc\SrcChartEx\ChartOCX\ChartObject\VertScaleGroup.cpp

; 778  : 		if(pGraph->GetSubGraphList().SetHiding(subGraphTitle, bIsHiding))

  00022	e8 00 00 00 00	 call	 ?GetSubGraphList@CGraphImp@@QAEAAVCSubGraphList@@XZ ; CGraphImp::GetSubGraphList
  00027	8b c8		 mov	 ecx, eax
  00029	e8 00 00 00 00	 call	 ?SetHiding@CSubGraphList@@QAE_NABV?$CStringT@DV?$StrTraitMFC_DLL@DV?$ChTraitsCRT@D@ATL@@@@@ATL@@_N@Z ; CSubGraphList::SetHiding
  0002e	84 c0		 test	 al, al
  00030	74 09		 je	 SHORT $LN4@SetSubGrap

; 779  : 		{
; 780  : 			bResult = true;
; 781  : 
; 782  : 			// (2007/3/2 - Seung-Won, Bae) Update Indicator Info.
; 783  : 			pGraph->ChangeIndicatorInfoFromGraphData();

  00032	8b cf		 mov	 ecx, edi
  00034	b3 01		 mov	 bl, 1
  00036	e8 00 00 00 00	 call	 ?ChangeIndicatorInfoFromGraphData@CGraphImp@@QAE_NXZ ; CGraphImp::ChangeIndicatorInfoFromGraphData
$LN4@SetSubGrap:

; 775  : 	while(pos != NULL){

  0003b	85 f6		 test	 esi, esi
  0003d	75 d6		 jne	 SHORT $LL2@SetSubGrap

; 784  : 		}
; 785  : 	}
; 786  : 
; 787  : 	// Min/Max   .
; 788  : 	if(bResult)

  0003f	5f		 pop	 edi
  00040	84 db		 test	 bl, bl
  00042	74 08		 je	 SHORT $LN19@SetSubGrap

; 789  : 		CalculateDisplayDataMinMax();

  00044	8b 4d fc	 mov	 ecx, DWORD PTR _this$1$[ebp]
  00047	e8 00 00 00 00	 call	 ?CalculateDisplayDataMinMax@CVertScaleGroup@@QAEXXZ ; CVertScaleGroup::CalculateDisplayDataMinMax
$LN19@SetSubGrap:

; 790  : 	return bResult;
; 791  : }

  0004c	5e		 pop	 esi
  0004d	8a c3		 mov	 al, bl
  0004f	5b		 pop	 ebx
  00050	8b e5		 mov	 esp, ebp
  00052	5d		 pop	 ebp
  00053	c2 08 00	 ret	 8
?SetSubGraphHiding@CVertScaleGroup@@QAE_NABV?$CStringT@DV?$StrTraitMFC_DLL@DV?$ChTraitsCRT@D@ATL@@@@@ATL@@_N@Z ENDP ; CVertScaleGroup::SetSubGraphHiding
_TEXT	ENDS
; Function compile flags: /Ogtp
; File D:\git\src\IBK\IBK_DRFN\ProjSrc\SrcChartEx\ChartOCX\ChartObject\VertScaleGroup.cpp
; File C:\Program Files (x86)\Microsoft Visual Studio\2019\Community\VC\Tools\MSVC\14.29.30133\atlmfc\include\afxcoll.inl
; File D:\git\src\IBK\IBK_DRFN\ProjSrc\SrcChartEx\ChartOCX\ChartObject\VertScaleGroup.cpp
;	COMDAT ?SetAllGraphsHiding@CVertScaleGroup@@QAEX_N@Z
_TEXT	SEGMENT
_this$1$ = -4						; size = 4
_bIsHiding$ = 8						; size = 1
?SetAllGraphsHiding@CVertScaleGroup@@QAEX_N@Z PROC	; CVertScaleGroup::SetAllGraphsHiding, COMDAT
; _this$ = ecx

; 756  : {

  00000	55		 push	 ebp
  00001	8b ec		 mov	 ebp, esp
  00003	51		 push	 ecx
  00004	53		 push	 ebx
  00005	56		 push	 esi
  00006	57		 push	 edi
  00007	8b f9		 mov	 edi, ecx

; 757  : 	bool bResult = false;

  00009	32 db		 xor	 bl, bl
  0000b	89 7d fc	 mov	 DWORD PTR _this$1$[ebp], edi

; 758  : 	POSITION pos = m_GraphList.GetHeadPosition();

  0000e	8b 77 7c	 mov	 esi, DWORD PTR [edi+124]

; 759  : 	while(pos != NULL){

  00011	85 f6		 test	 esi, esi
  00013	74 39		 je	 SHORT $LN5@SetAllGrap
  00015	bf 01 00 00 00	 mov	 edi, 1
  0001a	66 0f 1f 44 00
	00		 npad	 6
$LL2@SetAllGrap:

; 762  : 		if(pGraph->GetSubGraphList().SetAllHiding(bIsHiding))

  00020	8b 4e 08	 mov	 ecx, DWORD PTR [esi+8]
  00023	ff 75 08	 push	 DWORD PTR _bIsHiding$[ebp]
; File C:\Program Files (x86)\Microsoft Visual Studio\2019\Community\VC\Tools\MSVC\14.29.30133\atlmfc\include\afxcoll.inl

; 432  : 		rPosition = (POSITION) pNode->pNext;

  00026	8b 36		 mov	 esi, DWORD PTR [esi]
; File D:\git\src\IBK\IBK_DRFN\ProjSrc\SrcChartEx\ChartOCX\ChartObject\VertScaleGroup.cpp

; 762  : 		if(pGraph->GetSubGraphList().SetAllHiding(bIsHiding))

  00028	e8 00 00 00 00	 call	 ?GetSubGraphList@CGraphImp@@QAEAAVCSubGraphList@@XZ ; CGraphImp::GetSubGraphList
  0002d	8b c8		 mov	 ecx, eax
  0002f	e8 00 00 00 00	 call	 ?SetAllHiding@CSubGraphList@@QAE_N_N@Z ; CSubGraphList::SetAllHiding
  00034	84 c0		 test	 al, al
  00036	0f b6 db	 movzx	 ebx, bl
  00039	0f 45 df	 cmovne	 ebx, edi
  0003c	85 f6		 test	 esi, esi
  0003e	75 e0		 jne	 SHORT $LL2@SetAllGrap

; 763  : 			bResult = true;
; 764  : 	}
; 765  : 
; 766  : 	// Min/Max   .
; 767  : 	if(bResult)

  00040	8b 7d fc	 mov	 edi, DWORD PTR _this$1$[ebp]
  00043	84 db		 test	 bl, bl
  00045	74 07		 je	 SHORT $LN5@SetAllGrap

; 768  : 		CalculateDisplayDataMinMax();

  00047	8b cf		 mov	 ecx, edi
  00049	e8 00 00 00 00	 call	 ?CalculateDisplayDataMinMax@CVertScaleGroup@@QAEXXZ ; CVertScaleGroup::CalculateDisplayDataMinMax
$LN5@SetAllGrap:

; 769  : }

  0004e	5f		 pop	 edi
  0004f	5e		 pop	 esi
  00050	5b		 pop	 ebx
  00051	8b e5		 mov	 esp, ebp
  00053	5d		 pop	 ebp
  00054	c2 04 00	 ret	 4
?SetAllGraphsHiding@CVertScaleGroup@@QAEX_N@Z ENDP	; CVertScaleGroup::SetAllGraphsHiding
_TEXT	ENDS
; Function compile flags: /Ogtp
; File D:\git\src\IBK\IBK_DRFN\ProjSrc\SrcChartEx\ChartOCX\ChartObject\VertScaleGroup.cpp
;	COMDAT ?SetVerticalScale@CVertScaleGroup@@QAEXABVCVerticalScale@@@Z
_TEXT	SEGMENT
_vertScale$ = 8						; size = 4
?SetVerticalScale@CVertScaleGroup@@QAEXABVCVerticalScale@@@Z PROC ; CVertScaleGroup::SetVerticalScale, COMDAT
; _this$ = ecx

; 750  : {

  00000	55		 push	 ebp
  00001	8b ec		 mov	 ebp, esp

; 751  : 	m_vertScale = vertScale;

  00003	83 c1 10	 add	 ecx, 16			; 00000010H

; 752  : }

  00006	5d		 pop	 ebp

; 751  : 	m_vertScale = vertScale;

  00007	ff 25 00 00 00
	00		 jmp	 DWORD PTR __imp_??4CVerticalScale@@QAEAAV0@ABV0@@Z
?SetVerticalScale@CVertScaleGroup@@QAEXABVCVerticalScale@@@Z ENDP ; CVertScaleGroup::SetVerticalScale
_TEXT	ENDS
; Function compile flags: /Ogtp
; File D:\git\src\IBK\IBK_DRFN\ProjSrc\SrcChartEx\ChartOCX\ChartObject\VertScaleGroup.cpp
; File C:\Program Files (x86)\Microsoft Visual Studio\2019\Community\VC\Tools\MSVC\14.29.30133\atlmfc\include\afxcoll.inl
; File D:\git\src\IBK\IBK_DRFN\ProjSrc\SrcChartEx\ChartOCX\ChartObject\VertScaleGroup.cpp
;	COMDAT ?SetMainBlockBaseData@CVertScaleGroup@@QAEXPAVCMainBlockBaseData@@@Z
_TEXT	SEGMENT
_pMainBlockBaseData$ = 8				; size = 4
?SetMainBlockBaseData@CVertScaleGroup@@QAEXPAVCMainBlockBaseData@@@Z PROC ; CVertScaleGroup::SetMainBlockBaseData, COMDAT
; _this$ = ecx

; 737  : {

  00000	55		 push	 ebp
  00001	8b ec		 mov	 ebp, esp

; 738  : 	m_pMainBlockBaseData = pMainBlockBaseData;

  00003	8b 45 08	 mov	 eax, DWORD PTR _pMainBlockBaseData$[ebp]
  00006	56		 push	 esi
  00007	57		 push	 edi
  00008	8b f9		 mov	 edi, ecx

; 739  : 
; 740  : 	POSITION pos = m_GraphList.GetHeadPosition();

  0000a	8b 77 7c	 mov	 esi, DWORD PTR [edi+124]
  0000d	89 47 08	 mov	 DWORD PTR [edi+8], eax

; 741  : 	while(pos != NULL){

  00010	85 f6		 test	 esi, esi
  00012	74 11		 je	 SHORT $LN3@SetMainBlo
$LL2@SetMainBlo:

; 744  : 		pGraph->SetMainBlockBaseData(m_pMainBlockBaseData);

  00014	8b 4e 08	 mov	 ecx, DWORD PTR [esi+8]
  00017	ff 77 08	 push	 DWORD PTR [edi+8]
; File C:\Program Files (x86)\Microsoft Visual Studio\2019\Community\VC\Tools\MSVC\14.29.30133\atlmfc\include\afxcoll.inl

; 432  : 		rPosition = (POSITION) pNode->pNext;

  0001a	8b 36		 mov	 esi, DWORD PTR [esi]
; File D:\git\src\IBK\IBK_DRFN\ProjSrc\SrcChartEx\ChartOCX\ChartObject\VertScaleGroup.cpp

; 744  : 		pGraph->SetMainBlockBaseData(m_pMainBlockBaseData);

  0001c	e8 00 00 00 00	 call	 ?SetMainBlockBaseData@CGraphImp@@QAEXPAVCMainBlockBaseData@@@Z ; CGraphImp::SetMainBlockBaseData
  00021	85 f6		 test	 esi, esi
  00023	75 ef		 jne	 SHORT $LL2@SetMainBlo
$LN3@SetMainBlo:
  00025	5f		 pop	 edi

; 745  : 	}
; 746  : }

  00026	5e		 pop	 esi
  00027	5d		 pop	 ebp
  00028	c2 04 00	 ret	 4
?SetMainBlockBaseData@CVertScaleGroup@@QAEXPAVCMainBlockBaseData@@@Z ENDP ; CVertScaleGroup::SetMainBlockBaseData
_TEXT	ENDS
; Function compile flags: /Ogtp
; File D:\git\src\IBK\IBK_DRFN\ProjSrc\SrcChartEx\ChartOCX\ChartObject\VertScaleGroup.cpp
;	COMDAT ?SetVertScaleGroupList@CVertScaleGroup@@QAEXPAVCVertScaleGroupList@@@Z
_TEXT	SEGMENT
_pVertScaleGroupList$ = 8				; size = 4
?SetVertScaleGroupList@CVertScaleGroup@@QAEXPAVCVertScaleGroupList@@@Z PROC ; CVertScaleGroup::SetVertScaleGroupList, COMDAT
; _this$ = ecx

; 732  : {

  00000	55		 push	 ebp
  00001	8b ec		 mov	 ebp, esp

; 733  : 	m_pVertScaleGroupList = pVertScaleGroupList;

  00003	8b 45 08	 mov	 eax, DWORD PTR _pVertScaleGroupList$[ebp]
  00006	89 41 0c	 mov	 DWORD PTR [ecx+12], eax

; 734  : }

  00009	5d		 pop	 ebp
  0000a	c2 04 00	 ret	 4
?SetVertScaleGroupList@CVertScaleGroup@@QAEXPAVCVertScaleGroupList@@@Z ENDP ; CVertScaleGroup::SetVertScaleGroupList
_TEXT	ENDS
; Function compile flags: /Ogtp
; File D:\git\src\IBK\IBK_DRFN\ProjSrc\SrcChartEx\ChartOCX\ChartObject\VertScaleGroup.cpp
; File C:\Program Files (x86)\Microsoft Visual Studio\2019\Community\VC\Tools\MSVC\14.29.30133\atlmfc\include\afxcoll.inl
; File D:\git\src\IBK\IBK_DRFN\ProjSrc\SrcChartEx\ChartOCX\ChartObject\VertScaleGroup.cpp
;	COMDAT ?ChangeAllMapDefaultIndicatorInfo@CVertScaleGroup@@QAE_NPAVCIndicatorList@@@Z
_TEXT	SEGMENT
_pIndicatorList$ = 8					; size = 4
?ChangeAllMapDefaultIndicatorInfo@CVertScaleGroup@@QAE_NPAVCIndicatorList@@@Z PROC ; CVertScaleGroup::ChangeAllMapDefaultIndicatorInfo, COMDAT
; _this$ = ecx

; 716  : {

  00000	55		 push	 ebp
  00001	8b ec		 mov	 ebp, esp
  00003	53		 push	 ebx
  00004	56		 push	 esi

; 717  : 	bool bResult = false;
; 718  : 	POSITION pos = m_GraphList.GetHeadPosition();

  00005	8b 71 7c	 mov	 esi, DWORD PTR [ecx+124]
  00008	32 db		 xor	 bl, bl

; 719  : 	while(pos != NULL)

  0000a	85 f6		 test	 esi, esi
  0000c	74 21		 je	 SHORT $LN17@ChangeAllM
  0000e	57		 push	 edi
  0000f	8b 7d 08	 mov	 edi, DWORD PTR _pIndicatorList$[ebp]
$LL2@ChangeAllM:

; 723  : 		if(pGraph->ChangeMapDefaultIndicatorInfo( pIndicatorList))

  00012	8b 4e 08	 mov	 ecx, DWORD PTR [esi+8]
; File C:\Program Files (x86)\Microsoft Visual Studio\2019\Community\VC\Tools\MSVC\14.29.30133\atlmfc\include\afxcoll.inl

; 432  : 		rPosition = (POSITION) pNode->pNext;

  00015	8b 36		 mov	 esi, DWORD PTR [esi]
; File D:\git\src\IBK\IBK_DRFN\ProjSrc\SrcChartEx\ChartOCX\ChartObject\VertScaleGroup.cpp

; 723  : 		if(pGraph->ChangeMapDefaultIndicatorInfo( pIndicatorList))

  00017	57		 push	 edi
  00018	e8 00 00 00 00	 call	 ?ChangeMapDefaultIndicatorInfo@CGraphImp@@QAE_NPAVCIndicatorList@@@Z ; CGraphImp::ChangeMapDefaultIndicatorInfo
  0001d	84 c0		 test	 al, al
  0001f	0f b6 db	 movzx	 ebx, bl
  00022	b8 01 00 00 00	 mov	 eax, 1
  00027	0f 45 d8	 cmovne	 ebx, eax
  0002a	85 f6		 test	 esi, esi
  0002c	75 e4		 jne	 SHORT $LL2@ChangeAllM

; 724  : 			bResult = true;
; 725  : 	}
; 726  : 	return bResult;

  0002e	5f		 pop	 edi
$LN17@ChangeAllM:
  0002f	5e		 pop	 esi

; 727  : }

  00030	8a c3		 mov	 al, bl
  00032	5b		 pop	 ebx
  00033	5d		 pop	 ebp
  00034	c2 04 00	 ret	 4
?ChangeAllMapDefaultIndicatorInfo@CVertScaleGroup@@QAE_NPAVCIndicatorList@@@Z ENDP ; CVertScaleGroup::ChangeAllMapDefaultIndicatorInfo
_TEXT	ENDS
; Function compile flags: /Ogtp
; File D:\git\src\IBK\IBK_DRFN\ProjSrc\SrcChartEx\ChartOCX\ChartObject\VertScaleGroup.cpp
; File C:\Program Files (x86)\Microsoft Visual Studio\2019\Community\VC\Tools\MSVC\14.29.30133\atlmfc\include\afxcoll.inl
; File D:\git\src\IBK\IBK_DRFN\ProjSrc\SrcChartEx\ChartOCX\ChartObject\VertScaleGroup.cpp
;	COMDAT ?ChangeAllGraphDataFromIndicatorInfo@CVertScaleGroup@@QAEHH@Z
_TEXT	SEGMENT
_p_bWithCalculate$ = 8					; size = 4
?ChangeAllGraphDataFromIndicatorInfo@CVertScaleGroup@@QAEHH@Z PROC ; CVertScaleGroup::ChangeAllGraphDataFromIndicatorInfo, COMDAT
; _this$ = ecx

; 702  : {

  00000	55		 push	 ebp
  00001	8b ec		 mov	 ebp, esp
  00003	56		 push	 esi
  00004	57		 push	 edi

; 703  : 	BOOL bResult = FALSE;
; 704  : 	POSITION pos = m_GraphList.GetHeadPosition();

  00005	8b 79 7c	 mov	 edi, DWORD PTR [ecx+124]
  00008	33 f6		 xor	 esi, esi

; 705  : 	while(pos != NULL){

  0000a	85 ff		 test	 edi, edi
  0000c	74 26		 je	 SHORT $LN17@ChangeAllG
  0000e	53		 push	 ebx
  0000f	8b 5d 08	 mov	 ebx, DWORD PTR _p_bWithCalculate$[ebp]
$LL2@ChangeAllG:

; 706  : 		CGraphImp* pGraph = m_GraphList.GetNext(pos);

  00012	8b 4f 08	 mov	 ecx, DWORD PTR [edi+8]

; 708  : 		if(pGraph->ChangeGraphDataFromIndicatorInfo( p_bWithCalculate ? true : false))

  00015	85 db		 test	 ebx, ebx
; File C:\Program Files (x86)\Microsoft Visual Studio\2019\Community\VC\Tools\MSVC\14.29.30133\atlmfc\include\afxcoll.inl

; 432  : 		rPosition = (POSITION) pNode->pNext;

  00017	8b 3f		 mov	 edi, DWORD PTR [edi]
; File D:\git\src\IBK\IBK_DRFN\ProjSrc\SrcChartEx\ChartOCX\ChartObject\VertScaleGroup.cpp

; 708  : 		if(pGraph->ChangeGraphDataFromIndicatorInfo( p_bWithCalculate ? true : false))

  00019	0f 95 c0	 setne	 al
  0001c	0f b6 c0	 movzx	 eax, al
  0001f	50		 push	 eax
  00020	e8 00 00 00 00	 call	 ?ChangeGraphDataFromIndicatorInfo@CGraphImp@@QAE_N_N@Z ; CGraphImp::ChangeGraphDataFromIndicatorInfo
  00025	84 c0		 test	 al, al
  00027	b8 01 00 00 00	 mov	 eax, 1
  0002c	0f 45 f0	 cmovne	 esi, eax
  0002f	85 ff		 test	 edi, edi
  00031	75 df		 jne	 SHORT $LL2@ChangeAllG

; 709  : 			bResult = TRUE;
; 710  : 	}
; 711  : 	return bResult;

  00033	5b		 pop	 ebx
$LN17@ChangeAllG:
  00034	5f		 pop	 edi

; 712  : }

  00035	8b c6		 mov	 eax, esi
  00037	5e		 pop	 esi
  00038	5d		 pop	 ebp
  00039	c2 04 00	 ret	 4
?ChangeAllGraphDataFromIndicatorInfo@CVertScaleGroup@@QAEHH@Z ENDP ; CVertScaleGroup::ChangeAllGraphDataFromIndicatorInfo
_TEXT	ENDS
; Function compile flags: /Ogtp
; File D:\git\src\IBK\IBK_DRFN\ProjSrc\SrcChartEx\ChartOCX\ChartObject\VertScaleGroup.cpp
; File C:\Program Files (x86)\Microsoft Visual Studio\2019\Community\VC\Tools\MSVC\14.29.30133\atlmfc\include\afxcoll.inl
; File D:\git\src\IBK\IBK_DRFN\ProjSrc\SrcChartEx\ChartOCX\ChartObject\VertScaleGroup.cpp
;	COMDAT ?ChangeAllIndicatorInfoFromGraphData@CVertScaleGroup@@QAE_NXZ
_TEXT	SEGMENT
?ChangeAllIndicatorInfoFromGraphData@CVertScaleGroup@@QAE_NXZ PROC ; CVertScaleGroup::ChangeAllIndicatorInfoFromGraphData, COMDAT
; _this$ = ecx

; 689  : {

  00000	53		 push	 ebx
  00001	56		 push	 esi

; 690  : 	bool bResult = false;
; 691  : 	POSITION pos = m_GraphList.GetHeadPosition();

  00002	8b 71 7c	 mov	 esi, DWORD PTR [ecx+124]
  00005	32 db		 xor	 bl, bl

; 692  : 	while(pos != NULL){

  00007	85 f6		 test	 esi, esi
  00009	74 1d		 je	 SHORT $LN17@ChangeAllI
  0000b	57		 push	 edi
  0000c	bf 01 00 00 00	 mov	 edi, 1
$LL2@ChangeAllI:

; 695  : 		if(pGraph->ChangeIndicatorInfoFromGraphData())

  00011	8b 4e 08	 mov	 ecx, DWORD PTR [esi+8]
; File C:\Program Files (x86)\Microsoft Visual Studio\2019\Community\VC\Tools\MSVC\14.29.30133\atlmfc\include\afxcoll.inl

; 432  : 		rPosition = (POSITION) pNode->pNext;

  00014	8b 36		 mov	 esi, DWORD PTR [esi]
; File D:\git\src\IBK\IBK_DRFN\ProjSrc\SrcChartEx\ChartOCX\ChartObject\VertScaleGroup.cpp

; 695  : 		if(pGraph->ChangeIndicatorInfoFromGraphData())

  00016	e8 00 00 00 00	 call	 ?ChangeIndicatorInfoFromGraphData@CGraphImp@@QAE_NXZ ; CGraphImp::ChangeIndicatorInfoFromGraphData
  0001b	84 c0		 test	 al, al
  0001d	0f b6 db	 movzx	 ebx, bl
  00020	0f 45 df	 cmovne	 ebx, edi
  00023	85 f6		 test	 esi, esi
  00025	75 ea		 jne	 SHORT $LL2@ChangeAllI

; 696  : 			bResult = true;
; 697  : 	}
; 698  : 	return bResult;

  00027	5f		 pop	 edi
$LN17@ChangeAllI:
  00028	5e		 pop	 esi

; 699  : }

  00029	8a c3		 mov	 al, bl
  0002b	5b		 pop	 ebx
  0002c	c3		 ret	 0
?ChangeAllIndicatorInfoFromGraphData@CVertScaleGroup@@QAE_NXZ ENDP ; CVertScaleGroup::ChangeAllIndicatorInfoFromGraphData
_TEXT	ENDS
; Function compile flags: /Ogtp
; File D:\git\src\IBK\IBK_DRFN\ProjSrc\SrcChartEx\ChartOCX\ChartObject\VertScaleGroup.cpp
; File C:\Program Files (x86)\Windows Kits\10\Include\10.0.22000.0\ucrt\string.h
; File D:\git\src\IBK\IBK_DRFN\ProjSrc\SrcChartEx\ChartOCX\ChartObject\VertScaleGroup.cpp
; File C:\Program Files (x86)\Windows Kits\10\Include\10.0.22000.0\ucrt\string.h
; File D:\git\src\IBK\IBK_DRFN\ProjSrc\SrcChartEx\ChartOCX\ChartObject\VertScaleGroup.cpp
; File C:\Program Files (x86)\Windows Kits\10\Include\10.0.22000.0\ucrt\string.h
; File D:\git\src\IBK\IBK_DRFN\ProjSrc\SrcChartEx\ChartOCX\ChartObject\VertScaleGroup.cpp
; File C:\Program Files (x86)\Windows Kits\10\Include\10.0.22000.0\ucrt\string.h
; File D:\git\src\IBK\IBK_DRFN\ProjSrc\SrcChartEx\ChartOCX\ChartObject\VertScaleGroup.cpp
; File C:\Program Files (x86)\Windows Kits\10\Include\10.0.22000.0\ucrt\string.h
; File D:\git\src\IBK\IBK_DRFN\ProjSrc\SrcChartEx\ChartOCX\ChartObject\VertScaleGroup.cpp
; File C:\Program Files (x86)\Windows Kits\10\Include\10.0.22000.0\ucrt\string.h
; File D:\git\src\IBK\IBK_DRFN\ProjSrc\SrcChartEx\ChartOCX\ChartObject\VertScaleGroup.cpp
; File C:\Program Files (x86)\Microsoft Visual Studio\2019\Community\VC\Tools\MSVC\14.29.30133\atlmfc\include\afxcoll.inl
; File D:\git\src\IBK\IBK_DRFN\ProjSrc\SrcChartEx\ChartOCX\ChartObject\VertScaleGroup.cpp
; File C:\Program Files (x86)\Microsoft Visual Studio\2019\Community\VC\Tools\MSVC\14.29.30133\atlmfc\include\afxtempl.h
; File D:\git\src\IBK\IBK_DRFN\ProjSrc\SrcChartEx\ChartOCX\ChartObject\VertScaleGroup.cpp
; File C:\Program Files (x86)\Windows Kits\10\Include\10.0.22000.0\ucrt\string.h
; File D:\git\src\IBK\IBK_DRFN\ProjSrc\SrcChartEx\ChartOCX\ChartObject\VertScaleGroup.cpp
; File C:\Program Files (x86)\Windows Kits\10\Include\10.0.22000.0\ucrt\string.h
; File D:\git\src\IBK\IBK_DRFN\ProjSrc\SrcChartEx\ChartOCX\ChartObject\VertScaleGroup.cpp
;	COMDAT ?ModifyGraphDataInVertScaleGroup@CVertScaleGroup@@QAEXPAD_N@Z
_TEXT	SEGMENT
_pos$1$ = -4						; size = 4
_pNewGraph$1$ = -4					; size = 4
_szGraphData$1$ = -4					; size = 4
_posGraph$1$ = 8					; size = 4
_p_szVertScaleGroup$ = 8				; size = 4
_szGraphData$1$ = 12					; size = 4
_doesMaintainOldScale$ = 12				; size = 1
_cNextGraphData$1$ = 15					; size = 1
?ModifyGraphDataInVertScaleGroup@CVertScaleGroup@@QAEXPAD_N@Z PROC ; CVertScaleGroup::ModifyGraphDataInVertScaleGroup, COMDAT
; _this$ = ecx

; 638  : {

  00000	55		 push	 ebp
  00001	8b ec		 mov	 ebp, esp
  00003	51		 push	 ecx
  00004	53		 push	 ebx
  00005	56		 push	 esi

; 639  : 	if( !p_szVertScaleGroup) return;

  00006	8b 75 08	 mov	 esi, DWORD PTR _p_szVertScaleGroup$[ebp]
  00009	8b d9		 mov	 ebx, ecx
  0000b	85 f6		 test	 esi, esi
  0000d	0f 84 39 01 00
	00		 je	 $LN51@ModifyGrap

; 640  : 	if( !*p_szVertScaleGroup) return;

  00013	80 3e 00	 cmp	 BYTE PTR [esi], 0
  00016	0f 84 30 01 00
	00		 je	 $LN51@ModifyGrap

; 641  : 
; 642  : 	//  scale .
; 643  : 	if( !doesMaintainOldScale)

  0001c	80 7d 0c 00	 cmp	 BYTE PTR _doesMaintainOldScale$[ebp], 0
  00020	57		 push	 edi
  00021	75 30		 jne	 SHORT $LN7@ModifyGrap
; File C:\Program Files (x86)\Windows Kits\10\Include\10.0.22000.0\ucrt\string.h

; 520  :         return const_cast<char*>(strstr(static_cast<char const*>(_String), _SubString));

  00023	68 00 00 00 00	 push	 OFFSET ??_C@_02PCIJFNDE@?$AN?6@
  00028	56		 push	 esi
  00029	e8 00 00 00 00	 call	 _strstr
  0002e	83 c4 08	 add	 esp, 8
; File D:\git\src\IBK\IBK_DRFN\ProjSrc\SrcChartEx\ChartOCX\ChartObject\VertScaleGroup.cpp

; 645  : 		char *szGraphData = strstr( p_szVertScaleGroup, "\r\n");

  00031	89 45 0c	 mov	 DWORD PTR _szGraphData$1$[ebp], eax

; 646  : 		if( szGraphData)

  00034	85 c0		 test	 eax, eax
  00036	74 1b		 je	 SHORT $LN7@ModifyGrap

; 647  : 		{
; 648  : 			*szGraphData = '\0';

  00038	c6 00 00	 mov	 BYTE PTR [eax], 0

; 649  : 			m_vertScale.SetScaleData( p_szVertScaleGroup, m_pMainBlockBaseData->GetParent_Handle());

  0003b	8b 4b 08	 mov	 ecx, DWORD PTR [ebx+8]
  0003e	8b 7b 10	 mov	 edi, DWORD PTR [ebx+16]
  00041	e8 00 00 00 00	 call	 ?GetParent_Handle@CMainBlockBaseData@@QBEPAUHWND__@@XZ ; CMainBlockBaseData::GetParent_Handle
  00046	50		 push	 eax
  00047	56		 push	 esi
  00048	8d 4b 10	 lea	 ecx, DWORD PTR [ebx+16]
  0004b	ff 17		 call	 DWORD PTR [edi]

; 650  : 			*szGraphData = '\r';

  0004d	8b 45 0c	 mov	 eax, DWORD PTR _szGraphData$1$[ebp]
  00050	c6 00 0d	 mov	 BYTE PTR [eax], 13	; 0000000dH
$LN7@ModifyGrap:
; File C:\Program Files (x86)\Windows Kits\10\Include\10.0.22000.0\ucrt\string.h

; 520  :         return const_cast<char*>(strstr(static_cast<char const*>(_String), _SubString));

  00053	68 00 00 00 00	 push	 OFFSET ??_C@_08BHMMGBBH@Graph?$DL?$AN?6@
  00058	56		 push	 esi
; File D:\git\src\IBK\IBK_DRFN\ProjSrc\SrcChartEx\ChartOCX\ChartObject\VertScaleGroup.cpp

; 654  : 	char cNextGraphData = 0;

  00059	c6 45 0f 00	 mov	 BYTE PTR _cNextGraphData$1$[ebp], 0
; File C:\Program Files (x86)\Windows Kits\10\Include\10.0.22000.0\ucrt\string.h

; 520  :         return const_cast<char*>(strstr(static_cast<char const*>(_String), _SubString));

  0005d	e8 00 00 00 00	 call	 _strstr
; File D:\git\src\IBK\IBK_DRFN\ProjSrc\SrcChartEx\ChartOCX\ChartObject\VertScaleGroup.cpp

; 657  : 	POSITION posGraph = m_GraphList.GetHeadPosition();

  00062	8b 7b 7c	 mov	 edi, DWORD PTR [ebx+124]
; File C:\Program Files (x86)\Windows Kits\10\Include\10.0.22000.0\ucrt\string.h

; 520  :         return const_cast<char*>(strstr(static_cast<char const*>(_String), _SubString));

  00065	83 c4 08	 add	 esp, 8
; File D:\git\src\IBK\IBK_DRFN\ProjSrc\SrcChartEx\ChartOCX\ChartObject\VertScaleGroup.cpp

; 655  : 	char *szGraphData = strstr( p_szVertScaleGroup, "Graph;\r\n");

  00068	89 45 fc	 mov	 DWORD PTR _szGraphData$1$[ebp], eax

; 658  : 	while( szGraphData)

  0006b	85 c0		 test	 eax, eax
  0006d	0f 84 d8 00 00
	00		 je	 $LN53@ModifyGrap
$LL2@ModifyGrap:
; File C:\Program Files (x86)\Windows Kits\10\Include\10.0.22000.0\ucrt\string.h

; 520  :         return const_cast<char*>(strstr(static_cast<char const*>(_String), _SubString));

  00073	68 00 00 00 00	 push	 OFFSET ??_C@_0M@DGHFHKEI@GraphEnd?$DL?$AN?6@
  00078	50		 push	 eax
  00079	e8 00 00 00 00	 call	 _strstr
; File D:\git\src\IBK\IBK_DRFN\ProjSrc\SrcChartEx\ChartOCX\ChartObject\VertScaleGroup.cpp

; 660  : 		szNextGraphData = strstr( szGraphData, "GraphEnd;\r\n");

  0007e	8b f0		 mov	 esi, eax
; File C:\Program Files (x86)\Windows Kits\10\Include\10.0.22000.0\ucrt\string.h

; 520  :         return const_cast<char*>(strstr(static_cast<char const*>(_String), _SubString));

  00080	83 c4 08	 add	 esp, 8
; File D:\git\src\IBK\IBK_DRFN\ProjSrc\SrcChartEx\ChartOCX\ChartObject\VertScaleGroup.cpp

; 661  : 		if( szNextGraphData)

  00083	85 f6		 test	 esi, esi
  00085	74 0c		 je	 SHORT $LN8@ModifyGrap

; 662  : 		{
; 663  : 			szNextGraphData += 11;		// "GraphEnd;\r\n"
; 664  : 			cNextGraphData = *szNextGraphData;

  00087	8a 46 0b	 mov	 al, BYTE PTR [esi+11]
  0008a	83 c6 0b	 add	 esi, 11			; 0000000bH
  0008d	88 45 0f	 mov	 BYTE PTR _cNextGraphData$1$[ebp], al

; 665  : 			*szNextGraphData = '\0';

  00090	c6 06 00	 mov	 BYTE PTR [esi], 0
$LN8@ModifyGrap:

; 669  : 		if( posGraph) pGraph = m_GraphList.GetNext( posGraph);

  00093	85 ff		 test	 edi, edi
  00095	0f 84 c5 00 00
	00		 je	 $LN10@ModifyGrap
; File C:\Program Files (x86)\Microsoft Visual Studio\2019\Community\VC\Tools\MSVC\14.29.30133\atlmfc\include\afxcoll.inl

; 428  : 	{ CNode* pNode = (CNode*) rPosition;

  0009b	8b c7		 mov	 eax, edi

; 429  : 		ASSERT(AfxIsValidAddress(pNode, sizeof(CNode)));
; 430  : 		if( pNode == NULL )
; 431  : 			AfxThrowInvalidArgException();
; 432  : 		rPosition = (POSITION) pNode->pNext;

  0009d	8b 3f		 mov	 edi, DWORD PTR [edi]
  0009f	89 7d 08	 mov	 DWORD PTR _posGraph$1$[ebp], edi
; File D:\git\src\IBK\IBK_DRFN\ProjSrc\SrcChartEx\ChartOCX\ChartObject\VertScaleGroup.cpp

; 669  : 		if( posGraph) pGraph = m_GraphList.GetNext( posGraph);

  000a2	8b 78 08	 mov	 edi, DWORD PTR [eax+8]

; 670  : 		if( pGraph) ModifyGraph( pGraph, szGraphData);

  000a5	85 ff		 test	 edi, edi
  000a7	0f 84 b3 00 00
	00		 je	 $LN10@ModifyGrap

; 1896 : 	CGraphImp* pNewGraph = MakeNewGraph( p_szGraphData);

  000ad	ff 75 fc	 push	 DWORD PTR _szGraphData$1$[ebp]
  000b0	8b cb		 mov	 ecx, ebx
  000b2	e8 00 00 00 00	 call	 ?MakeNewGraph@CVertScaleGroup@@AAEPAVCGraphImp@@PAD@Z ; CVertScaleGroup::MakeNewGraph
  000b7	89 45 fc	 mov	 DWORD PTR _pNewGraph$1$[ebp], eax

; 1897 : 	//     graph list .
; 1898 : 	if( !pNewGraph)

  000ba	85 c0		 test	 eax, eax
  000bc	0f 84 92 00 00
	00		 je	 $LN37@ModifyGrap

; 1883 : 	POSITION pos = m_GraphList.Find(pTargetGraph);

  000c2	6a 00		 push	 0
  000c4	8d 4b 78	 lea	 ecx, DWORD PTR [ebx+120]
  000c7	57		 push	 edi
  000c8	e8 00 00 00 00	 call	 ?Find@CObList@@QBEPAU__POSITION@@PAVCObject@@PAU2@@Z ; CObList::Find
; File C:\Program Files (x86)\Microsoft Visual Studio\2019\Community\VC\Tools\MSVC\14.29.30133\atlmfc\include\afxtempl.h

; 1914 : 		{ return BASE_CLASS::InsertBefore(position, newElement); }

  000cd	ff 75 fc	 push	 DWORD PTR _pNewGraph$1$[ebp]
  000d0	8d 4b 78	 lea	 ecx, DWORD PTR [ebx+120]
  000d3	50		 push	 eax
  000d4	e8 00 00 00 00	 call	 ?InsertBefore@CObList@@QAEPAU__POSITION@@PAU2@PAVCObject@@@Z ; CObList::InsertBefore
; File D:\git\src\IBK\IBK_DRFN\ProjSrc\SrcChartEx\ChartOCX\ChartObject\VertScaleGroup.cpp

; 1853 : 		bSamePacket = pSourceGraph->GetSubGraphList().IsExistenceSamePacketInGraph(pDeleteGraph);

  000d9	8b 4d fc	 mov	 ecx, DWORD PTR _pNewGraph$1$[ebp]
  000dc	57		 push	 edi
  000dd	e8 00 00 00 00	 call	 ?GetSubGraphList@CGraphImp@@QAEAAVCSubGraphList@@XZ ; CGraphImp::GetSubGraphList
  000e2	8b c8		 mov	 ecx, eax
  000e4	e8 00 00 00 00	 call	 ?IsExistenceSamePacketInGraph@CSubGraphList@@QBE_NPAVCGraphImp@@@Z ; CSubGraphList::IsExistenceSamePacketInGraph

; 1854 : 
; 1855 : 	if(bSamePacket)

  000e9	84 c0		 test	 al, al
  000eb	74 67		 je	 SHORT $LN37@ModifyGrap

; 1865 : 	POSITION pos = m_GraphList.Find(pGraph);

  000ed	6a 00		 push	 0
  000ef	57		 push	 edi
  000f0	8d 4b 78	 lea	 ecx, DWORD PTR [ebx+120]
  000f3	e8 00 00 00 00	 call	 ?Find@CObList@@QBEPAU__POSITION@@PAVCObject@@PAU2@@Z ; CObList::Find
  000f8	89 45 fc	 mov	 DWORD PTR _pos$1$[ebp], eax

; 1866 : 
; 1867 : 	// Y Scale    - ojtaso (20070807)
; 1868 : 	if(m_lpSelectedGraph == pGraph)

  000fb	39 bb 94 00 00
	00		 cmp	 DWORD PTR [ebx+148], edi
  00101	75 0a		 jne	 SHORT $LN41@ModifyGrap

; 1869 : 		m_lpSelectedGraph = NULL;

  00103	c7 83 94 00 00
	00 00 00 00 00	 mov	 DWORD PTR [ebx+148], 0
$LN41@ModifyGrap:

; 1870 : 
; 1871 : 	// (2007/2/16 - Seung-Won, Bae) Remove in list after Deleting the Object.
; 1872 : 	//		In Destructor, can be access the List.
; 1873 : 	CGraphImp::Delete(pGraph);

  0010d	57		 push	 edi
  0010e	e8 00 00 00 00	 call	 ?Delete@CGraphImp@@SAXPAV1@@Z ; CGraphImp::Delete

; 1874 : 	if(pos != NULL)

  00113	8b 45 fc	 mov	 eax, DWORD PTR _pos$1$[ebp]
  00116	83 c4 04	 add	 esp, 4
  00119	85 c0		 test	 eax, eax
  0011b	74 09		 je	 SHORT $LN52@ModifyGrap

; 1875 : 		m_GraphList.RemoveAt(pos);

  0011d	50		 push	 eax
  0011e	8d 4b 78	 lea	 ecx, DWORD PTR [ebx+120]
  00121	e8 00 00 00 00	 call	 ?RemoveAt@CObList@@QAEXPAU__POSITION@@@Z ; CObList::RemoveAt
$LN52@ModifyGrap:

; 675  : 		}
; 676  : 
; 677  : 		if( szNextGraphData)

  00126	8b 7d 08	 mov	 edi, DWORD PTR _posGraph$1$[ebp]
$LN11@ModifyGrap:
  00129	85 f6		 test	 esi, esi
  0012b	74 1e		 je	 SHORT $LN53@ModifyGrap

; 679  : 			*szNextGraphData = cNextGraphData;

  0012d	8a 45 0f	 mov	 al, BYTE PTR _cNextGraphData$1$[ebp]
; File C:\Program Files (x86)\Windows Kits\10\Include\10.0.22000.0\ucrt\string.h

; 520  :         return const_cast<char*>(strstr(static_cast<char const*>(_String), _SubString));

  00130	68 00 00 00 00	 push	 OFFSET ??_C@_08BHMMGBBH@Graph?$DL?$AN?6@
  00135	56		 push	 esi
; File D:\git\src\IBK\IBK_DRFN\ProjSrc\SrcChartEx\ChartOCX\ChartObject\VertScaleGroup.cpp

; 679  : 			*szNextGraphData = cNextGraphData;

  00136	88 06		 mov	 BYTE PTR [esi], al
; File C:\Program Files (x86)\Windows Kits\10\Include\10.0.22000.0\ucrt\string.h

; 520  :         return const_cast<char*>(strstr(static_cast<char const*>(_String), _SubString));

  00138	e8 00 00 00 00	 call	 _strstr
  0013d	83 c4 08	 add	 esp, 8
; File D:\git\src\IBK\IBK_DRFN\ProjSrc\SrcChartEx\ChartOCX\ChartObject\VertScaleGroup.cpp

; 680  : 			szGraphData = strstr( szNextGraphData, "Graph;\r\n");

  00140	89 45 fc	 mov	 DWORD PTR _szGraphData$1$[ebp], eax
  00143	85 c0		 test	 eax, eax
  00145	0f 85 28 ff ff
	ff		 jne	 $LL2@ModifyGrap
$LN53@ModifyGrap:
  0014b	5f		 pop	 edi
$LN51@ModifyGrap:
  0014c	5e		 pop	 esi

; 681  : 		}
; 682  : 		else szGraphData = NULL;
; 683  : 	}
; 684  : }

  0014d	5b		 pop	 ebx
  0014e	8b e5		 mov	 esp, ebp
  00150	5d		 pop	 ebp
  00151	c2 08 00	 ret	 8
$LN37@ModifyGrap:

; 1858 : 		DeleteGraphWithNotify(pDeleteGraph);

  00154	6a 01		 push	 1
  00156	57		 push	 edi
  00157	8b cb		 mov	 ecx, ebx
  00159	e8 00 00 00 00	 call	 ?DeleteGraphWithNotify@CVertScaleGroup@@QAE_NPAVCGraphImp@@_N@Z ; CVertScaleGroup::DeleteGraphWithNotify

; 670  : 		if( pGraph) ModifyGraph( pGraph, szGraphData);

  0015e	eb c6		 jmp	 SHORT $LN52@ModifyGrap
$LN10@ModifyGrap:

; 671  : 		else
; 672  : 		{
; 673  : 			posGraph = NULL;
; 674  : 			MakeGraph( szGraphData);

  00160	6a 01		 push	 1
  00162	ff 75 fc	 push	 DWORD PTR _szGraphData$1$[ebp]
  00165	8b cb		 mov	 ecx, ebx
  00167	33 ff		 xor	 edi, edi
  00169	e8 00 00 00 00	 call	 ?MakeGraph@CVertScaleGroup@@QAE_NPAD_N@Z ; CVertScaleGroup::MakeGraph

; 1874 : 	if(pos != NULL)

  0016e	eb b9		 jmp	 SHORT $LN11@ModifyGrap
?ModifyGraphDataInVertScaleGroup@CVertScaleGroup@@QAEXPAD_N@Z ENDP ; CVertScaleGroup::ModifyGraphDataInVertScaleGroup
_TEXT	ENDS
; Function compile flags: /Ogtp
; File D:\git\src\IBK\IBK_DRFN\ProjSrc\SrcChartEx\ChartOCX\ChartObject\VertScaleGroup.cpp
; File C:\Program Files (x86)\Microsoft Visual Studio\2019\Community\VC\Tools\MSVC\14.29.30133\atlmfc\include\afxtempl.h
; File C:\Program Files (x86)\Microsoft Visual Studio\2019\Community\VC\Tools\MSVC\14.29.30133\atlmfc\include\afxcoll.inl
; File C:\Program Files (x86)\Microsoft Visual Studio\2019\Community\VC\Tools\MSVC\14.29.30133\atlmfc\include\afxtempl.h
; File D:\git\src\IBK\IBK_DRFN\ProjSrc\SrcChartEx\ChartOCX\ChartObject\VertScaleGroup.cpp
;	COMDAT ?ChangeAllHeadSubGraphColor@CVertScaleGroup@@QBE_NABV?$CList@VCGraphColor@@AAV1@@@AAPAU__POSITION@@@Z
_TEXT	SEGMENT
_graphColorList$ = 8					; size = 4
_colorPos$ = 12						; size = 4
?ChangeAllHeadSubGraphColor@CVertScaleGroup@@QBE_NABV?$CList@VCGraphColor@@AAV1@@@AAPAU__POSITION@@@Z PROC ; CVertScaleGroup::ChangeAllHeadSubGraphColor, COMDAT
; _this$ = ecx

; 617  : {

  00000	55		 push	 ebp
  00001	8b ec		 mov	 ebp, esp
  00003	53		 push	 ebx
  00004	56		 push	 esi
  00005	57		 push	 edi

; 618  : 	if(colorPos == NULL)

  00006	8b 7d 0c	 mov	 edi, DWORD PTR _colorPos$[ebp]
  00009	83 3f 00	 cmp	 DWORD PTR [edi], 0
  0000c	75 08		 jne	 SHORT $LN4@ChangeAllH

; 619  : 		colorPos = graphColorList.GetHeadPosition();

  0000e	8b 45 08	 mov	 eax, DWORD PTR _graphColorList$[ebp]
  00011	8b 40 04	 mov	 eax, DWORD PTR [eax+4]
  00014	89 07		 mov	 DWORD PTR [edi], eax
$LN4@ChangeAllH:

; 620  : 
; 621  : 	bool bResult = false;
; 622  : 	POSITION pos = m_GraphList.GetHeadPosition();

  00016	8b 71 7c	 mov	 esi, DWORD PTR [ecx+124]
  00019	32 db		 xor	 bl, bl

; 623  : 	while(pos != NULL)

  0001b	85 f6		 test	 esi, esi
  0001d	74 2f		 je	 SHORT $LN20@ChangeAllH
  0001f	90		 npad	 1
$LL2@ChangeAllH:
; File C:\Program Files (x86)\Microsoft Visual Studio\2019\Community\VC\Tools\MSVC\14.29.30133\atlmfc\include\afxtempl.h

; 817  : 	{ CNode* pNode = (CNode*) rPosition;

  00020	8b 17		 mov	 edx, DWORD PTR [edi]

; 1898 : 		{ return (TYPE)BASE_CLASS::GetNext(rPosition); }

  00022	8b 4e 08	 mov	 ecx, DWORD PTR [esi+8]
; File C:\Program Files (x86)\Microsoft Visual Studio\2019\Community\VC\Tools\MSVC\14.29.30133\atlmfc\include\afxcoll.inl

; 439  : 		rPosition = (POSITION) pNode->pNext;

  00025	8b 36		 mov	 esi, DWORD PTR [esi]
; File C:\Program Files (x86)\Microsoft Visual Studio\2019\Community\VC\Tools\MSVC\14.29.30133\atlmfc\include\afxtempl.h

; 819  : 		rPosition = (POSITION) pNode->pNext;

  00027	8b 02		 mov	 eax, DWORD PTR [edx]
  00029	89 07		 mov	 DWORD PTR [edi], eax

; 820  : 		return pNode->data; }

  0002b	8d 42 08	 lea	 eax, DWORD PTR [edx+8]
; File D:\git\src\IBK\IBK_DRFN\ProjSrc\SrcChartEx\ChartOCX\ChartObject\VertScaleGroup.cpp

; 628  : 		if(pGraph->GetSubGraphList().SetSubGraphColor(0, graphColor))

  0002e	50		 push	 eax
  0002f	6a 00		 push	 0
  00031	e8 00 00 00 00	 call	 ?GetSubGraphList@CGraphImp@@QAEAAVCSubGraphList@@XZ ; CGraphImp::GetSubGraphList
  00036	8b c8		 mov	 ecx, eax
  00038	e8 00 00 00 00	 call	 ?SetSubGraphColor@CSubGraphList@@QAE_NHABVCGraphColor@@@Z ; CSubGraphList::SetSubGraphColor
  0003d	84 c0		 test	 al, al
  0003f	0f b6 db	 movzx	 ebx, bl
  00042	b8 01 00 00 00	 mov	 eax, 1
  00047	0f 45 d8	 cmovne	 ebx, eax
  0004a	85 f6		 test	 esi, esi
  0004c	75 d2		 jne	 SHORT $LL2@ChangeAllH
$LN20@ChangeAllH:
  0004e	5f		 pop	 edi

; 629  : 			bResult = true;
; 630  : 	}
; 631  : 
; 632  : 	return bResult;
; 633  : }

  0004f	5e		 pop	 esi
  00050	8a c3		 mov	 al, bl
  00052	5b		 pop	 ebx
  00053	5d		 pop	 ebp
  00054	c2 08 00	 ret	 8
?ChangeAllHeadSubGraphColor@CVertScaleGroup@@QBE_NABV?$CList@VCGraphColor@@AAV1@@@AAPAU__POSITION@@@Z ENDP ; CVertScaleGroup::ChangeAllHeadSubGraphColor
_TEXT	ENDS
; Function compile flags: /Ogtp
; File D:\git\src\IBK\IBK_DRFN\ProjSrc\SrcChartEx\ChartOCX\ChartObject\VertScaleGroup.cpp
; File C:\Program Files (x86)\Microsoft Visual Studio\2019\Community\VC\Tools\MSVC\14.29.30133\atlmfc\include\afxcoll.inl
; File D:\git\src\IBK\IBK_DRFN\ProjSrc\SrcChartEx\ChartOCX\ChartObject\VertScaleGroup.cpp
;	COMDAT ?ChangeSubGraphTitle@CVertScaleGroup@@QAE_NABV?$CStringT@DV?$StrTraitMFC_DLL@DV?$ChTraitsCRT@D@ATL@@@@@ATL@@0@Z
_TEXT	SEGMENT
_orgSubGraphTitle$ = 8					; size = 4
_changeSubGraphTitle$ = 12				; size = 4
?ChangeSubGraphTitle@CVertScaleGroup@@QAE_NABV?$CStringT@DV?$StrTraitMFC_DLL@DV?$ChTraitsCRT@D@ATL@@@@@ATL@@0@Z PROC ; CVertScaleGroup::ChangeSubGraphTitle, COMDAT
; _this$ = ecx

; 603  : {

  00000	55		 push	 ebp
  00001	8b ec		 mov	 ebp, esp
  00003	53		 push	 ebx
  00004	56		 push	 esi

; 604  : 	POSITION pos = m_GraphList.GetHeadPosition();

  00005	8b 71 7c	 mov	 esi, DWORD PTR [ecx+124]
  00008	57		 push	 edi

; 605  : 
; 606  : 	while(pos != NULL){

  00009	85 f6		 test	 esi, esi
  0000b	74 21		 je	 SHORT $LN3@ChangeSubG
  0000d	8b 7d 0c	 mov	 edi, DWORD PTR _changeSubGraphTitle$[ebp]
  00010	8b 5d 08	 mov	 ebx, DWORD PTR _orgSubGraphTitle$[ebp]
$LL2@ChangeSubG:

; 609  : 		if(pGraph->GetSubGraphList().SetTitle(orgSubGraphTitle, changeSubGraphTitle))

  00013	8b 4e 08	 mov	 ecx, DWORD PTR [esi+8]
; File C:\Program Files (x86)\Microsoft Visual Studio\2019\Community\VC\Tools\MSVC\14.29.30133\atlmfc\include\afxcoll.inl

; 432  : 		rPosition = (POSITION) pNode->pNext;

  00016	8b 36		 mov	 esi, DWORD PTR [esi]
; File D:\git\src\IBK\IBK_DRFN\ProjSrc\SrcChartEx\ChartOCX\ChartObject\VertScaleGroup.cpp

; 609  : 		if(pGraph->GetSubGraphList().SetTitle(orgSubGraphTitle, changeSubGraphTitle))

  00018	57		 push	 edi
  00019	53		 push	 ebx
  0001a	e8 00 00 00 00	 call	 ?GetSubGraphList@CGraphImp@@QAEAAVCSubGraphList@@XZ ; CGraphImp::GetSubGraphList
  0001f	8b c8		 mov	 ecx, eax
  00021	e8 00 00 00 00	 call	 ?SetTitle@CSubGraphList@@QAE_NABV?$CStringT@DV?$StrTraitMFC_DLL@DV?$ChTraitsCRT@D@ATL@@@@@ATL@@0@Z ; CSubGraphList::SetTitle
  00026	84 c0		 test	 al, al
  00028	75 0d		 jne	 SHORT $LN15@ChangeSubG

; 605  : 
; 606  : 	while(pos != NULL){

  0002a	85 f6		 test	 esi, esi
  0002c	75 e5		 jne	 SHORT $LL2@ChangeSubG
$LN3@ChangeSubG:
  0002e	5f		 pop	 edi

; 610  : 			return true;
; 611  : 	}
; 612  : 	return false;
; 613  : }

  0002f	5e		 pop	 esi
  00030	32 c0		 xor	 al, al
  00032	5b		 pop	 ebx
  00033	5d		 pop	 ebp
  00034	c2 08 00	 ret	 8
$LN15@ChangeSubG:
  00037	5f		 pop	 edi
  00038	5e		 pop	 esi
  00039	b0 01		 mov	 al, 1
  0003b	5b		 pop	 ebx
  0003c	5d		 pop	 ebp
  0003d	c2 08 00	 ret	 8
?ChangeSubGraphTitle@CVertScaleGroup@@QAE_NABV?$CStringT@DV?$StrTraitMFC_DLL@DV?$ChTraitsCRT@D@ATL@@@@@ATL@@0@Z ENDP ; CVertScaleGroup::ChangeSubGraphTitle
_TEXT	ENDS
; Function compile flags: /Ogtp
; File D:\git\src\IBK\IBK_DRFN\ProjSrc\SrcChartEx\ChartOCX\ChartObject\VertScaleGroup.cpp
;	COMDAT ?ChangeSubGraphPenThickness@CVertScaleGroup@@QAE_NABV?$CStringT@DV?$StrTraitMFC_DLL@DV?$ChTraitsCRT@D@ATL@@@@@ATL@@HABVCPenThickness@@@Z
_TEXT	SEGMENT
$T1 = -8						; size = 4
_pos$ = -4						; size = 4
_targetGraphName$ = 8					; size = 4
_nSubGraphIndex$ = 12					; size = 4
_penThickness$ = 16					; size = 4
?ChangeSubGraphPenThickness@CVertScaleGroup@@QAE_NABV?$CStringT@DV?$StrTraitMFC_DLL@DV?$ChTraitsCRT@D@ATL@@@@@ATL@@HABVCPenThickness@@@Z PROC ; CVertScaleGroup::ChangeSubGraphPenThickness, COMDAT
; _this$ = ecx

; 581  : {

  00000	55		 push	 ebp
  00001	8b ec		 mov	 ebp, esp
  00003	83 ec 08	 sub	 esp, 8
  00006	53		 push	 ebx
  00007	56		 push	 esi
  00008	57		 push	 edi
  00009	8b f9		 mov	 edi, ecx

; 582  : 	POSITION pos = m_GraphList.GetHeadPosition();

  0000b	8b 47 7c	 mov	 eax, DWORD PTR [edi+124]
  0000e	89 45 fc	 mov	 DWORD PTR _pos$[ebp], eax
$LL2@ChangeSubG:

; 583  : 	while(pos != NULL){

  00011	85 c0		 test	 eax, eax
  00013	74 7d		 je	 SHORT $LN3@ChangeSubG

; 584  : 		CGraphImp* pGraph = m_GraphList.GetNext(pos);

  00015	8d 45 fc	 lea	 eax, DWORD PTR _pos$[ebp]
  00018	50		 push	 eax
  00019	8d 4f 78	 lea	 ecx, DWORD PTR [edi+120]
  0001c	e8 00 00 00 00	 call	 ?GetNext@?$_CTypedPtrList@VCObList@@PAVCGraphImp@@@@QAEAAPAVCGraphImp@@AAPAU__POSITION@@@Z ; _CTypedPtrList<CObList,CGraphImp *>::GetNext
  00021	8b 30		 mov	 esi, DWORD PTR [eax]

; 585  : 		assert(pGraph != NULL);
; 586  : 		if(pGraph->GetGraphData().GetGraphName() != targetGraphName)

  00023	8d 45 f8	 lea	 eax, DWORD PTR $T1[ebp]
  00026	50		 push	 eax
  00027	8b ce		 mov	 ecx, esi
  00029	e8 00 00 00 00	 call	 ?GetGraphData@CGraphImp@@QAEAAVCGraphData@@XZ ; CGraphImp::GetGraphData
  0002e	8b c8		 mov	 ecx, eax
  00030	ff 15 00 00 00
	00		 call	 DWORD PTR __imp_?GetGraphName@CGraphData@@QBE?AV?$CStringT@DV?$StrTraitMFC_DLL@DV?$ChTraitsCRT@D@ATL@@@@@ATL@@XZ
  00036	ff 75 08	 push	 DWORD PTR _targetGraphName$[ebp]
  00039	50		 push	 eax
  0003a	e8 00 00 00 00	 call	 ??9ATL@@YA_NABV?$CStringT@DV?$StrTraitMFC_DLL@DV?$ChTraitsCRT@D@ATL@@@@@0@0@Z ; ATL::operator!=
  0003f	83 c4 08	 add	 esp, 8
  00042	8d 4d f8	 lea	 ecx, DWORD PTR $T1[ebp]
  00045	8a d8		 mov	 bl, al
  00047	ff 15 00 00 00
	00		 call	 DWORD PTR __imp_??1?$CStringT@DV?$StrTraitMFC_DLL@DV?$ChTraitsCRT@D@ATL@@@@@ATL@@QAE@XZ
  0004d	84 db		 test	 bl, bl
  0004f	74 05		 je	 SHORT $LN16@ChangeSubG
  00051	8b 45 fc	 mov	 eax, DWORD PTR _pos$[ebp]
  00054	eb bb		 jmp	 SHORT $LL2@ChangeSubG
$LN16@ChangeSubG:

; 587  : 			continue;
; 588  : 
; 589  : 		//  subGraph .
; 590  : 		if(nSubGraphIndex == -1)

  00056	8b 45 0c	 mov	 eax, DWORD PTR _nSubGraphIndex$[ebp]
  00059	8b ce		 mov	 ecx, esi
  0005b	ff 75 10	 push	 DWORD PTR _penThickness$[ebp]
  0005e	83 f8 ff	 cmp	 eax, -1
  00061	75 17		 jne	 SHORT $LN5@ChangeSubG

; 591  : 			pGraph->GetSubGraphList().SetAllSubGraphPenThickness(penThickness);

  00063	e8 00 00 00 00	 call	 ?GetSubGraphList@CGraphImp@@QAEAAVCSubGraphList@@XZ ; CGraphImp::GetSubGraphList
  00068	8b c8		 mov	 ecx, eax
  0006a	e8 00 00 00 00	 call	 ?SetAllSubGraphPenThickness@CSubGraphList@@QAE_NABVCPenThickness@@@Z ; CSubGraphList::SetAllSubGraphPenThickness
  0006f	5f		 pop	 edi

; 594  : 		
; 595  : 		return true;
; 596  : 	}
; 597  : 
; 598  : 	return false;
; 599  : }

  00070	5e		 pop	 esi
  00071	b0 01		 mov	 al, 1
  00073	5b		 pop	 ebx
  00074	8b e5		 mov	 esp, ebp
  00076	5d		 pop	 ebp
  00077	c2 0c 00	 ret	 12			; 0000000cH
$LN5@ChangeSubG:

; 592  : 		else
; 593  : 			pGraph->GetSubGraphList().SetPenThickness(nSubGraphIndex, penThickness);

  0007a	50		 push	 eax
  0007b	e8 00 00 00 00	 call	 ?GetSubGraphList@CGraphImp@@QAEAAVCSubGraphList@@XZ ; CGraphImp::GetSubGraphList
  00080	8b c8		 mov	 ecx, eax
  00082	e8 00 00 00 00	 call	 ?SetPenThickness@CSubGraphList@@QAE_NHABVCPenThickness@@@Z ; CSubGraphList::SetPenThickness
  00087	5f		 pop	 edi

; 594  : 		
; 595  : 		return true;
; 596  : 	}
; 597  : 
; 598  : 	return false;
; 599  : }

  00088	5e		 pop	 esi
  00089	b0 01		 mov	 al, 1
  0008b	5b		 pop	 ebx
  0008c	8b e5		 mov	 esp, ebp
  0008e	5d		 pop	 ebp
  0008f	c2 0c 00	 ret	 12			; 0000000cH
$LN3@ChangeSubG:
  00092	5f		 pop	 edi
  00093	5e		 pop	 esi
  00094	32 c0		 xor	 al, al
  00096	5b		 pop	 ebx
  00097	8b e5		 mov	 esp, ebp
  00099	5d		 pop	 ebp
  0009a	c2 0c 00	 ret	 12			; 0000000cH
?ChangeSubGraphPenThickness@CVertScaleGroup@@QAE_NABV?$CStringT@DV?$StrTraitMFC_DLL@DV?$ChTraitsCRT@D@ATL@@@@@ATL@@HABVCPenThickness@@@Z ENDP ; CVertScaleGroup::ChangeSubGraphPenThickness
_TEXT	ENDS
; Function compile flags: /Ogtp
; File D:\git\src\IBK\IBK_DRFN\ProjSrc\SrcChartEx\ChartOCX\ChartObject\VertScaleGroup.cpp
; File C:\Program Files (x86)\Microsoft Visual Studio\2019\Community\VC\Tools\MSVC\14.29.30133\atlmfc\include\afxcoll.inl
; File D:\git\src\IBK\IBK_DRFN\ProjSrc\SrcChartEx\ChartOCX\ChartObject\VertScaleGroup.cpp
; File C:\Program Files (x86)\Microsoft Visual Studio\2019\Community\VC\Tools\MSVC\14.29.30133\atlmfc\include\cstringt.h
; File D:\git\src\IBK\IBK_DRFN\ProjSrc\SrcChartEx\ChartOCX\ChartObject\VertScaleGroup.cpp
; File C:\Program Files (x86)\Microsoft Visual Studio\2019\Community\VC\Tools\MSVC\14.29.30133\atlmfc\include\cstringt.h
; File D:\git\src\IBK\IBK_DRFN\ProjSrc\SrcChartEx\ChartOCX\ChartObject\VertScaleGroup.cpp
; File C:\Program Files (x86)\Microsoft Visual Studio\2019\Community\VC\Tools\MSVC\14.29.30133\atlmfc\include\cstringt.h
; File D:\git\src\IBK\IBK_DRFN\ProjSrc\SrcChartEx\ChartOCX\ChartObject\VertScaleGroup.cpp
;	COMDAT ?ChangeSubGraphData@CVertScaleGroup@@QAE_NABV?$CStringT@DV?$StrTraitMFC_DLL@DV?$ChTraitsCRT@D@ATL@@@@@ATL@@0ABVCSubGraphData@@@Z
_TEXT	SEGMENT
$T2 = -16						; size = 4
__$EHRec$ = -12						; size = 12
_targetGraphName$ = 8					; size = 4
_targetSubGraphName$ = 12				; size = 4
_sourceSubGraphData$ = 16				; size = 4
?ChangeSubGraphData@CVertScaleGroup@@QAE_NABV?$CStringT@DV?$StrTraitMFC_DLL@DV?$ChTraitsCRT@D@ATL@@@@@ATL@@0ABVCSubGraphData@@@Z PROC ; CVertScaleGroup::ChangeSubGraphData, COMDAT
; _this$ = ecx

; 564  : {

  00000	55		 push	 ebp
  00001	8b ec		 mov	 ebp, esp
  00003	6a ff		 push	 -1
  00005	68 00 00 00 00	 push	 __ehhandler$?ChangeSubGraphData@CVertScaleGroup@@QAE_NABV?$CStringT@DV?$StrTraitMFC_DLL@DV?$ChTraitsCRT@D@ATL@@@@@ATL@@0ABVCSubGraphData@@@Z
  0000a	64 a1 00 00 00
	00		 mov	 eax, DWORD PTR fs:0
  00010	50		 push	 eax
  00011	51		 push	 ecx
  00012	53		 push	 ebx
  00013	56		 push	 esi
  00014	57		 push	 edi
  00015	a1 00 00 00 00	 mov	 eax, DWORD PTR ___security_cookie
  0001a	33 c5		 xor	 eax, ebp
  0001c	50		 push	 eax
  0001d	8d 45 f4	 lea	 eax, DWORD PTR __$EHRec$[ebp]
  00020	64 a3 00 00 00
	00		 mov	 DWORD PTR fs:0, eax

; 565  : 	POSITION pos = m_GraphList.GetHeadPosition();

  00026	8b 71 7c	 mov	 esi, DWORD PTR [ecx+124]

; 566  : 	while(pos != NULL){

  00029	85 f6		 test	 esi, esi
  0002b	74 61		 je	 SHORT $LN25@ChangeSubG
  0002d	0f 1f 00	 npad	 3
$LL2@ChangeSubG:

; 567  : 		CGraphImp* pGraph = m_GraphList.GetNext(pos);

  00030	8b 5e 08	 mov	 ebx, DWORD PTR [esi+8]

; 569  : 		if(pGraph->GetGraphData().GetGraphName() != targetGraphName)

  00033	8d 45 f0	 lea	 eax, DWORD PTR $T2[ebp]
; File C:\Program Files (x86)\Microsoft Visual Studio\2019\Community\VC\Tools\MSVC\14.29.30133\atlmfc\include\afxcoll.inl

; 432  : 		rPosition = (POSITION) pNode->pNext;

  00036	8b 36		 mov	 esi, DWORD PTR [esi]
; File D:\git\src\IBK\IBK_DRFN\ProjSrc\SrcChartEx\ChartOCX\ChartObject\VertScaleGroup.cpp

; 569  : 		if(pGraph->GetGraphData().GetGraphName() != targetGraphName)

  00038	8b cb		 mov	 ecx, ebx
  0003a	50		 push	 eax
  0003b	e8 00 00 00 00	 call	 ?GetGraphData@CGraphImp@@QAEAAVCGraphData@@XZ ; CGraphImp::GetGraphData
  00040	8b c8		 mov	 ecx, eax
  00042	ff 15 00 00 00
	00		 call	 DWORD PTR __imp_?GetGraphName@CGraphData@@QBE?AV?$CStringT@DV?$StrTraitMFC_DLL@DV?$ChTraitsCRT@D@ATL@@@@@ATL@@XZ
; File C:\Program Files (x86)\Microsoft Visual Studio\2019\Community\VC\Tools\MSVC\14.29.30133\atlmfc\include\cstringt.h

; 2560 : 		return( str1.Compare( str2 ) != 0 );

  00048	8b 4d 08	 mov	 ecx, DWORD PTR _targetGraphName$[ebp]
; File D:\git\src\IBK\IBK_DRFN\ProjSrc\SrcChartEx\ChartOCX\ChartObject\VertScaleGroup.cpp

; 569  : 		if(pGraph->GetGraphData().GetGraphName() != targetGraphName)

  0004b	c7 45 fc 00 00
	00 00		 mov	 DWORD PTR __$EHRec$[ebp+8], 0
; File C:\Program Files (x86)\Microsoft Visual Studio\2019\Community\VC\Tools\MSVC\14.29.30133\atlmfc\include\cstringt.h

; 2560 : 		return( str1.Compare( str2 ) != 0 );

  00052	ff 31		 push	 DWORD PTR [ecx]
  00054	8b c8		 mov	 ecx, eax
  00056	ff 15 00 00 00
	00		 call	 DWORD PTR __imp_?Compare@?$CStringT@DV?$StrTraitMFC_DLL@DV?$ChTraitsCRT@D@ATL@@@@@ATL@@QBEHPBD@Z
; File D:\git\src\IBK\IBK_DRFN\ProjSrc\SrcChartEx\ChartOCX\ChartObject\VertScaleGroup.cpp

; 569  : 		if(pGraph->GetGraphData().GetGraphName() != targetGraphName)

  0005c	8d 4d f0	 lea	 ecx, DWORD PTR $T2[ebp]
  0005f	c7 45 fc ff ff
	ff ff		 mov	 DWORD PTR __$EHRec$[ebp+8], -1
; File C:\Program Files (x86)\Microsoft Visual Studio\2019\Community\VC\Tools\MSVC\14.29.30133\atlmfc\include\cstringt.h

; 2560 : 		return( str1.Compare( str2 ) != 0 );

  00066	8b f8		 mov	 edi, eax
; File D:\git\src\IBK\IBK_DRFN\ProjSrc\SrcChartEx\ChartOCX\ChartObject\VertScaleGroup.cpp

; 569  : 		if(pGraph->GetGraphData().GetGraphName() != targetGraphName)

  00068	ff 15 00 00 00
	00		 call	 DWORD PTR __imp_??1?$CStringT@DV?$StrTraitMFC_DLL@DV?$ChTraitsCRT@D@ATL@@@@@ATL@@QAE@XZ
  0006e	85 ff		 test	 edi, edi
  00070	75 18		 jne	 SHORT $LN5@ChangeSubG

; 570  : 			continue;
; 571  : 
; 572  : 		if(pGraph->GetSubGraphList().ChangeSubGraphData(targetSubGraphName, sourceSubGraphData))

  00072	ff 75 10	 push	 DWORD PTR _sourceSubGraphData$[ebp]
  00075	8b cb		 mov	 ecx, ebx
  00077	ff 75 0c	 push	 DWORD PTR _targetSubGraphName$[ebp]
  0007a	e8 00 00 00 00	 call	 ?GetSubGraphList@CGraphImp@@QAEAAVCSubGraphList@@XZ ; CGraphImp::GetSubGraphList
  0007f	8b c8		 mov	 ecx, eax
  00081	e8 00 00 00 00	 call	 ?ChangeSubGraphData@CSubGraphList@@QAE_NABV?$CStringT@DV?$StrTraitMFC_DLL@DV?$ChTraitsCRT@D@ATL@@@@@ATL@@ABVCSubGraphData@@@Z ; CSubGraphList::ChangeSubGraphData
  00086	84 c0		 test	 al, al
  00088	75 1a		 jne	 SHORT $LN22@ChangeSubG
$LN5@ChangeSubG:

; 566  : 	while(pos != NULL){

  0008a	85 f6		 test	 esi, esi
  0008c	75 a2		 jne	 SHORT $LL2@ChangeSubG
$LN25@ChangeSubG:

; 574  : 	}
; 575  : 
; 576  : 	return false;

  0008e	32 c0		 xor	 al, al

; 577  : }

  00090	8b 4d f4	 mov	 ecx, DWORD PTR __$EHRec$[ebp]
  00093	64 89 0d 00 00
	00 00		 mov	 DWORD PTR fs:0, ecx
  0009a	59		 pop	 ecx
  0009b	5f		 pop	 edi
  0009c	5e		 pop	 esi
  0009d	5b		 pop	 ebx
  0009e	8b e5		 mov	 esp, ebp
  000a0	5d		 pop	 ebp
  000a1	c2 0c 00	 ret	 12			; 0000000cH
$LN22@ChangeSubG:

; 573  : 			return true;

  000a4	b0 01		 mov	 al, 1

; 577  : }

  000a6	8b 4d f4	 mov	 ecx, DWORD PTR __$EHRec$[ebp]
  000a9	64 89 0d 00 00
	00 00		 mov	 DWORD PTR fs:0, ecx
  000b0	59		 pop	 ecx
  000b1	5f		 pop	 edi
  000b2	5e		 pop	 esi
  000b3	5b		 pop	 ebx
  000b4	8b e5		 mov	 esp, ebp
  000b6	5d		 pop	 ebp
  000b7	c2 0c 00	 ret	 12			; 0000000cH
_TEXT	ENDS
;	COMDAT text$x
text$x	SEGMENT
__unwindfunclet$?ChangeSubGraphData@CVertScaleGroup@@QAE_NABV?$CStringT@DV?$StrTraitMFC_DLL@DV?$ChTraitsCRT@D@ATL@@@@@ATL@@0ABVCSubGraphData@@@Z$0:
  00000	8d 4d f0	 lea	 ecx, DWORD PTR $T2[ebp]
  00003	ff 25 00 00 00
	00		 jmp	 DWORD PTR __imp_??1?$CStringT@DV?$StrTraitMFC_DLL@DV?$ChTraitsCRT@D@ATL@@@@@ATL@@QAE@XZ
  00009	cc		 int	 3
  0000a	cc		 int	 3
  0000b	cc		 int	 3
  0000c	cc		 int	 3
  0000d	cc		 int	 3
__ehhandler$?ChangeSubGraphData@CVertScaleGroup@@QAE_NABV?$CStringT@DV?$StrTraitMFC_DLL@DV?$ChTraitsCRT@D@ATL@@@@@ATL@@0ABVCSubGraphData@@@Z:
  0000e	90		 npad	 1
  0000f	90		 npad	 1
  00010	8b 54 24 08	 mov	 edx, DWORD PTR [esp+8]
  00014	8d 42 0c	 lea	 eax, DWORD PTR [edx+12]
  00017	8b 4a ec	 mov	 ecx, DWORD PTR [edx-20]
  0001a	33 c8		 xor	 ecx, eax
  0001c	e8 00 00 00 00	 call	 @__security_check_cookie@4
  00021	b8 00 00 00 00	 mov	 eax, OFFSET __ehfuncinfo$?ChangeSubGraphData@CVertScaleGroup@@QAE_NABV?$CStringT@DV?$StrTraitMFC_DLL@DV?$ChTraitsCRT@D@ATL@@@@@ATL@@0ABVCSubGraphData@@@Z
  00026	e9 00 00 00 00	 jmp	 ___CxxFrameHandler3
text$x	ENDS
?ChangeSubGraphData@CVertScaleGroup@@QAE_NABV?$CStringT@DV?$StrTraitMFC_DLL@DV?$ChTraitsCRT@D@ATL@@@@@ATL@@0ABVCSubGraphData@@@Z ENDP ; CVertScaleGroup::ChangeSubGraphData
; Function compile flags: /Ogtp
; File D:\git\src\IBK\IBK_DRFN\ProjSrc\SrcChartEx\ChartOCX\ChartObject\VertScaleGroup.cpp
;	COMDAT ?ChangeGraphType@CVertScaleGroup@@QAE_NABV?$CStringT@DV?$StrTraitMFC_DLL@DV?$ChTraitsCRT@D@ATL@@@@@ATL@@ABW4GRAPHTYPE@CGraphBaseData@@ABVCGraphStyle@@ABVCGraphDrawStyle@@0@Z
_TEXT	SEGMENT
$T1 = -8						; size = 4
_pos$ = -4						; size = 4
_targetGraphName$ = 8					; size = 4
_sourceType$ = 12					; size = 4
_sourceStyle$ = 16					; size = 4
_sourceDrawStyle$ = 20					; size = 4
_sourcePacketNames$ = 24				; size = 4
?ChangeGraphType@CVertScaleGroup@@QAE_NABV?$CStringT@DV?$StrTraitMFC_DLL@DV?$ChTraitsCRT@D@ATL@@@@@ATL@@ABW4GRAPHTYPE@CGraphBaseData@@ABVCGraphStyle@@ABVCGraphDrawStyle@@0@Z PROC ; CVertScaleGroup::ChangeGraphType, COMDAT
; _this$ = ecx

; 545  : {

  00000	55		 push	 ebp
  00001	8b ec		 mov	 ebp, esp
  00003	83 ec 08	 sub	 esp, 8
  00006	53		 push	 ebx
  00007	56		 push	 esi
  00008	57		 push	 edi
  00009	8b f9		 mov	 edi, ecx

; 546  : 	POSITION pos = m_GraphList.GetHeadPosition();

  0000b	8b 47 7c	 mov	 eax, DWORD PTR [edi+124]
  0000e	89 45 fc	 mov	 DWORD PTR _pos$[ebp], eax
$LL2@ChangeGrap:

; 547  : 	while(pos != NULL)

  00011	85 c0		 test	 eax, eax
  00013	74 73		 je	 SHORT $LN3@ChangeGrap

; 548  : 	{
; 549  : 		CGraphImp* pGraph = m_GraphList.GetNext(pos);

  00015	8d 45 fc	 lea	 eax, DWORD PTR _pos$[ebp]
  00018	50		 push	 eax
  00019	8d 4f 78	 lea	 ecx, DWORD PTR [edi+120]
  0001c	e8 00 00 00 00	 call	 ?GetNext@?$_CTypedPtrList@VCObList@@PAVCGraphImp@@@@QAEAAPAVCGraphImp@@AAPAU__POSITION@@@Z ; _CTypedPtrList<CObList,CGraphImp *>::GetNext
  00021	8b 30		 mov	 esi, DWORD PTR [eax]

; 550  : 		assert(pGraph != NULL);
; 551  : 		if(pGraph->GetGraphData().GetGraphName() != targetGraphName)

  00023	8d 45 f8	 lea	 eax, DWORD PTR $T1[ebp]
  00026	50		 push	 eax
  00027	8b ce		 mov	 ecx, esi
  00029	e8 00 00 00 00	 call	 ?GetGraphData@CGraphImp@@QAEAAVCGraphData@@XZ ; CGraphImp::GetGraphData
  0002e	8b c8		 mov	 ecx, eax
  00030	ff 15 00 00 00
	00		 call	 DWORD PTR __imp_?GetGraphName@CGraphData@@QBE?AV?$CStringT@DV?$StrTraitMFC_DLL@DV?$ChTraitsCRT@D@ATL@@@@@ATL@@XZ
  00036	ff 75 08	 push	 DWORD PTR _targetGraphName$[ebp]
  00039	50		 push	 eax
  0003a	e8 00 00 00 00	 call	 ??9ATL@@YA_NABV?$CStringT@DV?$StrTraitMFC_DLL@DV?$ChTraitsCRT@D@ATL@@@@@0@0@Z ; ATL::operator!=
  0003f	83 c4 08	 add	 esp, 8
  00042	8d 4d f8	 lea	 ecx, DWORD PTR $T1[ebp]
  00045	8a d8		 mov	 bl, al
  00047	ff 15 00 00 00
	00		 call	 DWORD PTR __imp_??1?$CStringT@DV?$StrTraitMFC_DLL@DV?$ChTraitsCRT@D@ATL@@@@@ATL@@QAE@XZ
  0004d	84 db		 test	 bl, bl
  0004f	74 05		 je	 SHORT $LN14@ChangeGrap
  00051	8b 45 fc	 mov	 eax, DWORD PTR _pos$[ebp]
  00054	eb bb		 jmp	 SHORT $LL2@ChangeGrap
$LN14@ChangeGrap:

; 552  : 			continue;
; 553  : 
; 554  : 		pGraph->SetPacketNames(sourcePacketNames);

  00056	6a 01		 push	 1
  00058	6a 01		 push	 1
  0005a	ff 75 18	 push	 DWORD PTR _sourcePacketNames$[ebp]
  0005d	8b ce		 mov	 ecx, esi
  0005f	e8 00 00 00 00	 call	 ?SetPacketNames@CGraphImp@@QAE_NABV?$CStringT@DV?$StrTraitMFC_DLL@DV?$ChTraitsCRT@D@ATL@@@@@ATL@@_N1@Z ; CGraphImp::SetPacketNames

; 555  : 		pGraph->GetSubGraphList().SetType(0, sourceType, sourceStyle, sourceDrawStyle);

  00064	ff 75 14	 push	 DWORD PTR _sourceDrawStyle$[ebp]
  00067	8b ce		 mov	 ecx, esi
  00069	ff 75 10	 push	 DWORD PTR _sourceStyle$[ebp]
  0006c	ff 75 0c	 push	 DWORD PTR _sourceType$[ebp]
  0006f	6a 00		 push	 0
  00071	e8 00 00 00 00	 call	 ?GetSubGraphList@CGraphImp@@QAEAAVCSubGraphList@@XZ ; CGraphImp::GetSubGraphList
  00076	8b c8		 mov	 ecx, eax
  00078	e8 00 00 00 00	 call	 ?SetType@CSubGraphList@@QAE_NHABW4GRAPHTYPE@CGraphBaseData@@ABVCGraphStyle@@ABVCGraphDrawStyle@@@Z ; CSubGraphList::SetType
  0007d	5f		 pop	 edi

; 556  : 		return true;
; 557  : 	}
; 558  : 
; 559  : 	return false;
; 560  : }

  0007e	5e		 pop	 esi
  0007f	b0 01		 mov	 al, 1
  00081	5b		 pop	 ebx
  00082	8b e5		 mov	 esp, ebp
  00084	5d		 pop	 ebp
  00085	c2 14 00	 ret	 20			; 00000014H
$LN3@ChangeGrap:
  00088	5f		 pop	 edi
  00089	5e		 pop	 esi
  0008a	32 c0		 xor	 al, al
  0008c	5b		 pop	 ebx
  0008d	8b e5		 mov	 esp, ebp
  0008f	5d		 pop	 ebp
  00090	c2 14 00	 ret	 20			; 00000014H
?ChangeGraphType@CVertScaleGroup@@QAE_NABV?$CStringT@DV?$StrTraitMFC_DLL@DV?$ChTraitsCRT@D@ATL@@@@@ATL@@ABW4GRAPHTYPE@CGraphBaseData@@ABVCGraphStyle@@ABVCGraphDrawStyle@@0@Z ENDP ; CVertScaleGroup::ChangeGraphType
_TEXT	ENDS
; Function compile flags: /Ogtp
; File D:\git\src\IBK\IBK_DRFN\ProjSrc\SrcChartEx\ChartOCX\ChartObject\VertScaleGroup.cpp
; File C:\Program Files (x86)\Microsoft Visual Studio\2019\Community\VC\Tools\MSVC\14.29.30133\atlmfc\include\afxtempl.h
; File D:\git\src\IBK\IBK_DRFN\ProjSrc\SrcChartEx\ChartOCX\ChartObject\VertScaleGroup.cpp
;	COMDAT ?MoveAllGraphs@CVertScaleGroup@@QAE_NPAV1@@Z
_TEXT	SEGMENT
_this$1$ = -4						; size = 4
tv281 = 8						; size = 4
_pSourceGroup$ = 8					; size = 4
?MoveAllGraphs@CVertScaleGroup@@QAE_NPAV1@@Z PROC	; CVertScaleGroup::MoveAllGraphs, COMDAT
; _this$ = ecx

; 526  : {

  00000	55		 push	 ebp
  00001	8b ec		 mov	 ebp, esp
  00003	51		 push	 ecx
  00004	56		 push	 esi

; 527  : 	if(pSourceGroup == NULL || pSourceGroup->GetGraphCount() <= 0)

  00005	8b 75 08	 mov	 esi, DWORD PTR _pSourceGroup$[ebp]
  00008	8b c1		 mov	 eax, ecx
  0000a	89 45 fc	 mov	 DWORD PTR _this$1$[ebp], eax
  0000d	85 f6		 test	 esi, esi
  0000f	0f 84 a5 00 00
	00		 je	 $LN5@MoveAllGra
  00015	83 be 84 00 00
	00 00		 cmp	 DWORD PTR [esi+132], 0
  0001c	0f 8e 98 00 00
	00		 jle	 $LN5@MoveAllGra
  00022	53		 push	 ebx
  00023	83 c0 78	 add	 eax, 120		; 00000078H
  00026	57		 push	 edi
  00027	89 45 08	 mov	 DWORD PTR tv281[ebp], eax
  0002a	66 0f 1f 44 00
	00		 npad	 6
$LL2@MoveAllGra:

; 1552 : 	POSITION pos = m_GraphList.FindIndex(nIndex);

  00030	6a 00		 push	 0
  00032	8d 4e 78	 lea	 ecx, DWORD PTR [esi+120]
  00035	e8 00 00 00 00	 call	 ?FindIndex@CObList@@QBEPAU__POSITION@@H@Z ; CObList::FindIndex

; 1553 : 	if(pos == NULL)

  0003a	85 c0		 test	 eax, eax
  0003c	75 04		 jne	 SHORT $LN8@MoveAllGra

; 1554 : 		return NULL;

  0003e	33 ff		 xor	 edi, edi
  00040	eb 49		 jmp	 SHORT $LN22@MoveAllGra
$LN8@MoveAllGra:

; 1555 : 
; 1556 : 	return m_GraphList.GetAt(pos);

  00042	8b 78 08	 mov	 edi, DWORD PTR [eax+8]

; 489  : 	if(pGraph == NULL)

  00045	85 ff		 test	 edi, edi
  00047	74 42		 je	 SHORT $LN22@MoveAllGra

; 490  : 		return false;
; 491  : 
; 492  : 	POSITION pos = m_GraphList.Find(pGraph);

  00049	6a 00		 push	 0
  0004b	57		 push	 edi
  0004c	8d 4e 78	 lea	 ecx, DWORD PTR [esi+120]
  0004f	e8 00 00 00 00	 call	 ?Find@CObList@@QBEPAU__POSITION@@PAVCObject@@PAU2@@Z ; CObList::Find

; 493  : 	if(pos == NULL)

  00054	85 c0		 test	 eax, eax
  00056	74 33		 je	 SHORT $LN22@MoveAllGra

; 494  : 		return false;
; 495  : 
; 496  : 	m_GraphList.RemoveAt(pos);

  00058	50		 push	 eax
  00059	8d 4e 78	 lea	 ecx, DWORD PTR [esi+120]
  0005c	e8 00 00 00 00	 call	 ?RemoveAt@CObList@@QAEXPAU__POSITION@@@Z ; CObList::RemoveAt

; 497  : 
; 498  : 	if(m_GraphList.GetCount() == 0 && m_pVertScaleGroupList != NULL)

  00061	83 be 84 00 00
	00 00		 cmp	 DWORD PTR [esi+132], 0
  00068	75 0f		 jne	 SHORT $LN21@MoveAllGra
  0006a	8b 4e 0c	 mov	 ecx, DWORD PTR [esi+12]
  0006d	85 c9		 test	 ecx, ecx
  0006f	74 08		 je	 SHORT $LN21@MoveAllGra

; 499  : 		m_pVertScaleGroupList->DeleteVertScaleGroup(this, bIsDeleteBlock);

  00071	6a 01		 push	 1
  00073	56		 push	 esi
  00074	e8 00 00 00 00	 call	 ?DeleteVertScaleGroup@CVertScaleGroupList@@QAE_NPAVCVertScaleGroup@@_N@Z ; CVertScaleGroupList::DeleteVertScaleGroup
$LN21@MoveAllGra:

; 500  : 	
; 501  : 	// (2009/3/9 - Seung-Won, Bae) Clear Selected Graph
; 502  : 	if( m_lpSelectedGraph == pGraph) m_lpSelectedGraph = NULL;

  00079	39 be 94 00 00
	00		 cmp	 DWORD PTR [esi+148], edi
  0007f	75 0a		 jne	 SHORT $LN22@MoveAllGra
  00081	c7 86 94 00 00
	00 00 00 00 00	 mov	 DWORD PTR [esi+148], 0
$LN22@MoveAllGra:

; 477  : 	pGraph->SetVertScaleGroup(this);

  0008b	ff 75 fc	 push	 DWORD PTR _this$1$[ebp]
  0008e	8b cf		 mov	 ecx, edi
  00090	e8 00 00 00 00	 call	 ?SetVertScaleGroup@CGraphImp@@QAEXPAVCVertScaleGroup@@@Z ; CGraphImp::SetVertScaleGroup
; File C:\Program Files (x86)\Microsoft Visual Studio\2019\Community\VC\Tools\MSVC\14.29.30133\atlmfc\include\afxtempl.h

; 1959 : 		{ return BASE_CLASS::AddTail(newElement); }

  00095	8b 4d 08	 mov	 ecx, DWORD PTR tv281[ebp]
  00098	57		 push	 edi
  00099	e8 00 00 00 00	 call	 ?AddTail@CObList@@QAEPAU__POSITION@@PAVCObject@@@Z ; CObList::AddTail
; File D:\git\src\IBK\IBK_DRFN\ProjSrc\SrcChartEx\ChartOCX\ChartObject\VertScaleGroup.cpp

; 484  : 	CalculateDisplayDataMinMax();

  0009e	8b 4d fc	 mov	 ecx, DWORD PTR _this$1$[ebp]
  000a1	e8 00 00 00 00	 call	 ?CalculateDisplayDataMinMax@CVertScaleGroup@@QAEXXZ ; CVertScaleGroup::CalculateDisplayDataMinMax

; 529  : 
; 530  : 	while(pSourceGroup->GetGraphCount() > 0)

  000a6	83 be 84 00 00
	00 00		 cmp	 DWORD PTR [esi+132], 0
  000ad	7f 81		 jg	 SHORT $LL2@MoveAllGra

; 531  : 	{
; 532  : 		CGraphImp* pGraph = pSourceGroup->GetGraph( 0);
; 533  : 		assert(pGraph != NULL);
; 534  : 		pSourceGroup->RemoveAt(pGraph, true);
; 535  : 		AddGraph(pGraph);
; 536  : 	}
; 537  : 
; 538  : 	return true;

  000af	5f		 pop	 edi
  000b0	5b		 pop	 ebx
  000b1	b0 01		 mov	 al, 1
  000b3	5e		 pop	 esi

; 539  : }

  000b4	8b e5		 mov	 esp, ebp
  000b6	5d		 pop	 ebp
  000b7	c2 04 00	 ret	 4
$LN5@MoveAllGra:

; 528  : 		return false;

  000ba	32 c0		 xor	 al, al
  000bc	5e		 pop	 esi

; 539  : }

  000bd	8b e5		 mov	 esp, ebp
  000bf	5d		 pop	 ebp
  000c0	c2 04 00	 ret	 4
?MoveAllGraphs@CVertScaleGroup@@QAE_NPAV1@@Z ENDP	; CVertScaleGroup::MoveAllGraphs
_TEXT	ENDS
; Function compile flags: /Ogtp
; File D:\git\src\IBK\IBK_DRFN\ProjSrc\SrcChartEx\ChartOCX\ChartObject\VertScaleGroup.cpp
; File C:\Program Files (x86)\Microsoft Visual Studio\2019\Community\VC\Tools\MSVC\14.29.30133\atlmfc\include\afxcoll.inl
; File D:\git\src\IBK\IBK_DRFN\ProjSrc\SrcChartEx\ChartOCX\ChartObject\VertScaleGroup.cpp
; File C:\Program Files (x86)\Microsoft Visual Studio\2019\Community\VC\Tools\MSVC\14.29.30133\atlmfc\include\afxcoll.inl
; File D:\git\src\IBK\IBK_DRFN\ProjSrc\SrcChartEx\ChartOCX\ChartObject\VertScaleGroup.cpp
;	COMDAT ?MoveAllGraphs@CVertScaleGroup@@QAE_NAAVCVertScaleGroupList@@@Z
_TEXT	SEGMENT
_groupList$ = 8						; size = 4
?MoveAllGraphs@CVertScaleGroup@@QAE_NAAVCVertScaleGroupList@@@Z PROC ; CVertScaleGroup::MoveAllGraphs, COMDAT
; _this$ = ecx

; 509  : {

  00000	55		 push	 ebp
  00001	8b ec		 mov	 ebp, esp
  00003	56		 push	 esi

; 510  : 	POSITION pos = m_GraphList.GetHeadPosition();

  00004	8b 71 7c	 mov	 esi, DWORD PTR [ecx+124]

; 511  : 	if(pos == NULL)

  00007	85 f6		 test	 esi, esi
  00009	75 07		 jne	 SHORT $LN4@MoveAllGra

; 512  : 		return false;

  0000b	32 c0		 xor	 al, al
  0000d	5e		 pop	 esi

; 523  : }

  0000e	5d		 pop	 ebp
  0000f	c2 04 00	 ret	 4
$LN4@MoveAllGra:
  00012	53		 push	 ebx
  00013	57		 push	 edi

; 513  : 
; 514  : 	bool bResult = false;

  00014	8b 7d 08	 mov	 edi, DWORD PTR _groupList$[ebp]
  00017	32 db		 xor	 bl, bl
  00019	0f 1f 80 00 00
	00 00		 npad	 7
$LL2@MoveAllGra:

; 518  : 		if(groupList.MoveGraph(pGraph, -1, false))

  00020	6a 01		 push	 1
  00022	6a 00		 push	 0
; File C:\Program Files (x86)\Microsoft Visual Studio\2019\Community\VC\Tools\MSVC\14.29.30133\atlmfc\include\afxcoll.inl

; 428  : 	{ CNode* pNode = (CNode*) rPosition;

  00024	8d 06		 lea	 eax, DWORD PTR [esi]
; File D:\git\src\IBK\IBK_DRFN\ProjSrc\SrcChartEx\ChartOCX\ChartObject\VertScaleGroup.cpp

; 518  : 		if(groupList.MoveGraph(pGraph, -1, false))

  00026	8b cf		 mov	 ecx, edi
; File C:\Program Files (x86)\Microsoft Visual Studio\2019\Community\VC\Tools\MSVC\14.29.30133\atlmfc\include\afxcoll.inl

; 432  : 		rPosition = (POSITION) pNode->pNext;

  00028	8b 36		 mov	 esi, DWORD PTR [esi]
; File D:\git\src\IBK\IBK_DRFN\ProjSrc\SrcChartEx\ChartOCX\ChartObject\VertScaleGroup.cpp

; 518  : 		if(groupList.MoveGraph(pGraph, -1, false))

  0002a	6a ff		 push	 -1
  0002c	ff 70 08	 push	 DWORD PTR [eax+8]
  0002f	e8 00 00 00 00	 call	 ?MoveGraph@CVertScaleGroupList@@QAE_NPAVCGraphImp@@H_N1@Z ; CVertScaleGroupList::MoveGraph
  00034	84 c0		 test	 al, al
  00036	0f b6 db	 movzx	 ebx, bl
  00039	b8 01 00 00 00	 mov	 eax, 1
  0003e	0f 45 d8	 cmovne	 ebx, eax
  00041	85 f6		 test	 esi, esi
  00043	75 db		 jne	 SHORT $LL2@MoveAllGra

; 519  : 			bResult = true;
; 520  : 	}
; 521  : 
; 522  : 	return bResult;

  00045	5f		 pop	 edi
  00046	8a c3		 mov	 al, bl
  00048	5b		 pop	 ebx
  00049	5e		 pop	 esi

; 523  : }

  0004a	5d		 pop	 ebp
  0004b	c2 04 00	 ret	 4
?MoveAllGraphs@CVertScaleGroup@@QAE_NAAVCVertScaleGroupList@@@Z ENDP ; CVertScaleGroup::MoveAllGraphs
_TEXT	ENDS
; Function compile flags: /Ogtp
; File D:\git\src\IBK\IBK_DRFN\ProjSrc\SrcChartEx\ChartOCX\ChartObject\VertScaleGroup.cpp
;	COMDAT ?RemoveAt@CVertScaleGroup@@QAE_NPAVCGraphImp@@_N@Z
_TEXT	SEGMENT
_pGraph$ = 8						; size = 4
_bIsDeleteBlock$ = 12					; size = 1
?RemoveAt@CVertScaleGroup@@QAE_NPAVCGraphImp@@_N@Z PROC	; CVertScaleGroup::RemoveAt, COMDAT
; _this$ = ecx

; 488  : {

  00000	55		 push	 ebp
  00001	8b ec		 mov	 ebp, esp
  00003	53		 push	 ebx
  00004	56		 push	 esi
  00005	57		 push	 edi

; 489  : 	if(pGraph == NULL)

  00006	8b 7d 08	 mov	 edi, DWORD PTR _pGraph$[ebp]
  00009	8b f1		 mov	 esi, ecx
  0000b	85 ff		 test	 edi, edi
  0000d	74 4c		 je	 SHORT $LN7@RemoveAt

; 490  : 		return false;
; 491  : 
; 492  : 	POSITION pos = m_GraphList.Find(pGraph);

  0000f	6a 00		 push	 0
  00011	57		 push	 edi
  00012	8d 4e 78	 lea	 ecx, DWORD PTR [esi+120]
  00015	e8 00 00 00 00	 call	 ?Find@CObList@@QBEPAU__POSITION@@PAVCObject@@PAU2@@Z ; CObList::Find

; 493  : 	if(pos == NULL)

  0001a	85 c0		 test	 eax, eax
  0001c	74 3d		 je	 SHORT $LN7@RemoveAt

; 494  : 		return false;
; 495  : 
; 496  : 	m_GraphList.RemoveAt(pos);

  0001e	50		 push	 eax
  0001f	8d 4e 78	 lea	 ecx, DWORD PTR [esi+120]
  00022	e8 00 00 00 00	 call	 ?RemoveAt@CObList@@QAEXPAU__POSITION@@@Z ; CObList::RemoveAt

; 497  : 
; 498  : 	if(m_GraphList.GetCount() == 0 && m_pVertScaleGroupList != NULL)

  00027	83 be 84 00 00
	00 00		 cmp	 DWORD PTR [esi+132], 0
  0002e	75 10		 jne	 SHORT $LN4@RemoveAt
  00030	8b 4e 0c	 mov	 ecx, DWORD PTR [esi+12]
  00033	85 c9		 test	 ecx, ecx
  00035	74 09		 je	 SHORT $LN4@RemoveAt

; 499  : 		m_pVertScaleGroupList->DeleteVertScaleGroup(this, bIsDeleteBlock);

  00037	ff 75 0c	 push	 DWORD PTR _bIsDeleteBlock$[ebp]
  0003a	56		 push	 esi
  0003b	e8 00 00 00 00	 call	 ?DeleteVertScaleGroup@CVertScaleGroupList@@QAE_NPAVCVertScaleGroup@@_N@Z ; CVertScaleGroupList::DeleteVertScaleGroup
$LN4@RemoveAt:

; 500  : 	
; 501  : 	// (2009/3/9 - Seung-Won, Bae) Clear Selected Graph
; 502  : 	if( m_lpSelectedGraph == pGraph) m_lpSelectedGraph = NULL;

  00040	39 be 94 00 00
	00		 cmp	 DWORD PTR [esi+148], edi
  00046	75 0a		 jne	 SHORT $LN5@RemoveAt
  00048	c7 86 94 00 00
	00 00 00 00 00	 mov	 DWORD PTR [esi+148], 0
$LN5@RemoveAt:
  00052	5f		 pop	 edi

; 503  : 
; 504  : 	return true;
; 505  : }

  00053	5e		 pop	 esi
  00054	b0 01		 mov	 al, 1
  00056	5b		 pop	 ebx
  00057	5d		 pop	 ebp
  00058	c2 08 00	 ret	 8
$LN7@RemoveAt:
  0005b	5f		 pop	 edi
  0005c	5e		 pop	 esi
  0005d	32 c0		 xor	 al, al
  0005f	5b		 pop	 ebx
  00060	5d		 pop	 ebp
  00061	c2 08 00	 ret	 8
?RemoveAt@CVertScaleGroup@@QAE_NPAVCGraphImp@@_N@Z ENDP	; CVertScaleGroup::RemoveAt
_TEXT	ENDS
; Function compile flags: /Ogtp
; File D:\git\src\IBK\IBK_DRFN\ProjSrc\SrcChartEx\ChartOCX\ChartObject\VertScaleGroup.cpp
; File C:\Program Files (x86)\Microsoft Visual Studio\2019\Community\VC\Tools\MSVC\14.29.30133\atlmfc\include\afxtempl.h
; File D:\git\src\IBK\IBK_DRFN\ProjSrc\SrcChartEx\ChartOCX\ChartObject\VertScaleGroup.cpp
; File C:\Program Files (x86)\Microsoft Visual Studio\2019\Community\VC\Tools\MSVC\14.29.30133\atlmfc\include\afxtempl.h
; File D:\git\src\IBK\IBK_DRFN\ProjSrc\SrcChartEx\ChartOCX\ChartObject\VertScaleGroup.cpp
;	COMDAT ?AddGraph@CVertScaleGroup@@QAEXPAVCGraphImp@@_N@Z
_TEXT	SEGMENT
_pGraph$ = 8						; size = 4
_bIsAddTail$ = 12					; size = 1
?AddGraph@CVertScaleGroup@@QAEXPAVCGraphImp@@_N@Z PROC	; CVertScaleGroup::AddGraph, COMDAT
; _this$ = ecx

; 475  : {

  00000	55		 push	 ebp
  00001	8b ec		 mov	 ebp, esp
  00003	56		 push	 esi
  00004	57		 push	 edi

; 476  : 	assert(pGraph != NULL);
; 477  : 	pGraph->SetVertScaleGroup(this);

  00005	8b 7d 08	 mov	 edi, DWORD PTR _pGraph$[ebp]
  00008	8b f1		 mov	 esi, ecx
  0000a	56		 push	 esi
  0000b	8b cf		 mov	 ecx, edi
  0000d	e8 00 00 00 00	 call	 ?SetVertScaleGroup@CGraphImp@@QAEXPAVCVertScaleGroup@@@Z ; CGraphImp::SetVertScaleGroup

; 478  : 
; 479  : 	if(bIsAddTail)

  00012	80 7d 0c 00	 cmp	 BYTE PTR _bIsAddTail$[ebp], 0
  00016	8d 4e 78	 lea	 ecx, DWORD PTR [esi+120]
  00019	57		 push	 edi
  0001a	74 12		 je	 SHORT $LN2@AddGraph
; File C:\Program Files (x86)\Microsoft Visual Studio\2019\Community\VC\Tools\MSVC\14.29.30133\atlmfc\include\afxtempl.h

; 1959 : 		{ return BASE_CLASS::AddTail(newElement); }

  0001c	e8 00 00 00 00	 call	 ?AddTail@CObList@@QAEPAU__POSITION@@PAVCObject@@@Z ; CObList::AddTail
; File D:\git\src\IBK\IBK_DRFN\ProjSrc\SrcChartEx\ChartOCX\ChartObject\VertScaleGroup.cpp

; 484  : 	CalculateDisplayDataMinMax();

  00021	8b ce		 mov	 ecx, esi
  00023	e8 00 00 00 00	 call	 ?CalculateDisplayDataMinMax@CVertScaleGroup@@QAEXXZ ; CVertScaleGroup::CalculateDisplayDataMinMax
  00028	5f		 pop	 edi
  00029	5e		 pop	 esi

; 485  : }

  0002a	5d		 pop	 ebp
  0002b	c2 08 00	 ret	 8
$LN2@AddGraph:
; File C:\Program Files (x86)\Microsoft Visual Studio\2019\Community\VC\Tools\MSVC\14.29.30133\atlmfc\include\afxtempl.h

; 1957 : 		{ return BASE_CLASS::AddHead(newElement); }

  0002e	e8 00 00 00 00	 call	 ?AddHead@CObList@@QAEPAU__POSITION@@PAVCObject@@@Z ; CObList::AddHead
; File D:\git\src\IBK\IBK_DRFN\ProjSrc\SrcChartEx\ChartOCX\ChartObject\VertScaleGroup.cpp

; 484  : 	CalculateDisplayDataMinMax();

  00033	8b ce		 mov	 ecx, esi
  00035	e8 00 00 00 00	 call	 ?CalculateDisplayDataMinMax@CVertScaleGroup@@QAEXXZ ; CVertScaleGroup::CalculateDisplayDataMinMax
  0003a	5f		 pop	 edi
  0003b	5e		 pop	 esi

; 485  : }

  0003c	5d		 pop	 ebp
  0003d	c2 08 00	 ret	 8
?AddGraph@CVertScaleGroup@@QAEXPAVCGraphImp@@_N@Z ENDP	; CVertScaleGroup::AddGraph
_TEXT	ENDS
; Function compile flags: /Ogtp
; File D:\git\src\IBK\IBK_DRFN\ProjSrc\SrcChartEx\ChartOCX\ChartObject\VertScaleGroup.cpp
; File C:\Program Files (x86)\Microsoft Visual Studio\2019\Community\VC\Tools\MSVC\14.29.30133\atlmfc\include\afxcoll.inl
; File D:\git\src\IBK\IBK_DRFN\ProjSrc\SrcChartEx\ChartOCX\ChartObject\VertScaleGroup.cpp
; File C:\Program Files (x86)\Microsoft Visual Studio\2019\Community\VC\Tools\MSVC\14.29.30133\atlmfc\include\atlsimpstr.h
; File D:\git\src\IBK\IBK_DRFN\ProjSrc\SrcChartEx\ChartOCX\ChartObject\VertScaleGroup.cpp
; File C:\Program Files (x86)\Microsoft Visual Studio\2019\Community\VC\Tools\MSVC\14.29.30133\atlmfc\include\afxcoll.inl
; File D:\git\src\IBK\IBK_DRFN\ProjSrc\SrcChartEx\ChartOCX\ChartObject\VertScaleGroup.cpp
; File C:\Program Files (x86)\Microsoft Visual Studio\2019\Community\VC\Tools\MSVC\14.29.30133\atlmfc\include\afxcoll.inl
; File D:\git\src\IBK\IBK_DRFN\ProjSrc\SrcChartEx\ChartOCX\ChartObject\VertScaleGroup.cpp
;	COMDAT ?DeleteAll@CVertScaleGroup@@QAEXXZ
_TEXT	SEGMENT
$T2 = -36						; size = 4
$T3 = -32						; size = 4
_pGraph$1$ = -28					; size = 4
_pChartCtrl$1$ = -24					; size = 4
_strGraphName$4 = -20					; size = 4
_strIndicatorName$5 = -16				; size = 4
__$EHRec$ = -12						; size = 12
?DeleteAll@CVertScaleGroup@@QAEXXZ PROC			; CVertScaleGroup::DeleteAll, COMDAT
; _this$ = ecx

; 463  : {

  00000	55		 push	 ebp
  00001	8b ec		 mov	 ebp, esp
  00003	6a ff		 push	 -1
  00005	68 00 00 00 00	 push	 __ehhandler$?DeleteAll@CVertScaleGroup@@QAEXXZ
  0000a	64 a1 00 00 00
	00		 mov	 eax, DWORD PTR fs:0
  00010	50		 push	 eax
  00011	83 ec 18	 sub	 esp, 24			; 00000018H
  00014	53		 push	 ebx
  00015	56		 push	 esi
  00016	57		 push	 edi
  00017	a1 00 00 00 00	 mov	 eax, DWORD PTR ___security_cookie
  0001c	33 c5		 xor	 eax, ebp
  0001e	50		 push	 eax
  0001f	8d 45 f4	 lea	 eax, DWORD PTR __$EHRec$[ebp]
  00022	64 a3 00 00 00
	00		 mov	 DWORD PTR fs:0, eax
  00028	8b f1		 mov	 esi, ecx
; File C:\Program Files (x86)\Microsoft Visual Studio\2019\Community\VC\Tools\MSVC\14.29.30133\atlmfc\include\afxcoll.inl

; 410  : 	{ return m_nCount == 0; }

  0002a	83 be 84 00 00
	00 00		 cmp	 DWORD PTR [esi+132], 0
; File D:\git\src\IBK\IBK_DRFN\ProjSrc\SrcChartEx\ChartOCX\ChartObject\VertScaleGroup.cpp

; 465  : 	while( !m_GraphList.IsEmpty())

  00031	0f 84 88 01 00
	00		 je	 $LN3@DeleteAll
  00037	66 0f 1f 84 00
	00 00 00 00	 npad	 9
$LL2@DeleteAll:

; 466  : 	{
; 467  : 		CGraphImp *pGraph = m_GraphList.GetTail();

  00040	8b 86 80 00 00
	00		 mov	 eax, DWORD PTR [esi+128]
  00046	8b 58 08	 mov	 ebx, DWORD PTR [eax+8]
  00049	89 5d e4	 mov	 DWORD PTR _pGraph$1$[ebp], ebx

; 400  : 	if( !pGraph) return false;

  0004c	85 db		 test	 ebx, ebx
  0004e	0f 84 5e 01 00
	00		 je	 $LN22@DeleteAll

; 401  : 
; 402  : 	// (2006/11/17 - Seung-Won, Bae) Notify to OCX
; 403  : 	// (2007/1/2 - Seung-Won, Bae) Vertical Scale Group can be deleted in DeleteGraph()
; 404  : 	//		So. Do Everything before DeleteGraph().
; 405  : 	if( m_pMainBlockBaseData)

  00054	8b 4e 08	 mov	 ecx, DWORD PTR [esi+8]
  00057	85 c9		 test	 ecx, ecx
  00059	74 77		 je	 SHORT $LN14@DeleteAll

; 406  : 	{
; 407  : 		IChartCtrl *pChartCtrl = m_pMainBlockBaseData->GetMainAttributes().GetIChartCtrl();

  0005b	e8 00 00 00 00	 call	 ?GetMainAttributes@CMainBlockBaseData@@QAEAAVCMainAttributes@@XZ ; CMainBlockBaseData::GetMainAttributes
  00060	8b c8		 mov	 ecx, eax
  00062	e8 00 00 00 00	 call	 ?GetIChartCtrl@CMainAttributes@@QBEPAUIChartCtrl@@XZ ; CMainAttributes::GetIChartCtrl
  00067	89 45 e8	 mov	 DWORD PTR _pChartCtrl$1$[ebp], eax

; 408  : 		if( pChartCtrl)

  0006a	85 c0		 test	 eax, eax
  0006c	74 64		 je	 SHORT $LN14@DeleteAll

; 409  : 		{
; 410  : 			CGraphData &graphData = pGraph->GetGraphData();

  0006e	8b cb		 mov	 ecx, ebx
  00070	e8 00 00 00 00	 call	 ?GetGraphData@CGraphImp@@QAEAAVCGraphData@@XZ ; CGraphImp::GetGraphData
  00075	8b f8		 mov	 edi, eax

; 411  : 			//     :  - ojtaso (20070125)
; 412  : 			pChartCtrl->OnGraphDeleted(pGraph->GetGraphRQ(), graphData.GetGraphName(), graphData.GetIndicatorName());

  00077	8d 45 dc	 lea	 eax, DWORD PTR $T2[ebp]
  0007a	50		 push	 eax
  0007b	8b cf		 mov	 ecx, edi
  0007d	ff 15 00 00 00
	00		 call	 DWORD PTR __imp_?GetIndicatorName@CGraphData@@QBE?AV?$CStringT@DV?$StrTraitMFC_DLL@DV?$ChTraitsCRT@D@ATL@@@@@ATL@@XZ
  00083	8b d8		 mov	 ebx, eax
  00085	8d 45 e0	 lea	 eax, DWORD PTR $T3[ebp]
  00088	c7 45 fc 00 00
	00 00		 mov	 DWORD PTR __$EHRec$[ebp+8], 0
  0008f	50		 push	 eax
  00090	8b cf		 mov	 ecx, edi
  00092	ff 15 00 00 00
	00		 call	 DWORD PTR __imp_?GetGraphName@CGraphData@@QBE?AV?$CStringT@DV?$StrTraitMFC_DLL@DV?$ChTraitsCRT@D@ATL@@@@@ATL@@XZ
  00098	ff 33		 push	 DWORD PTR [ebx]
  0009a	8b 5d e4	 mov	 ebx, DWORD PTR _pGraph$1$[ebp]
  0009d	8b cb		 mov	 ecx, ebx
  0009f	ff 30		 push	 DWORD PTR [eax]
  000a1	8b 7d e8	 mov	 edi, DWORD PTR _pChartCtrl$1$[ebp]
  000a4	c6 45 fc 01	 mov	 BYTE PTR __$EHRec$[ebp+8], 1
  000a8	8b 03		 mov	 eax, DWORD PTR [ebx]
  000aa	8b 3f		 mov	 edi, DWORD PTR [edi]
  000ac	ff 50 1c	 call	 DWORD PTR [eax+28]
  000af	8b 4d e8	 mov	 ecx, DWORD PTR _pChartCtrl$1$[ebp]
  000b2	50		 push	 eax
  000b3	ff 97 80 01 00
	00		 call	 DWORD PTR [edi+384]
  000b9	8d 4d e0	 lea	 ecx, DWORD PTR $T3[ebp]
  000bc	ff 15 00 00 00
	00		 call	 DWORD PTR __imp_??1?$CStringT@DV?$StrTraitMFC_DLL@DV?$ChTraitsCRT@D@ATL@@@@@ATL@@QAE@XZ
  000c2	8d 4d dc	 lea	 ecx, DWORD PTR $T2[ebp]
  000c5	c7 45 fc ff ff
	ff ff		 mov	 DWORD PTR __$EHRec$[ebp+8], -1
  000cc	ff 15 00 00 00
	00		 call	 DWORD PTR __imp_??1?$CStringT@DV?$StrTraitMFC_DLL@DV?$ChTraitsCRT@D@ATL@@@@@ATL@@QAE@XZ
$LN14@DeleteAll:

; 424  : 	CString strGraphName(pGraph->GetGraphData().GetGraphName()),

  000d2	8d 45 ec	 lea	 eax, DWORD PTR _strGraphName$4[ebp]
  000d5	8b cb		 mov	 ecx, ebx
  000d7	50		 push	 eax
  000d8	e8 00 00 00 00	 call	 ?GetGraphData@CGraphImp@@QAEAAVCGraphData@@XZ ; CGraphImp::GetGraphData
  000dd	8b c8		 mov	 ecx, eax
  000df	ff 15 00 00 00
	00		 call	 DWORD PTR __imp_?GetGraphName@CGraphData@@QBE?AV?$CStringT@DV?$StrTraitMFC_DLL@DV?$ChTraitsCRT@D@ATL@@@@@ATL@@XZ

; 425  : 			strIndicatorName(pGraph->GetGraphData().GetIndicatorName());	

  000e5	8d 45 f0	 lea	 eax, DWORD PTR _strIndicatorName$5[ebp]
  000e8	c7 45 fc 02 00
	00 00		 mov	 DWORD PTR __$EHRec$[ebp+8], 2
  000ef	50		 push	 eax
  000f0	8b cb		 mov	 ecx, ebx
  000f2	e8 00 00 00 00	 call	 ?GetGraphData@CGraphImp@@QAEAAVCGraphData@@XZ ; CGraphImp::GetGraphData
  000f7	8b c8		 mov	 ecx, eax
  000f9	ff 15 00 00 00
	00		 call	 DWORD PTR __imp_?GetIndicatorName@CGraphData@@QBE?AV?$CStringT@DV?$StrTraitMFC_DLL@DV?$ChTraitsCRT@D@ATL@@@@@ATL@@XZ
; File C:\Program Files (x86)\Microsoft Visual Studio\2019\Community\VC\Tools\MSVC\14.29.30133\atlmfc\include\atlsimpstr.h

; 519  : 		return( GetData()->nDataLength );

  000ff	8b 45 ec	 mov	 eax, DWORD PTR _strGraphName$4[ebp]
; File D:\git\src\IBK\IBK_DRFN\ProjSrc\SrcChartEx\ChartOCX\ChartObject\VertScaleGroup.cpp

; 425  : 			strIndicatorName(pGraph->GetGraphData().GetIndicatorName());	

  00102	c6 45 fc 03	 mov	 BYTE PTR __$EHRec$[ebp+8], 3

; 426  : 	
; 427  : 	if(strGraphName.GetLength()>0 && strGraphName.GetAt(0)=='#')

  00106	83 78 f4 00	 cmp	 DWORD PTR [eax-12], 0
  0010a	7e 33		 jle	 SHORT $LN23@DeleteAll
  0010c	6a 00		 push	 0
  0010e	8d 4d ec	 lea	 ecx, DWORD PTR _strGraphName$4[ebp]
  00111	ff 15 00 00 00
	00		 call	 DWORD PTR __imp_?GetAt@?$CSimpleStringT@D$00@ATL@@QBEDH@Z
  00117	3c 23		 cmp	 al, 35			; 00000023H
  00119	75 24		 jne	 SHORT $LN23@DeleteAll

; 428  : 	{
; 429  : 		if(strIndicatorName.Compare("_Price MA_") !=0 && 

  0011b	68 00 00 00 00	 push	 OFFSET ??_C@_0L@NBHIHAGD@_Price?5MA_@
  00120	8d 4d f0	 lea	 ecx, DWORD PTR _strIndicatorName$5[ebp]
  00123	ff 15 00 00 00
	00		 call	 DWORD PTR __imp_?Compare@?$CStringT@DV?$StrTraitMFC_DLL@DV?$ChTraitsCRT@D@ATL@@@@@ATL@@QBEHPBD@Z
  00129	85 c0		 test	 eax, eax
  0012b	74 1b		 je	 SHORT $LN24@DeleteAll
  0012d	68 00 00 00 00	 push	 OFFSET ??_C@_0M@HCFJODHH@_Volume?5MA_@
  00132	8d 4d f0	 lea	 ecx, DWORD PTR _strIndicatorName$5[ebp]
  00135	ff 15 00 00 00
	00		 call	 DWORD PTR __imp_?Compare@?$CStringT@DV?$StrTraitMFC_DLL@DV?$ChTraitsCRT@D@ATL@@@@@ATL@@QBEHPBD@Z
  0013b	85 c0		 test	 eax, eax
  0013d	74 09		 je	 SHORT $LN24@DeleteAll
$LN23@DeleteAll:

; 430  : 			strIndicatorName.Compare("_Volume MA_") !=0)
; 431  : 			pGraph->DeletePacket( bIsOnlyNoTRData);
; 432  : 	}
; 433  : 	else
; 434  : 	{
; 435  : 		pGraph->DeletePacket( bIsOnlyNoTRData);
; 436  : 	}
; 437  : 
; 438  : 	// Y Scale    - ojtaso (20070807)
; 439  : 	if(m_lpSelectedGraph == pGraph)

  0013f	6a 01		 push	 1
  00141	8b cb		 mov	 ecx, ebx
  00143	e8 00 00 00 00	 call	 ?DeletePacket@CGraphImp@@QAEX_N@Z ; CGraphImp::DeletePacket
$LN24@DeleteAll:
  00148	39 9e 94 00 00
	00		 cmp	 DWORD PTR [esi+148], ebx
  0014e	75 0a		 jne	 SHORT $LN26@DeleteAll

; 440  : 		m_lpSelectedGraph = NULL;

  00150	c7 86 94 00 00
	00 00 00 00 00	 mov	 DWORD PTR [esi+148], 0
$LN26@DeleteAll:

; 441  : 
; 442  : 	// (2007/2/16 - Seung-Won, Bae) Remove in list after Deleting the Object.
; 443  : 	//		In Destructor, can be access the List.
; 444  : 	CGraphImp::Delete(pGraph);

  0015a	53		 push	 ebx
  0015b	e8 00 00 00 00	 call	 ?Delete@CGraphImp@@SAXPAV1@@Z ; CGraphImp::Delete
  00160	83 c4 04	 add	 esp, 4

; 445  : 
; 446  : 	POSITION pos = m_GraphList.Find(pGraph);

  00163	8d 4e 78	 lea	 ecx, DWORD PTR [esi+120]
  00166	6a 00		 push	 0
  00168	53		 push	 ebx
  00169	e8 00 00 00 00	 call	 ?Find@CObList@@QBEPAU__POSITION@@PAVCObject@@PAU2@@Z ; CObList::Find

; 447  : 	if(pos == NULL) return false;

  0016e	85 c0		 test	 eax, eax
  00170	74 27		 je	 SHORT $LN37@DeleteAll

; 448  : 	m_GraphList.RemoveAt(pos);

  00172	50		 push	 eax
  00173	8d 4e 78	 lea	 ecx, DWORD PTR [esi+120]
  00176	e8 00 00 00 00	 call	 ?RemoveAt@CObList@@QAEXPAU__POSITION@@@Z ; CObList::RemoveAt
; File C:\Program Files (x86)\Microsoft Visual Studio\2019\Community\VC\Tools\MSVC\14.29.30133\atlmfc\include\afxcoll.inl

; 410  : 	{ return m_nCount == 0; }

  0017b	83 be 84 00 00
	00 00		 cmp	 DWORD PTR [esi+132], 0
; File D:\git\src\IBK\IBK_DRFN\ProjSrc\SrcChartEx\ChartOCX\ChartObject\VertScaleGroup.cpp

; 1844 : 	if( !m_GraphList.IsEmpty() || m_pVertScaleGroupList == NULL || m_bOnDestructor) return false;

  00182	75 15		 jne	 SHORT $LN37@DeleteAll
  00184	8b 4e 0c	 mov	 ecx, DWORD PTR [esi+12]
  00187	85 c9		 test	 ecx, ecx
  00189	74 0e		 je	 SHORT $LN37@DeleteAll
  0018b	83 7e 04 00	 cmp	 DWORD PTR [esi+4], 0
  0018f	75 08		 jne	 SHORT $LN37@DeleteAll

; 1845 : 	return m_pVertScaleGroupList->DeleteVertScaleGroup( this, true);

  00191	6a 01		 push	 1
  00193	56		 push	 esi
  00194	e8 00 00 00 00	 call	 ?DeleteVertScaleGroup@CVertScaleGroupList@@QAE_NPAVCVertScaleGroup@@_N@Z ; CVertScaleGroupList::DeleteVertScaleGroup
$LN37@DeleteAll:

; 456  : 	return true;

  00199	8d 4d f0	 lea	 ecx, DWORD PTR _strIndicatorName$5[ebp]
  0019c	ff 15 00 00 00
	00		 call	 DWORD PTR __imp_??1?$CStringT@DV?$StrTraitMFC_DLL@DV?$ChTraitsCRT@D@ATL@@@@@ATL@@QAE@XZ
  001a2	8d 4d ec	 lea	 ecx, DWORD PTR _strGraphName$4[ebp]
  001a5	c7 45 fc ff ff
	ff ff		 mov	 DWORD PTR __$EHRec$[ebp+8], -1
  001ac	ff 15 00 00 00
	00		 call	 DWORD PTR __imp_??1?$CStringT@DV?$StrTraitMFC_DLL@DV?$ChTraitsCRT@D@ATL@@@@@ATL@@QAE@XZ
$LN22@DeleteAll:
; File C:\Program Files (x86)\Microsoft Visual Studio\2019\Community\VC\Tools\MSVC\14.29.30133\atlmfc\include\afxcoll.inl

; 410  : 	{ return m_nCount == 0; }

  001b2	83 be 84 00 00
	00 00		 cmp	 DWORD PTR [esi+132], 0
; File D:\git\src\IBK\IBK_DRFN\ProjSrc\SrcChartEx\ChartOCX\ChartObject\VertScaleGroup.cpp

; 465  : 	while( !m_GraphList.IsEmpty())

  001b9	0f 85 81 fe ff
	ff		 jne	 $LL2@DeleteAll
$LN3@DeleteAll:

; 468  : 		DeleteGraphWithNotify( pGraph);
; 469  : 	}
; 470  : }

  001bf	8b 4d f4	 mov	 ecx, DWORD PTR __$EHRec$[ebp]
  001c2	64 89 0d 00 00
	00 00		 mov	 DWORD PTR fs:0, ecx
  001c9	59		 pop	 ecx
  001ca	5f		 pop	 edi
  001cb	5e		 pop	 esi
  001cc	5b		 pop	 ebx
  001cd	8b e5		 mov	 esp, ebp
  001cf	5d		 pop	 ebp
  001d0	c3		 ret	 0
_TEXT	ENDS
;	COMDAT text$x
text$x	SEGMENT
__unwindfunclet$?DeleteAll@CVertScaleGroup@@QAEXXZ$0:
  00000	8d 4d dc	 lea	 ecx, DWORD PTR $T2[ebp]
  00003	ff 25 00 00 00
	00		 jmp	 DWORD PTR __imp_??1?$CStringT@DV?$StrTraitMFC_DLL@DV?$ChTraitsCRT@D@ATL@@@@@ATL@@QAE@XZ
__unwindfunclet$?DeleteAll@CVertScaleGroup@@QAEXXZ$1:
  00009	8d 4d e0	 lea	 ecx, DWORD PTR $T3[ebp]
  0000c	ff 25 00 00 00
	00		 jmp	 DWORD PTR __imp_??1?$CStringT@DV?$StrTraitMFC_DLL@DV?$ChTraitsCRT@D@ATL@@@@@ATL@@QAE@XZ
__unwindfunclet$?DeleteAll@CVertScaleGroup@@QAEXXZ$2:
  00012	8d 4d ec	 lea	 ecx, DWORD PTR _strGraphName$4[ebp]
  00015	ff 25 00 00 00
	00		 jmp	 DWORD PTR __imp_??1?$CStringT@DV?$StrTraitMFC_DLL@DV?$ChTraitsCRT@D@ATL@@@@@ATL@@QAE@XZ
__unwindfunclet$?DeleteAll@CVertScaleGroup@@QAEXXZ$3:
  0001b	8d 4d f0	 lea	 ecx, DWORD PTR _strIndicatorName$5[ebp]
  0001e	ff 25 00 00 00
	00		 jmp	 DWORD PTR __imp_??1?$CStringT@DV?$StrTraitMFC_DLL@DV?$ChTraitsCRT@D@ATL@@@@@ATL@@QAE@XZ
  00024	cc		 int	 3
  00025	cc		 int	 3
  00026	cc		 int	 3
  00027	cc		 int	 3
  00028	cc		 int	 3
__ehhandler$?DeleteAll@CVertScaleGroup@@QAEXXZ:
  00029	90		 npad	 1
  0002a	90		 npad	 1
  0002b	8b 54 24 08	 mov	 edx, DWORD PTR [esp+8]
  0002f	8d 42 0c	 lea	 eax, DWORD PTR [edx+12]
  00032	8b 4a d8	 mov	 ecx, DWORD PTR [edx-40]
  00035	33 c8		 xor	 ecx, eax
  00037	e8 00 00 00 00	 call	 @__security_check_cookie@4
  0003c	b8 00 00 00 00	 mov	 eax, OFFSET __ehfuncinfo$?DeleteAll@CVertScaleGroup@@QAEXXZ
  00041	e9 00 00 00 00	 jmp	 ___CxxFrameHandler3
text$x	ENDS
?DeleteAll@CVertScaleGroup@@QAEXXZ ENDP			; CVertScaleGroup::DeleteAll
; Function compile flags: /Ogtp
; File D:\git\src\IBK\IBK_DRFN\ProjSrc\SrcChartEx\ChartOCX\ChartObject\VertScaleGroup.cpp
; File C:\Program Files (x86)\Microsoft Visual Studio\2019\Community\VC\Tools\MSVC\14.29.30133\atlmfc\include\afxcoll.inl
; File D:\git\src\IBK\IBK_DRFN\ProjSrc\SrcChartEx\ChartOCX\ChartObject\VertScaleGroup.cpp
;	COMDAT ?DeleteGraph@CVertScaleGroup@@QAE_NPAVCGraphImp@@_N@Z
_TEXT	SEGMENT
_strGraphName$ = -16					; size = 4
__$EHRec$ = -12						; size = 12
_strIndicatorName$ = 8					; size = 4
_pGraph$ = 8						; size = 4
_bIsOnlyNoTRData$ = 12					; size = 1
?DeleteGraph@CVertScaleGroup@@QAE_NPAVCGraphImp@@_N@Z PROC ; CVertScaleGroup::DeleteGraph, COMDAT
; _this$ = ecx

; 422  : {

  00000	55		 push	 ebp
  00001	8b ec		 mov	 ebp, esp
  00003	6a ff		 push	 -1
  00005	68 00 00 00 00	 push	 __ehhandler$?DeleteGraph@CVertScaleGroup@@QAE_NPAVCGraphImp@@_N@Z
  0000a	64 a1 00 00 00
	00		 mov	 eax, DWORD PTR fs:0
  00010	50		 push	 eax
  00011	51		 push	 ecx
  00012	53		 push	 ebx
  00013	56		 push	 esi
  00014	57		 push	 edi
  00015	a1 00 00 00 00	 mov	 eax, DWORD PTR ___security_cookie
  0001a	33 c5		 xor	 eax, ebp
  0001c	50		 push	 eax
  0001d	8d 45 f4	 lea	 eax, DWORD PTR __$EHRec$[ebp]
  00020	64 a3 00 00 00
	00		 mov	 DWORD PTR fs:0, eax
  00026	8b f1		 mov	 esi, ecx

; 423  : 	assert(pGraph != NULL);
; 424  : 	CString strGraphName(pGraph->GetGraphData().GetGraphName()),

  00028	8b 7d 08	 mov	 edi, DWORD PTR _pGraph$[ebp]
  0002b	8d 45 f0	 lea	 eax, DWORD PTR _strGraphName$[ebp]
  0002e	50		 push	 eax
  0002f	8b cf		 mov	 ecx, edi
  00031	e8 00 00 00 00	 call	 ?GetGraphData@CGraphImp@@QAEAAVCGraphData@@XZ ; CGraphImp::GetGraphData
  00036	8b c8		 mov	 ecx, eax
  00038	ff 15 00 00 00
	00		 call	 DWORD PTR __imp_?GetGraphName@CGraphData@@QBE?AV?$CStringT@DV?$StrTraitMFC_DLL@DV?$ChTraitsCRT@D@ATL@@@@@ATL@@XZ

; 425  : 			strIndicatorName(pGraph->GetGraphData().GetIndicatorName());	

  0003e	8d 45 08	 lea	 eax, DWORD PTR _strIndicatorName$[ebp]
  00041	c7 45 fc 00 00
	00 00		 mov	 DWORD PTR __$EHRec$[ebp+8], 0
  00048	50		 push	 eax
  00049	8b cf		 mov	 ecx, edi
  0004b	e8 00 00 00 00	 call	 ?GetGraphData@CGraphImp@@QAEAAVCGraphData@@XZ ; CGraphImp::GetGraphData
  00050	8b c8		 mov	 ecx, eax
  00052	ff 15 00 00 00
	00		 call	 DWORD PTR __imp_?GetIndicatorName@CGraphData@@QBE?AV?$CStringT@DV?$StrTraitMFC_DLL@DV?$ChTraitsCRT@D@ATL@@@@@ATL@@XZ

; 426  : 	
; 427  : 	if(strGraphName.GetLength()>0 && strGraphName.GetAt(0)=='#')

  00058	8b 45 f0	 mov	 eax, DWORD PTR _strGraphName$[ebp]
  0005b	c6 45 fc 01	 mov	 BYTE PTR __$EHRec$[ebp+8], 1
  0005f	83 78 f4 00	 cmp	 DWORD PTR [eax-12], 0
  00063	7e 33		 jle	 SHORT $LN2@DeleteGrap
  00065	6a 00		 push	 0
  00067	8d 4d f0	 lea	 ecx, DWORD PTR _strGraphName$[ebp]
  0006a	ff 15 00 00 00
	00		 call	 DWORD PTR __imp_?GetAt@?$CSimpleStringT@D$00@ATL@@QBEDH@Z
  00070	3c 23		 cmp	 al, 35			; 00000023H
  00072	75 24		 jne	 SHORT $LN2@DeleteGrap

; 428  : 	{
; 429  : 		if(strIndicatorName.Compare("_Price MA_") !=0 && 

  00074	68 00 00 00 00	 push	 OFFSET ??_C@_0L@NBHIHAGD@_Price?5MA_@
  00079	8d 4d 08	 lea	 ecx, DWORD PTR _strIndicatorName$[ebp]
  0007c	ff 15 00 00 00
	00		 call	 DWORD PTR __imp_?Compare@?$CStringT@DV?$StrTraitMFC_DLL@DV?$ChTraitsCRT@D@ATL@@@@@ATL@@QBEHPBD@Z
  00082	85 c0		 test	 eax, eax
  00084	74 1c		 je	 SHORT $LN3@DeleteGrap
  00086	68 00 00 00 00	 push	 OFFSET ??_C@_0M@HCFJODHH@_Volume?5MA_@
  0008b	8d 4d 08	 lea	 ecx, DWORD PTR _strIndicatorName$[ebp]
  0008e	ff 15 00 00 00
	00		 call	 DWORD PTR __imp_?Compare@?$CStringT@DV?$StrTraitMFC_DLL@DV?$ChTraitsCRT@D@ATL@@@@@ATL@@QBEHPBD@Z
  00094	85 c0		 test	 eax, eax
  00096	74 0a		 je	 SHORT $LN3@DeleteGrap
$LN2@DeleteGrap:

; 430  : 			strIndicatorName.Compare("_Volume MA_") !=0)
; 431  : 			pGraph->DeletePacket( bIsOnlyNoTRData);
; 432  : 	}
; 433  : 	else
; 434  : 	{
; 435  : 		pGraph->DeletePacket( bIsOnlyNoTRData);
; 436  : 	}
; 437  : 
; 438  : 	// Y Scale    - ojtaso (20070807)
; 439  : 	if(m_lpSelectedGraph == pGraph)

  00098	ff 75 0c	 push	 DWORD PTR _bIsOnlyNoTRData$[ebp]
  0009b	8b cf		 mov	 ecx, edi
  0009d	e8 00 00 00 00	 call	 ?DeletePacket@CGraphImp@@QAEX_N@Z ; CGraphImp::DeletePacket
$LN3@DeleteGrap:
  000a2	39 be 94 00 00
	00		 cmp	 DWORD PTR [esi+148], edi
  000a8	75 0a		 jne	 SHORT $LN5@DeleteGrap

; 440  : 		m_lpSelectedGraph = NULL;

  000aa	c7 86 94 00 00
	00 00 00 00 00	 mov	 DWORD PTR [esi+148], 0
$LN5@DeleteGrap:

; 441  : 
; 442  : 	// (2007/2/16 - Seung-Won, Bae) Remove in list after Deleting the Object.
; 443  : 	//		In Destructor, can be access the List.
; 444  : 	CGraphImp::Delete(pGraph);

  000b4	57		 push	 edi
  000b5	e8 00 00 00 00	 call	 ?Delete@CGraphImp@@SAXPAV1@@Z ; CGraphImp::Delete
  000ba	83 c4 04	 add	 esp, 4

; 445  : 
; 446  : 	POSITION pos = m_GraphList.Find(pGraph);

  000bd	8d 5e 78	 lea	 ebx, DWORD PTR [esi+120]
  000c0	8b cb		 mov	 ecx, ebx
  000c2	6a 00		 push	 0
  000c4	57		 push	 edi
  000c5	e8 00 00 00 00	 call	 ?Find@CObList@@QBEPAU__POSITION@@PAVCObject@@PAU2@@Z ; CObList::Find

; 447  : 	if(pos == NULL) return false;

  000ca	85 c0		 test	 eax, eax
  000cc	75 04		 jne	 SHORT $LN6@DeleteGrap
  000ce	32 db		 xor	 bl, bl
  000d0	eb 28		 jmp	 SHORT $LN10@DeleteGrap
$LN6@DeleteGrap:

; 448  : 	m_GraphList.RemoveAt(pos);

  000d2	50		 push	 eax
  000d3	8b cb		 mov	 ecx, ebx
  000d5	e8 00 00 00 00	 call	 ?RemoveAt@CObList@@QAEXPAU__POSITION@@@Z ; CObList::RemoveAt
; File C:\Program Files (x86)\Microsoft Visual Studio\2019\Community\VC\Tools\MSVC\14.29.30133\atlmfc\include\afxcoll.inl

; 410  : 	{ return m_nCount == 0; }

  000da	83 be 84 00 00
	00 00		 cmp	 DWORD PTR [esi+132], 0
; File D:\git\src\IBK\IBK_DRFN\ProjSrc\SrcChartEx\ChartOCX\ChartObject\VertScaleGroup.cpp

; 1844 : 	if( !m_GraphList.IsEmpty() || m_pVertScaleGroupList == NULL || m_bOnDestructor) return false;

  000e1	75 15		 jne	 SHORT $LN17@DeleteGrap
  000e3	8b 4e 0c	 mov	 ecx, DWORD PTR [esi+12]
  000e6	85 c9		 test	 ecx, ecx
  000e8	74 0e		 je	 SHORT $LN17@DeleteGrap
  000ea	83 7e 04 00	 cmp	 DWORD PTR [esi+4], 0
  000ee	75 08		 jne	 SHORT $LN17@DeleteGrap

; 1845 : 	return m_pVertScaleGroupList->DeleteVertScaleGroup( this, true);

  000f0	6a 01		 push	 1
  000f2	56		 push	 esi
  000f3	e8 00 00 00 00	 call	 ?DeleteVertScaleGroup@CVertScaleGroupList@@QAE_NPAVCVertScaleGroup@@_N@Z ; CVertScaleGroupList::DeleteVertScaleGroup
$LN17@DeleteGrap:

; 449  : 
; 450  : 	// (2006/12/10 - Seung-Won, Bae) Support Self Destruction.
; 451  : 	//		Graph has Deleted in VScaleGroup's Destructor.
; 452  : 	//		Return Value must be false for No-More Action in DeleteGraphWithNotify().
; 453  : 	//		OCX Notify was processed in another DeleteGraphWithNotify() of VScaleGroup's Destructor.
; 454  : 	DeleteEmptyGroup();
; 455  : 
; 456  : 	return true;

  000f8	b3 01		 mov	 bl, 1
$LN10@DeleteGrap:
  000fa	8d 4d 08	 lea	 ecx, DWORD PTR _strIndicatorName$[ebp]
  000fd	ff 15 00 00 00
	00		 call	 DWORD PTR __imp_??1?$CStringT@DV?$StrTraitMFC_DLL@DV?$ChTraitsCRT@D@ATL@@@@@ATL@@QAE@XZ
  00103	8d 4d f0	 lea	 ecx, DWORD PTR _strGraphName$[ebp]
  00106	ff 15 00 00 00
	00		 call	 DWORD PTR __imp_??1?$CStringT@DV?$StrTraitMFC_DLL@DV?$ChTraitsCRT@D@ATL@@@@@ATL@@QAE@XZ
  0010c	8a c3		 mov	 al, bl

; 457  : }

  0010e	8b 4d f4	 mov	 ecx, DWORD PTR __$EHRec$[ebp]
  00111	64 89 0d 00 00
	00 00		 mov	 DWORD PTR fs:0, ecx
  00118	59		 pop	 ecx
  00119	5f		 pop	 edi
  0011a	5e		 pop	 esi
  0011b	5b		 pop	 ebx
  0011c	8b e5		 mov	 esp, ebp
  0011e	5d		 pop	 ebp
  0011f	c2 08 00	 ret	 8
_TEXT	ENDS
;	COMDAT text$x
text$x	SEGMENT
__unwindfunclet$?DeleteGraph@CVertScaleGroup@@QAE_NPAVCGraphImp@@_N@Z$0:
  00000	8d 4d f0	 lea	 ecx, DWORD PTR _strGraphName$[ebp]
  00003	ff 25 00 00 00
	00		 jmp	 DWORD PTR __imp_??1?$CStringT@DV?$StrTraitMFC_DLL@DV?$ChTraitsCRT@D@ATL@@@@@ATL@@QAE@XZ
__unwindfunclet$?DeleteGraph@CVertScaleGroup@@QAE_NPAVCGraphImp@@_N@Z$1:
  00009	8d 4d 08	 lea	 ecx, DWORD PTR _strIndicatorName$[ebp]
  0000c	ff 25 00 00 00
	00		 jmp	 DWORD PTR __imp_??1?$CStringT@DV?$StrTraitMFC_DLL@DV?$ChTraitsCRT@D@ATL@@@@@ATL@@QAE@XZ
  00012	cc		 int	 3
  00013	cc		 int	 3
  00014	cc		 int	 3
  00015	cc		 int	 3
  00016	cc		 int	 3
__ehhandler$?DeleteGraph@CVertScaleGroup@@QAE_NPAVCGraphImp@@_N@Z:
  00017	90		 npad	 1
  00018	90		 npad	 1
  00019	8b 54 24 08	 mov	 edx, DWORD PTR [esp+8]
  0001d	8d 42 0c	 lea	 eax, DWORD PTR [edx+12]
  00020	8b 4a ec	 mov	 ecx, DWORD PTR [edx-20]
  00023	33 c8		 xor	 ecx, eax
  00025	e8 00 00 00 00	 call	 @__security_check_cookie@4
  0002a	b8 00 00 00 00	 mov	 eax, OFFSET __ehfuncinfo$?DeleteGraph@CVertScaleGroup@@QAE_NPAVCGraphImp@@_N@Z
  0002f	e9 00 00 00 00	 jmp	 ___CxxFrameHandler3
text$x	ENDS
?DeleteGraph@CVertScaleGroup@@QAE_NPAVCGraphImp@@_N@Z ENDP ; CVertScaleGroup::DeleteGraph
; Function compile flags: /Ogtp
; File D:\git\src\IBK\IBK_DRFN\ProjSrc\SrcChartEx\ChartOCX\ChartObject\VertScaleGroup.cpp
; File C:\Program Files (x86)\Microsoft Visual Studio\2019\Community\VC\Tools\MSVC\14.29.30133\atlmfc\include\afxcoll.inl
; File D:\git\src\IBK\IBK_DRFN\ProjSrc\SrcChartEx\ChartOCX\ChartObject\VertScaleGroup.cpp
;	COMDAT ?DeleteGraphWithNotify@CVertScaleGroup@@QAE_NPAVCGraphImp@@_N@Z
_TEXT	SEGMENT
$T2 = -24						; size = 4
$T3 = -20						; size = 4
_pChartCtrl$1$ = -16					; size = 4
_strGraphName$4 = -16					; size = 4
__$EHRec$ = -12						; size = 12
_strIndicatorName$5 = 8					; size = 4
_pGraph$ = 8						; size = 4
_bIsOnlyNoTRData$ = 12					; size = 1
?DeleteGraphWithNotify@CVertScaleGroup@@QAE_NPAVCGraphImp@@_N@Z PROC ; CVertScaleGroup::DeleteGraphWithNotify, COMDAT
; _this$ = ecx

; 399  : {

  00000	55		 push	 ebp
  00001	8b ec		 mov	 ebp, esp
  00003	6a ff		 push	 -1
  00005	68 00 00 00 00	 push	 __ehhandler$?DeleteGraphWithNotify@CVertScaleGroup@@QAE_NPAVCGraphImp@@_N@Z
  0000a	64 a1 00 00 00
	00		 mov	 eax, DWORD PTR fs:0
  00010	50		 push	 eax
  00011	83 ec 0c	 sub	 esp, 12			; 0000000cH
  00014	53		 push	 ebx
  00015	56		 push	 esi
  00016	57		 push	 edi
  00017	a1 00 00 00 00	 mov	 eax, DWORD PTR ___security_cookie
  0001c	33 c5		 xor	 eax, ebp
  0001e	50		 push	 eax
  0001f	8d 45 f4	 lea	 eax, DWORD PTR __$EHRec$[ebp]
  00022	64 a3 00 00 00
	00		 mov	 DWORD PTR fs:0, eax
  00028	8b d9		 mov	 ebx, ecx

; 400  : 	if( !pGraph) return false;

  0002a	8b 7d 08	 mov	 edi, DWORD PTR _pGraph$[ebp]
  0002d	85 ff		 test	 edi, edi
  0002f	75 16		 jne	 SHORT $LN2@DeleteGrap
  00031	32 c0		 xor	 al, al

; 418  : }

  00033	8b 4d f4	 mov	 ecx, DWORD PTR __$EHRec$[ebp]
  00036	64 89 0d 00 00
	00 00		 mov	 DWORD PTR fs:0, ecx
  0003d	59		 pop	 ecx
  0003e	5f		 pop	 edi
  0003f	5e		 pop	 esi
  00040	5b		 pop	 ebx
  00041	8b e5		 mov	 esp, ebp
  00043	5d		 pop	 ebp
  00044	c2 08 00	 ret	 8
$LN2@DeleteGrap:

; 401  : 
; 402  : 	// (2006/11/17 - Seung-Won, Bae) Notify to OCX
; 403  : 	// (2007/1/2 - Seung-Won, Bae) Vertical Scale Group can be deleted in DeleteGraph()
; 404  : 	//		So. Do Everything before DeleteGraph().
; 405  : 	if( m_pMainBlockBaseData)

  00047	8b 4b 08	 mov	 ecx, DWORD PTR [ebx+8]
  0004a	85 c9		 test	 ecx, ecx
  0004c	74 77		 je	 SHORT $LN4@DeleteGrap

; 406  : 	{
; 407  : 		IChartCtrl *pChartCtrl = m_pMainBlockBaseData->GetMainAttributes().GetIChartCtrl();

  0004e	e8 00 00 00 00	 call	 ?GetMainAttributes@CMainBlockBaseData@@QAEAAVCMainAttributes@@XZ ; CMainBlockBaseData::GetMainAttributes
  00053	8b c8		 mov	 ecx, eax
  00055	e8 00 00 00 00	 call	 ?GetIChartCtrl@CMainAttributes@@QBEPAUIChartCtrl@@XZ ; CMainAttributes::GetIChartCtrl
  0005a	89 45 f0	 mov	 DWORD PTR _pChartCtrl$1$[ebp], eax

; 408  : 		if( pChartCtrl)

  0005d	85 c0		 test	 eax, eax
  0005f	74 64		 je	 SHORT $LN4@DeleteGrap

; 409  : 		{
; 410  : 			CGraphData &graphData = pGraph->GetGraphData();

  00061	8b cf		 mov	 ecx, edi
  00063	e8 00 00 00 00	 call	 ?GetGraphData@CGraphImp@@QAEAAVCGraphData@@XZ ; CGraphImp::GetGraphData
  00068	8b f0		 mov	 esi, eax

; 411  : 			//     :  - ojtaso (20070125)
; 412  : 			pChartCtrl->OnGraphDeleted(pGraph->GetGraphRQ(), graphData.GetGraphName(), graphData.GetIndicatorName());

  0006a	8d 45 e8	 lea	 eax, DWORD PTR $T2[ebp]
  0006d	50		 push	 eax
  0006e	8b ce		 mov	 ecx, esi
  00070	ff 15 00 00 00
	00		 call	 DWORD PTR __imp_?GetIndicatorName@CGraphData@@QBE?AV?$CStringT@DV?$StrTraitMFC_DLL@DV?$ChTraitsCRT@D@ATL@@@@@ATL@@XZ
  00076	8b f8		 mov	 edi, eax
  00078	8d 45 ec	 lea	 eax, DWORD PTR $T3[ebp]
  0007b	c7 45 fc 00 00
	00 00		 mov	 DWORD PTR __$EHRec$[ebp+8], 0
  00082	50		 push	 eax
  00083	8b ce		 mov	 ecx, esi
  00085	ff 15 00 00 00
	00		 call	 DWORD PTR __imp_?GetGraphName@CGraphData@@QBE?AV?$CStringT@DV?$StrTraitMFC_DLL@DV?$ChTraitsCRT@D@ATL@@@@@ATL@@XZ
  0008b	ff 37		 push	 DWORD PTR [edi]
  0008d	8b 7d 08	 mov	 edi, DWORD PTR _pGraph$[ebp]
  00090	8b cf		 mov	 ecx, edi
  00092	ff 30		 push	 DWORD PTR [eax]
  00094	8b 75 f0	 mov	 esi, DWORD PTR _pChartCtrl$1$[ebp]
  00097	c6 45 fc 01	 mov	 BYTE PTR __$EHRec$[ebp+8], 1
  0009b	8b 07		 mov	 eax, DWORD PTR [edi]
  0009d	8b 36		 mov	 esi, DWORD PTR [esi]
  0009f	ff 50 1c	 call	 DWORD PTR [eax+28]
  000a2	8b 4d f0	 mov	 ecx, DWORD PTR _pChartCtrl$1$[ebp]
  000a5	50		 push	 eax
  000a6	ff 96 80 01 00
	00		 call	 DWORD PTR [esi+384]
  000ac	8d 4d ec	 lea	 ecx, DWORD PTR $T3[ebp]
  000af	ff 15 00 00 00
	00		 call	 DWORD PTR __imp_??1?$CStringT@DV?$StrTraitMFC_DLL@DV?$ChTraitsCRT@D@ATL@@@@@ATL@@QAE@XZ
  000b5	8d 4d e8	 lea	 ecx, DWORD PTR $T2[ebp]
  000b8	c7 45 fc ff ff
	ff ff		 mov	 DWORD PTR __$EHRec$[ebp+8], -1
  000bf	ff 15 00 00 00
	00		 call	 DWORD PTR __imp_??1?$CStringT@DV?$StrTraitMFC_DLL@DV?$ChTraitsCRT@D@ATL@@@@@ATL@@QAE@XZ
$LN4@DeleteGrap:

; 424  : 	CString strGraphName(pGraph->GetGraphData().GetGraphName()),

  000c5	8d 45 f0	 lea	 eax, DWORD PTR _strGraphName$4[ebp]
  000c8	8b cf		 mov	 ecx, edi
  000ca	50		 push	 eax
  000cb	e8 00 00 00 00	 call	 ?GetGraphData@CGraphImp@@QAEAAVCGraphData@@XZ ; CGraphImp::GetGraphData
  000d0	8b c8		 mov	 ecx, eax
  000d2	ff 15 00 00 00
	00		 call	 DWORD PTR __imp_?GetGraphName@CGraphData@@QBE?AV?$CStringT@DV?$StrTraitMFC_DLL@DV?$ChTraitsCRT@D@ATL@@@@@ATL@@XZ

; 425  : 			strIndicatorName(pGraph->GetGraphData().GetIndicatorName());	

  000d8	8d 45 08	 lea	 eax, DWORD PTR _strIndicatorName$5[ebp]
  000db	c7 45 fc 02 00
	00 00		 mov	 DWORD PTR __$EHRec$[ebp+8], 2
  000e2	50		 push	 eax
  000e3	8b cf		 mov	 ecx, edi
  000e5	e8 00 00 00 00	 call	 ?GetGraphData@CGraphImp@@QAEAAVCGraphData@@XZ ; CGraphImp::GetGraphData
  000ea	8b c8		 mov	 ecx, eax
  000ec	ff 15 00 00 00
	00		 call	 DWORD PTR __imp_?GetIndicatorName@CGraphData@@QBE?AV?$CStringT@DV?$StrTraitMFC_DLL@DV?$ChTraitsCRT@D@ATL@@@@@ATL@@XZ

; 426  : 	
; 427  : 	if(strGraphName.GetLength()>0 && strGraphName.GetAt(0)=='#')

  000f2	8b 45 f0	 mov	 eax, DWORD PTR _strGraphName$4[ebp]
  000f5	c6 45 fc 03	 mov	 BYTE PTR __$EHRec$[ebp+8], 3
  000f9	83 78 f4 00	 cmp	 DWORD PTR [eax-12], 0
  000fd	7e 33		 jle	 SHORT $LN13@DeleteGrap
  000ff	6a 00		 push	 0
  00101	8d 4d f0	 lea	 ecx, DWORD PTR _strGraphName$4[ebp]
  00104	ff 15 00 00 00
	00		 call	 DWORD PTR __imp_?GetAt@?$CSimpleStringT@D$00@ATL@@QBEDH@Z
  0010a	3c 23		 cmp	 al, 35			; 00000023H
  0010c	75 24		 jne	 SHORT $LN13@DeleteGrap

; 428  : 	{
; 429  : 		if(strIndicatorName.Compare("_Price MA_") !=0 && 

  0010e	68 00 00 00 00	 push	 OFFSET ??_C@_0L@NBHIHAGD@_Price?5MA_@
  00113	8d 4d 08	 lea	 ecx, DWORD PTR _strIndicatorName$5[ebp]
  00116	ff 15 00 00 00
	00		 call	 DWORD PTR __imp_?Compare@?$CStringT@DV?$StrTraitMFC_DLL@DV?$ChTraitsCRT@D@ATL@@@@@ATL@@QBEHPBD@Z
  0011c	85 c0		 test	 eax, eax
  0011e	74 1c		 je	 SHORT $LN14@DeleteGrap
  00120	68 00 00 00 00	 push	 OFFSET ??_C@_0M@HCFJODHH@_Volume?5MA_@
  00125	8d 4d 08	 lea	 ecx, DWORD PTR _strIndicatorName$5[ebp]
  00128	ff 15 00 00 00
	00		 call	 DWORD PTR __imp_?Compare@?$CStringT@DV?$StrTraitMFC_DLL@DV?$ChTraitsCRT@D@ATL@@@@@ATL@@QBEHPBD@Z
  0012e	85 c0		 test	 eax, eax
  00130	74 0a		 je	 SHORT $LN14@DeleteGrap
$LN13@DeleteGrap:

; 430  : 			strIndicatorName.Compare("_Volume MA_") !=0)
; 431  : 			pGraph->DeletePacket( bIsOnlyNoTRData);
; 432  : 	}
; 433  : 	else
; 434  : 	{
; 435  : 		pGraph->DeletePacket( bIsOnlyNoTRData);
; 436  : 	}
; 437  : 
; 438  : 	// Y Scale    - ojtaso (20070807)
; 439  : 	if(m_lpSelectedGraph == pGraph)

  00132	ff 75 0c	 push	 DWORD PTR _bIsOnlyNoTRData$[ebp]
  00135	8b cf		 mov	 ecx, edi
  00137	e8 00 00 00 00	 call	 ?DeletePacket@CGraphImp@@QAEX_N@Z ; CGraphImp::DeletePacket
$LN14@DeleteGrap:
  0013c	39 bb 94 00 00
	00		 cmp	 DWORD PTR [ebx+148], edi
  00142	75 0a		 jne	 SHORT $LN16@DeleteGrap

; 440  : 		m_lpSelectedGraph = NULL;

  00144	c7 83 94 00 00
	00 00 00 00 00	 mov	 DWORD PTR [ebx+148], 0
$LN16@DeleteGrap:

; 441  : 
; 442  : 	// (2007/2/16 - Seung-Won, Bae) Remove in list after Deleting the Object.
; 443  : 	//		In Destructor, can be access the List.
; 444  : 	CGraphImp::Delete(pGraph);

  0014e	57		 push	 edi
  0014f	e8 00 00 00 00	 call	 ?Delete@CGraphImp@@SAXPAV1@@Z ; CGraphImp::Delete
  00154	83 c4 04	 add	 esp, 4

; 445  : 
; 446  : 	POSITION pos = m_GraphList.Find(pGraph);

  00157	8d 4b 78	 lea	 ecx, DWORD PTR [ebx+120]
  0015a	6a 00		 push	 0
  0015c	57		 push	 edi
  0015d	e8 00 00 00 00	 call	 ?Find@CObList@@QBEPAU__POSITION@@PAVCObject@@PAU2@@Z ; CObList::Find

; 447  : 	if(pos == NULL) return false;

  00162	85 c0		 test	 eax, eax
  00164	74 27		 je	 SHORT $LN27@DeleteGrap

; 448  : 	m_GraphList.RemoveAt(pos);

  00166	50		 push	 eax
  00167	8d 4b 78	 lea	 ecx, DWORD PTR [ebx+120]
  0016a	e8 00 00 00 00	 call	 ?RemoveAt@CObList@@QAEXPAU__POSITION@@@Z ; CObList::RemoveAt
; File C:\Program Files (x86)\Microsoft Visual Studio\2019\Community\VC\Tools\MSVC\14.29.30133\atlmfc\include\afxcoll.inl

; 410  : 	{ return m_nCount == 0; }

  0016f	83 bb 84 00 00
	00 00		 cmp	 DWORD PTR [ebx+132], 0
; File D:\git\src\IBK\IBK_DRFN\ProjSrc\SrcChartEx\ChartOCX\ChartObject\VertScaleGroup.cpp

; 1844 : 	if( !m_GraphList.IsEmpty() || m_pVertScaleGroupList == NULL || m_bOnDestructor) return false;

  00176	75 15		 jne	 SHORT $LN27@DeleteGrap
  00178	8b 4b 0c	 mov	 ecx, DWORD PTR [ebx+12]
  0017b	85 c9		 test	 ecx, ecx
  0017d	74 0e		 je	 SHORT $LN27@DeleteGrap
  0017f	83 7b 04 00	 cmp	 DWORD PTR [ebx+4], 0
  00183	75 08		 jne	 SHORT $LN27@DeleteGrap

; 1845 : 	return m_pVertScaleGroupList->DeleteVertScaleGroup( this, true);

  00185	6a 01		 push	 1
  00187	53		 push	 ebx
  00188	e8 00 00 00 00	 call	 ?DeleteVertScaleGroup@CVertScaleGroupList@@QAE_NPAVCVertScaleGroup@@_N@Z ; CVertScaleGroupList::DeleteVertScaleGroup
$LN27@DeleteGrap:

; 456  : 	return true;

  0018d	8d 4d 08	 lea	 ecx, DWORD PTR _strIndicatorName$5[ebp]
  00190	ff 15 00 00 00
	00		 call	 DWORD PTR __imp_??1?$CStringT@DV?$StrTraitMFC_DLL@DV?$ChTraitsCRT@D@ATL@@@@@ATL@@QAE@XZ
  00196	8d 4d f0	 lea	 ecx, DWORD PTR _strGraphName$4[ebp]
  00199	ff 15 00 00 00
	00		 call	 DWORD PTR __imp_??1?$CStringT@DV?$StrTraitMFC_DLL@DV?$ChTraitsCRT@D@ATL@@@@@ATL@@QAE@XZ

; 413  : 		}
; 414  : 	}
; 415  : 
; 416  : 	DeleteGraph( pGraph, bIsOnlyNoTRData);
; 417  : 	return true;

  0019f	b0 01		 mov	 al, 1

; 418  : }

  001a1	8b 4d f4	 mov	 ecx, DWORD PTR __$EHRec$[ebp]
  001a4	64 89 0d 00 00
	00 00		 mov	 DWORD PTR fs:0, ecx
  001ab	59		 pop	 ecx
  001ac	5f		 pop	 edi
  001ad	5e		 pop	 esi
  001ae	5b		 pop	 ebx
  001af	8b e5		 mov	 esp, ebp
  001b1	5d		 pop	 ebp
  001b2	c2 08 00	 ret	 8
_TEXT	ENDS
;	COMDAT text$x
text$x	SEGMENT
__unwindfunclet$?DeleteGraphWithNotify@CVertScaleGroup@@QAE_NPAVCGraphImp@@_N@Z$0:
  00000	8d 4d e8	 lea	 ecx, DWORD PTR $T2[ebp]
  00003	ff 25 00 00 00
	00		 jmp	 DWORD PTR __imp_??1?$CStringT@DV?$StrTraitMFC_DLL@DV?$ChTraitsCRT@D@ATL@@@@@ATL@@QAE@XZ
__unwindfunclet$?DeleteGraphWithNotify@CVertScaleGroup@@QAE_NPAVCGraphImp@@_N@Z$1:
  00009	8d 4d ec	 lea	 ecx, DWORD PTR $T3[ebp]
  0000c	ff 25 00 00 00
	00		 jmp	 DWORD PTR __imp_??1?$CStringT@DV?$StrTraitMFC_DLL@DV?$ChTraitsCRT@D@ATL@@@@@ATL@@QAE@XZ
__unwindfunclet$?DeleteGraphWithNotify@CVertScaleGroup@@QAE_NPAVCGraphImp@@_N@Z$2:
  00012	8d 4d f0	 lea	 ecx, DWORD PTR _strGraphName$4[ebp]
  00015	ff 25 00 00 00
	00		 jmp	 DWORD PTR __imp_??1?$CStringT@DV?$StrTraitMFC_DLL@DV?$ChTraitsCRT@D@ATL@@@@@ATL@@QAE@XZ
__unwindfunclet$?DeleteGraphWithNotify@CVertScaleGroup@@QAE_NPAVCGraphImp@@_N@Z$3:
  0001b	8d 4d 08	 lea	 ecx, DWORD PTR _strIndicatorName$5[ebp]
  0001e	ff 25 00 00 00
	00		 jmp	 DWORD PTR __imp_??1?$CStringT@DV?$StrTraitMFC_DLL@DV?$ChTraitsCRT@D@ATL@@@@@ATL@@QAE@XZ
  00024	cc		 int	 3
  00025	cc		 int	 3
  00026	cc		 int	 3
  00027	cc		 int	 3
  00028	cc		 int	 3
__ehhandler$?DeleteGraphWithNotify@CVertScaleGroup@@QAE_NPAVCGraphImp@@_N@Z:
  00029	90		 npad	 1
  0002a	90		 npad	 1
  0002b	8b 54 24 08	 mov	 edx, DWORD PTR [esp+8]
  0002f	8d 42 0c	 lea	 eax, DWORD PTR [edx+12]
  00032	8b 4a e4	 mov	 ecx, DWORD PTR [edx-28]
  00035	33 c8		 xor	 ecx, eax
  00037	e8 00 00 00 00	 call	 @__security_check_cookie@4
  0003c	b8 00 00 00 00	 mov	 eax, OFFSET __ehfuncinfo$?DeleteGraphWithNotify@CVertScaleGroup@@QAE_NPAVCGraphImp@@_N@Z
  00041	e9 00 00 00 00	 jmp	 ___CxxFrameHandler3
text$x	ENDS
?DeleteGraphWithNotify@CVertScaleGroup@@QAE_NPAVCGraphImp@@_N@Z ENDP ; CVertScaleGroup::DeleteGraphWithNotify
; Function compile flags: /Ogtp
; File D:\git\src\IBK\IBK_DRFN\ProjSrc\SrcChartEx\ChartOCX\ChartObject\VertScaleGroup.cpp
;	COMDAT ?MakeGraph@CVertScaleGroup@@QAE_NPAXPAD_N@Z
_TEXT	SEGMENT
__$EHRec$ = -12						; size = 12
$T2 = 8							; size = 4
_pPacketRQ$ = 8						; size = 4
_pChartCtrl$1$ = 12					; size = 4
_p_szGraphData$ = 12					; size = 4
_bIsAddTail$ = 16					; size = 1
$T3 = 16						; size = 4
?MakeGraph@CVertScaleGroup@@QAE_NPAXPAD_N@Z PROC	; CVertScaleGroup::MakeGraph, COMDAT
; _this$ = ecx

; 375  : {

  00000	55		 push	 ebp
  00001	8b ec		 mov	 ebp, esp
  00003	6a ff		 push	 -1
  00005	68 00 00 00 00	 push	 __ehhandler$?MakeGraph@CVertScaleGroup@@QAE_NPAXPAD_N@Z
  0000a	64 a1 00 00 00
	00		 mov	 eax, DWORD PTR fs:0
  00010	50		 push	 eax
  00011	53		 push	 ebx
  00012	56		 push	 esi
  00013	57		 push	 edi
  00014	a1 00 00 00 00	 mov	 eax, DWORD PTR ___security_cookie
  00019	33 c5		 xor	 eax, ebp
  0001b	50		 push	 eax
  0001c	8d 45 f4	 lea	 eax, DWORD PTR __$EHRec$[ebp]
  0001f	64 a3 00 00 00
	00		 mov	 DWORD PTR fs:0, eax
  00025	8b f1		 mov	 esi, ecx

; 376  : 	if( !p_szGraphData) return false;

  00027	8b 45 0c	 mov	 eax, DWORD PTR _p_szGraphData$[ebp]
  0002a	85 c0		 test	 eax, eax
  0002c	0f 84 b1 00 00
	00		 je	 $LN14@MakeGraph

; 377  : 	if( !*p_szGraphData) return false;

  00032	80 38 00	 cmp	 BYTE PTR [eax], 0
  00035	0f 84 a8 00 00
	00		 je	 $LN14@MakeGraph

; 378  : 
; 379  : 	CGraphImp* pGraph = MakeNewGraph(pPacketRQ, p_szGraphData);

  0003b	50		 push	 eax
  0003c	ff 75 08	 push	 DWORD PTR _pPacketRQ$[ebp]
  0003f	e8 00 00 00 00	 call	 ?MakeNewGraph@CVertScaleGroup@@AAEPAVCGraphImp@@PAXPAD@Z ; CVertScaleGroup::MakeNewGraph
  00044	8b d8		 mov	 ebx, eax

; 380  : 	if(pGraph == NULL) return false;

  00046	85 db		 test	 ebx, ebx
  00048	0f 84 95 00 00
	00		 je	 $LN14@MakeGraph

; 381  : 
; 382  : 	AddGraph(pGraph, bIsAddTail);

  0004e	ff 75 10	 push	 DWORD PTR _bIsAddTail$[ebp]
  00051	8b ce		 mov	 ecx, esi
  00053	53		 push	 ebx
  00054	e8 00 00 00 00	 call	 ?AddGraph@CVertScaleGroup@@QAEXPAVCGraphImp@@_N@Z ; CVertScaleGroup::AddGraph

; 383  : 
; 384  : 	// (2006/11/17 - Seung-Won, Bae) Notify to OCX
; 385  : 	if( m_pMainBlockBaseData)

  00059	8b 4e 08	 mov	 ecx, DWORD PTR [esi+8]
  0005c	85 c9		 test	 ecx, ecx
  0005e	74 6d		 je	 SHORT $LN6@MakeGraph

; 386  : 	{
; 387  : 		IChartCtrl *pChartCtrl = m_pMainBlockBaseData->GetMainAttributes().GetIChartCtrl();

  00060	e8 00 00 00 00	 call	 ?GetMainAttributes@CMainBlockBaseData@@QAEAAVCMainAttributes@@XZ ; CMainBlockBaseData::GetMainAttributes
  00065	8b c8		 mov	 ecx, eax
  00067	e8 00 00 00 00	 call	 ?GetIChartCtrl@CMainAttributes@@QBEPAUIChartCtrl@@XZ ; CMainAttributes::GetIChartCtrl
  0006c	89 45 0c	 mov	 DWORD PTR _pChartCtrl$1$[ebp], eax

; 388  : 		if( pChartCtrl)

  0006f	85 c0		 test	 eax, eax
  00071	74 5a		 je	 SHORT $LN6@MakeGraph

; 389  : 		{
; 390  : 			CGraphData &graphData = pGraph->GetGraphData();

  00073	8b cb		 mov	 ecx, ebx
  00075	e8 00 00 00 00	 call	 ?GetGraphData@CGraphImp@@QAEAAVCGraphData@@XZ ; CGraphImp::GetGraphData
  0007a	8b f0		 mov	 esi, eax

; 391  : 			pChartCtrl->OnGraphAdded( pGraph->GetGraphRQ(), graphData.GetGraphName(), graphData.GetIndicatorName());

  0007c	8d 45 10	 lea	 eax, DWORD PTR $T3[ebp]
  0007f	50		 push	 eax
  00080	8b ce		 mov	 ecx, esi
  00082	ff 15 00 00 00
	00		 call	 DWORD PTR __imp_?GetIndicatorName@CGraphData@@QBE?AV?$CStringT@DV?$StrTraitMFC_DLL@DV?$ChTraitsCRT@D@ATL@@@@@ATL@@XZ
  00088	8b f8		 mov	 edi, eax
  0008a	8d 45 08	 lea	 eax, DWORD PTR $T2[ebp]
  0008d	c7 45 fc 00 00
	00 00		 mov	 DWORD PTR __$EHRec$[ebp+8], 0
  00094	50		 push	 eax
  00095	8b ce		 mov	 ecx, esi
  00097	ff 15 00 00 00
	00		 call	 DWORD PTR __imp_?GetGraphName@CGraphData@@QBE?AV?$CStringT@DV?$StrTraitMFC_DLL@DV?$ChTraitsCRT@D@ATL@@@@@ATL@@XZ
  0009d	ff 37		 push	 DWORD PTR [edi]
  0009f	8b 75 0c	 mov	 esi, DWORD PTR _pChartCtrl$1$[ebp]
  000a2	8b cb		 mov	 ecx, ebx
  000a4	ff 30		 push	 DWORD PTR [eax]
  000a6	8b 03		 mov	 eax, DWORD PTR [ebx]
  000a8	c6 45 fc 01	 mov	 BYTE PTR __$EHRec$[ebp+8], 1
  000ac	8b 36		 mov	 esi, DWORD PTR [esi]
  000ae	ff 50 1c	 call	 DWORD PTR [eax+28]
  000b1	8b 4d 0c	 mov	 ecx, DWORD PTR _pChartCtrl$1$[ebp]
  000b4	50		 push	 eax
  000b5	ff 96 7c 01 00
	00		 call	 DWORD PTR [esi+380]
  000bb	8d 4d 08	 lea	 ecx, DWORD PTR $T2[ebp]
  000be	ff 15 00 00 00
	00		 call	 DWORD PTR __imp_??1?$CStringT@DV?$StrTraitMFC_DLL@DV?$ChTraitsCRT@D@ATL@@@@@ATL@@QAE@XZ
  000c4	8d 4d 10	 lea	 ecx, DWORD PTR $T3[ebp]
  000c7	ff 15 00 00 00
	00		 call	 DWORD PTR __imp_??1?$CStringT@DV?$StrTraitMFC_DLL@DV?$ChTraitsCRT@D@ATL@@@@@ATL@@QAE@XZ
$LN6@MakeGraph:

; 392  : 		}
; 393  : 	}
; 394  : 
; 395  : 	return true;

  000cd	b0 01		 mov	 al, 1

; 396  : }

  000cf	8b 4d f4	 mov	 ecx, DWORD PTR __$EHRec$[ebp]
  000d2	64 89 0d 00 00
	00 00		 mov	 DWORD PTR fs:0, ecx
  000d9	59		 pop	 ecx
  000da	5f		 pop	 edi
  000db	5e		 pop	 esi
  000dc	5b		 pop	 ebx
  000dd	8b e5		 mov	 esp, ebp
  000df	5d		 pop	 ebp
  000e0	c2 0c 00	 ret	 12			; 0000000cH
$LN14@MakeGraph:

; 380  : 	if(pGraph == NULL) return false;

  000e3	32 c0		 xor	 al, al

; 396  : }

  000e5	8b 4d f4	 mov	 ecx, DWORD PTR __$EHRec$[ebp]
  000e8	64 89 0d 00 00
	00 00		 mov	 DWORD PTR fs:0, ecx
  000ef	59		 pop	 ecx
  000f0	5f		 pop	 edi
  000f1	5e		 pop	 esi
  000f2	5b		 pop	 ebx
  000f3	8b e5		 mov	 esp, ebp
  000f5	5d		 pop	 ebp
  000f6	c2 0c 00	 ret	 12			; 0000000cH
_TEXT	ENDS
;	COMDAT text$x
text$x	SEGMENT
__unwindfunclet$?MakeGraph@CVertScaleGroup@@QAE_NPAXPAD_N@Z$0:
  00000	8d 4d 10	 lea	 ecx, DWORD PTR $T3[ebp]
  00003	ff 25 00 00 00
	00		 jmp	 DWORD PTR __imp_??1?$CStringT@DV?$StrTraitMFC_DLL@DV?$ChTraitsCRT@D@ATL@@@@@ATL@@QAE@XZ
__unwindfunclet$?MakeGraph@CVertScaleGroup@@QAE_NPAXPAD_N@Z$1:
  00009	8d 4d 08	 lea	 ecx, DWORD PTR $T2[ebp]
  0000c	ff 25 00 00 00
	00		 jmp	 DWORD PTR __imp_??1?$CStringT@DV?$StrTraitMFC_DLL@DV?$ChTraitsCRT@D@ATL@@@@@ATL@@QAE@XZ
  00012	cc		 int	 3
  00013	cc		 int	 3
  00014	cc		 int	 3
  00015	cc		 int	 3
  00016	cc		 int	 3
__ehhandler$?MakeGraph@CVertScaleGroup@@QAE_NPAXPAD_N@Z:
  00017	90		 npad	 1
  00018	90		 npad	 1
  00019	8b 54 24 08	 mov	 edx, DWORD PTR [esp+8]
  0001d	8d 42 0c	 lea	 eax, DWORD PTR [edx+12]
  00020	8b 4a f0	 mov	 ecx, DWORD PTR [edx-16]
  00023	33 c8		 xor	 ecx, eax
  00025	e8 00 00 00 00	 call	 @__security_check_cookie@4
  0002a	b8 00 00 00 00	 mov	 eax, OFFSET __ehfuncinfo$?MakeGraph@CVertScaleGroup@@QAE_NPAXPAD_N@Z
  0002f	e9 00 00 00 00	 jmp	 ___CxxFrameHandler3
text$x	ENDS
?MakeGraph@CVertScaleGroup@@QAE_NPAXPAD_N@Z ENDP	; CVertScaleGroup::MakeGraph
; Function compile flags: /Ogtp
; File D:\git\src\IBK\IBK_DRFN\ProjSrc\SrcChartEx\ChartOCX\ChartObject\VertScaleGroup.cpp
;	COMDAT ?MakeGraph@CVertScaleGroup@@QAE_NPAD_N@Z
_TEXT	SEGMENT
$T2 = -20						; size = 4
_pGraph$1$ = -16					; size = 4
__$EHRec$ = -12						; size = 12
_pChartCtrl$1$ = 8					; size = 4
_p_szGraphData$ = 8					; size = 4
_bIsAddTail$ = 12					; size = 1
$T3 = 12						; size = 4
?MakeGraph@CVertScaleGroup@@QAE_NPAD_N@Z PROC		; CVertScaleGroup::MakeGraph, COMDAT
; _this$ = ecx

; 346  : {

  00000	55		 push	 ebp
  00001	8b ec		 mov	 ebp, esp
  00003	6a ff		 push	 -1
  00005	68 00 00 00 00	 push	 __ehhandler$?MakeGraph@CVertScaleGroup@@QAE_NPAD_N@Z
  0000a	64 a1 00 00 00
	00		 mov	 eax, DWORD PTR fs:0
  00010	50		 push	 eax
  00011	83 ec 08	 sub	 esp, 8
  00014	53		 push	 ebx
  00015	56		 push	 esi
  00016	57		 push	 edi
  00017	a1 00 00 00 00	 mov	 eax, DWORD PTR ___security_cookie
  0001c	33 c5		 xor	 eax, ebp
  0001e	50		 push	 eax
  0001f	8d 45 f4	 lea	 eax, DWORD PTR __$EHRec$[ebp]
  00022	64 a3 00 00 00
	00		 mov	 DWORD PTR fs:0, eax
  00028	8b d9		 mov	 ebx, ecx

; 347  : 	if( !p_szGraphData) return false;

  0002a	8b 45 08	 mov	 eax, DWORD PTR _p_szGraphData$[ebp]
  0002d	85 c0		 test	 eax, eax
  0002f	0f 84 c6 00 00
	00		 je	 $LN15@MakeGraph

; 348  : 	if( !*p_szGraphData) return false;

  00035	80 38 00	 cmp	 BYTE PTR [eax], 0
  00038	0f 84 bd 00 00
	00		 je	 $LN15@MakeGraph

; 349  : 
; 350  : 	CGraphImp* pGraph = MakeNewGraph( p_szGraphData);

  0003e	50		 push	 eax
  0003f	e8 00 00 00 00	 call	 ?MakeNewGraph@CVertScaleGroup@@AAEPAVCGraphImp@@PAD@Z ; CVertScaleGroup::MakeNewGraph
  00044	8b f0		 mov	 esi, eax
  00046	89 75 f0	 mov	 DWORD PTR _pGraph$1$[ebp], esi

; 351  : 	if(pGraph == NULL) return false;

  00049	85 f6		 test	 esi, esi
  0004b	0f 84 aa 00 00
	00		 je	 $LN15@MakeGraph

; 352  : 
; 353  : 	AddGraph(pGraph, bIsAddTail);

  00051	ff 75 0c	 push	 DWORD PTR _bIsAddTail$[ebp]
  00054	8b cb		 mov	 ecx, ebx
  00056	56		 push	 esi
  00057	e8 00 00 00 00	 call	 ?AddGraph@CVertScaleGroup@@QAEXPAVCGraphImp@@_N@Z ; CVertScaleGroup::AddGraph

; 354  : 
; 355  : 	// (2006/11/17 - Seung-Won, Bae) Notify to OCX
; 356  : 	if( m_pMainBlockBaseData)

  0005c	8b 4b 08	 mov	 ecx, DWORD PTR [ebx+8]
  0005f	85 c9		 test	 ecx, ecx
  00061	74 75		 je	 SHORT $LN6@MakeGraph

; 357  : 	{
; 358  : 		IChartCtrl *pChartCtrl = m_pMainBlockBaseData->GetMainAttributes().GetIChartCtrl();

  00063	e8 00 00 00 00	 call	 ?GetMainAttributes@CMainBlockBaseData@@QAEAAVCMainAttributes@@XZ ; CMainBlockBaseData::GetMainAttributes
  00068	8b c8		 mov	 ecx, eax
  0006a	e8 00 00 00 00	 call	 ?GetIChartCtrl@CMainAttributes@@QBEPAUIChartCtrl@@XZ ; CMainAttributes::GetIChartCtrl
  0006f	89 45 08	 mov	 DWORD PTR _pChartCtrl$1$[ebp], eax

; 359  : 		if( pChartCtrl)

  00072	85 c0		 test	 eax, eax
  00074	74 62		 je	 SHORT $LN6@MakeGraph

; 360  : 		{
; 361  : 			CGraphData &graphData = pGraph->GetGraphData();

  00076	8b ce		 mov	 ecx, esi
  00078	e8 00 00 00 00	 call	 ?GetGraphData@CGraphImp@@QAEAAVCGraphData@@XZ ; CGraphImp::GetGraphData
  0007d	8b f0		 mov	 esi, eax

; 362  : 			pChartCtrl->OnGraphAdded( pGraph->GetGraphRQ(), graphData.GetGraphName(), graphData.GetIndicatorName());

  0007f	8d 45 ec	 lea	 eax, DWORD PTR $T2[ebp]
  00082	50		 push	 eax
  00083	8b ce		 mov	 ecx, esi
  00085	ff 15 00 00 00
	00		 call	 DWORD PTR __imp_?GetIndicatorName@CGraphData@@QBE?AV?$CStringT@DV?$StrTraitMFC_DLL@DV?$ChTraitsCRT@D@ATL@@@@@ATL@@XZ
  0008b	8b f8		 mov	 edi, eax
  0008d	8d 45 0c	 lea	 eax, DWORD PTR $T3[ebp]
  00090	c7 45 fc 00 00
	00 00		 mov	 DWORD PTR __$EHRec$[ebp+8], 0
  00097	50		 push	 eax
  00098	8b ce		 mov	 ecx, esi
  0009a	ff 15 00 00 00
	00		 call	 DWORD PTR __imp_?GetGraphName@CGraphData@@QBE?AV?$CStringT@DV?$StrTraitMFC_DLL@DV?$ChTraitsCRT@D@ATL@@@@@ATL@@XZ
  000a0	8b 4d f0	 mov	 ecx, DWORD PTR _pGraph$1$[ebp]
  000a3	ff 37		 push	 DWORD PTR [edi]
  000a5	8b 75 08	 mov	 esi, DWORD PTR _pChartCtrl$1$[ebp]
  000a8	ff 30		 push	 DWORD PTR [eax]
  000aa	8b 01		 mov	 eax, DWORD PTR [ecx]
  000ac	c6 45 fc 01	 mov	 BYTE PTR __$EHRec$[ebp+8], 1
  000b0	8b 36		 mov	 esi, DWORD PTR [esi]
  000b2	ff 50 1c	 call	 DWORD PTR [eax+28]
  000b5	8b 4d 08	 mov	 ecx, DWORD PTR _pChartCtrl$1$[ebp]
  000b8	50		 push	 eax
  000b9	ff 96 7c 01 00
	00		 call	 DWORD PTR [esi+380]
  000bf	8d 4d 0c	 lea	 ecx, DWORD PTR $T3[ebp]
  000c2	ff 15 00 00 00
	00		 call	 DWORD PTR __imp_??1?$CStringT@DV?$StrTraitMFC_DLL@DV?$ChTraitsCRT@D@ATL@@@@@ATL@@QAE@XZ
  000c8	8d 4d ec	 lea	 ecx, DWORD PTR $T2[ebp]
  000cb	c7 45 fc ff ff
	ff ff		 mov	 DWORD PTR __$EHRec$[ebp+8], -1
  000d2	ff 15 00 00 00
	00		 call	 DWORD PTR __imp_??1?$CStringT@DV?$StrTraitMFC_DLL@DV?$ChTraitsCRT@D@ATL@@@@@ATL@@QAE@XZ
$LN6@MakeGraph:

; 363  : 		}
; 364  : 	}
; 365  : 
; 366  : 	// (2007/1/19 - Seung-Won, Bae) Activate Vertical Scale Group.
; 367  : 	if( m_pVertScaleGroupList) m_pVertScaleGroupList->SetActivate( this);

  000d8	8b 4b 0c	 mov	 ecx, DWORD PTR [ebx+12]
  000db	85 c9		 test	 ecx, ecx
  000dd	74 06		 je	 SHORT $LN7@MakeGraph
  000df	53		 push	 ebx
  000e0	e8 00 00 00 00	 call	 ?SetActivate@CVertScaleGroupList@@QAEXPAVCVertScaleGroup@@@Z ; CVertScaleGroupList::SetActivate
$LN7@MakeGraph:

; 368  : 
; 369  : 	return true;

  000e5	b0 01		 mov	 al, 1

; 370  : }

  000e7	8b 4d f4	 mov	 ecx, DWORD PTR __$EHRec$[ebp]
  000ea	64 89 0d 00 00
	00 00		 mov	 DWORD PTR fs:0, ecx
  000f1	59		 pop	 ecx
  000f2	5f		 pop	 edi
  000f3	5e		 pop	 esi
  000f4	5b		 pop	 ebx
  000f5	8b e5		 mov	 esp, ebp
  000f7	5d		 pop	 ebp
  000f8	c2 08 00	 ret	 8
$LN15@MakeGraph:

; 351  : 	if(pGraph == NULL) return false;

  000fb	32 c0		 xor	 al, al

; 370  : }

  000fd	8b 4d f4	 mov	 ecx, DWORD PTR __$EHRec$[ebp]
  00100	64 89 0d 00 00
	00 00		 mov	 DWORD PTR fs:0, ecx
  00107	59		 pop	 ecx
  00108	5f		 pop	 edi
  00109	5e		 pop	 esi
  0010a	5b		 pop	 ebx
  0010b	8b e5		 mov	 esp, ebp
  0010d	5d		 pop	 ebp
  0010e	c2 08 00	 ret	 8
_TEXT	ENDS
;	COMDAT text$x
text$x	SEGMENT
__unwindfunclet$?MakeGraph@CVertScaleGroup@@QAE_NPAD_N@Z$0:
  00000	8d 4d ec	 lea	 ecx, DWORD PTR $T2[ebp]
  00003	ff 25 00 00 00
	00		 jmp	 DWORD PTR __imp_??1?$CStringT@DV?$StrTraitMFC_DLL@DV?$ChTraitsCRT@D@ATL@@@@@ATL@@QAE@XZ
__unwindfunclet$?MakeGraph@CVertScaleGroup@@QAE_NPAD_N@Z$1:
  00009	8d 4d 0c	 lea	 ecx, DWORD PTR $T3[ebp]
  0000c	ff 25 00 00 00
	00		 jmp	 DWORD PTR __imp_??1?$CStringT@DV?$StrTraitMFC_DLL@DV?$ChTraitsCRT@D@ATL@@@@@ATL@@QAE@XZ
  00012	cc		 int	 3
  00013	cc		 int	 3
  00014	cc		 int	 3
  00015	cc		 int	 3
  00016	cc		 int	 3
__ehhandler$?MakeGraph@CVertScaleGroup@@QAE_NPAD_N@Z:
  00017	90		 npad	 1
  00018	90		 npad	 1
  00019	8b 54 24 08	 mov	 edx, DWORD PTR [esp+8]
  0001d	8d 42 0c	 lea	 eax, DWORD PTR [edx+12]
  00020	8b 4a e8	 mov	 ecx, DWORD PTR [edx-24]
  00023	33 c8		 xor	 ecx, eax
  00025	e8 00 00 00 00	 call	 @__security_check_cookie@4
  0002a	b8 00 00 00 00	 mov	 eax, OFFSET __ehfuncinfo$?MakeGraph@CVertScaleGroup@@QAE_NPAD_N@Z
  0002f	e9 00 00 00 00	 jmp	 ___CxxFrameHandler3
text$x	ENDS
?MakeGraph@CVertScaleGroup@@QAE_NPAD_N@Z ENDP		; CVertScaleGroup::MakeGraph
; Function compile flags: /Ogtp
; File D:\git\src\IBK\IBK_DRFN\ProjSrc\SrcChartEx\ChartOCX\ChartObject\VertScaleGroup.cpp
; File C:\Program Files (x86)\Windows Kits\10\Include\10.0.22000.0\ucrt\string.h
; File D:\git\src\IBK\IBK_DRFN\ProjSrc\SrcChartEx\ChartOCX\ChartObject\VertScaleGroup.cpp
; File C:\Program Files (x86)\Windows Kits\10\Include\10.0.22000.0\ucrt\string.h
; File D:\git\src\IBK\IBK_DRFN\ProjSrc\SrcChartEx\ChartOCX\ChartObject\VertScaleGroup.cpp
; File C:\Program Files (x86)\Windows Kits\10\Include\10.0.22000.0\ucrt\string.h
; File D:\git\src\IBK\IBK_DRFN\ProjSrc\SrcChartEx\ChartOCX\ChartObject\VertScaleGroup.cpp
; File C:\Program Files (x86)\Windows Kits\10\Include\10.0.22000.0\ucrt\string.h
; File D:\git\src\IBK\IBK_DRFN\ProjSrc\SrcChartEx\ChartOCX\ChartObject\VertScaleGroup.cpp
; File C:\Program Files (x86)\Windows Kits\10\Include\10.0.22000.0\ucrt\string.h
; File D:\git\src\IBK\IBK_DRFN\ProjSrc\SrcChartEx\ChartOCX\ChartObject\VertScaleGroup.cpp
; File C:\Program Files (x86)\Windows Kits\10\Include\10.0.22000.0\ucrt\string.h
; File D:\git\src\IBK\IBK_DRFN\ProjSrc\SrcChartEx\ChartOCX\ChartObject\VertScaleGroup.cpp
; File C:\Program Files (x86)\Microsoft Visual Studio\2019\Community\VC\Tools\MSVC\14.29.30133\atlmfc\include\afxtempl.h
; File D:\git\src\IBK\IBK_DRFN\ProjSrc\SrcChartEx\ChartOCX\ChartObject\VertScaleGroup.cpp
; File C:\Program Files (x86)\Microsoft Visual Studio\2019\Community\VC\Tools\MSVC\14.29.30133\atlmfc\include\afxtempl.h
; File D:\git\src\IBK\IBK_DRFN\ProjSrc\SrcChartEx\ChartOCX\ChartObject\VertScaleGroup.cpp
; File C:\Program Files (x86)\Windows Kits\10\Include\10.0.22000.0\ucrt\string.h
; File D:\git\src\IBK\IBK_DRFN\ProjSrc\SrcChartEx\ChartOCX\ChartObject\VertScaleGroup.cpp
; File C:\Program Files (x86)\Windows Kits\10\Include\10.0.22000.0\ucrt\string.h
; File D:\git\src\IBK\IBK_DRFN\ProjSrc\SrcChartEx\ChartOCX\ChartObject\VertScaleGroup.cpp
; File C:\Program Files (x86)\Windows Kits\10\Include\10.0.22000.0\ucrt\string.h
; File D:\git\src\IBK\IBK_DRFN\ProjSrc\SrcChartEx\ChartOCX\ChartObject\VertScaleGroup.cpp
;	COMDAT ?MakeGraphs@CVertScaleGroup@@QAEXPAXPAD@Z
_TEXT	SEGMENT
_this$1$ = -32						; size = 4
$T2 = -28						; size = 4
$T3 = -24						; size = 4
_pGraph$1$ = -20					; size = 4
_pChartCtrl$1$ = -16					; size = 4
_szGraph$1$ = -16					; size = 4
__$EHRec$ = -12						; size = 12
_pPacketRQ$ = 8						; size = 4
_p_szVertScaleGroup$ = 12				; size = 4
_cGraphEnd$1$ = 15					; size = 1
?MakeGraphs@CVertScaleGroup@@QAEXPAXPAD@Z PROC		; CVertScaleGroup::MakeGraphs, COMDAT
; _this$ = ecx

; 311  : {

  00000	55		 push	 ebp
  00001	8b ec		 mov	 ebp, esp
  00003	6a ff		 push	 -1
  00005	68 00 00 00 00	 push	 __ehhandler$?MakeGraphs@CVertScaleGroup@@QAEXPAXPAD@Z
  0000a	64 a1 00 00 00
	00		 mov	 eax, DWORD PTR fs:0
  00010	50		 push	 eax
  00011	83 ec 14	 sub	 esp, 20			; 00000014H
  00014	53		 push	 ebx
  00015	56		 push	 esi
  00016	57		 push	 edi
  00017	a1 00 00 00 00	 mov	 eax, DWORD PTR ___security_cookie
  0001c	33 c5		 xor	 eax, ebp
  0001e	50		 push	 eax
  0001f	8d 45 f4	 lea	 eax, DWORD PTR __$EHRec$[ebp]
  00022	64 a3 00 00 00
	00		 mov	 DWORD PTR fs:0, eax
  00028	8b d9		 mov	 ebx, ecx
  0002a	89 5d e0	 mov	 DWORD PTR _this$1$[ebp], ebx

; 312  : 	DeleteAll();

  0002d	e8 00 00 00 00	 call	 ?DeleteAll@CVertScaleGroup@@QAEXXZ ; CVertScaleGroup::DeleteAll
; File C:\Program Files (x86)\Windows Kits\10\Include\10.0.22000.0\ucrt\string.h

; 520  :         return const_cast<char*>(strstr(static_cast<char const*>(_String), _SubString));

  00032	68 00 00 00 00	 push	 OFFSET ??_C@_02PCIJFNDE@?$AN?6@
  00037	ff 75 0c	 push	 DWORD PTR _p_szVertScaleGroup$[ebp]
  0003a	e8 00 00 00 00	 call	 _strstr
  0003f	83 c4 08	 add	 esp, 8
; File D:\git\src\IBK\IBK_DRFN\ProjSrc\SrcChartEx\ChartOCX\ChartObject\VertScaleGroup.cpp

; 314  : 	char *szGraph = strstr( p_szVertScaleGroup, "\r\n");

  00042	89 45 f0	 mov	 DWORD PTR _szGraph$1$[ebp], eax

; 315  : 	if( !szGraph) return;

  00045	85 c0		 test	 eax, eax
  00047	0f 84 3c 01 00
	00		 je	 $LN6@MakeGraphs

; 316  : 	*szGraph = '\0';

  0004d	c6 00 00	 mov	 BYTE PTR [eax], 0

; 317  : 
; 318  : 	m_vertScale.SetScaleData( p_szVertScaleGroup, m_pMainBlockBaseData->GetParent_Handle());

  00050	8b 4b 08	 mov	 ecx, DWORD PTR [ebx+8]
  00053	8b 7b 10	 mov	 edi, DWORD PTR [ebx+16]
  00056	e8 00 00 00 00	 call	 ?GetParent_Handle@CMainBlockBaseData@@QBEPAUHWND__@@XZ ; CMainBlockBaseData::GetParent_Handle
  0005b	50		 push	 eax
  0005c	ff 75 0c	 push	 DWORD PTR _p_szVertScaleGroup$[ebp]
  0005f	8d 4b 10	 lea	 ecx, DWORD PTR [ebx+16]
  00062	ff 17		 call	 DWORD PTR [edi]

; 319  : 	*szGraph = '\r';

  00064	8b 45 f0	 mov	 eax, DWORD PTR _szGraph$1$[ebp]
; File C:\Program Files (x86)\Windows Kits\10\Include\10.0.22000.0\ucrt\string.h

; 520  :         return const_cast<char*>(strstr(static_cast<char const*>(_String), _SubString));

  00067	68 00 00 00 00	 push	 OFFSET ??_C@_08BHMMGBBH@Graph?$DL?$AN?6@
  0006c	50		 push	 eax
; File D:\git\src\IBK\IBK_DRFN\ProjSrc\SrcChartEx\ChartOCX\ChartObject\VertScaleGroup.cpp

; 321  : 	char cGraphEnd = 0;

  0006d	c6 45 0f 00	 mov	 BYTE PTR _cGraphEnd$1$[ebp], 0
  00071	c6 00 0d	 mov	 BYTE PTR [eax], 13	; 0000000dH
; File C:\Program Files (x86)\Windows Kits\10\Include\10.0.22000.0\ucrt\string.h

; 520  :         return const_cast<char*>(strstr(static_cast<char const*>(_String), _SubString));

  00074	e8 00 00 00 00	 call	 _strstr
; File D:\git\src\IBK\IBK_DRFN\ProjSrc\SrcChartEx\ChartOCX\ChartObject\VertScaleGroup.cpp

; 323  : 	szGraph = strstr( szGraph, "Graph;\r\n");

  00079	8b f8		 mov	 edi, eax
; File C:\Program Files (x86)\Windows Kits\10\Include\10.0.22000.0\ucrt\string.h

; 520  :         return const_cast<char*>(strstr(static_cast<char const*>(_String), _SubString));

  0007b	83 c4 08	 add	 esp, 8
; File D:\git\src\IBK\IBK_DRFN\ProjSrc\SrcChartEx\ChartOCX\ChartObject\VertScaleGroup.cpp

; 324  : 	while( szGraph)

  0007e	85 ff		 test	 edi, edi
  00080	0f 84 03 01 00
	00		 je	 $LN6@MakeGraphs
  00086	66 66 0f 1f 84
	00 00 00 00 00	 npad	 10
$LL2@MakeGraphs:
; File C:\Program Files (x86)\Windows Kits\10\Include\10.0.22000.0\ucrt\string.h

; 520  :         return const_cast<char*>(strstr(static_cast<char const*>(_String), _SubString));

  00090	68 00 00 00 00	 push	 OFFSET ??_C@_0M@DGHFHKEI@GraphEnd?$DL?$AN?6@
  00095	57		 push	 edi
  00096	e8 00 00 00 00	 call	 _strstr
; File D:\git\src\IBK\IBK_DRFN\ProjSrc\SrcChartEx\ChartOCX\ChartObject\VertScaleGroup.cpp

; 326  : 		szGraphEnd = strstr( szGraph, "GraphEnd;\r\n");

  0009b	8b f0		 mov	 esi, eax
; File C:\Program Files (x86)\Windows Kits\10\Include\10.0.22000.0\ucrt\string.h

; 520  :         return const_cast<char*>(strstr(static_cast<char const*>(_String), _SubString));

  0009d	83 c4 08	 add	 esp, 8
; File D:\git\src\IBK\IBK_DRFN\ProjSrc\SrcChartEx\ChartOCX\ChartObject\VertScaleGroup.cpp

; 327  : 		if( szGraphEnd)

  000a0	85 f6		 test	 esi, esi
  000a2	74 0c		 je	 SHORT $LN5@MakeGraphs

; 328  : 		{
; 329  : 			szGraphEnd += 11;									// "GraphEnd;\r\n"
; 330  : 			cGraphEnd = *szGraphEnd;

  000a4	8a 46 0b	 mov	 al, BYTE PTR [esi+11]
  000a7	83 c6 0b	 add	 esi, 11			; 0000000bH
  000aa	88 45 0f	 mov	 BYTE PTR _cGraphEnd$1$[ebp], al

; 331  : 			*szGraphEnd = '\0';

  000ad	c6 06 00	 mov	 BYTE PTR [esi], 0
$LN5@MakeGraphs:

; 377  : 	if( !*p_szGraphData) return false;

  000b0	80 3f 00	 cmp	 BYTE PTR [edi], 0
  000b3	0f 84 af 00 00
	00		 je	 $LN20@MakeGraphs

; 378  : 
; 379  : 	CGraphImp* pGraph = MakeNewGraph(pPacketRQ, p_szGraphData);

  000b9	57		 push	 edi
  000ba	ff 75 08	 push	 DWORD PTR _pPacketRQ$[ebp]
  000bd	8b cb		 mov	 ecx, ebx
  000bf	e8 00 00 00 00	 call	 ?MakeNewGraph@CVertScaleGroup@@AAEPAVCGraphImp@@PAXPAD@Z ; CVertScaleGroup::MakeNewGraph
  000c4	8b f8		 mov	 edi, eax
  000c6	89 7d ec	 mov	 DWORD PTR _pGraph$1$[ebp], edi

; 380  : 	if(pGraph == NULL) return false;

  000c9	85 ff		 test	 edi, edi
  000cb	0f 84 97 00 00
	00		 je	 $LN20@MakeGraphs

; 477  : 	pGraph->SetVertScaleGroup(this);

  000d1	53		 push	 ebx
  000d2	8b cf		 mov	 ecx, edi
  000d4	e8 00 00 00 00	 call	 ?SetVertScaleGroup@CGraphImp@@QAEXPAVCVertScaleGroup@@@Z ; CGraphImp::SetVertScaleGroup
; File C:\Program Files (x86)\Microsoft Visual Studio\2019\Community\VC\Tools\MSVC\14.29.30133\atlmfc\include\afxtempl.h

; 1959 : 		{ return BASE_CLASS::AddTail(newElement); }

  000d9	57		 push	 edi
; File D:\git\src\IBK\IBK_DRFN\ProjSrc\SrcChartEx\ChartOCX\ChartObject\VertScaleGroup.cpp

; 477  : 	pGraph->SetVertScaleGroup(this);

  000da	8d 4b 78	 lea	 ecx, DWORD PTR [ebx+120]
; File C:\Program Files (x86)\Microsoft Visual Studio\2019\Community\VC\Tools\MSVC\14.29.30133\atlmfc\include\afxtempl.h

; 1959 : 		{ return BASE_CLASS::AddTail(newElement); }

  000dd	e8 00 00 00 00	 call	 ?AddTail@CObList@@QAEPAU__POSITION@@PAVCObject@@@Z ; CObList::AddTail
; File D:\git\src\IBK\IBK_DRFN\ProjSrc\SrcChartEx\ChartOCX\ChartObject\VertScaleGroup.cpp

; 484  : 	CalculateDisplayDataMinMax();

  000e2	8b cb		 mov	 ecx, ebx
  000e4	e8 00 00 00 00	 call	 ?CalculateDisplayDataMinMax@CVertScaleGroup@@QAEXXZ ; CVertScaleGroup::CalculateDisplayDataMinMax

; 385  : 	if( m_pMainBlockBaseData)

  000e9	8b 4b 08	 mov	 ecx, DWORD PTR [ebx+8]
  000ec	85 c9		 test	 ecx, ecx
  000ee	74 78		 je	 SHORT $LN20@MakeGraphs

; 386  : 	{
; 387  : 		IChartCtrl *pChartCtrl = m_pMainBlockBaseData->GetMainAttributes().GetIChartCtrl();

  000f0	e8 00 00 00 00	 call	 ?GetMainAttributes@CMainBlockBaseData@@QAEAAVCMainAttributes@@XZ ; CMainBlockBaseData::GetMainAttributes
  000f5	8b c8		 mov	 ecx, eax
  000f7	e8 00 00 00 00	 call	 ?GetIChartCtrl@CMainAttributes@@QBEPAUIChartCtrl@@XZ ; CMainAttributes::GetIChartCtrl
  000fc	89 45 f0	 mov	 DWORD PTR _pChartCtrl$1$[ebp], eax

; 388  : 		if( pChartCtrl)

  000ff	85 c0		 test	 eax, eax
  00101	74 65		 je	 SHORT $LN20@MakeGraphs

; 389  : 		{
; 390  : 			CGraphData &graphData = pGraph->GetGraphData();

  00103	8b cf		 mov	 ecx, edi
  00105	e8 00 00 00 00	 call	 ?GetGraphData@CGraphImp@@QAEAAVCGraphData@@XZ ; CGraphImp::GetGraphData
  0010a	8b f8		 mov	 edi, eax

; 391  : 			pChartCtrl->OnGraphAdded( pGraph->GetGraphRQ(), graphData.GetGraphName(), graphData.GetIndicatorName());

  0010c	8d 45 e4	 lea	 eax, DWORD PTR $T2[ebp]
  0010f	50		 push	 eax
  00110	8b cf		 mov	 ecx, edi
  00112	ff 15 00 00 00
	00		 call	 DWORD PTR __imp_?GetIndicatorName@CGraphData@@QBE?AV?$CStringT@DV?$StrTraitMFC_DLL@DV?$ChTraitsCRT@D@ATL@@@@@ATL@@XZ
  00118	8b d8		 mov	 ebx, eax
  0011a	8d 45 e8	 lea	 eax, DWORD PTR $T3[ebp]
  0011d	c7 45 fc 00 00
	00 00		 mov	 DWORD PTR __$EHRec$[ebp+8], 0
  00124	50		 push	 eax
  00125	8b cf		 mov	 ecx, edi
  00127	ff 15 00 00 00
	00		 call	 DWORD PTR __imp_?GetGraphName@CGraphData@@QBE?AV?$CStringT@DV?$StrTraitMFC_DLL@DV?$ChTraitsCRT@D@ATL@@@@@ATL@@XZ
  0012d	8b 4d ec	 mov	 ecx, DWORD PTR _pGraph$1$[ebp]
  00130	ff 33		 push	 DWORD PTR [ebx]
  00132	8b 7d f0	 mov	 edi, DWORD PTR _pChartCtrl$1$[ebp]
  00135	ff 30		 push	 DWORD PTR [eax]
  00137	8b 01		 mov	 eax, DWORD PTR [ecx]
  00139	c6 45 fc 01	 mov	 BYTE PTR __$EHRec$[ebp+8], 1
  0013d	8b 3f		 mov	 edi, DWORD PTR [edi]
  0013f	ff 50 1c	 call	 DWORD PTR [eax+28]
  00142	8b 4d f0	 mov	 ecx, DWORD PTR _pChartCtrl$1$[ebp]
  00145	50		 push	 eax
  00146	ff 97 7c 01 00
	00		 call	 DWORD PTR [edi+380]
  0014c	8d 4d e8	 lea	 ecx, DWORD PTR $T3[ebp]
  0014f	ff 15 00 00 00
	00		 call	 DWORD PTR __imp_??1?$CStringT@DV?$StrTraitMFC_DLL@DV?$ChTraitsCRT@D@ATL@@@@@ATL@@QAE@XZ
  00155	8d 4d e4	 lea	 ecx, DWORD PTR $T2[ebp]
  00158	c7 45 fc ff ff
	ff ff		 mov	 DWORD PTR __$EHRec$[ebp+8], -1
  0015f	ff 15 00 00 00
	00		 call	 DWORD PTR __imp_??1?$CStringT@DV?$StrTraitMFC_DLL@DV?$ChTraitsCRT@D@ATL@@@@@ATL@@QAE@XZ
  00165	8b 5d e0	 mov	 ebx, DWORD PTR _this$1$[ebp]
$LN20@MakeGraphs:

; 332  : 		}
; 333  : 
; 334  : 		MakeGraph(pPacketRQ, szGraph);
; 335  : 		if( szGraphEnd)

  00168	85 f6		 test	 esi, esi
  0016a	74 1d		 je	 SHORT $LN6@MakeGraphs

; 337  : 			*szGraphEnd = cGraphEnd;

  0016c	8a 45 0f	 mov	 al, BYTE PTR _cGraphEnd$1$[ebp]
; File C:\Program Files (x86)\Windows Kits\10\Include\10.0.22000.0\ucrt\string.h

; 520  :         return const_cast<char*>(strstr(static_cast<char const*>(_String), _SubString));

  0016f	68 00 00 00 00	 push	 OFFSET ??_C@_08BHMMGBBH@Graph?$DL?$AN?6@
  00174	56		 push	 esi
; File D:\git\src\IBK\IBK_DRFN\ProjSrc\SrcChartEx\ChartOCX\ChartObject\VertScaleGroup.cpp

; 337  : 			*szGraphEnd = cGraphEnd;

  00175	88 06		 mov	 BYTE PTR [esi], al
; File C:\Program Files (x86)\Windows Kits\10\Include\10.0.22000.0\ucrt\string.h

; 520  :         return const_cast<char*>(strstr(static_cast<char const*>(_String), _SubString));

  00177	e8 00 00 00 00	 call	 _strstr
; File D:\git\src\IBK\IBK_DRFN\ProjSrc\SrcChartEx\ChartOCX\ChartObject\VertScaleGroup.cpp

; 338  : 			szGraph = strstr( szGraphEnd, "Graph;\r\n");

  0017c	8b f8		 mov	 edi, eax
; File C:\Program Files (x86)\Windows Kits\10\Include\10.0.22000.0\ucrt\string.h

; 520  :         return const_cast<char*>(strstr(static_cast<char const*>(_String), _SubString));

  0017e	83 c4 08	 add	 esp, 8
; File D:\git\src\IBK\IBK_DRFN\ProjSrc\SrcChartEx\ChartOCX\ChartObject\VertScaleGroup.cpp

; 324  : 	while( szGraph)

  00181	85 ff		 test	 edi, edi
  00183	0f 85 07 ff ff
	ff		 jne	 $LL2@MakeGraphs
$LN6@MakeGraphs:

; 339  : 		}
; 340  : 		else szGraph = NULL;
; 341  : 	}
; 342  : }

  00189	8b 4d f4	 mov	 ecx, DWORD PTR __$EHRec$[ebp]
  0018c	64 89 0d 00 00
	00 00		 mov	 DWORD PTR fs:0, ecx
  00193	59		 pop	 ecx
  00194	5f		 pop	 edi
  00195	5e		 pop	 esi
  00196	5b		 pop	 ebx
  00197	8b e5		 mov	 esp, ebp
  00199	5d		 pop	 ebp
  0019a	c2 08 00	 ret	 8
_TEXT	ENDS
;	COMDAT text$x
text$x	SEGMENT
__unwindfunclet$?MakeGraphs@CVertScaleGroup@@QAEXPAXPAD@Z$0:
  00000	8d 4d e4	 lea	 ecx, DWORD PTR $T2[ebp]
  00003	ff 25 00 00 00
	00		 jmp	 DWORD PTR __imp_??1?$CStringT@DV?$StrTraitMFC_DLL@DV?$ChTraitsCRT@D@ATL@@@@@ATL@@QAE@XZ
__unwindfunclet$?MakeGraphs@CVertScaleGroup@@QAEXPAXPAD@Z$1:
  00009	8d 4d e8	 lea	 ecx, DWORD PTR $T3[ebp]
  0000c	ff 25 00 00 00
	00		 jmp	 DWORD PTR __imp_??1?$CStringT@DV?$StrTraitMFC_DLL@DV?$ChTraitsCRT@D@ATL@@@@@ATL@@QAE@XZ
  00012	cc		 int	 3
  00013	cc		 int	 3
  00014	cc		 int	 3
  00015	cc		 int	 3
  00016	cc		 int	 3
__ehhandler$?MakeGraphs@CVertScaleGroup@@QAEXPAXPAD@Z:
  00017	90		 npad	 1
  00018	90		 npad	 1
  00019	8b 54 24 08	 mov	 edx, DWORD PTR [esp+8]
  0001d	8d 42 0c	 lea	 eax, DWORD PTR [edx+12]
  00020	8b 4a dc	 mov	 ecx, DWORD PTR [edx-36]
  00023	33 c8		 xor	 ecx, eax
  00025	e8 00 00 00 00	 call	 @__security_check_cookie@4
  0002a	b8 00 00 00 00	 mov	 eax, OFFSET __ehfuncinfo$?MakeGraphs@CVertScaleGroup@@QAEXPAXPAD@Z
  0002f	e9 00 00 00 00	 jmp	 ___CxxFrameHandler3
text$x	ENDS
?MakeGraphs@CVertScaleGroup@@QAEXPAXPAD@Z ENDP		; CVertScaleGroup::MakeGraphs
; Function compile flags: /Ogtp
; File D:\git\src\IBK\IBK_DRFN\ProjSrc\SrcChartEx\ChartOCX\ChartObject\VertScaleGroup.cpp
; File C:\Program Files (x86)\Windows Kits\10\Include\10.0.22000.0\ucrt\string.h
; File D:\git\src\IBK\IBK_DRFN\ProjSrc\SrcChartEx\ChartOCX\ChartObject\VertScaleGroup.cpp
; File C:\Program Files (x86)\Windows Kits\10\Include\10.0.22000.0\ucrt\string.h
; File D:\git\src\IBK\IBK_DRFN\ProjSrc\SrcChartEx\ChartOCX\ChartObject\VertScaleGroup.cpp
; File C:\Program Files (x86)\Windows Kits\10\Include\10.0.22000.0\ucrt\string.h
; File D:\git\src\IBK\IBK_DRFN\ProjSrc\SrcChartEx\ChartOCX\ChartObject\VertScaleGroup.cpp
; File C:\Program Files (x86)\Windows Kits\10\Include\10.0.22000.0\ucrt\string.h
; File D:\git\src\IBK\IBK_DRFN\ProjSrc\SrcChartEx\ChartOCX\ChartObject\VertScaleGroup.cpp
; File C:\Program Files (x86)\Windows Kits\10\Include\10.0.22000.0\ucrt\string.h
; File D:\git\src\IBK\IBK_DRFN\ProjSrc\SrcChartEx\ChartOCX\ChartObject\VertScaleGroup.cpp
; File C:\Program Files (x86)\Windows Kits\10\Include\10.0.22000.0\ucrt\string.h
; File D:\git\src\IBK\IBK_DRFN\ProjSrc\SrcChartEx\ChartOCX\ChartObject\VertScaleGroup.cpp
; File C:\Program Files (x86)\Windows Kits\10\Include\10.0.22000.0\ucrt\string.h
; File D:\git\src\IBK\IBK_DRFN\ProjSrc\SrcChartEx\ChartOCX\ChartObject\VertScaleGroup.cpp
; File C:\Program Files (x86)\Windows Kits\10\Include\10.0.22000.0\ucrt\string.h
; File D:\git\src\IBK\IBK_DRFN\ProjSrc\SrcChartEx\ChartOCX\ChartObject\VertScaleGroup.cpp
; File C:\Program Files (x86)\Windows Kits\10\Include\10.0.22000.0\ucrt\string.h
; File D:\git\src\IBK\IBK_DRFN\ProjSrc\SrcChartEx\ChartOCX\ChartObject\VertScaleGroup.cpp
;	COMDAT ?MakeGraphs@CVertScaleGroup@@QAEXPAD@Z
_TEXT	SEGMENT
_this$1$ = -8						; size = 4
_szGraph$1$ = -4					; size = 4
_p_szVertScaleGroup$ = 8				; size = 4
?MakeGraphs@CVertScaleGroup@@QAEXPAD@Z PROC		; CVertScaleGroup::MakeGraphs, COMDAT
; _this$ = ecx

; 276  : {

  00000	55		 push	 ebp
  00001	8b ec		 mov	 ebp, esp
  00003	83 ec 08	 sub	 esp, 8
  00006	53		 push	 ebx
  00007	8b d9		 mov	 ebx, ecx
  00009	89 5d f8	 mov	 DWORD PTR _this$1$[ebp], ebx

; 277  : 	DeleteAll();

  0000c	e8 00 00 00 00	 call	 ?DeleteAll@CVertScaleGroup@@QAEXXZ ; CVertScaleGroup::DeleteAll
; File C:\Program Files (x86)\Windows Kits\10\Include\10.0.22000.0\ucrt\string.h

; 520  :         return const_cast<char*>(strstr(static_cast<char const*>(_String), _SubString));

  00011	68 00 00 00 00	 push	 OFFSET ??_C@_02PCIJFNDE@?$AN?6@
  00016	ff 75 08	 push	 DWORD PTR _p_szVertScaleGroup$[ebp]
  00019	e8 00 00 00 00	 call	 _strstr
  0001e	83 c4 08	 add	 esp, 8
; File D:\git\src\IBK\IBK_DRFN\ProjSrc\SrcChartEx\ChartOCX\ChartObject\VertScaleGroup.cpp

; 279  : 	char *szGraph = strstr( p_szVertScaleGroup, "\r\n");

  00021	89 45 fc	 mov	 DWORD PTR _szGraph$1$[ebp], eax

; 280  : 	if( !szGraph) return;

  00024	85 c0		 test	 eax, eax
  00026	74 7c		 je	 SHORT $LN21@MakeGraphs

; 281  : 	*szGraph = '\0';

  00028	56		 push	 esi
  00029	c6 00 00	 mov	 BYTE PTR [eax], 0

; 282  : 
; 283  : 	m_vertScale.SetScaleData( p_szVertScaleGroup, m_pMainBlockBaseData->GetParent_Handle());

  0002c	8b 4b 08	 mov	 ecx, DWORD PTR [ebx+8]
  0002f	57		 push	 edi
  00030	8b 7b 10	 mov	 edi, DWORD PTR [ebx+16]
  00033	e8 00 00 00 00	 call	 ?GetParent_Handle@CMainBlockBaseData@@QBEPAUHWND__@@XZ ; CMainBlockBaseData::GetParent_Handle
  00038	50		 push	 eax
  00039	ff 75 08	 push	 DWORD PTR _p_szVertScaleGroup$[ebp]
  0003c	8d 4b 10	 lea	 ecx, DWORD PTR [ebx+16]
  0003f	ff 17		 call	 DWORD PTR [edi]

; 284  : 	*szGraph = '\r';

  00041	8b 45 fc	 mov	 eax, DWORD PTR _szGraph$1$[ebp]

; 285  : 
; 286  : 	char cGraphEnd = 0;

  00044	32 db		 xor	 bl, bl
; File C:\Program Files (x86)\Windows Kits\10\Include\10.0.22000.0\ucrt\string.h

; 520  :         return const_cast<char*>(strstr(static_cast<char const*>(_String), _SubString));

  00046	68 00 00 00 00	 push	 OFFSET ??_C@_08BHMMGBBH@Graph?$DL?$AN?6@
  0004b	50		 push	 eax
; File D:\git\src\IBK\IBK_DRFN\ProjSrc\SrcChartEx\ChartOCX\ChartObject\VertScaleGroup.cpp

; 284  : 	*szGraph = '\r';

  0004c	c6 00 0d	 mov	 BYTE PTR [eax], 13	; 0000000dH
; File C:\Program Files (x86)\Windows Kits\10\Include\10.0.22000.0\ucrt\string.h

; 520  :         return const_cast<char*>(strstr(static_cast<char const*>(_String), _SubString));

  0004f	e8 00 00 00 00	 call	 _strstr
; File D:\git\src\IBK\IBK_DRFN\ProjSrc\SrcChartEx\ChartOCX\ChartObject\VertScaleGroup.cpp

; 288  : 	szGraph = strstr( szGraph, "Graph;\r\n");

  00054	8b f8		 mov	 edi, eax
; File C:\Program Files (x86)\Windows Kits\10\Include\10.0.22000.0\ucrt\string.h

; 520  :         return const_cast<char*>(strstr(static_cast<char const*>(_String), _SubString));

  00056	83 c4 08	 add	 esp, 8
; File D:\git\src\IBK\IBK_DRFN\ProjSrc\SrcChartEx\ChartOCX\ChartObject\VertScaleGroup.cpp

; 289  : 	while( szGraph)

  00059	85 ff		 test	 edi, edi
  0005b	74 45		 je	 SHORT $LN22@MakeGraphs
  0005d	0f 1f 00	 npad	 3
$LL2@MakeGraphs:
; File C:\Program Files (x86)\Windows Kits\10\Include\10.0.22000.0\ucrt\string.h

; 520  :         return const_cast<char*>(strstr(static_cast<char const*>(_String), _SubString));

  00060	68 00 00 00 00	 push	 OFFSET ??_C@_0M@DGHFHKEI@GraphEnd?$DL?$AN?6@
  00065	57		 push	 edi
  00066	e8 00 00 00 00	 call	 _strstr
; File D:\git\src\IBK\IBK_DRFN\ProjSrc\SrcChartEx\ChartOCX\ChartObject\VertScaleGroup.cpp

; 291  : 		szGraphEnd = strstr( szGraph, "GraphEnd;\r\n");

  0006b	8b f0		 mov	 esi, eax
; File C:\Program Files (x86)\Windows Kits\10\Include\10.0.22000.0\ucrt\string.h

; 520  :         return const_cast<char*>(strstr(static_cast<char const*>(_String), _SubString));

  0006d	83 c4 08	 add	 esp, 8
; File D:\git\src\IBK\IBK_DRFN\ProjSrc\SrcChartEx\ChartOCX\ChartObject\VertScaleGroup.cpp

; 292  : 		if( szGraphEnd)

  00070	85 f6		 test	 esi, esi
  00072	74 09		 je	 SHORT $LN5@MakeGraphs

; 293  : 		{
; 294  : 			szGraphEnd += 11;									// "GraphEnd;\r\n"
; 295  : 			cGraphEnd = *szGraphEnd;

  00074	8a 5e 0b	 mov	 bl, BYTE PTR [esi+11]
  00077	83 c6 0b	 add	 esi, 11			; 0000000bH

; 296  : 			*szGraphEnd = '\0';

  0007a	c6 06 00	 mov	 BYTE PTR [esi], 0
$LN5@MakeGraphs:

; 297  : 		}
; 298  : 
; 299  : 		MakeGraph( szGraph);

  0007d	8b 4d f8	 mov	 ecx, DWORD PTR _this$1$[ebp]
  00080	6a 01		 push	 1
  00082	57		 push	 edi
  00083	e8 00 00 00 00	 call	 ?MakeGraph@CVertScaleGroup@@QAE_NPAD_N@Z ; CVertScaleGroup::MakeGraph

; 300  : 		if( szGraphEnd)

  00088	85 f6		 test	 esi, esi
  0008a	74 16		 je	 SHORT $LN22@MakeGraphs
; File C:\Program Files (x86)\Windows Kits\10\Include\10.0.22000.0\ucrt\string.h

; 520  :         return const_cast<char*>(strstr(static_cast<char const*>(_String), _SubString));

  0008c	68 00 00 00 00	 push	 OFFSET ??_C@_08BHMMGBBH@Graph?$DL?$AN?6@
  00091	56		 push	 esi
; File D:\git\src\IBK\IBK_DRFN\ProjSrc\SrcChartEx\ChartOCX\ChartObject\VertScaleGroup.cpp

; 302  : 			*szGraphEnd = cGraphEnd;

  00092	88 1e		 mov	 BYTE PTR [esi], bl
; File C:\Program Files (x86)\Windows Kits\10\Include\10.0.22000.0\ucrt\string.h

; 520  :         return const_cast<char*>(strstr(static_cast<char const*>(_String), _SubString));

  00094	e8 00 00 00 00	 call	 _strstr
; File D:\git\src\IBK\IBK_DRFN\ProjSrc\SrcChartEx\ChartOCX\ChartObject\VertScaleGroup.cpp

; 303  : 			szGraph = strstr( szGraphEnd, "Graph;\r\n");

  00099	8b f8		 mov	 edi, eax
; File C:\Program Files (x86)\Windows Kits\10\Include\10.0.22000.0\ucrt\string.h

; 520  :         return const_cast<char*>(strstr(static_cast<char const*>(_String), _SubString));

  0009b	83 c4 08	 add	 esp, 8
; File D:\git\src\IBK\IBK_DRFN\ProjSrc\SrcChartEx\ChartOCX\ChartObject\VertScaleGroup.cpp

; 289  : 	while( szGraph)

  0009e	85 ff		 test	 edi, edi
  000a0	75 be		 jne	 SHORT $LL2@MakeGraphs
$LN22@MakeGraphs:
  000a2	5f		 pop	 edi
  000a3	5e		 pop	 esi
$LN21@MakeGraphs:
  000a4	5b		 pop	 ebx

; 304  : 		}
; 305  : 		else szGraph = NULL;
; 306  : 	}
; 307  : }

  000a5	8b e5		 mov	 esp, ebp
  000a7	5d		 pop	 ebp
  000a8	c2 04 00	 ret	 4
?MakeGraphs@CVertScaleGroup@@QAEXPAD@Z ENDP		; CVertScaleGroup::MakeGraphs
_TEXT	ENDS
; Function compile flags: /Ogtp
; File C:\Program Files (x86)\Microsoft Visual Studio\2019\Community\VC\Tools\MSVC\14.29.30133\atlmfc\include\afx.inl
;	COMDAT ??_G?$CTypedPtrList@VCObList@@PAVCGraphImp@@@@UAEPAXI@Z
_TEXT	SEGMENT
___flags$ = 8						; size = 4
??_G?$CTypedPtrList@VCObList@@PAVCGraphImp@@@@UAEPAXI@Z PROC ; CTypedPtrList<CObList,CGraphImp *>::`scalar deleting destructor', COMDAT
; _this$ = ecx
  00000	55		 push	 ebp
  00001	8b ec		 mov	 ebp, esp
  00003	56		 push	 esi
  00004	8b f1		 mov	 esi, ecx
  00006	e8 00 00 00 00	 call	 ??1CObList@@UAE@XZ	; CObList::~CObList
  0000b	8b 45 08	 mov	 eax, DWORD PTR ___flags$[ebp]
  0000e	a8 01		 test	 al, 1
  00010	74 1f		 je	 SHORT $LN15@scalar
  00012	a8 04		 test	 al, 4
  00014	75 10		 jne	 SHORT $LN3@scalar

; 112  : 	{ ::operator delete(p); }

  00016	56		 push	 esi
  00017	e8 00 00 00 00	 call	 ??3@YAXPAX@Z		; operator delete
  0001c	83 c4 04	 add	 esp, 4
  0001f	8b c6		 mov	 eax, esi
  00021	5e		 pop	 esi
  00022	5d		 pop	 ebp
  00023	c2 04 00	 ret	 4
$LN3@scalar:
  00026	6a 1c		 push	 28			; 0000001cH
  00028	56		 push	 esi
  00029	e8 00 00 00 00	 call	 ?__global_delete@@YAXPAXI@Z ; __global_delete
  0002e	83 c4 08	 add	 esp, 8
$LN15@scalar:
  00031	8b c6		 mov	 eax, esi
  00033	5e		 pop	 esi
  00034	5d		 pop	 ebp
  00035	c2 04 00	 ret	 4
??_G?$CTypedPtrList@VCObList@@PAVCGraphImp@@@@UAEPAXI@Z ENDP ; CTypedPtrList<CObList,CGraphImp *>::`scalar deleting destructor'
_TEXT	ENDS
; Function compile flags: /Ogtp
;	COMDAT ??1?$CTypedPtrList@VCObList@@PAVCGraphImp@@@@UAE@XZ
_TEXT	SEGMENT
??1?$CTypedPtrList@VCObList@@PAVCGraphImp@@@@UAE@XZ PROC ; CTypedPtrList<CObList,CGraphImp *>::~CTypedPtrList<CObList,CGraphImp *>, COMDAT
; _this$ = ecx
  00000	e9 00 00 00 00	 jmp	 ??1CObList@@UAE@XZ	; CObList::~CObList
??1?$CTypedPtrList@VCObList@@PAVCGraphImp@@@@UAE@XZ ENDP ; CTypedPtrList<CObList,CGraphImp *>::~CTypedPtrList<CObList,CGraphImp *>
_TEXT	ENDS
; Function compile flags: /Ogtp
; File C:\Program Files (x86)\Microsoft Visual Studio\2019\Community\VC\Tools\MSVC\14.29.30133\atlmfc\include\afx.inl
;	COMDAT ??_G?$_CTypedPtrList@VCObList@@PAVCGraphImp@@@@UAEPAXI@Z
_TEXT	SEGMENT
___flags$ = 8						; size = 4
??_G?$_CTypedPtrList@VCObList@@PAVCGraphImp@@@@UAEPAXI@Z PROC ; _CTypedPtrList<CObList,CGraphImp *>::`scalar deleting destructor', COMDAT
; _this$ = ecx
  00000	55		 push	 ebp
  00001	8b ec		 mov	 ebp, esp
  00003	56		 push	 esi
  00004	8b f1		 mov	 esi, ecx
  00006	e8 00 00 00 00	 call	 ??1CObList@@UAE@XZ	; CObList::~CObList
  0000b	8b 45 08	 mov	 eax, DWORD PTR ___flags$[ebp]
  0000e	a8 01		 test	 al, 1
  00010	74 1f		 je	 SHORT $LN12@scalar
  00012	a8 04		 test	 al, 4
  00014	75 10		 jne	 SHORT $LN3@scalar

; 112  : 	{ ::operator delete(p); }

  00016	56		 push	 esi
  00017	e8 00 00 00 00	 call	 ??3@YAXPAX@Z		; operator delete
  0001c	83 c4 04	 add	 esp, 4
  0001f	8b c6		 mov	 eax, esi
  00021	5e		 pop	 esi
  00022	5d		 pop	 ebp
  00023	c2 04 00	 ret	 4
$LN3@scalar:
  00026	6a 1c		 push	 28			; 0000001cH
  00028	56		 push	 esi
  00029	e8 00 00 00 00	 call	 ?__global_delete@@YAXPAXI@Z ; __global_delete
  0002e	83 c4 08	 add	 esp, 8
$LN12@scalar:
  00031	8b c6		 mov	 eax, esi
  00033	5e		 pop	 esi
  00034	5d		 pop	 ebp
  00035	c2 04 00	 ret	 4
??_G?$_CTypedPtrList@VCObList@@PAVCGraphImp@@@@UAEPAXI@Z ENDP ; _CTypedPtrList<CObList,CGraphImp *>::`scalar deleting destructor'
_TEXT	ENDS
; Function compile flags: /Ogtp
; File C:\Program Files (x86)\Microsoft Visual Studio\2019\Community\VC\Tools\MSVC\14.29.30133\atlmfc\include\afxtempl.h
; File C:\Program Files (x86)\Microsoft Visual Studio\2019\Community\VC\Tools\MSVC\14.29.30133\atlmfc\include\afxcoll.inl
; File C:\Program Files (x86)\Microsoft Visual Studio\2019\Community\VC\Tools\MSVC\14.29.30133\atlmfc\include\afxtempl.h
; File C:\Program Files (x86)\Microsoft Visual Studio\2019\Community\VC\Tools\MSVC\14.29.30133\atlmfc\include\afxcoll.inl
; File C:\Program Files (x86)\Microsoft Visual Studio\2019\Community\VC\Tools\MSVC\14.29.30133\atlmfc\include\afxtempl.h
;	COMDAT ?GetNext@?$_CTypedPtrList@VCObList@@PAVCGraphImp@@@@QBEPAVCGraphImp@@AAPAU__POSITION@@@Z
_TEXT	SEGMENT
_rPosition$ = 8						; size = 4
?GetNext@?$_CTypedPtrList@VCObList@@PAVCGraphImp@@@@QBEPAVCGraphImp@@AAPAU__POSITION@@@Z PROC ; _CTypedPtrList<CObList,CGraphImp *>::GetNext, COMDAT
; _this$ = ecx

; 1898 : 		{ return (TYPE)BASE_CLASS::GetNext(rPosition); }

  00000	55		 push	 ebp
  00001	8b ec		 mov	 ebp, esp
; File C:\Program Files (x86)\Microsoft Visual Studio\2019\Community\VC\Tools\MSVC\14.29.30133\atlmfc\include\afxcoll.inl

; 435  : 	{ CNode* pNode = (CNode*) rPosition;

  00003	8b 55 08	 mov	 edx, DWORD PTR _rPosition$[ebp]
  00006	8b 02		 mov	 eax, DWORD PTR [edx]

; 436  : 		ASSERT(AfxIsValidAddress(pNode, sizeof(CNode)));
; 437  : 		if( pNode == NULL )

  00008	85 c0		 test	 eax, eax
  0000a	74 0b		 je	 SHORT $LN9@GetNext

; 439  : 		rPosition = (POSITION) pNode->pNext;

  0000c	8b 08		 mov	 ecx, DWORD PTR [eax]
  0000e	89 0a		 mov	 DWORD PTR [edx], ecx
; File C:\Program Files (x86)\Microsoft Visual Studio\2019\Community\VC\Tools\MSVC\14.29.30133\atlmfc\include\afxtempl.h

; 1898 : 		{ return (TYPE)BASE_CLASS::GetNext(rPosition); }

  00010	8b 40 08	 mov	 eax, DWORD PTR [eax+8]
  00013	5d		 pop	 ebp
  00014	c2 04 00	 ret	 4
$LN9@GetNext:
; File C:\Program Files (x86)\Microsoft Visual Studio\2019\Community\VC\Tools\MSVC\14.29.30133\atlmfc\include\afxcoll.inl

; 438  : 			AfxThrowInvalidArgException();

  00017	e8 00 00 00 00	 call	 ?AfxThrowInvalidArgException@@YGXXZ ; AfxThrowInvalidArgException
$LN7@GetNext:
  0001c	cc		 int	 3
?GetNext@?$_CTypedPtrList@VCObList@@PAVCGraphImp@@@@QBEPAVCGraphImp@@AAPAU__POSITION@@@Z ENDP ; _CTypedPtrList<CObList,CGraphImp *>::GetNext
_TEXT	ENDS
; Function compile flags: /Ogtp
; File C:\Program Files (x86)\Microsoft Visual Studio\2019\Community\VC\Tools\MSVC\14.29.30133\atlmfc\include\afxtempl.h
; File C:\Program Files (x86)\Microsoft Visual Studio\2019\Community\VC\Tools\MSVC\14.29.30133\atlmfc\include\afxcoll.inl
; File C:\Program Files (x86)\Microsoft Visual Studio\2019\Community\VC\Tools\MSVC\14.29.30133\atlmfc\include\afxtempl.h
; File C:\Program Files (x86)\Microsoft Visual Studio\2019\Community\VC\Tools\MSVC\14.29.30133\atlmfc\include\afxcoll.inl
; File C:\Program Files (x86)\Microsoft Visual Studio\2019\Community\VC\Tools\MSVC\14.29.30133\atlmfc\include\afxtempl.h
;	COMDAT ?GetNext@?$_CTypedPtrList@VCObList@@PAVCGraphImp@@@@QAEAAPAVCGraphImp@@AAPAU__POSITION@@@Z
_TEXT	SEGMENT
_rPosition$ = 8						; size = 4
?GetNext@?$_CTypedPtrList@VCObList@@PAVCGraphImp@@@@QAEAAPAVCGraphImp@@AAPAU__POSITION@@@Z PROC ; _CTypedPtrList<CObList,CGraphImp *>::GetNext, COMDAT
; _this$ = ecx

; 1896 : 		{ return (TYPE&)BASE_CLASS::GetNext(rPosition); }

  00000	55		 push	 ebp
  00001	8b ec		 mov	 ebp, esp
; File C:\Program Files (x86)\Microsoft Visual Studio\2019\Community\VC\Tools\MSVC\14.29.30133\atlmfc\include\afxcoll.inl

; 428  : 	{ CNode* pNode = (CNode*) rPosition;

  00003	8b 55 08	 mov	 edx, DWORD PTR _rPosition$[ebp]
  00006	8b 0a		 mov	 ecx, DWORD PTR [edx]

; 429  : 		ASSERT(AfxIsValidAddress(pNode, sizeof(CNode)));
; 430  : 		if( pNode == NULL )

  00008	85 c9		 test	 ecx, ecx
  0000a	74 0b		 je	 SHORT $LN9@GetNext

; 432  : 		rPosition = (POSITION) pNode->pNext;

  0000c	8b 01		 mov	 eax, DWORD PTR [ecx]
  0000e	89 02		 mov	 DWORD PTR [edx], eax

; 433  : 		return pNode->data; }

  00010	8d 41 08	 lea	 eax, DWORD PTR [ecx+8]
; File C:\Program Files (x86)\Microsoft Visual Studio\2019\Community\VC\Tools\MSVC\14.29.30133\atlmfc\include\afxtempl.h

; 1896 : 		{ return (TYPE&)BASE_CLASS::GetNext(rPosition); }

  00013	5d		 pop	 ebp
  00014	c2 04 00	 ret	 4
$LN9@GetNext:
; File C:\Program Files (x86)\Microsoft Visual Studio\2019\Community\VC\Tools\MSVC\14.29.30133\atlmfc\include\afxcoll.inl

; 431  : 			AfxThrowInvalidArgException();

  00017	e8 00 00 00 00	 call	 ?AfxThrowInvalidArgException@@YGXXZ ; AfxThrowInvalidArgException
$LN7@GetNext:
  0001c	cc		 int	 3
?GetNext@?$_CTypedPtrList@VCObList@@PAVCGraphImp@@@@QAEAAPAVCGraphImp@@AAPAU__POSITION@@@Z ENDP ; _CTypedPtrList<CObList,CGraphImp *>::GetNext
_TEXT	ENDS
; Function compile flags: /Ogtp
; File D:\git\src\IBK\IBK_DRFN\ProjSrc\SrcChartEx\ChartOCX\ChartObject\VertScaleGroup.cpp
;	COMDAT ?DoesOnlyPriceVertScale@CVertScaleGroup@@ABE_NXZ
_TEXT	SEGMENT
?DoesOnlyPriceVertScale@CVertScaleGroup@@ABE_NXZ PROC	; CVertScaleGroup::DoesOnlyPriceVertScale, COMDAT
; _this$ = ecx

; 2009 : 	if(m_pMainBlockBaseData == NULL)

  00000	8b 49 08	 mov	 ecx, DWORD PTR [ecx+8]
  00003	85 c9		 test	 ecx, ecx
  00005	75 03		 jne	 SHORT $LN2@DoesOnlyPr

; 2010 : 		return false;

  00007	32 c0		 xor	 al, al

; 2013 : }

  00009	c3		 ret	 0
$LN2@DoesOnlyPr:

; 2011 : 
; 2012 : 	return m_pMainBlockBaseData->GetScaleAttributes().DoesOnlyPriceVertScale();

  0000a	e8 00 00 00 00	 call	 ?GetScaleAttributes@CMainBlockBaseData@@QAEAAVCScaleAttributes@@XZ ; CMainBlockBaseData::GetScaleAttributes
  0000f	8b c8		 mov	 ecx, eax
  00011	e9 00 00 00 00	 jmp	 ?DoesOnlyPriceVertScale@CScaleAttributes@@QBE_NXZ ; CScaleAttributes::DoesOnlyPriceVertScale
?DoesOnlyPriceVertScale@CVertScaleGroup@@ABE_NXZ ENDP	; CVertScaleGroup::DoesOnlyPriceVertScale
_TEXT	ENDS
; Function compile flags: /Ogtp
; File D:\git\src\IBK\IBK_DRFN\ProjSrc\SrcChartEx\ChartOCX\ChartObject\VertScaleGroup.cpp
; File C:\Program Files (x86)\Microsoft Visual Studio\2019\Community\VC\Tools\MSVC\14.29.30133\atlmfc\include\atlsimpstr.h
; File D:\git\src\IBK\IBK_DRFN\ProjSrc\SrcChartEx\ChartOCX\ChartObject\VertScaleGroup.cpp
;	COMDAT ?IsVertScaleDrawing@CVertScaleGroup@@ABE_NXZ
_TEXT	SEGMENT
$T1 = -4						; size = 4
?IsVertScaleDrawing@CVertScaleGroup@@ABE_NXZ PROC	; CVertScaleGroup::IsVertScaleDrawing, COMDAT
; _this$ = ecx

; 1999 : {

  00000	55		 push	 ebp
  00001	8b ec		 mov	 ebp, esp
  00003	51		 push	 ecx
  00004	56		 push	 esi
  00005	57		 push	 edi
  00006	8b f9		 mov	 edi, ecx

; 2000 : 	if( m_vertScale.GetScaleData().IsEmpty() || m_GraphList.GetCount() <= 0)

  00008	8d 45 fc	 lea	 eax, DWORD PTR $T1[ebp]
  0000b	50		 push	 eax
  0000c	8d 4f 10	 lea	 ecx, DWORD PTR [edi+16]
  0000f	ff 15 00 00 00
	00		 call	 DWORD PTR __imp_?GetScaleData@CScale@@QBE?AV?$CStringT@DV?$StrTraitMFC_DLL@DV?$ChTraitsCRT@D@ATL@@@@@ATL@@XZ
; File C:\Program Files (x86)\Microsoft Visual Studio\2019\Community\VC\Tools\MSVC\14.29.30133\atlmfc\include\atlsimpstr.h

; 533  : 		return( GetLength() == 0 );

  00015	8b 00		 mov	 eax, DWORD PTR [eax]
  00017	83 78 f4 00	 cmp	 DWORD PTR [eax-12], 0
; File D:\git\src\IBK\IBK_DRFN\ProjSrc\SrcChartEx\ChartOCX\ChartObject\VertScaleGroup.cpp

; 2000 : 	if( m_vertScale.GetScaleData().IsEmpty() || m_GraphList.GetCount() <= 0)

  0001b	74 35		 je	 SHORT $LN4@IsVertScal
  0001d	83 bf 84 00 00
	00 00		 cmp	 DWORD PTR [edi+132], 0
  00024	7e 2c		 jle	 SHORT $LN4@IsVertScal
  00026	8d 4d fc	 lea	 ecx, DWORD PTR $T1[ebp]
  00029	ff 15 00 00 00
	00		 call	 DWORD PTR __imp_??1?$CStringT@DV?$StrTraitMFC_DLL@DV?$ChTraitsCRT@D@ATL@@@@@ATL@@QAE@XZ

; 2001 : 		return false;
; 2002 : 
; 2003 : 	return (m_vertScale.GetVertScalePosition() != CScaleBaseData::VERT_NONE && m_vertScale.GetActiveFlag());

  0002f	8d 4f 10	 lea	 ecx, DWORD PTR [edi+16]
  00032	ff 15 00 00 00
	00		 call	 DWORD PTR __imp_?GetVertScalePosition@CVerticalScale@@QBE?AW4VERTSCALEPOSITION@CScaleBaseData@@XZ
  00038	83 f8 03	 cmp	 eax, 3
  0003b	74 1e		 je	 SHORT $LN6@IsVertScal
  0003d	8d 4f 10	 lea	 ecx, DWORD PTR [edi+16]
  00040	ff 15 00 00 00
	00		 call	 DWORD PTR __imp_?GetActiveFlag@CVerticalScale@@QBEHXZ
  00046	85 c0		 test	 eax, eax
  00048	74 11		 je	 SHORT $LN6@IsVertScal
  0004a	5f		 pop	 edi
  0004b	b0 01		 mov	 al, 1

; 2004 : }

  0004d	5e		 pop	 esi
  0004e	8b e5		 mov	 esp, ebp
  00050	5d		 pop	 ebp
  00051	c3		 ret	 0
$LN4@IsVertScal:

; 2000 : 	if( m_vertScale.GetScaleData().IsEmpty() || m_GraphList.GetCount() <= 0)

  00052	8d 4d fc	 lea	 ecx, DWORD PTR $T1[ebp]
  00055	ff 15 00 00 00
	00		 call	 DWORD PTR __imp_??1?$CStringT@DV?$StrTraitMFC_DLL@DV?$ChTraitsCRT@D@ATL@@@@@ATL@@QAE@XZ
$LN6@IsVertScal:

; 2004 : }

  0005b	5f		 pop	 edi
  0005c	32 c0		 xor	 al, al
  0005e	5e		 pop	 esi
  0005f	8b e5		 mov	 esp, ebp
  00061	5d		 pop	 ebp
  00062	c3		 ret	 0
?IsVertScaleDrawing@CVertScaleGroup@@ABE_NXZ ENDP	; CVertScaleGroup::IsVertScaleDrawing
_TEXT	ENDS
; Function compile flags: /Ogtp
; File D:\git\src\IBK\IBK_DRFN\ProjSrc\SrcChartEx\ChartOCX\ChartObject\VertScaleGroup.cpp
;	COMDAT ?InitializeDrawingVertScaleData@CVertScaleGroup@@AAEXPAVCDrawingVertScaleData@@@Z
_TEXT	SEGMENT
$T1 = -4						; size = 4
_pDrawingVertScaleData$ = 8				; size = 4
?InitializeDrawingVertScaleData@CVertScaleGroup@@AAEXPAVCDrawingVertScaleData@@@Z PROC ; CVertScaleGroup::InitializeDrawingVertScaleData, COMDAT
; _this$ = ecx

; 1988 : {

  00000	55		 push	 ebp
  00001	8b ec		 mov	 ebp, esp
  00003	51		 push	 ecx

; 1989 : 	// VERT_LOG    .
; 1990 : 	if(pDrawingVertScaleData->GetScaleDrawerType() == CScaleBaseData::VERT_LOG)

  00004	8b 4d 08	 mov	 ecx, DWORD PTR _pDrawingVertScaleData$[ebp]
  00007	e8 00 00 00 00	 call	 ?GetScaleDrawerType@CDrawingVertScaleData@@QBE?AW4VERTSCALEDRAWERTYPE@CScaleBaseData@@XZ ; CDrawingVertScaleData::GetScaleDrawerType
  0000c	83 f8 08	 cmp	 eax, 8
  0000f	74 13		 je	 SHORT $LN1@Initialize

; 1991 : 		return;
; 1992 : 
; 1993 : 	pDrawingVertScaleData->SetScaleDrawerType(CScaleBaseData::VERT_NOTYPE);

  00011	8b 4d 08	 mov	 ecx, DWORD PTR _pDrawingVertScaleData$[ebp]
  00014	8d 45 fc	 lea	 eax, DWORD PTR $T1[ebp]
  00017	50		 push	 eax
  00018	c7 45 fc 00 00
	00 00		 mov	 DWORD PTR $T1[ebp], 0
  0001f	e8 00 00 00 00	 call	 ?SetScaleDrawerType@CDrawingVertScaleData@@QAEXABW4VERTSCALEDRAWERTYPE@CScaleBaseData@@@Z ; CDrawingVertScaleData::SetScaleDrawerType
$LN1@Initialize:

; 1994 : }

  00024	8b e5		 mov	 esp, ebp
  00026	5d		 pop	 ebp
  00027	c2 04 00	 ret	 4
?InitializeDrawingVertScaleData@CVertScaleGroup@@AAEXPAVCDrawingVertScaleData@@@Z ENDP ; CVertScaleGroup::InitializeDrawingVertScaleData
_TEXT	ENDS
; Function compile flags: /Ogtp
; File D:\git\src\IBK\IBK_DRFN\ProjSrc\SrcChartEx\ChartOCX\ChartObject\VertScaleGroup.cpp
;	COMDAT ?SetDrawingVertScaleData@CVertScaleGroup@@AAEXPAVCDrawingVertScaleData@@@Z
_TEXT	SEGMENT
$T2 = -16						; size = 4
__$EHRec$ = -12						; size = 12
$T3 = 8							; size = 4
$T4 = 8							; size = 4
$T5 = 8							; size = 4
_pDrawingVertScaleData$ = 8				; size = 4
?SetDrawingVertScaleData@CVertScaleGroup@@AAEXPAVCDrawingVertScaleData@@@Z PROC ; CVertScaleGroup::SetDrawingVertScaleData, COMDAT
; _this$ = ecx

; 1966 : {

  00000	55		 push	 ebp
  00001	8b ec		 mov	 ebp, esp
  00003	6a ff		 push	 -1
  00005	68 00 00 00 00	 push	 __ehhandler$?SetDrawingVertScaleData@CVertScaleGroup@@AAEXPAVCDrawingVertScaleData@@@Z
  0000a	64 a1 00 00 00
	00		 mov	 eax, DWORD PTR fs:0
  00010	50		 push	 eax
  00011	51		 push	 ecx
  00012	56		 push	 esi
  00013	57		 push	 edi
  00014	a1 00 00 00 00	 mov	 eax, DWORD PTR ___security_cookie
  00019	33 c5		 xor	 eax, ebp
  0001b	50		 push	 eax
  0001c	8d 45 f4	 lea	 eax, DWORD PTR __$EHRec$[ebp]
  0001f	64 a3 00 00 00
	00		 mov	 DWORD PTR fs:0, eax
  00025	8b f1		 mov	 esi, ecx

; 1967 : 	if(pDrawingVertScaleData == NULL || m_GraphList.GetCount() <= 0)

  00027	8b 7d 08	 mov	 edi, DWORD PTR _pDrawingVertScaleData$[ebp]
  0002a	85 ff		 test	 edi, edi
  0002c	0f 84 27 01 00
	00		 je	 $LN3@SetDrawing
  00032	83 be 84 00 00
	00 00		 cmp	 DWORD PTR [esi+132], 0
  00039	0f 8e 1a 01 00
	00		 jle	 $LN3@SetDrawing

; 1968 : 		return;
; 1969 : 
; 1970 : 	// (2007/1/14 - Seung-Won, Bae) Get the Base Packet for Default Scale Min/Max
; 1971 : 	if( !m_pBaseGraph && !m_pBasePacket) return;

  0003f	83 be 98 00 00
	00 00		 cmp	 DWORD PTR [esi+152], 0
  00046	75 0d		 jne	 SHORT $LN12@SetDrawing
  00048	83 be 9c 00 00
	00 00		 cmp	 DWORD PTR [esi+156], 0
  0004f	0f 84 04 01 00
	00		 je	 $LN3@SetDrawing
$LN12@SetDrawing:

; 1972 : 
; 1973 : 	pDrawingVertScaleData->SetDisplayDataMinMax(	m_displayDataMinMax);

  00055	8d 46 68	 lea	 eax, DWORD PTR [esi+104]
  00058	8b cf		 mov	 ecx, edi
  0005a	50		 push	 eax
  0005b	e8 00 00 00 00	 call	 ?SetDisplayDataMinMax@CDrawingVertScaleData@@QAEXABVCDisplayDataMinMax@@@Z ; CDrawingVertScaleData::SetDisplayDataMinMax

; 1974 : 	pDrawingVertScaleData->SetIndicatorName(		m_pBaseGraph->GetGraphData().GetIndicatorName());

  00060	8b 8e 98 00 00
	00		 mov	 ecx, DWORD PTR [esi+152]
  00066	8d 45 08	 lea	 eax, DWORD PTR $T5[ebp]
  00069	50		 push	 eax
  0006a	e8 00 00 00 00	 call	 ?GetGraphData@CGraphImp@@QAEAAVCGraphData@@XZ ; CGraphImp::GetGraphData
  0006f	8b c8		 mov	 ecx, eax
  00071	ff 15 00 00 00
	00		 call	 DWORD PTR __imp_?GetIndicatorName@CGraphData@@QBE?AV?$CStringT@DV?$StrTraitMFC_DLL@DV?$ChTraitsCRT@D@ATL@@@@@ATL@@XZ
  00077	50		 push	 eax
  00078	8b cf		 mov	 ecx, edi
  0007a	c7 45 fc 00 00
	00 00		 mov	 DWORD PTR __$EHRec$[ebp+8], 0
  00081	e8 00 00 00 00	 call	 ?SetIndicatorName@CDrawingVertScaleData@@QAEXABV?$CStringT@DV?$StrTraitMFC_DLL@DV?$ChTraitsCRT@D@ATL@@@@@ATL@@@Z ; CDrawingVertScaleData::SetIndicatorName
  00086	8d 4d 08	 lea	 ecx, DWORD PTR $T5[ebp]
  00089	c7 45 fc ff ff
	ff ff		 mov	 DWORD PTR __$EHRec$[ebp+8], -1
  00090	ff 15 00 00 00
	00		 call	 DWORD PTR __imp_??1?$CStringT@DV?$StrTraitMFC_DLL@DV?$ChTraitsCRT@D@ATL@@@@@ATL@@QAE@XZ

; 1975 : 	pDrawingVertScaleData->SetSubGraphNames(		m_pBaseGraph->GetSubGraphList().GetViewableSubGraphNames());

  00096	8b 8e 98 00 00
	00		 mov	 ecx, DWORD PTR [esi+152]
  0009c	8d 45 08	 lea	 eax, DWORD PTR $T4[ebp]
  0009f	50		 push	 eax
  000a0	e8 00 00 00 00	 call	 ?GetSubGraphList@CGraphImp@@QAEAAVCSubGraphList@@XZ ; CGraphImp::GetSubGraphList
  000a5	8b c8		 mov	 ecx, eax
  000a7	e8 00 00 00 00	 call	 ?GetViewableSubGraphNames@CSubGraphList@@QBE?AV?$CStringT@DV?$StrTraitMFC_DLL@DV?$ChTraitsCRT@D@ATL@@@@@ATL@@XZ ; CSubGraphList::GetViewableSubGraphNames
  000ac	50		 push	 eax
  000ad	8b cf		 mov	 ecx, edi
  000af	c7 45 fc 01 00
	00 00		 mov	 DWORD PTR __$EHRec$[ebp+8], 1
  000b6	e8 00 00 00 00	 call	 ?SetSubGraphNames@CDrawingVertScaleData@@QAEXABV?$CStringT@DV?$StrTraitMFC_DLL@DV?$ChTraitsCRT@D@ATL@@@@@ATL@@@Z ; CDrawingVertScaleData::SetSubGraphNames
  000bb	8d 4d 08	 lea	 ecx, DWORD PTR $T4[ebp]
  000be	c7 45 fc ff ff
	ff ff		 mov	 DWORD PTR __$EHRec$[ebp+8], -1
  000c5	ff 15 00 00 00
	00		 call	 DWORD PTR __imp_??1?$CStringT@DV?$StrTraitMFC_DLL@DV?$ChTraitsCRT@D@ATL@@@@@ATL@@QAE@XZ

; 1976 : 	pDrawingVertScaleData->SetPacketNames(			m_pBaseGraph->GetGraphData().GetPacketNames());

  000cb	8b 8e 98 00 00
	00		 mov	 ecx, DWORD PTR [esi+152]
  000d1	8d 45 08	 lea	 eax, DWORD PTR $T3[ebp]
  000d4	50		 push	 eax
  000d5	e8 00 00 00 00	 call	 ?GetGraphData@CGraphImp@@QAEAAVCGraphData@@XZ ; CGraphImp::GetGraphData
  000da	8b c8		 mov	 ecx, eax
  000dc	ff 15 00 00 00
	00		 call	 DWORD PTR __imp_?GetPacketNames@CGraphData@@QBE?AV?$CStringT@DV?$StrTraitMFC_DLL@DV?$ChTraitsCRT@D@ATL@@@@@ATL@@XZ
  000e2	50		 push	 eax
  000e3	8b cf		 mov	 ecx, edi
  000e5	c7 45 fc 02 00
	00 00		 mov	 DWORD PTR __$EHRec$[ebp+8], 2
  000ec	e8 00 00 00 00	 call	 ?SetPacketNames@CDrawingVertScaleData@@QAEXABV?$CStringT@DV?$StrTraitMFC_DLL@DV?$ChTraitsCRT@D@ATL@@@@@ATL@@@Z ; CDrawingVertScaleData::SetPacketNames
  000f1	8d 4d 08	 lea	 ecx, DWORD PTR $T3[ebp]
  000f4	c7 45 fc ff ff
	ff ff		 mov	 DWORD PTR __$EHRec$[ebp+8], -1
  000fb	ff 15 00 00 00
	00		 call	 DWORD PTR __imp_??1?$CStringT@DV?$StrTraitMFC_DLL@DV?$ChTraitsCRT@D@ATL@@@@@ATL@@QAE@XZ

; 1977 : 	pDrawingVertScaleData->SetIndicatorInfo(		m_pBaseGraph->GetIndicatorInfo());

  00101	8b 8e 98 00 00
	00		 mov	 ecx, DWORD PTR [esi+152]
  00107	e8 00 00 00 00	 call	 ?GetIndicatorInfo@CGraphImp@@QAEPAVCIndicatorInfo@@XZ ; CGraphImp::GetIndicatorInfo
  0010c	50		 push	 eax
  0010d	8b cf		 mov	 ecx, edi
  0010f	e8 00 00 00 00	 call	 ?SetIndicatorInfo@CDrawingVertScaleData@@QAEXPAVCIndicatorInfo@@@Z ; CDrawingVertScaleData::SetIndicatorInfo

; 1978 : 	pDrawingVertScaleData->SetPacket(				m_pBasePacket);

  00114	ff b6 9c 00 00
	00		 push	 DWORD PTR [esi+156]
  0011a	8b cf		 mov	 ecx, edi
  0011c	e8 00 00 00 00	 call	 ?SetPacket@CDrawingVertScaleData@@QAEXPAVCPacket@@@Z ; CDrawingVertScaleData::SetPacket

; 1979 : 
; 1980 : 	if( pDrawingVertScaleData->GetScaleDrawerType() == CScaleBaseData::VERT_NOTYPE){

  00121	8b cf		 mov	 ecx, edi
  00123	e8 00 00 00 00	 call	 ?GetScaleDrawerType@CDrawingVertScaleData@@QBE?AW4VERTSCALEDRAWERTYPE@CScaleBaseData@@XZ ; CDrawingVertScaleData::GetScaleDrawerType
  00128	85 c0		 test	 eax, eax
  0012a	75 2d		 jne	 SHORT $LN3@SetDrawing

; 1981 : 		// <> <>   -> ScaleDrawerType : <+>
; 1982 : 		if( m_pBaseGraph->GetSubGraphList().IsViewableGraphStyle(CGraphBaseData::Bar_Type, CGraphBaseData::FixedRateCombBar, 0))

  0012c	8b 8e 98 00 00
	00		 mov	 ecx, DWORD PTR [esi+152]
  00132	50		 push	 eax
  00133	6a 0e		 push	 14			; 0000000eH
  00135	6a 02		 push	 2
  00137	e8 00 00 00 00	 call	 ?GetSubGraphList@CGraphImp@@QAEAAVCSubGraphList@@XZ ; CGraphImp::GetSubGraphList
  0013c	8b c8		 mov	 ecx, eax
  0013e	e8 00 00 00 00	 call	 ?IsViewableGraphStyle@CSubGraphList@@QBE_NW4GRAPHTYPE@CGraphBaseData@@HH@Z ; CSubGraphList::IsViewableGraphStyle
  00143	84 c0		 test	 al, al
  00145	74 12		 je	 SHORT $LN3@SetDrawing

; 1983 : 			pDrawingVertScaleData->SetScaleDrawerType(CScaleBaseData::VERT_TOPBUTTOM_PLUS);

  00147	8d 45 f0	 lea	 eax, DWORD PTR $T2[ebp]
  0014a	c7 45 f0 0a 00
	00 00		 mov	 DWORD PTR $T2[ebp], 10	; 0000000aH
  00151	50		 push	 eax
  00152	8b cf		 mov	 ecx, edi
  00154	e8 00 00 00 00	 call	 ?SetScaleDrawerType@CDrawingVertScaleData@@QAEXABW4VERTSCALEDRAWERTYPE@CScaleBaseData@@@Z ; CDrawingVertScaleData::SetScaleDrawerType
$LN3@SetDrawing:

; 1984 : 	}
; 1985 : }

  00159	8b 4d f4	 mov	 ecx, DWORD PTR __$EHRec$[ebp]
  0015c	64 89 0d 00 00
	00 00		 mov	 DWORD PTR fs:0, ecx
  00163	59		 pop	 ecx
  00164	5f		 pop	 edi
  00165	5e		 pop	 esi
  00166	8b e5		 mov	 esp, ebp
  00168	5d		 pop	 ebp
  00169	c2 04 00	 ret	 4
_TEXT	ENDS
;	COMDAT text$x
text$x	SEGMENT
__unwindfunclet$?SetDrawingVertScaleData@CVertScaleGroup@@AAEXPAVCDrawingVertScaleData@@@Z$0:
  00000	8d 4d 08	 lea	 ecx, DWORD PTR $T5[ebp]
  00003	ff 25 00 00 00
	00		 jmp	 DWORD PTR __imp_??1?$CStringT@DV?$StrTraitMFC_DLL@DV?$ChTraitsCRT@D@ATL@@@@@ATL@@QAE@XZ
__unwindfunclet$?SetDrawingVertScaleData@CVertScaleGroup@@AAEXPAVCDrawingVertScaleData@@@Z$1:
  00009	8d 4d 08	 lea	 ecx, DWORD PTR $T4[ebp]
  0000c	ff 25 00 00 00
	00		 jmp	 DWORD PTR __imp_??1?$CStringT@DV?$StrTraitMFC_DLL@DV?$ChTraitsCRT@D@ATL@@@@@ATL@@QAE@XZ
__unwindfunclet$?SetDrawingVertScaleData@CVertScaleGroup@@AAEXPAVCDrawingVertScaleData@@@Z$2:
  00012	8d 4d 08	 lea	 ecx, DWORD PTR $T3[ebp]
  00015	ff 25 00 00 00
	00		 jmp	 DWORD PTR __imp_??1?$CStringT@DV?$StrTraitMFC_DLL@DV?$ChTraitsCRT@D@ATL@@@@@ATL@@QAE@XZ
  0001b	cc		 int	 3
  0001c	cc		 int	 3
  0001d	cc		 int	 3
  0001e	cc		 int	 3
  0001f	cc		 int	 3
__ehhandler$?SetDrawingVertScaleData@CVertScaleGroup@@AAEXPAVCDrawingVertScaleData@@@Z:
  00020	90		 npad	 1
  00021	90		 npad	 1
  00022	8b 54 24 08	 mov	 edx, DWORD PTR [esp+8]
  00026	8d 42 0c	 lea	 eax, DWORD PTR [edx+12]
  00029	8b 4a f0	 mov	 ecx, DWORD PTR [edx-16]
  0002c	33 c8		 xor	 ecx, eax
  0002e	e8 00 00 00 00	 call	 @__security_check_cookie@4
  00033	b8 00 00 00 00	 mov	 eax, OFFSET __ehfuncinfo$?SetDrawingVertScaleData@CVertScaleGroup@@AAEXPAVCDrawingVertScaleData@@@Z
  00038	e9 00 00 00 00	 jmp	 ___CxxFrameHandler3
text$x	ENDS
?SetDrawingVertScaleData@CVertScaleGroup@@AAEXPAVCDrawingVertScaleData@@@Z ENDP ; CVertScaleGroup::SetDrawingVertScaleData
; Function compile flags: /Ogtp
; File D:\git\src\IBK\IBK_DRFN\ProjSrc\SrcChartEx\ChartOCX\ChartObject\VertScaleGroup.cpp
;	COMDAT ?GetDisplayDataMinMax@CVertScaleGroup@@ABEXPAVCGraphImp@@AAVCDisplayDataMinMax@@@Z
_TEXT	SEGMENT
_temp$ = -52						; size = 16
_dMin$2 = -36						; size = 8
_dMax$3 = -28						; size = 8
tv161 = -20						; size = 8
tv67 = -20						; size = 8
$T4 = -16						; size = 4
__$EHRec$ = -12						; size = 12
_pGraph$ = 8						; size = 4
_displayDataMinMax$ = 12				; size = 4
?GetDisplayDataMinMax@CVertScaleGroup@@ABEXPAVCGraphImp@@AAVCDisplayDataMinMax@@@Z PROC ; CVertScaleGroup::GetDisplayDataMinMax, COMDAT
; _this$ = ecx

; 1945 : {

  00000	55		 push	 ebp
  00001	8b ec		 mov	 ebp, esp
  00003	6a ff		 push	 -1
  00005	68 00 00 00 00	 push	 __ehhandler$?GetDisplayDataMinMax@CVertScaleGroup@@ABEXPAVCGraphImp@@AAVCDisplayDataMinMax@@@Z
  0000a	64 a1 00 00 00
	00		 mov	 eax, DWORD PTR fs:0
  00010	50		 push	 eax
  00011	83 ec 28	 sub	 esp, 40			; 00000028H
  00014	53		 push	 ebx
  00015	56		 push	 esi
  00016	a1 00 00 00 00	 mov	 eax, DWORD PTR ___security_cookie
  0001b	33 c5		 xor	 eax, ebp
  0001d	50		 push	 eax
  0001e	8d 45 f4	 lea	 eax, DWORD PTR __$EHRec$[ebp]
  00021	64 a3 00 00 00
	00		 mov	 DWORD PTR fs:0, eax
  00027	8b f1		 mov	 esi, ecx

; 1946 : 	CDisplayDataMinMax temp;

  00029	8d 4d cc	 lea	 ecx, DWORD PTR _temp$[ebp]
  0002c	ff 15 00 00 00
	00		 call	 DWORD PTR __imp_??0CDisplayDataMinMax@@QAE@XZ

; 1947 : 	// (2006/11/11 - Seung-Won, Bae) Use Y Scale Min/Max Setting
; 1948 : 	if(!pGraph->GetDisplayDataMinMax(m_vertScale.GetScaleData(), temp, m_vertScale.GetVertScaleMinMaxType() == CScaleBaseData::VERT_MINMAX_OF_FULL))

  00032	8d 45 f0	 lea	 eax, DWORD PTR $T4[ebp]
  00035	50		 push	 eax
  00036	8d 4e 10	 lea	 ecx, DWORD PTR [esi+16]
  00039	ff 15 00 00 00
	00		 call	 DWORD PTR __imp_?GetScaleData@CScale@@QBE?AV?$CStringT@DV?$StrTraitMFC_DLL@DV?$ChTraitsCRT@D@ATL@@@@@ATL@@XZ
  0003f	33 c9		 xor	 ecx, ecx
  00041	c7 45 fc 00 00
	00 00		 mov	 DWORD PTR __$EHRec$[ebp+8], 0
  00048	83 7e 28 01	 cmp	 DWORD PTR [esi+40], 1
  0004c	0f 94 c1	 sete	 cl
  0004f	51		 push	 ecx
  00050	8d 4d cc	 lea	 ecx, DWORD PTR _temp$[ebp]
  00053	51		 push	 ecx
  00054	8b 4d 08	 mov	 ecx, DWORD PTR _pGraph$[ebp]
  00057	50		 push	 eax
  00058	e8 00 00 00 00	 call	 ?GetDisplayDataMinMax@CGraphImp@@QBE_NABV?$CStringT@DV?$StrTraitMFC_DLL@DV?$ChTraitsCRT@D@ATL@@@@@ATL@@AAVCDisplayDataMinMax@@H@Z ; CGraphImp::GetDisplayDataMinMax
  0005d	8d 4d f0	 lea	 ecx, DWORD PTR $T4[ebp]
  00060	c7 45 fc ff ff
	ff ff		 mov	 DWORD PTR __$EHRec$[ebp+8], -1
  00067	8a d8		 mov	 bl, al
  00069	ff 15 00 00 00
	00		 call	 DWORD PTR __imp_??1?$CStringT@DV?$StrTraitMFC_DLL@DV?$ChTraitsCRT@D@ATL@@@@@ATL@@QAE@XZ
  0006f	84 db		 test	 bl, bl
  00071	0f 84 9a 00 00
	00		 je	 $LN4@GetDisplay

; 1949 : 		return;
; 1950 : 
; 1951 : 	// (2006/11/19 - Seung-Won, Bae) Support Initizling State.
; 1952 : 	if( displayDataMinMax.IsInitialized())

  00077	8b 75 0c	 mov	 esi, DWORD PTR _displayDataMinMax$[ebp]
  0007a	8b ce		 mov	 ecx, esi
  0007c	ff 15 00 00 00
	00		 call	 DWORD PTR __imp_?IsInitialized@CDisplayDataMinMax@@QBEHXZ
  00082	8b ce		 mov	 ecx, esi
  00084	85 c0		 test	 eax, eax
  00086	74 7f		 je	 SHORT $LN3@GetDisplay

; 1953 : 	{
; 1954 : 		double dMin = displayDataMinMax.GetDisplayMin();

  00088	ff 15 00 00 00
	00		 call	 DWORD PTR __imp_?GetDisplayMin@CDisplayDataMinMax@@QBENXZ
  0008e	dd 5d dc	 fstp	 QWORD PTR _dMin$2[ebp]

; 1955 : 		double dMax = displayDataMinMax.GetDisplayMax();

  00091	8b ce		 mov	 ecx, esi
  00093	ff 15 00 00 00
	00		 call	 DWORD PTR __imp_?GetDisplayMax@CDisplayDataMinMax@@QBENXZ
  00099	dd 5d e4	 fstp	 QWORD PTR _dMax$3[ebp]

; 1956 : 		if(temp.GetDisplayMin() < dMin) dMin = temp.GetDisplayMin();

  0009c	8d 4d cc	 lea	 ecx, DWORD PTR _temp$[ebp]
  0009f	ff 15 00 00 00
	00		 call	 DWORD PTR __imp_?GetDisplayMin@CDisplayDataMinMax@@QBENXZ
  000a5	f2 0f 10 45 dc	 movsd	 xmm0, QWORD PTR _dMin$2[ebp]
  000aa	dd 5d ec	 fstp	 QWORD PTR tv161[ebp]
  000ad	66 0f 2f 45 ec	 comisd	 xmm0, QWORD PTR tv161[ebp]
  000b2	76 0c		 jbe	 SHORT $LN5@GetDisplay
  000b4	8d 4d cc	 lea	 ecx, DWORD PTR _temp$[ebp]
  000b7	ff 15 00 00 00
	00		 call	 DWORD PTR __imp_?GetDisplayMin@CDisplayDataMinMax@@QBENXZ
  000bd	dd 5d dc	 fstp	 QWORD PTR _dMin$2[ebp]
$LN5@GetDisplay:

; 1957 : 		if(temp.GetDisplayMax() > dMax) dMax = temp.GetDisplayMax();

  000c0	8d 4d cc	 lea	 ecx, DWORD PTR _temp$[ebp]
  000c3	ff 15 00 00 00
	00		 call	 DWORD PTR __imp_?GetDisplayMax@CDisplayDataMinMax@@QBENXZ
  000c9	dd 5d ec	 fstp	 QWORD PTR tv67[ebp]
  000cc	f2 0f 10 45 ec	 movsd	 xmm0, QWORD PTR tv67[ebp]
  000d1	66 0f 2f 45 e4	 comisd	 xmm0, QWORD PTR _dMax$3[ebp]
  000d6	76 0c		 jbe	 SHORT $LN6@GetDisplay
  000d8	8d 4d cc	 lea	 ecx, DWORD PTR _temp$[ebp]
  000db	ff 15 00 00 00
	00		 call	 DWORD PTR __imp_?GetDisplayMax@CDisplayDataMinMax@@QBENXZ
  000e1	dd 5d e4	 fstp	 QWORD PTR _dMax$3[ebp]
$LN6@GetDisplay:

; 1958 : 		displayDataMinMax.SetDisplayData( dMin, dMax);

  000e4	8d 45 e4	 lea	 eax, DWORD PTR _dMax$3[ebp]
  000e7	8b ce		 mov	 ecx, esi
  000e9	50		 push	 eax
  000ea	8d 45 dc	 lea	 eax, DWORD PTR _dMin$2[ebp]
  000ed	50		 push	 eax
  000ee	ff 15 00 00 00
	00		 call	 DWORD PTR __imp_?SetDisplayData@CDisplayDataMinMax@@QAEXABN0@Z

; 1961 : }

  000f4	8b 4d f4	 mov	 ecx, DWORD PTR __$EHRec$[ebp]
  000f7	64 89 0d 00 00
	00 00		 mov	 DWORD PTR fs:0, ecx
  000fe	59		 pop	 ecx
  000ff	5e		 pop	 esi
  00100	5b		 pop	 ebx
  00101	8b e5		 mov	 esp, ebp
  00103	5d		 pop	 ebp
  00104	c2 08 00	 ret	 8
$LN3@GetDisplay:

; 1959 : 	}
; 1960 : 	else displayDataMinMax = temp;

  00107	8d 45 cc	 lea	 eax, DWORD PTR _temp$[ebp]
  0010a	50		 push	 eax
  0010b	ff 15 00 00 00
	00		 call	 DWORD PTR __imp_??4CDisplayDataMinMax@@QAEAAV0@ABV0@@Z
$LN4@GetDisplay:

; 1961 : }

  00111	8b 4d f4	 mov	 ecx, DWORD PTR __$EHRec$[ebp]
  00114	64 89 0d 00 00
	00 00		 mov	 DWORD PTR fs:0, ecx
  0011b	59		 pop	 ecx
  0011c	5e		 pop	 esi
  0011d	5b		 pop	 ebx
  0011e	8b e5		 mov	 esp, ebp
  00120	5d		 pop	 ebp
  00121	c2 08 00	 ret	 8
_TEXT	ENDS
;	COMDAT text$x
text$x	SEGMENT
__unwindfunclet$?GetDisplayDataMinMax@CVertScaleGroup@@ABEXPAVCGraphImp@@AAVCDisplayDataMinMax@@@Z$0:
  00000	8d 4d f0	 lea	 ecx, DWORD PTR $T4[ebp]
  00003	ff 25 00 00 00
	00		 jmp	 DWORD PTR __imp_??1?$CStringT@DV?$StrTraitMFC_DLL@DV?$ChTraitsCRT@D@ATL@@@@@ATL@@QAE@XZ
  00009	cc		 int	 3
  0000a	cc		 int	 3
  0000b	cc		 int	 3
  0000c	cc		 int	 3
  0000d	cc		 int	 3
__ehhandler$?GetDisplayDataMinMax@CVertScaleGroup@@ABEXPAVCGraphImp@@AAVCDisplayDataMinMax@@@Z:
  0000e	90		 npad	 1
  0000f	90		 npad	 1
  00010	8b 54 24 08	 mov	 edx, DWORD PTR [esp+8]
  00014	8d 42 0c	 lea	 eax, DWORD PTR [edx+12]
  00017	8b 4a cc	 mov	 ecx, DWORD PTR [edx-52]
  0001a	33 c8		 xor	 ecx, eax
  0001c	e8 00 00 00 00	 call	 @__security_check_cookie@4
  00021	b8 00 00 00 00	 mov	 eax, OFFSET __ehfuncinfo$?GetDisplayDataMinMax@CVertScaleGroup@@ABEXPAVCGraphImp@@AAVCDisplayDataMinMax@@@Z
  00026	e9 00 00 00 00	 jmp	 ___CxxFrameHandler3
text$x	ENDS
?GetDisplayDataMinMax@CVertScaleGroup@@ABEXPAVCGraphImp@@AAVCDisplayDataMinMax@@@Z ENDP ; CVertScaleGroup::GetDisplayDataMinMax
; Function compile flags: /Ogtp
; File D:\git\src\IBK\IBK_DRFN\ProjSrc\SrcChartEx\ChartOCX\ChartObject\VertScaleGroup.cpp
;	COMDAT ?GetDisplayDataMinMaxInOnlyPrice@CVertScaleGroup@@ABE_NAAVCDisplayDataMinMax@@@Z
_TEXT	SEGMENT
$T2 = -16						; size = 4
__$EHRec$ = -12						; size = 12
_displayDataMinMax$ = 8					; size = 4
?GetDisplayDataMinMaxInOnlyPrice@CVertScaleGroup@@ABE_NAAVCDisplayDataMinMax@@@Z PROC ; CVertScaleGroup::GetDisplayDataMinMaxInOnlyPrice, COMDAT
; _this$ = ecx

; 1932 : {

  00000	55		 push	 ebp
  00001	8b ec		 mov	 ebp, esp
  00003	6a ff		 push	 -1
  00005	68 00 00 00 00	 push	 __ehhandler$?GetDisplayDataMinMaxInOnlyPrice@CVertScaleGroup@@ABE_NAAVCDisplayDataMinMax@@@Z
  0000a	64 a1 00 00 00
	00		 mov	 eax, DWORD PTR fs:0
  00010	50		 push	 eax
  00011	51		 push	 ecx
  00012	56		 push	 esi
  00013	57		 push	 edi
  00014	a1 00 00 00 00	 mov	 eax, DWORD PTR ___security_cookie
  00019	33 c5		 xor	 eax, ebp
  0001b	50		 push	 eax
  0001c	8d 45 f4	 lea	 eax, DWORD PTR __$EHRec$[ebp]
  0001f	64 a3 00 00 00
	00		 mov	 DWORD PTR fs:0, eax
  00025	8b f1		 mov	 esi, ecx

; 1933 : 	CGraphImp* pGraph = FindGraph( _MTEXT( C2_PRICE_CHART));

  00027	a1 54 00 00 00	 mov	 eax, DWORD PTR ?g_iMetaTable@@3VIMetaTable@@A+84
  0002c	8d 4d f0	 lea	 ecx, DWORD PTR $T2[ebp]
  0002f	ff b0 28 03 00
	00		 push	 DWORD PTR [eax+808]
  00035	ff 15 00 00 00
	00		 call	 DWORD PTR __imp_??0?$CStringT@DV?$StrTraitMFC_DLL@DV?$ChTraitsCRT@D@ATL@@@@@ATL@@QAE@PBD@Z
  0003b	8d 45 f0	 lea	 eax, DWORD PTR $T2[ebp]
  0003e	c7 45 fc 00 00
	00 00		 mov	 DWORD PTR __$EHRec$[ebp+8], 0
  00045	50		 push	 eax
  00046	8b ce		 mov	 ecx, esi
  00048	e8 00 00 00 00	 call	 ?FindGraph@CVertScaleGroup@@QBEPAVCGraphImp@@ABV?$CStringT@DV?$StrTraitMFC_DLL@DV?$ChTraitsCRT@D@ATL@@@@@ATL@@@Z ; CVertScaleGroup::FindGraph
  0004d	8d 4d f0	 lea	 ecx, DWORD PTR $T2[ebp]
  00050	c7 45 fc ff ff
	ff ff		 mov	 DWORD PTR __$EHRec$[ebp+8], -1
  00057	8b f8		 mov	 edi, eax
  00059	ff 15 00 00 00
	00		 call	 DWORD PTR __imp_??1?$CStringT@DV?$StrTraitMFC_DLL@DV?$ChTraitsCRT@D@ATL@@@@@ATL@@QAE@XZ

; 1934 : 	if(pGraph == NULL) return false;

  0005f	85 ff		 test	 edi, edi
  00061	74 37		 je	 SHORT $LN9@GetDisplay

; 2009 : 	if(m_pMainBlockBaseData == NULL)

  00063	8b 4e 08	 mov	 ecx, DWORD PTR [esi+8]
  00066	85 c9		 test	 ecx, ecx
  00068	74 30		 je	 SHORT $LN9@GetDisplay

; 2010 : 		return false;
; 2011 : 
; 2012 : 	return m_pMainBlockBaseData->GetScaleAttributes().DoesOnlyPriceVertScale();

  0006a	e8 00 00 00 00	 call	 ?GetScaleAttributes@CMainBlockBaseData@@QAEAAVCScaleAttributes@@XZ ; CMainBlockBaseData::GetScaleAttributes
  0006f	8b c8		 mov	 ecx, eax
  00071	e8 00 00 00 00	 call	 ?DoesOnlyPriceVertScale@CScaleAttributes@@QBE_NXZ ; CScaleAttributes::DoesOnlyPriceVertScale

; 1935 : 
; 1936 : 	bool bIsOnlyPriceVertScale = DoesOnlyPriceVertScale();
; 1937 : 	if(!bIsOnlyPriceVertScale) return false;

  00076	84 c0		 test	 al, al
  00078	74 20		 je	 SHORT $LN9@GetDisplay

; 1938 : 
; 1939 : 	GetDisplayDataMinMax(pGraph, displayDataMinMax);

  0007a	ff 75 08	 push	 DWORD PTR _displayDataMinMax$[ebp]
  0007d	8b ce		 mov	 ecx, esi
  0007f	57		 push	 edi
  00080	e8 00 00 00 00	 call	 ?GetDisplayDataMinMax@CVertScaleGroup@@ABEXPAVCGraphImp@@AAVCDisplayDataMinMax@@@Z ; CVertScaleGroup::GetDisplayDataMinMax

; 1940 : 	return true;

  00085	b0 01		 mov	 al, 1

; 1941 : }

  00087	8b 4d f4	 mov	 ecx, DWORD PTR __$EHRec$[ebp]
  0008a	64 89 0d 00 00
	00 00		 mov	 DWORD PTR fs:0, ecx
  00091	59		 pop	 ecx
  00092	5f		 pop	 edi
  00093	5e		 pop	 esi
  00094	8b e5		 mov	 esp, ebp
  00096	5d		 pop	 ebp
  00097	c2 04 00	 ret	 4
$LN9@GetDisplay:

; 1935 : 
; 1936 : 	bool bIsOnlyPriceVertScale = DoesOnlyPriceVertScale();
; 1937 : 	if(!bIsOnlyPriceVertScale) return false;

  0009a	32 c0		 xor	 al, al

; 1941 : }

  0009c	8b 4d f4	 mov	 ecx, DWORD PTR __$EHRec$[ebp]
  0009f	64 89 0d 00 00
	00 00		 mov	 DWORD PTR fs:0, ecx
  000a6	59		 pop	 ecx
  000a7	5f		 pop	 edi
  000a8	5e		 pop	 esi
  000a9	8b e5		 mov	 esp, ebp
  000ab	5d		 pop	 ebp
  000ac	c2 04 00	 ret	 4
_TEXT	ENDS
;	COMDAT text$x
text$x	SEGMENT
__unwindfunclet$?GetDisplayDataMinMaxInOnlyPrice@CVertScaleGroup@@ABE_NAAVCDisplayDataMinMax@@@Z$0:
  00000	8d 4d f0	 lea	 ecx, DWORD PTR $T2[ebp]
  00003	ff 25 00 00 00
	00		 jmp	 DWORD PTR __imp_??1?$CStringT@DV?$StrTraitMFC_DLL@DV?$ChTraitsCRT@D@ATL@@@@@ATL@@QAE@XZ
  00009	cc		 int	 3
  0000a	cc		 int	 3
  0000b	cc		 int	 3
  0000c	cc		 int	 3
  0000d	cc		 int	 3
__ehhandler$?GetDisplayDataMinMaxInOnlyPrice@CVertScaleGroup@@ABE_NAAVCDisplayDataMinMax@@@Z:
  0000e	90		 npad	 1
  0000f	90		 npad	 1
  00010	8b 54 24 08	 mov	 edx, DWORD PTR [esp+8]
  00014	8d 42 0c	 lea	 eax, DWORD PTR [edx+12]
  00017	8b 4a f0	 mov	 ecx, DWORD PTR [edx-16]
  0001a	33 c8		 xor	 ecx, eax
  0001c	e8 00 00 00 00	 call	 @__security_check_cookie@4
  00021	b8 00 00 00 00	 mov	 eax, OFFSET __ehfuncinfo$?GetDisplayDataMinMaxInOnlyPrice@CVertScaleGroup@@ABE_NAAVCDisplayDataMinMax@@@Z
  00026	e9 00 00 00 00	 jmp	 ___CxxFrameHandler3
text$x	ENDS
?GetDisplayDataMinMaxInOnlyPrice@CVertScaleGroup@@ABE_NAAVCDisplayDataMinMax@@@Z ENDP ; CVertScaleGroup::GetDisplayDataMinMaxInOnlyPrice
; Function compile flags: /Ogtp
; File D:\git\src\IBK\IBK_DRFN\ProjSrc\SrcChartEx\ChartOCX\ChartObject\VertScaleGroup.cpp
; File C:\Program Files (x86)\Microsoft Visual Studio\2019\Community\VC\Tools\MSVC\14.29.30133\atlmfc\include\afxtempl.h
; File D:\git\src\IBK\IBK_DRFN\ProjSrc\SrcChartEx\ChartOCX\ChartObject\VertScaleGroup.cpp
; File C:\Program Files (x86)\Microsoft Visual Studio\2019\Community\VC\Tools\MSVC\14.29.30133\atlmfc\include\afxcoll.inl
; File D:\git\src\IBK\IBK_DRFN\ProjSrc\SrcChartEx\ChartOCX\ChartObject\VertScaleGroup.cpp
;	COMDAT ?GetDisplayDataMinMaxInAll@CVertScaleGroup@@ABE?AVCDisplayDataMinMax@@XZ
_TEXT	SEGMENT
_gapData$ = -20						; size = 16
_this$1$ = -4						; size = 4
___$ReturnUdt$ = 8					; size = 4
?GetDisplayDataMinMaxInAll@CVertScaleGroup@@ABE?AVCDisplayDataMinMax@@XZ PROC ; CVertScaleGroup::GetDisplayDataMinMaxInAll, COMDAT
; _this$ = ecx

; 1912 : {

  00000	55		 push	 ebp
  00001	8b ec		 mov	 ebp, esp
  00003	83 ec 14	 sub	 esp, 20			; 00000014H
  00006	53		 push	 ebx

; 1913 : 	//sy test
; 1914 : 	CDisplayDataMinMax displayDataMinMax, gapData;

  00007	8b 5d 08	 mov	 ebx, DWORD PTR ___$ReturnUdt$[ebp]
  0000a	56		 push	 esi
  0000b	8b 35 00 00 00
	00		 mov	 esi, DWORD PTR __imp_??0CDisplayDataMinMax@@QAE@XZ
  00011	57		 push	 edi
  00012	8b f9		 mov	 edi, ecx
  00014	8b cb		 mov	 ecx, ebx
  00016	89 7d fc	 mov	 DWORD PTR _this$1$[ebp], edi
  00019	ff d6		 call	 esi
  0001b	8d 4d ec	 lea	 ecx, DWORD PTR _gapData$[ebp]
  0001e	ff d6		 call	 esi

; 1915 : 	POSITION pos = m_GraphList.GetHeadPosition();

  00020	8b 77 7c	 mov	 esi, DWORD PTR [edi+124]

; 1916 : 	while(pos != NULL)

  00023	85 f6		 test	 esi, esi
  00025	74 1e		 je	 SHORT $LN19@GetDisplay
$LL2@GetDisplay:
; File C:\Program Files (x86)\Microsoft Visual Studio\2019\Community\VC\Tools\MSVC\14.29.30133\atlmfc\include\afxtempl.h

; 1898 : 		{ return (TYPE)BASE_CLASS::GetNext(rPosition); }

  00027	8b 7e 08	 mov	 edi, DWORD PTR [esi+8]
; File D:\git\src\IBK\IBK_DRFN\ProjSrc\SrcChartEx\ChartOCX\ChartObject\VertScaleGroup.cpp

; 1922 : 		if( pGraph->IsGraphHide()) continue;

  0002a	8b cf		 mov	 ecx, edi
; File C:\Program Files (x86)\Microsoft Visual Studio\2019\Community\VC\Tools\MSVC\14.29.30133\atlmfc\include\afxcoll.inl

; 439  : 		rPosition = (POSITION) pNode->pNext;

  0002c	8b 36		 mov	 esi, DWORD PTR [esi]
; File D:\git\src\IBK\IBK_DRFN\ProjSrc\SrcChartEx\ChartOCX\ChartObject\VertScaleGroup.cpp

; 1922 : 		if( pGraph->IsGraphHide()) continue;

  0002e	8b 07		 mov	 eax, DWORD PTR [edi]
  00030	ff 50 18	 call	 DWORD PTR [eax+24]
  00033	85 c0		 test	 eax, eax
  00035	75 0a		 jne	 SHORT $LN16@GetDisplay

; 1923 : 
; 1924 : 		GetDisplayDataMinMax(pGraph, displayDataMinMax);

  00037	8b 4d fc	 mov	 ecx, DWORD PTR _this$1$[ebp]
  0003a	53		 push	 ebx
  0003b	57		 push	 edi
  0003c	e8 00 00 00 00	 call	 ?GetDisplayDataMinMax@CVertScaleGroup@@ABEXPAVCGraphImp@@AAVCDisplayDataMinMax@@@Z ; CVertScaleGroup::GetDisplayDataMinMax
$LN16@GetDisplay:

; 1916 : 	while(pos != NULL)

  00041	85 f6		 test	 esi, esi
  00043	75 e2		 jne	 SHORT $LL2@GetDisplay
$LN19@GetDisplay:
  00045	5f		 pop	 edi

; 1925 : 	}
; 1926 : 
; 1927 : 	return displayDataMinMax;
; 1928 : }

  00046	5e		 pop	 esi
  00047	8b c3		 mov	 eax, ebx
  00049	5b		 pop	 ebx
  0004a	8b e5		 mov	 esp, ebp
  0004c	5d		 pop	 ebp
  0004d	c2 04 00	 ret	 4
?GetDisplayDataMinMaxInAll@CVertScaleGroup@@ABE?AVCDisplayDataMinMax@@XZ ENDP ; CVertScaleGroup::GetDisplayDataMinMaxInAll
_TEXT	ENDS
; Function compile flags: /Ogtp
; File D:\git\src\IBK\IBK_DRFN\ProjSrc\SrcChartEx\ChartOCX\ChartObject\VertScaleGroup.cpp
; File C:\Program Files (x86)\Microsoft Visual Studio\2019\Community\VC\Tools\MSVC\14.29.30133\atlmfc\include\afxtempl.h
; File D:\git\src\IBK\IBK_DRFN\ProjSrc\SrcChartEx\ChartOCX\ChartObject\VertScaleGroup.cpp
;	COMDAT ?ModifyGraph@CVertScaleGroup@@AAEXPAVCGraphImp@@PAD@Z
_TEXT	SEGMENT
_pGraph$ = 8						; size = 4
_pNewGraph$1$ = 12					; size = 4
_p_szGraphData$ = 12					; size = 4
?ModifyGraph@CVertScaleGroup@@AAEXPAVCGraphImp@@PAD@Z PROC ; CVertScaleGroup::ModifyGraph, COMDAT
; _this$ = ecx

; 1895 : {

  00000	55		 push	 ebp
  00001	8b ec		 mov	 ebp, esp
  00003	53		 push	 ebx
  00004	56		 push	 esi
  00005	57		 push	 edi

; 1896 : 	CGraphImp* pNewGraph = MakeNewGraph( p_szGraphData);

  00006	ff 75 0c	 push	 DWORD PTR _p_szGraphData$[ebp]
  00009	8b f9		 mov	 edi, ecx
  0000b	e8 00 00 00 00	 call	 ?MakeNewGraph@CVertScaleGroup@@AAEPAVCGraphImp@@PAD@Z ; CVertScaleGroup::MakeNewGraph

; 1897 : 	//     graph list .
; 1898 : 	if( !pNewGraph)

  00010	8b 75 08	 mov	 esi, DWORD PTR _pGraph$[ebp]
  00013	89 45 0c	 mov	 DWORD PTR _pNewGraph$1$[ebp], eax
  00016	85 c0		 test	 eax, eax
  00018	74 67		 je	 SHORT $LN10@ModifyGrap

; 1883 : 	POSITION pos = m_GraphList.Find(pTargetGraph);

  0001a	6a 00		 push	 0
  0001c	56		 push	 esi
  0001d	8d 4f 78	 lea	 ecx, DWORD PTR [edi+120]
  00020	e8 00 00 00 00	 call	 ?Find@CObList@@QBEPAU__POSITION@@PAVCObject@@PAU2@@Z ; CObList::Find
; File C:\Program Files (x86)\Microsoft Visual Studio\2019\Community\VC\Tools\MSVC\14.29.30133\atlmfc\include\afxtempl.h

; 1914 : 		{ return BASE_CLASS::InsertBefore(position, newElement); }

  00025	ff 75 0c	 push	 DWORD PTR _pNewGraph$1$[ebp]
  00028	8d 4f 78	 lea	 ecx, DWORD PTR [edi+120]
  0002b	50		 push	 eax
  0002c	e8 00 00 00 00	 call	 ?InsertBefore@CObList@@QAEPAU__POSITION@@PAU2@PAVCObject@@@Z ; CObList::InsertBefore
; File D:\git\src\IBK\IBK_DRFN\ProjSrc\SrcChartEx\ChartOCX\ChartObject\VertScaleGroup.cpp

; 1853 : 		bSamePacket = pSourceGraph->GetSubGraphList().IsExistenceSamePacketInGraph(pDeleteGraph);

  00031	8b 4d 0c	 mov	 ecx, DWORD PTR _pNewGraph$1$[ebp]
  00034	56		 push	 esi
  00035	e8 00 00 00 00	 call	 ?GetSubGraphList@CGraphImp@@QAEAAVCSubGraphList@@XZ ; CGraphImp::GetSubGraphList
  0003a	8b c8		 mov	 ecx, eax
  0003c	e8 00 00 00 00	 call	 ?IsExistenceSamePacketInGraph@CSubGraphList@@QBE_NPAVCGraphImp@@@Z ; CSubGraphList::IsExistenceSamePacketInGraph

; 1854 : 
; 1855 : 	if(bSamePacket)

  00041	84 c0		 test	 al, al
  00043	74 3c		 je	 SHORT $LN10@ModifyGrap

; 1865 : 	POSITION pos = m_GraphList.Find(pGraph);

  00045	6a 00		 push	 0
  00047	56		 push	 esi
  00048	8d 4f 78	 lea	 ecx, DWORD PTR [edi+120]
  0004b	e8 00 00 00 00	 call	 ?Find@CObList@@QBEPAU__POSITION@@PAVCObject@@PAU2@@Z ; CObList::Find
  00050	8b d8		 mov	 ebx, eax

; 1866 : 
; 1867 : 	// Y Scale    - ojtaso (20070807)
; 1868 : 	if(m_lpSelectedGraph == pGraph)

  00052	39 b7 94 00 00
	00		 cmp	 DWORD PTR [edi+148], esi
  00058	75 0a		 jne	 SHORT $LN14@ModifyGrap

; 1869 : 		m_lpSelectedGraph = NULL;

  0005a	c7 87 94 00 00
	00 00 00 00 00	 mov	 DWORD PTR [edi+148], 0
$LN14@ModifyGrap:

; 1870 : 
; 1871 : 	// (2007/2/16 - Seung-Won, Bae) Remove in list after Deleting the Object.
; 1872 : 	//		In Destructor, can be access the List.
; 1873 : 	CGraphImp::Delete(pGraph);

  00064	56		 push	 esi
  00065	e8 00 00 00 00	 call	 ?Delete@CGraphImp@@SAXPAV1@@Z ; CGraphImp::Delete
  0006a	83 c4 04	 add	 esp, 4

; 1874 : 	if(pos != NULL)

  0006d	85 db		 test	 ebx, ebx
  0006f	74 1a		 je	 SHORT $LN11@ModifyGrap

; 1875 : 		m_GraphList.RemoveAt(pos);

  00071	53		 push	 ebx
  00072	8d 4f 78	 lea	 ecx, DWORD PTR [edi+120]
  00075	e8 00 00 00 00	 call	 ?RemoveAt@CObList@@QAEXPAU__POSITION@@@Z ; CObList::RemoveAt
  0007a	5f		 pop	 edi

; 1899 : 	{
; 1900 : 		DeleteGraphWithNotify( pGraph);
; 1901 : 		return;
; 1902 : 	}
; 1903 : 
; 1904 : 	//   pGraph  graph .
; 1905 : 	// -> pGraph  .
; 1906 : 	ChangeGraph(pNewGraph, pGraph);
; 1907 : }

  0007b	5e		 pop	 esi
  0007c	5b		 pop	 ebx
  0007d	5d		 pop	 ebp
  0007e	c2 08 00	 ret	 8
$LN10@ModifyGrap:

; 1858 : 		DeleteGraphWithNotify(pDeleteGraph);

  00081	6a 01		 push	 1
  00083	56		 push	 esi
  00084	8b cf		 mov	 ecx, edi
  00086	e8 00 00 00 00	 call	 ?DeleteGraphWithNotify@CVertScaleGroup@@QAE_NPAVCGraphImp@@_N@Z ; CVertScaleGroup::DeleteGraphWithNotify
$LN11@ModifyGrap:
  0008b	5f		 pop	 edi

; 1899 : 	{
; 1900 : 		DeleteGraphWithNotify( pGraph);
; 1901 : 		return;
; 1902 : 	}
; 1903 : 
; 1904 : 	//   pGraph  graph .
; 1905 : 	// -> pGraph  .
; 1906 : 	ChangeGraph(pNewGraph, pGraph);
; 1907 : }

  0008c	5e		 pop	 esi
  0008d	5b		 pop	 ebx
  0008e	5d		 pop	 ebp
  0008f	c2 08 00	 ret	 8
?ModifyGraph@CVertScaleGroup@@AAEXPAVCGraphImp@@PAD@Z ENDP ; CVertScaleGroup::ModifyGraph
_TEXT	ENDS
; Function compile flags: /Ogtp
; File D:\git\src\IBK\IBK_DRFN\ProjSrc\SrcChartEx\ChartOCX\ChartObject\VertScaleGroup.cpp
; File C:\Program Files (x86)\Microsoft Visual Studio\2019\Community\VC\Tools\MSVC\14.29.30133\atlmfc\include\afxtempl.h
; File D:\git\src\IBK\IBK_DRFN\ProjSrc\SrcChartEx\ChartOCX\ChartObject\VertScaleGroup.cpp
;	COMDAT ?ChangeGraph@CVertScaleGroup@@AAEXPAVCGraphImp@@0@Z
_TEXT	SEGMENT
_pos$1$ = 8						; size = 4
_pSourceGraph$ = 8					; size = 4
_pTargetGraph$ = 12					; size = 4
?ChangeGraph@CVertScaleGroup@@AAEXPAVCGraphImp@@0@Z PROC ; CVertScaleGroup::ChangeGraph, COMDAT
; _this$ = ecx

; 1880 : {

  00000	55		 push	 ebp
  00001	8b ec		 mov	 ebp, esp
  00003	53		 push	 ebx
  00004	56		 push	 esi

; 1881 : 	assert(pSourceGraph != NULL && pTargetGraph != NULL);
; 1882 : 
; 1883 : 	POSITION pos = m_GraphList.Find(pTargetGraph);

  00005	8b 75 0c	 mov	 esi, DWORD PTR _pTargetGraph$[ebp]
  00008	57		 push	 edi
  00009	8b f9		 mov	 edi, ecx
  0000b	6a 00		 push	 0
  0000d	56		 push	 esi
  0000e	8d 4f 78	 lea	 ecx, DWORD PTR [edi+120]
  00011	e8 00 00 00 00	 call	 ?Find@CObList@@QBEPAU__POSITION@@PAVCObject@@PAU2@@Z ; CObList::Find
; File C:\Program Files (x86)\Microsoft Visual Studio\2019\Community\VC\Tools\MSVC\14.29.30133\atlmfc\include\afxtempl.h

; 1914 : 		{ return BASE_CLASS::InsertBefore(position, newElement); }

  00016	ff 75 08	 push	 DWORD PTR _pSourceGraph$[ebp]
  00019	8d 4f 78	 lea	 ecx, DWORD PTR [edi+120]
  0001c	50		 push	 eax
  0001d	e8 00 00 00 00	 call	 ?InsertBefore@CObList@@QAEPAU__POSITION@@PAU2@PAVCObject@@@Z ; CObList::InsertBefore
; File D:\git\src\IBK\IBK_DRFN\ProjSrc\SrcChartEx\ChartOCX\ChartObject\VertScaleGroup.cpp

; 1852 : 	if(pSourceGraph != NULL)

  00022	8b 4d 08	 mov	 ecx, DWORD PTR _pSourceGraph$[ebp]
  00025	85 c9		 test	 ecx, ecx
  00027	74 51		 je	 SHORT $LN7@ChangeGrap

; 1853 : 		bSamePacket = pSourceGraph->GetSubGraphList().IsExistenceSamePacketInGraph(pDeleteGraph);

  00029	56		 push	 esi
  0002a	e8 00 00 00 00	 call	 ?GetSubGraphList@CGraphImp@@QAEAAVCSubGraphList@@XZ ; CGraphImp::GetSubGraphList
  0002f	8b c8		 mov	 ecx, eax
  00031	e8 00 00 00 00	 call	 ?IsExistenceSamePacketInGraph@CSubGraphList@@QBE_NPAVCGraphImp@@@Z ; CSubGraphList::IsExistenceSamePacketInGraph

; 1854 : 
; 1855 : 	if(bSamePacket)

  00036	84 c0		 test	 al, al
  00038	74 40		 je	 SHORT $LN7@ChangeGrap

; 1865 : 	POSITION pos = m_GraphList.Find(pGraph);

  0003a	6a 00		 push	 0
  0003c	56		 push	 esi
  0003d	8d 4f 78	 lea	 ecx, DWORD PTR [edi+120]
  00040	e8 00 00 00 00	 call	 ?Find@CObList@@QBEPAU__POSITION@@PAVCObject@@PAU2@@Z ; CObList::Find
  00045	89 45 08	 mov	 DWORD PTR _pos$1$[ebp], eax

; 1866 : 
; 1867 : 	// Y Scale    - ojtaso (20070807)
; 1868 : 	if(m_lpSelectedGraph == pGraph)

  00048	39 b7 94 00 00
	00		 cmp	 DWORD PTR [edi+148], esi
  0004e	75 0a		 jne	 SHORT $LN11@ChangeGrap

; 1869 : 		m_lpSelectedGraph = NULL;

  00050	c7 87 94 00 00
	00 00 00 00 00	 mov	 DWORD PTR [edi+148], 0
$LN11@ChangeGrap:

; 1870 : 
; 1871 : 	// (2007/2/16 - Seung-Won, Bae) Remove in list after Deleting the Object.
; 1872 : 	//		In Destructor, can be access the List.
; 1873 : 	CGraphImp::Delete(pGraph);

  0005a	56		 push	 esi
  0005b	e8 00 00 00 00	 call	 ?Delete@CGraphImp@@SAXPAV1@@Z ; CGraphImp::Delete

; 1874 : 	if(pos != NULL)

  00060	8b 45 08	 mov	 eax, DWORD PTR _pos$1$[ebp]
  00063	83 c4 04	 add	 esp, 4
  00066	85 c0		 test	 eax, eax
  00068	74 1a		 je	 SHORT $LN8@ChangeGrap

; 1875 : 		m_GraphList.RemoveAt(pos);

  0006a	50		 push	 eax
  0006b	8d 4f 78	 lea	 ecx, DWORD PTR [edi+120]
  0006e	e8 00 00 00 00	 call	 ?RemoveAt@CObList@@QAEXPAU__POSITION@@@Z ; CObList::RemoveAt
  00073	5f		 pop	 edi

; 1884 : 	m_GraphList.InsertBefore(pos, pSourceGraph);
; 1885 : 	//sy test
; 1886 : 	//  graph packet  .
; 1887 : 	//DeleteGraph(pTargetGraph);
; 1888 : 	DeleteGraph(pTargetGraph, pSourceGraph);
; 1889 : }

  00074	5e		 pop	 esi
  00075	5b		 pop	 ebx
  00076	5d		 pop	 ebp
  00077	c2 08 00	 ret	 8
$LN7@ChangeGrap:

; 1858 : 		DeleteGraphWithNotify(pDeleteGraph);

  0007a	6a 01		 push	 1
  0007c	56		 push	 esi
  0007d	8b cf		 mov	 ecx, edi
  0007f	e8 00 00 00 00	 call	 ?DeleteGraphWithNotify@CVertScaleGroup@@QAE_NPAVCGraphImp@@_N@Z ; CVertScaleGroup::DeleteGraphWithNotify
$LN8@ChangeGrap:
  00084	5f		 pop	 edi

; 1884 : 	m_GraphList.InsertBefore(pos, pSourceGraph);
; 1885 : 	//sy test
; 1886 : 	//  graph packet  .
; 1887 : 	//DeleteGraph(pTargetGraph);
; 1888 : 	DeleteGraph(pTargetGraph, pSourceGraph);
; 1889 : }

  00085	5e		 pop	 esi
  00086	5b		 pop	 ebx
  00087	5d		 pop	 ebp
  00088	c2 08 00	 ret	 8
?ChangeGraph@CVertScaleGroup@@AAEXPAVCGraphImp@@0@Z ENDP ; CVertScaleGroup::ChangeGraph
_TEXT	ENDS
; Function compile flags: /Ogtp
; File D:\git\src\IBK\IBK_DRFN\ProjSrc\SrcChartEx\ChartOCX\ChartObject\VertScaleGroup.cpp
;	COMDAT ?DeleteGraphNoDeletePacket@CVertScaleGroup@@AAEXPAVCGraphImp@@@Z
_TEXT	SEGMENT
_pGraph$ = 8						; size = 4
?DeleteGraphNoDeletePacket@CVertScaleGroup@@AAEXPAVCGraphImp@@@Z PROC ; CVertScaleGroup::DeleteGraphNoDeletePacket, COMDAT
; _this$ = ecx

; 1863 : {

  00000	55		 push	 ebp
  00001	8b ec		 mov	 ebp, esp
  00003	53		 push	 ebx
  00004	56		 push	 esi
  00005	57		 push	 edi

; 1864 : 	assert(pGraph != NULL);
; 1865 : 	POSITION pos = m_GraphList.Find(pGraph);

  00006	8b 7d 08	 mov	 edi, DWORD PTR _pGraph$[ebp]
  00009	8b d9		 mov	 ebx, ecx
  0000b	6a 00		 push	 0
  0000d	57		 push	 edi
  0000e	8d 4b 78	 lea	 ecx, DWORD PTR [ebx+120]
  00011	e8 00 00 00 00	 call	 ?Find@CObList@@QBEPAU__POSITION@@PAVCObject@@PAU2@@Z ; CObList::Find
  00016	8b f0		 mov	 esi, eax

; 1866 : 
; 1867 : 	// Y Scale    - ojtaso (20070807)
; 1868 : 	if(m_lpSelectedGraph == pGraph)

  00018	39 bb 94 00 00
	00		 cmp	 DWORD PTR [ebx+148], edi
  0001e	75 0a		 jne	 SHORT $LN2@DeleteGrap

; 1869 : 		m_lpSelectedGraph = NULL;

  00020	c7 83 94 00 00
	00 00 00 00 00	 mov	 DWORD PTR [ebx+148], 0
$LN2@DeleteGrap:

; 1870 : 
; 1871 : 	// (2007/2/16 - Seung-Won, Bae) Remove in list after Deleting the Object.
; 1872 : 	//		In Destructor, can be access the List.
; 1873 : 	CGraphImp::Delete(pGraph);

  0002a	57		 push	 edi
  0002b	e8 00 00 00 00	 call	 ?Delete@CGraphImp@@SAXPAV1@@Z ; CGraphImp::Delete
  00030	83 c4 04	 add	 esp, 4

; 1874 : 	if(pos != NULL)

  00033	85 f6		 test	 esi, esi
  00035	74 09		 je	 SHORT $LN3@DeleteGrap

; 1875 : 		m_GraphList.RemoveAt(pos);

  00037	56		 push	 esi
  00038	8d 4b 78	 lea	 ecx, DWORD PTR [ebx+120]
  0003b	e8 00 00 00 00	 call	 ?RemoveAt@CObList@@QAEXPAU__POSITION@@@Z ; CObList::RemoveAt
$LN3@DeleteGrap:

; 1876 : }

  00040	5f		 pop	 edi
  00041	5e		 pop	 esi
  00042	5b		 pop	 ebx
  00043	5d		 pop	 ebp
  00044	c2 04 00	 ret	 4
?DeleteGraphNoDeletePacket@CVertScaleGroup@@AAEXPAVCGraphImp@@@Z ENDP ; CVertScaleGroup::DeleteGraphNoDeletePacket
_TEXT	ENDS
; Function compile flags: /Ogtp
; File D:\git\src\IBK\IBK_DRFN\ProjSrc\SrcChartEx\ChartOCX\ChartObject\VertScaleGroup.cpp
;	COMDAT ?DeleteGraph@CVertScaleGroup@@AAEXPAVCGraphImp@@0@Z
_TEXT	SEGMENT
_pDeleteGraph$ = 8					; size = 4
_pSourceGraph$ = 12					; size = 4
?DeleteGraph@CVertScaleGroup@@AAEXPAVCGraphImp@@0@Z PROC ; CVertScaleGroup::DeleteGraph, COMDAT
; _this$ = ecx

; 1850 : {

  00000	55		 push	 ebp
  00001	8b ec		 mov	 ebp, esp
  00003	56		 push	 esi

; 1851 : 	bool bSamePacket = false;
; 1852 : 	if(pSourceGraph != NULL)

  00004	8b 75 08	 mov	 esi, DWORD PTR _pDeleteGraph$[ebp]
  00007	57		 push	 edi
  00008	8b f9		 mov	 edi, ecx
  0000a	8b 4d 0c	 mov	 ecx, DWORD PTR _pSourceGraph$[ebp]
  0000d	85 c9		 test	 ecx, ecx
  0000f	74 4e		 je	 SHORT $LN3@DeleteGrap

; 1853 : 		bSamePacket = pSourceGraph->GetSubGraphList().IsExistenceSamePacketInGraph(pDeleteGraph);

  00011	56		 push	 esi
  00012	e8 00 00 00 00	 call	 ?GetSubGraphList@CGraphImp@@QAEAAVCSubGraphList@@XZ ; CGraphImp::GetSubGraphList
  00017	8b c8		 mov	 ecx, eax
  00019	e8 00 00 00 00	 call	 ?IsExistenceSamePacketInGraph@CSubGraphList@@QBE_NPAVCGraphImp@@@Z ; CSubGraphList::IsExistenceSamePacketInGraph

; 1854 : 
; 1855 : 	if(bSamePacket)

  0001e	84 c0		 test	 al, al
  00020	74 3d		 je	 SHORT $LN3@DeleteGrap

; 1865 : 	POSITION pos = m_GraphList.Find(pGraph);

  00022	53		 push	 ebx
  00023	6a 00		 push	 0
  00025	8d 4f 78	 lea	 ecx, DWORD PTR [edi+120]
  00028	56		 push	 esi
  00029	e8 00 00 00 00	 call	 ?Find@CObList@@QBEPAU__POSITION@@PAVCObject@@PAU2@@Z ; CObList::Find
  0002e	8b d8		 mov	 ebx, eax

; 1866 : 
; 1867 : 	// Y Scale    - ojtaso (20070807)
; 1868 : 	if(m_lpSelectedGraph == pGraph)

  00030	39 b7 94 00 00
	00		 cmp	 DWORD PTR [edi+148], esi
  00036	75 0a		 jne	 SHORT $LN7@DeleteGrap

; 1869 : 		m_lpSelectedGraph = NULL;

  00038	c7 87 94 00 00
	00 00 00 00 00	 mov	 DWORD PTR [edi+148], 0
$LN7@DeleteGrap:

; 1870 : 
; 1871 : 	// (2007/2/16 - Seung-Won, Bae) Remove in list after Deleting the Object.
; 1872 : 	//		In Destructor, can be access the List.
; 1873 : 	CGraphImp::Delete(pGraph);

  00042	56		 push	 esi
  00043	e8 00 00 00 00	 call	 ?Delete@CGraphImp@@SAXPAV1@@Z ; CGraphImp::Delete
  00048	83 c4 04	 add	 esp, 4

; 1874 : 	if(pos != NULL)

  0004b	85 db		 test	 ebx, ebx
  0004d	74 09		 je	 SHORT $LN10@DeleteGrap

; 1875 : 		m_GraphList.RemoveAt(pos);

  0004f	53		 push	 ebx
  00050	8d 4f 78	 lea	 ecx, DWORD PTR [edi+120]
  00053	e8 00 00 00 00	 call	 ?RemoveAt@CObList@@QAEXPAU__POSITION@@@Z ; CObList::RemoveAt
$LN10@DeleteGrap:
  00058	5b		 pop	 ebx
  00059	5f		 pop	 edi

; 1859 : }

  0005a	5e		 pop	 esi
  0005b	5d		 pop	 ebp
  0005c	c2 08 00	 ret	 8
$LN3@DeleteGrap:

; 1856 : 		DeleteGraphNoDeletePacket(pDeleteGraph);
; 1857 : 	else
; 1858 : 		DeleteGraphWithNotify(pDeleteGraph);

  0005f	6a 01		 push	 1
  00061	56		 push	 esi
  00062	8b cf		 mov	 ecx, edi
  00064	e8 00 00 00 00	 call	 ?DeleteGraphWithNotify@CVertScaleGroup@@QAE_NPAVCGraphImp@@_N@Z ; CVertScaleGroup::DeleteGraphWithNotify
  00069	5f		 pop	 edi

; 1859 : }

  0006a	5e		 pop	 esi
  0006b	5d		 pop	 ebp
  0006c	c2 08 00	 ret	 8
?DeleteGraph@CVertScaleGroup@@AAEXPAVCGraphImp@@0@Z ENDP ; CVertScaleGroup::DeleteGraph
_TEXT	ENDS
; Function compile flags: /Ogtp
; File D:\git\src\IBK\IBK_DRFN\ProjSrc\SrcChartEx\ChartOCX\ChartObject\VertScaleGroup.cpp
; File C:\Program Files (x86)\Microsoft Visual Studio\2019\Community\VC\Tools\MSVC\14.29.30133\atlmfc\include\afxcoll.inl
; File D:\git\src\IBK\IBK_DRFN\ProjSrc\SrcChartEx\ChartOCX\ChartObject\VertScaleGroup.cpp
;	COMDAT ?DeleteEmptyGroup@CVertScaleGroup@@AAE_NXZ
_TEXT	SEGMENT
?DeleteEmptyGroup@CVertScaleGroup@@AAE_NXZ PROC		; CVertScaleGroup::DeleteEmptyGroup, COMDAT
; _this$ = ecx
; File C:\Program Files (x86)\Microsoft Visual Studio\2019\Community\VC\Tools\MSVC\14.29.30133\atlmfc\include\afxcoll.inl

; 410  : 	{ return m_nCount == 0; }

  00000	83 b9 84 00 00
	00 00		 cmp	 DWORD PTR [ecx+132], 0
; File D:\git\src\IBK\IBK_DRFN\ProjSrc\SrcChartEx\ChartOCX\ChartObject\VertScaleGroup.cpp

; 1844 : 	if( !m_GraphList.IsEmpty() || m_pVertScaleGroupList == NULL || m_bOnDestructor) return false;

  00007	75 18		 jne	 SHORT $LN3@DeleteEmpt
  00009	8b 41 0c	 mov	 eax, DWORD PTR [ecx+12]
  0000c	85 c0		 test	 eax, eax
  0000e	74 11		 je	 SHORT $LN3@DeleteEmpt
  00010	83 79 04 00	 cmp	 DWORD PTR [ecx+4], 0
  00014	75 0b		 jne	 SHORT $LN3@DeleteEmpt

; 1845 : 	return m_pVertScaleGroupList->DeleteVertScaleGroup( this, true);

  00016	6a 01		 push	 1
  00018	51		 push	 ecx
  00019	8b c8		 mov	 ecx, eax
  0001b	e8 00 00 00 00	 call	 ?DeleteVertScaleGroup@CVertScaleGroupList@@QAE_NPAVCVertScaleGroup@@_N@Z ; CVertScaleGroupList::DeleteVertScaleGroup

; 1846 : }

  00020	c3		 ret	 0
$LN3@DeleteEmpt:

; 1844 : 	if( !m_GraphList.IsEmpty() || m_pVertScaleGroupList == NULL || m_bOnDestructor) return false;

  00021	32 c0		 xor	 al, al

; 1846 : }

  00023	c3		 ret	 0
?DeleteEmptyGroup@CVertScaleGroup@@AAE_NXZ ENDP		; CVertScaleGroup::DeleteEmptyGroup
_TEXT	ENDS
; Function compile flags: /Ogtp
; File D:\git\src\IBK\IBK_DRFN\ProjSrc\SrcChartEx\ChartOCX\ChartObject\VertScaleGroup.cpp
; File C:\Program Files (x86)\Windows Kits\10\Include\10.0.22000.0\ucrt\string.h
; File D:\git\src\IBK\IBK_DRFN\ProjSrc\SrcChartEx\ChartOCX\ChartObject\VertScaleGroup.cpp
; File C:\Program Files (x86)\Windows Kits\10\Include\10.0.22000.0\ucrt\string.h
; File D:\git\src\IBK\IBK_DRFN\ProjSrc\SrcChartEx\ChartOCX\ChartObject\VertScaleGroup.cpp
; File C:\Program Files (x86)\Windows Kits\10\Include\10.0.22000.0\ucrt\string.h
; File D:\git\src\IBK\IBK_DRFN\ProjSrc\SrcChartEx\ChartOCX\ChartObject\VertScaleGroup.cpp
; File C:\Program Files (x86)\Windows Kits\10\Include\10.0.22000.0\ucrt\string.h
; File D:\git\src\IBK\IBK_DRFN\ProjSrc\SrcChartEx\ChartOCX\ChartObject\VertScaleGroup.cpp
; File C:\Program Files (x86)\Windows Kits\10\Include\10.0.22000.0\ucrt\string.h
; File D:\git\src\IBK\IBK_DRFN\ProjSrc\SrcChartEx\ChartOCX\ChartObject\VertScaleGroup.cpp
; File C:\Program Files (x86)\Windows Kits\10\Include\10.0.22000.0\ucrt\string.h
; File D:\git\src\IBK\IBK_DRFN\ProjSrc\SrcChartEx\ChartOCX\ChartObject\VertScaleGroup.cpp
; File C:\Program Files (x86)\Windows Kits\10\Include\10.0.22000.0\ucrt\string.h
; File D:\git\src\IBK\IBK_DRFN\ProjSrc\SrcChartEx\ChartOCX\ChartObject\VertScaleGroup.cpp
; File C:\Program Files (x86)\Microsoft Visual Studio\2019\Community\VC\Tools\MSVC\14.29.30133\atlmfc\include\afxtempl.h
; File D:\git\src\IBK\IBK_DRFN\ProjSrc\SrcChartEx\ChartOCX\ChartObject\VertScaleGroup.cpp
; File C:\Program Files (x86)\Microsoft Visual Studio\2019\Community\VC\Tools\MSVC\14.29.30133\atlmfc\include\afxcoll.inl
; File D:\git\src\IBK\IBK_DRFN\ProjSrc\SrcChartEx\ChartOCX\ChartObject\VertScaleGroup.cpp
; File C:\Program Files (x86)\Microsoft Visual Studio\2019\Community\VC\Tools\MSVC\14.29.30133\atlmfc\include\cstringt.h
; File D:\git\src\IBK\IBK_DRFN\ProjSrc\SrcChartEx\ChartOCX\ChartObject\VertScaleGroup.cpp
; File C:\Program Files (x86)\Microsoft Visual Studio\2019\Community\VC\Tools\MSVC\14.29.30133\atlmfc\include\cstringt.h
; File D:\git\src\IBK\IBK_DRFN\ProjSrc\SrcChartEx\ChartOCX\ChartObject\VertScaleGroup.cpp
; File C:\Program Files (x86)\Microsoft Visual Studio\2019\Community\VC\Tools\MSVC\14.29.30133\atlmfc\include\cstringt.h
; File D:\git\src\IBK\IBK_DRFN\ProjSrc\SrcChartEx\ChartOCX\ChartObject\VertScaleGroup.cpp
; File C:\Program Files (x86)\Microsoft Visual Studio\2019\Community\VC\Tools\MSVC\14.29.30133\atlmfc\include\cstringt.h
; File D:\git\src\IBK\IBK_DRFN\ProjSrc\SrcChartEx\ChartOCX\ChartObject\VertScaleGroup.cpp
; File C:\Program Files (x86)\Windows Kits\10\Include\10.0.22000.0\ucrt\string.h
; File D:\git\src\IBK\IBK_DRFN\ProjSrc\SrcChartEx\ChartOCX\ChartObject\VertScaleGroup.cpp
; File C:\Program Files (x86)\Windows Kits\10\Include\10.0.22000.0\ucrt\string.h
; File D:\git\src\IBK\IBK_DRFN\ProjSrc\SrcChartEx\ChartOCX\ChartObject\VertScaleGroup.cpp
; File C:\Program Files (x86)\Windows Kits\10\Include\10.0.22000.0\ucrt\string.h
; File D:\git\src\IBK\IBK_DRFN\ProjSrc\SrcChartEx\ChartOCX\ChartObject\VertScaleGroup.cpp
;	COMDAT ?MakeNewGraph@CVertScaleGroup@@AAEPAVCGraphImp@@PAXPAD@Z
_TEXT	SEGMENT
_graphData$ = -80					; size = 36
_szGraphDataEnd$1$ = -44				; size = 4
_pMainBlock$1$ = -40					; size = 4
$T2 = -40						; size = 4
$T3 = -36						; size = 4
$T4 = -32						; size = 4
_szSubGraphData$1$ = -28				; size = 4
_szRQ$1$ = -24						; size = 4
_strGrpahName$5 = -20					; size = 4
_this$1$ = -16						; size = 4
__$EHRec$ = -12						; size = 12
_pPacketRQ$ = 8						; size = 4
$T6 = 12						; size = 4
_p_szGraphData$ = 12					; size = 4
$T7 = 15						; size = 1
?MakeNewGraph@CVertScaleGroup@@AAEPAVCGraphImp@@PAXPAD@Z PROC ; CVertScaleGroup::MakeNewGraph, COMDAT
; _this$ = ecx

; 1766 : {

  00000	55		 push	 ebp
  00001	8b ec		 mov	 ebp, esp
  00003	6a ff		 push	 -1
  00005	68 00 00 00 00	 push	 __ehhandler$?MakeNewGraph@CVertScaleGroup@@AAEPAVCGraphImp@@PAXPAD@Z
  0000a	64 a1 00 00 00
	00		 mov	 eax, DWORD PTR fs:0
  00010	50		 push	 eax
  00011	83 ec 44	 sub	 esp, 68			; 00000044H
  00014	53		 push	 ebx
  00015	56		 push	 esi
  00016	57		 push	 edi
  00017	a1 00 00 00 00	 mov	 eax, DWORD PTR ___security_cookie
  0001c	33 c5		 xor	 eax, ebp
  0001e	50		 push	 eax
  0001f	8d 45 f4	 lea	 eax, DWORD PTR __$EHRec$[ebp]
  00022	64 a3 00 00 00
	00		 mov	 DWORD PTR fs:0, eax
  00028	89 4d f0	 mov	 DWORD PTR _this$1$[ebp], ecx
  0002b	33 db		 xor	 ebx, ebx
  0002d	89 5d e0	 mov	 DWORD PTR $T4[ebp], ebx

; 1767 : 	if( !p_szGraphData) return NULL;

  00030	8b 45 0c	 mov	 eax, DWORD PTR _p_szGraphData$[ebp]
  00033	85 c0		 test	 eax, eax
  00035	74 3d		 je	 SHORT $LN7@MakeNewGra

; 1768 : 	if( !*p_szGraphData) return NULL;

  00037	38 18		 cmp	 BYTE PTR [eax], bl
  00039	74 39		 je	 SHORT $LN7@MakeNewGra
; File C:\Program Files (x86)\Windows Kits\10\Include\10.0.22000.0\ucrt\string.h

; 520  :         return const_cast<char*>(strstr(static_cast<char const*>(_String), _SubString));

  0003b	68 00 00 00 00	 push	 OFFSET ??_C@_08BHMMGBBH@Graph?$DL?$AN?6@
  00040	50		 push	 eax
  00041	e8 00 00 00 00	 call	 _strstr
; File D:\git\src\IBK\IBK_DRFN\ProjSrc\SrcChartEx\ChartOCX\ChartObject\VertScaleGroup.cpp

; 1770 : 	char *szGraphData = strstr( p_szGraphData, "Graph;\r\n");

  00046	8b f0		 mov	 esi, eax
; File C:\Program Files (x86)\Windows Kits\10\Include\10.0.22000.0\ucrt\string.h

; 520  :         return const_cast<char*>(strstr(static_cast<char const*>(_String), _SubString));

  00048	83 c4 08	 add	 esp, 8
; File D:\git\src\IBK\IBK_DRFN\ProjSrc\SrcChartEx\ChartOCX\ChartObject\VertScaleGroup.cpp

; 1771 : 	if( !szGraphData) return NULL;

  0004b	85 f6		 test	 esi, esi
  0004d	74 25		 je	 SHORT $LN7@MakeNewGra

; 1772 : 	szGraphData += 8;	// "Graph;\r\n"

  0004f	83 c6 08	 add	 esi, 8
; File C:\Program Files (x86)\Windows Kits\10\Include\10.0.22000.0\ucrt\string.h

; 520  :         return const_cast<char*>(strstr(static_cast<char const*>(_String), _SubString));

  00052	68 00 00 00 00	 push	 OFFSET ??_C@_0M@DGHFHKEI@GraphEnd?$DL?$AN?6@
  00057	56		 push	 esi
  00058	e8 00 00 00 00	 call	 _strstr
  0005d	83 c4 08	 add	 esp, 8
; File D:\git\src\IBK\IBK_DRFN\ProjSrc\SrcChartEx\ChartOCX\ChartObject\VertScaleGroup.cpp

; 1774 : 	char *szGraphDataEnd = strstr( szGraphData, "GraphEnd;\r\n");

  00060	89 45 d4	 mov	 DWORD PTR _szGraphDataEnd$1$[ebp], eax

; 1775 : 	if( szGraphDataEnd) *szGraphDataEnd = '\0';

  00063	85 c0		 test	 eax, eax
  00065	74 02		 je	 SHORT $LN5@MakeNewGra
  00067	88 18		 mov	 BYTE PTR [eax], bl
$LN5@MakeNewGra:

; 1776 : 
; 1777 : 	if( !*szGraphData)

  00069	38 1e		 cmp	 BYTE PTR [esi], bl
  0006b	75 1d		 jne	 SHORT $LN6@MakeNewGra

; 1778 : 	{
; 1779 : 		if( szGraphDataEnd) *szGraphDataEnd = 'G';

  0006d	85 c0		 test	 eax, eax
  0006f	74 03		 je	 SHORT $LN7@MakeNewGra
  00071	c6 00 47	 mov	 BYTE PTR [eax], 71	; 00000047H
$LN7@MakeNewGra:

; 1780 : 		return NULL;

  00074	33 c0		 xor	 eax, eax

; 1839 : }

  00076	8b 4d f4	 mov	 ecx, DWORD PTR __$EHRec$[ebp]
  00079	64 89 0d 00 00
	00 00		 mov	 DWORD PTR fs:0, ecx
  00080	59		 pop	 ecx
  00081	5f		 pop	 edi
  00082	5e		 pop	 esi
  00083	5b		 pop	 ebx
  00084	8b e5		 mov	 esp, ebp
  00086	5d		 pop	 ebp
  00087	c2 08 00	 ret	 8
$LN6@MakeNewGra:
; File C:\Program Files (x86)\Windows Kits\10\Include\10.0.22000.0\ucrt\string.h

; 520  :         return const_cast<char*>(strstr(static_cast<char const*>(_String), _SubString));

  0008a	68 00 00 00 00	 push	 OFFSET ??_C@_02PCIJFNDE@?$AN?6@
  0008f	56		 push	 esi
  00090	e8 00 00 00 00	 call	 _strstr
; File D:\git\src\IBK\IBK_DRFN\ProjSrc\SrcChartEx\ChartOCX\ChartObject\VertScaleGroup.cpp

; 1783 : 	char *szSubGraphData = strstr( szGraphData, "\r\n");

  00095	8b f8		 mov	 edi, eax
  00097	89 45 e4	 mov	 DWORD PTR _szSubGraphData$1$[ebp], eax
; File C:\Program Files (x86)\Windows Kits\10\Include\10.0.22000.0\ucrt\string.h

; 520  :         return const_cast<char*>(strstr(static_cast<char const*>(_String), _SubString));

  0009a	83 c4 08	 add	 esp, 8
; File D:\git\src\IBK\IBK_DRFN\ProjSrc\SrcChartEx\ChartOCX\ChartObject\VertScaleGroup.cpp

; 1784 : 	if( szSubGraphData) *szSubGraphData = '\0';

  0009d	85 ff		 test	 edi, edi
  0009f	74 02		 je	 SHORT $LN8@MakeNewGra
  000a1	88 1f		 mov	 BYTE PTR [edi], bl
$LN8@MakeNewGra:
; File C:\Program Files (x86)\Windows Kits\10\Include\10.0.22000.0\ucrt\string.h

; 520  :         return const_cast<char*>(strstr(static_cast<char const*>(_String), _SubString));

  000a3	68 00 00 00 00	 push	 OFFSET ??_C@_03PHGIHNDE@RQ?3@
  000a8	56		 push	 esi
  000a9	e8 00 00 00 00	 call	 _strstr
; File D:\git\src\IBK\IBK_DRFN\ProjSrc\SrcChartEx\ChartOCX\ChartObject\VertScaleGroup.cpp

; 1789 : 	CGraphData graphData( szGraphData, m_pMainBlockBaseData->GetParent_Handle());

  000ae	8b 4d f0	 mov	 ecx, DWORD PTR _this$1$[ebp]
; File C:\Program Files (x86)\Windows Kits\10\Include\10.0.22000.0\ucrt\string.h

; 520  :         return const_cast<char*>(strstr(static_cast<char const*>(_String), _SubString));

  000b1	83 c4 08	 add	 esp, 8
; File D:\git\src\IBK\IBK_DRFN\ProjSrc\SrcChartEx\ChartOCX\ChartObject\VertScaleGroup.cpp

; 1787 : 	char *szRQ = strstr( szGraphData, "RQ:");  

  000b4	89 45 e8	 mov	 DWORD PTR _szRQ$1$[ebp], eax

; 1789 : 	CGraphData graphData( szGraphData, m_pMainBlockBaseData->GetParent_Handle());

  000b7	8b 49 08	 mov	 ecx, DWORD PTR [ecx+8]
  000ba	e8 00 00 00 00	 call	 ?GetParent_Handle@CMainBlockBaseData@@QBEPAUHWND__@@XZ ; CMainBlockBaseData::GetParent_Handle
  000bf	50		 push	 eax
  000c0	56		 push	 esi
  000c1	8d 4d b0	 lea	 ecx, DWORD PTR _graphData$[ebp]
  000c4	ff 15 00 00 00
	00		 call	 DWORD PTR __imp_??0CGraphData@@QAE@PBDPAUHWND__@@@Z
  000ca	c7 45 fc 00 00
	00 00		 mov	 DWORD PTR __$EHRec$[ebp+8], 0

; 1790 : 	if( szSubGraphData)

  000d1	85 ff		 test	 edi, edi
  000d3	74 09		 je	 SHORT $LN9@MakeNewGra

; 1791 : 	{
; 1792 : 		*szSubGraphData = '\r';

  000d5	c6 07 0d	 mov	 BYTE PTR [edi], 13	; 0000000dH

; 1793 : 		szSubGraphData += 2;		// "\r\n"

  000d8	83 c7 02	 add	 edi, 2
  000db	89 7d e4	 mov	 DWORD PTR _szSubGraphData$1$[ebp], edi
$LN9@MakeNewGra:

; 1794 : 	}
; 1795 : 
; 1796 : 
; 1797 : 	// (2006/12/10 - Seung-Won, Bae) Change Graph Name for Multiple Supporting of Same Indicator.
; 1798 : 	//		Caution. It must be processed before creation of Graph.
; 1799 : 	//				Because the Creation of Graph makes the Indicator Info and bind it with the Graph.
; 1800 : 	if( m_pMainBlockBaseData)

  000de	8b 45 f0	 mov	 eax, DWORD PTR _this$1$[ebp]
  000e1	8b 48 08	 mov	 ecx, DWORD PTR [eax+8]
  000e4	85 c9		 test	 ecx, ecx
  000e6	0f 84 26 01 00
	00		 je	 $LN10@MakeNewGra

; 1801 : 	{
; 1802 : 		CMainBlockImp *pMainBlock = m_pMainBlockBaseData->GetMainAttributes().GetMainBlockImpl();

  000ec	e8 00 00 00 00	 call	 ?GetMainAttributes@CMainBlockBaseData@@QAEAAVCMainAttributes@@XZ ; CMainBlockBaseData::GetMainAttributes
  000f1	8b c8		 mov	 ecx, eax
  000f3	e8 00 00 00 00	 call	 ?GetMainBlockImpl@CMainAttributes@@QBEPAVCMainBlockImp@@XZ ; CMainAttributes::GetMainBlockImpl
  000f8	8b f8		 mov	 edi, eax

; 1803 : 		CString strGrpahName = graphData.GetGraphName();

  000fa	8d 4d b0	 lea	 ecx, DWORD PTR _graphData$[ebp]
  000fd	8d 45 ec	 lea	 eax, DWORD PTR _strGrpahName$5[ebp]
  00100	89 7d d8	 mov	 DWORD PTR _pMainBlock$1$[ebp], edi
  00103	50		 push	 eax
  00104	ff 15 00 00 00
	00		 call	 DWORD PTR __imp_?GetGraphName@CGraphData@@QBE?AV?$CStringT@DV?$StrTraitMFC_DLL@DV?$ChTraitsCRT@D@ATL@@@@@ATL@@XZ

; 1260 : 	POSITION pos = m_GraphList.GetHeadPosition();

  0010a	8b 4d f0	 mov	 ecx, DWORD PTR _this$1$[ebp]

; 1803 : 		CString strGrpahName = graphData.GetGraphName();

  0010d	c6 45 fc 01	 mov	 BYTE PTR __$EHRec$[ebp+8], 1

; 1260 : 	POSITION pos = m_GraphList.GetHeadPosition();

  00111	8b 71 7c	 mov	 esi, DWORD PTR [ecx+124]

; 1261 : 	while(pos != NULL){

  00114	85 f6		 test	 esi, esi
  00116	74 6c		 je	 SHORT $LN34@MakeNewGra
$LL33@MakeNewGra:
; File C:\Program Files (x86)\Microsoft Visual Studio\2019\Community\VC\Tools\MSVC\14.29.30133\atlmfc\include\afxtempl.h

; 1898 : 		{ return (TYPE)BASE_CLASS::GetNext(rPosition); }

  00118	8b 7e 08	 mov	 edi, DWORD PTR [esi+8]
; File D:\git\src\IBK\IBK_DRFN\ProjSrc\SrcChartEx\ChartOCX\ChartObject\VertScaleGroup.cpp

; 1264 : 		if(pGraph->ComparePacketRQ(pPacketRQ) && 

  0011b	8b cf		 mov	 ecx, edi
  0011d	ff 75 08	 push	 DWORD PTR _pPacketRQ$[ebp]
; File C:\Program Files (x86)\Microsoft Visual Studio\2019\Community\VC\Tools\MSVC\14.29.30133\atlmfc\include\afxcoll.inl

; 439  : 		rPosition = (POSITION) pNode->pNext;

  00120	8b 36		 mov	 esi, DWORD PTR [esi]
; File D:\git\src\IBK\IBK_DRFN\ProjSrc\SrcChartEx\ChartOCX\ChartObject\VertScaleGroup.cpp

; 1264 : 		if(pGraph->ComparePacketRQ(pPacketRQ) && 

  00122	e8 00 00 00 00	 call	 ?ComparePacketRQ@CGraphImp@@QAEHPAX@Z ; CGraphImp::ComparePacketRQ
  00127	85 c0		 test	 eax, eax
  00129	74 30		 je	 SHORT $LN37@MakeNewGra
  0012b	8d 45 dc	 lea	 eax, DWORD PTR $T3[ebp]
  0012e	8b cf		 mov	 ecx, edi
  00130	50		 push	 eax
  00131	e8 00 00 00 00	 call	 ?GetGraphData@CGraphImp@@QAEAAVCGraphData@@XZ ; CGraphImp::GetGraphData
  00136	8b c8		 mov	 ecx, eax
  00138	ff 15 00 00 00
	00		 call	 DWORD PTR __imp_?GetGraphName@CGraphData@@QBE?AV?$CStringT@DV?$StrTraitMFC_DLL@DV?$ChTraitsCRT@D@ATL@@@@@ATL@@XZ
; File C:\Program Files (x86)\Microsoft Visual Studio\2019\Community\VC\Tools\MSVC\14.29.30133\atlmfc\include\cstringt.h

; 2479 : 		return(str1.Compare(str2) == 0);

  0013e	ff 75 ec	 push	 DWORD PTR _strGrpahName$5[ebp]
; File D:\git\src\IBK\IBK_DRFN\ProjSrc\SrcChartEx\ChartOCX\ChartObject\VertScaleGroup.cpp

; 1264 : 		if(pGraph->ComparePacketRQ(pPacketRQ) && 

  00141	83 cb 01	 or	 ebx, 1
  00144	c6 45 fc 02	 mov	 BYTE PTR __$EHRec$[ebp+8], 2
; File C:\Program Files (x86)\Microsoft Visual Studio\2019\Community\VC\Tools\MSVC\14.29.30133\atlmfc\include\cstringt.h

; 2479 : 		return(str1.Compare(str2) == 0);

  00148	8b c8		 mov	 ecx, eax
; File D:\git\src\IBK\IBK_DRFN\ProjSrc\SrcChartEx\ChartOCX\ChartObject\VertScaleGroup.cpp

; 1264 : 		if(pGraph->ComparePacketRQ(pPacketRQ) && 

  0014a	89 5d e0	 mov	 DWORD PTR $T4[ebp], ebx
; File C:\Program Files (x86)\Microsoft Visual Studio\2019\Community\VC\Tools\MSVC\14.29.30133\atlmfc\include\cstringt.h

; 2479 : 		return(str1.Compare(str2) == 0);

  0014d	ff 15 00 00 00
	00		 call	 DWORD PTR __imp_?Compare@?$CStringT@DV?$StrTraitMFC_DLL@DV?$ChTraitsCRT@D@ATL@@@@@ATL@@QBEHPBD@Z
; File D:\git\src\IBK\IBK_DRFN\ProjSrc\SrcChartEx\ChartOCX\ChartObject\VertScaleGroup.cpp

; 1264 : 		if(pGraph->ComparePacketRQ(pPacketRQ) && 

  00153	c6 45 0f 01	 mov	 BYTE PTR $T7[ebp], 1
; File C:\Program Files (x86)\Microsoft Visual Studio\2019\Community\VC\Tools\MSVC\14.29.30133\atlmfc\include\cstringt.h

; 2479 : 		return(str1.Compare(str2) == 0);

  00157	85 c0		 test	 eax, eax
; File D:\git\src\IBK\IBK_DRFN\ProjSrc\SrcChartEx\ChartOCX\ChartObject\VertScaleGroup.cpp

; 1264 : 		if(pGraph->ComparePacketRQ(pPacketRQ) && 

  00159	74 04		 je	 SHORT $LN38@MakeNewGra
$LN37@MakeNewGra:
  0015b	c6 45 0f 00	 mov	 BYTE PTR $T7[ebp], 0
$LN38@MakeNewGra:
  0015f	c7 45 fc 01 00
	00 00		 mov	 DWORD PTR __$EHRec$[ebp+8], 1
  00166	f6 c3 01	 test	 bl, 1
  00169	74 0c		 je	 SHORT $LN41@MakeNewGra
  0016b	8d 4d dc	 lea	 ecx, DWORD PTR $T3[ebp]
  0016e	83 e3 fe	 and	 ebx, -2			; fffffffeH
  00171	ff 15 00 00 00
	00		 call	 DWORD PTR __imp_??1?$CStringT@DV?$StrTraitMFC_DLL@DV?$ChTraitsCRT@D@ATL@@@@@ATL@@QAE@XZ
$LN41@MakeNewGra:
  00177	80 7d 0f 00	 cmp	 BYTE PTR $T7[ebp], 0
  0017b	75 19		 jne	 SHORT $LN12@MakeNewGra

; 1261 : 	while(pos != NULL){

  0017d	85 f6		 test	 esi, esi
  0017f	75 97		 jne	 SHORT $LL33@MakeNewGra
  00181	8b 7d d8	 mov	 edi, DWORD PTR _pMainBlock$1$[ebp]
$LN34@MakeNewGra:

; 1804 : 		if( IsExistenceGraph(pPacketRQ, strGrpahName)					// Check Current VScale Group (It may be not added in Block, because in creation.)
; 1805 : 			|| pMainBlock->IsExistenceGraph( strGrpahName))

  00184	8b 07		 mov	 eax, DWORD PTR [edi]
  00186	8d 4d ec	 lea	 ecx, DWORD PTR _strGrpahName$5[ebp]
  00189	51		 push	 ecx
  0018a	8b cf		 mov	 ecx, edi
  0018c	ff 90 5c 02 00
	00		 call	 DWORD PTR [eax+604]
  00192	85 c0		 test	 eax, eax
  00194	74 69		 je	 SHORT $LN14@MakeNewGra
$LN12@MakeNewGra:

; 1806 : 		{
; 1807 : 			CIndicatorList *pIndicatorList = m_pMainBlockBaseData->GetMainAttributes().GetIndicatorList();

  00196	8b 45 f0	 mov	 eax, DWORD PTR _this$1$[ebp]
  00199	8b 48 08	 mov	 ecx, DWORD PTR [eax+8]
  0019c	e8 00 00 00 00	 call	 ?GetMainAttributes@CMainBlockBaseData@@QAEAAVCMainAttributes@@XZ ; CMainBlockBaseData::GetMainAttributes
  001a1	8b c8		 mov	 ecx, eax
  001a3	e8 00 00 00 00	 call	 ?GetIndicatorList@CMainAttributes@@QBEPAVCIndicatorList@@XZ ; CMainAttributes::GetIndicatorList
  001a8	8b f0		 mov	 esi, eax

; 1808 : 			if( pIndicatorList)

  001aa	85 f6		 test	 esi, esi
  001ac	74 51		 je	 SHORT $LN14@MakeNewGra

; 1809 : 			{
; 1810 : 				CIndicatorInfo *pIndicatorInfo = pIndicatorList->CreateGraphIndicatorInfo( graphData.GetIndicatorName());

  001ae	8d 45 0c	 lea	 eax, DWORD PTR $T6[ebp]
  001b1	50		 push	 eax
  001b2	8d 4d b0	 lea	 ecx, DWORD PTR _graphData$[ebp]
  001b5	ff 15 00 00 00
	00		 call	 DWORD PTR __imp_?GetIndicatorName@CGraphData@@QBE?AV?$CStringT@DV?$StrTraitMFC_DLL@DV?$ChTraitsCRT@D@ATL@@@@@ATL@@XZ
  001bb	ff 30		 push	 DWORD PTR [eax]
  001bd	8b ce		 mov	 ecx, esi
  001bf	c6 45 fc 03	 mov	 BYTE PTR __$EHRec$[ebp+8], 3
  001c3	ff 15 00 00 00
	00		 call	 DWORD PTR __imp_?CreateGraphIndicatorInfo@CIndicatorList@@QAEPAVCIndicatorInfo@@PBD@Z
  001c9	8d 4d 0c	 lea	 ecx, DWORD PTR $T6[ebp]
  001cc	c6 45 fc 01	 mov	 BYTE PTR __$EHRec$[ebp+8], 1
  001d0	8b f0		 mov	 esi, eax
  001d2	ff 15 00 00 00
	00		 call	 DWORD PTR __imp_??1?$CStringT@DV?$StrTraitMFC_DLL@DV?$ChTraitsCRT@D@ATL@@@@@ATL@@QAE@XZ

; 1811 : 				if( pIndicatorInfo) ( ( CGraphDataBase *)&graphData)->SetGraphName( pIndicatorInfo->GetGraphName());

  001d8	85 f6		 test	 esi, esi
  001da	74 23		 je	 SHORT $LN14@MakeNewGra
  001dc	8d 45 d8	 lea	 eax, DWORD PTR $T2[ebp]
  001df	8b ce		 mov	 ecx, esi
  001e1	50		 push	 eax
  001e2	ff 15 00 00 00
	00		 call	 DWORD PTR __imp_?GetGraphName@CIndicatorInfo@@QBE?AV?$CStringT@DV?$StrTraitMFC_DLL@DV?$ChTraitsCRT@D@ATL@@@@@ATL@@XZ
  001e8	50		 push	 eax
  001e9	8b 45 b0	 mov	 eax, DWORD PTR _graphData$[ebp]
  001ec	8d 4d b0	 lea	 ecx, DWORD PTR _graphData$[ebp]
  001ef	c6 45 fc 04	 mov	 BYTE PTR __$EHRec$[ebp+8], 4
  001f3	ff 50 04	 call	 DWORD PTR [eax+4]
  001f6	8d 4d d8	 lea	 ecx, DWORD PTR $T2[ebp]
  001f9	ff 15 00 00 00
	00		 call	 DWORD PTR __imp_??1?$CStringT@DV?$StrTraitMFC_DLL@DV?$ChTraitsCRT@D@ATL@@@@@ATL@@QAE@XZ
$LN14@MakeNewGra:

; 1812 : 			}
; 1813 : 		}
; 1814 : 	}

  001ff	8d 4d ec	 lea	 ecx, DWORD PTR _strGrpahName$5[ebp]
  00202	c6 45 fc 00	 mov	 BYTE PTR __$EHRec$[ebp+8], 0
  00206	ff 15 00 00 00
	00		 call	 DWORD PTR __imp_??1?$CStringT@DV?$StrTraitMFC_DLL@DV?$ChTraitsCRT@D@ATL@@@@@ATL@@QAE@XZ
  0020c	8b 7d e4	 mov	 edi, DWORD PTR _szSubGraphData$1$[ebp]
  0020f	8b 45 f0	 mov	 eax, DWORD PTR _this$1$[ebp]
$LN10@MakeNewGra:

; 1815 : 
; 1816 : 	//   :  - ojtaso (20070507)
; 1817 : 	CGraphImp *pGraph = NULL;
; 1818 : 	if(szRQ)

  00212	8b 4d e8	 mov	 ecx, DWORD PTR _szRQ$1$[ebp]
  00215	33 f6		 xor	 esi, esi
  00217	85 c9		 test	 ecx, ecx
  00219	74 43		 je	 SHORT $LN15@MakeNewGra

; 1820 : 		szRQ += 3;

  0021b	83 c1 03	 add	 ecx, 3
; File C:\Program Files (x86)\Windows Kits\10\Include\10.0.22000.0\ucrt\string.h

; 520  :         return const_cast<char*>(strstr(static_cast<char const*>(_String), _SubString));

  0021e	68 00 00 00 00	 push	 OFFSET ??_C@_02PCIJFNDE@?$AN?6@
  00223	51		 push	 ecx
; File D:\git\src\IBK\IBK_DRFN\ProjSrc\SrcChartEx\ChartOCX\ChartObject\VertScaleGroup.cpp

; 1820 : 		szRQ += 3;

  00224	89 4d e8	 mov	 DWORD PTR _szRQ$1$[ebp], ecx
; File C:\Program Files (x86)\Windows Kits\10\Include\10.0.22000.0\ucrt\string.h

; 520  :         return const_cast<char*>(strstr(static_cast<char const*>(_String), _SubString));

  00227	e8 00 00 00 00	 call	 _strstr
; File D:\git\src\IBK\IBK_DRFN\ProjSrc\SrcChartEx\ChartOCX\ChartObject\VertScaleGroup.cpp

; 1821 : 		char *szRQEnd = strstr( szRQ, "\r\n");

  0022c	8b d8		 mov	 ebx, eax
; File C:\Program Files (x86)\Windows Kits\10\Include\10.0.22000.0\ucrt\string.h

; 520  :         return const_cast<char*>(strstr(static_cast<char const*>(_String), _SubString));

  0022e	83 c4 08	 add	 esp, 8
; File D:\git\src\IBK\IBK_DRFN\ProjSrc\SrcChartEx\ChartOCX\ChartObject\VertScaleGroup.cpp

; 1822 : 		if(szRQEnd)

  00231	85 db		 test	 ebx, ebx
  00233	74 3f		 je	 SHORT $LN16@MakeNewGra

; 1823 : 		{
; 1824 : 			*szRQEnd = '\0';
; 1825 : 			
; 1826 : 			pGraph = CGraphImp::MakeGraph(m_pMainBlockBaseData, this, graphData, szSubGraphData);

  00235	57		 push	 edi
  00236	8d 45 b0	 lea	 eax, DWORD PTR _graphData$[ebp]
  00239	c6 03 00	 mov	 BYTE PTR [ebx], 0
  0023c	50		 push	 eax
  0023d	8b 45 f0	 mov	 eax, DWORD PTR _this$1$[ebp]
  00240	50		 push	 eax
  00241	ff 70 08	 push	 DWORD PTR [eax+8]
  00244	e8 00 00 00 00	 call	 ?MakeGraph@CGraphImp@@SAPAV1@PAVCMainBlockBaseData@@PAVCVertScaleGroup@@ABVCGraphData@@PAD@Z ; CGraphImp::MakeGraph
  00249	8b f0		 mov	 esi, eax
  0024b	83 c4 10	 add	 esp, 16			; 00000010H

; 1827 : 			pGraph->SetGraphRQ(szRQ);

  0024e	8b 45 e8	 mov	 eax, DWORD PTR _szRQ$1$[ebp]
  00251	8b ce		 mov	 ecx, esi
  00253	8b 16		 mov	 edx, DWORD PTR [esi]
  00255	50		 push	 eax
  00256	ff 52 20	 call	 DWORD PTR [edx+32]

; 1828 : 
; 1829 : 			*szRQEnd = '\r';

  00259	c6 03 0d	 mov	 BYTE PTR [ebx], 13	; 0000000dH

; 1830 : 		}
; 1831 : 	}

  0025c	eb 16		 jmp	 SHORT $LN16@MakeNewGra
$LN15@MakeNewGra:

; 1832 : 	else
; 1833 : 		pGraph = CGraphImp::MakeGraph(pPacketRQ, m_pMainBlockBaseData, this, graphData, szSubGraphData);

  0025e	57		 push	 edi
  0025f	8d 4d b0	 lea	 ecx, DWORD PTR _graphData$[ebp]
  00262	51		 push	 ecx
  00263	50		 push	 eax
  00264	ff 70 08	 push	 DWORD PTR [eax+8]
  00267	ff 75 08	 push	 DWORD PTR _pPacketRQ$[ebp]
  0026a	e8 00 00 00 00	 call	 ?MakeGraph@CGraphImp@@SAPAV1@PAXPAVCMainBlockBaseData@@PAVCVertScaleGroup@@ABVCGraphData@@PAD@Z ; CGraphImp::MakeGraph
  0026f	83 c4 14	 add	 esp, 20			; 00000014H
  00272	8b f0		 mov	 esi, eax
$LN16@MakeNewGra:

; 1834 : 
; 1835 : //	CGraphImp *pGraph = CGraphImp::MakeGraph(pPacketRQ, m_pMainBlockBaseData, this, graphData, szSubGraphData);
; 1836 : 	if( szGraphDataEnd) *szGraphDataEnd = 'G';

  00274	8b 45 d4	 mov	 eax, DWORD PTR _szGraphDataEnd$1$[ebp]
  00277	85 c0		 test	 eax, eax
  00279	74 03		 je	 SHORT $LN18@MakeNewGra
  0027b	c6 00 47	 mov	 BYTE PTR [eax], 71	; 00000047H
$LN18@MakeNewGra:

; 1837 : 
; 1838 : 	return pGraph;

  0027e	8d 4d b0	 lea	 ecx, DWORD PTR _graphData$[ebp]
  00281	ff 15 00 00 00
	00		 call	 DWORD PTR __imp_??1CGraphData@@QAE@XZ
  00287	8b c6		 mov	 eax, esi

; 1839 : }

  00289	8b 4d f4	 mov	 ecx, DWORD PTR __$EHRec$[ebp]
  0028c	64 89 0d 00 00
	00 00		 mov	 DWORD PTR fs:0, ecx
  00293	59		 pop	 ecx
  00294	5f		 pop	 edi
  00295	5e		 pop	 esi
  00296	5b		 pop	 ebx
  00297	8b e5		 mov	 esp, ebp
  00299	5d		 pop	 ebp
  0029a	c2 08 00	 ret	 8
_TEXT	ENDS
;	COMDAT text$x
text$x	SEGMENT
__unwindfunclet$?MakeNewGraph@CVertScaleGroup@@AAEPAVCGraphImp@@PAXPAD@Z$0:
  00000	8d 4d b0	 lea	 ecx, DWORD PTR _graphData$[ebp]
  00003	ff 25 00 00 00
	00		 jmp	 DWORD PTR __imp_??1CGraphData@@QAE@XZ
__unwindfunclet$?MakeNewGraph@CVertScaleGroup@@AAEPAVCGraphImp@@PAXPAD@Z$1:
  00009	8d 4d ec	 lea	 ecx, DWORD PTR _strGrpahName$5[ebp]
  0000c	ff 25 00 00 00
	00		 jmp	 DWORD PTR __imp_??1?$CStringT@DV?$StrTraitMFC_DLL@DV?$ChTraitsCRT@D@ATL@@@@@ATL@@QAE@XZ
__unwindfunclet$?MakeNewGraph@CVertScaleGroup@@AAEPAVCGraphImp@@PAXPAD@Z$4:
  00012	8b 45 e0	 mov	 eax, DWORD PTR $T4[ebp]
  00015	83 e0 01	 and	 eax, 1
  00018	0f 84 0d 00 00
	00		 je	 $LN40@MakeNewGra
  0001e	83 65 e0 fe	 and	 DWORD PTR $T4[ebp], -2	; fffffffeH
  00022	8d 4d dc	 lea	 ecx, DWORD PTR $T3[ebp]
  00025	ff 25 00 00 00
	00		 jmp	 DWORD PTR __imp_??1?$CStringT@DV?$StrTraitMFC_DLL@DV?$ChTraitsCRT@D@ATL@@@@@ATL@@QAE@XZ
$LN40@MakeNewGra:
  0002b	c3		 ret	 0
__unwindfunclet$?MakeNewGraph@CVertScaleGroup@@AAEPAVCGraphImp@@PAXPAD@Z$2:
  0002c	8d 4d 0c	 lea	 ecx, DWORD PTR $T6[ebp]
  0002f	ff 25 00 00 00
	00		 jmp	 DWORD PTR __imp_??1?$CStringT@DV?$StrTraitMFC_DLL@DV?$ChTraitsCRT@D@ATL@@@@@ATL@@QAE@XZ
__unwindfunclet$?MakeNewGraph@CVertScaleGroup@@AAEPAVCGraphImp@@PAXPAD@Z$3:
  00035	8d 4d d8	 lea	 ecx, DWORD PTR $T2[ebp]
  00038	ff 25 00 00 00
	00		 jmp	 DWORD PTR __imp_??1?$CStringT@DV?$StrTraitMFC_DLL@DV?$ChTraitsCRT@D@ATL@@@@@ATL@@QAE@XZ
  0003e	cc		 int	 3
  0003f	cc		 int	 3
  00040	cc		 int	 3
  00041	cc		 int	 3
  00042	cc		 int	 3
__ehhandler$?MakeNewGraph@CVertScaleGroup@@AAEPAVCGraphImp@@PAXPAD@Z:
  00043	90		 npad	 1
  00044	90		 npad	 1
  00045	8b 54 24 08	 mov	 edx, DWORD PTR [esp+8]
  00049	8d 42 0c	 lea	 eax, DWORD PTR [edx+12]
  0004c	8b 4a ac	 mov	 ecx, DWORD PTR [edx-84]
  0004f	33 c8		 xor	 ecx, eax
  00051	e8 00 00 00 00	 call	 @__security_check_cookie@4
  00056	b8 00 00 00 00	 mov	 eax, OFFSET __ehfuncinfo$?MakeNewGraph@CVertScaleGroup@@AAEPAVCGraphImp@@PAXPAD@Z
  0005b	e9 00 00 00 00	 jmp	 ___CxxFrameHandler3
text$x	ENDS
?MakeNewGraph@CVertScaleGroup@@AAEPAVCGraphImp@@PAXPAD@Z ENDP ; CVertScaleGroup::MakeNewGraph
; Function compile flags: /Ogtp
; File D:\git\src\IBK\IBK_DRFN\ProjSrc\SrcChartEx\ChartOCX\ChartObject\VertScaleGroup.cpp
; File C:\Program Files (x86)\Windows Kits\10\Include\10.0.22000.0\ucrt\string.h
; File D:\git\src\IBK\IBK_DRFN\ProjSrc\SrcChartEx\ChartOCX\ChartObject\VertScaleGroup.cpp
; File C:\Program Files (x86)\Windows Kits\10\Include\10.0.22000.0\ucrt\string.h
; File D:\git\src\IBK\IBK_DRFN\ProjSrc\SrcChartEx\ChartOCX\ChartObject\VertScaleGroup.cpp
; File C:\Program Files (x86)\Windows Kits\10\Include\10.0.22000.0\ucrt\string.h
; File D:\git\src\IBK\IBK_DRFN\ProjSrc\SrcChartEx\ChartOCX\ChartObject\VertScaleGroup.cpp
; File C:\Program Files (x86)\Windows Kits\10\Include\10.0.22000.0\ucrt\string.h
; File D:\git\src\IBK\IBK_DRFN\ProjSrc\SrcChartEx\ChartOCX\ChartObject\VertScaleGroup.cpp
; File C:\Program Files (x86)\Windows Kits\10\Include\10.0.22000.0\ucrt\string.h
; File D:\git\src\IBK\IBK_DRFN\ProjSrc\SrcChartEx\ChartOCX\ChartObject\VertScaleGroup.cpp
; File C:\Program Files (x86)\Windows Kits\10\Include\10.0.22000.0\ucrt\string.h
; File D:\git\src\IBK\IBK_DRFN\ProjSrc\SrcChartEx\ChartOCX\ChartObject\VertScaleGroup.cpp
; File C:\Program Files (x86)\Windows Kits\10\Include\10.0.22000.0\ucrt\string.h
; File D:\git\src\IBK\IBK_DRFN\ProjSrc\SrcChartEx\ChartOCX\ChartObject\VertScaleGroup.cpp
; File C:\Program Files (x86)\Microsoft Visual Studio\2019\Community\VC\Tools\MSVC\14.29.30133\atlmfc\include\atlsimpstr.h
; File D:\git\src\IBK\IBK_DRFN\ProjSrc\SrcChartEx\ChartOCX\ChartObject\VertScaleGroup.cpp
; File C:\Program Files (x86)\Microsoft Visual Studio\2019\Community\VC\Tools\MSVC\14.29.30133\atlmfc\include\afxcoll.inl
; File D:\git\src\IBK\IBK_DRFN\ProjSrc\SrcChartEx\ChartOCX\ChartObject\VertScaleGroup.cpp
; File C:\Program Files (x86)\Microsoft Visual Studio\2019\Community\VC\Tools\MSVC\14.29.30133\atlmfc\include\cstringt.h
; File D:\git\src\IBK\IBK_DRFN\ProjSrc\SrcChartEx\ChartOCX\ChartObject\VertScaleGroup.cpp
; File C:\Program Files (x86)\Microsoft Visual Studio\2019\Community\VC\Tools\MSVC\14.29.30133\atlmfc\include\cstringt.h
; File D:\git\src\IBK\IBK_DRFN\ProjSrc\SrcChartEx\ChartOCX\ChartObject\VertScaleGroup.cpp
; File C:\Program Files (x86)\Microsoft Visual Studio\2019\Community\VC\Tools\MSVC\14.29.30133\atlmfc\include\cstringt.h
; File D:\git\src\IBK\IBK_DRFN\ProjSrc\SrcChartEx\ChartOCX\ChartObject\VertScaleGroup.cpp
; File C:\Program Files (x86)\Windows Kits\10\Include\10.0.22000.0\ucrt\string.h
; File D:\git\src\IBK\IBK_DRFN\ProjSrc\SrcChartEx\ChartOCX\ChartObject\VertScaleGroup.cpp
; File C:\Program Files (x86)\Windows Kits\10\Include\10.0.22000.0\ucrt\string.h
; File D:\git\src\IBK\IBK_DRFN\ProjSrc\SrcChartEx\ChartOCX\ChartObject\VertScaleGroup.cpp
;	COMDAT ?MakeNewGraph@CVertScaleGroup@@AAEPAVCGraphImp@@PAD@Z
_TEXT	SEGMENT
_graphData$ = -72					; size = 36
_pMainBlock$1$ = -36					; size = 4
$T2 = -36						; size = 4
$T3 = -32						; size = 4
$T4 = -32						; size = 4
_pIndicatorList$1$ = -28				; size = 4
_szSubGraphData$1$ = -24				; size = 4
_szRQ$1$ = -20						; size = 4
_this$1$ = -16						; size = 4
__$EHRec$ = -12						; size = 12
_strGraphName$5 = 8					; size = 4
_p_szGraphData$ = 8					; size = 4
?MakeNewGraph@CVertScaleGroup@@AAEPAVCGraphImp@@PAD@Z PROC ; CVertScaleGroup::MakeNewGraph, COMDAT
; _this$ = ecx

; 1665 : {

  00000	55		 push	 ebp
  00001	8b ec		 mov	 ebp, esp
  00003	6a ff		 push	 -1
  00005	68 00 00 00 00	 push	 __ehhandler$?MakeNewGraph@CVertScaleGroup@@AAEPAVCGraphImp@@PAD@Z
  0000a	64 a1 00 00 00
	00		 mov	 eax, DWORD PTR fs:0
  00010	50		 push	 eax
  00011	83 ec 3c	 sub	 esp, 60			; 0000003cH
  00014	53		 push	 ebx
  00015	56		 push	 esi
  00016	57		 push	 edi
  00017	a1 00 00 00 00	 mov	 eax, DWORD PTR ___security_cookie
  0001c	33 c5		 xor	 eax, ebp
  0001e	50		 push	 eax
  0001f	8d 45 f4	 lea	 eax, DWORD PTR __$EHRec$[ebp]
  00022	64 a3 00 00 00
	00		 mov	 DWORD PTR fs:0, eax
  00028	8b f9		 mov	 edi, ecx
  0002a	89 7d f0	 mov	 DWORD PTR _this$1$[ebp], edi

; 1666 : 	if( !p_szGraphData) return NULL;

  0002d	8b 45 08	 mov	 eax, DWORD PTR _p_szGraphData$[ebp]
  00030	85 c0		 test	 eax, eax
  00032	74 3f		 je	 SHORT $LN10@MakeNewGra

; 1667 : 	if( !*p_szGraphData) return NULL;

  00034	80 38 00	 cmp	 BYTE PTR [eax], 0
  00037	74 3a		 je	 SHORT $LN10@MakeNewGra
; File C:\Program Files (x86)\Windows Kits\10\Include\10.0.22000.0\ucrt\string.h

; 520  :         return const_cast<char*>(strstr(static_cast<char const*>(_String), _SubString));

  00039	68 00 00 00 00	 push	 OFFSET ??_C@_08BHMMGBBH@Graph?$DL?$AN?6@
  0003e	50		 push	 eax
  0003f	e8 00 00 00 00	 call	 _strstr
; File D:\git\src\IBK\IBK_DRFN\ProjSrc\SrcChartEx\ChartOCX\ChartObject\VertScaleGroup.cpp

; 1669 : 	char *szGraphData = strstr( p_szGraphData, "Graph;\r\n");

  00044	8b f0		 mov	 esi, eax
; File C:\Program Files (x86)\Windows Kits\10\Include\10.0.22000.0\ucrt\string.h

; 520  :         return const_cast<char*>(strstr(static_cast<char const*>(_String), _SubString));

  00046	83 c4 08	 add	 esp, 8
; File D:\git\src\IBK\IBK_DRFN\ProjSrc\SrcChartEx\ChartOCX\ChartObject\VertScaleGroup.cpp

; 1670 : 	if( !szGraphData) return NULL;

  00049	85 f6		 test	 esi, esi
  0004b	74 26		 je	 SHORT $LN10@MakeNewGra

; 1671 : 	szGraphData += 8;	// "Graph;\r\n"

  0004d	83 c6 08	 add	 esi, 8
; File C:\Program Files (x86)\Windows Kits\10\Include\10.0.22000.0\ucrt\string.h

; 520  :         return const_cast<char*>(strstr(static_cast<char const*>(_String), _SubString));

  00050	68 00 00 00 00	 push	 OFFSET ??_C@_0M@DGHFHKEI@GraphEnd?$DL?$AN?6@
  00055	56		 push	 esi
  00056	e8 00 00 00 00	 call	 _strstr
; File D:\git\src\IBK\IBK_DRFN\ProjSrc\SrcChartEx\ChartOCX\ChartObject\VertScaleGroup.cpp

; 1673 : 	char *szGraphDataEnd = strstr( szGraphData, "GraphEnd;\r\n");

  0005b	8b d8		 mov	 ebx, eax
; File C:\Program Files (x86)\Windows Kits\10\Include\10.0.22000.0\ucrt\string.h

; 520  :         return const_cast<char*>(strstr(static_cast<char const*>(_String), _SubString));

  0005d	83 c4 08	 add	 esp, 8
; File D:\git\src\IBK\IBK_DRFN\ProjSrc\SrcChartEx\ChartOCX\ChartObject\VertScaleGroup.cpp

; 1674 : 	if( szGraphDataEnd) *szGraphDataEnd = '\0';

  00060	85 db		 test	 ebx, ebx
  00062	74 03		 je	 SHORT $LN8@MakeNewGra
  00064	c6 03 00	 mov	 BYTE PTR [ebx], 0
$LN8@MakeNewGra:

; 1675 : 
; 1676 : 	if( !*szGraphData)

  00067	80 3e 00	 cmp	 BYTE PTR [esi], 0
  0006a	75 1d		 jne	 SHORT $LN9@MakeNewGra

; 1677 : 	{
; 1678 : 		if( szGraphDataEnd) *szGraphDataEnd = 'G';

  0006c	85 db		 test	 ebx, ebx
  0006e	74 03		 je	 SHORT $LN10@MakeNewGra
  00070	c6 03 47	 mov	 BYTE PTR [ebx], 71	; 00000047H
$LN10@MakeNewGra:

; 1679 : 		return NULL;

  00073	33 c0		 xor	 eax, eax

; 1761 : }

  00075	8b 4d f4	 mov	 ecx, DWORD PTR __$EHRec$[ebp]
  00078	64 89 0d 00 00
	00 00		 mov	 DWORD PTR fs:0, ecx
  0007f	59		 pop	 ecx
  00080	5f		 pop	 edi
  00081	5e		 pop	 esi
  00082	5b		 pop	 ebx
  00083	8b e5		 mov	 esp, ebp
  00085	5d		 pop	 ebp
  00086	c2 04 00	 ret	 4
$LN9@MakeNewGra:
; File C:\Program Files (x86)\Windows Kits\10\Include\10.0.22000.0\ucrt\string.h

; 520  :         return const_cast<char*>(strstr(static_cast<char const*>(_String), _SubString));

  00089	68 00 00 00 00	 push	 OFFSET ??_C@_02PCIJFNDE@?$AN?6@
  0008e	56		 push	 esi
  0008f	e8 00 00 00 00	 call	 _strstr
  00094	83 c4 08	 add	 esp, 8
; File D:\git\src\IBK\IBK_DRFN\ProjSrc\SrcChartEx\ChartOCX\ChartObject\VertScaleGroup.cpp

; 1683 : 	char *szSubGraphData = strstr( szGraphData, "\r\n");

  00097	89 45 e8	 mov	 DWORD PTR _szSubGraphData$1$[ebp], eax

; 1684 : 	if( szSubGraphData) *szSubGraphData = '\0';

  0009a	85 c0		 test	 eax, eax
  0009c	74 03		 je	 SHORT $LN11@MakeNewGra
  0009e	c6 00 00	 mov	 BYTE PTR [eax], 0
$LN11@MakeNewGra:
; File C:\Program Files (x86)\Windows Kits\10\Include\10.0.22000.0\ucrt\string.h

; 520  :         return const_cast<char*>(strstr(static_cast<char const*>(_String), _SubString));

  000a1	68 00 00 00 00	 push	 OFFSET ??_C@_03PHGIHNDE@RQ?3@
  000a6	56		 push	 esi
  000a7	e8 00 00 00 00	 call	 _strstr
; File D:\git\src\IBK\IBK_DRFN\ProjSrc\SrcChartEx\ChartOCX\ChartObject\VertScaleGroup.cpp

; 1689 : 	CGraphData graphData( szGraphData, m_pMainBlockBaseData->GetParent_Handle());

  000ac	8b 4f 08	 mov	 ecx, DWORD PTR [edi+8]
; File C:\Program Files (x86)\Windows Kits\10\Include\10.0.22000.0\ucrt\string.h

; 520  :         return const_cast<char*>(strstr(static_cast<char const*>(_String), _SubString));

  000af	83 c4 08	 add	 esp, 8
; File D:\git\src\IBK\IBK_DRFN\ProjSrc\SrcChartEx\ChartOCX\ChartObject\VertScaleGroup.cpp

; 1687 : 	char *szRQ = strstr( szGraphData, "RQ:");  

  000b2	89 45 ec	 mov	 DWORD PTR _szRQ$1$[ebp], eax

; 1689 : 	CGraphData graphData( szGraphData, m_pMainBlockBaseData->GetParent_Handle());

  000b5	e8 00 00 00 00	 call	 ?GetParent_Handle@CMainBlockBaseData@@QBEPAUHWND__@@XZ ; CMainBlockBaseData::GetParent_Handle
  000ba	50		 push	 eax
  000bb	56		 push	 esi
  000bc	8d 4d b8	 lea	 ecx, DWORD PTR _graphData$[ebp]
  000bf	ff 15 00 00 00
	00		 call	 DWORD PTR __imp_??0CGraphData@@QAE@PBDPAUHWND__@@@Z

; 1690 : 	if( szSubGraphData)

  000c5	8b 75 e8	 mov	 esi, DWORD PTR _szSubGraphData$1$[ebp]
  000c8	c7 45 fc 00 00
	00 00		 mov	 DWORD PTR __$EHRec$[ebp+8], 0
  000cf	85 f6		 test	 esi, esi
  000d1	74 09		 je	 SHORT $LN12@MakeNewGra

; 1691 : 	{
; 1692 : 		*szSubGraphData = '\r';

  000d3	c6 06 0d	 mov	 BYTE PTR [esi], 13	; 0000000dH

; 1693 : 		szSubGraphData += 2;		// "\r\n"

  000d6	83 c6 02	 add	 esi, 2
  000d9	89 75 e8	 mov	 DWORD PTR _szSubGraphData$1$[ebp], esi
$LN12@MakeNewGra:

; 1694 : 	}
; 1695 : 
; 1696 : 	// (2006/12/10 - Seung-Won, Bae) Change Graph Name for Multiple Supporting of Same Indicator.
; 1697 : 	//		Caution. It must be processed before creation of Graph.
; 1698 : 	//				Because the Creation of Graph makes the Indicator Info and bind it with the Graph.
; 1699 : 	if( m_pMainBlockBaseData)

  000dc	8b 4f 08	 mov	 ecx, DWORD PTR [edi+8]
  000df	85 c9		 test	 ecx, ecx
  000e1	0f 84 48 01 00
	00		 je	 $LN13@MakeNewGra

; 1700 : 	{
; 1701 : 		CMainBlockImp *pMainBlock = m_pMainBlockBaseData->GetMainAttributes().GetMainBlockImpl();

  000e7	e8 00 00 00 00	 call	 ?GetMainAttributes@CMainBlockBaseData@@QAEAAVCMainAttributes@@XZ ; CMainBlockBaseData::GetMainAttributes
  000ec	8b c8		 mov	 ecx, eax
  000ee	e8 00 00 00 00	 call	 ?GetMainBlockImpl@CMainAttributes@@QBEPAVCMainBlockImp@@XZ ; CMainAttributes::GetMainBlockImpl
  000f3	8b f0		 mov	 esi, eax

; 1702 : 		CString strGraphName = graphData.GetGraphName();

  000f5	8d 4d b8	 lea	 ecx, DWORD PTR _graphData$[ebp]
  000f8	8d 45 08	 lea	 eax, DWORD PTR _strGraphName$5[ebp]
  000fb	89 75 dc	 mov	 DWORD PTR _pMainBlock$1$[ebp], esi
  000fe	50		 push	 eax
  000ff	ff 15 00 00 00
	00		 call	 DWORD PTR __imp_?GetGraphName@CGraphData@@QBE?AV?$CStringT@DV?$StrTraitMFC_DLL@DV?$ChTraitsCRT@D@ATL@@@@@ATL@@XZ

; 1703 : 		CIndicatorList *pIndicatorList = m_pMainBlockBaseData->GetMainAttributes().GetIndicatorList();

  00105	8b 4f 08	 mov	 ecx, DWORD PTR [edi+8]
  00108	c6 45 fc 01	 mov	 BYTE PTR __$EHRec$[ebp+8], 1
  0010c	e8 00 00 00 00	 call	 ?GetMainAttributes@CMainBlockBaseData@@QAEAAVCMainAttributes@@XZ ; CMainBlockBaseData::GetMainAttributes
  00111	8b c8		 mov	 ecx, eax
  00113	e8 00 00 00 00	 call	 ?GetIndicatorList@CMainAttributes@@QBEPAVCIndicatorList@@XZ ; CMainAttributes::GetIndicatorList
  00118	89 45 e4	 mov	 DWORD PTR _pIndicatorList$1$[ebp], eax

; 1704 : 		if( pIndicatorList)

  0011b	85 c0		 test	 eax, eax
  0011d	0f 84 fc 00 00
	00		 je	 $LN19@MakeNewGra
; File C:\Program Files (x86)\Microsoft Visual Studio\2019\Community\VC\Tools\MSVC\14.29.30133\atlmfc\include\atlsimpstr.h

; 519  : 		return( GetData()->nDataLength );

  00123	8b 4d 08	 mov	 ecx, DWORD PTR _strGraphName$5[ebp]

; 533  : 		return( GetLength() == 0 );

  00126	83 79 f4 00	 cmp	 DWORD PTR [ecx-12], 0
; File D:\git\src\IBK\IBK_DRFN\ProjSrc\SrcChartEx\ChartOCX\ChartObject\VertScaleGroup.cpp

; 1707 : 			if( strGraphName.IsEmpty())

  0012a	75 44		 jne	 SHORT $LN15@MakeNewGra
  0012c	8b 35 00 00 00
	00		 mov	 esi, DWORD PTR __imp_?Format@?$CStringT@DV?$StrTraitMFC_DLL@DV?$ChTraitsCRT@D@ATL@@@@@ATL@@QAAXPBDZZ
  00132	8b f8		 mov	 edi, eax
$LL4@MakeNewGra:

; 1708 : 			{
; 1709 : 				CIndicatorInfo *pIndicatorInfo = NULL;
; 1710 : 				do
; 1711 : 				{
; 1712 : 					strGraphName.Format( "#%04X", rand());

  00134	ff 15 00 00 00
	00		 call	 DWORD PTR __imp__rand
  0013a	50		 push	 eax
  0013b	8d 45 08	 lea	 eax, DWORD PTR _strGraphName$5[ebp]
  0013e	68 00 00 00 00	 push	 OFFSET ??_C@_05GHAPOLAB@?$CD?$CF04X@
  00143	50		 push	 eax
  00144	ff d6		 call	 esi
  00146	83 c4 0c	 add	 esp, 12			; 0000000cH

; 1713 : 					pIndicatorInfo = pIndicatorList->GetGraphIndicatorInfo( EILT_USER, strGraphName, NULL, EIIGT_WITHOUT_DEFAULT);

  00149	8b cf		 mov	 ecx, edi
  0014b	6a 00		 push	 0
  0014d	6a 00		 push	 0
  0014f	ff 75 08	 push	 DWORD PTR _strGraphName$5[ebp]
  00152	6a 03		 push	 3
  00154	ff 15 00 00 00
	00		 call	 DWORD PTR __imp_?GetGraphIndicatorInfo@CIndicatorList@@QAEPAVCIndicatorInfo@@W4EIndicatorListType@@PBD1W4EIndicatorInfoGettingType@@@Z

; 1714 : 				} while( pIndicatorInfo);

  0015a	85 c0		 test	 eax, eax
  0015c	75 d6		 jne	 SHORT $LL4@MakeNewGra

; 1715 : 				( ( CGraphDataBase *)&graphData)->SetGraphName( strGraphName);

  0015e	8d 45 08	 lea	 eax, DWORD PTR _strGraphName$5[ebp]
  00161	50		 push	 eax
  00162	8b 45 b8	 mov	 eax, DWORD PTR _graphData$[ebp]
  00165	8d 4d b8	 lea	 ecx, DWORD PTR _graphData$[ebp]
  00168	ff 50 04	 call	 DWORD PTR [eax+4]

; 1716 : 			}

  0016b	e9 ac 00 00 00	 jmp	 $LN82@MakeNewGra
$LN15@MakeNewGra:

; 1235 : 	POSITION pos = m_GraphList.GetHeadPosition();

  00170	8b 7f 7c	 mov	 edi, DWORD PTR [edi+124]

; 1236 : 	while(pos != NULL){

  00173	85 ff		 test	 edi, edi
  00175	74 41		 je	 SHORT $LN52@MakeNewGra
$LL51@MakeNewGra:
; File C:\Program Files (x86)\Microsoft Visual Studio\2019\Community\VC\Tools\MSVC\14.29.30133\atlmfc\include\afxcoll.inl

; 435  : 	{ CNode* pNode = (CNode*) rPosition;

  00177	8d 07		 lea	 eax, DWORD PTR [edi]

; 436  : 		ASSERT(AfxIsValidAddress(pNode, sizeof(CNode)));
; 437  : 		if( pNode == NULL )
; 438  : 			AfxThrowInvalidArgException();
; 439  : 		rPosition = (POSITION) pNode->pNext;

  00179	8b 3f		 mov	 edi, DWORD PTR [edi]
; File D:\git\src\IBK\IBK_DRFN\ProjSrc\SrcChartEx\ChartOCX\ChartObject\VertScaleGroup.cpp

; 1239 : 		if( pGraph->GetGraphData().GetGraphName() == strGraphName) return true;

  0017b	8d 4d e0	 lea	 ecx, DWORD PTR $T3[ebp]
  0017e	51		 push	 ecx
  0017f	8b 48 08	 mov	 ecx, DWORD PTR [eax+8]
  00182	e8 00 00 00 00	 call	 ?GetGraphData@CGraphImp@@QAEAAVCGraphData@@XZ ; CGraphImp::GetGraphData
  00187	8b c8		 mov	 ecx, eax
  00189	ff 15 00 00 00
	00		 call	 DWORD PTR __imp_?GetGraphName@CGraphData@@QBE?AV?$CStringT@DV?$StrTraitMFC_DLL@DV?$ChTraitsCRT@D@ATL@@@@@ATL@@XZ
; File C:\Program Files (x86)\Microsoft Visual Studio\2019\Community\VC\Tools\MSVC\14.29.30133\atlmfc\include\cstringt.h

; 2479 : 		return(str1.Compare(str2) == 0);

  0018f	ff 75 08	 push	 DWORD PTR _strGraphName$5[ebp]
  00192	8b c8		 mov	 ecx, eax
; File D:\git\src\IBK\IBK_DRFN\ProjSrc\SrcChartEx\ChartOCX\ChartObject\VertScaleGroup.cpp

; 1239 : 		if( pGraph->GetGraphData().GetGraphName() == strGraphName) return true;

  00194	c6 45 fc 02	 mov	 BYTE PTR __$EHRec$[ebp+8], 2
; File C:\Program Files (x86)\Microsoft Visual Studio\2019\Community\VC\Tools\MSVC\14.29.30133\atlmfc\include\cstringt.h

; 2479 : 		return(str1.Compare(str2) == 0);

  00198	ff 15 00 00 00
	00		 call	 DWORD PTR __imp_?Compare@?$CStringT@DV?$StrTraitMFC_DLL@DV?$ChTraitsCRT@D@ATL@@@@@ATL@@QBEHPBD@Z
; File D:\git\src\IBK\IBK_DRFN\ProjSrc\SrcChartEx\ChartOCX\ChartObject\VertScaleGroup.cpp

; 1239 : 		if( pGraph->GetGraphData().GetGraphName() == strGraphName) return true;

  0019e	8d 4d e0	 lea	 ecx, DWORD PTR $T3[ebp]
  001a1	c6 45 fc 01	 mov	 BYTE PTR __$EHRec$[ebp+8], 1
; File C:\Program Files (x86)\Microsoft Visual Studio\2019\Community\VC\Tools\MSVC\14.29.30133\atlmfc\include\cstringt.h

; 2479 : 		return(str1.Compare(str2) == 0);

  001a5	8b f0		 mov	 esi, eax
; File D:\git\src\IBK\IBK_DRFN\ProjSrc\SrcChartEx\ChartOCX\ChartObject\VertScaleGroup.cpp

; 1239 : 		if( pGraph->GetGraphData().GetGraphName() == strGraphName) return true;

  001a7	ff 15 00 00 00
	00		 call	 DWORD PTR __imp_??1?$CStringT@DV?$StrTraitMFC_DLL@DV?$ChTraitsCRT@D@ATL@@@@@ATL@@QAE@XZ
  001ad	85 f6		 test	 esi, esi
  001af	74 19		 je	 SHORT $LN18@MakeNewGra

; 1236 : 	while(pos != NULL){

  001b1	85 ff		 test	 edi, edi
  001b3	75 c2		 jne	 SHORT $LL51@MakeNewGra
  001b5	8b 75 dc	 mov	 esi, DWORD PTR _pMainBlock$1$[ebp]
$LN52@MakeNewGra:

; 1717 : 			else if( IsExistenceGraph( strGraphName)						// Check Current VScale Group (It may be not added in Block, because in creation.)
; 1718 : 						|| pMainBlock->IsExistenceGraph( strGraphName))

  001b8	8b 06		 mov	 eax, DWORD PTR [esi]
  001ba	8d 4d 08	 lea	 ecx, DWORD PTR _strGraphName$5[ebp]
  001bd	51		 push	 ecx
  001be	8b ce		 mov	 ecx, esi
  001c0	ff 90 5c 02 00
	00		 call	 DWORD PTR [eax+604]
  001c6	85 c0		 test	 eax, eax
  001c8	74 52		 je	 SHORT $LN82@MakeNewGra
$LN18@MakeNewGra:

; 1719 : 			{
; 1720 : 				CIndicatorInfo *pIndicatorInfo = pIndicatorList->CreateGraphIndicatorInfo( graphData.GetIndicatorName());

  001ca	8d 45 dc	 lea	 eax, DWORD PTR $T2[ebp]
  001cd	50		 push	 eax
  001ce	8d 4d b8	 lea	 ecx, DWORD PTR _graphData$[ebp]
  001d1	ff 15 00 00 00
	00		 call	 DWORD PTR __imp_?GetIndicatorName@CGraphData@@QBE?AV?$CStringT@DV?$StrTraitMFC_DLL@DV?$ChTraitsCRT@D@ATL@@@@@ATL@@XZ
  001d7	ff 30		 push	 DWORD PTR [eax]
  001d9	8b 4d e4	 mov	 ecx, DWORD PTR _pIndicatorList$1$[ebp]
  001dc	c6 45 fc 03	 mov	 BYTE PTR __$EHRec$[ebp+8], 3
  001e0	ff 15 00 00 00
	00		 call	 DWORD PTR __imp_?CreateGraphIndicatorInfo@CIndicatorList@@QAEPAVCIndicatorInfo@@PBD@Z
  001e6	8d 4d dc	 lea	 ecx, DWORD PTR $T2[ebp]
  001e9	c6 45 fc 01	 mov	 BYTE PTR __$EHRec$[ebp+8], 1
  001ed	8b f0		 mov	 esi, eax
  001ef	ff 15 00 00 00
	00		 call	 DWORD PTR __imp_??1?$CStringT@DV?$StrTraitMFC_DLL@DV?$ChTraitsCRT@D@ATL@@@@@ATL@@QAE@XZ

; 1721 : 				if( pIndicatorInfo) ( ( CGraphDataBase *)&graphData)->SetGraphName( pIndicatorInfo->GetGraphName());

  001f5	85 f6		 test	 esi, esi
  001f7	74 23		 je	 SHORT $LN82@MakeNewGra
  001f9	8d 45 e0	 lea	 eax, DWORD PTR $T4[ebp]
  001fc	8b ce		 mov	 ecx, esi
  001fe	50		 push	 eax
  001ff	ff 15 00 00 00
	00		 call	 DWORD PTR __imp_?GetGraphName@CIndicatorInfo@@QBE?AV?$CStringT@DV?$StrTraitMFC_DLL@DV?$ChTraitsCRT@D@ATL@@@@@ATL@@XZ
  00205	50		 push	 eax
  00206	8b 45 b8	 mov	 eax, DWORD PTR _graphData$[ebp]
  00209	8d 4d b8	 lea	 ecx, DWORD PTR _graphData$[ebp]
  0020c	c6 45 fc 04	 mov	 BYTE PTR __$EHRec$[ebp+8], 4
  00210	ff 50 04	 call	 DWORD PTR [eax+4]
  00213	8d 4d e0	 lea	 ecx, DWORD PTR $T4[ebp]
  00216	ff 15 00 00 00
	00		 call	 DWORD PTR __imp_??1?$CStringT@DV?$StrTraitMFC_DLL@DV?$ChTraitsCRT@D@ATL@@@@@ATL@@QAE@XZ
$LN82@MakeNewGra:

; 1722 : 			}
; 1723 : 		}
; 1724 : 	}

  0021c	8b 7d f0	 mov	 edi, DWORD PTR _this$1$[ebp]
$LN19@MakeNewGra:
  0021f	8d 4d 08	 lea	 ecx, DWORD PTR _strGraphName$5[ebp]
  00222	c6 45 fc 00	 mov	 BYTE PTR __$EHRec$[ebp+8], 0
  00226	ff 15 00 00 00
	00		 call	 DWORD PTR __imp_??1?$CStringT@DV?$StrTraitMFC_DLL@DV?$ChTraitsCRT@D@ATL@@@@@ATL@@QAE@XZ
  0022c	8b 75 e8	 mov	 esi, DWORD PTR _szSubGraphData$1$[ebp]
$LN13@MakeNewGra:

; 1725 : 
; 1726 : 	//   :  - ojtaso (20070507)
; 1727 : 	CGraphImp *pGraph = NULL;
; 1728 : 	if(szRQ)

  0022f	8b 45 ec	 mov	 eax, DWORD PTR _szRQ$1$[ebp]
  00232	85 c0		 test	 eax, eax
  00234	0f 84 80 00 00
	00		 je	 $LN20@MakeNewGra

; 1730 : 		szRQ += 3;

  0023a	83 c0 03	 add	 eax, 3
; File C:\Program Files (x86)\Windows Kits\10\Include\10.0.22000.0\ucrt\string.h

; 520  :         return const_cast<char*>(strstr(static_cast<char const*>(_String), _SubString));

  0023d	68 00 00 00 00	 push	 OFFSET ??_C@_02PCIJFNDE@?$AN?6@
  00242	50		 push	 eax
; File D:\git\src\IBK\IBK_DRFN\ProjSrc\SrcChartEx\ChartOCX\ChartObject\VertScaleGroup.cpp

; 1730 : 		szRQ += 3;

  00243	89 45 ec	 mov	 DWORD PTR _szRQ$1$[ebp], eax
; File C:\Program Files (x86)\Windows Kits\10\Include\10.0.22000.0\ucrt\string.h

; 520  :         return const_cast<char*>(strstr(static_cast<char const*>(_String), _SubString));

  00246	e8 00 00 00 00	 call	 _strstr
  0024b	83 c4 08	 add	 esp, 8
; File D:\git\src\IBK\IBK_DRFN\ProjSrc\SrcChartEx\ChartOCX\ChartObject\VertScaleGroup.cpp

; 1732 : 		if(szRQEnd)

  0024e	85 c0		 test	 eax, eax
  00250	74 03		 je	 SHORT $LN22@MakeNewGra

; 1733 : 			*szRQEnd = '\0';

  00252	c6 00 00	 mov	 BYTE PTR [eax], 0
$LN22@MakeNewGra:

; 1734 : 
; 1735 : 		LPVOID pPacketRQ = m_pMainBlockBaseData->GetMainAttributes().GetPacketListManager()->GetPacketRQ(szRQ);

  00255	8b 4f 08	 mov	 ecx, DWORD PTR [edi+8]
  00258	e8 00 00 00 00	 call	 ?GetMainAttributes@CMainBlockBaseData@@QAEAAVCMainAttributes@@XZ ; CMainBlockBaseData::GetMainAttributes
  0025d	8b c8		 mov	 ecx, eax
  0025f	e8 00 00 00 00	 call	 ?GetPacketListManager@CMainAttributes@@QBEPAVCPacketListManager@@XZ ; CMainAttributes::GetPacketListManager
  00264	ff 75 ec	 push	 DWORD PTR _szRQ$1$[ebp]
  00267	8b c8		 mov	 ecx, eax
  00269	8b 10		 mov	 edx, DWORD PTR [eax]
  0026b	ff 52 20	 call	 DWORD PTR [edx+32]
  0026e	8b 4f 08	 mov	 ecx, DWORD PTR [edi+8]

; 1736 : 		if(pPacketRQ)

  00271	56		 push	 esi
  00272	85 c0		 test	 eax, eax
  00274	74 34		 je	 SHORT $LN23@MakeNewGra

; 1737 : 		{
; 1738 : 			pGraph = CGraphImp::MakeGraph(pPacketRQ, m_pMainBlockBaseData, this, graphData, szSubGraphData);

  00276	8d 55 b8	 lea	 edx, DWORD PTR _graphData$[ebp]
  00279	52		 push	 edx
  0027a	57		 push	 edi
  0027b	51		 push	 ecx
  0027c	50		 push	 eax
  0027d	e8 00 00 00 00	 call	 ?MakeGraph@CGraphImp@@SAPAV1@PAXPAVCMainBlockBaseData@@PAVCVertScaleGroup@@ABVCGraphData@@PAD@Z ; CGraphImp::MakeGraph

; 1739 : 			m_pMainBlockBaseData->GetMainAttributes().GetIChartCtrl()->NotifyRQStatusToAddin( CCommonInterfaceEnum::PACKETLISTMANAGER_NEW_RQ, szRQ);

  00282	8b 4f 08	 mov	 ecx, DWORD PTR [edi+8]
  00285	83 c4 14	 add	 esp, 20			; 00000014H
  00288	8b f0		 mov	 esi, eax
  0028a	e8 00 00 00 00	 call	 ?GetMainAttributes@CMainBlockBaseData@@QAEAAVCMainAttributes@@XZ ; CMainBlockBaseData::GetMainAttributes
  0028f	8b c8		 mov	 ecx, eax
  00291	e8 00 00 00 00	 call	 ?GetIChartCtrl@CMainAttributes@@QBEPAUIChartCtrl@@XZ ; CMainAttributes::GetIChartCtrl
  00296	ff 75 ec	 push	 DWORD PTR _szRQ$1$[ebp]
  00299	8b c8		 mov	 ecx, eax
  0029b	6a 00		 push	 0
  0029d	8b 10		 mov	 edx, DWORD PTR [eax]
  0029f	ff 92 60 05 00
	00		 call	 DWORD PTR [edx+1376]

; 1740 : 		}

  002a5	e9 8d 00 00 00	 jmp	 $LN21@MakeNewGra
$LN23@MakeNewGra:

; 1741 : 		else
; 1742 : 			pGraph = CGraphImp::MakeGraph(m_pMainBlockBaseData, this, graphData, szSubGraphData);

  002aa	8d 45 b8	 lea	 eax, DWORD PTR _graphData$[ebp]
  002ad	50		 push	 eax
  002ae	57		 push	 edi
  002af	51		 push	 ecx
  002b0	e8 00 00 00 00	 call	 ?MakeGraph@CGraphImp@@SAPAV1@PAVCMainBlockBaseData@@PAVCVertScaleGroup@@ABVCGraphData@@PAD@Z ; CGraphImp::MakeGraph
  002b5	83 c4 10	 add	 esp, 16			; 00000010H

; 1743 : 	}

  002b8	eb 7b		 jmp	 SHORT $LN84@MakeNewGra
$LN20@MakeNewGra:

; 1744 : 	else
; 1745 : 	{
; 1746 : 		// Packet Name   :  - ojtaso (20070531)
; 1747 : 		CPacketListManager* lpPacketListManager = m_pMainBlockBaseData->GetMainAttributes().GetPacketListManager();

  002ba	8b 4f 08	 mov	 ecx, DWORD PTR [edi+8]
  002bd	e8 00 00 00 00	 call	 ?GetMainAttributes@CMainBlockBaseData@@QAEAAVCMainAttributes@@XZ ; CMainBlockBaseData::GetMainAttributes
  002c2	8b c8		 mov	 ecx, eax
  002c4	e8 00 00 00 00	 call	 ?GetPacketListManager@CMainAttributes@@QBEPAVCPacketListManager@@XZ ; CMainAttributes::GetPacketListManager

; 1748 : 
; 1749 : 		LPVOID pPacketRQ = lpPacketListManager->GetPacketRQ( m_pMainBlockBaseData->GetMainAttributes().GetIChartCtrl()->GetCurrentRQ());

  002c9	8b 4d f0	 mov	 ecx, DWORD PTR _this$1$[ebp]
  002cc	8b f8		 mov	 edi, eax
  002ce	8b 49 08	 mov	 ecx, DWORD PTR [ecx+8]
  002d1	e8 00 00 00 00	 call	 ?GetMainAttributes@CMainBlockBaseData@@QAEAAVCMainAttributes@@XZ ; CMainBlockBaseData::GetMainAttributes
  002d6	8b c8		 mov	 ecx, eax
  002d8	e8 00 00 00 00	 call	 ?GetIChartCtrl@CMainAttributes@@QBEPAUIChartCtrl@@XZ ; CMainAttributes::GetIChartCtrl
  002dd	8b 37		 mov	 esi, DWORD PTR [edi]
  002df	8b c8		 mov	 ecx, eax
  002e1	8b 10		 mov	 edx, DWORD PTR [eax]
  002e3	ff 92 d8 02 00
	00		 call	 DWORD PTR [edx+728]
  002e9	50		 push	 eax
  002ea	8b cf		 mov	 ecx, edi
  002ec	ff 56 20	 call	 DWORD PTR [esi+32]
  002ef	8b c8		 mov	 ecx, eax

; 1750 : 		if( !pPacketRQ)

  002f1	85 c9		 test	 ecx, ecx
  002f3	75 28		 jne	 SHORT $LN25@MakeNewGra

; 1751 : 		{
; 1752 : 			if( szGraphDataEnd) *szGraphDataEnd = 'G';

  002f5	85 db		 test	 ebx, ebx
  002f7	74 03		 je	 SHORT $LN26@MakeNewGra
  002f9	c6 03 47	 mov	 BYTE PTR [ebx], 71	; 00000047H
$LN26@MakeNewGra:

; 1759 : 
; 1760 : 	return pGraph;

  002fc	8d 4d b8	 lea	 ecx, DWORD PTR _graphData$[ebp]
  002ff	33 f6		 xor	 esi, esi
  00301	ff 15 00 00 00
	00		 call	 DWORD PTR __imp_??1CGraphData@@QAE@XZ
  00307	8b c6		 mov	 eax, esi

; 1761 : }

  00309	8b 4d f4	 mov	 ecx, DWORD PTR __$EHRec$[ebp]
  0030c	64 89 0d 00 00
	00 00		 mov	 DWORD PTR fs:0, ecx
  00313	59		 pop	 ecx
  00314	5f		 pop	 edi
  00315	5e		 pop	 esi
  00316	5b		 pop	 ebx
  00317	8b e5		 mov	 esp, ebp
  00319	5d		 pop	 ebp
  0031a	c2 04 00	 ret	 4
$LN25@MakeNewGra:

; 1753 : 			return NULL;
; 1754 : 		}
; 1755 : 		pGraph = CGraphImp::MakeGraph(pPacketRQ, m_pMainBlockBaseData, this, graphData, szSubGraphData);

  0031d	8b 45 e8	 mov	 eax, DWORD PTR _szSubGraphData$1$[ebp]
  00320	50		 push	 eax
  00321	8d 45 b8	 lea	 eax, DWORD PTR _graphData$[ebp]
  00324	50		 push	 eax
  00325	8b 45 f0	 mov	 eax, DWORD PTR _this$1$[ebp]
  00328	50		 push	 eax
  00329	ff 70 08	 push	 DWORD PTR [eax+8]
  0032c	51		 push	 ecx
  0032d	e8 00 00 00 00	 call	 ?MakeGraph@CGraphImp@@SAPAV1@PAXPAVCMainBlockBaseData@@PAVCVertScaleGroup@@ABVCGraphData@@PAD@Z ; CGraphImp::MakeGraph
  00332	83 c4 14	 add	 esp, 20			; 00000014H
$LN84@MakeNewGra:

; 1756 : 	}
; 1757 : 
; 1758 : 	if( szGraphDataEnd) *szGraphDataEnd = 'G';

  00335	8b f0		 mov	 esi, eax
$LN21@MakeNewGra:
  00337	85 db		 test	 ebx, ebx
  00339	74 03		 je	 SHORT $LN33@MakeNewGra
  0033b	c6 03 47	 mov	 BYTE PTR [ebx], 71	; 00000047H
$LN33@MakeNewGra:

; 1759 : 
; 1760 : 	return pGraph;

  0033e	8d 4d b8	 lea	 ecx, DWORD PTR _graphData$[ebp]
  00341	ff 15 00 00 00
	00		 call	 DWORD PTR __imp_??1CGraphData@@QAE@XZ
  00347	8b c6		 mov	 eax, esi

; 1761 : }

  00349	8b 4d f4	 mov	 ecx, DWORD PTR __$EHRec$[ebp]
  0034c	64 89 0d 00 00
	00 00		 mov	 DWORD PTR fs:0, ecx
  00353	59		 pop	 ecx
  00354	5f		 pop	 edi
  00355	5e		 pop	 esi
  00356	5b		 pop	 ebx
  00357	8b e5		 mov	 esp, ebp
  00359	5d		 pop	 ebp
  0035a	c2 04 00	 ret	 4
_TEXT	ENDS
;	COMDAT text$x
text$x	SEGMENT
__unwindfunclet$?MakeNewGraph@CVertScaleGroup@@AAEPAVCGraphImp@@PAD@Z$0:
  00000	8d 4d b8	 lea	 ecx, DWORD PTR _graphData$[ebp]
  00003	ff 25 00 00 00
	00		 jmp	 DWORD PTR __imp_??1CGraphData@@QAE@XZ
__unwindfunclet$?MakeNewGraph@CVertScaleGroup@@AAEPAVCGraphImp@@PAD@Z$1:
  00009	8d 4d 08	 lea	 ecx, DWORD PTR _strGraphName$5[ebp]
  0000c	ff 25 00 00 00
	00		 jmp	 DWORD PTR __imp_??1?$CStringT@DV?$StrTraitMFC_DLL@DV?$ChTraitsCRT@D@ATL@@@@@ATL@@QAE@XZ
__unwindfunclet$?MakeNewGraph@CVertScaleGroup@@AAEPAVCGraphImp@@PAD@Z$4:
  00012	8d 4d e0	 lea	 ecx, DWORD PTR $T3[ebp]
  00015	ff 25 00 00 00
	00		 jmp	 DWORD PTR __imp_??1?$CStringT@DV?$StrTraitMFC_DLL@DV?$ChTraitsCRT@D@ATL@@@@@ATL@@QAE@XZ
__unwindfunclet$?MakeNewGraph@CVertScaleGroup@@AAEPAVCGraphImp@@PAD@Z$2:
  0001b	8d 4d dc	 lea	 ecx, DWORD PTR $T2[ebp]
  0001e	ff 25 00 00 00
	00		 jmp	 DWORD PTR __imp_??1?$CStringT@DV?$StrTraitMFC_DLL@DV?$ChTraitsCRT@D@ATL@@@@@ATL@@QAE@XZ
__unwindfunclet$?MakeNewGraph@CVertScaleGroup@@AAEPAVCGraphImp@@PAD@Z$3:
  00024	8d 4d e0	 lea	 ecx, DWORD PTR $T4[ebp]
  00027	ff 25 00 00 00
	00		 jmp	 DWORD PTR __imp_??1?$CStringT@DV?$StrTraitMFC_DLL@DV?$ChTraitsCRT@D@ATL@@@@@ATL@@QAE@XZ
  0002d	cc		 int	 3
  0002e	cc		 int	 3
  0002f	cc		 int	 3
  00030	cc		 int	 3
  00031	cc		 int	 3
__ehhandler$?MakeNewGraph@CVertScaleGroup@@AAEPAVCGraphImp@@PAD@Z:
  00032	90		 npad	 1
  00033	90		 npad	 1
  00034	8b 54 24 08	 mov	 edx, DWORD PTR [esp+8]
  00038	8d 42 0c	 lea	 eax, DWORD PTR [edx+12]
  0003b	8b 4a b4	 mov	 ecx, DWORD PTR [edx-76]
  0003e	33 c8		 xor	 ecx, eax
  00040	e8 00 00 00 00	 call	 @__security_check_cookie@4
  00045	b8 00 00 00 00	 mov	 eax, OFFSET __ehfuncinfo$?MakeNewGraph@CVertScaleGroup@@AAEPAVCGraphImp@@PAD@Z
  0004a	e9 00 00 00 00	 jmp	 ___CxxFrameHandler3
text$x	ENDS
?MakeNewGraph@CVertScaleGroup@@AAEPAVCGraphImp@@PAD@Z ENDP ; CVertScaleGroup::MakeNewGraph
; Function compile flags: /Ogtp
; File D:\git\src\IBK\IBK_DRFN\ProjSrc\SrcChartEx\ChartOCX\ChartObject\VertScaleGroup.cpp
; File C:\Program Files (x86)\Microsoft Visual Studio\2019\Community\VC\Tools\MSVC\14.29.30133\atlmfc\include\afxcoll.inl
; File D:\git\src\IBK\IBK_DRFN\ProjSrc\SrcChartEx\ChartOCX\ChartObject\VertScaleGroup.cpp
; File C:\Program Files (x86)\Microsoft Visual Studio\2019\Community\VC\Tools\MSVC\14.29.30133\atlmfc\include\cstringt.h
; File D:\git\src\IBK\IBK_DRFN\ProjSrc\SrcChartEx\ChartOCX\ChartObject\VertScaleGroup.cpp
; File C:\Program Files (x86)\Microsoft Visual Studio\2019\Community\VC\Tools\MSVC\14.29.30133\atlmfc\include\cstringt.h
; File D:\git\src\IBK\IBK_DRFN\ProjSrc\SrcChartEx\ChartOCX\ChartObject\VertScaleGroup.cpp
; File C:\Program Files (x86)\Microsoft Visual Studio\2019\Community\VC\Tools\MSVC\14.29.30133\atlmfc\include\cstringt.h
; File D:\git\src\IBK\IBK_DRFN\ProjSrc\SrcChartEx\ChartOCX\ChartObject\VertScaleGroup.cpp
;	COMDAT ?FindBaseGraphForDrawingVertScaleData@CVertScaleGroup@@QBEPAVCGraphImp@@XZ
_TEXT	SEGMENT
_gsi$ = -84						; size = 64
$T2 = -20						; size = 4
$T3 = -20						; size = 4
_strGraphName$ = -16					; size = 4
__$EHRec$ = -12						; size = 12
?FindBaseGraphForDrawingVertScaleData@CVertScaleGroup@@QBEPAVCGraphImp@@XZ PROC ; CVertScaleGroup::FindBaseGraphForDrawingVertScaleData, COMDAT
; _this$ = ecx

; 2019 : {

  00000	55		 push	 ebp
  00001	8b ec		 mov	 ebp, esp
  00003	6a ff		 push	 -1
  00005	68 00 00 00 00	 push	 __ehhandler$?FindBaseGraphForDrawingVertScaleData@CVertScaleGroup@@QBEPAVCGraphImp@@XZ
  0000a	64 a1 00 00 00
	00		 mov	 eax, DWORD PTR fs:0
  00010	50		 push	 eax
  00011	83 ec 48	 sub	 esp, 72			; 00000048H
  00014	56		 push	 esi
  00015	57		 push	 edi
  00016	a1 00 00 00 00	 mov	 eax, DWORD PTR ___security_cookie
  0001b	33 c5		 xor	 eax, ebp
  0001d	50		 push	 eax
  0001e	8d 45 f4	 lea	 eax, DWORD PTR __$EHRec$[ebp]
  00021	64 a3 00 00 00
	00		 mov	 DWORD PTR fs:0, eax
  00027	8b f1		 mov	 esi, ecx
; File C:\Program Files (x86)\Microsoft Visual Studio\2019\Community\VC\Tools\MSVC\14.29.30133\atlmfc\include\afxcoll.inl

; 410  : 	{ return m_nCount == 0; }

  00029	83 be 84 00 00
	00 00		 cmp	 DWORD PTR [esi+132], 0
; File D:\git\src\IBK\IBK_DRFN\ProjSrc\SrcChartEx\ChartOCX\ChartObject\VertScaleGroup.cpp

; 2020 : 	if( m_GraphList.IsEmpty()) return NULL;

  00030	0f 84 3d 01 00
	00		 je	 $LN29@FindBaseGr

; 2021 : 
; 2022 : 	//  head  graph.
; 2023 : 	// (2007/3/11 - Seung-Won, Bae) Retrieve the Visible Graph first.
; 2024 : 	CGraphImp* pBaseGraph = NULL;
; 2025 : 	CGraphSearchInfo_VisibleSubGraph gsi;
; 2026 : 	if( FindGraph( &gsi)) pBaseGraph = gsi.m_pGraphImp;

  00036	8d 4d ac	 lea	 ecx, DWORD PTR _gsi$[ebp]
  00039	e8 00 00 00 00	 call	 ??0CGraphSearchInfo@@QAE@XZ ; CGraphSearchInfo::CGraphSearchInfo
  0003e	8d 45 ac	 lea	 eax, DWORD PTR _gsi$[ebp]
  00041	c7 45 ac 00 00
	00 00		 mov	 DWORD PTR _gsi$[ebp], OFFSET ??_7CGraphSearchInfo_VisibleSubGraph@@6B@
  00048	50		 push	 eax
  00049	8b ce		 mov	 ecx, esi
  0004b	e8 00 00 00 00	 call	 ?FindGraph@CVertScaleGroup@@QBEHPAVCGraphSearchInfo@@@Z ; CVertScaleGroup::FindGraph
  00050	85 c0		 test	 eax, eax
  00052	74 05		 je	 SHORT $LN3@FindBaseGr
  00054	8b 7d e4	 mov	 edi, DWORD PTR _gsi$[ebp+56]
  00057	eb 06		 jmp	 SHORT $LN4@FindBaseGr
$LN3@FindBaseGr:

; 2027 : 	else pBaseGraph = m_GraphList.GetHead();

  00059	8b 46 7c	 mov	 eax, DWORD PTR [esi+124]
  0005c	8b 78 08	 mov	 edi, DWORD PTR [eax+8]
$LN4@FindBaseGr:

; 2028 : 	if( pBaseGraph == NULL) return NULL;

  0005f	85 ff		 test	 edi, edi
  00061	0f 84 0c 01 00
	00		 je	 $LN29@FindBaseGr

; 2030 : 	CString strGraphName = pBaseGraph->GetGraphData().GetIndicatorName();

  00067	8d 45 f0	 lea	 eax, DWORD PTR _strGraphName$[ebp]
  0006a	8b cf		 mov	 ecx, edi
  0006c	50		 push	 eax
  0006d	e8 00 00 00 00	 call	 ?GetGraphData@CGraphImp@@QAEAAVCGraphData@@XZ ; CGraphImp::GetGraphData
  00072	8b c8		 mov	 ecx, eax
  00074	ff 15 00 00 00
	00		 call	 DWORD PTR __imp_?GetIndicatorName@CGraphData@@QBE?AV?$CStringT@DV?$StrTraitMFC_DLL@DV?$ChTraitsCRT@D@ATL@@@@@ATL@@XZ

; 2033 : 	if(strGraphName != _MTEXT( C2_PRICE_CHART) && 

  0007a	a1 54 00 00 00	 mov	 eax, DWORD PTR ?g_iMetaTable@@3VIMetaTable@@A+84
; File C:\Program Files (x86)\Microsoft Visual Studio\2019\Community\VC\Tools\MSVC\14.29.30133\atlmfc\include\cstringt.h

; 2567 : 		return( str1.Compare( psz2 ) != 0 );

  0007f	8d 4d f0	 lea	 ecx, DWORD PTR _strGraphName$[ebp]
; File D:\git\src\IBK\IBK_DRFN\ProjSrc\SrcChartEx\ChartOCX\ChartObject\VertScaleGroup.cpp

; 2030 : 	CString strGraphName = pBaseGraph->GetGraphData().GetIndicatorName();

  00082	c7 45 fc 00 00
	00 00		 mov	 DWORD PTR __$EHRec$[ebp+8], 0
; File C:\Program Files (x86)\Microsoft Visual Studio\2019\Community\VC\Tools\MSVC\14.29.30133\atlmfc\include\cstringt.h

; 2567 : 		return( str1.Compare( psz2 ) != 0 );

  00089	ff b0 28 03 00
	00		 push	 DWORD PTR [eax+808]
  0008f	ff 15 00 00 00
	00		 call	 DWORD PTR __imp_?Compare@?$CStringT@DV?$StrTraitMFC_DLL@DV?$ChTraitsCRT@D@ATL@@@@@ATL@@QBEHPBD@Z
  00095	85 c0		 test	 eax, eax
; File D:\git\src\IBK\IBK_DRFN\ProjSrc\SrcChartEx\ChartOCX\ChartObject\VertScaleGroup.cpp

; 2033 : 	if(strGraphName != _MTEXT( C2_PRICE_CHART) && 

  00097	74 60		 je	 SHORT $LN6@FindBaseGr
  00099	8d 45 f0	 lea	 eax, DWORD PTR _strGraphName$[ebp]
  0009c	b9 00 00 00 00	 mov	 ecx, OFFSET ?g_iMetaTable@@3VIMetaTable@@A ; g_iMetaTable
  000a1	50		 push	 eax
  000a2	e8 00 00 00 00	 call	 ?IsScaleGroup_Price@IMetaTable@@QAE_NABV?$CStringT@DV?$StrTraitMFC_DLL@DV?$ChTraitsCRT@D@ATL@@@@@ATL@@@Z ; IMetaTable::IsScaleGroup_Price
  000a7	84 c0		 test	 al, al
  000a9	74 4e		 je	 SHORT $LN6@FindBaseGr

; 2034 : 		g_iMetaTable.IsScaleGroup_Price(strGraphName))
; 2035 : 	{
; 2036 : 		CGraphImp* pGraph = FindGraph( _MTEXT( C2_PRICE_CHART));

  000ab	a1 54 00 00 00	 mov	 eax, DWORD PTR ?g_iMetaTable@@3VIMetaTable@@A+84
  000b0	8d 4d ec	 lea	 ecx, DWORD PTR $T3[ebp]
  000b3	ff b0 28 03 00
	00		 push	 DWORD PTR [eax+808]
  000b9	ff 15 00 00 00
	00		 call	 DWORD PTR __imp_??0?$CStringT@DV?$StrTraitMFC_DLL@DV?$ChTraitsCRT@D@ATL@@@@@ATL@@QAE@PBD@Z
  000bf	8d 45 ec	 lea	 eax, DWORD PTR $T3[ebp]
  000c2	c6 45 fc 01	 mov	 BYTE PTR __$EHRec$[ebp+8], 1
  000c6	50		 push	 eax
  000c7	8b ce		 mov	 ecx, esi
  000c9	e8 00 00 00 00	 call	 ?FindGraph@CVertScaleGroup@@QBEPAVCGraphImp@@ABV?$CStringT@DV?$StrTraitMFC_DLL@DV?$ChTraitsCRT@D@ATL@@@@@ATL@@@Z ; CVertScaleGroup::FindGraph
  000ce	8d 4d ec	 lea	 ecx, DWORD PTR $T3[ebp]
  000d1	8b f0		 mov	 esi, eax
  000d3	ff 15 00 00 00
	00		 call	 DWORD PTR __imp_??1?$CStringT@DV?$StrTraitMFC_DLL@DV?$ChTraitsCRT@D@ATL@@@@@ATL@@QAE@XZ

; 2037 : 		if(pGraph != NULL)

  000d9	85 f6		 test	 esi, esi
  000db	74 78		 je	 SHORT $LN10@FindBaseGr

; 2046 : 			return pGraph;
; 2047 : 	}
; 2048 : 
; 2049 : 	return pBaseGraph;

  000dd	8d 4d f0	 lea	 ecx, DWORD PTR _strGraphName$[ebp]
  000e0	ff 15 00 00 00
	00		 call	 DWORD PTR __imp_??1?$CStringT@DV?$StrTraitMFC_DLL@DV?$ChTraitsCRT@D@ATL@@@@@ATL@@QAE@XZ
  000e6	8b c6		 mov	 eax, esi

; 2050 : }

  000e8	8b 4d f4	 mov	 ecx, DWORD PTR __$EHRec$[ebp]
  000eb	64 89 0d 00 00
	00 00		 mov	 DWORD PTR fs:0, ecx
  000f2	59		 pop	 ecx
  000f3	5f		 pop	 edi
  000f4	5e		 pop	 esi
  000f5	8b e5		 mov	 esp, ebp
  000f7	5d		 pop	 ebp
  000f8	c3		 ret	 0
$LN6@FindBaseGr:

; 2041 : 	else if(strGraphName != _MTEXT( C2_VOLUME_CHART) && 

  000f9	a1 54 00 00 00	 mov	 eax, DWORD PTR ?g_iMetaTable@@3VIMetaTable@@A+84
; File C:\Program Files (x86)\Microsoft Visual Studio\2019\Community\VC\Tools\MSVC\14.29.30133\atlmfc\include\cstringt.h

; 2567 : 		return( str1.Compare( psz2 ) != 0 );

  000fe	8d 4d f0	 lea	 ecx, DWORD PTR _strGraphName$[ebp]
  00101	ff b0 2c 03 00
	00		 push	 DWORD PTR [eax+812]
  00107	ff 15 00 00 00
	00		 call	 DWORD PTR __imp_?Compare@?$CStringT@DV?$StrTraitMFC_DLL@DV?$ChTraitsCRT@D@ATL@@@@@ATL@@QBEHPBD@Z
  0010d	85 c0		 test	 eax, eax
; File D:\git\src\IBK\IBK_DRFN\ProjSrc\SrcChartEx\ChartOCX\ChartObject\VertScaleGroup.cpp

; 2041 : 	else if(strGraphName != _MTEXT( C2_VOLUME_CHART) && 

  0010f	74 44		 je	 SHORT $LN10@FindBaseGr
  00111	8d 45 f0	 lea	 eax, DWORD PTR _strGraphName$[ebp]
  00114	b9 00 00 00 00	 mov	 ecx, OFFSET ?g_iMetaTable@@3VIMetaTable@@A ; g_iMetaTable
  00119	50		 push	 eax
  0011a	e8 00 00 00 00	 call	 ?IsScaleGroup_Volume@IMetaTable@@QAE_NABV?$CStringT@DV?$StrTraitMFC_DLL@DV?$ChTraitsCRT@D@ATL@@@@@ATL@@@Z ; IMetaTable::IsScaleGroup_Volume
  0011f	84 c0		 test	 al, al
  00121	74 32		 je	 SHORT $LN10@FindBaseGr

; 2042 : 		g_iMetaTable.IsScaleGroup_Volume(strGraphName))
; 2043 : 	{
; 2044 : 		CGraphImp* pGraph = FindGraph( _MTEXT( C2_VOLUME_CHART));

  00123	a1 54 00 00 00	 mov	 eax, DWORD PTR ?g_iMetaTable@@3VIMetaTable@@A+84
  00128	8d 4d ec	 lea	 ecx, DWORD PTR $T2[ebp]
  0012b	ff b0 2c 03 00
	00		 push	 DWORD PTR [eax+812]
  00131	ff 15 00 00 00
	00		 call	 DWORD PTR __imp_??0?$CStringT@DV?$StrTraitMFC_DLL@DV?$ChTraitsCRT@D@ATL@@@@@ATL@@QAE@PBD@Z
  00137	8d 45 ec	 lea	 eax, DWORD PTR $T2[ebp]
  0013a	c6 45 fc 02	 mov	 BYTE PTR __$EHRec$[ebp+8], 2
  0013e	50		 push	 eax
  0013f	8b ce		 mov	 ecx, esi
  00141	e8 00 00 00 00	 call	 ?FindGraph@CVertScaleGroup@@QBEPAVCGraphImp@@ABV?$CStringT@DV?$StrTraitMFC_DLL@DV?$ChTraitsCRT@D@ATL@@@@@ATL@@@Z ; CVertScaleGroup::FindGraph
  00146	8d 4d ec	 lea	 ecx, DWORD PTR $T2[ebp]
  00149	8b f0		 mov	 esi, eax
  0014b	ff 15 00 00 00
	00		 call	 DWORD PTR __imp_??1?$CStringT@DV?$StrTraitMFC_DLL@DV?$ChTraitsCRT@D@ATL@@@@@ATL@@QAE@XZ

; 2045 : 		if(pGraph != NULL)

  00151	85 f6		 test	 esi, esi
  00153	75 02		 jne	 SHORT $LN16@FindBaseGr
$LN10@FindBaseGr:

; 2046 : 			return pGraph;
; 2047 : 	}
; 2048 : 
; 2049 : 	return pBaseGraph;

  00155	8b f7		 mov	 esi, edi
$LN16@FindBaseGr:
  00157	8d 4d f0	 lea	 ecx, DWORD PTR _strGraphName$[ebp]
  0015a	ff 15 00 00 00
	00		 call	 DWORD PTR __imp_??1?$CStringT@DV?$StrTraitMFC_DLL@DV?$ChTraitsCRT@D@ATL@@@@@ATL@@QAE@XZ
  00160	8b c6		 mov	 eax, esi

; 2050 : }

  00162	8b 4d f4	 mov	 ecx, DWORD PTR __$EHRec$[ebp]
  00165	64 89 0d 00 00
	00 00		 mov	 DWORD PTR fs:0, ecx
  0016c	59		 pop	 ecx
  0016d	5f		 pop	 edi
  0016e	5e		 pop	 esi
  0016f	8b e5		 mov	 esp, ebp
  00171	5d		 pop	 ebp
  00172	c3		 ret	 0
$LN29@FindBaseGr:

; 2028 : 	if( pBaseGraph == NULL) return NULL;

  00173	33 c0		 xor	 eax, eax

; 2050 : }

  00175	8b 4d f4	 mov	 ecx, DWORD PTR __$EHRec$[ebp]
  00178	64 89 0d 00 00
	00 00		 mov	 DWORD PTR fs:0, ecx
  0017f	59		 pop	 ecx
  00180	5f		 pop	 edi
  00181	5e		 pop	 esi
  00182	8b e5		 mov	 esp, ebp
  00184	5d		 pop	 ebp
  00185	c3		 ret	 0
_TEXT	ENDS
;	COMDAT text$x
text$x	SEGMENT
__unwindfunclet$?FindBaseGraphForDrawingVertScaleData@CVertScaleGroup@@QBEPAVCGraphImp@@XZ$0:
  00000	8d 4d f0	 lea	 ecx, DWORD PTR _strGraphName$[ebp]
  00003	ff 25 00 00 00
	00		 jmp	 DWORD PTR __imp_??1?$CStringT@DV?$StrTraitMFC_DLL@DV?$ChTraitsCRT@D@ATL@@@@@ATL@@QAE@XZ
__unwindfunclet$?FindBaseGraphForDrawingVertScaleData@CVertScaleGroup@@QBEPAVCGraphImp@@XZ$1:
  00009	8d 4d ec	 lea	 ecx, DWORD PTR $T3[ebp]
  0000c	ff 25 00 00 00
	00		 jmp	 DWORD PTR __imp_??1?$CStringT@DV?$StrTraitMFC_DLL@DV?$ChTraitsCRT@D@ATL@@@@@ATL@@QAE@XZ
__unwindfunclet$?FindBaseGraphForDrawingVertScaleData@CVertScaleGroup@@QBEPAVCGraphImp@@XZ$2:
  00012	8d 4d ec	 lea	 ecx, DWORD PTR $T2[ebp]
  00015	ff 25 00 00 00
	00		 jmp	 DWORD PTR __imp_??1?$CStringT@DV?$StrTraitMFC_DLL@DV?$ChTraitsCRT@D@ATL@@@@@ATL@@QAE@XZ
  0001b	cc		 int	 3
  0001c	cc		 int	 3
  0001d	cc		 int	 3
  0001e	cc		 int	 3
  0001f	cc		 int	 3
__ehhandler$?FindBaseGraphForDrawingVertScaleData@CVertScaleGroup@@QBEPAVCGraphImp@@XZ:
  00020	90		 npad	 1
  00021	90		 npad	 1
  00022	8b 54 24 08	 mov	 edx, DWORD PTR [esp+8]
  00026	8d 42 0c	 lea	 eax, DWORD PTR [edx+12]
  00029	8b 4a ac	 mov	 ecx, DWORD PTR [edx-84]
  0002c	33 c8		 xor	 ecx, eax
  0002e	e8 00 00 00 00	 call	 @__security_check_cookie@4
  00033	b8 00 00 00 00	 mov	 eax, OFFSET __ehfuncinfo$?FindBaseGraphForDrawingVertScaleData@CVertScaleGroup@@QBEPAVCGraphImp@@XZ
  00038	e9 00 00 00 00	 jmp	 ___CxxFrameHandler3
text$x	ENDS
?FindBaseGraphForDrawingVertScaleData@CVertScaleGroup@@QBEPAVCGraphImp@@XZ ENDP ; CVertScaleGroup::FindBaseGraphForDrawingVertScaleData
; Function compile flags: /Ogtp
; File D:\git\src\IBK\IBK_DRFN\ProjSrc\SrcChartEx\ChartOCX\ChartObject\VertScaleGroup.cpp
;	COMDAT ?Delete@CVertScaleGroup@@SAXPAV1@@Z
_TEXT	SEGMENT
_pVertScaleGroup$ = 8					; size = 4
?Delete@CVertScaleGroup@@SAXPAV1@@Z PROC		; CVertScaleGroup::Delete, COMDAT

; 261  : {

  00000	55		 push	 ebp
  00001	8b ec		 mov	 ebp, esp

; 262  : 	if( !pVertScaleGroup->m_bOnDestructor) delete pVertScaleGroup;

  00003	8b 4d 08	 mov	 ecx, DWORD PTR _pVertScaleGroup$[ebp]
  00006	83 79 04 00	 cmp	 DWORD PTR [ecx+4], 0
  0000a	75 07		 jne	 SHORT $LN4@Delete
  0000c	8b 01		 mov	 eax, DWORD PTR [ecx]
  0000e	6a 01		 push	 1
  00010	ff 50 04	 call	 DWORD PTR [eax+4]
$LN4@Delete:

; 263  : }

  00013	5d		 pop	 ebp
  00014	c3		 ret	 0
?Delete@CVertScaleGroup@@SAXPAV1@@Z ENDP		; CVertScaleGroup::Delete
_TEXT	ENDS
; Function compile flags: /Ogtp
; File D:\git\src\IBK\IBK_DRFN\ProjSrc\SrcChartEx\ChartOCX\ChartObject\VertScaleGroup.cpp
; File C:\Program Files (x86)\Microsoft Visual Studio\2019\Community\VC\Tools\MSVC\14.29.30133\atlmfc\include\afx.inl
; File D:\git\src\IBK\IBK_DRFN\ProjSrc\SrcChartEx\ChartOCX\ChartObject\VertScaleGroup.cpp
; File C:\Program Files (x86)\Microsoft Visual Studio\2019\Community\VC\Tools\MSVC\14.29.30133\atlmfc\include\afx.inl
; File D:\git\src\IBK\IBK_DRFN\ProjSrc\SrcChartEx\ChartOCX\ChartObject\VertScaleGroup.cpp
; File C:\Program Files (x86)\Microsoft Visual Studio\2019\Community\VC\Tools\MSVC\14.29.30133\atlmfc\include\afxtempl.h
; File D:\git\src\IBK\IBK_DRFN\ProjSrc\SrcChartEx\ChartOCX\ChartObject\VertScaleGroup.cpp
; File C:\Program Files (x86)\Microsoft Visual Studio\2019\Community\VC\Tools\MSVC\14.29.30133\atlmfc\include\afxtempl.h
; File D:\git\src\IBK\IBK_DRFN\ProjSrc\SrcChartEx\ChartOCX\ChartObject\VertScaleGroup.cpp
;	COMDAT ?MakeVertScaleGroup@CVertScaleGroup@@SAPAV1@PAVCMainBlockBaseData@@PAVCVertScaleGroupList@@ABVCVerticalScale@@@Z
_TEXT	SEGMENT
$T2 = -36						; size = 8
$T3 = -28						; size = 8
_this$ = -20						; size = 4
$T4 = -16						; size = 4
__$EHRec$ = -12						; size = 12
_pMainBlockBaseData$ = 8				; size = 4
_pVertScaleGroupList$ = 12				; size = 4
_vertScale$ = 16					; size = 4
?MakeVertScaleGroup@CVertScaleGroup@@SAPAV1@PAVCMainBlockBaseData@@PAVCVertScaleGroupList@@ABVCVerticalScale@@@Z PROC ; CVertScaleGroup::MakeVertScaleGroup, COMDAT

; 256  : {

  00000	55		 push	 ebp
  00001	8b ec		 mov	 ebp, esp
  00003	6a ff		 push	 -1
  00005	68 00 00 00 00	 push	 __ehhandler$?MakeVertScaleGroup@CVertScaleGroup@@SAPAV1@PAVCMainBlockBaseData@@PAVCVertScaleGroupList@@ABVCVerticalScale@@@Z
  0000a	64 a1 00 00 00
	00		 mov	 eax, DWORD PTR fs:0
  00010	50		 push	 eax
  00011	83 ec 18	 sub	 esp, 24			; 00000018H
  00014	56		 push	 esi
  00015	57		 push	 edi
  00016	a1 00 00 00 00	 mov	 eax, DWORD PTR ___security_cookie
  0001b	33 c5		 xor	 eax, ebp
  0001d	50		 push	 eax
  0001e	8d 45 f4	 lea	 eax, DWORD PTR __$EHRec$[ebp]
  00021	64 a3 00 00 00
	00		 mov	 DWORD PTR fs:0, eax
; File C:\Program Files (x86)\Microsoft Visual Studio\2019\Community\VC\Tools\MSVC\14.29.30133\atlmfc\include\afx.inl

; 116  : 	{ return ::operator new(nSize); }

  00027	68 a0 00 00 00	 push	 160			; 000000a0H
  0002c	e8 00 00 00 00	 call	 ??2@YAPAXI@Z		; operator new
; File D:\git\src\IBK\IBK_DRFN\ProjSrc\SrcChartEx\ChartOCX\ChartObject\VertScaleGroup.cpp

; 257  : 	return new CVertScaleGroup(pMainBlockBaseData, pVertScaleGroupList, vertScale);

  00031	8b f8		 mov	 edi, eax
; File C:\Program Files (x86)\Microsoft Visual Studio\2019\Community\VC\Tools\MSVC\14.29.30133\atlmfc\include\afx.inl

; 116  : 	{ return ::operator new(nSize); }

  00033	83 c4 04	 add	 esp, 4
; File D:\git\src\IBK\IBK_DRFN\ProjSrc\SrcChartEx\ChartOCX\ChartObject\VertScaleGroup.cpp

; 257  : 	return new CVertScaleGroup(pMainBlockBaseData, pVertScaleGroupList, vertScale);

  00036	89 7d f0	 mov	 DWORD PTR $T4[ebp], edi
  00039	c7 45 fc 00 00
	00 00		 mov	 DWORD PTR __$EHRec$[ebp+8], 0
  00040	85 ff		 test	 edi, edi
  00042	0f 84 9a 00 00
	00		 je	 $LN3@MakeVertSc

; 82   : 	m_pMainBlockBaseData(pMainBlockBaseData),

  00048	8b 45 08	 mov	 eax, DWORD PTR _pMainBlockBaseData$[ebp]

; 83   : 	m_pVertScaleGroupList(pVertScaleGroupList),
; 84   : 	m_vertScale(vertScale),

  0004b	8d 4f 10	 lea	 ecx, DWORD PTR [edi+16]
  0004e	ff 75 10	 push	 DWORD PTR _vertScale$[ebp]
  00051	89 47 08	 mov	 DWORD PTR [edi+8], eax
  00054	8b 45 0c	 mov	 eax, DWORD PTR _pVertScaleGroupList$[ebp]
  00057	c7 07 00 00 00
	00		 mov	 DWORD PTR [edi], OFFSET ??_7CVertScaleGroup@@6B@
  0005d	89 47 0c	 mov	 DWORD PTR [edi+12], eax
  00060	ff 15 00 00 00
	00		 call	 DWORD PTR __imp_??0CVerticalScale@@QAE@ABV0@@Z

; 85   : 	m_displayDataMinMax(-20.0, 20.0),

  00066	f2 0f 10 05 00
	00 00 00	 movsd	 xmm0, QWORD PTR __real@4034000000000000
  0006e	8d 45 e4	 lea	 eax, DWORD PTR $T3[ebp]
  00071	50		 push	 eax
  00072	f2 0f 11 45 e4	 movsd	 QWORD PTR $T3[ebp], xmm0
  00077	8d 45 dc	 lea	 eax, DWORD PTR $T2[ebp]
  0007a	f2 0f 10 05 00
	00 00 00	 movsd	 xmm0, QWORD PTR __real@c034000000000000
  00082	8d 4f 68	 lea	 ecx, DWORD PTR [edi+104]
  00085	50		 push	 eax
  00086	c6 45 fc 01	 mov	 BYTE PTR __$EHRec$[ebp+8], 1
  0008a	f2 0f 11 45 dc	 movsd	 QWORD PTR $T2[ebp], xmm0
  0008f	ff 15 00 00 00
	00		 call	 DWORD PTR __imp_??0CDisplayDataMinMax@@QAE@ABN0@Z

; 87   : {

  00095	8d 77 78	 lea	 esi, DWORD PTR [edi+120]
; File C:\Program Files (x86)\Microsoft Visual Studio\2019\Community\VC\Tools\MSVC\14.29.30133\atlmfc\include\afxtempl.h

; 1876 : 		: BASE_CLASS(nBlockSize) { }

  00098	6a 0a		 push	 10			; 0000000aH
  0009a	8b ce		 mov	 ecx, esi
; File D:\git\src\IBK\IBK_DRFN\ProjSrc\SrcChartEx\ChartOCX\ChartObject\VertScaleGroup.cpp

; 87   : {

  0009c	89 75 ec	 mov	 DWORD PTR _this$[ebp], esi
; File C:\Program Files (x86)\Microsoft Visual Studio\2019\Community\VC\Tools\MSVC\14.29.30133\atlmfc\include\afxtempl.h

; 1876 : 		: BASE_CLASS(nBlockSize) { }

  0009f	e8 00 00 00 00	 call	 ??0CObList@@QAE@H@Z	; CObList::CObList

; 1953 : 		: _CTypedPtrList<BASE_CLASS, TYPE>(nBlockSize) { }

  000a4	c7 06 00 00 00
	00		 mov	 DWORD PTR [esi], OFFSET ??_7?$CTypedPtrList@VCObList@@PAVCGraphImp@@@@6B@
; File D:\git\src\IBK\IBK_DRFN\ProjSrc\SrcChartEx\ChartOCX\ChartObject\VertScaleGroup.cpp

; 257  : 	return new CVertScaleGroup(pMainBlockBaseData, pVertScaleGroupList, vertScale);

  000aa	8b c7		 mov	 eax, edi

; 86   : 	m_lpSelectedGraph(NULL)		// Y Scale    - ojtaso (20070807)

  000ac	c7 87 94 00 00
	00 00 00 00 00	 mov	 DWORD PTR [edi+148], 0

; 88   : 	// (2007/2/16 - Seung-Won, Bae) Protect the redestructing on Destructor.
; 89   : 	m_bOnDestructor = FALSE;

  000b6	c7 47 04 00 00
	00 00		 mov	 DWORD PTR [edi+4], 0

; 90   : 
; 91   : 	// (2007/1/14 - Seung-Won, Bae) Get the Base Packet for Default Scale Min/Max
; 92   : 	m_pBaseGraph	= NULL;

  000bd	c7 87 98 00 00
	00 00 00 00 00	 mov	 DWORD PTR [edi+152], 0

; 93   : 	m_pBasePacket	= NULL;

  000c7	c7 87 9c 00 00
	00 00 00 00 00	 mov	 DWORD PTR [edi+156], 0

; 258  : }

  000d1	8b 4d f4	 mov	 ecx, DWORD PTR __$EHRec$[ebp]
  000d4	64 89 0d 00 00
	00 00		 mov	 DWORD PTR fs:0, ecx
  000db	59		 pop	 ecx
  000dc	5f		 pop	 edi
  000dd	5e		 pop	 esi
  000de	8b e5		 mov	 esp, ebp
  000e0	5d		 pop	 ebp
  000e1	c3		 ret	 0
$LN3@MakeVertSc:

; 257  : 	return new CVertScaleGroup(pMainBlockBaseData, pVertScaleGroupList, vertScale);

  000e2	33 c0		 xor	 eax, eax

; 258  : }

  000e4	8b 4d f4	 mov	 ecx, DWORD PTR __$EHRec$[ebp]
  000e7	64 89 0d 00 00
	00 00		 mov	 DWORD PTR fs:0, ecx
  000ee	59		 pop	 ecx
  000ef	5f		 pop	 edi
  000f0	5e		 pop	 esi
  000f1	8b e5		 mov	 esp, ebp
  000f3	5d		 pop	 ebp
  000f4	c3		 ret	 0
_TEXT	ENDS
;	COMDAT text$x
text$x	SEGMENT
__unwindfunclet$?MakeVertScaleGroup@CVertScaleGroup@@SAPAV1@PAVCMainBlockBaseData@@PAVCVertScaleGroupList@@ABVCVerticalScale@@@Z$0:
  00000	8b 45 f0	 mov	 eax, DWORD PTR $T4[ebp]
  00003	50		 push	 eax
  00004	e8 00 00 00 00	 call	 ??3CObject@@SGXPAX@Z	; CObject::operator delete
  00009	c3		 ret	 0
__unwindfunclet$?MakeVertScaleGroup@CVertScaleGroup@@SAPAV1@PAVCMainBlockBaseData@@PAVCVertScaleGroupList@@ABVCVerticalScale@@@Z$1:
  0000a	8b 4d f0	 mov	 ecx, DWORD PTR $T4[ebp]
  0000d	83 c1 10	 add	 ecx, 16			; 00000010H
  00010	ff 25 00 00 00
	00		 jmp	 DWORD PTR __imp_??1CVerticalScale@@QAE@XZ
  00016	cc		 int	 3
  00017	cc		 int	 3
  00018	cc		 int	 3
  00019	cc		 int	 3
  0001a	cc		 int	 3
__ehhandler$?MakeVertScaleGroup@CVertScaleGroup@@SAPAV1@PAVCMainBlockBaseData@@PAVCVertScaleGroupList@@ABVCVerticalScale@@@Z:
  0001b	90		 npad	 1
  0001c	90		 npad	 1
  0001d	8b 54 24 08	 mov	 edx, DWORD PTR [esp+8]
  00021	8d 42 0c	 lea	 eax, DWORD PTR [edx+12]
  00024	8b 4a dc	 mov	 ecx, DWORD PTR [edx-36]
  00027	33 c8		 xor	 ecx, eax
  00029	e8 00 00 00 00	 call	 @__security_check_cookie@4
  0002e	b8 00 00 00 00	 mov	 eax, OFFSET __ehfuncinfo$?MakeVertScaleGroup@CVertScaleGroup@@SAPAV1@PAVCMainBlockBaseData@@PAVCVertScaleGroupList@@ABVCVerticalScale@@@Z
  00033	e9 00 00 00 00	 jmp	 ___CxxFrameHandler3
text$x	ENDS
?MakeVertScaleGroup@CVertScaleGroup@@SAPAV1@PAVCMainBlockBaseData@@PAVCVertScaleGroupList@@ABVCVerticalScale@@@Z ENDP ; CVertScaleGroup::MakeVertScaleGroup
; Function compile flags: /Ogtp
; File D:\git\src\IBK\IBK_DRFN\ProjSrc\SrcChartEx\ChartOCX\ChartObject\VertScaleGroup.cpp
; File C:\Program Files (x86)\Microsoft Visual Studio\2019\Community\VC\Tools\MSVC\14.29.30133\atlmfc\include\afx.inl
; File D:\git\src\IBK\IBK_DRFN\ProjSrc\SrcChartEx\ChartOCX\ChartObject\VertScaleGroup.cpp
; File C:\Program Files (x86)\Microsoft Visual Studio\2019\Community\VC\Tools\MSVC\14.29.30133\atlmfc\include\afx.inl
; File D:\git\src\IBK\IBK_DRFN\ProjSrc\SrcChartEx\ChartOCX\ChartObject\VertScaleGroup.cpp
; File C:\Program Files (x86)\Microsoft Visual Studio\2019\Community\VC\Tools\MSVC\14.29.30133\atlmfc\include\afxtempl.h
; File D:\git\src\IBK\IBK_DRFN\ProjSrc\SrcChartEx\ChartOCX\ChartObject\VertScaleGroup.cpp
; File C:\Program Files (x86)\Microsoft Visual Studio\2019\Community\VC\Tools\MSVC\14.29.30133\atlmfc\include\afxtempl.h
; File D:\git\src\IBK\IBK_DRFN\ProjSrc\SrcChartEx\ChartOCX\ChartObject\VertScaleGroup.cpp
;	COMDAT ?MakeVertScaleGroup@CVertScaleGroup@@SAPAV1@PAXPAVCMainBlockBaseData@@PAVCVertScaleGroupList@@PAD@Z
_TEXT	SEGMENT
$T2 = -36						; size = 8
$T3 = -28						; size = 8
_this$ = -20						; size = 4
$T4 = -16						; size = 4
__$EHRec$ = -12						; size = 12
_pPacketRQ$ = 8						; size = 4
_pMainBlockBaseData$ = 12				; size = 4
_pVertScaleGroupList$ = 16				; size = 4
_p_szVertScaleGroup$ = 20				; size = 4
?MakeVertScaleGroup@CVertScaleGroup@@SAPAV1@PAXPAVCMainBlockBaseData@@PAVCVertScaleGroupList@@PAD@Z PROC ; CVertScaleGroup::MakeVertScaleGroup, COMDAT

; 251  : {

  00000	55		 push	 ebp
  00001	8b ec		 mov	 ebp, esp
  00003	6a ff		 push	 -1
  00005	68 00 00 00 00	 push	 __ehhandler$?MakeVertScaleGroup@CVertScaleGroup@@SAPAV1@PAXPAVCMainBlockBaseData@@PAVCVertScaleGroupList@@PAD@Z
  0000a	64 a1 00 00 00
	00		 mov	 eax, DWORD PTR fs:0
  00010	50		 push	 eax
  00011	83 ec 18	 sub	 esp, 24			; 00000018H
  00014	56		 push	 esi
  00015	57		 push	 edi
  00016	a1 00 00 00 00	 mov	 eax, DWORD PTR ___security_cookie
  0001b	33 c5		 xor	 eax, ebp
  0001d	50		 push	 eax
  0001e	8d 45 f4	 lea	 eax, DWORD PTR __$EHRec$[ebp]
  00021	64 a3 00 00 00
	00		 mov	 DWORD PTR fs:0, eax
; File C:\Program Files (x86)\Microsoft Visual Studio\2019\Community\VC\Tools\MSVC\14.29.30133\atlmfc\include\afx.inl

; 116  : 	{ return ::operator new(nSize); }

  00027	68 a0 00 00 00	 push	 160			; 000000a0H
  0002c	e8 00 00 00 00	 call	 ??2@YAPAXI@Z		; operator new
; File D:\git\src\IBK\IBK_DRFN\ProjSrc\SrcChartEx\ChartOCX\ChartObject\VertScaleGroup.cpp

; 252  : 	return new CVertScaleGroup(pPacketRQ, pMainBlockBaseData, pVertScaleGroupList, p_szVertScaleGroup);

  00031	8b f8		 mov	 edi, eax
; File C:\Program Files (x86)\Microsoft Visual Studio\2019\Community\VC\Tools\MSVC\14.29.30133\atlmfc\include\afx.inl

; 116  : 	{ return ::operator new(nSize); }

  00033	83 c4 04	 add	 esp, 4
; File D:\git\src\IBK\IBK_DRFN\ProjSrc\SrcChartEx\ChartOCX\ChartObject\VertScaleGroup.cpp

; 252  : 	return new CVertScaleGroup(pPacketRQ, pMainBlockBaseData, pVertScaleGroupList, p_szVertScaleGroup);

  00036	89 7d f0	 mov	 DWORD PTR $T4[ebp], edi
  00039	c7 45 fc 00 00
	00 00		 mov	 DWORD PTR __$EHRec$[ebp+8], 0
  00040	85 ff		 test	 edi, edi
  00042	0f 84 9b 00 00
	00		 je	 $LN3@MakeVertSc

; 65   : 	m_pMainBlockBaseData(pMainBlockBaseData),

  00048	8b 45 0c	 mov	 eax, DWORD PTR _pMainBlockBaseData$[ebp]

; 69   : {

  0004b	8d 4f 10	 lea	 ecx, DWORD PTR [edi+16]
  0004e	89 47 08	 mov	 DWORD PTR [edi+8], eax
  00051	8b 45 10	 mov	 eax, DWORD PTR _pVertScaleGroupList$[ebp]
  00054	c7 07 00 00 00
	00		 mov	 DWORD PTR [edi], OFFSET ??_7CVertScaleGroup@@6B@
  0005a	89 47 0c	 mov	 DWORD PTR [edi+12], eax
  0005d	ff 15 00 00 00
	00		 call	 DWORD PTR __imp_??0CVerticalScale@@QAE@XZ
  00063	8d 45 e4	 lea	 eax, DWORD PTR $T3[ebp]
  00066	c6 45 fc 01	 mov	 BYTE PTR __$EHRec$[ebp+8], 1
  0006a	50		 push	 eax
  0006b	0f 57 c0	 xorps	 xmm0, xmm0

; 66   : 	m_pVertScaleGroupList(pVertScaleGroupList),
; 67   : 	m_displayDataMinMax( 0, 0),

  0006e	8d 45 dc	 lea	 eax, DWORD PTR $T2[ebp]
  00071	50		 push	 eax
  00072	8d 4f 68	 lea	 ecx, DWORD PTR [edi+104]
  00075	f2 0f 11 45 e4	 movsd	 QWORD PTR $T3[ebp], xmm0
  0007a	f2 0f 11 45 dc	 movsd	 QWORD PTR $T2[ebp], xmm0
  0007f	ff 15 00 00 00
	00		 call	 DWORD PTR __imp_??0CDisplayDataMinMax@@QAE@ABN0@Z

; 69   : {

  00085	8d 77 78	 lea	 esi, DWORD PTR [edi+120]
; File C:\Program Files (x86)\Microsoft Visual Studio\2019\Community\VC\Tools\MSVC\14.29.30133\atlmfc\include\afxtempl.h

; 1876 : 		: BASE_CLASS(nBlockSize) { }

  00088	6a 0a		 push	 10			; 0000000aH
  0008a	8b ce		 mov	 ecx, esi
; File D:\git\src\IBK\IBK_DRFN\ProjSrc\SrcChartEx\ChartOCX\ChartObject\VertScaleGroup.cpp

; 69   : {

  0008c	89 75 ec	 mov	 DWORD PTR _this$[ebp], esi
; File C:\Program Files (x86)\Microsoft Visual Studio\2019\Community\VC\Tools\MSVC\14.29.30133\atlmfc\include\afxtempl.h

; 1876 : 		: BASE_CLASS(nBlockSize) { }

  0008f	e8 00 00 00 00	 call	 ??0CObList@@QAE@H@Z	; CObList::CObList

; 1953 : 		: _CTypedPtrList<BASE_CLASS, TYPE>(nBlockSize) { }

  00094	c7 06 00 00 00
	00		 mov	 DWORD PTR [esi], OFFSET ??_7?$CTypedPtrList@VCObList@@PAVCGraphImp@@@@6B@
; File D:\git\src\IBK\IBK_DRFN\ProjSrc\SrcChartEx\ChartOCX\ChartObject\VertScaleGroup.cpp

; 77   : 	MakeGraphs(pPacketRQ, p_szVertScaleGroup);

  0009a	ff 75 14	 push	 DWORD PTR _p_szVertScaleGroup$[ebp]
  0009d	8b cf		 mov	 ecx, edi
  0009f	c6 45 fc 02	 mov	 BYTE PTR __$EHRec$[ebp+8], 2
  000a3	ff 75 08	 push	 DWORD PTR _pPacketRQ$[ebp]
  000a6	c7 87 94 00 00
	00 00 00 00 00	 mov	 DWORD PTR [edi+148], 0
  000b0	c7 47 04 00 00
	00 00		 mov	 DWORD PTR [edi+4], 0
  000b7	c7 87 98 00 00
	00 00 00 00 00	 mov	 DWORD PTR [edi+152], 0
  000c1	c7 87 9c 00 00
	00 00 00 00 00	 mov	 DWORD PTR [edi+156], 0
  000cb	e8 00 00 00 00	 call	 ?MakeGraphs@CVertScaleGroup@@QAEXPAXPAD@Z ; CVertScaleGroup::MakeGraphs

; 252  : 	return new CVertScaleGroup(pPacketRQ, pMainBlockBaseData, pVertScaleGroupList, p_szVertScaleGroup);

  000d0	8b c7		 mov	 eax, edi

; 253  : }

  000d2	8b 4d f4	 mov	 ecx, DWORD PTR __$EHRec$[ebp]
  000d5	64 89 0d 00 00
	00 00		 mov	 DWORD PTR fs:0, ecx
  000dc	59		 pop	 ecx
  000dd	5f		 pop	 edi
  000de	5e		 pop	 esi
  000df	8b e5		 mov	 esp, ebp
  000e1	5d		 pop	 ebp
  000e2	c3		 ret	 0
$LN3@MakeVertSc:

; 252  : 	return new CVertScaleGroup(pPacketRQ, pMainBlockBaseData, pVertScaleGroupList, p_szVertScaleGroup);

  000e3	33 c0		 xor	 eax, eax

; 253  : }

  000e5	8b 4d f4	 mov	 ecx, DWORD PTR __$EHRec$[ebp]
  000e8	64 89 0d 00 00
	00 00		 mov	 DWORD PTR fs:0, ecx
  000ef	59		 pop	 ecx
  000f0	5f		 pop	 edi
  000f1	5e		 pop	 esi
  000f2	8b e5		 mov	 esp, ebp
  000f4	5d		 pop	 ebp
  000f5	c3		 ret	 0
_TEXT	ENDS
;	COMDAT text$x
text$x	SEGMENT
__unwindfunclet$?MakeVertScaleGroup@CVertScaleGroup@@SAPAV1@PAXPAVCMainBlockBaseData@@PAVCVertScaleGroupList@@PAD@Z$0:
  00000	8b 45 f0	 mov	 eax, DWORD PTR $T4[ebp]
  00003	50		 push	 eax
  00004	e8 00 00 00 00	 call	 ??3CObject@@SGXPAX@Z	; CObject::operator delete
  00009	c3		 ret	 0
__unwindfunclet$?MakeVertScaleGroup@CVertScaleGroup@@SAPAV1@PAXPAVCMainBlockBaseData@@PAVCVertScaleGroupList@@PAD@Z$1:
  0000a	8b 4d f0	 mov	 ecx, DWORD PTR $T4[ebp]
  0000d	83 c1 10	 add	 ecx, 16			; 00000010H
  00010	ff 25 00 00 00
	00		 jmp	 DWORD PTR __imp_??1CVerticalScale@@QAE@XZ
__unwindfunclet$?MakeVertScaleGroup@CVertScaleGroup@@SAPAV1@PAXPAVCMainBlockBaseData@@PAVCVertScaleGroupList@@PAD@Z$2:
  00016	8b 4d f0	 mov	 ecx, DWORD PTR $T4[ebp]
  00019	83 c1 78	 add	 ecx, 120		; 00000078H
  0001c	e9 00 00 00 00	 jmp	 ??1?$CTypedPtrList@VCObList@@PAVCGraphImp@@@@UAE@XZ
  00021	cc		 int	 3
  00022	cc		 int	 3
  00023	cc		 int	 3
  00024	cc		 int	 3
  00025	cc		 int	 3
__ehhandler$?MakeVertScaleGroup@CVertScaleGroup@@SAPAV1@PAXPAVCMainBlockBaseData@@PAVCVertScaleGroupList@@PAD@Z:
  00026	90		 npad	 1
  00027	90		 npad	 1
  00028	8b 54 24 08	 mov	 edx, DWORD PTR [esp+8]
  0002c	8d 42 0c	 lea	 eax, DWORD PTR [edx+12]
  0002f	8b 4a dc	 mov	 ecx, DWORD PTR [edx-36]
  00032	33 c8		 xor	 ecx, eax
  00034	e8 00 00 00 00	 call	 @__security_check_cookie@4
  00039	b8 00 00 00 00	 mov	 eax, OFFSET __ehfuncinfo$?MakeVertScaleGroup@CVertScaleGroup@@SAPAV1@PAXPAVCMainBlockBaseData@@PAVCVertScaleGroupList@@PAD@Z
  0003e	e9 00 00 00 00	 jmp	 ___CxxFrameHandler3
text$x	ENDS
?MakeVertScaleGroup@CVertScaleGroup@@SAPAV1@PAXPAVCMainBlockBaseData@@PAVCVertScaleGroupList@@PAD@Z ENDP ; CVertScaleGroup::MakeVertScaleGroup
; Function compile flags: /Ogtp
; File D:\git\src\IBK\IBK_DRFN\ProjSrc\SrcChartEx\ChartOCX\ChartObject\VertScaleGroup.cpp
; File C:\Program Files (x86)\Microsoft Visual Studio\2019\Community\VC\Tools\MSVC\14.29.30133\atlmfc\include\afx.inl
; File D:\git\src\IBK\IBK_DRFN\ProjSrc\SrcChartEx\ChartOCX\ChartObject\VertScaleGroup.cpp
; File C:\Program Files (x86)\Microsoft Visual Studio\2019\Community\VC\Tools\MSVC\14.29.30133\atlmfc\include\afx.inl
; File D:\git\src\IBK\IBK_DRFN\ProjSrc\SrcChartEx\ChartOCX\ChartObject\VertScaleGroup.cpp
; File C:\Program Files (x86)\Microsoft Visual Studio\2019\Community\VC\Tools\MSVC\14.29.30133\atlmfc\include\afxtempl.h
; File D:\git\src\IBK\IBK_DRFN\ProjSrc\SrcChartEx\ChartOCX\ChartObject\VertScaleGroup.cpp
; File C:\Program Files (x86)\Microsoft Visual Studio\2019\Community\VC\Tools\MSVC\14.29.30133\atlmfc\include\afxtempl.h
; File D:\git\src\IBK\IBK_DRFN\ProjSrc\SrcChartEx\ChartOCX\ChartObject\VertScaleGroup.cpp
; File C:\Program Files (x86)\Windows Kits\10\Include\10.0.22000.0\ucrt\string.h
; File D:\git\src\IBK\IBK_DRFN\ProjSrc\SrcChartEx\ChartOCX\ChartObject\VertScaleGroup.cpp
; File C:\Program Files (x86)\Windows Kits\10\Include\10.0.22000.0\ucrt\string.h
; File D:\git\src\IBK\IBK_DRFN\ProjSrc\SrcChartEx\ChartOCX\ChartObject\VertScaleGroup.cpp
; File C:\Program Files (x86)\Windows Kits\10\Include\10.0.22000.0\ucrt\string.h
; File D:\git\src\IBK\IBK_DRFN\ProjSrc\SrcChartEx\ChartOCX\ChartObject\VertScaleGroup.cpp
; File C:\Program Files (x86)\Windows Kits\10\Include\10.0.22000.0\ucrt\string.h
; File D:\git\src\IBK\IBK_DRFN\ProjSrc\SrcChartEx\ChartOCX\ChartObject\VertScaleGroup.cpp
; File C:\Program Files (x86)\Windows Kits\10\Include\10.0.22000.0\ucrt\string.h
; File D:\git\src\IBK\IBK_DRFN\ProjSrc\SrcChartEx\ChartOCX\ChartObject\VertScaleGroup.cpp
; File C:\Program Files (x86)\Windows Kits\10\Include\10.0.22000.0\ucrt\string.h
; File D:\git\src\IBK\IBK_DRFN\ProjSrc\SrcChartEx\ChartOCX\ChartObject\VertScaleGroup.cpp
; File C:\Program Files (x86)\Windows Kits\10\Include\10.0.22000.0\ucrt\string.h
; File D:\git\src\IBK\IBK_DRFN\ProjSrc\SrcChartEx\ChartOCX\ChartObject\VertScaleGroup.cpp
; File C:\Program Files (x86)\Windows Kits\10\Include\10.0.22000.0\ucrt\string.h
; File D:\git\src\IBK\IBK_DRFN\ProjSrc\SrcChartEx\ChartOCX\ChartObject\VertScaleGroup.cpp
; File C:\Program Files (x86)\Windows Kits\10\Include\10.0.22000.0\ucrt\string.h
; File D:\git\src\IBK\IBK_DRFN\ProjSrc\SrcChartEx\ChartOCX\ChartObject\VertScaleGroup.cpp
; File C:\Program Files (x86)\Windows Kits\10\Include\10.0.22000.0\ucrt\string.h
; File D:\git\src\IBK\IBK_DRFN\ProjSrc\SrcChartEx\ChartOCX\ChartObject\VertScaleGroup.cpp
;	COMDAT ?MakeVertScaleGroup@CVertScaleGroup@@SAPAV1@PAVCMainBlockBaseData@@PAVCVertScaleGroupList@@PAD@Z
_TEXT	SEGMENT
$T2 = -40						; size = 8
$T3 = -32						; size = 8
_this$ = -24						; size = 4
$T4 = -20						; size = 4
_cGraphEnd$1$ = -13					; size = 1
__$EHRec$ = -12						; size = 12
_pMainBlockBaseData$ = 8				; size = 4
_pVertScaleGroupList$ = 12				; size = 4
_p_szVertScaleGroup$ = 16				; size = 4
?MakeVertScaleGroup@CVertScaleGroup@@SAPAV1@PAVCMainBlockBaseData@@PAVCVertScaleGroupList@@PAD@Z PROC ; CVertScaleGroup::MakeVertScaleGroup, COMDAT

; 245  : {

  00000	55		 push	 ebp
  00001	8b ec		 mov	 ebp, esp
  00003	6a ff		 push	 -1
  00005	68 00 00 00 00	 push	 __ehhandler$?MakeVertScaleGroup@CVertScaleGroup@@SAPAV1@PAVCMainBlockBaseData@@PAVCVertScaleGroupList@@PAD@Z
  0000a	64 a1 00 00 00
	00		 mov	 eax, DWORD PTR fs:0
  00010	50		 push	 eax
  00011	83 ec 1c	 sub	 esp, 28			; 0000001cH
  00014	53		 push	 ebx
  00015	56		 push	 esi
  00016	57		 push	 edi
  00017	a1 00 00 00 00	 mov	 eax, DWORD PTR ___security_cookie
  0001c	33 c5		 xor	 eax, ebp
  0001e	50		 push	 eax
  0001f	8d 45 f4	 lea	 eax, DWORD PTR __$EHRec$[ebp]
  00022	64 a3 00 00 00
	00		 mov	 DWORD PTR fs:0, eax
; File C:\Program Files (x86)\Microsoft Visual Studio\2019\Community\VC\Tools\MSVC\14.29.30133\atlmfc\include\afx.inl

; 116  : 	{ return ::operator new(nSize); }

  00028	68 a0 00 00 00	 push	 160			; 000000a0H
  0002d	e8 00 00 00 00	 call	 ??2@YAPAXI@Z		; operator new
; File D:\git\src\IBK\IBK_DRFN\ProjSrc\SrcChartEx\ChartOCX\ChartObject\VertScaleGroup.cpp

; 246  : 	return new CVertScaleGroup(pMainBlockBaseData, pVertScaleGroupList, p_szVertScaleGroup);

  00032	8b d8		 mov	 ebx, eax
; File C:\Program Files (x86)\Microsoft Visual Studio\2019\Community\VC\Tools\MSVC\14.29.30133\atlmfc\include\afx.inl

; 116  : 	{ return ::operator new(nSize); }

  00034	83 c4 04	 add	 esp, 4
; File D:\git\src\IBK\IBK_DRFN\ProjSrc\SrcChartEx\ChartOCX\ChartObject\VertScaleGroup.cpp

; 246  : 	return new CVertScaleGroup(pMainBlockBaseData, pVertScaleGroupList, p_szVertScaleGroup);

  00037	89 5d ec	 mov	 DWORD PTR $T4[ebp], ebx
  0003a	c7 45 fc 00 00
	00 00		 mov	 DWORD PTR __$EHRec$[ebp+8], 0
  00041	85 db		 test	 ebx, ebx
  00043	0f 84 25 01 00
	00		 je	 $LN3@MakeVertSc

; 48   : 	m_pMainBlockBaseData(pMainBlockBaseData),

  00049	8b 45 08	 mov	 eax, DWORD PTR _pMainBlockBaseData$[ebp]

; 52   : {

  0004c	8d 4b 10	 lea	 ecx, DWORD PTR [ebx+16]
  0004f	89 43 08	 mov	 DWORD PTR [ebx+8], eax
  00052	8b 45 0c	 mov	 eax, DWORD PTR _pVertScaleGroupList$[ebp]
  00055	c7 03 00 00 00
	00		 mov	 DWORD PTR [ebx], OFFSET ??_7CVertScaleGroup@@6B@
  0005b	89 43 0c	 mov	 DWORD PTR [ebx+12], eax
  0005e	ff 15 00 00 00
	00		 call	 DWORD PTR __imp_??0CVerticalScale@@QAE@XZ
  00064	8d 45 e0	 lea	 eax, DWORD PTR $T3[ebp]
  00067	c6 45 fc 01	 mov	 BYTE PTR __$EHRec$[ebp+8], 1
  0006b	50		 push	 eax
  0006c	0f 57 c0	 xorps	 xmm0, xmm0

; 49   : 	m_pVertScaleGroupList(pVertScaleGroupList),
; 50   : 	m_displayDataMinMax( 0, 0),

  0006f	8d 45 d8	 lea	 eax, DWORD PTR $T2[ebp]
  00072	50		 push	 eax
  00073	8d 4b 68	 lea	 ecx, DWORD PTR [ebx+104]
  00076	f2 0f 11 45 e0	 movsd	 QWORD PTR $T3[ebp], xmm0
  0007b	f2 0f 11 45 d8	 movsd	 QWORD PTR $T2[ebp], xmm0
  00080	ff 15 00 00 00
	00		 call	 DWORD PTR __imp_??0CDisplayDataMinMax@@QAE@ABN0@Z

; 52   : {

  00086	8d 73 78	 lea	 esi, DWORD PTR [ebx+120]
; File C:\Program Files (x86)\Microsoft Visual Studio\2019\Community\VC\Tools\MSVC\14.29.30133\atlmfc\include\afxtempl.h

; 1876 : 		: BASE_CLASS(nBlockSize) { }

  00089	6a 0a		 push	 10			; 0000000aH
  0008b	8b ce		 mov	 ecx, esi
; File D:\git\src\IBK\IBK_DRFN\ProjSrc\SrcChartEx\ChartOCX\ChartObject\VertScaleGroup.cpp

; 52   : {

  0008d	89 75 e8	 mov	 DWORD PTR _this$[ebp], esi
; File C:\Program Files (x86)\Microsoft Visual Studio\2019\Community\VC\Tools\MSVC\14.29.30133\atlmfc\include\afxtempl.h

; 1876 : 		: BASE_CLASS(nBlockSize) { }

  00090	e8 00 00 00 00	 call	 ??0CObList@@QAE@H@Z	; CObList::CObList

; 1953 : 		: _CTypedPtrList<BASE_CLASS, TYPE>(nBlockSize) { }

  00095	c7 06 00 00 00
	00		 mov	 DWORD PTR [esi], OFFSET ??_7?$CTypedPtrList@VCObList@@PAVCGraphImp@@@@6B@
; File D:\git\src\IBK\IBK_DRFN\ProjSrc\SrcChartEx\ChartOCX\ChartObject\VertScaleGroup.cpp

; 277  : 	DeleteAll();

  0009b	8b cb		 mov	 ecx, ebx

; 52   : {

  0009d	c6 45 fc 02	 mov	 BYTE PTR __$EHRec$[ebp+8], 2

; 51   : 	m_lpSelectedGraph(NULL)		// Y Scale    - ojtaso (20070807)

  000a1	c7 83 94 00 00
	00 00 00 00 00	 mov	 DWORD PTR [ebx+148], 0

; 53   : 	// (2007/2/16 - Seung-Won, Bae) Protect the redestructing on Destructor.
; 54   : 	m_bOnDestructor = FALSE;

  000ab	c7 43 04 00 00
	00 00		 mov	 DWORD PTR [ebx+4], 0

; 55   : 
; 56   : 	// (2007/1/14 - Seung-Won, Bae) Get the Base Packet for Default Scale Min/Max
; 57   : 	m_pBaseGraph	= NULL;

  000b2	c7 83 98 00 00
	00 00 00 00 00	 mov	 DWORD PTR [ebx+152], 0

; 58   : 	m_pBasePacket	= NULL;

  000bc	c7 83 9c 00 00
	00 00 00 00 00	 mov	 DWORD PTR [ebx+156], 0

; 277  : 	DeleteAll();

  000c6	e8 00 00 00 00	 call	 ?DeleteAll@CVertScaleGroup@@QAEXXZ ; CVertScaleGroup::DeleteAll
; File C:\Program Files (x86)\Windows Kits\10\Include\10.0.22000.0\ucrt\string.h

; 520  :         return const_cast<char*>(strstr(static_cast<char const*>(_String), _SubString));

  000cb	68 00 00 00 00	 push	 OFFSET ??_C@_02PCIJFNDE@?$AN?6@
  000d0	ff 75 10	 push	 DWORD PTR _p_szVertScaleGroup$[ebp]
  000d3	e8 00 00 00 00	 call	 _strstr
; File D:\git\src\IBK\IBK_DRFN\ProjSrc\SrcChartEx\ChartOCX\ChartObject\VertScaleGroup.cpp

; 279  : 	char *szGraph = strstr( p_szVertScaleGroup, "\r\n");

  000d8	8b f8		 mov	 edi, eax
; File C:\Program Files (x86)\Windows Kits\10\Include\10.0.22000.0\ucrt\string.h

; 520  :         return const_cast<char*>(strstr(static_cast<char const*>(_String), _SubString));

  000da	83 c4 08	 add	 esp, 8
; File D:\git\src\IBK\IBK_DRFN\ProjSrc\SrcChartEx\ChartOCX\ChartObject\VertScaleGroup.cpp

; 280  : 	if( !szGraph) return;

  000dd	85 ff		 test	 edi, edi
  000df	74 79		 je	 SHORT $LN38@MakeVertSc

; 281  : 	*szGraph = '\0';

  000e1	c6 07 00	 mov	 BYTE PTR [edi], 0

; 282  : 
; 283  : 	m_vertScale.SetScaleData( p_szVertScaleGroup, m_pMainBlockBaseData->GetParent_Handle());

  000e4	8b 4b 08	 mov	 ecx, DWORD PTR [ebx+8]
  000e7	8b 73 10	 mov	 esi, DWORD PTR [ebx+16]
  000ea	e8 00 00 00 00	 call	 ?GetParent_Handle@CMainBlockBaseData@@QBEPAUHWND__@@XZ ; CMainBlockBaseData::GetParent_Handle
  000ef	50		 push	 eax
  000f0	ff 75 10	 push	 DWORD PTR _p_szVertScaleGroup$[ebp]
  000f3	8d 4b 10	 lea	 ecx, DWORD PTR [ebx+16]
  000f6	ff 16		 call	 DWORD PTR [esi]
; File C:\Program Files (x86)\Windows Kits\10\Include\10.0.22000.0\ucrt\string.h

; 520  :         return const_cast<char*>(strstr(static_cast<char const*>(_String), _SubString));

  000f8	68 00 00 00 00	 push	 OFFSET ??_C@_08BHMMGBBH@Graph?$DL?$AN?6@
  000fd	57		 push	 edi
; File D:\git\src\IBK\IBK_DRFN\ProjSrc\SrcChartEx\ChartOCX\ChartObject\VertScaleGroup.cpp

; 284  : 	*szGraph = '\r';

  000fe	c6 07 0d	 mov	 BYTE PTR [edi], 13	; 0000000dH

; 285  : 
; 286  : 	char cGraphEnd = 0;

  00101	c6 45 f3 00	 mov	 BYTE PTR _cGraphEnd$1$[ebp], 0
; File C:\Program Files (x86)\Windows Kits\10\Include\10.0.22000.0\ucrt\string.h

; 520  :         return const_cast<char*>(strstr(static_cast<char const*>(_String), _SubString));

  00105	e8 00 00 00 00	 call	 _strstr
; File D:\git\src\IBK\IBK_DRFN\ProjSrc\SrcChartEx\ChartOCX\ChartObject\VertScaleGroup.cpp

; 288  : 	szGraph = strstr( szGraph, "Graph;\r\n");

  0010a	8b f8		 mov	 edi, eax
; File C:\Program Files (x86)\Windows Kits\10\Include\10.0.22000.0\ucrt\string.h

; 520  :         return const_cast<char*>(strstr(static_cast<char const*>(_String), _SubString));

  0010c	83 c4 08	 add	 esp, 8
; File D:\git\src\IBK\IBK_DRFN\ProjSrc\SrcChartEx\ChartOCX\ChartObject\VertScaleGroup.cpp

; 289  : 	while( szGraph)

  0010f	85 ff		 test	 edi, edi
  00111	74 47		 je	 SHORT $LN38@MakeVertSc
$LL19@MakeVertSc:
; File C:\Program Files (x86)\Windows Kits\10\Include\10.0.22000.0\ucrt\string.h

; 520  :         return const_cast<char*>(strstr(static_cast<char const*>(_String), _SubString));

  00113	68 00 00 00 00	 push	 OFFSET ??_C@_0M@DGHFHKEI@GraphEnd?$DL?$AN?6@
  00118	57		 push	 edi
  00119	e8 00 00 00 00	 call	 _strstr
; File D:\git\src\IBK\IBK_DRFN\ProjSrc\SrcChartEx\ChartOCX\ChartObject\VertScaleGroup.cpp

; 291  : 		szGraphEnd = strstr( szGraph, "GraphEnd;\r\n");

  0011e	8b f0		 mov	 esi, eax
; File C:\Program Files (x86)\Windows Kits\10\Include\10.0.22000.0\ucrt\string.h

; 520  :         return const_cast<char*>(strstr(static_cast<char const*>(_String), _SubString));

  00120	83 c4 08	 add	 esp, 8
; File D:\git\src\IBK\IBK_DRFN\ProjSrc\SrcChartEx\ChartOCX\ChartObject\VertScaleGroup.cpp

; 292  : 		if( szGraphEnd)

  00123	85 f6		 test	 esi, esi
  00125	74 0c		 je	 SHORT $LN22@MakeVertSc

; 293  : 		{
; 294  : 			szGraphEnd += 11;									// "GraphEnd;\r\n"
; 295  : 			cGraphEnd = *szGraphEnd;

  00127	8a 46 0b	 mov	 al, BYTE PTR [esi+11]
  0012a	83 c6 0b	 add	 esi, 11			; 0000000bH
  0012d	88 45 f3	 mov	 BYTE PTR _cGraphEnd$1$[ebp], al

; 296  : 			*szGraphEnd = '\0';

  00130	c6 06 00	 mov	 BYTE PTR [esi], 0
$LN22@MakeVertSc:

; 297  : 		}
; 298  : 
; 299  : 		MakeGraph( szGraph);

  00133	6a 01		 push	 1
  00135	57		 push	 edi
  00136	8b cb		 mov	 ecx, ebx
  00138	e8 00 00 00 00	 call	 ?MakeGraph@CVertScaleGroup@@QAE_NPAD_N@Z ; CVertScaleGroup::MakeGraph

; 300  : 		if( szGraphEnd)

  0013d	85 f6		 test	 esi, esi
  0013f	74 19		 je	 SHORT $LN38@MakeVertSc

; 302  : 			*szGraphEnd = cGraphEnd;

  00141	8a 45 f3	 mov	 al, BYTE PTR _cGraphEnd$1$[ebp]
; File C:\Program Files (x86)\Windows Kits\10\Include\10.0.22000.0\ucrt\string.h

; 520  :         return const_cast<char*>(strstr(static_cast<char const*>(_String), _SubString));

  00144	68 00 00 00 00	 push	 OFFSET ??_C@_08BHMMGBBH@Graph?$DL?$AN?6@
  00149	56		 push	 esi
; File D:\git\src\IBK\IBK_DRFN\ProjSrc\SrcChartEx\ChartOCX\ChartObject\VertScaleGroup.cpp

; 302  : 			*szGraphEnd = cGraphEnd;

  0014a	88 06		 mov	 BYTE PTR [esi], al
; File C:\Program Files (x86)\Windows Kits\10\Include\10.0.22000.0\ucrt\string.h

; 520  :         return const_cast<char*>(strstr(static_cast<char const*>(_String), _SubString));

  0014c	e8 00 00 00 00	 call	 _strstr
; File D:\git\src\IBK\IBK_DRFN\ProjSrc\SrcChartEx\ChartOCX\ChartObject\VertScaleGroup.cpp

; 303  : 			szGraph = strstr( szGraphEnd, "Graph;\r\n");

  00151	8b f8		 mov	 edi, eax
; File C:\Program Files (x86)\Windows Kits\10\Include\10.0.22000.0\ucrt\string.h

; 520  :         return const_cast<char*>(strstr(static_cast<char const*>(_String), _SubString));

  00153	83 c4 08	 add	 esp, 8
; File D:\git\src\IBK\IBK_DRFN\ProjSrc\SrcChartEx\ChartOCX\ChartObject\VertScaleGroup.cpp

; 289  : 	while( szGraph)

  00156	85 ff		 test	 edi, edi
  00158	75 b9		 jne	 SHORT $LL19@MakeVertSc
$LN38@MakeVertSc:

; 246  : 	return new CVertScaleGroup(pMainBlockBaseData, pVertScaleGroupList, p_szVertScaleGroup);

  0015a	8b c3		 mov	 eax, ebx

; 247  : }

  0015c	8b 4d f4	 mov	 ecx, DWORD PTR __$EHRec$[ebp]
  0015f	64 89 0d 00 00
	00 00		 mov	 DWORD PTR fs:0, ecx
  00166	59		 pop	 ecx
  00167	5f		 pop	 edi
  00168	5e		 pop	 esi
  00169	5b		 pop	 ebx
  0016a	8b e5		 mov	 esp, ebp
  0016c	5d		 pop	 ebp
  0016d	c3		 ret	 0
$LN3@MakeVertSc:

; 246  : 	return new CVertScaleGroup(pMainBlockBaseData, pVertScaleGroupList, p_szVertScaleGroup);

  0016e	33 c0		 xor	 eax, eax

; 247  : }

  00170	8b 4d f4	 mov	 ecx, DWORD PTR __$EHRec$[ebp]
  00173	64 89 0d 00 00
	00 00		 mov	 DWORD PTR fs:0, ecx
  0017a	59		 pop	 ecx
  0017b	5f		 pop	 edi
  0017c	5e		 pop	 esi
  0017d	5b		 pop	 ebx
  0017e	8b e5		 mov	 esp, ebp
  00180	5d		 pop	 ebp
  00181	c3		 ret	 0
_TEXT	ENDS
;	COMDAT text$x
text$x	SEGMENT
__unwindfunclet$?MakeVertScaleGroup@CVertScaleGroup@@SAPAV1@PAVCMainBlockBaseData@@PAVCVertScaleGroupList@@PAD@Z$0:
  00000	8b 45 ec	 mov	 eax, DWORD PTR $T4[ebp]
  00003	50		 push	 eax
  00004	e8 00 00 00 00	 call	 ??3CObject@@SGXPAX@Z	; CObject::operator delete
  00009	c3		 ret	 0
__unwindfunclet$?MakeVertScaleGroup@CVertScaleGroup@@SAPAV1@PAVCMainBlockBaseData@@PAVCVertScaleGroupList@@PAD@Z$1:
  0000a	8b 4d ec	 mov	 ecx, DWORD PTR $T4[ebp]
  0000d	83 c1 10	 add	 ecx, 16			; 00000010H
  00010	ff 25 00 00 00
	00		 jmp	 DWORD PTR __imp_??1CVerticalScale@@QAE@XZ
__unwindfunclet$?MakeVertScaleGroup@CVertScaleGroup@@SAPAV1@PAVCMainBlockBaseData@@PAVCVertScaleGroupList@@PAD@Z$2:
  00016	8b 4d ec	 mov	 ecx, DWORD PTR $T4[ebp]
  00019	83 c1 78	 add	 ecx, 120		; 00000078H
  0001c	e9 00 00 00 00	 jmp	 ??1?$CTypedPtrList@VCObList@@PAVCGraphImp@@@@UAE@XZ
  00021	cc		 int	 3
  00022	cc		 int	 3
  00023	cc		 int	 3
  00024	cc		 int	 3
  00025	cc		 int	 3
__ehhandler$?MakeVertScaleGroup@CVertScaleGroup@@SAPAV1@PAVCMainBlockBaseData@@PAVCVertScaleGroupList@@PAD@Z:
  00026	90		 npad	 1
  00027	90		 npad	 1
  00028	8b 54 24 08	 mov	 edx, DWORD PTR [esp+8]
  0002c	8d 42 0c	 lea	 eax, DWORD PTR [edx+12]
  0002f	8b 4a d4	 mov	 ecx, DWORD PTR [edx-44]
  00032	33 c8		 xor	 ecx, eax
  00034	e8 00 00 00 00	 call	 @__security_check_cookie@4
  00039	b8 00 00 00 00	 mov	 eax, OFFSET __ehfuncinfo$?MakeVertScaleGroup@CVertScaleGroup@@SAPAV1@PAVCMainBlockBaseData@@PAVCVertScaleGroupList@@PAD@Z
  0003e	e9 00 00 00 00	 jmp	 ___CxxFrameHandler3
text$x	ENDS
?MakeVertScaleGroup@CVertScaleGroup@@SAPAV1@PAVCMainBlockBaseData@@PAVCVertScaleGroupList@@PAD@Z ENDP ; CVertScaleGroup::MakeVertScaleGroup
; Function compile flags: /Ogtp
; File D:\git\src\IBK\IBK_DRFN\ProjSrc\SrcChartEx\ChartOCX\ChartObject\VertScaleGroup.cpp
; File C:\Program Files (x86)\Microsoft Visual Studio\2019\Community\VC\Tools\MSVC\14.29.30133\atlmfc\include\afx.inl
; File D:\git\src\IBK\IBK_DRFN\ProjSrc\SrcChartEx\ChartOCX\ChartObject\VertScaleGroup.cpp
; File C:\Program Files (x86)\Microsoft Visual Studio\2019\Community\VC\Tools\MSVC\14.29.30133\atlmfc\include\afx.inl
; File D:\git\src\IBK\IBK_DRFN\ProjSrc\SrcChartEx\ChartOCX\ChartObject\VertScaleGroup.cpp
; File C:\Program Files (x86)\Microsoft Visual Studio\2019\Community\VC\Tools\MSVC\14.29.30133\atlmfc\include\afxtempl.h
; File D:\git\src\IBK\IBK_DRFN\ProjSrc\SrcChartEx\ChartOCX\ChartObject\VertScaleGroup.cpp
; File C:\Program Files (x86)\Microsoft Visual Studio\2019\Community\VC\Tools\MSVC\14.29.30133\atlmfc\include\afxtempl.h
; File D:\git\src\IBK\IBK_DRFN\ProjSrc\SrcChartEx\ChartOCX\ChartObject\VertScaleGroup.cpp
;	COMDAT ?MakeVertScaleGroup@CVertScaleGroup@@SAPAV1@PAVCMainBlockBaseData@@PAVCVertScaleGroupList@@@Z
_TEXT	SEGMENT
$T2 = -36						; size = 8
$T3 = -28						; size = 8
_this$ = -20						; size = 4
$T4 = -16						; size = 4
__$EHRec$ = -12						; size = 12
_pMainBlockBaseData$ = 8				; size = 4
_pVertScaleGroupList$ = 12				; size = 4
?MakeVertScaleGroup@CVertScaleGroup@@SAPAV1@PAVCMainBlockBaseData@@PAVCVertScaleGroupList@@@Z PROC ; CVertScaleGroup::MakeVertScaleGroup, COMDAT

; 239  : {

  00000	55		 push	 ebp
  00001	8b ec		 mov	 ebp, esp
  00003	6a ff		 push	 -1
  00005	68 00 00 00 00	 push	 __ehhandler$?MakeVertScaleGroup@CVertScaleGroup@@SAPAV1@PAVCMainBlockBaseData@@PAVCVertScaleGroupList@@@Z
  0000a	64 a1 00 00 00
	00		 mov	 eax, DWORD PTR fs:0
  00010	50		 push	 eax
  00011	83 ec 18	 sub	 esp, 24			; 00000018H
  00014	56		 push	 esi
  00015	57		 push	 edi
  00016	a1 00 00 00 00	 mov	 eax, DWORD PTR ___security_cookie
  0001b	33 c5		 xor	 eax, ebp
  0001d	50		 push	 eax
  0001e	8d 45 f4	 lea	 eax, DWORD PTR __$EHRec$[ebp]
  00021	64 a3 00 00 00
	00		 mov	 DWORD PTR fs:0, eax
; File C:\Program Files (x86)\Microsoft Visual Studio\2019\Community\VC\Tools\MSVC\14.29.30133\atlmfc\include\afx.inl

; 116  : 	{ return ::operator new(nSize); }

  00027	68 a0 00 00 00	 push	 160			; 000000a0H
  0002c	e8 00 00 00 00	 call	 ??2@YAPAXI@Z		; operator new
; File D:\git\src\IBK\IBK_DRFN\ProjSrc\SrcChartEx\ChartOCX\ChartObject\VertScaleGroup.cpp

; 240  : 	return new CVertScaleGroup(pMainBlockBaseData, pVertScaleGroupList);

  00031	8b f8		 mov	 edi, eax
; File C:\Program Files (x86)\Microsoft Visual Studio\2019\Community\VC\Tools\MSVC\14.29.30133\atlmfc\include\afx.inl

; 116  : 	{ return ::operator new(nSize); }

  00033	83 c4 04	 add	 esp, 4
; File D:\git\src\IBK\IBK_DRFN\ProjSrc\SrcChartEx\ChartOCX\ChartObject\VertScaleGroup.cpp

; 240  : 	return new CVertScaleGroup(pMainBlockBaseData, pVertScaleGroupList);

  00036	89 7d f0	 mov	 DWORD PTR $T4[ebp], edi
  00039	c7 45 fc 00 00
	00 00		 mov	 DWORD PTR __$EHRec$[ebp+8], 0
  00040	85 ff		 test	 edi, edi
  00042	0f 84 8a 00 00
	00		 je	 $LN3@MakeVertSc

; 34   : 	m_pMainBlockBaseData( pMainBlockBaseData),

  00048	8b 45 08	 mov	 eax, DWORD PTR _pMainBlockBaseData$[ebp]

; 38   : {

  0004b	8d 4f 10	 lea	 ecx, DWORD PTR [edi+16]
  0004e	89 47 08	 mov	 DWORD PTR [edi+8], eax
  00051	8b 45 0c	 mov	 eax, DWORD PTR _pVertScaleGroupList$[ebp]
  00054	c7 07 00 00 00
	00		 mov	 DWORD PTR [edi], OFFSET ??_7CVertScaleGroup@@6B@
  0005a	89 47 0c	 mov	 DWORD PTR [edi+12], eax
  0005d	ff 15 00 00 00
	00		 call	 DWORD PTR __imp_??0CVerticalScale@@QAE@XZ
  00063	8d 45 e4	 lea	 eax, DWORD PTR $T3[ebp]
  00066	c6 45 fc 01	 mov	 BYTE PTR __$EHRec$[ebp+8], 1
  0006a	50		 push	 eax
  0006b	0f 57 c0	 xorps	 xmm0, xmm0

; 35   : 	m_pVertScaleGroupList( pVertScaleGroupList),
; 36   : 	m_displayDataMinMax( 0, 0),

  0006e	8d 45 dc	 lea	 eax, DWORD PTR $T2[ebp]
  00071	50		 push	 eax
  00072	8d 4f 68	 lea	 ecx, DWORD PTR [edi+104]
  00075	f2 0f 11 45 e4	 movsd	 QWORD PTR $T3[ebp], xmm0
  0007a	f2 0f 11 45 dc	 movsd	 QWORD PTR $T2[ebp], xmm0
  0007f	ff 15 00 00 00
	00		 call	 DWORD PTR __imp_??0CDisplayDataMinMax@@QAE@ABN0@Z

; 38   : {

  00085	8d 77 78	 lea	 esi, DWORD PTR [edi+120]
; File C:\Program Files (x86)\Microsoft Visual Studio\2019\Community\VC\Tools\MSVC\14.29.30133\atlmfc\include\afxtempl.h

; 1876 : 		: BASE_CLASS(nBlockSize) { }

  00088	6a 0a		 push	 10			; 0000000aH
  0008a	8b ce		 mov	 ecx, esi
; File D:\git\src\IBK\IBK_DRFN\ProjSrc\SrcChartEx\ChartOCX\ChartObject\VertScaleGroup.cpp

; 38   : {

  0008c	89 75 ec	 mov	 DWORD PTR _this$[ebp], esi
; File C:\Program Files (x86)\Microsoft Visual Studio\2019\Community\VC\Tools\MSVC\14.29.30133\atlmfc\include\afxtempl.h

; 1876 : 		: BASE_CLASS(nBlockSize) { }

  0008f	e8 00 00 00 00	 call	 ??0CObList@@QAE@H@Z	; CObList::CObList

; 1953 : 		: _CTypedPtrList<BASE_CLASS, TYPE>(nBlockSize) { }

  00094	c7 06 00 00 00
	00		 mov	 DWORD PTR [esi], OFFSET ??_7?$CTypedPtrList@VCObList@@PAVCGraphImp@@@@6B@
; File D:\git\src\IBK\IBK_DRFN\ProjSrc\SrcChartEx\ChartOCX\ChartObject\VertScaleGroup.cpp

; 240  : 	return new CVertScaleGroup(pMainBlockBaseData, pVertScaleGroupList);

  0009a	8b c7		 mov	 eax, edi

; 37   : 	m_lpSelectedGraph(NULL)		// Y Scale    - ojtaso (20070807)

  0009c	c7 87 94 00 00
	00 00 00 00 00	 mov	 DWORD PTR [edi+148], 0

; 39   : 	// (2007/2/16 - Seung-Won, Bae) Protect the redestructing on Destructor.
; 40   : 	m_bOnDestructor = FALSE;

  000a6	c7 47 04 00 00
	00 00		 mov	 DWORD PTR [edi+4], 0

; 41   : 
; 42   : 	// (2007/1/14 - Seung-Won, Bae) Get the Base Packet for Default Scale Min/Max
; 43   : 	m_pBaseGraph	= NULL;

  000ad	c7 87 98 00 00
	00 00 00 00 00	 mov	 DWORD PTR [edi+152], 0

; 44   : 	m_pBasePacket	= NULL;

  000b7	c7 87 9c 00 00
	00 00 00 00 00	 mov	 DWORD PTR [edi+156], 0

; 241  : }

  000c1	8b 4d f4	 mov	 ecx, DWORD PTR __$EHRec$[ebp]
  000c4	64 89 0d 00 00
	00 00		 mov	 DWORD PTR fs:0, ecx
  000cb	59		 pop	 ecx
  000cc	5f		 pop	 edi
  000cd	5e		 pop	 esi
  000ce	8b e5		 mov	 esp, ebp
  000d0	5d		 pop	 ebp
  000d1	c3		 ret	 0
$LN3@MakeVertSc:

; 240  : 	return new CVertScaleGroup(pMainBlockBaseData, pVertScaleGroupList);

  000d2	33 c0		 xor	 eax, eax

; 241  : }

  000d4	8b 4d f4	 mov	 ecx, DWORD PTR __$EHRec$[ebp]
  000d7	64 89 0d 00 00
	00 00		 mov	 DWORD PTR fs:0, ecx
  000de	59		 pop	 ecx
  000df	5f		 pop	 edi
  000e0	5e		 pop	 esi
  000e1	8b e5		 mov	 esp, ebp
  000e3	5d		 pop	 ebp
  000e4	c3		 ret	 0
_TEXT	ENDS
;	COMDAT text$x
text$x	SEGMENT
__unwindfunclet$?MakeVertScaleGroup@CVertScaleGroup@@SAPAV1@PAVCMainBlockBaseData@@PAVCVertScaleGroupList@@@Z$0:
  00000	8b 45 f0	 mov	 eax, DWORD PTR $T4[ebp]
  00003	50		 push	 eax
  00004	e8 00 00 00 00	 call	 ??3CObject@@SGXPAX@Z	; CObject::operator delete
  00009	c3		 ret	 0
__unwindfunclet$?MakeVertScaleGroup@CVertScaleGroup@@SAPAV1@PAVCMainBlockBaseData@@PAVCVertScaleGroupList@@@Z$1:
  0000a	8b 4d f0	 mov	 ecx, DWORD PTR $T4[ebp]
  0000d	83 c1 10	 add	 ecx, 16			; 00000010H
  00010	ff 25 00 00 00
	00		 jmp	 DWORD PTR __imp_??1CVerticalScale@@QAE@XZ
  00016	cc		 int	 3
  00017	cc		 int	 3
  00018	cc		 int	 3
  00019	cc		 int	 3
  0001a	cc		 int	 3
__ehhandler$?MakeVertScaleGroup@CVertScaleGroup@@SAPAV1@PAVCMainBlockBaseData@@PAVCVertScaleGroupList@@@Z:
  0001b	90		 npad	 1
  0001c	90		 npad	 1
  0001d	8b 54 24 08	 mov	 edx, DWORD PTR [esp+8]
  00021	8d 42 0c	 lea	 eax, DWORD PTR [edx+12]
  00024	8b 4a dc	 mov	 ecx, DWORD PTR [edx-36]
  00027	33 c8		 xor	 ecx, eax
  00029	e8 00 00 00 00	 call	 @__security_check_cookie@4
  0002e	b8 00 00 00 00	 mov	 eax, OFFSET __ehfuncinfo$?MakeVertScaleGroup@CVertScaleGroup@@SAPAV1@PAVCMainBlockBaseData@@PAVCVertScaleGroupList@@@Z
  00033	e9 00 00 00 00	 jmp	 ___CxxFrameHandler3
text$x	ENDS
?MakeVertScaleGroup@CVertScaleGroup@@SAPAV1@PAVCMainBlockBaseData@@PAVCVertScaleGroupList@@@Z ENDP ; CVertScaleGroup::MakeVertScaleGroup
; Function compile flags: /Ogtp
; File D:\git\src\IBK\IBK_DRFN\ProjSrc\SrcChartEx\ChartOCX\ChartObject\VertScaleGroup.cpp
; File C:\Program Files (x86)\Microsoft Visual Studio\2019\Community\VC\Tools\MSVC\14.29.30133\atlmfc\include\afxcoll.inl
; File D:\git\src\IBK\IBK_DRFN\ProjSrc\SrcChartEx\ChartOCX\ChartObject\VertScaleGroup.cpp
; File C:\Program Files (x86)\Microsoft Visual Studio\2019\Community\VC\Tools\MSVC\14.29.30133\atlmfc\include\cstringt.h
; File D:\git\src\IBK\IBK_DRFN\ProjSrc\SrcChartEx\ChartOCX\ChartObject\VertScaleGroup.cpp
; File C:\Program Files (x86)\Microsoft Visual Studio\2019\Community\VC\Tools\MSVC\14.29.30133\atlmfc\include\cstringt.h
; File D:\git\src\IBK\IBK_DRFN\ProjSrc\SrcChartEx\ChartOCX\ChartObject\VertScaleGroup.cpp
; File C:\Program Files (x86)\Microsoft Visual Studio\2019\Community\VC\Tools\MSVC\14.29.30133\atlmfc\include\cstringt.h
; File D:\git\src\IBK\IBK_DRFN\ProjSrc\SrcChartEx\ChartOCX\ChartObject\VertScaleGroup.cpp
;	COMDAT ?ShowIndicator@CVertScaleGroup@@QAEXPBDHH@Z
_TEXT	SEGMENT
$T2 = -16						; size = 4
__$EHRec$ = -12						; size = 12
_p_szIndicatorName$ = 8					; size = 4
_p_bShow$ = 12						; size = 4
_p_bRecalculate$ = 16					; size = 4
?ShowIndicator@CVertScaleGroup@@QAEXPBDHH@Z PROC	; CVertScaleGroup::ShowIndicator, COMDAT
; _this$ = ecx

; 219  : {

  00000	55		 push	 ebp
  00001	8b ec		 mov	 ebp, esp
  00003	6a ff		 push	 -1
  00005	68 00 00 00 00	 push	 __ehhandler$?ShowIndicator@CVertScaleGroup@@QAEXPBDHH@Z
  0000a	64 a1 00 00 00
	00		 mov	 eax, DWORD PTR fs:0
  00010	50		 push	 eax
  00011	51		 push	 ecx
  00012	53		 push	 ebx
  00013	56		 push	 esi
  00014	57		 push	 edi
  00015	a1 00 00 00 00	 mov	 eax, DWORD PTR ___security_cookie
  0001a	33 c5		 xor	 eax, ebp
  0001c	50		 push	 eax
  0001d	8d 45 f4	 lea	 eax, DWORD PTR __$EHRec$[ebp]
  00020	64 a3 00 00 00
	00		 mov	 DWORD PTR fs:0, eax

; 220  : 	if( !p_szIndicatorName) return;

  00026	8b 7d 08	 mov	 edi, DWORD PTR _p_szIndicatorName$[ebp]
  00029	85 ff		 test	 edi, edi
  0002b	0f 84 7f 00 00
	00		 je	 $LN3@ShowIndica

; 221  : 	if( !*p_szIndicatorName) return;

  00031	80 3f 00	 cmp	 BYTE PTR [edi], 0
  00034	74 7a		 je	 SHORT $LN3@ShowIndica

; 222  : 
; 223  : 	POSITION pos = m_GraphList.GetHeadPosition();

  00036	8b 59 7c	 mov	 ebx, DWORD PTR [ecx+124]

; 224  : 	while(pos != NULL)

  00039	85 db		 test	 ebx, ebx
  0003b	74 73		 je	 SHORT $LN3@ShowIndica
  0003d	0f 1f 00	 npad	 3
$LL2@ShowIndica:

; 225  : 	{
; 226  : 		CGraphImp* pGraph = m_GraphList.GetNext(pos);

  00040	8b 73 08	 mov	 esi, DWORD PTR [ebx+8]

; 228  : 		if( pGraph->GetGraphData().GetIndicatorName() != p_szIndicatorName)

  00043	8d 45 f0	 lea	 eax, DWORD PTR $T2[ebp]
; File C:\Program Files (x86)\Microsoft Visual Studio\2019\Community\VC\Tools\MSVC\14.29.30133\atlmfc\include\afxcoll.inl

; 432  : 		rPosition = (POSITION) pNode->pNext;

  00046	8b 1b		 mov	 ebx, DWORD PTR [ebx]
; File D:\git\src\IBK\IBK_DRFN\ProjSrc\SrcChartEx\ChartOCX\ChartObject\VertScaleGroup.cpp

; 228  : 		if( pGraph->GetGraphData().GetIndicatorName() != p_szIndicatorName)

  00048	8b ce		 mov	 ecx, esi
  0004a	50		 push	 eax
  0004b	e8 00 00 00 00	 call	 ?GetGraphData@CGraphImp@@QAEAAVCGraphData@@XZ ; CGraphImp::GetGraphData
  00050	8b c8		 mov	 ecx, eax
  00052	ff 15 00 00 00
	00		 call	 DWORD PTR __imp_?GetIndicatorName@CGraphData@@QBE?AV?$CStringT@DV?$StrTraitMFC_DLL@DV?$ChTraitsCRT@D@ATL@@@@@ATL@@XZ
; File C:\Program Files (x86)\Microsoft Visual Studio\2019\Community\VC\Tools\MSVC\14.29.30133\atlmfc\include\cstringt.h

; 2567 : 		return( str1.Compare( psz2 ) != 0 );

  00058	57		 push	 edi
  00059	8b c8		 mov	 ecx, eax
; File D:\git\src\IBK\IBK_DRFN\ProjSrc\SrcChartEx\ChartOCX\ChartObject\VertScaleGroup.cpp

; 228  : 		if( pGraph->GetGraphData().GetIndicatorName() != p_szIndicatorName)

  0005b	c7 45 fc 00 00
	00 00		 mov	 DWORD PTR __$EHRec$[ebp+8], 0
; File C:\Program Files (x86)\Microsoft Visual Studio\2019\Community\VC\Tools\MSVC\14.29.30133\atlmfc\include\cstringt.h

; 2567 : 		return( str1.Compare( psz2 ) != 0 );

  00062	ff 15 00 00 00
	00		 call	 DWORD PTR __imp_?Compare@?$CStringT@DV?$StrTraitMFC_DLL@DV?$ChTraitsCRT@D@ATL@@@@@ATL@@QBEHPBD@Z
; File D:\git\src\IBK\IBK_DRFN\ProjSrc\SrcChartEx\ChartOCX\ChartObject\VertScaleGroup.cpp

; 228  : 		if( pGraph->GetGraphData().GetIndicatorName() != p_szIndicatorName)

  00068	8d 4d f0	 lea	 ecx, DWORD PTR $T2[ebp]
  0006b	c7 45 fc ff ff
	ff ff		 mov	 DWORD PTR __$EHRec$[ebp+8], -1
; File C:\Program Files (x86)\Microsoft Visual Studio\2019\Community\VC\Tools\MSVC\14.29.30133\atlmfc\include\cstringt.h

; 2567 : 		return( str1.Compare( psz2 ) != 0 );

  00072	8b f8		 mov	 edi, eax
; File D:\git\src\IBK\IBK_DRFN\ProjSrc\SrcChartEx\ChartOCX\ChartObject\VertScaleGroup.cpp

; 228  : 		if( pGraph->GetGraphData().GetIndicatorName() != p_szIndicatorName)

  00074	ff 15 00 00 00
	00		 call	 DWORD PTR __imp_??1?$CStringT@DV?$StrTraitMFC_DLL@DV?$ChTraitsCRT@D@ATL@@@@@ATL@@QAE@XZ
  0007a	85 ff		 test	 edi, edi
  0007c	75 2b		 jne	 SHORT $LN7@ShowIndica

; 229  : 			continue;
; 230  : 
; 231  : 		pGraph->SetGraphHide( !p_bShow);

  0007e	8b 7d 0c	 mov	 edi, DWORD PTR _p_bShow$[ebp]
  00081	33 c0		 xor	 eax, eax
  00083	8b 16		 mov	 edx, DWORD PTR [esi]
  00085	85 ff		 test	 edi, edi
  00087	8b ce		 mov	 ecx, esi
  00089	0f 94 c0	 sete	 al
  0008c	50		 push	 eax
  0008d	ff 52 14	 call	 DWORD PTR [edx+20]

; 232  : 
; 233  : 		if( p_bRecalculate && p_bShow) pGraph->CalculateGraph( CCalculateBaseData::TRDATA_CAL);

  00090	83 7d 10 00	 cmp	 DWORD PTR _p_bRecalculate$[ebp], 0
  00094	74 13		 je	 SHORT $LN7@ShowIndica
  00096	85 ff		 test	 edi, edi
  00098	74 0f		 je	 SHORT $LN7@ShowIndica
  0009a	6a 00		 push	 0
  0009c	6a 00		 push	 0
  0009e	6a 01		 push	 1
  000a0	6a 00		 push	 0
  000a2	8b ce		 mov	 ecx, esi
  000a4	e8 00 00 00 00	 call	 ?CalculateGraph@CGraphImp@@QAE_NW4CALCULATETYPE@CCalculateBaseData@@_N11@Z ; CGraphImp::CalculateGraph
$LN7@ShowIndica:

; 224  : 	while(pos != NULL)

  000a9	8b 7d 08	 mov	 edi, DWORD PTR _p_szIndicatorName$[ebp]
  000ac	85 db		 test	 ebx, ebx
  000ae	75 90		 jne	 SHORT $LL2@ShowIndica
$LN3@ShowIndica:

; 234  : 	}
; 235  : }

  000b0	8b 4d f4	 mov	 ecx, DWORD PTR __$EHRec$[ebp]
  000b3	64 89 0d 00 00
	00 00		 mov	 DWORD PTR fs:0, ecx
  000ba	59		 pop	 ecx
  000bb	5f		 pop	 edi
  000bc	5e		 pop	 esi
  000bd	5b		 pop	 ebx
  000be	8b e5		 mov	 esp, ebp
  000c0	5d		 pop	 ebp
  000c1	c2 0c 00	 ret	 12			; 0000000cH
_TEXT	ENDS
;	COMDAT text$x
text$x	SEGMENT
__unwindfunclet$?ShowIndicator@CVertScaleGroup@@QAEXPBDHH@Z$0:
  00000	8d 4d f0	 lea	 ecx, DWORD PTR $T2[ebp]
  00003	ff 25 00 00 00
	00		 jmp	 DWORD PTR __imp_??1?$CStringT@DV?$StrTraitMFC_DLL@DV?$ChTraitsCRT@D@ATL@@@@@ATL@@QAE@XZ
  00009	cc		 int	 3
  0000a	cc		 int	 3
  0000b	cc		 int	 3
  0000c	cc		 int	 3
  0000d	cc		 int	 3
__ehhandler$?ShowIndicator@CVertScaleGroup@@QAEXPBDHH@Z:
  0000e	90		 npad	 1
  0000f	90		 npad	 1
  00010	8b 54 24 08	 mov	 edx, DWORD PTR [esp+8]
  00014	8d 42 0c	 lea	 eax, DWORD PTR [edx+12]
  00017	8b 4a ec	 mov	 ecx, DWORD PTR [edx-20]
  0001a	33 c8		 xor	 ecx, eax
  0001c	e8 00 00 00 00	 call	 @__security_check_cookie@4
  00021	b8 00 00 00 00	 mov	 eax, OFFSET __ehfuncinfo$?ShowIndicator@CVertScaleGroup@@QAEXPBDHH@Z
  00026	e9 00 00 00 00	 jmp	 ___CxxFrameHandler3
text$x	ENDS
?ShowIndicator@CVertScaleGroup@@QAEXPBDHH@Z ENDP	; CVertScaleGroup::ShowIndicator
; Function compile flags: /Ogtp
; File D:\git\src\IBK\IBK_DRFN\ProjSrc\SrcChartEx\ChartOCX\ChartObject\VertScaleGroup.cpp
;	COMDAT ?GetSubGraph@CVertScaleGroup@@QBEPAVCSubGraph@@HH@Z
_TEXT	SEGMENT
_nGraphIndex$ = 8					; size = 4
_nSubGraphIndex$ = 12					; size = 4
?GetSubGraph@CVertScaleGroup@@QBEPAVCSubGraph@@HH@Z PROC ; CVertScaleGroup::GetSubGraph, COMDAT
; _this$ = ecx

; 209  : {

  00000	55		 push	 ebp
  00001	8b ec		 mov	 ebp, esp

; 1552 : 	POSITION pos = m_GraphList.FindIndex(nIndex);

  00003	ff 75 08	 push	 DWORD PTR _nGraphIndex$[ebp]
  00006	83 c1 78	 add	 ecx, 120		; 00000078H
  00009	e8 00 00 00 00	 call	 ?FindIndex@CObList@@QBEPAU__POSITION@@H@Z ; CObList::FindIndex

; 1553 : 	if(pos == NULL)

  0000e	85 c0		 test	 eax, eax
  00010	74 1a		 je	 SHORT $LN15@GetSubGrap

; 1554 : 		return NULL;
; 1555 : 
; 1556 : 	return m_GraphList.GetAt(pos);

  00012	8b 48 08	 mov	 ecx, DWORD PTR [eax+8]

; 210  : 	CGraphImp *pGraph = GetGraph( nGraphIndex);
; 211  : 	if( !pGraph) return NULL;

  00015	85 c9		 test	 ecx, ecx
  00017	74 13		 je	 SHORT $LN15@GetSubGrap

; 212  : 
; 213  : 	return pGraph->GetSubGraphList().FindSubGraph( nSubGraphIndex);

  00019	ff 75 0c	 push	 DWORD PTR _nSubGraphIndex$[ebp]
  0001c	e8 00 00 00 00	 call	 ?GetSubGraphList@CGraphImp@@QAEAAVCSubGraphList@@XZ ; CGraphImp::GetSubGraphList
  00021	8b c8		 mov	 ecx, eax
  00023	e8 00 00 00 00	 call	 ?FindSubGraph@CSubGraphList@@QBEPAVCSubGraph@@H@Z ; CSubGraphList::FindSubGraph

; 214  : }

  00028	5d		 pop	 ebp
  00029	c2 08 00	 ret	 8
$LN15@GetSubGrap:

; 210  : 	CGraphImp *pGraph = GetGraph( nGraphIndex);
; 211  : 	if( !pGraph) return NULL;

  0002c	33 c0		 xor	 eax, eax

; 214  : }

  0002e	5d		 pop	 ebp
  0002f	c2 08 00	 ret	 8
?GetSubGraph@CVertScaleGroup@@QBEPAVCSubGraph@@HH@Z ENDP ; CVertScaleGroup::GetSubGraph
_TEXT	ENDS
; Function compile flags: /Ogtp
; File D:\git\src\IBK\IBK_DRFN\ProjSrc\SrcChartEx\ChartOCX\ChartObject\VertScaleGroup.cpp
; File C:\Program Files (x86)\Microsoft Visual Studio\2019\Community\VC\Tools\MSVC\14.29.30133\atlmfc\include\afxtempl.h
; File C:\Program Files (x86)\Microsoft Visual Studio\2019\Community\VC\Tools\MSVC\14.29.30133\atlmfc\include\afxcoll.inl
; File D:\git\src\IBK\IBK_DRFN\ProjSrc\SrcChartEx\ChartOCX\ChartObject\VertScaleGroup.cpp
;	COMDAT ?FindGraph@CVertScaleGroup@@QBEHPAXPAVCGraphSearchInfo@@@Z
_TEXT	SEGMENT
_pPacketRQ$ = 8						; size = 4
_nGraphIndex$1$ = 12					; size = 4
_p_pGraphSearchInfo$ = 12				; size = 4
?FindGraph@CVertScaleGroup@@QBEHPAXPAVCGraphSearchInfo@@@Z PROC ; CVertScaleGroup::FindGraph, COMDAT
; _this$ = ecx

; 174  : {

  00000	55		 push	 ebp
  00001	8b ec		 mov	 ebp, esp
  00003	53		 push	 ebx

; 175  : 	if( !p_pGraphSearchInfo)	return FALSE;

  00004	8b 5d 0c	 mov	 ebx, DWORD PTR _p_pGraphSearchInfo$[ebp]
  00007	8b c1		 mov	 eax, ecx
  00009	85 db		 test	 ebx, ebx
  0000b	75 07		 jne	 SHORT $LN4@FindGraph
  0000d	33 c0		 xor	 eax, eax
  0000f	5b		 pop	 ebx

; 205  : }

  00010	5d		 pop	 ebp
  00011	c2 08 00	 ret	 8
$LN4@FindGraph:

; 176  : 
; 177  : 	int nGraphIndex		= p_pGraphSearchInfo->m_nGraphIndex;

  00014	8b 4b 24	 mov	 ecx, DWORD PTR [ebx+36]
  00017	56		 push	 esi

; 178  : 	POSITION posGraph	= ( p_pGraphSearchInfo->m_posGraph ? p_pGraphSearchInfo->m_posGraph : m_GraphList.FindIndex( p_pGraphSearchInfo->m_nGraphIndex));

  00018	8b 73 10	 mov	 esi, DWORD PTR [ebx+16]
  0001b	89 4d 0c	 mov	 DWORD PTR _nGraphIndex$1$[ebp], ecx
  0001e	57		 push	 edi
  0001f	85 f6		 test	 esi, esi
  00021	75 0f		 jne	 SHORT $LL2@FindGraph
  00023	51		 push	 ecx
  00024	8d 48 78	 lea	 ecx, DWORD PTR [eax+120]
  00027	e8 00 00 00 00	 call	 ?FindIndex@CObList@@QBEPAU__POSITION@@H@Z ; CObList::FindIndex
  0002c	8b f0		 mov	 esi, eax

; 179  : 
; 180  : 	CGraphImp *pGraph = NULL;
; 181  : 	CPacketRQ* pRQ = (CPacketRQ*)pPacketRQ;
; 182  : 	POSITION posCurrentGraph = NULL;
; 183  : 	while( posGraph)

  0002e	85 f6		 test	 esi, esi
  00030	74 34		 je	 SHORT $LN27@FindGraph
$LL2@FindGraph:
; File C:\Program Files (x86)\Microsoft Visual Studio\2019\Community\VC\Tools\MSVC\14.29.30133\atlmfc\include\afxtempl.h

; 1898 : 		{ return (TYPE)BASE_CLASS::GetNext(rPosition); }

  00032	8b 7e 08	 mov	 edi, DWORD PTR [esi+8]
; File C:\Program Files (x86)\Microsoft Visual Studio\2019\Community\VC\Tools\MSVC\14.29.30133\atlmfc\include\afxcoll.inl

; 439  : 		rPosition = (POSITION) pNode->pNext;

  00035	8b 36		 mov	 esi, DWORD PTR [esi]
; File D:\git\src\IBK\IBK_DRFN\ProjSrc\SrcChartEx\ChartOCX\ChartObject\VertScaleGroup.cpp

; 187  : 		if( !pGraph) continue;

  00037	85 ff		 test	 edi, edi
  00039	74 27		 je	 SHORT $LN22@FindGraph

; 188  : 		if( p_pGraphSearchInfo->FindGraph( pGraph))

  0003b	8b 03		 mov	 eax, DWORD PTR [ebx]
  0003d	8b cb		 mov	 ecx, ebx
  0003f	57		 push	 edi
  00040	ff 50 04	 call	 DWORD PTR [eax+4]
  00043	85 c0		 test	 eax, eax
  00045	74 18		 je	 SHORT $LN7@FindGraph

; 189  : 		{
; 190  : 			if(!::lstrcmp( pGraph->GetGraphRQ(), pRQ->GetRQ()))

  00047	8b 45 08	 mov	 eax, DWORD PTR _pPacketRQ$[ebp]
  0004a	8b cf		 mov	 ecx, edi
  0004c	ff 70 04	 push	 DWORD PTR [eax+4]
  0004f	8b 07		 mov	 eax, DWORD PTR [edi]
  00051	ff 50 1c	 call	 DWORD PTR [eax+28]
  00054	50		 push	 eax
  00055	ff 15 00 00 00
	00		 call	 DWORD PTR __imp__lstrcmpA@8
  0005b	85 c0		 test	 eax, eax
  0005d	74 1e		 je	 SHORT $LN21@FindGraph
$LN7@FindGraph:

; 196  : 			}
; 197  : 		}
; 198  : 		nGraphIndex++;

  0005f	ff 45 0c	 inc	 DWORD PTR _nGraphIndex$1$[ebp]
$LN22@FindGraph:

; 179  : 
; 180  : 	CGraphImp *pGraph = NULL;
; 181  : 	CPacketRQ* pRQ = (CPacketRQ*)pPacketRQ;
; 182  : 	POSITION posCurrentGraph = NULL;
; 183  : 	while( posGraph)

  00062	85 f6		 test	 esi, esi
  00064	75 cc		 jne	 SHORT $LL2@FindGraph
$LN27@FindGraph:
  00066	5f		 pop	 edi
  00067	5e		 pop	 esi

; 199  : 	}
; 200  : 
; 201  : 	// (2007/4/11 - Seung-Won, Bae) Reset for Next Vertical Scale Group Search
; 202  : 	p_pGraphSearchInfo->m_posGraph		= NULL;

  00068	c7 43 10 00 00
	00 00		 mov	 DWORD PTR [ebx+16], 0

; 203  : 	p_pGraphSearchInfo->m_nGraphIndex	= 0;
; 204  : 	return FALSE;

  0006f	33 c0		 xor	 eax, eax
  00071	c7 43 24 00 00
	00 00		 mov	 DWORD PTR [ebx+36], 0
  00078	5b		 pop	 ebx

; 205  : }

  00079	5d		 pop	 ebp
  0007a	c2 08 00	 ret	 8
$LN21@FindGraph:

; 191  : 			{
; 192  : 				p_pGraphSearchInfo->m_posGraph		= posGraph;
; 193  : 				p_pGraphSearchInfo->m_nGraphIndex	= nGraphIndex;

  0007d	8b 45 0c	 mov	 eax, DWORD PTR _nGraphIndex$1$[ebp]

; 194  : 				p_pGraphSearchInfo->m_pGraphImp		= pGraph;

  00080	89 7b 38	 mov	 DWORD PTR [ebx+56], edi
  00083	5f		 pop	 edi
  00084	89 73 10	 mov	 DWORD PTR [ebx+16], esi
  00087	89 43 24	 mov	 DWORD PTR [ebx+36], eax

; 195  : 				return TRUE;

  0008a	b8 01 00 00 00	 mov	 eax, 1
  0008f	5e		 pop	 esi
  00090	5b		 pop	 ebx

; 205  : }

  00091	5d		 pop	 ebp
  00092	c2 08 00	 ret	 8
?FindGraph@CVertScaleGroup@@QBEHPAXPAVCGraphSearchInfo@@@Z ENDP ; CVertScaleGroup::FindGraph
_TEXT	ENDS
; Function compile flags: /Ogtp
; File D:\git\src\IBK\IBK_DRFN\ProjSrc\SrcChartEx\ChartOCX\ChartObject\VertScaleGroup.cpp
; File C:\Program Files (x86)\Microsoft Visual Studio\2019\Community\VC\Tools\MSVC\14.29.30133\atlmfc\include\afxtempl.h
; File C:\Program Files (x86)\Microsoft Visual Studio\2019\Community\VC\Tools\MSVC\14.29.30133\atlmfc\include\afxcoll.inl
; File D:\git\src\IBK\IBK_DRFN\ProjSrc\SrcChartEx\ChartOCX\ChartObject\VertScaleGroup.cpp
;	COMDAT ?FindGraph@CVertScaleGroup@@QBEHPAVCGraphSearchInfo@@@Z
_TEXT	SEGMENT
_nGraphIndex$1$ = 8					; size = 4
_p_pGraphSearchInfo$ = 8				; size = 4
?FindGraph@CVertScaleGroup@@QBEHPAVCGraphSearchInfo@@@Z PROC ; CVertScaleGroup::FindGraph, COMDAT
; _this$ = ecx

; 143  : {

  00000	55		 push	 ebp
  00001	8b ec		 mov	 ebp, esp
  00003	57		 push	 edi

; 144  : 	if( !p_pGraphSearchInfo)	return FALSE;

  00004	8b 7d 08	 mov	 edi, DWORD PTR _p_pGraphSearchInfo$[ebp]
  00007	85 ff		 test	 edi, edi
  00009	75 07		 jne	 SHORT $LN4@FindGraph
  0000b	33 c0		 xor	 eax, eax
  0000d	5f		 pop	 edi

; 170  : }

  0000e	5d		 pop	 ebp
  0000f	c2 04 00	 ret	 4
$LN4@FindGraph:

; 145  : 
; 146  : 	int nGraphIndex		= p_pGraphSearchInfo->m_nGraphIndex;

  00012	8b 47 24	 mov	 eax, DWORD PTR [edi+36]
  00015	53		 push	 ebx
  00016	56		 push	 esi

; 147  : 	POSITION posGraph	= ( p_pGraphSearchInfo->m_posGraph ? p_pGraphSearchInfo->m_posGraph : m_GraphList.FindIndex( p_pGraphSearchInfo->m_nGraphIndex));

  00017	8b 77 10	 mov	 esi, DWORD PTR [edi+16]
  0001a	89 45 08	 mov	 DWORD PTR _nGraphIndex$1$[ebp], eax
  0001d	85 f6		 test	 esi, esi
  0001f	75 0f		 jne	 SHORT $LL2@FindGraph
  00021	50		 push	 eax
  00022	83 c1 78	 add	 ecx, 120		; 00000078H
  00025	e8 00 00 00 00	 call	 ?FindIndex@CObList@@QBEPAU__POSITION@@H@Z ; CObList::FindIndex
  0002a	8b f0		 mov	 esi, eax

; 148  : 
; 149  : 	CGraphImp *pGraph = NULL;
; 150  : 	POSITION posCurrentGraph = NULL;
; 151  : 	while( posGraph)

  0002c	85 f6		 test	 esi, esi
  0002e	74 1c		 je	 SHORT $LN26@FindGraph
$LL2@FindGraph:
; File C:\Program Files (x86)\Microsoft Visual Studio\2019\Community\VC\Tools\MSVC\14.29.30133\atlmfc\include\afxtempl.h

; 1898 : 		{ return (TYPE)BASE_CLASS::GetNext(rPosition); }

  00030	8b 5e 08	 mov	 ebx, DWORD PTR [esi+8]
; File C:\Program Files (x86)\Microsoft Visual Studio\2019\Community\VC\Tools\MSVC\14.29.30133\atlmfc\include\afxcoll.inl

; 439  : 		rPosition = (POSITION) pNode->pNext;

  00033	8b 36		 mov	 esi, DWORD PTR [esi]
; File D:\git\src\IBK\IBK_DRFN\ProjSrc\SrcChartEx\ChartOCX\ChartObject\VertScaleGroup.cpp

; 155  : 		if( !pGraph) continue;

  00035	85 db		 test	 ebx, ebx
  00037	74 0f		 je	 SHORT $LN21@FindGraph

; 156  : 		if( p_pGraphSearchInfo->FindGraph( pGraph))

  00039	8b 07		 mov	 eax, DWORD PTR [edi]
  0003b	8b cf		 mov	 ecx, edi
  0003d	53		 push	 ebx
  0003e	ff 50 04	 call	 DWORD PTR [eax+4]
  00041	85 c0		 test	 eax, eax
  00043	75 1e		 jne	 SHORT $LN20@FindGraph

; 162  : 		}
; 163  : 		nGraphIndex++;

  00045	ff 45 08	 inc	 DWORD PTR _nGraphIndex$1$[ebp]
$LN21@FindGraph:

; 148  : 
; 149  : 	CGraphImp *pGraph = NULL;
; 150  : 	POSITION posCurrentGraph = NULL;
; 151  : 	while( posGraph)

  00048	85 f6		 test	 esi, esi
  0004a	75 e4		 jne	 SHORT $LL2@FindGraph
$LN26@FindGraph:
  0004c	5e		 pop	 esi
  0004d	5b		 pop	 ebx

; 164  : 	}
; 165  : 
; 166  : 	// (2007/4/11 - Seung-Won, Bae) Reset for Next Vertical Scale Group Search
; 167  : 	p_pGraphSearchInfo->m_posGraph		= NULL;

  0004e	c7 47 10 00 00
	00 00		 mov	 DWORD PTR [edi+16], 0

; 168  : 	p_pGraphSearchInfo->m_nGraphIndex	= 0;
; 169  : 	return FALSE;

  00055	33 c0		 xor	 eax, eax
  00057	c7 47 24 00 00
	00 00		 mov	 DWORD PTR [edi+36], 0
  0005e	5f		 pop	 edi

; 170  : }

  0005f	5d		 pop	 ebp
  00060	c2 04 00	 ret	 4
$LN20@FindGraph:

; 157  : 		{
; 158  : 			p_pGraphSearchInfo->m_posGraph		= posGraph;
; 159  : 			p_pGraphSearchInfo->m_nGraphIndex	= nGraphIndex;

  00063	8b 45 08	 mov	 eax, DWORD PTR _nGraphIndex$1$[ebp]
  00066	89 77 10	 mov	 DWORD PTR [edi+16], esi
  00069	5e		 pop	 esi

; 160  : 			p_pGraphSearchInfo->m_pGraphImp		= pGraph;

  0006a	89 5f 38	 mov	 DWORD PTR [edi+56], ebx
  0006d	89 47 24	 mov	 DWORD PTR [edi+36], eax

; 161  : 			return TRUE;

  00070	b8 01 00 00 00	 mov	 eax, 1
  00075	5b		 pop	 ebx
  00076	5f		 pop	 edi

; 170  : }

  00077	5d		 pop	 ebp
  00078	c2 04 00	 ret	 4
?FindGraph@CVertScaleGroup@@QBEHPAVCGraphSearchInfo@@@Z ENDP ; CVertScaleGroup::FindGraph
_TEXT	ENDS
; Function compile flags: /Ogtp
; File D:\git\src\IBK\IBK_DRFN\ProjSrc\SrcChartEx\ChartOCX\ChartObject\VertScaleGroup.cpp
; File C:\Program Files (x86)\Microsoft Visual Studio\2019\Community\VC\Tools\MSVC\14.29.30133\atlmfc\include\afxcoll.inl
; File D:\git\src\IBK\IBK_DRFN\ProjSrc\SrcChartEx\ChartOCX\ChartObject\VertScaleGroup.cpp
; File C:\Program Files (x86)\Microsoft Visual Studio\2019\Community\VC\Tools\MSVC\14.29.30133\atlmfc\include\cstringt.h
; File D:\git\src\IBK\IBK_DRFN\ProjSrc\SrcChartEx\ChartOCX\ChartObject\VertScaleGroup.cpp
; File C:\Program Files (x86)\Microsoft Visual Studio\2019\Community\VC\Tools\MSVC\14.29.30133\atlmfc\include\cstringt.h
; File D:\git\src\IBK\IBK_DRFN\ProjSrc\SrcChartEx\ChartOCX\ChartObject\VertScaleGroup.cpp
; File C:\Program Files (x86)\Microsoft Visual Studio\2019\Community\VC\Tools\MSVC\14.29.30133\atlmfc\include\cstringt.h
; File D:\git\src\IBK\IBK_DRFN\ProjSrc\SrcChartEx\ChartOCX\ChartObject\VertScaleGroup.cpp
;	COMDAT ?DeleteAllIndicator@CVertScaleGroup@@QAEHPBD@Z
_TEXT	SEGMENT
_this$1$ = -24						; size = 4
$T2 = -20						; size = 4
_bResult$1$ = -16					; size = 4
__$EHRec$ = -12						; size = 12
_p_szIndicatorName$ = 8					; size = 4
?DeleteAllIndicator@CVertScaleGroup@@QAEHPBD@Z PROC	; CVertScaleGroup::DeleteAllIndicator, COMDAT
; _this$ = ecx

; 115  : {

  00000	55		 push	 ebp
  00001	8b ec		 mov	 ebp, esp
  00003	6a ff		 push	 -1
  00005	68 00 00 00 00	 push	 __ehhandler$?DeleteAllIndicator@CVertScaleGroup@@QAEHPBD@Z
  0000a	64 a1 00 00 00
	00		 mov	 eax, DWORD PTR fs:0
  00010	50		 push	 eax
  00011	83 ec 0c	 sub	 esp, 12			; 0000000cH
  00014	53		 push	 ebx
  00015	56		 push	 esi
  00016	57		 push	 edi
  00017	a1 00 00 00 00	 mov	 eax, DWORD PTR ___security_cookie
  0001c	33 c5		 xor	 eax, ebp
  0001e	50		 push	 eax
  0001f	8d 45 f4	 lea	 eax, DWORD PTR __$EHRec$[ebp]
  00022	64 a3 00 00 00
	00		 mov	 DWORD PTR fs:0, eax
  00028	8b c1		 mov	 eax, ecx
  0002a	89 45 e8	 mov	 DWORD PTR _this$1$[ebp], eax

; 116  : 	if( !p_szIndicatorName)		return FALSE;

  0002d	8b 7d 08	 mov	 edi, DWORD PTR _p_szIndicatorName$[ebp]
  00030	85 ff		 test	 edi, edi
  00032	0f 84 8f 00 00
	00		 je	 $LN24@DeleteAllI

; 117  : 	if( !*p_szIndicatorName)	return FALSE;

  00038	80 3f 00	 cmp	 BYTE PTR [edi], 0
  0003b	0f 84 86 00 00
	00		 je	 $LN24@DeleteAllI

; 118  : 
; 119  : 	BOOL bResult = FALSE;
; 120  : 	CGraphImp *pGraph = NULL;
; 121  : 	POSITION posGraph = m_GraphList.GetHeadPosition();

  00041	8b 70 7c	 mov	 esi, DWORD PTR [eax+124]
  00044	33 c9		 xor	 ecx, ecx
  00046	89 4d f0	 mov	 DWORD PTR _bResult$1$[ebp], ecx

; 122  : 	while( posGraph)

  00049	85 f6		 test	 esi, esi
  0004b	74 64		 je	 SHORT $LN3@DeleteAllI
  0004d	0f 1f 00	 npad	 3
$LL2@DeleteAllI:

; 123  : 	{
; 124  : 		pGraph = m_GraphList.GetNext( posGraph);

  00050	8b 5e 08	 mov	 ebx, DWORD PTR [esi+8]
; File C:\Program Files (x86)\Microsoft Visual Studio\2019\Community\VC\Tools\MSVC\14.29.30133\atlmfc\include\afxcoll.inl

; 432  : 		rPosition = (POSITION) pNode->pNext;

  00053	8b 36		 mov	 esi, DWORD PTR [esi]
; File D:\git\src\IBK\IBK_DRFN\ProjSrc\SrcChartEx\ChartOCX\ChartObject\VertScaleGroup.cpp

; 125  : 		if( !pGraph) continue;

  00055	85 db		 test	 ebx, ebx
  00057	74 54		 je	 SHORT $LN7@DeleteAllI

; 126  : 		if( pGraph->GetGraphData().GetIndicatorName() == p_szIndicatorName)

  00059	8d 45 ec	 lea	 eax, DWORD PTR $T2[ebp]
  0005c	8b cb		 mov	 ecx, ebx
  0005e	50		 push	 eax
  0005f	e8 00 00 00 00	 call	 ?GetGraphData@CGraphImp@@QAEAAVCGraphData@@XZ ; CGraphImp::GetGraphData
  00064	8b c8		 mov	 ecx, eax
  00066	ff 15 00 00 00
	00		 call	 DWORD PTR __imp_?GetIndicatorName@CGraphData@@QBE?AV?$CStringT@DV?$StrTraitMFC_DLL@DV?$ChTraitsCRT@D@ATL@@@@@ATL@@XZ
; File C:\Program Files (x86)\Microsoft Visual Studio\2019\Community\VC\Tools\MSVC\14.29.30133\atlmfc\include\cstringt.h

; 2486 : 		return(str1.Compare(psz2) == 0);

  0006c	57		 push	 edi
  0006d	8b c8		 mov	 ecx, eax
; File D:\git\src\IBK\IBK_DRFN\ProjSrc\SrcChartEx\ChartOCX\ChartObject\VertScaleGroup.cpp

; 126  : 		if( pGraph->GetGraphData().GetIndicatorName() == p_szIndicatorName)

  0006f	c7 45 fc 00 00
	00 00		 mov	 DWORD PTR __$EHRec$[ebp+8], 0
; File C:\Program Files (x86)\Microsoft Visual Studio\2019\Community\VC\Tools\MSVC\14.29.30133\atlmfc\include\cstringt.h

; 2486 : 		return(str1.Compare(psz2) == 0);

  00076	ff 15 00 00 00
	00		 call	 DWORD PTR __imp_?Compare@?$CStringT@DV?$StrTraitMFC_DLL@DV?$ChTraitsCRT@D@ATL@@@@@ATL@@QBEHPBD@Z
; File D:\git\src\IBK\IBK_DRFN\ProjSrc\SrcChartEx\ChartOCX\ChartObject\VertScaleGroup.cpp

; 126  : 		if( pGraph->GetGraphData().GetIndicatorName() == p_szIndicatorName)

  0007c	8d 4d ec	 lea	 ecx, DWORD PTR $T2[ebp]
  0007f	c7 45 fc ff ff
	ff ff		 mov	 DWORD PTR __$EHRec$[ebp+8], -1
; File C:\Program Files (x86)\Microsoft Visual Studio\2019\Community\VC\Tools\MSVC\14.29.30133\atlmfc\include\cstringt.h

; 2486 : 		return(str1.Compare(psz2) == 0);

  00086	8b f8		 mov	 edi, eax
; File D:\git\src\IBK\IBK_DRFN\ProjSrc\SrcChartEx\ChartOCX\ChartObject\VertScaleGroup.cpp

; 126  : 		if( pGraph->GetGraphData().GetIndicatorName() == p_szIndicatorName)

  00088	ff 15 00 00 00
	00		 call	 DWORD PTR __imp_??1?$CStringT@DV?$StrTraitMFC_DLL@DV?$ChTraitsCRT@D@ATL@@@@@ATL@@QAE@XZ
  0008e	85 ff		 test	 edi, edi
  00090	75 15		 jne	 SHORT $LN25@DeleteAllI

; 127  : 		{
; 128  : 			DeleteGraphWithNotify( pGraph, true);

  00092	8b 4d e8	 mov	 ecx, DWORD PTR _this$1$[ebp]
  00095	6a 01		 push	 1
  00097	53		 push	 ebx
  00098	e8 00 00 00 00	 call	 ?DeleteGraphWithNotify@CVertScaleGroup@@QAE_NPAVCGraphImp@@_N@Z ; CVertScaleGroup::DeleteGraphWithNotify

; 129  : 		
; 130  : 			bResult = TRUE;

  0009d	b9 01 00 00 00	 mov	 ecx, 1
  000a2	89 4d f0	 mov	 DWORD PTR _bResult$1$[ebp], ecx
  000a5	eb 03		 jmp	 SHORT $LN27@DeleteAllI
$LN25@DeleteAllI:

; 126  : 		if( pGraph->GetGraphData().GetIndicatorName() == p_szIndicatorName)

  000a7	8b 4d f0	 mov	 ecx, DWORD PTR _bResult$1$[ebp]
$LN27@DeleteAllI:

; 122  : 	while( posGraph)

  000aa	8b 7d 08	 mov	 edi, DWORD PTR _p_szIndicatorName$[ebp]
$LN7@DeleteAllI:
  000ad	85 f6		 test	 esi, esi
  000af	75 9f		 jne	 SHORT $LL2@DeleteAllI
$LN3@DeleteAllI:

; 131  : 		}
; 132  : 	}
; 133  : 
; 134  : 	return bResult;

  000b1	8b c1		 mov	 eax, ecx

; 135  : }

  000b3	8b 4d f4	 mov	 ecx, DWORD PTR __$EHRec$[ebp]
  000b6	64 89 0d 00 00
	00 00		 mov	 DWORD PTR fs:0, ecx
  000bd	59		 pop	 ecx
  000be	5f		 pop	 edi
  000bf	5e		 pop	 esi
  000c0	5b		 pop	 ebx
  000c1	8b e5		 mov	 esp, ebp
  000c3	5d		 pop	 ebp
  000c4	c2 04 00	 ret	 4
$LN24@DeleteAllI:

; 117  : 	if( !*p_szIndicatorName)	return FALSE;

  000c7	33 c0		 xor	 eax, eax

; 135  : }

  000c9	8b 4d f4	 mov	 ecx, DWORD PTR __$EHRec$[ebp]
  000cc	64 89 0d 00 00
	00 00		 mov	 DWORD PTR fs:0, ecx
  000d3	59		 pop	 ecx
  000d4	5f		 pop	 edi
  000d5	5e		 pop	 esi
  000d6	5b		 pop	 ebx
  000d7	8b e5		 mov	 esp, ebp
  000d9	5d		 pop	 ebp
  000da	c2 04 00	 ret	 4
_TEXT	ENDS
;	COMDAT text$x
text$x	SEGMENT
__unwindfunclet$?DeleteAllIndicator@CVertScaleGroup@@QAEHPBD@Z$0:
  00000	8d 4d ec	 lea	 ecx, DWORD PTR $T2[ebp]
  00003	ff 25 00 00 00
	00		 jmp	 DWORD PTR __imp_??1?$CStringT@DV?$StrTraitMFC_DLL@DV?$ChTraitsCRT@D@ATL@@@@@ATL@@QAE@XZ
  00009	cc		 int	 3
  0000a	cc		 int	 3
  0000b	cc		 int	 3
  0000c	cc		 int	 3
  0000d	cc		 int	 3
__ehhandler$?DeleteAllIndicator@CVertScaleGroup@@QAEHPBD@Z:
  0000e	90		 npad	 1
  0000f	90		 npad	 1
  00010	8b 54 24 08	 mov	 edx, DWORD PTR [esp+8]
  00014	8d 42 0c	 lea	 eax, DWORD PTR [edx+12]
  00017	8b 4a e4	 mov	 ecx, DWORD PTR [edx-28]
  0001a	33 c8		 xor	 ecx, eax
  0001c	e8 00 00 00 00	 call	 @__security_check_cookie@4
  00021	b8 00 00 00 00	 mov	 eax, OFFSET __ehfuncinfo$?DeleteAllIndicator@CVertScaleGroup@@QAEHPBD@Z
  00026	e9 00 00 00 00	 jmp	 ___CxxFrameHandler3
text$x	ENDS
?DeleteAllIndicator@CVertScaleGroup@@QAEHPBD@Z ENDP	; CVertScaleGroup::DeleteAllIndicator
; Function compile flags: /Ogtp
; File D:\git\src\IBK\IBK_DRFN\ProjSrc\SrcChartEx\ChartOCX\ChartObject\VertScaleGroup.cpp
;	COMDAT ??1CVertScaleGroup@@MAE@XZ
_TEXT	SEGMENT
__$EHRec$ = -12						; size = 12
??1CVertScaleGroup@@MAE@XZ PROC				; CVertScaleGroup::~CVertScaleGroup, COMDAT
; _this$ = ecx

; 97   : {

  00000	55		 push	 ebp
  00001	8b ec		 mov	 ebp, esp
  00003	6a ff		 push	 -1
  00005	68 00 00 00 00	 push	 __ehhandler$??1CVertScaleGroup@@MAE@XZ
  0000a	64 a1 00 00 00
	00		 mov	 eax, DWORD PTR fs:0
  00010	50		 push	 eax
  00011	56		 push	 esi
  00012	a1 00 00 00 00	 mov	 eax, DWORD PTR ___security_cookie
  00017	33 c5		 xor	 eax, ebp
  00019	50		 push	 eax
  0001a	8d 45 f4	 lea	 eax, DWORD PTR __$EHRec$[ebp]
  0001d	64 a3 00 00 00
	00		 mov	 DWORD PTR fs:0, eax
  00023	8b f1		 mov	 esi, ecx
  00025	c7 06 00 00 00
	00		 mov	 DWORD PTR [esi], OFFSET ??_7CVertScaleGroup@@6B@

; 98   : 	// (2007/2/16 - Seung-Won, Bae) Protect the redestructing on Destructor.
; 99   : 	m_bOnDestructor = TRUE;

  0002b	c7 46 04 01 00
	00 00		 mov	 DWORD PTR [esi+4], 1

; 100  : 
; 101  : 	// (2007/1/14 - Seung-Won, Bae) Get the Base Packet for Default Scale Min/Max
; 102  : 	m_pBaseGraph	= NULL;

  00032	c7 86 98 00 00
	00 00 00 00 00	 mov	 DWORD PTR [esi+152], 0

; 103  : 	m_pBasePacket	= NULL;

  0003c	c7 86 9c 00 00
	00 00 00 00 00	 mov	 DWORD PTR [esi+156], 0

; 104  : 
; 105  : 	// Y Scale    - ojtaso (20070807)
; 106  : 	m_lpSelectedGraph = NULL;

  00046	c7 86 94 00 00
	00 00 00 00 00	 mov	 DWORD PTR [esi+148], 0

; 107  : 
; 108  : 	DeleteAll();

  00050	e8 00 00 00 00	 call	 ?DeleteAll@CVertScaleGroup@@QAEXXZ ; CVertScaleGroup::DeleteAll

; 109  : }

  00055	8d 4e 78	 lea	 ecx, DWORD PTR [esi+120]
  00058	e8 00 00 00 00	 call	 ??1CObList@@UAE@XZ	; CObList::~CObList
  0005d	8d 4e 10	 lea	 ecx, DWORD PTR [esi+16]
  00060	ff 15 00 00 00
	00		 call	 DWORD PTR __imp_??1CVerticalScale@@QAE@XZ
  00066	8b 4d f4	 mov	 ecx, DWORD PTR __$EHRec$[ebp]
  00069	64 89 0d 00 00
	00 00		 mov	 DWORD PTR fs:0, ecx
  00070	59		 pop	 ecx
  00071	5e		 pop	 esi
  00072	8b e5		 mov	 esp, ebp
  00074	5d		 pop	 ebp
  00075	c3		 ret	 0
  00076	cc		 int	 3
  00077	cc		 int	 3
  00078	cc		 int	 3
  00079	cc		 int	 3
  0007a	cc		 int	 3
_TEXT	ENDS
;	COMDAT text$x
text$x	SEGMENT
__ehhandler$??1CVertScaleGroup@@MAE@XZ:
  00000	90		 npad	 1
  00001	90		 npad	 1
  00002	8b 54 24 08	 mov	 edx, DWORD PTR [esp+8]
  00006	8d 42 0c	 lea	 eax, DWORD PTR [edx+12]
  00009	8b 4a f8	 mov	 ecx, DWORD PTR [edx-8]
  0000c	33 c8		 xor	 ecx, eax
  0000e	e8 00 00 00 00	 call	 @__security_check_cookie@4
  00013	b8 00 00 00 00	 mov	 eax, OFFSET __ehfuncinfo$??1CVertScaleGroup@@MAE@XZ
  00018	e9 00 00 00 00	 jmp	 ___CxxFrameHandler3
text$x	ENDS
??1CVertScaleGroup@@MAE@XZ ENDP				; CVertScaleGroup::~CVertScaleGroup
; Function compile flags: /Ogtp
; File D:\git\src\IBK\IBK_DRFN\ProjSrc\SrcChartEx\ChartOCX\ChartObject\VertScaleGroup.cpp
; File C:\Program Files (x86)\Microsoft Visual Studio\2019\Community\VC\Tools\MSVC\14.29.30133\atlmfc\include\afxtempl.h
; File D:\git\src\IBK\IBK_DRFN\ProjSrc\SrcChartEx\ChartOCX\ChartObject\VertScaleGroup.cpp
; File C:\Program Files (x86)\Microsoft Visual Studio\2019\Community\VC\Tools\MSVC\14.29.30133\atlmfc\include\afxtempl.h
; File D:\git\src\IBK\IBK_DRFN\ProjSrc\SrcChartEx\ChartOCX\ChartObject\VertScaleGroup.cpp
;	COMDAT ??0CVertScaleGroup@@QAE@PAVCMainBlockBaseData@@PAVCVertScaleGroupList@@ABVCVerticalScale@@@Z
_TEXT	SEGMENT
$T2 = -32						; size = 8
$T3 = -24						; size = 8
_this$ = -16						; size = 4
__$EHRec$ = -12						; size = 12
_this$ = 8						; size = 4
_pMainBlockBaseData$ = 8				; size = 4
_pVertScaleGroupList$ = 12				; size = 4
_vertScale$ = 16					; size = 4
??0CVertScaleGroup@@QAE@PAVCMainBlockBaseData@@PAVCVertScaleGroupList@@ABVCVerticalScale@@@Z PROC ; CVertScaleGroup::CVertScaleGroup, COMDAT
; _this$ = ecx

; 87   : {

  00000	55		 push	 ebp
  00001	8b ec		 mov	 ebp, esp
  00003	6a ff		 push	 -1
  00005	68 00 00 00 00	 push	 __ehhandler$??0CVertScaleGroup@@QAE@PAVCMainBlockBaseData@@PAVCVertScaleGroupList@@ABVCVerticalScale@@@Z
  0000a	64 a1 00 00 00
	00		 mov	 eax, DWORD PTR fs:0
  00010	50		 push	 eax
  00011	83 ec 14	 sub	 esp, 20			; 00000014H
  00014	56		 push	 esi
  00015	57		 push	 edi
  00016	a1 00 00 00 00	 mov	 eax, DWORD PTR ___security_cookie
  0001b	33 c5		 xor	 eax, ebp
  0001d	50		 push	 eax
  0001e	8d 45 f4	 lea	 eax, DWORD PTR __$EHRec$[ebp]
  00021	64 a3 00 00 00
	00		 mov	 DWORD PTR fs:0, eax
  00027	8b f9		 mov	 edi, ecx
  00029	89 7d f0	 mov	 DWORD PTR _this$[ebp], edi

; 82   : 	m_pMainBlockBaseData(pMainBlockBaseData),

  0002c	8b 45 08	 mov	 eax, DWORD PTR _pMainBlockBaseData$[ebp]

; 83   : 	m_pVertScaleGroupList(pVertScaleGroupList),
; 84   : 	m_vertScale(vertScale),

  0002f	8d 4f 10	 lea	 ecx, DWORD PTR [edi+16]
  00032	ff 75 10	 push	 DWORD PTR _vertScale$[ebp]
  00035	89 47 08	 mov	 DWORD PTR [edi+8], eax
  00038	8b 45 0c	 mov	 eax, DWORD PTR _pVertScaleGroupList$[ebp]
  0003b	c7 07 00 00 00
	00		 mov	 DWORD PTR [edi], OFFSET ??_7CVertScaleGroup@@6B@
  00041	89 47 0c	 mov	 DWORD PTR [edi+12], eax
  00044	ff 15 00 00 00
	00		 call	 DWORD PTR __imp_??0CVerticalScale@@QAE@ABV0@@Z

; 85   : 	m_displayDataMinMax(-20.0, 20.0),

  0004a	f2 0f 10 05 00
	00 00 00	 movsd	 xmm0, QWORD PTR __real@4034000000000000
  00052	8d 45 e8	 lea	 eax, DWORD PTR $T3[ebp]
  00055	50		 push	 eax
  00056	f2 0f 11 45 e8	 movsd	 QWORD PTR $T3[ebp], xmm0
  0005b	8d 45 e0	 lea	 eax, DWORD PTR $T2[ebp]
  0005e	f2 0f 10 05 00
	00 00 00	 movsd	 xmm0, QWORD PTR __real@c034000000000000
  00066	8d 4f 68	 lea	 ecx, DWORD PTR [edi+104]
  00069	50		 push	 eax
  0006a	c7 45 fc 00 00
	00 00		 mov	 DWORD PTR __$EHRec$[ebp+8], 0
  00071	f2 0f 11 45 e0	 movsd	 QWORD PTR $T2[ebp], xmm0
  00076	ff 15 00 00 00
	00		 call	 DWORD PTR __imp_??0CDisplayDataMinMax@@QAE@ABN0@Z

; 87   : {

  0007c	8d 77 78	 lea	 esi, DWORD PTR [edi+120]
; File C:\Program Files (x86)\Microsoft Visual Studio\2019\Community\VC\Tools\MSVC\14.29.30133\atlmfc\include\afxtempl.h

; 1876 : 		: BASE_CLASS(nBlockSize) { }

  0007f	6a 0a		 push	 10			; 0000000aH
  00081	8b ce		 mov	 ecx, esi
; File D:\git\src\IBK\IBK_DRFN\ProjSrc\SrcChartEx\ChartOCX\ChartObject\VertScaleGroup.cpp

; 87   : {

  00083	89 75 08	 mov	 DWORD PTR _this$[ebp], esi
; File C:\Program Files (x86)\Microsoft Visual Studio\2019\Community\VC\Tools\MSVC\14.29.30133\atlmfc\include\afxtempl.h

; 1876 : 		: BASE_CLASS(nBlockSize) { }

  00086	e8 00 00 00 00	 call	 ??0CObList@@QAE@H@Z	; CObList::CObList

; 1953 : 		: _CTypedPtrList<BASE_CLASS, TYPE>(nBlockSize) { }

  0008b	c7 06 00 00 00
	00		 mov	 DWORD PTR [esi], OFFSET ??_7?$CTypedPtrList@VCObList@@PAVCGraphImp@@@@6B@
; File D:\git\src\IBK\IBK_DRFN\ProjSrc\SrcChartEx\ChartOCX\ChartObject\VertScaleGroup.cpp

; 94   : }

  00091	8b c7		 mov	 eax, edi
  00093	c7 87 94 00 00
	00 00 00 00 00	 mov	 DWORD PTR [edi+148], 0
  0009d	c7 47 04 00 00
	00 00		 mov	 DWORD PTR [edi+4], 0
  000a4	c7 87 98 00 00
	00 00 00 00 00	 mov	 DWORD PTR [edi+152], 0
  000ae	c7 87 9c 00 00
	00 00 00 00 00	 mov	 DWORD PTR [edi+156], 0
  000b8	8b 4d f4	 mov	 ecx, DWORD PTR __$EHRec$[ebp]
  000bb	64 89 0d 00 00
	00 00		 mov	 DWORD PTR fs:0, ecx
  000c2	59		 pop	 ecx
  000c3	5f		 pop	 edi
  000c4	5e		 pop	 esi
  000c5	8b e5		 mov	 esp, ebp
  000c7	5d		 pop	 ebp
  000c8	c2 0c 00	 ret	 12			; 0000000cH
_TEXT	ENDS
;	COMDAT text$x
text$x	SEGMENT
__unwindfunclet$??0CVertScaleGroup@@QAE@PAVCMainBlockBaseData@@PAVCVertScaleGroupList@@ABVCVerticalScale@@@Z$0:
  00000	8b 4d f0	 mov	 ecx, DWORD PTR _this$[ebp]
  00003	83 c1 10	 add	 ecx, 16			; 00000010H
  00006	ff 25 00 00 00
	00		 jmp	 DWORD PTR __imp_??1CVerticalScale@@QAE@XZ
  0000c	cc		 int	 3
  0000d	cc		 int	 3
  0000e	cc		 int	 3
  0000f	cc		 int	 3
  00010	cc		 int	 3
__ehhandler$??0CVertScaleGroup@@QAE@PAVCMainBlockBaseData@@PAVCVertScaleGroupList@@ABVCVerticalScale@@@Z:
  00011	90		 npad	 1
  00012	90		 npad	 1
  00013	8b 54 24 08	 mov	 edx, DWORD PTR [esp+8]
  00017	8d 42 0c	 lea	 eax, DWORD PTR [edx+12]
  0001a	8b 4a e0	 mov	 ecx, DWORD PTR [edx-32]
  0001d	33 c8		 xor	 ecx, eax
  0001f	e8 00 00 00 00	 call	 @__security_check_cookie@4
  00024	b8 00 00 00 00	 mov	 eax, OFFSET __ehfuncinfo$??0CVertScaleGroup@@QAE@PAVCMainBlockBaseData@@PAVCVertScaleGroupList@@ABVCVerticalScale@@@Z
  00029	e9 00 00 00 00	 jmp	 ___CxxFrameHandler3
text$x	ENDS
??0CVertScaleGroup@@QAE@PAVCMainBlockBaseData@@PAVCVertScaleGroupList@@ABVCVerticalScale@@@Z ENDP ; CVertScaleGroup::CVertScaleGroup
; Function compile flags: /Ogtp
; File D:\git\src\IBK\IBK_DRFN\ProjSrc\SrcChartEx\ChartOCX\ChartObject\VertScaleGroup.cpp
; File C:\Program Files (x86)\Microsoft Visual Studio\2019\Community\VC\Tools\MSVC\14.29.30133\atlmfc\include\afxtempl.h
; File D:\git\src\IBK\IBK_DRFN\ProjSrc\SrcChartEx\ChartOCX\ChartObject\VertScaleGroup.cpp
; File C:\Program Files (x86)\Microsoft Visual Studio\2019\Community\VC\Tools\MSVC\14.29.30133\atlmfc\include\afxtempl.h
; File D:\git\src\IBK\IBK_DRFN\ProjSrc\SrcChartEx\ChartOCX\ChartObject\VertScaleGroup.cpp
;	COMDAT ??0CVertScaleGroup@@QAE@PAXPAVCMainBlockBaseData@@PAVCVertScaleGroupList@@PAD@Z
_TEXT	SEGMENT
$T2 = -32						; size = 8
$T3 = -24						; size = 8
_this$ = -16						; size = 4
__$EHRec$ = -12						; size = 12
_pPacketRQ$ = 8						; size = 4
_this$ = 12						; size = 4
_pMainBlockBaseData$ = 12				; size = 4
_pVertScaleGroupList$ = 16				; size = 4
_p_szVertScaleGroup$ = 20				; size = 4
??0CVertScaleGroup@@QAE@PAXPAVCMainBlockBaseData@@PAVCVertScaleGroupList@@PAD@Z PROC ; CVertScaleGroup::CVertScaleGroup, COMDAT
; _this$ = ecx

; 69   : {

  00000	55		 push	 ebp
  00001	8b ec		 mov	 ebp, esp
  00003	6a ff		 push	 -1
  00005	68 00 00 00 00	 push	 __ehhandler$??0CVertScaleGroup@@QAE@PAXPAVCMainBlockBaseData@@PAVCVertScaleGroupList@@PAD@Z
  0000a	64 a1 00 00 00
	00		 mov	 eax, DWORD PTR fs:0
  00010	50		 push	 eax
  00011	83 ec 14	 sub	 esp, 20			; 00000014H
  00014	56		 push	 esi
  00015	57		 push	 edi
  00016	a1 00 00 00 00	 mov	 eax, DWORD PTR ___security_cookie
  0001b	33 c5		 xor	 eax, ebp
  0001d	50		 push	 eax
  0001e	8d 45 f4	 lea	 eax, DWORD PTR __$EHRec$[ebp]
  00021	64 a3 00 00 00
	00		 mov	 DWORD PTR fs:0, eax
  00027	8b f9		 mov	 edi, ecx
  00029	89 7d f0	 mov	 DWORD PTR _this$[ebp], edi

; 65   : 	m_pMainBlockBaseData(pMainBlockBaseData),

  0002c	8b 45 0c	 mov	 eax, DWORD PTR _pMainBlockBaseData$[ebp]

; 69   : {

  0002f	8d 4f 10	 lea	 ecx, DWORD PTR [edi+16]
  00032	89 47 08	 mov	 DWORD PTR [edi+8], eax
  00035	8b 45 10	 mov	 eax, DWORD PTR _pVertScaleGroupList$[ebp]
  00038	c7 07 00 00 00
	00		 mov	 DWORD PTR [edi], OFFSET ??_7CVertScaleGroup@@6B@
  0003e	89 47 0c	 mov	 DWORD PTR [edi+12], eax
  00041	ff 15 00 00 00
	00		 call	 DWORD PTR __imp_??0CVerticalScale@@QAE@XZ
  00047	8d 45 e8	 lea	 eax, DWORD PTR $T3[ebp]
  0004a	c7 45 fc 00 00
	00 00		 mov	 DWORD PTR __$EHRec$[ebp+8], 0
  00051	50		 push	 eax
  00052	0f 57 c0	 xorps	 xmm0, xmm0
  00055	8d 45 e0	 lea	 eax, DWORD PTR $T2[ebp]
  00058	50		 push	 eax
  00059	8d 4f 68	 lea	 ecx, DWORD PTR [edi+104]
  0005c	f2 0f 11 45 e8	 movsd	 QWORD PTR $T3[ebp], xmm0
  00061	f2 0f 11 45 e0	 movsd	 QWORD PTR $T2[ebp], xmm0
  00066	ff 15 00 00 00
	00		 call	 DWORD PTR __imp_??0CDisplayDataMinMax@@QAE@ABN0@Z
  0006c	8d 77 78	 lea	 esi, DWORD PTR [edi+120]
; File C:\Program Files (x86)\Microsoft Visual Studio\2019\Community\VC\Tools\MSVC\14.29.30133\atlmfc\include\afxtempl.h

; 1876 : 		: BASE_CLASS(nBlockSize) { }

  0006f	6a 0a		 push	 10			; 0000000aH
  00071	8b ce		 mov	 ecx, esi
; File D:\git\src\IBK\IBK_DRFN\ProjSrc\SrcChartEx\ChartOCX\ChartObject\VertScaleGroup.cpp

; 69   : {

  00073	89 75 0c	 mov	 DWORD PTR _this$[ebp], esi
; File C:\Program Files (x86)\Microsoft Visual Studio\2019\Community\VC\Tools\MSVC\14.29.30133\atlmfc\include\afxtempl.h

; 1876 : 		: BASE_CLASS(nBlockSize) { }

  00076	e8 00 00 00 00	 call	 ??0CObList@@QAE@H@Z	; CObList::CObList

; 1953 : 		: _CTypedPtrList<BASE_CLASS, TYPE>(nBlockSize) { }

  0007b	c7 06 00 00 00
	00		 mov	 DWORD PTR [esi], OFFSET ??_7?$CTypedPtrList@VCObList@@PAVCGraphImp@@@@6B@
; File D:\git\src\IBK\IBK_DRFN\ProjSrc\SrcChartEx\ChartOCX\ChartObject\VertScaleGroup.cpp

; 77   : 	MakeGraphs(pPacketRQ, p_szVertScaleGroup);

  00081	ff 75 14	 push	 DWORD PTR _p_szVertScaleGroup$[ebp]
  00084	8b cf		 mov	 ecx, edi
  00086	c6 45 fc 01	 mov	 BYTE PTR __$EHRec$[ebp+8], 1
  0008a	ff 75 08	 push	 DWORD PTR _pPacketRQ$[ebp]
  0008d	c7 87 94 00 00
	00 00 00 00 00	 mov	 DWORD PTR [edi+148], 0
  00097	c7 47 04 00 00
	00 00		 mov	 DWORD PTR [edi+4], 0
  0009e	c7 87 98 00 00
	00 00 00 00 00	 mov	 DWORD PTR [edi+152], 0
  000a8	c7 87 9c 00 00
	00 00 00 00 00	 mov	 DWORD PTR [edi+156], 0
  000b2	e8 00 00 00 00	 call	 ?MakeGraphs@CVertScaleGroup@@QAEXPAXPAD@Z ; CVertScaleGroup::MakeGraphs

; 78   : }

  000b7	8b c7		 mov	 eax, edi
  000b9	8b 4d f4	 mov	 ecx, DWORD PTR __$EHRec$[ebp]
  000bc	64 89 0d 00 00
	00 00		 mov	 DWORD PTR fs:0, ecx
  000c3	59		 pop	 ecx
  000c4	5f		 pop	 edi
  000c5	5e		 pop	 esi
  000c6	8b e5		 mov	 esp, ebp
  000c8	5d		 pop	 ebp
  000c9	c2 10 00	 ret	 16			; 00000010H
_TEXT	ENDS
;	COMDAT text$x
text$x	SEGMENT
__unwindfunclet$??0CVertScaleGroup@@QAE@PAXPAVCMainBlockBaseData@@PAVCVertScaleGroupList@@PAD@Z$0:
  00000	8b 4d f0	 mov	 ecx, DWORD PTR _this$[ebp]
  00003	83 c1 10	 add	 ecx, 16			; 00000010H
  00006	ff 25 00 00 00
	00		 jmp	 DWORD PTR __imp_??1CVerticalScale@@QAE@XZ
__unwindfunclet$??0CVertScaleGroup@@QAE@PAXPAVCMainBlockBaseData@@PAVCVertScaleGroupList@@PAD@Z$1:
  0000c	8b 4d f0	 mov	 ecx, DWORD PTR _this$[ebp]
  0000f	83 c1 78	 add	 ecx, 120		; 00000078H
  00012	e9 00 00 00 00	 jmp	 ??1?$CTypedPtrList@VCObList@@PAVCGraphImp@@@@UAE@XZ
  00017	cc		 int	 3
  00018	cc		 int	 3
  00019	cc		 int	 3
  0001a	cc		 int	 3
  0001b	cc		 int	 3
__ehhandler$??0CVertScaleGroup@@QAE@PAXPAVCMainBlockBaseData@@PAVCVertScaleGroupList@@PAD@Z:
  0001c	90		 npad	 1
  0001d	90		 npad	 1
  0001e	8b 54 24 08	 mov	 edx, DWORD PTR [esp+8]
  00022	8d 42 0c	 lea	 eax, DWORD PTR [edx+12]
  00025	8b 4a e0	 mov	 ecx, DWORD PTR [edx-32]
  00028	33 c8		 xor	 ecx, eax
  0002a	e8 00 00 00 00	 call	 @__security_check_cookie@4
  0002f	b8 00 00 00 00	 mov	 eax, OFFSET __ehfuncinfo$??0CVertScaleGroup@@QAE@PAXPAVCMainBlockBaseData@@PAVCVertScaleGroupList@@PAD@Z
  00034	e9 00 00 00 00	 jmp	 ___CxxFrameHandler3
text$x	ENDS
??0CVertScaleGroup@@QAE@PAXPAVCMainBlockBaseData@@PAVCVertScaleGroupList@@PAD@Z ENDP ; CVertScaleGroup::CVertScaleGroup
; Function compile flags: /Ogtp
; File D:\git\src\IBK\IBK_DRFN\ProjSrc\SrcChartEx\ChartOCX\ChartObject\VertScaleGroup.cpp
; File C:\Program Files (x86)\Microsoft Visual Studio\2019\Community\VC\Tools\MSVC\14.29.30133\atlmfc\include\afxtempl.h
; File D:\git\src\IBK\IBK_DRFN\ProjSrc\SrcChartEx\ChartOCX\ChartObject\VertScaleGroup.cpp
; File C:\Program Files (x86)\Microsoft Visual Studio\2019\Community\VC\Tools\MSVC\14.29.30133\atlmfc\include\afxtempl.h
; File D:\git\src\IBK\IBK_DRFN\ProjSrc\SrcChartEx\ChartOCX\ChartObject\VertScaleGroup.cpp
; File C:\Program Files (x86)\Windows Kits\10\Include\10.0.22000.0\ucrt\string.h
; File D:\git\src\IBK\IBK_DRFN\ProjSrc\SrcChartEx\ChartOCX\ChartObject\VertScaleGroup.cpp
; File C:\Program Files (x86)\Windows Kits\10\Include\10.0.22000.0\ucrt\string.h
; File D:\git\src\IBK\IBK_DRFN\ProjSrc\SrcChartEx\ChartOCX\ChartObject\VertScaleGroup.cpp
; File C:\Program Files (x86)\Windows Kits\10\Include\10.0.22000.0\ucrt\string.h
; File D:\git\src\IBK\IBK_DRFN\ProjSrc\SrcChartEx\ChartOCX\ChartObject\VertScaleGroup.cpp
; File C:\Program Files (x86)\Windows Kits\10\Include\10.0.22000.0\ucrt\string.h
; File D:\git\src\IBK\IBK_DRFN\ProjSrc\SrcChartEx\ChartOCX\ChartObject\VertScaleGroup.cpp
; File C:\Program Files (x86)\Windows Kits\10\Include\10.0.22000.0\ucrt\string.h
; File D:\git\src\IBK\IBK_DRFN\ProjSrc\SrcChartEx\ChartOCX\ChartObject\VertScaleGroup.cpp
; File C:\Program Files (x86)\Windows Kits\10\Include\10.0.22000.0\ucrt\string.h
; File D:\git\src\IBK\IBK_DRFN\ProjSrc\SrcChartEx\ChartOCX\ChartObject\VertScaleGroup.cpp
; File C:\Program Files (x86)\Windows Kits\10\Include\10.0.22000.0\ucrt\string.h
; File D:\git\src\IBK\IBK_DRFN\ProjSrc\SrcChartEx\ChartOCX\ChartObject\VertScaleGroup.cpp
; File C:\Program Files (x86)\Windows Kits\10\Include\10.0.22000.0\ucrt\string.h
; File D:\git\src\IBK\IBK_DRFN\ProjSrc\SrcChartEx\ChartOCX\ChartObject\VertScaleGroup.cpp
; File C:\Program Files (x86)\Windows Kits\10\Include\10.0.22000.0\ucrt\string.h
; File D:\git\src\IBK\IBK_DRFN\ProjSrc\SrcChartEx\ChartOCX\ChartObject\VertScaleGroup.cpp
; File C:\Program Files (x86)\Windows Kits\10\Include\10.0.22000.0\ucrt\string.h
; File D:\git\src\IBK\IBK_DRFN\ProjSrc\SrcChartEx\ChartOCX\ChartObject\VertScaleGroup.cpp
;	COMDAT ??0CVertScaleGroup@@QAE@PAVCMainBlockBaseData@@PAVCVertScaleGroupList@@PAD@Z
_TEXT	SEGMENT
$T2 = -32						; size = 8
$T3 = -24						; size = 8
_this$ = -16						; size = 4
__$EHRec$ = -12						; size = 12
_this$ = 8						; size = 4
_pMainBlockBaseData$ = 8				; size = 4
_pVertScaleGroupList$ = 12				; size = 4
_p_szVertScaleGroup$ = 16				; size = 4
_cGraphEnd$1$ = 19					; size = 1
??0CVertScaleGroup@@QAE@PAVCMainBlockBaseData@@PAVCVertScaleGroupList@@PAD@Z PROC ; CVertScaleGroup::CVertScaleGroup, COMDAT
; _this$ = ecx

; 52   : {

  00000	55		 push	 ebp
  00001	8b ec		 mov	 ebp, esp
  00003	6a ff		 push	 -1
  00005	68 00 00 00 00	 push	 __ehhandler$??0CVertScaleGroup@@QAE@PAVCMainBlockBaseData@@PAVCVertScaleGroupList@@PAD@Z
  0000a	64 a1 00 00 00
	00		 mov	 eax, DWORD PTR fs:0
  00010	50		 push	 eax
  00011	83 ec 14	 sub	 esp, 20			; 00000014H
  00014	53		 push	 ebx
  00015	56		 push	 esi
  00016	57		 push	 edi
  00017	a1 00 00 00 00	 mov	 eax, DWORD PTR ___security_cookie
  0001c	33 c5		 xor	 eax, ebp
  0001e	50		 push	 eax
  0001f	8d 45 f4	 lea	 eax, DWORD PTR __$EHRec$[ebp]
  00022	64 a3 00 00 00
	00		 mov	 DWORD PTR fs:0, eax
  00028	8b d9		 mov	 ebx, ecx
  0002a	89 5d f0	 mov	 DWORD PTR _this$[ebp], ebx

; 48   : 	m_pMainBlockBaseData(pMainBlockBaseData),

  0002d	8b 45 08	 mov	 eax, DWORD PTR _pMainBlockBaseData$[ebp]

; 52   : {

  00030	8d 4b 10	 lea	 ecx, DWORD PTR [ebx+16]
  00033	89 43 08	 mov	 DWORD PTR [ebx+8], eax
  00036	8b 45 0c	 mov	 eax, DWORD PTR _pVertScaleGroupList$[ebp]
  00039	c7 03 00 00 00
	00		 mov	 DWORD PTR [ebx], OFFSET ??_7CVertScaleGroup@@6B@
  0003f	89 43 0c	 mov	 DWORD PTR [ebx+12], eax
  00042	ff 15 00 00 00
	00		 call	 DWORD PTR __imp_??0CVerticalScale@@QAE@XZ
  00048	8d 45 e8	 lea	 eax, DWORD PTR $T3[ebp]
  0004b	c7 45 fc 00 00
	00 00		 mov	 DWORD PTR __$EHRec$[ebp+8], 0
  00052	50		 push	 eax
  00053	0f 57 c0	 xorps	 xmm0, xmm0
  00056	8d 45 e0	 lea	 eax, DWORD PTR $T2[ebp]
  00059	50		 push	 eax
  0005a	8d 4b 68	 lea	 ecx, DWORD PTR [ebx+104]
  0005d	f2 0f 11 45 e8	 movsd	 QWORD PTR $T3[ebp], xmm0
  00062	f2 0f 11 45 e0	 movsd	 QWORD PTR $T2[ebp], xmm0
  00067	ff 15 00 00 00
	00		 call	 DWORD PTR __imp_??0CDisplayDataMinMax@@QAE@ABN0@Z
  0006d	8d 73 78	 lea	 esi, DWORD PTR [ebx+120]
; File C:\Program Files (x86)\Microsoft Visual Studio\2019\Community\VC\Tools\MSVC\14.29.30133\atlmfc\include\afxtempl.h

; 1876 : 		: BASE_CLASS(nBlockSize) { }

  00070	6a 0a		 push	 10			; 0000000aH
  00072	8b ce		 mov	 ecx, esi
; File D:\git\src\IBK\IBK_DRFN\ProjSrc\SrcChartEx\ChartOCX\ChartObject\VertScaleGroup.cpp

; 52   : {

  00074	89 75 08	 mov	 DWORD PTR _this$[ebp], esi
; File C:\Program Files (x86)\Microsoft Visual Studio\2019\Community\VC\Tools\MSVC\14.29.30133\atlmfc\include\afxtempl.h

; 1876 : 		: BASE_CLASS(nBlockSize) { }

  00077	e8 00 00 00 00	 call	 ??0CObList@@QAE@H@Z	; CObList::CObList

; 1953 : 		: _CTypedPtrList<BASE_CLASS, TYPE>(nBlockSize) { }

  0007c	c7 06 00 00 00
	00		 mov	 DWORD PTR [esi], OFFSET ??_7?$CTypedPtrList@VCObList@@PAVCGraphImp@@@@6B@
; File D:\git\src\IBK\IBK_DRFN\ProjSrc\SrcChartEx\ChartOCX\ChartObject\VertScaleGroup.cpp

; 277  : 	DeleteAll();

  00082	8b cb		 mov	 ecx, ebx

; 52   : {

  00084	c6 45 fc 01	 mov	 BYTE PTR __$EHRec$[ebp+8], 1

; 49   : 	m_pVertScaleGroupList(pVertScaleGroupList),
; 50   : 	m_displayDataMinMax( 0, 0),
; 51   : 	m_lpSelectedGraph(NULL)		// Y Scale    - ojtaso (20070807)

  00088	c7 83 94 00 00
	00 00 00 00 00	 mov	 DWORD PTR [ebx+148], 0

; 53   : 	// (2007/2/16 - Seung-Won, Bae) Protect the redestructing on Destructor.
; 54   : 	m_bOnDestructor = FALSE;

  00092	c7 43 04 00 00
	00 00		 mov	 DWORD PTR [ebx+4], 0

; 55   : 
; 56   : 	// (2007/1/14 - Seung-Won, Bae) Get the Base Packet for Default Scale Min/Max
; 57   : 	m_pBaseGraph	= NULL;

  00099	c7 83 98 00 00
	00 00 00 00 00	 mov	 DWORD PTR [ebx+152], 0

; 58   : 	m_pBasePacket	= NULL;

  000a3	c7 83 9c 00 00
	00 00 00 00 00	 mov	 DWORD PTR [ebx+156], 0

; 277  : 	DeleteAll();

  000ad	e8 00 00 00 00	 call	 ?DeleteAll@CVertScaleGroup@@QAEXXZ ; CVertScaleGroup::DeleteAll
; File C:\Program Files (x86)\Windows Kits\10\Include\10.0.22000.0\ucrt\string.h

; 520  :         return const_cast<char*>(strstr(static_cast<char const*>(_String), _SubString));

  000b2	68 00 00 00 00	 push	 OFFSET ??_C@_02PCIJFNDE@?$AN?6@
  000b7	ff 75 10	 push	 DWORD PTR _p_szVertScaleGroup$[ebp]
  000ba	e8 00 00 00 00	 call	 _strstr
; File D:\git\src\IBK\IBK_DRFN\ProjSrc\SrcChartEx\ChartOCX\ChartObject\VertScaleGroup.cpp

; 279  : 	char *szGraph = strstr( p_szVertScaleGroup, "\r\n");

  000bf	8b f8		 mov	 edi, eax
; File C:\Program Files (x86)\Windows Kits\10\Include\10.0.22000.0\ucrt\string.h

; 520  :         return const_cast<char*>(strstr(static_cast<char const*>(_String), _SubString));

  000c1	83 c4 08	 add	 esp, 8
; File D:\git\src\IBK\IBK_DRFN\ProjSrc\SrcChartEx\ChartOCX\ChartObject\VertScaleGroup.cpp

; 280  : 	if( !szGraph) return;

  000c4	85 ff		 test	 edi, edi
  000c6	74 7f		 je	 SHORT $LN33@CVertScale

; 281  : 	*szGraph = '\0';

  000c8	c6 07 00	 mov	 BYTE PTR [edi], 0

; 282  : 
; 283  : 	m_vertScale.SetScaleData( p_szVertScaleGroup, m_pMainBlockBaseData->GetParent_Handle());

  000cb	8b 4b 08	 mov	 ecx, DWORD PTR [ebx+8]
  000ce	8b 73 10	 mov	 esi, DWORD PTR [ebx+16]
  000d1	e8 00 00 00 00	 call	 ?GetParent_Handle@CMainBlockBaseData@@QBEPAUHWND__@@XZ ; CMainBlockBaseData::GetParent_Handle
  000d6	50		 push	 eax
  000d7	ff 75 10	 push	 DWORD PTR _p_szVertScaleGroup$[ebp]
  000da	8d 4b 10	 lea	 ecx, DWORD PTR [ebx+16]
  000dd	ff 16		 call	 DWORD PTR [esi]
; File C:\Program Files (x86)\Windows Kits\10\Include\10.0.22000.0\ucrt\string.h

; 520  :         return const_cast<char*>(strstr(static_cast<char const*>(_String), _SubString));

  000df	68 00 00 00 00	 push	 OFFSET ??_C@_08BHMMGBBH@Graph?$DL?$AN?6@
  000e4	57		 push	 edi
; File D:\git\src\IBK\IBK_DRFN\ProjSrc\SrcChartEx\ChartOCX\ChartObject\VertScaleGroup.cpp

; 284  : 	*szGraph = '\r';

  000e5	c6 07 0d	 mov	 BYTE PTR [edi], 13	; 0000000dH

; 285  : 
; 286  : 	char cGraphEnd = 0;

  000e8	c6 45 13 00	 mov	 BYTE PTR _cGraphEnd$1$[ebp], 0
; File C:\Program Files (x86)\Windows Kits\10\Include\10.0.22000.0\ucrt\string.h

; 520  :         return const_cast<char*>(strstr(static_cast<char const*>(_String), _SubString));

  000ec	e8 00 00 00 00	 call	 _strstr
; File D:\git\src\IBK\IBK_DRFN\ProjSrc\SrcChartEx\ChartOCX\ChartObject\VertScaleGroup.cpp

; 288  : 	szGraph = strstr( szGraph, "Graph;\r\n");

  000f1	8b f8		 mov	 edi, eax
; File C:\Program Files (x86)\Windows Kits\10\Include\10.0.22000.0\ucrt\string.h

; 520  :         return const_cast<char*>(strstr(static_cast<char const*>(_String), _SubString));

  000f3	83 c4 08	 add	 esp, 8
; File D:\git\src\IBK\IBK_DRFN\ProjSrc\SrcChartEx\ChartOCX\ChartObject\VertScaleGroup.cpp

; 289  : 	while( szGraph)

  000f6	85 ff		 test	 edi, edi
  000f8	74 4d		 je	 SHORT $LN33@CVertScale
  000fa	66 0f 1f 44 00
	00		 npad	 6
$LL12@CVertScale:
; File C:\Program Files (x86)\Windows Kits\10\Include\10.0.22000.0\ucrt\string.h

; 520  :         return const_cast<char*>(strstr(static_cast<char const*>(_String), _SubString));

  00100	68 00 00 00 00	 push	 OFFSET ??_C@_0M@DGHFHKEI@GraphEnd?$DL?$AN?6@
  00105	57		 push	 edi
  00106	e8 00 00 00 00	 call	 _strstr
; File D:\git\src\IBK\IBK_DRFN\ProjSrc\SrcChartEx\ChartOCX\ChartObject\VertScaleGroup.cpp

; 291  : 		szGraphEnd = strstr( szGraph, "GraphEnd;\r\n");

  0010b	8b f0		 mov	 esi, eax
; File C:\Program Files (x86)\Windows Kits\10\Include\10.0.22000.0\ucrt\string.h

; 520  :         return const_cast<char*>(strstr(static_cast<char const*>(_String), _SubString));

  0010d	83 c4 08	 add	 esp, 8
; File D:\git\src\IBK\IBK_DRFN\ProjSrc\SrcChartEx\ChartOCX\ChartObject\VertScaleGroup.cpp

; 292  : 		if( szGraphEnd)

  00110	85 f6		 test	 esi, esi
  00112	74 0c		 je	 SHORT $LN15@CVertScale

; 293  : 		{
; 294  : 			szGraphEnd += 11;									// "GraphEnd;\r\n"
; 295  : 			cGraphEnd = *szGraphEnd;

  00114	8a 46 0b	 mov	 al, BYTE PTR [esi+11]
  00117	83 c6 0b	 add	 esi, 11			; 0000000bH
  0011a	88 45 13	 mov	 BYTE PTR _cGraphEnd$1$[ebp], al

; 296  : 			*szGraphEnd = '\0';

  0011d	c6 06 00	 mov	 BYTE PTR [esi], 0
$LN15@CVertScale:

; 297  : 		}
; 298  : 
; 299  : 		MakeGraph( szGraph);

  00120	6a 01		 push	 1
  00122	57		 push	 edi
  00123	8b cb		 mov	 ecx, ebx
  00125	e8 00 00 00 00	 call	 ?MakeGraph@CVertScaleGroup@@QAE_NPAD_N@Z ; CVertScaleGroup::MakeGraph

; 300  : 		if( szGraphEnd)

  0012a	85 f6		 test	 esi, esi
  0012c	74 19		 je	 SHORT $LN33@CVertScale

; 302  : 			*szGraphEnd = cGraphEnd;

  0012e	8a 45 13	 mov	 al, BYTE PTR _cGraphEnd$1$[ebp]
; File C:\Program Files (x86)\Windows Kits\10\Include\10.0.22000.0\ucrt\string.h

; 520  :         return const_cast<char*>(strstr(static_cast<char const*>(_String), _SubString));

  00131	68 00 00 00 00	 push	 OFFSET ??_C@_08BHMMGBBH@Graph?$DL?$AN?6@
  00136	56		 push	 esi
; File D:\git\src\IBK\IBK_DRFN\ProjSrc\SrcChartEx\ChartOCX\ChartObject\VertScaleGroup.cpp

; 302  : 			*szGraphEnd = cGraphEnd;

  00137	88 06		 mov	 BYTE PTR [esi], al
; File C:\Program Files (x86)\Windows Kits\10\Include\10.0.22000.0\ucrt\string.h

; 520  :         return const_cast<char*>(strstr(static_cast<char const*>(_String), _SubString));

  00139	e8 00 00 00 00	 call	 _strstr
; File D:\git\src\IBK\IBK_DRFN\ProjSrc\SrcChartEx\ChartOCX\ChartObject\VertScaleGroup.cpp

; 303  : 			szGraph = strstr( szGraphEnd, "Graph;\r\n");

  0013e	8b f8		 mov	 edi, eax
; File C:\Program Files (x86)\Windows Kits\10\Include\10.0.22000.0\ucrt\string.h

; 520  :         return const_cast<char*>(strstr(static_cast<char const*>(_String), _SubString));

  00140	83 c4 08	 add	 esp, 8
; File D:\git\src\IBK\IBK_DRFN\ProjSrc\SrcChartEx\ChartOCX\ChartObject\VertScaleGroup.cpp

; 289  : 	while( szGraph)

  00143	85 ff		 test	 edi, edi
  00145	75 b9		 jne	 SHORT $LL12@CVertScale
$LN33@CVertScale:

; 59   : 
; 60   : 	MakeGraphs( p_szVertScaleGroup);
; 61   : }

  00147	8b c3		 mov	 eax, ebx
  00149	8b 4d f4	 mov	 ecx, DWORD PTR __$EHRec$[ebp]
  0014c	64 89 0d 00 00
	00 00		 mov	 DWORD PTR fs:0, ecx
  00153	59		 pop	 ecx
  00154	5f		 pop	 edi
  00155	5e		 pop	 esi
  00156	5b		 pop	 ebx
  00157	8b e5		 mov	 esp, ebp
  00159	5d		 pop	 ebp
  0015a	c2 0c 00	 ret	 12			; 0000000cH
_TEXT	ENDS
;	COMDAT text$x
text$x	SEGMENT
__unwindfunclet$??0CVertScaleGroup@@QAE@PAVCMainBlockBaseData@@PAVCVertScaleGroupList@@PAD@Z$0:
  00000	8b 4d f0	 mov	 ecx, DWORD PTR _this$[ebp]
  00003	83 c1 10	 add	 ecx, 16			; 00000010H
  00006	ff 25 00 00 00
	00		 jmp	 DWORD PTR __imp_??1CVerticalScale@@QAE@XZ
__unwindfunclet$??0CVertScaleGroup@@QAE@PAVCMainBlockBaseData@@PAVCVertScaleGroupList@@PAD@Z$1:
  0000c	8b 4d f0	 mov	 ecx, DWORD PTR _this$[ebp]
  0000f	83 c1 78	 add	 ecx, 120		; 00000078H
  00012	e9 00 00 00 00	 jmp	 ??1?$CTypedPtrList@VCObList@@PAVCGraphImp@@@@UAE@XZ
  00017	cc		 int	 3
  00018	cc		 int	 3
  00019	cc		 int	 3
  0001a	cc		 int	 3
  0001b	cc		 int	 3
__ehhandler$??0CVertScaleGroup@@QAE@PAVCMainBlockBaseData@@PAVCVertScaleGroupList@@PAD@Z:
  0001c	90		 npad	 1
  0001d	90		 npad	 1
  0001e	8b 54 24 08	 mov	 edx, DWORD PTR [esp+8]
  00022	8d 42 0c	 lea	 eax, DWORD PTR [edx+12]
  00025	8b 4a dc	 mov	 ecx, DWORD PTR [edx-36]
  00028	33 c8		 xor	 ecx, eax
  0002a	e8 00 00 00 00	 call	 @__security_check_cookie@4
  0002f	b8 00 00 00 00	 mov	 eax, OFFSET __ehfuncinfo$??0CVertScaleGroup@@QAE@PAVCMainBlockBaseData@@PAVCVertScaleGroupList@@PAD@Z
  00034	e9 00 00 00 00	 jmp	 ___CxxFrameHandler3
text$x	ENDS
??0CVertScaleGroup@@QAE@PAVCMainBlockBaseData@@PAVCVertScaleGroupList@@PAD@Z ENDP ; CVertScaleGroup::CVertScaleGroup
; Function compile flags: /Ogtp
; File D:\git\src\IBK\IBK_DRFN\ProjSrc\SrcChartEx\ChartOCX\ChartObject\VertScaleGroup.cpp
; File C:\Program Files (x86)\Microsoft Visual Studio\2019\Community\VC\Tools\MSVC\14.29.30133\atlmfc\include\afxtempl.h
; File D:\git\src\IBK\IBK_DRFN\ProjSrc\SrcChartEx\ChartOCX\ChartObject\VertScaleGroup.cpp
; File C:\Program Files (x86)\Microsoft Visual Studio\2019\Community\VC\Tools\MSVC\14.29.30133\atlmfc\include\afxtempl.h
; File D:\git\src\IBK\IBK_DRFN\ProjSrc\SrcChartEx\ChartOCX\ChartObject\VertScaleGroup.cpp
;	COMDAT ??0CVertScaleGroup@@QAE@PAVCMainBlockBaseData@@PAVCVertScaleGroupList@@@Z
_TEXT	SEGMENT
$T2 = -32						; size = 8
$T3 = -24						; size = 8
_this$ = -16						; size = 4
__$EHRec$ = -12						; size = 12
_this$ = 8						; size = 4
_pMainBlockBaseData$ = 8				; size = 4
_pVertScaleGroupList$ = 12				; size = 4
??0CVertScaleGroup@@QAE@PAVCMainBlockBaseData@@PAVCVertScaleGroupList@@@Z PROC ; CVertScaleGroup::CVertScaleGroup, COMDAT
; _this$ = ecx

; 38   : {

  00000	55		 push	 ebp
  00001	8b ec		 mov	 ebp, esp
  00003	6a ff		 push	 -1
  00005	68 00 00 00 00	 push	 __ehhandler$??0CVertScaleGroup@@QAE@PAVCMainBlockBaseData@@PAVCVertScaleGroupList@@@Z
  0000a	64 a1 00 00 00
	00		 mov	 eax, DWORD PTR fs:0
  00010	50		 push	 eax
  00011	83 ec 14	 sub	 esp, 20			; 00000014H
  00014	56		 push	 esi
  00015	57		 push	 edi
  00016	a1 00 00 00 00	 mov	 eax, DWORD PTR ___security_cookie
  0001b	33 c5		 xor	 eax, ebp
  0001d	50		 push	 eax
  0001e	8d 45 f4	 lea	 eax, DWORD PTR __$EHRec$[ebp]
  00021	64 a3 00 00 00
	00		 mov	 DWORD PTR fs:0, eax
  00027	8b f9		 mov	 edi, ecx
  00029	89 7d f0	 mov	 DWORD PTR _this$[ebp], edi

; 34   : 	m_pMainBlockBaseData( pMainBlockBaseData),

  0002c	8b 45 08	 mov	 eax, DWORD PTR _pMainBlockBaseData$[ebp]

; 38   : {

  0002f	8d 4f 10	 lea	 ecx, DWORD PTR [edi+16]
  00032	89 47 08	 mov	 DWORD PTR [edi+8], eax
  00035	8b 45 0c	 mov	 eax, DWORD PTR _pVertScaleGroupList$[ebp]
  00038	c7 07 00 00 00
	00		 mov	 DWORD PTR [edi], OFFSET ??_7CVertScaleGroup@@6B@
  0003e	89 47 0c	 mov	 DWORD PTR [edi+12], eax
  00041	ff 15 00 00 00
	00		 call	 DWORD PTR __imp_??0CVerticalScale@@QAE@XZ
  00047	8d 45 e8	 lea	 eax, DWORD PTR $T3[ebp]
  0004a	c7 45 fc 00 00
	00 00		 mov	 DWORD PTR __$EHRec$[ebp+8], 0
  00051	50		 push	 eax
  00052	0f 57 c0	 xorps	 xmm0, xmm0
  00055	8d 45 e0	 lea	 eax, DWORD PTR $T2[ebp]
  00058	50		 push	 eax
  00059	8d 4f 68	 lea	 ecx, DWORD PTR [edi+104]
  0005c	f2 0f 11 45 e8	 movsd	 QWORD PTR $T3[ebp], xmm0
  00061	f2 0f 11 45 e0	 movsd	 QWORD PTR $T2[ebp], xmm0
  00066	ff 15 00 00 00
	00		 call	 DWORD PTR __imp_??0CDisplayDataMinMax@@QAE@ABN0@Z
  0006c	8d 77 78	 lea	 esi, DWORD PTR [edi+120]
; File C:\Program Files (x86)\Microsoft Visual Studio\2019\Community\VC\Tools\MSVC\14.29.30133\atlmfc\include\afxtempl.h

; 1876 : 		: BASE_CLASS(nBlockSize) { }

  0006f	6a 0a		 push	 10			; 0000000aH
  00071	8b ce		 mov	 ecx, esi
; File D:\git\src\IBK\IBK_DRFN\ProjSrc\SrcChartEx\ChartOCX\ChartObject\VertScaleGroup.cpp

; 38   : {

  00073	89 75 08	 mov	 DWORD PTR _this$[ebp], esi
; File C:\Program Files (x86)\Microsoft Visual Studio\2019\Community\VC\Tools\MSVC\14.29.30133\atlmfc\include\afxtempl.h

; 1876 : 		: BASE_CLASS(nBlockSize) { }

  00076	e8 00 00 00 00	 call	 ??0CObList@@QAE@H@Z	; CObList::CObList

; 1953 : 		: _CTypedPtrList<BASE_CLASS, TYPE>(nBlockSize) { }

  0007b	c7 06 00 00 00
	00		 mov	 DWORD PTR [esi], OFFSET ??_7?$CTypedPtrList@VCObList@@PAVCGraphImp@@@@6B@
; File D:\git\src\IBK\IBK_DRFN\ProjSrc\SrcChartEx\ChartOCX\ChartObject\VertScaleGroup.cpp

; 45   : }

  00081	8b c7		 mov	 eax, edi
  00083	c7 87 94 00 00
	00 00 00 00 00	 mov	 DWORD PTR [edi+148], 0
  0008d	c7 47 04 00 00
	00 00		 mov	 DWORD PTR [edi+4], 0
  00094	c7 87 98 00 00
	00 00 00 00 00	 mov	 DWORD PTR [edi+152], 0
  0009e	c7 87 9c 00 00
	00 00 00 00 00	 mov	 DWORD PTR [edi+156], 0
  000a8	8b 4d f4	 mov	 ecx, DWORD PTR __$EHRec$[ebp]
  000ab	64 89 0d 00 00
	00 00		 mov	 DWORD PTR fs:0, ecx
  000b2	59		 pop	 ecx
  000b3	5f		 pop	 edi
  000b4	5e		 pop	 esi
  000b5	8b e5		 mov	 esp, ebp
  000b7	5d		 pop	 ebp
  000b8	c2 08 00	 ret	 8
_TEXT	ENDS
;	COMDAT text$x
text$x	SEGMENT
__unwindfunclet$??0CVertScaleGroup@@QAE@PAVCMainBlockBaseData@@PAVCVertScaleGroupList@@@Z$0:
  00000	8b 4d f0	 mov	 ecx, DWORD PTR _this$[ebp]
  00003	83 c1 10	 add	 ecx, 16			; 00000010H
  00006	ff 25 00 00 00
	00		 jmp	 DWORD PTR __imp_??1CVerticalScale@@QAE@XZ
  0000c	cc		 int	 3
  0000d	cc		 int	 3
  0000e	cc		 int	 3
  0000f	cc		 int	 3
  00010	cc		 int	 3
__ehhandler$??0CVertScaleGroup@@QAE@PAVCMainBlockBaseData@@PAVCVertScaleGroupList@@@Z:
  00011	90		 npad	 1
  00012	90		 npad	 1
  00013	8b 54 24 08	 mov	 edx, DWORD PTR [esp+8]
  00017	8d 42 0c	 lea	 eax, DWORD PTR [edx+12]
  0001a	8b 4a e0	 mov	 ecx, DWORD PTR [edx-32]
  0001d	33 c8		 xor	 ecx, eax
  0001f	e8 00 00 00 00	 call	 @__security_check_cookie@4
  00024	b8 00 00 00 00	 mov	 eax, OFFSET __ehfuncinfo$??0CVertScaleGroup@@QAE@PAVCMainBlockBaseData@@PAVCVertScaleGroupList@@@Z
  00029	e9 00 00 00 00	 jmp	 ___CxxFrameHandler3
text$x	ENDS
??0CVertScaleGroup@@QAE@PAVCMainBlockBaseData@@PAVCVertScaleGroupList@@@Z ENDP ; CVertScaleGroup::CVertScaleGroup
; Function compile flags: /Ogtp
; File C:\Program Files (x86)\Microsoft Visual Studio\2019\Community\VC\Tools\MSVC\14.29.30133\atlmfc\include\cstringt.h
; File C:\Program Files (x86)\Microsoft Visual Studio\2019\Community\VC\Tools\MSVC\14.29.30133\atlmfc\include\atlsimpstr.h
; File C:\Program Files (x86)\Microsoft Visual Studio\2019\Community\VC\Tools\MSVC\14.29.30133\atlmfc\include\cstringt.h
;	COMDAT ??9ATL@@YA_NABV?$CStringT@DV?$StrTraitMFC_DLL@DV?$ChTraitsCRT@D@ATL@@@@@0@0@Z
_TEXT	SEGMENT
_str1$ = 8						; size = 4
_str2$ = 12						; size = 4
??9ATL@@YA_NABV?$CStringT@DV?$StrTraitMFC_DLL@DV?$ChTraitsCRT@D@ATL@@@@@0@0@Z PROC ; ATL::operator!=, COMDAT

; 2559 : 	{

  00000	55		 push	 ebp
  00001	8b ec		 mov	 ebp, esp
; File C:\Program Files (x86)\Microsoft Visual Studio\2019\Community\VC\Tools\MSVC\14.29.30133\atlmfc\include\atlsimpstr.h

; 377  : 		return( m_pszData );

  00003	8b 45 0c	 mov	 eax, DWORD PTR _str2$[ebp]
; File C:\Program Files (x86)\Microsoft Visual Studio\2019\Community\VC\Tools\MSVC\14.29.30133\atlmfc\include\cstringt.h

; 2560 : 		return( str1.Compare( str2 ) != 0 );

  00006	8b 4d 08	 mov	 ecx, DWORD PTR _str1$[ebp]
  00009	ff 30		 push	 DWORD PTR [eax]
  0000b	ff 15 00 00 00
	00		 call	 DWORD PTR __imp_?Compare@?$CStringT@DV?$StrTraitMFC_DLL@DV?$ChTraitsCRT@D@ATL@@@@@ATL@@QBEHPBD@Z
  00011	85 c0		 test	 eax, eax
  00013	0f 95 c0	 setne	 al

; 2561 : 	}

  00016	5d		 pop	 ebp
  00017	c3		 ret	 0
??9ATL@@YA_NABV?$CStringT@DV?$StrTraitMFC_DLL@DV?$ChTraitsCRT@D@ATL@@@@@0@0@Z ENDP ; ATL::operator!=
_TEXT	ENDS
; Function compile flags: /Ogtp
; File C:\Program Files (x86)\Microsoft Visual Studio\2019\Community\VC\Tools\MSVC\14.29.30133\atlmfc\include\afx.inl
;	COMDAT ?Dump@CObject@@UBEXAAVCDumpContext@@@Z
_TEXT	SEGMENT
___formal$ = 8						; size = 4
?Dump@CObject@@UBEXAAVCDumpContext@@@Z PROC		; CObject::Dump, COMDAT
; _this$ = ecx

; 122  : 	{ /* no dumping in release builds */ }

  00000	c2 04 00	 ret	 4
?Dump@CObject@@UBEXAAVCDumpContext@@@Z ENDP		; CObject::Dump
_TEXT	ENDS
; Function compile flags: /Ogtp
; File C:\Program Files (x86)\Microsoft Visual Studio\2019\Community\VC\Tools\MSVC\14.29.30133\atlmfc\include\afx.inl
;	COMDAT ?AssertValid@CObject@@UBEXXZ
_TEXT	SEGMENT
?AssertValid@CObject@@UBEXXZ PROC			; CObject::AssertValid, COMDAT
; _this$ = ecx

; 120  : 	{ /* no asserts in release builds */ }

  00000	c2 00 00	 ret	 0
?AssertValid@CObject@@UBEXXZ ENDP			; CObject::AssertValid
_TEXT	ENDS
; Function compile flags: /Ogtp
; File C:\Program Files (x86)\Microsoft Visual Studio\2019\Community\VC\Tools\MSVC\14.29.30133\atlmfc\include\afx.inl
;	COMDAT ?Serialize@CObject@@UAEXAAVCArchive@@@Z
_TEXT	SEGMENT
___formal$ = 8						; size = 4
?Serialize@CObject@@UAEXAAVCArchive@@@Z PROC		; CObject::Serialize, COMDAT
; _this$ = ecx

; 106  : 	{ /* CObject does not serialize anything by default */ }

  00000	c2 04 00	 ret	 4
?Serialize@CObject@@UAEXAAVCArchive@@@Z ENDP		; CObject::Serialize
_TEXT	ENDS
; Function compile flags: /Ogtp
; File C:\Program Files (x86)\Microsoft Visual Studio\2019\Community\VC\Tools\MSVC\14.29.30133\atlmfc\include\afx.inl
;	COMDAT ??3CObject@@SGXPAX@Z
_TEXT	SEGMENT
_p$ = 8							; size = 4
??3CObject@@SGXPAX@Z PROC				; CObject::operator delete, COMDAT

; 112  : 	{ ::operator delete(p); }

  00000	55		 push	 ebp
  00001	8b ec		 mov	 ebp, esp
  00003	ff 75 08	 push	 DWORD PTR _p$[ebp]
  00006	e8 00 00 00 00	 call	 ??3@YAXPAX@Z		; operator delete
  0000b	83 c4 04	 add	 esp, 4
  0000e	5d		 pop	 ebp
  0000f	c2 04 00	 ret	 4
??3CObject@@SGXPAX@Z ENDP				; CObject::operator delete
_TEXT	ENDS
; Function compile flags: /Ogtp
; File C:\Program Files (x86)\Microsoft Visual Studio\2019\Community\VC\Tools\MSVC\14.29.30133\atlmfc\include\afx.inl
;	COMDAT ??1CObject@@UAE@XZ
_TEXT	SEGMENT
??1CObject@@UAE@XZ PROC					; CObject::~CObject, COMDAT
; _this$ = ecx

; 104  : 	{ }

  00000	c2 00 00	 ret	 0
??1CObject@@UAE@XZ ENDP					; CObject::~CObject
_TEXT	ENDS
; Function compile flags: /Ogtp
; File D:\git\src\IBK\IBK_DRFN\ProjSrc\SrcChartEx\ChartOCX\ChartObject\VertScaleGroup.cpp
;	COMDAT ?__empty_global_delete@@YAXPAXI@Z
_TEXT	SEGMENT
___formal$ = 8						; size = 4
___formal$ = 12						; size = 4
?__empty_global_delete@@YAXPAXI@Z PROC			; __empty_global_delete, COMDAT

  00000	c2 00 00	 ret	 0
?__empty_global_delete@@YAXPAXI@Z ENDP			; __empty_global_delete
_TEXT	ENDS
; Function compile flags: /Ogtp
; File D:\git\src\IBK\IBK_DRFN\ProjSrc\SrcChartEx\ChartOCX\ChartObject\VertScaleGroup.cpp
;	COMDAT ?__empty_global_delete@@YAXPAX@Z
_TEXT	SEGMENT
___formal$ = 8						; size = 4
?__empty_global_delete@@YAXPAX@Z PROC			; __empty_global_delete, COMDAT

  00000	c2 00 00	 ret	 0
?__empty_global_delete@@YAXPAX@Z ENDP			; __empty_global_delete
_TEXT	ENDS
; Function compile flags: /Ogtp
;	COMDAT ??_H@YGXPAXIIP6EPAX0@Z@Z
_TEXT	SEGMENT
___t$ = 8						; size = 4
___s$ = 12						; size = 4
___n$ = 16						; size = 4
___f$ = 20						; size = 4
??_H@YGXPAXIIP6EPAX0@Z@Z PROC				; `vector constructor iterator', COMDAT
  00000	55		 push	 ebp
  00001	8b ec		 mov	 ebp, esp
  00003	56		 push	 esi
  00004	8b 75 10	 mov	 esi, DWORD PTR ___n$[ebp]
  00007	85 f6		 test	 esi, esi
  00009	74 16		 je	 SHORT $LN6@vector
  0000b	53		 push	 ebx
  0000c	8b 5d 14	 mov	 ebx, DWORD PTR ___f$[ebp]
  0000f	57		 push	 edi
  00010	8b 7d 08	 mov	 edi, DWORD PTR ___t$[ebp]
$LL2@vector:
  00013	8b cf		 mov	 ecx, edi
  00015	ff d3		 call	 ebx
  00017	03 7d 0c	 add	 edi, DWORD PTR ___s$[ebp]
  0001a	83 ee 01	 sub	 esi, 1
  0001d	75 f4		 jne	 SHORT $LL2@vector
  0001f	5f		 pop	 edi
  00020	5b		 pop	 ebx
$LN6@vector:
  00021	5e		 pop	 esi
  00022	5d		 pop	 ebp
  00023	c2 10 00	 ret	 16			; 00000010H
??_H@YGXPAXIIP6EPAX0@Z@Z ENDP				; `vector constructor iterator'
_TEXT	ENDS
END
