; Listing generated by Microsoft (R) Optimizing Compiler Version 19.29.30145.0 

	TITLE	D:\git\src\IBK\IBK_DRFN\#DRfn-CS\_Obj\ChartObject\ViewMinMaxCalculator.obj
	.686P
	.XMM
	include listing.inc
	.model	flat

INCLUDELIB MSVCRT
INCLUDELIB OLDNAMES

PUBLIC	?__empty_global_delete@@YAXPAX@Z		; __empty_global_delete
PUBLIC	?__empty_global_delete@@YAXPAXI@Z		; __empty_global_delete
PUBLIC	?GetViewHorzMinMax@CViewMinMaxCalculator@@QBE?AVCDisplayDataMinMax@@ABVCHorzDisplayDataMinMaxInputData@@@Z ; CViewMinMaxCalculator::GetViewHorzMinMax
PUBLIC	?GetViewVertMinMax@CViewMinMaxCalculator@@QAE_NABVCVertDisplayDataMinMaxInputData@@AAVCDisplayDataMinMax@@HH@Z ; CViewMinMaxCalculator::GetViewVertMinMax
PUBLIC	?IsViewVertMinMax@CViewMinMaxCalculator@@ABE_NPAVCSubGraphPacketList@@@Z ; CViewMinMaxCalculator::IsViewVertMinMax
PUBLIC	?GetViewHorzMinMax_MarketProfile@CViewMinMaxCalculator@@ABE?AVCDisplayDataMinMax@@ABVCHorzDisplayDataMinMaxInputData@@@Z ; CViewMinMaxCalculator::GetViewHorzMinMax_MarketProfile
PUBLIC	?GetViewVertMinMax_Indicate@CViewMinMaxCalculator@@AAE_NABVCVertDisplayDataMinMaxInputData@@AAVCDisplayDataMinMax@@HH@Z ; CViewMinMaxCalculator::GetViewVertMinMax_Indicate
PUBLIC	?GetViewVertMinMax_Indicate_General_Gap@CViewMinMaxCalculator@@AAE_NABVCVertDisplayDataMinMaxInputData@@AAVCDisplayDataMinMax@@H@Z ; CViewMinMaxCalculator::GetViewVertMinMax_Indicate_General_Gap
PUBLIC	?GetViewVertMinMax_Indicate_General@CViewMinMaxCalculator@@AAE_NABVCVertDisplayDataMinMaxInputData@@AAVCDisplayDataMinMax@@H@Z ; CViewMinMaxCalculator::GetViewVertMinMax_Indicate_General
PUBLIC	?GetViewVertMinMax_HeadPacket@CViewMinMaxCalculator@@AAE_NABVCVertDisplayDataMinMaxInputData@@AAVCDisplayDataMinMax@@H@Z ; CViewMinMaxCalculator::GetViewVertMinMax_HeadPacket
PUBLIC	?GetViewVertMinMax_EndPacket@CViewMinMaxCalculator@@AAE_NABVCVertDisplayDataMinMaxInputData@@AAVCDisplayDataMinMax@@HH@Z ; CViewMinMaxCalculator::GetViewVertMinMax_EndPacket
PUBLIC	?GetViewVertMinMax_FuPAndF@CViewMinMaxCalculator@@AAEHABVCVertDisplayDataMinMaxInputData@@AAVCDisplayDataMinMax@@@Z ; CViewMinMaxCalculator::GetViewVertMinMax_FuPAndF
PUBLIC	?GetViewVertMinMax_PAndF@CViewMinMaxCalculator@@AAE_NABVCVertDisplayDataMinMaxInputData@@AAVCDisplayDataMinMax@@H@Z ; CViewMinMaxCalculator::GetViewVertMinMax_PAndF
PUBLIC	?GetViewVertMinMax_Sale@CViewMinMaxCalculator@@AAE_NABVCVertDisplayDataMinMaxInputData@@AAVCDisplayDataMinMax@@H@Z ; CViewMinMaxCalculator::GetViewVertMinMax_Sale
PUBLIC	?GetViewVertMinMax_MarketProfile@CViewMinMaxCalculator@@AAE_NABVCVertDisplayDataMinMaxInputData@@AAVCDisplayDataMinMax@@@Z ; CViewMinMaxCalculator::GetViewVertMinMax_MarketProfile
PUBLIC	?GetViewVertMinMax_Etc@CViewMinMaxCalculator@@AAE_NABVCVertDisplayDataMinMaxInputData@@AAVCDisplayDataMinMax@@HH@Z ; CViewMinMaxCalculator::GetViewVertMinMax_Etc
PUBLIC	?GetViewVertMinMax_Fund@CViewMinMaxCalculator@@AAE_NABVCVertDisplayDataMinMaxInputData@@AAVCDisplayDataMinMax@@H@Z ; CViewMinMaxCalculator::GetViewVertMinMax_Fund
PUBLIC	?GetViewVertMinMax_InSubGraphPacketList@CViewMinMaxCalculator@@AAE_NABVCVertDisplayDataMinMaxInputData@@AAVCDisplayDataMinMax@@H@Z ; CViewMinMaxCalculator::GetViewVertMinMax_InSubGraphPacketList
PUBLIC	?GetViewVertMinMax_OutsideSubGraphPacketList@CViewMinMaxCalculator@@AAE_NABVCVertDisplayDataMinMaxInputData@@AAVCDisplayDataMinMax@@H@Z ; CViewMinMaxCalculator::GetViewVertMinMax_OutsideSubGraphPacketList
PUBLIC	?ChangeViewVertMinMax_Indicator@CViewMinMaxCalculator@@AAE_NABVCVertDisplayDataMinMaxInputData@@AAVCDisplayDataMinMax@@@Z ; CViewMinMaxCalculator::ChangeViewVertMinMax_Indicator
PUBLIC	?ChangeViewVertMinMax_GraphTypeOrStyle@CViewMinMaxCalculator@@AAE_NPAVCSubGraphData@@AAVCDisplayDataMinMax@@@Z ; CViewMinMaxCalculator::ChangeViewVertMinMax_GraphTypeOrStyle
PUBLIC	?ChangeViewVertMinMax_BarType@CViewMinMaxCalculator@@AAE_NPAVCSubGraphData@@AAVCDisplayDataMinMax@@@Z ; CViewMinMaxCalculator::ChangeViewVertMinMax_BarType
PUBLIC	?GetViewVertMinMax_Packet@CViewMinMaxCalculator@@AAE_NPAVCPacket@@ABVCDisplayAttributes@@_NAAVCDisplayDataMinMax@@H@Z ; CViewMinMaxCalculator::GetViewVertMinMax_Packet
PUBLIC	?GetPacketMinMax@CViewMinMaxCalculator@@ABE_NPAVCPacket@@ABVCDisplayAttributes@@_NAAVCDisplayDataMinMax@@H@Z ; CViewMinMaxCalculator::GetPacketMinMax
PUBLIC	?GetViewVertMinMax_DisperSion@CViewMinMaxCalculator@@AAE_NABVCVertDisplayDataMinMaxInputData@@AAVCDisplayDataMinMax@@H@Z ; CViewMinMaxCalculator::GetViewVertMinMax_DisperSion
PUBLIC	?GetPacketList@CViewMinMaxCalculator@@ABEPAVCPacketList@@PAVCSubGraphPacketList@@@Z ; CViewMinMaxCalculator::GetPacketList
PUBLIC	?GetPacket@CViewMinMaxCalculator@@ABEPAVCPacket@@PAVCSubGraphPacketList@@ABV?$CStringT@DV?$StrTraitMFC_DLL@DV?$ChTraitsCRT@D@ATL@@@@@ATL@@@Z ; CViewMinMaxCalculator::GetPacket
PUBLIC	?GetDataStartAndEndInBlock@CViewMinMaxCalculator@@ABE_NPAVCPacket@@ABVCDisplayAttributes@@AAH2@Z ; CViewMinMaxCalculator::GetDataStartAndEndInBlock
PUBLIC	?GetDataStartInBlock@CViewMinMaxCalculator@@ABEHPAVCPacket@@H@Z ; CViewMinMaxCalculator::GetDataStartInBlock
PUBLIC	?DoesViewMinMaxWithoutZero@CViewMinMaxCalculator@@ABE_NPAVCSubGraphData@@@Z ; CViewMinMaxCalculator::DoesViewMinMaxWithoutZero
PUBLIC	?DoesDisplayDataMinMaxInGap@CViewMinMaxCalculator@@ABE_NABVCVertDisplayDataMinMaxInputData@@@Z ; CViewMinMaxCalculator::DoesDisplayDataMinMaxInGap
PUBLIC	?DoesDisplayDataMinMaxInGap_Type@CViewMinMaxCalculator@@ABE_NPBVCSubGraphData@@@Z ; CViewMinMaxCalculator::DoesDisplayDataMinMaxInGap_Type
PUBLIC	?FindIndex@?$CList@PAVCPacket@@PAV1@@@QBEPAU__POSITION@@H@Z ; CList<CPacket *,CPacket *>::FindIndex
PUBLIC	__real@3fa999999999999a
PUBLIC	__real@3fc999999999999a
PUBLIC	__real@3ff0000000000000
PUBLIC	__real@402e000000000000
PUBLIC	__real@4059000000000000
PUBLIC	__real@7ff0000000000000
PUBLIC	__real@c059000000000000
PUBLIC	__real@fff0000000000000
PUBLIC	__xmm@7fffffffffffffff7fffffffffffffff
PUBLIC	__xmm@80000000000000008000000000000000
EXTRN	__imp__strncmp:PROC
EXTRN	__imp_??A?$CSimpleStringT@D$00@ATL@@QBEDH@Z:PROC
EXTRN	__imp_??0?$CStringT@DV?$StrTraitMFC_DLL@DV?$ChTraitsCRT@D@ATL@@@@@ATL@@QAE@ABV01@@Z:PROC
EXTRN	__imp_??0?$CStringT@DV?$StrTraitMFC_DLL@DV?$ChTraitsCRT@D@ATL@@@@@ATL@@QAE@DH@Z:PROC
EXTRN	__imp_??1?$CStringT@DV?$StrTraitMFC_DLL@DV?$ChTraitsCRT@D@ATL@@@@@ATL@@QAE@XZ:PROC
EXTRN	__imp_??Y?$CStringT@DV?$StrTraitMFC_DLL@DV?$ChTraitsCRT@D@ATL@@@@@ATL@@QAEAAV01@D@Z:PROC
EXTRN	__imp_?Compare@?$CStringT@DV?$StrTraitMFC_DLL@DV?$ChTraitsCRT@D@ATL@@@@@ATL@@QBEHPBD@Z:PROC
EXTRN	__imp_?Find@?$CStringT@DV?$StrTraitMFC_DLL@DV?$ChTraitsCRT@D@ATL@@@@@ATL@@QBEHPBDH@Z:PROC
EXTRN	__imp_?Right@?$CStringT@DV?$StrTraitMFC_DLL@DV?$ChTraitsCRT@D@ATL@@@@@ATL@@QBE?AV12@H@Z:PROC
EXTRN	__imp_?GetName@CPacket@@QAE?AV?$CStringT@DV?$StrTraitMFC_DLL@DV?$ChTraitsCRT@D@ATL@@@@@ATL@@XZ:PROC
EXTRN	__imp_?GetPacketList@CPacket@@QAEPAVCPacketList@@XZ:PROC
EXTRN	__imp_?GetData@CPacket@@QAENH@Z:PROC
EXTRN	__imp_?IsUseStandardValue@CPacket@@QBE_NH@Z:PROC
EXTRN	__imp_?GetStandardValue@CPacket@@QAENH@Z:PROC
EXTRN	__imp_?GetStartPeriod@CPacket@@QAEHXZ:PROC
EXTRN	__imp_?GetMinMax@CPacket@@QAEHHHAAN0H@Z:PROC
EXTRN	__imp_?GetPriceScaleX100@CMPPacket@@QAEHAAH0@Z:PROC
EXTRN	__imp_?GetBaseData@CPacketList@@QAEPAVCPacket@@V?$CStringT@DV?$StrTraitMFC_DLL@DV?$ChTraitsCRT@D@ATL@@@@@ATL@@_N@Z:PROC
EXTRN	?IsViewVertMinMax_EndPacket@IMetaTable@@QAE_NABV?$CStringT@DV?$StrTraitMFC_DLL@DV?$ChTraitsCRT@D@ATL@@@@@ATL@@@Z:PROC ; IMetaTable::IsViewVertMinMax_EndPacket
EXTRN	?IsScaleGroup_InverseLine@IMetaTable@@QAE_NABV?$CStringT@DV?$StrTraitMFC_DLL@DV?$ChTraitsCRT@D@ATL@@@@@ATL@@@Z:PROC ; IMetaTable::IsScaleGroup_InverseLine
EXTRN	?IsDrawGroup_PAndF@IMetaTable@@QAE_NABV?$CStringT@DV?$StrTraitMFC_DLL@DV?$ChTraitsCRT@D@ATL@@@@@ATL@@@Z:PROC ; IMetaTable::IsDrawGroup_PAndF
EXTRN	?IsScaleGroup_PlusPercent@IMetaTable@@QAE_NABV?$CStringT@DV?$StrTraitMFC_DLL@DV?$ChTraitsCRT@D@ATL@@@@@ATL@@@Z:PROC ; IMetaTable::IsScaleGroup_PlusPercent
EXTRN	?IsScaleGroup_MinusPercent@IMetaTable@@QAE_NABV?$CStringT@DV?$StrTraitMFC_DLL@DV?$ChTraitsCRT@D@ATL@@@@@ATL@@@Z:PROC ; IMetaTable::IsScaleGroup_MinusPercent
EXTRN	?IsVolumeForSale@IMetaTable@@QAEHABV?$CStringT@DV?$StrTraitMFC_DLL@DV?$ChTraitsCRT@D@ATL@@@@@ATL@@@Z:PROC ; IMetaTable::IsVolumeForSale
EXTRN	?GetStringData@CDataConversion@@SA?AV?$CStringT@DV?$StrTraitMFC_DLL@DV?$ChTraitsCRT@D@ATL@@@@@ATL@@AAV23@ABV23@_N@Z:PROC ; CDataConversion::GetStringData
EXTRN	?GetCount@CSubGraphPacketList@@QBEHXZ:PROC	; CSubGraphPacketList::GetCount
EXTRN	?GetHeadPosition@CSubGraphPacketList@@QAEPAU__POSITION@@XZ:PROC ; CSubGraphPacketList::GetHeadPosition
EXTRN	?GetHeadPacket@CSubGraphPacketList@@QAEPAVCPacket@@XZ:PROC ; CSubGraphPacketList::GetHeadPacket
EXTRN	?GetTailPacket@CSubGraphPacketList@@QAEPAVCPacket@@XZ:PROC ; CSubGraphPacketList::GetTailPacket
EXTRN	?GetNext@CSubGraphPacketList@@QAEPAVCPacket@@AAPAU__POSITION@@@Z:PROC ; CSubGraphPacketList::GetNext
EXTRN	?GetSubGraphPacketList@CSubGraphPacketList@@QBEABV?$CList@PAVCPacket@@PAV1@@@XZ:PROC ; CSubGraphPacketList::GetSubGraphPacketList
EXTRN	__imp_??4CDisplayDataMinMax@@QAEAAV0@ABV0@@Z:PROC
EXTRN	__imp_??0CDisplayDataMinMax@@QAE@XZ:PROC
EXTRN	__imp_??0CDisplayDataMinMax@@QAE@ABN0@Z:PROC
EXTRN	__imp_?SetDisplayData@CDisplayDataMinMax@@QAEXABN0@Z:PROC
EXTRN	__imp_?Inflate@CDisplayDataMinMax@@QAEXABN0@Z:PROC
EXTRN	__imp_?GetDisplayMin@CDisplayDataMinMax@@QBENXZ:PROC
EXTRN	__imp_?GetDisplayMax@CDisplayDataMinMax@@QBENXZ:PROC
EXTRN	__imp_?GetCount@CDisplayDataMinMax@@QBENXZ:PROC
EXTRN	__imp_?IsInitialized@CDisplayDataMinMax@@QBEHXZ:PROC
EXTRN	__imp_?GetType@CSubGraphDataBase@@QBE?AW4GRAPHTYPE@CGraphBaseData@@XZ:PROC
EXTRN	__imp_?GetStyle@CSubGraphDataBase@@QBE?AVCGraphStyle@@XZ:PROC
EXTRN	__imp_?GetDrawStyle@CSubGraphDataBase@@QBE?AVCGraphDrawStyle@@XZ:PROC
EXTRN	??0CDisplayAttributes@@QAE@HH@Z:PROC		; CDisplayAttributes::CDisplayAttributes
EXTRN	?GetDataStartInBlock@CDisplayAttributes@@QBEHXZ:PROC ; CDisplayAttributes::GetDataStartInBlock
EXTRN	?GetDataEndInBlock@CDisplayAttributes@@QBEHXZ:PROC ; CDisplayAttributes::GetDataEndInBlock
EXTRN	?GetPacket@CHorzDisplayDataMinMaxInputData@@QBEPAVCPacket@@XZ:PROC ; CHorzDisplayDataMinMaxInputData::GetPacket
EXTRN	?GetPacketName@CHorzDisplayDataMinMaxInputData@@QBE?AV?$CStringT@DV?$StrTraitMFC_DLL@DV?$ChTraitsCRT@D@ATL@@@@@ATL@@XZ:PROC ; CHorzDisplayDataMinMaxInputData::GetPacketName
EXTRN	?GetDisplayAttributes@CHorzDisplayDataMinMaxInputData@@QBE?AVCDisplayAttributes@@XZ:PROC ; CHorzDisplayDataMinMaxInputData::GetDisplayAttributes
EXTRN	?GetIndicatorName@CVertDisplayDataMinMaxInputData@@QBE?AV?$CStringT@DV?$StrTraitMFC_DLL@DV?$ChTraitsCRT@D@ATL@@@@@ATL@@XZ:PROC ; CVertDisplayDataMinMaxInputData::GetIndicatorName
EXTRN	?GetScaleData@CVertDisplayDataMinMaxInputData@@QBE?AV?$CStringT@DV?$StrTraitMFC_DLL@DV?$ChTraitsCRT@D@ATL@@@@@ATL@@XZ:PROC ; CVertDisplayDataMinMaxInputData::GetScaleData
EXTRN	?GetSubGraphType@CVertDisplayDataMinMaxInputData@@QBE?AW4GRAPHTYPE@CGraphBaseData@@XZ:PROC ; CVertDisplayDataMinMaxInputData::GetSubGraphType
EXTRN	?GetSubGraphStyle@CVertDisplayDataMinMaxInputData@@QBE?AVCGraphStyle@@XZ:PROC ; CVertDisplayDataMinMaxInputData::GetSubGraphStyle
EXTRN	?GetDisplayAttributes@CVertDisplayDataMinMaxInputData@@QBE?AVCDisplayAttributes@@XZ:PROC ; CVertDisplayDataMinMaxInputData::GetDisplayAttributes
EXTRN	?GetSubGraphData@CVertDisplayDataMinMaxInputData@@QBEPAVCSubGraphData@@XZ:PROC ; CVertDisplayDataMinMaxInputData::GetSubGraphData
EXTRN	?GetSubGraphPacketList@CVertDisplayDataMinMaxInputData@@QBEPAVCSubGraphPacketList@@XZ:PROC ; CVertDisplayDataMinMaxInputData::GetSubGraphPacketList
EXTRN	@__security_check_cookie@4:PROC
EXTRN	___CxxFrameHandler3:PROC
EXTRN	?g_iMetaTable@@3VIMetaTable@@A:BYTE		; g_iMetaTable
EXTRN	___security_cookie:DWORD
EXTRN	__fltused:DWORD
;	COMDAT __xmm@80000000000000008000000000000000
CONST	SEGMENT
__xmm@80000000000000008000000000000000 DB 00H, 00H, 00H, 00H, 00H, 00H, 00H
	DB	080H, 00H, 00H, 00H, 00H, 00H, 00H, 00H, 080H
CONST	ENDS
;	COMDAT __xmm@7fffffffffffffff7fffffffffffffff
CONST	SEGMENT
__xmm@7fffffffffffffff7fffffffffffffff DB 0ffH, 0ffH, 0ffH, 0ffH, 0ffH, 0ffH
	DB	0ffH, 07fH, 0ffH, 0ffH, 0ffH, 0ffH, 0ffH, 0ffH, 0ffH, 07fH
CONST	ENDS
;	COMDAT __real@fff0000000000000
CONST	SEGMENT
__real@fff0000000000000 DQ 0fff0000000000000r	; -inf
CONST	ENDS
;	COMDAT __real@c059000000000000
CONST	SEGMENT
__real@c059000000000000 DQ 0c059000000000000r	; -100
CONST	ENDS
;	COMDAT __real@7ff0000000000000
CONST	SEGMENT
__real@7ff0000000000000 DQ 07ff0000000000000r	; inf
CONST	ENDS
;	COMDAT __real@4059000000000000
CONST	SEGMENT
__real@4059000000000000 DQ 04059000000000000r	; 100
CONST	ENDS
;	COMDAT __real@402e000000000000
CONST	SEGMENT
__real@402e000000000000 DQ 0402e000000000000r	; 15
CONST	ENDS
;	COMDAT __real@3ff0000000000000
CONST	SEGMENT
__real@3ff0000000000000 DQ 03ff0000000000000r	; 1
CONST	ENDS
;	COMDAT __real@3fc999999999999a
CONST	SEGMENT
__real@3fc999999999999a DQ 03fc999999999999ar	; 0.2
CONST	ENDS
;	COMDAT __real@3fa999999999999a
CONST	SEGMENT
__real@3fa999999999999a DQ 03fa999999999999ar	; 0.05
CONST	ENDS
;	COMDAT xdata$x
xdata$x	SEGMENT
__unwindtable$?DoesDisplayDataMinMaxInGap@CViewMinMaxCalculator@@ABE_NABVCVertDisplayDataMinMaxInputData@@@Z DD 0ffffffffH
	DD	FLAT:__unwindfunclet$?DoesDisplayDataMinMaxInGap@CViewMinMaxCalculator@@ABE_NABVCVertDisplayDataMinMaxInputData@@@Z$0
__ehfuncinfo$?DoesDisplayDataMinMaxInGap@CViewMinMaxCalculator@@ABE_NABVCVertDisplayDataMinMaxInputData@@@Z DD 019930522H
	DD	01H
	DD	FLAT:__unwindtable$?DoesDisplayDataMinMaxInGap@CViewMinMaxCalculator@@ABE_NABVCVertDisplayDataMinMaxInputData@@@Z
	DD	2 DUP(00H)
	DD	2 DUP(00H)
	DD	00H
	DD	01H
xdata$x	ENDS
;	COMDAT xdata$x
xdata$x	SEGMENT
__unwindtable$?GetPacket@CViewMinMaxCalculator@@ABEPAVCPacket@@PAVCSubGraphPacketList@@ABV?$CStringT@DV?$StrTraitMFC_DLL@DV?$ChTraitsCRT@D@ATL@@@@@ATL@@@Z DD 0ffffffffH
	DD	FLAT:__unwindfunclet$?GetPacket@CViewMinMaxCalculator@@ABEPAVCPacket@@PAVCSubGraphPacketList@@ABV?$CStringT@DV?$StrTraitMFC_DLL@DV?$ChTraitsCRT@D@ATL@@@@@ATL@@@Z$0
__ehfuncinfo$?GetPacket@CViewMinMaxCalculator@@ABEPAVCPacket@@PAVCSubGraphPacketList@@ABV?$CStringT@DV?$StrTraitMFC_DLL@DV?$ChTraitsCRT@D@ATL@@@@@ATL@@@Z DD 019930522H
	DD	01H
	DD	FLAT:__unwindtable$?GetPacket@CViewMinMaxCalculator@@ABEPAVCPacket@@PAVCSubGraphPacketList@@ABV?$CStringT@DV?$StrTraitMFC_DLL@DV?$ChTraitsCRT@D@ATL@@@@@ATL@@@Z
	DD	2 DUP(00H)
	DD	2 DUP(00H)
	DD	00H
	DD	01H
xdata$x	ENDS
;	COMDAT xdata$x
xdata$x	SEGMENT
__unwindtable$?GetViewVertMinMax_OutsideSubGraphPacketList@CViewMinMaxCalculator@@AAE_NABVCVertDisplayDataMinMaxInputData@@AAVCDisplayDataMinMax@@H@Z DD 0ffffffffH
	DD	FLAT:__unwindfunclet$?GetViewVertMinMax_OutsideSubGraphPacketList@CViewMinMaxCalculator@@AAE_NABVCVertDisplayDataMinMaxInputData@@AAVCDisplayDataMinMax@@H@Z$0
	DD	00H
	DD	FLAT:__unwindfunclet$?GetViewVertMinMax_OutsideSubGraphPacketList@CViewMinMaxCalculator@@AAE_NABVCVertDisplayDataMinMaxInputData@@AAVCDisplayDataMinMax@@H@Z$2
	DD	01H
	DD	FLAT:__unwindfunclet$?GetViewVertMinMax_OutsideSubGraphPacketList@CViewMinMaxCalculator@@AAE_NABVCVertDisplayDataMinMaxInputData@@AAVCDisplayDataMinMax@@H@Z$3
	DD	00H
	DD	FLAT:__unwindfunclet$?GetViewVertMinMax_OutsideSubGraphPacketList@CViewMinMaxCalculator@@AAE_NABVCVertDisplayDataMinMaxInputData@@AAVCDisplayDataMinMax@@H@Z$3
__ehfuncinfo$?GetViewVertMinMax_OutsideSubGraphPacketList@CViewMinMaxCalculator@@AAE_NABVCVertDisplayDataMinMaxInputData@@AAVCDisplayDataMinMax@@H@Z DD 019930522H
	DD	04H
	DD	FLAT:__unwindtable$?GetViewVertMinMax_OutsideSubGraphPacketList@CViewMinMaxCalculator@@AAE_NABVCVertDisplayDataMinMaxInputData@@AAVCDisplayDataMinMax@@H@Z
	DD	2 DUP(00H)
	DD	2 DUP(00H)
	DD	00H
	DD	01H
xdata$x	ENDS
;	COMDAT xdata$x
xdata$x	SEGMENT
__unwindtable$?GetViewVertMinMax_InSubGraphPacketList@CViewMinMaxCalculator@@AAE_NABVCVertDisplayDataMinMaxInputData@@AAVCDisplayDataMinMax@@H@Z DD 0ffffffffH
	DD	FLAT:__unwindfunclet$?GetViewVertMinMax_InSubGraphPacketList@CViewMinMaxCalculator@@AAE_NABVCVertDisplayDataMinMaxInputData@@AAVCDisplayDataMinMax@@H@Z$0
	DD	00H
	DD	FLAT:__unwindfunclet$?GetViewVertMinMax_InSubGraphPacketList@CViewMinMaxCalculator@@AAE_NABVCVertDisplayDataMinMaxInputData@@AAVCDisplayDataMinMax@@H@Z$2
	DD	01H
	DD	FLAT:__unwindfunclet$?GetViewVertMinMax_InSubGraphPacketList@CViewMinMaxCalculator@@AAE_NABVCVertDisplayDataMinMaxInputData@@AAVCDisplayDataMinMax@@H@Z$3
	DD	00H
	DD	FLAT:__unwindfunclet$?GetViewVertMinMax_InSubGraphPacketList@CViewMinMaxCalculator@@AAE_NABVCVertDisplayDataMinMaxInputData@@AAVCDisplayDataMinMax@@H@Z$3
__ehfuncinfo$?GetViewVertMinMax_InSubGraphPacketList@CViewMinMaxCalculator@@AAE_NABVCVertDisplayDataMinMaxInputData@@AAVCDisplayDataMinMax@@H@Z DD 019930522H
	DD	04H
	DD	FLAT:__unwindtable$?GetViewVertMinMax_InSubGraphPacketList@CViewMinMaxCalculator@@AAE_NABVCVertDisplayDataMinMaxInputData@@AAVCDisplayDataMinMax@@H@Z
	DD	2 DUP(00H)
	DD	2 DUP(00H)
	DD	00H
	DD	01H
xdata$x	ENDS
;	COMDAT xdata$x
xdata$x	SEGMENT
__unwindtable$?GetViewVertMinMax_Fund@CViewMinMaxCalculator@@AAE_NABVCVertDisplayDataMinMaxInputData@@AAVCDisplayDataMinMax@@H@Z DD 0ffffffffH
	DD	FLAT:__unwindfunclet$?GetViewVertMinMax_Fund@CViewMinMaxCalculator@@AAE_NABVCVertDisplayDataMinMaxInputData@@AAVCDisplayDataMinMax@@H@Z$0
__ehfuncinfo$?GetViewVertMinMax_Fund@CViewMinMaxCalculator@@AAE_NABVCVertDisplayDataMinMaxInputData@@AAVCDisplayDataMinMax@@H@Z DD 019930522H
	DD	01H
	DD	FLAT:__unwindtable$?GetViewVertMinMax_Fund@CViewMinMaxCalculator@@AAE_NABVCVertDisplayDataMinMaxInputData@@AAVCDisplayDataMinMax@@H@Z
	DD	2 DUP(00H)
	DD	2 DUP(00H)
	DD	00H
	DD	01H
xdata$x	ENDS
;	COMDAT xdata$x
xdata$x	SEGMENT
__unwindtable$?GetViewVertMinMax_Etc@CViewMinMaxCalculator@@AAE_NABVCVertDisplayDataMinMaxInputData@@AAVCDisplayDataMinMax@@HH@Z DD 0ffffffffH
	DD	FLAT:__unwindfunclet$?GetViewVertMinMax_Etc@CViewMinMaxCalculator@@AAE_NABVCVertDisplayDataMinMaxInputData@@AAVCDisplayDataMinMax@@HH@Z$1
__ehfuncinfo$?GetViewVertMinMax_Etc@CViewMinMaxCalculator@@AAE_NABVCVertDisplayDataMinMaxInputData@@AAVCDisplayDataMinMax@@HH@Z DD 019930522H
	DD	01H
	DD	FLAT:__unwindtable$?GetViewVertMinMax_Etc@CViewMinMaxCalculator@@AAE_NABVCVertDisplayDataMinMaxInputData@@AAVCDisplayDataMinMax@@HH@Z
	DD	2 DUP(00H)
	DD	2 DUP(00H)
	DD	00H
	DD	01H
xdata$x	ENDS
;	COMDAT xdata$x
xdata$x	SEGMENT
__unwindtable$?GetViewVertMinMax_Indicate_General_Gap@CViewMinMaxCalculator@@AAE_NABVCVertDisplayDataMinMaxInputData@@AAVCDisplayDataMinMax@@H@Z DD 0ffffffffH
	DD	FLAT:__unwindfunclet$?GetViewVertMinMax_Indicate_General_Gap@CViewMinMaxCalculator@@AAE_NABVCVertDisplayDataMinMaxInputData@@AAVCDisplayDataMinMax@@H@Z$0
__ehfuncinfo$?GetViewVertMinMax_Indicate_General_Gap@CViewMinMaxCalculator@@AAE_NABVCVertDisplayDataMinMaxInputData@@AAVCDisplayDataMinMax@@H@Z DD 019930522H
	DD	01H
	DD	FLAT:__unwindtable$?GetViewVertMinMax_Indicate_General_Gap@CViewMinMaxCalculator@@AAE_NABVCVertDisplayDataMinMaxInputData@@AAVCDisplayDataMinMax@@H@Z
	DD	2 DUP(00H)
	DD	2 DUP(00H)
	DD	00H
	DD	01H
xdata$x	ENDS
;	COMDAT xdata$x
xdata$x	SEGMENT
__ehfuncinfo$?GetViewVertMinMax_Indicate@CViewMinMaxCalculator@@AAE_NABVCVertDisplayDataMinMaxInputData@@AAVCDisplayDataMinMax@@HH@Z DD 019930522H
	DD	09H
	DD	FLAT:__unwindtable$?GetViewVertMinMax_Indicate@CViewMinMaxCalculator@@AAE_NABVCVertDisplayDataMinMaxInputData@@AAVCDisplayDataMinMax@@HH@Z
	DD	2 DUP(00H)
	DD	2 DUP(00H)
	DD	00H
	DD	01H
__unwindtable$?GetViewVertMinMax_Indicate@CViewMinMaxCalculator@@AAE_NABVCVertDisplayDataMinMaxInputData@@AAVCDisplayDataMinMax@@HH@Z DD 0ffffffffH
	DD	FLAT:__unwindfunclet$?GetViewVertMinMax_Indicate@CViewMinMaxCalculator@@AAE_NABVCVertDisplayDataMinMaxInputData@@AAVCDisplayDataMinMax@@HH@Z$0
	DD	0ffffffffH
	DD	FLAT:__unwindfunclet$?GetViewVertMinMax_Indicate@CViewMinMaxCalculator@@AAE_NABVCVertDisplayDataMinMaxInputData@@AAVCDisplayDataMinMax@@HH@Z$1
	DD	0ffffffffH
	DD	FLAT:__unwindfunclet$?GetViewVertMinMax_Indicate@CViewMinMaxCalculator@@AAE_NABVCVertDisplayDataMinMaxInputData@@AAVCDisplayDataMinMax@@HH@Z$2
	DD	0ffffffffH
	DD	FLAT:__unwindfunclet$?GetViewVertMinMax_Indicate@CViewMinMaxCalculator@@AAE_NABVCVertDisplayDataMinMaxInputData@@AAVCDisplayDataMinMax@@HH@Z$3
	DD	0ffffffffH
	DD	FLAT:__unwindfunclet$?GetViewVertMinMax_Indicate@CViewMinMaxCalculator@@AAE_NABVCVertDisplayDataMinMaxInputData@@AAVCDisplayDataMinMax@@HH@Z$4
	DD	0ffffffffH
	DD	FLAT:__unwindfunclet$?GetViewVertMinMax_Indicate@CViewMinMaxCalculator@@AAE_NABVCVertDisplayDataMinMaxInputData@@AAVCDisplayDataMinMax@@HH@Z$5
	DD	0ffffffffH
	DD	FLAT:__unwindfunclet$?GetViewVertMinMax_Indicate@CViewMinMaxCalculator@@AAE_NABVCVertDisplayDataMinMaxInputData@@AAVCDisplayDataMinMax@@HH@Z$6
	DD	0ffffffffH
	DD	FLAT:__unwindfunclet$?GetViewVertMinMax_Indicate@CViewMinMaxCalculator@@AAE_NABVCVertDisplayDataMinMaxInputData@@AAVCDisplayDataMinMax@@HH@Z$7
	DD	0ffffffffH
	DD	FLAT:__unwindfunclet$?GetViewVertMinMax_Indicate@CViewMinMaxCalculator@@AAE_NABVCVertDisplayDataMinMaxInputData@@AAVCDisplayDataMinMax@@HH@Z$8
xdata$x	ENDS
;	COMDAT xdata$x
xdata$x	SEGMENT
__unwindtable$?GetViewHorzMinMax@CViewMinMaxCalculator@@QBE?AVCDisplayDataMinMax@@ABVCHorzDisplayDataMinMaxInputData@@@Z DD 0ffffffffH
	DD	FLAT:__unwindfunclet$?GetViewHorzMinMax@CViewMinMaxCalculator@@QBE?AVCDisplayDataMinMax@@ABVCHorzDisplayDataMinMaxInputData@@@Z$1
__ehfuncinfo$?GetViewHorzMinMax@CViewMinMaxCalculator@@QBE?AVCDisplayDataMinMax@@ABVCHorzDisplayDataMinMaxInputData@@@Z DD 019930522H
	DD	01H
	DD	FLAT:__unwindtable$?GetViewHorzMinMax@CViewMinMaxCalculator@@QBE?AVCDisplayDataMinMax@@ABVCHorzDisplayDataMinMaxInputData@@@Z
	DD	2 DUP(00H)
	DD	2 DUP(00H)
	DD	00H
	DD	01H
xdata$x	ENDS
; Function compile flags: /Ogtp
; File C:\Program Files (x86)\Microsoft Visual Studio\2019\Community\VC\Tools\MSVC\14.29.30133\atlmfc\include\afxtempl.h
;	COMDAT ?FindIndex@?$CList@PAVCPacket@@PAV1@@@QBEPAU__POSITION@@H@Z
_TEXT	SEGMENT
_nIndex$ = 8						; size = 4
?FindIndex@?$CList@PAVCPacket@@PAV1@@@QBEPAU__POSITION@@H@Z PROC ; CList<CPacket *,CPacket *>::FindIndex, COMDAT
; _this$ = ecx

; 1130 : {

  00000	55		 push	 ebp
  00001	8b ec		 mov	 ebp, esp

; 1131 : 	ASSERT_VALID(this);
; 1132 : 
; 1133 : 	if (nIndex >= m_nCount || nIndex < 0)

  00003	8b 55 08	 mov	 edx, DWORD PTR _nIndex$[ebp]
  00006	3b 51 0c	 cmp	 edx, DWORD PTR [ecx+12]
  00009	7d 14		 jge	 SHORT $LN5@FindIndex
  0000b	85 d2		 test	 edx, edx
  0000d	78 10		 js	 SHORT $LN5@FindIndex

; 1135 : 
; 1136 : 	CNode* pNode = m_pNodeHead;

  0000f	8b 41 04	 mov	 eax, DWORD PTR [ecx+4]

; 1137 : 	while (nIndex--)

  00012	74 0d		 je	 SHORT $LN1@FindIndex
$LL2@FindIndex:

; 1138 : 	{
; 1139 : 		ASSERT(AfxIsValidAddress(pNode, sizeof(CNode)));
; 1140 : 		pNode = pNode->pNext;

  00014	8b 00		 mov	 eax, DWORD PTR [eax]
  00016	83 ea 01	 sub	 edx, 1
  00019	75 f9		 jne	 SHORT $LL2@FindIndex

; 1141 : 	}
; 1142 : 	return (POSITION) pNode;
; 1143 : }

  0001b	5d		 pop	 ebp
  0001c	c2 04 00	 ret	 4
$LN5@FindIndex:

; 1134 : 		return NULL;  // went too far

  0001f	33 c0		 xor	 eax, eax
$LN1@FindIndex:

; 1141 : 	}
; 1142 : 	return (POSITION) pNode;
; 1143 : }

  00021	5d		 pop	 ebp
  00022	c2 04 00	 ret	 4
?FindIndex@?$CList@PAVCPacket@@PAV1@@@QBEPAU__POSITION@@H@Z ENDP ; CList<CPacket *,CPacket *>::FindIndex
_TEXT	ENDS
; Function compile flags: /Ogtp
; File D:\git\src\IBK\IBK_DRFN\ProjSrc\SrcChartEx\ChartOCX\ChartObject\ViewMinMaxCalculator.cpp
;	COMDAT ?DoesDisplayDataMinMaxInGap_Type@CViewMinMaxCalculator@@ABE_NPBVCSubGraphData@@@Z
_TEXT	SEGMENT
$T1 = 8							; size = 4
$T2 = 8							; size = 4
_pSubGraphData$ = 8					; size = 4
?DoesDisplayDataMinMaxInGap_Type@CViewMinMaxCalculator@@ABE_NPBVCSubGraphData@@@Z PROC ; CViewMinMaxCalculator::DoesDisplayDataMinMaxInGap_Type, COMDAT
; _this$ = ecx

; 646  : {

  00000	55		 push	 ebp
  00001	8b ec		 mov	 ebp, esp
  00003	56		 push	 esi

; 647  : 	if(pSubGraphData == NULL)

  00004	8b 75 08	 mov	 esi, DWORD PTR _pSubGraphData$[ebp]
  00007	85 f6		 test	 esi, esi
  00009	74 49		 je	 SHORT $LN2@DoesDispla

; 648  : 		return false;
; 649  : 	
; 650  : 	if(pSubGraphData->GetType() != CGraphBaseData::Bar_Type)

  0000b	8b ce		 mov	 ecx, esi
  0000d	ff 15 00 00 00
	00		 call	 DWORD PTR __imp_?GetType@CSubGraphDataBase@@QBE?AW4GRAPHTYPE@CGraphBaseData@@XZ
  00013	83 f8 02	 cmp	 eax, 2
  00016	75 3c		 jne	 SHORT $LN2@DoesDispla

; 651  : 		return false;
; 652  : 
; 653  : 	// drawingStyle가 <Text형>인 경우는 Text가 표현되기 때문에 gap을 줄필요가 없다!
; 654  : 	if(pSubGraphData->GetDrawStyle().GetGraphBarDrawStyle() == CGraphBaseData::TextBar_Draw)

  00018	8d 45 08	 lea	 eax, DWORD PTR $T2[ebp]
  0001b	8b ce		 mov	 ecx, esi
  0001d	50		 push	 eax
  0001e	ff 15 00 00 00
	00		 call	 DWORD PTR __imp_?GetDrawStyle@CSubGraphDataBase@@QBE?AVCGraphDrawStyle@@XZ
  00024	83 38 03	 cmp	 DWORD PTR [eax], 3
  00027	74 2b		 je	 SHORT $LN2@DoesDispla

; 655  : 		return false;
; 656  : 
; 657  : 	CGraphBaseData::BARSTYLE eStyle = pSubGraphData->GetStyle().GetGraphBarStyle();

  00029	8d 45 08	 lea	 eax, DWORD PTR $T1[ebp]
  0002c	8b ce		 mov	 ecx, esi
  0002e	50		 push	 eax
  0002f	ff 15 00 00 00
	00		 call	 DWORD PTR __imp_?GetStyle@CSubGraphDataBase@@QBE?AVCGraphStyle@@XZ

; 658  : 	switch(eStyle){

  00035	8b 00		 mov	 eax, DWORD PTR [eax]
  00037	83 c0 fe	 add	 eax, -2			; fffffffeH
  0003a	83 f8 0e	 cmp	 eax, 14			; 0000000eH
  0003d	77 15		 ja	 SHORT $LN2@DoesDispla
  0003f	0f b6 80 00 00
	00 00		 movzx	 eax, BYTE PTR $LN12@DoesDispla[eax]
  00046	ff 24 85 00 00
	00 00		 jmp	 DWORD PTR $LN13@DoesDispla[eax*4]
$LN7@DoesDispla:

; 659  : 		case CGraphBaseData::UpDownBar: // 상하식
; 660  : 		case CGraphBaseData::UpDownHighLowBar: // 상하등락식
; 661  : 		case CGraphBaseData::FixedRateCombBar: // 고정비율빗형식
; 662  : 		// 고정비율상하식 추가 - ojtaso (20080603)
; 663  : 		case CGraphBaseData::FixedRateUpDownBar: // 고정비율상하식
; 664  : 			return true;

  0004d	b0 01		 mov	 al, 1
  0004f	5e		 pop	 esi

; 668  : }

  00050	5d		 pop	 ebp
  00051	c2 04 00	 ret	 4
$LN2@DoesDispla:

; 665  : 	}
; 666  : 
; 667  : 	return false;

  00054	32 c0		 xor	 al, al
  00056	5e		 pop	 esi

; 668  : }

  00057	5d		 pop	 ebp
  00058	c2 04 00	 ret	 4
  0005b	90		 npad	 1
$LN13@DoesDispla:
  0005c	00 00 00 00	 DD	 $LN7@DoesDispla
  00060	00 00 00 00	 DD	 $LN2@DoesDispla
$LN12@DoesDispla:
  00064	00		 DB	 0
  00065	01		 DB	 1
  00066	01		 DB	 1
  00067	01		 DB	 1
  00068	01		 DB	 1
  00069	01		 DB	 1
  0006a	01		 DB	 1
  0006b	01		 DB	 1
  0006c	01		 DB	 1
  0006d	01		 DB	 1
  0006e	00		 DB	 0
  0006f	01		 DB	 1
  00070	00		 DB	 0
  00071	01		 DB	 1
  00072	00		 DB	 0
?DoesDisplayDataMinMaxInGap_Type@CViewMinMaxCalculator@@ABE_NPBVCSubGraphData@@@Z ENDP ; CViewMinMaxCalculator::DoesDisplayDataMinMaxInGap_Type
_TEXT	ENDS
; Function compile flags: /Ogtp
; File D:\git\src\IBK\IBK_DRFN\ProjSrc\SrcChartEx\ChartOCX\ChartObject\ViewMinMaxCalculator.cpp
; File C:\Program Files (x86)\Microsoft Visual Studio\2019\Community\VC\Tools\MSVC\14.29.30133\atlmfc\include\cstringt.h
; File D:\git\src\IBK\IBK_DRFN\ProjSrc\SrcChartEx\ChartOCX\ChartObject\ViewMinMaxCalculator.cpp
; File C:\Program Files (x86)\Microsoft Visual Studio\2019\Community\VC\Tools\MSVC\14.29.30133\atlmfc\include\cstringt.h
; File D:\git\src\IBK\IBK_DRFN\ProjSrc\SrcChartEx\ChartOCX\ChartObject\ViewMinMaxCalculator.cpp
; File C:\Program Files (x86)\Microsoft Visual Studio\2019\Community\VC\Tools\MSVC\14.29.30133\atlmfc\include\atlsimpstr.h
; File D:\git\src\IBK\IBK_DRFN\ProjSrc\SrcChartEx\ChartOCX\ChartObject\ViewMinMaxCalculator.cpp
; File C:\Program Files (x86)\Microsoft Visual Studio\2019\Community\VC\Tools\MSVC\14.29.30133\atlmfc\include\atlsimpstr.h
; File D:\git\src\IBK\IBK_DRFN\ProjSrc\SrcChartEx\ChartOCX\ChartObject\ViewMinMaxCalculator.cpp
;	COMDAT ?DoesDisplayDataMinMaxInGap@CViewMinMaxCalculator@@ABE_NABVCVertDisplayDataMinMaxInputData@@@Z
_TEXT	SEGMENT
$T2 = -24						; size = 4
$T3 = -20						; size = 4
$T4 = -16						; size = 4
__$EHRec$ = -12						; size = 12
$T5 = 8							; size = 4
_inputData$ = 8						; size = 4
?DoesDisplayDataMinMaxInGap@CViewMinMaxCalculator@@ABE_NABVCVertDisplayDataMinMaxInputData@@@Z PROC ; CViewMinMaxCalculator::DoesDisplayDataMinMaxInGap, COMDAT
; _this$ = ecx

; 630  : {

  00000	55		 push	 ebp
  00001	8b ec		 mov	 ebp, esp
  00003	6a ff		 push	 -1
  00005	68 00 00 00 00	 push	 __ehhandler$?DoesDisplayDataMinMaxInGap@CViewMinMaxCalculator@@ABE_NABVCVertDisplayDataMinMaxInputData@@@Z
  0000a	64 a1 00 00 00
	00		 mov	 eax, DWORD PTR fs:0
  00010	50		 push	 eax
  00011	83 ec 0c	 sub	 esp, 12			; 0000000cH
  00014	56		 push	 esi
  00015	57		 push	 edi
  00016	a1 00 00 00 00	 mov	 eax, DWORD PTR ___security_cookie
  0001b	33 c5		 xor	 eax, ebp
  0001d	50		 push	 eax
  0001e	8d 45 f4	 lea	 eax, DWORD PTR __$EHRec$[ebp]
  00021	64 a3 00 00 00
	00		 mov	 DWORD PTR fs:0, eax

; 632  : 	if(inputData.GetIndicatorName() == _MTEXT( C2_MINI_INDEX_CHART))

  00027	8b 7d 08	 mov	 edi, DWORD PTR _inputData$[ebp]
  0002a	8d 45 f0	 lea	 eax, DWORD PTR $T4[ebp]
  0002d	50		 push	 eax
  0002e	8b cf		 mov	 ecx, edi
  00030	e8 00 00 00 00	 call	 ?GetIndicatorName@CVertDisplayDataMinMaxInputData@@QBE?AV?$CStringT@DV?$StrTraitMFC_DLL@DV?$ChTraitsCRT@D@ATL@@@@@ATL@@XZ ; CVertDisplayDataMinMaxInputData::GetIndicatorName
  00035	8b 0d 54 00 00
	00		 mov	 ecx, DWORD PTR ?g_iMetaTable@@3VIMetaTable@@A+84
  0003b	c7 45 fc 00 00
	00 00		 mov	 DWORD PTR __$EHRec$[ebp+8], 0
; File C:\Program Files (x86)\Microsoft Visual Studio\2019\Community\VC\Tools\MSVC\14.29.30133\atlmfc\include\cstringt.h

; 2486 : 		return(str1.Compare(psz2) == 0);

  00042	ff b1 94 0c 00
	00		 push	 DWORD PTR [ecx+3220]
  00048	8b c8		 mov	 ecx, eax
  0004a	ff 15 00 00 00
	00		 call	 DWORD PTR __imp_?Compare@?$CStringT@DV?$StrTraitMFC_DLL@DV?$ChTraitsCRT@D@ATL@@@@@ATL@@QBEHPBD@Z
; File D:\git\src\IBK\IBK_DRFN\ProjSrc\SrcChartEx\ChartOCX\ChartObject\ViewMinMaxCalculator.cpp

; 632  : 	if(inputData.GetIndicatorName() == _MTEXT( C2_MINI_INDEX_CHART))

  00050	8d 4d f0	 lea	 ecx, DWORD PTR $T4[ebp]
  00053	c7 45 fc ff ff
	ff ff		 mov	 DWORD PTR __$EHRec$[ebp+8], -1
; File C:\Program Files (x86)\Microsoft Visual Studio\2019\Community\VC\Tools\MSVC\14.29.30133\atlmfc\include\cstringt.h

; 2486 : 		return(str1.Compare(psz2) == 0);

  0005a	8b f0		 mov	 esi, eax
; File D:\git\src\IBK\IBK_DRFN\ProjSrc\SrcChartEx\ChartOCX\ChartObject\ViewMinMaxCalculator.cpp

; 632  : 	if(inputData.GetIndicatorName() == _MTEXT( C2_MINI_INDEX_CHART))

  0005c	ff 15 00 00 00
	00		 call	 DWORD PTR __imp_??1?$CStringT@DV?$StrTraitMFC_DLL@DV?$ChTraitsCRT@D@ATL@@@@@ATL@@QAE@XZ
  00062	85 f6		 test	 esi, esi
  00064	74 6c		 je	 SHORT $LN21@DoesDispla

; 635  : 	if(!inputData.GetIndicatorName().IsEmpty())

  00066	8d 45 08	 lea	 eax, DWORD PTR $T5[ebp]
  00069	8b cf		 mov	 ecx, edi
  0006b	50		 push	 eax
  0006c	e8 00 00 00 00	 call	 ?GetIndicatorName@CVertDisplayDataMinMaxInputData@@QBE?AV?$CStringT@DV?$StrTraitMFC_DLL@DV?$ChTraitsCRT@D@ATL@@@@@ATL@@XZ ; CVertDisplayDataMinMaxInputData::GetIndicatorName
  00071	8d 4d 08	 lea	 ecx, DWORD PTR $T5[ebp]
; File C:\Program Files (x86)\Microsoft Visual Studio\2019\Community\VC\Tools\MSVC\14.29.30133\atlmfc\include\atlsimpstr.h

; 519  : 		return( GetData()->nDataLength );

  00074	8b 00		 mov	 eax, DWORD PTR [eax]
  00076	8b 70 f4	 mov	 esi, DWORD PTR [eax-12]
; File D:\git\src\IBK\IBK_DRFN\ProjSrc\SrcChartEx\ChartOCX\ChartObject\ViewMinMaxCalculator.cpp

; 635  : 	if(!inputData.GetIndicatorName().IsEmpty())

  00079	ff 15 00 00 00
	00		 call	 DWORD PTR __imp_??1?$CStringT@DV?$StrTraitMFC_DLL@DV?$ChTraitsCRT@D@ATL@@@@@ATL@@QAE@XZ
; File C:\Program Files (x86)\Microsoft Visual Studio\2019\Community\VC\Tools\MSVC\14.29.30133\atlmfc\include\atlsimpstr.h

; 533  : 		return( GetLength() == 0 );

  0007f	85 f6		 test	 esi, esi
; File D:\git\src\IBK\IBK_DRFN\ProjSrc\SrcChartEx\ChartOCX\ChartObject\ViewMinMaxCalculator.cpp

; 635  : 	if(!inputData.GetIndicatorName().IsEmpty())

  00081	75 64		 jne	 SHORT $LN16@DoesDispla

; 636  : 		return false;
; 637  : 
; 638  : 	// subGraph type 로 결정.
; 639  : 	return DoesDisplayDataMinMaxInGap_Type(inputData.GetSubGraphData());

  00083	8b cf		 mov	 ecx, edi
  00085	e8 00 00 00 00	 call	 ?GetSubGraphData@CVertDisplayDataMinMaxInputData@@QBEPAVCSubGraphData@@XZ ; CVertDisplayDataMinMaxInputData::GetSubGraphData
  0008a	8b f0		 mov	 esi, eax

; 647  : 	if(pSubGraphData == NULL)

  0008c	85 f6		 test	 esi, esi
  0008e	74 57		 je	 SHORT $LN16@DoesDispla

; 648  : 		return false;
; 649  : 	
; 650  : 	if(pSubGraphData->GetType() != CGraphBaseData::Bar_Type)

  00090	8b ce		 mov	 ecx, esi
  00092	ff 15 00 00 00
	00		 call	 DWORD PTR __imp_?GetType@CSubGraphDataBase@@QBE?AW4GRAPHTYPE@CGraphBaseData@@XZ
  00098	83 f8 02	 cmp	 eax, 2
  0009b	75 4a		 jne	 SHORT $LN16@DoesDispla

; 651  : 		return false;
; 652  : 
; 653  : 	// drawingStyle가 <Text형>인 경우는 Text가 표현되기 때문에 gap을 줄필요가 없다!
; 654  : 	if(pSubGraphData->GetDrawStyle().GetGraphBarDrawStyle() == CGraphBaseData::TextBar_Draw)

  0009d	8d 45 ec	 lea	 eax, DWORD PTR $T3[ebp]
  000a0	8b ce		 mov	 ecx, esi
  000a2	50		 push	 eax
  000a3	ff 15 00 00 00
	00		 call	 DWORD PTR __imp_?GetDrawStyle@CSubGraphDataBase@@QBE?AVCGraphDrawStyle@@XZ
  000a9	83 38 03	 cmp	 DWORD PTR [eax], 3
  000ac	74 39		 je	 SHORT $LN16@DoesDispla

; 655  : 		return false;
; 656  : 
; 657  : 	CGraphBaseData::BARSTYLE eStyle = pSubGraphData->GetStyle().GetGraphBarStyle();

  000ae	8d 45 e8	 lea	 eax, DWORD PTR $T2[ebp]
  000b1	8b ce		 mov	 ecx, esi
  000b3	50		 push	 eax
  000b4	ff 15 00 00 00
	00		 call	 DWORD PTR __imp_?GetStyle@CSubGraphDataBase@@QBE?AVCGraphStyle@@XZ

; 658  : 	switch(eStyle){

  000ba	8b 00		 mov	 eax, DWORD PTR [eax]
  000bc	83 c0 fe	 add	 eax, -2			; fffffffeH
  000bf	83 f8 0e	 cmp	 eax, 14			; 0000000eH
  000c2	77 23		 ja	 SHORT $LN16@DoesDispla
  000c4	0f b6 80 00 00
	00 00		 movzx	 eax, BYTE PTR $LN26@DoesDispla[eax]
  000cb	ff 24 85 00 00
	00 00		 jmp	 DWORD PTR $LN27@DoesDispla[eax*4]
$LN21@DoesDispla:

; 640  : }

  000d2	b0 01		 mov	 al, 1
  000d4	8b 4d f4	 mov	 ecx, DWORD PTR __$EHRec$[ebp]
  000d7	64 89 0d 00 00
	00 00		 mov	 DWORD PTR fs:0, ecx
  000de	59		 pop	 ecx
  000df	5f		 pop	 edi
  000e0	5e		 pop	 esi
  000e1	8b e5		 mov	 esp, ebp
  000e3	5d		 pop	 ebp
  000e4	c2 04 00	 ret	 4
$LN16@DoesDispla:
  000e7	32 c0		 xor	 al, al
  000e9	8b 4d f4	 mov	 ecx, DWORD PTR __$EHRec$[ebp]
  000ec	64 89 0d 00 00
	00 00		 mov	 DWORD PTR fs:0, ecx
  000f3	59		 pop	 ecx
  000f4	5f		 pop	 edi
  000f5	5e		 pop	 esi
  000f6	8b e5		 mov	 esp, ebp
  000f8	5d		 pop	 ebp
  000f9	c2 04 00	 ret	 4
$LN27@DoesDispla:
  000fc	00 00 00 00	 DD	 $LN21@DoesDispla
  00100	00 00 00 00	 DD	 $LN16@DoesDispla
$LN26@DoesDispla:
  00104	00		 DB	 0
  00105	01		 DB	 1
  00106	01		 DB	 1
  00107	01		 DB	 1
  00108	01		 DB	 1
  00109	01		 DB	 1
  0010a	01		 DB	 1
  0010b	01		 DB	 1
  0010c	01		 DB	 1
  0010d	01		 DB	 1
  0010e	00		 DB	 0
  0010f	01		 DB	 1
  00110	00		 DB	 0
  00111	01		 DB	 1
  00112	00		 DB	 0
_TEXT	ENDS
;	COMDAT text$x
text$x	SEGMENT
__unwindfunclet$?DoesDisplayDataMinMaxInGap@CViewMinMaxCalculator@@ABE_NABVCVertDisplayDataMinMaxInputData@@@Z$0:
  00000	8d 4d f0	 lea	 ecx, DWORD PTR $T4[ebp]
  00003	ff 25 00 00 00
	00		 jmp	 DWORD PTR __imp_??1?$CStringT@DV?$StrTraitMFC_DLL@DV?$ChTraitsCRT@D@ATL@@@@@ATL@@QAE@XZ
  00009	cc		 int	 3
  0000a	cc		 int	 3
  0000b	cc		 int	 3
  0000c	cc		 int	 3
  0000d	cc		 int	 3
__ehhandler$?DoesDisplayDataMinMaxInGap@CViewMinMaxCalculator@@ABE_NABVCVertDisplayDataMinMaxInputData@@@Z:
  0000e	90		 npad	 1
  0000f	90		 npad	 1
  00010	8b 54 24 08	 mov	 edx, DWORD PTR [esp+8]
  00014	8d 42 0c	 lea	 eax, DWORD PTR [edx+12]
  00017	8b 4a e8	 mov	 ecx, DWORD PTR [edx-24]
  0001a	33 c8		 xor	 ecx, eax
  0001c	e8 00 00 00 00	 call	 @__security_check_cookie@4
  00021	b8 00 00 00 00	 mov	 eax, OFFSET __ehfuncinfo$?DoesDisplayDataMinMaxInGap@CViewMinMaxCalculator@@ABE_NABVCVertDisplayDataMinMaxInputData@@@Z
  00026	e9 00 00 00 00	 jmp	 ___CxxFrameHandler3
text$x	ENDS
?DoesDisplayDataMinMaxInGap@CViewMinMaxCalculator@@ABE_NABVCVertDisplayDataMinMaxInputData@@@Z ENDP ; CViewMinMaxCalculator::DoesDisplayDataMinMaxInGap
; Function compile flags: /Ogtp
; File D:\git\src\IBK\IBK_DRFN\ProjSrc\SrcChartEx\ChartOCX\ChartObject\ViewMinMaxCalculator.cpp
;	COMDAT ?DoesViewMinMaxWithoutZero@CViewMinMaxCalculator@@ABE_NPAVCSubGraphData@@@Z
_TEXT	SEGMENT
$T1 = 8							; size = 4
$T2 = 8							; size = 4
$T3 = 8							; size = 4
_pSubGraphData$ = 8					; size = 4
?DoesViewMinMaxWithoutZero@CViewMinMaxCalculator@@ABE_NPAVCSubGraphData@@@Z PROC ; CViewMinMaxCalculator::DoesViewMinMaxWithoutZero, COMDAT
; _this$ = ecx

; 601  : {

  00000	55		 push	 ebp
  00001	8b ec		 mov	 ebp, esp
  00003	56		 push	 esi

; 602  : 	if(pSubGraphData == NULL)

  00004	8b 75 08	 mov	 esi, DWORD PTR _pSubGraphData$[ebp]
  00007	85 f6		 test	 esi, esi
  00009	75 07		 jne	 SHORT $LN4@DoesViewMi
$LN9@DoesViewMi:

; 623  : 	}
; 624  : 
; 625  : 	return false;
; 626  : }

  0000b	32 c0		 xor	 al, al
  0000d	5e		 pop	 esi
  0000e	5d		 pop	 ebp
  0000f	c2 04 00	 ret	 4
$LN4@DoesViewMi:

; 603  : 		return false;
; 604  : 
; 605  : 	// (2006/12/20 - Seung-Won, Bae) Support with Not-Continued Line in 0
; 606  : 	switch( pSubGraphData->GetType())

  00012	8b ce		 mov	 ecx, esi
  00014	ff 15 00 00 00
	00		 call	 DWORD PTR __imp_?GetType@CSubGraphDataBase@@QBE?AW4GRAPHTYPE@CGraphBaseData@@XZ
  0001a	83 e8 00	 sub	 eax, 0
  0001d	74 33		 je	 SHORT $LN10@DoesViewMi
  0001f	83 e8 01	 sub	 eax, 1
  00022	74 16		 je	 SHORT $LN7@DoesViewMi
  00024	83 e8 01	 sub	 eax, 1
  00027	75 e2		 jne	 SHORT $LN9@DoesViewMi

; 607  : 	{
; 608  : 		case CGraphBaseData::Bar_Type:
; 609  : 			if (pSubGraphData->GetDrawStyle().GetGraphBarDrawStyle() == CGraphBaseData::NonZero_DotBar_Draw)

  00029	8d 45 08	 lea	 eax, DWORD PTR $T3[ebp]
  0002c	8b ce		 mov	 ecx, esi
  0002e	50		 push	 eax
  0002f	ff 15 00 00 00
	00		 call	 DWORD PTR __imp_?GetDrawStyle@CSubGraphDataBase@@QBE?AVCGraphDrawStyle@@XZ
  00035	83 38 02	 cmp	 DWORD PTR [eax], 2
  00038	eb 0f		 jmp	 SHORT $LN14@DoesViewMi
$LN7@DoesViewMi:

; 610  : 				return true;
; 611  : 			else break;
; 612  : 
; 613  : 		case CGraphBaseData::Line_Type:
; 614  : 			if (pSubGraphData->GetStyle().GetGraphLineStyle() == CGraphBaseData::NonZeroLine)

  0003a	8d 45 08	 lea	 eax, DWORD PTR $T2[ebp]
  0003d	8b ce		 mov	 ecx, esi
  0003f	50		 push	 eax
  00040	ff 15 00 00 00
	00		 call	 DWORD PTR __imp_?GetStyle@CSubGraphDataBase@@QBE?AVCGraphStyle@@XZ
  00046	83 38 05	 cmp	 DWORD PTR [eax], 5
$LN14@DoesViewMi:

; 615  : 				return true;

  00049	75 c0		 jne	 SHORT $LN9@DoesViewMi
  0004b	b0 01		 mov	 al, 1
  0004d	5e		 pop	 esi

; 623  : 	}
; 624  : 
; 625  : 	return false;
; 626  : }

  0004e	5d		 pop	 ebp
  0004f	c2 04 00	 ret	 4
$LN10@DoesViewMi:

; 616  : 			else break;
; 617  : 
; 618  : 		// (2007/2/6 - Seung-Won, Bae) Check Candle Stick Chart for avoiding Zero Open/High/Low in Base or Market Close Price.
; 619  : 		//		Caution! It is Koscom Only. Use EXCEPTIONVALUE Help Message in Packet.
; 620  : 		case CGraphBaseData::Bong_Type:
; 621  : 			// (2009/1/17 - Seung-Won, Bae) Do not check 'KOSCOM' name. (on sometimes, CWinApp can not be found.)
; 622  : 			return ( pSubGraphData->GetStyle().GetGraphBongStyle() != CGraphBaseData::LineBong);

  00052	8d 45 08	 lea	 eax, DWORD PTR $T1[ebp]
  00055	8b ce		 mov	 ecx, esi
  00057	50		 push	 eax
  00058	ff 15 00 00 00
	00		 call	 DWORD PTR __imp_?GetStyle@CSubGraphDataBase@@QBE?AVCGraphStyle@@XZ
  0005e	5e		 pop	 esi
  0005f	83 38 02	 cmp	 DWORD PTR [eax], 2
  00062	0f 95 c0	 setne	 al

; 623  : 	}
; 624  : 
; 625  : 	return false;
; 626  : }

  00065	5d		 pop	 ebp
  00066	c2 04 00	 ret	 4
?DoesViewMinMaxWithoutZero@CViewMinMaxCalculator@@ABE_NPAVCSubGraphData@@@Z ENDP ; CViewMinMaxCalculator::DoesViewMinMaxWithoutZero
_TEXT	ENDS
; Function compile flags: /Ogtp
; File D:\git\src\IBK\IBK_DRFN\ProjSrc\SrcChartEx\ChartOCX\ChartObject\ViewMinMaxCalculator.cpp
;	COMDAT ?GetDataStartInBlock@CViewMinMaxCalculator@@ABEHPAVCPacket@@H@Z
_TEXT	SEGMENT
_pPacket$ = 8						; size = 4
_nDataStartInBlock$ = 12				; size = 4
?GetDataStartInBlock@CViewMinMaxCalculator@@ABEHPAVCPacket@@H@Z PROC ; CViewMinMaxCalculator::GetDataStartInBlock, COMDAT
; _this$ = ecx

; 591  : {

  00000	55		 push	 ebp
  00001	8b ec		 mov	 ebp, esp
  00003	56		 push	 esi

; 592  : 	if(pPacket == NULL || nDataStartInBlock > pPacket->GetStartPeriod())

  00004	8b 75 08	 mov	 esi, DWORD PTR _pPacket$[ebp]
  00007	85 f6		 test	 esi, esi
  00009	74 1a		 je	 SHORT $LN3@GetDataSta
  0000b	8b ce		 mov	 ecx, esi
  0000d	ff 15 00 00 00
	00		 call	 DWORD PTR __imp_?GetStartPeriod@CPacket@@QAEHXZ
  00013	39 45 0c	 cmp	 DWORD PTR _nDataStartInBlock$[ebp], eax
  00016	7f 0d		 jg	 SHORT $LN3@GetDataSta

; 594  : 
; 595  : 	return pPacket->GetStartPeriod();

  00018	8b ce		 mov	 ecx, esi
  0001a	ff 15 00 00 00
	00		 call	 DWORD PTR __imp_?GetStartPeriod@CPacket@@QAEHXZ
  00020	5e		 pop	 esi

; 596  : }

  00021	5d		 pop	 ebp
  00022	c2 08 00	 ret	 8
$LN3@GetDataSta:

; 593  : 		return nDataStartInBlock;

  00025	8b 45 0c	 mov	 eax, DWORD PTR _nDataStartInBlock$[ebp]
  00028	5e		 pop	 esi

; 596  : }

  00029	5d		 pop	 ebp
  0002a	c2 08 00	 ret	 8
?GetDataStartInBlock@CViewMinMaxCalculator@@ABEHPAVCPacket@@H@Z ENDP ; CViewMinMaxCalculator::GetDataStartInBlock
_TEXT	ENDS
; Function compile flags: /Ogtp
; File D:\git\src\IBK\IBK_DRFN\ProjSrc\SrcChartEx\ChartOCX\ChartObject\ViewMinMaxCalculator.cpp
;	COMDAT ?GetDataStartAndEndInBlock@CViewMinMaxCalculator@@ABE_NPAVCPacket@@ABVCDisplayAttributes@@AAH2@Z
_TEXT	SEGMENT
_pPacket$ = 8						; size = 4
_displayAttributes$ = 12				; size = 4
_nStart$ = 16						; size = 4
_nEnd$ = 20						; size = 4
?GetDataStartAndEndInBlock@CViewMinMaxCalculator@@ABE_NPAVCPacket@@ABVCDisplayAttributes@@AAH2@Z PROC ; CViewMinMaxCalculator::GetDataStartAndEndInBlock, COMDAT
; _this$ = ecx

; 582  : {

  00000	55		 push	 ebp
  00001	8b ec		 mov	 ebp, esp

; 583  : 	nStart = GetDataStartInBlock(pPacket, displayAttributes.GetDataStartInBlock());

  00003	8b 4d 0c	 mov	 ecx, DWORD PTR _displayAttributes$[ebp]
  00006	56		 push	 esi
  00007	57		 push	 edi
  00008	e8 00 00 00 00	 call	 ?GetDataStartInBlock@CDisplayAttributes@@QBEHXZ ; CDisplayAttributes::GetDataStartInBlock

; 592  : 	if(pPacket == NULL || nDataStartInBlock > pPacket->GetStartPeriod())

  0000d	8b 75 08	 mov	 esi, DWORD PTR _pPacket$[ebp]

; 583  : 	nStart = GetDataStartInBlock(pPacket, displayAttributes.GetDataStartInBlock());

  00010	8b f8		 mov	 edi, eax

; 592  : 	if(pPacket == NULL || nDataStartInBlock > pPacket->GetStartPeriod())

  00012	85 f6		 test	 esi, esi
  00014	74 16		 je	 SHORT $LN7@GetDataSta
  00016	8b ce		 mov	 ecx, esi
  00018	ff 15 00 00 00
	00		 call	 DWORD PTR __imp_?GetStartPeriod@CPacket@@QAEHXZ
  0001e	3b f8		 cmp	 edi, eax
  00020	7f 0a		 jg	 SHORT $LN7@GetDataSta

; 593  : 		return nDataStartInBlock;
; 594  : 
; 595  : 	return pPacket->GetStartPeriod();

  00022	8b ce		 mov	 ecx, esi
  00024	ff 15 00 00 00
	00		 call	 DWORD PTR __imp_?GetStartPeriod@CPacket@@QAEHXZ
  0002a	8b f8		 mov	 edi, eax
$LN7@GetDataSta:

; 583  : 	nStart = GetDataStartInBlock(pPacket, displayAttributes.GetDataStartInBlock());

  0002c	8b 75 10	 mov	 esi, DWORD PTR _nStart$[ebp]

; 584  : 	nEnd = displayAttributes.GetDataEndInBlock();

  0002f	8b 4d 0c	 mov	 ecx, DWORD PTR _displayAttributes$[ebp]
  00032	89 3e		 mov	 DWORD PTR [esi], edi
  00034	e8 00 00 00 00	 call	 ?GetDataEndInBlock@CDisplayAttributes@@QBEHXZ ; CDisplayAttributes::GetDataEndInBlock
  00039	8b 4d 14	 mov	 ecx, DWORD PTR _nEnd$[ebp]

; 585  : 
; 586  : 	return (nStart >= 0 && nEnd >= 0 && nStart <= nEnd);

  0003c	5f		 pop	 edi
  0003d	89 01		 mov	 DWORD PTR [ecx], eax
  0003f	8b 0e		 mov	 ecx, DWORD PTR [esi]
  00041	5e		 pop	 esi
  00042	85 c9		 test	 ecx, ecx
  00044	78 0e		 js	 SHORT $LN3@GetDataSta
  00046	85 c0		 test	 eax, eax
  00048	78 0a		 js	 SHORT $LN3@GetDataSta
  0004a	3b c8		 cmp	 ecx, eax
  0004c	7f 06		 jg	 SHORT $LN3@GetDataSta
  0004e	b0 01		 mov	 al, 1

; 587  : }

  00050	5d		 pop	 ebp
  00051	c2 10 00	 ret	 16			; 00000010H
$LN3@GetDataSta:

; 585  : 
; 586  : 	return (nStart >= 0 && nEnd >= 0 && nStart <= nEnd);

  00054	32 c0		 xor	 al, al

; 587  : }

  00056	5d		 pop	 ebp
  00057	c2 10 00	 ret	 16			; 00000010H
?GetDataStartAndEndInBlock@CViewMinMaxCalculator@@ABE_NPAVCPacket@@ABVCDisplayAttributes@@AAH2@Z ENDP ; CViewMinMaxCalculator::GetDataStartAndEndInBlock
_TEXT	ENDS
; Function compile flags: /Ogtp
; File D:\git\src\IBK\IBK_DRFN\ProjSrc\SrcChartEx\ChartOCX\ChartObject\ViewMinMaxCalculator.cpp
; File C:\Program Files (x86)\Microsoft Visual Studio\2019\Community\VC\Tools\MSVC\14.29.30133\atlmfc\include\atlsimpstr.h
; File D:\git\src\IBK\IBK_DRFN\ProjSrc\SrcChartEx\ChartOCX\ChartObject\ViewMinMaxCalculator.cpp
; File C:\Program Files (x86)\Microsoft Visual Studio\2019\Community\VC\Tools\MSVC\14.29.30133\atlmfc\include\cstringt.h
; File D:\git\src\IBK\IBK_DRFN\ProjSrc\SrcChartEx\ChartOCX\ChartObject\ViewMinMaxCalculator.cpp
; File C:\Program Files (x86)\Microsoft Visual Studio\2019\Community\VC\Tools\MSVC\14.29.30133\atlmfc\include\cstringt.h
; File D:\git\src\IBK\IBK_DRFN\ProjSrc\SrcChartEx\ChartOCX\ChartObject\ViewMinMaxCalculator.cpp
; File C:\Program Files (x86)\Microsoft Visual Studio\2019\Community\VC\Tools\MSVC\14.29.30133\atlmfc\include\cstringt.h
; File D:\git\src\IBK\IBK_DRFN\ProjSrc\SrcChartEx\ChartOCX\ChartObject\ViewMinMaxCalculator.cpp
;	COMDAT ?GetPacket@CViewMinMaxCalculator@@ABEPAVCPacket@@PAVCSubGraphPacketList@@ABV?$CStringT@DV?$StrTraitMFC_DLL@DV?$ChTraitsCRT@D@ATL@@@@@ATL@@@Z
_TEXT	SEGMENT
$T2 = -16						; size = 4
__$EHRec$ = -12						; size = 12
_pos$ = 8						; size = 4
_pSubGraphPacketList$ = 8				; size = 4
_strPacketName$ = 12					; size = 4
?GetPacket@CViewMinMaxCalculator@@ABEPAVCPacket@@PAVCSubGraphPacketList@@ABV?$CStringT@DV?$StrTraitMFC_DLL@DV?$ChTraitsCRT@D@ATL@@@@@ATL@@@Z PROC ; CViewMinMaxCalculator::GetPacket, COMDAT
; _this$ = ecx

; 566  : {

  00000	55		 push	 ebp
  00001	8b ec		 mov	 ebp, esp
  00003	6a ff		 push	 -1
  00005	68 00 00 00 00	 push	 __ehhandler$?GetPacket@CViewMinMaxCalculator@@ABEPAVCPacket@@PAVCSubGraphPacketList@@ABV?$CStringT@DV?$StrTraitMFC_DLL@DV?$ChTraitsCRT@D@ATL@@@@@ATL@@@Z
  0000a	64 a1 00 00 00
	00		 mov	 eax, DWORD PTR fs:0
  00010	50		 push	 eax
  00011	51		 push	 ecx
  00012	53		 push	 ebx
  00013	56		 push	 esi
  00014	57		 push	 edi
  00015	a1 00 00 00 00	 mov	 eax, DWORD PTR ___security_cookie
  0001a	33 c5		 xor	 eax, ebp
  0001c	50		 push	 eax
  0001d	8d 45 f4	 lea	 eax, DWORD PTR __$EHRec$[ebp]
  00020	64 a3 00 00 00
	00		 mov	 DWORD PTR fs:0, eax

; 567  : 	if(pSubGraphPacketList == NULL || strPacketName.IsEmpty())

  00026	8b 7d 08	 mov	 edi, DWORD PTR _pSubGraphPacketList$[ebp]
  00029	85 ff		 test	 edi, edi
  0002b	74 62		 je	 SHORT $LN5@GetPacket
; File C:\Program Files (x86)\Microsoft Visual Studio\2019\Community\VC\Tools\MSVC\14.29.30133\atlmfc\include\atlsimpstr.h

; 519  : 		return( GetData()->nDataLength );

  0002d	8b 75 0c	 mov	 esi, DWORD PTR _strPacketName$[ebp]
  00030	8b 06		 mov	 eax, DWORD PTR [esi]

; 533  : 		return( GetLength() == 0 );

  00032	83 78 f4 00	 cmp	 DWORD PTR [eax-12], 0
; File D:\git\src\IBK\IBK_DRFN\ProjSrc\SrcChartEx\ChartOCX\ChartObject\ViewMinMaxCalculator.cpp

; 567  : 	if(pSubGraphPacketList == NULL || strPacketName.IsEmpty())

  00036	74 57		 je	 SHORT $LN5@GetPacket

; 569  : 
; 570  : 	POSITION pos = pSubGraphPacketList->GetHeadPosition();

  00038	8b cf		 mov	 ecx, edi
  0003a	e8 00 00 00 00	 call	 ?GetHeadPosition@CSubGraphPacketList@@QAEPAU__POSITION@@XZ ; CSubGraphPacketList::GetHeadPosition
  0003f	89 45 08	 mov	 DWORD PTR _pos$[ebp], eax

; 571  : 	while(pos != NULL){

  00042	85 c0		 test	 eax, eax
  00044	74 49		 je	 SHORT $LN5@GetPacket
$LL2@GetPacket:

; 572  : 		CPacket* pPacket = pSubGraphPacketList->GetNext(pos);

  00046	8d 45 08	 lea	 eax, DWORD PTR _pos$[ebp]
  00049	8b cf		 mov	 ecx, edi
  0004b	50		 push	 eax
  0004c	e8 00 00 00 00	 call	 ?GetNext@CSubGraphPacketList@@QAEPAVCPacket@@AAPAU__POSITION@@@Z ; CSubGraphPacketList::GetNext
  00051	8b d8		 mov	 ebx, eax

; 574  : 		if(pPacket->GetName() == strPacketName)

  00053	8d 45 f0	 lea	 eax, DWORD PTR $T2[ebp]
  00056	50		 push	 eax
  00057	8b cb		 mov	 ecx, ebx
  00059	ff 15 00 00 00
	00		 call	 DWORD PTR __imp_?GetName@CPacket@@QAE?AV?$CStringT@DV?$StrTraitMFC_DLL@DV?$ChTraitsCRT@D@ATL@@@@@ATL@@XZ
; File C:\Program Files (x86)\Microsoft Visual Studio\2019\Community\VC\Tools\MSVC\14.29.30133\atlmfc\include\cstringt.h

; 2479 : 		return(str1.Compare(str2) == 0);

  0005f	ff 36		 push	 DWORD PTR [esi]
  00061	8b c8		 mov	 ecx, eax
; File D:\git\src\IBK\IBK_DRFN\ProjSrc\SrcChartEx\ChartOCX\ChartObject\ViewMinMaxCalculator.cpp

; 574  : 		if(pPacket->GetName() == strPacketName)

  00063	c7 45 fc 00 00
	00 00		 mov	 DWORD PTR __$EHRec$[ebp+8], 0
; File C:\Program Files (x86)\Microsoft Visual Studio\2019\Community\VC\Tools\MSVC\14.29.30133\atlmfc\include\cstringt.h

; 2479 : 		return(str1.Compare(str2) == 0);

  0006a	ff 15 00 00 00
	00		 call	 DWORD PTR __imp_?Compare@?$CStringT@DV?$StrTraitMFC_DLL@DV?$ChTraitsCRT@D@ATL@@@@@ATL@@QBEHPBD@Z
; File D:\git\src\IBK\IBK_DRFN\ProjSrc\SrcChartEx\ChartOCX\ChartObject\ViewMinMaxCalculator.cpp

; 574  : 		if(pPacket->GetName() == strPacketName)

  00070	8d 4d f0	 lea	 ecx, DWORD PTR $T2[ebp]
  00073	c7 45 fc ff ff
	ff ff		 mov	 DWORD PTR __$EHRec$[ebp+8], -1
; File C:\Program Files (x86)\Microsoft Visual Studio\2019\Community\VC\Tools\MSVC\14.29.30133\atlmfc\include\cstringt.h

; 2479 : 		return(str1.Compare(str2) == 0);

  0007a	8b f0		 mov	 esi, eax
; File D:\git\src\IBK\IBK_DRFN\ProjSrc\SrcChartEx\ChartOCX\ChartObject\ViewMinMaxCalculator.cpp

; 574  : 		if(pPacket->GetName() == strPacketName)

  0007c	ff 15 00 00 00
	00		 call	 DWORD PTR __imp_??1?$CStringT@DV?$StrTraitMFC_DLL@DV?$ChTraitsCRT@D@ATL@@@@@ATL@@QAE@XZ
  00082	85 f6		 test	 esi, esi
  00084	74 1f		 je	 SHORT $LN20@GetPacket

; 571  : 	while(pos != NULL){

  00086	83 7d 08 00	 cmp	 DWORD PTR _pos$[ebp], 0
  0008a	8b 75 0c	 mov	 esi, DWORD PTR _strPacketName$[ebp]
  0008d	75 b7		 jne	 SHORT $LL2@GetPacket
$LN5@GetPacket:

; 568  : 		return NULL;

  0008f	33 c0		 xor	 eax, eax

; 576  : 	}
; 577  : 	return NULL;
; 578  : }

  00091	8b 4d f4	 mov	 ecx, DWORD PTR __$EHRec$[ebp]
  00094	64 89 0d 00 00
	00 00		 mov	 DWORD PTR fs:0, ecx
  0009b	59		 pop	 ecx
  0009c	5f		 pop	 edi
  0009d	5e		 pop	 esi
  0009e	5b		 pop	 ebx
  0009f	8b e5		 mov	 esp, ebp
  000a1	5d		 pop	 ebp
  000a2	c2 08 00	 ret	 8
$LN20@GetPacket:

; 575  : 			return pPacket;

  000a5	8b c3		 mov	 eax, ebx

; 576  : 	}
; 577  : 	return NULL;
; 578  : }

  000a7	8b 4d f4	 mov	 ecx, DWORD PTR __$EHRec$[ebp]
  000aa	64 89 0d 00 00
	00 00		 mov	 DWORD PTR fs:0, ecx
  000b1	59		 pop	 ecx
  000b2	5f		 pop	 edi
  000b3	5e		 pop	 esi
  000b4	5b		 pop	 ebx
  000b5	8b e5		 mov	 esp, ebp
  000b7	5d		 pop	 ebp
  000b8	c2 08 00	 ret	 8
_TEXT	ENDS
;	COMDAT text$x
text$x	SEGMENT
__unwindfunclet$?GetPacket@CViewMinMaxCalculator@@ABEPAVCPacket@@PAVCSubGraphPacketList@@ABV?$CStringT@DV?$StrTraitMFC_DLL@DV?$ChTraitsCRT@D@ATL@@@@@ATL@@@Z$0:
  00000	8d 4d f0	 lea	 ecx, DWORD PTR $T2[ebp]
  00003	ff 25 00 00 00
	00		 jmp	 DWORD PTR __imp_??1?$CStringT@DV?$StrTraitMFC_DLL@DV?$ChTraitsCRT@D@ATL@@@@@ATL@@QAE@XZ
  00009	cc		 int	 3
  0000a	cc		 int	 3
  0000b	cc		 int	 3
  0000c	cc		 int	 3
  0000d	cc		 int	 3
__ehhandler$?GetPacket@CViewMinMaxCalculator@@ABEPAVCPacket@@PAVCSubGraphPacketList@@ABV?$CStringT@DV?$StrTraitMFC_DLL@DV?$ChTraitsCRT@D@ATL@@@@@ATL@@@Z:
  0000e	90		 npad	 1
  0000f	90		 npad	 1
  00010	8b 54 24 08	 mov	 edx, DWORD PTR [esp+8]
  00014	8d 42 0c	 lea	 eax, DWORD PTR [edx+12]
  00017	8b 4a ec	 mov	 ecx, DWORD PTR [edx-20]
  0001a	33 c8		 xor	 ecx, eax
  0001c	e8 00 00 00 00	 call	 @__security_check_cookie@4
  00021	b8 00 00 00 00	 mov	 eax, OFFSET __ehfuncinfo$?GetPacket@CViewMinMaxCalculator@@ABEPAVCPacket@@PAVCSubGraphPacketList@@ABV?$CStringT@DV?$StrTraitMFC_DLL@DV?$ChTraitsCRT@D@ATL@@@@@ATL@@@Z
  00026	e9 00 00 00 00	 jmp	 ___CxxFrameHandler3
text$x	ENDS
?GetPacket@CViewMinMaxCalculator@@ABEPAVCPacket@@PAVCSubGraphPacketList@@ABV?$CStringT@DV?$StrTraitMFC_DLL@DV?$ChTraitsCRT@D@ATL@@@@@ATL@@@Z ENDP ; CViewMinMaxCalculator::GetPacket
; Function compile flags: /Ogtp
; File D:\git\src\IBK\IBK_DRFN\ProjSrc\SrcChartEx\ChartOCX\ChartObject\ViewMinMaxCalculator.cpp
;	COMDAT ?GetPacketList@CViewMinMaxCalculator@@ABEPAVCPacketList@@PAVCSubGraphPacketList@@@Z
_TEXT	SEGMENT
_pSubGraphPacketList$ = 8				; size = 4
?GetPacketList@CViewMinMaxCalculator@@ABEPAVCPacketList@@PAVCSubGraphPacketList@@@Z PROC ; CViewMinMaxCalculator::GetPacketList, COMDAT
; _this$ = ecx

; 554  : {

  00000	55		 push	 ebp
  00001	8b ec		 mov	 ebp, esp

; 555  : 	if(pSubGraphPacketList == NULL)

  00003	8b 4d 08	 mov	 ecx, DWORD PTR _pSubGraphPacketList$[ebp]
  00006	85 c9		 test	 ecx, ecx
  00008	74 15		 je	 SHORT $LN5@GetPacketL

; 556  : 		return NULL;
; 557  : 
; 558  : 	CPacket* pPacket = pSubGraphPacketList->GetHeadPacket();

  0000a	e8 00 00 00 00	 call	 ?GetHeadPacket@CSubGraphPacketList@@QAEPAVCPacket@@XZ ; CSubGraphPacketList::GetHeadPacket

; 559  : 	if(pPacket == NULL)

  0000f	85 c0		 test	 eax, eax
  00011	74 0c		 je	 SHORT $LN5@GetPacketL

; 561  : 
; 562  : 	return pPacket->GetPacketList();

  00013	8b c8		 mov	 ecx, eax
  00015	ff 15 00 00 00
	00		 call	 DWORD PTR __imp_?GetPacketList@CPacket@@QAEPAVCPacketList@@XZ

; 563  : }

  0001b	5d		 pop	 ebp
  0001c	c2 04 00	 ret	 4
$LN5@GetPacketL:

; 560  : 		return NULL;

  0001f	33 c0		 xor	 eax, eax

; 563  : }

  00021	5d		 pop	 ebp
  00022	c2 04 00	 ret	 4
?GetPacketList@CViewMinMaxCalculator@@ABEPAVCPacketList@@PAVCSubGraphPacketList@@@Z ENDP ; CViewMinMaxCalculator::GetPacketList
_TEXT	ENDS
; Function compile flags: /Ogtp
; File D:\git\src\IBK\IBK_DRFN\ProjSrc\SrcChartEx\ChartOCX\ChartObject\ViewMinMaxCalculator.cpp
;	COMDAT ?GetViewVertMinMax_DisperSion@CViewMinMaxCalculator@@AAE_NABVCVertDisplayDataMinMaxInputData@@AAVCDisplayDataMinMax@@H@Z
_TEXT	SEGMENT
$T1 = -12						; size = 8
_pos$ = -4						; size = 4
_inputData$ = 8						; size = 4
_displayDataMinMax$ = 12				; size = 4
_p_bWithFullRange$ = 16					; size = 4
?GetViewVertMinMax_DisperSion@CViewMinMaxCalculator@@AAE_NABVCVertDisplayDataMinMaxInputData@@AAVCDisplayDataMinMax@@H@Z PROC ; CViewMinMaxCalculator::GetViewVertMinMax_DisperSion, COMDAT
; _this$ = ecx

; 672  : {

  00000	55		 push	 ebp
  00001	8b ec		 mov	 ebp, esp
  00003	83 ec 0c	 sub	 esp, 12			; 0000000cH
  00006	53		 push	 ebx
  00007	8b d9		 mov	 ebx, ecx

; 673  : 	// 1. Sub Graph Packet List를 구한다.
; 674  : 	CSubGraphPacketList *pSubGraphPacketList = inputData.GetSubGraphPacketList();

  00009	8b 4d 08	 mov	 ecx, DWORD PTR _inputData$[ebp]
  0000c	56		 push	 esi
  0000d	e8 00 00 00 00	 call	 ?GetSubGraphPacketList@CVertDisplayDataMinMaxInputData@@QBEPAVCSubGraphPacketList@@XZ ; CVertDisplayDataMinMaxInputData::GetSubGraphPacketList
  00012	8b f0		 mov	 esi, eax

; 675  : 	if( !pSubGraphPacketList) return false;

  00014	85 f6		 test	 esi, esi
  00016	75 0a		 jne	 SHORT $LN2@GetViewVer
  00018	5e		 pop	 esi
  00019	32 c0		 xor	 al, al

; 685  : }

  0001b	5b		 pop	 ebx
  0001c	8b e5		 mov	 esp, ebp
  0001e	5d		 pop	 ebp
  0001f	c2 0c 00	 ret	 12			; 0000000cH
$LN2@GetViewVer:

; 676  : 
; 677  : 	// 2. 종가 Packet을 확보한다.
; 678  : 	POSITION pos = pSubGraphPacketList->GetHeadPosition();

  00022	8b ce		 mov	 ecx, esi
  00024	e8 00 00 00 00	 call	 ?GetHeadPosition@CSubGraphPacketList@@QAEPAU__POSITION@@XZ ; CSubGraphPacketList::GetHeadPosition
  00029	89 45 fc	 mov	 DWORD PTR _pos$[ebp], eax

; 679  : 	if( !pos) FALSE;
; 680  : 	CPacket* pPacket = pSubGraphPacketList->GetNext( pos);	//시가Packet

  0002c	8b ce		 mov	 ecx, esi
  0002e	8d 45 fc	 lea	 eax, DWORD PTR _pos$[ebp]
  00031	50		 push	 eax
  00032	e8 00 00 00 00	 call	 ?GetNext@CSubGraphPacketList@@QAEPAVCPacket@@AAPAU__POSITION@@@Z ; CSubGraphPacketList::GetNext

; 681  : 	if( !pos) FALSE;
; 682  : 	pPacket = pSubGraphPacketList->GetNext( pos);			//종가Packet

  00037	8d 45 fc	 lea	 eax, DWORD PTR _pos$[ebp]
  0003a	8b ce		 mov	 ecx, esi
  0003c	50		 push	 eax
  0003d	e8 00 00 00 00	 call	 ?GetNext@CSubGraphPacketList@@QAEPAVCPacket@@AAPAU__POSITION@@@Z ; CSubGraphPacketList::GetNext

; 683  : 
; 684  : 	return GetPacketMinMax(pPacket, inputData.GetDisplayAttributes(), false, displayDataMinMax, p_bWithFullRange);

  00042	ff 75 10	 push	 DWORD PTR _p_bWithFullRange$[ebp]
  00045	8b 4d 08	 mov	 ecx, DWORD PTR _inputData$[ebp]
  00048	8b f0		 mov	 esi, eax
  0004a	ff 75 0c	 push	 DWORD PTR _displayDataMinMax$[ebp]
  0004d	8d 45 f4	 lea	 eax, DWORD PTR $T1[ebp]
  00050	6a 00		 push	 0
  00052	50		 push	 eax
  00053	e8 00 00 00 00	 call	 ?GetDisplayAttributes@CVertDisplayDataMinMaxInputData@@QBE?AVCDisplayAttributes@@XZ ; CVertDisplayDataMinMaxInputData::GetDisplayAttributes
  00058	50		 push	 eax
  00059	56		 push	 esi
  0005a	8b cb		 mov	 ecx, ebx
  0005c	e8 00 00 00 00	 call	 ?GetPacketMinMax@CViewMinMaxCalculator@@ABE_NPAVCPacket@@ABVCDisplayAttributes@@_NAAVCDisplayDataMinMax@@H@Z ; CViewMinMaxCalculator::GetPacketMinMax
  00061	5e		 pop	 esi

; 685  : }

  00062	5b		 pop	 ebx
  00063	8b e5		 mov	 esp, ebp
  00065	5d		 pop	 ebp
  00066	c2 0c 00	 ret	 12			; 0000000cH
?GetViewVertMinMax_DisperSion@CViewMinMaxCalculator@@AAE_NABVCVertDisplayDataMinMaxInputData@@AAVCDisplayDataMinMax@@H@Z ENDP ; CViewMinMaxCalculator::GetViewVertMinMax_DisperSion
_TEXT	ENDS
; Function compile flags: /Ogtp
; File D:\git\src\IBK\IBK_DRFN\ProjSrc\SrcChartEx\ChartOCX\ChartObject\ViewMinMaxCalculator.cpp
;	COMDAT ?GetPacketMinMax@CViewMinMaxCalculator@@ABE_NPAVCPacket@@ABVCDisplayAttributes@@_NAAVCDisplayDataMinMax@@H@Z
_TEXT	SEGMENT
$T1 = -32						; size = 16
_dMin$ = -16						; size = 8
_dMax$ = -8						; size = 8
_pPacket$ = 8						; size = 4
_displayAttributes$ = 12				; size = 4
_bWithoutZero$ = 16					; size = 1
_displayDataMinMax$ = 20				; size = 4
_p_bWithFullRange$ = 24					; size = 4
?GetPacketMinMax@CViewMinMaxCalculator@@ABE_NPAVCPacket@@ABVCDisplayAttributes@@_NAAVCDisplayDataMinMax@@H@Z PROC ; CViewMinMaxCalculator::GetPacketMinMax, COMDAT
; _this$ = ecx

; 520  : {	

  00000	55		 push	 ebp
  00001	8b ec		 mov	 ebp, esp
  00003	83 ec 20	 sub	 esp, 32			; 00000020H
  00006	56		 push	 esi

; 521  : 	if(pPacket == NULL || pPacket->GetCount() <= 0)

  00007	8b 75 08	 mov	 esi, DWORD PTR _pPacket$[ebp]
  0000a	57		 push	 edi
  0000b	85 f6		 test	 esi, esi
  0000d	74 47		 je	 SHORT $LN3@GetPacketM
  0000f	8b 06		 mov	 eax, DWORD PTR [esi]
  00011	8b ce		 mov	 ecx, esi
  00013	ff 50 14	 call	 DWORD PTR [eax+20]
  00016	85 c0		 test	 eax, eax
  00018	7e 3c		 jle	 SHORT $LN3@GetPacketM

; 523  : 
; 524  : 	int nStart = -1, nEnd = -1;
; 525  : 	
; 526  : 	// (2006/11/11 - Seung-Won, Bae) Support Full Range Min/Max Vert Scale.
; 527  : 	if( !p_bWithFullRange)

  0001a	83 7d 18 00	 cmp	 DWORD PTR _p_bWithFullRange$[ebp], 0
  0001e	75 40		 jne	 SHORT $LN4@GetPacketM

; 583  : 	nStart = GetDataStartInBlock(pPacket, displayAttributes.GetDataStartInBlock());

  00020	8b 4d 0c	 mov	 ecx, DWORD PTR _displayAttributes$[ebp]
  00023	e8 00 00 00 00	 call	 ?GetDataStartInBlock@CDisplayAttributes@@QBEHXZ ; CDisplayAttributes::GetDataStartInBlock

; 592  : 	if(pPacket == NULL || nDataStartInBlock > pPacket->GetStartPeriod())

  00028	8b ce		 mov	 ecx, esi

; 583  : 	nStart = GetDataStartInBlock(pPacket, displayAttributes.GetDataStartInBlock());

  0002a	8b f8		 mov	 edi, eax

; 592  : 	if(pPacket == NULL || nDataStartInBlock > pPacket->GetStartPeriod())

  0002c	ff 15 00 00 00
	00		 call	 DWORD PTR __imp_?GetStartPeriod@CPacket@@QAEHXZ
  00032	3b f8		 cmp	 edi, eax
  00034	7f 0a		 jg	 SHORT $LN15@GetPacketM

; 593  : 		return nDataStartInBlock;
; 594  : 
; 595  : 	return pPacket->GetStartPeriod();

  00036	8b ce		 mov	 ecx, esi
  00038	ff 15 00 00 00
	00		 call	 DWORD PTR __imp_?GetStartPeriod@CPacket@@QAEHXZ
  0003e	8b f8		 mov	 edi, eax
$LN15@GetPacketM:

; 584  : 	nEnd = displayAttributes.GetDataEndInBlock();

  00040	8b 4d 0c	 mov	 ecx, DWORD PTR _displayAttributes$[ebp]
  00043	e8 00 00 00 00	 call	 ?GetDataEndInBlock@CDisplayAttributes@@QBEHXZ ; CDisplayAttributes::GetDataEndInBlock
  00048	8b c8		 mov	 ecx, eax

; 585  : 
; 586  : 	return (nStart >= 0 && nEnd >= 0 && nStart <= nEnd);

  0004a	85 ff		 test	 edi, edi
  0004c	78 08		 js	 SHORT $LN3@GetPacketM
  0004e	85 c9		 test	 ecx, ecx
  00050	78 04		 js	 SHORT $LN3@GetPacketM
  00052	3b f9		 cmp	 edi, ecx
  00054	7e 11		 jle	 SHORT $LN5@GetPacketM
$LN3@GetPacketM:
  00056	5f		 pop	 edi

; 522  : 		return false;

  00057	32 c0		 xor	 al, al

; 549  : }

  00059	5e		 pop	 esi
  0005a	8b e5		 mov	 esp, ebp
  0005c	5d		 pop	 ebp
  0005d	c2 14 00	 ret	 20			; 00000014H
$LN4@GetPacketM:

; 528  : 	{
; 529  : 		if(!GetDataStartAndEndInBlock(pPacket, displayAttributes, nStart, nEnd))
; 530  : 			return false;
; 531  : 	}
; 532  : 	else
; 533  : 	{
; 534  : 		nStart	= 0;

  00060	33 ff		 xor	 edi, edi

; 535  : 		nEnd	= INT_MAX;

  00062	b9 ff ff ff 7f	 mov	 ecx, 2147483647		; 7fffffffH
$LN5@GetPacketM:

; 536  : 	}
; 537  : 
; 538  : 	bool bResult = false;
; 539  : 	//20100515 이문수 >>
; 540  : 	//double dMin = -HUGE_VAL, dMax = -HUGE_VAL;
; 541  : 	double dMin = HUGE_VAL, dMax = -HUGE_VAL;
; 542  : 	//20100515 이문수 >>
; 543  : 
; 544  : 	// (2007/2/7 - Seung-Won, Bae) Calculate Min/Max without Zero
; 545  : 	if( pPacket->GetMinMax( nStart, nEnd, dMin, dMax, bWithoutZero) < 0) return false;

  00067	0f b6 45 10	 movzx	 eax, BYTE PTR _bWithoutZero$[ebp]
  0006b	f2 0f 10 05 00
	00 00 00	 movsd	 xmm0, QWORD PTR __real@7ff0000000000000
  00073	50		 push	 eax
  00074	8d 45 f8	 lea	 eax, DWORD PTR _dMax$[ebp]
  00077	f2 0f 11 45 f0	 movsd	 QWORD PTR _dMin$[ebp], xmm0
  0007c	f2 0f 10 05 00
	00 00 00	 movsd	 xmm0, QWORD PTR __real@fff0000000000000
  00084	50		 push	 eax
  00085	8d 45 f0	 lea	 eax, DWORD PTR _dMin$[ebp]
  00088	f2 0f 11 45 f8	 movsd	 QWORD PTR _dMax$[ebp], xmm0
  0008d	50		 push	 eax
  0008e	51		 push	 ecx
  0008f	57		 push	 edi
  00090	8b ce		 mov	 ecx, esi
  00092	ff 15 00 00 00
	00		 call	 DWORD PTR __imp_?GetMinMax@CPacket@@QAEHHHAAN0H@Z
  00098	85 c0		 test	 eax, eax
  0009a	78 ba		 js	 SHORT $LN3@GetPacketM

; 546  : 
; 547  : 	displayDataMinMax = CDisplayDataMinMax(dMin, dMax);

  0009c	8d 45 f8	 lea	 eax, DWORD PTR _dMax$[ebp]
  0009f	50		 push	 eax
  000a0	8d 45 f0	 lea	 eax, DWORD PTR _dMin$[ebp]
  000a3	50		 push	 eax
  000a4	8d 4d e0	 lea	 ecx, DWORD PTR $T1[ebp]
  000a7	ff 15 00 00 00
	00		 call	 DWORD PTR __imp_??0CDisplayDataMinMax@@QAE@ABN0@Z
  000ad	8b 4d 14	 mov	 ecx, DWORD PTR _displayDataMinMax$[ebp]
  000b0	50		 push	 eax
  000b1	ff 15 00 00 00
	00		 call	 DWORD PTR __imp_??4CDisplayDataMinMax@@QAEAAV0@ABV0@@Z
  000b7	5f		 pop	 edi

; 548  : 	return true;

  000b8	b0 01		 mov	 al, 1

; 549  : }

  000ba	5e		 pop	 esi
  000bb	8b e5		 mov	 esp, ebp
  000bd	5d		 pop	 ebp
  000be	c2 14 00	 ret	 20			; 00000014H
?GetPacketMinMax@CViewMinMaxCalculator@@ABE_NPAVCPacket@@ABVCDisplayAttributes@@_NAAVCDisplayDataMinMax@@H@Z ENDP ; CViewMinMaxCalculator::GetPacketMinMax
_TEXT	ENDS
; Function compile flags: /Ogtp
; File D:\git\src\IBK\IBK_DRFN\ProjSrc\SrcChartEx\ChartOCX\ChartObject\ViewMinMaxCalculator.cpp
;	COMDAT ?GetViewVertMinMax_Packet@CViewMinMaxCalculator@@AAE_NPAVCPacket@@ABVCDisplayAttributes@@_NAAVCDisplayDataMinMax@@H@Z
_TEXT	SEGMENT
_temp$ = -40						; size = 16
tv160 = -24						; size = 8
tv148 = -24						; size = 8
_dMin$1 = -16						; size = 8
_dMax$2 = -8						; size = 8
$T3 = 8							; size = 4
_pPacket$ = 8						; size = 4
_displayAttributes$ = 12				; size = 4
_bWithoutZero$ = 16					; size = 1
_displayDataMinMax$ = 20				; size = 4
_p_bWithFullRange$ = 24					; size = 4
?GetViewVertMinMax_Packet@CViewMinMaxCalculator@@AAE_NPAVCPacket@@ABVCDisplayAttributes@@_NAAVCDisplayDataMinMax@@H@Z PROC ; CViewMinMaxCalculator::GetViewVertMinMax_Packet, COMDAT
; _this$ = ecx

; 490  : {

  00000	55		 push	 ebp
  00001	8b ec		 mov	 ebp, esp
  00003	83 ec 28	 sub	 esp, 40			; 00000028H
  00006	53		 push	 ebx
  00007	56		 push	 esi
  00008	57		 push	 edi

; 491  : 	if(pPacket == NULL)

  00009	8b 7d 08	 mov	 edi, DWORD PTR _pPacket$[ebp]
  0000c	8b d9		 mov	 ebx, ecx
  0000e	85 ff		 test	 edi, edi
  00010	0f 84 f4 00 00
	00		 je	 $LN11@GetViewVer

; 492  : 		return false;
; 493  : 
; 494  : 	// packetName = <xxx자료일자> 일 경우에는 min/max를 구하지 않는다!!
; 495  : 	if(pPacket->GetName().Find( _MTEXT( C0_DATE_TIME)) >= 0)

  00016	8d 45 08	 lea	 eax, DWORD PTR $T3[ebp]
  00019	8b cf		 mov	 ecx, edi
  0001b	50		 push	 eax
  0001c	ff 15 00 00 00
	00		 call	 DWORD PTR __imp_?GetName@CPacket@@QAE?AV?$CStringT@DV?$StrTraitMFC_DLL@DV?$ChTraitsCRT@D@ATL@@@@@ATL@@XZ
  00022	8b 0d 54 00 00
	00		 mov	 ecx, DWORD PTR ?g_iMetaTable@@3VIMetaTable@@A+84
  00028	6a 00		 push	 0
  0002a	ff 31		 push	 DWORD PTR [ecx]
  0002c	8b c8		 mov	 ecx, eax
  0002e	ff 15 00 00 00
	00		 call	 DWORD PTR __imp_?Find@?$CStringT@DV?$StrTraitMFC_DLL@DV?$ChTraitsCRT@D@ATL@@@@@ATL@@QBEHPBDH@Z
  00034	8d 4d 08	 lea	 ecx, DWORD PTR $T3[ebp]
  00037	8b f0		 mov	 esi, eax
  00039	ff 15 00 00 00
	00		 call	 DWORD PTR __imp_??1?$CStringT@DV?$StrTraitMFC_DLL@DV?$ChTraitsCRT@D@ATL@@@@@ATL@@QAE@XZ
  0003f	85 f6		 test	 esi, esi
  00041	0f 89 c3 00 00
	00		 jns	 $LN11@GetViewVer

; 496  : 		return false;
; 497  : 	
; 498  : 	CDisplayDataMinMax temp;

  00047	8d 4d d8	 lea	 ecx, DWORD PTR _temp$[ebp]
  0004a	ff 15 00 00 00
	00		 call	 DWORD PTR __imp_??0CDisplayDataMinMax@@QAE@XZ

; 499  : 	if(!GetPacketMinMax(pPacket, displayAttributes, bWithoutZero, temp, p_bWithFullRange))

  00050	ff 75 18	 push	 DWORD PTR _p_bWithFullRange$[ebp]
  00053	8d 45 d8	 lea	 eax, DWORD PTR _temp$[ebp]
  00056	8b cb		 mov	 ecx, ebx
  00058	50		 push	 eax
  00059	ff 75 10	 push	 DWORD PTR _bWithoutZero$[ebp]
  0005c	ff 75 0c	 push	 DWORD PTR _displayAttributes$[ebp]
  0005f	57		 push	 edi
  00060	e8 00 00 00 00	 call	 ?GetPacketMinMax@CViewMinMaxCalculator@@ABE_NPAVCPacket@@ABVCDisplayAttributes@@_NAAVCDisplayDataMinMax@@H@Z ; CViewMinMaxCalculator::GetPacketMinMax
  00065	84 c0		 test	 al, al
  00067	0f 84 9d 00 00
	00		 je	 $LN11@GetViewVer

; 500  : 		return false;
; 501  : 
; 502  : 	// Min/Max 구하는 packet이 처음이 아닐 경우에만 기존의 Min/Max와 비교한다.
; 503  : 	// (2006/11/19 - Seung-Won, Bae) Support Initializing State
; 504  : 	if( displayDataMinMax.IsInitialized())

  0006d	8b 75 14	 mov	 esi, DWORD PTR _displayDataMinMax$[ebp]
  00070	8b ce		 mov	 ecx, esi
  00072	ff 15 00 00 00
	00		 call	 DWORD PTR __imp_?IsInitialized@CDisplayDataMinMax@@QBEHXZ
  00078	8b ce		 mov	 ecx, esi
  0007a	85 c0		 test	 eax, eax
  0007c	74 77		 je	 SHORT $LN5@GetViewVer

; 505  : 	{
; 506  : 		double dMin = displayDataMinMax.GetDisplayMin();

  0007e	ff 15 00 00 00
	00		 call	 DWORD PTR __imp_?GetDisplayMin@CDisplayDataMinMax@@QBENXZ
  00084	dd 5d f0	 fstp	 QWORD PTR _dMin$1[ebp]

; 507  : 		double dMax = displayDataMinMax.GetDisplayMax();

  00087	8b ce		 mov	 ecx, esi
  00089	ff 15 00 00 00
	00		 call	 DWORD PTR __imp_?GetDisplayMax@CDisplayDataMinMax@@QBENXZ
  0008f	dd 5d f8	 fstp	 QWORD PTR _dMax$2[ebp]

; 508  : 		if(temp.GetDisplayMin() < dMin) dMin = temp.GetDisplayMin();

  00092	8d 4d d8	 lea	 ecx, DWORD PTR _temp$[ebp]
  00095	ff 15 00 00 00
	00		 call	 DWORD PTR __imp_?GetDisplayMin@CDisplayDataMinMax@@QBENXZ
  0009b	f2 0f 10 45 f0	 movsd	 xmm0, QWORD PTR _dMin$1[ebp]
  000a0	dd 5d e8	 fstp	 QWORD PTR tv160[ebp]
  000a3	66 0f 2f 45 e8	 comisd	 xmm0, QWORD PTR tv160[ebp]
  000a8	76 0c		 jbe	 SHORT $LN7@GetViewVer
  000aa	8d 4d d8	 lea	 ecx, DWORD PTR _temp$[ebp]
  000ad	ff 15 00 00 00
	00		 call	 DWORD PTR __imp_?GetDisplayMin@CDisplayDataMinMax@@QBENXZ
  000b3	dd 5d f0	 fstp	 QWORD PTR _dMin$1[ebp]
$LN7@GetViewVer:

; 509  : 		if(temp.GetDisplayMax() > dMax) dMax = temp.GetDisplayMax();

  000b6	8d 4d d8	 lea	 ecx, DWORD PTR _temp$[ebp]
  000b9	ff 15 00 00 00
	00		 call	 DWORD PTR __imp_?GetDisplayMax@CDisplayDataMinMax@@QBENXZ
  000bf	dd 5d e8	 fstp	 QWORD PTR tv148[ebp]
  000c2	f2 0f 10 45 e8	 movsd	 xmm0, QWORD PTR tv148[ebp]
  000c7	66 0f 2f 45 f8	 comisd	 xmm0, QWORD PTR _dMax$2[ebp]
  000cc	76 0c		 jbe	 SHORT $LN8@GetViewVer
  000ce	8d 4d d8	 lea	 ecx, DWORD PTR _temp$[ebp]
  000d1	ff 15 00 00 00
	00		 call	 DWORD PTR __imp_?GetDisplayMax@CDisplayDataMinMax@@QBENXZ
  000d7	dd 5d f8	 fstp	 QWORD PTR _dMax$2[ebp]
$LN8@GetViewVer:

; 510  : 		displayDataMinMax.SetDisplayData( dMin, dMax);

  000da	8d 45 f8	 lea	 eax, DWORD PTR _dMax$2[ebp]
  000dd	8b ce		 mov	 ecx, esi
  000df	50		 push	 eax
  000e0	8d 45 f0	 lea	 eax, DWORD PTR _dMin$1[ebp]
  000e3	50		 push	 eax
  000e4	ff 15 00 00 00
	00		 call	 DWORD PTR __imp_?SetDisplayData@CDisplayDataMinMax@@QAEXABN0@Z
  000ea	5f		 pop	 edi

; 513  : 
; 514  : 	return true;
; 515  : }

  000eb	5e		 pop	 esi
  000ec	b0 01		 mov	 al, 1
  000ee	5b		 pop	 ebx
  000ef	8b e5		 mov	 esp, ebp
  000f1	5d		 pop	 ebp
  000f2	c2 14 00	 ret	 20			; 00000014H
$LN5@GetViewVer:

; 511  : 	}
; 512  : 	else displayDataMinMax = temp;

  000f5	8d 45 d8	 lea	 eax, DWORD PTR _temp$[ebp]
  000f8	50		 push	 eax
  000f9	ff 15 00 00 00
	00		 call	 DWORD PTR __imp_??4CDisplayDataMinMax@@QAEAAV0@ABV0@@Z
  000ff	5f		 pop	 edi

; 513  : 
; 514  : 	return true;
; 515  : }

  00100	5e		 pop	 esi
  00101	b0 01		 mov	 al, 1
  00103	5b		 pop	 ebx
  00104	8b e5		 mov	 esp, ebp
  00106	5d		 pop	 ebp
  00107	c2 14 00	 ret	 20			; 00000014H
$LN11@GetViewVer:
  0010a	5f		 pop	 edi
  0010b	5e		 pop	 esi
  0010c	32 c0		 xor	 al, al
  0010e	5b		 pop	 ebx
  0010f	8b e5		 mov	 esp, ebp
  00111	5d		 pop	 ebp
  00112	c2 14 00	 ret	 20			; 00000014H
?GetViewVertMinMax_Packet@CViewMinMaxCalculator@@AAE_NPAVCPacket@@ABVCDisplayAttributes@@_NAAVCDisplayDataMinMax@@H@Z ENDP ; CViewMinMaxCalculator::GetViewVertMinMax_Packet
_TEXT	ENDS
; Function compile flags: /Ogtp
; File D:\git\src\IBK\IBK_DRFN\ProjSrc\SrcChartEx\ChartOCX\ChartObject\ViewMinMaxCalculator.cpp
;	COMDAT ?ChangeViewVertMinMax_BarType@CViewMinMaxCalculator@@AAE_NPAVCSubGraphData@@AAVCDisplayDataMinMax@@@Z
_TEXT	SEGMENT
$T1 = -24						; size = 8
$T2 = -24						; size = 8
$T3 = -24						; size = 8
tv174 = -16						; size = 8
$T4 = -16						; size = 8
_dMax$5 = -16						; size = 8
tv179 = -8						; size = 8
_dMax$6 = -8						; size = 8
_dMin$7 = -8						; size = 8
$T8 = 8							; size = 4
_pSubGraphData$ = 8					; size = 4
_displayDataMinMax$ = 12				; size = 4
?ChangeViewVertMinMax_BarType@CViewMinMaxCalculator@@AAE_NPAVCSubGraphData@@AAVCDisplayDataMinMax@@@Z PROC ; CViewMinMaxCalculator::ChangeViewVertMinMax_BarType, COMDAT
; _this$ = ecx

; 451  : {

  00000	55		 push	 ebp
  00001	8b ec		 mov	 ebp, esp
  00003	83 ec 18	 sub	 esp, 24			; 00000018H
  00006	56		 push	 esi

; 452  : 	if(pSubGraphData->GetType() != CGraphBaseData::Bar_Type)

  00007	8b 75 08	 mov	 esi, DWORD PTR _pSubGraphData$[ebp]
  0000a	8b ce		 mov	 ecx, esi
  0000c	ff 15 00 00 00
	00		 call	 DWORD PTR __imp_?GetType@CSubGraphDataBase@@QBE?AW4GRAPHTYPE@CGraphBaseData@@XZ
  00012	83 f8 02	 cmp	 eax, 2
  00015	0f 85 fe 00 00
	00		 jne	 $LN12@ChangeView

; 453  : 		return false;
; 454  : 
; 455  : 	switch( pSubGraphData->GetStyle().GetGraphBarStyle())

  0001b	8d 45 08	 lea	 eax, DWORD PTR $T8[ebp]
  0001e	8b ce		 mov	 ecx, esi
  00020	50		 push	 eax
  00021	ff 15 00 00 00
	00		 call	 DWORD PTR __imp_?GetStyle@CSubGraphDataBase@@QBE?AVCGraphStyle@@XZ
  00027	8b 00		 mov	 eax, DWORD PTR [eax]
  00029	83 e8 00	 sub	 eax, 0
  0002c	0f 84 9c 00 00
	00		 je	 $LN9@ChangeView
  00032	83 e8 0e	 sub	 eax, 14			; 0000000eH
  00035	74 09		 je	 SHORT $LN5@ChangeView
  00037	83 e8 02	 sub	 eax, 2
  0003a	0f 85 d9 00 00
	00		 jne	 $LN12@ChangeView
$LN5@ChangeView:

; 456  : 	{
; 457  : 		// <고정비율빗형식> 인 경우 - 절대값중 가장 큰값이 Max, Min = -Max
; 458  : 		case CGraphBaseData::FixedRateCombBar:
; 459  : 		// 고정비율상하식 추가 - ojtaso (20080603)
; 460  : 		case CGraphBaseData::FixedRateUpDownBar:
; 461  : 		{
; 462  : 			double dMin = fabs(displayDataMinMax.GetDisplayMin());

  00040	8b 75 0c	 mov	 esi, DWORD PTR _displayDataMinMax$[ebp]
  00043	8b ce		 mov	 ecx, esi
  00045	ff 15 00 00 00
	00		 call	 DWORD PTR __imp_?GetDisplayMin@CDisplayDataMinMax@@QBENXZ
  0004b	dd 5d f8	 fstp	 QWORD PTR tv179[ebp]
  0004e	f2 0f 10 45 f8	 movsd	 xmm0, QWORD PTR tv179[ebp]

; 463  : 			double dMax = fabs(displayDataMinMax.GetDisplayMax());

  00053	8b ce		 mov	 ecx, esi
  00055	0f 54 05 00 00
	00 00		 andps	 xmm0, QWORD PTR __xmm@7fffffffffffffff7fffffffffffffff
  0005c	f2 0f 11 45 f8	 movsd	 QWORD PTR _dMin$7[ebp], xmm0
  00061	ff 15 00 00 00
	00		 call	 DWORD PTR __imp_?GetDisplayMax@CDisplayDataMinMax@@QBENXZ
  00067	f2 0f 10 4d f8	 movsd	 xmm1, QWORD PTR _dMin$7[ebp]

; 464  : 			if(dMax > dMin)

  0006c	8b ce		 mov	 ecx, esi
  0006e	dd 5d f0	 fstp	 QWORD PTR tv174[ebp]
  00071	f2 0f 10 45 f0	 movsd	 xmm0, QWORD PTR tv174[ebp]
  00076	0f 54 05 00 00
	00 00		 andps	 xmm0, QWORD PTR __xmm@7fffffffffffffff7fffffffffffffff
  0007d	66 0f 2f c1	 comisd	 xmm0, xmm1
  00081	f2 0f 11 45 f0	 movsd	 QWORD PTR _dMax$5[ebp], xmm0
  00086	76 23		 jbe	 SHORT $LN7@ChangeView

; 465  : 				displayDataMinMax.SetDisplayData(-dMax, dMax);

  00088	0f 57 05 00 00
	00 00		 xorps	 xmm0, QWORD PTR __xmm@80000000000000008000000000000000
  0008f	8d 45 f0	 lea	 eax, DWORD PTR _dMax$5[ebp]

; 482  : 	}
; 483  : 	return true;

  00092	50		 push	 eax
  00093	8d 45 e8	 lea	 eax, DWORD PTR $T1[ebp]
  00096	f2 0f 11 45 e8	 movsd	 QWORD PTR $T3[ebp], xmm0
  0009b	50		 push	 eax
  0009c	ff 15 00 00 00
	00		 call	 DWORD PTR __imp_?SetDisplayData@CDisplayDataMinMax@@QAEXABN0@Z
  000a2	b0 01		 mov	 al, 1
  000a4	5e		 pop	 esi

; 484  : }

  000a5	8b e5		 mov	 esp, ebp
  000a7	5d		 pop	 ebp
  000a8	c2 08 00	 ret	 8
$LN7@ChangeView:

; 466  : 			else
; 467  : 				displayDataMinMax.SetDisplayData(-dMin, dMin);

  000ab	0f 57 0d 00 00
	00 00		 xorps	 xmm1, QWORD PTR __xmm@80000000000000008000000000000000
$LN15@ChangeView:

; 482  : 	}
; 483  : 	return true;

  000b2	8d 45 f8	 lea	 eax, DWORD PTR _dMax$6[ebp]
  000b5	f2 0f 11 4d e8	 movsd	 QWORD PTR $T1[ebp], xmm1
  000ba	50		 push	 eax
  000bb	8d 45 e8	 lea	 eax, DWORD PTR $T1[ebp]
  000be	50		 push	 eax
  000bf	ff 15 00 00 00
	00		 call	 DWORD PTR __imp_?SetDisplayData@CDisplayDataMinMax@@QAEXABN0@Z
  000c5	b0 01		 mov	 al, 1
  000c7	5e		 pop	 esi

; 484  : }

  000c8	8b e5		 mov	 esp, ebp
  000ca	5d		 pop	 ebp
  000cb	c2 08 00	 ret	 8
$LN9@ChangeView:

; 468  : 			break;
; 469  : 		}
; 470  : 
; 471  : 		// "거래량차트" 일 경우엔 항상 min = 0
; 472  : 		case CGraphBaseData::VerticalBar:
; 473  : 		{
; 474  : 			// (2007/1/5 - Seung-Won, Bae) Support Default Max of Bar Chart. (for avoiding the Center 0.0 of VScale.)
; 475  : 			double dMax = displayDataMinMax.GetDisplayMax();

  000ce	8b 75 0c	 mov	 esi, DWORD PTR _displayDataMinMax$[ebp]
  000d1	8b ce		 mov	 ecx, esi
  000d3	ff 15 00 00 00
	00		 call	 DWORD PTR __imp_?GetDisplayMax@CDisplayDataMinMax@@QBENXZ
  000d9	dd 5d f8	 fstp	 QWORD PTR _dMax$6[ebp]

; 476  : 			if( dMax == 0.0)	displayDataMinMax.SetDisplayData( 0.0, 1.0);

  000dc	f2 0f 10 45 f8	 movsd	 xmm0, QWORD PTR _dMax$6[ebp]
  000e1	0f 57 c9	 xorps	 xmm1, xmm1
  000e4	66 0f 2e c1	 ucomisd xmm0, xmm1
  000e8	8b ce		 mov	 ecx, esi
  000ea	9f		 lahf
  000eb	f6 c4 44	 test	 ah, 68			; 00000044H
  000ee	7a c2		 jp	 SHORT $LN15@ChangeView
  000f0	f2 0f 10 05 00
	00 00 00	 movsd	 xmm0, QWORD PTR __real@3ff0000000000000
  000f8	8d 45 e8	 lea	 eax, DWORD PTR $T2[ebp]
  000fb	50		 push	 eax
  000fc	8d 45 f0	 lea	 eax, DWORD PTR $T4[ebp]
  000ff	f2 0f 11 45 e8	 movsd	 QWORD PTR $T2[ebp], xmm0

; 482  : 	}
; 483  : 	return true;

  00104	50		 push	 eax
  00105	f2 0f 11 4d f0	 movsd	 QWORD PTR $T4[ebp], xmm1
  0010a	ff 15 00 00 00
	00		 call	 DWORD PTR __imp_?SetDisplayData@CDisplayDataMinMax@@QAEXABN0@Z
  00110	b0 01		 mov	 al, 1
  00112	5e		 pop	 esi

; 484  : }

  00113	8b e5		 mov	 esp, ebp
  00115	5d		 pop	 ebp
  00116	c2 08 00	 ret	 8
$LN12@ChangeView:

; 477  : 			else				displayDataMinMax.SetDisplayData( 0.0, dMax);
; 478  : 			break;
; 479  : 		}
; 480  : 
; 481  : 		default:	return false;

  00119	32 c0		 xor	 al, al
  0011b	5e		 pop	 esi

; 484  : }

  0011c	8b e5		 mov	 esp, ebp
  0011e	5d		 pop	 ebp
  0011f	c2 08 00	 ret	 8
?ChangeViewVertMinMax_BarType@CViewMinMaxCalculator@@AAE_NPAVCSubGraphData@@AAVCDisplayDataMinMax@@@Z ENDP ; CViewMinMaxCalculator::ChangeViewVertMinMax_BarType
_TEXT	ENDS
; Function compile flags: /Ogtp
; File D:\git\src\IBK\IBK_DRFN\ProjSrc\SrcChartEx\ChartOCX\ChartObject\ViewMinMaxCalculator.cpp
;	COMDAT ?ChangeViewVertMinMax_GraphTypeOrStyle@CViewMinMaxCalculator@@AAE_NPAVCSubGraphData@@AAVCDisplayDataMinMax@@@Z
_TEXT	SEGMENT
$T1 = -64						; size = 8
$T2 = -56						; size = 8
$T3 = -48						; size = 8
$T4 = -40						; size = 8
$T5 = -32						; size = 8
_dMax$6 = -24						; size = 8
tv183 = -16						; size = 8
tv178 = -16						; size = 8
_dMax$7 = -16						; size = 8
_dMin$8 = -8						; size = 8
$T9 = 8							; size = 4
_pSubGraphData$ = 8					; size = 4
_displayDataMinMax$ = 12				; size = 4
?ChangeViewVertMinMax_GraphTypeOrStyle@CViewMinMaxCalculator@@AAE_NPAVCSubGraphData@@AAVCDisplayDataMinMax@@@Z PROC ; CViewMinMaxCalculator::ChangeViewVertMinMax_GraphTypeOrStyle, COMDAT
; _this$ = ecx

; 441  : {

  00000	55		 push	 ebp
  00001	8b ec		 mov	 ebp, esp
  00003	83 ec 40	 sub	 esp, 64			; 00000040H
  00006	56		 push	 esi

; 442  : 	if(pSubGraphData == NULL)

  00007	8b 75 08	 mov	 esi, DWORD PTR _pSubGraphData$[ebp]
  0000a	85 f6		 test	 esi, esi
  0000c	75 09		 jne	 SHORT $LN2@ChangeView
$LN18@ChangeView:

; 443  : 		return false;
; 444  : 
; 445  : 	// <바형>의 <고정비율빗형식> 인 경우
; 446  : 	return ChangeViewVertMinMax_BarType(pSubGraphData, displayDataMinMax);
; 447  : }

  0000e	32 c0		 xor	 al, al
  00010	5e		 pop	 esi
  00011	8b e5		 mov	 esp, ebp
  00013	5d		 pop	 ebp
  00014	c2 08 00	 ret	 8
$LN2@ChangeView:

; 452  : 	if(pSubGraphData->GetType() != CGraphBaseData::Bar_Type)

  00017	8b ce		 mov	 ecx, esi
  00019	ff 15 00 00 00
	00		 call	 DWORD PTR __imp_?GetType@CSubGraphDataBase@@QBE?AW4GRAPHTYPE@CGraphBaseData@@XZ
  0001f	83 f8 02	 cmp	 eax, 2
  00022	75 ea		 jne	 SHORT $LN18@ChangeView

; 453  : 		return false;
; 454  : 
; 455  : 	switch( pSubGraphData->GetStyle().GetGraphBarStyle())

  00024	8d 45 08	 lea	 eax, DWORD PTR $T9[ebp]
  00027	8b ce		 mov	 ecx, esi
  00029	50		 push	 eax
  0002a	ff 15 00 00 00
	00		 call	 DWORD PTR __imp_?GetStyle@CSubGraphDataBase@@QBE?AVCGraphStyle@@XZ
  00030	8b 00		 mov	 eax, DWORD PTR [eax]
  00032	83 e8 00	 sub	 eax, 0
  00035	0f 84 98 00 00
	00		 je	 $LN12@ChangeView
  0003b	83 e8 0e	 sub	 eax, 14			; 0000000eH
  0003e	74 05		 je	 SHORT $LN8@ChangeView
  00040	83 e8 02	 sub	 eax, 2
  00043	75 c9		 jne	 SHORT $LN18@ChangeView
$LN8@ChangeView:

; 456  : 	{
; 457  : 		// <고정비율빗형식> 인 경우 - 절대값중 가장 큰값이 Max, Min = -Max
; 458  : 		case CGraphBaseData::FixedRateCombBar:
; 459  : 		// 고정비율상하식 추가 - ojtaso (20080603)
; 460  : 		case CGraphBaseData::FixedRateUpDownBar:
; 461  : 		{
; 462  : 			double dMin = fabs(displayDataMinMax.GetDisplayMin());

  00045	8b 75 0c	 mov	 esi, DWORD PTR _displayDataMinMax$[ebp]
  00048	8b ce		 mov	 ecx, esi
  0004a	ff 15 00 00 00
	00		 call	 DWORD PTR __imp_?GetDisplayMin@CDisplayDataMinMax@@QBENXZ
  00050	dd 5d f0	 fstp	 QWORD PTR tv183[ebp]
  00053	f2 0f 10 45 f0	 movsd	 xmm0, QWORD PTR tv183[ebp]

; 463  : 			double dMax = fabs(displayDataMinMax.GetDisplayMax());

  00058	8b ce		 mov	 ecx, esi
  0005a	0f 54 05 00 00
	00 00		 andps	 xmm0, QWORD PTR __xmm@7fffffffffffffff7fffffffffffffff
  00061	f2 0f 11 45 f8	 movsd	 QWORD PTR _dMin$8[ebp], xmm0
  00066	ff 15 00 00 00
	00		 call	 DWORD PTR __imp_?GetDisplayMax@CDisplayDataMinMax@@QBENXZ
  0006c	f2 0f 10 4d f8	 movsd	 xmm1, QWORD PTR _dMin$8[ebp]

; 464  : 			if(dMax > dMin)

  00071	8b ce		 mov	 ecx, esi
  00073	dd 5d f0	 fstp	 QWORD PTR tv178[ebp]
  00076	f2 0f 10 45 f0	 movsd	 xmm0, QWORD PTR tv178[ebp]
  0007b	0f 54 05 00 00
	00 00		 andps	 xmm0, QWORD PTR __xmm@7fffffffffffffff7fffffffffffffff
  00082	66 0f 2f c1	 comisd	 xmm0, xmm1
  00086	f2 0f 11 45 e8	 movsd	 QWORD PTR _dMax$6[ebp], xmm0
  0008b	76 23		 jbe	 SHORT $LN10@ChangeView

; 465  : 				displayDataMinMax.SetDisplayData(-dMax, dMax);

  0008d	0f 57 05 00 00
	00 00		 xorps	 xmm0, QWORD PTR __xmm@80000000000000008000000000000000
  00094	8d 45 e8	 lea	 eax, DWORD PTR _dMax$6[ebp]
  00097	50		 push	 eax
  00098	8d 45 e0	 lea	 eax, DWORD PTR $T5[ebp]
  0009b	f2 0f 11 45 e0	 movsd	 QWORD PTR $T5[ebp], xmm0

; 478  : 			break;
; 479  : 		}
; 480  : 
; 481  : 		default:	return false;
; 482  : 	}
; 483  : 	return true;

  000a0	50		 push	 eax
  000a1	ff 15 00 00 00
	00		 call	 DWORD PTR __imp_?SetDisplayData@CDisplayDataMinMax@@QAEXABN0@Z
  000a7	b0 01		 mov	 al, 1
  000a9	5e		 pop	 esi

; 443  : 		return false;
; 444  : 
; 445  : 	// <바형>의 <고정비율빗형식> 인 경우
; 446  : 	return ChangeViewVertMinMax_BarType(pSubGraphData, displayDataMinMax);
; 447  : }

  000aa	8b e5		 mov	 esp, ebp
  000ac	5d		 pop	 ebp
  000ad	c2 08 00	 ret	 8
$LN10@ChangeView:

; 467  : 				displayDataMinMax.SetDisplayData(-dMin, dMin);

  000b0	0f 57 0d 00 00
	00 00		 xorps	 xmm1, QWORD PTR __xmm@80000000000000008000000000000000
  000b7	8d 45 f8	 lea	 eax, DWORD PTR _dMin$8[ebp]
  000ba	50		 push	 eax
  000bb	8d 45 d8	 lea	 eax, DWORD PTR $T4[ebp]
  000be	f2 0f 11 4d d8	 movsd	 QWORD PTR $T4[ebp], xmm1

; 478  : 			break;
; 479  : 		}
; 480  : 
; 481  : 		default:	return false;
; 482  : 	}
; 483  : 	return true;

  000c3	50		 push	 eax
  000c4	ff 15 00 00 00
	00		 call	 DWORD PTR __imp_?SetDisplayData@CDisplayDataMinMax@@QAEXABN0@Z
  000ca	b0 01		 mov	 al, 1
  000cc	5e		 pop	 esi

; 443  : 		return false;
; 444  : 
; 445  : 	// <바형>의 <고정비율빗형식> 인 경우
; 446  : 	return ChangeViewVertMinMax_BarType(pSubGraphData, displayDataMinMax);
; 447  : }

  000cd	8b e5		 mov	 esp, ebp
  000cf	5d		 pop	 ebp
  000d0	c2 08 00	 ret	 8
$LN12@ChangeView:

; 475  : 			double dMax = displayDataMinMax.GetDisplayMax();

  000d3	8b 75 0c	 mov	 esi, DWORD PTR _displayDataMinMax$[ebp]
  000d6	8b ce		 mov	 ecx, esi
  000d8	ff 15 00 00 00
	00		 call	 DWORD PTR __imp_?GetDisplayMax@CDisplayDataMinMax@@QBENXZ
  000de	dd 5d f0	 fstp	 QWORD PTR _dMax$7[ebp]

; 476  : 			if( dMax == 0.0)	displayDataMinMax.SetDisplayData( 0.0, 1.0);

  000e1	f2 0f 10 45 f0	 movsd	 xmm0, QWORD PTR _dMax$7[ebp]
  000e6	0f 57 c9	 xorps	 xmm1, xmm1
  000e9	66 0f 2e c1	 ucomisd xmm0, xmm1
  000ed	8b ce		 mov	 ecx, esi
  000ef	9f		 lahf
  000f0	f6 c4 44	 test	 ah, 68			; 00000044H
  000f3	7a 29		 jp	 SHORT $LN13@ChangeView
  000f5	f2 0f 10 05 00
	00 00 00	 movsd	 xmm0, QWORD PTR __real@3ff0000000000000
  000fd	8d 45 d0	 lea	 eax, DWORD PTR $T3[ebp]
  00100	50		 push	 eax
  00101	8d 45 c8	 lea	 eax, DWORD PTR $T2[ebp]
  00104	f2 0f 11 45 d0	 movsd	 QWORD PTR $T3[ebp], xmm0

; 478  : 			break;
; 479  : 		}
; 480  : 
; 481  : 		default:	return false;
; 482  : 	}
; 483  : 	return true;

  00109	50		 push	 eax
  0010a	f2 0f 11 4d c8	 movsd	 QWORD PTR $T2[ebp], xmm1
  0010f	ff 15 00 00 00
	00		 call	 DWORD PTR __imp_?SetDisplayData@CDisplayDataMinMax@@QAEXABN0@Z
  00115	b0 01		 mov	 al, 1
  00117	5e		 pop	 esi

; 443  : 		return false;
; 444  : 
; 445  : 	// <바형>의 <고정비율빗형식> 인 경우
; 446  : 	return ChangeViewVertMinMax_BarType(pSubGraphData, displayDataMinMax);
; 447  : }

  00118	8b e5		 mov	 esp, ebp
  0011a	5d		 pop	 ebp
  0011b	c2 08 00	 ret	 8
$LN13@ChangeView:

; 477  : 			else				displayDataMinMax.SetDisplayData( 0.0, dMax);

  0011e	8d 45 f0	 lea	 eax, DWORD PTR _dMax$7[ebp]
  00121	f2 0f 11 4d c0	 movsd	 QWORD PTR $T1[ebp], xmm1
  00126	50		 push	 eax
  00127	8d 45 c0	 lea	 eax, DWORD PTR $T1[ebp]

; 478  : 			break;
; 479  : 		}
; 480  : 
; 481  : 		default:	return false;
; 482  : 	}
; 483  : 	return true;

  0012a	50		 push	 eax
  0012b	ff 15 00 00 00
	00		 call	 DWORD PTR __imp_?SetDisplayData@CDisplayDataMinMax@@QAEXABN0@Z
  00131	b0 01		 mov	 al, 1
  00133	5e		 pop	 esi

; 443  : 		return false;
; 444  : 
; 445  : 	// <바형>의 <고정비율빗형식> 인 경우
; 446  : 	return ChangeViewVertMinMax_BarType(pSubGraphData, displayDataMinMax);
; 447  : }

  00134	8b e5		 mov	 esp, ebp
  00136	5d		 pop	 ebp
  00137	c2 08 00	 ret	 8
?ChangeViewVertMinMax_GraphTypeOrStyle@CViewMinMaxCalculator@@AAE_NPAVCSubGraphData@@AAVCDisplayDataMinMax@@@Z ENDP ; CViewMinMaxCalculator::ChangeViewVertMinMax_GraphTypeOrStyle
_TEXT	ENDS
; Function compile flags: /Ogtp
; File D:\git\src\IBK\IBK_DRFN\ProjSrc\SrcChartEx\ChartOCX\ChartObject\ViewMinMaxCalculator.cpp
;	COMDAT ?ChangeViewVertMinMax_Indicator@CViewMinMaxCalculator@@AAE_NABVCVertDisplayDataMinMaxInputData@@AAVCDisplayDataMinMax@@@Z
_TEXT	SEGMENT
_inputData$ = 8						; size = 4
_displayDataMinMax$ = 12				; size = 4
?ChangeViewVertMinMax_Indicator@CViewMinMaxCalculator@@AAE_NABVCVertDisplayDataMinMaxInputData@@AAVCDisplayDataMinMax@@@Z PROC ; CViewMinMaxCalculator::ChangeViewVertMinMax_Indicator, COMDAT
; _this$ = ecx

; 435  : {

  00000	55		 push	 ebp
  00001	8b ec		 mov	 ebp, esp
  00003	56		 push	 esi

; 436  : 	return ChangeViewVertMinMax_GraphTypeOrStyle(inputData.GetSubGraphData(), displayDataMinMax);

  00004	ff 75 0c	 push	 DWORD PTR _displayDataMinMax$[ebp]
  00007	8b f1		 mov	 esi, ecx
  00009	8b 4d 08	 mov	 ecx, DWORD PTR _inputData$[ebp]
  0000c	e8 00 00 00 00	 call	 ?GetSubGraphData@CVertDisplayDataMinMaxInputData@@QBEPAVCSubGraphData@@XZ ; CVertDisplayDataMinMaxInputData::GetSubGraphData
  00011	50		 push	 eax
  00012	8b ce		 mov	 ecx, esi
  00014	e8 00 00 00 00	 call	 ?ChangeViewVertMinMax_GraphTypeOrStyle@CViewMinMaxCalculator@@AAE_NPAVCSubGraphData@@AAVCDisplayDataMinMax@@@Z ; CViewMinMaxCalculator::ChangeViewVertMinMax_GraphTypeOrStyle
  00019	5e		 pop	 esi

; 437  : }

  0001a	5d		 pop	 ebp
  0001b	c2 08 00	 ret	 8
?ChangeViewVertMinMax_Indicator@CViewMinMaxCalculator@@AAE_NABVCVertDisplayDataMinMaxInputData@@AAVCDisplayDataMinMax@@@Z ENDP ; CViewMinMaxCalculator::ChangeViewVertMinMax_Indicator
_TEXT	ENDS
; Function compile flags: /Ogtp
; File D:\git\src\IBK\IBK_DRFN\ProjSrc\SrcChartEx\ChartOCX\ChartObject\ViewMinMaxCalculator.cpp
; File C:\Program Files (x86)\Microsoft Visual Studio\2019\Community\VC\Tools\MSVC\14.29.30133\atlmfc\include\atlsimpstr.h
; File C:\Program Files (x86)\Microsoft Visual Studio\2019\Community\VC\Tools\MSVC\14.29.30133\atlmfc\include\cstringt.h
; File D:\git\src\IBK\IBK_DRFN\ProjSrc\SrcChartEx\ChartOCX\ChartObject\ViewMinMaxCalculator.cpp
; File C:\Program Files (x86)\Microsoft Visual Studio\2019\Community\VC\Tools\MSVC\14.29.30133\atlmfc\include\atlsimpstr.h
; File D:\git\src\IBK\IBK_DRFN\ProjSrc\SrcChartEx\ChartOCX\ChartObject\ViewMinMaxCalculator.cpp
; File C:\Program Files (x86)\Microsoft Visual Studio\2019\Community\VC\Tools\MSVC\14.29.30133\atlmfc\include\atlsimpstr.h
; File D:\git\src\IBK\IBK_DRFN\ProjSrc\SrcChartEx\ChartOCX\ChartObject\ViewMinMaxCalculator.cpp
; File C:\Program Files (x86)\Microsoft Visual Studio\2019\Community\VC\Tools\MSVC\14.29.30133\atlmfc\include\atlsimpstr.h
; File D:\git\src\IBK\IBK_DRFN\ProjSrc\SrcChartEx\ChartOCX\ChartObject\ViewMinMaxCalculator.cpp
;	COMDAT ?GetViewVertMinMax_OutsideSubGraphPacketList@CViewMinMaxCalculator@@AAE_NABVCVertDisplayDataMinMaxInputData@@AAVCDisplayDataMinMax@@H@Z
_TEXT	SEGMENT
_displayAttributes$ = -36				; size = 8
_this$1$ = -28						; size = 4
_pPacketList$1$ = -24					; size = 4
$T2 = -20						; size = 4
$T3 = -20						; size = 4
$T4 = -20						; size = 4
$T5 = -20						; size = 4
_bWithoutZero$ = -16					; size = 1
__$EHRec$ = -12						; size = 12
_strPacketNames$ = 8					; size = 4
_inputData$ = 8						; size = 4
_strPacketName$6 = 12					; size = 4
_displayDataMinMax$ = 12				; size = 4
$T7 = 16						; size = 4
_p_bWithFullRange$ = 16					; size = 4
?GetViewVertMinMax_OutsideSubGraphPacketList@CViewMinMaxCalculator@@AAE_NABVCVertDisplayDataMinMaxInputData@@AAVCDisplayDataMinMax@@H@Z PROC ; CViewMinMaxCalculator::GetViewVertMinMax_OutsideSubGraphPacketList, COMDAT
; _this$ = ecx

; 407  : {

  00000	55		 push	 ebp
  00001	8b ec		 mov	 ebp, esp
  00003	6a ff		 push	 -1
  00005	68 00 00 00 00	 push	 __ehhandler$?GetViewVertMinMax_OutsideSubGraphPacketList@CViewMinMaxCalculator@@AAE_NABVCVertDisplayDataMinMaxInputData@@AAVCDisplayDataMinMax@@H@Z
  0000a	64 a1 00 00 00
	00		 mov	 eax, DWORD PTR fs:0
  00010	50		 push	 eax
  00011	83 ec 18	 sub	 esp, 24			; 00000018H
  00014	53		 push	 ebx
  00015	56		 push	 esi
  00016	57		 push	 edi
  00017	a1 00 00 00 00	 mov	 eax, DWORD PTR ___security_cookie
  0001c	33 c5		 xor	 eax, ebp
  0001e	50		 push	 eax
  0001f	8d 45 f4	 lea	 eax, DWORD PTR __$EHRec$[ebp]
  00022	64 a3 00 00 00
	00		 mov	 DWORD PTR fs:0, eax
  00028	89 4d e4	 mov	 DWORD PTR _this$1$[ebp], ecx

; 408  : 	CPacketList* pPacketList = GetPacketList(inputData.GetSubGraphPacketList());

  0002b	8b 7d 08	 mov	 edi, DWORD PTR _inputData$[ebp]
  0002e	8b cf		 mov	 ecx, edi
  00030	e8 00 00 00 00	 call	 ?GetSubGraphPacketList@CVertDisplayDataMinMaxInputData@@QBEPAVCSubGraphPacketList@@XZ ; CVertDisplayDataMinMaxInputData::GetSubGraphPacketList

; 555  : 	if(pSubGraphPacketList == NULL)

  00035	85 c0		 test	 eax, eax
  00037	0f 84 a5 01 00
	00		 je	 $LN48@GetViewVer

; 556  : 		return NULL;
; 557  : 
; 558  : 	CPacket* pPacket = pSubGraphPacketList->GetHeadPacket();

  0003d	8b c8		 mov	 ecx, eax
  0003f	e8 00 00 00 00	 call	 ?GetHeadPacket@CSubGraphPacketList@@QAEPAVCPacket@@XZ ; CSubGraphPacketList::GetHeadPacket

; 559  : 	if(pPacket == NULL)

  00044	85 c0		 test	 eax, eax
  00046	0f 84 96 01 00
	00		 je	 $LN48@GetViewVer

; 560  : 		return NULL;
; 561  : 
; 562  : 	return pPacket->GetPacketList();

  0004c	8b c8		 mov	 ecx, eax
  0004e	ff 15 00 00 00
	00		 call	 DWORD PTR __imp_?GetPacketList@CPacket@@QAEPAVCPacketList@@XZ
  00054	89 45 e8	 mov	 DWORD PTR _pPacketList$1$[ebp], eax

; 409  : 	if(pPacketList == NULL)

  00057	85 c0		 test	 eax, eax
  00059	0f 84 83 01 00
	00		 je	 $LN48@GetViewVer

; 411  : 
; 412  : 	CDisplayAttributes displayAttributes = inputData.GetDisplayAttributes();

  0005f	8d 45 dc	 lea	 eax, DWORD PTR _displayAttributes$[ebp]
  00062	8b cf		 mov	 ecx, edi
  00064	50		 push	 eax
  00065	e8 00 00 00 00	 call	 ?GetDisplayAttributes@CVertDisplayDataMinMaxInputData@@QBE?AVCDisplayAttributes@@XZ ; CVertDisplayDataMinMaxInputData::GetDisplayAttributes

; 413  : 	bool bWithoutZero = DoesViewMinMaxWithoutZero(inputData.GetSubGraphData());

  0006a	8b cf		 mov	 ecx, edi
  0006c	e8 00 00 00 00	 call	 ?GetSubGraphData@CVertDisplayDataMinMaxInputData@@QBEPAVCSubGraphData@@XZ ; CVertDisplayDataMinMaxInputData::GetSubGraphData
  00071	8b f0		 mov	 esi, eax

; 602  : 	if(pSubGraphData == NULL)

  00073	85 f6		 test	 esi, esi
  00075	75 06		 jne	 SHORT $LN20@GetViewVer
$LN25@GetViewVer:

; 414  : 
; 415  : 	CString strPacketNames = inputData.GetScaleData();

  00077	c6 45 f0 00	 mov	 BYTE PTR _bWithoutZero$[ebp], 0
  0007b	eb 58		 jmp	 SHORT $LN17@GetViewVer
$LN20@GetViewVer:

; 606  : 	switch( pSubGraphData->GetType())

  0007d	8b ce		 mov	 ecx, esi
  0007f	ff 15 00 00 00
	00		 call	 DWORD PTR __imp_?GetType@CSubGraphDataBase@@QBE?AW4GRAPHTYPE@CGraphBaseData@@XZ
  00085	83 e8 00	 sub	 eax, 0
  00088	74 38		 je	 SHORT $LN26@GetViewVer
  0008a	83 e8 01	 sub	 eax, 1
  0008d	74 1c		 je	 SHORT $LN23@GetViewVer
  0008f	83 e8 01	 sub	 eax, 1
  00092	75 e3		 jne	 SHORT $LN25@GetViewVer

; 607  : 	{
; 608  : 		case CGraphBaseData::Bar_Type:
; 609  : 			if (pSubGraphData->GetDrawStyle().GetGraphBarDrawStyle() == CGraphBaseData::NonZero_DotBar_Draw)

  00094	8d 45 ec	 lea	 eax, DWORD PTR $T4[ebp]
  00097	8b ce		 mov	 ecx, esi
  00099	50		 push	 eax
  0009a	ff 15 00 00 00
	00		 call	 DWORD PTR __imp_?GetDrawStyle@CSubGraphDataBase@@QBE?AVCGraphDrawStyle@@XZ
  000a0	83 38 02	 cmp	 DWORD PTR [eax], 2
  000a3	75 d2		 jne	 SHORT $LN25@GetViewVer

; 610  : 				return true;

  000a5	c6 45 f0 01	 mov	 BYTE PTR _bWithoutZero$[ebp], 1
  000a9	eb 2a		 jmp	 SHORT $LN17@GetViewVer
$LN23@GetViewVer:

; 611  : 			else break;
; 612  : 
; 613  : 		case CGraphBaseData::Line_Type:
; 614  : 			if (pSubGraphData->GetStyle().GetGraphLineStyle() == CGraphBaseData::NonZeroLine)

  000ab	8d 45 ec	 lea	 eax, DWORD PTR $T3[ebp]
  000ae	8b ce		 mov	 ecx, esi
  000b0	50		 push	 eax
  000b1	ff 15 00 00 00
	00		 call	 DWORD PTR __imp_?GetStyle@CSubGraphDataBase@@QBE?AVCGraphStyle@@XZ
  000b7	83 38 05	 cmp	 DWORD PTR [eax], 5
  000ba	75 bb		 jne	 SHORT $LN25@GetViewVer

; 615  : 				return true;

  000bc	c6 45 f0 01	 mov	 BYTE PTR _bWithoutZero$[ebp], 1
  000c0	eb 13		 jmp	 SHORT $LN17@GetViewVer
$LN26@GetViewVer:

; 616  : 			else break;
; 617  : 
; 618  : 		// (2007/2/6 - Seung-Won, Bae) Check Candle Stick Chart for avoiding Zero Open/High/Low in Base or Market Close Price.
; 619  : 		//		Caution! It is Koscom Only. Use EXCEPTIONVALUE Help Message in Packet.
; 620  : 		case CGraphBaseData::Bong_Type:
; 621  : 			// (2009/1/17 - Seung-Won, Bae) Do not check 'KOSCOM' name. (on sometimes, CWinApp can not be found.)
; 622  : 			return ( pSubGraphData->GetStyle().GetGraphBongStyle() != CGraphBaseData::LineBong);

  000c2	8d 45 ec	 lea	 eax, DWORD PTR $T2[ebp]
  000c5	8b ce		 mov	 ecx, esi
  000c7	50		 push	 eax
  000c8	ff 15 00 00 00
	00		 call	 DWORD PTR __imp_?GetStyle@CSubGraphDataBase@@QBE?AVCGraphStyle@@XZ
  000ce	83 38 02	 cmp	 DWORD PTR [eax], 2
  000d1	0f 95 45 f0	 setne	 BYTE PTR _bWithoutZero$[ebp]
$LN17@GetViewVer:

; 414  : 
; 415  : 	CString strPacketNames = inputData.GetScaleData();

  000d5	8d 45 08	 lea	 eax, DWORD PTR _strPacketNames$[ebp]
  000d8	8b cf		 mov	 ecx, edi
  000da	50		 push	 eax
  000db	e8 00 00 00 00	 call	 ?GetScaleData@CVertDisplayDataMinMaxInputData@@QBE?AV?$CStringT@DV?$StrTraitMFC_DLL@DV?$ChTraitsCRT@D@ATL@@@@@ATL@@XZ ; CVertDisplayDataMinMaxInputData::GetScaleData

; 416  : 	if(strPacketNames.Right(1) != ',')

  000e0	6a 01		 push	 1
  000e2	8d 45 ec	 lea	 eax, DWORD PTR $T5[ebp]
  000e5	c7 45 fc 00 00
	00 00		 mov	 DWORD PTR __$EHRec$[ebp+8], 0
  000ec	50		 push	 eax
  000ed	8d 4d 08	 lea	 ecx, DWORD PTR _strPacketNames$[ebp]
  000f0	ff 15 00 00 00
	00		 call	 DWORD PTR __imp_?Right@?$CStringT@DV?$StrTraitMFC_DLL@DV?$ChTraitsCRT@D@ATL@@@@@ATL@@QBE?AV12@H@Z
; File C:\Program Files (x86)\Microsoft Visual Studio\2019\Community\VC\Tools\MSVC\14.29.30133\atlmfc\include\atlsimpstr.h

; 519  : 		return( GetData()->nDataLength );

  000f6	8b 08		 mov	 ecx, DWORD PTR [eax]
; File C:\Program Files (x86)\Microsoft Visual Studio\2019\Community\VC\Tools\MSVC\14.29.30133\atlmfc\include\cstringt.h

; 2699 : 		return((str1.GetLength() != 1) || (str1[0] != ch2));

  000f8	83 79 f4 01	 cmp	 DWORD PTR [ecx-12], 1
  000fc	75 19		 jne	 SHORT $LN31@GetViewVer
  000fe	6a 00		 push	 0
  00100	8b c8		 mov	 ecx, eax
  00102	ff 15 00 00 00
	00		 call	 DWORD PTR __imp_??A?$CSimpleStringT@D$00@ATL@@QBEDH@Z
  00108	3c 2c		 cmp	 al, 44			; 0000002cH
  0010a	75 0b		 jne	 SHORT $LN31@GetViewVer
  0010c	8d 4d ec	 lea	 ecx, DWORD PTR $T5[ebp]
  0010f	ff 15 00 00 00
	00		 call	 DWORD PTR __imp_??1?$CStringT@DV?$StrTraitMFC_DLL@DV?$ChTraitsCRT@D@ATL@@@@@ATL@@QAE@XZ
  00115	eb 14		 jmp	 SHORT $LN44@GetViewVer
$LN31@GetViewVer:
  00117	8d 4d ec	 lea	 ecx, DWORD PTR $T5[ebp]
  0011a	ff 15 00 00 00
	00		 call	 DWORD PTR __imp_??1?$CStringT@DV?$StrTraitMFC_DLL@DV?$ChTraitsCRT@D@ATL@@@@@ATL@@QAE@XZ
; File D:\git\src\IBK\IBK_DRFN\ProjSrc\SrcChartEx\ChartOCX\ChartObject\ViewMinMaxCalculator.cpp

; 417  : 		strPacketNames += ',';

  00120	6a 2c		 push	 44			; 0000002cH
  00122	8d 4d 08	 lea	 ecx, DWORD PTR _strPacketNames$[ebp]
  00125	ff 15 00 00 00
	00		 call	 DWORD PTR __imp_??Y?$CStringT@DV?$StrTraitMFC_DLL@DV?$ChTraitsCRT@D@ATL@@@@@ATL@@QAEAAV01@D@Z
$LN44@GetViewVer:
; File C:\Program Files (x86)\Microsoft Visual Studio\2019\Community\VC\Tools\MSVC\14.29.30133\atlmfc\include\atlsimpstr.h

; 519  : 		return( GetData()->nDataLength );

  0012b	8b 45 08	 mov	 eax, DWORD PTR _strPacketNames$[ebp]
; File D:\git\src\IBK\IBK_DRFN\ProjSrc\SrcChartEx\ChartOCX\ChartObject\ViewMinMaxCalculator.cpp

; 419  : 	while(!strPacketNames.IsEmpty())

  0012e	8b 75 0c	 mov	 esi, DWORD PTR _displayDataMinMax$[ebp]
; File C:\Program Files (x86)\Microsoft Visual Studio\2019\Community\VC\Tools\MSVC\14.29.30133\atlmfc\include\atlsimpstr.h

; 533  : 		return( GetLength() == 0 );

  00131	83 78 f4 00	 cmp	 DWORD PTR [eax-12], 0
; File D:\git\src\IBK\IBK_DRFN\ProjSrc\SrcChartEx\ChartOCX\ChartObject\ViewMinMaxCalculator.cpp

; 419  : 	while(!strPacketNames.IsEmpty())

  00135	74 7f		 je	 SHORT $LN3@GetViewVer
  00137	8b 7d 10	 mov	 edi, DWORD PTR _p_bWithFullRange$[ebp]
  0013a	8b 5d f0	 mov	 ebx, DWORD PTR _bWithoutZero$[ebp]
  0013d	0f 1f 00	 npad	 3
$LL2@GetViewVer:

; 420  : 	{
; 421  : 		CString strPacketName = CDataConversion::GetStringData(strPacketNames, ',');

  00140	6a 01		 push	 1
  00142	6a 2c		 push	 44			; 0000002cH
  00144	8d 4d 10	 lea	 ecx, DWORD PTR $T7[ebp]
  00147	ff 15 00 00 00
	00		 call	 DWORD PTR __imp_??0?$CStringT@DV?$StrTraitMFC_DLL@DV?$ChTraitsCRT@D@ATL@@@@@ATL@@QAE@DH@Z
  0014d	6a 01		 push	 1
  0014f	8d 45 10	 lea	 eax, DWORD PTR $T7[ebp]
  00152	c6 45 fc 01	 mov	 BYTE PTR __$EHRec$[ebp+8], 1
  00156	50		 push	 eax
  00157	8d 45 08	 lea	 eax, DWORD PTR _strPacketNames$[ebp]
  0015a	50		 push	 eax
  0015b	8d 45 0c	 lea	 eax, DWORD PTR _strPacketName$6[ebp]
  0015e	50		 push	 eax
  0015f	e8 00 00 00 00	 call	 ?GetStringData@CDataConversion@@SA?AV?$CStringT@DV?$StrTraitMFC_DLL@DV?$ChTraitsCRT@D@ATL@@@@@ATL@@AAV23@ABV23@_N@Z ; CDataConversion::GetStringData
  00164	83 c4 10	 add	 esp, 16			; 00000010H
  00167	8d 4d 10	 lea	 ecx, DWORD PTR $T7[ebp]
  0016a	c6 45 fc 03	 mov	 BYTE PTR __$EHRec$[ebp+8], 3
  0016e	ff 15 00 00 00
	00		 call	 DWORD PTR __imp_??1?$CStringT@DV?$StrTraitMFC_DLL@DV?$ChTraitsCRT@D@ATL@@@@@ATL@@QAE@XZ

; 422  : 		CPacket* pPacket = pPacketList->GetBaseData(strPacketName);

  00174	6a 01		 push	 1
  00176	51		 push	 ecx
  00177	8d 45 0c	 lea	 eax, DWORD PTR _strPacketName$6[ebp]
  0017a	8b cc		 mov	 ecx, esp
  0017c	50		 push	 eax
  0017d	ff 15 00 00 00
	00		 call	 DWORD PTR __imp_??0?$CStringT@DV?$StrTraitMFC_DLL@DV?$ChTraitsCRT@D@ATL@@@@@ATL@@QAE@ABV01@@Z
  00183	8b 4d e8	 mov	 ecx, DWORD PTR _pPacketList$1$[ebp]
  00186	ff 15 00 00 00
	00		 call	 DWORD PTR __imp_?GetBaseData@CPacketList@@QAEPAVCPacket@@V?$CStringT@DV?$StrTraitMFC_DLL@DV?$ChTraitsCRT@D@ATL@@@@@ATL@@_N@Z

; 423  : 		if(pPacket == NULL)

  0018c	85 c0		 test	 eax, eax
  0018e	74 10		 je	 SHORT $LN51@GetViewVer

; 424  : 			continue;
; 425  : 		
; 426  : 		GetViewVertMinMax_Packet(pPacket, displayAttributes, bWithoutZero, displayDataMinMax, p_bWithFullRange);

  00190	57		 push	 edi
  00191	56		 push	 esi
  00192	53		 push	 ebx
  00193	8d 4d dc	 lea	 ecx, DWORD PTR _displayAttributes$[ebp]
  00196	51		 push	 ecx
  00197	8b 4d e4	 mov	 ecx, DWORD PTR _this$1$[ebp]
  0019a	50		 push	 eax
  0019b	e8 00 00 00 00	 call	 ?GetViewVertMinMax_Packet@CViewMinMaxCalculator@@AAE_NPAVCPacket@@ABVCDisplayAttributes@@_NAAVCDisplayDataMinMax@@H@Z ; CViewMinMaxCalculator::GetViewVertMinMax_Packet
$LN51@GetViewVer:
; File C:\Program Files (x86)\Microsoft Visual Studio\2019\Community\VC\Tools\MSVC\14.29.30133\atlmfc\include\atlsimpstr.h

; 533  : 		return( GetLength() == 0 );

  001a0	8d 4d 0c	 lea	 ecx, DWORD PTR _strPacketName$6[ebp]
  001a3	c6 45 fc 00	 mov	 BYTE PTR __$EHRec$[ebp+8], 0
  001a7	ff 15 00 00 00
	00		 call	 DWORD PTR __imp_??1?$CStringT@DV?$StrTraitMFC_DLL@DV?$ChTraitsCRT@D@ATL@@@@@ATL@@QAE@XZ
  001ad	8b 45 08	 mov	 eax, DWORD PTR _strPacketNames$[ebp]
  001b0	83 78 f4 00	 cmp	 DWORD PTR [eax-12], 0
; File D:\git\src\IBK\IBK_DRFN\ProjSrc\SrcChartEx\ChartOCX\ChartObject\ViewMinMaxCalculator.cpp

; 419  : 	while(!strPacketNames.IsEmpty())

  001b4	75 8a		 jne	 SHORT $LL2@GetViewVer
$LN3@GetViewVer:

; 427  : 	}
; 428  : 	
; 429  : 	return displayDataMinMax.IsInitialized() ? true : false;

  001b6	8b ce		 mov	 ecx, esi
  001b8	ff 15 00 00 00
	00		 call	 DWORD PTR __imp_?IsInitialized@CDisplayDataMinMax@@QBEHXZ
  001be	85 c0		 test	 eax, eax
  001c0	8d 4d 08	 lea	 ecx, DWORD PTR _strPacketNames$[ebp]
  001c3	0f 95 c3	 setne	 bl
  001c6	ff 15 00 00 00
	00		 call	 DWORD PTR __imp_??1?$CStringT@DV?$StrTraitMFC_DLL@DV?$ChTraitsCRT@D@ATL@@@@@ATL@@QAE@XZ
  001cc	8a c3		 mov	 al, bl

; 430  : }

  001ce	8b 4d f4	 mov	 ecx, DWORD PTR __$EHRec$[ebp]
  001d1	64 89 0d 00 00
	00 00		 mov	 DWORD PTR fs:0, ecx
  001d8	59		 pop	 ecx
  001d9	5f		 pop	 edi
  001da	5e		 pop	 esi
  001db	5b		 pop	 ebx
  001dc	8b e5		 mov	 esp, ebp
  001de	5d		 pop	 ebp
  001df	c2 0c 00	 ret	 12			; 0000000cH
$LN48@GetViewVer:

; 410  : 		return false;

  001e2	32 c0		 xor	 al, al

; 430  : }

  001e4	8b 4d f4	 mov	 ecx, DWORD PTR __$EHRec$[ebp]
  001e7	64 89 0d 00 00
	00 00		 mov	 DWORD PTR fs:0, ecx
  001ee	59		 pop	 ecx
  001ef	5f		 pop	 edi
  001f0	5e		 pop	 esi
  001f1	5b		 pop	 ebx
  001f2	8b e5		 mov	 esp, ebp
  001f4	5d		 pop	 ebp
  001f5	c2 0c 00	 ret	 12			; 0000000cH
_TEXT	ENDS
;	COMDAT text$x
text$x	SEGMENT
__unwindfunclet$?GetViewVertMinMax_OutsideSubGraphPacketList@CViewMinMaxCalculator@@AAE_NABVCVertDisplayDataMinMaxInputData@@AAVCDisplayDataMinMax@@H@Z$0:
  00000	8d 4d 08	 lea	 ecx, DWORD PTR _strPacketNames$[ebp]
  00003	ff 25 00 00 00
	00		 jmp	 DWORD PTR __imp_??1?$CStringT@DV?$StrTraitMFC_DLL@DV?$ChTraitsCRT@D@ATL@@@@@ATL@@QAE@XZ
__unwindfunclet$?GetViewVertMinMax_OutsideSubGraphPacketList@CViewMinMaxCalculator@@AAE_NABVCVertDisplayDataMinMaxInputData@@AAVCDisplayDataMinMax@@H@Z$2:
  00009	8d 4d 10	 lea	 ecx, DWORD PTR $T7[ebp]
  0000c	ff 25 00 00 00
	00		 jmp	 DWORD PTR __imp_??1?$CStringT@DV?$StrTraitMFC_DLL@DV?$ChTraitsCRT@D@ATL@@@@@ATL@@QAE@XZ
__unwindfunclet$?GetViewVertMinMax_OutsideSubGraphPacketList@CViewMinMaxCalculator@@AAE_NABVCVertDisplayDataMinMaxInputData@@AAVCDisplayDataMinMax@@H@Z$3:
  00012	8d 4d 0c	 lea	 ecx, DWORD PTR _strPacketName$6[ebp]
  00015	ff 25 00 00 00
	00		 jmp	 DWORD PTR __imp_??1?$CStringT@DV?$StrTraitMFC_DLL@DV?$ChTraitsCRT@D@ATL@@@@@ATL@@QAE@XZ
  0001b	cc		 int	 3
  0001c	cc		 int	 3
  0001d	cc		 int	 3
  0001e	cc		 int	 3
  0001f	cc		 int	 3
__ehhandler$?GetViewVertMinMax_OutsideSubGraphPacketList@CViewMinMaxCalculator@@AAE_NABVCVertDisplayDataMinMaxInputData@@AAVCDisplayDataMinMax@@H@Z:
  00020	90		 npad	 1
  00021	90		 npad	 1
  00022	8b 54 24 08	 mov	 edx, DWORD PTR [esp+8]
  00026	8d 42 0c	 lea	 eax, DWORD PTR [edx+12]
  00029	8b 4a d8	 mov	 ecx, DWORD PTR [edx-40]
  0002c	33 c8		 xor	 ecx, eax
  0002e	e8 00 00 00 00	 call	 @__security_check_cookie@4
  00033	b8 00 00 00 00	 mov	 eax, OFFSET __ehfuncinfo$?GetViewVertMinMax_OutsideSubGraphPacketList@CViewMinMaxCalculator@@AAE_NABVCVertDisplayDataMinMaxInputData@@AAVCDisplayDataMinMax@@H@Z
  00038	e9 00 00 00 00	 jmp	 ___CxxFrameHandler3
text$x	ENDS
?GetViewVertMinMax_OutsideSubGraphPacketList@CViewMinMaxCalculator@@AAE_NABVCVertDisplayDataMinMaxInputData@@AAVCDisplayDataMinMax@@H@Z ENDP ; CViewMinMaxCalculator::GetViewVertMinMax_OutsideSubGraphPacketList
; Function compile flags: /Ogtp
; File D:\git\src\IBK\IBK_DRFN\ProjSrc\SrcChartEx\ChartOCX\ChartObject\ViewMinMaxCalculator.cpp
; File C:\Program Files (x86)\Microsoft Visual Studio\2019\Community\VC\Tools\MSVC\14.29.30133\atlmfc\include\atlsimpstr.h
; File C:\Program Files (x86)\Microsoft Visual Studio\2019\Community\VC\Tools\MSVC\14.29.30133\atlmfc\include\cstringt.h
; File D:\git\src\IBK\IBK_DRFN\ProjSrc\SrcChartEx\ChartOCX\ChartObject\ViewMinMaxCalculator.cpp
; File C:\Program Files (x86)\Microsoft Visual Studio\2019\Community\VC\Tools\MSVC\14.29.30133\atlmfc\include\atlsimpstr.h
; File D:\git\src\IBK\IBK_DRFN\ProjSrc\SrcChartEx\ChartOCX\ChartObject\ViewMinMaxCalculator.cpp
; File C:\Program Files (x86)\Microsoft Visual Studio\2019\Community\VC\Tools\MSVC\14.29.30133\atlmfc\include\atlsimpstr.h
; File D:\git\src\IBK\IBK_DRFN\ProjSrc\SrcChartEx\ChartOCX\ChartObject\ViewMinMaxCalculator.cpp
; File C:\Program Files (x86)\Microsoft Visual Studio\2019\Community\VC\Tools\MSVC\14.29.30133\atlmfc\include\atlsimpstr.h
; File D:\git\src\IBK\IBK_DRFN\ProjSrc\SrcChartEx\ChartOCX\ChartObject\ViewMinMaxCalculator.cpp
;	COMDAT ?GetViewVertMinMax_InSubGraphPacketList@CViewMinMaxCalculator@@AAE_NABVCVertDisplayDataMinMaxInputData@@AAVCDisplayDataMinMax@@H@Z
_TEXT	SEGMENT
_displayAttributes$ = -40				; size = 8
$T2 = -32						; size = 8
_pSubGraphPacketList$1$ = -28				; size = 4
$T3 = -24						; size = 4
$T4 = -24						; size = 4
$T5 = -24						; size = 4
$T6 = -24						; size = 4
$T7 = -24						; size = 4
$T8 = -20						; size = 8
_bWithoutZero$ = -16					; size = 1
__$EHRec$ = -12						; size = 12
_strPacketNames$ = 8					; size = 4
_inputData$ = 8						; size = 4
_strPacketName$9 = 12					; size = 4
_displayDataMinMax$ = 12				; size = 4
_p_bWithFullRange$ = 16					; size = 4
?GetViewVertMinMax_InSubGraphPacketList@CViewMinMaxCalculator@@AAE_NABVCVertDisplayDataMinMaxInputData@@AAVCDisplayDataMinMax@@H@Z PROC ; CViewMinMaxCalculator::GetViewVertMinMax_InSubGraphPacketList, COMDAT
; _this$ = ecx

; 376  : {

  00000	55		 push	 ebp
  00001	8b ec		 mov	 ebp, esp
  00003	6a ff		 push	 -1
  00005	68 00 00 00 00	 push	 __ehhandler$?GetViewVertMinMax_InSubGraphPacketList@CViewMinMaxCalculator@@AAE_NABVCVertDisplayDataMinMaxInputData@@AAVCDisplayDataMinMax@@H@Z
  0000a	64 a1 00 00 00
	00		 mov	 eax, DWORD PTR fs:0
  00010	50		 push	 eax
  00011	83 ec 1c	 sub	 esp, 28			; 0000001cH
  00014	53		 push	 ebx
  00015	56		 push	 esi
  00016	57		 push	 edi
  00017	a1 00 00 00 00	 mov	 eax, DWORD PTR ___security_cookie
  0001c	33 c5		 xor	 eax, ebp
  0001e	50		 push	 eax
  0001f	8d 45 f4	 lea	 eax, DWORD PTR __$EHRec$[ebp]
  00022	64 a3 00 00 00
	00		 mov	 DWORD PTR fs:0, eax
  00028	8b f9		 mov	 edi, ecx

; 377  : 	CSubGraphPacketList* pSubGraphPacketList = inputData.GetSubGraphPacketList();

  0002a	8b 5d 08	 mov	 ebx, DWORD PTR _inputData$[ebp]
  0002d	8b cb		 mov	 ecx, ebx
  0002f	e8 00 00 00 00	 call	 ?GetSubGraphPacketList@CVertDisplayDataMinMaxInputData@@QBEPAVCSubGraphPacketList@@XZ ; CVertDisplayDataMinMaxInputData::GetSubGraphPacketList
  00034	89 45 e4	 mov	 DWORD PTR _pSubGraphPacketList$1$[ebp], eax

; 378  : 	if(pSubGraphPacketList == NULL)

  00037	85 c0		 test	 eax, eax
  00039	75 16		 jne	 SHORT $LN4@GetViewVer

; 379  : 		return false;

  0003b	32 c0		 xor	 al, al

; 403  : }

  0003d	8b 4d f4	 mov	 ecx, DWORD PTR __$EHRec$[ebp]
  00040	64 89 0d 00 00
	00 00		 mov	 DWORD PTR fs:0, ecx
  00047	59		 pop	 ecx
  00048	5f		 pop	 edi
  00049	5e		 pop	 esi
  0004a	5b		 pop	 ebx
  0004b	8b e5		 mov	 esp, ebp
  0004d	5d		 pop	 ebp
  0004e	c2 0c 00	 ret	 12			; 0000000cH
$LN4@GetViewVer:

; 380  : 
; 381  : 	CDisplayAttributes displayAttributes = inputData.GetDisplayAttributes();

  00051	8d 45 d8	 lea	 eax, DWORD PTR _displayAttributes$[ebp]
  00054	8b cb		 mov	 ecx, ebx
  00056	50		 push	 eax
  00057	e8 00 00 00 00	 call	 ?GetDisplayAttributes@CVertDisplayDataMinMaxInputData@@QBE?AVCDisplayAttributes@@XZ ; CVertDisplayDataMinMaxInputData::GetDisplayAttributes

; 382  : 	bool bWithoutZero = DoesViewMinMaxWithoutZero(inputData.GetSubGraphData());

  0005c	8b cb		 mov	 ecx, ebx
  0005e	e8 00 00 00 00	 call	 ?GetSubGraphData@CVertDisplayDataMinMaxInputData@@QBEPAVCSubGraphData@@XZ ; CVertDisplayDataMinMaxInputData::GetSubGraphData
  00063	8b f0		 mov	 esi, eax

; 602  : 	if(pSubGraphData == NULL)

  00065	85 f6		 test	 esi, esi
  00067	75 06		 jne	 SHORT $LN17@GetViewVer
$LN22@GetViewVer:

; 383  : 
; 384  : 	CString strPacketNames = inputData.GetScaleData();

  00069	c6 45 f0 00	 mov	 BYTE PTR _bWithoutZero$[ebp], 0
  0006d	eb 58		 jmp	 SHORT $LN14@GetViewVer
$LN17@GetViewVer:

; 606  : 	switch( pSubGraphData->GetType())

  0006f	8b ce		 mov	 ecx, esi
  00071	ff 15 00 00 00
	00		 call	 DWORD PTR __imp_?GetType@CSubGraphDataBase@@QBE?AW4GRAPHTYPE@CGraphBaseData@@XZ
  00077	83 e8 00	 sub	 eax, 0
  0007a	74 38		 je	 SHORT $LN23@GetViewVer
  0007c	83 e8 01	 sub	 eax, 1
  0007f	74 1c		 je	 SHORT $LN20@GetViewVer
  00081	83 e8 01	 sub	 eax, 1
  00084	75 e3		 jne	 SHORT $LN22@GetViewVer

; 607  : 	{
; 608  : 		case CGraphBaseData::Bar_Type:
; 609  : 			if (pSubGraphData->GetDrawStyle().GetGraphBarDrawStyle() == CGraphBaseData::NonZero_DotBar_Draw)

  00086	8d 45 e8	 lea	 eax, DWORD PTR $T5[ebp]
  00089	8b ce		 mov	 ecx, esi
  0008b	50		 push	 eax
  0008c	ff 15 00 00 00
	00		 call	 DWORD PTR __imp_?GetDrawStyle@CSubGraphDataBase@@QBE?AVCGraphDrawStyle@@XZ
  00092	83 38 02	 cmp	 DWORD PTR [eax], 2
  00095	75 d2		 jne	 SHORT $LN22@GetViewVer

; 610  : 				return true;

  00097	c6 45 f0 01	 mov	 BYTE PTR _bWithoutZero$[ebp], 1
  0009b	eb 2a		 jmp	 SHORT $LN14@GetViewVer
$LN20@GetViewVer:

; 611  : 			else break;
; 612  : 
; 613  : 		case CGraphBaseData::Line_Type:
; 614  : 			if (pSubGraphData->GetStyle().GetGraphLineStyle() == CGraphBaseData::NonZeroLine)

  0009d	8d 45 e8	 lea	 eax, DWORD PTR $T4[ebp]
  000a0	8b ce		 mov	 ecx, esi
  000a2	50		 push	 eax
  000a3	ff 15 00 00 00
	00		 call	 DWORD PTR __imp_?GetStyle@CSubGraphDataBase@@QBE?AVCGraphStyle@@XZ
  000a9	83 38 05	 cmp	 DWORD PTR [eax], 5
  000ac	75 bb		 jne	 SHORT $LN22@GetViewVer

; 615  : 				return true;

  000ae	c6 45 f0 01	 mov	 BYTE PTR _bWithoutZero$[ebp], 1
  000b2	eb 13		 jmp	 SHORT $LN14@GetViewVer
$LN23@GetViewVer:

; 616  : 			else break;
; 617  : 
; 618  : 		// (2007/2/6 - Seung-Won, Bae) Check Candle Stick Chart for avoiding Zero Open/High/Low in Base or Market Close Price.
; 619  : 		//		Caution! It is Koscom Only. Use EXCEPTIONVALUE Help Message in Packet.
; 620  : 		case CGraphBaseData::Bong_Type:
; 621  : 			// (2009/1/17 - Seung-Won, Bae) Do not check 'KOSCOM' name. (on sometimes, CWinApp can not be found.)
; 622  : 			return ( pSubGraphData->GetStyle().GetGraphBongStyle() != CGraphBaseData::LineBong);

  000b4	8d 45 e8	 lea	 eax, DWORD PTR $T3[ebp]
  000b7	8b ce		 mov	 ecx, esi
  000b9	50		 push	 eax
  000ba	ff 15 00 00 00
	00		 call	 DWORD PTR __imp_?GetStyle@CSubGraphDataBase@@QBE?AVCGraphStyle@@XZ
  000c0	83 38 02	 cmp	 DWORD PTR [eax], 2
  000c3	0f 95 45 f0	 setne	 BYTE PTR _bWithoutZero$[ebp]
$LN14@GetViewVer:

; 383  : 
; 384  : 	CString strPacketNames = inputData.GetScaleData();

  000c7	8d 45 08	 lea	 eax, DWORD PTR _strPacketNames$[ebp]
  000ca	8b cb		 mov	 ecx, ebx
  000cc	50		 push	 eax
  000cd	e8 00 00 00 00	 call	 ?GetScaleData@CVertDisplayDataMinMaxInputData@@QBE?AV?$CStringT@DV?$StrTraitMFC_DLL@DV?$ChTraitsCRT@D@ATL@@@@@ATL@@XZ ; CVertDisplayDataMinMaxInputData::GetScaleData

; 385  : 	if(strPacketNames.Right(1) != ',')

  000d2	6a 01		 push	 1
  000d4	8d 45 e8	 lea	 eax, DWORD PTR $T7[ebp]
  000d7	c7 45 fc 00 00
	00 00		 mov	 DWORD PTR __$EHRec$[ebp+8], 0
  000de	50		 push	 eax
  000df	8d 4d 08	 lea	 ecx, DWORD PTR _strPacketNames$[ebp]
  000e2	ff 15 00 00 00
	00		 call	 DWORD PTR __imp_?Right@?$CStringT@DV?$StrTraitMFC_DLL@DV?$ChTraitsCRT@D@ATL@@@@@ATL@@QBE?AV12@H@Z
; File C:\Program Files (x86)\Microsoft Visual Studio\2019\Community\VC\Tools\MSVC\14.29.30133\atlmfc\include\atlsimpstr.h

; 519  : 		return( GetData()->nDataLength );

  000e8	8b 08		 mov	 ecx, DWORD PTR [eax]
; File C:\Program Files (x86)\Microsoft Visual Studio\2019\Community\VC\Tools\MSVC\14.29.30133\atlmfc\include\cstringt.h

; 2699 : 		return((str1.GetLength() != 1) || (str1[0] != ch2));

  000ea	83 79 f4 01	 cmp	 DWORD PTR [ecx-12], 1
  000ee	75 19		 jne	 SHORT $LN28@GetViewVer
  000f0	6a 00		 push	 0
  000f2	8b c8		 mov	 ecx, eax
  000f4	ff 15 00 00 00
	00		 call	 DWORD PTR __imp_??A?$CSimpleStringT@D$00@ATL@@QBEDH@Z
  000fa	3c 2c		 cmp	 al, 44			; 0000002cH
  000fc	75 0b		 jne	 SHORT $LN28@GetViewVer
  000fe	8d 4d e8	 lea	 ecx, DWORD PTR $T7[ebp]
  00101	ff 15 00 00 00
	00		 call	 DWORD PTR __imp_??1?$CStringT@DV?$StrTraitMFC_DLL@DV?$ChTraitsCRT@D@ATL@@@@@ATL@@QAE@XZ
  00107	eb 14		 jmp	 SHORT $LN40@GetViewVer
$LN28@GetViewVer:
  00109	8d 4d e8	 lea	 ecx, DWORD PTR $T7[ebp]
  0010c	ff 15 00 00 00
	00		 call	 DWORD PTR __imp_??1?$CStringT@DV?$StrTraitMFC_DLL@DV?$ChTraitsCRT@D@ATL@@@@@ATL@@QAE@XZ
; File D:\git\src\IBK\IBK_DRFN\ProjSrc\SrcChartEx\ChartOCX\ChartObject\ViewMinMaxCalculator.cpp

; 386  : 		strPacketNames += ',';

  00112	6a 2c		 push	 44			; 0000002cH
  00114	8d 4d 08	 lea	 ecx, DWORD PTR _strPacketNames$[ebp]
  00117	ff 15 00 00 00
	00		 call	 DWORD PTR __imp_??Y?$CStringT@DV?$StrTraitMFC_DLL@DV?$ChTraitsCRT@D@ATL@@@@@ATL@@QAEAAV01@D@Z
$LN40@GetViewVer:
; File C:\Program Files (x86)\Microsoft Visual Studio\2019\Community\VC\Tools\MSVC\14.29.30133\atlmfc\include\atlsimpstr.h

; 519  : 		return( GetData()->nDataLength );

  0011d	8b 45 08	 mov	 eax, DWORD PTR _strPacketNames$[ebp]
; File D:\git\src\IBK\IBK_DRFN\ProjSrc\SrcChartEx\ChartOCX\ChartObject\ViewMinMaxCalculator.cpp

; 388  : 	while(!strPacketNames.IsEmpty())

  00120	8b 75 0c	 mov	 esi, DWORD PTR _displayDataMinMax$[ebp]
; File C:\Program Files (x86)\Microsoft Visual Studio\2019\Community\VC\Tools\MSVC\14.29.30133\atlmfc\include\atlsimpstr.h

; 533  : 		return( GetLength() == 0 );

  00123	83 78 f4 00	 cmp	 DWORD PTR [eax-12], 0
; File D:\git\src\IBK\IBK_DRFN\ProjSrc\SrcChartEx\ChartOCX\ChartObject\ViewMinMaxCalculator.cpp

; 388  : 	while(!strPacketNames.IsEmpty())

  00127	74 76		 je	 SHORT $LN3@GetViewVer
  00129	0f 1f 80 00 00
	00 00		 npad	 7
$LL2@GetViewVer:

; 389  : 	{
; 390  : 		CString strPacketName = CDataConversion::GetStringData(strPacketNames, ',');

  00130	6a 01		 push	 1
  00132	6a 2c		 push	 44			; 0000002cH
  00134	8d 4d e8	 lea	 ecx, DWORD PTR $T6[ebp]
  00137	ff 15 00 00 00
	00		 call	 DWORD PTR __imp_??0?$CStringT@DV?$StrTraitMFC_DLL@DV?$ChTraitsCRT@D@ATL@@@@@ATL@@QAE@DH@Z
  0013d	6a 01		 push	 1
  0013f	8d 45 e8	 lea	 eax, DWORD PTR $T6[ebp]
  00142	c6 45 fc 01	 mov	 BYTE PTR __$EHRec$[ebp+8], 1
  00146	50		 push	 eax
  00147	8d 45 08	 lea	 eax, DWORD PTR _strPacketNames$[ebp]
  0014a	50		 push	 eax
  0014b	8d 45 0c	 lea	 eax, DWORD PTR _strPacketName$9[ebp]
  0014e	50		 push	 eax
  0014f	e8 00 00 00 00	 call	 ?GetStringData@CDataConversion@@SA?AV?$CStringT@DV?$StrTraitMFC_DLL@DV?$ChTraitsCRT@D@ATL@@@@@ATL@@AAV23@ABV23@_N@Z ; CDataConversion::GetStringData
  00154	83 c4 10	 add	 esp, 16			; 00000010H
  00157	8d 4d e8	 lea	 ecx, DWORD PTR $T6[ebp]
  0015a	c6 45 fc 03	 mov	 BYTE PTR __$EHRec$[ebp+8], 3
  0015e	ff 15 00 00 00
	00		 call	 DWORD PTR __imp_??1?$CStringT@DV?$StrTraitMFC_DLL@DV?$ChTraitsCRT@D@ATL@@@@@ATL@@QAE@XZ

; 391  : 		CPacket* pPacket = GetPacket(pSubGraphPacketList, strPacketName);

  00164	8d 45 0c	 lea	 eax, DWORD PTR _strPacketName$9[ebp]
  00167	8b cf		 mov	 ecx, edi
  00169	50		 push	 eax
  0016a	ff 75 e4	 push	 DWORD PTR _pSubGraphPacketList$1$[ebp]
  0016d	e8 00 00 00 00	 call	 ?GetPacket@CViewMinMaxCalculator@@ABEPAVCPacket@@PAVCSubGraphPacketList@@ABV?$CStringT@DV?$StrTraitMFC_DLL@DV?$ChTraitsCRT@D@ATL@@@@@ATL@@@Z ; CViewMinMaxCalculator::GetPacket

; 392  : 		if(pPacket == NULL)

  00172	85 c0		 test	 eax, eax
  00174	74 71		 je	 SHORT $LN41@GetViewVer

; 396  : 		}
; 397  : 		
; 398  : 		GetViewVertMinMax_Packet(pPacket, displayAttributes, bWithoutZero, displayDataMinMax, p_bWithFullRange);

  00176	ff 75 10	 push	 DWORD PTR _p_bWithFullRange$[ebp]
  00179	8d 4d d8	 lea	 ecx, DWORD PTR _displayAttributes$[ebp]
  0017c	56		 push	 esi
  0017d	ff 75 f0	 push	 DWORD PTR _bWithoutZero$[ebp]
  00180	51		 push	 ecx
  00181	50		 push	 eax
  00182	8b cf		 mov	 ecx, edi
  00184	e8 00 00 00 00	 call	 ?GetViewVertMinMax_Packet@CViewMinMaxCalculator@@AAE_NPAVCPacket@@ABVCDisplayAttributes@@_NAAVCDisplayDataMinMax@@H@Z ; CViewMinMaxCalculator::GetViewVertMinMax_Packet

; 399  : 	}

  00189	8d 4d 0c	 lea	 ecx, DWORD PTR _strPacketName$9[ebp]
  0018c	c6 45 fc 00	 mov	 BYTE PTR __$EHRec$[ebp+8], 0
  00190	ff 15 00 00 00
	00		 call	 DWORD PTR __imp_??1?$CStringT@DV?$StrTraitMFC_DLL@DV?$ChTraitsCRT@D@ATL@@@@@ATL@@QAE@XZ
; File C:\Program Files (x86)\Microsoft Visual Studio\2019\Community\VC\Tools\MSVC\14.29.30133\atlmfc\include\atlsimpstr.h

; 533  : 		return( GetLength() == 0 );

  00196	8b 45 08	 mov	 eax, DWORD PTR _strPacketNames$[ebp]
  00199	83 78 f4 00	 cmp	 DWORD PTR [eax-12], 0
; File D:\git\src\IBK\IBK_DRFN\ProjSrc\SrcChartEx\ChartOCX\ChartObject\ViewMinMaxCalculator.cpp

; 388  : 	while(!strPacketNames.IsEmpty())

  0019d	75 91		 jne	 SHORT $LL2@GetViewVer
$LN3@GetViewVer:

; 400  : 	if( displayDataMinMax.IsInitialized()) ChangeViewVertMinMax_GraphTypeOrStyle(inputData.GetSubGraphData(), displayDataMinMax);

  0019f	8b ce		 mov	 ecx, esi
  001a1	ff 15 00 00 00
	00		 call	 DWORD PTR __imp_?IsInitialized@CDisplayDataMinMax@@QBEHXZ
  001a7	85 c0		 test	 eax, eax
  001a9	74 10		 je	 SHORT $LN7@GetViewVer
  001ab	56		 push	 esi
  001ac	8b cb		 mov	 ecx, ebx
  001ae	e8 00 00 00 00	 call	 ?GetSubGraphData@CVertDisplayDataMinMaxInputData@@QBEPAVCSubGraphData@@XZ ; CVertDisplayDataMinMaxInputData::GetSubGraphData
  001b3	50		 push	 eax
  001b4	8b cf		 mov	 ecx, edi
  001b6	e8 00 00 00 00	 call	 ?ChangeViewVertMinMax_GraphTypeOrStyle@CViewMinMaxCalculator@@AAE_NPAVCSubGraphData@@AAVCDisplayDataMinMax@@@Z ; CViewMinMaxCalculator::ChangeViewVertMinMax_GraphTypeOrStyle
$LN7@GetViewVer:

; 401  : 
; 402  : 	return displayDataMinMax.IsInitialized() ? true : false;

  001bb	8b ce		 mov	 ecx, esi
  001bd	ff 15 00 00 00
	00		 call	 DWORD PTR __imp_?IsInitialized@CDisplayDataMinMax@@QBEHXZ
  001c3	85 c0		 test	 eax, eax
  001c5	0f 95 c3	 setne	 bl
$LN13@GetViewVer:
  001c8	8d 4d 08	 lea	 ecx, DWORD PTR _strPacketNames$[ebp]
  001cb	ff 15 00 00 00
	00		 call	 DWORD PTR __imp_??1?$CStringT@DV?$StrTraitMFC_DLL@DV?$ChTraitsCRT@D@ATL@@@@@ATL@@QAE@XZ
  001d1	8a c3		 mov	 al, bl

; 403  : }

  001d3	8b 4d f4	 mov	 ecx, DWORD PTR __$EHRec$[ebp]
  001d6	64 89 0d 00 00
	00 00		 mov	 DWORD PTR fs:0, ecx
  001dd	59		 pop	 ecx
  001de	5f		 pop	 edi
  001df	5e		 pop	 esi
  001e0	5b		 pop	 ebx
  001e1	8b e5		 mov	 esp, ebp
  001e3	5d		 pop	 ebp
  001e4	c2 0c 00	 ret	 12			; 0000000cH
$LN41@GetViewVer:

; 393  : 		{
; 394  : 			displayDataMinMax.SetDisplayData(1.0, 1.0);

  001e7	f2 0f 10 05 00
	00 00 00	 movsd	 xmm0, QWORD PTR __real@3ff0000000000000
  001ef	8d 45 e0	 lea	 eax, DWORD PTR $T2[ebp]
  001f2	50		 push	 eax
  001f3	8d 45 ec	 lea	 eax, DWORD PTR $T8[ebp]
  001f6	f2 0f 11 45 e0	 movsd	 QWORD PTR $T2[ebp], xmm0
  001fb	50		 push	 eax
  001fc	8b ce		 mov	 ecx, esi
  001fe	f2 0f 11 45 ec	 movsd	 QWORD PTR $T8[ebp], xmm0
  00203	ff 15 00 00 00
	00		 call	 DWORD PTR __imp_?SetDisplayData@CDisplayDataMinMax@@QAEXABN0@Z

; 395  : 			return false;

  00209	8d 4d 0c	 lea	 ecx, DWORD PTR _strPacketName$9[ebp]
  0020c	ff 15 00 00 00
	00		 call	 DWORD PTR __imp_??1?$CStringT@DV?$StrTraitMFC_DLL@DV?$ChTraitsCRT@D@ATL@@@@@ATL@@QAE@XZ
  00212	32 db		 xor	 bl, bl
  00214	eb b2		 jmp	 SHORT $LN13@GetViewVer
_TEXT	ENDS
;	COMDAT text$x
text$x	SEGMENT
__unwindfunclet$?GetViewVertMinMax_InSubGraphPacketList@CViewMinMaxCalculator@@AAE_NABVCVertDisplayDataMinMaxInputData@@AAVCDisplayDataMinMax@@H@Z$0:
  00000	8d 4d 08	 lea	 ecx, DWORD PTR _strPacketNames$[ebp]
  00003	ff 25 00 00 00
	00		 jmp	 DWORD PTR __imp_??1?$CStringT@DV?$StrTraitMFC_DLL@DV?$ChTraitsCRT@D@ATL@@@@@ATL@@QAE@XZ
__unwindfunclet$?GetViewVertMinMax_InSubGraphPacketList@CViewMinMaxCalculator@@AAE_NABVCVertDisplayDataMinMaxInputData@@AAVCDisplayDataMinMax@@H@Z$2:
  00009	8d 4d e8	 lea	 ecx, DWORD PTR $T6[ebp]
  0000c	ff 25 00 00 00
	00		 jmp	 DWORD PTR __imp_??1?$CStringT@DV?$StrTraitMFC_DLL@DV?$ChTraitsCRT@D@ATL@@@@@ATL@@QAE@XZ
__unwindfunclet$?GetViewVertMinMax_InSubGraphPacketList@CViewMinMaxCalculator@@AAE_NABVCVertDisplayDataMinMaxInputData@@AAVCDisplayDataMinMax@@H@Z$3:
  00012	8d 4d 0c	 lea	 ecx, DWORD PTR _strPacketName$9[ebp]
  00015	ff 25 00 00 00
	00		 jmp	 DWORD PTR __imp_??1?$CStringT@DV?$StrTraitMFC_DLL@DV?$ChTraitsCRT@D@ATL@@@@@ATL@@QAE@XZ
  0001b	cc		 int	 3
  0001c	cc		 int	 3
  0001d	cc		 int	 3
  0001e	cc		 int	 3
  0001f	cc		 int	 3
__ehhandler$?GetViewVertMinMax_InSubGraphPacketList@CViewMinMaxCalculator@@AAE_NABVCVertDisplayDataMinMaxInputData@@AAVCDisplayDataMinMax@@H@Z:
  00020	90		 npad	 1
  00021	90		 npad	 1
  00022	8b 54 24 08	 mov	 edx, DWORD PTR [esp+8]
  00026	8d 42 0c	 lea	 eax, DWORD PTR [edx+12]
  00029	8b 4a d4	 mov	 ecx, DWORD PTR [edx-44]
  0002c	33 c8		 xor	 ecx, eax
  0002e	e8 00 00 00 00	 call	 @__security_check_cookie@4
  00033	b8 00 00 00 00	 mov	 eax, OFFSET __ehfuncinfo$?GetViewVertMinMax_InSubGraphPacketList@CViewMinMaxCalculator@@AAE_NABVCVertDisplayDataMinMaxInputData@@AAVCDisplayDataMinMax@@H@Z
  00038	e9 00 00 00 00	 jmp	 ___CxxFrameHandler3
text$x	ENDS
?GetViewVertMinMax_InSubGraphPacketList@CViewMinMaxCalculator@@AAE_NABVCVertDisplayDataMinMaxInputData@@AAVCDisplayDataMinMax@@H@Z ENDP ; CViewMinMaxCalculator::GetViewVertMinMax_InSubGraphPacketList
; Function compile flags: /Ogtp
; File D:\git\src\IBK\IBK_DRFN\ProjSrc\SrcChartEx\ChartOCX\ChartObject\ViewMinMaxCalculator.cpp
;	COMDAT ?GetViewVertMinMax_Fund@CViewMinMaxCalculator@@AAE_NABVCVertDisplayDataMinMaxInputData@@AAVCDisplayDataMinMax@@H@Z
_TEXT	SEGMENT
$T2 = -56						; size = 16
$T3 = -56						; size = 16
$T4 = -40						; size = 8
$T5 = -32						; size = 8
$T6 = -32						; size = 8
$T7 = -32						; size = 8
$T8 = -24						; size = 8
$T9 = -24						; size = 8
$T10 = -16						; size = 4
__$EHRec$ = -12						; size = 12
$T11 = 8						; size = 4
_inputData$ = 8						; size = 4
_displayDataMinMax$ = 12				; size = 4
_p_bWithFullRange$ = 16					; size = 4
?GetViewVertMinMax_Fund@CViewMinMaxCalculator@@AAE_NABVCVertDisplayDataMinMaxInputData@@AAVCDisplayDataMinMax@@H@Z PROC ; CViewMinMaxCalculator::GetViewVertMinMax_Fund, COMDAT
; _this$ = ecx

; 354  : {

  00000	55		 push	 ebp
  00001	8b ec		 mov	 ebp, esp
  00003	6a ff		 push	 -1
  00005	68 00 00 00 00	 push	 __ehhandler$?GetViewVertMinMax_Fund@CViewMinMaxCalculator@@AAE_NABVCVertDisplayDataMinMaxInputData@@AAVCDisplayDataMinMax@@H@Z
  0000a	64 a1 00 00 00
	00		 mov	 eax, DWORD PTR fs:0
  00010	50		 push	 eax
  00011	83 ec 2c	 sub	 esp, 44			; 0000002cH
  00014	53		 push	 ebx
  00015	56		 push	 esi
  00016	57		 push	 edi
  00017	a1 00 00 00 00	 mov	 eax, DWORD PTR ___security_cookie
  0001c	33 c5		 xor	 eax, ebp
  0001e	50		 push	 eax
  0001f	8d 45 f4	 lea	 eax, DWORD PTR __$EHRec$[ebp]
  00022	64 a3 00 00 00
	00		 mov	 DWORD PTR fs:0, eax
  00028	8b d9		 mov	 ebx, ecx

; 355  : 	switch(inputData.GetSubGraphStyle().GetGraphFundStyle()){

  0002a	8b 7d 08	 mov	 edi, DWORD PTR _inputData$[ebp]
  0002d	8d 45 f0	 lea	 eax, DWORD PTR $T10[ebp]
  00030	50		 push	 eax
  00031	8b cf		 mov	 ecx, edi
  00033	e8 00 00 00 00	 call	 ?GetSubGraphStyle@CVertDisplayDataMinMaxInputData@@QBE?AVCGraphStyle@@XZ ; CVertDisplayDataMinMaxInputData::GetSubGraphStyle
  00038	8b 00		 mov	 eax, DWORD PTR [eax]
  0003a	83 f8 06	 cmp	 eax, 6
  0003d	0f 87 9d 00 00
	00		 ja	 $LN2@GetViewVer
  00043	ff 24 85 00 00
	00 00		 jmp	 DWORD PTR $LN11@GetViewVer[eax*4]
$LN4@GetViewVer:

; 356  : 	case CGraphBaseData::ComponentRatio_Line:	// 구성비(선형)
; 357  : 	case CGraphBaseData::ComponentRatio_Bar:	// 구성비(바형)
; 358  : 		displayDataMinMax = CDisplayDataMinMax(0.0, 100.0);

  0004a	f2 0f 10 05 00
	00 00 00	 movsd	 xmm0, QWORD PTR __real@4059000000000000
  00052	8d 45 e8	 lea	 eax, DWORD PTR $T9[ebp]
  00055	50		 push	 eax
  00056	f2 0f 11 45 e8	 movsd	 QWORD PTR $T9[ebp], xmm0
  0005b	8d 45 e0	 lea	 eax, DWORD PTR $T7[ebp]
  0005e	0f 57 c0	 xorps	 xmm0, xmm0
  00061	8d 4d c8	 lea	 ecx, DWORD PTR $T3[ebp]
  00064	50		 push	 eax
  00065	f2 0f 11 45 e0	 movsd	 QWORD PTR $T7[ebp], xmm0
  0006a	ff 15 00 00 00
	00		 call	 DWORD PTR __imp_??0CDisplayDataMinMax@@QAE@ABN0@Z
  00070	8b 4d 0c	 mov	 ecx, DWORD PTR _displayDataMinMax$[ebp]
  00073	50		 push	 eax
  00074	ff 15 00 00 00
	00		 call	 DWORD PTR __imp_??4CDisplayDataMinMax@@QAEAAV0@ABV0@@Z

; 359  : 		return true;

  0007a	b0 01		 mov	 al, 1

; 371  : 		inputData.GetDisplayAttributes(), false, displayDataMinMax, p_bWithFullRange);
; 372  : }

  0007c	8b 4d f4	 mov	 ecx, DWORD PTR __$EHRec$[ebp]
  0007f	64 89 0d 00 00
	00 00		 mov	 DWORD PTR fs:0, ecx
  00086	59		 pop	 ecx
  00087	5f		 pop	 edi
  00088	5e		 pop	 esi
  00089	5b		 pop	 ebx
  0008a	8b e5		 mov	 esp, ebp
  0008c	5d		 pop	 ebp
  0008d	c2 0c 00	 ret	 12			; 0000000cH
$LN6@GetViewVer:
  00090	0f 57 c0	 xorps	 xmm0, xmm0

; 360  : 	case CGraphBaseData::ComponentRatio_Pie:	// 구성비(파이형)
; 361  : 	case CGraphBaseData::ReturnRiskGrade:		// 수익&위험등급
; 362  : 		displayDataMinMax = CDisplayDataMinMax(0.0, 0.0);

  00093	f2 0f 11 45 e0	 movsd	 QWORD PTR $T6[ebp], xmm0
$LN13@GetViewVer:

; 371  : 		inputData.GetDisplayAttributes(), false, displayDataMinMax, p_bWithFullRange);
; 372  : }

  00098	8d 45 e0	 lea	 eax, DWORD PTR $T6[ebp]
  0009b	f2 0f 11 45 e8	 movsd	 QWORD PTR $T8[ebp], xmm0
  000a0	50		 push	 eax
  000a1	8d 45 e8	 lea	 eax, DWORD PTR $T8[ebp]
  000a4	50		 push	 eax
  000a5	8d 4d c8	 lea	 ecx, DWORD PTR $T2[ebp]
  000a8	ff 15 00 00 00
	00		 call	 DWORD PTR __imp_??0CDisplayDataMinMax@@QAE@ABN0@Z
  000ae	8b 4d 0c	 mov	 ecx, DWORD PTR _displayDataMinMax$[ebp]
  000b1	50		 push	 eax
  000b2	ff 15 00 00 00
	00		 call	 DWORD PTR __imp_??4CDisplayDataMinMax@@QAEAAV0@ABV0@@Z
  000b8	b0 01		 mov	 al, 1
  000ba	8b 4d f4	 mov	 ecx, DWORD PTR __$EHRec$[ebp]
  000bd	64 89 0d 00 00
	00 00		 mov	 DWORD PTR fs:0, ecx
  000c4	59		 pop	 ecx
  000c5	5f		 pop	 edi
  000c6	5e		 pop	 esi
  000c7	5b		 pop	 ebx
  000c8	8b e5		 mov	 esp, ebp
  000ca	5d		 pop	 ebp
  000cb	c2 0c 00	 ret	 12			; 0000000cH
$LN8@GetViewVer:

; 363  : 		return true;
; 364  : 	case CGraphBaseData::StyleBox:				// 스타일박스
; 365  : 		displayDataMinMax = CDisplayDataMinMax(0.0, 15.0);

  000ce	f2 0f 10 05 00
	00 00 00	 movsd	 xmm0, QWORD PTR __real@402e000000000000
  000d6	f2 0f 11 45 e0	 movsd	 QWORD PTR $T5[ebp], xmm0
  000db	0f 57 c0	 xorps	 xmm0, xmm0

; 366  : 		return true;

  000de	eb b8		 jmp	 SHORT $LN13@GetViewVer
$LN2@GetViewVer:

; 367  : 	}
; 368  : 
; 369  : 	// "펀드&시장분산" 외 기타
; 370  : 	return GetPacketMinMax(GetPacket(inputData.GetSubGraphPacketList(), inputData.GetScaleData()), 

  000e0	8d 45 08	 lea	 eax, DWORD PTR $T11[ebp]
  000e3	8b cf		 mov	 ecx, edi
  000e5	50		 push	 eax
  000e6	e8 00 00 00 00	 call	 ?GetScaleData@CVertDisplayDataMinMaxInputData@@QBE?AV?$CStringT@DV?$StrTraitMFC_DLL@DV?$ChTraitsCRT@D@ATL@@@@@ATL@@XZ ; CVertDisplayDataMinMaxInputData::GetScaleData
  000eb	8b f0		 mov	 esi, eax
  000ed	ff 75 10	 push	 DWORD PTR _p_bWithFullRange$[ebp]
  000f0	8d 45 d8	 lea	 eax, DWORD PTR $T4[ebp]
  000f3	c7 45 fc 00 00
	00 00		 mov	 DWORD PTR __$EHRec$[ebp+8], 0
  000fa	ff 75 0c	 push	 DWORD PTR _displayDataMinMax$[ebp]
  000fd	8b cf		 mov	 ecx, edi
  000ff	6a 00		 push	 0
  00101	50		 push	 eax
  00102	e8 00 00 00 00	 call	 ?GetDisplayAttributes@CVertDisplayDataMinMaxInputData@@QBE?AVCDisplayAttributes@@XZ ; CVertDisplayDataMinMaxInputData::GetDisplayAttributes
  00107	50		 push	 eax
  00108	56		 push	 esi
  00109	8b cf		 mov	 ecx, edi
  0010b	e8 00 00 00 00	 call	 ?GetSubGraphPacketList@CVertDisplayDataMinMaxInputData@@QBEPAVCSubGraphPacketList@@XZ ; CVertDisplayDataMinMaxInputData::GetSubGraphPacketList
  00110	50		 push	 eax
  00111	8b cb		 mov	 ecx, ebx
  00113	e8 00 00 00 00	 call	 ?GetPacket@CViewMinMaxCalculator@@ABEPAVCPacket@@PAVCSubGraphPacketList@@ABV?$CStringT@DV?$StrTraitMFC_DLL@DV?$ChTraitsCRT@D@ATL@@@@@ATL@@@Z ; CViewMinMaxCalculator::GetPacket
  00118	50		 push	 eax
  00119	8b cb		 mov	 ecx, ebx
  0011b	e8 00 00 00 00	 call	 ?GetPacketMinMax@CViewMinMaxCalculator@@ABE_NPAVCPacket@@ABVCDisplayAttributes@@_NAAVCDisplayDataMinMax@@H@Z ; CViewMinMaxCalculator::GetPacketMinMax
  00120	8d 4d 08	 lea	 ecx, DWORD PTR $T11[ebp]
  00123	8a d8		 mov	 bl, al
  00125	ff 15 00 00 00
	00		 call	 DWORD PTR __imp_??1?$CStringT@DV?$StrTraitMFC_DLL@DV?$ChTraitsCRT@D@ATL@@@@@ATL@@QAE@XZ
  0012b	8a c3		 mov	 al, bl

; 371  : 		inputData.GetDisplayAttributes(), false, displayDataMinMax, p_bWithFullRange);
; 372  : }

  0012d	8b 4d f4	 mov	 ecx, DWORD PTR __$EHRec$[ebp]
  00130	64 89 0d 00 00
	00 00		 mov	 DWORD PTR fs:0, ecx
  00137	59		 pop	 ecx
  00138	5f		 pop	 edi
  00139	5e		 pop	 esi
  0013a	5b		 pop	 ebx
  0013b	8b e5		 mov	 esp, ebp
  0013d	5d		 pop	 ebp
  0013e	c2 0c 00	 ret	 12			; 0000000cH
  00141	0f 1f 00	 npad	 3
$LN11@GetViewVer:
  00144	00 00 00 00	 DD	 $LN4@GetViewVer
  00148	00 00 00 00	 DD	 $LN4@GetViewVer
  0014c	00 00 00 00	 DD	 $LN2@GetViewVer
  00150	00 00 00 00	 DD	 $LN6@GetViewVer
  00154	00 00 00 00	 DD	 $LN2@GetViewVer
  00158	00 00 00 00	 DD	 $LN6@GetViewVer
  0015c	00 00 00 00	 DD	 $LN8@GetViewVer
_TEXT	ENDS
;	COMDAT text$x
text$x	SEGMENT
__unwindfunclet$?GetViewVertMinMax_Fund@CViewMinMaxCalculator@@AAE_NABVCVertDisplayDataMinMaxInputData@@AAVCDisplayDataMinMax@@H@Z$0:
  00000	8d 4d 08	 lea	 ecx, DWORD PTR $T11[ebp]
  00003	ff 25 00 00 00
	00		 jmp	 DWORD PTR __imp_??1?$CStringT@DV?$StrTraitMFC_DLL@DV?$ChTraitsCRT@D@ATL@@@@@ATL@@QAE@XZ
  00009	cc		 int	 3
  0000a	cc		 int	 3
  0000b	cc		 int	 3
  0000c	cc		 int	 3
  0000d	cc		 int	 3
__ehhandler$?GetViewVertMinMax_Fund@CViewMinMaxCalculator@@AAE_NABVCVertDisplayDataMinMaxInputData@@AAVCDisplayDataMinMax@@H@Z:
  0000e	90		 npad	 1
  0000f	90		 npad	 1
  00010	8b 54 24 08	 mov	 edx, DWORD PTR [esp+8]
  00014	8d 42 0c	 lea	 eax, DWORD PTR [edx+12]
  00017	8b 4a c4	 mov	 ecx, DWORD PTR [edx-60]
  0001a	33 c8		 xor	 ecx, eax
  0001c	e8 00 00 00 00	 call	 @__security_check_cookie@4
  00021	b8 00 00 00 00	 mov	 eax, OFFSET __ehfuncinfo$?GetViewVertMinMax_Fund@CViewMinMaxCalculator@@AAE_NABVCVertDisplayDataMinMaxInputData@@AAVCDisplayDataMinMax@@H@Z
  00026	e9 00 00 00 00	 jmp	 ___CxxFrameHandler3
text$x	ENDS
?GetViewVertMinMax_Fund@CViewMinMaxCalculator@@AAE_NABVCVertDisplayDataMinMaxInputData@@AAVCDisplayDataMinMax@@H@Z ENDP ; CViewMinMaxCalculator::GetViewVertMinMax_Fund
; Function compile flags: /Ogtp
; File D:\git\src\IBK\IBK_DRFN\ProjSrc\SrcChartEx\ChartOCX\ChartObject\ViewMinMaxCalculator.cpp
; File C:\Program Files (x86)\Microsoft Visual Studio\2019\Community\VC\Tools\MSVC\14.29.30133\atlmfc\include\atlsimpstr.h
; File D:\git\src\IBK\IBK_DRFN\ProjSrc\SrcChartEx\ChartOCX\ChartObject\ViewMinMaxCalculator.cpp
; File C:\Program Files (x86)\Microsoft Visual Studio\2019\Community\VC\Tools\MSVC\14.29.30133\atlmfc\include\atlsimpstr.h
; File D:\git\src\IBK\IBK_DRFN\ProjSrc\SrcChartEx\ChartOCX\ChartObject\ViewMinMaxCalculator.cpp
;	COMDAT ?GetViewVertMinMax_Etc@CViewMinMaxCalculator@@AAE_NABVCVertDisplayDataMinMaxInputData@@AAVCDisplayDataMinMax@@HH@Z
_TEXT	SEGMENT
$T2 = -120						; size = 16
$T3 = -104						; size = 16
$T4 = -88						; size = 16
$T5 = -72						; size = 8
$T6 = -64						; size = 8
$T7 = -56						; size = 8
$T8 = -48						; size = 8
$T9 = -40						; size = 8
$T10 = -32						; size = 8
$T11 = -24						; size = 8
$T12 = -16						; size = 4
__$EHRec$ = -12						; size = 12
$T13 = 8						; size = 4
_inputData$ = 8						; size = 4
_displayDataMinMax$ = 12				; size = 4
_p_bWithFullRange$ = 16					; size = 4
$T14 = 20						; size = 4
_bDrawBaseLine$ = 20					; size = 4
?GetViewVertMinMax_Etc@CViewMinMaxCalculator@@AAE_NABVCVertDisplayDataMinMaxInputData@@AAVCDisplayDataMinMax@@HH@Z PROC ; CViewMinMaxCalculator::GetViewVertMinMax_Etc, COMDAT
; _this$ = ecx

; 334  : {

  00000	55		 push	 ebp
  00001	8b ec		 mov	 ebp, esp
  00003	6a ff		 push	 -1
  00005	68 00 00 00 00	 push	 __ehhandler$?GetViewVertMinMax_Etc@CViewMinMaxCalculator@@AAE_NABVCVertDisplayDataMinMaxInputData@@AAVCDisplayDataMinMax@@HH@Z
  0000a	64 a1 00 00 00
	00		 mov	 eax, DWORD PTR fs:0
  00010	50		 push	 eax
  00011	83 ec 6c	 sub	 esp, 108		; 0000006cH
  00014	53		 push	 ebx
  00015	56		 push	 esi
  00016	57		 push	 edi
  00017	a1 00 00 00 00	 mov	 eax, DWORD PTR ___security_cookie
  0001c	33 c5		 xor	 eax, ebp
  0001e	50		 push	 eax
  0001f	8d 45 f4	 lea	 eax, DWORD PTR __$EHRec$[ebp]
  00022	64 a3 00 00 00
	00		 mov	 DWORD PTR fs:0, eax
  00028	8b d9		 mov	 ebx, ecx

; 335  : 	// "펀드" 인 경우
; 336  : 	if(inputData.GetSubGraphType() == CGraphBaseData::Fund_Type)

  0002a	8b 7d 08	 mov	 edi, DWORD PTR _inputData$[ebp]
  0002d	8b cf		 mov	 ecx, edi
  0002f	e8 00 00 00 00	 call	 ?GetSubGraphType@CVertDisplayDataMinMaxInputData@@QBE?AW4GRAPHTYPE@CGraphBaseData@@XZ ; CVertDisplayDataMinMaxInputData::GetSubGraphType
  00034	8b cf		 mov	 ecx, edi
  00036	83 f8 05	 cmp	 eax, 5
  00039	0f 85 fe 00 00
	00		 jne	 $LN2@GetViewVer

; 355  : 	switch(inputData.GetSubGraphStyle().GetGraphFundStyle()){

  0003f	8d 45 14	 lea	 eax, DWORD PTR $T14[ebp]
  00042	50		 push	 eax
  00043	e8 00 00 00 00	 call	 ?GetSubGraphStyle@CVertDisplayDataMinMaxInputData@@QBE?AVCGraphStyle@@XZ ; CVertDisplayDataMinMaxInputData::GetSubGraphStyle
  00048	8b 00		 mov	 eax, DWORD PTR [eax]
  0004a	83 f8 06	 cmp	 eax, 6
  0004d	0f 87 89 00 00
	00		 ja	 $LN8@GetViewVer
  00053	ff 24 85 00 00
	00 00		 jmp	 DWORD PTR $LN23@GetViewVer[eax*4]
$LN10@GetViewVer:

; 356  : 	case CGraphBaseData::ComponentRatio_Line:	// 구성비(선형)
; 357  : 	case CGraphBaseData::ComponentRatio_Bar:	// 구성비(바형)
; 358  : 		displayDataMinMax = CDisplayDataMinMax(0.0, 100.0);

  0005a	f2 0f 10 05 00
	00 00 00	 movsd	 xmm0, QWORD PTR __real@4059000000000000
  00062	8d 45 e8	 lea	 eax, DWORD PTR $T11[ebp]
  00065	f2 0f 11 45 e8	 movsd	 QWORD PTR $T11[ebp], xmm0
  0006a	8d 4d a8	 lea	 ecx, DWORD PTR $T4[ebp]
  0006d	0f 57 c0	 xorps	 xmm0, xmm0
  00070	50		 push	 eax
  00071	f2 0f 11 45 e0	 movsd	 QWORD PTR $T10[ebp], xmm0
  00076	8d 45 e0	 lea	 eax, DWORD PTR $T10[ebp]
$LN26@GetViewVer:

; 337  : 		return GetViewVertMinMax_Fund(inputData, displayDataMinMax, p_bWithFullRange);

  00079	50		 push	 eax
  0007a	ff 15 00 00 00
	00		 call	 DWORD PTR __imp_??0CDisplayDataMinMax@@QAE@ABN0@Z
  00080	8b 4d 0c	 mov	 ecx, DWORD PTR _displayDataMinMax$[ebp]
  00083	50		 push	 eax
  00084	ff 15 00 00 00
	00		 call	 DWORD PTR __imp_??4CDisplayDataMinMax@@QAEAAV0@ABV0@@Z
  0008a	b3 01		 mov	 bl, 1
  0008c	8a c3		 mov	 al, bl

; 350  : }

  0008e	8b 4d f4	 mov	 ecx, DWORD PTR __$EHRec$[ebp]
  00091	64 89 0d 00 00
	00 00		 mov	 DWORD PTR fs:0, ecx
  00098	59		 pop	 ecx
  00099	5f		 pop	 edi
  0009a	5e		 pop	 esi
  0009b	5b		 pop	 ebx
  0009c	8b e5		 mov	 esp, ebp
  0009e	5d		 pop	 ebp
  0009f	c2 10 00	 ret	 16			; 00000010H
$LN12@GetViewVer:

; 362  : 		displayDataMinMax = CDisplayDataMinMax(0.0, 0.0);

  000a2	8d 45 d8	 lea	 eax, DWORD PTR $T9[ebp]
  000a5	0f 57 c0	 xorps	 xmm0, xmm0
  000a8	50		 push	 eax
  000a9	f2 0f 11 45 d8	 movsd	 QWORD PTR $T9[ebp], xmm0
  000ae	8d 45 d0	 lea	 eax, DWORD PTR $T8[ebp]
  000b1	f2 0f 11 45 d0	 movsd	 QWORD PTR $T8[ebp], xmm0
  000b6	8d 4d 98	 lea	 ecx, DWORD PTR $T3[ebp]

; 363  : 		return true;

  000b9	eb be		 jmp	 SHORT $LN26@GetViewVer
$LN14@GetViewVer:

; 364  : 	case CGraphBaseData::StyleBox:				// 스타일박스
; 365  : 		displayDataMinMax = CDisplayDataMinMax(0.0, 15.0);

  000bb	f2 0f 10 05 00
	00 00 00	 movsd	 xmm0, QWORD PTR __real@402e000000000000
  000c3	8d 45 c8	 lea	 eax, DWORD PTR $T7[ebp]
  000c6	f2 0f 11 45 c8	 movsd	 QWORD PTR $T7[ebp], xmm0
  000cb	8d 4d 88	 lea	 ecx, DWORD PTR $T2[ebp]
  000ce	0f 57 c0	 xorps	 xmm0, xmm0
  000d1	50		 push	 eax
  000d2	f2 0f 11 45 c0	 movsd	 QWORD PTR $T6[ebp], xmm0
  000d7	8d 45 c0	 lea	 eax, DWORD PTR $T6[ebp]

; 366  : 		return true;

  000da	eb 9d		 jmp	 SHORT $LN26@GetViewVer
$LN8@GetViewVer:

; 367  : 	}
; 368  : 
; 369  : 	// "펀드&시장분산" 외 기타
; 370  : 	return GetPacketMinMax(GetPacket(inputData.GetSubGraphPacketList(), inputData.GetScaleData()), 

  000dc	8d 45 08	 lea	 eax, DWORD PTR $T13[ebp]
  000df	8b cf		 mov	 ecx, edi
  000e1	50		 push	 eax
  000e2	e8 00 00 00 00	 call	 ?GetScaleData@CVertDisplayDataMinMaxInputData@@QBE?AV?$CStringT@DV?$StrTraitMFC_DLL@DV?$ChTraitsCRT@D@ATL@@@@@ATL@@XZ ; CVertDisplayDataMinMaxInputData::GetScaleData
  000e7	8b f0		 mov	 esi, eax
  000e9	ff 75 10	 push	 DWORD PTR _p_bWithFullRange$[ebp]
  000ec	8d 45 b8	 lea	 eax, DWORD PTR $T5[ebp]
  000ef	c7 45 fc 00 00
	00 00		 mov	 DWORD PTR __$EHRec$[ebp+8], 0
  000f6	ff 75 0c	 push	 DWORD PTR _displayDataMinMax$[ebp]
  000f9	8b cf		 mov	 ecx, edi
  000fb	6a 00		 push	 0
  000fd	50		 push	 eax
  000fe	e8 00 00 00 00	 call	 ?GetDisplayAttributes@CVertDisplayDataMinMaxInputData@@QBE?AVCDisplayAttributes@@XZ ; CVertDisplayDataMinMaxInputData::GetDisplayAttributes
  00103	50		 push	 eax
  00104	56		 push	 esi
  00105	8b cf		 mov	 ecx, edi
  00107	e8 00 00 00 00	 call	 ?GetSubGraphPacketList@CVertDisplayDataMinMaxInputData@@QBEPAVCSubGraphPacketList@@XZ ; CVertDisplayDataMinMaxInputData::GetSubGraphPacketList
  0010c	50		 push	 eax
  0010d	8b cb		 mov	 ecx, ebx
  0010f	e8 00 00 00 00	 call	 ?GetPacket@CViewMinMaxCalculator@@ABEPAVCPacket@@PAVCSubGraphPacketList@@ABV?$CStringT@DV?$StrTraitMFC_DLL@DV?$ChTraitsCRT@D@ATL@@@@@ATL@@@Z ; CViewMinMaxCalculator::GetPacket
  00114	50		 push	 eax
  00115	8b cb		 mov	 ecx, ebx
  00117	e8 00 00 00 00	 call	 ?GetPacketMinMax@CViewMinMaxCalculator@@ABE_NPAVCPacket@@ABVCDisplayAttributes@@_NAAVCDisplayDataMinMax@@H@Z ; CViewMinMaxCalculator::GetPacketMinMax
  0011c	8d 4d 08	 lea	 ecx, DWORD PTR $T13[ebp]
  0011f	8a d8		 mov	 bl, al
  00121	ff 15 00 00 00
	00		 call	 DWORD PTR __imp_??1?$CStringT@DV?$StrTraitMFC_DLL@DV?$ChTraitsCRT@D@ATL@@@@@ATL@@QAE@XZ

; 337  : 		return GetViewVertMinMax_Fund(inputData, displayDataMinMax, p_bWithFullRange);

  00127	8a c3		 mov	 al, bl

; 350  : }

  00129	8b 4d f4	 mov	 ecx, DWORD PTR __$EHRec$[ebp]
  0012c	64 89 0d 00 00
	00 00		 mov	 DWORD PTR fs:0, ecx
  00133	59		 pop	 ecx
  00134	5f		 pop	 edi
  00135	5e		 pop	 esi
  00136	5b		 pop	 ebx
  00137	8b e5		 mov	 esp, ebp
  00139	5d		 pop	 ebp
  0013a	c2 10 00	 ret	 16			; 00000010H
$LN2@GetViewVer:

; 341  : 	if(!inputData.GetIndicatorName().IsEmpty())

  0013d	8d 45 f0	 lea	 eax, DWORD PTR $T12[ebp]
  00140	50		 push	 eax
  00141	e8 00 00 00 00	 call	 ?GetIndicatorName@CVertDisplayDataMinMaxInputData@@QBE?AV?$CStringT@DV?$StrTraitMFC_DLL@DV?$ChTraitsCRT@D@ATL@@@@@ATL@@XZ ; CVertDisplayDataMinMaxInputData::GetIndicatorName
  00146	8d 4d f0	 lea	 ecx, DWORD PTR $T12[ebp]
; File C:\Program Files (x86)\Microsoft Visual Studio\2019\Community\VC\Tools\MSVC\14.29.30133\atlmfc\include\atlsimpstr.h

; 519  : 		return( GetData()->nDataLength );

  00149	8b 00		 mov	 eax, DWORD PTR [eax]
  0014b	8b 70 f4	 mov	 esi, DWORD PTR [eax-12]
; File D:\git\src\IBK\IBK_DRFN\ProjSrc\SrcChartEx\ChartOCX\ChartObject\ViewMinMaxCalculator.cpp

; 341  : 	if(!inputData.GetIndicatorName().IsEmpty())

  0014e	ff 15 00 00 00
	00		 call	 DWORD PTR __imp_??1?$CStringT@DV?$StrTraitMFC_DLL@DV?$ChTraitsCRT@D@ATL@@@@@ATL@@QAE@XZ
  00154	8b cb		 mov	 ecx, ebx
; File C:\Program Files (x86)\Microsoft Visual Studio\2019\Community\VC\Tools\MSVC\14.29.30133\atlmfc\include\atlsimpstr.h

; 533  : 		return( GetLength() == 0 );

  00156	85 f6		 test	 esi, esi
; File D:\git\src\IBK\IBK_DRFN\ProjSrc\SrcChartEx\ChartOCX\ChartObject\ViewMinMaxCalculator.cpp

; 341  : 	if(!inputData.GetIndicatorName().IsEmpty())

  00158	74 23		 je	 SHORT $LN3@GetViewVer

; 342  : 		return GetViewVertMinMax_Indicate(inputData, displayDataMinMax, p_bWithFullRange, bDrawBaseLine);

  0015a	ff 75 14	 push	 DWORD PTR _bDrawBaseLine$[ebp]
  0015d	ff 75 10	 push	 DWORD PTR _p_bWithFullRange$[ebp]
  00160	ff 75 0c	 push	 DWORD PTR _displayDataMinMax$[ebp]
  00163	57		 push	 edi
  00164	e8 00 00 00 00	 call	 ?GetViewVertMinMax_Indicate@CViewMinMaxCalculator@@AAE_NABVCVertDisplayDataMinMaxInputData@@AAVCDisplayDataMinMax@@HH@Z ; CViewMinMaxCalculator::GetViewVertMinMax_Indicate

; 350  : }

  00169	8b 4d f4	 mov	 ecx, DWORD PTR __$EHRec$[ebp]
  0016c	64 89 0d 00 00
	00 00		 mov	 DWORD PTR fs:0, ecx
  00173	59		 pop	 ecx
  00174	5f		 pop	 edi
  00175	5e		 pop	 esi
  00176	5b		 pop	 ebx
  00177	8b e5		 mov	 esp, ebp
  00179	5d		 pop	 ebp
  0017a	c2 10 00	 ret	 16			; 00000010H
$LN3@GetViewVer:

; 343  : 
; 344  : 	// "packet"들 인 경우 - subGraph 에 있는 packet 인 경우
; 345  : 	if(GetViewVertMinMax_InSubGraphPacketList(inputData, displayDataMinMax, p_bWithFullRange))

  0017d	8b 75 10	 mov	 esi, DWORD PTR _p_bWithFullRange$[ebp]
  00180	56		 push	 esi
  00181	ff 75 0c	 push	 DWORD PTR _displayDataMinMax$[ebp]
  00184	57		 push	 edi
  00185	e8 00 00 00 00	 call	 ?GetViewVertMinMax_InSubGraphPacketList@CViewMinMaxCalculator@@AAE_NABVCVertDisplayDataMinMaxInputData@@AAVCDisplayDataMinMax@@H@Z ; CViewMinMaxCalculator::GetViewVertMinMax_InSubGraphPacketList
  0018a	84 c0		 test	 al, al
  0018c	74 16		 je	 SHORT $LN4@GetViewVer

; 346  : 		return true;

  0018e	b0 01		 mov	 al, 1

; 350  : }

  00190	8b 4d f4	 mov	 ecx, DWORD PTR __$EHRec$[ebp]
  00193	64 89 0d 00 00
	00 00		 mov	 DWORD PTR fs:0, ecx
  0019a	59		 pop	 ecx
  0019b	5f		 pop	 edi
  0019c	5e		 pop	 esi
  0019d	5b		 pop	 ebx
  0019e	8b e5		 mov	 esp, ebp
  001a0	5d		 pop	 ebp
  001a1	c2 10 00	 ret	 16			; 00000010H
$LN4@GetViewVer:

; 347  : 
; 348  : 	// "packet"들 인 경우 - subGraph 에 있는 packet 이 아닌 경우
; 349  : 	return GetViewVertMinMax_OutsideSubGraphPacketList(inputData, displayDataMinMax, p_bWithFullRange);

  001a4	56		 push	 esi
  001a5	ff 75 0c	 push	 DWORD PTR _displayDataMinMax$[ebp]
  001a8	8b cb		 mov	 ecx, ebx
  001aa	57		 push	 edi
  001ab	e8 00 00 00 00	 call	 ?GetViewVertMinMax_OutsideSubGraphPacketList@CViewMinMaxCalculator@@AAE_NABVCVertDisplayDataMinMaxInputData@@AAVCDisplayDataMinMax@@H@Z ; CViewMinMaxCalculator::GetViewVertMinMax_OutsideSubGraphPacketList

; 350  : }

  001b0	8b 4d f4	 mov	 ecx, DWORD PTR __$EHRec$[ebp]
  001b3	64 89 0d 00 00
	00 00		 mov	 DWORD PTR fs:0, ecx
  001ba	59		 pop	 ecx
  001bb	5f		 pop	 edi
  001bc	5e		 pop	 esi
  001bd	5b		 pop	 ebx
  001be	8b e5		 mov	 esp, ebp
  001c0	5d		 pop	 ebp
  001c1	c2 10 00	 ret	 16			; 00000010H
$LN23@GetViewVer:
  001c4	00 00 00 00	 DD	 $LN10@GetViewVer
  001c8	00 00 00 00	 DD	 $LN10@GetViewVer
  001cc	00 00 00 00	 DD	 $LN8@GetViewVer
  001d0	00 00 00 00	 DD	 $LN12@GetViewVer
  001d4	00 00 00 00	 DD	 $LN8@GetViewVer
  001d8	00 00 00 00	 DD	 $LN12@GetViewVer
  001dc	00 00 00 00	 DD	 $LN14@GetViewVer
_TEXT	ENDS
;	COMDAT text$x
text$x	SEGMENT
__unwindfunclet$?GetViewVertMinMax_Etc@CViewMinMaxCalculator@@AAE_NABVCVertDisplayDataMinMaxInputData@@AAVCDisplayDataMinMax@@HH@Z$1:
  00000	8d 4d 08	 lea	 ecx, DWORD PTR $T13[ebp]
  00003	ff 25 00 00 00
	00		 jmp	 DWORD PTR __imp_??1?$CStringT@DV?$StrTraitMFC_DLL@DV?$ChTraitsCRT@D@ATL@@@@@ATL@@QAE@XZ
  00009	cc		 int	 3
  0000a	cc		 int	 3
  0000b	cc		 int	 3
  0000c	cc		 int	 3
  0000d	cc		 int	 3
__ehhandler$?GetViewVertMinMax_Etc@CViewMinMaxCalculator@@AAE_NABVCVertDisplayDataMinMaxInputData@@AAVCDisplayDataMinMax@@HH@Z:
  0000e	90		 npad	 1
  0000f	90		 npad	 1
  00010	8b 54 24 08	 mov	 edx, DWORD PTR [esp+8]
  00014	8d 42 0c	 lea	 eax, DWORD PTR [edx+12]
  00017	8b 4a 84	 mov	 ecx, DWORD PTR [edx-124]
  0001a	33 c8		 xor	 ecx, eax
  0001c	e8 00 00 00 00	 call	 @__security_check_cookie@4
  00021	b8 00 00 00 00	 mov	 eax, OFFSET __ehfuncinfo$?GetViewVertMinMax_Etc@CViewMinMaxCalculator@@AAE_NABVCVertDisplayDataMinMaxInputData@@AAVCDisplayDataMinMax@@HH@Z
  00026	e9 00 00 00 00	 jmp	 ___CxxFrameHandler3
text$x	ENDS
?GetViewVertMinMax_Etc@CViewMinMaxCalculator@@AAE_NABVCVertDisplayDataMinMaxInputData@@AAVCDisplayDataMinMax@@HH@Z ENDP ; CViewMinMaxCalculator::GetViewVertMinMax_Etc
; Function compile flags: /Ogtp
; File D:\git\src\IBK\IBK_DRFN\ProjSrc\SrcChartEx\ChartOCX\ChartObject\ViewMinMaxCalculator.cpp
;	COMDAT ?GetViewVertMinMax_MarketProfile@CViewMinMaxCalculator@@AAE_NABVCVertDisplayDataMinMaxInputData@@AAVCDisplayDataMinMax@@@Z
_TEXT	SEGMENT
$T1 = -20						; size = 8
$T2 = -12						; size = 8
_nMinX100$ = -4						; size = 4
_nMaxX100$ = 8						; size = 4
_inputData$ = 8						; size = 4
_displayDataMinMax$ = 12				; size = 4
?GetViewVertMinMax_MarketProfile@CViewMinMaxCalculator@@AAE_NABVCVertDisplayDataMinMaxInputData@@AAVCDisplayDataMinMax@@@Z PROC ; CViewMinMaxCalculator::GetViewVertMinMax_MarketProfile, COMDAT
; _this$ = ecx

; 278  : {

  00000	55		 push	 ebp
  00001	8b ec		 mov	 ebp, esp

; 279  : 	CMPPacket* pMPPacket = (CMPPacket*) inputData.GetSubGraphPacketList()->GetHeadPacket();

  00003	8b 4d 08	 mov	 ecx, DWORD PTR _inputData$[ebp]
  00006	83 ec 14	 sub	 esp, 20			; 00000014H
  00009	e8 00 00 00 00	 call	 ?GetSubGraphPacketList@CVertDisplayDataMinMaxInputData@@QBEPAVCSubGraphPacketList@@XZ ; CVertDisplayDataMinMaxInputData::GetSubGraphPacketList
  0000e	8b c8		 mov	 ecx, eax
  00010	e8 00 00 00 00	 call	 ?GetHeadPacket@CSubGraphPacketList@@QAEPAVCPacket@@XZ ; CSubGraphPacketList::GetHeadPacket

; 280  : 	if(pMPPacket == NULL)

  00015	85 c0		 test	 eax, eax
  00017	74 63		 je	 SHORT $LN5@GetViewVer

; 281  : 		return false;
; 282  : 
; 283  : 	// (2004.01.20, 배승원) 각 가격구간의 대표값 범주는 전체 가격범주보다 단위 가격폭이 적다.
; 284  : 	//		전체 가격범주를 구하는 Interface로 변경한다.
; 285  : 	//		또한, Double이 아닌 IntX100를 이용한다.
; 286  : 	int nMinX100, nMaxX100;
; 287  : 	if( !pMPPacket->GetPriceScaleX100( nMinX100, nMaxX100)) return false;

  00019	8d 4d 08	 lea	 ecx, DWORD PTR _nMaxX100$[ebp]
  0001c	51		 push	 ecx
  0001d	8d 4d fc	 lea	 ecx, DWORD PTR _nMinX100$[ebp]
  00020	51		 push	 ecx
  00021	8b c8		 mov	 ecx, eax
  00023	ff 15 00 00 00
	00		 call	 DWORD PTR __imp_?GetPriceScaleX100@CMPPacket@@QAEHAAH0@Z
  00029	85 c0		 test	 eax, eax
  0002b	74 4f		 je	 SHORT $LN5@GetViewVer

; 288  : 
; 289  : 	displayDataMinMax.SetDisplayData( ( nMinX100 - 15) / 100., ( nMaxX100 + 15) / 100.);

  0002d	8b 45 08	 mov	 eax, DWORD PTR _nMaxX100$[ebp]
  00030	83 c0 0f	 add	 eax, 15			; 0000000fH
  00033	8b 4d 0c	 mov	 ecx, DWORD PTR _displayDataMinMax$[ebp]
  00036	66 0f 6e c0	 movd	 xmm0, eax
  0003a	f3 0f e6 c0	 cvtdq2pd xmm0, xmm0
  0003e	8b 45 fc	 mov	 eax, DWORD PTR _nMinX100$[ebp]
  00041	83 c0 f1	 add	 eax, -15		; fffffff1H
  00044	f2 0f 5e 05 00
	00 00 00	 divsd	 xmm0, QWORD PTR __real@4059000000000000
  0004c	f2 0f 11 45 f4	 movsd	 QWORD PTR $T2[ebp], xmm0
  00051	66 0f 6e c0	 movd	 xmm0, eax
  00055	8d 45 f4	 lea	 eax, DWORD PTR $T2[ebp]
  00058	f3 0f e6 c0	 cvtdq2pd xmm0, xmm0
  0005c	50		 push	 eax
  0005d	8d 45 ec	 lea	 eax, DWORD PTR $T1[ebp]
  00060	50		 push	 eax
  00061	f2 0f 5e 05 00
	00 00 00	 divsd	 xmm0, QWORD PTR __real@4059000000000000
  00069	f2 0f 11 45 ec	 movsd	 QWORD PTR $T1[ebp], xmm0
  0006e	ff 15 00 00 00
	00		 call	 DWORD PTR __imp_?SetDisplayData@CDisplayDataMinMax@@QAEXABN0@Z

; 290  : 	return true;

  00074	b0 01		 mov	 al, 1

; 291  : }

  00076	8b e5		 mov	 esp, ebp
  00078	5d		 pop	 ebp
  00079	c2 08 00	 ret	 8
$LN5@GetViewVer:

; 281  : 		return false;
; 282  : 
; 283  : 	// (2004.01.20, 배승원) 각 가격구간의 대표값 범주는 전체 가격범주보다 단위 가격폭이 적다.
; 284  : 	//		전체 가격범주를 구하는 Interface로 변경한다.
; 285  : 	//		또한, Double이 아닌 IntX100를 이용한다.
; 286  : 	int nMinX100, nMaxX100;
; 287  : 	if( !pMPPacket->GetPriceScaleX100( nMinX100, nMaxX100)) return false;

  0007c	32 c0		 xor	 al, al

; 291  : }

  0007e	8b e5		 mov	 esp, ebp
  00080	5d		 pop	 ebp
  00081	c2 08 00	 ret	 8
?GetViewVertMinMax_MarketProfile@CViewMinMaxCalculator@@AAE_NABVCVertDisplayDataMinMaxInputData@@AAVCDisplayDataMinMax@@@Z ENDP ; CViewMinMaxCalculator::GetViewVertMinMax_MarketProfile
_TEXT	ENDS
; Function compile flags: /Ogtp
; File D:\git\src\IBK\IBK_DRFN\ProjSrc\SrcChartEx\ChartOCX\ChartObject\ViewMinMaxCalculator.cpp
; File C:\Program Files (x86)\Microsoft Visual Studio\2019\Community\VC\Tools\MSVC\14.29.30133\atlmfc\include\afxtempl.h
; File D:\git\src\IBK\IBK_DRFN\ProjSrc\SrcChartEx\ChartOCX\ChartObject\ViewMinMaxCalculator.cpp
;	COMDAT ?GetViewVertMinMax_Sale@CViewMinMaxCalculator@@AAE_NABVCVertDisplayDataMinMaxInputData@@AAVCDisplayDataMinMax@@H@Z
_TEXT	SEGMENT
_displayAttributes$ = -8				; size = 8
_inputData$ = 8						; size = 4
_displayDataMinMax$ = 12				; size = 4
_p_bWithFullRange$ = 16					; size = 4
?GetViewVertMinMax_Sale@CViewMinMaxCalculator@@AAE_NABVCVertDisplayDataMinMaxInputData@@AAVCDisplayDataMinMax@@H@Z PROC ; CViewMinMaxCalculator::GetViewVertMinMax_Sale, COMDAT
; _this$ = ecx

; 256  : {

  00000	55		 push	 ebp
  00001	8b ec		 mov	 ebp, esp
  00003	83 ec 08	 sub	 esp, 8
  00006	56		 push	 esi
  00007	57		 push	 edi
  00008	8b f9		 mov	 edi, ecx

; 257  : 	//2004.05.12. -> "대기매물" 이 첨부형일 때의 구현 방식.
; 258  : 	//				 단, vertScaleGroup가 독립적일때 사용된다.
; 259  : 	// "대기매물" -> packet : <대기매물>, <대기매물_가격대>
; 260  : 	// -> Min/Max : <대기매물_가격대> 로만 구한다.
; 261  : 	// (2006/12/11 - Seung-Won, Bae) "대기매물_가격대" is second packet.
; 262  : 	CSubGraphPacketList *pSubGraphPacketList = inputData.GetSubGraphPacketList();

  0000a	8b 4d 08	 mov	 ecx, DWORD PTR _inputData$[ebp]
  0000d	e8 00 00 00 00	 call	 ?GetSubGraphPacketList@CVertDisplayDataMinMaxInputData@@QBEPAVCSubGraphPacketList@@XZ ; CVertDisplayDataMinMaxInputData::GetSubGraphPacketList

; 263  : 	if( !pSubGraphPacketList) return false;

  00012	85 c0		 test	 eax, eax
  00014	74 4c		 je	 SHORT $LN20@GetViewVer

; 264  : 	const CList < CPacket *, CPacket *> &packetList = pSubGraphPacketList->GetSubGraphPacketList();

  00016	8b c8		 mov	 ecx, eax
  00018	e8 00 00 00 00	 call	 ?GetSubGraphPacketList@CSubGraphPacketList@@QBEABV?$CList@PAVCPacket@@PAV1@@@XZ ; CSubGraphPacketList::GetSubGraphPacketList

; 265  : 	if( packetList.GetCount() < 2) return false;

  0001d	83 78 0c 02	 cmp	 DWORD PTR [eax+12], 2
  00021	7c 3f		 jl	 SHORT $LN20@GetViewVer
; File C:\Program Files (x86)\Microsoft Visual Studio\2019\Community\VC\Tools\MSVC\14.29.30133\atlmfc\include\afxtempl.h

; 1136 : 	CNode* pNode = m_pNodeHead;

  00023	8b 40 04	 mov	 eax, DWORD PTR [eax+4]

; 1137 : 	while (nIndex--)
; 1138 : 	{
; 1139 : 		ASSERT(AfxIsValidAddress(pNode, sizeof(CNode)));
; 1140 : 		pNode = pNode->pNext;

  00026	8b 00		 mov	 eax, DWORD PTR [eax]
; File D:\git\src\IBK\IBK_DRFN\ProjSrc\SrcChartEx\ChartOCX\ChartObject\ViewMinMaxCalculator.cpp

; 267  : 	if( !psnPacket) return false;

  00028	85 c0		 test	 eax, eax
  0002a	74 36		 je	 SHORT $LN20@GetViewVer

; 268  : 	CPacket *pPacket = packetList.GetAt( psnPacket);

  0002c	8b 70 08	 mov	 esi, DWORD PTR [eax+8]

; 269  : 	if( !pPacket) return false;

  0002f	85 f6		 test	 esi, esi
  00031	74 2f		 je	 SHORT $LN20@GetViewVer

; 270  : 
; 271  : 	// 시작과 끝은 Packet Data 갯수로 한다.
; 272  : 	// -> 대기매물 현재가/최대값 index를 나타내는 값은 빼고 실질적인 data 갯수를 구한다.
; 273  : 	CDisplayAttributes displayAttributes(0, pPacket->GetCount() -1);

  00033	8b 06		 mov	 eax, DWORD PTR [esi]
  00035	8b ce		 mov	 ecx, esi
  00037	ff 50 14	 call	 DWORD PTR [eax+20]
  0003a	48		 dec	 eax
  0003b	8d 4d f8	 lea	 ecx, DWORD PTR _displayAttributes$[ebp]
  0003e	50		 push	 eax
  0003f	6a 00		 push	 0
  00041	e8 00 00 00 00	 call	 ??0CDisplayAttributes@@QAE@HH@Z ; CDisplayAttributes::CDisplayAttributes

; 274  : 	return GetViewVertMinMax_Packet(pPacket, displayAttributes, false, displayDataMinMax, p_bWithFullRange);

  00046	ff 75 10	 push	 DWORD PTR _p_bWithFullRange$[ebp]
  00049	8d 45 f8	 lea	 eax, DWORD PTR _displayAttributes$[ebp]
  0004c	8b cf		 mov	 ecx, edi
  0004e	ff 75 0c	 push	 DWORD PTR _displayDataMinMax$[ebp]
  00051	6a 00		 push	 0
  00053	50		 push	 eax
  00054	56		 push	 esi
  00055	e8 00 00 00 00	 call	 ?GetViewVertMinMax_Packet@CViewMinMaxCalculator@@AAE_NPAVCPacket@@ABVCDisplayAttributes@@_NAAVCDisplayDataMinMax@@H@Z ; CViewMinMaxCalculator::GetViewVertMinMax_Packet
  0005a	5f		 pop	 edi

; 275  : }

  0005b	5e		 pop	 esi
  0005c	8b e5		 mov	 esp, ebp
  0005e	5d		 pop	 ebp
  0005f	c2 0c 00	 ret	 12			; 0000000cH
$LN20@GetViewVer:
  00062	5f		 pop	 edi

; 269  : 	if( !pPacket) return false;

  00063	32 c0		 xor	 al, al

; 275  : }

  00065	5e		 pop	 esi
  00066	8b e5		 mov	 esp, ebp
  00068	5d		 pop	 ebp
  00069	c2 0c 00	 ret	 12			; 0000000cH
?GetViewVertMinMax_Sale@CViewMinMaxCalculator@@AAE_NABVCVertDisplayDataMinMaxInputData@@AAVCDisplayDataMinMax@@H@Z ENDP ; CViewMinMaxCalculator::GetViewVertMinMax_Sale
_TEXT	ENDS
; Function compile flags: /Ogtp
; File D:\git\src\IBK\IBK_DRFN\ProjSrc\SrcChartEx\ChartOCX\ChartObject\ViewMinMaxCalculator.cpp
;	COMDAT ?GetViewVertMinMax_PAndF@CViewMinMaxCalculator@@AAE_NABVCVertDisplayDataMinMaxInputData@@AAVCDisplayDataMinMax@@H@Z
_TEXT	SEGMENT
_temp$1 = -60						; size = 16
tv196 = -44						; size = 8
tv186 = -44						; size = 8
_displayAttributes$ = -36				; size = 8
_dMin$2 = -28						; size = 8
_dMax$3 = -20						; size = 8
_pSubGraphPacketList$1$ = -12				; size = 4
_this$1$ = -8						; size = 4
$T4 = -4						; size = 4
_pos$ = 8						; size = 4
_inputData$ = 8						; size = 4
$T5 = 12						; size = 4
_displayDataMinMax$ = 12				; size = 4
_p_bWithFullRange$ = 16					; size = 4
?GetViewVertMinMax_PAndF@CViewMinMaxCalculator@@AAE_NABVCVertDisplayDataMinMaxInputData@@AAVCDisplayDataMinMax@@H@Z PROC ; CViewMinMaxCalculator::GetViewVertMinMax_PAndF, COMDAT
; _this$ = ecx

; 237  : {

  00000	55		 push	 ebp
  00001	8b ec		 mov	 ebp, esp
  00003	83 ec 3c	 sub	 esp, 60			; 0000003cH
  00006	53		 push	 ebx
  00007	56		 push	 esi

; 238  : 	CSubGraphPacketList* pSubGraphPacketList = inputData.GetSubGraphPacketList();

  00008	8b 75 08	 mov	 esi, DWORD PTR _inputData$[ebp]
  0000b	89 4d f8	 mov	 DWORD PTR _this$1$[ebp], ecx
  0000e	8b ce		 mov	 ecx, esi
  00010	e8 00 00 00 00	 call	 ?GetSubGraphPacketList@CVertDisplayDataMinMaxInputData@@QBEPAVCSubGraphPacketList@@XZ ; CVertDisplayDataMinMaxInputData::GetSubGraphPacketList
  00015	8b d8		 mov	 ebx, eax
  00017	89 5d f4	 mov	 DWORD PTR _pSubGraphPacketList$1$[ebp], ebx

; 239  : 	if(pSubGraphPacketList == NULL)

  0001a	85 db		 test	 ebx, ebx
  0001c	75 0a		 jne	 SHORT $LN4@GetViewVer

; 240  : 		return false;

  0001e	5e		 pop	 esi
  0001f	32 c0		 xor	 al, al

; 253  : }

  00021	5b		 pop	 ebx
  00022	8b e5		 mov	 esp, ebp
  00024	5d		 pop	 ebp
  00025	c2 0c 00	 ret	 12			; 0000000cH
$LN4@GetViewVer:
  00028	57		 push	 edi

; 241  : 
; 242  : 	CDisplayAttributes displayAttributes = inputData.GetDisplayAttributes();

  00029	8d 45 dc	 lea	 eax, DWORD PTR _displayAttributes$[ebp]
  0002c	8b ce		 mov	 ecx, esi
  0002e	50		 push	 eax
  0002f	e8 00 00 00 00	 call	 ?GetDisplayAttributes@CVertDisplayDataMinMaxInputData@@QBE?AVCDisplayAttributes@@XZ ; CVertDisplayDataMinMaxInputData::GetDisplayAttributes

; 243  : 	POSITION pos = pSubGraphPacketList->GetHeadPosition();

  00034	8b cb		 mov	 ecx, ebx
  00036	e8 00 00 00 00	 call	 ?GetHeadPosition@CSubGraphPacketList@@QAEPAU__POSITION@@XZ ; CSubGraphPacketList::GetHeadPosition

; 244  : 	while(pos != NULL)

  0003b	8b 7d 0c	 mov	 edi, DWORD PTR _displayDataMinMax$[ebp]
  0003e	89 45 08	 mov	 DWORD PTR _pos$[ebp], eax
  00041	85 c0		 test	 eax, eax
  00043	0f 84 39 01 00
	00		 je	 $LN3@GetViewVer
  00049	0f 1f 80 00 00
	00 00		 npad	 7
$LL2@GetViewVer:

; 245  : 	{
; 246  : 		CPacket* pPacket = pSubGraphPacketList->GetNext(pos);

  00050	8d 45 08	 lea	 eax, DWORD PTR _pos$[ebp]
  00053	8b cb		 mov	 ecx, ebx
  00055	50		 push	 eax
  00056	e8 00 00 00 00	 call	 ?GetNext@CSubGraphPacketList@@QAEPAVCPacket@@AAPAU__POSITION@@@Z ; CSubGraphPacketList::GetNext
  0005b	8b d8		 mov	 ebx, eax

; 247  : 		assert(pPacket != NULL);
; 248  : 		if(pPacket->GetName().Find( _MTEXT( C0_OPEN)) < 0)

  0005d	8d 45 0c	 lea	 eax, DWORD PTR $T5[ebp]
  00060	50		 push	 eax
  00061	8b cb		 mov	 ecx, ebx
  00063	ff 15 00 00 00
	00		 call	 DWORD PTR __imp_?GetName@CPacket@@QAE?AV?$CStringT@DV?$StrTraitMFC_DLL@DV?$ChTraitsCRT@D@ATL@@@@@ATL@@XZ
  00069	8b 0d 54 00 00
	00		 mov	 ecx, DWORD PTR ?g_iMetaTable@@3VIMetaTable@@A+84
  0006f	6a 00		 push	 0
  00071	ff 71 08	 push	 DWORD PTR [ecx+8]
  00074	8b c8		 mov	 ecx, eax
  00076	ff 15 00 00 00
	00		 call	 DWORD PTR __imp_?Find@?$CStringT@DV?$StrTraitMFC_DLL@DV?$ChTraitsCRT@D@ATL@@@@@ATL@@QBEHPBDH@Z
  0007c	8d 4d 0c	 lea	 ecx, DWORD PTR $T5[ebp]
  0007f	8b f0		 mov	 esi, eax
  00081	ff 15 00 00 00
	00		 call	 DWORD PTR __imp_??1?$CStringT@DV?$StrTraitMFC_DLL@DV?$ChTraitsCRT@D@ATL@@@@@ATL@@QAE@XZ
  00087	85 f6		 test	 esi, esi
  00089	0f 89 e6 00 00
	00		 jns	 $LN13@GetViewVer

; 491  : 	if(pPacket == NULL)

  0008f	85 db		 test	 ebx, ebx
  00091	0f 84 de 00 00
	00		 je	 $LN13@GetViewVer

; 492  : 		return false;
; 493  : 
; 494  : 	// packetName = <xxx자료일자> 일 경우에는 min/max를 구하지 않는다!!
; 495  : 	if(pPacket->GetName().Find( _MTEXT( C0_DATE_TIME)) >= 0)

  00097	8d 45 fc	 lea	 eax, DWORD PTR $T4[ebp]
  0009a	8b cb		 mov	 ecx, ebx
  0009c	50		 push	 eax
  0009d	ff 15 00 00 00
	00		 call	 DWORD PTR __imp_?GetName@CPacket@@QAE?AV?$CStringT@DV?$StrTraitMFC_DLL@DV?$ChTraitsCRT@D@ATL@@@@@ATL@@XZ
  000a3	8b 0d 54 00 00
	00		 mov	 ecx, DWORD PTR ?g_iMetaTable@@3VIMetaTable@@A+84
  000a9	6a 00		 push	 0
  000ab	ff 31		 push	 DWORD PTR [ecx]
  000ad	8b c8		 mov	 ecx, eax
  000af	ff 15 00 00 00
	00		 call	 DWORD PTR __imp_?Find@?$CStringT@DV?$StrTraitMFC_DLL@DV?$ChTraitsCRT@D@ATL@@@@@ATL@@QBEHPBDH@Z
  000b5	8d 4d fc	 lea	 ecx, DWORD PTR $T4[ebp]
  000b8	8b f0		 mov	 esi, eax
  000ba	ff 15 00 00 00
	00		 call	 DWORD PTR __imp_??1?$CStringT@DV?$StrTraitMFC_DLL@DV?$ChTraitsCRT@D@ATL@@@@@ATL@@QAE@XZ
  000c0	85 f6		 test	 esi, esi
  000c2	0f 89 ad 00 00
	00		 jns	 $LN13@GetViewVer

; 496  : 		return false;
; 497  : 	
; 498  : 	CDisplayDataMinMax temp;

  000c8	8d 4d c4	 lea	 ecx, DWORD PTR _temp$1[ebp]
  000cb	ff 15 00 00 00
	00		 call	 DWORD PTR __imp_??0CDisplayDataMinMax@@QAE@XZ

; 499  : 	if(!GetPacketMinMax(pPacket, displayAttributes, bWithoutZero, temp, p_bWithFullRange))

  000d1	ff 75 10	 push	 DWORD PTR _p_bWithFullRange$[ebp]
  000d4	8b 4d f8	 mov	 ecx, DWORD PTR _this$1$[ebp]
  000d7	8d 45 c4	 lea	 eax, DWORD PTR _temp$1[ebp]
  000da	50		 push	 eax
  000db	6a 00		 push	 0
  000dd	8d 45 dc	 lea	 eax, DWORD PTR _displayAttributes$[ebp]
  000e0	50		 push	 eax
  000e1	53		 push	 ebx
  000e2	e8 00 00 00 00	 call	 ?GetPacketMinMax@CViewMinMaxCalculator@@ABE_NPAVCPacket@@ABVCDisplayAttributes@@_NAAVCDisplayDataMinMax@@H@Z ; CViewMinMaxCalculator::GetPacketMinMax
  000e7	84 c0		 test	 al, al
  000e9	0f 84 86 00 00
	00		 je	 $LN13@GetViewVer

; 500  : 		return false;
; 501  : 
; 502  : 	// Min/Max 구하는 packet이 처음이 아닐 경우에만 기존의 Min/Max와 비교한다.
; 503  : 	// (2006/11/19 - Seung-Won, Bae) Support Initializing State
; 504  : 	if( displayDataMinMax.IsInitialized())

  000ef	8b cf		 mov	 ecx, edi
  000f1	ff 15 00 00 00
	00		 call	 DWORD PTR __imp_?IsInitialized@CDisplayDataMinMax@@QBEHXZ
  000f7	8b cf		 mov	 ecx, edi
  000f9	85 c0		 test	 eax, eax
  000fb	74 6e		 je	 SHORT $LN12@GetViewVer

; 505  : 	{
; 506  : 		double dMin = displayDataMinMax.GetDisplayMin();

  000fd	ff 15 00 00 00
	00		 call	 DWORD PTR __imp_?GetDisplayMin@CDisplayDataMinMax@@QBENXZ
  00103	dd 5d e4	 fstp	 QWORD PTR _dMin$2[ebp]

; 507  : 		double dMax = displayDataMinMax.GetDisplayMax();

  00106	8b cf		 mov	 ecx, edi
  00108	ff 15 00 00 00
	00		 call	 DWORD PTR __imp_?GetDisplayMax@CDisplayDataMinMax@@QBENXZ
  0010e	dd 5d ec	 fstp	 QWORD PTR _dMax$3[ebp]

; 508  : 		if(temp.GetDisplayMin() < dMin) dMin = temp.GetDisplayMin();

  00111	8d 4d c4	 lea	 ecx, DWORD PTR _temp$1[ebp]
  00114	ff 15 00 00 00
	00		 call	 DWORD PTR __imp_?GetDisplayMin@CDisplayDataMinMax@@QBENXZ
  0011a	f2 0f 10 45 e4	 movsd	 xmm0, QWORD PTR _dMin$2[ebp]
  0011f	dd 5d d4	 fstp	 QWORD PTR tv196[ebp]
  00122	66 0f 2f 45 d4	 comisd	 xmm0, QWORD PTR tv196[ebp]
  00127	76 0c		 jbe	 SHORT $LN14@GetViewVer
  00129	8d 4d c4	 lea	 ecx, DWORD PTR _temp$1[ebp]
  0012c	ff 15 00 00 00
	00		 call	 DWORD PTR __imp_?GetDisplayMin@CDisplayDataMinMax@@QBENXZ
  00132	dd 5d e4	 fstp	 QWORD PTR _dMin$2[ebp]
$LN14@GetViewVer:

; 509  : 		if(temp.GetDisplayMax() > dMax) dMax = temp.GetDisplayMax();

  00135	8d 4d c4	 lea	 ecx, DWORD PTR _temp$1[ebp]
  00138	ff 15 00 00 00
	00		 call	 DWORD PTR __imp_?GetDisplayMax@CDisplayDataMinMax@@QBENXZ
  0013e	dd 5d d4	 fstp	 QWORD PTR tv186[ebp]
  00141	f2 0f 10 45 d4	 movsd	 xmm0, QWORD PTR tv186[ebp]
  00146	66 0f 2f 45 ec	 comisd	 xmm0, QWORD PTR _dMax$3[ebp]
  0014b	76 0c		 jbe	 SHORT $LN15@GetViewVer
  0014d	8d 4d c4	 lea	 ecx, DWORD PTR _temp$1[ebp]
  00150	ff 15 00 00 00
	00		 call	 DWORD PTR __imp_?GetDisplayMax@CDisplayDataMinMax@@QBENXZ
  00156	dd 5d ec	 fstp	 QWORD PTR _dMax$3[ebp]
$LN15@GetViewVer:

; 510  : 		displayDataMinMax.SetDisplayData( dMin, dMax);

  00159	8d 45 ec	 lea	 eax, DWORD PTR _dMax$3[ebp]
  0015c	8b cf		 mov	 ecx, edi
  0015e	50		 push	 eax
  0015f	8d 45 e4	 lea	 eax, DWORD PTR _dMin$2[ebp]
  00162	50		 push	 eax
  00163	ff 15 00 00 00
	00		 call	 DWORD PTR __imp_?SetDisplayData@CDisplayDataMinMax@@QAEXABN0@Z

; 511  : 	}

  00169	eb 0a		 jmp	 SHORT $LN13@GetViewVer
$LN12@GetViewVer:

; 512  : 	else displayDataMinMax = temp;

  0016b	8d 45 c4	 lea	 eax, DWORD PTR _temp$1[ebp]
  0016e	50		 push	 eax
  0016f	ff 15 00 00 00
	00		 call	 DWORD PTR __imp_??4CDisplayDataMinMax@@QAEAAV0@ABV0@@Z
$LN13@GetViewVer:

; 244  : 	while(pos != NULL)

  00175	83 7d 08 00	 cmp	 DWORD PTR _pos$[ebp], 0
  00179	8b 5d f4	 mov	 ebx, DWORD PTR _pSubGraphPacketList$1$[ebp]
  0017c	0f 85 ce fe ff
	ff		 jne	 $LL2@GetViewVer
$LN3@GetViewVer:

; 249  : 			GetViewVertMinMax_Packet(pPacket, displayAttributes, false, displayDataMinMax, p_bWithFullRange);
; 250  : 	}
; 251  : 
; 252  : 	return displayDataMinMax.IsInitialized() ? true : false;

  00182	8b cf		 mov	 ecx, edi
  00184	ff 15 00 00 00
	00		 call	 DWORD PTR __imp_?IsInitialized@CDisplayDataMinMax@@QBEHXZ
  0018a	5f		 pop	 edi
  0018b	85 c0		 test	 eax, eax
  0018d	5e		 pop	 esi
  0018e	0f 95 c0	 setne	 al

; 253  : }

  00191	5b		 pop	 ebx
  00192	8b e5		 mov	 esp, ebp
  00194	5d		 pop	 ebp
  00195	c2 0c 00	 ret	 12			; 0000000cH
?GetViewVertMinMax_PAndF@CViewMinMaxCalculator@@AAE_NABVCVertDisplayDataMinMaxInputData@@AAVCDisplayDataMinMax@@H@Z ENDP ; CViewMinMaxCalculator::GetViewVertMinMax_PAndF
_TEXT	ENDS
; Function compile flags: /Ogtp
; File D:\git\src\IBK\IBK_DRFN\ProjSrc\SrcChartEx\ChartOCX\ChartObject\ViewMinMaxCalculator.cpp
;	COMDAT ?GetViewVertMinMax_FuPAndF@CViewMinMaxCalculator@@AAEHABVCVertDisplayDataMinMaxInputData@@AAVCDisplayDataMinMax@@@Z
_TEXT	SEGMENT
_displayAttributes$ = -24				; size = 8
$T1 = -16						; size = 8
tv162 = -8						; size = 8
tv136 = -8						; size = 8
$T2 = -8						; size = 8
_pos$ = 8						; size = 4
_inputData$ = 8						; size = 4
_displayDataMinMax$ = 12				; size = 4
?GetViewVertMinMax_FuPAndF@CViewMinMaxCalculator@@AAEHABVCVertDisplayDataMinMaxInputData@@AAVCDisplayDataMinMax@@@Z PROC ; CViewMinMaxCalculator::GetViewVertMinMax_FuPAndF, COMDAT
; _this$ = ecx

; 213  : {

  00000	55		 push	 ebp
  00001	8b ec		 mov	 ebp, esp
  00003	83 ec 18	 sub	 esp, 24			; 00000018H
  00006	56		 push	 esi

; 214  : 	// 1. Sub Graph Packet List와 Display Attribute을 구한다.
; 215  : 	CSubGraphPacketList *pSubGraphPacketList = inputData.GetSubGraphPacketList();

  00007	8b 75 08	 mov	 esi, DWORD PTR _inputData$[ebp]
  0000a	8b ce		 mov	 ecx, esi
  0000c	57		 push	 edi
  0000d	e8 00 00 00 00	 call	 ?GetSubGraphPacketList@CVertDisplayDataMinMaxInputData@@QBEPAVCSubGraphPacketList@@XZ ; CVertDisplayDataMinMaxInputData::GetSubGraphPacketList
  00012	8b f8		 mov	 edi, eax

; 216  : 	if( !pSubGraphPacketList) return false;

  00014	85 ff		 test	 edi, edi
  00016	75 08		 jne	 SHORT $LN2@GetViewVer

; 234  : }

  00018	5f		 pop	 edi
  00019	5e		 pop	 esi
  0001a	8b e5		 mov	 esp, ebp
  0001c	5d		 pop	 ebp
  0001d	c2 08 00	 ret	 8
$LN2@GetViewVer:

; 217  : 	CDisplayAttributes displayAttributes = inputData.GetDisplayAttributes();

  00020	8d 45 e8	 lea	 eax, DWORD PTR _displayAttributes$[ebp]
  00023	8b ce		 mov	 ecx, esi
  00025	50		 push	 eax
  00026	e8 00 00 00 00	 call	 ?GetDisplayAttributes@CVertDisplayDataMinMaxInputData@@QBE?AVCDisplayAttributes@@XZ ; CVertDisplayDataMinMaxInputData::GetDisplayAttributes

; 218  : 
; 219  : 	// 2. 각 Packet을 모두 확인하여 Scale을 확보한다.
; 220  : 	// (2004.02.24, 배승원) 실시간 Tick P&F는 Scale의 급변을 제한하기 위하여,
; 221  : 	//		첫 두 Packet의 첫 Data로 각각 Min/Max 값을 제공한다.
; 222  : 	POSITION pos = pSubGraphPacketList->GetHeadPosition();

  0002b	8b cf		 mov	 ecx, edi
  0002d	e8 00 00 00 00	 call	 ?GetHeadPosition@CSubGraphPacketList@@QAEPAU__POSITION@@XZ ; CSubGraphPacketList::GetHeadPosition
  00032	89 45 08	 mov	 DWORD PTR _pos$[ebp], eax

; 223  : 	if( !pos) FALSE;
; 224  : 	CPacket* pPacket = pSubGraphPacketList->GetNext( pos);

  00035	8b cf		 mov	 ecx, edi
  00037	8d 45 08	 lea	 eax, DWORD PTR _pos$[ebp]
  0003a	50		 push	 eax
  0003b	e8 00 00 00 00	 call	 ?GetNext@CSubGraphPacketList@@QAEPAVCPacket@@AAPAU__POSITION@@@Z ; CSubGraphPacketList::GetNext

; 225  : 	int nMinX100 = int( pPacket->GetData( 0) * 100);

  00040	6a 00		 push	 0
  00042	8b c8		 mov	 ecx, eax
  00044	ff 15 00 00 00
	00		 call	 DWORD PTR __imp_?GetData@CPacket@@QAENH@Z
  0004a	dc 0d 00 00 00
	00		 fmul	 QWORD PTR __real@4059000000000000

; 226  : 	if( !pos) FALSE;
; 227  : 	pPacket = pSubGraphPacketList->GetNext( pos);

  00050	8d 45 08	 lea	 eax, DWORD PTR _pos$[ebp]
  00053	50		 push	 eax
  00054	8b cf		 mov	 ecx, edi
  00056	dd 5d f8	 fstp	 QWORD PTR tv162[ebp]
  00059	f2 0f 2c 75 f8	 cvttsd2si esi, QWORD PTR tv162[ebp]
  0005e	e8 00 00 00 00	 call	 ?GetNext@CSubGraphPacketList@@QAEPAVCPacket@@AAPAU__POSITION@@@Z ; CSubGraphPacketList::GetNext

; 228  : 	int nMaxX100 = int( pPacket->GetData( 0) * 100);

  00063	6a 00		 push	 0
  00065	8b c8		 mov	 ecx, eax
  00067	ff 15 00 00 00
	00		 call	 DWORD PTR __imp_?GetData@CPacket@@QAENH@Z

; 229  : 
; 230  : 	// (2004.02.22, 배승원) 위/아래로 1호가(0.05)씩을 추가하여 여백이 보이도록 한다.
; 231  : 	displayDataMinMax.SetDisplayData( ( nMinX100 - 5) / 100., ( nMaxX100 + 5) / 100.);

  0006d	b9 05 00 00 00	 mov	 ecx, 5
  00072	dc 0d 00 00 00
	00		 fmul	 QWORD PTR __real@c059000000000000
  00078	dd 5d f8	 fstp	 QWORD PTR tv136[ebp]
  0007b	f2 0f 2c 45 f8	 cvttsd2si eax, QWORD PTR tv136[ebp]
  00080	2b c8		 sub	 ecx, eax
  00082	8d 46 fb	 lea	 eax, DWORD PTR [esi-5]
  00085	66 0f 6e c1	 movd	 xmm0, ecx
  00089	f3 0f e6 c0	 cvtdq2pd xmm0, xmm0
  0008d	8b 4d 0c	 mov	 ecx, DWORD PTR _displayDataMinMax$[ebp]
  00090	f2 0f 5e 05 00
	00 00 00	 divsd	 xmm0, QWORD PTR __real@4059000000000000
  00098	f2 0f 11 45 f8	 movsd	 QWORD PTR $T2[ebp], xmm0
  0009d	66 0f 6e c0	 movd	 xmm0, eax
  000a1	8d 45 f8	 lea	 eax, DWORD PTR $T2[ebp]
  000a4	f3 0f e6 c0	 cvtdq2pd xmm0, xmm0
  000a8	50		 push	 eax
  000a9	8d 45 f0	 lea	 eax, DWORD PTR $T1[ebp]
  000ac	50		 push	 eax
  000ad	f2 0f 5e 05 00
	00 00 00	 divsd	 xmm0, QWORD PTR __real@4059000000000000
  000b5	f2 0f 11 45 f0	 movsd	 QWORD PTR $T1[ebp], xmm0
  000ba	ff 15 00 00 00
	00		 call	 DWORD PTR __imp_?SetDisplayData@CDisplayDataMinMax@@QAEXABN0@Z
  000c0	5f		 pop	 edi

; 232  : 
; 233  : 	return TRUE;

  000c1	b8 01 00 00 00	 mov	 eax, 1

; 234  : }

  000c6	5e		 pop	 esi
  000c7	8b e5		 mov	 esp, ebp
  000c9	5d		 pop	 ebp
  000ca	c2 08 00	 ret	 8
?GetViewVertMinMax_FuPAndF@CViewMinMaxCalculator@@AAEHABVCVertDisplayDataMinMaxInputData@@AAVCDisplayDataMinMax@@@Z ENDP ; CViewMinMaxCalculator::GetViewVertMinMax_FuPAndF
_TEXT	ENDS
; Function compile flags: /Ogtp
; File D:\git\src\IBK\IBK_DRFN\ProjSrc\SrcChartEx\ChartOCX\ChartObject\ViewMinMaxCalculator.cpp
;	COMDAT ?GetViewVertMinMax_EndPacket@CViewMinMaxCalculator@@AAE_NABVCVertDisplayDataMinMaxInputData@@AAVCDisplayDataMinMax@@HH@Z
_TEXT	SEGMENT
_dBase$1 = -24						; size = 8
$T2 = -24						; size = 8
_dMin$3 = -16						; size = 8
_dMax$4 = -8						; size = 8
_pPacket$1$ = 8						; size = 4
_inputData$ = 8						; size = 4
_displayDataMinMax$ = 12				; size = 4
_p_bWithFullRange$ = 16					; size = 4
_bDrawBaseLine$ = 20					; size = 4
?GetViewVertMinMax_EndPacket@CViewMinMaxCalculator@@AAE_NABVCVertDisplayDataMinMaxInputData@@AAVCDisplayDataMinMax@@HH@Z PROC ; CViewMinMaxCalculator::GetViewVertMinMax_EndPacket, COMDAT
; _this$ = ecx

; 171  : {

  00000	55		 push	 ebp
  00001	8b ec		 mov	 ebp, esp
  00003	83 ec 18	 sub	 esp, 24			; 00000018H
  00006	53		 push	 ebx
  00007	56		 push	 esi

; 172  : 	CPacket* pPacket = inputData.GetSubGraphPacketList()->GetTailPacket();

  00008	8b 75 08	 mov	 esi, DWORD PTR _inputData$[ebp]
  0000b	57		 push	 edi
  0000c	8b f9		 mov	 edi, ecx
  0000e	8b ce		 mov	 ecx, esi
  00010	e8 00 00 00 00	 call	 ?GetSubGraphPacketList@CVertDisplayDataMinMaxInputData@@QBEPAVCSubGraphPacketList@@XZ ; CVertDisplayDataMinMaxInputData::GetSubGraphPacketList
  00015	8b c8		 mov	 ecx, eax
  00017	e8 00 00 00 00	 call	 ?GetTailPacket@CSubGraphPacketList@@QAEPAVCPacket@@XZ ; CSubGraphPacketList::GetTailPacket

; 173  : 	if( !GetPacketMinMax(pPacket, inputData.GetDisplayAttributes(), false, displayDataMinMax, p_bWithFullRange)) return false;

  0001c	ff 75 10	 push	 DWORD PTR _p_bWithFullRange$[ebp]
  0001f	8b 5d 0c	 mov	 ebx, DWORD PTR _displayDataMinMax$[ebp]
  00022	8b ce		 mov	 ecx, esi
  00024	53		 push	 ebx
  00025	89 45 08	 mov	 DWORD PTR _pPacket$1$[ebp], eax
  00028	8d 45 e8	 lea	 eax, DWORD PTR $T2[ebp]
  0002b	6a 00		 push	 0
  0002d	50		 push	 eax
  0002e	e8 00 00 00 00	 call	 ?GetDisplayAttributes@CVertDisplayDataMinMaxInputData@@QBE?AVCDisplayAttributes@@XZ ; CVertDisplayDataMinMaxInputData::GetDisplayAttributes
  00033	8b 75 08	 mov	 esi, DWORD PTR _pPacket$1$[ebp]
  00036	8b cf		 mov	 ecx, edi
  00038	50		 push	 eax
  00039	56		 push	 esi
  0003a	e8 00 00 00 00	 call	 ?GetPacketMinMax@CViewMinMaxCalculator@@ABE_NPAVCPacket@@ABVCDisplayAttributes@@_NAAVCDisplayDataMinMax@@H@Z ; CViewMinMaxCalculator::GetPacketMinMax
  0003f	84 c0		 test	 al, al
  00041	75 09		 jne	 SHORT $LN2@GetViewVer

; 188  : 	}
; 189  : 	return true;
; 190  : }

  00043	5f		 pop	 edi
  00044	5e		 pop	 esi
  00045	5b		 pop	 ebx
  00046	8b e5		 mov	 esp, ebp
  00048	5d		 pop	 ebp
  00049	c2 10 00	 ret	 16			; 00000010H
$LN2@GetViewVer:

; 174  : 	// (2007/1/14 - Seung-Won, Bae) Include Base Line Value
; 175  : 	if( pPacket->IsUseStandardValue())

  0004c	6a 00		 push	 0
  0004e	8b ce		 mov	 ecx, esi
  00050	ff 15 00 00 00
	00		 call	 DWORD PTR __imp_?IsUseStandardValue@CPacket@@QBE_NH@Z
  00056	84 c0		 test	 al, al
  00058	0f 84 81 00 00
	00		 je	 $LN3@GetViewVer

; 176  : 	{
; 177  : 		double dMin = displayDataMinMax.GetDisplayMin();

  0005e	8b cb		 mov	 ecx, ebx
  00060	ff 15 00 00 00
	00		 call	 DWORD PTR __imp_?GetDisplayMin@CDisplayDataMinMax@@QBENXZ
  00066	dd 5d f0	 fstp	 QWORD PTR _dMin$3[ebp]

; 178  : 		double dMax = displayDataMinMax.GetDisplayMax();

  00069	8b cb		 mov	 ecx, ebx
  0006b	ff 15 00 00 00
	00		 call	 DWORD PTR __imp_?GetDisplayMax@CDisplayDataMinMax@@QBENXZ

; 179  : 		// 기준선 보임 환경설정과 Scale 자동포함 기능 - ojtaso (20071101)
; 180  : 		if(bDrawBaseLine)

  00071	83 7d 14 00	 cmp	 DWORD PTR _bDrawBaseLine$[ebp], 0
  00075	dd 5d f8	 fstp	 QWORD PTR _dMax$4[ebp]
  00078	74 55		 je	 SHORT $LN6@GetViewVer

; 181  : 		{
; 182  : 			double dBase = pPacket->GetStandardValue();

  0007a	6a 00		 push	 0
  0007c	8b ce		 mov	 ecx, esi
  0007e	ff 15 00 00 00
	00		 call	 DWORD PTR __imp_?GetStandardValue@CPacket@@QAENH@Z

; 183  : 			double dGap = (dMax - dMin) * (20. / 100.);

  00084	f2 0f 10 5d f8	 movsd	 xmm3, QWORD PTR _dMax$4[ebp]
  00089	f2 0f 10 55 f0	 movsd	 xmm2, QWORD PTR _dMin$3[ebp]
  0008e	0f 28 c3	 movaps	 xmm0, xmm3
  00091	f2 0f 5c c2	 subsd	 xmm0, xmm2
  00095	dd 5d e8	 fstp	 QWORD PTR _dBase$1[ebp]

; 184  : 			if( dBase < dMin && dBase > dMin - dGap) dMin = dBase;

  00098	f2 0f 10 4d e8	 movsd	 xmm1, QWORD PTR _dBase$1[ebp]
  0009d	66 0f 2f d1	 comisd	 xmm2, xmm1
  000a1	f2 0f 59 05 00
	00 00 00	 mulsd	 xmm0, QWORD PTR __real@3fc999999999999a
  000a9	76 0f		 jbe	 SHORT $LN5@GetViewVer
  000ab	f2 0f 5c d0	 subsd	 xmm2, xmm0
  000af	66 0f 2f ca	 comisd	 xmm1, xmm2
  000b3	76 05		 jbe	 SHORT $LN5@GetViewVer
  000b5	f2 0f 11 4d f0	 movsd	 QWORD PTR _dMin$3[ebp], xmm1
$LN5@GetViewVer:

; 185  : 			if( dMax < dBase && dMax + dGap > dBase) dMax = dBase;

  000ba	66 0f 2f cb	 comisd	 xmm1, xmm3
  000be	76 0f		 jbe	 SHORT $LN6@GetViewVer
  000c0	f2 0f 58 c3	 addsd	 xmm0, xmm3
  000c4	66 0f 2f c1	 comisd	 xmm0, xmm1
  000c8	76 05		 jbe	 SHORT $LN6@GetViewVer
  000ca	f2 0f 11 4d f8	 movsd	 QWORD PTR _dMax$4[ebp], xmm1
$LN6@GetViewVer:

; 186  : 		}
; 187  : 		displayDataMinMax.SetDisplayData( dMin, dMax);

  000cf	8d 45 f8	 lea	 eax, DWORD PTR _dMax$4[ebp]
  000d2	8b cb		 mov	 ecx, ebx
  000d4	50		 push	 eax
  000d5	8d 45 f0	 lea	 eax, DWORD PTR _dMin$3[ebp]
  000d8	50		 push	 eax
  000d9	ff 15 00 00 00
	00		 call	 DWORD PTR __imp_?SetDisplayData@CDisplayDataMinMax@@QAEXABN0@Z
$LN3@GetViewVer:

; 188  : 	}
; 189  : 	return true;
; 190  : }

  000df	5f		 pop	 edi
  000e0	5e		 pop	 esi
  000e1	b0 01		 mov	 al, 1
  000e3	5b		 pop	 ebx
  000e4	8b e5		 mov	 esp, ebp
  000e6	5d		 pop	 ebp
  000e7	c2 10 00	 ret	 16			; 00000010H
?GetViewVertMinMax_EndPacket@CViewMinMaxCalculator@@AAE_NABVCVertDisplayDataMinMaxInputData@@AAVCDisplayDataMinMax@@HH@Z ENDP ; CViewMinMaxCalculator::GetViewVertMinMax_EndPacket
_TEXT	ENDS
; Function compile flags: /Ogtp
; File D:\git\src\IBK\IBK_DRFN\ProjSrc\SrcChartEx\ChartOCX\ChartObject\ViewMinMaxCalculator.cpp
;	COMDAT ?GetViewVertMinMax_HeadPacket@CViewMinMaxCalculator@@AAE_NABVCVertDisplayDataMinMaxInputData@@AAVCDisplayDataMinMax@@H@Z
_TEXT	SEGMENT
$T1 = -8						; size = 8
_inputData$ = 8						; size = 4
_displayDataMinMax$ = 12				; size = 4
_p_bWithFullRange$ = 16					; size = 4
?GetViewVertMinMax_HeadPacket@CViewMinMaxCalculator@@AAE_NABVCVertDisplayDataMinMaxInputData@@AAVCDisplayDataMinMax@@H@Z PROC ; CViewMinMaxCalculator::GetViewVertMinMax_HeadPacket, COMDAT
; _this$ = ecx

; 164  : {

  00000	55		 push	 ebp
  00001	8b ec		 mov	 ebp, esp
  00003	83 ec 08	 sub	 esp, 8
  00006	53		 push	 ebx
  00007	8b d9		 mov	 ebx, ecx

; 165  : 	CPacket* pPacket = inputData.GetSubGraphPacketList()->GetHeadPacket();

  00009	8b 4d 08	 mov	 ecx, DWORD PTR _inputData$[ebp]
  0000c	56		 push	 esi
  0000d	e8 00 00 00 00	 call	 ?GetSubGraphPacketList@CVertDisplayDataMinMaxInputData@@QBEPAVCSubGraphPacketList@@XZ ; CVertDisplayDataMinMaxInputData::GetSubGraphPacketList
  00012	8b c8		 mov	 ecx, eax
  00014	e8 00 00 00 00	 call	 ?GetHeadPacket@CSubGraphPacketList@@QAEPAVCPacket@@XZ ; CSubGraphPacketList::GetHeadPacket

; 166  : 	return GetPacketMinMax(pPacket, inputData.GetDisplayAttributes(), false, displayDataMinMax, p_bWithFullRange);

  00019	ff 75 10	 push	 DWORD PTR _p_bWithFullRange$[ebp]
  0001c	8b 4d 08	 mov	 ecx, DWORD PTR _inputData$[ebp]
  0001f	8b f0		 mov	 esi, eax
  00021	ff 75 0c	 push	 DWORD PTR _displayDataMinMax$[ebp]
  00024	8d 45 f8	 lea	 eax, DWORD PTR $T1[ebp]
  00027	6a 00		 push	 0
  00029	50		 push	 eax
  0002a	e8 00 00 00 00	 call	 ?GetDisplayAttributes@CVertDisplayDataMinMaxInputData@@QBE?AVCDisplayAttributes@@XZ ; CVertDisplayDataMinMaxInputData::GetDisplayAttributes
  0002f	50		 push	 eax
  00030	56		 push	 esi
  00031	8b cb		 mov	 ecx, ebx
  00033	e8 00 00 00 00	 call	 ?GetPacketMinMax@CViewMinMaxCalculator@@ABE_NPAVCPacket@@ABVCDisplayAttributes@@_NAAVCDisplayDataMinMax@@H@Z ; CViewMinMaxCalculator::GetPacketMinMax
  00038	5e		 pop	 esi
  00039	5b		 pop	 ebx

; 167  : }

  0003a	8b e5		 mov	 esp, ebp
  0003c	5d		 pop	 ebp
  0003d	c2 0c 00	 ret	 12			; 0000000cH
?GetViewVertMinMax_HeadPacket@CViewMinMaxCalculator@@AAE_NABVCVertDisplayDataMinMaxInputData@@AAVCDisplayDataMinMax@@H@Z ENDP ; CViewMinMaxCalculator::GetViewVertMinMax_HeadPacket
_TEXT	ENDS
; Function compile flags: /Ogtp
; File D:\git\src\IBK\IBK_DRFN\ProjSrc\SrcChartEx\ChartOCX\ChartObject\ViewMinMaxCalculator.cpp
;	COMDAT ?GetViewVertMinMax_Indicate_General@CViewMinMaxCalculator@@AAE_NABVCVertDisplayDataMinMaxInputData@@AAVCDisplayDataMinMax@@H@Z
_TEXT	SEGMENT
_displayAttributes$ = -20				; size = 8
_this$1$ = -12						; size = 4
_pos$ = -8						; size = 4
_bWithoutZero$ = -4					; size = 1
$T1 = -4						; size = 4
$T2 = -4						; size = 4
$T3 = -4						; size = 4
_inputData$ = 8						; size = 4
_displayDataMinMax$ = 12				; size = 4
_p_bWithFullRange$ = 16					; size = 4
?GetViewVertMinMax_Indicate_General@CViewMinMaxCalculator@@AAE_NABVCVertDisplayDataMinMaxInputData@@AAVCDisplayDataMinMax@@H@Z PROC ; CViewMinMaxCalculator::GetViewVertMinMax_Indicate_General, COMDAT
; _this$ = ecx

; 311  : {

  00000	55		 push	 ebp
  00001	8b ec		 mov	 ebp, esp
  00003	83 ec 14	 sub	 esp, 20			; 00000014H
  00006	53		 push	 ebx

; 312  : 	CSubGraphPacketList* pSubGraphPacketList = inputData.GetSubGraphPacketList();

  00007	8b 5d 08	 mov	 ebx, DWORD PTR _inputData$[ebp]
  0000a	89 4d f4	 mov	 DWORD PTR _this$1$[ebp], ecx
  0000d	8b cb		 mov	 ecx, ebx
  0000f	57		 push	 edi
  00010	e8 00 00 00 00	 call	 ?GetSubGraphPacketList@CVertDisplayDataMinMaxInputData@@QBEPAVCSubGraphPacketList@@XZ ; CVertDisplayDataMinMaxInputData::GetSubGraphPacketList
  00015	8b f8		 mov	 edi, eax

; 313  : 	if(pSubGraphPacketList == NULL)

  00017	85 ff		 test	 edi, edi
  00019	75 0a		 jne	 SHORT $LN4@GetViewVer

; 314  : 		return false;

  0001b	5f		 pop	 edi
  0001c	32 c0		 xor	 al, al

; 328  : }

  0001e	5b		 pop	 ebx
  0001f	8b e5		 mov	 esp, ebp
  00021	5d		 pop	 ebp
  00022	c2 0c 00	 ret	 12			; 0000000cH
$LN4@GetViewVer:
  00025	56		 push	 esi

; 315  : 
; 316  : 	CDisplayAttributes displayAttributes = inputData.GetDisplayAttributes();

  00026	8d 45 ec	 lea	 eax, DWORD PTR _displayAttributes$[ebp]
  00029	8b cb		 mov	 ecx, ebx
  0002b	50		 push	 eax
  0002c	e8 00 00 00 00	 call	 ?GetDisplayAttributes@CVertDisplayDataMinMaxInputData@@QBE?AVCDisplayAttributes@@XZ ; CVertDisplayDataMinMaxInputData::GetDisplayAttributes

; 317  : 	bool bWithoutZero = DoesViewMinMaxWithoutZero(inputData.GetSubGraphData());

  00031	8b cb		 mov	 ecx, ebx
  00033	e8 00 00 00 00	 call	 ?GetSubGraphData@CVertDisplayDataMinMaxInputData@@QBEPAVCSubGraphData@@XZ ; CVertDisplayDataMinMaxInputData::GetSubGraphData
  00038	8b f0		 mov	 esi, eax

; 602  : 	if(pSubGraphData == NULL)

  0003a	85 f6		 test	 esi, esi
  0003c	75 06		 jne	 SHORT $LN10@GetViewVer
$LN15@GetViewVer:

; 318  : 	POSITION pos = pSubGraphPacketList->GetHeadPosition();

  0003e	c6 45 fc 00	 mov	 BYTE PTR _bWithoutZero$[ebp], 0
  00042	eb 58		 jmp	 SHORT $LN7@GetViewVer
$LN10@GetViewVer:

; 606  : 	switch( pSubGraphData->GetType())

  00044	8b ce		 mov	 ecx, esi
  00046	ff 15 00 00 00
	00		 call	 DWORD PTR __imp_?GetType@CSubGraphDataBase@@QBE?AW4GRAPHTYPE@CGraphBaseData@@XZ
  0004c	83 e8 00	 sub	 eax, 0
  0004f	74 38		 je	 SHORT $LN16@GetViewVer
  00051	83 e8 01	 sub	 eax, 1
  00054	74 1c		 je	 SHORT $LN13@GetViewVer
  00056	83 e8 01	 sub	 eax, 1
  00059	75 e3		 jne	 SHORT $LN15@GetViewVer

; 607  : 	{
; 608  : 		case CGraphBaseData::Bar_Type:
; 609  : 			if (pSubGraphData->GetDrawStyle().GetGraphBarDrawStyle() == CGraphBaseData::NonZero_DotBar_Draw)

  0005b	8d 45 fc	 lea	 eax, DWORD PTR $T3[ebp]
  0005e	8b ce		 mov	 ecx, esi
  00060	50		 push	 eax
  00061	ff 15 00 00 00
	00		 call	 DWORD PTR __imp_?GetDrawStyle@CSubGraphDataBase@@QBE?AVCGraphDrawStyle@@XZ
  00067	83 38 02	 cmp	 DWORD PTR [eax], 2
  0006a	75 d2		 jne	 SHORT $LN15@GetViewVer

; 610  : 				return true;

  0006c	c6 45 fc 01	 mov	 BYTE PTR _bWithoutZero$[ebp], 1
  00070	eb 2a		 jmp	 SHORT $LN7@GetViewVer
$LN13@GetViewVer:

; 611  : 			else break;
; 612  : 
; 613  : 		case CGraphBaseData::Line_Type:
; 614  : 			if (pSubGraphData->GetStyle().GetGraphLineStyle() == CGraphBaseData::NonZeroLine)

  00072	8d 45 fc	 lea	 eax, DWORD PTR $T2[ebp]
  00075	8b ce		 mov	 ecx, esi
  00077	50		 push	 eax
  00078	ff 15 00 00 00
	00		 call	 DWORD PTR __imp_?GetStyle@CSubGraphDataBase@@QBE?AVCGraphStyle@@XZ
  0007e	83 38 05	 cmp	 DWORD PTR [eax], 5
  00081	75 bb		 jne	 SHORT $LN15@GetViewVer

; 615  : 				return true;

  00083	c6 45 fc 01	 mov	 BYTE PTR _bWithoutZero$[ebp], 1
  00087	eb 13		 jmp	 SHORT $LN7@GetViewVer
$LN16@GetViewVer:

; 616  : 			else break;
; 617  : 
; 618  : 		// (2007/2/6 - Seung-Won, Bae) Check Candle Stick Chart for avoiding Zero Open/High/Low in Base or Market Close Price.
; 619  : 		//		Caution! It is Koscom Only. Use EXCEPTIONVALUE Help Message in Packet.
; 620  : 		case CGraphBaseData::Bong_Type:
; 621  : 			// (2009/1/17 - Seung-Won, Bae) Do not check 'KOSCOM' name. (on sometimes, CWinApp can not be found.)
; 622  : 			return ( pSubGraphData->GetStyle().GetGraphBongStyle() != CGraphBaseData::LineBong);

  00089	8d 45 fc	 lea	 eax, DWORD PTR $T1[ebp]
  0008c	8b ce		 mov	 ecx, esi
  0008e	50		 push	 eax
  0008f	ff 15 00 00 00
	00		 call	 DWORD PTR __imp_?GetStyle@CSubGraphDataBase@@QBE?AVCGraphStyle@@XZ
  00095	83 38 02	 cmp	 DWORD PTR [eax], 2
  00098	0f 95 45 fc	 setne	 BYTE PTR _bWithoutZero$[ebp]
$LN7@GetViewVer:

; 318  : 	POSITION pos = pSubGraphPacketList->GetHeadPosition();

  0009c	8b cf		 mov	 ecx, edi
  0009e	e8 00 00 00 00	 call	 ?GetHeadPosition@CSubGraphPacketList@@QAEPAU__POSITION@@XZ ; CSubGraphPacketList::GetHeadPosition

; 319  : 	while(pos != NULL)

  000a3	8b 75 0c	 mov	 esi, DWORD PTR _displayDataMinMax$[ebp]
  000a6	89 45 f8	 mov	 DWORD PTR _pos$[ebp], eax
  000a9	85 c0		 test	 eax, eax
  000ab	74 2a		 je	 SHORT $LN3@GetViewVer
  000ad	8b 5d f4	 mov	 ebx, DWORD PTR _this$1$[ebp]
$LL2@GetViewVer:

; 320  : 	{
; 321  : 		CPacket* pPacket = pSubGraphPacketList->GetNext(pos);

  000b0	8d 45 f8	 lea	 eax, DWORD PTR _pos$[ebp]
  000b3	8b cf		 mov	 ecx, edi
  000b5	50		 push	 eax
  000b6	e8 00 00 00 00	 call	 ?GetNext@CSubGraphPacketList@@QAEPAVCPacket@@AAPAU__POSITION@@@Z ; CSubGraphPacketList::GetNext

; 322  : 		assert(pPacket != NULL);
; 323  : 		GetViewVertMinMax_Packet(pPacket, displayAttributes, bWithoutZero, displayDataMinMax, p_bWithFullRange);

  000bb	ff 75 10	 push	 DWORD PTR _p_bWithFullRange$[ebp]
  000be	8d 4d ec	 lea	 ecx, DWORD PTR _displayAttributes$[ebp]
  000c1	56		 push	 esi
  000c2	ff 75 fc	 push	 DWORD PTR _bWithoutZero$[ebp]
  000c5	51		 push	 ecx
  000c6	50		 push	 eax
  000c7	8b cb		 mov	 ecx, ebx
  000c9	e8 00 00 00 00	 call	 ?GetViewVertMinMax_Packet@CViewMinMaxCalculator@@AAE_NPAVCPacket@@ABVCDisplayAttributes@@_NAAVCDisplayDataMinMax@@H@Z ; CViewMinMaxCalculator::GetViewVertMinMax_Packet
  000ce	83 7d f8 00	 cmp	 DWORD PTR _pos$[ebp], 0
  000d2	75 dc		 jne	 SHORT $LL2@GetViewVer
  000d4	8b 5d 08	 mov	 ebx, DWORD PTR _inputData$[ebp]
$LN3@GetViewVer:

; 324  : 	}
; 325  : 	if( displayDataMinMax.IsInitialized()) ChangeViewVertMinMax_Indicator(inputData, displayDataMinMax);

  000d7	8b 3d 00 00 00
	00		 mov	 edi, DWORD PTR __imp_?IsInitialized@CDisplayDataMinMax@@QBEHXZ
  000dd	8b ce		 mov	 ecx, esi
  000df	ff d7		 call	 edi
  000e1	85 c0		 test	 eax, eax
  000e3	74 11		 je	 SHORT $LN5@GetViewVer

; 436  : 	return ChangeViewVertMinMax_GraphTypeOrStyle(inputData.GetSubGraphData(), displayDataMinMax);

  000e5	56		 push	 esi
  000e6	8b cb		 mov	 ecx, ebx
  000e8	e8 00 00 00 00	 call	 ?GetSubGraphData@CVertDisplayDataMinMaxInputData@@QBEPAVCSubGraphData@@XZ ; CVertDisplayDataMinMaxInputData::GetSubGraphData
  000ed	8b 4d f4	 mov	 ecx, DWORD PTR _this$1$[ebp]
  000f0	50		 push	 eax
  000f1	e8 00 00 00 00	 call	 ?ChangeViewVertMinMax_GraphTypeOrStyle@CViewMinMaxCalculator@@AAE_NPAVCSubGraphData@@AAVCDisplayDataMinMax@@@Z ; CViewMinMaxCalculator::ChangeViewVertMinMax_GraphTypeOrStyle
$LN5@GetViewVer:

; 326  : 
; 327  : 	return displayDataMinMax.IsInitialized() ? true : false;

  000f6	8b ce		 mov	 ecx, esi
  000f8	ff d7		 call	 edi
  000fa	5e		 pop	 esi
  000fb	85 c0		 test	 eax, eax
  000fd	5f		 pop	 edi
  000fe	0f 95 c0	 setne	 al

; 328  : }

  00101	5b		 pop	 ebx
  00102	8b e5		 mov	 esp, ebp
  00104	5d		 pop	 ebp
  00105	c2 0c 00	 ret	 12			; 0000000cH
?GetViewVertMinMax_Indicate_General@CViewMinMaxCalculator@@AAE_NABVCVertDisplayDataMinMaxInputData@@AAVCDisplayDataMinMax@@H@Z ENDP ; CViewMinMaxCalculator::GetViewVertMinMax_Indicate_General
_TEXT	ENDS
; Function compile flags: /Ogtp
; File D:\git\src\IBK\IBK_DRFN\ProjSrc\SrcChartEx\ChartOCX\ChartObject\ViewMinMaxCalculator.cpp
; File C:\Program Files (x86)\Microsoft Visual Studio\2019\Community\VC\Tools\MSVC\14.29.30133\atlmfc\include\cstringt.h
; File D:\git\src\IBK\IBK_DRFN\ProjSrc\SrcChartEx\ChartOCX\ChartObject\ViewMinMaxCalculator.cpp
; File C:\Program Files (x86)\Microsoft Visual Studio\2019\Community\VC\Tools\MSVC\14.29.30133\atlmfc\include\cstringt.h
; File D:\git\src\IBK\IBK_DRFN\ProjSrc\SrcChartEx\ChartOCX\ChartObject\ViewMinMaxCalculator.cpp
; File C:\Program Files (x86)\Microsoft Visual Studio\2019\Community\VC\Tools\MSVC\14.29.30133\atlmfc\include\atlsimpstr.h
; File D:\git\src\IBK\IBK_DRFN\ProjSrc\SrcChartEx\ChartOCX\ChartObject\ViewMinMaxCalculator.cpp
; File C:\Program Files (x86)\Microsoft Visual Studio\2019\Community\VC\Tools\MSVC\14.29.30133\atlmfc\include\atlsimpstr.h
; File D:\git\src\IBK\IBK_DRFN\ProjSrc\SrcChartEx\ChartOCX\ChartObject\ViewMinMaxCalculator.cpp
;	COMDAT ?GetViewVertMinMax_Indicate_General_Gap@CViewMinMaxCalculator@@AAE_NABVCVertDisplayDataMinMaxInputData@@AAVCDisplayDataMinMax@@H@Z
_TEXT	SEGMENT
_displayAttributes$2 = -56				; size = 8
_dGap$ = -48						; size = 8
$T3 = -40						; size = 4
$T4 = -36						; size = 4
$T5 = -32						; size = 4
_pSubGraphPacketList$1$ = -28				; size = 4
$T6 = -28						; size = 4
_this$1$ = -24						; size = 4
_pos$7 = -20						; size = 4
_bWithoutZero$8 = -16					; size = 1
__$EHRec$ = -12						; size = 12
$T9 = 8							; size = 4
_inputData$ = 8						; size = 4
$T10 = 12						; size = 4
_displayDataMinMax$ = 12				; size = 4
$T11 = 16						; size = 4
_p_bWithFullRange$ = 16					; size = 4
?GetViewVertMinMax_Indicate_General_Gap@CViewMinMaxCalculator@@AAE_NABVCVertDisplayDataMinMaxInputData@@AAVCDisplayDataMinMax@@H@Z PROC ; CViewMinMaxCalculator::GetViewVertMinMax_Indicate_General_Gap, COMDAT
; _this$ = ecx

; 295  : {

  00000	55		 push	 ebp
  00001	8b ec		 mov	 ebp, esp
  00003	6a ff		 push	 -1
  00005	68 00 00 00 00	 push	 __ehhandler$?GetViewVertMinMax_Indicate_General_Gap@CViewMinMaxCalculator@@AAE_NABVCVertDisplayDataMinMaxInputData@@AAVCDisplayDataMinMax@@H@Z
  0000a	64 a1 00 00 00
	00		 mov	 eax, DWORD PTR fs:0
  00010	50		 push	 eax
  00011	83 ec 2c	 sub	 esp, 44			; 0000002cH
  00014	53		 push	 ebx
  00015	56		 push	 esi
  00016	57		 push	 edi
  00017	a1 00 00 00 00	 mov	 eax, DWORD PTR ___security_cookie
  0001c	33 c5		 xor	 eax, ebp
  0001e	50		 push	 eax
  0001f	8d 45 f4	 lea	 eax, DWORD PTR __$EHRec$[ebp]
  00022	64 a3 00 00 00
	00		 mov	 DWORD PTR fs:0, eax
  00028	89 4d e8	 mov	 DWORD PTR _this$1$[ebp], ecx

; 312  : 	CSubGraphPacketList* pSubGraphPacketList = inputData.GetSubGraphPacketList();

  0002b	8b 5d 08	 mov	 ebx, DWORD PTR _inputData$[ebp]
  0002e	8b cb		 mov	 ecx, ebx
  00030	e8 00 00 00 00	 call	 ?GetSubGraphPacketList@CVertDisplayDataMinMaxInputData@@QBEPAVCSubGraphPacketList@@XZ ; CVertDisplayDataMinMaxInputData::GetSubGraphPacketList
  00035	89 45 e4	 mov	 DWORD PTR _pSubGraphPacketList$1$[ebp], eax

; 313  : 	if(pSubGraphPacketList == NULL)

  00038	85 c0		 test	 eax, eax
  0003a	0f 84 d8 01 00
	00		 je	 $LN54@GetViewVer

; 314  : 		return false;
; 315  : 
; 316  : 	CDisplayAttributes displayAttributes = inputData.GetDisplayAttributes();

  00040	8d 45 c8	 lea	 eax, DWORD PTR _displayAttributes$2[ebp]
  00043	8b cb		 mov	 ecx, ebx
  00045	50		 push	 eax
  00046	e8 00 00 00 00	 call	 ?GetDisplayAttributes@CVertDisplayDataMinMaxInputData@@QBE?AVCDisplayAttributes@@XZ ; CVertDisplayDataMinMaxInputData::GetDisplayAttributes

; 317  : 	bool bWithoutZero = DoesViewMinMaxWithoutZero(inputData.GetSubGraphData());

  0004b	8b cb		 mov	 ecx, ebx
  0004d	e8 00 00 00 00	 call	 ?GetSubGraphData@CVertDisplayDataMinMaxInputData@@QBEPAVCSubGraphData@@XZ ; CVertDisplayDataMinMaxInputData::GetSubGraphData

; 602  : 	if(pSubGraphData == NULL)

  00052	8b 3d 00 00 00
	00		 mov	 edi, DWORD PTR __imp_?GetStyle@CSubGraphDataBase@@QBE?AVCGraphStyle@@XZ

; 317  : 	bool bWithoutZero = DoesViewMinMaxWithoutZero(inputData.GetSubGraphData());

  00058	8b f0		 mov	 esi, eax

; 602  : 	if(pSubGraphData == NULL)

  0005a	85 f6		 test	 esi, esi
  0005c	75 06		 jne	 SHORT $LN14@GetViewVer
$LN19@GetViewVer:

; 318  : 	POSITION pos = pSubGraphPacketList->GetHeadPosition();

  0005e	c6 45 f0 00	 mov	 BYTE PTR _bWithoutZero$8[ebp], 0
  00062	eb 50		 jmp	 SHORT $LN11@GetViewVer
$LN14@GetViewVer:

; 606  : 	switch( pSubGraphData->GetType())

  00064	8b ce		 mov	 ecx, esi
  00066	ff 15 00 00 00
	00		 call	 DWORD PTR __imp_?GetType@CSubGraphDataBase@@QBE?AW4GRAPHTYPE@CGraphBaseData@@XZ
  0006c	83 e8 00	 sub	 eax, 0
  0006f	74 34		 je	 SHORT $LN20@GetViewVer
  00071	83 e8 01	 sub	 eax, 1
  00074	74 1c		 je	 SHORT $LN17@GetViewVer
  00076	83 e8 01	 sub	 eax, 1
  00079	75 e3		 jne	 SHORT $LN19@GetViewVer

; 607  : 	{
; 608  : 		case CGraphBaseData::Bar_Type:
; 609  : 			if (pSubGraphData->GetDrawStyle().GetGraphBarDrawStyle() == CGraphBaseData::NonZero_DotBar_Draw)

  0007b	8d 45 e0	 lea	 eax, DWORD PTR $T5[ebp]
  0007e	8b ce		 mov	 ecx, esi
  00080	50		 push	 eax
  00081	ff 15 00 00 00
	00		 call	 DWORD PTR __imp_?GetDrawStyle@CSubGraphDataBase@@QBE?AVCGraphDrawStyle@@XZ
  00087	83 38 02	 cmp	 DWORD PTR [eax], 2
  0008a	75 d2		 jne	 SHORT $LN19@GetViewVer

; 610  : 				return true;

  0008c	c6 45 f0 01	 mov	 BYTE PTR _bWithoutZero$8[ebp], 1
  00090	eb 22		 jmp	 SHORT $LN11@GetViewVer
$LN17@GetViewVer:

; 611  : 			else break;
; 612  : 
; 613  : 		case CGraphBaseData::Line_Type:
; 614  : 			if (pSubGraphData->GetStyle().GetGraphLineStyle() == CGraphBaseData::NonZeroLine)

  00092	8d 45 dc	 lea	 eax, DWORD PTR $T4[ebp]
  00095	8b ce		 mov	 ecx, esi
  00097	50		 push	 eax
  00098	ff d7		 call	 edi
  0009a	83 38 05	 cmp	 DWORD PTR [eax], 5
  0009d	75 bf		 jne	 SHORT $LN19@GetViewVer

; 615  : 				return true;

  0009f	c6 45 f0 01	 mov	 BYTE PTR _bWithoutZero$8[ebp], 1
  000a3	eb 0f		 jmp	 SHORT $LN11@GetViewVer
$LN20@GetViewVer:

; 616  : 			else break;
; 617  : 
; 618  : 		// (2007/2/6 - Seung-Won, Bae) Check Candle Stick Chart for avoiding Zero Open/High/Low in Base or Market Close Price.
; 619  : 		//		Caution! It is Koscom Only. Use EXCEPTIONVALUE Help Message in Packet.
; 620  : 		case CGraphBaseData::Bong_Type:
; 621  : 			// (2009/1/17 - Seung-Won, Bae) Do not check 'KOSCOM' name. (on sometimes, CWinApp can not be found.)
; 622  : 			return ( pSubGraphData->GetStyle().GetGraphBongStyle() != CGraphBaseData::LineBong);

  000a5	8d 45 d8	 lea	 eax, DWORD PTR $T3[ebp]
  000a8	8b ce		 mov	 ecx, esi
  000aa	50		 push	 eax
  000ab	ff d7		 call	 edi
  000ad	83 38 02	 cmp	 DWORD PTR [eax], 2
  000b0	0f 95 45 f0	 setne	 BYTE PTR _bWithoutZero$8[ebp]
$LN11@GetViewVer:

; 318  : 	POSITION pos = pSubGraphPacketList->GetHeadPosition();

  000b4	8b 75 e4	 mov	 esi, DWORD PTR _pSubGraphPacketList$1$[ebp]
  000b7	8b ce		 mov	 ecx, esi
  000b9	e8 00 00 00 00	 call	 ?GetHeadPosition@CSubGraphPacketList@@QAEPAU__POSITION@@XZ ; CSubGraphPacketList::GetHeadPosition

; 319  : 	while(pos != NULL)

  000be	8b 7d 0c	 mov	 edi, DWORD PTR _displayDataMinMax$[ebp]
  000c1	89 45 ec	 mov	 DWORD PTR _pos$7[ebp], eax
  000c4	85 c0		 test	 eax, eax
  000c6	74 2f		 je	 SHORT $LN7@GetViewVer
  000c8	8b 5d e8	 mov	 ebx, DWORD PTR _this$1$[ebp]
  000cb	0f 1f 44 00 00	 npad	 5
$LL6@GetViewVer:

; 320  : 	{
; 321  : 		CPacket* pPacket = pSubGraphPacketList->GetNext(pos);

  000d0	8d 45 ec	 lea	 eax, DWORD PTR _pos$7[ebp]
  000d3	8b ce		 mov	 ecx, esi
  000d5	50		 push	 eax
  000d6	e8 00 00 00 00	 call	 ?GetNext@CSubGraphPacketList@@QAEPAVCPacket@@AAPAU__POSITION@@@Z ; CSubGraphPacketList::GetNext

; 322  : 		assert(pPacket != NULL);
; 323  : 		GetViewVertMinMax_Packet(pPacket, displayAttributes, bWithoutZero, displayDataMinMax, p_bWithFullRange);

  000db	ff 75 10	 push	 DWORD PTR _p_bWithFullRange$[ebp]
  000de	8d 4d c8	 lea	 ecx, DWORD PTR _displayAttributes$2[ebp]
  000e1	57		 push	 edi
  000e2	ff 75 f0	 push	 DWORD PTR _bWithoutZero$8[ebp]
  000e5	51		 push	 ecx
  000e6	50		 push	 eax
  000e7	8b cb		 mov	 ecx, ebx
  000e9	e8 00 00 00 00	 call	 ?GetViewVertMinMax_Packet@CViewMinMaxCalculator@@AAE_NPAVCPacket@@ABVCDisplayAttributes@@_NAAVCDisplayDataMinMax@@H@Z ; CViewMinMaxCalculator::GetViewVertMinMax_Packet
  000ee	83 7d ec 00	 cmp	 DWORD PTR _pos$7[ebp], 0
  000f2	75 dc		 jne	 SHORT $LL6@GetViewVer
  000f4	8b 5d 08	 mov	 ebx, DWORD PTR _inputData$[ebp]
$LN7@GetViewVer:

; 324  : 	}
; 325  : 	if( displayDataMinMax.IsInitialized()) ChangeViewVertMinMax_Indicator(inputData, displayDataMinMax);

  000f7	8b 35 00 00 00
	00		 mov	 esi, DWORD PTR __imp_?IsInitialized@CDisplayDataMinMax@@QBEHXZ
  000fd	8b cf		 mov	 ecx, edi
  000ff	ff d6		 call	 esi
  00101	85 c0		 test	 eax, eax
  00103	74 11		 je	 SHORT $LN9@GetViewVer

; 436  : 	return ChangeViewVertMinMax_GraphTypeOrStyle(inputData.GetSubGraphData(), displayDataMinMax);

  00105	57		 push	 edi
  00106	8b cb		 mov	 ecx, ebx
  00108	e8 00 00 00 00	 call	 ?GetSubGraphData@CVertDisplayDataMinMaxInputData@@QBEPAVCSubGraphData@@XZ ; CVertDisplayDataMinMaxInputData::GetSubGraphData
  0010d	8b 4d e8	 mov	 ecx, DWORD PTR _this$1$[ebp]
  00110	50		 push	 eax
  00111	e8 00 00 00 00	 call	 ?ChangeViewVertMinMax_GraphTypeOrStyle@CViewMinMaxCalculator@@AAE_NPAVCSubGraphData@@AAVCDisplayDataMinMax@@@Z ; CViewMinMaxCalculator::ChangeViewVertMinMax_GraphTypeOrStyle
$LN9@GetViewVer:

; 327  : 	return displayDataMinMax.IsInitialized() ? true : false;

  00116	8b cf		 mov	 ecx, edi
  00118	ff d6		 call	 esi

; 296  : 	if(!GetViewVertMinMax_Indicate_General(inputData, displayDataMinMax, p_bWithFullRange))

  0011a	85 c0		 test	 eax, eax
  0011c	0f 84 f6 00 00
	00		 je	 $LN54@GetViewVer

; 632  : 	if(inputData.GetIndicatorName() == _MTEXT( C2_MINI_INDEX_CHART))

  00122	8d 45 08	 lea	 eax, DWORD PTR $T9[ebp]
  00125	8b cb		 mov	 ecx, ebx
  00127	50		 push	 eax
  00128	e8 00 00 00 00	 call	 ?GetIndicatorName@CVertDisplayDataMinMaxInputData@@QBE?AV?$CStringT@DV?$StrTraitMFC_DLL@DV?$ChTraitsCRT@D@ATL@@@@@ATL@@XZ ; CVertDisplayDataMinMaxInputData::GetIndicatorName
  0012d	8b 0d 54 00 00
	00		 mov	 ecx, DWORD PTR ?g_iMetaTable@@3VIMetaTable@@A+84
  00133	c7 45 fc 00 00
	00 00		 mov	 DWORD PTR __$EHRec$[ebp+8], 0
; File C:\Program Files (x86)\Microsoft Visual Studio\2019\Community\VC\Tools\MSVC\14.29.30133\atlmfc\include\cstringt.h

; 2486 : 		return(str1.Compare(psz2) == 0);

  0013a	ff b1 94 0c 00
	00		 push	 DWORD PTR [ecx+3220]
  00140	8b c8		 mov	 ecx, eax
  00142	ff 15 00 00 00
	00		 call	 DWORD PTR __imp_?Compare@?$CStringT@DV?$StrTraitMFC_DLL@DV?$ChTraitsCRT@D@ATL@@@@@ATL@@QBEHPBD@Z
; File D:\git\src\IBK\IBK_DRFN\ProjSrc\SrcChartEx\ChartOCX\ChartObject\ViewMinMaxCalculator.cpp

; 632  : 	if(inputData.GetIndicatorName() == _MTEXT( C2_MINI_INDEX_CHART))

  00148	8d 4d 08	 lea	 ecx, DWORD PTR $T9[ebp]
  0014b	c7 45 fc ff ff
	ff ff		 mov	 DWORD PTR __$EHRec$[ebp+8], -1
; File C:\Program Files (x86)\Microsoft Visual Studio\2019\Community\VC\Tools\MSVC\14.29.30133\atlmfc\include\cstringt.h

; 2486 : 		return(str1.Compare(psz2) == 0);

  00152	8b f0		 mov	 esi, eax
; File D:\git\src\IBK\IBK_DRFN\ProjSrc\SrcChartEx\ChartOCX\ChartObject\ViewMinMaxCalculator.cpp

; 632  : 	if(inputData.GetIndicatorName() == _MTEXT( C2_MINI_INDEX_CHART))

  00154	ff 15 00 00 00
	00		 call	 DWORD PTR __imp_??1?$CStringT@DV?$StrTraitMFC_DLL@DV?$ChTraitsCRT@D@ATL@@@@@ATL@@QAE@XZ
  0015a	85 f6		 test	 esi, esi
  0015c	0f 84 82 00 00
	00		 je	 $LN3@GetViewVer

; 635  : 	if(!inputData.GetIndicatorName().IsEmpty())

  00162	8d 45 0c	 lea	 eax, DWORD PTR $T10[ebp]
  00165	8b cb		 mov	 ecx, ebx
  00167	50		 push	 eax
  00168	e8 00 00 00 00	 call	 ?GetIndicatorName@CVertDisplayDataMinMaxInputData@@QBE?AV?$CStringT@DV?$StrTraitMFC_DLL@DV?$ChTraitsCRT@D@ATL@@@@@ATL@@XZ ; CVertDisplayDataMinMaxInputData::GetIndicatorName
  0016d	8d 4d 0c	 lea	 ecx, DWORD PTR $T10[ebp]
; File C:\Program Files (x86)\Microsoft Visual Studio\2019\Community\VC\Tools\MSVC\14.29.30133\atlmfc\include\atlsimpstr.h

; 519  : 		return( GetData()->nDataLength );

  00170	8b 00		 mov	 eax, DWORD PTR [eax]
  00172	8b 70 f4	 mov	 esi, DWORD PTR [eax-12]
; File D:\git\src\IBK\IBK_DRFN\ProjSrc\SrcChartEx\ChartOCX\ChartObject\ViewMinMaxCalculator.cpp

; 635  : 	if(!inputData.GetIndicatorName().IsEmpty())

  00175	ff 15 00 00 00
	00		 call	 DWORD PTR __imp_??1?$CStringT@DV?$StrTraitMFC_DLL@DV?$ChTraitsCRT@D@ATL@@@@@ATL@@QAE@XZ
; File C:\Program Files (x86)\Microsoft Visual Studio\2019\Community\VC\Tools\MSVC\14.29.30133\atlmfc\include\atlsimpstr.h

; 533  : 		return( GetLength() == 0 );

  0017b	85 f6		 test	 esi, esi
; File D:\git\src\IBK\IBK_DRFN\ProjSrc\SrcChartEx\ChartOCX\ChartObject\ViewMinMaxCalculator.cpp

; 635  : 	if(!inputData.GetIndicatorName().IsEmpty())

  0017d	75 4f		 jne	 SHORT $LN40@GetViewVer

; 636  : 		return false;
; 637  : 
; 638  : 	// subGraph type 로 결정.
; 639  : 	return DoesDisplayDataMinMaxInGap_Type(inputData.GetSubGraphData());

  0017f	8b cb		 mov	 ecx, ebx
  00181	e8 00 00 00 00	 call	 ?GetSubGraphData@CVertDisplayDataMinMaxInputData@@QBEPAVCSubGraphData@@XZ ; CVertDisplayDataMinMaxInputData::GetSubGraphData
  00186	8b f0		 mov	 esi, eax

; 647  : 	if(pSubGraphData == NULL)

  00188	85 f6		 test	 esi, esi
  0018a	74 42		 je	 SHORT $LN40@GetViewVer

; 648  : 		return false;
; 649  : 	
; 650  : 	if(pSubGraphData->GetType() != CGraphBaseData::Bar_Type)

  0018c	8b ce		 mov	 ecx, esi
  0018e	ff 15 00 00 00
	00		 call	 DWORD PTR __imp_?GetType@CSubGraphDataBase@@QBE?AW4GRAPHTYPE@CGraphBaseData@@XZ
  00194	83 f8 02	 cmp	 eax, 2
  00197	75 35		 jne	 SHORT $LN40@GetViewVer

; 651  : 		return false;
; 652  : 
; 653  : 	// drawingStyle가 <Text형>인 경우는 Text가 표현되기 때문에 gap을 줄필요가 없다!
; 654  : 	if(pSubGraphData->GetDrawStyle().GetGraphBarDrawStyle() == CGraphBaseData::TextBar_Draw)

  00199	8d 45 10	 lea	 eax, DWORD PTR $T11[ebp]
  0019c	8b ce		 mov	 ecx, esi
  0019e	50		 push	 eax
  0019f	ff 15 00 00 00
	00		 call	 DWORD PTR __imp_?GetDrawStyle@CSubGraphDataBase@@QBE?AVCGraphDrawStyle@@XZ
  001a5	83 38 03	 cmp	 DWORD PTR [eax], 3
  001a8	74 24		 je	 SHORT $LN40@GetViewVer

; 655  : 		return false;
; 656  : 
; 657  : 	CGraphBaseData::BARSTYLE eStyle = pSubGraphData->GetStyle().GetGraphBarStyle();

  001aa	8d 45 e4	 lea	 eax, DWORD PTR $T6[ebp]
  001ad	8b ce		 mov	 ecx, esi
  001af	50		 push	 eax
  001b0	ff 15 00 00 00
	00		 call	 DWORD PTR __imp_?GetStyle@CSubGraphDataBase@@QBE?AVCGraphStyle@@XZ

; 658  : 	switch(eStyle){

  001b6	8b 00		 mov	 eax, DWORD PTR [eax]
  001b8	83 c0 fe	 add	 eax, -2			; fffffffeH
  001bb	83 f8 0e	 cmp	 eax, 14			; 0000000eH
  001be	77 0e		 ja	 SHORT $LN40@GetViewVer
  001c0	0f b6 80 00 00
	00 00		 movzx	 eax, BYTE PTR $LN56@GetViewVer[eax]
  001c7	ff 24 85 00 00
	00 00		 jmp	 DWORD PTR $LN57@GetViewVer[eax*4]
$LN40@GetViewVer:

; 298  : 
; 299  : 	// Min/Max 에 gap 을 준다.
; 300  : 	if(!DoesDisplayDataMinMaxInGap(inputData))
; 301  : 		return true;

  001ce	b0 01		 mov	 al, 1

; 308  : }

  001d0	8b 4d f4	 mov	 ecx, DWORD PTR __$EHRec$[ebp]
  001d3	64 89 0d 00 00
	00 00		 mov	 DWORD PTR fs:0, ecx
  001da	59		 pop	 ecx
  001db	5f		 pop	 edi
  001dc	5e		 pop	 esi
  001dd	5b		 pop	 ebx
  001de	8b e5		 mov	 esp, ebp
  001e0	5d		 pop	 ebp
  001e1	c2 0c 00	 ret	 12			; 0000000cH
$LN3@GetViewVer:

; 302  : 
; 303  : 	double dGap = displayDataMinMax.GetCount() * 0.05;

  001e4	8b cf		 mov	 ecx, edi
  001e6	ff 15 00 00 00
	00		 call	 DWORD PTR __imp_?GetCount@CDisplayDataMinMax@@QBENXZ
  001ec	dc 0d 00 00 00
	00		 fmul	 QWORD PTR __real@3fa999999999999a

; 304  : 
; 305  : 	displayDataMinMax.Inflate(dGap, dGap);

  001f2	8d 45 d0	 lea	 eax, DWORD PTR _dGap$[ebp]
  001f5	50		 push	 eax
  001f6	50		 push	 eax
  001f7	8b cf		 mov	 ecx, edi
  001f9	dd 5d d0	 fstp	 QWORD PTR _dGap$[ebp]
  001fc	ff 15 00 00 00
	00		 call	 DWORD PTR __imp_?Inflate@CDisplayDataMinMax@@QAEXABN0@Z

; 306  : 
; 307  : 	return true;

  00202	b0 01		 mov	 al, 1

; 308  : }

  00204	8b 4d f4	 mov	 ecx, DWORD PTR __$EHRec$[ebp]
  00207	64 89 0d 00 00
	00 00		 mov	 DWORD PTR fs:0, ecx
  0020e	59		 pop	 ecx
  0020f	5f		 pop	 edi
  00210	5e		 pop	 esi
  00211	5b		 pop	 ebx
  00212	8b e5		 mov	 esp, ebp
  00214	5d		 pop	 ebp
  00215	c2 0c 00	 ret	 12			; 0000000cH
$LN54@GetViewVer:

; 297  : 		return false;

  00218	32 c0		 xor	 al, al

; 308  : }

  0021a	8b 4d f4	 mov	 ecx, DWORD PTR __$EHRec$[ebp]
  0021d	64 89 0d 00 00
	00 00		 mov	 DWORD PTR fs:0, ecx
  00224	59		 pop	 ecx
  00225	5f		 pop	 edi
  00226	5e		 pop	 esi
  00227	5b		 pop	 ebx
  00228	8b e5		 mov	 esp, ebp
  0022a	5d		 pop	 ebp
  0022b	c2 0c 00	 ret	 12			; 0000000cH
  0022e	66 90		 npad	 2
$LN57@GetViewVer:
  00230	00 00 00 00	 DD	 $LN3@GetViewVer
  00234	00 00 00 00	 DD	 $LN40@GetViewVer
$LN56@GetViewVer:
  00238	00		 DB	 0
  00239	01		 DB	 1
  0023a	01		 DB	 1
  0023b	01		 DB	 1
  0023c	01		 DB	 1
  0023d	01		 DB	 1
  0023e	01		 DB	 1
  0023f	01		 DB	 1
  00240	01		 DB	 1
  00241	01		 DB	 1
  00242	00		 DB	 0
  00243	01		 DB	 1
  00244	00		 DB	 0
  00245	01		 DB	 1
  00246	00		 DB	 0
_TEXT	ENDS
;	COMDAT text$x
text$x	SEGMENT
__unwindfunclet$?GetViewVertMinMax_Indicate_General_Gap@CViewMinMaxCalculator@@AAE_NABVCVertDisplayDataMinMaxInputData@@AAVCDisplayDataMinMax@@H@Z$0:
  00000	8d 4d 08	 lea	 ecx, DWORD PTR $T9[ebp]
  00003	ff 25 00 00 00
	00		 jmp	 DWORD PTR __imp_??1?$CStringT@DV?$StrTraitMFC_DLL@DV?$ChTraitsCRT@D@ATL@@@@@ATL@@QAE@XZ
  00009	cc		 int	 3
  0000a	cc		 int	 3
  0000b	cc		 int	 3
  0000c	cc		 int	 3
  0000d	cc		 int	 3
__ehhandler$?GetViewVertMinMax_Indicate_General_Gap@CViewMinMaxCalculator@@AAE_NABVCVertDisplayDataMinMaxInputData@@AAVCDisplayDataMinMax@@H@Z:
  0000e	90		 npad	 1
  0000f	90		 npad	 1
  00010	8b 54 24 08	 mov	 edx, DWORD PTR [esp+8]
  00014	8d 42 0c	 lea	 eax, DWORD PTR [edx+12]
  00017	8b 4a c4	 mov	 ecx, DWORD PTR [edx-60]
  0001a	33 c8		 xor	 ecx, eax
  0001c	e8 00 00 00 00	 call	 @__security_check_cookie@4
  00021	b8 00 00 00 00	 mov	 eax, OFFSET __ehfuncinfo$?GetViewVertMinMax_Indicate_General_Gap@CViewMinMaxCalculator@@AAE_NABVCVertDisplayDataMinMaxInputData@@AAVCDisplayDataMinMax@@H@Z
  00026	e9 00 00 00 00	 jmp	 ___CxxFrameHandler3
text$x	ENDS
?GetViewVertMinMax_Indicate_General_Gap@CViewMinMaxCalculator@@AAE_NABVCVertDisplayDataMinMaxInputData@@AAVCDisplayDataMinMax@@H@Z ENDP ; CViewMinMaxCalculator::GetViewVertMinMax_Indicate_General_Gap
; Function compile flags: /Ogtp
; File D:\git\src\IBK\IBK_DRFN\ProjSrc\SrcChartEx\ChartOCX\ChartObject\ViewMinMaxCalculator.cpp
; File C:\Program Files (x86)\Microsoft Visual Studio\2019\Community\VC\Tools\MSVC\14.29.30133\atlmfc\include\cstringt.h
; File D:\git\src\IBK\IBK_DRFN\ProjSrc\SrcChartEx\ChartOCX\ChartObject\ViewMinMaxCalculator.cpp
; File C:\Program Files (x86)\Microsoft Visual Studio\2019\Community\VC\Tools\MSVC\14.29.30133\atlmfc\include\cstringt.h
; File D:\git\src\IBK\IBK_DRFN\ProjSrc\SrcChartEx\ChartOCX\ChartObject\ViewMinMaxCalculator.cpp
; File C:\Program Files (x86)\Microsoft Visual Studio\2019\Community\VC\Tools\MSVC\14.29.30133\atlmfc\include\afxtempl.h
; File D:\git\src\IBK\IBK_DRFN\ProjSrc\SrcChartEx\ChartOCX\ChartObject\ViewMinMaxCalculator.cpp
; File C:\Program Files (x86)\Microsoft Visual Studio\2019\Community\VC\Tools\MSVC\14.29.30133\atlmfc\include\cstringt.h
; File D:\git\src\IBK\IBK_DRFN\ProjSrc\SrcChartEx\ChartOCX\ChartObject\ViewMinMaxCalculator.cpp
; File C:\Program Files (x86)\Microsoft Visual Studio\2019\Community\VC\Tools\MSVC\14.29.30133\atlmfc\include\cstringt.h
; File D:\git\src\IBK\IBK_DRFN\ProjSrc\SrcChartEx\ChartOCX\ChartObject\ViewMinMaxCalculator.cpp
; File C:\Program Files (x86)\Microsoft Visual Studio\2019\Community\VC\Tools\MSVC\14.29.30133\atlmfc\include\cstringt.h
; File D:\git\src\IBK\IBK_DRFN\ProjSrc\SrcChartEx\ChartOCX\ChartObject\ViewMinMaxCalculator.cpp
; File C:\Program Files (x86)\Microsoft Visual Studio\2019\Community\VC\Tools\MSVC\14.29.30133\atlmfc\include\cstringt.h
; File D:\git\src\IBK\IBK_DRFN\ProjSrc\SrcChartEx\ChartOCX\ChartObject\ViewMinMaxCalculator.cpp
;	COMDAT ?GetViewVertMinMax_Indicate@CViewMinMaxCalculator@@AAE_NABVCVertDisplayDataMinMaxInputData@@AAVCDisplayDataMinMax@@HH@Z
_TEXT	SEGMENT
$T2 = -48						; size = 8
_displayAttributes$3 = -48				; size = 8
_displayAttributes$4 = -48				; size = 8
_displayAttributes$5 = -48				; size = 8
$T6 = -48						; size = 8
$T7 = -48						; size = 8
$T8 = -48						; size = 8
$T9 = -40						; size = 4
tv707 = -36						; size = 8
tv701 = -36						; size = 8
$T10 = -36						; size = 8
$T11 = -36						; size = 8
$T12 = -36						; size = 8
_pSubGraphPacketList$1$ = -32				; size = 4
$T13 = -32						; size = 4
$T14 = -28						; size = 16
$T15 = -20						; size = 8
_this$1$ = -16						; size = 4
__$EHRec$ = -12						; size = 12
$T16 = 8						; size = 4
$T17 = 8						; size = 4
$T18 = 8						; size = 4
$T19 = 8						; size = 4
$T20 = 8						; size = 4
$T21 = 8						; size = 4
$T22 = 8						; size = 4
$T23 = 8						; size = 4
$T24 = 8						; size = 4
$T25 = 8						; size = 4
_inputData$ = 8						; size = 4
_displayDataMinMax$ = 12				; size = 4
_nMaxX100$26 = 16					; size = 4
_pos$27 = 16						; size = 4
_p_bWithFullRange$ = 16					; size = 4
_pos$28 = 20						; size = 4
_nMinX100$29 = 20					; size = 4
_pos$30 = 20						; size = 4
_bDrawBaseLine$ = 20					; size = 4
?GetViewVertMinMax_Indicate@CViewMinMaxCalculator@@AAE_NABVCVertDisplayDataMinMaxInputData@@AAVCDisplayDataMinMax@@HH@Z PROC ; CViewMinMaxCalculator::GetViewVertMinMax_Indicate, COMDAT
; _this$ = ecx

; 108  : {

  00000	55		 push	 ebp
  00001	8b ec		 mov	 ebp, esp
  00003	6a ff		 push	 -1
  00005	68 00 00 00 00	 push	 __ehhandler$?GetViewVertMinMax_Indicate@CViewMinMaxCalculator@@AAE_NABVCVertDisplayDataMinMaxInputData@@AAVCDisplayDataMinMax@@HH@Z
  0000a	64 a1 00 00 00
	00		 mov	 eax, DWORD PTR fs:0
  00010	50		 push	 eax
  00011	83 ec 24	 sub	 esp, 36			; 00000024H
  00014	53		 push	 ebx
  00015	56		 push	 esi
  00016	57		 push	 edi
  00017	a1 00 00 00 00	 mov	 eax, DWORD PTR ___security_cookie
  0001c	33 c5		 xor	 eax, ebp
  0001e	50		 push	 eax
  0001f	8d 45 f4	 lea	 eax, DWORD PTR __$EHRec$[ebp]
  00022	64 a3 00 00 00
	00		 mov	 DWORD PTR fs:0, eax
  00028	8b f1		 mov	 esi, ecx
  0002a	89 75 f0	 mov	 DWORD PTR _this$1$[ebp], esi

; 109  : 	// 마지막의 packet만 min/max 인 경우 - "Zig Zag", "꺽은선차트"
; 110  : 	// 기준선 보임 환경설정과 Scale 자동포함 기능 - ojtaso (20071101)
; 111  : 	if( g_iMetaTable.IsViewVertMinMax_EndPacket(inputData.GetIndicatorName()))

  0002d	8b 7d 08	 mov	 edi, DWORD PTR _inputData$[ebp]
  00030	8d 45 e0	 lea	 eax, DWORD PTR $T13[ebp]
  00033	50		 push	 eax
  00034	8b cf		 mov	 ecx, edi
  00036	e8 00 00 00 00	 call	 ?GetIndicatorName@CVertDisplayDataMinMaxInputData@@QBE?AV?$CStringT@DV?$StrTraitMFC_DLL@DV?$ChTraitsCRT@D@ATL@@@@@ATL@@XZ ; CVertDisplayDataMinMaxInputData::GetIndicatorName
  0003b	50		 push	 eax
  0003c	b9 00 00 00 00	 mov	 ecx, OFFSET ?g_iMetaTable@@3VIMetaTable@@A ; g_iMetaTable
  00041	c7 45 fc 00 00
	00 00		 mov	 DWORD PTR __$EHRec$[ebp+8], 0
  00048	e8 00 00 00 00	 call	 ?IsViewVertMinMax_EndPacket@IMetaTable@@QAE_NABV?$CStringT@DV?$StrTraitMFC_DLL@DV?$ChTraitsCRT@D@ATL@@@@@ATL@@@Z ; IMetaTable::IsViewVertMinMax_EndPacket
  0004d	8d 4d e0	 lea	 ecx, DWORD PTR $T13[ebp]
  00050	c7 45 fc ff ff
	ff ff		 mov	 DWORD PTR __$EHRec$[ebp+8], -1
  00057	8a d8		 mov	 bl, al
  00059	ff 15 00 00 00
	00		 call	 DWORD PTR __imp_??1?$CStringT@DV?$StrTraitMFC_DLL@DV?$ChTraitsCRT@D@ATL@@@@@ATL@@QAE@XZ
  0005f	84 db		 test	 bl, bl
  00061	74 25		 je	 SHORT $LN2@GetViewVer

; 112  : 		return GetViewVertMinMax_EndPacket(inputData, displayDataMinMax, p_bWithFullRange, bDrawBaseLine);

  00063	ff 75 14	 push	 DWORD PTR _bDrawBaseLine$[ebp]
  00066	8b ce		 mov	 ecx, esi
  00068	ff 75 10	 push	 DWORD PTR _p_bWithFullRange$[ebp]
  0006b	ff 75 0c	 push	 DWORD PTR _displayDataMinMax$[ebp]
  0006e	57		 push	 edi
  0006f	e8 00 00 00 00	 call	 ?GetViewVertMinMax_EndPacket@CViewMinMaxCalculator@@AAE_NABVCVertDisplayDataMinMaxInputData@@AAVCDisplayDataMinMax@@HH@Z ; CViewMinMaxCalculator::GetViewVertMinMax_EndPacket

; 161  : }

  00074	8b 4d f4	 mov	 ecx, DWORD PTR __$EHRec$[ebp]
  00077	64 89 0d 00 00
	00 00		 mov	 DWORD PTR fs:0, ecx
  0007e	59		 pop	 ecx
  0007f	5f		 pop	 edi
  00080	5e		 pop	 esi
  00081	5b		 pop	 ebx
  00082	8b e5		 mov	 esp, ebp
  00084	5d		 pop	 ebp
  00085	c2 10 00	 ret	 16			; 00000010H
$LN2@GetViewVer:

; 113  : 	// "역시계곡선" 인 경우
; 114  : 	else if( g_iMetaTable.IsScaleGroup_InverseLine(inputData.GetIndicatorName()))

  00088	8d 45 08	 lea	 eax, DWORD PTR $T25[ebp]
  0008b	8b cf		 mov	 ecx, edi
  0008d	50		 push	 eax
  0008e	e8 00 00 00 00	 call	 ?GetIndicatorName@CVertDisplayDataMinMaxInputData@@QBE?AV?$CStringT@DV?$StrTraitMFC_DLL@DV?$ChTraitsCRT@D@ATL@@@@@ATL@@XZ ; CVertDisplayDataMinMaxInputData::GetIndicatorName
  00093	50		 push	 eax
  00094	b9 00 00 00 00	 mov	 ecx, OFFSET ?g_iMetaTable@@3VIMetaTable@@A ; g_iMetaTable
  00099	c7 45 fc 01 00
	00 00		 mov	 DWORD PTR __$EHRec$[ebp+8], 1
  000a0	e8 00 00 00 00	 call	 ?IsScaleGroup_InverseLine@IMetaTable@@QAE_NABV?$CStringT@DV?$StrTraitMFC_DLL@DV?$ChTraitsCRT@D@ATL@@@@@ATL@@@Z ; IMetaTable::IsScaleGroup_InverseLine
  000a5	8d 4d 08	 lea	 ecx, DWORD PTR $T25[ebp]
  000a8	c7 45 fc ff ff
	ff ff		 mov	 DWORD PTR __$EHRec$[ebp+8], -1
  000af	8a d8		 mov	 bl, al
  000b1	ff 15 00 00 00
	00		 call	 DWORD PTR __imp_??1?$CStringT@DV?$StrTraitMFC_DLL@DV?$ChTraitsCRT@D@ATL@@@@@ATL@@QAE@XZ
  000b7	8b cf		 mov	 ecx, edi
  000b9	84 db		 test	 bl, bl
  000bb	74 3f		 je	 SHORT $LN4@GetViewVer

; 165  : 	CPacket* pPacket = inputData.GetSubGraphPacketList()->GetHeadPacket();

  000bd	e8 00 00 00 00	 call	 ?GetSubGraphPacketList@CVertDisplayDataMinMaxInputData@@QBEPAVCSubGraphPacketList@@XZ ; CVertDisplayDataMinMaxInputData::GetSubGraphPacketList
  000c2	8b c8		 mov	 ecx, eax
  000c4	e8 00 00 00 00	 call	 ?GetHeadPacket@CSubGraphPacketList@@QAEPAVCPacket@@XZ ; CSubGraphPacketList::GetHeadPacket
$LN84@GetViewVer:

; 161  : }

  000c9	ff 75 10	 push	 DWORD PTR _p_bWithFullRange$[ebp]
  000cc	8b f0		 mov	 esi, eax
  000ce	8b cf		 mov	 ecx, edi
  000d0	ff 75 0c	 push	 DWORD PTR _displayDataMinMax$[ebp]
  000d3	8d 45 d0	 lea	 eax, DWORD PTR $T6[ebp]
  000d6	6a 00		 push	 0
  000d8	50		 push	 eax
  000d9	e8 00 00 00 00	 call	 ?GetDisplayAttributes@CVertDisplayDataMinMaxInputData@@QBE?AVCDisplayAttributes@@XZ ; CVertDisplayDataMinMaxInputData::GetDisplayAttributes
  000de	8b 4d f0	 mov	 ecx, DWORD PTR _this$1$[ebp]
  000e1	50		 push	 eax
  000e2	56		 push	 esi
  000e3	e8 00 00 00 00	 call	 ?GetPacketMinMax@CViewMinMaxCalculator@@ABE_NPAVCPacket@@ABVCDisplayAttributes@@_NAAVCDisplayDataMinMax@@H@Z ; CViewMinMaxCalculator::GetPacketMinMax
  000e8	8b 4d f4	 mov	 ecx, DWORD PTR __$EHRec$[ebp]
  000eb	64 89 0d 00 00
	00 00		 mov	 DWORD PTR fs:0, ecx
  000f2	59		 pop	 ecx
  000f3	5f		 pop	 edi
  000f4	5e		 pop	 esi
  000f5	5b		 pop	 ebx
  000f6	8b e5		 mov	 esp, ebp
  000f8	5d		 pop	 ebp
  000f9	c2 10 00	 ret	 16			; 00000010H
$LN4@GetViewVer:

; 123  : 	else if(inputData.GetIndicatorName() == _MTEXT( C2_FUTURE_OPTION_P_AND_F))

  000fc	8d 45 08	 lea	 eax, DWORD PTR $T24[ebp]
  000ff	50		 push	 eax
  00100	e8 00 00 00 00	 call	 ?GetIndicatorName@CVertDisplayDataMinMaxInputData@@QBE?AV?$CStringT@DV?$StrTraitMFC_DLL@DV?$ChTraitsCRT@D@ATL@@@@@ATL@@XZ ; CVertDisplayDataMinMaxInputData::GetIndicatorName
  00105	8b 0d 54 00 00
	00		 mov	 ecx, DWORD PTR ?g_iMetaTable@@3VIMetaTable@@A+84
  0010b	c7 45 fc 02 00
	00 00		 mov	 DWORD PTR __$EHRec$[ebp+8], 2
; File C:\Program Files (x86)\Microsoft Visual Studio\2019\Community\VC\Tools\MSVC\14.29.30133\atlmfc\include\cstringt.h

; 2486 : 		return(str1.Compare(psz2) == 0);

  00112	ff b1 8c 0c 00
	00		 push	 DWORD PTR [ecx+3212]
  00118	8b c8		 mov	 ecx, eax
  0011a	ff 15 00 00 00
	00		 call	 DWORD PTR __imp_?Compare@?$CStringT@DV?$StrTraitMFC_DLL@DV?$ChTraitsCRT@D@ATL@@@@@ATL@@QBEHPBD@Z
; File D:\git\src\IBK\IBK_DRFN\ProjSrc\SrcChartEx\ChartOCX\ChartObject\ViewMinMaxCalculator.cpp

; 123  : 	else if(inputData.GetIndicatorName() == _MTEXT( C2_FUTURE_OPTION_P_AND_F))

  00120	8d 4d 08	 lea	 ecx, DWORD PTR $T24[ebp]
  00123	c7 45 fc ff ff
	ff ff		 mov	 DWORD PTR __$EHRec$[ebp+8], -1
; File C:\Program Files (x86)\Microsoft Visual Studio\2019\Community\VC\Tools\MSVC\14.29.30133\atlmfc\include\cstringt.h

; 2486 : 		return(str1.Compare(psz2) == 0);

  0012a	8b f0		 mov	 esi, eax
; File D:\git\src\IBK\IBK_DRFN\ProjSrc\SrcChartEx\ChartOCX\ChartObject\ViewMinMaxCalculator.cpp

; 123  : 	else if(inputData.GetIndicatorName() == _MTEXT( C2_FUTURE_OPTION_P_AND_F))

  0012c	ff 15 00 00 00
	00		 call	 DWORD PTR __imp_??1?$CStringT@DV?$StrTraitMFC_DLL@DV?$ChTraitsCRT@D@ATL@@@@@ATL@@QAE@XZ
  00132	8b cf		 mov	 ecx, edi
  00134	85 f6		 test	 esi, esi
  00136	0f 85 d7 00 00
	00		 jne	 $LN6@GetViewVer

; 215  : 	CSubGraphPacketList *pSubGraphPacketList = inputData.GetSubGraphPacketList();

  0013c	e8 00 00 00 00	 call	 ?GetSubGraphPacketList@CVertDisplayDataMinMaxInputData@@QBEPAVCSubGraphPacketList@@XZ ; CVertDisplayDataMinMaxInputData::GetSubGraphPacketList
  00141	8b d8		 mov	 ebx, eax

; 216  : 	if( !pSubGraphPacketList) return false;

  00143	85 db		 test	 ebx, ebx
  00145	75 16		 jne	 SHORT $LN37@GetViewVer
$LN86@GetViewVer:

; 161  : }

  00147	32 c0		 xor	 al, al
  00149	8b 4d f4	 mov	 ecx, DWORD PTR __$EHRec$[ebp]
  0014c	64 89 0d 00 00
	00 00		 mov	 DWORD PTR fs:0, ecx
  00153	59		 pop	 ecx
  00154	5f		 pop	 edi
  00155	5e		 pop	 esi
  00156	5b		 pop	 ebx
  00157	8b e5		 mov	 esp, ebp
  00159	5d		 pop	 ebp
  0015a	c2 10 00	 ret	 16			; 00000010H
$LN37@GetViewVer:

; 217  : 	CDisplayAttributes displayAttributes = inputData.GetDisplayAttributes();

  0015d	8d 45 d0	 lea	 eax, DWORD PTR _displayAttributes$5[ebp]
  00160	8b cf		 mov	 ecx, edi
  00162	50		 push	 eax
  00163	e8 00 00 00 00	 call	 ?GetDisplayAttributes@CVertDisplayDataMinMaxInputData@@QBE?AVCDisplayAttributes@@XZ ; CVertDisplayDataMinMaxInputData::GetDisplayAttributes

; 218  : 
; 219  : 	// 2. 각 Packet을 모두 확인하여 Scale을 확보한다.
; 220  : 	// (2004.02.24, 배승원) 실시간 Tick P&F는 Scale의 급변을 제한하기 위하여,
; 221  : 	//		첫 두 Packet의 첫 Data로 각각 Min/Max 값을 제공한다.
; 222  : 	POSITION pos = pSubGraphPacketList->GetHeadPosition();

  00168	8b cb		 mov	 ecx, ebx
  0016a	e8 00 00 00 00	 call	 ?GetHeadPosition@CSubGraphPacketList@@QAEPAU__POSITION@@XZ ; CSubGraphPacketList::GetHeadPosition
  0016f	89 45 10	 mov	 DWORD PTR _pos$27[ebp], eax

; 223  : 	if( !pos) FALSE;
; 224  : 	CPacket* pPacket = pSubGraphPacketList->GetNext( pos);

  00172	8b cb		 mov	 ecx, ebx
  00174	8d 45 10	 lea	 eax, DWORD PTR _pos$27[ebp]
  00177	50		 push	 eax
  00178	e8 00 00 00 00	 call	 ?GetNext@CSubGraphPacketList@@QAEPAVCPacket@@AAPAU__POSITION@@@Z ; CSubGraphPacketList::GetNext

; 225  : 	int nMinX100 = int( pPacket->GetData( 0) * 100);

  0017d	6a 00		 push	 0
  0017f	8b c8		 mov	 ecx, eax
  00181	ff 15 00 00 00
	00		 call	 DWORD PTR __imp_?GetData@CPacket@@QAENH@Z
  00187	dc 0d 00 00 00
	00		 fmul	 QWORD PTR __real@4059000000000000

; 226  : 	if( !pos) FALSE;
; 227  : 	pPacket = pSubGraphPacketList->GetNext( pos);

  0018d	8d 45 10	 lea	 eax, DWORD PTR _pos$27[ebp]
  00190	50		 push	 eax
  00191	8b cb		 mov	 ecx, ebx
  00193	dd 5d dc	 fstp	 QWORD PTR tv707[ebp]
  00196	f2 0f 2c 75 dc	 cvttsd2si esi, QWORD PTR tv707[ebp]
  0019b	e8 00 00 00 00	 call	 ?GetNext@CSubGraphPacketList@@QAEPAVCPacket@@AAPAU__POSITION@@@Z ; CSubGraphPacketList::GetNext

; 228  : 	int nMaxX100 = int( pPacket->GetData( 0) * 100);

  001a0	6a 00		 push	 0
  001a2	8b c8		 mov	 ecx, eax
  001a4	ff 15 00 00 00
	00		 call	 DWORD PTR __imp_?GetData@CPacket@@QAENH@Z

; 229  : 
; 230  : 	// (2004.02.22, 배승원) 위/아래로 1호가(0.05)씩을 추가하여 여백이 보이도록 한다.
; 231  : 	displayDataMinMax.SetDisplayData( ( nMinX100 - 5) / 100., ( nMaxX100 + 5) / 100.);

  001aa	b9 05 00 00 00	 mov	 ecx, 5
  001af	dc 0d 00 00 00
	00		 fmul	 QWORD PTR __real@c059000000000000
  001b5	dd 5d dc	 fstp	 QWORD PTR tv701[ebp]
  001b8	f2 0f 2c 45 dc	 cvttsd2si eax, QWORD PTR tv701[ebp]
  001bd	2b c8		 sub	 ecx, eax
  001bf	8d 46 fb	 lea	 eax, DWORD PTR [esi-5]
  001c2	66 0f 6e c1	 movd	 xmm0, ecx
  001c6	f3 0f e6 c0	 cvtdq2pd xmm0, xmm0
  001ca	8b 4d 0c	 mov	 ecx, DWORD PTR _displayDataMinMax$[ebp]
  001cd	f2 0f 5e 05 00
	00 00 00	 divsd	 xmm0, QWORD PTR __real@4059000000000000
  001d5	f2 0f 11 45 dc	 movsd	 QWORD PTR $T11[ebp], xmm0
  001da	66 0f 6e c0	 movd	 xmm0, eax
  001de	8d 45 dc	 lea	 eax, DWORD PTR $T11[ebp]
  001e1	f3 0f e6 c0	 cvtdq2pd xmm0, xmm0
  001e5	50		 push	 eax
  001e6	8d 45 ec	 lea	 eax, DWORD PTR $T15[ebp]
  001e9	50		 push	 eax
  001ea	f2 0f 5e 05 00
	00 00 00	 divsd	 xmm0, QWORD PTR __real@4059000000000000
  001f2	f2 0f 11 45 ec	 movsd	 QWORD PTR $T15[ebp], xmm0
  001f7	ff 15 00 00 00
	00		 call	 DWORD PTR __imp_?SetDisplayData@CDisplayDataMinMax@@QAEXABN0@Z

; 232  : 
; 233  : 	return TRUE;

  001fd	b0 01		 mov	 al, 1

; 161  : }

  001ff	8b 4d f4	 mov	 ecx, DWORD PTR __$EHRec$[ebp]
  00202	64 89 0d 00 00
	00 00		 mov	 DWORD PTR fs:0, ecx
  00209	59		 pop	 ecx
  0020a	5f		 pop	 edi
  0020b	5e		 pop	 esi
  0020c	5b		 pop	 ebx
  0020d	8b e5		 mov	 esp, ebp
  0020f	5d		 pop	 ebp
  00210	c2 10 00	 ret	 16			; 00000010H
$LN6@GetViewVer:

; 124  : 		return GetViewVertMinMax_FuPAndF( inputData, displayDataMinMax) ? true : false;
; 125  : 	// "P&F" 인 경우
; 126  : 	else if( g_iMetaTable.IsDrawGroup_PAndF(inputData.GetIndicatorName()))

  00213	8d 45 08	 lea	 eax, DWORD PTR $T23[ebp]
  00216	50		 push	 eax
  00217	e8 00 00 00 00	 call	 ?GetIndicatorName@CVertDisplayDataMinMaxInputData@@QBE?AV?$CStringT@DV?$StrTraitMFC_DLL@DV?$ChTraitsCRT@D@ATL@@@@@ATL@@XZ ; CVertDisplayDataMinMaxInputData::GetIndicatorName
  0021c	50		 push	 eax
  0021d	b9 00 00 00 00	 mov	 ecx, OFFSET ?g_iMetaTable@@3VIMetaTable@@A ; g_iMetaTable
  00222	c7 45 fc 03 00
	00 00		 mov	 DWORD PTR __$EHRec$[ebp+8], 3
  00229	e8 00 00 00 00	 call	 ?IsDrawGroup_PAndF@IMetaTable@@QAE_NABV?$CStringT@DV?$StrTraitMFC_DLL@DV?$ChTraitsCRT@D@ATL@@@@@ATL@@@Z ; IMetaTable::IsDrawGroup_PAndF
  0022e	8d 4d 08	 lea	 ecx, DWORD PTR $T23[ebp]
  00231	c7 45 fc ff ff
	ff ff		 mov	 DWORD PTR __$EHRec$[ebp+8], -1
  00238	8a d8		 mov	 bl, al
  0023a	ff 15 00 00 00
	00		 call	 DWORD PTR __imp_??1?$CStringT@DV?$StrTraitMFC_DLL@DV?$ChTraitsCRT@D@ATL@@@@@ATL@@QAE@XZ
  00240	8b cf		 mov	 ecx, edi
  00242	84 db		 test	 bl, bl
  00244	0f 84 a8 00 00
	00		 je	 $LN8@GetViewVer

; 238  : 	CSubGraphPacketList* pSubGraphPacketList = inputData.GetSubGraphPacketList();

  0024a	e8 00 00 00 00	 call	 ?GetSubGraphPacketList@CVertDisplayDataMinMaxInputData@@QBEPAVCSubGraphPacketList@@XZ ; CVertDisplayDataMinMaxInputData::GetSubGraphPacketList
  0024f	8b f0		 mov	 esi, eax
  00251	89 75 e0	 mov	 DWORD PTR _pSubGraphPacketList$1$[ebp], esi

; 239  : 	if(pSubGraphPacketList == NULL)

  00254	85 f6		 test	 esi, esi
  00256	0f 84 eb fe ff
	ff		 je	 $LN86@GetViewVer

; 240  : 		return false;
; 241  : 
; 242  : 	CDisplayAttributes displayAttributes = inputData.GetDisplayAttributes();

  0025c	8d 45 d0	 lea	 eax, DWORD PTR _displayAttributes$4[ebp]
  0025f	8b cf		 mov	 ecx, edi
  00261	50		 push	 eax
  00262	e8 00 00 00 00	 call	 ?GetDisplayAttributes@CVertDisplayDataMinMaxInputData@@QBE?AVCDisplayAttributes@@XZ ; CVertDisplayDataMinMaxInputData::GetDisplayAttributes

; 243  : 	POSITION pos = pSubGraphPacketList->GetHeadPosition();

  00267	8b ce		 mov	 ecx, esi
  00269	e8 00 00 00 00	 call	 ?GetHeadPosition@CSubGraphPacketList@@QAEPAU__POSITION@@XZ ; CSubGraphPacketList::GetHeadPosition
  0026e	89 45 14	 mov	 DWORD PTR _pos$30[ebp], eax

; 244  : 	while(pos != NULL)

  00271	85 c0		 test	 eax, eax
  00273	74 5b		 je	 SHORT $LN43@GetViewVer
  00275	8b 5d f0	 mov	 ebx, DWORD PTR _this$1$[ebp]
$LL42@GetViewVer:

; 245  : 	{
; 246  : 		CPacket* pPacket = pSubGraphPacketList->GetNext(pos);

  00278	8d 45 14	 lea	 eax, DWORD PTR _pos$30[ebp]
  0027b	8b ce		 mov	 ecx, esi
  0027d	50		 push	 eax
  0027e	e8 00 00 00 00	 call	 ?GetNext@CSubGraphPacketList@@QAEPAVCPacket@@AAPAU__POSITION@@@Z ; CSubGraphPacketList::GetNext
  00283	8b f8		 mov	 edi, eax

; 247  : 		assert(pPacket != NULL);
; 248  : 		if(pPacket->GetName().Find( _MTEXT( C0_OPEN)) < 0)

  00285	8d 45 08	 lea	 eax, DWORD PTR $T16[ebp]
  00288	50		 push	 eax
  00289	8b cf		 mov	 ecx, edi
  0028b	ff 15 00 00 00
	00		 call	 DWORD PTR __imp_?GetName@CPacket@@QAE?AV?$CStringT@DV?$StrTraitMFC_DLL@DV?$ChTraitsCRT@D@ATL@@@@@ATL@@XZ
  00291	8b 0d 54 00 00
	00		 mov	 ecx, DWORD PTR ?g_iMetaTable@@3VIMetaTable@@A+84
  00297	6a 00		 push	 0
  00299	ff 71 08	 push	 DWORD PTR [ecx+8]
  0029c	8b c8		 mov	 ecx, eax
  0029e	ff 15 00 00 00
	00		 call	 DWORD PTR __imp_?Find@?$CStringT@DV?$StrTraitMFC_DLL@DV?$ChTraitsCRT@D@ATL@@@@@ATL@@QBEHPBDH@Z
  002a4	8d 4d 08	 lea	 ecx, DWORD PTR $T16[ebp]
  002a7	8b f0		 mov	 esi, eax
  002a9	ff 15 00 00 00
	00		 call	 DWORD PTR __imp_??1?$CStringT@DV?$StrTraitMFC_DLL@DV?$ChTraitsCRT@D@ATL@@@@@ATL@@QAE@XZ
  002af	85 f6		 test	 esi, esi
  002b1	79 14		 jns	 SHORT $LN45@GetViewVer

; 249  : 			GetViewVertMinMax_Packet(pPacket, displayAttributes, false, displayDataMinMax, p_bWithFullRange);

  002b3	ff 75 10	 push	 DWORD PTR _p_bWithFullRange$[ebp]
  002b6	8d 45 d0	 lea	 eax, DWORD PTR _displayAttributes$4[ebp]
  002b9	8b cb		 mov	 ecx, ebx
  002bb	ff 75 0c	 push	 DWORD PTR _displayDataMinMax$[ebp]
  002be	6a 00		 push	 0
  002c0	50		 push	 eax
  002c1	57		 push	 edi
  002c2	e8 00 00 00 00	 call	 ?GetViewVertMinMax_Packet@CViewMinMaxCalculator@@AAE_NPAVCPacket@@ABVCDisplayAttributes@@_NAAVCDisplayDataMinMax@@H@Z ; CViewMinMaxCalculator::GetViewVertMinMax_Packet
$LN45@GetViewVer:

; 244  : 	while(pos != NULL)

  002c7	83 7d 14 00	 cmp	 DWORD PTR _pos$30[ebp], 0
  002cb	8b 75 e0	 mov	 esi, DWORD PTR _pSubGraphPacketList$1$[ebp]
  002ce	75 a8		 jne	 SHORT $LL42@GetViewVer
$LN43@GetViewVer:

; 250  : 	}
; 251  : 
; 252  : 	return displayDataMinMax.IsInitialized() ? true : false;

  002d0	8b 4d 0c	 mov	 ecx, DWORD PTR _displayDataMinMax$[ebp]
  002d3	ff 15 00 00 00
	00		 call	 DWORD PTR __imp_?IsInitialized@CDisplayDataMinMax@@QBEHXZ
  002d9	85 c0		 test	 eax, eax
  002db	0f 95 c0	 setne	 al

; 161  : }

  002de	8b 4d f4	 mov	 ecx, DWORD PTR __$EHRec$[ebp]
  002e1	64 89 0d 00 00
	00 00		 mov	 DWORD PTR fs:0, ecx
  002e8	59		 pop	 ecx
  002e9	5f		 pop	 edi
  002ea	5e		 pop	 esi
  002eb	5b		 pop	 ebx
  002ec	8b e5		 mov	 esp, ebp
  002ee	5d		 pop	 ebp
  002ef	c2 10 00	 ret	 16			; 00000010H
$LN8@GetViewVer:

; 127  : 		return GetViewVertMinMax_PAndF(inputData, displayDataMinMax, p_bWithFullRange);
; 128  : 	// "대기매물" 인 경우
; 129  : // (2006.12.06) Seunghwan Ahn
; 130  : 	else if( g_iMetaTable.IsVolumeForSale(inputData.GetIndicatorName()))

  002f2	8d 45 08	 lea	 eax, DWORD PTR $T22[ebp]
  002f5	50		 push	 eax
  002f6	e8 00 00 00 00	 call	 ?GetIndicatorName@CVertDisplayDataMinMaxInputData@@QBE?AV?$CStringT@DV?$StrTraitMFC_DLL@DV?$ChTraitsCRT@D@ATL@@@@@ATL@@XZ ; CVertDisplayDataMinMaxInputData::GetIndicatorName
  002fb	50		 push	 eax
  002fc	b9 00 00 00 00	 mov	 ecx, OFFSET ?g_iMetaTable@@3VIMetaTable@@A ; g_iMetaTable
  00301	c7 45 fc 04 00
	00 00		 mov	 DWORD PTR __$EHRec$[ebp+8], 4
  00308	e8 00 00 00 00	 call	 ?IsVolumeForSale@IMetaTable@@QAEHABV?$CStringT@DV?$StrTraitMFC_DLL@DV?$ChTraitsCRT@D@ATL@@@@@ATL@@@Z ; IMetaTable::IsVolumeForSale
  0030d	8d 4d 08	 lea	 ecx, DWORD PTR $T22[ebp]
  00310	c7 45 fc ff ff
	ff ff		 mov	 DWORD PTR __$EHRec$[ebp+8], -1
  00317	8b f0		 mov	 esi, eax
  00319	ff 15 00 00 00
	00		 call	 DWORD PTR __imp_??1?$CStringT@DV?$StrTraitMFC_DLL@DV?$ChTraitsCRT@D@ATL@@@@@ATL@@QAE@XZ
  0031f	8b cf		 mov	 ecx, edi
  00321	85 f6		 test	 esi, esi
  00323	74 72		 je	 SHORT $LN10@GetViewVer

; 262  : 	CSubGraphPacketList *pSubGraphPacketList = inputData.GetSubGraphPacketList();

  00325	e8 00 00 00 00	 call	 ?GetSubGraphPacketList@CVertDisplayDataMinMaxInputData@@QBEPAVCSubGraphPacketList@@XZ ; CVertDisplayDataMinMaxInputData::GetSubGraphPacketList

; 263  : 	if( !pSubGraphPacketList) return false;

  0032a	85 c0		 test	 eax, eax
  0032c	0f 84 15 fe ff
	ff		 je	 $LN86@GetViewVer

; 264  : 	const CList < CPacket *, CPacket *> &packetList = pSubGraphPacketList->GetSubGraphPacketList();

  00332	8b c8		 mov	 ecx, eax
  00334	e8 00 00 00 00	 call	 ?GetSubGraphPacketList@CSubGraphPacketList@@QBEABV?$CList@PAVCPacket@@PAV1@@@XZ ; CSubGraphPacketList::GetSubGraphPacketList

; 265  : 	if( packetList.GetCount() < 2) return false;

  00339	83 78 0c 02	 cmp	 DWORD PTR [eax+12], 2
  0033d	0f 8c 04 fe ff
	ff		 jl	 $LN86@GetViewVer
; File C:\Program Files (x86)\Microsoft Visual Studio\2019\Community\VC\Tools\MSVC\14.29.30133\atlmfc\include\afxtempl.h

; 1136 : 	CNode* pNode = m_pNodeHead;

  00343	8b 40 04	 mov	 eax, DWORD PTR [eax+4]

; 1137 : 	while (nIndex--)
; 1138 : 	{
; 1139 : 		ASSERT(AfxIsValidAddress(pNode, sizeof(CNode)));
; 1140 : 		pNode = pNode->pNext;

  00346	8b 30		 mov	 esi, DWORD PTR [eax]
; File D:\git\src\IBK\IBK_DRFN\ProjSrc\SrcChartEx\ChartOCX\ChartObject\ViewMinMaxCalculator.cpp

; 267  : 	if( !psnPacket) return false;

  00348	85 f6		 test	 esi, esi
  0034a	0f 84 f7 fd ff
	ff		 je	 $LN86@GetViewVer

; 268  : 	CPacket *pPacket = packetList.GetAt( psnPacket);

  00350	8b 76 08	 mov	 esi, DWORD PTR [esi+8]

; 269  : 	if( !pPacket) return false;

  00353	85 f6		 test	 esi, esi
  00355	0f 84 ec fd ff
	ff		 je	 $LN86@GetViewVer

; 270  : 
; 271  : 	// 시작과 끝은 Packet Data 갯수로 한다.
; 272  : 	// -> 대기매물 현재가/최대값 index를 나타내는 값은 빼고 실질적인 data 갯수를 구한다.
; 273  : 	CDisplayAttributes displayAttributes(0, pPacket->GetCount() -1);

  0035b	8b 06		 mov	 eax, DWORD PTR [esi]
  0035d	8b ce		 mov	 ecx, esi
  0035f	ff 50 14	 call	 DWORD PTR [eax+20]
  00362	48		 dec	 eax
  00363	8d 4d d0	 lea	 ecx, DWORD PTR _displayAttributes$3[ebp]
  00366	50		 push	 eax
  00367	6a 00		 push	 0
  00369	e8 00 00 00 00	 call	 ??0CDisplayAttributes@@QAE@HH@Z ; CDisplayAttributes::CDisplayAttributes

; 274  : 	return GetViewVertMinMax_Packet(pPacket, displayAttributes, false, displayDataMinMax, p_bWithFullRange);

  0036e	ff 75 10	 push	 DWORD PTR _p_bWithFullRange$[ebp]
  00371	8b 4d f0	 mov	 ecx, DWORD PTR _this$1$[ebp]
  00374	8d 45 d0	 lea	 eax, DWORD PTR _displayAttributes$3[ebp]
  00377	ff 75 0c	 push	 DWORD PTR _displayDataMinMax$[ebp]
  0037a	6a 00		 push	 0
  0037c	50		 push	 eax
  0037d	56		 push	 esi
  0037e	e8 00 00 00 00	 call	 ?GetViewVertMinMax_Packet@CViewMinMaxCalculator@@AAE_NPAVCPacket@@ABVCDisplayAttributes@@_NAAVCDisplayDataMinMax@@H@Z ; CViewMinMaxCalculator::GetViewVertMinMax_Packet

; 161  : }

  00383	8b 4d f4	 mov	 ecx, DWORD PTR __$EHRec$[ebp]
  00386	64 89 0d 00 00
	00 00		 mov	 DWORD PTR fs:0, ecx
  0038d	59		 pop	 ecx
  0038e	5f		 pop	 edi
  0038f	5e		 pop	 esi
  00390	5b		 pop	 ebx
  00391	8b e5		 mov	 esp, ebp
  00393	5d		 pop	 ebp
  00394	c2 10 00	 ret	 16			; 00000010H
$LN10@GetViewVer:

; 135  : 	else if(inputData.GetIndicatorName() == _MTEXT( C3_MARKET_PROFILE))

  00397	8d 45 08	 lea	 eax, DWORD PTR $T21[ebp]
  0039a	50		 push	 eax
  0039b	e8 00 00 00 00	 call	 ?GetIndicatorName@CVertDisplayDataMinMaxInputData@@QBE?AV?$CStringT@DV?$StrTraitMFC_DLL@DV?$ChTraitsCRT@D@ATL@@@@@ATL@@XZ ; CVertDisplayDataMinMaxInputData::GetIndicatorName
  003a0	8b 0d 54 00 00
	00		 mov	 ecx, DWORD PTR ?g_iMetaTable@@3VIMetaTable@@A+84
  003a6	c7 45 fc 05 00
	00 00		 mov	 DWORD PTR __$EHRec$[ebp+8], 5
; File C:\Program Files (x86)\Microsoft Visual Studio\2019\Community\VC\Tools\MSVC\14.29.30133\atlmfc\include\cstringt.h

; 2486 : 		return(str1.Compare(psz2) == 0);

  003ad	ff b1 b0 04 00
	00		 push	 DWORD PTR [ecx+1200]
  003b3	8b c8		 mov	 ecx, eax
  003b5	ff 15 00 00 00
	00		 call	 DWORD PTR __imp_?Compare@?$CStringT@DV?$StrTraitMFC_DLL@DV?$ChTraitsCRT@D@ATL@@@@@ATL@@QBEHPBD@Z
; File D:\git\src\IBK\IBK_DRFN\ProjSrc\SrcChartEx\ChartOCX\ChartObject\ViewMinMaxCalculator.cpp

; 135  : 	else if(inputData.GetIndicatorName() == _MTEXT( C3_MARKET_PROFILE))

  003bb	8d 4d 08	 lea	 ecx, DWORD PTR $T21[ebp]
  003be	c7 45 fc ff ff
	ff ff		 mov	 DWORD PTR __$EHRec$[ebp+8], -1
; File C:\Program Files (x86)\Microsoft Visual Studio\2019\Community\VC\Tools\MSVC\14.29.30133\atlmfc\include\cstringt.h

; 2486 : 		return(str1.Compare(psz2) == 0);

  003c5	8b f0		 mov	 esi, eax
; File D:\git\src\IBK\IBK_DRFN\ProjSrc\SrcChartEx\ChartOCX\ChartObject\ViewMinMaxCalculator.cpp

; 135  : 	else if(inputData.GetIndicatorName() == _MTEXT( C3_MARKET_PROFILE))

  003c7	ff 15 00 00 00
	00		 call	 DWORD PTR __imp_??1?$CStringT@DV?$StrTraitMFC_DLL@DV?$ChTraitsCRT@D@ATL@@@@@ATL@@QAE@XZ
  003cd	8b cf		 mov	 ecx, edi
  003cf	85 f6		 test	 esi, esi
  003d1	0f 85 89 00 00
	00		 jne	 $LN12@GetViewVer

; 279  : 	CMPPacket* pMPPacket = (CMPPacket*) inputData.GetSubGraphPacketList()->GetHeadPacket();

  003d7	e8 00 00 00 00	 call	 ?GetSubGraphPacketList@CVertDisplayDataMinMaxInputData@@QBEPAVCSubGraphPacketList@@XZ ; CVertDisplayDataMinMaxInputData::GetSubGraphPacketList
  003dc	8b c8		 mov	 ecx, eax
  003de	e8 00 00 00 00	 call	 ?GetHeadPacket@CSubGraphPacketList@@QAEPAVCPacket@@XZ ; CSubGraphPacketList::GetHeadPacket

; 280  : 	if(pMPPacket == NULL)

  003e3	85 c0		 test	 eax, eax
  003e5	0f 84 5c fd ff
	ff		 je	 $LN86@GetViewVer

; 281  : 		return false;
; 282  : 
; 283  : 	// (2004.01.20, 배승원) 각 가격구간의 대표값 범주는 전체 가격범주보다 단위 가격폭이 적다.
; 284  : 	//		전체 가격범주를 구하는 Interface로 변경한다.
; 285  : 	//		또한, Double이 아닌 IntX100를 이용한다.
; 286  : 	int nMinX100, nMaxX100;
; 287  : 	if( !pMPPacket->GetPriceScaleX100( nMinX100, nMaxX100)) return false;

  003eb	8d 4d 10	 lea	 ecx, DWORD PTR _nMaxX100$26[ebp]
  003ee	51		 push	 ecx
  003ef	8d 4d 14	 lea	 ecx, DWORD PTR _nMinX100$29[ebp]
  003f2	51		 push	 ecx
  003f3	8b c8		 mov	 ecx, eax
  003f5	ff 15 00 00 00
	00		 call	 DWORD PTR __imp_?GetPriceScaleX100@CMPPacket@@QAEHAAH0@Z
  003fb	85 c0		 test	 eax, eax
  003fd	0f 84 44 fd ff
	ff		 je	 $LN86@GetViewVer

; 288  : 
; 289  : 	displayDataMinMax.SetDisplayData( ( nMinX100 - 15) / 100., ( nMaxX100 + 15) / 100.);

  00403	8b 45 10	 mov	 eax, DWORD PTR _nMaxX100$26[ebp]
  00406	83 c0 0f	 add	 eax, 15			; 0000000fH
  00409	8b 4d 0c	 mov	 ecx, DWORD PTR _displayDataMinMax$[ebp]
  0040c	66 0f 6e c0	 movd	 xmm0, eax
  00410	f3 0f e6 c0	 cvtdq2pd xmm0, xmm0
  00414	8b 45 14	 mov	 eax, DWORD PTR _nMinX100$29[ebp]
  00417	83 c0 f1	 add	 eax, -15		; fffffff1H
  0041a	f2 0f 5e 05 00
	00 00 00	 divsd	 xmm0, QWORD PTR __real@4059000000000000
  00422	f2 0f 11 45 d0	 movsd	 QWORD PTR $T2[ebp], xmm0
  00427	66 0f 6e c0	 movd	 xmm0, eax
  0042b	8d 45 d0	 lea	 eax, DWORD PTR $T2[ebp]
  0042e	f3 0f e6 c0	 cvtdq2pd xmm0, xmm0
  00432	50		 push	 eax
  00433	8d 45 dc	 lea	 eax, DWORD PTR $T10[ebp]
  00436	50		 push	 eax
  00437	f2 0f 5e 05 00
	00 00 00	 divsd	 xmm0, QWORD PTR __real@4059000000000000
  0043f	f2 0f 11 45 dc	 movsd	 QWORD PTR $T10[ebp], xmm0
  00444	ff 15 00 00 00
	00		 call	 DWORD PTR __imp_?SetDisplayData@CDisplayDataMinMax@@QAEXABN0@Z

; 290  : 	return true;

  0044a	b0 01		 mov	 al, 1

; 161  : }

  0044c	8b 4d f4	 mov	 ecx, DWORD PTR __$EHRec$[ebp]
  0044f	64 89 0d 00 00
	00 00		 mov	 DWORD PTR fs:0, ecx
  00456	59		 pop	 ecx
  00457	5f		 pop	 edi
  00458	5e		 pop	 esi
  00459	5b		 pop	 ebx
  0045a	8b e5		 mov	 esp, ebp
  0045c	5d		 pop	 ebp
  0045d	c2 10 00	 ret	 16			; 00000010H
$LN12@GetViewVer:

; 136  : 		return GetViewVertMinMax_MarketProfile(inputData, displayDataMinMax);
; 137  : 	// ( + ) percent 형태인 경우 - "심리지표", "RSI", "Stochastics Fast", "Stochastics Slow"
; 138  : 	else if( g_iMetaTable.IsScaleGroup_PlusPercent(inputData.GetIndicatorName()))

  00460	8d 45 08	 lea	 eax, DWORD PTR $T20[ebp]
  00463	50		 push	 eax
  00464	e8 00 00 00 00	 call	 ?GetIndicatorName@CVertDisplayDataMinMaxInputData@@QBE?AV?$CStringT@DV?$StrTraitMFC_DLL@DV?$ChTraitsCRT@D@ATL@@@@@ATL@@XZ ; CVertDisplayDataMinMaxInputData::GetIndicatorName
  00469	50		 push	 eax
  0046a	b9 00 00 00 00	 mov	 ecx, OFFSET ?g_iMetaTable@@3VIMetaTable@@A ; g_iMetaTable
  0046f	c7 45 fc 06 00
	00 00		 mov	 DWORD PTR __$EHRec$[ebp+8], 6
  00476	e8 00 00 00 00	 call	 ?IsScaleGroup_PlusPercent@IMetaTable@@QAE_NABV?$CStringT@DV?$StrTraitMFC_DLL@DV?$ChTraitsCRT@D@ATL@@@@@ATL@@@Z ; IMetaTable::IsScaleGroup_PlusPercent
  0047b	8d 4d 08	 lea	 ecx, DWORD PTR $T20[ebp]
  0047e	c7 45 fc ff ff
	ff ff		 mov	 DWORD PTR __$EHRec$[ebp+8], -1
  00485	8a d8		 mov	 bl, al
  00487	ff 15 00 00 00
	00		 call	 DWORD PTR __imp_??1?$CStringT@DV?$StrTraitMFC_DLL@DV?$ChTraitsCRT@D@ATL@@@@@ATL@@QAE@XZ
  0048d	84 db		 test	 bl, bl
  0048f	74 46		 je	 SHORT $LN14@GetViewVer

; 139  : 	{
; 140  : 		displayDataMinMax = CDisplayDataMinMax(0.0, 100.0);

  00491	f2 0f 10 05 00
	00 00 00	 movsd	 xmm0, QWORD PTR __real@4059000000000000
  00499	f2 0f 11 45 d0	 movsd	 QWORD PTR $T8[ebp], xmm0
  0049e	0f 57 c0	 xorps	 xmm0, xmm0
$LN85@GetViewVer:

; 161  : }

  004a1	8d 45 d0	 lea	 eax, DWORD PTR $T8[ebp]
  004a4	f2 0f 11 45 dc	 movsd	 QWORD PTR $T12[ebp], xmm0
  004a9	50		 push	 eax
  004aa	8d 45 dc	 lea	 eax, DWORD PTR $T12[ebp]
  004ad	50		 push	 eax
  004ae	8d 4d e4	 lea	 ecx, DWORD PTR $T14[ebp]
  004b1	ff 15 00 00 00
	00		 call	 DWORD PTR __imp_??0CDisplayDataMinMax@@QAE@ABN0@Z
  004b7	8b 4d 0c	 mov	 ecx, DWORD PTR _displayDataMinMax$[ebp]
  004ba	50		 push	 eax
  004bb	ff 15 00 00 00
	00		 call	 DWORD PTR __imp_??4CDisplayDataMinMax@@QAEAAV0@ABV0@@Z
  004c1	b0 01		 mov	 al, 1
  004c3	8b 4d f4	 mov	 ecx, DWORD PTR __$EHRec$[ebp]
  004c6	64 89 0d 00 00
	00 00		 mov	 DWORD PTR fs:0, ecx
  004cd	59		 pop	 ecx
  004ce	5f		 pop	 edi
  004cf	5e		 pop	 esi
  004d0	5b		 pop	 ebx
  004d1	8b e5		 mov	 esp, ebp
  004d3	5d		 pop	 ebp
  004d4	c2 10 00	 ret	 16			; 00000010H
$LN14@GetViewVer:

; 141  : 		return true;
; 142  : 	}
; 143  : 	// (-) percent 형태인 경우 - "William's %R"
; 144  : 	else if( g_iMetaTable.IsScaleGroup_MinusPercent(inputData.GetIndicatorName()))

  004d7	8d 45 08	 lea	 eax, DWORD PTR $T19[ebp]
  004da	8b cf		 mov	 ecx, edi
  004dc	50		 push	 eax
  004dd	e8 00 00 00 00	 call	 ?GetIndicatorName@CVertDisplayDataMinMaxInputData@@QBE?AV?$CStringT@DV?$StrTraitMFC_DLL@DV?$ChTraitsCRT@D@ATL@@@@@ATL@@XZ ; CVertDisplayDataMinMaxInputData::GetIndicatorName
  004e2	50		 push	 eax
  004e3	b9 00 00 00 00	 mov	 ecx, OFFSET ?g_iMetaTable@@3VIMetaTable@@A ; g_iMetaTable
  004e8	c7 45 fc 07 00
	00 00		 mov	 DWORD PTR __$EHRec$[ebp+8], 7
  004ef	e8 00 00 00 00	 call	 ?IsScaleGroup_MinusPercent@IMetaTable@@QAE_NABV?$CStringT@DV?$StrTraitMFC_DLL@DV?$ChTraitsCRT@D@ATL@@@@@ATL@@@Z ; IMetaTable::IsScaleGroup_MinusPercent
  004f4	8d 4d 08	 lea	 ecx, DWORD PTR $T19[ebp]
  004f7	c7 45 fc ff ff
	ff ff		 mov	 DWORD PTR __$EHRec$[ebp+8], -1
  004fe	8a d8		 mov	 bl, al
  00500	ff 15 00 00 00
	00		 call	 DWORD PTR __imp_??1?$CStringT@DV?$StrTraitMFC_DLL@DV?$ChTraitsCRT@D@ATL@@@@@ATL@@QAE@XZ
  00506	84 db		 test	 bl, bl
  00508	74 12		 je	 SHORT $LN16@GetViewVer

; 145  : 	{
; 146  : 		displayDataMinMax = CDisplayDataMinMax(-100.0, 0.0);

  0050a	0f 57 c0	 xorps	 xmm0, xmm0
  0050d	f2 0f 11 45 d0	 movsd	 QWORD PTR $T7[ebp], xmm0
  00512	f2 0f 10 05 00
	00 00 00	 movsd	 xmm0, QWORD PTR __real@c059000000000000

; 147  : 		return true;

  0051a	eb 85		 jmp	 SHORT $LN85@GetViewVer
$LN16@GetViewVer:

; 150  : 	else if(inputData.GetIndicatorName() == _MTEXT( C2_DISPERSION))

  0051c	8d 45 08	 lea	 eax, DWORD PTR $T18[ebp]
  0051f	8b cf		 mov	 ecx, edi
  00521	50		 push	 eax
  00522	e8 00 00 00 00	 call	 ?GetIndicatorName@CVertDisplayDataMinMaxInputData@@QBE?AV?$CStringT@DV?$StrTraitMFC_DLL@DV?$ChTraitsCRT@D@ATL@@@@@ATL@@XZ ; CVertDisplayDataMinMaxInputData::GetIndicatorName
  00527	8b 0d 54 00 00
	00		 mov	 ecx, DWORD PTR ?g_iMetaTable@@3VIMetaTable@@A+84
  0052d	c7 45 fc 08 00
	00 00		 mov	 DWORD PTR __$EHRec$[ebp+8], 8
; File C:\Program Files (x86)\Microsoft Visual Studio\2019\Community\VC\Tools\MSVC\14.29.30133\atlmfc\include\cstringt.h

; 2486 : 		return(str1.Compare(psz2) == 0);

  00534	ff b1 90 0c 00
	00		 push	 DWORD PTR [ecx+3216]
  0053a	8b c8		 mov	 ecx, eax
  0053c	ff 15 00 00 00
	00		 call	 DWORD PTR __imp_?Compare@?$CStringT@DV?$StrTraitMFC_DLL@DV?$ChTraitsCRT@D@ATL@@@@@ATL@@QBEHPBD@Z
; File D:\git\src\IBK\IBK_DRFN\ProjSrc\SrcChartEx\ChartOCX\ChartObject\ViewMinMaxCalculator.cpp

; 150  : 	else if(inputData.GetIndicatorName() == _MTEXT( C2_DISPERSION))

  00542	8d 4d 08	 lea	 ecx, DWORD PTR $T18[ebp]
  00545	c7 45 fc ff ff
	ff ff		 mov	 DWORD PTR __$EHRec$[ebp+8], -1
; File C:\Program Files (x86)\Microsoft Visual Studio\2019\Community\VC\Tools\MSVC\14.29.30133\atlmfc\include\cstringt.h

; 2486 : 		return(str1.Compare(psz2) == 0);

  0054c	8b f0		 mov	 esi, eax
; File D:\git\src\IBK\IBK_DRFN\ProjSrc\SrcChartEx\ChartOCX\ChartObject\ViewMinMaxCalculator.cpp

; 150  : 	else if(inputData.GetIndicatorName() == _MTEXT( C2_DISPERSION))

  0054e	ff 15 00 00 00
	00		 call	 DWORD PTR __imp_??1?$CStringT@DV?$StrTraitMFC_DLL@DV?$ChTraitsCRT@D@ATL@@@@@ATL@@QAE@XZ
  00554	8b cf		 mov	 ecx, edi
  00556	85 f6		 test	 esi, esi
  00558	75 34		 jne	 SHORT $LN18@GetViewVer

; 674  : 	CSubGraphPacketList *pSubGraphPacketList = inputData.GetSubGraphPacketList();

  0055a	e8 00 00 00 00	 call	 ?GetSubGraphPacketList@CVertDisplayDataMinMaxInputData@@QBEPAVCSubGraphPacketList@@XZ ; CVertDisplayDataMinMaxInputData::GetSubGraphPacketList
  0055f	8b f0		 mov	 esi, eax

; 675  : 	if( !pSubGraphPacketList) return false;

  00561	85 f6		 test	 esi, esi
  00563	0f 84 de fb ff
	ff		 je	 $LN86@GetViewVer

; 676  : 
; 677  : 	// 2. 종가 Packet을 확보한다.
; 678  : 	POSITION pos = pSubGraphPacketList->GetHeadPosition();

  00569	8b ce		 mov	 ecx, esi
  0056b	e8 00 00 00 00	 call	 ?GetHeadPosition@CSubGraphPacketList@@QAEPAU__POSITION@@XZ ; CSubGraphPacketList::GetHeadPosition
  00570	89 45 14	 mov	 DWORD PTR _pos$28[ebp], eax

; 679  : 	if( !pos) FALSE;
; 680  : 	CPacket* pPacket = pSubGraphPacketList->GetNext( pos);	//시가Packet

  00573	8b ce		 mov	 ecx, esi
  00575	8d 45 14	 lea	 eax, DWORD PTR _pos$28[ebp]
  00578	50		 push	 eax
  00579	e8 00 00 00 00	 call	 ?GetNext@CSubGraphPacketList@@QAEPAVCPacket@@AAPAU__POSITION@@@Z ; CSubGraphPacketList::GetNext

; 681  : 	if( !pos) FALSE;
; 682  : 	pPacket = pSubGraphPacketList->GetNext( pos);			//종가Packet

  0057e	8d 45 14	 lea	 eax, DWORD PTR _pos$28[ebp]
  00581	8b ce		 mov	 ecx, esi
  00583	50		 push	 eax
  00584	e8 00 00 00 00	 call	 ?GetNext@CSubGraphPacketList@@QAEPAVCPacket@@AAPAU__POSITION@@@Z ; CSubGraphPacketList::GetNext

; 151  : 		return GetViewVertMinMax_DisperSion(inputData, displayDataMinMax, p_bWithFullRange);

  00589	e9 3b fb ff ff	 jmp	 $LN84@GetViewVer
$LN18@GetViewVer:

; 152  : 	// (2007/1/15 - Seung-Won, Bae) Line Chart of Price Chart
; 153  : 	// 기준선 보임 환경설정과 Scale 자동포함 기능 - ojtaso (20071101)
; 154  : 	if( ( inputData.GetSubGraphType() == CGraphBaseData::Bong_Type
; 155  : 			&& inputData.GetSubGraphStyle().GetGraphBongStyle() == CGraphBaseData::LineBong)
; 156  : 		|| ( inputData.GetSubGraphType() == CGraphBaseData::Line_Type

  0058e	e8 00 00 00 00	 call	 ?GetSubGraphType@CVertDisplayDataMinMaxInputData@@QBE?AW4GRAPHTYPE@CGraphBaseData@@XZ ; CVertDisplayDataMinMaxInputData::GetSubGraphType
  00593	85 c0		 test	 eax, eax
  00595	75 10		 jne	 SHORT $LN21@GetViewVer
  00597	8d 45 08	 lea	 eax, DWORD PTR $T17[ebp]
  0059a	8b cf		 mov	 ecx, edi
  0059c	50		 push	 eax
  0059d	e8 00 00 00 00	 call	 ?GetSubGraphStyle@CVertDisplayDataMinMaxInputData@@QBE?AVCGraphStyle@@XZ ; CVertDisplayDataMinMaxInputData::GetSubGraphStyle
  005a2	83 38 02	 cmp	 DWORD PTR [eax], 2
  005a5	74 1c		 je	 SHORT $LN20@GetViewVer
$LN21@GetViewVer:
  005a7	8b cf		 mov	 ecx, edi
  005a9	e8 00 00 00 00	 call	 ?GetSubGraphType@CVertDisplayDataMinMaxInputData@@QBE?AW4GRAPHTYPE@CGraphBaseData@@XZ ; CVertDisplayDataMinMaxInputData::GetSubGraphType
  005ae	83 f8 01	 cmp	 eax, 1
  005b1	75 36		 jne	 SHORT $LN19@GetViewVer
  005b3	8d 45 d8	 lea	 eax, DWORD PTR $T9[ebp]
  005b6	8b cf		 mov	 ecx, edi
  005b8	50		 push	 eax
  005b9	e8 00 00 00 00	 call	 ?GetSubGraphStyle@CVertDisplayDataMinMaxInputData@@QBE?AVCGraphStyle@@XZ ; CVertDisplayDataMinMaxInputData::GetSubGraphStyle
  005be	83 38 06	 cmp	 DWORD PTR [eax], 6
  005c1	75 26		 jne	 SHORT $LN19@GetViewVer
$LN20@GetViewVer:

; 157  : 			&& inputData.GetSubGraphStyle().GetGraphLineStyle() == CGraphBaseData::ComparisonLine))
; 158  : 		return GetViewVertMinMax_EndPacket( inputData, displayDataMinMax, p_bWithFullRange, bDrawBaseLine);

  005c3	ff 75 14	 push	 DWORD PTR _bDrawBaseLine$[ebp]
  005c6	8b 4d f0	 mov	 ecx, DWORD PTR _this$1$[ebp]
  005c9	ff 75 10	 push	 DWORD PTR _p_bWithFullRange$[ebp]
  005cc	ff 75 0c	 push	 DWORD PTR _displayDataMinMax$[ebp]
  005cf	57		 push	 edi
  005d0	e8 00 00 00 00	 call	 ?GetViewVertMinMax_EndPacket@CViewMinMaxCalculator@@AAE_NABVCVertDisplayDataMinMaxInputData@@AAVCDisplayDataMinMax@@HH@Z ; CViewMinMaxCalculator::GetViewVertMinMax_EndPacket

; 161  : }

  005d5	8b 4d f4	 mov	 ecx, DWORD PTR __$EHRec$[ebp]
  005d8	64 89 0d 00 00
	00 00		 mov	 DWORD PTR fs:0, ecx
  005df	59		 pop	 ecx
  005e0	5f		 pop	 edi
  005e1	5e		 pop	 esi
  005e2	5b		 pop	 ebx
  005e3	8b e5		 mov	 esp, ebp
  005e5	5d		 pop	 ebp
  005e6	c2 10 00	 ret	 16			; 00000010H
$LN19@GetViewVer:

; 159  : 
; 160  : 	return GetViewVertMinMax_Indicate_General_Gap(inputData, displayDataMinMax, p_bWithFullRange);

  005e9	ff 75 10	 push	 DWORD PTR _p_bWithFullRange$[ebp]
  005ec	8b 4d f0	 mov	 ecx, DWORD PTR _this$1$[ebp]
  005ef	ff 75 0c	 push	 DWORD PTR _displayDataMinMax$[ebp]
  005f2	57		 push	 edi
  005f3	e8 00 00 00 00	 call	 ?GetViewVertMinMax_Indicate_General_Gap@CViewMinMaxCalculator@@AAE_NABVCVertDisplayDataMinMaxInputData@@AAVCDisplayDataMinMax@@H@Z ; CViewMinMaxCalculator::GetViewVertMinMax_Indicate_General_Gap

; 161  : }

  005f8	8b 4d f4	 mov	 ecx, DWORD PTR __$EHRec$[ebp]
  005fb	64 89 0d 00 00
	00 00		 mov	 DWORD PTR fs:0, ecx
  00602	59		 pop	 ecx
  00603	5f		 pop	 edi
  00604	5e		 pop	 esi
  00605	5b		 pop	 ebx
  00606	8b e5		 mov	 esp, ebp
  00608	5d		 pop	 ebp
  00609	c2 10 00	 ret	 16			; 00000010H
_TEXT	ENDS
;	COMDAT text$x
text$x	SEGMENT
__unwindfunclet$?GetViewVertMinMax_Indicate@CViewMinMaxCalculator@@AAE_NABVCVertDisplayDataMinMaxInputData@@AAVCDisplayDataMinMax@@HH@Z$0:
  00000	8d 4d e0	 lea	 ecx, DWORD PTR $T13[ebp]
  00003	ff 25 00 00 00
	00		 jmp	 DWORD PTR __imp_??1?$CStringT@DV?$StrTraitMFC_DLL@DV?$ChTraitsCRT@D@ATL@@@@@ATL@@QAE@XZ
__unwindfunclet$?GetViewVertMinMax_Indicate@CViewMinMaxCalculator@@AAE_NABVCVertDisplayDataMinMaxInputData@@AAVCDisplayDataMinMax@@HH@Z$1:
  00009	8d 4d 08	 lea	 ecx, DWORD PTR $T25[ebp]
  0000c	ff 25 00 00 00
	00		 jmp	 DWORD PTR __imp_??1?$CStringT@DV?$StrTraitMFC_DLL@DV?$ChTraitsCRT@D@ATL@@@@@ATL@@QAE@XZ
__unwindfunclet$?GetViewVertMinMax_Indicate@CViewMinMaxCalculator@@AAE_NABVCVertDisplayDataMinMaxInputData@@AAVCDisplayDataMinMax@@HH@Z$2:
  00012	8d 4d 08	 lea	 ecx, DWORD PTR $T24[ebp]
  00015	ff 25 00 00 00
	00		 jmp	 DWORD PTR __imp_??1?$CStringT@DV?$StrTraitMFC_DLL@DV?$ChTraitsCRT@D@ATL@@@@@ATL@@QAE@XZ
__unwindfunclet$?GetViewVertMinMax_Indicate@CViewMinMaxCalculator@@AAE_NABVCVertDisplayDataMinMaxInputData@@AAVCDisplayDataMinMax@@HH@Z$3:
  0001b	8d 4d 08	 lea	 ecx, DWORD PTR $T23[ebp]
  0001e	ff 25 00 00 00
	00		 jmp	 DWORD PTR __imp_??1?$CStringT@DV?$StrTraitMFC_DLL@DV?$ChTraitsCRT@D@ATL@@@@@ATL@@QAE@XZ
__unwindfunclet$?GetViewVertMinMax_Indicate@CViewMinMaxCalculator@@AAE_NABVCVertDisplayDataMinMaxInputData@@AAVCDisplayDataMinMax@@HH@Z$4:
  00024	8d 4d 08	 lea	 ecx, DWORD PTR $T22[ebp]
  00027	ff 25 00 00 00
	00		 jmp	 DWORD PTR __imp_??1?$CStringT@DV?$StrTraitMFC_DLL@DV?$ChTraitsCRT@D@ATL@@@@@ATL@@QAE@XZ
__unwindfunclet$?GetViewVertMinMax_Indicate@CViewMinMaxCalculator@@AAE_NABVCVertDisplayDataMinMaxInputData@@AAVCDisplayDataMinMax@@HH@Z$5:
  0002d	8d 4d 08	 lea	 ecx, DWORD PTR $T21[ebp]
  00030	ff 25 00 00 00
	00		 jmp	 DWORD PTR __imp_??1?$CStringT@DV?$StrTraitMFC_DLL@DV?$ChTraitsCRT@D@ATL@@@@@ATL@@QAE@XZ
__unwindfunclet$?GetViewVertMinMax_Indicate@CViewMinMaxCalculator@@AAE_NABVCVertDisplayDataMinMaxInputData@@AAVCDisplayDataMinMax@@HH@Z$6:
  00036	8d 4d 08	 lea	 ecx, DWORD PTR $T20[ebp]
  00039	ff 25 00 00 00
	00		 jmp	 DWORD PTR __imp_??1?$CStringT@DV?$StrTraitMFC_DLL@DV?$ChTraitsCRT@D@ATL@@@@@ATL@@QAE@XZ
__unwindfunclet$?GetViewVertMinMax_Indicate@CViewMinMaxCalculator@@AAE_NABVCVertDisplayDataMinMaxInputData@@AAVCDisplayDataMinMax@@HH@Z$7:
  0003f	8d 4d 08	 lea	 ecx, DWORD PTR $T19[ebp]
  00042	ff 25 00 00 00
	00		 jmp	 DWORD PTR __imp_??1?$CStringT@DV?$StrTraitMFC_DLL@DV?$ChTraitsCRT@D@ATL@@@@@ATL@@QAE@XZ
__unwindfunclet$?GetViewVertMinMax_Indicate@CViewMinMaxCalculator@@AAE_NABVCVertDisplayDataMinMaxInputData@@AAVCDisplayDataMinMax@@HH@Z$8:
  00048	8d 4d 08	 lea	 ecx, DWORD PTR $T18[ebp]
  0004b	ff 25 00 00 00
	00		 jmp	 DWORD PTR __imp_??1?$CStringT@DV?$StrTraitMFC_DLL@DV?$ChTraitsCRT@D@ATL@@@@@ATL@@QAE@XZ
  00051	cc		 int	 3
  00052	cc		 int	 3
  00053	cc		 int	 3
  00054	cc		 int	 3
  00055	cc		 int	 3
__ehhandler$?GetViewVertMinMax_Indicate@CViewMinMaxCalculator@@AAE_NABVCVertDisplayDataMinMaxInputData@@AAVCDisplayDataMinMax@@HH@Z:
  00056	90		 npad	 1
  00057	90		 npad	 1
  00058	8b 54 24 08	 mov	 edx, DWORD PTR [esp+8]
  0005c	8d 42 0c	 lea	 eax, DWORD PTR [edx+12]
  0005f	8b 4a cc	 mov	 ecx, DWORD PTR [edx-52]
  00062	33 c8		 xor	 ecx, eax
  00064	e8 00 00 00 00	 call	 @__security_check_cookie@4
  00069	b8 00 00 00 00	 mov	 eax, OFFSET __ehfuncinfo$?GetViewVertMinMax_Indicate@CViewMinMaxCalculator@@AAE_NABVCVertDisplayDataMinMaxInputData@@AAVCDisplayDataMinMax@@HH@Z
  0006e	e9 00 00 00 00	 jmp	 ___CxxFrameHandler3
text$x	ENDS
?GetViewVertMinMax_Indicate@CViewMinMaxCalculator@@AAE_NABVCVertDisplayDataMinMaxInputData@@AAVCDisplayDataMinMax@@HH@Z ENDP ; CViewMinMaxCalculator::GetViewVertMinMax_Indicate
; Function compile flags: /Ogtp
; File D:\git\src\IBK\IBK_DRFN\ProjSrc\SrcChartEx\ChartOCX\ChartObject\ViewMinMaxCalculator.cpp
;	COMDAT ?GetViewHorzMinMax_MarketProfile@CViewMinMaxCalculator@@ABE?AVCDisplayDataMinMax@@ABVCHorzDisplayDataMinMaxInputData@@@Z
_TEXT	SEGMENT
_dMin$ = -16						; size = 8
_dMax$ = -8						; size = 8
___$ReturnUdt$ = 8					; size = 4
_inputData$ = 12					; size = 4
?GetViewHorzMinMax_MarketProfile@CViewMinMaxCalculator@@ABE?AVCDisplayDataMinMax@@ABVCHorzDisplayDataMinMaxInputData@@@Z PROC ; CViewMinMaxCalculator::GetViewHorzMinMax_MarketProfile, COMDAT
; _this$ = ecx

; 82   : {

  00000	55		 push	 ebp
  00001	8b ec		 mov	 ebp, esp
  00003	83 ec 10	 sub	 esp, 16			; 00000010H

; 83   : /*
; 84   : 	if(inputData.GetPacket() == NULL)
; 85   : 		return CDisplayDataMinMax(0.0, 0.0);
; 86   : 
; 87   : 	CMPPacket* pMPPacket = (CMPPacket*) inputData.GetPacket();
; 88   : 	CList<CMProfile*, CMProfile*>* pMProfileList = pMPPacket->GetMarketProfileList();
; 89   : 	if(pMProfileList == NULL || pMProfileList->GetCount() <= 0)
; 90   : 		return CDisplayDataMinMax(0.0, 0.0);
; 91   : */
; 92   : 	double dMin = 0.0;
; 93   : 	double dMax = 0.0;
; 94   : /*
; 95   : 	CMProfile* pMProfile = pMProfileList->GetHead();
; 96   : 	if( pMProfile != NULL) dMin = pMProfile->GetDate();
; 97   : 	pMProfile = pMProfileList->GetTail();
; 98   : 	if( pMProfile != NULL) dMax = pMProfile->GetDate();
; 99   : */
; 100  : 	return 	CDisplayDataMinMax( dMin, dMax);

  00006	8b 4d 08	 mov	 ecx, DWORD PTR ___$ReturnUdt$[ebp]
  00009	8d 45 f8	 lea	 eax, DWORD PTR _dMax$[ebp]
  0000c	50		 push	 eax
  0000d	0f 57 c0	 xorps	 xmm0, xmm0
  00010	8d 45 f0	 lea	 eax, DWORD PTR _dMin$[ebp]
  00013	50		 push	 eax
  00014	f2 0f 11 45 f0	 movsd	 QWORD PTR _dMin$[ebp], xmm0
  00019	f2 0f 11 45 f8	 movsd	 QWORD PTR _dMax$[ebp], xmm0
  0001e	ff 15 00 00 00
	00		 call	 DWORD PTR __imp_??0CDisplayDataMinMax@@QAE@ABN0@Z
  00024	8b 45 08	 mov	 eax, DWORD PTR ___$ReturnUdt$[ebp]

; 101  : }

  00027	8b e5		 mov	 esp, ebp
  00029	5d		 pop	 ebp
  0002a	c2 08 00	 ret	 8
?GetViewHorzMinMax_MarketProfile@CViewMinMaxCalculator@@ABE?AVCDisplayDataMinMax@@ABVCHorzDisplayDataMinMaxInputData@@@Z ENDP ; CViewMinMaxCalculator::GetViewHorzMinMax_MarketProfile
_TEXT	ENDS
; Function compile flags: /Ogtp
; File D:\git\src\IBK\IBK_DRFN\ProjSrc\SrcChartEx\ChartOCX\ChartObject\ViewMinMaxCalculator.cpp
;	COMDAT ?IsViewVertMinMax@CViewMinMaxCalculator@@ABE_NPAVCSubGraphPacketList@@@Z
_TEXT	SEGMENT
_pSubGraphPacketList$ = 8				; size = 4
?IsViewVertMinMax@CViewMinMaxCalculator@@ABE_NPAVCSubGraphPacketList@@@Z PROC ; CViewMinMaxCalculator::IsViewVertMinMax, COMDAT
; _this$ = ecx

; 75   : {

  00000	55		 push	 ebp
  00001	8b ec		 mov	 ebp, esp

; 76   : 	return (pSubGraphPacketList != NULL && pSubGraphPacketList->GetCount() > 0);

  00003	8b 4d 08	 mov	 ecx, DWORD PTR _pSubGraphPacketList$[ebp]
  00006	85 c9		 test	 ecx, ecx
  00008	74 0f		 je	 SHORT $LN3@IsViewVert
  0000a	e8 00 00 00 00	 call	 ?GetCount@CSubGraphPacketList@@QBEHXZ ; CSubGraphPacketList::GetCount
  0000f	85 c0		 test	 eax, eax
  00011	7e 06		 jle	 SHORT $LN3@IsViewVert
  00013	b0 01		 mov	 al, 1

; 77   : }

  00015	5d		 pop	 ebp
  00016	c2 04 00	 ret	 4
$LN3@IsViewVert:

; 76   : 	return (pSubGraphPacketList != NULL && pSubGraphPacketList->GetCount() > 0);

  00019	32 c0		 xor	 al, al

; 77   : }

  0001b	5d		 pop	 ebp
  0001c	c2 04 00	 ret	 4
?IsViewVertMinMax@CViewMinMaxCalculator@@ABE_NPAVCSubGraphPacketList@@@Z ENDP ; CViewMinMaxCalculator::IsViewVertMinMax
_TEXT	ENDS
; Function compile flags: /Ogtp
; File D:\git\src\IBK\IBK_DRFN\ProjSrc\SrcChartEx\ChartOCX\ChartObject\ViewMinMaxCalculator.cpp
;	COMDAT ?GetViewVertMinMax@CViewMinMaxCalculator@@QAE_NABVCVertDisplayDataMinMaxInputData@@AAVCDisplayDataMinMax@@HH@Z
_TEXT	SEGMENT
$T1 = -32						; size = 16
$T2 = -16						; size = 8
$T3 = -8						; size = 8
$T4 = 8							; size = 4
$T5 = 8							; size = 4
_inputData$ = 8						; size = 4
_displayDataMinMax$ = 12				; size = 4
_p_bWithFullRange$ = 16					; size = 4
_bDrawBaseLine$ = 20					; size = 4
?GetViewVertMinMax@CViewMinMaxCalculator@@QAE_NABVCVertDisplayDataMinMaxInputData@@AAVCDisplayDataMinMax@@HH@Z PROC ; CViewMinMaxCalculator::GetViewVertMinMax, COMDAT
; _this$ = ecx

; 48   : {

  00000	55		 push	 ebp
  00001	8b ec		 mov	 ebp, esp
  00003	83 ec 20	 sub	 esp, 32			; 00000020H
  00006	53		 push	 ebx
  00007	57		 push	 edi

; 49   : 	if(!IsViewVertMinMax(inputData.GetSubGraphPacketList()))

  00008	8b 7d 08	 mov	 edi, DWORD PTR _inputData$[ebp]
  0000b	8b d9		 mov	 ebx, ecx
  0000d	8b cf		 mov	 ecx, edi
  0000f	e8 00 00 00 00	 call	 ?GetSubGraphPacketList@CVertDisplayDataMinMaxInputData@@QBEPAVCSubGraphPacketList@@XZ ; CVertDisplayDataMinMaxInputData::GetSubGraphPacketList

; 76   : 	return (pSubGraphPacketList != NULL && pSubGraphPacketList->GetCount() > 0);

  00014	85 c0		 test	 eax, eax
  00016	0f 84 d7 00 00
	00		 je	 $LN10@GetViewVer
  0001c	8b c8		 mov	 ecx, eax
  0001e	e8 00 00 00 00	 call	 ?GetCount@CSubGraphPacketList@@QBEHXZ ; CSubGraphPacketList::GetCount
  00023	85 c0		 test	 eax, eax
  00025	0f 8e c8 00 00
	00		 jle	 $LN10@GetViewVer

; 51   : 
; 52   : 	// "백분율" 일 경우
; 53   : 	// (2007/2/16 - Seung-Won, Bae) It can be with ','(comma).
; 54   : 	if( !strncmp( _MTEXT( C6_PERCENT), inputData.GetScaleData(), 6))

  0002b	56		 push	 esi
  0002c	8d 45 08	 lea	 eax, DWORD PTR $T5[ebp]
  0002f	8b cf		 mov	 ecx, edi
  00031	50		 push	 eax
  00032	e8 00 00 00 00	 call	 ?GetScaleData@CVertDisplayDataMinMaxInputData@@QBE?AV?$CStringT@DV?$StrTraitMFC_DLL@DV?$ChTraitsCRT@D@ATL@@@@@ATL@@XZ ; CVertDisplayDataMinMaxInputData::GetScaleData
  00037	6a 06		 push	 6
  00039	ff 30		 push	 DWORD PTR [eax]
  0003b	a1 54 00 00 00	 mov	 eax, DWORD PTR ?g_iMetaTable@@3VIMetaTable@@A+84
  00040	ff b0 80 09 00
	00		 push	 DWORD PTR [eax+2432]
  00046	ff 15 00 00 00
	00		 call	 DWORD PTR __imp__strncmp
  0004c	83 c4 0c	 add	 esp, 12			; 0000000cH
  0004f	8d 4d 08	 lea	 ecx, DWORD PTR $T5[ebp]
  00052	8b f0		 mov	 esi, eax
  00054	ff 15 00 00 00
	00		 call	 DWORD PTR __imp_??1?$CStringT@DV?$StrTraitMFC_DLL@DV?$ChTraitsCRT@D@ATL@@@@@ATL@@QAE@XZ
  0005a	85 f6		 test	 esi, esi
  0005c	75 3b		 jne	 SHORT $LN3@GetViewVer

; 55   : 	{
; 56   : 		displayDataMinMax = CDisplayDataMinMax(0.0, 100.0);

  0005e	f2 0f 10 05 00
	00 00 00	 movsd	 xmm0, QWORD PTR __real@4059000000000000
  00066	8d 45 f8	 lea	 eax, DWORD PTR $T3[ebp]
  00069	50		 push	 eax
  0006a	f2 0f 11 45 f8	 movsd	 QWORD PTR $T3[ebp], xmm0
  0006f	8d 45 f0	 lea	 eax, DWORD PTR $T2[ebp]
  00072	0f 57 c0	 xorps	 xmm0, xmm0
  00075	8d 4d e0	 lea	 ecx, DWORD PTR $T1[ebp]
  00078	50		 push	 eax
  00079	f2 0f 11 45 f0	 movsd	 QWORD PTR $T2[ebp], xmm0
  0007e	ff 15 00 00 00
	00		 call	 DWORD PTR __imp_??0CDisplayDataMinMax@@QAE@ABN0@Z
  00084	8b 4d 0c	 mov	 ecx, DWORD PTR _displayDataMinMax$[ebp]
  00087	50		 push	 eax
  00088	ff 15 00 00 00
	00		 call	 DWORD PTR __imp_??4CDisplayDataMinMax@@QAEAAV0@ABV0@@Z
  0008e	5e		 pop	 esi
  0008f	5f		 pop	 edi

; 57   : 		return true;

  00090	b0 01		 mov	 al, 1

; 69   : }

  00092	5b		 pop	 ebx
  00093	8b e5		 mov	 esp, ebp
  00095	5d		 pop	 ebp
  00096	c2 10 00	 ret	 16			; 00000010H
$LN3@GetViewVer:

; 58   : 	}
; 59   : 
; 60   : 	// "지표 Data" 일 경우
; 61   : 	// (2007/2/16 - Seung-Won, Bae) It can be with ','(comma).
; 62   : 	// 기준선 보임 환경설정과 Scale 자동포함 기능 - ojtaso (20071101)
; 63   : 	if( !strncmp( _MTEXT( C6_INDICATOR_DATA), inputData.GetScaleData(), 9))

  00099	8d 45 08	 lea	 eax, DWORD PTR $T4[ebp]
  0009c	8b cf		 mov	 ecx, edi
  0009e	50		 push	 eax
  0009f	e8 00 00 00 00	 call	 ?GetScaleData@CVertDisplayDataMinMaxInputData@@QBE?AV?$CStringT@DV?$StrTraitMFC_DLL@DV?$ChTraitsCRT@D@ATL@@@@@ATL@@XZ ; CVertDisplayDataMinMaxInputData::GetScaleData
  000a4	6a 09		 push	 9
  000a6	ff 30		 push	 DWORD PTR [eax]
  000a8	a1 54 00 00 00	 mov	 eax, DWORD PTR ?g_iMetaTable@@3VIMetaTable@@A+84
  000ad	ff b0 7c 09 00
	00		 push	 DWORD PTR [eax+2428]
  000b3	ff 15 00 00 00
	00		 call	 DWORD PTR __imp__strncmp
  000b9	83 c4 0c	 add	 esp, 12			; 0000000cH
  000bc	8d 4d 08	 lea	 ecx, DWORD PTR $T4[ebp]
  000bf	8b f0		 mov	 esi, eax
  000c1	ff 15 00 00 00
	00		 call	 DWORD PTR __imp_??1?$CStringT@DV?$StrTraitMFC_DLL@DV?$ChTraitsCRT@D@ATL@@@@@ATL@@QAE@XZ
  000c7	8b cb		 mov	 ecx, ebx
  000c9	ff 75 14	 push	 DWORD PTR _bDrawBaseLine$[ebp]
  000cc	ff 75 10	 push	 DWORD PTR _p_bWithFullRange$[ebp]
  000cf	ff 75 0c	 push	 DWORD PTR _displayDataMinMax$[ebp]
  000d2	57		 push	 edi
  000d3	85 f6		 test	 esi, esi
  000d5	75 0e		 jne	 SHORT $LN4@GetViewVer

; 64   : 		return GetViewVertMinMax_Indicate(inputData, displayDataMinMax, p_bWithFullRange, bDrawBaseLine);

  000d7	e8 00 00 00 00	 call	 ?GetViewVertMinMax_Indicate@CViewMinMaxCalculator@@AAE_NABVCVertDisplayDataMinMaxInputData@@AAVCDisplayDataMinMax@@HH@Z ; CViewMinMaxCalculator::GetViewVertMinMax_Indicate
  000dc	5e		 pop	 esi
  000dd	5f		 pop	 edi

; 69   : }

  000de	5b		 pop	 ebx
  000df	8b e5		 mov	 esp, ebp
  000e1	5d		 pop	 ebp
  000e2	c2 10 00	 ret	 16			; 00000010H
$LN4@GetViewVer:

; 65   : 
; 66   : 	// "packet" 인 경우
; 67   : 	// 기준선 보임 환경설정과 Scale 자동포함 기능 - ojtaso (20071101)
; 68   : 	return GetViewVertMinMax_Etc(inputData, displayDataMinMax, p_bWithFullRange, bDrawBaseLine);

  000e5	e8 00 00 00 00	 call	 ?GetViewVertMinMax_Etc@CViewMinMaxCalculator@@AAE_NABVCVertDisplayDataMinMaxInputData@@AAVCDisplayDataMinMax@@HH@Z ; CViewMinMaxCalculator::GetViewVertMinMax_Etc
  000ea	5e		 pop	 esi
  000eb	5f		 pop	 edi

; 69   : }

  000ec	5b		 pop	 ebx
  000ed	8b e5		 mov	 esp, ebp
  000ef	5d		 pop	 ebp
  000f0	c2 10 00	 ret	 16			; 00000010H
$LN10@GetViewVer:
  000f3	5f		 pop	 edi

; 50   : 		return false;

  000f4	32 c0		 xor	 al, al

; 69   : }

  000f6	5b		 pop	 ebx
  000f7	8b e5		 mov	 esp, ebp
  000f9	5d		 pop	 ebp
  000fa	c2 10 00	 ret	 16			; 00000010H
?GetViewVertMinMax@CViewMinMaxCalculator@@QAE_NABVCVertDisplayDataMinMaxInputData@@AAVCDisplayDataMinMax@@HH@Z ENDP ; CViewMinMaxCalculator::GetViewVertMinMax
_TEXT	ENDS
; Function compile flags: /Ogtp
; File D:\git\src\IBK\IBK_DRFN\ProjSrc\SrcChartEx\ChartOCX\ChartObject\ViewMinMaxCalculator.cpp
; File C:\Program Files (x86)\Microsoft Visual Studio\2019\Community\VC\Tools\MSVC\14.29.30133\atlmfc\include\cstringt.h
; File D:\git\src\IBK\IBK_DRFN\ProjSrc\SrcChartEx\ChartOCX\ChartObject\ViewMinMaxCalculator.cpp
; File C:\Program Files (x86)\Microsoft Visual Studio\2019\Community\VC\Tools\MSVC\14.29.30133\atlmfc\include\cstringt.h
; File D:\git\src\IBK\IBK_DRFN\ProjSrc\SrcChartEx\ChartOCX\ChartObject\ViewMinMaxCalculator.cpp
;	COMDAT ?GetViewHorzMinMax@CViewMinMaxCalculator@@QBE?AVCDisplayDataMinMax@@ABVCHorzDisplayDataMinMaxInputData@@@Z
_TEXT	SEGMENT
_displayDataMinMax$ = -52				; size = 16
$T2 = -36						; size = 8
_dMax$3 = -28						; size = 8
$T4 = -28						; size = 8
_this$1$ = -24						; size = 4
_dMin$5 = -20						; size = 8
$T6 = -20						; size = 8
$T7 = -16						; size = 4
__$EHRec$ = -12						; size = 12
___$ReturnUdt$ = 8					; size = 4
$T8 = 12						; size = 4
_inputData$ = 12					; size = 4
?GetViewHorzMinMax@CViewMinMaxCalculator@@QBE?AVCDisplayDataMinMax@@ABVCHorzDisplayDataMinMaxInputData@@@Z PROC ; CViewMinMaxCalculator::GetViewHorzMinMax, COMDAT
; _this$ = ecx

; 31   : {

  00000	55		 push	 ebp
  00001	8b ec		 mov	 ebp, esp
  00003	6a ff		 push	 -1
  00005	68 00 00 00 00	 push	 __ehhandler$?GetViewHorzMinMax@CViewMinMaxCalculator@@QBE?AVCDisplayDataMinMax@@ABVCHorzDisplayDataMinMaxInputData@@@Z
  0000a	64 a1 00 00 00
	00		 mov	 eax, DWORD PTR fs:0
  00010	50		 push	 eax
  00011	83 ec 28	 sub	 esp, 40			; 00000028H
  00014	56		 push	 esi
  00015	57		 push	 edi
  00016	a1 00 00 00 00	 mov	 eax, DWORD PTR ___security_cookie
  0001b	33 c5		 xor	 eax, ebp
  0001d	50		 push	 eax
  0001e	8d 45 f4	 lea	 eax, DWORD PTR __$EHRec$[ebp]
  00021	64 a3 00 00 00
	00		 mov	 DWORD PTR fs:0, eax
  00027	89 4d e8	 mov	 DWORD PTR _this$1$[ebp], ecx

; 32   : 	// "백분율" 일 경우
; 33   : 	// (2007/2/16 - Seung-Won, Bae) It can be with ','(comma).
; 34   : 	if( !strncmp( _MTEXT( C6_PERCENT), inputData.GetPacketName(), 6))

  0002a	8b 7d 0c	 mov	 edi, DWORD PTR _inputData$[ebp]
  0002d	8d 45 f0	 lea	 eax, DWORD PTR $T7[ebp]
  00030	50		 push	 eax
  00031	8b cf		 mov	 ecx, edi
  00033	e8 00 00 00 00	 call	 ?GetPacketName@CHorzDisplayDataMinMaxInputData@@QBE?AV?$CStringT@DV?$StrTraitMFC_DLL@DV?$ChTraitsCRT@D@ATL@@@@@ATL@@XZ ; CHorzDisplayDataMinMaxInputData::GetPacketName
  00038	6a 06		 push	 6
  0003a	ff 30		 push	 DWORD PTR [eax]
  0003c	a1 54 00 00 00	 mov	 eax, DWORD PTR ?g_iMetaTable@@3VIMetaTable@@A+84
  00041	ff b0 80 09 00
	00		 push	 DWORD PTR [eax+2432]
  00047	ff 15 00 00 00
	00		 call	 DWORD PTR __imp__strncmp
  0004d	83 c4 0c	 add	 esp, 12			; 0000000cH
  00050	8d 4d f0	 lea	 ecx, DWORD PTR $T7[ebp]
  00053	8b f0		 mov	 esi, eax
  00055	ff 15 00 00 00
	00		 call	 DWORD PTR __imp_??1?$CStringT@DV?$StrTraitMFC_DLL@DV?$ChTraitsCRT@D@ATL@@@@@ATL@@QAE@XZ
  0005b	85 f6		 test	 esi, esi
  0005d	75 3c		 jne	 SHORT $LN2@GetViewHor

; 35   : 		return CDisplayDataMinMax(0.0, 100.0);

  0005f	f2 0f 10 05 00
	00 00 00	 movsd	 xmm0, QWORD PTR __real@4059000000000000
  00067	8d 45 e4	 lea	 eax, DWORD PTR $T4[ebp]
  0006a	8b 4d 08	 mov	 ecx, DWORD PTR ___$ReturnUdt$[ebp]
  0006d	50		 push	 eax
  0006e	f2 0f 11 45 e4	 movsd	 QWORD PTR $T4[ebp], xmm0
  00073	8d 45 ec	 lea	 eax, DWORD PTR $T6[ebp]
  00076	0f 57 c0	 xorps	 xmm0, xmm0
  00079	50		 push	 eax
  0007a	f2 0f 11 45 ec	 movsd	 QWORD PTR $T6[ebp], xmm0
  0007f	ff 15 00 00 00
	00		 call	 DWORD PTR __imp_??0CDisplayDataMinMax@@QAE@ABN0@Z
  00085	8b 45 08	 mov	 eax, DWORD PTR ___$ReturnUdt$[ebp]

; 44   : }

  00088	8b 4d f4	 mov	 ecx, DWORD PTR __$EHRec$[ebp]
  0008b	64 89 0d 00 00
	00 00		 mov	 DWORD PTR fs:0, ecx
  00092	59		 pop	 ecx
  00093	5f		 pop	 edi
  00094	5e		 pop	 esi
  00095	8b e5		 mov	 esp, ebp
  00097	5d		 pop	 ebp
  00098	c2 08 00	 ret	 8
$LN2@GetViewHor:

; 37   : 	else if(inputData.GetPacketName() == _MTEXT( C3_MARKET_PROFILE))

  0009b	8d 45 0c	 lea	 eax, DWORD PTR $T8[ebp]
  0009e	8b cf		 mov	 ecx, edi
  000a0	50		 push	 eax
  000a1	e8 00 00 00 00	 call	 ?GetPacketName@CHorzDisplayDataMinMaxInputData@@QBE?AV?$CStringT@DV?$StrTraitMFC_DLL@DV?$ChTraitsCRT@D@ATL@@@@@ATL@@XZ ; CHorzDisplayDataMinMaxInputData::GetPacketName
  000a6	8b 0d 54 00 00
	00		 mov	 ecx, DWORD PTR ?g_iMetaTable@@3VIMetaTable@@A+84
  000ac	c7 45 fc 00 00
	00 00		 mov	 DWORD PTR __$EHRec$[ebp+8], 0
; File C:\Program Files (x86)\Microsoft Visual Studio\2019\Community\VC\Tools\MSVC\14.29.30133\atlmfc\include\cstringt.h

; 2486 : 		return(str1.Compare(psz2) == 0);

  000b3	ff b1 b0 04 00
	00		 push	 DWORD PTR [ecx+1200]
  000b9	8b c8		 mov	 ecx, eax
  000bb	ff 15 00 00 00
	00		 call	 DWORD PTR __imp_?Compare@?$CStringT@DV?$StrTraitMFC_DLL@DV?$ChTraitsCRT@D@ATL@@@@@ATL@@QBEHPBD@Z
; File D:\git\src\IBK\IBK_DRFN\ProjSrc\SrcChartEx\ChartOCX\ChartObject\ViewMinMaxCalculator.cpp

; 37   : 	else if(inputData.GetPacketName() == _MTEXT( C3_MARKET_PROFILE))

  000c1	8d 4d 0c	 lea	 ecx, DWORD PTR $T8[ebp]
  000c4	c7 45 fc ff ff
	ff ff		 mov	 DWORD PTR __$EHRec$[ebp+8], -1
; File C:\Program Files (x86)\Microsoft Visual Studio\2019\Community\VC\Tools\MSVC\14.29.30133\atlmfc\include\cstringt.h

; 2486 : 		return(str1.Compare(psz2) == 0);

  000cb	8b f0		 mov	 esi, eax
; File D:\git\src\IBK\IBK_DRFN\ProjSrc\SrcChartEx\ChartOCX\ChartObject\ViewMinMaxCalculator.cpp

; 37   : 	else if(inputData.GetPacketName() == _MTEXT( C3_MARKET_PROFILE))

  000cd	ff 15 00 00 00
	00		 call	 DWORD PTR __imp_??1?$CStringT@DV?$StrTraitMFC_DLL@DV?$ChTraitsCRT@D@ATL@@@@@ATL@@QAE@XZ
  000d3	85 f6		 test	 esi, esi
  000d5	75 34		 jne	 SHORT $LN4@GetViewHor

; 100  : 	return 	CDisplayDataMinMax( dMin, dMax);

  000d7	8b 4d 08	 mov	 ecx, DWORD PTR ___$ReturnUdt$[ebp]
  000da	8d 45 e4	 lea	 eax, DWORD PTR _dMax$3[ebp]
  000dd	50		 push	 eax
  000de	0f 57 c0	 xorps	 xmm0, xmm0
  000e1	8d 45 ec	 lea	 eax, DWORD PTR _dMin$5[ebp]
  000e4	50		 push	 eax
  000e5	f2 0f 11 45 ec	 movsd	 QWORD PTR _dMin$5[ebp], xmm0
  000ea	f2 0f 11 45 e4	 movsd	 QWORD PTR _dMax$3[ebp], xmm0
  000ef	ff 15 00 00 00
	00		 call	 DWORD PTR __imp_??0CDisplayDataMinMax@@QAE@ABN0@Z

; 38   : 		return GetViewHorzMinMax_MarketProfile(inputData);

  000f5	8b 45 08	 mov	 eax, DWORD PTR ___$ReturnUdt$[ebp]

; 44   : }

  000f8	8b 4d f4	 mov	 ecx, DWORD PTR __$EHRec$[ebp]
  000fb	64 89 0d 00 00
	00 00		 mov	 DWORD PTR fs:0, ecx
  00102	59		 pop	 ecx
  00103	5f		 pop	 edi
  00104	5e		 pop	 esi
  00105	8b e5		 mov	 esp, ebp
  00107	5d		 pop	 ebp
  00108	c2 08 00	 ret	 8
$LN4@GetViewHor:

; 39   : 
; 40   : 	// 일반형 scale을 구한다.
; 41   : 	CDisplayDataMinMax displayDataMinMax;

  0010b	8d 4d cc	 lea	 ecx, DWORD PTR _displayDataMinMax$[ebp]
  0010e	ff 15 00 00 00
	00		 call	 DWORD PTR __imp_??0CDisplayDataMinMax@@QAE@XZ

; 42   : 	GetPacketMinMax(inputData.GetPacket(), inputData.GetDisplayAttributes(), false, displayDataMinMax, FALSE);

  00114	6a 00		 push	 0
  00116	8d 45 cc	 lea	 eax, DWORD PTR _displayDataMinMax$[ebp]
  00119	8b cf		 mov	 ecx, edi
  0011b	50		 push	 eax
  0011c	6a 00		 push	 0
  0011e	8d 45 dc	 lea	 eax, DWORD PTR $T2[ebp]
  00121	50		 push	 eax
  00122	e8 00 00 00 00	 call	 ?GetDisplayAttributes@CHorzDisplayDataMinMaxInputData@@QBE?AVCDisplayAttributes@@XZ ; CHorzDisplayDataMinMaxInputData::GetDisplayAttributes
  00127	50		 push	 eax
  00128	8b cf		 mov	 ecx, edi
  0012a	e8 00 00 00 00	 call	 ?GetPacket@CHorzDisplayDataMinMaxInputData@@QBEPAVCPacket@@XZ ; CHorzDisplayDataMinMaxInputData::GetPacket
  0012f	8b 4d e8	 mov	 ecx, DWORD PTR _this$1$[ebp]
  00132	50		 push	 eax
  00133	e8 00 00 00 00	 call	 ?GetPacketMinMax@CViewMinMaxCalculator@@ABE_NPAVCPacket@@ABVCDisplayAttributes@@_NAAVCDisplayDataMinMax@@H@Z ; CViewMinMaxCalculator::GetPacketMinMax

; 43   : 	return displayDataMinMax;

  00138	8b 45 08	 mov	 eax, DWORD PTR ___$ReturnUdt$[ebp]
  0013b	0f 10 45 cc	 movups	 xmm0, XMMWORD PTR _displayDataMinMax$[ebp]
  0013f	0f 11 00	 movups	 XMMWORD PTR [eax], xmm0

; 44   : }

  00142	8b 4d f4	 mov	 ecx, DWORD PTR __$EHRec$[ebp]
  00145	64 89 0d 00 00
	00 00		 mov	 DWORD PTR fs:0, ecx
  0014c	59		 pop	 ecx
  0014d	5f		 pop	 edi
  0014e	5e		 pop	 esi
  0014f	8b e5		 mov	 esp, ebp
  00151	5d		 pop	 ebp
  00152	c2 08 00	 ret	 8
_TEXT	ENDS
;	COMDAT text$x
text$x	SEGMENT
__unwindfunclet$?GetViewHorzMinMax@CViewMinMaxCalculator@@QBE?AVCDisplayDataMinMax@@ABVCHorzDisplayDataMinMaxInputData@@@Z$1:
  00000	8d 4d 0c	 lea	 ecx, DWORD PTR $T8[ebp]
  00003	ff 25 00 00 00
	00		 jmp	 DWORD PTR __imp_??1?$CStringT@DV?$StrTraitMFC_DLL@DV?$ChTraitsCRT@D@ATL@@@@@ATL@@QAE@XZ
  00009	cc		 int	 3
  0000a	cc		 int	 3
  0000b	cc		 int	 3
  0000c	cc		 int	 3
  0000d	cc		 int	 3
__ehhandler$?GetViewHorzMinMax@CViewMinMaxCalculator@@QBE?AVCDisplayDataMinMax@@ABVCHorzDisplayDataMinMaxInputData@@@Z:
  0000e	90		 npad	 1
  0000f	90		 npad	 1
  00010	8b 54 24 08	 mov	 edx, DWORD PTR [esp+8]
  00014	8d 42 0c	 lea	 eax, DWORD PTR [edx+12]
  00017	8b 4a cc	 mov	 ecx, DWORD PTR [edx-52]
  0001a	33 c8		 xor	 ecx, eax
  0001c	e8 00 00 00 00	 call	 @__security_check_cookie@4
  00021	b8 00 00 00 00	 mov	 eax, OFFSET __ehfuncinfo$?GetViewHorzMinMax@CViewMinMaxCalculator@@QBE?AVCDisplayDataMinMax@@ABVCHorzDisplayDataMinMaxInputData@@@Z
  00026	e9 00 00 00 00	 jmp	 ___CxxFrameHandler3
text$x	ENDS
?GetViewHorzMinMax@CViewMinMaxCalculator@@QBE?AVCDisplayDataMinMax@@ABVCHorzDisplayDataMinMaxInputData@@@Z ENDP ; CViewMinMaxCalculator::GetViewHorzMinMax
; Function compile flags: /Ogtp
; File D:\git\src\IBK\IBK_DRFN\ProjSrc\SrcChartEx\ChartOCX\ChartObject\ViewMinMaxCalculator.cpp
;	COMDAT ?__empty_global_delete@@YAXPAXI@Z
_TEXT	SEGMENT
___formal$ = 8						; size = 4
___formal$ = 12						; size = 4
?__empty_global_delete@@YAXPAXI@Z PROC			; __empty_global_delete, COMDAT

  00000	c2 00 00	 ret	 0
?__empty_global_delete@@YAXPAXI@Z ENDP			; __empty_global_delete
_TEXT	ENDS
; Function compile flags: /Ogtp
; File D:\git\src\IBK\IBK_DRFN\ProjSrc\SrcChartEx\ChartOCX\ChartObject\ViewMinMaxCalculator.cpp
;	COMDAT ?__empty_global_delete@@YAXPAX@Z
_TEXT	SEGMENT
___formal$ = 8						; size = 4
?__empty_global_delete@@YAXPAX@Z PROC			; __empty_global_delete, COMDAT

  00000	c2 00 00	 ret	 0
?__empty_global_delete@@YAXPAX@Z ENDP			; __empty_global_delete
_TEXT	ENDS
END
