; Listing generated by Microsoft (R) Optimizing Compiler Version 19.29.30145.0 

	TITLE	D:\git\src\IBK\IBK_DRFN\#DRfn-CS\_Obj\ChartObject\XScaleManagerImp.obj
	.686P
	.XMM
	include listing.inc
	.model	flat

INCLUDELIB MSVCRT
INCLUDELIB OLDNAMES

CONST	SEGMENT
?_Fake_alloc@std@@3U_Fake_allocator@1@B	ORG $+1		; std::_Fake_alloc
CONST	ENDS
PUBLIC	?__empty_global_delete@@YAXPAX@Z		; __empty_global_delete
PUBLIC	?__empty_global_delete@@YAXPAXI@Z		; __empty_global_delete
PUBLIC	??3CObject@@SGXPAX@Z				; CObject::operator delete
PUBLIC	?Serialize@CObject@@UAEXAAVCArchive@@@Z		; CObject::Serialize
PUBLIC	?AssertValid@CObject@@UBEXXZ			; CObject::AssertValid
PUBLIC	?Dump@CObject@@UBEXAAVCDumpContext@@@Z		; CObject::Dump
PUBLIC	?AtlThrowImpl@ATL@@YGXJ@Z			; ATL::AtlThrowImpl
PUBLIC	?Format@CTime@ATL@@QBE?AV?$CStringT@DV?$StrTraitMFC_DLL@DV?$ChTraitsCRT@D@ATL@@@@@2@PBD@Z ; ATL::CTime::Format
PUBLIC	??0exception@std@@QAE@ABV01@@Z			; std::exception::exception
PUBLIC	??1exception@std@@UAE@XZ			; std::exception::~exception
PUBLIC	?what@exception@std@@UBEPBDXZ			; std::exception::what
PUBLIC	??_Gexception@std@@UAEPAXI@Z			; std::exception::`scalar deleting destructor'
PUBLIC	??0bad_alloc@std@@QAE@ABV01@@Z			; std::bad_alloc::bad_alloc
PUBLIC	??_Gbad_alloc@std@@UAEPAXI@Z			; std::bad_alloc::`scalar deleting destructor'
PUBLIC	??0bad_array_new_length@std@@QAE@XZ		; std::bad_array_new_length::bad_array_new_length
PUBLIC	??1bad_array_new_length@std@@UAE@XZ		; std::bad_array_new_length::~bad_array_new_length
PUBLIC	??0bad_array_new_length@std@@QAE@ABV01@@Z	; std::bad_array_new_length::bad_array_new_length
PUBLIC	??_Gbad_array_new_length@std@@UAEPAXI@Z		; std::bad_array_new_length::`scalar deleting destructor'
PUBLIC	?_Throw_bad_array_new_length@std@@YAXXZ		; std::_Throw_bad_array_new_length
PUBLIC	?_Throw_tree_length_error@std@@YAXXZ		; std::_Throw_tree_length_error
PUBLIC	?_Xlen_string@std@@YAXXZ			; std::_Xlen_string
PUBLIC	?allocate@?$allocator@D@std@@QAEPADI@Z		; std::allocator<char>::allocate
PUBLIC	??1?$basic_string@DU?$char_traits@D@std@@V?$allocator@D@2@@std@@QAE@XZ ; std::basic_string<char,std::char_traits<char>,std::allocator<char> >::~basic_string<char,std::char_traits<char>,std::allocator<char> >
PUBLIC	?assign@?$basic_string@DU?$char_traits@D@std@@V?$allocator@D@2@@std@@QAEAAV12@QBDI@Z ; std::basic_string<char,std::char_traits<char>,std::allocator<char> >::assign
PUBLIC	?_Xlength@?$vector@PAXV?$allocator@PAX@std@@@std@@CAXXZ ; std::vector<void *,std::allocator<void *> >::_Xlength
PUBLIC	?PushBackUNK@CDataBlockListUNK@@QAEXPAX@Z	; CDataBlockListUNK::PushBackUNK
PUBLIC	??_GCDataBlockListUNK@@UAEPAXI@Z		; CDataBlockListUNK::`scalar deleting destructor'
PUBLIC	??_GCMapTimeToLong@@UAEPAXI@Z			; CMapTimeToLong::`scalar deleting destructor'
PUBLIC	??1CXScaleManager@@UAE@XZ			; CXScaleManager::~CXScaleManager
PUBLIC	??_GCXScaleManager@@UAEPAXI@Z			; CXScaleManager::`scalar deleting destructor'
PUBLIC	??R?$less@V?$basic_string@DU?$char_traits@D@std@@V?$allocator@D@2@@std@@@std@@QBE_NABV?$basic_string@DU?$char_traits@D@std@@V?$allocator@D@2@@1@0@Z ; std::less<std::basic_string<char,std::char_traits<char>,std::allocator<char> > >::operator()
PUBLIC	?_Insert_node@?$_Tree_val@U?$_Tree_simple_types@U?$pair@$$CBV?$basic_string@DU?$char_traits@D@std@@V?$allocator@D@2@@std@@H@std@@@std@@@std@@QAEPAU?$_Tree_node@U?$pair@$$CBV?$basic_string@DU?$char_traits@D@std@@V?$allocator@D@2@@std@@H@std@@PAX@2@U?$_Tree_id@PAU?$_Tree_node@U?$pair@$$CBV?$basic_string@DU?$char_traits@D@std@@V?$allocator@D@2@@std@@H@std@@PAX@std@@@2@QAU32@@Z ; std::_Tree_val<std::_Tree_simple_types<std::pair<std::basic_string<char,std::char_traits<char>,std::allocator<char> > const ,int> > >::_Insert_node
PUBLIC	??1?$map@V?$basic_string@DU?$char_traits@D@std@@V?$allocator@D@2@@std@@HU?$less@V?$basic_string@DU?$char_traits@D@std@@V?$allocator@D@2@@std@@@2@V?$allocator@U?$pair@$$CBV?$basic_string@DU?$char_traits@D@std@@V?$allocator@D@2@@std@@H@std@@@2@@std@@QAE@XZ ; std::map<std::basic_string<char,std::char_traits<char>,std::allocator<char> >,int,std::less<std::basic_string<char,std::char_traits<char>,std::allocator<char> > >,std::allocator<std::pair<std::basic_string<char,std::char_traits<char>,std::allocator<char> > const ,int> > >::~map<std::basic_string<char,std::char_traits<char>,std::allocator<char> >,int,std::less<std::basic_string<char,std::char_traits<char>,std::allocator<char> > >,std::allocator<std::pair<std::basic_string<char,std::char_traits<char>,std::allocator<char> > const ,int> > >
PUBLIC	??0?$CDataBlockList@Utm@@$0CAA@@@QAE@XZ		; CDataBlockList<tm,512>::CDataBlockList<tm,512>
PUBLIC	??1?$CDataBlockList@Utm@@$0CAA@@@UAE@XZ		; CDataBlockList<tm,512>::~CDataBlockList<tm,512>
PUBLIC	??_G?$CDataBlockList@Utm@@$0CAA@@@UAEPAXI@Z	; CDataBlockList<tm,512>::`scalar deleting destructor'
PUBLIC	??0?$CDataBlockList@H$0CAA@@@QAE@XZ		; CDataBlockList<int,512>::CDataBlockList<int,512>
PUBLIC	??1?$CDataBlockList@H$0CAA@@@UAE@XZ		; CDataBlockList<int,512>::~CDataBlockList<int,512>
PUBLIC	??_G?$CDataBlockList@H$0CAA@@@UAEPAXI@Z		; CDataBlockList<int,512>::`scalar deleting destructor'
PUBLIC	??0CXScaleManagerImp@@QAE@XZ			; CXScaleManagerImp::CXScaleManagerImp
PUBLIC	??1CXScaleManagerImp@@UAE@XZ			; CXScaleManagerImp::~CXScaleManagerImp
PUBLIC	??0?$CDataBlockList@UtagAREA@CXScaleManager@@$0CAA@@@QAE@XZ ; CDataBlockList<CXScaleManager::tagAREA,512>::CDataBlockList<CXScaleManager::tagAREA,512>
PUBLIC	??1?$CDataBlockList@UtagAREA@CXScaleManager@@$0CAA@@@UAE@XZ ; CDataBlockList<CXScaleManager::tagAREA,512>::~CDataBlockList<CXScaleManager::tagAREA,512>
PUBLIC	??_G?$CDataBlockList@UtagAREA@CXScaleManager@@$0CAA@@@UAEPAXI@Z ; CDataBlockList<CXScaleManager::tagAREA,512>::`scalar deleting destructor'
PUBLIC	?GetLeastTime@CXScaleManagerImp@@IAE_JPAH00@Z	; CXScaleManagerImp::GetLeastTime
PUBLIC	?ClearData@CXScaleManagerImp@@IAEXXZ		; CXScaleManagerImp::ClearData
PUBLIC	?GetNextDRI_ByScaleInterval@CXScaleManagerImp@@IAEHW4HORZSCALEDRAWERTYPE@CScaleBaseData@@HH@Z ; CXScaleManagerImp::GetNextDRI_ByScaleInterval
PUBLIC	?GetTimeFromTimeValue@CXScaleManagerImp@@IAE_J_KV?$CStringT@DV?$StrTraitMFC_DLL@DV?$ChTraitsCRT@D@ATL@@@@@ATL@@PAUtagRQ_INFO@1@AAUtm@@PBDPAVCMapTimeToLong@@@Z ; CXScaleManagerImp::GetTimeFromTimeValue
PUBLIC	?GetTimeValueFromTime@CXScaleManagerImp@@IAEN_JV?$CStringT@DV?$StrTraitMFC_DLL@DV?$ChTraitsCRT@D@ATL@@@@@ATL@@@Z ; CXScaleManagerImp::GetTimeValueFromTime
PUBLIC	?GetDTIFromDRI@CXScaleManagerImp@@IAEHV?$CStringT@DV?$StrTraitMFC_DLL@DV?$ChTraitsCRT@D@ATL@@@@@ATL@@H@Z ; CXScaleManagerImp::GetDTIFromDRI
PUBLIC	?SetPacketListManager@CXScaleManagerImp@@UAEXPAVCPacketListManager@@@Z ; CXScaleManagerImp::SetPacketListManager
PUBLIC	?SetIndicatorList@CXScaleManagerImp@@UAEXPAVCIndicatorList@@@Z ; CXScaleManagerImp::SetIndicatorList
PUBLIC	?GetPacketListManager@CXScaleManagerImp@@UAEPAVCPacketListManager@@XZ ; CXScaleManagerImp::GetPacketListManager
PUBLIC	?SetApplyToolBar@CXScaleManagerImp@@UAEXH@Z	; CXScaleManagerImp::SetApplyToolBar
PUBLIC	?GetApplyToolBar@CXScaleManagerImp@@UAEHXZ	; CXScaleManagerImp::GetApplyToolBar
PUBLIC	?SetReverse@CXScaleManagerImp@@UAEXH@Z		; CXScaleManagerImp::SetReverse
PUBLIC	?GetReverse@CXScaleManagerImp@@UAEHXZ		; CXScaleManagerImp::GetReverse
PUBLIC	?SetWeightedVolume@CXScaleManagerImp@@UAEXHH@Z	; CXScaleManagerImp::SetWeightedVolume
PUBLIC	?GetWeightedVolume@CXScaleManagerImp@@UAEHXZ	; CXScaleManagerImp::GetWeightedVolume
PUBLIC	?SetLeftDataHideCount@CXScaleManagerImp@@UAEXHH@Z ; CXScaleManagerImp::SetLeftDataHideCount
PUBLIC	?GetLeftDataHideCount@CXScaleManagerImp@@UAEHXZ	; CXScaleManagerImp::GetLeftDataHideCount
PUBLIC	?GetUseOEBTMargin@CXScaleManagerImp@@UAEHXZ	; CXScaleManagerImp::GetUseOEBTMargin
PUBLIC	?SetUseOEBTMargin@CXScaleManagerImp@@UAEXH@Z	; CXScaleManagerImp::SetUseOEBTMargin
PUBLIC	?SetRightMarginWidth@CXScaleManagerImp@@UAEXH@Z	; CXScaleManagerImp::SetRightMarginWidth
PUBLIC	?SetCandleTypeOnResize@CXScaleManagerImp@@UAEXW4RSA_TYPE@CXScaleManager@@@Z ; CXScaleManagerImp::SetCandleTypeOnResize
PUBLIC	?GetCandleTypeOnResize@CXScaleManagerImp@@UAE?AW4RSA_TYPE@CXScaleManager@@XZ ; CXScaleManagerImp::GetCandleTypeOnResize
PUBLIC	?SetFixedInterval@CXScaleManagerImp@@UAEXHH@Z	; CXScaleManagerImp::SetFixedInterval
PUBLIC	?IsFixedInterval@CXScaleManagerImp@@UAEHXZ	; CXScaleManagerImp::IsFixedInterval
PUBLIC	?AddOEBTRQ@CXScaleManagerImp@@UAEXV?$CStringT@DV?$StrTraitMFC_DLL@DV?$ChTraitsCRT@D@ATL@@@@@ATL@@00@Z ; CXScaleManagerImp::AddOEBTRQ
PUBLIC	?DelOEBTRQ@CXScaleManagerImp@@UAEXV?$CStringT@DV?$StrTraitMFC_DLL@DV?$ChTraitsCRT@D@ATL@@@@@ATL@@@Z ; CXScaleManagerImp::DelOEBTRQ
PUBLIC	?Clear_OEBTRQ@CXScaleManagerImp@@UAEXXZ		; CXScaleManagerImp::Clear_OEBTRQ
PUBLIC	?RealDataReceived@CXScaleManagerImp@@UAEXV?$CStringT@DV?$StrTraitMFC_DLL@DV?$ChTraitsCRT@D@ATL@@@@@ATL@@H@Z ; CXScaleManagerImp::RealDataReceived
PUBLIC	?SetIChartCtrl@CXScaleManagerImp@@UAEXPAUIChartCtrl@@@Z ; CXScaleManagerImp::SetIChartCtrl
PUBLIC	?GetCount@CXScaleManagerImp@@UAEHXZ		; CXScaleManagerImp::GetCount
PUBLIC	?GetDrawCount_Cur@CXScaleManagerImp@@UAEHXZ	; CXScaleManagerImp::GetDrawCount_Cur
PUBLIC	?GetStartDrawIdx_Cur@CXScaleManagerImp@@UAEHXZ	; CXScaleManagerImp::GetStartDrawIdx_Cur
PUBLIC	?GetEndDrawIdx_Cur@CXScaleManagerImp@@UAEHXZ	; CXScaleManagerImp::GetEndDrawIdx_Cur
PUBLIC	?SetStartEndDrawIdx_Cur@CXScaleManagerImp@@UAEXHHH@Z ; CXScaleManagerImp::SetStartEndDrawIdx_Cur
PUBLIC	?GetStartEndDrawIdx_Cur@CXScaleManagerImp@@UAEXAAH0@Z ; CXScaleManagerImp::GetStartEndDrawIdx_Cur
PUBLIC	?GetPageCountNextStep@CXScaleManagerImp@@UAEHHHHHH@Z ; CXScaleManagerImp::GetPageCountNextStep
PUBLIC	?GetDrawIndex@CXScaleManagerImp@@UAEXV?$CStringT@DV?$StrTraitMFC_DLL@DV?$ChTraitsCRT@D@ATL@@@@@ATL@@HHAAH1@Z ; CXScaleManagerImp::GetDrawIndex
PUBLIC	?GetDrawIndex@CXScaleManagerImp@@UAEXHHAAH0@Z	; CXScaleManagerImp::GetDrawIndex
PUBLIC	?GetDTIFromDRI_AbleRange@CXScaleManagerImp@@UAEHV?$CStringT@DV?$StrTraitMFC_DLL@DV?$ChTraitsCRT@D@ATL@@@@@ATL@@HPAH@Z ; CXScaleManagerImp::GetDTIFromDRI_AbleRange
PUBLIC	?GetScaleUnit_Max@CXScaleManagerImp@@UAE?AW4HORZSCALEDRAWERTYPE@CScaleBaseData@@PBD@Z ; CXScaleManagerImp::GetScaleUnit_Max
PUBLIC	?GetScaleInterval_Unit_Max@CXScaleManagerImp@@UAEHXZ ; CXScaleManagerImp::GetScaleInterval_Unit_Max
PUBLIC	?SetCurScaleInfo@CXScaleManagerImp@@UAEXH@Z	; CXScaleManagerImp::SetCurScaleInfo
PUBLIC	?GetCurScaleInfo@CXScaleManagerImp@@UAEXAAH@Z	; CXScaleManagerImp::GetCurScaleInfo
PUBLIC	?GetPacketType@CXScaleManagerImp@@UAE?AV?$CStringT@DV?$StrTraitMFC_DLL@DV?$ChTraitsCRT@D@ATL@@@@@ATL@@PBD@Z ; CXScaleManagerImp::GetPacketType
PUBLIC	?GetScaleUnitAlphaWeight@CXScaleManagerImp@@UAEHV?$CStringT@DV?$StrTraitMFC_DLL@DV?$ChTraitsCRT@D@ATL@@@@@ATL@@@Z ; CXScaleManagerImp::GetScaleUnitAlphaWeight
PUBLIC	?IsUseable@CXScaleManagerImp@@UAEHXZ		; CXScaleManagerImp::IsUseable
PUBLIC	?GetTimeFromDRI@CXScaleManagerImp@@UAEXHPA_J@Z	; CXScaleManagerImp::GetTimeFromDRI
PUBLIC	?Initialize@CXScaleManagerImp@@UAEXH@Z		; CXScaleManagerImp::Initialize
PUBLIC	?SetThreadFlag@CXScaleManagerImp@@UAEXH@Z	; CXScaleManagerImp::SetThreadFlag
PUBLIC	?GetThreadFlag@CXScaleManagerImp@@UAEHXZ	; CXScaleManagerImp::GetThreadFlag
PUBLIC	?AddVerticalBoxInfo@CXScaleManagerImp@@UAEXPBDNKH@Z ; CXScaleManagerImp::AddVerticalBoxInfo
PUBLIC	?GetVerticalBoxInfo@CXScaleManagerImp@@UAEXPBD0AAVCRect@@AAKAAH@Z ; CXScaleManagerImp::GetVerticalBoxInfo
PUBLIC	?GetRQIndexFromString@CXScaleManagerImp@@MAEHV?$CStringT@DV?$StrTraitMFC_DLL@DV?$ChTraitsCRT@D@ATL@@@@@ATL@@@Z ; CXScaleManagerImp::GetRQIndexFromString
PUBLIC	?_Insert_node@?$_Tree_val@U?$_Tree_simple_types@U?$pair@$$CBV?$basic_string@DU?$char_traits@D@std@@V?$allocator@D@2@@std@@PAUVERTBOX_INFO@CXScaleManagerImp@@@std@@@std@@@std@@QAEPAU?$_Tree_node@U?$pair@$$CBV?$basic_string@DU?$char_traits@D@std@@V?$allocator@D@2@@std@@PAUVERTBOX_INFO@CXScaleManagerImp@@@std@@PAX@2@U?$_Tree_id@PAU?$_Tree_node@U?$pair@$$CBV?$basic_string@DU?$char_traits@D@std@@V?$allocator@D@2@@std@@PAUVERTBOX_INFO@CXScaleManagerImp@@@std@@PAX@std@@@2@QAU32@@Z ; std::_Tree_val<std::_Tree_simple_types<std::pair<std::basic_string<char,std::char_traits<char>,std::allocator<char> > const ,CXScaleManagerImp::VERTBOX_INFO *> > >::_Insert_node
PUBLIC	??1?$map@V?$basic_string@DU?$char_traits@D@std@@V?$allocator@D@2@@std@@PAUVERTBOX_INFO@CXScaleManagerImp@@U?$less@V?$basic_string@DU?$char_traits@D@std@@V?$allocator@D@2@@std@@@2@V?$allocator@U?$pair@$$CBV?$basic_string@DU?$char_traits@D@std@@V?$allocator@D@2@@std@@PAUVERTBOX_INFO@CXScaleManagerImp@@@std@@@2@@std@@QAE@XZ ; std::map<std::basic_string<char,std::char_traits<char>,std::allocator<char> >,CXScaleManagerImp::VERTBOX_INFO *,std::less<std::basic_string<char,std::char_traits<char>,std::allocator<char> > >,std::allocator<std::pair<std::basic_string<char,std::char_traits<char>,std::allocator<char> > const ,CXScaleManagerImp::VERTBOX_INFO *> > >::~map<std::basic_string<char,std::char_traits<char>,std::allocator<char> >,CXScaleManagerImp::VERTBOX_INFO *,std::less<std::basic_string<char,std::char_traits<char>,std::allocator<char> > >,std::allocator<std::pair<std::basic_string<char,std::char_traits<char>,std::allocator<char> > const ,CXScaleManagerImp::VERTBOX_INFO *> > >
PUBLIC	??1?$CDataBlockList@_J$0CAA@@@UAE@XZ		; CDataBlockList<__int64,512>::~CDataBlockList<__int64,512>
PUBLIC	??_G?$CDataBlockList@_J$0CAA@@@UAEPAXI@Z	; CDataBlockList<__int64,512>::`scalar deleting destructor'
PUBLIC	?GetMinScaleInterval_nUnit@CXScaleManagerImp@@MAEHXZ ; CXScaleManagerImp::GetMinScaleInterval_nUnit
PUBLIC	?GetDTIFromDRI@CXScaleManagerImp@@IAEHPAV?$CDataBlockList@H$0CAA@@@H@Z ; CXScaleManagerImp::GetDTIFromDRI
PUBLIC	?GetDTIFromDRI_AbleRange@CXScaleManagerImp@@IAEHPAV?$CDataBlockList@H$0CAA@@@HPAH@Z ; CXScaleManagerImp::GetDTIFromDRI_AbleRange
PUBLIC	?Calc_DRI@CXScaleManagerImp@@MAEXH@Z		; CXScaleManagerImp::Calc_DRI
PUBLIC	?Calc_DRI_Merge@CXScaleManagerImp@@MAEXXZ	; CXScaleManagerImp::Calc_DRI_Merge
PUBLIC	?GetCalculationMode@CXScaleManagerImp@@MAEHXZ	; CXScaleManagerImp::GetCalculationMode
PUBLIC	?SetNeedCalcAreaFlag@CXScaleManagerImp@@MAEXH@Z	; CXScaleManagerImp::SetNeedCalcAreaFlag
PUBLIC	?SetDefaultDataSpace@CXScaleManagerImp@@MAEXHH@Z ; CXScaleManagerImp::SetDefaultDataSpace
PUBLIC	?Calc_AREA@CXScaleManagerImp@@MAEXH@Z		; CXScaleManagerImp::Calc_AREA
PUBLIC	?Calc_AREAofColumn@CXScaleManagerImp@@IAEXH@Z	; CXScaleManagerImp::Calc_AREAofColumn
PUBLIC	?Calc_ItemWidth@CXScaleManagerImp@@IAEXHHH@Z	; CXScaleManagerImp::Calc_ItemWidth
PUBLIC	?GetAreaFromDRI_Copy@CXScaleManagerImp@@IAEXHHAAUtagAREA@CXScaleManager@@@Z ; CXScaleManagerImp::GetAreaFromDRI_Copy
PUBLIC	?ItemIntervalApply@CXScaleManagerImp@@IAEXHAAUtagAREA@CXScaleManager@@H@Z ; CXScaleManagerImp::ItemIntervalApply
PUBLIC	?ItemIntervalApply_Reverse@CXScaleManagerImp@@IAEXHAAUtagAREA@CXScaleManager@@H@Z ; CXScaleManagerImp::ItemIntervalApply_Reverse
PUBLIC	?GetColumnWidth@CXScaleManagerImp@@MAEHH@Z	; CXScaleManagerImp::GetColumnWidth
PUBLIC	?GetDRInFromPt@CXScaleManagerImp@@MAEHHPAHPAPAUtagAREA@CXScaleManager@@HH@Z ; CXScaleManagerImp::GetDRInFromPt
PUBLIC	?GetGraphXArea_End@CXScaleManagerImp@@MAEHHH@Z	; CXScaleManagerImp::GetGraphXArea_End
PUBLIC	?GetGraphXArea_Left@CXScaleManagerImp@@MAEHHH@Z	; CXScaleManagerImp::GetGraphXArea_Left
PUBLIC	?GetGraphXArea_Right@CXScaleManagerImp@@MAEHHH@Z ; CXScaleManagerImp::GetGraphXArea_Right
PUBLIC	?GetGraphXArea_Start@CXScaleManagerImp@@MAEHHH@Z ; CXScaleManagerImp::GetGraphXArea_Start
PUBLIC	?GetScaleDRIandTime@CXScaleManagerImp@@MAEHHAAPAV?$CDataBlockList@H$0CAA@@@AAPAV?$CDataBlockList@Utm@@$0CAA@@@HW4HORZSCALEDRAWERTYPE@CScaleBaseData@@HPBDAAHABV?$CStringT@DV?$StrTraitMFC_DLL@DV?$ChTraitsCRT@D@ATL@@@@@ATL@@@Z ; CXScaleManagerImp::GetScaleDRIandTime
PUBLIC	?GetScreenWidth@CXScaleManagerImp@@MAEHH@Z	; CXScaleManagerImp::GetScreenWidth
PUBLIC	?GetXFromTime@CXScaleManagerImp@@MAEHH_JPAPAUtagAREA@CXScaleManager@@H@Z ; CXScaleManagerImp::GetXFromTime
PUBLIC	?GetDTInAREAfRQnPt@CXScaleManagerImp@@MAEHHAAHPAHPAUtagAREA@CXScaleManager@@@Z ; CXScaleManagerImp::GetDTInAREAfRQnPt
PUBLIC	?GetDTInAREAfRQnPt@CXScaleManagerImp@@MAEHV?$CStringT@DV?$StrTraitMFC_DLL@DV?$ChTraitsCRT@D@ATL@@@@@ATL@@HAAHPAHPAUtagAREA@CXScaleManager@@H@Z ; CXScaleManagerImp::GetDTInAREAfRQnPt
PUBLIC	?IsAllOnePixel@CXScaleManagerImp@@MAEHHPBD@Z	; CXScaleManagerImp::IsAllOnePixel
PUBLIC	?IsInGraphXArea@CXScaleManagerImp@@MAEHHHH@Z	; CXScaleManagerImp::IsInGraphXArea
PUBLIC	?GetAreaFromDRI@CXScaleManagerImp@@MAEXHHPAPAUtagAREA@CXScaleManager@@@Z ; CXScaleManagerImp::GetAreaFromDRI
PUBLIC	?GetGraphXAreaLR@CXScaleManagerImp@@MAEXHAAH0H@Z ; CXScaleManagerImp::GetGraphXAreaLR
PUBLIC	?GetGraphXAreaSE@CXScaleManagerImp@@MAEXHAAH0H@Z ; CXScaleManagerImp::GetGraphXAreaSE
PUBLIC	?SetColumnWidth@CXScaleManagerImp@@MAEXHH@Z	; CXScaleManagerImp::SetColumnWidth
PUBLIC	?SetScreenRegion@CXScaleManagerImp@@MAEXHHHH@Z	; CXScaleManagerImp::SetScreenRegion
PUBLIC	?GetDTIArea@CXScaleManagerImp@@MAEPAV?$CDataBlockList@UtagAREA@CXScaleManager@@$0CAA@@@HPBDAAH@Z ; CXScaleManagerImp::GetDTIArea
PUBLIC	?GetTimeFromXWithRightMargin@CXScaleManagerImp@@IAE_JHPAHPAPAUtagAREA@CXScaleManager@@@Z ; CXScaleManagerImp::GetTimeFromXWithRightMargin
PUBLIC	?SetBlockColumnCount@CXScaleManagerImp@@MAEXH@Z	; CXScaleManagerImp::SetBlockColumnCount
PUBLIC	?SetBlockColumn_Cur@CXScaleManagerImp@@MAEXH@Z	; CXScaleManagerImp::SetBlockColumn_Cur
PUBLIC	?NextScaleTime@CXScaleManagerImp@@MAEHPA_JPAPAUtagAREA@CXScaleManager@@@Z ; CXScaleManagerImp::NextScaleTime
PUBLIC	?PrevScaleTime@CXScaleManagerImp@@MAEXPA_JPAPAUtagAREA@CXScaleManager@@@Z ; CXScaleManagerImp::PrevScaleTime
PUBLIC	?GetAt_ScaleTime@CXScaleManagerImp@@MAEXHPA_JPAPAUtagAREA@CXScaleManager@@@Z ; CXScaleManagerImp::GetAt_ScaleTime
PUBLIC	?GetAREAfRQnDTI@CXScaleManagerImp@@MAEHV?$CStringT@DV?$StrTraitMFC_DLL@DV?$ChTraitsCRT@D@ATL@@@@@ATL@@HHPAUtagAREA@CXScaleManager@@@Z ; CXScaleManagerImp::GetAREAfRQnDTI
PUBLIC	?GetAREAfRQnDTI@CXScaleManagerImp@@MAEHHHPAUtagAREA@CXScaleManager@@@Z ; CXScaleManagerImp::GetAREAfRQnDTI
PUBLIC	?GetRQInfosFromPt@CXScaleManagerImp@@MAEHHAAHAAVCStringArray@@AAV?$CArray@HH@@PAUtagAREA@CXScaleManager@@@Z ; CXScaleManagerImp::GetRQInfosFromPt
PUBLIC	?GetTimeFromX@CXScaleManagerImp@@MAE_JHPAHPAPAUtagAREA@CXScaleManager@@@Z ; CXScaleManagerImp::GetTimeFromX
PUBLIC	?GetDoubleFromX@CXScaleManagerImp@@MAENHHHPAHPAPAUtagAREA@CXScaleManager@@PBD@Z ; CXScaleManagerImp::GetDoubleFromX
PUBLIC	?GetXFromDouble@CXScaleManagerImp@@MAEHHHNPAPAUtagAREA@CXScaleManager@@@Z ; CXScaleManagerImp::GetXFromDouble
PUBLIC	?OnUserZoomChanged@CXScaleManagerImp@@MAEXXZ	; CXScaleManagerImp::OnUserZoomChanged
PUBLIC	?SetFlagForCalcDRIandScrollByReal@CXScaleManagerImp@@MAEXH@Z ; CXScaleManagerImp::SetFlagForCalcDRIandScrollByReal
PUBLIC	?IsScrollByReal@CXScaleManagerImp@@MAEHXZ	; CXScaleManagerImp::IsScrollByReal
PUBLIC	?GetFutureTimeCount@CXScaleManagerImp@@MAEHXZ	; CXScaleManagerImp::GetFutureTimeCount
PUBLIC	?SetFutureTimeCount@CXScaleManagerImp@@MAEXH@Z	; CXScaleManagerImp::SetFutureTimeCount
PUBLIC	?SetRightMarginAndFutureTime@CXScaleManagerImp@@MAEXHH@Z ; CXScaleManagerImp::SetRightMarginAndFutureTime
PUBLIC	?IsEmptyData@CXScaleManagerImp@@MAEHXZ		; CXScaleManagerImp::IsEmptyData
PUBLIC	?GetTimeDiffWithCurrentRQ@CXScaleManagerImp@@IAEHV?$CStringT@DV?$StrTraitMFC_DLL@DV?$ChTraitsCRT@D@ATL@@@@@ATL@@@Z ; CXScaleManagerImp::GetTimeDiffWithCurrentRQ
PUBLIC	??1?$CTypedPtrMap@VCMapWordToPtr@@FPAVCXScaleGridTime@@@@UAE@XZ ; CTypedPtrMap<CMapWordToPtr,short,CXScaleGridTime *>::~CTypedPtrMap<CMapWordToPtr,short,CXScaleGridTime *>
PUBLIC	??_G?$CTypedPtrMap@VCMapWordToPtr@@FPAVCXScaleGridTime@@@@UAEPAXI@Z ; CTypedPtrMap<CMapWordToPtr,short,CXScaleGridTime *>::`scalar deleting destructor'
PUBLIC	?PopLastScaleDataTime@CXScaleManagerImp@@IAEXXZ	; CXScaleManagerImp::PopLastScaleDataTime
PUBLIC	?PushScaleDataTime@CXScaleManagerImp@@IAEXH_JH@Z ; CXScaleManagerImp::PushScaleDataTime
PUBLIC	?IsSpecialTime@CXScaleManagerImp@@MAEHPBD_JAAJ@Z ; CXScaleManagerImp::IsSpecialTime
PUBLIC	?SetPriceMinMaxShowType@CXScaleManagerImp@@MAEXH@Z ; CXScaleManagerImp::SetPriceMinMaxShowType
PUBLIC	?GetPriceMinMaxShowType@CXScaleManagerImp@@MAEHXZ ; CXScaleManagerImp::GetPriceMinMaxShowType
PUBLIC	?GetScaleDRIandTimeAllData@CXScaleManagerImp@@UAEHHAAPAV?$CDataBlockList@H$0CAA@@@AAPAV?$CDataBlockList@Utm@@$0CAA@@@W4HORZSCALEDRAWERTYPE@CScaleBaseData@@PBDAAH@Z ; CXScaleManagerImp::GetScaleDRIandTimeAllData
PUBLIC	??_GCXScaleManagerImp@@UAEPAXI@Z		; CXScaleManagerImp::`scalar deleting destructor'
PUBLIC	?FindIndex@?$CList@NN@@QBEPAU__POSITION@@H@Z	; CList<double,double>::FindIndex
PUBLIC	??1?$pair@V?$basic_string@DU?$char_traits@D@std@@V?$allocator@D@2@@std@@H@std@@QAE@XZ ; std::pair<std::basic_string<char,std::char_traits<char>,std::allocator<char> >,int>::~pair<std::basic_string<char,std::char_traits<char>,std::allocator<char> >,int>
PUBLIC	?SetSize@?$CArray@HH@@QAEXHH@Z			; CArray<int,int>::SetSize
PUBLIC	?SetAtGrow@?$CArray@HH@@QAEXHH@Z		; CArray<int,int>::SetAtGrow
PUBLIC	??1?$pair@V?$basic_string@DU?$char_traits@D@std@@V?$allocator@D@2@@std@@PAUVERTBOX_INFO@CXScaleManagerImp@@@std@@QAE@XZ ; std::pair<std::basic_string<char,std::char_traits<char>,std::allocator<char> >,CXScaleManagerImp::VERTBOX_INFO *>::~pair<std::basic_string<char,std::char_traits<char>,std::allocator<char> >,CXScaleManagerImp::VERTBOX_INFO *>
PUBLIC	??$_Erase_tree@V?$allocator@U?$_Tree_node@U?$pair@$$CBV?$basic_string@DU?$char_traits@D@std@@V?$allocator@D@2@@std@@PAUVERTBOX_INFO@CXScaleManagerImp@@@std@@PAX@std@@@std@@@?$_Tree_val@U?$_Tree_simple_types@U?$pair@$$CBV?$basic_string@DU?$char_traits@D@std@@V?$allocator@D@2@@std@@PAUVERTBOX_INFO@CXScaleManagerImp@@@std@@@std@@@std@@QAEXAAV?$allocator@U?$_Tree_node@U?$pair@$$CBV?$basic_string@DU?$char_traits@D@std@@V?$allocator@D@2@@std@@PAUVERTBOX_INFO@CXScaleManagerImp@@@std@@PAX@std@@@1@PAU?$_Tree_node@U?$pair@$$CBV?$basic_string@DU?$char_traits@D@std@@V?$allocator@D@2@@std@@PAUVERTBOX_INFO@CXScaleManagerImp@@@std@@PAX@1@@Z ; std::_Tree_val<std::_Tree_simple_types<std::pair<std::basic_string<char,std::char_traits<char>,std::allocator<char> > const ,CXScaleManagerImp::VERTBOX_INFO *> > >::_Erase_tree<std::allocator<std::_Tree_node<std::pair<std::basic_string<char,std::char_traits<char>,std::allocator<char> > const ,CXScaleManagerImp::VERTBOX_INFO *>,void *> > >
PUBLIC	??$_Erase_tree@V?$allocator@U?$_Tree_node@U?$pair@$$CBV?$basic_string@DU?$char_traits@D@std@@V?$allocator@D@2@@std@@H@std@@PAX@std@@@std@@@?$_Tree_val@U?$_Tree_simple_types@U?$pair@$$CBV?$basic_string@DU?$char_traits@D@std@@V?$allocator@D@2@@std@@H@std@@@std@@@std@@QAEXAAV?$allocator@U?$_Tree_node@U?$pair@$$CBV?$basic_string@DU?$char_traits@D@std@@V?$allocator@D@2@@std@@H@std@@PAX@std@@@1@PAU?$_Tree_node@U?$pair@$$CBV?$basic_string@DU?$char_traits@D@std@@V?$allocator@D@2@@std@@H@std@@PAX@1@@Z ; std::_Tree_val<std::_Tree_simple_types<std::pair<std::basic_string<char,std::char_traits<char>,std::allocator<char> > const ,int> > >::_Erase_tree<std::allocator<std::_Tree_node<std::pair<std::basic_string<char,std::char_traits<char>,std::allocator<char> > const ,int>,void *> > >
PUBLIC	??$_Emplace_reallocate@ABQAX@?$vector@PAXV?$allocator@PAX@std@@@std@@QAEPAPAXQAPAXABQAX@Z ; std::vector<void *,std::allocator<void *> >::_Emplace_reallocate<void * const &>
PUBLIC	??$_Find_lower_bound@V?$basic_string@DU?$char_traits@D@std@@V?$allocator@D@2@@std@@@?$_Tree@V?$_Tmap_traits@V?$basic_string@DU?$char_traits@D@std@@V?$allocator@D@2@@std@@PAUVERTBOX_INFO@CXScaleManagerImp@@U?$less@V?$basic_string@DU?$char_traits@D@std@@V?$allocator@D@2@@std@@@2@V?$allocator@U?$pair@$$CBV?$basic_string@DU?$char_traits@D@std@@V?$allocator@D@2@@std@@PAUVERTBOX_INFO@CXScaleManagerImp@@@std@@@2@$0A@@std@@@std@@IBE?AU?$_Tree_find_result@PAU?$_Tree_node@U?$pair@$$CBV?$basic_string@DU?$char_traits@D@std@@V?$allocator@D@2@@std@@PAUVERTBOX_INFO@CXScaleManagerImp@@@std@@PAX@std@@@1@ABV?$basic_string@DU?$char_traits@D@std@@V?$allocator@D@2@@1@@Z ; std::_Tree<std::_Tmap_traits<std::basic_string<char,std::char_traits<char>,std::allocator<char> >,CXScaleManagerImp::VERTBOX_INFO *,std::less<std::basic_string<char,std::char_traits<char>,std::allocator<char> > >,std::allocator<std::pair<std::basic_string<char,std::char_traits<char>,std::allocator<char> > const ,CXScaleManagerImp::VERTBOX_INFO *> >,0> >::_Find_lower_bound<std::basic_string<char,std::char_traits<char>,std::allocator<char> > >
PUBLIC	??$_Find_lower_bound@V?$basic_string@DU?$char_traits@D@std@@V?$allocator@D@2@@std@@@?$_Tree@V?$_Tmap_traits@V?$basic_string@DU?$char_traits@D@std@@V?$allocator@D@2@@std@@HU?$less@V?$basic_string@DU?$char_traits@D@std@@V?$allocator@D@2@@std@@@2@V?$allocator@U?$pair@$$CBV?$basic_string@DU?$char_traits@D@std@@V?$allocator@D@2@@std@@H@std@@@2@$0A@@std@@@std@@IBE?AU?$_Tree_find_result@PAU?$_Tree_node@U?$pair@$$CBV?$basic_string@DU?$char_traits@D@std@@V?$allocator@D@2@@std@@H@std@@PAX@std@@@1@ABV?$basic_string@DU?$char_traits@D@std@@V?$allocator@D@2@@1@@Z ; std::_Tree<std::_Tmap_traits<std::basic_string<char,std::char_traits<char>,std::allocator<char> >,int,std::less<std::basic_string<char,std::char_traits<char>,std::allocator<char> > >,std::allocator<std::pair<std::basic_string<char,std::char_traits<char>,std::allocator<char> > const ,int> >,0> >::_Find_lower_bound<std::basic_string<char,std::char_traits<char>,std::allocator<char> > >
PUBLIC	??$_Allocate_manually_vector_aligned@U_Default_allocate_traits@std@@@std@@YAPAXI@Z ; std::_Allocate_manually_vector_aligned<std::_Default_allocate_traits>
PUBLIC	??$_Copy_memmove@PAPAXPAPAX@std@@YAPAPAXPAPAX00@Z ; std::_Copy_memmove<void * *,void * *>
PUBLIC	??$?MDU?$char_traits@D@std@@V?$allocator@D@1@@std@@YA_NABV?$basic_string@DU?$char_traits@D@std@@V?$allocator@D@2@@0@0@Z ; std::operator<<char,std::char_traits<char>,std::allocator<char> >
PUBLIC	??1?$_Alloc_construct_ptr@V?$allocator@U?$_Tree_node@U?$pair@$$CBV?$basic_string@DU?$char_traits@D@std@@V?$allocator@D@2@@std@@H@std@@PAX@std@@@std@@@std@@QAE@XZ ; std::_Alloc_construct_ptr<std::allocator<std::_Tree_node<std::pair<std::basic_string<char,std::char_traits<char>,std::allocator<char> > const ,int>,void *> > >::~_Alloc_construct_ptr<std::allocator<std::_Tree_node<std::pair<std::basic_string<char,std::char_traits<char>,std::allocator<char> > const ,int>,void *> > >
PUBLIC	??1?$_Alloc_construct_ptr@V?$allocator@U?$_Tree_node@U?$pair@$$CBV?$basic_string@DU?$char_traits@D@std@@V?$allocator@D@2@@std@@PAUVERTBOX_INFO@CXScaleManagerImp@@@std@@PAX@std@@@std@@@std@@QAE@XZ ; std::_Alloc_construct_ptr<std::allocator<std::_Tree_node<std::pair<std::basic_string<char,std::char_traits<char>,std::allocator<char> > const ,CXScaleManagerImp::VERTBOX_INFO *>,void *> > >::~_Alloc_construct_ptr<std::allocator<std::_Tree_node<std::pair<std::basic_string<char,std::char_traits<char>,std::allocator<char> > const ,CXScaleManagerImp::VERTBOX_INFO *>,void *> > >
PUBLIC	??_R0?AVCObject@@@8				; CObject `RTTI Type Descriptor'
PUBLIC	??_R3CObject@@8					; CObject::`RTTI Class Hierarchy Descriptor'
PUBLIC	??_R2CObject@@8					; CObject::`RTTI Base Class Array'
PUBLIC	??_R1A@?0A@EA@CObject@@8			; CObject::`RTTI Base Class Descriptor at (0,-1,0,64)'
PUBLIC	??_7exception@std@@6B@				; std::exception::`vftable'
PUBLIC	??_C@_0BC@EOODALEL@Unknown?5exception@		; `string'
PUBLIC	??_7bad_alloc@std@@6B@				; std::bad_alloc::`vftable'
PUBLIC	??_7bad_array_new_length@std@@6B@		; std::bad_array_new_length::`vftable'
PUBLIC	??_C@_0BF@KINCDENJ@bad?5array?5new?5length@	; `string'
PUBLIC	__TI3?AVbad_array_new_length@std@@
PUBLIC	__CTA3?AVbad_array_new_length@std@@
PUBLIC	??_R0?AVbad_array_new_length@std@@@8		; std::bad_array_new_length `RTTI Type Descriptor'
PUBLIC	__CT??_R0?AVbad_array_new_length@std@@@8??0bad_array_new_length@std@@QAE@ABV01@@Z12
PUBLIC	??_R0?AVbad_alloc@std@@@8			; std::bad_alloc `RTTI Type Descriptor'
PUBLIC	__CT??_R0?AVbad_alloc@std@@@8??0bad_alloc@std@@QAE@ABV01@@Z12
PUBLIC	??_R0?AVexception@std@@@8			; std::exception `RTTI Type Descriptor'
PUBLIC	__CT??_R0?AVexception@std@@@8??0exception@std@@QAE@ABV01@@Z12
PUBLIC	??_C@_0BB@GCADKGJO@map?1set?5too?5long@		; `string'
PUBLIC	??_C@_0BA@JFNIOLAK@string?5too?5long@		; `string'
PUBLIC	??_7CDataBlockListUNK@@6B@			; CDataBlockListUNK::`vftable'
PUBLIC	??_7CMapTimeToLong@@6B@				; CMapTimeToLong::`vftable'
PUBLIC	??_7CXScaleManager@@6B@				; CXScaleManager::`vftable'
PUBLIC	??_7?$CDataBlockList@Utm@@$0CAA@@@6B@		; CDataBlockList<tm,512>::`vftable'
PUBLIC	??_7?$CDataBlockList@H$0CAA@@@6B@		; CDataBlockList<int,512>::`vftable'
PUBLIC	??_7?$CDataBlockList@UtagAREA@CXScaleManager@@$0CAA@@@6B@ ; CDataBlockList<CXScaleManager::tagAREA,512>::`vftable'
PUBLIC	??_7?$CDataBlockList@_J$0CAA@@@6B@		; CDataBlockList<__int64,512>::`vftable'
PUBLIC	??_7?$CTypedPtrMap@VCMapWordToPtr@@FPAVCXScaleGridTime@@@@6B@ ; CTypedPtrMap<CMapWordToPtr,short,CXScaleGridTime *>::`vftable'
PUBLIC	??_7CXScaleManagerImp@@6B@			; CXScaleManagerImp::`vftable'
PUBLIC	??_C@_02PPNCLIJD@SS@				; `string'
PUBLIC	??_C@_07MGCPDNLD@DEFAULT@			; `string'
PUBLIC	??_C@_08KLIIINKM@MMDDHHMM@			; `string'
PUBLIC	??_C@_06EBMMBHJD@YYYYMM@			; `string'
PUBLIC	??_C@_04GICMHJFP@?$CFY?$CFm@			; `string'
PUBLIC	??_C@_08DKDJLCMP@YYYYMMDD@			; `string'
PUBLIC	??_C@_06CLONMKIH@?$CFY?$CFm?$CFd@		; `string'
PUBLIC	??_C@_08LIEOKHEF@?$CFm?$CFd?$CFH?$CFM@		; `string'
PUBLIC	??_C@_06MAANBBPI@HHMMSS@			; `string'
PUBLIC	??_C@_06NDFCBELD@?$CFH?$CFM?$CFS@		; `string'
PUBLIC	??_C@_08JFMBEEDE@DDHHMMSS@			; `string'
PUBLIC	??_C@_08DEPALGMO@?$CFd?$CFH?$CFM?$CFS@		; `string'
PUBLIC	??_C@_0P@IMPIBBAB@YYYYMMDDHHMMSS@		; `string'
PUBLIC	??_C@_0N@BNMNAMM@?$CFY?$CFm?$CFd?$CFH?$CFM?$CFS@ ; `string'
PUBLIC	??_C@_01GBGANLPD@0@				; `string'
PUBLIC	??_C@_0BA@FOIKENOD@vector?5too?5long@		; `string'
PUBLIC	??_R4exception@std@@6B@				; std::exception::`RTTI Complete Object Locator'
PUBLIC	??_R3exception@std@@8				; std::exception::`RTTI Class Hierarchy Descriptor'
PUBLIC	??_R2exception@std@@8				; std::exception::`RTTI Base Class Array'
PUBLIC	??_R1A@?0A@EA@exception@std@@8			; std::exception::`RTTI Base Class Descriptor at (0,-1,0,64)'
PUBLIC	??_R4bad_alloc@std@@6B@				; std::bad_alloc::`RTTI Complete Object Locator'
PUBLIC	??_R3bad_alloc@std@@8				; std::bad_alloc::`RTTI Class Hierarchy Descriptor'
PUBLIC	??_R2bad_alloc@std@@8				; std::bad_alloc::`RTTI Base Class Array'
PUBLIC	??_R1A@?0A@EA@bad_alloc@std@@8			; std::bad_alloc::`RTTI Base Class Descriptor at (0,-1,0,64)'
PUBLIC	??_R4bad_array_new_length@std@@6B@		; std::bad_array_new_length::`RTTI Complete Object Locator'
PUBLIC	??_R3bad_array_new_length@std@@8		; std::bad_array_new_length::`RTTI Class Hierarchy Descriptor'
PUBLIC	??_R2bad_array_new_length@std@@8		; std::bad_array_new_length::`RTTI Base Class Array'
PUBLIC	??_R1A@?0A@EA@bad_array_new_length@std@@8	; std::bad_array_new_length::`RTTI Base Class Descriptor at (0,-1,0,64)'
PUBLIC	??_R4CDataBlockListUNK@@6B@			; CDataBlockListUNK::`RTTI Complete Object Locator'
PUBLIC	??_R0?AVCDataBlockListUNK@@@8			; CDataBlockListUNK `RTTI Type Descriptor'
PUBLIC	??_R3CDataBlockListUNK@@8			; CDataBlockListUNK::`RTTI Class Hierarchy Descriptor'
PUBLIC	??_R2CDataBlockListUNK@@8			; CDataBlockListUNK::`RTTI Base Class Array'
PUBLIC	??_R1A@?0A@EA@CDataBlockListUNK@@8		; CDataBlockListUNK::`RTTI Base Class Descriptor at (0,-1,0,64)'
PUBLIC	??_R4CMapTimeToLong@@6B@			; CMapTimeToLong::`RTTI Complete Object Locator'
PUBLIC	??_R0?AVCMapTimeToLong@@@8			; CMapTimeToLong `RTTI Type Descriptor'
PUBLIC	??_R3CMapTimeToLong@@8				; CMapTimeToLong::`RTTI Class Hierarchy Descriptor'
PUBLIC	??_R2CMapTimeToLong@@8				; CMapTimeToLong::`RTTI Base Class Array'
PUBLIC	??_R1A@?0A@EA@CMapTimeToLong@@8			; CMapTimeToLong::`RTTI Base Class Descriptor at (0,-1,0,64)'
PUBLIC	??_R1A@?0A@EA@CMapPtrToPtr@@8			; CMapPtrToPtr::`RTTI Base Class Descriptor at (0,-1,0,64)'
PUBLIC	??_R0?AVCMapPtrToPtr@@@8			; CMapPtrToPtr `RTTI Type Descriptor'
PUBLIC	??_R3CMapPtrToPtr@@8				; CMapPtrToPtr::`RTTI Class Hierarchy Descriptor'
PUBLIC	??_R2CMapPtrToPtr@@8				; CMapPtrToPtr::`RTTI Base Class Array'
PUBLIC	??_R4CXScaleManager@@6B@			; CXScaleManager::`RTTI Complete Object Locator'
PUBLIC	??_R0?AVCXScaleManager@@@8			; CXScaleManager `RTTI Type Descriptor'
PUBLIC	??_R3CXScaleManager@@8				; CXScaleManager::`RTTI Class Hierarchy Descriptor'
PUBLIC	??_R2CXScaleManager@@8				; CXScaleManager::`RTTI Base Class Array'
PUBLIC	??_R1A@?0A@EA@CXScaleManager@@8			; CXScaleManager::`RTTI Base Class Descriptor at (0,-1,0,64)'
PUBLIC	??_R4?$CDataBlockList@H$0CAA@@@6B@		; CDataBlockList<int,512>::`RTTI Complete Object Locator'
PUBLIC	??_R0?AV?$CDataBlockList@H$0CAA@@@@8		; CDataBlockList<int,512> `RTTI Type Descriptor'
PUBLIC	??_R3?$CDataBlockList@H$0CAA@@@8		; CDataBlockList<int,512>::`RTTI Class Hierarchy Descriptor'
PUBLIC	??_R2?$CDataBlockList@H$0CAA@@@8		; CDataBlockList<int,512>::`RTTI Base Class Array'
PUBLIC	??_R1A@?0A@EA@?$CDataBlockList@H$0CAA@@@8	; CDataBlockList<int,512>::`RTTI Base Class Descriptor at (0,-1,0,64)'
PUBLIC	??_R4?$CDataBlockList@Utm@@$0CAA@@@6B@		; CDataBlockList<tm,512>::`RTTI Complete Object Locator'
PUBLIC	??_R0?AV?$CDataBlockList@Utm@@$0CAA@@@@8	; CDataBlockList<tm,512> `RTTI Type Descriptor'
PUBLIC	??_R3?$CDataBlockList@Utm@@$0CAA@@@8		; CDataBlockList<tm,512>::`RTTI Class Hierarchy Descriptor'
PUBLIC	??_R2?$CDataBlockList@Utm@@$0CAA@@@8		; CDataBlockList<tm,512>::`RTTI Base Class Array'
PUBLIC	??_R1A@?0A@EA@?$CDataBlockList@Utm@@$0CAA@@@8	; CDataBlockList<tm,512>::`RTTI Base Class Descriptor at (0,-1,0,64)'
PUBLIC	??_R4?$CDataBlockList@UtagAREA@CXScaleManager@@$0CAA@@@6B@ ; CDataBlockList<CXScaleManager::tagAREA,512>::`RTTI Complete Object Locator'
PUBLIC	??_R0?AV?$CDataBlockList@UtagAREA@CXScaleManager@@$0CAA@@@@8 ; CDataBlockList<CXScaleManager::tagAREA,512> `RTTI Type Descriptor'
PUBLIC	??_R3?$CDataBlockList@UtagAREA@CXScaleManager@@$0CAA@@@8 ; CDataBlockList<CXScaleManager::tagAREA,512>::`RTTI Class Hierarchy Descriptor'
PUBLIC	??_R2?$CDataBlockList@UtagAREA@CXScaleManager@@$0CAA@@@8 ; CDataBlockList<CXScaleManager::tagAREA,512>::`RTTI Base Class Array'
PUBLIC	??_R1A@?0A@EA@?$CDataBlockList@UtagAREA@CXScaleManager@@$0CAA@@@8 ; CDataBlockList<CXScaleManager::tagAREA,512>::`RTTI Base Class Descriptor at (0,-1,0,64)'
PUBLIC	??_R4CXScaleManagerImp@@6B@			; CXScaleManagerImp::`RTTI Complete Object Locator'
PUBLIC	??_R0?AVCXScaleManagerImp@@@8			; CXScaleManagerImp `RTTI Type Descriptor'
PUBLIC	??_R3CXScaleManagerImp@@8			; CXScaleManagerImp::`RTTI Class Hierarchy Descriptor'
PUBLIC	??_R2CXScaleManagerImp@@8			; CXScaleManagerImp::`RTTI Base Class Array'
PUBLIC	??_R1A@?0A@EA@CXScaleManagerImp@@8		; CXScaleManagerImp::`RTTI Base Class Descriptor at (0,-1,0,64)'
PUBLIC	??_R4?$CDataBlockList@_J$0CAA@@@6B@		; CDataBlockList<__int64,512>::`RTTI Complete Object Locator'
PUBLIC	??_R0?AV?$CDataBlockList@_J$0CAA@@@@8		; CDataBlockList<__int64,512> `RTTI Type Descriptor'
PUBLIC	??_R3?$CDataBlockList@_J$0CAA@@@8		; CDataBlockList<__int64,512>::`RTTI Class Hierarchy Descriptor'
PUBLIC	??_R2?$CDataBlockList@_J$0CAA@@@8		; CDataBlockList<__int64,512>::`RTTI Base Class Array'
PUBLIC	??_R1A@?0A@EA@?$CDataBlockList@_J$0CAA@@@8	; CDataBlockList<__int64,512>::`RTTI Base Class Descriptor at (0,-1,0,64)'
PUBLIC	??_R4?$CTypedPtrMap@VCMapWordToPtr@@FPAVCXScaleGridTime@@@@6B@ ; CTypedPtrMap<CMapWordToPtr,short,CXScaleGridTime *>::`RTTI Complete Object Locator'
PUBLIC	??_R0?AV?$CTypedPtrMap@VCMapWordToPtr@@FPAVCXScaleGridTime@@@@@8 ; CTypedPtrMap<CMapWordToPtr,short,CXScaleGridTime *> `RTTI Type Descriptor'
PUBLIC	??_R3?$CTypedPtrMap@VCMapWordToPtr@@FPAVCXScaleGridTime@@@@8 ; CTypedPtrMap<CMapWordToPtr,short,CXScaleGridTime *>::`RTTI Class Hierarchy Descriptor'
PUBLIC	??_R2?$CTypedPtrMap@VCMapWordToPtr@@FPAVCXScaleGridTime@@@@8 ; CTypedPtrMap<CMapWordToPtr,short,CXScaleGridTime *>::`RTTI Base Class Array'
PUBLIC	??_R1A@?0A@EA@?$CTypedPtrMap@VCMapWordToPtr@@FPAVCXScaleGridTime@@@@8 ; CTypedPtrMap<CMapWordToPtr,short,CXScaleGridTime *>::`RTTI Base Class Descriptor at (0,-1,0,64)'
PUBLIC	??_R1A@?0A@EA@CMapWordToPtr@@8			; CMapWordToPtr::`RTTI Base Class Descriptor at (0,-1,0,64)'
PUBLIC	??_R0?AVCMapWordToPtr@@@8			; CMapWordToPtr `RTTI Type Descriptor'
PUBLIC	??_R3CMapWordToPtr@@8				; CMapWordToPtr::`RTTI Class Hierarchy Descriptor'
PUBLIC	??_R2CMapWordToPtr@@8				; CMapWordToPtr::`RTTI Base Class Array'
PUBLIC	__real@0000000000000000
PUBLIC	__real@3fe0000000000000
PUBLIC	__real@3ff0000000000000
PUBLIC	__real@4000000000000000
PUBLIC	__real@40dfffc000000000
PUBLIC	__real@c0e0000000000000
PUBLIC	__xmm@3ff00000000000003ff0000000000000
PUBLIC	__xmm@80000000000000008000000000000000
EXTRN	??_L@YGXPAXIIP6EX0@Z1@Z:PROC			; `eh vector constructor iterator'
EXTRN	??_M@YGXPAXIIP6EX0@Z@Z:PROC			; `eh vector destructor iterator'
EXTRN	__purecall:PROC
EXTRN	??2@YAPAXI@Z:PROC				; operator new
EXTRN	??3@YAXPAX@Z:PROC				; operator delete
EXTRN	??3@YAXPAXI@Z:PROC				; operator delete
EXTRN	?__global_delete@@YAXPAXI@Z:PROC		; __global_delete
EXTRN	??_U@YAPAXI@Z:PROC				; operator new[]
EXTRN	??_V@YAXPAX@Z:PROC				; operator delete[]
EXTRN	___std_terminate:PROC
EXTRN	__imp___invalid_parameter_noinfo:PROC
EXTRN	__imp___invalid_parameter_noinfo_noreturn:PROC
EXTRN	__imp___errno:PROC
EXTRN	__imp__lstrcmpA@8:PROC
EXTRN	__imp__SetRectEmpty@4:PROC
EXTRN	__imp__InflateRect@12:PROC
EXTRN	__imp__IsRectEmpty@4:PROC
EXTRN	__imp__EqualRect@8:PROC
EXTRN	__imp__malloc:PROC
EXTRN	__imp__atof:PROC
EXTRN	__imp___localtime64:PROC
EXTRN	__imp___localtime64_s:PROC
EXTRN	__imp___mktime64:PROC
EXTRN	__imp__strftime:PROC
EXTRN	__imp___time64:PROC
EXTRN	?AfxThrowMemoryException@@YGXXZ:PROC		; AfxThrowMemoryException
EXTRN	?AfxThrowInvalidArgException@@YGXXZ:PROC	; AfxThrowInvalidArgException
EXTRN	?AfxThrowOleException@@YGXJ@Z:PROC		; AfxThrowOleException
EXTRN	__imp_??0?$CStringT@DV?$StrTraitMFC_DLL@DV?$ChTraitsCRT@D@ATL@@@@@ATL@@QAE@XZ:PROC
EXTRN	__imp_??0?$CStringT@DV?$StrTraitMFC_DLL@DV?$ChTraitsCRT@D@ATL@@@@@ATL@@QAE@ABV01@@Z:PROC
EXTRN	__imp_??0?$CStringT@DV?$StrTraitMFC_DLL@DV?$ChTraitsCRT@D@ATL@@@@@ATL@@QAE@PBD@Z:PROC
EXTRN	__imp_??1?$CStringT@DV?$StrTraitMFC_DLL@DV?$ChTraitsCRT@D@ATL@@@@@ATL@@QAE@XZ:PROC
EXTRN	__imp_??4?$CStringT@DV?$StrTraitMFC_DLL@DV?$ChTraitsCRT@D@ATL@@@@@ATL@@QAEAAV01@ABV01@@Z:PROC
EXTRN	__imp_??4?$CStringT@DV?$StrTraitMFC_DLL@DV?$ChTraitsCRT@D@ATL@@@@@ATL@@QAEAAV01@PBD@Z:PROC
EXTRN	__imp_?Compare@?$CStringT@DV?$StrTraitMFC_DLL@DV?$ChTraitsCRT@D@ATL@@@@@ATL@@QBEHPBD@Z:PROC
EXTRN	__imp_?Find@?$CStringT@DV?$StrTraitMFC_DLL@DV?$ChTraitsCRT@D@ATL@@@@@ATL@@QBEHPBDH@Z:PROC
EXTRN	??0CStringArray@@QAE@XZ:PROC			; CStringArray::CStringArray
EXTRN	?SetSize@CStringArray@@QAEXHH@Z:PROC		; CStringArray::SetSize
EXTRN	?SetAtGrow@CStringArray@@QAEXHABV?$CStringT@DV?$StrTraitMFC_DLL@DV?$ChTraitsCRT@D@ATL@@@@@ATL@@@Z:PROC ; CStringArray::SetAtGrow
EXTRN	?Append@CStringArray@@QAEHABV1@@Z:PROC		; CStringArray::Append
EXTRN	??1CStringArray@@UAE@XZ:PROC			; CStringArray::~CStringArray
EXTRN	?GetRuntimeClass@CMapWordToPtr@@UBEPAUCRuntimeClass@@XZ:PROC ; CMapWordToPtr::GetRuntimeClass
EXTRN	??0CMapWordToPtr@@QAE@H@Z:PROC			; CMapWordToPtr::CMapWordToPtr
EXTRN	?Lookup@CMapWordToPtr@@QBEHGAAPAX@Z:PROC	; CMapWordToPtr::Lookup
EXTRN	??ACMapWordToPtr@@QAEAAPAXG@Z:PROC		; CMapWordToPtr::operator[]
EXTRN	?RemoveAll@CMapWordToPtr@@QAEXXZ:PROC		; CMapWordToPtr::RemoveAll
EXTRN	?GetNextAssoc@CMapWordToPtr@@QBEXAAPAU__POSITION@@AAGAAPAX@Z:PROC ; CMapWordToPtr::GetNextAssoc
EXTRN	??1CMapWordToPtr@@UAE@XZ:PROC			; CMapWordToPtr::~CMapWordToPtr
EXTRN	?GetRuntimeClass@CMapPtrToPtr@@UBEPAUCRuntimeClass@@XZ:PROC ; CMapPtrToPtr::GetRuntimeClass
EXTRN	??0CMapPtrToPtr@@QAE@H@Z:PROC			; CMapPtrToPtr::CMapPtrToPtr
EXTRN	?Lookup@CMapPtrToPtr@@QBEHPAXAAPAX@Z:PROC	; CMapPtrToPtr::Lookup
EXTRN	??ACMapPtrToPtr@@QAEAAPAXPAX@Z:PROC		; CMapPtrToPtr::operator[]
EXTRN	?RemoveKey@CMapPtrToPtr@@QAEHPAX@Z:PROC		; CMapPtrToPtr::RemoveKey
EXTRN	?RemoveAll@CMapPtrToPtr@@QAEXXZ:PROC		; CMapPtrToPtr::RemoveAll
EXTRN	??1CMapPtrToPtr@@UAE@XZ:PROC			; CMapPtrToPtr::~CMapPtrToPtr
EXTRN	?_Xlength_error@std@@YAXPBD@Z:PROC		; std::_Xlength_error
EXTRN	___std_exception_copy:PROC
EXTRN	___std_exception_destroy:PROC
EXTRN	??_Eexception@std@@UAEPAXI@Z:PROC		; std::exception::`vector deleting destructor'
EXTRN	??_Ebad_alloc@std@@UAEPAXI@Z:PROC		; std::bad_alloc::`vector deleting destructor'
EXTRN	??_Ebad_array_new_length@std@@UAEPAXI@Z:PROC	; std::bad_array_new_length::`vector deleting destructor'
EXTRN	??1CDataBlockListUNK@@UAE@XZ:PROC		; CDataBlockListUNK::~CDataBlockListUNK
EXTRN	?Clear@CDataBlockListUNK@@QAEXXZ:PROC		; CDataBlockListUNK::Clear
EXTRN	?GetItemCount@CDataBlockListUNK@@QAEHXZ:PROC	; CDataBlockListUNK::GetItemCount
EXTRN	?DeleteBack@CDataBlockListUNK@@QAEXH@Z:PROC	; CDataBlockListUNK::DeleteBack
EXTRN	?SetAtUNK@CDataBlockListUNK@@QAEHHPAX@Z:PROC	; CDataBlockListUNK::SetAtUNK
EXTRN	?GetAtUNK@CDataBlockListUNK@@QAEPAXH@Z:PROC	; CDataBlockListUNK::GetAtUNK
EXTRN	?SetIndex@CDataBlockListUNK@@QAEXH@Z:PROC	; CDataBlockListUNK::SetIndex
EXTRN	?GetIndex@CDataBlockListUNK@@QAEHXZ:PROC	; CDataBlockListUNK::GetIndex
EXTRN	?GetNextUNK@CDataBlockListUNK@@QAEPAXXZ:PROC	; CDataBlockListUNK::GetNextUNK
EXTRN	?GetPrevUNK@CDataBlockListUNK@@QAEPAXXZ:PROC	; CDataBlockListUNK::GetPrevUNK
EXTRN	??_ECDataBlockListUNK@@UAEPAXI@Z:PROC		; CDataBlockListUNK::`vector deleting destructor'
EXTRN	??_ECMapTimeToLong@@UAEPAXI@Z:PROC		; CMapTimeToLong::`vector deleting destructor'
EXTRN	??_ECXScaleManager@@UAEPAXI@Z:PROC		; CXScaleManager::`vector deleting destructor'
EXTRN	??0CXScaleTimeDiffManager@@QAE@XZ:PROC		; CXScaleTimeDiffManager::CXScaleTimeDiffManager
EXTRN	??1CXScaleTimeDiffManager@@UAE@XZ:PROC		; CXScaleTimeDiffManager::~CXScaleTimeDiffManager
EXTRN	?SetXScaleManagerImp@CXScaleTimeDiffManager@@QAEXPAVCXScaleManagerImp@@@Z:PROC ; CXScaleTimeDiffManager::SetXScaleManagerImp
EXTRN	?InitRQDiffTime@CXScaleTimeDiffManager@@QAEXXZ:PROC ; CXScaleTimeDiffManager::InitRQDiffTime
EXTRN	?InitRQMarketTime@CXScaleTimeDiffManager@@QAEXXZ:PROC ; CXScaleTimeDiffManager::InitRQMarketTime
EXTRN	?SetRQDiffTime@CXScaleTimeDiffManager@@QAEXV?$CStringT@DV?$StrTraitMFC_DLL@DV?$ChTraitsCRT@D@ATL@@@@@ATL@@H_J@Z:PROC ; CXScaleTimeDiffManager::SetRQDiffTime
EXTRN	?SetRQMarketTime@CXScaleTimeDiffManager@@QAEXV?$CStringT@DV?$StrTraitMFC_DLL@DV?$ChTraitsCRT@D@ATL@@@@@ATL@@HHW4MARKETDAYTYPE@CPacketType@@@Z:PROC ; CXScaleTimeDiffManager::SetRQMarketTime
EXTRN	?SetCurrentRQ@CXScaleTimeDiffManager@@QAEXV?$CStringT@DV?$StrTraitMFC_DLL@DV?$ChTraitsCRT@D@ATL@@@@@ATL@@@Z:PROC ; CXScaleTimeDiffManager::SetCurrentRQ
EXTRN	?GetRQScreenTime@CXScaleTimeDiffManager@@QAE_JV?$CStringT@DV?$StrTraitMFC_DLL@DV?$ChTraitsCRT@D@ATL@@@@@ATL@@PAUtm@@@Z:PROC ; CXScaleTimeDiffManager::GetRQScreenTime
EXTRN	?GetRQScreenDateTime@CXScaleTimeDiffManager@@QAE_JV?$CStringT@DV?$StrTraitMFC_DLL@DV?$ChTraitsCRT@D@ATL@@@@@ATL@@_J@Z:PROC ; CXScaleTimeDiffManager::GetRQScreenDateTime
EXTRN	?CalcCurrentDateTimToPacketTime@CXScaleTimeDiffManager@@QAEPAUtm@@V?$CStringT@DV?$StrTraitMFC_DLL@DV?$ChTraitsCRT@D@ATL@@@@@ATL@@@Z:PROC ; CXScaleTimeDiffManager::CalcCurrentDateTimToPacketTime
EXTRN	??0CXScaleGridTime@@QAE@XZ:PROC			; CXScaleGridTime::CXScaleGridTime
EXTRN	??_E?$CDataBlockList@Utm@@$0CAA@@@UAEPAXI@Z:PROC ; CDataBlockList<tm,512>::`vector deleting destructor'
EXTRN	??_E?$CDataBlockList@H$0CAA@@@UAEPAXI@Z:PROC	; CDataBlockList<int,512>::`vector deleting destructor'
EXTRN	?PopLastScaleDataTime@CXScaleGridTime@@QAEXXZ:PROC ; CXScaleGridTime::PopLastScaleDataTime
EXTRN	?PushScaleDataTime@CXScaleGridTime@@QAEXHHUtm@@H@Z:PROC ; CXScaleGridTime::PushScaleDataTime
EXTRN	?RecalculateScaleType@CXScaleGridTime@@QAEHABV?$CStringT@DV?$StrTraitMFC_DLL@DV?$ChTraitsCRT@D@ATL@@@@@ATL@@W4HORZSCALEDRAWERTYPE@CScaleBaseData@@HAAHHW4CHART_MODE@CChartInfo@@@Z:PROC ; CXScaleGridTime::RecalculateScaleType
EXTRN	?GetLastDRI@CXScaleGridTime@@QAEHXZ:PROC	; CXScaleGridTime::GetLastDRI
EXTRN	?MakeScaleData@CXScaleGridTime@@QAEXHAAV?$CDataBlockList@Utm@@$0CAA@@@AAV?$CDataBlockList@H$0CAA@@@HW4CHART_MODE@CChartInfo@@@Z:PROC ; CXScaleGridTime::MakeScaleData
EXTRN	??_E?$CDataBlockList@UtagAREA@CXScaleManager@@$0CAA@@@UAEPAXI@Z:PROC ; CDataBlockList<CXScaleManager::tagAREA,512>::`vector deleting destructor'
EXTRN	??_E?$CDataBlockList@_J$0CAA@@@UAEPAXI@Z:PROC	; CDataBlockList<__int64,512>::`vector deleting destructor'
EXTRN	??_E?$CTypedPtrMap@VCMapWordToPtr@@FPAVCXScaleGridTime@@@@UAEPAXI@Z:PROC ; CTypedPtrMap<CMapWordToPtr,short,CXScaleGridTime *>::`vector deleting destructor'
EXTRN	??_ECXScaleManagerImp@@UAEPAXI@Z:PROC		; CXScaleManagerImp::`vector deleting destructor'
EXTRN	__imp_?GetType@CPacket@@QAE?AV?$CStringT@DV?$StrTraitMFC_DLL@DV?$ChTraitsCRT@D@ATL@@@@@ATL@@_N@Z:PROC
EXTRN	__imp_?GetnumericDataList@CPacket@@QAEPAV?$CList@NN@@XZ:PROC
EXTRN	__imp_?GetstrDataList@CPacket@@QAEPAV?$CList@V?$CStringT@DV?$StrTraitMFC_DLL@DV?$ChTraitsCRT@D@ATL@@@@@ATL@@V12@@@XZ:PROC
EXTRN	__imp_?GetRealType@CPacketList@@QBE?AW4REALTYPE@CPacketType@@XZ:PROC
EXTRN	__imp_?GetTimeInterval@CPacketList@@QAEHXZ:PROC
EXTRN	__imp_?GetDateUnitType@CPacketList@@QAE?AW4HORZSCALEDRAWERTYPE@CScaleBaseData@@XZ:PROC
EXTRN	__imp_?GetBaseData@CPacketList@@QAEPAVCPacket@@V?$CStringT@DV?$StrTraitMFC_DLL@DV?$ChTraitsCRT@D@ATL@@@@@ATL@@_N@Z:PROC
EXTRN	__imp_?GetBaseTimeDifference@CPacketList@@QAEHXZ:PROC
EXTRN	__imp_?GetCurrDateTime@CPacketList@@QBE_JXZ:PROC
EXTRN	__imp_?GetMarketTime@CPacketList@@QBE_NAAH0@Z:PROC
EXTRN	__imp_?GetMarketDayType@CPacketList@@QAE?AW4MARKETDAYTYPE@CPacketType@@XZ:PROC
EXTRN	__imp_?GetGraphIndicatorInfo@CIndicatorList@@QAEPAVCIndicatorInfo@@W4EIndicatorListType@@PBD1W4EIndicatorInfoGettingType@@@Z:PROC
EXTRN	__imp_?GetCommonCalConditionList@CIndicatorInfo@@QAEPAV?$CList@NN@@XZ:PROC
EXTRN	?IsSpecialTime@IMetaTable@@QAEHH@Z:PROC		; IMetaTable::IsSpecialTime
EXTRN	@__security_check_cookie@4:PROC
EXTRN	__CxxThrowException@8:PROC
EXTRN	___CxxFrameHandler3:PROC
EXTRN	__aulldvrm:PROC
EXTRN	__aullrem:PROC
EXTRN	__dtol3:PROC
EXTRN	_ceil:PROC
EXTRN	_memcpy:PROC
EXTRN	_memmove:PROC
EXTRN	_memset:PROC
EXTRN	??_7type_info@@6B@:QWORD			; type_info::`vftable'
EXTRN	?g_iMetaTable@@3VIMetaTable@@A:BYTE		; g_iMetaTable
EXTRN	___security_cookie:DWORD
EXTRN	__fltused:DWORD
;	COMDAT __xmm@80000000000000008000000000000000
CONST	SEGMENT
__xmm@80000000000000008000000000000000 DB 00H, 00H, 00H, 00H, 00H, 00H, 00H
	DB	080H, 00H, 00H, 00H, 00H, 00H, 00H, 00H, 080H
CONST	ENDS
;	COMDAT __xmm@3ff00000000000003ff0000000000000
CONST	SEGMENT
__xmm@3ff00000000000003ff0000000000000 DB 00H, 00H, 00H, 00H, 00H, 00H, 0f0H
	DB	'?', 00H, 00H, 00H, 00H, 00H, 00H, 0f0H, '?'
CONST	ENDS
;	COMDAT __real@c0e0000000000000
CONST	SEGMENT
__real@c0e0000000000000 DQ 0c0e0000000000000r	; -32768
CONST	ENDS
;	COMDAT __real@40dfffc000000000
CONST	SEGMENT
__real@40dfffc000000000 DQ 040dfffc000000000r	; 32767
CONST	ENDS
;	COMDAT __real@4000000000000000
CONST	SEGMENT
__real@4000000000000000 DQ 04000000000000000r	; 2
CONST	ENDS
;	COMDAT __real@3ff0000000000000
CONST	SEGMENT
__real@3ff0000000000000 DQ 03ff0000000000000r	; 1
CONST	ENDS
;	COMDAT __real@3fe0000000000000
CONST	SEGMENT
__real@3fe0000000000000 DQ 03fe0000000000000r	; 0.5
CONST	ENDS
;	COMDAT __real@0000000000000000
CONST	SEGMENT
__real@0000000000000000 DQ 00000000000000000r	; 0
CONST	ENDS
;	COMDAT ??_R2CMapWordToPtr@@8
rdata$r	SEGMENT
??_R2CMapWordToPtr@@8 DD FLAT:??_R1A@?0A@EA@CMapWordToPtr@@8 ; CMapWordToPtr::`RTTI Base Class Array'
	DD	FLAT:??_R1A@?0A@EA@CObject@@8
rdata$r	ENDS
;	COMDAT ??_R3CMapWordToPtr@@8
rdata$r	SEGMENT
??_R3CMapWordToPtr@@8 DD 00H				; CMapWordToPtr::`RTTI Class Hierarchy Descriptor'
	DD	00H
	DD	02H
	DD	FLAT:??_R2CMapWordToPtr@@8
rdata$r	ENDS
;	COMDAT ??_R0?AVCMapWordToPtr@@@8
data$rs	SEGMENT
??_R0?AVCMapWordToPtr@@@8 DD FLAT:??_7type_info@@6B@	; CMapWordToPtr `RTTI Type Descriptor'
	DD	00H
	DB	'.?AVCMapWordToPtr@@', 00H
data$rs	ENDS
;	COMDAT ??_R1A@?0A@EA@CMapWordToPtr@@8
rdata$r	SEGMENT
??_R1A@?0A@EA@CMapWordToPtr@@8 DD FLAT:??_R0?AVCMapWordToPtr@@@8 ; CMapWordToPtr::`RTTI Base Class Descriptor at (0,-1,0,64)'
	DD	01H
	DD	00H
	DD	0ffffffffH
	DD	00H
	DD	040H
	DD	FLAT:??_R3CMapWordToPtr@@8
rdata$r	ENDS
;	COMDAT ??_R1A@?0A@EA@?$CTypedPtrMap@VCMapWordToPtr@@FPAVCXScaleGridTime@@@@8
rdata$r	SEGMENT
??_R1A@?0A@EA@?$CTypedPtrMap@VCMapWordToPtr@@FPAVCXScaleGridTime@@@@8 DD FLAT:??_R0?AV?$CTypedPtrMap@VCMapWordToPtr@@FPAVCXScaleGridTime@@@@@8 ; CTypedPtrMap<CMapWordToPtr,short,CXScaleGridTime *>::`RTTI Base Class Descriptor at (0,-1,0,64)'
	DD	02H
	DD	00H
	DD	0ffffffffH
	DD	00H
	DD	040H
	DD	FLAT:??_R3?$CTypedPtrMap@VCMapWordToPtr@@FPAVCXScaleGridTime@@@@8
rdata$r	ENDS
;	COMDAT ??_R2?$CTypedPtrMap@VCMapWordToPtr@@FPAVCXScaleGridTime@@@@8
rdata$r	SEGMENT
??_R2?$CTypedPtrMap@VCMapWordToPtr@@FPAVCXScaleGridTime@@@@8 DD FLAT:??_R1A@?0A@EA@?$CTypedPtrMap@VCMapWordToPtr@@FPAVCXScaleGridTime@@@@8 ; CTypedPtrMap<CMapWordToPtr,short,CXScaleGridTime *>::`RTTI Base Class Array'
	DD	FLAT:??_R1A@?0A@EA@CMapWordToPtr@@8
	DD	FLAT:??_R1A@?0A@EA@CObject@@8
rdata$r	ENDS
;	COMDAT ??_R3?$CTypedPtrMap@VCMapWordToPtr@@FPAVCXScaleGridTime@@@@8
rdata$r	SEGMENT
??_R3?$CTypedPtrMap@VCMapWordToPtr@@FPAVCXScaleGridTime@@@@8 DD 00H ; CTypedPtrMap<CMapWordToPtr,short,CXScaleGridTime *>::`RTTI Class Hierarchy Descriptor'
	DD	00H
	DD	03H
	DD	FLAT:??_R2?$CTypedPtrMap@VCMapWordToPtr@@FPAVCXScaleGridTime@@@@8
rdata$r	ENDS
;	COMDAT ??_R0?AV?$CTypedPtrMap@VCMapWordToPtr@@FPAVCXScaleGridTime@@@@@8
data$rs	SEGMENT
??_R0?AV?$CTypedPtrMap@VCMapWordToPtr@@FPAVCXScaleGridTime@@@@@8 DD FLAT:??_7type_info@@6B@ ; CTypedPtrMap<CMapWordToPtr,short,CXScaleGridTime *> `RTTI Type Descriptor'
	DD	00H
	DB	'.?AV?$CTypedPtrMap@VCMapWordToPtr@@FPAVCXScaleGridTime@@'
	DB	'@@', 00H
data$rs	ENDS
;	COMDAT ??_R4?$CTypedPtrMap@VCMapWordToPtr@@FPAVCXScaleGridTime@@@@6B@
rdata$r	SEGMENT
??_R4?$CTypedPtrMap@VCMapWordToPtr@@FPAVCXScaleGridTime@@@@6B@ DD 00H ; CTypedPtrMap<CMapWordToPtr,short,CXScaleGridTime *>::`RTTI Complete Object Locator'
	DD	00H
	DD	00H
	DD	FLAT:??_R0?AV?$CTypedPtrMap@VCMapWordToPtr@@FPAVCXScaleGridTime@@@@@8
	DD	FLAT:??_R3?$CTypedPtrMap@VCMapWordToPtr@@FPAVCXScaleGridTime@@@@8
rdata$r	ENDS
;	COMDAT ??_R1A@?0A@EA@?$CDataBlockList@_J$0CAA@@@8
rdata$r	SEGMENT
??_R1A@?0A@EA@?$CDataBlockList@_J$0CAA@@@8 DD FLAT:??_R0?AV?$CDataBlockList@_J$0CAA@@@@8 ; CDataBlockList<__int64,512>::`RTTI Base Class Descriptor at (0,-1,0,64)'
	DD	01H
	DD	00H
	DD	0ffffffffH
	DD	00H
	DD	040H
	DD	FLAT:??_R3?$CDataBlockList@_J$0CAA@@@8
rdata$r	ENDS
;	COMDAT ??_R2?$CDataBlockList@_J$0CAA@@@8
rdata$r	SEGMENT
??_R2?$CDataBlockList@_J$0CAA@@@8 DD FLAT:??_R1A@?0A@EA@?$CDataBlockList@_J$0CAA@@@8 ; CDataBlockList<__int64,512>::`RTTI Base Class Array'
	DD	FLAT:??_R1A@?0A@EA@CDataBlockListUNK@@8
rdata$r	ENDS
;	COMDAT ??_R3?$CDataBlockList@_J$0CAA@@@8
rdata$r	SEGMENT
??_R3?$CDataBlockList@_J$0CAA@@@8 DD 00H		; CDataBlockList<__int64,512>::`RTTI Class Hierarchy Descriptor'
	DD	00H
	DD	02H
	DD	FLAT:??_R2?$CDataBlockList@_J$0CAA@@@8
rdata$r	ENDS
;	COMDAT ??_R0?AV?$CDataBlockList@_J$0CAA@@@@8
data$rs	SEGMENT
??_R0?AV?$CDataBlockList@_J$0CAA@@@@8 DD FLAT:??_7type_info@@6B@ ; CDataBlockList<__int64,512> `RTTI Type Descriptor'
	DD	00H
	DB	'.?AV?$CDataBlockList@_J$0CAA@@@', 00H
data$rs	ENDS
;	COMDAT ??_R4?$CDataBlockList@_J$0CAA@@@6B@
rdata$r	SEGMENT
??_R4?$CDataBlockList@_J$0CAA@@@6B@ DD 00H		; CDataBlockList<__int64,512>::`RTTI Complete Object Locator'
	DD	00H
	DD	00H
	DD	FLAT:??_R0?AV?$CDataBlockList@_J$0CAA@@@@8
	DD	FLAT:??_R3?$CDataBlockList@_J$0CAA@@@8
rdata$r	ENDS
;	COMDAT ??_R1A@?0A@EA@CXScaleManagerImp@@8
rdata$r	SEGMENT
??_R1A@?0A@EA@CXScaleManagerImp@@8 DD FLAT:??_R0?AVCXScaleManagerImp@@@8 ; CXScaleManagerImp::`RTTI Base Class Descriptor at (0,-1,0,64)'
	DD	01H
	DD	00H
	DD	0ffffffffH
	DD	00H
	DD	040H
	DD	FLAT:??_R3CXScaleManagerImp@@8
rdata$r	ENDS
;	COMDAT ??_R2CXScaleManagerImp@@8
rdata$r	SEGMENT
??_R2CXScaleManagerImp@@8 DD FLAT:??_R1A@?0A@EA@CXScaleManagerImp@@8 ; CXScaleManagerImp::`RTTI Base Class Array'
	DD	FLAT:??_R1A@?0A@EA@CXScaleManager@@8
rdata$r	ENDS
;	COMDAT ??_R3CXScaleManagerImp@@8
rdata$r	SEGMENT
??_R3CXScaleManagerImp@@8 DD 00H			; CXScaleManagerImp::`RTTI Class Hierarchy Descriptor'
	DD	00H
	DD	02H
	DD	FLAT:??_R2CXScaleManagerImp@@8
rdata$r	ENDS
;	COMDAT ??_R0?AVCXScaleManagerImp@@@8
data$rs	SEGMENT
??_R0?AVCXScaleManagerImp@@@8 DD FLAT:??_7type_info@@6B@ ; CXScaleManagerImp `RTTI Type Descriptor'
	DD	00H
	DB	'.?AVCXScaleManagerImp@@', 00H
data$rs	ENDS
;	COMDAT ??_R4CXScaleManagerImp@@6B@
rdata$r	SEGMENT
??_R4CXScaleManagerImp@@6B@ DD 00H			; CXScaleManagerImp::`RTTI Complete Object Locator'
	DD	00H
	DD	00H
	DD	FLAT:??_R0?AVCXScaleManagerImp@@@8
	DD	FLAT:??_R3CXScaleManagerImp@@8
rdata$r	ENDS
;	COMDAT ??_R1A@?0A@EA@?$CDataBlockList@UtagAREA@CXScaleManager@@$0CAA@@@8
rdata$r	SEGMENT
??_R1A@?0A@EA@?$CDataBlockList@UtagAREA@CXScaleManager@@$0CAA@@@8 DD FLAT:??_R0?AV?$CDataBlockList@UtagAREA@CXScaleManager@@$0CAA@@@@8 ; CDataBlockList<CXScaleManager::tagAREA,512>::`RTTI Base Class Descriptor at (0,-1,0,64)'
	DD	01H
	DD	00H
	DD	0ffffffffH
	DD	00H
	DD	040H
	DD	FLAT:??_R3?$CDataBlockList@UtagAREA@CXScaleManager@@$0CAA@@@8
rdata$r	ENDS
;	COMDAT ??_R2?$CDataBlockList@UtagAREA@CXScaleManager@@$0CAA@@@8
rdata$r	SEGMENT
??_R2?$CDataBlockList@UtagAREA@CXScaleManager@@$0CAA@@@8 DD FLAT:??_R1A@?0A@EA@?$CDataBlockList@UtagAREA@CXScaleManager@@$0CAA@@@8 ; CDataBlockList<CXScaleManager::tagAREA,512>::`RTTI Base Class Array'
	DD	FLAT:??_R1A@?0A@EA@CDataBlockListUNK@@8
rdata$r	ENDS
;	COMDAT ??_R3?$CDataBlockList@UtagAREA@CXScaleManager@@$0CAA@@@8
rdata$r	SEGMENT
??_R3?$CDataBlockList@UtagAREA@CXScaleManager@@$0CAA@@@8 DD 00H ; CDataBlockList<CXScaleManager::tagAREA,512>::`RTTI Class Hierarchy Descriptor'
	DD	00H
	DD	02H
	DD	FLAT:??_R2?$CDataBlockList@UtagAREA@CXScaleManager@@$0CAA@@@8
rdata$r	ENDS
;	COMDAT ??_R0?AV?$CDataBlockList@UtagAREA@CXScaleManager@@$0CAA@@@@8
data$rs	SEGMENT
??_R0?AV?$CDataBlockList@UtagAREA@CXScaleManager@@$0CAA@@@@8 DD FLAT:??_7type_info@@6B@ ; CDataBlockList<CXScaleManager::tagAREA,512> `RTTI Type Descriptor'
	DD	00H
	DB	'.?AV?$CDataBlockList@UtagAREA@CXScaleManager@@$0CAA@@@', 00H
data$rs	ENDS
;	COMDAT ??_R4?$CDataBlockList@UtagAREA@CXScaleManager@@$0CAA@@@6B@
rdata$r	SEGMENT
??_R4?$CDataBlockList@UtagAREA@CXScaleManager@@$0CAA@@@6B@ DD 00H ; CDataBlockList<CXScaleManager::tagAREA,512>::`RTTI Complete Object Locator'
	DD	00H
	DD	00H
	DD	FLAT:??_R0?AV?$CDataBlockList@UtagAREA@CXScaleManager@@$0CAA@@@@8
	DD	FLAT:??_R3?$CDataBlockList@UtagAREA@CXScaleManager@@$0CAA@@@8
rdata$r	ENDS
;	COMDAT ??_R1A@?0A@EA@?$CDataBlockList@Utm@@$0CAA@@@8
rdata$r	SEGMENT
??_R1A@?0A@EA@?$CDataBlockList@Utm@@$0CAA@@@8 DD FLAT:??_R0?AV?$CDataBlockList@Utm@@$0CAA@@@@8 ; CDataBlockList<tm,512>::`RTTI Base Class Descriptor at (0,-1,0,64)'
	DD	01H
	DD	00H
	DD	0ffffffffH
	DD	00H
	DD	040H
	DD	FLAT:??_R3?$CDataBlockList@Utm@@$0CAA@@@8
rdata$r	ENDS
;	COMDAT ??_R2?$CDataBlockList@Utm@@$0CAA@@@8
rdata$r	SEGMENT
??_R2?$CDataBlockList@Utm@@$0CAA@@@8 DD FLAT:??_R1A@?0A@EA@?$CDataBlockList@Utm@@$0CAA@@@8 ; CDataBlockList<tm,512>::`RTTI Base Class Array'
	DD	FLAT:??_R1A@?0A@EA@CDataBlockListUNK@@8
rdata$r	ENDS
;	COMDAT ??_R3?$CDataBlockList@Utm@@$0CAA@@@8
rdata$r	SEGMENT
??_R3?$CDataBlockList@Utm@@$0CAA@@@8 DD 00H		; CDataBlockList<tm,512>::`RTTI Class Hierarchy Descriptor'
	DD	00H
	DD	02H
	DD	FLAT:??_R2?$CDataBlockList@Utm@@$0CAA@@@8
rdata$r	ENDS
;	COMDAT ??_R0?AV?$CDataBlockList@Utm@@$0CAA@@@@8
data$rs	SEGMENT
??_R0?AV?$CDataBlockList@Utm@@$0CAA@@@@8 DD FLAT:??_7type_info@@6B@ ; CDataBlockList<tm,512> `RTTI Type Descriptor'
	DD	00H
	DB	'.?AV?$CDataBlockList@Utm@@$0CAA@@@', 00H
data$rs	ENDS
;	COMDAT ??_R4?$CDataBlockList@Utm@@$0CAA@@@6B@
rdata$r	SEGMENT
??_R4?$CDataBlockList@Utm@@$0CAA@@@6B@ DD 00H		; CDataBlockList<tm,512>::`RTTI Complete Object Locator'
	DD	00H
	DD	00H
	DD	FLAT:??_R0?AV?$CDataBlockList@Utm@@$0CAA@@@@8
	DD	FLAT:??_R3?$CDataBlockList@Utm@@$0CAA@@@8
rdata$r	ENDS
;	COMDAT ??_R1A@?0A@EA@?$CDataBlockList@H$0CAA@@@8
rdata$r	SEGMENT
??_R1A@?0A@EA@?$CDataBlockList@H$0CAA@@@8 DD FLAT:??_R0?AV?$CDataBlockList@H$0CAA@@@@8 ; CDataBlockList<int,512>::`RTTI Base Class Descriptor at (0,-1,0,64)'
	DD	01H
	DD	00H
	DD	0ffffffffH
	DD	00H
	DD	040H
	DD	FLAT:??_R3?$CDataBlockList@H$0CAA@@@8
rdata$r	ENDS
;	COMDAT ??_R2?$CDataBlockList@H$0CAA@@@8
rdata$r	SEGMENT
??_R2?$CDataBlockList@H$0CAA@@@8 DD FLAT:??_R1A@?0A@EA@?$CDataBlockList@H$0CAA@@@8 ; CDataBlockList<int,512>::`RTTI Base Class Array'
	DD	FLAT:??_R1A@?0A@EA@CDataBlockListUNK@@8
rdata$r	ENDS
;	COMDAT ??_R3?$CDataBlockList@H$0CAA@@@8
rdata$r	SEGMENT
??_R3?$CDataBlockList@H$0CAA@@@8 DD 00H			; CDataBlockList<int,512>::`RTTI Class Hierarchy Descriptor'
	DD	00H
	DD	02H
	DD	FLAT:??_R2?$CDataBlockList@H$0CAA@@@8
rdata$r	ENDS
;	COMDAT ??_R0?AV?$CDataBlockList@H$0CAA@@@@8
data$rs	SEGMENT
??_R0?AV?$CDataBlockList@H$0CAA@@@@8 DD FLAT:??_7type_info@@6B@ ; CDataBlockList<int,512> `RTTI Type Descriptor'
	DD	00H
	DB	'.?AV?$CDataBlockList@H$0CAA@@@', 00H
data$rs	ENDS
;	COMDAT ??_R4?$CDataBlockList@H$0CAA@@@6B@
rdata$r	SEGMENT
??_R4?$CDataBlockList@H$0CAA@@@6B@ DD 00H		; CDataBlockList<int,512>::`RTTI Complete Object Locator'
	DD	00H
	DD	00H
	DD	FLAT:??_R0?AV?$CDataBlockList@H$0CAA@@@@8
	DD	FLAT:??_R3?$CDataBlockList@H$0CAA@@@8
rdata$r	ENDS
;	COMDAT ??_R1A@?0A@EA@CXScaleManager@@8
rdata$r	SEGMENT
??_R1A@?0A@EA@CXScaleManager@@8 DD FLAT:??_R0?AVCXScaleManager@@@8 ; CXScaleManager::`RTTI Base Class Descriptor at (0,-1,0,64)'
	DD	00H
	DD	00H
	DD	0ffffffffH
	DD	00H
	DD	040H
	DD	FLAT:??_R3CXScaleManager@@8
rdata$r	ENDS
;	COMDAT ??_R2CXScaleManager@@8
rdata$r	SEGMENT
??_R2CXScaleManager@@8 DD FLAT:??_R1A@?0A@EA@CXScaleManager@@8 ; CXScaleManager::`RTTI Base Class Array'
rdata$r	ENDS
;	COMDAT ??_R3CXScaleManager@@8
rdata$r	SEGMENT
??_R3CXScaleManager@@8 DD 00H				; CXScaleManager::`RTTI Class Hierarchy Descriptor'
	DD	00H
	DD	01H
	DD	FLAT:??_R2CXScaleManager@@8
rdata$r	ENDS
;	COMDAT ??_R0?AVCXScaleManager@@@8
data$rs	SEGMENT
??_R0?AVCXScaleManager@@@8 DD FLAT:??_7type_info@@6B@	; CXScaleManager `RTTI Type Descriptor'
	DD	00H
	DB	'.?AVCXScaleManager@@', 00H
data$rs	ENDS
;	COMDAT ??_R4CXScaleManager@@6B@
rdata$r	SEGMENT
??_R4CXScaleManager@@6B@ DD 00H				; CXScaleManager::`RTTI Complete Object Locator'
	DD	00H
	DD	00H
	DD	FLAT:??_R0?AVCXScaleManager@@@8
	DD	FLAT:??_R3CXScaleManager@@8
rdata$r	ENDS
;	COMDAT ??_R2CMapPtrToPtr@@8
rdata$r	SEGMENT
??_R2CMapPtrToPtr@@8 DD FLAT:??_R1A@?0A@EA@CMapPtrToPtr@@8 ; CMapPtrToPtr::`RTTI Base Class Array'
	DD	FLAT:??_R1A@?0A@EA@CObject@@8
rdata$r	ENDS
;	COMDAT ??_R3CMapPtrToPtr@@8
rdata$r	SEGMENT
??_R3CMapPtrToPtr@@8 DD 00H				; CMapPtrToPtr::`RTTI Class Hierarchy Descriptor'
	DD	00H
	DD	02H
	DD	FLAT:??_R2CMapPtrToPtr@@8
rdata$r	ENDS
;	COMDAT ??_R0?AVCMapPtrToPtr@@@8
data$rs	SEGMENT
??_R0?AVCMapPtrToPtr@@@8 DD FLAT:??_7type_info@@6B@	; CMapPtrToPtr `RTTI Type Descriptor'
	DD	00H
	DB	'.?AVCMapPtrToPtr@@', 00H
data$rs	ENDS
;	COMDAT ??_R1A@?0A@EA@CMapPtrToPtr@@8
rdata$r	SEGMENT
??_R1A@?0A@EA@CMapPtrToPtr@@8 DD FLAT:??_R0?AVCMapPtrToPtr@@@8 ; CMapPtrToPtr::`RTTI Base Class Descriptor at (0,-1,0,64)'
	DD	01H
	DD	00H
	DD	0ffffffffH
	DD	00H
	DD	040H
	DD	FLAT:??_R3CMapPtrToPtr@@8
rdata$r	ENDS
;	COMDAT ??_R1A@?0A@EA@CMapTimeToLong@@8
rdata$r	SEGMENT
??_R1A@?0A@EA@CMapTimeToLong@@8 DD FLAT:??_R0?AVCMapTimeToLong@@@8 ; CMapTimeToLong::`RTTI Base Class Descriptor at (0,-1,0,64)'
	DD	02H
	DD	00H
	DD	0ffffffffH
	DD	00H
	DD	040H
	DD	FLAT:??_R3CMapTimeToLong@@8
rdata$r	ENDS
;	COMDAT ??_R2CMapTimeToLong@@8
rdata$r	SEGMENT
??_R2CMapTimeToLong@@8 DD FLAT:??_R1A@?0A@EA@CMapTimeToLong@@8 ; CMapTimeToLong::`RTTI Base Class Array'
	DD	FLAT:??_R1A@?0A@EA@CMapPtrToPtr@@8
	DD	FLAT:??_R1A@?0A@EA@CObject@@8
rdata$r	ENDS
;	COMDAT ??_R3CMapTimeToLong@@8
rdata$r	SEGMENT
??_R3CMapTimeToLong@@8 DD 00H				; CMapTimeToLong::`RTTI Class Hierarchy Descriptor'
	DD	00H
	DD	03H
	DD	FLAT:??_R2CMapTimeToLong@@8
rdata$r	ENDS
;	COMDAT ??_R0?AVCMapTimeToLong@@@8
data$rs	SEGMENT
??_R0?AVCMapTimeToLong@@@8 DD FLAT:??_7type_info@@6B@	; CMapTimeToLong `RTTI Type Descriptor'
	DD	00H
	DB	'.?AVCMapTimeToLong@@', 00H
data$rs	ENDS
;	COMDAT ??_R4CMapTimeToLong@@6B@
rdata$r	SEGMENT
??_R4CMapTimeToLong@@6B@ DD 00H				; CMapTimeToLong::`RTTI Complete Object Locator'
	DD	00H
	DD	00H
	DD	FLAT:??_R0?AVCMapTimeToLong@@@8
	DD	FLAT:??_R3CMapTimeToLong@@8
rdata$r	ENDS
;	COMDAT ??_R1A@?0A@EA@CDataBlockListUNK@@8
rdata$r	SEGMENT
??_R1A@?0A@EA@CDataBlockListUNK@@8 DD FLAT:??_R0?AVCDataBlockListUNK@@@8 ; CDataBlockListUNK::`RTTI Base Class Descriptor at (0,-1,0,64)'
	DD	00H
	DD	00H
	DD	0ffffffffH
	DD	00H
	DD	040H
	DD	FLAT:??_R3CDataBlockListUNK@@8
rdata$r	ENDS
;	COMDAT ??_R2CDataBlockListUNK@@8
rdata$r	SEGMENT
??_R2CDataBlockListUNK@@8 DD FLAT:??_R1A@?0A@EA@CDataBlockListUNK@@8 ; CDataBlockListUNK::`RTTI Base Class Array'
rdata$r	ENDS
;	COMDAT ??_R3CDataBlockListUNK@@8
rdata$r	SEGMENT
??_R3CDataBlockListUNK@@8 DD 00H			; CDataBlockListUNK::`RTTI Class Hierarchy Descriptor'
	DD	00H
	DD	01H
	DD	FLAT:??_R2CDataBlockListUNK@@8
rdata$r	ENDS
;	COMDAT ??_R0?AVCDataBlockListUNK@@@8
data$rs	SEGMENT
??_R0?AVCDataBlockListUNK@@@8 DD FLAT:??_7type_info@@6B@ ; CDataBlockListUNK `RTTI Type Descriptor'
	DD	00H
	DB	'.?AVCDataBlockListUNK@@', 00H
data$rs	ENDS
;	COMDAT ??_R4CDataBlockListUNK@@6B@
rdata$r	SEGMENT
??_R4CDataBlockListUNK@@6B@ DD 00H			; CDataBlockListUNK::`RTTI Complete Object Locator'
	DD	00H
	DD	00H
	DD	FLAT:??_R0?AVCDataBlockListUNK@@@8
	DD	FLAT:??_R3CDataBlockListUNK@@8
rdata$r	ENDS
;	COMDAT ??_R1A@?0A@EA@bad_array_new_length@std@@8
rdata$r	SEGMENT
??_R1A@?0A@EA@bad_array_new_length@std@@8 DD FLAT:??_R0?AVbad_array_new_length@std@@@8 ; std::bad_array_new_length::`RTTI Base Class Descriptor at (0,-1,0,64)'
	DD	02H
	DD	00H
	DD	0ffffffffH
	DD	00H
	DD	040H
	DD	FLAT:??_R3bad_array_new_length@std@@8
rdata$r	ENDS
;	COMDAT ??_R2bad_array_new_length@std@@8
rdata$r	SEGMENT
??_R2bad_array_new_length@std@@8 DD FLAT:??_R1A@?0A@EA@bad_array_new_length@std@@8 ; std::bad_array_new_length::`RTTI Base Class Array'
	DD	FLAT:??_R1A@?0A@EA@bad_alloc@std@@8
	DD	FLAT:??_R1A@?0A@EA@exception@std@@8
rdata$r	ENDS
;	COMDAT ??_R3bad_array_new_length@std@@8
rdata$r	SEGMENT
??_R3bad_array_new_length@std@@8 DD 00H			; std::bad_array_new_length::`RTTI Class Hierarchy Descriptor'
	DD	00H
	DD	03H
	DD	FLAT:??_R2bad_array_new_length@std@@8
rdata$r	ENDS
;	COMDAT ??_R4bad_array_new_length@std@@6B@
rdata$r	SEGMENT
??_R4bad_array_new_length@std@@6B@ DD 00H		; std::bad_array_new_length::`RTTI Complete Object Locator'
	DD	00H
	DD	00H
	DD	FLAT:??_R0?AVbad_array_new_length@std@@@8
	DD	FLAT:??_R3bad_array_new_length@std@@8
rdata$r	ENDS
;	COMDAT ??_R1A@?0A@EA@bad_alloc@std@@8
rdata$r	SEGMENT
??_R1A@?0A@EA@bad_alloc@std@@8 DD FLAT:??_R0?AVbad_alloc@std@@@8 ; std::bad_alloc::`RTTI Base Class Descriptor at (0,-1,0,64)'
	DD	01H
	DD	00H
	DD	0ffffffffH
	DD	00H
	DD	040H
	DD	FLAT:??_R3bad_alloc@std@@8
rdata$r	ENDS
;	COMDAT ??_R2bad_alloc@std@@8
rdata$r	SEGMENT
??_R2bad_alloc@std@@8 DD FLAT:??_R1A@?0A@EA@bad_alloc@std@@8 ; std::bad_alloc::`RTTI Base Class Array'
	DD	FLAT:??_R1A@?0A@EA@exception@std@@8
rdata$r	ENDS
;	COMDAT ??_R3bad_alloc@std@@8
rdata$r	SEGMENT
??_R3bad_alloc@std@@8 DD 00H				; std::bad_alloc::`RTTI Class Hierarchy Descriptor'
	DD	00H
	DD	02H
	DD	FLAT:??_R2bad_alloc@std@@8
rdata$r	ENDS
;	COMDAT ??_R4bad_alloc@std@@6B@
rdata$r	SEGMENT
??_R4bad_alloc@std@@6B@ DD 00H				; std::bad_alloc::`RTTI Complete Object Locator'
	DD	00H
	DD	00H
	DD	FLAT:??_R0?AVbad_alloc@std@@@8
	DD	FLAT:??_R3bad_alloc@std@@8
rdata$r	ENDS
;	COMDAT ??_R1A@?0A@EA@exception@std@@8
rdata$r	SEGMENT
??_R1A@?0A@EA@exception@std@@8 DD FLAT:??_R0?AVexception@std@@@8 ; std::exception::`RTTI Base Class Descriptor at (0,-1,0,64)'
	DD	00H
	DD	00H
	DD	0ffffffffH
	DD	00H
	DD	040H
	DD	FLAT:??_R3exception@std@@8
rdata$r	ENDS
;	COMDAT ??_R2exception@std@@8
rdata$r	SEGMENT
??_R2exception@std@@8 DD FLAT:??_R1A@?0A@EA@exception@std@@8 ; std::exception::`RTTI Base Class Array'
rdata$r	ENDS
;	COMDAT ??_R3exception@std@@8
rdata$r	SEGMENT
??_R3exception@std@@8 DD 00H				; std::exception::`RTTI Class Hierarchy Descriptor'
	DD	00H
	DD	01H
	DD	FLAT:??_R2exception@std@@8
rdata$r	ENDS
;	COMDAT ??_R4exception@std@@6B@
rdata$r	SEGMENT
??_R4exception@std@@6B@ DD 00H				; std::exception::`RTTI Complete Object Locator'
	DD	00H
	DD	00H
	DD	FLAT:??_R0?AVexception@std@@@8
	DD	FLAT:??_R3exception@std@@8
rdata$r	ENDS
;	COMDAT ??_C@_0BA@FOIKENOD@vector?5too?5long@
CONST	SEGMENT
??_C@_0BA@FOIKENOD@vector?5too?5long@ DB 'vector too long', 00H ; `string'
CONST	ENDS
;	COMDAT ??_C@_01GBGANLPD@0@
CONST	SEGMENT
??_C@_01GBGANLPD@0@ DB '0', 00H				; `string'
CONST	ENDS
;	COMDAT ??_C@_0N@BNMNAMM@?$CFY?$CFm?$CFd?$CFH?$CFM?$CFS@
CONST	SEGMENT
??_C@_0N@BNMNAMM@?$CFY?$CFm?$CFd?$CFH?$CFM?$CFS@ DB '%Y%m%d%H%M%S', 00H ; `string'
CONST	ENDS
;	COMDAT ??_C@_0P@IMPIBBAB@YYYYMMDDHHMMSS@
CONST	SEGMENT
??_C@_0P@IMPIBBAB@YYYYMMDDHHMMSS@ DB 'YYYYMMDDHHMMSS', 00H ; `string'
CONST	ENDS
;	COMDAT ??_C@_08DEPALGMO@?$CFd?$CFH?$CFM?$CFS@
CONST	SEGMENT
??_C@_08DEPALGMO@?$CFd?$CFH?$CFM?$CFS@ DB '%d%H%M%S', 00H ; `string'
CONST	ENDS
;	COMDAT ??_C@_08JFMBEEDE@DDHHMMSS@
CONST	SEGMENT
??_C@_08JFMBEEDE@DDHHMMSS@ DB 'DDHHMMSS', 00H		; `string'
CONST	ENDS
;	COMDAT ??_C@_06NDFCBELD@?$CFH?$CFM?$CFS@
CONST	SEGMENT
??_C@_06NDFCBELD@?$CFH?$CFM?$CFS@ DB '%H%M%S', 00H	; `string'
CONST	ENDS
;	COMDAT ??_C@_06MAANBBPI@HHMMSS@
CONST	SEGMENT
??_C@_06MAANBBPI@HHMMSS@ DB 'HHMMSS', 00H		; `string'
CONST	ENDS
;	COMDAT ??_C@_08LIEOKHEF@?$CFm?$CFd?$CFH?$CFM@
CONST	SEGMENT
??_C@_08LIEOKHEF@?$CFm?$CFd?$CFH?$CFM@ DB '%m%d%H%M', 00H ; `string'
CONST	ENDS
;	COMDAT ??_C@_06CLONMKIH@?$CFY?$CFm?$CFd@
CONST	SEGMENT
??_C@_06CLONMKIH@?$CFY?$CFm?$CFd@ DB '%Y%m%d', 00H	; `string'
CONST	ENDS
;	COMDAT ??_C@_08DKDJLCMP@YYYYMMDD@
CONST	SEGMENT
??_C@_08DKDJLCMP@YYYYMMDD@ DB 'YYYYMMDD', 00H		; `string'
CONST	ENDS
;	COMDAT ??_C@_04GICMHJFP@?$CFY?$CFm@
CONST	SEGMENT
??_C@_04GICMHJFP@?$CFY?$CFm@ DB '%Y%m', 00H		; `string'
CONST	ENDS
;	COMDAT ??_C@_06EBMMBHJD@YYYYMM@
CONST	SEGMENT
??_C@_06EBMMBHJD@YYYYMM@ DB 'YYYYMM', 00H		; `string'
CONST	ENDS
;	COMDAT ??_C@_08KLIIINKM@MMDDHHMM@
CONST	SEGMENT
??_C@_08KLIIINKM@MMDDHHMM@ DB 'MMDDHHMM', 00H		; `string'
CONST	ENDS
;	COMDAT ??_C@_07MGCPDNLD@DEFAULT@
CONST	SEGMENT
??_C@_07MGCPDNLD@DEFAULT@ DB 'DEFAULT', 00H		; `string'
CONST	ENDS
;	COMDAT ??_C@_02PPNCLIJD@SS@
CONST	SEGMENT
??_C@_02PPNCLIJD@SS@ DB 'SS', 00H			; `string'
CONST	ENDS
;	COMDAT ??_7CXScaleManagerImp@@6B@
CONST	SEGMENT
??_7CXScaleManagerImp@@6B@ DD FLAT:??_R4CXScaleManagerImp@@6B@ ; CXScaleManagerImp::`vftable'
	DD	FLAT:??_ECXScaleManagerImp@@UAEPAXI@Z
	DD	FLAT:?GetRQIndexFromString@CXScaleManagerImp@@MAEHV?$CStringT@DV?$StrTraitMFC_DLL@DV?$ChTraitsCRT@D@ATL@@@@@ATL@@@Z
	DD	FLAT:?SetPacketListManager@CXScaleManagerImp@@UAEXPAVCPacketListManager@@@Z
	DD	FLAT:?SetIndicatorList@CXScaleManagerImp@@UAEXPAVCIndicatorList@@@Z
	DD	FLAT:?GetPacketListManager@CXScaleManagerImp@@UAEPAVCPacketListManager@@XZ
	DD	FLAT:?SetApplyToolBar@CXScaleManagerImp@@UAEXH@Z
	DD	FLAT:?GetApplyToolBar@CXScaleManagerImp@@UAEHXZ
	DD	FLAT:?SetReverse@CXScaleManagerImp@@UAEXH@Z
	DD	FLAT:?GetReverse@CXScaleManagerImp@@UAEHXZ
	DD	FLAT:?GetMinScaleInterval_nUnit@CXScaleManagerImp@@MAEHXZ
	DD	FLAT:?SetWeightedVolume@CXScaleManagerImp@@UAEXHH@Z
	DD	FLAT:?GetWeightedVolume@CXScaleManagerImp@@UAEHXZ
	DD	FLAT:?SetFutureTimeCount@CXScaleManagerImp@@MAEXH@Z
	DD	FLAT:?GetFutureTimeCount@CXScaleManagerImp@@MAEHXZ
	DD	FLAT:?SetLeftDataHideCount@CXScaleManagerImp@@UAEXHH@Z
	DD	FLAT:?GetLeftDataHideCount@CXScaleManagerImp@@UAEHXZ
	DD	FLAT:?GetUseOEBTMargin@CXScaleManagerImp@@UAEHXZ
	DD	FLAT:?SetUseOEBTMargin@CXScaleManagerImp@@UAEXH@Z
	DD	FLAT:?SetRightMarginWidth@CXScaleManagerImp@@UAEXH@Z
	DD	FLAT:?SetRightMarginAndFutureTime@CXScaleManagerImp@@MAEXHH@Z
	DD	FLAT:?SetCandleTypeOnResize@CXScaleManagerImp@@UAEXW4RSA_TYPE@CXScaleManager@@@Z
	DD	FLAT:?GetCandleTypeOnResize@CXScaleManagerImp@@UAE?AW4RSA_TYPE@CXScaleManager@@XZ
	DD	FLAT:?SetFixedInterval@CXScaleManagerImp@@UAEXHH@Z
	DD	FLAT:?IsFixedInterval@CXScaleManagerImp@@UAEHXZ
	DD	FLAT:?AddOEBTRQ@CXScaleManagerImp@@UAEXV?$CStringT@DV?$StrTraitMFC_DLL@DV?$ChTraitsCRT@D@ATL@@@@@ATL@@00@Z
	DD	FLAT:?DelOEBTRQ@CXScaleManagerImp@@UAEXV?$CStringT@DV?$StrTraitMFC_DLL@DV?$ChTraitsCRT@D@ATL@@@@@ATL@@@Z
	DD	FLAT:?Clear_OEBTRQ@CXScaleManagerImp@@UAEXXZ
	DD	FLAT:?Calc_DRI@CXScaleManagerImp@@MAEXH@Z
	DD	FLAT:?Calc_DRI_Merge@CXScaleManagerImp@@MAEXXZ
	DD	FLAT:?RealDataReceived@CXScaleManagerImp@@UAEXV?$CStringT@DV?$StrTraitMFC_DLL@DV?$ChTraitsCRT@D@ATL@@@@@ATL@@H@Z
	DD	FLAT:?SetBlockColumnCount@CXScaleManagerImp@@MAEXH@Z
	DD	FLAT:?SetBlockColumn_Cur@CXScaleManagerImp@@MAEXH@Z
	DD	FLAT:?SetIChartCtrl@CXScaleManagerImp@@UAEXPAUIChartCtrl@@@Z
	DD	FLAT:?GetCount@CXScaleManagerImp@@UAEHXZ
	DD	FLAT:?GetDrawCount_Cur@CXScaleManagerImp@@UAEHXZ
	DD	FLAT:?GetStartDrawIdx_Cur@CXScaleManagerImp@@UAEHXZ
	DD	FLAT:?GetEndDrawIdx_Cur@CXScaleManagerImp@@UAEHXZ
	DD	FLAT:?SetStartEndDrawIdx_Cur@CXScaleManagerImp@@UAEXHHH@Z
	DD	FLAT:?GetStartEndDrawIdx_Cur@CXScaleManagerImp@@UAEXAAH0@Z
	DD	FLAT:?GetPageCountNextStep@CXScaleManagerImp@@UAEHHHHHH@Z
	DD	FLAT:?GetDrawIndex@CXScaleManagerImp@@UAEXHHAAH0@Z
	DD	FLAT:?GetDrawIndex@CXScaleManagerImp@@UAEXV?$CStringT@DV?$StrTraitMFC_DLL@DV?$ChTraitsCRT@D@ATL@@@@@ATL@@HHAAH1@Z
	DD	FLAT:?GetDTIFromDRI_AbleRange@CXScaleManagerImp@@UAEHV?$CStringT@DV?$StrTraitMFC_DLL@DV?$ChTraitsCRT@D@ATL@@@@@ATL@@HPAH@Z
	DD	FLAT:?GetScaleUnit_Max@CXScaleManagerImp@@UAE?AW4HORZSCALEDRAWERTYPE@CScaleBaseData@@PBD@Z
	DD	FLAT:?GetScaleInterval_Unit_Max@CXScaleManagerImp@@UAEHXZ
	DD	FLAT:?SetCurScaleInfo@CXScaleManagerImp@@UAEXH@Z
	DD	FLAT:?GetCurScaleInfo@CXScaleManagerImp@@UAEXAAH@Z
	DD	FLAT:?NextScaleTime@CXScaleManagerImp@@MAEHPA_JPAPAUtagAREA@CXScaleManager@@@Z
	DD	FLAT:?PrevScaleTime@CXScaleManagerImp@@MAEXPA_JPAPAUtagAREA@CXScaleManager@@@Z
	DD	FLAT:?GetAt_ScaleTime@CXScaleManagerImp@@MAEXHPA_JPAPAUtagAREA@CXScaleManager@@@Z
	DD	FLAT:?GetPacketType@CXScaleManagerImp@@UAE?AV?$CStringT@DV?$StrTraitMFC_DLL@DV?$ChTraitsCRT@D@ATL@@@@@ATL@@PBD@Z
	DD	FLAT:?GetAREAfRQnDTI@CXScaleManagerImp@@MAEHHHPAUtagAREA@CXScaleManager@@@Z
	DD	FLAT:?GetAREAfRQnDTI@CXScaleManagerImp@@MAEHV?$CStringT@DV?$StrTraitMFC_DLL@DV?$ChTraitsCRT@D@ATL@@@@@ATL@@HHPAUtagAREA@CXScaleManager@@@Z
	DD	FLAT:?GetRQInfosFromPt@CXScaleManagerImp@@MAEHHAAHAAVCStringArray@@AAV?$CArray@HH@@PAUtagAREA@CXScaleManager@@@Z
	DD	FLAT:?GetTimeFromX@CXScaleManagerImp@@MAE_JHPAHPAPAUtagAREA@CXScaleManager@@@Z
	DD	FLAT:?GetDoubleFromX@CXScaleManagerImp@@MAENHHHPAHPAPAUtagAREA@CXScaleManager@@PBD@Z
	DD	FLAT:?GetXFromDouble@CXScaleManagerImp@@MAEHHHNPAPAUtagAREA@CXScaleManager@@@Z
	DD	FLAT:?GetScaleUnitAlphaWeight@CXScaleManagerImp@@UAEHV?$CStringT@DV?$StrTraitMFC_DLL@DV?$ChTraitsCRT@D@ATL@@@@@ATL@@@Z
	DD	FLAT:?IsUseable@CXScaleManagerImp@@UAEHXZ
	DD	FLAT:?GetTimeFromDRI@CXScaleManagerImp@@UAEXHPA_J@Z
	DD	FLAT:?Initialize@CXScaleManagerImp@@UAEXH@Z
	DD	FLAT:?SetThreadFlag@CXScaleManagerImp@@UAEXH@Z
	DD	FLAT:?GetThreadFlag@CXScaleManagerImp@@UAEHXZ
	DD	FLAT:?GetCalculationMode@CXScaleManagerImp@@MAEHXZ
	DD	FLAT:?SetNeedCalcAreaFlag@CXScaleManagerImp@@MAEXH@Z
	DD	FLAT:?IsSpecialTime@CXScaleManagerImp@@MAEHPBD_JAAJ@Z
	DD	FLAT:?SetDefaultDataSpace@CXScaleManagerImp@@MAEXHH@Z
	DD	FLAT:?Calc_AREA@CXScaleManagerImp@@MAEXH@Z
	DD	FLAT:?GetColumnWidth@CXScaleManagerImp@@MAEHH@Z
	DD	FLAT:?GetDRInFromPt@CXScaleManagerImp@@MAEHHPAHPAPAUtagAREA@CXScaleManager@@HH@Z
	DD	FLAT:?GetGraphXArea_End@CXScaleManagerImp@@MAEHHH@Z
	DD	FLAT:?GetGraphXArea_Left@CXScaleManagerImp@@MAEHHH@Z
	DD	FLAT:?GetGraphXArea_Right@CXScaleManagerImp@@MAEHHH@Z
	DD	FLAT:?GetGraphXArea_Start@CXScaleManagerImp@@MAEHHH@Z
	DD	FLAT:?GetScaleDRIandTime@CXScaleManagerImp@@MAEHHAAPAV?$CDataBlockList@H$0CAA@@@AAPAV?$CDataBlockList@Utm@@$0CAA@@@HW4HORZSCALEDRAWERTYPE@CScaleBaseData@@HPBDAAHABV?$CStringT@DV?$StrTraitMFC_DLL@DV?$ChTraitsCRT@D@ATL@@@@@ATL@@@Z
	DD	FLAT:?GetScreenWidth@CXScaleManagerImp@@MAEHH@Z
	DD	FLAT:?GetXFromTime@CXScaleManagerImp@@MAEHH_JPAPAUtagAREA@CXScaleManager@@H@Z
	DD	FLAT:?GetDTInAREAfRQnPt@CXScaleManagerImp@@MAEHV?$CStringT@DV?$StrTraitMFC_DLL@DV?$ChTraitsCRT@D@ATL@@@@@ATL@@HAAHPAHPAUtagAREA@CXScaleManager@@H@Z
	DD	FLAT:?GetDTInAREAfRQnPt@CXScaleManagerImp@@MAEHHAAHPAHPAUtagAREA@CXScaleManager@@@Z
	DD	FLAT:?IsAllOnePixel@CXScaleManagerImp@@MAEHHPBD@Z
	DD	FLAT:?IsInGraphXArea@CXScaleManagerImp@@MAEHHHH@Z
	DD	FLAT:?GetAreaFromDRI@CXScaleManagerImp@@MAEXHHPAPAUtagAREA@CXScaleManager@@@Z
	DD	FLAT:?GetGraphXAreaLR@CXScaleManagerImp@@MAEXHAAH0H@Z
	DD	FLAT:?GetGraphXAreaSE@CXScaleManagerImp@@MAEXHAAH0H@Z
	DD	FLAT:?SetColumnWidth@CXScaleManagerImp@@MAEXHH@Z
	DD	FLAT:?SetScreenRegion@CXScaleManagerImp@@MAEXHHHH@Z
	DD	FLAT:?GetDTIArea@CXScaleManagerImp@@MAEPAV?$CDataBlockList@UtagAREA@CXScaleManager@@$0CAA@@@HPBDAAH@Z
	DD	FLAT:?SetFlagForCalcDRIandScrollByReal@CXScaleManagerImp@@MAEXH@Z
	DD	FLAT:?IsScrollByReal@CXScaleManagerImp@@MAEHXZ
	DD	FLAT:?OnUserZoomChanged@CXScaleManagerImp@@MAEXXZ
	DD	FLAT:?IsEmptyData@CXScaleManagerImp@@MAEHXZ
	DD	FLAT:?AddVerticalBoxInfo@CXScaleManagerImp@@UAEXPBDNKH@Z
	DD	FLAT:?GetVerticalBoxInfo@CXScaleManagerImp@@UAEXPBD0AAVCRect@@AAKAAH@Z
	DD	FLAT:?GetPriceMinMaxShowType@CXScaleManagerImp@@MAEHXZ
	DD	FLAT:?SetPriceMinMaxShowType@CXScaleManagerImp@@MAEXH@Z
	DD	FLAT:?GetScaleDRIandTimeAllData@CXScaleManagerImp@@UAEHHAAPAV?$CDataBlockList@H$0CAA@@@AAPAV?$CDataBlockList@Utm@@$0CAA@@@W4HORZSCALEDRAWERTYPE@CScaleBaseData@@PBDAAH@Z
CONST	ENDS
;	COMDAT ??_7?$CTypedPtrMap@VCMapWordToPtr@@FPAVCXScaleGridTime@@@@6B@
CONST	SEGMENT
??_7?$CTypedPtrMap@VCMapWordToPtr@@FPAVCXScaleGridTime@@@@6B@ DD FLAT:??_R4?$CTypedPtrMap@VCMapWordToPtr@@FPAVCXScaleGridTime@@@@6B@ ; CTypedPtrMap<CMapWordToPtr,short,CXScaleGridTime *>::`vftable'
	DD	FLAT:?GetRuntimeClass@CMapWordToPtr@@UBEPAUCRuntimeClass@@XZ
	DD	FLAT:??_E?$CTypedPtrMap@VCMapWordToPtr@@FPAVCXScaleGridTime@@@@UAEPAXI@Z
	DD	FLAT:?Serialize@CObject@@UAEXAAVCArchive@@@Z
	DD	FLAT:?AssertValid@CObject@@UBEXXZ
	DD	FLAT:?Dump@CObject@@UBEXAAVCDumpContext@@@Z
CONST	ENDS
;	COMDAT ??_7?$CDataBlockList@_J$0CAA@@@6B@
CONST	SEGMENT
??_7?$CDataBlockList@_J$0CAA@@@6B@ DD FLAT:??_R4?$CDataBlockList@_J$0CAA@@@6B@ ; CDataBlockList<__int64,512>::`vftable'
	DD	FLAT:??_E?$CDataBlockList@_J$0CAA@@@UAEPAXI@Z
CONST	ENDS
;	COMDAT ??_7?$CDataBlockList@UtagAREA@CXScaleManager@@$0CAA@@@6B@
CONST	SEGMENT
??_7?$CDataBlockList@UtagAREA@CXScaleManager@@$0CAA@@@6B@ DD FLAT:??_R4?$CDataBlockList@UtagAREA@CXScaleManager@@$0CAA@@@6B@ ; CDataBlockList<CXScaleManager::tagAREA,512>::`vftable'
	DD	FLAT:??_E?$CDataBlockList@UtagAREA@CXScaleManager@@$0CAA@@@UAEPAXI@Z
CONST	ENDS
;	COMDAT ??_7?$CDataBlockList@H$0CAA@@@6B@
CONST	SEGMENT
??_7?$CDataBlockList@H$0CAA@@@6B@ DD FLAT:??_R4?$CDataBlockList@H$0CAA@@@6B@ ; CDataBlockList<int,512>::`vftable'
	DD	FLAT:??_E?$CDataBlockList@H$0CAA@@@UAEPAXI@Z
CONST	ENDS
;	COMDAT ??_7?$CDataBlockList@Utm@@$0CAA@@@6B@
CONST	SEGMENT
??_7?$CDataBlockList@Utm@@$0CAA@@@6B@ DD FLAT:??_R4?$CDataBlockList@Utm@@$0CAA@@@6B@ ; CDataBlockList<tm,512>::`vftable'
	DD	FLAT:??_E?$CDataBlockList@Utm@@$0CAA@@@UAEPAXI@Z
CONST	ENDS
;	COMDAT ??_7CXScaleManager@@6B@
CONST	SEGMENT
??_7CXScaleManager@@6B@ DD FLAT:??_R4CXScaleManager@@6B@ ; CXScaleManager::`vftable'
	DD	FLAT:??_ECXScaleManager@@UAEPAXI@Z
	DD	FLAT:__purecall
	DD	FLAT:__purecall
	DD	FLAT:__purecall
	DD	FLAT:__purecall
	DD	FLAT:__purecall
	DD	FLAT:__purecall
	DD	FLAT:__purecall
	DD	FLAT:__purecall
	DD	FLAT:__purecall
	DD	FLAT:__purecall
	DD	FLAT:__purecall
	DD	FLAT:__purecall
	DD	FLAT:__purecall
	DD	FLAT:__purecall
	DD	FLAT:__purecall
	DD	FLAT:__purecall
	DD	FLAT:__purecall
	DD	FLAT:__purecall
	DD	FLAT:__purecall
	DD	FLAT:__purecall
	DD	FLAT:__purecall
	DD	FLAT:__purecall
	DD	FLAT:__purecall
	DD	FLAT:__purecall
	DD	FLAT:__purecall
	DD	FLAT:__purecall
	DD	FLAT:__purecall
	DD	FLAT:__purecall
	DD	FLAT:__purecall
	DD	FLAT:__purecall
	DD	FLAT:__purecall
	DD	FLAT:__purecall
	DD	FLAT:__purecall
	DD	FLAT:__purecall
	DD	FLAT:__purecall
	DD	FLAT:__purecall
	DD	FLAT:__purecall
	DD	FLAT:__purecall
	DD	FLAT:__purecall
	DD	FLAT:__purecall
	DD	FLAT:__purecall
	DD	FLAT:__purecall
	DD	FLAT:__purecall
	DD	FLAT:__purecall
	DD	FLAT:__purecall
	DD	FLAT:__purecall
	DD	FLAT:__purecall
	DD	FLAT:__purecall
	DD	FLAT:__purecall
	DD	FLAT:__purecall
	DD	FLAT:__purecall
	DD	FLAT:__purecall
	DD	FLAT:__purecall
	DD	FLAT:__purecall
	DD	FLAT:__purecall
	DD	FLAT:__purecall
	DD	FLAT:__purecall
	DD	FLAT:__purecall
	DD	FLAT:__purecall
	DD	FLAT:__purecall
	DD	FLAT:__purecall
	DD	FLAT:__purecall
	DD	FLAT:__purecall
	DD	FLAT:__purecall
	DD	FLAT:__purecall
	DD	FLAT:__purecall
	DD	FLAT:__purecall
	DD	FLAT:__purecall
	DD	FLAT:__purecall
	DD	FLAT:__purecall
	DD	FLAT:__purecall
	DD	FLAT:__purecall
	DD	FLAT:__purecall
	DD	FLAT:__purecall
	DD	FLAT:__purecall
	DD	FLAT:__purecall
	DD	FLAT:__purecall
	DD	FLAT:__purecall
	DD	FLAT:__purecall
	DD	FLAT:__purecall
	DD	FLAT:__purecall
	DD	FLAT:__purecall
	DD	FLAT:__purecall
	DD	FLAT:__purecall
	DD	FLAT:__purecall
	DD	FLAT:__purecall
	DD	FLAT:__purecall
	DD	FLAT:__purecall
	DD	FLAT:__purecall
	DD	FLAT:__purecall
	DD	FLAT:__purecall
	DD	FLAT:__purecall
	DD	FLAT:__purecall
	DD	FLAT:__purecall
	DD	FLAT:__purecall
CONST	ENDS
;	COMDAT ??_7CMapTimeToLong@@6B@
CONST	SEGMENT
??_7CMapTimeToLong@@6B@ DD FLAT:??_R4CMapTimeToLong@@6B@ ; CMapTimeToLong::`vftable'
	DD	FLAT:?GetRuntimeClass@CMapPtrToPtr@@UBEPAUCRuntimeClass@@XZ
	DD	FLAT:??_ECMapTimeToLong@@UAEPAXI@Z
	DD	FLAT:?Serialize@CObject@@UAEXAAVCArchive@@@Z
	DD	FLAT:?AssertValid@CObject@@UBEXXZ
	DD	FLAT:?Dump@CObject@@UBEXAAVCDumpContext@@@Z
CONST	ENDS
;	COMDAT ??_7CDataBlockListUNK@@6B@
CONST	SEGMENT
??_7CDataBlockListUNK@@6B@ DD FLAT:??_R4CDataBlockListUNK@@6B@ ; CDataBlockListUNK::`vftable'
	DD	FLAT:??_ECDataBlockListUNK@@UAEPAXI@Z
CONST	ENDS
;	COMDAT ??_C@_0BA@JFNIOLAK@string?5too?5long@
CONST	SEGMENT
??_C@_0BA@JFNIOLAK@string?5too?5long@ DB 'string too long', 00H ; `string'
CONST	ENDS
;	COMDAT ??_C@_0BB@GCADKGJO@map?1set?5too?5long@
CONST	SEGMENT
??_C@_0BB@GCADKGJO@map?1set?5too?5long@ DB 'map/set too long', 00H ; `string'
CONST	ENDS
;	COMDAT __CT??_R0?AVexception@std@@@8??0exception@std@@QAE@ABV01@@Z12
xdata$x	SEGMENT
__CT??_R0?AVexception@std@@@8??0exception@std@@QAE@ABV01@@Z12 DD 00H
	DD	FLAT:??_R0?AVexception@std@@@8
	DD	00H
	DD	0ffffffffH
	ORG $+4
	DD	0cH
	DD	FLAT:??0exception@std@@QAE@ABV01@@Z
xdata$x	ENDS
;	COMDAT ??_R0?AVexception@std@@@8
data$r	SEGMENT
??_R0?AVexception@std@@@8 DD FLAT:??_7type_info@@6B@	; std::exception `RTTI Type Descriptor'
	DD	00H
	DB	'.?AVexception@std@@', 00H
data$r	ENDS
;	COMDAT __CT??_R0?AVbad_alloc@std@@@8??0bad_alloc@std@@QAE@ABV01@@Z12
xdata$x	SEGMENT
__CT??_R0?AVbad_alloc@std@@@8??0bad_alloc@std@@QAE@ABV01@@Z12 DD 010H
	DD	FLAT:??_R0?AVbad_alloc@std@@@8
	DD	00H
	DD	0ffffffffH
	ORG $+4
	DD	0cH
	DD	FLAT:??0bad_alloc@std@@QAE@ABV01@@Z
xdata$x	ENDS
;	COMDAT ??_R0?AVbad_alloc@std@@@8
data$r	SEGMENT
??_R0?AVbad_alloc@std@@@8 DD FLAT:??_7type_info@@6B@	; std::bad_alloc `RTTI Type Descriptor'
	DD	00H
	DB	'.?AVbad_alloc@std@@', 00H
data$r	ENDS
;	COMDAT __CT??_R0?AVbad_array_new_length@std@@@8??0bad_array_new_length@std@@QAE@ABV01@@Z12
xdata$x	SEGMENT
__CT??_R0?AVbad_array_new_length@std@@@8??0bad_array_new_length@std@@QAE@ABV01@@Z12 DD 00H
	DD	FLAT:??_R0?AVbad_array_new_length@std@@@8
	DD	00H
	DD	0ffffffffH
	ORG $+4
	DD	0cH
	DD	FLAT:??0bad_array_new_length@std@@QAE@ABV01@@Z
xdata$x	ENDS
;	COMDAT ??_R0?AVbad_array_new_length@std@@@8
data$r	SEGMENT
??_R0?AVbad_array_new_length@std@@@8 DD FLAT:??_7type_info@@6B@ ; std::bad_array_new_length `RTTI Type Descriptor'
	DD	00H
	DB	'.?AVbad_array_new_length@std@@', 00H
data$r	ENDS
;	COMDAT __CTA3?AVbad_array_new_length@std@@
xdata$x	SEGMENT
__CTA3?AVbad_array_new_length@std@@ DD 03H
	DD	FLAT:__CT??_R0?AVbad_array_new_length@std@@@8??0bad_array_new_length@std@@QAE@ABV01@@Z12
	DD	FLAT:__CT??_R0?AVbad_alloc@std@@@8??0bad_alloc@std@@QAE@ABV01@@Z12
	DD	FLAT:__CT??_R0?AVexception@std@@@8??0exception@std@@QAE@ABV01@@Z12
xdata$x	ENDS
;	COMDAT __TI3?AVbad_array_new_length@std@@
xdata$x	SEGMENT
__TI3?AVbad_array_new_length@std@@ DD 00H
	DD	FLAT:??1bad_array_new_length@std@@UAE@XZ
	DD	00H
	DD	FLAT:__CTA3?AVbad_array_new_length@std@@
xdata$x	ENDS
;	COMDAT ??_C@_0BF@KINCDENJ@bad?5array?5new?5length@
CONST	SEGMENT
??_C@_0BF@KINCDENJ@bad?5array?5new?5length@ DB 'bad array new length', 00H ; `string'
CONST	ENDS
;	COMDAT ??_7bad_array_new_length@std@@6B@
CONST	SEGMENT
??_7bad_array_new_length@std@@6B@ DD FLAT:??_R4bad_array_new_length@std@@6B@ ; std::bad_array_new_length::`vftable'
	DD	FLAT:??_Ebad_array_new_length@std@@UAEPAXI@Z
	DD	FLAT:?what@exception@std@@UBEPBDXZ
CONST	ENDS
;	COMDAT ??_7bad_alloc@std@@6B@
CONST	SEGMENT
??_7bad_alloc@std@@6B@ DD FLAT:??_R4bad_alloc@std@@6B@	; std::bad_alloc::`vftable'
	DD	FLAT:??_Ebad_alloc@std@@UAEPAXI@Z
	DD	FLAT:?what@exception@std@@UBEPBDXZ
CONST	ENDS
;	COMDAT ??_C@_0BC@EOODALEL@Unknown?5exception@
CONST	SEGMENT
??_C@_0BC@EOODALEL@Unknown?5exception@ DB 'Unknown exception', 00H ; `string'
CONST	ENDS
;	COMDAT ??_7exception@std@@6B@
CONST	SEGMENT
??_7exception@std@@6B@ DD FLAT:??_R4exception@std@@6B@	; std::exception::`vftable'
	DD	FLAT:??_Eexception@std@@UAEPAXI@Z
	DD	FLAT:?what@exception@std@@UBEPBDXZ
CONST	ENDS
;	COMDAT ??_R1A@?0A@EA@CObject@@8
rdata$r	SEGMENT
??_R1A@?0A@EA@CObject@@8 DD FLAT:??_R0?AVCObject@@@8	; CObject::`RTTI Base Class Descriptor at (0,-1,0,64)'
	DD	00H
	DD	00H
	DD	0ffffffffH
	DD	00H
	DD	040H
	DD	FLAT:??_R3CObject@@8
rdata$r	ENDS
;	COMDAT ??_R2CObject@@8
rdata$r	SEGMENT
??_R2CObject@@8 DD FLAT:??_R1A@?0A@EA@CObject@@8	; CObject::`RTTI Base Class Array'
rdata$r	ENDS
;	COMDAT ??_R3CObject@@8
rdata$r	SEGMENT
??_R3CObject@@8 DD 00H					; CObject::`RTTI Class Hierarchy Descriptor'
	DD	00H
	DD	01H
	DD	FLAT:??_R2CObject@@8
rdata$r	ENDS
;	COMDAT ??_R0?AVCObject@@@8
data$rs	SEGMENT
??_R0?AVCObject@@@8 DD FLAT:??_7type_info@@6B@		; CObject `RTTI Type Descriptor'
	DD	00H
	DB	'.?AVCObject@@', 00H
data$rs	ENDS
;	COMDAT xdata$x
xdata$x	SEGMENT
__unwindtable$??$?0U?$pair@V?$basic_string@DU?$char_traits@D@std@@V?$allocator@D@2@@std@@PAUVERTBOX_INFO@CXScaleManagerImp@@@std@@@?$_Tree_temp_node@V?$allocator@U?$_Tree_node@U?$pair@$$CBV?$basic_string@DU?$char_traits@D@std@@V?$allocator@D@2@@std@@PAUVERTBOX_INFO@CXScaleManagerImp@@@std@@PAX@std@@@std@@@std@@QAE@AAV?$allocator@U?$_Tree_node@U?$pair@$$CBV?$basic_string@DU?$char_traits@D@std@@V?$allocator@D@2@@std@@PAUVERTBOX_INFO@CXScaleManagerImp@@@std@@PAX@std@@@1@PAU?$_Tree_node@U?$pair@$$CBV?$basic_string@DU?$char_traits@D@std@@V?$allocator@D@2@@std@@PAUVERTBOX_INFO@CXScaleManagerImp@@@std@@PAX@1@$$QAU?$pair@V?$basic_string@DU?$char_traits@D@std@@V?$allocator@D@2@@std@@PAUVERTBOX_INFO@CXScaleManagerImp@@@1@@Z DD 0ffffffffH
	DD	FLAT:__unwindfunclet$??$?0U?$pair@V?$basic_string@DU?$char_traits@D@std@@V?$allocator@D@2@@std@@PAUVERTBOX_INFO@CXScaleManagerImp@@@std@@@?$_Tree_temp_node@V?$allocator@U?$_Tree_node@U?$pair@$$CBV?$basic_string@DU?$char_traits@D@std@@V?$allocator@D@2@@std@@PAUVERTBOX_INFO@CXScaleManagerImp@@@std@@PAX@std@@@std@@@std@@QAE@AAV?$allocator@U?$_Tree_node@U?$pair@$$CBV?$basic_string@DU?$char_traits@D@std@@V?$allocator@D@2@@std@@PAUVERTBOX_INFO@CXScaleManagerImp@@@std@@PAX@std@@@1@PAU?$_Tree_node@U?$pair@$$CBV?$basic_string@DU?$char_traits@D@std@@V?$allocator@D@2@@std@@PAUVERTBOX_INFO@CXScaleManagerImp@@@std@@PAX@1@$$QAU?$pair@V?$basic_string@DU?$char_traits@D@std@@V?$allocator@D@2@@std@@PAUVERTBOX_INFO@CXScaleManagerImp@@@1@@Z$1
__ehfuncinfo$??$?0U?$pair@V?$basic_string@DU?$char_traits@D@std@@V?$allocator@D@2@@std@@PAUVERTBOX_INFO@CXScaleManagerImp@@@std@@@?$_Tree_temp_node@V?$allocator@U?$_Tree_node@U?$pair@$$CBV?$basic_string@DU?$char_traits@D@std@@V?$allocator@D@2@@std@@PAUVERTBOX_INFO@CXScaleManagerImp@@@std@@PAX@std@@@std@@@std@@QAE@AAV?$allocator@U?$_Tree_node@U?$pair@$$CBV?$basic_string@DU?$char_traits@D@std@@V?$allocator@D@2@@std@@PAUVERTBOX_INFO@CXScaleManagerImp@@@std@@PAX@std@@@1@PAU?$_Tree_node@U?$pair@$$CBV?$basic_string@DU?$char_traits@D@std@@V?$allocator@D@2@@std@@PAUVERTBOX_INFO@CXScaleManagerImp@@@std@@PAX@1@$$QAU?$pair@V?$basic_string@DU?$char_traits@D@std@@V?$allocator@D@2@@std@@PAUVERTBOX_INFO@CXScaleManagerImp@@@1@@Z DD 019930522H
	DD	01H
	DD	FLAT:__unwindtable$??$?0U?$pair@V?$basic_string@DU?$char_traits@D@std@@V?$allocator@D@2@@std@@PAUVERTBOX_INFO@CXScaleManagerImp@@@std@@@?$_Tree_temp_node@V?$allocator@U?$_Tree_node@U?$pair@$$CBV?$basic_string@DU?$char_traits@D@std@@V?$allocator@D@2@@std@@PAUVERTBOX_INFO@CXScaleManagerImp@@@std@@PAX@std@@@std@@@std@@QAE@AAV?$allocator@U?$_Tree_node@U?$pair@$$CBV?$basic_string@DU?$char_traits@D@std@@V?$allocator@D@2@@std@@PAUVERTBOX_INFO@CXScaleManagerImp@@@std@@PAX@std@@@1@PAU?$_Tree_node@U?$pair@$$CBV?$basic_string@DU?$char_traits@D@std@@V?$allocator@D@2@@std@@PAUVERTBOX_INFO@CXScaleManagerImp@@@std@@PAX@1@$$QAU?$pair@V?$basic_string@DU?$char_traits@D@std@@V?$allocator@D@2@@std@@PAUVERTBOX_INFO@CXScaleManagerImp@@@1@@Z
	DD	2 DUP(00H)
	DD	2 DUP(00H)
	DD	00H
	DD	01H
xdata$x	ENDS
;	COMDAT xdata$x
xdata$x	SEGMENT
__unwindtable$??0?$_Tree_temp_node_alloc@V?$allocator@U?$_Tree_node@U?$pair@$$CBV?$basic_string@DU?$char_traits@D@std@@V?$allocator@D@2@@std@@PAUVERTBOX_INFO@CXScaleManagerImp@@@std@@PAX@std@@@std@@@std@@QAE@AAV?$allocator@U?$_Tree_node@U?$pair@$$CBV?$basic_string@DU?$char_traits@D@std@@V?$allocator@D@2@@std@@PAUVERTBOX_INFO@CXScaleManagerImp@@@std@@PAX@std@@@1@@Z DD 0ffffffffH
	DD	FLAT:__unwindfunclet$??0?$_Tree_temp_node_alloc@V?$allocator@U?$_Tree_node@U?$pair@$$CBV?$basic_string@DU?$char_traits@D@std@@V?$allocator@D@2@@std@@PAUVERTBOX_INFO@CXScaleManagerImp@@@std@@PAX@std@@@std@@@std@@QAE@AAV?$allocator@U?$_Tree_node@U?$pair@$$CBV?$basic_string@DU?$char_traits@D@std@@V?$allocator@D@2@@std@@PAUVERTBOX_INFO@CXScaleManagerImp@@@std@@PAX@std@@@1@@Z$0
__ehfuncinfo$??0?$_Tree_temp_node_alloc@V?$allocator@U?$_Tree_node@U?$pair@$$CBV?$basic_string@DU?$char_traits@D@std@@V?$allocator@D@2@@std@@PAUVERTBOX_INFO@CXScaleManagerImp@@@std@@PAX@std@@@std@@@std@@QAE@AAV?$allocator@U?$_Tree_node@U?$pair@$$CBV?$basic_string@DU?$char_traits@D@std@@V?$allocator@D@2@@std@@PAUVERTBOX_INFO@CXScaleManagerImp@@@std@@PAX@std@@@1@@Z DD 019930522H
	DD	01H
	DD	FLAT:__unwindtable$??0?$_Tree_temp_node_alloc@V?$allocator@U?$_Tree_node@U?$pair@$$CBV?$basic_string@DU?$char_traits@D@std@@V?$allocator@D@2@@std@@PAUVERTBOX_INFO@CXScaleManagerImp@@@std@@PAX@std@@@std@@@std@@QAE@AAV?$allocator@U?$_Tree_node@U?$pair@$$CBV?$basic_string@DU?$char_traits@D@std@@V?$allocator@D@2@@std@@PAUVERTBOX_INFO@CXScaleManagerImp@@@std@@PAX@std@@@1@@Z
	DD	2 DUP(00H)
	DD	2 DUP(00H)
	DD	00H
	DD	01H
xdata$x	ENDS
;	COMDAT xdata$x
xdata$x	SEGMENT
__unwindtable$??$?0U?$pair@V?$basic_string@DU?$char_traits@D@std@@V?$allocator@D@2@@std@@H@std@@@?$_Tree_temp_node@V?$allocator@U?$_Tree_node@U?$pair@$$CBV?$basic_string@DU?$char_traits@D@std@@V?$allocator@D@2@@std@@H@std@@PAX@std@@@std@@@std@@QAE@AAV?$allocator@U?$_Tree_node@U?$pair@$$CBV?$basic_string@DU?$char_traits@D@std@@V?$allocator@D@2@@std@@H@std@@PAX@std@@@1@PAU?$_Tree_node@U?$pair@$$CBV?$basic_string@DU?$char_traits@D@std@@V?$allocator@D@2@@std@@H@std@@PAX@1@$$QAU?$pair@V?$basic_string@DU?$char_traits@D@std@@V?$allocator@D@2@@std@@H@1@@Z DD 0ffffffffH
	DD	FLAT:__unwindfunclet$??$?0U?$pair@V?$basic_string@DU?$char_traits@D@std@@V?$allocator@D@2@@std@@H@std@@@?$_Tree_temp_node@V?$allocator@U?$_Tree_node@U?$pair@$$CBV?$basic_string@DU?$char_traits@D@std@@V?$allocator@D@2@@std@@H@std@@PAX@std@@@std@@@std@@QAE@AAV?$allocator@U?$_Tree_node@U?$pair@$$CBV?$basic_string@DU?$char_traits@D@std@@V?$allocator@D@2@@std@@H@std@@PAX@std@@@1@PAU?$_Tree_node@U?$pair@$$CBV?$basic_string@DU?$char_traits@D@std@@V?$allocator@D@2@@std@@H@std@@PAX@1@$$QAU?$pair@V?$basic_string@DU?$char_traits@D@std@@V?$allocator@D@2@@std@@H@1@@Z$1
__ehfuncinfo$??$?0U?$pair@V?$basic_string@DU?$char_traits@D@std@@V?$allocator@D@2@@std@@H@std@@@?$_Tree_temp_node@V?$allocator@U?$_Tree_node@U?$pair@$$CBV?$basic_string@DU?$char_traits@D@std@@V?$allocator@D@2@@std@@H@std@@PAX@std@@@std@@@std@@QAE@AAV?$allocator@U?$_Tree_node@U?$pair@$$CBV?$basic_string@DU?$char_traits@D@std@@V?$allocator@D@2@@std@@H@std@@PAX@std@@@1@PAU?$_Tree_node@U?$pair@$$CBV?$basic_string@DU?$char_traits@D@std@@V?$allocator@D@2@@std@@H@std@@PAX@1@$$QAU?$pair@V?$basic_string@DU?$char_traits@D@std@@V?$allocator@D@2@@std@@H@1@@Z DD 019930522H
	DD	01H
	DD	FLAT:__unwindtable$??$?0U?$pair@V?$basic_string@DU?$char_traits@D@std@@V?$allocator@D@2@@std@@H@std@@@?$_Tree_temp_node@V?$allocator@U?$_Tree_node@U?$pair@$$CBV?$basic_string@DU?$char_traits@D@std@@V?$allocator@D@2@@std@@H@std@@PAX@std@@@std@@@std@@QAE@AAV?$allocator@U?$_Tree_node@U?$pair@$$CBV?$basic_string@DU?$char_traits@D@std@@V?$allocator@D@2@@std@@H@std@@PAX@std@@@1@PAU?$_Tree_node@U?$pair@$$CBV?$basic_string@DU?$char_traits@D@std@@V?$allocator@D@2@@std@@H@std@@PAX@1@$$QAU?$pair@V?$basic_string@DU?$char_traits@D@std@@V?$allocator@D@2@@std@@H@1@@Z
	DD	2 DUP(00H)
	DD	2 DUP(00H)
	DD	00H
	DD	01H
xdata$x	ENDS
;	COMDAT xdata$x
xdata$x	SEGMENT
__unwindtable$??0?$_Tree_temp_node_alloc@V?$allocator@U?$_Tree_node@U?$pair@$$CBV?$basic_string@DU?$char_traits@D@std@@V?$allocator@D@2@@std@@H@std@@PAX@std@@@std@@@std@@QAE@AAV?$allocator@U?$_Tree_node@U?$pair@$$CBV?$basic_string@DU?$char_traits@D@std@@V?$allocator@D@2@@std@@H@std@@PAX@std@@@1@@Z DD 0ffffffffH
	DD	FLAT:__unwindfunclet$??0?$_Tree_temp_node_alloc@V?$allocator@U?$_Tree_node@U?$pair@$$CBV?$basic_string@DU?$char_traits@D@std@@V?$allocator@D@2@@std@@H@std@@PAX@std@@@std@@@std@@QAE@AAV?$allocator@U?$_Tree_node@U?$pair@$$CBV?$basic_string@DU?$char_traits@D@std@@V?$allocator@D@2@@std@@H@std@@PAX@std@@@1@@Z$0
__ehfuncinfo$??0?$_Tree_temp_node_alloc@V?$allocator@U?$_Tree_node@U?$pair@$$CBV?$basic_string@DU?$char_traits@D@std@@V?$allocator@D@2@@std@@H@std@@PAX@std@@@std@@@std@@QAE@AAV?$allocator@U?$_Tree_node@U?$pair@$$CBV?$basic_string@DU?$char_traits@D@std@@V?$allocator@D@2@@std@@H@std@@PAX@std@@@1@@Z DD 019930522H
	DD	01H
	DD	FLAT:__unwindtable$??0?$_Tree_temp_node_alloc@V?$allocator@U?$_Tree_node@U?$pair@$$CBV?$basic_string@DU?$char_traits@D@std@@V?$allocator@D@2@@std@@H@std@@PAX@std@@@std@@@std@@QAE@AAV?$allocator@U?$_Tree_node@U?$pair@$$CBV?$basic_string@DU?$char_traits@D@std@@V?$allocator@D@2@@std@@H@std@@PAX@std@@@1@@Z
	DD	2 DUP(00H)
	DD	2 DUP(00H)
	DD	00H
	DD	01H
xdata$x	ENDS
;	COMDAT xdata$x
xdata$x	SEGMENT
__unwindtable$??$_Emplace@U?$pair@V?$basic_string@DU?$char_traits@D@std@@V?$allocator@D@2@@std@@PAUVERTBOX_INFO@CXScaleManagerImp@@@std@@@?$_Tree@V?$_Tmap_traits@V?$basic_string@DU?$char_traits@D@std@@V?$allocator@D@2@@std@@PAUVERTBOX_INFO@CXScaleManagerImp@@U?$less@V?$basic_string@DU?$char_traits@D@std@@V?$allocator@D@2@@std@@@2@V?$allocator@U?$pair@$$CBV?$basic_string@DU?$char_traits@D@std@@V?$allocator@D@2@@std@@PAUVERTBOX_INFO@CXScaleManagerImp@@@std@@@2@$0A@@std@@@std@@IAE?AU?$pair@PAU?$_Tree_node@U?$pair@$$CBV?$basic_string@DU?$char_traits@D@std@@V?$allocator@D@2@@std@@PAUVERTBOX_INFO@CXScaleManagerImp@@@std@@PAX@std@@_N@1@$$QAU?$pair@V?$basic_string@DU?$char_traits@D@std@@V?$allocator@D@2@@std@@PAUVERTBOX_INFO@CXScaleManagerImp@@@1@@Z DD 0ffffffffH
	DD	FLAT:__unwindfunclet$??$_Emplace@U?$pair@V?$basic_string@DU?$char_traits@D@std@@V?$allocator@D@2@@std@@PAUVERTBOX_INFO@CXScaleManagerImp@@@std@@@?$_Tree@V?$_Tmap_traits@V?$basic_string@DU?$char_traits@D@std@@V?$allocator@D@2@@std@@PAUVERTBOX_INFO@CXScaleManagerImp@@U?$less@V?$basic_string@DU?$char_traits@D@std@@V?$allocator@D@2@@std@@@2@V?$allocator@U?$pair@$$CBV?$basic_string@DU?$char_traits@D@std@@V?$allocator@D@2@@std@@PAUVERTBOX_INFO@CXScaleManagerImp@@@std@@@2@$0A@@std@@@std@@IAE?AU?$pair@PAU?$_Tree_node@U?$pair@$$CBV?$basic_string@DU?$char_traits@D@std@@V?$allocator@D@2@@std@@PAUVERTBOX_INFO@CXScaleManagerImp@@@std@@PAX@std@@_N@1@$$QAU?$pair@V?$basic_string@DU?$char_traits@D@std@@V?$allocator@D@2@@std@@PAUVERTBOX_INFO@CXScaleManagerImp@@@1@@Z$2
__ehfuncinfo$??$_Emplace@U?$pair@V?$basic_string@DU?$char_traits@D@std@@V?$allocator@D@2@@std@@PAUVERTBOX_INFO@CXScaleManagerImp@@@std@@@?$_Tree@V?$_Tmap_traits@V?$basic_string@DU?$char_traits@D@std@@V?$allocator@D@2@@std@@PAUVERTBOX_INFO@CXScaleManagerImp@@U?$less@V?$basic_string@DU?$char_traits@D@std@@V?$allocator@D@2@@std@@@2@V?$allocator@U?$pair@$$CBV?$basic_string@DU?$char_traits@D@std@@V?$allocator@D@2@@std@@PAUVERTBOX_INFO@CXScaleManagerImp@@@std@@@2@$0A@@std@@@std@@IAE?AU?$pair@PAU?$_Tree_node@U?$pair@$$CBV?$basic_string@DU?$char_traits@D@std@@V?$allocator@D@2@@std@@PAUVERTBOX_INFO@CXScaleManagerImp@@@std@@PAX@std@@_N@1@$$QAU?$pair@V?$basic_string@DU?$char_traits@D@std@@V?$allocator@D@2@@std@@PAUVERTBOX_INFO@CXScaleManagerImp@@@1@@Z DD 019930522H
	DD	01H
	DD	FLAT:__unwindtable$??$_Emplace@U?$pair@V?$basic_string@DU?$char_traits@D@std@@V?$allocator@D@2@@std@@PAUVERTBOX_INFO@CXScaleManagerImp@@@std@@@?$_Tree@V?$_Tmap_traits@V?$basic_string@DU?$char_traits@D@std@@V?$allocator@D@2@@std@@PAUVERTBOX_INFO@CXScaleManagerImp@@U?$less@V?$basic_string@DU?$char_traits@D@std@@V?$allocator@D@2@@std@@@2@V?$allocator@U?$pair@$$CBV?$basic_string@DU?$char_traits@D@std@@V?$allocator@D@2@@std@@PAUVERTBOX_INFO@CXScaleManagerImp@@@std@@@2@$0A@@std@@@std@@IAE?AU?$pair@PAU?$_Tree_node@U?$pair@$$CBV?$basic_string@DU?$char_traits@D@std@@V?$allocator@D@2@@std@@PAUVERTBOX_INFO@CXScaleManagerImp@@@std@@PAX@std@@_N@1@$$QAU?$pair@V?$basic_string@DU?$char_traits@D@std@@V?$allocator@D@2@@std@@PAUVERTBOX_INFO@CXScaleManagerImp@@@1@@Z
	DD	2 DUP(00H)
	DD	2 DUP(00H)
	DD	00H
	DD	01H
xdata$x	ENDS
;	COMDAT xdata$x
xdata$x	SEGMENT
__unwindtable$??$_Emplace@U?$pair@V?$basic_string@DU?$char_traits@D@std@@V?$allocator@D@2@@std@@H@std@@@?$_Tree@V?$_Tmap_traits@V?$basic_string@DU?$char_traits@D@std@@V?$allocator@D@2@@std@@HU?$less@V?$basic_string@DU?$char_traits@D@std@@V?$allocator@D@2@@std@@@2@V?$allocator@U?$pair@$$CBV?$basic_string@DU?$char_traits@D@std@@V?$allocator@D@2@@std@@H@std@@@2@$0A@@std@@@std@@IAE?AU?$pair@PAU?$_Tree_node@U?$pair@$$CBV?$basic_string@DU?$char_traits@D@std@@V?$allocator@D@2@@std@@H@std@@PAX@std@@_N@1@$$QAU?$pair@V?$basic_string@DU?$char_traits@D@std@@V?$allocator@D@2@@std@@H@1@@Z DD 0ffffffffH
	DD	FLAT:__unwindfunclet$??$_Emplace@U?$pair@V?$basic_string@DU?$char_traits@D@std@@V?$allocator@D@2@@std@@H@std@@@?$_Tree@V?$_Tmap_traits@V?$basic_string@DU?$char_traits@D@std@@V?$allocator@D@2@@std@@HU?$less@V?$basic_string@DU?$char_traits@D@std@@V?$allocator@D@2@@std@@@2@V?$allocator@U?$pair@$$CBV?$basic_string@DU?$char_traits@D@std@@V?$allocator@D@2@@std@@H@std@@@2@$0A@@std@@@std@@IAE?AU?$pair@PAU?$_Tree_node@U?$pair@$$CBV?$basic_string@DU?$char_traits@D@std@@V?$allocator@D@2@@std@@H@std@@PAX@std@@_N@1@$$QAU?$pair@V?$basic_string@DU?$char_traits@D@std@@V?$allocator@D@2@@std@@H@1@@Z$2
__ehfuncinfo$??$_Emplace@U?$pair@V?$basic_string@DU?$char_traits@D@std@@V?$allocator@D@2@@std@@H@std@@@?$_Tree@V?$_Tmap_traits@V?$basic_string@DU?$char_traits@D@std@@V?$allocator@D@2@@std@@HU?$less@V?$basic_string@DU?$char_traits@D@std@@V?$allocator@D@2@@std@@@2@V?$allocator@U?$pair@$$CBV?$basic_string@DU?$char_traits@D@std@@V?$allocator@D@2@@std@@H@std@@@2@$0A@@std@@@std@@IAE?AU?$pair@PAU?$_Tree_node@U?$pair@$$CBV?$basic_string@DU?$char_traits@D@std@@V?$allocator@D@2@@std@@H@std@@PAX@std@@_N@1@$$QAU?$pair@V?$basic_string@DU?$char_traits@D@std@@V?$allocator@D@2@@std@@H@1@@Z DD 019930522H
	DD	01H
	DD	FLAT:__unwindtable$??$_Emplace@U?$pair@V?$basic_string@DU?$char_traits@D@std@@V?$allocator@D@2@@std@@H@std@@@?$_Tree@V?$_Tmap_traits@V?$basic_string@DU?$char_traits@D@std@@V?$allocator@D@2@@std@@HU?$less@V?$basic_string@DU?$char_traits@D@std@@V?$allocator@D@2@@std@@@2@V?$allocator@U?$pair@$$CBV?$basic_string@DU?$char_traits@D@std@@V?$allocator@D@2@@std@@H@std@@@2@$0A@@std@@@std@@IAE?AU?$pair@PAU?$_Tree_node@U?$pair@$$CBV?$basic_string@DU?$char_traits@D@std@@V?$allocator@D@2@@std@@H@std@@PAX@std@@_N@1@$$QAU?$pair@V?$basic_string@DU?$char_traits@D@std@@V?$allocator@D@2@@std@@H@1@@Z
	DD	2 DUP(00H)
	DD	2 DUP(00H)
	DD	00H
	DD	01H
xdata$x	ENDS
;	COMDAT xdata$x
xdata$x	SEGMENT
__unwindtable$??$emplace@U?$pair@V?$basic_string@DU?$char_traits@D@std@@V?$allocator@D@2@@std@@PAUVERTBOX_INFO@CXScaleManagerImp@@@std@@@?$_Tree@V?$_Tmap_traits@V?$basic_string@DU?$char_traits@D@std@@V?$allocator@D@2@@std@@PAUVERTBOX_INFO@CXScaleManagerImp@@U?$less@V?$basic_string@DU?$char_traits@D@std@@V?$allocator@D@2@@std@@@2@V?$allocator@U?$pair@$$CBV?$basic_string@DU?$char_traits@D@std@@V?$allocator@D@2@@std@@PAUVERTBOX_INFO@CXScaleManagerImp@@@std@@@2@$0A@@std@@@std@@QAE?AU?$pair@V?$_Tree_iterator@V?$_Tree_val@U?$_Tree_simple_types@U?$pair@$$CBV?$basic_string@DU?$char_traits@D@std@@V?$allocator@D@2@@std@@PAUVERTBOX_INFO@CXScaleManagerImp@@@std@@@std@@@std@@@std@@_N@1@$$QAU?$pair@V?$basic_string@DU?$char_traits@D@std@@V?$allocator@D@2@@std@@PAUVERTBOX_INFO@CXScaleManagerImp@@@1@@Z DD 0ffffffffH
	DD	FLAT:__unwindfunclet$??$emplace@U?$pair@V?$basic_string@DU?$char_traits@D@std@@V?$allocator@D@2@@std@@PAUVERTBOX_INFO@CXScaleManagerImp@@@std@@@?$_Tree@V?$_Tmap_traits@V?$basic_string@DU?$char_traits@D@std@@V?$allocator@D@2@@std@@PAUVERTBOX_INFO@CXScaleManagerImp@@U?$less@V?$basic_string@DU?$char_traits@D@std@@V?$allocator@D@2@@std@@@2@V?$allocator@U?$pair@$$CBV?$basic_string@DU?$char_traits@D@std@@V?$allocator@D@2@@std@@PAUVERTBOX_INFO@CXScaleManagerImp@@@std@@@2@$0A@@std@@@std@@QAE?AU?$pair@V?$_Tree_iterator@V?$_Tree_val@U?$_Tree_simple_types@U?$pair@$$CBV?$basic_string@DU?$char_traits@D@std@@V?$allocator@D@2@@std@@PAUVERTBOX_INFO@CXScaleManagerImp@@@std@@@std@@@std@@@std@@_N@1@$$QAU?$pair@V?$basic_string@DU?$char_traits@D@std@@V?$allocator@D@2@@std@@PAUVERTBOX_INFO@CXScaleManagerImp@@@1@@Z$2
__ehfuncinfo$??$emplace@U?$pair@V?$basic_string@DU?$char_traits@D@std@@V?$allocator@D@2@@std@@PAUVERTBOX_INFO@CXScaleManagerImp@@@std@@@?$_Tree@V?$_Tmap_traits@V?$basic_string@DU?$char_traits@D@std@@V?$allocator@D@2@@std@@PAUVERTBOX_INFO@CXScaleManagerImp@@U?$less@V?$basic_string@DU?$char_traits@D@std@@V?$allocator@D@2@@std@@@2@V?$allocator@U?$pair@$$CBV?$basic_string@DU?$char_traits@D@std@@V?$allocator@D@2@@std@@PAUVERTBOX_INFO@CXScaleManagerImp@@@std@@@2@$0A@@std@@@std@@QAE?AU?$pair@V?$_Tree_iterator@V?$_Tree_val@U?$_Tree_simple_types@U?$pair@$$CBV?$basic_string@DU?$char_traits@D@std@@V?$allocator@D@2@@std@@PAUVERTBOX_INFO@CXScaleManagerImp@@@std@@@std@@@std@@@std@@_N@1@$$QAU?$pair@V?$basic_string@DU?$char_traits@D@std@@V?$allocator@D@2@@std@@PAUVERTBOX_INFO@CXScaleManagerImp@@@1@@Z DD 019930522H
	DD	01H
	DD	FLAT:__unwindtable$??$emplace@U?$pair@V?$basic_string@DU?$char_traits@D@std@@V?$allocator@D@2@@std@@PAUVERTBOX_INFO@CXScaleManagerImp@@@std@@@?$_Tree@V?$_Tmap_traits@V?$basic_string@DU?$char_traits@D@std@@V?$allocator@D@2@@std@@PAUVERTBOX_INFO@CXScaleManagerImp@@U?$less@V?$basic_string@DU?$char_traits@D@std@@V?$allocator@D@2@@std@@@2@V?$allocator@U?$pair@$$CBV?$basic_string@DU?$char_traits@D@std@@V?$allocator@D@2@@std@@PAUVERTBOX_INFO@CXScaleManagerImp@@@std@@@2@$0A@@std@@@std@@QAE?AU?$pair@V?$_Tree_iterator@V?$_Tree_val@U?$_Tree_simple_types@U?$pair@$$CBV?$basic_string@DU?$char_traits@D@std@@V?$allocator@D@2@@std@@PAUVERTBOX_INFO@CXScaleManagerImp@@@std@@@std@@@std@@@std@@_N@1@$$QAU?$pair@V?$basic_string@DU?$char_traits@D@std@@V?$allocator@D@2@@std@@PAUVERTBOX_INFO@CXScaleManagerImp@@@1@@Z
	DD	2 DUP(00H)
	DD	2 DUP(00H)
	DD	00H
	DD	01H
xdata$x	ENDS
;	COMDAT xdata$x
xdata$x	SEGMENT
__unwindtable$??$emplace@U?$pair@V?$basic_string@DU?$char_traits@D@std@@V?$allocator@D@2@@std@@H@std@@@?$_Tree@V?$_Tmap_traits@V?$basic_string@DU?$char_traits@D@std@@V?$allocator@D@2@@std@@HU?$less@V?$basic_string@DU?$char_traits@D@std@@V?$allocator@D@2@@std@@@2@V?$allocator@U?$pair@$$CBV?$basic_string@DU?$char_traits@D@std@@V?$allocator@D@2@@std@@H@std@@@2@$0A@@std@@@std@@QAE?AU?$pair@V?$_Tree_iterator@V?$_Tree_val@U?$_Tree_simple_types@U?$pair@$$CBV?$basic_string@DU?$char_traits@D@std@@V?$allocator@D@2@@std@@H@std@@@std@@@std@@@std@@_N@1@$$QAU?$pair@V?$basic_string@DU?$char_traits@D@std@@V?$allocator@D@2@@std@@H@1@@Z DD 0ffffffffH
	DD	FLAT:__unwindfunclet$??$emplace@U?$pair@V?$basic_string@DU?$char_traits@D@std@@V?$allocator@D@2@@std@@H@std@@@?$_Tree@V?$_Tmap_traits@V?$basic_string@DU?$char_traits@D@std@@V?$allocator@D@2@@std@@HU?$less@V?$basic_string@DU?$char_traits@D@std@@V?$allocator@D@2@@std@@@2@V?$allocator@U?$pair@$$CBV?$basic_string@DU?$char_traits@D@std@@V?$allocator@D@2@@std@@H@std@@@2@$0A@@std@@@std@@QAE?AU?$pair@V?$_Tree_iterator@V?$_Tree_val@U?$_Tree_simple_types@U?$pair@$$CBV?$basic_string@DU?$char_traits@D@std@@V?$allocator@D@2@@std@@H@std@@@std@@@std@@@std@@_N@1@$$QAU?$pair@V?$basic_string@DU?$char_traits@D@std@@V?$allocator@D@2@@std@@H@1@@Z$2
__ehfuncinfo$??$emplace@U?$pair@V?$basic_string@DU?$char_traits@D@std@@V?$allocator@D@2@@std@@H@std@@@?$_Tree@V?$_Tmap_traits@V?$basic_string@DU?$char_traits@D@std@@V?$allocator@D@2@@std@@HU?$less@V?$basic_string@DU?$char_traits@D@std@@V?$allocator@D@2@@std@@@2@V?$allocator@U?$pair@$$CBV?$basic_string@DU?$char_traits@D@std@@V?$allocator@D@2@@std@@H@std@@@2@$0A@@std@@@std@@QAE?AU?$pair@V?$_Tree_iterator@V?$_Tree_val@U?$_Tree_simple_types@U?$pair@$$CBV?$basic_string@DU?$char_traits@D@std@@V?$allocator@D@2@@std@@H@std@@@std@@@std@@@std@@_N@1@$$QAU?$pair@V?$basic_string@DU?$char_traits@D@std@@V?$allocator@D@2@@std@@H@1@@Z DD 019930522H
	DD	01H
	DD	FLAT:__unwindtable$??$emplace@U?$pair@V?$basic_string@DU?$char_traits@D@std@@V?$allocator@D@2@@std@@H@std@@@?$_Tree@V?$_Tmap_traits@V?$basic_string@DU?$char_traits@D@std@@V?$allocator@D@2@@std@@HU?$less@V?$basic_string@DU?$char_traits@D@std@@V?$allocator@D@2@@std@@@2@V?$allocator@U?$pair@$$CBV?$basic_string@DU?$char_traits@D@std@@V?$allocator@D@2@@std@@H@std@@@2@$0A@@std@@@std@@QAE?AU?$pair@V?$_Tree_iterator@V?$_Tree_val@U?$_Tree_simple_types@U?$pair@$$CBV?$basic_string@DU?$char_traits@D@std@@V?$allocator@D@2@@std@@H@std@@@std@@@std@@@std@@_N@1@$$QAU?$pair@V?$basic_string@DU?$char_traits@D@std@@V?$allocator@D@2@@std@@H@1@@Z
	DD	2 DUP(00H)
	DD	2 DUP(00H)
	DD	00H
	DD	01H
xdata$x	ENDS
;	COMDAT xdata$x
xdata$x	SEGMENT
__unwindtable$??$insert@U?$pair@V?$basic_string@DU?$char_traits@D@std@@V?$allocator@D@2@@std@@PAUVERTBOX_INFO@CXScaleManagerImp@@@std@@$0A@@?$map@V?$basic_string@DU?$char_traits@D@std@@V?$allocator@D@2@@std@@PAUVERTBOX_INFO@CXScaleManagerImp@@U?$less@V?$basic_string@DU?$char_traits@D@std@@V?$allocator@D@2@@std@@@2@V?$allocator@U?$pair@$$CBV?$basic_string@DU?$char_traits@D@std@@V?$allocator@D@2@@std@@PAUVERTBOX_INFO@CXScaleManagerImp@@@std@@@2@@std@@QAE?AU?$pair@V?$_Tree_iterator@V?$_Tree_val@U?$_Tree_simple_types@U?$pair@$$CBV?$basic_string@DU?$char_traits@D@std@@V?$allocator@D@2@@std@@PAUVERTBOX_INFO@CXScaleManagerImp@@@std@@@std@@@std@@@std@@_N@1@$$QAU?$pair@V?$basic_string@DU?$char_traits@D@std@@V?$allocator@D@2@@std@@PAUVERTBOX_INFO@CXScaleManagerImp@@@1@@Z DD 0ffffffffH
	DD	FLAT:__unwindfunclet$??$insert@U?$pair@V?$basic_string@DU?$char_traits@D@std@@V?$allocator@D@2@@std@@PAUVERTBOX_INFO@CXScaleManagerImp@@@std@@$0A@@?$map@V?$basic_string@DU?$char_traits@D@std@@V?$allocator@D@2@@std@@PAUVERTBOX_INFO@CXScaleManagerImp@@U?$less@V?$basic_string@DU?$char_traits@D@std@@V?$allocator@D@2@@std@@@2@V?$allocator@U?$pair@$$CBV?$basic_string@DU?$char_traits@D@std@@V?$allocator@D@2@@std@@PAUVERTBOX_INFO@CXScaleManagerImp@@@std@@@2@@std@@QAE?AU?$pair@V?$_Tree_iterator@V?$_Tree_val@U?$_Tree_simple_types@U?$pair@$$CBV?$basic_string@DU?$char_traits@D@std@@V?$allocator@D@2@@std@@PAUVERTBOX_INFO@CXScaleManagerImp@@@std@@@std@@@std@@@std@@_N@1@$$QAU?$pair@V?$basic_string@DU?$char_traits@D@std@@V?$allocator@D@2@@std@@PAUVERTBOX_INFO@CXScaleManagerImp@@@1@@Z$2
__ehfuncinfo$??$insert@U?$pair@V?$basic_string@DU?$char_traits@D@std@@V?$allocator@D@2@@std@@PAUVERTBOX_INFO@CXScaleManagerImp@@@std@@$0A@@?$map@V?$basic_string@DU?$char_traits@D@std@@V?$allocator@D@2@@std@@PAUVERTBOX_INFO@CXScaleManagerImp@@U?$less@V?$basic_string@DU?$char_traits@D@std@@V?$allocator@D@2@@std@@@2@V?$allocator@U?$pair@$$CBV?$basic_string@DU?$char_traits@D@std@@V?$allocator@D@2@@std@@PAUVERTBOX_INFO@CXScaleManagerImp@@@std@@@2@@std@@QAE?AU?$pair@V?$_Tree_iterator@V?$_Tree_val@U?$_Tree_simple_types@U?$pair@$$CBV?$basic_string@DU?$char_traits@D@std@@V?$allocator@D@2@@std@@PAUVERTBOX_INFO@CXScaleManagerImp@@@std@@@std@@@std@@@std@@_N@1@$$QAU?$pair@V?$basic_string@DU?$char_traits@D@std@@V?$allocator@D@2@@std@@PAUVERTBOX_INFO@CXScaleManagerImp@@@1@@Z DD 019930522H
	DD	01H
	DD	FLAT:__unwindtable$??$insert@U?$pair@V?$basic_string@DU?$char_traits@D@std@@V?$allocator@D@2@@std@@PAUVERTBOX_INFO@CXScaleManagerImp@@@std@@$0A@@?$map@V?$basic_string@DU?$char_traits@D@std@@V?$allocator@D@2@@std@@PAUVERTBOX_INFO@CXScaleManagerImp@@U?$less@V?$basic_string@DU?$char_traits@D@std@@V?$allocator@D@2@@std@@@2@V?$allocator@U?$pair@$$CBV?$basic_string@DU?$char_traits@D@std@@V?$allocator@D@2@@std@@PAUVERTBOX_INFO@CXScaleManagerImp@@@std@@@2@@std@@QAE?AU?$pair@V?$_Tree_iterator@V?$_Tree_val@U?$_Tree_simple_types@U?$pair@$$CBV?$basic_string@DU?$char_traits@D@std@@V?$allocator@D@2@@std@@PAUVERTBOX_INFO@CXScaleManagerImp@@@std@@@std@@@std@@@std@@_N@1@$$QAU?$pair@V?$basic_string@DU?$char_traits@D@std@@V?$allocator@D@2@@std@@PAUVERTBOX_INFO@CXScaleManagerImp@@@1@@Z
	DD	2 DUP(00H)
	DD	2 DUP(00H)
	DD	00H
	DD	01H
xdata$x	ENDS
;	COMDAT xdata$x
xdata$x	SEGMENT
__unwindtable$??$insert@U?$pair@V?$basic_string@DU?$char_traits@D@std@@V?$allocator@D@2@@std@@H@std@@$0A@@?$map@V?$basic_string@DU?$char_traits@D@std@@V?$allocator@D@2@@std@@HU?$less@V?$basic_string@DU?$char_traits@D@std@@V?$allocator@D@2@@std@@@2@V?$allocator@U?$pair@$$CBV?$basic_string@DU?$char_traits@D@std@@V?$allocator@D@2@@std@@H@std@@@2@@std@@QAE?AU?$pair@V?$_Tree_iterator@V?$_Tree_val@U?$_Tree_simple_types@U?$pair@$$CBV?$basic_string@DU?$char_traits@D@std@@V?$allocator@D@2@@std@@H@std@@@std@@@std@@@std@@_N@1@$$QAU?$pair@V?$basic_string@DU?$char_traits@D@std@@V?$allocator@D@2@@std@@H@1@@Z DD 0ffffffffH
	DD	FLAT:__unwindfunclet$??$insert@U?$pair@V?$basic_string@DU?$char_traits@D@std@@V?$allocator@D@2@@std@@H@std@@$0A@@?$map@V?$basic_string@DU?$char_traits@D@std@@V?$allocator@D@2@@std@@HU?$less@V?$basic_string@DU?$char_traits@D@std@@V?$allocator@D@2@@std@@@2@V?$allocator@U?$pair@$$CBV?$basic_string@DU?$char_traits@D@std@@V?$allocator@D@2@@std@@H@std@@@2@@std@@QAE?AU?$pair@V?$_Tree_iterator@V?$_Tree_val@U?$_Tree_simple_types@U?$pair@$$CBV?$basic_string@DU?$char_traits@D@std@@V?$allocator@D@2@@std@@H@std@@@std@@@std@@@std@@_N@1@$$QAU?$pair@V?$basic_string@DU?$char_traits@D@std@@V?$allocator@D@2@@std@@H@1@@Z$2
__ehfuncinfo$??$insert@U?$pair@V?$basic_string@DU?$char_traits@D@std@@V?$allocator@D@2@@std@@H@std@@$0A@@?$map@V?$basic_string@DU?$char_traits@D@std@@V?$allocator@D@2@@std@@HU?$less@V?$basic_string@DU?$char_traits@D@std@@V?$allocator@D@2@@std@@@2@V?$allocator@U?$pair@$$CBV?$basic_string@DU?$char_traits@D@std@@V?$allocator@D@2@@std@@H@std@@@2@@std@@QAE?AU?$pair@V?$_Tree_iterator@V?$_Tree_val@U?$_Tree_simple_types@U?$pair@$$CBV?$basic_string@DU?$char_traits@D@std@@V?$allocator@D@2@@std@@H@std@@@std@@@std@@@std@@_N@1@$$QAU?$pair@V?$basic_string@DU?$char_traits@D@std@@V?$allocator@D@2@@std@@H@1@@Z DD 019930522H
	DD	01H
	DD	FLAT:__unwindtable$??$insert@U?$pair@V?$basic_string@DU?$char_traits@D@std@@V?$allocator@D@2@@std@@H@std@@$0A@@?$map@V?$basic_string@DU?$char_traits@D@std@@V?$allocator@D@2@@std@@HU?$less@V?$basic_string@DU?$char_traits@D@std@@V?$allocator@D@2@@std@@@2@V?$allocator@U?$pair@$$CBV?$basic_string@DU?$char_traits@D@std@@V?$allocator@D@2@@std@@H@std@@@2@@std@@QAE?AU?$pair@V?$_Tree_iterator@V?$_Tree_val@U?$_Tree_simple_types@U?$pair@$$CBV?$basic_string@DU?$char_traits@D@std@@V?$allocator@D@2@@std@@H@std@@@std@@@std@@@std@@_N@1@$$QAU?$pair@V?$basic_string@DU?$char_traits@D@std@@V?$allocator@D@2@@std@@H@1@@Z
	DD	2 DUP(00H)
	DD	2 DUP(00H)
	DD	00H
	DD	01H
xdata$x	ENDS
;	COMDAT xdata$x
xdata$x	SEGMENT
__unwindtable$??_GCXScaleManagerImp@@UAEPAXI@Z DD 0ffffffffH
	DD	FLAT:___std_terminate
__ehfuncinfo$??_GCXScaleManagerImp@@UAEPAXI@Z DD 019930522H
	DD	01H
	DD	FLAT:__unwindtable$??_GCXScaleManagerImp@@UAEPAXI@Z
	DD	2 DUP(00H)
	DD	2 DUP(00H)
	DD	00H
	DD	05H
xdata$x	ENDS
;	COMDAT xdata$x
xdata$x	SEGMENT
__unwindtable$?GetTimeDiffWithCurrentRQ@CXScaleManagerImp@@IAEHV?$CStringT@DV?$StrTraitMFC_DLL@DV?$ChTraitsCRT@D@ATL@@@@@ATL@@@Z DD 0ffffffffH
	DD	FLAT:__unwindfunclet$?GetTimeDiffWithCurrentRQ@CXScaleManagerImp@@IAEHV?$CStringT@DV?$StrTraitMFC_DLL@DV?$ChTraitsCRT@D@ATL@@@@@ATL@@@Z$0
__ehfuncinfo$?GetTimeDiffWithCurrentRQ@CXScaleManagerImp@@IAEHV?$CStringT@DV?$StrTraitMFC_DLL@DV?$ChTraitsCRT@D@ATL@@@@@ATL@@@Z DD 019930522H
	DD	01H
	DD	FLAT:__unwindtable$?GetTimeDiffWithCurrentRQ@CXScaleManagerImp@@IAEHV?$CStringT@DV?$StrTraitMFC_DLL@DV?$ChTraitsCRT@D@ATL@@@@@ATL@@@Z
	DD	2 DUP(00H)
	DD	2 DUP(00H)
	DD	00H
	DD	01H
xdata$x	ENDS
;	COMDAT xdata$x
xdata$x	SEGMENT
__unwindtable$?GetXFromDouble@CXScaleManagerImp@@MAEHHHNPAPAUtagAREA@CXScaleManager@@@Z DD 0ffffffffH
	DD	FLAT:__unwindfunclet$?GetXFromDouble@CXScaleManagerImp@@MAEHHHNPAPAUtagAREA@CXScaleManager@@@Z$1
__ehfuncinfo$?GetXFromDouble@CXScaleManagerImp@@MAEHHHNPAPAUtagAREA@CXScaleManager@@@Z DD 019930522H
	DD	01H
	DD	FLAT:__unwindtable$?GetXFromDouble@CXScaleManagerImp@@MAEHHHNPAPAUtagAREA@CXScaleManager@@@Z
	DD	2 DUP(00H)
	DD	2 DUP(00H)
	DD	00H
	DD	01H
xdata$x	ENDS
;	COMDAT xdata$x
xdata$x	SEGMENT
__unwindtable$?GetAREAfRQnDTI@CXScaleManagerImp@@MAEHV?$CStringT@DV?$StrTraitMFC_DLL@DV?$ChTraitsCRT@D@ATL@@@@@ATL@@HHPAUtagAREA@CXScaleManager@@@Z DD 0ffffffffH
	DD	FLAT:__unwindfunclet$?GetAREAfRQnDTI@CXScaleManagerImp@@MAEHV?$CStringT@DV?$StrTraitMFC_DLL@DV?$ChTraitsCRT@D@ATL@@@@@ATL@@HHPAUtagAREA@CXScaleManager@@@Z$0
__ehfuncinfo$?GetAREAfRQnDTI@CXScaleManagerImp@@MAEHV?$CStringT@DV?$StrTraitMFC_DLL@DV?$ChTraitsCRT@D@ATL@@@@@ATL@@HHPAUtagAREA@CXScaleManager@@@Z DD 019930522H
	DD	01H
	DD	FLAT:__unwindtable$?GetAREAfRQnDTI@CXScaleManagerImp@@MAEHV?$CStringT@DV?$StrTraitMFC_DLL@DV?$ChTraitsCRT@D@ATL@@@@@ATL@@HHPAUtagAREA@CXScaleManager@@@Z
	DD	2 DUP(00H)
	DD	2 DUP(00H)
	DD	00H
	DD	01H
xdata$x	ENDS
;	COMDAT xdata$x
xdata$x	SEGMENT
__unwindtable$?GetDTInAREAfRQnPt@CXScaleManagerImp@@MAEHV?$CStringT@DV?$StrTraitMFC_DLL@DV?$ChTraitsCRT@D@ATL@@@@@ATL@@HAAHPAHPAUtagAREA@CXScaleManager@@H@Z DD 0ffffffffH
	DD	FLAT:__unwindfunclet$?GetDTInAREAfRQnPt@CXScaleManagerImp@@MAEHV?$CStringT@DV?$StrTraitMFC_DLL@DV?$ChTraitsCRT@D@ATL@@@@@ATL@@HAAHPAHPAUtagAREA@CXScaleManager@@H@Z$0
__ehfuncinfo$?GetDTInAREAfRQnPt@CXScaleManagerImp@@MAEHV?$CStringT@DV?$StrTraitMFC_DLL@DV?$ChTraitsCRT@D@ATL@@@@@ATL@@HAAHPAHPAUtagAREA@CXScaleManager@@H@Z DD 019930522H
	DD	01H
	DD	FLAT:__unwindtable$?GetDTInAREAfRQnPt@CXScaleManagerImp@@MAEHV?$CStringT@DV?$StrTraitMFC_DLL@DV?$ChTraitsCRT@D@ATL@@@@@ATL@@HAAHPAHPAUtagAREA@CXScaleManager@@H@Z
	DD	2 DUP(00H)
	DD	2 DUP(00H)
	DD	00H
	DD	01H
xdata$x	ENDS
;	COMDAT xdata$x
xdata$x	SEGMENT
__unwindtable$?Calc_AREA@CXScaleManagerImp@@MAEXH@Z DD 0ffffffffH
	DD	FLAT:__unwindfunclet$?Calc_AREA@CXScaleManagerImp@@MAEXH@Z$1
	DD	0ffffffffH
	DD	FLAT:__unwindfunclet$?Calc_AREA@CXScaleManagerImp@@MAEXH@Z$2
	DD	01H
	DD	FLAT:__unwindfunclet$?Calc_AREA@CXScaleManagerImp@@MAEXH@Z$3
__ehfuncinfo$?Calc_AREA@CXScaleManagerImp@@MAEXH@Z DD 019930522H
	DD	03H
	DD	FLAT:__unwindtable$?Calc_AREA@CXScaleManagerImp@@MAEXH@Z
	DD	2 DUP(00H)
	DD	2 DUP(00H)
	DD	00H
	DD	01H
xdata$x	ENDS
;	COMDAT xdata$x
xdata$x	SEGMENT
__unwindtable$?Calc_DRI_Merge@CXScaleManagerImp@@MAEXXZ DD 0ffffffffH
	DD	FLAT:__unwindfunclet$?Calc_DRI_Merge@CXScaleManagerImp@@MAEXXZ$0
	DD	0ffffffffH
	DD	FLAT:__unwindfunclet$?Calc_DRI_Merge@CXScaleManagerImp@@MAEXXZ$1
__ehfuncinfo$?Calc_DRI_Merge@CXScaleManagerImp@@MAEXXZ DD 019930522H
	DD	02H
	DD	FLAT:__unwindtable$?Calc_DRI_Merge@CXScaleManagerImp@@MAEXXZ
	DD	2 DUP(00H)
	DD	2 DUP(00H)
	DD	00H
	DD	01H
xdata$x	ENDS
;	COMDAT xdata$x
xdata$x	SEGMENT
__ehfuncinfo$?Calc_DRI@CXScaleManagerImp@@MAEXH@Z DD 019930522H
	DD	08H
	DD	FLAT:__unwindtable$?Calc_DRI@CXScaleManagerImp@@MAEXH@Z
	DD	2 DUP(00H)
	DD	2 DUP(00H)
	DD	00H
	DD	01H
__unwindtable$?Calc_DRI@CXScaleManagerImp@@MAEXH@Z DD 0ffffffffH
	DD	FLAT:__unwindfunclet$?Calc_DRI@CXScaleManagerImp@@MAEXH@Z$0
	DD	00H
	DD	FLAT:__unwindfunclet$?Calc_DRI@CXScaleManagerImp@@MAEXH@Z$1
	DD	01H
	DD	FLAT:__unwindfunclet$?Calc_DRI@CXScaleManagerImp@@MAEXH@Z$21
	DD	00H
	DD	FLAT:__unwindfunclet$?Calc_DRI@CXScaleManagerImp@@MAEXH@Z$2
	DD	00H
	DD	FLAT:__unwindfunclet$?Calc_DRI@CXScaleManagerImp@@MAEXH@Z$6
	DD	00H
	DD	FLAT:__unwindfunclet$?Calc_DRI@CXScaleManagerImp@@MAEXH@Z$8
	DD	00H
	DD	FLAT:__unwindfunclet$?Calc_DRI@CXScaleManagerImp@@MAEXH@Z$9
	DD	06H
	DD	FLAT:__unwindfunclet$?Calc_DRI@CXScaleManagerImp@@MAEXH@Z$10
xdata$x	ENDS
;	COMDAT xdata$x
xdata$x	SEGMENT
__unwindtable$?GetRQIndexFromString@CXScaleManagerImp@@MAEHV?$CStringT@DV?$StrTraitMFC_DLL@DV?$ChTraitsCRT@D@ATL@@@@@ATL@@@Z DD 0ffffffffH
	DD	FLAT:__unwindfunclet$?GetRQIndexFromString@CXScaleManagerImp@@MAEHV?$CStringT@DV?$StrTraitMFC_DLL@DV?$ChTraitsCRT@D@ATL@@@@@ATL@@@Z$0
__ehfuncinfo$?GetRQIndexFromString@CXScaleManagerImp@@MAEHV?$CStringT@DV?$StrTraitMFC_DLL@DV?$ChTraitsCRT@D@ATL@@@@@ATL@@@Z DD 019930522H
	DD	01H
	DD	FLAT:__unwindtable$?GetRQIndexFromString@CXScaleManagerImp@@MAEHV?$CStringT@DV?$StrTraitMFC_DLL@DV?$ChTraitsCRT@D@ATL@@@@@ATL@@@Z
	DD	2 DUP(00H)
	DD	2 DUP(00H)
	DD	00H
	DD	01H
xdata$x	ENDS
;	COMDAT xdata$x
xdata$x	SEGMENT
__unwindtable$?AddVerticalBoxInfo@CXScaleManagerImp@@UAEXPBDNKH@Z DD 0ffffffffH
	DD	FLAT:__unwindfunclet$?AddVerticalBoxInfo@CXScaleManagerImp@@UAEXPBDNKH@Z$1
	DD	00H
	DD	FLAT:__unwindfunclet$?AddVerticalBoxInfo@CXScaleManagerImp@@UAEXPBDNKH@Z$10
__ehfuncinfo$?AddVerticalBoxInfo@CXScaleManagerImp@@UAEXPBDNKH@Z DD 019930522H
	DD	02H
	DD	FLAT:__unwindtable$?AddVerticalBoxInfo@CXScaleManagerImp@@UAEXPBDNKH@Z
	DD	2 DUP(00H)
	DD	2 DUP(00H)
	DD	00H
	DD	01H
xdata$x	ENDS
;	COMDAT xdata$x
xdata$x	SEGMENT
__unwindtable$?GetScaleUnitAlphaWeight@CXScaleManagerImp@@UAEHV?$CStringT@DV?$StrTraitMFC_DLL@DV?$ChTraitsCRT@D@ATL@@@@@ATL@@@Z DD 0ffffffffH
	DD	FLAT:__unwindfunclet$?GetScaleUnitAlphaWeight@CXScaleManagerImp@@UAEHV?$CStringT@DV?$StrTraitMFC_DLL@DV?$ChTraitsCRT@D@ATL@@@@@ATL@@@Z$0
__ehfuncinfo$?GetScaleUnitAlphaWeight@CXScaleManagerImp@@UAEHV?$CStringT@DV?$StrTraitMFC_DLL@DV?$ChTraitsCRT@D@ATL@@@@@ATL@@@Z DD 019930522H
	DD	01H
	DD	FLAT:__unwindtable$?GetScaleUnitAlphaWeight@CXScaleManagerImp@@UAEHV?$CStringT@DV?$StrTraitMFC_DLL@DV?$ChTraitsCRT@D@ATL@@@@@ATL@@@Z
	DD	2 DUP(00H)
	DD	2 DUP(00H)
	DD	00H
	DD	01H
xdata$x	ENDS
;	COMDAT xdata$x
xdata$x	SEGMENT
__unwindtable$?GetPacketType@CXScaleManagerImp@@UAE?AV?$CStringT@DV?$StrTraitMFC_DLL@DV?$ChTraitsCRT@D@ATL@@@@@ATL@@PBD@Z DD 0ffffffffH
	DD	FLAT:__unwindfunclet$?GetPacketType@CXScaleManagerImp@@UAE?AV?$CStringT@DV?$StrTraitMFC_DLL@DV?$ChTraitsCRT@D@ATL@@@@@ATL@@PBD@Z$0
__ehfuncinfo$?GetPacketType@CXScaleManagerImp@@UAE?AV?$CStringT@DV?$StrTraitMFC_DLL@DV?$ChTraitsCRT@D@ATL@@@@@ATL@@PBD@Z DD 019930522H
	DD	01H
	DD	FLAT:__unwindtable$?GetPacketType@CXScaleManagerImp@@UAE?AV?$CStringT@DV?$StrTraitMFC_DLL@DV?$ChTraitsCRT@D@ATL@@@@@ATL@@PBD@Z
	DD	2 DUP(00H)
	DD	2 DUP(00H)
	DD	00H
	DD	01H
xdata$x	ENDS
;	COMDAT xdata$x
xdata$x	SEGMENT
__unwindtable$?GetDTIFromDRI_AbleRange@CXScaleManagerImp@@UAEHV?$CStringT@DV?$StrTraitMFC_DLL@DV?$ChTraitsCRT@D@ATL@@@@@ATL@@HPAH@Z DD 0ffffffffH
	DD	FLAT:__unwindfunclet$?GetDTIFromDRI_AbleRange@CXScaleManagerImp@@UAEHV?$CStringT@DV?$StrTraitMFC_DLL@DV?$ChTraitsCRT@D@ATL@@@@@ATL@@HPAH@Z$0
__ehfuncinfo$?GetDTIFromDRI_AbleRange@CXScaleManagerImp@@UAEHV?$CStringT@DV?$StrTraitMFC_DLL@DV?$ChTraitsCRT@D@ATL@@@@@ATL@@HPAH@Z DD 019930522H
	DD	01H
	DD	FLAT:__unwindtable$?GetDTIFromDRI_AbleRange@CXScaleManagerImp@@UAEHV?$CStringT@DV?$StrTraitMFC_DLL@DV?$ChTraitsCRT@D@ATL@@@@@ATL@@HPAH@Z
	DD	2 DUP(00H)
	DD	2 DUP(00H)
	DD	00H
	DD	01H
xdata$x	ENDS
;	COMDAT xdata$x
xdata$x	SEGMENT
__unwindtable$?GetDrawIndex@CXScaleManagerImp@@UAEXV?$CStringT@DV?$StrTraitMFC_DLL@DV?$ChTraitsCRT@D@ATL@@@@@ATL@@HHAAH1@Z DD 0ffffffffH
	DD	FLAT:__unwindfunclet$?GetDrawIndex@CXScaleManagerImp@@UAEXV?$CStringT@DV?$StrTraitMFC_DLL@DV?$ChTraitsCRT@D@ATL@@@@@ATL@@HHAAH1@Z$0
	DD	00H
	DD	FLAT:__unwindfunclet$?GetDrawIndex@CXScaleManagerImp@@UAEXV?$CStringT@DV?$StrTraitMFC_DLL@DV?$ChTraitsCRT@D@ATL@@@@@ATL@@HHAAH1@Z$1
__ehfuncinfo$?GetDrawIndex@CXScaleManagerImp@@UAEXV?$CStringT@DV?$StrTraitMFC_DLL@DV?$ChTraitsCRT@D@ATL@@@@@ATL@@HHAAH1@Z DD 019930522H
	DD	02H
	DD	FLAT:__unwindtable$?GetDrawIndex@CXScaleManagerImp@@UAEXV?$CStringT@DV?$StrTraitMFC_DLL@DV?$ChTraitsCRT@D@ATL@@@@@ATL@@HHAAH1@Z
	DD	2 DUP(00H)
	DD	2 DUP(00H)
	DD	00H
	DD	01H
xdata$x	ENDS
;	COMDAT xdata$x
xdata$x	SEGMENT
__unwindtable$?RealDataReceived@CXScaleManagerImp@@UAEXV?$CStringT@DV?$StrTraitMFC_DLL@DV?$ChTraitsCRT@D@ATL@@@@@ATL@@H@Z DD 0ffffffffH
	DD	FLAT:__unwindfunclet$?RealDataReceived@CXScaleManagerImp@@UAEXV?$CStringT@DV?$StrTraitMFC_DLL@DV?$ChTraitsCRT@D@ATL@@@@@ATL@@H@Z$0
__ehfuncinfo$?RealDataReceived@CXScaleManagerImp@@UAEXV?$CStringT@DV?$StrTraitMFC_DLL@DV?$ChTraitsCRT@D@ATL@@@@@ATL@@H@Z DD 019930522H
	DD	01H
	DD	FLAT:__unwindtable$?RealDataReceived@CXScaleManagerImp@@UAEXV?$CStringT@DV?$StrTraitMFC_DLL@DV?$ChTraitsCRT@D@ATL@@@@@ATL@@H@Z
	DD	2 DUP(00H)
	DD	2 DUP(00H)
	DD	00H
	DD	01H
xdata$x	ENDS
;	COMDAT xdata$x
xdata$x	SEGMENT
__unwindtable$?DelOEBTRQ@CXScaleManagerImp@@UAEXV?$CStringT@DV?$StrTraitMFC_DLL@DV?$ChTraitsCRT@D@ATL@@@@@ATL@@@Z DD 0ffffffffH
	DD	FLAT:__unwindfunclet$?DelOEBTRQ@CXScaleManagerImp@@UAEXV?$CStringT@DV?$StrTraitMFC_DLL@DV?$ChTraitsCRT@D@ATL@@@@@ATL@@@Z$0
__ehfuncinfo$?DelOEBTRQ@CXScaleManagerImp@@UAEXV?$CStringT@DV?$StrTraitMFC_DLL@DV?$ChTraitsCRT@D@ATL@@@@@ATL@@@Z DD 019930522H
	DD	01H
	DD	FLAT:__unwindtable$?DelOEBTRQ@CXScaleManagerImp@@UAEXV?$CStringT@DV?$StrTraitMFC_DLL@DV?$ChTraitsCRT@D@ATL@@@@@ATL@@@Z
	DD	2 DUP(00H)
	DD	2 DUP(00H)
	DD	00H
	DD	01H
xdata$x	ENDS
;	COMDAT xdata$x
xdata$x	SEGMENT
__unwindtable$?AddOEBTRQ@CXScaleManagerImp@@UAEXV?$CStringT@DV?$StrTraitMFC_DLL@DV?$ChTraitsCRT@D@ATL@@@@@ATL@@00@Z DD 0ffffffffH
	DD	FLAT:__unwindfunclet$?AddOEBTRQ@CXScaleManagerImp@@UAEXV?$CStringT@DV?$StrTraitMFC_DLL@DV?$ChTraitsCRT@D@ATL@@@@@ATL@@00@Z$0
	DD	00H
	DD	FLAT:__unwindfunclet$?AddOEBTRQ@CXScaleManagerImp@@UAEXV?$CStringT@DV?$StrTraitMFC_DLL@DV?$ChTraitsCRT@D@ATL@@@@@ATL@@00@Z$1
	DD	01H
	DD	FLAT:__unwindfunclet$?AddOEBTRQ@CXScaleManagerImp@@UAEXV?$CStringT@DV?$StrTraitMFC_DLL@DV?$ChTraitsCRT@D@ATL@@@@@ATL@@00@Z$2
__ehfuncinfo$?AddOEBTRQ@CXScaleManagerImp@@UAEXV?$CStringT@DV?$StrTraitMFC_DLL@DV?$ChTraitsCRT@D@ATL@@@@@ATL@@00@Z DD 019930522H
	DD	03H
	DD	FLAT:__unwindtable$?AddOEBTRQ@CXScaleManagerImp@@UAEXV?$CStringT@DV?$StrTraitMFC_DLL@DV?$ChTraitsCRT@D@ATL@@@@@ATL@@00@Z
	DD	2 DUP(00H)
	DD	2 DUP(00H)
	DD	00H
	DD	01H
xdata$x	ENDS
;	COMDAT xdata$x
xdata$x	SEGMENT
__unwindtable$?GetDTIFromDRI@CXScaleManagerImp@@IAEHV?$CStringT@DV?$StrTraitMFC_DLL@DV?$ChTraitsCRT@D@ATL@@@@@ATL@@H@Z DD 0ffffffffH
	DD	FLAT:__unwindfunclet$?GetDTIFromDRI@CXScaleManagerImp@@IAEHV?$CStringT@DV?$StrTraitMFC_DLL@DV?$ChTraitsCRT@D@ATL@@@@@ATL@@H@Z$0
__ehfuncinfo$?GetDTIFromDRI@CXScaleManagerImp@@IAEHV?$CStringT@DV?$StrTraitMFC_DLL@DV?$ChTraitsCRT@D@ATL@@@@@ATL@@H@Z DD 019930522H
	DD	01H
	DD	FLAT:__unwindtable$?GetDTIFromDRI@CXScaleManagerImp@@IAEHV?$CStringT@DV?$StrTraitMFC_DLL@DV?$ChTraitsCRT@D@ATL@@@@@ATL@@H@Z
	DD	2 DUP(00H)
	DD	2 DUP(00H)
	DD	00H
	DD	01H
xdata$x	ENDS
;	COMDAT xdata$x
xdata$x	SEGMENT
__ehfuncinfo$?GetTimeValueFromTime@CXScaleManagerImp@@IAEN_JV?$CStringT@DV?$StrTraitMFC_DLL@DV?$ChTraitsCRT@D@ATL@@@@@ATL@@@Z DD 019930522H
	DD	08H
	DD	FLAT:__unwindtable$?GetTimeValueFromTime@CXScaleManagerImp@@IAEN_JV?$CStringT@DV?$StrTraitMFC_DLL@DV?$ChTraitsCRT@D@ATL@@@@@ATL@@@Z
	DD	2 DUP(00H)
	DD	2 DUP(00H)
	DD	00H
	DD	01H
__unwindtable$?GetTimeValueFromTime@CXScaleManagerImp@@IAEN_JV?$CStringT@DV?$StrTraitMFC_DLL@DV?$ChTraitsCRT@D@ATL@@@@@ATL@@@Z DD 0ffffffffH
	DD	FLAT:__unwindfunclet$?GetTimeValueFromTime@CXScaleManagerImp@@IAEN_JV?$CStringT@DV?$StrTraitMFC_DLL@DV?$ChTraitsCRT@D@ATL@@@@@ATL@@@Z$0
	DD	00H
	DD	FLAT:__unwindfunclet$?GetTimeValueFromTime@CXScaleManagerImp@@IAEN_JV?$CStringT@DV?$StrTraitMFC_DLL@DV?$ChTraitsCRT@D@ATL@@@@@ATL@@@Z$1
	DD	01H
	DD	FLAT:__unwindfunclet$?GetTimeValueFromTime@CXScaleManagerImp@@IAEN_JV?$CStringT@DV?$StrTraitMFC_DLL@DV?$ChTraitsCRT@D@ATL@@@@@ATL@@@Z$2
	DD	01H
	DD	FLAT:__unwindfunclet$?GetTimeValueFromTime@CXScaleManagerImp@@IAEN_JV?$CStringT@DV?$StrTraitMFC_DLL@DV?$ChTraitsCRT@D@ATL@@@@@ATL@@@Z$3
	DD	01H
	DD	FLAT:__unwindfunclet$?GetTimeValueFromTime@CXScaleManagerImp@@IAEN_JV?$CStringT@DV?$StrTraitMFC_DLL@DV?$ChTraitsCRT@D@ATL@@@@@ATL@@@Z$4
	DD	01H
	DD	FLAT:__unwindfunclet$?GetTimeValueFromTime@CXScaleManagerImp@@IAEN_JV?$CStringT@DV?$StrTraitMFC_DLL@DV?$ChTraitsCRT@D@ATL@@@@@ATL@@@Z$5
	DD	01H
	DD	FLAT:__unwindfunclet$?GetTimeValueFromTime@CXScaleManagerImp@@IAEN_JV?$CStringT@DV?$StrTraitMFC_DLL@DV?$ChTraitsCRT@D@ATL@@@@@ATL@@@Z$6
	DD	01H
	DD	FLAT:__unwindfunclet$?GetTimeValueFromTime@CXScaleManagerImp@@IAEN_JV?$CStringT@DV?$StrTraitMFC_DLL@DV?$ChTraitsCRT@D@ATL@@@@@ATL@@@Z$7
xdata$x	ENDS
;	COMDAT voltbl
voltbl	SEGMENT
_volmd	DW	0e35H
voltbl	ENDS
;	COMDAT xdata$x
xdata$x	SEGMENT
__unwindtable$?GetTimeFromTimeValue@CXScaleManagerImp@@IAE_J_KV?$CStringT@DV?$StrTraitMFC_DLL@DV?$ChTraitsCRT@D@ATL@@@@@ATL@@PAUtagRQ_INFO@1@AAUtm@@PBDPAVCMapTimeToLong@@@Z DD 0ffffffffH
	DD	FLAT:__unwindfunclet$?GetTimeFromTimeValue@CXScaleManagerImp@@IAE_J_KV?$CStringT@DV?$StrTraitMFC_DLL@DV?$ChTraitsCRT@D@ATL@@@@@ATL@@PAUtagRQ_INFO@1@AAUtm@@PBDPAVCMapTimeToLong@@@Z$0
__ehfuncinfo$?GetTimeFromTimeValue@CXScaleManagerImp@@IAE_J_KV?$CStringT@DV?$StrTraitMFC_DLL@DV?$ChTraitsCRT@D@ATL@@@@@ATL@@PAUtagRQ_INFO@1@AAUtm@@PBDPAVCMapTimeToLong@@@Z DD 019930522H
	DD	01H
	DD	FLAT:__unwindtable$?GetTimeFromTimeValue@CXScaleManagerImp@@IAE_J_KV?$CStringT@DV?$StrTraitMFC_DLL@DV?$ChTraitsCRT@D@ATL@@@@@ATL@@PAUtagRQ_INFO@1@AAUtm@@PBDPAVCMapTimeToLong@@@Z
	DD	2 DUP(00H)
	DD	2 DUP(00H)
	DD	00H
	DD	01H
xdata$x	ENDS
;	COMDAT xdata$x
xdata$x	SEGMENT
__ehfuncinfo$??1CXScaleManagerImp@@UAE@XZ DD 019930522H
	DD	00H
	DD	00H
	DD	2 DUP(00H)
	DD	2 DUP(00H)
	DD	00H
	DD	05H
xdata$x	ENDS
;	COMDAT xdata$x
xdata$x	SEGMENT
__ehfuncinfo$??0CXScaleManagerImp@@QAE@XZ DD 019930522H
	DD	0dH
	DD	FLAT:__unwindtable$??0CXScaleManagerImp@@QAE@XZ
	DD	2 DUP(00H)
	DD	2 DUP(00H)
	DD	00H
	DD	01H
__unwindtable$??0CXScaleManagerImp@@QAE@XZ DD 0ffffffffH
	DD	FLAT:__unwindfunclet$??0CXScaleManagerImp@@QAE@XZ$0
	DD	00H
	DD	FLAT:__unwindfunclet$??0CXScaleManagerImp@@QAE@XZ$1
	DD	01H
	DD	FLAT:__unwindfunclet$??0CXScaleManagerImp@@QAE@XZ$2
	DD	02H
	DD	FLAT:__unwindfunclet$??0CXScaleManagerImp@@QAE@XZ$3
	DD	03H
	DD	FLAT:__unwindfunclet$??0CXScaleManagerImp@@QAE@XZ$4
	DD	04H
	DD	FLAT:__unwindfunclet$??0CXScaleManagerImp@@QAE@XZ$5
	DD	05H
	DD	FLAT:__unwindfunclet$??0CXScaleManagerImp@@QAE@XZ$6
	DD	06H
	DD	FLAT:__unwindfunclet$??0CXScaleManagerImp@@QAE@XZ$7
	DD	07H
	DD	FLAT:__unwindfunclet$??0CXScaleManagerImp@@QAE@XZ$8
	DD	08H
	DD	FLAT:__unwindfunclet$??0CXScaleManagerImp@@QAE@XZ$9
	DD	09H
	DD	FLAT:__unwindfunclet$??0CXScaleManagerImp@@QAE@XZ$10
	DD	0aH
	DD	FLAT:__unwindfunclet$??0CXScaleManagerImp@@QAE@XZ$11
	DD	0bH
	DD	FLAT:__unwindfunclet$??0CXScaleManagerImp@@QAE@XZ$12
xdata$x	ENDS
; Function compile flags: /Ogtp
; File C:\Program Files (x86)\Microsoft Visual Studio\2019\Community\VC\Tools\MSVC\14.29.30133\include\xmemory
;	COMDAT ??1?$_Alloc_construct_ptr@V?$allocator@U?$_Tree_node@U?$pair@$$CBV?$basic_string@DU?$char_traits@D@std@@V?$allocator@D@2@@std@@PAUVERTBOX_INFO@CXScaleManagerImp@@@std@@PAX@std@@@std@@@std@@QAE@XZ
_TEXT	SEGMENT
??1?$_Alloc_construct_ptr@V?$allocator@U?$_Tree_node@U?$pair@$$CBV?$basic_string@DU?$char_traits@D@std@@V?$allocator@D@2@@std@@PAUVERTBOX_INFO@CXScaleManagerImp@@@std@@PAX@std@@@std@@@std@@QAE@XZ PROC ; std::_Alloc_construct_ptr<std::allocator<std::_Tree_node<std::pair<std::basic_string<char,std::char_traits<char>,std::allocator<char> > const ,CXScaleManagerImp::VERTBOX_INFO *>,void *> > >::~_Alloc_construct_ptr<std::allocator<std::_Tree_node<std::pair<std::basic_string<char,std::char_traits<char>,std::allocator<char> > const ,CXScaleManagerImp::VERTBOX_INFO *>,void *> > >, COMDAT
; _this$ = ecx

; 970  :         if (_Ptr) {

  00000	8b 41 04	 mov	 eax, DWORD PTR [ecx+4]
  00003	85 c0		 test	 eax, eax
  00005	74 0b		 je	 SHORT $LN8@Alloc_cons

; 255  :         ::operator delete(_Ptr, _Bytes);

  00007	6a 2c		 push	 44			; 0000002cH
  00009	50		 push	 eax
  0000a	e8 00 00 00 00	 call	 ??3@YAXPAXI@Z		; operator delete
  0000f	83 c4 08	 add	 esp, 8
$LN8@Alloc_cons:

; 971  :             _Al.deallocate(_Ptr, 1);
; 972  :         }
; 973  :     }

  00012	c3		 ret	 0
??1?$_Alloc_construct_ptr@V?$allocator@U?$_Tree_node@U?$pair@$$CBV?$basic_string@DU?$char_traits@D@std@@V?$allocator@D@2@@std@@PAUVERTBOX_INFO@CXScaleManagerImp@@@std@@PAX@std@@@std@@@std@@QAE@XZ ENDP ; std::_Alloc_construct_ptr<std::allocator<std::_Tree_node<std::pair<std::basic_string<char,std::char_traits<char>,std::allocator<char> > const ,CXScaleManagerImp::VERTBOX_INFO *>,void *> > >::~_Alloc_construct_ptr<std::allocator<std::_Tree_node<std::pair<std::basic_string<char,std::char_traits<char>,std::allocator<char> > const ,CXScaleManagerImp::VERTBOX_INFO *>,void *> > >
_TEXT	ENDS
; Function compile flags: /Ogtp
; File C:\Program Files (x86)\Microsoft Visual Studio\2019\Community\VC\Tools\MSVC\14.29.30133\include\xmemory
;	COMDAT ??1?$_Alloc_construct_ptr@V?$allocator@U?$_Tree_node@U?$pair@$$CBV?$basic_string@DU?$char_traits@D@std@@V?$allocator@D@2@@std@@H@std@@PAX@std@@@std@@@std@@QAE@XZ
_TEXT	SEGMENT
??1?$_Alloc_construct_ptr@V?$allocator@U?$_Tree_node@U?$pair@$$CBV?$basic_string@DU?$char_traits@D@std@@V?$allocator@D@2@@std@@H@std@@PAX@std@@@std@@@std@@QAE@XZ PROC ; std::_Alloc_construct_ptr<std::allocator<std::_Tree_node<std::pair<std::basic_string<char,std::char_traits<char>,std::allocator<char> > const ,int>,void *> > >::~_Alloc_construct_ptr<std::allocator<std::_Tree_node<std::pair<std::basic_string<char,std::char_traits<char>,std::allocator<char> > const ,int>,void *> > >, COMDAT
; _this$ = ecx

; 970  :         if (_Ptr) {

  00000	8b 41 04	 mov	 eax, DWORD PTR [ecx+4]
  00003	85 c0		 test	 eax, eax
  00005	74 0b		 je	 SHORT $LN8@Alloc_cons

; 255  :         ::operator delete(_Ptr, _Bytes);

  00007	6a 2c		 push	 44			; 0000002cH
  00009	50		 push	 eax
  0000a	e8 00 00 00 00	 call	 ??3@YAXPAXI@Z		; operator delete
  0000f	83 c4 08	 add	 esp, 8
$LN8@Alloc_cons:

; 971  :             _Al.deallocate(_Ptr, 1);
; 972  :         }
; 973  :     }

  00012	c3		 ret	 0
??1?$_Alloc_construct_ptr@V?$allocator@U?$_Tree_node@U?$pair@$$CBV?$basic_string@DU?$char_traits@D@std@@V?$allocator@D@2@@std@@H@std@@PAX@std@@@std@@@std@@QAE@XZ ENDP ; std::_Alloc_construct_ptr<std::allocator<std::_Tree_node<std::pair<std::basic_string<char,std::char_traits<char>,std::allocator<char> > const ,int>,void *> > >::~_Alloc_construct_ptr<std::allocator<std::_Tree_node<std::pair<std::basic_string<char,std::char_traits<char>,std::allocator<char> > const ,int>,void *> > >
_TEXT	ENDS
; Function compile flags: /Ogtp
; File C:\Program Files (x86)\Microsoft Visual Studio\2019\Community\VC\Tools\MSVC\14.29.30133\include\xstring
; File C:\Program Files (x86)\Microsoft Visual Studio\2019\Community\VC\Tools\MSVC\14.29.30133\include\utility
; File C:\Program Files (x86)\Microsoft Visual Studio\2019\Community\VC\Tools\MSVC\14.29.30133\include\xstring
; File C:\Program Files (x86)\Microsoft Visual Studio\2019\Community\VC\Tools\MSVC\14.29.30133\include\utility
; File C:\Program Files (x86)\Microsoft Visual Studio\2019\Community\VC\Tools\MSVC\14.29.30133\include\xstring
;	COMDAT ??$?MDU?$char_traits@D@std@@V?$allocator@D@1@@std@@YA_NABV?$basic_string@DU?$char_traits@D@std@@V?$allocator@D@2@@0@0@Z
_TEXT	SEGMENT
__Left$ = 8						; size = 4
__Right$ = 12						; size = 4
??$?MDU?$char_traits@D@std@@V?$allocator@D@1@@std@@YA_NABV?$basic_string@DU?$char_traits@D@std@@V?$allocator@D@2@@0@0@Z PROC ; std::operator<<char,std::char_traits<char>,std::allocator<char> >, COMDAT

; 4808 :     const basic_string<_Elem, _Traits, _Alloc>& _Left, const basic_string<_Elem, _Traits, _Alloc>& _Right) noexcept {

  00000	55		 push	 ebp
  00001	8b ec		 mov	 ebp, esp

; 2272 :         const value_type* _Result = _Bx._Buf;

  00003	8b 45 0c	 mov	 eax, DWORD PTR __Right$[ebp]
  00006	8b c8		 mov	 ecx, eax

; 2286 :         return _BUF_SIZE <= _Myres;

  00008	83 78 14 10	 cmp	 DWORD PTR [eax+20], 16	; 00000010H

; 2273 :         if (_Large_string_engaged()) {

  0000c	72 02		 jb	 SHORT $LN6@operator

; 2274 :             _Result = _Unfancy(_Bx._Ptr);

  0000e	8b 08		 mov	 ecx, DWORD PTR [eax]
$LN6@operator:
  00010	53		 push	 ebx
  00011	56		 push	 esi

; 2272 :         const value_type* _Result = _Bx._Buf;

  00012	8b 75 08	 mov	 esi, DWORD PTR __Left$[ebp]
  00015	8b d6		 mov	 edx, esi
  00017	57		 push	 edi

; 2286 :         return _BUF_SIZE <= _Myres;

  00018	83 7e 14 10	 cmp	 DWORD PTR [esi+20], 16	; 00000010H

; 2273 :         if (_Large_string_engaged()) {

  0001c	72 02		 jb	 SHORT $LN11@operator

; 2274 :             _Result = _Unfancy(_Bx._Ptr);

  0001e	8b 16		 mov	 edx, DWORD PTR [esi]
$LN11@operator:

; 4380 :         return _Traits_compare<_Traits>(_Mypair._Myval2._Myptr(), _Mypair._Myval2._Mysize,

  00020	8b 5e 10	 mov	 ebx, DWORD PTR [esi+16]
; File C:\Program Files (x86)\Microsoft Visual Studio\2019\Community\VC\Tools\MSVC\14.29.30133\include\utility

; 66   :     return _Right < _Left ? _Right : _Left;

  00023	8b f3		 mov	 esi, ebx
; File C:\Program Files (x86)\Microsoft Visual Studio\2019\Community\VC\Tools\MSVC\14.29.30133\include\xstring

; 4380 :         return _Traits_compare<_Traits>(_Mypair._Myval2._Myptr(), _Mypair._Myval2._Mysize,

  00025	8b 78 10	 mov	 edi, DWORD PTR [eax+16]
; File C:\Program Files (x86)\Microsoft Visual Studio\2019\Community\VC\Tools\MSVC\14.29.30133\include\utility

; 66   :     return _Right < _Left ? _Right : _Left;

  00028	3b fb		 cmp	 edi, ebx
  0002a	0f 42 f7	 cmovb	 esi, edi
; File C:\Program Files (x86)\Microsoft Visual Studio\2019\Community\VC\Tools\MSVC\14.29.30133\include\xstring

; 384  :         return _CSTD memcmp(_First1, _First2, _Count);

  0002d	83 ee 04	 sub	 esi, 4
  00030	72 11		 jb	 SHORT $LN26@operator
$LL27@operator:
  00032	8b 02		 mov	 eax, DWORD PTR [edx]
  00034	3b 01		 cmp	 eax, DWORD PTR [ecx]
  00036	75 10		 jne	 SHORT $LN25@operator
  00038	83 c2 04	 add	 edx, 4
  0003b	83 c1 04	 add	 ecx, 4
  0003e	83 ee 04	 sub	 esi, 4
  00041	73 ef		 jae	 SHORT $LL27@operator
$LN26@operator:
  00043	83 fe fc	 cmp	 esi, -4			; fffffffcH
  00046	74 34		 je	 SHORT $LN24@operator
$LN25@operator:
  00048	8a 02		 mov	 al, BYTE PTR [edx]
  0004a	3a 01		 cmp	 al, BYTE PTR [ecx]
  0004c	75 27		 jne	 SHORT $LN28@operator
  0004e	83 fe fd	 cmp	 esi, -3			; fffffffdH
  00051	74 29		 je	 SHORT $LN24@operator
  00053	8a 42 01	 mov	 al, BYTE PTR [edx+1]
  00056	3a 41 01	 cmp	 al, BYTE PTR [ecx+1]
  00059	75 1a		 jne	 SHORT $LN28@operator
  0005b	83 fe fe	 cmp	 esi, -2			; fffffffeH
  0005e	74 1c		 je	 SHORT $LN24@operator
  00060	8a 42 02	 mov	 al, BYTE PTR [edx+2]
  00063	3a 41 02	 cmp	 al, BYTE PTR [ecx+2]
  00066	75 0d		 jne	 SHORT $LN28@operator
  00068	83 fe ff	 cmp	 esi, -1
  0006b	74 0f		 je	 SHORT $LN24@operator
  0006d	8a 42 03	 mov	 al, BYTE PTR [edx+3]
  00070	3a 41 03	 cmp	 al, BYTE PTR [ecx+3]
  00073	74 07		 je	 SHORT $LN24@operator
$LN28@operator:
  00075	1b c0		 sbb	 eax, eax
  00077	83 c8 01	 or	 eax, 1
  0007a	eb 02		 jmp	 SHORT $LN29@operator
$LN24@operator:
  0007c	33 c0		 xor	 eax, eax
$LN29@operator:

; 580  :     if (_Ans != 0) {

  0007e	85 c0		 test	 eax, eax
  00080	75 13		 jne	 SHORT $LN18@operator

; 581  :         return _Ans;
; 582  :     }
; 583  : 
; 584  :     if (_Left_size < _Right_size) {

  00082	3b fb		 cmp	 edi, ebx
  00084	76 0b		 jbe	 SHORT $LN30@operator

; 4809 :     return _Left.compare(_Right) < 0;

  00086	5f		 pop	 edi

; 585  :         return -1;

  00087	83 c8 ff	 or	 eax, -1

; 4809 :     return _Left.compare(_Right) < 0;

  0008a	5e		 pop	 esi
  0008b	c1 e8 1f	 shr	 eax, 31			; 0000001fH
  0008e	5b		 pop	 ebx

; 4810 : }

  0008f	5d		 pop	 ebp
  00090	c3		 ret	 0
$LN30@operator:

; 588  :     if (_Left_size > _Right_size) {

  00091	1b c0		 sbb	 eax, eax
  00093	f7 d8		 neg	 eax
$LN18@operator:

; 4809 :     return _Left.compare(_Right) < 0;

  00095	5f		 pop	 edi
  00096	5e		 pop	 esi
  00097	c1 e8 1f	 shr	 eax, 31			; 0000001fH
  0009a	5b		 pop	 ebx

; 4810 : }

  0009b	5d		 pop	 ebp
  0009c	c3		 ret	 0
??$?MDU?$char_traits@D@std@@V?$allocator@D@1@@std@@YA_NABV?$basic_string@DU?$char_traits@D@std@@V?$allocator@D@2@@0@0@Z ENDP ; std::operator<<char,std::char_traits<char>,std::allocator<char> >
_TEXT	ENDS
; Function compile flags: /Ogtp
; File C:\Program Files (x86)\Microsoft Visual Studio\2019\Community\VC\Tools\MSVC\14.29.30133\include\xutility
;	COMDAT ??$_Copy_memmove@PAPAXPAPAX@std@@YAPAPAXPAPAX00@Z
_TEXT	SEGMENT
__First$ = 8						; size = 4
__Last$ = 12						; size = 4
__Dest$ = 16						; size = 4
??$_Copy_memmove@PAPAXPAPAX@std@@YAPAPAXPAPAX00@Z PROC	; std::_Copy_memmove<void * *,void * *>, COMDAT

; 4058 : _OutCtgIt _Copy_memmove(_CtgIt _First, _CtgIt _Last, _OutCtgIt _Dest) {

  00000	55		 push	 ebp
  00001	8b ec		 mov	 ebp, esp

; 4059 :     auto _FirstPtr              = _To_address(_First);
; 4060 :     auto _LastPtr               = _To_address(_Last);
; 4061 :     auto _DestPtr               = _To_address(_Dest);
; 4062 :     const char* const _First_ch = const_cast<const char*>(reinterpret_cast<const volatile char*>(_FirstPtr));
; 4063 :     const char* const _Last_ch  = const_cast<const char*>(reinterpret_cast<const volatile char*>(_LastPtr));
; 4064 :     char* const _Dest_ch        = const_cast<char*>(reinterpret_cast<const volatile char*>(_DestPtr));
; 4065 :     const auto _Count           = static_cast<size_t>(_Last_ch - _First_ch);

  00003	8b 45 08	 mov	 eax, DWORD PTR __First$[ebp]
  00006	56		 push	 esi

; 4066 :     _CSTD memmove(_Dest_ch, _First_ch, _Count);

  00007	8b 75 10	 mov	 esi, DWORD PTR __Dest$[ebp]
  0000a	57		 push	 edi
  0000b	8b 7d 0c	 mov	 edi, DWORD PTR __Last$[ebp]
  0000e	2b f8		 sub	 edi, eax
  00010	57		 push	 edi
  00011	50		 push	 eax
  00012	56		 push	 esi
  00013	e8 00 00 00 00	 call	 _memmove
  00018	83 c4 0c	 add	 esp, 12			; 0000000cH

; 4067 :     if constexpr (is_pointer_v<_OutCtgIt>) {
; 4068 :         return reinterpret_cast<_OutCtgIt>(_Dest_ch + _Count);

  0001b	8d 04 37	 lea	 eax, DWORD PTR [edi+esi]
  0001e	5f		 pop	 edi
  0001f	5e		 pop	 esi

; 4069 :     } else {
; 4070 :         return _Dest + (_LastPtr - _FirstPtr);
; 4071 :     }
; 4072 : }

  00020	5d		 pop	 ebp
  00021	c3		 ret	 0
??$_Copy_memmove@PAPAXPAPAX@std@@YAPAPAXPAPAX00@Z ENDP	; std::_Copy_memmove<void * *,void * *>
_TEXT	ENDS
; Function compile flags: /Ogtp
; File C:\Program Files (x86)\Microsoft Visual Studio\2019\Community\VC\Tools\MSVC\14.29.30133\include\xmemory
;	COMDAT ??$_Allocate_manually_vector_aligned@U_Default_allocate_traits@std@@@std@@YAPAXI@Z
_TEXT	SEGMENT
__Bytes$ = 8						; size = 4
??$_Allocate_manually_vector_aligned@U_Default_allocate_traits@std@@@std@@YAPAXI@Z PROC ; std::_Allocate_manually_vector_aligned<std::_Default_allocate_traits>, COMDAT

; 127  : __declspec(allocator) void* _Allocate_manually_vector_aligned(const size_t _Bytes) {

  00000	55		 push	 ebp
  00001	8b ec		 mov	 ebp, esp

; 128  :     // allocate _Bytes manually aligned to at least _Big_allocation_alignment
; 129  :     const size_t _Block_size = _Non_user_size + _Bytes;

  00003	8b 45 08	 mov	 eax, DWORD PTR __Bytes$[ebp]
  00006	8d 48 23	 lea	 ecx, DWORD PTR [eax+35]

; 130  :     if (_Block_size <= _Bytes) {

  00009	3b c8		 cmp	 ecx, eax
  0000b	0f 86 00 00 00
	00		 jbe	 ?_Throw_bad_array_new_length@std@@YAXXZ ; std::_Throw_bad_array_new_length

; 79   :         return ::operator new(_Bytes);

  00011	51		 push	 ecx
  00012	e8 00 00 00 00	 call	 ??2@YAPAXI@Z		; operator new

; 131  :         _Throw_bad_array_new_length(); // add overflow
; 132  :     }
; 133  : 
; 134  :     const uintptr_t _Ptr_container = reinterpret_cast<uintptr_t>(_Traits::_Allocate(_Block_size));

  00017	8b c8		 mov	 ecx, eax

; 79   :         return ::operator new(_Bytes);

  00019	83 c4 04	 add	 esp, 4

; 135  :     _STL_VERIFY(_Ptr_container != 0, "invalid argument"); // validate even in release since we're doing p[-1]

  0001c	85 c9		 test	 ecx, ecx
  0001e	74 0b		 je	 SHORT $LN7@Allocate_m

; 136  :     void* const _Ptr = reinterpret_cast<void*>((_Ptr_container + _Non_user_size) & ~(_Big_allocation_alignment - 1));

  00020	8d 41 23	 lea	 eax, DWORD PTR [ecx+35]
  00023	83 e0 e0	 and	 eax, -32		; ffffffe0H

; 137  :     static_cast<uintptr_t*>(_Ptr)[-1] = _Ptr_container;

  00026	89 48 fc	 mov	 DWORD PTR [eax-4], ecx

; 138  : 
; 139  : #ifdef _DEBUG
; 140  :     static_cast<uintptr_t*>(_Ptr)[-2] = _Big_allocation_sentinel;
; 141  : #endif // _DEBUG
; 142  :     return _Ptr;
; 143  : }

  00029	5d		 pop	 ebp
  0002a	c3		 ret	 0
$LN7@Allocate_m:

; 135  :     _STL_VERIFY(_Ptr_container != 0, "invalid argument"); // validate even in release since we're doing p[-1]

  0002b	ff 25 00 00 00
	00		 jmp	 DWORD PTR __imp___invalid_parameter_noinfo_noreturn
??$_Allocate_manually_vector_aligned@U_Default_allocate_traits@std@@@std@@YAPAXI@Z ENDP ; std::_Allocate_manually_vector_aligned<std::_Default_allocate_traits>
_TEXT	ENDS
; Function compile flags: /Ogtp
; File C:\Program Files (x86)\Microsoft Visual Studio\2019\Community\VC\Tools\MSVC\14.29.30133\include\xtree
; File C:\Program Files (x86)\Microsoft Visual Studio\2019\Community\VC\Tools\MSVC\14.29.30133\include\xstring
; File C:\Program Files (x86)\Microsoft Visual Studio\2019\Community\VC\Tools\MSVC\14.29.30133\include\xtree
; File C:\Program Files (x86)\Microsoft Visual Studio\2019\Community\VC\Tools\MSVC\14.29.30133\include\xstring
; File C:\Program Files (x86)\Microsoft Visual Studio\2019\Community\VC\Tools\MSVC\14.29.30133\include\utility
; File C:\Program Files (x86)\Microsoft Visual Studio\2019\Community\VC\Tools\MSVC\14.29.30133\include\xstring
; File C:\Program Files (x86)\Microsoft Visual Studio\2019\Community\VC\Tools\MSVC\14.29.30133\include\utility
; File C:\Program Files (x86)\Microsoft Visual Studio\2019\Community\VC\Tools\MSVC\14.29.30133\include\xstring
; File C:\Program Files (x86)\Microsoft Visual Studio\2019\Community\VC\Tools\MSVC\14.29.30133\include\xtree
; File C:\Program Files (x86)\Microsoft Visual Studio\2019\Community\VC\Tools\MSVC\14.29.30133\include\xstring
; File C:\Program Files (x86)\Microsoft Visual Studio\2019\Community\VC\Tools\MSVC\14.29.30133\include\xtree
;	COMDAT ??$_Find_lower_bound@V?$basic_string@DU?$char_traits@D@std@@V?$allocator@D@2@@std@@@?$_Tree@V?$_Tmap_traits@V?$basic_string@DU?$char_traits@D@std@@V?$allocator@D@2@@std@@HU?$less@V?$basic_string@DU?$char_traits@D@std@@V?$allocator@D@2@@std@@@2@V?$allocator@U?$pair@$$CBV?$basic_string@DU?$char_traits@D@std@@V?$allocator@D@2@@std@@H@std@@@2@$0A@@std@@@std@@IBE?AU?$_Tree_find_result@PAU?$_Tree_node@U?$pair@$$CBV?$basic_string@DU?$char_traits@D@std@@V?$allocator@D@2@@std@@H@std@@PAX@std@@@1@ABV?$basic_string@DU?$char_traits@D@std@@V?$allocator@D@2@@1@@Z
_TEXT	SEGMENT
tv409 = -8						; size = 4
tv405 = -4						; size = 4
tv410 = 8						; size = 4
___$ReturnUdt$ = 8					; size = 4
__Keyval$ = 12						; size = 4
??$_Find_lower_bound@V?$basic_string@DU?$char_traits@D@std@@V?$allocator@D@2@@std@@@?$_Tree@V?$_Tmap_traits@V?$basic_string@DU?$char_traits@D@std@@V?$allocator@D@2@@std@@HU?$less@V?$basic_string@DU?$char_traits@D@std@@V?$allocator@D@2@@std@@@2@V?$allocator@U?$pair@$$CBV?$basic_string@DU?$char_traits@D@std@@V?$allocator@D@2@@std@@H@std@@@2@$0A@@std@@@std@@IBE?AU?$_Tree_find_result@PAU?$_Tree_node@U?$pair@$$CBV?$basic_string@DU?$char_traits@D@std@@V?$allocator@D@2@@std@@H@std@@PAX@std@@@1@ABV?$basic_string@DU?$char_traits@D@std@@V?$allocator@D@2@@1@@Z PROC ; std::_Tree<std::_Tmap_traits<std::basic_string<char,std::char_traits<char>,std::allocator<char> >,int,std::less<std::basic_string<char,std::char_traits<char>,std::allocator<char> > >,std::allocator<std::pair<std::basic_string<char,std::char_traits<char>,std::allocator<char> > const ,int> >,0> >::_Find_lower_bound<std::basic_string<char,std::char_traits<char>,std::allocator<char> > >, COMDAT
; _this$ = ecx

; 1595 :     _Tree_find_result<_Nodeptr> _Find_lower_bound(const _Keyty& _Keyval) const {

  00000	55		 push	 ebp
  00001	8b ec		 mov	 ebp, esp

; 1596 :         const auto _Scary = _Get_scary();
; 1597 :         _Tree_find_result<_Nodeptr> _Result{{_Scary->_Myhead->_Parent, _Tree_child::_Right}, _Scary->_Myhead};

  00003	8b 01		 mov	 eax, DWORD PTR [ecx]
  00005	83 ec 08	 sub	 esp, 8
  00008	53		 push	 ebx
  00009	8b 5d 08	 mov	 ebx, DWORD PTR ___$ReturnUdt$[ebp]
  0000c	57		 push	 edi
  0000d	8b 78 04	 mov	 edi, DWORD PTR [eax+4]
  00010	89 3b		 mov	 DWORD PTR [ebx], edi
  00012	c7 43 04 00 00
	00 00		 mov	 DWORD PTR [ebx+4], 0

; 1598 :         _Nodeptr _Trynode = _Result._Location._Parent;
; 1599 :         while (!_Trynode->_Isnil) {

  00019	80 7f 0d 00	 cmp	 BYTE PTR [edi+13], 0
  0001d	89 43 08	 mov	 DWORD PTR [ebx+8], eax
  00020	0f 85 ab 00 00
	00		 jne	 $LN42@Find_lower
; File C:\Program Files (x86)\Microsoft Visual Studio\2019\Community\VC\Tools\MSVC\14.29.30133\include\xstring

; 2286 :         return _BUF_SIZE <= _Myres;

  00026	8b 45 0c	 mov	 eax, DWORD PTR __Keyval$[ebp]
  00029	56		 push	 esi
  0002a	8b 70 14	 mov	 esi, DWORD PTR [eax+20]

; 4380 :         return _Traits_compare<_Traits>(_Mypair._Myval2._Myptr(), _Mypair._Myval2._Mysize,

  0002d	8b 48 10	 mov	 ecx, DWORD PTR [eax+16]

; 2286 :         return _BUF_SIZE <= _Myres;

  00030	89 75 f8	 mov	 DWORD PTR tv409[ebp], esi

; 4380 :         return _Traits_compare<_Traits>(_Mypair._Myval2._Myptr(), _Mypair._Myval2._Mysize,

  00033	89 4d 08	 mov	 DWORD PTR tv410[ebp], ecx
$LL2@Find_lower:
; File C:\Program Files (x86)\Microsoft Visual Studio\2019\Community\VC\Tools\MSVC\14.29.30133\include\xtree

; 1600 :             _Result._Location._Parent = _Trynode;

  00036	89 3b		 mov	 DWORD PTR [ebx], edi
; File C:\Program Files (x86)\Microsoft Visual Studio\2019\Community\VC\Tools\MSVC\14.29.30133\include\xstring

; 2272 :         const value_type* _Result = _Bx._Buf;

  00038	8b d0		 mov	 edx, eax

; 2286 :         return _BUF_SIZE <= _Myres;

  0003a	83 fe 10	 cmp	 esi, 16			; 00000010H

; 2273 :         if (_Large_string_engaged()) {

  0003d	72 02		 jb	 SHORT $LN14@Find_lower

; 2274 :             _Result = _Unfancy(_Bx._Ptr);

  0003f	8b 10		 mov	 edx, DWORD PTR [eax]
$LN14@Find_lower:

; 2286 :         return _BUF_SIZE <= _Myres;

  00041	83 7f 24 10	 cmp	 DWORD PTR [edi+36], 16	; 00000010H

; 2272 :         const value_type* _Result = _Bx._Buf;

  00045	8d 47 10	 lea	 eax, DWORD PTR [edi+16]

; 2273 :         if (_Large_string_engaged()) {

  00048	72 03		 jb	 SHORT $LN19@Find_lower

; 2274 :             _Result = _Unfancy(_Bx._Ptr);

  0004a	8b 47 10	 mov	 eax, DWORD PTR [edi+16]
$LN19@Find_lower:

; 4380 :         return _Traits_compare<_Traits>(_Mypair._Myval2._Myptr(), _Mypair._Myval2._Mysize,

  0004d	8b 4f 20	 mov	 ecx, DWORD PTR [edi+32]
; File C:\Program Files (x86)\Microsoft Visual Studio\2019\Community\VC\Tools\MSVC\14.29.30133\include\utility

; 66   :     return _Right < _Left ? _Right : _Left;

  00050	8b f1		 mov	 esi, ecx
  00052	39 4d 08	 cmp	 DWORD PTR tv410[ebp], ecx
; File C:\Program Files (x86)\Microsoft Visual Studio\2019\Community\VC\Tools\MSVC\14.29.30133\include\xstring

; 4380 :         return _Traits_compare<_Traits>(_Mypair._Myval2._Myptr(), _Mypair._Myval2._Mysize,

  00055	89 4d fc	 mov	 DWORD PTR tv405[ebp], ecx
; File C:\Program Files (x86)\Microsoft Visual Studio\2019\Community\VC\Tools\MSVC\14.29.30133\include\utility

; 66   :     return _Right < _Left ? _Right : _Left;

  00058	0f 42 75 08	 cmovb	 esi, DWORD PTR tv410[ebp]
; File C:\Program Files (x86)\Microsoft Visual Studio\2019\Community\VC\Tools\MSVC\14.29.30133\include\xstring

; 384  :         return _CSTD memcmp(_First1, _First2, _Count);

  0005c	83 ee 04	 sub	 esi, 4
  0005f	72 11		 jb	 SHORT $LN38@Find_lower
$LL39@Find_lower:
  00061	8b 08		 mov	 ecx, DWORD PTR [eax]
  00063	3b 0a		 cmp	 ecx, DWORD PTR [edx]
  00065	75 10		 jne	 SHORT $LN37@Find_lower
  00067	83 c0 04	 add	 eax, 4
  0006a	83 c2 04	 add	 edx, 4
  0006d	83 ee 04	 sub	 esi, 4
  00070	73 ef		 jae	 SHORT $LL39@Find_lower
$LN38@Find_lower:
  00072	83 fe fc	 cmp	 esi, -4			; fffffffcH
  00075	74 34		 je	 SHORT $LN36@Find_lower
$LN37@Find_lower:
  00077	8a 08		 mov	 cl, BYTE PTR [eax]
  00079	3a 0a		 cmp	 cl, BYTE PTR [edx]
  0007b	75 27		 jne	 SHORT $LN40@Find_lower
  0007d	83 fe fd	 cmp	 esi, -3			; fffffffdH
  00080	74 29		 je	 SHORT $LN36@Find_lower
  00082	8a 48 01	 mov	 cl, BYTE PTR [eax+1]
  00085	3a 4a 01	 cmp	 cl, BYTE PTR [edx+1]
  00088	75 1a		 jne	 SHORT $LN40@Find_lower
  0008a	83 fe fe	 cmp	 esi, -2			; fffffffeH
  0008d	74 1c		 je	 SHORT $LN36@Find_lower
  0008f	8a 48 02	 mov	 cl, BYTE PTR [eax+2]
  00092	3a 4a 02	 cmp	 cl, BYTE PTR [edx+2]
  00095	75 0d		 jne	 SHORT $LN40@Find_lower
  00097	83 fe ff	 cmp	 esi, -1
  0009a	74 0f		 je	 SHORT $LN36@Find_lower
  0009c	8a 40 03	 mov	 al, BYTE PTR [eax+3]
  0009f	3a 42 03	 cmp	 al, BYTE PTR [edx+3]
  000a2	74 07		 je	 SHORT $LN36@Find_lower
$LN40@Find_lower:
  000a4	1b c0		 sbb	 eax, eax
  000a6	83 c8 01	 or	 eax, 1
  000a9	eb 02		 jmp	 SHORT $LN41@Find_lower
$LN36@Find_lower:
  000ab	33 c0		 xor	 eax, eax
$LN41@Find_lower:

; 580  :     if (_Ans != 0) {

  000ad	85 c0		 test	 eax, eax
  000af	74 2a		 je	 SHORT $LN24@Find_lower
; File C:\Program Files (x86)\Microsoft Visual Studio\2019\Community\VC\Tools\MSVC\14.29.30133\include\xtree

; 1601 :             if (_DEBUG_LT_PRED(_Getcomp(), _Traits::_Kfn(_Trynode->_Myval), _Keyval)) {

  000b1	78 30		 js	 SHORT $LN35@Find_lower
$LN4@Find_lower:

; 1605 :                 _Result._Location._Child = _Tree_child::_Left;
; 1606 :                 _Result._Bound           = _Trynode;

  000b3	89 7b 08	 mov	 DWORD PTR [ebx+8], edi

; 1607 :                 _Trynode                 = _Trynode->_Left;

  000b6	b8 01 00 00 00	 mov	 eax, 1
  000bb	8b 3f		 mov	 edi, DWORD PTR [edi]
$LN5@Find_lower:

; 1598 :         _Nodeptr _Trynode = _Result._Location._Parent;
; 1599 :         while (!_Trynode->_Isnil) {

  000bd	8b 75 f8	 mov	 esi, DWORD PTR tv409[ebp]
  000c0	89 43 04	 mov	 DWORD PTR [ebx+4], eax
  000c3	80 7f 0d 00	 cmp	 BYTE PTR [edi+13], 0
  000c7	8b 45 0c	 mov	 eax, DWORD PTR __Keyval$[ebp]
  000ca	0f 84 66 ff ff
	ff		 je	 $LL2@Find_lower

; 1608 :             }
; 1609 :         }
; 1610 : 
; 1611 :         return _Result;

  000d0	5e		 pop	 esi
$LN42@Find_lower:
  000d1	5f		 pop	 edi

; 1612 :     }

  000d2	8b c3		 mov	 eax, ebx
  000d4	5b		 pop	 ebx
  000d5	8b e5		 mov	 esp, ebp
  000d7	5d		 pop	 ebp
  000d8	c2 08 00	 ret	 8
$LN24@Find_lower:
; File C:\Program Files (x86)\Microsoft Visual Studio\2019\Community\VC\Tools\MSVC\14.29.30133\include\xstring

; 584  :     if (_Left_size < _Right_size) {

  000db	8b 45 08	 mov	 eax, DWORD PTR tv410[ebp]
  000de	39 45 fc	 cmp	 DWORD PTR tv405[ebp], eax
  000e1	73 d0		 jae	 SHORT $LN4@Find_lower
$LN35@Find_lower:
; File C:\Program Files (x86)\Microsoft Visual Studio\2019\Community\VC\Tools\MSVC\14.29.30133\include\xtree

; 1603 :                 _Trynode                 = _Trynode->_Right;

  000e3	8b 7f 08	 mov	 edi, DWORD PTR [edi+8]
  000e6	33 c0		 xor	 eax, eax

; 1604 :             } else {

  000e8	eb d3		 jmp	 SHORT $LN5@Find_lower
??$_Find_lower_bound@V?$basic_string@DU?$char_traits@D@std@@V?$allocator@D@2@@std@@@?$_Tree@V?$_Tmap_traits@V?$basic_string@DU?$char_traits@D@std@@V?$allocator@D@2@@std@@HU?$less@V?$basic_string@DU?$char_traits@D@std@@V?$allocator@D@2@@std@@@2@V?$allocator@U?$pair@$$CBV?$basic_string@DU?$char_traits@D@std@@V?$allocator@D@2@@std@@H@std@@@2@$0A@@std@@@std@@IBE?AU?$_Tree_find_result@PAU?$_Tree_node@U?$pair@$$CBV?$basic_string@DU?$char_traits@D@std@@V?$allocator@D@2@@std@@H@std@@PAX@std@@@1@ABV?$basic_string@DU?$char_traits@D@std@@V?$allocator@D@2@@1@@Z ENDP ; std::_Tree<std::_Tmap_traits<std::basic_string<char,std::char_traits<char>,std::allocator<char> >,int,std::less<std::basic_string<char,std::char_traits<char>,std::allocator<char> > >,std::allocator<std::pair<std::basic_string<char,std::char_traits<char>,std::allocator<char> > const ,int> >,0> >::_Find_lower_bound<std::basic_string<char,std::char_traits<char>,std::allocator<char> > >
_TEXT	ENDS
; Function compile flags: /Ogtp
; File C:\Program Files (x86)\Microsoft Visual Studio\2019\Community\VC\Tools\MSVC\14.29.30133\include\xtree
; File C:\Program Files (x86)\Microsoft Visual Studio\2019\Community\VC\Tools\MSVC\14.29.30133\include\xstring
; File C:\Program Files (x86)\Microsoft Visual Studio\2019\Community\VC\Tools\MSVC\14.29.30133\include\xtree
; File C:\Program Files (x86)\Microsoft Visual Studio\2019\Community\VC\Tools\MSVC\14.29.30133\include\xstring
; File C:\Program Files (x86)\Microsoft Visual Studio\2019\Community\VC\Tools\MSVC\14.29.30133\include\utility
; File C:\Program Files (x86)\Microsoft Visual Studio\2019\Community\VC\Tools\MSVC\14.29.30133\include\xstring
; File C:\Program Files (x86)\Microsoft Visual Studio\2019\Community\VC\Tools\MSVC\14.29.30133\include\utility
; File C:\Program Files (x86)\Microsoft Visual Studio\2019\Community\VC\Tools\MSVC\14.29.30133\include\xstring
; File C:\Program Files (x86)\Microsoft Visual Studio\2019\Community\VC\Tools\MSVC\14.29.30133\include\xtree
; File C:\Program Files (x86)\Microsoft Visual Studio\2019\Community\VC\Tools\MSVC\14.29.30133\include\xstring
; File C:\Program Files (x86)\Microsoft Visual Studio\2019\Community\VC\Tools\MSVC\14.29.30133\include\xtree
;	COMDAT ??$_Find_lower_bound@V?$basic_string@DU?$char_traits@D@std@@V?$allocator@D@2@@std@@@?$_Tree@V?$_Tmap_traits@V?$basic_string@DU?$char_traits@D@std@@V?$allocator@D@2@@std@@PAUVERTBOX_INFO@CXScaleManagerImp@@U?$less@V?$basic_string@DU?$char_traits@D@std@@V?$allocator@D@2@@std@@@2@V?$allocator@U?$pair@$$CBV?$basic_string@DU?$char_traits@D@std@@V?$allocator@D@2@@std@@PAUVERTBOX_INFO@CXScaleManagerImp@@@std@@@2@$0A@@std@@@std@@IBE?AU?$_Tree_find_result@PAU?$_Tree_node@U?$pair@$$CBV?$basic_string@DU?$char_traits@D@std@@V?$allocator@D@2@@std@@PAUVERTBOX_INFO@CXScaleManagerImp@@@std@@PAX@std@@@1@ABV?$basic_string@DU?$char_traits@D@std@@V?$allocator@D@2@@1@@Z
_TEXT	SEGMENT
tv409 = -8						; size = 4
tv405 = -4						; size = 4
tv410 = 8						; size = 4
___$ReturnUdt$ = 8					; size = 4
__Keyval$ = 12						; size = 4
??$_Find_lower_bound@V?$basic_string@DU?$char_traits@D@std@@V?$allocator@D@2@@std@@@?$_Tree@V?$_Tmap_traits@V?$basic_string@DU?$char_traits@D@std@@V?$allocator@D@2@@std@@PAUVERTBOX_INFO@CXScaleManagerImp@@U?$less@V?$basic_string@DU?$char_traits@D@std@@V?$allocator@D@2@@std@@@2@V?$allocator@U?$pair@$$CBV?$basic_string@DU?$char_traits@D@std@@V?$allocator@D@2@@std@@PAUVERTBOX_INFO@CXScaleManagerImp@@@std@@@2@$0A@@std@@@std@@IBE?AU?$_Tree_find_result@PAU?$_Tree_node@U?$pair@$$CBV?$basic_string@DU?$char_traits@D@std@@V?$allocator@D@2@@std@@PAUVERTBOX_INFO@CXScaleManagerImp@@@std@@PAX@std@@@1@ABV?$basic_string@DU?$char_traits@D@std@@V?$allocator@D@2@@1@@Z PROC ; std::_Tree<std::_Tmap_traits<std::basic_string<char,std::char_traits<char>,std::allocator<char> >,CXScaleManagerImp::VERTBOX_INFO *,std::less<std::basic_string<char,std::char_traits<char>,std::allocator<char> > >,std::allocator<std::pair<std::basic_string<char,std::char_traits<char>,std::allocator<char> > const ,CXScaleManagerImp::VERTBOX_INFO *> >,0> >::_Find_lower_bound<std::basic_string<char,std::char_traits<char>,std::allocator<char> > >, COMDAT
; _this$ = ecx

; 1595 :     _Tree_find_result<_Nodeptr> _Find_lower_bound(const _Keyty& _Keyval) const {

  00000	55		 push	 ebp
  00001	8b ec		 mov	 ebp, esp

; 1596 :         const auto _Scary = _Get_scary();
; 1597 :         _Tree_find_result<_Nodeptr> _Result{{_Scary->_Myhead->_Parent, _Tree_child::_Right}, _Scary->_Myhead};

  00003	8b 01		 mov	 eax, DWORD PTR [ecx]
  00005	83 ec 08	 sub	 esp, 8
  00008	53		 push	 ebx
  00009	8b 5d 08	 mov	 ebx, DWORD PTR ___$ReturnUdt$[ebp]
  0000c	57		 push	 edi
  0000d	8b 78 04	 mov	 edi, DWORD PTR [eax+4]
  00010	89 3b		 mov	 DWORD PTR [ebx], edi
  00012	c7 43 04 00 00
	00 00		 mov	 DWORD PTR [ebx+4], 0

; 1598 :         _Nodeptr _Trynode = _Result._Location._Parent;
; 1599 :         while (!_Trynode->_Isnil) {

  00019	80 7f 0d 00	 cmp	 BYTE PTR [edi+13], 0
  0001d	89 43 08	 mov	 DWORD PTR [ebx+8], eax
  00020	0f 85 ab 00 00
	00		 jne	 $LN42@Find_lower
; File C:\Program Files (x86)\Microsoft Visual Studio\2019\Community\VC\Tools\MSVC\14.29.30133\include\xstring

; 2286 :         return _BUF_SIZE <= _Myres;

  00026	8b 45 0c	 mov	 eax, DWORD PTR __Keyval$[ebp]
  00029	56		 push	 esi
  0002a	8b 70 14	 mov	 esi, DWORD PTR [eax+20]

; 4380 :         return _Traits_compare<_Traits>(_Mypair._Myval2._Myptr(), _Mypair._Myval2._Mysize,

  0002d	8b 48 10	 mov	 ecx, DWORD PTR [eax+16]

; 2286 :         return _BUF_SIZE <= _Myres;

  00030	89 75 f8	 mov	 DWORD PTR tv409[ebp], esi

; 4380 :         return _Traits_compare<_Traits>(_Mypair._Myval2._Myptr(), _Mypair._Myval2._Mysize,

  00033	89 4d 08	 mov	 DWORD PTR tv410[ebp], ecx
$LL2@Find_lower:
; File C:\Program Files (x86)\Microsoft Visual Studio\2019\Community\VC\Tools\MSVC\14.29.30133\include\xtree

; 1600 :             _Result._Location._Parent = _Trynode;

  00036	89 3b		 mov	 DWORD PTR [ebx], edi
; File C:\Program Files (x86)\Microsoft Visual Studio\2019\Community\VC\Tools\MSVC\14.29.30133\include\xstring

; 2272 :         const value_type* _Result = _Bx._Buf;

  00038	8b d0		 mov	 edx, eax

; 2286 :         return _BUF_SIZE <= _Myres;

  0003a	83 fe 10	 cmp	 esi, 16			; 00000010H

; 2273 :         if (_Large_string_engaged()) {

  0003d	72 02		 jb	 SHORT $LN14@Find_lower

; 2274 :             _Result = _Unfancy(_Bx._Ptr);

  0003f	8b 10		 mov	 edx, DWORD PTR [eax]
$LN14@Find_lower:

; 2286 :         return _BUF_SIZE <= _Myres;

  00041	83 7f 24 10	 cmp	 DWORD PTR [edi+36], 16	; 00000010H

; 2272 :         const value_type* _Result = _Bx._Buf;

  00045	8d 47 10	 lea	 eax, DWORD PTR [edi+16]

; 2273 :         if (_Large_string_engaged()) {

  00048	72 03		 jb	 SHORT $LN19@Find_lower

; 2274 :             _Result = _Unfancy(_Bx._Ptr);

  0004a	8b 47 10	 mov	 eax, DWORD PTR [edi+16]
$LN19@Find_lower:

; 4380 :         return _Traits_compare<_Traits>(_Mypair._Myval2._Myptr(), _Mypair._Myval2._Mysize,

  0004d	8b 4f 20	 mov	 ecx, DWORD PTR [edi+32]
; File C:\Program Files (x86)\Microsoft Visual Studio\2019\Community\VC\Tools\MSVC\14.29.30133\include\utility

; 66   :     return _Right < _Left ? _Right : _Left;

  00050	8b f1		 mov	 esi, ecx
  00052	39 4d 08	 cmp	 DWORD PTR tv410[ebp], ecx
; File C:\Program Files (x86)\Microsoft Visual Studio\2019\Community\VC\Tools\MSVC\14.29.30133\include\xstring

; 4380 :         return _Traits_compare<_Traits>(_Mypair._Myval2._Myptr(), _Mypair._Myval2._Mysize,

  00055	89 4d fc	 mov	 DWORD PTR tv405[ebp], ecx
; File C:\Program Files (x86)\Microsoft Visual Studio\2019\Community\VC\Tools\MSVC\14.29.30133\include\utility

; 66   :     return _Right < _Left ? _Right : _Left;

  00058	0f 42 75 08	 cmovb	 esi, DWORD PTR tv410[ebp]
; File C:\Program Files (x86)\Microsoft Visual Studio\2019\Community\VC\Tools\MSVC\14.29.30133\include\xstring

; 384  :         return _CSTD memcmp(_First1, _First2, _Count);

  0005c	83 ee 04	 sub	 esi, 4
  0005f	72 11		 jb	 SHORT $LN38@Find_lower
$LL39@Find_lower:
  00061	8b 08		 mov	 ecx, DWORD PTR [eax]
  00063	3b 0a		 cmp	 ecx, DWORD PTR [edx]
  00065	75 10		 jne	 SHORT $LN37@Find_lower
  00067	83 c0 04	 add	 eax, 4
  0006a	83 c2 04	 add	 edx, 4
  0006d	83 ee 04	 sub	 esi, 4
  00070	73 ef		 jae	 SHORT $LL39@Find_lower
$LN38@Find_lower:
  00072	83 fe fc	 cmp	 esi, -4			; fffffffcH
  00075	74 34		 je	 SHORT $LN36@Find_lower
$LN37@Find_lower:
  00077	8a 08		 mov	 cl, BYTE PTR [eax]
  00079	3a 0a		 cmp	 cl, BYTE PTR [edx]
  0007b	75 27		 jne	 SHORT $LN40@Find_lower
  0007d	83 fe fd	 cmp	 esi, -3			; fffffffdH
  00080	74 29		 je	 SHORT $LN36@Find_lower
  00082	8a 48 01	 mov	 cl, BYTE PTR [eax+1]
  00085	3a 4a 01	 cmp	 cl, BYTE PTR [edx+1]
  00088	75 1a		 jne	 SHORT $LN40@Find_lower
  0008a	83 fe fe	 cmp	 esi, -2			; fffffffeH
  0008d	74 1c		 je	 SHORT $LN36@Find_lower
  0008f	8a 48 02	 mov	 cl, BYTE PTR [eax+2]
  00092	3a 4a 02	 cmp	 cl, BYTE PTR [edx+2]
  00095	75 0d		 jne	 SHORT $LN40@Find_lower
  00097	83 fe ff	 cmp	 esi, -1
  0009a	74 0f		 je	 SHORT $LN36@Find_lower
  0009c	8a 40 03	 mov	 al, BYTE PTR [eax+3]
  0009f	3a 42 03	 cmp	 al, BYTE PTR [edx+3]
  000a2	74 07		 je	 SHORT $LN36@Find_lower
$LN40@Find_lower:
  000a4	1b c0		 sbb	 eax, eax
  000a6	83 c8 01	 or	 eax, 1
  000a9	eb 02		 jmp	 SHORT $LN41@Find_lower
$LN36@Find_lower:
  000ab	33 c0		 xor	 eax, eax
$LN41@Find_lower:

; 580  :     if (_Ans != 0) {

  000ad	85 c0		 test	 eax, eax
  000af	74 2a		 je	 SHORT $LN24@Find_lower
; File C:\Program Files (x86)\Microsoft Visual Studio\2019\Community\VC\Tools\MSVC\14.29.30133\include\xtree

; 1601 :             if (_DEBUG_LT_PRED(_Getcomp(), _Traits::_Kfn(_Trynode->_Myval), _Keyval)) {

  000b1	78 30		 js	 SHORT $LN35@Find_lower
$LN4@Find_lower:

; 1605 :                 _Result._Location._Child = _Tree_child::_Left;
; 1606 :                 _Result._Bound           = _Trynode;

  000b3	89 7b 08	 mov	 DWORD PTR [ebx+8], edi

; 1607 :                 _Trynode                 = _Trynode->_Left;

  000b6	b8 01 00 00 00	 mov	 eax, 1
  000bb	8b 3f		 mov	 edi, DWORD PTR [edi]
$LN5@Find_lower:

; 1598 :         _Nodeptr _Trynode = _Result._Location._Parent;
; 1599 :         while (!_Trynode->_Isnil) {

  000bd	8b 75 f8	 mov	 esi, DWORD PTR tv409[ebp]
  000c0	89 43 04	 mov	 DWORD PTR [ebx+4], eax
  000c3	80 7f 0d 00	 cmp	 BYTE PTR [edi+13], 0
  000c7	8b 45 0c	 mov	 eax, DWORD PTR __Keyval$[ebp]
  000ca	0f 84 66 ff ff
	ff		 je	 $LL2@Find_lower

; 1608 :             }
; 1609 :         }
; 1610 : 
; 1611 :         return _Result;

  000d0	5e		 pop	 esi
$LN42@Find_lower:
  000d1	5f		 pop	 edi

; 1612 :     }

  000d2	8b c3		 mov	 eax, ebx
  000d4	5b		 pop	 ebx
  000d5	8b e5		 mov	 esp, ebp
  000d7	5d		 pop	 ebp
  000d8	c2 08 00	 ret	 8
$LN24@Find_lower:
; File C:\Program Files (x86)\Microsoft Visual Studio\2019\Community\VC\Tools\MSVC\14.29.30133\include\xstring

; 584  :     if (_Left_size < _Right_size) {

  000db	8b 45 08	 mov	 eax, DWORD PTR tv410[ebp]
  000de	39 45 fc	 cmp	 DWORD PTR tv405[ebp], eax
  000e1	73 d0		 jae	 SHORT $LN4@Find_lower
$LN35@Find_lower:
; File C:\Program Files (x86)\Microsoft Visual Studio\2019\Community\VC\Tools\MSVC\14.29.30133\include\xtree

; 1603 :                 _Trynode                 = _Trynode->_Right;

  000e3	8b 7f 08	 mov	 edi, DWORD PTR [edi+8]
  000e6	33 c0		 xor	 eax, eax

; 1604 :             } else {

  000e8	eb d3		 jmp	 SHORT $LN5@Find_lower
??$_Find_lower_bound@V?$basic_string@DU?$char_traits@D@std@@V?$allocator@D@2@@std@@@?$_Tree@V?$_Tmap_traits@V?$basic_string@DU?$char_traits@D@std@@V?$allocator@D@2@@std@@PAUVERTBOX_INFO@CXScaleManagerImp@@U?$less@V?$basic_string@DU?$char_traits@D@std@@V?$allocator@D@2@@std@@@2@V?$allocator@U?$pair@$$CBV?$basic_string@DU?$char_traits@D@std@@V?$allocator@D@2@@std@@PAUVERTBOX_INFO@CXScaleManagerImp@@@std@@@2@$0A@@std@@@std@@IBE?AU?$_Tree_find_result@PAU?$_Tree_node@U?$pair@$$CBV?$basic_string@DU?$char_traits@D@std@@V?$allocator@D@2@@std@@PAUVERTBOX_INFO@CXScaleManagerImp@@@std@@PAX@std@@@1@ABV?$basic_string@DU?$char_traits@D@std@@V?$allocator@D@2@@1@@Z ENDP ; std::_Tree<std::_Tmap_traits<std::basic_string<char,std::char_traits<char>,std::allocator<char> >,CXScaleManagerImp::VERTBOX_INFO *,std::less<std::basic_string<char,std::char_traits<char>,std::allocator<char> > >,std::allocator<std::pair<std::basic_string<char,std::char_traits<char>,std::allocator<char> > const ,CXScaleManagerImp::VERTBOX_INFO *> >,0> >::_Find_lower_bound<std::basic_string<char,std::char_traits<char>,std::allocator<char> > >
_TEXT	ENDS
; Function compile flags: /Ogtp
; File C:\Program Files (x86)\Microsoft Visual Studio\2019\Community\VC\Tools\MSVC\14.29.30133\include\vector
; File C:\Program Files (x86)\Microsoft Visual Studio\2019\Community\VC\Tools\MSVC\14.29.30133\include\xmemory
; File C:\Program Files (x86)\Microsoft Visual Studio\2019\Community\VC\Tools\MSVC\14.29.30133\include\vector
; File C:\Program Files (x86)\Microsoft Visual Studio\2019\Community\VC\Tools\MSVC\14.29.30133\include\xutility
; File C:\Program Files (x86)\Microsoft Visual Studio\2019\Community\VC\Tools\MSVC\14.29.30133\include\vector
; File C:\Program Files (x86)\Microsoft Visual Studio\2019\Community\VC\Tools\MSVC\14.29.30133\include\xutility
; File C:\Program Files (x86)\Microsoft Visual Studio\2019\Community\VC\Tools\MSVC\14.29.30133\include\vector
; File C:\Program Files (x86)\Microsoft Visual Studio\2019\Community\VC\Tools\MSVC\14.29.30133\include\xutility
; File C:\Program Files (x86)\Microsoft Visual Studio\2019\Community\VC\Tools\MSVC\14.29.30133\include\vector
; File C:\Program Files (x86)\Microsoft Visual Studio\2019\Community\VC\Tools\MSVC\14.29.30133\include\xutility
; File C:\Program Files (x86)\Microsoft Visual Studio\2019\Community\VC\Tools\MSVC\14.29.30133\include\vector
; File C:\Program Files (x86)\Microsoft Visual Studio\2019\Community\VC\Tools\MSVC\14.29.30133\include\xmemory
; File C:\Program Files (x86)\Microsoft Visual Studio\2019\Community\VC\Tools\MSVC\14.29.30133\include\vector
; File C:\Program Files (x86)\Microsoft Visual Studio\2019\Community\VC\Tools\MSVC\14.29.30133\include\xmemory
; File C:\Program Files (x86)\Microsoft Visual Studio\2019\Community\VC\Tools\MSVC\14.29.30133\include\vector
;	COMDAT ??$_Emplace_reallocate@ABQAX@?$vector@PAXV?$allocator@PAX@std@@@std@@QAEPAPAXQAPAXABQAX@Z
_TEXT	SEGMENT
__Newsize$1$ = -8					; size = 4
tv710 = -4						; size = 4
__Whereoff$1$ = -4					; size = 4
__Whereptr$ = 8						; size = 4
_<_Val_0>$ = 12						; size = 4
??$_Emplace_reallocate@ABQAX@?$vector@PAXV?$allocator@PAX@std@@@std@@QAEPAPAXQAPAXABQAX@Z PROC ; std::vector<void *,std::allocator<void *> >::_Emplace_reallocate<void * const &>, COMDAT
; _this$ = ecx

; 752  :     _CONSTEXPR20_CONTAINER pointer _Emplace_reallocate(const pointer _Whereptr, _Valty&&... _Val) {

  00000	55		 push	 ebp
  00001	8b ec		 mov	 ebp, esp
  00003	83 ec 08	 sub	 esp, 8

; 753  :         // reallocate and insert by perfectly forwarding _Val at _Whereptr
; 754  :         _Alty& _Al        = _Getal();
; 755  :         auto& _My_data    = _Mypair._Myval2;
; 756  :         pointer& _Myfirst = _My_data._Myfirst;
; 757  :         pointer& _Mylast  = _My_data._Mylast;
; 758  : 
; 759  :         _STL_INTERNAL_CHECK(_Mylast == _My_data._Myend); // check that we have no unused capacity
; 760  : 
; 761  :         const auto _Whereoff = static_cast<size_type>(_Whereptr - _Myfirst);

  00006	8b 45 08	 mov	 eax, DWORD PTR __Whereptr$[ebp]
  00009	53		 push	 ebx
  0000a	56		 push	 esi
  0000b	57		 push	 edi
  0000c	8b f9		 mov	 edi, ecx
  0000e	8b 0f		 mov	 ecx, DWORD PTR [edi]
  00010	2b c1		 sub	 eax, ecx
  00012	c1 f8 02	 sar	 eax, 2
  00015	89 45 fc	 mov	 DWORD PTR __Whereoff$1$[ebp], eax

; 762  :         const auto _Oldsize  = static_cast<size_type>(_Mylast - _Myfirst);

  00018	8b 47 04	 mov	 eax, DWORD PTR [edi+4]
  0001b	2b c1		 sub	 eax, ecx
  0001d	c1 f8 02	 sar	 eax, 2

; 763  : 
; 764  :         if (_Oldsize == max_size()) {

  00020	3d ff ff ff 3f	 cmp	 eax, 1073741823		; 3fffffffH
  00025	0f 84 24 01 00
	00		 je	 $LN117@Emplace_re

; 1546 :         return static_cast<size_type>(_My_data._Myend - _My_data._Myfirst);

  0002b	8b 57 08	 mov	 edx, DWORD PTR [edi+8]

; 766  :         }
; 767  : 
; 768  :         const size_type _Newsize     = _Oldsize + 1;

  0002e	8d 70 01	 lea	 esi, DWORD PTR [eax+1]

; 1546 :         return static_cast<size_type>(_My_data._Myend - _My_data._Myfirst);

  00031	2b d1		 sub	 edx, ecx

; 766  :         }
; 767  : 
; 768  :         const size_type _Newsize     = _Oldsize + 1;

  00033	89 75 f8	 mov	 DWORD PTR __Newsize$1$[ebp], esi

; 1546 :         return static_cast<size_type>(_My_data._Myend - _My_data._Myfirst);

  00036	c1 fa 02	 sar	 edx, 2

; 1675 :         if (_Oldcapacity > _Max - _Oldcapacity / 2) {

  00039	b8 ff ff ff 3f	 mov	 eax, 1073741823		; 3fffffffH
  0003e	8b ca		 mov	 ecx, edx
  00040	d1 e9		 shr	 ecx, 1
  00042	2b c1		 sub	 eax, ecx
  00044	3b d0		 cmp	 edx, eax
  00046	0f 87 fe 00 00
	00		 ja	 $LN114@Emplace_re

; 1676 :             return _Max; // geometric growth would overflow
; 1677 :         }
; 1678 : 
; 1679 :         const size_type _Geometric = _Oldcapacity + _Oldcapacity / 2;

  0004c	8d 04 11	 lea	 eax, DWORD PTR [ecx+edx]
; File C:\Program Files (x86)\Microsoft Visual Studio\2019\Community\VC\Tools\MSVC\14.29.30133\include\xmemory

; 60   :         if (_Count > _Max_possible) {

  0004f	8b de		 mov	 ebx, esi
  00051	3b c6		 cmp	 eax, esi
  00053	0f 43 d8	 cmovae	 ebx, eax
  00056	81 fb ff ff ff
	3f		 cmp	 ebx, 1073741823		; 3fffffffH
  0005c	0f 87 e8 00 00
	00		 ja	 $LN114@Emplace_re

; 61   :             _Throw_bad_array_new_length(); // multiply overflow
; 62   :         }
; 63   :     }
; 64   : 
; 65   :     return _Count * _Ty_size;

  00062	c1 e3 02	 shl	 ebx, 2

; 228  :         if (_Bytes >= _Big_allocation_threshold) { // boost the alignment of big allocations to help autovectorization

  00065	81 fb 00 10 00
	00		 cmp	 ebx, 4096		; 00001000H
  0006b	72 27		 jb	 SHORT $LN24@Emplace_re

; 129  :     const size_t _Block_size = _Non_user_size + _Bytes;

  0006d	8d 43 23	 lea	 eax, DWORD PTR [ebx+35]

; 130  :     if (_Block_size <= _Bytes) {

  00070	3b c3		 cmp	 eax, ebx
  00072	0f 86 d2 00 00
	00		 jbe	 $LN114@Emplace_re

; 79   :         return ::operator new(_Bytes);

  00078	50		 push	 eax
  00079	e8 00 00 00 00	 call	 ??2@YAPAXI@Z		; operator new
  0007e	83 c4 04	 add	 esp, 4

; 135  :     _STL_VERIFY(_Ptr_container != 0, "invalid argument"); // validate even in release since we're doing p[-1]

  00081	85 c0		 test	 eax, eax
  00083	0f 84 bb 00 00
	00		 je	 $LN105@Emplace_re

; 136  :     void* const _Ptr = reinterpret_cast<void*>((_Ptr_container + _Non_user_size) & ~(_Big_allocation_alignment - 1));

  00089	8d 70 23	 lea	 esi, DWORD PTR [eax+35]
  0008c	83 e6 e0	 and	 esi, -32		; ffffffe0H

; 137  :     static_cast<uintptr_t*>(_Ptr)[-1] = _Ptr_container;

  0008f	89 46 fc	 mov	 DWORD PTR [esi-4], eax

; 229  :             return _Allocate_manually_vector_aligned<_Traits>(_Bytes);

  00092	eb 13		 jmp	 SHORT $LN23@Emplace_re
$LN24@Emplace_re:

; 230  :         }
; 231  :     }
; 232  : #endif // defined(_M_IX86) || defined(_M_X64)
; 233  : 
; 234  :     if (_Bytes != 0) {

  00094	85 db		 test	 ebx, ebx
  00096	74 0d		 je	 SHORT $LN25@Emplace_re

; 79   :         return ::operator new(_Bytes);

  00098	53		 push	 ebx
  00099	e8 00 00 00 00	 call	 ??2@YAPAXI@Z		; operator new
  0009e	83 c4 04	 add	 esp, 4

; 235  :         return _Traits::_Allocate(_Bytes);

  000a1	8b f0		 mov	 esi, eax
  000a3	eb 02		 jmp	 SHORT $LN23@Emplace_re
$LN25@Emplace_re:

; 236  :     }
; 237  : 
; 238  :     return nullptr;

  000a5	33 f6		 xor	 esi, esi
$LN23@Emplace_re:
; File C:\Program Files (x86)\Microsoft Visual Studio\2019\Community\VC\Tools\MSVC\14.29.30133\include\vector

; 776  :         _Alty_traits::construct(_Al, _Unfancy(_Newvec + _Whereoff), _STD forward<_Valty>(_Val)...);

  000a7	8b 45 fc	 mov	 eax, DWORD PTR __Whereoff$1$[ebp]

; 777  :         _Constructed_first = _Newvec + _Whereoff;
; 778  : 
; 779  :         if (_Whereptr == _Mylast) { // at back, provide strong guarantee

  000aa	8b 55 08	 mov	 edx, DWORD PTR __Whereptr$[ebp]
  000ad	8d 0c 86	 lea	 ecx, DWORD PTR [esi+eax*4]
  000b0	8b 45 0c	 mov	 eax, DWORD PTR _<_Val_0>$[ebp]
  000b3	89 4d fc	 mov	 DWORD PTR tv710[ebp], ecx
  000b6	8b 00		 mov	 eax, DWORD PTR [eax]
  000b8	89 01		 mov	 DWORD PTR [ecx], eax
  000ba	8b 47 04	 mov	 eax, DWORD PTR [edi+4]
  000bd	8b 0f		 mov	 ecx, DWORD PTR [edi]
  000bf	3b d0		 cmp	 edx, eax
  000c1	75 0f		 jne	 SHORT $LN4@Emplace_re
; File C:\Program Files (x86)\Microsoft Visual Studio\2019\Community\VC\Tools\MSVC\14.29.30133\include\xutility

; 4065 :     const auto _Count           = static_cast<size_t>(_Last_ch - _First_ch);

  000c3	2b c1		 sub	 eax, ecx

; 4066 :     _CSTD memmove(_Dest_ch, _First_ch, _Count);

  000c5	50		 push	 eax
  000c6	51		 push	 ecx
  000c7	56		 push	 esi
  000c8	e8 00 00 00 00	 call	 _memmove
  000cd	83 c4 0c	 add	 esp, 12			; 0000000cH
; File C:\Program Files (x86)\Microsoft Visual Studio\2019\Community\VC\Tools\MSVC\14.29.30133\include\vector

; 781  :         } else { // provide basic guarantee

  000d0	eb 23		 jmp	 SHORT $LN78@Emplace_re
$LN4@Emplace_re:
; File C:\Program Files (x86)\Microsoft Visual Studio\2019\Community\VC\Tools\MSVC\14.29.30133\include\xutility

; 4065 :     const auto _Count           = static_cast<size_t>(_Last_ch - _First_ch);

  000d2	2b d1		 sub	 edx, ecx

; 4066 :     _CSTD memmove(_Dest_ch, _First_ch, _Count);

  000d4	52		 push	 edx
  000d5	51		 push	 ecx
  000d6	56		 push	 esi
  000d7	e8 00 00 00 00	 call	 _memmove

; 4065 :     const auto _Count           = static_cast<size_t>(_Last_ch - _First_ch);

  000dc	8b 47 04	 mov	 eax, DWORD PTR [edi+4]
  000df	8b 4d 08	 mov	 ecx, DWORD PTR __Whereptr$[ebp]
  000e2	2b c1		 sub	 eax, ecx

; 4066 :     _CSTD memmove(_Dest_ch, _First_ch, _Count);

  000e4	50		 push	 eax
; File C:\Program Files (x86)\Microsoft Visual Studio\2019\Community\VC\Tools\MSVC\14.29.30133\include\vector

; 784  :             _Umove(_Whereptr, _Mylast, _Newvec + _Whereoff + 1);

  000e5	8b 45 fc	 mov	 eax, DWORD PTR tv710[ebp]
; File C:\Program Files (x86)\Microsoft Visual Studio\2019\Community\VC\Tools\MSVC\14.29.30133\include\xutility

; 4066 :     _CSTD memmove(_Dest_ch, _First_ch, _Count);

  000e8	51		 push	 ecx
; File C:\Program Files (x86)\Microsoft Visual Studio\2019\Community\VC\Tools\MSVC\14.29.30133\include\vector

; 784  :             _Umove(_Whereptr, _Mylast, _Newvec + _Whereoff + 1);

  000e9	83 c0 04	 add	 eax, 4
; File C:\Program Files (x86)\Microsoft Visual Studio\2019\Community\VC\Tools\MSVC\14.29.30133\include\xutility

; 4066 :     _CSTD memmove(_Dest_ch, _First_ch, _Count);

  000ec	50		 push	 eax
  000ed	e8 00 00 00 00	 call	 _memmove
  000f2	83 c4 18	 add	 esp, 24			; 00000018H
$LN78@Emplace_re:
; File C:\Program Files (x86)\Microsoft Visual Studio\2019\Community\VC\Tools\MSVC\14.29.30133\include\vector

; 1732 :         if (_Myfirst) { // destroy and deallocate old array

  000f5	8b 07		 mov	 eax, DWORD PTR [edi]
  000f7	85 c0		 test	 eax, eax
  000f9	74 2c		 je	 SHORT $LN98@Emplace_re

; 1733 :             _Destroy(_Myfirst, _Mylast);
; 1734 :             _Getal().deallocate(_Myfirst, static_cast<size_type>(_Myend - _Myfirst));

  000fb	8b 4f 08	 mov	 ecx, DWORD PTR [edi+8]
  000fe	2b c8		 sub	 ecx, eax
; File C:\Program Files (x86)\Microsoft Visual Studio\2019\Community\VC\Tools\MSVC\14.29.30133\include\xmemory

; 797  :         _Deallocate<_New_alignof<_Ty>>(_Ptr, sizeof(_Ty) * _Count);

  00100	83 e1 fc	 and	 ecx, -4			; fffffffcH

; 251  :         if (_Bytes >= _Big_allocation_threshold) { // boost the alignment of big allocations to help autovectorization

  00103	81 f9 00 10 00
	00		 cmp	 ecx, 4096		; 00001000H
  00109	72 12		 jb	 SHORT $LN108@Emplace_re

; 150  :     const uintptr_t _Ptr_container   = _Ptr_user[-1];

  0010b	8b 50 fc	 mov	 edx, DWORD PTR [eax-4]
  0010e	83 c1 23	 add	 ecx, 35			; 00000023H

; 151  : 
; 152  :     // If the following asserts, it likely means that we are performing
; 153  :     // an aligned delete on memory coming from an unaligned allocation.
; 154  :     _STL_ASSERT(_Ptr_user[-2] == _Big_allocation_sentinel, "invalid argument");
; 155  : 
; 156  :     // Extra paranoia on aligned allocation/deallocation; ensure _Ptr_container is
; 157  :     // in range [_Min_back_shift, _Non_user_size]
; 158  : #ifdef _DEBUG
; 159  :     constexpr uintptr_t _Min_back_shift = 2 * sizeof(void*);
; 160  : #else // ^^^ _DEBUG ^^^ // vvv !_DEBUG vvv
; 161  :     constexpr uintptr_t _Min_back_shift = sizeof(void*);
; 162  : #endif // _DEBUG
; 163  :     const uintptr_t _Back_shift = reinterpret_cast<uintptr_t>(_Ptr) - _Ptr_container;

  00111	2b c2		 sub	 eax, edx

; 164  :     _STL_VERIFY(_Back_shift >= _Min_back_shift && _Back_shift <= _Non_user_size, "invalid argument");

  00113	83 c0 fc	 add	 eax, -4			; fffffffcH
  00116	83 f8 1f	 cmp	 eax, 31			; 0000001fH
  00119	77 29		 ja	 SHORT $LN105@Emplace_re

; 165  :     _Ptr = reinterpret_cast<void*>(_Ptr_container);

  0011b	8b c2		 mov	 eax, edx
$LN108@Emplace_re:

; 255  :         ::operator delete(_Ptr, _Bytes);

  0011d	51		 push	 ecx
  0011e	50		 push	 eax
  0011f	e8 00 00 00 00	 call	 ??3@YAXPAXI@Z		; operator delete
  00124	83 c4 08	 add	 esp, 8
$LN98@Emplace_re:
; File C:\Program Files (x86)\Microsoft Visual Studio\2019\Community\VC\Tools\MSVC\14.29.30133\include\vector

; 1738 :         _Mylast  = _Newvec + _Newsize;

  00127	8b 45 f8	 mov	 eax, DWORD PTR __Newsize$1$[ebp]
  0012a	89 37		 mov	 DWORD PTR [edi], esi
  0012c	8d 0c 86	 lea	 ecx, DWORD PTR [esi+eax*4]

; 785  :         }
; 786  :         _CATCH_ALL
; 787  :         _Destroy(_Constructed_first, _Constructed_last);
; 788  :         _Al.deallocate(_Newvec, _Newcapacity);
; 789  :         _RERAISE;
; 790  :         _CATCH_END
; 791  : 
; 792  :         _Change_array(_Newvec, _Newsize, _Newcapacity);
; 793  :         return _Newvec + _Whereoff;

  0012f	8b 45 fc	 mov	 eax, DWORD PTR tv710[ebp]

; 1738 :         _Mylast  = _Newvec + _Newsize;

  00132	89 4f 04	 mov	 DWORD PTR [edi+4], ecx

; 1739 :         _Myend   = _Newvec + _Newcapacity;

  00135	8d 0c 33	 lea	 ecx, DWORD PTR [ebx+esi]
  00138	89 4f 08	 mov	 DWORD PTR [edi+8], ecx

; 785  :         }
; 786  :         _CATCH_ALL
; 787  :         _Destroy(_Constructed_first, _Constructed_last);
; 788  :         _Al.deallocate(_Newvec, _Newcapacity);
; 789  :         _RERAISE;
; 790  :         _CATCH_END
; 791  : 
; 792  :         _Change_array(_Newvec, _Newsize, _Newcapacity);
; 793  :         return _Newvec + _Whereoff;

  0013b	5f		 pop	 edi
  0013c	5e		 pop	 esi
  0013d	5b		 pop	 ebx

; 794  :     }

  0013e	8b e5		 mov	 esp, ebp
  00140	5d		 pop	 ebp
  00141	c2 08 00	 ret	 8
$LN105@Emplace_re:
; File C:\Program Files (x86)\Microsoft Visual Studio\2019\Community\VC\Tools\MSVC\14.29.30133\include\xmemory

; 164  :     _STL_VERIFY(_Back_shift >= _Min_back_shift && _Back_shift <= _Non_user_size, "invalid argument");

  00144	ff 15 00 00 00
	00		 call	 DWORD PTR __imp___invalid_parameter_noinfo_noreturn
$LN114@Emplace_re:

; 131  :         _Throw_bad_array_new_length(); // add overflow

  0014a	e8 00 00 00 00	 call	 ?_Throw_bad_array_new_length@std@@YAXXZ ; std::_Throw_bad_array_new_length
$LN117@Emplace_re:
; File C:\Program Files (x86)\Microsoft Visual Studio\2019\Community\VC\Tools\MSVC\14.29.30133\include\vector

; 765  :             _Xlength();

  0014f	e8 00 00 00 00	 call	 ?_Xlength@?$vector@PAXV?$allocator@PAX@std@@@std@@CAXXZ ; std::vector<void *,std::allocator<void *> >::_Xlength
$LN115@Emplace_re:
  00154	cc		 int	 3
??$_Emplace_reallocate@ABQAX@?$vector@PAXV?$allocator@PAX@std@@@std@@QAEPAPAXQAPAXABQAX@Z ENDP ; std::vector<void *,std::allocator<void *> >::_Emplace_reallocate<void * const &>
_TEXT	ENDS
; Function compile flags: /Ogtp
; File C:\Program Files (x86)\Microsoft Visual Studio\2019\Community\VC\Tools\MSVC\14.29.30133\include\xtree
; File C:\Program Files (x86)\Microsoft Visual Studio\2019\Community\VC\Tools\MSVC\14.29.30133\include\utility
; File C:\Program Files (x86)\Microsoft Visual Studio\2019\Community\VC\Tools\MSVC\14.29.30133\include\xstring
; File C:\Program Files (x86)\Microsoft Visual Studio\2019\Community\VC\Tools\MSVC\14.29.30133\include\xmemory
; File C:\Program Files (x86)\Microsoft Visual Studio\2019\Community\VC\Tools\MSVC\14.29.30133\include\xstring
; File C:\Program Files (x86)\Microsoft Visual Studio\2019\Community\VC\Tools\MSVC\14.29.30133\include\xmemory
; File C:\Program Files (x86)\Microsoft Visual Studio\2019\Community\VC\Tools\MSVC\14.29.30133\include\xstring
; File C:\Program Files (x86)\Microsoft Visual Studio\2019\Community\VC\Tools\MSVC\14.29.30133\include\xmemory
; File C:\Program Files (x86)\Microsoft Visual Studio\2019\Community\VC\Tools\MSVC\14.29.30133\include\xtree
; File C:\Program Files (x86)\Microsoft Visual Studio\2019\Community\VC\Tools\MSVC\14.29.30133\include\xmemory
; File C:\Program Files (x86)\Microsoft Visual Studio\2019\Community\VC\Tools\MSVC\14.29.30133\include\xtree
;	COMDAT ??$_Erase_tree@V?$allocator@U?$_Tree_node@U?$pair@$$CBV?$basic_string@DU?$char_traits@D@std@@V?$allocator@D@2@@std@@H@std@@PAX@std@@@std@@@?$_Tree_val@U?$_Tree_simple_types@U?$pair@$$CBV?$basic_string@DU?$char_traits@D@std@@V?$allocator@D@2@@std@@H@std@@@std@@@std@@QAEXAAV?$allocator@U?$_Tree_node@U?$pair@$$CBV?$basic_string@DU?$char_traits@D@std@@V?$allocator@D@2@@std@@H@std@@PAX@std@@@1@PAU?$_Tree_node@U?$pair@$$CBV?$basic_string@DU?$char_traits@D@std@@V?$allocator@D@2@@std@@H@std@@PAX@1@@Z
_TEXT	SEGMENT
_this$1$ = -4						; size = 4
__Al$ = 8						; size = 4
__Rootnode$ = 12					; size = 4
??$_Erase_tree@V?$allocator@U?$_Tree_node@U?$pair@$$CBV?$basic_string@DU?$char_traits@D@std@@V?$allocator@D@2@@std@@H@std@@PAX@std@@@std@@@?$_Tree_val@U?$_Tree_simple_types@U?$pair@$$CBV?$basic_string@DU?$char_traits@D@std@@V?$allocator@D@2@@std@@H@std@@@std@@@std@@QAEXAAV?$allocator@U?$_Tree_node@U?$pair@$$CBV?$basic_string@DU?$char_traits@D@std@@V?$allocator@D@2@@std@@H@std@@PAX@std@@@1@PAU?$_Tree_node@U?$pair@$$CBV?$basic_string@DU?$char_traits@D@std@@V?$allocator@D@2@@std@@H@std@@PAX@1@@Z PROC ; std::_Tree_val<std::_Tree_simple_types<std::pair<std::basic_string<char,std::char_traits<char>,std::allocator<char> > const ,int> > >::_Erase_tree<std::allocator<std::_Tree_node<std::pair<std::basic_string<char,std::char_traits<char>,std::allocator<char> > const ,int>,void *> > >, COMDAT
; _this$ = ecx

; 742  :     void _Erase_tree(_Alnode& _Al, _Nodeptr _Rootnode) noexcept {

  00000	55		 push	 ebp
  00001	8b ec		 mov	 ebp, esp
  00003	51		 push	 ecx
  00004	57		 push	 edi

; 743  :         while (!_Rootnode->_Isnil) { // free subtrees, then node

  00005	8b 7d 0c	 mov	 edi, DWORD PTR __Rootnode$[ebp]
  00008	8b c1		 mov	 eax, ecx
  0000a	89 45 fc	 mov	 DWORD PTR _this$1$[ebp], eax
  0000d	80 7f 0d 00	 cmp	 BYTE PTR [edi+13], 0
  00011	75 74		 jne	 SHORT $LN73@Erase_tree
  00013	53		 push	 ebx
  00014	8b 5d 08	 mov	 ebx, DWORD PTR __Al$[ebp]
  00017	56		 push	 esi
$LL2@Erase_tree:

; 744  :             _Erase_tree(_Al, _Rootnode->_Right);

  00018	ff 77 08	 push	 DWORD PTR [edi+8]
  0001b	8b c8		 mov	 ecx, eax
  0001d	53		 push	 ebx
  0001e	e8 00 00 00 00	 call	 ??$_Erase_tree@V?$allocator@U?$_Tree_node@U?$pair@$$CBV?$basic_string@DU?$char_traits@D@std@@V?$allocator@D@2@@std@@H@std@@PAX@std@@@std@@@?$_Tree_val@U?$_Tree_simple_types@U?$pair@$$CBV?$basic_string@DU?$char_traits@D@std@@V?$allocator@D@2@@std@@H@std@@@std@@@std@@QAEXAAV?$allocator@U?$_Tree_node@U?$pair@$$CBV?$basic_string@DU?$char_traits@D@std@@V?$allocator@D@2@@std@@H@std@@PAX@std@@@1@PAU?$_Tree_node@U?$pair@$$CBV?$basic_string@DU?$char_traits@D@std@@V?$allocator@D@2@@std@@H@std@@PAX@1@@Z ; std::_Tree_val<std::_Tree_simple_types<std::pair<std::basic_string<char,std::char_traits<char>,std::allocator<char> > const ,int> > >::_Erase_tree<std::allocator<std::_Tree_node<std::pair<std::basic_string<char,std::char_traits<char>,std::allocator<char> > const ,int>,void *> > >
; File C:\Program Files (x86)\Microsoft Visual Studio\2019\Community\VC\Tools\MSVC\14.29.30133\include\utility

; 602  :     _Ty _Old_val = static_cast<_Ty&&>(_Val);

  00023	8b f7		 mov	 esi, edi

; 603  :     _Val         = static_cast<_Other&&>(_New_val);

  00025	8b 3f		 mov	 edi, DWORD PTR [edi]
; File C:\Program Files (x86)\Microsoft Visual Studio\2019\Community\VC\Tools\MSVC\14.29.30133\include\xstring

; 2286 :         return _BUF_SIZE <= _Myres;

  00027	8b 4e 24	 mov	 ecx, DWORD PTR [esi+36]
  0002a	83 f9 10	 cmp	 ecx, 16			; 00000010H

; 4584 :         if (_Mypair._Myval2._Large_string_engaged()) {

  0002d	72 28		 jb	 SHORT $LN29@Erase_tree
; File C:\Program Files (x86)\Microsoft Visual Studio\2019\Community\VC\Tools\MSVC\14.29.30133\include\xmemory

; 797  :         _Deallocate<_New_alignof<_Ty>>(_Ptr, sizeof(_Ty) * _Count);

  0002f	8b 46 10	 mov	 eax, DWORD PTR [esi+16]
; File C:\Program Files (x86)\Microsoft Visual Studio\2019\Community\VC\Tools\MSVC\14.29.30133\include\xstring

; 4588 :             _Al.deallocate(_Ptr, _Mypair._Myval2._Myres + 1);

  00032	41		 inc	 ecx
; File C:\Program Files (x86)\Microsoft Visual Studio\2019\Community\VC\Tools\MSVC\14.29.30133\include\xmemory

; 251  :         if (_Bytes >= _Big_allocation_threshold) { // boost the alignment of big allocations to help autovectorization

  00033	81 f9 00 10 00
	00		 cmp	 ecx, 4096		; 00001000H
  00039	72 12		 jb	 SHORT $LN39@Erase_tree

; 150  :     const uintptr_t _Ptr_container   = _Ptr_user[-1];

  0003b	8b 50 fc	 mov	 edx, DWORD PTR [eax-4]
  0003e	83 c1 23	 add	 ecx, 35			; 00000023H

; 151  : 
; 152  :     // If the following asserts, it likely means that we are performing
; 153  :     // an aligned delete on memory coming from an unaligned allocation.
; 154  :     _STL_ASSERT(_Ptr_user[-2] == _Big_allocation_sentinel, "invalid argument");
; 155  : 
; 156  :     // Extra paranoia on aligned allocation/deallocation; ensure _Ptr_container is
; 157  :     // in range [_Min_back_shift, _Non_user_size]
; 158  : #ifdef _DEBUG
; 159  :     constexpr uintptr_t _Min_back_shift = 2 * sizeof(void*);
; 160  : #else // ^^^ _DEBUG ^^^ // vvv !_DEBUG vvv
; 161  :     constexpr uintptr_t _Min_back_shift = sizeof(void*);
; 162  : #endif // _DEBUG
; 163  :     const uintptr_t _Back_shift = reinterpret_cast<uintptr_t>(_Ptr) - _Ptr_container;

  00041	2b c2		 sub	 eax, edx

; 164  :     _STL_VERIFY(_Back_shift >= _Min_back_shift && _Back_shift <= _Non_user_size, "invalid argument");

  00043	83 c0 fc	 add	 eax, -4			; fffffffcH
  00046	83 f8 1f	 cmp	 eax, 31			; 0000001fH
  00049	77 34		 ja	 SHORT $LN36@Erase_tree

; 165  :     _Ptr = reinterpret_cast<void*>(_Ptr_container);

  0004b	8b c2		 mov	 eax, edx
$LN39@Erase_tree:

; 255  :         ::operator delete(_Ptr, _Bytes);

  0004d	51		 push	 ecx
  0004e	50		 push	 eax
  0004f	e8 00 00 00 00	 call	 ??3@YAXPAXI@Z		; operator delete
  00054	83 c4 08	 add	 esp, 8
$LN29@Erase_tree:
  00057	6a 2c		 push	 44			; 0000002cH
  00059	56		 push	 esi
; File C:\Program Files (x86)\Microsoft Visual Studio\2019\Community\VC\Tools\MSVC\14.29.30133\include\xstring

; 4599 :             _Mypair._Myval2._Mysize = 0;

  0005a	c7 46 20 00 00
	00 00		 mov	 DWORD PTR [esi+32], 0

; 4600 :             _Mypair._Myval2._Myres  = _BUF_SIZE - 1;

  00061	c7 46 24 0f 00
	00 00		 mov	 DWORD PTR [esi+36], 15	; 0000000fH

; 4601 :             // the _Traits::assign is last so the codegen doesn't think the char write can alias this
; 4602 :             _Traits::assign(_Mypair._Myval2._Bx._Buf[0], _Elem());

  00068	c6 46 10 00	 mov	 BYTE PTR [esi+16], 0
; File C:\Program Files (x86)\Microsoft Visual Studio\2019\Community\VC\Tools\MSVC\14.29.30133\include\xmemory

; 255  :         ::operator delete(_Ptr, _Bytes);

  0006c	e8 00 00 00 00	 call	 ??3@YAXPAXI@Z		; operator delete
  00071	83 c4 08	 add	 esp, 8
; File C:\Program Files (x86)\Microsoft Visual Studio\2019\Community\VC\Tools\MSVC\14.29.30133\include\xtree

; 743  :         while (!_Rootnode->_Isnil) { // free subtrees, then node

  00074	80 7f 0d 00	 cmp	 BYTE PTR [edi+13], 0
  00078	75 0b		 jne	 SHORT $LN75@Erase_tree
  0007a	8b 45 fc	 mov	 eax, DWORD PTR _this$1$[ebp]
  0007d	eb 99		 jmp	 SHORT $LL2@Erase_tree
$LN36@Erase_tree:
; File C:\Program Files (x86)\Microsoft Visual Studio\2019\Community\VC\Tools\MSVC\14.29.30133\include\xmemory

; 164  :     _STL_VERIFY(_Back_shift >= _Min_back_shift && _Back_shift <= _Non_user_size, "invalid argument");

  0007f	ff 15 00 00 00
	00		 call	 DWORD PTR __imp___invalid_parameter_noinfo_noreturn
$LN75@Erase_tree:
  00085	5e		 pop	 esi
  00086	5b		 pop	 ebx
$LN73@Erase_tree:
  00087	5f		 pop	 edi
; File C:\Program Files (x86)\Microsoft Visual Studio\2019\Community\VC\Tools\MSVC\14.29.30133\include\xtree

; 747  :     }

  00088	8b e5		 mov	 esp, ebp
  0008a	5d		 pop	 ebp
  0008b	c2 08 00	 ret	 8
$LN76@Erase_tree:
??$_Erase_tree@V?$allocator@U?$_Tree_node@U?$pair@$$CBV?$basic_string@DU?$char_traits@D@std@@V?$allocator@D@2@@std@@H@std@@PAX@std@@@std@@@?$_Tree_val@U?$_Tree_simple_types@U?$pair@$$CBV?$basic_string@DU?$char_traits@D@std@@V?$allocator@D@2@@std@@H@std@@@std@@@std@@QAEXAAV?$allocator@U?$_Tree_node@U?$pair@$$CBV?$basic_string@DU?$char_traits@D@std@@V?$allocator@D@2@@std@@H@std@@PAX@std@@@1@PAU?$_Tree_node@U?$pair@$$CBV?$basic_string@DU?$char_traits@D@std@@V?$allocator@D@2@@std@@H@std@@PAX@1@@Z ENDP ; std::_Tree_val<std::_Tree_simple_types<std::pair<std::basic_string<char,std::char_traits<char>,std::allocator<char> > const ,int> > >::_Erase_tree<std::allocator<std::_Tree_node<std::pair<std::basic_string<char,std::char_traits<char>,std::allocator<char> > const ,int>,void *> > >
_TEXT	ENDS
; Function compile flags: /Ogtp
; File C:\Program Files (x86)\Microsoft Visual Studio\2019\Community\VC\Tools\MSVC\14.29.30133\include\xtree
; File C:\Program Files (x86)\Microsoft Visual Studio\2019\Community\VC\Tools\MSVC\14.29.30133\include\utility
; File C:\Program Files (x86)\Microsoft Visual Studio\2019\Community\VC\Tools\MSVC\14.29.30133\include\xstring
; File C:\Program Files (x86)\Microsoft Visual Studio\2019\Community\VC\Tools\MSVC\14.29.30133\include\xmemory
; File C:\Program Files (x86)\Microsoft Visual Studio\2019\Community\VC\Tools\MSVC\14.29.30133\include\xstring
; File C:\Program Files (x86)\Microsoft Visual Studio\2019\Community\VC\Tools\MSVC\14.29.30133\include\xmemory
; File C:\Program Files (x86)\Microsoft Visual Studio\2019\Community\VC\Tools\MSVC\14.29.30133\include\xstring
; File C:\Program Files (x86)\Microsoft Visual Studio\2019\Community\VC\Tools\MSVC\14.29.30133\include\xmemory
; File C:\Program Files (x86)\Microsoft Visual Studio\2019\Community\VC\Tools\MSVC\14.29.30133\include\xtree
; File C:\Program Files (x86)\Microsoft Visual Studio\2019\Community\VC\Tools\MSVC\14.29.30133\include\xmemory
; File C:\Program Files (x86)\Microsoft Visual Studio\2019\Community\VC\Tools\MSVC\14.29.30133\include\xtree
;	COMDAT ??$_Erase_tree@V?$allocator@U?$_Tree_node@U?$pair@$$CBV?$basic_string@DU?$char_traits@D@std@@V?$allocator@D@2@@std@@PAUVERTBOX_INFO@CXScaleManagerImp@@@std@@PAX@std@@@std@@@?$_Tree_val@U?$_Tree_simple_types@U?$pair@$$CBV?$basic_string@DU?$char_traits@D@std@@V?$allocator@D@2@@std@@PAUVERTBOX_INFO@CXScaleManagerImp@@@std@@@std@@@std@@QAEXAAV?$allocator@U?$_Tree_node@U?$pair@$$CBV?$basic_string@DU?$char_traits@D@std@@V?$allocator@D@2@@std@@PAUVERTBOX_INFO@CXScaleManagerImp@@@std@@PAX@std@@@1@PAU?$_Tree_node@U?$pair@$$CBV?$basic_string@DU?$char_traits@D@std@@V?$allocator@D@2@@std@@PAUVERTBOX_INFO@CXScaleManagerImp@@@std@@PAX@1@@Z
_TEXT	SEGMENT
_this$1$ = -4						; size = 4
__Al$ = 8						; size = 4
__Rootnode$ = 12					; size = 4
??$_Erase_tree@V?$allocator@U?$_Tree_node@U?$pair@$$CBV?$basic_string@DU?$char_traits@D@std@@V?$allocator@D@2@@std@@PAUVERTBOX_INFO@CXScaleManagerImp@@@std@@PAX@std@@@std@@@?$_Tree_val@U?$_Tree_simple_types@U?$pair@$$CBV?$basic_string@DU?$char_traits@D@std@@V?$allocator@D@2@@std@@PAUVERTBOX_INFO@CXScaleManagerImp@@@std@@@std@@@std@@QAEXAAV?$allocator@U?$_Tree_node@U?$pair@$$CBV?$basic_string@DU?$char_traits@D@std@@V?$allocator@D@2@@std@@PAUVERTBOX_INFO@CXScaleManagerImp@@@std@@PAX@std@@@1@PAU?$_Tree_node@U?$pair@$$CBV?$basic_string@DU?$char_traits@D@std@@V?$allocator@D@2@@std@@PAUVERTBOX_INFO@CXScaleManagerImp@@@std@@PAX@1@@Z PROC ; std::_Tree_val<std::_Tree_simple_types<std::pair<std::basic_string<char,std::char_traits<char>,std::allocator<char> > const ,CXScaleManagerImp::VERTBOX_INFO *> > >::_Erase_tree<std::allocator<std::_Tree_node<std::pair<std::basic_string<char,std::char_traits<char>,std::allocator<char> > const ,CXScaleManagerImp::VERTBOX_INFO *>,void *> > >, COMDAT
; _this$ = ecx

; 742  :     void _Erase_tree(_Alnode& _Al, _Nodeptr _Rootnode) noexcept {

  00000	55		 push	 ebp
  00001	8b ec		 mov	 ebp, esp
  00003	51		 push	 ecx
  00004	57		 push	 edi

; 743  :         while (!_Rootnode->_Isnil) { // free subtrees, then node

  00005	8b 7d 0c	 mov	 edi, DWORD PTR __Rootnode$[ebp]
  00008	8b c1		 mov	 eax, ecx
  0000a	89 45 fc	 mov	 DWORD PTR _this$1$[ebp], eax
  0000d	80 7f 0d 00	 cmp	 BYTE PTR [edi+13], 0
  00011	75 74		 jne	 SHORT $LN73@Erase_tree
  00013	53		 push	 ebx
  00014	8b 5d 08	 mov	 ebx, DWORD PTR __Al$[ebp]
  00017	56		 push	 esi
$LL2@Erase_tree:

; 744  :             _Erase_tree(_Al, _Rootnode->_Right);

  00018	ff 77 08	 push	 DWORD PTR [edi+8]
  0001b	8b c8		 mov	 ecx, eax
  0001d	53		 push	 ebx
  0001e	e8 00 00 00 00	 call	 ??$_Erase_tree@V?$allocator@U?$_Tree_node@U?$pair@$$CBV?$basic_string@DU?$char_traits@D@std@@V?$allocator@D@2@@std@@PAUVERTBOX_INFO@CXScaleManagerImp@@@std@@PAX@std@@@std@@@?$_Tree_val@U?$_Tree_simple_types@U?$pair@$$CBV?$basic_string@DU?$char_traits@D@std@@V?$allocator@D@2@@std@@PAUVERTBOX_INFO@CXScaleManagerImp@@@std@@@std@@@std@@QAEXAAV?$allocator@U?$_Tree_node@U?$pair@$$CBV?$basic_string@DU?$char_traits@D@std@@V?$allocator@D@2@@std@@PAUVERTBOX_INFO@CXScaleManagerImp@@@std@@PAX@std@@@1@PAU?$_Tree_node@U?$pair@$$CBV?$basic_string@DU?$char_traits@D@std@@V?$allocator@D@2@@std@@PAUVERTBOX_INFO@CXScaleManagerImp@@@std@@PAX@1@@Z ; std::_Tree_val<std::_Tree_simple_types<std::pair<std::basic_string<char,std::char_traits<char>,std::allocator<char> > const ,CXScaleManagerImp::VERTBOX_INFO *> > >::_Erase_tree<std::allocator<std::_Tree_node<std::pair<std::basic_string<char,std::char_traits<char>,std::allocator<char> > const ,CXScaleManagerImp::VERTBOX_INFO *>,void *> > >
; File C:\Program Files (x86)\Microsoft Visual Studio\2019\Community\VC\Tools\MSVC\14.29.30133\include\utility

; 602  :     _Ty _Old_val = static_cast<_Ty&&>(_Val);

  00023	8b f7		 mov	 esi, edi

; 603  :     _Val         = static_cast<_Other&&>(_New_val);

  00025	8b 3f		 mov	 edi, DWORD PTR [edi]
; File C:\Program Files (x86)\Microsoft Visual Studio\2019\Community\VC\Tools\MSVC\14.29.30133\include\xstring

; 2286 :         return _BUF_SIZE <= _Myres;

  00027	8b 4e 24	 mov	 ecx, DWORD PTR [esi+36]
  0002a	83 f9 10	 cmp	 ecx, 16			; 00000010H

; 4584 :         if (_Mypair._Myval2._Large_string_engaged()) {

  0002d	72 28		 jb	 SHORT $LN29@Erase_tree
; File C:\Program Files (x86)\Microsoft Visual Studio\2019\Community\VC\Tools\MSVC\14.29.30133\include\xmemory

; 797  :         _Deallocate<_New_alignof<_Ty>>(_Ptr, sizeof(_Ty) * _Count);

  0002f	8b 46 10	 mov	 eax, DWORD PTR [esi+16]
; File C:\Program Files (x86)\Microsoft Visual Studio\2019\Community\VC\Tools\MSVC\14.29.30133\include\xstring

; 4588 :             _Al.deallocate(_Ptr, _Mypair._Myval2._Myres + 1);

  00032	41		 inc	 ecx
; File C:\Program Files (x86)\Microsoft Visual Studio\2019\Community\VC\Tools\MSVC\14.29.30133\include\xmemory

; 251  :         if (_Bytes >= _Big_allocation_threshold) { // boost the alignment of big allocations to help autovectorization

  00033	81 f9 00 10 00
	00		 cmp	 ecx, 4096		; 00001000H
  00039	72 12		 jb	 SHORT $LN39@Erase_tree

; 150  :     const uintptr_t _Ptr_container   = _Ptr_user[-1];

  0003b	8b 50 fc	 mov	 edx, DWORD PTR [eax-4]
  0003e	83 c1 23	 add	 ecx, 35			; 00000023H

; 151  : 
; 152  :     // If the following asserts, it likely means that we are performing
; 153  :     // an aligned delete on memory coming from an unaligned allocation.
; 154  :     _STL_ASSERT(_Ptr_user[-2] == _Big_allocation_sentinel, "invalid argument");
; 155  : 
; 156  :     // Extra paranoia on aligned allocation/deallocation; ensure _Ptr_container is
; 157  :     // in range [_Min_back_shift, _Non_user_size]
; 158  : #ifdef _DEBUG
; 159  :     constexpr uintptr_t _Min_back_shift = 2 * sizeof(void*);
; 160  : #else // ^^^ _DEBUG ^^^ // vvv !_DEBUG vvv
; 161  :     constexpr uintptr_t _Min_back_shift = sizeof(void*);
; 162  : #endif // _DEBUG
; 163  :     const uintptr_t _Back_shift = reinterpret_cast<uintptr_t>(_Ptr) - _Ptr_container;

  00041	2b c2		 sub	 eax, edx

; 164  :     _STL_VERIFY(_Back_shift >= _Min_back_shift && _Back_shift <= _Non_user_size, "invalid argument");

  00043	83 c0 fc	 add	 eax, -4			; fffffffcH
  00046	83 f8 1f	 cmp	 eax, 31			; 0000001fH
  00049	77 34		 ja	 SHORT $LN36@Erase_tree

; 165  :     _Ptr = reinterpret_cast<void*>(_Ptr_container);

  0004b	8b c2		 mov	 eax, edx
$LN39@Erase_tree:

; 255  :         ::operator delete(_Ptr, _Bytes);

  0004d	51		 push	 ecx
  0004e	50		 push	 eax
  0004f	e8 00 00 00 00	 call	 ??3@YAXPAXI@Z		; operator delete
  00054	83 c4 08	 add	 esp, 8
$LN29@Erase_tree:
  00057	6a 2c		 push	 44			; 0000002cH
  00059	56		 push	 esi
; File C:\Program Files (x86)\Microsoft Visual Studio\2019\Community\VC\Tools\MSVC\14.29.30133\include\xstring

; 4599 :             _Mypair._Myval2._Mysize = 0;

  0005a	c7 46 20 00 00
	00 00		 mov	 DWORD PTR [esi+32], 0

; 4600 :             _Mypair._Myval2._Myres  = _BUF_SIZE - 1;

  00061	c7 46 24 0f 00
	00 00		 mov	 DWORD PTR [esi+36], 15	; 0000000fH

; 4601 :             // the _Traits::assign is last so the codegen doesn't think the char write can alias this
; 4602 :             _Traits::assign(_Mypair._Myval2._Bx._Buf[0], _Elem());

  00068	c6 46 10 00	 mov	 BYTE PTR [esi+16], 0
; File C:\Program Files (x86)\Microsoft Visual Studio\2019\Community\VC\Tools\MSVC\14.29.30133\include\xmemory

; 255  :         ::operator delete(_Ptr, _Bytes);

  0006c	e8 00 00 00 00	 call	 ??3@YAXPAXI@Z		; operator delete
  00071	83 c4 08	 add	 esp, 8
; File C:\Program Files (x86)\Microsoft Visual Studio\2019\Community\VC\Tools\MSVC\14.29.30133\include\xtree

; 743  :         while (!_Rootnode->_Isnil) { // free subtrees, then node

  00074	80 7f 0d 00	 cmp	 BYTE PTR [edi+13], 0
  00078	75 0b		 jne	 SHORT $LN75@Erase_tree
  0007a	8b 45 fc	 mov	 eax, DWORD PTR _this$1$[ebp]
  0007d	eb 99		 jmp	 SHORT $LL2@Erase_tree
$LN36@Erase_tree:
; File C:\Program Files (x86)\Microsoft Visual Studio\2019\Community\VC\Tools\MSVC\14.29.30133\include\xmemory

; 164  :     _STL_VERIFY(_Back_shift >= _Min_back_shift && _Back_shift <= _Non_user_size, "invalid argument");

  0007f	ff 15 00 00 00
	00		 call	 DWORD PTR __imp___invalid_parameter_noinfo_noreturn
$LN75@Erase_tree:
  00085	5e		 pop	 esi
  00086	5b		 pop	 ebx
$LN73@Erase_tree:
  00087	5f		 pop	 edi
; File C:\Program Files (x86)\Microsoft Visual Studio\2019\Community\VC\Tools\MSVC\14.29.30133\include\xtree

; 747  :     }

  00088	8b e5		 mov	 esp, ebp
  0008a	5d		 pop	 ebp
  0008b	c2 08 00	 ret	 8
$LN76@Erase_tree:
??$_Erase_tree@V?$allocator@U?$_Tree_node@U?$pair@$$CBV?$basic_string@DU?$char_traits@D@std@@V?$allocator@D@2@@std@@PAUVERTBOX_INFO@CXScaleManagerImp@@@std@@PAX@std@@@std@@@?$_Tree_val@U?$_Tree_simple_types@U?$pair@$$CBV?$basic_string@DU?$char_traits@D@std@@V?$allocator@D@2@@std@@PAUVERTBOX_INFO@CXScaleManagerImp@@@std@@@std@@@std@@QAEXAAV?$allocator@U?$_Tree_node@U?$pair@$$CBV?$basic_string@DU?$char_traits@D@std@@V?$allocator@D@2@@std@@PAUVERTBOX_INFO@CXScaleManagerImp@@@std@@PAX@std@@@1@PAU?$_Tree_node@U?$pair@$$CBV?$basic_string@DU?$char_traits@D@std@@V?$allocator@D@2@@std@@PAUVERTBOX_INFO@CXScaleManagerImp@@@std@@PAX@1@@Z ENDP ; std::_Tree_val<std::_Tree_simple_types<std::pair<std::basic_string<char,std::char_traits<char>,std::allocator<char> > const ,CXScaleManagerImp::VERTBOX_INFO *> > >::_Erase_tree<std::allocator<std::_Tree_node<std::pair<std::basic_string<char,std::char_traits<char>,std::allocator<char> > const ,CXScaleManagerImp::VERTBOX_INFO *>,void *> > >
_TEXT	ENDS
; Function compile flags: /Ogtp
; File C:\Program Files (x86)\Microsoft Visual Studio\2019\Community\VC\Tools\MSVC\14.29.30133\include\xstring
; File C:\Program Files (x86)\Microsoft Visual Studio\2019\Community\VC\Tools\MSVC\14.29.30133\include\xmemory
; File C:\Program Files (x86)\Microsoft Visual Studio\2019\Community\VC\Tools\MSVC\14.29.30133\include\xstring
; File C:\Program Files (x86)\Microsoft Visual Studio\2019\Community\VC\Tools\MSVC\14.29.30133\include\xmemory
; File C:\Program Files (x86)\Microsoft Visual Studio\2019\Community\VC\Tools\MSVC\14.29.30133\include\xstring
; File C:\Program Files (x86)\Microsoft Visual Studio\2019\Community\VC\Tools\MSVC\14.29.30133\include\xmemory
;	COMDAT ??1?$pair@V?$basic_string@DU?$char_traits@D@std@@V?$allocator@D@2@@std@@PAUVERTBOX_INFO@CXScaleManagerImp@@@std@@QAE@XZ
_TEXT	SEGMENT
??1?$pair@V?$basic_string@DU?$char_traits@D@std@@V?$allocator@D@2@@std@@PAUVERTBOX_INFO@CXScaleManagerImp@@@std@@QAE@XZ PROC ; std::pair<std::basic_string<char,std::char_traits<char>,std::allocator<char> >,CXScaleManagerImp::VERTBOX_INFO *>::~pair<std::basic_string<char,std::char_traits<char>,std::allocator<char> >,CXScaleManagerImp::VERTBOX_INFO *>, COMDAT
; _this$ = ecx
; File C:\Program Files (x86)\Microsoft Visual Studio\2019\Community\VC\Tools\MSVC\14.29.30133\include\xstring

; 2286 :         return _BUF_SIZE <= _Myres;

  00000	56		 push	 esi
  00001	8b f1		 mov	 esi, ecx
  00003	8b 4e 14	 mov	 ecx, DWORD PTR [esi+20]
  00006	83 f9 10	 cmp	 ecx, 16			; 00000010H

; 4584 :         if (_Mypair._Myval2._Large_string_engaged()) {

  00009	72 27		 jb	 SHORT $LN15@pair
; File C:\Program Files (x86)\Microsoft Visual Studio\2019\Community\VC\Tools\MSVC\14.29.30133\include\xmemory

; 797  :         _Deallocate<_New_alignof<_Ty>>(_Ptr, sizeof(_Ty) * _Count);

  0000b	8b 06		 mov	 eax, DWORD PTR [esi]
; File C:\Program Files (x86)\Microsoft Visual Studio\2019\Community\VC\Tools\MSVC\14.29.30133\include\xstring

; 4588 :             _Al.deallocate(_Ptr, _Mypair._Myval2._Myres + 1);

  0000d	41		 inc	 ecx
; File C:\Program Files (x86)\Microsoft Visual Studio\2019\Community\VC\Tools\MSVC\14.29.30133\include\xmemory

; 251  :         if (_Bytes >= _Big_allocation_threshold) { // boost the alignment of big allocations to help autovectorization

  0000e	81 f9 00 10 00
	00		 cmp	 ecx, 4096		; 00001000H
  00014	72 12		 jb	 SHORT $LN25@pair

; 150  :     const uintptr_t _Ptr_container   = _Ptr_user[-1];

  00016	8b 50 fc	 mov	 edx, DWORD PTR [eax-4]
  00019	83 c1 23	 add	 ecx, 35			; 00000023H

; 151  : 
; 152  :     // If the following asserts, it likely means that we are performing
; 153  :     // an aligned delete on memory coming from an unaligned allocation.
; 154  :     _STL_ASSERT(_Ptr_user[-2] == _Big_allocation_sentinel, "invalid argument");
; 155  : 
; 156  :     // Extra paranoia on aligned allocation/deallocation; ensure _Ptr_container is
; 157  :     // in range [_Min_back_shift, _Non_user_size]
; 158  : #ifdef _DEBUG
; 159  :     constexpr uintptr_t _Min_back_shift = 2 * sizeof(void*);
; 160  : #else // ^^^ _DEBUG ^^^ // vvv !_DEBUG vvv
; 161  :     constexpr uintptr_t _Min_back_shift = sizeof(void*);
; 162  : #endif // _DEBUG
; 163  :     const uintptr_t _Back_shift = reinterpret_cast<uintptr_t>(_Ptr) - _Ptr_container;

  0001c	2b c2		 sub	 eax, edx

; 164  :     _STL_VERIFY(_Back_shift >= _Min_back_shift && _Back_shift <= _Non_user_size, "invalid argument");

  0001e	83 c0 fc	 add	 eax, -4			; fffffffcH
  00021	83 f8 1f	 cmp	 eax, 31			; 0000001fH
  00024	77 1f		 ja	 SHORT $LN22@pair

; 165  :     _Ptr = reinterpret_cast<void*>(_Ptr_container);

  00026	8b c2		 mov	 eax, edx
$LN25@pair:

; 255  :         ::operator delete(_Ptr, _Bytes);

  00028	51		 push	 ecx
  00029	50		 push	 eax
  0002a	e8 00 00 00 00	 call	 ??3@YAXPAXI@Z		; operator delete
  0002f	83 c4 08	 add	 esp, 8
$LN15@pair:
; File C:\Program Files (x86)\Microsoft Visual Studio\2019\Community\VC\Tools\MSVC\14.29.30133\include\xstring

; 4599 :             _Mypair._Myval2._Mysize = 0;

  00032	c7 46 10 00 00
	00 00		 mov	 DWORD PTR [esi+16], 0

; 4600 :             _Mypair._Myval2._Myres  = _BUF_SIZE - 1;

  00039	c7 46 14 0f 00
	00 00		 mov	 DWORD PTR [esi+20], 15	; 0000000fH

; 4601 :             // the _Traits::assign is last so the codegen doesn't think the char write can alias this
; 4602 :             _Traits::assign(_Mypair._Myval2._Bx._Buf[0], _Elem());

  00040	c6 06 00	 mov	 BYTE PTR [esi], 0
  00043	5e		 pop	 esi
  00044	c3		 ret	 0
$LN22@pair:
; File C:\Program Files (x86)\Microsoft Visual Studio\2019\Community\VC\Tools\MSVC\14.29.30133\include\xmemory

; 164  :     _STL_VERIFY(_Back_shift >= _Min_back_shift && _Back_shift <= _Non_user_size, "invalid argument");

  00045	ff 15 00 00 00
	00		 call	 DWORD PTR __imp___invalid_parameter_noinfo_noreturn
$LN31@pair:
  0004b	cc		 int	 3
??1?$pair@V?$basic_string@DU?$char_traits@D@std@@V?$allocator@D@2@@std@@PAUVERTBOX_INFO@CXScaleManagerImp@@@std@@QAE@XZ ENDP ; std::pair<std::basic_string<char,std::char_traits<char>,std::allocator<char> >,CXScaleManagerImp::VERTBOX_INFO *>::~pair<std::basic_string<char,std::char_traits<char>,std::allocator<char> >,CXScaleManagerImp::VERTBOX_INFO *>
_TEXT	ENDS
; Function compile flags: /Ogtp
; File C:\Program Files (x86)\Microsoft Visual Studio\2019\Community\VC\Tools\MSVC\14.29.30133\atlmfc\include\afxtempl.h
;	COMDAT ?SetAtGrow@?$CArray@HH@@QAEXHH@Z
_TEXT	SEGMENT
_nIndex$ = 8						; size = 4
_newElement$ = 12					; size = 4
?SetAtGrow@?$CArray@HH@@QAEXHH@Z PROC			; CArray<int,int>::SetAtGrow, COMDAT
; _this$ = ecx

; 534  : {

  00000	55		 push	 ebp
  00001	8b ec		 mov	 ebp, esp
  00003	56		 push	 esi

; 535  : 	ASSERT_VALID(this);
; 536  : 	ASSERT(nIndex >= 0);
; 537  : 
; 538  : 	if(nIndex < 0)

  00004	8b 75 08	 mov	 esi, DWORD PTR _nIndex$[ebp]
  00007	57		 push	 edi
  00008	8b f9		 mov	 edi, ecx
  0000a	85 f6		 test	 esi, esi
  0000c	78 1f		 js	 SHORT $LN7@SetAtGrow

; 540  : 
; 541  : 	if (nIndex >= m_nSize)

  0000e	3b 77 08	 cmp	 esi, DWORD PTR [edi+8]
  00011	7c 0b		 jl	 SHORT $LN3@SetAtGrow

; 542  : 		SetSize(nIndex+1, -1);

  00013	6a ff		 push	 -1
  00015	8d 46 01	 lea	 eax, DWORD PTR [esi+1]
  00018	50		 push	 eax
  00019	e8 00 00 00 00	 call	 ?SetSize@?$CArray@HH@@QAEXHH@Z ; CArray<int,int>::SetSize
$LN3@SetAtGrow:

; 543  : 	m_pData[nIndex] = newElement;

  0001e	8b 4f 04	 mov	 ecx, DWORD PTR [edi+4]
  00021	8b 45 0c	 mov	 eax, DWORD PTR _newElement$[ebp]
  00024	5f		 pop	 edi
  00025	89 04 b1	 mov	 DWORD PTR [ecx+esi*4], eax
  00028	5e		 pop	 esi

; 544  : }

  00029	5d		 pop	 ebp
  0002a	c2 08 00	 ret	 8
$LN7@SetAtGrow:

; 539  : 		AfxThrowInvalidArgException();

  0002d	e8 00 00 00 00	 call	 ?AfxThrowInvalidArgException@@YGXXZ ; AfxThrowInvalidArgException
$LN5@SetAtGrow:
  00032	cc		 int	 3
?SetAtGrow@?$CArray@HH@@QAEXHH@Z ENDP			; CArray<int,int>::SetAtGrow
_TEXT	ENDS
; Function compile flags: /Ogtp
; File C:\Program Files (x86)\Microsoft Visual Studio\2019\Community\VC\Tools\MSVC\14.29.30133\atlmfc\include\afxtempl.h
; File C:\Program Files (x86)\Windows Kits\10\Include\10.0.22000.0\ucrt\corecrt_memcpy_s.h
; File C:\Program Files (x86)\Microsoft Visual Studio\2019\Community\VC\Tools\MSVC\14.29.30133\atlmfc\include\afxtempl.h
; File C:\Program Files (x86)\Windows Kits\10\Include\10.0.22000.0\ucrt\corecrt_memcpy_s.h
; File C:\Program Files (x86)\Microsoft Visual Studio\2019\Community\VC\Tools\MSVC\14.29.30133\atlmfc\include\afx.h
; File C:\Program Files (x86)\Microsoft Visual Studio\2019\Community\VC\Tools\MSVC\14.29.30133\atlmfc\include\afxtempl.h
;	COMDAT ?SetSize@?$CArray@HH@@QAEXHH@Z
_TEXT	SEGMENT
__N$1$ = -8						; size = 4
__S1max$1$ = -4						; size = 4
__S2$1$ = 8						; size = 4
_nNewSize$ = 8						; size = 4
_pNewData$1$ = 12					; size = 4
_nGrowBy$ = 12						; size = 4
?SetSize@?$CArray@HH@@QAEXHH@Z PROC			; CArray<int,int>::SetSize, COMDAT
; _this$ = ecx

; 368  : {

  00000	55		 push	 ebp
  00001	8b ec		 mov	 ebp, esp
  00003	83 ec 08	 sub	 esp, 8
  00006	53		 push	 ebx
  00007	56		 push	 esi

; 369  : 	ASSERT_VALID(this);
; 370  : 	ASSERT(nNewSize >= 0);
; 371  : 
; 372  : 	if(nNewSize < 0 )

  00008	8b 75 08	 mov	 esi, DWORD PTR _nNewSize$[ebp]
  0000b	8b d9		 mov	 ebx, ecx
  0000d	57		 push	 edi
  0000e	85 f6		 test	 esi, esi
  00010	0f 88 9a 01 00
	00		 js	 $LN56@SetSize

; 373  : 		AfxThrowInvalidArgException();
; 374  : 
; 375  : 	if (nGrowBy >= 0)

  00016	8b 45 0c	 mov	 eax, DWORD PTR _nGrowBy$[ebp]
  00019	85 c0		 test	 eax, eax
  0001b	78 03		 js	 SHORT $LN82@SetSize

; 376  : 		m_nGrowBy = nGrowBy;  // set new size

  0001d	89 43 10	 mov	 DWORD PTR [ebx+16], eax
$LN82@SetSize:

; 377  : 
; 378  : 	if (nNewSize == 0)

  00020	8b 4b 04	 mov	 ecx, DWORD PTR [ebx+4]
  00023	85 f6		 test	 esi, esi
  00025	75 27		 jne	 SHORT $LN19@SetSize

; 379  : 	{
; 380  : 		// shrink to nothing
; 381  : 		if (m_pData != NULL)

  00027	85 c9		 test	 ecx, ecx
  00029	74 0c		 je	 SHORT $LN21@SetSize

; 382  : 		{
; 383  : 			for( int i = 0; i < m_nSize; i++ )
; 384  : 				(m_pData + i)->~TYPE();
; 385  : 			delete[] (BYTE*)m_pData;

  0002b	51		 push	 ecx
  0002c	e8 00 00 00 00	 call	 ??_V@YAXPAX@Z		; operator delete[]
  00031	83 c4 04	 add	 esp, 4

; 386  : 			m_pData = NULL;

  00034	89 73 04	 mov	 DWORD PTR [ebx+4], esi
$LN21@SetSize:

; 475  : }

  00037	5f		 pop	 edi
  00038	5e		 pop	 esi
  00039	c7 43 0c 00 00
	00 00		 mov	 DWORD PTR [ebx+12], 0
  00040	c7 43 08 00 00
	00 00		 mov	 DWORD PTR [ebx+8], 0
  00047	5b		 pop	 ebx
  00048	8b e5		 mov	 esp, ebp
  0004a	5d		 pop	 ebp
  0004b	c2 08 00	 ret	 8
$LN19@SetSize:

; 387  : 		}
; 388  : 		m_nSize = m_nMaxSize = 0;
; 389  : 	}
; 390  : 	else if (m_pData == NULL)

  0004e	85 c9		 test	 ecx, ecx
  00050	75 36		 jne	 SHORT $LN22@SetSize

; 391  : 	{
; 392  : 		// create buffer big enough to hold number of requested elements or
; 393  : 		// m_nGrowBy elements, whichever is larger.
; 394  : #ifdef SIZE_T_MAX
; 395  : 		ASSERT(nNewSize <= SIZE_T_MAX/sizeof(TYPE));    // no overflow
; 396  : #endif
; 397  : 		size_t nAllocSize = __max(nNewSize, m_nGrowBy);

  00052	8b 7b 10	 mov	 edi, DWORD PTR [ebx+16]
  00055	3b f7		 cmp	 esi, edi
  00057	0f 4f fe	 cmovg	 edi, esi

; 398  : 		m_pData = (TYPE*) new BYTE[(size_t)nAllocSize * sizeof(TYPE)];

  0005a	8d 34 bd 00 00
	00 00		 lea	 esi, DWORD PTR [edi*4]
  00061	56		 push	 esi
  00062	e8 00 00 00 00	 call	 ??_U@YAPAXI@Z		; operator new[]

; 399  : 		memset((void*)m_pData, 0, (size_t)nAllocSize * sizeof(TYPE));

  00067	56		 push	 esi
  00068	6a 00		 push	 0
  0006a	50		 push	 eax
  0006b	89 43 04	 mov	 DWORD PTR [ebx+4], eax
  0006e	e8 00 00 00 00	 call	 _memset

; 400  : 		for( int i = 0; i < nNewSize; i++ )
; 401  : #pragma push_macro("new")
; 402  : #undef new
; 403  : 			::new( (void*)( m_pData + i ) ) TYPE;
; 404  : #pragma pop_macro("new")
; 405  : 		m_nSize = nNewSize;

  00073	8b 45 08	 mov	 eax, DWORD PTR _nNewSize$[ebp]
  00076	83 c4 10	 add	 esp, 16			; 00000010H

; 475  : }

  00079	89 7b 0c	 mov	 DWORD PTR [ebx+12], edi
  0007c	89 43 08	 mov	 DWORD PTR [ebx+8], eax
  0007f	5f		 pop	 edi
  00080	5e		 pop	 esi
  00081	5b		 pop	 ebx
  00082	8b e5		 mov	 esp, ebp
  00084	5d		 pop	 ebp
  00085	c2 08 00	 ret	 8
$LN22@SetSize:

; 406  : 		m_nMaxSize = nAllocSize;
; 407  : 	}
; 408  : 	else if (nNewSize <= m_nMaxSize)

  00088	8b 7b 0c	 mov	 edi, DWORD PTR [ebx+12]
  0008b	3b f7		 cmp	 esi, edi
  0008d	7f 29		 jg	 SHORT $LN24@SetSize

; 409  : 	{
; 410  : 		// it fits
; 411  : 		if (nNewSize > m_nSize)

  0008f	8b 53 08	 mov	 edx, DWORD PTR [ebx+8]
  00092	3b f2		 cmp	 esi, edx
  00094	7e 16		 jle	 SHORT $LN26@SetSize

; 412  : 		{
; 413  : 			// initialize the new elements
; 414  : 			memset((void*)(m_pData + m_nSize), 0, (size_t)(nNewSize-m_nSize) * sizeof(TYPE));

  00096	8b c6		 mov	 eax, esi
  00098	2b c2		 sub	 eax, edx
  0009a	c1 e0 02	 shl	 eax, 2
  0009d	50		 push	 eax
  0009e	8d 04 91	 lea	 eax, DWORD PTR [ecx+edx*4]
  000a1	6a 00		 push	 0
  000a3	50		 push	 eax
  000a4	e8 00 00 00 00	 call	 _memset
  000a9	83 c4 0c	 add	 esp, 12			; 0000000cH
$LN26@SetSize:

; 415  : 			for( int i = 0; i < nNewSize-m_nSize; i++ )
; 416  : #pragma push_macro("new")
; 417  : #undef new
; 418  : 				::new( (void*)( m_pData + m_nSize + i ) ) TYPE;
; 419  : #pragma pop_macro("new")
; 420  : 		}
; 421  : 		else if (m_nSize > nNewSize)
; 422  : 		{
; 423  : 			// destroy the old elements
; 424  : 			for( int i = 0; i < m_nSize-nNewSize; i++ )
; 425  : 				(m_pData + nNewSize + i)->~TYPE();
; 426  : 		}
; 427  : 		m_nSize = nNewSize;

  000ac	5f		 pop	 edi
  000ad	89 73 08	 mov	 DWORD PTR [ebx+8], esi

; 475  : }

  000b0	5e		 pop	 esi
  000b1	5b		 pop	 ebx
  000b2	8b e5		 mov	 esp, ebp
  000b4	5d		 pop	 ebp
  000b5	c2 08 00	 ret	 8
$LN24@SetSize:

; 428  : 	}
; 429  : 	else
; 430  : 	{
; 431  : 		// otherwise, grow array
; 432  : 		nGrowBy = m_nGrowBy;

  000b8	8b 43 10	 mov	 eax, DWORD PTR [ebx+16]

; 433  : 		if (nGrowBy == 0)

  000bb	85 c0		 test	 eax, eax
  000bd	75 22		 jne	 SHORT $LN37@SetSize

; 434  : 		{
; 435  : 			// heuristically determine growth when nGrowBy == 0
; 436  : 			//  (this avoids heap fragmentation in many situations)
; 437  : 			nGrowBy = m_nSize / 8;

  000bf	8b 43 08	 mov	 eax, DWORD PTR [ebx+8]
  000c2	99		 cdq
  000c3	83 e2 07	 and	 edx, 7
  000c6	03 c2		 add	 eax, edx
  000c8	c1 f8 03	 sar	 eax, 3

; 438  : 			nGrowBy = (nGrowBy < 4) ? 4 : ((nGrowBy > 1024) ? 1024 : nGrowBy);

  000cb	83 f8 04	 cmp	 eax, 4
  000ce	7d 07		 jge	 SHORT $LN36@SetSize
  000d0	b8 04 00 00 00	 mov	 eax, 4
  000d5	eb 0a		 jmp	 SHORT $LN37@SetSize
$LN36@SetSize:
  000d7	b9 00 04 00 00	 mov	 ecx, 1024		; 00000400H
  000dc	3b c1		 cmp	 eax, ecx
  000de	0f 4f c1	 cmovg	 eax, ecx
$LN37@SetSize:

; 439  : 		}
; 440  : 		INT_PTR nNewMax;
; 441  : 		if (nNewSize < m_nMaxSize + nGrowBy)

  000e1	03 f8		 add	 edi, eax
  000e3	3b f7		 cmp	 esi, edi
  000e5	7d 0b		 jge	 SHORT $LN30@SetSize

; 445  : 
; 446  : 		ASSERT(nNewMax >= m_nMaxSize);  // no wrap around
; 447  : 
; 448  : 		if(nNewMax  < m_nMaxSize)

  000e7	3b 7b 0c	 cmp	 edi, DWORD PTR [ebx+12]
  000ea	0f 8c c0 00 00
	00		 jl	 $LN56@SetSize
  000f0	eb 02		 jmp	 SHORT $LN32@SetSize
$LN30@SetSize:

; 442  : 			nNewMax = m_nMaxSize + nGrowBy;  // granularity
; 443  : 		else
; 444  : 			nNewMax = nNewSize;  // no slush

  000f2	8b fe		 mov	 edi, esi
$LN32@SetSize:

; 449  : 			AfxThrowInvalidArgException();
; 450  : 
; 451  : #ifdef SIZE_T_MAX
; 452  : 		ASSERT(nNewMax <= SIZE_T_MAX/sizeof(TYPE)); // no overflow
; 453  : #endif
; 454  : 		TYPE* pNewData = (TYPE*) new BYTE[(size_t)nNewMax * sizeof(TYPE)];

  000f4	8d 04 bd 00 00
	00 00		 lea	 eax, DWORD PTR [edi*4]
  000fb	50		 push	 eax
  000fc	89 45 fc	 mov	 DWORD PTR __S1max$1$[ebp], eax
  000ff	e8 00 00 00 00	 call	 ??_U@YAPAXI@Z		; operator new[]

; 455  : 
; 456  : 		// copy new data from old
; 457  : 		::ATL::Checked::memcpy_s(pNewData, (size_t)nNewMax * sizeof(TYPE),

  00104	8b 4b 08	 mov	 ecx, DWORD PTR [ebx+8]
  00107	83 c4 04	 add	 esp, 4
  0010a	8b 53 04	 mov	 edx, DWORD PTR [ebx+4]
  0010d	c1 e1 02	 shl	 ecx, 2
  00110	89 45 0c	 mov	 DWORD PTR _pNewData$1$[ebp], eax
  00113	89 4d f8	 mov	 DWORD PTR __N$1$[ebp], ecx
  00116	89 55 08	 mov	 DWORD PTR __S2$1$[ebp], edx
; File C:\Program Files (x86)\Windows Kits\10\Include\10.0.22000.0\ucrt\corecrt_memcpy_s.h

; 46   :         if (_SourceSize == 0)

  00119	85 c9		 test	 ecx, ecx
  0011b	74 20		 je	 SHORT $LN54@SetSize

; 47   :         {
; 48   :             return 0;
; 49   :         }
; 50   : 
; 51   :         _CRT_MEMCPY_S_VALIDATE_RETURN_ERRCODE(_Destination != NULL, EINVAL);

  0011d	85 c0		 test	 eax, eax
  0011f	74 7d		 je	 SHORT $LN84@SetSize

; 52   :         if (_Source == NULL || _DestinationSize < _SourceSize)

  00121	85 d2		 test	 edx, edx
  00123	74 51		 je	 SHORT $LN76@SetSize
  00125	8d 14 bd 00 00
	00 00		 lea	 edx, DWORD PTR [edi*4]
  0012c	3b d1		 cmp	 edx, ecx
  0012e	72 46		 jb	 SHORT $LN76@SetSize

; 58   : 
; 59   :             // Unreachable, but required to suppress /analyze warnings:
; 60   :             return EINVAL;
; 61   :         }
; 62   :         memcpy(_Destination, _Source, _SourceSize);

  00130	51		 push	 ecx
  00131	ff 75 08	 push	 DWORD PTR __S2$1$[ebp]
  00134	50		 push	 eax
  00135	e8 00 00 00 00	 call	 _memcpy
  0013a	83 c4 0c	 add	 esp, 12			; 0000000cH
$LN54@SetSize:
; File C:\Program Files (x86)\Microsoft Visual Studio\2019\Community\VC\Tools\MSVC\14.29.30133\atlmfc\include\afxtempl.h

; 462  : 		memset((void*)(pNewData + m_nSize), 0, (size_t)(nNewSize-m_nSize) * sizeof(TYPE));

  0013d	8b 4b 08	 mov	 ecx, DWORD PTR [ebx+8]
  00140	8b c6		 mov	 eax, esi
  00142	2b c1		 sub	 eax, ecx
  00144	c1 e0 02	 shl	 eax, 2
  00147	50		 push	 eax
  00148	8b 45 0c	 mov	 eax, DWORD PTR _pNewData$1$[ebp]
  0014b	6a 00		 push	 0
  0014d	8d 04 88	 lea	 eax, DWORD PTR [eax+ecx*4]
  00150	50		 push	 eax
  00151	e8 00 00 00 00	 call	 _memset

; 463  : 		for( int i = 0; i < nNewSize-m_nSize; i++ )
; 464  : #pragma push_macro("new")
; 465  : #undef new
; 466  : 			::new( (void*)( pNewData + m_nSize + i ) ) TYPE;
; 467  : #pragma pop_macro("new")
; 468  : 
; 469  : 		// get rid of old stuff (note: no destructors called)
; 470  : 		delete[] (BYTE*)m_pData;

  00156	ff 73 04	 push	 DWORD PTR [ebx+4]
  00159	e8 00 00 00 00	 call	 ??_V@YAXPAX@Z		; operator delete[]

; 471  : 		m_pData = pNewData;

  0015e	8b 45 0c	 mov	 eax, DWORD PTR _pNewData$1$[ebp]
  00161	83 c4 10	 add	 esp, 16			; 00000010H

; 475  : }

  00164	89 7b 0c	 mov	 DWORD PTR [ebx+12], edi
  00167	89 73 08	 mov	 DWORD PTR [ebx+8], esi
  0016a	89 43 04	 mov	 DWORD PTR [ebx+4], eax
  0016d	5f		 pop	 edi
  0016e	5e		 pop	 esi
  0016f	5b		 pop	 ebx
  00170	8b e5		 mov	 esp, ebp
  00172	5d		 pop	 ebp
  00173	c2 08 00	 ret	 8
$LN76@SetSize:
; File C:\Program Files (x86)\Windows Kits\10\Include\10.0.22000.0\ucrt\corecrt_memcpy_s.h

; 54   :             memset(_Destination, 0, _DestinationSize);

  00176	8b 5d fc	 mov	 ebx, DWORD PTR __S1max$1$[ebp]
  00179	53		 push	 ebx
  0017a	6a 00		 push	 0
  0017c	50		 push	 eax
  0017d	e8 00 00 00 00	 call	 _memset
  00182	83 c4 0c	 add	 esp, 12			; 0000000cH

; 55   : 
; 56   :             _CRT_MEMCPY_S_VALIDATE_RETURN_ERRCODE(_Source != NULL,                 EINVAL);

  00185	83 7d 08 00	 cmp	 DWORD PTR __S2$1$[ebp], 0
  00189	74 13		 je	 SHORT $LN84@SetSize

; 57   :             _CRT_MEMCPY_S_VALIDATE_RETURN_ERRCODE(_DestinationSize >= _SourceSize, ERANGE);

  0018b	3b 5d f8	 cmp	 ebx, DWORD PTR __N$1$[ebp]
  0018e	73 20		 jae	 SHORT $LN56@SetSize
  00190	ff 15 00 00 00
	00		 call	 DWORD PTR __imp___errno
  00196	c7 00 22 00 00
	00		 mov	 DWORD PTR [eax], 34	; 00000022H
  0019c	eb 0c		 jmp	 SHORT $LN85@SetSize
$LN84@SetSize:
; File C:\Program Files (x86)\Microsoft Visual Studio\2019\Community\VC\Tools\MSVC\14.29.30133\atlmfc\include\afx.h

; 517  : 		AfxThrowInvalidArgException();

  0019e	ff 15 00 00 00
	00		 call	 DWORD PTR __imp___errno
  001a4	c7 00 16 00 00
	00		 mov	 DWORD PTR [eax], 22	; 00000016H
$LN85@SetSize:
  001aa	ff 15 00 00 00
	00		 call	 DWORD PTR __imp___invalid_parameter_noinfo
$LN56@SetSize:
  001b0	e8 00 00 00 00	 call	 ?AfxThrowInvalidArgException@@YGXXZ ; AfxThrowInvalidArgException
$LN83@SetSize:
  001b5	cc		 int	 3
?SetSize@?$CArray@HH@@QAEXHH@Z ENDP			; CArray<int,int>::SetSize
_TEXT	ENDS
; Function compile flags: /Ogtp
; File C:\Program Files (x86)\Microsoft Visual Studio\2019\Community\VC\Tools\MSVC\14.29.30133\include\xstring
; File C:\Program Files (x86)\Microsoft Visual Studio\2019\Community\VC\Tools\MSVC\14.29.30133\include\xmemory
; File C:\Program Files (x86)\Microsoft Visual Studio\2019\Community\VC\Tools\MSVC\14.29.30133\include\xstring
; File C:\Program Files (x86)\Microsoft Visual Studio\2019\Community\VC\Tools\MSVC\14.29.30133\include\xmemory
; File C:\Program Files (x86)\Microsoft Visual Studio\2019\Community\VC\Tools\MSVC\14.29.30133\include\xstring
; File C:\Program Files (x86)\Microsoft Visual Studio\2019\Community\VC\Tools\MSVC\14.29.30133\include\xmemory
;	COMDAT ??1?$pair@V?$basic_string@DU?$char_traits@D@std@@V?$allocator@D@2@@std@@H@std@@QAE@XZ
_TEXT	SEGMENT
??1?$pair@V?$basic_string@DU?$char_traits@D@std@@V?$allocator@D@2@@std@@H@std@@QAE@XZ PROC ; std::pair<std::basic_string<char,std::char_traits<char>,std::allocator<char> >,int>::~pair<std::basic_string<char,std::char_traits<char>,std::allocator<char> >,int>, COMDAT
; _this$ = ecx
; File C:\Program Files (x86)\Microsoft Visual Studio\2019\Community\VC\Tools\MSVC\14.29.30133\include\xstring

; 2286 :         return _BUF_SIZE <= _Myres;

  00000	56		 push	 esi
  00001	8b f1		 mov	 esi, ecx
  00003	8b 4e 14	 mov	 ecx, DWORD PTR [esi+20]
  00006	83 f9 10	 cmp	 ecx, 16			; 00000010H

; 4584 :         if (_Mypair._Myval2._Large_string_engaged()) {

  00009	72 27		 jb	 SHORT $LN15@pair
; File C:\Program Files (x86)\Microsoft Visual Studio\2019\Community\VC\Tools\MSVC\14.29.30133\include\xmemory

; 797  :         _Deallocate<_New_alignof<_Ty>>(_Ptr, sizeof(_Ty) * _Count);

  0000b	8b 06		 mov	 eax, DWORD PTR [esi]
; File C:\Program Files (x86)\Microsoft Visual Studio\2019\Community\VC\Tools\MSVC\14.29.30133\include\xstring

; 4588 :             _Al.deallocate(_Ptr, _Mypair._Myval2._Myres + 1);

  0000d	41		 inc	 ecx
; File C:\Program Files (x86)\Microsoft Visual Studio\2019\Community\VC\Tools\MSVC\14.29.30133\include\xmemory

; 251  :         if (_Bytes >= _Big_allocation_threshold) { // boost the alignment of big allocations to help autovectorization

  0000e	81 f9 00 10 00
	00		 cmp	 ecx, 4096		; 00001000H
  00014	72 12		 jb	 SHORT $LN25@pair

; 150  :     const uintptr_t _Ptr_container   = _Ptr_user[-1];

  00016	8b 50 fc	 mov	 edx, DWORD PTR [eax-4]
  00019	83 c1 23	 add	 ecx, 35			; 00000023H

; 151  : 
; 152  :     // If the following asserts, it likely means that we are performing
; 153  :     // an aligned delete on memory coming from an unaligned allocation.
; 154  :     _STL_ASSERT(_Ptr_user[-2] == _Big_allocation_sentinel, "invalid argument");
; 155  : 
; 156  :     // Extra paranoia on aligned allocation/deallocation; ensure _Ptr_container is
; 157  :     // in range [_Min_back_shift, _Non_user_size]
; 158  : #ifdef _DEBUG
; 159  :     constexpr uintptr_t _Min_back_shift = 2 * sizeof(void*);
; 160  : #else // ^^^ _DEBUG ^^^ // vvv !_DEBUG vvv
; 161  :     constexpr uintptr_t _Min_back_shift = sizeof(void*);
; 162  : #endif // _DEBUG
; 163  :     const uintptr_t _Back_shift = reinterpret_cast<uintptr_t>(_Ptr) - _Ptr_container;

  0001c	2b c2		 sub	 eax, edx

; 164  :     _STL_VERIFY(_Back_shift >= _Min_back_shift && _Back_shift <= _Non_user_size, "invalid argument");

  0001e	83 c0 fc	 add	 eax, -4			; fffffffcH
  00021	83 f8 1f	 cmp	 eax, 31			; 0000001fH
  00024	77 1f		 ja	 SHORT $LN22@pair

; 165  :     _Ptr = reinterpret_cast<void*>(_Ptr_container);

  00026	8b c2		 mov	 eax, edx
$LN25@pair:

; 255  :         ::operator delete(_Ptr, _Bytes);

  00028	51		 push	 ecx
  00029	50		 push	 eax
  0002a	e8 00 00 00 00	 call	 ??3@YAXPAXI@Z		; operator delete
  0002f	83 c4 08	 add	 esp, 8
$LN15@pair:
; File C:\Program Files (x86)\Microsoft Visual Studio\2019\Community\VC\Tools\MSVC\14.29.30133\include\xstring

; 4599 :             _Mypair._Myval2._Mysize = 0;

  00032	c7 46 10 00 00
	00 00		 mov	 DWORD PTR [esi+16], 0

; 4600 :             _Mypair._Myval2._Myres  = _BUF_SIZE - 1;

  00039	c7 46 14 0f 00
	00 00		 mov	 DWORD PTR [esi+20], 15	; 0000000fH

; 4601 :             // the _Traits::assign is last so the codegen doesn't think the char write can alias this
; 4602 :             _Traits::assign(_Mypair._Myval2._Bx._Buf[0], _Elem());

  00040	c6 06 00	 mov	 BYTE PTR [esi], 0
  00043	5e		 pop	 esi
  00044	c3		 ret	 0
$LN22@pair:
; File C:\Program Files (x86)\Microsoft Visual Studio\2019\Community\VC\Tools\MSVC\14.29.30133\include\xmemory

; 164  :     _STL_VERIFY(_Back_shift >= _Min_back_shift && _Back_shift <= _Non_user_size, "invalid argument");

  00045	ff 15 00 00 00
	00		 call	 DWORD PTR __imp___invalid_parameter_noinfo_noreturn
$LN31@pair:
  0004b	cc		 int	 3
??1?$pair@V?$basic_string@DU?$char_traits@D@std@@V?$allocator@D@2@@std@@H@std@@QAE@XZ ENDP ; std::pair<std::basic_string<char,std::char_traits<char>,std::allocator<char> >,int>::~pair<std::basic_string<char,std::char_traits<char>,std::allocator<char> >,int>
_TEXT	ENDS
; Function compile flags: /Ogtp
; File C:\Program Files (x86)\Microsoft Visual Studio\2019\Community\VC\Tools\MSVC\14.29.30133\atlmfc\include\afxtempl.h
;	COMDAT ?FindIndex@?$CList@NN@@QBEPAU__POSITION@@H@Z
_TEXT	SEGMENT
_nIndex$ = 8						; size = 4
?FindIndex@?$CList@NN@@QBEPAU__POSITION@@H@Z PROC	; CList<double,double>::FindIndex, COMDAT
; _this$ = ecx

; 1130 : {

  00000	55		 push	 ebp
  00001	8b ec		 mov	 ebp, esp

; 1131 : 	ASSERT_VALID(this);
; 1132 : 
; 1133 : 	if (nIndex >= m_nCount || nIndex < 0)

  00003	8b 55 08	 mov	 edx, DWORD PTR _nIndex$[ebp]
  00006	3b 51 0c	 cmp	 edx, DWORD PTR [ecx+12]
  00009	7d 14		 jge	 SHORT $LN5@FindIndex
  0000b	85 d2		 test	 edx, edx
  0000d	78 10		 js	 SHORT $LN5@FindIndex

; 1135 : 
; 1136 : 	CNode* pNode = m_pNodeHead;

  0000f	8b 41 04	 mov	 eax, DWORD PTR [ecx+4]

; 1137 : 	while (nIndex--)

  00012	74 0d		 je	 SHORT $LN1@FindIndex
$LL2@FindIndex:

; 1138 : 	{
; 1139 : 		ASSERT(AfxIsValidAddress(pNode, sizeof(CNode)));
; 1140 : 		pNode = pNode->pNext;

  00014	8b 00		 mov	 eax, DWORD PTR [eax]
  00016	83 ea 01	 sub	 edx, 1
  00019	75 f9		 jne	 SHORT $LL2@FindIndex

; 1141 : 	}
; 1142 : 	return (POSITION) pNode;
; 1143 : }

  0001b	5d		 pop	 ebp
  0001c	c2 04 00	 ret	 4
$LN5@FindIndex:

; 1134 : 		return NULL;  // went too far

  0001f	33 c0		 xor	 eax, eax
$LN1@FindIndex:

; 1141 : 	}
; 1142 : 	return (POSITION) pNode;
; 1143 : }

  00021	5d		 pop	 ebp
  00022	c2 04 00	 ret	 4
?FindIndex@?$CList@NN@@QBEPAU__POSITION@@H@Z ENDP	; CList<double,double>::FindIndex
_TEXT	ENDS
; Function compile flags: /Ogtp
; File D:\git\src\IBK\IBK_DRFN\ProjSrc\SrcChartEx\ChartOCX\ChartObject\XScaleManagerImp.cpp
; File D:\git\src\IBK\IBK_DRFN\ProjSrc\SrcChartEx\ChartOCX\Include_Chart\DataBlockList.h
; File C:\Program Files (x86)\Microsoft Visual Studio\2019\Community\VC\Tools\MSVC\14.29.30133\include\xtree
; File D:\git\src\IBK\IBK_DRFN\ProjSrc\SrcChartEx\ChartOCX\ChartObject\XScaleManagerImp.cpp
; File C:\Program Files (x86)\Microsoft Visual Studio\2019\Community\VC\Tools\MSVC\14.29.30133\include\xtree
; File C:\Program Files (x86)\Microsoft Visual Studio\2019\Community\VC\Tools\MSVC\14.29.30133\include\xmemory
; File D:\git\src\IBK\IBK_DRFN\ProjSrc\SrcChartEx\ChartOCX\ChartObject\XScaleManagerImp.cpp
; File C:\Program Files (x86)\Microsoft Visual Studio\2019\Community\VC\Tools\MSVC\14.29.30133\include\xtree
; File D:\git\src\IBK\IBK_DRFN\ProjSrc\SrcChartEx\ChartOCX\ChartObject\XScaleManagerImp.cpp
; File C:\Program Files (x86)\Microsoft Visual Studio\2019\Community\VC\Tools\MSVC\14.29.30133\include\xtree
; File C:\Program Files (x86)\Microsoft Visual Studio\2019\Community\VC\Tools\MSVC\14.29.30133\include\xmemory
; File D:\git\src\IBK\IBK_DRFN\ProjSrc\SrcChartEx\ChartOCX\ChartObject\XScaleManagerImp.cpp
;	COMDAT ??_GCXScaleManagerImp@@UAEPAXI@Z
_TEXT	SEGMENT
__$EHRec$ = -12						; size = 12
___flags$ = 8						; size = 4
??_GCXScaleManagerImp@@UAEPAXI@Z PROC			; CXScaleManagerImp::`scalar deleting destructor', COMDAT
; _this$ = ecx
  00000	55		 push	 ebp
  00001	8b ec		 mov	 ebp, esp
  00003	6a ff		 push	 -1
  00005	68 00 00 00 00	 push	 __ehhandler$??_GCXScaleManagerImp@@UAEPAXI@Z
  0000a	64 a1 00 00 00
	00		 mov	 eax, DWORD PTR fs:0
  00010	50		 push	 eax
  00011	56		 push	 esi
  00012	57		 push	 edi
  00013	a1 00 00 00 00	 mov	 eax, DWORD PTR ___security_cookie
  00018	33 c5		 xor	 eax, ebp
  0001a	50		 push	 eax
  0001b	8d 45 f4	 lea	 eax, DWORD PTR __$EHRec$[ebp]
  0001e	64 a3 00 00 00
	00		 mov	 DWORD PTR fs:0, eax
  00024	8b f9		 mov	 edi, ecx

; 126  : {

  00026	c7 45 fc 00 00
	00 00		 mov	 DWORD PTR __$EHRec$[ebp+8], 0
  0002d	c7 07 00 00 00
	00		 mov	 DWORD PTR [edi], OFFSET ??_7CXScaleManagerImp@@6B@

; 127  : 	ClearData();

  00033	e8 00 00 00 00	 call	 ?ClearData@CXScaleManagerImp@@IAEXXZ ; CXScaleManagerImp::ClearData

; 128  : }

  00038	68 00 00 00 00	 push	 OFFSET ??1?$CDataBlockList@H$0CAA@@@UAE@XZ ; CDataBlockList<int,512>::~CDataBlockList<int,512>
  0003d	6a 0a		 push	 10			; 0000000aH
  0003f	6a 34		 push	 52			; 00000034H
  00041	8d 87 84 0c 00
	00		 lea	 eax, DWORD PTR [edi+3204]
  00047	50		 push	 eax
  00048	e8 00 00 00 00	 call	 ??_M@YGXPAXIIP6EX0@Z@Z
  0004d	68 00 00 00 00	 push	 OFFSET ??1?$CDataBlockList@Utm@@$0CAA@@@UAE@XZ ; CDataBlockList<tm,512>::~CDataBlockList<tm,512>
  00052	6a 0a		 push	 10			; 0000000aH
  00054	6a 34		 push	 52			; 00000034H
  00056	8d 87 7c 0a 00
	00		 lea	 eax, DWORD PTR [edi+2684]
  0005c	50		 push	 eax
  0005d	e8 00 00 00 00	 call	 ??_M@YGXPAXIIP6EX0@Z@Z
  00062	8d 8f 74 0a 00
	00		 lea	 ecx, DWORD PTR [edi+2676]
  00068	ff 15 00 00 00
	00		 call	 DWORD PTR __imp_??1?$CStringT@DV?$StrTraitMFC_DLL@DV?$ChTraitsCRT@D@ATL@@@@@ATL@@QAE@XZ
  0006e	68 00 00 00 00	 push	 OFFSET ??1?$CDataBlockList@H$0CAA@@@UAE@XZ ; CDataBlockList<int,512>::~CDataBlockList<int,512>
  00073	6a 0a		 push	 10			; 0000000aH
  00075	6a 34		 push	 52			; 00000034H
  00077	8d 87 64 08 00
	00		 lea	 eax, DWORD PTR [edi+2148]
  0007d	50		 push	 eax
  0007e	e8 00 00 00 00	 call	 ??_M@YGXPAXIIP6EX0@Z@Z
  00083	68 00 00 00 00	 push	 OFFSET ??1?$CDataBlockList@Utm@@$0CAA@@@UAE@XZ ; CDataBlockList<tm,512>::~CDataBlockList<tm,512>
  00088	6a 0a		 push	 10			; 0000000aH
  0008a	6a 34		 push	 52			; 00000034H
  0008c	8d 87 5c 06 00
	00		 lea	 eax, DWORD PTR [edi+1628]
  00092	50		 push	 eax
  00093	e8 00 00 00 00	 call	 ??_M@YGXPAXIIP6EX0@Z@Z
  00098	8d 8f 18 06 00
	00		 lea	 ecx, DWORD PTR [edi+1560]
  0009e	e8 00 00 00 00	 call	 ??1CMapWordToPtr@@UAE@XZ ; CMapWordToPtr::~CMapWordToPtr
  000a3	8d 8f ec 05 00
	00		 lea	 ecx, DWORD PTR [edi+1516]
  000a9	e8 00 00 00 00	 call	 ??1CXScaleTimeDiffManager@@UAE@XZ ; CXScaleTimeDiffManager::~CXScaleTimeDiffManager
  000ae	68 00 00 00 00	 push	 OFFSET ??1?$CDataBlockList@UtagAREA@CXScaleManager@@$0CAA@@@UAE@XZ ; CDataBlockList<CXScaleManager::tagAREA,512>::~CDataBlockList<CXScaleManager::tagAREA,512>
  000b3	6a 0a		 push	 10			; 0000000aH
  000b5	6a 34		 push	 52			; 00000034H
  000b7	8d 87 88 03 00
	00		 lea	 eax, DWORD PTR [edi+904]
  000bd	50		 push	 eax
  000be	e8 00 00 00 00	 call	 ??_M@YGXPAXIIP6EX0@Z@Z
  000c3	8d 8f ac 00 00
	00		 lea	 ecx, DWORD PTR [edi+172]
; File D:\git\src\IBK\IBK_DRFN\ProjSrc\SrcChartEx\ChartOCX\Include_Chart\DataBlockList.h

; 163  : 	{

  000c9	c7 01 00 00 00
	00		 mov	 DWORD PTR [ecx], OFFSET ??_7?$CDataBlockList@_J$0CAA@@@6B@

; 164  : 	}

  000cf	e8 00 00 00 00	 call	 ??1CDataBlockListUNK@@UAE@XZ ; CDataBlockListUNK::~CDataBlockListUNK
; File C:\Program Files (x86)\Microsoft Visual Studio\2019\Community\VC\Tools\MSVC\14.29.30133\include\xtree

; 752  :         _Erase_tree(_Al, _Myhead->_Parent);

  000d4	8b 87 94 00 00
	00		 mov	 eax, DWORD PTR [edi+148]
; File D:\git\src\IBK\IBK_DRFN\ProjSrc\SrcChartEx\ChartOCX\ChartObject\XScaleManagerImp.cpp

; 128  : }

  000da	8d b7 94 00 00
	00		 lea	 esi, DWORD PTR [edi+148]
; File C:\Program Files (x86)\Microsoft Visual Studio\2019\Community\VC\Tools\MSVC\14.29.30133\include\xtree

; 752  :         _Erase_tree(_Al, _Myhead->_Parent);

  000e0	8b ce		 mov	 ecx, esi
  000e2	ff 70 04	 push	 DWORD PTR [eax+4]
  000e5	56		 push	 esi
  000e6	e8 00 00 00 00	 call	 ??$_Erase_tree@V?$allocator@U?$_Tree_node@U?$pair@$$CBV?$basic_string@DU?$char_traits@D@std@@V?$allocator@D@2@@std@@PAUVERTBOX_INFO@CXScaleManagerImp@@@std@@PAX@std@@@std@@@?$_Tree_val@U?$_Tree_simple_types@U?$pair@$$CBV?$basic_string@DU?$char_traits@D@std@@V?$allocator@D@2@@std@@PAUVERTBOX_INFO@CXScaleManagerImp@@@std@@@std@@@std@@QAEXAAV?$allocator@U?$_Tree_node@U?$pair@$$CBV?$basic_string@DU?$char_traits@D@std@@V?$allocator@D@2@@std@@PAUVERTBOX_INFO@CXScaleManagerImp@@@std@@PAX@std@@@1@PAU?$_Tree_node@U?$pair@$$CBV?$basic_string@DU?$char_traits@D@std@@V?$allocator@D@2@@std@@PAUVERTBOX_INFO@CXScaleManagerImp@@@std@@PAX@1@@Z ; std::_Tree_val<std::_Tree_simple_types<std::pair<std::basic_string<char,std::char_traits<char>,std::allocator<char> > const ,CXScaleManagerImp::VERTBOX_INFO *> > >::_Erase_tree<std::allocator<std::_Tree_node<std::pair<std::basic_string<char,std::char_traits<char>,std::allocator<char> > const ,CXScaleManagerImp::VERTBOX_INFO *>,void *> > >
; File C:\Program Files (x86)\Microsoft Visual Studio\2019\Community\VC\Tools\MSVC\14.29.30133\include\xmemory

; 255  :         ::operator delete(_Ptr, _Bytes);

  000eb	6a 2c		 push	 44			; 0000002cH
  000ed	ff 36		 push	 DWORD PTR [esi]
  000ef	e8 00 00 00 00	 call	 ??3@YAXPAXI@Z		; operator delete
  000f4	83 c4 08	 add	 esp, 8
; File D:\git\src\IBK\IBK_DRFN\ProjSrc\SrcChartEx\ChartOCX\ChartObject\XScaleManagerImp.cpp

; 128  : }

  000f7	8d 4f 78	 lea	 ecx, DWORD PTR [edi+120]
  000fa	e8 00 00 00 00	 call	 ??1CStringArray@@UAE@XZ	; CStringArray::~CStringArray
; File C:\Program Files (x86)\Microsoft Visual Studio\2019\Community\VC\Tools\MSVC\14.29.30133\include\xtree

; 752  :         _Erase_tree(_Al, _Myhead->_Parent);

  000ff	8b 47 70	 mov	 eax, DWORD PTR [edi+112]
; File D:\git\src\IBK\IBK_DRFN\ProjSrc\SrcChartEx\ChartOCX\ChartObject\XScaleManagerImp.cpp

; 128  : }

  00102	8d 77 70	 lea	 esi, DWORD PTR [edi+112]
; File C:\Program Files (x86)\Microsoft Visual Studio\2019\Community\VC\Tools\MSVC\14.29.30133\include\xtree

; 752  :         _Erase_tree(_Al, _Myhead->_Parent);

  00105	8b ce		 mov	 ecx, esi
  00107	ff 70 04	 push	 DWORD PTR [eax+4]
  0010a	56		 push	 esi
  0010b	e8 00 00 00 00	 call	 ??$_Erase_tree@V?$allocator@U?$_Tree_node@U?$pair@$$CBV?$basic_string@DU?$char_traits@D@std@@V?$allocator@D@2@@std@@H@std@@PAX@std@@@std@@@?$_Tree_val@U?$_Tree_simple_types@U?$pair@$$CBV?$basic_string@DU?$char_traits@D@std@@V?$allocator@D@2@@std@@H@std@@@std@@@std@@QAEXAAV?$allocator@U?$_Tree_node@U?$pair@$$CBV?$basic_string@DU?$char_traits@D@std@@V?$allocator@D@2@@std@@H@std@@PAX@std@@@1@PAU?$_Tree_node@U?$pair@$$CBV?$basic_string@DU?$char_traits@D@std@@V?$allocator@D@2@@std@@H@std@@PAX@1@@Z ; std::_Tree_val<std::_Tree_simple_types<std::pair<std::basic_string<char,std::char_traits<char>,std::allocator<char> > const ,int> > >::_Erase_tree<std::allocator<std::_Tree_node<std::pair<std::basic_string<char,std::char_traits<char>,std::allocator<char> > const ,int>,void *> > >
; File C:\Program Files (x86)\Microsoft Visual Studio\2019\Community\VC\Tools\MSVC\14.29.30133\include\xmemory

; 255  :         ::operator delete(_Ptr, _Bytes);

  00110	6a 2c		 push	 44			; 0000002cH
  00112	ff 36		 push	 DWORD PTR [esi]
  00114	e8 00 00 00 00	 call	 ??3@YAXPAXI@Z		; operator delete
  00119	83 c4 08	 add	 esp, 8
; File D:\git\src\IBK\IBK_DRFN\ProjSrc\SrcChartEx\ChartOCX\ChartObject\XScaleManagerImp.cpp

; 128  : }

  0011c	c7 07 00 00 00
	00		 mov	 DWORD PTR [edi], OFFSET ??_7CXScaleManager@@6B@
  00122	f6 45 08 01	 test	 BYTE PTR ___flags$[ebp], 1
  00126	74 0e		 je	 SHORT $LN75@scalar
  00128	68 90 0e 00 00	 push	 3728			; 00000e90H
  0012d	57		 push	 edi
  0012e	e8 00 00 00 00	 call	 ??3@YAXPAXI@Z		; operator delete
  00133	83 c4 08	 add	 esp, 8
$LN75@scalar:
  00136	8b c7		 mov	 eax, edi
  00138	8b 4d f4	 mov	 ecx, DWORD PTR __$EHRec$[ebp]
  0013b	64 89 0d 00 00
	00 00		 mov	 DWORD PTR fs:0, ecx
  00142	59		 pop	 ecx
  00143	5f		 pop	 edi
  00144	5e		 pop	 esi
  00145	8b e5		 mov	 esp, ebp
  00147	5d		 pop	 ebp
  00148	c2 04 00	 ret	 4
  0014b	cc		 int	 3
  0014c	cc		 int	 3
  0014d	cc		 int	 3
  0014e	cc		 int	 3
  0014f	cc		 int	 3
_TEXT	ENDS
;	COMDAT text$x
text$x	SEGMENT
__ehhandler$??_GCXScaleManagerImp@@UAEPAXI@Z:
  00000	90		 npad	 1
  00001	90		 npad	 1
  00002	8b 54 24 08	 mov	 edx, DWORD PTR [esp+8]
  00006	8d 42 0c	 lea	 eax, DWORD PTR [edx+12]
  00009	8b 4a f4	 mov	 ecx, DWORD PTR [edx-12]
  0000c	33 c8		 xor	 ecx, eax
  0000e	e8 00 00 00 00	 call	 @__security_check_cookie@4
  00013	b8 00 00 00 00	 mov	 eax, OFFSET __ehfuncinfo$??_GCXScaleManagerImp@@UAEPAXI@Z
  00018	e9 00 00 00 00	 jmp	 ___CxxFrameHandler3
text$x	ENDS
??_GCXScaleManagerImp@@UAEPAXI@Z ENDP			; CXScaleManagerImp::`scalar deleting destructor'
; Function compile flags: /Ogtp
; File D:\git\src\IBK\IBK_DRFN\ProjSrc\SrcChartEx\ChartOCX\ChartObject\XScaleManagerImp.cpp
; File C:\Program Files (x86)\Microsoft Visual Studio\2019\Community\VC\Tools\MSVC\14.29.30133\atlmfc\include\afxtempl.h
; File D:\git\src\IBK\IBK_DRFN\ProjSrc\SrcChartEx\ChartOCX\ChartObject\XScaleManagerImp.cpp
; File C:\Program Files (x86)\Microsoft Visual Studio\2019\Community\VC\Tools\MSVC\14.29.30133\atlmfc\include\afxtempl.h
; File D:\git\src\IBK\IBK_DRFN\ProjSrc\SrcChartEx\ChartOCX\ChartObject\XScaleManagerImp.cpp
;	COMDAT ?GetScaleDRIandTimeAllData@CXScaleManagerImp@@UAEHHAAPAV?$CDataBlockList@H$0CAA@@@AAPAV?$CDataBlockList@Utm@@$0CAA@@@W4HORZSCALEDRAWERTYPE@CScaleBaseData@@PBDAAH@Z
_TEXT	SEGMENT
tv258 = -8						; size = 4
_pXScaleGridTime$ = -4					; size = 4
_p_nColumn$ = 8						; size = 4
_p_pblScaleDRI$ = 12					; size = 4
_p_pblScaleTime$ = 16					; size = 4
_p_eScaleDrawType$ = 20					; size = 4
tv257 = 24						; size = 4
_p_szRQ$ = 24						; size = 4
_p_nSkipFactor$ = 28					; size = 4
?GetScaleDRIandTimeAllData@CXScaleManagerImp@@UAEHHAAPAV?$CDataBlockList@H$0CAA@@@AAPAV?$CDataBlockList@Utm@@$0CAA@@@W4HORZSCALEDRAWERTYPE@CScaleBaseData@@PBDAAH@Z PROC ; CXScaleManagerImp::GetScaleDRIandTimeAllData, COMDAT
; _this$ = ecx

; 4065 : {

  00000	55		 push	 ebp
  00001	8b ec		 mov	 ebp, esp
  00003	83 ec 08	 sub	 esp, 8
  00006	53		 push	 ebx

; 4066 : 	// 1. Get X Scale Grid Object.
; 4067 : 	CXScaleGridTime *pXScaleGridTime = NULL;
; 4068 : 	int nTimeDiff = GetTimeDiffWithCurrentRQ( p_szRQ);

  00007	8b 5d 18	 mov	 ebx, DWORD PTR _p_szRQ$[ebp]
  0000a	56		 push	 esi
  0000b	57		 push	 edi
  0000c	51		 push	 ecx
  0000d	8b f9		 mov	 edi, ecx
  0000f	c7 45 fc 00 00
	00 00		 mov	 DWORD PTR _pXScaleGridTime$[ebp], 0
  00016	8b cc		 mov	 ecx, esp
  00018	53		 push	 ebx
  00019	ff 15 00 00 00
	00		 call	 DWORD PTR __imp_??0?$CStringT@DV?$StrTraitMFC_DLL@DV?$ChTraitsCRT@D@ATL@@@@@ATL@@QAE@PBD@Z
  0001f	8b cf		 mov	 ecx, edi
  00021	e8 00 00 00 00	 call	 ?GetTimeDiffWithCurrentRQ@CXScaleManagerImp@@IAEHV?$CStringT@DV?$StrTraitMFC_DLL@DV?$ChTraitsCRT@D@ATL@@@@@ATL@@@Z ; CXScaleManagerImp::GetTimeDiffWithCurrentRQ
; File C:\Program Files (x86)\Microsoft Visual Studio\2019\Community\VC\Tools\MSVC\14.29.30133\atlmfc\include\afxtempl.h

; 2052 : 		{ return BASE_CLASS::Lookup(key, (typename BASE_CLASS::BASE_VALUE&)rValue); }

  00026	8d 4d fc	 lea	 ecx, DWORD PTR _pXScaleGridTime$[ebp]
  00029	51		 push	 ecx
  0002a	50		 push	 eax
; File D:\git\src\IBK\IBK_DRFN\ProjSrc\SrcChartEx\ChartOCX\ChartObject\XScaleManagerImp.cpp

; 4069 : 	if( !m_mapXGridTime.Lookup( nTimeDiff, pXScaleGridTime)) return -1;

  0002b	8d 8f 18 06 00
	00		 lea	 ecx, DWORD PTR [edi+1560]
; File C:\Program Files (x86)\Microsoft Visual Studio\2019\Community\VC\Tools\MSVC\14.29.30133\atlmfc\include\afxtempl.h

; 2052 : 		{ return BASE_CLASS::Lookup(key, (typename BASE_CLASS::BASE_VALUE&)rValue); }

  00031	e8 00 00 00 00	 call	 ?Lookup@CMapWordToPtr@@QBEHGAAPAX@Z ; CMapWordToPtr::Lookup
; File D:\git\src\IBK\IBK_DRFN\ProjSrc\SrcChartEx\ChartOCX\ChartObject\XScaleManagerImp.cpp

; 4069 : 	if( !m_mapXGridTime.Lookup( nTimeDiff, pXScaleGridTime)) return -1;

  00036	85 c0		 test	 eax, eax
  00038	0f 84 a6 00 00
	00		 je	 $LN10@GetScaleDR

; 4070 : 
; 4071 : 	p_pblScaleDRI = &m_blScaleDRI2[ p_nColumn];			// DRI value for scale of YYYY/MM/DD/HH/mm/SS

  0003e	6b 4d 08 34	 imul	 ecx, DWORD PTR _p_nColumn$[ebp], 52
  00042	8b 45 0c	 mov	 eax, DWORD PTR _p_pblScaleDRI$[ebp]
  00045	03 cf		 add	 ecx, edi
  00047	8d b1 84 0c 00
	00		 lea	 esi, DWORD PTR [ecx+3204]

; 4072 : 	p_pblScaleTime = &m_blScaleTime2[ p_nColumn];		// Time value for scale of YYYY/MM/DD/HH/mm/SS

  0004d	81 c1 7c 0a 00
	00		 add	 ecx, 2684		; 00000a7cH
  00053	89 30		 mov	 DWORD PTR [eax], esi
  00055	8b 45 10	 mov	 eax, DWORD PTR _p_pblScaleTime$[ebp]

; 4073 : 
; 4074 : 
; 4075 : 	int nRQ = GetRQIndexFromString( p_szRQ);

  00058	51		 push	 ecx
  00059	89 4d 18	 mov	 DWORD PTR tv257[ebp], ecx
  0005c	89 75 f8	 mov	 DWORD PTR tv258[ebp], esi
  0005f	89 08		 mov	 DWORD PTR [eax], ecx
  00061	8b cc		 mov	 ecx, esp
  00063	53		 push	 ebx
  00064	ff 15 00 00 00
	00		 call	 DWORD PTR __imp_??0?$CStringT@DV?$StrTraitMFC_DLL@DV?$ChTraitsCRT@D@ATL@@@@@ATL@@QAE@PBD@Z
  0006a	8b 07		 mov	 eax, DWORD PTR [edi]
  0006c	8b cf		 mov	 ecx, edi
  0006e	ff 50 04	 call	 DWORD PTR [eax+4]

; 4076 : 	if( nRQ < 0) return -1;

  00071	85 c0		 test	 eax, eax
  00073	78 6f		 js	 SHORT $LN10@GetScaleDR

; 4077 : 
; 4078 : 	m_blScaleDRI2[ p_nColumn].Clear();		// DRI value for scale of YYYY/MM/DD/HH/mm/SS

  00075	8b ce		 mov	 ecx, esi
  00077	e8 00 00 00 00	 call	 ?Clear@CDataBlockListUNK@@QAEXXZ ; CDataBlockListUNK::Clear

; 4079 : 	m_blScaleTime2[ p_nColumn].Clear();		// Time value for scale of YYYY/MM/DD/HH/mm/SS

  0007c	8b 4d 18	 mov	 ecx, DWORD PTR tv257[ebp]
  0007f	e8 00 00 00 00	 call	 ?Clear@CDataBlockListUNK@@QAEXXZ ; CDataBlockListUNK::Clear

; 4080 : 
; 4081 : 	// (2009/5/28 - Seung-Won, Bae) Do not draw scale on no data.
; 4082 : 	if( IsEmptyData()) return -1;

  00084	8b 07		 mov	 eax, DWORD PTR [edi]
  00086	8b cf		 mov	 ecx, edi
  00088	ff 90 68 01 00
	00		 call	 DWORD PTR [eax+360]
  0008e	85 c0		 test	 eax, eax
  00090	75 52		 jne	 SHORT $LN10@GetScaleDR

; 4083 : 
; 4084 : 	p_nSkipFactor = 1;

  00092	8b 75 1c	 mov	 esi, DWORD PTR _p_nSkipFactor$[ebp]

; 4085 : 	pXScaleGridTime->MakeScaleData( 2, m_blScaleTime2[ p_nColumn], m_blScaleDRI2[ p_nColumn], p_nSkipFactor, m_eChartMode);

  00095	8b 4d fc	 mov	 ecx, DWORD PTR _pXScaleGridTime$[ebp]
  00098	c7 06 01 00 00
	00		 mov	 DWORD PTR [esi], 1
  0009e	ff b7 e8 05 00
	00		 push	 DWORD PTR [edi+1512]
  000a4	6a 01		 push	 1
  000a6	ff 75 f8	 push	 DWORD PTR tv258[ebp]
  000a9	ff 75 18	 push	 DWORD PTR tv257[ebp]
  000ac	6a 02		 push	 2
  000ae	e8 00 00 00 00	 call	 ?MakeScaleData@CXScaleGridTime@@QAEXHAAV?$CDataBlockList@Utm@@$0CAA@@@AAV?$CDataBlockList@H$0CAA@@@HW4CHART_MODE@CChartInfo@@@Z ; CXScaleGridTime::MakeScaleData

; 4086 : 	
; 4087 : 	m_nSkipFactor = p_nSkipFactor;

  000b3	8b 0e		 mov	 ecx, DWORD PTR [esi]
  000b5	89 8f 6c 0a 00
	00		 mov	 DWORD PTR [edi+2668], ecx

; 4088 : 	m_eScaleDrawType = p_eScaleDrawType;

  000bb	8b 4d 14	 mov	 ecx, DWORD PTR _p_eScaleDrawType$[ebp]
  000be	89 8f 70 0a 00
	00		 mov	 DWORD PTR [edi+2672], ecx

; 4089 : 	m_strScaleRQ = p_szRQ;

  000c4	8d 8f 74 0a 00
	00		 lea	 ecx, DWORD PTR [edi+2676]
  000ca	53		 push	 ebx
  000cb	ff 15 00 00 00
	00		 call	 DWORD PTR __imp_??4?$CStringT@DV?$StrTraitMFC_DLL@DV?$ChTraitsCRT@D@ATL@@@@@ATL@@QAEAAV01@PBD@Z

; 4090 : 
; 4091 : 	return m_naScaleType[ p_nColumn];

  000d1	8b 45 08	 mov	 eax, DWORD PTR _p_nColumn$[ebp]
  000d4	8b 84 87 34 06
	00 00		 mov	 eax, DWORD PTR [edi+eax*4+1588]

; 4092 : }

  000db	5f		 pop	 edi
  000dc	5e		 pop	 esi
  000dd	5b		 pop	 ebx
  000de	8b e5		 mov	 esp, ebp
  000e0	5d		 pop	 ebp
  000e1	c2 18 00	 ret	 24			; 00000018H
$LN10@GetScaleDR:
  000e4	5f		 pop	 edi
  000e5	5e		 pop	 esi
  000e6	83 c8 ff	 or	 eax, -1
  000e9	5b		 pop	 ebx
  000ea	8b e5		 mov	 esp, ebp
  000ec	5d		 pop	 ebp
  000ed	c2 18 00	 ret	 24			; 00000018H
?GetScaleDRIandTimeAllData@CXScaleManagerImp@@UAEHHAAPAV?$CDataBlockList@H$0CAA@@@AAPAV?$CDataBlockList@Utm@@$0CAA@@@W4HORZSCALEDRAWERTYPE@CScaleBaseData@@PBDAAH@Z ENDP ; CXScaleManagerImp::GetScaleDRIandTimeAllData
_TEXT	ENDS
; Function compile flags: /Ogtp
; File D:\git\src\IBK\IBK_DRFN\ProjSrc\SrcChartEx\ChartOCX\ChartObject\XScaleManagerImp.h
;	COMDAT ?GetPriceMinMaxShowType@CXScaleManagerImp@@MAEHXZ
_TEXT	SEGMENT
?GetPriceMinMaxShowType@CXScaleManagerImp@@MAEHXZ PROC	; CXScaleManagerImp::GetPriceMinMaxShowType, COMDAT
; _this$ = ecx

; 581  : 	int		GetPriceMinMaxShowType( void)		{	return m_nMinMaxRatio;	}

  00000	8b 81 78 0a 00
	00		 mov	 eax, DWORD PTR [ecx+2680]
  00006	c3		 ret	 0
?GetPriceMinMaxShowType@CXScaleManagerImp@@MAEHXZ ENDP	; CXScaleManagerImp::GetPriceMinMaxShowType
_TEXT	ENDS
; Function compile flags: /Ogtp
; File D:\git\src\IBK\IBK_DRFN\ProjSrc\SrcChartEx\ChartOCX\ChartObject\XScaleManagerImp.h
;	COMDAT ?SetPriceMinMaxShowType@CXScaleManagerImp@@MAEXH@Z
_TEXT	SEGMENT
_nMinMaxRatio$ = 8					; size = 4
?SetPriceMinMaxShowType@CXScaleManagerImp@@MAEXH@Z PROC	; CXScaleManagerImp::SetPriceMinMaxShowType, COMDAT
; _this$ = ecx

; 580  : 	void	SetPriceMinMaxShowType( int nMinMaxRatio) { m_nMinMaxRatio = nMinMaxRatio; }

  00000	55		 push	 ebp
  00001	8b ec		 mov	 ebp, esp
  00003	8b 45 08	 mov	 eax, DWORD PTR _nMinMaxRatio$[ebp]
  00006	89 81 78 0a 00
	00		 mov	 DWORD PTR [ecx+2680], eax
  0000c	5d		 pop	 ebp
  0000d	c2 04 00	 ret	 4
?SetPriceMinMaxShowType@CXScaleManagerImp@@MAEXH@Z ENDP	; CXScaleManagerImp::SetPriceMinMaxShowType
_TEXT	ENDS
; Function compile flags: /Ogtp
; File D:\git\src\IBK\IBK_DRFN\ProjSrc\SrcChartEx\ChartOCX\ChartObject\XScaleManagerImp.cpp
; File D:\git\src\IBK\IBK_DRFN\ProjSrc\SrcChartEx\ChartOCX\Include_Chart\Dll_Load\XScaleManager.h
; File D:\git\src\IBK\IBK_DRFN\ProjSrc\SrcChartEx\ChartOCX\ChartObject\XScaleManagerImp.cpp
;	COMDAT ?IsSpecialTime@CXScaleManagerImp@@MAEHPBD_JAAJ@Z
_TEXT	SEGMENT
_p_szRQ$ = 8						; size = 4
_p_time$ = 12						; size = 8
_pValue$1 = 20						; size = 4
_p_lSpecialTimeCode$ = 20				; size = 4
?IsSpecialTime@CXScaleManagerImp@@MAEHPBD_JAAJ@Z PROC	; CXScaleManagerImp::IsSpecialTime, COMDAT
; _this$ = ecx

; 2806 : {

  00000	55		 push	 ebp
  00001	8b ec		 mov	 ebp, esp
  00003	56		 push	 esi
  00004	57		 push	 edi

; 2807 : 	p_lSpecialTimeCode = 0;

  00005	8b 7d 14	 mov	 edi, DWORD PTR _p_lSpecialTimeCode$[ebp]
  00008	8b f1		 mov	 esi, ecx

; 2808 : 	int nRQ = GetRQIndexFromString( p_szRQ);

  0000a	51		 push	 ecx
  0000b	8b cc		 mov	 ecx, esp
  0000d	ff 75 08	 push	 DWORD PTR _p_szRQ$[ebp]
  00010	c7 07 00 00 00
	00		 mov	 DWORD PTR [edi], 0
  00016	ff 15 00 00 00
	00		 call	 DWORD PTR __imp_??0?$CStringT@DV?$StrTraitMFC_DLL@DV?$ChTraitsCRT@D@ATL@@@@@ATL@@QAE@PBD@Z
  0001c	8b 06		 mov	 eax, DWORD PTR [esi]
  0001e	8b ce		 mov	 ecx, esi
  00020	ff 50 04	 call	 DWORD PTR [eax+4]
  00023	8b c8		 mov	 ecx, eax

; 2809 : 	if( nRQ < 0) return FALSE;

  00025	85 c9		 test	 ecx, ecx
  00027	79 08		 jns	 SHORT $LN2@IsSpecialT
  00029	33 c0		 xor	 eax, eax

; 2811 : }

  0002b	5f		 pop	 edi
  0002c	5e		 pop	 esi
  0002d	5d		 pop	 ebp
  0002e	c2 10 00	 ret	 16			; 00000010H
$LN2@IsSpecialT:

; 2810 : 	return m_pamapSpecialTime[ nRQ]->Lookup( p_time, p_lSpecialTimeCode);

  00031	8b 86 a4 00 00
	00		 mov	 eax, DWORD PTR [esi+164]
; File D:\git\src\IBK\IBK_DRFN\ProjSrc\SrcChartEx\ChartOCX\Include_Chart\Dll_Load\XScaleManager.h

; 38   : 				BOOL bResult = CMapPtrToPtr::Lookup( ( void *)key, pValue);

  00037	8d 55 14	 lea	 edx, DWORD PTR _pValue$1[ebp]
  0003a	52		 push	 edx
  0003b	ff 75 0c	 push	 DWORD PTR _p_time$[ebp]
  0003e	8b 0c 88	 mov	 ecx, DWORD PTR [eax+ecx*4]
  00041	e8 00 00 00 00	 call	 ?Lookup@CMapPtrToPtr@@QBEHPAXAAPAX@Z ; CMapPtrToPtr::Lookup

; 39   : 				rValue = ( long)pValue;

  00046	8b 4d 14	 mov	 ecx, DWORD PTR _pValue$1[ebp]
  00049	89 0f		 mov	 DWORD PTR [edi], ecx
; File D:\git\src\IBK\IBK_DRFN\ProjSrc\SrcChartEx\ChartOCX\ChartObject\XScaleManagerImp.cpp

; 2811 : }

  0004b	5f		 pop	 edi
  0004c	5e		 pop	 esi
  0004d	5d		 pop	 ebp
  0004e	c2 10 00	 ret	 16			; 00000010H
?IsSpecialTime@CXScaleManagerImp@@MAEHPBD_JAAJ@Z ENDP	; CXScaleManagerImp::IsSpecialTime
_TEXT	ENDS
; Function compile flags: /Ogtp
; File D:\git\src\IBK\IBK_DRFN\ProjSrc\SrcChartEx\ChartOCX\ChartObject\XScaleManagerImp.cpp
; File C:\Program Files (x86)\Windows Kits\10\Include\10.0.22000.0\ucrt\time.h
; File D:\git\src\IBK\IBK_DRFN\ProjSrc\SrcChartEx\ChartOCX\ChartObject\XScaleManagerImp.cpp
; File C:\Program Files (x86)\Windows Kits\10\Include\10.0.22000.0\ucrt\time.h
; File D:\git\src\IBK\IBK_DRFN\ProjSrc\SrcChartEx\ChartOCX\ChartObject\XScaleManagerImp.cpp
; File C:\Program Files (x86)\Windows Kits\10\Include\10.0.22000.0\ucrt\time.h
; File C:\Program Files (x86)\Microsoft Visual Studio\2019\Community\VC\Tools\MSVC\14.29.30133\atlmfc\include\afxcoll.inl
; File D:\git\src\IBK\IBK_DRFN\ProjSrc\SrcChartEx\ChartOCX\ChartObject\XScaleManagerImp.cpp
; File C:\Program Files (x86)\Microsoft Visual Studio\2019\Community\VC\Tools\MSVC\14.29.30133\atlmfc\include\afxcoll.inl
; File D:\git\src\IBK\IBK_DRFN\ProjSrc\SrcChartEx\ChartOCX\ChartObject\XScaleManagerImp.cpp
; File C:\Program Files (x86)\Microsoft Visual Studio\2019\Community\VC\Tools\MSVC\14.29.30133\atlmfc\include\afxtempl.h
; File D:\git\src\IBK\IBK_DRFN\ProjSrc\SrcChartEx\ChartOCX\ChartObject\XScaleManagerImp.cpp
;	COMDAT ?PushScaleDataTime@CXScaleManagerImp@@IAEXH_JH@Z
_TEXT	SEGMENT
_psnXGridTime$ = -52					; size = 4
_nTimeDiff$ = -48					; size = 2
_pXScaleGridTime$ = -44					; size = 4
_tmDRI$ = -40						; size = 36
__$ArrayPad$ = -4					; size = 4
_p_nDRI$ = 8						; size = 4
_p_timeDRI$ = 12					; size = 8
_p_bEndDRI$ = 20					; size = 4
?PushScaleDataTime@CXScaleManagerImp@@IAEXH_JH@Z PROC	; CXScaleManagerImp::PushScaleDataTime, COMDAT
; _this$ = ecx

; 1024 : {

  00000	55		 push	 ebp
  00001	8b ec		 mov	 ebp, esp
  00003	83 ec 34	 sub	 esp, 52			; 00000034H
  00006	a1 00 00 00 00	 mov	 eax, DWORD PTR ___security_cookie
  0000b	33 c5		 xor	 eax, ebp
  0000d	89 45 fc	 mov	 DWORD PTR __$ArrayPad$[ebp], eax

; 1025 : 	if( p_timeDRI < 0)

  00010	83 7d 10 00	 cmp	 DWORD PTR _p_timeDRI$[ebp+4], 0
  00014	53		 push	 ebx
  00015	56		 push	 esi
  00016	57		 push	 edi
  00017	8b f1		 mov	 esi, ecx
  00019	0f 8c cb 00 00
	00		 jl	 $LN3@PushScaleD
  0001f	7f 0a		 jg	 SHORT $LN22@PushScaleD
  00021	83 7d 0c 00	 cmp	 DWORD PTR _p_timeDRI$[ebp], 0
  00025	0f 82 bf 00 00
	00		 jb	 $LN3@PushScaleD
$LN22@PushScaleD:
; File C:\Program Files (x86)\Windows Kits\10\Include\10.0.22000.0\ucrt\time.h

; 499  :             return _localtime64(_Time);

  0002b	8d 45 0c	 lea	 eax, DWORD PTR _p_timeDRI$[ebp]
  0002e	50		 push	 eax
  0002f	ff 15 00 00 00
	00		 call	 DWORD PTR __imp___localtime64
  00035	83 c4 04	 add	 esp, 4
; File D:\git\src\IBK\IBK_DRFN\ProjSrc\SrcChartEx\ChartOCX\ChartObject\XScaleManagerImp.cpp

; 1033 : 	if( !ptmCur) return;

  00038	85 c0		 test	 eax, eax
  0003a	0f 84 aa 00 00
	00		 je	 $LN3@PushScaleD

; 1034 : 	tm tmDRI = *ptmCur;
; 1035 : 
; 1036 : 	// (2009/6/4 - Seung-Won, Bae) for ceiled Minute Scale with second time data.
; 1037 : 	if( m_bCeiling && 0 < tmDRI.tm_sec)

  00040	83 be e4 05 00
	00 00		 cmp	 DWORD PTR [esi+1508], 0
  00047	0f 10 00	 movups	 xmm0, XMMWORD PTR [eax]
  0004a	0f 11 45 d8	 movups	 XMMWORD PTR _tmDRI$[ebp], xmm0
  0004e	0f 10 40 10	 movups	 xmm0, XMMWORD PTR [eax+16]
  00052	0f 11 45 e8	 movups	 XMMWORD PTR _tmDRI$[ebp+16], xmm0
  00056	8b 40 20	 mov	 eax, DWORD PTR [eax+32]
  00059	89 45 f8	 mov	 DWORD PTR _tmDRI$[ebp+32], eax
  0005c	74 1a		 je	 SHORT $LN6@PushScaleD
  0005e	83 7d d8 00	 cmp	 DWORD PTR _tmDRI$[ebp], 0
  00062	7e 14		 jle	 SHORT $LN6@PushScaleD
; File C:\Program Files (x86)\Windows Kits\10\Include\10.0.22000.0\ucrt\time.h

; 515  :             return _mktime64(_Tm);

  00064	8d 45 d8	 lea	 eax, DWORD PTR _tmDRI$[ebp]
; File D:\git\src\IBK\IBK_DRFN\ProjSrc\SrcChartEx\ChartOCX\ChartObject\XScaleManagerImp.cpp

; 1039 : 		tmDRI.tm_sec += 60 - tmDRI.tm_sec;

  00067	c7 45 d8 3c 00
	00 00		 mov	 DWORD PTR _tmDRI$[ebp], 60 ; 0000003cH
; File C:\Program Files (x86)\Windows Kits\10\Include\10.0.22000.0\ucrt\time.h

; 515  :             return _mktime64(_Tm);

  0006e	50		 push	 eax
  0006f	ff 15 00 00 00
	00		 call	 DWORD PTR __imp___mktime64
  00075	83 c4 04	 add	 esp, 4
$LN6@PushScaleD:
; File C:\Program Files (x86)\Microsoft Visual Studio\2019\Community\VC\Tools\MSVC\14.29.30133\atlmfc\include\afxcoll.inl

; 567  : 	{ return (m_nCount == 0) ? NULL : BEFORE_START_POSITION; }

  00078	8b 8e 24 06 00
	00		 mov	 ecx, DWORD PTR [esi+1572]
  0007e	8b c1		 mov	 eax, ecx
  00080	f7 d8		 neg	 eax
; File D:\git\src\IBK\IBK_DRFN\ProjSrc\SrcChartEx\ChartOCX\ChartObject\XScaleManagerImp.cpp

; 1043 : 	signed short nTimeDiff = 0;

  00082	c7 45 d0 00 00
	00 00		 mov	 DWORD PTR _nTimeDiff$[ebp], 0

; 1044 : 	CXScaleGridTime *pXScaleGridTime = NULL;

  00089	c7 45 d4 00 00
	00 00		 mov	 DWORD PTR _pXScaleGridTime$[ebp], 0
; File C:\Program Files (x86)\Microsoft Visual Studio\2019\Community\VC\Tools\MSVC\14.29.30133\atlmfc\include\afxcoll.inl

; 567  : 	{ return (m_nCount == 0) ? NULL : BEFORE_START_POSITION; }

  00090	1b c0		 sbb	 eax, eax
; File D:\git\src\IBK\IBK_DRFN\ProjSrc\SrcChartEx\ChartOCX\ChartObject\XScaleManagerImp.cpp

; 1045 : 	POSITION psnXGridTime = m_mapXGridTime.GetStartPosition();

  00092	89 45 cc	 mov	 DWORD PTR _psnXGridTime$[ebp], eax
  00095	85 c9		 test	 ecx, ecx

; 1046 : 	while( psnXGridTime)

  00097	74 51		 je	 SHORT $LN3@PushScaleD
  00099	8b 7d 14	 mov	 edi, DWORD PTR _p_bEndDRI$[ebp]
  0009c	8b 5d 08	 mov	 ebx, DWORD PTR _p_nDRI$[ebp]
  0009f	90		 npad	 1
$LL2@PushScaleD:
; File C:\Program Files (x86)\Microsoft Visual Studio\2019\Community\VC\Tools\MSVC\14.29.30133\atlmfc\include\afxtempl.h

; 2068 : 		{ BASE_CLASS::GetNextAssoc(rPosition, (typename BASE_CLASS::BASE_KEY&)rKey,

  000a0	8d 45 d4	 lea	 eax, DWORD PTR _pXScaleGridTime$[ebp]
  000a3	50		 push	 eax
  000a4	8d 45 d0	 lea	 eax, DWORD PTR _nTimeDiff$[ebp]
  000a7	50		 push	 eax
  000a8	8d 45 cc	 lea	 eax, DWORD PTR _psnXGridTime$[ebp]
  000ab	50		 push	 eax
  000ac	8d 8e 18 06 00
	00		 lea	 ecx, DWORD PTR [esi+1560]
  000b2	e8 00 00 00 00	 call	 ?GetNextAssoc@CMapWordToPtr@@QBEXAAPAU__POSITION@@AAGAAPAX@Z ; CMapWordToPtr::GetNextAssoc
; File D:\git\src\IBK\IBK_DRFN\ProjSrc\SrcChartEx\ChartOCX\ChartObject\XScaleManagerImp.cpp

; 1049 : 		if( !pXScaleGridTime) continue;

  000b7	8b 4d d4	 mov	 ecx, DWORD PTR _pXScaleGridTime$[ebp]
  000ba	85 c9		 test	 ecx, ecx
  000bc	74 26		 je	 SHORT $LN19@PushScaleD

; 1050 : 		pXScaleGridTime->PushScaleDataTime( nTimeDiff, p_nDRI, tmDRI, p_bEndDRI);

  000be	0f 10 45 d8	 movups	 xmm0, XMMWORD PTR _tmDRI$[ebp]
  000c2	8b 45 f8	 mov	 eax, DWORD PTR _tmDRI$[ebp+32]
  000c5	57		 push	 edi
  000c6	83 ec 24	 sub	 esp, 36			; 00000024H
