; Listing generated by Microsoft (R) Optimizing Compiler Version 19.29.30145.0 

	TITLE	D:\git\src\IBK\IBK_DRFN\#DRfn-CS\_Obj\AnalysisTool\AnalysisData.obj
	.686P
	.XMM
	include listing.inc
	.model	flat

INCLUDELIB MSVCRT
INCLUDELIB OLDNAMES

PUBLIC	??_C@_0BC@MMPGLPDH@RMS_ANALYSIS_FUNC@		; `string'
PUBLIC	??_C@_0O@DMAKNGHI@ANALYSIS_TOOL@		; `string'
;	COMDAT ??_C@_0O@DMAKNGHI@ANALYSIS_TOOL@
CONST	SEGMENT
??_C@_0O@DMAKNGHI@ANALYSIS_TOOL@ DB 'ANALYSIS_TOOL', 00H ; `string'
CONST	ENDS
;	COMDAT ??_C@_0BC@MMPGLPDH@RMS_ANALYSIS_FUNC@
CONST	SEGMENT
??_C@_0BC@MMPGLPDH@RMS_ANALYSIS_FUNC@ DB 'RMS_ANALYSIS_FUNC', 00H ; `string'
CONST	ENDS
PUBLIC	?__empty_global_delete@@YAXPAX@Z		; __empty_global_delete
PUBLIC	?__empty_global_delete@@YAXPAXI@Z		; __empty_global_delete
PUBLIC	??HATL@@YA?AV?$CStringT@DV?$StrTraitMFC_DLL@DV?$ChTraitsCRT@D@ATL@@@@@0@ABV10@0@Z ; ATL::operator+
PUBLIC	??1ILPCSTR133101@@QAE@XZ			; ILPCSTR133101::~ILPCSTR133101
PUBLIC	??0exception@std@@QAE@ABV01@@Z			; std::exception::exception
PUBLIC	??1exception@std@@UAE@XZ			; std::exception::~exception
PUBLIC	?what@exception@std@@UBEPBDXZ			; std::exception::what
PUBLIC	??_Gexception@std@@UAEPAXI@Z			; std::exception::`scalar deleting destructor'
PUBLIC	??0bad_alloc@std@@QAE@ABV01@@Z			; std::bad_alloc::bad_alloc
PUBLIC	??_Gbad_alloc@std@@UAEPAXI@Z			; std::bad_alloc::`scalar deleting destructor'
PUBLIC	??0bad_array_new_length@std@@QAE@XZ		; std::bad_array_new_length::bad_array_new_length
PUBLIC	??1bad_array_new_length@std@@UAE@XZ		; std::bad_array_new_length::~bad_array_new_length
PUBLIC	??0bad_array_new_length@std@@QAE@ABV01@@Z	; std::bad_array_new_length::bad_array_new_length
PUBLIC	??_Gbad_array_new_length@std@@UAEPAXI@Z		; std::bad_array_new_length::`scalar deleting destructor'
PUBLIC	?_Throw_bad_array_new_length@std@@YAXXZ		; std::_Throw_bad_array_new_length
PUBLIC	?_Tidy@?$deque@VCBlockRegion@@V?$allocator@VCBlockRegion@@@std@@@std@@AAEXXZ ; std::deque<CBlockRegion,std::allocator<CBlockRegion> >::_Tidy
PUBLIC	??1CBlockRegionList@@QAE@XZ			; CBlockRegionList::~CBlockRegionList
PUBLIC	??1CCoordinate@@QAE@XZ				; CCoordinate::~CCoordinate
PUBLIC	?_Tidy@?$deque@PAVCElement@@V?$allocator@PAVCElement@@@std@@@std@@AAEXXZ ; std::deque<CElement *,std::allocator<CElement *> >::_Tidy
PUBLIC	??1COrder@@QAE@XZ				; COrder::~COrder
PUBLIC	??_GCTree@@UAEPAXI@Z				; CTree::`scalar deleting destructor'
PUBLIC	??1CElementTree@@QAE@XZ				; CElementTree::~CElementTree
PUBLIC	??0CAnalysisData@@QAE@PAUHWND__@@W4CHART_MODE@CChartInfo@@@Z ; CAnalysisData::CAnalysisData
PUBLIC	??1CAnalysisData@@QAE@XZ			; CAnalysisData::~CAnalysisData
PUBLIC	?SetParent@CAnalysisData@@QAEXPAVCWnd@@@Z	; CAnalysisData::SetParent
PUBLIC	?SetMainBlock@CAnalysisData@@QAEXPAUIChartManager133101@@PAUIChartOCX133101@@@Z ; CAnalysisData::SetMainBlock
PUBLIC	?SetCurrentToolType@CAnalysisData@@QAEXW4TOOLTYPE@CAnalysis@@@Z ; CAnalysisData::SetCurrentToolType
PUBLIC	?GetParent@CAnalysisData@@QBEPAVCWnd@@XZ	; CAnalysisData::GetParent
PUBLIC	?GetMainBlock@CAnalysisData@@QBEPAUIChartManager133101@@XZ ; CAnalysisData::GetMainBlock
PUBLIC	?GetPacketManager@CAnalysisData@@QBEPAUIPacketManager133101@@XZ ; CAnalysisData::GetPacketManager
PUBLIC	?GetChartOCX@CAnalysisData@@QBEPAUIChartOCX133101@@XZ ; CAnalysisData::GetChartOCX
PUBLIC	?GetCurrentToolType@CAnalysisData@@QBE?AW4TOOLTYPE@CAnalysis@@XZ ; CAnalysisData::GetCurrentToolType
PUBLIC	?GetElementTree@CAnalysisData@@QBEABVCElementTree@@XZ ; CAnalysisData::GetElementTree
PUBLIC	?GetElementTree@CAnalysisData@@QAEAAVCElementTree@@XZ ; CAnalysisData::GetElementTree
PUBLIC	?GetOCXPath@CAnalysisData@@QBE?AV?$CStringT@DV?$StrTraitMFC_DLL@DV?$ChTraitsCRT@D@ATL@@@@@ATL@@XZ ; CAnalysisData::GetOCXPath
PUBLIC	?GetUserPath@CAnalysisData@@QBE?AV?$CStringT@DV?$StrTraitMFC_DLL@DV?$ChTraitsCRT@D@ATL@@@@@ATL@@XZ ; CAnalysisData::GetUserPath
PUBLIC	?RegisterElementToOrderManager@CAnalysisData@@QAEXJ@Z ; CAnalysisData::RegisterElementToOrderManager
PUBLIC	?UnRegisterElementToOrderManager@CAnalysisData@@QAEXJ@Z ; CAnalysisData::UnRegisterElementToOrderManager
PUBLIC	?GetDisplayAttributes@CAnalysisData@@QBE?AVCDisplayAttributes@@XZ ; CAnalysisData::GetDisplayAttributes
PUBLIC	?GetVertScaleRegion@CAnalysisData@@QAE_NAAVCRect@@0@Z ; CAnalysisData::GetVertScaleRegion
PUBLIC	?GetHorzScaleRegion@CAnalysisData@@QAE_NAAVCRect@@0@Z ; CAnalysisData::GetHorzScaleRegion
PUBLIC	?GetVertScaleType@CAnalysisData@@QBE_NABVCPoint@@AA_N1@Z ; CAnalysisData::GetVertScaleType
PUBLIC	?GetCoordinateCalculatorData@CAnalysisData@@QBE?AVCCoordinateCalculatorData@@ABVCPoint@@@Z ; CAnalysisData::GetCoordinateCalculatorData
PUBLIC	?GetBlockIndexInPoint@CAnalysisData@@QBE?AVCBlockIndex@@ABVCPoint@@@Z ; CAnalysisData::GetBlockIndexInPoint
PUBLIC	?GetBlockIndexInElement@CAnalysisData@@QBE?AVCBlockIndex@@J@Z ; CAnalysisData::GetBlockIndexInElement
PUBLIC	?PointInGraphRegion@CAnalysisData@@QBE_NABVCPoint@@@Z ; CAnalysisData::PointInGraphRegion
PUBLIC	?SendMessageToParent@CAnalysisData@@QAEXW4CHARTOBJECT@CCursorShape@@@Z ; CAnalysisData::SendMessageToParent
PUBLIC	?InvalidateAndSendMessageToParent@CAnalysisData@@QAEXW4CHARTOBJECT@CCursorShape@@@Z ; CAnalysisData::InvalidateAndSendMessageToParent
PUBLIC	?Invalidate@CAnalysisData@@QAEXXZ		; CAnalysisData::Invalidate
PUBLIC	?DrawElement@CAnalysisData@@QAEXPAVCDC@@PAVCElement@@@Z ; CAnalysisData::DrawElement
PUBLIC	?CopyElement@CAnalysisData@@QAEPAVCElement@@PAV2@@Z ; CAnalysisData::CopyElement
PUBLIC	?InsertElementTree@CAnalysisData@@QAE_NABVCBlockIndex@@@Z ; CAnalysisData::InsertElementTree
PUBLIC	?GetUndoRedoManager@CAnalysisData@@QBEABVCUndoRedoManager@@XZ ; CAnalysisData::GetUndoRedoManager
PUBLIC	?GetUndoRedoManager@CAnalysisData@@QAEAAVCUndoRedoManager@@XZ ; CAnalysisData::GetUndoRedoManager
PUBLIC	?MoveElement@CAnalysisData@@QAEHPAVCElement@@V?$CStringT@DV?$StrTraitMFC_DLL@DV?$ChTraitsCRT@D@ATL@@@@@ATL@@@Z ; CAnalysisData::MoveElement
PUBLIC	?GetDatePacket@CAnalysisData@@QBEPAUIPacket133101@@PBD@Z ; CAnalysisData::GetDatePacket
PUBLIC	??4CDrawingRegions@@QAEAAV0@ABV0@@Z		; CDrawingRegions::operator=
PUBLIC	??0CDrawingRegions@@QAE@XZ			; CDrawingRegions::CDrawingRegions
PUBLIC	?Initialize@CDrawingRegions@@QAEXXZ		; CDrawingRegions::Initialize
PUBLIC	?SetDrawingRegions@CDrawingRegions@@QAEXPAUIChartManager133101@@ABVCPoint@@@Z ; CDrawingRegions::SetDrawingRegions
PUBLIC	?SetDrawingRegions@CDrawingRegions@@QAEXPAUIChartManager133101@@H@Z ; CDrawingRegions::SetDrawingRegions
PUBLIC	?GetBlockRegionList@CDrawingRegions@@QBE?AVCBlockRegionList@@XZ ; CDrawingRegions::GetBlockRegionList
PUBLIC	?GetBlockRegionList@CDrawingRegions@@QAEAAVCBlockRegionList@@XZ ; CDrawingRegions::GetBlockRegionList
PUBLIC	?GetBlockRegion@CDrawingRegions@@QBE?AVCBlockRegion@@H@Z ; CDrawingRegions::GetBlockRegion
PUBLIC	?GetGraphPartRegion@CDrawingRegions@@QBE?AVCGraphPartRegion@@H@Z ; CDrawingRegions::GetGraphPartRegion
PUBLIC	?GetCurrentGraphPartRegion@CDrawingRegions@@QBE?AVCGraphPartRegion@@XZ ; CDrawingRegions::GetCurrentGraphPartRegion
PUBLIC	?GetRowNumber@CDrawingRegions@@QBEHABVCPoint@@@Z ; CDrawingRegions::GetRowNumber
PUBLIC	?GetCount@CDrawingRegions@@QBEHXZ		; CDrawingRegions::GetCount
PUBLIC	?GetFullGraphRegion@CDrawingRegions@@QBE?AVCRect@@H@Z ; CDrawingRegions::GetFullGraphRegion
PUBLIC	?GetFullGraphRegion@CDrawingRegions@@QBE?AVCRect@@ABVCPoint@@@Z ; CDrawingRegions::GetFullGraphRegion
PUBLIC	?GetCurrentFullGraphRegion@CDrawingRegions@@QBE?AVCRect@@XZ ; CDrawingRegions::GetCurrentFullGraphRegion
PUBLIC	?GetUnmixedGraphRegion@CDrawingRegions@@QBE?AVCRect@@H@Z ; CDrawingRegions::GetUnmixedGraphRegion
PUBLIC	?GetUnmixedGraphRegion@CDrawingRegions@@QBE?AVCRect@@ABVCPoint@@@Z ; CDrawingRegions::GetUnmixedGraphRegion
PUBLIC	?GetCurrentUnmixedGraphRegion@CDrawingRegions@@QBE?AVCRect@@XZ ; CDrawingRegions::GetCurrentUnmixedGraphRegion
PUBLIC	?PointInDrawingRegionsInColumn@CDrawingRegions@@QBE_NABVCPoint@@@Z ; CDrawingRegions::PointInDrawingRegionsInColumn
PUBLIC	?PointInCurrentRegion@CDrawingRegions@@QBE_NABVCPoint@@@Z ; CDrawingRegions::PointInCurrentRegion
PUBLIC	?DoseGetDrawingRegionAgain@CDrawingRegions@@AAE_NABVCPoint@@@Z ; CDrawingRegions::DoseGetDrawingRegionAgain
PUBLIC	?SetDrawingRegions_Column@CDrawingRegions@@AAEXPAUIChartManager133101@@ABVCPoint@@@Z ; CDrawingRegions::SetDrawingRegions_Column
PUBLIC	?SetDrawingRegions_Row@CDrawingRegions@@AAEXPAUIChartManager133101@@ABVCPoint@@@Z ; CDrawingRegions::SetDrawingRegions_Row
PUBLIC	?SetDrawingRegions_Column@CDrawingRegions@@AAEXPAUIChartManager133101@@H@Z ; CDrawingRegions::SetDrawingRegions_Column
PUBLIC	?SetDrawingRegions_Row@CDrawingRegions@@AAEXPAUIChartManager133101@@H@Z ; CDrawingRegions::SetDrawingRegions_Row
PUBLIC	??4CDisplayAttributes@@QAEAAV0@ABV0@@Z		; CDisplayAttributes::operator=
PUBLIC	??0CDisplayAttributes@@QAE@XZ			; CDisplayAttributes::CDisplayAttributes
PUBLIC	??0CDisplayAttributes@@QAE@HH@Z			; CDisplayAttributes::CDisplayAttributes
PUBLIC	?SetDataStartInBlock@CDisplayAttributes@@QAEXH@Z ; CDisplayAttributes::SetDataStartInBlock
PUBLIC	?SetDataEndInBlock@CDisplayAttributes@@QAEXH@Z	; CDisplayAttributes::SetDataEndInBlock
PUBLIC	?GetDataStartInBlock@CDisplayAttributes@@QBEHXZ	; CDisplayAttributes::GetDataStartInBlock
PUBLIC	?GetDataEndInBlock@CDisplayAttributes@@QBEHXZ	; CDisplayAttributes::GetDataEndInBlock
PUBLIC	?GetDataCountInBlock@CDisplayAttributes@@QBEHXZ	; CDisplayAttributes::GetDataCountInBlock
PUBLIC	?IsAllValueBiggerThanZero@CDisplayAttributes@@QBE_NXZ ; CDisplayAttributes::IsAllValueBiggerThanZero
PUBLIC	??4CRegion@@QAEAAV0@ABV0@@Z			; CRegion::operator=
PUBLIC	??0CRegion@@QAE@XZ				; CRegion::CRegion
PUBLIC	??0CRegion@@QAE@ABV0@@Z				; CRegion::CRegion
PUBLIC	??0CRegion@@QAE@ABVCRect@@ABVCDisplayAttributes@@@Z ; CRegion::CRegion
PUBLIC	?SetRect@CRegion@@QAEXABVCRect@@@Z		; CRegion::SetRect
PUBLIC	?SetDisplayAttributes@CRegion@@QAEXABVCDisplayAttributes@@@Z ; CRegion::SetDisplayAttributes
PUBLIC	?GetRect@CRegion@@QBE?AVCRect@@XZ		; CRegion::GetRect
PUBLIC	?GetDisplayAttributes@CRegion@@QBE?AVCDisplayAttributes@@XZ ; CRegion::GetDisplayAttributes
PUBLIC	?DoesIndexInDisplayAttributes@CRegion@@QBE_NH@Z	; CRegion::DoesIndexInDisplayAttributes
PUBLIC	??4CDisplayData@@QAEAAV0@ABV0@@Z		; CDisplayData::operator=
PUBLIC	??0CDisplayData@@QAE@XZ				; CDisplayData::CDisplayData
PUBLIC	??0CDisplayData@@QAE@W4COORDINATETYPE@CAnalysis@@ABVCGraphPartRegion@@ABVCDisplayAttributes@@@Z ; CDisplayData::CDisplayData
PUBLIC	?SetCoordinateType@CDisplayData@@QAEXW4COORDINATETYPE@CAnalysis@@@Z ; CDisplayData::SetCoordinateType
PUBLIC	?SetDisplayAttributes@CDisplayData@@QAEXABVCDisplayAttributes@@@Z ; CDisplayData::SetDisplayAttributes
PUBLIC	?SetGraphPartRegion@CDisplayData@@QAEXABVCGraphPartRegion@@@Z ; CDisplayData::SetGraphPartRegion
PUBLIC	?IsRelativePointType@CDisplayData@@QBE_NXZ	; CDisplayData::IsRelativePointType
PUBLIC	?GetCoordinateType@CDisplayData@@QBE?AW4COORDINATETYPE@CAnalysis@@XZ ; CDisplayData::GetCoordinateType
PUBLIC	?GetDisplayAttributes@CDisplayData@@QBE?AVCDisplayAttributes@@XZ ; CDisplayData::GetDisplayAttributes
PUBLIC	?GetGraphPartRegion@CDisplayData@@QBE?AVCGraphPartRegion@@XZ ; CDisplayData::GetGraphPartRegion
PUBLIC	?GetDisplayRegion@CDisplayData@@QBE?AVCRect@@XZ	; CDisplayData::GetDisplayRegion
PUBLIC	?GetCoordinateCalRegion@CDisplayData@@QBE?AVCRect@@XZ ; CDisplayData::GetCoordinateCalRegion
PUBLIC	??4CExtractingDataOfModifyType@@QAEAAV0@ABV0@@Z	; CExtractingDataOfModifyType::operator=
PUBLIC	??0CExtractingDataOfModifyType@@QAE@PAUIChartManager133101@@@Z ; CExtractingDataOfModifyType::CExtractingDataOfModifyType
PUBLIC	??0CExtractingDataOfModifyType@@QAE@PAVCDrawingRegions@@ABVCPoint@@PAUIChartManager133101@@@Z ; CExtractingDataOfModifyType::CExtractingDataOfModifyType
PUBLIC	?SetCoordinateCalculatorData@CExtractingDataOfModifyType@@QAEXABVCCoordinateCalculatorData@@@Z ; CExtractingDataOfModifyType::SetCoordinateCalculatorData
PUBLIC	?SetRowSetIndex@CExtractingDataOfModifyType@@QAEXH@Z ; CExtractingDataOfModifyType::SetRowSetIndex
PUBLIC	?GetRowSetIndex@CExtractingDataOfModifyType@@QBEHXZ ; CExtractingDataOfModifyType::GetRowSetIndex
PUBLIC	?GetDrawingRegions@CExtractingDataOfModifyType@@QBEPAVCDrawingRegions@@XZ ; CExtractingDataOfModifyType::GetDrawingRegions
PUBLIC	?GetMousePoint@CExtractingDataOfModifyType@@QBE?AVCPoint@@XZ ; CExtractingDataOfModifyType::GetMousePoint
PUBLIC	?GetCoordinateCalculatorData@CExtractingDataOfModifyType@@QBE?AVCCoordinateCalculatorData@@XZ ; CExtractingDataOfModifyType::GetCoordinateCalculatorData
PUBLIC	?GetCoordinateCalculatorData@CExtractingDataOfModifyType@@QAEAAVCCoordinateCalculatorData@@XZ ; CExtractingDataOfModifyType::GetCoordinateCalculatorData
PUBLIC	?GetDisplayAttributes@CExtractingDataOfModifyType@@QBE?AVCDisplayAttributes@@XZ ; CExtractingDataOfModifyType::GetDisplayAttributes
PUBLIC	?GetDrawingRegionCount@CExtractingDataOfModifyType@@QBEHXZ ; CExtractingDataOfModifyType::GetDrawingRegionCount
PUBLIC	?GetGraphPartRegion@CExtractingDataOfModifyType@@QBE?AVCGraphPartRegion@@H@Z ; CExtractingDataOfModifyType::GetGraphPartRegion
PUBLIC	?GetFullGraphRegionInMousePoint@CExtractingDataOfModifyType@@QBE?AVCRect@@XZ ; CExtractingDataOfModifyType::GetFullGraphRegionInMousePoint
PUBLIC	?IsFindElement@CExtractingDataOfModifyType@@QBE_NXZ ; CExtractingDataOfModifyType::IsFindElement
PUBLIC	?IsPointInRowSetRegion@CExtractingDataOfModifyType@@QBE_NXZ ; CExtractingDataOfModifyType::IsPointInRowSetRegion
PUBLIC	?GetBlockRegion@CExtractingDataOfModifyType@@ABE?AVCBlockRegion@@H@Z ; CExtractingDataOfModifyType::GetBlockRegion
PUBLIC	?GetFullGraphRegion@CExtractingDataOfModifyType@@ABE?AVCRect@@H@Z ; CExtractingDataOfModifyType::GetFullGraphRegion
PUBLIC	??0CElementModifyData@@QAE@XZ			; CElementModifyData::CElementModifyData
PUBLIC	??0CElementModifyData@@QAE@ABV0@@Z		; CElementModifyData::CElementModifyData
PUBLIC	??1CElementModifyData@@QAE@XZ			; CElementModifyData::~CElementModifyData
PUBLIC	??4CElementModifyData@@QAEAAV0@ABV0@@Z		; CElementModifyData::operator=
PUBLIC	?SetModifyType@CElementModifyData@@QAEXW4ModifyType@CToolEnumData@@@Z ; CElementModifyData::SetModifyType
PUBLIC	?SetPacket_X@CElementModifyData@@QAEXPAUIPacket133101@@@Z ; CElementModifyData::SetPacket_X
PUBLIC	?SetPoint@CElementModifyData@@QAEXABVCCoordinate@@@Z ; CElementModifyData::SetPoint
PUBLIC	?SetIChartManager@CElementModifyData@@QAEXPAUIChartManager133101@@@Z ; CElementModifyData::SetIChartManager
PUBLIC	?GetModifyType@CElementModifyData@@QBE?AW4ModifyType@CToolEnumData@@XZ ; CElementModifyData::GetModifyType
PUBLIC	?GetPacket_XIndex@CElementModifyData@@QBEHN@Z	; CElementModifyData::GetPacket_XIndex
PUBLIC	?GetPacket_XValue@CElementModifyData@@QBENH@Z	; CElementModifyData::GetPacket_XValue
PUBLIC	?GetPacket_X@CElementModifyData@@QBEPAUIPacket133101@@XZ ; CElementModifyData::GetPacket_X
PUBLIC	?GetPoint@CElementModifyData@@QBE?AVCCoordinate@@XZ ; CElementModifyData::GetPoint
PUBLIC	?GetModifyPoint@CElementModifyData@@QBE?AVCCoordinate@@ABV2@@Z ; CElementModifyData::GetModifyPoint
PUBLIC	?GetIChartManager@CElementModifyData@@QBEPAUIChartManager133101@@XZ ; CElementModifyData::GetIChartManager
PUBLIC	?GetBlockIndex@CElementModifyData@@QAEAAVCBlockIndex@@XZ ; CElementModifyData::GetBlockIndex
PUBLIC	?GetBlockIndex@CElementModifyData@@QBE?AVCBlockIndex@@XZ ; CElementModifyData::GetBlockIndex
PUBLIC	?SetBlockIndex@CElementModifyData@@QAE_NABVCPoint@@@Z ; CElementModifyData::SetBlockIndex
PUBLIC	?SetBlockIndex@CElementModifyData@@QAE_NABVCBlockIndex@@@Z ; CElementModifyData::SetBlockIndex
PUBLIC	?GetModifyPoint_Center@CElementModifyData@@ABE?AVCCoordinate@@ABV2@@Z ; CElementModifyData::GetModifyPoint_Center
PUBLIC	??4CSelectedElementDrawingData@@QAEAAV0@ABV0@@Z	; CSelectedElementDrawingData::operator=
PUBLIC	??0CSelectedElementDrawingData@@QAE@W4ModifyType@CToolEnumData@@PAVCDrawingRegions@@ABVCCoordinateCalculatorData@@ABVCPoints@@@Z ; CSelectedElementDrawingData::CSelectedElementDrawingData
PUBLIC	?GetModifyType@CSelectedElementDrawingData@@QBE?AW4ModifyType@CToolEnumData@@XZ ; CSelectedElementDrawingData::GetModifyType
PUBLIC	?GetDrawingRegions@CSelectedElementDrawingData@@QAEPAVCDrawingRegions@@XZ ; CSelectedElementDrawingData::GetDrawingRegions
PUBLIC	?GetDrawingRegions@CSelectedElementDrawingData@@QBEPAVCDrawingRegions@@XZ ; CSelectedElementDrawingData::GetDrawingRegions
PUBLIC	?GetCoordinateCalculatorData@CSelectedElementDrawingData@@QBEABVCCoordinateCalculatorData@@XZ ; CSelectedElementDrawingData::GetCoordinateCalculatorData
PUBLIC	?GetPoint@CSelectedElementDrawingData@@QBE?AVCPoint@@XZ ; CSelectedElementDrawingData::GetPoint
PUBLIC	?GetCoordinate@CSelectedElementDrawingData@@QBE?AVCCoordinate@@XZ ; CSelectedElementDrawingData::GetCoordinate
PUBLIC	?GetSelectedDrawPoint@CSelectedElementDrawingData@@QBE?AVCPoint@@ABW4COORDINATETYPE@CAnalysis@@_NABVCCoordinate@@@Z ; CSelectedElementDrawingData::GetSelectedDrawPoint
PUBLIC	?GetCurrentRegion@CSelectedElementDrawingData@@QBE?AVCRect@@XZ ; CSelectedElementDrawingData::GetCurrentRegion
PUBLIC	?GetCurrentGraphPartRegion@CSelectedElementDrawingData@@QBE?AVCGraphPartRegion@@XZ ; CSelectedElementDrawingData::GetCurrentGraphPartRegion
PUBLIC	?GetRegion@CSelectedElementDrawingData@@QBE?AVCRegion@@XZ ; CSelectedElementDrawingData::GetRegion
PUBLIC	?GetDisplayAttributes@CSelectedElementDrawingData@@QBE?AVCDisplayAttributes@@XZ ; CSelectedElementDrawingData::GetDisplayAttributes
PUBLIC	?GetVertScaleType@CSelectedElementDrawingData@@QBE?AVCVertScaleType@@XZ ; CSelectedElementDrawingData::GetVertScaleType
PUBLIC	?GetSelectedDrawPoint_Data@CSelectedElementDrawingData@@ABE?AVCPoint@@_NABVCCoordinate@@@Z ; CSelectedElementDrawingData::GetSelectedDrawPoint_Data
PUBLIC	?GetSelectedDrawPoint_Data_AutoPrice@CSelectedElementDrawingData@@ABE?AVCPoint@@ABVCCoordinate@@@Z ; CSelectedElementDrawingData::GetSelectedDrawPoint_Data_AutoPrice
PUBLIC	?GetSelectedDrawPoint_Data_NoAutoPrice@CSelectedElementDrawingData@@ABE?AVCPoint@@ABVCCoordinate@@@Z ; CSelectedElementDrawingData::GetSelectedDrawPoint_Data_NoAutoPrice
PUBLIC	?GetDrawingPoint@CSelectedElementDrawingData@@ABE?AVCPoint@@_NABVCCoordinate@@@Z ; CSelectedElementDrawingData::GetDrawingPoint
PUBLIC	?GetSelectedDrawPoint_Pixel@CSelectedElementDrawingData@@ABE?AVCPoint@@ABVCCoordinate@@@Z ; CSelectedElementDrawingData::GetSelectedDrawPoint_Pixel
PUBLIC	??4CElementPointList@@QAEAAV0@ABV0@@Z		; CElementPointList::operator=
PUBLIC	??0CElementPointList@@QAE@XZ			; CElementPointList::CElementPointList
PUBLIC	?AddTail@CElementPointList@@QAEXPAVCCoordinate@@@Z ; CElementPointList::AddTail
PUBLIC	?RemoveAll@CElementPointList@@QAEXXZ		; CElementPointList::RemoveAll
PUBLIC	?SetVertDataType@CElementPointList@@QAEXABN@Z	; CElementPointList::SetVertDataType
PUBLIC	?GetVertDataType@CElementPointList@@QBENXZ	; CElementPointList::GetVertDataType
PUBLIC	?GetCount@CElementPointList@@QBEHXZ		; CElementPointList::GetCount
PUBLIC	?GetAt@CElementPointList@@QAEPAVCCoordinate@@H@Z ; CElementPointList::GetAt
PUBLIC	?GetAt@CElementPointList@@QBEPAVCCoordinate@@H@Z ; CElementPointList::GetAt
PUBLIC	?AddTail@?$CDequePointerList@VCCoordinate@@@@QAEXPAVCCoordinate@@@Z ; CDequePointerList<CCoordinate>::AddTail
PUBLIC	?_Xlen@?$deque@PAVCCoordinate@@V?$allocator@PAVCCoordinate@@@std@@@std@@ABEXXZ ; std::deque<CCoordinate *,std::allocator<CCoordinate *> >::_Xlen
PUBLIC	?_Growmap@?$deque@PAVCCoordinate@@V?$allocator@PAVCCoordinate@@@std@@@std@@AAEXI@Z ; std::deque<CCoordinate *,std::allocator<CCoordinate *> >::_Growmap
PUBLIC	?_Tidy@?$deque@PAVCCoordinate@@V?$allocator@PAVCCoordinate@@@std@@@std@@AAEXXZ ; std::deque<CCoordinate *,std::allocator<CCoordinate *> >::_Tidy
PUBLIC	??$uninitialized_copy@PAPAPAVCCoordinate@@PAPAPAV1@@std@@YAPAPAPAVCCoordinate@@QAPAPAV1@0PAPAPAV1@@Z ; std::uninitialized_copy<CCoordinate * * *,CCoordinate * * *>
PUBLIC	??$_Uninitialized_value_construct_n_unchecked1@PAPAPAVCCoordinate@@I@std@@YAPAPAPAVCCoordinate@@PAPAPAV1@I@Z ; std::_Uninitialized_value_construct_n_unchecked1<CCoordinate * * *,unsigned int>
PUBLIC	??$_Allocate_manually_vector_aligned@U_Default_allocate_traits@std@@@std@@YAPAXI@Z ; std::_Allocate_manually_vector_aligned<std::_Default_allocate_traits>
PUBLIC	??$_Zero_range@PAPAPAVCCoordinate@@@std@@YAPAPAPAVCCoordinate@@QAPAPAV1@0@Z ; std::_Zero_range<CCoordinate * * *>
PUBLIC	??$_Copy_memmove@PAPAPAVCCoordinate@@PAPAPAV1@@std@@YAPAPAPAVCCoordinate@@PAPAPAV1@00@Z ; std::_Copy_memmove<CCoordinate * * *,CCoordinate * * *>
PUBLIC	??_C@_00CNPNBAHC@@				; `string'
PUBLIC	??_7exception@std@@6B@				; std::exception::`vftable'
PUBLIC	??_C@_0BC@EOODALEL@Unknown?5exception@		; `string'
PUBLIC	??_7bad_alloc@std@@6B@				; std::bad_alloc::`vftable'
PUBLIC	??_7bad_array_new_length@std@@6B@		; std::bad_array_new_length::`vftable'
PUBLIC	??_C@_0BF@KINCDENJ@bad?5array?5new?5length@	; `string'
PUBLIC	__TI3?AVbad_array_new_length@std@@
PUBLIC	__CTA3?AVbad_array_new_length@std@@
PUBLIC	??_R0?AVbad_array_new_length@std@@@8		; std::bad_array_new_length `RTTI Type Descriptor'
PUBLIC	__CT??_R0?AVbad_array_new_length@std@@@8??0bad_array_new_length@std@@QAE@ABV01@@Z12
PUBLIC	??_R0?AVbad_alloc@std@@@8			; std::bad_alloc `RTTI Type Descriptor'
PUBLIC	__CT??_R0?AVbad_alloc@std@@@8??0bad_alloc@std@@QAE@ABV01@@Z12
PUBLIC	??_R0?AVexception@std@@@8			; std::exception `RTTI Type Descriptor'
PUBLIC	__CT??_R0?AVexception@std@@@8??0exception@std@@QAE@ABV01@@Z12
PUBLIC	??_7CTree@@6B@					; CTree::`vftable'
PUBLIC	?m_strAddInItemName@CAnalysisData@@2V?$CStringT@DV?$StrTraitMFC_DLL@DV?$ChTraitsCRT@D@ATL@@@@@ATL@@A ; CAnalysisData::m_strAddInItemName
PUBLIC	??_C@_07MGCPDNLD@DEFAULT@			; `string'
PUBLIC	??_C@_0P@IMPIBBAB@YYYYMMDDHHMMSS@		; `string'
PUBLIC	??_C@_0BC@KBDMBKEH@deque?$DMT?$DO?5too?5long@	; `string'
PUBLIC	??_R4exception@std@@6B@				; std::exception::`RTTI Complete Object Locator'
PUBLIC	??_R3exception@std@@8				; std::exception::`RTTI Class Hierarchy Descriptor'
PUBLIC	??_R2exception@std@@8				; std::exception::`RTTI Base Class Array'
PUBLIC	??_R1A@?0A@EA@exception@std@@8			; std::exception::`RTTI Base Class Descriptor at (0,-1,0,64)'
PUBLIC	??_R4bad_alloc@std@@6B@				; std::bad_alloc::`RTTI Complete Object Locator'
PUBLIC	??_R3bad_alloc@std@@8				; std::bad_alloc::`RTTI Class Hierarchy Descriptor'
PUBLIC	??_R2bad_alloc@std@@8				; std::bad_alloc::`RTTI Base Class Array'
PUBLIC	??_R1A@?0A@EA@bad_alloc@std@@8			; std::bad_alloc::`RTTI Base Class Descriptor at (0,-1,0,64)'
PUBLIC	??_R4bad_array_new_length@std@@6B@		; std::bad_array_new_length::`RTTI Complete Object Locator'
PUBLIC	??_R3bad_array_new_length@std@@8		; std::bad_array_new_length::`RTTI Class Hierarchy Descriptor'
PUBLIC	??_R2bad_array_new_length@std@@8		; std::bad_array_new_length::`RTTI Base Class Array'
PUBLIC	??_R1A@?0A@EA@bad_array_new_length@std@@8	; std::bad_array_new_length::`RTTI Base Class Descriptor at (0,-1,0,64)'
PUBLIC	??_R4CTree@@6B@					; CTree::`RTTI Complete Object Locator'
PUBLIC	??_R0?AVCTree@@@8				; CTree `RTTI Type Descriptor'
PUBLIC	??_R3CTree@@8					; CTree::`RTTI Class Hierarchy Descriptor'
PUBLIC	??_R2CTree@@8					; CTree::`RTTI Base Class Array'
PUBLIC	??_R1A@?0A@EA@CTree@@8				; CTree::`RTTI Base Class Descriptor at (0,-1,0,64)'
PUBLIC	__real@3ff0000000000000
PUBLIC	__real@bff0000000000000
EXTRN	??2@YAPAXI@Z:PROC				; operator new
EXTRN	??3@YAXPAXI@Z:PROC				; operator delete
EXTRN	_atexit:PROC
EXTRN	___std_terminate:PROC
EXTRN	__imp___invalid_parameter_noinfo_noreturn:PROC
EXTRN	__imp__RegisterWindowMessageA@4:PROC
EXTRN	__imp__SendMessageA@16:PROC
EXTRN	__imp__InvalidateRect@12:PROC
EXTRN	__imp__SetRectEmpty@4:PROC
EXTRN	__imp__CopyRect@8:PROC
EXTRN	__imp__IsRectEmpty@4:PROC
EXTRN	__imp__PtInRect@12:PROC
EXTRN	__imp__atof:PROC
EXTRN	__imp_?Concatenate@?$CSimpleStringT@D$00@ATL@@KAXAAV12@PBDH1H@Z:PROC
EXTRN	__imp_??0?$CStringT@DV?$StrTraitMFC_DLL@DV?$ChTraitsCRT@D@ATL@@@@@ATL@@QAE@PAUIAtlStringMgr@1@@Z:PROC
EXTRN	__imp_??0?$CStringT@DV?$StrTraitMFC_DLL@DV?$ChTraitsCRT@D@ATL@@@@@ATL@@QAE@ABV01@@Z:PROC
EXTRN	__imp_??0?$CStringT@DV?$StrTraitMFC_DLL@DV?$ChTraitsCRT@D@ATL@@@@@ATL@@QAE@PBD@Z:PROC
EXTRN	__imp_??1?$CStringT@DV?$StrTraitMFC_DLL@DV?$ChTraitsCRT@D@ATL@@@@@ATL@@QAE@XZ:PROC
EXTRN	__imp_??4?$CStringT@DV?$StrTraitMFC_DLL@DV?$ChTraitsCRT@D@ATL@@@@@ATL@@QAEAAV01@ABV01@@Z:PROC
EXTRN	__imp_?GetManager@?$CStringT@DV?$StrTraitMFC_DLL@DV?$ChTraitsCRT@D@ATL@@@@@ATL@@QBEPAUIAtlStringMgr@2@XZ:PROC
EXTRN	__imp_?Compare@?$CStringT@DV?$StrTraitMFC_DLL@DV?$ChTraitsCRT@D@ATL@@@@@ATL@@QBEHPBD@Z:PROC
EXTRN	__imp_?Right@?$CStringT@DV?$StrTraitMFC_DLL@DV?$ChTraitsCRT@D@ATL@@@@@ATL@@QBE?AV12@H@Z:PROC
EXTRN	__imp_?Left@?$CStringT@DV?$StrTraitMFC_DLL@DV?$ChTraitsCRT@D@ATL@@@@@ATL@@QBE?AV12@H@Z:PROC
EXTRN	??4CCoordinateCalculatorData@@QAEAAV0@ABV0@@Z:PROC ; CCoordinateCalculatorData::operator=
EXTRN	??0CCoordinateCalculatorData@@QAE@ABV0@@Z:PROC	; CCoordinateCalculatorData::CCoordinateCalculatorData
EXTRN	??0CCoordinateCalculatorData@@QAE@PAUIChartManager133101@@@Z:PROC ; CCoordinateCalculatorData::CCoordinateCalculatorData
EXTRN	??1CCoordinateCalculatorData@@QAE@XZ:PROC	; CCoordinateCalculatorData::~CCoordinateCalculatorData
EXTRN	?GetDisplayDataStart@CCoordinateCalculatorData@@QBEHXZ:PROC ; CCoordinateCalculatorData::GetDisplayDataStart
EXTRN	?GetDisplayDataEnd@CCoordinateCalculatorData@@QBEHXZ:PROC ; CCoordinateCalculatorData::GetDisplayDataEnd
EXTRN	?GetVertScaleType@CCoordinateCalculatorData@@QBE?AVCVertScaleType@@XZ:PROC ; CCoordinateCalculatorData::GetVertScaleType
EXTRN	?GetCoordinateCalculatorData@CCoordinateCalculatorData@@QAEXABVCPoint@@@Z:PROC ; CCoordinateCalculatorData::GetCoordinateCalculatorData
EXTRN	___std_exception_copy:PROC
EXTRN	___std_exception_destroy:PROC
EXTRN	??_Eexception@std@@UAEPAXI@Z:PROC		; std::exception::`vector deleting destructor'
EXTRN	??_Ebad_alloc@std@@UAEPAXI@Z:PROC		; std::bad_alloc::`vector deleting destructor'
EXTRN	??_Ebad_array_new_length@std@@UAEPAXI@Z:PROC	; std::bad_array_new_length::`vector deleting destructor'
EXTRN	?_Xlength_error@std@@YAXPBD@Z:PROC		; std::_Xlength_error
EXTRN	??4CGraphPartRegion@@QAEAAV0@ABV0@@Z:PROC	; CGraphPartRegion::operator=
EXTRN	??0CGraphPartRegion@@QAE@XZ:PROC		; CGraphPartRegion::CGraphPartRegion
EXTRN	??0CGraphPartRegion@@QAE@ABV0@@Z:PROC		; CGraphPartRegion::CGraphPartRegion
EXTRN	?GetFull@CGraphPartRegion@@QBE?AVCRect@@XZ:PROC	; CGraphPartRegion::GetFull
EXTRN	?GetUnmixed@CGraphPartRegion@@QBE?AVCRect@@XZ:PROC ; CGraphPartRegion::GetUnmixed
EXTRN	??0CBlockRegion@@QAE@XZ:PROC			; CBlockRegion::CBlockRegion
EXTRN	?GetGraphPartRegion@CBlockRegion@@QBE?AVCGraphPartRegion@@XZ:PROC ; CBlockRegion::GetGraphPartRegion
EXTRN	?GetFullGraphRegion@CBlockRegion@@QBE?AVCRect@@XZ:PROC ; CBlockRegion::GetFullGraphRegion
EXTRN	?GetUnmixedGraphRegion@CBlockRegion@@QBE?AVCRect@@XZ:PROC ; CBlockRegion::GetUnmixedGraphRegion
EXTRN	??4CBlockRegionList@@QAEAAV0@ABV0@@Z:PROC	; CBlockRegionList::operator=
EXTRN	??0CBlockRegionList@@QAE@XZ:PROC		; CBlockRegionList::CBlockRegionList
EXTRN	??0CBlockRegionList@@QAE@ABV0@@Z:PROC		; CBlockRegionList::CBlockRegionList
EXTRN	?RemoveAll@CBlockRegionList@@QAEXXZ:PROC	; CBlockRegionList::RemoveAll
EXTRN	?SetCurrentNumber@CBlockRegionList@@QAEXH@Z:PROC ; CBlockRegionList::SetCurrentNumber
EXTRN	?SetCurrentNumber@CBlockRegionList@@QAEXABVCPoint@@@Z:PROC ; CBlockRegionList::SetCurrentNumber
EXTRN	?GetCount@CBlockRegionList@@QBEHXZ:PROC		; CBlockRegionList::GetCount
EXTRN	?GetCurrentAt@CBlockRegionList@@QBE?AVCBlockRegion@@XZ:PROC ; CBlockRegionList::GetCurrentAt
EXTRN	?GetAt@CBlockRegionList@@QBE?AVCBlockRegion@@H@Z:PROC ; CBlockRegionList::GetAt
EXTRN	?GetFullGraphRegionSumInList@CBlockRegionList@@QBE?AVCRect@@XZ:PROC ; CBlockRegionList::GetFullGraphRegionSumInList
EXTRN	?GetNumber@CBlockRegionList@@QBEHABVCPoint@@@Z:PROC ; CBlockRegionList::GetNumber
EXTRN	?GetBlockRegionList@CBlockRegionList@@QAEHABVCPoint@@PAUIChartManager133101@@@Z:PROC ; CBlockRegionList::GetBlockRegionList
EXTRN	?GetBlockRegionList@CBlockRegionList@@QAEHHPAUIChartManager133101@@@Z:PROC ; CBlockRegionList::GetBlockRegionList
EXTRN	??4CCoordinate@@QAEAAV0@ABV0@@Z:PROC		; CCoordinate::operator=
EXTRN	??0CCoordinate@@QAE@XZ:PROC			; CCoordinate::CCoordinate
EXTRN	??0CCoordinate@@QAE@ABN0HABV?$CStringT@DV?$StrTraitMFC_DLL@DV?$ChTraitsCRT@D@ATL@@@@@ATL@@H@Z:PROC ; CCoordinate::CCoordinate
EXTRN	??0CCoordinate@@QAE@ABVCPoint@@@Z:PROC		; CCoordinate::CCoordinate
EXTRN	??0CCoordinate@@QAE@ABV0@@Z:PROC		; CCoordinate::CCoordinate
EXTRN	?GetX@CCoordinate@@QBENXZ:PROC			; CCoordinate::GetX
EXTRN	?GetY@CCoordinate@@QBENXZ:PROC			; CCoordinate::GetY
EXTRN	?GetPixel@CCoordinate@@QBE?AVCPoint@@XZ:PROC	; CCoordinate::GetPixel
EXTRN	?GetDateType@CCoordinate@@QBE?AV?$CStringT@DV?$StrTraitMFC_DLL@DV?$ChTraitsCRT@D@ATL@@@@@ATL@@XZ:PROC ; CCoordinate::GetDateType
EXTRN	?GetTimeDiff@CCoordinate@@QBEHXZ:PROC		; CCoordinate::GetTimeDiff
EXTRN	?SetX@CCoordinate@@QAEXABNH@Z:PROC		; CCoordinate::SetX
EXTRN	?GetSavingPoint@CPoints@@QBE?AVCCoordinate@@XZ:PROC ; CPoints::GetSavingPoint
EXTRN	?GetDrawingPoint@CPoints@@QBE?AVCPoint@@XZ:PROC	; CPoints::GetDrawingPoint
EXTRN	??1CTree@@UAE@XZ:PROC				; CTree::~CTree
EXTRN	??_ECTree@@UAEPAXI@Z:PROC			; CTree::`vector deleting destructor'
EXTRN	?InsertElementTree@CElementTree@@QAE_NW4BLOCKTYPE@CBlockBaseData@@ABVCBlockIndex@@@Z:PROC ; CElementTree::InsertElementTree
EXTRN	?DrawElement@CElementTree@@QAEXPAVCDC@@PAVCElement@@PAUIChartManager133101@@@Z:PROC ; CElementTree::DrawElement
EXTRN	?CopyElement@CElementTree@@QAEPAVCElement@@PAV2@@Z:PROC ; CElementTree::CopyElement
EXTRN	?GetBlockIndexInElement@CElementTree@@QBE?AVCBlockIndex@@PBVCElement@@@Z:PROC ; CElementTree::GetBlockIndexInElement
EXTRN	??0CUndoRedoManager@@QAE@XZ:PROC		; CUndoRedoManager::CUndoRedoManager
EXTRN	??1CUndoRedoManager@@QAE@XZ:PROC		; CUndoRedoManager::~CUndoRedoManager
EXTRN	?SetAnalysisData@CUndoRedoManager@@QAEXPAVCAnalysisData@@@Z:PROC ; CUndoRedoManager::SetAnalysisData
EXTRN	?RegisterElementToUnRedoManager@CUndoRedoManager@@QAEXHJPBD0@Z:PROC ; CUndoRedoManager::RegisterElementToUnRedoManager
EXTRN	?RelativeToAbsolute@CCoordinateCalculator@@QBE?AVCPoint@@ABVCCoordinateCalculatorData@@ABVCCoordinate@@@Z:PROC ; CCoordinateCalculator::RelativeToAbsolute
EXTRN	?AbsoluteToAbsolute@CCoordinateCalculator@@QBE?AVCPoint@@ABVCCoordinateCalculatorData@@ABV2@@Z:PROC ; CCoordinateCalculator::AbsoluteToAbsolute
EXTRN	?FindCoordinateCalculator@CCoordinateCalculatorFinder@@SAAAVCCoordinateCalculator@@_N@Z:PROC ; CCoordinateCalculatorFinder::FindCoordinateCalculator
EXTRN	?DoubleToString@CDataConversion@@SA?AV?$CStringT@DV?$StrTraitMFC_DLL@DV?$ChTraitsCRT@D@ATL@@@@@ATL@@ABN@Z:PROC ; CDataConversion::DoubleToString
EXTRN	@__security_check_cookie@4:PROC
EXTRN	__CxxThrowException@8:PROC
EXTRN	___CxxFrameHandler3:PROC
EXTRN	_memmove:PROC
EXTRN	_memset:PROC
EXTRN	??_7type_info@@6B@:QWORD			; type_info::`vftable'
EXTRN	___security_cookie:DWORD
EXTRN	__fltused:DWORD
_BSS	SEGMENT
?m_strAddInItemName@CAnalysisData@@2V?$CStringT@DV?$StrTraitMFC_DLL@DV?$ChTraitsCRT@D@ATL@@@@@ATL@@A DD 01H DUP (?) ; CAnalysisData::m_strAddInItemName
?RMS_ANALYSIS_FUNC@@3IB DD 01H DUP (?)			; RMS_ANALYSIS_FUNC
_BSS	ENDS
CRT$XCU	SEGMENT
?RMS_ANALYSIS_FUNC$initializer$@@3P6AXXZA DD FLAT:??__ERMS_ANALYSIS_FUNC@@YAXXZ ; RMS_ANALYSIS_FUNC$initializer$
CRT$XCU	ENDS
;	COMDAT __real@bff0000000000000
CONST	SEGMENT
__real@bff0000000000000 DQ 0bff0000000000000r	; -1
CONST	ENDS
;	COMDAT __real@3ff0000000000000
CONST	SEGMENT
__real@3ff0000000000000 DQ 03ff0000000000000r	; 1
CONST	ENDS
;	COMDAT ??_R1A@?0A@EA@CTree@@8
rdata$r	SEGMENT
??_R1A@?0A@EA@CTree@@8 DD FLAT:??_R0?AVCTree@@@8	; CTree::`RTTI Base Class Descriptor at (0,-1,0,64)'
	DD	00H
	DD	00H
	DD	0ffffffffH
	DD	00H
	DD	040H
	DD	FLAT:??_R3CTree@@8
rdata$r	ENDS
;	COMDAT ??_R2CTree@@8
rdata$r	SEGMENT
??_R2CTree@@8 DD FLAT:??_R1A@?0A@EA@CTree@@8		; CTree::`RTTI Base Class Array'
rdata$r	ENDS
;	COMDAT ??_R3CTree@@8
rdata$r	SEGMENT
??_R3CTree@@8 DD 00H					; CTree::`RTTI Class Hierarchy Descriptor'
	DD	00H
	DD	01H
	DD	FLAT:??_R2CTree@@8
rdata$r	ENDS
;	COMDAT ??_R0?AVCTree@@@8
data$rs	SEGMENT
??_R0?AVCTree@@@8 DD FLAT:??_7type_info@@6B@		; CTree `RTTI Type Descriptor'
	DD	00H
	DB	'.?AVCTree@@', 00H
data$rs	ENDS
;	COMDAT ??_R4CTree@@6B@
rdata$r	SEGMENT
??_R4CTree@@6B@ DD 00H					; CTree::`RTTI Complete Object Locator'
	DD	00H
	DD	00H
	DD	FLAT:??_R0?AVCTree@@@8
	DD	FLAT:??_R3CTree@@8
rdata$r	ENDS
;	COMDAT ??_R1A@?0A@EA@bad_array_new_length@std@@8
rdata$r	SEGMENT
??_R1A@?0A@EA@bad_array_new_length@std@@8 DD FLAT:??_R0?AVbad_array_new_length@std@@@8 ; std::bad_array_new_length::`RTTI Base Class Descriptor at (0,-1,0,64)'
	DD	02H
	DD	00H
	DD	0ffffffffH
	DD	00H
	DD	040H
	DD	FLAT:??_R3bad_array_new_length@std@@8
rdata$r	ENDS
;	COMDAT ??_R2bad_array_new_length@std@@8
rdata$r	SEGMENT
??_R2bad_array_new_length@std@@8 DD FLAT:??_R1A@?0A@EA@bad_array_new_length@std@@8 ; std::bad_array_new_length::`RTTI Base Class Array'
	DD	FLAT:??_R1A@?0A@EA@bad_alloc@std@@8
	DD	FLAT:??_R1A@?0A@EA@exception@std@@8
rdata$r	ENDS
;	COMDAT ??_R3bad_array_new_length@std@@8
rdata$r	SEGMENT
??_R3bad_array_new_length@std@@8 DD 00H			; std::bad_array_new_length::`RTTI Class Hierarchy Descriptor'
	DD	00H
	DD	03H
	DD	FLAT:??_R2bad_array_new_length@std@@8
rdata$r	ENDS
;	COMDAT ??_R4bad_array_new_length@std@@6B@
rdata$r	SEGMENT
??_R4bad_array_new_length@std@@6B@ DD 00H		; std::bad_array_new_length::`RTTI Complete Object Locator'
	DD	00H
	DD	00H
	DD	FLAT:??_R0?AVbad_array_new_length@std@@@8
	DD	FLAT:??_R3bad_array_new_length@std@@8
rdata$r	ENDS
;	COMDAT ??_R1A@?0A@EA@bad_alloc@std@@8
rdata$r	SEGMENT
??_R1A@?0A@EA@bad_alloc@std@@8 DD FLAT:??_R0?AVbad_alloc@std@@@8 ; std::bad_alloc::`RTTI Base Class Descriptor at (0,-1,0,64)'
	DD	01H
	DD	00H
	DD	0ffffffffH
	DD	00H
	DD	040H
	DD	FLAT:??_R3bad_alloc@std@@8
rdata$r	ENDS
;	COMDAT ??_R2bad_alloc@std@@8
rdata$r	SEGMENT
??_R2bad_alloc@std@@8 DD FLAT:??_R1A@?0A@EA@bad_alloc@std@@8 ; std::bad_alloc::`RTTI Base Class Array'
	DD	FLAT:??_R1A@?0A@EA@exception@std@@8
rdata$r	ENDS
;	COMDAT ??_R3bad_alloc@std@@8
rdata$r	SEGMENT
??_R3bad_alloc@std@@8 DD 00H				; std::bad_alloc::`RTTI Class Hierarchy Descriptor'
	DD	00H
	DD	02H
	DD	FLAT:??_R2bad_alloc@std@@8
rdata$r	ENDS
;	COMDAT ??_R4bad_alloc@std@@6B@
rdata$r	SEGMENT
??_R4bad_alloc@std@@6B@ DD 00H				; std::bad_alloc::`RTTI Complete Object Locator'
	DD	00H
	DD	00H
	DD	FLAT:??_R0?AVbad_alloc@std@@@8
	DD	FLAT:??_R3bad_alloc@std@@8
rdata$r	ENDS
;	COMDAT ??_R1A@?0A@EA@exception@std@@8
rdata$r	SEGMENT
??_R1A@?0A@EA@exception@std@@8 DD FLAT:??_R0?AVexception@std@@@8 ; std::exception::`RTTI Base Class Descriptor at (0,-1,0,64)'
	DD	00H
	DD	00H
	DD	0ffffffffH
	DD	00H
	DD	040H
	DD	FLAT:??_R3exception@std@@8
rdata$r	ENDS
;	COMDAT ??_R2exception@std@@8
rdata$r	SEGMENT
??_R2exception@std@@8 DD FLAT:??_R1A@?0A@EA@exception@std@@8 ; std::exception::`RTTI Base Class Array'
rdata$r	ENDS
;	COMDAT ??_R3exception@std@@8
rdata$r	SEGMENT
??_R3exception@std@@8 DD 00H				; std::exception::`RTTI Class Hierarchy Descriptor'
	DD	00H
	DD	01H
	DD	FLAT:??_R2exception@std@@8
rdata$r	ENDS
;	COMDAT ??_R4exception@std@@6B@
rdata$r	SEGMENT
??_R4exception@std@@6B@ DD 00H				; std::exception::`RTTI Complete Object Locator'
	DD	00H
	DD	00H
	DD	FLAT:??_R0?AVexception@std@@@8
	DD	FLAT:??_R3exception@std@@8
rdata$r	ENDS
;	COMDAT ??_C@_0BC@KBDMBKEH@deque?$DMT?$DO?5too?5long@
CONST	SEGMENT
??_C@_0BC@KBDMBKEH@deque?$DMT?$DO?5too?5long@ DB 'deque<T> too long', 00H ; `string'
CONST	ENDS
;	COMDAT ??_C@_0P@IMPIBBAB@YYYYMMDDHHMMSS@
CONST	SEGMENT
??_C@_0P@IMPIBBAB@YYYYMMDDHHMMSS@ DB 'YYYYMMDDHHMMSS', 00H ; `string'
CONST	ENDS
;	COMDAT ??_C@_07MGCPDNLD@DEFAULT@
CONST	SEGMENT
??_C@_07MGCPDNLD@DEFAULT@ DB 'DEFAULT', 00H		; `string'
CONST	ENDS
;	COMDAT ??_7CTree@@6B@
CONST	SEGMENT
??_7CTree@@6B@ DD FLAT:??_R4CTree@@6B@			; CTree::`vftable'
	DD	FLAT:??_ECTree@@UAEPAXI@Z
CONST	ENDS
;	COMDAT __CT??_R0?AVexception@std@@@8??0exception@std@@QAE@ABV01@@Z12
xdata$x	SEGMENT
__CT??_R0?AVexception@std@@@8??0exception@std@@QAE@ABV01@@Z12 DD 00H
	DD	FLAT:??_R0?AVexception@std@@@8
	DD	00H
	DD	0ffffffffH
	ORG $+4
	DD	0cH
	DD	FLAT:??0exception@std@@QAE@ABV01@@Z
xdata$x	ENDS
;	COMDAT ??_R0?AVexception@std@@@8
data$r	SEGMENT
??_R0?AVexception@std@@@8 DD FLAT:??_7type_info@@6B@	; std::exception `RTTI Type Descriptor'
	DD	00H
	DB	'.?AVexception@std@@', 00H
data$r	ENDS
;	COMDAT __CT??_R0?AVbad_alloc@std@@@8??0bad_alloc@std@@QAE@ABV01@@Z12
xdata$x	SEGMENT
__CT??_R0?AVbad_alloc@std@@@8??0bad_alloc@std@@QAE@ABV01@@Z12 DD 010H
	DD	FLAT:??_R0?AVbad_alloc@std@@@8
	DD	00H
	DD	0ffffffffH
	ORG $+4
	DD	0cH
	DD	FLAT:??0bad_alloc@std@@QAE@ABV01@@Z
xdata$x	ENDS
;	COMDAT ??_R0?AVbad_alloc@std@@@8
data$r	SEGMENT
??_R0?AVbad_alloc@std@@@8 DD FLAT:??_7type_info@@6B@	; std::bad_alloc `RTTI Type Descriptor'
	DD	00H
	DB	'.?AVbad_alloc@std@@', 00H
data$r	ENDS
;	COMDAT __CT??_R0?AVbad_array_new_length@std@@@8??0bad_array_new_length@std@@QAE@ABV01@@Z12
xdata$x	SEGMENT
__CT??_R0?AVbad_array_new_length@std@@@8??0bad_array_new_length@std@@QAE@ABV01@@Z12 DD 00H
	DD	FLAT:??_R0?AVbad_array_new_length@std@@@8
	DD	00H
	DD	0ffffffffH
	ORG $+4
	DD	0cH
	DD	FLAT:??0bad_array_new_length@std@@QAE@ABV01@@Z
xdata$x	ENDS
;	COMDAT ??_R0?AVbad_array_new_length@std@@@8
data$r	SEGMENT
??_R0?AVbad_array_new_length@std@@@8 DD FLAT:??_7type_info@@6B@ ; std::bad_array_new_length `RTTI Type Descriptor'
	DD	00H
	DB	'.?AVbad_array_new_length@std@@', 00H
data$r	ENDS
;	COMDAT __CTA3?AVbad_array_new_length@std@@
xdata$x	SEGMENT
__CTA3?AVbad_array_new_length@std@@ DD 03H
	DD	FLAT:__CT??_R0?AVbad_array_new_length@std@@@8??0bad_array_new_length@std@@QAE@ABV01@@Z12
	DD	FLAT:__CT??_R0?AVbad_alloc@std@@@8??0bad_alloc@std@@QAE@ABV01@@Z12
	DD	FLAT:__CT??_R0?AVexception@std@@@8??0exception@std@@QAE@ABV01@@Z12
xdata$x	ENDS
;	COMDAT __TI3?AVbad_array_new_length@std@@
xdata$x	SEGMENT
__TI3?AVbad_array_new_length@std@@ DD 00H
	DD	FLAT:??1bad_array_new_length@std@@UAE@XZ
	DD	00H
	DD	FLAT:__CTA3?AVbad_array_new_length@std@@
xdata$x	ENDS
;	COMDAT ??_C@_0BF@KINCDENJ@bad?5array?5new?5length@
CONST	SEGMENT
??_C@_0BF@KINCDENJ@bad?5array?5new?5length@ DB 'bad array new length', 00H ; `string'
CONST	ENDS
;	COMDAT ??_7bad_array_new_length@std@@6B@
CONST	SEGMENT
??_7bad_array_new_length@std@@6B@ DD FLAT:??_R4bad_array_new_length@std@@6B@ ; std::bad_array_new_length::`vftable'
	DD	FLAT:??_Ebad_array_new_length@std@@UAEPAXI@Z
	DD	FLAT:?what@exception@std@@UBEPBDXZ
CONST	ENDS
;	COMDAT ??_7bad_alloc@std@@6B@
CONST	SEGMENT
??_7bad_alloc@std@@6B@ DD FLAT:??_R4bad_alloc@std@@6B@	; std::bad_alloc::`vftable'
	DD	FLAT:??_Ebad_alloc@std@@UAEPAXI@Z
	DD	FLAT:?what@exception@std@@UBEPBDXZ
CONST	ENDS
;	COMDAT ??_C@_0BC@EOODALEL@Unknown?5exception@
CONST	SEGMENT
??_C@_0BC@EOODALEL@Unknown?5exception@ DB 'Unknown exception', 00H ; `string'
CONST	ENDS
;	COMDAT ??_7exception@std@@6B@
CONST	SEGMENT
??_7exception@std@@6B@ DD FLAT:??_R4exception@std@@6B@	; std::exception::`vftable'
	DD	FLAT:??_Eexception@std@@UAEPAXI@Z
	DD	FLAT:?what@exception@std@@UBEPBDXZ
CONST	ENDS
;	COMDAT ??_C@_00CNPNBAHC@@
CONST	SEGMENT
??_C@_00CNPNBAHC@@ DB 00H				; `string'
CONST	ENDS
;	COMDAT xdata$x
xdata$x	SEGMENT
__unwindtable$??0CSelectedElementDrawingData@@QAE@W4ModifyType@CToolEnumData@@PAVCDrawingRegions@@ABVCCoordinateCalculatorData@@ABVCPoints@@@Z DD 0ffffffffH
	DD	FLAT:__unwindfunclet$??0CSelectedElementDrawingData@@QAE@W4ModifyType@CToolEnumData@@PAVCDrawingRegions@@ABVCCoordinateCalculatorData@@ABVCPoints@@@Z$0
__ehfuncinfo$??0CSelectedElementDrawingData@@QAE@W4ModifyType@CToolEnumData@@PAVCDrawingRegions@@ABVCCoordinateCalculatorData@@ABVCPoints@@@Z DD 019930522H
	DD	01H
	DD	FLAT:__unwindtable$??0CSelectedElementDrawingData@@QAE@W4ModifyType@CToolEnumData@@PAVCDrawingRegions@@ABVCCoordinateCalculatorData@@ABVCPoints@@@Z
	DD	2 DUP(00H)
	DD	2 DUP(00H)
	DD	00H
	DD	01H
xdata$x	ENDS
;	COMDAT xdata$x
xdata$x	SEGMENT
__unwindtable$??4CSelectedElementDrawingData@@QAEAAV0@ABV0@@Z DD 0ffffffffH
	DD	FLAT:__unwindfunclet$??4CSelectedElementDrawingData@@QAEAAV0@ABV0@@Z$0
__ehfuncinfo$??4CSelectedElementDrawingData@@QAEAAV0@ABV0@@Z DD 019930522H
	DD	01H
	DD	FLAT:__unwindtable$??4CSelectedElementDrawingData@@QAEAAV0@ABV0@@Z
	DD	2 DUP(00H)
	DD	2 DUP(00H)
	DD	00H
	DD	01H
xdata$x	ENDS
;	COMDAT xdata$x
xdata$x	SEGMENT
__ehfuncinfo$?GetModifyPoint_Center@CElementModifyData@@ABE?AVCCoordinate@@ABV2@@Z DD 019930522H
	DD	013H
	DD	FLAT:__unwindtable$?GetModifyPoint_Center@CElementModifyData@@ABE?AVCCoordinate@@ABV2@@Z
	DD	2 DUP(00H)
	DD	2 DUP(00H)
	DD	00H
	DD	01H
__unwindtable$?GetModifyPoint_Center@CElementModifyData@@ABE?AVCCoordinate@@ABV2@@Z DD 0ffffffffH
	DD	FLAT:__unwindfunclet$?GetModifyPoint_Center@CElementModifyData@@ABE?AVCCoordinate@@ABV2@@Z$1
	DD	0ffffffffH
	DD	FLAT:__unwindfunclet$?GetModifyPoint_Center@CElementModifyData@@ABE?AVCCoordinate@@ABV2@@Z$2
	DD	01H
	DD	FLAT:__unwindfunclet$?GetModifyPoint_Center@CElementModifyData@@ABE?AVCCoordinate@@ABV2@@Z$3
	DD	02H
	DD	FLAT:__unwindfunclet$?GetModifyPoint_Center@CElementModifyData@@ABE?AVCCoordinate@@ABV2@@Z$4
	DD	03H
	DD	FLAT:__unwindfunclet$?GetModifyPoint_Center@CElementModifyData@@ABE?AVCCoordinate@@ABV2@@Z$5
	DD	04H
	DD	FLAT:__unwindfunclet$?GetModifyPoint_Center@CElementModifyData@@ABE?AVCCoordinate@@ABV2@@Z$6
	DD	05H
	DD	FLAT:__unwindfunclet$?GetModifyPoint_Center@CElementModifyData@@ABE?AVCCoordinate@@ABV2@@Z$7
	DD	06H
	DD	FLAT:__unwindfunclet$?GetModifyPoint_Center@CElementModifyData@@ABE?AVCCoordinate@@ABV2@@Z$8
	DD	07H
	DD	FLAT:__unwindfunclet$?GetModifyPoint_Center@CElementModifyData@@ABE?AVCCoordinate@@ABV2@@Z$9
	DD	08H
	DD	FLAT:__unwindfunclet$?GetModifyPoint_Center@CElementModifyData@@ABE?AVCCoordinate@@ABV2@@Z$10
	DD	06H
	DD	FLAT:__unwindfunclet$?GetModifyPoint_Center@CElementModifyData@@ABE?AVCCoordinate@@ABV2@@Z$11
	DD	0aH
	DD	FLAT:__unwindfunclet$?GetModifyPoint_Center@CElementModifyData@@ABE?AVCCoordinate@@ABV2@@Z$12
	DD	0bH
	DD	FLAT:__unwindfunclet$?GetModifyPoint_Center@CElementModifyData@@ABE?AVCCoordinate@@ABV2@@Z$13
	DD	06H
	DD	FLAT:__unwindfunclet$?GetModifyPoint_Center@CElementModifyData@@ABE?AVCCoordinate@@ABV2@@Z$14
	DD	0dH
	DD	FLAT:__unwindfunclet$?GetModifyPoint_Center@CElementModifyData@@ABE?AVCCoordinate@@ABV2@@Z$15
	DD	0eH
	DD	FLAT:__unwindfunclet$?GetModifyPoint_Center@CElementModifyData@@ABE?AVCCoordinate@@ABV2@@Z$16
	DD	03H
	DD	FLAT:__unwindfunclet$?GetModifyPoint_Center@CElementModifyData@@ABE?AVCCoordinate@@ABV2@@Z$17
	DD	01H
	DD	FLAT:___std_terminate
	DD	0ffffffffH
	DD	FLAT:___std_terminate
xdata$x	ENDS
;	COMDAT xdata$x
xdata$x	SEGMENT
__unwindtable$??4CElementModifyData@@QAEAAV0@ABV0@@Z DD 0ffffffffH
	DD	FLAT:__unwindfunclet$??4CElementModifyData@@QAEAAV0@ABV0@@Z$0
__ehfuncinfo$??4CElementModifyData@@QAEAAV0@ABV0@@Z DD 019930522H
	DD	01H
	DD	FLAT:__unwindtable$??4CElementModifyData@@QAEAAV0@ABV0@@Z
	DD	2 DUP(00H)
	DD	2 DUP(00H)
	DD	00H
	DD	01H
xdata$x	ENDS
;	COMDAT xdata$x
xdata$x	SEGMENT
__ehfuncinfo$??1CElementModifyData@@QAE@XZ DD 019930522H
	DD	00H
	DD	00H
	DD	2 DUP(00H)
	DD	2 DUP(00H)
	DD	00H
	DD	05H
xdata$x	ENDS
;	COMDAT xdata$x
xdata$x	SEGMENT
__unwindtable$??0CElementModifyData@@QAE@ABV0@@Z DD 0ffffffffH
	DD	FLAT:__unwindfunclet$??0CElementModifyData@@QAE@ABV0@@Z$0
	DD	00H
	DD	FLAT:__unwindfunclet$??0CElementModifyData@@QAE@ABV0@@Z$1
__ehfuncinfo$??0CElementModifyData@@QAE@ABV0@@Z DD 019930522H
	DD	02H
	DD	FLAT:__unwindtable$??0CElementModifyData@@QAE@ABV0@@Z
	DD	2 DUP(00H)
	DD	2 DUP(00H)
	DD	00H
	DD	01H
xdata$x	ENDS
;	COMDAT xdata$x
xdata$x	SEGMENT
__unwindtable$??4CExtractingDataOfModifyType@@QAEAAV0@ABV0@@Z DD 0ffffffffH
	DD	FLAT:__unwindfunclet$??4CExtractingDataOfModifyType@@QAEAAV0@ABV0@@Z$0
__ehfuncinfo$??4CExtractingDataOfModifyType@@QAEAAV0@ABV0@@Z DD 019930522H
	DD	01H
	DD	FLAT:__unwindtable$??4CExtractingDataOfModifyType@@QAEAAV0@ABV0@@Z
	DD	2 DUP(00H)
	DD	2 DUP(00H)
	DD	00H
	DD	01H
xdata$x	ENDS
;	COMDAT xdata$x
xdata$x	SEGMENT
__unwindtable$??4CDrawingRegions@@QAEAAV0@ABV0@@Z DD 0ffffffffH
	DD	FLAT:__unwindfunclet$??4CDrawingRegions@@QAEAAV0@ABV0@@Z$0
__ehfuncinfo$??4CDrawingRegions@@QAEAAV0@ABV0@@Z DD 019930522H
	DD	01H
	DD	FLAT:__unwindtable$??4CDrawingRegions@@QAEAAV0@ABV0@@Z
	DD	2 DUP(00H)
	DD	2 DUP(00H)
	DD	00H
	DD	01H
xdata$x	ENDS
;	COMDAT xdata$x
xdata$x	SEGMENT
__unwindtable$?MoveElement@CAnalysisData@@QAEHPAVCElement@@V?$CStringT@DV?$StrTraitMFC_DLL@DV?$ChTraitsCRT@D@ATL@@@@@ATL@@@Z DD 0ffffffffH
	DD	FLAT:__unwindfunclet$?MoveElement@CAnalysisData@@QAEHPAVCElement@@V?$CStringT@DV?$StrTraitMFC_DLL@DV?$ChTraitsCRT@D@ATL@@@@@ATL@@@Z$0
__ehfuncinfo$?MoveElement@CAnalysisData@@QAEHPAVCElement@@V?$CStringT@DV?$StrTraitMFC_DLL@DV?$ChTraitsCRT@D@ATL@@@@@ATL@@@Z DD 019930522H
	DD	01H
	DD	FLAT:__unwindtable$?MoveElement@CAnalysisData@@QAEHPAVCElement@@V?$CStringT@DV?$StrTraitMFC_DLL@DV?$ChTraitsCRT@D@ATL@@@@@ATL@@@Z
	DD	2 DUP(00H)
	DD	2 DUP(00H)
	DD	00H
	DD	01H
xdata$x	ENDS
;	COMDAT xdata$x
xdata$x	SEGMENT
__unwindtable$?GetCoordinateCalculatorData@CAnalysisData@@QBE?AVCCoordinateCalculatorData@@ABVCPoint@@@Z DD 0ffffffffH
	DD	FLAT:__unwindfunclet$?GetCoordinateCalculatorData@CAnalysisData@@QBE?AVCCoordinateCalculatorData@@ABVCPoint@@@Z$1
__ehfuncinfo$?GetCoordinateCalculatorData@CAnalysisData@@QBE?AVCCoordinateCalculatorData@@ABVCPoint@@@Z DD 019930522H
	DD	01H
	DD	FLAT:__unwindtable$?GetCoordinateCalculatorData@CAnalysisData@@QBE?AVCCoordinateCalculatorData@@ABVCPoint@@@Z
	DD	2 DUP(00H)
	DD	2 DUP(00H)
	DD	00H
	DD	01H
xdata$x	ENDS
;	COMDAT xdata$x
xdata$x	SEGMENT
__unwindtable$?GetUserPath@CAnalysisData@@QBE?AV?$CStringT@DV?$StrTraitMFC_DLL@DV?$ChTraitsCRT@D@ATL@@@@@ATL@@XZ DD 0ffffffffH
	DD	FLAT:__unwindfunclet$?GetUserPath@CAnalysisData@@QBE?AV?$CStringT@DV?$StrTraitMFC_DLL@DV?$ChTraitsCRT@D@ATL@@@@@ATL@@XZ$1
	DD	0ffffffffH
	DD	FLAT:___std_terminate
__ehfuncinfo$?GetUserPath@CAnalysisData@@QBE?AV?$CStringT@DV?$StrTraitMFC_DLL@DV?$ChTraitsCRT@D@ATL@@@@@ATL@@XZ DD 019930522H
	DD	02H
	DD	FLAT:__unwindtable$?GetUserPath@CAnalysisData@@QBE?AV?$CStringT@DV?$StrTraitMFC_DLL@DV?$ChTraitsCRT@D@ATL@@@@@ATL@@XZ
	DD	2 DUP(00H)
	DD	2 DUP(00H)
	DD	00H
	DD	01H
xdata$x	ENDS
;	COMDAT xdata$x
xdata$x	SEGMENT
__unwindtable$?GetOCXPath@CAnalysisData@@QBE?AV?$CStringT@DV?$StrTraitMFC_DLL@DV?$ChTraitsCRT@D@ATL@@@@@ATL@@XZ DD 0ffffffffH
	DD	FLAT:__unwindfunclet$?GetOCXPath@CAnalysisData@@QBE?AV?$CStringT@DV?$StrTraitMFC_DLL@DV?$ChTraitsCRT@D@ATL@@@@@ATL@@XZ$1
	DD	0ffffffffH
	DD	FLAT:___std_terminate
__ehfuncinfo$?GetOCXPath@CAnalysisData@@QBE?AV?$CStringT@DV?$StrTraitMFC_DLL@DV?$ChTraitsCRT@D@ATL@@@@@ATL@@XZ DD 019930522H
	DD	02H
	DD	FLAT:__unwindtable$?GetOCXPath@CAnalysisData@@QBE?AV?$CStringT@DV?$StrTraitMFC_DLL@DV?$ChTraitsCRT@D@ATL@@@@@ATL@@XZ
	DD	2 DUP(00H)
	DD	2 DUP(00H)
	DD	00H
	DD	01H
xdata$x	ENDS
;	COMDAT xdata$x
xdata$x	SEGMENT
__ehfuncinfo$??1CAnalysisData@@QAE@XZ DD 019930522H
	DD	00H
	DD	00H
	DD	2 DUP(00H)
	DD	2 DUP(00H)
	DD	00H
	DD	05H
xdata$x	ENDS
;	COMDAT xdata$x
xdata$x	SEGMENT
__unwindtable$??0CAnalysisData@@QAE@PAUHWND__@@W4CHART_MODE@CChartInfo@@@Z DD 0ffffffffH
	DD	FLAT:__unwindfunclet$??0CAnalysisData@@QAE@PAUHWND__@@W4CHART_MODE@CChartInfo@@@Z$2
	DD	0ffffffffH
	DD	FLAT:__unwindfunclet$??0CAnalysisData@@QAE@PAUHWND__@@W4CHART_MODE@CChartInfo@@@Z$0
	DD	01H
	DD	FLAT:__unwindfunclet$??0CAnalysisData@@QAE@PAUHWND__@@W4CHART_MODE@CChartInfo@@@Z$1
__ehfuncinfo$??0CAnalysisData@@QAE@PAUHWND__@@W4CHART_MODE@CChartInfo@@@Z DD 019930522H
	DD	03H
	DD	FLAT:__unwindtable$??0CAnalysisData@@QAE@PAUHWND__@@W4CHART_MODE@CChartInfo@@@Z
	DD	2 DUP(00H)
	DD	2 DUP(00H)
	DD	00H
	DD	01H
xdata$x	ENDS
;	COMDAT xdata$x
xdata$x	SEGMENT
__unwindtable$??0CElementTree@@QAE@PAUHWND__@@W4CHART_MODE@CChartInfo@@@Z DD 0ffffffffH
	DD	FLAT:__unwindfunclet$??0CElementTree@@QAE@PAUHWND__@@W4CHART_MODE@CChartInfo@@@Z$0
__ehfuncinfo$??0CElementTree@@QAE@PAUHWND__@@W4CHART_MODE@CChartInfo@@@Z DD 019930522H
	DD	01H
	DD	FLAT:__unwindtable$??0CElementTree@@QAE@PAUHWND__@@W4CHART_MODE@CChartInfo@@@Z
	DD	2 DUP(00H)
	DD	2 DUP(00H)
	DD	00H
	DD	01H
xdata$x	ENDS
;	COMDAT xdata$x
xdata$x	SEGMENT
__ehfuncinfo$??1ILPCSTR133101@@QAE@XZ DD 019930522H
	DD	00H
	DD	00H
	DD	2 DUP(00H)
	DD	2 DUP(00H)
	DD	00H
	DD	05H
xdata$x	ENDS
;	COMDAT xdata$x
xdata$x	SEGMENT
__unwindtable$??HATL@@YA?AV?$CStringT@DV?$StrTraitMFC_DLL@DV?$ChTraitsCRT@D@ATL@@@@@0@ABV10@0@Z DD 0ffffffffH
	DD	FLAT:__unwindfunclet$??HATL@@YA?AV?$CStringT@DV?$StrTraitMFC_DLL@DV?$ChTraitsCRT@D@ATL@@@@@0@ABV10@0@Z$0
__ehfuncinfo$??HATL@@YA?AV?$CStringT@DV?$StrTraitMFC_DLL@DV?$ChTraitsCRT@D@ATL@@@@@0@ABV10@0@Z DD 019930522H
	DD	01H
	DD	FLAT:__unwindtable$??HATL@@YA?AV?$CStringT@DV?$StrTraitMFC_DLL@DV?$ChTraitsCRT@D@ATL@@@@@0@ABV10@0@Z
	DD	2 DUP(00H)
	DD	2 DUP(00H)
	DD	00H
	DD	01H
xdata$x	ENDS
CRT$XCU	SEGMENT
??m_strAddInItemName$initializer$@CAnalysisData@@2P6AXXZA@@3P6AXXZA DD FLAT:??__E?m_strAddInItemName@CAnalysisData@@2V?$CStringT@DV?$StrTraitMFC_DLL@DV?$ChTraitsCRT@D@ATL@@@@@ATL@@A@@YAXXZ ; ??m_strAddInItemName$initializer$@CAnalysisData@@2P6AXXZA@@3P6AXXZA
CRT$XCU	ENDS
; Function compile flags: /Ogtp
; File C:\Program Files (x86)\Microsoft Visual Studio\2019\Community\VC\Tools\MSVC\14.29.30133\include\xutility
;	COMDAT ??$_Copy_memmove@PAPAPAVCCoordinate@@PAPAPAV1@@std@@YAPAPAPAVCCoordinate@@PAPAPAV1@00@Z
_TEXT	SEGMENT
__First$ = 8						; size = 4
__Last$ = 12						; size = 4
__Dest$ = 16						; size = 4
??$_Copy_memmove@PAPAPAVCCoordinate@@PAPAPAV1@@std@@YAPAPAPAVCCoordinate@@PAPAPAV1@00@Z PROC ; std::_Copy_memmove<CCoordinate * * *,CCoordinate * * *>, COMDAT

; 4058 : _OutCtgIt _Copy_memmove(_CtgIt _First, _CtgIt _Last, _OutCtgIt _Dest) {

  00000	55		 push	 ebp
  00001	8b ec		 mov	 ebp, esp

; 4059 :     auto _FirstPtr              = _To_address(_First);
; 4060 :     auto _LastPtr               = _To_address(_Last);
; 4061 :     auto _DestPtr               = _To_address(_Dest);
; 4062 :     const char* const _First_ch = const_cast<const char*>(reinterpret_cast<const volatile char*>(_FirstPtr));
; 4063 :     const char* const _Last_ch  = const_cast<const char*>(reinterpret_cast<const volatile char*>(_LastPtr));
; 4064 :     char* const _Dest_ch        = const_cast<char*>(reinterpret_cast<const volatile char*>(_DestPtr));
; 4065 :     const auto _Count           = static_cast<size_t>(_Last_ch - _First_ch);

  00003	8b 45 08	 mov	 eax, DWORD PTR __First$[ebp]
  00006	56		 push	 esi

; 4066 :     _CSTD memmove(_Dest_ch, _First_ch, _Count);

  00007	8b 75 10	 mov	 esi, DWORD PTR __Dest$[ebp]
  0000a	57		 push	 edi
  0000b	8b 7d 0c	 mov	 edi, DWORD PTR __Last$[ebp]
  0000e	2b f8		 sub	 edi, eax
  00010	57		 push	 edi
  00011	50		 push	 eax
  00012	56		 push	 esi
  00013	e8 00 00 00 00	 call	 _memmove
  00018	83 c4 0c	 add	 esp, 12			; 0000000cH

; 4067 :     if constexpr (is_pointer_v<_OutCtgIt>) {
; 4068 :         return reinterpret_cast<_OutCtgIt>(_Dest_ch + _Count);

  0001b	8d 04 37	 lea	 eax, DWORD PTR [edi+esi]
  0001e	5f		 pop	 edi
  0001f	5e		 pop	 esi

; 4069 :     } else {
; 4070 :         return _Dest + (_LastPtr - _FirstPtr);
; 4071 :     }
; 4072 : }

  00020	5d		 pop	 ebp
  00021	c3		 ret	 0
??$_Copy_memmove@PAPAPAVCCoordinate@@PAPAPAV1@@std@@YAPAPAPAVCCoordinate@@PAPAPAV1@00@Z ENDP ; std::_Copy_memmove<CCoordinate * * *,CCoordinate * * *>
_TEXT	ENDS
; Function compile flags: /Ogtp
; File C:\Program Files (x86)\Microsoft Visual Studio\2019\Community\VC\Tools\MSVC\14.29.30133\include\xmemory
;	COMDAT ??$_Zero_range@PAPAPAVCCoordinate@@@std@@YAPAPAPAVCCoordinate@@QAPAPAV1@0@Z
_TEXT	SEGMENT
__First$ = 8						; size = 4
__Last$ = 12						; size = 4
??$_Zero_range@PAPAPAVCCoordinate@@@std@@YAPAPAPAVCCoordinate@@QAPAPAV1@0@Z PROC ; std::_Zero_range<CCoordinate * * *>, COMDAT

; 1789 : _Ptr _Zero_range(const _Ptr _First, const _Ptr _Last) { // fill [_First, _Last) with zeroes

  00000	55		 push	 ebp
  00001	8b ec		 mov	 ebp, esp

; 1790 :     char* const _First_ch = reinterpret_cast<char*>(_To_address(_First));
; 1791 :     char* const _Last_ch  = reinterpret_cast<char*>(_To_address(_Last));
; 1792 :     _CSTD memset(_First_ch, 0, static_cast<size_t>(_Last_ch - _First_ch));

  00003	8b 55 08	 mov	 edx, DWORD PTR __First$[ebp]
  00006	8b 4d 0c	 mov	 ecx, DWORD PTR __Last$[ebp]
  00009	2b ca		 sub	 ecx, edx
  0000b	51		 push	 ecx
  0000c	6a 00		 push	 0
  0000e	52		 push	 edx
  0000f	e8 00 00 00 00	 call	 _memset

; 1793 :     return _Last;

  00014	8b 45 0c	 mov	 eax, DWORD PTR __Last$[ebp]
  00017	83 c4 0c	 add	 esp, 12			; 0000000cH

; 1794 : }

  0001a	5d		 pop	 ebp
  0001b	c3		 ret	 0
??$_Zero_range@PAPAPAVCCoordinate@@@std@@YAPAPAPAVCCoordinate@@QAPAPAV1@0@Z ENDP ; std::_Zero_range<CCoordinate * * *>
_TEXT	ENDS
; Function compile flags: /Ogtp
; File C:\Program Files (x86)\Microsoft Visual Studio\2019\Community\VC\Tools\MSVC\14.29.30133\include\xmemory
;	COMDAT ??$_Allocate_manually_vector_aligned@U_Default_allocate_traits@std@@@std@@YAPAXI@Z
_TEXT	SEGMENT
__Bytes$ = 8						; size = 4
??$_Allocate_manually_vector_aligned@U_Default_allocate_traits@std@@@std@@YAPAXI@Z PROC ; std::_Allocate_manually_vector_aligned<std::_Default_allocate_traits>, COMDAT

; 127  : __declspec(allocator) void* _Allocate_manually_vector_aligned(const size_t _Bytes) {

  00000	55		 push	 ebp
  00001	8b ec		 mov	 ebp, esp

; 128  :     // allocate _Bytes manually aligned to at least _Big_allocation_alignment
; 129  :     const size_t _Block_size = _Non_user_size + _Bytes;

  00003	8b 45 08	 mov	 eax, DWORD PTR __Bytes$[ebp]
  00006	8d 48 23	 lea	 ecx, DWORD PTR [eax+35]

; 130  :     if (_Block_size <= _Bytes) {

  00009	3b c8		 cmp	 ecx, eax
  0000b	0f 86 00 00 00
	00		 jbe	 ?_Throw_bad_array_new_length@std@@YAXXZ ; std::_Throw_bad_array_new_length

; 79   :         return ::operator new(_Bytes);

  00011	51		 push	 ecx
  00012	e8 00 00 00 00	 call	 ??2@YAPAXI@Z		; operator new

; 131  :         _Throw_bad_array_new_length(); // add overflow
; 132  :     }
; 133  : 
; 134  :     const uintptr_t _Ptr_container = reinterpret_cast<uintptr_t>(_Traits::_Allocate(_Block_size));

  00017	8b c8		 mov	 ecx, eax

; 79   :         return ::operator new(_Bytes);

  00019	83 c4 04	 add	 esp, 4

; 135  :     _STL_VERIFY(_Ptr_container != 0, "invalid argument"); // validate even in release since we're doing p[-1]

  0001c	85 c9		 test	 ecx, ecx
  0001e	74 0b		 je	 SHORT $LN7@Allocate_m

; 136  :     void* const _Ptr = reinterpret_cast<void*>((_Ptr_container + _Non_user_size) & ~(_Big_allocation_alignment - 1));

  00020	8d 41 23	 lea	 eax, DWORD PTR [ecx+35]
  00023	83 e0 e0	 and	 eax, -32		; ffffffe0H

; 137  :     static_cast<uintptr_t*>(_Ptr)[-1] = _Ptr_container;

  00026	89 48 fc	 mov	 DWORD PTR [eax-4], ecx

; 138  : 
; 139  : #ifdef _DEBUG
; 140  :     static_cast<uintptr_t*>(_Ptr)[-2] = _Big_allocation_sentinel;
; 141  : #endif // _DEBUG
; 142  :     return _Ptr;
; 143  : }

  00029	5d		 pop	 ebp
  0002a	c3		 ret	 0
$LN7@Allocate_m:

; 135  :     _STL_VERIFY(_Ptr_container != 0, "invalid argument"); // validate even in release since we're doing p[-1]

  0002b	ff 25 00 00 00
	00		 jmp	 DWORD PTR __imp___invalid_parameter_noinfo_noreturn
??$_Allocate_manually_vector_aligned@U_Default_allocate_traits@std@@@std@@YAPAXI@Z ENDP ; std::_Allocate_manually_vector_aligned<std::_Default_allocate_traits>
_TEXT	ENDS
; Function compile flags: /Ogtp
; File C:\Program Files (x86)\Microsoft Visual Studio\2019\Community\VC\Tools\MSVC\14.29.30133\include\xmemory
;	COMDAT ??$_Uninitialized_value_construct_n_unchecked1@PAPAPAVCCoordinate@@I@std@@YAPAPAPAVCCoordinate@@PAPAPAV1@I@Z
_TEXT	SEGMENT
__UFirst$ = 8						; size = 4
__Count$ = 12						; size = 4
??$_Uninitialized_value_construct_n_unchecked1@PAPAPAVCCoordinate@@I@std@@YAPAPAPAVCCoordinate@@PAPAPAV1@I@Z PROC ; std::_Uninitialized_value_construct_n_unchecked1<CCoordinate * * *,unsigned int>, COMDAT

; 1821 : _NoThrowFwdIt _Uninitialized_value_construct_n_unchecked1(_NoThrowFwdIt _UFirst, _Diff _Count) {

  00000	55		 push	 ebp
  00001	8b ec		 mov	 ebp, esp

; 1822 :     // value-initialize all elements in [_UFirst, _UFirst + _Count_raw)
; 1823 :     _STL_INTERNAL_CHECK(_Count >= 0);
; 1824 :     if constexpr (_Use_memset_value_construct_v<_NoThrowFwdIt>) {
; 1825 :         return _Zero_range(_UFirst, _UFirst + _Count);

  00003	8b 45 0c	 mov	 eax, DWORD PTR __Count$[ebp]
  00006	56		 push	 esi

; 1792 :     _CSTD memset(_First_ch, 0, static_cast<size_t>(_Last_ch - _First_ch));

  00007	8b 75 08	 mov	 esi, DWORD PTR __UFirst$[ebp]

; 1821 : _NoThrowFwdIt _Uninitialized_value_construct_n_unchecked1(_NoThrowFwdIt _UFirst, _Diff _Count) {

  0000a	57		 push	 edi

; 1822 :     // value-initialize all elements in [_UFirst, _UFirst + _Count_raw)
; 1823 :     _STL_INTERNAL_CHECK(_Count >= 0);
; 1824 :     if constexpr (_Use_memset_value_construct_v<_NoThrowFwdIt>) {
; 1825 :         return _Zero_range(_UFirst, _UFirst + _Count);

  0000b	8d 3c 85 00 00
	00 00		 lea	 edi, DWORD PTR [eax*4]

; 1792 :     _CSTD memset(_First_ch, 0, static_cast<size_t>(_Last_ch - _First_ch));

  00012	57		 push	 edi
  00013	6a 00		 push	 0
  00015	56		 push	 esi
  00016	e8 00 00 00 00	 call	 _memset
  0001b	83 c4 0c	 add	 esp, 12			; 0000000cH

; 1822 :     // value-initialize all elements in [_UFirst, _UFirst + _Count_raw)
; 1823 :     _STL_INTERNAL_CHECK(_Count >= 0);
; 1824 :     if constexpr (_Use_memset_value_construct_v<_NoThrowFwdIt>) {
; 1825 :         return _Zero_range(_UFirst, _UFirst + _Count);

  0001e	8d 04 37	 lea	 eax, DWORD PTR [edi+esi]
  00021	5f		 pop	 edi
  00022	5e		 pop	 esi

; 1826 :     } else {
; 1827 :         _Uninitialized_backout<_NoThrowFwdIt> _Backout{_UFirst};
; 1828 :         for (; 0 < _Count; --_Count) {
; 1829 :             _Backout._Emplace_back();
; 1830 :         }
; 1831 : 
; 1832 :         return _Backout._Release();
; 1833 :     }
; 1834 : }

  00023	5d		 pop	 ebp
  00024	c3		 ret	 0
??$_Uninitialized_value_construct_n_unchecked1@PAPAPAVCCoordinate@@I@std@@YAPAPAPAVCCoordinate@@PAPAPAV1@I@Z ENDP ; std::_Uninitialized_value_construct_n_unchecked1<CCoordinate * * *,unsigned int>
_TEXT	ENDS
; Function compile flags: /Ogtp
; File C:\Program Files (x86)\Microsoft Visual Studio\2019\Community\VC\Tools\MSVC\14.29.30133\include\xmemory
; File C:\Program Files (x86)\Microsoft Visual Studio\2019\Community\VC\Tools\MSVC\14.29.30133\include\xutility
; File C:\Program Files (x86)\Microsoft Visual Studio\2019\Community\VC\Tools\MSVC\14.29.30133\include\xmemory
; File C:\Program Files (x86)\Microsoft Visual Studio\2019\Community\VC\Tools\MSVC\14.29.30133\include\xutility
; File C:\Program Files (x86)\Microsoft Visual Studio\2019\Community\VC\Tools\MSVC\14.29.30133\include\xmemory
; File C:\Program Files (x86)\Microsoft Visual Studio\2019\Community\VC\Tools\MSVC\14.29.30133\include\xutility
; File C:\Program Files (x86)\Microsoft Visual Studio\2019\Community\VC\Tools\MSVC\14.29.30133\include\xmemory
;	COMDAT ??$uninitialized_copy@PAPAPAVCCoordinate@@PAPAPAV1@@std@@YAPAPAPAVCCoordinate@@QAPAPAV1@0PAPAPAV1@@Z
_TEXT	SEGMENT
__First$ = 8						; size = 4
__Last$ = 12						; size = 4
__Dest$ = 16						; size = 4
??$uninitialized_copy@PAPAPAVCCoordinate@@PAPAPAV1@@std@@YAPAPAPAVCCoordinate@@QAPAPAV1@0PAPAPAV1@@Z PROC ; std::uninitialized_copy<CCoordinate * * *,CCoordinate * * *>, COMDAT

; 1687 : _NoThrowFwdIt uninitialized_copy(const _InIt _First, const _InIt _Last, _NoThrowFwdIt _Dest) {

  00000	55		 push	 ebp
  00001	8b ec		 mov	 ebp, esp
; File C:\Program Files (x86)\Microsoft Visual Studio\2019\Community\VC\Tools\MSVC\14.29.30133\include\xutility

; 4065 :     const auto _Count           = static_cast<size_t>(_Last_ch - _First_ch);

  00003	8b 45 08	 mov	 eax, DWORD PTR __First$[ebp]
; File C:\Program Files (x86)\Microsoft Visual Studio\2019\Community\VC\Tools\MSVC\14.29.30133\include\xmemory

; 1687 : _NoThrowFwdIt uninitialized_copy(const _InIt _First, const _InIt _Last, _NoThrowFwdIt _Dest) {

  00006	56		 push	 esi
; File C:\Program Files (x86)\Microsoft Visual Studio\2019\Community\VC\Tools\MSVC\14.29.30133\include\xutility

; 4066 :     _CSTD memmove(_Dest_ch, _First_ch, _Count);

  00007	8b 75 10	 mov	 esi, DWORD PTR __Dest$[ebp]
; File C:\Program Files (x86)\Microsoft Visual Studio\2019\Community\VC\Tools\MSVC\14.29.30133\include\xmemory

; 1687 : _NoThrowFwdIt uninitialized_copy(const _InIt _First, const _InIt _Last, _NoThrowFwdIt _Dest) {

  0000a	57		 push	 edi
; File C:\Program Files (x86)\Microsoft Visual Studio\2019\Community\VC\Tools\MSVC\14.29.30133\include\xutility

; 4065 :     const auto _Count           = static_cast<size_t>(_Last_ch - _First_ch);

  0000b	8b 7d 0c	 mov	 edi, DWORD PTR __Last$[ebp]
  0000e	2b f8		 sub	 edi, eax

; 4066 :     _CSTD memmove(_Dest_ch, _First_ch, _Count);

  00010	57		 push	 edi
  00011	50		 push	 eax
  00012	56		 push	 esi
  00013	e8 00 00 00 00	 call	 _memmove
  00018	83 c4 0c	 add	 esp, 12			; 0000000cH

; 4067 :     if constexpr (is_pointer_v<_OutCtgIt>) {
; 4068 :         return reinterpret_cast<_OutCtgIt>(_Dest_ch + _Count);

  0001b	8d 04 37	 lea	 eax, DWORD PTR [edi+esi]
; File C:\Program Files (x86)\Microsoft Visual Studio\2019\Community\VC\Tools\MSVC\14.29.30133\include\xmemory

; 1694 :     return _Dest;

  0001e	5f		 pop	 edi
  0001f	5e		 pop	 esi

; 1695 : }

  00020	5d		 pop	 ebp
  00021	c3		 ret	 0
??$uninitialized_copy@PAPAPAVCCoordinate@@PAPAPAV1@@std@@YAPAPAPAVCCoordinate@@QAPAPAV1@0PAPAPAV1@@Z ENDP ; std::uninitialized_copy<CCoordinate * * *,CCoordinate * * *>
_TEXT	ENDS
; Function compile flags: /Ogtp
;	COMDAT ??__F?m_strAddInItemName@CAnalysisData@@2V?$CStringT@DV?$StrTraitMFC_DLL@DV?$ChTraitsCRT@D@ATL@@@@@ATL@@A@@YAXXZ
text$yd	SEGMENT
??__F?m_strAddInItemName@CAnalysisData@@2V?$CStringT@DV?$StrTraitMFC_DLL@DV?$ChTraitsCRT@D@ATL@@@@@ATL@@A@@YAXXZ PROC ; `dynamic atexit destructor for 'CAnalysisData::m_strAddInItemName'', COMDAT
  00000	b9 00 00 00 00	 mov	 ecx, OFFSET ?m_strAddInItemName@CAnalysisData@@2V?$CStringT@DV?$StrTraitMFC_DLL@DV?$ChTraitsCRT@D@ATL@@@@@ATL@@A ; CAnalysisData::m_strAddInItemName
  00005	ff 25 00 00 00
	00		 jmp	 DWORD PTR __imp_??1?$CStringT@DV?$StrTraitMFC_DLL@DV?$ChTraitsCRT@D@ATL@@@@@ATL@@QAE@XZ
??__F?m_strAddInItemName@CAnalysisData@@2V?$CStringT@DV?$StrTraitMFC_DLL@DV?$ChTraitsCRT@D@ATL@@@@@ATL@@A@@YAXXZ ENDP ; `dynamic atexit destructor for 'CAnalysisData::m_strAddInItemName''
text$yd	ENDS
; Function compile flags: /Ogtp
; File D:\git\src\IBK\IBK_DRFN\ProjSrc\SrcChartEx\ChartAddIn\ChartAnalysisToolAddIn\AnalysisTool\AnalysisData.cpp
;	COMDAT ??__E?m_strAddInItemName@CAnalysisData@@2V?$CStringT@DV?$StrTraitMFC_DLL@DV?$ChTraitsCRT@D@ATL@@@@@ATL@@A@@YAXXZ
text$di	SEGMENT
??__E?m_strAddInItemName@CAnalysisData@@2V?$CStringT@DV?$StrTraitMFC_DLL@DV?$ChTraitsCRT@D@ATL@@@@@ATL@@A@@YAXXZ PROC ; `dynamic initializer for 'CAnalysisData::m_strAddInItemName'', COMDAT

; 25   : CString CAnalysisData::m_strAddInItemName = "ANALYSIS_TOOL";

  00000	68 00 00 00 00	 push	 OFFSET ??_C@_0O@DMAKNGHI@ANALYSIS_TOOL@
  00005	b9 00 00 00 00	 mov	 ecx, OFFSET ?m_strAddInItemName@CAnalysisData@@2V?$CStringT@DV?$StrTraitMFC_DLL@DV?$ChTraitsCRT@D@ATL@@@@@ATL@@A ; CAnalysisData::m_strAddInItemName
  0000a	ff 15 00 00 00
	00		 call	 DWORD PTR __imp_??0?$CStringT@DV?$StrTraitMFC_DLL@DV?$ChTraitsCRT@D@ATL@@@@@ATL@@QAE@PBD@Z
  00010	68 00 00 00 00	 push	 OFFSET ??__F?m_strAddInItemName@CAnalysisData@@2V?$CStringT@DV?$StrTraitMFC_DLL@DV?$ChTraitsCRT@D@ATL@@@@@ATL@@A@@YAXXZ ; `dynamic atexit destructor for 'CAnalysisData::m_strAddInItemName''
  00015	e8 00 00 00 00	 call	 _atexit
  0001a	59		 pop	 ecx
  0001b	c3		 ret	 0
??__E?m_strAddInItemName@CAnalysisData@@2V?$CStringT@DV?$StrTraitMFC_DLL@DV?$ChTraitsCRT@D@ATL@@@@@ATL@@A@@YAXXZ ENDP ; `dynamic initializer for 'CAnalysisData::m_strAddInItemName''
text$di	ENDS
; Function compile flags: /Ogtp
; File D:\git\src\IBK\IBK_DRFN\ProjSrc\SrcChartEx\ChartAddIn\ChartAnalysisToolAddIn\Include_Chart\MessageDefine.h
;	COMDAT ??__ERMS_ANALYSIS_FUNC@@YAXXZ
text$di	SEGMENT
??__ERMS_ANALYSIS_FUNC@@YAXXZ PROC			; `dynamic initializer for 'RMS_ANALYSIS_FUNC'', COMDAT

; 5    : const UINT RMS_ANALYSIS_FUNC = ::RegisterWindowMessage(_T("RMS_ANALYSIS_FUNC"));

  00000	68 00 00 00 00	 push	 OFFSET ??_C@_0BC@MMPGLPDH@RMS_ANALYSIS_FUNC@
  00005	ff 15 00 00 00
	00		 call	 DWORD PTR __imp__RegisterWindowMessageA@4
  0000b	a3 00 00 00 00	 mov	 DWORD PTR ?RMS_ANALYSIS_FUNC@@3IB, eax
  00010	c3		 ret	 0
??__ERMS_ANALYSIS_FUNC@@YAXXZ ENDP			; `dynamic initializer for 'RMS_ANALYSIS_FUNC''
text$di	ENDS
; Function compile flags: /Ogtp
; File C:\Program Files (x86)\Microsoft Visual Studio\2019\Community\VC\Tools\MSVC\14.29.30133\include\deque
; File C:\Program Files (x86)\Microsoft Visual Studio\2019\Community\VC\Tools\MSVC\14.29.30133\include\xmemory
; File C:\Program Files (x86)\Microsoft Visual Studio\2019\Community\VC\Tools\MSVC\14.29.30133\include\deque
; File C:\Program Files (x86)\Microsoft Visual Studio\2019\Community\VC\Tools\MSVC\14.29.30133\include\xmemory
; File C:\Program Files (x86)\Microsoft Visual Studio\2019\Community\VC\Tools\MSVC\14.29.30133\include\deque
; File C:\Program Files (x86)\Microsoft Visual Studio\2019\Community\VC\Tools\MSVC\14.29.30133\include\xmemory
; File C:\Program Files (x86)\Microsoft Visual Studio\2019\Community\VC\Tools\MSVC\14.29.30133\include\deque
;	COMDAT ?_Tidy@?$deque@PAVCCoordinate@@V?$allocator@PAVCCoordinate@@@std@@@std@@AAEXXZ
_TEXT	SEGMENT
?_Tidy@?$deque@PAVCCoordinate@@V?$allocator@PAVCCoordinate@@@std@@@std@@AAEXXZ PROC ; std::deque<CCoordinate *,std::allocator<CCoordinate *> >::_Tidy, COMDAT
; _this$ = ecx

; 1471 :     void _Tidy() noexcept { // free all storage

  00000	57		 push	 edi
  00001	8b f9		 mov	 edi, ecx

; 1002 :         return _Mysize() == 0;

  00003	8b 4f 10	 mov	 ecx, DWORD PTR [edi+16]
  00006	85 c9		 test	 ecx, ecx

; 1472 :         _Orphan_all();
; 1473 : 
; 1474 :         _Alpty _Almap(_Getal());
; 1475 :         while (!empty()) {

  00008	74 15		 je	 SHORT $LN60@Tidy
  0000a	66 0f 1f 44 00
	00		 npad	 6
$LL2@Tidy:

; 1146 :         if (--_Mysize() == 0) {

  00010	8d 41 ff	 lea	 eax, DWORD PTR [ecx-1]
  00013	89 47 10	 mov	 DWORD PTR [edi+16], eax
  00016	8b c8		 mov	 ecx, eax
  00018	85 c0		 test	 eax, eax
  0001a	75 f4		 jne	 SHORT $LL2@Tidy

; 1147 :             _Myoff() = 0;

  0001c	89 47 0c	 mov	 DWORD PTR [edi+12], eax
$LN60@Tidy:
  0001f	56		 push	 esi

; 1479 :         for (size_type _Block = _Mapsize(); 0 < _Block;) { // free storage for a block and destroy pointer

  00020	8b 77 08	 mov	 esi, DWORD PTR [edi+8]
  00023	85 f6		 test	 esi, esi
  00025	74 1a		 je	 SHORT $LN5@Tidy
$LL4@Tidy:

; 1480 :             if (_Map()[--_Block]) { // free block and destroy its pointer

  00027	8b 47 04	 mov	 eax, DWORD PTR [edi+4]
  0002a	4e		 dec	 esi
  0002b	8b 04 b0	 mov	 eax, DWORD PTR [eax+esi*4]
  0002e	85 c0		 test	 eax, eax
  00030	74 0b		 je	 SHORT $LN23@Tidy
; File C:\Program Files (x86)\Microsoft Visual Studio\2019\Community\VC\Tools\MSVC\14.29.30133\include\xmemory

; 255  :         ::operator delete(_Ptr, _Bytes);

  00032	6a 10		 push	 16			; 00000010H
  00034	50		 push	 eax
  00035	e8 00 00 00 00	 call	 ??3@YAXPAXI@Z		; operator delete
  0003a	83 c4 08	 add	 esp, 8
$LN23@Tidy:
; File C:\Program Files (x86)\Microsoft Visual Studio\2019\Community\VC\Tools\MSVC\14.29.30133\include\deque

; 1479 :         for (size_type _Block = _Mapsize(); 0 < _Block;) { // free storage for a block and destroy pointer

  0003d	85 f6		 test	 esi, esi
  0003f	75 e6		 jne	 SHORT $LL4@Tidy
$LN5@Tidy:

; 1481 :                 _Getal().deallocate(_Map()[_Block], _Block_size);
; 1482 :                 _Destroy_in_place(_Map()[_Block]);
; 1483 :             }
; 1484 :         }
; 1485 : 
; 1486 :         if (_Map() != _Mapptr()) {

  00041	8b 47 04	 mov	 eax, DWORD PTR [edi+4]
  00044	5e		 pop	 esi
  00045	85 c0		 test	 eax, eax
  00047	74 2a		 je	 SHORT $LN41@Tidy
; File C:\Program Files (x86)\Microsoft Visual Studio\2019\Community\VC\Tools\MSVC\14.29.30133\include\xmemory

; 797  :         _Deallocate<_New_alignof<_Ty>>(_Ptr, sizeof(_Ty) * _Count);

  00049	8b 4f 08	 mov	 ecx, DWORD PTR [edi+8]
  0004c	c1 e1 02	 shl	 ecx, 2

; 251  :         if (_Bytes >= _Big_allocation_threshold) { // boost the alignment of big allocations to help autovectorization

  0004f	81 f9 00 10 00
	00		 cmp	 ecx, 4096		; 00001000H
  00055	72 12		 jb	 SHORT $LN51@Tidy

; 150  :     const uintptr_t _Ptr_container   = _Ptr_user[-1];

  00057	8b 50 fc	 mov	 edx, DWORD PTR [eax-4]
  0005a	83 c1 23	 add	 ecx, 35			; 00000023H

; 151  : 
; 152  :     // If the following asserts, it likely means that we are performing
; 153  :     // an aligned delete on memory coming from an unaligned allocation.
; 154  :     _STL_ASSERT(_Ptr_user[-2] == _Big_allocation_sentinel, "invalid argument");
; 155  : 
; 156  :     // Extra paranoia on aligned allocation/deallocation; ensure _Ptr_container is
; 157  :     // in range [_Min_back_shift, _Non_user_size]
; 158  : #ifdef _DEBUG
; 159  :     constexpr uintptr_t _Min_back_shift = 2 * sizeof(void*);
; 160  : #else // ^^^ _DEBUG ^^^ // vvv !_DEBUG vvv
; 161  :     constexpr uintptr_t _Min_back_shift = sizeof(void*);
; 162  : #endif // _DEBUG
; 163  :     const uintptr_t _Back_shift = reinterpret_cast<uintptr_t>(_Ptr) - _Ptr_container;

  0005d	2b c2		 sub	 eax, edx

; 164  :     _STL_VERIFY(_Back_shift >= _Min_back_shift && _Back_shift <= _Non_user_size, "invalid argument");

  0005f	83 c0 fc	 add	 eax, -4			; fffffffcH
  00062	83 f8 1f	 cmp	 eax, 31			; 0000001fH
  00065	77 1c		 ja	 SHORT $LN48@Tidy

; 165  :     _Ptr = reinterpret_cast<void*>(_Ptr_container);

  00067	8b c2		 mov	 eax, edx
$LN51@Tidy:

; 255  :         ::operator delete(_Ptr, _Bytes);

  00069	51		 push	 ecx
  0006a	50		 push	 eax
  0006b	e8 00 00 00 00	 call	 ??3@YAXPAXI@Z		; operator delete
  00070	83 c4 08	 add	 esp, 8
$LN41@Tidy:
; File C:\Program Files (x86)\Microsoft Visual Studio\2019\Community\VC\Tools\MSVC\14.29.30133\include\deque

; 1490 :         _Mapsize() = 0;

  00073	c7 47 08 00 00
	00 00		 mov	 DWORD PTR [edi+8], 0

; 1491 :         _Map()     = _Mapptr();

  0007a	c7 47 04 00 00
	00 00		 mov	 DWORD PTR [edi+4], 0
  00081	5f		 pop	 edi

; 1492 :     }

  00082	c3		 ret	 0
$LN48@Tidy:
; File C:\Program Files (x86)\Microsoft Visual Studio\2019\Community\VC\Tools\MSVC\14.29.30133\include\xmemory

; 164  :     _STL_VERIFY(_Back_shift >= _Min_back_shift && _Back_shift <= _Non_user_size, "invalid argument");

  00083	ff 15 00 00 00
	00		 call	 DWORD PTR __imp___invalid_parameter_noinfo_noreturn
$LN62@Tidy:
  00089	cc		 int	 3
?_Tidy@?$deque@PAVCCoordinate@@V?$allocator@PAVCCoordinate@@@std@@@std@@AAEXXZ ENDP ; std::deque<CCoordinate *,std::allocator<CCoordinate *> >::_Tidy
_TEXT	ENDS
; Function compile flags: /Ogtp
; File C:\Program Files (x86)\Microsoft Visual Studio\2019\Community\VC\Tools\MSVC\14.29.30133\include\deque
; File C:\Program Files (x86)\Microsoft Visual Studio\2019\Community\VC\Tools\MSVC\14.29.30133\include\xmemory
; File C:\Program Files (x86)\Microsoft Visual Studio\2019\Community\VC\Tools\MSVC\14.29.30133\include\deque
; File C:\Program Files (x86)\Microsoft Visual Studio\2019\Community\VC\Tools\MSVC\14.29.30133\include\xutility
; File C:\Program Files (x86)\Microsoft Visual Studio\2019\Community\VC\Tools\MSVC\14.29.30133\include\deque
; File C:\Program Files (x86)\Microsoft Visual Studio\2019\Community\VC\Tools\MSVC\14.29.30133\include\xutility
; File C:\Program Files (x86)\Microsoft Visual Studio\2019\Community\VC\Tools\MSVC\14.29.30133\include\deque
; File C:\Program Files (x86)\Microsoft Visual Studio\2019\Community\VC\Tools\MSVC\14.29.30133\include\xutility
; File C:\Program Files (x86)\Microsoft Visual Studio\2019\Community\VC\Tools\MSVC\14.29.30133\include\deque
; File C:\Program Files (x86)\Microsoft Visual Studio\2019\Community\VC\Tools\MSVC\14.29.30133\include\xutility
; File C:\Program Files (x86)\Microsoft Visual Studio\2019\Community\VC\Tools\MSVC\14.29.30133\include\xmemory
; File C:\Program Files (x86)\Microsoft Visual Studio\2019\Community\VC\Tools\MSVC\14.29.30133\include\xutility
; File C:\Program Files (x86)\Microsoft Visual Studio\2019\Community\VC\Tools\MSVC\14.29.30133\include\xmemory
; File C:\Program Files (x86)\Microsoft Visual Studio\2019\Community\VC\Tools\MSVC\14.29.30133\include\xutility
; File C:\Program Files (x86)\Microsoft Visual Studio\2019\Community\VC\Tools\MSVC\14.29.30133\include\xmemory
; File C:\Program Files (x86)\Microsoft Visual Studio\2019\Community\VC\Tools\MSVC\14.29.30133\include\deque
; File C:\Program Files (x86)\Microsoft Visual Studio\2019\Community\VC\Tools\MSVC\14.29.30133\include\xutility
; File C:\Program Files (x86)\Microsoft Visual Studio\2019\Community\VC\Tools\MSVC\14.29.30133\include\deque
; File C:\Program Files (x86)\Microsoft Visual Studio\2019\Community\VC\Tools\MSVC\14.29.30133\include\xutility
; File C:\Program Files (x86)\Microsoft Visual Studio\2019\Community\VC\Tools\MSVC\14.29.30133\include\deque
; File C:\Program Files (x86)\Microsoft Visual Studio\2019\Community\VC\Tools\MSVC\14.29.30133\include\xutility
; File C:\Program Files (x86)\Microsoft Visual Studio\2019\Community\VC\Tools\MSVC\14.29.30133\include\xmemory
; File C:\Program Files (x86)\Microsoft Visual Studio\2019\Community\VC\Tools\MSVC\14.29.30133\include\xutility
; File C:\Program Files (x86)\Microsoft Visual Studio\2019\Community\VC\Tools\MSVC\14.29.30133\include\xmemory
; File C:\Program Files (x86)\Microsoft Visual Studio\2019\Community\VC\Tools\MSVC\14.29.30133\include\xutility
; File C:\Program Files (x86)\Microsoft Visual Studio\2019\Community\VC\Tools\MSVC\14.29.30133\include\xmemory
; File C:\Program Files (x86)\Microsoft Visual Studio\2019\Community\VC\Tools\MSVC\14.29.30133\include\deque
; File C:\Program Files (x86)\Microsoft Visual Studio\2019\Community\VC\Tools\MSVC\14.29.30133\include\xmemory
; File C:\Program Files (x86)\Microsoft Visual Studio\2019\Community\VC\Tools\MSVC\14.29.30133\include\deque
; File C:\Program Files (x86)\Microsoft Visual Studio\2019\Community\VC\Tools\MSVC\14.29.30133\include\xmemory
; File C:\Program Files (x86)\Microsoft Visual Studio\2019\Community\VC\Tools\MSVC\14.29.30133\include\deque
; File C:\Program Files (x86)\Microsoft Visual Studio\2019\Community\VC\Tools\MSVC\14.29.30133\include\xmemory
; File C:\Program Files (x86)\Microsoft Visual Studio\2019\Community\VC\Tools\MSVC\14.29.30133\include\deque
;	COMDAT ?_Growmap@?$deque@PAVCCoordinate@@V?$allocator@PAVCCoordinate@@@std@@@std@@AAEXI@Z
_TEXT	SEGMENT
__Myptr$1$ = -16					; size = 4
__Myboff$1$ = -12					; size = 4
_this$1$ = -8						; size = 4
__Count$1$ = -4						; size = 4
$T1 = 8							; size = 4
__Count$ = 8						; size = 4
?_Growmap@?$deque@PAVCCoordinate@@V?$allocator@PAVCCoordinate@@@std@@@std@@AAEXI@Z PROC ; std::deque<CCoordinate *,std::allocator<CCoordinate *> >::_Growmap, COMDAT
; _this$ = ecx

; 1432 :     void _Growmap(size_type _Count) { // grow map by at least _Count pointers, _Mapsize() a power of 2

  00000	55		 push	 ebp
  00001	8b ec		 mov	 ebp, esp
  00003	83 ec 10	 sub	 esp, 16			; 00000010H
  00006	53		 push	 ebx
  00007	56		 push	 esi
  00008	8b f1		 mov	 esi, ecx

; 1433 :         static_assert(1 < _Minimum_map_size, "The _Xlen() test should always be performed.");
; 1434 : 
; 1435 :         _Alpty _Almap(_Getal());
; 1436 :         size_type _Newsize = 0 < _Mapsize() ? _Mapsize() : 1;

  0000a	b8 01 00 00 00	 mov	 eax, 1
  0000f	57		 push	 edi
  00010	8b 7d 08	 mov	 edi, DWORD PTR __Count$[ebp]
  00013	89 75 f8	 mov	 DWORD PTR _this$1$[ebp], esi
  00016	8b 56 08	 mov	 edx, DWORD PTR [esi+8]
  00019	85 d2		 test	 edx, edx
  0001b	0f 45 c2	 cmovne	 eax, edx
  0001e	66 90		 npad	 2
$LL2@Growmap:

; 1437 :         while (_Newsize - _Mapsize() < _Count || _Newsize < _Minimum_map_size) {

  00020	8b d8		 mov	 ebx, eax
  00022	2b da		 sub	 ebx, edx
  00024	3b df		 cmp	 ebx, edi
  00026	72 05		 jb	 SHORT $LN4@Growmap
  00028	83 f8 08	 cmp	 eax, 8
  0002b	73 13		 jae	 SHORT $LN3@Growmap
$LN4@Growmap:

; 1438 :             // scale _Newsize to 2^N >= _Mapsize() + _Count
; 1439 :             if (max_size() / _Block_size - _Newsize < _Newsize) {

  0002d	b9 ff ff ff 0f	 mov	 ecx, 268435455		; 0fffffffH
  00032	2b c8		 sub	 ecx, eax
  00034	3b c8		 cmp	 ecx, eax
  00036	0f 82 49 01 00
	00		 jb	 $LN138@Growmap

; 1441 :             }
; 1442 : 
; 1443 :             _Newsize *= 2;

  0003c	03 c0		 add	 eax, eax

; 1444 :         }

  0003e	eb e0		 jmp	 SHORT $LL2@Growmap
$LN3@Growmap:

; 1445 :         _Count = _Newsize - _Mapsize();
; 1446 : 
; 1447 :         size_type _Myboff = _Myoff() / _Block_size;

  00040	8b 7e 0c	 mov	 edi, DWORD PTR [esi+12]
  00043	c1 ef 02	 shr	 edi, 2
  00046	89 7d f4	 mov	 DWORD PTR __Myboff$1$[ebp], edi
; File C:\Program Files (x86)\Microsoft Visual Studio\2019\Community\VC\Tools\MSVC\14.29.30133\include\xmemory

; 60   :         if (_Count > _Max_possible) {

  00049	3d ff ff ff 3f	 cmp	 eax, 1073741823		; 3fffffffH
  0004e	0f 87 38 01 00
	00		 ja	 $LN142@Growmap

; 61   :             _Throw_bad_array_new_length(); // multiply overflow
; 62   :         }
; 63   :     }
; 64   : 
; 65   :     return _Count * _Ty_size;

  00054	c1 e0 02	 shl	 eax, 2

; 228  :         if (_Bytes >= _Big_allocation_threshold) { // boost the alignment of big allocations to help autovectorization

  00057	3d 00 10 00 00	 cmp	 eax, 4096		; 00001000H
  0005c	72 27		 jb	 SHORT $LN19@Growmap

; 129  :     const size_t _Block_size = _Non_user_size + _Bytes;

  0005e	8d 48 23	 lea	 ecx, DWORD PTR [eax+35]

; 130  :     if (_Block_size <= _Bytes) {

  00061	3b c8		 cmp	 ecx, eax
  00063	0f 86 23 01 00
	00		 jbe	 $LN142@Growmap

; 79   :         return ::operator new(_Bytes);

  00069	51		 push	 ecx
  0006a	e8 00 00 00 00	 call	 ??2@YAPAXI@Z		; operator new
  0006f	83 c4 04	 add	 esp, 4

; 135  :     _STL_VERIFY(_Ptr_container != 0, "invalid argument"); // validate even in release since we're doing p[-1]

  00072	85 c0		 test	 eax, eax
  00074	0f 84 05 01 00
	00		 je	 $LN130@Growmap

; 136  :     void* const _Ptr = reinterpret_cast<void*>((_Ptr_container + _Non_user_size) & ~(_Big_allocation_alignment - 1));

  0007a	8d 50 23	 lea	 edx, DWORD PTR [eax+35]
  0007d	83 e2 e0	 and	 edx, -32		; ffffffe0H

; 137  :     static_cast<uintptr_t*>(_Ptr)[-1] = _Ptr_container;

  00080	89 42 fc	 mov	 DWORD PTR [edx-4], eax

; 229  :             return _Allocate_manually_vector_aligned<_Traits>(_Bytes);

  00083	eb 13		 jmp	 SHORT $LN145@Growmap
$LN19@Growmap:

; 230  :         }
; 231  :     }
; 232  : #endif // defined(_M_IX86) || defined(_M_X64)
; 233  : 
; 234  :     if (_Bytes != 0) {

  00085	85 c0		 test	 eax, eax
  00087	74 0d		 je	 SHORT $LN20@Growmap

; 79   :         return ::operator new(_Bytes);

  00089	50		 push	 eax
  0008a	e8 00 00 00 00	 call	 ??2@YAPAXI@Z		; operator new
  0008f	83 c4 04	 add	 esp, 4

; 235  :         return _Traits::_Allocate(_Bytes);

  00092	8b d0		 mov	 edx, eax
  00094	eb 02		 jmp	 SHORT $LN145@Growmap
$LN20@Growmap:

; 236  :     }
; 237  : 
; 238  :     return nullptr;

  00096	33 d2		 xor	 edx, edx
$LN145@Growmap:
; File C:\Program Files (x86)\Microsoft Visual Studio\2019\Community\VC\Tools\MSVC\14.29.30133\include\deque

; 1451 :         _Myptr = _STD uninitialized_copy(_Map() + _Myboff, _Map() + _Mapsize(), _Myptr); // copy initial to end

  00098	8b 46 04	 mov	 eax, DWORD PTR [esi+4]
  0009b	8b 76 08	 mov	 esi, DWORD PTR [esi+8]
  0009e	c1 e7 02	 shl	 edi, 2
  000a1	c1 e6 02	 shl	 esi, 2
  000a4	89 7d fc	 mov	 DWORD PTR __Count$1$[ebp], edi
  000a7	89 55 08	 mov	 DWORD PTR $T1[ebp], edx
  000aa	8d 0c 38	 lea	 ecx, DWORD PTR [eax+edi]
  000ad	03 fa		 add	 edi, edx
; File C:\Program Files (x86)\Microsoft Visual Studio\2019\Community\VC\Tools\MSVC\14.29.30133\include\xutility

; 4065 :     const auto _Count           = static_cast<size_t>(_Last_ch - _First_ch);

  000af	2b f1		 sub	 esi, ecx
; File C:\Program Files (x86)\Microsoft Visual Studio\2019\Community\VC\Tools\MSVC\14.29.30133\include\deque

; 1451 :         _Myptr = _STD uninitialized_copy(_Map() + _Myboff, _Map() + _Mapsize(), _Myptr); // copy initial to end

  000b1	03 f0		 add	 esi, eax
; File C:\Program Files (x86)\Microsoft Visual Studio\2019\Community\VC\Tools\MSVC\14.29.30133\include\xutility

; 4066 :     _CSTD memmove(_Dest_ch, _First_ch, _Count);

  000b3	56		 push	 esi
  000b4	51		 push	 ecx
  000b5	57		 push	 edi
  000b6	e8 00 00 00 00	 call	 _memmove

; 4068 :         return reinterpret_cast<_OutCtgIt>(_Dest_ch + _Count);

  000bb	8d 04 3e	 lea	 eax, DWORD PTR [esi+edi]
  000be	83 c4 0c	 add	 esp, 12			; 0000000cH
; File C:\Program Files (x86)\Microsoft Visual Studio\2019\Community\VC\Tools\MSVC\14.29.30133\include\deque

; 1451 :         _Myptr = _STD uninitialized_copy(_Map() + _Myboff, _Map() + _Mapsize(), _Myptr); // copy initial to end

  000c1	8b 75 f8	 mov	 esi, DWORD PTR _this$1$[ebp]

; 1452 :         if (_Myboff <= _Count) { // increment greater than offset of initial block

  000c4	8b 7d f4	 mov	 edi, DWORD PTR __Myboff$1$[ebp]
; File C:\Program Files (x86)\Microsoft Visual Studio\2019\Community\VC\Tools\MSVC\14.29.30133\include\xutility

; 4068 :         return reinterpret_cast<_OutCtgIt>(_Dest_ch + _Count);

  000c7	89 45 f0	 mov	 DWORD PTR __Myptr$1$[ebp], eax
; File C:\Program Files (x86)\Microsoft Visual Studio\2019\Community\VC\Tools\MSVC\14.29.30133\include\deque

; 1451 :         _Myptr = _STD uninitialized_copy(_Map() + _Myboff, _Map() + _Mapsize(), _Myptr); // copy initial to end

  000ca	8b 56 04	 mov	 edx, DWORD PTR [esi+4]

; 1452 :         if (_Myboff <= _Count) { // increment greater than offset of initial block

  000cd	3b fb		 cmp	 edi, ebx
  000cf	77 35		 ja	 SHORT $LN6@Growmap
; File C:\Program Files (x86)\Microsoft Visual Studio\2019\Community\VC\Tools\MSVC\14.29.30133\include\xutility

; 4066 :     _CSTD memmove(_Dest_ch, _First_ch, _Count);

  000d1	8d 0c bd 00 00
	00 00		 lea	 ecx, DWORD PTR [edi*4]
  000d8	51		 push	 ecx
  000d9	52		 push	 edx
  000da	50		 push	 eax
  000db	e8 00 00 00 00	 call	 _memmove
; File C:\Program Files (x86)\Microsoft Visual Studio\2019\Community\VC\Tools\MSVC\14.29.30133\include\xmemory

; 1792 :     _CSTD memset(_First_ch, 0, static_cast<size_t>(_Last_ch - _First_ch));

  000e0	8b c3		 mov	 eax, ebx
  000e2	2b c7		 sub	 eax, edi
; File C:\Program Files (x86)\Microsoft Visual Studio\2019\Community\VC\Tools\MSVC\14.29.30133\include\xutility

; 4068 :         return reinterpret_cast<_OutCtgIt>(_Dest_ch + _Count);

  000e4	8b 7d fc	 mov	 edi, DWORD PTR __Count$1$[ebp]
; File C:\Program Files (x86)\Microsoft Visual Studio\2019\Community\VC\Tools\MSVC\14.29.30133\include\xmemory

; 1792 :     _CSTD memset(_First_ch, 0, static_cast<size_t>(_Last_ch - _First_ch));

  000e7	c1 e0 02	 shl	 eax, 2
  000ea	50		 push	 eax
; File C:\Program Files (x86)\Microsoft Visual Studio\2019\Community\VC\Tools\MSVC\14.29.30133\include\xutility

; 4068 :         return reinterpret_cast<_OutCtgIt>(_Dest_ch + _Count);

  000eb	8b 45 f0	 mov	 eax, DWORD PTR __Myptr$1$[ebp]
  000ee	03 c7		 add	 eax, edi
; File C:\Program Files (x86)\Microsoft Visual Studio\2019\Community\VC\Tools\MSVC\14.29.30133\include\xmemory

; 1792 :     _CSTD memset(_First_ch, 0, static_cast<size_t>(_Last_ch - _First_ch));

  000f0	6a 00		 push	 0
  000f2	50		 push	 eax
  000f3	e8 00 00 00 00	 call	 _memset
  000f8	57		 push	 edi
  000f9	8b 7d 08	 mov	 edi, DWORD PTR $T1[ebp]
  000fc	6a 00		 push	 0
  000fe	57		 push	 edi
  000ff	e8 00 00 00 00	 call	 _memset
; File C:\Program Files (x86)\Microsoft Visual Studio\2019\Community\VC\Tools\MSVC\14.29.30133\include\deque

; 1456 :         } else { // increment not greater than offset of initial block

  00104	eb 36		 jmp	 SHORT $LN146@Growmap
$LN6@Growmap:

; 1457 :             _STD uninitialized_copy(_Map(), _Map() + _Count, _Myptr); // copy more old

  00106	8d 3c 9d 00 00
	00 00		 lea	 edi, DWORD PTR [ebx*4]
; File C:\Program Files (x86)\Microsoft Visual Studio\2019\Community\VC\Tools\MSVC\14.29.30133\include\xutility

; 4066 :     _CSTD memmove(_Dest_ch, _First_ch, _Count);

  0010d	57		 push	 edi
  0010e	52		 push	 edx
  0010f	50		 push	 eax
  00110	e8 00 00 00 00	 call	 _memmove
; File C:\Program Files (x86)\Microsoft Visual Studio\2019\Community\VC\Tools\MSVC\14.29.30133\include\deque

; 1458 :             _Myptr = _STD uninitialized_copy(_Map() + _Count, _Map() + _Myboff, _Newmap); // copy rest of old

  00115	8b 76 04	 mov	 esi, DWORD PTR [esi+4]
  00118	8d 04 37	 lea	 eax, DWORD PTR [edi+esi]
; File C:\Program Files (x86)\Microsoft Visual Studio\2019\Community\VC\Tools\MSVC\14.29.30133\include\xutility

; 4065 :     const auto _Count           = static_cast<size_t>(_Last_ch - _First_ch);

  0011b	2b f0		 sub	 esi, eax
; File C:\Program Files (x86)\Microsoft Visual Studio\2019\Community\VC\Tools\MSVC\14.29.30133\include\deque

; 1458 :             _Myptr = _STD uninitialized_copy(_Map() + _Count, _Map() + _Myboff, _Newmap); // copy rest of old

  0011d	03 75 fc	 add	 esi, DWORD PTR __Count$1$[ebp]
; File C:\Program Files (x86)\Microsoft Visual Studio\2019\Community\VC\Tools\MSVC\14.29.30133\include\xutility

; 4066 :     _CSTD memmove(_Dest_ch, _First_ch, _Count);

  00120	56		 push	 esi
  00121	50		 push	 eax
  00122	ff 75 08	 push	 DWORD PTR $T1[ebp]
  00125	e8 00 00 00 00	 call	 _memmove
; File C:\Program Files (x86)\Microsoft Visual Studio\2019\Community\VC\Tools\MSVC\14.29.30133\include\xmemory

; 1792 :     _CSTD memset(_First_ch, 0, static_cast<size_t>(_Last_ch - _First_ch));

  0012a	57		 push	 edi
; File C:\Program Files (x86)\Microsoft Visual Studio\2019\Community\VC\Tools\MSVC\14.29.30133\include\xutility

; 4068 :         return reinterpret_cast<_OutCtgIt>(_Dest_ch + _Count);

  0012b	8b 7d 08	 mov	 edi, DWORD PTR $T1[ebp]
; File C:\Program Files (x86)\Microsoft Visual Studio\2019\Community\VC\Tools\MSVC\14.29.30133\include\xmemory

; 1792 :     _CSTD memset(_First_ch, 0, static_cast<size_t>(_Last_ch - _First_ch));

  0012e	6a 00		 push	 0
; File C:\Program Files (x86)\Microsoft Visual Studio\2019\Community\VC\Tools\MSVC\14.29.30133\include\xutility

; 4068 :         return reinterpret_cast<_OutCtgIt>(_Dest_ch + _Count);

  00130	8d 04 3e	 lea	 eax, DWORD PTR [esi+edi]
; File C:\Program Files (x86)\Microsoft Visual Studio\2019\Community\VC\Tools\MSVC\14.29.30133\include\xmemory

; 1792 :     _CSTD memset(_First_ch, 0, static_cast<size_t>(_Last_ch - _First_ch));

  00133	50		 push	 eax
  00134	e8 00 00 00 00	 call	 _memset
  00139	8b 75 f8	 mov	 esi, DWORD PTR _this$1$[ebp]
$LN146@Growmap:
; File C:\Program Files (x86)\Microsoft Visual Studio\2019\Community\VC\Tools\MSVC\14.29.30133\include\deque

; 1463 :         if (_Map() != _Mapptr()) {

  0013c	8b 46 04	 mov	 eax, DWORD PTR [esi+4]
  0013f	83 c4 24	 add	 esp, 36			; 00000024H
  00142	85 c0		 test	 eax, eax
  00144	74 2a		 je	 SHORT $LN123@Growmap
; File C:\Program Files (x86)\Microsoft Visual Studio\2019\Community\VC\Tools\MSVC\14.29.30133\include\xmemory

; 797  :         _Deallocate<_New_alignof<_Ty>>(_Ptr, sizeof(_Ty) * _Count);

  00146	8b 4e 08	 mov	 ecx, DWORD PTR [esi+8]
  00149	c1 e1 02	 shl	 ecx, 2

; 251  :         if (_Bytes >= _Big_allocation_threshold) { // boost the alignment of big allocations to help autovectorization

  0014c	81 f9 00 10 00
	00		 cmp	 ecx, 4096		; 00001000H
  00152	72 12		 jb	 SHORT $LN133@Growmap

; 150  :     const uintptr_t _Ptr_container   = _Ptr_user[-1];

  00154	8b 50 fc	 mov	 edx, DWORD PTR [eax-4]
  00157	83 c1 23	 add	 ecx, 35			; 00000023H

; 151  : 
; 152  :     // If the following asserts, it likely means that we are performing
; 153  :     // an aligned delete on memory coming from an unaligned allocation.
; 154  :     _STL_ASSERT(_Ptr_user[-2] == _Big_allocation_sentinel, "invalid argument");
; 155  : 
; 156  :     // Extra paranoia on aligned allocation/deallocation; ensure _Ptr_container is
; 157  :     // in range [_Min_back_shift, _Non_user_size]
; 158  : #ifdef _DEBUG
; 159  :     constexpr uintptr_t _Min_back_shift = 2 * sizeof(void*);
; 160  : #else // ^^^ _DEBUG ^^^ // vvv !_DEBUG vvv
; 161  :     constexpr uintptr_t _Min_back_shift = sizeof(void*);
; 162  : #endif // _DEBUG
; 163  :     const uintptr_t _Back_shift = reinterpret_cast<uintptr_t>(_Ptr) - _Ptr_container;

  0015a	2b c2		 sub	 eax, edx

; 164  :     _STL_VERIFY(_Back_shift >= _Min_back_shift && _Back_shift <= _Non_user_size, "invalid argument");

  0015c	83 c0 fc	 add	 eax, -4			; fffffffcH
  0015f	83 f8 1f	 cmp	 eax, 31			; 0000001fH
  00162	77 1b		 ja	 SHORT $LN130@Growmap

; 165  :     _Ptr = reinterpret_cast<void*>(_Ptr_container);

  00164	8b c2		 mov	 eax, edx
$LN133@Growmap:

; 255  :         ::operator delete(_Ptr, _Bytes);

  00166	51		 push	 ecx
  00167	50		 push	 eax
  00168	e8 00 00 00 00	 call	 ??3@YAXPAXI@Z		; operator delete
  0016d	83 c4 08	 add	 esp, 8
$LN123@Growmap:
; File C:\Program Files (x86)\Microsoft Visual Studio\2019\Community\VC\Tools\MSVC\14.29.30133\include\deque

; 1468 :         _Mapsize() += _Count;

  00170	01 5e 08	 add	 DWORD PTR [esi+8], ebx
  00173	89 7e 04	 mov	 DWORD PTR [esi+4], edi
  00176	5f		 pop	 edi
  00177	5e		 pop	 esi
  00178	5b		 pop	 ebx

; 1469 :     }

  00179	8b e5		 mov	 esp, ebp
  0017b	5d		 pop	 ebp
  0017c	c2 04 00	 ret	 4
$LN130@Growmap:
; File C:\Program Files (x86)\Microsoft Visual Studio\2019\Community\VC\Tools\MSVC\14.29.30133\include\xmemory

; 164  :     _STL_VERIFY(_Back_shift >= _Min_back_shift && _Back_shift <= _Non_user_size, "invalid argument");

  0017f	ff 15 00 00 00
	00		 call	 DWORD PTR __imp___invalid_parameter_noinfo_noreturn
$LN138@Growmap:
; File C:\Program Files (x86)\Microsoft Visual Studio\2019\Community\VC\Tools\MSVC\14.29.30133\include\deque

; 1440 :                 _Xlen(); // result too long

  00185	8b ce		 mov	 ecx, esi
  00187	e8 00 00 00 00	 call	 ?_Xlen@?$deque@PAVCCoordinate@@V?$allocator@PAVCCoordinate@@@std@@@std@@ABEXXZ ; std::deque<CCoordinate *,std::allocator<CCoordinate *> >::_Xlen
$LN142@Growmap:
; File C:\Program Files (x86)\Microsoft Visual Studio\2019\Community\VC\Tools\MSVC\14.29.30133\include\xmemory

; 131  :         _Throw_bad_array_new_length(); // add overflow

  0018c	e8 00 00 00 00	 call	 ?_Throw_bad_array_new_length@std@@YAXXZ ; std::_Throw_bad_array_new_length
$LN144@Growmap:
  00191	cc		 int	 3
?_Growmap@?$deque@PAVCCoordinate@@V?$allocator@PAVCCoordinate@@@std@@@std@@AAEXI@Z ENDP ; std::deque<CCoordinate *,std::allocator<CCoordinate *> >::_Growmap
_TEXT	ENDS
; Function compile flags: /Ogtp
; File C:\Program Files (x86)\Microsoft Visual Studio\2019\Community\VC\Tools\MSVC\14.29.30133\include\deque
;	COMDAT ?_Xlen@?$deque@PAVCCoordinate@@V?$allocator@PAVCCoordinate@@@std@@@std@@ABEXXZ
_TEXT	SEGMENT
?_Xlen@?$deque@PAVCCoordinate@@V?$allocator@PAVCCoordinate@@@std@@@std@@ABEXXZ PROC ; std::deque<CCoordinate *,std::allocator<CCoordinate *> >::_Xlen, COMDAT
; _this$ = ecx

; 1425 :         _Xlength_error("deque<T> too long");

  00000	68 00 00 00 00	 push	 OFFSET ??_C@_0BC@KBDMBKEH@deque?$DMT?$DO?5too?5long@
  00005	e8 00 00 00 00	 call	 ?_Xlength_error@std@@YAXPBD@Z ; std::_Xlength_error
$LN3@Xlen:
  0000a	cc		 int	 3
?_Xlen@?$deque@PAVCCoordinate@@V?$allocator@PAVCCoordinate@@@std@@@std@@ABEXXZ ENDP ; std::deque<CCoordinate *,std::allocator<CCoordinate *> >::_Xlen
_TEXT	ENDS
; Function compile flags: /Ogtp
; File D:\git\src\IBK\IBK_DRFN\ProjSrc\SrcChartEx\ChartAddIn\ChartAnalysisToolAddIn\Include_Chart\DequeList.h
; File C:\Program Files (x86)\Microsoft Visual Studio\2019\Community\VC\Tools\MSVC\14.29.30133\include\deque
; File C:\Program Files (x86)\Microsoft Visual Studio\2019\Community\VC\Tools\MSVC\14.29.30133\include\xmemory
; File C:\Program Files (x86)\Microsoft Visual Studio\2019\Community\VC\Tools\MSVC\14.29.30133\include\deque
; File C:\Program Files (x86)\Microsoft Visual Studio\2019\Community\VC\Tools\MSVC\14.29.30133\include\xmemory
; File C:\Program Files (x86)\Microsoft Visual Studio\2019\Community\VC\Tools\MSVC\14.29.30133\include\deque
; File D:\git\src\IBK\IBK_DRFN\ProjSrc\SrcChartEx\ChartAddIn\ChartAnalysisToolAddIn\Include_Chart\DequeList.h
;	COMDAT ?AddTail@?$CDequePointerList@VCCoordinate@@@@QAEXPAVCCoordinate@@@Z
_TEXT	SEGMENT
_pItem$ = 8						; size = 4
?AddTail@?$CDequePointerList@VCCoordinate@@@@QAEXPAVCCoordinate@@@Z PROC ; CDequePointerList<CCoordinate>::AddTail, COMDAT
; _this$ = ecx

; 227  : 	{

  00000	55		 push	 ebp
  00001	8b ec		 mov	 ebp, esp
  00003	53		 push	 ebx
  00004	56		 push	 esi
  00005	8b f1		 mov	 esi, ecx
  00007	57		 push	 edi
; File C:\Program Files (x86)\Microsoft Visual Studio\2019\Community\VC\Tools\MSVC\14.29.30133\include\deque

; 1106 :         if ((_Myoff() + _Mysize()) % _Block_size == 0 && _Mapsize() <= (_Mysize() + _Block_size) / _Block_size) {

  00008	8b 4e 10	 mov	 ecx, DWORD PTR [esi+16]
  0000b	8b f9		 mov	 edi, ecx
  0000d	8b 56 0c	 mov	 edx, DWORD PTR [esi+12]
  00010	8d 04 0a	 lea	 eax, DWORD PTR [edx+ecx]
  00013	a8 03		 test	 al, 3
  00015	75 1a		 jne	 SHORT $LN6@AddTail
  00017	8d 41 04	 lea	 eax, DWORD PTR [ecx+4]
  0001a	c1 e8 02	 shr	 eax, 2
  0001d	39 46 08	 cmp	 DWORD PTR [esi+8], eax
  00020	77 0f		 ja	 SHORT $LN6@AddTail

; 1107 :             _Growmap(1);

  00022	6a 01		 push	 1
  00024	8b ce		 mov	 ecx, esi
  00026	e8 00 00 00 00	 call	 ?_Growmap@?$deque@PAVCCoordinate@@V?$allocator@PAVCCoordinate@@@std@@@std@@AAEXI@Z ; std::deque<CCoordinate *,std::allocator<CCoordinate *> >::_Growmap
  0002b	8b 56 0c	 mov	 edx, DWORD PTR [esi+12]
  0002e	8b 7e 10	 mov	 edi, DWORD PTR [esi+16]
$LN6@AddTail:

; 1108 :         }
; 1109 :         _Myoff() &= _Mapsize() * _Block_size - 1;

  00031	8b 4e 08	 mov	 ecx, DWORD PTR [esi+8]
  00034	8d 04 8d ff ff
	ff ff		 lea	 eax, DWORD PTR [ecx*4-1]

; 559  :         return (_Off / _Block_size) & (_Mapsize - 1);

  0003b	49		 dec	 ecx

; 1109 :         _Myoff() &= _Mapsize() * _Block_size - 1;

  0003c	23 c2		 and	 eax, edx
  0003e	89 46 0c	 mov	 DWORD PTR [esi+12], eax

; 1110 :         size_type _Newoff = _Myoff() + _Mysize();

  00041	03 f8		 add	 edi, eax

; 559  :         return (_Off / _Block_size) & (_Mapsize - 1);

  00043	8b c7		 mov	 eax, edi
  00045	c1 e8 02	 shr	 eax, 2
  00048	23 c8		 and	 ecx, eax

; 1112 :         if (_Map()[_Block] == nullptr) {

  0004a	8d 1c 8d 00 00
	00 00		 lea	 ebx, DWORD PTR [ecx*4]
  00051	8b 4e 04	 mov	 ecx, DWORD PTR [esi+4]
  00054	83 3c 19 00	 cmp	 DWORD PTR [ecx+ebx], 0
  00058	75 13		 jne	 SHORT $LN7@AddTail
; File C:\Program Files (x86)\Microsoft Visual Studio\2019\Community\VC\Tools\MSVC\14.29.30133\include\xmemory

; 79   :         return ::operator new(_Bytes);

  0005a	6a 10		 push	 16			; 00000010H
  0005c	e8 00 00 00 00	 call	 ??2@YAPAXI@Z		; operator new
; File C:\Program Files (x86)\Microsoft Visual Studio\2019\Community\VC\Tools\MSVC\14.29.30133\include\deque

; 1113 :             _Map()[_Block] = _Getal().allocate(_Block_size);

  00061	8b 4e 04	 mov	 ecx, DWORD PTR [esi+4]
; File C:\Program Files (x86)\Microsoft Visual Studio\2019\Community\VC\Tools\MSVC\14.29.30133\include\xmemory

; 79   :         return ::operator new(_Bytes);

  00064	83 c4 04	 add	 esp, 4
; File C:\Program Files (x86)\Microsoft Visual Studio\2019\Community\VC\Tools\MSVC\14.29.30133\include\deque

; 1113 :             _Map()[_Block] = _Getal().allocate(_Block_size);

  00067	89 04 0b	 mov	 DWORD PTR [ebx+ecx], eax
  0006a	8b 4e 04	 mov	 ecx, DWORD PTR [esi+4]
$LN7@AddTail:

; 1114 :         }
; 1115 : 
; 1116 :         _Alty_traits::construct(

  0006d	8b 0c 0b	 mov	 ecx, DWORD PTR [ebx+ecx]
  00070	83 e7 03	 and	 edi, 3
  00073	8b 45 08	 mov	 eax, DWORD PTR _pItem$[ebp]
  00076	89 04 b9	 mov	 DWORD PTR [ecx+edi*4], eax

; 1117 :             _Getal(), _Unfancy(_Map()[_Block] + _Newoff % _Block_size), _STD forward<_Tys>(_Vals)...);
; 1118 : 
; 1119 :         ++_Mysize();

  00079	ff 46 10	 inc	 DWORD PTR [esi+16]
  0007c	5f		 pop	 edi
  0007d	5e		 pop	 esi
  0007e	5b		 pop	 ebx
; File D:\git\src\IBK\IBK_DRFN\ProjSrc\SrcChartEx\ChartAddIn\ChartAnalysisToolAddIn\Include_Chart\DequeList.h

; 230  : 	};

  0007f	5d		 pop	 ebp
  00080	c2 04 00	 ret	 4
?AddTail@?$CDequePointerList@VCCoordinate@@@@QAEXPAVCCoordinate@@@Z ENDP ; CDequePointerList<CCoordinate>::AddTail
_TEXT	ENDS
; Function compile flags: /Ogtp
; File D:\git\src\IBK\IBK_DRFN\ProjSrc\SrcChartEx\ChartAddIn\ChartAnalysisToolAddIn\AnalysisTool\AnalysisData.cpp
; File C:\Program Files (x86)\Microsoft Visual Studio\2019\Community\VC\Tools\MSVC\14.29.30133\include\deque
; File D:\git\src\IBK\IBK_DRFN\ProjSrc\SrcChartEx\ChartAddIn\ChartAnalysisToolAddIn\Include_Chart\DequeList.h
; File D:\git\src\IBK\IBK_DRFN\ProjSrc\SrcChartEx\ChartAddIn\ChartAnalysisToolAddIn\AnalysisTool\AnalysisData.cpp
; File C:\Program Files (x86)\Microsoft Visual Studio\2019\Community\VC\Tools\MSVC\14.29.30133\include\deque
; File D:\git\src\IBK\IBK_DRFN\ProjSrc\SrcChartEx\ChartAddIn\ChartAnalysisToolAddIn\Include_Chart\DequeList.h
; File C:\Program Files (x86)\Microsoft Visual Studio\2019\Community\VC\Tools\MSVC\14.29.30133\include\deque
; File D:\git\src\IBK\IBK_DRFN\ProjSrc\SrcChartEx\ChartAddIn\ChartAnalysisToolAddIn\Include_Chart\DequeList.h
; File D:\git\src\IBK\IBK_DRFN\ProjSrc\SrcChartEx\ChartAddIn\ChartAnalysisToolAddIn\AnalysisTool\AnalysisData.cpp
;	COMDAT ?GetAt@CElementPointList@@QBEPAVCCoordinate@@H@Z
_TEXT	SEGMENT
_nIndex$ = 8						; size = 4
?GetAt@CElementPointList@@QBEPAVCCoordinate@@H@Z PROC	; CElementPointList::GetAt, COMDAT
; _this$ = ecx

; 1398 : {

  00000	55		 push	 ebp
  00001	8b ec		 mov	 ebp, esp
  00003	83 ec 08	 sub	 esp, 8
  00006	56		 push	 esi
  00007	8b f1		 mov	 esi, ecx
; File C:\Program Files (x86)\Microsoft Visual Studio\2019\Community\VC\Tools\MSVC\14.29.30133\include\deque

; 1002 :         return _Mysize() == 0;

  00009	83 7e 18 00	 cmp	 DWORD PTR [esi+24], 0
; File D:\git\src\IBK\IBK_DRFN\ProjSrc\SrcChartEx\ChartAddIn\ChartAnalysisToolAddIn\Include_Chart\DequeList.h

; 205  : 		if(m_deque.empty())

  0000d	75 09		 jne	 SHORT $LN4@GetAt
; File D:\git\src\IBK\IBK_DRFN\ProjSrc\SrcChartEx\ChartAddIn\ChartAnalysisToolAddIn\AnalysisTool\AnalysisData.cpp

; 1399 : 	return m_pointList.GetAt(nIndex);

  0000f	33 c0		 xor	 eax, eax
  00011	5e		 pop	 esi

; 1400 : }

  00012	8b e5		 mov	 esp, ebp
  00014	5d		 pop	 ebp
  00015	c2 04 00	 ret	 4
$LN4@GetAt:
; File C:\Program Files (x86)\Microsoft Visual Studio\2019\Community\VC\Tools\MSVC\14.29.30133\include\deque

; 43   :         : _Mycont(static_cast<const _Mydeque*>(_Pdeque)), _Myoff(_Off) {}

  00018	8b 4e 14	 mov	 ecx, DWORD PTR [esi+20]

; 78   :         _Myoff += _Off;

  0001b	8b 55 08	 mov	 edx, DWORD PTR _nIndex$[ebp]

; 559  :         return (_Off / _Block_size) & (_Mapsize - 1);

  0001e	8b 46 10	 mov	 eax, DWORD PTR [esi+16]

; 78   :         _Myoff += _Off;

  00021	03 d1		 add	 edx, ecx

; 559  :         return (_Off / _Block_size) & (_Mapsize - 1);

  00023	48		 dec	 eax

; 78   :         _Myoff += _Off;

  00024	8b ca		 mov	 ecx, edx
  00026	c1 e9 02	 shr	 ecx, 2

; 559  :         return (_Off / _Block_size) & (_Mapsize - 1);

  00029	23 c8		 and	 ecx, eax
; File D:\git\src\IBK\IBK_DRFN\ProjSrc\SrcChartEx\ChartAddIn\ChartAnalysisToolAddIn\Include_Chart\DequeList.h

; 208  : 		return m_deque[nIndex];

  0002b	8b 46 0c	 mov	 eax, DWORD PTR [esi+12]
; File C:\Program Files (x86)\Microsoft Visual Studio\2019\Community\VC\Tools\MSVC\14.29.30133\include\deque

; 48   :         return _Mycont->_Map[_Block][_Off];

  0002e	83 e2 03	 and	 edx, 3
  00031	5e		 pop	 esi
; File D:\git\src\IBK\IBK_DRFN\ProjSrc\SrcChartEx\ChartAddIn\ChartAnalysisToolAddIn\Include_Chart\DequeList.h

; 208  : 		return m_deque[nIndex];

  00032	8b 04 88	 mov	 eax, DWORD PTR [eax+ecx*4]
; File D:\git\src\IBK\IBK_DRFN\ProjSrc\SrcChartEx\ChartAddIn\ChartAnalysisToolAddIn\AnalysisTool\AnalysisData.cpp

; 1399 : 	return m_pointList.GetAt(nIndex);

  00035	8b 04 90	 mov	 eax, DWORD PTR [eax+edx*4]

; 1400 : }

  00038	8b e5		 mov	 esp, ebp
  0003a	5d		 pop	 ebp
  0003b	c2 04 00	 ret	 4
?GetAt@CElementPointList@@QBEPAVCCoordinate@@H@Z ENDP	; CElementPointList::GetAt
_TEXT	ENDS
; Function compile flags: /Ogtp
; File D:\git\src\IBK\IBK_DRFN\ProjSrc\SrcChartEx\ChartAddIn\ChartAnalysisToolAddIn\AnalysisTool\AnalysisData.cpp
; File C:\Program Files (x86)\Microsoft Visual Studio\2019\Community\VC\Tools\MSVC\14.29.30133\include\deque
; File D:\git\src\IBK\IBK_DRFN\ProjSrc\SrcChartEx\ChartAddIn\ChartAnalysisToolAddIn\Include_Chart\DequeList.h
; File D:\git\src\IBK\IBK_DRFN\ProjSrc\SrcChartEx\ChartAddIn\ChartAnalysisToolAddIn\AnalysisTool\AnalysisData.cpp
; File C:\Program Files (x86)\Microsoft Visual Studio\2019\Community\VC\Tools\MSVC\14.29.30133\include\deque
; File D:\git\src\IBK\IBK_DRFN\ProjSrc\SrcChartEx\ChartAddIn\ChartAnalysisToolAddIn\Include_Chart\DequeList.h
; File C:\Program Files (x86)\Microsoft Visual Studio\2019\Community\VC\Tools\MSVC\14.29.30133\include\deque
; File D:\git\src\IBK\IBK_DRFN\ProjSrc\SrcChartEx\ChartAddIn\ChartAnalysisToolAddIn\Include_Chart\DequeList.h
; File D:\git\src\IBK\IBK_DRFN\ProjSrc\SrcChartEx\ChartAddIn\ChartAnalysisToolAddIn\AnalysisTool\AnalysisData.cpp
;	COMDAT ?GetAt@CElementPointList@@QAEPAVCCoordinate@@H@Z
_TEXT	SEGMENT
_nIndex$ = 8						; size = 4
?GetAt@CElementPointList@@QAEPAVCCoordinate@@H@Z PROC	; CElementPointList::GetAt, COMDAT
; _this$ = ecx

; 1393 : {

  00000	55		 push	 ebp
  00001	8b ec		 mov	 ebp, esp
  00003	83 ec 08	 sub	 esp, 8
  00006	56		 push	 esi
  00007	8b f1		 mov	 esi, ecx
; File C:\Program Files (x86)\Microsoft Visual Studio\2019\Community\VC\Tools\MSVC\14.29.30133\include\deque

; 1002 :         return _Mysize() == 0;

  00009	83 7e 18 00	 cmp	 DWORD PTR [esi+24], 0
; File D:\git\src\IBK\IBK_DRFN\ProjSrc\SrcChartEx\ChartAddIn\ChartAnalysisToolAddIn\Include_Chart\DequeList.h

; 198  : 		if(m_deque.empty())

  0000d	75 09		 jne	 SHORT $LN4@GetAt
; File D:\git\src\IBK\IBK_DRFN\ProjSrc\SrcChartEx\ChartAddIn\ChartAnalysisToolAddIn\AnalysisTool\AnalysisData.cpp

; 1394 : 	return m_pointList.GetAt(nIndex);

  0000f	33 c0		 xor	 eax, eax
  00011	5e		 pop	 esi

; 1395 : }

  00012	8b e5		 mov	 esp, ebp
  00014	5d		 pop	 ebp
  00015	c2 04 00	 ret	 4
$LN4@GetAt:
; File C:\Program Files (x86)\Microsoft Visual Studio\2019\Community\VC\Tools\MSVC\14.29.30133\include\deque

; 43   :         : _Mycont(static_cast<const _Mydeque*>(_Pdeque)), _Myoff(_Off) {}

  00018	8b 4e 14	 mov	 ecx, DWORD PTR [esi+20]

; 78   :         _Myoff += _Off;

  0001b	8b 55 08	 mov	 edx, DWORD PTR _nIndex$[ebp]

; 559  :         return (_Off / _Block_size) & (_Mapsize - 1);

  0001e	8b 46 10	 mov	 eax, DWORD PTR [esi+16]

; 78   :         _Myoff += _Off;

  00021	03 d1		 add	 edx, ecx

; 559  :         return (_Off / _Block_size) & (_Mapsize - 1);

  00023	48		 dec	 eax

; 78   :         _Myoff += _Off;

  00024	8b ca		 mov	 ecx, edx
  00026	c1 e9 02	 shr	 ecx, 2

; 559  :         return (_Off / _Block_size) & (_Mapsize - 1);

  00029	23 c8		 and	 ecx, eax
; File D:\git\src\IBK\IBK_DRFN\ProjSrc\SrcChartEx\ChartAddIn\ChartAnalysisToolAddIn\Include_Chart\DequeList.h

; 201  : 		return m_deque[nIndex];

  0002b	8b 46 0c	 mov	 eax, DWORD PTR [esi+12]
; File C:\Program Files (x86)\Microsoft Visual Studio\2019\Community\VC\Tools\MSVC\14.29.30133\include\deque

; 48   :         return _Mycont->_Map[_Block][_Off];

  0002e	83 e2 03	 and	 edx, 3
  00031	5e		 pop	 esi
; File D:\git\src\IBK\IBK_DRFN\ProjSrc\SrcChartEx\ChartAddIn\ChartAnalysisToolAddIn\Include_Chart\DequeList.h

; 201  : 		return m_deque[nIndex];

  00032	8b 04 88	 mov	 eax, DWORD PTR [eax+ecx*4]
; File D:\git\src\IBK\IBK_DRFN\ProjSrc\SrcChartEx\ChartAddIn\ChartAnalysisToolAddIn\AnalysisTool\AnalysisData.cpp

; 1394 : 	return m_pointList.GetAt(nIndex);

  00035	8b 04 90	 mov	 eax, DWORD PTR [eax+edx*4]

; 1395 : }

  00038	8b e5		 mov	 esp, ebp
  0003a	5d		 pop	 ebp
  0003b	c2 04 00	 ret	 4
?GetAt@CElementPointList@@QAEPAVCCoordinate@@H@Z ENDP	; CElementPointList::GetAt
_TEXT	ENDS
; Function compile flags: /Ogtp
; File D:\git\src\IBK\IBK_DRFN\ProjSrc\SrcChartEx\ChartAddIn\ChartAnalysisToolAddIn\AnalysisTool\AnalysisData.cpp
;	COMDAT ?GetCount@CElementPointList@@QBEHXZ
_TEXT	SEGMENT
?GetCount@CElementPointList@@QBEHXZ PROC		; CElementPointList::GetCount, COMDAT
; _this$ = ecx

; 1389 : 	return m_pointList.GetCount();

  00000	8b 41 18	 mov	 eax, DWORD PTR [ecx+24]

; 1390 : }

  00003	c3		 ret	 0
?GetCount@CElementPointList@@QBEHXZ ENDP		; CElementPointList::GetCount
_TEXT	ENDS
; Function compile flags: /Ogtp
; File D:\git\src\IBK\IBK_DRFN\ProjSrc\SrcChartEx\ChartAddIn\ChartAnalysisToolAddIn\AnalysisTool\AnalysisData.cpp
;	COMDAT ?GetVertDataType@CElementPointList@@QBENXZ
_TEXT	SEGMENT
?GetVertDataType@CElementPointList@@QBENXZ PROC		; CElementPointList::GetVertDataType, COMDAT
; _this$ = ecx

; 1384 : 	return m_dVertDataType;

  00000	dd 01		 fld	 QWORD PTR [ecx]

; 1385 : }

  00002	c3		 ret	 0
?GetVertDataType@CElementPointList@@QBENXZ ENDP		; CElementPointList::GetVertDataType
_TEXT	ENDS
; Function compile flags: /Ogtp
; File D:\git\src\IBK\IBK_DRFN\ProjSrc\SrcChartEx\ChartAddIn\ChartAnalysisToolAddIn\AnalysisTool\AnalysisData.cpp
;	COMDAT ?SetVertDataType@CElementPointList@@QAEXABN@Z
_TEXT	SEGMENT
_dVertDataType$ = 8					; size = 4
?SetVertDataType@CElementPointList@@QAEXABN@Z PROC	; CElementPointList::SetVertDataType, COMDAT
; _this$ = ecx

; 1378 : {

  00000	55		 push	 ebp
  00001	8b ec		 mov	 ebp, esp

; 1379 : 	m_dVertDataType = dVertDataType;

  00003	8b 45 08	 mov	 eax, DWORD PTR _dVertDataType$[ebp]
  00006	f2 0f 10 00	 movsd	 xmm0, QWORD PTR [eax]
  0000a	f2 0f 11 01	 movsd	 QWORD PTR [ecx], xmm0

; 1380 : }

  0000e	5d		 pop	 ebp
  0000f	c2 04 00	 ret	 4
?SetVertDataType@CElementPointList@@QAEXABN@Z ENDP	; CElementPointList::SetVertDataType
_TEXT	ENDS
; Function compile flags: /Ogtp
; File D:\git\src\IBK\IBK_DRFN\ProjSrc\SrcChartEx\ChartAddIn\ChartAnalysisToolAddIn\AnalysisTool\AnalysisData.cpp
; File D:\git\src\IBK\IBK_DRFN\ProjSrc\SrcChartEx\ChartAddIn\ChartAnalysisToolAddIn\Include_Chart\DequeList.h
; File C:\Program Files (x86)\Microsoft Visual Studio\2019\Community\VC\Tools\MSVC\14.29.30133\include\deque
; File D:\git\src\IBK\IBK_DRFN\ProjSrc\SrcChartEx\ChartAddIn\ChartAnalysisToolAddIn\AnalysisTool\AnalysisData.cpp
;	COMDAT ?RemoveAll@CElementPointList@@QAEXXZ
_TEXT	SEGMENT
?RemoveAll@CElementPointList@@QAEXXZ PROC		; CElementPointList::RemoveAll, COMDAT
; _this$ = ecx
; File D:\git\src\IBK\IBK_DRFN\ProjSrc\SrcChartEx\ChartAddIn\ChartAnalysisToolAddIn\Include_Chart\DequeList.h

; 242  : 	void RemoveAll(){ m_deque.clear(); };

  00000	83 c1 08	 add	 ecx, 8
; File C:\Program Files (x86)\Microsoft Visual Studio\2019\Community\VC\Tools\MSVC\14.29.30133\include\deque

; 1332 :         _Tidy();

  00003	e9 00 00 00 00	 jmp	 ?_Tidy@?$deque@PAVCCoordinate@@V?$allocator@PAVCCoordinate@@@std@@@std@@AAEXXZ ; std::deque<CCoordinate *,std::allocator<CCoordinate *> >::_Tidy
?RemoveAll@CElementPointList@@QAEXXZ ENDP		; CElementPointList::RemoveAll
_TEXT	ENDS
; Function compile flags: /Ogtp
; File D:\git\src\IBK\IBK_DRFN\ProjSrc\SrcChartEx\ChartAddIn\ChartAnalysisToolAddIn\AnalysisTool\AnalysisData.cpp
;	COMDAT ?AddTail@CElementPointList@@QAEXPAVCCoordinate@@@Z
_TEXT	SEGMENT
_coordinate$ = 8					; size = 4
?AddTail@CElementPointList@@QAEXPAVCCoordinate@@@Z PROC	; CElementPointList::AddTail, COMDAT
; _this$ = ecx

; 1367 : {

  00000	55		 push	 ebp
  00001	8b ec		 mov	 ebp, esp

; 1368 : 	m_pointList.AddTail(coordinate);

  00003	83 c1 08	 add	 ecx, 8

; 1369 : }

  00006	5d		 pop	 ebp

; 1368 : 	m_pointList.AddTail(coordinate);

  00007	e9 00 00 00 00	 jmp	 ?AddTail@?$CDequePointerList@VCCoordinate@@@@QAEXPAVCCoordinate@@@Z ; CDequePointerList<CCoordinate>::AddTail
?AddTail@CElementPointList@@QAEXPAVCCoordinate@@@Z ENDP	; CElementPointList::AddTail
_TEXT	ENDS
; Function compile flags: /Ogtp
; File D:\git\src\IBK\IBK_DRFN\ProjSrc\SrcChartEx\ChartAddIn\ChartAnalysisToolAddIn\AnalysisTool\AnalysisData.cpp
; File C:\Program Files (x86)\Microsoft Visual Studio\2019\Community\VC\Tools\MSVC\14.29.30133\include\xmemory
; File D:\git\src\IBK\IBK_DRFN\ProjSrc\SrcChartEx\ChartAddIn\ChartAnalysisToolAddIn\AnalysisTool\AnalysisData.cpp
; File C:\Program Files (x86)\Microsoft Visual Studio\2019\Community\VC\Tools\MSVC\14.29.30133\include\xmemory
; File C:\Program Files (x86)\Microsoft Visual Studio\2019\Community\VC\Tools\MSVC\14.29.30133\include\deque
; File C:\Program Files (x86)\Microsoft Visual Studio\2019\Community\VC\Tools\MSVC\14.29.30133\include\xmemory
; File D:\git\src\IBK\IBK_DRFN\ProjSrc\SrcChartEx\ChartAddIn\ChartAnalysisToolAddIn\AnalysisTool\AnalysisData.cpp
;	COMDAT ??0CElementPointList@@QAE@XZ
_TEXT	SEGMENT
_this$ = -4						; size = 4
_this$ = -4						; size = 4
??0CElementPointList@@QAE@XZ PROC			; CElementPointList::CElementPointList, COMDAT
; _this$ = ecx

; 1361 : {

  00000	55		 push	 ebp
  00001	8b ec		 mov	 ebp, esp
  00003	51		 push	 ecx

; 1360 : 	m_dVertDataType(1.0)

  00004	f2 0f 10 05 00
	00 00 00	 movsd	 xmm0, QWORD PTR __real@3ff0000000000000
  0000c	56		 push	 esi
  0000d	57		 push	 edi
  0000e	8b f9		 mov	 edi, ecx

; 1361 : {

  00010	8d 77 08	 lea	 esi, DWORD PTR [edi+8]
  00013	89 7d fc	 mov	 DWORD PTR _this$[ebp], edi
; File C:\Program Files (x86)\Microsoft Visual Studio\2019\Community\VC\Tools\MSVC\14.29.30133\include\xmemory

; 79   :         return ::operator new(_Bytes);

  00016	6a 08		 push	 8
; File D:\git\src\IBK\IBK_DRFN\ProjSrc\SrcChartEx\ChartAddIn\ChartAnalysisToolAddIn\AnalysisTool\AnalysisData.cpp

; 1361 : {

  00018	89 75 fc	 mov	 DWORD PTR _this$[ebp], esi
  0001b	f2 0f 11 07	 movsd	 QWORD PTR [edi], xmm0
; File C:\Program Files (x86)\Microsoft Visual Studio\2019\Community\VC\Tools\MSVC\14.29.30133\include\xmemory

; 1033 :     _Container_proxy* _Myproxy = nullptr;

  0001f	c7 06 00 00 00
	00		 mov	 DWORD PTR [esi], 0
; File C:\Program Files (x86)\Microsoft Visual Studio\2019\Community\VC\Tools\MSVC\14.29.30133\include\deque

; 555  :     _Deque_val() noexcept : _Map(), _Mapsize(0), _Myoff(0), _Mysize(0) {}

  00025	c7 46 04 00 00
	00 00		 mov	 DWORD PTR [esi+4], 0
  0002c	c7 46 08 00 00
	00 00		 mov	 DWORD PTR [esi+8], 0
  00033	c7 46 0c 00 00
	00 00		 mov	 DWORD PTR [esi+12], 0
  0003a	c7 46 10 00 00
	00 00		 mov	 DWORD PTR [esi+16], 0
; File C:\Program Files (x86)\Microsoft Visual Studio\2019\Community\VC\Tools\MSVC\14.29.30133\include\xmemory

; 79   :         return ::operator new(_Bytes);

  00041	e8 00 00 00 00	 call	 ??2@YAPAXI@Z		; operator new
  00046	83 c4 04	 add	 esp, 4

; 1003 :     mutable _Iterator_base12* _Myfirstiter = nullptr;

  00049	c7 40 04 00 00
	00 00		 mov	 DWORD PTR [eax+4], 0

; 1020 :         _Myproxy            = _New_proxy;

  00050	89 06		 mov	 DWORD PTR [esi], eax

; 1021 :         _New_proxy->_Mycont = this;

  00052	89 30		 mov	 DWORD PTR [eax], esi
; File D:\git\src\IBK\IBK_DRFN\ProjSrc\SrcChartEx\ChartAddIn\ChartAnalysisToolAddIn\AnalysisTool\AnalysisData.cpp

; 1362 : }

  00054	8b c7		 mov	 eax, edi
  00056	5f		 pop	 edi
  00057	5e		 pop	 esi
  00058	8b e5		 mov	 esp, ebp
  0005a	5d		 pop	 ebp
  0005b	c3		 ret	 0
??0CElementPointList@@QAE@XZ ENDP			; CElementPointList::CElementPointList
_TEXT	ENDS
; Function compile flags: /Ogtp
; File D:\git\src\IBK\IBK_DRFN\ProjSrc\SrcChartEx\ChartAddIn\ChartAnalysisToolAddIn\AnalysisTool\AnalysisData.cpp
; File D:\git\src\IBK\IBK_DRFN\ProjSrc\SrcChartEx\ChartAddIn\ChartAnalysisToolAddIn\Include_Chart\DequeList.h
; File C:\Program Files (x86)\Microsoft Visual Studio\2019\Community\VC\Tools\MSVC\14.29.30133\include\deque
; File D:\git\src\IBK\IBK_DRFN\ProjSrc\SrcChartEx\ChartAddIn\ChartAnalysisToolAddIn\Include_Chart\DequeList.h
; File C:\Program Files (x86)\Microsoft Visual Studio\2019\Community\VC\Tools\MSVC\14.29.30133\include\deque
; File D:\git\src\IBK\IBK_DRFN\ProjSrc\SrcChartEx\ChartAddIn\ChartAnalysisToolAddIn\Include_Chart\DequeList.h
; File C:\Program Files (x86)\Microsoft Visual Studio\2019\Community\VC\Tools\MSVC\14.29.30133\include\deque
; File D:\git\src\IBK\IBK_DRFN\ProjSrc\SrcChartEx\ChartAddIn\ChartAnalysisToolAddIn\Include_Chart\DequeList.h
; File C:\Program Files (x86)\Microsoft Visual Studio\2019\Community\VC\Tools\MSVC\14.29.30133\include\deque
; File C:\Program Files (x86)\Microsoft Visual Studio\2019\Community\VC\Tools\MSVC\14.29.30133\include\xmemory
; File C:\Program Files (x86)\Microsoft Visual Studio\2019\Community\VC\Tools\MSVC\14.29.30133\include\deque
; File C:\Program Files (x86)\Microsoft Visual Studio\2019\Community\VC\Tools\MSVC\14.29.30133\include\xmemory
; File C:\Program Files (x86)\Microsoft Visual Studio\2019\Community\VC\Tools\MSVC\14.29.30133\include\deque
; File D:\git\src\IBK\IBK_DRFN\ProjSrc\SrcChartEx\ChartAddIn\ChartAnalysisToolAddIn\AnalysisTool\AnalysisData.cpp
; File C:\Program Files (x86)\Microsoft Visual Studio\2019\Community\VC\Tools\MSVC\14.29.30133\include\deque
; File D:\git\src\IBK\IBK_DRFN\ProjSrc\SrcChartEx\ChartAddIn\ChartAnalysisToolAddIn\AnalysisTool\AnalysisData.cpp
; File C:\Program Files (x86)\Microsoft Visual Studio\2019\Community\VC\Tools\MSVC\14.29.30133\include\deque
; File D:\git\src\IBK\IBK_DRFN\ProjSrc\SrcChartEx\ChartAddIn\ChartAnalysisToolAddIn\AnalysisTool\AnalysisData.cpp
;	COMDAT ??4CElementPointList@@QAEAAV0@ABV0@@Z
_TEXT	SEGMENT
_nIndex$1$ = -16					; size = 4
__Tmp$1 = -12						; size = 8
$T2 = -8						; size = 4
_this$1$ = -4						; size = 4
$T3 = 8							; size = 4
__Block$1$ = 8						; size = 4
_elementPointList$ = 8					; size = 4
??4CElementPointList@@QAEAAV0@ABV0@@Z PROC		; CElementPointList::operator=, COMDAT
; _this$ = ecx

; 1346 : {

  00000	55		 push	 ebp
  00001	8b ec		 mov	 ebp, esp
  00003	83 ec 10	 sub	 esp, 16			; 00000010H
  00006	8b d1		 mov	 edx, ecx
  00008	53		 push	 ebx
  00009	8b 5d 08	 mov	 ebx, DWORD PTR _elementPointList$[ebp]
  0000c	89 55 fc	 mov	 DWORD PTR _this$1$[ebp], edx

; 1347 : 	if(this == &elementPointList)

  0000f	3b d3		 cmp	 edx, ebx
  00011	0f 84 ea 00 00
	00		 je	 $LN79@operator

; 1348 : 		return *this;
; 1349 : 
; 1350 : 	m_dVertDataType = elementPointList.GetVertDataType();

  00017	f2 0f 10 03	 movsd	 xmm0, QWORD PTR [ebx]

; 1351 : 	for(int nIndex = 0; nIndex < elementPointList.GetCount(); nIndex++)

  0001b	33 c9		 xor	 ecx, ecx
  0001d	f2 0f 11 02	 movsd	 QWORD PTR [edx], xmm0
  00021	89 4d f0	 mov	 DWORD PTR _nIndex$1$[ebp], ecx
  00024	39 4b 18	 cmp	 DWORD PTR [ebx+24], ecx
  00027	0f 8e d4 00 00
	00		 jle	 $LN79@operator
; File D:\git\src\IBK\IBK_DRFN\ProjSrc\SrcChartEx\ChartAddIn\ChartAnalysisToolAddIn\Include_Chart\DequeList.h

; 229  : 		m_deque.push_back(pItem);

  0002d	56		 push	 esi
  0002e	8d 72 08	 lea	 esi, DWORD PTR [edx+8]
  00031	57		 push	 edi
  00032	8b 7e 10	 mov	 edi, DWORD PTR [esi+16]
$LL4@operator:
; File C:\Program Files (x86)\Microsoft Visual Studio\2019\Community\VC\Tools\MSVC\14.29.30133\include\deque

; 1002 :         return _Mysize() == 0;

  00035	83 7b 18 00	 cmp	 DWORD PTR [ebx+24], 0
; File D:\git\src\IBK\IBK_DRFN\ProjSrc\SrcChartEx\ChartAddIn\ChartAnalysisToolAddIn\Include_Chart\DequeList.h

; 205  : 		if(m_deque.empty())

  00039	75 09		 jne	 SHORT $LN12@operator

; 206  : 			return NULL;

  0003b	c7 45 f8 00 00
	00 00		 mov	 DWORD PTR $T2[ebp], 0
  00042	eb 23		 jmp	 SHORT $LN11@operator
$LN12@operator:
; File C:\Program Files (x86)\Microsoft Visual Studio\2019\Community\VC\Tools\MSVC\14.29.30133\include\deque

; 43   :         : _Mycont(static_cast<const _Mydeque*>(_Pdeque)), _Myoff(_Off) {}

  00044	8b 43 14	 mov	 eax, DWORD PTR [ebx+20]

; 83   :         _Deque_unchecked_const_iterator _Tmp = *this;

  00047	89 45 f8	 mov	 DWORD PTR __Tmp$1[ebp+4], eax

; 78   :         _Myoff += _Off;

  0004a	8d 14 08	 lea	 edx, DWORD PTR [eax+ecx]

; 559  :         return (_Off / _Block_size) & (_Mapsize - 1);

  0004d	8b 4b 10	 mov	 ecx, DWORD PTR [ebx+16]

; 78   :         _Myoff += _Off;

  00050	8b c2		 mov	 eax, edx

; 559  :         return (_Off / _Block_size) & (_Mapsize - 1);

  00052	49		 dec	 ecx

; 78   :         _Myoff += _Off;

  00053	c1 e8 02	 shr	 eax, 2

; 559  :         return (_Off / _Block_size) & (_Mapsize - 1);

  00056	23 c8		 and	 ecx, eax
; File D:\git\src\IBK\IBK_DRFN\ProjSrc\SrcChartEx\ChartAddIn\ChartAnalysisToolAddIn\Include_Chart\DequeList.h

; 208  : 		return m_deque[nIndex];

  00058	8b 43 0c	 mov	 eax, DWORD PTR [ebx+12]
; File C:\Program Files (x86)\Microsoft Visual Studio\2019\Community\VC\Tools\MSVC\14.29.30133\include\deque

; 48   :         return _Mycont->_Map[_Block][_Off];

  0005b	83 e2 03	 and	 edx, 3
; File D:\git\src\IBK\IBK_DRFN\ProjSrc\SrcChartEx\ChartAddIn\ChartAnalysisToolAddIn\Include_Chart\DequeList.h

; 208  : 		return m_deque[nIndex];

  0005e	8b 04 88	 mov	 eax, DWORD PTR [eax+ecx*4]
  00061	8b 04 90	 mov	 eax, DWORD PTR [eax+edx*4]
  00064	89 45 f8	 mov	 DWORD PTR $T2[ebp], eax
$LN11@operator:
; File C:\Program Files (x86)\Microsoft Visual Studio\2019\Community\VC\Tools\MSVC\14.29.30133\include\deque

; 1106 :         if ((_Myoff() + _Mysize()) % _Block_size == 0 && _Mapsize() <= (_Mysize() + _Block_size) / _Block_size) {

  00067	8b 56 0c	 mov	 edx, DWORD PTR [esi+12]
  0006a	89 7d 08	 mov	 DWORD PTR $T3[ebp], edi
  0006d	8d 04 3a	 lea	 eax, DWORD PTR [edx+edi]
  00070	a8 03		 test	 al, 3
  00072	75 20		 jne	 SHORT $LN35@operator
  00074	8d 47 04	 lea	 eax, DWORD PTR [edi+4]
  00077	89 7d 08	 mov	 DWORD PTR $T3[ebp], edi
  0007a	c1 e8 02	 shr	 eax, 2
  0007d	39 46 08	 cmp	 DWORD PTR [esi+8], eax
  00080	77 12		 ja	 SHORT $LN35@operator

; 1107 :             _Growmap(1);

  00082	6a 01		 push	 1
  00084	8b ce		 mov	 ecx, esi
  00086	e8 00 00 00 00	 call	 ?_Growmap@?$deque@PAVCCoordinate@@V?$allocator@PAVCCoordinate@@@std@@@std@@AAEXI@Z ; std::deque<CCoordinate *,std::allocator<CCoordinate *> >::_Growmap
  0008b	8b 46 10	 mov	 eax, DWORD PTR [esi+16]
  0008e	8b 56 0c	 mov	 edx, DWORD PTR [esi+12]
  00091	89 45 08	 mov	 DWORD PTR $T3[ebp], eax
$LN35@operator:

; 1108 :         }
; 1109 :         _Myoff() &= _Mapsize() * _Block_size - 1;

  00094	8b 4e 08	 mov	 ecx, DWORD PTR [esi+8]

; 1110 :         size_type _Newoff = _Myoff() + _Mysize();

  00097	8b 7d 08	 mov	 edi, DWORD PTR $T3[ebp]
  0009a	8d 04 8d ff ff
	ff ff		 lea	 eax, DWORD PTR [ecx*4-1]

; 559  :         return (_Off / _Block_size) & (_Mapsize - 1);

  000a1	49		 dec	 ecx

; 1109 :         _Myoff() &= _Mapsize() * _Block_size - 1;

  000a2	23 c2		 and	 eax, edx

; 1110 :         size_type _Newoff = _Myoff() + _Mysize();

  000a4	03 f8		 add	 edi, eax
  000a6	89 46 0c	 mov	 DWORD PTR [esi+12], eax

; 559  :         return (_Off / _Block_size) & (_Mapsize - 1);

  000a9	8b c7		 mov	 eax, edi
  000ab	c1 e8 02	 shr	 eax, 2
  000ae	23 c8		 and	 ecx, eax

; 1112 :         if (_Map()[_Block] == nullptr) {

  000b0	8b 46 04	 mov	 eax, DWORD PTR [esi+4]

; 559  :         return (_Off / _Block_size) & (_Mapsize - 1);

  000b3	89 4d 08	 mov	 DWORD PTR __Block$1$[ebp], ecx

; 1112 :         if (_Map()[_Block] == nullptr) {

  000b6	83 3c 88 00	 cmp	 DWORD PTR [eax+ecx*4], 0
  000ba	75 1e		 jne	 SHORT $LN80@operator
; File C:\Program Files (x86)\Microsoft Visual Studio\2019\Community\VC\Tools\MSVC\14.29.30133\include\xmemory

; 79   :         return ::operator new(_Bytes);

  000bc	6a 10		 push	 16			; 00000010H
  000be	e8 00 00 00 00	 call	 ??2@YAPAXI@Z		; operator new
; File C:\Program Files (x86)\Microsoft Visual Studio\2019\Community\VC\Tools\MSVC\14.29.30133\include\deque

; 1113 :             _Map()[_Block] = _Getal().allocate(_Block_size);

  000c3	8b 4e 04	 mov	 ecx, DWORD PTR [esi+4]
; File C:\Program Files (x86)\Microsoft Visual Studio\2019\Community\VC\Tools\MSVC\14.29.30133\include\xmemory

; 79   :         return ::operator new(_Bytes);

  000c6	83 c4 04	 add	 esp, 4
; File C:\Program Files (x86)\Microsoft Visual Studio\2019\Community\VC\Tools\MSVC\14.29.30133\include\deque

; 1113 :             _Map()[_Block] = _Getal().allocate(_Block_size);

  000c9	8b 55 08	 mov	 edx, DWORD PTR __Block$1$[ebp]
  000cc	89 04 91	 mov	 DWORD PTR [ecx+edx*4], eax
  000cf	8b 55 fc	 mov	 edx, DWORD PTR _this$1$[ebp]
  000d2	8b 4d 08	 mov	 ecx, DWORD PTR __Block$1$[ebp]
  000d5	8b 42 0c	 mov	 eax, DWORD PTR [edx+12]
  000d8	eb 03		 jmp	 SHORT $LN36@operator
$LN80@operator:

; 1111 :         size_type _Block  = _Getblock(_Newoff);
; 1112 :         if (_Map()[_Block] == nullptr) {

  000da	8b 55 fc	 mov	 edx, DWORD PTR _this$1$[ebp]
$LN36@operator:

; 1114 :         }
; 1115 : 
; 1116 :         _Alty_traits::construct(

  000dd	8b 04 88	 mov	 eax, DWORD PTR [eax+ecx*4]
  000e0	83 e7 03	 and	 edi, 3
  000e3	8b 4d f8	 mov	 ecx, DWORD PTR $T2[ebp]
  000e6	89 0c b8	 mov	 DWORD PTR [eax+edi*4], ecx
; File D:\git\src\IBK\IBK_DRFN\ProjSrc\SrcChartEx\ChartAddIn\ChartAnalysisToolAddIn\AnalysisTool\AnalysisData.cpp

; 1351 : 	for(int nIndex = 0; nIndex < elementPointList.GetCount(); nIndex++)

  000e9	8b 4d f0	 mov	 ecx, DWORD PTR _nIndex$1$[ebp]
; File C:\Program Files (x86)\Microsoft Visual Studio\2019\Community\VC\Tools\MSVC\14.29.30133\include\deque

; 1119 :         ++_Mysize();

  000ec	ff 46 10	 inc	 DWORD PTR [esi+16]
; File D:\git\src\IBK\IBK_DRFN\ProjSrc\SrcChartEx\ChartAddIn\ChartAnalysisToolAddIn\AnalysisTool\AnalysisData.cpp

; 1351 : 	for(int nIndex = 0; nIndex < elementPointList.GetCount(); nIndex++)

  000ef	41		 inc	 ecx
; File C:\Program Files (x86)\Microsoft Visual Studio\2019\Community\VC\Tools\MSVC\14.29.30133\include\deque

; 1119 :         ++_Mysize();

  000f0	8b 7e 10	 mov	 edi, DWORD PTR [esi+16]
; File D:\git\src\IBK\IBK_DRFN\ProjSrc\SrcChartEx\ChartAddIn\ChartAnalysisToolAddIn\AnalysisTool\AnalysisData.cpp

; 1351 : 	for(int nIndex = 0; nIndex < elementPointList.GetCount(); nIndex++)

  000f3	89 4d f0	 mov	 DWORD PTR _nIndex$1$[ebp], ecx
  000f6	3b 4b 18	 cmp	 ecx, DWORD PTR [ebx+24]
  000f9	0f 8c 36 ff ff
	ff		 jl	 $LL4@operator

; 1352 : 	{
; 1353 : 		m_pointList.AddTail(elementPointList.GetAt(nIndex));
; 1354 : 	}
; 1355 : 
; 1356 : 	return *this;

  000ff	5f		 pop	 edi
  00100	5e		 pop	 esi
$LN79@operator:

; 1357 : }

  00101	8b c2		 mov	 eax, edx
  00103	5b		 pop	 ebx
  00104	8b e5		 mov	 esp, ebp
  00106	5d		 pop	 ebp
  00107	c2 04 00	 ret	 4
??4CElementPointList@@QAEAAV0@ABV0@@Z ENDP		; CElementPointList::operator=
_TEXT	ENDS
; Function compile flags: /Ogtp
; File D:\git\src\IBK\IBK_DRFN\ProjSrc\SrcChartEx\ChartAddIn\ChartAnalysisToolAddIn\AnalysisTool\AnalysisData.cpp
; File C:\Program Files (x86)\Microsoft Visual Studio\2019\Community\VC\Tools\MSVC\14.29.30133\atlmfc\include\atltypes.h
; File D:\git\src\IBK\IBK_DRFN\ProjSrc\SrcChartEx\ChartAddIn\ChartAnalysisToolAddIn\AnalysisTool\AnalysisData.cpp
; File C:\Program Files (x86)\Microsoft Visual Studio\2019\Community\VC\Tools\MSVC\14.29.30133\atlmfc\include\atltypes.h
; File D:\git\src\IBK\IBK_DRFN\ProjSrc\SrcChartEx\ChartAddIn\ChartAnalysisToolAddIn\AnalysisTool\AnalysisData.cpp
; File C:\Program Files (x86)\Microsoft Visual Studio\2019\Community\VC\Tools\MSVC\14.29.30133\atlmfc\include\atltypes.h
; File D:\git\src\IBK\IBK_DRFN\ProjSrc\SrcChartEx\ChartAddIn\ChartAnalysisToolAddIn\AnalysisTool\AnalysisData.cpp
; File C:\Program Files (x86)\Microsoft Visual Studio\2019\Community\VC\Tools\MSVC\14.29.30133\atlmfc\include\atltypes.h
; File D:\git\src\IBK\IBK_DRFN\ProjSrc\SrcChartEx\ChartAddIn\ChartAnalysisToolAddIn\AnalysisTool\AnalysisData.cpp
; File C:\Program Files (x86)\Microsoft Visual Studio\2019\Community\VC\Tools\MSVC\14.29.30133\atlmfc\include\atltypes.h
; File D:\git\src\IBK\IBK_DRFN\ProjSrc\SrcChartEx\ChartAddIn\ChartAnalysisToolAddIn\AnalysisTool\AnalysisData.cpp
;	COMDAT ?GetSelectedDrawPoint_Pixel@CSelectedElementDrawingData@@ABE?AVCPoint@@ABVCCoordinate@@@Z
_TEXT	SEGMENT
_drawingPoint$ = -8					; size = 8
___$ReturnUdt$ = 8					; size = 4
_orgPoint$ = 12						; size = 4
?GetSelectedDrawPoint_Pixel@CSelectedElementDrawingData@@ABE?AVCPoint@@ABVCCoordinate@@@Z PROC ; CSelectedElementDrawingData::GetSelectedDrawPoint_Pixel, COMDAT
; _this$ = ecx

; 1322 : {

  00000	55		 push	 ebp
  00001	8b ec		 mov	 ebp, esp
  00003	83 ec 08	 sub	 esp, 8

; 1323 : 	CPoint drawingPoint = orgPoint.GetPixel();

  00006	8d 45 f8	 lea	 eax, DWORD PTR _drawingPoint$[ebp]
  00009	56		 push	 esi
  0000a	8b f1		 mov	 esi, ecx
  0000c	8b 4d 0c	 mov	 ecx, DWORD PTR _orgPoint$[ebp]
  0000f	50		 push	 eax
  00010	e8 00 00 00 00	 call	 ?GetPixel@CCoordinate@@QBE?AVCPoint@@XZ ; CCoordinate::GetPixel

; 1324 : 
; 1325 : 	switch(m_eModifyType)

  00015	8b 06		 mov	 eax, DWORD PTR [esi]
  00017	48		 dec	 eax
  00018	83 f8 05	 cmp	 eax, 5
  0001b	77 4c		 ja	 SHORT $LN2@GetSelecte
  0001d	ff 24 85 00 00
	00 00		 jmp	 DWORD PTR $LN17@GetSelecte[eax*4]
$LN4@GetSelecte:
; File C:\Program Files (x86)\Microsoft Visual Studio\2019\Community\VC\Tools\MSVC\14.29.30133\atlmfc\include\atltypes.h

; 408  : 	x = initX;

  00024	8b 45 08	 mov	 eax, DWORD PTR ___$ReturnUdt$[ebp]
; File D:\git\src\IBK\IBK_DRFN\ProjSrc\SrcChartEx\ChartAddIn\ChartAnalysisToolAddIn\AnalysisTool\AnalysisData.cpp

; 1328 : 		return CPoint(drawingPoint.x + m_point.x, drawingPoint.y + m_point.y);

  00027	8b 4e 68	 mov	 ecx, DWORD PTR [esi+104]
  0002a	03 4d f8	 add	 ecx, DWORD PTR _drawingPoint$[ebp]
; File C:\Program Files (x86)\Microsoft Visual Studio\2019\Community\VC\Tools\MSVC\14.29.30133\atlmfc\include\atltypes.h

; 408  : 	x = initX;

  0002d	89 08		 mov	 DWORD PTR [eax], ecx
; File D:\git\src\IBK\IBK_DRFN\ProjSrc\SrcChartEx\ChartAddIn\ChartAnalysisToolAddIn\AnalysisTool\AnalysisData.cpp

; 1328 : 		return CPoint(drawingPoint.x + m_point.x, drawingPoint.y + m_point.y);

  0002f	8b 4e 6c	 mov	 ecx, DWORD PTR [esi+108]
  00032	03 4d fc	 add	 ecx, DWORD PTR _drawingPoint$[ebp+4]
; File C:\Program Files (x86)\Microsoft Visual Studio\2019\Community\VC\Tools\MSVC\14.29.30133\atlmfc\include\atltypes.h

; 409  : 	y = initY;

  00035	89 48 04	 mov	 DWORD PTR [eax+4], ecx
  00038	5e		 pop	 esi
; File D:\git\src\IBK\IBK_DRFN\ProjSrc\SrcChartEx\ChartAddIn\ChartAnalysisToolAddIn\AnalysisTool\AnalysisData.cpp

; 1340 : }

  00039	8b e5		 mov	 esp, ebp
  0003b	5d		 pop	 ebp
  0003c	c2 08 00	 ret	 8
$LN5@GetSelecte:
; File C:\Program Files (x86)\Microsoft Visual Studio\2019\Community\VC\Tools\MSVC\14.29.30133\atlmfc\include\atltypes.h

; 408  : 	x = initX;

  0003f	8b 45 08	 mov	 eax, DWORD PTR ___$ReturnUdt$[ebp]
  00042	8b 4e 68	 mov	 ecx, DWORD PTR [esi+104]
  00045	5e		 pop	 esi
  00046	89 08		 mov	 DWORD PTR [eax], ecx

; 409  : 	y = initY;

  00048	8b 4d fc	 mov	 ecx, DWORD PTR _drawingPoint$[ebp+4]
  0004b	89 48 04	 mov	 DWORD PTR [eax+4], ecx
; File D:\git\src\IBK\IBK_DRFN\ProjSrc\SrcChartEx\ChartAddIn\ChartAnalysisToolAddIn\AnalysisTool\AnalysisData.cpp

; 1340 : }

  0004e	8b e5		 mov	 esp, ebp
  00050	5d		 pop	 ebp
  00051	c2 08 00	 ret	 8
$LN9@GetSelecte:
; File C:\Program Files (x86)\Microsoft Visual Studio\2019\Community\VC\Tools\MSVC\14.29.30133\atlmfc\include\atltypes.h

; 408  : 	x = initX;

  00054	8b 45 08	 mov	 eax, DWORD PTR ___$ReturnUdt$[ebp]
  00057	8b 4d f8	 mov	 ecx, DWORD PTR _drawingPoint$[ebp]
  0005a	89 08		 mov	 DWORD PTR [eax], ecx

; 409  : 	y = initY;

  0005c	8b 4e 6c	 mov	 ecx, DWORD PTR [esi+108]
  0005f	89 48 04	 mov	 DWORD PTR [eax+4], ecx
  00062	5e		 pop	 esi
; File D:\git\src\IBK\IBK_DRFN\ProjSrc\SrcChartEx\ChartAddIn\ChartAnalysisToolAddIn\AnalysisTool\AnalysisData.cpp

; 1340 : }

  00063	8b e5		 mov	 esp, ebp
  00065	5d		 pop	 ebp
  00066	c2 08 00	 ret	 8
$LN2@GetSelecte:

; 1329 : 	case CToolEnumData::MODIFY_START:
; 1330 : 	case CToolEnumData::MODIFY_MIDDLE:
; 1331 : 	case CToolEnumData::MODIFY_END:
; 1332 : 	case CToolEnumData::MODIFY_X:
; 1333 : 		return CPoint(m_point.x, drawingPoint.y);
; 1334 : 	case CToolEnumData::MODIFY_Y:
; 1335 : 		return CPoint(drawingPoint.x, m_point.y);
; 1336 : 	}
; 1337 : 
; 1338 : 	assert(false);
; 1339 : 	return m_point;

  00069	8b 45 08	 mov	 eax, DWORD PTR ___$ReturnUdt$[ebp]
  0006c	8b 4e 68	 mov	 ecx, DWORD PTR [esi+104]
  0006f	8b 56 6c	 mov	 edx, DWORD PTR [esi+108]
  00072	5e		 pop	 esi
  00073	89 08		 mov	 DWORD PTR [eax], ecx
  00075	89 50 04	 mov	 DWORD PTR [eax+4], edx

; 1340 : }

  00078	8b e5		 mov	 esp, ebp
  0007a	5d		 pop	 ebp
  0007b	c2 08 00	 ret	 8
  0007e	66 90		 npad	 2
$LN17@GetSelecte:
  00080	00 00 00 00	 DD	 $LN4@GetSelecte
  00084	00 00 00 00	 DD	 $LN5@GetSelecte
  00088	00 00 00 00	 DD	 $LN5@GetSelecte
  0008c	00 00 00 00	 DD	 $LN5@GetSelecte
  00090	00 00 00 00	 DD	 $LN5@GetSelecte
  00094	00 00 00 00	 DD	 $LN9@GetSelecte
?GetSelectedDrawPoint_Pixel@CSelectedElementDrawingData@@ABE?AVCPoint@@ABVCCoordinate@@@Z ENDP ; CSelectedElementDrawingData::GetSelectedDrawPoint_Pixel
_TEXT	ENDS
; Function compile flags: /Ogtp
; File D:\git\src\IBK\IBK_DRFN\ProjSrc\SrcChartEx\ChartAddIn\ChartAnalysisToolAddIn\AnalysisTool\AnalysisData.cpp
;	COMDAT ?GetDrawingPoint@CSelectedElementDrawingData@@ABE?AVCPoint@@_NABVCCoordinate@@@Z
_TEXT	SEGMENT
___$ReturnUdt$ = 8					; size = 4
_bIsAutoPrice$ = 12					; size = 1
_orgPoint$ = 16						; size = 4
?GetDrawingPoint@CSelectedElementDrawingData@@ABE?AVCPoint@@_NABVCCoordinate@@@Z PROC ; CSelectedElementDrawingData::GetDrawingPoint, COMDAT
; _this$ = ecx

; 1314 : {

  00000	55		 push	 ebp
  00001	8b ec		 mov	 ebp, esp
  00003	56		 push	 esi

; 1315 : 	CCoordinateCalculator& coordinateCalculator = CCoordinateCalculatorFinder::FindCoordinateCalculator(bIsAutoPrice);

  00004	ff 75 0c	 push	 DWORD PTR _bIsAutoPrice$[ebp]
  00007	8b f1		 mov	 esi, ecx
  00009	e8 00 00 00 00	 call	 ?FindCoordinateCalculator@CCoordinateCalculatorFinder@@SAAAVCCoordinateCalculator@@_N@Z ; CCoordinateCalculatorFinder::FindCoordinateCalculator
  0000e	83 c4 04	 add	 esp, 4
  00011	8d 56 08	 lea	 edx, DWORD PTR [esi+8]

; 1316 : 	if(bIsAutoPrice)

  00014	80 7d 0c 00	 cmp	 BYTE PTR _bIsAutoPrice$[ebp], 0
  00018	74 17		 je	 SHORT $LN2@GetDrawing

; 1317 : 		return coordinateCalculator.AbsoluteToAbsolute(m_calData, m_point);

  0001a	8d 4e 68	 lea	 ecx, DWORD PTR [esi+104]
  0001d	8b 75 08	 mov	 esi, DWORD PTR ___$ReturnUdt$[ebp]
  00020	51		 push	 ecx
  00021	52		 push	 edx
  00022	56		 push	 esi
  00023	8b c8		 mov	 ecx, eax
  00025	e8 00 00 00 00	 call	 ?AbsoluteToAbsolute@CCoordinateCalculator@@QBE?AVCPoint@@ABVCCoordinateCalculatorData@@ABV2@@Z ; CCoordinateCalculator::AbsoluteToAbsolute

; 1319 : }

  0002a	8b c6		 mov	 eax, esi
  0002c	5e		 pop	 esi
  0002d	5d		 pop	 ebp
  0002e	c2 0c 00	 ret	 12			; 0000000cH
$LN2@GetDrawing:

; 1318 : 	return coordinateCalculator.RelativeToAbsolute(m_calData, orgPoint);

  00031	ff 75 10	 push	 DWORD PTR _orgPoint$[ebp]
  00034	8b 75 08	 mov	 esi, DWORD PTR ___$ReturnUdt$[ebp]
  00037	8b c8		 mov	 ecx, eax
  00039	52		 push	 edx
  0003a	56		 push	 esi
  0003b	e8 00 00 00 00	 call	 ?RelativeToAbsolute@CCoordinateCalculator@@QBE?AVCPoint@@ABVCCoordinateCalculatorData@@ABVCCoordinate@@@Z ; CCoordinateCalculator::RelativeToAbsolute

; 1319 : }

  00040	8b c6		 mov	 eax, esi
  00042	5e		 pop	 esi
  00043	5d		 pop	 ebp
  00044	c2 0c 00	 ret	 12			; 0000000cH
?GetDrawingPoint@CSelectedElementDrawingData@@ABE?AVCPoint@@_NABVCCoordinate@@@Z ENDP ; CSelectedElementDrawingData::GetDrawingPoint
_TEXT	ENDS
; Function compile flags: /Ogtp
; File D:\git\src\IBK\IBK_DRFN\ProjSrc\SrcChartEx\ChartAddIn\ChartAnalysisToolAddIn\AnalysisTool\AnalysisData.cpp
; File C:\Program Files (x86)\Microsoft Visual Studio\2019\Community\VC\Tools\MSVC\14.29.30133\atlmfc\include\atltypes.h
; File D:\git\src\IBK\IBK_DRFN\ProjSrc\SrcChartEx\ChartAddIn\ChartAnalysisToolAddIn\AnalysisTool\AnalysisData.cpp
; File C:\Program Files (x86)\Microsoft Visual Studio\2019\Community\VC\Tools\MSVC\14.29.30133\atlmfc\include\atltypes.h
; File D:\git\src\IBK\IBK_DRFN\ProjSrc\SrcChartEx\ChartAddIn\ChartAnalysisToolAddIn\AnalysisTool\AnalysisData.cpp
; File C:\Program Files (x86)\Microsoft Visual Studio\2019\Community\VC\Tools\MSVC\14.29.30133\atlmfc\include\atltypes.h
; File D:\git\src\IBK\IBK_DRFN\ProjSrc\SrcChartEx\ChartAddIn\ChartAnalysisToolAddIn\AnalysisTool\AnalysisData.cpp
;	COMDAT ?GetSelectedDrawPoint_Data_NoAutoPrice@CSelectedElementDrawingData@@ABE?AVCPoint@@ABVCCoordinate@@@Z
_TEXT	SEGMENT
_drawingPoint$1 = -8					; size = 8
___$ReturnUdt$ = 8					; size = 4
_orgPoint$ = 12						; size = 4
?GetSelectedDrawPoint_Data_NoAutoPrice@CSelectedElementDrawingData@@ABE?AVCPoint@@ABVCCoordinate@@@Z PROC ; CSelectedElementDrawingData::GetSelectedDrawPoint_Data_NoAutoPrice, COMDAT
; _this$ = ecx

; 1292 : {

  00000	55		 push	 ebp
  00001	8b ec		 mov	 ebp, esp
  00003	83 ec 08	 sub	 esp, 8
  00006	56		 push	 esi
  00007	8b f1		 mov	 esi, ecx

; 1293 : 	switch(m_eModifyType)

  00009	8b 06		 mov	 eax, DWORD PTR [esi]
  0000b	48		 dec	 eax
  0000c	83 f8 05	 cmp	 eax, 5
  0000f	77 3e		 ja	 SHORT $LN2@GetSelecte
  00011	ff 24 85 00 00
	00 00		 jmp	 DWORD PTR $LN13@GetSelecte[eax*4]
$LN4@GetSelecte:

; 1294 : 	{
; 1295 : 	case CToolEnumData::MODIFY_CENTER:
; 1296 : 	{
; 1297 : 		CCoordinateCalculator& coordinateCalculator = CCoordinateCalculatorFinder::FindCoordinateCalculator(false);

  00018	6a 00		 push	 0
  0001a	e8 00 00 00 00	 call	 ?FindCoordinateCalculator@CCoordinateCalculatorFinder@@SAAAVCCoordinateCalculator@@_N@Z ; CCoordinateCalculatorFinder::FindCoordinateCalculator
  0001f	83 c4 04	 add	 esp, 4

; 1298 : 		CPoint drawingPoint = coordinateCalculator.RelativeToAbsolute(m_calData, orgPoint);

  00022	8d 4e 08	 lea	 ecx, DWORD PTR [esi+8]
  00025	ff 75 0c	 push	 DWORD PTR _orgPoint$[ebp]
  00028	51		 push	 ecx
  00029	8d 4d f8	 lea	 ecx, DWORD PTR _drawingPoint$1[ebp]
  0002c	51		 push	 ecx
  0002d	8b c8		 mov	 ecx, eax
  0002f	e8 00 00 00 00	 call	 ?RelativeToAbsolute@CCoordinateCalculator@@QBE?AVCPoint@@ABVCCoordinateCalculatorData@@ABVCCoordinate@@@Z ; CCoordinateCalculator::RelativeToAbsolute
; File C:\Program Files (x86)\Microsoft Visual Studio\2019\Community\VC\Tools\MSVC\14.29.30133\atlmfc\include\atltypes.h

; 408  : 	x = initX;

  00034	8b 45 08	 mov	 eax, DWORD PTR ___$ReturnUdt$[ebp]
; File D:\git\src\IBK\IBK_DRFN\ProjSrc\SrcChartEx\ChartAddIn\ChartAnalysisToolAddIn\AnalysisTool\AnalysisData.cpp

; 1299 : 		return CPoint(drawingPoint.x + m_point.x, drawingPoint.y + m_point.y);

  00037	8b 4e 68	 mov	 ecx, DWORD PTR [esi+104]
  0003a	03 4d f8	 add	 ecx, DWORD PTR _drawingPoint$1[ebp]
; File C:\Program Files (x86)\Microsoft Visual Studio\2019\Community\VC\Tools\MSVC\14.29.30133\atlmfc\include\atltypes.h

; 408  : 	x = initX;

  0003d	89 08		 mov	 DWORD PTR [eax], ecx
; File D:\git\src\IBK\IBK_DRFN\ProjSrc\SrcChartEx\ChartAddIn\ChartAnalysisToolAddIn\AnalysisTool\AnalysisData.cpp

; 1299 : 		return CPoint(drawingPoint.x + m_point.x, drawingPoint.y + m_point.y);

  0003f	8b 4e 6c	 mov	 ecx, DWORD PTR [esi+108]
  00042	03 4d fc	 add	 ecx, DWORD PTR _drawingPoint$1[ebp+4]
; File C:\Program Files (x86)\Microsoft Visual Studio\2019\Community\VC\Tools\MSVC\14.29.30133\atlmfc\include\atltypes.h

; 409  : 	y = initY;

  00045	89 48 04	 mov	 DWORD PTR [eax+4], ecx
  00048	5e		 pop	 esi
; File D:\git\src\IBK\IBK_DRFN\ProjSrc\SrcChartEx\ChartAddIn\ChartAnalysisToolAddIn\AnalysisTool\AnalysisData.cpp

; 1311 : }

  00049	8b e5		 mov	 esp, ebp
  0004b	5d		 pop	 ebp
  0004c	c2 08 00	 ret	 8
$LN2@GetSelecte:
  0004f	8b 45 08	 mov	 eax, DWORD PTR ___$ReturnUdt$[ebp]
  00052	8b 56 6c	 mov	 edx, DWORD PTR [esi+108]
  00055	8b 4e 68	 mov	 ecx, DWORD PTR [esi+104]
  00058	5e		 pop	 esi
  00059	89 50 04	 mov	 DWORD PTR [eax+4], edx
  0005c	89 08		 mov	 DWORD PTR [eax], ecx
  0005e	8b e5		 mov	 esp, ebp
  00060	5d		 pop	 ebp
  00061	c2 08 00	 ret	 8
$LN13@GetSelecte:
  00064	00 00 00 00	 DD	 $LN4@GetSelecte
  00068	00 00 00 00	 DD	 $LN2@GetSelecte
  0006c	00 00 00 00	 DD	 $LN2@GetSelecte
  00070	00 00 00 00	 DD	 $LN2@GetSelecte
  00074	00 00 00 00	 DD	 $LN2@GetSelecte
  00078	00 00 00 00	 DD	 $LN2@GetSelecte
?GetSelectedDrawPoint_Data_NoAutoPrice@CSelectedElementDrawingData@@ABE?AVCPoint@@ABVCCoordinate@@@Z ENDP ; CSelectedElementDrawingData::GetSelectedDrawPoint_Data_NoAutoPrice
_TEXT	ENDS
; Function compile flags: /Ogtp
; File D:\git\src\IBK\IBK_DRFN\ProjSrc\SrcChartEx\ChartAddIn\ChartAnalysisToolAddIn\AnalysisTool\AnalysisData.cpp
; File C:\Program Files (x86)\Microsoft Visual Studio\2019\Community\VC\Tools\MSVC\14.29.30133\atlmfc\include\atltypes.h
; File D:\git\src\IBK\IBK_DRFN\ProjSrc\SrcChartEx\ChartAddIn\ChartAnalysisToolAddIn\AnalysisTool\AnalysisData.cpp
; File C:\Program Files (x86)\Microsoft Visual Studio\2019\Community\VC\Tools\MSVC\14.29.30133\atlmfc\include\atltypes.h
; File D:\git\src\IBK\IBK_DRFN\ProjSrc\SrcChartEx\ChartAddIn\ChartAnalysisToolAddIn\AnalysisTool\AnalysisData.cpp
; File C:\Program Files (x86)\Microsoft Visual Studio\2019\Community\VC\Tools\MSVC\14.29.30133\atlmfc\include\atltypes.h
; File D:\git\src\IBK\IBK_DRFN\ProjSrc\SrcChartEx\ChartAddIn\ChartAnalysisToolAddIn\AnalysisTool\AnalysisData.cpp
; File C:\Program Files (x86)\Microsoft Visual Studio\2019\Community\VC\Tools\MSVC\14.29.30133\atlmfc\include\atltypes.h
; File D:\git\src\IBK\IBK_DRFN\ProjSrc\SrcChartEx\ChartAddIn\ChartAnalysisToolAddIn\AnalysisTool\AnalysisData.cpp
; File C:\Program Files (x86)\Microsoft Visual Studio\2019\Community\VC\Tools\MSVC\14.29.30133\atlmfc\include\atltypes.h
; File D:\git\src\IBK\IBK_DRFN\ProjSrc\SrcChartEx\ChartAddIn\ChartAnalysisToolAddIn\AnalysisTool\AnalysisData.cpp
;	COMDAT ?GetSelectedDrawPoint_Data_AutoPrice@CSelectedElementDrawingData@@ABE?AVCPoint@@ABVCCoordinate@@@Z
_TEXT	SEGMENT
_drawingPoint$ = -24					; size = 8
$T1 = -16						; size = 8
_drawingPoint$2 = -8					; size = 8
___$ReturnUdt$ = 8					; size = 4
_orgPoint$ = 12						; size = 4
?GetSelectedDrawPoint_Data_AutoPrice@CSelectedElementDrawingData@@ABE?AVCPoint@@ABVCCoordinate@@@Z PROC ; CSelectedElementDrawingData::GetSelectedDrawPoint_Data_AutoPrice, COMDAT
; _this$ = ecx

; 1266 : {

  00000	55		 push	 ebp
  00001	8b ec		 mov	 ebp, esp
  00003	83 ec 18	 sub	 esp, 24			; 00000018H
  00006	53		 push	 ebx
  00007	56		 push	 esi
  00008	57		 push	 edi

; 1267 : 	CCoordinateCalculator& coordinateCalculator = CCoordinateCalculatorFinder::FindCoordinateCalculator(true);

  00009	6a 01		 push	 1
  0000b	8b f1		 mov	 esi, ecx
  0000d	e8 00 00 00 00	 call	 ?FindCoordinateCalculator@CCoordinateCalculatorFinder@@SAAAVCCoordinateCalculator@@_N@Z ; CCoordinateCalculatorFinder::FindCoordinateCalculator
  00012	8b d8		 mov	 ebx, eax

; 1268 : 	if(m_eModifyType == CToolEnumData::MODIFY_CENTER)

  00014	8d 7e 68	 lea	 edi, DWORD PTR [esi+104]
  00017	83 c4 04	 add	 esp, 4
  0001a	8d 46 08	 lea	 eax, DWORD PTR [esi+8]
  0001d	83 3e 01	 cmp	 DWORD PTR [esi], 1
  00020	8b cb		 mov	 ecx, ebx
  00022	75 3c		 jne	 SHORT $LN4@GetSelecte

; 1269 : 	{
; 1270 : 		CPoint drawingPoint = coordinateCalculator.RelativeToAbsolute(m_calData, orgPoint);

  00024	ff 75 0c	 push	 DWORD PTR _orgPoint$[ebp]
  00027	50		 push	 eax
  00028	8d 45 f8	 lea	 eax, DWORD PTR _drawingPoint$2[ebp]
  0002b	50		 push	 eax
  0002c	e8 00 00 00 00	 call	 ?RelativeToAbsolute@CCoordinateCalculator@@QBE?AVCPoint@@ABVCCoordinateCalculatorData@@ABVCCoordinate@@@Z ; CCoordinateCalculator::RelativeToAbsolute

; 1271 : 		return coordinateCalculator.AbsoluteToAbsolute(m_calData, CPoint(drawingPoint.x + m_point.x, drawingPoint.y + m_point.y));

  00031	8b 07		 mov	 eax, DWORD PTR [edi]
  00033	8b cb		 mov	 ecx, ebx
  00035	03 45 f8	 add	 eax, DWORD PTR _drawingPoint$2[ebp]
; File C:\Program Files (x86)\Microsoft Visual Studio\2019\Community\VC\Tools\MSVC\14.29.30133\atlmfc\include\atltypes.h

; 408  : 	x = initX;

  00038	89 45 f0	 mov	 DWORD PTR $T1[ebp], eax
; File D:\git\src\IBK\IBK_DRFN\ProjSrc\SrcChartEx\ChartAddIn\ChartAnalysisToolAddIn\AnalysisTool\AnalysisData.cpp

; 1271 : 		return coordinateCalculator.AbsoluteToAbsolute(m_calData, CPoint(drawingPoint.x + m_point.x, drawingPoint.y + m_point.y));

  0003b	8b 46 6c	 mov	 eax, DWORD PTR [esi+108]
  0003e	03 45 fc	 add	 eax, DWORD PTR _drawingPoint$2[ebp+4]
; File C:\Program Files (x86)\Microsoft Visual Studio\2019\Community\VC\Tools\MSVC\14.29.30133\atlmfc\include\atltypes.h

; 409  : 	y = initY;

  00041	89 45 f4	 mov	 DWORD PTR $T1[ebp+4], eax
; File D:\git\src\IBK\IBK_DRFN\ProjSrc\SrcChartEx\ChartAddIn\ChartAnalysisToolAddIn\AnalysisTool\AnalysisData.cpp

; 1271 : 		return coordinateCalculator.AbsoluteToAbsolute(m_calData, CPoint(drawingPoint.x + m_point.x, drawingPoint.y + m_point.y));

  00044	8d 45 f0	 lea	 eax, DWORD PTR $T1[ebp]
  00047	50		 push	 eax
  00048	8d 46 08	 lea	 eax, DWORD PTR [esi+8]
  0004b	8b 75 08	 mov	 esi, DWORD PTR ___$ReturnUdt$[ebp]
  0004e	50		 push	 eax
  0004f	56		 push	 esi
  00050	e8 00 00 00 00	 call	 ?AbsoluteToAbsolute@CCoordinateCalculator@@QBE?AVCPoint@@ABVCCoordinateCalculatorData@@ABV2@@Z ; CCoordinateCalculator::AbsoluteToAbsolute
  00055	5f		 pop	 edi
  00056	8b c6		 mov	 eax, esi

; 1289 : }

  00058	5e		 pop	 esi
  00059	5b		 pop	 ebx
  0005a	8b e5		 mov	 esp, ebp
  0005c	5d		 pop	 ebp
  0005d	c2 08 00	 ret	 8
$LN4@GetSelecte:

; 1272 : 	}
; 1273 : 
; 1274 : 	CPoint drawingPoint = coordinateCalculator.AbsoluteToAbsolute(m_calData, m_point);

  00060	57		 push	 edi
  00061	50		 push	 eax
  00062	8d 45 e8	 lea	 eax, DWORD PTR _drawingPoint$[ebp]
  00065	50		 push	 eax
  00066	e8 00 00 00 00	 call	 ?AbsoluteToAbsolute@CCoordinateCalculator@@QBE?AVCPoint@@ABVCCoordinateCalculatorData@@ABV2@@Z ; CCoordinateCalculator::AbsoluteToAbsolute

; 1275 : 
; 1276 : 	switch(m_eModifyType)

  0006b	8b 06		 mov	 eax, DWORD PTR [esi]
  0006d	83 c0 fe	 add	 eax, -2			; fffffffeH
  00070	83 f8 04	 cmp	 eax, 4
  00073	77 34		 ja	 SHORT $LN2@GetSelecte
  00075	ff 24 85 00 00
	00 00		 jmp	 DWORD PTR $LN17@GetSelecte[eax*4]
$LN5@GetSelecte:
; File C:\Program Files (x86)\Microsoft Visual Studio\2019\Community\VC\Tools\MSVC\14.29.30133\atlmfc\include\atltypes.h

; 408  : 	x = initX;

  0007c	8b 0f		 mov	 ecx, DWORD PTR [edi]
  0007e	8b 45 08	 mov	 eax, DWORD PTR ___$ReturnUdt$[ebp]
  00081	5f		 pop	 edi
; File D:\git\src\IBK\IBK_DRFN\ProjSrc\SrcChartEx\ChartAddIn\ChartAnalysisToolAddIn\AnalysisTool\AnalysisData.cpp

; 1289 : }

  00082	5e		 pop	 esi
  00083	5b		 pop	 ebx
; File C:\Program Files (x86)\Microsoft Visual Studio\2019\Community\VC\Tools\MSVC\14.29.30133\atlmfc\include\atltypes.h

; 408  : 	x = initX;

  00084	89 08		 mov	 DWORD PTR [eax], ecx

; 409  : 	y = initY;

  00086	8b 4d ec	 mov	 ecx, DWORD PTR _drawingPoint$[ebp+4]
  00089	89 48 04	 mov	 DWORD PTR [eax+4], ecx
; File D:\git\src\IBK\IBK_DRFN\ProjSrc\SrcChartEx\ChartAddIn\ChartAnalysisToolAddIn\AnalysisTool\AnalysisData.cpp

; 1289 : }

  0008c	8b e5		 mov	 esp, ebp
  0008e	5d		 pop	 ebp
  0008f	c2 08 00	 ret	 8
$LN9@GetSelecte:
  00092	8b 45 08	 mov	 eax, DWORD PTR ___$ReturnUdt$[ebp]
  00095	8b 56 6c	 mov	 edx, DWORD PTR [esi+108]
; File C:\Program Files (x86)\Microsoft Visual Studio\2019\Community\VC\Tools\MSVC\14.29.30133\atlmfc\include\atltypes.h

; 408  : 	x = initX;

  00098	8b 4d e8	 mov	 ecx, DWORD PTR _drawingPoint$[ebp]
  0009b	5f		 pop	 edi
; File D:\git\src\IBK\IBK_DRFN\ProjSrc\SrcChartEx\ChartAddIn\ChartAnalysisToolAddIn\AnalysisTool\AnalysisData.cpp

; 1289 : }

  0009c	5e		 pop	 esi
  0009d	89 50 04	 mov	 DWORD PTR [eax+4], edx
  000a0	89 08		 mov	 DWORD PTR [eax], ecx
  000a2	5b		 pop	 ebx
  000a3	8b e5		 mov	 esp, ebp
  000a5	5d		 pop	 ebp
  000a6	c2 08 00	 ret	 8
$LN2@GetSelecte:

; 1277 : 	{
; 1278 : 	case CToolEnumData::MODIFY_START:
; 1279 : 	case CToolEnumData::MODIFY_MIDDLE:
; 1280 : 	case CToolEnumData::MODIFY_END:
; 1281 : 	case CToolEnumData::MODIFY_X:
; 1282 : 		return CPoint(m_point.x, drawingPoint.y);
; 1283 : 	case CToolEnumData::MODIFY_Y:
; 1284 : 		return CPoint(drawingPoint.x, m_point.y);
; 1285 : 	}
; 1286 : 
; 1287 : 	assert(false);
; 1288 : 	return m_point;

  000a9	8b 0f		 mov	 ecx, DWORD PTR [edi]
  000ab	8b 57 04	 mov	 edx, DWORD PTR [edi+4]

; 1289 : }

  000ae	8b 45 08	 mov	 eax, DWORD PTR ___$ReturnUdt$[ebp]
  000b1	5f		 pop	 edi
  000b2	5e		 pop	 esi
  000b3	5b		 pop	 ebx
  000b4	89 50 04	 mov	 DWORD PTR [eax+4], edx
  000b7	89 08		 mov	 DWORD PTR [eax], ecx
  000b9	8b e5		 mov	 esp, ebp
  000bb	5d		 pop	 ebp
  000bc	c2 08 00	 ret	 8
  000bf	90		 npad	 1
$LN17@GetSelecte:
  000c0	00 00 00 00	 DD	 $LN5@GetSelecte
  000c4	00 00 00 00	 DD	 $LN5@GetSelecte
  000c8	00 00 00 00	 DD	 $LN5@GetSelecte
  000cc	00 00 00 00	 DD	 $LN5@GetSelecte
  000d0	00 00 00 00	 DD	 $LN9@GetSelecte
?GetSelectedDrawPoint_Data_AutoPrice@CSelectedElementDrawingData@@ABE?AVCPoint@@ABVCCoordinate@@@Z ENDP ; CSelectedElementDrawingData::GetSelectedDrawPoint_Data_AutoPrice
_TEXT	ENDS
; Function compile flags: /Ogtp
; File D:\git\src\IBK\IBK_DRFN\ProjSrc\SrcChartEx\ChartAddIn\ChartAnalysisToolAddIn\AnalysisTool\AnalysisData.cpp
; File C:\Program Files (x86)\Microsoft Visual Studio\2019\Community\VC\Tools\MSVC\14.29.30133\atlmfc\include\atltypes.h
; File D:\git\src\IBK\IBK_DRFN\ProjSrc\SrcChartEx\ChartAddIn\ChartAnalysisToolAddIn\AnalysisTool\AnalysisData.cpp
; File C:\Program Files (x86)\Microsoft Visual Studio\2019\Community\VC\Tools\MSVC\14.29.30133\atlmfc\include\atltypes.h
; File D:\git\src\IBK\IBK_DRFN\ProjSrc\SrcChartEx\ChartAddIn\ChartAnalysisToolAddIn\AnalysisTool\AnalysisData.cpp
; File C:\Program Files (x86)\Microsoft Visual Studio\2019\Community\VC\Tools\MSVC\14.29.30133\atlmfc\include\atltypes.h
; File D:\git\src\IBK\IBK_DRFN\ProjSrc\SrcChartEx\ChartAddIn\ChartAnalysisToolAddIn\AnalysisTool\AnalysisData.cpp
; File C:\Program Files (x86)\Microsoft Visual Studio\2019\Community\VC\Tools\MSVC\14.29.30133\atlmfc\include\atltypes.h
; File D:\git\src\IBK\IBK_DRFN\ProjSrc\SrcChartEx\ChartAddIn\ChartAnalysisToolAddIn\AnalysisTool\AnalysisData.cpp
; File C:\Program Files (x86)\Microsoft Visual Studio\2019\Community\VC\Tools\MSVC\14.29.30133\atlmfc\include\atltypes.h
; File D:\git\src\IBK\IBK_DRFN\ProjSrc\SrcChartEx\ChartAddIn\ChartAnalysisToolAddIn\AnalysisTool\AnalysisData.cpp
; File C:\Program Files (x86)\Microsoft Visual Studio\2019\Community\VC\Tools\MSVC\14.29.30133\atlmfc\include\atltypes.h
; File D:\git\src\IBK\IBK_DRFN\ProjSrc\SrcChartEx\ChartAddIn\ChartAnalysisToolAddIn\AnalysisTool\AnalysisData.cpp
; File C:\Program Files (x86)\Microsoft Visual Studio\2019\Community\VC\Tools\MSVC\14.29.30133\atlmfc\include\atltypes.h
; File D:\git\src\IBK\IBK_DRFN\ProjSrc\SrcChartEx\ChartAddIn\ChartAnalysisToolAddIn\AnalysisTool\AnalysisData.cpp
; File C:\Program Files (x86)\Microsoft Visual Studio\2019\Community\VC\Tools\MSVC\14.29.30133\atlmfc\include\atltypes.h
; File D:\git\src\IBK\IBK_DRFN\ProjSrc\SrcChartEx\ChartAddIn\ChartAnalysisToolAddIn\AnalysisTool\AnalysisData.cpp
;	COMDAT ?GetSelectedDrawPoint_Data@CSelectedElementDrawingData@@ABE?AVCPoint@@_NABVCCoordinate@@@Z
_TEXT	SEGMENT
_drawingPoint$1 = -24					; size = 8
_drawingPoint$2 = -24					; size = 8
$T3 = -16						; size = 8
_drawingPoint$4 = -8					; size = 8
___$ReturnUdt$ = 8					; size = 4
_bIsAutoPrice$ = 12					; size = 1
_orgPoint$ = 16						; size = 4
?GetSelectedDrawPoint_Data@CSelectedElementDrawingData@@ABE?AVCPoint@@_NABVCCoordinate@@@Z PROC ; CSelectedElementDrawingData::GetSelectedDrawPoint_Data, COMDAT
; _this$ = ecx

; 1259 : {

  00000	55		 push	 ebp
  00001	8b ec		 mov	 ebp, esp
  00003	83 ec 18	 sub	 esp, 24			; 00000018H

; 1260 : 	if(bIsAutoPrice)

  00006	80 7d 0c 00	 cmp	 BYTE PTR _bIsAutoPrice$[ebp], 0
  0000a	56		 push	 esi
  0000b	8b f1		 mov	 esi, ecx
  0000d	0f 84 b6 00 00
	00		 je	 $LN2@GetSelecte

; 1267 : 	CCoordinateCalculator& coordinateCalculator = CCoordinateCalculatorFinder::FindCoordinateCalculator(true);

  00013	53		 push	 ebx
  00014	57		 push	 edi
  00015	6a 01		 push	 1
  00017	e8 00 00 00 00	 call	 ?FindCoordinateCalculator@CCoordinateCalculatorFinder@@SAAAVCCoordinateCalculator@@_N@Z ; CCoordinateCalculatorFinder::FindCoordinateCalculator
  0001c	8b d8		 mov	 ebx, eax

; 1268 : 	if(m_eModifyType == CToolEnumData::MODIFY_CENTER)

  0001e	8d 7e 68	 lea	 edi, DWORD PTR [esi+104]
  00021	83 c4 04	 add	 esp, 4
  00024	8d 46 08	 lea	 eax, DWORD PTR [esi+8]
  00027	83 3e 01	 cmp	 DWORD PTR [esi], 1
  0002a	8b cb		 mov	 ecx, ebx
  0002c	75 3c		 jne	 SHORT $LN7@GetSelecte

; 1269 : 	{
; 1270 : 		CPoint drawingPoint = coordinateCalculator.RelativeToAbsolute(m_calData, orgPoint);

  0002e	ff 75 10	 push	 DWORD PTR _orgPoint$[ebp]
  00031	50		 push	 eax
  00032	8d 45 f8	 lea	 eax, DWORD PTR _drawingPoint$4[ebp]
  00035	50		 push	 eax
  00036	e8 00 00 00 00	 call	 ?RelativeToAbsolute@CCoordinateCalculator@@QBE?AVCPoint@@ABVCCoordinateCalculatorData@@ABVCCoordinate@@@Z ; CCoordinateCalculator::RelativeToAbsolute

; 1271 : 		return coordinateCalculator.AbsoluteToAbsolute(m_calData, CPoint(drawingPoint.x + m_point.x, drawingPoint.y + m_point.y));

  0003b	8b 07		 mov	 eax, DWORD PTR [edi]
  0003d	8b cb		 mov	 ecx, ebx
  0003f	03 45 f8	 add	 eax, DWORD PTR _drawingPoint$4[ebp]
; File C:\Program Files (x86)\Microsoft Visual Studio\2019\Community\VC\Tools\MSVC\14.29.30133\atlmfc\include\atltypes.h

; 408  : 	x = initX;

  00042	89 45 f0	 mov	 DWORD PTR $T3[ebp], eax
; File D:\git\src\IBK\IBK_DRFN\ProjSrc\SrcChartEx\ChartAddIn\ChartAnalysisToolAddIn\AnalysisTool\AnalysisData.cpp

; 1271 : 		return coordinateCalculator.AbsoluteToAbsolute(m_calData, CPoint(drawingPoint.x + m_point.x, drawingPoint.y + m_point.y));

  00045	8b 46 6c	 mov	 eax, DWORD PTR [esi+108]
  00048	03 45 fc	 add	 eax, DWORD PTR _drawingPoint$4[ebp+4]
; File C:\Program Files (x86)\Microsoft Visual Studio\2019\Community\VC\Tools\MSVC\14.29.30133\atlmfc\include\atltypes.h

; 409  : 	y = initY;

  0004b	89 45 f4	 mov	 DWORD PTR $T3[ebp+4], eax
; File D:\git\src\IBK\IBK_DRFN\ProjSrc\SrcChartEx\ChartAddIn\ChartAnalysisToolAddIn\AnalysisTool\AnalysisData.cpp

; 1271 : 		return coordinateCalculator.AbsoluteToAbsolute(m_calData, CPoint(drawingPoint.x + m_point.x, drawingPoint.y + m_point.y));

  0004e	8d 45 f0	 lea	 eax, DWORD PTR $T3[ebp]
  00051	50		 push	 eax
  00052	8d 46 08	 lea	 eax, DWORD PTR [esi+8]
  00055	8b 75 08	 mov	 esi, DWORD PTR ___$ReturnUdt$[ebp]
  00058	50		 push	 eax
  00059	56		 push	 esi
  0005a	e8 00 00 00 00	 call	 ?AbsoluteToAbsolute@CCoordinateCalculator@@QBE?AVCPoint@@ABVCCoordinateCalculatorData@@ABV2@@Z ; CCoordinateCalculator::AbsoluteToAbsolute
  0005f	5f		 pop	 edi
  00060	5b		 pop	 ebx

; 1261 : 		return GetSelectedDrawPoint_Data_AutoPrice(orgPoint);
; 1262 : 	return GetSelectedDrawPoint_Data_NoAutoPrice(orgPoint);

  00061	8b c6		 mov	 eax, esi
  00063	5e		 pop	 esi

; 1263 : }

  00064	8b e5		 mov	 esp, ebp
  00066	5d		 pop	 ebp
  00067	c2 0c 00	 ret	 12			; 0000000cH
$LN7@GetSelecte:

; 1274 : 	CPoint drawingPoint = coordinateCalculator.AbsoluteToAbsolute(m_calData, m_point);

  0006a	57		 push	 edi
  0006b	50		 push	 eax
  0006c	8d 45 e8	 lea	 eax, DWORD PTR _drawingPoint$2[ebp]
  0006f	50		 push	 eax
  00070	e8 00 00 00 00	 call	 ?AbsoluteToAbsolute@CCoordinateCalculator@@QBE?AVCPoint@@ABVCCoordinateCalculatorData@@ABV2@@Z ; CCoordinateCalculator::AbsoluteToAbsolute

; 1275 : 
; 1276 : 	switch(m_eModifyType)

  00075	8b 06		 mov	 eax, DWORD PTR [esi]
  00077	83 c0 fe	 add	 eax, -2			; fffffffeH
  0007a	83 f8 04	 cmp	 eax, 4
  0007d	77 34		 ja	 SHORT $LN5@GetSelecte
  0007f	ff 24 85 00 00
	00 00		 jmp	 DWORD PTR $LN32@GetSelecte[eax*4]
$LN8@GetSelecte:
; File C:\Program Files (x86)\Microsoft Visual Studio\2019\Community\VC\Tools\MSVC\14.29.30133\atlmfc\include\atltypes.h

; 408  : 	x = initX;

  00086	8b 0f		 mov	 ecx, DWORD PTR [edi]
  00088	8b 45 08	 mov	 eax, DWORD PTR ___$ReturnUdt$[ebp]
  0008b	5f		 pop	 edi
  0008c	5b		 pop	 ebx
  0008d	5e		 pop	 esi
  0008e	89 08		 mov	 DWORD PTR [eax], ecx

; 409  : 	y = initY;

  00090	8b 4d ec	 mov	 ecx, DWORD PTR _drawingPoint$2[ebp+4]
  00093	89 48 04	 mov	 DWORD PTR [eax+4], ecx
; File D:\git\src\IBK\IBK_DRFN\ProjSrc\SrcChartEx\ChartAddIn\ChartAnalysisToolAddIn\AnalysisTool\AnalysisData.cpp

; 1263 : }

  00096	8b e5		 mov	 esp, ebp
  00098	5d		 pop	 ebp
  00099	c2 0c 00	 ret	 12			; 0000000cH
$LN12@GetSelecte:
; File C:\Program Files (x86)\Microsoft Visual Studio\2019\Community\VC\Tools\MSVC\14.29.30133\atlmfc\include\atltypes.h

; 408  : 	x = initX;

  0009c	8b 45 08	 mov	 eax, DWORD PTR ___$ReturnUdt$[ebp]
; File D:\git\src\IBK\IBK_DRFN\ProjSrc\SrcChartEx\ChartAddIn\ChartAnalysisToolAddIn\AnalysisTool\AnalysisData.cpp

; 1284 : 		return CPoint(drawingPoint.x, m_point.y);

  0009f	8b 56 6c	 mov	 edx, DWORD PTR [esi+108]
; File C:\Program Files (x86)\Microsoft Visual Studio\2019\Community\VC\Tools\MSVC\14.29.30133\atlmfc\include\atltypes.h

; 408  : 	x = initX;

  000a2	8b 4d e8	 mov	 ecx, DWORD PTR _drawingPoint$2[ebp]
  000a5	5f		 pop	 edi
  000a6	5b		 pop	 ebx
  000a7	89 08		 mov	 DWORD PTR [eax], ecx

; 409  : 	y = initY;

  000a9	89 50 04	 mov	 DWORD PTR [eax+4], edx
  000ac	5e		 pop	 esi
; File D:\git\src\IBK\IBK_DRFN\ProjSrc\SrcChartEx\ChartAddIn\ChartAnalysisToolAddIn\AnalysisTool\AnalysisData.cpp

; 1263 : }

  000ad	8b e5		 mov	 esp, ebp
  000af	5d		 pop	 ebp
  000b0	c2 0c 00	 ret	 12			; 0000000cH
$LN5@GetSelecte:

; 1288 : 	return m_point;

  000b3	8b 0f		 mov	 ecx, DWORD PTR [edi]
  000b5	8b 57 04	 mov	 edx, DWORD PTR [edi+4]
  000b8	8b 45 08	 mov	 eax, DWORD PTR ___$ReturnUdt$[ebp]
  000bb	5f		 pop	 edi
  000bc	5b		 pop	 ebx
  000bd	5e		 pop	 esi
; File C:\Program Files (x86)\Microsoft Visual Studio\2019\Community\VC\Tools\MSVC\14.29.30133\atlmfc\include\atltypes.h

; 408  : 	x = initX;

  000be	89 08		 mov	 DWORD PTR [eax], ecx

; 409  : 	y = initY;

  000c0	89 50 04	 mov	 DWORD PTR [eax+4], edx
; File D:\git\src\IBK\IBK_DRFN\ProjSrc\SrcChartEx\ChartAddIn\ChartAnalysisToolAddIn\AnalysisTool\AnalysisData.cpp

; 1263 : }

  000c3	8b e5		 mov	 esp, ebp
  000c5	5d		 pop	 ebp
  000c6	c2 0c 00	 ret	 12			; 0000000cH
$LN2@GetSelecte:

; 1293 : 	switch(m_eModifyType)

  000c9	8b 06		 mov	 eax, DWORD PTR [esi]
  000cb	48		 dec	 eax
  000cc	83 f8 05	 cmp	 eax, 5
  000cf	77 3e		 ja	 SHORT $LN24@GetSelecte
  000d1	ff 24 85 00 00
	00 00		 jmp	 DWORD PTR $LN33@GetSelecte[eax*4]
$LN23@GetSelecte:

; 1294 : 	{
; 1295 : 	case CToolEnumData::MODIFY_CENTER:
; 1296 : 	{
; 1297 : 		CCoordinateCalculator& coordinateCalculator = CCoordinateCalculatorFinder::FindCoordinateCalculator(false);

  000d8	6a 00		 push	 0
  000da	e8 00 00 00 00	 call	 ?FindCoordinateCalculator@CCoordinateCalculatorFinder@@SAAAVCCoordinateCalculator@@_N@Z ; CCoordinateCalculatorFinder::FindCoordinateCalculator
  000df	83 c4 04	 add	 esp, 4

; 1298 : 		CPoint drawingPoint = coordinateCalculator.RelativeToAbsolute(m_calData, orgPoint);

  000e2	8d 4e 08	 lea	 ecx, DWORD PTR [esi+8]
  000e5	ff 75 10	 push	 DWORD PTR _orgPoint$[ebp]
  000e8	51		 push	 ecx
  000e9	8d 4d e8	 lea	 ecx, DWORD PTR _drawingPoint$1[ebp]
  000ec	51		 push	 ecx
  000ed	8b c8		 mov	 ecx, eax
  000ef	e8 00 00 00 00	 call	 ?RelativeToAbsolute@CCoordinateCalculator@@QBE?AVCPoint@@ABVCCoordinateCalculatorData@@ABVCCoordinate@@@Z ; CCoordinateCalculator::RelativeToAbsolute

; 1299 : 		return CPoint(drawingPoint.x + m_point.x, drawingPoint.y + m_point.y);

  000f4	8b 56 6c	 mov	 edx, DWORD PTR [esi+108]
  000f7	8b 4e 68	 mov	 ecx, DWORD PTR [esi+104]
; File C:\Program Files (x86)\Microsoft Visual Studio\2019\Community\VC\Tools\MSVC\14.29.30133\atlmfc\include\atltypes.h

; 408  : 	x = initX;

  000fa	8b 45 08	 mov	 eax, DWORD PTR ___$ReturnUdt$[ebp]
; File D:\git\src\IBK\IBK_DRFN\ProjSrc\SrcChartEx\ChartAddIn\ChartAnalysisToolAddIn\AnalysisTool\AnalysisData.cpp

; 1299 : 		return CPoint(drawingPoint.x + m_point.x, drawingPoint.y + m_point.y);

  000fd	03 55 ec	 add	 edx, DWORD PTR _drawingPoint$1[ebp+4]
  00100	03 4d e8	 add	 ecx, DWORD PTR _drawingPoint$1[ebp]
  00103	5e		 pop	 esi
; File C:\Program Files (x86)\Microsoft Visual Studio\2019\Community\VC\Tools\MSVC\14.29.30133\atlmfc\include\atltypes.h

; 408  : 	x = initX;

  00104	89 08		 mov	 DWORD PTR [eax], ecx

; 409  : 	y = initY;

  00106	89 50 04	 mov	 DWORD PTR [eax+4], edx
; File D:\git\src\IBK\IBK_DRFN\ProjSrc\SrcChartEx\ChartAddIn\ChartAnalysisToolAddIn\AnalysisTool\AnalysisData.cpp

; 1263 : }

  00109	8b e5		 mov	 esp, ebp
  0010b	5d		 pop	 ebp
  0010c	c2 0c 00	 ret	 12			; 0000000cH
$LN24@GetSelecte:
  0010f	8b 45 08	 mov	 eax, DWORD PTR ___$ReturnUdt$[ebp]
  00112	8b 4e 68	 mov	 ecx, DWORD PTR [esi+104]
  00115	8b 56 6c	 mov	 edx, DWORD PTR [esi+108]
  00118	5e		 pop	 esi
  00119	89 08		 mov	 DWORD PTR [eax], ecx
  0011b	89 50 04	 mov	 DWORD PTR [eax+4], edx
  0011e	8b e5		 mov	 esp, ebp
  00120	5d		 pop	 ebp
  00121	c2 0c 00	 ret	 12			; 0000000cH
$LN32@GetSelecte:
  00124	00 00 00 00	 DD	 $LN8@GetSelecte
  00128	00 00 00 00	 DD	 $LN8@GetSelecte
  0012c	00 00 00 00	 DD	 $LN8@GetSelecte
  00130	00 00 00 00	 DD	 $LN8@GetSelecte
  00134	00 00 00 00	 DD	 $LN12@GetSelecte
$LN33@GetSelecte:
  00138	00 00 00 00	 DD	 $LN23@GetSelecte
  0013c	00 00 00 00	 DD	 $LN24@GetSelecte
  00140	00 00 00 00	 DD	 $LN24@GetSelecte
  00144	00 00 00 00	 DD	 $LN24@GetSelecte
  00148	00 00 00 00	 DD	 $LN24@GetSelecte
  0014c	00 00 00 00	 DD	 $LN24@GetSelecte
?GetSelectedDrawPoint_Data@CSelectedElementDrawingData@@ABE?AVCPoint@@_NABVCCoordinate@@@Z ENDP ; CSelectedElementDrawingData::GetSelectedDrawPoint_Data
_TEXT	ENDS
; Function compile flags: /Ogtp
; File D:\git\src\IBK\IBK_DRFN\ProjSrc\SrcChartEx\ChartAddIn\ChartAnalysisToolAddIn\AnalysisTool\AnalysisData.cpp
;	COMDAT ?GetVertScaleType@CSelectedElementDrawingData@@QBE?AVCVertScaleType@@XZ
_TEXT	SEGMENT
___$ReturnUdt$ = 8					; size = 4
?GetVertScaleType@CSelectedElementDrawingData@@QBE?AVCVertScaleType@@XZ PROC ; CSelectedElementDrawingData::GetVertScaleType, COMDAT
; _this$ = ecx

; 1253 : {

  00000	55		 push	 ebp
  00001	8b ec		 mov	 ebp, esp

; 1254 : 	return m_calData.GetVertScaleType();

  00003	ff 75 08	 push	 DWORD PTR ___$ReturnUdt$[ebp]
  00006	83 c1 08	 add	 ecx, 8
  00009	e8 00 00 00 00	 call	 ?GetVertScaleType@CCoordinateCalculatorData@@QBE?AVCVertScaleType@@XZ ; CCoordinateCalculatorData::GetVertScaleType
  0000e	8b 45 08	 mov	 eax, DWORD PTR ___$ReturnUdt$[ebp]

; 1255 : }

  00011	5d		 pop	 ebp
  00012	c2 04 00	 ret	 4
?GetVertScaleType@CSelectedElementDrawingData@@QBE?AVCVertScaleType@@XZ ENDP ; CSelectedElementDrawingData::GetVertScaleType
_TEXT	ENDS
; Function compile flags: /Ogtp
; File D:\git\src\IBK\IBK_DRFN\ProjSrc\SrcChartEx\ChartAddIn\ChartAnalysisToolAddIn\AnalysisTool\AnalysisData.cpp
;	COMDAT ?GetDisplayAttributes@CSelectedElementDrawingData@@QBE?AVCDisplayAttributes@@XZ
_TEXT	SEGMENT
___$ReturnUdt$ = 8					; size = 4
?GetDisplayAttributes@CSelectedElementDrawingData@@QBE?AVCDisplayAttributes@@XZ PROC ; CSelectedElementDrawingData::GetDisplayAttributes, COMDAT
; _this$ = ecx

; 1248 : {

  00000	55		 push	 ebp
  00001	8b ec		 mov	 ebp, esp
  00003	56		 push	 esi

; 1249 : 	return CDisplayAttributes(m_calData.GetDisplayDataStart(), m_calData.GetDisplayDataEnd());

  00004	8d 71 08	 lea	 esi, DWORD PTR [ecx+8]
  00007	57		 push	 edi
  00008	8b ce		 mov	 ecx, esi
  0000a	e8 00 00 00 00	 call	 ?GetDisplayDataEnd@CCoordinateCalculatorData@@QBEHXZ ; CCoordinateCalculatorData::GetDisplayDataEnd
  0000f	8b ce		 mov	 ecx, esi
  00011	8b f8		 mov	 edi, eax
  00013	e8 00 00 00 00	 call	 ?GetDisplayDataStart@CCoordinateCalculatorData@@QBEHXZ ; CCoordinateCalculatorData::GetDisplayDataStart

; 590  : 	m_nDataStartInBlock(start),

  00018	8b 4d 08	 mov	 ecx, DWORD PTR ___$ReturnUdt$[ebp]

; 591  : 	m_nDataEndInBlock(end)

  0001b	89 79 04	 mov	 DWORD PTR [ecx+4], edi

; 1249 : 	return CDisplayAttributes(m_calData.GetDisplayDataStart(), m_calData.GetDisplayDataEnd());

  0001e	5f		 pop	 edi

; 590  : 	m_nDataStartInBlock(start),

  0001f	89 01		 mov	 DWORD PTR [ecx], eax

; 1249 : 	return CDisplayAttributes(m_calData.GetDisplayDataStart(), m_calData.GetDisplayDataEnd());

  00021	8b c1		 mov	 eax, ecx
  00023	5e		 pop	 esi

; 1250 : }

  00024	5d		 pop	 ebp
  00025	c2 04 00	 ret	 4
?GetDisplayAttributes@CSelectedElementDrawingData@@QBE?AVCDisplayAttributes@@XZ ENDP ; CSelectedElementDrawingData::GetDisplayAttributes
_TEXT	ENDS
; Function compile flags: /Ogtp
; File D:\git\src\IBK\IBK_DRFN\ProjSrc\SrcChartEx\ChartAddIn\ChartAnalysisToolAddIn\AnalysisTool\AnalysisData.cpp
;	COMDAT ?GetRegion@CSelectedElementDrawingData@@QBE?AVCRegion@@XZ
_TEXT	SEGMENT
$T1 = -152						; size = 4
$T2 = -148						; size = 96
$T3 = -52						; size = 32
$T4 = -20						; size = 16
__$ArrayPad$ = -4					; size = 4
___$ReturnUdt$ = 8					; size = 4
?GetRegion@CSelectedElementDrawingData@@QBE?AVCRegion@@XZ PROC ; CSelectedElementDrawingData::GetRegion, COMDAT
; _this$ = ecx

; 1243 : {

  00000	55		 push	 ebp
  00001	8b ec		 mov	 ebp, esp
  00003	81 ec 98 00 00
	00		 sub	 esp, 152		; 00000098H
  00009	a1 00 00 00 00	 mov	 eax, DWORD PTR ___security_cookie
  0000e	33 c5		 xor	 eax, ebp
  00010	89 45 fc	 mov	 DWORD PTR __$ArrayPad$[ebp], eax
  00013	53		 push	 ebx
  00014	8b 5d 08	 mov	 ebx, DWORD PTR ___$ReturnUdt$[ebp]
  00017	56		 push	 esi
  00018	57		 push	 edi
  00019	8b f9		 mov	 edi, ecx

; 1249 : 	return CDisplayAttributes(m_calData.GetDisplayDataStart(), m_calData.GetDisplayDataEnd());

  0001b	8d 4f 08	 lea	 ecx, DWORD PTR [edi+8]
  0001e	e8 00 00 00 00	 call	 ?GetDisplayDataEnd@CCoordinateCalculatorData@@QBEHXZ ; CCoordinateCalculatorData::GetDisplayDataEnd
  00023	8d 4f 08	 lea	 ecx, DWORD PTR [edi+8]
  00026	89 85 68 ff ff
	ff		 mov	 DWORD PTR $T1[ebp], eax
  0002c	e8 00 00 00 00	 call	 ?GetDisplayDataStart@CCoordinateCalculatorData@@QBEHXZ ; CCoordinateCalculatorData::GetDisplayDataStart

; 1228 : 	if(m_pDrawingRegions == NULL)

  00031	8b 4f 04	 mov	 ecx, DWORD PTR [edi+4]

; 590  : 	m_nDataStartInBlock(start),

  00034	8b f0		 mov	 esi, eax

; 1228 : 	if(m_pDrawingRegions == NULL)

  00036	85 c9		 test	 ecx, ecx
  00038	75 05		 jne	 SHORT $LN8@GetRegion
  0003a	0f 57 c0	 xorps	 xmm0, xmm0

; 1229 : 		return CRect(0, 0, 0, 0);

  0003d	eb 27		 jmp	 SHORT $LN7@GetRegion
$LN8@GetRegion:

; 444  : 	return m_blockRegionList.GetCurrentAt().GetGraphPartRegion();

  0003f	8d 45 cc	 lea	 eax, DWORD PTR $T3[ebp]
  00042	50		 push	 eax
  00043	8d 85 6c ff ff
	ff		 lea	 eax, DWORD PTR $T2[ebp]
  00049	50		 push	 eax
  0004a	e8 00 00 00 00	 call	 ?GetCurrentAt@CBlockRegionList@@QBE?AVCBlockRegion@@XZ ; CBlockRegionList::GetCurrentAt
  0004f	8b c8		 mov	 ecx, eax
  00051	e8 00 00 00 00	 call	 ?GetGraphPartRegion@CBlockRegion@@QBE?AVCGraphPartRegion@@XZ ; CBlockRegion::GetGraphPartRegion

; 475  : 	return GetCurrentGraphPartRegion().GetFull();

  00056	8d 45 ec	 lea	 eax, DWORD PTR $T4[ebp]
  00059	50		 push	 eax
  0005a	8d 4d cc	 lea	 ecx, DWORD PTR $T3[ebp]
  0005d	e8 00 00 00 00	 call	 ?GetFull@CGraphPartRegion@@QBE?AVCRect@@XZ ; CGraphPartRegion::GetFull
  00062	0f 10 45 ec	 movups	 xmm0, XMMWORD PTR $T4[ebp]
$LN7@GetRegion:

; 653  : 	m_displayAttributes(displayAttributes)

  00066	8b 85 68 ff ff
	ff		 mov	 eax, DWORD PTR $T1[ebp]

; 1245 : }

  0006c	8b 4d fc	 mov	 ecx, DWORD PTR __$ArrayPad$[ebp]
  0006f	5f		 pop	 edi

; 653  : 	m_displayAttributes(displayAttributes)

  00070	89 73 10	 mov	 DWORD PTR [ebx+16], esi

; 1245 : }

  00073	33 cd		 xor	 ecx, ebp

; 653  : 	m_displayAttributes(displayAttributes)

  00075	89 43 14	 mov	 DWORD PTR [ebx+20], eax

; 1244 : 	return CRegion(GetCurrentRegion(), GetDisplayAttributes());

  00078	8b c3		 mov	 eax, ebx
  0007a	5e		 pop	 esi

; 652  : 	m_rect(rect),

  0007b	0f 11 03	 movups	 XMMWORD PTR [ebx], xmm0

; 1244 : 	return CRegion(GetCurrentRegion(), GetDisplayAttributes());

  0007e	5b		 pop	 ebx

; 1245 : }

  0007f	e8 00 00 00 00	 call	 @__security_check_cookie@4
  00084	8b e5		 mov	 esp, ebp
  00086	5d		 pop	 ebp
  00087	c2 04 00	 ret	 4
?GetRegion@CSelectedElementDrawingData@@QBE?AVCRegion@@XZ ENDP ; CSelectedElementDrawingData::GetRegion
_TEXT	ENDS
; Function compile flags: /Ogtp
; File D:\git\src\IBK\IBK_DRFN\ProjSrc\SrcChartEx\ChartAddIn\ChartAnalysisToolAddIn\AnalysisTool\AnalysisData.cpp
;	COMDAT ?GetCurrentGraphPartRegion@CSelectedElementDrawingData@@QBE?AVCGraphPartRegion@@XZ
_TEXT	SEGMENT
$T1 = -100						; size = 96
__$ArrayPad$ = -4					; size = 4
___$ReturnUdt$ = 8					; size = 4
?GetCurrentGraphPartRegion@CSelectedElementDrawingData@@QBE?AVCGraphPartRegion@@XZ PROC ; CSelectedElementDrawingData::GetCurrentGraphPartRegion, COMDAT
; _this$ = ecx

; 1235 : {

  00000	55		 push	 ebp
  00001	8b ec		 mov	 ebp, esp
  00003	83 ec 64	 sub	 esp, 100		; 00000064H
  00006	a1 00 00 00 00	 mov	 eax, DWORD PTR ___security_cookie
  0000b	33 c5		 xor	 eax, ebp
  0000d	89 45 fc	 mov	 DWORD PTR __$ArrayPad$[ebp], eax

; 1236 : 	if(m_pDrawingRegions == NULL)

  00010	8b 49 04	 mov	 ecx, DWORD PTR [ecx+4]
  00013	56		 push	 esi
  00014	8b 75 08	 mov	 esi, DWORD PTR ___$ReturnUdt$[ebp]
  00017	85 c9		 test	 ecx, ecx
  00019	75 1a		 jne	 SHORT $LN2@GetCurrent

; 1237 : 		return CGraphPartRegion();

  0001b	8b ce		 mov	 ecx, esi
  0001d	e8 00 00 00 00	 call	 ??0CGraphPartRegion@@QAE@XZ ; CGraphPartRegion::CGraphPartRegion

; 1238 : 
; 1239 : 	return m_pDrawingRegions->GetCurrentGraphPartRegion();
; 1240 : }

  00022	8b c6		 mov	 eax, esi
  00024	5e		 pop	 esi
  00025	8b 4d fc	 mov	 ecx, DWORD PTR __$ArrayPad$[ebp]
  00028	33 cd		 xor	 ecx, ebp
  0002a	e8 00 00 00 00	 call	 @__security_check_cookie@4
  0002f	8b e5		 mov	 esp, ebp
  00031	5d		 pop	 ebp
  00032	c2 04 00	 ret	 4
$LN2@GetCurrent:

; 444  : 	return m_blockRegionList.GetCurrentAt().GetGraphPartRegion();

  00035	56		 push	 esi
  00036	8d 45 9c	 lea	 eax, DWORD PTR $T1[ebp]
  00039	50		 push	 eax
  0003a	e8 00 00 00 00	 call	 ?GetCurrentAt@CBlockRegionList@@QBE?AVCBlockRegion@@XZ ; CBlockRegionList::GetCurrentAt
  0003f	8b c8		 mov	 ecx, eax
  00041	e8 00 00 00 00	 call	 ?GetGraphPartRegion@CBlockRegion@@QBE?AVCGraphPartRegion@@XZ ; CBlockRegion::GetGraphPartRegion

; 1238 : 
; 1239 : 	return m_pDrawingRegions->GetCurrentGraphPartRegion();
; 1240 : }

  00046	8b 4d fc	 mov	 ecx, DWORD PTR __$ArrayPad$[ebp]
  00049	8b c6		 mov	 eax, esi
  0004b	33 cd		 xor	 ecx, ebp
  0004d	5e		 pop	 esi
  0004e	e8 00 00 00 00	 call	 @__security_check_cookie@4
  00053	8b e5		 mov	 esp, ebp
  00055	5d		 pop	 ebp
  00056	c2 04 00	 ret	 4
?GetCurrentGraphPartRegion@CSelectedElementDrawingData@@QBE?AVCGraphPartRegion@@XZ ENDP ; CSelectedElementDrawingData::GetCurrentGraphPartRegion
_TEXT	ENDS
; Function compile flags: /Ogtp
; File D:\git\src\IBK\IBK_DRFN\ProjSrc\SrcChartEx\ChartAddIn\ChartAnalysisToolAddIn\AnalysisTool\AnalysisData.cpp
; File C:\Program Files (x86)\Microsoft Visual Studio\2019\Community\VC\Tools\MSVC\14.29.30133\atlmfc\include\atltypes.h
; File D:\git\src\IBK\IBK_DRFN\ProjSrc\SrcChartEx\ChartAddIn\ChartAnalysisToolAddIn\AnalysisTool\AnalysisData.cpp
; File C:\Program Files (x86)\Microsoft Visual Studio\2019\Community\VC\Tools\MSVC\14.29.30133\atlmfc\include\atltypes.h
; File D:\git\src\IBK\IBK_DRFN\ProjSrc\SrcChartEx\ChartAddIn\ChartAnalysisToolAddIn\AnalysisTool\AnalysisData.cpp
;	COMDAT ?GetCurrentRegion@CSelectedElementDrawingData@@QBE?AVCRect@@XZ
_TEXT	SEGMENT
$T1 = -132						; size = 96
$T2 = -36						; size = 32
__$ArrayPad$ = -4					; size = 4
___$ReturnUdt$ = 8					; size = 4
?GetCurrentRegion@CSelectedElementDrawingData@@QBE?AVCRect@@XZ PROC ; CSelectedElementDrawingData::GetCurrentRegion, COMDAT
; _this$ = ecx

; 1227 : {

  00000	55		 push	 ebp
  00001	8b ec		 mov	 ebp, esp
  00003	81 ec 84 00 00
	00		 sub	 esp, 132		; 00000084H
  00009	a1 00 00 00 00	 mov	 eax, DWORD PTR ___security_cookie
  0000e	33 c5		 xor	 eax, ebp
  00010	89 45 fc	 mov	 DWORD PTR __$ArrayPad$[ebp], eax

; 1228 : 	if(m_pDrawingRegions == NULL)

  00013	8b 49 04	 mov	 ecx, DWORD PTR [ecx+4]
  00016	56		 push	 esi
  00017	8b 75 08	 mov	 esi, DWORD PTR ___$ReturnUdt$[ebp]
  0001a	85 c9		 test	 ecx, ecx
  0001c	75 1e		 jne	 SHORT $LN2@GetCurrent
; File C:\Program Files (x86)\Microsoft Visual Studio\2019\Community\VC\Tools\MSVC\14.29.30133\atlmfc\include\atltypes.h

; 540  : 	left = l;

  0001e	89 0e		 mov	 DWORD PTR [esi], ecx
; File D:\git\src\IBK\IBK_DRFN\ProjSrc\SrcChartEx\ChartAddIn\ChartAnalysisToolAddIn\AnalysisTool\AnalysisData.cpp

; 1232 : }

  00020	8b c6		 mov	 eax, esi
; File C:\Program Files (x86)\Microsoft Visual Studio\2019\Community\VC\Tools\MSVC\14.29.30133\atlmfc\include\atltypes.h

; 541  : 	top = t;

  00022	89 4e 04	 mov	 DWORD PTR [esi+4], ecx

; 542  : 	right = r;

  00025	89 4e 08	 mov	 DWORD PTR [esi+8], ecx

; 543  : 	bottom = b;

  00028	89 4e 0c	 mov	 DWORD PTR [esi+12], ecx
  0002b	5e		 pop	 esi
; File D:\git\src\IBK\IBK_DRFN\ProjSrc\SrcChartEx\ChartAddIn\ChartAnalysisToolAddIn\AnalysisTool\AnalysisData.cpp

; 1232 : }

  0002c	8b 4d fc	 mov	 ecx, DWORD PTR __$ArrayPad$[ebp]
  0002f	33 cd		 xor	 ecx, ebp
  00031	e8 00 00 00 00	 call	 @__security_check_cookie@4
  00036	8b e5		 mov	 esp, ebp
  00038	5d		 pop	 ebp
  00039	c2 04 00	 ret	 4
$LN2@GetCurrent:

; 444  : 	return m_blockRegionList.GetCurrentAt().GetGraphPartRegion();

  0003c	8d 45 dc	 lea	 eax, DWORD PTR $T2[ebp]
  0003f	50		 push	 eax
  00040	8d 85 7c ff ff
	ff		 lea	 eax, DWORD PTR $T1[ebp]
  00046	50		 push	 eax
  00047	e8 00 00 00 00	 call	 ?GetCurrentAt@CBlockRegionList@@QBE?AVCBlockRegion@@XZ ; CBlockRegionList::GetCurrentAt
  0004c	8b c8		 mov	 ecx, eax
  0004e	e8 00 00 00 00	 call	 ?GetGraphPartRegion@CBlockRegion@@QBE?AVCGraphPartRegion@@XZ ; CBlockRegion::GetGraphPartRegion

; 475  : 	return GetCurrentGraphPartRegion().GetFull();

  00053	56		 push	 esi
  00054	8d 4d dc	 lea	 ecx, DWORD PTR $T2[ebp]
  00057	e8 00 00 00 00	 call	 ?GetFull@CGraphPartRegion@@QBE?AVCRect@@XZ ; CGraphPartRegion::GetFull

; 1232 : }

  0005c	8b 4d fc	 mov	 ecx, DWORD PTR __$ArrayPad$[ebp]
  0005f	8b c6		 mov	 eax, esi
  00061	33 cd		 xor	 ecx, ebp
  00063	5e		 pop	 esi
  00064	e8 00 00 00 00	 call	 @__security_check_cookie@4
  00069	8b e5		 mov	 esp, ebp
  0006b	5d		 pop	 ebp
  0006c	c2 04 00	 ret	 4
?GetCurrentRegion@CSelectedElementDrawingData@@QBE?AVCRect@@XZ ENDP ; CSelectedElementDrawingData::GetCurrentRegion
_TEXT	ENDS
; Function compile flags: /Ogtp
; File D:\git\src\IBK\IBK_DRFN\ProjSrc\SrcChartEx\ChartAddIn\ChartAnalysisToolAddIn\AnalysisTool\AnalysisData.cpp
; File C:\Program Files (x86)\Microsoft Visual Studio\2019\Community\VC\Tools\MSVC\14.29.30133\atlmfc\include\atltypes.h
; File D:\git\src\IBK\IBK_DRFN\ProjSrc\SrcChartEx\ChartAddIn\ChartAnalysisToolAddIn\AnalysisTool\AnalysisData.cpp
; File C:\Program Files (x86)\Microsoft Visual Studio\2019\Community\VC\Tools\MSVC\14.29.30133\atlmfc\include\atltypes.h
; File D:\git\src\IBK\IBK_DRFN\ProjSrc\SrcChartEx\ChartAddIn\ChartAnalysisToolAddIn\AnalysisTool\AnalysisData.cpp
; File C:\Program Files (x86)\Microsoft Visual Studio\2019\Community\VC\Tools\MSVC\14.29.30133\atlmfc\include\atltypes.h
; File D:\git\src\IBK\IBK_DRFN\ProjSrc\SrcChartEx\ChartAddIn\ChartAnalysisToolAddIn\AnalysisTool\AnalysisData.cpp
; File C:\Program Files (x86)\Microsoft Visual Studio\2019\Community\VC\Tools\MSVC\14.29.30133\atlmfc\include\atltypes.h
; File D:\git\src\IBK\IBK_DRFN\ProjSrc\SrcChartEx\ChartAddIn\ChartAnalysisToolAddIn\AnalysisTool\AnalysisData.cpp
; File C:\Program Files (x86)\Microsoft Visual Studio\2019\Community\VC\Tools\MSVC\14.29.30133\atlmfc\include\atltypes.h
; File D:\git\src\IBK\IBK_DRFN\ProjSrc\SrcChartEx\ChartAddIn\ChartAnalysisToolAddIn\AnalysisTool\AnalysisData.cpp
; File C:\Program Files (x86)\Microsoft Visual Studio\2019\Community\VC\Tools\MSVC\14.29.30133\atlmfc\include\atltypes.h
; File D:\git\src\IBK\IBK_DRFN\ProjSrc\SrcChartEx\ChartAddIn\ChartAnalysisToolAddIn\AnalysisTool\AnalysisData.cpp
; File C:\Program Files (x86)\Microsoft Visual Studio\2019\Community\VC\Tools\MSVC\14.29.30133\atlmfc\include\atltypes.h
; File D:\git\src\IBK\IBK_DRFN\ProjSrc\SrcChartEx\ChartAddIn\ChartAnalysisToolAddIn\AnalysisTool\AnalysisData.cpp
; File C:\Program Files (x86)\Microsoft Visual Studio\2019\Community\VC\Tools\MSVC\14.29.30133\atlmfc\include\atltypes.h
; File D:\git\src\IBK\IBK_DRFN\ProjSrc\SrcChartEx\ChartAddIn\ChartAnalysisToolAddIn\AnalysisTool\AnalysisData.cpp
; File C:\Program Files (x86)\Microsoft Visual Studio\2019\Community\VC\Tools\MSVC\14.29.30133\atlmfc\include\atltypes.h
; File D:\git\src\IBK\IBK_DRFN\ProjSrc\SrcChartEx\ChartAddIn\ChartAnalysisToolAddIn\AnalysisTool\AnalysisData.cpp
; File C:\Program Files (x86)\Microsoft Visual Studio\2019\Community\VC\Tools\MSVC\14.29.30133\atlmfc\include\atltypes.h
; File D:\git\src\IBK\IBK_DRFN\ProjSrc\SrcChartEx\ChartAddIn\ChartAnalysisToolAddIn\AnalysisTool\AnalysisData.cpp
; File C:\Program Files (x86)\Microsoft Visual Studio\2019\Community\VC\Tools\MSVC\14.29.30133\atlmfc\include\atltypes.h
; File D:\git\src\IBK\IBK_DRFN\ProjSrc\SrcChartEx\ChartAddIn\ChartAnalysisToolAddIn\AnalysisTool\AnalysisData.cpp
; File C:\Program Files (x86)\Microsoft Visual Studio\2019\Community\VC\Tools\MSVC\14.29.30133\atlmfc\include\atltypes.h
; File D:\git\src\IBK\IBK_DRFN\ProjSrc\SrcChartEx\ChartAddIn\ChartAnalysisToolAddIn\AnalysisTool\AnalysisData.cpp
; File C:\Program Files (x86)\Microsoft Visual Studio\2019\Community\VC\Tools\MSVC\14.29.30133\atlmfc\include\atltypes.h
; File D:\git\src\IBK\IBK_DRFN\ProjSrc\SrcChartEx\ChartAddIn\ChartAnalysisToolAddIn\AnalysisTool\AnalysisData.cpp
; File C:\Program Files (x86)\Microsoft Visual Studio\2019\Community\VC\Tools\MSVC\14.29.30133\atlmfc\include\atltypes.h
; File D:\git\src\IBK\IBK_DRFN\ProjSrc\SrcChartEx\ChartAddIn\ChartAnalysisToolAddIn\AnalysisTool\AnalysisData.cpp
; File C:\Program Files (x86)\Microsoft Visual Studio\2019\Community\VC\Tools\MSVC\14.29.30133\atlmfc\include\atltypes.h
; File D:\git\src\IBK\IBK_DRFN\ProjSrc\SrcChartEx\ChartAddIn\ChartAnalysisToolAddIn\AnalysisTool\AnalysisData.cpp
; File C:\Program Files (x86)\Microsoft Visual Studio\2019\Community\VC\Tools\MSVC\14.29.30133\atlmfc\include\atltypes.h
; File D:\git\src\IBK\IBK_DRFN\ProjSrc\SrcChartEx\ChartAddIn\ChartAnalysisToolAddIn\AnalysisTool\AnalysisData.cpp
; File C:\Program Files (x86)\Microsoft Visual Studio\2019\Community\VC\Tools\MSVC\14.29.30133\atlmfc\include\atltypes.h
; File D:\git\src\IBK\IBK_DRFN\ProjSrc\SrcChartEx\ChartAddIn\ChartAnalysisToolAddIn\AnalysisTool\AnalysisData.cpp
; File C:\Program Files (x86)\Microsoft Visual Studio\2019\Community\VC\Tools\MSVC\14.29.30133\atlmfc\include\atltypes.h
; File D:\git\src\IBK\IBK_DRFN\ProjSrc\SrcChartEx\ChartAddIn\ChartAnalysisToolAddIn\AnalysisTool\AnalysisData.cpp
;	COMDAT ?GetSelectedDrawPoint@CSelectedElementDrawingData@@QBE?AVCPoint@@ABW4COORDINATETYPE@CAnalysis@@_NABVCCoordinate@@@Z
_TEXT	SEGMENT
_drawingPoint$1 = -24					; size = 8
_drawingPoint$2 = -24					; size = 8
$T3 = -16						; size = 8
_drawingPoint$4 = -8					; size = 8
_drawingPoint$5 = -8					; size = 8
___$ReturnUdt$ = 8					; size = 4
_eType$ = 12						; size = 4
_bIsAutoPrice$ = 16					; size = 1
_orgPoint$ = 20						; size = 4
?GetSelectedDrawPoint@CSelectedElementDrawingData@@QBE?AVCPoint@@ABW4COORDINATETYPE@CAnalysis@@_NABVCCoordinate@@@Z PROC ; CSelectedElementDrawingData::GetSelectedDrawPoint, COMDAT
; _this$ = ecx

; 1219 : {

  00000	55		 push	 ebp
  00001	8b ec		 mov	 ebp, esp

; 1220 : 	if(eType == CAnalysis::RELATIVE_POINT)

  00003	8b 45 0c	 mov	 eax, DWORD PTR _eType$[ebp]
  00006	83 ec 18	 sub	 esp, 24			; 00000018H
  00009	83 38 00	 cmp	 DWORD PTR [eax], 0
  0000c	53		 push	 ebx
  0000d	56		 push	 esi
  0000e	57		 push	 edi
  0000f	8b f1		 mov	 esi, ecx
  00011	0f 85 27 01 00
	00		 jne	 $LN2@GetSelecte

; 1260 : 	if(bIsAutoPrice)

  00017	80 7d 10 00	 cmp	 BYTE PTR _bIsAutoPrice$[ebp], 0
  0001b	0f 84 ba 00 00
	00		 je	 $LN5@GetSelecte

; 1267 : 	CCoordinateCalculator& coordinateCalculator = CCoordinateCalculatorFinder::FindCoordinateCalculator(true);

  00021	6a 01		 push	 1
  00023	e8 00 00 00 00	 call	 ?FindCoordinateCalculator@CCoordinateCalculatorFinder@@SAAAVCCoordinateCalculator@@_N@Z ; CCoordinateCalculatorFinder::FindCoordinateCalculator
  00028	8b d8		 mov	 ebx, eax

; 1268 : 	if(m_eModifyType == CToolEnumData::MODIFY_CENTER)

  0002a	8d 7e 68	 lea	 edi, DWORD PTR [esi+104]
  0002d	83 c4 04	 add	 esp, 4
  00030	8d 46 08	 lea	 eax, DWORD PTR [esi+8]
  00033	83 3e 01	 cmp	 DWORD PTR [esi], 1
  00036	8b cb		 mov	 ecx, ebx
  00038	75 3c		 jne	 SHORT $LN10@GetSelecte

; 1269 : 	{
; 1270 : 		CPoint drawingPoint = coordinateCalculator.RelativeToAbsolute(m_calData, orgPoint);

  0003a	ff 75 14	 push	 DWORD PTR _orgPoint$[ebp]
  0003d	50		 push	 eax
  0003e	8d 45 f8	 lea	 eax, DWORD PTR _drawingPoint$4[ebp]
  00041	50		 push	 eax
  00042	e8 00 00 00 00	 call	 ?RelativeToAbsolute@CCoordinateCalculator@@QBE?AVCPoint@@ABVCCoordinateCalculatorData@@ABVCCoordinate@@@Z ; CCoordinateCalculator::RelativeToAbsolute

; 1271 : 		return coordinateCalculator.AbsoluteToAbsolute(m_calData, CPoint(drawingPoint.x + m_point.x, drawingPoint.y + m_point.y));

  00047	8b 07		 mov	 eax, DWORD PTR [edi]
  00049	8b cb		 mov	 ecx, ebx
  0004b	03 45 f8	 add	 eax, DWORD PTR _drawingPoint$4[ebp]
; File C:\Program Files (x86)\Microsoft Visual Studio\2019\Community\VC\Tools\MSVC\14.29.30133\atlmfc\include\atltypes.h

; 408  : 	x = initX;

  0004e	89 45 f0	 mov	 DWORD PTR $T3[ebp], eax
; File D:\git\src\IBK\IBK_DRFN\ProjSrc\SrcChartEx\ChartAddIn\ChartAnalysisToolAddIn\AnalysisTool\AnalysisData.cpp

; 1271 : 		return coordinateCalculator.AbsoluteToAbsolute(m_calData, CPoint(drawingPoint.x + m_point.x, drawingPoint.y + m_point.y));

  00051	8b 46 6c	 mov	 eax, DWORD PTR [esi+108]
  00054	03 45 fc	 add	 eax, DWORD PTR _drawingPoint$4[ebp+4]
; File C:\Program Files (x86)\Microsoft Visual Studio\2019\Community\VC\Tools\MSVC\14.29.30133\atlmfc\include\atltypes.h

; 409  : 	y = initY;

  00057	89 45 f4	 mov	 DWORD PTR $T3[ebp+4], eax
; File D:\git\src\IBK\IBK_DRFN\ProjSrc\SrcChartEx\ChartAddIn\ChartAnalysisToolAddIn\AnalysisTool\AnalysisData.cpp

; 1271 : 		return coordinateCalculator.AbsoluteToAbsolute(m_calData, CPoint(drawingPoint.x + m_point.x, drawingPoint.y + m_point.y));

  0005a	8d 45 f0	 lea	 eax, DWORD PTR $T3[ebp]
  0005d	50		 push	 eax
  0005e	8d 46 08	 lea	 eax, DWORD PTR [esi+8]
  00061	8b 75 08	 mov	 esi, DWORD PTR ___$ReturnUdt$[ebp]
  00064	50		 push	 eax
  00065	56		 push	 esi
  00066	e8 00 00 00 00	 call	 ?AbsoluteToAbsolute@CCoordinateCalculator@@QBE?AVCPoint@@ABVCCoordinateCalculatorData@@ABV2@@Z ; CCoordinateCalculator::AbsoluteToAbsolute

; 1223 : 	return GetSelectedDrawPoint_Pixel(orgPoint);

  0006b	5f		 pop	 edi
  0006c	8b c6		 mov	 eax, esi
  0006e	5e		 pop	 esi
  0006f	5b		 pop	 ebx

; 1224 : }

  00070	8b e5		 mov	 esp, ebp
  00072	5d		 pop	 ebp
  00073	c2 10 00	 ret	 16			; 00000010H
$LN10@GetSelecte:

; 1274 : 	CPoint drawingPoint = coordinateCalculator.AbsoluteToAbsolute(m_calData, m_point);

  00076	57		 push	 edi
  00077	50		 push	 eax
  00078	8d 45 e8	 lea	 eax, DWORD PTR _drawingPoint$2[ebp]
  0007b	50		 push	 eax
  0007c	e8 00 00 00 00	 call	 ?AbsoluteToAbsolute@CCoordinateCalculator@@QBE?AVCPoint@@ABVCCoordinateCalculatorData@@ABV2@@Z ; CCoordinateCalculator::AbsoluteToAbsolute

; 1275 : 
; 1276 : 	switch(m_eModifyType)

  00081	8b 06		 mov	 eax, DWORD PTR [esi]
  00083	83 c0 fe	 add	 eax, -2			; fffffffeH
  00086	83 f8 04	 cmp	 eax, 4
  00089	77 38		 ja	 SHORT $LN8@GetSelecte
  0008b	ff 24 85 00 00
	00 00		 jmp	 DWORD PTR $LN51@GetSelecte[eax*4]
$LN11@GetSelecte:
; File C:\Program Files (x86)\Microsoft Visual Studio\2019\Community\VC\Tools\MSVC\14.29.30133\atlmfc\include\atltypes.h

; 408  : 	x = initX;

  00092	8b 75 08	 mov	 esi, DWORD PTR ___$ReturnUdt$[ebp]
  00095	8b 07		 mov	 eax, DWORD PTR [edi]
; File D:\git\src\IBK\IBK_DRFN\ProjSrc\SrcChartEx\ChartAddIn\ChartAnalysisToolAddIn\AnalysisTool\AnalysisData.cpp

; 1223 : 	return GetSelectedDrawPoint_Pixel(orgPoint);

  00097	5f		 pop	 edi
; File C:\Program Files (x86)\Microsoft Visual Studio\2019\Community\VC\Tools\MSVC\14.29.30133\atlmfc\include\atltypes.h

; 408  : 	x = initX;

  00098	89 06		 mov	 DWORD PTR [esi], eax

; 409  : 	y = initY;

  0009a	8b 45 ec	 mov	 eax, DWORD PTR _drawingPoint$2[ebp+4]
  0009d	89 46 04	 mov	 DWORD PTR [esi+4], eax
; File D:\git\src\IBK\IBK_DRFN\ProjSrc\SrcChartEx\ChartAddIn\ChartAnalysisToolAddIn\AnalysisTool\AnalysisData.cpp

; 1223 : 	return GetSelectedDrawPoint_Pixel(orgPoint);

  000a0	8b c6		 mov	 eax, esi
  000a2	5e		 pop	 esi
  000a3	5b		 pop	 ebx

; 1224 : }

  000a4	8b e5		 mov	 esp, ebp
  000a6	5d		 pop	 ebp
  000a7	c2 10 00	 ret	 16			; 00000010H
$LN15@GetSelecte:

; 1284 : 		return CPoint(drawingPoint.x, m_point.y);

  000aa	8b 4e 6c	 mov	 ecx, DWORD PTR [esi+108]
; File C:\Program Files (x86)\Microsoft Visual Studio\2019\Community\VC\Tools\MSVC\14.29.30133\atlmfc\include\atltypes.h

; 408  : 	x = initX;

  000ad	8b 75 08	 mov	 esi, DWORD PTR ___$ReturnUdt$[ebp]
  000b0	8b 45 e8	 mov	 eax, DWORD PTR _drawingPoint$2[ebp]
; File D:\git\src\IBK\IBK_DRFN\ProjSrc\SrcChartEx\ChartAddIn\ChartAnalysisToolAddIn\AnalysisTool\AnalysisData.cpp

; 1223 : 	return GetSelectedDrawPoint_Pixel(orgPoint);

  000b3	5f		 pop	 edi
; File C:\Program Files (x86)\Microsoft Visual Studio\2019\Community\VC\Tools\MSVC\14.29.30133\atlmfc\include\atltypes.h

; 408  : 	x = initX;

  000b4	89 06		 mov	 DWORD PTR [esi], eax
; File D:\git\src\IBK\IBK_DRFN\ProjSrc\SrcChartEx\ChartAddIn\ChartAnalysisToolAddIn\AnalysisTool\AnalysisData.cpp

; 1223 : 	return GetSelectedDrawPoint_Pixel(orgPoint);

  000b6	8b c6		 mov	 eax, esi
; File C:\Program Files (x86)\Microsoft Visual Studio\2019\Community\VC\Tools\MSVC\14.29.30133\atlmfc\include\atltypes.h

; 409  : 	y = initY;

  000b8	89 4e 04	 mov	 DWORD PTR [esi+4], ecx
; File D:\git\src\IBK\IBK_DRFN\ProjSrc\SrcChartEx\ChartAddIn\ChartAnalysisToolAddIn\AnalysisTool\AnalysisData.cpp

; 1223 : 	return GetSelectedDrawPoint_Pixel(orgPoint);

  000bb	5e		 pop	 esi
  000bc	5b		 pop	 ebx

; 1224 : }

  000bd	8b e5		 mov	 esp, ebp
  000bf	5d		 pop	 ebp
  000c0	c2 10 00	 ret	 16			; 00000010H
$LN8@GetSelecte:

; 1288 : 	return m_point;

  000c3	8b 75 08	 mov	 esi, DWORD PTR ___$ReturnUdt$[ebp]
  000c6	8b 07		 mov	 eax, DWORD PTR [edi]
  000c8	8b 4f 04	 mov	 ecx, DWORD PTR [edi+4]

; 1223 : 	return GetSelectedDrawPoint_Pixel(orgPoint);

  000cb	5f		 pop	 edi

; 1288 : 	return m_point;

  000cc	89 06		 mov	 DWORD PTR [esi], eax

; 1223 : 	return GetSelectedDrawPoint_Pixel(orgPoint);

  000ce	8b c6		 mov	 eax, esi

; 1288 : 	return m_point;

  000d0	89 4e 04	 mov	 DWORD PTR [esi+4], ecx

; 1223 : 	return GetSelectedDrawPoint_Pixel(orgPoint);

  000d3	5e		 pop	 esi
  000d4	5b		 pop	 ebx

; 1224 : }

  000d5	8b e5		 mov	 esp, ebp
  000d7	5d		 pop	 ebp
  000d8	c2 10 00	 ret	 16			; 00000010H
$LN5@GetSelecte:

; 1293 : 	switch(m_eModifyType)

  000db	8b 06		 mov	 eax, DWORD PTR [esi]
  000dd	48		 dec	 eax
  000de	83 f8 05	 cmp	 eax, 5
  000e1	77 42		 ja	 SHORT $LN24@GetSelecte
  000e3	ff 24 85 00 00
	00 00		 jmp	 DWORD PTR $LN52@GetSelecte[eax*4]
$LN26@GetSelecte:

; 1294 : 	{
; 1295 : 	case CToolEnumData::MODIFY_CENTER:
; 1296 : 	{
; 1297 : 		CCoordinateCalculator& coordinateCalculator = CCoordinateCalculatorFinder::FindCoordinateCalculator(false);

  000ea	6a 00		 push	 0
  000ec	e8 00 00 00 00	 call	 ?FindCoordinateCalculator@CCoordinateCalculatorFinder@@SAAAVCCoordinateCalculator@@_N@Z ; CCoordinateCalculatorFinder::FindCoordinateCalculator
  000f1	83 c4 04	 add	 esp, 4

; 1298 : 		CPoint drawingPoint = coordinateCalculator.RelativeToAbsolute(m_calData, orgPoint);

  000f4	8d 4e 08	 lea	 ecx, DWORD PTR [esi+8]
  000f7	ff 75 14	 push	 DWORD PTR _orgPoint$[ebp]
  000fa	51		 push	 ecx
  000fb	8d 4d e8	 lea	 ecx, DWORD PTR _drawingPoint$1[ebp]
  000fe	51		 push	 ecx
  000ff	8b c8		 mov	 ecx, eax
  00101	e8 00 00 00 00	 call	 ?RelativeToAbsolute@CCoordinateCalculator@@QBE?AVCPoint@@ABVCCoordinateCalculatorData@@ABVCCoordinate@@@Z ; CCoordinateCalculator::RelativeToAbsolute

; 1299 : 		return CPoint(drawingPoint.x + m_point.x, drawingPoint.y + m_point.y);

  00106	8b 4e 6c	 mov	 ecx, DWORD PTR [esi+108]
  00109	8b 46 68	 mov	 eax, DWORD PTR [esi+104]
; File C:\Program Files (x86)\Microsoft Visual Studio\2019\Community\VC\Tools\MSVC\14.29.30133\atlmfc\include\atltypes.h

; 408  : 	x = initX;

  0010c	8b 75 08	 mov	 esi, DWORD PTR ___$ReturnUdt$[ebp]
; File D:\git\src\IBK\IBK_DRFN\ProjSrc\SrcChartEx\ChartAddIn\ChartAnalysisToolAddIn\AnalysisTool\AnalysisData.cpp

; 1299 : 		return CPoint(drawingPoint.x + m_point.x, drawingPoint.y + m_point.y);

  0010f	03 4d ec	 add	 ecx, DWORD PTR _drawingPoint$1[ebp+4]
  00112	03 45 e8	 add	 eax, DWORD PTR _drawingPoint$1[ebp]

; 1223 : 	return GetSelectedDrawPoint_Pixel(orgPoint);

  00115	5f		 pop	 edi
; File C:\Program Files (x86)\Microsoft Visual Studio\2019\Community\VC\Tools\MSVC\14.29.30133\atlmfc\include\atltypes.h

; 408  : 	x = initX;

  00116	89 06		 mov	 DWORD PTR [esi], eax
; File D:\git\src\IBK\IBK_DRFN\ProjSrc\SrcChartEx\ChartAddIn\ChartAnalysisToolAddIn\AnalysisTool\AnalysisData.cpp

; 1223 : 	return GetSelectedDrawPoint_Pixel(orgPoint);

  00118	8b c6		 mov	 eax, esi
; File C:\Program Files (x86)\Microsoft Visual Studio\2019\Community\VC\Tools\MSVC\14.29.30133\atlmfc\include\atltypes.h

; 409  : 	y = initY;

  0011a	89 4e 04	 mov	 DWORD PTR [esi+4], ecx
; File D:\git\src\IBK\IBK_DRFN\ProjSrc\SrcChartEx\ChartAddIn\ChartAnalysisToolAddIn\AnalysisTool\AnalysisData.cpp

; 1223 : 	return GetSelectedDrawPoint_Pixel(orgPoint);

  0011d	5e		 pop	 esi
  0011e	5b		 pop	 ebx

; 1224 : }

  0011f	8b e5		 mov	 esp, ebp
  00121	5d		 pop	 ebp
  00122	c2 10 00	 ret	 16			; 00000010H
$LN24@GetSelecte:

; 1223 : 	return GetSelectedDrawPoint_Pixel(orgPoint);

  00125	8b 46 68	 mov	 eax, DWORD PTR [esi+104]
  00128	8b 4e 6c	 mov	 ecx, DWORD PTR [esi+108]
  0012b	8b 75 08	 mov	 esi, DWORD PTR ___$ReturnUdt$[ebp]
  0012e	5f		 pop	 edi
  0012f	89 06		 mov	 DWORD PTR [esi], eax
  00131	8b c6		 mov	 eax, esi
  00133	89 4e 04	 mov	 DWORD PTR [esi+4], ecx
  00136	5e		 pop	 esi
  00137	5b		 pop	 ebx

; 1224 : }

  00138	8b e5		 mov	 esp, ebp
  0013a	5d		 pop	 ebp
  0013b	c2 10 00	 ret	 16			; 00000010H
$LN2@GetSelecte:

; 1323 : 	CPoint drawingPoint = orgPoint.GetPixel();

  0013e	8b 4d 14	 mov	 ecx, DWORD PTR _orgPoint$[ebp]
  00141	8d 45 f8	 lea	 eax, DWORD PTR _drawingPoint$5[ebp]
  00144	50		 push	 eax
  00145	e8 00 00 00 00	 call	 ?GetPixel@CCoordinate@@QBE?AVCPoint@@XZ ; CCoordinate::GetPixel

; 1324 : 
; 1325 : 	switch(m_eModifyType)

  0014a	8b 06		 mov	 eax, DWORD PTR [esi]
  0014c	48		 dec	 eax
  0014d	83 f8 05	 cmp	 eax, 5
  00150	77 58		 ja	 SHORT $LN36@GetSelecte
  00152	ff 24 85 00 00
	00 00		 jmp	 DWORD PTR $LN53@GetSelecte[eax*4]
$LN38@GetSelecte:

; 1328 : 		return CPoint(drawingPoint.x + m_point.x, drawingPoint.y + m_point.y);

  00159	8b 4e 6c	 mov	 ecx, DWORD PTR [esi+108]
  0015c	8b 46 68	 mov	 eax, DWORD PTR [esi+104]
; File C:\Program Files (x86)\Microsoft Visual Studio\2019\Community\VC\Tools\MSVC\14.29.30133\atlmfc\include\atltypes.h

; 408  : 	x = initX;

  0015f	8b 75 08	 mov	 esi, DWORD PTR ___$ReturnUdt$[ebp]
; File D:\git\src\IBK\IBK_DRFN\ProjSrc\SrcChartEx\ChartAddIn\ChartAnalysisToolAddIn\AnalysisTool\AnalysisData.cpp

; 1328 : 		return CPoint(drawingPoint.x + m_point.x, drawingPoint.y + m_point.y);

  00162	03 4d fc	 add	 ecx, DWORD PTR _drawingPoint$5[ebp+4]
  00165	03 45 f8	 add	 eax, DWORD PTR _drawingPoint$5[ebp]

; 1223 : 	return GetSelectedDrawPoint_Pixel(orgPoint);

  00168	5f		 pop	 edi
; File C:\Program Files (x86)\Microsoft Visual Studio\2019\Community\VC\Tools\MSVC\14.29.30133\atlmfc\include\atltypes.h

; 408  : 	x = initX;

  00169	89 06		 mov	 DWORD PTR [esi], eax
; File D:\git\src\IBK\IBK_DRFN\ProjSrc\SrcChartEx\ChartAddIn\ChartAnalysisToolAddIn\AnalysisTool\AnalysisData.cpp

; 1223 : 	return GetSelectedDrawPoint_Pixel(orgPoint);

  0016b	8b c6		 mov	 eax, esi
; File C:\Program Files (x86)\Microsoft Visual Studio\2019\Community\VC\Tools\MSVC\14.29.30133\atlmfc\include\atltypes.h

; 409  : 	y = initY;

  0016d	89 4e 04	 mov	 DWORD PTR [esi+4], ecx
; File D:\git\src\IBK\IBK_DRFN\ProjSrc\SrcChartEx\ChartAddIn\ChartAnalysisToolAddIn\AnalysisTool\AnalysisData.cpp

; 1223 : 	return GetSelectedDrawPoint_Pixel(orgPoint);

  00170	5e		 pop	 esi
  00171	5b		 pop	 ebx

; 1224 : }

  00172	8b e5		 mov	 esp, ebp
  00174	5d		 pop	 ebp
  00175	c2 10 00	 ret	 16			; 00000010H
$LN39@GetSelecte:
; File C:\Program Files (x86)\Microsoft Visual Studio\2019\Community\VC\Tools\MSVC\14.29.30133\atlmfc\include\atltypes.h

; 408  : 	x = initX;

  00178	8b 46 68	 mov	 eax, DWORD PTR [esi+104]
  0017b	8b 75 08	 mov	 esi, DWORD PTR ___$ReturnUdt$[ebp]
; File D:\git\src\IBK\IBK_DRFN\ProjSrc\SrcChartEx\ChartAddIn\ChartAnalysisToolAddIn\AnalysisTool\AnalysisData.cpp

; 1223 : 	return GetSelectedDrawPoint_Pixel(orgPoint);

  0017e	5f		 pop	 edi
; File C:\Program Files (x86)\Microsoft Visual Studio\2019\Community\VC\Tools\MSVC\14.29.30133\atlmfc\include\atltypes.h

; 408  : 	x = initX;

  0017f	89 06		 mov	 DWORD PTR [esi], eax

; 409  : 	y = initY;

  00181	8b 45 fc	 mov	 eax, DWORD PTR _drawingPoint$5[ebp+4]
  00184	89 46 04	 mov	 DWORD PTR [esi+4], eax
; File D:\git\src\IBK\IBK_DRFN\ProjSrc\SrcChartEx\ChartAddIn\ChartAnalysisToolAddIn\AnalysisTool\AnalysisData.cpp

; 1223 : 	return GetSelectedDrawPoint_Pixel(orgPoint);

  00187	8b c6		 mov	 eax, esi
  00189	5e		 pop	 esi
  0018a	5b		 pop	 ebx

; 1224 : }

  0018b	8b e5		 mov	 esp, ebp
  0018d	5d		 pop	 ebp
  0018e	c2 10 00	 ret	 16			; 00000010H
$LN43@GetSelecte:

; 1335 : 		return CPoint(drawingPoint.x, m_point.y);

  00191	8b 4e 6c	 mov	 ecx, DWORD PTR [esi+108]
; File C:\Program Files (x86)\Microsoft Visual Studio\2019\Community\VC\Tools\MSVC\14.29.30133\atlmfc\include\atltypes.h

; 408  : 	x = initX;

  00194	8b 75 08	 mov	 esi, DWORD PTR ___$ReturnUdt$[ebp]
  00197	8b 45 f8	 mov	 eax, DWORD PTR _drawingPoint$5[ebp]
; File D:\git\src\IBK\IBK_DRFN\ProjSrc\SrcChartEx\ChartAddIn\ChartAnalysisToolAddIn\AnalysisTool\AnalysisData.cpp

; 1223 : 	return GetSelectedDrawPoint_Pixel(orgPoint);

  0019a	5f		 pop	 edi
; File C:\Program Files (x86)\Microsoft Visual Studio\2019\Community\VC\Tools\MSVC\14.29.30133\atlmfc\include\atltypes.h

; 408  : 	x = initX;

  0019b	89 06		 mov	 DWORD PTR [esi], eax
; File D:\git\src\IBK\IBK_DRFN\ProjSrc\SrcChartEx\ChartAddIn\ChartAnalysisToolAddIn\AnalysisTool\AnalysisData.cpp

; 1223 : 	return GetSelectedDrawPoint_Pixel(orgPoint);

  0019d	8b c6		 mov	 eax, esi
; File C:\Program Files (x86)\Microsoft Visual Studio\2019\Community\VC\Tools\MSVC\14.29.30133\atlmfc\include\atltypes.h

; 409  : 	y = initY;

  0019f	89 4e 04	 mov	 DWORD PTR [esi+4], ecx
; File D:\git\src\IBK\IBK_DRFN\ProjSrc\SrcChartEx\ChartAddIn\ChartAnalysisToolAddIn\AnalysisTool\AnalysisData.cpp

; 1223 : 	return GetSelectedDrawPoint_Pixel(orgPoint);

  001a2	5e		 pop	 esi
  001a3	5b		 pop	 ebx

; 1224 : }

  001a4	8b e5		 mov	 esp, ebp
  001a6	5d		 pop	 ebp
  001a7	c2 10 00	 ret	 16			; 00000010H
$LN36@GetSelecte:

; 1339 : 	return m_point;

  001aa	8b 4e 68	 mov	 ecx, DWORD PTR [esi+104]
  001ad	8b 56 6c	 mov	 edx, DWORD PTR [esi+108]
  001b0	8b 75 08	 mov	 esi, DWORD PTR ___$ReturnUdt$[ebp]

; 1223 : 	return GetSelectedDrawPoint_Pixel(orgPoint);

  001b3	8b c6		 mov	 eax, esi
  001b5	5f		 pop	 edi

; 1339 : 	return m_point;

  001b6	89 0e		 mov	 DWORD PTR [esi], ecx
  001b8	89 56 04	 mov	 DWORD PTR [esi+4], edx

; 1223 : 	return GetSelectedDrawPoint_Pixel(orgPoint);

  001bb	5e		 pop	 esi
  001bc	5b		 pop	 ebx

; 1224 : }

  001bd	8b e5		 mov	 esp, ebp
  001bf	5d		 pop	 ebp
  001c0	c2 10 00	 ret	 16			; 00000010H
  001c3	90		 npad	 1
$LN51@GetSelecte:
  001c4	00 00 00 00	 DD	 $LN11@GetSelecte
  001c8	00 00 00 00	 DD	 $LN11@GetSelecte
  001cc	00 00 00 00	 DD	 $LN11@GetSelecte
  001d0	00 00 00 00	 DD	 $LN11@GetSelecte
  001d4	00 00 00 00	 DD	 $LN15@GetSelecte
$LN52@GetSelecte:
  001d8	00 00 00 00	 DD	 $LN26@GetSelecte
  001dc	00 00 00 00	 DD	 $LN24@GetSelecte
  001e0	00 00 00 00	 DD	 $LN24@GetSelecte
  001e4	00 00 00 00	 DD	 $LN24@GetSelecte
  001e8	00 00 00 00	 DD	 $LN24@GetSelecte
  001ec	00 00 00 00	 DD	 $LN24@GetSelecte
$LN53@GetSelecte:
  001f0	00 00 00 00	 DD	 $LN38@GetSelecte
  001f4	00 00 00 00	 DD	 $LN39@GetSelecte
  001f8	00 00 00 00	 DD	 $LN39@GetSelecte
  001fc	00 00 00 00	 DD	 $LN39@GetSelecte
  00200	00 00 00 00	 DD	 $LN39@GetSelecte
  00204	00 00 00 00	 DD	 $LN43@GetSelecte
?GetSelectedDrawPoint@CSelectedElementDrawingData@@QBE?AVCPoint@@ABW4COORDINATETYPE@CAnalysis@@_NABVCCoordinate@@@Z ENDP ; CSelectedElementDrawingData::GetSelectedDrawPoint
_TEXT	ENDS
; Function compile flags: /Ogtp
; File D:\git\src\IBK\IBK_DRFN\ProjSrc\SrcChartEx\ChartAddIn\ChartAnalysisToolAddIn\AnalysisTool\AnalysisData.cpp
;	COMDAT ?GetCoordinate@CSelectedElementDrawingData@@QBE?AVCCoordinate@@XZ
_TEXT	SEGMENT
___$ReturnUdt$ = 8					; size = 4
?GetCoordinate@CSelectedElementDrawingData@@QBE?AVCCoordinate@@XZ PROC ; CSelectedElementDrawingData::GetCoordinate, COMDAT
; _this$ = ecx

; 1212 : {

  00000	55		 push	 ebp
  00001	8b ec		 mov	 ebp, esp

; 1213 : 	return m_coordinate;

  00003	8d 41 70	 lea	 eax, DWORD PTR [ecx+112]
  00006	8b 4d 08	 mov	 ecx, DWORD PTR ___$ReturnUdt$[ebp]
  00009	50		 push	 eax
  0000a	e8 00 00 00 00	 call	 ??0CCoordinate@@QAE@ABV0@@Z ; CCoordinate::CCoordinate
  0000f	8b 45 08	 mov	 eax, DWORD PTR ___$ReturnUdt$[ebp]

; 1214 : }

  00012	5d		 pop	 ebp
  00013	c2 04 00	 ret	 4
?GetCoordinate@CSelectedElementDrawingData@@QBE?AVCCoordinate@@XZ ENDP ; CSelectedElementDrawingData::GetCoordinate
_TEXT	ENDS
; Function compile flags: /Ogtp
; File D:\git\src\IBK\IBK_DRFN\ProjSrc\SrcChartEx\ChartAddIn\ChartAnalysisToolAddIn\AnalysisTool\AnalysisData.cpp
;	COMDAT ?GetPoint@CSelectedElementDrawingData@@QBE?AVCPoint@@XZ
_TEXT	SEGMENT
___$ReturnUdt$ = 8					; size = 4
?GetPoint@CSelectedElementDrawingData@@QBE?AVCPoint@@XZ PROC ; CSelectedElementDrawingData::GetPoint, COMDAT
; _this$ = ecx

; 1207 : {

  00000	55		 push	 ebp
  00001	8b ec		 mov	 ebp, esp

; 1208 : 	return m_point;

  00003	8b 45 08	 mov	 eax, DWORD PTR ___$ReturnUdt$[ebp]
  00006	8b 51 68	 mov	 edx, DWORD PTR [ecx+104]
  00009	8b 49 6c	 mov	 ecx, DWORD PTR [ecx+108]
  0000c	89 10		 mov	 DWORD PTR [eax], edx
  0000e	89 48 04	 mov	 DWORD PTR [eax+4], ecx

; 1209 : }

  00011	5d		 pop	 ebp
  00012	c2 04 00	 ret	 4
?GetPoint@CSelectedElementDrawingData@@QBE?AVCPoint@@XZ ENDP ; CSelectedElementDrawingData::GetPoint
_TEXT	ENDS
; Function compile flags: /Ogtp
; File D:\git\src\IBK\IBK_DRFN\ProjSrc\SrcChartEx\ChartAddIn\ChartAnalysisToolAddIn\AnalysisTool\AnalysisData.cpp
;	COMDAT ?GetCoordinateCalculatorData@CSelectedElementDrawingData@@QBEABVCCoordinateCalculatorData@@XZ
_TEXT	SEGMENT
?GetCoordinateCalculatorData@CSelectedElementDrawingData@@QBEABVCCoordinateCalculatorData@@XZ PROC ; CSelectedElementDrawingData::GetCoordinateCalculatorData, COMDAT
; _this$ = ecx

; 1203 : 	return m_calData;

  00000	8d 41 08	 lea	 eax, DWORD PTR [ecx+8]

; 1204 : }

  00003	c3		 ret	 0
?GetCoordinateCalculatorData@CSelectedElementDrawingData@@QBEABVCCoordinateCalculatorData@@XZ ENDP ; CSelectedElementDrawingData::GetCoordinateCalculatorData
_TEXT	ENDS
; Function compile flags: /Ogtp
; File D:\git\src\IBK\IBK_DRFN\ProjSrc\SrcChartEx\ChartAddIn\ChartAnalysisToolAddIn\AnalysisTool\AnalysisData.cpp
;	COMDAT ?GetDrawingRegions@CSelectedElementDrawingData@@QBEPAVCDrawingRegions@@XZ
_TEXT	SEGMENT
?GetDrawingRegions@CSelectedElementDrawingData@@QBEPAVCDrawingRegions@@XZ PROC ; CSelectedElementDrawingData::GetDrawingRegions, COMDAT
; _this$ = ecx

; 1198 : 	return m_pDrawingRegions;

  00000	8b 41 04	 mov	 eax, DWORD PTR [ecx+4]

; 1199 : }

  00003	c3		 ret	 0
?GetDrawingRegions@CSelectedElementDrawingData@@QBEPAVCDrawingRegions@@XZ ENDP ; CSelectedElementDrawingData::GetDrawingRegions
_TEXT	ENDS
; Function compile flags: /Ogtp
; File D:\git\src\IBK\IBK_DRFN\ProjSrc\SrcChartEx\ChartAddIn\ChartAnalysisToolAddIn\AnalysisTool\AnalysisData.cpp
;	COMDAT ?GetDrawingRegions@CSelectedElementDrawingData@@QAEPAVCDrawingRegions@@XZ
_TEXT	SEGMENT
?GetDrawingRegions@CSelectedElementDrawingData@@QAEPAVCDrawingRegions@@XZ PROC ; CSelectedElementDrawingData::GetDrawingRegions, COMDAT
; _this$ = ecx

; 1193 : 	return m_pDrawingRegions;

  00000	8b 41 04	 mov	 eax, DWORD PTR [ecx+4]

; 1194 : }

  00003	c3		 ret	 0
?GetDrawingRegions@CSelectedElementDrawingData@@QAEPAVCDrawingRegions@@XZ ENDP ; CSelectedElementDrawingData::GetDrawingRegions
_TEXT	ENDS
; Function compile flags: /Ogtp
; File D:\git\src\IBK\IBK_DRFN\ProjSrc\SrcChartEx\ChartAddIn\ChartAnalysisToolAddIn\AnalysisTool\AnalysisData.cpp
;	COMDAT ?GetModifyType@CSelectedElementDrawingData@@QBE?AW4ModifyType@CToolEnumData@@XZ
_TEXT	SEGMENT
?GetModifyType@CSelectedElementDrawingData@@QBE?AW4ModifyType@CToolEnumData@@XZ PROC ; CSelectedElementDrawingData::GetModifyType, COMDAT
; _this$ = ecx

; 1188 : 	return m_eModifyType;

  00000	8b 01		 mov	 eax, DWORD PTR [ecx]

; 1189 : }

  00002	c3		 ret	 0
?GetModifyType@CSelectedElementDrawingData@@QBE?AW4ModifyType@CToolEnumData@@XZ ENDP ; CSelectedElementDrawingData::GetModifyType
_TEXT	ENDS
; Function compile flags: /Ogtp
; File D:\git\src\IBK\IBK_DRFN\ProjSrc\SrcChartEx\ChartAddIn\ChartAnalysisToolAddIn\AnalysisTool\AnalysisData.cpp
;	COMDAT ??0CSelectedElementDrawingData@@QAE@W4ModifyType@CToolEnumData@@PAVCDrawingRegions@@ABVCCoordinateCalculatorData@@ABVCPoints@@@Z
_TEXT	SEGMENT
_this$ = -16						; size = 4
__$EHRec$ = -12						; size = 12
_eModifyType$ = 8					; size = 4
_pDrawingRegions$ = 12					; size = 4
_calData$ = 16						; size = 4
_points$ = 20						; size = 4
??0CSelectedElementDrawingData@@QAE@W4ModifyType@CToolEnumData@@PAVCDrawingRegions@@ABVCCoordinateCalculatorData@@ABVCPoints@@@Z PROC ; CSelectedElementDrawingData::CSelectedElementDrawingData, COMDAT
; _this$ = ecx

; 1181 : {

  00000	55		 push	 ebp
  00001	8b ec		 mov	 ebp, esp
  00003	6a ff		 push	 -1
  00005	68 00 00 00 00	 push	 __ehhandler$??0CSelectedElementDrawingData@@QAE@W4ModifyType@CToolEnumData@@PAVCDrawingRegions@@ABVCCoordinateCalculatorData@@ABVCPoints@@@Z
  0000a	64 a1 00 00 00
	00		 mov	 eax, DWORD PTR fs:0
  00010	50		 push	 eax
  00011	51		 push	 ecx
  00012	57		 push	 edi
  00013	a1 00 00 00 00	 mov	 eax, DWORD PTR ___security_cookie
  00018	33 c5		 xor	 eax, ebp
  0001a	50		 push	 eax
  0001b	8d 45 f4	 lea	 eax, DWORD PTR __$EHRec$[ebp]
  0001e	64 a3 00 00 00
	00		 mov	 DWORD PTR fs:0, eax
  00024	8b f9		 mov	 edi, ecx
  00026	89 7d f0	 mov	 DWORD PTR _this$[ebp], edi

; 1176 : 	m_eModifyType(eModifyType),

  00029	8b 45 08	 mov	 eax, DWORD PTR _eModifyType$[ebp]

; 1177 : 	m_pDrawingRegions(pDrawingRegions),
; 1178 : 	m_calData(calData),

  0002c	8d 4f 08	 lea	 ecx, DWORD PTR [edi+8]
  0002f	ff 75 10	 push	 DWORD PTR _calData$[ebp]
  00032	89 07		 mov	 DWORD PTR [edi], eax
  00034	8b 45 0c	 mov	 eax, DWORD PTR _pDrawingRegions$[ebp]
  00037	89 47 04	 mov	 DWORD PTR [edi+4], eax
  0003a	e8 00 00 00 00	 call	 ??0CCoordinateCalculatorData@@QAE@ABV0@@Z ; CCoordinateCalculatorData::CCoordinateCalculatorData

; 1179 : 	m_point(points.GetDrawingPoint()),

  0003f	8b 4d 14	 mov	 ecx, DWORD PTR _points$[ebp]
  00042	8d 47 68	 lea	 eax, DWORD PTR [edi+104]
  00045	50		 push	 eax
  00046	c7 45 fc 00 00
	00 00		 mov	 DWORD PTR __$EHRec$[ebp+8], 0
  0004d	e8 00 00 00 00	 call	 ?GetDrawingPoint@CPoints@@QBE?AVCPoint@@XZ ; CPoints::GetDrawingPoint

; 1180 : 	m_coordinate(points.GetSavingPoint())

  00052	8b 4d 14	 mov	 ecx, DWORD PTR _points$[ebp]
  00055	8d 47 70	 lea	 eax, DWORD PTR [edi+112]
  00058	50		 push	 eax
  00059	e8 00 00 00 00	 call	 ?GetSavingPoint@CPoints@@QBE?AVCCoordinate@@XZ ; CPoints::GetSavingPoint

; 1182 : 	
; 1183 : }

  0005e	8b c7		 mov	 eax, edi
  00060	8b 4d f4	 mov	 ecx, DWORD PTR __$EHRec$[ebp]
  00063	64 89 0d 00 00
	00 00		 mov	 DWORD PTR fs:0, ecx
  0006a	59		 pop	 ecx
  0006b	5f		 pop	 edi
  0006c	8b e5		 mov	 esp, ebp
  0006e	5d		 pop	 ebp
  0006f	c2 10 00	 ret	 16			; 00000010H
_TEXT	ENDS
;	COMDAT text$x
text$x	SEGMENT
__unwindfunclet$??0CSelectedElementDrawingData@@QAE@W4ModifyType@CToolEnumData@@PAVCDrawingRegions@@ABVCCoordinateCalculatorData@@ABVCPoints@@@Z$0:
  00000	8b 4d f0	 mov	 ecx, DWORD PTR _this$[ebp]
  00003	83 c1 08	 add	 ecx, 8
  00006	e9 00 00 00 00	 jmp	 ??1CCoordinateCalculatorData@@QAE@XZ ; CCoordinateCalculatorData::~CCoordinateCalculatorData
  0000b	cc		 int	 3
  0000c	cc		 int	 3
  0000d	cc		 int	 3
  0000e	cc		 int	 3
  0000f	cc		 int	 3
__ehhandler$??0CSelectedElementDrawingData@@QAE@W4ModifyType@CToolEnumData@@PAVCDrawingRegions@@ABVCCoordinateCalculatorData@@ABVCPoints@@@Z:
  00010	90		 npad	 1
  00011	90		 npad	 1
  00012	8b 54 24 08	 mov	 edx, DWORD PTR [esp+8]
  00016	8d 42 0c	 lea	 eax, DWORD PTR [edx+12]
  00019	8b 4a f4	 mov	 ecx, DWORD PTR [edx-12]
  0001c	33 c8		 xor	 ecx, eax
  0001e	e8 00 00 00 00	 call	 @__security_check_cookie@4
  00023	b8 00 00 00 00	 mov	 eax, OFFSET __ehfuncinfo$??0CSelectedElementDrawingData@@QAE@W4ModifyType@CToolEnumData@@PAVCDrawingRegions@@ABVCCoordinateCalculatorData@@ABVCPoints@@@Z
  00028	e9 00 00 00 00	 jmp	 ___CxxFrameHandler3
text$x	ENDS
??0CSelectedElementDrawingData@@QAE@W4ModifyType@CToolEnumData@@PAVCDrawingRegions@@ABVCCoordinateCalculatorData@@ABVCPoints@@@Z ENDP ; CSelectedElementDrawingData::CSelectedElementDrawingData
; Function compile flags: /Ogtp
; File D:\git\src\IBK\IBK_DRFN\ProjSrc\SrcChartEx\ChartAddIn\ChartAnalysisToolAddIn\AnalysisTool\AnalysisData.cpp
;	COMDAT ??4CSelectedElementDrawingData@@QAEAAV0@ABV0@@Z
_TEXT	SEGMENT
$T2 = -52						; size = 32
$T3 = -20						; size = 8
__$EHRec$ = -12						; size = 12
_selectedDrawingData$ = 8				; size = 4
??4CSelectedElementDrawingData@@QAEAAV0@ABV0@@Z PROC	; CSelectedElementDrawingData::operator=, COMDAT
; _this$ = ecx

; 1162 : {

  00000	55		 push	 ebp
  00001	8b ec		 mov	 ebp, esp
  00003	6a ff		 push	 -1
  00005	68 00 00 00 00	 push	 __ehhandler$??4CSelectedElementDrawingData@@QAEAAV0@ABV0@@Z
  0000a	64 a1 00 00 00
	00		 mov	 eax, DWORD PTR fs:0
  00010	50		 push	 eax
  00011	83 ec 28	 sub	 esp, 40			; 00000028H
  00014	56		 push	 esi
  00015	57		 push	 edi
  00016	a1 00 00 00 00	 mov	 eax, DWORD PTR ___security_cookie
  0001b	33 c5		 xor	 eax, ebp
  0001d	50		 push	 eax
  0001e	8d 45 f4	 lea	 eax, DWORD PTR __$EHRec$[ebp]
  00021	64 a3 00 00 00
	00		 mov	 DWORD PTR fs:0, eax
  00027	8b f1		 mov	 esi, ecx

; 1163 : 	if(this == &selectedDrawingData)

  00029	8b 7d 08	 mov	 edi, DWORD PTR _selectedDrawingData$[ebp]
  0002c	3b f7		 cmp	 esi, edi
  0002e	74 56		 je	 SHORT $LN13@operator

; 1164 : 		return *this;
; 1165 : 
; 1166 : 	m_eModifyType = selectedDrawingData.GetModifyType();

  00030	8b 07		 mov	 eax, DWORD PTR [edi]

; 1167 : 	m_pDrawingRegions = selectedDrawingData.GetDrawingRegions();
; 1168 : 	m_calData = selectedDrawingData.GetCoordinateCalculatorData();

  00032	8d 4e 08	 lea	 ecx, DWORD PTR [esi+8]
  00035	89 06		 mov	 DWORD PTR [esi], eax
  00037	8b 47 04	 mov	 eax, DWORD PTR [edi+4]
  0003a	89 46 04	 mov	 DWORD PTR [esi+4], eax
  0003d	8d 47 08	 lea	 eax, DWORD PTR [edi+8]
  00040	50		 push	 eax
  00041	e8 00 00 00 00	 call	 ??4CCoordinateCalculatorData@@QAEAAV0@ABV0@@Z ; CCoordinateCalculatorData::operator=

; 1208 : 	return m_point;

  00046	8b 47 68	 mov	 eax, DWORD PTR [edi+104]
  00049	8b 4f 6c	 mov	 ecx, DWORD PTR [edi+108]

; 1169 : 	m_point = selectedDrawingData.GetPoint();

  0004c	89 46 68	 mov	 DWORD PTR [esi+104], eax
  0004f	89 4e 6c	 mov	 DWORD PTR [esi+108], ecx

; 1208 : 	return m_point;

  00052	8b 47 68	 mov	 eax, DWORD PTR [edi+104]
  00055	8b 4f 6c	 mov	 ecx, DWORD PTR [edi+108]
  00058	89 45 ec	 mov	 DWORD PTR $T3[ebp], eax

; 1170 : 	m_coordinate = selectedDrawingData.GetPoint();

  0005b	8d 45 ec	 lea	 eax, DWORD PTR $T3[ebp]

; 1208 : 	return m_point;

  0005e	89 4d f0	 mov	 DWORD PTR $T3[ebp+4], ecx

; 1170 : 	m_coordinate = selectedDrawingData.GetPoint();

  00061	8d 4d cc	 lea	 ecx, DWORD PTR $T2[ebp]
  00064	50		 push	 eax
  00065	e8 00 00 00 00	 call	 ??0CCoordinate@@QAE@ABVCPoint@@@Z ; CCoordinate::CCoordinate
  0006a	8d 45 cc	 lea	 eax, DWORD PTR $T2[ebp]
  0006d	c7 45 fc 00 00
	00 00		 mov	 DWORD PTR __$EHRec$[ebp+8], 0
  00074	50		 push	 eax
  00075	8d 4e 70	 lea	 ecx, DWORD PTR [esi+112]
  00078	e8 00 00 00 00	 call	 ??4CCoordinate@@QAEAAV0@ABV0@@Z ; CCoordinate::operator=
  0007d	8d 4d e0	 lea	 ecx, DWORD PTR $T2[ebp+20]
  00080	ff 15 00 00 00
	00		 call	 DWORD PTR __imp_??1?$CStringT@DV?$StrTraitMFC_DLL@DV?$ChTraitsCRT@D@ATL@@@@@ATL@@QAE@XZ
$LN13@operator:

; 1171 : 	return *this;
; 1172 : }

  00086	8b c6		 mov	 eax, esi
  00088	8b 4d f4	 mov	 ecx, DWORD PTR __$EHRec$[ebp]
  0008b	64 89 0d 00 00
	00 00		 mov	 DWORD PTR fs:0, ecx
  00092	59		 pop	 ecx
  00093	5f		 pop	 edi
  00094	5e		 pop	 esi
  00095	8b e5		 mov	 esp, ebp
  00097	5d		 pop	 ebp
  00098	c2 04 00	 ret	 4
_TEXT	ENDS
;	COMDAT text$x
text$x	SEGMENT
__unwindfunclet$??4CSelectedElementDrawingData@@QAEAAV0@ABV0@@Z$0:
  00000	8d 4d cc	 lea	 ecx, DWORD PTR $T2[ebp]
  00003	e9 00 00 00 00	 jmp	 ??1CCoordinate@@QAE@XZ
  00008	cc		 int	 3
  00009	cc		 int	 3
  0000a	cc		 int	 3
  0000b	cc		 int	 3
  0000c	cc		 int	 3
__ehhandler$??4CSelectedElementDrawingData@@QAEAAV0@ABV0@@Z:
  0000d	90		 npad	 1
  0000e	90		 npad	 1
  0000f	8b 54 24 08	 mov	 edx, DWORD PTR [esp+8]
  00013	8d 42 0c	 lea	 eax, DWORD PTR [edx+12]
  00016	8b 4a cc	 mov	 ecx, DWORD PTR [edx-52]
  00019	33 c8		 xor	 ecx, eax
  0001b	e8 00 00 00 00	 call	 @__security_check_cookie@4
  00020	b8 00 00 00 00	 mov	 eax, OFFSET __ehfuncinfo$??4CSelectedElementDrawingData@@QAEAAV0@ABV0@@Z
  00025	e9 00 00 00 00	 jmp	 ___CxxFrameHandler3
text$x	ENDS
??4CSelectedElementDrawingData@@QAEAAV0@ABV0@@Z ENDP	; CSelectedElementDrawingData::operator=
; Function compile flags: /Ogtp
; File D:\git\src\IBK\IBK_DRFN\ProjSrc\SrcChartEx\ChartAddIn\ChartAnalysisToolAddIn\AnalysisTool\AnalysisData.cpp
; File D:\git\src\IBK\IBK_DRFN\ProjSrc\SrcChartEx\ChartAddIn\ChartAnalysisToolAddIn\Include_AddIn_133101\I133101\_IString.h
; File D:\git\src\IBK\IBK_DRFN\ProjSrc\SrcChartEx\ChartAddIn\ChartAnalysisToolAddIn\AnalysisTool\AnalysisData.cpp
; File D:\git\src\IBK\IBK_DRFN\ProjSrc\SrcChartEx\ChartAddIn\ChartAnalysisToolAddIn\Include_AddIn_133101\I133101\_IString.h
; File D:\git\src\IBK\IBK_DRFN\ProjSrc\SrcChartEx\ChartAddIn\ChartAnalysisToolAddIn\AnalysisTool\AnalysisData.cpp
; File C:\Program Files (x86)\Microsoft Visual Studio\2019\Community\VC\Tools\MSVC\14.29.30133\atlmfc\include\cstringt.h
; File D:\git\src\IBK\IBK_DRFN\ProjSrc\SrcChartEx\ChartAddIn\ChartAnalysisToolAddIn\AnalysisTool\AnalysisData.cpp
; File C:\Program Files (x86)\Microsoft Visual Studio\2019\Community\VC\Tools\MSVC\14.29.30133\atlmfc\include\cstringt.h
; File D:\git\src\IBK\IBK_DRFN\ProjSrc\SrcChartEx\ChartAddIn\ChartAnalysisToolAddIn\AnalysisTool\AnalysisData.cpp
; File D:\git\src\IBK\IBK_DRFN\ProjSrc\SrcChartEx\ChartAddIn\ChartAnalysisToolAddIn\Include_AddIn_133101\I133101\_IString.h
; File D:\git\src\IBK\IBK_DRFN\ProjSrc\SrcChartEx\ChartAddIn\ChartAnalysisToolAddIn\AnalysisTool\AnalysisData.cpp
;	COMDAT ?GetModifyPoint_Center@CElementModifyData@@ABE?AVCCoordinate@@ABV2@@Z
_TEXT	SEGMENT
tv852 = -84						; size = 8
tv752 = -84						; size = 8
tv751 = -84						; size = 8
_szPacketType$ = -84					; size = 8
$T2 = -84						; size = 8
$T3 = -84						; size = 8
$T4 = -84						; size = 8
$T5 = -84						; size = 8
$T6 = -84						; size = 8
$T7 = -84						; size = 8
_dModifyData$ = -76					; size = 8
_szMainRQ$ = -68					; size = 8
$T8 = -68						; size = 8
tv727 = -60						; size = 4
$T9 = -60						; size = 4
tv750 = -56						; size = 8
$T10 = -56						; size = 8
$T11 = -52						; size = 4
$T12 = -52						; size = 4
$T13 = -52						; size = 4
_nBlockColumn$14 = -52					; size = 4
$T15 = -52						; size = 4
tv850 = -48						; size = 8
$T16 = -48						; size = 8
$T17 = -44						; size = 4
$T18 = -44						; size = 4
$T19 = -44						; size = 4
$T20 = -40						; size = 8
_eDateUnit$1$ = -36					; size = 4
$T21 = -36						; size = 4
$T22 = -36						; size = 4
$T23 = -36						; size = 4
_nCenter_x$ = -32					; size = 4
_strType$ = -28						; size = 4
_nOrgXPos$1$ = -24					; size = 4
tv550 = -24						; size = 4
_strOrg$24 = -24					; size = 4
_this$1$ = -20						; size = 4
_strMod$25 = -20					; size = 4
_strNew$26 = -16					; size = 4
__$EHRec$ = -12						; size = 12
___$ReturnUdt$ = 8					; size = 4
_orgPoint$ = 12						; size = 4
?GetModifyPoint_Center@CElementModifyData@@ABE?AVCCoordinate@@ABV2@@Z PROC ; CElementModifyData::GetModifyPoint_Center, COMDAT
; _this$ = ecx

; 1017 : {

  00000	55		 push	 ebp
  00001	8b ec		 mov	 ebp, esp
  00003	6a ff		 push	 -1
  00005	68 00 00 00 00	 push	 __ehhandler$?GetModifyPoint_Center@CElementModifyData@@ABE?AVCCoordinate@@ABV2@@Z
  0000a	64 a1 00 00 00
	00		 mov	 eax, DWORD PTR fs:0
  00010	50		 push	 eax
  00011	83 ec 48	 sub	 esp, 72			; 00000048H
  00014	53		 push	 ebx
  00015	56		 push	 esi
  00016	57		 push	 edi
  00017	a1 00 00 00 00	 mov	 eax, DWORD PTR ___security_cookie
  0001c	33 c5		 xor	 eax, ebp
  0001e	50		 push	 eax
  0001f	8d 45 f4	 lea	 eax, DWORD PTR __$EHRec$[ebp]
  00022	64 a3 00 00 00
	00		 mov	 DWORD PTR fs:0, eax
  00028	8b f9		 mov	 edi, ecx
  0002a	89 7d ec	 mov	 DWORD PTR _this$1$[ebp], edi

; 1018 : //	if(m_pIPacket_x == NULL || m_pIPacket_x->GetDataCount() <= 0)
; 1019 : //		return CCoordinate(orgPoint.GetX() + m_modifyPoint.GetX(), 
; 1020 : //			orgPoint.GetY() + m_modifyPoint.GetY(), 0);
; 1021 : //
; 1022 : //	double dXDate = m_pIPacket_x->GetIndexFromData(orgPoint.GetX());
; 1023 : //	int nIndex(dXDate + m_modifyPoint.GetX());
; 1024 : //	//SetIndex(nIndex); 
; 1025 : //	double dModifyData = 0.0;
; 1026 : //	m_pIPacket_x->GetDataPastandFuture(nIndex,dModifyData);
; 1027 : //	//if(dModifyData == 0)
; 1028 : //		//return orgPoint;
; 1029 : //	
; 1030 : //	return CCoordinate(dModifyData, orgPoint.GetY() + m_modifyPoint.GetY(), nIndex);
; 1031 : 
; 1032 : 	// XScale :  Interface  - vntsorl(20070410)
; 1033 : 	if( !m_pIChartManager)

  0002d	83 7f 28 00	 cmp	 DWORD PTR [edi+40], 0
  00031	75 0d		 jne	 SHORT $LN4@GetModifyP

; 1034 : 		return CCoordinate();

  00033	8b 4d 08	 mov	 ecx, DWORD PTR ___$ReturnUdt$[ebp]
  00036	e8 00 00 00 00	 call	 ??0CCoordinate@@QAE@XZ	; CCoordinate::CCoordinate
  0003b	e9 2d 04 00 00	 jmp	 $LN78@GetModifyP
$LN4@GetModifyP:

; 1035 : 
; 1036 : 	if(m_pIPacket_x == NULL || m_pIPacket_x->GetDataCount() <= 0)

  00040	8b 4f 04	 mov	 ecx, DWORD PTR [edi+4]
  00043	85 c9		 test	 ecx, ecx
  00045	0f 84 b9 03 00
	00		 je	 $LN6@GetModifyP
  0004b	8b 01		 mov	 eax, DWORD PTR [ecx]
  0004d	ff 50 2c	 call	 DWORD PTR [eax+44]
  00050	85 c0		 test	 eax, eax
  00052	0f 8e ac 03 00
	00		 jle	 $LN6@GetModifyP

; 1135 : 	return m_blockIndex;

  00058	8b 47 2c	 mov	 eax, DWORD PTR [edi+44]

; 1038 : 		//    - ojtaso (20080811)
; 1039 : 		//orgPoint.GetY() + m_modifyPoint.GetY(), 0);
; 1040 : 		// 20081007 JS.Kim	 
; 1041 : 		//orgPoint.GetY() + m_modifyPoint.GetY(), m_modifyPoint.GetDateType(), 0);
; 1042 : 		orgPoint.GetY() + m_modifyPoint.GetY(), m_modifyPoint.GetTimeDiff(), m_modifyPoint.GetDateType(), 0);
; 1043 : 	
; 1044 : 	int nCenter_x;
; 1045 : 	int nOrgXPos = m_pIChartManager->GetXFromDouble(GetBlockIndex().GetRow(), GetBlockIndex().GetColumn(), orgPoint.GetX(), nCenter_x);

  0005b	8b 77 28	 mov	 esi, DWORD PTR [edi+40]

; 1135 : 	return m_blockIndex;

  0005e	8b 5f 30	 mov	 ebx, DWORD PTR [edi+48]

; 1038 : 		//    - ojtaso (20080811)
; 1039 : 		//orgPoint.GetY() + m_modifyPoint.GetY(), 0);
; 1040 : 		// 20081007 JS.Kim	 
; 1041 : 		//orgPoint.GetY() + m_modifyPoint.GetY(), m_modifyPoint.GetDateType(), 0);
; 1042 : 		orgPoint.GetY() + m_modifyPoint.GetY(), m_modifyPoint.GetTimeDiff(), m_modifyPoint.GetDateType(), 0);
; 1043 : 	
; 1044 : 	int nCenter_x;
; 1045 : 	int nOrgXPos = m_pIChartManager->GetXFromDouble(GetBlockIndex().GetRow(), GetBlockIndex().GetColumn(), orgPoint.GetX(), nCenter_x);

  00061	8b 4d 0c	 mov	 ecx, DWORD PTR _orgPoint$[ebp]

; 1135 : 	return m_blockIndex;

  00064	89 45 e8	 mov	 DWORD PTR tv550[ebp], eax

; 1038 : 		//    - ojtaso (20080811)
; 1039 : 		//orgPoint.GetY() + m_modifyPoint.GetY(), 0);
; 1040 : 		// 20081007 JS.Kim	 
; 1041 : 		//orgPoint.GetY() + m_modifyPoint.GetY(), m_modifyPoint.GetDateType(), 0);
; 1042 : 		orgPoint.GetY() + m_modifyPoint.GetY(), m_modifyPoint.GetTimeDiff(), m_modifyPoint.GetDateType(), 0);
; 1043 : 	
; 1044 : 	int nCenter_x;
; 1045 : 	int nOrgXPos = m_pIChartManager->GetXFromDouble(GetBlockIndex().GetRow(), GetBlockIndex().GetColumn(), orgPoint.GetX(), nCenter_x);

  00067	8b 3e		 mov	 edi, DWORD PTR [esi]

; 1135 : 	return m_blockIndex;

  00069	89 45 ac	 mov	 DWORD PTR $T7[ebp], eax

; 1038 : 		//    - ojtaso (20080811)
; 1039 : 		//orgPoint.GetY() + m_modifyPoint.GetY(), 0);
; 1040 : 		// 20081007 JS.Kim	 
; 1041 : 		//orgPoint.GetY() + m_modifyPoint.GetY(), m_modifyPoint.GetDateType(), 0);
; 1042 : 		orgPoint.GetY() + m_modifyPoint.GetY(), m_modifyPoint.GetTimeDiff(), m_modifyPoint.GetDateType(), 0);
; 1043 : 	
; 1044 : 	int nCenter_x;
; 1045 : 	int nOrgXPos = m_pIChartManager->GetXFromDouble(GetBlockIndex().GetRow(), GetBlockIndex().GetColumn(), orgPoint.GetX(), nCenter_x);

  0006c	8d 45 e0	 lea	 eax, DWORD PTR _nCenter_x$[ebp]
  0006f	50		 push	 eax
  00070	e8 00 00 00 00	 call	 ?GetX@CCoordinate@@QBENXZ ; CCoordinate::GetX
  00075	83 ec 08	 sub	 esp, 8
  00078	8b ce		 mov	 ecx, esi
  0007a	dd 1c 24	 fstp	 QWORD PTR [esp]
  0007d	53		 push	 ebx
  0007e	ff 75 e8	 push	 DWORD PTR tv550[ebp]
  00081	ff 97 14 01 00
	00		 call	 DWORD PTR [edi+276]

; 1135 : 	return m_blockIndex;

  00087	8b 5d ec	 mov	 ebx, DWORD PTR _this$1$[ebp]

; 1038 : 		//    - ojtaso (20080811)
; 1039 : 		//orgPoint.GetY() + m_modifyPoint.GetY(), 0);
; 1040 : 		// 20081007 JS.Kim	 
; 1041 : 		//orgPoint.GetY() + m_modifyPoint.GetY(), m_modifyPoint.GetDateType(), 0);
; 1042 : 		orgPoint.GetY() + m_modifyPoint.GetY(), m_modifyPoint.GetTimeDiff(), m_modifyPoint.GetDateType(), 0);
; 1043 : 	
; 1044 : 	int nCenter_x;
; 1045 : 	int nOrgXPos = m_pIChartManager->GetXFromDouble(GetBlockIndex().GetRow(), GetBlockIndex().GetColumn(), orgPoint.GetX(), nCenter_x);

  0008a	89 45 e8	 mov	 DWORD PTR _nOrgXPos$1$[ebp], eax

; 1048 : 	ILPCSTR szMainRQ = m_pIChartManager->GetMainRQofBlock( GetBlockIndex().GetRow(), GetBlockIndex().GetColumn());

  0008d	8b 4b 28	 mov	 ecx, DWORD PTR [ebx+40]
  00090	ff 73 30	 push	 DWORD PTR [ebx+48]

; 1135 : 	return m_blockIndex;

  00093	8b 53 2c	 mov	 edx, DWORD PTR [ebx+44]

; 1048 : 	ILPCSTR szMainRQ = m_pIChartManager->GetMainRQofBlock( GetBlockIndex().GetRow(), GetBlockIndex().GetColumn());

  00096	52		 push	 edx
  00097	8b 01		 mov	 eax, DWORD PTR [ecx]

; 1135 : 	return m_blockIndex;

  00099	89 55 ac	 mov	 DWORD PTR $T6[ebp], edx

; 1048 : 	ILPCSTR szMainRQ = m_pIChartManager->GetMainRQofBlock( GetBlockIndex().GetRow(), GetBlockIndex().GetColumn());

  0009c	ff 90 30 01 00
	00		 call	 DWORD PTR [eax+304]
; File D:\git\src\IBK\IBK_DRFN\ProjSrc\SrcChartEx\ChartAddIn\ChartAnalysisToolAddIn\Include_AddIn_133101\I133101\_IString.h

; 39   : 		m_pIStrData = p_pIString;	// Do not AddRef(). Because It must be Return Value.

  000a2	8b f0		 mov	 esi, eax
  000a4	89 75 c0	 mov	 DWORD PTR _szMainRQ$[ebp+4], esi

; 40   : 		if( m_pIStrData) m_szData = m_pIStrData->GetData();

  000a7	85 f6		 test	 esi, esi
  000a9	74 0b		 je	 SHORT $LN46@GetModifyP
  000ab	8b 16		 mov	 edx, DWORD PTR [esi]
  000ad	8b ce		 mov	 ecx, esi
  000af	ff 52 10	 call	 DWORD PTR [edx+16]
  000b2	8b f8		 mov	 edi, eax
  000b4	eb 02		 jmp	 SHORT $LN79@GetModifyP
$LN46@GetModifyP:

; 41   : 		else m_szData = NULL;

  000b6	33 ff		 xor	 edi, edi
$LN79@GetModifyP:
; File D:\git\src\IBK\IBK_DRFN\ProjSrc\SrcChartEx\ChartAddIn\ChartAnalysisToolAddIn\AnalysisTool\AnalysisData.cpp

; 1048 : 	ILPCSTR szMainRQ = m_pIChartManager->GetMainRQofBlock( GetBlockIndex().GetRow(), GetBlockIndex().GetColumn());

  000b8	89 7d bc	 mov	 DWORD PTR _szMainRQ$[ebp], edi

; 1049 : 
; 1050 : 	// (2008/8/12 - Seung-Won, Bae) Do not move to outside as future.
; 1051 : 	int nNewXPos = nOrgXPos + m_modifyPoint.GetX();

  000bb	8d 43 08	 lea	 eax, DWORD PTR [ebx+8]
  000be	c7 45 fc 01 00
	00 00		 mov	 DWORD PTR __$EHRec$[ebp+8], 1
  000c5	8b c8		 mov	 ecx, eax
  000c7	89 45 c4	 mov	 DWORD PTR tv727[ebp], eax
  000ca	e8 00 00 00 00	 call	 ?GetX@CCoordinate@@QBENXZ ; CCoordinate::GetX
  000cf	66 0f 6e 45 e8	 movd	 xmm0, DWORD PTR _nOrgXPos$1$[ebp]

; 1053 : 	int nDTI = m_pIChartManager->FindViewDataIndex_Pt( szMainRQ, nNewXPos, GetBlockIndex().GetColumn(), TRUE);

  000d4	8b 4b 28	 mov	 ecx, DWORD PTR [ebx+40]

; 1135 : 	return m_blockIndex;

  000d7	8b 43 2c	 mov	 eax, DWORD PTR [ebx+44]

; 1049 : 
; 1050 : 	// (2008/8/12 - Seung-Won, Bae) Do not move to outside as future.
; 1051 : 	int nNewXPos = nOrgXPos + m_modifyPoint.GetX();

  000da	f3 0f e6 c0	 cvtdq2pd xmm0, xmm0

; 1053 : 	int nDTI = m_pIChartManager->FindViewDataIndex_Pt( szMainRQ, nNewXPos, GetBlockIndex().GetColumn(), TRUE);

  000de	6a 01		 push	 1
  000e0	ff 73 30	 push	 DWORD PTR [ebx+48]
  000e3	f2 0f 11 45 ac	 movsd	 QWORD PTR tv852[ebp], xmm0
  000e8	0f 57 c0	 xorps	 xmm0, xmm0
  000eb	dc 45 ac	 fadd	 QWORD PTR tv852[ebp]

; 1135 : 	return m_blockIndex;

  000ee	89 45 ac	 mov	 DWORD PTR $T5[ebp], eax

; 1052 : 	double dModifyData = 0.0;

  000f1	f2 0f 11 45 b4	 movsd	 QWORD PTR _dModifyData$[ebp], xmm0

; 1053 : 	int nDTI = m_pIChartManager->FindViewDataIndex_Pt( szMainRQ, nNewXPos, GetBlockIndex().GetColumn(), TRUE);

  000f6	8b 01		 mov	 eax, DWORD PTR [ecx]
  000f8	dd 5d d0	 fstp	 QWORD PTR tv850[ebp]
  000fb	f2 0f 2c 55 d0	 cvttsd2si edx, QWORD PTR tv850[ebp]
  00100	52		 push	 edx
  00101	57		 push	 edi
  00102	ff 90 04 01 00
	00		 call	 DWORD PTR [eax+260]
  00108	8b 4b 28	 mov	 ecx, DWORD PTR [ebx+40]

; 1054 : 	if( 0 <= nDTI)

  0010b	85 c0		 test	 eax, eax
  0010d	8b 53 2c	 mov	 edx, DWORD PTR [ebx+44]
  00110	89 55 ac	 mov	 DWORD PTR $T4[ebp], edx
  00113	6a 00		 push	 0
  00115	8b 01		 mov	 eax, DWORD PTR [ecx]
  00117	78 1f		 js	 SHORT $LN7@GetModifyP

; 1055 : 	{
; 1056 : 		int nBlockColumn;
; 1057 : 		dModifyData = m_pIChartManager->GetDoubleFromX(GetBlockIndex().GetRow(), GetBlockIndex().GetColumn(), nNewXPos, &nBlockColumn, nCenter_x);

  00119	8b 80 10 01 00
	00		 mov	 eax, DWORD PTR [eax+272]
  0011f	8d 7d e0	 lea	 edi, DWORD PTR _nCenter_x$[ebp]
  00122	57		 push	 edi
  00123	8d 7d cc	 lea	 edi, DWORD PTR _nBlockColumn$14[ebp]
  00126	57		 push	 edi
  00127	f2 0f 2c 7d d0	 cvttsd2si edi, QWORD PTR tv850[ebp]
  0012c	57		 push	 edi
  0012d	ff 73 30	 push	 DWORD PTR [ebx+48]
  00130	52		 push	 edx
  00131	ff d0		 call	 eax
  00133	dd 5d b4	 fstp	 QWORD PTR _dModifyData$[ebp]

; 1058 : 	}

  00136	eb 4c		 jmp	 SHORT $LN8@GetModifyP
$LN7@GetModifyP:

; 1059 : 	// (2008/9/8 - Seung-Won, Bae) Move to bound if moved out.
; 1060 : 	else
; 1061 : 	{
; 1062 : 		nDTI = m_pIChartManager->FindViewDataIndex_Pt( "DEFAULT", nNewXPos, GetBlockIndex().GetColumn());

  00138	f2 0f 2c 7d d0	 cvttsd2si edi, QWORD PTR tv850[ebp]
  0013d	ff 73 30	 push	 DWORD PTR [ebx+48]
  00140	57		 push	 edi
  00141	68 00 00 00 00	 push	 OFFSET ??_C@_07MGCPDNLD@DEFAULT@
  00146	ff 90 04 01 00
	00		 call	 DWORD PTR [eax+260]

; 1135 : 	return m_blockIndex;

  0014c	8b 4b 2c	 mov	 ecx, DWORD PTR [ebx+44]

; 1063 : 		nNewXPos = m_pIChartManager->GetXPosition( "DEFAULT", nDTI, GetBlockIndex().GetColumn());

  0014f	ff 73 30	 push	 DWORD PTR [ebx+48]

; 1135 : 	return m_blockIndex;

  00152	89 4d ac	 mov	 DWORD PTR $T3[ebp], ecx

; 1063 : 		nNewXPos = m_pIChartManager->GetXPosition( "DEFAULT", nDTI, GetBlockIndex().GetColumn());

  00155	8b 4b 28	 mov	 ecx, DWORD PTR [ebx+40]
  00158	50		 push	 eax
  00159	68 00 00 00 00	 push	 OFFSET ??_C@_07MGCPDNLD@DEFAULT@
  0015e	8b 11		 mov	 edx, DWORD PTR [ecx]
  00160	ff 92 e8 00 00
	00		 call	 DWORD PTR [edx+232]

; 1064 : 		CElementModifyData *pThis = ( CElementModifyData *)this;	// force to no const.
; 1065 : 		pThis->m_modifyPoint.SetX( nNewXPos - nOrgXPos, 0);

  00166	2b 45 e8	 sub	 eax, DWORD PTR _nOrgXPos$1$[ebp]
  00169	8d 4b 08	 lea	 ecx, DWORD PTR [ebx+8]
  0016c	6a 00		 push	 0
  0016e	66 0f 6e c0	 movd	 xmm0, eax
  00172	8d 45 ac	 lea	 eax, DWORD PTR $T2[ebp]
  00175	f3 0f e6 c0	 cvtdq2pd xmm0, xmm0
  00179	50		 push	 eax
  0017a	f2 0f 11 45 ac	 movsd	 QWORD PTR $T2[ebp], xmm0
  0017f	e8 00 00 00 00	 call	 ?SetX@CCoordinate@@QAEXABNH@Z ; CCoordinate::SetX
$LN8@GetModifyP:

; 1066 : 	}
; 1067 : 
; 1068 : 
; 1069 : 	// 2011.02.01 by SYS >>  YYYY()  : / 14Byte  (YYYYMMDDhhmmss)
; 1070 : 	//  (dModifyData)      ..
; 1071 : 	// ,    Data   .
; 1072 : 	// )   x  ... ( 14Byte  )
; 1073 : 	//    orgPoint.m_dX	: 20101209200000.000 (YYYYMMDDhhmmss )
; 1074 : 	//    dModifyData		: 20101206000000.000 (YYYYMMDDhhmmss  hhmmss 0 )
; 1075 : 	// ==>>
; 1076 : 	// dModifyData 				: 20101206200000.000 (YYYYMMDDhhmmss  hhmmss   )
; 1077 : 	//
; 1078 : 
; 1079 : 	CScaleBaseData::HORZSCALEDRAWERTYPE eDateUnit = (CScaleBaseData::HORZSCALEDRAWERTYPE)m_pIPacket_x->GetDateUnitType();

  00184	8b 4b 04	 mov	 ecx, DWORD PTR [ebx+4]
  00187	8b 01		 mov	 eax, DWORD PTR [ecx]
  00189	ff 50 28	 call	 DWORD PTR [eax+40]

; 1082 : 	ILPCSTR szPacketType = m_pIPacket_x->GetType();

  0018c	8b 4b 04	 mov	 ecx, DWORD PTR [ebx+4]
  0018f	6a 01		 push	 1
  00191	89 45 dc	 mov	 DWORD PTR _eDateUnit$1$[ebp], eax
  00194	8b 11		 mov	 edx, DWORD PTR [ecx]
  00196	ff 52 1c	 call	 DWORD PTR [edx+28]
; File D:\git\src\IBK\IBK_DRFN\ProjSrc\SrcChartEx\ChartAddIn\ChartAnalysisToolAddIn\Include_AddIn_133101\I133101\_IString.h

; 39   : 		m_pIStrData = p_pIString;	// Do not AddRef(). Because It must be Return Value.

  00199	8b f8		 mov	 edi, eax
  0019b	89 7d b0	 mov	 DWORD PTR _szPacketType$[ebp+4], edi

; 40   : 		if( m_pIStrData) m_szData = m_pIStrData->GetData();

  0019e	85 ff		 test	 edi, edi
  001a0	74 09		 je	 SHORT $LN60@GetModifyP
  001a2	8b 17		 mov	 edx, DWORD PTR [edi]
  001a4	8b cf		 mov	 ecx, edi
  001a6	ff 52 10	 call	 DWORD PTR [edx+16]
  001a9	eb 02		 jmp	 SHORT $LN80@GetModifyP
$LN60@GetModifyP:

; 41   : 		else m_szData = NULL;

  001ab	33 c0		 xor	 eax, eax
$LN80@GetModifyP:
; File D:\git\src\IBK\IBK_DRFN\ProjSrc\SrcChartEx\ChartAddIn\ChartAnalysisToolAddIn\AnalysisTool\AnalysisData.cpp

; 1082 : 	ILPCSTR szPacketType = m_pIPacket_x->GetType();

  001ad	89 45 ac	 mov	 DWORD PTR _szPacketType$[ebp], eax

; 1083 : 	CString strType = szPacketType;

  001b0	50		 push	 eax
  001b1	8d 4d e4	 lea	 ecx, DWORD PTR _strType$[ebp]
  001b4	c6 45 fc 02	 mov	 BYTE PTR __$EHRec$[ebp+8], 2
  001b8	ff 15 00 00 00
	00		 call	 DWORD PTR __imp_??0?$CStringT@DV?$StrTraitMFC_DLL@DV?$ChTraitsCRT@D@ATL@@@@@ATL@@QAE@PBD@Z
; File C:\Program Files (x86)\Microsoft Visual Studio\2019\Community\VC\Tools\MSVC\14.29.30133\atlmfc\include\cstringt.h

; 2486 : 		return(str1.Compare(psz2) == 0);

  001be	68 00 00 00 00	 push	 OFFSET ??_C@_0P@IMPIBBAB@YYYYMMDDHHMMSS@
  001c3	8d 4d e4	 lea	 ecx, DWORD PTR _strType$[ebp]
; File D:\git\src\IBK\IBK_DRFN\ProjSrc\SrcChartEx\ChartAddIn\ChartAnalysisToolAddIn\AnalysisTool\AnalysisData.cpp

; 1083 : 	CString strType = szPacketType;

  001c6	c6 45 fc 03	 mov	 BYTE PTR __$EHRec$[ebp+8], 3
; File C:\Program Files (x86)\Microsoft Visual Studio\2019\Community\VC\Tools\MSVC\14.29.30133\atlmfc\include\cstringt.h

; 2486 : 		return(str1.Compare(psz2) == 0);

  001ca	ff 15 00 00 00
	00		 call	 DWORD PTR __imp_?Compare@?$CStringT@DV?$StrTraitMFC_DLL@DV?$ChTraitsCRT@D@ATL@@@@@ATL@@QBEHPBD@Z
  001d0	85 c0		 test	 eax, eax
; File D:\git\src\IBK\IBK_DRFN\ProjSrc\SrcChartEx\ChartAddIn\ChartAnalysisToolAddIn\AnalysisTool\AnalysisData.cpp

; 1085 : 	if (strType == _T("YYYYMMDDHHMMSS"))

  001d2	0f 85 9e 01 00
	00		 jne	 $LN9@GetModifyP

; 1086 : 	{
; 1087 : 		CString strOrg = CDataConversion::DoubleToString(orgPoint.GetX());

  001d8	8b 4d 0c	 mov	 ecx, DWORD PTR _orgPoint$[ebp]
  001db	e8 00 00 00 00	 call	 ?GetX@CCoordinate@@QBENXZ ; CCoordinate::GetX
  001e0	8d 45 c8	 lea	 eax, DWORD PTR $T10[ebp]
  001e3	50		 push	 eax
  001e4	8d 45 e8	 lea	 eax, DWORD PTR _strOrg$24[ebp]
  001e7	50		 push	 eax
  001e8	dd 5d c8	 fstp	 QWORD PTR $T10[ebp]
  001eb	e8 00 00 00 00	 call	 ?DoubleToString@CDataConversion@@SA?AV?$CStringT@DV?$StrTraitMFC_DLL@DV?$ChTraitsCRT@D@ATL@@@@@ATL@@ABN@Z ; CDataConversion::DoubleToString

; 1088 : 		CString strMod = CDataConversion::DoubleToString(dModifyData);

  001f0	8d 45 b4	 lea	 eax, DWORD PTR _dModifyData$[ebp]
  001f3	c6 45 fc 04	 mov	 BYTE PTR __$EHRec$[ebp+8], 4
  001f7	50		 push	 eax
  001f8	8d 45 ec	 lea	 eax, DWORD PTR _strMod$25[ebp]
  001fb	50		 push	 eax
  001fc	e8 00 00 00 00	 call	 ?DoubleToString@CDataConversion@@SA?AV?$CStringT@DV?$StrTraitMFC_DLL@DV?$ChTraitsCRT@D@ATL@@@@@ATL@@ABN@Z ; CDataConversion::DoubleToString
  00201	83 c4 10	 add	 esp, 16			; 00000010H

; 1089 : 		CString strNew = strMod;

  00204	8d 45 ec	 lea	 eax, DWORD PTR _strMod$25[ebp]
  00207	c6 45 fc 05	 mov	 BYTE PTR __$EHRec$[ebp+8], 5
  0020b	50		 push	 eax
  0020c	8d 4d f0	 lea	 ecx, DWORD PTR _strNew$26[ebp]
  0020f	ff 15 00 00 00
	00		 call	 DWORD PTR __imp_??0?$CStringT@DV?$StrTraitMFC_DLL@DV?$ChTraitsCRT@D@ATL@@@@@ATL@@QAE@ABV01@@Z

; 1090 : 
; 1091 : 		switch(eDateUnit)

  00215	8b 45 dc	 mov	 eax, DWORD PTR _eDateUnit$1$[ebp]
  00218	48		 dec	 eax
  00219	c6 45 fc 06	 mov	 BYTE PTR __$EHRec$[ebp+8], 6
  0021d	83 f8 0b	 cmp	 eax, 11			; 0000000bH
  00220	0f 87 22 01 00
	00		 ja	 $LN2@GetModifyP
  00226	0f b6 80 00 00
	00 00		 movzx	 eax, BYTE PTR $LN75@GetModifyP[eax]
  0022d	ff 24 85 00 00
	00 00		 jmp	 DWORD PTR $LN76@GetModifyP[eax*4]
$LN10@GetModifyP:

; 1092 : 		{
; 1093 : 		case CScaleBaseData::HORZ_DAILY:
; 1094 : 		case CScaleBaseData::HORZ_WEEKLEY:
; 1095 : 			// / :  ,  
; 1096 : 			strNew = strMod.Left(8) + strOrg.Right(6);

  00234	6a 06		 push	 6
  00236	8d 45 cc	 lea	 eax, DWORD PTR $T13[ebp]
  00239	50		 push	 eax
  0023a	8d 4d e8	 lea	 ecx, DWORD PTR _strOrg$24[ebp]
  0023d	ff 15 00 00 00
	00		 call	 DWORD PTR __imp_?Right@?$CStringT@DV?$StrTraitMFC_DLL@DV?$ChTraitsCRT@D@ATL@@@@@ATL@@QBE?AV12@H@Z
  00243	8b f0		 mov	 esi, eax
  00245	6a 08		 push	 8
  00247	8d 45 d4	 lea	 eax, DWORD PTR $T19[ebp]
  0024a	c6 45 fc 07	 mov	 BYTE PTR __$EHRec$[ebp+8], 7
  0024e	50		 push	 eax
  0024f	8d 4d ec	 lea	 ecx, DWORD PTR _strMod$25[ebp]
  00252	ff 15 00 00 00
	00		 call	 DWORD PTR __imp_?Left@?$CStringT@DV?$StrTraitMFC_DLL@DV?$ChTraitsCRT@D@ATL@@@@@ATL@@QBE?AV12@H@Z
  00258	56		 push	 esi
  00259	50		 push	 eax
  0025a	8d 45 dc	 lea	 eax, DWORD PTR $T23[ebp]
  0025d	c6 45 fc 08	 mov	 BYTE PTR __$EHRec$[ebp+8], 8
  00261	50		 push	 eax
  00262	e8 00 00 00 00	 call	 ??HATL@@YA?AV?$CStringT@DV?$StrTraitMFC_DLL@DV?$ChTraitsCRT@D@ATL@@@@@0@ABV10@0@Z ; ATL::operator+
  00267	83 c4 0c	 add	 esp, 12			; 0000000cH
  0026a	50		 push	 eax
  0026b	8d 4d f0	 lea	 ecx, DWORD PTR _strNew$26[ebp]
  0026e	c6 45 fc 09	 mov	 BYTE PTR __$EHRec$[ebp+8], 9
  00272	ff 15 00 00 00
	00		 call	 DWORD PTR __imp_??4?$CStringT@DV?$StrTraitMFC_DLL@DV?$ChTraitsCRT@D@ATL@@@@@ATL@@QAEAAV01@ABV01@@Z
  00278	8d 4d dc	 lea	 ecx, DWORD PTR $T23[ebp]
  0027b	ff 15 00 00 00
	00		 call	 DWORD PTR __imp_??1?$CStringT@DV?$StrTraitMFC_DLL@DV?$ChTraitsCRT@D@ATL@@@@@ATL@@QAE@XZ
  00281	8d 4d d4	 lea	 ecx, DWORD PTR $T19[ebp]
  00284	ff 15 00 00 00
	00		 call	 DWORD PTR __imp_??1?$CStringT@DV?$StrTraitMFC_DLL@DV?$ChTraitsCRT@D@ATL@@@@@ATL@@QAE@XZ
  0028a	8d 4d cc	 lea	 ecx, DWORD PTR $T13[ebp]
  0028d	ff 15 00 00 00
	00		 call	 DWORD PTR __imp_??1?$CStringT@DV?$StrTraitMFC_DLL@DV?$ChTraitsCRT@D@ATL@@@@@ATL@@QAE@XZ

; 1097 : 			break;

  00293	8b 75 c0	 mov	 esi, DWORD PTR _szMainRQ$[ebp+4]
  00296	e9 ad 00 00 00	 jmp	 $LN2@GetModifyP
$LN12@GetModifyP:

; 1098 : 		case CScaleBaseData::HORZ_MONTHLY:		//  
; 1099 : 			//  :  ,  1,  
; 1100 : 			strNew = strMod.Left(8) + strOrg.Right(6);

  0029b	6a 06		 push	 6
  0029d	8d 45 dc	 lea	 eax, DWORD PTR $T22[ebp]
  002a0	50		 push	 eax
  002a1	8d 4d e8	 lea	 ecx, DWORD PTR _strOrg$24[ebp]
  002a4	ff 15 00 00 00
	00		 call	 DWORD PTR __imp_?Right@?$CStringT@DV?$StrTraitMFC_DLL@DV?$ChTraitsCRT@D@ATL@@@@@ATL@@QBE?AV12@H@Z
  002aa	8b f0		 mov	 esi, eax
  002ac	6a 08		 push	 8
  002ae	8d 45 d4	 lea	 eax, DWORD PTR $T18[ebp]
  002b1	c6 45 fc 0a	 mov	 BYTE PTR __$EHRec$[ebp+8], 10 ; 0000000aH
  002b5	50		 push	 eax
  002b6	8d 4d ec	 lea	 ecx, DWORD PTR _strMod$25[ebp]
  002b9	ff 15 00 00 00
	00		 call	 DWORD PTR __imp_?Left@?$CStringT@DV?$StrTraitMFC_DLL@DV?$ChTraitsCRT@D@ATL@@@@@ATL@@QBE?AV12@H@Z
  002bf	56		 push	 esi
  002c0	50		 push	 eax
  002c1	8d 45 cc	 lea	 eax, DWORD PTR $T12[ebp]
  002c4	c6 45 fc 0b	 mov	 BYTE PTR __$EHRec$[ebp+8], 11 ; 0000000bH
  002c8	50		 push	 eax
  002c9	e8 00 00 00 00	 call	 ??HATL@@YA?AV?$CStringT@DV?$StrTraitMFC_DLL@DV?$ChTraitsCRT@D@ATL@@@@@0@ABV10@0@Z ; ATL::operator+
  002ce	83 c4 0c	 add	 esp, 12			; 0000000cH
  002d1	c6 45 fc 0c	 mov	 BYTE PTR __$EHRec$[ebp+8], 12 ; 0000000cH
$LN81@GetModifyP:

; 1111 : 			break;
; 1112 : 		}
; 1113 : 		dModifyData = atof(strNew);

  002d5	50		 push	 eax
  002d6	8d 4d f0	 lea	 ecx, DWORD PTR _strNew$26[ebp]
  002d9	ff 15 00 00 00
	00		 call	 DWORD PTR __imp_??4?$CStringT@DV?$StrTraitMFC_DLL@DV?$ChTraitsCRT@D@ATL@@@@@ATL@@QAEAAV01@ABV01@@Z
  002df	8d 4d cc	 lea	 ecx, DWORD PTR $T12[ebp]
  002e2	ff 15 00 00 00
	00		 call	 DWORD PTR __imp_??1?$CStringT@DV?$StrTraitMFC_DLL@DV?$ChTraitsCRT@D@ATL@@@@@ATL@@QAE@XZ
  002e8	8d 4d d4	 lea	 ecx, DWORD PTR $T18[ebp]
  002eb	ff 15 00 00 00
	00		 call	 DWORD PTR __imp_??1?$CStringT@DV?$StrTraitMFC_DLL@DV?$ChTraitsCRT@D@ATL@@@@@ATL@@QAE@XZ
  002f1	8d 4d dc	 lea	 ecx, DWORD PTR $T22[ebp]
  002f4	ff 15 00 00 00
	00		 call	 DWORD PTR __imp_??1?$CStringT@DV?$StrTraitMFC_DLL@DV?$ChTraitsCRT@D@ATL@@@@@ATL@@QAE@XZ
  002fa	8b 75 c0	 mov	 esi, DWORD PTR _szMainRQ$[ebp+4]
  002fd	eb 49		 jmp	 SHORT $LN2@GetModifyP
$LN13@GetModifyP:

; 1101 : 			break;
; 1102 : 		case CScaleBaseData::HORZ_TIME_ONE:
; 1103 : 		case CScaleBaseData::HORZ_TIME_TWO:
; 1104 : 			//  :  ,  
; 1105 : 			strNew = strMod.Left(12) + strOrg.Right(2);

  002ff	6a 02		 push	 2
  00301	8d 45 dc	 lea	 eax, DWORD PTR $T21[ebp]
  00304	50		 push	 eax
  00305	8d 4d e8	 lea	 ecx, DWORD PTR _strOrg$24[ebp]
  00308	ff 15 00 00 00
	00		 call	 DWORD PTR __imp_?Right@?$CStringT@DV?$StrTraitMFC_DLL@DV?$ChTraitsCRT@D@ATL@@@@@ATL@@QBE?AV12@H@Z
  0030e	8b f0		 mov	 esi, eax
  00310	6a 0c		 push	 12			; 0000000cH
  00312	8d 45 d4	 lea	 eax, DWORD PTR $T17[ebp]
  00315	c6 45 fc 0d	 mov	 BYTE PTR __$EHRec$[ebp+8], 13 ; 0000000dH
  00319	50		 push	 eax
  0031a	8d 4d ec	 lea	 ecx, DWORD PTR _strMod$25[ebp]
  0031d	ff 15 00 00 00
	00		 call	 DWORD PTR __imp_?Left@?$CStringT@DV?$StrTraitMFC_DLL@DV?$ChTraitsCRT@D@ATL@@@@@ATL@@QBE?AV12@H@Z
  00323	56		 push	 esi
  00324	50		 push	 eax
  00325	8d 45 cc	 lea	 eax, DWORD PTR $T11[ebp]
  00328	c6 45 fc 0e	 mov	 BYTE PTR __$EHRec$[ebp+8], 14 ; 0000000eH
  0032c	50		 push	 eax
  0032d	e8 00 00 00 00	 call	 ??HATL@@YA?AV?$CStringT@DV?$StrTraitMFC_DLL@DV?$ChTraitsCRT@D@ATL@@@@@0@ABV10@0@Z ; ATL::operator+
  00332	83 c4 0c	 add	 esp, 12			; 0000000cH
  00335	c6 45 fc 0f	 mov	 BYTE PTR __$EHRec$[ebp+8], 15 ; 0000000fH

; 1106 : 			break;

  00339	eb 9a		 jmp	 SHORT $LN81@GetModifyP
$LN15@GetModifyP:

; 1107 : 		case CScaleBaseData::HORZ_TICK:
; 1108 : 		case CScaleBaseData::HORZ_TIME_SECOND:
; 1109 : 			//  :  
; 1110 : 			strNew = strMod;

  0033b	8d 45 ec	 lea	 eax, DWORD PTR _strMod$25[ebp]
  0033e	50		 push	 eax
  0033f	8d 4d f0	 lea	 ecx, DWORD PTR _strNew$26[ebp]
  00342	ff 15 00 00 00
	00		 call	 DWORD PTR __imp_??4?$CStringT@DV?$StrTraitMFC_DLL@DV?$ChTraitsCRT@D@ATL@@@@@ATL@@QAEAAV01@ABV01@@Z
$LN2@GetModifyP:

; 1111 : 			break;
; 1112 : 		}
; 1113 : 		dModifyData = atof(strNew);

  00348	ff 75 f0	 push	 DWORD PTR _strNew$26[ebp]
  0034b	ff 15 00 00 00
	00		 call	 DWORD PTR __imp__atof
  00351	83 c4 04	 add	 esp, 4

; 1114 : 	}

  00354	8d 4d f0	 lea	 ecx, DWORD PTR _strNew$26[ebp]
  00357	dd 5d b4	 fstp	 QWORD PTR _dModifyData$[ebp]
  0035a	ff 15 00 00 00
	00		 call	 DWORD PTR __imp_??1?$CStringT@DV?$StrTraitMFC_DLL@DV?$ChTraitsCRT@D@ATL@@@@@ATL@@QAE@XZ
  00360	8d 4d ec	 lea	 ecx, DWORD PTR _strMod$25[ebp]
  00363	ff 15 00 00 00
	00		 call	 DWORD PTR __imp_??1?$CStringT@DV?$StrTraitMFC_DLL@DV?$ChTraitsCRT@D@ATL@@@@@ATL@@QAE@XZ
  00369	8d 4d e8	 lea	 ecx, DWORD PTR _strOrg$24[ebp]
  0036c	c6 45 fc 03	 mov	 BYTE PTR __$EHRec$[ebp+8], 3
  00370	ff 15 00 00 00
	00		 call	 DWORD PTR __imp_??1?$CStringT@DV?$StrTraitMFC_DLL@DV?$ChTraitsCRT@D@ATL@@@@@ATL@@QAE@XZ
$LN9@GetModifyP:

; 1118 : 	return CCoordinate(dModifyData, orgPoint.GetY() + m_modifyPoint.GetY(), m_modifyPoint.GetTimeDiff(), m_modifyPoint.GetDateType()/*m_pIPacket_x->GetType()*/, 0);

  00376	8b 5d c4	 mov	 ebx, DWORD PTR tv727[ebp]
  00379	8b cb		 mov	 ecx, ebx
  0037b	e8 00 00 00 00	 call	 ?GetY@CCoordinate@@QBENXZ ; CCoordinate::GetY
  00380	8b 4d 0c	 mov	 ecx, DWORD PTR _orgPoint$[ebp]
  00383	dd 5d c8	 fstp	 QWORD PTR tv750[ebp]
  00386	e8 00 00 00 00	 call	 ?GetY@CCoordinate@@QBENXZ ; CCoordinate::GetY
  0038b	dc 45 c8	 fadd	 QWORD PTR tv750[ebp]
  0038e	8d 45 c4	 lea	 eax, DWORD PTR $T9[ebp]
  00391	8b cb		 mov	 ecx, ebx
  00393	50		 push	 eax
  00394	dd 5d d0	 fstp	 QWORD PTR $T16[ebp]
  00397	e8 00 00 00 00	 call	 ?GetDateType@CCoordinate@@QBE?AV?$CStringT@DV?$StrTraitMFC_DLL@DV?$ChTraitsCRT@D@ATL@@@@@ATL@@XZ ; CCoordinate::GetDateType
  0039c	6a 00		 push	 0
  0039e	50		 push	 eax
  0039f	8b cb		 mov	 ecx, ebx
  003a1	c6 45 fc 10	 mov	 BYTE PTR __$EHRec$[ebp+8], 16 ; 00000010H
  003a5	e8 00 00 00 00	 call	 ?GetTimeDiff@CCoordinate@@QBEHXZ ; CCoordinate::GetTimeDiff
  003aa	8b 5d 08	 mov	 ebx, DWORD PTR ___$ReturnUdt$[ebp]
  003ad	8b cb		 mov	 ecx, ebx
  003af	50		 push	 eax
  003b0	8d 45 d0	 lea	 eax, DWORD PTR $T16[ebp]
  003b3	50		 push	 eax
  003b4	8d 45 b4	 lea	 eax, DWORD PTR _dModifyData$[ebp]
  003b7	50		 push	 eax
  003b8	e8 00 00 00 00	 call	 ??0CCoordinate@@QAE@ABN0HABV?$CStringT@DV?$StrTraitMFC_DLL@DV?$ChTraitsCRT@D@ATL@@@@@ATL@@H@Z ; CCoordinate::CCoordinate
  003bd	8d 4d c4	 lea	 ecx, DWORD PTR $T9[ebp]
  003c0	ff 15 00 00 00
	00		 call	 DWORD PTR __imp_??1?$CStringT@DV?$StrTraitMFC_DLL@DV?$ChTraitsCRT@D@ATL@@@@@ATL@@QAE@XZ
  003c6	8d 4d e4	 lea	 ecx, DWORD PTR _strType$[ebp]
  003c9	ff 15 00 00 00
	00		 call	 DWORD PTR __imp_??1?$CStringT@DV?$StrTraitMFC_DLL@DV?$ChTraitsCRT@D@ATL@@@@@ATL@@QAE@XZ
; File D:\git\src\IBK\IBK_DRFN\ProjSrc\SrcChartEx\ChartAddIn\ChartAnalysisToolAddIn\Include_AddIn_133101\I133101\_IString.h

; 44   : 	{

  003cf	c6 45 fc 11	 mov	 BYTE PTR __$EHRec$[ebp+8], 17 ; 00000011H

; 45   : 		if( m_pIStrData)

  003d3	85 ff		 test	 edi, edi
  003d5	74 06		 je	 SHORT $LN68@GetModifyP

; 46   : 		{
; 47   : 			m_pIStrData->Release();

  003d7	8b 07		 mov	 eax, DWORD PTR [edi]
  003d9	57		 push	 edi
  003da	ff 50 08	 call	 DWORD PTR [eax+8]
$LN68@GetModifyP:

; 44   : 	{

  003dd	c7 45 fc 12 00
	00 00		 mov	 DWORD PTR __$EHRec$[ebp+8], 18 ; 00000012H

; 45   : 		if( m_pIStrData)

  003e4	85 f6		 test	 esi, esi
  003e6	74 06		 je	 SHORT $LN72@GetModifyP

; 46   : 		{
; 47   : 			m_pIStrData->Release();

  003e8	8b 0e		 mov	 ecx, DWORD PTR [esi]
  003ea	56		 push	 esi
  003eb	ff 51 08	 call	 DWORD PTR [ecx+8]
$LN72@GetModifyP:
; File D:\git\src\IBK\IBK_DRFN\ProjSrc\SrcChartEx\ChartAddIn\ChartAnalysisToolAddIn\AnalysisTool\AnalysisData.cpp

; 1118 : 	return CCoordinate(dModifyData, orgPoint.GetY() + m_modifyPoint.GetY(), m_modifyPoint.GetTimeDiff(), m_modifyPoint.GetDateType()/*m_pIPacket_x->GetType()*/, 0);

  003ee	8b c3		 mov	 eax, ebx

; 1119 : }

  003f0	8b 4d f4	 mov	 ecx, DWORD PTR __$EHRec$[ebp]
  003f3	64 89 0d 00 00
	00 00		 mov	 DWORD PTR fs:0, ecx
  003fa	59		 pop	 ecx
  003fb	5f		 pop	 edi
  003fc	5e		 pop	 esi
  003fd	5b		 pop	 ebx
  003fe	8b e5		 mov	 esp, ebp
  00400	5d		 pop	 ebp
  00401	c2 08 00	 ret	 8
$LN6@GetModifyP:

; 1037 : 		return CCoordinate(orgPoint.GetX() + m_modifyPoint.GetX(), 

  00404	83 c7 08	 add	 edi, 8
  00407	8b cf		 mov	 ecx, edi
  00409	e8 00 00 00 00	 call	 ?GetY@CCoordinate@@QBENXZ ; CCoordinate::GetY
  0040e	8b 4d 0c	 mov	 ecx, DWORD PTR _orgPoint$[ebp]
  00411	dd 5d ac	 fstp	 QWORD PTR tv752[ebp]
  00414	e8 00 00 00 00	 call	 ?GetY@CCoordinate@@QBENXZ ; CCoordinate::GetY
  00419	dc 45 ac	 fadd	 QWORD PTR tv752[ebp]
  0041c	8b cf		 mov	 ecx, edi
  0041e	dd 5d bc	 fstp	 QWORD PTR $T8[ebp]
  00421	e8 00 00 00 00	 call	 ?GetX@CCoordinate@@QBENXZ ; CCoordinate::GetX
  00426	8b 4d 0c	 mov	 ecx, DWORD PTR _orgPoint$[ebp]
  00429	dd 5d ac	 fstp	 QWORD PTR tv751[ebp]
  0042c	e8 00 00 00 00	 call	 ?GetX@CCoordinate@@QBENXZ ; CCoordinate::GetX
  00431	dc 45 ac	 fadd	 QWORD PTR tv751[ebp]
  00434	8d 45 cc	 lea	 eax, DWORD PTR $T15[ebp]
  00437	8b cf		 mov	 ecx, edi
  00439	50		 push	 eax
  0043a	dd 5d d8	 fstp	 QWORD PTR $T20[ebp]
  0043d	e8 00 00 00 00	 call	 ?GetDateType@CCoordinate@@QBE?AV?$CStringT@DV?$StrTraitMFC_DLL@DV?$ChTraitsCRT@D@ATL@@@@@ATL@@XZ ; CCoordinate::GetDateType
  00442	6a 00		 push	 0
  00444	50		 push	 eax
  00445	8b cf		 mov	 ecx, edi
  00447	c7 45 fc 00 00
	00 00		 mov	 DWORD PTR __$EHRec$[ebp+8], 0
  0044e	e8 00 00 00 00	 call	 ?GetTimeDiff@CCoordinate@@QBEHXZ ; CCoordinate::GetTimeDiff
  00453	8b 4d 08	 mov	 ecx, DWORD PTR ___$ReturnUdt$[ebp]
  00456	50		 push	 eax
  00457	8d 45 bc	 lea	 eax, DWORD PTR $T8[ebp]
  0045a	50		 push	 eax
  0045b	8d 45 d8	 lea	 eax, DWORD PTR $T20[ebp]
  0045e	50		 push	 eax
  0045f	e8 00 00 00 00	 call	 ??0CCoordinate@@QAE@ABN0HABV?$CStringT@DV?$StrTraitMFC_DLL@DV?$ChTraitsCRT@D@ATL@@@@@ATL@@H@Z ; CCoordinate::CCoordinate
  00464	8d 4d cc	 lea	 ecx, DWORD PTR $T15[ebp]
  00467	ff 15 00 00 00
	00		 call	 DWORD PTR __imp_??1?$CStringT@DV?$StrTraitMFC_DLL@DV?$ChTraitsCRT@D@ATL@@@@@ATL@@QAE@XZ
$LN78@GetModifyP:

; 1119 : }

  0046d	8b 45 08	 mov	 eax, DWORD PTR ___$ReturnUdt$[ebp]
  00470	8b 4d f4	 mov	 ecx, DWORD PTR __$EHRec$[ebp]
  00473	64 89 0d 00 00
	00 00		 mov	 DWORD PTR fs:0, ecx
  0047a	59		 pop	 ecx
  0047b	5f		 pop	 edi
  0047c	5e		 pop	 esi
  0047d	5b		 pop	 ebx
  0047e	8b e5		 mov	 esp, ebp
  00480	5d		 pop	 ebp
  00481	c2 08 00	 ret	 8
$LN76@GetModifyP:
  00484	00 00 00 00	 DD	 $LN10@GetModifyP
  00488	00 00 00 00	 DD	 $LN12@GetModifyP
  0048c	00 00 00 00	 DD	 $LN13@GetModifyP
  00490	00 00 00 00	 DD	 $LN15@GetModifyP
  00494	00 00 00 00	 DD	 $LN2@GetModifyP
$LN75@GetModifyP:
  00498	00		 DB	 0
  00499	00		 DB	 0
  0049a	01		 DB	 1
  0049b	02		 DB	 2
  0049c	03		 DB	 3
  0049d	02		 DB	 2
  0049e	04		 DB	 4
  0049f	04		 DB	 4
  004a0	04		 DB	 4
  004a1	04		 DB	 4
  004a2	04		 DB	 4
  004a3	03		 DB	 3
_TEXT	ENDS
;	COMDAT text$x
text$x	SEGMENT
__unwindfunclet$?GetModifyPoint_Center@CElementModifyData@@ABE?AVCCoordinate@@ABV2@@Z$2:
  00000	8d 4d bc	 lea	 ecx, DWORD PTR _szMainRQ$[ebp]
  00003	e9 00 00 00 00	 jmp	 ??1ILPCSTR133101@@QAE@XZ ; ILPCSTR133101::~ILPCSTR133101
__unwindfunclet$?GetModifyPoint_Center@CElementModifyData@@ABE?AVCCoordinate@@ABV2@@Z$3:
  00008	8d 4d ac	 lea	 ecx, DWORD PTR _szPacketType$[ebp]
  0000b	e9 00 00 00 00	 jmp	 ??1ILPCSTR133101@@QAE@XZ ; ILPCSTR133101::~ILPCSTR133101
__unwindfunclet$?GetModifyPoint_Center@CElementModifyData@@ABE?AVCCoordinate@@ABV2@@Z$4:
  00010	8d 4d e4	 lea	 ecx, DWORD PTR _strType$[ebp]
  00013	ff 25 00 00 00
	00		 jmp	 DWORD PTR __imp_??1?$CStringT@DV?$StrTraitMFC_DLL@DV?$ChTraitsCRT@D@ATL@@@@@ATL@@QAE@XZ
__unwindfunclet$?GetModifyPoint_Center@CElementModifyData@@ABE?AVCCoordinate@@ABV2@@Z$5:
  00019	8d 4d e8	 lea	 ecx, DWORD PTR _strOrg$24[ebp]
  0001c	ff 25 00 00 00
	00		 jmp	 DWORD PTR __imp_??1?$CStringT@DV?$StrTraitMFC_DLL@DV?$ChTraitsCRT@D@ATL@@@@@ATL@@QAE@XZ
__unwindfunclet$?GetModifyPoint_Center@CElementModifyData@@ABE?AVCCoordinate@@ABV2@@Z$6:
  00022	8d 4d ec	 lea	 ecx, DWORD PTR _strMod$25[ebp]
  00025	ff 25 00 00 00
	00		 jmp	 DWORD PTR __imp_??1?$CStringT@DV?$StrTraitMFC_DLL@DV?$ChTraitsCRT@D@ATL@@@@@ATL@@QAE@XZ
__unwindfunclet$?GetModifyPoint_Center@CElementModifyData@@ABE?AVCCoordinate@@ABV2@@Z$7:
  0002b	8d 4d f0	 lea	 ecx, DWORD PTR _strNew$26[ebp]
  0002e	ff 25 00 00 00
	00		 jmp	 DWORD PTR __imp_??1?$CStringT@DV?$StrTraitMFC_DLL@DV?$ChTraitsCRT@D@ATL@@@@@ATL@@QAE@XZ
__unwindfunclet$?GetModifyPoint_Center@CElementModifyData@@ABE?AVCCoordinate@@ABV2@@Z$8:
  00034	8d 4d cc	 lea	 ecx, DWORD PTR $T13[ebp]
  00037	ff 25 00 00 00
	00		 jmp	 DWORD PTR __imp_??1?$CStringT@DV?$StrTraitMFC_DLL@DV?$ChTraitsCRT@D@ATL@@@@@ATL@@QAE@XZ
__unwindfunclet$?GetModifyPoint_Center@CElementModifyData@@ABE?AVCCoordinate@@ABV2@@Z$9:
  0003d	8d 4d d4	 lea	 ecx, DWORD PTR $T19[ebp]
  00040	ff 25 00 00 00
	00		 jmp	 DWORD PTR __imp_??1?$CStringT@DV?$StrTraitMFC_DLL@DV?$ChTraitsCRT@D@ATL@@@@@ATL@@QAE@XZ
__unwindfunclet$?GetModifyPoint_Center@CElementModifyData@@ABE?AVCCoordinate@@ABV2@@Z$10:
  00046	8d 4d dc	 lea	 ecx, DWORD PTR $T23[ebp]
  00049	ff 25 00 00 00
	00		 jmp	 DWORD PTR __imp_??1?$CStringT@DV?$StrTraitMFC_DLL@DV?$ChTraitsCRT@D@ATL@@@@@ATL@@QAE@XZ
__unwindfunclet$?GetModifyPoint_Center@CElementModifyData@@ABE?AVCCoordinate@@ABV2@@Z$11:
  0004f	8d 4d dc	 lea	 ecx, DWORD PTR $T22[ebp]
  00052	ff 25 00 00 00
	00		 jmp	 DWORD PTR __imp_??1?$CStringT@DV?$StrTraitMFC_DLL@DV?$ChTraitsCRT@D@ATL@@@@@ATL@@QAE@XZ
__unwindfunclet$?GetModifyPoint_Center@CElementModifyData@@ABE?AVCCoordinate@@ABV2@@Z$12:
  00058	8d 4d d4	 lea	 ecx, DWORD PTR $T18[ebp]
  0005b	ff 25 00 00 00
	00		 jmp	 DWORD PTR __imp_??1?$CStringT@DV?$StrTraitMFC_DLL@DV?$ChTraitsCRT@D@ATL@@@@@ATL@@QAE@XZ
__unwindfunclet$?GetModifyPoint_Center@CElementModifyData@@ABE?AVCCoordinate@@ABV2@@Z$13:
  00061	8d 4d cc	 lea	 ecx, DWORD PTR $T12[ebp]
  00064	ff 25 00 00 00
	00		 jmp	 DWORD PTR __imp_??1?$CStringT@DV?$StrTraitMFC_DLL@DV?$ChTraitsCRT@D@ATL@@@@@ATL@@QAE@XZ
__unwindfunclet$?GetModifyPoint_Center@CElementModifyData@@ABE?AVCCoordinate@@ABV2@@Z$14:
  0006a	8d 4d dc	 lea	 ecx, DWORD PTR $T21[ebp]
  0006d	ff 25 00 00 00
	00		 jmp	 DWORD PTR __imp_??1?$CStringT@DV?$StrTraitMFC_DLL@DV?$ChTraitsCRT@D@ATL@@@@@ATL@@QAE@XZ
__unwindfunclet$?GetModifyPoint_Center@CElementModifyData@@ABE?AVCCoordinate@@ABV2@@Z$15:
  00073	8d 4d d4	 lea	 ecx, DWORD PTR $T17[ebp]
  00076	ff 25 00 00 00
	00		 jmp	 DWORD PTR __imp_??1?$CStringT@DV?$StrTraitMFC_DLL@DV?$ChTraitsCRT@D@ATL@@@@@ATL@@QAE@XZ
__unwindfunclet$?GetModifyPoint_Center@CElementModifyData@@ABE?AVCCoordinate@@ABV2@@Z$16:
  0007c	8d 4d cc	 lea	 ecx, DWORD PTR $T11[ebp]
  0007f	ff 25 00 00 00
	00		 jmp	 DWORD PTR __imp_??1?$CStringT@DV?$StrTraitMFC_DLL@DV?$ChTraitsCRT@D@ATL@@@@@ATL@@QAE@XZ
__unwindfunclet$?GetModifyPoint_Center@CElementModifyData@@ABE?AVCCoordinate@@ABV2@@Z$17:
  00085	8d 4d c4	 lea	 ecx, DWORD PTR $T9[ebp]
  00088	ff 25 00 00 00
	00		 jmp	 DWORD PTR __imp_??1?$CStringT@DV?$StrTraitMFC_DLL@DV?$ChTraitsCRT@D@ATL@@@@@ATL@@QAE@XZ
__unwindfunclet$?GetModifyPoint_Center@CElementModifyData@@ABE?AVCCoordinate@@ABV2@@Z$1:
  0008e	8d 4d cc	 lea	 ecx, DWORD PTR $T15[ebp]
  00091	ff 25 00 00 00
	00		 jmp	 DWORD PTR __imp_??1?$CStringT@DV?$StrTraitMFC_DLL@DV?$ChTraitsCRT@D@ATL@@@@@ATL@@QAE@XZ
  00097	cc		 int	 3
  00098	cc		 int	 3
  00099	cc		 int	 3
  0009a	cc		 int	 3
  0009b	cc		 int	 3
__ehhandler$?GetModifyPoint_Center@CElementModifyData@@ABE?AVCCoordinate@@ABV2@@Z:
  0009c	90		 npad	 1
  0009d	90		 npad	 1
  0009e	8b 54 24 08	 mov	 edx, DWORD PTR [esp+8]
  000a2	8d 42 0c	 lea	 eax, DWORD PTR [edx+12]
  000a5	8b 4a a8	 mov	 ecx, DWORD PTR [edx-88]
  000a8	33 c8		 xor	 ecx, eax
  000aa	e8 00 00 00 00	 call	 @__security_check_cookie@4
  000af	b8 00 00 00 00	 mov	 eax, OFFSET __ehfuncinfo$?GetModifyPoint_Center@CElementModifyData@@ABE?AVCCoordinate@@ABV2@@Z
  000b4	e9 00 00 00 00	 jmp	 ___CxxFrameHandler3
text$x	ENDS
?GetModifyPoint_Center@CElementModifyData@@ABE?AVCCoordinate@@ABV2@@Z ENDP ; CElementModifyData::GetModifyPoint_Center
; Function compile flags: /Ogtp
; File D:\git\src\IBK\IBK_DRFN\ProjSrc\SrcChartEx\ChartAddIn\ChartAnalysisToolAddIn\AnalysisTool\AnalysisData.cpp
; File D:\git\src\IBK\IBK_DRFN\ProjSrc\SrcChartEx\ChartAddIn\ChartAnalysisToolAddIn\Include_Chart\BlockBaseData.h
; File D:\git\src\IBK\IBK_DRFN\ProjSrc\SrcChartEx\ChartAddIn\ChartAnalysisToolAddIn\AnalysisTool\AnalysisData.cpp
;	COMDAT ?SetBlockIndex@CElementModifyData@@QAE_NABVCBlockIndex@@@Z
_TEXT	SEGMENT
_blockIndex$ = 8					; size = 4
?SetBlockIndex@CElementModifyData@@QAE_NABVCBlockIndex@@@Z PROC ; CElementModifyData::SetBlockIndex, COMDAT
; _this$ = ecx

; 1147 : {

  00000	55		 push	 ebp
  00001	8b ec		 mov	 ebp, esp
; File D:\git\src\IBK\IBK_DRFN\ProjSrc\SrcChartEx\ChartAddIn\ChartAnalysisToolAddIn\Include_Chart\BlockBaseData.h

; 32   : 	bool IsAllValueBiggerThanZero() const { return (m_nRow >= 0 && m_nColumn >= 0); };

  00003	8b 45 08	 mov	 eax, DWORD PTR _blockIndex$[ebp]
  00006	8b 10		 mov	 edx, DWORD PTR [eax]
  00008	85 d2		 test	 edx, edx
  0000a	78 15		 js	 SHORT $LN2@SetBlockIn
  0000c	83 78 04 00	 cmp	 DWORD PTR [eax+4], 0
  00010	7c 0f		 jl	 SHORT $LN2@SetBlockIn
; File D:\git\src\IBK\IBK_DRFN\ProjSrc\SrcChartEx\ChartAddIn\ChartAnalysisToolAddIn\AnalysisTool\AnalysisData.cpp

; 1151 : 		m_blockIndex.SetColumn(blockIndex.GetColumn());

  00012	89 51 2c	 mov	 DWORD PTR [ecx+44], edx
  00015	8b 40 04	 mov	 eax, DWORD PTR [eax+4]
  00018	89 41 30	 mov	 DWORD PTR [ecx+48], eax

; 1152 : 		return true;

  0001b	b0 01		 mov	 al, 1

; 1156 : }

  0001d	5d		 pop	 ebp
  0001e	c2 04 00	 ret	 4
$LN2@SetBlockIn:

; 1153 : 	}
; 1154 : 
; 1155 : 	return false;

  00021	32 c0		 xor	 al, al

; 1156 : }

  00023	5d		 pop	 ebp
  00024	c2 04 00	 ret	 4
?SetBlockIndex@CElementModifyData@@QAE_NABVCBlockIndex@@@Z ENDP ; CElementModifyData::SetBlockIndex
_TEXT	ENDS
; Function compile flags: /Ogtp
; File D:\git\src\IBK\IBK_DRFN\ProjSrc\SrcChartEx\ChartAddIn\ChartAnalysisToolAddIn\AnalysisTool\AnalysisData.cpp
;	COMDAT ?SetBlockIndex@CElementModifyData@@QAE_NABVCPoint@@@Z
_TEXT	SEGMENT
_point$ = 8						; size = 4
?SetBlockIndex@CElementModifyData@@QAE_NABVCPoint@@@Z PROC ; CElementModifyData::SetBlockIndex, COMDAT
; _this$ = ecx

; 1139 : {

  00000	55		 push	 ebp
  00001	8b ec		 mov	 ebp, esp
  00003	53		 push	 ebx

; 1140 : 	if( m_pIChartManager)

  00004	8b 59 28	 mov	 ebx, DWORD PTR [ecx+40]
  00007	85 db		 test	 ebx, ebx
  00009	74 2a		 je	 SHORT $LN2@SetBlockIn

; 1141 : 		return ( m_pIChartManager->GetBlockIndex(point, GetBlockIndex().GetRow(), GetBlockIndex().GetColumn()) ? true : false);

  0000b	8b 45 08	 mov	 eax, DWORD PTR _point$[ebp]
  0000e	56		 push	 esi
  0000f	8b 33		 mov	 esi, DWORD PTR [ebx]
  00011	57		 push	 edi
  00012	8b 38		 mov	 edi, DWORD PTR [eax]
  00014	8b 50 04	 mov	 edx, DWORD PTR [eax+4]
  00017	8d 41 30	 lea	 eax, DWORD PTR [ecx+48]
  0001a	50		 push	 eax
  0001b	8d 41 2c	 lea	 eax, DWORD PTR [ecx+44]
  0001e	8b cb		 mov	 ecx, ebx
  00020	50		 push	 eax
  00021	52		 push	 edx
  00022	57		 push	 edi
  00023	ff 96 8c 00 00
	00		 call	 DWORD PTR [esi+140]
  00029	5f		 pop	 edi
  0002a	85 c0		 test	 eax, eax
  0002c	5e		 pop	 esi
  0002d	0f 95 c0	 setne	 al
  00030	5b		 pop	 ebx

; 1144 : }

  00031	5d		 pop	 ebp
  00032	c2 04 00	 ret	 4
$LN2@SetBlockIn:

; 1142 : 
; 1143 : 	return false;

  00035	32 c0		 xor	 al, al
  00037	5b		 pop	 ebx

; 1144 : }

  00038	5d		 pop	 ebp
  00039	c2 04 00	 ret	 4
?SetBlockIndex@CElementModifyData@@QAE_NABVCPoint@@@Z ENDP ; CElementModifyData::SetBlockIndex
_TEXT	ENDS
; Function compile flags: /Ogtp
; File D:\git\src\IBK\IBK_DRFN\ProjSrc\SrcChartEx\ChartAddIn\ChartAnalysisToolAddIn\AnalysisTool\AnalysisData.cpp
;	COMDAT ?GetBlockIndex@CElementModifyData@@QBE?AVCBlockIndex@@XZ
_TEXT	SEGMENT
___$ReturnUdt$ = 8					; size = 4
?GetBlockIndex@CElementModifyData@@QBE?AVCBlockIndex@@XZ PROC ; CElementModifyData::GetBlockIndex, COMDAT
; _this$ = ecx

; 1134 : {

  00000	55		 push	 ebp
  00001	8b ec		 mov	 ebp, esp

; 1135 : 	return m_blockIndex;

  00003	8b 45 08	 mov	 eax, DWORD PTR ___$ReturnUdt$[ebp]
  00006	8b 51 2c	 mov	 edx, DWORD PTR [ecx+44]
  00009	8b 49 30	 mov	 ecx, DWORD PTR [ecx+48]
  0000c	89 10		 mov	 DWORD PTR [eax], edx
  0000e	89 48 04	 mov	 DWORD PTR [eax+4], ecx

; 1136 : }

  00011	5d		 pop	 ebp
  00012	c2 04 00	 ret	 4
?GetBlockIndex@CElementModifyData@@QBE?AVCBlockIndex@@XZ ENDP ; CElementModifyData::GetBlockIndex
_TEXT	ENDS
; Function compile flags: /Ogtp
; File D:\git\src\IBK\IBK_DRFN\ProjSrc\SrcChartEx\ChartAddIn\ChartAnalysisToolAddIn\AnalysisTool\AnalysisData.cpp
;	COMDAT ?GetBlockIndex@CElementModifyData@@QAEAAVCBlockIndex@@XZ
_TEXT	SEGMENT
?GetBlockIndex@CElementModifyData@@QAEAAVCBlockIndex@@XZ PROC ; CElementModifyData::GetBlockIndex, COMDAT
; _this$ = ecx

; 1130 : 	return m_blockIndex;

  00000	8d 41 2c	 lea	 eax, DWORD PTR [ecx+44]

; 1131 : }

  00003	c3		 ret	 0
?GetBlockIndex@CElementModifyData@@QAEAAVCBlockIndex@@XZ ENDP ; CElementModifyData::GetBlockIndex
_TEXT	ENDS
; Function compile flags: /Ogtp
; File D:\git\src\IBK\IBK_DRFN\ProjSrc\SrcChartEx\ChartAddIn\ChartAnalysisToolAddIn\AnalysisTool\AnalysisData.cpp
;	COMDAT ?GetIChartManager@CElementModifyData@@QBEPAUIChartManager133101@@XZ
_TEXT	SEGMENT
?GetIChartManager@CElementModifyData@@QBEPAUIChartManager133101@@XZ PROC ; CElementModifyData::GetIChartManager, COMDAT
; _this$ = ecx

; 1123 : {

  00000	56		 push	 esi
  00001	8b f1		 mov	 esi, ecx

; 1124 : 	if( m_pIChartManager) m_pIChartManager->AddRef();

  00003	8b 56 28	 mov	 edx, DWORD PTR [esi+40]
  00006	85 d2		 test	 edx, edx
  00008	74 0b		 je	 SHORT $LN4@GetIChartM
  0000a	8b 02		 mov	 eax, DWORD PTR [edx]
  0000c	52		 push	 edx
  0000d	ff 50 04	 call	 DWORD PTR [eax+4]

; 1125 : 	return m_pIChartManager;

  00010	8b 46 28	 mov	 eax, DWORD PTR [esi+40]
  00013	5e		 pop	 esi

; 1126 : }

  00014	c3		 ret	 0
$LN4@GetIChartM:

; 1125 : 	return m_pIChartManager;

  00015	8b c2		 mov	 eax, edx
  00017	5e		 pop	 esi

; 1126 : }

  00018	c3		 ret	 0
?GetIChartManager@CElementModifyData@@QBEPAUIChartManager133101@@XZ ENDP ; CElementModifyData::GetIChartManager
_TEXT	ENDS
; Function compile flags: /Ogtp
; File D:\git\src\IBK\IBK_DRFN\ProjSrc\SrcChartEx\ChartAddIn\ChartAnalysisToolAddIn\AnalysisTool\AnalysisData.cpp
;	COMDAT ?GetModifyPoint@CElementModifyData@@QBE?AVCCoordinate@@ABV2@@Z
_TEXT	SEGMENT
___$ReturnUdt$ = 8					; size = 4
_orgPoint$ = 12						; size = 4
?GetModifyPoint@CElementModifyData@@QBE?AVCCoordinate@@ABV2@@Z PROC ; CElementModifyData::GetModifyPoint, COMDAT
; _this$ = ecx

; 981  : {

  00000	55		 push	 ebp
  00001	8b ec		 mov	 ebp, esp

; 982  : 	switch(m_modifyType)

  00003	8b 01		 mov	 eax, DWORD PTR [ecx]
  00005	48		 dec	 eax
  00006	56		 push	 esi
  00007	83 f8 05	 cmp	 eax, 5
  0000a	77 2e		 ja	 SHORT $LN2@GetModifyP
  0000c	ff 24 85 00 00
	00 00		 jmp	 DWORD PTR $LN13@GetModifyP[eax*4]
$LN4@GetModifyP:

; 983  : 	{
; 984  : 	case CToolEnumData::MODIFY_CENTER:
; 985  : 		return GetModifyPoint_Center(orgPoint);

  00013	ff 75 0c	 push	 DWORD PTR _orgPoint$[ebp]
  00016	8b 75 08	 mov	 esi, DWORD PTR ___$ReturnUdt$[ebp]
  00019	56		 push	 esi
  0001a	e8 00 00 00 00	 call	 ?GetModifyPoint_Center@CElementModifyData@@ABE?AVCCoordinate@@ABV2@@Z ; CElementModifyData::GetModifyPoint_Center
  0001f	8b c6		 mov	 eax, esi
  00021	5e		 pop	 esi

; 996  : }

  00022	5d		 pop	 ebp
  00023	c2 08 00	 ret	 8
$LN5@GetModifyP:

; 986  : 	case CToolEnumData::MODIFY_START:
; 987  : 	case CToolEnumData::MODIFY_MIDDLE:
; 988  : 	case CToolEnumData::MODIFY_END:
; 989  : 	case CToolEnumData::MODIFY_X:
; 990  : 	case CToolEnumData::MODIFY_Y:
; 991  : 			return m_modifyPoint;

  00026	8d 41 08	 lea	 eax, DWORD PTR [ecx+8]

; 996  : }

  00029	8b 4d 08	 mov	 ecx, DWORD PTR ___$ReturnUdt$[ebp]
  0002c	50		 push	 eax
  0002d	e8 00 00 00 00	 call	 ??0CCoordinate@@QAE@ABV0@@Z ; CCoordinate::CCoordinate
  00032	8b 45 08	 mov	 eax, DWORD PTR ___$ReturnUdt$[ebp]
  00035	5e		 pop	 esi
  00036	5d		 pop	 ebp
  00037	c2 08 00	 ret	 8
$LN2@GetModifyP:

; 992  : 	}
; 993  : 
; 994  : 	assert(false);
; 995  : 	return orgPoint;

  0003a	ff 75 0c	 push	 DWORD PTR _orgPoint$[ebp]

; 996  : }

  0003d	8b 4d 08	 mov	 ecx, DWORD PTR ___$ReturnUdt$[ebp]
  00040	e8 00 00 00 00	 call	 ??0CCoordinate@@QAE@ABV0@@Z ; CCoordinate::CCoordinate
  00045	8b 45 08	 mov	 eax, DWORD PTR ___$ReturnUdt$[ebp]
  00048	5e		 pop	 esi
  00049	5d		 pop	 ebp
  0004a	c2 08 00	 ret	 8
  0004d	0f 1f 00	 npad	 3
$LN13@GetModifyP:
  00050	00 00 00 00	 DD	 $LN4@GetModifyP
  00054	00 00 00 00	 DD	 $LN5@GetModifyP
  00058	00 00 00 00	 DD	 $LN5@GetModifyP
  0005c	00 00 00 00	 DD	 $LN5@GetModifyP
  00060	00 00 00 00	 DD	 $LN5@GetModifyP
  00064	00 00 00 00	 DD	 $LN5@GetModifyP
?GetModifyPoint@CElementModifyData@@QBE?AVCCoordinate@@ABV2@@Z ENDP ; CElementModifyData::GetModifyPoint
_TEXT	ENDS
; Function compile flags: /Ogtp
; File D:\git\src\IBK\IBK_DRFN\ProjSrc\SrcChartEx\ChartAddIn\ChartAnalysisToolAddIn\AnalysisTool\AnalysisData.cpp
;	COMDAT ?GetPoint@CElementModifyData@@QBE?AVCCoordinate@@XZ
_TEXT	SEGMENT
___$ReturnUdt$ = 8					; size = 4
?GetPoint@CElementModifyData@@QBE?AVCCoordinate@@XZ PROC ; CElementModifyData::GetPoint, COMDAT
; _this$ = ecx

; 975  : {

  00000	55		 push	 ebp
  00001	8b ec		 mov	 ebp, esp

; 976  : 	return m_modifyPoint;

  00003	8d 41 08	 lea	 eax, DWORD PTR [ecx+8]
  00006	8b 4d 08	 mov	 ecx, DWORD PTR ___$ReturnUdt$[ebp]
  00009	50		 push	 eax
  0000a	e8 00 00 00 00	 call	 ??0CCoordinate@@QAE@ABV0@@Z ; CCoordinate::CCoordinate
  0000f	8b 45 08	 mov	 eax, DWORD PTR ___$ReturnUdt$[ebp]

; 977  : }

  00012	5d		 pop	 ebp
  00013	c2 04 00	 ret	 4
?GetPoint@CElementModifyData@@QBE?AVCCoordinate@@XZ ENDP ; CElementModifyData::GetPoint
_TEXT	ENDS
; Function compile flags: /Ogtp
; File D:\git\src\IBK\IBK_DRFN\ProjSrc\SrcChartEx\ChartAddIn\ChartAnalysisToolAddIn\AnalysisTool\AnalysisData.cpp
;	COMDAT ?GetPacket_X@CElementModifyData@@QBEPAUIPacket133101@@XZ
_TEXT	SEGMENT
?GetPacket_X@CElementModifyData@@QBEPAUIPacket133101@@XZ PROC ; CElementModifyData::GetPacket_X, COMDAT
; _this$ = ecx

; 969  : {

  00000	56		 push	 esi
  00001	8b f1		 mov	 esi, ecx

; 970  : 	if( m_pIPacket_x) m_pIPacket_x->AddRef();

  00003	8b 56 04	 mov	 edx, DWORD PTR [esi+4]
  00006	85 d2		 test	 edx, edx
  00008	74 0b		 je	 SHORT $LN4@GetPacket_
  0000a	8b 02		 mov	 eax, DWORD PTR [edx]
  0000c	52		 push	 edx
  0000d	ff 50 04	 call	 DWORD PTR [eax+4]

; 971  : 	return m_pIPacket_x;

  00010	8b 46 04	 mov	 eax, DWORD PTR [esi+4]
  00013	5e		 pop	 esi

; 972  : }

  00014	c3		 ret	 0
$LN4@GetPacket_:

; 971  : 	return m_pIPacket_x;

  00015	8b c2		 mov	 eax, edx
  00017	5e		 pop	 esi

; 972  : }

  00018	c3		 ret	 0
?GetPacket_X@CElementModifyData@@QBEPAUIPacket133101@@XZ ENDP ; CElementModifyData::GetPacket_X
_TEXT	ENDS
; Function compile flags: /Ogtp
; File D:\git\src\IBK\IBK_DRFN\ProjSrc\SrcChartEx\ChartAddIn\ChartAnalysisToolAddIn\AnalysisTool\AnalysisData.cpp
;	COMDAT ?GetPacket_XValue@CElementModifyData@@QBENH@Z
_TEXT	SEGMENT
_dData$ = -8						; size = 8
_nXIndex$ = 8						; size = 4
?GetPacket_XValue@CElementModifyData@@QBENH@Z PROC	; CElementModifyData::GetPacket_XValue, COMDAT
; _this$ = ecx

; 1007 : {

  00000	55		 push	 ebp
  00001	8b ec		 mov	 ebp, esp
  00003	83 ec 08	 sub	 esp, 8
  00006	56		 push	 esi
  00007	8b f1		 mov	 esi, ecx

; 1008 : 	if(m_pIPacket_x == NULL || m_pIPacket_x->GetDataCount() <= 0)

  00009	8b 4e 04	 mov	 ecx, DWORD PTR [esi+4]
  0000c	85 c9		 test	 ecx, ecx
  0000e	74 2a		 je	 SHORT $LN3@GetPacket_
  00010	8b 01		 mov	 eax, DWORD PTR [ecx]
  00012	ff 50 2c	 call	 DWORD PTR [eax+44]
  00015	85 c0		 test	 eax, eax
  00017	7e 21		 jle	 SHORT $LN3@GetPacket_

; 1010 : 
; 1011 : 	double dData = 0.0;
; 1012 : 	m_pIPacket_x->GetData( nXIndex, dData);	

  00019	8b 4e 04	 mov	 ecx, DWORD PTR [esi+4]
  0001c	8d 55 f8	 lea	 edx, DWORD PTR _dData$[ebp]
  0001f	0f 57 c0	 xorps	 xmm0, xmm0
  00022	f2 0f 11 45 f8	 movsd	 QWORD PTR _dData$[ebp], xmm0
  00027	52		 push	 edx
  00028	8b 01		 mov	 eax, DWORD PTR [ecx]
  0002a	ff 75 08	 push	 DWORD PTR _nXIndex$[ebp]
  0002d	ff 50 40	 call	 DWORD PTR [eax+64]

; 1013 : 	return dData;

  00030	dd 45 f8	 fld	 QWORD PTR _dData$[ebp]
  00033	5e		 pop	 esi

; 1014 : }

  00034	8b e5		 mov	 esp, ebp
  00036	5d		 pop	 ebp
  00037	c2 04 00	 ret	 4
$LN3@GetPacket_:

; 1009 : 		return -1;

  0003a	dd 05 00 00 00
	00		 fld	 QWORD PTR __real@bff0000000000000
  00040	5e		 pop	 esi

; 1014 : }

  00041	8b e5		 mov	 esp, ebp
  00043	5d		 pop	 ebp
  00044	c2 04 00	 ret	 4
?GetPacket_XValue@CElementModifyData@@QBENH@Z ENDP	; CElementModifyData::GetPacket_XValue
_TEXT	ENDS
; Function compile flags: /Ogtp
; File D:\git\src\IBK\IBK_DRFN\ProjSrc\SrcChartEx\ChartAddIn\ChartAnalysisToolAddIn\AnalysisTool\AnalysisData.cpp
;	COMDAT ?GetPacket_XIndex@CElementModifyData@@QBEHN@Z
_TEXT	SEGMENT
_dXData$ = 8						; size = 8
?GetPacket_XIndex@CElementModifyData@@QBEHN@Z PROC	; CElementModifyData::GetPacket_XIndex, COMDAT
; _this$ = ecx

; 999  : {

  00000	55		 push	 ebp
  00001	8b ec		 mov	 ebp, esp
  00003	56		 push	 esi
  00004	8b f1		 mov	 esi, ecx

; 1000 : 	if(m_pIPacket_x == NULL || m_pIPacket_x->GetDataCount() <= 0)

  00006	8b 4e 04	 mov	 ecx, DWORD PTR [esi+4]
  00009	85 c9		 test	 ecx, ecx
  0000b	74 23		 je	 SHORT $LN3@GetPacket_
  0000d	8b 01		 mov	 eax, DWORD PTR [ecx]
  0000f	ff 50 2c	 call	 DWORD PTR [eax+44]
  00012	85 c0		 test	 eax, eax
  00014	7e 1a		 jle	 SHORT $LN3@GetPacket_

; 1002 : 
; 1003 : 	return m_pIPacket_x->GetIndexFromData(dXData);	

  00016	8b 4e 04	 mov	 ecx, DWORD PTR [esi+4]
  00019	83 ec 08	 sub	 esp, 8
  0001c	f2 0f 10 45 08	 movsd	 xmm0, QWORD PTR _dXData$[ebp]
  00021	8b 01		 mov	 eax, DWORD PTR [ecx]
  00023	f2 0f 11 04 24	 movsd	 QWORD PTR [esp], xmm0
  00028	ff 50 34	 call	 DWORD PTR [eax+52]
  0002b	5e		 pop	 esi

; 1004 : }

  0002c	5d		 pop	 ebp
  0002d	c2 08 00	 ret	 8
$LN3@GetPacket_:

; 1001 : 		return -1;

  00030	83 c8 ff	 or	 eax, -1
  00033	5e		 pop	 esi

; 1004 : }

  00034	5d		 pop	 ebp
  00035	c2 08 00	 ret	 8
?GetPacket_XIndex@CElementModifyData@@QBEHN@Z ENDP	; CElementModifyData::GetPacket_XIndex
_TEXT	ENDS
; Function compile flags: /Ogtp
; File D:\git\src\IBK\IBK_DRFN\ProjSrc\SrcChartEx\ChartAddIn\ChartAnalysisToolAddIn\AnalysisTool\AnalysisData.cpp
;	COMDAT ?GetModifyType@CElementModifyData@@QBE?AW4ModifyType@CToolEnumData@@XZ
_TEXT	SEGMENT
?GetModifyType@CElementModifyData@@QBE?AW4ModifyType@CToolEnumData@@XZ PROC ; CElementModifyData::GetModifyType, COMDAT
; _this$ = ecx

; 965  : 	return m_modifyType;

  00000	8b 01		 mov	 eax, DWORD PTR [ecx]

; 966  : }

  00002	c3		 ret	 0
?GetModifyType@CElementModifyData@@QBE?AW4ModifyType@CToolEnumData@@XZ ENDP ; CElementModifyData::GetModifyType
_TEXT	ENDS
; Function compile flags: /Ogtp
; File D:\git\src\IBK\IBK_DRFN\ProjSrc\SrcChartEx\ChartAddIn\ChartAnalysisToolAddIn\AnalysisTool\AnalysisData.cpp
;	COMDAT ?SetIChartManager@CElementModifyData@@QAEXPAUIChartManager133101@@@Z
_TEXT	SEGMENT
_pIChartManager$ = 8					; size = 4
?SetIChartManager@CElementModifyData@@QAEXPAUIChartManager133101@@@Z PROC ; CElementModifyData::SetIChartManager, COMDAT
; _this$ = ecx

; 956  : {

  00000	55		 push	 ebp
  00001	8b ec		 mov	 ebp, esp
  00003	56		 push	 esi
  00004	8b f1		 mov	 esi, ecx

; 957  : 	if( m_pIChartManager) m_pIChartManager->Release();

  00006	8b 56 28	 mov	 edx, DWORD PTR [esi+40]
  00009	85 d2		 test	 edx, edx
  0000b	74 06		 je	 SHORT $LN2@SetIChartM
  0000d	8b 02		 mov	 eax, DWORD PTR [edx]
  0000f	52		 push	 edx
  00010	ff 50 08	 call	 DWORD PTR [eax+8]
$LN2@SetIChartM:

; 958  : 	m_pIChartManager = pIChartManager;

  00013	8b 4d 08	 mov	 ecx, DWORD PTR _pIChartManager$[ebp]
  00016	89 4e 28	 mov	 DWORD PTR [esi+40], ecx
  00019	5e		 pop	 esi

; 959  : 	if( m_pIChartManager) m_pIChartManager->AddRef();

  0001a	85 c9		 test	 ecx, ecx
  0001c	74 09		 je	 SHORT $LN3@SetIChartM
  0001e	8b 01		 mov	 eax, DWORD PTR [ecx]
  00020	89 4d 08	 mov	 DWORD PTR _pIChartManager$[ebp], ecx

; 960  : }

  00023	5d		 pop	 ebp

; 959  : 	if( m_pIChartManager) m_pIChartManager->AddRef();

  00024	ff 60 04	 jmp	 DWORD PTR [eax+4]
$LN3@SetIChartM:

; 960  : }

  00027	5d		 pop	 ebp
  00028	c2 04 00	 ret	 4
?SetIChartManager@CElementModifyData@@QAEXPAUIChartManager133101@@@Z ENDP ; CElementModifyData::SetIChartManager
_TEXT	ENDS
; Function compile flags: /Ogtp
; File D:\git\src\IBK\IBK_DRFN\ProjSrc\SrcChartEx\ChartAddIn\ChartAnalysisToolAddIn\AnalysisTool\AnalysisData.cpp
;	COMDAT ?SetPoint@CElementModifyData@@QAEXABVCCoordinate@@@Z
_TEXT	SEGMENT
_point$ = 8						; size = 4
?SetPoint@CElementModifyData@@QAEXABVCCoordinate@@@Z PROC ; CElementModifyData::SetPoint, COMDAT
; _this$ = ecx

; 950  : {

  00000	55		 push	 ebp
  00001	8b ec		 mov	 ebp, esp

; 951  : 	m_modifyPoint = point;

  00003	83 c1 08	 add	 ecx, 8

; 952  : }

  00006	5d		 pop	 ebp

; 951  : 	m_modifyPoint = point;

  00007	e9 00 00 00 00	 jmp	 ??4CCoordinate@@QAEAAV0@ABV0@@Z ; CCoordinate::operator=
?SetPoint@CElementModifyData@@QAEXABVCCoordinate@@@Z ENDP ; CElementModifyData::SetPoint
_TEXT	ENDS
; Function compile flags: /Ogtp
; File D:\git\src\IBK\IBK_DRFN\ProjSrc\SrcChartEx\ChartAddIn\ChartAnalysisToolAddIn\AnalysisTool\AnalysisData.cpp
;	COMDAT ?SetPacket_X@CElementModifyData@@QAEXPAUIPacket133101@@@Z
_TEXT	SEGMENT
_pPacket$ = 8						; size = 4
?SetPacket_X@CElementModifyData@@QAEXPAUIPacket133101@@@Z PROC ; CElementModifyData::SetPacket_X, COMDAT
; _this$ = ecx

; 943  : {

  00000	55		 push	 ebp
  00001	8b ec		 mov	 ebp, esp
  00003	56		 push	 esi
  00004	8b f1		 mov	 esi, ecx

; 944  : 	if( m_pIPacket_x) m_pIPacket_x->Release();

  00006	8b 56 04	 mov	 edx, DWORD PTR [esi+4]
  00009	85 d2		 test	 edx, edx
  0000b	74 06		 je	 SHORT $LN2@SetPacket_
  0000d	8b 02		 mov	 eax, DWORD PTR [edx]
  0000f	52		 push	 edx
  00010	ff 50 08	 call	 DWORD PTR [eax+8]
$LN2@SetPacket_:

; 945  : 	m_pIPacket_x = pPacket;

  00013	8b 4d 08	 mov	 ecx, DWORD PTR _pPacket$[ebp]
  00016	89 4e 04	 mov	 DWORD PTR [esi+4], ecx
  00019	5e		 pop	 esi

; 946  : 	if( m_pIPacket_x) m_pIPacket_x->AddRef();

  0001a	85 c9		 test	 ecx, ecx
  0001c	74 09		 je	 SHORT $LN3@SetPacket_
  0001e	8b 01		 mov	 eax, DWORD PTR [ecx]
  00020	89 4d 08	 mov	 DWORD PTR _pPacket$[ebp], ecx

; 947  : }

  00023	5d		 pop	 ebp

; 946  : 	if( m_pIPacket_x) m_pIPacket_x->AddRef();

  00024	ff 60 04	 jmp	 DWORD PTR [eax+4]
$LN3@SetPacket_:

; 947  : }

  00027	5d		 pop	 ebp
  00028	c2 04 00	 ret	 4
?SetPacket_X@CElementModifyData@@QAEXPAUIPacket133101@@@Z ENDP ; CElementModifyData::SetPacket_X
_TEXT	ENDS
; Function compile flags: /Ogtp
; File D:\git\src\IBK\IBK_DRFN\ProjSrc\SrcChartEx\ChartAddIn\ChartAnalysisToolAddIn\AnalysisTool\AnalysisData.cpp
;	COMDAT ?SetModifyType@CElementModifyData@@QAEXW4ModifyType@CToolEnumData@@@Z
_TEXT	SEGMENT
_modifyType$ = 8					; size = 4
?SetModifyType@CElementModifyData@@QAEXW4ModifyType@CToolEnumData@@@Z PROC ; CElementModifyData::SetModifyType, COMDAT
; _this$ = ecx

; 938  : {

  00000	55		 push	 ebp
  00001	8b ec		 mov	 ebp, esp

; 939  : 	m_modifyType = modifyType;

  00003	8b 45 08	 mov	 eax, DWORD PTR _modifyType$[ebp]
  00006	89 01		 mov	 DWORD PTR [ecx], eax

; 940  : }

  00008	5d		 pop	 ebp
  00009	c2 04 00	 ret	 4
?SetModifyType@CElementModifyData@@QAEXW4ModifyType@CToolEnumData@@@Z ENDP ; CElementModifyData::SetModifyType
_TEXT	ENDS
; Function compile flags: /Ogtp
; File D:\git\src\IBK\IBK_DRFN\ProjSrc\SrcChartEx\ChartAddIn\ChartAnalysisToolAddIn\AnalysisTool\AnalysisData.cpp
;	COMDAT ??4CElementModifyData@@QAEAAV0@ABV0@@Z
_TEXT	SEGMENT
$T2 = -52						; size = 32
__$EHRec$ = -12						; size = 12
_modifyData$ = 8					; size = 4
??4CElementModifyData@@QAEAAV0@ABV0@@Z PROC		; CElementModifyData::operator=, COMDAT
; _this$ = ecx

; 916  : {

  00000	55		 push	 ebp
  00001	8b ec		 mov	 ebp, esp
  00003	6a ff		 push	 -1
  00005	68 00 00 00 00	 push	 __ehhandler$??4CElementModifyData@@QAEAAV0@ABV0@@Z
  0000a	64 a1 00 00 00
	00		 mov	 eax, DWORD PTR fs:0
  00010	50		 push	 eax
  00011	83 ec 28	 sub	 esp, 40			; 00000028H
  00014	56		 push	 esi
  00015	57		 push	 edi
  00016	a1 00 00 00 00	 mov	 eax, DWORD PTR ___security_cookie
  0001b	33 c5		 xor	 eax, ebp
  0001d	50		 push	 eax
  0001e	8d 45 f4	 lea	 eax, DWORD PTR __$EHRec$[ebp]
  00021	64 a3 00 00 00
	00		 mov	 DWORD PTR fs:0, eax
  00027	8b f9		 mov	 edi, ecx

; 917  : 	if(this == &modifyData)

  00029	8b 75 08	 mov	 esi, DWORD PTR _modifyData$[ebp]
  0002c	3b fe		 cmp	 edi, esi
  0002e	74 7f		 je	 SHORT $LN25@operator

; 918  : 		return *this;
; 919  : 
; 920  : 	m_modifyType = modifyData.GetModifyType();
; 921  : 
; 922  : 	if( m_pIPacket_x) m_pIPacket_x->Release();

  00030	8b 4f 04	 mov	 ecx, DWORD PTR [edi+4]
  00033	8b 06		 mov	 eax, DWORD PTR [esi]
  00035	89 07		 mov	 DWORD PTR [edi], eax
  00037	85 c9		 test	 ecx, ecx
  00039	74 06		 je	 SHORT $LN3@operator
  0003b	8b 01		 mov	 eax, DWORD PTR [ecx]
  0003d	51		 push	 ecx
  0003e	ff 50 08	 call	 DWORD PTR [eax+8]
$LN3@operator:

; 970  : 	if( m_pIPacket_x) m_pIPacket_x->AddRef();

  00041	8b 4e 04	 mov	 ecx, DWORD PTR [esi+4]
  00044	85 c9		 test	 ecx, ecx
  00046	74 09		 je	 SHORT $LN8@operator
  00048	8b 01		 mov	 eax, DWORD PTR [ecx]
  0004a	51		 push	 ecx
  0004b	ff 50 04	 call	 DWORD PTR [eax+4]
  0004e	8b 4e 04	 mov	 ecx, DWORD PTR [esi+4]
$LN8@operator:

; 976  : 	return m_modifyPoint;

  00051	8d 46 08	 lea	 eax, DWORD PTR [esi+8]

; 923  : 	m_pIPacket_x = modifyData.GetPacket_X();

  00054	89 4f 04	 mov	 DWORD PTR [edi+4], ecx

; 976  : 	return m_modifyPoint;

  00057	50		 push	 eax
  00058	8d 4d cc	 lea	 ecx, DWORD PTR $T2[ebp]
  0005b	e8 00 00 00 00	 call	 ??0CCoordinate@@QAE@ABV0@@Z ; CCoordinate::CCoordinate

; 924  : 
; 925  : 	m_modifyPoint = modifyData.GetPoint();

  00060	8d 45 cc	 lea	 eax, DWORD PTR $T2[ebp]
  00063	c7 45 fc 00 00
	00 00		 mov	 DWORD PTR __$EHRec$[ebp+8], 0
  0006a	50		 push	 eax
  0006b	8d 4f 08	 lea	 ecx, DWORD PTR [edi+8]
  0006e	e8 00 00 00 00	 call	 ??4CCoordinate@@QAEAAV0@ABV0@@Z ; CCoordinate::operator=
  00073	8d 4d e0	 lea	 ecx, DWORD PTR $T2[ebp+20]
  00076	c7 45 fc ff ff
	ff ff		 mov	 DWORD PTR __$EHRec$[ebp+8], -1
  0007d	ff 15 00 00 00
	00		 call	 DWORD PTR __imp_??1?$CStringT@DV?$StrTraitMFC_DLL@DV?$ChTraitsCRT@D@ATL@@@@@ATL@@QAE@XZ

; 926  : 
; 927  : 	if( m_pIChartManager) m_pIChartManager->Release();					// XScale :  Interface  - vntsorl(20070327)

  00083	8b 4f 28	 mov	 ecx, DWORD PTR [edi+40]
  00086	85 c9		 test	 ecx, ecx
  00088	74 06		 je	 SHORT $LN4@operator
  0008a	8b 01		 mov	 eax, DWORD PTR [ecx]
  0008c	51		 push	 ecx
  0008d	ff 50 08	 call	 DWORD PTR [eax+8]
$LN4@operator:

; 1124 : 	if( m_pIChartManager) m_pIChartManager->AddRef();

  00090	8b 4e 28	 mov	 ecx, DWORD PTR [esi+40]
  00093	85 c9		 test	 ecx, ecx
  00095	74 09		 je	 SHORT $LN18@operator
  00097	8b 01		 mov	 eax, DWORD PTR [ecx]
  00099	51		 push	 ecx
  0009a	ff 50 04	 call	 DWORD PTR [eax+4]
  0009d	8b 4e 28	 mov	 ecx, DWORD PTR [esi+40]
$LN18@operator:

; 928  : 	m_pIChartManager = modifyData.GetIChartManager();

  000a0	89 4f 28	 mov	 DWORD PTR [edi+40], ecx

; 929  : 
; 930  : 	m_blockIndex.SetRow(modifyData.GetBlockIndex().GetRow());

  000a3	8b 46 2c	 mov	 eax, DWORD PTR [esi+44]
  000a6	89 47 2c	 mov	 DWORD PTR [edi+44], eax

; 1135 : 	return m_blockIndex;

  000a9	8b 4e 30	 mov	 ecx, DWORD PTR [esi+48]

; 931  : 	m_blockIndex.SetColumn(modifyData.GetBlockIndex().GetColumn());

  000ac	89 4f 30	 mov	 DWORD PTR [edi+48], ecx
$LN25@operator:

; 932  : 
; 933  : 	return *this;
; 934  : }

  000af	8b c7		 mov	 eax, edi
  000b1	8b 4d f4	 mov	 ecx, DWORD PTR __$EHRec$[ebp]
  000b4	64 89 0d 00 00
	00 00		 mov	 DWORD PTR fs:0, ecx
  000bb	59		 pop	 ecx
  000bc	5f		 pop	 edi
  000bd	5e		 pop	 esi
  000be	8b e5		 mov	 esp, ebp
  000c0	5d		 pop	 ebp
  000c1	c2 04 00	 ret	 4
_TEXT	ENDS
;	COMDAT text$x
text$x	SEGMENT
__unwindfunclet$??4CElementModifyData@@QAEAAV0@ABV0@@Z$0:
  00000	8d 4d cc	 lea	 ecx, DWORD PTR $T2[ebp]
  00003	e9 00 00 00 00	 jmp	 ??1CCoordinate@@QAE@XZ
  00008	cc		 int	 3
  00009	cc		 int	 3
  0000a	cc		 int	 3
  0000b	cc		 int	 3
  0000c	cc		 int	 3
__ehhandler$??4CElementModifyData@@QAEAAV0@ABV0@@Z:
  0000d	90		 npad	 1
  0000e	90		 npad	 1
  0000f	8b 54 24 08	 mov	 edx, DWORD PTR [esp+8]
  00013	8d 42 0c	 lea	 eax, DWORD PTR [edx+12]
  00016	8b 4a cc	 mov	 ecx, DWORD PTR [edx-52]
  00019	33 c8		 xor	 ecx, eax
  0001b	e8 00 00 00 00	 call	 @__security_check_cookie@4
  00020	b8 00 00 00 00	 mov	 eax, OFFSET __ehfuncinfo$??4CElementModifyData@@QAEAAV0@ABV0@@Z
  00025	e9 00 00 00 00	 jmp	 ___CxxFrameHandler3
text$x	ENDS
??4CElementModifyData@@QAEAAV0@ABV0@@Z ENDP		; CElementModifyData::operator=
; Function compile flags: /Ogtp
; File D:\git\src\IBK\IBK_DRFN\ProjSrc\SrcChartEx\ChartAddIn\ChartAnalysisToolAddIn\AnalysisTool\AnalysisData.cpp
;	COMDAT ??1CElementModifyData@@QAE@XZ
_TEXT	SEGMENT
__$EHRec$ = -12						; size = 12
??1CElementModifyData@@QAE@XZ PROC			; CElementModifyData::~CElementModifyData, COMDAT
; _this$ = ecx

; 910  : {

  00000	55		 push	 ebp
  00001	8b ec		 mov	 ebp, esp
  00003	6a ff		 push	 -1
  00005	68 00 00 00 00	 push	 __ehhandler$??1CElementModifyData@@QAE@XZ
  0000a	64 a1 00 00 00
	00		 mov	 eax, DWORD PTR fs:0
  00010	50		 push	 eax
  00011	56		 push	 esi
  00012	a1 00 00 00 00	 mov	 eax, DWORD PTR ___security_cookie
  00017	33 c5		 xor	 eax, ebp
  00019	50		 push	 eax
  0001a	8d 45 f4	 lea	 eax, DWORD PTR __$EHRec$[ebp]
  0001d	64 a3 00 00 00
	00		 mov	 DWORD PTR fs:0, eax
  00023	8b f1		 mov	 esi, ecx

; 911  : 	if( m_pIPacket_x) m_pIPacket_x->Release();

  00025	8b 4e 04	 mov	 ecx, DWORD PTR [esi+4]
  00028	85 c9		 test	 ecx, ecx
  0002a	74 06		 je	 SHORT $LN2@CElementMo
  0002c	8b 01		 mov	 eax, DWORD PTR [ecx]
  0002e	51		 push	 ecx
  0002f	ff 50 08	 call	 DWORD PTR [eax+8]
$LN2@CElementMo:

; 912  : 	if( m_pIChartManager) m_pIChartManager->Release();					// XScale :  Interface  - vntsorl(20070327)

  00032	8b 4e 28	 mov	 ecx, DWORD PTR [esi+40]
  00035	85 c9		 test	 ecx, ecx
  00037	74 06		 je	 SHORT $LN3@CElementMo
  00039	8b 01		 mov	 eax, DWORD PTR [ecx]
  0003b	51		 push	 ecx
  0003c	ff 50 08	 call	 DWORD PTR [eax+8]
$LN3@CElementMo:
  0003f	8d 4e 1c	 lea	 ecx, DWORD PTR [esi+28]
  00042	ff 15 00 00 00
	00		 call	 DWORD PTR __imp_??1?$CStringT@DV?$StrTraitMFC_DLL@DV?$ChTraitsCRT@D@ATL@@@@@ATL@@QAE@XZ

; 913  : }

  00048	8b 4d f4	 mov	 ecx, DWORD PTR __$EHRec$[ebp]
  0004b	64 89 0d 00 00
	00 00		 mov	 DWORD PTR fs:0, ecx
  00052	59		 pop	 ecx
  00053	5e		 pop	 esi
  00054	8b e5		 mov	 esp, ebp
  00056	5d		 pop	 ebp
  00057	c3		 ret	 0
  00058	cc		 int	 3
  00059	cc		 int	 3
  0005a	cc		 int	 3
  0005b	cc		 int	 3
  0005c	cc		 int	 3
_TEXT	ENDS
;	COMDAT text$x
text$x	SEGMENT
__ehhandler$??1CElementModifyData@@QAE@XZ:
  00000	90		 npad	 1
  00001	90		 npad	 1
  00002	8b 54 24 08	 mov	 edx, DWORD PTR [esp+8]
  00006	8d 42 0c	 lea	 eax, DWORD PTR [edx+12]
  00009	8b 4a f8	 mov	 ecx, DWORD PTR [edx-8]
  0000c	33 c8		 xor	 ecx, eax
  0000e	e8 00 00 00 00	 call	 @__security_check_cookie@4
  00013	b8 00 00 00 00	 mov	 eax, OFFSET __ehfuncinfo$??1CElementModifyData@@QAE@XZ
  00018	e9 00 00 00 00	 jmp	 ___CxxFrameHandler3
text$x	ENDS
??1CElementModifyData@@QAE@XZ ENDP			; CElementModifyData::~CElementModifyData
; Function compile flags: /Ogtp
; File D:\git\src\IBK\IBK_DRFN\ProjSrc\SrcChartEx\ChartAddIn\ChartAnalysisToolAddIn\AnalysisTool\AnalysisData.cpp
; File D:\git\src\IBK\IBK_DRFN\ProjSrc\SrcChartEx\ChartAddIn\ChartAnalysisToolAddIn\Include_Chart\BlockBaseData.h
; File D:\git\src\IBK\IBK_DRFN\ProjSrc\SrcChartEx\ChartAddIn\ChartAnalysisToolAddIn\AnalysisTool\AnalysisData.cpp
;	COMDAT ??0CElementModifyData@@QAE@ABV0@@Z
_TEXT	SEGMENT
$T2 = -52						; size = 32
_this$ = -16						; size = 4
__$EHRec$ = -12						; size = 12
_modifyData$ = 8					; size = 4
??0CElementModifyData@@QAE@ABV0@@Z PROC			; CElementModifyData::CElementModifyData, COMDAT
; _this$ = ecx

; 900  : {

  00000	55		 push	 ebp
  00001	8b ec		 mov	 ebp, esp
  00003	6a ff		 push	 -1
  00005	68 00 00 00 00	 push	 __ehhandler$??0CElementModifyData@@QAE@ABV0@@Z
  0000a	64 a1 00 00 00
	00		 mov	 eax, DWORD PTR fs:0
  00010	50		 push	 eax
  00011	83 ec 28	 sub	 esp, 40			; 00000028H
  00014	53		 push	 ebx
  00015	56		 push	 esi
  00016	57		 push	 edi
  00017	a1 00 00 00 00	 mov	 eax, DWORD PTR ___security_cookie
  0001c	33 c5		 xor	 eax, ebp
  0001e	50		 push	 eax
  0001f	8d 45 f4	 lea	 eax, DWORD PTR __$EHRec$[ebp]
  00022	64 a3 00 00 00
	00		 mov	 DWORD PTR fs:0, eax
  00028	8b f1		 mov	 esi, ecx
  0002a	89 75 f0	 mov	 DWORD PTR _this$[ebp], esi
  0002d	8d 4e 08	 lea	 ecx, DWORD PTR [esi+8]
  00030	e8 00 00 00 00	 call	 ??0CCoordinate@@QAE@XZ	; CCoordinate::CCoordinate

; 901  : 	m_modifyType = modifyData.GetModifyType();

  00035	8b 7d 08	 mov	 edi, DWORD PTR _modifyData$[ebp]
; File D:\git\src\IBK\IBK_DRFN\ProjSrc\SrcChartEx\ChartAddIn\ChartAnalysisToolAddIn\Include_Chart\BlockBaseData.h

; 19   : 	CBlockIndex() { m_nRow = m_nColumn = -1; };

  00038	c7 46 30 ff ff
	ff ff		 mov	 DWORD PTR [esi+48], -1
  0003f	c7 46 2c ff ff
	ff ff		 mov	 DWORD PTR [esi+44], -1
; File D:\git\src\IBK\IBK_DRFN\ProjSrc\SrcChartEx\ChartAddIn\ChartAnalysisToolAddIn\AnalysisTool\AnalysisData.cpp

; 900  : {

  00046	c7 45 fc 00 00
	00 00		 mov	 DWORD PTR __$EHRec$[ebp+8], 0

; 901  : 	m_modifyType = modifyData.GetModifyType();

  0004d	8b 07		 mov	 eax, DWORD PTR [edi]
  0004f	89 06		 mov	 DWORD PTR [esi], eax

; 970  : 	if( m_pIPacket_x) m_pIPacket_x->AddRef();

  00051	8b 4f 04	 mov	 ecx, DWORD PTR [edi+4]
  00054	85 c9		 test	 ecx, ecx
  00056	74 09		 je	 SHORT $LN8@CElementMo
  00058	8b 01		 mov	 eax, DWORD PTR [ecx]
  0005a	51		 push	 ecx
  0005b	ff 50 04	 call	 DWORD PTR [eax+4]
  0005e	8b 4f 04	 mov	 ecx, DWORD PTR [edi+4]
$LN8@CElementMo:

; 976  : 	return m_modifyPoint;

  00061	8d 47 08	 lea	 eax, DWORD PTR [edi+8]

; 902  : 	m_pIPacket_x = modifyData.GetPacket_X();

  00064	89 4e 04	 mov	 DWORD PTR [esi+4], ecx

; 976  : 	return m_modifyPoint;

  00067	50		 push	 eax
  00068	8d 4d cc	 lea	 ecx, DWORD PTR $T2[ebp]
  0006b	e8 00 00 00 00	 call	 ??0CCoordinate@@QAE@ABV0@@Z ; CCoordinate::CCoordinate

; 903  : 	m_modifyPoint = modifyData.GetPoint();

  00070	8d 45 cc	 lea	 eax, DWORD PTR $T2[ebp]
  00073	c6 45 fc 01	 mov	 BYTE PTR __$EHRec$[ebp+8], 1
  00077	50		 push	 eax
  00078	8d 4e 08	 lea	 ecx, DWORD PTR [esi+8]
  0007b	e8 00 00 00 00	 call	 ??4CCoordinate@@QAEAAV0@ABV0@@Z ; CCoordinate::operator=
  00080	8d 4d e0	 lea	 ecx, DWORD PTR $T2[ebp+20]
  00083	c6 45 fc 00	 mov	 BYTE PTR __$EHRec$[ebp+8], 0
  00087	ff 15 00 00 00
	00		 call	 DWORD PTR __imp_??1?$CStringT@DV?$StrTraitMFC_DLL@DV?$ChTraitsCRT@D@ATL@@@@@ATL@@QAE@XZ

; 1124 : 	if( m_pIChartManager) m_pIChartManager->AddRef();

  0008d	8b 4f 28	 mov	 ecx, DWORD PTR [edi+40]
  00090	85 c9		 test	 ecx, ecx
  00092	74 09		 je	 SHORT $LN18@CElementMo
  00094	8b 01		 mov	 eax, DWORD PTR [ecx]
  00096	51		 push	 ecx
  00097	ff 50 04	 call	 DWORD PTR [eax+4]
  0009a	8b 4f 28	 mov	 ecx, DWORD PTR [edi+40]
$LN18@CElementMo:

; 904  : 	m_pIChartManager = modifyData.GetIChartManager();					// XScale :  Interface  - vntsorl(20070327)

  0009d	89 4e 28	 mov	 DWORD PTR [esi+40], ecx

; 905  : 	m_blockIndex.SetRow(modifyData.GetBlockIndex().GetRow());

  000a0	8b 47 2c	 mov	 eax, DWORD PTR [edi+44]
  000a3	89 46 2c	 mov	 DWORD PTR [esi+44], eax

; 907  : }

  000a6	8b c6		 mov	 eax, esi

; 1135 : 	return m_blockIndex;

  000a8	8b 4f 30	 mov	 ecx, DWORD PTR [edi+48]

; 906  : 	m_blockIndex.SetColumn(modifyData.GetBlockIndex().GetColumn());

  000ab	89 4e 30	 mov	 DWORD PTR [esi+48], ecx

; 907  : }

  000ae	8b 4d f4	 mov	 ecx, DWORD PTR __$EHRec$[ebp]
  000b1	64 89 0d 00 00
	00 00		 mov	 DWORD PTR fs:0, ecx
  000b8	59		 pop	 ecx
  000b9	5f		 pop	 edi
  000ba	5e		 pop	 esi
  000bb	5b		 pop	 ebx
  000bc	8b e5		 mov	 esp, ebp
  000be	5d		 pop	 ebp
  000bf	c2 04 00	 ret	 4
_TEXT	ENDS
;	COMDAT text$x
text$x	SEGMENT
__unwindfunclet$??0CElementModifyData@@QAE@ABV0@@Z$0:
  00000	8b 4d f0	 mov	 ecx, DWORD PTR _this$[ebp]
  00003	83 c1 08	 add	 ecx, 8
  00006	e9 00 00 00 00	 jmp	 ??1CCoordinate@@QAE@XZ
__unwindfunclet$??0CElementModifyData@@QAE@ABV0@@Z$1:
  0000b	8d 4d cc	 lea	 ecx, DWORD PTR $T2[ebp]
  0000e	e9 00 00 00 00	 jmp	 ??1CCoordinate@@QAE@XZ
  00013	cc		 int	 3
  00014	cc		 int	 3
  00015	cc		 int	 3
  00016	cc		 int	 3
  00017	cc		 int	 3
__ehhandler$??0CElementModifyData@@QAE@ABV0@@Z:
  00018	90		 npad	 1
  00019	90		 npad	 1
  0001a	8b 54 24 08	 mov	 edx, DWORD PTR [esp+8]
  0001e	8d 42 0c	 lea	 eax, DWORD PTR [edx+12]
  00021	8b 4a c8	 mov	 ecx, DWORD PTR [edx-56]
  00024	33 c8		 xor	 ecx, eax
  00026	e8 00 00 00 00	 call	 @__security_check_cookie@4
  0002b	b8 00 00 00 00	 mov	 eax, OFFSET __ehfuncinfo$??0CElementModifyData@@QAE@ABV0@@Z
  00030	e9 00 00 00 00	 jmp	 ___CxxFrameHandler3
text$x	ENDS
??0CElementModifyData@@QAE@ABV0@@Z ENDP			; CElementModifyData::CElementModifyData
; Function compile flags: /Ogtp
; File D:\git\src\IBK\IBK_DRFN\ProjSrc\SrcChartEx\ChartAddIn\ChartAnalysisToolAddIn\AnalysisTool\AnalysisData.cpp
; File D:\git\src\IBK\IBK_DRFN\ProjSrc\SrcChartEx\ChartAddIn\ChartAnalysisToolAddIn\Include_Chart\BlockBaseData.h
; File D:\git\src\IBK\IBK_DRFN\ProjSrc\SrcChartEx\ChartAddIn\ChartAnalysisToolAddIn\AnalysisTool\AnalysisData.cpp
;	COMDAT ??0CElementModifyData@@QAE@XZ
_TEXT	SEGMENT
_this$ = -4						; size = 4
??0CElementModifyData@@QAE@XZ PROC			; CElementModifyData::CElementModifyData, COMDAT
; _this$ = ecx

; 896  : {

  00000	55		 push	 ebp
  00001	8b ec		 mov	 ebp, esp
  00003	51		 push	 ecx
  00004	56		 push	 esi
  00005	8b f1		 mov	 esi, ecx
  00007	89 75 fc	 mov	 DWORD PTR _this$[ebp], esi
  0000a	8d 4e 08	 lea	 ecx, DWORD PTR [esi+8]
  0000d	c7 06 00 00 00
	00		 mov	 DWORD PTR [esi], 0
  00013	c7 46 04 00 00
	00 00		 mov	 DWORD PTR [esi+4], 0
  0001a	e8 00 00 00 00	 call	 ??0CCoordinate@@QAE@XZ	; CCoordinate::CCoordinate

; 895  : 	m_pIChartManager(NULL)												// XScale :  Interface  - vntsorl(20070327)

  0001f	c7 46 28 00 00
	00 00		 mov	 DWORD PTR [esi+40], 0

; 897  : }

  00026	8b c6		 mov	 eax, esi
; File D:\git\src\IBK\IBK_DRFN\ProjSrc\SrcChartEx\ChartAddIn\ChartAnalysisToolAddIn\Include_Chart\BlockBaseData.h

; 19   : 	CBlockIndex() { m_nRow = m_nColumn = -1; };

  00028	c7 46 30 ff ff
	ff ff		 mov	 DWORD PTR [esi+48], -1
  0002f	c7 46 2c ff ff
	ff ff		 mov	 DWORD PTR [esi+44], -1
; File D:\git\src\IBK\IBK_DRFN\ProjSrc\SrcChartEx\ChartAddIn\ChartAnalysisToolAddIn\AnalysisTool\AnalysisData.cpp

; 897  : }

  00036	5e		 pop	 esi
  00037	8b e5		 mov	 esp, ebp
  00039	5d		 pop	 ebp
  0003a	c3		 ret	 0
??0CElementModifyData@@QAE@XZ ENDP			; CElementModifyData::CElementModifyData
_TEXT	ENDS
; Function compile flags: /Ogtp
; File D:\git\src\IBK\IBK_DRFN\ProjSrc\SrcChartEx\ChartAddIn\ChartAnalysisToolAddIn\AnalysisTool\AnalysisData.cpp
; File C:\Program Files (x86)\Microsoft Visual Studio\2019\Community\VC\Tools\MSVC\14.29.30133\atlmfc\include\atltypes.h
; File D:\git\src\IBK\IBK_DRFN\ProjSrc\SrcChartEx\ChartAddIn\ChartAnalysisToolAddIn\AnalysisTool\AnalysisData.cpp
; File C:\Program Files (x86)\Microsoft Visual Studio\2019\Community\VC\Tools\MSVC\14.29.30133\atlmfc\include\atltypes.h
; File D:\git\src\IBK\IBK_DRFN\ProjSrc\SrcChartEx\ChartAddIn\ChartAnalysisToolAddIn\AnalysisTool\AnalysisData.cpp
;	COMDAT ?GetFullGraphRegion@CExtractingDataOfModifyType@@ABE?AVCRect@@H@Z
_TEXT	SEGMENT
$T1 = -100						; size = 96
__$ArrayPad$ = -4					; size = 4
___$ReturnUdt$ = 8					; size = 4
_nIndex$ = 12						; size = 4
?GetFullGraphRegion@CExtractingDataOfModifyType@@ABE?AVCRect@@H@Z PROC ; CExtractingDataOfModifyType::GetFullGraphRegion, COMDAT
; _this$ = ecx

; 857  : {

  00000	55		 push	 ebp
  00001	8b ec		 mov	 ebp, esp
  00003	83 ec 64	 sub	 esp, 100		; 00000064H
  00006	a1 00 00 00 00	 mov	 eax, DWORD PTR ___security_cookie
  0000b	33 c5		 xor	 eax, ebp
  0000d	89 45 fc	 mov	 DWORD PTR __$ArrayPad$[ebp], eax

; 858  : 	if(m_pDrawingRegions == NULL)

  00010	8b 49 04	 mov	 ecx, DWORD PTR [ecx+4]
  00013	56		 push	 esi
  00014	8b 75 08	 mov	 esi, DWORD PTR ___$ReturnUdt$[ebp]
  00017	85 c9		 test	 ecx, ecx
  00019	75 1e		 jne	 SHORT $LN2@GetFullGra
; File C:\Program Files (x86)\Microsoft Visual Studio\2019\Community\VC\Tools\MSVC\14.29.30133\atlmfc\include\atltypes.h

; 540  : 	left = l;

  0001b	89 0e		 mov	 DWORD PTR [esi], ecx
; File D:\git\src\IBK\IBK_DRFN\ProjSrc\SrcChartEx\ChartAddIn\ChartAnalysisToolAddIn\AnalysisTool\AnalysisData.cpp

; 862  : }

  0001d	8b c6		 mov	 eax, esi
; File C:\Program Files (x86)\Microsoft Visual Studio\2019\Community\VC\Tools\MSVC\14.29.30133\atlmfc\include\atltypes.h

; 541  : 	top = t;

  0001f	89 4e 04	 mov	 DWORD PTR [esi+4], ecx

; 542  : 	right = r;

  00022	89 4e 08	 mov	 DWORD PTR [esi+8], ecx

; 543  : 	bottom = b;

  00025	89 4e 0c	 mov	 DWORD PTR [esi+12], ecx
  00028	5e		 pop	 esi
; File D:\git\src\IBK\IBK_DRFN\ProjSrc\SrcChartEx\ChartAddIn\ChartAnalysisToolAddIn\AnalysisTool\AnalysisData.cpp

; 862  : }

  00029	8b 4d fc	 mov	 ecx, DWORD PTR __$ArrayPad$[ebp]
  0002c	33 cd		 xor	 ecx, ebp
  0002e	e8 00 00 00 00	 call	 @__security_check_cookie@4
  00033	8b e5		 mov	 esp, ebp
  00035	5d		 pop	 ebp
  00036	c2 08 00	 ret	 8
$LN2@GetFullGra:

; 434  : 	return m_blockRegionList.GetAt(nIndex);

  00039	ff 75 0c	 push	 DWORD PTR _nIndex$[ebp]
  0003c	8d 45 9c	 lea	 eax, DWORD PTR $T1[ebp]
  0003f	50		 push	 eax
  00040	e8 00 00 00 00	 call	 ?GetAt@CBlockRegionList@@QBE?AVCBlockRegion@@H@Z ; CBlockRegionList::GetAt

; 459  : 	return GetBlockRegion(nIndex).GetFullGraphRegion();

  00045	56		 push	 esi
  00046	8d 4d 9c	 lea	 ecx, DWORD PTR $T1[ebp]
  00049	e8 00 00 00 00	 call	 ?GetFullGraphRegion@CBlockRegion@@QBE?AVCRect@@XZ ; CBlockRegion::GetFullGraphRegion

; 862  : }

  0004e	8b 4d fc	 mov	 ecx, DWORD PTR __$ArrayPad$[ebp]
  00051	8b c6		 mov	 eax, esi
  00053	33 cd		 xor	 ecx, ebp
  00055	5e		 pop	 esi
  00056	e8 00 00 00 00	 call	 @__security_check_cookie@4
  0005b	8b e5		 mov	 esp, ebp
  0005d	5d		 pop	 ebp
  0005e	c2 08 00	 ret	 8
?GetFullGraphRegion@CExtractingDataOfModifyType@@ABE?AVCRect@@H@Z ENDP ; CExtractingDataOfModifyType::GetFullGraphRegion
_TEXT	ENDS
; Function compile flags: /Ogtp
; File D:\git\src\IBK\IBK_DRFN\ProjSrc\SrcChartEx\ChartAddIn\ChartAnalysisToolAddIn\AnalysisTool\AnalysisData.cpp
;	COMDAT ?GetBlockRegion@CExtractingDataOfModifyType@@ABE?AVCBlockRegion@@H@Z
_TEXT	SEGMENT
___$ReturnUdt$ = 8					; size = 4
_nIndex$ = 12						; size = 4
?GetBlockRegion@CExtractingDataOfModifyType@@ABE?AVCBlockRegion@@H@Z PROC ; CExtractingDataOfModifyType::GetBlockRegion, COMDAT
; _this$ = ecx

; 841  : {

  00000	55		 push	 ebp
  00001	8b ec		 mov	 ebp, esp

; 842  : 	if(m_pDrawingRegions == NULL)

  00003	8b 49 04	 mov	 ecx, DWORD PTR [ecx+4]
  00006	56		 push	 esi
  00007	85 c9		 test	 ecx, ecx
  00009	75 10		 jne	 SHORT $LN2@GetBlockRe

; 843  : 		return CBlockRegion();

  0000b	8b 4d 08	 mov	 ecx, DWORD PTR ___$ReturnUdt$[ebp]
  0000e	e8 00 00 00 00	 call	 ??0CBlockRegion@@QAE@XZ	; CBlockRegion::CBlockRegion
  00013	8b 45 08	 mov	 eax, DWORD PTR ___$ReturnUdt$[ebp]
  00016	5e		 pop	 esi

; 846  : }

  00017	5d		 pop	 ebp
  00018	c2 08 00	 ret	 8
$LN2@GetBlockRe:

; 434  : 	return m_blockRegionList.GetAt(nIndex);

  0001b	ff 75 0c	 push	 DWORD PTR _nIndex$[ebp]
  0001e	8b 75 08	 mov	 esi, DWORD PTR ___$ReturnUdt$[ebp]
  00021	56		 push	 esi
  00022	e8 00 00 00 00	 call	 ?GetAt@CBlockRegionList@@QBE?AVCBlockRegion@@H@Z ; CBlockRegionList::GetAt

; 844  : 
; 845  : 	return m_pDrawingRegions->GetBlockRegion(nIndex);

  00027	8b c6		 mov	 eax, esi
  00029	5e		 pop	 esi

; 846  : }

  0002a	5d		 pop	 ebp
  0002b	c2 08 00	 ret	 8
?GetBlockRegion@CExtractingDataOfModifyType@@ABE?AVCBlockRegion@@H@Z ENDP ; CExtractingDataOfModifyType::GetBlockRegion
_TEXT	ENDS
; Function compile flags: /Ogtp
; File D:\git\src\IBK\IBK_DRFN\ProjSrc\SrcChartEx\ChartAddIn\ChartAnalysisToolAddIn\AnalysisTool\AnalysisData.cpp
; File C:\Program Files (x86)\Microsoft Visual Studio\2019\Community\VC\Tools\MSVC\14.29.30133\atlmfc\include\atltypes.h
; File D:\git\src\IBK\IBK_DRFN\ProjSrc\SrcChartEx\ChartAddIn\ChartAnalysisToolAddIn\AnalysisTool\AnalysisData.cpp
;	COMDAT ?IsPointInRowSetRegion@CExtractingDataOfModifyType@@QBE_NXZ
_TEXT	SEGMENT
$T1 = -116						; size = 96
$T2 = -20						; size = 16
__$ArrayPad$ = -4					; size = 4
?IsPointInRowSetRegion@CExtractingDataOfModifyType@@QBE_NXZ PROC ; CExtractingDataOfModifyType::IsPointInRowSetRegion, COMDAT
; _this$ = ecx

; 882  : {

  00000	55		 push	 ebp
  00001	8b ec		 mov	 ebp, esp
  00003	83 ec 74	 sub	 esp, 116		; 00000074H
  00006	a1 00 00 00 00	 mov	 eax, DWORD PTR ___security_cookie
  0000b	33 c5		 xor	 eax, ebp
  0000d	89 45 fc	 mov	 DWORD PTR __$ArrayPad$[ebp], eax
  00010	53		 push	 ebx
  00011	8b d9		 mov	 ebx, ecx

; 877  : 	return (m_pDrawingRegions != NULL && m_pDrawingRegions->GetCount() > 0);

  00013	8b 4b 04	 mov	 ecx, DWORD PTR [ebx+4]
  00016	85 c9		 test	 ecx, ecx
  00018	74 4d		 je	 SHORT $LN16@IsPointInR

; 454  : 	return m_blockRegionList.GetCount();

  0001a	e8 00 00 00 00	 call	 ?GetCount@CBlockRegionList@@QBEHXZ ; CBlockRegionList::GetCount

; 877  : 	return (m_pDrawingRegions != NULL && m_pDrawingRegions->GetCount() > 0);

  0001f	85 c0		 test	 eax, eax
  00021	7e 44		 jle	 SHORT $LN16@IsPointInR

; 434  : 	return m_blockRegionList.GetAt(nIndex);

  00023	8b 4b 04	 mov	 ecx, DWORD PTR [ebx+4]
  00026	8d 45 8c	 lea	 eax, DWORD PTR $T1[ebp]

; 886  : 	return ( m_pDrawingRegions->GetFullGraphRegion(m_nRowSetIndex).PtInRect(m_mousePoint) ? true : false);

  00029	56		 push	 esi
  0002a	8b 73 0c	 mov	 esi, DWORD PTR [ebx+12]
  0002d	57		 push	 edi

; 434  : 	return m_blockRegionList.GetAt(nIndex);

  0002e	ff 33		 push	 DWORD PTR [ebx]

; 886  : 	return ( m_pDrawingRegions->GetFullGraphRegion(m_nRowSetIndex).PtInRect(m_mousePoint) ? true : false);

  00030	8b 7b 08	 mov	 edi, DWORD PTR [ebx+8]

; 434  : 	return m_blockRegionList.GetAt(nIndex);

  00033	50		 push	 eax
  00034	e8 00 00 00 00	 call	 ?GetAt@CBlockRegionList@@QBE?AVCBlockRegion@@H@Z ; CBlockRegionList::GetAt

; 459  : 	return GetBlockRegion(nIndex).GetFullGraphRegion();

  00039	8d 45 ec	 lea	 eax, DWORD PTR $T2[ebp]
  0003c	50		 push	 eax
  0003d	8d 4d 8c	 lea	 ecx, DWORD PTR $T1[ebp]
  00040	e8 00 00 00 00	 call	 ?GetFullGraphRegion@CBlockRegion@@QBE?AVCRect@@XZ ; CBlockRegion::GetFullGraphRegion
; File C:\Program Files (x86)\Microsoft Visual Studio\2019\Community\VC\Tools\MSVC\14.29.30133\atlmfc\include\atltypes.h

; 648  : 	return ::PtInRect(this, point);

  00045	56		 push	 esi
  00046	57		 push	 edi
  00047	8d 45 ec	 lea	 eax, DWORD PTR $T2[ebp]
  0004a	50		 push	 eax
  0004b	ff 15 00 00 00
	00		 call	 DWORD PTR __imp__PtInRect@12
; File D:\git\src\IBK\IBK_DRFN\ProjSrc\SrcChartEx\ChartAddIn\ChartAnalysisToolAddIn\AnalysisTool\AnalysisData.cpp

; 886  : 	return ( m_pDrawingRegions->GetFullGraphRegion(m_nRowSetIndex).PtInRect(m_mousePoint) ? true : false);

  00051	5f		 pop	 edi
  00052	85 c0		 test	 eax, eax
  00054	5e		 pop	 esi
  00055	0f 95 c0	 setne	 al
  00058	5b		 pop	 ebx

; 887  : }

  00059	8b 4d fc	 mov	 ecx, DWORD PTR __$ArrayPad$[ebp]
  0005c	33 cd		 xor	 ecx, ebp
  0005e	e8 00 00 00 00	 call	 @__security_check_cookie@4
  00063	8b e5		 mov	 esp, ebp
  00065	5d		 pop	 ebp
  00066	c3		 ret	 0
$LN16@IsPointInR:
  00067	8b 4d fc	 mov	 ecx, DWORD PTR __$ArrayPad$[ebp]
  0006a	32 c0		 xor	 al, al
  0006c	33 cd		 xor	 ecx, ebp
  0006e	5b		 pop	 ebx
  0006f	e8 00 00 00 00	 call	 @__security_check_cookie@4
  00074	8b e5		 mov	 esp, ebp
  00076	5d		 pop	 ebp
  00077	c3		 ret	 0
?IsPointInRowSetRegion@CExtractingDataOfModifyType@@QBE_NXZ ENDP ; CExtractingDataOfModifyType::IsPointInRowSetRegion
_TEXT	ENDS
; Function compile flags: /Ogtp
; File D:\git\src\IBK\IBK_DRFN\ProjSrc\SrcChartEx\ChartAddIn\ChartAnalysisToolAddIn\AnalysisTool\AnalysisData.cpp
;	COMDAT ?IsFindElement@CExtractingDataOfModifyType@@QBE_NXZ
_TEXT	SEGMENT
?IsFindElement@CExtractingDataOfModifyType@@QBE_NXZ PROC ; CExtractingDataOfModifyType::IsFindElement, COMDAT
; _this$ = ecx

; 877  : 	return (m_pDrawingRegions != NULL && m_pDrawingRegions->GetCount() > 0);

  00000	8b 49 04	 mov	 ecx, DWORD PTR [ecx+4]
  00003	85 c9		 test	 ecx, ecx
  00005	74 0c		 je	 SHORT $LN3@IsFindElem

; 454  : 	return m_blockRegionList.GetCount();

  00007	e8 00 00 00 00	 call	 ?GetCount@CBlockRegionList@@QBEHXZ ; CBlockRegionList::GetCount

; 877  : 	return (m_pDrawingRegions != NULL && m_pDrawingRegions->GetCount() > 0);

  0000c	85 c0		 test	 eax, eax
  0000e	7e 03		 jle	 SHORT $LN3@IsFindElem
  00010	b0 01		 mov	 al, 1

; 878  : }

  00012	c3		 ret	 0
$LN3@IsFindElem:

; 877  : 	return (m_pDrawingRegions != NULL && m_pDrawingRegions->GetCount() > 0);

  00013	32 c0		 xor	 al, al

; 878  : }

  00015	c3		 ret	 0
?IsFindElement@CExtractingDataOfModifyType@@QBE_NXZ ENDP ; CExtractingDataOfModifyType::IsFindElement
_TEXT	ENDS
; Function compile flags: /Ogtp
; File D:\git\src\IBK\IBK_DRFN\ProjSrc\SrcChartEx\ChartAddIn\ChartAnalysisToolAddIn\AnalysisTool\AnalysisData.cpp
; File C:\Program Files (x86)\Microsoft Visual Studio\2019\Community\VC\Tools\MSVC\14.29.30133\atlmfc\include\atltypes.h
; File D:\git\src\IBK\IBK_DRFN\ProjSrc\SrcChartEx\ChartAddIn\ChartAnalysisToolAddIn\AnalysisTool\AnalysisData.cpp
; File C:\Program Files (x86)\Microsoft Visual Studio\2019\Community\VC\Tools\MSVC\14.29.30133\atlmfc\include\atltypes.h
; File D:\git\src\IBK\IBK_DRFN\ProjSrc\SrcChartEx\ChartAddIn\ChartAnalysisToolAddIn\AnalysisTool\AnalysisData.cpp
;	COMDAT ?GetFullGraphRegionInMousePoint@CExtractingDataOfModifyType@@QBE?AVCRect@@XZ
_TEXT	SEGMENT
$T1 = -132						; size = 96
$T2 = -36						; size = 32
__$ArrayPad$ = -4					; size = 4
___$ReturnUdt$ = 8					; size = 4
?GetFullGraphRegionInMousePoint@CExtractingDataOfModifyType@@QBE?AVCRect@@XZ PROC ; CExtractingDataOfModifyType::GetFullGraphRegionInMousePoint, COMDAT
; _this$ = ecx

; 866  : {

  00000	55		 push	 ebp
  00001	8b ec		 mov	 ebp, esp
  00003	81 ec 84 00 00
	00		 sub	 esp, 132		; 00000084H
  00009	a1 00 00 00 00	 mov	 eax, DWORD PTR ___security_cookie
  0000e	33 c5		 xor	 eax, ebp
  00010	89 45 fc	 mov	 DWORD PTR __$ArrayPad$[ebp], eax

; 867  : 	if(m_pDrawingRegions == NULL)

  00013	8b 49 04	 mov	 ecx, DWORD PTR [ecx+4]
  00016	56		 push	 esi
  00017	8b 75 08	 mov	 esi, DWORD PTR ___$ReturnUdt$[ebp]
  0001a	85 c9		 test	 ecx, ecx
  0001c	75 1e		 jne	 SHORT $LN2@GetFullGra
; File C:\Program Files (x86)\Microsoft Visual Studio\2019\Community\VC\Tools\MSVC\14.29.30133\atlmfc\include\atltypes.h

; 540  : 	left = l;

  0001e	89 0e		 mov	 DWORD PTR [esi], ecx
; File D:\git\src\IBK\IBK_DRFN\ProjSrc\SrcChartEx\ChartAddIn\ChartAnalysisToolAddIn\AnalysisTool\AnalysisData.cpp

; 871  : }

  00020	8b c6		 mov	 eax, esi
; File C:\Program Files (x86)\Microsoft Visual Studio\2019\Community\VC\Tools\MSVC\14.29.30133\atlmfc\include\atltypes.h

; 541  : 	top = t;

  00022	89 4e 04	 mov	 DWORD PTR [esi+4], ecx

; 542  : 	right = r;

  00025	89 4e 08	 mov	 DWORD PTR [esi+8], ecx

; 543  : 	bottom = b;

  00028	89 4e 0c	 mov	 DWORD PTR [esi+12], ecx
  0002b	5e		 pop	 esi
; File D:\git\src\IBK\IBK_DRFN\ProjSrc\SrcChartEx\ChartAddIn\ChartAnalysisToolAddIn\AnalysisTool\AnalysisData.cpp

; 871  : }

  0002c	8b 4d fc	 mov	 ecx, DWORD PTR __$ArrayPad$[ebp]
  0002f	33 cd		 xor	 ecx, ebp
  00031	e8 00 00 00 00	 call	 @__security_check_cookie@4
  00036	8b e5		 mov	 esp, ebp
  00038	5d		 pop	 ebp
  00039	c2 04 00	 ret	 4
$LN2@GetFullGra:

; 444  : 	return m_blockRegionList.GetCurrentAt().GetGraphPartRegion();

  0003c	8d 45 dc	 lea	 eax, DWORD PTR $T2[ebp]
  0003f	50		 push	 eax
  00040	8d 85 7c ff ff
	ff		 lea	 eax, DWORD PTR $T1[ebp]
  00046	50		 push	 eax
  00047	e8 00 00 00 00	 call	 ?GetCurrentAt@CBlockRegionList@@QBE?AVCBlockRegion@@XZ ; CBlockRegionList::GetCurrentAt
  0004c	8b c8		 mov	 ecx, eax
  0004e	e8 00 00 00 00	 call	 ?GetGraphPartRegion@CBlockRegion@@QBE?AVCGraphPartRegion@@XZ ; CBlockRegion::GetGraphPartRegion

; 475  : 	return GetCurrentGraphPartRegion().GetFull();

  00053	56		 push	 esi
  00054	8d 4d dc	 lea	 ecx, DWORD PTR $T2[ebp]
  00057	e8 00 00 00 00	 call	 ?GetFull@CGraphPartRegion@@QBE?AVCRect@@XZ ; CGraphPartRegion::GetFull

; 871  : }

  0005c	8b 4d fc	 mov	 ecx, DWORD PTR __$ArrayPad$[ebp]
  0005f	8b c6		 mov	 eax, esi
  00061	33 cd		 xor	 ecx, ebp
  00063	5e		 pop	 esi
  00064	e8 00 00 00 00	 call	 @__security_check_cookie@4
  00069	8b e5		 mov	 esp, ebp
  0006b	5d		 pop	 ebp
  0006c	c2 04 00	 ret	 4
?GetFullGraphRegionInMousePoint@CExtractingDataOfModifyType@@QBE?AVCRect@@XZ ENDP ; CExtractingDataOfModifyType::GetFullGraphRegionInMousePoint
_TEXT	ENDS
; Function compile flags: /Ogtp
; File D:\git\src\IBK\IBK_DRFN\ProjSrc\SrcChartEx\ChartAddIn\ChartAnalysisToolAddIn\AnalysisTool\AnalysisData.cpp
;	COMDAT ?GetGraphPartRegion@CExtractingDataOfModifyType@@QBE?AVCGraphPartRegion@@H@Z
_TEXT	SEGMENT
$T1 = -100						; size = 96
__$ArrayPad$ = -4					; size = 4
___$ReturnUdt$ = 8					; size = 4
_nIndex$ = 12						; size = 4
?GetGraphPartRegion@CExtractingDataOfModifyType@@QBE?AVCGraphPartRegion@@H@Z PROC ; CExtractingDataOfModifyType::GetGraphPartRegion, COMDAT
; _this$ = ecx

; 849  : {

  00000	55		 push	 ebp
  00001	8b ec		 mov	 ebp, esp
  00003	83 ec 64	 sub	 esp, 100		; 00000064H
  00006	a1 00 00 00 00	 mov	 eax, DWORD PTR ___security_cookie
  0000b	33 c5		 xor	 eax, ebp
  0000d	89 45 fc	 mov	 DWORD PTR __$ArrayPad$[ebp], eax

; 850  : 	if(m_pDrawingRegions == NULL)

  00010	8b 49 04	 mov	 ecx, DWORD PTR [ecx+4]
  00013	56		 push	 esi
  00014	8b 75 08	 mov	 esi, DWORD PTR ___$ReturnUdt$[ebp]
  00017	85 c9		 test	 ecx, ecx
  00019	75 1a		 jne	 SHORT $LN2@GetGraphPa

; 851  : 		return CGraphPartRegion();

  0001b	8b ce		 mov	 ecx, esi
  0001d	e8 00 00 00 00	 call	 ??0CGraphPartRegion@@QAE@XZ ; CGraphPartRegion::CGraphPartRegion

; 852  : 
; 853  : 	return m_pDrawingRegions->GetGraphPartRegion(nIndex);
; 854  : }

  00022	8b c6		 mov	 eax, esi
  00024	5e		 pop	 esi
  00025	8b 4d fc	 mov	 ecx, DWORD PTR __$ArrayPad$[ebp]
  00028	33 cd		 xor	 ecx, ebp
  0002a	e8 00 00 00 00	 call	 @__security_check_cookie@4
  0002f	8b e5		 mov	 esp, ebp
  00031	5d		 pop	 ebp
  00032	c2 08 00	 ret	 8
$LN2@GetGraphPa:

; 439  : 	return m_blockRegionList.GetAt(nIndex).GetGraphPartRegion();

  00035	56		 push	 esi
  00036	ff 75 0c	 push	 DWORD PTR _nIndex$[ebp]
  00039	8d 45 9c	 lea	 eax, DWORD PTR $T1[ebp]
  0003c	50		 push	 eax
  0003d	e8 00 00 00 00	 call	 ?GetAt@CBlockRegionList@@QBE?AVCBlockRegion@@H@Z ; CBlockRegionList::GetAt
  00042	8b c8		 mov	 ecx, eax
  00044	e8 00 00 00 00	 call	 ?GetGraphPartRegion@CBlockRegion@@QBE?AVCGraphPartRegion@@XZ ; CBlockRegion::GetGraphPartRegion

; 852  : 
; 853  : 	return m_pDrawingRegions->GetGraphPartRegion(nIndex);
; 854  : }

  00049	8b 4d fc	 mov	 ecx, DWORD PTR __$ArrayPad$[ebp]
  0004c	8b c6		 mov	 eax, esi
  0004e	33 cd		 xor	 ecx, ebp
  00050	5e		 pop	 esi
  00051	e8 00 00 00 00	 call	 @__security_check_cookie@4
  00056	8b e5		 mov	 esp, ebp
  00058	5d		 pop	 ebp
  00059	c2 08 00	 ret	 8
?GetGraphPartRegion@CExtractingDataOfModifyType@@QBE?AVCGraphPartRegion@@H@Z ENDP ; CExtractingDataOfModifyType::GetGraphPartRegion
_TEXT	ENDS
; Function compile flags: /Ogtp
; File D:\git\src\IBK\IBK_DRFN\ProjSrc\SrcChartEx\ChartAddIn\ChartAnalysisToolAddIn\AnalysisTool\AnalysisData.cpp
;	COMDAT ?GetDrawingRegionCount@CExtractingDataOfModifyType@@QBEHXZ
_TEXT	SEGMENT
?GetDrawingRegionCount@CExtractingDataOfModifyType@@QBEHXZ PROC ; CExtractingDataOfModifyType::GetDrawingRegionCount, COMDAT
; _this$ = ecx

; 833  : 	if(m_pDrawingRegions == NULL)

  00000	8b 49 04	 mov	 ecx, DWORD PTR [ecx+4]
  00003	85 c9		 test	 ecx, ecx
  00005	75 03		 jne	 SHORT $LN2@GetDrawing

; 834  : 		return 0;

  00007	33 c0		 xor	 eax, eax

; 835  : 
; 836  : 	return m_pDrawingRegions->GetCount();
; 837  : }

  00009	c3		 ret	 0
$LN2@GetDrawing:

; 454  : 	return m_blockRegionList.GetCount();

  0000a	e9 00 00 00 00	 jmp	 ?GetCount@CBlockRegionList@@QBEHXZ ; CBlockRegionList::GetCount
?GetDrawingRegionCount@CExtractingDataOfModifyType@@QBEHXZ ENDP ; CExtractingDataOfModifyType::GetDrawingRegionCount
_TEXT	ENDS
; Function compile flags: /Ogtp
; File D:\git\src\IBK\IBK_DRFN\ProjSrc\SrcChartEx\ChartAddIn\ChartAnalysisToolAddIn\AnalysisTool\AnalysisData.cpp
;	COMDAT ?GetDisplayAttributes@CExtractingDataOfModifyType@@QBE?AVCDisplayAttributes@@XZ
_TEXT	SEGMENT
___$ReturnUdt$ = 8					; size = 4
?GetDisplayAttributes@CExtractingDataOfModifyType@@QBE?AVCDisplayAttributes@@XZ PROC ; CExtractingDataOfModifyType::GetDisplayAttributes, COMDAT
; _this$ = ecx

; 825  : {

  00000	55		 push	 ebp
  00001	8b ec		 mov	 ebp, esp
  00003	56		 push	 esi

; 826  : 	return CDisplayAttributes(m_calData.GetDisplayDataStart(), m_calData.GetDisplayDataEnd());

  00004	8d 71 10	 lea	 esi, DWORD PTR [ecx+16]
  00007	57		 push	 edi
  00008	8b ce		 mov	 ecx, esi
  0000a	e8 00 00 00 00	 call	 ?GetDisplayDataEnd@CCoordinateCalculatorData@@QBEHXZ ; CCoordinateCalculatorData::GetDisplayDataEnd
  0000f	8b ce		 mov	 ecx, esi
  00011	8b f8		 mov	 edi, eax
  00013	e8 00 00 00 00	 call	 ?GetDisplayDataStart@CCoordinateCalculatorData@@QBEHXZ ; CCoordinateCalculatorData::GetDisplayDataStart

; 590  : 	m_nDataStartInBlock(start),

  00018	8b 4d 08	 mov	 ecx, DWORD PTR ___$ReturnUdt$[ebp]

; 591  : 	m_nDataEndInBlock(end)

  0001b	89 79 04	 mov	 DWORD PTR [ecx+4], edi

; 826  : 	return CDisplayAttributes(m_calData.GetDisplayDataStart(), m_calData.GetDisplayDataEnd());

  0001e	5f		 pop	 edi

; 590  : 	m_nDataStartInBlock(start),

  0001f	89 01		 mov	 DWORD PTR [ecx], eax

; 826  : 	return CDisplayAttributes(m_calData.GetDisplayDataStart(), m_calData.GetDisplayDataEnd());

  00021	8b c1		 mov	 eax, ecx
  00023	5e		 pop	 esi

; 827  : }

  00024	5d		 pop	 ebp
  00025	c2 04 00	 ret	 4
?GetDisplayAttributes@CExtractingDataOfModifyType@@QBE?AVCDisplayAttributes@@XZ ENDP ; CExtractingDataOfModifyType::GetDisplayAttributes
_TEXT	ENDS
; Function compile flags: /Ogtp
; File D:\git\src\IBK\IBK_DRFN\ProjSrc\SrcChartEx\ChartAddIn\ChartAnalysisToolAddIn\AnalysisTool\AnalysisData.cpp
;	COMDAT ?GetCoordinateCalculatorData@CExtractingDataOfModifyType@@QAEAAVCCoordinateCalculatorData@@XZ
_TEXT	SEGMENT
?GetCoordinateCalculatorData@CExtractingDataOfModifyType@@QAEAAVCCoordinateCalculatorData@@XZ PROC ; CExtractingDataOfModifyType::GetCoordinateCalculatorData, COMDAT
; _this$ = ecx

; 821  : 	return m_calData;

  00000	8d 41 10	 lea	 eax, DWORD PTR [ecx+16]

; 822  : }

  00003	c3		 ret	 0
?GetCoordinateCalculatorData@CExtractingDataOfModifyType@@QAEAAVCCoordinateCalculatorData@@XZ ENDP ; CExtractingDataOfModifyType::GetCoordinateCalculatorData
_TEXT	ENDS
; Function compile flags: /Ogtp
; File D:\git\src\IBK\IBK_DRFN\ProjSrc\SrcChartEx\ChartAddIn\ChartAnalysisToolAddIn\AnalysisTool\AnalysisData.cpp
;	COMDAT ?GetCoordinateCalculatorData@CExtractingDataOfModifyType@@QBE?AVCCoordinateCalculatorData@@XZ
_TEXT	SEGMENT
___$ReturnUdt$ = 8					; size = 4
?GetCoordinateCalculatorData@CExtractingDataOfModifyType@@QBE?AVCCoordinateCalculatorData@@XZ PROC ; CExtractingDataOfModifyType::GetCoordinateCalculatorData, COMDAT
; _this$ = ecx

; 815  : {

  00000	55		 push	 ebp
  00001	8b ec		 mov	 ebp, esp

; 816  : 	return m_calData;

  00003	8d 41 10	 lea	 eax, DWORD PTR [ecx+16]
  00006	8b 4d 08	 mov	 ecx, DWORD PTR ___$ReturnUdt$[ebp]
  00009	50		 push	 eax
  0000a	e8 00 00 00 00	 call	 ??0CCoordinateCalculatorData@@QAE@ABV0@@Z ; CCoordinateCalculatorData::CCoordinateCalculatorData
  0000f	8b 45 08	 mov	 eax, DWORD PTR ___$ReturnUdt$[ebp]

; 817  : }

  00012	5d		 pop	 ebp
  00013	c2 04 00	 ret	 4
?GetCoordinateCalculatorData@CExtractingDataOfModifyType@@QBE?AVCCoordinateCalculatorData@@XZ ENDP ; CExtractingDataOfModifyType::GetCoordinateCalculatorData
_TEXT	ENDS
; Function compile flags: /Ogtp
; File D:\git\src\IBK\IBK_DRFN\ProjSrc\SrcChartEx\ChartAddIn\ChartAnalysisToolAddIn\AnalysisTool\AnalysisData.cpp
;	COMDAT ?GetMousePoint@CExtractingDataOfModifyType@@QBE?AVCPoint@@XZ
_TEXT	SEGMENT
___$ReturnUdt$ = 8					; size = 4
?GetMousePoint@CExtractingDataOfModifyType@@QBE?AVCPoint@@XZ PROC ; CExtractingDataOfModifyType::GetMousePoint, COMDAT
; _this$ = ecx

; 810  : {

  00000	55		 push	 ebp
  00001	8b ec		 mov	 ebp, esp

; 811  : 	return m_mousePoint;

  00003	8b 45 08	 mov	 eax, DWORD PTR ___$ReturnUdt$[ebp]
  00006	8b 51 08	 mov	 edx, DWORD PTR [ecx+8]
  00009	8b 49 0c	 mov	 ecx, DWORD PTR [ecx+12]
  0000c	89 10		 mov	 DWORD PTR [eax], edx
  0000e	89 48 04	 mov	 DWORD PTR [eax+4], ecx

; 812  : }

  00011	5d		 pop	 ebp
  00012	c2 04 00	 ret	 4
?GetMousePoint@CExtractingDataOfModifyType@@QBE?AVCPoint@@XZ ENDP ; CExtractingDataOfModifyType::GetMousePoint
_TEXT	ENDS
; Function compile flags: /Ogtp
; File D:\git\src\IBK\IBK_DRFN\ProjSrc\SrcChartEx\ChartAddIn\ChartAnalysisToolAddIn\AnalysisTool\AnalysisData.cpp
;	COMDAT ?GetDrawingRegions@CExtractingDataOfModifyType@@QBEPAVCDrawingRegions@@XZ
_TEXT	SEGMENT
?GetDrawingRegions@CExtractingDataOfModifyType@@QBEPAVCDrawingRegions@@XZ PROC ; CExtractingDataOfModifyType::GetDrawingRegions, COMDAT
; _this$ = ecx

; 806  : 	return m_pDrawingRegions;

  00000	8b 41 04	 mov	 eax, DWORD PTR [ecx+4]

; 807  : }

  00003	c3		 ret	 0
?GetDrawingRegions@CExtractingDataOfModifyType@@QBEPAVCDrawingRegions@@XZ ENDP ; CExtractingDataOfModifyType::GetDrawingRegions
_TEXT	ENDS
; Function compile flags: /Ogtp
; File D:\git\src\IBK\IBK_DRFN\ProjSrc\SrcChartEx\ChartAddIn\ChartAnalysisToolAddIn\AnalysisTool\AnalysisData.cpp
;	COMDAT ?GetRowSetIndex@CExtractingDataOfModifyType@@QBEHXZ
_TEXT	SEGMENT
?GetRowSetIndex@CExtractingDataOfModifyType@@QBEHXZ PROC ; CExtractingDataOfModifyType::GetRowSetIndex, COMDAT
; _this$ = ecx

; 800  : 	return m_nRowSetIndex;

  00000	8b 01		 mov	 eax, DWORD PTR [ecx]

; 801  : }

  00002	c3		 ret	 0
?GetRowSetIndex@CExtractingDataOfModifyType@@QBEHXZ ENDP ; CExtractingDataOfModifyType::GetRowSetIndex
_TEXT	ENDS
; Function compile flags: /Ogtp
; File D:\git\src\IBK\IBK_DRFN\ProjSrc\SrcChartEx\ChartAddIn\ChartAnalysisToolAddIn\AnalysisTool\AnalysisData.cpp
;	COMDAT ?SetRowSetIndex@CExtractingDataOfModifyType@@QAEXH@Z
_TEXT	SEGMENT
_nRowSetIndex$ = 8					; size = 4
?SetRowSetIndex@CExtractingDataOfModifyType@@QAEXH@Z PROC ; CExtractingDataOfModifyType::SetRowSetIndex, COMDAT
; _this$ = ecx

; 794  : {

  00000	55		 push	 ebp
  00001	8b ec		 mov	 ebp, esp

; 795  : 	m_nRowSetIndex = nRowSetIndex;

  00003	8b 45 08	 mov	 eax, DWORD PTR _nRowSetIndex$[ebp]
  00006	89 01		 mov	 DWORD PTR [ecx], eax

; 796  : }

  00008	5d		 pop	 ebp
  00009	c2 04 00	 ret	 4
?SetRowSetIndex@CExtractingDataOfModifyType@@QAEXH@Z ENDP ; CExtractingDataOfModifyType::SetRowSetIndex
_TEXT	ENDS
; Function compile flags: /Ogtp
; File D:\git\src\IBK\IBK_DRFN\ProjSrc\SrcChartEx\ChartAddIn\ChartAnalysisToolAddIn\AnalysisTool\AnalysisData.cpp
;	COMDAT ?SetCoordinateCalculatorData@CExtractingDataOfModifyType@@QAEXABVCCoordinateCalculatorData@@@Z
_TEXT	SEGMENT
_calData$ = 8						; size = 4
?SetCoordinateCalculatorData@CExtractingDataOfModifyType@@QAEXABVCCoordinateCalculatorData@@@Z PROC ; CExtractingDataOfModifyType::SetCoordinateCalculatorData, COMDAT
; _this$ = ecx

; 789  : {

  00000	55		 push	 ebp
  00001	8b ec		 mov	 ebp, esp

; 790  : 	m_calData = calData;

  00003	83 c1 10	 add	 ecx, 16			; 00000010H

; 791  : }

  00006	5d		 pop	 ebp

; 790  : 	m_calData = calData;

  00007	e9 00 00 00 00	 jmp	 ??4CCoordinateCalculatorData@@QAEAAV0@ABV0@@Z ; CCoordinateCalculatorData::operator=
?SetCoordinateCalculatorData@CExtractingDataOfModifyType@@QAEXABVCCoordinateCalculatorData@@@Z ENDP ; CExtractingDataOfModifyType::SetCoordinateCalculatorData
_TEXT	ENDS
; Function compile flags: /Ogtp
; File D:\git\src\IBK\IBK_DRFN\ProjSrc\SrcChartEx\ChartAddIn\ChartAnalysisToolAddIn\AnalysisTool\AnalysisData.cpp
;	COMDAT ??0CExtractingDataOfModifyType@@QAE@PAVCDrawingRegions@@ABVCPoint@@PAUIChartManager133101@@@Z
_TEXT	SEGMENT
_this$ = -4						; size = 4
_pDrawingRegions$ = 8					; size = 4
_point$ = 12						; size = 4
_p_pIChartManager$ = 16					; size = 4
??0CExtractingDataOfModifyType@@QAE@PAVCDrawingRegions@@ABVCPoint@@PAUIChartManager133101@@@Z PROC ; CExtractingDataOfModifyType::CExtractingDataOfModifyType, COMDAT
; _this$ = ecx

; 784  : {

  00000	55		 push	 ebp
  00001	8b ec		 mov	 ebp, esp
  00003	51		 push	 ecx

; 781  : 	m_pDrawingRegions(pDrawingRegions),

  00004	8b 45 08	 mov	 eax, DWORD PTR _pDrawingRegions$[ebp]
  00007	56		 push	 esi

; 782  : 	m_mousePoint(point),
; 783  : 	m_calData( p_pIChartManager)

  00008	ff 75 10	 push	 DWORD PTR _p_pIChartManager$[ebp]
  0000b	8b f1		 mov	 esi, ecx
  0000d	89 75 fc	 mov	 DWORD PTR _this$[ebp], esi
  00010	89 46 04	 mov	 DWORD PTR [esi+4], eax
  00013	8d 4e 10	 lea	 ecx, DWORD PTR [esi+16]
  00016	8b 45 0c	 mov	 eax, DWORD PTR _point$[ebp]
  00019	c7 06 ff ff ff
	ff		 mov	 DWORD PTR [esi], -1
  0001f	8b 10		 mov	 edx, DWORD PTR [eax]
  00021	8b 40 04	 mov	 eax, DWORD PTR [eax+4]
  00024	89 56 08	 mov	 DWORD PTR [esi+8], edx
  00027	89 46 0c	 mov	 DWORD PTR [esi+12], eax
  0002a	e8 00 00 00 00	 call	 ??0CCoordinateCalculatorData@@QAE@PAUIChartManager133101@@@Z ; CCoordinateCalculatorData::CCoordinateCalculatorData

; 785  : }

  0002f	8b c6		 mov	 eax, esi
  00031	5e		 pop	 esi
  00032	8b e5		 mov	 esp, ebp
  00034	5d		 pop	 ebp
  00035	c2 0c 00	 ret	 12			; 0000000cH
??0CExtractingDataOfModifyType@@QAE@PAVCDrawingRegions@@ABVCPoint@@PAUIChartManager133101@@@Z ENDP ; CExtractingDataOfModifyType::CExtractingDataOfModifyType
_TEXT	ENDS
; Function compile flags: /Ogtp
; File D:\git\src\IBK\IBK_DRFN\ProjSrc\SrcChartEx\ChartAddIn\ChartAnalysisToolAddIn\AnalysisTool\AnalysisData.cpp
; File C:\Program Files (x86)\Microsoft Visual Studio\2019\Community\VC\Tools\MSVC\14.29.30133\atlmfc\include\atltypes.h
; File D:\git\src\IBK\IBK_DRFN\ProjSrc\SrcChartEx\ChartAddIn\ChartAnalysisToolAddIn\AnalysisTool\AnalysisData.cpp
;	COMDAT ??0CExtractingDataOfModifyType@@QAE@PAUIChartManager133101@@@Z
_TEXT	SEGMENT
_this$ = -4						; size = 4
_p_pIChartManager$ = 8					; size = 4
??0CExtractingDataOfModifyType@@QAE@PAUIChartManager133101@@@Z PROC ; CExtractingDataOfModifyType::CExtractingDataOfModifyType, COMDAT
; _this$ = ecx

; 776  : {

  00000	55		 push	 ebp
  00001	8b ec		 mov	 ebp, esp
  00003	51		 push	 ecx
  00004	56		 push	 esi

; 775  : 	m_calData( p_pIChartManager)

  00005	ff 75 08	 push	 DWORD PTR _p_pIChartManager$[ebp]
  00008	8b f1		 mov	 esi, ecx
  0000a	89 75 fc	 mov	 DWORD PTR _this$[ebp], esi
  0000d	c7 06 ff ff ff
	ff		 mov	 DWORD PTR [esi], -1
  00013	8d 4e 10	 lea	 ecx, DWORD PTR [esi+16]
  00016	c7 46 04 00 00
	00 00		 mov	 DWORD PTR [esi+4], 0
; File C:\Program Files (x86)\Microsoft Visual Studio\2019\Community\VC\Tools\MSVC\14.29.30133\atlmfc\include\atltypes.h

; 408  : 	x = initX;

  0001d	c7 46 08 ff ff
	ff 7f		 mov	 DWORD PTR [esi+8], 2147483647 ; 7fffffffH

; 409  : 	y = initY;

  00024	c7 46 0c ff ff
	ff 7f		 mov	 DWORD PTR [esi+12], 2147483647 ; 7fffffffH
; File D:\git\src\IBK\IBK_DRFN\ProjSrc\SrcChartEx\ChartAddIn\ChartAnalysisToolAddIn\AnalysisTool\AnalysisData.cpp

; 775  : 	m_calData( p_pIChartManager)

  0002b	e8 00 00 00 00	 call	 ??0CCoordinateCalculatorData@@QAE@PAUIChartManager133101@@@Z ; CCoordinateCalculatorData::CCoordinateCalculatorData

; 777  : }

  00030	8b c6		 mov	 eax, esi
  00032	5e		 pop	 esi
  00033	8b e5		 mov	 esp, ebp
  00035	5d		 pop	 ebp
  00036	c2 04 00	 ret	 4
??0CExtractingDataOfModifyType@@QAE@PAUIChartManager133101@@@Z ENDP ; CExtractingDataOfModifyType::CExtractingDataOfModifyType
_TEXT	ENDS
; Function compile flags: /Ogtp
; File D:\git\src\IBK\IBK_DRFN\ProjSrc\SrcChartEx\ChartAddIn\ChartAnalysisToolAddIn\AnalysisTool\AnalysisData.cpp
;	COMDAT ??4CExtractingDataOfModifyType@@QAEAAV0@ABV0@@Z
_TEXT	SEGMENT
$T2 = -112						; size = 96
__$ArrayPad$ = -16					; size = 4
__$EHRec$ = -12						; size = 12
_extractingData$ = 8					; size = 4
??4CExtractingDataOfModifyType@@QAEAAV0@ABV0@@Z PROC	; CExtractingDataOfModifyType::operator=, COMDAT
; _this$ = ecx

; 760  : {

  00000	55		 push	 ebp
  00001	8b ec		 mov	 ebp, esp
  00003	6a ff		 push	 -1
  00005	68 00 00 00 00	 push	 __ehhandler$??4CExtractingDataOfModifyType@@QAEAAV0@ABV0@@Z
  0000a	64 a1 00 00 00
	00		 mov	 eax, DWORD PTR fs:0
  00010	50		 push	 eax
  00011	83 ec 64	 sub	 esp, 100		; 00000064H
  00014	a1 00 00 00 00	 mov	 eax, DWORD PTR ___security_cookie
  00019	33 c5		 xor	 eax, ebp
  0001b	89 45 f0	 mov	 DWORD PTR __$ArrayPad$[ebp], eax
  0001e	56		 push	 esi
  0001f	50		 push	 eax
  00020	8d 45 f4	 lea	 eax, DWORD PTR __$EHRec$[ebp]
  00023	64 a3 00 00 00
	00		 mov	 DWORD PTR fs:0, eax
  00029	8b f1		 mov	 esi, ecx
  0002b	8b 55 08	 mov	 edx, DWORD PTR _extractingData$[ebp]

; 761  : 	if(this == &extractingData)

  0002e	3b f2		 cmp	 esi, edx
  00030	74 3d		 je	 SHORT $LN12@operator

; 762  : 		return *this;
; 763  : 
; 764  : 	m_nRowSetIndex = extractingData.GetRowSetIndex();

  00032	8b 02		 mov	 eax, DWORD PTR [edx]
  00034	89 06		 mov	 DWORD PTR [esi], eax

; 765  : 	m_pDrawingRegions = extractingData.GetDrawingRegions();

  00036	8b 42 04	 mov	 eax, DWORD PTR [edx+4]
  00039	89 46 04	 mov	 DWORD PTR [esi+4], eax

; 811  : 	return m_mousePoint;

  0003c	8b 42 08	 mov	 eax, DWORD PTR [edx+8]
  0003f	8b 4a 0c	 mov	 ecx, DWORD PTR [edx+12]

; 766  : 	m_mousePoint = extractingData.GetMousePoint();

  00042	89 46 08	 mov	 DWORD PTR [esi+8], eax

; 816  : 	return m_calData;

  00045	8d 42 10	 lea	 eax, DWORD PTR [edx+16]

; 766  : 	m_mousePoint = extractingData.GetMousePoint();

  00048	89 4e 0c	 mov	 DWORD PTR [esi+12], ecx

; 816  : 	return m_calData;

  0004b	8d 4d 90	 lea	 ecx, DWORD PTR $T2[ebp]
  0004e	50		 push	 eax
  0004f	e8 00 00 00 00	 call	 ??0CCoordinateCalculatorData@@QAE@ABV0@@Z ; CCoordinateCalculatorData::CCoordinateCalculatorData

; 767  : 	m_calData = extractingData.GetCoordinateCalculatorData();

  00054	8d 45 90	 lea	 eax, DWORD PTR $T2[ebp]
  00057	c7 45 fc 00 00
	00 00		 mov	 DWORD PTR __$EHRec$[ebp+8], 0
  0005e	50		 push	 eax
  0005f	8d 4e 10	 lea	 ecx, DWORD PTR [esi+16]
  00062	e8 00 00 00 00	 call	 ??4CCoordinateCalculatorData@@QAEAAV0@ABV0@@Z ; CCoordinateCalculatorData::operator=
  00067	8d 4d 90	 lea	 ecx, DWORD PTR $T2[ebp]
  0006a	e8 00 00 00 00	 call	 ??1CCoordinateCalculatorData@@QAE@XZ ; CCoordinateCalculatorData::~CCoordinateCalculatorData
$LN12@operator:

; 768  : 	return *this;
; 769  : }

  0006f	8b c6		 mov	 eax, esi
  00071	8b 4d f4	 mov	 ecx, DWORD PTR __$EHRec$[ebp]
  00074	64 89 0d 00 00
	00 00		 mov	 DWORD PTR fs:0, ecx
  0007b	59		 pop	 ecx
  0007c	5e		 pop	 esi
  0007d	8b 4d f0	 mov	 ecx, DWORD PTR __$ArrayPad$[ebp]
  00080	33 cd		 xor	 ecx, ebp
  00082	e8 00 00 00 00	 call	 @__security_check_cookie@4
  00087	8b e5		 mov	 esp, ebp
  00089	5d		 pop	 ebp
  0008a	c2 04 00	 ret	 4
_TEXT	ENDS
;	COMDAT text$x
text$x	SEGMENT
__unwindfunclet$??4CExtractingDataOfModifyType@@QAEAAV0@ABV0@@Z$0:
  00000	8d 4d 90	 lea	 ecx, DWORD PTR $T2[ebp]
  00003	e9 00 00 00 00	 jmp	 ??1CCoordinateCalculatorData@@QAE@XZ ; CCoordinateCalculatorData::~CCoordinateCalculatorData
  00008	cc		 int	 3
  00009	cc		 int	 3
  0000a	cc		 int	 3
  0000b	cc		 int	 3
  0000c	cc		 int	 3
__ehhandler$??4CExtractingDataOfModifyType@@QAEAAV0@ABV0@@Z:
  0000d	90		 npad	 1
  0000e	90		 npad	 1
  0000f	8b 54 24 08	 mov	 edx, DWORD PTR [esp+8]
  00013	8d 42 0c	 lea	 eax, DWORD PTR [edx+12]
  00016	8b 4a 94	 mov	 ecx, DWORD PTR [edx-108]
  00019	33 c8		 xor	 ecx, eax
  0001b	e8 00 00 00 00	 call	 @__security_check_cookie@4
  00020	8b 4a fc	 mov	 ecx, DWORD PTR [edx-4]
  00023	33 c8		 xor	 ecx, eax
  00025	e8 00 00 00 00	 call	 @__security_check_cookie@4
  0002a	b8 00 00 00 00	 mov	 eax, OFFSET __ehfuncinfo$??4CExtractingDataOfModifyType@@QAEAAV0@ABV0@@Z
  0002f	e9 00 00 00 00	 jmp	 ___CxxFrameHandler3
text$x	ENDS
??4CExtractingDataOfModifyType@@QAEAAV0@ABV0@@Z ENDP	; CExtractingDataOfModifyType::operator=
; Function compile flags: /Ogtp
; File D:\git\src\IBK\IBK_DRFN\ProjSrc\SrcChartEx\ChartAddIn\ChartAnalysisToolAddIn\AnalysisTool\AnalysisData.cpp
;	COMDAT ?GetCoordinateCalRegion@CDisplayData@@QBE?AVCRect@@XZ
_TEXT	SEGMENT
___$ReturnUdt$ = 8					; size = 4
?GetCoordinateCalRegion@CDisplayData@@QBE?AVCRect@@XZ PROC ; CDisplayData::GetCoordinateCalRegion, COMDAT
; _this$ = ecx

; 752  : {

  00000	55		 push	 ebp
  00001	8b ec		 mov	 ebp, esp

; 753  : 	return m_graphPartRegion.GetUnmixed();

  00003	ff 75 08	 push	 DWORD PTR ___$ReturnUdt$[ebp]
  00006	83 c1 0c	 add	 ecx, 12			; 0000000cH
  00009	e8 00 00 00 00	 call	 ?GetUnmixed@CGraphPartRegion@@QBE?AVCRect@@XZ ; CGraphPartRegion::GetUnmixed
  0000e	8b 45 08	 mov	 eax, DWORD PTR ___$ReturnUdt$[ebp]

; 754  : }

  00011	5d		 pop	 ebp
  00012	c2 04 00	 ret	 4
?GetCoordinateCalRegion@CDisplayData@@QBE?AVCRect@@XZ ENDP ; CDisplayData::GetCoordinateCalRegion
_TEXT	ENDS
; Function compile flags: /Ogtp
; File D:\git\src\IBK\IBK_DRFN\ProjSrc\SrcChartEx\ChartAddIn\ChartAnalysisToolAddIn\AnalysisTool\AnalysisData.cpp
;	COMDAT ?GetDisplayRegion@CDisplayData@@QBE?AVCRect@@XZ
_TEXT	SEGMENT
___$ReturnUdt$ = 8					; size = 4
?GetDisplayRegion@CDisplayData@@QBE?AVCRect@@XZ PROC	; CDisplayData::GetDisplayRegion, COMDAT
; _this$ = ecx

; 747  : {

  00000	55		 push	 ebp
  00001	8b ec		 mov	 ebp, esp

; 748  : 	return m_graphPartRegion.GetFull();

  00003	ff 75 08	 push	 DWORD PTR ___$ReturnUdt$[ebp]
  00006	83 c1 0c	 add	 ecx, 12			; 0000000cH
  00009	e8 00 00 00 00	 call	 ?GetFull@CGraphPartRegion@@QBE?AVCRect@@XZ ; CGraphPartRegion::GetFull
  0000e	8b 45 08	 mov	 eax, DWORD PTR ___$ReturnUdt$[ebp]

; 749  : }

  00011	5d		 pop	 ebp
  00012	c2 04 00	 ret	 4
?GetDisplayRegion@CDisplayData@@QBE?AVCRect@@XZ ENDP	; CDisplayData::GetDisplayRegion
_TEXT	ENDS
; Function compile flags: /Ogtp
; File D:\git\src\IBK\IBK_DRFN\ProjSrc\SrcChartEx\ChartAddIn\ChartAnalysisToolAddIn\AnalysisTool\AnalysisData.cpp
;	COMDAT ?GetGraphPartRegion@CDisplayData@@QBE?AVCGraphPartRegion@@XZ
_TEXT	SEGMENT
___$ReturnUdt$ = 8					; size = 4
?GetGraphPartRegion@CDisplayData@@QBE?AVCGraphPartRegion@@XZ PROC ; CDisplayData::GetGraphPartRegion, COMDAT
; _this$ = ecx

; 742  : {

  00000	55		 push	 ebp
  00001	8b ec		 mov	 ebp, esp

; 743  : 	return m_graphPartRegion;

  00003	8d 41 0c	 lea	 eax, DWORD PTR [ecx+12]
  00006	8b 4d 08	 mov	 ecx, DWORD PTR ___$ReturnUdt$[ebp]
  00009	50		 push	 eax
  0000a	e8 00 00 00 00	 call	 ??0CGraphPartRegion@@QAE@ABV0@@Z ; CGraphPartRegion::CGraphPartRegion
  0000f	8b 45 08	 mov	 eax, DWORD PTR ___$ReturnUdt$[ebp]

; 744  : }

  00012	5d		 pop	 ebp
  00013	c2 04 00	 ret	 4
?GetGraphPartRegion@CDisplayData@@QBE?AVCGraphPartRegion@@XZ ENDP ; CDisplayData::GetGraphPartRegion
_TEXT	ENDS
; Function compile flags: /Ogtp
; File D:\git\src\IBK\IBK_DRFN\ProjSrc\SrcChartEx\ChartAddIn\ChartAnalysisToolAddIn\AnalysisTool\AnalysisData.cpp
;	COMDAT ?GetDisplayAttributes@CDisplayData@@QBE?AVCDisplayAttributes@@XZ
_TEXT	SEGMENT
___$ReturnUdt$ = 8					; size = 4
?GetDisplayAttributes@CDisplayData@@QBE?AVCDisplayAttributes@@XZ PROC ; CDisplayData::GetDisplayAttributes, COMDAT
; _this$ = ecx

; 737  : {

  00000	55		 push	 ebp
  00001	8b ec		 mov	 ebp, esp

; 738  : 	return m_displayAttributes;

  00003	8b 45 08	 mov	 eax, DWORD PTR ___$ReturnUdt$[ebp]
  00006	8b 51 04	 mov	 edx, DWORD PTR [ecx+4]
  00009	8b 49 08	 mov	 ecx, DWORD PTR [ecx+8]
  0000c	89 10		 mov	 DWORD PTR [eax], edx
  0000e	89 48 04	 mov	 DWORD PTR [eax+4], ecx

; 739  : }

  00011	5d		 pop	 ebp
  00012	c2 04 00	 ret	 4
?GetDisplayAttributes@CDisplayData@@QBE?AVCDisplayAttributes@@XZ ENDP ; CDisplayData::GetDisplayAttributes
_TEXT	ENDS
; Function compile flags: /Ogtp
; File D:\git\src\IBK\IBK_DRFN\ProjSrc\SrcChartEx\ChartAddIn\ChartAnalysisToolAddIn\AnalysisTool\AnalysisData.cpp
;	COMDAT ?GetCoordinateType@CDisplayData@@QBE?AW4COORDINATETYPE@CAnalysis@@XZ
_TEXT	SEGMENT
?GetCoordinateType@CDisplayData@@QBE?AW4COORDINATETYPE@CAnalysis@@XZ PROC ; CDisplayData::GetCoordinateType, COMDAT
; _this$ = ecx

; 733  : 	return m_eCoordinateType;

  00000	8b 01		 mov	 eax, DWORD PTR [ecx]

; 734  : }

  00002	c3		 ret	 0
?GetCoordinateType@CDisplayData@@QBE?AW4COORDINATETYPE@CAnalysis@@XZ ENDP ; CDisplayData::GetCoordinateType
_TEXT	ENDS
; Function compile flags: /Ogtp
; File D:\git\src\IBK\IBK_DRFN\ProjSrc\SrcChartEx\ChartAddIn\ChartAnalysisToolAddIn\AnalysisTool\AnalysisData.cpp
;	COMDAT ?IsRelativePointType@CDisplayData@@QBE_NXZ
_TEXT	SEGMENT
?IsRelativePointType@CDisplayData@@QBE_NXZ PROC		; CDisplayData::IsRelativePointType, COMDAT
; _this$ = ecx

; 728  : 	return (m_eCoordinateType == CAnalysis::RELATIVE_POINT);

  00000	83 39 00	 cmp	 DWORD PTR [ecx], 0
  00003	0f 94 c0	 sete	 al

; 729  : }

  00006	c3		 ret	 0
?IsRelativePointType@CDisplayData@@QBE_NXZ ENDP		; CDisplayData::IsRelativePointType
_TEXT	ENDS
; Function compile flags: /Ogtp
; File D:\git\src\IBK\IBK_DRFN\ProjSrc\SrcChartEx\ChartAddIn\ChartAnalysisToolAddIn\AnalysisTool\AnalysisData.cpp
;	COMDAT ?SetGraphPartRegion@CDisplayData@@QAEXABVCGraphPartRegion@@@Z
_TEXT	SEGMENT
_graphPartRegion$ = 8					; size = 4
?SetGraphPartRegion@CDisplayData@@QAEXABVCGraphPartRegion@@@Z PROC ; CDisplayData::SetGraphPartRegion, COMDAT
; _this$ = ecx

; 722  : {

  00000	55		 push	 ebp
  00001	8b ec		 mov	 ebp, esp

; 723  : 	m_graphPartRegion = graphPartRegion;

  00003	83 c1 0c	 add	 ecx, 12			; 0000000cH

; 724  : }

  00006	5d		 pop	 ebp

; 723  : 	m_graphPartRegion = graphPartRegion;

  00007	e9 00 00 00 00	 jmp	 ??4CGraphPartRegion@@QAEAAV0@ABV0@@Z ; CGraphPartRegion::operator=
?SetGraphPartRegion@CDisplayData@@QAEXABVCGraphPartRegion@@@Z ENDP ; CDisplayData::SetGraphPartRegion
_TEXT	ENDS
; Function compile flags: /Ogtp
; File D:\git\src\IBK\IBK_DRFN\ProjSrc\SrcChartEx\ChartAddIn\ChartAnalysisToolAddIn\AnalysisTool\AnalysisData.cpp
;	COMDAT ?SetDisplayAttributes@CDisplayData@@QAEXABVCDisplayAttributes@@@Z
_TEXT	SEGMENT
_displayAttributes$ = 8					; size = 4
?SetDisplayAttributes@CDisplayData@@QAEXABVCDisplayAttributes@@@Z PROC ; CDisplayData::SetDisplayAttributes, COMDAT
; _this$ = ecx

; 717  : {

  00000	55		 push	 ebp
  00001	8b ec		 mov	 ebp, esp

; 574  : 	if(this == &displayAttributes)

  00003	8b 55 08	 mov	 edx, DWORD PTR _displayAttributes$[ebp]

; 718  : 	m_displayAttributes = displayAttributes;

  00006	83 c1 04	 add	 ecx, 4

; 574  : 	if(this == &displayAttributes)

  00009	3b ca		 cmp	 ecx, edx
  0000b	74 0a		 je	 SHORT $LN3@SetDisplay

; 575  : 		return *this;
; 576  : 
; 577  : 	m_nDataStartInBlock = displayAttributes.GetDataStartInBlock();

  0000d	8b 02		 mov	 eax, DWORD PTR [edx]
  0000f	89 01		 mov	 DWORD PTR [ecx], eax

; 578  : 	m_nDataEndInBlock = displayAttributes.GetDataEndInBlock();

  00011	8b 42 04	 mov	 eax, DWORD PTR [edx+4]
  00014	89 41 04	 mov	 DWORD PTR [ecx+4], eax
$LN3@SetDisplay:

; 719  : }

  00017	5d		 pop	 ebp
  00018	c2 04 00	 ret	 4
?SetDisplayAttributes@CDisplayData@@QAEXABVCDisplayAttributes@@@Z ENDP ; CDisplayData::SetDisplayAttributes
_TEXT	ENDS
; Function compile flags: /Ogtp
; File D:\git\src\IBK\IBK_DRFN\ProjSrc\SrcChartEx\ChartAddIn\ChartAnalysisToolAddIn\AnalysisTool\AnalysisData.cpp
;	COMDAT ?SetCoordinateType@CDisplayData@@QAEXW4COORDINATETYPE@CAnalysis@@@Z
_TEXT	SEGMENT
_eCoordinateType$ = 8					; size = 4
?SetCoordinateType@CDisplayData@@QAEXW4COORDINATETYPE@CAnalysis@@@Z PROC ; CDisplayData::SetCoordinateType, COMDAT
; _this$ = ecx

; 712  : {

  00000	55		 push	 ebp
  00001	8b ec		 mov	 ebp, esp

; 713  : 	m_eCoordinateType = eCoordinateType;

  00003	8b 45 08	 mov	 eax, DWORD PTR _eCoordinateType$[ebp]
  00006	89 01		 mov	 DWORD PTR [ecx], eax

; 714  : }

  00008	5d		 pop	 ebp
  00009	c2 04 00	 ret	 4
?SetCoordinateType@CDisplayData@@QAEXW4COORDINATETYPE@CAnalysis@@@Z ENDP ; CDisplayData::SetCoordinateType
_TEXT	ENDS
; Function compile flags: /Ogtp
; File D:\git\src\IBK\IBK_DRFN\ProjSrc\SrcChartEx\ChartAddIn\ChartAnalysisToolAddIn\AnalysisTool\AnalysisData.cpp
;	COMDAT ??0CDisplayData@@QAE@W4COORDINATETYPE@CAnalysis@@ABVCGraphPartRegion@@ABVCDisplayAttributes@@@Z
_TEXT	SEGMENT
_eCoordinateType$ = 8					; size = 4
_graphPartRegion$ = 12					; size = 4
_displayAttributes$ = 16				; size = 4
??0CDisplayData@@QAE@W4COORDINATETYPE@CAnalysis@@ABVCGraphPartRegion@@ABVCDisplayAttributes@@@Z PROC ; CDisplayData::CDisplayData, COMDAT
; _this$ = ecx

; 707  : {

  00000	55		 push	 ebp
  00001	8b ec		 mov	 ebp, esp

; 704  : 	m_eCoordinateType(eCoordinateType),

  00003	8b 45 08	 mov	 eax, DWORD PTR _eCoordinateType$[ebp]
  00006	56		 push	 esi

; 705  : 	m_graphPartRegion(graphPartRegion), 

  00007	ff 75 0c	 push	 DWORD PTR _graphPartRegion$[ebp]
  0000a	8b f1		 mov	 esi, ecx
  0000c	89 06		 mov	 DWORD PTR [esi], eax
  0000e	8d 4e 0c	 lea	 ecx, DWORD PTR [esi+12]

; 706  : 	m_displayAttributes(displayAttributes)

  00011	8b 45 10	 mov	 eax, DWORD PTR _displayAttributes$[ebp]
  00014	8b 10		 mov	 edx, DWORD PTR [eax]
  00016	8b 40 04	 mov	 eax, DWORD PTR [eax+4]
  00019	89 56 04	 mov	 DWORD PTR [esi+4], edx
  0001c	89 46 08	 mov	 DWORD PTR [esi+8], eax
  0001f	e8 00 00 00 00	 call	 ??0CGraphPartRegion@@QAE@ABV0@@Z ; CGraphPartRegion::CGraphPartRegion

; 708  : }

  00024	8b c6		 mov	 eax, esi
  00026	5e		 pop	 esi
  00027	5d		 pop	 ebp
  00028	c2 0c 00	 ret	 12			; 0000000cH
??0CDisplayData@@QAE@W4COORDINATETYPE@CAnalysis@@ABVCGraphPartRegion@@ABVCDisplayAttributes@@@Z ENDP ; CDisplayData::CDisplayData
_TEXT	ENDS
; Function compile flags: /Ogtp
; File D:\git\src\IBK\IBK_DRFN\ProjSrc\SrcChartEx\ChartAddIn\ChartAnalysisToolAddIn\AnalysisTool\AnalysisData.cpp
;	COMDAT ??0CDisplayData@@QAE@XZ
_TEXT	SEGMENT
??0CDisplayData@@QAE@XZ PROC				; CDisplayData::CDisplayData, COMDAT
; _this$ = ecx

; 699  : {

  00000	56		 push	 esi
  00001	8b f1		 mov	 esi, ecx
  00003	8d 4e 0c	 lea	 ecx, DWORD PTR [esi+12]
  00006	c7 06 00 00 00
	00		 mov	 DWORD PTR [esi], 0

; 584  : 	m_nDataStartInBlock(0),

  0000c	c7 46 04 00 00
	00 00		 mov	 DWORD PTR [esi+4], 0

; 585  : 	m_nDataEndInBlock(0)

  00013	c7 46 08 00 00
	00 00		 mov	 DWORD PTR [esi+8], 0

; 699  : {

  0001a	e8 00 00 00 00	 call	 ??0CGraphPartRegion@@QAE@XZ ; CGraphPartRegion::CGraphPartRegion

; 700  : }

  0001f	8b c6		 mov	 eax, esi
  00021	5e		 pop	 esi
  00022	c3		 ret	 0
??0CDisplayData@@QAE@XZ ENDP				; CDisplayData::CDisplayData
_TEXT	ENDS
; Function compile flags: /Ogtp
; File D:\git\src\IBK\IBK_DRFN\ProjSrc\SrcChartEx\ChartAddIn\ChartAnalysisToolAddIn\AnalysisTool\AnalysisData.cpp
;	COMDAT ??4CDisplayData@@QAEAAV0@ABV0@@Z
_TEXT	SEGMENT
$T1 = -44						; size = 8
$T2 = -36						; size = 32
__$ArrayPad$ = -4					; size = 4
_data$ = 8						; size = 4
??4CDisplayData@@QAEAAV0@ABV0@@Z PROC			; CDisplayData::operator=, COMDAT
; _this$ = ecx

; 687  : {

  00000	55		 push	 ebp
  00001	8b ec		 mov	 ebp, esp
  00003	83 ec 2c	 sub	 esp, 44			; 0000002cH
  00006	a1 00 00 00 00	 mov	 eax, DWORD PTR ___security_cookie
  0000b	33 c5		 xor	 eax, ebp
  0000d	89 45 fc	 mov	 DWORD PTR __$ArrayPad$[ebp], eax
  00010	56		 push	 esi
  00011	8b f1		 mov	 esi, ecx
  00013	8b 4d 08	 mov	 ecx, DWORD PTR _data$[ebp]

; 688  : 	if(this == &data)

  00016	3b f1		 cmp	 esi, ecx
  00018	74 35		 je	 SHORT $LN11@operator

; 689  : 		return *this;
; 690  : 
; 691  : 	m_eCoordinateType = data.GetCoordinateType();

  0001a	8b 01		 mov	 eax, DWORD PTR [ecx]
  0001c	89 06		 mov	 DWORD PTR [esi], eax

; 692  : 	m_displayAttributes = data.GetDisplayAttributes();

  0001e	8d 46 04	 lea	 eax, DWORD PTR [esi+4]

; 738  : 	return m_displayAttributes;

  00021	8b 51 04	 mov	 edx, DWORD PTR [ecx+4]
  00024	53		 push	 ebx

; 574  : 	if(this == &displayAttributes)

  00025	8d 5d d4	 lea	 ebx, DWORD PTR $T1[ebp]
  00028	57		 push	 edi

; 738  : 	return m_displayAttributes;

  00029	8b 79 08	 mov	 edi, DWORD PTR [ecx+8]

; 574  : 	if(this == &displayAttributes)

  0002c	3b c3		 cmp	 eax, ebx
  0002e	74 05		 je	 SHORT $LN6@operator

; 575  : 		return *this;
; 576  : 
; 577  : 	m_nDataStartInBlock = displayAttributes.GetDataStartInBlock();

  00030	89 10		 mov	 DWORD PTR [eax], edx

; 578  : 	m_nDataEndInBlock = displayAttributes.GetDataEndInBlock();

  00032	89 78 04	 mov	 DWORD PTR [eax+4], edi
$LN6@operator:

; 743  : 	return m_graphPartRegion;

  00035	8d 41 0c	 lea	 eax, DWORD PTR [ecx+12]
  00038	50		 push	 eax
  00039	8d 4d dc	 lea	 ecx, DWORD PTR $T2[ebp]
  0003c	e8 00 00 00 00	 call	 ??0CGraphPartRegion@@QAE@ABV0@@Z ; CGraphPartRegion::CGraphPartRegion

; 693  : 	m_graphPartRegion = data.GetGraphPartRegion();

  00041	8d 45 dc	 lea	 eax, DWORD PTR $T2[ebp]
  00044	50		 push	 eax
  00045	8d 4e 0c	 lea	 ecx, DWORD PTR [esi+12]
  00048	e8 00 00 00 00	 call	 ??4CGraphPartRegion@@QAEAAV0@ABV0@@Z ; CGraphPartRegion::operator=

; 694  : 	return *this;

  0004d	5f		 pop	 edi
  0004e	5b		 pop	 ebx
$LN11@operator:

; 695  : }

  0004f	8b 4d fc	 mov	 ecx, DWORD PTR __$ArrayPad$[ebp]
  00052	8b c6		 mov	 eax, esi
  00054	33 cd		 xor	 ecx, ebp
  00056	5e		 pop	 esi
  00057	e8 00 00 00 00	 call	 @__security_check_cookie@4
  0005c	8b e5		 mov	 esp, ebp
  0005e	5d		 pop	 ebp
  0005f	c2 04 00	 ret	 4
??4CDisplayData@@QAEAAV0@ABV0@@Z ENDP			; CDisplayData::operator=
_TEXT	ENDS
; Function compile flags: /Ogtp
; File D:\git\src\IBK\IBK_DRFN\ProjSrc\SrcChartEx\ChartAddIn\ChartAnalysisToolAddIn\AnalysisTool\AnalysisData.cpp
;	COMDAT ?DoesIndexInDisplayAttributes@CRegion@@QBE_NH@Z
_TEXT	SEGMENT
_nIndex$ = 8						; size = 4
?DoesIndexInDisplayAttributes@CRegion@@QBE_NH@Z PROC	; CRegion::DoesIndexInDisplayAttributes, COMDAT
; _this$ = ecx

; 679  : {

  00000	55		 push	 ebp
  00001	8b ec		 mov	 ebp, esp

; 680  : 	return (m_displayAttributes.GetDataStartInBlock() -1 <= nIndex && m_displayAttributes.GetDataEndInBlock() >= nIndex);

  00003	8b 41 10	 mov	 eax, DWORD PTR [ecx+16]
  00006	8b 55 08	 mov	 edx, DWORD PTR _nIndex$[ebp]
  00009	48		 dec	 eax
  0000a	3b c2		 cmp	 eax, edx
  0000c	7f 0b		 jg	 SHORT $LN3@DoesIndexI
  0000e	39 51 14	 cmp	 DWORD PTR [ecx+20], edx
  00011	7c 06		 jl	 SHORT $LN3@DoesIndexI
  00013	b0 01		 mov	 al, 1

; 681  : }

  00015	5d		 pop	 ebp
  00016	c2 04 00	 ret	 4
$LN3@DoesIndexI:

; 680  : 	return (m_displayAttributes.GetDataStartInBlock() -1 <= nIndex && m_displayAttributes.GetDataEndInBlock() >= nIndex);

  00019	32 c0		 xor	 al, al

; 681  : }

  0001b	5d		 pop	 ebp
  0001c	c2 04 00	 ret	 4
?DoesIndexInDisplayAttributes@CRegion@@QBE_NH@Z ENDP	; CRegion::DoesIndexInDisplayAttributes
_TEXT	ENDS
; Function compile flags: /Ogtp
; File D:\git\src\IBK\IBK_DRFN\ProjSrc\SrcChartEx\ChartAddIn\ChartAnalysisToolAddIn\AnalysisTool\AnalysisData.cpp
;	COMDAT ?GetDisplayAttributes@CRegion@@QBE?AVCDisplayAttributes@@XZ
_TEXT	SEGMENT
___$ReturnUdt$ = 8					; size = 4
?GetDisplayAttributes@CRegion@@QBE?AVCDisplayAttributes@@XZ PROC ; CRegion::GetDisplayAttributes, COMDAT
; _this$ = ecx

; 674  : {

  00000	55		 push	 ebp
  00001	8b ec		 mov	 ebp, esp

; 675  : 	return m_displayAttributes;

  00003	8b 45 08	 mov	 eax, DWORD PTR ___$ReturnUdt$[ebp]
  00006	8b 51 10	 mov	 edx, DWORD PTR [ecx+16]
  00009	8b 49 14	 mov	 ecx, DWORD PTR [ecx+20]
  0000c	89 10		 mov	 DWORD PTR [eax], edx
  0000e	89 48 04	 mov	 DWORD PTR [eax+4], ecx

; 676  : }

  00011	5d		 pop	 ebp
  00012	c2 04 00	 ret	 4
?GetDisplayAttributes@CRegion@@QBE?AVCDisplayAttributes@@XZ ENDP ; CRegion::GetDisplayAttributes
_TEXT	ENDS
; Function compile flags: /Ogtp
; File D:\git\src\IBK\IBK_DRFN\ProjSrc\SrcChartEx\ChartAddIn\ChartAnalysisToolAddIn\AnalysisTool\AnalysisData.cpp
;	COMDAT ?GetRect@CRegion@@QBE?AVCRect@@XZ
_TEXT	SEGMENT
___$ReturnUdt$ = 8					; size = 4
?GetRect@CRegion@@QBE?AVCRect@@XZ PROC			; CRegion::GetRect, COMDAT
; _this$ = ecx

; 669  : {

  00000	55		 push	 ebp
  00001	8b ec		 mov	 ebp, esp

; 670  : 	return m_rect;

  00003	8b 45 08	 mov	 eax, DWORD PTR ___$ReturnUdt$[ebp]
  00006	0f 10 01	 movups	 xmm0, XMMWORD PTR [ecx]
  00009	0f 11 00	 movups	 XMMWORD PTR [eax], xmm0

; 671  : }

  0000c	5d		 pop	 ebp
  0000d	c2 04 00	 ret	 4
?GetRect@CRegion@@QBE?AVCRect@@XZ ENDP			; CRegion::GetRect
_TEXT	ENDS
; Function compile flags: /Ogtp
; File D:\git\src\IBK\IBK_DRFN\ProjSrc\SrcChartEx\ChartAddIn\ChartAnalysisToolAddIn\AnalysisTool\AnalysisData.cpp
;	COMDAT ?SetDisplayAttributes@CRegion@@QAEXABVCDisplayAttributes@@@Z
_TEXT	SEGMENT
_displayAttributes$ = 8					; size = 4
?SetDisplayAttributes@CRegion@@QAEXABVCDisplayAttributes@@@Z PROC ; CRegion::SetDisplayAttributes, COMDAT
; _this$ = ecx

; 664  : {

  00000	55		 push	 ebp
  00001	8b ec		 mov	 ebp, esp

; 574  : 	if(this == &displayAttributes)

  00003	8b 55 08	 mov	 edx, DWORD PTR _displayAttributes$[ebp]

; 665  : 	m_displayAttributes = displayAttributes;

  00006	83 c1 10	 add	 ecx, 16			; 00000010H

; 574  : 	if(this == &displayAttributes)

  00009	3b ca		 cmp	 ecx, edx
  0000b	74 0a		 je	 SHORT $LN3@SetDisplay

; 575  : 		return *this;
; 576  : 
; 577  : 	m_nDataStartInBlock = displayAttributes.GetDataStartInBlock();

  0000d	8b 02		 mov	 eax, DWORD PTR [edx]
  0000f	89 01		 mov	 DWORD PTR [ecx], eax

; 578  : 	m_nDataEndInBlock = displayAttributes.GetDataEndInBlock();

  00011	8b 42 04	 mov	 eax, DWORD PTR [edx+4]
  00014	89 41 04	 mov	 DWORD PTR [ecx+4], eax
$LN3@SetDisplay:

; 666  : }

  00017	5d		 pop	 ebp
  00018	c2 04 00	 ret	 4
?SetDisplayAttributes@CRegion@@QAEXABVCDisplayAttributes@@@Z ENDP ; CRegion::SetDisplayAttributes
_TEXT	ENDS
; Function compile flags: /Ogtp
; File D:\git\src\IBK\IBK_DRFN\ProjSrc\SrcChartEx\ChartAddIn\ChartAnalysisToolAddIn\AnalysisTool\AnalysisData.cpp
;	COMDAT ?SetRect@CRegion@@QAEXABVCRect@@@Z
_TEXT	SEGMENT
_rect$ = 8						; size = 4
?SetRect@CRegion@@QAEXABVCRect@@@Z PROC			; CRegion::SetRect, COMDAT
; _this$ = ecx

; 659  : {

  00000	55		 push	 ebp
  00001	8b ec		 mov	 ebp, esp

; 660  : 	m_rect = rect;

  00003	8b 45 08	 mov	 eax, DWORD PTR _rect$[ebp]
  00006	0f 10 00	 movups	 xmm0, XMMWORD PTR [eax]
  00009	0f 11 01	 movups	 XMMWORD PTR [ecx], xmm0

; 661  : }

  0000c	5d		 pop	 ebp
  0000d	c2 04 00	 ret	 4
?SetRect@CRegion@@QAEXABVCRect@@@Z ENDP			; CRegion::SetRect
_TEXT	ENDS
; Function compile flags: /Ogtp
; File D:\git\src\IBK\IBK_DRFN\ProjSrc\SrcChartEx\ChartAddIn\ChartAnalysisToolAddIn\AnalysisTool\AnalysisData.cpp
;	COMDAT ??0CRegion@@QAE@ABVCRect@@ABVCDisplayAttributes@@@Z
_TEXT	SEGMENT
_rect$ = 8						; size = 4
_displayAttributes$ = 12				; size = 4
??0CRegion@@QAE@ABVCRect@@ABVCDisplayAttributes@@@Z PROC ; CRegion::CRegion, COMDAT
; _this$ = ecx

; 654  : {

  00000	55		 push	 ebp
  00001	8b ec		 mov	 ebp, esp

; 652  : 	m_rect(rect),

  00003	8b 45 08	 mov	 eax, DWORD PTR _rect$[ebp]
  00006	0f 10 00	 movups	 xmm0, XMMWORD PTR [eax]

; 653  : 	m_displayAttributes(displayAttributes)

  00009	8b 45 0c	 mov	 eax, DWORD PTR _displayAttributes$[ebp]
  0000c	0f 11 01	 movups	 XMMWORD PTR [ecx], xmm0
  0000f	8b 10		 mov	 edx, DWORD PTR [eax]
  00011	8b 40 04	 mov	 eax, DWORD PTR [eax+4]
  00014	89 41 14	 mov	 DWORD PTR [ecx+20], eax

; 655  : }

  00017	8b c1		 mov	 eax, ecx
  00019	89 51 10	 mov	 DWORD PTR [ecx+16], edx
  0001c	5d		 pop	 ebp
  0001d	c2 08 00	 ret	 8
??0CRegion@@QAE@ABVCRect@@ABVCDisplayAttributes@@@Z ENDP ; CRegion::CRegion
_TEXT	ENDS
; Function compile flags: /Ogtp
; File D:\git\src\IBK\IBK_DRFN\ProjSrc\SrcChartEx\ChartAddIn\ChartAnalysisToolAddIn\AnalysisTool\AnalysisData.cpp
;	COMDAT ??0CRegion@@QAE@ABV0@@Z
_TEXT	SEGMENT
_region$ = 8						; size = 4
??0CRegion@@QAE@ABV0@@Z PROC				; CRegion::CRegion, COMDAT
; _this$ = ecx

; 648  : {

  00000	55		 push	 ebp
  00001	8b ec		 mov	 ebp, esp

; 670  : 	return m_rect;

  00003	8b 55 08	 mov	 edx, DWORD PTR _region$[ebp]
  00006	0f 10 02	 movups	 xmm0, XMMWORD PTR [edx]
  00009	0f 11 01	 movups	 XMMWORD PTR [ecx], xmm0

; 675  : 	return m_displayAttributes;

  0000c	8b 42 10	 mov	 eax, DWORD PTR [edx+16]
  0000f	8b 52 14	 mov	 edx, DWORD PTR [edx+20]
  00012	89 41 10	 mov	 DWORD PTR [ecx+16], eax

; 649  : }

  00015	8b c1		 mov	 eax, ecx

; 675  : 	return m_displayAttributes;

  00017	89 51 14	 mov	 DWORD PTR [ecx+20], edx

; 649  : }

  0001a	5d		 pop	 ebp
  0001b	c2 04 00	 ret	 4
??0CRegion@@QAE@ABV0@@Z ENDP				; CRegion::CRegion
_TEXT	ENDS
; Function compile flags: /Ogtp
; File D:\git\src\IBK\IBK_DRFN\ProjSrc\SrcChartEx\ChartAddIn\ChartAnalysisToolAddIn\AnalysisTool\AnalysisData.cpp
; File C:\Program Files (x86)\Microsoft Visual Studio\2019\Community\VC\Tools\MSVC\14.29.30133\atlmfc\include\atltypes.h
; File D:\git\src\IBK\IBK_DRFN\ProjSrc\SrcChartEx\ChartAddIn\ChartAnalysisToolAddIn\AnalysisTool\AnalysisData.cpp
; File C:\Program Files (x86)\Microsoft Visual Studio\2019\Community\VC\Tools\MSVC\14.29.30133\atlmfc\include\atltypes.h
; File D:\git\src\IBK\IBK_DRFN\ProjSrc\SrcChartEx\ChartAddIn\ChartAnalysisToolAddIn\AnalysisTool\AnalysisData.cpp
;	COMDAT ??0CRegion@@QAE@XZ
_TEXT	SEGMENT
??0CRegion@@QAE@XZ PROC					; CRegion::CRegion, COMDAT
; _this$ = ecx
; File C:\Program Files (x86)\Microsoft Visual Studio\2019\Community\VC\Tools\MSVC\14.29.30133\atlmfc\include\atltypes.h

; 540  : 	left = l;

  00000	c7 01 00 00 00
	00		 mov	 DWORD PTR [ecx], 0
; File D:\git\src\IBK\IBK_DRFN\ProjSrc\SrcChartEx\ChartAddIn\ChartAnalysisToolAddIn\AnalysisTool\AnalysisData.cpp

; 643  : }

  00006	8b c1		 mov	 eax, ecx
; File C:\Program Files (x86)\Microsoft Visual Studio\2019\Community\VC\Tools\MSVC\14.29.30133\atlmfc\include\atltypes.h

; 541  : 	top = t;

  00008	c7 41 04 00 00
	00 00		 mov	 DWORD PTR [ecx+4], 0

; 542  : 	right = r;

  0000f	c7 41 08 00 00
	00 00		 mov	 DWORD PTR [ecx+8], 0

; 543  : 	bottom = b;

  00016	c7 41 0c 00 00
	00 00		 mov	 DWORD PTR [ecx+12], 0
; File D:\git\src\IBK\IBK_DRFN\ProjSrc\SrcChartEx\ChartAddIn\ChartAnalysisToolAddIn\AnalysisTool\AnalysisData.cpp

; 584  : 	m_nDataStartInBlock(0),

  0001d	c7 41 10 00 00
	00 00		 mov	 DWORD PTR [ecx+16], 0

; 585  : 	m_nDataEndInBlock(0)

  00024	c7 41 14 00 00
	00 00		 mov	 DWORD PTR [ecx+20], 0

; 643  : }

  0002b	c3		 ret	 0
??0CRegion@@QAE@XZ ENDP					; CRegion::CRegion
_TEXT	ENDS
; Function compile flags: /Ogtp
; File D:\git\src\IBK\IBK_DRFN\ProjSrc\SrcChartEx\ChartAddIn\ChartAnalysisToolAddIn\AnalysisTool\AnalysisData.cpp
;	COMDAT ??4CRegion@@QAEAAV0@ABV0@@Z
_TEXT	SEGMENT
$T1 = -8						; size = 8
_data$ = 8						; size = 4
??4CRegion@@QAEAAV0@ABV0@@Z PROC			; CRegion::operator=, COMDAT
; _this$ = ecx

; 631  : {

  00000	55		 push	 ebp
  00001	8b ec		 mov	 ebp, esp

; 632  : 	if(this == &data)

  00003	8b 45 08	 mov	 eax, DWORD PTR _data$[ebp]
  00006	83 ec 08	 sub	 esp, 8
  00009	3b c8		 cmp	 ecx, eax
  0000b	74 27		 je	 SHORT $LN12@operator

; 670  : 	return m_rect;

  0000d	0f 10 00	 movups	 xmm0, XMMWORD PTR [eax]
  00010	56		 push	 esi
  00011	57		 push	 edi

; 633  : 		return *this;
; 634  : 
; 635  : 	m_rect = data.GetRect();

  00012	0f 11 01	 movups	 XMMWORD PTR [ecx], xmm0

; 675  : 	return m_displayAttributes;

  00015	8b 50 10	 mov	 edx, DWORD PTR [eax+16]

; 574  : 	if(this == &displayAttributes)

  00018	8d 7d f8	 lea	 edi, DWORD PTR $T1[ebp]

; 675  : 	return m_displayAttributes;

  0001b	8b 70 14	 mov	 esi, DWORD PTR [eax+20]

; 636  : 	m_displayAttributes = data.GetDisplayAttributes();

  0001e	8d 41 10	 lea	 eax, DWORD PTR [ecx+16]

; 574  : 	if(this == &displayAttributes)

  00021	3b c7		 cmp	 eax, edi
  00023	74 05		 je	 SHORT $LN11@operator

; 575  : 		return *this;
; 576  : 
; 577  : 	m_nDataStartInBlock = displayAttributes.GetDataStartInBlock();

  00025	89 10		 mov	 DWORD PTR [eax], edx

; 578  : 	m_nDataEndInBlock = displayAttributes.GetDataEndInBlock();

  00027	89 70 04	 mov	 DWORD PTR [eax+4], esi
$LN11@operator:
  0002a	5f		 pop	 edi

; 637  : 	return *this;

  0002b	8b c1		 mov	 eax, ecx
  0002d	5e		 pop	 esi

; 638  : }

  0002e	8b e5		 mov	 esp, ebp
  00030	5d		 pop	 ebp
  00031	c2 04 00	 ret	 4
$LN12@operator:

; 637  : 	return *this;

  00034	8b c1		 mov	 eax, ecx

; 638  : }

  00036	8b e5		 mov	 esp, ebp
  00038	5d		 pop	 ebp
  00039	c2 04 00	 ret	 4
??4CRegion@@QAEAAV0@ABV0@@Z ENDP			; CRegion::operator=
_TEXT	ENDS
; Function compile flags: /Ogtp
; File D:\git\src\IBK\IBK_DRFN\ProjSrc\SrcChartEx\ChartAddIn\ChartAnalysisToolAddIn\AnalysisTool\AnalysisData.cpp
;	COMDAT ?IsAllValueBiggerThanZero@CDisplayAttributes@@QBE_NXZ
_TEXT	SEGMENT
?IsAllValueBiggerThanZero@CDisplayAttributes@@QBE_NXZ PROC ; CDisplayAttributes::IsAllValueBiggerThanZero, COMDAT
; _this$ = ecx

; 624  : 	return (m_nDataStartInBlock >= 0 && m_nDataEndInBlock >= 0);

  00000	83 39 00	 cmp	 DWORD PTR [ecx], 0
  00003	7c 09		 jl	 SHORT $LN3@IsAllValue
  00005	83 79 04 00	 cmp	 DWORD PTR [ecx+4], 0
  00009	7c 03		 jl	 SHORT $LN3@IsAllValue
  0000b	b0 01		 mov	 al, 1

; 625  : }

  0000d	c3		 ret	 0
$LN3@IsAllValue:

; 624  : 	return (m_nDataStartInBlock >= 0 && m_nDataEndInBlock >= 0);

  0000e	32 c0		 xor	 al, al

; 625  : }

  00010	c3		 ret	 0
?IsAllValueBiggerThanZero@CDisplayAttributes@@QBE_NXZ ENDP ; CDisplayAttributes::IsAllValueBiggerThanZero
_TEXT	ENDS
; Function compile flags: /Ogtp
; File D:\git\src\IBK\IBK_DRFN\ProjSrc\SrcChartEx\ChartAddIn\ChartAnalysisToolAddIn\AnalysisTool\AnalysisData.cpp
;	COMDAT ?GetDataCountInBlock@CDisplayAttributes@@QBEHXZ
_TEXT	SEGMENT
?GetDataCountInBlock@CDisplayAttributes@@QBEHXZ PROC	; CDisplayAttributes::GetDataCountInBlock, COMDAT
; _this$ = ecx

; 619  : 	return (m_nDataEndInBlock - m_nDataStartInBlock +1);

  00000	8b 41 04	 mov	 eax, DWORD PTR [ecx+4]
  00003	2b 01		 sub	 eax, DWORD PTR [ecx]
  00005	40		 inc	 eax

; 620  : }

  00006	c3		 ret	 0
?GetDataCountInBlock@CDisplayAttributes@@QBEHXZ ENDP	; CDisplayAttributes::GetDataCountInBlock
_TEXT	ENDS
; Function compile flags: /Ogtp
; File D:\git\src\IBK\IBK_DRFN\ProjSrc\SrcChartEx\ChartAddIn\ChartAnalysisToolAddIn\AnalysisTool\AnalysisData.cpp
;	COMDAT ?GetDataEndInBlock@CDisplayAttributes@@QBEHXZ
_TEXT	SEGMENT
?GetDataEndInBlock@CDisplayAttributes@@QBEHXZ PROC	; CDisplayAttributes::GetDataEndInBlock, COMDAT
; _this$ = ecx

; 614  : 	return m_nDataEndInBlock;

  00000	8b 41 04	 mov	 eax, DWORD PTR [ecx+4]

; 615  : }

  00003	c3		 ret	 0
?GetDataEndInBlock@CDisplayAttributes@@QBEHXZ ENDP	; CDisplayAttributes::GetDataEndInBlock
_TEXT	ENDS
; Function compile flags: /Ogtp
; File D:\git\src\IBK\IBK_DRFN\ProjSrc\SrcChartEx\ChartAddIn\ChartAnalysisToolAddIn\AnalysisTool\AnalysisData.cpp
;	COMDAT ?GetDataStartInBlock@CDisplayAttributes@@QBEHXZ
_TEXT	SEGMENT
?GetDataStartInBlock@CDisplayAttributes@@QBEHXZ PROC	; CDisplayAttributes::GetDataStartInBlock, COMDAT
; _this$ = ecx

; 609  : 	return m_nDataStartInBlock;

  00000	8b 01		 mov	 eax, DWORD PTR [ecx]

; 610  : }

  00002	c3		 ret	 0
?GetDataStartInBlock@CDisplayAttributes@@QBEHXZ ENDP	; CDisplayAttributes::GetDataStartInBlock
_TEXT	ENDS
; Function compile flags: /Ogtp
; File D:\git\src\IBK\IBK_DRFN\ProjSrc\SrcChartEx\ChartAddIn\ChartAnalysisToolAddIn\AnalysisTool\AnalysisData.cpp
;	COMDAT ?SetDataEndInBlock@CDisplayAttributes@@QAEXH@Z
_TEXT	SEGMENT
_end$ = 8						; size = 4
?SetDataEndInBlock@CDisplayAttributes@@QAEXH@Z PROC	; CDisplayAttributes::SetDataEndInBlock, COMDAT
; _this$ = ecx

; 602  : {

  00000	55		 push	 ebp
  00001	8b ec		 mov	 ebp, esp

; 603  : 	m_nDataEndInBlock = end;

  00003	8b 45 08	 mov	 eax, DWORD PTR _end$[ebp]
  00006	89 41 04	 mov	 DWORD PTR [ecx+4], eax

; 604  : }

  00009	5d		 pop	 ebp
  0000a	c2 04 00	 ret	 4
?SetDataEndInBlock@CDisplayAttributes@@QAEXH@Z ENDP	; CDisplayAttributes::SetDataEndInBlock
_TEXT	ENDS
; Function compile flags: /Ogtp
; File D:\git\src\IBK\IBK_DRFN\ProjSrc\SrcChartEx\ChartAddIn\ChartAnalysisToolAddIn\AnalysisTool\AnalysisData.cpp
;	COMDAT ?SetDataStartInBlock@CDisplayAttributes@@QAEXH@Z
_TEXT	SEGMENT
_start$ = 8						; size = 4
?SetDataStartInBlock@CDisplayAttributes@@QAEXH@Z PROC	; CDisplayAttributes::SetDataStartInBlock, COMDAT
; _this$ = ecx

; 597  : {

  00000	55		 push	 ebp
  00001	8b ec		 mov	 ebp, esp

; 598  : 	m_nDataStartInBlock = start;

  00003	8b 45 08	 mov	 eax, DWORD PTR _start$[ebp]
  00006	89 01		 mov	 DWORD PTR [ecx], eax

; 599  : }

  00008	5d		 pop	 ebp
  00009	c2 04 00	 ret	 4
?SetDataStartInBlock@CDisplayAttributes@@QAEXH@Z ENDP	; CDisplayAttributes::SetDataStartInBlock
_TEXT	ENDS
; Function compile flags: /Ogtp
; File D:\git\src\IBK\IBK_DRFN\ProjSrc\SrcChartEx\ChartAddIn\ChartAnalysisToolAddIn\AnalysisTool\AnalysisData.cpp
;	COMDAT ??0CDisplayAttributes@@QAE@HH@Z
_TEXT	SEGMENT
_start$ = 8						; size = 4
_end$ = 12						; size = 4
??0CDisplayAttributes@@QAE@HH@Z PROC			; CDisplayAttributes::CDisplayAttributes, COMDAT
; _this$ = ecx

; 592  : {

  00000	55		 push	 ebp
  00001	8b ec		 mov	 ebp, esp

; 590  : 	m_nDataStartInBlock(start),

  00003	8b 45 08	 mov	 eax, DWORD PTR _start$[ebp]
  00006	89 01		 mov	 DWORD PTR [ecx], eax

; 591  : 	m_nDataEndInBlock(end)

  00008	8b 45 0c	 mov	 eax, DWORD PTR _end$[ebp]
  0000b	89 41 04	 mov	 DWORD PTR [ecx+4], eax

; 593  : }

  0000e	8b c1		 mov	 eax, ecx
  00010	5d		 pop	 ebp
  00011	c2 08 00	 ret	 8
??0CDisplayAttributes@@QAE@HH@Z ENDP			; CDisplayAttributes::CDisplayAttributes
_TEXT	ENDS
; Function compile flags: /Ogtp
; File D:\git\src\IBK\IBK_DRFN\ProjSrc\SrcChartEx\ChartAddIn\ChartAnalysisToolAddIn\AnalysisTool\AnalysisData.cpp
;	COMDAT ??0CDisplayAttributes@@QAE@XZ
_TEXT	SEGMENT
??0CDisplayAttributes@@QAE@XZ PROC			; CDisplayAttributes::CDisplayAttributes, COMDAT
; _this$ = ecx

; 584  : 	m_nDataStartInBlock(0),

  00000	c7 01 00 00 00
	00		 mov	 DWORD PTR [ecx], 0

; 587  : }

  00006	8b c1		 mov	 eax, ecx
  00008	c7 41 04 00 00
	00 00		 mov	 DWORD PTR [ecx+4], 0
  0000f	c3		 ret	 0
??0CDisplayAttributes@@QAE@XZ ENDP			; CDisplayAttributes::CDisplayAttributes
_TEXT	ENDS
; Function compile flags: /Ogtp
; File D:\git\src\IBK\IBK_DRFN\ProjSrc\SrcChartEx\ChartAddIn\ChartAnalysisToolAddIn\AnalysisTool\AnalysisData.cpp
;	COMDAT ??4CDisplayAttributes@@QAEAAV0@ABV0@@Z
_TEXT	SEGMENT
_displayAttributes$ = 8					; size = 4
??4CDisplayAttributes@@QAEAAV0@ABV0@@Z PROC		; CDisplayAttributes::operator=, COMDAT
; _this$ = ecx

; 573  : {

  00000	55		 push	 ebp
  00001	8b ec		 mov	 ebp, esp

; 574  : 	if(this == &displayAttributes)

  00003	8b 55 08	 mov	 edx, DWORD PTR _displayAttributes$[ebp]
  00006	3b ca		 cmp	 ecx, edx
  00008	74 0a		 je	 SHORT $LN4@operator

; 575  : 		return *this;
; 576  : 
; 577  : 	m_nDataStartInBlock = displayAttributes.GetDataStartInBlock();

  0000a	8b 02		 mov	 eax, DWORD PTR [edx]
  0000c	89 01		 mov	 DWORD PTR [ecx], eax

; 578  : 	m_nDataEndInBlock = displayAttributes.GetDataEndInBlock();

  0000e	8b 42 04	 mov	 eax, DWORD PTR [edx+4]
  00011	89 41 04	 mov	 DWORD PTR [ecx+4], eax
$LN4@operator:

; 579  : 
; 580  : 	return *this;
; 581  : }

  00014	8b c1		 mov	 eax, ecx
  00016	5d		 pop	 ebp
  00017	c2 04 00	 ret	 4
??4CDisplayAttributes@@QAEAAV0@ABV0@@Z ENDP		; CDisplayAttributes::operator=
_TEXT	ENDS
; Function compile flags: /Ogtp
; File D:\git\src\IBK\IBK_DRFN\ProjSrc\SrcChartEx\ChartAddIn\ChartAnalysisToolAddIn\AnalysisTool\AnalysisData.cpp
;	COMDAT ?SetDrawingRegions_Row@CDrawingRegions@@AAEXPAUIChartManager133101@@H@Z
_TEXT	SEGMENT
_pMainBlock$ = 8					; size = 4
_columnIndex$ = 12					; size = 4
?SetDrawingRegions_Row@CDrawingRegions@@AAEXPAUIChartManager133101@@H@Z PROC ; CDrawingRegions::SetDrawingRegions_Row, COMDAT
; _this$ = ecx

; 562  : {

  00000	55		 push	 ebp
  00001	8b ec		 mov	 ebp, esp

; 563  : 	if(pMainBlock == NULL)

  00003	8b 45 08	 mov	 eax, DWORD PTR _pMainBlock$[ebp]
  00006	85 c0		 test	 eax, eax
  00008	74 09		 je	 SHORT $LN1@SetDrawing

; 564  : 		return;
; 565  : 
; 566  : 	m_blockRegionList.GetBlockRegionList( columnIndex, pMainBlock);

  0000a	50		 push	 eax
  0000b	ff 75 0c	 push	 DWORD PTR _columnIndex$[ebp]
  0000e	e8 00 00 00 00	 call	 ?GetBlockRegionList@CBlockRegionList@@QAEHHPAUIChartManager133101@@@Z ; CBlockRegionList::GetBlockRegionList
$LN1@SetDrawing:

; 567  : }

  00013	5d		 pop	 ebp
  00014	c2 08 00	 ret	 8
?SetDrawingRegions_Row@CDrawingRegions@@AAEXPAUIChartManager133101@@H@Z ENDP ; CDrawingRegions::SetDrawingRegions_Row
_TEXT	ENDS
; Function compile flags: /Ogtp
; File D:\git\src\IBK\IBK_DRFN\ProjSrc\SrcChartEx\ChartAddIn\ChartAnalysisToolAddIn\AnalysisTool\AnalysisData.cpp
;	COMDAT ?SetDrawingRegions_Column@CDrawingRegions@@AAEXPAUIChartManager133101@@H@Z
_TEXT	SEGMENT
_pMainBlock$ = 8					; size = 4
_columnIndex$ = 12					; size = 4
?SetDrawingRegions_Column@CDrawingRegions@@AAEXPAUIChartManager133101@@H@Z PROC ; CDrawingRegions::SetDrawingRegions_Column, COMDAT
; _this$ = ecx

; 554  : {

  00000	55		 push	 ebp
  00001	8b ec		 mov	 ebp, esp
  00003	53		 push	 ebx
  00004	56		 push	 esi

; 555  : 	if(columnIndex < 0 || columnIndex >= pMainBlock->GetColumnCount())

  00005	8b 75 0c	 mov	 esi, DWORD PTR _columnIndex$[ebp]
  00008	8b d9		 mov	 ebx, ecx
  0000a	85 f6		 test	 esi, esi
  0000c	78 19		 js	 SHORT $LN3@SetDrawing
  0000e	57		 push	 edi
  0000f	8b 7d 08	 mov	 edi, DWORD PTR _pMainBlock$[ebp]
  00012	8b cf		 mov	 ecx, edi
  00014	8b 07		 mov	 eax, DWORD PTR [edi]
  00016	ff 50 20	 call	 DWORD PTR [eax+32]
  00019	3b f0		 cmp	 esi, eax
  0001b	7d 09		 jge	 SHORT $LN8@SetDrawing

; 566  : 	m_blockRegionList.GetBlockRegionList( columnIndex, pMainBlock);

  0001d	57		 push	 edi
  0001e	56		 push	 esi
  0001f	8b cb		 mov	 ecx, ebx
  00021	e8 00 00 00 00	 call	 ?GetBlockRegionList@CBlockRegionList@@QAEHHPAUIChartManager133101@@@Z ; CBlockRegionList::GetBlockRegionList
$LN8@SetDrawing:
  00026	5f		 pop	 edi
$LN3@SetDrawing:
  00027	5e		 pop	 esi

; 556  : 		return;
; 557  : 
; 558  : 	SetDrawingRegions_Row(pMainBlock, columnIndex);
; 559  : }

  00028	5b		 pop	 ebx
  00029	5d		 pop	 ebp
  0002a	c2 08 00	 ret	 8
?SetDrawingRegions_Column@CDrawingRegions@@AAEXPAUIChartManager133101@@H@Z ENDP ; CDrawingRegions::SetDrawingRegions_Column
_TEXT	ENDS
; Function compile flags: /Ogtp
; File D:\git\src\IBK\IBK_DRFN\ProjSrc\SrcChartEx\ChartAddIn\ChartAnalysisToolAddIn\AnalysisTool\AnalysisData.cpp
;	COMDAT ?SetDrawingRegions_Row@CDrawingRegions@@AAEXPAUIChartManager133101@@ABVCPoint@@@Z
_TEXT	SEGMENT
_pMainBlock$ = 8					; size = 4
_point$ = 12						; size = 4
?SetDrawingRegions_Row@CDrawingRegions@@AAEXPAUIChartManager133101@@ABVCPoint@@@Z PROC ; CDrawingRegions::SetDrawingRegions_Row, COMDAT
; _this$ = ecx

; 544  : {

  00000	55		 push	 ebp
  00001	8b ec		 mov	 ebp, esp

; 545  : 	if(pMainBlock == NULL)

  00003	8b 45 08	 mov	 eax, DWORD PTR _pMainBlock$[ebp]
  00006	57		 push	 edi
  00007	8b f9		 mov	 edi, ecx
  00009	85 c0		 test	 eax, eax
  0000b	74 13		 je	 SHORT $LN1@SetDrawing

; 546  : 		return;
; 547  : 
; 548  : 	m_blockRegionList.GetBlockRegionList(point, pMainBlock);

  0000d	50		 push	 eax
  0000e	ff 75 0c	 push	 DWORD PTR _point$[ebp]
  00011	e8 00 00 00 00	 call	 ?GetBlockRegionList@CBlockRegionList@@QAEHABVCPoint@@PAUIChartManager133101@@@Z ; CBlockRegionList::GetBlockRegionList

; 549  : 	m_blockRegionList.SetCurrentNumber(point);

  00016	ff 75 0c	 push	 DWORD PTR _point$[ebp]
  00019	8b cf		 mov	 ecx, edi
  0001b	e8 00 00 00 00	 call	 ?SetCurrentNumber@CBlockRegionList@@QAEXABVCPoint@@@Z ; CBlockRegionList::SetCurrentNumber
$LN1@SetDrawing:
  00020	5f		 pop	 edi

; 550  : }

  00021	5d		 pop	 ebp
  00022	c2 08 00	 ret	 8
?SetDrawingRegions_Row@CDrawingRegions@@AAEXPAUIChartManager133101@@ABVCPoint@@@Z ENDP ; CDrawingRegions::SetDrawingRegions_Row
_TEXT	ENDS
; Function compile flags: /Ogtp
; File D:\git\src\IBK\IBK_DRFN\ProjSrc\SrcChartEx\ChartAddIn\ChartAnalysisToolAddIn\AnalysisTool\AnalysisData.cpp
; File C:\Program Files (x86)\Microsoft Visual Studio\2019\Community\VC\Tools\MSVC\14.29.30133\atlmfc\include\atltypes.h
; File D:\git\src\IBK\IBK_DRFN\ProjSrc\SrcChartEx\ChartAddIn\ChartAnalysisToolAddIn\AnalysisTool\AnalysisData.cpp
; File C:\Program Files (x86)\Microsoft Visual Studio\2019\Community\VC\Tools\MSVC\14.29.30133\atlmfc\include\atltypes.h
; File D:\git\src\IBK\IBK_DRFN\ProjSrc\SrcChartEx\ChartAddIn\ChartAnalysisToolAddIn\AnalysisTool\AnalysisData.cpp
;	COMDAT ?SetDrawingRegions_Column@CDrawingRegions@@AAEXPAUIChartManager133101@@ABVCPoint@@@Z
_TEXT	SEGMENT
_totalGraphRegion$ = -20				; size = 16
__$ArrayPad$ = -4					; size = 4
_pMainBlock$ = 8					; size = 4
_point$ = 12						; size = 4
?SetDrawingRegions_Column@CDrawingRegions@@AAEXPAUIChartManager133101@@ABVCPoint@@@Z PROC ; CDrawingRegions::SetDrawingRegions_Column, COMDAT
; _this$ = ecx

; 530  : {

  00000	55		 push	 ebp
  00001	8b ec		 mov	 ebp, esp
  00003	83 ec 14	 sub	 esp, 20			; 00000014H
  00006	a1 00 00 00 00	 mov	 eax, DWORD PTR ___security_cookie
  0000b	33 c5		 xor	 eax, ebp
  0000d	89 45 fc	 mov	 DWORD PTR __$ArrayPad$[ebp], eax
  00010	53		 push	 ebx
  00011	8b 5d 08	 mov	 ebx, DWORD PTR _pMainBlock$[ebp]
  00014	56		 push	 esi
  00015	8b 75 0c	 mov	 esi, DWORD PTR _point$[ebp]
  00018	57		 push	 edi
  00019	8b f9		 mov	 edi, ecx

; 531  : 	if(pMainBlock == NULL)

  0001b	85 db		 test	 ebx, ebx
  0001d	74 3b		 je	 SHORT $LN9@SetDrawing

; 532  : 		return;
; 533  : 
; 534  : 	// tool    point column    
; 535  : 	// column     .
; 536  : 	CRect totalGraphRegion = m_blockRegionList.GetFullGraphRegionSumInList();

  0001f	8d 45 ec	 lea	 eax, DWORD PTR _totalGraphRegion$[ebp]
  00022	50		 push	 eax
  00023	e8 00 00 00 00	 call	 ?GetFullGraphRegionSumInList@CBlockRegionList@@QBE?AVCRect@@XZ ; CBlockRegionList::GetFullGraphRegionSumInList
; File C:\Program Files (x86)\Microsoft Visual Studio\2019\Community\VC\Tools\MSVC\14.29.30133\atlmfc\include\atltypes.h

; 638  : 	return ::IsRectEmpty(this);

  00028	8d 45 ec	 lea	 eax, DWORD PTR _totalGraphRegion$[ebp]
  0002b	50		 push	 eax
  0002c	ff 15 00 00 00
	00		 call	 DWORD PTR __imp__IsRectEmpty@4
; File D:\git\src\IBK\IBK_DRFN\ProjSrc\SrcChartEx\ChartAddIn\ChartAnalysisToolAddIn\AnalysisTool\AnalysisData.cpp

; 537  : 	if(totalGraphRegion.IsRectEmpty() && totalGraphRegion.PtInRect(point))

  00032	85 c0		 test	 eax, eax
  00034	74 13		 je	 SHORT $LN3@SetDrawing
; File C:\Program Files (x86)\Microsoft Visual Studio\2019\Community\VC\Tools\MSVC\14.29.30133\atlmfc\include\atltypes.h

; 648  : 	return ::PtInRect(this, point);

  00036	ff 76 04	 push	 DWORD PTR [esi+4]
  00039	8d 45 ec	 lea	 eax, DWORD PTR _totalGraphRegion$[ebp]
  0003c	ff 36		 push	 DWORD PTR [esi]
  0003e	50		 push	 eax
  0003f	ff 15 00 00 00
	00		 call	 DWORD PTR __imp__PtInRect@12
; File D:\git\src\IBK\IBK_DRFN\ProjSrc\SrcChartEx\ChartAddIn\ChartAnalysisToolAddIn\AnalysisTool\AnalysisData.cpp

; 537  : 	if(totalGraphRegion.IsRectEmpty() && totalGraphRegion.PtInRect(point))

  00045	85 c0		 test	 eax, eax
  00047	75 11		 jne	 SHORT $LN9@SetDrawing
$LN3@SetDrawing:

; 548  : 	m_blockRegionList.GetBlockRegionList(point, pMainBlock);

  00049	53		 push	 ebx
  0004a	56		 push	 esi
  0004b	8b cf		 mov	 ecx, edi
  0004d	e8 00 00 00 00	 call	 ?GetBlockRegionList@CBlockRegionList@@QAEHABVCPoint@@PAUIChartManager133101@@@Z ; CBlockRegionList::GetBlockRegionList

; 549  : 	m_blockRegionList.SetCurrentNumber(point);

  00052	56		 push	 esi
  00053	8b cf		 mov	 ecx, edi
  00055	e8 00 00 00 00	 call	 ?SetCurrentNumber@CBlockRegionList@@QAEXABVCPoint@@@Z ; CBlockRegionList::SetCurrentNumber
$LN9@SetDrawing:

; 538  : 		return;
; 539  : 
; 540  : 	SetDrawingRegions_Row(pMainBlock, point);
; 541  : }

  0005a	8b 4d fc	 mov	 ecx, DWORD PTR __$ArrayPad$[ebp]
  0005d	5f		 pop	 edi
  0005e	5e		 pop	 esi
  0005f	33 cd		 xor	 ecx, ebp
  00061	5b		 pop	 ebx
  00062	e8 00 00 00 00	 call	 @__security_check_cookie@4
  00067	8b e5		 mov	 esp, ebp
  00069	5d		 pop	 ebp
  0006a	c2 08 00	 ret	 8
?SetDrawingRegions_Column@CDrawingRegions@@AAEXPAUIChartManager133101@@ABVCPoint@@@Z ENDP ; CDrawingRegions::SetDrawingRegions_Column
_TEXT	ENDS
; Function compile flags: /Ogtp
; File D:\git\src\IBK\IBK_DRFN\ProjSrc\SrcChartEx\ChartAddIn\ChartAnalysisToolAddIn\AnalysisTool\AnalysisData.cpp
; File C:\Program Files (x86)\Microsoft Visual Studio\2019\Community\VC\Tools\MSVC\14.29.30133\atlmfc\include\atltypes.h
; File D:\git\src\IBK\IBK_DRFN\ProjSrc\SrcChartEx\ChartAddIn\ChartAnalysisToolAddIn\AnalysisTool\AnalysisData.cpp
;	COMDAT ?DoseGetDrawingRegionAgain@CDrawingRegions@@AAE_NABVCPoint@@@Z
_TEXT	SEGMENT
_region$ = -20						; size = 16
__$ArrayPad$ = -4					; size = 4
_point$ = 8						; size = 4
?DoseGetDrawingRegionAgain@CDrawingRegions@@AAE_NABVCPoint@@@Z PROC ; CDrawingRegions::DoseGetDrawingRegionAgain, COMDAT
; _this$ = ecx

; 518  : {

  00000	55		 push	 ebp
  00001	8b ec		 mov	 ebp, esp
  00003	83 ec 14	 sub	 esp, 20			; 00000014H
  00006	a1 00 00 00 00	 mov	 eax, DWORD PTR ___security_cookie
  0000b	33 c5		 xor	 eax, ebp
  0000d	89 45 fc	 mov	 DWORD PTR __$ArrayPad$[ebp], eax
  00010	56		 push	 esi
  00011	57		 push	 edi
  00012	8b 7d 08	 mov	 edi, DWORD PTR _point$[ebp]
  00015	8b f1		 mov	 esi, ecx

; 454  : 	return m_blockRegionList.GetCount();

  00017	e8 00 00 00 00	 call	 ?GetCount@CBlockRegionList@@QBEHXZ ; CBlockRegionList::GetCount

; 519  : 	if(GetCount() <= 0)

  0001c	85 c0		 test	 eax, eax
  0001e	7f 14		 jg	 SHORT $LN2@DoseGetDra

; 520  : 		return true;

  00020	5f		 pop	 edi
  00021	b0 01		 mov	 al, 1

; 525  : }

  00023	5e		 pop	 esi
  00024	8b 4d fc	 mov	 ecx, DWORD PTR __$ArrayPad$[ebp]
  00027	33 cd		 xor	 ecx, ebp
  00029	e8 00 00 00 00	 call	 @__security_check_cookie@4
  0002e	8b e5		 mov	 esp, ebp
  00030	5d		 pop	 ebp
  00031	c2 04 00	 ret	 4
$LN2@DoseGetDra:

; 521  : 
; 522  : 	m_blockRegionList.SetCurrentNumber(point);

  00034	57		 push	 edi
  00035	8b ce		 mov	 ecx, esi
  00037	e8 00 00 00 00	 call	 ?SetCurrentNumber@CBlockRegionList@@QAEXABVCPoint@@@Z ; CBlockRegionList::SetCurrentNumber

; 523  : 	CRect region = m_blockRegionList.GetFullGraphRegionSumInList();

  0003c	8d 45 ec	 lea	 eax, DWORD PTR _region$[ebp]
  0003f	8b ce		 mov	 ecx, esi
  00041	50		 push	 eax
  00042	e8 00 00 00 00	 call	 ?GetFullGraphRegionSumInList@CBlockRegionList@@QBE?AVCRect@@XZ ; CBlockRegionList::GetFullGraphRegionSumInList
; File C:\Program Files (x86)\Microsoft Visual Studio\2019\Community\VC\Tools\MSVC\14.29.30133\atlmfc\include\atltypes.h

; 648  : 	return ::PtInRect(this, point);

  00047	ff 77 04	 push	 DWORD PTR [edi+4]
  0004a	8d 45 ec	 lea	 eax, DWORD PTR _region$[ebp]
  0004d	ff 37		 push	 DWORD PTR [edi]
  0004f	50		 push	 eax
  00050	ff 15 00 00 00
	00		 call	 DWORD PTR __imp__PtInRect@12
; File D:\git\src\IBK\IBK_DRFN\ProjSrc\SrcChartEx\ChartAddIn\ChartAnalysisToolAddIn\AnalysisTool\AnalysisData.cpp

; 525  : }

  00056	8b 4d fc	 mov	 ecx, DWORD PTR __$ArrayPad$[ebp]
  00059	85 c0		 test	 eax, eax
  0005b	5f		 pop	 edi
  0005c	0f 94 c0	 sete	 al
  0005f	33 cd		 xor	 ecx, ebp
  00061	5e		 pop	 esi
  00062	e8 00 00 00 00	 call	 @__security_check_cookie@4
  00067	8b e5		 mov	 esp, ebp
  00069	5d		 pop	 ebp
  0006a	c2 04 00	 ret	 4
?DoseGetDrawingRegionAgain@CDrawingRegions@@AAE_NABVCPoint@@@Z ENDP ; CDrawingRegions::DoseGetDrawingRegionAgain
_TEXT	ENDS
; Function compile flags: /Ogtp
; File D:\git\src\IBK\IBK_DRFN\ProjSrc\SrcChartEx\ChartAddIn\ChartAnalysisToolAddIn\AnalysisTool\AnalysisData.cpp
; File C:\Program Files (x86)\Microsoft Visual Studio\2019\Community\VC\Tools\MSVC\14.29.30133\atlmfc\include\atltypes.h
; File D:\git\src\IBK\IBK_DRFN\ProjSrc\SrcChartEx\ChartAddIn\ChartAnalysisToolAddIn\AnalysisTool\AnalysisData.cpp
;	COMDAT ?PointInCurrentRegion@CDrawingRegions@@QBE_NABVCPoint@@@Z
_TEXT	SEGMENT
$T1 = -148						; size = 96
$T2 = -52						; size = 32
$T3 = -20						; size = 16
__$ArrayPad$ = -4					; size = 4
_point$ = 8						; size = 4
?PointInCurrentRegion@CDrawingRegions@@QBE_NABVCPoint@@@Z PROC ; CDrawingRegions::PointInCurrentRegion, COMDAT
; _this$ = ecx

; 510  : {

  00000	55		 push	 ebp
  00001	8b ec		 mov	 ebp, esp
  00003	81 ec 94 00 00
	00		 sub	 esp, 148		; 00000094H
  00009	a1 00 00 00 00	 mov	 eax, DWORD PTR ___security_cookie
  0000e	33 c5		 xor	 eax, ebp
  00010	89 45 fc	 mov	 DWORD PTR __$ArrayPad$[ebp], eax
  00013	8b 45 08	 mov	 eax, DWORD PTR _point$[ebp]
  00016	56		 push	 esi
  00017	57		 push	 edi

; 511  : 	return ( GetCurrentFullGraphRegion().PtInRect(point) ? true : false);

  00018	8b 38		 mov	 edi, DWORD PTR [eax]
  0001a	8b 70 04	 mov	 esi, DWORD PTR [eax+4]

; 444  : 	return m_blockRegionList.GetCurrentAt().GetGraphPartRegion();

  0001d	8d 45 cc	 lea	 eax, DWORD PTR $T2[ebp]
  00020	50		 push	 eax
  00021	8d 85 6c ff ff
	ff		 lea	 eax, DWORD PTR $T1[ebp]
  00027	50		 push	 eax
  00028	e8 00 00 00 00	 call	 ?GetCurrentAt@CBlockRegionList@@QBE?AVCBlockRegion@@XZ ; CBlockRegionList::GetCurrentAt
  0002d	8b c8		 mov	 ecx, eax
  0002f	e8 00 00 00 00	 call	 ?GetGraphPartRegion@CBlockRegion@@QBE?AVCGraphPartRegion@@XZ ; CBlockRegion::GetGraphPartRegion

; 475  : 	return GetCurrentGraphPartRegion().GetFull();

  00034	8d 45 ec	 lea	 eax, DWORD PTR $T3[ebp]
  00037	50		 push	 eax
  00038	8d 4d cc	 lea	 ecx, DWORD PTR $T2[ebp]
  0003b	e8 00 00 00 00	 call	 ?GetFull@CGraphPartRegion@@QBE?AVCRect@@XZ ; CGraphPartRegion::GetFull
; File C:\Program Files (x86)\Microsoft Visual Studio\2019\Community\VC\Tools\MSVC\14.29.30133\atlmfc\include\atltypes.h

; 648  : 	return ::PtInRect(this, point);

  00040	56		 push	 esi
  00041	57		 push	 edi
  00042	8d 45 ec	 lea	 eax, DWORD PTR $T3[ebp]
  00045	50		 push	 eax
  00046	ff 15 00 00 00
	00		 call	 DWORD PTR __imp__PtInRect@12
; File D:\git\src\IBK\IBK_DRFN\ProjSrc\SrcChartEx\ChartAddIn\ChartAnalysisToolAddIn\AnalysisTool\AnalysisData.cpp

; 512  : }

  0004c	8b 4d fc	 mov	 ecx, DWORD PTR __$ArrayPad$[ebp]
  0004f	85 c0		 test	 eax, eax
  00051	5f		 pop	 edi
  00052	0f 95 c0	 setne	 al
  00055	33 cd		 xor	 ecx, ebp
  00057	5e		 pop	 esi
  00058	e8 00 00 00 00	 call	 @__security_check_cookie@4
  0005d	8b e5		 mov	 esp, ebp
  0005f	5d		 pop	 ebp
  00060	c2 04 00	 ret	 4
?PointInCurrentRegion@CDrawingRegions@@QBE_NABVCPoint@@@Z ENDP ; CDrawingRegions::PointInCurrentRegion
_TEXT	ENDS
; Function compile flags: /Ogtp
; File D:\git\src\IBK\IBK_DRFN\ProjSrc\SrcChartEx\ChartAddIn\ChartAnalysisToolAddIn\AnalysisTool\AnalysisData.cpp
; File C:\Program Files (x86)\Microsoft Visual Studio\2019\Community\VC\Tools\MSVC\14.29.30133\atlmfc\include\atltypes.h
; File D:\git\src\IBK\IBK_DRFN\ProjSrc\SrcChartEx\ChartAddIn\ChartAnalysisToolAddIn\AnalysisTool\AnalysisData.cpp
; File C:\Program Files (x86)\Microsoft Visual Studio\2019\Community\VC\Tools\MSVC\14.29.30133\atlmfc\include\atltypes.h
; File D:\git\src\IBK\IBK_DRFN\ProjSrc\SrcChartEx\ChartAddIn\ChartAnalysisToolAddIn\AnalysisTool\AnalysisData.cpp
; File C:\Program Files (x86)\Microsoft Visual Studio\2019\Community\VC\Tools\MSVC\14.29.30133\atlmfc\include\atltypes.h
; File D:\git\src\IBK\IBK_DRFN\ProjSrc\SrcChartEx\ChartAddIn\ChartAnalysisToolAddIn\AnalysisTool\AnalysisData.cpp
;	COMDAT ?PointInDrawingRegionsInColumn@CDrawingRegions@@QBE_NABVCPoint@@@Z
_TEXT	SEGMENT
$T1 = -132						; size = 96
_region$2 = -36						; size = 16
_region$ = -20						; size = 16
__$ArrayPad$ = -4					; size = 4
_point$ = 8						; size = 4
?PointInDrawingRegionsInColumn@CDrawingRegions@@QBE_NABVCPoint@@@Z PROC ; CDrawingRegions::PointInDrawingRegionsInColumn, COMDAT
; _this$ = ecx

; 501  : {

  00000	55		 push	 ebp
  00001	8b ec		 mov	 ebp, esp
  00003	81 ec 84 00 00
	00		 sub	 esp, 132		; 00000084H
  00009	a1 00 00 00 00	 mov	 eax, DWORD PTR ___security_cookie
  0000e	33 c5		 xor	 eax, ebp
  00010	89 45 fc	 mov	 DWORD PTR __$ArrayPad$[ebp], eax
  00013	53		 push	 ebx
  00014	8b 5d 08	 mov	 ebx, DWORD PTR _point$[ebp]
  00017	56		 push	 esi
  00018	57		 push	 edi
  00019	8b f9		 mov	 edi, ecx

; 464  : 	for(int nIndex = 0; nIndex < GetCount(); nIndex++)

  0001b	33 f6		 xor	 esi, esi

; 454  : 	return m_blockRegionList.GetCount();

  0001d	e8 00 00 00 00	 call	 ?GetCount@CBlockRegionList@@QBEHXZ ; CBlockRegionList::GetCount

; 464  : 	for(int nIndex = 0; nIndex < GetCount(); nIndex++)

  00022	85 c0		 test	 eax, eax
  00024	7e 3d		 jle	 SHORT $LN6@PointInDra
$LL7@PointInDra:

; 434  : 	return m_blockRegionList.GetAt(nIndex);

  00026	56		 push	 esi
  00027	8d 85 7c ff ff
	ff		 lea	 eax, DWORD PTR $T1[ebp]
  0002d	8b cf		 mov	 ecx, edi
  0002f	50		 push	 eax
  00030	e8 00 00 00 00	 call	 ?GetAt@CBlockRegionList@@QBE?AVCBlockRegion@@H@Z ; CBlockRegionList::GetAt

; 466  : 		CRect region = GetBlockRegion(nIndex).GetFullGraphRegion();

  00035	8d 45 dc	 lea	 eax, DWORD PTR _region$2[ebp]
  00038	50		 push	 eax
  00039	8d 8d 7c ff ff
	ff		 lea	 ecx, DWORD PTR $T1[ebp]
  0003f	e8 00 00 00 00	 call	 ?GetFullGraphRegion@CBlockRegion@@QBE?AVCRect@@XZ ; CBlockRegion::GetFullGraphRegion
; File C:\Program Files (x86)\Microsoft Visual Studio\2019\Community\VC\Tools\MSVC\14.29.30133\atlmfc\include\atltypes.h

; 648  : 	return ::PtInRect(this, point);

  00044	ff 73 04	 push	 DWORD PTR [ebx+4]
  00047	8d 45 dc	 lea	 eax, DWORD PTR _region$2[ebp]
  0004a	ff 33		 push	 DWORD PTR [ebx]
  0004c	50		 push	 eax
  0004d	ff 15 00 00 00
	00		 call	 DWORD PTR __imp__PtInRect@12
; File D:\git\src\IBK\IBK_DRFN\ProjSrc\SrcChartEx\ChartAddIn\ChartAnalysisToolAddIn\AnalysisTool\AnalysisData.cpp

; 467  : 		if(region.PtInRect(point))

  00053	85 c0		 test	 eax, eax
  00055	75 36		 jne	 SHORT $LN23@PointInDra

; 454  : 	return m_blockRegionList.GetCount();

  00057	8b cf		 mov	 ecx, edi

; 464  : 	for(int nIndex = 0; nIndex < GetCount(); nIndex++)

  00059	46		 inc	 esi

; 454  : 	return m_blockRegionList.GetCount();

  0005a	e8 00 00 00 00	 call	 ?GetCount@CBlockRegionList@@QBEHXZ ; CBlockRegionList::GetCount

; 464  : 	for(int nIndex = 0; nIndex < GetCount(); nIndex++)

  0005f	3b f0		 cmp	 esi, eax
  00061	7c c3		 jl	 SHORT $LL7@PointInDra
$LN6@PointInDra:
  00063	0f 57 c0	 xorps	 xmm0, xmm0
$LN39@PointInDra:
; File C:\Program Files (x86)\Microsoft Visual Studio\2019\Community\VC\Tools\MSVC\14.29.30133\atlmfc\include\atltypes.h

; 638  : 	return ::IsRectEmpty(this);

  00066	8d 45 ec	 lea	 eax, DWORD PTR _region$[ebp]
  00069	50		 push	 eax
  0006a	0f 11 45 ec	 movups	 XMMWORD PTR _region$[ebp], xmm0
  0006e	ff 15 00 00 00
	00		 call	 DWORD PTR __imp__IsRectEmpty@4
; File D:\git\src\IBK\IBK_DRFN\ProjSrc\SrcChartEx\ChartAddIn\ChartAnalysisToolAddIn\AnalysisTool\AnalysisData.cpp

; 503  : 	if(region.IsRectEmpty())

  00074	85 c0		 test	 eax, eax
  00076	74 1b		 je	 SHORT $LN2@PointInDra

; 507  : }

  00078	5f		 pop	 edi
  00079	5e		 pop	 esi
  0007a	32 c0		 xor	 al, al
  0007c	5b		 pop	 ebx
  0007d	8b 4d fc	 mov	 ecx, DWORD PTR __$ArrayPad$[ebp]
  00080	33 cd		 xor	 ecx, ebp
  00082	e8 00 00 00 00	 call	 @__security_check_cookie@4
  00087	8b e5		 mov	 esp, ebp
  00089	5d		 pop	 ebp
  0008a	c2 04 00	 ret	 4
$LN23@PointInDra:

; 468  : 			return region;

  0008d	0f 10 45 dc	 movups	 xmm0, XMMWORD PTR _region$2[ebp]
  00091	eb d3		 jmp	 SHORT $LN39@PointInDra
$LN2@PointInDra:
; File C:\Program Files (x86)\Microsoft Visual Studio\2019\Community\VC\Tools\MSVC\14.29.30133\atlmfc\include\atltypes.h

; 648  : 	return ::PtInRect(this, point);

  00093	ff 73 04	 push	 DWORD PTR [ebx+4]
  00096	8d 45 ec	 lea	 eax, DWORD PTR _region$[ebp]
  00099	ff 33		 push	 DWORD PTR [ebx]
  0009b	50		 push	 eax
  0009c	ff 15 00 00 00
	00		 call	 DWORD PTR __imp__PtInRect@12
; File D:\git\src\IBK\IBK_DRFN\ProjSrc\SrcChartEx\ChartAddIn\ChartAnalysisToolAddIn\AnalysisTool\AnalysisData.cpp

; 507  : }

  000a2	8b 4d fc	 mov	 ecx, DWORD PTR __$ArrayPad$[ebp]
  000a5	85 c0		 test	 eax, eax
  000a7	5f		 pop	 edi
  000a8	0f 95 c0	 setne	 al
  000ab	33 cd		 xor	 ecx, ebp
  000ad	5e		 pop	 esi
  000ae	5b		 pop	 ebx
  000af	e8 00 00 00 00	 call	 @__security_check_cookie@4
  000b4	8b e5		 mov	 esp, ebp
  000b6	5d		 pop	 ebp
  000b7	c2 04 00	 ret	 4
?PointInDrawingRegionsInColumn@CDrawingRegions@@QBE_NABVCPoint@@@Z ENDP ; CDrawingRegions::PointInDrawingRegionsInColumn
_TEXT	ENDS
; Function compile flags: /Ogtp
; File D:\git\src\IBK\IBK_DRFN\ProjSrc\SrcChartEx\ChartAddIn\ChartAnalysisToolAddIn\AnalysisTool\AnalysisData.cpp
;	COMDAT ?GetCurrentUnmixedGraphRegion@CDrawingRegions@@QBE?AVCRect@@XZ
_TEXT	SEGMENT
$T1 = -100						; size = 96
__$ArrayPad$ = -4					; size = 4
___$ReturnUdt$ = 8					; size = 4
?GetCurrentUnmixedGraphRegion@CDrawingRegions@@QBE?AVCRect@@XZ PROC ; CDrawingRegions::GetCurrentUnmixedGraphRegion, COMDAT
; _this$ = ecx

; 495  : {

  00000	55		 push	 ebp
  00001	8b ec		 mov	 ebp, esp
  00003	83 ec 64	 sub	 esp, 100		; 00000064H
  00006	a1 00 00 00 00	 mov	 eax, DWORD PTR ___security_cookie
  0000b	33 c5		 xor	 eax, ebp
  0000d	89 45 fc	 mov	 DWORD PTR __$ArrayPad$[ebp], eax
  00010	56		 push	 esi
  00011	8b 75 08	 mov	 esi, DWORD PTR ___$ReturnUdt$[ebp]

; 496  : 	return m_blockRegionList.GetCurrentAt().GetUnmixedGraphRegion();

  00014	8d 45 9c	 lea	 eax, DWORD PTR $T1[ebp]
  00017	56		 push	 esi
  00018	50		 push	 eax
  00019	e8 00 00 00 00	 call	 ?GetCurrentAt@CBlockRegionList@@QBE?AVCBlockRegion@@XZ ; CBlockRegionList::GetCurrentAt
  0001e	8b c8		 mov	 ecx, eax
  00020	e8 00 00 00 00	 call	 ?GetUnmixedGraphRegion@CBlockRegion@@QBE?AVCRect@@XZ ; CBlockRegion::GetUnmixedGraphRegion

; 497  : }

  00025	8b 4d fc	 mov	 ecx, DWORD PTR __$ArrayPad$[ebp]
  00028	8b c6		 mov	 eax, esi
  0002a	33 cd		 xor	 ecx, ebp
  0002c	5e		 pop	 esi
  0002d	e8 00 00 00 00	 call	 @__security_check_cookie@4
  00032	8b e5		 mov	 esp, ebp
  00034	5d		 pop	 ebp
  00035	c2 04 00	 ret	 4
?GetCurrentUnmixedGraphRegion@CDrawingRegions@@QBE?AVCRect@@XZ ENDP ; CDrawingRegions::GetCurrentUnmixedGraphRegion
_TEXT	ENDS
; Function compile flags: /Ogtp
; File D:\git\src\IBK\IBK_DRFN\ProjSrc\SrcChartEx\ChartAddIn\ChartAnalysisToolAddIn\AnalysisTool\AnalysisData.cpp
; File C:\Program Files (x86)\Microsoft Visual Studio\2019\Community\VC\Tools\MSVC\14.29.30133\atlmfc\include\atltypes.h
; File D:\git\src\IBK\IBK_DRFN\ProjSrc\SrcChartEx\ChartAddIn\ChartAnalysisToolAddIn\AnalysisTool\AnalysisData.cpp
; File C:\Program Files (x86)\Microsoft Visual Studio\2019\Community\VC\Tools\MSVC\14.29.30133\atlmfc\include\atltypes.h
; File D:\git\src\IBK\IBK_DRFN\ProjSrc\SrcChartEx\ChartAddIn\ChartAnalysisToolAddIn\AnalysisTool\AnalysisData.cpp
;	COMDAT ?GetUnmixedGraphRegion@CDrawingRegions@@QBE?AVCRect@@ABVCPoint@@@Z
_TEXT	SEGMENT
_point$GSCopy$1$ = -120					; size = 4
$T1 = -116						; size = 96
_region$2 = -20						; size = 16
__$ArrayPad$ = -4					; size = 4
___$ReturnUdt$ = 8					; size = 4
_point$ = 12						; size = 4
?GetUnmixedGraphRegion@CDrawingRegions@@QBE?AVCRect@@ABVCPoint@@@Z PROC ; CDrawingRegions::GetUnmixedGraphRegion, COMDAT
; _this$ = ecx

; 484  : {

  00000	55		 push	 ebp
  00001	8b ec		 mov	 ebp, esp
  00003	83 ec 78	 sub	 esp, 120		; 00000078H
  00006	a1 00 00 00 00	 mov	 eax, DWORD PTR ___security_cookie
  0000b	33 c5		 xor	 eax, ebp
  0000d	89 45 fc	 mov	 DWORD PTR __$ArrayPad$[ebp], eax
  00010	8b 45 0c	 mov	 eax, DWORD PTR _point$[ebp]
  00013	53		 push	 ebx
  00014	56		 push	 esi
  00015	57		 push	 edi
  00016	8b 7d 08	 mov	 edi, DWORD PTR ___$ReturnUdt$[ebp]
  00019	8b d9		 mov	 ebx, ecx
  0001b	89 45 88	 mov	 DWORD PTR _point$GSCopy$1$[ebp], eax

; 485  : 	for(int nIndex = 0; nIndex < GetCount(); nIndex++)

  0001e	33 f6		 xor	 esi, esi

; 454  : 	return m_blockRegionList.GetCount();

  00020	e8 00 00 00 00	 call	 ?GetCount@CBlockRegionList@@QBEHXZ ; CBlockRegionList::GetCount

; 485  : 	for(int nIndex = 0; nIndex < GetCount(); nIndex++)

  00025	85 c0		 test	 eax, eax
  00027	7e 41		 jle	 SHORT $LN3@GetUnmixed
  00029	0f 1f 80 00 00
	00 00		 npad	 7
$LL4@GetUnmixed:

; 434  : 	return m_blockRegionList.GetAt(nIndex);

  00030	56		 push	 esi
  00031	8d 45 8c	 lea	 eax, DWORD PTR $T1[ebp]
  00034	8b cb		 mov	 ecx, ebx
  00036	50		 push	 eax
  00037	e8 00 00 00 00	 call	 ?GetAt@CBlockRegionList@@QBE?AVCBlockRegion@@H@Z ; CBlockRegionList::GetAt

; 486  : 	{
; 487  : 		CRect region = GetBlockRegion(nIndex).GetUnmixedGraphRegion();

  0003c	8d 45 ec	 lea	 eax, DWORD PTR _region$2[ebp]
  0003f	50		 push	 eax
  00040	8d 4d 8c	 lea	 ecx, DWORD PTR $T1[ebp]
  00043	e8 00 00 00 00	 call	 ?GetUnmixedGraphRegion@CBlockRegion@@QBE?AVCRect@@XZ ; CBlockRegion::GetUnmixedGraphRegion
; File C:\Program Files (x86)\Microsoft Visual Studio\2019\Community\VC\Tools\MSVC\14.29.30133\atlmfc\include\atltypes.h

; 648  : 	return ::PtInRect(this, point);

  00048	8b 45 88	 mov	 eax, DWORD PTR _point$GSCopy$1$[ebp]
  0004b	ff 70 04	 push	 DWORD PTR [eax+4]
  0004e	ff 30		 push	 DWORD PTR [eax]
  00050	8d 45 ec	 lea	 eax, DWORD PTR _region$2[ebp]
  00053	50		 push	 eax
  00054	ff 15 00 00 00
	00		 call	 DWORD PTR __imp__PtInRect@12
; File D:\git\src\IBK\IBK_DRFN\ProjSrc\SrcChartEx\ChartAddIn\ChartAnalysisToolAddIn\AnalysisTool\AnalysisData.cpp

; 488  : 		if(region.PtInRect(point))

  0005a	85 c0		 test	 eax, eax
  0005c	75 3c		 jne	 SHORT $LN16@GetUnmixed

; 454  : 	return m_blockRegionList.GetCount();

  0005e	8b cb		 mov	 ecx, ebx

; 485  : 	for(int nIndex = 0; nIndex < GetCount(); nIndex++)

  00060	46		 inc	 esi

; 454  : 	return m_blockRegionList.GetCount();

  00061	e8 00 00 00 00	 call	 ?GetCount@CBlockRegionList@@QBEHXZ ; CBlockRegionList::GetCount

; 485  : 	for(int nIndex = 0; nIndex < GetCount(); nIndex++)

  00066	3b f0		 cmp	 esi, eax
  00068	7c c6		 jl	 SHORT $LL4@GetUnmixed
$LN3@GetUnmixed:
; File C:\Program Files (x86)\Microsoft Visual Studio\2019\Community\VC\Tools\MSVC\14.29.30133\atlmfc\include\atltypes.h

; 540  : 	left = l;

  0006a	c7 07 00 00 00
	00		 mov	 DWORD PTR [edi], 0

; 541  : 	top = t;

  00070	c7 47 04 00 00
	00 00		 mov	 DWORD PTR [edi+4], 0

; 542  : 	right = r;

  00077	c7 47 08 00 00
	00 00		 mov	 DWORD PTR [edi+8], 0

; 543  : 	bottom = b;

  0007e	c7 47 0c 00 00
	00 00		 mov	 DWORD PTR [edi+12], 0
$LN20@GetUnmixed:
; File D:\git\src\IBK\IBK_DRFN\ProjSrc\SrcChartEx\ChartAddIn\ChartAnalysisToolAddIn\AnalysisTool\AnalysisData.cpp

; 492  : }

  00085	8b 4d fc	 mov	 ecx, DWORD PTR __$ArrayPad$[ebp]
  00088	8b c7		 mov	 eax, edi
  0008a	5f		 pop	 edi
  0008b	5e		 pop	 esi
  0008c	33 cd		 xor	 ecx, ebp
  0008e	5b		 pop	 ebx
  0008f	e8 00 00 00 00	 call	 @__security_check_cookie@4
  00094	8b e5		 mov	 esp, ebp
  00096	5d		 pop	 ebp
  00097	c2 08 00	 ret	 8
$LN16@GetUnmixed:

; 489  : 			return region;

  0009a	0f 10 45 ec	 movups	 xmm0, XMMWORD PTR _region$2[ebp]
  0009e	0f 11 07	 movups	 XMMWORD PTR [edi], xmm0
  000a1	eb e2		 jmp	 SHORT $LN20@GetUnmixed
?GetUnmixedGraphRegion@CDrawingRegions@@QBE?AVCRect@@ABVCPoint@@@Z ENDP ; CDrawingRegions::GetUnmixedGraphRegion
_TEXT	ENDS
; Function compile flags: /Ogtp
; File D:\git\src\IBK\IBK_DRFN\ProjSrc\SrcChartEx\ChartAddIn\ChartAnalysisToolAddIn\AnalysisTool\AnalysisData.cpp
;	COMDAT ?GetUnmixedGraphRegion@CDrawingRegions@@QBE?AVCRect@@H@Z
_TEXT	SEGMENT
$T1 = -100						; size = 96
__$ArrayPad$ = -4					; size = 4
___$ReturnUdt$ = 8					; size = 4
_nIndex$ = 12						; size = 4
?GetUnmixedGraphRegion@CDrawingRegions@@QBE?AVCRect@@H@Z PROC ; CDrawingRegions::GetUnmixedGraphRegion, COMDAT
; _this$ = ecx

; 479  : {

  00000	55		 push	 ebp
  00001	8b ec		 mov	 ebp, esp
  00003	83 ec 64	 sub	 esp, 100		; 00000064H
  00006	a1 00 00 00 00	 mov	 eax, DWORD PTR ___security_cookie
  0000b	33 c5		 xor	 eax, ebp
  0000d	89 45 fc	 mov	 DWORD PTR __$ArrayPad$[ebp], eax
  00010	8b 55 0c	 mov	 edx, DWORD PTR _nIndex$[ebp]

; 434  : 	return m_blockRegionList.GetAt(nIndex);

  00013	8d 45 9c	 lea	 eax, DWORD PTR $T1[ebp]

; 479  : {

  00016	56		 push	 esi
  00017	8b 75 08	 mov	 esi, DWORD PTR ___$ReturnUdt$[ebp]

; 434  : 	return m_blockRegionList.GetAt(nIndex);

  0001a	52		 push	 edx
  0001b	50		 push	 eax
  0001c	e8 00 00 00 00	 call	 ?GetAt@CBlockRegionList@@QBE?AVCBlockRegion@@H@Z ; CBlockRegionList::GetAt

; 480  : 	return GetBlockRegion(nIndex).GetUnmixedGraphRegion();

  00021	56		 push	 esi
  00022	8d 4d 9c	 lea	 ecx, DWORD PTR $T1[ebp]
  00025	e8 00 00 00 00	 call	 ?GetUnmixedGraphRegion@CBlockRegion@@QBE?AVCRect@@XZ ; CBlockRegion::GetUnmixedGraphRegion

; 481  : }

  0002a	8b 4d fc	 mov	 ecx, DWORD PTR __$ArrayPad$[ebp]
  0002d	8b c6		 mov	 eax, esi
  0002f	33 cd		 xor	 ecx, ebp
  00031	5e		 pop	 esi
  00032	e8 00 00 00 00	 call	 @__security_check_cookie@4
  00037	8b e5		 mov	 esp, ebp
  00039	5d		 pop	 ebp
  0003a	c2 08 00	 ret	 8
?GetUnmixedGraphRegion@CDrawingRegions@@QBE?AVCRect@@H@Z ENDP ; CDrawingRegions::GetUnmixedGraphRegion
_TEXT	ENDS
; Function compile flags: /Ogtp
; File D:\git\src\IBK\IBK_DRFN\ProjSrc\SrcChartEx\ChartAddIn\ChartAnalysisToolAddIn\AnalysisTool\AnalysisData.cpp
;	COMDAT ?GetCurrentFullGraphRegion@CDrawingRegions@@QBE?AVCRect@@XZ
_TEXT	SEGMENT
$T1 = -132						; size = 96
$T2 = -36						; size = 32
__$ArrayPad$ = -4					; size = 4
___$ReturnUdt$ = 8					; size = 4
?GetCurrentFullGraphRegion@CDrawingRegions@@QBE?AVCRect@@XZ PROC ; CDrawingRegions::GetCurrentFullGraphRegion, COMDAT
; _this$ = ecx

; 474  : {

  00000	55		 push	 ebp
  00001	8b ec		 mov	 ebp, esp
  00003	81 ec 84 00 00
	00		 sub	 esp, 132		; 00000084H
  00009	a1 00 00 00 00	 mov	 eax, DWORD PTR ___security_cookie
  0000e	33 c5		 xor	 eax, ebp
  00010	89 45 fc	 mov	 DWORD PTR __$ArrayPad$[ebp], eax
  00013	56		 push	 esi
  00014	8b 75 08	 mov	 esi, DWORD PTR ___$ReturnUdt$[ebp]

; 444  : 	return m_blockRegionList.GetCurrentAt().GetGraphPartRegion();

  00017	8d 45 dc	 lea	 eax, DWORD PTR $T2[ebp]
  0001a	50		 push	 eax
  0001b	8d 85 7c ff ff
	ff		 lea	 eax, DWORD PTR $T1[ebp]
  00021	50		 push	 eax
  00022	e8 00 00 00 00	 call	 ?GetCurrentAt@CBlockRegionList@@QBE?AVCBlockRegion@@XZ ; CBlockRegionList::GetCurrentAt
  00027	8b c8		 mov	 ecx, eax
  00029	e8 00 00 00 00	 call	 ?GetGraphPartRegion@CBlockRegion@@QBE?AVCGraphPartRegion@@XZ ; CBlockRegion::GetGraphPartRegion

; 475  : 	return GetCurrentGraphPartRegion().GetFull();

  0002e	56		 push	 esi
  0002f	8d 4d dc	 lea	 ecx, DWORD PTR $T2[ebp]
  00032	e8 00 00 00 00	 call	 ?GetFull@CGraphPartRegion@@QBE?AVCRect@@XZ ; CGraphPartRegion::GetFull

; 476  : }

  00037	8b 4d fc	 mov	 ecx, DWORD PTR __$ArrayPad$[ebp]
  0003a	8b c6		 mov	 eax, esi
  0003c	33 cd		 xor	 ecx, ebp
  0003e	5e		 pop	 esi
  0003f	e8 00 00 00 00	 call	 @__security_check_cookie@4
  00044	8b e5		 mov	 esp, ebp
  00046	5d		 pop	 ebp
  00047	c2 04 00	 ret	 4
?GetCurrentFullGraphRegion@CDrawingRegions@@QBE?AVCRect@@XZ ENDP ; CDrawingRegions::GetCurrentFullGraphRegion
_TEXT	ENDS
; Function compile flags: /Ogtp
; File D:\git\src\IBK\IBK_DRFN\ProjSrc\SrcChartEx\ChartAddIn\ChartAnalysisToolAddIn\AnalysisTool\AnalysisData.cpp
; File C:\Program Files (x86)\Microsoft Visual Studio\2019\Community\VC\Tools\MSVC\14.29.30133\atlmfc\include\atltypes.h
; File D:\git\src\IBK\IBK_DRFN\ProjSrc\SrcChartEx\ChartAddIn\ChartAnalysisToolAddIn\AnalysisTool\AnalysisData.cpp
; File C:\Program Files (x86)\Microsoft Visual Studio\2019\Community\VC\Tools\MSVC\14.29.30133\atlmfc\include\atltypes.h
; File D:\git\src\IBK\IBK_DRFN\ProjSrc\SrcChartEx\ChartAddIn\ChartAnalysisToolAddIn\AnalysisTool\AnalysisData.cpp
;	COMDAT ?GetFullGraphRegion@CDrawingRegions@@QBE?AVCRect@@ABVCPoint@@@Z
_TEXT	SEGMENT
_point$GSCopy$1$ = -120					; size = 4
$T1 = -116						; size = 96
_region$2 = -20						; size = 16
__$ArrayPad$ = -4					; size = 4
___$ReturnUdt$ = 8					; size = 4
_point$ = 12						; size = 4
?GetFullGraphRegion@CDrawingRegions@@QBE?AVCRect@@ABVCPoint@@@Z PROC ; CDrawingRegions::GetFullGraphRegion, COMDAT
; _this$ = ecx

; 463  : {

  00000	55		 push	 ebp
  00001	8b ec		 mov	 ebp, esp
  00003	83 ec 78	 sub	 esp, 120		; 00000078H
  00006	a1 00 00 00 00	 mov	 eax, DWORD PTR ___security_cookie
  0000b	33 c5		 xor	 eax, ebp
  0000d	89 45 fc	 mov	 DWORD PTR __$ArrayPad$[ebp], eax
  00010	8b 45 0c	 mov	 eax, DWORD PTR _point$[ebp]
  00013	53		 push	 ebx
  00014	56		 push	 esi
  00015	57		 push	 edi
  00016	8b 7d 08	 mov	 edi, DWORD PTR ___$ReturnUdt$[ebp]
  00019	8b d9		 mov	 ebx, ecx
  0001b	89 45 88	 mov	 DWORD PTR _point$GSCopy$1$[ebp], eax

; 464  : 	for(int nIndex = 0; nIndex < GetCount(); nIndex++)

  0001e	33 f6		 xor	 esi, esi

; 454  : 	return m_blockRegionList.GetCount();

  00020	e8 00 00 00 00	 call	 ?GetCount@CBlockRegionList@@QBEHXZ ; CBlockRegionList::GetCount

; 464  : 	for(int nIndex = 0; nIndex < GetCount(); nIndex++)

  00025	85 c0		 test	 eax, eax
  00027	7e 41		 jle	 SHORT $LN3@GetFullGra
  00029	0f 1f 80 00 00
	00 00		 npad	 7
$LL4@GetFullGra:

; 434  : 	return m_blockRegionList.GetAt(nIndex);

  00030	56		 push	 esi
  00031	8d 45 8c	 lea	 eax, DWORD PTR $T1[ebp]
  00034	8b cb		 mov	 ecx, ebx
  00036	50		 push	 eax
  00037	e8 00 00 00 00	 call	 ?GetAt@CBlockRegionList@@QBE?AVCBlockRegion@@H@Z ; CBlockRegionList::GetAt

; 465  : 	{
; 466  : 		CRect region = GetBlockRegion(nIndex).GetFullGraphRegion();

  0003c	8d 45 ec	 lea	 eax, DWORD PTR _region$2[ebp]
  0003f	50		 push	 eax
  00040	8d 4d 8c	 lea	 ecx, DWORD PTR $T1[ebp]
  00043	e8 00 00 00 00	 call	 ?GetFullGraphRegion@CBlockRegion@@QBE?AVCRect@@XZ ; CBlockRegion::GetFullGraphRegion
; File C:\Program Files (x86)\Microsoft Visual Studio\2019\Community\VC\Tools\MSVC\14.29.30133\atlmfc\include\atltypes.h

; 648  : 	return ::PtInRect(this, point);

  00048	8b 45 88	 mov	 eax, DWORD PTR _point$GSCopy$1$[ebp]
  0004b	ff 70 04	 push	 DWORD PTR [eax+4]
  0004e	ff 30		 push	 DWORD PTR [eax]
  00050	8d 45 ec	 lea	 eax, DWORD PTR _region$2[ebp]
  00053	50		 push	 eax
  00054	ff 15 00 00 00
	00		 call	 DWORD PTR __imp__PtInRect@12
; File D:\git\src\IBK\IBK_DRFN\ProjSrc\SrcChartEx\ChartAddIn\ChartAnalysisToolAddIn\AnalysisTool\AnalysisData.cpp

; 467  : 		if(region.PtInRect(point))

  0005a	85 c0		 test	 eax, eax
  0005c	75 3c		 jne	 SHORT $LN16@GetFullGra

; 454  : 	return m_blockRegionList.GetCount();

  0005e	8b cb		 mov	 ecx, ebx

; 464  : 	for(int nIndex = 0; nIndex < GetCount(); nIndex++)

  00060	46		 inc	 esi

; 454  : 	return m_blockRegionList.GetCount();

  00061	e8 00 00 00 00	 call	 ?GetCount@CBlockRegionList@@QBEHXZ ; CBlockRegionList::GetCount

; 464  : 	for(int nIndex = 0; nIndex < GetCount(); nIndex++)

  00066	3b f0		 cmp	 esi, eax
  00068	7c c6		 jl	 SHORT $LL4@GetFullGra
$LN3@GetFullGra:
; File C:\Program Files (x86)\Microsoft Visual Studio\2019\Community\VC\Tools\MSVC\14.29.30133\atlmfc\include\atltypes.h

; 540  : 	left = l;

  0006a	c7 07 00 00 00
	00		 mov	 DWORD PTR [edi], 0

; 541  : 	top = t;

  00070	c7 47 04 00 00
	00 00		 mov	 DWORD PTR [edi+4], 0

; 542  : 	right = r;

  00077	c7 47 08 00 00
	00 00		 mov	 DWORD PTR [edi+8], 0

; 543  : 	bottom = b;

  0007e	c7 47 0c 00 00
	00 00		 mov	 DWORD PTR [edi+12], 0
$LN20@GetFullGra:
; File D:\git\src\IBK\IBK_DRFN\ProjSrc\SrcChartEx\ChartAddIn\ChartAnalysisToolAddIn\AnalysisTool\AnalysisData.cpp

; 471  : }

  00085	8b 4d fc	 mov	 ecx, DWORD PTR __$ArrayPad$[ebp]
  00088	8b c7		 mov	 eax, edi
  0008a	5f		 pop	 edi
  0008b	5e		 pop	 esi
  0008c	33 cd		 xor	 ecx, ebp
  0008e	5b		 pop	 ebx
  0008f	e8 00 00 00 00	 call	 @__security_check_cookie@4
  00094	8b e5		 mov	 esp, ebp
  00096	5d		 pop	 ebp
  00097	c2 08 00	 ret	 8
$LN16@GetFullGra:

; 468  : 			return region;

  0009a	0f 10 45 ec	 movups	 xmm0, XMMWORD PTR _region$2[ebp]
  0009e	0f 11 07	 movups	 XMMWORD PTR [edi], xmm0
  000a1	eb e2		 jmp	 SHORT $LN20@GetFullGra
?GetFullGraphRegion@CDrawingRegions@@QBE?AVCRect@@ABVCPoint@@@Z ENDP ; CDrawingRegions::GetFullGraphRegion
_TEXT	ENDS
; Function compile flags: /Ogtp
; File D:\git\src\IBK\IBK_DRFN\ProjSrc\SrcChartEx\ChartAddIn\ChartAnalysisToolAddIn\AnalysisTool\AnalysisData.cpp
;	COMDAT ?GetFullGraphRegion@CDrawingRegions@@QBE?AVCRect@@H@Z
_TEXT	SEGMENT
$T1 = -100						; size = 96
__$ArrayPad$ = -4					; size = 4
___$ReturnUdt$ = 8					; size = 4
_nIndex$ = 12						; size = 4
?GetFullGraphRegion@CDrawingRegions@@QBE?AVCRect@@H@Z PROC ; CDrawingRegions::GetFullGraphRegion, COMDAT
; _this$ = ecx

; 458  : {

  00000	55		 push	 ebp
  00001	8b ec		 mov	 ebp, esp
  00003	83 ec 64	 sub	 esp, 100		; 00000064H
  00006	a1 00 00 00 00	 mov	 eax, DWORD PTR ___security_cookie
  0000b	33 c5		 xor	 eax, ebp
  0000d	89 45 fc	 mov	 DWORD PTR __$ArrayPad$[ebp], eax
  00010	8b 55 0c	 mov	 edx, DWORD PTR _nIndex$[ebp]

; 434  : 	return m_blockRegionList.GetAt(nIndex);

  00013	8d 45 9c	 lea	 eax, DWORD PTR $T1[ebp]

; 458  : {

  00016	56		 push	 esi
  00017	8b 75 08	 mov	 esi, DWORD PTR ___$ReturnUdt$[ebp]

; 434  : 	return m_blockRegionList.GetAt(nIndex);

  0001a	52		 push	 edx
  0001b	50		 push	 eax
  0001c	e8 00 00 00 00	 call	 ?GetAt@CBlockRegionList@@QBE?AVCBlockRegion@@H@Z ; CBlockRegionList::GetAt

; 459  : 	return GetBlockRegion(nIndex).GetFullGraphRegion();

  00021	56		 push	 esi
  00022	8d 4d 9c	 lea	 ecx, DWORD PTR $T1[ebp]
  00025	e8 00 00 00 00	 call	 ?GetFullGraphRegion@CBlockRegion@@QBE?AVCRect@@XZ ; CBlockRegion::GetFullGraphRegion

; 460  : }

  0002a	8b 4d fc	 mov	 ecx, DWORD PTR __$ArrayPad$[ebp]
  0002d	8b c6		 mov	 eax, esi
  0002f	33 cd		 xor	 ecx, ebp
  00031	5e		 pop	 esi
  00032	e8 00 00 00 00	 call	 @__security_check_cookie@4
  00037	8b e5		 mov	 esp, ebp
  00039	5d		 pop	 ebp
  0003a	c2 08 00	 ret	 8
?GetFullGraphRegion@CDrawingRegions@@QBE?AVCRect@@H@Z ENDP ; CDrawingRegions::GetFullGraphRegion
_TEXT	ENDS
; Function compile flags: /Ogtp
; File D:\git\src\IBK\IBK_DRFN\ProjSrc\SrcChartEx\ChartAddIn\ChartAnalysisToolAddIn\AnalysisTool\AnalysisData.cpp
;	COMDAT ?GetCount@CDrawingRegions@@QBEHXZ
_TEXT	SEGMENT
?GetCount@CDrawingRegions@@QBEHXZ PROC			; CDrawingRegions::GetCount, COMDAT
; _this$ = ecx

; 454  : 	return m_blockRegionList.GetCount();

  00000	e9 00 00 00 00	 jmp	 ?GetCount@CBlockRegionList@@QBEHXZ ; CBlockRegionList::GetCount
?GetCount@CDrawingRegions@@QBEHXZ ENDP			; CDrawingRegions::GetCount
_TEXT	ENDS
; Function compile flags: /Ogtp
; File D:\git\src\IBK\IBK_DRFN\ProjSrc\SrcChartEx\ChartAddIn\ChartAnalysisToolAddIn\AnalysisTool\AnalysisData.cpp
;	COMDAT ?GetRowNumber@CDrawingRegions@@QBEHABVCPoint@@@Z
_TEXT	SEGMENT
_point$ = 8						; size = 4
?GetRowNumber@CDrawingRegions@@QBEHABVCPoint@@@Z PROC	; CDrawingRegions::GetRowNumber, COMDAT
; _this$ = ecx

; 448  : {

  00000	55		 push	 ebp
  00001	8b ec		 mov	 ebp, esp

; 450  : }

  00003	5d		 pop	 ebp

; 449  : 	return m_blockRegionList.GetNumber(point);

  00004	e9 00 00 00 00	 jmp	 ?GetNumber@CBlockRegionList@@QBEHABVCPoint@@@Z ; CBlockRegionList::GetNumber
?GetRowNumber@CDrawingRegions@@QBEHABVCPoint@@@Z ENDP	; CDrawingRegions::GetRowNumber
_TEXT	ENDS
; Function compile flags: /Ogtp
; File D:\git\src\IBK\IBK_DRFN\ProjSrc\SrcChartEx\ChartAddIn\ChartAnalysisToolAddIn\AnalysisTool\AnalysisData.cpp
;	COMDAT ?GetCurrentGraphPartRegion@CDrawingRegions@@QBE?AVCGraphPartRegion@@XZ
_TEXT	SEGMENT
$T1 = -100						; size = 96
__$ArrayPad$ = -4					; size = 4
___$ReturnUdt$ = 8					; size = 4
?GetCurrentGraphPartRegion@CDrawingRegions@@QBE?AVCGraphPartRegion@@XZ PROC ; CDrawingRegions::GetCurrentGraphPartRegion, COMDAT
; _this$ = ecx

; 443  : {

  00000	55		 push	 ebp
  00001	8b ec		 mov	 ebp, esp
  00003	83 ec 64	 sub	 esp, 100		; 00000064H
  00006	a1 00 00 00 00	 mov	 eax, DWORD PTR ___security_cookie
  0000b	33 c5		 xor	 eax, ebp
  0000d	89 45 fc	 mov	 DWORD PTR __$ArrayPad$[ebp], eax
  00010	56		 push	 esi
  00011	8b 75 08	 mov	 esi, DWORD PTR ___$ReturnUdt$[ebp]

; 444  : 	return m_blockRegionList.GetCurrentAt().GetGraphPartRegion();

  00014	8d 45 9c	 lea	 eax, DWORD PTR $T1[ebp]
  00017	56		 push	 esi
  00018	50		 push	 eax
  00019	e8 00 00 00 00	 call	 ?GetCurrentAt@CBlockRegionList@@QBE?AVCBlockRegion@@XZ ; CBlockRegionList::GetCurrentAt
  0001e	8b c8		 mov	 ecx, eax
  00020	e8 00 00 00 00	 call	 ?GetGraphPartRegion@CBlockRegion@@QBE?AVCGraphPartRegion@@XZ ; CBlockRegion::GetGraphPartRegion

; 445  : }

  00025	8b 4d fc	 mov	 ecx, DWORD PTR __$ArrayPad$[ebp]
  00028	8b c6		 mov	 eax, esi
  0002a	33 cd		 xor	 ecx, ebp
  0002c	5e		 pop	 esi
  0002d	e8 00 00 00 00	 call	 @__security_check_cookie@4
  00032	8b e5		 mov	 esp, ebp
  00034	5d		 pop	 ebp
  00035	c2 04 00	 ret	 4
?GetCurrentGraphPartRegion@CDrawingRegions@@QBE?AVCGraphPartRegion@@XZ ENDP ; CDrawingRegions::GetCurrentGraphPartRegion
_TEXT	ENDS
; Function compile flags: /Ogtp
; File D:\git\src\IBK\IBK_DRFN\ProjSrc\SrcChartEx\ChartAddIn\ChartAnalysisToolAddIn\AnalysisTool\AnalysisData.cpp
;	COMDAT ?GetGraphPartRegion@CDrawingRegions@@QBE?AVCGraphPartRegion@@H@Z
_TEXT	SEGMENT
$T1 = -100						; size = 96
__$ArrayPad$ = -4					; size = 4
___$ReturnUdt$ = 8					; size = 4
_nIndex$ = 12						; size = 4
?GetGraphPartRegion@CDrawingRegions@@QBE?AVCGraphPartRegion@@H@Z PROC ; CDrawingRegions::GetGraphPartRegion, COMDAT
; _this$ = ecx

; 438  : {

  00000	55		 push	 ebp
  00001	8b ec		 mov	 ebp, esp
  00003	83 ec 64	 sub	 esp, 100		; 00000064H
  00006	a1 00 00 00 00	 mov	 eax, DWORD PTR ___security_cookie
  0000b	33 c5		 xor	 eax, ebp
  0000d	89 45 fc	 mov	 DWORD PTR __$ArrayPad$[ebp], eax
  00010	8b 55 0c	 mov	 edx, DWORD PTR _nIndex$[ebp]

; 439  : 	return m_blockRegionList.GetAt(nIndex).GetGraphPartRegion();

  00013	8d 45 9c	 lea	 eax, DWORD PTR $T1[ebp]
  00016	56		 push	 esi
  00017	8b 75 08	 mov	 esi, DWORD PTR ___$ReturnUdt$[ebp]
  0001a	56		 push	 esi
  0001b	52		 push	 edx
  0001c	50		 push	 eax
  0001d	e8 00 00 00 00	 call	 ?GetAt@CBlockRegionList@@QBE?AVCBlockRegion@@H@Z ; CBlockRegionList::GetAt
  00022	8b c8		 mov	 ecx, eax
  00024	e8 00 00 00 00	 call	 ?GetGraphPartRegion@CBlockRegion@@QBE?AVCGraphPartRegion@@XZ ; CBlockRegion::GetGraphPartRegion

; 440  : }

  00029	8b 4d fc	 mov	 ecx, DWORD PTR __$ArrayPad$[ebp]
  0002c	8b c6		 mov	 eax, esi
  0002e	33 cd		 xor	 ecx, ebp
  00030	5e		 pop	 esi
  00031	e8 00 00 00 00	 call	 @__security_check_cookie@4
  00036	8b e5		 mov	 esp, ebp
  00038	5d		 pop	 ebp
  00039	c2 08 00	 ret	 8
?GetGraphPartRegion@CDrawingRegions@@QBE?AVCGraphPartRegion@@H@Z ENDP ; CDrawingRegions::GetGraphPartRegion
_TEXT	ENDS
; Function compile flags: /Ogtp
; File D:\git\src\IBK\IBK_DRFN\ProjSrc\SrcChartEx\ChartAddIn\ChartAnalysisToolAddIn\AnalysisTool\AnalysisData.cpp
;	COMDAT ?GetBlockRegion@CDrawingRegions@@QBE?AVCBlockRegion@@H@Z
_TEXT	SEGMENT
___$ReturnUdt$ = 8					; size = 4
_nIndex$ = 12						; size = 4
?GetBlockRegion@CDrawingRegions@@QBE?AVCBlockRegion@@H@Z PROC ; CDrawingRegions::GetBlockRegion, COMDAT
; _this$ = ecx

; 433  : {

  00000	55		 push	 ebp
  00001	8b ec		 mov	 ebp, esp

; 434  : 	return m_blockRegionList.GetAt(nIndex);

  00003	ff 75 0c	 push	 DWORD PTR _nIndex$[ebp]
  00006	ff 75 08	 push	 DWORD PTR ___$ReturnUdt$[ebp]
  00009	e8 00 00 00 00	 call	 ?GetAt@CBlockRegionList@@QBE?AVCBlockRegion@@H@Z ; CBlockRegionList::GetAt
  0000e	8b 45 08	 mov	 eax, DWORD PTR ___$ReturnUdt$[ebp]

; 435  : }

  00011	5d		 pop	 ebp
  00012	c2 08 00	 ret	 8
?GetBlockRegion@CDrawingRegions@@QBE?AVCBlockRegion@@H@Z ENDP ; CDrawingRegions::GetBlockRegion
_TEXT	ENDS
; Function compile flags: /Ogtp
; File D:\git\src\IBK\IBK_DRFN\ProjSrc\SrcChartEx\ChartAddIn\ChartAnalysisToolAddIn\AnalysisTool\AnalysisData.cpp
;	COMDAT ?GetBlockRegionList@CDrawingRegions@@QAEAAVCBlockRegionList@@XZ
_TEXT	SEGMENT
?GetBlockRegionList@CDrawingRegions@@QAEAAVCBlockRegionList@@XZ PROC ; CDrawingRegions::GetBlockRegionList, COMDAT
; _this$ = ecx

; 429  : 	return m_blockRegionList;

  00000	8b c1		 mov	 eax, ecx

; 430  : }

  00002	c3		 ret	 0
?GetBlockRegionList@CDrawingRegions@@QAEAAVCBlockRegionList@@XZ ENDP ; CDrawingRegions::GetBlockRegionList
_TEXT	ENDS
; Function compile flags: /Ogtp
; File D:\git\src\IBK\IBK_DRFN\ProjSrc\SrcChartEx\ChartAddIn\ChartAnalysisToolAddIn\AnalysisTool\AnalysisData.cpp
;	COMDAT ?GetBlockRegionList@CDrawingRegions@@QBE?AVCBlockRegionList@@XZ
_TEXT	SEGMENT
___$ReturnUdt$ = 8					; size = 4
?GetBlockRegionList@CDrawingRegions@@QBE?AVCBlockRegionList@@XZ PROC ; CDrawingRegions::GetBlockRegionList, COMDAT
; _this$ = ecx

; 423  : {

  00000	55		 push	 ebp
  00001	8b ec		 mov	 ebp, esp

; 424  : 	return m_blockRegionList;

  00003	51		 push	 ecx
  00004	8b 4d 08	 mov	 ecx, DWORD PTR ___$ReturnUdt$[ebp]
  00007	e8 00 00 00 00	 call	 ??0CBlockRegionList@@QAE@ABV0@@Z ; CBlockRegionList::CBlockRegionList
  0000c	8b 45 08	 mov	 eax, DWORD PTR ___$ReturnUdt$[ebp]

; 425  : }

  0000f	5d		 pop	 ebp
  00010	c2 04 00	 ret	 4
?GetBlockRegionList@CDrawingRegions@@QBE?AVCBlockRegionList@@XZ ENDP ; CDrawingRegions::GetBlockRegionList
_TEXT	ENDS
; Function compile flags: /Ogtp
; File D:\git\src\IBK\IBK_DRFN\ProjSrc\SrcChartEx\ChartAddIn\ChartAnalysisToolAddIn\AnalysisTool\AnalysisData.cpp
;	COMDAT ?SetDrawingRegions@CDrawingRegions@@QAEXPAUIChartManager133101@@H@Z
_TEXT	SEGMENT
_pMainBlock$ = 8					; size = 4
_columnIndex$ = 12					; size = 4
?SetDrawingRegions@CDrawingRegions@@QAEXPAUIChartManager133101@@H@Z PROC ; CDrawingRegions::SetDrawingRegions, COMDAT
; _this$ = ecx

; 416  : {

  00000	55		 push	 ebp
  00001	8b ec		 mov	 ebp, esp
  00003	56		 push	 esi
  00004	57		 push	 edi
  00005	8b f1		 mov	 esi, ecx

; 399  : 	m_blockRegionList.RemoveAll();

  00007	e8 00 00 00 00	 call	 ?RemoveAll@CBlockRegionList@@QAEXXZ ; CBlockRegionList::RemoveAll

; 400  : 	m_blockRegionList.SetCurrentNumber(-1);

  0000c	6a ff		 push	 -1
  0000e	8b ce		 mov	 ecx, esi
  00010	e8 00 00 00 00	 call	 ?SetCurrentNumber@CBlockRegionList@@QAEXH@Z ; CBlockRegionList::SetCurrentNumber

; 555  : 	if(columnIndex < 0 || columnIndex >= pMainBlock->GetColumnCount())

  00015	8b 7d 0c	 mov	 edi, DWORD PTR _columnIndex$[ebp]
  00018	85 ff		 test	 edi, edi
  0001a	78 19		 js	 SHORT $LN7@SetDrawing
  0001c	53		 push	 ebx
  0001d	8b 5d 08	 mov	 ebx, DWORD PTR _pMainBlock$[ebp]
  00020	8b cb		 mov	 ecx, ebx
  00022	8b 03		 mov	 eax, DWORD PTR [ebx]
  00024	ff 50 20	 call	 DWORD PTR [eax+32]
  00027	3b f8		 cmp	 edi, eax
  00029	7d 09		 jge	 SHORT $LN12@SetDrawing

; 566  : 	m_blockRegionList.GetBlockRegionList( columnIndex, pMainBlock);

  0002b	53		 push	 ebx
  0002c	57		 push	 edi
  0002d	8b ce		 mov	 ecx, esi
  0002f	e8 00 00 00 00	 call	 ?GetBlockRegionList@CBlockRegionList@@QAEHHPAUIChartManager133101@@@Z ; CBlockRegionList::GetBlockRegionList
$LN12@SetDrawing:
  00034	5b		 pop	 ebx
$LN7@SetDrawing:
  00035	5f		 pop	 edi

; 417  : 	Initialize();
; 418  : 	SetDrawingRegions_Column(pMainBlock, columnIndex);
; 419  : }

  00036	5e		 pop	 esi
  00037	5d		 pop	 ebp
  00038	c2 08 00	 ret	 8
?SetDrawingRegions@CDrawingRegions@@QAEXPAUIChartManager133101@@H@Z ENDP ; CDrawingRegions::SetDrawingRegions
_TEXT	ENDS
; Function compile flags: /Ogtp
; File D:\git\src\IBK\IBK_DRFN\ProjSrc\SrcChartEx\ChartAddIn\ChartAnalysisToolAddIn\AnalysisTool\AnalysisData.cpp
; File C:\Program Files (x86)\Microsoft Visual Studio\2019\Community\VC\Tools\MSVC\14.29.30133\atlmfc\include\atltypes.h
; File D:\git\src\IBK\IBK_DRFN\ProjSrc\SrcChartEx\ChartAddIn\ChartAnalysisToolAddIn\AnalysisTool\AnalysisData.cpp
; File C:\Program Files (x86)\Microsoft Visual Studio\2019\Community\VC\Tools\MSVC\14.29.30133\atlmfc\include\atltypes.h
; File D:\git\src\IBK\IBK_DRFN\ProjSrc\SrcChartEx\ChartAddIn\ChartAnalysisToolAddIn\AnalysisTool\AnalysisData.cpp
; File C:\Program Files (x86)\Microsoft Visual Studio\2019\Community\VC\Tools\MSVC\14.29.30133\atlmfc\include\atltypes.h
; File D:\git\src\IBK\IBK_DRFN\ProjSrc\SrcChartEx\ChartAddIn\ChartAnalysisToolAddIn\AnalysisTool\AnalysisData.cpp
;	COMDAT ?SetDrawingRegions@CDrawingRegions@@QAEXPAUIChartManager133101@@ABVCPoint@@@Z
_TEXT	SEGMENT
_totalGraphRegion$1 = -20				; size = 16
_region$2 = -20						; size = 16
__$ArrayPad$ = -4					; size = 4
_pMainBlock$ = 8					; size = 4
_point$ = 12						; size = 4
?SetDrawingRegions@CDrawingRegions@@QAEXPAUIChartManager133101@@ABVCPoint@@@Z PROC ; CDrawingRegions::SetDrawingRegions, COMDAT
; _this$ = ecx

; 406  : {

  00000	55		 push	 ebp
  00001	8b ec		 mov	 ebp, esp
  00003	83 ec 14	 sub	 esp, 20			; 00000014H
  00006	a1 00 00 00 00	 mov	 eax, DWORD PTR ___security_cookie
  0000b	33 c5		 xor	 eax, ebp
  0000d	89 45 fc	 mov	 DWORD PTR __$ArrayPad$[ebp], eax
  00010	53		 push	 ebx
  00011	8b 5d 08	 mov	 ebx, DWORD PTR _pMainBlock$[ebp]
  00014	56		 push	 esi
  00015	57		 push	 edi
  00016	8b 7d 0c	 mov	 edi, DWORD PTR _point$[ebp]
  00019	8b f1		 mov	 esi, ecx

; 454  : 	return m_blockRegionList.GetCount();

  0001b	e8 00 00 00 00	 call	 ?GetCount@CBlockRegionList@@QBEHXZ ; CBlockRegionList::GetCount

; 519  : 	if(GetCount() <= 0)

  00020	85 c0		 test	 eax, eax
  00022	7e 26		 jle	 SHORT $LN24@SetDrawing

; 520  : 		return true;
; 521  : 
; 522  : 	m_blockRegionList.SetCurrentNumber(point);

  00024	57		 push	 edi
  00025	8b ce		 mov	 ecx, esi
  00027	e8 00 00 00 00	 call	 ?SetCurrentNumber@CBlockRegionList@@QAEXABVCPoint@@@Z ; CBlockRegionList::SetCurrentNumber

; 523  : 	CRect region = m_blockRegionList.GetFullGraphRegionSumInList();

  0002c	8d 45 ec	 lea	 eax, DWORD PTR _region$2[ebp]
  0002f	8b ce		 mov	 ecx, esi
  00031	50		 push	 eax
  00032	e8 00 00 00 00	 call	 ?GetFullGraphRegionSumInList@CBlockRegionList@@QBE?AVCRect@@XZ ; CBlockRegionList::GetFullGraphRegionSumInList
; File C:\Program Files (x86)\Microsoft Visual Studio\2019\Community\VC\Tools\MSVC\14.29.30133\atlmfc\include\atltypes.h

; 648  : 	return ::PtInRect(this, point);

  00037	ff 77 04	 push	 DWORD PTR [edi+4]
  0003a	8d 45 ec	 lea	 eax, DWORD PTR _region$2[ebp]
  0003d	ff 37		 push	 DWORD PTR [edi]
  0003f	50		 push	 eax
  00040	ff 15 00 00 00
	00		 call	 DWORD PTR __imp__PtInRect@12
; File D:\git\src\IBK\IBK_DRFN\ProjSrc\SrcChartEx\ChartAddIn\ChartAnalysisToolAddIn\AnalysisTool\AnalysisData.cpp

; 408  : 	if(!DoseGetDrawingRegionAgain(point))

  00046	85 c0		 test	 eax, eax
  00048	75 51		 jne	 SHORT $LN21@SetDrawing
$LN24@SetDrawing:

; 399  : 	m_blockRegionList.RemoveAll();

  0004a	8b ce		 mov	 ecx, esi
  0004c	e8 00 00 00 00	 call	 ?RemoveAll@CBlockRegionList@@QAEXXZ ; CBlockRegionList::RemoveAll

; 400  : 	m_blockRegionList.SetCurrentNumber(-1);

  00051	6a ff		 push	 -1
  00053	8b ce		 mov	 ecx, esi
  00055	e8 00 00 00 00	 call	 ?SetCurrentNumber@CBlockRegionList@@QAEXH@Z ; CBlockRegionList::SetCurrentNumber

; 531  : 	if(pMainBlock == NULL)

  0005a	85 db		 test	 ebx, ebx
  0005c	74 3d		 je	 SHORT $LN21@SetDrawing

; 532  : 		return;
; 533  : 
; 534  : 	// tool    point column    
; 535  : 	// column     .
; 536  : 	CRect totalGraphRegion = m_blockRegionList.GetFullGraphRegionSumInList();

  0005e	8d 45 ec	 lea	 eax, DWORD PTR _totalGraphRegion$1[ebp]
  00061	8b ce		 mov	 ecx, esi
  00063	50		 push	 eax
  00064	e8 00 00 00 00	 call	 ?GetFullGraphRegionSumInList@CBlockRegionList@@QBE?AVCRect@@XZ ; CBlockRegionList::GetFullGraphRegionSumInList
; File C:\Program Files (x86)\Microsoft Visual Studio\2019\Community\VC\Tools\MSVC\14.29.30133\atlmfc\include\atltypes.h

; 638  : 	return ::IsRectEmpty(this);

  00069	8d 45 ec	 lea	 eax, DWORD PTR _totalGraphRegion$1[ebp]
  0006c	50		 push	 eax
  0006d	ff 15 00 00 00
	00		 call	 DWORD PTR __imp__IsRectEmpty@4
; File D:\git\src\IBK\IBK_DRFN\ProjSrc\SrcChartEx\ChartAddIn\ChartAnalysisToolAddIn\AnalysisTool\AnalysisData.cpp

; 537  : 	if(totalGraphRegion.IsRectEmpty() && totalGraphRegion.PtInRect(point))

  00073	85 c0		 test	 eax, eax
  00075	74 13		 je	 SHORT $LN15@SetDrawing
; File C:\Program Files (x86)\Microsoft Visual Studio\2019\Community\VC\Tools\MSVC\14.29.30133\atlmfc\include\atltypes.h

; 648  : 	return ::PtInRect(this, point);

  00077	ff 77 04	 push	 DWORD PTR [edi+4]
  0007a	8d 45 ec	 lea	 eax, DWORD PTR _totalGraphRegion$1[ebp]
  0007d	ff 37		 push	 DWORD PTR [edi]
  0007f	50		 push	 eax
  00080	ff 15 00 00 00
	00		 call	 DWORD PTR __imp__PtInRect@12
; File D:\git\src\IBK\IBK_DRFN\ProjSrc\SrcChartEx\ChartAddIn\ChartAnalysisToolAddIn\AnalysisTool\AnalysisData.cpp

; 537  : 	if(totalGraphRegion.IsRectEmpty() && totalGraphRegion.PtInRect(point))

  00086	85 c0		 test	 eax, eax
  00088	75 11		 jne	 SHORT $LN21@SetDrawing
$LN15@SetDrawing:

; 548  : 	m_blockRegionList.GetBlockRegionList(point, pMainBlock);

  0008a	53		 push	 ebx
  0008b	57		 push	 edi
  0008c	8b ce		 mov	 ecx, esi
  0008e	e8 00 00 00 00	 call	 ?GetBlockRegionList@CBlockRegionList@@QAEHABVCPoint@@PAUIChartManager133101@@@Z ; CBlockRegionList::GetBlockRegionList

; 549  : 	m_blockRegionList.SetCurrentNumber(point);

  00093	57		 push	 edi
  00094	8b ce		 mov	 ecx, esi
  00096	e8 00 00 00 00	 call	 ?SetCurrentNumber@CBlockRegionList@@QAEXABVCPoint@@@Z ; CBlockRegionList::SetCurrentNumber
$LN21@SetDrawing:

; 409  : 		return;
; 410  : 
; 411  : 	Initialize();
; 412  : 	SetDrawingRegions_Column(pMainBlock, point);
; 413  : }

  0009b	8b 4d fc	 mov	 ecx, DWORD PTR __$ArrayPad$[ebp]
  0009e	5f		 pop	 edi
  0009f	5e		 pop	 esi
  000a0	33 cd		 xor	 ecx, ebp
  000a2	5b		 pop	 ebx
  000a3	e8 00 00 00 00	 call	 @__security_check_cookie@4
  000a8	8b e5		 mov	 esp, ebp
  000aa	5d		 pop	 ebp
  000ab	c2 08 00	 ret	 8
?SetDrawingRegions@CDrawingRegions@@QAEXPAUIChartManager133101@@ABVCPoint@@@Z ENDP ; CDrawingRegions::SetDrawingRegions
_TEXT	ENDS
; Function compile flags: /Ogtp
; File D:\git\src\IBK\IBK_DRFN\ProjSrc\SrcChartEx\ChartAddIn\ChartAnalysisToolAddIn\AnalysisTool\AnalysisData.cpp
;	COMDAT ?Initialize@CDrawingRegions@@QAEXXZ
_TEXT	SEGMENT
?Initialize@CDrawingRegions@@QAEXXZ PROC		; CDrawingRegions::Initialize, COMDAT
; _this$ = ecx

; 398  : {

  00000	56		 push	 esi
  00001	8b f1		 mov	 esi, ecx

; 399  : 	m_blockRegionList.RemoveAll();

  00003	e8 00 00 00 00	 call	 ?RemoveAll@CBlockRegionList@@QAEXXZ ; CBlockRegionList::RemoveAll

; 400  : 	m_blockRegionList.SetCurrentNumber(-1);

  00008	6a ff		 push	 -1
  0000a	8b ce		 mov	 ecx, esi
  0000c	e8 00 00 00 00	 call	 ?SetCurrentNumber@CBlockRegionList@@QAEXH@Z ; CBlockRegionList::SetCurrentNumber
  00011	5e		 pop	 esi

; 401  : }

  00012	c3		 ret	 0
?Initialize@CDrawingRegions@@QAEXXZ ENDP		; CDrawingRegions::Initialize
_TEXT	ENDS
; Function compile flags: /Ogtp
; File D:\git\src\IBK\IBK_DRFN\ProjSrc\SrcChartEx\ChartAddIn\ChartAnalysisToolAddIn\AnalysisTool\AnalysisData.cpp
;	COMDAT ??0CDrawingRegions@@QAE@XZ
_TEXT	SEGMENT
_this$ = -4						; size = 4
??0CDrawingRegions@@QAE@XZ PROC				; CDrawingRegions::CDrawingRegions, COMDAT
; _this$ = ecx

; 393  : {

  00000	55		 push	 ebp
  00001	8b ec		 mov	 ebp, esp
  00003	51		 push	 ecx
  00004	56		 push	 esi
  00005	8b f1		 mov	 esi, ecx
  00007	89 75 fc	 mov	 DWORD PTR _this$[ebp], esi
  0000a	e8 00 00 00 00	 call	 ??0CBlockRegionList@@QAE@XZ ; CBlockRegionList::CBlockRegionList

; 394  : }

  0000f	8b c6		 mov	 eax, esi
  00011	5e		 pop	 esi
  00012	8b e5		 mov	 esp, ebp
  00014	5d		 pop	 ebp
  00015	c3		 ret	 0
??0CDrawingRegions@@QAE@XZ ENDP				; CDrawingRegions::CDrawingRegions
_TEXT	ENDS
; Function compile flags: /Ogtp
; File D:\git\src\IBK\IBK_DRFN\ProjSrc\SrcChartEx\ChartAddIn\ChartAnalysisToolAddIn\AnalysisTool\AnalysisData.cpp
; File C:\Program Files (x86)\Microsoft Visual Studio\2019\Community\VC\Tools\MSVC\14.29.30133\include\deque
; File C:\Program Files (x86)\Microsoft Visual Studio\2019\Community\VC\Tools\MSVC\14.29.30133\include\utility
; File C:\Program Files (x86)\Microsoft Visual Studio\2019\Community\VC\Tools\MSVC\14.29.30133\include\xmemory
; File C:\Program Files (x86)\Microsoft Visual Studio\2019\Community\VC\Tools\MSVC\14.29.30133\include\utility
; File C:\Program Files (x86)\Microsoft Visual Studio\2019\Community\VC\Tools\MSVC\14.29.30133\include\xmemory
; File D:\git\src\IBK\IBK_DRFN\ProjSrc\SrcChartEx\ChartAddIn\ChartAnalysisToolAddIn\AnalysisTool\AnalysisData.cpp
;	COMDAT ??4CDrawingRegions@@QAEAAV0@ABV0@@Z
_TEXT	SEGMENT
$T2 = -36						; size = 24
__$EHRec$ = -12						; size = 12
_drawingRegions$ = 8					; size = 4
??4CDrawingRegions@@QAEAAV0@ABV0@@Z PROC		; CDrawingRegions::operator=, COMDAT
; _this$ = ecx

; 384  : {

  00000	55		 push	 ebp
  00001	8b ec		 mov	 ebp, esp
  00003	6a ff		 push	 -1
  00005	68 00 00 00 00	 push	 __ehhandler$??4CDrawingRegions@@QAEAAV0@ABV0@@Z
  0000a	64 a1 00 00 00
	00		 mov	 eax, DWORD PTR fs:0
  00010	50		 push	 eax
  00011	83 ec 18	 sub	 esp, 24			; 00000018H
  00014	56		 push	 esi
  00015	a1 00 00 00 00	 mov	 eax, DWORD PTR ___security_cookie
  0001a	33 c5		 xor	 eax, ebp
  0001c	50		 push	 eax
  0001d	8d 45 f4	 lea	 eax, DWORD PTR __$EHRec$[ebp]
  00020	64 a3 00 00 00
	00		 mov	 DWORD PTR fs:0, eax
  00026	8b f1		 mov	 esi, ecx

; 385  : 	if(this == &drawingRegions)

  00028	8b 45 08	 mov	 eax, DWORD PTR _drawingRegions$[ebp]
  0002b	3b f0		 cmp	 esi, eax
  0002d	74 40		 je	 SHORT $LN49@operator

; 424  : 	return m_blockRegionList;

  0002f	50		 push	 eax
  00030	8d 4d dc	 lea	 ecx, DWORD PTR $T2[ebp]
  00033	e8 00 00 00 00	 call	 ??0CBlockRegionList@@QAE@ABV0@@Z ; CBlockRegionList::CBlockRegionList

; 386  : 		return *this;
; 387  : 
; 388  : 	m_blockRegionList = drawingRegions.GetBlockRegionList();

  00038	8d 45 dc	 lea	 eax, DWORD PTR $T2[ebp]
  0003b	c7 45 fc 00 00
	00 00		 mov	 DWORD PTR __$EHRec$[ebp+8], 0
  00042	50		 push	 eax
  00043	8b ce		 mov	 ecx, esi
  00045	e8 00 00 00 00	 call	 ??4CBlockRegionList@@QAEAAV0@ABV0@@Z ; CBlockRegionList::operator=
; File C:\Program Files (x86)\Microsoft Visual Studio\2019\Community\VC\Tools\MSVC\14.29.30133\include\deque

; 1332 :         _Tidy();

  0004a	8d 4d e0	 lea	 ecx, DWORD PTR $T2[ebp+4]
  0004d	e8 00 00 00 00	 call	 ?_Tidy@?$deque@VCBlockRegion@@V?$allocator@VCBlockRegion@@@std@@@std@@AAEXXZ ; std::deque<CBlockRegion,std::allocator<CBlockRegion> >::_Tidy

; 861  :         _Tidy();

  00052	8d 4d e0	 lea	 ecx, DWORD PTR $T2[ebp+4]
  00055	e8 00 00 00 00	 call	 ?_Tidy@?$deque@VCBlockRegion@@V?$allocator@VCBlockRegion@@@std@@@std@@AAEXXZ ; std::deque<CBlockRegion,std::allocator<CBlockRegion> >::_Tidy
; File C:\Program Files (x86)\Microsoft Visual Studio\2019\Community\VC\Tools\MSVC\14.29.30133\include\utility

; 602  :     _Ty _Old_val = static_cast<_Ty&&>(_Val);

  0005a	8b 45 e0	 mov	 eax, DWORD PTR $T2[ebp+4]
; File C:\Program Files (x86)\Microsoft Visual Studio\2019\Community\VC\Tools\MSVC\14.29.30133\include\xmemory

; 255  :         ::operator delete(_Ptr, _Bytes);

  0005d	6a 08		 push	 8
  0005f	50		 push	 eax
; File C:\Program Files (x86)\Microsoft Visual Studio\2019\Community\VC\Tools\MSVC\14.29.30133\include\utility

; 603  :     _Val         = static_cast<_Other&&>(_New_val);

  00060	c7 45 e0 00 00
	00 00		 mov	 DWORD PTR $T2[ebp+4], 0
; File C:\Program Files (x86)\Microsoft Visual Studio\2019\Community\VC\Tools\MSVC\14.29.30133\include\xmemory

; 255  :         ::operator delete(_Ptr, _Bytes);

  00067	e8 00 00 00 00	 call	 ??3@YAXPAXI@Z		; operator delete
  0006c	83 c4 08	 add	 esp, 8
$LN49@operator:
; File D:\git\src\IBK\IBK_DRFN\ProjSrc\SrcChartEx\ChartAddIn\ChartAnalysisToolAddIn\AnalysisTool\AnalysisData.cpp

; 390  : }

  0006f	8b c6		 mov	 eax, esi
  00071	8b 4d f4	 mov	 ecx, DWORD PTR __$EHRec$[ebp]
  00074	64 89 0d 00 00
	00 00		 mov	 DWORD PTR fs:0, ecx
  0007b	59		 pop	 ecx
  0007c	5e		 pop	 esi
  0007d	8b e5		 mov	 esp, ebp
  0007f	5d		 pop	 ebp
  00080	c2 04 00	 ret	 4
_TEXT	ENDS
;	COMDAT text$x
text$x	SEGMENT
__unwindfunclet$??4CDrawingRegions@@QAEAAV0@ABV0@@Z$0:
  00000	8d 4d dc	 lea	 ecx, DWORD PTR $T2[ebp]
  00003	e9 00 00 00 00	 jmp	 ??1CBlockRegionList@@QAE@XZ
  00008	cc		 int	 3
  00009	cc		 int	 3
  0000a	cc		 int	 3
  0000b	cc		 int	 3
  0000c	cc		 int	 3
__ehhandler$??4CDrawingRegions@@QAEAAV0@ABV0@@Z:
  0000d	90		 npad	 1
  0000e	90		 npad	 1
  0000f	8b 54 24 08	 mov	 edx, DWORD PTR [esp+8]
  00013	8d 42 0c	 lea	 eax, DWORD PTR [edx+12]
  00016	8b 4a e0	 mov	 ecx, DWORD PTR [edx-32]
  00019	33 c8		 xor	 ecx, eax
  0001b	e8 00 00 00 00	 call	 @__security_check_cookie@4
  00020	b8 00 00 00 00	 mov	 eax, OFFSET __ehfuncinfo$??4CDrawingRegions@@QAEAAV0@ABV0@@Z
  00025	e9 00 00 00 00	 jmp	 ___CxxFrameHandler3
text$x	ENDS
??4CDrawingRegions@@QAEAAV0@ABV0@@Z ENDP		; CDrawingRegions::operator=
; Function compile flags: /Ogtp
; File D:\git\src\IBK\IBK_DRFN\ProjSrc\SrcChartEx\ChartAddIn\ChartAnalysisToolAddIn\AnalysisTool\AnalysisData.cpp
;	COMDAT ?GetDatePacket@CAnalysisData@@QBEPAUIPacket133101@@PBD@Z
_TEXT	SEGMENT
_p_szRQ$ = 8						; size = 4
?GetDatePacket@CAnalysisData@@QBEPAUIPacket133101@@PBD@Z PROC ; CAnalysisData::GetDatePacket, COMDAT
; _this$ = ecx

; 323  : {

  00000	55		 push	 ebp
  00001	8b ec		 mov	 ebp, esp

; 324  : 	if( !m_pIPacketListManager) return NULL;

  00003	8b 49 74	 mov	 ecx, DWORD PTR [ecx+116]
  00006	85 c9		 test	 ecx, ecx
  00008	75 06		 jne	 SHORT $LN2@GetDatePac
  0000a	33 c0		 xor	 eax, eax

; 326  : }

  0000c	5d		 pop	 ebp
  0000d	c2 04 00	 ret	 4
$LN2@GetDatePac:

; 325  : 	return m_pIPacketListManager->GetDatePacket( p_szRQ);

  00010	8b 01		 mov	 eax, DWORD PTR [ecx]

; 326  : }

  00012	5d		 pop	 ebp

; 325  : 	return m_pIPacketListManager->GetDatePacket( p_szRQ);

  00013	ff 60 2c	 jmp	 DWORD PTR [eax+44]
?GetDatePacket@CAnalysisData@@QBEPAUIPacket133101@@PBD@Z ENDP ; CAnalysisData::GetDatePacket
_TEXT	ENDS
; Function compile flags: /Ogtp
; File D:\git\src\IBK\IBK_DRFN\ProjSrc\SrcChartEx\ChartAddIn\ChartAnalysisToolAddIn\AnalysisTool\AnalysisData.cpp
;	COMDAT ?MoveElement@CAnalysisData@@QAEHPAVCElement@@V?$CStringT@DV?$StrTraitMFC_DLL@DV?$ChTraitsCRT@D@ATL@@@@@ATL@@@Z
_TEXT	SEGMENT
__$EHRec$ = -12						; size = 12
_pSelectedElement$ = 8					; size = 4
_strElementData_Prev$ = 12				; size = 4
?MoveElement@CAnalysisData@@QAEHPAVCElement@@V?$CStringT@DV?$StrTraitMFC_DLL@DV?$ChTraitsCRT@D@ATL@@@@@ATL@@@Z PROC ; CAnalysisData::MoveElement, COMDAT
; _this$ = ecx

; 341  : {

  00000	55		 push	 ebp
  00001	8b ec		 mov	 ebp, esp
  00003	6a ff		 push	 -1
  00005	68 00 00 00 00	 push	 __ehhandler$?MoveElement@CAnalysisData@@QAEHPAVCElement@@V?$CStringT@DV?$StrTraitMFC_DLL@DV?$ChTraitsCRT@D@ATL@@@@@ATL@@@Z
  0000a	64 a1 00 00 00
	00		 mov	 eax, DWORD PTR fs:0
  00010	50		 push	 eax
  00011	56		 push	 esi
  00012	a1 00 00 00 00	 mov	 eax, DWORD PTR ___security_cookie
  00017	33 c5		 xor	 eax, ebp
  00019	50		 push	 eax
  0001a	8d 45 f4	 lea	 eax, DWORD PTR __$EHRec$[ebp]
  0001d	64 a3 00 00 00
	00		 mov	 DWORD PTR fs:0, eax

; 342  : 	if(pSelectedElement == NULL)

  00023	8b 45 08	 mov	 eax, DWORD PTR _pSelectedElement$[ebp]
  00026	c7 45 fc 00 00
	00 00		 mov	 DWORD PTR __$EHRec$[ebp+8], 0
  0002d	85 c0		 test	 eax, eax
  0002f	75 04		 jne	 SHORT $LN2@MoveElemen
  00031	33 f6		 xor	 esi, esi
  00033	eb 15		 jmp	 SHORT $LN5@MoveElemen
$LN2@MoveElemen:

; 343  : 		return FALSE;
; 344  : 
; 345  : 	// Undo / Redo
; 346  : 	GetUndoRedoManager().RegisterElementToUnRedoManager(URT_MOVE, (long)pSelectedElement, strElementData_Prev);

  00035	6a 00		 push	 0
  00037	ff 75 0c	 push	 DWORD PTR _strElementData_Prev$[ebp]
  0003a	83 c1 3c	 add	 ecx, 60			; 0000003cH
  0003d	50		 push	 eax
  0003e	6a 02		 push	 2
  00040	e8 00 00 00 00	 call	 ?RegisterElementToUnRedoManager@CUndoRedoManager@@QAEXHJPBD0@Z ; CUndoRedoManager::RegisterElementToUnRedoManager

; 347  : 
; 348  : 	return TRUE;

  00045	be 01 00 00 00	 mov	 esi, 1
$LN5@MoveElemen:
  0004a	8d 4d 0c	 lea	 ecx, DWORD PTR _strElementData_Prev$[ebp]
  0004d	ff 15 00 00 00
	00		 call	 DWORD PTR __imp_??1?$CStringT@DV?$StrTraitMFC_DLL@DV?$ChTraitsCRT@D@ATL@@@@@ATL@@QAE@XZ
  00053	8b c6		 mov	 eax, esi

; 349  : }

  00055	8b 4d f4	 mov	 ecx, DWORD PTR __$EHRec$[ebp]
  00058	64 89 0d 00 00
	00 00		 mov	 DWORD PTR fs:0, ecx
  0005f	59		 pop	 ecx
  00060	5e		 pop	 esi
  00061	8b e5		 mov	 esp, ebp
  00063	5d		 pop	 ebp
  00064	c2 08 00	 ret	 8
_TEXT	ENDS
;	COMDAT text$x
text$x	SEGMENT
__unwindfunclet$?MoveElement@CAnalysisData@@QAEHPAVCElement@@V?$CStringT@DV?$StrTraitMFC_DLL@DV?$ChTraitsCRT@D@ATL@@@@@ATL@@@Z$0:
  00000	8d 4d 0c	 lea	 ecx, DWORD PTR _strElementData_Prev$[ebp]
  00003	ff 25 00 00 00
	00		 jmp	 DWORD PTR __imp_??1?$CStringT@DV?$StrTraitMFC_DLL@DV?$ChTraitsCRT@D@ATL@@@@@ATL@@QAE@XZ
  00009	cc		 int	 3
  0000a	cc		 int	 3
  0000b	cc		 int	 3
  0000c	cc		 int	 3
  0000d	cc		 int	 3
__ehhandler$?MoveElement@CAnalysisData@@QAEHPAVCElement@@V?$CStringT@DV?$StrTraitMFC_DLL@DV?$ChTraitsCRT@D@ATL@@@@@ATL@@@Z:
  0000e	90		 npad	 1
  0000f	90		 npad	 1
  00010	8b 54 24 08	 mov	 edx, DWORD PTR [esp+8]
  00014	8d 42 0c	 lea	 eax, DWORD PTR [edx+12]
  00017	8b 4a f8	 mov	 ecx, DWORD PTR [edx-8]
  0001a	33 c8		 xor	 ecx, eax
  0001c	e8 00 00 00 00	 call	 @__security_check_cookie@4
  00021	b8 00 00 00 00	 mov	 eax, OFFSET __ehfuncinfo$?MoveElement@CAnalysisData@@QAEHPAVCElement@@V?$CStringT@DV?$StrTraitMFC_DLL@DV?$ChTraitsCRT@D@ATL@@@@@ATL@@@Z
  00026	e9 00 00 00 00	 jmp	 ___CxxFrameHandler3
text$x	ENDS
?MoveElement@CAnalysisData@@QAEHPAVCElement@@V?$CStringT@DV?$StrTraitMFC_DLL@DV?$ChTraitsCRT@D@ATL@@@@@ATL@@@Z ENDP ; CAnalysisData::MoveElement
; Function compile flags: /Ogtp
; File D:\git\src\IBK\IBK_DRFN\ProjSrc\SrcChartEx\ChartAddIn\ChartAnalysisToolAddIn\AnalysisTool\AnalysisData.cpp
;	COMDAT ?GetUndoRedoManager@CAnalysisData@@QAEAAVCUndoRedoManager@@XZ
_TEXT	SEGMENT
?GetUndoRedoManager@CAnalysisData@@QAEAAVCUndoRedoManager@@XZ PROC ; CAnalysisData::GetUndoRedoManager, COMDAT
; _this$ = ecx

; 337  : 	return m_UndoRedoManager;

  00000	8d 41 3c	 lea	 eax, DWORD PTR [ecx+60]

; 338  : }

  00003	c3		 ret	 0
?GetUndoRedoManager@CAnalysisData@@QAEAAVCUndoRedoManager@@XZ ENDP ; CAnalysisData::GetUndoRedoManager
_TEXT	ENDS
; Function compile flags: /Ogtp
; File D:\git\src\IBK\IBK_DRFN\ProjSrc\SrcChartEx\ChartAddIn\ChartAnalysisToolAddIn\AnalysisTool\AnalysisData.cpp
;	COMDAT ?GetUndoRedoManager@CAnalysisData@@QBEABVCUndoRedoManager@@XZ
_TEXT	SEGMENT
?GetUndoRedoManager@CAnalysisData@@QBEABVCUndoRedoManager@@XZ PROC ; CAnalysisData::GetUndoRedoManager, COMDAT
; _this$ = ecx

; 332  : 	return m_UndoRedoManager;

  00000	8d 41 3c	 lea	 eax, DWORD PTR [ecx+60]

; 333  : }

  00003	c3		 ret	 0
?GetUndoRedoManager@CAnalysisData@@QBEABVCUndoRedoManager@@XZ ENDP ; CAnalysisData::GetUndoRedoManager
_TEXT	ENDS
; Function compile flags: /Ogtp
; File D:\git\src\IBK\IBK_DRFN\ProjSrc\SrcChartEx\ChartAddIn\ChartAnalysisToolAddIn\AnalysisTool\AnalysisData.cpp
;	COMDAT ?InsertElementTree@CAnalysisData@@QAE_NABVCBlockIndex@@@Z
_TEXT	SEGMENT
_insertBlockIndex$ = 8					; size = 4
?InsertElementTree@CAnalysisData@@QAE_NABVCBlockIndex@@@Z PROC ; CAnalysisData::InsertElementTree, COMDAT
; _this$ = ecx

; 354  : {

  00000	55		 push	 ebp
  00001	8b ec		 mov	 ebp, esp
  00003	56		 push	 esi
  00004	8b f1		 mov	 esi, ecx

; 355  : 	if(m_pIChartManager == NULL)

  00006	8b 4e 6c	 mov	 ecx, DWORD PTR [esi+108]
  00009	85 c9		 test	 ecx, ecx
  0000b	75 07		 jne	 SHORT $LN2@InsertElem

; 356  : 		return false;

  0000d	32 c0		 xor	 al, al
  0000f	5e		 pop	 esi

; 359  : }

  00010	5d		 pop	 ebp
  00011	c2 04 00	 ret	 4
$LN2@InsertElem:

; 357  : 
; 358  : 	return m_elementTree.InsertElementTree(m_pIChartManager->GetBlockType(), insertBlockIndex);

  00014	8b 01		 mov	 eax, DWORD PTR [ecx]
  00016	ff 75 08	 push	 DWORD PTR _insertBlockIndex$[ebp]
  00019	ff 50 18	 call	 DWORD PTR [eax+24]
  0001c	50		 push	 eax
  0001d	8d 4e 08	 lea	 ecx, DWORD PTR [esi+8]
  00020	e8 00 00 00 00	 call	 ?InsertElementTree@CElementTree@@QAE_NW4BLOCKTYPE@CBlockBaseData@@ABVCBlockIndex@@@Z ; CElementTree::InsertElementTree
  00025	5e		 pop	 esi

; 359  : }

  00026	5d		 pop	 ebp
  00027	c2 04 00	 ret	 4
?InsertElementTree@CAnalysisData@@QAE_NABVCBlockIndex@@@Z ENDP ; CAnalysisData::InsertElementTree
_TEXT	ENDS
; Function compile flags: /Ogtp
; File D:\git\src\IBK\IBK_DRFN\ProjSrc\SrcChartEx\ChartAddIn\ChartAnalysisToolAddIn\AnalysisTool\AnalysisData.cpp
;	COMDAT ?CopyElement@CAnalysisData@@QAEPAVCElement@@PAV2@@Z
_TEXT	SEGMENT
_pSelectedElement$ = 8					; size = 4
?CopyElement@CAnalysisData@@QAEPAVCElement@@PAV2@@Z PROC ; CAnalysisData::CopyElement, COMDAT
; _this$ = ecx

; 312  : {

  00000	55		 push	 ebp
  00001	8b ec		 mov	 ebp, esp

; 313  : 	if(pSelectedElement == NULL)

  00003	8b 45 08	 mov	 eax, DWORD PTR _pSelectedElement$[ebp]
  00006	85 c0		 test	 eax, eax
  00008	75 04		 jne	 SHORT $LN2@CopyElemen

; 318  : 	//<< (2008/12/17 - Seung-Lyong Park)    UndoRedo
; 319  : }

  0000a	5d		 pop	 ebp
  0000b	c2 04 00	 ret	 4
$LN2@CopyElemen:

; 314  : 		return NULL;
; 315  : 
; 316  : 	//>> (2008/12/17 - Seung-Lyong Park)    UndoRedo
; 317  : 	return m_elementTree.CopyElement(pSelectedElement);

  0000e	89 45 08	 mov	 DWORD PTR _pSelectedElement$[ebp], eax
  00011	83 c1 08	 add	 ecx, 8

; 318  : 	//<< (2008/12/17 - Seung-Lyong Park)    UndoRedo
; 319  : }

  00014	5d		 pop	 ebp

; 314  : 		return NULL;
; 315  : 
; 316  : 	//>> (2008/12/17 - Seung-Lyong Park)    UndoRedo
; 317  : 	return m_elementTree.CopyElement(pSelectedElement);

  00015	e9 00 00 00 00	 jmp	 ?CopyElement@CElementTree@@QAEPAVCElement@@PAV2@@Z ; CElementTree::CopyElement
?CopyElement@CAnalysisData@@QAEPAVCElement@@PAV2@@Z ENDP ; CAnalysisData::CopyElement
_TEXT	ENDS
; Function compile flags: /Ogtp
; File D:\git\src\IBK\IBK_DRFN\ProjSrc\SrcChartEx\ChartAddIn\ChartAnalysisToolAddIn\AnalysisTool\AnalysisData.cpp
;	COMDAT ?DrawElement@CAnalysisData@@QAEXPAVCDC@@PAVCElement@@@Z
_TEXT	SEGMENT
_pDC$ = 8						; size = 4
_pSelectedElement$ = 12					; size = 4
?DrawElement@CAnalysisData@@QAEXPAVCDC@@PAVCElement@@@Z PROC ; CAnalysisData::DrawElement, COMDAT
; _this$ = ecx

; 304  : {

  00000	55		 push	 ebp
  00001	8b ec		 mov	 ebp, esp

; 305  : 	if(m_pIChartManager == NULL)

  00003	8b 41 6c	 mov	 eax, DWORD PTR [ecx+108]
  00006	85 c0		 test	 eax, eax
  00008	74 0f		 je	 SHORT $LN1@DrawElemen

; 306  : 		return;
; 307  : 
; 308  : 	m_elementTree.DrawElement(pDC, pSelectedElement, m_pIChartManager);

  0000a	50		 push	 eax
  0000b	ff 75 0c	 push	 DWORD PTR _pSelectedElement$[ebp]
  0000e	83 c1 08	 add	 ecx, 8
  00011	ff 75 08	 push	 DWORD PTR _pDC$[ebp]
  00014	e8 00 00 00 00	 call	 ?DrawElement@CElementTree@@QAEXPAVCDC@@PAVCElement@@PAUIChartManager133101@@@Z ; CElementTree::DrawElement
$LN1@DrawElemen:

; 309  : }

  00019	5d		 pop	 ebp
  0001a	c2 08 00	 ret	 8
?DrawElement@CAnalysisData@@QAEXPAVCDC@@PAVCElement@@@Z ENDP ; CAnalysisData::DrawElement
_TEXT	ENDS
; Function compile flags: /Ogtp
; File D:\git\src\IBK\IBK_DRFN\ProjSrc\SrcChartEx\ChartAddIn\ChartAnalysisToolAddIn\AnalysisTool\AnalysisData.cpp
; File C:\Program Files (x86)\Microsoft Visual Studio\2019\Community\VC\Tools\MSVC\14.29.30133\atlmfc\include\afxwin2.inl
; File D:\git\src\IBK\IBK_DRFN\ProjSrc\SrcChartEx\ChartAddIn\ChartAnalysisToolAddIn\AnalysisTool\AnalysisData.cpp
;	COMDAT ?Invalidate@CAnalysisData@@QAEXXZ
_TEXT	SEGMENT
?Invalidate@CAnalysisData@@QAEXXZ PROC			; CAnalysisData::Invalidate, COMDAT
; _this$ = ecx

; 296  : 	if(m_pParent == NULL)

  00000	8b 01		 mov	 eax, DWORD PTR [ecx]
  00002	85 c0		 test	 eax, eax
  00004	74 0d		 je	 SHORT $LN1@Invalidate
; File C:\Program Files (x86)\Microsoft Visual Studio\2019\Community\VC\Tools\MSVC\14.29.30133\atlmfc\include\afxwin2.inl

; 114  : 	{ ASSERT(::IsWindow(m_hWnd)); ::InvalidateRect(m_hWnd, NULL, bErase); }

  00006	6a 01		 push	 1
  00008	6a 00		 push	 0
  0000a	ff 70 20	 push	 DWORD PTR [eax+32]
  0000d	ff 15 00 00 00
	00		 call	 DWORD PTR __imp__InvalidateRect@12
$LN1@Invalidate:
; File D:\git\src\IBK\IBK_DRFN\ProjSrc\SrcChartEx\ChartAddIn\ChartAnalysisToolAddIn\AnalysisTool\AnalysisData.cpp

; 300  : }

  00013	c3		 ret	 0
?Invalidate@CAnalysisData@@QAEXXZ ENDP			; CAnalysisData::Invalidate
_TEXT	ENDS
; Function compile flags: /Ogtp
; File D:\git\src\IBK\IBK_DRFN\ProjSrc\SrcChartEx\ChartAddIn\ChartAnalysisToolAddIn\AnalysisTool\AnalysisData.cpp
; File C:\Program Files (x86)\Microsoft Visual Studio\2019\Community\VC\Tools\MSVC\14.29.30133\atlmfc\include\afxwin2.inl
; File D:\git\src\IBK\IBK_DRFN\ProjSrc\SrcChartEx\ChartAddIn\ChartAnalysisToolAddIn\AnalysisTool\AnalysisData.cpp
; File C:\Program Files (x86)\Microsoft Visual Studio\2019\Community\VC\Tools\MSVC\14.29.30133\atlmfc\include\afxwin2.inl
; File D:\git\src\IBK\IBK_DRFN\ProjSrc\SrcChartEx\ChartAddIn\ChartAnalysisToolAddIn\AnalysisTool\AnalysisData.cpp
;	COMDAT ?InvalidateAndSendMessageToParent@CAnalysisData@@QAEXW4CHARTOBJECT@CCursorShape@@@Z
_TEXT	SEGMENT
_cursorShape$ = 8					; size = 4
?InvalidateAndSendMessageToParent@CAnalysisData@@QAEXW4CHARTOBJECT@CCursorShape@@@Z PROC ; CAnalysisData::InvalidateAndSendMessageToParent, COMDAT
; _this$ = ecx

; 288  : {

  00000	55		 push	 ebp
  00001	8b ec		 mov	 ebp, esp
  00003	56		 push	 esi
  00004	8b f1		 mov	 esi, ecx

; 296  : 	if(m_pParent == NULL)

  00006	8b 06		 mov	 eax, DWORD PTR [esi]
  00008	85 c0		 test	 eax, eax
  0000a	74 0f		 je	 SHORT $LN3@Invalidate
; File C:\Program Files (x86)\Microsoft Visual Studio\2019\Community\VC\Tools\MSVC\14.29.30133\atlmfc\include\afxwin2.inl

; 114  : 	{ ASSERT(::IsWindow(m_hWnd)); ::InvalidateRect(m_hWnd, NULL, bErase); }

  0000c	6a 01		 push	 1
  0000e	6a 00		 push	 0
  00010	ff 70 20	 push	 DWORD PTR [eax+32]
  00013	ff 15 00 00 00
	00		 call	 DWORD PTR __imp__InvalidateRect@12
  00019	8b 06		 mov	 eax, DWORD PTR [esi]
$LN3@Invalidate:
  0001b	5e		 pop	 esi
; File D:\git\src\IBK\IBK_DRFN\ProjSrc\SrcChartEx\ChartAddIn\ChartAnalysisToolAddIn\AnalysisTool\AnalysisData.cpp

; 280  : 	if(m_pParent == NULL)

  0001c	85 c0		 test	 eax, eax
  0001e	74 13		 je	 SHORT $LN8@Invalidate
; File C:\Program Files (x86)\Microsoft Visual Studio\2019\Community\VC\Tools\MSVC\14.29.30133\atlmfc\include\afxwin2.inl

; 32   : 	{ ASSERT(::IsWindow(m_hWnd)); return ::SendMessage(m_hWnd, message, wParam, lParam); }

  00020	6a 00		 push	 0
  00022	ff 75 08	 push	 DWORD PTR _cursorShape$[ebp]
  00025	68 09 06 00 00	 push	 1545			; 00000609H
  0002a	ff 70 20	 push	 DWORD PTR [eax+32]
  0002d	ff 15 00 00 00
	00		 call	 DWORD PTR __imp__SendMessageA@16
$LN8@Invalidate:
; File D:\git\src\IBK\IBK_DRFN\ProjSrc\SrcChartEx\ChartAddIn\ChartAnalysisToolAddIn\AnalysisTool\AnalysisData.cpp

; 291  : }

  00033	5d		 pop	 ebp
  00034	c2 04 00	 ret	 4
?InvalidateAndSendMessageToParent@CAnalysisData@@QAEXW4CHARTOBJECT@CCursorShape@@@Z ENDP ; CAnalysisData::InvalidateAndSendMessageToParent
_TEXT	ENDS
; Function compile flags: /Ogtp
; File D:\git\src\IBK\IBK_DRFN\ProjSrc\SrcChartEx\ChartAddIn\ChartAnalysisToolAddIn\AnalysisTool\AnalysisData.cpp
; File C:\Program Files (x86)\Microsoft Visual Studio\2019\Community\VC\Tools\MSVC\14.29.30133\atlmfc\include\afxwin2.inl
; File D:\git\src\IBK\IBK_DRFN\ProjSrc\SrcChartEx\ChartAddIn\ChartAnalysisToolAddIn\AnalysisTool\AnalysisData.cpp
;	COMDAT ?SendMessageToParent@CAnalysisData@@QAEXW4CHARTOBJECT@CCursorShape@@@Z
_TEXT	SEGMENT
_cursorShape$ = 8					; size = 4
?SendMessageToParent@CAnalysisData@@QAEXW4CHARTOBJECT@CCursorShape@@@Z PROC ; CAnalysisData::SendMessageToParent, COMDAT
; _this$ = ecx

; 279  : {

  00000	55		 push	 ebp
  00001	8b ec		 mov	 ebp, esp

; 280  : 	if(m_pParent == NULL)

  00003	8b 01		 mov	 eax, DWORD PTR [ecx]
  00005	85 c0		 test	 eax, eax
  00007	74 13		 je	 SHORT $LN1@SendMessag
; File C:\Program Files (x86)\Microsoft Visual Studio\2019\Community\VC\Tools\MSVC\14.29.30133\atlmfc\include\afxwin2.inl

; 32   : 	{ ASSERT(::IsWindow(m_hWnd)); return ::SendMessage(m_hWnd, message, wParam, lParam); }

  00009	6a 00		 push	 0
  0000b	ff 75 08	 push	 DWORD PTR _cursorShape$[ebp]
  0000e	68 09 06 00 00	 push	 1545			; 00000609H
  00013	ff 70 20	 push	 DWORD PTR [eax+32]
  00016	ff 15 00 00 00
	00		 call	 DWORD PTR __imp__SendMessageA@16
$LN1@SendMessag:
; File D:\git\src\IBK\IBK_DRFN\ProjSrc\SrcChartEx\ChartAddIn\ChartAnalysisToolAddIn\AnalysisTool\AnalysisData.cpp

; 284  : }

  0001c	5d		 pop	 ebp
  0001d	c2 04 00	 ret	 4
?SendMessageToParent@CAnalysisData@@QAEXW4CHARTOBJECT@CCursorShape@@@Z ENDP ; CAnalysisData::SendMessageToParent
_TEXT	ENDS
; Function compile flags: /Ogtp
; File D:\git\src\IBK\IBK_DRFN\ProjSrc\SrcChartEx\ChartAddIn\ChartAnalysisToolAddIn\AnalysisTool\AnalysisData.cpp
; File C:\Program Files (x86)\Microsoft Visual Studio\2019\Community\VC\Tools\MSVC\14.29.30133\atlmfc\include\atltypes.h
; File D:\git\src\IBK\IBK_DRFN\ProjSrc\SrcChartEx\ChartAddIn\ChartAnalysisToolAddIn\AnalysisTool\AnalysisData.cpp
; File C:\Program Files (x86)\Microsoft Visual Studio\2019\Community\VC\Tools\MSVC\14.29.30133\atlmfc\include\atltypes.h
; File D:\git\src\IBK\IBK_DRFN\ProjSrc\SrcChartEx\ChartAddIn\ChartAnalysisToolAddIn\AnalysisTool\AnalysisData.cpp
; File C:\Program Files (x86)\Microsoft Visual Studio\2019\Community\VC\Tools\MSVC\14.29.30133\atlmfc\include\atltypes.h
; File D:\git\src\IBK\IBK_DRFN\ProjSrc\SrcChartEx\ChartAddIn\ChartAnalysisToolAddIn\AnalysisTool\AnalysisData.cpp
; File C:\Program Files (x86)\Microsoft Visual Studio\2019\Community\VC\Tools\MSVC\14.29.30133\atlmfc\include\atltypes.h
; File D:\git\src\IBK\IBK_DRFN\ProjSrc\SrcChartEx\ChartAddIn\ChartAnalysisToolAddIn\AnalysisTool\AnalysisData.cpp
;	COMDAT ?PointInGraphRegion@CAnalysisData@@QBE_NABVCPoint@@@Z
_TEXT	SEGMENT
_nRow$ = -44						; size = 4
_nColumn$ = -40						; size = 4
_rctNoFrameAndMargin$ = -36				; size = 16
_graphRegion$ = -20					; size = 16
__$ArrayPad$ = -4					; size = 4
_point$ = 8						; size = 4
?PointInGraphRegion@CAnalysisData@@QBE_NABVCPoint@@@Z PROC ; CAnalysisData::PointInGraphRegion, COMDAT
; _this$ = ecx

; 260  : {

  00000	55		 push	 ebp
  00001	8b ec		 mov	 ebp, esp
  00003	83 ec 2c	 sub	 esp, 44			; 0000002cH
  00006	a1 00 00 00 00	 mov	 eax, DWORD PTR ___security_cookie
  0000b	33 c5		 xor	 eax, ebp
  0000d	89 45 fc	 mov	 DWORD PTR __$ArrayPad$[ebp], eax
  00010	56		 push	 esi
  00011	8b f1		 mov	 esi, ecx
  00013	57		 push	 edi
  00014	8b 7d 08	 mov	 edi, DWORD PTR _point$[ebp]

; 261  : 	if(m_pIChartManager == NULL)

  00017	8b 4e 6c	 mov	 ecx, DWORD PTR [esi+108]
  0001a	85 c9		 test	 ecx, ecx
  0001c	0f 84 a4 00 00
	00		 je	 $LN26@PointInGra

; 262  : 		return false;
; 263  : 
; 264  : 	int nRow, nColumn;
; 265  : 	if( !m_pIChartManager->GetBlockIndex( point, nRow, nColumn)) return false;

  00022	8b 01		 mov	 eax, DWORD PTR [ecx]
  00024	8d 55 d8	 lea	 edx, DWORD PTR _nColumn$[ebp]
  00027	52		 push	 edx
  00028	8d 55 d4	 lea	 edx, DWORD PTR _nRow$[ebp]
  0002b	52		 push	 edx
  0002c	ff 77 04	 push	 DWORD PTR [edi+4]
  0002f	ff 37		 push	 DWORD PTR [edi]
  00031	ff 90 8c 00 00
	00		 call	 DWORD PTR [eax+140]
  00037	85 c0		 test	 eax, eax
  00039	0f 84 87 00 00
	00		 je	 $LN26@PointInGra

; 266  : 	IBlock *pIBlock = m_pIChartManager->GetBlock( nRow, nColumn);

  0003f	8b 4e 6c	 mov	 ecx, DWORD PTR [esi+108]
  00042	ff 75 d8	 push	 DWORD PTR _nColumn$[ebp]
  00045	ff 75 d4	 push	 DWORD PTR _nRow$[ebp]
  00048	8b 01		 mov	 eax, DWORD PTR [ecx]
  0004a	ff 50 38	 call	 DWORD PTR [eax+56]
  0004d	8b f0		 mov	 esi, eax

; 267  : 	if( !pIBlock) return false;

  0004f	85 f6		 test	 esi, esi
  00051	74 73		 je	 SHORT $LN26@PointInGra

; 269  : 	pIBlock->GetGraphRegions( graphRegion, rctNoFrameAndMargin);

  00053	8d 4d dc	 lea	 ecx, DWORD PTR _rctNoFrameAndMargin$[ebp]
; File C:\Program Files (x86)\Microsoft Visual Studio\2019\Community\VC\Tools\MSVC\14.29.30133\atlmfc\include\atltypes.h

; 528  : 	left = 0;

  00056	c7 45 ec 00 00
	00 00		 mov	 DWORD PTR _graphRegion$[ebp], 0
; File D:\git\src\IBK\IBK_DRFN\ProjSrc\SrcChartEx\ChartAddIn\ChartAnalysisToolAddIn\AnalysisTool\AnalysisData.cpp

; 269  : 	pIBlock->GetGraphRegions( graphRegion, rctNoFrameAndMargin);

  0005d	51		 push	 ecx
; File C:\Program Files (x86)\Microsoft Visual Studio\2019\Community\VC\Tools\MSVC\14.29.30133\atlmfc\include\atltypes.h

; 528  : 	left = 0;

  0005e	c7 45 dc 00 00
	00 00		 mov	 DWORD PTR _rctNoFrameAndMargin$[ebp], 0
; File D:\git\src\IBK\IBK_DRFN\ProjSrc\SrcChartEx\ChartAddIn\ChartAnalysisToolAddIn\AnalysisTool\AnalysisData.cpp

; 269  : 	pIBlock->GetGraphRegions( graphRegion, rctNoFrameAndMargin);

  00065	8d 4d ec	 lea	 ecx, DWORD PTR _graphRegion$[ebp]
; File C:\Program Files (x86)\Microsoft Visual Studio\2019\Community\VC\Tools\MSVC\14.29.30133\atlmfc\include\atltypes.h

; 528  : 	left = 0;

  00068	c7 45 f0 00 00
	00 00		 mov	 DWORD PTR _graphRegion$[ebp+4], 0
  0006f	c7 45 e0 00 00
	00 00		 mov	 DWORD PTR _rctNoFrameAndMargin$[ebp+4], 0
  00076	c7 45 f4 00 00
	00 00		 mov	 DWORD PTR _graphRegion$[ebp+8], 0
  0007d	c7 45 e4 00 00
	00 00		 mov	 DWORD PTR _rctNoFrameAndMargin$[ebp+8], 0
  00084	c7 45 f8 00 00
	00 00		 mov	 DWORD PTR _graphRegion$[ebp+12], 0
  0008b	c7 45 e8 00 00
	00 00		 mov	 DWORD PTR _rctNoFrameAndMargin$[ebp+12], 0
; File D:\git\src\IBK\IBK_DRFN\ProjSrc\SrcChartEx\ChartAddIn\ChartAnalysisToolAddIn\AnalysisTool\AnalysisData.cpp

; 269  : 	pIBlock->GetGraphRegions( graphRegion, rctNoFrameAndMargin);

  00092	8b 06		 mov	 eax, DWORD PTR [esi]
  00094	51		 push	 ecx
  00095	8b ce		 mov	 ecx, esi
  00097	ff 50 10	 call	 DWORD PTR [eax+16]

; 270  : 	pIBlock->Release();

  0009a	8b 06		 mov	 eax, DWORD PTR [esi]
  0009c	56		 push	 esi
  0009d	ff 50 08	 call	 DWORD PTR [eax+8]
; File C:\Program Files (x86)\Microsoft Visual Studio\2019\Community\VC\Tools\MSVC\14.29.30133\atlmfc\include\atltypes.h

; 648  : 	return ::PtInRect(this, point);

  000a0	ff 77 04	 push	 DWORD PTR [edi+4]
  000a3	8d 45 ec	 lea	 eax, DWORD PTR _graphRegion$[ebp]
  000a6	ff 37		 push	 DWORD PTR [edi]
  000a8	50		 push	 eax
  000a9	ff 15 00 00 00
	00		 call	 DWORD PTR __imp__PtInRect@12
; File D:\git\src\IBK\IBK_DRFN\ProjSrc\SrcChartEx\ChartAddIn\ChartAnalysisToolAddIn\AnalysisTool\AnalysisData.cpp

; 273  : 	return ( graphRegion.PtInRect(point) ? true : false);

  000af	85 c0		 test	 eax, eax
  000b1	5f		 pop	 edi
  000b2	0f 95 c0	 setne	 al

; 274  : }

  000b5	5e		 pop	 esi
  000b6	8b 4d fc	 mov	 ecx, DWORD PTR __$ArrayPad$[ebp]
  000b9	33 cd		 xor	 ecx, ebp
  000bb	e8 00 00 00 00	 call	 @__security_check_cookie@4
  000c0	8b e5		 mov	 esp, ebp
  000c2	5d		 pop	 ebp
  000c3	c2 04 00	 ret	 4
$LN26@PointInGra:
  000c6	8b 4d fc	 mov	 ecx, DWORD PTR __$ArrayPad$[ebp]
  000c9	32 c0		 xor	 al, al
  000cb	5f		 pop	 edi
  000cc	33 cd		 xor	 ecx, ebp
  000ce	5e		 pop	 esi
  000cf	e8 00 00 00 00	 call	 @__security_check_cookie@4
  000d4	8b e5		 mov	 esp, ebp
  000d6	5d		 pop	 ebp
  000d7	c2 04 00	 ret	 4
?PointInGraphRegion@CAnalysisData@@QBE_NABVCPoint@@@Z ENDP ; CAnalysisData::PointInGraphRegion
_TEXT	ENDS
; Function compile flags: /Ogtp
; File D:\git\src\IBK\IBK_DRFN\ProjSrc\SrcChartEx\ChartAddIn\ChartAnalysisToolAddIn\AnalysisTool\AnalysisData.cpp
; File D:\git\src\IBK\IBK_DRFN\ProjSrc\SrcChartEx\ChartAddIn\ChartAnalysisToolAddIn\Include_Chart\BlockBaseData.h
; File D:\git\src\IBK\IBK_DRFN\ProjSrc\SrcChartEx\ChartAddIn\ChartAnalysisToolAddIn\AnalysisTool\AnalysisData.cpp
;	COMDAT ?GetBlockIndexInElement@CAnalysisData@@QBE?AVCBlockIndex@@J@Z
_TEXT	SEGMENT
___$ReturnUdt$ = 8					; size = 4
_lElementAddress$ = 12					; size = 4
?GetBlockIndexInElement@CAnalysisData@@QBE?AVCBlockIndex@@J@Z PROC ; CAnalysisData::GetBlockIndexInElement, COMDAT
; _this$ = ecx

; 251  : {

  00000	55		 push	 ebp
  00001	8b ec		 mov	 ebp, esp

; 252  : 	const CElement* pSelectedElement = (const CElement*)lElementAddress;
; 253  : 	if(pSelectedElement == NULL)

  00003	8b 45 0c	 mov	 eax, DWORD PTR _lElementAddress$[ebp]
  00006	85 c0		 test	 eax, eax
  00008	75 14		 jne	 SHORT $LN2@GetBlockIn
; File D:\git\src\IBK\IBK_DRFN\ProjSrc\SrcChartEx\ChartAddIn\ChartAnalysisToolAddIn\Include_Chart\BlockBaseData.h

; 19   : 	CBlockIndex() { m_nRow = m_nColumn = -1; };

  0000a	8b 45 08	 mov	 eax, DWORD PTR ___$ReturnUdt$[ebp]
  0000d	c7 40 04 ff ff
	ff ff		 mov	 DWORD PTR [eax+4], -1
  00014	c7 00 ff ff ff
	ff		 mov	 DWORD PTR [eax], -1
; File D:\git\src\IBK\IBK_DRFN\ProjSrc\SrcChartEx\ChartAddIn\ChartAnalysisToolAddIn\AnalysisTool\AnalysisData.cpp

; 257  : }

  0001a	5d		 pop	 ebp
  0001b	c2 08 00	 ret	 8
$LN2@GetBlockIn:

; 254  : 		return CBlockIndex();
; 255  : 
; 256  : 	return m_elementTree.GetBlockIndexInElement(pSelectedElement);

  0001e	50		 push	 eax
  0001f	ff 75 08	 push	 DWORD PTR ___$ReturnUdt$[ebp]
  00022	83 c1 08	 add	 ecx, 8
  00025	e8 00 00 00 00	 call	 ?GetBlockIndexInElement@CElementTree@@QBE?AVCBlockIndex@@PBVCElement@@@Z ; CElementTree::GetBlockIndexInElement
  0002a	8b 45 08	 mov	 eax, DWORD PTR ___$ReturnUdt$[ebp]

; 257  : }

  0002d	5d		 pop	 ebp
  0002e	c2 08 00	 ret	 8
?GetBlockIndexInElement@CAnalysisData@@QBE?AVCBlockIndex@@J@Z ENDP ; CAnalysisData::GetBlockIndexInElement
_TEXT	ENDS
; Function compile flags: /Ogtp
; File D:\git\src\IBK\IBK_DRFN\ProjSrc\SrcChartEx\ChartAddIn\ChartAnalysisToolAddIn\AnalysisTool\AnalysisData.cpp
; File D:\git\src\IBK\IBK_DRFN\ProjSrc\SrcChartEx\ChartAddIn\ChartAnalysisToolAddIn\Include_Chart\BlockBaseData.h
; File D:\git\src\IBK\IBK_DRFN\ProjSrc\SrcChartEx\ChartAddIn\ChartAnalysisToolAddIn\AnalysisTool\AnalysisData.cpp
; File D:\git\src\IBK\IBK_DRFN\ProjSrc\SrcChartEx\ChartAddIn\ChartAnalysisToolAddIn\Include_Chart\BlockBaseData.h
; File D:\git\src\IBK\IBK_DRFN\ProjSrc\SrcChartEx\ChartAddIn\ChartAnalysisToolAddIn\AnalysisTool\AnalysisData.cpp
; File D:\git\src\IBK\IBK_DRFN\ProjSrc\SrcChartEx\ChartAddIn\ChartAnalysisToolAddIn\Include_Chart\BlockBaseData.h
; File D:\git\src\IBK\IBK_DRFN\ProjSrc\SrcChartEx\ChartAddIn\ChartAnalysisToolAddIn\AnalysisTool\AnalysisData.cpp
;	COMDAT ?GetBlockIndexInPoint@CAnalysisData@@QBE?AVCBlockIndex@@ABVCPoint@@@Z
_TEXT	SEGMENT
_nColumn$ = -4						; size = 4
___$ReturnUdt$ = 8					; size = 4
_nRow$ = 12						; size = 4
_point$ = 12						; size = 4
?GetBlockIndexInPoint@CAnalysisData@@QBE?AVCBlockIndex@@ABVCPoint@@@Z PROC ; CAnalysisData::GetBlockIndexInPoint, COMDAT
; _this$ = ecx

; 236  : {

  00000	55		 push	 ebp
  00001	8b ec		 mov	 ebp, esp
  00003	51		 push	 ecx

; 237  : 	if(m_pIChartManager == NULL)

  00004	8b 49 6c	 mov	 ecx, DWORD PTR [ecx+108]
  00007	85 c9		 test	 ecx, ecx
  00009	75 16		 jne	 SHORT $LN2@GetBlockIn
; File D:\git\src\IBK\IBK_DRFN\ProjSrc\SrcChartEx\ChartAddIn\ChartAnalysisToolAddIn\Include_Chart\BlockBaseData.h

; 19   : 	CBlockIndex() { m_nRow = m_nColumn = -1; };

  0000b	8b 45 08	 mov	 eax, DWORD PTR ___$ReturnUdt$[ebp]
  0000e	c7 40 04 ff ff
	ff ff		 mov	 DWORD PTR [eax+4], -1
  00015	c7 00 ff ff ff
	ff		 mov	 DWORD PTR [eax], -1
; File D:\git\src\IBK\IBK_DRFN\ProjSrc\SrcChartEx\ChartAddIn\ChartAnalysisToolAddIn\AnalysisTool\AnalysisData.cpp

; 248  : }

  0001b	8b e5		 mov	 esp, ebp
  0001d	5d		 pop	 ebp
  0001e	c2 08 00	 ret	 8
$LN2@GetBlockIn:

; 242  : 	if( m_pIChartManager->GetBlockIndex(point, nRow, nColumn))

  00021	8b 45 0c	 mov	 eax, DWORD PTR _point$[ebp]
  00024	8b 11		 mov	 edx, DWORD PTR [ecx]
  00026	53		 push	 ebx
  00027	56		 push	 esi
  00028	57		 push	 edi
  00029	8d 5d fc	 lea	 ebx, DWORD PTR _nColumn$[ebp]
; File D:\git\src\IBK\IBK_DRFN\ProjSrc\SrcChartEx\ChartAddIn\ChartAnalysisToolAddIn\Include_Chart\BlockBaseData.h

; 19   : 	CBlockIndex() { m_nRow = m_nColumn = -1; };

  0002c	83 ce ff	 or	 esi, -1
; File D:\git\src\IBK\IBK_DRFN\ProjSrc\SrcChartEx\ChartAddIn\ChartAnalysisToolAddIn\AnalysisTool\AnalysisData.cpp

; 242  : 	if( m_pIChartManager->GetBlockIndex(point, nRow, nColumn))

  0002f	53		 push	 ebx
  00030	8d 5d 0c	 lea	 ebx, DWORD PTR _nRow$[ebp]
; File D:\git\src\IBK\IBK_DRFN\ProjSrc\SrcChartEx\ChartAddIn\ChartAnalysisToolAddIn\Include_Chart\BlockBaseData.h

; 19   : 	CBlockIndex() { m_nRow = m_nColumn = -1; };

  00033	0b fe		 or	 edi, esi
; File D:\git\src\IBK\IBK_DRFN\ProjSrc\SrcChartEx\ChartAddIn\ChartAnalysisToolAddIn\AnalysisTool\AnalysisData.cpp

; 242  : 	if( m_pIChartManager->GetBlockIndex(point, nRow, nColumn))

  00035	53		 push	 ebx
  00036	ff 70 04	 push	 DWORD PTR [eax+4]
  00039	ff 30		 push	 DWORD PTR [eax]
  0003b	ff 92 8c 00 00
	00		 call	 DWORD PTR [edx+140]
  00041	85 c0		 test	 eax, eax
  00043	74 06		 je	 SHORT $LN3@GetBlockIn

; 243  : 	{ 
; 244  : 		bi.SetRow( nRow);

  00045	8b 7d 0c	 mov	 edi, DWORD PTR _nRow$[ebp]

; 245  : 		bi.SetColumn( nColumn);

  00048	8b 75 fc	 mov	 esi, DWORD PTR _nColumn$[ebp]
$LN3@GetBlockIn:

; 246  : 	}
; 247  : 	return bi;

  0004b	8b 45 08	 mov	 eax, DWORD PTR ___$ReturnUdt$[ebp]
  0004e	89 38		 mov	 DWORD PTR [eax], edi
  00050	5f		 pop	 edi
  00051	89 70 04	 mov	 DWORD PTR [eax+4], esi
  00054	5e		 pop	 esi
  00055	5b		 pop	 ebx

; 248  : }

  00056	8b e5		 mov	 esp, ebp
  00058	5d		 pop	 ebp
  00059	c2 08 00	 ret	 8
?GetBlockIndexInPoint@CAnalysisData@@QBE?AVCBlockIndex@@ABVCPoint@@@Z ENDP ; CAnalysisData::GetBlockIndexInPoint
_TEXT	ENDS
; Function compile flags: /Ogtp
; File D:\git\src\IBK\IBK_DRFN\ProjSrc\SrcChartEx\ChartAddIn\ChartAnalysisToolAddIn\AnalysisTool\AnalysisData.cpp
;	COMDAT ?GetCoordinateCalculatorData@CAnalysisData@@QBE?AVCCoordinateCalculatorData@@ABVCPoint@@@Z
_TEXT	SEGMENT
___$ReturnUdt$GSCopy$ = -120				; size = 4
$T2 = -116						; size = 4
$T3 = -112						; size = 96
__$ArrayPad$ = -16					; size = 4
__$EHRec$ = -12						; size = 12
___$ReturnUdt$ = 8					; size = 4
_point$ = 12						; size = 4
?GetCoordinateCalculatorData@CAnalysisData@@QBE?AVCCoordinateCalculatorData@@ABVCPoint@@@Z PROC ; CAnalysisData::GetCoordinateCalculatorData, COMDAT
; _this$ = ecx

; 227  : {

  00000	55		 push	 ebp
  00001	8b ec		 mov	 ebp, esp
  00003	6a ff		 push	 -1
  00005	68 00 00 00 00	 push	 __ehhandler$?GetCoordinateCalculatorData@CAnalysisData@@QBE?AVCCoordinateCalculatorData@@ABVCPoint@@@Z
  0000a	64 a1 00 00 00
	00		 mov	 eax, DWORD PTR fs:0
  00010	50		 push	 eax
  00011	83 ec 6c	 sub	 esp, 108		; 0000006cH
  00014	a1 00 00 00 00	 mov	 eax, DWORD PTR ___security_cookie
  00019	33 c5		 xor	 eax, ebp
  0001b	89 45 f0	 mov	 DWORD PTR __$ArrayPad$[ebp], eax
  0001e	53		 push	 ebx
  0001f	56		 push	 esi
  00020	57		 push	 edi
  00021	50		 push	 eax
  00022	8d 45 f4	 lea	 eax, DWORD PTR __$EHRec$[ebp]
  00025	64 a3 00 00 00
	00		 mov	 DWORD PTR fs:0, eax
  0002b	8b f9		 mov	 edi, ecx
  0002d	8b 75 08	 mov	 esi, DWORD PTR ___$ReturnUdt$[ebp]
  00030	8b 5d 0c	 mov	 ebx, DWORD PTR _point$[ebp]
  00033	89 75 88	 mov	 DWORD PTR ___$ReturnUdt$GSCopy$[ebp], esi
  00036	c7 45 8c 00 00
	00 00		 mov	 DWORD PTR $T2[ebp], 0

; 228  : 	if( m_pIChartManager == NULL) CCoordinateCalculatorData( NULL);

  0003d	8b 47 6c	 mov	 eax, DWORD PTR [edi+108]
  00040	c7 45 fc 00 00
	00 00		 mov	 DWORD PTR __$EHRec$[ebp+8], 0
  00047	85 c0		 test	 eax, eax
  00049	75 14		 jne	 SHORT $LN2@GetCoordin
  0004b	50		 push	 eax
  0004c	8d 4d 90	 lea	 ecx, DWORD PTR $T3[ebp]
  0004f	e8 00 00 00 00	 call	 ??0CCoordinateCalculatorData@@QAE@PAUIChartManager133101@@@Z ; CCoordinateCalculatorData::CCoordinateCalculatorData
  00054	8d 4d 90	 lea	 ecx, DWORD PTR $T3[ebp]
  00057	e8 00 00 00 00	 call	 ??1CCoordinateCalculatorData@@QAE@XZ ; CCoordinateCalculatorData::~CCoordinateCalculatorData
  0005c	8b 47 6c	 mov	 eax, DWORD PTR [edi+108]
$LN2@GetCoordin:

; 229  : 
; 230  : 	CCoordinateCalculatorData calData( m_pIChartManager);

  0005f	50		 push	 eax
  00060	8b ce		 mov	 ecx, esi
  00062	e8 00 00 00 00	 call	 ??0CCoordinateCalculatorData@@QAE@PAUIChartManager133101@@@Z ; CCoordinateCalculatorData::CCoordinateCalculatorData

; 231  : 	calData.GetCoordinateCalculatorData( point);
; 232  : 	return calData;

  00067	53		 push	 ebx
  00068	8b ce		 mov	 ecx, esi
  0006a	c7 45 fc 00 00
	00 00		 mov	 DWORD PTR __$EHRec$[ebp+8], 0
  00071	c7 45 8c 01 00
	00 00		 mov	 DWORD PTR $T2[ebp], 1
  00078	e8 00 00 00 00	 call	 ?GetCoordinateCalculatorData@CCoordinateCalculatorData@@QAEXABVCPoint@@@Z ; CCoordinateCalculatorData::GetCoordinateCalculatorData
  0007d	8b c6		 mov	 eax, esi

; 233  : }

  0007f	8b 4d f4	 mov	 ecx, DWORD PTR __$EHRec$[ebp]
  00082	64 89 0d 00 00
	00 00		 mov	 DWORD PTR fs:0, ecx
  00089	59		 pop	 ecx
  0008a	5f		 pop	 edi
  0008b	5e		 pop	 esi
  0008c	5b		 pop	 ebx
  0008d	8b 4d f0	 mov	 ecx, DWORD PTR __$ArrayPad$[ebp]
  00090	33 cd		 xor	 ecx, ebp
  00092	e8 00 00 00 00	 call	 @__security_check_cookie@4
  00097	8b e5		 mov	 esp, ebp
  00099	5d		 pop	 ebp
  0009a	c2 08 00	 ret	 8
_TEXT	ENDS
;	COMDAT text$x
text$x	SEGMENT
__unwindfunclet$?GetCoordinateCalculatorData@CAnalysisData@@QBE?AVCCoordinateCalculatorData@@ABVCPoint@@@Z$1:
  00000	8b 45 8c	 mov	 eax, DWORD PTR $T2[ebp]
  00003	83 e0 01	 and	 eax, 1
  00006	0f 84 0c 00 00
	00		 je	 $LN6@GetCoordin
  0000c	83 65 8c fe	 and	 DWORD PTR $T2[ebp], -2	; fffffffeH
  00010	8b 4d 88	 mov	 ecx, DWORD PTR ___$ReturnUdt$GSCopy$[ebp]
  00013	e9 00 00 00 00	 jmp	 ??1CCoordinateCalculatorData@@QAE@XZ ; CCoordinateCalculatorData::~CCoordinateCalculatorData
$LN6@GetCoordin:
  00018	c3		 ret	 0
  00019	cc		 int	 3
  0001a	cc		 int	 3
  0001b	cc		 int	 3
  0001c	cc		 int	 3
  0001d	cc		 int	 3
__ehhandler$?GetCoordinateCalculatorData@CAnalysisData@@QBE?AVCCoordinateCalculatorData@@ABVCPoint@@@Z:
  0001e	90		 npad	 1
  0001f	90		 npad	 1
  00020	8b 54 24 08	 mov	 edx, DWORD PTR [esp+8]
  00024	8d 42 0c	 lea	 eax, DWORD PTR [edx+12]
  00027	8b 4a 84	 mov	 ecx, DWORD PTR [edx-124]
  0002a	33 c8		 xor	 ecx, eax
  0002c	e8 00 00 00 00	 call	 @__security_check_cookie@4
  00031	8b 4a fc	 mov	 ecx, DWORD PTR [edx-4]
  00034	33 c8		 xor	 ecx, eax
  00036	e8 00 00 00 00	 call	 @__security_check_cookie@4
  0003b	b8 00 00 00 00	 mov	 eax, OFFSET __ehfuncinfo$?GetCoordinateCalculatorData@CAnalysisData@@QBE?AVCCoordinateCalculatorData@@ABVCPoint@@@Z
  00040	e9 00 00 00 00	 jmp	 ___CxxFrameHandler3
text$x	ENDS
?GetCoordinateCalculatorData@CAnalysisData@@QBE?AVCCoordinateCalculatorData@@ABVCPoint@@@Z ENDP ; CAnalysisData::GetCoordinateCalculatorData
; Function compile flags: /Ogtp
; File D:\git\src\IBK\IBK_DRFN\ProjSrc\SrcChartEx\ChartAddIn\ChartAnalysisToolAddIn\AnalysisTool\AnalysisData.cpp
; File D:\git\src\IBK\IBK_DRFN\ProjSrc\SrcChartEx\ChartAddIn\ChartAnalysisToolAddIn\Include_Chart\BlockBaseData.h
; File D:\git\src\IBK\IBK_DRFN\ProjSrc\SrcChartEx\ChartAddIn\ChartAnalysisToolAddIn\AnalysisTool\AnalysisData.cpp
;	COMDAT ?GetVertScaleType@CAnalysisData@@QBE_NABVCPoint@@AA_N1@Z
_TEXT	SEGMENT
_nRow$ = -12						; size = 4
_nColumn$ = -8						; size = 4
_nColumn$2 = -4						; size = 4
_nRow$3 = 8						; size = 4
_point$ = 8						; size = 4
_bIsLog$ = 12						; size = 4
_bIsInvert$ = 16					; size = 4
?GetVertScaleType@CAnalysisData@@QBE_NABVCPoint@@AA_N1@Z PROC ; CAnalysisData::GetVertScaleType, COMDAT
; _this$ = ecx

; 156  : {

  00000	55		 push	 ebp
  00001	8b ec		 mov	 ebp, esp
  00003	83 ec 0c	 sub	 esp, 12			; 0000000cH
  00006	56		 push	 esi
  00007	8b f1		 mov	 esi, ecx
  00009	57		 push	 edi

; 237  : 	if(m_pIChartManager == NULL)

  0000a	8b 4e 6c	 mov	 ecx, DWORD PTR [esi+108]
  0000d	85 c9		 test	 ecx, ecx
  0000f	0f 84 a4 00 00
	00		 je	 $LN20@GetVertSca

; 238  : 		return CBlockIndex();
; 239  : 
; 240  : 	CBlockIndex bi;
; 241  : 	int nRow, nColumn;
; 242  : 	if( m_pIChartManager->GetBlockIndex(point, nRow, nColumn))

  00015	8b 7d 08	 mov	 edi, DWORD PTR _point$[ebp]
  00018	8d 55 fc	 lea	 edx, DWORD PTR _nColumn$2[ebp]
  0001b	8b 01		 mov	 eax, DWORD PTR [ecx]
  0001d	52		 push	 edx
  0001e	8d 55 08	 lea	 edx, DWORD PTR _nRow$3[ebp]
  00021	52		 push	 edx
  00022	ff 77 04	 push	 DWORD PTR [edi+4]
  00025	ff 37		 push	 DWORD PTR [edi]
  00027	ff 90 8c 00 00
	00		 call	 DWORD PTR [eax+140]
  0002d	85 c0		 test	 eax, eax
  0002f	0f 84 84 00 00
	00		 je	 $LN20@GetVertSca
; File D:\git\src\IBK\IBK_DRFN\ProjSrc\SrcChartEx\ChartAddIn\ChartAnalysisToolAddIn\Include_Chart\BlockBaseData.h

; 32   : 	bool IsAllValueBiggerThanZero() const { return (m_nRow >= 0 && m_nColumn >= 0); };

  00035	83 7d 08 00	 cmp	 DWORD PTR _nRow$3[ebp], 0
  00039	7c 7e		 jl	 SHORT $LN20@GetVertSca
  0003b	83 7d fc 00	 cmp	 DWORD PTR _nColumn$2[ebp], 0
  0003f	7c 78		 jl	 SHORT $LN20@GetVertSca
; File D:\git\src\IBK\IBK_DRFN\ProjSrc\SrcChartEx\ChartAddIn\ChartAnalysisToolAddIn\AnalysisTool\AnalysisData.cpp

; 162  : 	if( !m_pIChartManager->GetBlockIndex( point, nRow, nColumn)) return false;

  00041	8b 4e 6c	 mov	 ecx, DWORD PTR [esi+108]
  00044	8d 55 f8	 lea	 edx, DWORD PTR _nColumn$[ebp]
  00047	52		 push	 edx
  00048	8d 55 f4	 lea	 edx, DWORD PTR _nRow$[ebp]
  0004b	52		 push	 edx
  0004c	ff 77 04	 push	 DWORD PTR [edi+4]
  0004f	8b 01		 mov	 eax, DWORD PTR [ecx]
  00051	ff 37		 push	 DWORD PTR [edi]
  00053	ff 90 8c 00 00
	00		 call	 DWORD PTR [eax+140]
  00059	85 c0		 test	 eax, eax
  0005b	74 5c		 je	 SHORT $LN20@GetVertSca

; 163  : 
; 164  : 	IBlock *pIBlock = m_pIChartManager->GetBlock( nRow, nColumn);

  0005d	8b 4e 6c	 mov	 ecx, DWORD PTR [esi+108]
  00060	ff 75 f8	 push	 DWORD PTR _nColumn$[ebp]
  00063	ff 75 f4	 push	 DWORD PTR _nRow$[ebp]
  00066	8b 01		 mov	 eax, DWORD PTR [ecx]
  00068	ff 50 38	 call	 DWORD PTR [eax+56]
  0006b	8b f0		 mov	 esi, eax

; 165  : 	if( !pIBlock) return false;

  0006d	85 f6		 test	 esi, esi
  0006f	74 48		 je	 SHORT $LN20@GetVertSca

; 166  : 
; 167  : 	// (2008/2/26 - Seung-Won, Bae) Check invert type in first visible VScale
; 168  : 	bIsLog = ( pIBlock->IsLogScale() ? true : false);

  00071	8b 16		 mov	 edx, DWORD PTR [esi]
  00073	8b ce		 mov	 ecx, esi
  00075	53		 push	 ebx
  00076	ff 52 24	 call	 DWORD PTR [edx+36]

; 169  : 	bIsInvert = false;

  00079	8b 5d 10	 mov	 ebx, DWORD PTR _bIsInvert$[ebp]
  0007c	85 c0		 test	 eax, eax
  0007e	8b 45 0c	 mov	 eax, DWORD PTR _bIsLog$[ebp]
  00081	0f 95 c1	 setne	 cl
  00084	88 08		 mov	 BYTE PTR [eax], cl

; 170  : 	int nIndex = pIBlock->GetFirstVisibleVScaleIndex();

  00086	8b ce		 mov	 ecx, esi
  00088	c6 03 00	 mov	 BYTE PTR [ebx], 0
  0008b	8b 06		 mov	 eax, DWORD PTR [esi]
  0008d	ff 50 40	 call	 DWORD PTR [eax+64]
  00090	8b f8		 mov	 edi, eax

; 171  : 	if( 0 <= nIndex) bIsInvert = ( pIBlock->IsVScaleInvert( nIndex) ? true : false);

  00092	85 ff		 test	 edi, edi
  00094	78 0f		 js	 SHORT $LN5@GetVertSca
  00096	8b 16		 mov	 edx, DWORD PTR [esi]
  00098	8b ce		 mov	 ecx, esi
  0009a	57		 push	 edi
  0009b	ff 52 58	 call	 DWORD PTR [edx+88]
  0009e	85 c0		 test	 eax, eax
  000a0	0f 95 c0	 setne	 al
  000a3	88 03		 mov	 BYTE PTR [ebx], al
$LN5@GetVertSca:

; 172  : 	pIBlock->Release();

  000a5	8b 06		 mov	 eax, DWORD PTR [esi]
  000a7	56		 push	 esi
  000a8	ff 50 08	 call	 DWORD PTR [eax+8]

; 173  : 	pIBlock = NULL;
; 174  : 
; 175  : 	return ( 0 <= nIndex);

  000ab	5b		 pop	 ebx
  000ac	85 ff		 test	 edi, edi
  000ae	5f		 pop	 edi
  000af	0f 99 c0	 setns	 al

; 176  : }

  000b2	5e		 pop	 esi
  000b3	8b e5		 mov	 esp, ebp
  000b5	5d		 pop	 ebp
  000b6	c2 0c 00	 ret	 12			; 0000000cH
$LN20@GetVertSca:
  000b9	5f		 pop	 edi

; 165  : 	if( !pIBlock) return false;

  000ba	32 c0		 xor	 al, al

; 176  : }

  000bc	5e		 pop	 esi
  000bd	8b e5		 mov	 esp, ebp
  000bf	5d		 pop	 ebp
  000c0	c2 0c 00	 ret	 12			; 0000000cH
?GetVertScaleType@CAnalysisData@@QBE_NABVCPoint@@AA_N1@Z ENDP ; CAnalysisData::GetVertScaleType
_TEXT	ENDS
; Function compile flags: /Ogtp
; File D:\git\src\IBK\IBK_DRFN\ProjSrc\SrcChartEx\ChartAddIn\ChartAnalysisToolAddIn\AnalysisTool\AnalysisData.cpp
; File C:\Program Files (x86)\Microsoft Visual Studio\2019\Community\VC\Tools\MSVC\14.29.30133\atlmfc\include\atltypes.h
; File D:\git\src\IBK\IBK_DRFN\ProjSrc\SrcChartEx\ChartAddIn\ChartAnalysisToolAddIn\AnalysisTool\AnalysisData.cpp
; File C:\Program Files (x86)\Microsoft Visual Studio\2019\Community\VC\Tools\MSVC\14.29.30133\atlmfc\include\atltypes.h
; File D:\git\src\IBK\IBK_DRFN\ProjSrc\SrcChartEx\ChartAddIn\ChartAnalysisToolAddIn\AnalysisTool\AnalysisData.cpp
; File C:\Program Files (x86)\Microsoft Visual Studio\2019\Community\VC\Tools\MSVC\14.29.30133\atlmfc\include\atltypes.h
; File D:\git\src\IBK\IBK_DRFN\ProjSrc\SrcChartEx\ChartAddIn\ChartAnalysisToolAddIn\AnalysisTool\AnalysisData.cpp
; File C:\Program Files (x86)\Microsoft Visual Studio\2019\Community\VC\Tools\MSVC\14.29.30133\atlmfc\include\atltypes.h
; File D:\git\src\IBK\IBK_DRFN\ProjSrc\SrcChartEx\ChartAddIn\ChartAnalysisToolAddIn\AnalysisTool\AnalysisData.cpp
; File C:\Program Files (x86)\Microsoft Visual Studio\2019\Community\VC\Tools\MSVC\14.29.30133\atlmfc\include\atltypes.h
; File D:\git\src\IBK\IBK_DRFN\ProjSrc\SrcChartEx\ChartAddIn\ChartAnalysisToolAddIn\AnalysisTool\AnalysisData.cpp
;	COMDAT ?GetHorzScaleRegion@CAnalysisData@@QAE_NAAVCRect@@0@Z
_TEXT	SEGMENT
_nColCount$1$ = -60					; size = 4
_rcBottom$GSCopy$1$ = -56				; size = 4
_rcTop$GSCopy$1$ = -52					; size = 4
_nRowCount$1$ = -48					; size = 4
_this$GSCopy$1$ = -44					; size = 4
_i$1$ = -40						; size = 4
_rcBottomTemp$ = -36					; size = 16
_rcTopTemp$ = -20					; size = 16
__$ArrayPad$ = -4					; size = 4
_rcTop$ = 8						; size = 4
_rcBottom$ = 12						; size = 4
?GetHorzScaleRegion@CAnalysisData@@QAE_NAAVCRect@@0@Z PROC ; CAnalysisData::GetHorzScaleRegion, COMDAT
; _this$ = ecx

; 193  : {

  00000	55		 push	 ebp
  00001	8b ec		 mov	 ebp, esp
  00003	83 ec 3c	 sub	 esp, 60			; 0000003cH
  00006	a1 00 00 00 00	 mov	 eax, DWORD PTR ___security_cookie
  0000b	33 c5		 xor	 eax, ebp
  0000d	89 45 fc	 mov	 DWORD PTR __$ArrayPad$[ebp], eax
  00010	8b 45 08	 mov	 eax, DWORD PTR _rcTop$[ebp]
  00013	53		 push	 ebx
  00014	8b 5d 0c	 mov	 ebx, DWORD PTR _rcBottom$[ebp]
  00017	57		 push	 edi
  00018	8b f9		 mov	 edi, ecx
  0001a	89 45 cc	 mov	 DWORD PTR _rcTop$GSCopy$1$[ebp], eax
  0001d	89 7d d4	 mov	 DWORD PTR _this$GSCopy$1$[ebp], edi
  00020	89 5d c8	 mov	 DWORD PTR _rcBottom$GSCopy$1$[ebp], ebx

; 194  : 	if(m_pIChartManager == NULL)

  00023	83 7f 6c 00	 cmp	 DWORD PTR [edi+108], 0
  00027	75 14		 jne	 SHORT $LN8@GetHorzSca

; 195  : 		return false;

  00029	5f		 pop	 edi
  0002a	32 c0		 xor	 al, al

; 217  : 			{
; 218  : 				rcBottom.CopyRect(rcBottomTemp);
; 219  : 			}
; 220  : 		}
; 221  : 	}	
; 222  : 	
; 223  : 	return true;
; 224  : }

  0002c	5b		 pop	 ebx
  0002d	8b 4d fc	 mov	 ecx, DWORD PTR __$ArrayPad$[ebp]
  00030	33 cd		 xor	 ecx, ebp
  00032	e8 00 00 00 00	 call	 @__security_check_cookie@4
  00037	8b e5		 mov	 esp, ebp
  00039	5d		 pop	 ebp
  0003a	c2 08 00	 ret	 8
$LN8@GetHorzSca:
  0003d	56		 push	 esi
; File C:\Program Files (x86)\Microsoft Visual Studio\2019\Community\VC\Tools\MSVC\14.29.30133\atlmfc\include\atltypes.h

; 669  : 	::SetRectEmpty(this);

  0003e	8b 35 00 00 00
	00		 mov	 esi, DWORD PTR __imp__SetRectEmpty@4
  00044	50		 push	 eax
  00045	ff d6		 call	 esi
  00047	53		 push	 ebx
  00048	ff d6		 call	 esi
; File D:\git\src\IBK\IBK_DRFN\ProjSrc\SrcChartEx\ChartAddIn\ChartAnalysisToolAddIn\AnalysisTool\AnalysisData.cpp

; 201  : 	int nRowCount = m_pIChartManager->GetRowCount();

  0004a	8b 4f 6c	 mov	 ecx, DWORD PTR [edi+108]
; File C:\Program Files (x86)\Microsoft Visual Studio\2019\Community\VC\Tools\MSVC\14.29.30133\atlmfc\include\atltypes.h

; 528  : 	left = 0;

  0004d	c7 45 ec 00 00
	00 00		 mov	 DWORD PTR _rcTopTemp$[ebp], 0
  00054	c7 45 dc 00 00
	00 00		 mov	 DWORD PTR _rcBottomTemp$[ebp], 0
  0005b	c7 45 f0 00 00
	00 00		 mov	 DWORD PTR _rcTopTemp$[ebp+4], 0
  00062	c7 45 e0 00 00
	00 00		 mov	 DWORD PTR _rcBottomTemp$[ebp+4], 0
  00069	c7 45 f4 00 00
	00 00		 mov	 DWORD PTR _rcTopTemp$[ebp+8], 0
  00070	c7 45 e4 00 00
	00 00		 mov	 DWORD PTR _rcBottomTemp$[ebp+8], 0
  00077	c7 45 f8 00 00
	00 00		 mov	 DWORD PTR _rcTopTemp$[ebp+12], 0
  0007e	c7 45 e8 00 00
	00 00		 mov	 DWORD PTR _rcBottomTemp$[ebp+12], 0
; File D:\git\src\IBK\IBK_DRFN\ProjSrc\SrcChartEx\ChartAddIn\ChartAnalysisToolAddIn\AnalysisTool\AnalysisData.cpp

; 201  : 	int nRowCount = m_pIChartManager->GetRowCount();

  00085	8b 01		 mov	 eax, DWORD PTR [ecx]
  00087	ff 50 1c	 call	 DWORD PTR [eax+28]

; 202  : 	int nColCount = m_pIChartManager->GetColumnCount();

  0008a	8b 4f 6c	 mov	 ecx, DWORD PTR [edi+108]
  0008d	8b d8		 mov	 ebx, eax
  0008f	89 5d d0	 mov	 DWORD PTR _nRowCount$1$[ebp], ebx
  00092	8b 11		 mov	 edx, DWORD PTR [ecx]
  00094	ff 52 20	 call	 DWORD PTR [edx+32]
  00097	33 d2		 xor	 edx, edx
  00099	89 45 c4	 mov	 DWORD PTR _nColCount$1$[ebp], eax
  0009c	89 55 d8	 mov	 DWORD PTR _i$1$[ebp], edx

; 203  : 	for(int i=0;i<nRowCount;i++)

  0009f	85 db		 test	 ebx, ebx
  000a1	7e 79		 jle	 SHORT $LN3@GetHorzSca
  000a3	8b 1d 00 00 00
	00		 mov	 ebx, DWORD PTR __imp__CopyRect@8
  000a9	8b 4d d0	 mov	 ecx, DWORD PTR _nRowCount$1$[ebp]
  000ac	0f 1f 40 00	 npad	 4
$LL4@GetHorzSca:

; 205  : 		for(int j=0;j<nColCount;j++)

  000b0	33 f6		 xor	 esi, esi
  000b2	85 c0		 test	 eax, eax
  000b4	7e 5e		 jle	 SHORT $LN2@GetHorzSca
$LL7@GetHorzSca:

; 206  : 		{
; 207  : 			IBlock *pBlock = m_pIChartManager->GetBlock(i,j);

  000b6	8b 4f 6c	 mov	 ecx, DWORD PTR [edi+108]
  000b9	56		 push	 esi
  000ba	52		 push	 edx
  000bb	8b 01		 mov	 eax, DWORD PTR [ecx]
  000bd	ff 50 38	 call	 DWORD PTR [eax+56]
  000c0	8b f8		 mov	 edi, eax

; 208  : 			pBlock->GetHorzScaleRegion(rcTopTemp,rcBottomTemp);	

  000c2	8d 45 dc	 lea	 eax, DWORD PTR _rcBottomTemp$[ebp]
  000c5	50		 push	 eax
  000c6	8d 45 ec	 lea	 eax, DWORD PTR _rcTopTemp$[ebp]
  000c9	8b cf		 mov	 ecx, edi
  000cb	50		 push	 eax
  000cc	8b 17		 mov	 edx, DWORD PTR [edi]
  000ce	ff 52 14	 call	 DWORD PTR [edx+20]

; 209  : 			pBlock->Release();

  000d1	8b 0f		 mov	 ecx, DWORD PTR [edi]
  000d3	57		 push	 edi
  000d4	ff 51 08	 call	 DWORD PTR [ecx+8]
; File C:\Program Files (x86)\Microsoft Visual Studio\2019\Community\VC\Tools\MSVC\14.29.30133\atlmfc\include\atltypes.h

; 638  : 	return ::IsRectEmpty(this);

  000d7	8b 3d 00 00 00
	00		 mov	 edi, DWORD PTR __imp__IsRectEmpty@4
  000dd	8d 45 ec	 lea	 eax, DWORD PTR _rcTopTemp$[ebp]
  000e0	50		 push	 eax
  000e1	ff d7		 call	 edi
; File D:\git\src\IBK\IBK_DRFN\ProjSrc\SrcChartEx\ChartAddIn\ChartAnalysisToolAddIn\AnalysisTool\AnalysisData.cpp

; 211  : 			if(rcTopTemp.IsRectEmpty() == FALSE)

  000e3	85 c0		 test	 eax, eax
  000e5	75 09		 jne	 SHORT $LN9@GetHorzSca
; File C:\Program Files (x86)\Microsoft Visual Studio\2019\Community\VC\Tools\MSVC\14.29.30133\atlmfc\include\atltypes.h

; 674  : 	::CopyRect(this, lpSrcRect);

  000e7	8d 45 ec	 lea	 eax, DWORD PTR _rcTopTemp$[ebp]
  000ea	50		 push	 eax
  000eb	ff 75 cc	 push	 DWORD PTR _rcTop$GSCopy$1$[ebp]
  000ee	ff d3		 call	 ebx
$LN9@GetHorzSca:

; 638  : 	return ::IsRectEmpty(this);

  000f0	8d 45 dc	 lea	 eax, DWORD PTR _rcBottomTemp$[ebp]
  000f3	50		 push	 eax
  000f4	ff d7		 call	 edi
; File D:\git\src\IBK\IBK_DRFN\ProjSrc\SrcChartEx\ChartAddIn\ChartAnalysisToolAddIn\AnalysisTool\AnalysisData.cpp

; 216  : 			if(rcBottomTemp.IsRectEmpty() == FALSE)

  000f6	85 c0		 test	 eax, eax
  000f8	75 09		 jne	 SHORT $LN5@GetHorzSca
; File C:\Program Files (x86)\Microsoft Visual Studio\2019\Community\VC\Tools\MSVC\14.29.30133\atlmfc\include\atltypes.h

; 674  : 	::CopyRect(this, lpSrcRect);

  000fa	8d 45 dc	 lea	 eax, DWORD PTR _rcBottomTemp$[ebp]
  000fd	50		 push	 eax
  000fe	ff 75 c8	 push	 DWORD PTR _rcBottom$GSCopy$1$[ebp]
  00101	ff d3		 call	 ebx
$LN5@GetHorzSca:
; File D:\git\src\IBK\IBK_DRFN\ProjSrc\SrcChartEx\ChartAddIn\ChartAnalysisToolAddIn\AnalysisTool\AnalysisData.cpp

; 205  : 		for(int j=0;j<nColCount;j++)

  00103	8b 45 c4	 mov	 eax, DWORD PTR _nColCount$1$[ebp]
  00106	46		 inc	 esi
  00107	8b 55 d8	 mov	 edx, DWORD PTR _i$1$[ebp]
  0010a	8b 7d d4	 mov	 edi, DWORD PTR _this$GSCopy$1$[ebp]
  0010d	3b f0		 cmp	 esi, eax
  0010f	7c a5		 jl	 SHORT $LL7@GetHorzSca
  00111	8b 4d d0	 mov	 ecx, DWORD PTR _nRowCount$1$[ebp]
$LN2@GetHorzSca:

; 203  : 	for(int i=0;i<nRowCount;i++)

  00114	42		 inc	 edx
  00115	89 55 d8	 mov	 DWORD PTR _i$1$[ebp], edx
  00118	3b d1		 cmp	 edx, ecx
  0011a	7c 94		 jl	 SHORT $LL4@GetHorzSca
$LN3@GetHorzSca:

; 217  : 			{
; 218  : 				rcBottom.CopyRect(rcBottomTemp);
; 219  : 			}
; 220  : 		}
; 221  : 	}	
; 222  : 	
; 223  : 	return true;
; 224  : }

  0011c	8b 4d fc	 mov	 ecx, DWORD PTR __$ArrayPad$[ebp]
  0011f	b0 01		 mov	 al, 1
  00121	5e		 pop	 esi
  00122	5f		 pop	 edi
  00123	33 cd		 xor	 ecx, ebp
  00125	5b		 pop	 ebx
  00126	e8 00 00 00 00	 call	 @__security_check_cookie@4
  0012b	8b e5		 mov	 esp, ebp
  0012d	5d		 pop	 ebp
  0012e	c2 08 00	 ret	 8
?GetHorzScaleRegion@CAnalysisData@@QAE_NAAVCRect@@0@Z ENDP ; CAnalysisData::GetHorzScaleRegion
_TEXT	ENDS
; Function compile flags: /Ogtp
; File D:\git\src\IBK\IBK_DRFN\ProjSrc\SrcChartEx\ChartAddIn\ChartAnalysisToolAddIn\AnalysisTool\AnalysisData.cpp
; File C:\Program Files (x86)\Microsoft Visual Studio\2019\Community\VC\Tools\MSVC\14.29.30133\atlmfc\include\atltypes.h
; File D:\git\src\IBK\IBK_DRFN\ProjSrc\SrcChartEx\ChartAddIn\ChartAnalysisToolAddIn\AnalysisTool\AnalysisData.cpp
;	COMDAT ?GetVertScaleRegion@CAnalysisData@@QAE_NAAVCRect@@0@Z
_TEXT	SEGMENT
_this$1$ = -4						; size = 4
_rcLeft$ = 8						; size = 4
_rcRight$ = 12						; size = 4
?GetVertScaleRegion@CAnalysisData@@QAE_NAAVCRect@@0@Z PROC ; CAnalysisData::GetVertScaleRegion, COMDAT
; _this$ = ecx

; 179  : {

  00000	55		 push	 ebp
  00001	8b ec		 mov	 ebp, esp
  00003	51		 push	 ecx
  00004	8b c1		 mov	 eax, ecx
  00006	89 45 fc	 mov	 DWORD PTR _this$1$[ebp], eax

; 180  : 	if(m_pIChartManager == NULL)

  00009	83 78 6c 00	 cmp	 DWORD PTR [eax+108], 0
  0000d	75 08		 jne	 SHORT $LN2@GetVertSca

; 181  : 		return false;

  0000f	32 c0		 xor	 al, al

; 190  : }

  00011	8b e5		 mov	 esp, ebp
  00013	5d		 pop	 ebp
  00014	c2 08 00	 ret	 8
$LN2@GetVertSca:
  00017	56		 push	 esi
; File C:\Program Files (x86)\Microsoft Visual Studio\2019\Community\VC\Tools\MSVC\14.29.30133\atlmfc\include\atltypes.h

; 669  : 	::SetRectEmpty(this);

  00018	ff 75 08	 push	 DWORD PTR _rcLeft$[ebp]
  0001b	8b 35 00 00 00
	00		 mov	 esi, DWORD PTR __imp__SetRectEmpty@4
  00021	ff d6		 call	 esi
  00023	ff 75 0c	 push	 DWORD PTR _rcRight$[ebp]
  00026	ff d6		 call	 esi
; File D:\git\src\IBK\IBK_DRFN\ProjSrc\SrcChartEx\ChartAddIn\ChartAnalysisToolAddIn\AnalysisTool\AnalysisData.cpp

; 185  : 	IBlock *pBlock = m_pIChartManager->GetBlock(0,0);

  00028	8b 45 fc	 mov	 eax, DWORD PTR _this$1$[ebp]
  0002b	6a 00		 push	 0
  0002d	6a 00		 push	 0
  0002f	8b 48 6c	 mov	 ecx, DWORD PTR [eax+108]
  00032	8b 01		 mov	 eax, DWORD PTR [ecx]
  00034	ff 50 38	 call	 DWORD PTR [eax+56]

; 186  : 	pBlock->GetVertScaleRegion(rcLeft,rcRight);	

  00037	ff 75 0c	 push	 DWORD PTR _rcRight$[ebp]
  0003a	8b f0		 mov	 esi, eax
  0003c	ff 75 08	 push	 DWORD PTR _rcLeft$[ebp]
  0003f	8b ce		 mov	 ecx, esi
  00041	8b 16		 mov	 edx, DWORD PTR [esi]
  00043	ff 52 18	 call	 DWORD PTR [edx+24]

; 187  : 	pBlock->Release();

  00046	8b 0e		 mov	 ecx, DWORD PTR [esi]
  00048	56		 push	 esi
  00049	ff 51 08	 call	 DWORD PTR [ecx+8]

; 188  : 
; 189  : 	return true;

  0004c	b0 01		 mov	 al, 1
  0004e	5e		 pop	 esi

; 190  : }

  0004f	8b e5		 mov	 esp, ebp
  00051	5d		 pop	 ebp
  00052	c2 08 00	 ret	 8
?GetVertScaleRegion@CAnalysisData@@QAE_NAAVCRect@@0@Z ENDP ; CAnalysisData::GetVertScaleRegion
_TEXT	ENDS
; Function compile flags: /Ogtp
; File D:\git\src\IBK\IBK_DRFN\ProjSrc\SrcChartEx\ChartAddIn\ChartAnalysisToolAddIn\AnalysisTool\AnalysisData.cpp
;	COMDAT ?GetDisplayAttributes@CAnalysisData@@QBE?AVCDisplayAttributes@@XZ
_TEXT	SEGMENT
_nDataEndInBlock$ = -4					; size = 4
_nDataStartInBlock$ = 8					; size = 4
___$ReturnUdt$ = 8					; size = 4
?GetDisplayAttributes@CAnalysisData@@QBE?AVCDisplayAttributes@@XZ PROC ; CAnalysisData::GetDisplayAttributes, COMDAT
; _this$ = ecx

; 144  : {

  00000	55		 push	 ebp
  00001	8b ec		 mov	 ebp, esp
  00003	51		 push	 ecx

; 145  : 	if(m_pIChartManager == NULL)

  00004	8b 49 6c	 mov	 ecx, DWORD PTR [ecx+108]
  00007	56		 push	 esi
  00008	8b 75 08	 mov	 esi, DWORD PTR ___$ReturnUdt$[ebp]
  0000b	85 c9		 test	 ecx, ecx
  0000d	75 0e		 jne	 SHORT $LN2@GetDisplay

; 584  : 	m_nDataStartInBlock(0),

  0000f	89 0e		 mov	 DWORD PTR [esi], ecx

; 152  : 	return CDisplayAttributes(nDataStartInBlock, nDataEndInBlock);
; 153  : }

  00011	8b c6		 mov	 eax, esi

; 585  : 	m_nDataEndInBlock(0)

  00013	89 4e 04	 mov	 DWORD PTR [esi+4], ecx
  00016	5e		 pop	 esi

; 152  : 	return CDisplayAttributes(nDataStartInBlock, nDataEndInBlock);
; 153  : }

  00017	8b e5		 mov	 esp, ebp
  00019	5d		 pop	 ebp
  0001a	c2 04 00	 ret	 4
$LN2@GetDisplay:

; 146  : 		return CDisplayAttributes();
; 147  : 
; 148  : 	int nDataStartInBlock = 0, nDataEndInBlock = 0;
; 149  : 	// XScale :  /   - vntsorl(20070327)
; 150  : //	m_pIChartManager->GetDataIndexRangeInView( nDataStartInBlock, nDataEndInBlock);
; 151  : 	m_pIChartManager->GetStartEndDrawIdx_Cur("DEFAULT", nDataStartInBlock, nDataEndInBlock);

  0001d	8d 55 fc	 lea	 edx, DWORD PTR _nDataEndInBlock$[ebp]
  00020	c7 45 08 00 00
	00 00		 mov	 DWORD PTR _nDataStartInBlock$[ebp], 0
  00027	52		 push	 edx
  00028	c7 45 fc 00 00
	00 00		 mov	 DWORD PTR _nDataEndInBlock$[ebp], 0
  0002f	8d 55 08	 lea	 edx, DWORD PTR _nDataStartInBlock$[ebp]
  00032	8b 01		 mov	 eax, DWORD PTR [ecx]
  00034	52		 push	 edx
  00035	68 00 00 00 00	 push	 OFFSET ??_C@_07MGCPDNLD@DEFAULT@
  0003a	ff 90 e0 00 00
	00		 call	 DWORD PTR [eax+224]

; 590  : 	m_nDataStartInBlock(start),

  00040	8b 45 08	 mov	 eax, DWORD PTR _nDataStartInBlock$[ebp]
  00043	89 06		 mov	 DWORD PTR [esi], eax

; 591  : 	m_nDataEndInBlock(end)

  00045	8b 45 fc	 mov	 eax, DWORD PTR _nDataEndInBlock$[ebp]
  00048	89 46 04	 mov	 DWORD PTR [esi+4], eax

; 152  : 	return CDisplayAttributes(nDataStartInBlock, nDataEndInBlock);
; 153  : }

  0004b	8b c6		 mov	 eax, esi
  0004d	5e		 pop	 esi
  0004e	8b e5		 mov	 esp, ebp
  00050	5d		 pop	 ebp
  00051	c2 04 00	 ret	 4
?GetDisplayAttributes@CAnalysisData@@QBE?AVCDisplayAttributes@@XZ ENDP ; CAnalysisData::GetDisplayAttributes
_TEXT	ENDS
; Function compile flags: /Ogtp
; File D:\git\src\IBK\IBK_DRFN\ProjSrc\SrcChartEx\ChartAddIn\ChartAnalysisToolAddIn\AnalysisTool\AnalysisData.cpp
;	COMDAT ?UnRegisterElementToOrderManager@CAnalysisData@@QAEXJ@Z
_TEXT	SEGMENT
_lElementAdress$ = 8					; size = 4
?UnRegisterElementToOrderManager@CAnalysisData@@QAEXJ@Z PROC ; CAnalysisData::UnRegisterElementToOrderManager, COMDAT
; _this$ = ecx

; 373  : {	

  00000	55		 push	 ebp
  00001	8b ec		 mov	 ebp, esp

; 374  : 	IAddInToolMgr* pAddInToolManager = m_pIChartOCX->GetIAddInToolMgr();

  00003	8b 49 70	 mov	 ecx, DWORD PTR [ecx+112]
  00006	56		 push	 esi
  00007	8b 01		 mov	 eax, DWORD PTR [ecx]
  00009	ff 50 28	 call	 DWORD PTR [eax+40]

; 375  : 	pAddInToolManager->OnAddInToolCommand(EAI_TOOLORDERMGR_DELETE_TOOL_FROM_ORDERMANAGER,

  0000c	ff 75 08	 push	 DWORD PTR _lElementAdress$[ebp]
  0000f	8b f0		 mov	 esi, eax
  00011	ff 35 00 00 00
	00		 push	 DWORD PTR ?m_strAddInItemName@CAnalysisData@@2V?$CStringT@DV?$StrTraitMFC_DLL@DV?$ChTraitsCRT@D@ATL@@@@@ATL@@A ; CAnalysisData::m_strAddInItemName
  00017	8b ce		 mov	 ecx, esi
  00019	6a 32		 push	 50			; 00000032H
  0001b	8b 16		 mov	 edx, DWORD PTR [esi]
  0001d	ff 92 a0 00 00
	00		 call	 DWORD PTR [edx+160]

; 376  : 															m_strAddInItemName,lElementAdress);
; 377  : 	pAddInToolManager->Release();

  00023	8b 06		 mov	 eax, DWORD PTR [esi]
  00025	56		 push	 esi
  00026	ff 50 08	 call	 DWORD PTR [eax+8]
  00029	5e		 pop	 esi

; 378  : }

  0002a	5d		 pop	 ebp
  0002b	c2 04 00	 ret	 4
?UnRegisterElementToOrderManager@CAnalysisData@@QAEXJ@Z ENDP ; CAnalysisData::UnRegisterElementToOrderManager
_TEXT	ENDS
; Function compile flags: /Ogtp
; File D:\git\src\IBK\IBK_DRFN\ProjSrc\SrcChartEx\ChartAddIn\ChartAnalysisToolAddIn\AnalysisTool\AnalysisData.cpp
;	COMDAT ?RegisterElementToOrderManager@CAnalysisData@@QAEXJ@Z
_TEXT	SEGMENT
_lElementAdress$ = 8					; size = 4
?RegisterElementToOrderManager@CAnalysisData@@QAEXJ@Z PROC ; CAnalysisData::RegisterElementToOrderManager, COMDAT
; _this$ = ecx

; 362  : {	

  00000	55		 push	 ebp
  00001	8b ec		 mov	 ebp, esp

; 363  : 	if(lElementAdress == 0)

  00003	83 7d 08 00	 cmp	 DWORD PTR _lElementAdress$[ebp], 0
  00007	74 27		 je	 SHORT $LN1@RegisterEl

; 364  : 		return;	
; 365  : 	
; 366  : 	IAddInToolMgr* pAddInToolManager = m_pIChartOCX->GetIAddInToolMgr();

  00009	8b 49 70	 mov	 ecx, DWORD PTR [ecx+112]
  0000c	56		 push	 esi
  0000d	8b 01		 mov	 eax, DWORD PTR [ecx]
  0000f	ff 50 28	 call	 DWORD PTR [eax+40]

; 367  : 	pAddInToolManager->OnAddInToolCommand(EAI_TOOLORDERMGR_ADD_TOOL_TO_ORDERMANAGER,

  00012	ff 75 08	 push	 DWORD PTR _lElementAdress$[ebp]
  00015	8b f0		 mov	 esi, eax
  00017	ff 35 00 00 00
	00		 push	 DWORD PTR ?m_strAddInItemName@CAnalysisData@@2V?$CStringT@DV?$StrTraitMFC_DLL@DV?$ChTraitsCRT@D@ATL@@@@@ATL@@A ; CAnalysisData::m_strAddInItemName
  0001d	8b ce		 mov	 ecx, esi
  0001f	6a 31		 push	 49			; 00000031H
  00021	8b 16		 mov	 edx, DWORD PTR [esi]
  00023	ff 92 a0 00 00
	00		 call	 DWORD PTR [edx+160]

; 368  : 															m_strAddInItemName,lElementAdress);
; 369  : 	pAddInToolManager->Release();

  00029	8b 0e		 mov	 ecx, DWORD PTR [esi]
  0002b	56		 push	 esi
  0002c	ff 51 08	 call	 DWORD PTR [ecx+8]
  0002f	5e		 pop	 esi
$LN1@RegisterEl:

; 370  : }

  00030	5d		 pop	 ebp
  00031	c2 04 00	 ret	 4
?RegisterElementToOrderManager@CAnalysisData@@QAEXJ@Z ENDP ; CAnalysisData::RegisterElementToOrderManager
_TEXT	ENDS
; Function compile flags: /Ogtp
; File D:\git\src\IBK\IBK_DRFN\ProjSrc\SrcChartEx\ChartAddIn\ChartAnalysisToolAddIn\AnalysisTool\AnalysisData.cpp
; File D:\git\src\IBK\IBK_DRFN\ProjSrc\SrcChartEx\ChartAddIn\ChartAnalysisToolAddIn\Include_AddIn_133101\I133101\_IString.h
; File D:\git\src\IBK\IBK_DRFN\ProjSrc\SrcChartEx\ChartAddIn\ChartAnalysisToolAddIn\AnalysisTool\AnalysisData.cpp
; File D:\git\src\IBK\IBK_DRFN\ProjSrc\SrcChartEx\ChartAddIn\ChartAnalysisToolAddIn\Include_AddIn_133101\I133101\_IString.h
; File D:\git\src\IBK\IBK_DRFN\ProjSrc\SrcChartEx\ChartAddIn\ChartAnalysisToolAddIn\AnalysisTool\AnalysisData.cpp
;	COMDAT ?GetUserPath@CAnalysisData@@QBE?AV?$CStringT@DV?$StrTraitMFC_DLL@DV?$ChTraitsCRT@D@ATL@@@@@ATL@@XZ
_TEXT	SEGMENT
_szUserFilePath$ = -20					; size = 8
__$EHRec$ = -12						; size = 12
___$ReturnUdt$ = 8					; size = 4
?GetUserPath@CAnalysisData@@QBE?AV?$CStringT@DV?$StrTraitMFC_DLL@DV?$ChTraitsCRT@D@ATL@@@@@ATL@@XZ PROC ; CAnalysisData::GetUserPath, COMDAT
; _this$ = ecx

; 137  : {

  00000	55		 push	 ebp
  00001	8b ec		 mov	 ebp, esp
  00003	6a ff		 push	 -1
  00005	68 00 00 00 00	 push	 __ehhandler$?GetUserPath@CAnalysisData@@QBE?AV?$CStringT@DV?$StrTraitMFC_DLL@DV?$ChTraitsCRT@D@ATL@@@@@ATL@@XZ
  0000a	64 a1 00 00 00
	00		 mov	 eax, DWORD PTR fs:0
  00010	50		 push	 eax
  00011	83 ec 08	 sub	 esp, 8
  00014	56		 push	 esi
  00015	a1 00 00 00 00	 mov	 eax, DWORD PTR ___security_cookie
  0001a	33 c5		 xor	 eax, ebp
  0001c	50		 push	 eax
  0001d	8d 45 f4	 lea	 eax, DWORD PTR __$EHRec$[ebp]
  00020	64 a3 00 00 00
	00		 mov	 DWORD PTR fs:0, eax

; 138  : 	if(m_pIChartOCX == NULL) return "";

  00026	8b 49 70	 mov	 ecx, DWORD PTR [ecx+112]
  00029	85 c9		 test	 ecx, ecx
  0002b	75 10		 jne	 SHORT $LN2@GetUserPat
  0002d	8b 4d 08	 mov	 ecx, DWORD PTR ___$ReturnUdt$[ebp]
  00030	68 00 00 00 00	 push	 OFFSET ??_C@_00CNPNBAHC@@
  00035	ff 15 00 00 00
	00		 call	 DWORD PTR __imp_??0?$CStringT@DV?$StrTraitMFC_DLL@DV?$ChTraitsCRT@D@ATL@@@@@ATL@@QAE@PBD@Z
  0003b	eb 3e		 jmp	 SHORT $LN12@GetUserPat
$LN2@GetUserPat:

; 139  : 	ILPCSTR szUserFilePath = m_pIChartOCX->GetUserFilePathString();

  0003d	8b 01		 mov	 eax, DWORD PTR [ecx]
  0003f	ff 50 64	 call	 DWORD PTR [eax+100]
; File D:\git\src\IBK\IBK_DRFN\ProjSrc\SrcChartEx\ChartAddIn\ChartAnalysisToolAddIn\Include_AddIn_133101\I133101\_IString.h

; 39   : 		m_pIStrData = p_pIString;	// Do not AddRef(). Because It must be Return Value.

  00042	8b f0		 mov	 esi, eax
  00044	89 75 f0	 mov	 DWORD PTR _szUserFilePath$[ebp+4], esi

; 40   : 		if( m_pIStrData) m_szData = m_pIStrData->GetData();

  00047	85 f6		 test	 esi, esi
  00049	74 09		 je	 SHORT $LN8@GetUserPat
  0004b	8b 16		 mov	 edx, DWORD PTR [esi]
  0004d	8b ce		 mov	 ecx, esi
  0004f	ff 52 10	 call	 DWORD PTR [edx+16]
  00052	eb 02		 jmp	 SHORT $LN16@GetUserPat
$LN8@GetUserPat:

; 41   : 		else m_szData = NULL;

  00054	33 c0		 xor	 eax, eax
$LN16@GetUserPat:
; File D:\git\src\IBK\IBK_DRFN\ProjSrc\SrcChartEx\ChartAddIn\ChartAnalysisToolAddIn\AnalysisTool\AnalysisData.cpp

; 139  : 	ILPCSTR szUserFilePath = m_pIChartOCX->GetUserFilePathString();

  00056	89 45 ec	 mov	 DWORD PTR _szUserFilePath$[ebp], eax

; 140  : 	return CString( szUserFilePath);

  00059	8b 4d 08	 mov	 ecx, DWORD PTR ___$ReturnUdt$[ebp]
  0005c	50		 push	 eax
  0005d	c7 45 fc 00 00
	00 00		 mov	 DWORD PTR __$EHRec$[ebp+8], 0
  00064	ff 15 00 00 00
	00		 call	 DWORD PTR __imp_??0?$CStringT@DV?$StrTraitMFC_DLL@DV?$ChTraitsCRT@D@ATL@@@@@ATL@@QAE@PBD@Z
; File D:\git\src\IBK\IBK_DRFN\ProjSrc\SrcChartEx\ChartAddIn\ChartAnalysisToolAddIn\Include_AddIn_133101\I133101\_IString.h

; 44   : 	{

  0006a	c7 45 fc 01 00
	00 00		 mov	 DWORD PTR __$EHRec$[ebp+8], 1

; 45   : 		if( m_pIStrData)

  00071	85 f6		 test	 esi, esi
  00073	74 06		 je	 SHORT $LN12@GetUserPat

; 46   : 		{
; 47   : 			m_pIStrData->Release();

  00075	8b 0e		 mov	 ecx, DWORD PTR [esi]
  00077	56		 push	 esi
  00078	ff 51 08	 call	 DWORD PTR [ecx+8]
$LN12@GetUserPat:
; File D:\git\src\IBK\IBK_DRFN\ProjSrc\SrcChartEx\ChartAddIn\ChartAnalysisToolAddIn\AnalysisTool\AnalysisData.cpp

; 141  : }

  0007b	8b 45 08	 mov	 eax, DWORD PTR ___$ReturnUdt$[ebp]
  0007e	8b 4d f4	 mov	 ecx, DWORD PTR __$EHRec$[ebp]
  00081	64 89 0d 00 00
	00 00		 mov	 DWORD PTR fs:0, ecx
  00088	59		 pop	 ecx
  00089	5e		 pop	 esi
  0008a	8b e5		 mov	 esp, ebp
  0008c	5d		 pop	 ebp
  0008d	c2 04 00	 ret	 4
_TEXT	ENDS
;	COMDAT text$x
text$x	SEGMENT
__unwindfunclet$?GetUserPath@CAnalysisData@@QBE?AV?$CStringT@DV?$StrTraitMFC_DLL@DV?$ChTraitsCRT@D@ATL@@@@@ATL@@XZ$1:
  00000	8d 4d ec	 lea	 ecx, DWORD PTR _szUserFilePath$[ebp]
  00003	e9 00 00 00 00	 jmp	 ??1ILPCSTR133101@@QAE@XZ ; ILPCSTR133101::~ILPCSTR133101
  00008	cc		 int	 3
  00009	cc		 int	 3
  0000a	cc		 int	 3
  0000b	cc		 int	 3
  0000c	cc		 int	 3
__ehhandler$?GetUserPath@CAnalysisData@@QBE?AV?$CStringT@DV?$StrTraitMFC_DLL@DV?$ChTraitsCRT@D@ATL@@@@@ATL@@XZ:
  0000d	90		 npad	 1
  0000e	90		 npad	 1
  0000f	8b 54 24 08	 mov	 edx, DWORD PTR [esp+8]
  00013	8d 42 0c	 lea	 eax, DWORD PTR [edx+12]
  00016	8b 4a f0	 mov	 ecx, DWORD PTR [edx-16]
  00019	33 c8		 xor	 ecx, eax
  0001b	e8 00 00 00 00	 call	 @__security_check_cookie@4
  00020	b8 00 00 00 00	 mov	 eax, OFFSET __ehfuncinfo$?GetUserPath@CAnalysisData@@QBE?AV?$CStringT@DV?$StrTraitMFC_DLL@DV?$ChTraitsCRT@D@ATL@@@@@ATL@@XZ
  00025	e9 00 00 00 00	 jmp	 ___CxxFrameHandler3
text$x	ENDS
?GetUserPath@CAnalysisData@@QBE?AV?$CStringT@DV?$StrTraitMFC_DLL@DV?$ChTraitsCRT@D@ATL@@@@@ATL@@XZ ENDP ; CAnalysisData::GetUserPath
; Function compile flags: /Ogtp
; File D:\git\src\IBK\IBK_DRFN\ProjSrc\SrcChartEx\ChartAddIn\ChartAnalysisToolAddIn\AnalysisTool\AnalysisData.cpp
; File D:\git\src\IBK\IBK_DRFN\ProjSrc\SrcChartEx\ChartAddIn\ChartAnalysisToolAddIn\Include_AddIn_133101\I133101\_IString.h
; File D:\git\src\IBK\IBK_DRFN\ProjSrc\SrcChartEx\ChartAddIn\ChartAnalysisToolAddIn\AnalysisTool\AnalysisData.cpp
; File D:\git\src\IBK\IBK_DRFN\ProjSrc\SrcChartEx\ChartAddIn\ChartAnalysisToolAddIn\Include_AddIn_133101\I133101\_IString.h
; File D:\git\src\IBK\IBK_DRFN\ProjSrc\SrcChartEx\ChartAddIn\ChartAnalysisToolAddIn\AnalysisTool\AnalysisData.cpp
;	COMDAT ?GetOCXPath@CAnalysisData@@QBE?AV?$CStringT@DV?$StrTraitMFC_DLL@DV?$ChTraitsCRT@D@ATL@@@@@ATL@@XZ
_TEXT	SEGMENT
_szHtsPath$ = -20					; size = 8
__$EHRec$ = -12						; size = 12
___$ReturnUdt$ = 8					; size = 4
?GetOCXPath@CAnalysisData@@QBE?AV?$CStringT@DV?$StrTraitMFC_DLL@DV?$ChTraitsCRT@D@ATL@@@@@ATL@@XZ PROC ; CAnalysisData::GetOCXPath, COMDAT
; _this$ = ecx

; 130  : {

  00000	55		 push	 ebp
  00001	8b ec		 mov	 ebp, esp
  00003	6a ff		 push	 -1
  00005	68 00 00 00 00	 push	 __ehhandler$?GetOCXPath@CAnalysisData@@QBE?AV?$CStringT@DV?$StrTraitMFC_DLL@DV?$ChTraitsCRT@D@ATL@@@@@ATL@@XZ
  0000a	64 a1 00 00 00
	00		 mov	 eax, DWORD PTR fs:0
  00010	50		 push	 eax
  00011	83 ec 08	 sub	 esp, 8
  00014	56		 push	 esi
  00015	a1 00 00 00 00	 mov	 eax, DWORD PTR ___security_cookie
  0001a	33 c5		 xor	 eax, ebp
  0001c	50		 push	 eax
  0001d	8d 45 f4	 lea	 eax, DWORD PTR __$EHRec$[ebp]
  00020	64 a3 00 00 00
	00		 mov	 DWORD PTR fs:0, eax

; 131  : 	if(m_pIChartOCX == NULL) return "";

  00026	8b 49 70	 mov	 ecx, DWORD PTR [ecx+112]
  00029	85 c9		 test	 ecx, ecx
  0002b	75 10		 jne	 SHORT $LN2@GetOCXPath
  0002d	8b 4d 08	 mov	 ecx, DWORD PTR ___$ReturnUdt$[ebp]
  00030	68 00 00 00 00	 push	 OFFSET ??_C@_00CNPNBAHC@@
  00035	ff 15 00 00 00
	00		 call	 DWORD PTR __imp_??0?$CStringT@DV?$StrTraitMFC_DLL@DV?$ChTraitsCRT@D@ATL@@@@@ATL@@QAE@PBD@Z
  0003b	eb 3e		 jmp	 SHORT $LN12@GetOCXPath
$LN2@GetOCXPath:

; 132  : 	ILPCSTR szHtsPath = m_pIChartOCX->GetHtsPathString();

  0003d	8b 01		 mov	 eax, DWORD PTR [ecx]
  0003f	ff 50 68	 call	 DWORD PTR [eax+104]
; File D:\git\src\IBK\IBK_DRFN\ProjSrc\SrcChartEx\ChartAddIn\ChartAnalysisToolAddIn\Include_AddIn_133101\I133101\_IString.h

; 39   : 		m_pIStrData = p_pIString;	// Do not AddRef(). Because It must be Return Value.

  00042	8b f0		 mov	 esi, eax
  00044	89 75 f0	 mov	 DWORD PTR _szHtsPath$[ebp+4], esi

; 40   : 		if( m_pIStrData) m_szData = m_pIStrData->GetData();

  00047	85 f6		 test	 esi, esi
  00049	74 09		 je	 SHORT $LN8@GetOCXPath
  0004b	8b 16		 mov	 edx, DWORD PTR [esi]
  0004d	8b ce		 mov	 ecx, esi
  0004f	ff 52 10	 call	 DWORD PTR [edx+16]
  00052	eb 02		 jmp	 SHORT $LN16@GetOCXPath
$LN8@GetOCXPath:

; 41   : 		else m_szData = NULL;

  00054	33 c0		 xor	 eax, eax
$LN16@GetOCXPath:
; File D:\git\src\IBK\IBK_DRFN\ProjSrc\SrcChartEx\ChartAddIn\ChartAnalysisToolAddIn\AnalysisTool\AnalysisData.cpp

; 132  : 	ILPCSTR szHtsPath = m_pIChartOCX->GetHtsPathString();

  00056	89 45 ec	 mov	 DWORD PTR _szHtsPath$[ebp], eax

; 133  : 	return CString( szHtsPath);

  00059	8b 4d 08	 mov	 ecx, DWORD PTR ___$ReturnUdt$[ebp]
  0005c	50		 push	 eax
  0005d	c7 45 fc 00 00
	00 00		 mov	 DWORD PTR __$EHRec$[ebp+8], 0
  00064	ff 15 00 00 00
	00		 call	 DWORD PTR __imp_??0?$CStringT@DV?$StrTraitMFC_DLL@DV?$ChTraitsCRT@D@ATL@@@@@ATL@@QAE@PBD@Z
; File D:\git\src\IBK\IBK_DRFN\ProjSrc\SrcChartEx\ChartAddIn\ChartAnalysisToolAddIn\Include_AddIn_133101\I133101\_IString.h

; 44   : 	{

  0006a	c7 45 fc 01 00
	00 00		 mov	 DWORD PTR __$EHRec$[ebp+8], 1

; 45   : 		if( m_pIStrData)

  00071	85 f6		 test	 esi, esi
  00073	74 06		 je	 SHORT $LN12@GetOCXPath

; 46   : 		{
; 47   : 			m_pIStrData->Release();

  00075	8b 0e		 mov	 ecx, DWORD PTR [esi]
  00077	56		 push	 esi
  00078	ff 51 08	 call	 DWORD PTR [ecx+8]
$LN12@GetOCXPath:
; File D:\git\src\IBK\IBK_DRFN\ProjSrc\SrcChartEx\ChartAddIn\ChartAnalysisToolAddIn\AnalysisTool\AnalysisData.cpp

; 134  : }

  0007b	8b 45 08	 mov	 eax, DWORD PTR ___$ReturnUdt$[ebp]
  0007e	8b 4d f4	 mov	 ecx, DWORD PTR __$EHRec$[ebp]
  00081	64 89 0d 00 00
	00 00		 mov	 DWORD PTR fs:0, ecx
  00088	59		 pop	 ecx
  00089	5e		 pop	 esi
  0008a	8b e5		 mov	 esp, ebp
  0008c	5d		 pop	 ebp
  0008d	c2 04 00	 ret	 4
_TEXT	ENDS
;	COMDAT text$x
text$x	SEGMENT
__unwindfunclet$?GetOCXPath@CAnalysisData@@QBE?AV?$CStringT@DV?$StrTraitMFC_DLL@DV?$ChTraitsCRT@D@ATL@@@@@ATL@@XZ$1:
  00000	8d 4d ec	 lea	 ecx, DWORD PTR _szHtsPath$[ebp]
  00003	e9 00 00 00 00	 jmp	 ??1ILPCSTR133101@@QAE@XZ ; ILPCSTR133101::~ILPCSTR133101
  00008	cc		 int	 3
  00009	cc		 int	 3
  0000a	cc		 int	 3
  0000b	cc		 int	 3
  0000c	cc		 int	 3
__ehhandler$?GetOCXPath@CAnalysisData@@QBE?AV?$CStringT@DV?$StrTraitMFC_DLL@DV?$ChTraitsCRT@D@ATL@@@@@ATL@@XZ:
  0000d	90		 npad	 1
  0000e	90		 npad	 1
  0000f	8b 54 24 08	 mov	 edx, DWORD PTR [esp+8]
  00013	8d 42 0c	 lea	 eax, DWORD PTR [edx+12]
  00016	8b 4a f0	 mov	 ecx, DWORD PTR [edx-16]
  00019	33 c8		 xor	 ecx, eax
  0001b	e8 00 00 00 00	 call	 @__security_check_cookie@4
  00020	b8 00 00 00 00	 mov	 eax, OFFSET __ehfuncinfo$?GetOCXPath@CAnalysisData@@QBE?AV?$CStringT@DV?$StrTraitMFC_DLL@DV?$ChTraitsCRT@D@ATL@@@@@ATL@@XZ
  00025	e9 00 00 00 00	 jmp	 ___CxxFrameHandler3
text$x	ENDS
?GetOCXPath@CAnalysisData@@QBE?AV?$CStringT@DV?$StrTraitMFC_DLL@DV?$ChTraitsCRT@D@ATL@@@@@ATL@@XZ ENDP ; CAnalysisData::GetOCXPath
; Function compile flags: /Ogtp
; File D:\git\src\IBK\IBK_DRFN\ProjSrc\SrcChartEx\ChartAddIn\ChartAnalysisToolAddIn\AnalysisTool\AnalysisData.cpp
;	COMDAT ?GetElementTree@CAnalysisData@@QAEAAVCElementTree@@XZ
_TEXT	SEGMENT
?GetElementTree@CAnalysisData@@QAEAAVCElementTree@@XZ PROC ; CAnalysisData::GetElementTree, COMDAT
; _this$ = ecx

; 125  : 	return m_elementTree;

  00000	8d 41 08	 lea	 eax, DWORD PTR [ecx+8]

; 126  : }

  00003	c3		 ret	 0
?GetElementTree@CAnalysisData@@QAEAAVCElementTree@@XZ ENDP ; CAnalysisData::GetElementTree
_TEXT	ENDS
; Function compile flags: /Ogtp
; File D:\git\src\IBK\IBK_DRFN\ProjSrc\SrcChartEx\ChartAddIn\ChartAnalysisToolAddIn\AnalysisTool\AnalysisData.cpp
;	COMDAT ?GetElementTree@CAnalysisData@@QBEABVCElementTree@@XZ
_TEXT	SEGMENT
?GetElementTree@CAnalysisData@@QBEABVCElementTree@@XZ PROC ; CAnalysisData::GetElementTree, COMDAT
; _this$ = ecx

; 120  : 	return m_elementTree;

  00000	8d 41 08	 lea	 eax, DWORD PTR [ecx+8]

; 121  : }

  00003	c3		 ret	 0
?GetElementTree@CAnalysisData@@QBEABVCElementTree@@XZ ENDP ; CAnalysisData::GetElementTree
_TEXT	ENDS
; Function compile flags: /Ogtp
; File D:\git\src\IBK\IBK_DRFN\ProjSrc\SrcChartEx\ChartAddIn\ChartAnalysisToolAddIn\AnalysisTool\AnalysisData.cpp
;	COMDAT ?GetCurrentToolType@CAnalysisData@@QBE?AW4TOOLTYPE@CAnalysis@@XZ
_TEXT	SEGMENT
?GetCurrentToolType@CAnalysisData@@QBE?AW4TOOLTYPE@CAnalysis@@XZ PROC ; CAnalysisData::GetCurrentToolType, COMDAT
; _this$ = ecx

; 115  : 	return m_eCurrentToolType;

  00000	8b 41 04	 mov	 eax, DWORD PTR [ecx+4]

; 116  : }

  00003	c3		 ret	 0
?GetCurrentToolType@CAnalysisData@@QBE?AW4TOOLTYPE@CAnalysis@@XZ ENDP ; CAnalysisData::GetCurrentToolType
_TEXT	ENDS
; Function compile flags: /Ogtp
; File D:\git\src\IBK\IBK_DRFN\ProjSrc\SrcChartEx\ChartAddIn\ChartAnalysisToolAddIn\AnalysisTool\AnalysisData.cpp
;	COMDAT ?GetChartOCX@CAnalysisData@@QBEPAUIChartOCX133101@@XZ
_TEXT	SEGMENT
?GetChartOCX@CAnalysisData@@QBEPAUIChartOCX133101@@XZ PROC ; CAnalysisData::GetChartOCX, COMDAT
; _this$ = ecx

; 107  : {

  00000	56		 push	 esi
  00001	8b f1		 mov	 esi, ecx

; 108  : 	if( m_pIChartOCX) 

  00003	8b 56 70	 mov	 edx, DWORD PTR [esi+112]
  00006	85 d2		 test	 edx, edx
  00008	74 0b		 je	 SHORT $LN4@GetChartOC

; 109  : 		m_pIChartOCX->AddRef();

  0000a	8b 02		 mov	 eax, DWORD PTR [edx]
  0000c	52		 push	 edx
  0000d	ff 50 04	 call	 DWORD PTR [eax+4]

; 110  : 	return m_pIChartOCX;

  00010	8b 46 70	 mov	 eax, DWORD PTR [esi+112]
  00013	5e		 pop	 esi

; 111  : }

  00014	c3		 ret	 0
$LN4@GetChartOC:

; 110  : 	return m_pIChartOCX;

  00015	8b c2		 mov	 eax, edx
  00017	5e		 pop	 esi

; 111  : }

  00018	c3		 ret	 0
?GetChartOCX@CAnalysisData@@QBEPAUIChartOCX133101@@XZ ENDP ; CAnalysisData::GetChartOCX
_TEXT	ENDS
; Function compile flags: /Ogtp
; File D:\git\src\IBK\IBK_DRFN\ProjSrc\SrcChartEx\ChartAddIn\ChartAnalysisToolAddIn\AnalysisTool\AnalysisData.cpp
;	COMDAT ?GetPacketManager@CAnalysisData@@QBEPAUIPacketManager133101@@XZ
_TEXT	SEGMENT
?GetPacketManager@CAnalysisData@@QBEPAUIPacketManager133101@@XZ PROC ; CAnalysisData::GetPacketManager, COMDAT
; _this$ = ecx

; 100  : {

  00000	56		 push	 esi
  00001	8b f1		 mov	 esi, ecx

; 101  : 	if( m_pIDefaultPacketManager) 

  00003	8b 56 68	 mov	 edx, DWORD PTR [esi+104]
  00006	85 d2		 test	 edx, edx
  00008	74 0b		 je	 SHORT $LN4@GetPacketM

; 102  : 		m_pIDefaultPacketManager->AddRef();

  0000a	8b 02		 mov	 eax, DWORD PTR [edx]
  0000c	52		 push	 edx
  0000d	ff 50 04	 call	 DWORD PTR [eax+4]

; 103  : 	return m_pIDefaultPacketManager;

  00010	8b 46 68	 mov	 eax, DWORD PTR [esi+104]
  00013	5e		 pop	 esi

; 104  : }

  00014	c3		 ret	 0
$LN4@GetPacketM:

; 103  : 	return m_pIDefaultPacketManager;

  00015	8b c2		 mov	 eax, edx
  00017	5e		 pop	 esi

; 104  : }

  00018	c3		 ret	 0
?GetPacketManager@CAnalysisData@@QBEPAUIPacketManager133101@@XZ ENDP ; CAnalysisData::GetPacketManager
_TEXT	ENDS
; Function compile flags: /Ogtp
; File D:\git\src\IBK\IBK_DRFN\ProjSrc\SrcChartEx\ChartAddIn\ChartAnalysisToolAddIn\AnalysisTool\AnalysisData.cpp
;	COMDAT ?GetMainBlock@CAnalysisData@@QBEPAUIChartManager133101@@XZ
_TEXT	SEGMENT
?GetMainBlock@CAnalysisData@@QBEPAUIChartManager133101@@XZ PROC ; CAnalysisData::GetMainBlock, COMDAT
; _this$ = ecx

; 93   : {

  00000	56		 push	 esi
  00001	8b f1		 mov	 esi, ecx

; 94   : 	if( m_pIChartManager) 

  00003	8b 56 6c	 mov	 edx, DWORD PTR [esi+108]
  00006	85 d2		 test	 edx, edx
  00008	74 0b		 je	 SHORT $LN4@GetMainBlo

; 95   : 		m_pIChartManager->AddRef();	

  0000a	8b 02		 mov	 eax, DWORD PTR [edx]
  0000c	52		 push	 edx
  0000d	ff 50 04	 call	 DWORD PTR [eax+4]

; 96   : 	return m_pIChartManager;

  00010	8b 46 6c	 mov	 eax, DWORD PTR [esi+108]
  00013	5e		 pop	 esi

; 97   : }

  00014	c3		 ret	 0
$LN4@GetMainBlo:

; 96   : 	return m_pIChartManager;

  00015	8b c2		 mov	 eax, edx
  00017	5e		 pop	 esi

; 97   : }

  00018	c3		 ret	 0
?GetMainBlock@CAnalysisData@@QBEPAUIChartManager133101@@XZ ENDP ; CAnalysisData::GetMainBlock
_TEXT	ENDS
; Function compile flags: /Ogtp
; File D:\git\src\IBK\IBK_DRFN\ProjSrc\SrcChartEx\ChartAddIn\ChartAnalysisToolAddIn\AnalysisTool\AnalysisData.cpp
;	COMDAT ?GetParent@CAnalysisData@@QBEPAVCWnd@@XZ
_TEXT	SEGMENT
?GetParent@CAnalysisData@@QBEPAVCWnd@@XZ PROC		; CAnalysisData::GetParent, COMDAT
; _this$ = ecx

; 89   : 	return m_pParent;

  00000	8b 01		 mov	 eax, DWORD PTR [ecx]

; 90   : }

  00002	c3		 ret	 0
?GetParent@CAnalysisData@@QBEPAVCWnd@@XZ ENDP		; CAnalysisData::GetParent
_TEXT	ENDS
; Function compile flags: /Ogtp
; File D:\git\src\IBK\IBK_DRFN\ProjSrc\SrcChartEx\ChartAddIn\ChartAnalysisToolAddIn\AnalysisTool\AnalysisData.cpp
;	COMDAT ?SetCurrentToolType@CAnalysisData@@QAEXW4TOOLTYPE@CAnalysis@@@Z
_TEXT	SEGMENT
_eToolType$ = 8						; size = 4
?SetCurrentToolType@CAnalysisData@@QAEXW4TOOLTYPE@CAnalysis@@@Z PROC ; CAnalysisData::SetCurrentToolType, COMDAT
; _this$ = ecx

; 82   : {

  00000	55		 push	 ebp
  00001	8b ec		 mov	 ebp, esp

; 83   : 	m_eCurrentToolType = eToolType;

  00003	8b 45 08	 mov	 eax, DWORD PTR _eToolType$[ebp]
  00006	89 41 04	 mov	 DWORD PTR [ecx+4], eax

; 84   : }

  00009	5d		 pop	 ebp
  0000a	c2 04 00	 ret	 4
?SetCurrentToolType@CAnalysisData@@QAEXW4TOOLTYPE@CAnalysis@@@Z ENDP ; CAnalysisData::SetCurrentToolType
_TEXT	ENDS
; Function compile flags: /Ogtp
; File D:\git\src\IBK\IBK_DRFN\ProjSrc\SrcChartEx\ChartAddIn\ChartAnalysisToolAddIn\AnalysisTool\AnalysisData.cpp
;	COMDAT ?SetMainBlock@CAnalysisData@@QAEXPAUIChartManager133101@@PAUIChartOCX133101@@@Z
_TEXT	SEGMENT
_pMainBlock$ = 8					; size = 4
_p_pIChartOCX$ = 12					; size = 4
?SetMainBlock@CAnalysisData@@QAEXPAUIChartManager133101@@PAUIChartOCX133101@@@Z PROC ; CAnalysisData::SetMainBlock, COMDAT
; _this$ = ecx

; 64   : {

  00000	55		 push	 ebp
  00001	8b ec		 mov	 ebp, esp
  00003	56		 push	 esi
  00004	8b f1		 mov	 esi, ecx

; 65   : 	if( m_pIChartManager) m_pIChartManager->Release();

  00006	8b 4e 6c	 mov	 ecx, DWORD PTR [esi+108]
  00009	85 c9		 test	 ecx, ecx
  0000b	74 06		 je	 SHORT $LN2@SetMainBlo
  0000d	8b 01		 mov	 eax, DWORD PTR [ecx]
  0000f	51		 push	 ecx
  00010	ff 50 08	 call	 DWORD PTR [eax+8]
$LN2@SetMainBlo:

; 66   : 	m_pIChartManager = pMainBlock;

  00013	8b 4d 08	 mov	 ecx, DWORD PTR _pMainBlock$[ebp]
  00016	89 4e 6c	 mov	 DWORD PTR [esi+108], ecx

; 67   : 	if( m_pIChartManager) m_pIChartManager->AddRef();

  00019	85 c9		 test	 ecx, ecx
  0001b	74 06		 je	 SHORT $LN3@SetMainBlo
  0001d	8b 01		 mov	 eax, DWORD PTR [ecx]
  0001f	51		 push	 ecx
  00020	ff 50 04	 call	 DWORD PTR [eax+4]
$LN3@SetMainBlo:

; 68   : 
; 69   : 	if( m_pIDefaultPacketManager) m_pIDefaultPacketManager->Release();	

  00023	8b 4e 68	 mov	 ecx, DWORD PTR [esi+104]
  00026	85 c9		 test	 ecx, ecx
  00028	74 06		 je	 SHORT $LN4@SetMainBlo
  0002a	8b 01		 mov	 eax, DWORD PTR [ecx]
  0002c	51		 push	 ecx
  0002d	ff 50 08	 call	 DWORD PTR [eax+8]
$LN4@SetMainBlo:

; 70   : 	m_pIDefaultPacketManager = p_pIChartOCX->GetIDefaultPacketManager();

  00030	57		 push	 edi
  00031	8b 7d 0c	 mov	 edi, DWORD PTR _p_pIChartOCX$[ebp]
  00034	8b cf		 mov	 ecx, edi
  00036	8b 07		 mov	 eax, DWORD PTR [edi]
  00038	ff 50 20	 call	 DWORD PTR [eax+32]

; 71   : 
; 72   : 	if( m_pIChartOCX) m_pIChartOCX->Release();

  0003b	8b 4e 70	 mov	 ecx, DWORD PTR [esi+112]
  0003e	89 46 68	 mov	 DWORD PTR [esi+104], eax
  00041	85 c9		 test	 ecx, ecx
  00043	74 06		 je	 SHORT $LN5@SetMainBlo
  00045	8b 01		 mov	 eax, DWORD PTR [ecx]
  00047	51		 push	 ecx
  00048	ff 50 08	 call	 DWORD PTR [eax+8]
$LN5@SetMainBlo:

; 73   : 	m_pIChartOCX = p_pIChartOCX;

  0004b	89 7e 70	 mov	 DWORD PTR [esi+112], edi

; 74   : 	if( m_pIChartOCX) m_pIChartOCX->AddRef();

  0004e	8b 07		 mov	 eax, DWORD PTR [edi]
  00050	57		 push	 edi
  00051	ff 50 04	 call	 DWORD PTR [eax+4]

; 75   : 
; 76   : 	// 20081007 JS.Kim	 
; 77   : 	if( m_pIPacketListManager) m_pIPacketListManager->Release();

  00054	8b 4e 74	 mov	 ecx, DWORD PTR [esi+116]
  00057	5f		 pop	 edi
  00058	85 c9		 test	 ecx, ecx
  0005a	74 06		 je	 SHORT $LN7@SetMainBlo
  0005c	8b 01		 mov	 eax, DWORD PTR [ecx]
  0005e	51		 push	 ecx
  0005f	ff 50 08	 call	 DWORD PTR [eax+8]
$LN7@SetMainBlo:

; 78   : 	m_pIPacketListManager = m_pIChartOCX->GetIPacketListManager();

  00062	8b 4e 70	 mov	 ecx, DWORD PTR [esi+112]
  00065	8b 01		 mov	 eax, DWORD PTR [ecx]
  00067	ff 50 1c	 call	 DWORD PTR [eax+28]
  0006a	89 46 74	 mov	 DWORD PTR [esi+116], eax
  0006d	5e		 pop	 esi

; 79   : }

  0006e	5d		 pop	 ebp
  0006f	c2 08 00	 ret	 8
?SetMainBlock@CAnalysisData@@QAEXPAUIChartManager133101@@PAUIChartOCX133101@@@Z ENDP ; CAnalysisData::SetMainBlock
_TEXT	ENDS
; Function compile flags: /Ogtp
; File D:\git\src\IBK\IBK_DRFN\ProjSrc\SrcChartEx\ChartAddIn\ChartAnalysisToolAddIn\AnalysisTool\AnalysisData.cpp
;	COMDAT ?SetParent@CAnalysisData@@QAEXPAVCWnd@@@Z
_TEXT	SEGMENT
_pWnd$ = 8						; size = 4
?SetParent@CAnalysisData@@QAEXPAVCWnd@@@Z PROC		; CAnalysisData::SetParent, COMDAT
; _this$ = ecx

; 59   : {

  00000	55		 push	 ebp
  00001	8b ec		 mov	 ebp, esp

; 60   : 	m_pParent = pWnd;

  00003	8b 45 08	 mov	 eax, DWORD PTR _pWnd$[ebp]
  00006	89 01		 mov	 DWORD PTR [ecx], eax

; 61   : }

  00008	5d		 pop	 ebp
  00009	c2 04 00	 ret	 4
?SetParent@CAnalysisData@@QAEXPAVCWnd@@@Z ENDP		; CAnalysisData::SetParent
_TEXT	ENDS
; Function compile flags: /Ogtp
; File D:\git\src\IBK\IBK_DRFN\ProjSrc\SrcChartEx\ChartAddIn\ChartAnalysisToolAddIn\AnalysisTool\AnalysisData.cpp
; File C:\Program Files (x86)\Microsoft Visual Studio\2019\Community\VC\Tools\MSVC\14.29.30133\include\deque
; File C:\Program Files (x86)\Microsoft Visual Studio\2019\Community\VC\Tools\MSVC\14.29.30133\include\utility
; File C:\Program Files (x86)\Microsoft Visual Studio\2019\Community\VC\Tools\MSVC\14.29.30133\include\xmemory
; File C:\Program Files (x86)\Microsoft Visual Studio\2019\Community\VC\Tools\MSVC\14.29.30133\include\utility
; File C:\Program Files (x86)\Microsoft Visual Studio\2019\Community\VC\Tools\MSVC\14.29.30133\include\xmemory
; File D:\git\src\IBK\IBK_DRFN\ProjSrc\SrcChartEx\ChartAddIn\ChartAnalysisToolAddIn\AnalysisTool\AnalysisData.cpp
;	COMDAT ??1CAnalysisData@@QAE@XZ
_TEXT	SEGMENT
__$EHRec$ = -12						; size = 12
??1CAnalysisData@@QAE@XZ PROC				; CAnalysisData::~CAnalysisData, COMDAT
; _this$ = ecx

; 46   : {

  00000	55		 push	 ebp
  00001	8b ec		 mov	 ebp, esp
  00003	6a ff		 push	 -1
  00005	68 00 00 00 00	 push	 __ehhandler$??1CAnalysisData@@QAE@XZ
  0000a	64 a1 00 00 00
	00		 mov	 eax, DWORD PTR fs:0
  00010	50		 push	 eax
  00011	56		 push	 esi
  00012	a1 00 00 00 00	 mov	 eax, DWORD PTR ___security_cookie
  00017	33 c5		 xor	 eax, ebp
  00019	50		 push	 eax
  0001a	8d 45 f4	 lea	 eax, DWORD PTR __$EHRec$[ebp]
  0001d	64 a3 00 00 00
	00		 mov	 DWORD PTR fs:0, eax
  00023	8b f1		 mov	 esi, ecx

; 47   : 	if( m_pIChartManager) 

  00025	8b 4e 6c	 mov	 ecx, DWORD PTR [esi+108]
  00028	85 c9		 test	 ecx, ecx
  0002a	74 06		 je	 SHORT $LN2@CAnalysisD

; 48   : 		m_pIChartManager->Release();

  0002c	8b 01		 mov	 eax, DWORD PTR [ecx]
  0002e	51		 push	 ecx
  0002f	ff 50 08	 call	 DWORD PTR [eax+8]
$LN2@CAnalysisD:

; 49   : 	if( m_pIDefaultPacketManager) 

  00032	8b 4e 68	 mov	 ecx, DWORD PTR [esi+104]
  00035	85 c9		 test	 ecx, ecx
  00037	74 06		 je	 SHORT $LN3@CAnalysisD

; 50   : 		m_pIDefaultPacketManager->Release();

  00039	8b 01		 mov	 eax, DWORD PTR [ecx]
  0003b	51		 push	 ecx
  0003c	ff 50 08	 call	 DWORD PTR [eax+8]
$LN3@CAnalysisD:

; 51   : 	if( m_pIChartOCX) 

  0003f	8b 4e 70	 mov	 ecx, DWORD PTR [esi+112]
  00042	85 c9		 test	 ecx, ecx
  00044	74 06		 je	 SHORT $LN4@CAnalysisD

; 52   : 		m_pIChartOCX->Release();

  00046	8b 01		 mov	 eax, DWORD PTR [ecx]
  00048	51		 push	 ecx
  00049	ff 50 08	 call	 DWORD PTR [eax+8]
$LN4@CAnalysisD:

; 53   : 	// 20081007 JS.Kim	 
; 54   : 	if( m_pIPacketListManager) m_pIPacketListManager->Release();

  0004c	8b 4e 74	 mov	 ecx, DWORD PTR [esi+116]
  0004f	85 c9		 test	 ecx, ecx
  00051	74 06		 je	 SHORT $LN5@CAnalysisD
  00053	8b 01		 mov	 eax, DWORD PTR [ecx]
  00055	51		 push	 ecx
  00056	ff 50 08	 call	 DWORD PTR [eax+8]
$LN5@CAnalysisD:

; 55   : }

  00059	8d 4e 3c	 lea	 ecx, DWORD PTR [esi+60]
  0005c	e8 00 00 00 00	 call	 ??1CUndoRedoManager@@QAE@XZ ; CUndoRedoManager::~CUndoRedoManager
  00061	8d 4e 1c	 lea	 ecx, DWORD PTR [esi+28]
  00064	e8 00 00 00 00	 call	 ??1CTree@@UAE@XZ	; CTree::~CTree
; File C:\Program Files (x86)\Microsoft Visual Studio\2019\Community\VC\Tools\MSVC\14.29.30133\include\deque

; 1332 :         _Tidy();

  00069	8d 4e 08	 lea	 ecx, DWORD PTR [esi+8]
  0006c	e8 00 00 00 00	 call	 ?_Tidy@?$deque@PAVCElement@@V?$allocator@PAVCElement@@@std@@@std@@AAEXXZ ; std::deque<CElement *,std::allocator<CElement *> >::_Tidy

; 861  :         _Tidy();

  00071	8d 4e 08	 lea	 ecx, DWORD PTR [esi+8]
  00074	e8 00 00 00 00	 call	 ?_Tidy@?$deque@PAVCElement@@V?$allocator@PAVCElement@@@std@@@std@@AAEXXZ ; std::deque<CElement *,std::allocator<CElement *> >::_Tidy
; File C:\Program Files (x86)\Microsoft Visual Studio\2019\Community\VC\Tools\MSVC\14.29.30133\include\utility

; 602  :     _Ty _Old_val = static_cast<_Ty&&>(_Val);

  00079	8b 46 08	 mov	 eax, DWORD PTR [esi+8]
; File C:\Program Files (x86)\Microsoft Visual Studio\2019\Community\VC\Tools\MSVC\14.29.30133\include\xmemory

; 255  :         ::operator delete(_Ptr, _Bytes);

  0007c	6a 08		 push	 8
  0007e	50		 push	 eax
; File C:\Program Files (x86)\Microsoft Visual Studio\2019\Community\VC\Tools\MSVC\14.29.30133\include\utility

; 603  :     _Val         = static_cast<_Other&&>(_New_val);

  0007f	c7 46 08 00 00
	00 00		 mov	 DWORD PTR [esi+8], 0
; File C:\Program Files (x86)\Microsoft Visual Studio\2019\Community\VC\Tools\MSVC\14.29.30133\include\xmemory

; 255  :         ::operator delete(_Ptr, _Bytes);

  00086	e8 00 00 00 00	 call	 ??3@YAXPAXI@Z		; operator delete
  0008b	83 c4 08	 add	 esp, 8
; File D:\git\src\IBK\IBK_DRFN\ProjSrc\SrcChartEx\ChartAddIn\ChartAnalysisToolAddIn\AnalysisTool\AnalysisData.cpp

; 55   : }

  0008e	8b 4d f4	 mov	 ecx, DWORD PTR __$EHRec$[ebp]
  00091	64 89 0d 00 00
	00 00		 mov	 DWORD PTR fs:0, ecx
  00098	59		 pop	 ecx
  00099	5e		 pop	 esi
  0009a	8b e5		 mov	 esp, ebp
  0009c	5d		 pop	 ebp
  0009d	c3		 ret	 0
  0009e	cc		 int	 3
  0009f	cc		 int	 3
  000a0	cc		 int	 3
  000a1	cc		 int	 3
  000a2	cc		 int	 3
_TEXT	ENDS
;	COMDAT text$x
text$x	SEGMENT
__ehhandler$??1CAnalysisData@@QAE@XZ:
  00000	90		 npad	 1
  00001	90		 npad	 1
  00002	8b 54 24 08	 mov	 edx, DWORD PTR [esp+8]
  00006	8d 42 0c	 lea	 eax, DWORD PTR [edx+12]
  00009	8b 4a f8	 mov	 ecx, DWORD PTR [edx-8]
  0000c	33 c8		 xor	 ecx, eax
  0000e	e8 00 00 00 00	 call	 @__security_check_cookie@4
  00013	b8 00 00 00 00	 mov	 eax, OFFSET __ehfuncinfo$??1CAnalysisData@@QAE@XZ
  00018	e9 00 00 00 00	 jmp	 ___CxxFrameHandler3
text$x	ENDS
??1CAnalysisData@@QAE@XZ ENDP				; CAnalysisData::~CAnalysisData
; Function compile flags: /Ogtp
; File D:\git\src\IBK\IBK_DRFN\ProjSrc\SrcChartEx\ChartAddIn\ChartAnalysisToolAddIn\AnalysisTool\AnalysisData.cpp
; File C:\Program Files (x86)\Microsoft Visual Studio\2019\Community\VC\Tools\MSVC\14.29.30133\include\xmemory
; File C:\Program Files (x86)\Microsoft Visual Studio\2019\Community\VC\Tools\MSVC\14.29.30133\include\deque
; File C:\Program Files (x86)\Microsoft Visual Studio\2019\Community\VC\Tools\MSVC\14.29.30133\include\xmemory
; File D:\git\src\IBK\IBK_DRFN\ProjSrc\SrcChartEx\ChartAddIn\ChartAnalysisToolAddIn\AnalysisTool\ElementTree.h
; File C:\Program Files (x86)\Microsoft Visual Studio\2019\Community\VC\Tools\MSVC\14.29.30133\include\xmemory
; File C:\Program Files (x86)\Microsoft Visual Studio\2019\Community\VC\Tools\MSVC\14.29.30133\include\deque
; File C:\Program Files (x86)\Microsoft Visual Studio\2019\Community\VC\Tools\MSVC\14.29.30133\include\xmemory
; File D:\git\src\IBK\IBK_DRFN\ProjSrc\SrcChartEx\ChartAddIn\ChartAnalysisToolAddIn\AnalysisTool\ElementTree.h
; File D:\git\src\IBK\IBK_DRFN\ProjSrc\SrcChartEx\ChartAddIn\ChartAnalysisToolAddIn\AnalysisTool\AnalysisData.cpp
;	COMDAT ??0CAnalysisData@@QAE@PAUHWND__@@W4CHART_MODE@CChartInfo@@@Z
_TEXT	SEGMENT
_this$ = -24						; size = 4
_this$2 = -24						; size = 4
_this$ = -20						; size = 4
_this$ = -16						; size = 4
__$EHRec$ = -12						; size = 12
_p_hOcxWnd$ = 8						; size = 4
_p_eChartMode$ = 12					; size = 4
??0CAnalysisData@@QAE@PAUHWND__@@W4CHART_MODE@CChartInfo@@@Z PROC ; CAnalysisData::CAnalysisData, COMDAT
; _this$ = ecx

; 37   : {

  00000	55		 push	 ebp
  00001	8b ec		 mov	 ebp, esp
  00003	6a ff		 push	 -1
  00005	68 00 00 00 00	 push	 __ehhandler$??0CAnalysisData@@QAE@PAUHWND__@@W4CHART_MODE@CChartInfo@@@Z
  0000a	64 a1 00 00 00
	00		 mov	 eax, DWORD PTR fs:0
  00010	50		 push	 eax
  00011	83 ec 0c	 sub	 esp, 12			; 0000000cH
  00014	53		 push	 ebx
  00015	56		 push	 esi
  00016	57		 push	 edi
  00017	a1 00 00 00 00	 mov	 eax, DWORD PTR ___security_cookie
  0001c	33 c5		 xor	 eax, ebp
  0001e	50		 push	 eax
  0001f	8d 45 f4	 lea	 eax, DWORD PTR __$EHRec$[ebp]
  00022	64 a3 00 00 00
	00		 mov	 DWORD PTR fs:0, eax
  00028	8b d9		 mov	 ebx, ecx
  0002a	89 5d f0	 mov	 DWORD PTR _this$[ebp], ebx

; 36   : 	m_elementTree( p_hOcxWnd, p_eChartMode)

  0002d	8d 7b 08	 lea	 edi, DWORD PTR [ebx+8]
  00030	c7 03 00 00 00
	00		 mov	 DWORD PTR [ebx], 0
  00036	c7 43 04 ff ff
	ff ff		 mov	 DWORD PTR [ebx+4], -1
  0003d	89 7d ec	 mov	 DWORD PTR _this$[ebp], edi
; File C:\Program Files (x86)\Microsoft Visual Studio\2019\Community\VC\Tools\MSVC\14.29.30133\include\xmemory

; 79   :         return ::operator new(_Bytes);

  00040	6a 08		 push	 8

; 1033 :     _Container_proxy* _Myproxy = nullptr;

  00042	c7 07 00 00 00
	00		 mov	 DWORD PTR [edi], 0
; File C:\Program Files (x86)\Microsoft Visual Studio\2019\Community\VC\Tools\MSVC\14.29.30133\include\deque

; 555  :     _Deque_val() noexcept : _Map(), _Mapsize(0), _Myoff(0), _Mysize(0) {}

  00048	c7 47 04 00 00
	00 00		 mov	 DWORD PTR [edi+4], 0
  0004f	c7 47 08 00 00
	00 00		 mov	 DWORD PTR [edi+8], 0
  00056	c7 47 0c 00 00
	00 00		 mov	 DWORD PTR [edi+12], 0
  0005d	c7 47 10 00 00
	00 00		 mov	 DWORD PTR [edi+16], 0
; File C:\Program Files (x86)\Microsoft Visual Studio\2019\Community\VC\Tools\MSVC\14.29.30133\include\xmemory

; 79   :         return ::operator new(_Bytes);

  00064	e8 00 00 00 00	 call	 ??2@YAPAXI@Z		; operator new

; 1003 :     mutable _Iterator_base12* _Myfirstiter = nullptr;

  00069	c7 40 04 00 00
	00 00		 mov	 DWORD PTR [eax+4], 0

; 1020 :         _Myproxy            = _New_proxy;

  00070	89 07		 mov	 DWORD PTR [edi], eax

; 1021 :         _New_proxy->_Mycont = this;

  00072	89 38		 mov	 DWORD PTR [eax], edi
; File D:\git\src\IBK\IBK_DRFN\ProjSrc\SrcChartEx\ChartAddIn\ChartAnalysisToolAddIn\AnalysisTool\ElementTree.h

; 144  : 	CElementTree( HWND p_hOcxWnd, CChartInfo::CHART_MODE p_eChartMode)

  00074	8d 47 14	 lea	 eax, DWORD PTR [edi+20]
  00077	c7 45 fc 00 00
	00 00		 mov	 DWORD PTR __$EHRec$[ebp+8], 0
  0007e	8d 70 04	 lea	 esi, DWORD PTR [eax+4]
  00081	c7 00 00 00 00
	00		 mov	 DWORD PTR [eax], OFFSET ??_7CTree@@6B@
  00087	89 45 e8	 mov	 DWORD PTR _this$[ebp], eax
; File C:\Program Files (x86)\Microsoft Visual Studio\2019\Community\VC\Tools\MSVC\14.29.30133\include\xmemory

; 79   :         return ::operator new(_Bytes);

  0008a	6a 08		 push	 8
  0008c	89 75 e8	 mov	 DWORD PTR _this$2[ebp], esi

; 1033 :     _Container_proxy* _Myproxy = nullptr;

  0008f	c7 06 00 00 00
	00		 mov	 DWORD PTR [esi], 0
; File C:\Program Files (x86)\Microsoft Visual Studio\2019\Community\VC\Tools\MSVC\14.29.30133\include\deque

; 555  :     _Deque_val() noexcept : _Map(), _Mapsize(0), _Myoff(0), _Mysize(0) {}

  00095	c7 46 04 00 00
	00 00		 mov	 DWORD PTR [esi+4], 0
  0009c	c7 46 08 00 00
	00 00		 mov	 DWORD PTR [esi+8], 0
  000a3	c7 46 0c 00 00
	00 00		 mov	 DWORD PTR [esi+12], 0
  000aa	c7 46 10 00 00
	00 00		 mov	 DWORD PTR [esi+16], 0
; File C:\Program Files (x86)\Microsoft Visual Studio\2019\Community\VC\Tools\MSVC\14.29.30133\include\xmemory

; 79   :         return ::operator new(_Bytes);

  000b1	e8 00 00 00 00	 call	 ??2@YAPAXI@Z		; operator new
  000b6	83 c4 08	 add	 esp, 8

; 1003 :     mutable _Iterator_base12* _Myfirstiter = nullptr;

  000b9	c7 40 04 00 00
	00 00		 mov	 DWORD PTR [eax+4], 0

; 1020 :         _Myproxy            = _New_proxy;

  000c0	89 06		 mov	 DWORD PTR [esi], eax

; 1021 :         _New_proxy->_Mycont = this;

  000c2	89 30		 mov	 DWORD PTR [eax], esi
; File D:\git\src\IBK\IBK_DRFN\ProjSrc\SrcChartEx\ChartAddIn\ChartAnalysisToolAddIn\AnalysisTool\ElementTree.h

; 145  : 		{	m_hOcxWnd = p_hOcxWnd;	m_eChartMode = p_eChartMode;	}

  000c4	8b 45 08	 mov	 eax, DWORD PTR _p_hOcxWnd$[ebp]
  000c7	89 47 2c	 mov	 DWORD PTR [edi+44], eax
  000ca	8b 45 0c	 mov	 eax, DWORD PTR _p_eChartMode$[ebp]
  000cd	89 47 30	 mov	 DWORD PTR [edi+48], eax
; File D:\git\src\IBK\IBK_DRFN\ProjSrc\SrcChartEx\ChartAddIn\ChartAnalysisToolAddIn\AnalysisTool\AnalysisData.cpp

; 37   : {

  000d0	8d 4b 3c	 lea	 ecx, DWORD PTR [ebx+60]
  000d3	c7 45 fc 01 00
	00 00		 mov	 DWORD PTR __$EHRec$[ebp+8], 1
  000da	e8 00 00 00 00	 call	 ??0CUndoRedoManager@@QAE@XZ ; CUndoRedoManager::CUndoRedoManager

; 38   : 	m_pIChartOCX = NULL;
; 39   : 	GetUndoRedoManager().SetAnalysisData(this);

  000df	53		 push	 ebx
  000e0	8d 4b 3c	 lea	 ecx, DWORD PTR [ebx+60]
  000e3	c6 45 fc 02	 mov	 BYTE PTR __$EHRec$[ebp+8], 2
  000e7	c7 43 68 00 00
	00 00		 mov	 DWORD PTR [ebx+104], 0
  000ee	c7 43 6c 00 00
	00 00		 mov	 DWORD PTR [ebx+108], 0
  000f5	c7 43 70 00 00
	00 00		 mov	 DWORD PTR [ebx+112], 0
  000fc	e8 00 00 00 00	 call	 ?SetAnalysisData@CUndoRedoManager@@QAEXPAVCAnalysisData@@@Z ; CUndoRedoManager::SetAnalysisData

; 40   : 
; 41   : 	// 20081007 JS.Kim	 
; 42   : 	m_pIPacketListManager = NULL;

  00101	c7 43 74 00 00
	00 00		 mov	 DWORD PTR [ebx+116], 0

; 43   : }

  00108	8b c3		 mov	 eax, ebx
  0010a	8b 4d f4	 mov	 ecx, DWORD PTR __$EHRec$[ebp]
  0010d	64 89 0d 00 00
	00 00		 mov	 DWORD PTR fs:0, ecx
  00114	59		 pop	 ecx
  00115	5f		 pop	 edi
  00116	5e		 pop	 esi
  00117	5b		 pop	 ebx
  00118	8b e5		 mov	 esp, ebp
  0011a	5d		 pop	 ebp
  0011b	c2 08 00	 ret	 8
_TEXT	ENDS
;	COMDAT text$x
text$x	SEGMENT
__unwindfunclet$??0CAnalysisData@@QAE@PAUHWND__@@W4CHART_MODE@CChartInfo@@@Z$2:
  00000	8b 4d ec	 mov	 ecx, DWORD PTR _this$[ebp]
  00003	e9 00 00 00 00	 jmp	 ??1COrder@@QAE@XZ
__unwindfunclet$??0CAnalysisData@@QAE@PAUHWND__@@W4CHART_MODE@CChartInfo@@@Z$0:
  00008	8b 4d f0	 mov	 ecx, DWORD PTR _this$[ebp]
  0000b	83 c1 08	 add	 ecx, 8
  0000e	e9 00 00 00 00	 jmp	 ??1CElementTree@@QAE@XZ
__unwindfunclet$??0CAnalysisData@@QAE@PAUHWND__@@W4CHART_MODE@CChartInfo@@@Z$1:
  00013	8b 4d f0	 mov	 ecx, DWORD PTR _this$[ebp]
  00016	83 c1 3c	 add	 ecx, 60			; 0000003cH
  00019	e9 00 00 00 00	 jmp	 ??1CUndoRedoManager@@QAE@XZ ; CUndoRedoManager::~CUndoRedoManager
  0001e	cc		 int	 3
  0001f	cc		 int	 3
  00020	cc		 int	 3
  00021	cc		 int	 3
  00022	cc		 int	 3
__ehhandler$??0CAnalysisData@@QAE@PAUHWND__@@W4CHART_MODE@CChartInfo@@@Z:
  00023	90		 npad	 1
  00024	90		 npad	 1
  00025	8b 54 24 08	 mov	 edx, DWORD PTR [esp+8]
  00029	8d 42 0c	 lea	 eax, DWORD PTR [edx+12]
  0002c	8b 4a e4	 mov	 ecx, DWORD PTR [edx-28]
  0002f	33 c8		 xor	 ecx, eax
  00031	e8 00 00 00 00	 call	 @__security_check_cookie@4
  00036	b8 00 00 00 00	 mov	 eax, OFFSET __ehfuncinfo$??0CAnalysisData@@QAE@PAUHWND__@@W4CHART_MODE@CChartInfo@@@Z
  0003b	e9 00 00 00 00	 jmp	 ___CxxFrameHandler3
text$x	ENDS
??0CAnalysisData@@QAE@PAUHWND__@@W4CHART_MODE@CChartInfo@@@Z ENDP ; CAnalysisData::CAnalysisData
; Function compile flags: /Ogtp
; File C:\Program Files (x86)\Microsoft Visual Studio\2019\Community\VC\Tools\MSVC\14.29.30133\include\deque
; File C:\Program Files (x86)\Microsoft Visual Studio\2019\Community\VC\Tools\MSVC\14.29.30133\include\utility
; File C:\Program Files (x86)\Microsoft Visual Studio\2019\Community\VC\Tools\MSVC\14.29.30133\include\xmemory
; File C:\Program Files (x86)\Microsoft Visual Studio\2019\Community\VC\Tools\MSVC\14.29.30133\include\utility
; File C:\Program Files (x86)\Microsoft Visual Studio\2019\Community\VC\Tools\MSVC\14.29.30133\include\xmemory
;	COMDAT ??1CElementTree@@QAE@XZ
_TEXT	SEGMENT
??1CElementTree@@QAE@XZ PROC				; CElementTree::~CElementTree, COMDAT
; _this$ = ecx
; File C:\Program Files (x86)\Microsoft Visual Studio\2019\Community\VC\Tools\MSVC\14.29.30133\include\deque

; 1332 :         _Tidy();

  00000	56		 push	 esi
  00001	8b f1		 mov	 esi, ecx
  00003	8d 4e 14	 lea	 ecx, DWORD PTR [esi+20]
  00006	e8 00 00 00 00	 call	 ??1CTree@@UAE@XZ	; CTree::~CTree
  0000b	8b ce		 mov	 ecx, esi
  0000d	e8 00 00 00 00	 call	 ?_Tidy@?$deque@PAVCElement@@V?$allocator@PAVCElement@@@std@@@std@@AAEXXZ ; std::deque<CElement *,std::allocator<CElement *> >::_Tidy

; 861  :         _Tidy();

  00012	8b ce		 mov	 ecx, esi
  00014	e8 00 00 00 00	 call	 ?_Tidy@?$deque@PAVCElement@@V?$allocator@PAVCElement@@@std@@@std@@AAEXXZ ; std::deque<CElement *,std::allocator<CElement *> >::_Tidy
; File C:\Program Files (x86)\Microsoft Visual Studio\2019\Community\VC\Tools\MSVC\14.29.30133\include\utility

; 602  :     _Ty _Old_val = static_cast<_Ty&&>(_Val);

  00019	8b 06		 mov	 eax, DWORD PTR [esi]
; File C:\Program Files (x86)\Microsoft Visual Studio\2019\Community\VC\Tools\MSVC\14.29.30133\include\xmemory

; 255  :         ::operator delete(_Ptr, _Bytes);

  0001b	6a 08		 push	 8
  0001d	50		 push	 eax
; File C:\Program Files (x86)\Microsoft Visual Studio\2019\Community\VC\Tools\MSVC\14.29.30133\include\utility

; 603  :     _Val         = static_cast<_Other&&>(_New_val);

  0001e	c7 06 00 00 00
	00		 mov	 DWORD PTR [esi], 0
; File C:\Program Files (x86)\Microsoft Visual Studio\2019\Community\VC\Tools\MSVC\14.29.30133\include\xmemory

; 255  :         ::operator delete(_Ptr, _Bytes);

  00024	e8 00 00 00 00	 call	 ??3@YAXPAXI@Z		; operator delete
  00029	83 c4 08	 add	 esp, 8
  0002c	5e		 pop	 esi
  0002d	c3		 ret	 0
??1CElementTree@@QAE@XZ ENDP				; CElementTree::~CElementTree
_TEXT	ENDS
; Function compile flags: /Ogtp
;	COMDAT ??_GCTree@@UAEPAXI@Z
_TEXT	SEGMENT
___flags$ = 8						; size = 4
??_GCTree@@UAEPAXI@Z PROC				; CTree::`scalar deleting destructor', COMDAT
; _this$ = ecx
  00000	55		 push	 ebp
  00001	8b ec		 mov	 ebp, esp
  00003	56		 push	 esi
  00004	8b f1		 mov	 esi, ecx
  00006	e8 00 00 00 00	 call	 ??1CTree@@UAE@XZ	; CTree::~CTree
  0000b	f6 45 08 01	 test	 BYTE PTR ___flags$[ebp], 1
  0000f	74 0b		 je	 SHORT $LN4@scalar
  00011	6a 18		 push	 24			; 00000018H
  00013	56		 push	 esi
  00014	e8 00 00 00 00	 call	 ??3@YAXPAXI@Z		; operator delete
  00019	83 c4 08	 add	 esp, 8
$LN4@scalar:
  0001c	8b c6		 mov	 eax, esi
  0001e	5e		 pop	 esi
  0001f	5d		 pop	 ebp
  00020	c2 04 00	 ret	 4
??_GCTree@@UAEPAXI@Z ENDP				; CTree::`scalar deleting destructor'
_TEXT	ENDS
; Function compile flags: /Ogtp
; File C:\Program Files (x86)\Microsoft Visual Studio\2019\Community\VC\Tools\MSVC\14.29.30133\include\deque
; File C:\Program Files (x86)\Microsoft Visual Studio\2019\Community\VC\Tools\MSVC\14.29.30133\include\utility
; File C:\Program Files (x86)\Microsoft Visual Studio\2019\Community\VC\Tools\MSVC\14.29.30133\include\xmemory
; File C:\Program Files (x86)\Microsoft Visual Studio\2019\Community\VC\Tools\MSVC\14.29.30133\include\utility
; File C:\Program Files (x86)\Microsoft Visual Studio\2019\Community\VC\Tools\MSVC\14.29.30133\include\xmemory
;	COMDAT ??1COrder@@QAE@XZ
_TEXT	SEGMENT
??1COrder@@QAE@XZ PROC					; COrder::~COrder, COMDAT
; _this$ = ecx
; File C:\Program Files (x86)\Microsoft Visual Studio\2019\Community\VC\Tools\MSVC\14.29.30133\include\deque

; 1332 :         _Tidy();

  00000	56		 push	 esi
  00001	8b f1		 mov	 esi, ecx
  00003	e8 00 00 00 00	 call	 ?_Tidy@?$deque@PAVCElement@@V?$allocator@PAVCElement@@@std@@@std@@AAEXXZ ; std::deque<CElement *,std::allocator<CElement *> >::_Tidy

; 861  :         _Tidy();

  00008	8b ce		 mov	 ecx, esi
  0000a	e8 00 00 00 00	 call	 ?_Tidy@?$deque@PAVCElement@@V?$allocator@PAVCElement@@@std@@@std@@AAEXXZ ; std::deque<CElement *,std::allocator<CElement *> >::_Tidy
; File C:\Program Files (x86)\Microsoft Visual Studio\2019\Community\VC\Tools\MSVC\14.29.30133\include\utility

; 602  :     _Ty _Old_val = static_cast<_Ty&&>(_Val);

  0000f	8b 06		 mov	 eax, DWORD PTR [esi]
; File C:\Program Files (x86)\Microsoft Visual Studio\2019\Community\VC\Tools\MSVC\14.29.30133\include\xmemory

; 255  :         ::operator delete(_Ptr, _Bytes);

  00011	6a 08		 push	 8
  00013	50		 push	 eax
; File C:\Program Files (x86)\Microsoft Visual Studio\2019\Community\VC\Tools\MSVC\14.29.30133\include\utility

; 603  :     _Val         = static_cast<_Other&&>(_New_val);

  00014	c7 06 00 00 00
	00		 mov	 DWORD PTR [esi], 0
; File C:\Program Files (x86)\Microsoft Visual Studio\2019\Community\VC\Tools\MSVC\14.29.30133\include\xmemory

; 255  :         ::operator delete(_Ptr, _Bytes);

  0001a	e8 00 00 00 00	 call	 ??3@YAXPAXI@Z		; operator delete
  0001f	83 c4 08	 add	 esp, 8
  00022	5e		 pop	 esi
  00023	c3		 ret	 0
??1COrder@@QAE@XZ ENDP					; COrder::~COrder
_TEXT	ENDS
; Function compile flags: /Ogtp
; File C:\Program Files (x86)\Microsoft Visual Studio\2019\Community\VC\Tools\MSVC\14.29.30133\include\deque
; File C:\Program Files (x86)\Microsoft Visual Studio\2019\Community\VC\Tools\MSVC\14.29.30133\include\xmemory
; File C:\Program Files (x86)\Microsoft Visual Studio\2019\Community\VC\Tools\MSVC\14.29.30133\include\deque
; File C:\Program Files (x86)\Microsoft Visual Studio\2019\Community\VC\Tools\MSVC\14.29.30133\include\xmemory
; File C:\Program Files (x86)\Microsoft Visual Studio\2019\Community\VC\Tools\MSVC\14.29.30133\include\deque
; File C:\Program Files (x86)\Microsoft Visual Studio\2019\Community\VC\Tools\MSVC\14.29.30133\include\xmemory
; File C:\Program Files (x86)\Microsoft Visual Studio\2019\Community\VC\Tools\MSVC\14.29.30133\include\deque
;	COMDAT ?_Tidy@?$deque@PAVCElement@@V?$allocator@PAVCElement@@@std@@@std@@AAEXXZ
_TEXT	SEGMENT
?_Tidy@?$deque@PAVCElement@@V?$allocator@PAVCElement@@@std@@@std@@AAEXXZ PROC ; std::deque<CElement *,std::allocator<CElement *> >::_Tidy, COMDAT
; _this$ = ecx

; 1471 :     void _Tidy() noexcept { // free all storage

  00000	57		 push	 edi
  00001	8b f9		 mov	 edi, ecx

; 1002 :         return _Mysize() == 0;

  00003	8b 4f 10	 mov	 ecx, DWORD PTR [edi+16]
  00006	85 c9		 test	 ecx, ecx

; 1472 :         _Orphan_all();
; 1473 : 
; 1474 :         _Alpty _Almap(_Getal());
; 1475 :         while (!empty()) {

  00008	74 15		 je	 SHORT $LN60@Tidy
  0000a	66 0f 1f 44 00
	00		 npad	 6
$LL2@Tidy:

; 1146 :         if (--_Mysize() == 0) {

  00010	8d 41 ff	 lea	 eax, DWORD PTR [ecx-1]
  00013	89 47 10	 mov	 DWORD PTR [edi+16], eax
  00016	8b c8		 mov	 ecx, eax
  00018	85 c0		 test	 eax, eax
  0001a	75 f4		 jne	 SHORT $LL2@Tidy

; 1147 :             _Myoff() = 0;

  0001c	89 47 0c	 mov	 DWORD PTR [edi+12], eax
$LN60@Tidy:
  0001f	56		 push	 esi

; 1479 :         for (size_type _Block = _Mapsize(); 0 < _Block;) { // free storage for a block and destroy pointer

  00020	8b 77 08	 mov	 esi, DWORD PTR [edi+8]
  00023	85 f6		 test	 esi, esi
  00025	74 1a		 je	 SHORT $LN5@Tidy
$LL4@Tidy:

; 1480 :             if (_Map()[--_Block]) { // free block and destroy its pointer

  00027	8b 47 04	 mov	 eax, DWORD PTR [edi+4]
  0002a	4e		 dec	 esi
  0002b	8b 04 b0	 mov	 eax, DWORD PTR [eax+esi*4]
  0002e	85 c0		 test	 eax, eax
  00030	74 0b		 je	 SHORT $LN23@Tidy
; File C:\Program Files (x86)\Microsoft Visual Studio\2019\Community\VC\Tools\MSVC\14.29.30133\include\xmemory

; 255  :         ::operator delete(_Ptr, _Bytes);

  00032	6a 10		 push	 16			; 00000010H
  00034	50		 push	 eax
  00035	e8 00 00 00 00	 call	 ??3@YAXPAXI@Z		; operator delete
  0003a	83 c4 08	 add	 esp, 8
$LN23@Tidy:
; File C:\Program Files (x86)\Microsoft Visual Studio\2019\Community\VC\Tools\MSVC\14.29.30133\include\deque

; 1479 :         for (size_type _Block = _Mapsize(); 0 < _Block;) { // free storage for a block and destroy pointer

  0003d	85 f6		 test	 esi, esi
  0003f	75 e6		 jne	 SHORT $LL4@Tidy
$LN5@Tidy:

; 1481 :                 _Getal().deallocate(_Map()[_Block], _Block_size);
; 1482 :                 _Destroy_in_place(_Map()[_Block]);
; 1483 :             }
; 1484 :         }
; 1485 : 
; 1486 :         if (_Map() != _Mapptr()) {

  00041	8b 47 04	 mov	 eax, DWORD PTR [edi+4]
  00044	5e		 pop	 esi
  00045	85 c0		 test	 eax, eax
  00047	74 2a		 je	 SHORT $LN41@Tidy
; File C:\Program Files (x86)\Microsoft Visual Studio\2019\Community\VC\Tools\MSVC\14.29.30133\include\xmemory

; 797  :         _Deallocate<_New_alignof<_Ty>>(_Ptr, sizeof(_Ty) * _Count);

  00049	8b 4f 08	 mov	 ecx, DWORD PTR [edi+8]
  0004c	c1 e1 02	 shl	 ecx, 2

; 251  :         if (_Bytes >= _Big_allocation_threshold) { // boost the alignment of big allocations to help autovectorization

  0004f	81 f9 00 10 00
	00		 cmp	 ecx, 4096		; 00001000H
  00055	72 12		 jb	 SHORT $LN51@Tidy

; 150  :     const uintptr_t _Ptr_container   = _Ptr_user[-1];

  00057	8b 50 fc	 mov	 edx, DWORD PTR [eax-4]
  0005a	83 c1 23	 add	 ecx, 35			; 00000023H

; 151  : 
; 152  :     // If the following asserts, it likely means that we are performing
; 153  :     // an aligned delete on memory coming from an unaligned allocation.
; 154  :     _STL_ASSERT(_Ptr_user[-2] == _Big_allocation_sentinel, "invalid argument");
; 155  : 
; 156  :     // Extra paranoia on aligned allocation/deallocation; ensure _Ptr_container is
; 157  :     // in range [_Min_back_shift, _Non_user_size]
; 158  : #ifdef _DEBUG
; 159  :     constexpr uintptr_t _Min_back_shift = 2 * sizeof(void*);
; 160  : #else // ^^^ _DEBUG ^^^ // vvv !_DEBUG vvv
; 161  :     constexpr uintptr_t _Min_back_shift = sizeof(void*);
; 162  : #endif // _DEBUG
; 163  :     const uintptr_t _Back_shift = reinterpret_cast<uintptr_t>(_Ptr) - _Ptr_container;

  0005d	2b c2		 sub	 eax, edx

; 164  :     _STL_VERIFY(_Back_shift >= _Min_back_shift && _Back_shift <= _Non_user_size, "invalid argument");

  0005f	83 c0 fc	 add	 eax, -4			; fffffffcH
  00062	83 f8 1f	 cmp	 eax, 31			; 0000001fH
  00065	77 1c		 ja	 SHORT $LN48@Tidy

; 165  :     _Ptr = reinterpret_cast<void*>(_Ptr_container);

  00067	8b c2		 mov	 eax, edx
$LN51@Tidy:

; 255  :         ::operator delete(_Ptr, _Bytes);

  00069	51		 push	 ecx
  0006a	50		 push	 eax
  0006b	e8 00 00 00 00	 call	 ??3@YAXPAXI@Z		; operator delete
  00070	83 c4 08	 add	 esp, 8
$LN41@Tidy:
; File C:\Program Files (x86)\Microsoft Visual Studio\2019\Community\VC\Tools\MSVC\14.29.30133\include\deque

; 1490 :         _Mapsize() = 0;

  00073	c7 47 08 00 00
	00 00		 mov	 DWORD PTR [edi+8], 0

; 1491 :         _Map()     = _Mapptr();

  0007a	c7 47 04 00 00
	00 00		 mov	 DWORD PTR [edi+4], 0
  00081	5f		 pop	 edi

; 1492 :     }

  00082	c3		 ret	 0
$LN48@Tidy:
; File C:\Program Files (x86)\Microsoft Visual Studio\2019\Community\VC\Tools\MSVC\14.29.30133\include\xmemory

; 164  :     _STL_VERIFY(_Back_shift >= _Min_back_shift && _Back_shift <= _Non_user_size, "invalid argument");

  00083	ff 15 00 00 00
	00		 call	 DWORD PTR __imp___invalid_parameter_noinfo_noreturn
$LN62@Tidy:
  00089	cc		 int	 3
?_Tidy@?$deque@PAVCElement@@V?$allocator@PAVCElement@@@std@@@std@@AAEXXZ ENDP ; std::deque<CElement *,std::allocator<CElement *> >::_Tidy
_TEXT	ENDS
; Function compile flags: /Ogtp
;	COMDAT ??1CCoordinate@@QAE@XZ
_TEXT	SEGMENT
??1CCoordinate@@QAE@XZ PROC				; CCoordinate::~CCoordinate, COMDAT
; _this$ = ecx
  00000	83 c1 14	 add	 ecx, 20			; 00000014H
  00003	ff 25 00 00 00
	00		 jmp	 DWORD PTR __imp_??1?$CStringT@DV?$StrTraitMFC_DLL@DV?$ChTraitsCRT@D@ATL@@@@@ATL@@QAE@XZ
??1CCoordinate@@QAE@XZ ENDP				; CCoordinate::~CCoordinate
_TEXT	ENDS
; Function compile flags: /Ogtp
; File C:\Program Files (x86)\Microsoft Visual Studio\2019\Community\VC\Tools\MSVC\14.29.30133\include\deque
; File C:\Program Files (x86)\Microsoft Visual Studio\2019\Community\VC\Tools\MSVC\14.29.30133\include\utility
; File C:\Program Files (x86)\Microsoft Visual Studio\2019\Community\VC\Tools\MSVC\14.29.30133\include\xmemory
; File C:\Program Files (x86)\Microsoft Visual Studio\2019\Community\VC\Tools\MSVC\14.29.30133\include\utility
; File C:\Program Files (x86)\Microsoft Visual Studio\2019\Community\VC\Tools\MSVC\14.29.30133\include\xmemory
;	COMDAT ??1CBlockRegionList@@QAE@XZ
_TEXT	SEGMENT
??1CBlockRegionList@@QAE@XZ PROC			; CBlockRegionList::~CBlockRegionList, COMDAT
; _this$ = ecx
; File C:\Program Files (x86)\Microsoft Visual Studio\2019\Community\VC\Tools\MSVC\14.29.30133\include\deque

; 1332 :         _Tidy();

  00000	56		 push	 esi
  00001	8d 71 04	 lea	 esi, DWORD PTR [ecx+4]
  00004	8b ce		 mov	 ecx, esi
  00006	e8 00 00 00 00	 call	 ?_Tidy@?$deque@VCBlockRegion@@V?$allocator@VCBlockRegion@@@std@@@std@@AAEXXZ ; std::deque<CBlockRegion,std::allocator<CBlockRegion> >::_Tidy

; 861  :         _Tidy();

  0000b	8b ce		 mov	 ecx, esi
  0000d	e8 00 00 00 00	 call	 ?_Tidy@?$deque@VCBlockRegion@@V?$allocator@VCBlockRegion@@@std@@@std@@AAEXXZ ; std::deque<CBlockRegion,std::allocator<CBlockRegion> >::_Tidy
; File C:\Program Files (x86)\Microsoft Visual Studio\2019\Community\VC\Tools\MSVC\14.29.30133\include\utility

; 602  :     _Ty _Old_val = static_cast<_Ty&&>(_Val);

  00012	8b 06		 mov	 eax, DWORD PTR [esi]
; File C:\Program Files (x86)\Microsoft Visual Studio\2019\Community\VC\Tools\MSVC\14.29.30133\include\xmemory

; 255  :         ::operator delete(_Ptr, _Bytes);

  00014	6a 08		 push	 8
  00016	50		 push	 eax
; File C:\Program Files (x86)\Microsoft Visual Studio\2019\Community\VC\Tools\MSVC\14.29.30133\include\utility

; 603  :     _Val         = static_cast<_Other&&>(_New_val);

  00017	c7 06 00 00 00
	00		 mov	 DWORD PTR [esi], 0
; File C:\Program Files (x86)\Microsoft Visual Studio\2019\Community\VC\Tools\MSVC\14.29.30133\include\xmemory

; 255  :         ::operator delete(_Ptr, _Bytes);

  0001d	e8 00 00 00 00	 call	 ??3@YAXPAXI@Z		; operator delete
  00022	83 c4 08	 add	 esp, 8
  00025	5e		 pop	 esi
  00026	c3		 ret	 0
??1CBlockRegionList@@QAE@XZ ENDP			; CBlockRegionList::~CBlockRegionList
_TEXT	ENDS
; Function compile flags: /Ogtp
; File C:\Program Files (x86)\Microsoft Visual Studio\2019\Community\VC\Tools\MSVC\14.29.30133\include\deque
; File C:\Program Files (x86)\Microsoft Visual Studio\2019\Community\VC\Tools\MSVC\14.29.30133\include\xmemory
; File C:\Program Files (x86)\Microsoft Visual Studio\2019\Community\VC\Tools\MSVC\14.29.30133\include\deque
; File C:\Program Files (x86)\Microsoft Visual Studio\2019\Community\VC\Tools\MSVC\14.29.30133\include\xmemory
; File C:\Program Files (x86)\Microsoft Visual Studio\2019\Community\VC\Tools\MSVC\14.29.30133\include\deque
; File C:\Program Files (x86)\Microsoft Visual Studio\2019\Community\VC\Tools\MSVC\14.29.30133\include\xmemory
; File C:\Program Files (x86)\Microsoft Visual Studio\2019\Community\VC\Tools\MSVC\14.29.30133\include\deque
;	COMDAT ?_Tidy@?$deque@VCBlockRegion@@V?$allocator@VCBlockRegion@@@std@@@std@@AAEXXZ
_TEXT	SEGMENT
?_Tidy@?$deque@VCBlockRegion@@V?$allocator@VCBlockRegion@@@std@@@std@@AAEXXZ PROC ; std::deque<CBlockRegion,std::allocator<CBlockRegion> >::_Tidy, COMDAT
; _this$ = ecx

; 1471 :     void _Tidy() noexcept { // free all storage

  00000	57		 push	 edi
  00001	8b f9		 mov	 edi, ecx

; 1002 :         return _Mysize() == 0;

  00003	8b 4f 10	 mov	 ecx, DWORD PTR [edi+16]
  00006	85 c9		 test	 ecx, ecx

; 1472 :         _Orphan_all();
; 1473 : 
; 1474 :         _Alpty _Almap(_Getal());
; 1475 :         while (!empty()) {

  00008	74 15		 je	 SHORT $LN60@Tidy
  0000a	66 0f 1f 44 00
	00		 npad	 6
$LL2@Tidy:

; 1146 :         if (--_Mysize() == 0) {

  00010	8d 41 ff	 lea	 eax, DWORD PTR [ecx-1]
  00013	89 47 10	 mov	 DWORD PTR [edi+16], eax
  00016	8b c8		 mov	 ecx, eax
  00018	85 c0		 test	 eax, eax
  0001a	75 f4		 jne	 SHORT $LL2@Tidy

; 1147 :             _Myoff() = 0;

  0001c	89 47 0c	 mov	 DWORD PTR [edi+12], eax
$LN60@Tidy:
  0001f	56		 push	 esi

; 1479 :         for (size_type _Block = _Mapsize(); 0 < _Block;) { // free storage for a block and destroy pointer

  00020	8b 77 08	 mov	 esi, DWORD PTR [edi+8]
  00023	85 f6		 test	 esi, esi
  00025	74 1a		 je	 SHORT $LN5@Tidy
$LL4@Tidy:

; 1480 :             if (_Map()[--_Block]) { // free block and destroy its pointer

  00027	8b 47 04	 mov	 eax, DWORD PTR [edi+4]
  0002a	4e		 dec	 esi
  0002b	8b 04 b0	 mov	 eax, DWORD PTR [eax+esi*4]
  0002e	85 c0		 test	 eax, eax
  00030	74 0b		 je	 SHORT $LN23@Tidy
; File C:\Program Files (x86)\Microsoft Visual Studio\2019\Community\VC\Tools\MSVC\14.29.30133\include\xmemory

; 255  :         ::operator delete(_Ptr, _Bytes);

  00032	6a 60		 push	 96			; 00000060H
  00034	50		 push	 eax
  00035	e8 00 00 00 00	 call	 ??3@YAXPAXI@Z		; operator delete
  0003a	83 c4 08	 add	 esp, 8
$LN23@Tidy:
; File C:\Program Files (x86)\Microsoft Visual Studio\2019\Community\VC\Tools\MSVC\14.29.30133\include\deque

; 1479 :         for (size_type _Block = _Mapsize(); 0 < _Block;) { // free storage for a block and destroy pointer

  0003d	85 f6		 test	 esi, esi
  0003f	75 e6		 jne	 SHORT $LL4@Tidy
$LN5@Tidy:

; 1481 :                 _Getal().deallocate(_Map()[_Block], _Block_size);
; 1482 :                 _Destroy_in_place(_Map()[_Block]);
; 1483 :             }
; 1484 :         }
; 1485 : 
; 1486 :         if (_Map() != _Mapptr()) {

  00041	8b 47 04	 mov	 eax, DWORD PTR [edi+4]
  00044	5e		 pop	 esi
  00045	85 c0		 test	 eax, eax
  00047	74 2a		 je	 SHORT $LN41@Tidy
; File C:\Program Files (x86)\Microsoft Visual Studio\2019\Community\VC\Tools\MSVC\14.29.30133\include\xmemory

; 797  :         _Deallocate<_New_alignof<_Ty>>(_Ptr, sizeof(_Ty) * _Count);

  00049	8b 4f 08	 mov	 ecx, DWORD PTR [edi+8]
  0004c	c1 e1 02	 shl	 ecx, 2

; 251  :         if (_Bytes >= _Big_allocation_threshold) { // boost the alignment of big allocations to help autovectorization

  0004f	81 f9 00 10 00
	00		 cmp	 ecx, 4096		; 00001000H
  00055	72 12		 jb	 SHORT $LN51@Tidy

; 150  :     const uintptr_t _Ptr_container   = _Ptr_user[-1];

  00057	8b 50 fc	 mov	 edx, DWORD PTR [eax-4]
  0005a	83 c1 23	 add	 ecx, 35			; 00000023H

; 151  : 
; 152  :     // If the following asserts, it likely means that we are performing
; 153  :     // an aligned delete on memory coming from an unaligned allocation.
; 154  :     _STL_ASSERT(_Ptr_user[-2] == _Big_allocation_sentinel, "invalid argument");
; 155  : 
; 156  :     // Extra paranoia on aligned allocation/deallocation; ensure _Ptr_container is
; 157  :     // in range [_Min_back_shift, _Non_user_size]
; 158  : #ifdef _DEBUG
; 159  :     constexpr uintptr_t _Min_back_shift = 2 * sizeof(void*);
; 160  : #else // ^^^ _DEBUG ^^^ // vvv !_DEBUG vvv
; 161  :     constexpr uintptr_t _Min_back_shift = sizeof(void*);
; 162  : #endif // _DEBUG
; 163  :     const uintptr_t _Back_shift = reinterpret_cast<uintptr_t>(_Ptr) - _Ptr_container;

  0005d	2b c2		 sub	 eax, edx

; 164  :     _STL_VERIFY(_Back_shift >= _Min_back_shift && _Back_shift <= _Non_user_size, "invalid argument");

  0005f	83 c0 fc	 add	 eax, -4			; fffffffcH
  00062	83 f8 1f	 cmp	 eax, 31			; 0000001fH
  00065	77 1c		 ja	 SHORT $LN48@Tidy

; 165  :     _Ptr = reinterpret_cast<void*>(_Ptr_container);

  00067	8b c2		 mov	 eax, edx
$LN51@Tidy:

; 255  :         ::operator delete(_Ptr, _Bytes);

  00069	51		 push	 ecx
  0006a	50		 push	 eax
  0006b	e8 00 00 00 00	 call	 ??3@YAXPAXI@Z		; operator delete
  00070	83 c4 08	 add	 esp, 8
$LN41@Tidy:
; File C:\Program Files (x86)\Microsoft Visual Studio\2019\Community\VC\Tools\MSVC\14.29.30133\include\deque

; 1490 :         _Mapsize() = 0;

  00073	c7 47 08 00 00
	00 00		 mov	 DWORD PTR [edi+8], 0

; 1491 :         _Map()     = _Mapptr();

  0007a	c7 47 04 00 00
	00 00		 mov	 DWORD PTR [edi+4], 0
  00081	5f		 pop	 edi

; 1492 :     }

  00082	c3		 ret	 0
$LN48@Tidy:
; File C:\Program Files (x86)\Microsoft Visual Studio\2019\Community\VC\Tools\MSVC\14.29.30133\include\xmemory

; 164  :     _STL_VERIFY(_Back_shift >= _Min_back_shift && _Back_shift <= _Non_user_size, "invalid argument");

  00083	ff 15 00 00 00
	00		 call	 DWORD PTR __imp___invalid_parameter_noinfo_noreturn
$LN62@Tidy:
  00089	cc		 int	 3
?_Tidy@?$deque@VCBlockRegion@@V?$allocator@VCBlockRegion@@@std@@@std@@AAEXXZ ENDP ; std::deque<CBlockRegion,std::allocator<CBlockRegion> >::_Tidy
_TEXT	ENDS
; Function compile flags: /Ogtp
; File C:\Program Files (x86)\Microsoft Visual Studio\2019\Community\VC\Tools\MSVC\14.29.30133\include\exception
;	COMDAT ?_Throw_bad_array_new_length@std@@YAXXZ
_TEXT	SEGMENT
$T1 = -12						; size = 12
?_Throw_bad_array_new_length@std@@YAXXZ PROC		; std::_Throw_bad_array_new_length, COMDAT

; 315  : [[noreturn]] inline void _Throw_bad_array_new_length() {

  00000	55		 push	 ebp
  00001	8b ec		 mov	 ebp, esp
  00003	83 ec 0c	 sub	 esp, 12			; 0000000cH

; 316  :     _THROW(bad_array_new_length{});

  00006	8d 4d f4	 lea	 ecx, DWORD PTR $T1[ebp]
  00009	e8 00 00 00 00	 call	 ??0bad_array_new_length@std@@QAE@XZ ; std::bad_array_new_length::bad_array_new_length
  0000e	68 00 00 00 00	 push	 OFFSET __TI3?AVbad_array_new_length@std@@
  00013	8d 45 f4	 lea	 eax, DWORD PTR $T1[ebp]
  00016	50		 push	 eax
  00017	e8 00 00 00 00	 call	 __CxxThrowException@8
$LN3@Throw_bad_:
  0001c	cc		 int	 3
?_Throw_bad_array_new_length@std@@YAXXZ ENDP		; std::_Throw_bad_array_new_length
_TEXT	ENDS
; Function compile flags: /Ogtp
; File C:\Program Files (x86)\Microsoft Visual Studio\2019\Community\VC\Tools\MSVC\14.29.30133\include\vcruntime_exception.h
;	COMDAT ??_Gbad_array_new_length@std@@UAEPAXI@Z
_TEXT	SEGMENT
___flags$ = 8						; size = 4
??_Gbad_array_new_length@std@@UAEPAXI@Z PROC		; std::bad_array_new_length::`scalar deleting destructor', COMDAT
; _this$ = ecx
  00000	55		 push	 ebp
  00001	8b ec		 mov	 ebp, esp

; 89   :     {

  00003	56		 push	 esi
  00004	8b f1		 mov	 esi, ecx

; 90   :         __std_exception_destroy(&_Data);

  00006	8d 46 04	 lea	 eax, DWORD PTR [esi+4]
  00009	c7 06 00 00 00
	00		 mov	 DWORD PTR [esi], OFFSET ??_7exception@std@@6B@
  0000f	50		 push	 eax
  00010	e8 00 00 00 00	 call	 ___std_exception_destroy
  00015	83 c4 04	 add	 esp, 4
  00018	f6 45 08 01	 test	 BYTE PTR ___flags$[ebp], 1
  0001c	74 0b		 je	 SHORT $LN12@scalar
  0001e	6a 0c		 push	 12			; 0000000cH
  00020	56		 push	 esi
  00021	e8 00 00 00 00	 call	 ??3@YAXPAXI@Z		; operator delete
  00026	83 c4 08	 add	 esp, 8
$LN12@scalar:
  00029	8b c6		 mov	 eax, esi
  0002b	5e		 pop	 esi
  0002c	5d		 pop	 ebp
  0002d	c2 04 00	 ret	 4
??_Gbad_array_new_length@std@@UAEPAXI@Z ENDP		; std::bad_array_new_length::`scalar deleting destructor'
_TEXT	ENDS
; Function compile flags: /Ogtp
; File C:\Program Files (x86)\Microsoft Visual Studio\2019\Community\VC\Tools\MSVC\14.29.30133\include\vcruntime_exception.h
;	COMDAT ??0bad_array_new_length@std@@QAE@ABV01@@Z
_TEXT	SEGMENT
___that$ = 8						; size = 4
??0bad_array_new_length@std@@QAE@ABV01@@Z PROC		; std::bad_array_new_length::bad_array_new_length, COMDAT
; _this$ = ecx
  00000	55		 push	 ebp
  00001	8b ec		 mov	 ebp, esp

; 72   :     {

  00003	56		 push	 esi
  00004	8b f1		 mov	 esi, ecx
  00006	0f 57 c0	 xorps	 xmm0, xmm0

; 71   :         : _Data()

  00009	8d 46 04	 lea	 eax, DWORD PTR [esi+4]

; 73   :         __std_exception_copy(&_Other._Data, &_Data);

  0000c	50		 push	 eax
  0000d	c7 06 00 00 00
	00		 mov	 DWORD PTR [esi], OFFSET ??_7exception@std@@6B@
  00013	66 0f d6 00	 movq	 QWORD PTR [eax], xmm0
  00017	8b 45 08	 mov	 eax, DWORD PTR ___that$[ebp]
  0001a	83 c0 04	 add	 eax, 4
  0001d	50		 push	 eax
  0001e	e8 00 00 00 00	 call	 ___std_exception_copy
  00023	83 c4 08	 add	 esp, 8
  00026	c7 06 00 00 00
	00		 mov	 DWORD PTR [esi], OFFSET ??_7bad_array_new_length@std@@6B@
  0002c	8b c6		 mov	 eax, esi
  0002e	5e		 pop	 esi
  0002f	5d		 pop	 ebp
  00030	c2 04 00	 ret	 4
??0bad_array_new_length@std@@QAE@ABV01@@Z ENDP		; std::bad_array_new_length::bad_array_new_length
_TEXT	ENDS
; Function compile flags: /Ogtp
; File C:\Program Files (x86)\Microsoft Visual Studio\2019\Community\VC\Tools\MSVC\14.29.30133\include\vcruntime_exception.h
;	COMDAT ??1bad_array_new_length@std@@UAE@XZ
_TEXT	SEGMENT
??1bad_array_new_length@std@@UAE@XZ PROC		; std::bad_array_new_length::~bad_array_new_length, COMDAT
; _this$ = ecx

; 90   :         __std_exception_destroy(&_Data);

  00000	8d 41 04	 lea	 eax, DWORD PTR [ecx+4]
  00003	c7 01 00 00 00
	00		 mov	 DWORD PTR [ecx], OFFSET ??_7exception@std@@6B@
  00009	50		 push	 eax
  0000a	e8 00 00 00 00	 call	 ___std_exception_destroy
  0000f	59		 pop	 ecx
  00010	c3		 ret	 0
??1bad_array_new_length@std@@UAE@XZ ENDP		; std::bad_array_new_length::~bad_array_new_length
_TEXT	ENDS
; Function compile flags: /Ogtp
; File C:\Program Files (x86)\Microsoft Visual Studio\2019\Community\VC\Tools\MSVC\14.29.30133\include\vcruntime_exception.h
;	COMDAT ??0bad_array_new_length@std@@QAE@XZ
_TEXT	SEGMENT
??0bad_array_new_length@std@@QAE@XZ PROC		; std::bad_array_new_length::bad_array_new_length, COMDAT
; _this$ = ecx

; 141  :     {

  00000	0f 57 c0	 xorps	 xmm0, xmm0

; 142  :     }

  00003	8b c1		 mov	 eax, ecx

; 65   :         : _Data()

  00005	66 0f d6 41 04	 movq	 QWORD PTR [ecx+4], xmm0

; 66   :     {
; 67   :         _Data._What = _Message;

  0000a	c7 41 04 00 00
	00 00		 mov	 DWORD PTR [ecx+4], OFFSET ??_C@_0BF@KINCDENJ@bad?5array?5new?5length@

; 141  :     {

  00011	c7 01 00 00 00
	00		 mov	 DWORD PTR [ecx], OFFSET ??_7bad_array_new_length@std@@6B@

; 142  :     }

  00017	c3		 ret	 0
??0bad_array_new_length@std@@QAE@XZ ENDP		; std::bad_array_new_length::bad_array_new_length
_TEXT	ENDS
; Function compile flags: /Ogtp
; File C:\Program Files (x86)\Microsoft Visual Studio\2019\Community\VC\Tools\MSVC\14.29.30133\include\vcruntime_exception.h
;	COMDAT ??_Gbad_alloc@std@@UAEPAXI@Z
_TEXT	SEGMENT
___flags$ = 8						; size = 4
??_Gbad_alloc@std@@UAEPAXI@Z PROC			; std::bad_alloc::`scalar deleting destructor', COMDAT
; _this$ = ecx
  00000	55		 push	 ebp
  00001	8b ec		 mov	 ebp, esp

; 89   :     {

  00003	56		 push	 esi
  00004	8b f1		 mov	 esi, ecx

; 90   :         __std_exception_destroy(&_Data);

  00006	8d 46 04	 lea	 eax, DWORD PTR [esi+4]
  00009	c7 06 00 00 00
	00		 mov	 DWORD PTR [esi], OFFSET ??_7exception@std@@6B@
  0000f	50		 push	 eax
  00010	e8 00 00 00 00	 call	 ___std_exception_destroy
  00015	83 c4 04	 add	 esp, 4
  00018	f6 45 08 01	 test	 BYTE PTR ___flags$[ebp], 1
  0001c	74 0b		 je	 SHORT $LN9@scalar
  0001e	6a 0c		 push	 12			; 0000000cH
  00020	56		 push	 esi
  00021	e8 00 00 00 00	 call	 ??3@YAXPAXI@Z		; operator delete
  00026	83 c4 08	 add	 esp, 8
$LN9@scalar:
  00029	8b c6		 mov	 eax, esi
  0002b	5e		 pop	 esi
  0002c	5d		 pop	 ebp
  0002d	c2 04 00	 ret	 4
??_Gbad_alloc@std@@UAEPAXI@Z ENDP			; std::bad_alloc::`scalar deleting destructor'
_TEXT	ENDS
; Function compile flags: /Ogtp
; File C:\Program Files (x86)\Microsoft Visual Studio\2019\Community\VC\Tools\MSVC\14.29.30133\include\vcruntime_exception.h
;	COMDAT ??0bad_alloc@std@@QAE@ABV01@@Z
_TEXT	SEGMENT
___that$ = 8						; size = 4
??0bad_alloc@std@@QAE@ABV01@@Z PROC			; std::bad_alloc::bad_alloc, COMDAT
; _this$ = ecx
  00000	55		 push	 ebp
  00001	8b ec		 mov	 ebp, esp

; 72   :     {

  00003	56		 push	 esi
  00004	8b f1		 mov	 esi, ecx
  00006	0f 57 c0	 xorps	 xmm0, xmm0

; 71   :         : _Data()

  00009	8d 46 04	 lea	 eax, DWORD PTR [esi+4]

; 73   :         __std_exception_copy(&_Other._Data, &_Data);

  0000c	50		 push	 eax
  0000d	c7 06 00 00 00
	00		 mov	 DWORD PTR [esi], OFFSET ??_7exception@std@@6B@
  00013	66 0f d6 00	 movq	 QWORD PTR [eax], xmm0
  00017	8b 45 08	 mov	 eax, DWORD PTR ___that$[ebp]
  0001a	83 c0 04	 add	 eax, 4
  0001d	50		 push	 eax
  0001e	e8 00 00 00 00	 call	 ___std_exception_copy
  00023	83 c4 08	 add	 esp, 8
  00026	c7 06 00 00 00
	00		 mov	 DWORD PTR [esi], OFFSET ??_7bad_alloc@std@@6B@
  0002c	8b c6		 mov	 eax, esi
  0002e	5e		 pop	 esi
  0002f	5d		 pop	 ebp
  00030	c2 04 00	 ret	 4
??0bad_alloc@std@@QAE@ABV01@@Z ENDP			; std::bad_alloc::bad_alloc
_TEXT	ENDS
; Function compile flags: /Ogtp
; File C:\Program Files (x86)\Microsoft Visual Studio\2019\Community\VC\Tools\MSVC\14.29.30133\include\vcruntime_exception.h
;	COMDAT ??_Gexception@std@@UAEPAXI@Z
_TEXT	SEGMENT
___flags$ = 8						; size = 4
??_Gexception@std@@UAEPAXI@Z PROC			; std::exception::`scalar deleting destructor', COMDAT
; _this$ = ecx
  00000	55		 push	 ebp
  00001	8b ec		 mov	 ebp, esp

; 89   :     {

  00003	56		 push	 esi
  00004	8b f1		 mov	 esi, ecx

; 90   :         __std_exception_destroy(&_Data);

  00006	8d 46 04	 lea	 eax, DWORD PTR [esi+4]
  00009	c7 06 00 00 00
	00		 mov	 DWORD PTR [esi], OFFSET ??_7exception@std@@6B@
  0000f	50		 push	 eax
  00010	e8 00 00 00 00	 call	 ___std_exception_destroy
  00015	83 c4 04	 add	 esp, 4
  00018	f6 45 08 01	 test	 BYTE PTR ___flags$[ebp], 1
  0001c	74 0b		 je	 SHORT $LN6@scalar
  0001e	6a 0c		 push	 12			; 0000000cH
  00020	56		 push	 esi
  00021	e8 00 00 00 00	 call	 ??3@YAXPAXI@Z		; operator delete
  00026	83 c4 08	 add	 esp, 8
$LN6@scalar:
  00029	8b c6		 mov	 eax, esi
  0002b	5e		 pop	 esi
  0002c	5d		 pop	 ebp
  0002d	c2 04 00	 ret	 4
??_Gexception@std@@UAEPAXI@Z ENDP			; std::exception::`scalar deleting destructor'
_TEXT	ENDS
; Function compile flags: /Ogtp
; File C:\Program Files (x86)\Microsoft Visual Studio\2019\Community\VC\Tools\MSVC\14.29.30133\include\vcruntime_exception.h
;	COMDAT ?what@exception@std@@UBEPBDXZ
_TEXT	SEGMENT
?what@exception@std@@UBEPBDXZ PROC			; std::exception::what, COMDAT
; _this$ = ecx

; 95   :         return _Data._What ? _Data._What : "Unknown exception";

  00000	8b 49 04	 mov	 ecx, DWORD PTR [ecx+4]
  00003	b8 00 00 00 00	 mov	 eax, OFFSET ??_C@_0BC@EOODALEL@Unknown?5exception@
  00008	85 c9		 test	 ecx, ecx
  0000a	0f 45 c1	 cmovne	 eax, ecx

; 96   :     }

  0000d	c3		 ret	 0
?what@exception@std@@UBEPBDXZ ENDP			; std::exception::what
_TEXT	ENDS
; Function compile flags: /Ogtp
; File C:\Program Files (x86)\Microsoft Visual Studio\2019\Community\VC\Tools\MSVC\14.29.30133\include\vcruntime_exception.h
;	COMDAT ??1exception@std@@UAE@XZ
_TEXT	SEGMENT
??1exception@std@@UAE@XZ PROC				; std::exception::~exception, COMDAT
; _this$ = ecx

; 90   :         __std_exception_destroy(&_Data);

  00000	8d 41 04	 lea	 eax, DWORD PTR [ecx+4]
  00003	c7 01 00 00 00
	00		 mov	 DWORD PTR [ecx], OFFSET ??_7exception@std@@6B@
  00009	50		 push	 eax
  0000a	e8 00 00 00 00	 call	 ___std_exception_destroy
  0000f	59		 pop	 ecx

; 91   :     }

  00010	c3		 ret	 0
??1exception@std@@UAE@XZ ENDP				; std::exception::~exception
_TEXT	ENDS
; Function compile flags: /Ogtp
; File C:\Program Files (x86)\Microsoft Visual Studio\2019\Community\VC\Tools\MSVC\14.29.30133\include\vcruntime_exception.h
;	COMDAT ??0exception@std@@QAE@ABV01@@Z
_TEXT	SEGMENT
__Other$ = 8						; size = 4
??0exception@std@@QAE@ABV01@@Z PROC			; std::exception::exception, COMDAT
; _this$ = ecx

; 72   :     {

  00000	55		 push	 ebp
  00001	8b ec		 mov	 ebp, esp
  00003	56		 push	 esi
  00004	8b f1		 mov	 esi, ecx
  00006	0f 57 c0	 xorps	 xmm0, xmm0
  00009	8d 46 04	 lea	 eax, DWORD PTR [esi+4]

; 73   :         __std_exception_copy(&_Other._Data, &_Data);

  0000c	50		 push	 eax
  0000d	c7 06 00 00 00
	00		 mov	 DWORD PTR [esi], OFFSET ??_7exception@std@@6B@
  00013	66 0f d6 00	 movq	 QWORD PTR [eax], xmm0
  00017	8b 45 08	 mov	 eax, DWORD PTR __Other$[ebp]
  0001a	83 c0 04	 add	 eax, 4
  0001d	50		 push	 eax
  0001e	e8 00 00 00 00	 call	 ___std_exception_copy
  00023	83 c4 08	 add	 esp, 8

; 74   :     }

  00026	8b c6		 mov	 eax, esi
  00028	5e		 pop	 esi
  00029	5d		 pop	 ebp
  0002a	c2 04 00	 ret	 4
??0exception@std@@QAE@ABV01@@Z ENDP			; std::exception::exception
_TEXT	ENDS
; Function compile flags: /Ogtp
; File D:\git\src\IBK\IBK_DRFN\ProjSrc\SrcChartEx\ChartAddIn\ChartAnalysisToolAddIn\Include_AddIn_133101\I133101\_IString.h
;	COMDAT ??1ILPCSTR133101@@QAE@XZ
_TEXT	SEGMENT
__$EHRec$ = -12						; size = 12
??1ILPCSTR133101@@QAE@XZ PROC				; ILPCSTR133101::~ILPCSTR133101, COMDAT
; _this$ = ecx

; 44   : 	{

  00000	55		 push	 ebp
  00001	8b ec		 mov	 ebp, esp
  00003	6a ff		 push	 -1
  00005	68 00 00 00 00	 push	 __ehhandler$??1ILPCSTR133101@@QAE@XZ
  0000a	64 a1 00 00 00
	00		 mov	 eax, DWORD PTR fs:0
  00010	50		 push	 eax
  00011	56		 push	 esi
  00012	a1 00 00 00 00	 mov	 eax, DWORD PTR ___security_cookie
  00017	33 c5		 xor	 eax, ebp
  00019	50		 push	 eax
  0001a	8d 45 f4	 lea	 eax, DWORD PTR __$EHRec$[ebp]
  0001d	64 a3 00 00 00
	00		 mov	 DWORD PTR fs:0, eax
  00023	8b f1		 mov	 esi, ecx

; 45   : 		if( m_pIStrData)

  00025	8b 4e 04	 mov	 ecx, DWORD PTR [esi+4]
  00028	85 c9		 test	 ecx, ecx
  0002a	74 13		 je	 SHORT $LN2@ILPCSTR133

; 46   : 		{
; 47   : 			m_pIStrData->Release();

  0002c	8b 01		 mov	 eax, DWORD PTR [ecx]
  0002e	51		 push	 ecx
  0002f	ff 50 08	 call	 DWORD PTR [eax+8]

; 48   : 			m_pIStrData = NULL;

  00032	c7 46 04 00 00
	00 00		 mov	 DWORD PTR [esi+4], 0

; 49   : 			m_szData = NULL;

  00039	c7 06 00 00 00
	00		 mov	 DWORD PTR [esi], 0
$LN2@ILPCSTR133:

; 50   : 		}
; 51   : 	}

  0003f	8b 4d f4	 mov	 ecx, DWORD PTR __$EHRec$[ebp]
  00042	64 89 0d 00 00
	00 00		 mov	 DWORD PTR fs:0, ecx
  00049	59		 pop	 ecx
  0004a	5e		 pop	 esi
  0004b	8b e5		 mov	 esp, ebp
  0004d	5d		 pop	 ebp
  0004e	c3		 ret	 0
  0004f	cc		 int	 3
  00050	cc		 int	 3
  00051	cc		 int	 3
  00052	cc		 int	 3
  00053	cc		 int	 3
_TEXT	ENDS
;	COMDAT text$x
text$x	SEGMENT
__ehhandler$??1ILPCSTR133101@@QAE@XZ:
  00000	90		 npad	 1
  00001	90		 npad	 1
  00002	8b 54 24 08	 mov	 edx, DWORD PTR [esp+8]
  00006	8d 42 0c	 lea	 eax, DWORD PTR [edx+12]
  00009	8b 4a f8	 mov	 ecx, DWORD PTR [edx-8]
  0000c	33 c8		 xor	 ecx, eax
  0000e	e8 00 00 00 00	 call	 @__security_check_cookie@4
  00013	b8 00 00 00 00	 mov	 eax, OFFSET __ehfuncinfo$??1ILPCSTR133101@@QAE@XZ
  00018	e9 00 00 00 00	 jmp	 ___CxxFrameHandler3
text$x	ENDS
??1ILPCSTR133101@@QAE@XZ ENDP				; ILPCSTR133101::~ILPCSTR133101
; Function compile flags: /Ogtp
; File C:\Program Files (x86)\Microsoft Visual Studio\2019\Community\VC\Tools\MSVC\14.29.30133\atlmfc\include\cstringt.h
; File C:\Program Files (x86)\Microsoft Visual Studio\2019\Community\VC\Tools\MSVC\14.29.30133\atlmfc\include\atlsimpstr.h
; File C:\Program Files (x86)\Microsoft Visual Studio\2019\Community\VC\Tools\MSVC\14.29.30133\atlmfc\include\cstringt.h
; File C:\Program Files (x86)\Microsoft Visual Studio\2019\Community\VC\Tools\MSVC\14.29.30133\atlmfc\include\atlsimpstr.h
; File C:\Program Files (x86)\Microsoft Visual Studio\2019\Community\VC\Tools\MSVC\14.29.30133\atlmfc\include\cstringt.h
;	COMDAT ??HATL@@YA?AV?$CStringT@DV?$StrTraitMFC_DLL@DV?$ChTraitsCRT@D@ATL@@@@@0@ABV10@0@Z
_TEXT	SEGMENT
$T2 = -16						; size = 4
__$EHRec$ = -12						; size = 12
___$ReturnUdt$ = 8					; size = 4
_str1$ = 12						; size = 4
_str2$ = 16						; size = 4
??HATL@@YA?AV?$CStringT@DV?$StrTraitMFC_DLL@DV?$ChTraitsCRT@D@ATL@@@@@0@ABV10@0@Z PROC ; ATL::operator+, COMDAT

; 2389 : 	{

  00000	55		 push	 ebp
  00001	8b ec		 mov	 ebp, esp
  00003	6a ff		 push	 -1
  00005	68 00 00 00 00	 push	 __ehhandler$??HATL@@YA?AV?$CStringT@DV?$StrTraitMFC_DLL@DV?$ChTraitsCRT@D@ATL@@@@@0@ABV10@0@Z
  0000a	64 a1 00 00 00
	00		 mov	 eax, DWORD PTR fs:0
  00010	50		 push	 eax
  00011	51		 push	 ecx
  00012	56		 push	 esi
  00013	57		 push	 edi
  00014	a1 00 00 00 00	 mov	 eax, DWORD PTR ___security_cookie
  00019	33 c5		 xor	 eax, ebp
  0001b	50		 push	 eax
  0001c	8d 45 f4	 lea	 eax, DWORD PTR __$EHRec$[ebp]
  0001f	64 a3 00 00 00
	00		 mov	 DWORD PTR fs:0, eax

; 2390 : 		CStringT strResult( str1.GetManager() );

  00025	8b 75 0c	 mov	 esi, DWORD PTR _str1$[ebp]
  00028	8b ce		 mov	 ecx, esi
  0002a	c7 45 f0 00 00
	00 00		 mov	 DWORD PTR $T2[ebp], 0
  00031	ff 15 00 00 00
	00		 call	 DWORD PTR __imp_?GetManager@?$CStringT@DV?$StrTraitMFC_DLL@DV?$ChTraitsCRT@D@ATL@@@@@ATL@@QBEPAUIAtlStringMgr@2@XZ
  00037	8b 7d 08	 mov	 edi, DWORD PTR ___$ReturnUdt$[ebp]
  0003a	8b cf		 mov	 ecx, edi
  0003c	50		 push	 eax
  0003d	ff 15 00 00 00
	00		 call	 DWORD PTR __imp_??0?$CStringT@DV?$StrTraitMFC_DLL@DV?$ChTraitsCRT@D@ATL@@@@@ATL@@QAE@PAUIAtlStringMgr@1@@Z
; File C:\Program Files (x86)\Microsoft Visual Studio\2019\Community\VC\Tools\MSVC\14.29.30133\atlmfc\include\atlsimpstr.h

; 519  : 		return( GetData()->nDataLength );

  00043	8b 45 10	 mov	 eax, DWORD PTR _str2$[ebp]
  00046	8b 16		 mov	 edx, DWORD PTR [esi]
; File C:\Program Files (x86)\Microsoft Visual Studio\2019\Community\VC\Tools\MSVC\14.29.30133\atlmfc\include\cstringt.h

; 2394 : 		return( strResult );

  00048	c7 45 fc 00 00
	00 00		 mov	 DWORD PTR __$EHRec$[ebp+8], 0
  0004f	c7 45 f0 01 00
	00 00		 mov	 DWORD PTR $T2[ebp], 1
; File C:\Program Files (x86)\Microsoft Visual Studio\2019\Community\VC\Tools\MSVC\14.29.30133\atlmfc\include\atlsimpstr.h

; 519  : 		return( GetData()->nDataLength );

  00056	8b 08		 mov	 ecx, DWORD PTR [eax]
; File C:\Program Files (x86)\Microsoft Visual Studio\2019\Community\VC\Tools\MSVC\14.29.30133\atlmfc\include\cstringt.h

; 2392 : 		CThisSimpleString::Concatenate( strResult, str1, str1.GetLength(), str2, str2.GetLength() );

  00058	ff 71 f4	 push	 DWORD PTR [ecx-12]
  0005b	51		 push	 ecx
  0005c	ff 72 f4	 push	 DWORD PTR [edx-12]
  0005f	52		 push	 edx
  00060	57		 push	 edi
  00061	ff 15 00 00 00
	00		 call	 DWORD PTR __imp_?Concatenate@?$CSimpleStringT@D$00@ATL@@KAXAAV12@PBDH1H@Z
  00067	83 c4 14	 add	 esp, 20			; 00000014H

; 2394 : 		return( strResult );

  0006a	8b c7		 mov	 eax, edi

; 2395 : 	}

  0006c	8b 4d f4	 mov	 ecx, DWORD PTR __$EHRec$[ebp]
  0006f	64 89 0d 00 00
	00 00		 mov	 DWORD PTR fs:0, ecx
  00076	59		 pop	 ecx
  00077	5f		 pop	 edi
  00078	5e		 pop	 esi
  00079	8b e5		 mov	 esp, ebp
  0007b	5d		 pop	 ebp
  0007c	c3		 ret	 0
_TEXT	ENDS
;	COMDAT text$x
text$x	SEGMENT
__unwindfunclet$??HATL@@YA?AV?$CStringT@DV?$StrTraitMFC_DLL@DV?$ChTraitsCRT@D@ATL@@@@@0@ABV10@0@Z$0:
  00000	8b 45 f0	 mov	 eax, DWORD PTR $T2[ebp]
  00003	83 e0 01	 and	 eax, 1
  00006	0f 84 0d 00 00
	00		 je	 $LN4@operator
  0000c	83 65 f0 fe	 and	 DWORD PTR $T2[ebp], -2	; fffffffeH
  00010	8b 4d 08	 mov	 ecx, DWORD PTR ___$ReturnUdt$[ebp]
  00013	ff 25 00 00 00
	00		 jmp	 DWORD PTR __imp_??1?$CStringT@DV?$StrTraitMFC_DLL@DV?$ChTraitsCRT@D@ATL@@@@@ATL@@QAE@XZ
$LN4@operator:
  00019	c3		 ret	 0
  0001a	cc		 int	 3
  0001b	cc		 int	 3
  0001c	cc		 int	 3
  0001d	cc		 int	 3
  0001e	cc		 int	 3
__ehhandler$??HATL@@YA?AV?$CStringT@DV?$StrTraitMFC_DLL@DV?$ChTraitsCRT@D@ATL@@@@@0@ABV10@0@Z:
  0001f	90		 npad	 1
  00020	90		 npad	 1
  00021	8b 54 24 08	 mov	 edx, DWORD PTR [esp+8]
  00025	8d 42 0c	 lea	 eax, DWORD PTR [edx+12]
  00028	8b 4a f0	 mov	 ecx, DWORD PTR [edx-16]
  0002b	33 c8		 xor	 ecx, eax
  0002d	e8 00 00 00 00	 call	 @__security_check_cookie@4
  00032	b8 00 00 00 00	 mov	 eax, OFFSET __ehfuncinfo$??HATL@@YA?AV?$CStringT@DV?$StrTraitMFC_DLL@DV?$ChTraitsCRT@D@ATL@@@@@0@ABV10@0@Z
  00037	e9 00 00 00 00	 jmp	 ___CxxFrameHandler3
text$x	ENDS
??HATL@@YA?AV?$CStringT@DV?$StrTraitMFC_DLL@DV?$ChTraitsCRT@D@ATL@@@@@0@ABV10@0@Z ENDP ; ATL::operator+
; Function compile flags: /Ogtp
; File D:\git\src\IBK\IBK_DRFN\ProjSrc\SrcChartEx\ChartAddIn\ChartAnalysisToolAddIn\AnalysisTool\AnalysisData.cpp
;	COMDAT ?__empty_global_delete@@YAXPAXI@Z
_TEXT	SEGMENT
___formal$ = 8						; size = 4
___formal$ = 12						; size = 4
?__empty_global_delete@@YAXPAXI@Z PROC			; __empty_global_delete, COMDAT

  00000	c2 00 00	 ret	 0
?__empty_global_delete@@YAXPAXI@Z ENDP			; __empty_global_delete
_TEXT	ENDS
; Function compile flags: /Ogtp
; File D:\git\src\IBK\IBK_DRFN\ProjSrc\SrcChartEx\ChartAddIn\ChartAnalysisToolAddIn\AnalysisTool\AnalysisData.cpp
;	COMDAT ?__empty_global_delete@@YAXPAX@Z
_TEXT	SEGMENT
___formal$ = 8						; size = 4
?__empty_global_delete@@YAXPAX@Z PROC			; __empty_global_delete, COMDAT

  00000	c2 00 00	 ret	 0
?__empty_global_delete@@YAXPAX@Z ENDP			; __empty_global_delete
_TEXT	ENDS
END
