; Listing generated by Microsoft (R) Optimizing Compiler Version 19.29.30145.0 

	TITLE	D:\git\src\IBK\IBK_DRFN\#DRfn-CS\_Obj\AnalysisTool\AutoTrendDrawer.obj
	.686P
	.XMM
	include listing.inc
	.model	flat

INCLUDELIB MSVCRT
INCLUDELIB OLDNAMES

PUBLIC	?__empty_global_delete@@YAXPAX@Z		; __empty_global_delete
PUBLIC	?__empty_global_delete@@YAXPAXI@Z		; __empty_global_delete
PUBLIC	??1CObject@@UAE@XZ				; CObject::~CObject
PUBLIC	?Serialize@CObject@@UAEXAAVCArchive@@@Z		; CObject::Serialize
PUBLIC	?AssertValid@CObject@@UBEXXZ			; CObject::AssertValid
PUBLIC	?Dump@CObject@@UBEXAAVCDumpContext@@@Z		; CObject::Dump
PUBLIC	??1CGdiObject@@UAE@XZ				; CGdiObject::~CGdiObject
PUBLIC	??_GCGdiObject@@UAEPAXI@Z			; CGdiObject::`scalar deleting destructor'
PUBLIC	??1CPen@@UAE@XZ					; CPen::~CPen
PUBLIC	??_GCPen@@UAEPAXI@Z				; CPen::`scalar deleting destructor'
PUBLIC	??0CAutoTrendDrawer@@QAE@XZ			; CAutoTrendDrawer::CAutoTrendDrawer
PUBLIC	?SetPenColor@CAutoTrendDrawer@@QAEXABK@Z	; CAutoTrendDrawer::SetPenColor
PUBLIC	?SetPenThickness@CAutoTrendDrawer@@QAEXH@Z	; CAutoTrendDrawer::SetPenThickness
PUBLIC	?GetPenColor@CAutoTrendDrawer@@QBEKXZ		; CAutoTrendDrawer::GetPenColor
PUBLIC	?GetPenThickness@CAutoTrendDrawer@@QBEHXZ	; CAutoTrendDrawer::GetPenThickness
PUBLIC	?Drawing@CAutoTrendDrawer@@QAE_NPAVCDC@@ABVCAutoTrendDrawingCalculatorData@@ABVCPoint@@H@Z ; CAutoTrendDrawer::Drawing
PUBLIC	?DrawShape@CAutoTrendDrawer@@AAEXPAVCDC@@ABVCAutoTrendDrawingCalculatorData@@ABVCPoint@@@Z ; CAutoTrendDrawer::DrawShape
PUBLIC	?DrawLine@CAutoTrendDrawer@@AAEXPAVCDC@@ABVCRegion@@HABVCPoint@@2AAV4@@Z ; CAutoTrendDrawer::DrawLine
PUBLIC	?DrawTextA@CAutoTrendDrawer@@AAEXPAVCDC@@ABVCAutoTrendDrawingCalculatorData@@HABVCPoint@@222@Z ; CAutoTrendDrawer::DrawTextA
PUBLIC	?GetRegion@CAutoTrendDrawer@@ABE?AVCRegion@@ABVCCoordinateCalculatorData@@@Z ; CAutoTrendDrawer::GetRegion
PUBLIC	?GetPoint@CAutoTrendDrawer@@ABE?AVCPoint@@ABVCRegion@@HABV2@1@Z ; CAutoTrendDrawer::GetPoint
PUBLIC	?GetTextRegion@CAutoTrendDrawer@@ABE?AVCRect@@ABVCSize@@ABV2@@Z ; CAutoTrendDrawer::GetTextRegion
PUBLIC	?GetText@CAutoTrendDrawer@@ABE?AV?$CStringT@DV?$StrTraitMFC_DLL@DV?$ChTraitsCRT@D@ATL@@@@@ATL@@ABVCAutoTrendDrawingCalculatorData@@HABVCPoint@@1@Z ; CAutoTrendDrawer::GetText
PUBLIC	??_R0PAVCException@@@8				; CException * `RTTI Type Descriptor'
PUBLIC	??_C@_00CNPNBAHC@@				; `string'
PUBLIC	??_7CGdiObject@@6B@				; CGdiObject::`vftable'
PUBLIC	??_7CPen@@6B@					; CPen::`vftable'
PUBLIC	??_C@_0HD@JJCHHHNK@C?3?2Program?5Files?5?$CIx86?$CJ?2Microsof@ ; `string'
PUBLIC	??_C@_0BP@OIEOKIDM@Exception?5thrown?5in?5destructor@ ; `string'
PUBLIC	??_C@_0BB@HBOOMJBF@?$CFTs?5?$CI?$CFTs?3?$CFd?$CJ?6?$CFTs@ ; `string'
PUBLIC	??_C@_0N@OMEMOKLE@?$CFTs?5?$CI?$CFTs?3?$CFd?$CJ@ ; `string'
PUBLIC	??_R0?AVCObject@@@8				; CObject `RTTI Type Descriptor'
PUBLIC	??_R3CObject@@8					; CObject::`RTTI Class Hierarchy Descriptor'
PUBLIC	??_R2CObject@@8					; CObject::`RTTI Base Class Array'
PUBLIC	??_R1A@?0A@EA@CObject@@8			; CObject::`RTTI Base Class Descriptor at (0,-1,0,64)'
PUBLIC	??_R4CGdiObject@@6B@				; CGdiObject::`RTTI Complete Object Locator'
PUBLIC	??_R0?AVCGdiObject@@@8				; CGdiObject `RTTI Type Descriptor'
PUBLIC	??_R3CGdiObject@@8				; CGdiObject::`RTTI Class Hierarchy Descriptor'
PUBLIC	??_R2CGdiObject@@8				; CGdiObject::`RTTI Base Class Array'
PUBLIC	??_R1A@?0A@EA@CGdiObject@@8			; CGdiObject::`RTTI Base Class Descriptor at (0,-1,0,64)'
PUBLIC	??_R4CPen@@6B@					; CPen::`RTTI Complete Object Locator'
PUBLIC	??_R0?AVCPen@@@8				; CPen `RTTI Type Descriptor'
PUBLIC	??_R3CPen@@8					; CPen::`RTTI Class Hierarchy Descriptor'
PUBLIC	??_R2CPen@@8					; CPen::`RTTI Base Class Array'
PUBLIC	??_R1A@?0A@EA@CPen@@8				; CPen::`RTTI Base Class Descriptor at (0,-1,0,64)'
PUBLIC	??_C@_01OCOKONAJ@L@				; `string'
EXTRN	??3@YAXPAX@Z:PROC				; operator delete
EXTRN	?__global_delete@@YAXPAXI@Z:PROC		; __global_delete
EXTRN	__imp__GetTextExtentPoint32A@16:PROC
EXTRN	__imp__IsRectEmpty@4:PROC
EXTRN	__imp__PtInRect@12:PROC
EXTRN	__imp_??0?$CStringT@DV?$StrTraitMFC_DLL@DV?$ChTraitsCRT@D@ATL@@@@@ATL@@QAE@XZ:PROC
EXTRN	__imp_??0?$CStringT@DV?$StrTraitMFC_DLL@DV?$ChTraitsCRT@D@ATL@@@@@ATL@@QAE@ABV01@@Z:PROC
EXTRN	__imp_??0?$CStringT@DV?$StrTraitMFC_DLL@DV?$ChTraitsCRT@D@ATL@@@@@ATL@@QAE@PBD@Z:PROC
EXTRN	__imp_??1?$CStringT@DV?$StrTraitMFC_DLL@DV?$ChTraitsCRT@D@ATL@@@@@ATL@@QAE@XZ:PROC
EXTRN	__imp_?Format@?$CStringT@DV?$StrTraitMFC_DLL@DV?$ChTraitsCRT@D@ATL@@@@@ATL@@QAAXPBDZZ:PROC
EXTRN	?GetRuntimeClass@CGdiObject@@UBEPAUCRuntimeClass@@XZ:PROC ; CGdiObject::GetRuntimeClass
EXTRN	?DeleteObject@CGdiObject@@QAEHXZ:PROC		; CGdiObject::DeleteObject
EXTRN	??_ECGdiObject@@UAEPAXI@Z:PROC			; CGdiObject::`vector deleting destructor'
EXTRN	?GetRuntimeClass@CPen@@UBEPAUCRuntimeClass@@XZ:PROC ; CPen::GetRuntimeClass
EXTRN	??0CPen@@QAE@HHK@Z:PROC				; CPen::CPen
EXTRN	??_ECPen@@UAEPAXI@Z:PROC			; CPen::`vector deleting destructor'
EXTRN	?SelectObject@CDC@@QAEPAVCPen@@PAV2@@Z:PROC	; CDC::SelectObject
EXTRN	?SetBkMode@CDC@@QAEHH@Z:PROC			; CDC::SetBkMode
EXTRN	?SetROP2@CDC@@QAEHH@Z:PROC			; CDC::SetROP2
EXTRN	?AfxMessageBox@@YGHPBDII@Z:PROC			; AfxMessageBox
EXTRN	??0CDrawer@@QAE@XZ:PROC				; CDrawer::CDrawer
EXTRN	?SelectClipRegion@CDrawer@@IAEXPAVCDC@@ABVCRect@@@Z:PROC ; CDrawer::SelectClipRegion
EXTRN	?SelectClipRegion@CDrawer@@IAEXPAVCDC@@@Z:PROC	; CDrawer::SelectClipRegion
EXTRN	?DrawLine@CDrawer@@IAEXPAVCDC@@ABVCPoint@@1@Z:PROC ; CDrawer::DrawLine
EXTRN	?DrawRectangle@CDrawer@@IAEXPAVCDC@@ABVCRect@@ABK2_N@Z:PROC ; CDrawer::DrawRectangle
EXTRN	?DrawTextOut@CDrawer@@IAEXPAVCDC@@ABV?$CStringT@DV?$StrTraitMFC_DLL@DV?$ChTraitsCRT@D@ATL@@@@@ATL@@ABVCRect@@@Z:PROC ; CDrawer::DrawTextOut
EXTRN	?GetLineEndPoint@CDrawer@@IBE?AVCPoint@@ABV2@000@Z:PROC ; CDrawer::GetLineEndPoint
EXTRN	?GetCurrentDataIndex@CDrawer@@IBEHABVCRegion@@ABVCPoint@@@Z:PROC ; CDrawer::GetCurrentDataIndex
EXTRN	?GetDrawingPoint_X@CDrawer@@IBEHABVCRegion@@H_N@Z:PROC ; CDrawer::GetDrawingPoint_X
EXTRN	??1CCoordinateCalculatorData@@QAE@XZ:PROC	; CCoordinateCalculatorData::~CCoordinateCalculatorData
EXTRN	?GetRegion@CCoordinateCalculatorData@@QBE?AVCRect@@XZ:PROC ; CCoordinateCalculatorData::GetRegion
EXTRN	?GetDisplayDataStart@CCoordinateCalculatorData@@QBEHXZ:PROC ; CCoordinateCalculatorData::GetDisplayDataStart
EXTRN	?GetDisplayDataEnd@CCoordinateCalculatorData@@QBEHXZ:PROC ; CCoordinateCalculatorData::GetDisplayDataEnd
EXTRN	?GetNoFrameGraphRegion@CAutoTrendDrawingCalculatorData@@QBE?AVCRect@@XZ:PROC ; CAutoTrendDrawingCalculatorData::GetNoFrameGraphRegion
EXTRN	?GetPacket@CAutoTrendDrawingCalculatorData@@QBEPAUIPacket133101@@H@Z:PROC ; CAutoTrendDrawingCalculatorData::GetPacket
EXTRN	?GetCoordinateCalculatorData@CAutoTrendDrawingCalculatorData@@QBE?AVCCoordinateCalculatorData@@XZ:PROC ; CAutoTrendDrawingCalculatorData::GetCoordinateCalculatorData
EXTRN	?DoesCalculator@CAutoTrendDrawingCalculatorData@@QBE_NABVCPoint@@@Z:PROC ; CAutoTrendDrawingCalculatorData::DoesCalculator
EXTRN	?GetDrawingPoints@CAutoTrendDrawingCalculator@@QBE_NABVCAutoTrendDrawingCalculatorData@@HAAVCPoint@@111@Z:PROC ; CAutoTrendDrawingCalculator::GetDrawingPoints
EXTRN	?GetText@CAutoTrendDrawingCalculator@@QBE?AV?$CStringT@DV?$StrTraitMFC_DLL@DV?$ChTraitsCRT@D@ATL@@@@@ATL@@PAUIPacket133101@@HH@Z:PROC ; CAutoTrendDrawingCalculator::GetText
EXTRN	??0CDisplayAttributes@@QAE@HH@Z:PROC		; CDisplayAttributes::CDisplayAttributes
EXTRN	??0CRegion@@QAE@ABVCRect@@ABVCDisplayAttributes@@@Z:PROC ; CRegion::CRegion
EXTRN	?GetRect@CRegion@@QBE?AVCRect@@XZ:PROC		; CRegion::GetRect
EXTRN	@__security_check_cookie@4:PROC
EXTRN	___CxxFrameHandler3:PROC
EXTRN	??_7type_info@@6B@:QWORD			; type_info::`vftable'
EXTRN	___security_cookie:DWORD
;	COMDAT ??_C@_01OCOKONAJ@L@
CONST	SEGMENT
??_C@_01OCOKONAJ@L@ DB 'L', 00H				; `string'
CONST	ENDS
;	COMDAT ??_R1A@?0A@EA@CPen@@8
rdata$r	SEGMENT
??_R1A@?0A@EA@CPen@@8 DD FLAT:??_R0?AVCPen@@@8		; CPen::`RTTI Base Class Descriptor at (0,-1,0,64)'
	DD	02H
	DD	00H
	DD	0ffffffffH
	DD	00H
	DD	040H
	DD	FLAT:??_R3CPen@@8
rdata$r	ENDS
;	COMDAT ??_R2CPen@@8
rdata$r	SEGMENT
??_R2CPen@@8 DD	FLAT:??_R1A@?0A@EA@CPen@@8		; CPen::`RTTI Base Class Array'
	DD	FLAT:??_R1A@?0A@EA@CGdiObject@@8
	DD	FLAT:??_R1A@?0A@EA@CObject@@8
rdata$r	ENDS
;	COMDAT ??_R3CPen@@8
rdata$r	SEGMENT
??_R3CPen@@8 DD	00H					; CPen::`RTTI Class Hierarchy Descriptor'
	DD	00H
	DD	03H
	DD	FLAT:??_R2CPen@@8
rdata$r	ENDS
;	COMDAT ??_R0?AVCPen@@@8
data$rs	SEGMENT
??_R0?AVCPen@@@8 DD FLAT:??_7type_info@@6B@		; CPen `RTTI Type Descriptor'
	DD	00H
	DB	'.?AVCPen@@', 00H
data$rs	ENDS
;	COMDAT ??_R4CPen@@6B@
rdata$r	SEGMENT
??_R4CPen@@6B@ DD 00H					; CPen::`RTTI Complete Object Locator'
	DD	00H
	DD	00H
	DD	FLAT:??_R0?AVCPen@@@8
	DD	FLAT:??_R3CPen@@8
rdata$r	ENDS
;	COMDAT ??_R1A@?0A@EA@CGdiObject@@8
rdata$r	SEGMENT
??_R1A@?0A@EA@CGdiObject@@8 DD FLAT:??_R0?AVCGdiObject@@@8 ; CGdiObject::`RTTI Base Class Descriptor at (0,-1,0,64)'
	DD	01H
	DD	00H
	DD	0ffffffffH
	DD	00H
	DD	040H
	DD	FLAT:??_R3CGdiObject@@8
rdata$r	ENDS
;	COMDAT ??_R2CGdiObject@@8
rdata$r	SEGMENT
??_R2CGdiObject@@8 DD FLAT:??_R1A@?0A@EA@CGdiObject@@8	; CGdiObject::`RTTI Base Class Array'
	DD	FLAT:??_R1A@?0A@EA@CObject@@8
rdata$r	ENDS
;	COMDAT ??_R3CGdiObject@@8
rdata$r	SEGMENT
??_R3CGdiObject@@8 DD 00H				; CGdiObject::`RTTI Class Hierarchy Descriptor'
	DD	00H
	DD	02H
	DD	FLAT:??_R2CGdiObject@@8
rdata$r	ENDS
;	COMDAT ??_R0?AVCGdiObject@@@8
data$rs	SEGMENT
??_R0?AVCGdiObject@@@8 DD FLAT:??_7type_info@@6B@	; CGdiObject `RTTI Type Descriptor'
	DD	00H
	DB	'.?AVCGdiObject@@', 00H
data$rs	ENDS
;	COMDAT ??_R4CGdiObject@@6B@
rdata$r	SEGMENT
??_R4CGdiObject@@6B@ DD 00H				; CGdiObject::`RTTI Complete Object Locator'
	DD	00H
	DD	00H
	DD	FLAT:??_R0?AVCGdiObject@@@8
	DD	FLAT:??_R3CGdiObject@@8
rdata$r	ENDS
;	COMDAT ??_R1A@?0A@EA@CObject@@8
rdata$r	SEGMENT
??_R1A@?0A@EA@CObject@@8 DD FLAT:??_R0?AVCObject@@@8	; CObject::`RTTI Base Class Descriptor at (0,-1,0,64)'
	DD	00H
	DD	00H
	DD	0ffffffffH
	DD	00H
	DD	040H
	DD	FLAT:??_R3CObject@@8
rdata$r	ENDS
;	COMDAT ??_R2CObject@@8
rdata$r	SEGMENT
??_R2CObject@@8 DD FLAT:??_R1A@?0A@EA@CObject@@8	; CObject::`RTTI Base Class Array'
rdata$r	ENDS
;	COMDAT ??_R3CObject@@8
rdata$r	SEGMENT
??_R3CObject@@8 DD 00H					; CObject::`RTTI Class Hierarchy Descriptor'
	DD	00H
	DD	01H
	DD	FLAT:??_R2CObject@@8
rdata$r	ENDS
;	COMDAT ??_R0?AVCObject@@@8
data$rs	SEGMENT
??_R0?AVCObject@@@8 DD FLAT:??_7type_info@@6B@		; CObject `RTTI Type Descriptor'
	DD	00H
	DB	'.?AVCObject@@', 00H
data$rs	ENDS
;	COMDAT ??_C@_0N@OMEMOKLE@?$CFTs?5?$CI?$CFTs?3?$CFd?$CJ@
CONST	SEGMENT
??_C@_0N@OMEMOKLE@?$CFTs?5?$CI?$CFTs?3?$CFd?$CJ@ DB '%Ts (%Ts:%d)', 00H ; `string'
CONST	ENDS
;	COMDAT ??_C@_0BB@HBOOMJBF@?$CFTs?5?$CI?$CFTs?3?$CFd?$CJ?6?$CFTs@
CONST	SEGMENT
??_C@_0BB@HBOOMJBF@?$CFTs?5?$CI?$CFTs?3?$CFd?$CJ?6?$CFTs@ DB '%Ts (%Ts:%d'
	DB	')', 0aH, '%Ts', 00H				; `string'
CONST	ENDS
;	COMDAT ??_C@_0BP@OIEOKIDM@Exception?5thrown?5in?5destructor@
CONST	SEGMENT
??_C@_0BP@OIEOKIDM@Exception?5thrown?5in?5destructor@ DB 'Exception throw'
	DB	'n in destructor', 00H			; `string'
CONST	ENDS
;	COMDAT ??_C@_0HD@JJCHHHNK@C?3?2Program?5Files?5?$CIx86?$CJ?2Microsof@
CONST	SEGMENT
??_C@_0HD@JJCHHHNK@C?3?2Program?5Files?5?$CIx86?$CJ?2Microsof@ DB 'C:\Pro'
	DB	'gram Files (x86)\Microsoft Visual Studio\2019\Community\VC\To'
	DB	'ols\MSVC\14.29.30133\atlmfc\include\afxwin1.inl', 00H ; `string'
CONST	ENDS
;	COMDAT ??_7CPen@@6B@
CONST	SEGMENT
??_7CPen@@6B@ DD FLAT:??_R4CPen@@6B@			; CPen::`vftable'
	DD	FLAT:?GetRuntimeClass@CPen@@UBEPAUCRuntimeClass@@XZ
	DD	FLAT:??_ECPen@@UAEPAXI@Z
	DD	FLAT:?Serialize@CObject@@UAEXAAVCArchive@@@Z
	DD	FLAT:?AssertValid@CObject@@UBEXXZ
	DD	FLAT:?Dump@CObject@@UBEXAAVCDumpContext@@@Z
CONST	ENDS
;	COMDAT ??_7CGdiObject@@6B@
CONST	SEGMENT
??_7CGdiObject@@6B@ DD FLAT:??_R4CGdiObject@@6B@	; CGdiObject::`vftable'
	DD	FLAT:?GetRuntimeClass@CGdiObject@@UBEPAUCRuntimeClass@@XZ
	DD	FLAT:??_ECGdiObject@@UAEPAXI@Z
	DD	FLAT:?Serialize@CObject@@UAEXAAVCArchive@@@Z
	DD	FLAT:?AssertValid@CObject@@UBEXXZ
	DD	FLAT:?Dump@CObject@@UBEXAAVCDumpContext@@@Z
CONST	ENDS
;	COMDAT ??_C@_00CNPNBAHC@@
CONST	SEGMENT
??_C@_00CNPNBAHC@@ DB 00H				; `string'
CONST	ENDS
;	COMDAT ??_R0PAVCException@@@8
data$r	SEGMENT
??_R0PAVCException@@@8 DD FLAT:??_7type_info@@6B@	; CException * `RTTI Type Descriptor'
	DD	00H
	DB	'.PAVCException@@', 00H
data$r	ENDS
;	COMDAT xdata$x
xdata$x	SEGMENT
__unwindtable$?GetText@CAutoTrendDrawer@@ABE?AV?$CStringT@DV?$StrTraitMFC_DLL@DV?$ChTraitsCRT@D@ATL@@@@@ATL@@ABVCAutoTrendDrawingCalculatorData@@HABVCPoint@@1@Z DD 0ffffffffH
	DD	FLAT:__unwindfunclet$?GetText@CAutoTrendDrawer@@ABE?AV?$CStringT@DV?$StrTraitMFC_DLL@DV?$ChTraitsCRT@D@ATL@@@@@ATL@@ABVCAutoTrendDrawingCalculatorData@@HABVCPoint@@1@Z$0
	DD	0ffffffffH
	DD	FLAT:__unwindfunclet$?GetText@CAutoTrendDrawer@@ABE?AV?$CStringT@DV?$StrTraitMFC_DLL@DV?$ChTraitsCRT@D@ATL@@@@@ATL@@ABVCAutoTrendDrawingCalculatorData@@HABVCPoint@@1@Z$2
	DD	0ffffffffH
	DD	FLAT:__unwindfunclet$?GetText@CAutoTrendDrawer@@ABE?AV?$CStringT@DV?$StrTraitMFC_DLL@DV?$ChTraitsCRT@D@ATL@@@@@ATL@@ABVCAutoTrendDrawingCalculatorData@@HABVCPoint@@1@Z$3
__ehfuncinfo$?GetText@CAutoTrendDrawer@@ABE?AV?$CStringT@DV?$StrTraitMFC_DLL@DV?$ChTraitsCRT@D@ATL@@@@@ATL@@ABVCAutoTrendDrawingCalculatorData@@HABVCPoint@@1@Z DD 019930522H
	DD	03H
	DD	FLAT:__unwindtable$?GetText@CAutoTrendDrawer@@ABE?AV?$CStringT@DV?$StrTraitMFC_DLL@DV?$ChTraitsCRT@D@ATL@@@@@ATL@@ABVCAutoTrendDrawingCalculatorData@@HABVCPoint@@1@Z
	DD	2 DUP(00H)
	DD	2 DUP(00H)
	DD	00H
	DD	01H
xdata$x	ENDS
;	COMDAT xdata$x
xdata$x	SEGMENT
__ehfuncinfo$?DrawTextA@CAutoTrendDrawer@@AAEXPAVCDC@@ABVCAutoTrendDrawingCalculatorData@@HABVCPoint@@222@Z DD 019930522H
	DD	05H
	DD	FLAT:__unwindtable$?DrawTextA@CAutoTrendDrawer@@AAEXPAVCDC@@ABVCAutoTrendDrawingCalculatorData@@HABVCPoint@@222@Z
	DD	2 DUP(00H)
	DD	2 DUP(00H)
	DD	00H
	DD	01H
__unwindtable$?DrawTextA@CAutoTrendDrawer@@AAEXPAVCDC@@ABVCAutoTrendDrawingCalculatorData@@HABVCPoint@@222@Z DD 0ffffffffH
	DD	FLAT:__unwindfunclet$?DrawTextA@CAutoTrendDrawer@@AAEXPAVCDC@@ABVCAutoTrendDrawingCalculatorData@@HABVCPoint@@222@Z$0
	DD	0ffffffffH
	DD	FLAT:__unwindfunclet$?DrawTextA@CAutoTrendDrawer@@AAEXPAVCDC@@ABVCAutoTrendDrawingCalculatorData@@HABVCPoint@@222@Z$2
	DD	0ffffffffH
	DD	FLAT:__unwindfunclet$?DrawTextA@CAutoTrendDrawer@@AAEXPAVCDC@@ABVCAutoTrendDrawingCalculatorData@@HABVCPoint@@222@Z$4
	DD	0ffffffffH
	DD	FLAT:__unwindfunclet$?DrawTextA@CAutoTrendDrawer@@AAEXPAVCDC@@ABVCAutoTrendDrawingCalculatorData@@HABVCPoint@@222@Z$5
	DD	0ffffffffH
	DD	FLAT:__unwindfunclet$?DrawTextA@CAutoTrendDrawer@@AAEXPAVCDC@@ABVCAutoTrendDrawingCalculatorData@@HABVCPoint@@222@Z$1
xdata$x	ENDS
;	COMDAT xdata$x
xdata$x	SEGMENT
__unwindtable$?DrawShape@CAutoTrendDrawer@@AAEXPAVCDC@@ABVCAutoTrendDrawingCalculatorData@@ABVCPoint@@@Z DD 0ffffffffH
	DD	FLAT:__unwindfunclet$?DrawShape@CAutoTrendDrawer@@AAEXPAVCDC@@ABVCAutoTrendDrawingCalculatorData@@ABVCPoint@@@Z$0
__ehfuncinfo$?DrawShape@CAutoTrendDrawer@@AAEXPAVCDC@@ABVCAutoTrendDrawingCalculatorData@@ABVCPoint@@@Z DD 019930522H
	DD	01H
	DD	FLAT:__unwindtable$?DrawShape@CAutoTrendDrawer@@AAEXPAVCDC@@ABVCAutoTrendDrawingCalculatorData@@ABVCPoint@@@Z
	DD	2 DUP(00H)
	DD	2 DUP(00H)
	DD	00H
	DD	01H
xdata$x	ENDS
;	COMDAT xdata$x
xdata$x	SEGMENT
__unwindtable$?Drawing@CAutoTrendDrawer@@QAE_NPAVCDC@@ABVCAutoTrendDrawingCalculatorData@@ABVCPoint@@H@Z DD 0ffffffffH
	DD	FLAT:__unwindfunclet$?Drawing@CAutoTrendDrawer@@QAE_NPAVCDC@@ABVCAutoTrendDrawingCalculatorData@@ABVCPoint@@H@Z$0
	DD	00H
	DD	FLAT:__unwindfunclet$?Drawing@CAutoTrendDrawer@@QAE_NPAVCDC@@ABVCAutoTrendDrawingCalculatorData@@ABVCPoint@@H@Z$1
__ehfuncinfo$?Drawing@CAutoTrendDrawer@@QAE_NPAVCDC@@ABVCAutoTrendDrawingCalculatorData@@ABVCPoint@@H@Z DD 019930522H
	DD	02H
	DD	FLAT:__unwindtable$?Drawing@CAutoTrendDrawer@@QAE_NPAVCDC@@ABVCAutoTrendDrawingCalculatorData@@ABVCPoint@@H@Z
	DD	2 DUP(00H)
	DD	2 DUP(00H)
	DD	00H
	DD	01H
xdata$x	ENDS
;	COMDAT xdata$x
xdata$x	SEGMENT
__catchsym$??1CGdiObject@@UAE@XZ$3 DD 00H
	DD	FLAT:??_R0PAVCException@@@8
	DD	0fffffde4H
	DD	FLAT:__catch$??1CGdiObject@@UAE@XZ$0
__tryblocktable$??1CGdiObject@@UAE@XZ DD 00H
	DD	00H
	DD	02H
	DD	01H
	DD	FLAT:__catchsym$??1CGdiObject@@UAE@XZ$3
__unwindtable$??1CGdiObject@@UAE@XZ DD 0ffffffffH
	DD	00H
	DD	0ffffffffH
	DD	00H
	DD	01H
	DD	FLAT:__unwindfunclet$??1CGdiObject@@UAE@XZ$2
__ehfuncinfo$??1CGdiObject@@UAE@XZ DD 019930522H
	DD	03H
	DD	FLAT:__unwindtable$??1CGdiObject@@UAE@XZ
	DD	01H
	DD	FLAT:__tryblocktable$??1CGdiObject@@UAE@XZ
	DD	2 DUP(00H)
	DD	00H
	DD	05H
xdata$x	ENDS
; Function compile flags: /Ogtp
; File D:\git\src\IBK\IBK_DRFN\ProjSrc\SrcChartEx\ChartAddIn\ChartAnalysisToolAddIn\AnalysisTool\AutoTrendDrawer.cpp
;	COMDAT ?GetText@CAutoTrendDrawer@@ABE?AV?$CStringT@DV?$StrTraitMFC_DLL@DV?$ChTraitsCRT@D@ATL@@@@@ATL@@ABVCAutoTrendDrawingCalculatorData@@HABVCPoint@@1@Z
_TEXT	SEGMENT
$T2 = -288						; size = 8
_point$ = -280						; size = 8
_this$GSCopy$1$ = -272					; size = 4
_highPt$GSCopy$1$ = -268				; size = 4
_lowPt$GSCopy$1$ = -264					; size = 4
___$ReturnUdt$GSCopy$ = -264				; size = 4
_strResult$ = -260					; size = 4
_nCurrentDataIndex$GSCopy$1$ = -256			; size = 4
_calculator$ = -249					; size = 1
$T3 = -248						; size = 96
$T4 = -152						; size = 96
$T5 = -56						; size = 16
$T6 = -40						; size = 24
__$ArrayPad$ = -16					; size = 4
__$EHRec$ = -12						; size = 12
___$ReturnUdt$ = 8					; size = 4
_calData$ = 12						; size = 4
_nCurrentDataIndex$ = 16				; size = 4
_highPt$ = 20						; size = 4
_lowPt$ = 24						; size = 4
?GetText@CAutoTrendDrawer@@ABE?AV?$CStringT@DV?$StrTraitMFC_DLL@DV?$ChTraitsCRT@D@ATL@@@@@ATL@@ABVCAutoTrendDrawingCalculatorData@@HABVCPoint@@1@Z PROC ; CAutoTrendDrawer::GetText, COMDAT
; _this$ = ecx

; 141  : {

  00000	55		 push	 ebp
  00001	8b ec		 mov	 ebp, esp
  00003	6a ff		 push	 -1
  00005	68 00 00 00 00	 push	 __ehhandler$?GetText@CAutoTrendDrawer@@ABE?AV?$CStringT@DV?$StrTraitMFC_DLL@DV?$ChTraitsCRT@D@ATL@@@@@ATL@@ABVCAutoTrendDrawingCalculatorData@@HABVCPoint@@1@Z
  0000a	64 a1 00 00 00
	00		 mov	 eax, DWORD PTR fs:0
  00010	50		 push	 eax
  00011	81 ec 14 01 00
	00		 sub	 esp, 276		; 00000114H
  00017	a1 00 00 00 00	 mov	 eax, DWORD PTR ___security_cookie
  0001c	33 c5		 xor	 eax, ebp
  0001e	89 45 f0	 mov	 DWORD PTR __$ArrayPad$[ebp], eax
  00021	53		 push	 ebx
  00022	56		 push	 esi
  00023	57		 push	 edi
  00024	50		 push	 eax
  00025	8d 45 f4	 lea	 eax, DWORD PTR __$EHRec$[ebp]
  00028	64 a3 00 00 00
	00		 mov	 DWORD PTR fs:0, eax
  0002e	89 8d f0 fe ff
	ff		 mov	 DWORD PTR _this$GSCopy$1$[ebp], ecx
  00034	8b 45 10	 mov	 eax, DWORD PTR _nCurrentDataIndex$[ebp]
  00037	8b 7d 08	 mov	 edi, DWORD PTR ___$ReturnUdt$[ebp]
  0003a	8b 5d 0c	 mov	 ebx, DWORD PTR _calData$[ebp]

; 142  : 	if(calData.GetCoordinateCalculatorData().GetDisplayDataStart() > nCurrentDataIndex)

  0003d	8b cb		 mov	 ecx, ebx
  0003f	89 85 00 ff ff
	ff		 mov	 DWORD PTR _nCurrentDataIndex$GSCopy$1$[ebp], eax
  00045	8b 45 14	 mov	 eax, DWORD PTR _highPt$[ebp]
  00048	89 85 f4 fe ff
	ff		 mov	 DWORD PTR _highPt$GSCopy$1$[ebp], eax
  0004e	8b 45 18	 mov	 eax, DWORD PTR _lowPt$[ebp]
  00051	89 bd f8 fe ff
	ff		 mov	 DWORD PTR ___$ReturnUdt$GSCopy$[ebp], edi
  00057	89 85 f8 fe ff
	ff		 mov	 DWORD PTR _lowPt$GSCopy$1$[ebp], eax
  0005d	8d 85 68 ff ff
	ff		 lea	 eax, DWORD PTR $T4[ebp]
  00063	50		 push	 eax
  00064	e8 00 00 00 00	 call	 ?GetCoordinateCalculatorData@CAutoTrendDrawingCalculatorData@@QBE?AVCCoordinateCalculatorData@@XZ ; CAutoTrendDrawingCalculatorData::GetCoordinateCalculatorData
  00069	8b c8		 mov	 ecx, eax
  0006b	c7 45 fc 00 00
	00 00		 mov	 DWORD PTR __$EHRec$[ebp+8], 0
  00072	e8 00 00 00 00	 call	 ?GetDisplayDataStart@CCoordinateCalculatorData@@QBEHXZ ; CCoordinateCalculatorData::GetDisplayDataStart
  00077	8d 8d 68 ff ff
	ff		 lea	 ecx, DWORD PTR $T4[ebp]
  0007d	c7 45 fc ff ff
	ff ff		 mov	 DWORD PTR __$EHRec$[ebp+8], -1
  00084	8b f0		 mov	 esi, eax
  00086	e8 00 00 00 00	 call	 ??1CCoordinateCalculatorData@@QAE@XZ ; CCoordinateCalculatorData::~CCoordinateCalculatorData
  0008b	3b b5 00 ff ff
	ff		 cmp	 esi, DWORD PTR _nCurrentDataIndex$GSCopy$1$[ebp]
  00091	7e 12		 jle	 SHORT $LN2@GetText

; 143  : 		return "";

  00093	68 00 00 00 00	 push	 OFFSET ??_C@_00CNPNBAHC@@
  00098	8b cf		 mov	 ecx, edi
  0009a	ff 15 00 00 00
	00		 call	 DWORD PTR __imp_??0?$CStringT@DV?$StrTraitMFC_DLL@DV?$ChTraitsCRT@D@ATL@@@@@ATL@@QAE@PBD@Z
  000a0	e9 e6 00 00 00	 jmp	 $LN14@GetText
$LN2@GetText:

; 144  : 
; 145  : 	CPoint point(highPt);

  000a5	8b 85 f4 fe ff
	ff		 mov	 eax, DWORD PTR _highPt$GSCopy$1$[ebp]
  000ab	8b 08		 mov	 ecx, DWORD PTR [eax]
  000ad	8b 40 04	 mov	 eax, DWORD PTR [eax+4]
  000b0	89 85 ec fe ff
	ff		 mov	 DWORD PTR _point$[ebp+4], eax

; 146  : 	if(highPt.x < lowPt.x)

  000b6	8b 85 f8 fe ff
	ff		 mov	 eax, DWORD PTR _lowPt$GSCopy$1$[ebp]
  000bc	8b 00		 mov	 eax, DWORD PTR [eax]
  000be	3b c8		 cmp	 ecx, eax
  000c0	0f 4c c8	 cmovl	 ecx, eax

; 147  : 		point.x = lowPt.x;
; 148  : 
; 149  : 	int nStartIndex = CDrawer::GetCurrentDataIndex(GetRegion(calData.GetCoordinateCalculatorData()), point);

  000c3	8d 85 08 ff ff
	ff		 lea	 eax, DWORD PTR $T3[ebp]
  000c9	89 8d e8 fe ff
	ff		 mov	 DWORD PTR _point$[ebp], ecx
  000cf	8b cb		 mov	 ecx, ebx
  000d1	50		 push	 eax
  000d2	e8 00 00 00 00	 call	 ?GetCoordinateCalculatorData@CAutoTrendDrawingCalculatorData@@QBE?AVCCoordinateCalculatorData@@XZ ; CAutoTrendDrawingCalculatorData::GetCoordinateCalculatorData
  000d7	8b f0		 mov	 esi, eax

; 121  : 	return CRegion(calData.GetRegion(), CDisplayAttributes(calData.GetDisplayDataStart(), calData.GetDisplayDataEnd()));

  000d9	8b ce		 mov	 ecx, esi

; 147  : 		point.x = lowPt.x;
; 148  : 
; 149  : 	int nStartIndex = CDrawer::GetCurrentDataIndex(GetRegion(calData.GetCoordinateCalculatorData()), point);

  000db	c7 45 fc 01 00
	00 00		 mov	 DWORD PTR __$EHRec$[ebp+8], 1

; 121  : 	return CRegion(calData.GetRegion(), CDisplayAttributes(calData.GetDisplayDataStart(), calData.GetDisplayDataEnd()));

  000e2	e8 00 00 00 00	 call	 ?GetDisplayDataEnd@CCoordinateCalculatorData@@QBEHXZ ; CCoordinateCalculatorData::GetDisplayDataEnd
  000e7	50		 push	 eax
  000e8	8b ce		 mov	 ecx, esi
  000ea	e8 00 00 00 00	 call	 ?GetDisplayDataStart@CCoordinateCalculatorData@@QBEHXZ ; CCoordinateCalculatorData::GetDisplayDataStart
  000ef	50		 push	 eax
  000f0	8d 8d e0 fe ff
	ff		 lea	 ecx, DWORD PTR $T2[ebp]
  000f6	e8 00 00 00 00	 call	 ??0CDisplayAttributes@@QAE@HH@Z ; CDisplayAttributes::CDisplayAttributes
  000fb	50		 push	 eax
  000fc	8d 45 c8	 lea	 eax, DWORD PTR $T5[ebp]
  000ff	8b ce		 mov	 ecx, esi
  00101	50		 push	 eax
  00102	e8 00 00 00 00	 call	 ?GetRegion@CCoordinateCalculatorData@@QBE?AVCRect@@XZ ; CCoordinateCalculatorData::GetRegion
  00107	50		 push	 eax
  00108	8d 4d d8	 lea	 ecx, DWORD PTR $T6[ebp]
  0010b	e8 00 00 00 00	 call	 ??0CRegion@@QAE@ABVCRect@@ABVCDisplayAttributes@@@Z ; CRegion::CRegion

; 147  : 		point.x = lowPt.x;
; 148  : 
; 149  : 	int nStartIndex = CDrawer::GetCurrentDataIndex(GetRegion(calData.GetCoordinateCalculatorData()), point);

  00110	8b 8d f0 fe ff
	ff		 mov	 ecx, DWORD PTR _this$GSCopy$1$[ebp]
  00116	8d 85 e8 fe ff
	ff		 lea	 eax, DWORD PTR _point$[ebp]
  0011c	50		 push	 eax
  0011d	8d 45 d8	 lea	 eax, DWORD PTR $T6[ebp]
  00120	50		 push	 eax
  00121	e8 00 00 00 00	 call	 ?GetCurrentDataIndex@CDrawer@@IBEHABVCRegion@@ABVCPoint@@@Z ; CDrawer::GetCurrentDataIndex
  00126	8d 8d 08 ff ff
	ff		 lea	 ecx, DWORD PTR $T3[ebp]
  0012c	c7 45 fc ff ff
	ff ff		 mov	 DWORD PTR __$EHRec$[ebp+8], -1
  00133	8b f0		 mov	 esi, eax
  00135	e8 00 00 00 00	 call	 ??1CCoordinateCalculatorData@@QAE@XZ ; CCoordinateCalculatorData::~CCoordinateCalculatorData

; 150  : 	CAutoTrendDrawingCalculator calculator;
; 151  : 	IPacket *pIPacket = calData.GetPacket( 0);

  0013a	6a 00		 push	 0
  0013c	8b cb		 mov	 ecx, ebx
  0013e	e8 00 00 00 00	 call	 ?GetPacket@CAutoTrendDrawingCalculatorData@@QBEPAUIPacket133101@@H@Z ; CAutoTrendDrawingCalculatorData::GetPacket

; 152  : 	CString strResult = calculator.GetText( pIPacket, nStartIndex, nCurrentDataIndex);

  00143	ff b5 00 ff ff
	ff		 push	 DWORD PTR _nCurrentDataIndex$GSCopy$1$[ebp]
  00149	8b d8		 mov	 ebx, eax
  0014b	8d 8d 07 ff ff
	ff		 lea	 ecx, DWORD PTR _calculator$[ebp]
  00151	56		 push	 esi
  00152	53		 push	 ebx
  00153	8d 85 fc fe ff
	ff		 lea	 eax, DWORD PTR _strResult$[ebp]
  00159	50		 push	 eax
  0015a	e8 00 00 00 00	 call	 ?GetText@CAutoTrendDrawingCalculator@@QBE?AV?$CStringT@DV?$StrTraitMFC_DLL@DV?$ChTraitsCRT@D@ATL@@@@@ATL@@PAUIPacket133101@@HH@Z ; CAutoTrendDrawingCalculator::GetText
  0015f	c7 45 fc 02 00
	00 00		 mov	 DWORD PTR __$EHRec$[ebp+8], 2

; 153  : 	if( pIPacket) pIPacket->Release();

  00166	85 db		 test	 ebx, ebx
  00168	74 06		 je	 SHORT $LN4@GetText
  0016a	8b 03		 mov	 eax, DWORD PTR [ebx]
  0016c	53		 push	 ebx
  0016d	ff 50 08	 call	 DWORD PTR [eax+8]
$LN4@GetText:

; 154  : 	return strResult;

  00170	8d 85 fc fe ff
	ff		 lea	 eax, DWORD PTR _strResult$[ebp]
  00176	8b cf		 mov	 ecx, edi
  00178	50		 push	 eax
  00179	ff 15 00 00 00
	00		 call	 DWORD PTR __imp_??0?$CStringT@DV?$StrTraitMFC_DLL@DV?$ChTraitsCRT@D@ATL@@@@@ATL@@QAE@ABV01@@Z
  0017f	8d 8d fc fe ff
	ff		 lea	 ecx, DWORD PTR _strResult$[ebp]
  00185	ff 15 00 00 00
	00		 call	 DWORD PTR __imp_??1?$CStringT@DV?$StrTraitMFC_DLL@DV?$ChTraitsCRT@D@ATL@@@@@ATL@@QAE@XZ
$LN14@GetText:

; 155  : }

  0018b	8b c7		 mov	 eax, edi
  0018d	8b 4d f4	 mov	 ecx, DWORD PTR __$EHRec$[ebp]
  00190	64 89 0d 00 00
	00 00		 mov	 DWORD PTR fs:0, ecx
  00197	59		 pop	 ecx
  00198	5f		 pop	 edi
  00199	5e		 pop	 esi
  0019a	5b		 pop	 ebx
  0019b	8b 4d f0	 mov	 ecx, DWORD PTR __$ArrayPad$[ebp]
  0019e	33 cd		 xor	 ecx, ebp
  001a0	e8 00 00 00 00	 call	 @__security_check_cookie@4
  001a5	8b e5		 mov	 esp, ebp
  001a7	5d		 pop	 ebp
  001a8	c2 14 00	 ret	 20			; 00000014H
_TEXT	ENDS
;	COMDAT text$x
text$x	SEGMENT
__unwindfunclet$?GetText@CAutoTrendDrawer@@ABE?AV?$CStringT@DV?$StrTraitMFC_DLL@DV?$ChTraitsCRT@D@ATL@@@@@ATL@@ABVCAutoTrendDrawingCalculatorData@@HABVCPoint@@1@Z$0:
  00000	8d 8d 68 ff ff
	ff		 lea	 ecx, DWORD PTR $T4[ebp]
  00006	e9 00 00 00 00	 jmp	 ??1CCoordinateCalculatorData@@QAE@XZ ; CCoordinateCalculatorData::~CCoordinateCalculatorData
__unwindfunclet$?GetText@CAutoTrendDrawer@@ABE?AV?$CStringT@DV?$StrTraitMFC_DLL@DV?$ChTraitsCRT@D@ATL@@@@@ATL@@ABVCAutoTrendDrawingCalculatorData@@HABVCPoint@@1@Z$2:
  0000b	8d 8d 08 ff ff
	ff		 lea	 ecx, DWORD PTR $T3[ebp]
  00011	e9 00 00 00 00	 jmp	 ??1CCoordinateCalculatorData@@QAE@XZ ; CCoordinateCalculatorData::~CCoordinateCalculatorData
__unwindfunclet$?GetText@CAutoTrendDrawer@@ABE?AV?$CStringT@DV?$StrTraitMFC_DLL@DV?$ChTraitsCRT@D@ATL@@@@@ATL@@ABVCAutoTrendDrawingCalculatorData@@HABVCPoint@@1@Z$3:
  00016	8d 8d fc fe ff
	ff		 lea	 ecx, DWORD PTR _strResult$[ebp]
  0001c	ff 25 00 00 00
	00		 jmp	 DWORD PTR __imp_??1?$CStringT@DV?$StrTraitMFC_DLL@DV?$ChTraitsCRT@D@ATL@@@@@ATL@@QAE@XZ
  00022	cc		 int	 3
  00023	cc		 int	 3
  00024	cc		 int	 3
  00025	cc		 int	 3
  00026	cc		 int	 3
__ehhandler$?GetText@CAutoTrendDrawer@@ABE?AV?$CStringT@DV?$StrTraitMFC_DLL@DV?$ChTraitsCRT@D@ATL@@@@@ATL@@ABVCAutoTrendDrawingCalculatorData@@HABVCPoint@@1@Z:
  00027	90		 npad	 1
  00028	90		 npad	 1
  00029	8b 54 24 08	 mov	 edx, DWORD PTR [esp+8]
  0002d	8d 42 0c	 lea	 eax, DWORD PTR [edx+12]
  00030	8b 8a dc fe ff
	ff		 mov	 ecx, DWORD PTR [edx-292]
  00036	33 c8		 xor	 ecx, eax
  00038	e8 00 00 00 00	 call	 @__security_check_cookie@4
  0003d	8b 4a fc	 mov	 ecx, DWORD PTR [edx-4]
  00040	33 c8		 xor	 ecx, eax
  00042	e8 00 00 00 00	 call	 @__security_check_cookie@4
  00047	b8 00 00 00 00	 mov	 eax, OFFSET __ehfuncinfo$?GetText@CAutoTrendDrawer@@ABE?AV?$CStringT@DV?$StrTraitMFC_DLL@DV?$ChTraitsCRT@D@ATL@@@@@ATL@@ABVCAutoTrendDrawingCalculatorData@@HABVCPoint@@1@Z
  0004c	e9 00 00 00 00	 jmp	 ___CxxFrameHandler3
text$x	ENDS
?GetText@CAutoTrendDrawer@@ABE?AV?$CStringT@DV?$StrTraitMFC_DLL@DV?$ChTraitsCRT@D@ATL@@@@@ATL@@ABVCAutoTrendDrawingCalculatorData@@HABVCPoint@@1@Z ENDP ; CAutoTrendDrawer::GetText
; Function compile flags: /Ogtp
; File D:\git\src\IBK\IBK_DRFN\ProjSrc\SrcChartEx\ChartAddIn\ChartAnalysisToolAddIn\AnalysisTool\AutoTrendDrawer.cpp
; File C:\Program Files (x86)\Microsoft Visual Studio\2019\Community\VC\Tools\MSVC\14.29.30133\atlmfc\include\atltypes.h
; File D:\git\src\IBK\IBK_DRFN\ProjSrc\SrcChartEx\ChartAddIn\ChartAnalysisToolAddIn\AnalysisTool\AutoTrendDrawer.cpp
; File C:\Program Files (x86)\Microsoft Visual Studio\2019\Community\VC\Tools\MSVC\14.29.30133\atlmfc\include\atltypes.h
; File D:\git\src\IBK\IBK_DRFN\ProjSrc\SrcChartEx\ChartAddIn\ChartAnalysisToolAddIn\AnalysisTool\AutoTrendDrawer.cpp
; File C:\Program Files (x86)\Microsoft Visual Studio\2019\Community\VC\Tools\MSVC\14.29.30133\atlmfc\include\atltypes.h
; File D:\git\src\IBK\IBK_DRFN\ProjSrc\SrcChartEx\ChartAddIn\ChartAnalysisToolAddIn\AnalysisTool\AutoTrendDrawer.cpp
; File C:\Program Files (x86)\Microsoft Visual Studio\2019\Community\VC\Tools\MSVC\14.29.30133\atlmfc\include\atltypes.h
; File D:\git\src\IBK\IBK_DRFN\ProjSrc\SrcChartEx\ChartAddIn\ChartAnalysisToolAddIn\AnalysisTool\AutoTrendDrawer.cpp
; File C:\Program Files (x86)\Microsoft Visual Studio\2019\Community\VC\Tools\MSVC\14.29.30133\atlmfc\include\atltypes.h
; File D:\git\src\IBK\IBK_DRFN\ProjSrc\SrcChartEx\ChartAddIn\ChartAnalysisToolAddIn\AnalysisTool\AutoTrendDrawer.cpp
;	COMDAT ?GetTextRegion@CAutoTrendDrawer@@ABE?AVCRect@@ABVCSize@@ABV2@@Z
_TEXT	SEGMENT
$T3 = -8						; size = 8
$T4 = 8							; size = 4
___$ReturnUdt$ = 8					; size = 4
_size$ = 12						; size = 4
$T5 = 16						; size = 4
_noFrameGraphRegion$ = 16				; size = 4
?GetTextRegion@CAutoTrendDrawer@@ABE?AVCRect@@ABVCSize@@ABV2@@Z PROC ; CAutoTrendDrawer::GetTextRegion, COMDAT
; _this$ = ecx

; 132  : {

  00000	55		 push	 ebp
  00001	8b ec		 mov	 ebp, esp
  00003	83 ec 08	 sub	 esp, 8

; 133  : 	CRect region(noFrameGraphRegion.BottomRight(), CSize(-MARGIN, -MARGIN));

  00006	8b 45 10	 mov	 eax, DWORD PTR _noFrameGraphRegion$[ebp]
  00009	53		 push	 ebx
; File C:\Program Files (x86)\Microsoft Visual Studio\2019\Community\VC\Tools\MSVC\14.29.30133\atlmfc\include\atltypes.h

; 560  : 	right = (left = point.x) + size.cx;

  0000a	8b 5d 08	 mov	 ebx, DWORD PTR ___$ReturnUdt$[ebp]
; File D:\git\src\IBK\IBK_DRFN\ProjSrc\SrcChartEx\ChartAddIn\ChartAnalysisToolAddIn\AnalysisTool\AutoTrendDrawer.cpp

; 132  : {

  0000d	56		 push	 esi

; 133  : 	CRect region(noFrameGraphRegion.BottomRight(), CSize(-MARGIN, -MARGIN));

  0000e	8b 50 08	 mov	 edx, DWORD PTR [eax+8]
  00011	8b 40 0c	 mov	 eax, DWORD PTR [eax+12]
  00014	57		 push	 edi
; File C:\Program Files (x86)\Microsoft Visual Studio\2019\Community\VC\Tools\MSVC\14.29.30133\atlmfc\include\atltypes.h

; 884  : 	if (left > right)

  00015	c7 45 fc 00 00
	00 00		 mov	 DWORD PTR $T3[ebp+4], 0

; 560  : 	right = (left = point.x) + size.cx;

  0001c	8d 7a fc	 lea	 edi, DWORD PTR [edx-4]

; 561  : 	bottom = (top = point.y) + size.cy;

  0001f	8d 48 fc	 lea	 ecx, DWORD PTR [eax-4]
  00022	89 4d 08	 mov	 DWORD PTR $T4[ebp], ecx

; 884  : 	if (left > right)

  00025	3b d7		 cmp	 edx, edi
  00027	7e 05		 jle	 SHORT $LN13@GetTextReg

; 885  : 	{
; 886  : 		nTemp = left;
; 887  : 		left = right;
; 888  : 		right = nTemp;

  00029	89 55 10	 mov	 DWORD PTR $T5[ebp], edx
  0002c	eb 05		 jmp	 SHORT $LN8@GetTextReg
$LN13@GetTextReg:
  0002e	89 7d 10	 mov	 DWORD PTR $T5[ebp], edi
  00031	8b fa		 mov	 edi, edx
$LN8@GetTextReg:

; 889  : 	}
; 890  : 	if (top > bottom)

  00033	8b f0		 mov	 esi, eax
  00035	3b c1		 cmp	 eax, ecx
  00037	7e 05		 jle	 SHORT $LN9@GetTextReg

; 891  : 	{
; 892  : 		nTemp = top;
; 893  : 		top = bottom;
; 894  : 		bottom = nTemp;

  00039	8b f1		 mov	 esi, ecx
  0003b	89 45 08	 mov	 DWORD PTR $T4[ebp], eax
$LN9@GetTextReg:
; File D:\git\src\IBK\IBK_DRFN\ProjSrc\SrcChartEx\ChartAddIn\ChartAnalysisToolAddIn\AnalysisTool\AutoTrendDrawer.cpp

; 135  : 	region.InflateRect((size.cx * 18), size.cy, 0, 0);

  0003e	8b 55 0c	 mov	 edx, DWORD PTR _size$[ebp]
  00041	8b 02		 mov	 eax, DWORD PTR [edx]
  00043	8d 0c c0	 lea	 ecx, DWORD PTR [eax+eax*8]
; File C:\Program Files (x86)\Microsoft Visual Studio\2019\Community\VC\Tools\MSVC\14.29.30133\atlmfc\include\atltypes.h

; 914  : 	right += r;

  00046	8b 45 10	 mov	 eax, DWORD PTR $T5[ebp]
; File D:\git\src\IBK\IBK_DRFN\ProjSrc\SrcChartEx\ChartAddIn\ChartAnalysisToolAddIn\AnalysisTool\AutoTrendDrawer.cpp

; 135  : 	region.InflateRect((size.cx * 18), size.cy, 0, 0);

  00049	03 c9		 add	 ecx, ecx
; File C:\Program Files (x86)\Microsoft Visual Studio\2019\Community\VC\Tools\MSVC\14.29.30133\atlmfc\include\atltypes.h

; 914  : 	right += r;

  0004b	89 43 08	 mov	 DWORD PTR [ebx+8], eax

; 915  : 	bottom += b;

  0004e	8b 45 08	 mov	 eax, DWORD PTR $T4[ebp]
  00051	2b f9		 sub	 edi, ecx
  00053	2b 72 04	 sub	 esi, DWORD PTR [edx+4]
  00056	89 3b		 mov	 DWORD PTR [ebx], edi
; File D:\git\src\IBK\IBK_DRFN\ProjSrc\SrcChartEx\ChartAddIn\ChartAnalysisToolAddIn\AnalysisTool\AutoTrendDrawer.cpp

; 136  : 	return region;

  00058	5f		 pop	 edi
; File C:\Program Files (x86)\Microsoft Visual Studio\2019\Community\VC\Tools\MSVC\14.29.30133\atlmfc\include\atltypes.h

; 913  : 	top -= t;

  00059	89 73 04	 mov	 DWORD PTR [ebx+4], esi

; 915  : 	bottom += b;

  0005c	89 43 0c	 mov	 DWORD PTR [ebx+12], eax
; File D:\git\src\IBK\IBK_DRFN\ProjSrc\SrcChartEx\ChartAddIn\ChartAnalysisToolAddIn\AnalysisTool\AutoTrendDrawer.cpp

; 136  : 	return region;

  0005f	8b c3		 mov	 eax, ebx
  00061	5e		 pop	 esi
  00062	5b		 pop	 ebx

; 137  : }

  00063	8b e5		 mov	 esp, ebp
  00065	5d		 pop	 ebp
  00066	c2 0c 00	 ret	 12			; 0000000cH
?GetTextRegion@CAutoTrendDrawer@@ABE?AVCRect@@ABVCSize@@ABV2@@Z ENDP ; CAutoTrendDrawer::GetTextRegion
_TEXT	ENDS
; Function compile flags: /Ogtp
; File D:\git\src\IBK\IBK_DRFN\ProjSrc\SrcChartEx\ChartAddIn\ChartAnalysisToolAddIn\AnalysisTool\AutoTrendDrawer.cpp
; File C:\Program Files (x86)\Microsoft Visual Studio\2019\Community\VC\Tools\MSVC\14.29.30133\atlmfc\include\atltypes.h
; File D:\git\src\IBK\IBK_DRFN\ProjSrc\SrcChartEx\ChartAddIn\ChartAnalysisToolAddIn\AnalysisTool\AutoTrendDrawer.cpp
; File C:\Program Files (x86)\Microsoft Visual Studio\2019\Community\VC\Tools\MSVC\14.29.30133\atlmfc\include\atltypes.h
; File D:\git\src\IBK\IBK_DRFN\ProjSrc\SrcChartEx\ChartAddIn\ChartAnalysisToolAddIn\AnalysisTool\AutoTrendDrawer.cpp
; File C:\Program Files (x86)\Microsoft Visual Studio\2019\Community\VC\Tools\MSVC\14.29.30133\atlmfc\include\atltypes.h
; File D:\git\src\IBK\IBK_DRFN\ProjSrc\SrcChartEx\ChartAddIn\ChartAnalysisToolAddIn\AnalysisTool\AutoTrendDrawer.cpp
; File C:\Program Files (x86)\Microsoft Visual Studio\2019\Community\VC\Tools\MSVC\14.29.30133\atlmfc\include\atltypes.h
; File D:\git\src\IBK\IBK_DRFN\ProjSrc\SrcChartEx\ChartAddIn\ChartAnalysisToolAddIn\AnalysisTool\AutoTrendDrawer.cpp
;	COMDAT ?GetPoint@CAutoTrendDrawer@@ABE?AVCPoint@@ABVCRegion@@HABV2@1@Z
_TEXT	SEGMENT
_line2_pt1$ = -48					; size = 8
_line2_pt2$ = -40					; size = 8
_this$GSCopy$1$ = -32					; size = 4
___$ReturnUdt$GSCopy$1$ = -28				; size = 4
_line1_pt1$GSCopy$1$ = -24				; size = 4
$T1 = -20						; size = 16
$T2 = -20						; size = 16
__$ArrayPad$ = -4					; size = 4
___$ReturnUdt$ = 8					; size = 4
_region$ = 12						; size = 4
_nDataIndex$ = 16					; size = 4
_line1_pt1$ = 20					; size = 4
_line1_pt2$ = 24					; size = 4
?GetPoint@CAutoTrendDrawer@@ABE?AVCPoint@@ABVCRegion@@HABV2@1@Z PROC ; CAutoTrendDrawer::GetPoint, COMDAT
; _this$ = ecx

; 125  : {

  00000	55		 push	 ebp
  00001	8b ec		 mov	 ebp, esp
  00003	83 ec 30	 sub	 esp, 48			; 00000030H
  00006	a1 00 00 00 00	 mov	 eax, DWORD PTR ___security_cookie
  0000b	33 c5		 xor	 eax, ebp
  0000d	89 45 fc	 mov	 DWORD PTR __$ArrayPad$[ebp], eax
  00010	8b 45 08	 mov	 eax, DWORD PTR ___$ReturnUdt$[ebp]
  00013	53		 push	 ebx
  00014	8b 5d 18	 mov	 ebx, DWORD PTR _line1_pt2$[ebp]
  00017	56		 push	 esi
  00018	57		 push	 edi
  00019	8b 7d 0c	 mov	 edi, DWORD PTR _region$[ebp]

; 126  : 	int nX = CDrawer::GetDrawingPoint_X(region, nDataIndex);

  0001c	6a 01		 push	 1
  0001e	ff 75 10	 push	 DWORD PTR _nDataIndex$[ebp]
  00021	89 45 e4	 mov	 DWORD PTR ___$ReturnUdt$GSCopy$1$[ebp], eax
  00024	8b 45 14	 mov	 eax, DWORD PTR _line1_pt1$[ebp]
  00027	57		 push	 edi
  00028	89 4d e0	 mov	 DWORD PTR _this$GSCopy$1$[ebp], ecx
  0002b	89 45 e8	 mov	 DWORD PTR _line1_pt1$GSCopy$1$[ebp], eax
  0002e	e8 00 00 00 00	 call	 ?GetDrawingPoint_X@CDrawer@@IBEHABVCRegion@@H_N@Z ; CDrawer::GetDrawingPoint_X
  00033	8b f0		 mov	 esi, eax

; 127  : 	CPoint line2_pt1(nX, region.GetRect().top), line2_pt2(nX, region.GetRect().bottom);

  00035	8b cf		 mov	 ecx, edi
  00037	8d 45 ec	 lea	 eax, DWORD PTR $T2[ebp]
  0003a	50		 push	 eax
  0003b	e8 00 00 00 00	 call	 ?GetRect@CRegion@@QBE?AVCRect@@XZ ; CRegion::GetRect
  00040	8b cf		 mov	 ecx, edi
  00042	8b 40 04	 mov	 eax, DWORD PTR [eax+4]
; File C:\Program Files (x86)\Microsoft Visual Studio\2019\Community\VC\Tools\MSVC\14.29.30133\atlmfc\include\atltypes.h

; 409  : 	y = initY;

  00045	89 45 d4	 mov	 DWORD PTR _line2_pt1$[ebp+4], eax
; File D:\git\src\IBK\IBK_DRFN\ProjSrc\SrcChartEx\ChartAddIn\ChartAnalysisToolAddIn\AnalysisTool\AutoTrendDrawer.cpp

; 127  : 	CPoint line2_pt1(nX, region.GetRect().top), line2_pt2(nX, region.GetRect().bottom);

  00048	8d 45 ec	 lea	 eax, DWORD PTR $T1[ebp]
  0004b	50		 push	 eax
; File C:\Program Files (x86)\Microsoft Visual Studio\2019\Community\VC\Tools\MSVC\14.29.30133\atlmfc\include\atltypes.h

; 408  : 	x = initX;

  0004c	89 75 d0	 mov	 DWORD PTR _line2_pt1$[ebp], esi
; File D:\git\src\IBK\IBK_DRFN\ProjSrc\SrcChartEx\ChartAddIn\ChartAnalysisToolAddIn\AnalysisTool\AutoTrendDrawer.cpp

; 127  : 	CPoint line2_pt1(nX, region.GetRect().top), line2_pt2(nX, region.GetRect().bottom);

  0004f	e8 00 00 00 00	 call	 ?GetRect@CRegion@@QBE?AVCRect@@XZ ; CRegion::GetRect

; 128  : 	return CDrawer::GetLineEndPoint(line1_pt1, line1_pt2, line2_pt1, line2_pt2);

  00054	8b 4d e0	 mov	 ecx, DWORD PTR _this$GSCopy$1$[ebp]
  00057	8b 40 0c	 mov	 eax, DWORD PTR [eax+12]
; File C:\Program Files (x86)\Microsoft Visual Studio\2019\Community\VC\Tools\MSVC\14.29.30133\atlmfc\include\atltypes.h

; 409  : 	y = initY;

  0005a	89 45 dc	 mov	 DWORD PTR _line2_pt2$[ebp+4], eax
; File D:\git\src\IBK\IBK_DRFN\ProjSrc\SrcChartEx\ChartAddIn\ChartAnalysisToolAddIn\AnalysisTool\AutoTrendDrawer.cpp

; 128  : 	return CDrawer::GetLineEndPoint(line1_pt1, line1_pt2, line2_pt1, line2_pt2);

  0005d	8d 45 d8	 lea	 eax, DWORD PTR _line2_pt2$[ebp]
  00060	50		 push	 eax
  00061	8d 45 d0	 lea	 eax, DWORD PTR _line2_pt1$[ebp]
; File C:\Program Files (x86)\Microsoft Visual Studio\2019\Community\VC\Tools\MSVC\14.29.30133\atlmfc\include\atltypes.h

; 408  : 	x = initX;

  00064	89 75 d8	 mov	 DWORD PTR _line2_pt2$[ebp], esi
; File D:\git\src\IBK\IBK_DRFN\ProjSrc\SrcChartEx\ChartAddIn\ChartAnalysisToolAddIn\AnalysisTool\AutoTrendDrawer.cpp

; 128  : 	return CDrawer::GetLineEndPoint(line1_pt1, line1_pt2, line2_pt1, line2_pt2);

  00067	8b 75 e4	 mov	 esi, DWORD PTR ___$ReturnUdt$GSCopy$1$[ebp]
  0006a	50		 push	 eax
  0006b	53		 push	 ebx
  0006c	ff 75 e8	 push	 DWORD PTR _line1_pt1$GSCopy$1$[ebp]
  0006f	56		 push	 esi
  00070	e8 00 00 00 00	 call	 ?GetLineEndPoint@CDrawer@@IBE?AVCPoint@@ABV2@000@Z ; CDrawer::GetLineEndPoint

; 129  : }

  00075	8b 4d fc	 mov	 ecx, DWORD PTR __$ArrayPad$[ebp]
  00078	8b c6		 mov	 eax, esi
  0007a	5f		 pop	 edi
  0007b	5e		 pop	 esi
  0007c	33 cd		 xor	 ecx, ebp
  0007e	5b		 pop	 ebx
  0007f	e8 00 00 00 00	 call	 @__security_check_cookie@4
  00084	8b e5		 mov	 esp, ebp
  00086	5d		 pop	 ebp
  00087	c2 14 00	 ret	 20			; 00000014H
?GetPoint@CAutoTrendDrawer@@ABE?AVCPoint@@ABVCRegion@@HABV2@1@Z ENDP ; CAutoTrendDrawer::GetPoint
_TEXT	ENDS
; Function compile flags: /Ogtp
; File D:\git\src\IBK\IBK_DRFN\ProjSrc\SrcChartEx\ChartAddIn\ChartAnalysisToolAddIn\AnalysisTool\AutoTrendDrawer.cpp
;	COMDAT ?GetRegion@CAutoTrendDrawer@@ABE?AVCRegion@@ABVCCoordinateCalculatorData@@@Z
_TEXT	SEGMENT
$T1 = -28						; size = 8
$T2 = -20						; size = 16
__$ArrayPad$ = -4					; size = 4
___$ReturnUdt$ = 8					; size = 4
_calData$ = 12						; size = 4
?GetRegion@CAutoTrendDrawer@@ABE?AVCRegion@@ABVCCoordinateCalculatorData@@@Z PROC ; CAutoTrendDrawer::GetRegion, COMDAT
; _this$ = ecx

; 120  : {

  00000	55		 push	 ebp
  00001	8b ec		 mov	 ebp, esp
  00003	83 ec 1c	 sub	 esp, 28			; 0000001cH
  00006	a1 00 00 00 00	 mov	 eax, DWORD PTR ___security_cookie
  0000b	33 c5		 xor	 eax, ebp
  0000d	89 45 fc	 mov	 DWORD PTR __$ArrayPad$[ebp], eax
  00010	56		 push	 esi
  00011	8b 75 0c	 mov	 esi, DWORD PTR _calData$[ebp]

; 121  : 	return CRegion(calData.GetRegion(), CDisplayAttributes(calData.GetDisplayDataStart(), calData.GetDisplayDataEnd()));

  00014	8b ce		 mov	 ecx, esi
  00016	57		 push	 edi
  00017	8b 7d 08	 mov	 edi, DWORD PTR ___$ReturnUdt$[ebp]
  0001a	e8 00 00 00 00	 call	 ?GetDisplayDataEnd@CCoordinateCalculatorData@@QBEHXZ ; CCoordinateCalculatorData::GetDisplayDataEnd
  0001f	50		 push	 eax
  00020	8b ce		 mov	 ecx, esi
  00022	e8 00 00 00 00	 call	 ?GetDisplayDataStart@CCoordinateCalculatorData@@QBEHXZ ; CCoordinateCalculatorData::GetDisplayDataStart
  00027	50		 push	 eax
  00028	8d 4d e4	 lea	 ecx, DWORD PTR $T1[ebp]
  0002b	e8 00 00 00 00	 call	 ??0CDisplayAttributes@@QAE@HH@Z ; CDisplayAttributes::CDisplayAttributes
  00030	50		 push	 eax
  00031	8d 45 ec	 lea	 eax, DWORD PTR $T2[ebp]
  00034	8b ce		 mov	 ecx, esi
  00036	50		 push	 eax
  00037	e8 00 00 00 00	 call	 ?GetRegion@CCoordinateCalculatorData@@QBE?AVCRect@@XZ ; CCoordinateCalculatorData::GetRegion
  0003c	50		 push	 eax
  0003d	8b cf		 mov	 ecx, edi
  0003f	e8 00 00 00 00	 call	 ??0CRegion@@QAE@ABVCRect@@ABVCDisplayAttributes@@@Z ; CRegion::CRegion

; 122  : }

  00044	8b 4d fc	 mov	 ecx, DWORD PTR __$ArrayPad$[ebp]
  00047	8b c7		 mov	 eax, edi
  00049	5f		 pop	 edi
  0004a	33 cd		 xor	 ecx, ebp
  0004c	5e		 pop	 esi
  0004d	e8 00 00 00 00	 call	 @__security_check_cookie@4
  00052	8b e5		 mov	 esp, ebp
  00054	5d		 pop	 ebp
  00055	c2 08 00	 ret	 8
?GetRegion@CAutoTrendDrawer@@ABE?AVCRegion@@ABVCCoordinateCalculatorData@@@Z ENDP ; CAutoTrendDrawer::GetRegion
_TEXT	ENDS
; Function compile flags: /Ogtp
; File D:\git\src\IBK\IBK_DRFN\ProjSrc\SrcChartEx\ChartAddIn\ChartAnalysisToolAddIn\AnalysisTool\AutoTrendDrawer.cpp
; File C:\Program Files (x86)\Microsoft Visual Studio\2019\Community\VC\Tools\MSVC\14.29.30133\atlmfc\include\atlsimpstr.h
; File C:\Program Files (x86)\Microsoft Visual Studio\2019\Community\VC\Tools\MSVC\14.29.30133\atlmfc\include\afxwin1.inl
; File D:\git\src\IBK\IBK_DRFN\ProjSrc\SrcChartEx\ChartAddIn\ChartAnalysisToolAddIn\AnalysisTool\AutoTrendDrawer.cpp
; File C:\Program Files (x86)\Microsoft Visual Studio\2019\Community\VC\Tools\MSVC\14.29.30133\atlmfc\include\afxwin1.inl
; File C:\Program Files (x86)\Microsoft Visual Studio\2019\Community\VC\Tools\MSVC\14.29.30133\atlmfc\include\atltypes.h
; File D:\git\src\IBK\IBK_DRFN\ProjSrc\SrcChartEx\ChartAddIn\ChartAnalysisToolAddIn\AnalysisTool\AutoTrendDrawer.cpp
; File C:\Program Files (x86)\Microsoft Visual Studio\2019\Community\VC\Tools\MSVC\14.29.30133\atlmfc\include\atltypes.h
; File D:\git\src\IBK\IBK_DRFN\ProjSrc\SrcChartEx\ChartAddIn\ChartAnalysisToolAddIn\AnalysisTool\AutoTrendDrawer.cpp
; File C:\Program Files (x86)\Microsoft Visual Studio\2019\Community\VC\Tools\MSVC\14.29.30133\atlmfc\include\atltypes.h
; File D:\git\src\IBK\IBK_DRFN\ProjSrc\SrcChartEx\ChartAddIn\ChartAnalysisToolAddIn\AnalysisTool\AutoTrendDrawer.cpp
; File C:\Program Files (x86)\Microsoft Visual Studio\2019\Community\VC\Tools\MSVC\14.29.30133\atlmfc\include\atltypes.h
; File D:\git\src\IBK\IBK_DRFN\ProjSrc\SrcChartEx\ChartAddIn\ChartAnalysisToolAddIn\AnalysisTool\AutoTrendDrawer.cpp
; File C:\Program Files (x86)\Microsoft Visual Studio\2019\Community\VC\Tools\MSVC\14.29.30133\atlmfc\include\atltypes.h
; File D:\git\src\IBK\IBK_DRFN\ProjSrc\SrcChartEx\ChartAddIn\ChartAnalysisToolAddIn\AnalysisTool\AutoTrendDrawer.cpp
; File C:\Program Files (x86)\Microsoft Visual Studio\2019\Community\VC\Tools\MSVC\14.29.30133\atlmfc\include\atltypes.h
; File D:\git\src\IBK\IBK_DRFN\ProjSrc\SrcChartEx\ChartAddIn\ChartAnalysisToolAddIn\AnalysisTool\AutoTrendDrawer.cpp
; File C:\Program Files (x86)\Microsoft Visual Studio\2019\Community\VC\Tools\MSVC\14.29.30133\atlmfc\include\atltypes.h
; File D:\git\src\IBK\IBK_DRFN\ProjSrc\SrcChartEx\ChartAddIn\ChartAnalysisToolAddIn\AnalysisTool\AutoTrendDrawer.cpp
;	COMDAT ?DrawTextA@CAutoTrendDrawer@@AAEXPAVCDC@@ABVCAutoTrendDrawingCalculatorData@@HABVCPoint@@222@Z
_TEXT	SEGMENT
$T4 = -344						; size = 8
_point$5 = -336						; size = 8
_lowPt$GSCopy$1$ = -328					; size = 4
_highPt$GSCopy$1$ = -324				; size = 4
$T6 = -320						; size = 4
_size$7 = -316						; size = 8
_nOldDrawMode$1$ = -312					; size = 4
_nCurrentDataIndex$GSCopy$1$ = -308			; size = 4
_calData$GSCopy$1$ = -304				; size = 4
$T8 = -300						; size = 4
_this$GSCopy$1$ = -296					; size = 4
_calculator$9 = -289					; size = 1
$T10 = -288						; size = 4
_strResult$11 = -288					; size = 4
$T12 = -284						; size = 4
$T13 = -284						; size = 4
$T14 = -280						; size = 96
$T15 = -184						; size = 96
$T16 = -88						; size = 16
$T17 = -72						; size = 24
$T18 = -48						; size = 16
$T19 = -48						; size = 16
_textRegion$ = -32					; size = 16
__$ArrayPad$ = -16					; size = 4
__$EHRec$ = -12						; size = 12
_pDC$ = 8						; size = 4
_calData$ = 12						; size = 4
_nCurrentDataIndex$ = 16				; size = 4
_highPt$ = 20						; size = 4
_lowPt$ = 24						; size = 4
_realHighPt$ = 28					; size = 4
_realLowPt$ = 32					; size = 4
?DrawTextA@CAutoTrendDrawer@@AAEXPAVCDC@@ABVCAutoTrendDrawingCalculatorData@@HABVCPoint@@222@Z PROC ; CAutoTrendDrawer::DrawTextA, COMDAT
; _this$ = ecx

; 107  : {

  00000	55		 push	 ebp
  00001	8b ec		 mov	 ebp, esp
  00003	6a ff		 push	 -1
  00005	68 00 00 00 00	 push	 __ehhandler$?DrawTextA@CAutoTrendDrawer@@AAEXPAVCDC@@ABVCAutoTrendDrawingCalculatorData@@HABVCPoint@@222@Z
  0000a	64 a1 00 00 00
	00		 mov	 eax, DWORD PTR fs:0
  00010	50		 push	 eax
  00011	81 ec 4c 01 00
	00		 sub	 esp, 332		; 0000014cH
  00017	a1 00 00 00 00	 mov	 eax, DWORD PTR ___security_cookie
  0001c	33 c5		 xor	 eax, ebp
  0001e	89 45 f0	 mov	 DWORD PTR __$ArrayPad$[ebp], eax
  00021	53		 push	 ebx
  00022	56		 push	 esi
  00023	57		 push	 edi
  00024	50		 push	 eax
  00025	8d 45 f4	 lea	 eax, DWORD PTR __$EHRec$[ebp]
  00028	64 a3 00 00 00
	00		 mov	 DWORD PTR fs:0, eax
  0002e	89 8d d8 fe ff
	ff		 mov	 DWORD PTR _this$GSCopy$1$[ebp], ecx
  00034	8b 45 10	 mov	 eax, DWORD PTR _nCurrentDataIndex$[ebp]

; 108  : 	CRect textRegion = GetTextRegion(pDC->GetTextExtent("L"), calData.GetNoFrameGraphRegion());

  00037	8d 8d e4 fe ff
	ff		 lea	 ecx, DWORD PTR $T13[ebp]
  0003d	8b 75 0c	 mov	 esi, DWORD PTR _calData$[ebp]
  00040	8b 5d 08	 mov	 ebx, DWORD PTR _pDC$[ebp]
  00043	89 85 cc fe ff
	ff		 mov	 DWORD PTR _nCurrentDataIndex$GSCopy$1$[ebp], eax
  00049	8b 45 14	 mov	 eax, DWORD PTR _highPt$[ebp]
  0004c	89 85 bc fe ff
	ff		 mov	 DWORD PTR _highPt$GSCopy$1$[ebp], eax
  00052	8b 45 18	 mov	 eax, DWORD PTR _lowPt$[ebp]
  00055	68 00 00 00 00	 push	 OFFSET ??_C@_01OCOKONAJ@L@
  0005a	89 b5 d0 fe ff
	ff		 mov	 DWORD PTR _calData$GSCopy$1$[ebp], esi
  00060	89 85 b8 fe ff
	ff		 mov	 DWORD PTR _lowPt$GSCopy$1$[ebp], eax
  00066	ff 15 00 00 00
	00		 call	 DWORD PTR __imp_??0?$CStringT@DV?$StrTraitMFC_DLL@DV?$ChTraitsCRT@D@ATL@@@@@ATL@@QAE@PBD@Z
; File C:\Program Files (x86)\Microsoft Visual Studio\2019\Community\VC\Tools\MSVC\14.29.30133\atlmfc\include\atlsimpstr.h

; 519  : 		return( GetData()->nDataLength );

  0006c	8b 85 e4 fe ff
	ff		 mov	 eax, DWORD PTR $T13[ebp]
; File C:\Program Files (x86)\Microsoft Visual Studio\2019\Community\VC\Tools\MSVC\14.29.30133\atlmfc\include\afxwin1.inl

; 639  : 		VERIFY(::GetTextExtentPoint32(m_hAttribDC, str, (int)str.GetLength(), &size));

  00072	8d 8d c4 fe ff
	ff		 lea	 ecx, DWORD PTR _size$7[ebp]
  00078	51		 push	 ecx
; File D:\git\src\IBK\IBK_DRFN\ProjSrc\SrcChartEx\ChartAddIn\ChartAnalysisToolAddIn\AnalysisTool\AutoTrendDrawer.cpp

; 108  : 	CRect textRegion = GetTextRegion(pDC->GetTextExtent("L"), calData.GetNoFrameGraphRegion());

  00079	c7 45 fc 00 00
	00 00		 mov	 DWORD PTR __$EHRec$[ebp+8], 0
; File C:\Program Files (x86)\Microsoft Visual Studio\2019\Community\VC\Tools\MSVC\14.29.30133\atlmfc\include\afxwin1.inl

; 639  : 		VERIFY(::GetTextExtentPoint32(m_hAttribDC, str, (int)str.GetLength(), &size));

  00080	ff 70 f4	 push	 DWORD PTR [eax-12]
  00083	50		 push	 eax
  00084	ff 73 08	 push	 DWORD PTR [ebx+8]
  00087	ff 15 00 00 00
	00		 call	 DWORD PTR __imp__GetTextExtentPoint32A@16
; File C:\Program Files (x86)\Microsoft Visual Studio\2019\Community\VC\Tools\MSVC\14.29.30133\atlmfc\include\atltypes.h

; 318  : 	*(SIZE*)this = initSize;

  0008d	8b 85 c8 fe ff
	ff		 mov	 eax, DWORD PTR _size$7[ebp+4]
; File D:\git\src\IBK\IBK_DRFN\ProjSrc\SrcChartEx\ChartAddIn\ChartAnalysisToolAddIn\AnalysisTool\AutoTrendDrawer.cpp

; 108  : 	CRect textRegion = GetTextRegion(pDC->GetTextExtent("L"), calData.GetNoFrameGraphRegion());

  00093	8b ce		 mov	 ecx, esi
; File C:\Program Files (x86)\Microsoft Visual Studio\2019\Community\VC\Tools\MSVC\14.29.30133\atlmfc\include\atltypes.h

; 318  : 	*(SIZE*)this = initSize;

  00095	8b bd c4 fe ff
	ff		 mov	 edi, DWORD PTR _size$7[ebp]
  0009b	89 85 e0 fe ff
	ff		 mov	 DWORD PTR $T10[ebp], eax
; File D:\git\src\IBK\IBK_DRFN\ProjSrc\SrcChartEx\ChartAddIn\ChartAnalysisToolAddIn\AnalysisTool\AutoTrendDrawer.cpp

; 108  : 	CRect textRegion = GetTextRegion(pDC->GetTextExtent("L"), calData.GetNoFrameGraphRegion());

  000a1	8d 45 d0	 lea	 eax, DWORD PTR $T19[ebp]
  000a4	50		 push	 eax
  000a5	e8 00 00 00 00	 call	 ?GetNoFrameGraphRegion@CAutoTrendDrawingCalculatorData@@QBE?AVCRect@@XZ ; CAutoTrendDrawingCalculatorData::GetNoFrameGraphRegion

; 133  : 	CRect region(noFrameGraphRegion.BottomRight(), CSize(-MARGIN, -MARGIN));

  000aa	8b 50 08	 mov	 edx, DWORD PTR [eax+8]
  000ad	8b 48 0c	 mov	 ecx, DWORD PTR [eax+12]
; File C:\Program Files (x86)\Microsoft Visual Studio\2019\Community\VC\Tools\MSVC\14.29.30133\atlmfc\include\atltypes.h

; 560  : 	right = (left = point.x) + size.cx;

  000b0	8d 72 fc	 lea	 esi, DWORD PTR [edx-4]
  000b3	89 75 e8	 mov	 DWORD PTR _textRegion$[ebp+8], esi

; 561  : 	bottom = (top = point.y) + size.cy;

  000b6	8d 41 fc	 lea	 eax, DWORD PTR [ecx-4]
  000b9	89 45 ec	 mov	 DWORD PTR _textRegion$[ebp+12], eax
  000bc	3b d6		 cmp	 edx, esi

; 884  : 	if (left > right)

  000be	7e 05		 jle	 SHORT $LN24@DrawTextA

; 885  : 	{
; 886  : 		nTemp = left;
; 887  : 		left = right;
; 888  : 		right = nTemp;

  000c0	89 55 e8	 mov	 DWORD PTR _textRegion$[ebp+8], edx
  000c3	8b d6		 mov	 edx, esi
$LN24@DrawTextA:

; 889  : 	}
; 890  : 	if (top > bottom)

  000c5	3b c8		 cmp	 ecx, eax
  000c7	7e 05		 jle	 SHORT $LN25@DrawTextA

; 891  : 	{
; 892  : 		nTemp = top;
; 893  : 		top = bottom;
; 894  : 		bottom = nTemp;

  000c9	89 4d ec	 mov	 DWORD PTR _textRegion$[ebp+12], ecx
  000cc	8b c8		 mov	 ecx, eax
$LN25@DrawTextA:

; 913  : 	top -= t;

  000ce	2b 8d e0 fe ff
	ff		 sub	 ecx, DWORD PTR $T10[ebp]
; File D:\git\src\IBK\IBK_DRFN\ProjSrc\SrcChartEx\ChartAddIn\ChartAnalysisToolAddIn\AnalysisTool\AutoTrendDrawer.cpp

; 135  : 	region.InflateRect((size.cx * 18), size.cy, 0, 0);

  000d4	8d 04 ff	 lea	 eax, DWORD PTR [edi+edi*8]
  000d7	03 c0		 add	 eax, eax
; File C:\Program Files (x86)\Microsoft Visual Studio\2019\Community\VC\Tools\MSVC\14.29.30133\atlmfc\include\atltypes.h

; 913  : 	top -= t;

  000d9	89 4d e4	 mov	 DWORD PTR _textRegion$[ebp+4], ecx
  000dc	2b d0		 sub	 edx, eax
; File D:\git\src\IBK\IBK_DRFN\ProjSrc\SrcChartEx\ChartAddIn\ChartAnalysisToolAddIn\AnalysisTool\AutoTrendDrawer.cpp

; 108  : 	CRect textRegion = GetTextRegion(pDC->GetTextExtent("L"), calData.GetNoFrameGraphRegion());

  000de	c7 45 fc ff ff
	ff ff		 mov	 DWORD PTR __$EHRec$[ebp+8], -1
  000e5	8d 8d e4 fe ff
	ff		 lea	 ecx, DWORD PTR $T13[ebp]
; File C:\Program Files (x86)\Microsoft Visual Studio\2019\Community\VC\Tools\MSVC\14.29.30133\atlmfc\include\atltypes.h

; 912  : 	left -= l;

  000eb	89 55 e0	 mov	 DWORD PTR _textRegion$[ebp], edx
; File D:\git\src\IBK\IBK_DRFN\ProjSrc\SrcChartEx\ChartAddIn\ChartAnalysisToolAddIn\AnalysisTool\AutoTrendDrawer.cpp

; 108  : 	CRect textRegion = GetTextRegion(pDC->GetTextExtent("L"), calData.GetNoFrameGraphRegion());

  000ee	ff 15 00 00 00
	00		 call	 DWORD PTR __imp_??1?$CStringT@DV?$StrTraitMFC_DLL@DV?$ChTraitsCRT@D@ATL@@@@@ATL@@QAE@XZ
; File C:\Program Files (x86)\Microsoft Visual Studio\2019\Community\VC\Tools\MSVC\14.29.30133\atlmfc\include\atltypes.h

; 638  : 	return ::IsRectEmpty(this);

  000f4	8d 45 e0	 lea	 eax, DWORD PTR _textRegion$[ebp]
  000f7	50		 push	 eax
  000f8	ff 15 00 00 00
	00		 call	 DWORD PTR __imp__IsRectEmpty@4
; File D:\git\src\IBK\IBK_DRFN\ProjSrc\SrcChartEx\ChartAddIn\ChartAnalysisToolAddIn\AnalysisTool\AutoTrendDrawer.cpp

; 109  : 	if(textRegion.IsRectEmpty() || !calData.GetNoFrameGraphRegion().PtInRect(textRegion.TopLeft()))

  000fe	85 c0		 test	 eax, eax
  00100	0f 85 e5 01 00
	00		 jne	 $LN3@DrawTextA
  00106	8b 8d d0 fe ff
	ff		 mov	 ecx, DWORD PTR _calData$GSCopy$1$[ebp]
  0010c	8d 45 d0	 lea	 eax, DWORD PTR $T18[ebp]
  0010f	8b 7d e0	 mov	 edi, DWORD PTR _textRegion$[ebp]
  00112	8b 75 e4	 mov	 esi, DWORD PTR _textRegion$[ebp+4]
  00115	50		 push	 eax
  00116	e8 00 00 00 00	 call	 ?GetNoFrameGraphRegion@CAutoTrendDrawingCalculatorData@@QBE?AVCRect@@XZ ; CAutoTrendDrawingCalculatorData::GetNoFrameGraphRegion
; File C:\Program Files (x86)\Microsoft Visual Studio\2019\Community\VC\Tools\MSVC\14.29.30133\atlmfc\include\atltypes.h

; 648  : 	return ::PtInRect(this, point);

  0011b	56		 push	 esi
  0011c	57		 push	 edi
  0011d	50		 push	 eax
  0011e	ff 15 00 00 00
	00		 call	 DWORD PTR __imp__PtInRect@12
; File D:\git\src\IBK\IBK_DRFN\ProjSrc\SrcChartEx\ChartAddIn\ChartAnalysisToolAddIn\AnalysisTool\AutoTrendDrawer.cpp

; 109  : 	if(textRegion.IsRectEmpty() || !calData.GetNoFrameGraphRegion().PtInRect(textRegion.TopLeft()))

  00124	85 c0		 test	 eax, eax
  00126	0f 84 bf 01 00
	00		 je	 $LN3@DrawTextA

; 110  : 		return;
; 111  : 
; 112  : 	int nOldDrawMode = pDC->SetROP2(R2_COPYPEN);

  0012c	6a 0d		 push	 13			; 0000000dH
  0012e	8b cb		 mov	 ecx, ebx
  00130	e8 00 00 00 00	 call	 ?SetROP2@CDC@@QAEHH@Z	; CDC::SetROP2

; 113  : 	CDrawer::DrawRectangle(pDC, textRegion, RGB(255, 0, 0), RGB(255, 255, 255), true);

  00135	8b 8d d8 fe ff
	ff		 mov	 ecx, DWORD PTR _this$GSCopy$1$[ebp]
  0013b	89 85 c8 fe ff
	ff		 mov	 DWORD PTR _nOldDrawMode$1$[ebp], eax
  00141	8d 85 e4 fe ff
	ff		 lea	 eax, DWORD PTR $T12[ebp]
  00147	6a 01		 push	 1
  00149	50		 push	 eax
  0014a	8d 85 c0 fe ff
	ff		 lea	 eax, DWORD PTR $T6[ebp]
  00150	c7 85 e4 fe ff
	ff ff ff ff 00	 mov	 DWORD PTR $T12[ebp], 16777215 ; 00ffffffH
  0015a	50		 push	 eax
  0015b	8d 45 e0	 lea	 eax, DWORD PTR _textRegion$[ebp]
  0015e	c7 85 c0 fe ff
	ff ff 00 00 00	 mov	 DWORD PTR $T6[ebp], 255	; 000000ffH
  00168	50		 push	 eax
  00169	53		 push	 ebx
  0016a	e8 00 00 00 00	 call	 ?DrawRectangle@CDrawer@@IAEXPAVCDC@@ABVCRect@@ABK2_N@Z ; CDrawer::DrawRectangle

; 142  : 	if(calData.GetCoordinateCalculatorData().GetDisplayDataStart() > nCurrentDataIndex)

  0016f	8b bd d0 fe ff
	ff		 mov	 edi, DWORD PTR _calData$GSCopy$1$[ebp]
  00175	8d 85 48 ff ff
	ff		 lea	 eax, DWORD PTR $T15[ebp]
  0017b	50		 push	 eax
  0017c	8b cf		 mov	 ecx, edi
  0017e	e8 00 00 00 00	 call	 ?GetCoordinateCalculatorData@CAutoTrendDrawingCalculatorData@@QBE?AVCCoordinateCalculatorData@@XZ ; CAutoTrendDrawingCalculatorData::GetCoordinateCalculatorData
  00183	8b c8		 mov	 ecx, eax
  00185	c7 45 fc 01 00
	00 00		 mov	 DWORD PTR __$EHRec$[ebp+8], 1
  0018c	e8 00 00 00 00	 call	 ?GetDisplayDataStart@CCoordinateCalculatorData@@QBEHXZ ; CCoordinateCalculatorData::GetDisplayDataStart
  00191	8d 8d 48 ff ff
	ff		 lea	 ecx, DWORD PTR $T15[ebp]
  00197	c7 45 fc ff ff
	ff ff		 mov	 DWORD PTR __$EHRec$[ebp+8], -1
  0019e	8b f0		 mov	 esi, eax
  001a0	e8 00 00 00 00	 call	 ??1CCoordinateCalculatorData@@QAE@XZ ; CCoordinateCalculatorData::~CCoordinateCalculatorData
  001a5	3b b5 cc fe ff
	ff		 cmp	 esi, DWORD PTR _nCurrentDataIndex$GSCopy$1$[ebp]
  001ab	7e 16		 jle	 SHORT $LN34@DrawTextA

; 143  : 		return "";

  001ad	68 00 00 00 00	 push	 OFFSET ??_C@_00CNPNBAHC@@
  001b2	8d 8d d4 fe ff
	ff		 lea	 ecx, DWORD PTR $T8[ebp]
  001b8	ff 15 00 00 00
	00		 call	 DWORD PTR __imp_??0?$CStringT@DV?$StrTraitMFC_DLL@DV?$ChTraitsCRT@D@ATL@@@@@ATL@@QAE@PBD@Z
  001be	e9 ea 00 00 00	 jmp	 $LN33@DrawTextA
$LN34@DrawTextA:

; 144  : 
; 145  : 	CPoint point(highPt);

  001c3	8b 85 bc fe ff
	ff		 mov	 eax, DWORD PTR _highPt$GSCopy$1$[ebp]
  001c9	8b 08		 mov	 ecx, DWORD PTR [eax]
  001cb	8b 40 04	 mov	 eax, DWORD PTR [eax+4]
  001ce	89 85 b4 fe ff
	ff		 mov	 DWORD PTR _point$5[ebp+4], eax

; 146  : 	if(highPt.x < lowPt.x)

  001d4	8b 85 b8 fe ff
	ff		 mov	 eax, DWORD PTR _lowPt$GSCopy$1$[ebp]
  001da	8b 00		 mov	 eax, DWORD PTR [eax]
  001dc	3b c8		 cmp	 ecx, eax
  001de	0f 4c c8	 cmovl	 ecx, eax

; 147  : 		point.x = lowPt.x;
; 148  : 
; 149  : 	int nStartIndex = CDrawer::GetCurrentDataIndex(GetRegion(calData.GetCoordinateCalculatorData()), point);

  001e1	8d 85 e8 fe ff
	ff		 lea	 eax, DWORD PTR $T14[ebp]
  001e7	89 8d b0 fe ff
	ff		 mov	 DWORD PTR _point$5[ebp], ecx
  001ed	8b cf		 mov	 ecx, edi
  001ef	50		 push	 eax
  001f0	e8 00 00 00 00	 call	 ?GetCoordinateCalculatorData@CAutoTrendDrawingCalculatorData@@QBE?AVCCoordinateCalculatorData@@XZ ; CAutoTrendDrawingCalculatorData::GetCoordinateCalculatorData
  001f5	8b f0		 mov	 esi, eax

; 121  : 	return CRegion(calData.GetRegion(), CDisplayAttributes(calData.GetDisplayDataStart(), calData.GetDisplayDataEnd()));

  001f7	8b ce		 mov	 ecx, esi

; 149  : 	int nStartIndex = CDrawer::GetCurrentDataIndex(GetRegion(calData.GetCoordinateCalculatorData()), point);

  001f9	c7 45 fc 02 00
	00 00		 mov	 DWORD PTR __$EHRec$[ebp+8], 2

; 121  : 	return CRegion(calData.GetRegion(), CDisplayAttributes(calData.GetDisplayDataStart(), calData.GetDisplayDataEnd()));

  00200	e8 00 00 00 00	 call	 ?GetDisplayDataEnd@CCoordinateCalculatorData@@QBEHXZ ; CCoordinateCalculatorData::GetDisplayDataEnd
  00205	50		 push	 eax
  00206	8b ce		 mov	 ecx, esi
  00208	e8 00 00 00 00	 call	 ?GetDisplayDataStart@CCoordinateCalculatorData@@QBEHXZ ; CCoordinateCalculatorData::GetDisplayDataStart
  0020d	50		 push	 eax
  0020e	8d 8d a8 fe ff
	ff		 lea	 ecx, DWORD PTR $T4[ebp]
  00214	e8 00 00 00 00	 call	 ??0CDisplayAttributes@@QAE@HH@Z ; CDisplayAttributes::CDisplayAttributes
  00219	50		 push	 eax
  0021a	8d 45 a8	 lea	 eax, DWORD PTR $T16[ebp]
  0021d	8b ce		 mov	 ecx, esi
  0021f	50		 push	 eax
  00220	e8 00 00 00 00	 call	 ?GetRegion@CCoordinateCalculatorData@@QBE?AVCRect@@XZ ; CCoordinateCalculatorData::GetRegion
  00225	50		 push	 eax
  00226	8d 4d b8	 lea	 ecx, DWORD PTR $T17[ebp]
  00229	e8 00 00 00 00	 call	 ??0CRegion@@QAE@ABVCRect@@ABVCDisplayAttributes@@@Z ; CRegion::CRegion

; 149  : 	int nStartIndex = CDrawer::GetCurrentDataIndex(GetRegion(calData.GetCoordinateCalculatorData()), point);

  0022e	8b 8d d8 fe ff
	ff		 mov	 ecx, DWORD PTR _this$GSCopy$1$[ebp]
  00234	8d 85 b0 fe ff
	ff		 lea	 eax, DWORD PTR _point$5[ebp]
  0023a	50		 push	 eax
  0023b	8d 45 b8	 lea	 eax, DWORD PTR $T17[ebp]
  0023e	50		 push	 eax
  0023f	e8 00 00 00 00	 call	 ?GetCurrentDataIndex@CDrawer@@IBEHABVCRegion@@ABVCPoint@@@Z ; CDrawer::GetCurrentDataIndex
  00244	8d 8d e8 fe ff
	ff		 lea	 ecx, DWORD PTR $T14[ebp]
  0024a	c7 45 fc ff ff
	ff ff		 mov	 DWORD PTR __$EHRec$[ebp+8], -1
  00251	8b f0		 mov	 esi, eax
  00253	e8 00 00 00 00	 call	 ??1CCoordinateCalculatorData@@QAE@XZ ; CCoordinateCalculatorData::~CCoordinateCalculatorData

; 150  : 	CAutoTrendDrawingCalculator calculator;
; 151  : 	IPacket *pIPacket = calData.GetPacket( 0);

  00258	6a 00		 push	 0
  0025a	8b cf		 mov	 ecx, edi
  0025c	e8 00 00 00 00	 call	 ?GetPacket@CAutoTrendDrawingCalculatorData@@QBEPAUIPacket133101@@H@Z ; CAutoTrendDrawingCalculatorData::GetPacket

; 152  : 	CString strResult = calculator.GetText( pIPacket, nStartIndex, nCurrentDataIndex);

  00261	ff b5 cc fe ff
	ff		 push	 DWORD PTR _nCurrentDataIndex$GSCopy$1$[ebp]
  00267	8b f8		 mov	 edi, eax
  00269	8d 8d df fe ff
	ff		 lea	 ecx, DWORD PTR _calculator$9[ebp]
  0026f	56		 push	 esi
  00270	57		 push	 edi
  00271	8d 85 e0 fe ff
	ff		 lea	 eax, DWORD PTR _strResult$11[ebp]
  00277	50		 push	 eax
  00278	e8 00 00 00 00	 call	 ?GetText@CAutoTrendDrawingCalculator@@QBE?AV?$CStringT@DV?$StrTraitMFC_DLL@DV?$ChTraitsCRT@D@ATL@@@@@ATL@@PAUIPacket133101@@HH@Z ; CAutoTrendDrawingCalculator::GetText
  0027d	c7 45 fc 03 00
	00 00		 mov	 DWORD PTR __$EHRec$[ebp+8], 3

; 153  : 	if( pIPacket) pIPacket->Release();

  00284	85 ff		 test	 edi, edi
  00286	74 06		 je	 SHORT $LN36@DrawTextA
  00288	8b 07		 mov	 eax, DWORD PTR [edi]
  0028a	57		 push	 edi
  0028b	ff 50 08	 call	 DWORD PTR [eax+8]
$LN36@DrawTextA:

; 154  : 	return strResult;

  0028e	8d 85 e0 fe ff
	ff		 lea	 eax, DWORD PTR _strResult$11[ebp]
  00294	50		 push	 eax
  00295	8d 8d d4 fe ff
	ff		 lea	 ecx, DWORD PTR $T8[ebp]
  0029b	ff 15 00 00 00
	00		 call	 DWORD PTR __imp_??0?$CStringT@DV?$StrTraitMFC_DLL@DV?$ChTraitsCRT@D@ATL@@@@@ATL@@QAE@ABV01@@Z
  002a1	8d 8d e0 fe ff
	ff		 lea	 ecx, DWORD PTR _strResult$11[ebp]
  002a7	ff 15 00 00 00
	00		 call	 DWORD PTR __imp_??1?$CStringT@DV?$StrTraitMFC_DLL@DV?$ChTraitsCRT@D@ATL@@@@@ATL@@QAE@XZ
$LN33@DrawTextA:

; 114  : 	CDrawer::DrawTextOut(pDC, GetText(calData, nCurrentDataIndex, highPt, lowPt), textRegion);

  002ad	8b 8d d8 fe ff
	ff		 mov	 ecx, DWORD PTR _this$GSCopy$1$[ebp]
  002b3	8d 45 e0	 lea	 eax, DWORD PTR _textRegion$[ebp]
  002b6	50		 push	 eax
  002b7	8d 85 d4 fe ff
	ff		 lea	 eax, DWORD PTR $T8[ebp]
  002bd	c7 45 fc 04 00
	00 00		 mov	 DWORD PTR __$EHRec$[ebp+8], 4
  002c4	50		 push	 eax
  002c5	53		 push	 ebx
  002c6	e8 00 00 00 00	 call	 ?DrawTextOut@CDrawer@@IAEXPAVCDC@@ABV?$CStringT@DV?$StrTraitMFC_DLL@DV?$ChTraitsCRT@D@ATL@@@@@ATL@@ABVCRect@@@Z ; CDrawer::DrawTextOut
  002cb	8d 8d d4 fe ff
	ff		 lea	 ecx, DWORD PTR $T8[ebp]
  002d1	c7 45 fc ff ff
	ff ff		 mov	 DWORD PTR __$EHRec$[ebp+8], -1
  002d8	ff 15 00 00 00
	00		 call	 DWORD PTR __imp_??1?$CStringT@DV?$StrTraitMFC_DLL@DV?$ChTraitsCRT@D@ATL@@@@@ATL@@QAE@XZ

; 115  : 	pDC->SetROP2(nOldDrawMode);

  002de	ff b5 c8 fe ff
	ff		 push	 DWORD PTR _nOldDrawMode$1$[ebp]
  002e4	8b cb		 mov	 ecx, ebx
  002e6	e8 00 00 00 00	 call	 ?SetROP2@CDC@@QAEHH@Z	; CDC::SetROP2
$LN3@DrawTextA:

; 116  : }

  002eb	8b 4d f4	 mov	 ecx, DWORD PTR __$EHRec$[ebp]
  002ee	64 89 0d 00 00
	00 00		 mov	 DWORD PTR fs:0, ecx
  002f5	59		 pop	 ecx
  002f6	5f		 pop	 edi
  002f7	5e		 pop	 esi
  002f8	5b		 pop	 ebx
  002f9	8b 4d f0	 mov	 ecx, DWORD PTR __$ArrayPad$[ebp]
  002fc	33 cd		 xor	 ecx, ebp
  002fe	e8 00 00 00 00	 call	 @__security_check_cookie@4
  00303	8b e5		 mov	 esp, ebp
  00305	5d		 pop	 ebp
  00306	c2 1c 00	 ret	 28			; 0000001cH
_TEXT	ENDS
;	COMDAT text$x
text$x	SEGMENT
__unwindfunclet$?DrawTextA@CAutoTrendDrawer@@AAEXPAVCDC@@ABVCAutoTrendDrawingCalculatorData@@HABVCPoint@@222@Z$0:
  00000	8d 8d e4 fe ff
	ff		 lea	 ecx, DWORD PTR $T13[ebp]
  00006	ff 25 00 00 00
	00		 jmp	 DWORD PTR __imp_??1?$CStringT@DV?$StrTraitMFC_DLL@DV?$ChTraitsCRT@D@ATL@@@@@ATL@@QAE@XZ
__unwindfunclet$?DrawTextA@CAutoTrendDrawer@@AAEXPAVCDC@@ABVCAutoTrendDrawingCalculatorData@@HABVCPoint@@222@Z$2:
  0000c	8d 8d 48 ff ff
	ff		 lea	 ecx, DWORD PTR $T15[ebp]
  00012	e9 00 00 00 00	 jmp	 ??1CCoordinateCalculatorData@@QAE@XZ ; CCoordinateCalculatorData::~CCoordinateCalculatorData
__unwindfunclet$?DrawTextA@CAutoTrendDrawer@@AAEXPAVCDC@@ABVCAutoTrendDrawingCalculatorData@@HABVCPoint@@222@Z$4:
  00017	8d 8d e8 fe ff
	ff		 lea	 ecx, DWORD PTR $T14[ebp]
  0001d	e9 00 00 00 00	 jmp	 ??1CCoordinateCalculatorData@@QAE@XZ ; CCoordinateCalculatorData::~CCoordinateCalculatorData
__unwindfunclet$?DrawTextA@CAutoTrendDrawer@@AAEXPAVCDC@@ABVCAutoTrendDrawingCalculatorData@@HABVCPoint@@222@Z$5:
  00022	8d 8d e0 fe ff
	ff		 lea	 ecx, DWORD PTR _strResult$11[ebp]
  00028	ff 25 00 00 00
	00		 jmp	 DWORD PTR __imp_??1?$CStringT@DV?$StrTraitMFC_DLL@DV?$ChTraitsCRT@D@ATL@@@@@ATL@@QAE@XZ
__unwindfunclet$?DrawTextA@CAutoTrendDrawer@@AAEXPAVCDC@@ABVCAutoTrendDrawingCalculatorData@@HABVCPoint@@222@Z$1:
  0002e	8d 8d d4 fe ff
	ff		 lea	 ecx, DWORD PTR $T8[ebp]
  00034	ff 25 00 00 00
	00		 jmp	 DWORD PTR __imp_??1?$CStringT@DV?$StrTraitMFC_DLL@DV?$ChTraitsCRT@D@ATL@@@@@ATL@@QAE@XZ
  0003a	cc		 int	 3
  0003b	cc		 int	 3
  0003c	cc		 int	 3
  0003d	cc		 int	 3
  0003e	cc		 int	 3
__ehhandler$?DrawTextA@CAutoTrendDrawer@@AAEXPAVCDC@@ABVCAutoTrendDrawingCalculatorData@@HABVCPoint@@222@Z:
  0003f	90		 npad	 1
  00040	90		 npad	 1
  00041	8b 54 24 08	 mov	 edx, DWORD PTR [esp+8]
  00045	8d 42 0c	 lea	 eax, DWORD PTR [edx+12]
  00048	8b 8a a4 fe ff
	ff		 mov	 ecx, DWORD PTR [edx-348]
  0004e	33 c8		 xor	 ecx, eax
  00050	e8 00 00 00 00	 call	 @__security_check_cookie@4
  00055	8b 4a fc	 mov	 ecx, DWORD PTR [edx-4]
  00058	33 c8		 xor	 ecx, eax
  0005a	e8 00 00 00 00	 call	 @__security_check_cookie@4
  0005f	b8 00 00 00 00	 mov	 eax, OFFSET __ehfuncinfo$?DrawTextA@CAutoTrendDrawer@@AAEXPAVCDC@@ABVCAutoTrendDrawingCalculatorData@@HABVCPoint@@222@Z
  00064	e9 00 00 00 00	 jmp	 ___CxxFrameHandler3
text$x	ENDS
?DrawTextA@CAutoTrendDrawer@@AAEXPAVCDC@@ABVCAutoTrendDrawingCalculatorData@@HABVCPoint@@222@Z ENDP ; CAutoTrendDrawer::DrawTextA
; Function compile flags: /Ogtp
; File D:\git\src\IBK\IBK_DRFN\ProjSrc\SrcChartEx\ChartAddIn\ChartAnalysisToolAddIn\AnalysisTool\AutoTrendDrawer.cpp
; File C:\Program Files (x86)\Microsoft Visual Studio\2019\Community\VC\Tools\MSVC\14.29.30133\atlmfc\include\atltypes.h
; File D:\git\src\IBK\IBK_DRFN\ProjSrc\SrcChartEx\ChartAddIn\ChartAnalysisToolAddIn\AnalysisTool\AutoTrendDrawer.cpp
; File C:\Program Files (x86)\Microsoft Visual Studio\2019\Community\VC\Tools\MSVC\14.29.30133\atlmfc\include\atltypes.h
; File D:\git\src\IBK\IBK_DRFN\ProjSrc\SrcChartEx\ChartAddIn\ChartAnalysisToolAddIn\AnalysisTool\AutoTrendDrawer.cpp
; File C:\Program Files (x86)\Microsoft Visual Studio\2019\Community\VC\Tools\MSVC\14.29.30133\atlmfc\include\atltypes.h
; File D:\git\src\IBK\IBK_DRFN\ProjSrc\SrcChartEx\ChartAddIn\ChartAnalysisToolAddIn\AnalysisTool\AutoTrendDrawer.cpp
; File C:\Program Files (x86)\Microsoft Visual Studio\2019\Community\VC\Tools\MSVC\14.29.30133\atlmfc\include\atltypes.h
; File D:\git\src\IBK\IBK_DRFN\ProjSrc\SrcChartEx\ChartAddIn\ChartAnalysisToolAddIn\AnalysisTool\AutoTrendDrawer.cpp
; File C:\Program Files (x86)\Microsoft Visual Studio\2019\Community\VC\Tools\MSVC\14.29.30133\atlmfc\include\atltypes.h
; File D:\git\src\IBK\IBK_DRFN\ProjSrc\SrcChartEx\ChartAddIn\ChartAnalysisToolAddIn\AnalysisTool\AutoTrendDrawer.cpp
; File C:\Program Files (x86)\Microsoft Visual Studio\2019\Community\VC\Tools\MSVC\14.29.30133\atlmfc\include\atltypes.h
; File D:\git\src\IBK\IBK_DRFN\ProjSrc\SrcChartEx\ChartAddIn\ChartAnalysisToolAddIn\AnalysisTool\AutoTrendDrawer.cpp
; File C:\Program Files (x86)\Microsoft Visual Studio\2019\Community\VC\Tools\MSVC\14.29.30133\atlmfc\include\atltypes.h
; File D:\git\src\IBK\IBK_DRFN\ProjSrc\SrcChartEx\ChartAddIn\ChartAnalysisToolAddIn\AnalysisTool\AutoTrendDrawer.cpp
; File C:\Program Files (x86)\Microsoft Visual Studio\2019\Community\VC\Tools\MSVC\14.29.30133\atlmfc\include\atltypes.h
; File D:\git\src\IBK\IBK_DRFN\ProjSrc\SrcChartEx\ChartAddIn\ChartAnalysisToolAddIn\AnalysisTool\AutoTrendDrawer.cpp
;	COMDAT ?DrawLine@CAutoTrendDrawer@@AAEXPAVCDC@@ABVCRegion@@HABVCPoint@@2AAV4@@Z
_TEXT	SEGMENT
_realLeftPt$ = -84					; size = 8
_line2_pt2$1 = -76					; size = 8
_pDC$GSCopy$1$ = -68					; size = 4
_line2_pt2$2 = -64					; size = 8
$T3 = -64						; size = 8
_line2_pt1$4 = -56					; size = 8
_line2_pt1$5 = -56					; size = 8
_realRightPt$GSCopy$1$ = -48				; size = 4
_leftPt$GSCopy$1$ = -44					; size = 4
_this$GSCopy$1$ = -40					; size = 4
$T6 = -36						; size = 16
$T7 = -20						; size = 16
$T8 = -20						; size = 16
$T9 = -20						; size = 16
__$ArrayPad$ = -4					; size = 4
_pDC$ = 8						; size = 4
_region$ = 12						; size = 4
_nCurrentIndex$ = 16					; size = 4
_leftPt$ = 20						; size = 4
_rightPt$ = 24						; size = 4
_realRightPt$ = 28					; size = 4
?DrawLine@CAutoTrendDrawer@@AAEXPAVCDC@@ABVCRegion@@HABVCPoint@@2AAV4@@Z PROC ; CAutoTrendDrawer::DrawLine, COMDAT
; _this$ = ecx

; 94   : {

  00000	55		 push	 ebp
  00001	8b ec		 mov	 ebp, esp
  00003	83 ec 54	 sub	 esp, 84			; 00000054H
  00006	a1 00 00 00 00	 mov	 eax, DWORD PTR ___security_cookie
  0000b	33 c5		 xor	 eax, ebp
  0000d	89 45 fc	 mov	 DWORD PTR __$ArrayPad$[ebp], eax
  00010	8b 45 08	 mov	 eax, DWORD PTR _pDC$[ebp]
  00013	8b d1		 mov	 edx, ecx
  00015	8b 4d 14	 mov	 ecx, DWORD PTR _leftPt$[ebp]
  00018	53		 push	 ebx
  00019	8b 5d 18	 mov	 ebx, DWORD PTR _rightPt$[ebp]
  0001c	56		 push	 esi
  0001d	57		 push	 edi
  0001e	8b 7d 0c	 mov	 edi, DWORD PTR _region$[ebp]

; 126  : 	int nX = CDrawer::GetDrawingPoint_X(region, nDataIndex);

  00021	6a 01		 push	 1

; 94   : {

  00023	89 45 bc	 mov	 DWORD PTR _pDC$GSCopy$1$[ebp], eax
  00026	8b 45 10	 mov	 eax, DWORD PTR _nCurrentIndex$[ebp]
  00029	89 4d d4	 mov	 DWORD PTR _leftPt$GSCopy$1$[ebp], ecx
  0002c	8b 4d 1c	 mov	 ecx, DWORD PTR _realRightPt$[ebp]

; 126  : 	int nX = CDrawer::GetDrawingPoint_X(region, nDataIndex);

  0002f	50		 push	 eax

; 94   : {

  00030	89 4d d0	 mov	 DWORD PTR _realRightPt$GSCopy$1$[ebp], ecx

; 126  : 	int nX = CDrawer::GetDrawingPoint_X(region, nDataIndex);

  00033	8b ca		 mov	 ecx, edx
  00035	57		 push	 edi

; 94   : {

  00036	89 55 d8	 mov	 DWORD PTR _this$GSCopy$1$[ebp], edx

; 126  : 	int nX = CDrawer::GetDrawingPoint_X(region, nDataIndex);

  00039	e8 00 00 00 00	 call	 ?GetDrawingPoint_X@CDrawer@@IBEHABVCRegion@@H_N@Z ; CDrawer::GetDrawingPoint_X
  0003e	8b f0		 mov	 esi, eax

; 127  : 	CPoint line2_pt1(nX, region.GetRect().top), line2_pt2(nX, region.GetRect().bottom);

  00040	8b cf		 mov	 ecx, edi
  00042	8d 45 dc	 lea	 eax, DWORD PTR $T6[ebp]
  00045	50		 push	 eax
  00046	e8 00 00 00 00	 call	 ?GetRect@CRegion@@QBE?AVCRect@@XZ ; CRegion::GetRect
  0004b	8b 48 04	 mov	 ecx, DWORD PTR [eax+4]
  0004e	8d 45 ec	 lea	 eax, DWORD PTR $T9[ebp]
; File C:\Program Files (x86)\Microsoft Visual Studio\2019\Community\VC\Tools\MSVC\14.29.30133\atlmfc\include\atltypes.h

; 409  : 	y = initY;

  00051	89 4d cc	 mov	 DWORD PTR _line2_pt1$5[ebp+4], ecx
; File D:\git\src\IBK\IBK_DRFN\ProjSrc\SrcChartEx\ChartAddIn\ChartAnalysisToolAddIn\AnalysisTool\AutoTrendDrawer.cpp

; 127  : 	CPoint line2_pt1(nX, region.GetRect().top), line2_pt2(nX, region.GetRect().bottom);

  00054	8b cf		 mov	 ecx, edi
  00056	50		 push	 eax
; File C:\Program Files (x86)\Microsoft Visual Studio\2019\Community\VC\Tools\MSVC\14.29.30133\atlmfc\include\atltypes.h

; 408  : 	x = initX;

  00057	89 75 c8	 mov	 DWORD PTR _line2_pt1$5[ebp], esi
; File D:\git\src\IBK\IBK_DRFN\ProjSrc\SrcChartEx\ChartAddIn\ChartAnalysisToolAddIn\AnalysisTool\AutoTrendDrawer.cpp

; 127  : 	CPoint line2_pt1(nX, region.GetRect().top), line2_pt2(nX, region.GetRect().bottom);

  0005a	e8 00 00 00 00	 call	 ?GetRect@CRegion@@QBE?AVCRect@@XZ ; CRegion::GetRect

; 128  : 	return CDrawer::GetLineEndPoint(line1_pt1, line1_pt2, line2_pt1, line2_pt2);

  0005f	8b 4d d8	 mov	 ecx, DWORD PTR _this$GSCopy$1$[ebp]
  00062	8b 40 0c	 mov	 eax, DWORD PTR [eax+12]
; File C:\Program Files (x86)\Microsoft Visual Studio\2019\Community\VC\Tools\MSVC\14.29.30133\atlmfc\include\atltypes.h

; 409  : 	y = initY;

  00065	89 45 b8	 mov	 DWORD PTR _line2_pt2$1[ebp+4], eax
; File D:\git\src\IBK\IBK_DRFN\ProjSrc\SrcChartEx\ChartAddIn\ChartAnalysisToolAddIn\AnalysisTool\AutoTrendDrawer.cpp

; 128  : 	return CDrawer::GetLineEndPoint(line1_pt1, line1_pt2, line2_pt1, line2_pt2);

  00068	8d 45 b4	 lea	 eax, DWORD PTR _line2_pt2$1[ebp]
  0006b	50		 push	 eax
  0006c	8d 45 c8	 lea	 eax, DWORD PTR _line2_pt1$5[ebp]
; File C:\Program Files (x86)\Microsoft Visual Studio\2019\Community\VC\Tools\MSVC\14.29.30133\atlmfc\include\atltypes.h

; 408  : 	x = initX;

  0006f	89 75 b4	 mov	 DWORD PTR _line2_pt2$1[ebp], esi
; File D:\git\src\IBK\IBK_DRFN\ProjSrc\SrcChartEx\ChartAddIn\ChartAnalysisToolAddIn\AnalysisTool\AutoTrendDrawer.cpp

; 128  : 	return CDrawer::GetLineEndPoint(line1_pt1, line1_pt2, line2_pt1, line2_pt2);

  00072	8b 75 d4	 mov	 esi, DWORD PTR _leftPt$GSCopy$1$[ebp]
  00075	50		 push	 eax
  00076	53		 push	 ebx
  00077	56		 push	 esi
  00078	8d 45 c0	 lea	 eax, DWORD PTR $T3[ebp]
  0007b	50		 push	 eax
  0007c	e8 00 00 00 00	 call	 ?GetLineEndPoint@CDrawer@@IBE?AVCPoint@@ABV2@000@Z ; CDrawer::GetLineEndPoint

; 95   : 	//  mouse point   
; 96   : 	realRightPt = GetPoint(region, nCurrentIndex, leftPt, rightPt);

  00081	8b 55 d0	 mov	 edx, DWORD PTR _realRightPt$GSCopy$1$[ebp]
  00084	8b 4d c4	 mov	 ecx, DWORD PTR $T3[ebp+4]
  00087	8b 45 c0	 mov	 eax, DWORD PTR $T3[ebp]

; 97   : 
; 98   : 	//   data  -3   
; 99   : 	int nDataIndex = CDrawer::GetCurrentDataIndex(region, leftPt);

  0008a	56		 push	 esi
  0008b	89 4a 04	 mov	 DWORD PTR [edx+4], ecx
  0008e	8b 4d d8	 mov	 ecx, DWORD PTR _this$GSCopy$1$[ebp]
  00091	57		 push	 edi
  00092	89 02		 mov	 DWORD PTR [edx], eax
  00094	e8 00 00 00 00	 call	 ?GetCurrentDataIndex@CDrawer@@IBEHABVCRegion@@ABVCPoint@@@Z ; CDrawer::GetCurrentDataIndex

; 126  : 	int nX = CDrawer::GetDrawingPoint_X(region, nDataIndex);

  00099	8b 4d d8	 mov	 ecx, DWORD PTR _this$GSCopy$1$[ebp]

; 100  : 	CPoint realLeftPt = GetPoint(region, nDataIndex -3, leftPt, rightPt);

  0009c	83 c0 fd	 add	 eax, -3			; fffffffdH

; 126  : 	int nX = CDrawer::GetDrawingPoint_X(region, nDataIndex);

  0009f	6a 01		 push	 1
  000a1	50		 push	 eax
  000a2	57		 push	 edi
  000a3	e8 00 00 00 00	 call	 ?GetDrawingPoint_X@CDrawer@@IBEHABVCRegion@@H_N@Z ; CDrawer::GetDrawingPoint_X
  000a8	8b f0		 mov	 esi, eax

; 127  : 	CPoint line2_pt1(nX, region.GetRect().top), line2_pt2(nX, region.GetRect().bottom);

  000aa	8b cf		 mov	 ecx, edi
  000ac	8d 45 ec	 lea	 eax, DWORD PTR $T8[ebp]
  000af	50		 push	 eax
  000b0	e8 00 00 00 00	 call	 ?GetRect@CRegion@@QBE?AVCRect@@XZ ; CRegion::GetRect
  000b5	8b 48 04	 mov	 ecx, DWORD PTR [eax+4]
  000b8	8d 45 ec	 lea	 eax, DWORD PTR $T7[ebp]
; File C:\Program Files (x86)\Microsoft Visual Studio\2019\Community\VC\Tools\MSVC\14.29.30133\atlmfc\include\atltypes.h

; 409  : 	y = initY;

  000bb	89 4d cc	 mov	 DWORD PTR _line2_pt1$4[ebp+4], ecx
; File D:\git\src\IBK\IBK_DRFN\ProjSrc\SrcChartEx\ChartAddIn\ChartAnalysisToolAddIn\AnalysisTool\AutoTrendDrawer.cpp

; 127  : 	CPoint line2_pt1(nX, region.GetRect().top), line2_pt2(nX, region.GetRect().bottom);

  000be	8b cf		 mov	 ecx, edi
  000c0	50		 push	 eax
; File C:\Program Files (x86)\Microsoft Visual Studio\2019\Community\VC\Tools\MSVC\14.29.30133\atlmfc\include\atltypes.h

; 408  : 	x = initX;

  000c1	89 75 c8	 mov	 DWORD PTR _line2_pt1$4[ebp], esi
; File D:\git\src\IBK\IBK_DRFN\ProjSrc\SrcChartEx\ChartAddIn\ChartAnalysisToolAddIn\AnalysisTool\AutoTrendDrawer.cpp

; 127  : 	CPoint line2_pt1(nX, region.GetRect().top), line2_pt2(nX, region.GetRect().bottom);

  000c4	e8 00 00 00 00	 call	 ?GetRect@CRegion@@QBE?AVCRect@@XZ ; CRegion::GetRect
  000c9	8b 40 0c	 mov	 eax, DWORD PTR [eax+12]
; File C:\Program Files (x86)\Microsoft Visual Studio\2019\Community\VC\Tools\MSVC\14.29.30133\atlmfc\include\atltypes.h

; 409  : 	y = initY;

  000cc	89 45 c4	 mov	 DWORD PTR _line2_pt2$2[ebp+4], eax
; File D:\git\src\IBK\IBK_DRFN\ProjSrc\SrcChartEx\ChartAddIn\ChartAnalysisToolAddIn\AnalysisTool\AutoTrendDrawer.cpp

; 128  : 	return CDrawer::GetLineEndPoint(line1_pt1, line1_pt2, line2_pt1, line2_pt2);

  000cf	8d 45 c0	 lea	 eax, DWORD PTR _line2_pt2$2[ebp]
  000d2	50		 push	 eax
  000d3	8d 45 c8	 lea	 eax, DWORD PTR _line2_pt1$4[ebp]
; File C:\Program Files (x86)\Microsoft Visual Studio\2019\Community\VC\Tools\MSVC\14.29.30133\atlmfc\include\atltypes.h

; 408  : 	x = initX;

  000d6	89 75 c0	 mov	 DWORD PTR _line2_pt2$2[ebp], esi
; File D:\git\src\IBK\IBK_DRFN\ProjSrc\SrcChartEx\ChartAddIn\ChartAnalysisToolAddIn\AnalysisTool\AutoTrendDrawer.cpp

; 128  : 	return CDrawer::GetLineEndPoint(line1_pt1, line1_pt2, line2_pt1, line2_pt2);

  000d9	50		 push	 eax
  000da	53		 push	 ebx
  000db	ff 75 d4	 push	 DWORD PTR _leftPt$GSCopy$1$[ebp]
  000de	8b 4d d8	 mov	 ecx, DWORD PTR _this$GSCopy$1$[ebp]
  000e1	8d 45 ac	 lea	 eax, DWORD PTR _realLeftPt$[ebp]
  000e4	50		 push	 eax
  000e5	e8 00 00 00 00	 call	 ?GetLineEndPoint@CDrawer@@IBE?AVCPoint@@ABV2@000@Z ; CDrawer::GetLineEndPoint

; 101  : 	
; 102  : 	CDrawer::DrawLine(pDC, realLeftPt, realRightPt);

  000ea	ff 75 d0	 push	 DWORD PTR _realRightPt$GSCopy$1$[ebp]
  000ed	8b 4d d8	 mov	 ecx, DWORD PTR _this$GSCopy$1$[ebp]
  000f0	8d 45 ac	 lea	 eax, DWORD PTR _realLeftPt$[ebp]
  000f3	50		 push	 eax
  000f4	ff 75 bc	 push	 DWORD PTR _pDC$GSCopy$1$[ebp]
  000f7	e8 00 00 00 00	 call	 ?DrawLine@CDrawer@@IAEXPAVCDC@@ABVCPoint@@1@Z ; CDrawer::DrawLine

; 103  : }

  000fc	8b 4d fc	 mov	 ecx, DWORD PTR __$ArrayPad$[ebp]
  000ff	5f		 pop	 edi
  00100	5e		 pop	 esi
  00101	33 cd		 xor	 ecx, ebp
  00103	5b		 pop	 ebx
  00104	e8 00 00 00 00	 call	 @__security_check_cookie@4
  00109	8b e5		 mov	 esp, ebp
  0010b	5d		 pop	 ebp
  0010c	c2 18 00	 ret	 24			; 00000018H
?DrawLine@CAutoTrendDrawer@@AAEXPAVCDC@@ABVCRegion@@HABVCPoint@@2AAV4@@Z ENDP ; CAutoTrendDrawer::DrawLine
_TEXT	ENDS
; Function compile flags: /Ogtp
; File D:\git\src\IBK\IBK_DRFN\ProjSrc\SrcChartEx\ChartAddIn\ChartAnalysisToolAddIn\AnalysisTool\AutoTrendDrawer.cpp
; File C:\Program Files (x86)\Microsoft Visual Studio\2019\Community\VC\Tools\MSVC\14.29.30133\atlmfc\include\atltypes.h
; File D:\git\src\IBK\IBK_DRFN\ProjSrc\SrcChartEx\ChartAddIn\ChartAnalysisToolAddIn\AnalysisTool\AutoTrendDrawer.cpp
; File C:\Program Files (x86)\Microsoft Visual Studio\2019\Community\VC\Tools\MSVC\14.29.30133\atlmfc\include\atltypes.h
; File D:\git\src\IBK\IBK_DRFN\ProjSrc\SrcChartEx\ChartAddIn\ChartAnalysisToolAddIn\AnalysisTool\AutoTrendDrawer.cpp
; File C:\Program Files (x86)\Microsoft Visual Studio\2019\Community\VC\Tools\MSVC\14.29.30133\atlmfc\include\atltypes.h
; File D:\git\src\IBK\IBK_DRFN\ProjSrc\SrcChartEx\ChartAddIn\ChartAnalysisToolAddIn\AnalysisTool\AutoTrendDrawer.cpp
; File C:\Program Files (x86)\Microsoft Visual Studio\2019\Community\VC\Tools\MSVC\14.29.30133\atlmfc\include\atltypes.h
; File D:\git\src\IBK\IBK_DRFN\ProjSrc\SrcChartEx\ChartAddIn\ChartAnalysisToolAddIn\AnalysisTool\AutoTrendDrawer.cpp
; File C:\Program Files (x86)\Microsoft Visual Studio\2019\Community\VC\Tools\MSVC\14.29.30133\atlmfc\include\atltypes.h
; File D:\git\src\IBK\IBK_DRFN\ProjSrc\SrcChartEx\ChartAddIn\ChartAnalysisToolAddIn\AnalysisTool\AutoTrendDrawer.cpp
;	COMDAT ?DrawShape@CAutoTrendDrawer@@AAEXPAVCDC@@ABVCAutoTrendDrawingCalculatorData@@ABVCPoint@@@Z
_TEXT	SEGMENT
$T2 = -220						; size = 8
_realHigh_rightPt$ = -212				; size = 8
_realLow_righPt$ = -204					; size = 8
_low_leftPt$ = -196					; size = 8
_high_leftPt$ = -188					; size = 8
_this$GSCopy$1$ = -180					; size = 4
_high_rightPt$ = -176					; size = 8
_low_rightPt$ = -168					; size = 8
_pDC$GSCopy$1$ = -160					; size = 4
_calculator$ = -153					; size = 1
$T3 = -152						; size = 96
$T4 = -56						; size = 16
_region$ = -40						; size = 24
__$ArrayPad$ = -16					; size = 4
__$EHRec$ = -12						; size = 12
_pDC$ = 8						; size = 4
_calData$ = 12						; size = 4
_point$ = 16						; size = 4
?DrawShape@CAutoTrendDrawer@@AAEXPAVCDC@@ABVCAutoTrendDrawingCalculatorData@@ABVCPoint@@@Z PROC ; CAutoTrendDrawer::DrawShape, COMDAT
; _this$ = ecx

; 76   : {

  00000	55		 push	 ebp
  00001	8b ec		 mov	 ebp, esp
  00003	6a ff		 push	 -1
  00005	68 00 00 00 00	 push	 __ehhandler$?DrawShape@CAutoTrendDrawer@@AAEXPAVCDC@@ABVCAutoTrendDrawingCalculatorData@@ABVCPoint@@@Z
  0000a	64 a1 00 00 00
	00		 mov	 eax, DWORD PTR fs:0
  00010	50		 push	 eax
  00011	81 ec d0 00 00
	00		 sub	 esp, 208		; 000000d0H
  00017	a1 00 00 00 00	 mov	 eax, DWORD PTR ___security_cookie
  0001c	33 c5		 xor	 eax, ebp
  0001e	89 45 f0	 mov	 DWORD PTR __$ArrayPad$[ebp], eax
  00021	53		 push	 ebx
  00022	56		 push	 esi
  00023	57		 push	 edi
  00024	50		 push	 eax
  00025	8d 45 f4	 lea	 eax, DWORD PTR __$EHRec$[ebp]
  00028	64 a3 00 00 00
	00		 mov	 DWORD PTR fs:0, eax
  0002e	89 8d 4c ff ff
	ff		 mov	 DWORD PTR _this$GSCopy$1$[ebp], ecx
  00034	8b 45 08	 mov	 eax, DWORD PTR _pDC$[ebp]
  00037	8b 5d 0c	 mov	 ebx, DWORD PTR _calData$[ebp]

; 77   : 	CRegion region = GetRegion(calData.GetCoordinateCalculatorData());

  0003a	8b cb		 mov	 ecx, ebx
  0003c	8b 7d 10	 mov	 edi, DWORD PTR _point$[ebp]
  0003f	89 85 60 ff ff
	ff		 mov	 DWORD PTR _pDC$GSCopy$1$[ebp], eax
  00045	8d 85 68 ff ff
	ff		 lea	 eax, DWORD PTR $T3[ebp]
  0004b	50		 push	 eax
  0004c	e8 00 00 00 00	 call	 ?GetCoordinateCalculatorData@CAutoTrendDrawingCalculatorData@@QBE?AVCCoordinateCalculatorData@@XZ ; CAutoTrendDrawingCalculatorData::GetCoordinateCalculatorData
  00051	8b f0		 mov	 esi, eax

; 121  : 	return CRegion(calData.GetRegion(), CDisplayAttributes(calData.GetDisplayDataStart(), calData.GetDisplayDataEnd()));

  00053	8b ce		 mov	 ecx, esi

; 77   : 	CRegion region = GetRegion(calData.GetCoordinateCalculatorData());

  00055	c7 45 fc 00 00
	00 00		 mov	 DWORD PTR __$EHRec$[ebp+8], 0

; 121  : 	return CRegion(calData.GetRegion(), CDisplayAttributes(calData.GetDisplayDataStart(), calData.GetDisplayDataEnd()));

  0005c	e8 00 00 00 00	 call	 ?GetDisplayDataEnd@CCoordinateCalculatorData@@QBEHXZ ; CCoordinateCalculatorData::GetDisplayDataEnd
  00061	50		 push	 eax
  00062	8b ce		 mov	 ecx, esi
  00064	e8 00 00 00 00	 call	 ?GetDisplayDataStart@CCoordinateCalculatorData@@QBEHXZ ; CCoordinateCalculatorData::GetDisplayDataStart
  00069	50		 push	 eax
  0006a	8d 8d 24 ff ff
	ff		 lea	 ecx, DWORD PTR $T2[ebp]
  00070	e8 00 00 00 00	 call	 ??0CDisplayAttributes@@QAE@HH@Z ; CDisplayAttributes::CDisplayAttributes
  00075	50		 push	 eax
  00076	8d 45 c8	 lea	 eax, DWORD PTR $T4[ebp]
  00079	8b ce		 mov	 ecx, esi
  0007b	50		 push	 eax
  0007c	e8 00 00 00 00	 call	 ?GetRegion@CCoordinateCalculatorData@@QBE?AVCRect@@XZ ; CCoordinateCalculatorData::GetRegion
  00081	50		 push	 eax
  00082	8d 4d d8	 lea	 ecx, DWORD PTR _region$[ebp]
  00085	e8 00 00 00 00	 call	 ??0CRegion@@QAE@ABVCRect@@ABVCDisplayAttributes@@@Z ; CRegion::CRegion

; 77   : 	CRegion region = GetRegion(calData.GetCoordinateCalculatorData());

  0008a	8d 8d 68 ff ff
	ff		 lea	 ecx, DWORD PTR $T3[ebp]
  00090	c7 45 fc ff ff
	ff ff		 mov	 DWORD PTR __$EHRec$[ebp+8], -1
  00097	e8 00 00 00 00	 call	 ??1CCoordinateCalculatorData@@QAE@XZ ; CCoordinateCalculatorData::~CCoordinateCalculatorData

; 78   : 	int nCurrentDataIndex = CDrawer::GetCurrentDataIndex(region, point);

  0009c	57		 push	 edi
  0009d	8b bd 4c ff ff
	ff		 mov	 edi, DWORD PTR _this$GSCopy$1$[ebp]
  000a3	8d 45 d8	 lea	 eax, DWORD PTR _region$[ebp]
  000a6	50		 push	 eax
  000a7	8b cf		 mov	 ecx, edi
  000a9	e8 00 00 00 00	 call	 ?GetCurrentDataIndex@CDrawer@@IBEHABVCRegion@@ABVCPoint@@@Z ; CDrawer::GetCurrentDataIndex
  000ae	8b f0		 mov	 esi, eax

; 79   : 	if(nCurrentDataIndex < 0)

  000b0	85 f6		 test	 esi, esi
  000b2	0f 88 2a 01 00
	00		 js	 $LN1@DrawShape

; 84   : 	if(!calculator.GetDrawingPoints(calData, nCurrentDataIndex, high_leftPt, high_rightPt, low_leftPt, low_rightPt))

  000b8	8d 85 58 ff ff
	ff		 lea	 eax, DWORD PTR _low_rightPt$[ebp]
; File C:\Program Files (x86)\Microsoft Visual Studio\2019\Community\VC\Tools\MSVC\14.29.30133\atlmfc\include\atltypes.h

; 400  : 	x = 0;

  000be	c7 85 44 ff ff
	ff 00 00 00 00	 mov	 DWORD PTR _high_leftPt$[ebp], 0
; File D:\git\src\IBK\IBK_DRFN\ProjSrc\SrcChartEx\ChartAddIn\ChartAnalysisToolAddIn\AnalysisTool\AutoTrendDrawer.cpp

; 84   : 	if(!calculator.GetDrawingPoints(calData, nCurrentDataIndex, high_leftPt, high_rightPt, low_leftPt, low_rightPt))

  000c8	50		 push	 eax
  000c9	8d 85 3c ff ff
	ff		 lea	 eax, DWORD PTR _low_leftPt$[ebp]
; File C:\Program Files (x86)\Microsoft Visual Studio\2019\Community\VC\Tools\MSVC\14.29.30133\atlmfc\include\atltypes.h

; 401  : 	y = 0;

  000cf	c7 85 48 ff ff
	ff 00 00 00 00	 mov	 DWORD PTR _high_leftPt$[ebp+4], 0
; File D:\git\src\IBK\IBK_DRFN\ProjSrc\SrcChartEx\ChartAddIn\ChartAnalysisToolAddIn\AnalysisTool\AutoTrendDrawer.cpp

; 84   : 	if(!calculator.GetDrawingPoints(calData, nCurrentDataIndex, high_leftPt, high_rightPt, low_leftPt, low_rightPt))

  000d9	50		 push	 eax
  000da	8d 85 50 ff ff
	ff		 lea	 eax, DWORD PTR _high_rightPt$[ebp]
; File C:\Program Files (x86)\Microsoft Visual Studio\2019\Community\VC\Tools\MSVC\14.29.30133\atlmfc\include\atltypes.h

; 400  : 	x = 0;

  000e0	c7 85 50 ff ff
	ff 00 00 00 00	 mov	 DWORD PTR _high_rightPt$[ebp], 0
; File D:\git\src\IBK\IBK_DRFN\ProjSrc\SrcChartEx\ChartAddIn\ChartAnalysisToolAddIn\AnalysisTool\AutoTrendDrawer.cpp

; 84   : 	if(!calculator.GetDrawingPoints(calData, nCurrentDataIndex, high_leftPt, high_rightPt, low_leftPt, low_rightPt))

  000ea	50		 push	 eax
  000eb	8d 85 44 ff ff
	ff		 lea	 eax, DWORD PTR _high_leftPt$[ebp]
; File C:\Program Files (x86)\Microsoft Visual Studio\2019\Community\VC\Tools\MSVC\14.29.30133\atlmfc\include\atltypes.h

; 401  : 	y = 0;

  000f1	c7 85 54 ff ff
	ff 00 00 00 00	 mov	 DWORD PTR _high_rightPt$[ebp+4], 0
; File D:\git\src\IBK\IBK_DRFN\ProjSrc\SrcChartEx\ChartAddIn\ChartAnalysisToolAddIn\AnalysisTool\AutoTrendDrawer.cpp

; 84   : 	if(!calculator.GetDrawingPoints(calData, nCurrentDataIndex, high_leftPt, high_rightPt, low_leftPt, low_rightPt))

  000fb	50		 push	 eax
  000fc	56		 push	 esi
  000fd	53		 push	 ebx
  000fe	8d 8d 67 ff ff
	ff		 lea	 ecx, DWORD PTR _calculator$[ebp]
; File C:\Program Files (x86)\Microsoft Visual Studio\2019\Community\VC\Tools\MSVC\14.29.30133\atlmfc\include\atltypes.h

; 400  : 	x = 0;

  00104	c7 85 3c ff ff
	ff 00 00 00 00	 mov	 DWORD PTR _low_leftPt$[ebp], 0

; 401  : 	y = 0;

  0010e	c7 85 40 ff ff
	ff 00 00 00 00	 mov	 DWORD PTR _low_leftPt$[ebp+4], 0

; 400  : 	x = 0;

  00118	c7 85 58 ff ff
	ff 00 00 00 00	 mov	 DWORD PTR _low_rightPt$[ebp], 0

; 401  : 	y = 0;

  00122	c7 85 5c ff ff
	ff 00 00 00 00	 mov	 DWORD PTR _low_rightPt$[ebp+4], 0
; File D:\git\src\IBK\IBK_DRFN\ProjSrc\SrcChartEx\ChartAddIn\ChartAnalysisToolAddIn\AnalysisTool\AutoTrendDrawer.cpp

; 84   : 	if(!calculator.GetDrawingPoints(calData, nCurrentDataIndex, high_leftPt, high_rightPt, low_leftPt, low_rightPt))

  0012c	e8 00 00 00 00	 call	 ?GetDrawingPoints@CAutoTrendDrawingCalculator@@QBE_NABVCAutoTrendDrawingCalculatorData@@HAAVCPoint@@111@Z ; CAutoTrendDrawingCalculator::GetDrawingPoints
  00131	84 c0		 test	 al, al
  00133	0f 84 a9 00 00
	00		 je	 $LN1@DrawShape

; 85   : 		return;
; 86   : 
; 87   : 	CPoint realHigh_rightPt(high_rightPt), realLow_righPt(low_rightPt);

  00139	8b 85 50 ff ff
	ff		 mov	 eax, DWORD PTR _high_rightPt$[ebp]
  0013f	8b 8d 54 ff ff
	ff		 mov	 ecx, DWORD PTR _high_rightPt$[ebp+4]
  00145	89 85 2c ff ff
	ff		 mov	 DWORD PTR _realHigh_rightPt$[ebp], eax
  0014b	8b 85 58 ff ff
	ff		 mov	 eax, DWORD PTR _low_rightPt$[ebp]
  00151	89 85 34 ff ff
	ff		 mov	 DWORD PTR _realLow_righPt$[ebp], eax

; 88   : 	DrawLine(pDC, region, nCurrentDataIndex, high_leftPt, high_rightPt, realHigh_rightPt);

  00157	8d 85 2c ff ff
	ff		 lea	 eax, DWORD PTR _realHigh_rightPt$[ebp]
  0015d	50		 push	 eax
  0015e	8d 85 50 ff ff
	ff		 lea	 eax, DWORD PTR _high_rightPt$[ebp]
  00164	89 8d 30 ff ff
	ff		 mov	 DWORD PTR _realHigh_rightPt$[ebp+4], ecx
  0016a	8b 8d 5c ff ff
	ff		 mov	 ecx, DWORD PTR _low_rightPt$[ebp+4]
  00170	50		 push	 eax
  00171	8d 85 44 ff ff
	ff		 lea	 eax, DWORD PTR _high_leftPt$[ebp]
  00177	89 8d 38 ff ff
	ff		 mov	 DWORD PTR _realLow_righPt$[ebp+4], ecx
  0017d	50		 push	 eax
  0017e	56		 push	 esi
  0017f	8d 45 d8	 lea	 eax, DWORD PTR _region$[ebp]
  00182	8b cf		 mov	 ecx, edi
  00184	50		 push	 eax
  00185	ff b5 60 ff ff
	ff		 push	 DWORD PTR _pDC$GSCopy$1$[ebp]
  0018b	e8 00 00 00 00	 call	 ?DrawLine@CAutoTrendDrawer@@AAEXPAVCDC@@ABVCRegion@@HABVCPoint@@2AAV4@@Z ; CAutoTrendDrawer::DrawLine

; 89   : 	DrawLine(pDC, region, nCurrentDataIndex, low_leftPt, low_rightPt, realLow_righPt);

  00190	8d 85 34 ff ff
	ff		 lea	 eax, DWORD PTR _realLow_righPt$[ebp]
  00196	8b cf		 mov	 ecx, edi
  00198	50		 push	 eax
  00199	8d 85 58 ff ff
	ff		 lea	 eax, DWORD PTR _low_rightPt$[ebp]
  0019f	50		 push	 eax
  001a0	8d 85 3c ff ff
	ff		 lea	 eax, DWORD PTR _low_leftPt$[ebp]
  001a6	50		 push	 eax
  001a7	56		 push	 esi
  001a8	8d 45 d8	 lea	 eax, DWORD PTR _region$[ebp]
  001ab	50		 push	 eax
  001ac	ff b5 60 ff ff
	ff		 push	 DWORD PTR _pDC$GSCopy$1$[ebp]
  001b2	e8 00 00 00 00	 call	 ?DrawLine@CAutoTrendDrawer@@AAEXPAVCDC@@ABVCRegion@@HABVCPoint@@2AAV4@@Z ; CAutoTrendDrawer::DrawLine

; 90   : 	DrawText(pDC, calData, nCurrentDataIndex, high_rightPt, low_rightPt, realHigh_rightPt, realLow_righPt);

  001b7	8d 85 34 ff ff
	ff		 lea	 eax, DWORD PTR _realLow_righPt$[ebp]
  001bd	8b cf		 mov	 ecx, edi
  001bf	50		 push	 eax
  001c0	8d 85 2c ff ff
	ff		 lea	 eax, DWORD PTR _realHigh_rightPt$[ebp]
  001c6	50		 push	 eax
  001c7	8d 85 58 ff ff
	ff		 lea	 eax, DWORD PTR _low_rightPt$[ebp]
  001cd	50		 push	 eax
  001ce	8d 85 50 ff ff
	ff		 lea	 eax, DWORD PTR _high_rightPt$[ebp]
  001d4	50		 push	 eax
  001d5	56		 push	 esi
  001d6	53		 push	 ebx
  001d7	ff b5 60 ff ff
	ff		 push	 DWORD PTR _pDC$GSCopy$1$[ebp]
  001dd	e8 00 00 00 00	 call	 ?DrawTextA@CAutoTrendDrawer@@AAEXPAVCDC@@ABVCAutoTrendDrawingCalculatorData@@HABVCPoint@@222@Z ; CAutoTrendDrawer::DrawTextA
$LN1@DrawShape:

; 91   : }

  001e2	8b 4d f4	 mov	 ecx, DWORD PTR __$EHRec$[ebp]
  001e5	64 89 0d 00 00
	00 00		 mov	 DWORD PTR fs:0, ecx
  001ec	59		 pop	 ecx
  001ed	5f		 pop	 edi
  001ee	5e		 pop	 esi
  001ef	5b		 pop	 ebx
  001f0	8b 4d f0	 mov	 ecx, DWORD PTR __$ArrayPad$[ebp]
  001f3	33 cd		 xor	 ecx, ebp
  001f5	e8 00 00 00 00	 call	 @__security_check_cookie@4
  001fa	8b e5		 mov	 esp, ebp
  001fc	5d		 pop	 ebp
  001fd	c2 0c 00	 ret	 12			; 0000000cH
_TEXT	ENDS
;	COMDAT text$x
text$x	SEGMENT
__unwindfunclet$?DrawShape@CAutoTrendDrawer@@AAEXPAVCDC@@ABVCAutoTrendDrawingCalculatorData@@ABVCPoint@@@Z$0:
  00000	8d 8d 68 ff ff
	ff		 lea	 ecx, DWORD PTR $T3[ebp]
  00006	e9 00 00 00 00	 jmp	 ??1CCoordinateCalculatorData@@QAE@XZ ; CCoordinateCalculatorData::~CCoordinateCalculatorData
  0000b	cc		 int	 3
  0000c	cc		 int	 3
  0000d	cc		 int	 3
  0000e	cc		 int	 3
  0000f	cc		 int	 3
__ehhandler$?DrawShape@CAutoTrendDrawer@@AAEXPAVCDC@@ABVCAutoTrendDrawingCalculatorData@@ABVCPoint@@@Z:
  00010	90		 npad	 1
  00011	90		 npad	 1
  00012	8b 54 24 08	 mov	 edx, DWORD PTR [esp+8]
  00016	8d 42 0c	 lea	 eax, DWORD PTR [edx+12]
  00019	8b 8a 20 ff ff
	ff		 mov	 ecx, DWORD PTR [edx-224]
  0001f	33 c8		 xor	 ecx, eax
  00021	e8 00 00 00 00	 call	 @__security_check_cookie@4
  00026	8b 4a fc	 mov	 ecx, DWORD PTR [edx-4]
  00029	33 c8		 xor	 ecx, eax
  0002b	e8 00 00 00 00	 call	 @__security_check_cookie@4
  00030	b8 00 00 00 00	 mov	 eax, OFFSET __ehfuncinfo$?DrawShape@CAutoTrendDrawer@@AAEXPAVCDC@@ABVCAutoTrendDrawingCalculatorData@@ABVCPoint@@@Z
  00035	e9 00 00 00 00	 jmp	 ___CxxFrameHandler3
text$x	ENDS
?DrawShape@CAutoTrendDrawer@@AAEXPAVCDC@@ABVCAutoTrendDrawingCalculatorData@@ABVCPoint@@@Z ENDP ; CAutoTrendDrawer::DrawShape
; Function compile flags: /Ogtp
; File D:\git\src\IBK\IBK_DRFN\ProjSrc\SrcChartEx\ChartAddIn\ChartAnalysisToolAddIn\AnalysisTool\AutoTrendDrawer.cpp
; File C:\Program Files (x86)\Microsoft Visual Studio\2019\Community\VC\Tools\MSVC\14.29.30133\atlmfc\include\atltypes.h
; File D:\git\src\IBK\IBK_DRFN\ProjSrc\SrcChartEx\ChartAddIn\ChartAnalysisToolAddIn\AnalysisTool\AutoTrendDrawer.cpp
; File C:\Program Files (x86)\Microsoft Visual Studio\2019\Community\VC\Tools\MSVC\14.29.30133\atlmfc\include\atltypes.h
; File D:\git\src\IBK\IBK_DRFN\ProjSrc\SrcChartEx\ChartAddIn\ChartAnalysisToolAddIn\AnalysisTool\AutoTrendDrawer.cpp
; File C:\Program Files (x86)\Microsoft Visual Studio\2019\Community\VC\Tools\MSVC\14.29.30133\atlmfc\include\atltypes.h
; File D:\git\src\IBK\IBK_DRFN\ProjSrc\SrcChartEx\ChartAddIn\ChartAnalysisToolAddIn\AnalysisTool\AutoTrendDrawer.cpp
; File C:\Program Files (x86)\Microsoft Visual Studio\2019\Community\VC\Tools\MSVC\14.29.30133\atlmfc\include\atltypes.h
; File D:\git\src\IBK\IBK_DRFN\ProjSrc\SrcChartEx\ChartAddIn\ChartAnalysisToolAddIn\AnalysisTool\AutoTrendDrawer.cpp
; File C:\Program Files (x86)\Microsoft Visual Studio\2019\Community\VC\Tools\MSVC\14.29.30133\atlmfc\include\afxwin1.inl
; File D:\git\src\IBK\IBK_DRFN\ProjSrc\SrcChartEx\ChartAddIn\ChartAnalysisToolAddIn\AnalysisTool\AutoTrendDrawer.cpp
;	COMDAT ?Drawing@CAutoTrendDrawer@@QAE_NPAVCDC@@ABVCAutoTrendDrawingCalculatorData@@ABVCPoint@@H@Z
_TEXT	SEGMENT
_realHigh_rightPt$2 = -248				; size = 8
_realLow_righPt$3 = -240				; size = 8
_low_leftPt$4 = -232					; size = 8
_high_leftPt$5 = -224					; size = 8
_oldBkMode$1$ = -216					; size = 4
_nOldDrawMode$1$ = -212					; size = 4
_pOldPen$1$ = -208					; size = 4
_calData$GSCopy$1$ = -204				; size = 4
_newPen$ = -200						; size = 8
_high_rightPt$6 = -192					; size = 8
_low_rightPt$7 = -184					; size = 8
_calculator$8 = -173					; size = 1
_point$GSCopy$1$ = -172					; size = 4
_nCurrentDataIndex$1$ = -172				; size = 4
$T9 = -168						; size = 96
$T10 = -72						; size = 16
$T11 = -56						; size = 16
$T12 = -48						; size = 8
_region$13 = -40					; size = 24
__$ArrayPad$ = -16					; size = 4
__$EHRec$ = -12						; size = 12
_pDC$ = 8						; size = 4
_calData$ = 12						; size = 4
_point$ = 16						; size = 4
_nDrawMode$ = 20					; size = 4
?Drawing@CAutoTrendDrawer@@QAE_NPAVCDC@@ABVCAutoTrendDrawingCalculatorData@@ABVCPoint@@H@Z PROC ; CAutoTrendDrawer::Drawing, COMDAT
; _this$ = ecx

; 50   : {

  00000	55		 push	 ebp
  00001	8b ec		 mov	 ebp, esp
  00003	6a ff		 push	 -1
  00005	68 00 00 00 00	 push	 __ehhandler$?Drawing@CAutoTrendDrawer@@QAE_NPAVCDC@@ABVCAutoTrendDrawingCalculatorData@@ABVCPoint@@H@Z
  0000a	64 a1 00 00 00
	00		 mov	 eax, DWORD PTR fs:0
  00010	50		 push	 eax
  00011	81 ec ec 00 00
	00		 sub	 esp, 236		; 000000ecH
  00017	a1 00 00 00 00	 mov	 eax, DWORD PTR ___security_cookie
  0001c	33 c5		 xor	 eax, ebp
  0001e	89 45 f0	 mov	 DWORD PTR __$ArrayPad$[ebp], eax
  00021	53		 push	 ebx
  00022	56		 push	 esi
  00023	57		 push	 edi
  00024	50		 push	 eax
  00025	8d 45 f4	 lea	 eax, DWORD PTR __$EHRec$[ebp]
  00028	64 a3 00 00 00
	00		 mov	 DWORD PTR fs:0, eax
  0002e	8b d9		 mov	 ebx, ecx
  00030	8b 45 10	 mov	 eax, DWORD PTR _point$[ebp]
  00033	8b 75 0c	 mov	 esi, DWORD PTR _calData$[ebp]

; 51   : 	if(!calData.DoesCalculator(point))

  00036	8b ce		 mov	 ecx, esi
  00038	8b 7d 08	 mov	 edi, DWORD PTR _pDC$[ebp]
  0003b	50		 push	 eax
  0003c	89 b5 34 ff ff
	ff		 mov	 DWORD PTR _calData$GSCopy$1$[ebp], esi
  00042	89 85 54 ff ff
	ff		 mov	 DWORD PTR _point$GSCopy$1$[ebp], eax
  00048	e8 00 00 00 00	 call	 ?DoesCalculator@CAutoTrendDrawingCalculatorData@@QBE_NABVCPoint@@@Z ; CAutoTrendDrawingCalculatorData::DoesCalculator
  0004d	84 c0		 test	 al, al
  0004f	0f 84 51 02 00
	00		 je	 $LN1@Drawing
$LN2@Drawing:

; 52   : 		return false;
; 53   : 
; 54   : 	CPen newPen(PS_INSIDEFRAME, m_nPenThickness, m_penColor);

  00055	ff 73 14	 push	 DWORD PTR [ebx+20]
  00058	8d 8d 38 ff ff
	ff		 lea	 ecx, DWORD PTR _newPen$[ebp]
  0005e	ff 73 18	 push	 DWORD PTR [ebx+24]
  00061	6a 06		 push	 6
  00063	e8 00 00 00 00	 call	 ??0CPen@@QAE@HHK@Z	; CPen::CPen

; 55   : 	CPen* pOldPen = pDC->SelectObject(&newPen);

  00068	8d 85 38 ff ff
	ff		 lea	 eax, DWORD PTR _newPen$[ebp]
  0006e	c7 45 fc 00 00
	00 00		 mov	 DWORD PTR __$EHRec$[ebp+8], 0
  00075	50		 push	 eax
  00076	8b cf		 mov	 ecx, edi
  00078	e8 00 00 00 00	 call	 ?SelectObject@CDC@@QAEPAVCPen@@PAV2@@Z ; CDC::SelectObject

; 56   : 	int nOldDrawMode = pDC->SetROP2(nDrawMode);

  0007d	ff 75 14	 push	 DWORD PTR _nDrawMode$[ebp]
  00080	8b cf		 mov	 ecx, edi
  00082	89 85 30 ff ff
	ff		 mov	 DWORD PTR _pOldPen$1$[ebp], eax
  00088	e8 00 00 00 00	 call	 ?SetROP2@CDC@@QAEHH@Z	; CDC::SetROP2

; 57   : 	int oldBkMode = pDC->SetBkMode(TRANSPARENT);

  0008d	6a 01		 push	 1
  0008f	8b cf		 mov	 ecx, edi
  00091	89 85 2c ff ff
	ff		 mov	 DWORD PTR _nOldDrawMode$1$[ebp], eax
  00097	e8 00 00 00 00	 call	 ?SetBkMode@CDC@@QAEHH@Z	; CDC::SetBkMode
  0009c	89 85 28 ff ff
	ff		 mov	 DWORD PTR _oldBkMode$1$[ebp], eax

; 58   : 
; 59   : 	CDrawer::SelectClipRegion(pDC, calData.GetNoFrameGraphRegion());

  000a2	8b ce		 mov	 ecx, esi
  000a4	8d 45 c8	 lea	 eax, DWORD PTR $T11[ebp]
  000a7	50		 push	 eax
  000a8	e8 00 00 00 00	 call	 ?GetNoFrameGraphRegion@CAutoTrendDrawingCalculatorData@@QBE?AVCRect@@XZ ; CAutoTrendDrawingCalculatorData::GetNoFrameGraphRegion
  000ad	50		 push	 eax
  000ae	57		 push	 edi
  000af	8b cb		 mov	 ecx, ebx
  000b1	e8 00 00 00 00	 call	 ?SelectClipRegion@CDrawer@@IAEXPAVCDC@@ABVCRect@@@Z ; CDrawer::SelectClipRegion

; 77   : 	CRegion region = GetRegion(calData.GetCoordinateCalculatorData());

  000b6	8d 85 58 ff ff
	ff		 lea	 eax, DWORD PTR $T9[ebp]
  000bc	8b ce		 mov	 ecx, esi
  000be	50		 push	 eax
  000bf	e8 00 00 00 00	 call	 ?GetCoordinateCalculatorData@CAutoTrendDrawingCalculatorData@@QBE?AVCCoordinateCalculatorData@@XZ ; CAutoTrendDrawingCalculatorData::GetCoordinateCalculatorData
  000c4	8b f0		 mov	 esi, eax

; 121  : 	return CRegion(calData.GetRegion(), CDisplayAttributes(calData.GetDisplayDataStart(), calData.GetDisplayDataEnd()));

  000c6	8b ce		 mov	 ecx, esi

; 77   : 	CRegion region = GetRegion(calData.GetCoordinateCalculatorData());

  000c8	c6 45 fc 01	 mov	 BYTE PTR __$EHRec$[ebp+8], 1

; 121  : 	return CRegion(calData.GetRegion(), CDisplayAttributes(calData.GetDisplayDataStart(), calData.GetDisplayDataEnd()));

  000cc	e8 00 00 00 00	 call	 ?GetDisplayDataEnd@CCoordinateCalculatorData@@QBEHXZ ; CCoordinateCalculatorData::GetDisplayDataEnd
  000d1	50		 push	 eax
  000d2	8b ce		 mov	 ecx, esi
  000d4	e8 00 00 00 00	 call	 ?GetDisplayDataStart@CCoordinateCalculatorData@@QBEHXZ ; CCoordinateCalculatorData::GetDisplayDataStart
  000d9	50		 push	 eax
  000da	8d 4d d0	 lea	 ecx, DWORD PTR $T12[ebp]
  000dd	e8 00 00 00 00	 call	 ??0CDisplayAttributes@@QAE@HH@Z ; CDisplayAttributes::CDisplayAttributes
  000e2	50		 push	 eax
  000e3	8d 45 b8	 lea	 eax, DWORD PTR $T10[ebp]
  000e6	8b ce		 mov	 ecx, esi
  000e8	50		 push	 eax
  000e9	e8 00 00 00 00	 call	 ?GetRegion@CCoordinateCalculatorData@@QBE?AVCRect@@XZ ; CCoordinateCalculatorData::GetRegion
  000ee	50		 push	 eax
  000ef	8d 4d d8	 lea	 ecx, DWORD PTR _region$13[ebp]
  000f2	e8 00 00 00 00	 call	 ??0CRegion@@QAE@ABVCRect@@ABVCDisplayAttributes@@@Z ; CRegion::CRegion

; 77   : 	CRegion region = GetRegion(calData.GetCoordinateCalculatorData());

  000f7	8d 8d 58 ff ff
	ff		 lea	 ecx, DWORD PTR $T9[ebp]
  000fd	c6 45 fc 00	 mov	 BYTE PTR __$EHRec$[ebp+8], 0
  00101	e8 00 00 00 00	 call	 ??1CCoordinateCalculatorData@@QAE@XZ ; CCoordinateCalculatorData::~CCoordinateCalculatorData

; 78   : 	int nCurrentDataIndex = CDrawer::GetCurrentDataIndex(region, point);

  00106	ff b5 54 ff ff
	ff		 push	 DWORD PTR _point$GSCopy$1$[ebp]
  0010c	8d 45 d8	 lea	 eax, DWORD PTR _region$13[ebp]
  0010f	8b cb		 mov	 ecx, ebx
  00111	50		 push	 eax
  00112	e8 00 00 00 00	 call	 ?GetCurrentDataIndex@CDrawer@@IBEHABVCRegion@@ABVCPoint@@@Z ; CDrawer::GetCurrentDataIndex
  00117	89 85 54 ff ff
	ff		 mov	 DWORD PTR _nCurrentDataIndex$1$[ebp], eax

; 79   : 	if(nCurrentDataIndex < 0)

  0011d	85 c0		 test	 eax, eax
  0011f	0f 88 30 01 00
	00		 js	 $LN5@Drawing

; 84   : 	if(!calculator.GetDrawingPoints(calData, nCurrentDataIndex, high_leftPt, high_rightPt, low_leftPt, low_rightPt))

  00125	8b b5 34 ff ff
	ff		 mov	 esi, DWORD PTR _calData$GSCopy$1$[ebp]
  0012b	8d 8d 48 ff ff
	ff		 lea	 ecx, DWORD PTR _low_rightPt$7[ebp]
  00131	51		 push	 ecx
  00132	8d 8d 18 ff ff
	ff		 lea	 ecx, DWORD PTR _low_leftPt$4[ebp]
; File C:\Program Files (x86)\Microsoft Visual Studio\2019\Community\VC\Tools\MSVC\14.29.30133\atlmfc\include\atltypes.h

; 400  : 	x = 0;

  00138	c7 85 20 ff ff
	ff 00 00 00 00	 mov	 DWORD PTR _high_leftPt$5[ebp], 0
; File D:\git\src\IBK\IBK_DRFN\ProjSrc\SrcChartEx\ChartAddIn\ChartAnalysisToolAddIn\AnalysisTool\AutoTrendDrawer.cpp

; 84   : 	if(!calculator.GetDrawingPoints(calData, nCurrentDataIndex, high_leftPt, high_rightPt, low_leftPt, low_rightPt))

  00142	51		 push	 ecx
  00143	8d 8d 40 ff ff
	ff		 lea	 ecx, DWORD PTR _high_rightPt$6[ebp]
; File C:\Program Files (x86)\Microsoft Visual Studio\2019\Community\VC\Tools\MSVC\14.29.30133\atlmfc\include\atltypes.h

; 401  : 	y = 0;

  00149	c7 85 24 ff ff
	ff 00 00 00 00	 mov	 DWORD PTR _high_leftPt$5[ebp+4], 0
; File D:\git\src\IBK\IBK_DRFN\ProjSrc\SrcChartEx\ChartAddIn\ChartAnalysisToolAddIn\AnalysisTool\AutoTrendDrawer.cpp

; 84   : 	if(!calculator.GetDrawingPoints(calData, nCurrentDataIndex, high_leftPt, high_rightPt, low_leftPt, low_rightPt))

  00153	51		 push	 ecx
  00154	8d 8d 20 ff ff
	ff		 lea	 ecx, DWORD PTR _high_leftPt$5[ebp]
; File C:\Program Files (x86)\Microsoft Visual Studio\2019\Community\VC\Tools\MSVC\14.29.30133\atlmfc\include\atltypes.h

; 400  : 	x = 0;

  0015a	c7 85 40 ff ff
	ff 00 00 00 00	 mov	 DWORD PTR _high_rightPt$6[ebp], 0
; File D:\git\src\IBK\IBK_DRFN\ProjSrc\SrcChartEx\ChartAddIn\ChartAnalysisToolAddIn\AnalysisTool\AutoTrendDrawer.cpp

; 84   : 	if(!calculator.GetDrawingPoints(calData, nCurrentDataIndex, high_leftPt, high_rightPt, low_leftPt, low_rightPt))

  00164	51		 push	 ecx
  00165	50		 push	 eax
  00166	56		 push	 esi
  00167	8d 8d 53 ff ff
	ff		 lea	 ecx, DWORD PTR _calculator$8[ebp]
; File C:\Program Files (x86)\Microsoft Visual Studio\2019\Community\VC\Tools\MSVC\14.29.30133\atlmfc\include\atltypes.h

; 401  : 	y = 0;

  0016d	c7 85 44 ff ff
	ff 00 00 00 00	 mov	 DWORD PTR _high_rightPt$6[ebp+4], 0

; 400  : 	x = 0;

  00177	c7 85 18 ff ff
	ff 00 00 00 00	 mov	 DWORD PTR _low_leftPt$4[ebp], 0

; 401  : 	y = 0;

  00181	c7 85 1c ff ff
	ff 00 00 00 00	 mov	 DWORD PTR _low_leftPt$4[ebp+4], 0

; 400  : 	x = 0;

  0018b	c7 85 48 ff ff
	ff 00 00 00 00	 mov	 DWORD PTR _low_rightPt$7[ebp], 0

; 401  : 	y = 0;

  00195	c7 85 4c ff ff
	ff 00 00 00 00	 mov	 DWORD PTR _low_rightPt$7[ebp+4], 0
; File D:\git\src\IBK\IBK_DRFN\ProjSrc\SrcChartEx\ChartAddIn\ChartAnalysisToolAddIn\AnalysisTool\AutoTrendDrawer.cpp

; 84   : 	if(!calculator.GetDrawingPoints(calData, nCurrentDataIndex, high_leftPt, high_rightPt, low_leftPt, low_rightPt))

  0019f	e8 00 00 00 00	 call	 ?GetDrawingPoints@CAutoTrendDrawingCalculator@@QBE_NABVCAutoTrendDrawingCalculatorData@@HAAVCPoint@@111@Z ; CAutoTrendDrawingCalculator::GetDrawingPoints
  001a4	84 c0		 test	 al, al
  001a6	0f 84 a9 00 00
	00		 je	 $LN5@Drawing

; 85   : 		return;
; 86   : 
; 87   : 	CPoint realHigh_rightPt(high_rightPt), realLow_righPt(low_rightPt);

  001ac	8b 85 40 ff ff
	ff		 mov	 eax, DWORD PTR _high_rightPt$6[ebp]
  001b2	8b 8d 44 ff ff
	ff		 mov	 ecx, DWORD PTR _high_rightPt$6[ebp+4]
  001b8	89 85 08 ff ff
	ff		 mov	 DWORD PTR _realHigh_rightPt$2[ebp], eax
  001be	8b 85 48 ff ff
	ff		 mov	 eax, DWORD PTR _low_rightPt$7[ebp]
  001c4	89 85 10 ff ff
	ff		 mov	 DWORD PTR _realLow_righPt$3[ebp], eax

; 88   : 	DrawLine(pDC, region, nCurrentDataIndex, high_leftPt, high_rightPt, realHigh_rightPt);

  001ca	8d 85 08 ff ff
	ff		 lea	 eax, DWORD PTR _realHigh_rightPt$2[ebp]
  001d0	50		 push	 eax
  001d1	8d 85 40 ff ff
	ff		 lea	 eax, DWORD PTR _high_rightPt$6[ebp]
  001d7	89 8d 0c ff ff
	ff		 mov	 DWORD PTR _realHigh_rightPt$2[ebp+4], ecx
  001dd	8b 8d 4c ff ff
	ff		 mov	 ecx, DWORD PTR _low_rightPt$7[ebp+4]
  001e3	50		 push	 eax
  001e4	8d 85 20 ff ff
	ff		 lea	 eax, DWORD PTR _high_leftPt$5[ebp]
  001ea	89 8d 14 ff ff
	ff		 mov	 DWORD PTR _realLow_righPt$3[ebp+4], ecx
  001f0	50		 push	 eax
  001f1	ff b5 54 ff ff
	ff		 push	 DWORD PTR _nCurrentDataIndex$1$[ebp]
  001f7	8d 45 d8	 lea	 eax, DWORD PTR _region$13[ebp]
  001fa	8b cb		 mov	 ecx, ebx
  001fc	50		 push	 eax
  001fd	57		 push	 edi
  001fe	e8 00 00 00 00	 call	 ?DrawLine@CAutoTrendDrawer@@AAEXPAVCDC@@ABVCRegion@@HABVCPoint@@2AAV4@@Z ; CAutoTrendDrawer::DrawLine

; 89   : 	DrawLine(pDC, region, nCurrentDataIndex, low_leftPt, low_rightPt, realLow_righPt);

  00203	8d 85 10 ff ff
	ff		 lea	 eax, DWORD PTR _realLow_righPt$3[ebp]
  00209	8b cb		 mov	 ecx, ebx
  0020b	50		 push	 eax
  0020c	8d 85 48 ff ff
	ff		 lea	 eax, DWORD PTR _low_rightPt$7[ebp]
  00212	50		 push	 eax
  00213	8d 85 18 ff ff
	ff		 lea	 eax, DWORD PTR _low_leftPt$4[ebp]
  00219	50		 push	 eax
  0021a	ff b5 54 ff ff
	ff		 push	 DWORD PTR _nCurrentDataIndex$1$[ebp]
  00220	8d 45 d8	 lea	 eax, DWORD PTR _region$13[ebp]
  00223	50		 push	 eax
  00224	57		 push	 edi
  00225	e8 00 00 00 00	 call	 ?DrawLine@CAutoTrendDrawer@@AAEXPAVCDC@@ABVCRegion@@HABVCPoint@@2AAV4@@Z ; CAutoTrendDrawer::DrawLine

; 90   : 	DrawText(pDC, calData, nCurrentDataIndex, high_rightPt, low_rightPt, realHigh_rightPt, realLow_righPt);

  0022a	8d 85 10 ff ff
	ff		 lea	 eax, DWORD PTR _realLow_righPt$3[ebp]
  00230	8b cb		 mov	 ecx, ebx
  00232	50		 push	 eax
  00233	8d 85 08 ff ff
	ff		 lea	 eax, DWORD PTR _realHigh_rightPt$2[ebp]
  00239	50		 push	 eax
  0023a	8d 85 48 ff ff
	ff		 lea	 eax, DWORD PTR _low_rightPt$7[ebp]
  00240	50		 push	 eax
  00241	8d 85 40 ff ff
	ff		 lea	 eax, DWORD PTR _high_rightPt$6[ebp]
  00247	50		 push	 eax
  00248	ff b5 54 ff ff
	ff		 push	 DWORD PTR _nCurrentDataIndex$1$[ebp]
  0024e	56		 push	 esi
  0024f	57		 push	 edi
  00250	e8 00 00 00 00	 call	 ?DrawTextA@CAutoTrendDrawer@@AAEXPAVCDC@@ABVCAutoTrendDrawingCalculatorData@@HABVCPoint@@222@Z ; CAutoTrendDrawer::DrawTextA
$LN5@Drawing:

; 60   : 	DrawShape(pDC, calData, point);
; 61   : 	CDrawer::SelectClipRegion(pDC);

  00255	57		 push	 edi
  00256	8b cb		 mov	 ecx, ebx
  00258	e8 00 00 00 00	 call	 ?SelectClipRegion@CDrawer@@IAEXPAVCDC@@@Z ; CDrawer::SelectClipRegion

; 62   : 
; 63   : 	pDC->SelectObject(pOldPen);

  0025d	ff b5 30 ff ff
	ff		 push	 DWORD PTR _pOldPen$1$[ebp]
  00263	8b cf		 mov	 ecx, edi
  00265	e8 00 00 00 00	 call	 ?SelectObject@CDC@@QAEPAVCPen@@PAV2@@Z ; CDC::SelectObject

; 64   : 	pDC->SetROP2(nOldDrawMode);

  0026a	ff b5 2c ff ff
	ff		 push	 DWORD PTR _nOldDrawMode$1$[ebp]
  00270	8b cf		 mov	 ecx, edi
  00272	e8 00 00 00 00	 call	 ?SetROP2@CDC@@QAEHH@Z	; CDC::SetROP2

; 65   : 	pDC->SetBkMode(oldBkMode);

  00277	ff b5 28 ff ff
	ff		 push	 DWORD PTR _oldBkMode$1$[ebp]
  0027d	8b cf		 mov	 ecx, edi
  0027f	e8 00 00 00 00	 call	 ?SetBkMode@CDC@@QAEHH@Z	; CDC::SetBkMode

; 66   : 	newPen.DeleteObject();

  00284	8d 8d 38 ff ff
	ff		 lea	 ecx, DWORD PTR _newPen$[ebp]
  0028a	e8 00 00 00 00	 call	 ?DeleteObject@CGdiObject@@QAEHXZ ; CGdiObject::DeleteObject
; File C:\Program Files (x86)\Microsoft Visual Studio\2019\Community\VC\Tools\MSVC\14.29.30133\atlmfc\include\afxwin1.inl

; 106  : 	{ }

  0028f	8d 8d 38 ff ff
	ff		 lea	 ecx, DWORD PTR _newPen$[ebp]
  00295	c7 85 38 ff ff
	ff 00 00 00 00	 mov	 DWORD PTR _newPen$[ebp], OFFSET ??_7CPen@@6B@
  0029f	e8 00 00 00 00	 call	 ??1CGdiObject@@UAE@XZ	; CGdiObject::~CGdiObject
; File D:\git\src\IBK\IBK_DRFN\ProjSrc\SrcChartEx\ChartAddIn\ChartAnalysisToolAddIn\AnalysisTool\AutoTrendDrawer.cpp

; 67   : 	return true;

  002a4	b0 01		 mov	 al, 1
$LN1@Drawing:

; 68   : }

  002a6	8b 4d f4	 mov	 ecx, DWORD PTR __$EHRec$[ebp]
  002a9	64 89 0d 00 00
	00 00		 mov	 DWORD PTR fs:0, ecx
  002b0	59		 pop	 ecx
  002b1	5f		 pop	 edi
  002b2	5e		 pop	 esi
  002b3	5b		 pop	 ebx
  002b4	8b 4d f0	 mov	 ecx, DWORD PTR __$ArrayPad$[ebp]
  002b7	33 cd		 xor	 ecx, ebp
  002b9	e8 00 00 00 00	 call	 @__security_check_cookie@4
  002be	8b e5		 mov	 esp, ebp
  002c0	5d		 pop	 ebp
  002c1	c2 10 00	 ret	 16			; 00000010H
_TEXT	ENDS
;	COMDAT text$x
text$x	SEGMENT
__unwindfunclet$?Drawing@CAutoTrendDrawer@@QAE_NPAVCDC@@ABVCAutoTrendDrawingCalculatorData@@ABVCPoint@@H@Z$0:
  00000	8d 8d 38 ff ff
	ff		 lea	 ecx, DWORD PTR _newPen$[ebp]
  00006	e9 00 00 00 00	 jmp	 ??1CPen@@UAE@XZ		; CPen::~CPen
__unwindfunclet$?Drawing@CAutoTrendDrawer@@QAE_NPAVCDC@@ABVCAutoTrendDrawingCalculatorData@@ABVCPoint@@H@Z$1:
  0000b	8d 8d 58 ff ff
	ff		 lea	 ecx, DWORD PTR $T9[ebp]
  00011	e9 00 00 00 00	 jmp	 ??1CCoordinateCalculatorData@@QAE@XZ ; CCoordinateCalculatorData::~CCoordinateCalculatorData
  00016	cc		 int	 3
  00017	cc		 int	 3
  00018	cc		 int	 3
  00019	cc		 int	 3
  0001a	cc		 int	 3
__ehhandler$?Drawing@CAutoTrendDrawer@@QAE_NPAVCDC@@ABVCAutoTrendDrawingCalculatorData@@ABVCPoint@@H@Z:
  0001b	90		 npad	 1
  0001c	90		 npad	 1
  0001d	8b 54 24 08	 mov	 edx, DWORD PTR [esp+8]
  00021	8d 42 0c	 lea	 eax, DWORD PTR [edx+12]
  00024	8b 8a 04 ff ff
	ff		 mov	 ecx, DWORD PTR [edx-252]
  0002a	33 c8		 xor	 ecx, eax
  0002c	e8 00 00 00 00	 call	 @__security_check_cookie@4
  00031	8b 4a fc	 mov	 ecx, DWORD PTR [edx-4]
  00034	33 c8		 xor	 ecx, eax
  00036	e8 00 00 00 00	 call	 @__security_check_cookie@4
  0003b	b8 00 00 00 00	 mov	 eax, OFFSET __ehfuncinfo$?Drawing@CAutoTrendDrawer@@QAE_NPAVCDC@@ABVCAutoTrendDrawingCalculatorData@@ABVCPoint@@H@Z
  00040	e9 00 00 00 00	 jmp	 ___CxxFrameHandler3
text$x	ENDS
?Drawing@CAutoTrendDrawer@@QAE_NPAVCDC@@ABVCAutoTrendDrawingCalculatorData@@ABVCPoint@@H@Z ENDP ; CAutoTrendDrawer::Drawing
; Function compile flags: /Ogtp
; File D:\git\src\IBK\IBK_DRFN\ProjSrc\SrcChartEx\ChartAddIn\ChartAnalysisToolAddIn\AnalysisTool\AutoTrendDrawer.cpp
;	COMDAT ?GetPenThickness@CAutoTrendDrawer@@QBEHXZ
_TEXT	SEGMENT
?GetPenThickness@CAutoTrendDrawer@@QBEHXZ PROC		; CAutoTrendDrawer::GetPenThickness, COMDAT
; _this$ = ecx

; 45   : 	return m_nPenThickness;

  00000	8b 41 18	 mov	 eax, DWORD PTR [ecx+24]

; 46   : }

  00003	c3		 ret	 0
?GetPenThickness@CAutoTrendDrawer@@QBEHXZ ENDP		; CAutoTrendDrawer::GetPenThickness
_TEXT	ENDS
; Function compile flags: /Ogtp
; File D:\git\src\IBK\IBK_DRFN\ProjSrc\SrcChartEx\ChartAddIn\ChartAnalysisToolAddIn\AnalysisTool\AutoTrendDrawer.cpp
;	COMDAT ?GetPenColor@CAutoTrendDrawer@@QBEKXZ
_TEXT	SEGMENT
?GetPenColor@CAutoTrendDrawer@@QBEKXZ PROC		; CAutoTrendDrawer::GetPenColor, COMDAT
; _this$ = ecx

; 40   : 	return m_penColor;

  00000	8b 41 14	 mov	 eax, DWORD PTR [ecx+20]

; 41   : }

  00003	c3		 ret	 0
?GetPenColor@CAutoTrendDrawer@@QBEKXZ ENDP		; CAutoTrendDrawer::GetPenColor
_TEXT	ENDS
; Function compile flags: /Ogtp
; File D:\git\src\IBK\IBK_DRFN\ProjSrc\SrcChartEx\ChartAddIn\ChartAnalysisToolAddIn\AnalysisTool\AutoTrendDrawer.cpp
;	COMDAT ?SetPenThickness@CAutoTrendDrawer@@QAEXH@Z
_TEXT	SEGMENT
_nThickness$ = 8					; size = 4
?SetPenThickness@CAutoTrendDrawer@@QAEXH@Z PROC		; CAutoTrendDrawer::SetPenThickness, COMDAT
; _this$ = ecx

; 34   : {

  00000	55		 push	 ebp
  00001	8b ec		 mov	 ebp, esp

; 35   : 	m_nPenThickness = nThickness;

  00003	8b 45 08	 mov	 eax, DWORD PTR _nThickness$[ebp]
  00006	89 41 18	 mov	 DWORD PTR [ecx+24], eax

; 36   : }

  00009	5d		 pop	 ebp
  0000a	c2 04 00	 ret	 4
?SetPenThickness@CAutoTrendDrawer@@QAEXH@Z ENDP		; CAutoTrendDrawer::SetPenThickness
_TEXT	ENDS
; Function compile flags: /Ogtp
; File D:\git\src\IBK\IBK_DRFN\ProjSrc\SrcChartEx\ChartAddIn\ChartAnalysisToolAddIn\AnalysisTool\AutoTrendDrawer.cpp
;	COMDAT ?SetPenColor@CAutoTrendDrawer@@QAEXABK@Z
_TEXT	SEGMENT
_color$ = 8						; size = 4
?SetPenColor@CAutoTrendDrawer@@QAEXABK@Z PROC		; CAutoTrendDrawer::SetPenColor, COMDAT
; _this$ = ecx

; 29   : {

  00000	55		 push	 ebp
  00001	8b ec		 mov	 ebp, esp

; 30   : 	m_penColor = color;

  00003	8b 45 08	 mov	 eax, DWORD PTR _color$[ebp]
  00006	8b 00		 mov	 eax, DWORD PTR [eax]
  00008	89 41 14	 mov	 DWORD PTR [ecx+20], eax

; 31   : }

  0000b	5d		 pop	 ebp
  0000c	c2 04 00	 ret	 4
?SetPenColor@CAutoTrendDrawer@@QAEXABK@Z ENDP		; CAutoTrendDrawer::SetPenColor
_TEXT	ENDS
; Function compile flags: /Ogtp
; File D:\git\src\IBK\IBK_DRFN\ProjSrc\SrcChartEx\ChartAddIn\ChartAnalysisToolAddIn\AnalysisTool\AutoTrendDrawer.cpp
;	COMDAT ??0CAutoTrendDrawer@@QAE@XZ
_TEXT	SEGMENT
??0CAutoTrendDrawer@@QAE@XZ PROC			; CAutoTrendDrawer::CAutoTrendDrawer, COMDAT
; _this$ = ecx

; 25   : {

  00000	56		 push	 esi
  00001	8b f1		 mov	 esi, ecx
  00003	e8 00 00 00 00	 call	 ??0CDrawer@@QAE@XZ	; CDrawer::CDrawer

; 23   : 	m_penColor(RGB(0, 0, 0)),

  00008	c7 46 14 00 00
	00 00		 mov	 DWORD PTR [esi+20], 0

; 26   : }

  0000f	8b c6		 mov	 eax, esi
  00011	c7 46 18 01 00
	00 00		 mov	 DWORD PTR [esi+24], 1
  00018	5e		 pop	 esi
  00019	c3		 ret	 0
??0CAutoTrendDrawer@@QAE@XZ ENDP			; CAutoTrendDrawer::CAutoTrendDrawer
_TEXT	ENDS
; Function compile flags: /Ogtp
; File C:\Program Files (x86)\Microsoft Visual Studio\2019\Community\VC\Tools\MSVC\14.29.30133\atlmfc\include\afxwin1.inl
; File C:\Program Files (x86)\Microsoft Visual Studio\2019\Community\VC\Tools\MSVC\14.29.30133\atlmfc\include\afx.inl
;	COMDAT ??_GCPen@@UAEPAXI@Z
_TEXT	SEGMENT
___flags$ = 8						; size = 4
??_GCPen@@UAEPAXI@Z PROC				; CPen::`scalar deleting destructor', COMDAT
; _this$ = ecx
  00000	55		 push	 ebp
  00001	8b ec		 mov	 ebp, esp
; File C:\Program Files (x86)\Microsoft Visual Studio\2019\Community\VC\Tools\MSVC\14.29.30133\atlmfc\include\afxwin1.inl

; 106  : 	{ }

  00003	56		 push	 esi
  00004	8b f1		 mov	 esi, ecx
  00006	c7 06 00 00 00
	00		 mov	 DWORD PTR [esi], OFFSET ??_7CPen@@6B@
  0000c	e8 00 00 00 00	 call	 ??1CGdiObject@@UAE@XZ	; CGdiObject::~CGdiObject
  00011	8b 45 08	 mov	 eax, DWORD PTR ___flags$[ebp]
  00014	a8 01		 test	 al, 1
  00016	74 1f		 je	 SHORT $LN12@scalar
  00018	a8 04		 test	 al, 4
  0001a	75 10		 jne	 SHORT $LN3@scalar
; File C:\Program Files (x86)\Microsoft Visual Studio\2019\Community\VC\Tools\MSVC\14.29.30133\atlmfc\include\afx.inl

; 112  : 	{ ::operator delete(p); }

  0001c	56		 push	 esi
  0001d	e8 00 00 00 00	 call	 ??3@YAXPAX@Z		; operator delete
  00022	83 c4 04	 add	 esp, 4
  00025	8b c6		 mov	 eax, esi
  00027	5e		 pop	 esi
  00028	5d		 pop	 ebp
  00029	c2 04 00	 ret	 4
$LN3@scalar:
  0002c	6a 08		 push	 8
  0002e	56		 push	 esi
  0002f	e8 00 00 00 00	 call	 ?__global_delete@@YAXPAXI@Z ; __global_delete
  00034	83 c4 08	 add	 esp, 8
$LN12@scalar:
  00037	8b c6		 mov	 eax, esi
  00039	5e		 pop	 esi
  0003a	5d		 pop	 ebp
  0003b	c2 04 00	 ret	 4
??_GCPen@@UAEPAXI@Z ENDP				; CPen::`scalar deleting destructor'
_TEXT	ENDS
; Function compile flags: /Ogtp
; File C:\Program Files (x86)\Microsoft Visual Studio\2019\Community\VC\Tools\MSVC\14.29.30133\atlmfc\include\afxwin1.inl
;	COMDAT ??1CPen@@UAE@XZ
_TEXT	SEGMENT
??1CPen@@UAE@XZ PROC					; CPen::~CPen, COMDAT
; _this$ = ecx

; 106  : 	{ }

  00000	c7 01 00 00 00
	00		 mov	 DWORD PTR [ecx], OFFSET ??_7CPen@@6B@
  00006	e9 00 00 00 00	 jmp	 ??1CGdiObject@@UAE@XZ	; CGdiObject::~CGdiObject
??1CPen@@UAE@XZ ENDP					; CPen::~CPen
_TEXT	ENDS
; Function compile flags: /Ogtp
; File C:\Program Files (x86)\Microsoft Visual Studio\2019\Community\VC\Tools\MSVC\14.29.30133\atlmfc\include\afx.inl
;	COMDAT ??_GCGdiObject@@UAEPAXI@Z
_TEXT	SEGMENT
___flags$ = 8						; size = 4
??_GCGdiObject@@UAEPAXI@Z PROC				; CGdiObject::`scalar deleting destructor', COMDAT
; _this$ = ecx
  00000	55		 push	 ebp
  00001	8b ec		 mov	 ebp, esp
  00003	56		 push	 esi
  00004	8b f1		 mov	 esi, ecx
  00006	e8 00 00 00 00	 call	 ??1CGdiObject@@UAE@XZ	; CGdiObject::~CGdiObject
  0000b	8b 45 08	 mov	 eax, DWORD PTR ___flags$[ebp]
  0000e	a8 01		 test	 al, 1
  00010	74 1f		 je	 SHORT $LN9@scalar
  00012	a8 04		 test	 al, 4
  00014	75 10		 jne	 SHORT $LN3@scalar

; 112  : 	{ ::operator delete(p); }

  00016	56		 push	 esi
  00017	e8 00 00 00 00	 call	 ??3@YAXPAX@Z		; operator delete
  0001c	83 c4 04	 add	 esp, 4
  0001f	8b c6		 mov	 eax, esi
  00021	5e		 pop	 esi
  00022	5d		 pop	 ebp
  00023	c2 04 00	 ret	 4
$LN3@scalar:
  00026	6a 08		 push	 8
  00028	56		 push	 esi
  00029	e8 00 00 00 00	 call	 ?__global_delete@@YAXPAXI@Z ; __global_delete
  0002e	83 c4 08	 add	 esp, 8
$LN9@scalar:
  00031	8b c6		 mov	 eax, esi
  00033	5e		 pop	 esi
  00034	5d		 pop	 ebp
  00035	c2 04 00	 ret	 4
??_GCGdiObject@@UAEPAXI@Z ENDP				; CGdiObject::`scalar deleting destructor'
_TEXT	ENDS
; Function compile flags: /Ogtp
; File C:\Program Files (x86)\Microsoft Visual Studio\2019\Community\VC\Tools\MSVC\14.29.30133\atlmfc\include\afxwin1.inl
;	COMDAT ??1CGdiObject@@UAE@XZ
_TEXT	SEGMENT
_pException$2 = -540					; size = 4
_strMsg$3 = -536					; size = 4
_szErrorMessage$4 = -532				; size = 512
__$ArrayPad$ = -20					; size = 4
__$EHRec$ = -16						; size = 16
??1CGdiObject@@UAE@XZ PROC				; CGdiObject::~CGdiObject, COMDAT
; _this$ = ecx

; 74   : {

  00000	55		 push	 ebp
  00001	8b ec		 mov	 ebp, esp
  00003	6a ff		 push	 -1
  00005	68 00 00 00 00	 push	 __ehhandler$??1CGdiObject@@UAE@XZ
  0000a	64 a1 00 00 00
	00		 mov	 eax, DWORD PTR fs:0
  00010	50		 push	 eax
  00011	81 ec 10 02 00
	00		 sub	 esp, 528		; 00000210H
  00017	a1 00 00 00 00	 mov	 eax, DWORD PTR ___security_cookie
  0001c	33 c5		 xor	 eax, ebp
  0001e	89 45 ec	 mov	 DWORD PTR __$ArrayPad$[ebp], eax
  00021	53		 push	 ebx
  00022	56		 push	 esi
  00023	57		 push	 edi
  00024	50		 push	 eax
  00025	8d 45 f4	 lea	 eax, DWORD PTR __$EHRec$[ebp+4]
  00028	64 a3 00 00 00
	00		 mov	 DWORD PTR fs:0, eax
  0002e	89 65 f0	 mov	 DWORD PTR __$EHRec$[ebp], esp
  00031	c7 01 00 00 00
	00		 mov	 DWORD PTR [ecx], OFFSET ??_7CGdiObject@@6B@

; 75   : 	AFX_BEGIN_DESTRUCTOR

  00037	c7 45 fc 00 00
	00 00		 mov	 DWORD PTR __$EHRec$[ebp+12], 0

; 76   : 	DeleteObject();

  0003e	e8 00 00 00 00	 call	 ?DeleteObject@CGdiObject@@QAEHXZ ; CGdiObject::DeleteObject
$LN18@CGdiObject:

; 78   : }

  00043	8b 4d f4	 mov	 ecx, DWORD PTR __$EHRec$[ebp+4]
  00046	64 89 0d 00 00
	00 00		 mov	 DWORD PTR fs:0, ecx
  0004d	59		 pop	 ecx
  0004e	5f		 pop	 edi
  0004f	5e		 pop	 esi
  00050	5b		 pop	 ebx
  00051	8b 4d ec	 mov	 ecx, DWORD PTR __$ArrayPad$[ebp]
  00054	33 cd		 xor	 ecx, ebp
  00056	e8 00 00 00 00	 call	 @__security_check_cookie@4
  0005b	8b e5		 mov	 esp, ebp
  0005d	5d		 pop	 ebp
  0005e	c3		 ret	 0
__catch$??1CGdiObject@@UAE@XZ$0:

; 77   : 	AFX_END_DESTRUCTOR

  0005f	8d 8d e8 fd ff
	ff		 lea	 ecx, DWORD PTR _strMsg$3[ebp]
  00065	ff 15 00 00 00
	00		 call	 DWORD PTR __imp_??0?$CStringT@DV?$StrTraitMFC_DLL@DV?$ChTraitsCRT@D@ATL@@@@@ATL@@QAE@XZ
  0006b	8b b5 e4 fd ff
	ff		 mov	 esi, DWORD PTR _pException$2[ebp]
  00071	8d 8d ec fd ff
	ff		 lea	 ecx, DWORD PTR _szErrorMessage$4[ebp]
  00077	6a 00		 push	 0
  00079	68 00 02 00 00	 push	 512			; 00000200H
  0007e	51		 push	 ecx
  0007f	8b 06		 mov	 eax, DWORD PTR [esi]
  00081	8b ce		 mov	 ecx, esi
  00083	c6 45 fc 02	 mov	 BYTE PTR __$EHRec$[ebp+12], 2
  00087	ff 50 14	 call	 DWORD PTR [eax+20]
  0008a	85 c0		 test	 eax, eax
  0008c	74 2a		 je	 SHORT $LN9@CGdiObject
  0008e	8d 85 ec fd ff
	ff		 lea	 eax, DWORD PTR _szErrorMessage$4[ebp]
  00094	50		 push	 eax
  00095	6a 4d		 push	 77			; 0000004dH
  00097	68 00 00 00 00	 push	 OFFSET ??_C@_0HD@JJCHHHNK@C?3?2Program?5Files?5?$CIx86?$CJ?2Microsof@
  0009c	68 00 00 00 00	 push	 OFFSET ??_C@_0BP@OIEOKIDM@Exception?5thrown?5in?5destructor@
  000a1	8d 85 e8 fd ff
	ff		 lea	 eax, DWORD PTR _strMsg$3[ebp]
  000a7	68 00 00 00 00	 push	 OFFSET ??_C@_0BB@HBOOMJBF@?$CFTs?5?$CI?$CFTs?3?$CFd?$CJ?6?$CFTs@
  000ac	50		 push	 eax
  000ad	ff 15 00 00 00
	00		 call	 DWORD PTR __imp_?Format@?$CStringT@DV?$StrTraitMFC_DLL@DV?$ChTraitsCRT@D@ATL@@@@@ATL@@QAAXPBDZZ
  000b3	83 c4 18	 add	 esp, 24			; 00000018H
  000b6	eb 21		 jmp	 SHORT $LN10@CGdiObject
$LN9@CGdiObject:
  000b8	6a 4d		 push	 77			; 0000004dH
  000ba	68 00 00 00 00	 push	 OFFSET ??_C@_0HD@JJCHHHNK@C?3?2Program?5Files?5?$CIx86?$CJ?2Microsof@
  000bf	68 00 00 00 00	 push	 OFFSET ??_C@_0BP@OIEOKIDM@Exception?5thrown?5in?5destructor@
  000c4	8d 85 e8 fd ff
	ff		 lea	 eax, DWORD PTR _strMsg$3[ebp]
  000ca	68 00 00 00 00	 push	 OFFSET ??_C@_0N@OMEMOKLE@?$CFTs?5?$CI?$CFTs?3?$CFd?$CJ@
  000cf	50		 push	 eax
  000d0	ff 15 00 00 00
	00		 call	 DWORD PTR __imp_?Format@?$CStringT@DV?$StrTraitMFC_DLL@DV?$ChTraitsCRT@D@ATL@@@@@ATL@@QAAXPBDZZ
  000d6	83 c4 14	 add	 esp, 20			; 00000014H
$LN10@CGdiObject:
  000d9	6a 00		 push	 0
  000db	6a 00		 push	 0
  000dd	ff b5 e8 fd ff
	ff		 push	 DWORD PTR _strMsg$3[ebp]
  000e3	e8 00 00 00 00	 call	 ?AfxMessageBox@@YGHPBDII@Z ; AfxMessageBox
  000e8	8d 8d e8 fd ff
	ff		 lea	 ecx, DWORD PTR _strMsg$3[ebp]
  000ee	ff 15 00 00 00
	00		 call	 DWORD PTR __imp_??1?$CStringT@DV?$StrTraitMFC_DLL@DV?$ChTraitsCRT@D@ATL@@@@@ATL@@QAE@XZ
  000f4	8b 06		 mov	 eax, DWORD PTR [esi]
  000f6	8b ce		 mov	 ecx, esi
  000f8	6a 01		 push	 1
  000fa	ff 50 04	 call	 DWORD PTR [eax+4]
  000fd	b8 00 00 00 00	 mov	 eax, $LN18@CGdiObject
  00102	c3		 ret	 0
_TEXT	ENDS
;	COMDAT text$x
text$x	SEGMENT
__unwindfunclet$??1CGdiObject@@UAE@XZ$2:
  00000	8d 8d e8 fd ff
	ff		 lea	 ecx, DWORD PTR _strMsg$3[ebp]
  00006	ff 25 00 00 00
	00		 jmp	 DWORD PTR __imp_??1?$CStringT@DV?$StrTraitMFC_DLL@DV?$ChTraitsCRT@D@ATL@@@@@ATL@@QAE@XZ
  0000c	cc		 int	 3
  0000d	cc		 int	 3
  0000e	cc		 int	 3
  0000f	cc		 int	 3
  00010	cc		 int	 3
__ehhandler$??1CGdiObject@@UAE@XZ:
  00011	90		 npad	 1
  00012	90		 npad	 1
  00013	8b 54 24 08	 mov	 edx, DWORD PTR [esp+8]
  00017	8d 42 0c	 lea	 eax, DWORD PTR [edx+12]
  0001a	8b 8a e0 fd ff
	ff		 mov	 ecx, DWORD PTR [edx-544]
  00020	33 c8		 xor	 ecx, eax
  00022	e8 00 00 00 00	 call	 @__security_check_cookie@4
  00027	8b 4a f8	 mov	 ecx, DWORD PTR [edx-8]
  0002a	33 c8		 xor	 ecx, eax
  0002c	e8 00 00 00 00	 call	 @__security_check_cookie@4
  00031	b8 00 00 00 00	 mov	 eax, OFFSET __ehfuncinfo$??1CGdiObject@@UAE@XZ
  00036	e9 00 00 00 00	 jmp	 ___CxxFrameHandler3
text$x	ENDS
??1CGdiObject@@UAE@XZ ENDP				; CGdiObject::~CGdiObject
; Function compile flags: /Ogtp
; File C:\Program Files (x86)\Microsoft Visual Studio\2019\Community\VC\Tools\MSVC\14.29.30133\atlmfc\include\afx.inl
;	COMDAT ?Dump@CObject@@UBEXAAVCDumpContext@@@Z
_TEXT	SEGMENT
___formal$ = 8						; size = 4
?Dump@CObject@@UBEXAAVCDumpContext@@@Z PROC		; CObject::Dump, COMDAT
; _this$ = ecx

; 122  : 	{ /* no dumping in release builds */ }

  00000	c2 04 00	 ret	 4
?Dump@CObject@@UBEXAAVCDumpContext@@@Z ENDP		; CObject::Dump
_TEXT	ENDS
; Function compile flags: /Ogtp
; File C:\Program Files (x86)\Microsoft Visual Studio\2019\Community\VC\Tools\MSVC\14.29.30133\atlmfc\include\afx.inl
;	COMDAT ?AssertValid@CObject@@UBEXXZ
_TEXT	SEGMENT
?AssertValid@CObject@@UBEXXZ PROC			; CObject::AssertValid, COMDAT
; _this$ = ecx

; 120  : 	{ /* no asserts in release builds */ }

  00000	c2 00 00	 ret	 0
?AssertValid@CObject@@UBEXXZ ENDP			; CObject::AssertValid
_TEXT	ENDS
; Function compile flags: /Ogtp
; File C:\Program Files (x86)\Microsoft Visual Studio\2019\Community\VC\Tools\MSVC\14.29.30133\atlmfc\include\afx.inl
;	COMDAT ?Serialize@CObject@@UAEXAAVCArchive@@@Z
_TEXT	SEGMENT
___formal$ = 8						; size = 4
?Serialize@CObject@@UAEXAAVCArchive@@@Z PROC		; CObject::Serialize, COMDAT
; _this$ = ecx

; 106  : 	{ /* CObject does not serialize anything by default */ }

  00000	c2 04 00	 ret	 4
?Serialize@CObject@@UAEXAAVCArchive@@@Z ENDP		; CObject::Serialize
_TEXT	ENDS
; Function compile flags: /Ogtp
; File C:\Program Files (x86)\Microsoft Visual Studio\2019\Community\VC\Tools\MSVC\14.29.30133\atlmfc\include\afx.inl
;	COMDAT ??1CObject@@UAE@XZ
_TEXT	SEGMENT
??1CObject@@UAE@XZ PROC					; CObject::~CObject, COMDAT
; _this$ = ecx

; 104  : 	{ }

  00000	c2 00 00	 ret	 0
??1CObject@@UAE@XZ ENDP					; CObject::~CObject
_TEXT	ENDS
; Function compile flags: /Ogtp
; File D:\git\src\IBK\IBK_DRFN\ProjSrc\SrcChartEx\ChartAddIn\ChartAnalysisToolAddIn\AnalysisTool\AutoTrendDrawer.cpp
;	COMDAT ?__empty_global_delete@@YAXPAXI@Z
_TEXT	SEGMENT
___formal$ = 8						; size = 4
___formal$ = 12						; size = 4
?__empty_global_delete@@YAXPAXI@Z PROC			; __empty_global_delete, COMDAT

  00000	c2 00 00	 ret	 0
?__empty_global_delete@@YAXPAXI@Z ENDP			; __empty_global_delete
_TEXT	ENDS
; Function compile flags: /Ogtp
; File D:\git\src\IBK\IBK_DRFN\ProjSrc\SrcChartEx\ChartAddIn\ChartAnalysisToolAddIn\AnalysisTool\AutoTrendDrawer.cpp
;	COMDAT ?__empty_global_delete@@YAXPAX@Z
_TEXT	SEGMENT
___formal$ = 8						; size = 4
?__empty_global_delete@@YAXPAX@Z PROC			; __empty_global_delete, COMDAT

  00000	c2 00 00	 ret	 0
?__empty_global_delete@@YAXPAX@Z ENDP			; __empty_global_delete
_TEXT	ENDS
END
