; Listing generated by Microsoft (R) Optimizing Compiler Version 19.29.30145.0 

	TITLE	D:\git\src\IBK\IBK_DRFN\#DRfn-CS\_Obj\AnalysisTool\AutoTrendData.obj
	.686P
	.XMM
	include listing.inc
	.model	flat

INCLUDELIB MSVCRT
INCLUDELIB OLDNAMES

PUBLIC	?__empty_global_delete@@YAXPAX@Z		; __empty_global_delete
PUBLIC	?__empty_global_delete@@YAXPAXI@Z		; __empty_global_delete
PUBLIC	??1CObject@@UAE@XZ				; CObject::~CObject
PUBLIC	?Serialize@CObject@@UAEXAAVCArchive@@@Z		; CObject::Serialize
PUBLIC	?AssertValid@CObject@@UBEXXZ			; CObject::AssertValid
PUBLIC	?Dump@CObject@@UBEXAAVCDumpContext@@@Z		; CObject::Dump
PUBLIC	??1ILPCSTR133101@@QAE@XZ			; ILPCSTR133101::~ILPCSTR133101
PUBLIC	??4CAutoTrendPoint@@QAEAAV0@ABV0@@Z		; CAutoTrendPoint::operator=
PUBLIC	??0CAutoTrendPoint@@QAE@XZ			; CAutoTrendPoint::CAutoTrendPoint
PUBLIC	??0CAutoTrendPoint@@QAE@HABN@Z			; CAutoTrendPoint::CAutoTrendPoint
PUBLIC	?SetIndex@CAutoTrendPoint@@QAEXH@Z		; CAutoTrendPoint::SetIndex
PUBLIC	?SetPrice@CAutoTrendPoint@@QAEXABN@Z		; CAutoTrendPoint::SetPrice
PUBLIC	?GetIndex@CAutoTrendPoint@@QBEHXZ		; CAutoTrendPoint::GetIndex
PUBLIC	?GetPrice@CAutoTrendPoint@@QBENXZ		; CAutoTrendPoint::GetPrice
PUBLIC	??4CAutoTrendDrawingCalculatorData@@QAEAAV0@ABV0@@Z ; CAutoTrendDrawingCalculatorData::operator=
PUBLIC	??0CAutoTrendDrawingCalculatorData@@QAE@PAUIChartManager133101@@@Z ; CAutoTrendDrawingCalculatorData::CAutoTrendDrawingCalculatorData
PUBLIC	?Initialize@CAutoTrendDrawingCalculatorData@@QAEXPAUIChartManager133101@@@Z ; CAutoTrendDrawingCalculatorData::Initialize
PUBLIC	?SetNoFrameGraphRegion@CAutoTrendDrawingCalculatorData@@QAEXABVCRect@@@Z ; CAutoTrendDrawingCalculatorData::SetNoFrameGraphRegion
PUBLIC	?SetPacketList@CAutoTrendDrawingCalculatorData@@QAEXPAUIPacketManager133101@@ABV?$CStringT@DV?$StrTraitMFC_DLL@DV?$ChTraitsCRT@D@ATL@@@@@ATL@@@Z ; CAutoTrendDrawingCalculatorData::SetPacketList
PUBLIC	?SetCoordinateCalculatorData@CAutoTrendDrawingCalculatorData@@QAEXABVCCoordinateCalculatorData@@@Z ; CAutoTrendDrawingCalculatorData::SetCoordinateCalculatorData
PUBLIC	?GetNoFrameGraphRegion@CAutoTrendDrawingCalculatorData@@QBE?AVCRect@@XZ ; CAutoTrendDrawingCalculatorData::GetNoFrameGraphRegion
PUBLIC	?GetPacketList@CAutoTrendDrawingCalculatorData@@QBEABV?$CList@PAUIPacket133101@@PAU1@@@XZ ; CAutoTrendDrawingCalculatorData::GetPacketList
PUBLIC	?GetPacketList@CAutoTrendDrawingCalculatorData@@QAEAAV?$CList@PAUIPacket133101@@PAU1@@@XZ ; CAutoTrendDrawingCalculatorData::GetPacketList
PUBLIC	?GetPacket@CAutoTrendDrawingCalculatorData@@QBEPAUIPacket133101@@H@Z ; CAutoTrendDrawingCalculatorData::GetPacket
PUBLIC	?GetCoordinateCalculatorData@CAutoTrendDrawingCalculatorData@@QBE?AVCCoordinateCalculatorData@@XZ ; CAutoTrendDrawingCalculatorData::GetCoordinateCalculatorData
PUBLIC	?GetCoordinateCalculatorData@CAutoTrendDrawingCalculatorData@@QAEAAVCCoordinateCalculatorData@@XZ ; CAutoTrendDrawingCalculatorData::GetCoordinateCalculatorData
PUBLIC	?DoesCalculator@CAutoTrendDrawingCalculatorData@@QBE_NABVCPoint@@@Z ; CAutoTrendDrawingCalculatorData::DoesCalculator
PUBLIC	?ApplyLog@CAutoTrendDrawingCalculatorData@@QBENABN@Z ; CAutoTrendDrawingCalculatorData::ApplyLog
PUBLIC	?ApplyExp@CAutoTrendDrawingCalculatorData@@QBENABN@Z ; CAutoTrendDrawingCalculatorData::ApplyExp
PUBLIC	??0?$CList@PAUIPacket133101@@PAU1@@@QAE@H@Z	; CList<IPacket133101 *,IPacket133101 *>::CList<IPacket133101 *,IPacket133101 *>
PUBLIC	?RemoveHead@?$CList@PAUIPacket133101@@PAU1@@@QAEPAUIPacket133101@@XZ ; CList<IPacket133101 *,IPacket133101 *>::RemoveHead
PUBLIC	?AddTail@?$CList@PAUIPacket133101@@PAU1@@@QAEPAU__POSITION@@PAUIPacket133101@@@Z ; CList<IPacket133101 *,IPacket133101 *>::AddTail
PUBLIC	?RemoveAll@?$CList@PAUIPacket133101@@PAU1@@@QAEXXZ ; CList<IPacket133101 *,IPacket133101 *>::RemoveAll
PUBLIC	?FindIndex@?$CList@PAUIPacket133101@@PAU1@@@QBEPAU__POSITION@@H@Z ; CList<IPacket133101 *,IPacket133101 *>::FindIndex
PUBLIC	?NewNode@?$CList@PAUIPacket133101@@PAU1@@@IAEPAUCNode@1@PAU21@0@Z ; CList<IPacket133101 *,IPacket133101 *>::NewNode
PUBLIC	?FreeNode@?$CList@PAUIPacket133101@@PAU1@@@IAEXPAUCNode@1@@Z ; CList<IPacket133101 *,IPacket133101 *>::FreeNode
PUBLIC	??1?$CList@PAUIPacket133101@@PAU1@@@UAE@XZ	; CList<IPacket133101 *,IPacket133101 *>::~CList<IPacket133101 *,IPacket133101 *>
PUBLIC	?Serialize@?$CList@PAUIPacket133101@@PAU1@@@UAEXAAVCArchive@@@Z ; CList<IPacket133101 *,IPacket133101 *>::Serialize
PUBLIC	??_G?$CList@PAUIPacket133101@@PAU1@@@UAEPAXI@Z	; CList<IPacket133101 *,IPacket133101 *>::`scalar deleting destructor'
PUBLIC	?GetDrawingPoints@CAutoTrendDrawingCalculator@@QBE_NABVCAutoTrendDrawingCalculatorData@@HAAVCPoint@@111@Z ; CAutoTrendDrawingCalculator::GetDrawingPoints
PUBLIC	?GetText@CAutoTrendDrawingCalculator@@QBE?AV?$CStringT@DV?$StrTraitMFC_DLL@DV?$ChTraitsCRT@D@ATL@@@@@ATL@@PAUIPacket133101@@HH@Z ; CAutoTrendDrawingCalculator::GetText
PUBLIC	?DoesRelativePoints@CAutoTrendDrawingCalculator@@ABE_NPAUIPacket133101@@0@Z ; CAutoTrendDrawingCalculator::DoesRelativePoints
PUBLIC	?DoesExistenceText@CAutoTrendDrawingCalculator@@ABE_NPAUIPacket133101@@HH@Z ; CAutoTrendDrawingCalculator::DoesExistenceText
PUBLIC	?GetDrawingPoints@CAutoTrendDrawingCalculator@@ABE_NABVCAutoTrendDrawingCalculatorData@@HHAAVCPoint@@1@Z ; CAutoTrendDrawingCalculator::GetDrawingPoints
PUBLIC	?GetRelativePoints@CAutoTrendDrawingCalculator@@ABE_NPAUIPacket133101@@0HAAVCAutoTrendPoint@@1@Z ; CAutoTrendDrawingCalculator::GetRelativePoints
PUBLIC	?GetAbsolutePoints@CAutoTrendDrawingCalculator@@ABE_NABVCCoordinateCalculatorData@@ABVCAutoTrendPoint@@1AAVCPoint@@2@Z ; CAutoTrendDrawingCalculator::GetAbsolutePoints
PUBLIC	?GetComparisonData@CAutoTrendDrawingCalculator@@ABEHPAUIPacket133101@@@Z ; CAutoTrendDrawingCalculator::GetComparisonData
PUBLIC	??$SerializeElements@PAUIPacket133101@@@@YGXAAVCArchive@@PAPAUIPacket133101@@H@Z ; SerializeElements<IPacket133101 *>
PUBLIC	??_C@_00CNPNBAHC@@				; `string'
PUBLIC	??_R0?AVCObject@@@8				; CObject `RTTI Type Descriptor'
PUBLIC	??_R3CObject@@8					; CObject::`RTTI Class Hierarchy Descriptor'
PUBLIC	??_R2CObject@@8					; CObject::`RTTI Base Class Array'
PUBLIC	??_R1A@?0A@EA@CObject@@8			; CObject::`RTTI Base Class Descriptor at (0,-1,0,64)'
PUBLIC	??_7?$CList@PAUIPacket133101@@PAU1@@@6B@	; CList<IPacket133101 *,IPacket133101 *>::`vftable'
PUBLIC	??_C@_01IHBHIGKO@?0@				; `string'
PUBLIC	??_R4?$CList@PAUIPacket133101@@PAU1@@@6B@	; CList<IPacket133101 *,IPacket133101 *>::`RTTI Complete Object Locator'
PUBLIC	??_R0?AV?$CList@PAUIPacket133101@@PAU1@@@@8	; CList<IPacket133101 *,IPacket133101 *> `RTTI Type Descriptor'
PUBLIC	??_R3?$CList@PAUIPacket133101@@PAU1@@@8		; CList<IPacket133101 *,IPacket133101 *>::`RTTI Class Hierarchy Descriptor'
PUBLIC	??_R2?$CList@PAUIPacket133101@@PAU1@@@8		; CList<IPacket133101 *,IPacket133101 *>::`RTTI Base Class Array'
PUBLIC	??_R1A@?0A@EA@?$CList@PAUIPacket133101@@PAU1@@@8 ; CList<IPacket133101 *,IPacket133101 *>::`RTTI Base Class Descriptor at (0,-1,0,64)'
EXTRN	??3@YAXPAX@Z:PROC				; operator delete
EXTRN	?__global_delete@@YAXPAXI@Z:PROC		; __global_delete
EXTRN	___std_terminate:PROC
EXTRN	?AfxThrowInvalidArgException@@YGXXZ:PROC	; AfxThrowInvalidArgException
EXTRN	?AfxThrowArchiveException@@YGXHPBD@Z:PROC	; AfxThrowArchiveException
EXTRN	?GetRuntimeClass@CObject@@UBEPAUCRuntimeClass@@XZ:PROC ; CObject::GetRuntimeClass
EXTRN	__imp_??A?$CSimpleStringT@D$00@ATL@@QBEDH@Z:PROC
EXTRN	__imp_??0?$CStringT@DV?$StrTraitMFC_DLL@DV?$ChTraitsCRT@D@ATL@@@@@ATL@@QAE@ABV01@@Z:PROC
EXTRN	__imp_??0?$CStringT@DV?$StrTraitMFC_DLL@DV?$ChTraitsCRT@D@ATL@@@@@ATL@@QAE@PBD@Z:PROC
EXTRN	__imp_??1?$CStringT@DV?$StrTraitMFC_DLL@DV?$ChTraitsCRT@D@ATL@@@@@ATL@@QAE@XZ:PROC
EXTRN	__imp_??Y?$CStringT@DV?$StrTraitMFC_DLL@DV?$ChTraitsCRT@D@ATL@@@@@ATL@@QAEAAV01@D@Z:PROC
EXTRN	__imp_?Compare@?$CStringT@DV?$StrTraitMFC_DLL@DV?$ChTraitsCRT@D@ATL@@@@@ATL@@QBEHPBD@Z:PROC
EXTRN	__imp_?Right@?$CStringT@DV?$StrTraitMFC_DLL@DV?$ChTraitsCRT@D@ATL@@@@@ATL@@QBE?AV12@H@Z:PROC
EXTRN	?Read@CArchive@@QAEIPAXI@Z:PROC			; CArchive::Read
EXTRN	?Write@CArchive@@QAEXPBXI@Z:PROC		; CArchive::Write
EXTRN	?ReadCount@CArchive@@QAEKXZ:PROC		; CArchive::ReadCount
EXTRN	?WriteCount@CArchive@@QAEXK@Z:PROC		; CArchive::WriteCount
EXTRN	?Create@CPlex@@SGPAU1@AAPAU1@II@Z:PROC		; CPlex::Create
EXTRN	?FreeDataChain@CPlex@@QAEXXZ:PROC		; CPlex::FreeDataChain
EXTRN	??4CCoordinateCalculatorData@@QAEAAV0@ABV0@@Z:PROC ; CCoordinateCalculatorData::operator=
EXTRN	??0CCoordinateCalculatorData@@QAE@ABV0@@Z:PROC	; CCoordinateCalculatorData::CCoordinateCalculatorData
EXTRN	??0CCoordinateCalculatorData@@QAE@PAUIChartManager133101@@@Z:PROC ; CCoordinateCalculatorData::CCoordinateCalculatorData
EXTRN	??1CCoordinateCalculatorData@@QAE@XZ:PROC	; CCoordinateCalculatorData::~CCoordinateCalculatorData
EXTRN	?GetRegion@CCoordinateCalculatorData@@QBE?AVCRect@@XZ:PROC ; CCoordinateCalculatorData::GetRegion
EXTRN	?GetDisplayDataStart@CCoordinateCalculatorData@@QBEHXZ:PROC ; CCoordinateCalculatorData::GetDisplayDataStart
EXTRN	?GetDisplayDataEnd@CCoordinateCalculatorData@@QBEHXZ:PROC ; CCoordinateCalculatorData::GetDisplayDataEnd
EXTRN	?GetDisplayDataMin_ScaleType@CCoordinateCalculatorData@@QBENXZ:PROC ; CCoordinateCalculatorData::GetDisplayDataMin_ScaleType
EXTRN	?GetDisplayDataMax_ScaleType@CCoordinateCalculatorData@@QBENXZ:PROC ; CCoordinateCalculatorData::GetDisplayDataMax_ScaleType
EXTRN	?GetPacket_X@CCoordinateCalculatorData@@QBEPAUIPacket133101@@XZ:PROC ; CCoordinateCalculatorData::GetPacket_X
EXTRN	?DoesCalculator@CCoordinateCalculatorData@@QBE_NABVCPoint@@@Z:PROC ; CCoordinateCalculatorData::DoesCalculator
EXTRN	?ApplyLog@CCoordinateCalculatorData@@QBENABN@Z:PROC ; CCoordinateCalculatorData::ApplyLog
EXTRN	?ApplyExp@CCoordinateCalculatorData@@QBENABN@Z:PROC ; CCoordinateCalculatorData::ApplyExp
EXTRN	??_E?$CList@PAUIPacket133101@@PAU1@@@UAEPAXI@Z:PROC ; CList<IPacket133101 *,IPacket133101 *>::`vector deleting destructor'
EXTRN	?GetMidToTrimDataIndex@CDataConversion@@SA?AV?$CStringT@DV?$StrTraitMFC_DLL@DV?$ChTraitsCRT@D@ATL@@@@@ATL@@ABV23@0H_N@Z:PROC ; CDataConversion::GetMidToTrimDataIndex
EXTRN	?GetStringDataCount@CDataConversion@@SAHABV?$CStringT@DV?$StrTraitMFC_DLL@DV?$ChTraitsCRT@D@ATL@@@@@ATL@@0@Z:PROC ; CDataConversion::GetStringDataCount
EXTRN	?RelativeToAbsolute@CDataConversion@@SA?AVCPoint@@ABVCRect@@HHABN1H1@Z:PROC ; CDataConversion::RelativeToAbsolute
EXTRN	@__security_check_cookie@4:PROC
EXTRN	___CxxFrameHandler3:PROC
EXTRN	??_7type_info@@6B@:QWORD			; type_info::`vftable'
EXTRN	?g_iMetaTable@@3VIMetaTable@@A:BYTE		; g_iMetaTable
EXTRN	___security_cookie:DWORD
EXTRN	__fltused:DWORD
;	COMDAT ??_R1A@?0A@EA@?$CList@PAUIPacket133101@@PAU1@@@8
rdata$r	SEGMENT
??_R1A@?0A@EA@?$CList@PAUIPacket133101@@PAU1@@@8 DD FLAT:??_R0?AV?$CList@PAUIPacket133101@@PAU1@@@@8 ; CList<IPacket133101 *,IPacket133101 *>::`RTTI Base Class Descriptor at (0,-1,0,64)'
	DD	01H
	DD	00H
	DD	0ffffffffH
	DD	00H
	DD	040H
	DD	FLAT:??_R3?$CList@PAUIPacket133101@@PAU1@@@8
rdata$r	ENDS
;	COMDAT ??_R2?$CList@PAUIPacket133101@@PAU1@@@8
rdata$r	SEGMENT
??_R2?$CList@PAUIPacket133101@@PAU1@@@8 DD FLAT:??_R1A@?0A@EA@?$CList@PAUIPacket133101@@PAU1@@@8 ; CList<IPacket133101 *,IPacket133101 *>::`RTTI Base Class Array'
	DD	FLAT:??_R1A@?0A@EA@CObject@@8
rdata$r	ENDS
;	COMDAT ??_R3?$CList@PAUIPacket133101@@PAU1@@@8
rdata$r	SEGMENT
??_R3?$CList@PAUIPacket133101@@PAU1@@@8 DD 00H		; CList<IPacket133101 *,IPacket133101 *>::`RTTI Class Hierarchy Descriptor'
	DD	00H
	DD	02H
	DD	FLAT:??_R2?$CList@PAUIPacket133101@@PAU1@@@8
rdata$r	ENDS
;	COMDAT ??_R0?AV?$CList@PAUIPacket133101@@PAU1@@@@8
data$rs	SEGMENT
??_R0?AV?$CList@PAUIPacket133101@@PAU1@@@@8 DD FLAT:??_7type_info@@6B@ ; CList<IPacket133101 *,IPacket133101 *> `RTTI Type Descriptor'
	DD	00H
	DB	'.?AV?$CList@PAUIPacket133101@@PAU1@@@', 00H
data$rs	ENDS
;	COMDAT ??_R4?$CList@PAUIPacket133101@@PAU1@@@6B@
rdata$r	SEGMENT
??_R4?$CList@PAUIPacket133101@@PAU1@@@6B@ DD 00H	; CList<IPacket133101 *,IPacket133101 *>::`RTTI Complete Object Locator'
	DD	00H
	DD	00H
	DD	FLAT:??_R0?AV?$CList@PAUIPacket133101@@PAU1@@@@8
	DD	FLAT:??_R3?$CList@PAUIPacket133101@@PAU1@@@8
rdata$r	ENDS
;	COMDAT ??_C@_01IHBHIGKO@?0@
CONST	SEGMENT
??_C@_01IHBHIGKO@?0@ DB ',', 00H			; `string'
CONST	ENDS
;	COMDAT ??_7?$CList@PAUIPacket133101@@PAU1@@@6B@
CONST	SEGMENT
??_7?$CList@PAUIPacket133101@@PAU1@@@6B@ DD FLAT:??_R4?$CList@PAUIPacket133101@@PAU1@@@6B@ ; CList<IPacket133101 *,IPacket133101 *>::`vftable'
	DD	FLAT:?GetRuntimeClass@CObject@@UBEPAUCRuntimeClass@@XZ
	DD	FLAT:??_E?$CList@PAUIPacket133101@@PAU1@@@UAEPAXI@Z
	DD	FLAT:?Serialize@?$CList@PAUIPacket133101@@PAU1@@@UAEXAAVCArchive@@@Z
	DD	FLAT:?AssertValid@CObject@@UBEXXZ
	DD	FLAT:?Dump@CObject@@UBEXAAVCDumpContext@@@Z
CONST	ENDS
;	COMDAT ??_R1A@?0A@EA@CObject@@8
rdata$r	SEGMENT
??_R1A@?0A@EA@CObject@@8 DD FLAT:??_R0?AVCObject@@@8	; CObject::`RTTI Base Class Descriptor at (0,-1,0,64)'
	DD	00H
	DD	00H
	DD	0ffffffffH
	DD	00H
	DD	040H
	DD	FLAT:??_R3CObject@@8
rdata$r	ENDS
;	COMDAT ??_R2CObject@@8
rdata$r	SEGMENT
??_R2CObject@@8 DD FLAT:??_R1A@?0A@EA@CObject@@8	; CObject::`RTTI Base Class Array'
rdata$r	ENDS
;	COMDAT ??_R3CObject@@8
rdata$r	SEGMENT
??_R3CObject@@8 DD 00H					; CObject::`RTTI Class Hierarchy Descriptor'
	DD	00H
	DD	01H
	DD	FLAT:??_R2CObject@@8
rdata$r	ENDS
;	COMDAT ??_R0?AVCObject@@@8
data$rs	SEGMENT
??_R0?AVCObject@@@8 DD FLAT:??_7type_info@@6B@		; CObject `RTTI Type Descriptor'
	DD	00H
	DB	'.?AVCObject@@', 00H
data$rs	ENDS
;	COMDAT ??_C@_00CNPNBAHC@@
CONST	SEGMENT
??_C@_00CNPNBAHC@@ DB 00H				; `string'
CONST	ENDS
;	COMDAT xdata$x
xdata$x	SEGMENT
__unwindtable$?GetComparisonData@CAutoTrendDrawingCalculator@@ABEHPAUIPacket133101@@@Z DD 0ffffffffH
	DD	FLAT:__unwindfunclet$?GetComparisonData@CAutoTrendDrawingCalculator@@ABEHPAUIPacket133101@@@Z$0
	DD	00H
	DD	FLAT:__unwindfunclet$?GetComparisonData@CAutoTrendDrawingCalculator@@ABEHPAUIPacket133101@@@Z$1
	DD	0ffffffffH
	DD	FLAT:___std_terminate
__ehfuncinfo$?GetComparisonData@CAutoTrendDrawingCalculator@@ABEHPAUIPacket133101@@@Z DD 019930522H
	DD	03H
	DD	FLAT:__unwindtable$?GetComparisonData@CAutoTrendDrawingCalculator@@ABEHPAUIPacket133101@@@Z
	DD	2 DUP(00H)
	DD	2 DUP(00H)
	DD	00H
	DD	01H
xdata$x	ENDS
;	COMDAT xdata$x
xdata$x	SEGMENT
__ehfuncinfo$?GetRelativePoints@CAutoTrendDrawingCalculator@@ABE_NPAUIPacket133101@@0HAAVCAutoTrendPoint@@1@Z DD 019930522H
	DD	05H
	DD	FLAT:__unwindtable$?GetRelativePoints@CAutoTrendDrawingCalculator@@ABE_NPAUIPacket133101@@0HAAVCAutoTrendPoint@@1@Z
	DD	2 DUP(00H)
	DD	2 DUP(00H)
	DD	00H
	DD	01H
__unwindtable$?GetRelativePoints@CAutoTrendDrawingCalculator@@ABE_NPAUIPacket133101@@0HAAVCAutoTrendPoint@@1@Z DD 0ffffffffH
	DD	FLAT:__unwindfunclet$?GetRelativePoints@CAutoTrendDrawingCalculator@@ABE_NPAUIPacket133101@@0HAAVCAutoTrendPoint@@1@Z$0
	DD	00H
	DD	FLAT:__unwindfunclet$?GetRelativePoints@CAutoTrendDrawingCalculator@@ABE_NPAUIPacket133101@@0HAAVCAutoTrendPoint@@1@Z$1
	DD	0ffffffffH
	DD	FLAT:___std_terminate
	DD	0ffffffffH
	DD	FLAT:___std_terminate
	DD	0ffffffffH
	DD	FLAT:___std_terminate
xdata$x	ENDS
;	COMDAT xdata$x
xdata$x	SEGMENT
__unwindtable$?GetDrawingPoints@CAutoTrendDrawingCalculator@@ABE_NABVCAutoTrendDrawingCalculatorData@@HHAAVCPoint@@1@Z DD 0ffffffffH
	DD	FLAT:__unwindfunclet$?GetDrawingPoints@CAutoTrendDrawingCalculator@@ABE_NABVCAutoTrendDrawingCalculatorData@@HHAAVCPoint@@1@Z$0
__ehfuncinfo$?GetDrawingPoints@CAutoTrendDrawingCalculator@@ABE_NABVCAutoTrendDrawingCalculatorData@@HHAAVCPoint@@1@Z DD 019930522H
	DD	01H
	DD	FLAT:__unwindtable$?GetDrawingPoints@CAutoTrendDrawingCalculator@@ABE_NABVCAutoTrendDrawingCalculatorData@@HHAAVCPoint@@1@Z
	DD	2 DUP(00H)
	DD	2 DUP(00H)
	DD	00H
	DD	01H
xdata$x	ENDS
;	COMDAT xdata$x
xdata$x	SEGMENT
__unwindtable$?GetText@CAutoTrendDrawingCalculator@@QBE?AV?$CStringT@DV?$StrTraitMFC_DLL@DV?$ChTraitsCRT@D@ATL@@@@@ATL@@PAUIPacket133101@@HH@Z DD 0ffffffffH
	DD	FLAT:__unwindfunclet$?GetText@CAutoTrendDrawingCalculator@@QBE?AV?$CStringT@DV?$StrTraitMFC_DLL@DV?$ChTraitsCRT@D@ATL@@@@@ATL@@PAUIPacket133101@@HH@Z$1
	DD	0ffffffffH
	DD	FLAT:___std_terminate
	DD	0ffffffffH
	DD	FLAT:___std_terminate
__ehfuncinfo$?GetText@CAutoTrendDrawingCalculator@@QBE?AV?$CStringT@DV?$StrTraitMFC_DLL@DV?$ChTraitsCRT@D@ATL@@@@@ATL@@PAUIPacket133101@@HH@Z DD 019930522H
	DD	03H
	DD	FLAT:__unwindtable$?GetText@CAutoTrendDrawingCalculator@@QBE?AV?$CStringT@DV?$StrTraitMFC_DLL@DV?$ChTraitsCRT@D@ATL@@@@@ATL@@PAUIPacket133101@@HH@Z
	DD	2 DUP(00H)
	DD	2 DUP(00H)
	DD	00H
	DD	01H
xdata$x	ENDS
;	COMDAT xdata$x
xdata$x	SEGMENT
__unwindtable$??_G?$CList@PAUIPacket133101@@PAU1@@@UAEPAXI@Z DD 0ffffffffH
	DD	FLAT:___std_terminate
__ehfuncinfo$??_G?$CList@PAUIPacket133101@@PAU1@@@UAEPAXI@Z DD 019930522H
	DD	01H
	DD	FLAT:__unwindtable$??_G?$CList@PAUIPacket133101@@PAU1@@@UAEPAXI@Z
	DD	2 DUP(00H)
	DD	2 DUP(00H)
	DD	00H
	DD	05H
xdata$x	ENDS
;	COMDAT xdata$x
xdata$x	SEGMENT
__ehfuncinfo$??1?$CList@PAUIPacket133101@@PAU1@@@UAE@XZ DD 019930522H
	DD	00H
	DD	00H
	DD	2 DUP(00H)
	DD	2 DUP(00H)
	DD	00H
	DD	05H
xdata$x	ENDS
;	COMDAT xdata$x
xdata$x	SEGMENT
__ehfuncinfo$?SetPacketList@CAutoTrendDrawingCalculatorData@@QAEXPAUIPacketManager133101@@ABV?$CStringT@DV?$StrTraitMFC_DLL@DV?$ChTraitsCRT@D@ATL@@@@@ATL@@@Z DD 019930522H
	DD	05H
	DD	FLAT:__unwindtable$?SetPacketList@CAutoTrendDrawingCalculatorData@@QAEXPAUIPacketManager133101@@ABV?$CStringT@DV?$StrTraitMFC_DLL@DV?$ChTraitsCRT@D@ATL@@@@@ATL@@@Z
	DD	2 DUP(00H)
	DD	2 DUP(00H)
	DD	00H
	DD	01H
__unwindtable$?SetPacketList@CAutoTrendDrawingCalculatorData@@QAEXPAUIPacketManager133101@@ABV?$CStringT@DV?$StrTraitMFC_DLL@DV?$ChTraitsCRT@D@ATL@@@@@ATL@@@Z DD 0ffffffffH
	DD	FLAT:__unwindfunclet$?SetPacketList@CAutoTrendDrawingCalculatorData@@QAEXPAUIPacketManager133101@@ABV?$CStringT@DV?$StrTraitMFC_DLL@DV?$ChTraitsCRT@D@ATL@@@@@ATL@@@Z$0
	DD	00H
	DD	FLAT:__unwindfunclet$?SetPacketList@CAutoTrendDrawingCalculatorData@@QAEXPAUIPacketManager133101@@ABV?$CStringT@DV?$StrTraitMFC_DLL@DV?$ChTraitsCRT@D@ATL@@@@@ATL@@@Z$2
	DD	00H
	DD	FLAT:__unwindfunclet$?SetPacketList@CAutoTrendDrawingCalculatorData@@QAEXPAUIPacketManager133101@@ABV?$CStringT@DV?$StrTraitMFC_DLL@DV?$ChTraitsCRT@D@ATL@@@@@ATL@@@Z$3
	DD	02H
	DD	FLAT:__unwindfunclet$?SetPacketList@CAutoTrendDrawingCalculatorData@@QAEXPAUIPacketManager133101@@ABV?$CStringT@DV?$StrTraitMFC_DLL@DV?$ChTraitsCRT@D@ATL@@@@@ATL@@@Z$4
	DD	00H
	DD	FLAT:__unwindfunclet$?SetPacketList@CAutoTrendDrawingCalculatorData@@QAEXPAUIPacketManager133101@@ABV?$CStringT@DV?$StrTraitMFC_DLL@DV?$ChTraitsCRT@D@ATL@@@@@ATL@@@Z$4
xdata$x	ENDS
;	COMDAT xdata$x
xdata$x	SEGMENT
__unwindtable$?Initialize@CAutoTrendDrawingCalculatorData@@QAEXPAUIChartManager133101@@@Z DD 0ffffffffH
	DD	FLAT:__unwindfunclet$?Initialize@CAutoTrendDrawingCalculatorData@@QAEXPAUIChartManager133101@@@Z$0
__ehfuncinfo$?Initialize@CAutoTrendDrawingCalculatorData@@QAEXPAUIChartManager133101@@@Z DD 019930522H
	DD	01H
	DD	FLAT:__unwindtable$?Initialize@CAutoTrendDrawingCalculatorData@@QAEXPAUIChartManager133101@@@Z
	DD	2 DUP(00H)
	DD	2 DUP(00H)
	DD	00H
	DD	01H
xdata$x	ENDS
;	COMDAT xdata$x
xdata$x	SEGMENT
__unwindtable$??0CAutoTrendDrawingCalculatorData@@QAE@PAUIChartManager133101@@@Z DD 0ffffffffH
	DD	FLAT:__unwindfunclet$??0CAutoTrendDrawingCalculatorData@@QAE@PAUIChartManager133101@@@Z$0
__ehfuncinfo$??0CAutoTrendDrawingCalculatorData@@QAE@PAUIChartManager133101@@@Z DD 019930522H
	DD	01H
	DD	FLAT:__unwindtable$??0CAutoTrendDrawingCalculatorData@@QAE@PAUIChartManager133101@@@Z
	DD	2 DUP(00H)
	DD	2 DUP(00H)
	DD	00H
	DD	01H
xdata$x	ENDS
;	COMDAT xdata$x
xdata$x	SEGMENT
__unwindtable$??4CAutoTrendDrawingCalculatorData@@QAEAAV0@ABV0@@Z DD 0ffffffffH
	DD	FLAT:__unwindfunclet$??4CAutoTrendDrawingCalculatorData@@QAEAAV0@ABV0@@Z$0
__ehfuncinfo$??4CAutoTrendDrawingCalculatorData@@QAEAAV0@ABV0@@Z DD 019930522H
	DD	01H
	DD	FLAT:__unwindtable$??4CAutoTrendDrawingCalculatorData@@QAEAAV0@ABV0@@Z
	DD	2 DUP(00H)
	DD	2 DUP(00H)
	DD	00H
	DD	01H
xdata$x	ENDS
;	COMDAT xdata$x
xdata$x	SEGMENT
__ehfuncinfo$??1ILPCSTR133101@@QAE@XZ DD 019930522H
	DD	00H
	DD	00H
	DD	2 DUP(00H)
	DD	2 DUP(00H)
	DD	00H
	DD	05H
xdata$x	ENDS
; Function compile flags: /Ogtp
; File C:\Program Files (x86)\Microsoft Visual Studio\2019\Community\VC\Tools\MSVC\14.29.30133\atlmfc\include\afxtempl.h
; File C:\Program Files (x86)\Microsoft Visual Studio\2019\Community\VC\Tools\MSVC\14.29.30133\atlmfc\include\afx.inl
; File C:\Program Files (x86)\Microsoft Visual Studio\2019\Community\VC\Tools\MSVC\14.29.30133\atlmfc\include\afxtempl.h
; File C:\Program Files (x86)\Microsoft Visual Studio\2019\Community\VC\Tools\MSVC\14.29.30133\atlmfc\include\afx.inl
; File C:\Program Files (x86)\Microsoft Visual Studio\2019\Community\VC\Tools\MSVC\14.29.30133\atlmfc\include\afxtempl.h
; File C:\Program Files (x86)\Microsoft Visual Studio\2019\Community\VC\Tools\MSVC\14.29.30133\atlmfc\include\afx.inl
; File C:\Program Files (x86)\Microsoft Visual Studio\2019\Community\VC\Tools\MSVC\14.29.30133\atlmfc\include\afxtempl.h
;	COMDAT ??$SerializeElements@PAUIPacket133101@@@@YGXAAVCArchive@@PAPAUIPacket133101@@H@Z
_TEXT	SEGMENT
_ar$ = 8						; size = 4
_pElements$ = 12					; size = 4
_nCount$ = 16						; size = 4
??$SerializeElements@PAUIPacket133101@@@@YGXAAVCArchive@@PAPAUIPacket133101@@H@Z PROC ; SerializeElements<IPacket133101 *>, COMDAT

; 67   : {

  00000	55		 push	 ebp
  00001	8b ec		 mov	 ebp, esp

; 68   : 	ENSURE(nCount == 0 || pElements != NULL);

  00003	8b 4d 0c	 mov	 ecx, DWORD PTR _pElements$[ebp]
  00006	53		 push	 ebx
  00007	56		 push	 esi
  00008	8b 75 10	 mov	 esi, DWORD PTR _nCount$[ebp]
  0000b	57		 push	 edi
  0000c	85 f6		 test	 esi, esi
  0000e	74 08		 je	 SHORT $LN2@SerializeE
  00010	85 c9		 test	 ecx, ecx
  00012	0f 84 89 00 00
	00		 je	 $LN34@SerializeE
$LN2@SerializeE:
; File C:\Program Files (x86)\Microsoft Visual Studio\2019\Community\VC\Tools\MSVC\14.29.30133\atlmfc\include\afx.inl

; 212  : 	{ return (m_nMode & CArchive::load) == 0; }

  00018	8b 55 08	 mov	 edx, DWORD PTR _ar$[ebp]
  0001b	8b 42 18	 mov	 eax, DWORD PTR [edx+24]
  0001e	f7 d0		 not	 eax
  00020	a8 01		 test	 al, 1
; File C:\Program Files (x86)\Microsoft Visual Studio\2019\Community\VC\Tools\MSVC\14.29.30133\atlmfc\include\afxtempl.h

; 73   : 	if (ar.IsStoring())

  00022	74 3c		 je	 SHORT $LN10@SerializeE

; 74   : 	{
; 75   : 		TYPE* pData;
; 76   : 		UINT_PTR nElementsLeft;
; 77   : 
; 78   : 		nElementsLeft = nCount;
; 79   : 		pData = pElements;
; 80   : 		while( nElementsLeft > 0 )

  00024	85 f6		 test	 esi, esi
  00026	74 31		 je	 SHORT $LN8@SerializeE
  00028	0f 1f 84 00 00
	00 00 00	 npad	 8
$LL5@SerializeE:

; 81   : 		{
; 82   : 			UINT nElementsToWrite;
; 83   : 
; 84   : 			nElementsToWrite = UINT(__min(nElementsLeft, INT_MAX/sizeof(TYPE)));

  00030	bb ff ff ff 1f	 mov	 ebx, 536870911		; 1fffffffH
  00035	3b f3		 cmp	 esi, ebx
  00037	0f 42 de	 cmovb	 ebx, esi

; 85   : 			ar.Write(pData, nElementsToWrite*sizeof(TYPE));

  0003a	8d 3c 9d 00 00
	00 00		 lea	 edi, DWORD PTR [ebx*4]
  00041	57		 push	 edi
  00042	51		 push	 ecx
  00043	8b ca		 mov	 ecx, edx
  00045	e8 00 00 00 00	 call	 ?Write@CArchive@@QAEXPBXI@Z ; CArchive::Write

; 86   : 			nElementsLeft -= nElementsToWrite;
; 87   : 			pData += nElementsToWrite;

  0004a	8b 4d 0c	 mov	 ecx, DWORD PTR _pElements$[ebp]
  0004d	8b 55 08	 mov	 edx, DWORD PTR _ar$[ebp]
  00050	03 cf		 add	 ecx, edi
  00052	89 4d 0c	 mov	 DWORD PTR _pElements$[ebp], ecx
  00055	2b f3		 sub	 esi, ebx
  00057	75 d7		 jne	 SHORT $LL5@SerializeE
$LN8@SerializeE:
  00059	5f		 pop	 edi

; 105  : 		}
; 106  : 	}
; 107  : }

  0005a	5e		 pop	 esi
  0005b	5b		 pop	 ebx
  0005c	5d		 pop	 ebp
  0005d	c2 0c 00	 ret	 12			; 0000000cH
$LN10@SerializeE:

; 97   : 		while( nElementsLeft > 0 )

  00060	85 f6		 test	 esi, esi
  00062	74 f5		 je	 SHORT $LN8@SerializeE
$LL7@SerializeE:

; 98   : 		{
; 99   : 			UINT nElementsToRead;
; 100  : 
; 101  : 			nElementsToRead = UINT(__min(nElementsLeft, INT_MAX/sizeof(TYPE)));

  00064	bf ff ff ff 1f	 mov	 edi, 536870911		; 1fffffffH
  00069	3b f7		 cmp	 esi, edi
  0006b	0f 42 fe	 cmovb	 edi, esi

; 102  : 			ar.EnsureRead(pData, nElementsToRead*sizeof(TYPE));

  0006e	8d 1c bd 00 00
	00 00		 lea	 ebx, DWORD PTR [edi*4]
; File C:\Program Files (x86)\Microsoft Visual Studio\2019\Community\VC\Tools\MSVC\14.29.30133\atlmfc\include\afx.inl

; 399  : 	UINT nRead=Read(lpBuf, nCount);

  00075	53		 push	 ebx
  00076	51		 push	 ecx
  00077	8b ca		 mov	 ecx, edx
  00079	e8 00 00 00 00	 call	 ?Read@CArchive@@QAEIPAXI@Z ; CArchive::Read

; 400  : 	if(nRead!=nCount)

  0007e	3b c3		 cmp	 eax, ebx
  00080	75 16		 jne	 SHORT $LN23@SerializeE
; File C:\Program Files (x86)\Microsoft Visual Studio\2019\Community\VC\Tools\MSVC\14.29.30133\atlmfc\include\afxtempl.h

; 97   : 		while( nElementsLeft > 0 )

  00082	8b 4d 0c	 mov	 ecx, DWORD PTR _pElements$[ebp]
  00085	8b 55 08	 mov	 edx, DWORD PTR _ar$[ebp]

; 103  : 			nElementsLeft -= nElementsToRead;
; 104  : 			pData += nElementsToRead;

  00088	03 cb		 add	 ecx, ebx
  0008a	89 4d 0c	 mov	 DWORD PTR _pElements$[ebp], ecx
  0008d	2b f7		 sub	 esi, edi
  0008f	75 d3		 jne	 SHORT $LL7@SerializeE

; 105  : 		}
; 106  : 	}
; 107  : }

  00091	5f		 pop	 edi
  00092	5e		 pop	 esi
  00093	5b		 pop	 ebx
  00094	5d		 pop	 ebp
  00095	c2 0c 00	 ret	 12			; 0000000cH
$LN23@SerializeE:
; File C:\Program Files (x86)\Microsoft Visual Studio\2019\Community\VC\Tools\MSVC\14.29.30133\atlmfc\include\afx.inl

; 402  : 		AfxThrowArchiveException(CArchiveException::endOfFile);

  00098	6a 00		 push	 0
  0009a	6a 03		 push	 3
  0009c	e8 00 00 00 00	 call	 ?AfxThrowArchiveException@@YGXHPBD@Z ; AfxThrowArchiveException
$LN34@SerializeE:
; File C:\Program Files (x86)\Microsoft Visual Studio\2019\Community\VC\Tools\MSVC\14.29.30133\atlmfc\include\afxtempl.h

; 68   : 	ENSURE(nCount == 0 || pElements != NULL);

  000a1	e8 00 00 00 00	 call	 ?AfxThrowInvalidArgException@@YGXXZ ; AfxThrowInvalidArgException
$LN32@SerializeE:
  000a6	cc		 int	 3
??$SerializeElements@PAUIPacket133101@@@@YGXAAVCArchive@@PAPAUIPacket133101@@H@Z ENDP ; SerializeElements<IPacket133101 *>
_TEXT	ENDS
; Function compile flags: /Ogtp
; File D:\git\src\IBK\IBK_DRFN\ProjSrc\SrcChartEx\ChartAddIn\ChartAnalysisToolAddIn\AnalysisTool\AutoTrendData.cpp
; File D:\git\src\IBK\IBK_DRFN\ProjSrc\SrcChartEx\ChartAddIn\ChartAnalysisToolAddIn\Include_AddIn_133101\I133101\_IString.h
; File D:\git\src\IBK\IBK_DRFN\ProjSrc\SrcChartEx\ChartAddIn\ChartAnalysisToolAddIn\AnalysisTool\AutoTrendData.cpp
; File C:\Program Files (x86)\Microsoft Visual Studio\2019\Community\VC\Tools\MSVC\14.29.30133\atlmfc\include\cstringt.h
; File D:\git\src\IBK\IBK_DRFN\ProjSrc\SrcChartEx\ChartAddIn\ChartAnalysisToolAddIn\AnalysisTool\AutoTrendData.cpp
; File C:\Program Files (x86)\Microsoft Visual Studio\2019\Community\VC\Tools\MSVC\14.29.30133\atlmfc\include\cstringt.h
; File D:\git\src\IBK\IBK_DRFN\ProjSrc\SrcChartEx\ChartAddIn\ChartAnalysisToolAddIn\AnalysisTool\AutoTrendData.cpp
; File C:\Program Files (x86)\Microsoft Visual Studio\2019\Community\VC\Tools\MSVC\14.29.30133\atlmfc\include\cstringt.h
; File D:\git\src\IBK\IBK_DRFN\ProjSrc\SrcChartEx\ChartAddIn\ChartAnalysisToolAddIn\AnalysisTool\AutoTrendData.cpp
; File D:\git\src\IBK\IBK_DRFN\ProjSrc\SrcChartEx\ChartAddIn\ChartAnalysisToolAddIn\Include_AddIn_133101\I133101\_IString.h
; File D:\git\src\IBK\IBK_DRFN\ProjSrc\SrcChartEx\ChartAddIn\ChartAnalysisToolAddIn\AnalysisTool\AutoTrendData.cpp
;	COMDAT ?GetComparisonData@CAutoTrendDrawingCalculator@@ABEHPAUIPacket133101@@@Z
_TEXT	SEGMENT
_szPacketName$ = -20					; size = 8
__$EHRec$ = -12						; size = 12
_strPacketName$ = 8					; size = 4
_pDataPacket$ = 8					; size = 4
?GetComparisonData@CAutoTrendDrawingCalculator@@ABEHPAUIPacket133101@@@Z PROC ; CAutoTrendDrawingCalculator::GetComparisonData, COMDAT
; _this$ = ecx

; 373  : {

  00000	55		 push	 ebp
  00001	8b ec		 mov	 ebp, esp
  00003	6a ff		 push	 -1
  00005	68 00 00 00 00	 push	 __ehhandler$?GetComparisonData@CAutoTrendDrawingCalculator@@ABEHPAUIPacket133101@@@Z
  0000a	64 a1 00 00 00
	00		 mov	 eax, DWORD PTR fs:0
  00010	50		 push	 eax
  00011	83 ec 08	 sub	 esp, 8
  00014	56		 push	 esi
  00015	57		 push	 edi
  00016	a1 00 00 00 00	 mov	 eax, DWORD PTR ___security_cookie
  0001b	33 c5		 xor	 eax, ebp
  0001d	50		 push	 eax
  0001e	8d 45 f4	 lea	 eax, DWORD PTR __$EHRec$[ebp]
  00021	64 a3 00 00 00
	00		 mov	 DWORD PTR fs:0, eax

; 374  : 	if(pDataPacket == NULL)

  00027	8b 4d 08	 mov	 ecx, DWORD PTR _pDataPacket$[ebp]
  0002a	85 c9		 test	 ecx, ecx
  0002c	75 16		 jne	 SHORT $LN2@GetCompari

; 375  : 		return -1;

  0002e	83 c8 ff	 or	 eax, -1

; 385  : }

  00031	8b 4d f4	 mov	 ecx, DWORD PTR __$EHRec$[ebp]
  00034	64 89 0d 00 00
	00 00		 mov	 DWORD PTR fs:0, ecx
  0003b	59		 pop	 ecx
  0003c	5f		 pop	 edi
  0003d	5e		 pop	 esi
  0003e	8b e5		 mov	 esp, ebp
  00040	5d		 pop	 ebp
  00041	c2 04 00	 ret	 4
$LN2@GetCompari:

; 377  : 	ILPCSTR szPacketName = pDataPacket->GetPacketNameString();

  00044	8b 01		 mov	 eax, DWORD PTR [ecx]
  00046	ff 50 14	 call	 DWORD PTR [eax+20]
; File D:\git\src\IBK\IBK_DRFN\ProjSrc\SrcChartEx\ChartAddIn\ChartAnalysisToolAddIn\Include_AddIn_133101\I133101\_IString.h

; 39   : 		m_pIStrData = p_pIString;	// Do not AddRef(). Because It must be Return Value.

  00049	8b f0		 mov	 esi, eax
  0004b	89 75 f0	 mov	 DWORD PTR _szPacketName$[ebp+4], esi

; 40   : 		if( m_pIStrData) m_szData = m_pIStrData->GetData();

  0004e	85 f6		 test	 esi, esi
  00050	74 09		 je	 SHORT $LN12@GetCompari
  00052	8b 16		 mov	 edx, DWORD PTR [esi]
  00054	8b ce		 mov	 ecx, esi
  00056	ff 52 10	 call	 DWORD PTR [edx+16]
  00059	eb 02		 jmp	 SHORT $LN24@GetCompari
$LN12@GetCompari:

; 41   : 		else m_szData = NULL;

  0005b	33 c0		 xor	 eax, eax
$LN24@GetCompari:
; File D:\git\src\IBK\IBK_DRFN\ProjSrc\SrcChartEx\ChartAddIn\ChartAnalysisToolAddIn\AnalysisTool\AutoTrendData.cpp

; 377  : 	ILPCSTR szPacketName = pDataPacket->GetPacketNameString();

  0005d	89 45 ec	 mov	 DWORD PTR _szPacketName$[ebp], eax

; 378  : 	CString strPacketName( szPacketName);

  00060	50		 push	 eax
  00061	8d 4d 08	 lea	 ecx, DWORD PTR _strPacketName$[ebp]
  00064	c7 45 fc 00 00
	00 00		 mov	 DWORD PTR __$EHRec$[ebp+8], 0
  0006b	ff 15 00 00 00
	00		 call	 DWORD PTR __imp_??0?$CStringT@DV?$StrTraitMFC_DLL@DV?$ChTraitsCRT@D@ATL@@@@@ATL@@QAE@PBD@Z

; 379  : 	if( strPacketName == _MTEXT( C0_LOW)) // "저가"

  00071	a1 54 00 00 00	 mov	 eax, DWORD PTR ?g_iMetaTable@@3VIMetaTable@@A+84
; File C:\Program Files (x86)\Microsoft Visual Studio\2019\Community\VC\Tools\MSVC\14.29.30133\atlmfc\include\cstringt.h

; 2486 : 		return(str1.Compare(psz2) == 0);

  00076	8d 4d 08	 lea	 ecx, DWORD PTR _strPacketName$[ebp]
; File D:\git\src\IBK\IBK_DRFN\ProjSrc\SrcChartEx\ChartAddIn\ChartAnalysisToolAddIn\AnalysisTool\AutoTrendData.cpp

; 378  : 	CString strPacketName( szPacketName);

  00079	c6 45 fc 01	 mov	 BYTE PTR __$EHRec$[ebp+8], 1
; File C:\Program Files (x86)\Microsoft Visual Studio\2019\Community\VC\Tools\MSVC\14.29.30133\atlmfc\include\cstringt.h

; 2486 : 		return(str1.Compare(psz2) == 0);

  0007d	ff 70 10	 push	 DWORD PTR [eax+16]
  00080	ff 15 00 00 00
	00		 call	 DWORD PTR __imp_?Compare@?$CStringT@DV?$StrTraitMFC_DLL@DV?$ChTraitsCRT@D@ATL@@@@@ATL@@QBEHPBD@Z
  00086	85 c0		 test	 eax, eax
; File D:\git\src\IBK\IBK_DRFN\ProjSrc\SrcChartEx\ChartAddIn\ChartAnalysisToolAddIn\AnalysisTool\AutoTrendData.cpp

; 379  : 	if( strPacketName == _MTEXT( C0_LOW)) // "저가"

  00088	75 05		 jne	 SHORT $LN3@GetCompari
  0008a	8d 78 01	 lea	 edi, DWORD PTR [eax+1]
  0008d	eb 1d		 jmp	 SHORT $LN10@GetCompari
$LN3@GetCompari:

; 381  : 	else if(strPacketName == _MTEXT( C0_HIGH)) // "고가"

  0008f	a1 54 00 00 00	 mov	 eax, DWORD PTR ?g_iMetaTable@@3VIMetaTable@@A+84
; File C:\Program Files (x86)\Microsoft Visual Studio\2019\Community\VC\Tools\MSVC\14.29.30133\atlmfc\include\cstringt.h

; 2486 : 		return(str1.Compare(psz2) == 0);

  00094	8d 4d 08	 lea	 ecx, DWORD PTR _strPacketName$[ebp]
  00097	ff 70 0c	 push	 DWORD PTR [eax+12]
  0009a	ff 15 00 00 00
	00		 call	 DWORD PTR __imp_?Compare@?$CStringT@DV?$StrTraitMFC_DLL@DV?$ChTraitsCRT@D@ATL@@@@@ATL@@QBEHPBD@Z
  000a0	85 c0		 test	 eax, eax
; File D:\git\src\IBK\IBK_DRFN\ProjSrc\SrcChartEx\ChartAddIn\ChartAnalysisToolAddIn\AnalysisTool\AutoTrendData.cpp

; 381  : 	else if(strPacketName == _MTEXT( C0_HIGH)) // "고가"

  000a2	75 05		 jne	 SHORT $LN5@GetCompari

; 382  : 		return 2;

  000a4	8d 78 02	 lea	 edi, DWORD PTR [eax+2]
  000a7	eb 03		 jmp	 SHORT $LN10@GetCompari
$LN5@GetCompari:

; 384  : 	return -1;

  000a9	83 cf ff	 or	 edi, -1
$LN10@GetCompari:
  000ac	8d 4d 08	 lea	 ecx, DWORD PTR _strPacketName$[ebp]
  000af	ff 15 00 00 00
	00		 call	 DWORD PTR __imp_??1?$CStringT@DV?$StrTraitMFC_DLL@DV?$ChTraitsCRT@D@ATL@@@@@ATL@@QAE@XZ
; File D:\git\src\IBK\IBK_DRFN\ProjSrc\SrcChartEx\ChartAddIn\ChartAnalysisToolAddIn\Include_AddIn_133101\I133101\_IString.h

; 44   : 	{

  000b5	c7 45 fc 02 00
	00 00		 mov	 DWORD PTR __$EHRec$[ebp+8], 2

; 45   : 		if( m_pIStrData)

  000bc	85 f6		 test	 esi, esi
  000be	74 06		 je	 SHORT $LN20@GetCompari

; 46   : 		{
; 47   : 			m_pIStrData->Release();

  000c0	8b 0e		 mov	 ecx, DWORD PTR [esi]
  000c2	56		 push	 esi
  000c3	ff 51 08	 call	 DWORD PTR [ecx+8]
$LN20@GetCompari:
; File D:\git\src\IBK\IBK_DRFN\ProjSrc\SrcChartEx\ChartAddIn\ChartAnalysisToolAddIn\AnalysisTool\AutoTrendData.cpp

; 384  : 	return -1;

  000c6	8b c7		 mov	 eax, edi

; 385  : }

  000c8	8b 4d f4	 mov	 ecx, DWORD PTR __$EHRec$[ebp]
  000cb	64 89 0d 00 00
	00 00		 mov	 DWORD PTR fs:0, ecx
  000d2	59		 pop	 ecx
  000d3	5f		 pop	 edi
  000d4	5e		 pop	 esi
  000d5	8b e5		 mov	 esp, ebp
  000d7	5d		 pop	 ebp
  000d8	c2 04 00	 ret	 4
_TEXT	ENDS
;	COMDAT text$x
text$x	SEGMENT
__unwindfunclet$?GetComparisonData@CAutoTrendDrawingCalculator@@ABEHPAUIPacket133101@@@Z$0:
  00000	8d 4d ec	 lea	 ecx, DWORD PTR _szPacketName$[ebp]
  00003	e9 00 00 00 00	 jmp	 ??1ILPCSTR133101@@QAE@XZ ; ILPCSTR133101::~ILPCSTR133101
__unwindfunclet$?GetComparisonData@CAutoTrendDrawingCalculator@@ABEHPAUIPacket133101@@@Z$1:
  00008	8d 4d 08	 lea	 ecx, DWORD PTR _strPacketName$[ebp]
  0000b	ff 25 00 00 00
	00		 jmp	 DWORD PTR __imp_??1?$CStringT@DV?$StrTraitMFC_DLL@DV?$ChTraitsCRT@D@ATL@@@@@ATL@@QAE@XZ
  00011	cc		 int	 3
  00012	cc		 int	 3
  00013	cc		 int	 3
  00014	cc		 int	 3
  00015	cc		 int	 3
__ehhandler$?GetComparisonData@CAutoTrendDrawingCalculator@@ABEHPAUIPacket133101@@@Z:
  00016	90		 npad	 1
  00017	90		 npad	 1
  00018	8b 54 24 08	 mov	 edx, DWORD PTR [esp+8]
  0001c	8d 42 0c	 lea	 eax, DWORD PTR [edx+12]
  0001f	8b 4a ec	 mov	 ecx, DWORD PTR [edx-20]
  00022	33 c8		 xor	 ecx, eax
  00024	e8 00 00 00 00	 call	 @__security_check_cookie@4
  00029	b8 00 00 00 00	 mov	 eax, OFFSET __ehfuncinfo$?GetComparisonData@CAutoTrendDrawingCalculator@@ABEHPAUIPacket133101@@@Z
  0002e	e9 00 00 00 00	 jmp	 ___CxxFrameHandler3
text$x	ENDS
?GetComparisonData@CAutoTrendDrawingCalculator@@ABEHPAUIPacket133101@@@Z ENDP ; CAutoTrendDrawingCalculator::GetComparisonData
; Function compile flags: /Ogtp
; File D:\git\src\IBK\IBK_DRFN\ProjSrc\SrcChartEx\ChartAddIn\ChartAnalysisToolAddIn\AnalysisTool\AutoTrendData.cpp
;	COMDAT ?GetAbsolutePoints@CAutoTrendDrawingCalculator@@ABE_NABVCCoordinateCalculatorData@@ABVCAutoTrendPoint@@1AAVCPoint@@2@Z
_TEXT	SEGMENT
$T1 = -72						; size = 8
$T2 = -72						; size = 8
$T3 = -64						; size = 8
$T4 = -64						; size = 8
$T5 = -56						; size = 8
$T6 = -56						; size = 8
_rightPt$GSCopy$1$ = -48				; size = 4
$T7 = -44						; size = 8
_leftPt$GSCopy$1$ = -40					; size = 4
$T8 = -36						; size = 8
_atLeftPt$GSCopy$1$ = -32				; size = 4
$T9 = -28						; size = 8
$T10 = -28						; size = 8
_atRightPt$GSCopy$1$ = -24				; size = 4
$T11 = -20						; size = 16
$T12 = -20						; size = 16
__$ArrayPad$ = -4					; size = 4
_calData$ = 8						; size = 4
_atLeftPt$ = 12						; size = 4
_atRightPt$ = 16					; size = 4
_leftPt$ = 20						; size = 4
_rightPt$ = 24						; size = 4
?GetAbsolutePoints@CAutoTrendDrawingCalculator@@ABE_NABVCCoordinateCalculatorData@@ABVCAutoTrendPoint@@1AAVCPoint@@2@Z PROC ; CAutoTrendDrawingCalculator::GetAbsolutePoints, COMDAT
; _this$ = ecx

; 342  : {

  00000	55		 push	 ebp
  00001	8b ec		 mov	 ebp, esp
  00003	83 ec 48	 sub	 esp, 72			; 00000048H
  00006	a1 00 00 00 00	 mov	 eax, DWORD PTR ___security_cookie
  0000b	33 c5		 xor	 eax, ebp
  0000d	89 45 fc	 mov	 DWORD PTR __$ArrayPad$[ebp], eax
  00010	8b 45 0c	 mov	 eax, DWORD PTR _atLeftPt$[ebp]
  00013	89 45 e0	 mov	 DWORD PTR _atLeftPt$GSCopy$1$[ebp], eax
  00016	8b 45 10	 mov	 eax, DWORD PTR _atRightPt$[ebp]
  00019	53		 push	 ebx
  0001a	8b 5d 08	 mov	 ebx, DWORD PTR _calData$[ebp]

; 343  : 	int nDataCount = 0;
; 344  : 	IPacket *pIPacket = calData.GetPacket_X();

  0001d	8b cb		 mov	 ecx, ebx
  0001f	89 45 e8	 mov	 DWORD PTR _atRightPt$GSCopy$1$[ebp], eax
  00022	8b 45 14	 mov	 eax, DWORD PTR _leftPt$[ebp]
  00025	56		 push	 esi
  00026	89 45 d8	 mov	 DWORD PTR _leftPt$GSCopy$1$[ebp], eax
  00029	8b 45 18	 mov	 eax, DWORD PTR _rightPt$[ebp]
  0002c	57		 push	 edi
  0002d	89 45 d0	 mov	 DWORD PTR _rightPt$GSCopy$1$[ebp], eax
  00030	e8 00 00 00 00	 call	 ?GetPacket_X@CCoordinateCalculatorData@@QBEPAUIPacket133101@@XZ ; CCoordinateCalculatorData::GetPacket_X
  00035	8b f8		 mov	 edi, eax

; 345  : 	if( pIPacket)

  00037	85 ff		 test	 edi, edi
  00039	0f 84 22 01 00
	00		 je	 $LN5@GetAbsolut

; 346  : 	{
; 347  : 		nDataCount = pIPacket->GetDataCount();

  0003f	8b 17		 mov	 edx, DWORD PTR [edi]
  00041	8b cf		 mov	 ecx, edi
  00043	ff 52 2c	 call	 DWORD PTR [edx+44]

; 348  : 		pIPacket->Release();

  00046	8b 0f		 mov	 ecx, DWORD PTR [edi]
  00048	8b f0		 mov	 esi, eax
  0004a	57		 push	 edi
  0004b	ff 51 08	 call	 DWORD PTR [ecx+8]

; 349  : 		pIPacket = NULL;
; 350  : 	}
; 351  : 	if( nDataCount <= 0) return false;

  0004e	85 f6		 test	 esi, esi
  00050	0f 8e 0b 01 00
	00		 jle	 $LN5@GetAbsolut

; 352  : 
; 353  : 	if(atLeftPt.GetIndex() < 0 || atRightPt.GetIndex() < 0)

  00056	8b 75 e0	 mov	 esi, DWORD PTR _atLeftPt$GSCopy$1$[ebp]
  00059	83 3e 00	 cmp	 DWORD PTR [esi], 0
  0005c	0f 8c ff 00 00
	00		 jl	 $LN5@GetAbsolut
  00062	8b 7d e8	 mov	 edi, DWORD PTR _atRightPt$GSCopy$1$[ebp]
  00065	83 3f 00	 cmp	 DWORD PTR [edi], 0
  00068	0f 8c f3 00 00
	00		 jl	 $LN5@GetAbsolut

; 354  : 		return false;
; 355  : 
; 356  : 	leftPt = CDataConversion::RelativeToAbsolute(calData.GetRegion(), 

  0006e	f2 0f 10 46 08	 movsd	 xmm0, QWORD PTR [esi+8]
  00073	8d 45 e4	 lea	 eax, DWORD PTR $T10[ebp]
  00076	50		 push	 eax
  00077	8b cb		 mov	 ecx, ebx
  00079	f2 0f 11 45 e4	 movsd	 QWORD PTR $T10[ebp], xmm0
  0007e	e8 00 00 00 00	 call	 ?ApplyLog@CCoordinateCalculatorData@@QBENABN@Z ; CCoordinateCalculatorData::ApplyLog
  00083	dd 5d dc	 fstp	 QWORD PTR $T8[ebp]
  00086	8b cb		 mov	 ecx, ebx
  00088	e8 00 00 00 00	 call	 ?GetDisplayDataMax_ScaleType@CCoordinateCalculatorData@@QBENXZ ; CCoordinateCalculatorData::GetDisplayDataMax_ScaleType
  0008d	dd 5d c8	 fstp	 QWORD PTR $T6[ebp]
  00090	8b cb		 mov	 ecx, ebx
  00092	e8 00 00 00 00	 call	 ?GetDisplayDataMin_ScaleType@CCoordinateCalculatorData@@QBENXZ ; CCoordinateCalculatorData::GetDisplayDataMin_ScaleType
  00097	8d 45 dc	 lea	 eax, DWORD PTR $T8[ebp]
  0009a	8b cb		 mov	 ecx, ebx
  0009c	50		 push	 eax
  0009d	ff 36		 push	 DWORD PTR [esi]
  0009f	8d 45 c8	 lea	 eax, DWORD PTR $T6[ebp]
  000a2	50		 push	 eax
  000a3	8d 45 c0	 lea	 eax, DWORD PTR $T4[ebp]
  000a6	50		 push	 eax
  000a7	dd 5d c0	 fstp	 QWORD PTR $T4[ebp]
  000aa	e8 00 00 00 00	 call	 ?GetDisplayDataEnd@CCoordinateCalculatorData@@QBEHXZ ; CCoordinateCalculatorData::GetDisplayDataEnd
  000af	50		 push	 eax
  000b0	8b cb		 mov	 ecx, ebx
  000b2	e8 00 00 00 00	 call	 ?GetDisplayDataStart@CCoordinateCalculatorData@@QBEHXZ ; CCoordinateCalculatorData::GetDisplayDataStart
  000b7	50		 push	 eax
  000b8	8d 45 ec	 lea	 eax, DWORD PTR $T12[ebp]
  000bb	8b cb		 mov	 ecx, ebx
  000bd	50		 push	 eax
  000be	e8 00 00 00 00	 call	 ?GetRegion@CCoordinateCalculatorData@@QBE?AVCRect@@XZ ; CCoordinateCalculatorData::GetRegion
  000c3	50		 push	 eax
  000c4	8d 45 b8	 lea	 eax, DWORD PTR $T2[ebp]
  000c7	50		 push	 eax
  000c8	e8 00 00 00 00	 call	 ?RelativeToAbsolute@CDataConversion@@SA?AVCPoint@@ABVCRect@@HHABN1H1@Z ; CDataConversion::RelativeToAbsolute
  000cd	8b 55 d8	 mov	 edx, DWORD PTR _leftPt$GSCopy$1$[ebp]
  000d0	83 c4 20	 add	 esp, 32			; 00000020H
  000d3	8b 08		 mov	 ecx, DWORD PTR [eax]
  000d5	8b 40 04	 mov	 eax, DWORD PTR [eax+4]
  000d8	89 42 04	 mov	 DWORD PTR [edx+4], eax

; 357  : 			calData.GetDisplayDataStart(), calData.GetDisplayDataEnd(), 
; 358  : 			calData.GetDisplayDataMin_ScaleType(), calData.GetDisplayDataMax_ScaleType(), 
; 359  : 			atLeftPt.GetIndex(), calData.ApplyLog(atLeftPt.GetPrice()));
; 360  : 
; 361  : 	rightPt = CDataConversion::RelativeToAbsolute(calData.GetRegion(), 

  000db	8d 45 c0	 lea	 eax, DWORD PTR $T3[ebp]
  000de	89 0a		 mov	 DWORD PTR [edx], ecx
  000e0	8b cb		 mov	 ecx, ebx
  000e2	f2 0f 10 47 08	 movsd	 xmm0, QWORD PTR [edi+8]
  000e7	50		 push	 eax
  000e8	f2 0f 11 45 c0	 movsd	 QWORD PTR $T3[ebp], xmm0
  000ed	e8 00 00 00 00	 call	 ?ApplyLog@CCoordinateCalculatorData@@QBENABN@Z ; CCoordinateCalculatorData::ApplyLog
  000f2	dd 5d c8	 fstp	 QWORD PTR $T5[ebp]
  000f5	8b cb		 mov	 ecx, ebx
  000f7	e8 00 00 00 00	 call	 ?GetDisplayDataMax_ScaleType@CCoordinateCalculatorData@@QBENXZ ; CCoordinateCalculatorData::GetDisplayDataMax_ScaleType
  000fc	dd 5d d4	 fstp	 QWORD PTR $T7[ebp]
  000ff	8b cb		 mov	 ecx, ebx
  00101	e8 00 00 00 00	 call	 ?GetDisplayDataMin_ScaleType@CCoordinateCalculatorData@@QBENXZ ; CCoordinateCalculatorData::GetDisplayDataMin_ScaleType
  00106	8d 45 c8	 lea	 eax, DWORD PTR $T5[ebp]
  00109	8b cb		 mov	 ecx, ebx
  0010b	50		 push	 eax
  0010c	ff 37		 push	 DWORD PTR [edi]
  0010e	8d 45 d4	 lea	 eax, DWORD PTR $T7[ebp]
  00111	50		 push	 eax
  00112	8d 45 e4	 lea	 eax, DWORD PTR $T9[ebp]
  00115	50		 push	 eax
  00116	dd 5d e4	 fstp	 QWORD PTR $T9[ebp]
  00119	e8 00 00 00 00	 call	 ?GetDisplayDataEnd@CCoordinateCalculatorData@@QBEHXZ ; CCoordinateCalculatorData::GetDisplayDataEnd
  0011e	50		 push	 eax
  0011f	8b cb		 mov	 ecx, ebx
  00121	e8 00 00 00 00	 call	 ?GetDisplayDataStart@CCoordinateCalculatorData@@QBEHXZ ; CCoordinateCalculatorData::GetDisplayDataStart
  00126	50		 push	 eax
  00127	8d 45 ec	 lea	 eax, DWORD PTR $T11[ebp]
  0012a	8b cb		 mov	 ecx, ebx
  0012c	50		 push	 eax
  0012d	e8 00 00 00 00	 call	 ?GetRegion@CCoordinateCalculatorData@@QBE?AVCRect@@XZ ; CCoordinateCalculatorData::GetRegion
  00132	50		 push	 eax
  00133	8d 45 b8	 lea	 eax, DWORD PTR $T1[ebp]
  00136	50		 push	 eax
  00137	e8 00 00 00 00	 call	 ?RelativeToAbsolute@CDataConversion@@SA?AVCPoint@@ABVCRect@@HHABN1H1@Z ; CDataConversion::RelativeToAbsolute
  0013c	8b 55 d0	 mov	 edx, DWORD PTR _rightPt$GSCopy$1$[ebp]
  0013f	83 c4 20	 add	 esp, 32			; 00000020H
  00142	8b 08		 mov	 ecx, DWORD PTR [eax]
  00144	8b 40 04	 mov	 eax, DWORD PTR [eax+4]
  00147	89 42 04	 mov	 DWORD PTR [edx+4], eax

; 362  : 			calData.GetDisplayDataStart(), calData.GetDisplayDataEnd(), 
; 363  : 			calData.GetDisplayDataMin_ScaleType(), calData.GetDisplayDataMax_ScaleType(), 
; 364  : 			atRightPt.GetIndex(), calData.ApplyLog(atRightPt.GetPrice()));
; 365  : 
; 366  : 	return true;

  0014a	b0 01		 mov	 al, 1
  0014c	89 0a		 mov	 DWORD PTR [edx], ecx

; 367  : }

  0014e	5f		 pop	 edi
  0014f	5e		 pop	 esi
  00150	5b		 pop	 ebx
  00151	8b 4d fc	 mov	 ecx, DWORD PTR __$ArrayPad$[ebp]
  00154	33 cd		 xor	 ecx, ebp
  00156	e8 00 00 00 00	 call	 @__security_check_cookie@4
  0015b	8b e5		 mov	 esp, ebp
  0015d	5d		 pop	 ebp
  0015e	c2 14 00	 ret	 20			; 00000014H
$LN5@GetAbsolut:
  00161	8b 4d fc	 mov	 ecx, DWORD PTR __$ArrayPad$[ebp]
  00164	32 c0		 xor	 al, al
  00166	5f		 pop	 edi
  00167	5e		 pop	 esi
  00168	33 cd		 xor	 ecx, ebp
  0016a	5b		 pop	 ebx
  0016b	e8 00 00 00 00	 call	 @__security_check_cookie@4
  00170	8b e5		 mov	 esp, ebp
  00172	5d		 pop	 ebp
  00173	c2 14 00	 ret	 20			; 00000014H
?GetAbsolutePoints@CAutoTrendDrawingCalculator@@ABE_NABVCCoordinateCalculatorData@@ABVCAutoTrendPoint@@1AAVCPoint@@2@Z ENDP ; CAutoTrendDrawingCalculator::GetAbsolutePoints
_TEXT	ENDS
; Function compile flags: /Ogtp
; File D:\git\src\IBK\IBK_DRFN\ProjSrc\SrcChartEx\ChartAddIn\ChartAnalysisToolAddIn\AnalysisTool\AutoTrendData.cpp
; File D:\git\src\IBK\IBK_DRFN\ProjSrc\SrcChartEx\ChartAddIn\ChartAnalysisToolAddIn\Include_AddIn_133101\I133101\_IString.h
; File D:\git\src\IBK\IBK_DRFN\ProjSrc\SrcChartEx\ChartAddIn\ChartAnalysisToolAddIn\AnalysisTool\AutoTrendData.cpp
; File C:\Program Files (x86)\Microsoft Visual Studio\2019\Community\VC\Tools\MSVC\14.29.30133\atlmfc\include\cstringt.h
; File D:\git\src\IBK\IBK_DRFN\ProjSrc\SrcChartEx\ChartAddIn\ChartAnalysisToolAddIn\AnalysisTool\AutoTrendData.cpp
; File C:\Program Files (x86)\Microsoft Visual Studio\2019\Community\VC\Tools\MSVC\14.29.30133\atlmfc\include\cstringt.h
; File D:\git\src\IBK\IBK_DRFN\ProjSrc\SrcChartEx\ChartAddIn\ChartAnalysisToolAddIn\AnalysisTool\AutoTrendData.cpp
; File C:\Program Files (x86)\Microsoft Visual Studio\2019\Community\VC\Tools\MSVC\14.29.30133\atlmfc\include\cstringt.h
; File D:\git\src\IBK\IBK_DRFN\ProjSrc\SrcChartEx\ChartAddIn\ChartAnalysisToolAddIn\AnalysisTool\AutoTrendData.cpp
; File D:\git\src\IBK\IBK_DRFN\ProjSrc\SrcChartEx\ChartAddIn\ChartAnalysisToolAddIn\Include_AddIn_133101\I133101\_IString.h
; File D:\git\src\IBK\IBK_DRFN\ProjSrc\SrcChartEx\ChartAddIn\ChartAnalysisToolAddIn\AnalysisTool\AutoTrendData.cpp
; File C:\Program Files (x86)\Microsoft Visual Studio\2019\Community\VC\Tools\MSVC\14.29.30133\atlmfc\include\cstringt.h
; File D:\git\src\IBK\IBK_DRFN\ProjSrc\SrcChartEx\ChartAddIn\ChartAnalysisToolAddIn\AnalysisTool\AutoTrendData.cpp
; File C:\Program Files (x86)\Microsoft Visual Studio\2019\Community\VC\Tools\MSVC\14.29.30133\atlmfc\include\cstringt.h
; File D:\git\src\IBK\IBK_DRFN\ProjSrc\SrcChartEx\ChartAddIn\ChartAnalysisToolAddIn\AnalysisTool\AutoTrendData.cpp
; File D:\git\src\IBK\IBK_DRFN\ProjSrc\SrcChartEx\ChartAddIn\ChartAnalysisToolAddIn\Include_AddIn_133101\I133101\_IString.h
; File D:\git\src\IBK\IBK_DRFN\ProjSrc\SrcChartEx\ChartAddIn\ChartAnalysisToolAddIn\AnalysisTool\AutoTrendData.cpp
; File D:\git\src\IBK\IBK_DRFN\ProjSrc\SrcChartEx\ChartAddIn\ChartAnalysisToolAddIn\Include_AddIn_133101\I133101\_IString.h
; File D:\git\src\IBK\IBK_DRFN\ProjSrc\SrcChartEx\ChartAddIn\ChartAnalysisToolAddIn\AnalysisTool\AutoTrendData.cpp
;	COMDAT ?GetRelativePoints@CAutoTrendDrawingCalculator@@ABE_NPAUIPacket133101@@0HAAVCAutoTrendPoint@@1@Z
_TEXT	SEGMENT
$T2 = -72						; size = 16
$T3 = -56						; size = 16
_dData$4 = -40						; size = 8
_szPacketName$5 = -32					; size = 8
_dPrice$6 = -32						; size = 8
_dataPos$ = -24						; size = 4
_indexPos$ = -20					; size = 4
_piDataList$1$ = -16					; size = 4
__$EHRec$ = -12						; size = 12
_piIndexList$1$ = 8					; size = 4
_pIndexPacket$ = 8					; size = 4
_nComparisonData$1$ = 12				; size = 4
_strPacketName$7 = 12					; size = 4
_pDataPacket$ = 12					; size = 4
_nCurrentDataIndex$ = 16				; size = 4
_atLeftPt$ = 20						; size = 4
_atRightPt$ = 24					; size = 4
?GetRelativePoints@CAutoTrendDrawingCalculator@@ABE_NPAUIPacket133101@@0HAAVCAutoTrendPoint@@1@Z PROC ; CAutoTrendDrawingCalculator::GetRelativePoints, COMDAT
; _this$ = ecx

; 296  : {

  00000	55		 push	 ebp
  00001	8b ec		 mov	 ebp, esp
  00003	6a ff		 push	 -1
  00005	68 00 00 00 00	 push	 __ehhandler$?GetRelativePoints@CAutoTrendDrawingCalculator@@ABE_NPAUIPacket133101@@0HAAVCAutoTrendPoint@@1@Z
  0000a	64 a1 00 00 00
	00		 mov	 eax, DWORD PTR fs:0
  00010	50		 push	 eax
  00011	83 ec 3c	 sub	 esp, 60			; 0000003cH
  00014	53		 push	 ebx
  00015	56		 push	 esi
  00016	57		 push	 edi
  00017	a1 00 00 00 00	 mov	 eax, DWORD PTR ___security_cookie
  0001c	33 c5		 xor	 eax, ebp
  0001e	50		 push	 eax
  0001f	8d 45 f4	 lea	 eax, DWORD PTR __$EHRec$[ebp]
  00022	64 a3 00 00 00
	00		 mov	 DWORD PTR fs:0, eax

; 256  : 	if(pIndexPacket == NULL || pDataPacket == NULL)

  00028	8b 7d 08	 mov	 edi, DWORD PTR _pIndexPacket$[ebp]
  0002b	85 ff		 test	 edi, edi
  0002d	0f 84 26 02 00
	00		 je	 $LN7@GetRelativ
  00033	8b 5d 0c	 mov	 ebx, DWORD PTR _pDataPacket$[ebp]
  00036	85 db		 test	 ebx, ebx
  00038	0f 84 1b 02 00
	00		 je	 $LN7@GetRelativ

; 257  : 		return false;
; 258  : 	
; 259  : 	if(pIndexPacket->GetDataList() == NULL || pDataPacket->GetDataList() == NULL)

  0003e	8b 07		 mov	 eax, DWORD PTR [edi]
  00040	8b cf		 mov	 ecx, edi
  00042	ff 50 54	 call	 DWORD PTR [eax+84]
  00045	85 c0		 test	 eax, eax
  00047	0f 84 0c 02 00
	00		 je	 $LN7@GetRelativ
  0004d	8b 03		 mov	 eax, DWORD PTR [ebx]
  0004f	8b cb		 mov	 ecx, ebx
  00051	ff 50 54	 call	 DWORD PTR [eax+84]
  00054	85 c0		 test	 eax, eax
  00056	0f 84 fd 01 00
	00		 je	 $LN7@GetRelativ

; 260  : 	{
; 261  : //		ILPCSTR szPacketName = pIndexPacket->GetPacketNameString();
; 262  : //		szPacketName = pDataPacket->GetPacketNameString();
; 263  : 		return false;
; 264  : 	}
; 265  : 
; 266  : 	if( pIndexPacket->GetDataCount() <= 0)

  0005c	8b 07		 mov	 eax, DWORD PTR [edi]
  0005e	8b cf		 mov	 ecx, edi
  00060	ff 50 2c	 call	 DWORD PTR [eax+44]
  00063	85 c0		 test	 eax, eax
  00065	0f 8e ee 01 00
	00		 jle	 $LN7@GetRelativ

; 267  : 		return false;
; 268  : 	return (pIndexPacket->GetDataCount() == pDataPacket->GetDataCount());

  0006b	8b 07		 mov	 eax, DWORD PTR [edi]
  0006d	8b cf		 mov	 ecx, edi
  0006f	ff 50 2c	 call	 DWORD PTR [eax+44]
  00072	8b 13		 mov	 edx, DWORD PTR [ebx]
  00074	8b cb		 mov	 ecx, ebx
  00076	8b f0		 mov	 esi, eax
  00078	ff 52 2c	 call	 DWORD PTR [edx+44]
  0007b	3b f0		 cmp	 esi, eax
  0007d	0f 94 c0	 sete	 al

; 297  : 	if(!DoesRelativePoints(pIndexPacket, pDataPacket))

  00080	84 c0		 test	 al, al
  00082	0f 84 d1 01 00
	00		 je	 $LN7@GetRelativ

; 298  : 		return false;
; 299  : 
; 300  : 	IDoubleList *piIndexList = pIndexPacket->GetDataList();

  00088	8b 07		 mov	 eax, DWORD PTR [edi]
  0008a	8b cf		 mov	 ecx, edi
  0008c	ff 50 54	 call	 DWORD PTR [eax+84]

; 301  : 	IDoubleList *piDataList = pDataPacket->GetDataList();

  0008f	8b 13		 mov	 edx, DWORD PTR [ebx]
  00091	8b f8		 mov	 edi, eax
  00093	8b cb		 mov	 ecx, ebx
  00095	89 7d 08	 mov	 DWORD PTR _piIndexList$1$[ebp], edi
  00098	ff 52 54	 call	 DWORD PTR [edx+84]
  0009b	89 45 f0	 mov	 DWORD PTR _piDataList$1$[ebp], eax

; 302  : 	if( !piIndexList || piDataList) return false;

  0009e	85 ff		 test	 edi, edi
  000a0	0f 84 b3 01 00
	00		 je	 $LN7@GetRelativ
  000a6	85 c0		 test	 eax, eax
  000a8	0f 85 ab 01 00
	00		 jne	 $LN7@GetRelativ

; 377  : 	ILPCSTR szPacketName = pDataPacket->GetPacketNameString();

  000ae	8b 13		 mov	 edx, DWORD PTR [ebx]
  000b0	8b cb		 mov	 ecx, ebx
  000b2	ff 52 14	 call	 DWORD PTR [edx+20]
; File D:\git\src\IBK\IBK_DRFN\ProjSrc\SrcChartEx\ChartAddIn\ChartAnalysisToolAddIn\Include_AddIn_133101\I133101\_IString.h

; 39   : 		m_pIStrData = p_pIString;	// Do not AddRef(). Because It must be Return Value.

  000b5	8b f0		 mov	 esi, eax
  000b7	89 75 e4	 mov	 DWORD PTR _szPacketName$5[ebp+4], esi

; 40   : 		if( m_pIStrData) m_szData = m_pIStrData->GetData();

  000ba	85 f6		 test	 esi, esi
  000bc	74 09		 je	 SHORT $LN30@GetRelativ
  000be	8b 16		 mov	 edx, DWORD PTR [esi]
  000c0	8b ce		 mov	 ecx, esi
  000c2	ff 52 10	 call	 DWORD PTR [edx+16]
  000c5	eb 02		 jmp	 SHORT $LN72@GetRelativ
$LN30@GetRelativ:

; 41   : 		else m_szData = NULL;

  000c7	33 c0		 xor	 eax, eax
$LN72@GetRelativ:
; File D:\git\src\IBK\IBK_DRFN\ProjSrc\SrcChartEx\ChartAddIn\ChartAnalysisToolAddIn\AnalysisTool\AutoTrendData.cpp

; 377  : 	ILPCSTR szPacketName = pDataPacket->GetPacketNameString();

  000c9	89 45 e0	 mov	 DWORD PTR _szPacketName$5[ebp], eax

; 378  : 	CString strPacketName( szPacketName);

  000cc	50		 push	 eax
  000cd	8d 4d 0c	 lea	 ecx, DWORD PTR _strPacketName$7[ebp]
  000d0	c7 45 fc 00 00
	00 00		 mov	 DWORD PTR __$EHRec$[ebp+8], 0
  000d7	ff 15 00 00 00
	00		 call	 DWORD PTR __imp_??0?$CStringT@DV?$StrTraitMFC_DLL@DV?$ChTraitsCRT@D@ATL@@@@@ATL@@QAE@PBD@Z

; 379  : 	if( strPacketName == _MTEXT( C0_LOW)) // "저가"

  000dd	a1 54 00 00 00	 mov	 eax, DWORD PTR ?g_iMetaTable@@3VIMetaTable@@A+84
; File C:\Program Files (x86)\Microsoft Visual Studio\2019\Community\VC\Tools\MSVC\14.29.30133\atlmfc\include\cstringt.h

; 2486 : 		return(str1.Compare(psz2) == 0);

  000e2	8d 4d 0c	 lea	 ecx, DWORD PTR _strPacketName$7[ebp]
; File D:\git\src\IBK\IBK_DRFN\ProjSrc\SrcChartEx\ChartAddIn\ChartAnalysisToolAddIn\AnalysisTool\AutoTrendData.cpp

; 378  : 	CString strPacketName( szPacketName);

  000e5	c6 45 fc 01	 mov	 BYTE PTR __$EHRec$[ebp+8], 1
; File C:\Program Files (x86)\Microsoft Visual Studio\2019\Community\VC\Tools\MSVC\14.29.30133\atlmfc\include\cstringt.h

; 2486 : 		return(str1.Compare(psz2) == 0);

  000e9	ff 70 10	 push	 DWORD PTR [eax+16]
  000ec	ff 15 00 00 00
	00		 call	 DWORD PTR __imp_?Compare@?$CStringT@DV?$StrTraitMFC_DLL@DV?$ChTraitsCRT@D@ATL@@@@@ATL@@QBEHPBD@Z
; File D:\git\src\IBK\IBK_DRFN\ProjSrc\SrcChartEx\ChartAddIn\ChartAnalysisToolAddIn\AnalysisTool\AutoTrendData.cpp

; 379  : 	if( strPacketName == _MTEXT( C0_LOW)) // "저가"

  000f2	8d 4d 0c	 lea	 ecx, DWORD PTR _strPacketName$7[ebp]
; File C:\Program Files (x86)\Microsoft Visual Studio\2019\Community\VC\Tools\MSVC\14.29.30133\atlmfc\include\cstringt.h

; 2486 : 		return(str1.Compare(psz2) == 0);

  000f5	85 c0		 test	 eax, eax
; File D:\git\src\IBK\IBK_DRFN\ProjSrc\SrcChartEx\ChartAddIn\ChartAnalysisToolAddIn\AnalysisTool\AutoTrendData.cpp

; 379  : 	if( strPacketName == _MTEXT( C0_LOW)) // "저가"

  000f7	75 20		 jne	 SHORT $LN23@GetRelativ

; 380  : 		return 1;

  000f9	ff 15 00 00 00
	00		 call	 DWORD PTR __imp_??1?$CStringT@DV?$StrTraitMFC_DLL@DV?$ChTraitsCRT@D@ATL@@@@@ATL@@QAE@XZ
; File D:\git\src\IBK\IBK_DRFN\ProjSrc\SrcChartEx\ChartAddIn\ChartAnalysisToolAddIn\Include_AddIn_133101\I133101\_IString.h

; 44   : 	{

  000ff	c7 45 fc 02 00
	00 00		 mov	 DWORD PTR __$EHRec$[ebp+8], 2

; 45   : 		if( m_pIStrData)

  00106	85 f6		 test	 esi, esi
  00108	74 06		 je	 SHORT $LN36@GetRelativ

; 46   : 		{
; 47   : 			m_pIStrData->Release();

  0010a	8b 06		 mov	 eax, DWORD PTR [esi]
  0010c	56		 push	 esi
  0010d	ff 50 08	 call	 DWORD PTR [eax+8]
$LN36@GetRelativ:
; File D:\git\src\IBK\IBK_DRFN\ProjSrc\SrcChartEx\ChartAddIn\ChartAnalysisToolAddIn\AnalysisTool\AutoTrendData.cpp

; 380  : 		return 1;

  00110	c7 45 0c 01 00
	00 00		 mov	 DWORD PTR _nComparisonData$1$[ebp], 1
  00117	eb 37		 jmp	 SHORT $LN73@GetRelativ
$LN23@GetRelativ:

; 381  : 	else if(strPacketName == _MTEXT( C0_HIGH)) // "고가"

  00119	a1 54 00 00 00	 mov	 eax, DWORD PTR ?g_iMetaTable@@3VIMetaTable@@A+84
; File C:\Program Files (x86)\Microsoft Visual Studio\2019\Community\VC\Tools\MSVC\14.29.30133\atlmfc\include\cstringt.h

; 2486 : 		return(str1.Compare(psz2) == 0);

  0011e	ff 70 0c	 push	 DWORD PTR [eax+12]
  00121	ff 15 00 00 00
	00		 call	 DWORD PTR __imp_?Compare@?$CStringT@DV?$StrTraitMFC_DLL@DV?$ChTraitsCRT@D@ATL@@@@@ATL@@QBEHPBD@Z
; File D:\git\src\IBK\IBK_DRFN\ProjSrc\SrcChartEx\ChartAddIn\ChartAnalysisToolAddIn\AnalysisTool\AutoTrendData.cpp

; 381  : 	else if(strPacketName == _MTEXT( C0_HIGH)) // "고가"

  00127	8d 4d 0c	 lea	 ecx, DWORD PTR _strPacketName$7[ebp]
; File C:\Program Files (x86)\Microsoft Visual Studio\2019\Community\VC\Tools\MSVC\14.29.30133\atlmfc\include\cstringt.h

; 2486 : 		return(str1.Compare(psz2) == 0);

  0012a	85 c0		 test	 eax, eax
; File D:\git\src\IBK\IBK_DRFN\ProjSrc\SrcChartEx\ChartAddIn\ChartAnalysisToolAddIn\AnalysisTool\AutoTrendData.cpp

; 381  : 	else if(strPacketName == _MTEXT( C0_HIGH)) // "고가"

  0012c	0f 85 10 01 00
	00		 jne	 $LN25@GetRelativ

; 382  : 		return 2;

  00132	ff 15 00 00 00
	00		 call	 DWORD PTR __imp_??1?$CStringT@DV?$StrTraitMFC_DLL@DV?$ChTraitsCRT@D@ATL@@@@@ATL@@QAE@XZ
; File D:\git\src\IBK\IBK_DRFN\ProjSrc\SrcChartEx\ChartAddIn\ChartAnalysisToolAddIn\Include_AddIn_133101\I133101\_IString.h

; 44   : 	{

  00138	c7 45 fc 03 00
	00 00		 mov	 DWORD PTR __$EHRec$[ebp+8], 3

; 45   : 		if( m_pIStrData)

  0013f	85 f6		 test	 esi, esi
  00141	74 06		 je	 SHORT $LN42@GetRelativ

; 46   : 		{
; 47   : 			m_pIStrData->Release();

  00143	8b 06		 mov	 eax, DWORD PTR [esi]
  00145	56		 push	 esi
  00146	ff 50 08	 call	 DWORD PTR [eax+8]
$LN42@GetRelativ:
; File D:\git\src\IBK\IBK_DRFN\ProjSrc\SrcChartEx\ChartAddIn\ChartAnalysisToolAddIn\AnalysisTool\AutoTrendData.cpp

; 382  : 		return 2;

  00149	c7 45 0c 02 00
	00 00		 mov	 DWORD PTR _nComparisonData$1$[ebp], 2
$LN73@GetRelativ:

; 303  : 
; 304  : 	int nComparisonData = GetComparisonData(pDataPacket);
; 305  : 	if(nComparisonData <= 0)
; 306  : 		return false;
; 307  : 
; 308  : 	POSITION indexPos = piIndexList->FindIndex( nCurrentDataIndex);

  00150	8b 07		 mov	 eax, DWORD PTR [edi]
  00152	8b cf		 mov	 ecx, edi
  00154	8b 75 10	 mov	 esi, DWORD PTR _nCurrentDataIndex$[ebp]
  00157	56		 push	 esi
  00158	c7 45 fc ff ff
	ff ff		 mov	 DWORD PTR __$EHRec$[ebp+8], -1
  0015f	ff 50 5c	 call	 DWORD PTR [eax+92]
  00162	89 45 ec	 mov	 DWORD PTR _indexPos$[ebp], eax

; 309  : 	POSITION dataPos = piDataList->FindIndex( nCurrentDataIndex);

  00165	33 c9		 xor	 ecx, ecx
  00167	8b 45 f0	 mov	 eax, DWORD PTR _piDataList$1$[ebp]
  0016a	56		 push	 esi
  0016b	8b 00		 mov	 eax, DWORD PTR [eax]
  0016d	ff 50 5c	 call	 DWORD PTR [eax+92]
  00170	89 45 e8	 mov	 DWORD PTR _dataPos$[ebp], eax

; 310  : 	bool bRightPt = true;

  00173	b3 01		 mov	 bl, 1

; 311  : 	for(int nDataIndex = nCurrentDataIndex; nDataIndex >= 0; nDataIndex--)

  00175	85 f6		 test	 esi, esi
  00177	0f 88 b6 00 00
	00		 js	 $LN67@GetRelativ
  0017d	8b 7d 18	 mov	 edi, DWORD PTR _atRightPt$[ebp]
$LL4@GetRelativ:

; 312  : 	{
; 313  : 		if(indexPos == NULL || dataPos == NULL)

  00180	83 7d ec 00	 cmp	 DWORD PTR _indexPos$[ebp], 0
  00184	0f 84 a6 00 00
	00		 je	 $LN70@GetRelativ
  0018a	85 c0		 test	 eax, eax
  0018c	0f 84 9e 00 00
	00		 je	 $LN70@GetRelativ

; 314  : 			break;
; 315  : 
; 316  : 		double dData = 0.0;
; 317  : 		piIndexList->GetPrev( indexPos, dData);

  00192	8b 4d 08	 mov	 ecx, DWORD PTR _piIndexList$1$[ebp]
  00195	8d 55 d8	 lea	 edx, DWORD PTR _dData$4[ebp]
  00198	52		 push	 edx
  00199	8d 55 ec	 lea	 edx, DWORD PTR _indexPos$[ebp]
  0019c	0f 57 c0	 xorps	 xmm0, xmm0
  0019f	52		 push	 edx
  001a0	8b 01		 mov	 eax, DWORD PTR [ecx]
  001a2	f2 0f 11 45 d8	 movsd	 QWORD PTR _dData$4[ebp], xmm0
  001a7	ff 50 40	 call	 DWORD PTR [eax+64]

; 318  : 
; 319  : 		double dPrice = 0.0;
; 320  : 		piDataList->GetPrev( dataPos, dPrice);

  001aa	8b 45 f0	 mov	 eax, DWORD PTR _piDataList$1$[ebp]
  001ad	8d 4d e0	 lea	 ecx, DWORD PTR _dPrice$6[ebp]
  001b0	51		 push	 ecx
  001b1	8d 4d e8	 lea	 ecx, DWORD PTR _dataPos$[ebp]
  001b4	0f 57 c0	 xorps	 xmm0, xmm0
  001b7	51		 push	 ecx
  001b8	8b 00		 mov	 eax, DWORD PTR [eax]
  001ba	33 c9		 xor	 ecx, ecx
  001bc	f2 0f 11 45 e0	 movsd	 QWORD PTR _dPrice$6[ebp], xmm0
  001c1	ff 50 40	 call	 DWORD PTR [eax+64]

; 321  : 
; 322  : 		if((int)dData != nComparisonData)

  001c4	f2 0f 2c 45 d8	 cvttsd2si eax, QWORD PTR _dData$4[ebp]
  001c9	3b 45 0c	 cmp	 eax, DWORD PTR _nComparisonData$1$[ebp]
  001cc	75 19		 jne	 SHORT $LN2@GetRelativ

; 323  : 			continue;
; 324  : 
; 325  : 		if(!bRightPt)

  001ce	84 db		 test	 bl, bl
  001d0	74 1f		 je	 SHORT $LN61@GetRelativ

; 26   : 	if(this == &data)

  001d2	8d 45 c8	 lea	 eax, DWORD PTR $T3[ebp]
  001d5	3b f8		 cmp	 edi, eax
  001d7	74 0c		 je	 SHORT $LN56@GetRelativ

; 27   : 		return *this;
; 28   : 
; 29   : 	m_nIndex = data.GetIndex();
; 30   : 	m_dPrice = data.GetPrice();

  001d9	f2 0f 10 45 e0	 movsd	 xmm0, QWORD PTR _dPrice$6[ebp]
  001de	89 37		 mov	 DWORD PTR [edi], esi
  001e0	f2 0f 11 47 08	 movsd	 QWORD PTR [edi+8], xmm0
$LN56@GetRelativ:

; 331  : 		}
; 332  : 		atRightPt = CAutoTrendPoint(nDataIndex, dPrice);
; 333  : 		bRightPt = false;

  001e5	32 db		 xor	 bl, bl
$LN2@GetRelativ:

; 311  : 	for(int nDataIndex = nCurrentDataIndex; nDataIndex >= 0; nDataIndex--)

  001e7	83 ee 01	 sub	 esi, 1
  001ea	78 44		 js	 SHORT $LN70@GetRelativ
  001ec	8b 45 e8	 mov	 eax, DWORD PTR _dataPos$[ebp]
  001ef	eb 8f		 jmp	 SHORT $LL4@GetRelativ
$LN61@GetRelativ:

; 26   : 	if(this == &data)

  001f1	8b 45 14	 mov	 eax, DWORD PTR _atLeftPt$[ebp]
  001f4	8d 4d b8	 lea	 ecx, DWORD PTR $T2[ebp]
  001f7	3b c1		 cmp	 eax, ecx
  001f9	74 0c		 je	 SHORT $LN51@GetRelativ

; 27   : 		return *this;
; 28   : 
; 29   : 	m_nIndex = data.GetIndex();
; 30   : 	m_dPrice = data.GetPrice();

  001fb	f2 0f 10 45 e0	 movsd	 xmm0, QWORD PTR _dPrice$6[ebp]
  00200	89 30		 mov	 DWORD PTR [eax], esi
  00202	f2 0f 11 40 08	 movsd	 QWORD PTR [eax+8], xmm0
$LN51@GetRelativ:

; 326  : 		{
; 327  : 			atLeftPt = CAutoTrendPoint(nDataIndex, dPrice);
; 328  : 			piIndexList->Release();

  00207	8b 7d 08	 mov	 edi, DWORD PTR _piIndexList$1$[ebp]
  0020a	57		 push	 edi
  0020b	8b 07		 mov	 eax, DWORD PTR [edi]
  0020d	ff 50 08	 call	 DWORD PTR [eax+8]

; 329  : 			piDataList->Release();

  00210	8b 4d f0	 mov	 ecx, DWORD PTR _piDataList$1$[ebp]
  00213	6a 00		 push	 0
  00215	8b 01		 mov	 eax, DWORD PTR [ecx]
  00217	ff 50 08	 call	 DWORD PTR [eax+8]

; 330  : 			return true;

  0021a	b0 01		 mov	 al, 1

; 338  : }

  0021c	8b 4d f4	 mov	 ecx, DWORD PTR __$EHRec$[ebp]
  0021f	64 89 0d 00 00
	00 00		 mov	 DWORD PTR fs:0, ecx
  00226	59		 pop	 ecx
  00227	5f		 pop	 edi
  00228	5e		 pop	 esi
  00229	5b		 pop	 ebx
  0022a	8b e5		 mov	 esp, ebp
  0022c	5d		 pop	 ebp
  0022d	c2 14 00	 ret	 20			; 00000014H
$LN70@GetRelativ:

; 334  : 	}
; 335  : 	piIndexList->Release();

  00230	8b 7d 08	 mov	 edi, DWORD PTR _piIndexList$1$[ebp]
$LN67@GetRelativ:
  00233	8b 07		 mov	 eax, DWORD PTR [edi]
  00235	57		 push	 edi
  00236	ff 50 08	 call	 DWORD PTR [eax+8]

; 336  : 	piDataList->Release();

  00239	8b 4d f0	 mov	 ecx, DWORD PTR _piDataList$1$[ebp]
  0023c	6a 00		 push	 0
  0023e	8b 01		 mov	 eax, DWORD PTR [ecx]

; 337  : 	return false;

  00240	eb 14		 jmp	 SHORT $LN74@GetRelativ
$LN25@GetRelativ:

; 384  : 	return -1;

  00242	ff 15 00 00 00
	00		 call	 DWORD PTR __imp_??1?$CStringT@DV?$StrTraitMFC_DLL@DV?$ChTraitsCRT@D@ATL@@@@@ATL@@QAE@XZ
; File D:\git\src\IBK\IBK_DRFN\ProjSrc\SrcChartEx\ChartAddIn\ChartAnalysisToolAddIn\Include_AddIn_133101\I133101\_IString.h

; 44   : 	{

  00248	c7 45 fc 04 00
	00 00		 mov	 DWORD PTR __$EHRec$[ebp+8], 4

; 45   : 		if( m_pIStrData)

  0024f	85 f6		 test	 esi, esi
  00251	74 06		 je	 SHORT $LN7@GetRelativ

; 46   : 		{
; 47   : 			m_pIStrData->Release();

  00253	8b 06		 mov	 eax, DWORD PTR [esi]
  00255	56		 push	 esi
$LN74@GetRelativ:
; File D:\git\src\IBK\IBK_DRFN\ProjSrc\SrcChartEx\ChartAddIn\ChartAnalysisToolAddIn\AnalysisTool\AutoTrendData.cpp

; 338  : }

  00256	ff 50 08	 call	 DWORD PTR [eax+8]
$LN7@GetRelativ:
  00259	32 c0		 xor	 al, al
  0025b	8b 4d f4	 mov	 ecx, DWORD PTR __$EHRec$[ebp]
  0025e	64 89 0d 00 00
	00 00		 mov	 DWORD PTR fs:0, ecx
  00265	59		 pop	 ecx
  00266	5f		 pop	 edi
  00267	5e		 pop	 esi
  00268	5b		 pop	 ebx
  00269	8b e5		 mov	 esp, ebp
  0026b	5d		 pop	 ebp
  0026c	c2 14 00	 ret	 20			; 00000014H
_TEXT	ENDS
;	COMDAT text$x
text$x	SEGMENT
__unwindfunclet$?GetRelativePoints@CAutoTrendDrawingCalculator@@ABE_NPAUIPacket133101@@0HAAVCAutoTrendPoint@@1@Z$0:
  00000	8d 4d e0	 lea	 ecx, DWORD PTR _szPacketName$5[ebp]
  00003	e9 00 00 00 00	 jmp	 ??1ILPCSTR133101@@QAE@XZ ; ILPCSTR133101::~ILPCSTR133101
__unwindfunclet$?GetRelativePoints@CAutoTrendDrawingCalculator@@ABE_NPAUIPacket133101@@0HAAVCAutoTrendPoint@@1@Z$1:
  00008	8d 4d 0c	 lea	 ecx, DWORD PTR _strPacketName$7[ebp]
  0000b	ff 25 00 00 00
	00		 jmp	 DWORD PTR __imp_??1?$CStringT@DV?$StrTraitMFC_DLL@DV?$ChTraitsCRT@D@ATL@@@@@ATL@@QAE@XZ
  00011	cc		 int	 3
  00012	cc		 int	 3
  00013	cc		 int	 3
  00014	cc		 int	 3
  00015	cc		 int	 3
__ehhandler$?GetRelativePoints@CAutoTrendDrawingCalculator@@ABE_NPAUIPacket133101@@0HAAVCAutoTrendPoint@@1@Z:
  00016	90		 npad	 1
  00017	90		 npad	 1
  00018	8b 54 24 08	 mov	 edx, DWORD PTR [esp+8]
  0001c	8d 42 0c	 lea	 eax, DWORD PTR [edx+12]
  0001f	8b 4a b4	 mov	 ecx, DWORD PTR [edx-76]
  00022	33 c8		 xor	 ecx, eax
  00024	e8 00 00 00 00	 call	 @__security_check_cookie@4
  00029	b8 00 00 00 00	 mov	 eax, OFFSET __ehfuncinfo$?GetRelativePoints@CAutoTrendDrawingCalculator@@ABE_NPAUIPacket133101@@0HAAVCAutoTrendPoint@@1@Z
  0002e	e9 00 00 00 00	 jmp	 ___CxxFrameHandler3
text$x	ENDS
?GetRelativePoints@CAutoTrendDrawingCalculator@@ABE_NPAUIPacket133101@@0HAAVCAutoTrendPoint@@1@Z ENDP ; CAutoTrendDrawingCalculator::GetRelativePoints
; Function compile flags: /Ogtp
; File D:\git\src\IBK\IBK_DRFN\ProjSrc\SrcChartEx\ChartAddIn\ChartAnalysisToolAddIn\AnalysisTool\AutoTrendData.cpp
; File C:\Program Files (x86)\Microsoft Visual Studio\2019\Community\VC\Tools\MSVC\14.29.30133\atlmfc\include\afxtempl.h
; File D:\git\src\IBK\IBK_DRFN\ProjSrc\SrcChartEx\ChartAddIn\ChartAnalysisToolAddIn\AnalysisTool\AutoTrendData.cpp
; File C:\Program Files (x86)\Microsoft Visual Studio\2019\Community\VC\Tools\MSVC\14.29.30133\atlmfc\include\afxtempl.h
; File D:\git\src\IBK\IBK_DRFN\ProjSrc\SrcChartEx\ChartAddIn\ChartAnalysisToolAddIn\AnalysisTool\AutoTrendData.cpp
; File C:\Program Files (x86)\Microsoft Visual Studio\2019\Community\VC\Tools\MSVC\14.29.30133\atlmfc\include\afxtempl.h
; File D:\git\src\IBK\IBK_DRFN\ProjSrc\SrcChartEx\ChartAddIn\ChartAnalysisToolAddIn\AnalysisTool\AutoTrendData.cpp
;	COMDAT ?GetDrawingPoints@CAutoTrendDrawingCalculator@@ABE_NABVCAutoTrendDrawingCalculatorData@@HHAAVCPoint@@1@Z
_TEXT	SEGMENT
$T2 = -204						; size = 8
$T3 = -204						; size = 8
_atRightPt$ = -196					; size = 16
$T4 = -180						; size = 8
$T5 = -180						; size = 8
$T6 = -172						; size = 8
$T7 = -172						; size = 8
$T8 = -164						; size = 8
$T9 = -164						; size = 8
_rightPt$GSCopy$1$ = -156				; size = 4
$T10 = -152						; size = 8
_leftPt$GSCopy$1$ = -148				; size = 4
$T11 = -144						; size = 96
$T12 = -48						; size = 16
_atLeftPt$ = -48					; size = 16
$T13 = -32						; size = 16
$T14 = -24						; size = 8
tv436 = -20						; size = 4
_this$1$ = -20						; size = 4
__$ArrayPad$ = -16					; size = 4
__$EHRec$ = -12						; size = 12
_calData$ = 8						; size = 4
_nCurrentDataIndex$ = 12				; size = 4
_nPacketIndex$ = 16					; size = 4
_leftPt$ = 20						; size = 4
_rightPt$ = 24						; size = 4
?GetDrawingPoints@CAutoTrendDrawingCalculator@@ABE_NABVCAutoTrendDrawingCalculatorData@@HHAAVCPoint@@1@Z PROC ; CAutoTrendDrawingCalculator::GetDrawingPoints, COMDAT
; _this$ = ecx

; 282  : {

  00000	55		 push	 ebp
  00001	8b ec		 mov	 ebp, esp
  00003	6a ff		 push	 -1
  00005	68 00 00 00 00	 push	 __ehhandler$?GetDrawingPoints@CAutoTrendDrawingCalculator@@ABE_NABVCAutoTrendDrawingCalculatorData@@HHAAVCPoint@@1@Z
  0000a	64 a1 00 00 00
	00		 mov	 eax, DWORD PTR fs:0
  00010	50		 push	 eax
  00011	81 ec c0 00 00
	00		 sub	 esp, 192		; 000000c0H
  00017	a1 00 00 00 00	 mov	 eax, DWORD PTR ___security_cookie
  0001c	33 c5		 xor	 eax, ebp
  0001e	89 45 f0	 mov	 DWORD PTR __$ArrayPad$[ebp], eax
  00021	53		 push	 ebx
  00022	56		 push	 esi
  00023	57		 push	 edi
  00024	50		 push	 eax
  00025	8d 45 f4	 lea	 eax, DWORD PTR __$EHRec$[ebp]
  00028	64 a3 00 00 00
	00		 mov	 DWORD PTR fs:0, eax
  0002e	89 4d ec	 mov	 DWORD PTR _this$1$[ebp], ecx
  00031	8b 5d 08	 mov	 ebx, DWORD PTR _calData$[ebp]
  00034	0f 57 c0	 xorps	 xmm0, xmm0
  00037	8b 45 14	 mov	 eax, DWORD PTR _leftPt$[ebp]
  0003a	89 85 6c ff ff
	ff		 mov	 DWORD PTR _leftPt$GSCopy$1$[ebp], eax
  00040	8b 45 18	 mov	 eax, DWORD PTR _rightPt$[ebp]
; File C:\Program Files (x86)\Microsoft Visual Studio\2019\Community\VC\Tools\MSVC\14.29.30133\atlmfc\include\afxtempl.h

; 1133 : 	if (nIndex >= m_nCount || nIndex < 0)

  00043	8b 4b 1c	 mov	 ecx, DWORD PTR [ebx+28]
; File D:\git\src\IBK\IBK_DRFN\ProjSrc\SrcChartEx\ChartAddIn\ChartAnalysisToolAddIn\AnalysisTool\AutoTrendData.cpp

; 282  : {

  00046	89 85 64 ff ff
	ff		 mov	 DWORD PTR _rightPt$GSCopy$1$[ebp], eax

; 41   : 	m_nIndex(nIndex),

  0004c	c7 45 d0 00 00
	00 00		 mov	 DWORD PTR _atLeftPt$[ebp], 0

; 42   : 	m_dPrice(dPrice)

  00053	f2 0f 11 45 d8	 movsd	 QWORD PTR _atLeftPt$[ebp+8], xmm0

; 41   : 	m_nIndex(nIndex),

  00058	c7 85 3c ff ff
	ff 00 00 00 00	 mov	 DWORD PTR _atRightPt$[ebp], 0

; 42   : 	m_dPrice(dPrice)

  00062	f2 0f 11 85 44
	ff ff ff	 movsd	 QWORD PTR _atRightPt$[ebp+8], xmm0
; File C:\Program Files (x86)\Microsoft Visual Studio\2019\Community\VC\Tools\MSVC\14.29.30133\atlmfc\include\afxtempl.h

; 1133 : 	if (nIndex >= m_nCount || nIndex < 0)

  0006a	85 c9		 test	 ecx, ecx
  0006c	7e 19		 jle	 SHORT $LN51@GetDrawing

; 1134 : 		return NULL;  // went too far
; 1135 : 
; 1136 : 	CNode* pNode = m_pNodeHead;

  0006e	8b 7b 14	 mov	 edi, DWORD PTR [ebx+20]
; File D:\git\src\IBK\IBK_DRFN\ProjSrc\SrcChartEx\ChartAddIn\ChartAnalysisToolAddIn\AnalysisTool\AutoTrendData.cpp

; 174  : 	if(pos == NULL) return NULL;

  00071	85 ff		 test	 edi, edi
  00073	74 12		 je	 SHORT $LN51@GetDrawing

; 175  : 
; 176  : 	IPacket *pIPacket = m_packetList.GetAt( pos);

  00075	8b 7f 08	 mov	 edi, DWORD PTR [edi+8]

; 177  : 	if( pIPacket) pIPacket->AddRef();

  00078	85 ff		 test	 edi, edi
  0007a	74 0d		 je	 SHORT $LN11@GetDrawing
  0007c	8b 07		 mov	 eax, DWORD PTR [edi]
  0007e	57		 push	 edi
  0007f	ff 50 04	 call	 DWORD PTR [eax+4]
  00082	8b 4b 1c	 mov	 ecx, DWORD PTR [ebx+28]

; 178  : 	return pIPacket;

  00085	eb 02		 jmp	 SHORT $LN11@GetDrawing
$LN51@GetDrawing:

; 174  : 	if(pos == NULL) return NULL;

  00087	33 ff		 xor	 edi, edi
$LN11@GetDrawing:

; 173  : 	POSITION pos = m_packetList.FindIndex(nIndex);

  00089	8b 45 10	 mov	 eax, DWORD PTR _nPacketIndex$[ebp]
; File C:\Program Files (x86)\Microsoft Visual Studio\2019\Community\VC\Tools\MSVC\14.29.30133\atlmfc\include\afxtempl.h

; 1133 : 	if (nIndex >= m_nCount || nIndex < 0)

  0008c	3b c1		 cmp	 eax, ecx
  0008e	7d 2a		 jge	 SHORT $LN52@GetDrawing
  00090	85 c0		 test	 eax, eax
  00092	78 26		 js	 SHORT $LN52@GetDrawing

; 1134 : 		return NULL;  // went too far
; 1135 : 
; 1136 : 	CNode* pNode = m_pNodeHead;

  00094	8b 4b 14	 mov	 ecx, DWORD PTR [ebx+20]

; 1137 : 	while (nIndex--)

  00097	74 0e		 je	 SHORT $LN45@GetDrawing
  00099	0f 1f 80 00 00
	00 00		 npad	 7
$LL26@GetDrawing:

; 1138 : 	{
; 1139 : 		ASSERT(AfxIsValidAddress(pNode, sizeof(CNode)));
; 1140 : 		pNode = pNode->pNext;

  000a0	8b 09		 mov	 ecx, DWORD PTR [ecx]
  000a2	83 e8 01	 sub	 eax, 1
  000a5	75 f9		 jne	 SHORT $LL26@GetDrawing
$LN45@GetDrawing:
; File D:\git\src\IBK\IBK_DRFN\ProjSrc\SrcChartEx\ChartAddIn\ChartAnalysisToolAddIn\AnalysisTool\AutoTrendData.cpp

; 174  : 	if(pos == NULL) return NULL;

  000a7	85 c9		 test	 ecx, ecx
  000a9	74 0f		 je	 SHORT $LN52@GetDrawing

; 175  : 
; 176  : 	IPacket *pIPacket = m_packetList.GetAt( pos);

  000ab	8b 71 08	 mov	 esi, DWORD PTR [ecx+8]

; 177  : 	if( pIPacket) pIPacket->AddRef();

  000ae	85 f6		 test	 esi, esi
  000b0	74 0a		 je	 SHORT $LN21@GetDrawing
  000b2	8b 06		 mov	 eax, DWORD PTR [esi]
  000b4	56		 push	 esi
  000b5	ff 50 04	 call	 DWORD PTR [eax+4]

; 178  : 	return pIPacket;

  000b8	eb 02		 jmp	 SHORT $LN21@GetDrawing
$LN52@GetDrawing:

; 174  : 	if(pos == NULL) return NULL;

  000ba	33 f6		 xor	 esi, esi
$LN21@GetDrawing:

; 283  : 	CAutoTrendPoint atLeftPt(0, 0.0), atRightPt(0, 0.0);
; 284  : 	IPacket *pIPacket0 = calData.GetPacket( 0);
; 285  : 	IPacket *pIPacket = calData.GetPacket( nPacketIndex);
; 286  : 	BOOL bResult = GetRelativePoints( pIPacket0, pIPacket, nCurrentDataIndex, atLeftPt, atRightPt);

  000bc	8b 4d ec	 mov	 ecx, DWORD PTR _this$1$[ebp]
  000bf	8d 85 3c ff ff
	ff		 lea	 eax, DWORD PTR _atRightPt$[ebp]
  000c5	50		 push	 eax
  000c6	8d 45 d0	 lea	 eax, DWORD PTR _atLeftPt$[ebp]
  000c9	50		 push	 eax
  000ca	ff 75 0c	 push	 DWORD PTR _nCurrentDataIndex$[ebp]
  000cd	56		 push	 esi
  000ce	57		 push	 edi
  000cf	e8 00 00 00 00	 call	 ?GetRelativePoints@CAutoTrendDrawingCalculator@@ABE_NPAUIPacket133101@@0HAAVCAutoTrendPoint@@1@Z ; CAutoTrendDrawingCalculator::GetRelativePoints
  000d4	0f b6 c0	 movzx	 eax, al
  000d7	89 45 ec	 mov	 DWORD PTR tv436[ebp], eax

; 287  : 	if( pIPacket0) pIPacket0->Release();

  000da	85 ff		 test	 edi, edi
  000dc	74 06		 je	 SHORT $LN2@GetDrawing
  000de	8b 07		 mov	 eax, DWORD PTR [edi]
  000e0	57		 push	 edi
  000e1	ff 50 08	 call	 DWORD PTR [eax+8]
$LN2@GetDrawing:

; 288  : 	if( pIPacket) pIPacket->Release();

  000e4	85 f6		 test	 esi, esi
  000e6	74 06		 je	 SHORT $LN3@GetDrawing
  000e8	8b 06		 mov	 eax, DWORD PTR [esi]
  000ea	56		 push	 esi
  000eb	ff 50 08	 call	 DWORD PTR [eax+8]
$LN3@GetDrawing:

; 289  : 	if( !bResult) return false;

  000ee	83 7d ec 00	 cmp	 DWORD PTR tv436[ebp], 0
  000f2	75 07		 jne	 SHORT $LN4@GetDrawing
  000f4	32 c0		 xor	 al, al
  000f6	e9 b3 01 00 00	 jmp	 $LN1@GetDrawing
$LN4@GetDrawing:

; 183  : 	return m_calData;

  000fb	8d 43 30	 lea	 eax, DWORD PTR [ebx+48]
  000fe	50		 push	 eax
  000ff	8d 8d 70 ff ff
	ff		 lea	 ecx, DWORD PTR $T11[ebp]
  00105	e8 00 00 00 00	 call	 ??0CCoordinateCalculatorData@@QAE@ABV0@@Z ; CCoordinateCalculatorData::CCoordinateCalculatorData

; 344  : 	IPacket *pIPacket = calData.GetPacket_X();

  0010a	8d 8d 70 ff ff
	ff		 lea	 ecx, DWORD PTR $T11[ebp]

; 290  : 
; 291  : 	return GetAbsolutePoints(calData.GetCoordinateCalculatorData(), atLeftPt, atRightPt, leftPt, rightPt);

  00110	c7 45 fc 00 00
	00 00		 mov	 DWORD PTR __$EHRec$[ebp+8], 0

; 344  : 	IPacket *pIPacket = calData.GetPacket_X();

  00117	e8 00 00 00 00	 call	 ?GetPacket_X@CCoordinateCalculatorData@@QBEPAUIPacket133101@@XZ ; CCoordinateCalculatorData::GetPacket_X
  0011c	8b f8		 mov	 edi, eax

; 345  : 	if( pIPacket)

  0011e	85 ff		 test	 edi, edi
  00120	0f 84 79 01 00
	00		 je	 $LN53@GetDrawing

; 346  : 	{
; 347  : 		nDataCount = pIPacket->GetDataCount();

  00126	8b 17		 mov	 edx, DWORD PTR [edi]
  00128	8b cf		 mov	 ecx, edi
  0012a	ff 52 2c	 call	 DWORD PTR [edx+44]

; 348  : 		pIPacket->Release();

  0012d	8b 0f		 mov	 ecx, DWORD PTR [edi]
  0012f	8b f0		 mov	 esi, eax
  00131	57		 push	 edi
  00132	ff 51 08	 call	 DWORD PTR [ecx+8]

; 349  : 		pIPacket = NULL;
; 350  : 	}
; 351  : 	if( nDataCount <= 0) return false;

  00135	85 f6		 test	 esi, esi
  00137	0f 8e 62 01 00
	00		 jle	 $LN53@GetDrawing

; 352  : 
; 353  : 	if(atLeftPt.GetIndex() < 0 || atRightPt.GetIndex() < 0)

  0013d	8b 75 d0	 mov	 esi, DWORD PTR _atLeftPt$[ebp]
  00140	85 f6		 test	 esi, esi
  00142	0f 88 57 01 00
	00		 js	 $LN53@GetDrawing
  00148	8b bd 3c ff ff
	ff		 mov	 edi, DWORD PTR _atRightPt$[ebp]
  0014e	85 ff		 test	 edi, edi
  00150	0f 88 49 01 00
	00		 js	 $LN53@GetDrawing

; 354  : 		return false;
; 355  : 
; 356  : 	leftPt = CDataConversion::RelativeToAbsolute(calData.GetRegion(), 

  00156	f2 0f 10 45 d8	 movsd	 xmm0, QWORD PTR _atLeftPt$[ebp+8]
  0015b	8d 45 e8	 lea	 eax, DWORD PTR $T14[ebp]
  0015e	50		 push	 eax
  0015f	8d 8d 70 ff ff
	ff		 lea	 ecx, DWORD PTR $T11[ebp]
  00165	f2 0f 11 45 e8	 movsd	 QWORD PTR $T14[ebp], xmm0
  0016a	e8 00 00 00 00	 call	 ?ApplyLog@CCoordinateCalculatorData@@QBENABN@Z ; CCoordinateCalculatorData::ApplyLog
  0016f	dd 9d 5c ff ff
	ff		 fstp	 QWORD PTR $T9[ebp]
  00175	8d 8d 70 ff ff
	ff		 lea	 ecx, DWORD PTR $T11[ebp]
  0017b	e8 00 00 00 00	 call	 ?GetDisplayDataMax_ScaleType@CCoordinateCalculatorData@@QBENXZ ; CCoordinateCalculatorData::GetDisplayDataMax_ScaleType
  00180	dd 9d 54 ff ff
	ff		 fstp	 QWORD PTR $T7[ebp]
  00186	8d 8d 70 ff ff
	ff		 lea	 ecx, DWORD PTR $T11[ebp]
  0018c	e8 00 00 00 00	 call	 ?GetDisplayDataMin_ScaleType@CCoordinateCalculatorData@@QBENXZ ; CCoordinateCalculatorData::GetDisplayDataMin_ScaleType
  00191	8d 85 5c ff ff
	ff		 lea	 eax, DWORD PTR $T9[ebp]
  00197	50		 push	 eax
  00198	56		 push	 esi
  00199	8d 85 54 ff ff
	ff		 lea	 eax, DWORD PTR $T7[ebp]
  0019f	50		 push	 eax
  001a0	8d 85 4c ff ff
	ff		 lea	 eax, DWORD PTR $T5[ebp]
  001a6	50		 push	 eax
  001a7	8d 8d 70 ff ff
	ff		 lea	 ecx, DWORD PTR $T11[ebp]
  001ad	dd 9d 4c ff ff
	ff		 fstp	 QWORD PTR $T5[ebp]
  001b3	e8 00 00 00 00	 call	 ?GetDisplayDataEnd@CCoordinateCalculatorData@@QBEHXZ ; CCoordinateCalculatorData::GetDisplayDataEnd
  001b8	50		 push	 eax
  001b9	8d 8d 70 ff ff
	ff		 lea	 ecx, DWORD PTR $T11[ebp]
  001bf	e8 00 00 00 00	 call	 ?GetDisplayDataStart@CCoordinateCalculatorData@@QBEHXZ ; CCoordinateCalculatorData::GetDisplayDataStart
  001c4	50		 push	 eax
  001c5	8d 45 d0	 lea	 eax, DWORD PTR $T12[ebp]
  001c8	50		 push	 eax
  001c9	8d 8d 70 ff ff
	ff		 lea	 ecx, DWORD PTR $T11[ebp]
  001cf	e8 00 00 00 00	 call	 ?GetRegion@CCoordinateCalculatorData@@QBE?AVCRect@@XZ ; CCoordinateCalculatorData::GetRegion
  001d4	50		 push	 eax
  001d5	8d 85 34 ff ff
	ff		 lea	 eax, DWORD PTR $T3[ebp]
  001db	50		 push	 eax
  001dc	e8 00 00 00 00	 call	 ?RelativeToAbsolute@CDataConversion@@SA?AVCPoint@@ABVCRect@@HHABN1H1@Z ; CDataConversion::RelativeToAbsolute
  001e1	8b 95 6c ff ff
	ff		 mov	 edx, DWORD PTR _leftPt$GSCopy$1$[ebp]
  001e7	83 c4 20	 add	 esp, 32			; 00000020H

; 357  : 			calData.GetDisplayDataStart(), calData.GetDisplayDataEnd(), 
; 358  : 			calData.GetDisplayDataMin_ScaleType(), calData.GetDisplayDataMax_ScaleType(), 
; 359  : 			atLeftPt.GetIndex(), calData.ApplyLog(atLeftPt.GetPrice()));
; 360  : 
; 361  : 	rightPt = CDataConversion::RelativeToAbsolute(calData.GetRegion(), 

  001ea	f2 0f 10 85 44
	ff ff ff	 movsd	 xmm0, QWORD PTR _atRightPt$[ebp+8]
  001f2	8b 08		 mov	 ecx, DWORD PTR [eax]
  001f4	8b 40 04	 mov	 eax, DWORD PTR [eax+4]
  001f7	89 42 04	 mov	 DWORD PTR [edx+4], eax
  001fa	8d 85 4c ff ff
	ff		 lea	 eax, DWORD PTR $T4[ebp]
  00200	89 0a		 mov	 DWORD PTR [edx], ecx
  00202	8d 8d 70 ff ff
	ff		 lea	 ecx, DWORD PTR $T11[ebp]
  00208	50		 push	 eax
  00209	f2 0f 11 85 4c
	ff ff ff	 movsd	 QWORD PTR $T4[ebp], xmm0
  00211	e8 00 00 00 00	 call	 ?ApplyLog@CCoordinateCalculatorData@@QBENABN@Z ; CCoordinateCalculatorData::ApplyLog
  00216	dd 9d 54 ff ff
	ff		 fstp	 QWORD PTR $T6[ebp]
  0021c	8d 8d 70 ff ff
	ff		 lea	 ecx, DWORD PTR $T11[ebp]
  00222	e8 00 00 00 00	 call	 ?GetDisplayDataMax_ScaleType@CCoordinateCalculatorData@@QBENXZ ; CCoordinateCalculatorData::GetDisplayDataMax_ScaleType
  00227	dd 9d 5c ff ff
	ff		 fstp	 QWORD PTR $T8[ebp]
  0022d	8d 8d 70 ff ff
	ff		 lea	 ecx, DWORD PTR $T11[ebp]
  00233	e8 00 00 00 00	 call	 ?GetDisplayDataMin_ScaleType@CCoordinateCalculatorData@@QBENXZ ; CCoordinateCalculatorData::GetDisplayDataMin_ScaleType
  00238	8d 85 54 ff ff
	ff		 lea	 eax, DWORD PTR $T6[ebp]
  0023e	50		 push	 eax
  0023f	57		 push	 edi
  00240	8d 85 5c ff ff
	ff		 lea	 eax, DWORD PTR $T8[ebp]
  00246	50		 push	 eax
  00247	8d 85 68 ff ff
	ff		 lea	 eax, DWORD PTR $T10[ebp]
  0024d	50		 push	 eax
  0024e	8d 8d 70 ff ff
	ff		 lea	 ecx, DWORD PTR $T11[ebp]
  00254	dd 9d 68 ff ff
	ff		 fstp	 QWORD PTR $T10[ebp]
  0025a	e8 00 00 00 00	 call	 ?GetDisplayDataEnd@CCoordinateCalculatorData@@QBEHXZ ; CCoordinateCalculatorData::GetDisplayDataEnd
  0025f	50		 push	 eax
  00260	8d 8d 70 ff ff
	ff		 lea	 ecx, DWORD PTR $T11[ebp]
  00266	e8 00 00 00 00	 call	 ?GetDisplayDataStart@CCoordinateCalculatorData@@QBEHXZ ; CCoordinateCalculatorData::GetDisplayDataStart
  0026b	50		 push	 eax
  0026c	8d 45 e0	 lea	 eax, DWORD PTR $T13[ebp]
  0026f	50		 push	 eax
  00270	8d 8d 70 ff ff
	ff		 lea	 ecx, DWORD PTR $T11[ebp]
  00276	e8 00 00 00 00	 call	 ?GetRegion@CCoordinateCalculatorData@@QBE?AVCRect@@XZ ; CCoordinateCalculatorData::GetRegion
  0027b	50		 push	 eax
  0027c	8d 85 34 ff ff
	ff		 lea	 eax, DWORD PTR $T2[ebp]
  00282	50		 push	 eax
  00283	e8 00 00 00 00	 call	 ?RelativeToAbsolute@CDataConversion@@SA?AVCPoint@@ABVCRect@@HHABN1H1@Z ; CDataConversion::RelativeToAbsolute
  00288	8b 95 64 ff ff
	ff		 mov	 edx, DWORD PTR _rightPt$GSCopy$1$[ebp]
  0028e	83 c4 20	 add	 esp, 32			; 00000020H

; 362  : 			calData.GetDisplayDataStart(), calData.GetDisplayDataEnd(), 
; 363  : 			calData.GetDisplayDataMin_ScaleType(), calData.GetDisplayDataMax_ScaleType(), 
; 364  : 			atRightPt.GetIndex(), calData.ApplyLog(atRightPt.GetPrice()));
; 365  : 
; 366  : 	return true;

  00291	b3 01		 mov	 bl, 1
  00293	8b 08		 mov	 ecx, DWORD PTR [eax]
  00295	8b 40 04	 mov	 eax, DWORD PTR [eax+4]
  00298	89 0a		 mov	 DWORD PTR [edx], ecx
  0029a	89 42 04	 mov	 DWORD PTR [edx+4], eax
  0029d	eb 02		 jmp	 SHORT $LN35@GetDrawing
$LN53@GetDrawing:

; 290  : 
; 291  : 	return GetAbsolutePoints(calData.GetCoordinateCalculatorData(), atLeftPt, atRightPt, leftPt, rightPt);

  0029f	32 db		 xor	 bl, bl
$LN35@GetDrawing:
  002a1	8d 8d 70 ff ff
	ff		 lea	 ecx, DWORD PTR $T11[ebp]
  002a7	e8 00 00 00 00	 call	 ??1CCoordinateCalculatorData@@QAE@XZ ; CCoordinateCalculatorData::~CCoordinateCalculatorData
  002ac	8a c3		 mov	 al, bl
$LN1@GetDrawing:

; 292  : }

  002ae	8b 4d f4	 mov	 ecx, DWORD PTR __$EHRec$[ebp]
  002b1	64 89 0d 00 00
	00 00		 mov	 DWORD PTR fs:0, ecx
  002b8	59		 pop	 ecx
  002b9	5f		 pop	 edi
  002ba	5e		 pop	 esi
  002bb	5b		 pop	 ebx
  002bc	8b 4d f0	 mov	 ecx, DWORD PTR __$ArrayPad$[ebp]
  002bf	33 cd		 xor	 ecx, ebp
  002c1	e8 00 00 00 00	 call	 @__security_check_cookie@4
  002c6	8b e5		 mov	 esp, ebp
  002c8	5d		 pop	 ebp
  002c9	c2 14 00	 ret	 20			; 00000014H
_TEXT	ENDS
;	COMDAT text$x
text$x	SEGMENT
__unwindfunclet$?GetDrawingPoints@CAutoTrendDrawingCalculator@@ABE_NABVCAutoTrendDrawingCalculatorData@@HHAAVCPoint@@1@Z$0:
  00000	8d 8d 70 ff ff
	ff		 lea	 ecx, DWORD PTR $T11[ebp]
  00006	e9 00 00 00 00	 jmp	 ??1CCoordinateCalculatorData@@QAE@XZ ; CCoordinateCalculatorData::~CCoordinateCalculatorData
  0000b	cc		 int	 3
  0000c	cc		 int	 3
  0000d	cc		 int	 3
  0000e	cc		 int	 3
  0000f	cc		 int	 3
__ehhandler$?GetDrawingPoints@CAutoTrendDrawingCalculator@@ABE_NABVCAutoTrendDrawingCalculatorData@@HHAAVCPoint@@1@Z:
  00010	90		 npad	 1
  00011	90		 npad	 1
  00012	8b 54 24 08	 mov	 edx, DWORD PTR [esp+8]
  00016	8d 42 0c	 lea	 eax, DWORD PTR [edx+12]
  00019	8b 8a 30 ff ff
	ff		 mov	 ecx, DWORD PTR [edx-208]
  0001f	33 c8		 xor	 ecx, eax
  00021	e8 00 00 00 00	 call	 @__security_check_cookie@4
  00026	8b 4a fc	 mov	 ecx, DWORD PTR [edx-4]
  00029	33 c8		 xor	 ecx, eax
  0002b	e8 00 00 00 00	 call	 @__security_check_cookie@4
  00030	b8 00 00 00 00	 mov	 eax, OFFSET __ehfuncinfo$?GetDrawingPoints@CAutoTrendDrawingCalculator@@ABE_NABVCAutoTrendDrawingCalculatorData@@HHAAVCPoint@@1@Z
  00035	e9 00 00 00 00	 jmp	 ___CxxFrameHandler3
text$x	ENDS
?GetDrawingPoints@CAutoTrendDrawingCalculator@@ABE_NABVCAutoTrendDrawingCalculatorData@@HHAAVCPoint@@1@Z ENDP ; CAutoTrendDrawingCalculator::GetDrawingPoints
; Function compile flags: /Ogtp
; File D:\git\src\IBK\IBK_DRFN\ProjSrc\SrcChartEx\ChartAddIn\ChartAnalysisToolAddIn\AnalysisTool\AutoTrendData.cpp
;	COMDAT ?DoesExistenceText@CAutoTrendDrawingCalculator@@ABE_NPAUIPacket133101@@HH@Z
_TEXT	SEGMENT
_pPacket$ = 8						; size = 4
_nStartIndex$ = 12					; size = 4
_nEndIndex$ = 16					; size = 4
?DoesExistenceText@CAutoTrendDrawingCalculator@@ABE_NPAUIPacket133101@@HH@Z PROC ; CAutoTrendDrawingCalculator::DoesExistenceText, COMDAT
; _this$ = ecx

; 272  : {

  00000	55		 push	 ebp
  00001	8b ec		 mov	 ebp, esp

; 273  : 	if(nStartIndex > nEndIndex)

  00003	8b 45 0c	 mov	 eax, DWORD PTR _nStartIndex$[ebp]
  00006	3b 45 10	 cmp	 eax, DWORD PTR _nEndIndex$[ebp]
  00009	7f 16		 jg	 SHORT $LN4@DoesExiste

; 274  : 		return false;
; 275  : 
; 276  : 	return (pPacket != NULL && pPacket->GetDataCount() > 0);

  0000b	8b 4d 08	 mov	 ecx, DWORD PTR _pPacket$[ebp]
  0000e	85 c9		 test	 ecx, ecx
  00010	74 0f		 je	 SHORT $LN4@DoesExiste
  00012	8b 01		 mov	 eax, DWORD PTR [ecx]
  00014	ff 50 2c	 call	 DWORD PTR [eax+44]
  00017	85 c0		 test	 eax, eax
  00019	7e 06		 jle	 SHORT $LN4@DoesExiste
  0001b	b0 01		 mov	 al, 1

; 277  : }

  0001d	5d		 pop	 ebp
  0001e	c2 0c 00	 ret	 12			; 0000000cH
$LN4@DoesExiste:
  00021	32 c0		 xor	 al, al
  00023	5d		 pop	 ebp
  00024	c2 0c 00	 ret	 12			; 0000000cH
?DoesExistenceText@CAutoTrendDrawingCalculator@@ABE_NPAUIPacket133101@@HH@Z ENDP ; CAutoTrendDrawingCalculator::DoesExistenceText
_TEXT	ENDS
; Function compile flags: /Ogtp
; File D:\git\src\IBK\IBK_DRFN\ProjSrc\SrcChartEx\ChartAddIn\ChartAnalysisToolAddIn\AnalysisTool\AutoTrendData.cpp
;	COMDAT ?DoesRelativePoints@CAutoTrendDrawingCalculator@@ABE_NPAUIPacket133101@@0@Z
_TEXT	SEGMENT
_pIndexPacket$ = 8					; size = 4
_pDataPacket$ = 12					; size = 4
?DoesRelativePoints@CAutoTrendDrawingCalculator@@ABE_NPAUIPacket133101@@0@Z PROC ; CAutoTrendDrawingCalculator::DoesRelativePoints, COMDAT
; _this$ = ecx

; 255  : {

  00000	55		 push	 ebp
  00001	8b ec		 mov	 ebp, esp
  00003	56		 push	 esi

; 256  : 	if(pIndexPacket == NULL || pDataPacket == NULL)

  00004	8b 75 08	 mov	 esi, DWORD PTR _pIndexPacket$[ebp]
  00007	57		 push	 edi
  00008	85 f6		 test	 esi, esi
  0000a	74 43		 je	 SHORT $LN3@DoesRelati
  0000c	8b 7d 0c	 mov	 edi, DWORD PTR _pDataPacket$[ebp]
  0000f	85 ff		 test	 edi, edi
  00011	74 3c		 je	 SHORT $LN3@DoesRelati

; 258  : 	
; 259  : 	if(pIndexPacket->GetDataList() == NULL || pDataPacket->GetDataList() == NULL)

  00013	8b 06		 mov	 eax, DWORD PTR [esi]
  00015	8b ce		 mov	 ecx, esi
  00017	ff 50 54	 call	 DWORD PTR [eax+84]
  0001a	85 c0		 test	 eax, eax
  0001c	74 31		 je	 SHORT $LN3@DoesRelati
  0001e	8b 07		 mov	 eax, DWORD PTR [edi]
  00020	8b cf		 mov	 ecx, edi
  00022	ff 50 54	 call	 DWORD PTR [eax+84]
  00025	85 c0		 test	 eax, eax
  00027	74 26		 je	 SHORT $LN3@DoesRelati

; 260  : 	{
; 261  : //		ILPCSTR szPacketName = pIndexPacket->GetPacketNameString();
; 262  : //		szPacketName = pDataPacket->GetPacketNameString();
; 263  : 		return false;
; 264  : 	}
; 265  : 
; 266  : 	if( pIndexPacket->GetDataCount() <= 0)

  00029	8b 06		 mov	 eax, DWORD PTR [esi]
  0002b	8b ce		 mov	 ecx, esi
  0002d	ff 50 2c	 call	 DWORD PTR [eax+44]
  00030	85 c0		 test	 eax, eax
  00032	7e 1b		 jle	 SHORT $LN3@DoesRelati

; 267  : 		return false;
; 268  : 	return (pIndexPacket->GetDataCount() == pDataPacket->GetDataCount());

  00034	8b 06		 mov	 eax, DWORD PTR [esi]
  00036	8b ce		 mov	 ecx, esi
  00038	ff 50 2c	 call	 DWORD PTR [eax+44]
  0003b	8b 17		 mov	 edx, DWORD PTR [edi]
  0003d	8b cf		 mov	 ecx, edi
  0003f	8b f0		 mov	 esi, eax
  00041	ff 52 2c	 call	 DWORD PTR [edx+44]
  00044	3b f0		 cmp	 esi, eax
  00046	5f		 pop	 edi
  00047	0f 94 c0	 sete	 al

; 269  : }

  0004a	5e		 pop	 esi
  0004b	5d		 pop	 ebp
  0004c	c2 08 00	 ret	 8
$LN3@DoesRelati:
  0004f	5f		 pop	 edi

; 257  : 		return false;

  00050	32 c0		 xor	 al, al

; 269  : }

  00052	5e		 pop	 esi
  00053	5d		 pop	 ebp
  00054	c2 08 00	 ret	 8
?DoesRelativePoints@CAutoTrendDrawingCalculator@@ABE_NPAUIPacket133101@@0@Z ENDP ; CAutoTrendDrawingCalculator::DoesRelativePoints
_TEXT	ENDS
; Function compile flags: /Ogtp
; File D:\git\src\IBK\IBK_DRFN\ProjSrc\SrcChartEx\ChartAddIn\ChartAnalysisToolAddIn\AnalysisTool\AutoTrendData.cpp
; File D:\git\src\IBK\IBK_DRFN\ProjSrc\SrcChartEx\ChartAddIn\ChartAnalysisToolAddIn\Include_AddIn_133101\I133101\_IString.h
; File D:\git\src\IBK\IBK_DRFN\ProjSrc\SrcChartEx\ChartAddIn\ChartAnalysisToolAddIn\AnalysisTool\AutoTrendData.cpp
; File D:\git\src\IBK\IBK_DRFN\ProjSrc\SrcChartEx\ChartAddIn\ChartAnalysisToolAddIn\Include_AddIn_133101\I133101\_IString.h
; File D:\git\src\IBK\IBK_DRFN\ProjSrc\SrcChartEx\ChartAddIn\ChartAnalysisToolAddIn\AnalysisTool\AutoTrendData.cpp
; File D:\git\src\IBK\IBK_DRFN\ProjSrc\SrcChartEx\ChartAddIn\ChartAnalysisToolAddIn\Include_AddIn_133101\I133101\_IString.h
; File D:\git\src\IBK\IBK_DRFN\ProjSrc\SrcChartEx\ChartAddIn\ChartAnalysisToolAddIn\AnalysisTool\AutoTrendData.cpp
; File D:\git\src\IBK\IBK_DRFN\ProjSrc\SrcChartEx\ChartAddIn\ChartAnalysisToolAddIn\Include_AddIn_133101\I133101\_IString.h
; File D:\git\src\IBK\IBK_DRFN\ProjSrc\SrcChartEx\ChartAddIn\ChartAnalysisToolAddIn\AnalysisTool\AutoTrendData.cpp
; File D:\git\src\IBK\IBK_DRFN\ProjSrc\SrcChartEx\ChartAddIn\ChartAnalysisToolAddIn\Include_AddIn_133101\I133101\_IString.h
; File D:\git\src\IBK\IBK_DRFN\ProjSrc\SrcChartEx\ChartAddIn\ChartAnalysisToolAddIn\AnalysisTool\AutoTrendData.cpp
;	COMDAT ?GetText@CAutoTrendDrawingCalculator@@QBE?AV?$CStringT@DV?$StrTraitMFC_DLL@DV?$ChTraitsCRT@D@ATL@@@@@ATL@@PAUIPacket133101@@HH@Z
_TEXT	SEGMENT
_szData$2 = -20						; size = 8
__$EHRec$ = -12						; size = 12
___$ReturnUdt$ = 8					; size = 4
_pPacket$ = 12						; size = 4
_pos$ = 16						; size = 4
_nStartIndex$ = 16					; size = 4
_nEndIndex$ = 20					; size = 4
?GetText@CAutoTrendDrawingCalculator@@QBE?AV?$CStringT@DV?$StrTraitMFC_DLL@DV?$ChTraitsCRT@D@ATL@@@@@ATL@@PAUIPacket133101@@HH@Z PROC ; CAutoTrendDrawingCalculator::GetText, COMDAT
; _this$ = ecx

; 229  : {

  00000	55		 push	 ebp
  00001	8b ec		 mov	 ebp, esp
  00003	6a ff		 push	 -1
  00005	68 00 00 00 00	 push	 __ehhandler$?GetText@CAutoTrendDrawingCalculator@@QBE?AV?$CStringT@DV?$StrTraitMFC_DLL@DV?$ChTraitsCRT@D@ATL@@@@@ATL@@PAUIPacket133101@@HH@Z
  0000a	64 a1 00 00 00
	00		 mov	 eax, DWORD PTR fs:0
  00010	50		 push	 eax
  00011	83 ec 08	 sub	 esp, 8
  00014	53		 push	 ebx
  00015	56		 push	 esi
  00016	57		 push	 edi
  00017	a1 00 00 00 00	 mov	 eax, DWORD PTR ___security_cookie
  0001c	33 c5		 xor	 eax, ebp
  0001e	50		 push	 eax
  0001f	8d 45 f4	 lea	 eax, DWORD PTR __$EHRec$[ebp]
  00022	64 a3 00 00 00
	00		 mov	 DWORD PTR fs:0, eax

; 273  : 	if(nStartIndex > nEndIndex)

  00028	8b 5d 10	 mov	 ebx, DWORD PTR _nStartIndex$[ebp]
  0002b	8b 75 14	 mov	 esi, DWORD PTR _nEndIndex$[ebp]
  0002e	3b de		 cmp	 ebx, esi
  00030	0f 8f b4 00 00
	00		 jg	 $LN39@GetText

; 274  : 		return false;
; 275  : 
; 276  : 	return (pPacket != NULL && pPacket->GetDataCount() > 0);

  00036	8b 7d 0c	 mov	 edi, DWORD PTR _pPacket$[ebp]
  00039	85 ff		 test	 edi, edi
  0003b	0f 84 a9 00 00
	00		 je	 $LN39@GetText
  00041	8b 07		 mov	 eax, DWORD PTR [edi]
  00043	8b cf		 mov	 ecx, edi
  00045	ff 50 2c	 call	 DWORD PTR [eax+44]
  00048	85 c0		 test	 eax, eax
  0004a	0f 8e 9a 00 00
	00		 jle	 $LN39@GetText

; 230  : 	if(!DoesExistenceText(pPacket, nStartIndex, nEndIndex))
; 231  : 		return "";
; 232  : 
; 233  : 	IStringList *piStrDataList = pPacket->GetStrDataList();

  00050	8b 07		 mov	 eax, DWORD PTR [edi]
  00052	8b cf		 mov	 ecx, edi
  00054	ff 50 58	 call	 DWORD PTR [eax+88]
  00057	8b f8		 mov	 edi, eax

; 234  : 	if( piStrDataList == NULL) return "";

  00059	85 ff		 test	 edi, edi
  0005b	0f 84 89 00 00
	00		 je	 $LN39@GetText

; 235  : 	if( piStrDataList->GetCount() <= 0) return "";

  00061	8b 17		 mov	 edx, DWORD PTR [edi]
  00063	8b cf		 mov	 ecx, edi
  00065	ff 52 10	 call	 DWORD PTR [edx+16]
  00068	85 c0		 test	 eax, eax
  0006a	7e 7e		 jle	 SHORT $LN39@GetText

; 236  : 
; 237  : 	POSITION pos = piStrDataList->FindIndex(nEndIndex);

  0006c	8b 07		 mov	 eax, DWORD PTR [edi]
  0006e	8b cf		 mov	 ecx, edi
  00070	56		 push	 esi
  00071	ff 50 5c	 call	 DWORD PTR [eax+92]
  00074	89 45 10	 mov	 DWORD PTR _pos$[ebp], eax

; 239  : 	while(pos != NULL && nIndex >= nStartIndex)

  00077	85 c0		 test	 eax, eax
  00079	74 69		 je	 SHORT $LN40@GetText
  0007b	0f 1f 44 00 00	 npad	 5
$LL2@GetText:
  00080	3b f3		 cmp	 esi, ebx
  00082	7c 60		 jl	 SHORT $LN40@GetText
; File D:\git\src\IBK\IBK_DRFN\ProjSrc\SrcChartEx\ChartAddIn\ChartAnalysisToolAddIn\Include_AddIn_133101\I133101\_IString.h

; 39   : 		m_pIStrData = p_pIString;	// Do not AddRef(). Because It must be Return Value.

  00084	c7 45 f0 00 00
	00 00		 mov	 DWORD PTR _szData$2[ebp+4], 0

; 40   : 		if( m_pIStrData) m_szData = m_pIStrData->GetData();
; 41   : 		else m_szData = NULL;

  0008b	c7 45 ec 00 00
	00 00		 mov	 DWORD PTR _szData$2[ebp], 0
; File D:\git\src\IBK\IBK_DRFN\ProjSrc\SrcChartEx\ChartAddIn\ChartAnalysisToolAddIn\AnalysisTool\AutoTrendData.cpp

; 242  : 		piStrDataList->GetPrev( pos, szData);

  00092	8b 07		 mov	 eax, DWORD PTR [edi]
  00094	8d 4d ec	 lea	 ecx, DWORD PTR _szData$2[ebp]
  00097	51		 push	 ecx
  00098	8d 4d 10	 lea	 ecx, DWORD PTR _pos$[ebp]
  0009b	c7 45 fc 00 00
	00 00		 mov	 DWORD PTR __$EHRec$[ebp+8], 0
  000a2	51		 push	 ecx
  000a3	8b cf		 mov	 ecx, edi
  000a5	ff 50 40	 call	 DWORD PTR [eax+64]
; File D:\git\src\IBK\IBK_DRFN\ProjSrc\SrcChartEx\ChartAddIn\ChartAnalysisToolAddIn\Include_AddIn_133101\I133101\_IString.h

; 57   : 		if( !m_szData) return TRUE;

  000a8	8b 45 ec	 mov	 eax, DWORD PTR _szData$2[ebp]
  000ab	85 c0		 test	 eax, eax
  000ad	74 05		 je	 SHORT $LN38@GetText
; File D:\git\src\IBK\IBK_DRFN\ProjSrc\SrcChartEx\ChartAddIn\ChartAnalysisToolAddIn\AnalysisTool\AutoTrendData.cpp

; 243  : 		if( !szData.IsEmpty()) return szData;

  000af	80 38 00	 cmp	 BYTE PTR [eax], 0
  000b2	75 5b		 jne	 SHORT $LN33@GetText
$LN38@GetText:

; 244  : 		nIndex--;

  000b4	4e		 dec	 esi
; File D:\git\src\IBK\IBK_DRFN\ProjSrc\SrcChartEx\ChartAddIn\ChartAnalysisToolAddIn\Include_AddIn_133101\I133101\_IString.h

; 45   : 		if( m_pIStrData)

  000b5	8b 4d f0	 mov	 ecx, DWORD PTR _szData$2[ebp+4]
  000b8	c7 45 fc 02 00
	00 00		 mov	 DWORD PTR __$EHRec$[ebp+8], 2
  000bf	85 c9		 test	 ecx, ecx
  000c1	74 14		 je	 SHORT $LN29@GetText

; 46   : 		{
; 47   : 			m_pIStrData->Release();

  000c3	8b 01		 mov	 eax, DWORD PTR [ecx]
  000c5	51		 push	 ecx
  000c6	ff 50 08	 call	 DWORD PTR [eax+8]

; 48   : 			m_pIStrData = NULL;

  000c9	c7 45 f0 00 00
	00 00		 mov	 DWORD PTR _szData$2[ebp+4], 0

; 49   : 			m_szData = NULL;

  000d0	c7 45 ec 00 00
	00 00		 mov	 DWORD PTR _szData$2[ebp], 0
$LN29@GetText:
; File D:\git\src\IBK\IBK_DRFN\ProjSrc\SrcChartEx\ChartAddIn\ChartAnalysisToolAddIn\AnalysisTool\AutoTrendData.cpp

; 239  : 	while(pos != NULL && nIndex >= nStartIndex)

  000d7	83 7d 10 00	 cmp	 DWORD PTR _pos$[ebp], 0
; File D:\git\src\IBK\IBK_DRFN\ProjSrc\SrcChartEx\ChartAddIn\ChartAnalysisToolAddIn\Include_AddIn_133101\I133101\_IString.h

; 51   : 	}

  000db	c7 45 fc ff ff
	ff ff		 mov	 DWORD PTR __$EHRec$[ebp+8], -1
; File D:\git\src\IBK\IBK_DRFN\ProjSrc\SrcChartEx\ChartAddIn\ChartAnalysisToolAddIn\AnalysisTool\AutoTrendData.cpp

; 239  : 	while(pos != NULL && nIndex >= nStartIndex)

  000e2	75 9c		 jne	 SHORT $LL2@GetText
$LN40@GetText:

; 245  : 	}
; 246  : 	piStrDataList->Release();

  000e4	8b 07		 mov	 eax, DWORD PTR [edi]
  000e6	57		 push	 edi
  000e7	ff 50 08	 call	 DWORD PTR [eax+8]
$LN39@GetText:

; 247  : 
; 248  : 	return "";
; 249  : }

  000ea	8b 4d 08	 mov	 ecx, DWORD PTR ___$ReturnUdt$[ebp]
  000ed	68 00 00 00 00	 push	 OFFSET ??_C@_00CNPNBAHC@@
  000f2	ff 15 00 00 00
	00		 call	 DWORD PTR __imp_??0?$CStringT@DV?$StrTraitMFC_DLL@DV?$ChTraitsCRT@D@ATL@@@@@ATL@@QAE@PBD@Z
  000f8	8b 45 08	 mov	 eax, DWORD PTR ___$ReturnUdt$[ebp]
  000fb	8b 4d f4	 mov	 ecx, DWORD PTR __$EHRec$[ebp]
  000fe	64 89 0d 00 00
	00 00		 mov	 DWORD PTR fs:0, ecx
  00105	59		 pop	 ecx
  00106	5f		 pop	 edi
  00107	5e		 pop	 esi
  00108	5b		 pop	 ebx
  00109	8b e5		 mov	 esp, ebp
  0010b	5d		 pop	 ebp
  0010c	c2 10 00	 ret	 16			; 00000010H
$LN33@GetText:

; 243  : 		if( !szData.IsEmpty()) return szData;

  0010f	8b 75 08	 mov	 esi, DWORD PTR ___$ReturnUdt$[ebp]
  00112	8b ce		 mov	 ecx, esi
  00114	50		 push	 eax
  00115	ff 15 00 00 00
	00		 call	 DWORD PTR __imp_??0?$CStringT@DV?$StrTraitMFC_DLL@DV?$ChTraitsCRT@D@ATL@@@@@ATL@@QAE@PBD@Z
; File D:\git\src\IBK\IBK_DRFN\ProjSrc\SrcChartEx\ChartAddIn\ChartAnalysisToolAddIn\Include_AddIn_133101\I133101\_IString.h

; 45   : 		if( m_pIStrData)

  0011b	8b 55 f0	 mov	 edx, DWORD PTR _szData$2[ebp+4]
  0011e	c7 45 fc 01 00
	00 00		 mov	 DWORD PTR __$EHRec$[ebp+8], 1
  00125	85 d2		 test	 edx, edx
  00127	74 06		 je	 SHORT $LN25@GetText

; 46   : 		{
; 47   : 			m_pIStrData->Release();

  00129	8b 0a		 mov	 ecx, DWORD PTR [edx]
  0012b	52		 push	 edx
  0012c	ff 51 08	 call	 DWORD PTR [ecx+8]
$LN25@GetText:
; File D:\git\src\IBK\IBK_DRFN\ProjSrc\SrcChartEx\ChartAddIn\ChartAnalysisToolAddIn\AnalysisTool\AutoTrendData.cpp

; 243  : 		if( !szData.IsEmpty()) return szData;

  0012f	8b c6		 mov	 eax, esi

; 247  : 
; 248  : 	return "";
; 249  : }

  00131	8b 4d f4	 mov	 ecx, DWORD PTR __$EHRec$[ebp]
  00134	64 89 0d 00 00
	00 00		 mov	 DWORD PTR fs:0, ecx
  0013b	59		 pop	 ecx
  0013c	5f		 pop	 edi
  0013d	5e		 pop	 esi
  0013e	5b		 pop	 ebx
  0013f	8b e5		 mov	 esp, ebp
  00141	5d		 pop	 ebp
  00142	c2 10 00	 ret	 16			; 00000010H
_TEXT	ENDS
;	COMDAT text$x
text$x	SEGMENT
__unwindfunclet$?GetText@CAutoTrendDrawingCalculator@@QBE?AV?$CStringT@DV?$StrTraitMFC_DLL@DV?$ChTraitsCRT@D@ATL@@@@@ATL@@PAUIPacket133101@@HH@Z$1:
  00000	8d 4d ec	 lea	 ecx, DWORD PTR _szData$2[ebp]
  00003	e9 00 00 00 00	 jmp	 ??1ILPCSTR133101@@QAE@XZ ; ILPCSTR133101::~ILPCSTR133101
  00008	cc		 int	 3
  00009	cc		 int	 3
  0000a	cc		 int	 3
  0000b	cc		 int	 3
  0000c	cc		 int	 3
__ehhandler$?GetText@CAutoTrendDrawingCalculator@@QBE?AV?$CStringT@DV?$StrTraitMFC_DLL@DV?$ChTraitsCRT@D@ATL@@@@@ATL@@PAUIPacket133101@@HH@Z:
  0000d	90		 npad	 1
  0000e	90		 npad	 1
  0000f	8b 54 24 08	 mov	 edx, DWORD PTR [esp+8]
  00013	8d 42 0c	 lea	 eax, DWORD PTR [edx+12]
  00016	8b 4a e8	 mov	 ecx, DWORD PTR [edx-24]
  00019	33 c8		 xor	 ecx, eax
  0001b	e8 00 00 00 00	 call	 @__security_check_cookie@4
  00020	b8 00 00 00 00	 mov	 eax, OFFSET __ehfuncinfo$?GetText@CAutoTrendDrawingCalculator@@QBE?AV?$CStringT@DV?$StrTraitMFC_DLL@DV?$ChTraitsCRT@D@ATL@@@@@ATL@@PAUIPacket133101@@HH@Z
  00025	e9 00 00 00 00	 jmp	 ___CxxFrameHandler3
text$x	ENDS
?GetText@CAutoTrendDrawingCalculator@@QBE?AV?$CStringT@DV?$StrTraitMFC_DLL@DV?$ChTraitsCRT@D@ATL@@@@@ATL@@PAUIPacket133101@@HH@Z ENDP ; CAutoTrendDrawingCalculator::GetText
; Function compile flags: /Ogtp
; File D:\git\src\IBK\IBK_DRFN\ProjSrc\SrcChartEx\ChartAddIn\ChartAnalysisToolAddIn\AnalysisTool\AutoTrendData.cpp
;	COMDAT ?GetDrawingPoints@CAutoTrendDrawingCalculator@@QBE_NABVCAutoTrendDrawingCalculatorData@@HAAVCPoint@@111@Z
_TEXT	SEGMENT
_calData$ = 8						; size = 4
_nCurrentDataIndex$ = 12				; size = 4
_high_leftPt$ = 16					; size = 4
_high_rightPt$ = 20					; size = 4
_low_leftPt$ = 24					; size = 4
_low_rightPt$ = 28					; size = 4
?GetDrawingPoints@CAutoTrendDrawingCalculator@@QBE_NABVCAutoTrendDrawingCalculatorData@@HAAVCPoint@@111@Z PROC ; CAutoTrendDrawingCalculator::GetDrawingPoints, COMDAT
; _this$ = ecx

; 218  : {

  00000	55		 push	 ebp
  00001	8b ec		 mov	 ebp, esp
  00003	56		 push	 esi

; 219  : 	if(!GetDrawingPoints(calData, nCurrentDataIndex, 1, high_leftPt, high_rightPt))

  00004	ff 75 14	 push	 DWORD PTR _high_rightPt$[ebp]
  00007	8b f1		 mov	 esi, ecx
  00009	ff 75 10	 push	 DWORD PTR _high_leftPt$[ebp]
  0000c	6a 01		 push	 1
  0000e	ff 75 0c	 push	 DWORD PTR _nCurrentDataIndex$[ebp]
  00011	ff 75 08	 push	 DWORD PTR _calData$[ebp]
  00014	e8 00 00 00 00	 call	 ?GetDrawingPoints@CAutoTrendDrawingCalculator@@ABE_NABVCAutoTrendDrawingCalculatorData@@HHAAVCPoint@@1@Z ; CAutoTrendDrawingCalculator::GetDrawingPoints
  00019	84 c0		 test	 al, al
  0001b	74 20		 je	 SHORT $LN5@GetDrawing

; 220  : 		return false;
; 221  : 
; 222  : 	if(!GetDrawingPoints(calData, nCurrentDataIndex, 2, low_leftPt, low_rightPt))

  0001d	ff 75 1c	 push	 DWORD PTR _low_rightPt$[ebp]
  00020	8b ce		 mov	 ecx, esi
  00022	ff 75 18	 push	 DWORD PTR _low_leftPt$[ebp]
  00025	6a 02		 push	 2
  00027	ff 75 0c	 push	 DWORD PTR _nCurrentDataIndex$[ebp]
  0002a	ff 75 08	 push	 DWORD PTR _calData$[ebp]
  0002d	e8 00 00 00 00	 call	 ?GetDrawingPoints@CAutoTrendDrawingCalculator@@ABE_NABVCAutoTrendDrawingCalculatorData@@HHAAVCPoint@@1@Z ; CAutoTrendDrawingCalculator::GetDrawingPoints
  00032	84 c0		 test	 al, al
  00034	74 07		 je	 SHORT $LN5@GetDrawing

; 224  : 
; 225  : 	return true;

  00036	b0 01		 mov	 al, 1
  00038	5e		 pop	 esi

; 226  : }

  00039	5d		 pop	 ebp
  0003a	c2 18 00	 ret	 24			; 00000018H
$LN5@GetDrawing:

; 223  : 		return false;

  0003d	32 c0		 xor	 al, al
  0003f	5e		 pop	 esi

; 226  : }

  00040	5d		 pop	 ebp
  00041	c2 18 00	 ret	 24			; 00000018H
?GetDrawingPoints@CAutoTrendDrawingCalculator@@QBE_NABVCAutoTrendDrawingCalculatorData@@HAAVCPoint@@111@Z ENDP ; CAutoTrendDrawingCalculator::GetDrawingPoints
_TEXT	ENDS
; Function compile flags: /Ogtp
; File C:\Program Files (x86)\Microsoft Visual Studio\2019\Community\VC\Tools\MSVC\14.29.30133\atlmfc\include\afxtempl.h
; File C:\Program Files (x86)\Microsoft Visual Studio\2019\Community\VC\Tools\MSVC\14.29.30133\atlmfc\include\afx.inl
;	COMDAT ??_G?$CList@PAUIPacket133101@@PAU1@@@UAEPAXI@Z
_TEXT	SEGMENT
__$EHRec$ = -12						; size = 12
___flags$ = 8						; size = 4
??_G?$CList@PAUIPacket133101@@PAU1@@@UAEPAXI@Z PROC	; CList<IPacket133101 *,IPacket133101 *>::`scalar deleting destructor', COMDAT
; _this$ = ecx
  00000	55		 push	 ebp
  00001	8b ec		 mov	 ebp, esp
  00003	6a ff		 push	 -1
  00005	68 00 00 00 00	 push	 __ehhandler$??_G?$CList@PAUIPacket133101@@PAU1@@@UAEPAXI@Z
  0000a	64 a1 00 00 00
	00		 mov	 eax, DWORD PTR fs:0
  00010	50		 push	 eax
  00011	56		 push	 esi
  00012	a1 00 00 00 00	 mov	 eax, DWORD PTR ___security_cookie
  00017	33 c5		 xor	 eax, ebp
  00019	50		 push	 eax
  0001a	8d 45 f4	 lea	 eax, DWORD PTR __$EHRec$[ebp]
  0001d	64 a3 00 00 00
	00		 mov	 DWORD PTR fs:0, eax
  00023	8b f1		 mov	 esi, ecx
; File C:\Program Files (x86)\Microsoft Visual Studio\2019\Community\VC\Tools\MSVC\14.29.30133\atlmfc\include\afxtempl.h

; 872  : 	m_pBlocks->FreeDataChain();

  00025	8b 4e 14	 mov	 ecx, DWORD PTR [esi+20]

; 878  : {

  00028	c7 45 fc 00 00
	00 00		 mov	 DWORD PTR __$EHRec$[ebp+8], 0
  0002f	c7 06 00 00 00
	00		 mov	 DWORD PTR [esi], OFFSET ??_7?$CList@PAUIPacket133101@@PAU1@@@6B@

; 870  : 	m_nCount = 0;

  00035	c7 46 0c 00 00
	00 00		 mov	 DWORD PTR [esi+12], 0

; 871  : 	m_pNodeHead = m_pNodeTail = m_pNodeFree = NULL;

  0003c	c7 46 10 00 00
	00 00		 mov	 DWORD PTR [esi+16], 0
  00043	c7 46 08 00 00
	00 00		 mov	 DWORD PTR [esi+8], 0
  0004a	c7 46 04 00 00
	00 00		 mov	 DWORD PTR [esi+4], 0

; 872  : 	m_pBlocks->FreeDataChain();

  00051	e8 00 00 00 00	 call	 ?FreeDataChain@CPlex@@QAEXXZ ; CPlex::FreeDataChain

; 873  : 	m_pBlocks = NULL;

  00056	8b 45 08	 mov	 eax, DWORD PTR ___flags$[ebp]
  00059	c7 46 14 00 00
	00 00		 mov	 DWORD PTR [esi+20], 0
  00060	a8 01		 test	 al, 1
  00062	74 2c		 je	 SHORT $LN22@scalar
  00064	a8 04		 test	 al, 4
  00066	75 1d		 jne	 SHORT $LN3@scalar
; File C:\Program Files (x86)\Microsoft Visual Studio\2019\Community\VC\Tools\MSVC\14.29.30133\atlmfc\include\afx.inl

; 112  : 	{ ::operator delete(p); }

  00068	56		 push	 esi
  00069	e8 00 00 00 00	 call	 ??3@YAXPAX@Z		; operator delete
  0006e	83 c4 04	 add	 esp, 4
  00071	8b c6		 mov	 eax, esi
  00073	8b 4d f4	 mov	 ecx, DWORD PTR __$EHRec$[ebp]
  00076	64 89 0d 00 00
	00 00		 mov	 DWORD PTR fs:0, ecx
  0007d	59		 pop	 ecx
  0007e	5e		 pop	 esi
  0007f	8b e5		 mov	 esp, ebp
  00081	5d		 pop	 ebp
  00082	c2 04 00	 ret	 4
$LN3@scalar:
  00085	6a 1c		 push	 28			; 0000001cH
  00087	56		 push	 esi
  00088	e8 00 00 00 00	 call	 ?__global_delete@@YAXPAXI@Z ; __global_delete
  0008d	83 c4 08	 add	 esp, 8
$LN22@scalar:
  00090	8b c6		 mov	 eax, esi
  00092	8b 4d f4	 mov	 ecx, DWORD PTR __$EHRec$[ebp]
  00095	64 89 0d 00 00
	00 00		 mov	 DWORD PTR fs:0, ecx
  0009c	59		 pop	 ecx
  0009d	5e		 pop	 esi
  0009e	8b e5		 mov	 esp, ebp
  000a0	5d		 pop	 ebp
  000a1	c2 04 00	 ret	 4
  000a4	cc		 int	 3
  000a5	cc		 int	 3
  000a6	cc		 int	 3
  000a7	cc		 int	 3
  000a8	cc		 int	 3
_TEXT	ENDS
;	COMDAT text$x
text$x	SEGMENT
__ehhandler$??_G?$CList@PAUIPacket133101@@PAU1@@@UAEPAXI@Z:
  00000	90		 npad	 1
  00001	90		 npad	 1
  00002	8b 54 24 08	 mov	 edx, DWORD PTR [esp+8]
  00006	8d 42 0c	 lea	 eax, DWORD PTR [edx+12]
  00009	8b 4a f8	 mov	 ecx, DWORD PTR [edx-8]
  0000c	33 c8		 xor	 ecx, eax
  0000e	e8 00 00 00 00	 call	 @__security_check_cookie@4
  00013	b8 00 00 00 00	 mov	 eax, OFFSET __ehfuncinfo$??_G?$CList@PAUIPacket133101@@PAU1@@@UAEPAXI@Z
  00018	e9 00 00 00 00	 jmp	 ___CxxFrameHandler3
text$x	ENDS
??_G?$CList@PAUIPacket133101@@PAU1@@@UAEPAXI@Z ENDP	; CList<IPacket133101 *,IPacket133101 *>::`scalar deleting destructor'
; Function compile flags: /Ogtp
; File C:\Program Files (x86)\Microsoft Visual Studio\2019\Community\VC\Tools\MSVC\14.29.30133\atlmfc\include\afxtempl.h
; File C:\Program Files (x86)\Microsoft Visual Studio\2019\Community\VC\Tools\MSVC\14.29.30133\atlmfc\include\afx.inl
; File C:\Program Files (x86)\Microsoft Visual Studio\2019\Community\VC\Tools\MSVC\14.29.30133\atlmfc\include\afxtempl.h
; File C:\Program Files (x86)\Microsoft Visual Studio\2019\Community\VC\Tools\MSVC\14.29.30133\atlmfc\include\afx.inl
; File C:\Program Files (x86)\Microsoft Visual Studio\2019\Community\VC\Tools\MSVC\14.29.30133\atlmfc\include\afxtempl.h
; File C:\Program Files (x86)\Microsoft Visual Studio\2019\Community\VC\Tools\MSVC\14.29.30133\atlmfc\include\afx.inl
; File C:\Program Files (x86)\Microsoft Visual Studio\2019\Community\VC\Tools\MSVC\14.29.30133\atlmfc\include\afxtempl.h
; File C:\Program Files (x86)\Microsoft Visual Studio\2019\Community\VC\Tools\MSVC\14.29.30133\atlmfc\include\afx.inl
; File C:\Program Files (x86)\Microsoft Visual Studio\2019\Community\VC\Tools\MSVC\14.29.30133\atlmfc\include\afxtempl.h
; File C:\Program Files (x86)\Microsoft Visual Studio\2019\Community\VC\Tools\MSVC\14.29.30133\atlmfc\include\afx.inl
; File C:\Program Files (x86)\Microsoft Visual Studio\2019\Community\VC\Tools\MSVC\14.29.30133\atlmfc\include\afxtempl.h
; File C:\Program Files (x86)\Microsoft Visual Studio\2019\Community\VC\Tools\MSVC\14.29.30133\atlmfc\include\afx.inl
; File C:\Program Files (x86)\Microsoft Visual Studio\2019\Community\VC\Tools\MSVC\14.29.30133\atlmfc\include\afxtempl.h
;	COMDAT ?Serialize@?$CList@PAUIPacket133101@@PAU1@@@UAEXAAVCArchive@@@Z
_TEXT	SEGMENT
_nNewCount$1$ = -16					; size = 4
_newData$1 = -12					; size = 4
_pData$1$ = -8						; size = 4
_pNode$1$ = -8						; size = 4
_nElementsLeft$1$ = -4					; size = 4
_this$1$ = -4						; size = 4
_ar$ = 8						; size = 4
?Serialize@?$CList@PAUIPacket133101@@PAU1@@@UAEXAAVCArchive@@@Z PROC ; CList<IPacket133101 *,IPacket133101 *>::Serialize, COMDAT
; _this$ = ecx

; 1169 : {

  00000	55		 push	 ebp
  00001	8b ec		 mov	 ebp, esp
  00003	83 ec 10	 sub	 esp, 16			; 00000010H
  00006	53		 push	 ebx
  00007	8b d9		 mov	 ebx, ecx
; File C:\Program Files (x86)\Microsoft Visual Studio\2019\Community\VC\Tools\MSVC\14.29.30133\atlmfc\include\afx.inl

; 212  : 	{ return (m_nMode & CArchive::load) == 0; }

  00009	8b 4d 08	 mov	 ecx, DWORD PTR _ar$[ebp]
; File C:\Program Files (x86)\Microsoft Visual Studio\2019\Community\VC\Tools\MSVC\14.29.30133\atlmfc\include\afxtempl.h

; 1169 : {

  0000c	56		 push	 esi
  0000d	57		 push	 edi
  0000e	89 5d fc	 mov	 DWORD PTR _this$1$[ebp], ebx
; File C:\Program Files (x86)\Microsoft Visual Studio\2019\Community\VC\Tools\MSVC\14.29.30133\atlmfc\include\afx.inl

; 212  : 	{ return (m_nMode & CArchive::load) == 0; }

  00011	8b 41 18	 mov	 eax, DWORD PTR [ecx+24]
  00014	f7 d0		 not	 eax
  00016	a8 01		 test	 al, 1
; File C:\Program Files (x86)\Microsoft Visual Studio\2019\Community\VC\Tools\MSVC\14.29.30133\atlmfc\include\afxtempl.h

; 1174 : 	if (ar.IsStoring())

  00018	0f 84 ae 00 00
	00		 je	 $LN7@Serialize

; 1175 : 	{
; 1176 : 		ar.WriteCount(m_nCount);

  0001e	ff 73 0c	 push	 DWORD PTR [ebx+12]
  00021	e8 00 00 00 00	 call	 ?WriteCount@CArchive@@QAEXK@Z ; CArchive::WriteCount

; 1177 : 		for (CNode* pNode = m_pNodeHead; pNode != NULL; pNode = pNode->pNext)

  00026	8b 43 04	 mov	 eax, DWORD PTR [ebx+4]
  00029	89 45 f8	 mov	 DWORD PTR _pNode$1$[ebp], eax
  0002c	85 c0		 test	 eax, eax
  0002e	0f 84 43 01 00
	00		 je	 $LN68@Serialize
$LL4@Serialize:

; 1178 : 		{
; 1179 : 			ASSERT(AfxIsValidAddress(pNode, sizeof(CNode)));
; 1180 : 			TYPE* pData;
; 1181 : 			/*
; 1182 : 			 * in some cases the & operator might be overloaded, and we cannot use it to obtain
; 1183 : 			 * the address of a given object.  We then use the following trick to get the address
; 1184 : 			 */
; 1185 : 			pData = reinterpret_cast< TYPE* >( &reinterpret_cast< int& >( static_cast< TYPE& >( pNode->data ) ) );

  00034	8d 70 08	 lea	 esi, DWORD PTR [eax+8]

; 68   : 	ENSURE(nCount == 0 || pElements != NULL);

  00037	85 f6		 test	 esi, esi
  00039	0f 84 4a 01 00
	00		 je	 $LN60@Serialize
; File C:\Program Files (x86)\Microsoft Visual Studio\2019\Community\VC\Tools\MSVC\14.29.30133\atlmfc\include\afx.inl

; 212  : 	{ return (m_nMode & CArchive::load) == 0; }

  0003f	8b 4d 08	 mov	 ecx, DWORD PTR _ar$[ebp]
  00042	8b 41 18	 mov	 eax, DWORD PTR [ecx+24]
  00045	f7 d0		 not	 eax
  00047	a8 01		 test	 al, 1
; File C:\Program Files (x86)\Microsoft Visual Studio\2019\Community\VC\Tools\MSVC\14.29.30133\atlmfc\include\afxtempl.h

; 73   : 	if (ar.IsStoring())

  00049	74 33		 je	 SHORT $LN21@Serialize

; 74   : 	{
; 75   : 		TYPE* pData;
; 76   : 		UINT_PTR nElementsLeft;
; 77   : 
; 78   : 		nElementsLeft = nCount;

  0004b	b8 01 00 00 00	 mov	 eax, 1
  00050	89 45 fc	 mov	 DWORD PTR _nElementsLeft$1$[ebp], eax
$LL16@Serialize:

; 80   : 		while( nElementsLeft > 0 )
; 81   : 		{
; 82   : 			UINT nElementsToWrite;
; 83   : 
; 84   : 			nElementsToWrite = UINT(__min(nElementsLeft, INT_MAX/sizeof(TYPE)));

  00053	bb ff ff ff 1f	 mov	 ebx, 536870911		; 1fffffffH
  00058	3b c3		 cmp	 eax, ebx
  0005a	0f 42 d8	 cmovb	 ebx, eax

; 85   : 			ar.Write(pData, nElementsToWrite*sizeof(TYPE));

  0005d	8d 3c 9d 00 00
	00 00		 lea	 edi, DWORD PTR [ebx*4]
  00064	57		 push	 edi
  00065	56		 push	 esi
  00066	e8 00 00 00 00	 call	 ?Write@CArchive@@QAEXPBXI@Z ; CArchive::Write

; 86   : 			nElementsLeft -= nElementsToWrite;

  0006b	8b 45 fc	 mov	 eax, DWORD PTR _nElementsLeft$1$[ebp]

; 87   : 			pData += nElementsToWrite;

  0006e	03 f7		 add	 esi, edi
  00070	8b 4d 08	 mov	 ecx, DWORD PTR _ar$[ebp]
  00073	2b c3		 sub	 eax, ebx
  00075	89 45 fc	 mov	 DWORD PTR _nElementsLeft$1$[ebp], eax
  00078	85 c0		 test	 eax, eax
  0007a	75 d7		 jne	 SHORT $LL16@Serialize

; 88   : 		}
; 89   : 	}

  0007c	eb 35		 jmp	 SHORT $LN2@Serialize
$LN21@Serialize:

; 90   : 	else
; 91   : 	{
; 92   : 		TYPE* pData;
; 93   : 		UINT_PTR nElementsLeft;
; 94   : 
; 95   : 		nElementsLeft = nCount;

  0007e	bf 01 00 00 00	 mov	 edi, 1
$LL18@Serialize:

; 98   : 		{
; 99   : 			UINT nElementsToRead;
; 100  : 
; 101  : 			nElementsToRead = UINT(__min(nElementsLeft, INT_MAX/sizeof(TYPE)));

  00083	bb ff ff ff 1f	 mov	 ebx, 536870911		; 1fffffffH
  00088	3b fb		 cmp	 edi, ebx
  0008a	0f 42 df	 cmovb	 ebx, edi

; 102  : 			ar.EnsureRead(pData, nElementsToRead*sizeof(TYPE));

  0008d	8d 04 9d 00 00
	00 00		 lea	 eax, DWORD PTR [ebx*4]
; File C:\Program Files (x86)\Microsoft Visual Studio\2019\Community\VC\Tools\MSVC\14.29.30133\atlmfc\include\afx.inl

; 399  : 	UINT nRead=Read(lpBuf, nCount);

  00094	50		 push	 eax
  00095	56		 push	 esi
  00096	e8 00 00 00 00	 call	 ?Read@CArchive@@QAEIPAXI@Z ; CArchive::Read

; 400  : 	if(nRead!=nCount)

  0009b	8d 0c 9d 00 00
	00 00		 lea	 ecx, DWORD PTR [ebx*4]
  000a2	3b c1		 cmp	 eax, ecx
  000a4	0f 85 d6 00 00
	00		 jne	 $LN59@Serialize
; File C:\Program Files (x86)\Microsoft Visual Studio\2019\Community\VC\Tools\MSVC\14.29.30133\atlmfc\include\afxtempl.h

; 97   : 		while( nElementsLeft > 0 )

  000aa	03 f1		 add	 esi, ecx
  000ac	8b 4d 08	 mov	 ecx, DWORD PTR _ar$[ebp]

; 103  : 			nElementsLeft -= nElementsToRead;

  000af	2b fb		 sub	 edi, ebx
  000b1	75 d0		 jne	 SHORT $LL18@Serialize
$LN2@Serialize:

; 1177 : 		for (CNode* pNode = m_pNodeHead; pNode != NULL; pNode = pNode->pNext)

  000b3	8b 45 f8	 mov	 eax, DWORD PTR _pNode$1$[ebp]
  000b6	8b 00		 mov	 eax, DWORD PTR [eax]
  000b8	89 45 f8	 mov	 DWORD PTR _pNode$1$[ebp], eax
  000bb	85 c0		 test	 eax, eax
  000bd	0f 85 71 ff ff
	ff		 jne	 $LL4@Serialize

; 1197 : 		}
; 1198 : 	}
; 1199 : }

  000c3	5f		 pop	 edi
  000c4	5e		 pop	 esi
  000c5	5b		 pop	 ebx
  000c6	8b e5		 mov	 esp, ebp
  000c8	5d		 pop	 ebp
  000c9	c2 04 00	 ret	 4
$LN7@Serialize:

; 1186 : 			SerializeElements<TYPE>(ar, pData, 1);
; 1187 : 		}
; 1188 : 	}
; 1189 : 	else
; 1190 : 	{
; 1191 : 		DWORD_PTR nNewCount = ar.ReadCount();

  000cc	e8 00 00 00 00	 call	 ?ReadCount@CArchive@@QAEKXZ ; CArchive::ReadCount

; 1192 : 		while (nNewCount--)

  000d1	85 c0		 test	 eax, eax
  000d3	0f 84 9e 00 00
	00		 je	 $LN68@Serialize
  000d9	0f 1f 80 00 00
	00 00		 npad	 7
$LL5@Serialize:
  000e0	48		 dec	 eax
  000e1	89 45 f0	 mov	 DWORD PTR _nNewCount$1$[ebp], eax
; File C:\Program Files (x86)\Microsoft Visual Studio\2019\Community\VC\Tools\MSVC\14.29.30133\atlmfc\include\afx.inl

; 212  : 	{ return (m_nMode & CArchive::load) == 0; }

  000e4	8b 45 08	 mov	 eax, DWORD PTR _ar$[ebp]
  000e7	8b 48 18	 mov	 ecx, DWORD PTR [eax+24]
  000ea	f7 d1		 not	 ecx
  000ec	f6 c1 01	 test	 cl, 1
; File C:\Program Files (x86)\Microsoft Visual Studio\2019\Community\VC\Tools\MSVC\14.29.30133\atlmfc\include\afxtempl.h

; 73   : 	if (ar.IsStoring())

  000ef	74 3a		 je	 SHORT $LN42@Serialize

; 79   : 		pData = pElements;

  000f1	8d 4d f4	 lea	 ecx, DWORD PTR _newData$1[ebp]
  000f4	bb 01 00 00 00	 mov	 ebx, 1
  000f9	89 4d f8	 mov	 DWORD PTR _pData$1$[ebp], ecx
  000fc	0f 1f 40 00	 npad	 4
$LL37@Serialize:

; 80   : 		while( nElementsLeft > 0 )
; 81   : 		{
; 82   : 			UINT nElementsToWrite;
; 83   : 
; 84   : 			nElementsToWrite = UINT(__min(nElementsLeft, INT_MAX/sizeof(TYPE)));

  00100	bf ff ff ff 1f	 mov	 edi, 536870911		; 1fffffffH
  00105	3b df		 cmp	 ebx, edi
  00107	0f 42 fb	 cmovb	 edi, ebx

; 85   : 			ar.Write(pData, nElementsToWrite*sizeof(TYPE));

  0010a	8d 34 bd 00 00
	00 00		 lea	 esi, DWORD PTR [edi*4]
  00111	56		 push	 esi
  00112	51		 push	 ecx
  00113	8b c8		 mov	 ecx, eax
  00115	e8 00 00 00 00	 call	 ?Write@CArchive@@QAEXPBXI@Z ; CArchive::Write

; 87   : 			pData += nElementsToWrite;

  0011a	8b 4d f8	 mov	 ecx, DWORD PTR _pData$1$[ebp]
  0011d	8b 45 08	 mov	 eax, DWORD PTR _ar$[ebp]
  00120	03 ce		 add	 ecx, esi
  00122	89 4d f8	 mov	 DWORD PTR _pData$1$[ebp], ecx
  00125	2b df		 sub	 ebx, edi
  00127	75 d7		 jne	 SHORT $LL37@Serialize

; 88   : 		}
; 89   : 	}

  00129	eb 36		 jmp	 SHORT $LN40@Serialize
$LN42@Serialize:

; 90   : 	else
; 91   : 	{
; 92   : 		TYPE* pData;
; 93   : 		UINT_PTR nElementsLeft;
; 94   : 
; 95   : 		nElementsLeft = nCount;

  0012b	be 01 00 00 00	 mov	 esi, 1

; 96   : 		pData = pElements;

  00130	8d 5d f4	 lea	 ebx, DWORD PTR _newData$1[ebp]
$LL39@Serialize:

; 98   : 		{
; 99   : 			UINT nElementsToRead;
; 100  : 
; 101  : 			nElementsToRead = UINT(__min(nElementsLeft, INT_MAX/sizeof(TYPE)));

  00133	bf ff ff ff 1f	 mov	 edi, 536870911		; 1fffffffH
  00138	3b f7		 cmp	 esi, edi
  0013a	0f 42 fe	 cmovb	 edi, esi

; 102  : 			ar.EnsureRead(pData, nElementsToRead*sizeof(TYPE));

  0013d	8d 0c bd 00 00
	00 00		 lea	 ecx, DWORD PTR [edi*4]
; File C:\Program Files (x86)\Microsoft Visual Studio\2019\Community\VC\Tools\MSVC\14.29.30133\atlmfc\include\afx.inl

; 399  : 	UINT nRead=Read(lpBuf, nCount);

  00144	51		 push	 ecx
  00145	53		 push	 ebx
  00146	8b c8		 mov	 ecx, eax
  00148	e8 00 00 00 00	 call	 ?Read@CArchive@@QAEIPAXI@Z ; CArchive::Read

; 400  : 	if(nRead!=nCount)

  0014d	8d 0c bd 00 00
	00 00		 lea	 ecx, DWORD PTR [edi*4]
  00154	3b c1		 cmp	 eax, ecx
  00156	75 28		 jne	 SHORT $LN59@Serialize
; File C:\Program Files (x86)\Microsoft Visual Studio\2019\Community\VC\Tools\MSVC\14.29.30133\atlmfc\include\afxtempl.h

; 104  : 			pData += nElementsToRead;

  00158	8b 45 08	 mov	 eax, DWORD PTR _ar$[ebp]
  0015b	03 d9		 add	 ebx, ecx
  0015d	2b f7		 sub	 esi, edi
  0015f	75 d2		 jne	 SHORT $LL39@Serialize
$LN40@Serialize:

; 1193 : 		{
; 1194 : 			TYPE newData[1];
; 1195 : 			SerializeElements<TYPE>(ar, newData, 1);
; 1196 : 			AddTail(newData[0]);

  00161	ff 75 f4	 push	 DWORD PTR _newData$1[ebp]
  00164	8b 4d fc	 mov	 ecx, DWORD PTR _this$1$[ebp]
  00167	e8 00 00 00 00	 call	 ?AddTail@?$CList@PAUIPacket133101@@PAU1@@@QAEPAU__POSITION@@PAUIPacket133101@@@Z ; CList<IPacket133101 *,IPacket133101 *>::AddTail
  0016c	8b 45 f0	 mov	 eax, DWORD PTR _nNewCount$1$[ebp]
  0016f	85 c0		 test	 eax, eax
  00171	0f 85 69 ff ff
	ff		 jne	 $LL5@Serialize
$LN68@Serialize:
  00177	5f		 pop	 edi

; 1197 : 		}
; 1198 : 	}
; 1199 : }

  00178	5e		 pop	 esi
  00179	5b		 pop	 ebx
  0017a	8b e5		 mov	 esp, ebp
  0017c	5d		 pop	 ebp
  0017d	c2 04 00	 ret	 4
$LN59@Serialize:
  00180	6a 00		 push	 0
  00182	6a 03		 push	 3
  00184	e8 00 00 00 00	 call	 ?AfxThrowArchiveException@@YGXHPBD@Z ; AfxThrowArchiveException
$LN60@Serialize:

; 68   : 	ENSURE(nCount == 0 || pElements != NULL);

  00189	e8 00 00 00 00	 call	 ?AfxThrowInvalidArgException@@YGXXZ ; AfxThrowInvalidArgException
$LN85@Serialize:
  0018e	cc		 int	 3
?Serialize@?$CList@PAUIPacket133101@@PAU1@@@UAEXAAVCArchive@@@Z ENDP ; CList<IPacket133101 *,IPacket133101 *>::Serialize
_TEXT	ENDS
; Function compile flags: /Ogtp
; File C:\Program Files (x86)\Microsoft Visual Studio\2019\Community\VC\Tools\MSVC\14.29.30133\atlmfc\include\afxtempl.h
;	COMDAT ??1?$CList@PAUIPacket133101@@PAU1@@@UAE@XZ
_TEXT	SEGMENT
__$EHRec$ = -12						; size = 12
??1?$CList@PAUIPacket133101@@PAU1@@@UAE@XZ PROC		; CList<IPacket133101 *,IPacket133101 *>::~CList<IPacket133101 *,IPacket133101 *>, COMDAT
; _this$ = ecx

; 878  : {

  00000	55		 push	 ebp
  00001	8b ec		 mov	 ebp, esp
  00003	6a ff		 push	 -1
  00005	68 00 00 00 00	 push	 __ehhandler$??1?$CList@PAUIPacket133101@@PAU1@@@UAE@XZ
  0000a	64 a1 00 00 00
	00		 mov	 eax, DWORD PTR fs:0
  00010	50		 push	 eax
  00011	56		 push	 esi
  00012	a1 00 00 00 00	 mov	 eax, DWORD PTR ___security_cookie
  00017	33 c5		 xor	 eax, ebp
  00019	50		 push	 eax
  0001a	8d 45 f4	 lea	 eax, DWORD PTR __$EHRec$[ebp]
  0001d	64 a3 00 00 00
	00		 mov	 DWORD PTR fs:0, eax
  00023	8b f1		 mov	 esi, ecx

; 872  : 	m_pBlocks->FreeDataChain();

  00025	8b 4e 14	 mov	 ecx, DWORD PTR [esi+20]

; 878  : {

  00028	c7 06 00 00 00
	00		 mov	 DWORD PTR [esi], OFFSET ??_7?$CList@PAUIPacket133101@@PAU1@@@6B@

; 870  : 	m_nCount = 0;

  0002e	c7 46 0c 00 00
	00 00		 mov	 DWORD PTR [esi+12], 0

; 871  : 	m_pNodeHead = m_pNodeTail = m_pNodeFree = NULL;

  00035	c7 46 10 00 00
	00 00		 mov	 DWORD PTR [esi+16], 0
  0003c	c7 46 08 00 00
	00 00		 mov	 DWORD PTR [esi+8], 0
  00043	c7 46 04 00 00
	00 00		 mov	 DWORD PTR [esi+4], 0

; 872  : 	m_pBlocks->FreeDataChain();

  0004a	e8 00 00 00 00	 call	 ?FreeDataChain@CPlex@@QAEXXZ ; CPlex::FreeDataChain

; 873  : 	m_pBlocks = NULL;

  0004f	c7 46 14 00 00
	00 00		 mov	 DWORD PTR [esi+20], 0

; 879  : 	RemoveAll();
; 880  : 	ASSERT(m_nCount == 0);
; 881  : }

  00056	8b 4d f4	 mov	 ecx, DWORD PTR __$EHRec$[ebp]
  00059	64 89 0d 00 00
	00 00		 mov	 DWORD PTR fs:0, ecx
  00060	59		 pop	 ecx
  00061	5e		 pop	 esi
  00062	8b e5		 mov	 esp, ebp
  00064	5d		 pop	 ebp
  00065	c3		 ret	 0
  00066	cc		 int	 3
  00067	cc		 int	 3
  00068	cc		 int	 3
  00069	cc		 int	 3
  0006a	cc		 int	 3
_TEXT	ENDS
;	COMDAT text$x
text$x	SEGMENT
__ehhandler$??1?$CList@PAUIPacket133101@@PAU1@@@UAE@XZ:
  00000	90		 npad	 1
  00001	90		 npad	 1
  00002	8b 54 24 08	 mov	 edx, DWORD PTR [esp+8]
  00006	8d 42 0c	 lea	 eax, DWORD PTR [edx+12]
  00009	8b 4a f8	 mov	 ecx, DWORD PTR [edx-8]
  0000c	33 c8		 xor	 ecx, eax
  0000e	e8 00 00 00 00	 call	 @__security_check_cookie@4
  00013	b8 00 00 00 00	 mov	 eax, OFFSET __ehfuncinfo$??1?$CList@PAUIPacket133101@@PAU1@@@UAE@XZ
  00018	e9 00 00 00 00	 jmp	 ___CxxFrameHandler3
text$x	ENDS
??1?$CList@PAUIPacket133101@@PAU1@@@UAE@XZ ENDP		; CList<IPacket133101 *,IPacket133101 *>::~CList<IPacket133101 *,IPacket133101 *>
; Function compile flags: /Ogtp
; File C:\Program Files (x86)\Microsoft Visual Studio\2019\Community\VC\Tools\MSVC\14.29.30133\atlmfc\include\afxtempl.h
;	COMDAT ?FreeNode@?$CList@PAUIPacket133101@@PAU1@@@IAEXPAUCNode@1@@Z
_TEXT	SEGMENT
_pNode$ = 8						; size = 4
?FreeNode@?$CList@PAUIPacket133101@@PAU1@@@IAEXPAUCNode@1@@Z PROC ; CList<IPacket133101 *,IPacket133101 *>::FreeNode, COMDAT
; _this$ = ecx

; 936  : {

  00000	55		 push	 ebp
  00001	8b ec		 mov	 ebp, esp

; 937  : 	pNode->data.~TYPE();
; 938  : 	pNode->pNext = m_pNodeFree;

  00003	8b 55 08	 mov	 edx, DWORD PTR _pNode$[ebp]
  00006	56		 push	 esi
  00007	8b f1		 mov	 esi, ecx
  00009	8b 46 10	 mov	 eax, DWORD PTR [esi+16]
  0000c	89 02		 mov	 DWORD PTR [edx], eax

; 939  : 	m_pNodeFree = pNode;
; 940  : 	m_nCount--;

  0000e	83 46 0c ff	 add	 DWORD PTR [esi+12], -1
  00012	89 56 10	 mov	 DWORD PTR [esi+16], edx

; 941  : 	ASSERT(m_nCount >= 0);  // make sure we don't underflow
; 942  : 
; 943  : 	// if no more elements, cleanup completely
; 944  : 	if (m_nCount == 0)

  00015	75 2b		 jne	 SHORT $LN2@FreeNode

; 872  : 	m_pBlocks->FreeDataChain();

  00017	8b 4e 14	 mov	 ecx, DWORD PTR [esi+20]
  0001a	c7 46 0c 00 00
	00 00		 mov	 DWORD PTR [esi+12], 0
  00021	c7 46 10 00 00
	00 00		 mov	 DWORD PTR [esi+16], 0
  00028	c7 46 08 00 00
	00 00		 mov	 DWORD PTR [esi+8], 0
  0002f	c7 46 04 00 00
	00 00		 mov	 DWORD PTR [esi+4], 0
  00036	e8 00 00 00 00	 call	 ?FreeDataChain@CPlex@@QAEXXZ ; CPlex::FreeDataChain

; 873  : 	m_pBlocks = NULL;

  0003b	c7 46 14 00 00
	00 00		 mov	 DWORD PTR [esi+20], 0
$LN2@FreeNode:
  00042	5e		 pop	 esi

; 945  : 		RemoveAll();
; 946  : }

  00043	5d		 pop	 ebp
  00044	c2 04 00	 ret	 4
?FreeNode@?$CList@PAUIPacket133101@@PAU1@@@IAEXPAUCNode@1@@Z ENDP ; CList<IPacket133101 *,IPacket133101 *>::FreeNode
_TEXT	ENDS
; Function compile flags: /Ogtp
; File C:\Program Files (x86)\Microsoft Visual Studio\2019\Community\VC\Tools\MSVC\14.29.30133\atlmfc\include\afxtempl.h
;	COMDAT ?NewNode@?$CList@PAUIPacket133101@@PAU1@@@IAEPAUCNode@1@PAU21@0@Z
_TEXT	SEGMENT
_pPrev$ = 8						; size = 4
_pNext$ = 12						; size = 4
?NewNode@?$CList@PAUIPacket133101@@PAU1@@@IAEPAUCNode@1@PAU21@0@Z PROC ; CList<IPacket133101 *,IPacket133101 *>::NewNode, COMDAT
; _this$ = ecx

; 901  : {

  00000	55		 push	 ebp
  00001	8b ec		 mov	 ebp, esp
  00003	56		 push	 esi
  00004	8b f1		 mov	 esi, ecx

; 902  : 	if (m_pNodeFree == NULL)

  00006	83 7e 10 00	 cmp	 DWORD PTR [esi+16], 0
  0000a	75 34		 jne	 SHORT $LN7@NewNode

; 903  : 	{
; 904  : 		// add another block
; 905  : 		CPlex* pNewBlock = CPlex::Create(m_pBlocks, m_nBlockSize,

  0000c	6a 0c		 push	 12			; 0000000cH
  0000e	ff 76 18	 push	 DWORD PTR [esi+24]
  00011	8d 46 14	 lea	 eax, DWORD PTR [esi+20]
  00014	50		 push	 eax
  00015	e8 00 00 00 00	 call	 ?Create@CPlex@@SGPAU1@AAPAU1@II@Z ; CPlex::Create

; 906  : 				 sizeof(CNode));
; 907  : 
; 908  : 		// chain them into free list
; 909  : 		CNode* pNode = (CNode*) pNewBlock->data();
; 910  : 		// free in reverse order to make it easier to debug
; 911  : 		pNode += m_nBlockSize - 1;

  0001a	8b 56 18	 mov	 edx, DWORD PTR [esi+24]
  0001d	83 c0 08	 add	 eax, 8
  00020	8d 0c 52	 lea	 ecx, DWORD PTR [edx+edx*2]
  00023	8d 04 88	 lea	 eax, DWORD PTR [eax+ecx*4]
  00026	83 c0 f4	 add	 eax, -12		; fffffff4H

; 912  : 		for (INT_PTR i = m_nBlockSize-1; i >= 0; i--, pNode--)

  00029	83 c2 ff	 add	 edx, -1
  0002c	78 12		 js	 SHORT $LN7@NewNode
  0002e	66 90		 npad	 2
$LL4@NewNode:

; 913  : 		{
; 914  : 			pNode->pNext = m_pNodeFree;

  00030	8b 4e 10	 mov	 ecx, DWORD PTR [esi+16]
  00033	89 08		 mov	 DWORD PTR [eax], ecx

; 915  : 			m_pNodeFree = pNode;

  00035	89 46 10	 mov	 DWORD PTR [esi+16], eax
  00038	83 e8 0c	 sub	 eax, 12			; 0000000cH
  0003b	83 ea 01	 sub	 edx, 1
  0003e	79 f0		 jns	 SHORT $LL4@NewNode
$LN7@NewNode:

; 916  : 		}
; 917  : 	}
; 918  : 	ENSURE(m_pNodeFree != NULL);  // we must have something

  00040	8b 46 10	 mov	 eax, DWORD PTR [esi+16]
  00043	85 c0		 test	 eax, eax
  00045	74 18		 je	 SHORT $LN17@NewNode

; 919  : 
; 920  : 	CList::CNode* pNode = m_pNodeFree;
; 921  : 	m_pNodeFree = m_pNodeFree->pNext;

  00047	8b 08		 mov	 ecx, DWORD PTR [eax]
  00049	89 4e 10	 mov	 DWORD PTR [esi+16], ecx

; 922  : 	pNode->pPrev = pPrev;

  0004c	8b 4d 08	 mov	 ecx, DWORD PTR _pPrev$[ebp]
  0004f	89 48 04	 mov	 DWORD PTR [eax+4], ecx

; 923  : 	pNode->pNext = pNext;

  00052	8b 4d 0c	 mov	 ecx, DWORD PTR _pNext$[ebp]
  00055	89 08		 mov	 DWORD PTR [eax], ecx

; 924  : 	m_nCount++;

  00057	ff 46 0c	 inc	 DWORD PTR [esi+12]

; 925  : 	ASSERT(m_nCount > 0);  // make sure we don't overflow
; 926  : 
; 927  : #pragma push_macro("new")
; 928  : #undef new
; 929  : 	::new( (void*)( &pNode->data ) ) TYPE;
; 930  : #pragma pop_macro("new")
; 931  : 	return pNode;

  0005a	5e		 pop	 esi

; 932  : }

  0005b	5d		 pop	 ebp
  0005c	c2 08 00	 ret	 8
$LN17@NewNode:

; 916  : 		}
; 917  : 	}
; 918  : 	ENSURE(m_pNodeFree != NULL);  // we must have something

  0005f	e8 00 00 00 00	 call	 ?AfxThrowInvalidArgException@@YGXXZ ; AfxThrowInvalidArgException
$LN15@NewNode:
  00064	cc		 int	 3
?NewNode@?$CList@PAUIPacket133101@@PAU1@@@IAEPAUCNode@1@PAU21@0@Z ENDP ; CList<IPacket133101 *,IPacket133101 *>::NewNode
_TEXT	ENDS
; Function compile flags: /Ogtp
; File C:\Program Files (x86)\Microsoft Visual Studio\2019\Community\VC\Tools\MSVC\14.29.30133\atlmfc\include\afxtempl.h
;	COMDAT ?FindIndex@?$CList@PAUIPacket133101@@PAU1@@@QBEPAU__POSITION@@H@Z
_TEXT	SEGMENT
_nIndex$ = 8						; size = 4
?FindIndex@?$CList@PAUIPacket133101@@PAU1@@@QBEPAU__POSITION@@H@Z PROC ; CList<IPacket133101 *,IPacket133101 *>::FindIndex, COMDAT
; _this$ = ecx

; 1130 : {

  00000	55		 push	 ebp
  00001	8b ec		 mov	 ebp, esp

; 1131 : 	ASSERT_VALID(this);
; 1132 : 
; 1133 : 	if (nIndex >= m_nCount || nIndex < 0)

  00003	8b 55 08	 mov	 edx, DWORD PTR _nIndex$[ebp]
  00006	3b 51 0c	 cmp	 edx, DWORD PTR [ecx+12]
  00009	7d 14		 jge	 SHORT $LN5@FindIndex
  0000b	85 d2		 test	 edx, edx
  0000d	78 10		 js	 SHORT $LN5@FindIndex

; 1135 : 
; 1136 : 	CNode* pNode = m_pNodeHead;

  0000f	8b 41 04	 mov	 eax, DWORD PTR [ecx+4]

; 1137 : 	while (nIndex--)

  00012	74 0d		 je	 SHORT $LN1@FindIndex
$LL2@FindIndex:

; 1138 : 	{
; 1139 : 		ASSERT(AfxIsValidAddress(pNode, sizeof(CNode)));
; 1140 : 		pNode = pNode->pNext;

  00014	8b 00		 mov	 eax, DWORD PTR [eax]
  00016	83 ea 01	 sub	 edx, 1
  00019	75 f9		 jne	 SHORT $LL2@FindIndex

; 1141 : 	}
; 1142 : 	return (POSITION) pNode;
; 1143 : }

  0001b	5d		 pop	 ebp
  0001c	c2 04 00	 ret	 4
$LN5@FindIndex:

; 1134 : 		return NULL;  // went too far

  0001f	33 c0		 xor	 eax, eax
$LN1@FindIndex:

; 1141 : 	}
; 1142 : 	return (POSITION) pNode;
; 1143 : }

  00021	5d		 pop	 ebp
  00022	c2 04 00	 ret	 4
?FindIndex@?$CList@PAUIPacket133101@@PAU1@@@QBEPAU__POSITION@@H@Z ENDP ; CList<IPacket133101 *,IPacket133101 *>::FindIndex
_TEXT	ENDS
; Function compile flags: /Ogtp
; File C:\Program Files (x86)\Microsoft Visual Studio\2019\Community\VC\Tools\MSVC\14.29.30133\atlmfc\include\afxtempl.h
;	COMDAT ?RemoveAll@?$CList@PAUIPacket133101@@PAU1@@@QAEXXZ
_TEXT	SEGMENT
?RemoveAll@?$CList@PAUIPacket133101@@PAU1@@@QAEXXZ PROC	; CList<IPacket133101 *,IPacket133101 *>::RemoveAll, COMDAT
; _this$ = ecx

; 862  : {

  00000	56		 push	 esi
  00001	8b f1		 mov	 esi, ecx

; 863  : 	ASSERT_VALID(this);
; 864  : 
; 865  : 	// destroy elements
; 866  : 	CNode* pNode;
; 867  : 	for (pNode = m_pNodeHead; pNode != NULL; pNode = pNode->pNext)
; 868  : 		pNode->data.~TYPE();
; 869  : 
; 870  : 	m_nCount = 0;
; 871  : 	m_pNodeHead = m_pNodeTail = m_pNodeFree = NULL;
; 872  : 	m_pBlocks->FreeDataChain();

  00003	8b 4e 14	 mov	 ecx, DWORD PTR [esi+20]
  00006	c7 46 0c 00 00
	00 00		 mov	 DWORD PTR [esi+12], 0
  0000d	c7 46 10 00 00
	00 00		 mov	 DWORD PTR [esi+16], 0
  00014	c7 46 08 00 00
	00 00		 mov	 DWORD PTR [esi+8], 0
  0001b	c7 46 04 00 00
	00 00		 mov	 DWORD PTR [esi+4], 0
  00022	e8 00 00 00 00	 call	 ?FreeDataChain@CPlex@@QAEXXZ ; CPlex::FreeDataChain

; 873  : 	m_pBlocks = NULL;

  00027	c7 46 14 00 00
	00 00		 mov	 DWORD PTR [esi+20], 0
  0002e	5e		 pop	 esi

; 874  : }

  0002f	c3		 ret	 0
?RemoveAll@?$CList@PAUIPacket133101@@PAU1@@@QAEXXZ ENDP	; CList<IPacket133101 *,IPacket133101 *>::RemoveAll
_TEXT	ENDS
; Function compile flags: /Ogtp
; File C:\Program Files (x86)\Microsoft Visual Studio\2019\Community\VC\Tools\MSVC\14.29.30133\atlmfc\include\afxtempl.h
;	COMDAT ?AddTail@?$CList@PAUIPacket133101@@PAU1@@@QAEPAU__POSITION@@PAUIPacket133101@@@Z
_TEXT	SEGMENT
_newElement$ = 8					; size = 4
?AddTail@?$CList@PAUIPacket133101@@PAU1@@@QAEPAU__POSITION@@PAUIPacket133101@@@Z PROC ; CList<IPacket133101 *,IPacket133101 *>::AddTail, COMDAT
; _this$ = ecx

; 965  : {

  00000	55		 push	 ebp
  00001	8b ec		 mov	 ebp, esp
  00003	56		 push	 esi
  00004	8b f1		 mov	 esi, ecx
  00006	57		 push	 edi

; 902  : 	if (m_pNodeFree == NULL)

  00007	83 7e 10 00	 cmp	 DWORD PTR [esi+16], 0

; 966  : 	ASSERT_VALID(this);
; 967  : 
; 968  : 	CNode* pNewNode = NewNode(m_pNodeTail, NULL);

  0000b	8b 7e 08	 mov	 edi, DWORD PTR [esi+8]

; 902  : 	if (m_pNodeFree == NULL)

  0000e	75 32		 jne	 SHORT $LN11@AddTail

; 903  : 	{
; 904  : 		// add another block
; 905  : 		CPlex* pNewBlock = CPlex::Create(m_pBlocks, m_nBlockSize,

  00010	6a 0c		 push	 12			; 0000000cH
  00012	ff 76 18	 push	 DWORD PTR [esi+24]
  00015	8d 46 14	 lea	 eax, DWORD PTR [esi+20]
  00018	50		 push	 eax
  00019	e8 00 00 00 00	 call	 ?Create@CPlex@@SGPAU1@AAPAU1@II@Z ; CPlex::Create

; 906  : 				 sizeof(CNode));
; 907  : 
; 908  : 		// chain them into free list
; 909  : 		CNode* pNode = (CNode*) pNewBlock->data();
; 910  : 		// free in reverse order to make it easier to debug
; 911  : 		pNode += m_nBlockSize - 1;

  0001e	8b 56 18	 mov	 edx, DWORD PTR [esi+24]
  00021	83 c0 08	 add	 eax, 8
  00024	8d 4a ff	 lea	 ecx, DWORD PTR [edx-1]

; 912  : 		for (INT_PTR i = m_nBlockSize-1; i >= 0; i--, pNode--)

  00027	83 c2 ff	 add	 edx, -1
  0002a	8d 0c 49	 lea	 ecx, DWORD PTR [ecx+ecx*2]
  0002d	8d 0c 88	 lea	 ecx, DWORD PTR [eax+ecx*4]
  00030	78 10		 js	 SHORT $LN11@AddTail
$LL8@AddTail:

; 913  : 		{
; 914  : 			pNode->pNext = m_pNodeFree;

  00032	8b 46 10	 mov	 eax, DWORD PTR [esi+16]
  00035	89 01		 mov	 DWORD PTR [ecx], eax

; 915  : 			m_pNodeFree = pNode;

  00037	89 4e 10	 mov	 DWORD PTR [esi+16], ecx
  0003a	83 e9 0c	 sub	 ecx, 12			; 0000000cH
  0003d	83 ea 01	 sub	 edx, 1
  00040	79 f0		 jns	 SHORT $LL8@AddTail
$LN11@AddTail:

; 916  : 		}
; 917  : 	}
; 918  : 	ENSURE(m_pNodeFree != NULL);  // we must have something

  00042	8b 4e 10	 mov	 ecx, DWORD PTR [esi+16]
  00045	85 c9		 test	 ecx, ecx
  00047	74 39		 je	 SHORT $LN22@AddTail

; 919  : 
; 920  : 	CList::CNode* pNode = m_pNodeFree;
; 921  : 	m_pNodeFree = m_pNodeFree->pNext;

  00049	8b 01		 mov	 eax, DWORD PTR [ecx]
  0004b	89 46 10	 mov	 DWORD PTR [esi+16], eax

; 969  : 	pNewNode->data = newElement;

  0004e	8b 45 08	 mov	 eax, DWORD PTR _newElement$[ebp]

; 922  : 	pNode->pPrev = pPrev;

  00051	89 79 04	 mov	 DWORD PTR [ecx+4], edi

; 923  : 	pNode->pNext = pNext;

  00054	c7 01 00 00 00
	00		 mov	 DWORD PTR [ecx], 0

; 924  : 	m_nCount++;

  0005a	ff 46 0c	 inc	 DWORD PTR [esi+12]

; 969  : 	pNewNode->data = newElement;

  0005d	89 41 08	 mov	 DWORD PTR [ecx+8], eax

; 970  : 	if (m_pNodeTail != NULL)

  00060	8b 46 08	 mov	 eax, DWORD PTR [esi+8]
  00063	85 c0		 test	 eax, eax
  00065	74 0d		 je	 SHORT $LN2@AddTail

; 971  : 		m_pNodeTail->pNext = pNewNode;

  00067	89 08		 mov	 DWORD PTR [eax], ecx

; 972  : 	else
; 973  : 		m_pNodeHead = pNewNode;
; 974  : 	m_pNodeTail = pNewNode;
; 975  : 	return (POSITION) pNewNode;

  00069	8b c1		 mov	 eax, ecx
  0006b	5f		 pop	 edi
  0006c	89 4e 08	 mov	 DWORD PTR [esi+8], ecx
  0006f	5e		 pop	 esi

; 976  : }

  00070	5d		 pop	 ebp
  00071	c2 04 00	 ret	 4
$LN2@AddTail:

; 972  : 	else
; 973  : 		m_pNodeHead = pNewNode;
; 974  : 	m_pNodeTail = pNewNode;
; 975  : 	return (POSITION) pNewNode;

  00074	5f		 pop	 edi
  00075	89 4e 04	 mov	 DWORD PTR [esi+4], ecx
  00078	8b c1		 mov	 eax, ecx
  0007a	89 4e 08	 mov	 DWORD PTR [esi+8], ecx
  0007d	5e		 pop	 esi

; 976  : }

  0007e	5d		 pop	 ebp
  0007f	c2 04 00	 ret	 4
$LN22@AddTail:

; 918  : 	ENSURE(m_pNodeFree != NULL);  // we must have something

  00082	e8 00 00 00 00	 call	 ?AfxThrowInvalidArgException@@YGXXZ ; AfxThrowInvalidArgException
$LN20@AddTail:
  00087	cc		 int	 3
?AddTail@?$CList@PAUIPacket133101@@PAU1@@@QAEPAU__POSITION@@PAUIPacket133101@@@Z ENDP ; CList<IPacket133101 *,IPacket133101 *>::AddTail
_TEXT	ENDS
; Function compile flags: /Ogtp
; File C:\Program Files (x86)\Microsoft Visual Studio\2019\Community\VC\Tools\MSVC\14.29.30133\atlmfc\include\afxtempl.h
;	COMDAT ?RemoveHead@?$CList@PAUIPacket133101@@PAU1@@@QAEPAUIPacket133101@@XZ
_TEXT	SEGMENT
?RemoveHead@?$CList@PAUIPacket133101@@PAU1@@@QAEPAUIPacket133101@@XZ PROC ; CList<IPacket133101 *,IPacket133101 *>::RemoveHead, COMDAT
; _this$ = ecx

; 1007 : {

  00000	56		 push	 esi
  00001	8b f1		 mov	 esi, ecx
  00003	57		 push	 edi

; 1008 : 	ASSERT_VALID(this);
; 1009 : 	ENSURE(m_pNodeHead != NULL);  // don't call on empty list !!!

  00004	8b 4e 04	 mov	 ecx, DWORD PTR [esi+4]
  00007	85 c9		 test	 ecx, ecx
  00009	74 5a		 je	 SHORT $LN24@RemoveHead

; 1010 : 	ASSERT(AfxIsValidAddress(m_pNodeHead, sizeof(CNode)));
; 1011 : 
; 1012 : 	CNode* pOldNode = m_pNodeHead;
; 1013 : 	TYPE returnValue = pOldNode->data;
; 1014 : 
; 1015 : 	m_pNodeHead = pOldNode->pNext;

  0000b	8b 01		 mov	 eax, DWORD PTR [ecx]
  0000d	8b 79 08	 mov	 edi, DWORD PTR [ecx+8]
  00010	89 46 04	 mov	 DWORD PTR [esi+4], eax

; 1016 : 	if (m_pNodeHead != NULL)

  00013	85 c0		 test	 eax, eax
  00015	74 09		 je	 SHORT $LN6@RemoveHead

; 1017 : 		m_pNodeHead->pPrev = NULL;

  00017	c7 40 04 00 00
	00 00		 mov	 DWORD PTR [eax+4], 0
  0001e	eb 07		 jmp	 SHORT $LN7@RemoveHead
$LN6@RemoveHead:

; 1018 : 	else
; 1019 : 		m_pNodeTail = NULL;

  00020	c7 46 08 00 00
	00 00		 mov	 DWORD PTR [esi+8], 0
$LN7@RemoveHead:

; 938  : 	pNode->pNext = m_pNodeFree;

  00027	8b 46 10	 mov	 eax, DWORD PTR [esi+16]
  0002a	89 01		 mov	 DWORD PTR [ecx], eax

; 939  : 	m_pNodeFree = pNode;
; 940  : 	m_nCount--;

  0002c	83 46 0c ff	 add	 DWORD PTR [esi+12], -1
  00030	89 4e 10	 mov	 DWORD PTR [esi+16], ecx

; 941  : 	ASSERT(m_nCount >= 0);  // make sure we don't underflow
; 942  : 
; 943  : 	// if no more elements, cleanup completely
; 944  : 	if (m_nCount == 0)

  00033	75 2b		 jne	 SHORT $LN10@RemoveHead

; 872  : 	m_pBlocks->FreeDataChain();

  00035	8b 4e 14	 mov	 ecx, DWORD PTR [esi+20]
  00038	c7 46 0c 00 00
	00 00		 mov	 DWORD PTR [esi+12], 0
  0003f	c7 46 10 00 00
	00 00		 mov	 DWORD PTR [esi+16], 0
  00046	c7 46 08 00 00
	00 00		 mov	 DWORD PTR [esi+8], 0
  0004d	c7 46 04 00 00
	00 00		 mov	 DWORD PTR [esi+4], 0
  00054	e8 00 00 00 00	 call	 ?FreeDataChain@CPlex@@QAEXXZ ; CPlex::FreeDataChain

; 873  : 	m_pBlocks = NULL;

  00059	c7 46 14 00 00
	00 00		 mov	 DWORD PTR [esi+20], 0
$LN10@RemoveHead:

; 1020 : 	FreeNode(pOldNode);
; 1021 : 	return returnValue;

  00060	8b c7		 mov	 eax, edi
  00062	5f		 pop	 edi
  00063	5e		 pop	 esi

; 1022 : }

  00064	c3		 ret	 0
$LN24@RemoveHead:

; 1008 : 	ASSERT_VALID(this);
; 1009 : 	ENSURE(m_pNodeHead != NULL);  // don't call on empty list !!!

  00065	e8 00 00 00 00	 call	 ?AfxThrowInvalidArgException@@YGXXZ ; AfxThrowInvalidArgException
$LN22@RemoveHead:
  0006a	cc		 int	 3
?RemoveHead@?$CList@PAUIPacket133101@@PAU1@@@QAEPAUIPacket133101@@XZ ENDP ; CList<IPacket133101 *,IPacket133101 *>::RemoveHead
_TEXT	ENDS
; Function compile flags: /Ogtp
; File C:\Program Files (x86)\Microsoft Visual Studio\2019\Community\VC\Tools\MSVC\14.29.30133\atlmfc\include\afxtempl.h
;	COMDAT ??0?$CList@PAUIPacket133101@@PAU1@@@QAE@H@Z
_TEXT	SEGMENT
_nBlockSize$ = 8					; size = 4
??0?$CList@PAUIPacket133101@@PAU1@@@QAE@H@Z PROC	; CList<IPacket133101 *,IPacket133101 *>::CList<IPacket133101 *,IPacket133101 *>, COMDAT
; _this$ = ecx

; 851  : {

  00000	55		 push	 ebp
  00001	8b ec		 mov	 ebp, esp

; 852  : 	ASSERT(nBlockSize > 0);
; 853  : 
; 854  : 	m_nCount = 0;
; 855  : 	m_pNodeHead = m_pNodeTail = m_pNodeFree = NULL;
; 856  : 	m_pBlocks = NULL;
; 857  : 	m_nBlockSize = nBlockSize;

  00003	8b 45 08	 mov	 eax, DWORD PTR _nBlockSize$[ebp]
  00006	89 41 18	 mov	 DWORD PTR [ecx+24], eax

; 858  : }

  00009	8b c1		 mov	 eax, ecx
  0000b	c7 01 00 00 00
	00		 mov	 DWORD PTR [ecx], OFFSET ??_7?$CList@PAUIPacket133101@@PAU1@@@6B@
  00011	c7 41 0c 00 00
	00 00		 mov	 DWORD PTR [ecx+12], 0
  00018	c7 41 10 00 00
	00 00		 mov	 DWORD PTR [ecx+16], 0
  0001f	c7 41 08 00 00
	00 00		 mov	 DWORD PTR [ecx+8], 0
  00026	c7 41 04 00 00
	00 00		 mov	 DWORD PTR [ecx+4], 0
  0002d	c7 41 14 00 00
	00 00		 mov	 DWORD PTR [ecx+20], 0
  00034	5d		 pop	 ebp
  00035	c2 04 00	 ret	 4
??0?$CList@PAUIPacket133101@@PAU1@@@QAE@H@Z ENDP	; CList<IPacket133101 *,IPacket133101 *>::CList<IPacket133101 *,IPacket133101 *>
_TEXT	ENDS
; Function compile flags: /Ogtp
; File D:\git\src\IBK\IBK_DRFN\ProjSrc\SrcChartEx\ChartAddIn\ChartAnalysisToolAddIn\AnalysisTool\AutoTrendData.cpp
;	COMDAT ?ApplyExp@CAutoTrendDrawingCalculatorData@@QBENABN@Z
_TEXT	SEGMENT
_dData$ = 8						; size = 4
?ApplyExp@CAutoTrendDrawingCalculatorData@@QBENABN@Z PROC ; CAutoTrendDrawingCalculatorData::ApplyExp, COMDAT
; _this$ = ecx

; 207  : {

  00000	55		 push	 ebp
  00001	8b ec		 mov	 ebp, esp

; 208  : 	return m_calData.ApplyExp(dData);

  00003	83 c1 30	 add	 ecx, 48			; 00000030H

; 209  : }

  00006	5d		 pop	 ebp

; 208  : 	return m_calData.ApplyExp(dData);

  00007	e9 00 00 00 00	 jmp	 ?ApplyExp@CCoordinateCalculatorData@@QBENABN@Z ; CCoordinateCalculatorData::ApplyExp
?ApplyExp@CAutoTrendDrawingCalculatorData@@QBENABN@Z ENDP ; CAutoTrendDrawingCalculatorData::ApplyExp
_TEXT	ENDS
; Function compile flags: /Ogtp
; File D:\git\src\IBK\IBK_DRFN\ProjSrc\SrcChartEx\ChartAddIn\ChartAnalysisToolAddIn\AnalysisTool\AutoTrendData.cpp
;	COMDAT ?ApplyLog@CAutoTrendDrawingCalculatorData@@QBENABN@Z
_TEXT	SEGMENT
_dData$ = 8						; size = 4
?ApplyLog@CAutoTrendDrawingCalculatorData@@QBENABN@Z PROC ; CAutoTrendDrawingCalculatorData::ApplyLog, COMDAT
; _this$ = ecx

; 202  : {

  00000	55		 push	 ebp
  00001	8b ec		 mov	 ebp, esp

; 203  : 	return m_calData.ApplyLog(dData);

  00003	83 c1 30	 add	 ecx, 48			; 00000030H

; 204  : }

  00006	5d		 pop	 ebp

; 203  : 	return m_calData.ApplyLog(dData);

  00007	e9 00 00 00 00	 jmp	 ?ApplyLog@CCoordinateCalculatorData@@QBENABN@Z ; CCoordinateCalculatorData::ApplyLog
?ApplyLog@CAutoTrendDrawingCalculatorData@@QBENABN@Z ENDP ; CAutoTrendDrawingCalculatorData::ApplyLog
_TEXT	ENDS
; Function compile flags: /Ogtp
; File D:\git\src\IBK\IBK_DRFN\ProjSrc\SrcChartEx\ChartAddIn\ChartAnalysisToolAddIn\AnalysisTool\AutoTrendData.cpp
;	COMDAT ?DoesCalculator@CAutoTrendDrawingCalculatorData@@QBE_NABVCPoint@@@Z
_TEXT	SEGMENT
_point$ = 8						; size = 4
?DoesCalculator@CAutoTrendDrawingCalculatorData@@QBE_NABVCPoint@@@Z PROC ; CAutoTrendDrawingCalculatorData::DoesCalculator, COMDAT
; _this$ = ecx

; 193  : {

  00000	55		 push	 ebp
  00001	8b ec		 mov	 ebp, esp

; 194  : 	if(m_packetList.GetCount() <= 0)

  00003	83 79 1c 00	 cmp	 DWORD PTR [ecx+28], 0
  00007	7f 06		 jg	 SHORT $LN2@DoesCalcul

; 195  : 		return false;

  00009	32 c0		 xor	 al, al

; 198  : }

  0000b	5d		 pop	 ebp
  0000c	c2 04 00	 ret	 4
$LN2@DoesCalcul:

; 196  : 
; 197  : 	return m_calData.DoesCalculator(point);

  0000f	83 c1 30	 add	 ecx, 48			; 00000030H

; 198  : }

  00012	5d		 pop	 ebp

; 196  : 
; 197  : 	return m_calData.DoesCalculator(point);

  00013	e9 00 00 00 00	 jmp	 ?DoesCalculator@CCoordinateCalculatorData@@QBE_NABVCPoint@@@Z ; CCoordinateCalculatorData::DoesCalculator
?DoesCalculator@CAutoTrendDrawingCalculatorData@@QBE_NABVCPoint@@@Z ENDP ; CAutoTrendDrawingCalculatorData::DoesCalculator
_TEXT	ENDS
; Function compile flags: /Ogtp
; File D:\git\src\IBK\IBK_DRFN\ProjSrc\SrcChartEx\ChartAddIn\ChartAnalysisToolAddIn\AnalysisTool\AutoTrendData.cpp
;	COMDAT ?GetCoordinateCalculatorData@CAutoTrendDrawingCalculatorData@@QAEAAVCCoordinateCalculatorData@@XZ
_TEXT	SEGMENT
?GetCoordinateCalculatorData@CAutoTrendDrawingCalculatorData@@QAEAAVCCoordinateCalculatorData@@XZ PROC ; CAutoTrendDrawingCalculatorData::GetCoordinateCalculatorData, COMDAT
; _this$ = ecx

; 188  : 	return m_calData;

  00000	8d 41 30	 lea	 eax, DWORD PTR [ecx+48]

; 189  : }

  00003	c3		 ret	 0
?GetCoordinateCalculatorData@CAutoTrendDrawingCalculatorData@@QAEAAVCCoordinateCalculatorData@@XZ ENDP ; CAutoTrendDrawingCalculatorData::GetCoordinateCalculatorData
_TEXT	ENDS
; Function compile flags: /Ogtp
; File D:\git\src\IBK\IBK_DRFN\ProjSrc\SrcChartEx\ChartAddIn\ChartAnalysisToolAddIn\AnalysisTool\AutoTrendData.cpp
;	COMDAT ?GetCoordinateCalculatorData@CAutoTrendDrawingCalculatorData@@QBE?AVCCoordinateCalculatorData@@XZ
_TEXT	SEGMENT
___$ReturnUdt$ = 8					; size = 4
?GetCoordinateCalculatorData@CAutoTrendDrawingCalculatorData@@QBE?AVCCoordinateCalculatorData@@XZ PROC ; CAutoTrendDrawingCalculatorData::GetCoordinateCalculatorData, COMDAT
; _this$ = ecx

; 182  : {

  00000	55		 push	 ebp
  00001	8b ec		 mov	 ebp, esp

; 183  : 	return m_calData;

  00003	8d 41 30	 lea	 eax, DWORD PTR [ecx+48]
  00006	8b 4d 08	 mov	 ecx, DWORD PTR ___$ReturnUdt$[ebp]
  00009	50		 push	 eax
  0000a	e8 00 00 00 00	 call	 ??0CCoordinateCalculatorData@@QAE@ABV0@@Z ; CCoordinateCalculatorData::CCoordinateCalculatorData
  0000f	8b 45 08	 mov	 eax, DWORD PTR ___$ReturnUdt$[ebp]

; 184  : }

  00012	5d		 pop	 ebp
  00013	c2 04 00	 ret	 4
?GetCoordinateCalculatorData@CAutoTrendDrawingCalculatorData@@QBE?AVCCoordinateCalculatorData@@XZ ENDP ; CAutoTrendDrawingCalculatorData::GetCoordinateCalculatorData
_TEXT	ENDS
; Function compile flags: /Ogtp
; File D:\git\src\IBK\IBK_DRFN\ProjSrc\SrcChartEx\ChartAddIn\ChartAnalysisToolAddIn\AnalysisTool\AutoTrendData.cpp
; File C:\Program Files (x86)\Microsoft Visual Studio\2019\Community\VC\Tools\MSVC\14.29.30133\atlmfc\include\afxtempl.h
; File D:\git\src\IBK\IBK_DRFN\ProjSrc\SrcChartEx\ChartAddIn\ChartAnalysisToolAddIn\AnalysisTool\AutoTrendData.cpp
;	COMDAT ?GetPacket@CAutoTrendDrawingCalculatorData@@QBEPAUIPacket133101@@H@Z
_TEXT	SEGMENT
_nIndex$ = 8						; size = 4
?GetPacket@CAutoTrendDrawingCalculatorData@@QBEPAUIPacket133101@@H@Z PROC ; CAutoTrendDrawingCalculatorData::GetPacket, COMDAT
; _this$ = ecx

; 172  : {

  00000	55		 push	 ebp
  00001	8b ec		 mov	 ebp, esp

; 173  : 	POSITION pos = m_packetList.FindIndex(nIndex);

  00003	8b 45 08	 mov	 eax, DWORD PTR _nIndex$[ebp]
; File C:\Program Files (x86)\Microsoft Visual Studio\2019\Community\VC\Tools\MSVC\14.29.30133\atlmfc\include\afxtempl.h

; 1133 : 	if (nIndex >= m_nCount || nIndex < 0)

  00006	3b 41 1c	 cmp	 eax, DWORD PTR [ecx+28]
  00009	7d 29		 jge	 SHORT $LN16@GetPacket
  0000b	85 c0		 test	 eax, eax
  0000d	78 25		 js	 SHORT $LN16@GetPacket

; 1134 : 		return NULL;  // went too far
; 1135 : 
; 1136 : 	CNode* pNode = m_pNodeHead;

  0000f	8b 49 14	 mov	 ecx, DWORD PTR [ecx+20]

; 1137 : 	while (nIndex--)

  00012	74 07		 je	 SHORT $LN12@GetPacket
$LL6@GetPacket:

; 1138 : 	{
; 1139 : 		ASSERT(AfxIsValidAddress(pNode, sizeof(CNode)));
; 1140 : 		pNode = pNode->pNext;

  00014	8b 09		 mov	 ecx, DWORD PTR [ecx]
  00016	83 e8 01	 sub	 eax, 1
  00019	75 f9		 jne	 SHORT $LL6@GetPacket
$LN12@GetPacket:
; File D:\git\src\IBK\IBK_DRFN\ProjSrc\SrcChartEx\ChartAddIn\ChartAnalysisToolAddIn\AnalysisTool\AutoTrendData.cpp

; 174  : 	if(pos == NULL) return NULL;

  0001b	85 c9		 test	 ecx, ecx
  0001d	74 15		 je	 SHORT $LN16@GetPacket

; 175  : 
; 176  : 	IPacket *pIPacket = m_packetList.GetAt( pos);

  0001f	56		 push	 esi
  00020	8b 71 08	 mov	 esi, DWORD PTR [ecx+8]

; 177  : 	if( pIPacket) pIPacket->AddRef();

  00023	85 f6		 test	 esi, esi
  00025	74 06		 je	 SHORT $LN3@GetPacket
  00027	8b 0e		 mov	 ecx, DWORD PTR [esi]
  00029	56		 push	 esi
  0002a	ff 51 04	 call	 DWORD PTR [ecx+4]
$LN3@GetPacket:

; 178  : 	return pIPacket;

  0002d	8b c6		 mov	 eax, esi
  0002f	5e		 pop	 esi

; 179  : }

  00030	5d		 pop	 ebp
  00031	c2 04 00	 ret	 4
$LN16@GetPacket:

; 174  : 	if(pos == NULL) return NULL;

  00034	33 c0		 xor	 eax, eax

; 179  : }

  00036	5d		 pop	 ebp
  00037	c2 04 00	 ret	 4
?GetPacket@CAutoTrendDrawingCalculatorData@@QBEPAUIPacket133101@@H@Z ENDP ; CAutoTrendDrawingCalculatorData::GetPacket
_TEXT	ENDS
; Function compile flags: /Ogtp
; File D:\git\src\IBK\IBK_DRFN\ProjSrc\SrcChartEx\ChartAddIn\ChartAnalysisToolAddIn\AnalysisTool\AutoTrendData.cpp
;	COMDAT ?GetPacketList@CAutoTrendDrawingCalculatorData@@QAEAAV?$CList@PAUIPacket133101@@PAU1@@@XZ
_TEXT	SEGMENT
?GetPacketList@CAutoTrendDrawingCalculatorData@@QAEAAV?$CList@PAUIPacket133101@@PAU1@@@XZ PROC ; CAutoTrendDrawingCalculatorData::GetPacketList, COMDAT
; _this$ = ecx

; 168  : 	return m_packetList;

  00000	8d 41 10	 lea	 eax, DWORD PTR [ecx+16]

; 169  : }

  00003	c3		 ret	 0
?GetPacketList@CAutoTrendDrawingCalculatorData@@QAEAAV?$CList@PAUIPacket133101@@PAU1@@@XZ ENDP ; CAutoTrendDrawingCalculatorData::GetPacketList
_TEXT	ENDS
; Function compile flags: /Ogtp
; File D:\git\src\IBK\IBK_DRFN\ProjSrc\SrcChartEx\ChartAddIn\ChartAnalysisToolAddIn\AnalysisTool\AutoTrendData.cpp
;	COMDAT ?GetPacketList@CAutoTrendDrawingCalculatorData@@QBEABV?$CList@PAUIPacket133101@@PAU1@@@XZ
_TEXT	SEGMENT
?GetPacketList@CAutoTrendDrawingCalculatorData@@QBEABV?$CList@PAUIPacket133101@@PAU1@@@XZ PROC ; CAutoTrendDrawingCalculatorData::GetPacketList, COMDAT
; _this$ = ecx

; 163  : 	return m_packetList;

  00000	8d 41 10	 lea	 eax, DWORD PTR [ecx+16]

; 164  : }

  00003	c3		 ret	 0
?GetPacketList@CAutoTrendDrawingCalculatorData@@QBEABV?$CList@PAUIPacket133101@@PAU1@@@XZ ENDP ; CAutoTrendDrawingCalculatorData::GetPacketList
_TEXT	ENDS
; Function compile flags: /Ogtp
; File D:\git\src\IBK\IBK_DRFN\ProjSrc\SrcChartEx\ChartAddIn\ChartAnalysisToolAddIn\AnalysisTool\AutoTrendData.cpp
;	COMDAT ?GetNoFrameGraphRegion@CAutoTrendDrawingCalculatorData@@QBE?AVCRect@@XZ
_TEXT	SEGMENT
___$ReturnUdt$ = 8					; size = 4
?GetNoFrameGraphRegion@CAutoTrendDrawingCalculatorData@@QBE?AVCRect@@XZ PROC ; CAutoTrendDrawingCalculatorData::GetNoFrameGraphRegion, COMDAT
; _this$ = ecx

; 157  : {

  00000	55		 push	 ebp
  00001	8b ec		 mov	 ebp, esp

; 158  : 	return m_noFrameGraphRegion;

  00003	8b 45 08	 mov	 eax, DWORD PTR ___$ReturnUdt$[ebp]
  00006	0f 10 01	 movups	 xmm0, XMMWORD PTR [ecx]
  00009	0f 11 00	 movups	 XMMWORD PTR [eax], xmm0

; 159  : }

  0000c	5d		 pop	 ebp
  0000d	c2 04 00	 ret	 4
?GetNoFrameGraphRegion@CAutoTrendDrawingCalculatorData@@QBE?AVCRect@@XZ ENDP ; CAutoTrendDrawingCalculatorData::GetNoFrameGraphRegion
_TEXT	ENDS
; Function compile flags: /Ogtp
; File D:\git\src\IBK\IBK_DRFN\ProjSrc\SrcChartEx\ChartAddIn\ChartAnalysisToolAddIn\AnalysisTool\AutoTrendData.cpp
;	COMDAT ?SetCoordinateCalculatorData@CAutoTrendDrawingCalculatorData@@QAEXABVCCoordinateCalculatorData@@@Z
_TEXT	SEGMENT
_calData$ = 8						; size = 4
?SetCoordinateCalculatorData@CAutoTrendDrawingCalculatorData@@QAEXABVCCoordinateCalculatorData@@@Z PROC ; CAutoTrendDrawingCalculatorData::SetCoordinateCalculatorData, COMDAT
; _this$ = ecx

; 151  : {

  00000	55		 push	 ebp
  00001	8b ec		 mov	 ebp, esp

; 152  : 	m_calData = calData;

  00003	83 c1 30	 add	 ecx, 48			; 00000030H

; 153  : }

  00006	5d		 pop	 ebp

; 152  : 	m_calData = calData;

  00007	e9 00 00 00 00	 jmp	 ??4CCoordinateCalculatorData@@QAEAAV0@ABV0@@Z ; CCoordinateCalculatorData::operator=
?SetCoordinateCalculatorData@CAutoTrendDrawingCalculatorData@@QAEXABVCCoordinateCalculatorData@@@Z ENDP ; CAutoTrendDrawingCalculatorData::SetCoordinateCalculatorData
_TEXT	ENDS
; Function compile flags: /Ogtp
; File D:\git\src\IBK\IBK_DRFN\ProjSrc\SrcChartEx\ChartAddIn\ChartAnalysisToolAddIn\AnalysisTool\AutoTrendData.cpp
; File C:\Program Files (x86)\Microsoft Visual Studio\2019\Community\VC\Tools\MSVC\14.29.30133\atlmfc\include\afxtempl.h
; File D:\git\src\IBK\IBK_DRFN\ProjSrc\SrcChartEx\ChartAddIn\ChartAnalysisToolAddIn\AnalysisTool\AutoTrendData.cpp
; File C:\Program Files (x86)\Microsoft Visual Studio\2019\Community\VC\Tools\MSVC\14.29.30133\atlmfc\include\afxtempl.h
; File D:\git\src\IBK\IBK_DRFN\ProjSrc\SrcChartEx\ChartAddIn\ChartAnalysisToolAddIn\AnalysisTool\AutoTrendData.cpp
; File C:\Program Files (x86)\Microsoft Visual Studio\2019\Community\VC\Tools\MSVC\14.29.30133\atlmfc\include\afxtempl.h
; File D:\git\src\IBK\IBK_DRFN\ProjSrc\SrcChartEx\ChartAddIn\ChartAnalysisToolAddIn\AnalysisTool\AutoTrendData.cpp
; File C:\Program Files (x86)\Microsoft Visual Studio\2019\Community\VC\Tools\MSVC\14.29.30133\atlmfc\include\atlsimpstr.h
; File D:\git\src\IBK\IBK_DRFN\ProjSrc\SrcChartEx\ChartAddIn\ChartAnalysisToolAddIn\AnalysisTool\AutoTrendData.cpp
; File C:\Program Files (x86)\Microsoft Visual Studio\2019\Community\VC\Tools\MSVC\14.29.30133\atlmfc\include\atlsimpstr.h
; File C:\Program Files (x86)\Microsoft Visual Studio\2019\Community\VC\Tools\MSVC\14.29.30133\atlmfc\include\cstringt.h
; File D:\git\src\IBK\IBK_DRFN\ProjSrc\SrcChartEx\ChartAddIn\ChartAnalysisToolAddIn\AnalysisTool\AutoTrendData.cpp
; File C:\Program Files (x86)\Microsoft Visual Studio\2019\Community\VC\Tools\MSVC\14.29.30133\atlmfc\include\afxtempl.h
; File D:\git\src\IBK\IBK_DRFN\ProjSrc\SrcChartEx\ChartAddIn\ChartAnalysisToolAddIn\AnalysisTool\AutoTrendData.cpp
; File C:\Program Files (x86)\Microsoft Visual Studio\2019\Community\VC\Tools\MSVC\14.29.30133\atlmfc\include\afxtempl.h
; File D:\git\src\IBK\IBK_DRFN\ProjSrc\SrcChartEx\ChartAddIn\ChartAnalysisToolAddIn\AnalysisTool\AutoTrendData.cpp
; File C:\Program Files (x86)\Microsoft Visual Studio\2019\Community\VC\Tools\MSVC\14.29.30133\atlmfc\include\afxtempl.h
; File D:\git\src\IBK\IBK_DRFN\ProjSrc\SrcChartEx\ChartAddIn\ChartAnalysisToolAddIn\AnalysisTool\AutoTrendData.cpp
;	COMDAT ?SetPacketList@CAutoTrendDrawingCalculatorData@@QAEXPAUIPacketManager133101@@ABV?$CStringT@DV?$StrTraitMFC_DLL@DV?$ChTraitsCRT@D@ATL@@@@@ATL@@@Z
_TEXT	SEGMENT
_nCount$1$ = -20					; size = 4
_strRealPacketNames$ = -16				; size = 4
__$EHRec$ = -12						; size = 12
_packetName$2 = 8					; size = 4
$T3 = 8							; size = 4
$T4 = 8							; size = 4
_pPacketList$ = 8					; size = 4
$T5 = 12						; size = 4
_strPacketNames$ = 12					; size = 4
?SetPacketList@CAutoTrendDrawingCalculatorData@@QAEXPAUIPacketManager133101@@ABV?$CStringT@DV?$StrTraitMFC_DLL@DV?$ChTraitsCRT@D@ATL@@@@@ATL@@@Z PROC ; CAutoTrendDrawingCalculatorData::SetPacketList, COMDAT
; _this$ = ecx

; 117  : {

  00000	55		 push	 ebp
  00001	8b ec		 mov	 ebp, esp
  00003	6a ff		 push	 -1
  00005	68 00 00 00 00	 push	 __ehhandler$?SetPacketList@CAutoTrendDrawingCalculatorData@@QAEXPAUIPacketManager133101@@ABV?$CStringT@DV?$StrTraitMFC_DLL@DV?$ChTraitsCRT@D@ATL@@@@@ATL@@@Z
  0000a	64 a1 00 00 00
	00		 mov	 eax, DWORD PTR fs:0
  00010	50		 push	 eax
  00011	83 ec 08	 sub	 esp, 8
  00014	53		 push	 ebx
  00015	56		 push	 esi
  00016	57		 push	 edi
  00017	a1 00 00 00 00	 mov	 eax, DWORD PTR ___security_cookie
  0001c	33 c5		 xor	 eax, ebp
  0001e	50		 push	 eax
  0001f	8d 45 f4	 lea	 eax, DWORD PTR __$EHRec$[ebp]
  00022	64 a3 00 00 00
	00		 mov	 DWORD PTR fs:0, eax
  00028	8b f1		 mov	 esi, ecx
; File C:\Program Files (x86)\Microsoft Visual Studio\2019\Community\VC\Tools\MSVC\14.29.30133\atlmfc\include\afxtempl.h

; 786  : 	{ return m_nCount == 0; }

  0002a	83 7e 1c 00	 cmp	 DWORD PTR [esi+28], 0
; File D:\git\src\IBK\IBK_DRFN\ProjSrc\SrcChartEx\ChartAddIn\ChartAnalysisToolAddIn\AnalysisTool\AutoTrendData.cpp

; 119  : 	while( !m_packetList.IsEmpty())

  0002e	74 70		 je	 SHORT $LN3@SetPacketL
$LL2@SetPacketL:
; File C:\Program Files (x86)\Microsoft Visual Studio\2019\Community\VC\Tools\MSVC\14.29.30133\atlmfc\include\afxtempl.h

; 1009 : 	ENSURE(m_pNodeHead != NULL);  // don't call on empty list !!!

  00030	8b 4e 14	 mov	 ecx, DWORD PTR [esi+20]
  00033	85 c9		 test	 ecx, ecx
  00035	0f 84 1b 02 00
	00		 je	 $LN80@SetPacketL

; 1010 : 	ASSERT(AfxIsValidAddress(m_pNodeHead, sizeof(CNode)));
; 1011 : 
; 1012 : 	CNode* pOldNode = m_pNodeHead;
; 1013 : 	TYPE returnValue = pOldNode->data;
; 1014 : 
; 1015 : 	m_pNodeHead = pOldNode->pNext;

  0003b	8b 01		 mov	 eax, DWORD PTR [ecx]
  0003d	8b 79 08	 mov	 edi, DWORD PTR [ecx+8]
  00040	89 46 14	 mov	 DWORD PTR [esi+20], eax

; 1016 : 	if (m_pNodeHead != NULL)

  00043	85 c0		 test	 eax, eax
  00045	74 09		 je	 SHORT $LN29@SetPacketL

; 1017 : 		m_pNodeHead->pPrev = NULL;

  00047	c7 40 04 00 00
	00 00		 mov	 DWORD PTR [eax+4], 0
  0004e	eb 07		 jmp	 SHORT $LN30@SetPacketL
$LN29@SetPacketL:

; 1018 : 	else
; 1019 : 		m_pNodeTail = NULL;

  00050	c7 46 18 00 00
	00 00		 mov	 DWORD PTR [esi+24], 0
$LN30@SetPacketL:

; 938  : 	pNode->pNext = m_pNodeFree;

  00057	8b 46 20	 mov	 eax, DWORD PTR [esi+32]
  0005a	89 01		 mov	 DWORD PTR [ecx], eax

; 939  : 	m_pNodeFree = pNode;
; 940  : 	m_nCount--;

  0005c	83 46 1c ff	 add	 DWORD PTR [esi+28], -1
  00060	89 4e 20	 mov	 DWORD PTR [esi+32], ecx

; 941  : 	ASSERT(m_nCount >= 0);  // make sure we don't underflow
; 942  : 
; 943  : 	// if no more elements, cleanup completely
; 944  : 	if (m_nCount == 0)

  00063	75 2b		 jne	 SHORT $LN33@SetPacketL

; 872  : 	m_pBlocks->FreeDataChain();

  00065	8b 4e 24	 mov	 ecx, DWORD PTR [esi+36]
  00068	c7 46 1c 00 00
	00 00		 mov	 DWORD PTR [esi+28], 0
  0006f	c7 46 20 00 00
	00 00		 mov	 DWORD PTR [esi+32], 0
  00076	c7 46 18 00 00
	00 00		 mov	 DWORD PTR [esi+24], 0
  0007d	c7 46 14 00 00
	00 00		 mov	 DWORD PTR [esi+20], 0
  00084	e8 00 00 00 00	 call	 ?FreeDataChain@CPlex@@QAEXXZ ; CPlex::FreeDataChain

; 873  : 	m_pBlocks = NULL;

  00089	c7 46 24 00 00
	00 00		 mov	 DWORD PTR [esi+36], 0
$LN33@SetPacketL:
; File D:\git\src\IBK\IBK_DRFN\ProjSrc\SrcChartEx\ChartAddIn\ChartAnalysisToolAddIn\AnalysisTool\AutoTrendData.cpp

; 122  : 		if( pIPacket) pIPacket->Release();

  00090	85 ff		 test	 edi, edi
  00092	74 06		 je	 SHORT $LN9@SetPacketL
  00094	8b 07		 mov	 eax, DWORD PTR [edi]
  00096	57		 push	 edi
  00097	ff 50 08	 call	 DWORD PTR [eax+8]
$LN9@SetPacketL:
; File C:\Program Files (x86)\Microsoft Visual Studio\2019\Community\VC\Tools\MSVC\14.29.30133\atlmfc\include\afxtempl.h

; 786  : 	{ return m_nCount == 0; }

  0009a	83 7e 1c 00	 cmp	 DWORD PTR [esi+28], 0
; File D:\git\src\IBK\IBK_DRFN\ProjSrc\SrcChartEx\ChartAddIn\ChartAnalysisToolAddIn\AnalysisTool\AutoTrendData.cpp

; 119  : 	while( !m_packetList.IsEmpty())

  0009e	75 90		 jne	 SHORT $LL2@SetPacketL
$LN3@SetPacketL:

; 125  : 	if(pPacketList == NULL || strPacketNames.IsEmpty())

  000a0	8b 5d 08	 mov	 ebx, DWORD PTR _pPacketList$[ebp]
  000a3	85 db		 test	 ebx, ebx
  000a5	0f 84 97 01 00
	00		 je	 $LN11@SetPacketL
; File C:\Program Files (x86)\Microsoft Visual Studio\2019\Community\VC\Tools\MSVC\14.29.30133\atlmfc\include\atlsimpstr.h

; 519  : 		return( GetData()->nDataLength );

  000ab	8b 4d 0c	 mov	 ecx, DWORD PTR _strPacketNames$[ebp]
  000ae	8b 01		 mov	 eax, DWORD PTR [ecx]

; 533  : 		return( GetLength() == 0 );

  000b0	83 78 f4 00	 cmp	 DWORD PTR [eax-12], 0
; File D:\git\src\IBK\IBK_DRFN\ProjSrc\SrcChartEx\ChartAddIn\ChartAnalysisToolAddIn\AnalysisTool\AutoTrendData.cpp

; 125  : 	if(pPacketList == NULL || strPacketNames.IsEmpty())

  000b4	0f 84 88 01 00
	00		 je	 $LN11@SetPacketL

; 126  : 		return;
; 127  : 
; 128  : 	CString strRealPacketNames = strPacketNames;

  000ba	51		 push	 ecx
  000bb	8d 4d f0	 lea	 ecx, DWORD PTR _strRealPacketNames$[ebp]
  000be	ff 15 00 00 00
	00		 call	 DWORD PTR __imp_??0?$CStringT@DV?$StrTraitMFC_DLL@DV?$ChTraitsCRT@D@ATL@@@@@ATL@@QAE@ABV01@@Z

; 129  : 	if(strRealPacketNames.Right(1) != ',')

  000c4	6a 01		 push	 1
  000c6	8d 45 08	 lea	 eax, DWORD PTR $T4[ebp]
  000c9	c7 45 fc 00 00
	00 00		 mov	 DWORD PTR __$EHRec$[ebp+8], 0
  000d0	50		 push	 eax
  000d1	8d 4d f0	 lea	 ecx, DWORD PTR _strRealPacketNames$[ebp]
  000d4	ff 15 00 00 00
	00		 call	 DWORD PTR __imp_?Right@?$CStringT@DV?$StrTraitMFC_DLL@DV?$ChTraitsCRT@D@ATL@@@@@ATL@@QBE?AV12@H@Z
; File C:\Program Files (x86)\Microsoft Visual Studio\2019\Community\VC\Tools\MSVC\14.29.30133\atlmfc\include\atlsimpstr.h

; 519  : 		return( GetData()->nDataLength );

  000da	8b 08		 mov	 ecx, DWORD PTR [eax]
; File C:\Program Files (x86)\Microsoft Visual Studio\2019\Community\VC\Tools\MSVC\14.29.30133\atlmfc\include\cstringt.h

; 2699 : 		return((str1.GetLength() != 1) || (str1[0] != ch2));

  000dc	83 79 f4 01	 cmp	 DWORD PTR [ecx-12], 1
  000e0	75 19		 jne	 SHORT $LN49@SetPacketL
  000e2	6a 00		 push	 0
  000e4	8b c8		 mov	 ecx, eax
  000e6	ff 15 00 00 00
	00		 call	 DWORD PTR __imp_??A?$CSimpleStringT@D$00@ATL@@QBEDH@Z
  000ec	3c 2c		 cmp	 al, 44			; 0000002cH
  000ee	75 0b		 jne	 SHORT $LN49@SetPacketL
  000f0	8d 4d 08	 lea	 ecx, DWORD PTR $T4[ebp]
  000f3	ff 15 00 00 00
	00		 call	 DWORD PTR __imp_??1?$CStringT@DV?$StrTraitMFC_DLL@DV?$ChTraitsCRT@D@ATL@@@@@ATL@@QAE@XZ
  000f9	eb 14		 jmp	 SHORT $LN12@SetPacketL
$LN49@SetPacketL:
  000fb	8d 4d 08	 lea	 ecx, DWORD PTR $T4[ebp]
  000fe	ff 15 00 00 00
	00		 call	 DWORD PTR __imp_??1?$CStringT@DV?$StrTraitMFC_DLL@DV?$ChTraitsCRT@D@ATL@@@@@ATL@@QAE@XZ
; File D:\git\src\IBK\IBK_DRFN\ProjSrc\SrcChartEx\ChartAddIn\ChartAnalysisToolAddIn\AnalysisTool\AutoTrendData.cpp

; 130  : 		strRealPacketNames += ',';

  00104	6a 2c		 push	 44			; 0000002cH
  00106	8d 4d f0	 lea	 ecx, DWORD PTR _strRealPacketNames$[ebp]
  00109	ff 15 00 00 00
	00		 call	 DWORD PTR __imp_??Y?$CStringT@DV?$StrTraitMFC_DLL@DV?$ChTraitsCRT@D@ATL@@@@@ATL@@QAEAAV01@D@Z
$LN12@SetPacketL:

; 131  : 
; 132  : 	int nCount = CDataConversion::GetStringDataCount(strRealPacketNames, ",");

  0010f	68 00 00 00 00	 push	 OFFSET ??_C@_01IHBHIGKO@?0@
  00114	8d 4d 08	 lea	 ecx, DWORD PTR $T3[ebp]
  00117	ff 15 00 00 00
	00		 call	 DWORD PTR __imp_??0?$CStringT@DV?$StrTraitMFC_DLL@DV?$ChTraitsCRT@D@ATL@@@@@ATL@@QAE@PBD@Z
  0011d	8d 45 08	 lea	 eax, DWORD PTR $T3[ebp]
  00120	c6 45 fc 01	 mov	 BYTE PTR __$EHRec$[ebp+8], 1
  00124	50		 push	 eax
  00125	8d 45 f0	 lea	 eax, DWORD PTR _strRealPacketNames$[ebp]
  00128	50		 push	 eax
  00129	e8 00 00 00 00	 call	 ?GetStringDataCount@CDataConversion@@SAHABV?$CStringT@DV?$StrTraitMFC_DLL@DV?$ChTraitsCRT@D@ATL@@@@@ATL@@0@Z ; CDataConversion::GetStringDataCount
  0012e	83 c4 08	 add	 esp, 8
  00131	89 45 ec	 mov	 DWORD PTR _nCount$1$[ebp], eax
  00134	8d 4d 08	 lea	 ecx, DWORD PTR $T3[ebp]
  00137	c6 45 fc 00	 mov	 BYTE PTR __$EHRec$[ebp+8], 0
  0013b	ff 15 00 00 00
	00		 call	 DWORD PTR __imp_??1?$CStringT@DV?$StrTraitMFC_DLL@DV?$ChTraitsCRT@D@ATL@@@@@ATL@@QAE@XZ

; 133  : 	for(int nIndex = 0; nIndex < nCount; nIndex++)

  00141	33 ff		 xor	 edi, edi
  00143	39 7d ec	 cmp	 DWORD PTR _nCount$1$[ebp], edi
  00146	0f 8e ed 00 00
	00		 jle	 $LN5@SetPacketL
  0014c	0f 1f 40 00	 npad	 4
$LL6@SetPacketL:

; 134  : 	{
; 135  : 		CString packetName = CDataConversion::GetMidToTrimDataIndex(strRealPacketNames, ",", nIndex);

  00150	68 00 00 00 00	 push	 OFFSET ??_C@_01IHBHIGKO@?0@
  00155	8d 4d 0c	 lea	 ecx, DWORD PTR $T5[ebp]
  00158	ff 15 00 00 00
	00		 call	 DWORD PTR __imp_??0?$CStringT@DV?$StrTraitMFC_DLL@DV?$ChTraitsCRT@D@ATL@@@@@ATL@@QAE@PBD@Z
  0015e	6a 01		 push	 1
  00160	57		 push	 edi
  00161	8d 45 0c	 lea	 eax, DWORD PTR $T5[ebp]
  00164	c6 45 fc 02	 mov	 BYTE PTR __$EHRec$[ebp+8], 2
  00168	50		 push	 eax
  00169	8d 45 f0	 lea	 eax, DWORD PTR _strRealPacketNames$[ebp]
  0016c	50		 push	 eax
  0016d	8d 45 08	 lea	 eax, DWORD PTR _packetName$2[ebp]
  00170	50		 push	 eax
  00171	e8 00 00 00 00	 call	 ?GetMidToTrimDataIndex@CDataConversion@@SA?AV?$CStringT@DV?$StrTraitMFC_DLL@DV?$ChTraitsCRT@D@ATL@@@@@ATL@@ABV23@0H_N@Z ; CDataConversion::GetMidToTrimDataIndex
  00176	83 c4 14	 add	 esp, 20			; 00000014H
  00179	8d 4d 0c	 lea	 ecx, DWORD PTR $T5[ebp]
  0017c	c6 45 fc 04	 mov	 BYTE PTR __$EHRec$[ebp+8], 4
  00180	ff 15 00 00 00
	00		 call	 DWORD PTR __imp_??1?$CStringT@DV?$StrTraitMFC_DLL@DV?$ChTraitsCRT@D@ATL@@@@@ATL@@QAE@XZ

; 136  : 		IPacket* pPacket = pPacketList->GetPacket(packetName);

  00186	8b 03		 mov	 eax, DWORD PTR [ebx]
  00188	8b cb		 mov	 ecx, ebx
  0018a	ff 75 08	 push	 DWORD PTR _packetName$2[ebp]
  0018d	ff 50 10	 call	 DWORD PTR [eax+16]

; 137  : 		if(pPacket == NULL)

  00190	85 c0		 test	 eax, eax
  00192	74 21		 je	 SHORT $LN78@SetPacketL

; 145  : 		}
; 146  : 		m_packetList.AddTail(pPacket);

  00194	50		 push	 eax
  00195	8d 4e 10	 lea	 ecx, DWORD PTR [esi+16]
  00198	e8 00 00 00 00	 call	 ?AddTail@?$CList@PAUIPacket133101@@PAU1@@@QAEPAU__POSITION@@PAUIPacket133101@@@Z ; CList<IPacket133101 *,IPacket133101 *>::AddTail

; 147  : 	}

  0019d	8d 4d 08	 lea	 ecx, DWORD PTR _packetName$2[ebp]
  001a0	c6 45 fc 00	 mov	 BYTE PTR __$EHRec$[ebp+8], 0
  001a4	ff 15 00 00 00
	00		 call	 DWORD PTR __imp_??1?$CStringT@DV?$StrTraitMFC_DLL@DV?$ChTraitsCRT@D@ATL@@@@@ATL@@QAE@XZ
  001aa	47		 inc	 edi
  001ab	3b 7d ec	 cmp	 edi, DWORD PTR _nCount$1$[ebp]
  001ae	7c a0		 jl	 SHORT $LL6@SetPacketL
; File C:\Program Files (x86)\Microsoft Visual Studio\2019\Community\VC\Tools\MSVC\14.29.30133\atlmfc\include\afxtempl.h

; 1009 : 	ENSURE(m_pNodeHead != NULL);  // don't call on empty list !!!

  001b0	e9 84 00 00 00	 jmp	 $LN5@SetPacketL
$LN78@SetPacketL:

; 786  : 	{ return m_nCount == 0; }

  001b5	83 7e 1c 00	 cmp	 DWORD PTR [esi+28], 0
; File D:\git\src\IBK\IBK_DRFN\ProjSrc\SrcChartEx\ChartAddIn\ChartAnalysisToolAddIn\AnalysisTool\AutoTrendData.cpp

; 139  : 			while( !m_packetList.IsEmpty())

  001b9	74 75		 je	 SHORT $LN8@SetPacketL
  001bb	0f 1f 44 00 00	 npad	 5
$LL7@SetPacketL:
; File C:\Program Files (x86)\Microsoft Visual Studio\2019\Community\VC\Tools\MSVC\14.29.30133\atlmfc\include\afxtempl.h

; 1009 : 	ENSURE(m_pNodeHead != NULL);  // don't call on empty list !!!

  001c0	8b 4e 14	 mov	 ecx, DWORD PTR [esi+20]
  001c3	85 c9		 test	 ecx, ecx
  001c5	0f 84 8b 00 00
	00		 je	 $LN80@SetPacketL

; 1010 : 	ASSERT(AfxIsValidAddress(m_pNodeHead, sizeof(CNode)));
; 1011 : 
; 1012 : 	CNode* pOldNode = m_pNodeHead;
; 1013 : 	TYPE returnValue = pOldNode->data;
; 1014 : 
; 1015 : 	m_pNodeHead = pOldNode->pNext;

  001cb	8b 01		 mov	 eax, DWORD PTR [ecx]
  001cd	8b 79 08	 mov	 edi, DWORD PTR [ecx+8]
  001d0	89 46 14	 mov	 DWORD PTR [esi+20], eax

; 1016 : 	if (m_pNodeHead != NULL)

  001d3	85 c0		 test	 eax, eax
  001d5	74 09		 je	 SHORT $LN64@SetPacketL

; 1017 : 		m_pNodeHead->pPrev = NULL;

  001d7	c7 40 04 00 00
	00 00		 mov	 DWORD PTR [eax+4], 0
  001de	eb 07		 jmp	 SHORT $LN65@SetPacketL
$LN64@SetPacketL:

; 1018 : 	else
; 1019 : 		m_pNodeTail = NULL;

  001e0	c7 46 18 00 00
	00 00		 mov	 DWORD PTR [esi+24], 0
$LN65@SetPacketL:

; 938  : 	pNode->pNext = m_pNodeFree;

  001e7	8b 46 20	 mov	 eax, DWORD PTR [esi+32]
  001ea	89 01		 mov	 DWORD PTR [ecx], eax

; 939  : 	m_pNodeFree = pNode;
; 940  : 	m_nCount--;

  001ec	83 46 1c ff	 add	 DWORD PTR [esi+28], -1
  001f0	89 4e 20	 mov	 DWORD PTR [esi+32], ecx

; 941  : 	ASSERT(m_nCount >= 0);  // make sure we don't underflow
; 942  : 
; 943  : 	// if no more elements, cleanup completely
; 944  : 	if (m_nCount == 0)

  001f3	75 2b		 jne	 SHORT $LN68@SetPacketL

; 872  : 	m_pBlocks->FreeDataChain();

  001f5	8b 4e 24	 mov	 ecx, DWORD PTR [esi+36]
  001f8	c7 46 1c 00 00
	00 00		 mov	 DWORD PTR [esi+28], 0
  001ff	c7 46 20 00 00
	00 00		 mov	 DWORD PTR [esi+32], 0
  00206	c7 46 18 00 00
	00 00		 mov	 DWORD PTR [esi+24], 0
  0020d	c7 46 14 00 00
	00 00		 mov	 DWORD PTR [esi+20], 0
  00214	e8 00 00 00 00	 call	 ?FreeDataChain@CPlex@@QAEXXZ ; CPlex::FreeDataChain

; 873  : 	m_pBlocks = NULL;

  00219	c7 46 24 00 00
	00 00		 mov	 DWORD PTR [esi+36], 0
$LN68@SetPacketL:
; File D:\git\src\IBK\IBK_DRFN\ProjSrc\SrcChartEx\ChartAddIn\ChartAnalysisToolAddIn\AnalysisTool\AutoTrendData.cpp

; 142  : 				if( pIPacket) pIPacket->Release();

  00220	85 ff		 test	 edi, edi
  00222	74 06		 je	 SHORT $LN14@SetPacketL
  00224	8b 07		 mov	 eax, DWORD PTR [edi]
  00226	57		 push	 edi
  00227	ff 50 08	 call	 DWORD PTR [eax+8]
$LN14@SetPacketL:
; File C:\Program Files (x86)\Microsoft Visual Studio\2019\Community\VC\Tools\MSVC\14.29.30133\atlmfc\include\afxtempl.h

; 786  : 	{ return m_nCount == 0; }

  0022a	83 7e 1c 00	 cmp	 DWORD PTR [esi+28], 0
; File D:\git\src\IBK\IBK_DRFN\ProjSrc\SrcChartEx\ChartAddIn\ChartAnalysisToolAddIn\AnalysisTool\AutoTrendData.cpp

; 139  : 			while( !m_packetList.IsEmpty())

  0022e	75 90		 jne	 SHORT $LL7@SetPacketL
$LN8@SetPacketL:

; 143  : 			}
; 144  : 			return;

  00230	8d 4d 08	 lea	 ecx, DWORD PTR _packetName$2[ebp]
  00233	ff 15 00 00 00
	00		 call	 DWORD PTR __imp_??1?$CStringT@DV?$StrTraitMFC_DLL@DV?$ChTraitsCRT@D@ATL@@@@@ATL@@QAE@XZ
$LN5@SetPacketL:

; 148  : }

  00239	8d 4d f0	 lea	 ecx, DWORD PTR _strRealPacketNames$[ebp]
  0023c	ff 15 00 00 00
	00		 call	 DWORD PTR __imp_??1?$CStringT@DV?$StrTraitMFC_DLL@DV?$ChTraitsCRT@D@ATL@@@@@ATL@@QAE@XZ
$LN11@SetPacketL:
  00242	8b 4d f4	 mov	 ecx, DWORD PTR __$EHRec$[ebp]
  00245	64 89 0d 00 00
	00 00		 mov	 DWORD PTR fs:0, ecx
  0024c	59		 pop	 ecx
  0024d	5f		 pop	 edi
  0024e	5e		 pop	 esi
  0024f	5b		 pop	 ebx
  00250	8b e5		 mov	 esp, ebp
  00252	5d		 pop	 ebp
  00253	c2 08 00	 ret	 8
$LN80@SetPacketL:
  00256	e8 00 00 00 00	 call	 ?AfxThrowInvalidArgException@@YGXXZ ; AfxThrowInvalidArgException
$LN99@SetPacketL:
  0025b	cc		 int	 3
_TEXT	ENDS
;	COMDAT text$x
text$x	SEGMENT
__unwindfunclet$?SetPacketList@CAutoTrendDrawingCalculatorData@@QAEXPAUIPacketManager133101@@ABV?$CStringT@DV?$StrTraitMFC_DLL@DV?$ChTraitsCRT@D@ATL@@@@@ATL@@@Z$0:
  00000	8d 4d f0	 lea	 ecx, DWORD PTR _strRealPacketNames$[ebp]
  00003	ff 25 00 00 00
	00		 jmp	 DWORD PTR __imp_??1?$CStringT@DV?$StrTraitMFC_DLL@DV?$ChTraitsCRT@D@ATL@@@@@ATL@@QAE@XZ
__unwindfunclet$?SetPacketList@CAutoTrendDrawingCalculatorData@@QAEXPAUIPacketManager133101@@ABV?$CStringT@DV?$StrTraitMFC_DLL@DV?$ChTraitsCRT@D@ATL@@@@@ATL@@@Z$2:
  00009	8d 4d 08	 lea	 ecx, DWORD PTR $T3[ebp]
  0000c	ff 25 00 00 00
	00		 jmp	 DWORD PTR __imp_??1?$CStringT@DV?$StrTraitMFC_DLL@DV?$ChTraitsCRT@D@ATL@@@@@ATL@@QAE@XZ
__unwindfunclet$?SetPacketList@CAutoTrendDrawingCalculatorData@@QAEXPAUIPacketManager133101@@ABV?$CStringT@DV?$StrTraitMFC_DLL@DV?$ChTraitsCRT@D@ATL@@@@@ATL@@@Z$3:
  00012	8d 4d 0c	 lea	 ecx, DWORD PTR $T5[ebp]
  00015	ff 25 00 00 00
	00		 jmp	 DWORD PTR __imp_??1?$CStringT@DV?$StrTraitMFC_DLL@DV?$ChTraitsCRT@D@ATL@@@@@ATL@@QAE@XZ
__unwindfunclet$?SetPacketList@CAutoTrendDrawingCalculatorData@@QAEXPAUIPacketManager133101@@ABV?$CStringT@DV?$StrTraitMFC_DLL@DV?$ChTraitsCRT@D@ATL@@@@@ATL@@@Z$4:
  0001b	8d 4d 08	 lea	 ecx, DWORD PTR _packetName$2[ebp]
  0001e	ff 25 00 00 00
	00		 jmp	 DWORD PTR __imp_??1?$CStringT@DV?$StrTraitMFC_DLL@DV?$ChTraitsCRT@D@ATL@@@@@ATL@@QAE@XZ
  00024	cc		 int	 3
  00025	cc		 int	 3
  00026	cc		 int	 3
  00027	cc		 int	 3
  00028	cc		 int	 3
__ehhandler$?SetPacketList@CAutoTrendDrawingCalculatorData@@QAEXPAUIPacketManager133101@@ABV?$CStringT@DV?$StrTraitMFC_DLL@DV?$ChTraitsCRT@D@ATL@@@@@ATL@@@Z:
  00029	90		 npad	 1
  0002a	90		 npad	 1
  0002b	8b 54 24 08	 mov	 edx, DWORD PTR [esp+8]
  0002f	8d 42 0c	 lea	 eax, DWORD PTR [edx+12]
  00032	8b 4a e8	 mov	 ecx, DWORD PTR [edx-24]
  00035	33 c8		 xor	 ecx, eax
  00037	e8 00 00 00 00	 call	 @__security_check_cookie@4
  0003c	b8 00 00 00 00	 mov	 eax, OFFSET __ehfuncinfo$?SetPacketList@CAutoTrendDrawingCalculatorData@@QAEXPAUIPacketManager133101@@ABV?$CStringT@DV?$StrTraitMFC_DLL@DV?$ChTraitsCRT@D@ATL@@@@@ATL@@@Z
  00041	e9 00 00 00 00	 jmp	 ___CxxFrameHandler3
text$x	ENDS
?SetPacketList@CAutoTrendDrawingCalculatorData@@QAEXPAUIPacketManager133101@@ABV?$CStringT@DV?$StrTraitMFC_DLL@DV?$ChTraitsCRT@D@ATL@@@@@ATL@@@Z ENDP ; CAutoTrendDrawingCalculatorData::SetPacketList
; Function compile flags: /Ogtp
; File D:\git\src\IBK\IBK_DRFN\ProjSrc\SrcChartEx\ChartAddIn\ChartAnalysisToolAddIn\AnalysisTool\AutoTrendData.cpp
;	COMDAT ?SetNoFrameGraphRegion@CAutoTrendDrawingCalculatorData@@QAEXABVCRect@@@Z
_TEXT	SEGMENT
_region$ = 8						; size = 4
?SetNoFrameGraphRegion@CAutoTrendDrawingCalculatorData@@QAEXABVCRect@@@Z PROC ; CAutoTrendDrawingCalculatorData::SetNoFrameGraphRegion, COMDAT
; _this$ = ecx

; 112  : {

  00000	55		 push	 ebp
  00001	8b ec		 mov	 ebp, esp

; 113  : 	m_noFrameGraphRegion = region;

  00003	8b 45 08	 mov	 eax, DWORD PTR _region$[ebp]
  00006	0f 10 00	 movups	 xmm0, XMMWORD PTR [eax]
  00009	0f 11 01	 movups	 XMMWORD PTR [ecx], xmm0

; 114  : }

  0000c	5d		 pop	 ebp
  0000d	c2 04 00	 ret	 4
?SetNoFrameGraphRegion@CAutoTrendDrawingCalculatorData@@QAEXABVCRect@@@Z ENDP ; CAutoTrendDrawingCalculatorData::SetNoFrameGraphRegion
_TEXT	ENDS
; Function compile flags: /Ogtp
; File D:\git\src\IBK\IBK_DRFN\ProjSrc\SrcChartEx\ChartAddIn\ChartAnalysisToolAddIn\AnalysisTool\AutoTrendData.cpp
; File C:\Program Files (x86)\Microsoft Visual Studio\2019\Community\VC\Tools\MSVC\14.29.30133\atlmfc\include\afxtempl.h
; File D:\git\src\IBK\IBK_DRFN\ProjSrc\SrcChartEx\ChartAddIn\ChartAnalysisToolAddIn\AnalysisTool\AutoTrendData.cpp
; File C:\Program Files (x86)\Microsoft Visual Studio\2019\Community\VC\Tools\MSVC\14.29.30133\atlmfc\include\afxtempl.h
; File D:\git\src\IBK\IBK_DRFN\ProjSrc\SrcChartEx\ChartAddIn\ChartAnalysisToolAddIn\AnalysisTool\AutoTrendData.cpp
; File C:\Program Files (x86)\Microsoft Visual Studio\2019\Community\VC\Tools\MSVC\14.29.30133\atlmfc\include\afxtempl.h
; File D:\git\src\IBK\IBK_DRFN\ProjSrc\SrcChartEx\ChartAddIn\ChartAnalysisToolAddIn\AnalysisTool\AutoTrendData.cpp
; File C:\Program Files (x86)\Microsoft Visual Studio\2019\Community\VC\Tools\MSVC\14.29.30133\atlmfc\include\afxtempl.h
; File D:\git\src\IBK\IBK_DRFN\ProjSrc\SrcChartEx\ChartAddIn\ChartAnalysisToolAddIn\AnalysisTool\AutoTrendData.cpp
;	COMDAT ?Initialize@CAutoTrendDrawingCalculatorData@@QAEXPAUIChartManager133101@@@Z
_TEXT	SEGMENT
$T2 = -112						; size = 96
__$ArrayPad$ = -16					; size = 4
__$EHRec$ = -12						; size = 12
_p_pIChartManager$ = 8					; size = 4
?Initialize@CAutoTrendDrawingCalculatorData@@QAEXPAUIChartManager133101@@@Z PROC ; CAutoTrendDrawingCalculatorData::Initialize, COMDAT
; _this$ = ecx

; 99   : {

  00000	55		 push	 ebp
  00001	8b ec		 mov	 ebp, esp
  00003	6a ff		 push	 -1
  00005	68 00 00 00 00	 push	 __ehhandler$?Initialize@CAutoTrendDrawingCalculatorData@@QAEXPAUIChartManager133101@@@Z
  0000a	64 a1 00 00 00
	00		 mov	 eax, DWORD PTR fs:0
  00010	50		 push	 eax
  00011	83 ec 64	 sub	 esp, 100		; 00000064H
  00014	a1 00 00 00 00	 mov	 eax, DWORD PTR ___security_cookie
  00019	33 c5		 xor	 eax, ebp
  0001b	89 45 f0	 mov	 DWORD PTR __$ArrayPad$[ebp], eax
  0001e	56		 push	 esi
  0001f	57		 push	 edi
  00020	50		 push	 eax
  00021	8d 45 f4	 lea	 eax, DWORD PTR __$EHRec$[ebp]
  00024	64 a3 00 00 00
	00		 mov	 DWORD PTR fs:0, eax
  0002a	8b f1		 mov	 esi, ecx
  0002c	8b 45 08	 mov	 eax, DWORD PTR _p_pIChartManager$[ebp]

; 100  : 	m_noFrameGraphRegion = CRect(0, 0, 0, 0);
; 101  : 	m_calData = CCoordinateCalculatorData( p_pIChartManager);

  0002f	8d 4d 90	 lea	 ecx, DWORD PTR $T2[ebp]
  00032	c7 06 00 00 00
	00		 mov	 DWORD PTR [esi], 0
  00038	c7 46 04 00 00
	00 00		 mov	 DWORD PTR [esi+4], 0
  0003f	c7 46 08 00 00
	00 00		 mov	 DWORD PTR [esi+8], 0
  00046	50		 push	 eax
  00047	c7 46 0c 00 00
	00 00		 mov	 DWORD PTR [esi+12], 0
  0004e	e8 00 00 00 00	 call	 ??0CCoordinateCalculatorData@@QAE@PAUIChartManager133101@@@Z ; CCoordinateCalculatorData::CCoordinateCalculatorData
  00053	50		 push	 eax
  00054	8d 4e 30	 lea	 ecx, DWORD PTR [esi+48]
  00057	c7 45 fc 00 00
	00 00		 mov	 DWORD PTR __$EHRec$[ebp+8], 0
  0005e	e8 00 00 00 00	 call	 ??4CCoordinateCalculatorData@@QAEAAV0@ABV0@@Z ; CCoordinateCalculatorData::operator=
  00063	8d 4d 90	 lea	 ecx, DWORD PTR $T2[ebp]
  00066	c7 45 fc ff ff
	ff ff		 mov	 DWORD PTR __$EHRec$[ebp+8], -1
  0006d	e8 00 00 00 00	 call	 ??1CCoordinateCalculatorData@@QAE@XZ ; CCoordinateCalculatorData::~CCoordinateCalculatorData
; File C:\Program Files (x86)\Microsoft Visual Studio\2019\Community\VC\Tools\MSVC\14.29.30133\atlmfc\include\afxtempl.h

; 786  : 	{ return m_nCount == 0; }

  00072	83 7e 1c 00	 cmp	 DWORD PTR [esi+28], 0
; File D:\git\src\IBK\IBK_DRFN\ProjSrc\SrcChartEx\ChartAddIn\ChartAnalysisToolAddIn\AnalysisTool\AutoTrendData.cpp

; 103  : 	while( !m_packetList.IsEmpty())

  00076	74 78		 je	 SHORT $LN3@Initialize
  00078	0f 1f 84 00 00
	00 00 00	 npad	 8
$LL2@Initialize:
; File C:\Program Files (x86)\Microsoft Visual Studio\2019\Community\VC\Tools\MSVC\14.29.30133\atlmfc\include\afxtempl.h

; 1009 : 	ENSURE(m_pNodeHead != NULL);  // don't call on empty list !!!

  00080	8b 4e 14	 mov	 ecx, DWORD PTR [esi+20]
  00083	85 c9		 test	 ecx, ecx
  00085	0f 84 82 00 00
	00		 je	 $LN30@Initialize

; 1010 : 	ASSERT(AfxIsValidAddress(m_pNodeHead, sizeof(CNode)));
; 1011 : 
; 1012 : 	CNode* pOldNode = m_pNodeHead;
; 1013 : 	TYPE returnValue = pOldNode->data;
; 1014 : 
; 1015 : 	m_pNodeHead = pOldNode->pNext;

  0008b	8b 01		 mov	 eax, DWORD PTR [ecx]
  0008d	8b 79 08	 mov	 edi, DWORD PTR [ecx+8]
  00090	89 46 14	 mov	 DWORD PTR [esi+20], eax

; 1016 : 	if (m_pNodeHead != NULL)

  00093	85 c0		 test	 eax, eax
  00095	74 09		 je	 SHORT $LN16@Initialize

; 1017 : 		m_pNodeHead->pPrev = NULL;

  00097	c7 40 04 00 00
	00 00		 mov	 DWORD PTR [eax+4], 0
  0009e	eb 07		 jmp	 SHORT $LN17@Initialize
$LN16@Initialize:

; 1018 : 	else
; 1019 : 		m_pNodeTail = NULL;

  000a0	c7 46 18 00 00
	00 00		 mov	 DWORD PTR [esi+24], 0
$LN17@Initialize:

; 938  : 	pNode->pNext = m_pNodeFree;

  000a7	8b 46 20	 mov	 eax, DWORD PTR [esi+32]
  000aa	89 01		 mov	 DWORD PTR [ecx], eax

; 939  : 	m_pNodeFree = pNode;
; 940  : 	m_nCount--;

  000ac	83 46 1c ff	 add	 DWORD PTR [esi+28], -1
  000b0	89 4e 20	 mov	 DWORD PTR [esi+32], ecx

; 941  : 	ASSERT(m_nCount >= 0);  // make sure we don't underflow
; 942  : 
; 943  : 	// if no more elements, cleanup completely
; 944  : 	if (m_nCount == 0)

  000b3	75 2b		 jne	 SHORT $LN20@Initialize

; 872  : 	m_pBlocks->FreeDataChain();

  000b5	8b 4e 24	 mov	 ecx, DWORD PTR [esi+36]
  000b8	c7 46 1c 00 00
	00 00		 mov	 DWORD PTR [esi+28], 0
  000bf	c7 46 20 00 00
	00 00		 mov	 DWORD PTR [esi+32], 0
  000c6	c7 46 18 00 00
	00 00		 mov	 DWORD PTR [esi+24], 0
  000cd	c7 46 14 00 00
	00 00		 mov	 DWORD PTR [esi+20], 0
  000d4	e8 00 00 00 00	 call	 ?FreeDataChain@CPlex@@QAEXXZ ; CPlex::FreeDataChain

; 873  : 	m_pBlocks = NULL;

  000d9	c7 46 24 00 00
	00 00		 mov	 DWORD PTR [esi+36], 0
$LN20@Initialize:
; File D:\git\src\IBK\IBK_DRFN\ProjSrc\SrcChartEx\ChartAddIn\ChartAnalysisToolAddIn\AnalysisTool\AutoTrendData.cpp

; 106  : 		if( pIPacket) pIPacket->Release();

  000e0	85 ff		 test	 edi, edi
  000e2	74 06		 je	 SHORT $LN4@Initialize
  000e4	8b 07		 mov	 eax, DWORD PTR [edi]
  000e6	57		 push	 edi
  000e7	ff 50 08	 call	 DWORD PTR [eax+8]
$LN4@Initialize:
; File C:\Program Files (x86)\Microsoft Visual Studio\2019\Community\VC\Tools\MSVC\14.29.30133\atlmfc\include\afxtempl.h

; 786  : 	{ return m_nCount == 0; }

  000ea	83 7e 1c 00	 cmp	 DWORD PTR [esi+28], 0
; File D:\git\src\IBK\IBK_DRFN\ProjSrc\SrcChartEx\ChartAddIn\ChartAnalysisToolAddIn\AnalysisTool\AutoTrendData.cpp

; 103  : 	while( !m_packetList.IsEmpty())

  000ee	75 90		 jne	 SHORT $LL2@Initialize
$LN3@Initialize:

; 108  : }

  000f0	8b 4d f4	 mov	 ecx, DWORD PTR __$EHRec$[ebp]
  000f3	64 89 0d 00 00
	00 00		 mov	 DWORD PTR fs:0, ecx
  000fa	59		 pop	 ecx
  000fb	5f		 pop	 edi
  000fc	5e		 pop	 esi
  000fd	8b 4d f0	 mov	 ecx, DWORD PTR __$ArrayPad$[ebp]
  00100	33 cd		 xor	 ecx, ebp
  00102	e8 00 00 00 00	 call	 @__security_check_cookie@4
  00107	8b e5		 mov	 esp, ebp
  00109	5d		 pop	 ebp
  0010a	c2 04 00	 ret	 4
$LN30@Initialize:
; File C:\Program Files (x86)\Microsoft Visual Studio\2019\Community\VC\Tools\MSVC\14.29.30133\atlmfc\include\afxtempl.h

; 1009 : 	ENSURE(m_pNodeHead != NULL);  // don't call on empty list !!!

  0010d	e8 00 00 00 00	 call	 ?AfxThrowInvalidArgException@@YGXXZ ; AfxThrowInvalidArgException
$LN38@Initialize:
  00112	cc		 int	 3
_TEXT	ENDS
;	COMDAT text$x
text$x	SEGMENT
__unwindfunclet$?Initialize@CAutoTrendDrawingCalculatorData@@QAEXPAUIChartManager133101@@@Z$0:
  00000	8d 4d 90	 lea	 ecx, DWORD PTR $T2[ebp]
  00003	e9 00 00 00 00	 jmp	 ??1CCoordinateCalculatorData@@QAE@XZ ; CCoordinateCalculatorData::~CCoordinateCalculatorData
  00008	cc		 int	 3
  00009	cc		 int	 3
  0000a	cc		 int	 3
  0000b	cc		 int	 3
  0000c	cc		 int	 3
__ehhandler$?Initialize@CAutoTrendDrawingCalculatorData@@QAEXPAUIChartManager133101@@@Z:
  0000d	90		 npad	 1
  0000e	90		 npad	 1
  0000f	8b 54 24 08	 mov	 edx, DWORD PTR [esp+8]
  00013	8d 42 0c	 lea	 eax, DWORD PTR [edx+12]
  00016	8b 4a 90	 mov	 ecx, DWORD PTR [edx-112]
  00019	33 c8		 xor	 ecx, eax
  0001b	e8 00 00 00 00	 call	 @__security_check_cookie@4
  00020	8b 4a fc	 mov	 ecx, DWORD PTR [edx-4]
  00023	33 c8		 xor	 ecx, eax
  00025	e8 00 00 00 00	 call	 @__security_check_cookie@4
  0002a	b8 00 00 00 00	 mov	 eax, OFFSET __ehfuncinfo$?Initialize@CAutoTrendDrawingCalculatorData@@QAEXPAUIChartManager133101@@@Z
  0002f	e9 00 00 00 00	 jmp	 ___CxxFrameHandler3
text$x	ENDS
?Initialize@CAutoTrendDrawingCalculatorData@@QAEXPAUIChartManager133101@@@Z ENDP ; CAutoTrendDrawingCalculatorData::Initialize
; Function compile flags: /Ogtp
; File D:\git\src\IBK\IBK_DRFN\ProjSrc\SrcChartEx\ChartAddIn\ChartAnalysisToolAddIn\AnalysisTool\AutoTrendData.cpp
; File C:\Program Files (x86)\Microsoft Visual Studio\2019\Community\VC\Tools\MSVC\14.29.30133\atlmfc\include\atltypes.h
; File C:\Program Files (x86)\Microsoft Visual Studio\2019\Community\VC\Tools\MSVC\14.29.30133\atlmfc\include\afxtempl.h
; File D:\git\src\IBK\IBK_DRFN\ProjSrc\SrcChartEx\ChartAddIn\ChartAnalysisToolAddIn\AnalysisTool\AutoTrendData.cpp
;	COMDAT ??0CAutoTrendDrawingCalculatorData@@QAE@PAUIChartManager133101@@@Z
_TEXT	SEGMENT
_this$ = -16						; size = 4
__$EHRec$ = -12						; size = 12
_p_pIChartManager$ = 8					; size = 4
??0CAutoTrendDrawingCalculatorData@@QAE@PAUIChartManager133101@@@Z PROC ; CAutoTrendDrawingCalculatorData::CAutoTrendDrawingCalculatorData, COMDAT
; _this$ = ecx

; 94   : {

  00000	55		 push	 ebp
  00001	8b ec		 mov	 ebp, esp
  00003	6a ff		 push	 -1
  00005	68 00 00 00 00	 push	 __ehhandler$??0CAutoTrendDrawingCalculatorData@@QAE@PAUIChartManager133101@@@Z
  0000a	64 a1 00 00 00
	00		 mov	 eax, DWORD PTR fs:0
  00010	50		 push	 eax
  00011	51		 push	 ecx
  00012	56		 push	 esi
  00013	a1 00 00 00 00	 mov	 eax, DWORD PTR ___security_cookie
  00018	33 c5		 xor	 eax, ebp
  0001a	50		 push	 eax
  0001b	8d 45 f4	 lea	 eax, DWORD PTR __$EHRec$[ebp]
  0001e	64 a3 00 00 00
	00		 mov	 DWORD PTR fs:0, eax
  00024	8b f1		 mov	 esi, ecx
  00026	89 75 f0	 mov	 DWORD PTR _this$[ebp], esi
; File C:\Program Files (x86)\Microsoft Visual Studio\2019\Community\VC\Tools\MSVC\14.29.30133\atlmfc\include\atltypes.h

; 540  : 	left = l;

  00029	c7 06 00 00 00
	00		 mov	 DWORD PTR [esi], 0

; 541  : 	top = t;

  0002f	c7 46 04 00 00
	00 00		 mov	 DWORD PTR [esi+4], 0

; 542  : 	right = r;

  00036	c7 46 08 00 00
	00 00		 mov	 DWORD PTR [esi+8], 0

; 543  : 	bottom = b;

  0003d	c7 46 0c 00 00
	00 00		 mov	 DWORD PTR [esi+12], 0
; File C:\Program Files (x86)\Microsoft Visual Studio\2019\Community\VC\Tools\MSVC\14.29.30133\atlmfc\include\afxtempl.h

; 851  : {

  00044	c7 46 10 00 00
	00 00		 mov	 DWORD PTR [esi+16], OFFSET ??_7?$CList@PAUIPacket133101@@PAU1@@@6B@

; 852  : 	ASSERT(nBlockSize > 0);
; 853  : 
; 854  : 	m_nCount = 0;

  0004b	c7 46 1c 00 00
	00 00		 mov	 DWORD PTR [esi+28], 0

; 855  : 	m_pNodeHead = m_pNodeTail = m_pNodeFree = NULL;

  00052	c7 46 20 00 00
	00 00		 mov	 DWORD PTR [esi+32], 0
  00059	c7 46 18 00 00
	00 00		 mov	 DWORD PTR [esi+24], 0
  00060	c7 46 14 00 00
	00 00		 mov	 DWORD PTR [esi+20], 0

; 856  : 	m_pBlocks = NULL;

  00067	c7 46 24 00 00
	00 00		 mov	 DWORD PTR [esi+36], 0

; 857  : 	m_nBlockSize = nBlockSize;

  0006e	c7 46 28 0a 00
	00 00		 mov	 DWORD PTR [esi+40], 10	; 0000000aH
; File D:\git\src\IBK\IBK_DRFN\ProjSrc\SrcChartEx\ChartAddIn\ChartAnalysisToolAddIn\AnalysisTool\AutoTrendData.cpp

; 94   : {

  00075	ff 75 08	 push	 DWORD PTR _p_pIChartManager$[ebp]
  00078	8d 4e 30	 lea	 ecx, DWORD PTR [esi+48]
  0007b	c7 45 fc 00 00
	00 00		 mov	 DWORD PTR __$EHRec$[ebp+8], 0
  00082	e8 00 00 00 00	 call	 ??0CCoordinateCalculatorData@@QAE@PAUIChartManager133101@@@Z ; CCoordinateCalculatorData::CCoordinateCalculatorData

; 95   : }

  00087	8b c6		 mov	 eax, esi
  00089	8b 4d f4	 mov	 ecx, DWORD PTR __$EHRec$[ebp]
  0008c	64 89 0d 00 00
	00 00		 mov	 DWORD PTR fs:0, ecx
  00093	59		 pop	 ecx
  00094	5e		 pop	 esi
  00095	8b e5		 mov	 esp, ebp
  00097	5d		 pop	 ebp
  00098	c2 04 00	 ret	 4
_TEXT	ENDS
;	COMDAT text$x
text$x	SEGMENT
__unwindfunclet$??0CAutoTrendDrawingCalculatorData@@QAE@PAUIChartManager133101@@@Z$0:
  00000	8b 4d f0	 mov	 ecx, DWORD PTR _this$[ebp]
  00003	83 c1 10	 add	 ecx, 16			; 00000010H
  00006	e9 00 00 00 00	 jmp	 ??1?$CList@PAUIPacket133101@@PAU1@@@UAE@XZ ; CList<IPacket133101 *,IPacket133101 *>::~CList<IPacket133101 *,IPacket133101 *>
  0000b	cc		 int	 3
  0000c	cc		 int	 3
  0000d	cc		 int	 3
  0000e	cc		 int	 3
  0000f	cc		 int	 3
__ehhandler$??0CAutoTrendDrawingCalculatorData@@QAE@PAUIChartManager133101@@@Z:
  00010	90		 npad	 1
  00011	90		 npad	 1
  00012	8b 54 24 08	 mov	 edx, DWORD PTR [esp+8]
  00016	8d 42 0c	 lea	 eax, DWORD PTR [edx+12]
  00019	8b 4a f4	 mov	 ecx, DWORD PTR [edx-12]
  0001c	33 c8		 xor	 ecx, eax
  0001e	e8 00 00 00 00	 call	 @__security_check_cookie@4
  00023	b8 00 00 00 00	 mov	 eax, OFFSET __ehfuncinfo$??0CAutoTrendDrawingCalculatorData@@QAE@PAUIChartManager133101@@@Z
  00028	e9 00 00 00 00	 jmp	 ___CxxFrameHandler3
text$x	ENDS
??0CAutoTrendDrawingCalculatorData@@QAE@PAUIChartManager133101@@@Z ENDP ; CAutoTrendDrawingCalculatorData::CAutoTrendDrawingCalculatorData
; Function compile flags: /Ogtp
; File D:\git\src\IBK\IBK_DRFN\ProjSrc\SrcChartEx\ChartAddIn\ChartAnalysisToolAddIn\AnalysisTool\AutoTrendData.cpp
; File C:\Program Files (x86)\Microsoft Visual Studio\2019\Community\VC\Tools\MSVC\14.29.30133\atlmfc\include\afxtempl.h
; File D:\git\src\IBK\IBK_DRFN\ProjSrc\SrcChartEx\ChartAddIn\ChartAnalysisToolAddIn\AnalysisTool\AutoTrendData.cpp
; File C:\Program Files (x86)\Microsoft Visual Studio\2019\Community\VC\Tools\MSVC\14.29.30133\atlmfc\include\afxtempl.h
; File D:\git\src\IBK\IBK_DRFN\ProjSrc\SrcChartEx\ChartAddIn\ChartAnalysisToolAddIn\AnalysisTool\AutoTrendData.cpp
; File C:\Program Files (x86)\Microsoft Visual Studio\2019\Community\VC\Tools\MSVC\14.29.30133\atlmfc\include\afxtempl.h
; File D:\git\src\IBK\IBK_DRFN\ProjSrc\SrcChartEx\ChartAddIn\ChartAnalysisToolAddIn\AnalysisTool\AutoTrendData.cpp
;	COMDAT ??4CAutoTrendDrawingCalculatorData@@QAEAAV0@ABV0@@Z
_TEXT	SEGMENT
_data$GSCopy$1$ = -128					; size = 4
_pIPacket$1$ = -124					; size = 4
_pPrev$1$ = -120					; size = 4
_pos$1$ = -116						; size = 4
$T2 = -112						; size = 96
__$ArrayPad$ = -16					; size = 4
__$EHRec$ = -12						; size = 12
_data$ = 8						; size = 4
??4CAutoTrendDrawingCalculatorData@@QAEAAV0@ABV0@@Z PROC ; CAutoTrendDrawingCalculatorData::operator=, COMDAT
; _this$ = ecx

; 73   : {

  00000	55		 push	 ebp
  00001	8b ec		 mov	 ebp, esp
  00003	6a ff		 push	 -1
  00005	68 00 00 00 00	 push	 __ehhandler$??4CAutoTrendDrawingCalculatorData@@QAEAAV0@ABV0@@Z
  0000a	64 a1 00 00 00
	00		 mov	 eax, DWORD PTR fs:0
  00010	50		 push	 eax
  00011	83 ec 74	 sub	 esp, 116		; 00000074H
  00014	a1 00 00 00 00	 mov	 eax, DWORD PTR ___security_cookie
  00019	33 c5		 xor	 eax, ebp
  0001b	89 45 f0	 mov	 DWORD PTR __$ArrayPad$[ebp], eax
  0001e	56		 push	 esi
  0001f	57		 push	 edi
  00020	50		 push	 eax
  00021	8d 45 f4	 lea	 eax, DWORD PTR __$EHRec$[ebp]
  00024	64 a3 00 00 00
	00		 mov	 DWORD PTR fs:0, eax
  0002a	8b f1		 mov	 esi, ecx
  0002c	8b 45 08	 mov	 eax, DWORD PTR _data$[ebp]
  0002f	89 45 80	 mov	 DWORD PTR _data$GSCopy$1$[ebp], eax

; 74   : 	if(this == &data)

  00032	3b f0		 cmp	 esi, eax
  00034	0f 84 d7 00 00
	00		 je	 $LN48@operator

; 158  : 	return m_noFrameGraphRegion;

  0003a	0f 10 00	 movups	 xmm0, XMMWORD PTR [eax]

; 75   : 		return *this;
; 76   : 
; 77   : 	m_noFrameGraphRegion = data.GetNoFrameGraphRegion();

  0003d	0f 11 06	 movups	 XMMWORD PTR [esi], xmm0

; 78   : 	const CList<IPacket*, IPacket*>& packetList = data.GetPacketList();
; 79   : 	POSITION pos = packetList.GetHeadPosition();

  00040	8b 78 14	 mov	 edi, DWORD PTR [eax+20]

; 80   : 	while(pos != NULL)

  00043	85 ff		 test	 edi, edi
  00045	0f 84 9f 00 00
	00		 je	 $LN44@operator
  0004b	0f 1f 44 00 00	 npad	 5
$LL2@operator:

; 82   : 		IPacket *pIPacket = packetList.GetNext( pos);

  00050	8b 4f 08	 mov	 ecx, DWORD PTR [edi+8]
; File C:\Program Files (x86)\Microsoft Visual Studio\2019\Community\VC\Tools\MSVC\14.29.30133\atlmfc\include\afxtempl.h

; 819  : 		rPosition = (POSITION) pNode->pNext;

  00053	8b 3f		 mov	 edi, DWORD PTR [edi]
  00055	89 7d 8c	 mov	 DWORD PTR _pos$1$[ebp], edi
; File D:\git\src\IBK\IBK_DRFN\ProjSrc\SrcChartEx\ChartAddIn\ChartAnalysisToolAddIn\AnalysisTool\AutoTrendData.cpp

; 82   : 		IPacket *pIPacket = packetList.GetNext( pos);

  00058	89 4d 84	 mov	 DWORD PTR _pIPacket$1$[ebp], ecx

; 83   : 		if( pIPacket) pIPacket->AddRef();

  0005b	85 c9		 test	 ecx, ecx
  0005d	74 06		 je	 SHORT $LN5@operator
  0005f	8b 01		 mov	 eax, DWORD PTR [ecx]
  00061	51		 push	 ecx
  00062	ff 50 04	 call	 DWORD PTR [eax+4]
$LN5@operator:
; File C:\Program Files (x86)\Microsoft Visual Studio\2019\Community\VC\Tools\MSVC\14.29.30133\atlmfc\include\afxtempl.h

; 902  : 	if (m_pNodeFree == NULL)

  00065	8b 56 20	 mov	 edx, DWORD PTR [esi+32]

; 968  : 	CNode* pNewNode = NewNode(m_pNodeTail, NULL);

  00068	8b 46 18	 mov	 eax, DWORD PTR [esi+24]
  0006b	89 45 88	 mov	 DWORD PTR _pPrev$1$[ebp], eax

; 902  : 	if (m_pNodeFree == NULL)

  0006e	85 d2		 test	 edx, edx
  00070	75 42		 jne	 SHORT $LN42@operator

; 903  : 	{
; 904  : 		// add another block
; 905  : 		CPlex* pNewBlock = CPlex::Create(m_pBlocks, m_nBlockSize,

  00072	6a 0c		 push	 12			; 0000000cH
  00074	ff 76 28	 push	 DWORD PTR [esi+40]
  00077	8d 46 24	 lea	 eax, DWORD PTR [esi+36]
  0007a	50		 push	 eax
  0007b	e8 00 00 00 00	 call	 ?Create@CPlex@@SGPAU1@AAPAU1@II@Z ; CPlex::Create

; 906  : 				 sizeof(CNode));
; 907  : 
; 908  : 		// chain them into free list
; 909  : 		CNode* pNode = (CNode*) pNewBlock->data();
; 910  : 		// free in reverse order to make it easier to debug
; 911  : 		pNode += m_nBlockSize - 1;

  00080	8b 56 28	 mov	 edx, DWORD PTR [esi+40]
  00083	8d 0c 55 ff ff
	ff ff		 lea	 ecx, DWORD PTR [edx*2-1]
  0008a	03 ca		 add	 ecx, edx

; 912  : 		for (INT_PTR i = m_nBlockSize-1; i >= 0; i--, pNode--)

  0008c	8d 7a ff	 lea	 edi, DWORD PTR [edx-1]
  0008f	8d 0c 88	 lea	 ecx, DWORD PTR [eax+ecx*4]
  00092	85 ff		 test	 edi, edi
  00094	78 14		 js	 SHORT $LN43@operator
$LL19@operator:

; 913  : 		{
; 914  : 			pNode->pNext = m_pNodeFree;

  00096	8b 46 20	 mov	 eax, DWORD PTR [esi+32]
  00099	8b d1		 mov	 edx, ecx
  0009b	89 01		 mov	 DWORD PTR [ecx], eax

; 915  : 			m_pNodeFree = pNode;

  0009d	89 4e 20	 mov	 DWORD PTR [esi+32], ecx
  000a0	83 e9 0c	 sub	 ecx, 12			; 0000000cH
  000a3	83 ef 01	 sub	 edi, 1
  000a6	79 ee		 jns	 SHORT $LL19@operator
  000a8	eb 03		 jmp	 SHORT $LN22@operator
$LN43@operator:
  000aa	8b 56 20	 mov	 edx, DWORD PTR [esi+32]
$LN22@operator:

; 918  : 	ENSURE(m_pNodeFree != NULL);  // we must have something

  000ad	85 d2		 test	 edx, edx
  000af	74 7f		 je	 SHORT $LN34@operator
  000b1	8b 7d 8c	 mov	 edi, DWORD PTR _pos$1$[ebp]
$LN42@operator:

; 919  : 
; 920  : 	CList::CNode* pNode = m_pNodeFree;
; 921  : 	m_pNodeFree = m_pNodeFree->pNext;

  000b4	8b 02		 mov	 eax, DWORD PTR [edx]
  000b6	89 46 20	 mov	 DWORD PTR [esi+32], eax

; 922  : 	pNode->pPrev = pPrev;

  000b9	8b 45 88	 mov	 eax, DWORD PTR _pPrev$1$[ebp]
  000bc	89 42 04	 mov	 DWORD PTR [edx+4], eax

; 969  : 	pNewNode->data = newElement;

  000bf	8b 45 84	 mov	 eax, DWORD PTR _pIPacket$1$[ebp]

; 923  : 	pNode->pNext = pNext;

  000c2	c7 02 00 00 00
	00		 mov	 DWORD PTR [edx], 0

; 924  : 	m_nCount++;

  000c8	ff 46 1c	 inc	 DWORD PTR [esi+28]

; 969  : 	pNewNode->data = newElement;

  000cb	89 42 08	 mov	 DWORD PTR [edx+8], eax

; 970  : 	if (m_pNodeTail != NULL)

  000ce	8b 46 18	 mov	 eax, DWORD PTR [esi+24]
  000d1	85 c0		 test	 eax, eax
  000d3	74 04		 je	 SHORT $LN13@operator

; 971  : 		m_pNodeTail->pNext = pNewNode;

  000d5	89 10		 mov	 DWORD PTR [eax], edx
  000d7	eb 03		 jmp	 SHORT $LN14@operator
$LN13@operator:

; 972  : 	else
; 973  : 		m_pNodeHead = pNewNode;

  000d9	89 56 14	 mov	 DWORD PTR [esi+20], edx
$LN14@operator:

; 974  : 	m_pNodeTail = pNewNode;

  000dc	89 56 18	 mov	 DWORD PTR [esi+24], edx
; File D:\git\src\IBK\IBK_DRFN\ProjSrc\SrcChartEx\ChartAddIn\ChartAnalysisToolAddIn\AnalysisTool\AutoTrendData.cpp

; 80   : 	while(pos != NULL)

  000df	85 ff		 test	 edi, edi
  000e1	0f 85 69 ff ff
	ff		 jne	 $LL2@operator
  000e7	8b 45 80	 mov	 eax, DWORD PTR _data$GSCopy$1$[ebp]
$LN44@operator:

; 183  : 	return m_calData;

  000ea	83 c0 30	 add	 eax, 48			; 00000030H
  000ed	8d 4d 90	 lea	 ecx, DWORD PTR $T2[ebp]
  000f0	50		 push	 eax
  000f1	e8 00 00 00 00	 call	 ??0CCoordinateCalculatorData@@QAE@ABV0@@Z ; CCoordinateCalculatorData::CCoordinateCalculatorData

; 84   : 		m_packetList.AddTail( pIPacket);
; 85   : 	}
; 86   : 
; 87   : 	m_calData = data.GetCoordinateCalculatorData();

  000f6	8d 45 90	 lea	 eax, DWORD PTR $T2[ebp]
  000f9	c7 45 fc 00 00
	00 00		 mov	 DWORD PTR __$EHRec$[ebp+8], 0
  00100	50		 push	 eax
  00101	8d 4e 30	 lea	 ecx, DWORD PTR [esi+48]
  00104	e8 00 00 00 00	 call	 ??4CCoordinateCalculatorData@@QAEAAV0@ABV0@@Z ; CCoordinateCalculatorData::operator=
  00109	8d 4d 90	 lea	 ecx, DWORD PTR $T2[ebp]
  0010c	e8 00 00 00 00	 call	 ??1CCoordinateCalculatorData@@QAE@XZ ; CCoordinateCalculatorData::~CCoordinateCalculatorData
$LN48@operator:

; 89   : }

  00111	8b c6		 mov	 eax, esi
  00113	8b 4d f4	 mov	 ecx, DWORD PTR __$EHRec$[ebp]
  00116	64 89 0d 00 00
	00 00		 mov	 DWORD PTR fs:0, ecx
  0011d	59		 pop	 ecx
  0011e	5f		 pop	 edi
  0011f	5e		 pop	 esi
  00120	8b 4d f0	 mov	 ecx, DWORD PTR __$ArrayPad$[ebp]
  00123	33 cd		 xor	 ecx, ebp
  00125	e8 00 00 00 00	 call	 @__security_check_cookie@4
  0012a	8b e5		 mov	 esp, ebp
  0012c	5d		 pop	 ebp
  0012d	c2 04 00	 ret	 4
$LN34@operator:
; File C:\Program Files (x86)\Microsoft Visual Studio\2019\Community\VC\Tools\MSVC\14.29.30133\atlmfc\include\afxtempl.h

; 918  : 	ENSURE(m_pNodeFree != NULL);  // we must have something

  00130	e8 00 00 00 00	 call	 ?AfxThrowInvalidArgException@@YGXXZ ; AfxThrowInvalidArgException
$LN47@operator:
  00135	cc		 int	 3
_TEXT	ENDS
;	COMDAT text$x
text$x	SEGMENT
__unwindfunclet$??4CAutoTrendDrawingCalculatorData@@QAEAAV0@ABV0@@Z$0:
  00000	8d 4d 90	 lea	 ecx, DWORD PTR $T2[ebp]
  00003	e9 00 00 00 00	 jmp	 ??1CCoordinateCalculatorData@@QAE@XZ ; CCoordinateCalculatorData::~CCoordinateCalculatorData
  00008	cc		 int	 3
  00009	cc		 int	 3
  0000a	cc		 int	 3
  0000b	cc		 int	 3
  0000c	cc		 int	 3
__ehhandler$??4CAutoTrendDrawingCalculatorData@@QAEAAV0@ABV0@@Z:
  0000d	90		 npad	 1
  0000e	90		 npad	 1
  0000f	8b 54 24 08	 mov	 edx, DWORD PTR [esp+8]
  00013	8d 42 0c	 lea	 eax, DWORD PTR [edx+12]
  00016	8b 4a 80	 mov	 ecx, DWORD PTR [edx-128]
  00019	33 c8		 xor	 ecx, eax
  0001b	e8 00 00 00 00	 call	 @__security_check_cookie@4
  00020	8b 4a fc	 mov	 ecx, DWORD PTR [edx-4]
  00023	33 c8		 xor	 ecx, eax
  00025	e8 00 00 00 00	 call	 @__security_check_cookie@4
  0002a	b8 00 00 00 00	 mov	 eax, OFFSET __ehfuncinfo$??4CAutoTrendDrawingCalculatorData@@QAEAAV0@ABV0@@Z
  0002f	e9 00 00 00 00	 jmp	 ___CxxFrameHandler3
text$x	ENDS
??4CAutoTrendDrawingCalculatorData@@QAEAAV0@ABV0@@Z ENDP ; CAutoTrendDrawingCalculatorData::operator=
; Function compile flags: /Ogtp
; File D:\git\src\IBK\IBK_DRFN\ProjSrc\SrcChartEx\ChartAddIn\ChartAnalysisToolAddIn\AnalysisTool\AutoTrendData.cpp
;	COMDAT ?GetPrice@CAutoTrendPoint@@QBENXZ
_TEXT	SEGMENT
?GetPrice@CAutoTrendPoint@@QBENXZ PROC			; CAutoTrendPoint::GetPrice, COMDAT
; _this$ = ecx

; 65   : 	return m_dPrice;

  00000	dd 41 08	 fld	 QWORD PTR [ecx+8]

; 66   : }

  00003	c3		 ret	 0
?GetPrice@CAutoTrendPoint@@QBENXZ ENDP			; CAutoTrendPoint::GetPrice
_TEXT	ENDS
; Function compile flags: /Ogtp
; File D:\git\src\IBK\IBK_DRFN\ProjSrc\SrcChartEx\ChartAddIn\ChartAnalysisToolAddIn\AnalysisTool\AutoTrendData.cpp
;	COMDAT ?GetIndex@CAutoTrendPoint@@QBEHXZ
_TEXT	SEGMENT
?GetIndex@CAutoTrendPoint@@QBEHXZ PROC			; CAutoTrendPoint::GetIndex, COMDAT
; _this$ = ecx

; 60   : 	return m_nIndex;

  00000	8b 01		 mov	 eax, DWORD PTR [ecx]

; 61   : }

  00002	c3		 ret	 0
?GetIndex@CAutoTrendPoint@@QBEHXZ ENDP			; CAutoTrendPoint::GetIndex
_TEXT	ENDS
; Function compile flags: /Ogtp
; File D:\git\src\IBK\IBK_DRFN\ProjSrc\SrcChartEx\ChartAddIn\ChartAnalysisToolAddIn\AnalysisTool\AutoTrendData.cpp
;	COMDAT ?SetPrice@CAutoTrendPoint@@QAEXABN@Z
_TEXT	SEGMENT
_dPrice$ = 8						; size = 4
?SetPrice@CAutoTrendPoint@@QAEXABN@Z PROC		; CAutoTrendPoint::SetPrice, COMDAT
; _this$ = ecx

; 54   : {

  00000	55		 push	 ebp
  00001	8b ec		 mov	 ebp, esp

; 55   : 	m_dPrice = dPrice;

  00003	8b 45 08	 mov	 eax, DWORD PTR _dPrice$[ebp]
  00006	f2 0f 10 00	 movsd	 xmm0, QWORD PTR [eax]
  0000a	f2 0f 11 41 08	 movsd	 QWORD PTR [ecx+8], xmm0

; 56   : }

  0000f	5d		 pop	 ebp
  00010	c2 04 00	 ret	 4
?SetPrice@CAutoTrendPoint@@QAEXABN@Z ENDP		; CAutoTrendPoint::SetPrice
_TEXT	ENDS
; Function compile flags: /Ogtp
; File D:\git\src\IBK\IBK_DRFN\ProjSrc\SrcChartEx\ChartAddIn\ChartAnalysisToolAddIn\AnalysisTool\AutoTrendData.cpp
;	COMDAT ?SetIndex@CAutoTrendPoint@@QAEXH@Z
_TEXT	SEGMENT
_nIndex$ = 8						; size = 4
?SetIndex@CAutoTrendPoint@@QAEXH@Z PROC			; CAutoTrendPoint::SetIndex, COMDAT
; _this$ = ecx

; 49   : {

  00000	55		 push	 ebp
  00001	8b ec		 mov	 ebp, esp

; 50   : 	m_nIndex = nIndex;

  00003	8b 45 08	 mov	 eax, DWORD PTR _nIndex$[ebp]
  00006	89 01		 mov	 DWORD PTR [ecx], eax

; 51   : }

  00008	5d		 pop	 ebp
  00009	c2 04 00	 ret	 4
?SetIndex@CAutoTrendPoint@@QAEXH@Z ENDP			; CAutoTrendPoint::SetIndex
_TEXT	ENDS
; Function compile flags: /Ogtp
; File D:\git\src\IBK\IBK_DRFN\ProjSrc\SrcChartEx\ChartAddIn\ChartAnalysisToolAddIn\AnalysisTool\AutoTrendData.cpp
;	COMDAT ??0CAutoTrendPoint@@QAE@HABN@Z
_TEXT	SEGMENT
_nIndex$ = 8						; size = 4
_dPrice$ = 12						; size = 4
??0CAutoTrendPoint@@QAE@HABN@Z PROC			; CAutoTrendPoint::CAutoTrendPoint, COMDAT
; _this$ = ecx

; 43   : {

  00000	55		 push	 ebp
  00001	8b ec		 mov	 ebp, esp

; 41   : 	m_nIndex(nIndex),

  00003	8b 45 08	 mov	 eax, DWORD PTR _nIndex$[ebp]
  00006	89 01		 mov	 DWORD PTR [ecx], eax

; 42   : 	m_dPrice(dPrice)

  00008	8b 45 0c	 mov	 eax, DWORD PTR _dPrice$[ebp]
  0000b	f2 0f 10 00	 movsd	 xmm0, QWORD PTR [eax]

; 44   : }

  0000f	8b c1		 mov	 eax, ecx
  00011	f2 0f 11 41 08	 movsd	 QWORD PTR [ecx+8], xmm0
  00016	5d		 pop	 ebp
  00017	c2 08 00	 ret	 8
??0CAutoTrendPoint@@QAE@HABN@Z ENDP			; CAutoTrendPoint::CAutoTrendPoint
_TEXT	ENDS
; Function compile flags: /Ogtp
; File D:\git\src\IBK\IBK_DRFN\ProjSrc\SrcChartEx\ChartAddIn\ChartAnalysisToolAddIn\AnalysisTool\AutoTrendData.cpp
;	COMDAT ??0CAutoTrendPoint@@QAE@XZ
_TEXT	SEGMENT
??0CAutoTrendPoint@@QAE@XZ PROC				; CAutoTrendPoint::CAutoTrendPoint, COMDAT
; _this$ = ecx

; 37   : {

  00000	0f 57 c0	 xorps	 xmm0, xmm0

; 35   : 	m_nIndex(-1),

  00003	c7 01 ff ff ff
	ff		 mov	 DWORD PTR [ecx], -1

; 36   : 	m_dPrice(0.0)

  00009	f2 0f 11 41 08	 movsd	 QWORD PTR [ecx+8], xmm0

; 38   : }

  0000e	8b c1		 mov	 eax, ecx
  00010	c3		 ret	 0
??0CAutoTrendPoint@@QAE@XZ ENDP				; CAutoTrendPoint::CAutoTrendPoint
_TEXT	ENDS
; Function compile flags: /Ogtp
; File D:\git\src\IBK\IBK_DRFN\ProjSrc\SrcChartEx\ChartAddIn\ChartAnalysisToolAddIn\AnalysisTool\AutoTrendData.cpp
;	COMDAT ??4CAutoTrendPoint@@QAEAAV0@ABV0@@Z
_TEXT	SEGMENT
_data$ = 8						; size = 4
??4CAutoTrendPoint@@QAEAAV0@ABV0@@Z PROC		; CAutoTrendPoint::operator=, COMDAT
; _this$ = ecx

; 25   : {

  00000	55		 push	 ebp
  00001	8b ec		 mov	 ebp, esp

; 26   : 	if(this == &data)

  00003	8b 55 08	 mov	 edx, DWORD PTR _data$[ebp]
  00006	3b ca		 cmp	 ecx, edx
  00008	74 0e		 je	 SHORT $LN4@operator

; 27   : 		return *this;
; 28   : 
; 29   : 	m_nIndex = data.GetIndex();

  0000a	8b 02		 mov	 eax, DWORD PTR [edx]
  0000c	89 01		 mov	 DWORD PTR [ecx], eax

; 30   : 	m_dPrice = data.GetPrice();

  0000e	f2 0f 10 42 08	 movsd	 xmm0, QWORD PTR [edx+8]
  00013	f2 0f 11 41 08	 movsd	 QWORD PTR [ecx+8], xmm0
$LN4@operator:

; 31   : 	return *this;
; 32   : }

  00018	8b c1		 mov	 eax, ecx
  0001a	5d		 pop	 ebp
  0001b	c2 04 00	 ret	 4
??4CAutoTrendPoint@@QAEAAV0@ABV0@@Z ENDP		; CAutoTrendPoint::operator=
_TEXT	ENDS
; Function compile flags: /Ogtp
; File D:\git\src\IBK\IBK_DRFN\ProjSrc\SrcChartEx\ChartAddIn\ChartAnalysisToolAddIn\Include_AddIn_133101\I133101\_IString.h
;	COMDAT ??1ILPCSTR133101@@QAE@XZ
_TEXT	SEGMENT
__$EHRec$ = -12						; size = 12
??1ILPCSTR133101@@QAE@XZ PROC				; ILPCSTR133101::~ILPCSTR133101, COMDAT
; _this$ = ecx

; 44   : 	{

  00000	55		 push	 ebp
  00001	8b ec		 mov	 ebp, esp
  00003	6a ff		 push	 -1
  00005	68 00 00 00 00	 push	 __ehhandler$??1ILPCSTR133101@@QAE@XZ
  0000a	64 a1 00 00 00
	00		 mov	 eax, DWORD PTR fs:0
  00010	50		 push	 eax
  00011	56		 push	 esi
  00012	a1 00 00 00 00	 mov	 eax, DWORD PTR ___security_cookie
  00017	33 c5		 xor	 eax, ebp
  00019	50		 push	 eax
  0001a	8d 45 f4	 lea	 eax, DWORD PTR __$EHRec$[ebp]
  0001d	64 a3 00 00 00
	00		 mov	 DWORD PTR fs:0, eax
  00023	8b f1		 mov	 esi, ecx

; 45   : 		if( m_pIStrData)

  00025	8b 4e 04	 mov	 ecx, DWORD PTR [esi+4]
  00028	85 c9		 test	 ecx, ecx
  0002a	74 13		 je	 SHORT $LN2@ILPCSTR133

; 46   : 		{
; 47   : 			m_pIStrData->Release();

  0002c	8b 01		 mov	 eax, DWORD PTR [ecx]
  0002e	51		 push	 ecx
  0002f	ff 50 08	 call	 DWORD PTR [eax+8]

; 48   : 			m_pIStrData = NULL;

  00032	c7 46 04 00 00
	00 00		 mov	 DWORD PTR [esi+4], 0

; 49   : 			m_szData = NULL;

  00039	c7 06 00 00 00
	00		 mov	 DWORD PTR [esi], 0
$LN2@ILPCSTR133:

; 50   : 		}
; 51   : 	}

  0003f	8b 4d f4	 mov	 ecx, DWORD PTR __$EHRec$[ebp]
  00042	64 89 0d 00 00
	00 00		 mov	 DWORD PTR fs:0, ecx
  00049	59		 pop	 ecx
  0004a	5e		 pop	 esi
  0004b	8b e5		 mov	 esp, ebp
  0004d	5d		 pop	 ebp
  0004e	c3		 ret	 0
  0004f	cc		 int	 3
  00050	cc		 int	 3
  00051	cc		 int	 3
  00052	cc		 int	 3
  00053	cc		 int	 3
_TEXT	ENDS
;	COMDAT text$x
text$x	SEGMENT
__ehhandler$??1ILPCSTR133101@@QAE@XZ:
  00000	90		 npad	 1
  00001	90		 npad	 1
  00002	8b 54 24 08	 mov	 edx, DWORD PTR [esp+8]
  00006	8d 42 0c	 lea	 eax, DWORD PTR [edx+12]
  00009	8b 4a f8	 mov	 ecx, DWORD PTR [edx-8]
  0000c	33 c8		 xor	 ecx, eax
  0000e	e8 00 00 00 00	 call	 @__security_check_cookie@4
  00013	b8 00 00 00 00	 mov	 eax, OFFSET __ehfuncinfo$??1ILPCSTR133101@@QAE@XZ
  00018	e9 00 00 00 00	 jmp	 ___CxxFrameHandler3
text$x	ENDS
??1ILPCSTR133101@@QAE@XZ ENDP				; ILPCSTR133101::~ILPCSTR133101
; Function compile flags: /Ogtp
; File C:\Program Files (x86)\Microsoft Visual Studio\2019\Community\VC\Tools\MSVC\14.29.30133\atlmfc\include\afx.inl
;	COMDAT ?Dump@CObject@@UBEXAAVCDumpContext@@@Z
_TEXT	SEGMENT
___formal$ = 8						; size = 4
?Dump@CObject@@UBEXAAVCDumpContext@@@Z PROC		; CObject::Dump, COMDAT
; _this$ = ecx

; 122  : 	{ /* no dumping in release builds */ }

  00000	c2 04 00	 ret	 4
?Dump@CObject@@UBEXAAVCDumpContext@@@Z ENDP		; CObject::Dump
_TEXT	ENDS
; Function compile flags: /Ogtp
; File C:\Program Files (x86)\Microsoft Visual Studio\2019\Community\VC\Tools\MSVC\14.29.30133\atlmfc\include\afx.inl
;	COMDAT ?AssertValid@CObject@@UBEXXZ
_TEXT	SEGMENT
?AssertValid@CObject@@UBEXXZ PROC			; CObject::AssertValid, COMDAT
; _this$ = ecx

; 120  : 	{ /* no asserts in release builds */ }

  00000	c2 00 00	 ret	 0
?AssertValid@CObject@@UBEXXZ ENDP			; CObject::AssertValid
_TEXT	ENDS
; Function compile flags: /Ogtp
; File C:\Program Files (x86)\Microsoft Visual Studio\2019\Community\VC\Tools\MSVC\14.29.30133\atlmfc\include\afx.inl
;	COMDAT ?Serialize@CObject@@UAEXAAVCArchive@@@Z
_TEXT	SEGMENT
___formal$ = 8						; size = 4
?Serialize@CObject@@UAEXAAVCArchive@@@Z PROC		; CObject::Serialize, COMDAT
; _this$ = ecx

; 106  : 	{ /* CObject does not serialize anything by default */ }

  00000	c2 04 00	 ret	 4
?Serialize@CObject@@UAEXAAVCArchive@@@Z ENDP		; CObject::Serialize
_TEXT	ENDS
; Function compile flags: /Ogtp
; File C:\Program Files (x86)\Microsoft Visual Studio\2019\Community\VC\Tools\MSVC\14.29.30133\atlmfc\include\afx.inl
;	COMDAT ??1CObject@@UAE@XZ
_TEXT	SEGMENT
??1CObject@@UAE@XZ PROC					; CObject::~CObject, COMDAT
; _this$ = ecx

; 104  : 	{ }

  00000	c2 00 00	 ret	 0
??1CObject@@UAE@XZ ENDP					; CObject::~CObject
_TEXT	ENDS
; Function compile flags: /Ogtp
; File D:\git\src\IBK\IBK_DRFN\ProjSrc\SrcChartEx\ChartAddIn\ChartAnalysisToolAddIn\AnalysisTool\AutoTrendData.cpp
;	COMDAT ?__empty_global_delete@@YAXPAXI@Z
_TEXT	SEGMENT
___formal$ = 8						; size = 4
___formal$ = 12						; size = 4
?__empty_global_delete@@YAXPAXI@Z PROC			; __empty_global_delete, COMDAT

  00000	c2 00 00	 ret	 0
?__empty_global_delete@@YAXPAXI@Z ENDP			; __empty_global_delete
_TEXT	ENDS
; Function compile flags: /Ogtp
; File D:\git\src\IBK\IBK_DRFN\ProjSrc\SrcChartEx\ChartAddIn\ChartAnalysisToolAddIn\AnalysisTool\AutoTrendData.cpp
;	COMDAT ?__empty_global_delete@@YAXPAX@Z
_TEXT	SEGMENT
___formal$ = 8						; size = 4
?__empty_global_delete@@YAXPAX@Z PROC			; __empty_global_delete, COMDAT

  00000	c2 00 00	 ret	 0
?__empty_global_delete@@YAXPAX@Z ENDP			; __empty_global_delete
_TEXT	ENDS
END
