; Listing generated by Microsoft (R) Optimizing Compiler Version 19.29.30145.0 

	TITLE	D:\git\src\IBK\IBK_DRFN\#DRfn-CS\_Obj\AnalysisTool\BalanceBasicDrawer.obj
	.686P
	.XMM
	include listing.inc
	.model	flat

INCLUDELIB MSVCRT
INCLUDELIB OLDNAMES

PUBLIC	?__empty_global_delete@@YAXPAX@Z		; __empty_global_delete
PUBLIC	?__empty_global_delete@@YAXPAXI@Z		; __empty_global_delete
PUBLIC	?GetPoint@CBalanceBasicDrawer@@QBE_N_NABVCRegion@@ABVCPoint@@HAAV3@@Z ; CBalanceBasicDrawer::GetPoint
PUBLIC	?IsDrawing@CBalanceBasicDrawer@@MBE_NABVCRect@@ABVCPoint@@@Z ; CBalanceBasicDrawer::IsDrawing
PUBLIC	?DrawShape@CBalanceBasicDrawer@@MAEXPAVCDC@@ABVCOnePointDrawingData@@ABVCDisplayData@@ABVCPoint@@_N@Z ; CBalanceBasicDrawer::DrawShape
PUBLIC	?DrawTextA@CBalanceBasicDrawer@@MAEXPAVCDC@@ABVCOnePointDrawingData@@@Z ; CBalanceBasicDrawer::DrawTextA
PUBLIC	?DrawTextA@CBalanceBasicDrawer@@IAEXPAVCDC@@ABVCOnePointDrawingData@@V?$CStringT@DV?$StrTraitMFC_DLL@DV?$ChTraitsCRT@D@ATL@@@@@ATL@@H@Z ; CBalanceBasicDrawer::DrawTextA
PUBLIC	?DrawFigure_Data@CBalanceBasicDrawer@@AAEXPAVCDC@@ABVCDisplayData@@ABVCPoint@@HH@Z ; CBalanceBasicDrawer::DrawFigure_Data
PUBLIC	?GetCoefficient@CBalanceBasicDrawer@@ABEHH@Z	; CBalanceBasicDrawer::GetCoefficient
PUBLIC	??1CDataTypeEnvironment@@QAE@XZ			; CDataTypeEnvironment::~CDataTypeEnvironment
PUBLIC	??1CPoints@@QAE@XZ				; CPoints::~CPoints
PUBLIC	??_C@_02DPKJAMEF@?$CFd@				; `string'
PUBLIC	??_C@_00CNPNBAHC@@				; `string'
PUBLIC	??_C@_0CE@FPILBKGA@9?017?026?033?042?065?076?0129?0172?0257@ ; `string'
PUBLIC	??_C@_01IHBHIGKO@?0@				; `string'
EXTRN	__imp__GetTextExtentPoint32A@16:PROC
EXTRN	__imp__OffsetRect@12:PROC
EXTRN	__imp__atoi:PROC
EXTRN	?AfxThrowInvalidArgException@@YGXXZ:PROC	; AfxThrowInvalidArgException
EXTRN	__imp_?Empty@?$CSimpleStringT@D$00@ATL@@QAEXXZ:PROC
EXTRN	__imp_??0?$CStringT@DV?$StrTraitMFC_DLL@DV?$ChTraitsCRT@D@ATL@@@@@ATL@@QAE@XZ:PROC
EXTRN	__imp_??0?$CStringT@DV?$StrTraitMFC_DLL@DV?$ChTraitsCRT@D@ATL@@@@@ATL@@QAE@ABV01@@Z:PROC
EXTRN	__imp_??0?$CStringT@DV?$StrTraitMFC_DLL@DV?$ChTraitsCRT@D@ATL@@@@@ATL@@QAE@PBD@Z:PROC
EXTRN	__imp_??1?$CStringT@DV?$StrTraitMFC_DLL@DV?$ChTraitsCRT@D@ATL@@@@@ATL@@QAE@XZ:PROC
EXTRN	__imp_??4?$CStringT@DV?$StrTraitMFC_DLL@DV?$ChTraitsCRT@D@ATL@@@@@ATL@@QAEAAV01@ABV01@@Z:PROC
EXTRN	__imp_??4?$CStringT@DV?$StrTraitMFC_DLL@DV?$ChTraitsCRT@D@ATL@@@@@ATL@@QAEAAV01@PBD@Z:PROC
EXTRN	__imp_?Compare@?$CStringT@DV?$StrTraitMFC_DLL@DV?$ChTraitsCRT@D@ATL@@@@@ATL@@QBEHPBD@Z:PROC
EXTRN	__imp_?Format@?$CStringT@DV?$StrTraitMFC_DLL@DV?$ChTraitsCRT@D@ATL@@@@@ATL@@QAAXPBDZZ:PROC
EXTRN	?SetSize@CDWordArray@@QAEXHH@Z:PROC		; CDWordArray::SetSize
EXTRN	?SetAtGrow@CDWordArray@@QAEXHK@Z:PROC		; CDWordArray::SetAtGrow
EXTRN	?DrawLine@CDrawer@@IAEXPAVCDC@@ABVCPoint@@1@Z:PROC ; CDrawer::DrawLine
EXTRN	?DrawTextOut@CDrawer@@IAEXPAVCDC@@ABV?$CStringT@DV?$StrTraitMFC_DLL@DV?$ChTraitsCRT@D@ATL@@@@@ATL@@ABVCRect@@@Z:PROC ; CDrawer::DrawTextOut
EXTRN	?DrawStyleLine@CDrawer@@IAEXPAVCDC@@ABVCPoint@@1I@Z:PROC ; CDrawer::DrawStyleLine
EXTRN	?GetCurrentDataIndex@CDrawer@@IBEHABVCRegion@@ABVCPoint@@@Z:PROC ; CDrawer::GetCurrentDataIndex
EXTRN	?GetDrawingPoint_X@CDrawer@@IBEHABVCRegion@@H_N@Z:PROC ; CDrawer::GetDrawingPoint_X
EXTRN	?IsDrawing@CVertLineDrawer@@MBE_NABVCRect@@ABVCPoint@@@Z:PROC ; CVertLineDrawer::IsDrawing
EXTRN	?GetTextRegion@CVertLineDrawer@@IBE?AVCRect@@ABVCBlockRegion@@ABVCSize@@H_N@Z:PROC ; CVertLineDrawer::GetTextRegion
EXTRN	?GetExtData@CDataTypeEnvironment@@QBE?AV?$CStringT@DV?$StrTraitMFC_DLL@DV?$ChTraitsCRT@D@ATL@@@@@ATL@@XZ:PROC ; CDataTypeEnvironment::GetExtData
EXTRN	?GetLeftExt@CLineExtEnvironment@@QBEHXZ:PROC	; CLineExtEnvironment::GetLeftExt
EXTRN	?GetRightExt@CLineExtEnvironment@@QBEHXZ:PROC	; CLineExtEnvironment::GetRightExt
EXTRN	?IsShow@CTextShowPosition@@QBE_NXZ:PROC		; CTextShowPosition::IsShow
EXTRN	?GetDrawingPoint@CPoints@@QBE?AVCPoint@@XZ:PROC	; CPoints::GetDrawingPoint
EXTRN	?GetCurrentUnmixedGraphRegion@CDrawingRegions@@QBE?AVCRect@@XZ:PROC ; CDrawingRegions::GetCurrentUnmixedGraphRegion
EXTRN	??0CRegion@@QAE@ABVCRect@@ABVCDisplayAttributes@@@Z:PROC ; CRegion::CRegion
EXTRN	?GetDisplayAttributes@CDisplayData@@QBE?AVCDisplayAttributes@@XZ:PROC ; CDisplayData::GetDisplayAttributes
EXTRN	?GetDisplayRegion@CDisplayData@@QBE?AVCRect@@XZ:PROC ; CDisplayData::GetDisplayRegion
EXTRN	?GetCoordinateCalRegion@CDisplayData@@QBE?AVCRect@@XZ:PROC ; CDisplayData::GetCoordinateCalRegion
EXTRN	?IsRelativePointType@CDrawingData@@QBE_NXZ:PROC	; CDrawingData::IsRelativePointType
EXTRN	?GetDataType@CDrawingData@@QBE?AVCDataTypeEnvironment@@XZ:PROC ; CDrawingData::GetDataType
EXTRN	?GetTextPosition@CDrawingData@@QBEPAVCTextPosition@@XZ:PROC ; CDrawingData::GetTextPosition
EXTRN	?GetLineExtEnvironment@CDrawingData@@QBE?AVCLineExtEnvironment@@XZ:PROC ; CDrawingData::GetLineExtEnvironment
EXTRN	?GetDisplayAttributes@CDrawingData@@QBE?AVCDisplayAttributes@@XZ:PROC ; CDrawingData::GetDisplayAttributes
EXTRN	?GetDrawingRegions@COnePointDrawingData@@QBEPAVCDrawingRegions@@XZ:PROC ; COnePointDrawingData::GetDrawingRegions
EXTRN	?GetPoints@COnePointDrawingData@@QBE?AVCPoints@@XZ:PROC ; COnePointDrawingData::GetPoints
EXTRN	?GetCurrentRegion@COnePointDrawingData@@QBE?AVCRect@@XZ:PROC ; COnePointDrawingData::GetCurrentRegion
EXTRN	?GetHeadBlockRegion@COnePointDrawingData@@QBE?AVCBlockRegion@@XZ:PROC ; COnePointDrawingData::GetHeadBlockRegion
EXTRN	?GetStringData@CDataConversion@@SA?AV?$CStringT@DV?$StrTraitMFC_DLL@DV?$ChTraitsCRT@D@ATL@@@@@ATL@@AAV23@ABV23@_N@Z:PROC ; CDataConversion::GetStringData
EXTRN	@__security_check_cookie@4:PROC
EXTRN	___CxxFrameHandler3:PROC
EXTRN	___security_cookie:DWORD
;	COMDAT ??_C@_01IHBHIGKO@?0@
CONST	SEGMENT
??_C@_01IHBHIGKO@?0@ DB ',', 00H			; `string'
CONST	ENDS
;	COMDAT ??_C@_0CE@FPILBKGA@9?017?026?033?042?065?076?0129?0172?0257@
CONST	SEGMENT
??_C@_0CE@FPILBKGA@9?017?026?033?042?065?076?0129?0172?0257@ DB '9,17,26,'
	DB	'33,42,65,76,129,172,257,0,0', 00H		; `string'
CONST	ENDS
;	COMDAT ??_C@_00CNPNBAHC@@
CONST	SEGMENT
??_C@_00CNPNBAHC@@ DB 00H				; `string'
CONST	ENDS
;	COMDAT ??_C@_02DPKJAMEF@?$CFd@
CONST	SEGMENT
??_C@_02DPKJAMEF@?$CFd@ DB '%d', 00H			; `string'
CONST	ENDS
;	COMDAT xdata$x
xdata$x	SEGMENT
__unwindtable$?DrawTextA@CBalanceBasicDrawer@@IAEXPAVCDC@@ABVCOnePointDrawingData@@V?$CStringT@DV?$StrTraitMFC_DLL@DV?$ChTraitsCRT@D@ATL@@@@@ATL@@H@Z DD 0ffffffffH
	DD	FLAT:__unwindfunclet$?DrawTextA@CBalanceBasicDrawer@@IAEXPAVCDC@@ABVCOnePointDrawingData@@V?$CStringT@DV?$StrTraitMFC_DLL@DV?$ChTraitsCRT@D@ATL@@@@@ATL@@H@Z$0
	DD	00H
	DD	FLAT:__unwindfunclet$?DrawTextA@CBalanceBasicDrawer@@IAEXPAVCDC@@ABVCOnePointDrawingData@@V?$CStringT@DV?$StrTraitMFC_DLL@DV?$ChTraitsCRT@D@ATL@@@@@ATL@@H@Z$1
__ehfuncinfo$?DrawTextA@CBalanceBasicDrawer@@IAEXPAVCDC@@ABVCOnePointDrawingData@@V?$CStringT@DV?$StrTraitMFC_DLL@DV?$ChTraitsCRT@D@ATL@@@@@ATL@@H@Z DD 019930522H
	DD	02H
	DD	FLAT:__unwindtable$?DrawTextA@CBalanceBasicDrawer@@IAEXPAVCDC@@ABVCOnePointDrawingData@@V?$CStringT@DV?$StrTraitMFC_DLL@DV?$ChTraitsCRT@D@ATL@@@@@ATL@@H@Z
	DD	2 DUP(00H)
	DD	2 DUP(00H)
	DD	00H
	DD	01H
xdata$x	ENDS
;	COMDAT xdata$x
xdata$x	SEGMENT
__unwindtable$?DrawTextA@CBalanceBasicDrawer@@MAEXPAVCDC@@ABVCOnePointDrawingData@@@Z DD 0ffffffffH
	DD	FLAT:__unwindfunclet$?DrawTextA@CBalanceBasicDrawer@@MAEXPAVCDC@@ABVCOnePointDrawingData@@@Z$0
	DD	0ffffffffH
	DD	FLAT:__unwindfunclet$?DrawTextA@CBalanceBasicDrawer@@MAEXPAVCDC@@ABVCOnePointDrawingData@@@Z$1
__ehfuncinfo$?DrawTextA@CBalanceBasicDrawer@@MAEXPAVCDC@@ABVCOnePointDrawingData@@@Z DD 019930522H
	DD	02H
	DD	FLAT:__unwindtable$?DrawTextA@CBalanceBasicDrawer@@MAEXPAVCDC@@ABVCOnePointDrawingData@@@Z
	DD	2 DUP(00H)
	DD	2 DUP(00H)
	DD	00H
	DD	01H
xdata$x	ENDS
;	COMDAT xdata$x
xdata$x	SEGMENT
__ehfuncinfo$?DrawShape@CBalanceBasicDrawer@@MAEXPAVCDC@@ABVCOnePointDrawingData@@ABVCDisplayData@@ABVCPoint@@_N@Z DD 019930522H
	DD	07H
	DD	FLAT:__unwindtable$?DrawShape@CBalanceBasicDrawer@@MAEXPAVCDC@@ABVCOnePointDrawingData@@ABVCDisplayData@@ABVCPoint@@_N@Z
	DD	2 DUP(00H)
	DD	2 DUP(00H)
	DD	00H
	DD	01H
__unwindtable$?DrawShape@CBalanceBasicDrawer@@MAEXPAVCDC@@ABVCOnePointDrawingData@@ABVCDisplayData@@ABVCPoint@@_N@Z DD 0ffffffffH
	DD	FLAT:__unwindfunclet$?DrawShape@CBalanceBasicDrawer@@MAEXPAVCDC@@ABVCOnePointDrawingData@@ABVCDisplayData@@ABVCPoint@@_N@Z$0
	DD	00H
	DD	FLAT:__unwindfunclet$?DrawShape@CBalanceBasicDrawer@@MAEXPAVCDC@@ABVCOnePointDrawingData@@ABVCDisplayData@@ABVCPoint@@_N@Z$1
	DD	0ffffffffH
	DD	FLAT:__unwindfunclet$?DrawShape@CBalanceBasicDrawer@@MAEXPAVCDC@@ABVCOnePointDrawingData@@ABVCDisplayData@@ABVCPoint@@_N@Z$1
	DD	02H
	DD	FLAT:__unwindfunclet$?DrawShape@CBalanceBasicDrawer@@MAEXPAVCDC@@ABVCOnePointDrawingData@@ABVCDisplayData@@ABVCPoint@@_N@Z$2
	DD	03H
	DD	FLAT:__unwindfunclet$?DrawShape@CBalanceBasicDrawer@@MAEXPAVCDC@@ABVCOnePointDrawingData@@ABVCDisplayData@@ABVCPoint@@_N@Z$3
	DD	04H
	DD	FLAT:__unwindfunclet$?DrawShape@CBalanceBasicDrawer@@MAEXPAVCDC@@ABVCOnePointDrawingData@@ABVCDisplayData@@ABVCPoint@@_N@Z$4
	DD	05H
	DD	FLAT:__unwindfunclet$?DrawShape@CBalanceBasicDrawer@@MAEXPAVCDC@@ABVCOnePointDrawingData@@ABVCDisplayData@@ABVCPoint@@_N@Z$5
xdata$x	ENDS
; Function compile flags: /Ogtp
;	COMDAT ??1CPoints@@QAE@XZ
_TEXT	SEGMENT
??1CPoints@@QAE@XZ PROC					; CPoints::~CPoints, COMDAT
; _this$ = ecx
  00000	83 c1 14	 add	 ecx, 20			; 00000014H
  00003	ff 25 00 00 00
	00		 jmp	 DWORD PTR __imp_??1?$CStringT@DV?$StrTraitMFC_DLL@DV?$ChTraitsCRT@D@ATL@@@@@ATL@@QAE@XZ
??1CPoints@@QAE@XZ ENDP					; CPoints::~CPoints
_TEXT	ENDS
; Function compile flags: /Ogtp
;	COMDAT ??1CDataTypeEnvironment@@QAE@XZ
_TEXT	SEGMENT
??1CDataTypeEnvironment@@QAE@XZ PROC			; CDataTypeEnvironment::~CDataTypeEnvironment, COMDAT
; _this$ = ecx
  00000	56		 push	 esi
  00001	8b f1		 mov	 esi, ecx
  00003	8d 4e 18	 lea	 ecx, DWORD PTR [esi+24]
  00006	ff 15 00 00 00
	00		 call	 DWORD PTR __imp_??1?$CStringT@DV?$StrTraitMFC_DLL@DV?$ChTraitsCRT@D@ATL@@@@@ATL@@QAE@XZ
  0000c	8d 4e 14	 lea	 ecx, DWORD PTR [esi+20]
  0000f	ff 15 00 00 00
	00		 call	 DWORD PTR __imp_??1?$CStringT@DV?$StrTraitMFC_DLL@DV?$ChTraitsCRT@D@ATL@@@@@ATL@@QAE@XZ
  00015	8d 4e 10	 lea	 ecx, DWORD PTR [esi+16]
  00018	5e		 pop	 esi
  00019	ff 25 00 00 00
	00		 jmp	 DWORD PTR __imp_??1?$CStringT@DV?$StrTraitMFC_DLL@DV?$ChTraitsCRT@D@ATL@@@@@ATL@@QAE@XZ
??1CDataTypeEnvironment@@QAE@XZ ENDP			; CDataTypeEnvironment::~CDataTypeEnvironment
_TEXT	ENDS
; Function compile flags: /Ogtp
; File D:\git\src\IBK\IBK_DRFN\ProjSrc\SrcChartEx\ChartAddIn\ChartAnalysisToolAddIn\AnalysisTool\BalanceBasicDrawer.cpp
;	COMDAT ?GetCoefficient@CBalanceBasicDrawer@@ABEHH@Z
_TEXT	SEGMENT
_nIndex$ = 8						; size = 4
?GetCoefficient@CBalanceBasicDrawer@@ABEHH@Z PROC	; CBalanceBasicDrawer::GetCoefficient, COMDAT
; _this$ = ecx

; 99   : {

  00000	55		 push	 ebp
  00001	8b ec		 mov	 ebp, esp

; 100  : 	if( nIndex < 0 || nIndex >= m_arrCoefficient.GetSize() )

  00003	8b 55 08	 mov	 edx, DWORD PTR _nIndex$[ebp]
  00006	85 d2		 test	 edx, edx
  00008	78 0f		 js	 SHORT $LN3@GetCoeffic
  0000a	3b 51 14	 cmp	 edx, DWORD PTR [ecx+20]
  0000d	7d 0a		 jge	 SHORT $LN3@GetCoeffic

; 102  : 
; 103  : 	return (int)m_arrCoefficient.GetAt(nIndex);

  0000f	8b 41 10	 mov	 eax, DWORD PTR [ecx+16]
  00012	8b 04 90	 mov	 eax, DWORD PTR [eax+edx*4]

; 104  : }

  00015	5d		 pop	 ebp
  00016	c2 04 00	 ret	 4
$LN3@GetCoeffic:

; 101  : 		return -1;

  00019	83 c8 ff	 or	 eax, -1

; 104  : }

  0001c	5d		 pop	 ebp
  0001d	c2 04 00	 ret	 4
?GetCoefficient@CBalanceBasicDrawer@@ABEHH@Z ENDP	; CBalanceBasicDrawer::GetCoefficient
_TEXT	ENDS
; Function compile flags: /Ogtp
; File D:\git\src\IBK\IBK_DRFN\ProjSrc\SrcChartEx\ChartAddIn\ChartAnalysisToolAddIn\AnalysisTool\BalanceBasicDrawer.cpp
; File C:\Program Files (x86)\Microsoft Visual Studio\2019\Community\VC\Tools\MSVC\14.29.30133\atlmfc\include\atltypes.h
; File D:\git\src\IBK\IBK_DRFN\ProjSrc\SrcChartEx\ChartAddIn\ChartAnalysisToolAddIn\AnalysisTool\BalanceBasicDrawer.cpp
; File C:\Program Files (x86)\Microsoft Visual Studio\2019\Community\VC\Tools\MSVC\14.29.30133\atlmfc\include\atltypes.h
; File D:\git\src\IBK\IBK_DRFN\ProjSrc\SrcChartEx\ChartAddIn\ChartAnalysisToolAddIn\AnalysisTool\BalanceBasicDrawer.cpp
; File C:\Program Files (x86)\Microsoft Visual Studio\2019\Community\VC\Tools\MSVC\14.29.30133\atlmfc\include\atltypes.h
; File D:\git\src\IBK\IBK_DRFN\ProjSrc\SrcChartEx\ChartAddIn\ChartAnalysisToolAddIn\AnalysisTool\BalanceBasicDrawer.cpp
; File C:\Program Files (x86)\Microsoft Visual Studio\2019\Community\VC\Tools\MSVC\14.29.30133\atlmfc\include\atltypes.h
; File D:\git\src\IBK\IBK_DRFN\ProjSrc\SrcChartEx\ChartAddIn\ChartAnalysisToolAddIn\AnalysisTool\BalanceBasicDrawer.cpp
; File C:\Program Files (x86)\Microsoft Visual Studio\2019\Community\VC\Tools\MSVC\14.29.30133\atlmfc\include\atltypes.h
; File D:\git\src\IBK\IBK_DRFN\ProjSrc\SrcChartEx\ChartAddIn\ChartAnalysisToolAddIn\AnalysisTool\BalanceBasicDrawer.cpp
; File C:\Program Files (x86)\Microsoft Visual Studio\2019\Community\VC\Tools\MSVC\14.29.30133\atlmfc\include\atltypes.h
; File D:\git\src\IBK\IBK_DRFN\ProjSrc\SrcChartEx\ChartAddIn\ChartAnalysisToolAddIn\AnalysisTool\BalanceBasicDrawer.cpp
; File C:\Program Files (x86)\Microsoft Visual Studio\2019\Community\VC\Tools\MSVC\14.29.30133\atlmfc\include\atltypes.h
; File D:\git\src\IBK\IBK_DRFN\ProjSrc\SrcChartEx\ChartAddIn\ChartAnalysisToolAddIn\AnalysisTool\BalanceBasicDrawer.cpp
; File C:\Program Files (x86)\Microsoft Visual Studio\2019\Community\VC\Tools\MSVC\14.29.30133\atlmfc\include\atltypes.h
; File D:\git\src\IBK\IBK_DRFN\ProjSrc\SrcChartEx\ChartAddIn\ChartAnalysisToolAddIn\AnalysisTool\BalanceBasicDrawer.cpp
; File C:\Program Files (x86)\Microsoft Visual Studio\2019\Community\VC\Tools\MSVC\14.29.30133\atlmfc\include\atltypes.h
; File D:\git\src\IBK\IBK_DRFN\ProjSrc\SrcChartEx\ChartAddIn\ChartAnalysisToolAddIn\AnalysisTool\BalanceBasicDrawer.cpp
; File C:\Program Files (x86)\Microsoft Visual Studio\2019\Community\VC\Tools\MSVC\14.29.30133\atlmfc\include\atltypes.h
; File D:\git\src\IBK\IBK_DRFN\ProjSrc\SrcChartEx\ChartAddIn\ChartAnalysisToolAddIn\AnalysisTool\BalanceBasicDrawer.cpp
; File C:\Program Files (x86)\Microsoft Visual Studio\2019\Community\VC\Tools\MSVC\14.29.30133\atlmfc\include\atltypes.h
; File D:\git\src\IBK\IBK_DRFN\ProjSrc\SrcChartEx\ChartAddIn\ChartAnalysisToolAddIn\AnalysisTool\BalanceBasicDrawer.cpp
; File C:\Program Files (x86)\Microsoft Visual Studio\2019\Community\VC\Tools\MSVC\14.29.30133\atlmfc\include\atltypes.h
; File D:\git\src\IBK\IBK_DRFN\ProjSrc\SrcChartEx\ChartAddIn\ChartAnalysisToolAddIn\AnalysisTool\BalanceBasicDrawer.cpp
; File C:\Program Files (x86)\Microsoft Visual Studio\2019\Community\VC\Tools\MSVC\14.29.30133\atlmfc\include\atltypes.h
; File D:\git\src\IBK\IBK_DRFN\ProjSrc\SrcChartEx\ChartAddIn\ChartAnalysisToolAddIn\AnalysisTool\BalanceBasicDrawer.cpp
; File C:\Program Files (x86)\Microsoft Visual Studio\2019\Community\VC\Tools\MSVC\14.29.30133\atlmfc\include\atltypes.h
; File D:\git\src\IBK\IBK_DRFN\ProjSrc\SrcChartEx\ChartAddIn\ChartAnalysisToolAddIn\AnalysisTool\BalanceBasicDrawer.cpp
; File C:\Program Files (x86)\Microsoft Visual Studio\2019\Community\VC\Tools\MSVC\14.29.30133\atlmfc\include\atltypes.h
; File D:\git\src\IBK\IBK_DRFN\ProjSrc\SrcChartEx\ChartAddIn\ChartAnalysisToolAddIn\AnalysisTool\BalanceBasicDrawer.cpp
;	COMDAT ?DrawFigure_Data@CBalanceBasicDrawer@@AAEXPAVCDC@@ABVCDisplayData@@ABVCPoint@@HH@Z
_TEXT	SEGMENT
$T1 = -200						; size = 8
$T2 = -192						; size = 8
$T3 = -184						; size = 8
$T4 = -176						; size = 8
_nBalanceCoefficient$1$ = -168				; size = 4
$T5 = -164						; size = 8
$T6 = -164						; size = 8
$T7 = -164						; size = 8
_nCurrentDataIndex$1$ = -156				; size = 4
_bCenterDraw$1$ = -152					; size = 4
_pDC$GSCopy$1$ = -148					; size = 4
_displayData$GSCopy$1$ = -144				; size = 4
$T8 = -140						; size = 16
$T9 = -124						; size = 16
$T10 = -108						; size = 16
$T11 = -92						; size = 16
$T12 = -76						; size = 16
$T13 = -76						; size = 16
$T14 = -60						; size = 16
$T15 = -60						; size = 16
_coordinateCalRegion$ = -44				; size = 24
$T16 = -20						; size = 16
$T17 = -12						; size = 8
$T18 = -12						; size = 8
__$ArrayPad$ = -4					; size = 4
_pDC$ = 8						; size = 4
_displayData$ = 12					; size = 4
_point$ = 16						; size = 4
_bLeftExt$ = 20						; size = 4
_bRightExt$ = 24					; size = 4
?DrawFigure_Data@CBalanceBasicDrawer@@AAEXPAVCDC@@ABVCDisplayData@@ABVCPoint@@HH@Z PROC ; CBalanceBasicDrawer::DrawFigure_Data, COMDAT
; _this$ = ecx

; 53   : {

  00000	55		 push	 ebp
  00001	8b ec		 mov	 ebp, esp
  00003	81 ec c8 00 00
	00		 sub	 esp, 200		; 000000c8H
  00009	a1 00 00 00 00	 mov	 eax, DWORD PTR ___security_cookie
  0000e	33 c5		 xor	 eax, ebp
  00010	89 45 fc	 mov	 DWORD PTR __$ArrayPad$[ebp], eax
  00013	8b 45 08	 mov	 eax, DWORD PTR _pDC$[ebp]
  00016	53		 push	 ebx
  00017	56		 push	 esi
  00018	8b 75 10	 mov	 esi, DWORD PTR _point$[ebp]
  0001b	8b d9		 mov	 ebx, ecx
  0001d	57		 push	 edi
  0001e	8b 7d 0c	 mov	 edi, DWORD PTR _displayData$[ebp]

; 54   : 	CRegion coordinateCalRegion( displayData.GetCoordinateCalRegion(), displayData.GetDisplayAttributes());

  00021	8b cf		 mov	 ecx, edi
  00023	89 85 6c ff ff
	ff		 mov	 DWORD PTR _pDC$GSCopy$1$[ebp], eax
  00029	8d 85 5c ff ff
	ff		 lea	 eax, DWORD PTR $T7[ebp]
  0002f	50		 push	 eax
  00030	89 bd 70 ff ff
	ff		 mov	 DWORD PTR _displayData$GSCopy$1$[ebp], edi
  00036	e8 00 00 00 00	 call	 ?GetDisplayAttributes@CDisplayData@@QBE?AVCDisplayAttributes@@XZ ; CDisplayData::GetDisplayAttributes
  0003b	50		 push	 eax
  0003c	8d 45 ec	 lea	 eax, DWORD PTR $T16[ebp]
  0003f	8b cf		 mov	 ecx, edi
  00041	50		 push	 eax
  00042	e8 00 00 00 00	 call	 ?GetCoordinateCalRegion@CDisplayData@@QBE?AVCRect@@XZ ; CDisplayData::GetCoordinateCalRegion
  00047	50		 push	 eax
  00048	8d 4d d4	 lea	 ecx, DWORD PTR _coordinateCalRegion$[ebp]
  0004b	e8 00 00 00 00	 call	 ??0CRegion@@QAE@ABVCRect@@ABVCDisplayAttributes@@@Z ; CRegion::CRegion

; 55   : 	int nCurrentDataIndex = CDrawer::GetCurrentDataIndex( coordinateCalRegion, point);

  00050	56		 push	 esi
  00051	8d 45 d4	 lea	 eax, DWORD PTR _coordinateCalRegion$[ebp]
  00054	50		 push	 eax
  00055	8b 03		 mov	 eax, DWORD PTR [ebx]
  00057	8b 48 04	 mov	 ecx, DWORD PTR [eax+4]
  0005a	03 cb		 add	 ecx, ebx
  0005c	e8 00 00 00 00	 call	 ?GetCurrentDataIndex@CDrawer@@IBEHABVCRegion@@ABVCPoint@@@Z ; CDrawer::GetCurrentDataIndex

; 56   : 	
; 57   : 	int		drawPt_X	= 0;
; 58   : 	int		nBalanceCoefficient;
; 59   : 	BOOL	bCenterDraw	= FALSE;

  00061	33 d2		 xor	 edx, edx
  00063	8b f8		 mov	 edi, eax
  00065	89 bd 64 ff ff
	ff		 mov	 DWORD PTR _nCurrentDataIndex$1$[ebp], edi

; 60   : 	for( int i = 0; i < _GB_VALUE_COUNT; i++)

  0006b	33 f6		 xor	 esi, esi
  0006d	89 95 68 ff ff
	ff		 mov	 DWORD PTR _bCenterDraw$1$[ebp], edx
$LL4@DrawFigure:

; 100  : 	if( nIndex < 0 || nIndex >= m_arrCoefficient.GetSize() )

  00073	85 f6		 test	 esi, esi
  00075	0f 88 b2 01 00
	00		 js	 $LN2@DrawFigure
  0007b	3b 73 14	 cmp	 esi, DWORD PTR [ebx+20]
  0007e	0f 8d a9 01 00
	00		 jge	 $LN2@DrawFigure

; 101  : 		return -1;
; 102  : 
; 103  : 	return (int)m_arrCoefficient.GetAt(nIndex);

  00084	8b 43 10	 mov	 eax, DWORD PTR [ebx+16]
  00087	8b 0c b0	 mov	 ecx, DWORD PTR [eax+esi*4]
  0008a	89 8d 58 ff ff
	ff		 mov	 DWORD PTR _nBalanceCoefficient$1$[ebp], ecx

; 61   : 	{
; 62   : 		nBalanceCoefficient = GetCoefficient(i);
; 63   : 
; 64   : 		if( 1 < nBalanceCoefficient )

  00090	83 f9 01	 cmp	 ecx, 1
  00093	0f 8e 1b 01 00
	00		 jle	 $LN5@DrawFigure

; 65   : 		{
; 66   : 			if( bRightExt )

  00099	83 7d 18 00	 cmp	 DWORD PTR _bRightExt$[ebp], 0
  0009d	0f 84 88 00 00
	00		 je	 $LN7@DrawFigure

; 67   : 			{
; 68   : 				drawPt_X = CDrawer::GetDrawingPoint_X( coordinateCalRegion, nCurrentDataIndex + nBalanceCoefficient - 1);

  000a3	6a 01		 push	 1
  000a5	8d 47 ff	 lea	 eax, DWORD PTR [edi-1]
  000a8	03 c1		 add	 eax, ecx
  000aa	50		 push	 eax
  000ab	8d 45 d4	 lea	 eax, DWORD PTR _coordinateCalRegion$[ebp]
  000ae	50		 push	 eax
  000af	8b 03		 mov	 eax, DWORD PTR [ebx]
  000b1	8b 48 04	 mov	 ecx, DWORD PTR [eax+4]
  000b4	03 cb		 add	 ecx, ebx
  000b6	e8 00 00 00 00	 call	 ?GetDrawingPoint_X@CDrawer@@IBEHABVCRegion@@H_N@Z ; CDrawer::GetDrawingPoint_X

; 69   : 				CDrawer::DrawLine( pDC, CPoint(drawPt_X, displayData.GetDisplayRegion().top), CPoint(drawPt_X, displayData.GetDisplayRegion().bottom));

  000bb	8b 8d 70 ff ff
	ff		 mov	 ecx, DWORD PTR _displayData$GSCopy$1$[ebp]
  000c1	8b f8		 mov	 edi, eax
  000c3	8d 45 a4	 lea	 eax, DWORD PTR $T11[ebp]
  000c6	50		 push	 eax
  000c7	e8 00 00 00 00	 call	 ?GetDisplayRegion@CDisplayData@@QBE?AVCRect@@XZ ; CDisplayData::GetDisplayRegion
  000cc	8b 48 0c	 mov	 ecx, DWORD PTR [eax+12]
  000cf	8d 45 94	 lea	 eax, DWORD PTR $T10[ebp]
; File C:\Program Files (x86)\Microsoft Visual Studio\2019\Community\VC\Tools\MSVC\14.29.30133\atlmfc\include\atltypes.h

; 409  : 	y = initY;

  000d2	89 8d 54 ff ff
	ff		 mov	 DWORD PTR $T4[ebp+4], ecx
; File D:\git\src\IBK\IBK_DRFN\ProjSrc\SrcChartEx\ChartAddIn\ChartAnalysisToolAddIn\AnalysisTool\BalanceBasicDrawer.cpp

; 69   : 				CDrawer::DrawLine( pDC, CPoint(drawPt_X, displayData.GetDisplayRegion().top), CPoint(drawPt_X, displayData.GetDisplayRegion().bottom));

  000d8	8b 8d 70 ff ff
	ff		 mov	 ecx, DWORD PTR _displayData$GSCopy$1$[ebp]
  000de	50		 push	 eax
; File C:\Program Files (x86)\Microsoft Visual Studio\2019\Community\VC\Tools\MSVC\14.29.30133\atlmfc\include\atltypes.h

; 408  : 	x = initX;

  000df	89 bd 50 ff ff
	ff		 mov	 DWORD PTR $T4[ebp], edi
; File D:\git\src\IBK\IBK_DRFN\ProjSrc\SrcChartEx\ChartAddIn\ChartAnalysisToolAddIn\AnalysisTool\BalanceBasicDrawer.cpp

; 69   : 				CDrawer::DrawLine( pDC, CPoint(drawPt_X, displayData.GetDisplayRegion().top), CPoint(drawPt_X, displayData.GetDisplayRegion().bottom));

  000e5	e8 00 00 00 00	 call	 ?GetDisplayRegion@CDisplayData@@QBE?AVCRect@@XZ ; CDisplayData::GetDisplayRegion
  000ea	8b 40 04	 mov	 eax, DWORD PTR [eax+4]
; File C:\Program Files (x86)\Microsoft Visual Studio\2019\Community\VC\Tools\MSVC\14.29.30133\atlmfc\include\atltypes.h

; 409  : 	y = initY;

  000ed	89 85 4c ff ff
	ff		 mov	 DWORD PTR $T3[ebp+4], eax
; File D:\git\src\IBK\IBK_DRFN\ProjSrc\SrcChartEx\ChartAddIn\ChartAnalysisToolAddIn\AnalysisTool\BalanceBasicDrawer.cpp

; 69   : 				CDrawer::DrawLine( pDC, CPoint(drawPt_X, displayData.GetDisplayRegion().top), CPoint(drawPt_X, displayData.GetDisplayRegion().bottom));

  000f3	8d 85 50 ff ff
	ff		 lea	 eax, DWORD PTR $T4[ebp]
  000f9	50		 push	 eax
  000fa	8d 85 48 ff ff
	ff		 lea	 eax, DWORD PTR $T3[ebp]
; File C:\Program Files (x86)\Microsoft Visual Studio\2019\Community\VC\Tools\MSVC\14.29.30133\atlmfc\include\atltypes.h

; 408  : 	x = initX;

  00100	89 bd 48 ff ff
	ff		 mov	 DWORD PTR $T3[ebp], edi
; File D:\git\src\IBK\IBK_DRFN\ProjSrc\SrcChartEx\ChartAddIn\ChartAnalysisToolAddIn\AnalysisTool\BalanceBasicDrawer.cpp

; 69   : 				CDrawer::DrawLine( pDC, CPoint(drawPt_X, displayData.GetDisplayRegion().top), CPoint(drawPt_X, displayData.GetDisplayRegion().bottom));

  00106	50		 push	 eax
  00107	8b 03		 mov	 eax, DWORD PTR [ebx]
  00109	ff b5 6c ff ff
	ff		 push	 DWORD PTR _pDC$GSCopy$1$[ebp]
  0010f	8b 48 04	 mov	 ecx, DWORD PTR [eax+4]
  00112	03 cb		 add	 ecx, ebx
  00114	e8 00 00 00 00	 call	 ?DrawLine@CDrawer@@IAEXPAVCDC@@ABVCPoint@@1@Z ; CDrawer::DrawLine
  00119	8b 8d 58 ff ff
	ff		 mov	 ecx, DWORD PTR _nBalanceCoefficient$1$[ebp]
  0011f	8b 95 68 ff ff
	ff		 mov	 edx, DWORD PTR _bCenterDraw$1$[ebp]
  00125	8b bd 64 ff ff
	ff		 mov	 edi, DWORD PTR _nCurrentDataIndex$1$[ebp]
$LN7@DrawFigure:

; 70   : 			}
; 71   : 
; 72   : 			if( bLeftExt )

  0012b	83 7d 14 00	 cmp	 DWORD PTR _bLeftExt$[ebp], 0
  0012f	0f 84 f8 00 00
	00		 je	 $LN2@DrawFigure

; 73   : 			{
; 74   : 				drawPt_X = CDrawer::GetDrawingPoint_X( coordinateCalRegion, nCurrentDataIndex - nBalanceCoefficient + 1);

  00135	2b f9		 sub	 edi, ecx
  00137	8d 45 d4	 lea	 eax, DWORD PTR _coordinateCalRegion$[ebp]
  0013a	6a 01		 push	 1
  0013c	47		 inc	 edi
  0013d	57		 push	 edi
  0013e	50		 push	 eax
  0013f	8b 03		 mov	 eax, DWORD PTR [ebx]
  00141	8b 48 04	 mov	 ecx, DWORD PTR [eax+4]
  00144	03 cb		 add	 ecx, ebx
  00146	e8 00 00 00 00	 call	 ?GetDrawingPoint_X@CDrawer@@IBEHABVCRegion@@H_N@Z ; CDrawer::GetDrawingPoint_X

; 75   : 				CDrawer::DrawLine( pDC, CPoint(drawPt_X, displayData.GetDisplayRegion().top), CPoint(drawPt_X, displayData.GetDisplayRegion().bottom));

  0014b	8b 8d 70 ff ff
	ff		 mov	 ecx, DWORD PTR _displayData$GSCopy$1$[ebp]
  00151	8b f8		 mov	 edi, eax
  00153	8d 45 84	 lea	 eax, DWORD PTR $T9[ebp]
  00156	50		 push	 eax
  00157	e8 00 00 00 00	 call	 ?GetDisplayRegion@CDisplayData@@QBE?AVCRect@@XZ ; CDisplayData::GetDisplayRegion
  0015c	8b 48 0c	 mov	 ecx, DWORD PTR [eax+12]
  0015f	8d 85 74 ff ff
	ff		 lea	 eax, DWORD PTR $T8[ebp]
; File C:\Program Files (x86)\Microsoft Visual Studio\2019\Community\VC\Tools\MSVC\14.29.30133\atlmfc\include\atltypes.h

; 409  : 	y = initY;

  00165	89 8d 44 ff ff
	ff		 mov	 DWORD PTR $T2[ebp+4], ecx
; File D:\git\src\IBK\IBK_DRFN\ProjSrc\SrcChartEx\ChartAddIn\ChartAnalysisToolAddIn\AnalysisTool\BalanceBasicDrawer.cpp

; 75   : 				CDrawer::DrawLine( pDC, CPoint(drawPt_X, displayData.GetDisplayRegion().top), CPoint(drawPt_X, displayData.GetDisplayRegion().bottom));

  0016b	8b 8d 70 ff ff
	ff		 mov	 ecx, DWORD PTR _displayData$GSCopy$1$[ebp]
  00171	50		 push	 eax
; File C:\Program Files (x86)\Microsoft Visual Studio\2019\Community\VC\Tools\MSVC\14.29.30133\atlmfc\include\atltypes.h

; 408  : 	x = initX;

  00172	89 bd 40 ff ff
	ff		 mov	 DWORD PTR $T2[ebp], edi
; File D:\git\src\IBK\IBK_DRFN\ProjSrc\SrcChartEx\ChartAddIn\ChartAnalysisToolAddIn\AnalysisTool\BalanceBasicDrawer.cpp

; 75   : 				CDrawer::DrawLine( pDC, CPoint(drawPt_X, displayData.GetDisplayRegion().top), CPoint(drawPt_X, displayData.GetDisplayRegion().bottom));

  00178	e8 00 00 00 00	 call	 ?GetDisplayRegion@CDisplayData@@QBE?AVCRect@@XZ ; CDisplayData::GetDisplayRegion
  0017d	8b 40 04	 mov	 eax, DWORD PTR [eax+4]
; File C:\Program Files (x86)\Microsoft Visual Studio\2019\Community\VC\Tools\MSVC\14.29.30133\atlmfc\include\atltypes.h

; 409  : 	y = initY;

  00180	89 85 3c ff ff
	ff		 mov	 DWORD PTR $T1[ebp+4], eax
; File D:\git\src\IBK\IBK_DRFN\ProjSrc\SrcChartEx\ChartAddIn\ChartAnalysisToolAddIn\AnalysisTool\BalanceBasicDrawer.cpp

; 75   : 				CDrawer::DrawLine( pDC, CPoint(drawPt_X, displayData.GetDisplayRegion().top), CPoint(drawPt_X, displayData.GetDisplayRegion().bottom));

  00186	8d 85 40 ff ff
	ff		 lea	 eax, DWORD PTR $T2[ebp]
  0018c	50		 push	 eax
  0018d	8d 85 38 ff ff
	ff		 lea	 eax, DWORD PTR $T1[ebp]
; File C:\Program Files (x86)\Microsoft Visual Studio\2019\Community\VC\Tools\MSVC\14.29.30133\atlmfc\include\atltypes.h

; 408  : 	x = initX;

  00193	89 bd 38 ff ff
	ff		 mov	 DWORD PTR $T1[ebp], edi
; File D:\git\src\IBK\IBK_DRFN\ProjSrc\SrcChartEx\ChartAddIn\ChartAnalysisToolAddIn\AnalysisTool\BalanceBasicDrawer.cpp

; 75   : 				CDrawer::DrawLine( pDC, CPoint(drawPt_X, displayData.GetDisplayRegion().top), CPoint(drawPt_X, displayData.GetDisplayRegion().bottom));

  00199	50		 push	 eax
  0019a	8b 03		 mov	 eax, DWORD PTR [ebx]
  0019c	ff b5 6c ff ff
	ff		 push	 DWORD PTR _pDC$GSCopy$1$[ebp]
  001a2	8b 48 04	 mov	 ecx, DWORD PTR [eax+4]
  001a5	03 cb		 add	 ecx, ebx
  001a7	e8 00 00 00 00	 call	 ?DrawLine@CDrawer@@IAEXPAVCDC@@ABVCPoint@@1@Z ; CDrawer::DrawLine

; 76   : 			}
; 77   : 		}

  001ac	8b 95 68 ff ff
	ff		 mov	 edx, DWORD PTR _bCenterDraw$1$[ebp]
  001b2	eb 79		 jmp	 SHORT $LN2@DrawFigure
$LN5@DrawFigure:

; 78   : 		else if( 1 == nBalanceCoefficient && !bCenterDraw)

  001b4	75 77		 jne	 SHORT $LN2@DrawFigure
  001b6	85 d2		 test	 edx, edx
  001b8	75 73		 jne	 SHORT $LN2@DrawFigure

; 79   : 		{
; 80   : 			int drawPt_X = CDrawer::GetDrawingPoint_X( coordinateCalRegion, nCurrentDataIndex);

  001ba	6a 01		 push	 1
  001bc	57		 push	 edi
  001bd	8d 45 d4	 lea	 eax, DWORD PTR _coordinateCalRegion$[ebp]
  001c0	50		 push	 eax
  001c1	8b 03		 mov	 eax, DWORD PTR [ebx]
  001c3	8b 48 04	 mov	 ecx, DWORD PTR [eax+4]
  001c6	03 cb		 add	 ecx, ebx
  001c8	e8 00 00 00 00	 call	 ?GetDrawingPoint_X@CDrawer@@IBEHABVCRegion@@H_N@Z ; CDrawer::GetDrawingPoint_X

; 81   : 			CDrawer::DrawLine( pDC, CPoint(drawPt_X, displayData.GetDisplayRegion().top), CPoint(drawPt_X, displayData.GetDisplayRegion().bottom));

  001cd	8b 8d 70 ff ff
	ff		 mov	 ecx, DWORD PTR _displayData$GSCopy$1$[ebp]
  001d3	8b f8		 mov	 edi, eax
  001d5	8d 45 c4	 lea	 eax, DWORD PTR $T15[ebp]
  001d8	50		 push	 eax
  001d9	e8 00 00 00 00	 call	 ?GetDisplayRegion@CDisplayData@@QBE?AVCRect@@XZ ; CDisplayData::GetDisplayRegion
  001de	8b 48 0c	 mov	 ecx, DWORD PTR [eax+12]
  001e1	8d 45 b4	 lea	 eax, DWORD PTR $T13[ebp]
; File C:\Program Files (x86)\Microsoft Visual Studio\2019\Community\VC\Tools\MSVC\14.29.30133\atlmfc\include\atltypes.h

; 409  : 	y = initY;

  001e4	89 4d f8	 mov	 DWORD PTR $T18[ebp+4], ecx
; File D:\git\src\IBK\IBK_DRFN\ProjSrc\SrcChartEx\ChartAddIn\ChartAnalysisToolAddIn\AnalysisTool\BalanceBasicDrawer.cpp

; 81   : 			CDrawer::DrawLine( pDC, CPoint(drawPt_X, displayData.GetDisplayRegion().top), CPoint(drawPt_X, displayData.GetDisplayRegion().bottom));

  001e7	8b 8d 70 ff ff
	ff		 mov	 ecx, DWORD PTR _displayData$GSCopy$1$[ebp]
  001ed	50		 push	 eax
; File C:\Program Files (x86)\Microsoft Visual Studio\2019\Community\VC\Tools\MSVC\14.29.30133\atlmfc\include\atltypes.h

; 408  : 	x = initX;

  001ee	89 7d f4	 mov	 DWORD PTR $T18[ebp], edi
; File D:\git\src\IBK\IBK_DRFN\ProjSrc\SrcChartEx\ChartAddIn\ChartAnalysisToolAddIn\AnalysisTool\BalanceBasicDrawer.cpp

; 81   : 			CDrawer::DrawLine( pDC, CPoint(drawPt_X, displayData.GetDisplayRegion().top), CPoint(drawPt_X, displayData.GetDisplayRegion().bottom));

  001f1	e8 00 00 00 00	 call	 ?GetDisplayRegion@CDisplayData@@QBE?AVCRect@@XZ ; CDisplayData::GetDisplayRegion
  001f6	8b 40 04	 mov	 eax, DWORD PTR [eax+4]
; File C:\Program Files (x86)\Microsoft Visual Studio\2019\Community\VC\Tools\MSVC\14.29.30133\atlmfc\include\atltypes.h

; 409  : 	y = initY;

  001f9	89 85 60 ff ff
	ff		 mov	 DWORD PTR $T6[ebp+4], eax
; File D:\git\src\IBK\IBK_DRFN\ProjSrc\SrcChartEx\ChartAddIn\ChartAnalysisToolAddIn\AnalysisTool\BalanceBasicDrawer.cpp

; 81   : 			CDrawer::DrawLine( pDC, CPoint(drawPt_X, displayData.GetDisplayRegion().top), CPoint(drawPt_X, displayData.GetDisplayRegion().bottom));

  001ff	8d 45 f4	 lea	 eax, DWORD PTR $T18[ebp]
  00202	50		 push	 eax
  00203	8d 85 5c ff ff
	ff		 lea	 eax, DWORD PTR $T6[ebp]
; File C:\Program Files (x86)\Microsoft Visual Studio\2019\Community\VC\Tools\MSVC\14.29.30133\atlmfc\include\atltypes.h

; 408  : 	x = initX;

  00209	89 bd 5c ff ff
	ff		 mov	 DWORD PTR $T6[ebp], edi
; File D:\git\src\IBK\IBK_DRFN\ProjSrc\SrcChartEx\ChartAddIn\ChartAnalysisToolAddIn\AnalysisTool\BalanceBasicDrawer.cpp

; 81   : 			CDrawer::DrawLine( pDC, CPoint(drawPt_X, displayData.GetDisplayRegion().top), CPoint(drawPt_X, displayData.GetDisplayRegion().bottom));

  0020f	50		 push	 eax
  00210	8b 03		 mov	 eax, DWORD PTR [ebx]
  00212	ff b5 6c ff ff
	ff		 push	 DWORD PTR _pDC$GSCopy$1$[ebp]
  00218	8b 48 04	 mov	 ecx, DWORD PTR [eax+4]
  0021b	03 cb		 add	 ecx, ebx
  0021d	e8 00 00 00 00	 call	 ?DrawLine@CDrawer@@IAEXPAVCDC@@ABVCPoint@@1@Z ; CDrawer::DrawLine

; 82   : 			bCenterDraw = TRUE;

  00222	ba 01 00 00 00	 mov	 edx, 1
  00227	89 95 68 ff ff
	ff		 mov	 DWORD PTR _bCenterDraw$1$[ebp], edx
$LN2@DrawFigure:

; 60   : 	for( int i = 0; i < _GB_VALUE_COUNT; i++)

  0022d	8b bd 64 ff ff
	ff		 mov	 edi, DWORD PTR _nCurrentDataIndex$1$[ebp]
  00233	46		 inc	 esi
  00234	83 fe 0c	 cmp	 esi, 12			; 0000000cH
  00237	0f 8c 36 fe ff
	ff		 jl	 $LL4@DrawFigure

; 83   : 		}
; 84   : 	}
; 85   : 	
; 86   : 	if( !bCenterDraw)

  0023d	85 d2		 test	 edx, edx
  0023f	75 6a		 jne	 SHORT $LN10@DrawFigure

; 87   : 	{
; 88   : 		drawPt_X = CDrawer::GetDrawingPoint_X( coordinateCalRegion, nCurrentDataIndex );

  00241	6a 01		 push	 1
  00243	57		 push	 edi
  00244	8d 45 d4	 lea	 eax, DWORD PTR _coordinateCalRegion$[ebp]
  00247	50		 push	 eax
  00248	8b 03		 mov	 eax, DWORD PTR [ebx]
  0024a	8b 48 04	 mov	 ecx, DWORD PTR [eax+4]
  0024d	03 cb		 add	 ecx, ebx
  0024f	e8 00 00 00 00	 call	 ?GetDrawingPoint_X@CDrawer@@IBEHABVCRegion@@H_N@Z ; CDrawer::GetDrawingPoint_X

; 89   : 		CDrawer::DrawStyleLine( pDC, 

  00254	8b 8d 70 ff ff
	ff		 mov	 ecx, DWORD PTR _displayData$GSCopy$1$[ebp]
  0025a	8b f0		 mov	 esi, eax
  0025c	8d 45 b4	 lea	 eax, DWORD PTR $T12[ebp]
  0025f	50		 push	 eax
  00260	e8 00 00 00 00	 call	 ?GetDisplayRegion@CDisplayData@@QBE?AVCRect@@XZ ; CDisplayData::GetDisplayRegion
  00265	8b 8d 70 ff ff
	ff		 mov	 ecx, DWORD PTR _displayData$GSCopy$1$[ebp]
  0026b	8b 50 0c	 mov	 edx, DWORD PTR [eax+12]
  0026e	8d 45 c4	 lea	 eax, DWORD PTR $T14[ebp]
  00271	50		 push	 eax
; File C:\Program Files (x86)\Microsoft Visual Studio\2019\Community\VC\Tools\MSVC\14.29.30133\atlmfc\include\atltypes.h

; 408  : 	x = initX;

  00272	89 b5 5c ff ff
	ff		 mov	 DWORD PTR $T5[ebp], esi

; 409  : 	y = initY;

  00278	89 95 60 ff ff
	ff		 mov	 DWORD PTR $T5[ebp+4], edx
; File D:\git\src\IBK\IBK_DRFN\ProjSrc\SrcChartEx\ChartAddIn\ChartAnalysisToolAddIn\AnalysisTool\BalanceBasicDrawer.cpp

; 89   : 		CDrawer::DrawStyleLine( pDC, 

  0027e	e8 00 00 00 00	 call	 ?GetDisplayRegion@CDisplayData@@QBE?AVCRect@@XZ ; CDisplayData::GetDisplayRegion
  00283	6a 03		 push	 3
  00285	8b 40 04	 mov	 eax, DWORD PTR [eax+4]
; File C:\Program Files (x86)\Microsoft Visual Studio\2019\Community\VC\Tools\MSVC\14.29.30133\atlmfc\include\atltypes.h

; 409  : 	y = initY;

  00288	89 45 f8	 mov	 DWORD PTR $T17[ebp+4], eax
; File D:\git\src\IBK\IBK_DRFN\ProjSrc\SrcChartEx\ChartAddIn\ChartAnalysisToolAddIn\AnalysisTool\BalanceBasicDrawer.cpp

; 89   : 		CDrawer::DrawStyleLine( pDC, 

  0028b	8d 85 5c ff ff
	ff		 lea	 eax, DWORD PTR $T5[ebp]
  00291	50		 push	 eax
  00292	8d 45 f4	 lea	 eax, DWORD PTR $T17[ebp]
; File C:\Program Files (x86)\Microsoft Visual Studio\2019\Community\VC\Tools\MSVC\14.29.30133\atlmfc\include\atltypes.h

; 408  : 	x = initX;

  00295	89 75 f4	 mov	 DWORD PTR $T17[ebp], esi
; File D:\git\src\IBK\IBK_DRFN\ProjSrc\SrcChartEx\ChartAddIn\ChartAnalysisToolAddIn\AnalysisTool\BalanceBasicDrawer.cpp

; 89   : 		CDrawer::DrawStyleLine( pDC, 

  00298	50		 push	 eax
  00299	8b 03		 mov	 eax, DWORD PTR [ebx]
  0029b	ff b5 6c ff ff
	ff		 push	 DWORD PTR _pDC$GSCopy$1$[ebp]
  002a1	8b 48 04	 mov	 ecx, DWORD PTR [eax+4]
  002a4	03 cb		 add	 ecx, ebx
  002a6	e8 00 00 00 00	 call	 ?DrawStyleLine@CDrawer@@IAEXPAVCDC@@ABVCPoint@@1I@Z ; CDrawer::DrawStyleLine
$LN10@DrawFigure:

; 90   : 										CPoint(drawPt_X, displayData.GetDisplayRegion().top),
; 91   : 										CPoint(drawPt_X, displayData.GetDisplayRegion().bottom),
; 92   : 										PS_DASHDOT );
; 93   : 	}
; 94   : }

  002ab	8b 4d fc	 mov	 ecx, DWORD PTR __$ArrayPad$[ebp]
  002ae	5f		 pop	 edi
  002af	5e		 pop	 esi
  002b0	33 cd		 xor	 ecx, ebp
  002b2	5b		 pop	 ebx
  002b3	e8 00 00 00 00	 call	 @__security_check_cookie@4
  002b8	8b e5		 mov	 esp, ebp
  002ba	5d		 pop	 ebp
  002bb	c2 14 00	 ret	 20			; 00000014H
?DrawFigure_Data@CBalanceBasicDrawer@@AAEXPAVCDC@@ABVCDisplayData@@ABVCPoint@@HH@Z ENDP ; CBalanceBasicDrawer::DrawFigure_Data
_TEXT	ENDS
; Function compile flags: /Ogtp
; File D:\git\src\IBK\IBK_DRFN\ProjSrc\SrcChartEx\ChartAddIn\ChartAnalysisToolAddIn\AnalysisTool\BalanceBasicDrawer.cpp
; File C:\Program Files (x86)\Microsoft Visual Studio\2019\Community\VC\Tools\MSVC\14.29.30133\atlmfc\include\atltypes.h
; File D:\git\src\IBK\IBK_DRFN\ProjSrc\SrcChartEx\ChartAddIn\ChartAnalysisToolAddIn\AnalysisTool\BalanceBasicDrawer.cpp
; File C:\Program Files (x86)\Microsoft Visual Studio\2019\Community\VC\Tools\MSVC\14.29.30133\atlmfc\include\afxwin1.inl
; File C:\Program Files (x86)\Microsoft Visual Studio\2019\Community\VC\Tools\MSVC\14.29.30133\atlmfc\include\atltypes.h
; File D:\git\src\IBK\IBK_DRFN\ProjSrc\SrcChartEx\ChartAddIn\ChartAnalysisToolAddIn\AnalysisTool\BalanceBasicDrawer.cpp
; File C:\Program Files (x86)\Microsoft Visual Studio\2019\Community\VC\Tools\MSVC\14.29.30133\atlmfc\include\atltypes.h
; File D:\git\src\IBK\IBK_DRFN\ProjSrc\SrcChartEx\ChartAddIn\ChartAnalysisToolAddIn\AnalysisTool\BalanceBasicDrawer.cpp
; File C:\Program Files (x86)\Microsoft Visual Studio\2019\Community\VC\Tools\MSVC\14.29.30133\atlmfc\include\atltypes.h
; File D:\git\src\IBK\IBK_DRFN\ProjSrc\SrcChartEx\ChartAddIn\ChartAnalysisToolAddIn\AnalysisTool\BalanceBasicDrawer.cpp
; File C:\Program Files (x86)\Microsoft Visual Studio\2019\Community\VC\Tools\MSVC\14.29.30133\atlmfc\include\atltypes.h
; File D:\git\src\IBK\IBK_DRFN\ProjSrc\SrcChartEx\ChartAddIn\ChartAnalysisToolAddIn\AnalysisTool\BalanceBasicDrawer.cpp
;	COMDAT ?DrawTextA@CBalanceBasicDrawer@@IAEXPAVCDC@@ABVCOnePointDrawingData@@V?$CStringT@DV?$StrTraitMFC_DLL@DV?$ChTraitsCRT@D@ATL@@@@@ATL@@H@Z
_TEXT	SEGMENT
$T2 = -248						; size = 40
$T3 = -208						; size = 8
$T4 = -200						; size = 8
$T5 = -192						; size = 8
_pDC$GSCopy$1$ = -188					; size = 4
_region$1$ = -184					; size = 4
_size$6 = -180						; size = 8
_point$7 = -180						; size = 8
_ptLine$ = -180						; size = 8
_startPoint$1$ = -176					; size = 4
_p_bIsRelativePointType$1$ = -169			; size = 1
_blockRegion$ = -168					; size = 96
$T8 = -72						; size = 24
_rctGraphRegion$ = -48					; size = 16
_textRegion$ = -32					; size = 16
__$ArrayPad$ = -16					; size = 4
__$EHRec$ = -12						; size = 12
_pDC$ = 8						; size = 4
_drawingData$ = 12					; size = 4
_strIndex$ = 16						; size = 4
_nIndex$ = 20						; size = 4
?DrawTextA@CBalanceBasicDrawer@@IAEXPAVCDC@@ABVCOnePointDrawingData@@V?$CStringT@DV?$StrTraitMFC_DLL@DV?$ChTraitsCRT@D@ATL@@@@@ATL@@H@Z PROC ; CBalanceBasicDrawer::DrawTextA, COMDAT
; _this$ = ecx

; 135  : {

  00000	55		 push	 ebp
  00001	8b ec		 mov	 ebp, esp
  00003	6a ff		 push	 -1
  00005	68 00 00 00 00	 push	 __ehhandler$?DrawTextA@CBalanceBasicDrawer@@IAEXPAVCDC@@ABVCOnePointDrawingData@@V?$CStringT@DV?$StrTraitMFC_DLL@DV?$ChTraitsCRT@D@ATL@@@@@ATL@@H@Z
  0000a	64 a1 00 00 00
	00		 mov	 eax, DWORD PTR fs:0
  00010	50		 push	 eax
  00011	81 ec ec 00 00
	00		 sub	 esp, 236		; 000000ecH
  00017	a1 00 00 00 00	 mov	 eax, DWORD PTR ___security_cookie
  0001c	33 c5		 xor	 eax, ebp
  0001e	89 45 f0	 mov	 DWORD PTR __$ArrayPad$[ebp], eax
  00021	53		 push	 ebx
  00022	56		 push	 esi
  00023	57		 push	 edi
  00024	50		 push	 eax
  00025	8d 45 f4	 lea	 eax, DWORD PTR __$EHRec$[ebp]
  00028	64 a3 00 00 00
	00		 mov	 DWORD PTR fs:0, eax
  0002e	8b f1		 mov	 esi, ecx
  00030	8b 45 08	 mov	 eax, DWORD PTR _pDC$[ebp]
  00033	8b 5d 0c	 mov	 ebx, DWORD PTR _drawingData$[ebp]
  00036	89 85 44 ff ff
	ff		 mov	 DWORD PTR _pDC$GSCopy$1$[ebp], eax

; 136  : 	CDrawingRegions *pDrawingRegions = drawingData.GetDrawingRegions();

  0003c	8b cb		 mov	 ecx, ebx
  0003e	c7 45 fc 00 00
	00 00		 mov	 DWORD PTR __$EHRec$[ebp+8], 0
  00045	e8 00 00 00 00	 call	 ?GetDrawingRegions@COnePointDrawingData@@QBEPAVCDrawingRegions@@XZ ; COnePointDrawingData::GetDrawingRegions

; 137  : 	if( !pDrawingRegions) return;

  0004a	85 c0		 test	 eax, eax
  0004c	0f 84 b5 01 00
	00		 je	 $LN5@DrawTextA

; 138  : 	CRect rctGraphRegion = pDrawingRegions->GetCurrentUnmixedGraphRegion();

  00052	8d 4d d0	 lea	 ecx, DWORD PTR _rctGraphRegion$[ebp]
  00055	51		 push	 ecx
  00056	8b c8		 mov	 ecx, eax
  00058	e8 00 00 00 00	 call	 ?GetCurrentUnmixedGraphRegion@CDrawingRegions@@QBE?AVCRect@@XZ ; CDrawingRegions::GetCurrentUnmixedGraphRegion

; 139  : 	
; 140  : 	CBlockRegion blockRegion = drawingData.GetHeadBlockRegion();

  0005d	8d 85 58 ff ff
	ff		 lea	 eax, DWORD PTR _blockRegion$[ebp]
  00063	8b cb		 mov	 ecx, ebx
  00065	50		 push	 eax
  00066	e8 00 00 00 00	 call	 ?GetHeadBlockRegion@COnePointDrawingData@@QBE?AVCBlockRegion@@XZ ; COnePointDrawingData::GetHeadBlockRegion

; 142  : 	if( !GetPoint( drawingData.IsRelativePointType(), CRegion( rctGraphRegion, drawingData.GetDisplayAttributes()), drawingData.GetPoints().GetDrawingPoint(), nIndex, ptLine))

  0006b	8d 85 08 ff ff
	ff		 lea	 eax, DWORD PTR $T2[ebp]
  00071	8b cb		 mov	 ecx, ebx
  00073	50		 push	 eax
; File C:\Program Files (x86)\Microsoft Visual Studio\2019\Community\VC\Tools\MSVC\14.29.30133\atlmfc\include\atltypes.h

; 400  : 	x = 0;

  00074	33 ff		 xor	 edi, edi
; File D:\git\src\IBK\IBK_DRFN\ProjSrc\SrcChartEx\ChartAddIn\ChartAnalysisToolAddIn\AnalysisTool\BalanceBasicDrawer.cpp

; 142  : 	if( !GetPoint( drawingData.IsRelativePointType(), CRegion( rctGraphRegion, drawingData.GetDisplayAttributes()), drawingData.GetPoints().GetDrawingPoint(), nIndex, ptLine))

  00076	e8 00 00 00 00	 call	 ?GetPoints@COnePointDrawingData@@QBE?AVCPoints@@XZ ; COnePointDrawingData::GetPoints
  0007b	8d 8d 38 ff ff
	ff		 lea	 ecx, DWORD PTR $T4[ebp]
  00081	c6 45 fc 01	 mov	 BYTE PTR __$EHRec$[ebp+8], 1
  00085	51		 push	 ecx
  00086	8b c8		 mov	 ecx, eax
  00088	e8 00 00 00 00	 call	 ?GetDrawingPoint@CPoints@@QBE?AVCPoint@@XZ ; CPoints::GetDrawingPoint
  0008d	89 85 50 ff ff
	ff		 mov	 DWORD PTR _startPoint$1$[ebp], eax
  00093	8b cb		 mov	 ecx, ebx
  00095	8d 85 30 ff ff
	ff		 lea	 eax, DWORD PTR $T3[ebp]
  0009b	50		 push	 eax
  0009c	e8 00 00 00 00	 call	 ?GetDisplayAttributes@CDrawingData@@QBE?AVCDisplayAttributes@@XZ ; CDrawingData::GetDisplayAttributes
  000a1	50		 push	 eax
  000a2	8d 45 d0	 lea	 eax, DWORD PTR _rctGraphRegion$[ebp]
  000a5	50		 push	 eax
  000a6	8d 4d b8	 lea	 ecx, DWORD PTR $T8[ebp]
  000a9	e8 00 00 00 00	 call	 ??0CRegion@@QAE@ABVCRect@@ABVCDisplayAttributes@@@Z ; CRegion::CRegion
  000ae	8b cb		 mov	 ecx, ebx
  000b0	89 85 48 ff ff
	ff		 mov	 DWORD PTR _region$1$[ebp], eax
  000b6	e8 00 00 00 00	 call	 ?IsRelativePointType@CDrawingData@@QBE_NXZ ; CDrawingData::IsRelativePointType

; 155  : 	if( nIndex < -_GB_VALUE_COUNT || _GB_VALUE_COUNT < nIndex || 0 == nIndex ) return false;

  000bb	8b 5d 14	 mov	 ebx, DWORD PTR _nIndex$[ebp]

; 142  : 	if( !GetPoint( drawingData.IsRelativePointType(), CRegion( rctGraphRegion, drawingData.GetDisplayAttributes()), drawingData.GetPoints().GetDrawingPoint(), nIndex, ptLine))

  000be	88 85 57 ff ff
	ff		 mov	 BYTE PTR _p_bIsRelativePointType$1$[ebp], al

; 155  : 	if( nIndex < -_GB_VALUE_COUNT || _GB_VALUE_COUNT < nIndex || 0 == nIndex ) return false;

  000c4	8d 4b 0c	 lea	 ecx, DWORD PTR [ebx+12]
  000c7	83 f9 18	 cmp	 ecx, 24			; 00000018H
  000ca	0f 87 97 00 00
	00		 ja	 $LN16@DrawTextA
  000d0	85 db		 test	 ebx, ebx
  000d2	0f 84 8f 00 00
	00		 je	 $LN16@DrawTextA

; 156  : 	
; 157  : 	int nDirection = nIndex / abs( nIndex);

  000d8	8b c3		 mov	 eax, ebx
  000da	99		 cdq
  000db	8b c8		 mov	 ecx, eax
  000dd	8b c3		 mov	 eax, ebx
  000df	33 ca		 xor	 ecx, edx
  000e1	2b ca		 sub	 ecx, edx
  000e3	99		 cdq
  000e4	f7 f9		 idiv	 ecx
  000e6	8b d0		 mov	 edx, eax

; 158  : 	int nI = nIndex * nDirection - 1;

  000e8	8b ca		 mov	 ecx, edx
  000ea	0f af cb	 imul	 ecx, ebx
  000ed	83 e9 01	 sub	 ecx, 1

; 100  : 	if( nIndex < 0 || nIndex >= m_arrCoefficient.GetSize() )

  000f0	78 75		 js	 SHORT $LN16@DrawTextA
  000f2	3b 4e 14	 cmp	 ecx, DWORD PTR [esi+20]
  000f5	7d 70		 jge	 SHORT $LN16@DrawTextA

; 101  : 		return -1;
; 102  : 
; 103  : 	return (int)m_arrCoefficient.GetAt(nIndex);

  000f7	8b 46 10	 mov	 eax, DWORD PTR [esi+16]
  000fa	8b 04 88	 mov	 eax, DWORD PTR [eax+ecx*4]

; 160  : 	if( nBalanceCoefficient < 1) return false;

  000fd	83 f8 01	 cmp	 eax, 1
  00100	7c 65		 jl	 SHORT $LN16@DrawTextA

; 161  : 	
; 162  : 	CPoint point = startPoint;

  00102	8b 9d 50 ff ff
	ff		 mov	 ebx, DWORD PTR _startPoint$1$[ebp]
  00108	8d 78 ff	 lea	 edi, DWORD PTR [eax-1]
  0010b	0f af fa	 imul	 edi, edx

; 163  : 	
; 164  : 	if( p_bIsRelativePointType)

  0010e	80 bd 57 ff ff
	ff 00		 cmp	 BYTE PTR _p_bIsRelativePointType$1$[ebp], 0
  00115	8b 0b		 mov	 ecx, DWORD PTR [ebx]
  00117	89 8d 4c ff ff
	ff		 mov	 DWORD PTR _point$7[ebp], ecx
  0011d	74 39		 je	 SHORT $LN18@DrawTextA

; 165  : 	{
; 166  : 		int drawPt_X = CDrawer::GetDrawingPoint_X( region, CDrawer::GetCurrentDataIndex( region, startPoint) + ( nBalanceCoefficient - 1) * nDirection);

  0011f	8b 06		 mov	 eax, DWORD PTR [esi]
  00121	6a 01		 push	 1
  00123	53		 push	 ebx
  00124	ff b5 48 ff ff
	ff		 push	 DWORD PTR _region$1$[ebp]
  0012a	8b 48 04	 mov	 ecx, DWORD PTR [eax+4]
  0012d	03 ce		 add	 ecx, esi
  0012f	e8 00 00 00 00	 call	 ?GetCurrentDataIndex@CDrawer@@IBEHABVCRegion@@ABVCPoint@@@Z ; CDrawer::GetCurrentDataIndex
  00134	03 c7		 add	 eax, edi
  00136	50		 push	 eax
  00137	8b 06		 mov	 eax, DWORD PTR [esi]
  00139	ff b5 48 ff ff
	ff		 push	 DWORD PTR _region$1$[ebp]
  0013f	8b 48 04	 mov	 ecx, DWORD PTR [eax+4]
  00142	03 ce		 add	 ecx, esi
  00144	e8 00 00 00 00	 call	 ?GetDrawingPoint_X@CDrawer@@IBEHABVCRegion@@H_N@Z ; CDrawer::GetDrawingPoint_X

; 167  : 		gbLinePoint = CPoint(drawPt_X, startPoint.y);

  00149	8b 4b 04	 mov	 ecx, DWORD PTR [ebx+4]
  0014c	8b f8		 mov	 edi, eax
  0014e	89 8d 50 ff ff
	ff		 mov	 DWORD PTR _ptLine$[ebp+4], ecx

; 173  : 	}
; 174  : 
; 175  : 	return true;

  00154	32 db		 xor	 bl, bl
  00156	eb 11		 jmp	 SHORT $LN14@DrawTextA
$LN18@DrawTextA:

; 168  : 	}
; 169  : 	else
; 170  : 	{
; 171  : 		point.x = point.x + ( nBalanceCoefficient - 1) * nDirection;
; 172  : 		gbLinePoint = point;

  00158	8b 43 04	 mov	 eax, DWORD PTR [ebx+4]
  0015b	03 f9		 add	 edi, ecx
  0015d	89 85 50 ff ff
	ff		 mov	 DWORD PTR _ptLine$[ebp+4], eax

; 173  : 	}
; 174  : 
; 175  : 	return true;

  00163	32 db		 xor	 bl, bl
  00165	eb 02		 jmp	 SHORT $LN14@DrawTextA
$LN16@DrawTextA:

; 142  : 	if( !GetPoint( drawingData.IsRelativePointType(), CRegion( rctGraphRegion, drawingData.GetDisplayAttributes()), drawingData.GetPoints().GetDrawingPoint(), nIndex, ptLine))

  00167	b3 01		 mov	 bl, 1
$LN14@DrawTextA:
  00169	8d 8d 1c ff ff
	ff		 lea	 ecx, DWORD PTR $T2[ebp+20]
  0016f	c6 45 fc 00	 mov	 BYTE PTR __$EHRec$[ebp+8], 0
  00173	ff 15 00 00 00
	00		 call	 DWORD PTR __imp_??1?$CStringT@DV?$StrTraitMFC_DLL@DV?$ChTraitsCRT@D@ATL@@@@@ATL@@QAE@XZ
  00179	84 db		 test	 bl, bl
  0017b	0f 85 86 00 00
	00		 jne	 $LN5@DrawTextA
; File C:\Program Files (x86)\Microsoft Visual Studio\2019\Community\VC\Tools\MSVC\14.29.30133\atlmfc\include\afxwin1.inl

; 639  : 		VERIFY(::GetTextExtentPoint32(m_hAttribDC, str, (int)str.GetLength(), &size));

  00181	8b 9d 44 ff ff
	ff		 mov	 ebx, DWORD PTR _pDC$GSCopy$1$[ebp]
  00187	8d 85 4c ff ff
	ff		 lea	 eax, DWORD PTR _size$6[ebp]
  0018d	50		 push	 eax
  0018e	8b 45 10	 mov	 eax, DWORD PTR _strIndex$[ebp]
  00191	ff 70 f4	 push	 DWORD PTR [eax-12]
  00194	50		 push	 eax
  00195	ff 73 08	 push	 DWORD PTR [ebx+8]
  00198	ff 15 00 00 00
	00		 call	 DWORD PTR __imp__GetTextExtentPoint32A@16
; File C:\Program Files (x86)\Microsoft Visual Studio\2019\Community\VC\Tools\MSVC\14.29.30133\atlmfc\include\atltypes.h

; 318  : 	*(SIZE*)this = initSize;

  0019e	8b 85 4c ff ff
	ff		 mov	 eax, DWORD PTR _size$6[ebp]
  001a4	8b 8d 50 ff ff
	ff		 mov	 ecx, DWORD PTR _size$6[ebp+4]
; File D:\git\src\IBK\IBK_DRFN\ProjSrc\SrcChartEx\ChartAddIn\ChartAnalysisToolAddIn\AnalysisTool\BalanceBasicDrawer.cpp

; 145  : 	CRect textRegion = GetTextRegion( blockRegion, pDC->GetTextExtent( strIndex), ptLine.x, false);

  001aa	6a 00		 push	 0
; File C:\Program Files (x86)\Microsoft Visual Studio\2019\Community\VC\Tools\MSVC\14.29.30133\atlmfc\include\atltypes.h

; 318  : 	*(SIZE*)this = initSize;

  001ac	89 85 40 ff ff
	ff		 mov	 DWORD PTR $T5[ebp], eax
; File D:\git\src\IBK\IBK_DRFN\ProjSrc\SrcChartEx\ChartAddIn\ChartAnalysisToolAddIn\AnalysisTool\BalanceBasicDrawer.cpp

; 145  : 	CRect textRegion = GetTextRegion( blockRegion, pDC->GetTextExtent( strIndex), ptLine.x, false);

  001b2	8d 85 40 ff ff
	ff		 lea	 eax, DWORD PTR $T5[ebp]
  001b8	57		 push	 edi
  001b9	50		 push	 eax
  001ba	8d 85 58 ff ff
	ff		 lea	 eax, DWORD PTR _blockRegion$[ebp]
; File C:\Program Files (x86)\Microsoft Visual Studio\2019\Community\VC\Tools\MSVC\14.29.30133\atlmfc\include\atltypes.h

; 318  : 	*(SIZE*)this = initSize;

  001c0	89 8d 44 ff ff
	ff		 mov	 DWORD PTR $T5[ebp+4], ecx
; File D:\git\src\IBK\IBK_DRFN\ProjSrc\SrcChartEx\ChartAddIn\ChartAnalysisToolAddIn\AnalysisTool\BalanceBasicDrawer.cpp

; 145  : 	CRect textRegion = GetTextRegion( blockRegion, pDC->GetTextExtent( strIndex), ptLine.x, false);

  001c6	50		 push	 eax
  001c7	8d 45 e0	 lea	 eax, DWORD PTR _textRegion$[ebp]
  001ca	8b ce		 mov	 ecx, esi
  001cc	50		 push	 eax
  001cd	e8 00 00 00 00	 call	 ?GetTextRegion@CVertLineDrawer@@IBE?AVCRect@@ABVCBlockRegion@@ABVCSize@@H_N@Z ; CVertLineDrawer::GetTextRegion

; 146  : 	textRegion.OffsetRect( ptLine.x - textRegion.left, 0);

  001d2	2b 7d e0	 sub	 edi, DWORD PTR _textRegion$[ebp]
; File C:\Program Files (x86)\Microsoft Visual Studio\2019\Community\VC\Tools\MSVC\14.29.30133\atlmfc\include\atltypes.h

; 710  : 	::OffsetRect(this, x, y);

  001d5	8d 45 e0	 lea	 eax, DWORD PTR _textRegion$[ebp]
  001d8	6a 00		 push	 0
  001da	57		 push	 edi
  001db	50		 push	 eax
  001dc	ff 15 00 00 00
	00		 call	 DWORD PTR __imp__OffsetRect@12
; File D:\git\src\IBK\IBK_DRFN\ProjSrc\SrcChartEx\ChartAddIn\ChartAnalysisToolAddIn\AnalysisTool\BalanceBasicDrawer.cpp

; 148  : 	if( textRegion.left < rctGraphRegion.left || rctGraphRegion.right < textRegion.right) return;

  001e2	8b 45 e0	 mov	 eax, DWORD PTR _textRegion$[ebp]
  001e5	3b 45 d0	 cmp	 eax, DWORD PTR _rctGraphRegion$[ebp]
  001e8	7c 1d		 jl	 SHORT $LN5@DrawTextA
  001ea	8b 45 d8	 mov	 eax, DWORD PTR _rctGraphRegion$[ebp+8]
  001ed	3b 45 e8	 cmp	 eax, DWORD PTR _textRegion$[ebp+8]
  001f0	7c 15		 jl	 SHORT $LN5@DrawTextA

; 149  : 	
; 150  : 	CDrawer::DrawTextOut( pDC, strIndex, textRegion);

  001f2	8d 45 e0	 lea	 eax, DWORD PTR _textRegion$[ebp]
  001f5	50		 push	 eax
  001f6	8d 45 10	 lea	 eax, DWORD PTR _strIndex$[ebp]
  001f9	50		 push	 eax
  001fa	8b 06		 mov	 eax, DWORD PTR [esi]
  001fc	53		 push	 ebx
  001fd	8b 48 04	 mov	 ecx, DWORD PTR [eax+4]
  00200	03 ce		 add	 ecx, esi
  00202	e8 00 00 00 00	 call	 ?DrawTextOut@CDrawer@@IAEXPAVCDC@@ABV?$CStringT@DV?$StrTraitMFC_DLL@DV?$ChTraitsCRT@D@ATL@@@@@ATL@@ABVCRect@@@Z ; CDrawer::DrawTextOut
$LN5@DrawTextA:

; 151  : }

  00207	8d 4d 10	 lea	 ecx, DWORD PTR _strIndex$[ebp]
  0020a	ff 15 00 00 00
	00		 call	 DWORD PTR __imp_??1?$CStringT@DV?$StrTraitMFC_DLL@DV?$ChTraitsCRT@D@ATL@@@@@ATL@@QAE@XZ
  00210	8b 4d f4	 mov	 ecx, DWORD PTR __$EHRec$[ebp]
  00213	64 89 0d 00 00
	00 00		 mov	 DWORD PTR fs:0, ecx
  0021a	59		 pop	 ecx
  0021b	5f		 pop	 edi
  0021c	5e		 pop	 esi
  0021d	5b		 pop	 ebx
  0021e	8b 4d f0	 mov	 ecx, DWORD PTR __$ArrayPad$[ebp]
  00221	33 cd		 xor	 ecx, ebp
  00223	e8 00 00 00 00	 call	 @__security_check_cookie@4
  00228	8b e5		 mov	 esp, ebp
  0022a	5d		 pop	 ebp
  0022b	c2 10 00	 ret	 16			; 00000010H
_TEXT	ENDS
;	COMDAT text$x
text$x	SEGMENT
__unwindfunclet$?DrawTextA@CBalanceBasicDrawer@@IAEXPAVCDC@@ABVCOnePointDrawingData@@V?$CStringT@DV?$StrTraitMFC_DLL@DV?$ChTraitsCRT@D@ATL@@@@@ATL@@H@Z$0:
  00000	8d 4d 10	 lea	 ecx, DWORD PTR _strIndex$[ebp]
  00003	ff 25 00 00 00
	00		 jmp	 DWORD PTR __imp_??1?$CStringT@DV?$StrTraitMFC_DLL@DV?$ChTraitsCRT@D@ATL@@@@@ATL@@QAE@XZ
__unwindfunclet$?DrawTextA@CBalanceBasicDrawer@@IAEXPAVCDC@@ABVCOnePointDrawingData@@V?$CStringT@DV?$StrTraitMFC_DLL@DV?$ChTraitsCRT@D@ATL@@@@@ATL@@H@Z$1:
  00009	8d 8d 08 ff ff
	ff		 lea	 ecx, DWORD PTR $T2[ebp]
  0000f	e9 00 00 00 00	 jmp	 ??1CPoints@@QAE@XZ
  00014	cc		 int	 3
  00015	cc		 int	 3
  00016	cc		 int	 3
  00017	cc		 int	 3
  00018	cc		 int	 3
__ehhandler$?DrawTextA@CBalanceBasicDrawer@@IAEXPAVCDC@@ABVCOnePointDrawingData@@V?$CStringT@DV?$StrTraitMFC_DLL@DV?$ChTraitsCRT@D@ATL@@@@@ATL@@H@Z:
  00019	90		 npad	 1
  0001a	90		 npad	 1
  0001b	8b 54 24 08	 mov	 edx, DWORD PTR [esp+8]
  0001f	8d 42 0c	 lea	 eax, DWORD PTR [edx+12]
  00022	8b 8a 04 ff ff
	ff		 mov	 ecx, DWORD PTR [edx-252]
  00028	33 c8		 xor	 ecx, eax
  0002a	e8 00 00 00 00	 call	 @__security_check_cookie@4
  0002f	8b 4a fc	 mov	 ecx, DWORD PTR [edx-4]
  00032	33 c8		 xor	 ecx, eax
  00034	e8 00 00 00 00	 call	 @__security_check_cookie@4
  00039	b8 00 00 00 00	 mov	 eax, OFFSET __ehfuncinfo$?DrawTextA@CBalanceBasicDrawer@@IAEXPAVCDC@@ABVCOnePointDrawingData@@V?$CStringT@DV?$StrTraitMFC_DLL@DV?$ChTraitsCRT@D@ATL@@@@@ATL@@H@Z
  0003e	e9 00 00 00 00	 jmp	 ___CxxFrameHandler3
text$x	ENDS
?DrawTextA@CBalanceBasicDrawer@@IAEXPAVCDC@@ABVCOnePointDrawingData@@V?$CStringT@DV?$StrTraitMFC_DLL@DV?$ChTraitsCRT@D@ATL@@@@@ATL@@H@Z ENDP ; CBalanceBasicDrawer::DrawTextA
; Function compile flags: /Ogtp
; File D:\git\src\IBK\IBK_DRFN\ProjSrc\SrcChartEx\ChartAddIn\ChartAnalysisToolAddIn\AnalysisTool\BalanceBasicDrawer.cpp
;	COMDAT ?DrawTextA@CBalanceBasicDrawer@@MAEXPAVCDC@@ABVCOnePointDrawingData@@@Z
_TEXT	SEGMENT
$T2 = -100						; size = 40
$T3 = -60						; size = 8
$T4 = -52						; size = 8
_pDC$GSCopy$1$ = -44					; size = 4
_strIndex$ = -40					; size = 4
_this$GSCopy$1$ = -36					; size = 4
$T5 = -32						; size = 16
$T6 = -24						; size = 8
__$ArrayPad$ = -16					; size = 4
__$EHRec$ = -12						; size = 12
_pDC$ = 8						; size = 4
_drawingData$ = 12					; size = 4
?DrawTextA@CBalanceBasicDrawer@@MAEXPAVCDC@@ABVCOnePointDrawingData@@@Z PROC ; CBalanceBasicDrawer::DrawTextA, COMDAT
; _this$ = ecx

; 107  : {

  00000	55		 push	 ebp
  00001	8b ec		 mov	 ebp, esp
  00003	6a ff		 push	 -1
  00005	68 00 00 00 00	 push	 __ehhandler$?DrawTextA@CBalanceBasicDrawer@@MAEXPAVCDC@@ABVCOnePointDrawingData@@@Z
  0000a	64 a1 00 00 00
	00		 mov	 eax, DWORD PTR fs:0
  00010	50		 push	 eax
  00011	83 ec 58	 sub	 esp, 88			; 00000058H
  00014	a1 00 00 00 00	 mov	 eax, DWORD PTR ___security_cookie
  00019	33 c5		 xor	 eax, ebp
  0001b	89 45 f0	 mov	 DWORD PTR __$ArrayPad$[ebp], eax
  0001e	53		 push	 ebx
  0001f	56		 push	 esi
  00020	57		 push	 edi
  00021	50		 push	 eax
  00022	8d 45 f4	 lea	 eax, DWORD PTR __$EHRec$[ebp]
  00025	64 a3 00 00 00
	00		 mov	 DWORD PTR fs:0, eax
  0002b	8b f1		 mov	 esi, ecx
  0002d	89 75 dc	 mov	 DWORD PTR _this$GSCopy$1$[ebp], esi
  00030	8b 45 08	 mov	 eax, DWORD PTR _pDC$[ebp]
  00033	8b 7d 0c	 mov	 edi, DWORD PTR _drawingData$[ebp]

; 108  : 	if(!CVertLineDrawer::IsDrawing(drawingData.GetCurrentRegion(), drawingData.GetPoints().GetDrawingPoint()))

  00036	8b cf		 mov	 ecx, edi
  00038	89 45 d4	 mov	 DWORD PTR _pDC$GSCopy$1$[ebp], eax
  0003b	8d 45 9c	 lea	 eax, DWORD PTR $T2[ebp]
  0003e	50		 push	 eax
  0003f	e8 00 00 00 00	 call	 ?GetPoints@COnePointDrawingData@@QBE?AVCPoints@@XZ ; COnePointDrawingData::GetPoints
  00044	8d 4d cc	 lea	 ecx, DWORD PTR $T4[ebp]
  00047	c7 45 fc 00 00
	00 00		 mov	 DWORD PTR __$EHRec$[ebp+8], 0
  0004e	51		 push	 ecx
  0004f	8b c8		 mov	 ecx, eax
  00051	e8 00 00 00 00	 call	 ?GetDrawingPoint@CPoints@@QBE?AVCPoint@@XZ ; CPoints::GetDrawingPoint
  00056	50		 push	 eax
  00057	8d 45 e0	 lea	 eax, DWORD PTR $T5[ebp]
  0005a	8b cf		 mov	 ecx, edi
  0005c	50		 push	 eax
  0005d	e8 00 00 00 00	 call	 ?GetCurrentRegion@COnePointDrawingData@@QBE?AVCRect@@XZ ; COnePointDrawingData::GetCurrentRegion
  00062	50		 push	 eax
  00063	8d 4e e8	 lea	 ecx, DWORD PTR [esi-24]
  00066	e8 00 00 00 00	 call	 ?IsDrawing@CVertLineDrawer@@MBE_NABVCRect@@ABVCPoint@@@Z ; CVertLineDrawer::IsDrawing
  0006b	8d 4d b0	 lea	 ecx, DWORD PTR $T2[ebp+20]
  0006e	c7 45 fc ff ff
	ff ff		 mov	 DWORD PTR __$EHRec$[ebp+8], -1
  00075	8a d8		 mov	 bl, al
  00077	ff 15 00 00 00
	00		 call	 DWORD PTR __imp_??1?$CStringT@DV?$StrTraitMFC_DLL@DV?$ChTraitsCRT@D@ATL@@@@@ATL@@QAE@XZ
  0007d	84 db		 test	 bl, bl
  0007f	0f 84 e4 00 00
	00		 je	 $LN1@DrawTextA

; 109  : 		return;
; 110  : 
; 111  : 	CTextShowPosition* pTextPosition = (CTextShowPosition *) drawingData.GetTextPosition();

  00085	8b cf		 mov	 ecx, edi
  00087	e8 00 00 00 00	 call	 ?GetTextPosition@CDrawingData@@QBEPAVCTextPosition@@XZ ; CDrawingData::GetTextPosition

; 112  : 	if(pTextPosition == NULL)

  0008c	85 c0		 test	 eax, eax
  0008e	0f 84 d5 00 00
	00		 je	 $LN1@DrawTextA

; 113  : 		return;
; 114  : 	if(!pTextPosition->IsShow())

  00094	8b c8		 mov	 ecx, eax
  00096	e8 00 00 00 00	 call	 ?IsShow@CTextShowPosition@@QBE_NXZ ; CTextShowPosition::IsShow
  0009b	84 c0		 test	 al, al
  0009d	0f 84 c6 00 00
	00		 je	 $LN1@DrawTextA

; 115  : 		return;
; 116  : 
; 117  : 	CString strIndex;

  000a3	8d 4d d8	 lea	 ecx, DWORD PTR _strIndex$[ebp]
  000a6	ff 15 00 00 00
	00		 call	 DWORD PTR __imp_??0?$CStringT@DV?$StrTraitMFC_DLL@DV?$ChTraitsCRT@D@ATL@@@@@ATL@@QAE@XZ
  000ac	8b 45 dc	 mov	 eax, DWORD PTR _this$GSCopy$1$[ebp]

; 118  : 	int nBalanceCoefficient;
; 119  : 	for( int i = 0; i < _GB_VALUE_COUNT; i++)

  000af	33 f6		 xor	 esi, esi
  000b1	c7 45 fc 01 00
	00 00		 mov	 DWORD PTR __$EHRec$[ebp+8], 1
  000b8	8d 58 c4	 lea	 ebx, DWORD PTR [eax-60]
  000bb	0f 1f 44 00 00	 npad	 5
$LL4@DrawTextA:

; 100  : 	if( nIndex < 0 || nIndex >= m_arrCoefficient.GetSize() )

  000c0	85 f6		 test	 esi, esi
  000c2	0f 88 8e 00 00
	00		 js	 $LN2@DrawTextA
  000c8	3b 70 d8	 cmp	 esi, DWORD PTR [eax-40]
  000cb	0f 8d 85 00 00
	00		 jge	 $LN2@DrawTextA

; 101  : 		return -1;
; 102  : 
; 103  : 	return (int)m_arrCoefficient.GetAt(nIndex);

  000d1	8b 40 d4	 mov	 eax, DWORD PTR [eax-44]
  000d4	8b 04 b0	 mov	 eax, DWORD PTR [eax+esi*4]

; 120  : 	{
; 121  : 		nBalanceCoefficient = GetCoefficient(i);
; 122  : 
; 123  : 		if( 0 < nBalanceCoefficient )

  000d7	85 c0		 test	 eax, eax
  000d9	7e 78		 jle	 SHORT $LN39@DrawTextA

; 124  : 		{
; 125  : 			strIndex.Format( _T("%d"), nBalanceCoefficient );

  000db	50		 push	 eax
  000dc	8d 45 d8	 lea	 eax, DWORD PTR _strIndex$[ebp]
  000df	68 00 00 00 00	 push	 OFFSET ??_C@_02DPKJAMEF@?$CFd@
  000e4	50		 push	 eax
  000e5	ff 15 00 00 00
	00		 call	 DWORD PTR __imp_?Format@?$CStringT@DV?$StrTraitMFC_DLL@DV?$ChTraitsCRT@D@ATL@@@@@ATL@@QAAXPBDZZ
  000eb	83 c4 0c	 add	 esp, 12			; 0000000cH

; 126  : 			if( drawingData.GetLineExtEnvironment().GetRightExt())	DrawText( pDC, drawingData, strIndex, i + 1);

  000ee	8d 45 e8	 lea	 eax, DWORD PTR $T6[ebp]
  000f1	8b cf		 mov	 ecx, edi
  000f3	50		 push	 eax
  000f4	e8 00 00 00 00	 call	 ?GetLineExtEnvironment@CDrawingData@@QBE?AVCLineExtEnvironment@@XZ ; CDrawingData::GetLineExtEnvironment
  000f9	8b c8		 mov	 ecx, eax
  000fb	e8 00 00 00 00	 call	 ?GetRightExt@CLineExtEnvironment@@QBEHXZ ; CLineExtEnvironment::GetRightExt
  00100	85 c0		 test	 eax, eax
  00102	74 1c		 je	 SHORT $LN9@DrawTextA
  00104	8d 46 01	 lea	 eax, DWORD PTR [esi+1]
  00107	50		 push	 eax
  00108	51		 push	 ecx
  00109	8d 45 d8	 lea	 eax, DWORD PTR _strIndex$[ebp]
  0010c	8b cc		 mov	 ecx, esp
  0010e	50		 push	 eax
  0010f	ff 15 00 00 00
	00		 call	 DWORD PTR __imp_??0?$CStringT@DV?$StrTraitMFC_DLL@DV?$ChTraitsCRT@D@ATL@@@@@ATL@@QAE@ABV01@@Z
  00115	57		 push	 edi
  00116	ff 75 d4	 push	 DWORD PTR _pDC$GSCopy$1$[ebp]
  00119	8b cb		 mov	 ecx, ebx
  0011b	e8 00 00 00 00	 call	 ?DrawTextA@CBalanceBasicDrawer@@IAEXPAVCDC@@ABVCOnePointDrawingData@@V?$CStringT@DV?$StrTraitMFC_DLL@DV?$ChTraitsCRT@D@ATL@@@@@ATL@@H@Z ; CBalanceBasicDrawer::DrawTextA
$LN9@DrawTextA:

; 127  : 			if( drawingData.GetLineExtEnvironment().GetLeftExt())	DrawText( pDC, drawingData, strIndex, -( i + 1));

  00120	8d 45 c4	 lea	 eax, DWORD PTR $T3[ebp]
  00123	8b cf		 mov	 ecx, edi
  00125	50		 push	 eax
  00126	e8 00 00 00 00	 call	 ?GetLineExtEnvironment@CDrawingData@@QBE?AVCLineExtEnvironment@@XZ ; CDrawingData::GetLineExtEnvironment
  0012b	8b c8		 mov	 ecx, eax
  0012d	e8 00 00 00 00	 call	 ?GetLeftExt@CLineExtEnvironment@@QBEHXZ ; CLineExtEnvironment::GetLeftExt
  00132	85 c0		 test	 eax, eax
  00134	74 1d		 je	 SHORT $LN39@DrawTextA
  00136	8b c6		 mov	 eax, esi
  00138	f7 d0		 not	 eax
  0013a	50		 push	 eax
  0013b	51		 push	 ecx
  0013c	8d 45 d8	 lea	 eax, DWORD PTR _strIndex$[ebp]
  0013f	8b cc		 mov	 ecx, esp
  00141	50		 push	 eax
  00142	ff 15 00 00 00
	00		 call	 DWORD PTR __imp_??0?$CStringT@DV?$StrTraitMFC_DLL@DV?$ChTraitsCRT@D@ATL@@@@@ATL@@QAE@ABV01@@Z
  00148	57		 push	 edi
  00149	ff 75 d4	 push	 DWORD PTR _pDC$GSCopy$1$[ebp]
  0014c	8b cb		 mov	 ecx, ebx
  0014e	e8 00 00 00 00	 call	 ?DrawTextA@CBalanceBasicDrawer@@IAEXPAVCDC@@ABVCOnePointDrawingData@@V?$CStringT@DV?$StrTraitMFC_DLL@DV?$ChTraitsCRT@D@ATL@@@@@ATL@@H@Z ; CBalanceBasicDrawer::DrawTextA
$LN39@DrawTextA:

; 118  : 	int nBalanceCoefficient;
; 119  : 	for( int i = 0; i < _GB_VALUE_COUNT; i++)

  00153	8b 45 dc	 mov	 eax, DWORD PTR _this$GSCopy$1$[ebp]
$LN2@DrawTextA:
  00156	46		 inc	 esi
  00157	83 fe 0c	 cmp	 esi, 12			; 0000000cH
  0015a	0f 8c 60 ff ff
	ff		 jl	 $LL4@DrawTextA

; 128  : 		}
; 129  : 	}
; 130  : 
; 131  : 	return;

  00160	8d 4d d8	 lea	 ecx, DWORD PTR _strIndex$[ebp]
  00163	ff 15 00 00 00
	00		 call	 DWORD PTR __imp_??1?$CStringT@DV?$StrTraitMFC_DLL@DV?$ChTraitsCRT@D@ATL@@@@@ATL@@QAE@XZ
$LN1@DrawTextA:

; 132  : }

  00169	8b 4d f4	 mov	 ecx, DWORD PTR __$EHRec$[ebp]
  0016c	64 89 0d 00 00
	00 00		 mov	 DWORD PTR fs:0, ecx
  00173	59		 pop	 ecx
  00174	5f		 pop	 edi
  00175	5e		 pop	 esi
  00176	5b		 pop	 ebx
  00177	8b 4d f0	 mov	 ecx, DWORD PTR __$ArrayPad$[ebp]
  0017a	33 cd		 xor	 ecx, ebp
  0017c	e8 00 00 00 00	 call	 @__security_check_cookie@4
  00181	8b e5		 mov	 esp, ebp
  00183	5d		 pop	 ebp
  00184	c2 08 00	 ret	 8
_TEXT	ENDS
;	COMDAT text$x
text$x	SEGMENT
__unwindfunclet$?DrawTextA@CBalanceBasicDrawer@@MAEXPAVCDC@@ABVCOnePointDrawingData@@@Z$0:
  00000	8d 4d 9c	 lea	 ecx, DWORD PTR $T2[ebp]
  00003	e9 00 00 00 00	 jmp	 ??1CPoints@@QAE@XZ
__unwindfunclet$?DrawTextA@CBalanceBasicDrawer@@MAEXPAVCDC@@ABVCOnePointDrawingData@@@Z$1:
  00008	8d 4d d8	 lea	 ecx, DWORD PTR _strIndex$[ebp]
  0000b	ff 25 00 00 00
	00		 jmp	 DWORD PTR __imp_??1?$CStringT@DV?$StrTraitMFC_DLL@DV?$ChTraitsCRT@D@ATL@@@@@ATL@@QAE@XZ
  00011	cc		 int	 3
  00012	cc		 int	 3
  00013	cc		 int	 3
  00014	cc		 int	 3
  00015	cc		 int	 3
__ehhandler$?DrawTextA@CBalanceBasicDrawer@@MAEXPAVCDC@@ABVCOnePointDrawingData@@@Z:
  00016	90		 npad	 1
  00017	90		 npad	 1
  00018	8b 54 24 08	 mov	 edx, DWORD PTR [esp+8]
  0001c	8d 42 0c	 lea	 eax, DWORD PTR [edx+12]
  0001f	8b 4a 98	 mov	 ecx, DWORD PTR [edx-104]
  00022	33 c8		 xor	 ecx, eax
  00024	e8 00 00 00 00	 call	 @__security_check_cookie@4
  00029	8b 4a fc	 mov	 ecx, DWORD PTR [edx-4]
  0002c	33 c8		 xor	 ecx, eax
  0002e	e8 00 00 00 00	 call	 @__security_check_cookie@4
  00033	b8 00 00 00 00	 mov	 eax, OFFSET __ehfuncinfo$?DrawTextA@CBalanceBasicDrawer@@MAEXPAVCDC@@ABVCOnePointDrawingData@@@Z
  00038	e9 00 00 00 00	 jmp	 ___CxxFrameHandler3
text$x	ENDS
?DrawTextA@CBalanceBasicDrawer@@MAEXPAVCDC@@ABVCOnePointDrawingData@@@Z ENDP ; CBalanceBasicDrawer::DrawTextA
; Function compile flags: /Ogtp
; File D:\git\src\IBK\IBK_DRFN\ProjSrc\SrcChartEx\ChartAddIn\ChartAnalysisToolAddIn\AnalysisTool\BalanceBasicDrawer.cpp
; File C:\Program Files (x86)\Microsoft Visual Studio\2019\Community\VC\Tools\MSVC\14.29.30133\atlmfc\include\atlsimpstr.h
; File D:\git\src\IBK\IBK_DRFN\ProjSrc\SrcChartEx\ChartAddIn\ChartAnalysisToolAddIn\AnalysisTool\BalanceBasicDrawer.cpp
; File C:\Program Files (x86)\Microsoft Visual Studio\2019\Community\VC\Tools\MSVC\14.29.30133\atlmfc\include\cstringt.h
; File D:\git\src\IBK\IBK_DRFN\ProjSrc\SrcChartEx\ChartAddIn\ChartAnalysisToolAddIn\AnalysisTool\BalanceBasicDrawer.cpp
; File C:\Program Files (x86)\Microsoft Visual Studio\2019\Community\VC\Tools\MSVC\14.29.30133\atlmfc\include\afxcoll.inl
; File D:\git\src\IBK\IBK_DRFN\ProjSrc\SrcChartEx\ChartAddIn\ChartAnalysisToolAddIn\AnalysisTool\BalanceBasicDrawer.cpp
; File C:\Program Files (x86)\Microsoft Visual Studio\2019\Community\VC\Tools\MSVC\14.29.30133\atlmfc\include\atlsimpstr.h
; File D:\git\src\IBK\IBK_DRFN\ProjSrc\SrcChartEx\ChartAddIn\ChartAnalysisToolAddIn\AnalysisTool\BalanceBasicDrawer.cpp
; File C:\Program Files (x86)\Microsoft Visual Studio\2019\Community\VC\Tools\MSVC\14.29.30133\atlmfc\include\atlsimpstr.h
; File D:\git\src\IBK\IBK_DRFN\ProjSrc\SrcChartEx\ChartAddIn\ChartAnalysisToolAddIn\AnalysisTool\BalanceBasicDrawer.cpp
; File C:\Program Files (x86)\Microsoft Visual Studio\2019\Community\VC\Tools\MSVC\14.29.30133\atlmfc\include\atlsimpstr.h
; File D:\git\src\IBK\IBK_DRFN\ProjSrc\SrcChartEx\ChartAddIn\ChartAnalysisToolAddIn\AnalysisTool\BalanceBasicDrawer.cpp
; File C:\Program Files (x86)\Microsoft Visual Studio\2019\Community\VC\Tools\MSVC\14.29.30133\atlmfc\include\atlsimpstr.h
; File D:\git\src\IBK\IBK_DRFN\ProjSrc\SrcChartEx\ChartAddIn\ChartAnalysisToolAddIn\AnalysisTool\BalanceBasicDrawer.cpp
; File C:\Program Files (x86)\Microsoft Visual Studio\2019\Community\VC\Tools\MSVC\14.29.30133\atlmfc\include\afxcoll.inl
; File C:\Program Files (x86)\Microsoft Visual Studio\2019\Community\VC\Tools\MSVC\14.29.30133\atlmfc\include\atlsimpstr.h
; File D:\git\src\IBK\IBK_DRFN\ProjSrc\SrcChartEx\ChartAddIn\ChartAnalysisToolAddIn\AnalysisTool\BalanceBasicDrawer.cpp
;	COMDAT ?DrawShape@CBalanceBasicDrawer@@MAEXPAVCDC@@ABVCOnePointDrawingData@@ABVCDisplayData@@ABVCPoint@@_N@Z
_TEXT	SEGMENT
$T2 = -76						; size = 40
$T3 = -36						; size = 8
$T4 = -36						; size = 8
$T5 = -32						; size = 4
$T6 = -28						; size = 4
_strR$7 = -24						; size = 4
_strCoefficient$ = -20					; size = 4
_strBuf$8 = -16						; size = 4
__$EHRec$ = -12						; size = 12
_pDC$ = 8						; size = 4
_drawingData$ = 12					; size = 4
_displayData$ = 16					; size = 4
_point$ = 20						; size = 4
___formal$ = 24						; size = 1
?DrawShape@CBalanceBasicDrawer@@MAEXPAVCDC@@ABVCOnePointDrawingData@@ABVCDisplayData@@ABVCPoint@@_N@Z PROC ; CBalanceBasicDrawer::DrawShape, COMDAT
; _this$ = ecx

; 16   : {

  00000	55		 push	 ebp
  00001	8b ec		 mov	 ebp, esp
  00003	6a ff		 push	 -1
  00005	68 00 00 00 00	 push	 __ehhandler$?DrawShape@CBalanceBasicDrawer@@MAEXPAVCDC@@ABVCOnePointDrawingData@@ABVCDisplayData@@ABVCPoint@@_N@Z
  0000a	64 a1 00 00 00
	00		 mov	 eax, DWORD PTR fs:0
  00010	50		 push	 eax
  00011	83 ec 40	 sub	 esp, 64			; 00000040H
  00014	53		 push	 ebx
  00015	56		 push	 esi
  00016	57		 push	 edi
  00017	a1 00 00 00 00	 mov	 eax, DWORD PTR ___security_cookie
  0001c	33 c5		 xor	 eax, ebp
  0001e	50		 push	 eax
  0001f	8d 45 f4	 lea	 eax, DWORD PTR __$EHRec$[ebp]
  00022	64 a3 00 00 00
	00		 mov	 DWORD PTR fs:0, eax
  00028	8b d9		 mov	 ebx, ecx

; 17   : 	CString strCoefficient = drawingData.GetDataType().GetExtData();

  0002a	8b 7d 0c	 mov	 edi, DWORD PTR _drawingData$[ebp]
  0002d	8d 45 b4	 lea	 eax, DWORD PTR $T2[ebp]
  00030	50		 push	 eax
  00031	8b cf		 mov	 ecx, edi
  00033	e8 00 00 00 00	 call	 ?GetDataType@CDrawingData@@QBE?AVCDataTypeEnvironment@@XZ ; CDrawingData::GetDataType
  00038	8d 4d ec	 lea	 ecx, DWORD PTR _strCoefficient$[ebp]
  0003b	c7 45 fc 00 00
	00 00		 mov	 DWORD PTR __$EHRec$[ebp+8], 0
  00042	51		 push	 ecx
  00043	8b c8		 mov	 ecx, eax
  00045	e8 00 00 00 00	 call	 ?GetExtData@CDataTypeEnvironment@@QBE?AV?$CStringT@DV?$StrTraitMFC_DLL@DV?$ChTraitsCRT@D@ATL@@@@@ATL@@XZ ; CDataTypeEnvironment::GetExtData
  0004a	8d 4d cc	 lea	 ecx, DWORD PTR $T2[ebp+24]
  0004d	c6 45 fc 02	 mov	 BYTE PTR __$EHRec$[ebp+8], 2
  00051	ff 15 00 00 00
	00		 call	 DWORD PTR __imp_??1?$CStringT@DV?$StrTraitMFC_DLL@DV?$ChTraitsCRT@D@ATL@@@@@ATL@@QAE@XZ
  00057	8d 4d c8	 lea	 ecx, DWORD PTR $T2[ebp+20]
  0005a	ff 15 00 00 00
	00		 call	 DWORD PTR __imp_??1?$CStringT@DV?$StrTraitMFC_DLL@DV?$ChTraitsCRT@D@ATL@@@@@ATL@@QAE@XZ
  00060	8d 4d c4	 lea	 ecx, DWORD PTR $T2[ebp+16]
  00063	ff 15 00 00 00
	00		 call	 DWORD PTR __imp_??1?$CStringT@DV?$StrTraitMFC_DLL@DV?$ChTraitsCRT@D@ATL@@@@@ATL@@QAE@XZ
; File C:\Program Files (x86)\Microsoft Visual Studio\2019\Community\VC\Tools\MSVC\14.29.30133\atlmfc\include\atlsimpstr.h

; 519  : 		return( GetData()->nDataLength );

  00069	8b 45 ec	 mov	 eax, DWORD PTR _strCoefficient$[ebp]

; 533  : 		return( GetLength() == 0 );

  0006c	83 78 f4 00	 cmp	 DWORD PTR [eax-12], 0
; File D:\git\src\IBK\IBK_DRFN\ProjSrc\SrcChartEx\ChartAddIn\ChartAnalysisToolAddIn\AnalysisTool\BalanceBasicDrawer.cpp

; 18   : 	if( strCoefficient.IsEmpty() )

  00070	75 0e		 jne	 SHORT $LN4@DrawShape

; 19   : 		strCoefficient = "9,17,26,33,42,65,76,129,172,257,0,0";

  00072	68 00 00 00 00	 push	 OFFSET ??_C@_0CE@FPILBKGA@9?017?026?033?042?065?076?0129?0172?0257@
  00077	8d 4d ec	 lea	 ecx, DWORD PTR _strCoefficient$[ebp]
  0007a	ff 15 00 00 00
	00		 call	 DWORD PTR __imp_??4?$CStringT@DV?$StrTraitMFC_DLL@DV?$ChTraitsCRT@D@ATL@@@@@ATL@@QAEAAV01@PBD@Z
$LN4@DrawShape:
; File C:\Program Files (x86)\Microsoft Visual Studio\2019\Community\VC\Tools\MSVC\14.29.30133\atlmfc\include\cstringt.h

; 2560 : 		return( str1.Compare( str2 ) != 0 );

  00080	ff 73 e4	 push	 DWORD PTR [ebx-28]
  00083	8d 4d ec	 lea	 ecx, DWORD PTR _strCoefficient$[ebp]
  00086	ff 15 00 00 00
	00		 call	 DWORD PTR __imp_?Compare@?$CStringT@DV?$StrTraitMFC_DLL@DV?$ChTraitsCRT@D@ATL@@@@@ATL@@QBEHPBD@Z
  0008c	85 c0		 test	 eax, eax
; File D:\git\src\IBK\IBK_DRFN\ProjSrc\SrcChartEx\ChartAddIn\ChartAnalysisToolAddIn\AnalysisTool\BalanceBasicDrawer.cpp

; 22   : 	if( strCoefficient != m_strCoefficient )	

  0008e	0f 84 08 01 00
	00		 je	 $LN5@DrawShape

; 23   : 	{
; 24   : 		m_strCoefficient = strCoefficient;

  00094	8d 45 ec	 lea	 eax, DWORD PTR _strCoefficient$[ebp]
  00097	50		 push	 eax
  00098	8d 4b e4	 lea	 ecx, DWORD PTR [ebx-28]
  0009b	ff 15 00 00 00
	00		 call	 DWORD PTR __imp_??4?$CStringT@DV?$StrTraitMFC_DLL@DV?$ChTraitsCRT@D@ATL@@@@@ATL@@QAEAAV01@ABV01@@Z
; File C:\Program Files (x86)\Microsoft Visual Studio\2019\Community\VC\Tools\MSVC\14.29.30133\atlmfc\include\afxcoll.inl

; 114  : 	{ SetSize(0); }

  000a1	6a ff		 push	 -1
  000a3	6a 00		 push	 0
  000a5	8d 4b d0	 lea	 ecx, DWORD PTR [ebx-48]
  000a8	e8 00 00 00 00	 call	 ?SetSize@CDWordArray@@QAEXHH@Z ; CDWordArray::SetSize
; File D:\git\src\IBK\IBK_DRFN\ProjSrc\SrcChartEx\ChartAddIn\ChartAnalysisToolAddIn\AnalysisTool\BalanceBasicDrawer.cpp

; 27   : 		CString strBuf = strCoefficient;

  000ad	8d 45 ec	 lea	 eax, DWORD PTR _strCoefficient$[ebp]
  000b0	50		 push	 eax
  000b1	8d 4d f0	 lea	 ecx, DWORD PTR _strBuf$8[ebp]
  000b4	ff 15 00 00 00
	00		 call	 DWORD PTR __imp_??0?$CStringT@DV?$StrTraitMFC_DLL@DV?$ChTraitsCRT@D@ATL@@@@@ATL@@QAE@ABV01@@Z

; 28   : 		CString strR("");

  000ba	68 00 00 00 00	 push	 OFFSET ??_C@_00CNPNBAHC@@
  000bf	8d 4d e8	 lea	 ecx, DWORD PTR _strR$7[ebp]
  000c2	c6 45 fc 03	 mov	 BYTE PTR __$EHRec$[ebp+8], 3
  000c6	ff 15 00 00 00
	00		 call	 DWORD PTR __imp_??0?$CStringT@DV?$StrTraitMFC_DLL@DV?$ChTraitsCRT@D@ATL@@@@@ATL@@QAE@PBD@Z
; File C:\Program Files (x86)\Microsoft Visual Studio\2019\Community\VC\Tools\MSVC\14.29.30133\atlmfc\include\atlsimpstr.h

; 519  : 		return( GetData()->nDataLength );

  000cc	8b 45 f0	 mov	 eax, DWORD PTR _strBuf$8[ebp]
; File D:\git\src\IBK\IBK_DRFN\ProjSrc\SrcChartEx\ChartAddIn\ChartAnalysisToolAddIn\AnalysisTool\BalanceBasicDrawer.cpp

; 28   : 		CString strR("");

  000cf	c6 45 fc 04	 mov	 BYTE PTR __$EHRec$[ebp+8], 4
; File C:\Program Files (x86)\Microsoft Visual Studio\2019\Community\VC\Tools\MSVC\14.29.30133\atlmfc\include\atlsimpstr.h

; 533  : 		return( GetLength() == 0 );

  000d3	83 78 f4 00	 cmp	 DWORD PTR [eax-12], 0
; File D:\git\src\IBK\IBK_DRFN\ProjSrc\SrcChartEx\ChartAddIn\ChartAnalysisToolAddIn\AnalysisTool\BalanceBasicDrawer.cpp

; 29   : 		while( !strBuf.IsEmpty() )

  000d7	0f 84 a9 00 00
	00		 je	 $LN53@DrawShape
  000dd	8b 3d 00 00 00
	00		 mov	 edi, DWORD PTR __imp__atoi
  000e3	0f 1f 40 00 66
	0f 1f 84 00 00
	00 00 00	 npad	 13
$LL2@DrawShape:

; 30   : 		{
; 31   : 			strR = CDataConversion::GetStringData(strBuf, ",");

  000f0	68 00 00 00 00	 push	 OFFSET ??_C@_01IHBHIGKO@?0@
  000f5	8d 4d e4	 lea	 ecx, DWORD PTR $T6[ebp]
  000f8	ff 15 00 00 00
	00		 call	 DWORD PTR __imp_??0?$CStringT@DV?$StrTraitMFC_DLL@DV?$ChTraitsCRT@D@ATL@@@@@ATL@@QAE@PBD@Z
  000fe	6a 01		 push	 1
  00100	8d 45 e4	 lea	 eax, DWORD PTR $T6[ebp]
  00103	c6 45 fc 05	 mov	 BYTE PTR __$EHRec$[ebp+8], 5
  00107	50		 push	 eax
  00108	8d 45 f0	 lea	 eax, DWORD PTR _strBuf$8[ebp]
  0010b	50		 push	 eax
  0010c	8d 45 e0	 lea	 eax, DWORD PTR $T5[ebp]
  0010f	50		 push	 eax
  00110	e8 00 00 00 00	 call	 ?GetStringData@CDataConversion@@SA?AV?$CStringT@DV?$StrTraitMFC_DLL@DV?$ChTraitsCRT@D@ATL@@@@@ATL@@AAV23@ABV23@_N@Z ; CDataConversion::GetStringData
  00115	83 c4 10	 add	 esp, 16			; 00000010H
  00118	50		 push	 eax
  00119	8d 4d e8	 lea	 ecx, DWORD PTR _strR$7[ebp]
  0011c	c6 45 fc 06	 mov	 BYTE PTR __$EHRec$[ebp+8], 6
  00120	ff 15 00 00 00
	00		 call	 DWORD PTR __imp_??4?$CStringT@DV?$StrTraitMFC_DLL@DV?$ChTraitsCRT@D@ATL@@@@@ATL@@QAEAAV01@ABV01@@Z
  00126	8d 4d e0	 lea	 ecx, DWORD PTR $T5[ebp]
  00129	ff 15 00 00 00
	00		 call	 DWORD PTR __imp_??1?$CStringT@DV?$StrTraitMFC_DLL@DV?$ChTraitsCRT@D@ATL@@@@@ATL@@QAE@XZ
  0012f	8d 4d e4	 lea	 ecx, DWORD PTR $T6[ebp]
  00132	c6 45 fc 04	 mov	 BYTE PTR __$EHRec$[ebp+8], 4
  00136	ff 15 00 00 00
	00		 call	 DWORD PTR __imp_??1?$CStringT@DV?$StrTraitMFC_DLL@DV?$ChTraitsCRT@D@ATL@@@@@ATL@@QAE@XZ
; File C:\Program Files (x86)\Microsoft Visual Studio\2019\Community\VC\Tools\MSVC\14.29.30133\atlmfc\include\atlsimpstr.h

; 519  : 		return( GetData()->nDataLength );

  0013c	8b 45 e8	 mov	 eax, DWORD PTR _strR$7[ebp]

; 533  : 		return( GetLength() == 0 );

  0013f	83 78 f4 00	 cmp	 DWORD PTR [eax-12], 0
; File D:\git\src\IBK\IBK_DRFN\ProjSrc\SrcChartEx\ChartAddIn\ChartAnalysisToolAddIn\AnalysisTool\BalanceBasicDrawer.cpp

; 32   : 			if( strR.IsEmpty() )

  00143	75 1f		 jne	 SHORT $LN60@DrawShape

; 33   : 			{
; 34   : 				strR = strBuf;

  00145	8d 45 f0	 lea	 eax, DWORD PTR _strBuf$8[ebp]
  00148	50		 push	 eax
  00149	8d 4d e8	 lea	 ecx, DWORD PTR _strR$7[ebp]
  0014c	ff 15 00 00 00
	00		 call	 DWORD PTR __imp_??4?$CStringT@DV?$StrTraitMFC_DLL@DV?$ChTraitsCRT@D@ATL@@@@@ATL@@QAEAAV01@ABV01@@Z

; 35   : 				strBuf.Empty();

  00152	8d 4d f0	 lea	 ecx, DWORD PTR _strBuf$8[ebp]
  00155	ff 15 00 00 00
	00		 call	 DWORD PTR __imp_?Empty@?$CSimpleStringT@D$00@ATL@@QAEXXZ
  0015b	8b 45 e8	 mov	 eax, DWORD PTR _strR$7[ebp]
; File C:\Program Files (x86)\Microsoft Visual Studio\2019\Community\VC\Tools\MSVC\14.29.30133\atlmfc\include\atlsimpstr.h

; 533  : 		return( GetLength() == 0 );

  0015e	83 78 f4 00	 cmp	 DWORD PTR [eax-12], 0
; File D:\git\src\IBK\IBK_DRFN\ProjSrc\SrcChartEx\ChartAddIn\ChartAnalysisToolAddIn\AnalysisTool\BalanceBasicDrawer.cpp

; 37   : 			if( strR.IsEmpty() )

  00162	74 1f		 je	 SHORT $LN57@DrawShape
$LN60@DrawShape:

; 38   : 				break;
; 39   : 
; 40   : 			m_arrCoefficient.Add(atoi(strR));

  00164	50		 push	 eax
  00165	ff d7		 call	 edi
  00167	83 c4 04	 add	 esp, 4
; File C:\Program Files (x86)\Microsoft Visual Studio\2019\Community\VC\Tools\MSVC\14.29.30133\atlmfc\include\afxcoll.inl

; 137  : 		SetAtGrow(nIndex, newElement);

  0016a	8d 4b d0	 lea	 ecx, DWORD PTR [ebx-48]
  0016d	50		 push	 eax
  0016e	ff 73 d8	 push	 DWORD PTR [ebx-40]
  00171	e8 00 00 00 00	 call	 ?SetAtGrow@CDWordArray@@QAEXHK@Z ; CDWordArray::SetAtGrow
; File C:\Program Files (x86)\Microsoft Visual Studio\2019\Community\VC\Tools\MSVC\14.29.30133\atlmfc\include\atlsimpstr.h

; 519  : 		return( GetData()->nDataLength );

  00176	8b 45 f0	 mov	 eax, DWORD PTR _strBuf$8[ebp]

; 533  : 		return( GetLength() == 0 );

  00179	83 78 f4 00	 cmp	 DWORD PTR [eax-12], 0
; File D:\git\src\IBK\IBK_DRFN\ProjSrc\SrcChartEx\ChartAddIn\ChartAnalysisToolAddIn\AnalysisTool\BalanceBasicDrawer.cpp

; 29   : 		while( !strBuf.IsEmpty() )

  0017d	0f 85 6d ff ff
	ff		 jne	 $LL2@DrawShape
$LN57@DrawShape:
  00183	8b 7d 0c	 mov	 edi, DWORD PTR _drawingData$[ebp]
$LN53@DrawShape:

; 41   : 		}
; 42   : 	}

  00186	8d 4d e8	 lea	 ecx, DWORD PTR _strR$7[ebp]
  00189	ff 15 00 00 00
	00		 call	 DWORD PTR __imp_??1?$CStringT@DV?$StrTraitMFC_DLL@DV?$ChTraitsCRT@D@ATL@@@@@ATL@@QAE@XZ
  0018f	8d 4d f0	 lea	 ecx, DWORD PTR _strBuf$8[ebp]
  00192	c6 45 fc 02	 mov	 BYTE PTR __$EHRec$[ebp+8], 2
  00196	ff 15 00 00 00
	00		 call	 DWORD PTR __imp_??1?$CStringT@DV?$StrTraitMFC_DLL@DV?$ChTraitsCRT@D@ATL@@@@@ATL@@QAE@XZ
$LN5@DrawShape:

; 43   : 
; 44   : 	BOOL bLeftLineExt = (BOOL)drawingData.GetLineExtEnvironment().GetLeftExt();

  0019c	8d 45 dc	 lea	 eax, DWORD PTR $T4[ebp]
  0019f	8b cf		 mov	 ecx, edi
  001a1	50		 push	 eax
  001a2	e8 00 00 00 00	 call	 ?GetLineExtEnvironment@CDrawingData@@QBE?AVCLineExtEnvironment@@XZ ; CDrawingData::GetLineExtEnvironment
  001a7	8b c8		 mov	 ecx, eax
  001a9	e8 00 00 00 00	 call	 ?GetLeftExt@CLineExtEnvironment@@QBEHXZ ; CLineExtEnvironment::GetLeftExt
  001ae	8b f0		 mov	 esi, eax

; 45   : 	BOOL bRightLineExt = (BOOL)drawingData.GetLineExtEnvironment().GetRightExt();

  001b0	8b cf		 mov	 ecx, edi
  001b2	8d 45 dc	 lea	 eax, DWORD PTR $T3[ebp]
  001b5	50		 push	 eax
  001b6	e8 00 00 00 00	 call	 ?GetLineExtEnvironment@CDrawingData@@QBE?AVCLineExtEnvironment@@XZ ; CDrawingData::GetLineExtEnvironment
  001bb	8b c8		 mov	 ecx, eax
  001bd	e8 00 00 00 00	 call	 ?GetRightExt@CLineExtEnvironment@@QBEHXZ ; CLineExtEnvironment::GetRightExt

; 46   : 
; 47   : 	//  POINT  .
; 48   : 	DrawFigure_Data(pDC, displayData, point, bLeftLineExt, bRightLineExt);

  001c2	50		 push	 eax
  001c3	56		 push	 esi
  001c4	ff 75 14	 push	 DWORD PTR _point$[ebp]
  001c7	8d 4b c4	 lea	 ecx, DWORD PTR [ebx-60]
  001ca	ff 75 10	 push	 DWORD PTR _displayData$[ebp]
  001cd	ff 75 08	 push	 DWORD PTR _pDC$[ebp]
  001d0	e8 00 00 00 00	 call	 ?DrawFigure_Data@CBalanceBasicDrawer@@AAEXPAVCDC@@ABVCDisplayData@@ABVCPoint@@HH@Z ; CBalanceBasicDrawer::DrawFigure_Data

; 49   : }

  001d5	8d 4d ec	 lea	 ecx, DWORD PTR _strCoefficient$[ebp]
  001d8	ff 15 00 00 00
	00		 call	 DWORD PTR __imp_??1?$CStringT@DV?$StrTraitMFC_DLL@DV?$ChTraitsCRT@D@ATL@@@@@ATL@@QAE@XZ
  001de	8b 4d f4	 mov	 ecx, DWORD PTR __$EHRec$[ebp]
  001e1	64 89 0d 00 00
	00 00		 mov	 DWORD PTR fs:0, ecx
  001e8	59		 pop	 ecx
  001e9	5f		 pop	 edi
  001ea	5e		 pop	 esi
  001eb	5b		 pop	 ebx
  001ec	8b e5		 mov	 esp, ebp
  001ee	5d		 pop	 ebp
  001ef	c2 14 00	 ret	 20			; 00000014H
_TEXT	ENDS
;	COMDAT text$x
text$x	SEGMENT
__unwindfunclet$?DrawShape@CBalanceBasicDrawer@@MAEXPAVCDC@@ABVCOnePointDrawingData@@ABVCDisplayData@@ABVCPoint@@_N@Z$0:
  00000	8d 4d b4	 lea	 ecx, DWORD PTR $T2[ebp]
  00003	e9 00 00 00 00	 jmp	 ??1CDataTypeEnvironment@@QAE@XZ
__unwindfunclet$?DrawShape@CBalanceBasicDrawer@@MAEXPAVCDC@@ABVCOnePointDrawingData@@ABVCDisplayData@@ABVCPoint@@_N@Z$1:
  00008	8d 4d ec	 lea	 ecx, DWORD PTR _strCoefficient$[ebp]
  0000b	ff 25 00 00 00
	00		 jmp	 DWORD PTR __imp_??1?$CStringT@DV?$StrTraitMFC_DLL@DV?$ChTraitsCRT@D@ATL@@@@@ATL@@QAE@XZ
__unwindfunclet$?DrawShape@CBalanceBasicDrawer@@MAEXPAVCDC@@ABVCOnePointDrawingData@@ABVCDisplayData@@ABVCPoint@@_N@Z$2:
  00011	8d 4d f0	 lea	 ecx, DWORD PTR _strBuf$8[ebp]
  00014	ff 25 00 00 00
	00		 jmp	 DWORD PTR __imp_??1?$CStringT@DV?$StrTraitMFC_DLL@DV?$ChTraitsCRT@D@ATL@@@@@ATL@@QAE@XZ
__unwindfunclet$?DrawShape@CBalanceBasicDrawer@@MAEXPAVCDC@@ABVCOnePointDrawingData@@ABVCDisplayData@@ABVCPoint@@_N@Z$3:
  0001a	8d 4d e8	 lea	 ecx, DWORD PTR _strR$7[ebp]
  0001d	ff 25 00 00 00
	00		 jmp	 DWORD PTR __imp_??1?$CStringT@DV?$StrTraitMFC_DLL@DV?$ChTraitsCRT@D@ATL@@@@@ATL@@QAE@XZ
__unwindfunclet$?DrawShape@CBalanceBasicDrawer@@MAEXPAVCDC@@ABVCOnePointDrawingData@@ABVCDisplayData@@ABVCPoint@@_N@Z$4:
  00023	8d 4d e4	 lea	 ecx, DWORD PTR $T6[ebp]
  00026	ff 25 00 00 00
	00		 jmp	 DWORD PTR __imp_??1?$CStringT@DV?$StrTraitMFC_DLL@DV?$ChTraitsCRT@D@ATL@@@@@ATL@@QAE@XZ
__unwindfunclet$?DrawShape@CBalanceBasicDrawer@@MAEXPAVCDC@@ABVCOnePointDrawingData@@ABVCDisplayData@@ABVCPoint@@_N@Z$5:
  0002c	8d 4d e0	 lea	 ecx, DWORD PTR $T5[ebp]
  0002f	ff 25 00 00 00
	00		 jmp	 DWORD PTR __imp_??1?$CStringT@DV?$StrTraitMFC_DLL@DV?$ChTraitsCRT@D@ATL@@@@@ATL@@QAE@XZ
  00035	cc		 int	 3
  00036	cc		 int	 3
  00037	cc		 int	 3
  00038	cc		 int	 3
  00039	cc		 int	 3
__ehhandler$?DrawShape@CBalanceBasicDrawer@@MAEXPAVCDC@@ABVCOnePointDrawingData@@ABVCDisplayData@@ABVCPoint@@_N@Z:
  0003a	90		 npad	 1
  0003b	90		 npad	 1
  0003c	8b 54 24 08	 mov	 edx, DWORD PTR [esp+8]
  00040	8d 42 0c	 lea	 eax, DWORD PTR [edx+12]
  00043	8b 4a b0	 mov	 ecx, DWORD PTR [edx-80]
  00046	33 c8		 xor	 ecx, eax
  00048	e8 00 00 00 00	 call	 @__security_check_cookie@4
  0004d	b8 00 00 00 00	 mov	 eax, OFFSET __ehfuncinfo$?DrawShape@CBalanceBasicDrawer@@MAEXPAVCDC@@ABVCOnePointDrawingData@@ABVCDisplayData@@ABVCPoint@@_N@Z
  00052	e9 00 00 00 00	 jmp	 ___CxxFrameHandler3
text$x	ENDS
?DrawShape@CBalanceBasicDrawer@@MAEXPAVCDC@@ABVCOnePointDrawingData@@ABVCDisplayData@@ABVCPoint@@_N@Z ENDP ; CBalanceBasicDrawer::DrawShape
; Function compile flags: /Ogtp
; File D:\git\src\IBK\IBK_DRFN\ProjSrc\SrcChartEx\ChartAddIn\ChartAnalysisToolAddIn\AnalysisTool\BalanceBasicDrawer.cpp
;	COMDAT ?IsDrawing@CBalanceBasicDrawer@@MBE_NABVCRect@@ABVCPoint@@@Z
_TEXT	SEGMENT
_region$ = 8						; size = 4
_point$ = 12						; size = 4
?IsDrawing@CBalanceBasicDrawer@@MBE_NABVCRect@@ABVCPoint@@@Z PROC ; CBalanceBasicDrawer::IsDrawing, COMDAT
; _this$ = ecx

; 12   : 	return true;

  00000	b0 01		 mov	 al, 1

; 13   : }

  00002	c2 08 00	 ret	 8
?IsDrawing@CBalanceBasicDrawer@@MBE_NABVCRect@@ABVCPoint@@@Z ENDP ; CBalanceBasicDrawer::IsDrawing
_TEXT	ENDS
; Function compile flags: /Ogtp
; File D:\git\src\IBK\IBK_DRFN\ProjSrc\SrcChartEx\ChartAddIn\ChartAnalysisToolAddIn\AnalysisTool\BalanceBasicDrawer.cpp
; File C:\Program Files (x86)\Microsoft Visual Studio\2019\Community\VC\Tools\MSVC\14.29.30133\atlmfc\include\atltypes.h
; File D:\git\src\IBK\IBK_DRFN\ProjSrc\SrcChartEx\ChartAddIn\ChartAnalysisToolAddIn\AnalysisTool\BalanceBasicDrawer.cpp
; File C:\Program Files (x86)\Microsoft Visual Studio\2019\Community\VC\Tools\MSVC\14.29.30133\atlmfc\include\atltypes.h
; File D:\git\src\IBK\IBK_DRFN\ProjSrc\SrcChartEx\ChartAddIn\ChartAnalysisToolAddIn\AnalysisTool\BalanceBasicDrawer.cpp
;	COMDAT ?GetPoint@CBalanceBasicDrawer@@QBE_N_NABVCRegion@@ABVCPoint@@HAAV3@@Z
_TEXT	SEGMENT
_p_bIsRelativePointType$ = 8				; size = 1
_region$ = 12						; size = 4
_startPoint$ = 16					; size = 4
_nIndex$ = 20						; size = 4
_gbLinePoint$ = 24					; size = 4
?GetPoint@CBalanceBasicDrawer@@QBE_N_NABVCRegion@@ABVCPoint@@HAAV3@@Z PROC ; CBalanceBasicDrawer::GetPoint, COMDAT
; _this$ = ecx

; 154  : {

  00000	55		 push	 ebp
  00001	8b ec		 mov	 ebp, esp
  00003	83 ec 08	 sub	 esp, 8
  00006	53		 push	 ebx
  00007	56		 push	 esi

; 155  : 	if( nIndex < -_GB_VALUE_COUNT || _GB_VALUE_COUNT < nIndex || 0 == nIndex ) return false;

  00008	8b 75 14	 mov	 esi, DWORD PTR _nIndex$[ebp]
  0000b	57		 push	 edi
  0000c	8b f9		 mov	 edi, ecx
  0000e	8d 46 0c	 lea	 eax, DWORD PTR [esi+12]
  00011	83 f8 18	 cmp	 eax, 24			; 00000018H
  00014	0f 87 95 00 00
	00		 ja	 $LN3@GetPoint
  0001a	85 f6		 test	 esi, esi
  0001c	0f 84 8d 00 00
	00		 je	 $LN3@GetPoint

; 156  : 	
; 157  : 	int nDirection = nIndex / abs( nIndex);

  00022	8b c6		 mov	 eax, esi
  00024	99		 cdq
  00025	8b c8		 mov	 ecx, eax
  00027	8b c6		 mov	 eax, esi
  00029	33 ca		 xor	 ecx, edx
  0002b	2b ca		 sub	 ecx, edx
  0002d	99		 cdq
  0002e	f7 f9		 idiv	 ecx
  00030	8b d0		 mov	 edx, eax

; 158  : 	int nI = nIndex * nDirection - 1;

  00032	8b ca		 mov	 ecx, edx
  00034	0f af ce	 imul	 ecx, esi
  00037	83 e9 01	 sub	 ecx, 1

; 100  : 	if( nIndex < 0 || nIndex >= m_arrCoefficient.GetSize() )

  0003a	78 73		 js	 SHORT $LN3@GetPoint
  0003c	3b 4f 14	 cmp	 ecx, DWORD PTR [edi+20]
  0003f	7d 6e		 jge	 SHORT $LN3@GetPoint

; 101  : 		return -1;
; 102  : 
; 103  : 	return (int)m_arrCoefficient.GetAt(nIndex);

  00041	8b 47 10	 mov	 eax, DWORD PTR [edi+16]
  00044	8b 1c 88	 mov	 ebx, DWORD PTR [eax+ecx*4]

; 159  : 	int nBalanceCoefficient = GetCoefficient(nI);
; 160  : 	if( nBalanceCoefficient < 1) return false;

  00047	83 fb 01	 cmp	 ebx, 1
  0004a	7c 63		 jl	 SHORT $LN3@GetPoint

; 161  : 	
; 162  : 	CPoint point = startPoint;

  0004c	8b 45 10	 mov	 eax, DWORD PTR _startPoint$[ebp]
  0004f	4b		 dec	 ebx
  00050	0f af da	 imul	 ebx, edx

; 163  : 	
; 164  : 	if( p_bIsRelativePointType)

  00053	80 7d 08 00	 cmp	 BYTE PTR _p_bIsRelativePointType$[ebp], 0
  00057	8b 08		 mov	 ecx, DWORD PTR [eax]
  00059	8b 70 04	 mov	 esi, DWORD PTR [eax+4]
  0005c	74 3c		 je	 SHORT $LN5@GetPoint

; 165  : 	{
; 166  : 		int drawPt_X = CDrawer::GetDrawingPoint_X( region, CDrawer::GetCurrentDataIndex( region, startPoint) + ( nBalanceCoefficient - 1) * nDirection);

  0005e	8b 75 0c	 mov	 esi, DWORD PTR _region$[ebp]
  00061	6a 01		 push	 1
  00063	50		 push	 eax
  00064	8b 07		 mov	 eax, DWORD PTR [edi]
  00066	56		 push	 esi
  00067	8b 48 04	 mov	 ecx, DWORD PTR [eax+4]
  0006a	03 cf		 add	 ecx, edi
  0006c	e8 00 00 00 00	 call	 ?GetCurrentDataIndex@CDrawer@@IBEHABVCRegion@@ABVCPoint@@@Z ; CDrawer::GetCurrentDataIndex
  00071	03 c3		 add	 eax, ebx
  00073	50		 push	 eax
  00074	8b 07		 mov	 eax, DWORD PTR [edi]
  00076	56		 push	 esi
  00077	8b 48 04	 mov	 ecx, DWORD PTR [eax+4]
  0007a	03 cf		 add	 ecx, edi
  0007c	e8 00 00 00 00	 call	 ?GetDrawingPoint_X@CDrawer@@IBEHABVCRegion@@H_N@Z ; CDrawer::GetDrawingPoint_X
; File C:\Program Files (x86)\Microsoft Visual Studio\2019\Community\VC\Tools\MSVC\14.29.30133\atlmfc\include\atltypes.h

; 409  : 	y = initY;

  00081	8b 55 10	 mov	 edx, DWORD PTR _startPoint$[ebp]
; File D:\git\src\IBK\IBK_DRFN\ProjSrc\SrcChartEx\ChartAddIn\ChartAnalysisToolAddIn\AnalysisTool\BalanceBasicDrawer.cpp

; 167  : 		gbLinePoint = CPoint(drawPt_X, startPoint.y);

  00084	8b 4d 18	 mov	 ecx, DWORD PTR _gbLinePoint$[ebp]
  00087	5f		 pop	 edi

; 176  : }

  00088	5e		 pop	 esi
; File C:\Program Files (x86)\Microsoft Visual Studio\2019\Community\VC\Tools\MSVC\14.29.30133\atlmfc\include\atltypes.h

; 409  : 	y = initY;

  00089	8b 52 04	 mov	 edx, DWORD PTR [edx+4]
; File D:\git\src\IBK\IBK_DRFN\ProjSrc\SrcChartEx\ChartAddIn\ChartAnalysisToolAddIn\AnalysisTool\BalanceBasicDrawer.cpp

; 167  : 		gbLinePoint = CPoint(drawPt_X, startPoint.y);

  0008c	89 01		 mov	 DWORD PTR [ecx], eax

; 173  : 	}
; 174  : 
; 175  : 	return true;

  0008e	b0 01		 mov	 al, 1
  00090	89 51 04	 mov	 DWORD PTR [ecx+4], edx

; 176  : }

  00093	5b		 pop	 ebx
  00094	8b e5		 mov	 esp, ebp
  00096	5d		 pop	 ebp
  00097	c2 14 00	 ret	 20			; 00000014H
$LN5@GetPoint:

; 168  : 	}
; 169  : 	else
; 170  : 	{
; 171  : 		point.x = point.x + ( nBalanceCoefficient - 1) * nDirection;
; 172  : 		gbLinePoint = point;

  0009a	8b 45 18	 mov	 eax, DWORD PTR _gbLinePoint$[ebp]
  0009d	03 cb		 add	 ecx, ebx
  0009f	5f		 pop	 edi
  000a0	89 70 04	 mov	 DWORD PTR [eax+4], esi

; 176  : }

  000a3	5e		 pop	 esi
  000a4	89 08		 mov	 DWORD PTR [eax], ecx
  000a6	b0 01		 mov	 al, 1
  000a8	5b		 pop	 ebx
  000a9	8b e5		 mov	 esp, ebp
  000ab	5d		 pop	 ebp
  000ac	c2 14 00	 ret	 20			; 00000014H
$LN3@GetPoint:
  000af	5f		 pop	 edi
  000b0	5e		 pop	 esi
  000b1	32 c0		 xor	 al, al
  000b3	5b		 pop	 ebx
  000b4	8b e5		 mov	 esp, ebp
  000b6	5d		 pop	 ebp
  000b7	c2 14 00	 ret	 20			; 00000014H
?GetPoint@CBalanceBasicDrawer@@QBE_N_NABVCRegion@@ABVCPoint@@HAAV3@@Z ENDP ; CBalanceBasicDrawer::GetPoint
_TEXT	ENDS
; Function compile flags: /Ogtp
; File D:\git\src\IBK\IBK_DRFN\ProjSrc\SrcChartEx\ChartAddIn\ChartAnalysisToolAddIn\AnalysisTool\BalanceBasicDrawer.cpp
;	COMDAT ?__empty_global_delete@@YAXPAXI@Z
_TEXT	SEGMENT
___formal$ = 8						; size = 4
___formal$ = 12						; size = 4
?__empty_global_delete@@YAXPAXI@Z PROC			; __empty_global_delete, COMDAT

  00000	c2 00 00	 ret	 0
?__empty_global_delete@@YAXPAXI@Z ENDP			; __empty_global_delete
_TEXT	ENDS
; Function compile flags: /Ogtp
; File D:\git\src\IBK\IBK_DRFN\ProjSrc\SrcChartEx\ChartAddIn\ChartAnalysisToolAddIn\AnalysisTool\BalanceBasicDrawer.cpp
;	COMDAT ?__empty_global_delete@@YAXPAX@Z
_TEXT	SEGMENT
___formal$ = 8						; size = 4
?__empty_global_delete@@YAXPAX@Z PROC			; __empty_global_delete, COMDAT

  00000	c2 00 00	 ret	 0
?__empty_global_delete@@YAXPAX@Z ENDP			; __empty_global_delete
_TEXT	ENDS
END
