; Listing generated by Microsoft (R) Optimizing Compiler Version 19.29.30145.0 

	TITLE	D:\git\src\IBK\IBK_DRFN\#DRfn-CS\_Obj\AnalysisTool\ColumnSet.obj
	.686P
	.XMM
	include listing.inc
	.model	flat

INCLUDELIB MSVCRT
INCLUDELIB OLDNAMES

PUBLIC	?__empty_global_delete@@YAXPAX@Z		; __empty_global_delete
PUBLIC	?__empty_global_delete@@YAXPAXI@Z		; __empty_global_delete
PUBLIC	??0exception@std@@QAE@ABV01@@Z			; std::exception::exception
PUBLIC	??1exception@std@@UAE@XZ			; std::exception::~exception
PUBLIC	?what@exception@std@@UBEPBDXZ			; std::exception::what
PUBLIC	??_Gexception@std@@UAEPAXI@Z			; std::exception::`scalar deleting destructor'
PUBLIC	??0bad_alloc@std@@QAE@ABV01@@Z			; std::bad_alloc::bad_alloc
PUBLIC	??_Gbad_alloc@std@@UAEPAXI@Z			; std::bad_alloc::`scalar deleting destructor'
PUBLIC	??0bad_array_new_length@std@@QAE@XZ		; std::bad_array_new_length::bad_array_new_length
PUBLIC	??1bad_array_new_length@std@@UAE@XZ		; std::bad_array_new_length::~bad_array_new_length
PUBLIC	??0bad_array_new_length@std@@QAE@ABV01@@Z	; std::bad_array_new_length::bad_array_new_length
PUBLIC	??_Gbad_array_new_length@std@@UAEPAXI@Z		; std::bad_array_new_length::`scalar deleting destructor'
PUBLIC	?_Throw_bad_array_new_length@std@@YAXXZ		; std::_Throw_bad_array_new_length
PUBLIC	?Make@CColumnSet@@SAPAV1@XZ			; CColumnSet::Make
PUBLIC	?Delete@CColumnSet@@SAXPAV1@@Z			; CColumnSet::Delete
PUBLIC	??1CColumnSet@@UAE@XZ				; CColumnSet::~CColumnSet
PUBLIC	?SetAutoPrice@CColumnSet@@QAEX_N@Z		; CColumnSet::SetAutoPrice
PUBLIC	?ChangeAllElementsColor@CColumnSet@@QAEXABK0@Z	; CColumnSet::ChangeAllElementsColor
PUBLIC	?ChangeAllElementsThick@CColumnSet@@QAEXHH@Z	; CColumnSet::ChangeAllElementsThick
PUBLIC	?GetSavedElementsData@CColumnSet@@QBE?AV?$CStringT@DV?$StrTraitMFC_DLL@DV?$ChTraitsCRT@D@ATL@@@@@ATL@@ABVCOrder@@@Z ; CColumnSet::GetSavedElementsData
PUBLIC	?GetElementList@CColumnSet@@QAEXHAAV?$CDequePointerList@VCElement@@@@@Z ; CColumnSet::GetElementList
PUBLIC	?AddRowSet@CColumnSet@@QAE_NXZ			; CColumnSet::AddRowSet
PUBLIC	?AddElement@CColumnSet@@QAEXHPAVCElement@@@Z	; CColumnSet::AddElement
PUBLIC	?InsertRowSet@CColumnSet@@QAE_NH@Z		; CColumnSet::InsertRowSet
PUBLIC	?DeleteAllRowSet@CColumnSet@@QAEXXZ		; CColumnSet::DeleteAllRowSet
PUBLIC	?DeleteRowSet@CColumnSet@@QAEXH@Z		; CColumnSet::DeleteRowSet
PUBLIC	?DeleteElement@CColumnSet@@QAE_NW4ElementType@CToolEnumData@@AAV?$CDequePointerList@VCElement@@@@@Z ; CColumnSet::DeleteElement
PUBLIC	?DeleteElement@CColumnSet@@QAE_NPAVCElement@@@Z	; CColumnSet::DeleteElement
PUBLIC	?DeleteElement@CColumnSet@@QAE_NJH@Z		; CColumnSet::DeleteElement
PUBLIC	?MoveRowSet@CColumnSet@@QAE_NHH@Z		; CColumnSet::MoveRowSet
PUBLIC	?FindElement@CColumnSet@@QAEPAVCElement@@PAUIChartManager133101@@PAVCExtractingDataOfModifyType@@HAAW4ModifyType@CToolEnumData@@@Z ; CColumnSet::FindElement
PUBLIC	?DrawElement@CColumnSet@@QAEXPAVCDC@@PAVCElement@@PAUIChartManager133101@@H@Z ; CColumnSet::DrawElement
PUBLIC	?CopyElement@CColumnSet@@QAEPAVCElement@@PAV2@@Z ; CColumnSet::CopyElement
PUBLIC	?MoveElement@CColumnSet@@QAEJPAVCElement@@@Z	; CColumnSet::MoveElement
PUBLIC	?GetBlockIndexInElement@CColumnSet@@QBE?AVCBlockIndex@@PBVCElement@@H@Z ; CColumnSet::GetBlockIndexInElement
PUBLIC	?push_back@?$deque@PAVCRowSet@@V?$allocator@PAVCRowSet@@@std@@@std@@QAEXABQAVCRowSet@@@Z ; std::deque<CRowSet *,std::allocator<CRowSet *> >::push_back
PUBLIC	?insert@?$deque@PAVCRowSet@@V?$allocator@PAVCRowSet@@@std@@@std@@QAE?AV?$_Deque_iterator@V?$_Deque_val@U?$_Deque_simple_types@PAVCRowSet@@@std@@@std@@@2@V?$_Deque_const_iterator@V?$_Deque_val@U?$_Deque_simple_types@PAVCRowSet@@@std@@@std@@@2@ABQAVCRowSet@@@Z ; std::deque<CRowSet *,std::allocator<CRowSet *> >::insert
PUBLIC	?erase@?$deque@PAVCRowSet@@V?$allocator@PAVCRowSet@@@std@@@std@@QAE?AV?$_Deque_iterator@V?$_Deque_val@U?$_Deque_simple_types@PAVCRowSet@@@std@@@std@@@2@V?$_Deque_const_iterator@V?$_Deque_val@U?$_Deque_simple_types@PAVCRowSet@@@std@@@std@@@2@0@Z ; std::deque<CRowSet *,std::allocator<CRowSet *> >::erase
PUBLIC	?_Xlen@?$deque@PAVCRowSet@@V?$allocator@PAVCRowSet@@@std@@@std@@ABEXXZ ; std::deque<CRowSet *,std::allocator<CRowSet *> >::_Xlen
PUBLIC	?_Growmap@?$deque@PAVCRowSet@@V?$allocator@PAVCRowSet@@@std@@@std@@AAEXI@Z ; std::deque<CRowSet *,std::allocator<CRowSet *> >::_Growmap
PUBLIC	?_Tidy@?$deque@PAVCRowSet@@V?$allocator@PAVCRowSet@@@std@@@std@@AAEXXZ ; std::deque<CRowSet *,std::allocator<CRowSet *> >::_Tidy
PUBLIC	?AddRowSet@CColumnSet@@AAEXH@Z			; CColumnSet::AddRowSet
PUBLIC	?AddElementInNewMakedRowSet@CColumnSet@@AAEXHPAVCElement@@@Z ; CColumnSet::AddElementInNewMakedRowSet
PUBLIC	?AddElement@CColumnSet@@AAEXPAVCRowSet@@PAVCElement@@@Z ; CColumnSet::AddElement
PUBLIC	?DeleteRowSet@CColumnSet@@AAEXPAVCRowSet@@@Z	; CColumnSet::DeleteRowSet
PUBLIC	?MoveRowSet_InRowSetList@CColumnSet@@AAE_NHH@Z	; CColumnSet::MoveRowSet_InRowSetList
PUBLIC	?GetMax@CColumnSet@@ABEHHH@Z			; CColumnSet::GetMax
PUBLIC	??_GCColumnSet@@UAEPAXI@Z			; CColumnSet::`scalar deleting destructor'
PUBLIC	?_Tidy@?$deque@VCBlockRegion@@V?$allocator@VCBlockRegion@@@std@@@std@@AAEXXZ ; std::deque<CBlockRegion,std::allocator<CBlockRegion> >::_Tidy
PUBLIC	??1CDrawingRegions@@QAE@XZ			; CDrawingRegions::~CDrawingRegions
PUBLIC	??$rotate@V?$_Deque_iterator@V?$_Deque_val@U?$_Deque_simple_types@PAVCRowSet@@@std@@@std@@@std@@@std@@YA?AV?$_Deque_iterator@V?$_Deque_val@U?$_Deque_simple_types@PAVCRowSet@@@std@@@std@@@0@V10@00@Z ; std::rotate<std::_Deque_iterator<std::_Deque_val<std::_Deque_simple_types<CRowSet *> > > >
PUBLIC	??$uninitialized_copy@PAPAPAVCRowSet@@PAPAPAV1@@std@@YAPAPAPAVCRowSet@@QAPAPAV1@0PAPAPAV1@@Z ; std::uninitialized_copy<CRowSet * * *,CRowSet * * *>
PUBLIC	??$_Uninitialized_value_construct_n_unchecked1@PAPAPAVCRowSet@@I@std@@YAPAPAPAVCRowSet@@PAPAPAV1@I@Z ; std::_Uninitialized_value_construct_n_unchecked1<CRowSet * * *,unsigned int>
PUBLIC	??$reverse@V?$_Deque_unchecked_iterator@V?$_Deque_val@U?$_Deque_simple_types@PAVCRowSet@@@std@@@std@@@std@@@std@@YAXV?$_Deque_unchecked_iterator@V?$_Deque_val@U?$_Deque_simple_types@PAVCRowSet@@@std@@@std@@@0@0@Z ; std::reverse<std::_Deque_unchecked_iterator<std::_Deque_val<std::_Deque_simple_types<CRowSet *> > > >
PUBLIC	??$_Zero_range@PAPAPAVCRowSet@@@std@@YAPAPAPAVCRowSet@@QAPAPAV1@0@Z ; std::_Zero_range<CRowSet * * *>
PUBLIC	??$_Allocate_manually_vector_aligned@U_Default_allocate_traits@std@@@std@@YAPAXI@Z ; std::_Allocate_manually_vector_aligned<std::_Default_allocate_traits>
PUBLIC	??$_Copy_memmove@PAPAPAVCRowSet@@PAPAPAV1@@std@@YAPAPAPAVCRowSet@@PAPAPAV1@00@Z ; std::_Copy_memmove<CRowSet * * *,CRowSet * * *>
PUBLIC	??_7exception@std@@6B@				; std::exception::`vftable'
PUBLIC	??_C@_0BC@EOODALEL@Unknown?5exception@		; `string'
PUBLIC	??_7bad_alloc@std@@6B@				; std::bad_alloc::`vftable'
PUBLIC	??_7bad_array_new_length@std@@6B@		; std::bad_array_new_length::`vftable'
PUBLIC	??_C@_0BF@KINCDENJ@bad?5array?5new?5length@	; `string'
PUBLIC	__TI3?AVbad_array_new_length@std@@
PUBLIC	__CTA3?AVbad_array_new_length@std@@
PUBLIC	??_R0?AVbad_array_new_length@std@@@8		; std::bad_array_new_length `RTTI Type Descriptor'
PUBLIC	__CT??_R0?AVbad_array_new_length@std@@@8??0bad_array_new_length@std@@QAE@ABV01@@Z12
PUBLIC	??_R0?AVbad_alloc@std@@@8			; std::bad_alloc `RTTI Type Descriptor'
PUBLIC	__CT??_R0?AVbad_alloc@std@@@8??0bad_alloc@std@@QAE@ABV01@@Z12
PUBLIC	??_R0?AVexception@std@@@8			; std::exception `RTTI Type Descriptor'
PUBLIC	__CT??_R0?AVexception@std@@@8??0exception@std@@QAE@ABV01@@Z12
PUBLIC	??_7CColumnSet@@6B@				; CColumnSet::`vftable'
PUBLIC	??_C@_0L@JOAAOIF@?$DMColumn?$DO?$AN?6@		; `string'
PUBLIC	??_C@_0M@FIEFJELL@?$DM?2Column?$DO?$AN?6@	; `string'
PUBLIC	??_C@_0BC@KBDMBKEH@deque?$DMT?$DO?5too?5long@	; `string'
PUBLIC	??_R4exception@std@@6B@				; std::exception::`RTTI Complete Object Locator'
PUBLIC	??_R3exception@std@@8				; std::exception::`RTTI Class Hierarchy Descriptor'
PUBLIC	??_R2exception@std@@8				; std::exception::`RTTI Base Class Array'
PUBLIC	??_R1A@?0A@EA@exception@std@@8			; std::exception::`RTTI Base Class Descriptor at (0,-1,0,64)'
PUBLIC	??_R4bad_alloc@std@@6B@				; std::bad_alloc::`RTTI Complete Object Locator'
PUBLIC	??_R3bad_alloc@std@@8				; std::bad_alloc::`RTTI Class Hierarchy Descriptor'
PUBLIC	??_R2bad_alloc@std@@8				; std::bad_alloc::`RTTI Base Class Array'
PUBLIC	??_R1A@?0A@EA@bad_alloc@std@@8			; std::bad_alloc::`RTTI Base Class Descriptor at (0,-1,0,64)'
PUBLIC	??_R4bad_array_new_length@std@@6B@		; std::bad_array_new_length::`RTTI Complete Object Locator'
PUBLIC	??_R3bad_array_new_length@std@@8		; std::bad_array_new_length::`RTTI Class Hierarchy Descriptor'
PUBLIC	??_R2bad_array_new_length@std@@8		; std::bad_array_new_length::`RTTI Base Class Array'
PUBLIC	??_R1A@?0A@EA@bad_array_new_length@std@@8	; std::bad_array_new_length::`RTTI Base Class Descriptor at (0,-1,0,64)'
PUBLIC	??_R4CColumnSet@@6B@				; CColumnSet::`RTTI Complete Object Locator'
PUBLIC	??_R0?AVCColumnSet@@@8				; CColumnSet `RTTI Type Descriptor'
PUBLIC	??_R3CColumnSet@@8				; CColumnSet::`RTTI Class Hierarchy Descriptor'
PUBLIC	??_R2CColumnSet@@8				; CColumnSet::`RTTI Base Class Array'
PUBLIC	??_R1A@?0A@EA@CColumnSet@@8			; CColumnSet::`RTTI Base Class Descriptor at (0,-1,0,64)'
PUBLIC	__real@fff0000000000000
EXTRN	??2@YAPAXI@Z:PROC				; operator new
EXTRN	??3@YAXPAXI@Z:PROC				; operator delete
EXTRN	__imp___invalid_parameter_noinfo_noreturn:PROC
EXTRN	__imp_?Concatenate@?$CSimpleStringT@D$00@ATL@@KAXAAV12@PBDH1H@Z:PROC
EXTRN	__imp_??0?$CStringT@DV?$StrTraitMFC_DLL@DV?$ChTraitsCRT@D@ATL@@@@@ATL@@QAE@PAUIAtlStringMgr@1@@Z:PROC
EXTRN	__imp_??0?$CStringT@DV?$StrTraitMFC_DLL@DV?$ChTraitsCRT@D@ATL@@@@@ATL@@QAE@PBD@Z:PROC
EXTRN	__imp_??1?$CStringT@DV?$StrTraitMFC_DLL@DV?$ChTraitsCRT@D@ATL@@@@@ATL@@QAE@XZ:PROC
EXTRN	__imp_??Y?$CStringT@DV?$StrTraitMFC_DLL@DV?$ChTraitsCRT@D@ATL@@@@@ATL@@QAEAAV01@ABV?$CSimpleStringT@D$00@1@@Z:PROC
EXTRN	__imp_?GetManager@?$CStringT@DV?$StrTraitMFC_DLL@DV?$ChTraitsCRT@D@ATL@@@@@ATL@@QBEPAUIAtlStringMgr@2@XZ:PROC
EXTRN	___std_exception_copy:PROC
EXTRN	___std_exception_destroy:PROC
EXTRN	??_Eexception@std@@UAEPAXI@Z:PROC		; std::exception::`vector deleting destructor'
EXTRN	??_Ebad_alloc@std@@UAEPAXI@Z:PROC		; std::bad_alloc::`vector deleting destructor'
EXTRN	??_Ebad_array_new_length@std@@UAEPAXI@Z:PROC	; std::bad_array_new_length::`vector deleting destructor'
EXTRN	?_Xlength_error@std@@YAXPBD@Z:PROC		; std::_Xlength_error
EXTRN	??_ECColumnSet@@UAEPAXI@Z:PROC			; CColumnSet::`vector deleting destructor'
EXTRN	?Make@CRowSet@@SAPAV1@XZ:PROC			; CRowSet::Make
EXTRN	?Delete@CRowSet@@SAXPAV1@@Z:PROC		; CRowSet::Delete
EXTRN	?SetAutoPrice@CRowSet@@QAEX_N@Z:PROC		; CRowSet::SetAutoPrice
EXTRN	?ChangeAllElementsColor@CRowSet@@QAEXABK0@Z:PROC ; CRowSet::ChangeAllElementsColor
EXTRN	?ChangeAllElementsThick@CRowSet@@QAEXHH@Z:PROC	; CRowSet::ChangeAllElementsThick
EXTRN	?GetElementCount@CRowSet@@QBEHXZ:PROC		; CRowSet::GetElementCount
EXTRN	?GetSavedElementsData@CRowSet@@QBE?AV?$CStringT@DV?$StrTraitMFC_DLL@DV?$ChTraitsCRT@D@ATL@@@@@ATL@@ABVCOrder@@@Z:PROC ; CRowSet::GetSavedElementsData
EXTRN	?GetElementList@CRowSet@@QAEXAAV?$CDequePointerList@VCElement@@@@@Z:PROC ; CRowSet::GetElementList
EXTRN	?AddElement@CRowSet@@QAEXPAVCElement@@@Z:PROC	; CRowSet::AddElement
EXTRN	?Delete@CRowSet@@QAE_NJH@Z:PROC			; CRowSet::Delete
EXTRN	?Delete@CRowSet@@QAE_NW4ElementType@CToolEnumData@@AAV?$CDequePointerList@VCElement@@@@@Z:PROC ; CRowSet::Delete
EXTRN	?Delete@CRowSet@@QAE_NPAVCElement@@_N@Z:PROC	; CRowSet::Delete
EXTRN	?FindElement@CRowSet@@QAEPAVCElement@@PAVCExtractingDataOfModifyType@@AAW4ModifyType@CToolEnumData@@@Z:PROC ; CRowSet::FindElement
EXTRN	?CopyElement@CRowSet@@QAEPAVCElement@@PAV2@@Z:PROC ; CRowSet::CopyElement
EXTRN	?MoveElement@CRowSet@@QAEJPAVCElement@@@Z:PROC	; CRowSet::MoveElement
EXTRN	?DrawElement@CRowSet@@QAEXPAVCDC@@PAVCElement@@ABVCDrawingRegions@@ABVCCoordinateCalculatorData@@@Z:PROC ; CRowSet::DrawElement
EXTRN	?IsInSameElement@CRowSet@@QBE_NPBVCElement@@@Z:PROC ; CRowSet::IsInSameElement
EXTRN	??0CCoordinateCalculatorData@@QAE@PAUIChartManager133101@@@Z:PROC ; CCoordinateCalculatorData::CCoordinateCalculatorData
EXTRN	??1CCoordinateCalculatorData@@QAE@XZ:PROC	; CCoordinateCalculatorData::~CCoordinateCalculatorData
EXTRN	?GetDisplayDataMin_ScaleType@CCoordinateCalculatorData@@QBENXZ:PROC ; CCoordinateCalculatorData::GetDisplayDataMin_ScaleType
EXTRN	?GetDisplayDataMax_ScaleType@CCoordinateCalculatorData@@QBENXZ:PROC ; CCoordinateCalculatorData::GetDisplayDataMax_ScaleType
EXTRN	?GetCoordinateCalculatorData@CCoordinateCalculatorData@@QAEXABVCBlockIndex@@@Z:PROC ; CCoordinateCalculatorData::GetCoordinateCalculatorData
EXTRN	?SetCurrentNumber@CBlockRegionList@@QAEXH@Z:PROC ; CBlockRegionList::SetCurrentNumber
EXTRN	??0CDrawingRegions@@QAE@XZ:PROC			; CDrawingRegions::CDrawingRegions
EXTRN	?SetDrawingRegions@CDrawingRegions@@QAEXPAUIChartManager133101@@H@Z:PROC ; CDrawingRegions::SetDrawingRegions
EXTRN	?GetBlockRegionList@CDrawingRegions@@QAEAAVCBlockRegionList@@XZ:PROC ; CDrawingRegions::GetBlockRegionList
EXTRN	?SetRowSetIndex@CExtractingDataOfModifyType@@QAEXH@Z:PROC ; CExtractingDataOfModifyType::SetRowSetIndex
EXTRN	?GetCoordinateCalculatorData@CExtractingDataOfModifyType@@QAEAAVCCoordinateCalculatorData@@XZ:PROC ; CExtractingDataOfModifyType::GetCoordinateCalculatorData
EXTRN	@__security_check_cookie@4:PROC
EXTRN	__CxxThrowException@8:PROC
EXTRN	___CxxFrameHandler3:PROC
EXTRN	_memmove:PROC
EXTRN	_memset:PROC
EXTRN	??_7type_info@@6B@:QWORD			; type_info::`vftable'
EXTRN	___security_cookie:DWORD
EXTRN	__fltused:DWORD
;	COMDAT __real@fff0000000000000
CONST	SEGMENT
__real@fff0000000000000 DQ 0fff0000000000000r	; -inf
CONST	ENDS
;	COMDAT ??_R1A@?0A@EA@CColumnSet@@8
rdata$r	SEGMENT
??_R1A@?0A@EA@CColumnSet@@8 DD FLAT:??_R0?AVCColumnSet@@@8 ; CColumnSet::`RTTI Base Class Descriptor at (0,-1,0,64)'
	DD	00H
	DD	00H
	DD	0ffffffffH
	DD	00H
	DD	040H
	DD	FLAT:??_R3CColumnSet@@8
rdata$r	ENDS
;	COMDAT ??_R2CColumnSet@@8
rdata$r	SEGMENT
??_R2CColumnSet@@8 DD FLAT:??_R1A@?0A@EA@CColumnSet@@8	; CColumnSet::`RTTI Base Class Array'
rdata$r	ENDS
;	COMDAT ??_R3CColumnSet@@8
rdata$r	SEGMENT
??_R3CColumnSet@@8 DD 00H				; CColumnSet::`RTTI Class Hierarchy Descriptor'
	DD	00H
	DD	01H
	DD	FLAT:??_R2CColumnSet@@8
rdata$r	ENDS
;	COMDAT ??_R0?AVCColumnSet@@@8
data$rs	SEGMENT
??_R0?AVCColumnSet@@@8 DD FLAT:??_7type_info@@6B@	; CColumnSet `RTTI Type Descriptor'
	DD	00H
	DB	'.?AVCColumnSet@@', 00H
data$rs	ENDS
;	COMDAT ??_R4CColumnSet@@6B@
rdata$r	SEGMENT
??_R4CColumnSet@@6B@ DD 00H				; CColumnSet::`RTTI Complete Object Locator'
	DD	00H
	DD	00H
	DD	FLAT:??_R0?AVCColumnSet@@@8
	DD	FLAT:??_R3CColumnSet@@8
rdata$r	ENDS
;	COMDAT ??_R1A@?0A@EA@bad_array_new_length@std@@8
rdata$r	SEGMENT
??_R1A@?0A@EA@bad_array_new_length@std@@8 DD FLAT:??_R0?AVbad_array_new_length@std@@@8 ; std::bad_array_new_length::`RTTI Base Class Descriptor at (0,-1,0,64)'
	DD	02H
	DD	00H
	DD	0ffffffffH
	DD	00H
	DD	040H
	DD	FLAT:??_R3bad_array_new_length@std@@8
rdata$r	ENDS
;	COMDAT ??_R2bad_array_new_length@std@@8
rdata$r	SEGMENT
??_R2bad_array_new_length@std@@8 DD FLAT:??_R1A@?0A@EA@bad_array_new_length@std@@8 ; std::bad_array_new_length::`RTTI Base Class Array'
	DD	FLAT:??_R1A@?0A@EA@bad_alloc@std@@8
	DD	FLAT:??_R1A@?0A@EA@exception@std@@8
rdata$r	ENDS
;	COMDAT ??_R3bad_array_new_length@std@@8
rdata$r	SEGMENT
??_R3bad_array_new_length@std@@8 DD 00H			; std::bad_array_new_length::`RTTI Class Hierarchy Descriptor'
	DD	00H
	DD	03H
	DD	FLAT:??_R2bad_array_new_length@std@@8
rdata$r	ENDS
;	COMDAT ??_R4bad_array_new_length@std@@6B@
rdata$r	SEGMENT
??_R4bad_array_new_length@std@@6B@ DD 00H		; std::bad_array_new_length::`RTTI Complete Object Locator'
	DD	00H
	DD	00H
	DD	FLAT:??_R0?AVbad_array_new_length@std@@@8
	DD	FLAT:??_R3bad_array_new_length@std@@8
rdata$r	ENDS
;	COMDAT ??_R1A@?0A@EA@bad_alloc@std@@8
rdata$r	SEGMENT
??_R1A@?0A@EA@bad_alloc@std@@8 DD FLAT:??_R0?AVbad_alloc@std@@@8 ; std::bad_alloc::`RTTI Base Class Descriptor at (0,-1,0,64)'
	DD	01H
	DD	00H
	DD	0ffffffffH
	DD	00H
	DD	040H
	DD	FLAT:??_R3bad_alloc@std@@8
rdata$r	ENDS
;	COMDAT ??_R2bad_alloc@std@@8
rdata$r	SEGMENT
??_R2bad_alloc@std@@8 DD FLAT:??_R1A@?0A@EA@bad_alloc@std@@8 ; std::bad_alloc::`RTTI Base Class Array'
	DD	FLAT:??_R1A@?0A@EA@exception@std@@8
rdata$r	ENDS
;	COMDAT ??_R3bad_alloc@std@@8
rdata$r	SEGMENT
??_R3bad_alloc@std@@8 DD 00H				; std::bad_alloc::`RTTI Class Hierarchy Descriptor'
	DD	00H
	DD	02H
	DD	FLAT:??_R2bad_alloc@std@@8
rdata$r	ENDS
;	COMDAT ??_R4bad_alloc@std@@6B@
rdata$r	SEGMENT
??_R4bad_alloc@std@@6B@ DD 00H				; std::bad_alloc::`RTTI Complete Object Locator'
	DD	00H
	DD	00H
	DD	FLAT:??_R0?AVbad_alloc@std@@@8
	DD	FLAT:??_R3bad_alloc@std@@8
rdata$r	ENDS
;	COMDAT ??_R1A@?0A@EA@exception@std@@8
rdata$r	SEGMENT
??_R1A@?0A@EA@exception@std@@8 DD FLAT:??_R0?AVexception@std@@@8 ; std::exception::`RTTI Base Class Descriptor at (0,-1,0,64)'
	DD	00H
	DD	00H
	DD	0ffffffffH
	DD	00H
	DD	040H
	DD	FLAT:??_R3exception@std@@8
rdata$r	ENDS
;	COMDAT ??_R2exception@std@@8
rdata$r	SEGMENT
??_R2exception@std@@8 DD FLAT:??_R1A@?0A@EA@exception@std@@8 ; std::exception::`RTTI Base Class Array'
rdata$r	ENDS
;	COMDAT ??_R3exception@std@@8
rdata$r	SEGMENT
??_R3exception@std@@8 DD 00H				; std::exception::`RTTI Class Hierarchy Descriptor'
	DD	00H
	DD	01H
	DD	FLAT:??_R2exception@std@@8
rdata$r	ENDS
;	COMDAT ??_R4exception@std@@6B@
rdata$r	SEGMENT
??_R4exception@std@@6B@ DD 00H				; std::exception::`RTTI Complete Object Locator'
	DD	00H
	DD	00H
	DD	FLAT:??_R0?AVexception@std@@@8
	DD	FLAT:??_R3exception@std@@8
rdata$r	ENDS
;	COMDAT ??_C@_0BC@KBDMBKEH@deque?$DMT?$DO?5too?5long@
CONST	SEGMENT
??_C@_0BC@KBDMBKEH@deque?$DMT?$DO?5too?5long@ DB 'deque<T> too long', 00H ; `string'
CONST	ENDS
;	COMDAT ??_C@_0M@FIEFJELL@?$DM?2Column?$DO?$AN?6@
CONST	SEGMENT
??_C@_0M@FIEFJELL@?$DM?2Column?$DO?$AN?6@ DB '<\Column>', 0dH, 0aH, 00H ; `string'
CONST	ENDS
;	COMDAT ??_C@_0L@JOAAOIF@?$DMColumn?$DO?$AN?6@
CONST	SEGMENT
??_C@_0L@JOAAOIF@?$DMColumn?$DO?$AN?6@ DB '<Column>', 0dH, 0aH, 00H ; `string'
CONST	ENDS
;	COMDAT ??_7CColumnSet@@6B@
CONST	SEGMENT
??_7CColumnSet@@6B@ DD FLAT:??_R4CColumnSet@@6B@	; CColumnSet::`vftable'
	DD	FLAT:??_ECColumnSet@@UAEPAXI@Z
CONST	ENDS
;	COMDAT __CT??_R0?AVexception@std@@@8??0exception@std@@QAE@ABV01@@Z12
xdata$x	SEGMENT
__CT??_R0?AVexception@std@@@8??0exception@std@@QAE@ABV01@@Z12 DD 00H
	DD	FLAT:??_R0?AVexception@std@@@8
	DD	00H
	DD	0ffffffffH
	ORG $+4
	DD	0cH
	DD	FLAT:??0exception@std@@QAE@ABV01@@Z
xdata$x	ENDS
;	COMDAT ??_R0?AVexception@std@@@8
data$r	SEGMENT
??_R0?AVexception@std@@@8 DD FLAT:??_7type_info@@6B@	; std::exception `RTTI Type Descriptor'
	DD	00H
	DB	'.?AVexception@std@@', 00H
data$r	ENDS
;	COMDAT __CT??_R0?AVbad_alloc@std@@@8??0bad_alloc@std@@QAE@ABV01@@Z12
xdata$x	SEGMENT
__CT??_R0?AVbad_alloc@std@@@8??0bad_alloc@std@@QAE@ABV01@@Z12 DD 010H
	DD	FLAT:??_R0?AVbad_alloc@std@@@8
	DD	00H
	DD	0ffffffffH
	ORG $+4
	DD	0cH
	DD	FLAT:??0bad_alloc@std@@QAE@ABV01@@Z
xdata$x	ENDS
;	COMDAT ??_R0?AVbad_alloc@std@@@8
data$r	SEGMENT
??_R0?AVbad_alloc@std@@@8 DD FLAT:??_7type_info@@6B@	; std::bad_alloc `RTTI Type Descriptor'
	DD	00H
	DB	'.?AVbad_alloc@std@@', 00H
data$r	ENDS
;	COMDAT __CT??_R0?AVbad_array_new_length@std@@@8??0bad_array_new_length@std@@QAE@ABV01@@Z12
xdata$x	SEGMENT
__CT??_R0?AVbad_array_new_length@std@@@8??0bad_array_new_length@std@@QAE@ABV01@@Z12 DD 00H
	DD	FLAT:??_R0?AVbad_array_new_length@std@@@8
	DD	00H
	DD	0ffffffffH
	ORG $+4
	DD	0cH
	DD	FLAT:??0bad_array_new_length@std@@QAE@ABV01@@Z
xdata$x	ENDS
;	COMDAT ??_R0?AVbad_array_new_length@std@@@8
data$r	SEGMENT
??_R0?AVbad_array_new_length@std@@@8 DD FLAT:??_7type_info@@6B@ ; std::bad_array_new_length `RTTI Type Descriptor'
	DD	00H
	DB	'.?AVbad_array_new_length@std@@', 00H
data$r	ENDS
;	COMDAT __CTA3?AVbad_array_new_length@std@@
xdata$x	SEGMENT
__CTA3?AVbad_array_new_length@std@@ DD 03H
	DD	FLAT:__CT??_R0?AVbad_array_new_length@std@@@8??0bad_array_new_length@std@@QAE@ABV01@@Z12
	DD	FLAT:__CT??_R0?AVbad_alloc@std@@@8??0bad_alloc@std@@QAE@ABV01@@Z12
	DD	FLAT:__CT??_R0?AVexception@std@@@8??0exception@std@@QAE@ABV01@@Z12
xdata$x	ENDS
;	COMDAT __TI3?AVbad_array_new_length@std@@
xdata$x	SEGMENT
__TI3?AVbad_array_new_length@std@@ DD 00H
	DD	FLAT:??1bad_array_new_length@std@@UAE@XZ
	DD	00H
	DD	FLAT:__CTA3?AVbad_array_new_length@std@@
xdata$x	ENDS
;	COMDAT ??_C@_0BF@KINCDENJ@bad?5array?5new?5length@
CONST	SEGMENT
??_C@_0BF@KINCDENJ@bad?5array?5new?5length@ DB 'bad array new length', 00H ; `string'
CONST	ENDS
;	COMDAT ??_7bad_array_new_length@std@@6B@
CONST	SEGMENT
??_7bad_array_new_length@std@@6B@ DD FLAT:??_R4bad_array_new_length@std@@6B@ ; std::bad_array_new_length::`vftable'
	DD	FLAT:??_Ebad_array_new_length@std@@UAEPAXI@Z
	DD	FLAT:?what@exception@std@@UBEPBDXZ
CONST	ENDS
;	COMDAT ??_7bad_alloc@std@@6B@
CONST	SEGMENT
??_7bad_alloc@std@@6B@ DD FLAT:??_R4bad_alloc@std@@6B@	; std::bad_alloc::`vftable'
	DD	FLAT:??_Ebad_alloc@std@@UAEPAXI@Z
	DD	FLAT:?what@exception@std@@UBEPBDXZ
CONST	ENDS
;	COMDAT ??_C@_0BC@EOODALEL@Unknown?5exception@
CONST	SEGMENT
??_C@_0BC@EOODALEL@Unknown?5exception@ DB 'Unknown exception', 00H ; `string'
CONST	ENDS
;	COMDAT ??_7exception@std@@6B@
CONST	SEGMENT
??_7exception@std@@6B@ DD FLAT:??_R4exception@std@@6B@	; std::exception::`vftable'
	DD	FLAT:??_Eexception@std@@UAEPAXI@Z
	DD	FLAT:?what@exception@std@@UBEPBDXZ
CONST	ENDS
;	COMDAT xdata$x
xdata$x	SEGMENT
__unwindtable$?DrawElement@CColumnSet@@QAEXPAVCDC@@PAVCElement@@PAUIChartManager133101@@H@Z DD 0ffffffffH
	DD	FLAT:__unwindfunclet$?DrawElement@CColumnSet@@QAEXPAVCDC@@PAVCElement@@PAUIChartManager133101@@H@Z$0
	DD	00H
	DD	FLAT:__unwindfunclet$?DrawElement@CColumnSet@@QAEXPAVCDC@@PAVCElement@@PAUIChartManager133101@@H@Z$1
__ehfuncinfo$?DrawElement@CColumnSet@@QAEXPAVCDC@@PAVCElement@@PAUIChartManager133101@@H@Z DD 019930522H
	DD	02H
	DD	FLAT:__unwindtable$?DrawElement@CColumnSet@@QAEXPAVCDC@@PAVCElement@@PAUIChartManager133101@@H@Z
	DD	2 DUP(00H)
	DD	2 DUP(00H)
	DD	00H
	DD	01H
xdata$x	ENDS
;	COMDAT xdata$x
xdata$x	SEGMENT
__unwindtable$?GetSavedElementsData@CColumnSet@@QBE?AV?$CStringT@DV?$StrTraitMFC_DLL@DV?$ChTraitsCRT@D@ATL@@@@@ATL@@ABVCOrder@@@Z DD 0ffffffffH
	DD	FLAT:__unwindfunclet$?GetSavedElementsData@CColumnSet@@QBE?AV?$CStringT@DV?$StrTraitMFC_DLL@DV?$ChTraitsCRT@D@ATL@@@@@ATL@@ABVCOrder@@@Z$0
	DD	00H
	DD	FLAT:__unwindfunclet$?GetSavedElementsData@CColumnSet@@QBE?AV?$CStringT@DV?$StrTraitMFC_DLL@DV?$ChTraitsCRT@D@ATL@@@@@ATL@@ABVCOrder@@@Z$1
	DD	00H
	DD	FLAT:__unwindfunclet$?GetSavedElementsData@CColumnSet@@QBE?AV?$CStringT@DV?$StrTraitMFC_DLL@DV?$ChTraitsCRT@D@ATL@@@@@ATL@@ABVCOrder@@@Z$3
__ehfuncinfo$?GetSavedElementsData@CColumnSet@@QBE?AV?$CStringT@DV?$StrTraitMFC_DLL@DV?$ChTraitsCRT@D@ATL@@@@@ATL@@ABVCOrder@@@Z DD 019930522H
	DD	03H
	DD	FLAT:__unwindtable$?GetSavedElementsData@CColumnSet@@QBE?AV?$CStringT@DV?$StrTraitMFC_DLL@DV?$ChTraitsCRT@D@ATL@@@@@ATL@@ABVCOrder@@@Z
	DD	2 DUP(00H)
	DD	2 DUP(00H)
	DD	00H
	DD	01H
xdata$x	ENDS
;	COMDAT xdata$x
xdata$x	SEGMENT
__ehfuncinfo$??1CColumnSet@@UAE@XZ DD 019930522H
	DD	00H
	DD	00H
	DD	2 DUP(00H)
	DD	2 DUP(00H)
	DD	00H
	DD	05H
xdata$x	ENDS
;	COMDAT xdata$x
xdata$x	SEGMENT
__unwindtable$?Make@CColumnSet@@SAPAV1@XZ DD 0ffffffffH
	DD	FLAT:__unwindfunclet$?Make@CColumnSet@@SAPAV1@XZ$0
__ehfuncinfo$?Make@CColumnSet@@SAPAV1@XZ DD 019930522H
	DD	01H
	DD	FLAT:__unwindtable$?Make@CColumnSet@@SAPAV1@XZ
	DD	2 DUP(00H)
	DD	2 DUP(00H)
	DD	00H
	DD	01H
xdata$x	ENDS
;	COMDAT xdata$x
xdata$x	SEGMENT
__unwindtable$??HATL@@YA?AV?$CStringT@DV?$StrTraitMFC_DLL@DV?$ChTraitsCRT@D@ATL@@@@@0@ABV10@PBD@Z DD 0ffffffffH
	DD	FLAT:__unwindfunclet$??HATL@@YA?AV?$CStringT@DV?$StrTraitMFC_DLL@DV?$ChTraitsCRT@D@ATL@@@@@0@ABV10@PBD@Z$0
__ehfuncinfo$??HATL@@YA?AV?$CStringT@DV?$StrTraitMFC_DLL@DV?$ChTraitsCRT@D@ATL@@@@@0@ABV10@PBD@Z DD 019930522H
	DD	01H
	DD	FLAT:__unwindtable$??HATL@@YA?AV?$CStringT@DV?$StrTraitMFC_DLL@DV?$ChTraitsCRT@D@ATL@@@@@0@ABV10@PBD@Z
	DD	2 DUP(00H)
	DD	2 DUP(00H)
	DD	00H
	DD	01H
xdata$x	ENDS
; Function compile flags: /Ogtp
; File C:\Program Files (x86)\Microsoft Visual Studio\2019\Community\VC\Tools\MSVC\14.29.30133\include\xutility
;	COMDAT ??$_Copy_memmove@PAPAPAVCRowSet@@PAPAPAV1@@std@@YAPAPAPAVCRowSet@@PAPAPAV1@00@Z
_TEXT	SEGMENT
__First$ = 8						; size = 4
__Last$ = 12						; size = 4
__Dest$ = 16						; size = 4
??$_Copy_memmove@PAPAPAVCRowSet@@PAPAPAV1@@std@@YAPAPAPAVCRowSet@@PAPAPAV1@00@Z PROC ; std::_Copy_memmove<CRowSet * * *,CRowSet * * *>, COMDAT

; 4058 : _OutCtgIt _Copy_memmove(_CtgIt _First, _CtgIt _Last, _OutCtgIt _Dest) {

  00000	55		 push	 ebp
  00001	8b ec		 mov	 ebp, esp

; 4059 :     auto _FirstPtr              = _To_address(_First);
; 4060 :     auto _LastPtr               = _To_address(_Last);
; 4061 :     auto _DestPtr               = _To_address(_Dest);
; 4062 :     const char* const _First_ch = const_cast<const char*>(reinterpret_cast<const volatile char*>(_FirstPtr));
; 4063 :     const char* const _Last_ch  = const_cast<const char*>(reinterpret_cast<const volatile char*>(_LastPtr));
; 4064 :     char* const _Dest_ch        = const_cast<char*>(reinterpret_cast<const volatile char*>(_DestPtr));
; 4065 :     const auto _Count           = static_cast<size_t>(_Last_ch - _First_ch);

  00003	8b 45 08	 mov	 eax, DWORD PTR __First$[ebp]
  00006	56		 push	 esi

; 4066 :     _CSTD memmove(_Dest_ch, _First_ch, _Count);

  00007	8b 75 10	 mov	 esi, DWORD PTR __Dest$[ebp]
  0000a	57		 push	 edi
  0000b	8b 7d 0c	 mov	 edi, DWORD PTR __Last$[ebp]
  0000e	2b f8		 sub	 edi, eax
  00010	57		 push	 edi
  00011	50		 push	 eax
  00012	56		 push	 esi
  00013	e8 00 00 00 00	 call	 _memmove
  00018	83 c4 0c	 add	 esp, 12			; 0000000cH

; 4067 :     if constexpr (is_pointer_v<_OutCtgIt>) {
; 4068 :         return reinterpret_cast<_OutCtgIt>(_Dest_ch + _Count);

  0001b	8d 04 37	 lea	 eax, DWORD PTR [edi+esi]
  0001e	5f		 pop	 edi
  0001f	5e		 pop	 esi

; 4069 :     } else {
; 4070 :         return _Dest + (_LastPtr - _FirstPtr);
; 4071 :     }
; 4072 : }

  00020	5d		 pop	 ebp
  00021	c3		 ret	 0
??$_Copy_memmove@PAPAPAVCRowSet@@PAPAPAV1@@std@@YAPAPAPAVCRowSet@@PAPAPAV1@00@Z ENDP ; std::_Copy_memmove<CRowSet * * *,CRowSet * * *>
_TEXT	ENDS
; Function compile flags: /Ogtp
; File C:\Program Files (x86)\Microsoft Visual Studio\2019\Community\VC\Tools\MSVC\14.29.30133\include\xmemory
;	COMDAT ??$_Allocate_manually_vector_aligned@U_Default_allocate_traits@std@@@std@@YAPAXI@Z
_TEXT	SEGMENT
__Bytes$ = 8						; size = 4
??$_Allocate_manually_vector_aligned@U_Default_allocate_traits@std@@@std@@YAPAXI@Z PROC ; std::_Allocate_manually_vector_aligned<std::_Default_allocate_traits>, COMDAT

; 127  : __declspec(allocator) void* _Allocate_manually_vector_aligned(const size_t _Bytes) {

  00000	55		 push	 ebp
  00001	8b ec		 mov	 ebp, esp

; 128  :     // allocate _Bytes manually aligned to at least _Big_allocation_alignment
; 129  :     const size_t _Block_size = _Non_user_size + _Bytes;

  00003	8b 45 08	 mov	 eax, DWORD PTR __Bytes$[ebp]
  00006	8d 48 23	 lea	 ecx, DWORD PTR [eax+35]

; 130  :     if (_Block_size <= _Bytes) {

  00009	3b c8		 cmp	 ecx, eax
  0000b	0f 86 00 00 00
	00		 jbe	 ?_Throw_bad_array_new_length@std@@YAXXZ ; std::_Throw_bad_array_new_length

; 79   :         return ::operator new(_Bytes);

  00011	51		 push	 ecx
  00012	e8 00 00 00 00	 call	 ??2@YAPAXI@Z		; operator new

; 131  :         _Throw_bad_array_new_length(); // add overflow
; 132  :     }
; 133  : 
; 134  :     const uintptr_t _Ptr_container = reinterpret_cast<uintptr_t>(_Traits::_Allocate(_Block_size));

  00017	8b c8		 mov	 ecx, eax

; 79   :         return ::operator new(_Bytes);

  00019	83 c4 04	 add	 esp, 4

; 135  :     _STL_VERIFY(_Ptr_container != 0, "invalid argument"); // validate even in release since we're doing p[-1]

  0001c	85 c9		 test	 ecx, ecx
  0001e	74 0b		 je	 SHORT $LN7@Allocate_m

; 136  :     void* const _Ptr = reinterpret_cast<void*>((_Ptr_container + _Non_user_size) & ~(_Big_allocation_alignment - 1));

  00020	8d 41 23	 lea	 eax, DWORD PTR [ecx+35]
  00023	83 e0 e0	 and	 eax, -32		; ffffffe0H

; 137  :     static_cast<uintptr_t*>(_Ptr)[-1] = _Ptr_container;

  00026	89 48 fc	 mov	 DWORD PTR [eax-4], ecx

; 138  : 
; 139  : #ifdef _DEBUG
; 140  :     static_cast<uintptr_t*>(_Ptr)[-2] = _Big_allocation_sentinel;
; 141  : #endif // _DEBUG
; 142  :     return _Ptr;
; 143  : }

  00029	5d		 pop	 ebp
  0002a	c3		 ret	 0
$LN7@Allocate_m:

; 135  :     _STL_VERIFY(_Ptr_container != 0, "invalid argument"); // validate even in release since we're doing p[-1]

  0002b	ff 25 00 00 00
	00		 jmp	 DWORD PTR __imp___invalid_parameter_noinfo_noreturn
??$_Allocate_manually_vector_aligned@U_Default_allocate_traits@std@@@std@@YAPAXI@Z ENDP ; std::_Allocate_manually_vector_aligned<std::_Default_allocate_traits>
_TEXT	ENDS
; Function compile flags: /Ogtp
; File C:\Program Files (x86)\Microsoft Visual Studio\2019\Community\VC\Tools\MSVC\14.29.30133\include\xmemory
;	COMDAT ??$_Zero_range@PAPAPAVCRowSet@@@std@@YAPAPAPAVCRowSet@@QAPAPAV1@0@Z
_TEXT	SEGMENT
__First$ = 8						; size = 4
__Last$ = 12						; size = 4
??$_Zero_range@PAPAPAVCRowSet@@@std@@YAPAPAPAVCRowSet@@QAPAPAV1@0@Z PROC ; std::_Zero_range<CRowSet * * *>, COMDAT

; 1789 : _Ptr _Zero_range(const _Ptr _First, const _Ptr _Last) { // fill [_First, _Last) with zeroes

  00000	55		 push	 ebp
  00001	8b ec		 mov	 ebp, esp

; 1790 :     char* const _First_ch = reinterpret_cast<char*>(_To_address(_First));
; 1791 :     char* const _Last_ch  = reinterpret_cast<char*>(_To_address(_Last));
; 1792 :     _CSTD memset(_First_ch, 0, static_cast<size_t>(_Last_ch - _First_ch));

  00003	8b 55 08	 mov	 edx, DWORD PTR __First$[ebp]
  00006	8b 4d 0c	 mov	 ecx, DWORD PTR __Last$[ebp]
  00009	2b ca		 sub	 ecx, edx
  0000b	51		 push	 ecx
  0000c	6a 00		 push	 0
  0000e	52		 push	 edx
  0000f	e8 00 00 00 00	 call	 _memset

; 1793 :     return _Last;

  00014	8b 45 0c	 mov	 eax, DWORD PTR __Last$[ebp]
  00017	83 c4 0c	 add	 esp, 12			; 0000000cH

; 1794 : }

  0001a	5d		 pop	 ebp
  0001b	c3		 ret	 0
??$_Zero_range@PAPAPAVCRowSet@@@std@@YAPAPAPAVCRowSet@@QAPAPAV1@0@Z ENDP ; std::_Zero_range<CRowSet * * *>
_TEXT	ENDS
; Function compile flags: /Ogtp
; File C:\Program Files (x86)\Microsoft Visual Studio\2019\Community\VC\Tools\MSVC\14.29.30133\include\xutility
; File C:\Program Files (x86)\Microsoft Visual Studio\2019\Community\VC\Tools\MSVC\14.29.30133\include\deque
; File C:\Program Files (x86)\Microsoft Visual Studio\2019\Community\VC\Tools\MSVC\14.29.30133\include\xutility
; File C:\Program Files (x86)\Microsoft Visual Studio\2019\Community\VC\Tools\MSVC\14.29.30133\include\deque
; File C:\Program Files (x86)\Microsoft Visual Studio\2019\Community\VC\Tools\MSVC\14.29.30133\include\utility
; File C:\Program Files (x86)\Microsoft Visual Studio\2019\Community\VC\Tools\MSVC\14.29.30133\include\deque
; File C:\Program Files (x86)\Microsoft Visual Studio\2019\Community\VC\Tools\MSVC\14.29.30133\include\utility
; File C:\Program Files (x86)\Microsoft Visual Studio\2019\Community\VC\Tools\MSVC\14.29.30133\include\xutility
; File C:\Program Files (x86)\Microsoft Visual Studio\2019\Community\VC\Tools\MSVC\14.29.30133\include\deque
; File C:\Program Files (x86)\Microsoft Visual Studio\2019\Community\VC\Tools\MSVC\14.29.30133\include\xutility
;	COMDAT ??$reverse@V?$_Deque_unchecked_iterator@V?$_Deque_val@U?$_Deque_simple_types@PAVCRowSet@@@std@@@std@@@std@@@std@@YAXV?$_Deque_unchecked_iterator@V?$_Deque_val@U?$_Deque_simple_types@PAVCRowSet@@@std@@@std@@@0@0@Z
_TEXT	SEGMENT
__ULast$2$ = -8						; size = 4
__UFirst$2$ = -4					; size = 4
__First$ = 8						; size = 8
__Last$ = 16						; size = 8
??$reverse@V?$_Deque_unchecked_iterator@V?$_Deque_val@U?$_Deque_simple_types@PAVCRowSet@@@std@@@std@@@std@@@std@@YAXV?$_Deque_unchecked_iterator@V?$_Deque_val@U?$_Deque_simple_types@PAVCRowSet@@@std@@@std@@@0@0@Z PROC ; std::reverse<std::_Deque_unchecked_iterator<std::_Deque_val<std::_Deque_simple_types<CRowSet *> > > >, COMDAT

; 5405 : _CONSTEXPR20 void reverse(const _BidIt _First, const _BidIt _Last) { // reverse elements in [_First, _Last)

  00000	55		 push	 ebp
  00001	8b ec		 mov	 ebp, esp
  00003	83 ec 08	 sub	 esp, 8

; 5406 :     _Adl_verify_range(_First, _Last);
; 5407 :     auto _UFirst = _Get_unwrapped(_First);

  00006	8b 45 08	 mov	 eax, DWORD PTR __First$[ebp]

; 5408 :     auto _ULast  = _Get_unwrapped(_Last);

  00009	8b 55 10	 mov	 edx, DWORD PTR __Last$[ebp]
  0000c	53		 push	 ebx
  0000d	8b 5d 0c	 mov	 ebx, DWORD PTR __First$[ebp+4]
  00010	89 45 fc	 mov	 DWORD PTR __UFirst$2$[ebp], eax
  00013	8b 45 14	 mov	 eax, DWORD PTR __Last$[ebp+4]
  00016	89 55 f8	 mov	 DWORD PTR __ULast$2$[ebp], edx
  00019	3b d8		 cmp	 ebx, eax

; 5436 :     for (; _UFirst != _ULast && _UFirst != --_ULast; ++_UFirst) {

  0001b	74 52		 je	 SHORT $LN42@reverse
  0001d	56		 push	 esi
  0001e	8b cb		 mov	 ecx, ebx
  00020	57		 push	 edi
$LL9@reverse:
; File C:\Program Files (x86)\Microsoft Visual Studio\2019\Community\VC\Tools\MSVC\14.29.30133\include\deque

; 67   :         --_Myoff;

  00021	48		 dec	 eax
  00022	3b c8		 cmp	 ecx, eax
; File C:\Program Files (x86)\Microsoft Visual Studio\2019\Community\VC\Tools\MSVC\14.29.30133\include\xutility

; 5436 :     for (; _UFirst != _ULast && _UFirst != --_ULast; ++_UFirst) {

  00024	74 47		 je	 SHORT $LN43@reverse
; File C:\Program Files (x86)\Microsoft Visual Studio\2019\Community\VC\Tools\MSVC\14.29.30133\include\deque

; 559  :         return (_Off / _Block_size) & (_Mapsize - 1);

  00026	8b 4a 08	 mov	 ecx, DWORD PTR [edx+8]
  00029	8b f0		 mov	 esi, eax
  0002b	49		 dec	 ecx
  0002c	c1 ee 02	 shr	 esi, 2
  0002f	23 f1		 and	 esi, ecx

; 48   :         return _Mycont->_Map[_Block][_Off];

  00031	8b 4a 04	 mov	 ecx, DWORD PTR [edx+4]
  00034	8b d0		 mov	 edx, eax
  00036	83 e2 03	 and	 edx, 3
  00039	8b 0c b1	 mov	 ecx, DWORD PTR [ecx+esi*4]
  0003c	8d 3c 91	 lea	 edi, DWORD PTR [ecx+edx*4]

; 559  :         return (_Off / _Block_size) & (_Mapsize - 1);

  0003f	8b 55 fc	 mov	 edx, DWORD PTR __UFirst$2$[ebp]
  00042	8b cb		 mov	 ecx, ebx
  00044	c1 e9 02	 shr	 ecx, 2
  00047	8b 72 08	 mov	 esi, DWORD PTR [edx+8]
  0004a	4e		 dec	 esi
  0004b	23 f1		 and	 esi, ecx

; 48   :         return _Mycont->_Map[_Block][_Off];

  0004d	8b 4a 04	 mov	 ecx, DWORD PTR [edx+4]
  00050	8b d3		 mov	 edx, ebx

; 56   :         ++_Myoff;

  00052	43		 inc	 ebx

; 47   :         _Size_type _Off   = _Myoff % _Block_size;

  00053	83 e2 03	 and	 edx, 3

; 48   :         return _Mycont->_Map[_Block][_Off];

  00056	8b 0c b1	 mov	 ecx, DWORD PTR [ecx+esi*4]
  00059	8d 34 91	 lea	 esi, DWORD PTR [ecx+edx*4]
; File C:\Program Files (x86)\Microsoft Visual Studio\2019\Community\VC\Tools\MSVC\14.29.30133\include\utility

; 101  :     _Left    = _STD move(_Right);

  0005c	8b 0f		 mov	 ecx, DWORD PTR [edi]
  0005e	8b 16		 mov	 edx, DWORD PTR [esi]
  00060	89 0e		 mov	 DWORD PTR [esi], ecx
; File C:\Program Files (x86)\Microsoft Visual Studio\2019\Community\VC\Tools\MSVC\14.29.30133\include\deque

; 56   :         ++_Myoff;

  00062	8b cb		 mov	 ecx, ebx
; File C:\Program Files (x86)\Microsoft Visual Studio\2019\Community\VC\Tools\MSVC\14.29.30133\include\utility

; 102  :     _Right   = _STD move(_Tmp);

  00064	89 17		 mov	 DWORD PTR [edi], edx
; File C:\Program Files (x86)\Microsoft Visual Studio\2019\Community\VC\Tools\MSVC\14.29.30133\include\xutility

; 5436 :     for (; _UFirst != _ULast && _UFirst != --_ULast; ++_UFirst) {

  00066	8b 55 f8	 mov	 edx, DWORD PTR __ULast$2$[ebp]
; File C:\Program Files (x86)\Microsoft Visual Studio\2019\Community\VC\Tools\MSVC\14.29.30133\include\deque

; 106  :         return _Myoff == _Right._Myoff;

  00069	3b d8		 cmp	 ebx, eax
; File C:\Program Files (x86)\Microsoft Visual Studio\2019\Community\VC\Tools\MSVC\14.29.30133\include\xutility

; 5436 :     for (; _UFirst != _ULast && _UFirst != --_ULast; ++_UFirst) {

  0006b	75 b4		 jne	 SHORT $LL9@reverse
$LN43@reverse:
  0006d	5f		 pop	 edi
  0006e	5e		 pop	 esi
$LN42@reverse:
  0006f	5b		 pop	 ebx

; 5437 :         _STD iter_swap(_UFirst, _ULast);
; 5438 :     }
; 5439 : }

  00070	8b e5		 mov	 esp, ebp
  00072	5d		 pop	 ebp
  00073	c3		 ret	 0
??$reverse@V?$_Deque_unchecked_iterator@V?$_Deque_val@U?$_Deque_simple_types@PAVCRowSet@@@std@@@std@@@std@@@std@@YAXV?$_Deque_unchecked_iterator@V?$_Deque_val@U?$_Deque_simple_types@PAVCRowSet@@@std@@@std@@@0@0@Z ENDP ; std::reverse<std::_Deque_unchecked_iterator<std::_Deque_val<std::_Deque_simple_types<CRowSet *> > > >
_TEXT	ENDS
; Function compile flags: /Ogtp
; File C:\Program Files (x86)\Microsoft Visual Studio\2019\Community\VC\Tools\MSVC\14.29.30133\include\xmemory
;	COMDAT ??$_Uninitialized_value_construct_n_unchecked1@PAPAPAVCRowSet@@I@std@@YAPAPAPAVCRowSet@@PAPAPAV1@I@Z
_TEXT	SEGMENT
__UFirst$ = 8						; size = 4
__Count$ = 12						; size = 4
??$_Uninitialized_value_construct_n_unchecked1@PAPAPAVCRowSet@@I@std@@YAPAPAPAVCRowSet@@PAPAPAV1@I@Z PROC ; std::_Uninitialized_value_construct_n_unchecked1<CRowSet * * *,unsigned int>, COMDAT

; 1821 : _NoThrowFwdIt _Uninitialized_value_construct_n_unchecked1(_NoThrowFwdIt _UFirst, _Diff _Count) {

  00000	55		 push	 ebp
  00001	8b ec		 mov	 ebp, esp

; 1822 :     // value-initialize all elements in [_UFirst, _UFirst + _Count_raw)
; 1823 :     _STL_INTERNAL_CHECK(_Count >= 0);
; 1824 :     if constexpr (_Use_memset_value_construct_v<_NoThrowFwdIt>) {
; 1825 :         return _Zero_range(_UFirst, _UFirst + _Count);

  00003	8b 45 0c	 mov	 eax, DWORD PTR __Count$[ebp]
  00006	56		 push	 esi

; 1792 :     _CSTD memset(_First_ch, 0, static_cast<size_t>(_Last_ch - _First_ch));

  00007	8b 75 08	 mov	 esi, DWORD PTR __UFirst$[ebp]

; 1821 : _NoThrowFwdIt _Uninitialized_value_construct_n_unchecked1(_NoThrowFwdIt _UFirst, _Diff _Count) {

  0000a	57		 push	 edi

; 1822 :     // value-initialize all elements in [_UFirst, _UFirst + _Count_raw)
; 1823 :     _STL_INTERNAL_CHECK(_Count >= 0);
; 1824 :     if constexpr (_Use_memset_value_construct_v<_NoThrowFwdIt>) {
; 1825 :         return _Zero_range(_UFirst, _UFirst + _Count);

  0000b	8d 3c 85 00 00
	00 00		 lea	 edi, DWORD PTR [eax*4]

; 1792 :     _CSTD memset(_First_ch, 0, static_cast<size_t>(_Last_ch - _First_ch));

  00012	57		 push	 edi
  00013	6a 00		 push	 0
  00015	56		 push	 esi
  00016	e8 00 00 00 00	 call	 _memset
  0001b	83 c4 0c	 add	 esp, 12			; 0000000cH

; 1822 :     // value-initialize all elements in [_UFirst, _UFirst + _Count_raw)
; 1823 :     _STL_INTERNAL_CHECK(_Count >= 0);
; 1824 :     if constexpr (_Use_memset_value_construct_v<_NoThrowFwdIt>) {
; 1825 :         return _Zero_range(_UFirst, _UFirst + _Count);

  0001e	8d 04 37	 lea	 eax, DWORD PTR [edi+esi]
  00021	5f		 pop	 edi
  00022	5e		 pop	 esi

; 1826 :     } else {
; 1827 :         _Uninitialized_backout<_NoThrowFwdIt> _Backout{_UFirst};
; 1828 :         for (; 0 < _Count; --_Count) {
; 1829 :             _Backout._Emplace_back();
; 1830 :         }
; 1831 : 
; 1832 :         return _Backout._Release();
; 1833 :     }
; 1834 : }

  00023	5d		 pop	 ebp
  00024	c3		 ret	 0
??$_Uninitialized_value_construct_n_unchecked1@PAPAPAVCRowSet@@I@std@@YAPAPAPAVCRowSet@@PAPAPAV1@I@Z ENDP ; std::_Uninitialized_value_construct_n_unchecked1<CRowSet * * *,unsigned int>
_TEXT	ENDS
; Function compile flags: /Ogtp
; File C:\Program Files (x86)\Microsoft Visual Studio\2019\Community\VC\Tools\MSVC\14.29.30133\include\xmemory
; File C:\Program Files (x86)\Microsoft Visual Studio\2019\Community\VC\Tools\MSVC\14.29.30133\include\xutility
; File C:\Program Files (x86)\Microsoft Visual Studio\2019\Community\VC\Tools\MSVC\14.29.30133\include\xmemory
; File C:\Program Files (x86)\Microsoft Visual Studio\2019\Community\VC\Tools\MSVC\14.29.30133\include\xutility
; File C:\Program Files (x86)\Microsoft Visual Studio\2019\Community\VC\Tools\MSVC\14.29.30133\include\xmemory
; File C:\Program Files (x86)\Microsoft Visual Studio\2019\Community\VC\Tools\MSVC\14.29.30133\include\xutility
; File C:\Program Files (x86)\Microsoft Visual Studio\2019\Community\VC\Tools\MSVC\14.29.30133\include\xmemory
;	COMDAT ??$uninitialized_copy@PAPAPAVCRowSet@@PAPAPAV1@@std@@YAPAPAPAVCRowSet@@QAPAPAV1@0PAPAPAV1@@Z
_TEXT	SEGMENT
__First$ = 8						; size = 4
__Last$ = 12						; size = 4
__Dest$ = 16						; size = 4
??$uninitialized_copy@PAPAPAVCRowSet@@PAPAPAV1@@std@@YAPAPAPAVCRowSet@@QAPAPAV1@0PAPAPAV1@@Z PROC ; std::uninitialized_copy<CRowSet * * *,CRowSet * * *>, COMDAT

; 1687 : _NoThrowFwdIt uninitialized_copy(const _InIt _First, const _InIt _Last, _NoThrowFwdIt _Dest) {

  00000	55		 push	 ebp
  00001	8b ec		 mov	 ebp, esp
; File C:\Program Files (x86)\Microsoft Visual Studio\2019\Community\VC\Tools\MSVC\14.29.30133\include\xutility

; 4065 :     const auto _Count           = static_cast<size_t>(_Last_ch - _First_ch);

  00003	8b 45 08	 mov	 eax, DWORD PTR __First$[ebp]
; File C:\Program Files (x86)\Microsoft Visual Studio\2019\Community\VC\Tools\MSVC\14.29.30133\include\xmemory

; 1687 : _NoThrowFwdIt uninitialized_copy(const _InIt _First, const _InIt _Last, _NoThrowFwdIt _Dest) {

  00006	56		 push	 esi
; File C:\Program Files (x86)\Microsoft Visual Studio\2019\Community\VC\Tools\MSVC\14.29.30133\include\xutility

; 4066 :     _CSTD memmove(_Dest_ch, _First_ch, _Count);

  00007	8b 75 10	 mov	 esi, DWORD PTR __Dest$[ebp]
; File C:\Program Files (x86)\Microsoft Visual Studio\2019\Community\VC\Tools\MSVC\14.29.30133\include\xmemory

; 1687 : _NoThrowFwdIt uninitialized_copy(const _InIt _First, const _InIt _Last, _NoThrowFwdIt _Dest) {

  0000a	57		 push	 edi
; File C:\Program Files (x86)\Microsoft Visual Studio\2019\Community\VC\Tools\MSVC\14.29.30133\include\xutility

; 4065 :     const auto _Count           = static_cast<size_t>(_Last_ch - _First_ch);

  0000b	8b 7d 0c	 mov	 edi, DWORD PTR __Last$[ebp]
  0000e	2b f8		 sub	 edi, eax

; 4066 :     _CSTD memmove(_Dest_ch, _First_ch, _Count);

  00010	57		 push	 edi
  00011	50		 push	 eax
  00012	56		 push	 esi
  00013	e8 00 00 00 00	 call	 _memmove
  00018	83 c4 0c	 add	 esp, 12			; 0000000cH

; 4067 :     if constexpr (is_pointer_v<_OutCtgIt>) {
; 4068 :         return reinterpret_cast<_OutCtgIt>(_Dest_ch + _Count);

  0001b	8d 04 37	 lea	 eax, DWORD PTR [edi+esi]
; File C:\Program Files (x86)\Microsoft Visual Studio\2019\Community\VC\Tools\MSVC\14.29.30133\include\xmemory

; 1694 :     return _Dest;

  0001e	5f		 pop	 edi
  0001f	5e		 pop	 esi

; 1695 : }

  00020	5d		 pop	 ebp
  00021	c3		 ret	 0
??$uninitialized_copy@PAPAPAVCRowSet@@PAPAPAV1@@std@@YAPAPAPAVCRowSet@@QAPAPAV1@0PAPAPAV1@@Z ENDP ; std::uninitialized_copy<CRowSet * * *,CRowSet * * *>
_TEXT	ENDS
; Function compile flags: /Ogtp
; File C:\Program Files (x86)\Microsoft Visual Studio\2019\Community\VC\Tools\MSVC\14.29.30133\include\xutility
; File C:\Program Files (x86)\Microsoft Visual Studio\2019\Community\VC\Tools\MSVC\14.29.30133\include\xmemory
; File C:\Program Files (x86)\Microsoft Visual Studio\2019\Community\VC\Tools\MSVC\14.29.30133\include\xutility
; File C:\Program Files (x86)\Microsoft Visual Studio\2019\Community\VC\Tools\MSVC\14.29.30133\include\xmemory
; File C:\Program Files (x86)\Microsoft Visual Studio\2019\Community\VC\Tools\MSVC\14.29.30133\include\deque
; File C:\Program Files (x86)\Microsoft Visual Studio\2019\Community\VC\Tools\MSVC\14.29.30133\include\xmemory
; File C:\Program Files (x86)\Microsoft Visual Studio\2019\Community\VC\Tools\MSVC\14.29.30133\include\deque
; File C:\Program Files (x86)\Microsoft Visual Studio\2019\Community\VC\Tools\MSVC\14.29.30133\include\xmemory
; File C:\Program Files (x86)\Microsoft Visual Studio\2019\Community\VC\Tools\MSVC\14.29.30133\include\deque
; File C:\Program Files (x86)\Microsoft Visual Studio\2019\Community\VC\Tools\MSVC\14.29.30133\include\xutility
; File C:\Program Files (x86)\Microsoft Visual Studio\2019\Community\VC\Tools\MSVC\14.29.30133\include\xmemory
; File C:\Program Files (x86)\Microsoft Visual Studio\2019\Community\VC\Tools\MSVC\14.29.30133\include\xutility
; File C:\Program Files (x86)\Microsoft Visual Studio\2019\Community\VC\Tools\MSVC\14.29.30133\include\deque
; File C:\Program Files (x86)\Microsoft Visual Studio\2019\Community\VC\Tools\MSVC\14.29.30133\include\xutility
; File C:\Program Files (x86)\Microsoft Visual Studio\2019\Community\VC\Tools\MSVC\14.29.30133\include\xmemory
; File C:\Program Files (x86)\Microsoft Visual Studio\2019\Community\VC\Tools\MSVC\14.29.30133\include\xutility
; File C:\Program Files (x86)\Microsoft Visual Studio\2019\Community\VC\Tools\MSVC\14.29.30133\include\deque
; File C:\Program Files (x86)\Microsoft Visual Studio\2019\Community\VC\Tools\MSVC\14.29.30133\include\xutility
; File C:\Program Files (x86)\Microsoft Visual Studio\2019\Community\VC\Tools\MSVC\14.29.30133\include\xmemory
; File C:\Program Files (x86)\Microsoft Visual Studio\2019\Community\VC\Tools\MSVC\14.29.30133\include\deque
; File C:\Program Files (x86)\Microsoft Visual Studio\2019\Community\VC\Tools\MSVC\14.29.30133\include\xutility
; File C:\Program Files (x86)\Microsoft Visual Studio\2019\Community\VC\Tools\MSVC\14.29.30133\include\xmemory
; File C:\Program Files (x86)\Microsoft Visual Studio\2019\Community\VC\Tools\MSVC\14.29.30133\include\xutility
;	COMDAT ??$rotate@V?$_Deque_iterator@V?$_Deque_val@U?$_Deque_simple_types@PAVCRowSet@@@std@@@std@@@std@@@std@@YA?AV?$_Deque_iterator@V?$_Deque_val@U?$_Deque_simple_types@PAVCRowSet@@@std@@@std@@@0@V10@00@Z
_TEXT	SEGMENT
__UMid$1$ = -16						; size = 4
__UFirst$2$ = -12					; size = 4
__ULast$1$ = -8						; size = 4
__UMid$2$ = -4						; size = 4
___$ReturnUdt$ = 8					; size = 4
__First$ = 12						; size = 12
__Mid$ = 24						; size = 12
__Last$ = 36						; size = 12
??$rotate@V?$_Deque_iterator@V?$_Deque_val@U?$_Deque_simple_types@PAVCRowSet@@@std@@@std@@@std@@@std@@YA?AV?$_Deque_iterator@V?$_Deque_val@U?$_Deque_simple_types@PAVCRowSet@@@std@@@std@@@0@V10@00@Z PROC ; std::rotate<std::_Deque_iterator<std::_Deque_val<std::_Deque_simple_types<CRowSet *> > > >, COMDAT

; 5462 : _CONSTEXPR20 _FwdIt rotate(_FwdIt _First, _FwdIt _Mid, _FwdIt _Last) {

  00000	55		 push	 ebp
  00001	8b ec		 mov	 ebp, esp
; File C:\Program Files (x86)\Microsoft Visual Studio\2019\Community\VC\Tools\MSVC\14.29.30133\include\xmemory

; 1107 :         return _Myproxy ? _Myproxy->_Mycont : nullptr;

  00003	8b 45 0c	 mov	 eax, DWORD PTR __First$[ebp]
; File C:\Program Files (x86)\Microsoft Visual Studio\2019\Community\VC\Tools\MSVC\14.29.30133\include\xutility

; 5462 : _CONSTEXPR20 _FwdIt rotate(_FwdIt _First, _FwdIt _Mid, _FwdIt _Last) {

  00006	83 ec 10	 sub	 esp, 16			; 00000010H
  00009	53		 push	 ebx
  0000a	56		 push	 esi
  0000b	57		 push	 edi
; File C:\Program Files (x86)\Microsoft Visual Studio\2019\Community\VC\Tools\MSVC\14.29.30133\include\xmemory

; 1107 :         return _Myproxy ? _Myproxy->_Mycont : nullptr;

  0000c	85 c0		 test	 eax, eax
  0000e	74 07		 je	 SHORT $LN11@rotate
  00010	8b 30		 mov	 esi, DWORD PTR [eax]
  00012	89 75 f4	 mov	 DWORD PTR __UFirst$2$[ebp], esi
  00015	eb 07		 jmp	 SHORT $LN12@rotate
$LN11@rotate:
  00017	c7 45 f4 00 00
	00 00		 mov	 DWORD PTR __UFirst$2$[ebp], 0
$LN12@rotate:
  0001e	8b 4d 18	 mov	 ecx, DWORD PTR __Mid$[ebp]
; File C:\Program Files (x86)\Microsoft Visual Studio\2019\Community\VC\Tools\MSVC\14.29.30133\include\deque

; 507  :         return {this->_Myoff, this->_Getcont()};

  00021	8b 55 20	 mov	 edx, DWORD PTR __Mid$[ebp+8]

; 43   :         : _Mycont(static_cast<const _Mydeque*>(_Pdeque)), _Myoff(_Off) {}

  00024	8b 5d 14	 mov	 ebx, DWORD PTR __First$[ebp+8]

; 507  :         return {this->_Myoff, this->_Getcont()};

  00027	89 55 f0	 mov	 DWORD PTR __UMid$1$[ebp], edx
; File C:\Program Files (x86)\Microsoft Visual Studio\2019\Community\VC\Tools\MSVC\14.29.30133\include\xmemory

; 1107 :         return _Myproxy ? _Myproxy->_Mycont : nullptr;

  0002a	85 c9		 test	 ecx, ecx
  0002c	74 07		 je	 SHORT $LN23@rotate
  0002e	8b 31		 mov	 esi, DWORD PTR [ecx]
  00030	89 75 fc	 mov	 DWORD PTR __UMid$2$[ebp], esi
  00033	eb 07		 jmp	 SHORT $LN24@rotate
$LN23@rotate:
  00035	c7 45 fc 00 00
	00 00		 mov	 DWORD PTR __UMid$2$[ebp], 0
$LN24@rotate:
  0003c	8b 4d 24	 mov	 ecx, DWORD PTR __Last$[ebp]
; File C:\Program Files (x86)\Microsoft Visual Studio\2019\Community\VC\Tools\MSVC\14.29.30133\include\deque

; 507  :         return {this->_Myoff, this->_Getcont()};

  0003f	8b 7d 2c	 mov	 edi, DWORD PTR __Last$[ebp+8]
; File C:\Program Files (x86)\Microsoft Visual Studio\2019\Community\VC\Tools\MSVC\14.29.30133\include\xmemory

; 1107 :         return _Myproxy ? _Myproxy->_Mycont : nullptr;

  00042	85 c9		 test	 ecx, ecx
  00044	74 07		 je	 SHORT $LN35@rotate
  00046	8b 31		 mov	 esi, DWORD PTR [ecx]
  00048	89 75 f8	 mov	 DWORD PTR __ULast$1$[ebp], esi
  0004b	eb 07		 jmp	 SHORT $LN36@rotate
$LN35@rotate:
  0004d	c7 45 f8 00 00
	00 00		 mov	 DWORD PTR __ULast$1$[ebp], 0
$LN36@rotate:
; File C:\Program Files (x86)\Microsoft Visual Studio\2019\Community\VC\Tools\MSVC\14.29.30133\include\deque

; 43   :         : _Mycont(static_cast<const _Mydeque*>(_Pdeque)), _Myoff(_Off) {}

  00054	8b 75 08	 mov	 esi, DWORD PTR ___$ReturnUdt$[ebp]
  00057	3b da		 cmp	 ebx, edx
; File C:\Program Files (x86)\Microsoft Visual Studio\2019\Community\VC\Tools\MSVC\14.29.30133\include\xutility

; 5471 :     if (_UFirst == _UMid) {

  00059	75 15		 jne	 SHORT $LN2@rotate

; 5515 : }

  0005b	89 7e 08	 mov	 DWORD PTR [esi+8], edi
  0005e	8b c6		 mov	 eax, esi
  00060	5f		 pop	 edi
; File C:\Program Files (x86)\Microsoft Visual Studio\2019\Community\VC\Tools\MSVC\14.29.30133\include\xmemory

; 1069 :         _Myproxy = _Right._Myproxy;

  00061	89 0e		 mov	 DWORD PTR [esi], ecx
; File C:\Program Files (x86)\Microsoft Visual Studio\2019\Community\VC\Tools\MSVC\14.29.30133\include\xutility

; 5515 : }

  00063	c7 46 04 00 00
	00 00		 mov	 DWORD PTR [esi+4], 0
  0006a	5e		 pop	 esi
  0006b	5b		 pop	 ebx
  0006c	8b e5		 mov	 esp, ebp
  0006e	5d		 pop	 ebp
  0006f	c3		 ret	 0
$LN2@rotate:
; File C:\Program Files (x86)\Microsoft Visual Studio\2019\Community\VC\Tools\MSVC\14.29.30133\include\deque

; 106  :         return _Myoff == _Right._Myoff;

  00070	3b d7		 cmp	 edx, edi
; File C:\Program Files (x86)\Microsoft Visual Studio\2019\Community\VC\Tools\MSVC\14.29.30133\include\xutility

; 5475 :     if (_UMid == _ULast) {

  00072	75 15		 jne	 SHORT $LN3@rotate
; File C:\Program Files (x86)\Microsoft Visual Studio\2019\Community\VC\Tools\MSVC\14.29.30133\include\xmemory

; 1069 :         _Myproxy = _Right._Myproxy;

  00074	89 06		 mov	 DWORD PTR [esi], eax
; File C:\Program Files (x86)\Microsoft Visual Studio\2019\Community\VC\Tools\MSVC\14.29.30133\include\xutility

; 5515 : }

  00076	8b c6		 mov	 eax, esi
  00078	5f		 pop	 edi
  00079	89 5e 08	 mov	 DWORD PTR [esi+8], ebx
  0007c	c7 46 04 00 00
	00 00		 mov	 DWORD PTR [esi+4], 0
  00083	5e		 pop	 esi
  00084	5b		 pop	 ebx
  00085	8b e5		 mov	 esp, ebp
  00087	5d		 pop	 ebp
  00088	c3		 ret	 0
$LN3@rotate:

; 5476 :         return _First;
; 5477 :     }
; 5478 : 
; 5479 :     if constexpr (_Is_random_iter_v<_FwdIt>) {
; 5480 :         _STD reverse(_UFirst, _UMid);

  00089	52		 push	 edx
  0008a	ff 75 fc	 push	 DWORD PTR __UMid$2$[ebp]
  0008d	53		 push	 ebx
  0008e	ff 75 f4	 push	 DWORD PTR __UFirst$2$[ebp]
  00091	e8 00 00 00 00	 call	 ??$reverse@V?$_Deque_unchecked_iterator@V?$_Deque_val@U?$_Deque_simple_types@PAVCRowSet@@@std@@@std@@@std@@@std@@YAXV?$_Deque_unchecked_iterator@V?$_Deque_val@U?$_Deque_simple_types@PAVCRowSet@@@std@@@std@@@0@0@Z ; std::reverse<std::_Deque_unchecked_iterator<std::_Deque_val<std::_Deque_simple_types<CRowSet *> > > >

; 5481 :         _STD reverse(_UMid, _ULast);

  00096	57		 push	 edi
  00097	ff 75 f8	 push	 DWORD PTR __ULast$1$[ebp]
  0009a	ff 75 f0	 push	 DWORD PTR __UMid$1$[ebp]
  0009d	ff 75 fc	 push	 DWORD PTR __UMid$2$[ebp]
  000a0	e8 00 00 00 00	 call	 ??$reverse@V?$_Deque_unchecked_iterator@V?$_Deque_val@U?$_Deque_simple_types@PAVCRowSet@@@std@@@std@@@std@@@std@@YAXV?$_Deque_unchecked_iterator@V?$_Deque_val@U?$_Deque_simple_types@PAVCRowSet@@@std@@@std@@@0@0@Z ; std::reverse<std::_Deque_unchecked_iterator<std::_Deque_val<std::_Deque_simple_types<CRowSet *> > > >

; 5482 :         _STD reverse(_UFirst, _ULast);

  000a5	57		 push	 edi
  000a6	ff 75 f8	 push	 DWORD PTR __ULast$1$[ebp]
  000a9	53		 push	 ebx
  000aa	ff 75 f4	 push	 DWORD PTR __UFirst$2$[ebp]
  000ad	e8 00 00 00 00	 call	 ??$reverse@V?$_Deque_unchecked_iterator@V?$_Deque_val@U?$_Deque_simple_types@PAVCRowSet@@@std@@@std@@@std@@@std@@YAXV?$_Deque_unchecked_iterator@V?$_Deque_val@U?$_Deque_simple_types@PAVCRowSet@@@std@@@std@@@0@0@Z ; std::reverse<std::_Deque_unchecked_iterator<std::_Deque_val<std::_Deque_simple_types<CRowSet *> > > >
; File C:\Program Files (x86)\Microsoft Visual Studio\2019\Community\VC\Tools\MSVC\14.29.30133\include\deque

; 78   :         _Myoff += _Off;

  000b2	2b 7d f0	 sub	 edi, DWORD PTR __UMid$1$[ebp]
; File C:\Program Files (x86)\Microsoft Visual Studio\2019\Community\VC\Tools\MSVC\14.29.30133\include\xutility

; 5482 :         _STD reverse(_UFirst, _ULast);

  000b5	83 c4 30	 add	 esp, 48			; 00000030H
; File C:\Program Files (x86)\Microsoft Visual Studio\2019\Community\VC\Tools\MSVC\14.29.30133\include\xmemory

; 1069 :         _Myproxy = _Right._Myproxy;

  000b8	8b 45 0c	 mov	 eax, DWORD PTR __First$[ebp]
; File C:\Program Files (x86)\Microsoft Visual Studio\2019\Community\VC\Tools\MSVC\14.29.30133\include\deque

; 78   :         _Myoff += _Off;

  000bb	03 fb		 add	 edi, ebx
; File C:\Program Files (x86)\Microsoft Visual Studio\2019\Community\VC\Tools\MSVC\14.29.30133\include\xutility

; 5515 : }

  000bd	89 7e 08	 mov	 DWORD PTR [esi+8], edi
; File C:\Program Files (x86)\Microsoft Visual Studio\2019\Community\VC\Tools\MSVC\14.29.30133\include\xmemory

; 1069 :         _Myproxy = _Right._Myproxy;

  000c0	89 06		 mov	 DWORD PTR [esi], eax
; File C:\Program Files (x86)\Microsoft Visual Studio\2019\Community\VC\Tools\MSVC\14.29.30133\include\xutility

; 5515 : }

  000c2	8b c6		 mov	 eax, esi
  000c4	5f		 pop	 edi
  000c5	c7 46 04 00 00
	00 00		 mov	 DWORD PTR [esi+4], 0
  000cc	5e		 pop	 esi
  000cd	5b		 pop	 ebx
  000ce	8b e5		 mov	 esp, ebp
  000d0	5d		 pop	 ebp
  000d1	c3		 ret	 0
??$rotate@V?$_Deque_iterator@V?$_Deque_val@U?$_Deque_simple_types@PAVCRowSet@@@std@@@std@@@std@@@std@@YA?AV?$_Deque_iterator@V?$_Deque_val@U?$_Deque_simple_types@PAVCRowSet@@@std@@@std@@@0@V10@00@Z ENDP ; std::rotate<std::_Deque_iterator<std::_Deque_val<std::_Deque_simple_types<CRowSet *> > > >
_TEXT	ENDS
; Function compile flags: /Ogtp
; File C:\Program Files (x86)\Microsoft Visual Studio\2019\Community\VC\Tools\MSVC\14.29.30133\include\deque
; File C:\Program Files (x86)\Microsoft Visual Studio\2019\Community\VC\Tools\MSVC\14.29.30133\include\utility
; File C:\Program Files (x86)\Microsoft Visual Studio\2019\Community\VC\Tools\MSVC\14.29.30133\include\xmemory
; File C:\Program Files (x86)\Microsoft Visual Studio\2019\Community\VC\Tools\MSVC\14.29.30133\include\utility
; File C:\Program Files (x86)\Microsoft Visual Studio\2019\Community\VC\Tools\MSVC\14.29.30133\include\xmemory
;	COMDAT ??1CDrawingRegions@@QAE@XZ
_TEXT	SEGMENT
??1CDrawingRegions@@QAE@XZ PROC				; CDrawingRegions::~CDrawingRegions, COMDAT
; _this$ = ecx
; File C:\Program Files (x86)\Microsoft Visual Studio\2019\Community\VC\Tools\MSVC\14.29.30133\include\deque

; 1332 :         _Tidy();

  00000	56		 push	 esi
  00001	8d 71 04	 lea	 esi, DWORD PTR [ecx+4]
  00004	8b ce		 mov	 ecx, esi
  00006	e8 00 00 00 00	 call	 ?_Tidy@?$deque@VCBlockRegion@@V?$allocator@VCBlockRegion@@@std@@@std@@AAEXXZ ; std::deque<CBlockRegion,std::allocator<CBlockRegion> >::_Tidy

; 861  :         _Tidy();

  0000b	8b ce		 mov	 ecx, esi
  0000d	e8 00 00 00 00	 call	 ?_Tidy@?$deque@VCBlockRegion@@V?$allocator@VCBlockRegion@@@std@@@std@@AAEXXZ ; std::deque<CBlockRegion,std::allocator<CBlockRegion> >::_Tidy
; File C:\Program Files (x86)\Microsoft Visual Studio\2019\Community\VC\Tools\MSVC\14.29.30133\include\utility

; 602  :     _Ty _Old_val = static_cast<_Ty&&>(_Val);

  00012	8b 06		 mov	 eax, DWORD PTR [esi]
; File C:\Program Files (x86)\Microsoft Visual Studio\2019\Community\VC\Tools\MSVC\14.29.30133\include\xmemory

; 255  :         ::operator delete(_Ptr, _Bytes);

  00014	6a 08		 push	 8
  00016	50		 push	 eax
; File C:\Program Files (x86)\Microsoft Visual Studio\2019\Community\VC\Tools\MSVC\14.29.30133\include\utility

; 603  :     _Val         = static_cast<_Other&&>(_New_val);

  00017	c7 06 00 00 00
	00		 mov	 DWORD PTR [esi], 0
; File C:\Program Files (x86)\Microsoft Visual Studio\2019\Community\VC\Tools\MSVC\14.29.30133\include\xmemory

; 255  :         ::operator delete(_Ptr, _Bytes);

  0001d	e8 00 00 00 00	 call	 ??3@YAXPAXI@Z		; operator delete
  00022	83 c4 08	 add	 esp, 8
  00025	5e		 pop	 esi
  00026	c3		 ret	 0
??1CDrawingRegions@@QAE@XZ ENDP				; CDrawingRegions::~CDrawingRegions
_TEXT	ENDS
; Function compile flags: /Ogtp
; File C:\Program Files (x86)\Microsoft Visual Studio\2019\Community\VC\Tools\MSVC\14.29.30133\include\deque
; File C:\Program Files (x86)\Microsoft Visual Studio\2019\Community\VC\Tools\MSVC\14.29.30133\include\xmemory
; File C:\Program Files (x86)\Microsoft Visual Studio\2019\Community\VC\Tools\MSVC\14.29.30133\include\deque
; File C:\Program Files (x86)\Microsoft Visual Studio\2019\Community\VC\Tools\MSVC\14.29.30133\include\xmemory
; File C:\Program Files (x86)\Microsoft Visual Studio\2019\Community\VC\Tools\MSVC\14.29.30133\include\deque
; File C:\Program Files (x86)\Microsoft Visual Studio\2019\Community\VC\Tools\MSVC\14.29.30133\include\xmemory
; File C:\Program Files (x86)\Microsoft Visual Studio\2019\Community\VC\Tools\MSVC\14.29.30133\include\deque
;	COMDAT ?_Tidy@?$deque@VCBlockRegion@@V?$allocator@VCBlockRegion@@@std@@@std@@AAEXXZ
_TEXT	SEGMENT
?_Tidy@?$deque@VCBlockRegion@@V?$allocator@VCBlockRegion@@@std@@@std@@AAEXXZ PROC ; std::deque<CBlockRegion,std::allocator<CBlockRegion> >::_Tidy, COMDAT
; _this$ = ecx

; 1471 :     void _Tidy() noexcept { // free all storage

  00000	57		 push	 edi
  00001	8b f9		 mov	 edi, ecx

; 1002 :         return _Mysize() == 0;

  00003	8b 4f 10	 mov	 ecx, DWORD PTR [edi+16]
  00006	85 c9		 test	 ecx, ecx

; 1472 :         _Orphan_all();
; 1473 : 
; 1474 :         _Alpty _Almap(_Getal());
; 1475 :         while (!empty()) {

  00008	74 15		 je	 SHORT $LN60@Tidy
  0000a	66 0f 1f 44 00
	00		 npad	 6
$LL2@Tidy:

; 1146 :         if (--_Mysize() == 0) {

  00010	8d 41 ff	 lea	 eax, DWORD PTR [ecx-1]
  00013	89 47 10	 mov	 DWORD PTR [edi+16], eax
  00016	8b c8		 mov	 ecx, eax
  00018	85 c0		 test	 eax, eax
  0001a	75 f4		 jne	 SHORT $LL2@Tidy

; 1147 :             _Myoff() = 0;

  0001c	89 47 0c	 mov	 DWORD PTR [edi+12], eax
$LN60@Tidy:
  0001f	56		 push	 esi

; 1479 :         for (size_type _Block = _Mapsize(); 0 < _Block;) { // free storage for a block and destroy pointer

  00020	8b 77 08	 mov	 esi, DWORD PTR [edi+8]
  00023	85 f6		 test	 esi, esi
  00025	74 1a		 je	 SHORT $LN5@Tidy
$LL4@Tidy:

; 1480 :             if (_Map()[--_Block]) { // free block and destroy its pointer

  00027	8b 47 04	 mov	 eax, DWORD PTR [edi+4]
  0002a	4e		 dec	 esi
  0002b	8b 04 b0	 mov	 eax, DWORD PTR [eax+esi*4]
  0002e	85 c0		 test	 eax, eax
  00030	74 0b		 je	 SHORT $LN23@Tidy
; File C:\Program Files (x86)\Microsoft Visual Studio\2019\Community\VC\Tools\MSVC\14.29.30133\include\xmemory

; 255  :         ::operator delete(_Ptr, _Bytes);

  00032	6a 60		 push	 96			; 00000060H
  00034	50		 push	 eax
  00035	e8 00 00 00 00	 call	 ??3@YAXPAXI@Z		; operator delete
  0003a	83 c4 08	 add	 esp, 8
$LN23@Tidy:
; File C:\Program Files (x86)\Microsoft Visual Studio\2019\Community\VC\Tools\MSVC\14.29.30133\include\deque

; 1479 :         for (size_type _Block = _Mapsize(); 0 < _Block;) { // free storage for a block and destroy pointer

  0003d	85 f6		 test	 esi, esi
  0003f	75 e6		 jne	 SHORT $LL4@Tidy
$LN5@Tidy:

; 1481 :                 _Getal().deallocate(_Map()[_Block], _Block_size);
; 1482 :                 _Destroy_in_place(_Map()[_Block]);
; 1483 :             }
; 1484 :         }
; 1485 : 
; 1486 :         if (_Map() != _Mapptr()) {

  00041	8b 47 04	 mov	 eax, DWORD PTR [edi+4]
  00044	5e		 pop	 esi
  00045	85 c0		 test	 eax, eax
  00047	74 2a		 je	 SHORT $LN41@Tidy
; File C:\Program Files (x86)\Microsoft Visual Studio\2019\Community\VC\Tools\MSVC\14.29.30133\include\xmemory

; 797  :         _Deallocate<_New_alignof<_Ty>>(_Ptr, sizeof(_Ty) * _Count);

  00049	8b 4f 08	 mov	 ecx, DWORD PTR [edi+8]
  0004c	c1 e1 02	 shl	 ecx, 2

; 251  :         if (_Bytes >= _Big_allocation_threshold) { // boost the alignment of big allocations to help autovectorization

  0004f	81 f9 00 10 00
	00		 cmp	 ecx, 4096		; 00001000H
  00055	72 12		 jb	 SHORT $LN51@Tidy

; 150  :     const uintptr_t _Ptr_container   = _Ptr_user[-1];

  00057	8b 50 fc	 mov	 edx, DWORD PTR [eax-4]
  0005a	83 c1 23	 add	 ecx, 35			; 00000023H

; 151  : 
; 152  :     // If the following asserts, it likely means that we are performing
; 153  :     // an aligned delete on memory coming from an unaligned allocation.
; 154  :     _STL_ASSERT(_Ptr_user[-2] == _Big_allocation_sentinel, "invalid argument");
; 155  : 
; 156  :     // Extra paranoia on aligned allocation/deallocation; ensure _Ptr_container is
; 157  :     // in range [_Min_back_shift, _Non_user_size]
; 158  : #ifdef _DEBUG
; 159  :     constexpr uintptr_t _Min_back_shift = 2 * sizeof(void*);
; 160  : #else // ^^^ _DEBUG ^^^ // vvv !_DEBUG vvv
; 161  :     constexpr uintptr_t _Min_back_shift = sizeof(void*);
; 162  : #endif // _DEBUG
; 163  :     const uintptr_t _Back_shift = reinterpret_cast<uintptr_t>(_Ptr) - _Ptr_container;

  0005d	2b c2		 sub	 eax, edx

; 164  :     _STL_VERIFY(_Back_shift >= _Min_back_shift && _Back_shift <= _Non_user_size, "invalid argument");

  0005f	83 c0 fc	 add	 eax, -4			; fffffffcH
  00062	83 f8 1f	 cmp	 eax, 31			; 0000001fH
  00065	77 1c		 ja	 SHORT $LN48@Tidy

; 165  :     _Ptr = reinterpret_cast<void*>(_Ptr_container);

  00067	8b c2		 mov	 eax, edx
$LN51@Tidy:

; 255  :         ::operator delete(_Ptr, _Bytes);

  00069	51		 push	 ecx
  0006a	50		 push	 eax
  0006b	e8 00 00 00 00	 call	 ??3@YAXPAXI@Z		; operator delete
  00070	83 c4 08	 add	 esp, 8
$LN41@Tidy:
; File C:\Program Files (x86)\Microsoft Visual Studio\2019\Community\VC\Tools\MSVC\14.29.30133\include\deque

; 1490 :         _Mapsize() = 0;

  00073	c7 47 08 00 00
	00 00		 mov	 DWORD PTR [edi+8], 0

; 1491 :         _Map()     = _Mapptr();

  0007a	c7 47 04 00 00
	00 00		 mov	 DWORD PTR [edi+4], 0
  00081	5f		 pop	 edi

; 1492 :     }

  00082	c3		 ret	 0
$LN48@Tidy:
; File C:\Program Files (x86)\Microsoft Visual Studio\2019\Community\VC\Tools\MSVC\14.29.30133\include\xmemory

; 164  :     _STL_VERIFY(_Back_shift >= _Min_back_shift && _Back_shift <= _Non_user_size, "invalid argument");

  00083	ff 15 00 00 00
	00		 call	 DWORD PTR __imp___invalid_parameter_noinfo_noreturn
$LN62@Tidy:
  00089	cc		 int	 3
?_Tidy@?$deque@VCBlockRegion@@V?$allocator@VCBlockRegion@@@std@@@std@@AAEXXZ ENDP ; std::deque<CBlockRegion,std::allocator<CBlockRegion> >::_Tidy
_TEXT	ENDS
; Function compile flags: /Ogtp
;	COMDAT ??_GCColumnSet@@UAEPAXI@Z
_TEXT	SEGMENT
___flags$ = 8						; size = 4
??_GCColumnSet@@UAEPAXI@Z PROC				; CColumnSet::`scalar deleting destructor', COMDAT
; _this$ = ecx
  00000	55		 push	 ebp
  00001	8b ec		 mov	 ebp, esp
  00003	56		 push	 esi
  00004	8b f1		 mov	 esi, ecx
  00006	e8 00 00 00 00	 call	 ??1CColumnSet@@UAE@XZ	; CColumnSet::~CColumnSet
  0000b	f6 45 08 01	 test	 BYTE PTR ___flags$[ebp], 1
  0000f	74 0b		 je	 SHORT $LN4@scalar
  00011	6a 18		 push	 24			; 00000018H
  00013	56		 push	 esi
  00014	e8 00 00 00 00	 call	 ??3@YAXPAXI@Z		; operator delete
  00019	83 c4 08	 add	 esp, 8
$LN4@scalar:
  0001c	8b c6		 mov	 eax, esi
  0001e	5e		 pop	 esi
  0001f	5d		 pop	 ebp
  00020	c2 04 00	 ret	 4
??_GCColumnSet@@UAEPAXI@Z ENDP				; CColumnSet::`scalar deleting destructor'
_TEXT	ENDS
; Function compile flags: /Ogtp
; File D:\git\src\IBK\IBK_DRFN\ProjSrc\SrcChartEx\ChartAddIn\ChartAnalysisToolAddIn\AnalysisTool\ColumnSet.cpp
;	COMDAT ?GetMax@CColumnSet@@ABEHHH@Z
_TEXT	SEGMENT
_x1$ = 8						; size = 4
_x2$ = 12						; size = 4
?GetMax@CColumnSet@@ABEHHH@Z PROC			; CColumnSet::GetMax, COMDAT
; _this$ = ecx

; 370  : {

  00000	55		 push	 ebp
  00001	8b ec		 mov	 ebp, esp

; 371  : 	return (x1 > x2) ? x1: x2;

  00003	8b 45 0c	 mov	 eax, DWORD PTR _x2$[ebp]
  00006	39 45 08	 cmp	 DWORD PTR _x1$[ebp], eax
  00009	0f 4f 45 08	 cmovg	 eax, DWORD PTR _x1$[ebp]

; 372  : }

  0000d	5d		 pop	 ebp
  0000e	c2 08 00	 ret	 8
?GetMax@CColumnSet@@ABEHHH@Z ENDP			; CColumnSet::GetMax
_TEXT	ENDS
; Function compile flags: /Ogtp
; File D:\git\src\IBK\IBK_DRFN\ProjSrc\SrcChartEx\ChartAddIn\ChartAnalysisToolAddIn\AnalysisTool\ColumnSet.cpp
; File D:\git\src\IBK\IBK_DRFN\ProjSrc\SrcChartEx\ChartAddIn\ChartAnalysisToolAddIn\Include_Chart\DequeList.h
; File C:\Program Files (x86)\Microsoft Visual Studio\2019\Community\VC\Tools\MSVC\14.29.30133\include\deque
; File D:\git\src\IBK\IBK_DRFN\ProjSrc\SrcChartEx\ChartAddIn\ChartAnalysisToolAddIn\Include_Chart\DequeList.h
; File C:\Program Files (x86)\Microsoft Visual Studio\2019\Community\VC\Tools\MSVC\14.29.30133\include\xmemory
; File C:\Program Files (x86)\Microsoft Visual Studio\2019\Community\VC\Tools\MSVC\14.29.30133\include\deque
; File C:\Program Files (x86)\Microsoft Visual Studio\2019\Community\VC\Tools\MSVC\14.29.30133\include\xmemory
; File C:\Program Files (x86)\Microsoft Visual Studio\2019\Community\VC\Tools\MSVC\14.29.30133\include\deque
; File C:\Program Files (x86)\Microsoft Visual Studio\2019\Community\VC\Tools\MSVC\14.29.30133\include\xmemory
; File C:\Program Files (x86)\Microsoft Visual Studio\2019\Community\VC\Tools\MSVC\14.29.30133\include\deque
; File C:\Program Files (x86)\Microsoft Visual Studio\2019\Community\VC\Tools\MSVC\14.29.30133\include\xmemory
; File C:\Program Files (x86)\Microsoft Visual Studio\2019\Community\VC\Tools\MSVC\14.29.30133\include\deque
; File D:\git\src\IBK\IBK_DRFN\ProjSrc\SrcChartEx\ChartAddIn\ChartAnalysisToolAddIn\Include_Chart\DequeList.h
; File C:\Program Files (x86)\Microsoft Visual Studio\2019\Community\VC\Tools\MSVC\14.29.30133\include\deque
; File C:\Program Files (x86)\Microsoft Visual Studio\2019\Community\VC\Tools\MSVC\14.29.30133\include\xmemory
; File C:\Program Files (x86)\Microsoft Visual Studio\2019\Community\VC\Tools\MSVC\14.29.30133\include\deque
; File D:\git\src\IBK\IBK_DRFN\ProjSrc\SrcChartEx\ChartAddIn\ChartAnalysisToolAddIn\Include_Chart\DequeList.h
; File C:\Program Files (x86)\Microsoft Visual Studio\2019\Community\VC\Tools\MSVC\14.29.30133\include\xmemory
; File D:\git\src\IBK\IBK_DRFN\ProjSrc\SrcChartEx\ChartAddIn\ChartAnalysisToolAddIn\Include_Chart\DequeList.h
; File D:\git\src\IBK\IBK_DRFN\ProjSrc\SrcChartEx\ChartAddIn\ChartAnalysisToolAddIn\AnalysisTool\ColumnSet.cpp
;	COMDAT ?MoveRowSet_InRowSetList@CColumnSet@@AAE_NHH@Z
_TEXT	SEGMENT
$T4 = -12						; size = 12
$T5 = -12						; size = 12
__Tmp$6 = -8						; size = 8
$T7 = 8							; size = 4
_pItem$ = 8						; size = 4
_sourceRowIndex$ = 8					; size = 4
_pT$1$ = 12						; size = 4
_targetRowIndex$ = 12					; size = 4
?MoveRowSet_InRowSetList@CColumnSet@@AAE_NHH@Z PROC	; CColumnSet::MoveRowSet_InRowSetList, COMDAT
; _this$ = ecx

; 348  : {

  00000	55		 push	 ebp
  00001	8b ec		 mov	 ebp, esp
  00003	83 ec 0c	 sub	 esp, 12			; 0000000cH
  00006	53		 push	 ebx
  00007	56		 push	 esi

; 349  : 	if(sourceRowIndex >= m_RowSetList.GetCount())

  00008	8b 75 08	 mov	 esi, DWORD PTR _sourceRowIndex$[ebp]
  0000b	57		 push	 edi
  0000c	8b f9		 mov	 edi, ecx
  0000e	8b 57 14	 mov	 edx, DWORD PTR [edi+20]
  00011	3b f2		 cmp	 esi, edx
  00013	7c 0b		 jl	 SHORT $LN2@MoveRowSet

; 350  : 		return false;

  00015	32 c0		 xor	 al, al

; 366  : }

  00017	5f		 pop	 edi
  00018	5e		 pop	 esi
  00019	5b		 pop	 ebx
  0001a	8b e5		 mov	 esp, ebp
  0001c	5d		 pop	 ebp
  0001d	c2 08 00	 ret	 8
$LN2@MoveRowSet:

; 371  : 	return (x1 > x2) ? x1: x2;

  00020	8b 5d 0c	 mov	 ebx, DWORD PTR _targetRowIndex$[ebp]
  00023	3b f3		 cmp	 esi, ebx
  00025	8b c3		 mov	 eax, ebx
  00027	0f 4f c6	 cmovg	 eax, esi

; 351  : 
; 352  : 	int nMaxIndex = GetMax(sourceRowIndex, targetRowIndex);
; 353  : 	//  rowSet 
; 354  : 	if(nMaxIndex >= m_RowSetList.GetCount()){

  0002a	3b c2		 cmp	 eax, edx
  0002c	7c 0c		 jl	 SHORT $LN3@MoveRowSet

; 355  : 		AddRowSet(nMaxIndex - m_RowSetList.GetCount() +1);

  0002e	2b c2		 sub	 eax, edx
  00030	40		 inc	 eax
  00031	50		 push	 eax
  00032	e8 00 00 00 00	 call	 ?AddRowSet@CColumnSet@@AAEXH@Z ; CColumnSet::AddRowSet
  00037	8b 57 14	 mov	 edx, DWORD PTR [edi+20]
$LN3@MoveRowSet:

; 356  : 	}
; 357  : 	// 
; 358  : 	int count = m_RowSetList.GetCount();
; 359  : 	CRowSet* s = m_RowSetList.GetAt(sourceRowIndex);
; 360  : 	CRowSet* t = m_RowSetList.GetAt(targetRowIndex);
; 361  : 
; 362  : 	m_RowSetList.MoveItem(sourceRowIndex, targetRowIndex);

  0003a	83 c7 04	 add	 edi, 4
; File D:\git\src\IBK\IBK_DRFN\ProjSrc\SrcChartEx\ChartAddIn\ChartAnalysisToolAddIn\Include_Chart\DequeList.h

; 264  : 		if(sourceIndex == targetIndex)

  0003d	3b f3		 cmp	 esi, ebx
  0003f	0f 84 9f 00 00
	00		 je	 $LN57@MoveRowSet

; 198  : 		if(m_deque.empty())

  00045	85 d2		 test	 edx, edx
  00047	75 05		 jne	 SHORT $LN61@MoveRowSet

; 199  : 			return NULL;

  00049	89 55 0c	 mov	 DWORD PTR _pT$1$[ebp], edx
  0004c	eb 23		 jmp	 SHORT $LN231@MoveRowSet
$LN61@MoveRowSet:
; File C:\Program Files (x86)\Microsoft Visual Studio\2019\Community\VC\Tools\MSVC\14.29.30133\include\deque

; 905  :         return _Unchecked_iterator(_Myoff(), _STD addressof(_Get_data()));

  0004e	8b 47 0c	 mov	 eax, DWORD PTR [edi+12]

; 559  :         return (_Off / _Block_size) & (_Mapsize - 1);

  00051	8b 4f 08	 mov	 ecx, DWORD PTR [edi+8]

; 202  :         _Deque_unchecked_iterator _Tmp = *this;

  00054	89 45 fc	 mov	 DWORD PTR __Tmp$6[ebp+4], eax

; 559  :         return (_Off / _Block_size) & (_Mapsize - 1);

  00057	49		 dec	 ecx

; 78   :         _Myoff += _Off;

  00058	8d 14 30	 lea	 edx, DWORD PTR [eax+esi]

; 559  :         return (_Off / _Block_size) & (_Mapsize - 1);

  0005b	8b c2		 mov	 eax, edx
  0005d	c1 e8 02	 shr	 eax, 2
  00060	23 c8		 and	 ecx, eax

; 48   :         return _Mycont->_Map[_Block][_Off];

  00062	8b 47 04	 mov	 eax, DWORD PTR [edi+4]

; 559  :         return (_Off / _Block_size) & (_Mapsize - 1);

  00065	83 e2 03	 and	 edx, 3

; 48   :         return _Mycont->_Map[_Block][_Off];

  00068	8b 04 88	 mov	 eax, DWORD PTR [eax+ecx*4]
; File D:\git\src\IBK\IBK_DRFN\ProjSrc\SrcChartEx\ChartAddIn\ChartAnalysisToolAddIn\Include_Chart\DequeList.h

; 201  : 		return m_deque[nIndex];

  0006b	8b 04 90	 mov	 eax, DWORD PTR [eax+edx*4]
  0006e	89 45 0c	 mov	 DWORD PTR _pT$1$[ebp], eax
$LN231@MoveRowSet:
; File C:\Program Files (x86)\Microsoft Visual Studio\2019\Community\VC\Tools\MSVC\14.29.30133\include\xmemory

; 1098 :         if (_Parent) { // have a parent, do adoption

  00071	8b 4f 0c	 mov	 ecx, DWORD PTR [edi+12]
  00074	85 ff		 test	 edi, edi
  00076	74 04		 je	 SHORT $LN98@MoveRowSet

; 1099 :             _Myproxy = _Parent->_Myproxy;

  00078	8b 07		 mov	 eax, DWORD PTR [edi]

; 1100 :         } else { // no future parent, just disown current parent

  0007a	eb 02		 jmp	 SHORT $LN232@MoveRowSet
$LN98@MoveRowSet:

; 1101 :             _Myproxy = nullptr;

  0007c	33 c0		 xor	 eax, eax
$LN232@MoveRowSet:
; File C:\Program Files (x86)\Microsoft Visual Studio\2019\Community\VC\Tools\MSVC\14.29.30133\include\deque

; 319  :         _Myoff += _Off;

  0007e	8d 14 31	 lea	 edx, DWORD PTR [ecx+esi]
  00081	89 45 08	 mov	 DWORD PTR $T7[ebp], eax

; 1277 :         return erase(_Where, _Next_iter(_Where));

  00084	83 ec 0c	 sub	 esp, 12			; 0000000cH
  00087	8b cc		 mov	 ecx, esp
  00089	83 ec 0c	 sub	 esp, 12			; 0000000cH
; File C:\Program Files (x86)\Microsoft Visual Studio\2019\Community\VC\Tools\MSVC\14.29.30133\include\xmemory

; 1069 :         _Myproxy = _Right._Myproxy;

  0008c	89 01		 mov	 DWORD PTR [ecx], eax
; File C:\Program Files (x86)\Microsoft Visual Studio\2019\Community\VC\Tools\MSVC\14.29.30133\include\deque

; 281  :         ++_Myoff;

  0008e	8d 42 01	 lea	 eax, DWORD PTR [edx+1]
  00091	89 41 08	 mov	 DWORD PTR [ecx+8], eax

; 1277 :         return erase(_Where, _Next_iter(_Where));

  00094	8b c4		 mov	 eax, esp
; File C:\Program Files (x86)\Microsoft Visual Studio\2019\Community\VC\Tools\MSVC\14.29.30133\include\xmemory

; 1113 :     mutable _Iterator_base12* _Mynextiter = nullptr;

  00096	c7 41 04 00 00
	00 00		 mov	 DWORD PTR [ecx+4], 0

; 1069 :         _Myproxy = _Right._Myproxy;

  0009d	8b 4d 08	 mov	 ecx, DWORD PTR $T7[ebp]
  000a0	89 08		 mov	 DWORD PTR [eax], ecx
; File C:\Program Files (x86)\Microsoft Visual Studio\2019\Community\VC\Tools\MSVC\14.29.30133\include\deque

; 1277 :         return erase(_Where, _Next_iter(_Where));

  000a2	8b cf		 mov	 ecx, edi
; File C:\Program Files (x86)\Microsoft Visual Studio\2019\Community\VC\Tools\MSVC\14.29.30133\include\xmemory

; 1113 :     mutable _Iterator_base12* _Mynextiter = nullptr;

  000a4	c7 40 04 00 00
	00 00		 mov	 DWORD PTR [eax+4], 0
  000ab	89 50 08	 mov	 DWORD PTR [eax+8], edx
; File C:\Program Files (x86)\Microsoft Visual Studio\2019\Community\VC\Tools\MSVC\14.29.30133\include\deque

; 1277 :         return erase(_Where, _Next_iter(_Where));

  000ae	8d 45 f4	 lea	 eax, DWORD PTR $T5[ebp]
  000b1	50		 push	 eax
  000b2	e8 00 00 00 00	 call	 ?erase@?$deque@PAVCRowSet@@V?$allocator@PAVCRowSet@@@std@@@std@@QAE?AV?$_Deque_iterator@V?$_Deque_val@U?$_Deque_simple_types@PAVCRowSet@@@std@@@std@@@2@V?$_Deque_const_iterator@V?$_Deque_val@U?$_Deque_simple_types@PAVCRowSet@@@std@@@std@@@2@0@Z ; std::deque<CRowSet *,std::allocator<CRowSet *> >::erase
; File D:\git\src\IBK\IBK_DRFN\ProjSrc\SrcChartEx\ChartAddIn\ChartAnalysisToolAddIn\Include_Chart\DequeList.h

; 273  : 		InsertItem(targetIndex, pT);

  000b7	8b 45 0c	 mov	 eax, DWORD PTR _pT$1$[ebp]

; 239  : 		m_deque.insert(i, pItem);

  000ba	8b cf		 mov	 ecx, edi
; File C:\Program Files (x86)\Microsoft Visual Studio\2019\Community\VC\Tools\MSVC\14.29.30133\include\deque

; 319  :         _Myoff += _Off;

  000bc	8b 77 0c	 mov	 esi, DWORD PTR [edi+12]
; File C:\Program Files (x86)\Microsoft Visual Studio\2019\Community\VC\Tools\MSVC\14.29.30133\include\xmemory

; 1099 :             _Myproxy = _Parent->_Myproxy;

  000bf	8b 17		 mov	 edx, DWORD PTR [edi]
; File C:\Program Files (x86)\Microsoft Visual Studio\2019\Community\VC\Tools\MSVC\14.29.30133\include\deque

; 319  :         _Myoff += _Off;

  000c1	03 f3		 add	 esi, ebx
; File D:\git\src\IBK\IBK_DRFN\ProjSrc\SrcChartEx\ChartAddIn\ChartAnalysisToolAddIn\Include_Chart\DequeList.h

; 273  : 		InsertItem(targetIndex, pT);

  000c3	89 45 08	 mov	 DWORD PTR _pItem$[ebp], eax

; 239  : 		m_deque.insert(i, pItem);

  000c6	8d 45 08	 lea	 eax, DWORD PTR _pItem$[ebp]
  000c9	50		 push	 eax
  000ca	83 ec 0c	 sub	 esp, 12			; 0000000cH
  000cd	8b c4		 mov	 eax, esp
; File C:\Program Files (x86)\Microsoft Visual Studio\2019\Community\VC\Tools\MSVC\14.29.30133\include\xmemory

; 1113 :     mutable _Iterator_base12* _Mynextiter = nullptr;

  000cf	c7 40 04 00 00
	00 00		 mov	 DWORD PTR [eax+4], 0

; 1069 :         _Myproxy = _Right._Myproxy;

  000d6	89 10		 mov	 DWORD PTR [eax], edx
  000d8	89 70 08	 mov	 DWORD PTR [eax+8], esi
; File D:\git\src\IBK\IBK_DRFN\ProjSrc\SrcChartEx\ChartAddIn\ChartAnalysisToolAddIn\Include_Chart\DequeList.h

; 239  : 		m_deque.insert(i, pItem);

  000db	8d 45 f4	 lea	 eax, DWORD PTR $T4[ebp]
  000de	50		 push	 eax
  000df	e8 00 00 00 00	 call	 ?insert@?$deque@PAVCRowSet@@V?$allocator@PAVCRowSet@@@std@@@std@@QAE?AV?$_Deque_iterator@V?$_Deque_val@U?$_Deque_simple_types@PAVCRowSet@@@std@@@std@@@2@V?$_Deque_const_iterator@V?$_Deque_val@U?$_Deque_simple_types@PAVCRowSet@@@std@@@std@@@2@ABQAVCRowSet@@@Z ; std::deque<CRowSet *,std::allocator<CRowSet *> >::insert
$LN57@MoveRowSet:
; File D:\git\src\IBK\IBK_DRFN\ProjSrc\SrcChartEx\ChartAddIn\ChartAnalysisToolAddIn\AnalysisTool\ColumnSet.cpp

; 366  : }

  000e4	5f		 pop	 edi
  000e5	5e		 pop	 esi
  000e6	b0 01		 mov	 al, 1
  000e8	5b		 pop	 ebx
  000e9	8b e5		 mov	 esp, ebp
  000eb	5d		 pop	 ebp
  000ec	c2 08 00	 ret	 8
?MoveRowSet_InRowSetList@CColumnSet@@AAE_NHH@Z ENDP	; CColumnSet::MoveRowSet_InRowSetList
_TEXT	ENDS
; Function compile flags: /Ogtp
; File D:\git\src\IBK\IBK_DRFN\ProjSrc\SrcChartEx\ChartAddIn\ChartAnalysisToolAddIn\AnalysisTool\ColumnSet.cpp
; File C:\Program Files (x86)\Microsoft Visual Studio\2019\Community\VC\Tools\MSVC\14.29.30133\include\deque
; File D:\git\src\IBK\IBK_DRFN\ProjSrc\SrcChartEx\ChartAddIn\ChartAnalysisToolAddIn\AnalysisTool\ColumnSet.cpp
; File C:\Program Files (x86)\Microsoft Visual Studio\2019\Community\VC\Tools\MSVC\14.29.30133\include\deque
; File C:\Program Files (x86)\Microsoft Visual Studio\2019\Community\VC\Tools\MSVC\14.29.30133\include\xmemory
; File C:\Program Files (x86)\Microsoft Visual Studio\2019\Community\VC\Tools\MSVC\14.29.30133\include\deque
; File C:\Program Files (x86)\Microsoft Visual Studio\2019\Community\VC\Tools\MSVC\14.29.30133\include\xmemory
; File C:\Program Files (x86)\Microsoft Visual Studio\2019\Community\VC\Tools\MSVC\14.29.30133\include\xutility
; File C:\Program Files (x86)\Microsoft Visual Studio\2019\Community\VC\Tools\MSVC\14.29.30133\include\deque
; File C:\Program Files (x86)\Microsoft Visual Studio\2019\Community\VC\Tools\MSVC\14.29.30133\include\xutility
; File C:\Program Files (x86)\Microsoft Visual Studio\2019\Community\VC\Tools\MSVC\14.29.30133\include\deque
; File C:\Program Files (x86)\Microsoft Visual Studio\2019\Community\VC\Tools\MSVC\14.29.30133\include\xutility
; File D:\git\src\IBK\IBK_DRFN\ProjSrc\SrcChartEx\ChartAddIn\ChartAnalysisToolAddIn\AnalysisTool\ColumnSet.cpp
; File C:\Program Files (x86)\Microsoft Visual Studio\2019\Community\VC\Tools\MSVC\14.29.30133\include\deque
; File C:\Program Files (x86)\Microsoft Visual Studio\2019\Community\VC\Tools\MSVC\14.29.30133\include\xmemory
; File C:\Program Files (x86)\Microsoft Visual Studio\2019\Community\VC\Tools\MSVC\14.29.30133\include\deque
; File C:\Program Files (x86)\Microsoft Visual Studio\2019\Community\VC\Tools\MSVC\14.29.30133\include\xmemory
; File C:\Program Files (x86)\Microsoft Visual Studio\2019\Community\VC\Tools\MSVC\14.29.30133\include\deque
; File D:\git\src\IBK\IBK_DRFN\ProjSrc\SrcChartEx\ChartAddIn\ChartAnalysisToolAddIn\AnalysisTool\ColumnSet.cpp
;	COMDAT ?DeleteRowSet@CColumnSet@@AAEXPAVCRowSet@@@Z
_TEXT	SEGMENT
$T8 = -24						; size = 12
_this$1$ = -12						; size = 4
tv806 = -8						; size = 4
tv807 = -4						; size = 4
_pRowSet$ = 8						; size = 4
?DeleteRowSet@CColumnSet@@AAEXPAVCRowSet@@@Z PROC	; CColumnSet::DeleteRowSet, COMDAT
; _this$ = ecx

; 339  : {

  00000	55		 push	 ebp
  00001	8b ec		 mov	 ebp, esp
  00003	83 ec 18	 sub	 esp, 24			; 00000018H
  00006	53		 push	 ebx
  00007	56		 push	 esi
  00008	57		 push	 edi

; 340  : 	assert(pRowSet != NULL);
; 341  : 	CRowSet::Delete(pRowSet);

  00009	ff 75 08	 push	 DWORD PTR _pRowSet$[ebp]
  0000c	8b d9		 mov	 ebx, ecx
  0000e	e8 00 00 00 00	 call	 ?Delete@CRowSet@@SAXPAV1@@Z ; CRowSet::Delete
; File C:\Program Files (x86)\Microsoft Visual Studio\2019\Community\VC\Tools\MSVC\14.29.30133\include\deque

; 897  :         return iterator(_Myoff() + _Mysize(), _STD addressof(_Get_data()));

  00013	8b 73 14	 mov	 esi, DWORD PTR [ebx+20]
; File D:\git\src\IBK\IBK_DRFN\ProjSrc\SrcChartEx\ChartAddIn\ChartAnalysisToolAddIn\AnalysisTool\ColumnSet.cpp

; 342  : 	m_RowSetList.RemoveAt(pRowSet);

  00016	83 c3 04	 add	 ebx, 4
  00019	83 c4 04	 add	 esp, 4
  0001c	89 5d f4	 mov	 DWORD PTR _this$1$[ebp], ebx
; File C:\Program Files (x86)\Microsoft Visual Studio\2019\Community\VC\Tools\MSVC\14.29.30133\include\deque

; 897  :         return iterator(_Myoff() + _Mysize(), _STD addressof(_Get_data()));

  0001f	8b 43 0c	 mov	 eax, DWORD PTR [ebx+12]
  00022	03 f0		 add	 esi, eax
; File C:\Program Files (x86)\Microsoft Visual Studio\2019\Community\VC\Tools\MSVC\14.29.30133\include\xmemory

; 1099 :             _Myproxy = _Parent->_Myproxy;

  00024	8b 3b		 mov	 edi, DWORD PTR [ebx]
; File C:\Program Files (x86)\Microsoft Visual Studio\2019\Community\VC\Tools\MSVC\14.29.30133\include\deque

; 507  :         return {this->_Myoff, this->_Getcont()};

  00026	85 ff		 test	 edi, edi
; File C:\Program Files (x86)\Microsoft Visual Studio\2019\Community\VC\Tools\MSVC\14.29.30133\include\xmemory

; 1107 :         return _Myproxy ? _Myproxy->_Mycont : nullptr;

  00028	74 04		 je	 SHORT $LN54@DeleteRowS
  0002a	8b 17		 mov	 edx, DWORD PTR [edi]
  0002c	eb 02		 jmp	 SHORT $LN55@DeleteRowS
$LN54@DeleteRowS:
  0002e	33 d2		 xor	 edx, edx
$LN55@DeleteRowS:
; File C:\Program Files (x86)\Microsoft Visual Studio\2019\Community\VC\Tools\MSVC\14.29.30133\include\xutility

; 5185 :     for (; _First != _Last; ++_First) {

  00030	3b c6		 cmp	 eax, esi
  00032	74 69		 je	 SHORT $LN113@DeleteRowS
  00034	8b 4a 08	 mov	 ecx, DWORD PTR [edx+8]
  00037	49		 dec	 ecx
  00038	89 4d fc	 mov	 DWORD PTR tv807[ebp], ecx
  0003b	8b 4a 04	 mov	 ecx, DWORD PTR [edx+4]
  0003e	89 4d f8	 mov	 DWORD PTR tv806[ebp], ecx
$LL71@DeleteRowS:
; File C:\Program Files (x86)\Microsoft Visual Studio\2019\Community\VC\Tools\MSVC\14.29.30133\include\deque

; 48   :         return _Mycont->_Map[_Block][_Off];

  00041	8b 5d f8	 mov	 ebx, DWORD PTR tv806[ebp]

; 559  :         return (_Off / _Block_size) & (_Mapsize - 1);

  00044	8b c8		 mov	 ecx, eax
  00046	c1 e9 02	 shr	 ecx, 2

; 47   :         _Size_type _Off   = _Myoff % _Block_size;

  00049	8b d0		 mov	 edx, eax

; 559  :         return (_Off / _Block_size) & (_Mapsize - 1);

  0004b	23 4d fc	 and	 ecx, DWORD PTR tv807[ebp]

; 47   :         _Size_type _Off   = _Myoff % _Block_size;

  0004e	83 e2 03	 and	 edx, 3

; 48   :         return _Mycont->_Map[_Block][_Off];

  00051	8b 0c 8b	 mov	 ecx, DWORD PTR [ebx+ecx*4]
; File C:\Program Files (x86)\Microsoft Visual Studio\2019\Community\VC\Tools\MSVC\14.29.30133\include\xutility

; 5186 :         if (*_First == _Val) {

  00054	8b 5d 08	 mov	 ebx, DWORD PTR _pRowSet$[ebp]
  00057	39 1c 91	 cmp	 DWORD PTR [ecx+edx*4], ebx
  0005a	8b 5d f4	 mov	 ebx, DWORD PTR _this$1$[ebp]
  0005d	74 0e		 je	 SHORT $LN141@DeleteRowS
; File C:\Program Files (x86)\Microsoft Visual Studio\2019\Community\VC\Tools\MSVC\14.29.30133\include\deque

; 56   :         ++_Myoff;

  0005f	40		 inc	 eax
; File C:\Program Files (x86)\Microsoft Visual Studio\2019\Community\VC\Tools\MSVC\14.29.30133\include\xutility

; 5185 :     for (; _First != _Last; ++_First) {

  00060	3b c6		 cmp	 eax, esi
  00062	75 dd		 jne	 SHORT $LL71@DeleteRowS
; File D:\git\src\IBK\IBK_DRFN\ProjSrc\SrcChartEx\ChartAddIn\ChartAnalysisToolAddIn\AnalysisTool\ColumnSet.cpp

; 343  : }

  00064	5f		 pop	 edi
  00065	5e		 pop	 esi
  00066	5b		 pop	 ebx
  00067	8b e5		 mov	 esp, ebp
  00069	5d		 pop	 ebp
  0006a	c2 04 00	 ret	 4
$LN141@DeleteRowS:
; File C:\Program Files (x86)\Microsoft Visual Studio\2019\Community\VC\Tools\MSVC\14.29.30133\include\deque

; 1277 :         return erase(_Where, _Next_iter(_Where));

  0006d	83 ec 0c	 sub	 esp, 12			; 0000000cH

; 281  :         ++_Myoff;

  00070	8d 50 01	 lea	 edx, DWORD PTR [eax+1]

; 1277 :         return erase(_Where, _Next_iter(_Where));

  00073	8b f4		 mov	 esi, esp
  00075	8b cb		 mov	 ecx, ebx
  00077	83 ec 0c	 sub	 esp, 12			; 0000000cH
  0007a	89 56 08	 mov	 DWORD PTR [esi+8], edx
  0007d	8b d4		 mov	 edx, esp
; File C:\Program Files (x86)\Microsoft Visual Studio\2019\Community\VC\Tools\MSVC\14.29.30133\include\xmemory

; 1113 :     mutable _Iterator_base12* _Mynextiter = nullptr;

  0007f	c7 46 04 00 00
	00 00		 mov	 DWORD PTR [esi+4], 0

; 1069 :         _Myproxy = _Right._Myproxy;

  00086	89 3e		 mov	 DWORD PTR [esi], edi
  00088	89 42 08	 mov	 DWORD PTR [edx+8], eax
; File C:\Program Files (x86)\Microsoft Visual Studio\2019\Community\VC\Tools\MSVC\14.29.30133\include\deque

; 1277 :         return erase(_Where, _Next_iter(_Where));

  0008b	8d 45 e8	 lea	 eax, DWORD PTR $T8[ebp]
  0008e	50		 push	 eax
; File C:\Program Files (x86)\Microsoft Visual Studio\2019\Community\VC\Tools\MSVC\14.29.30133\include\xmemory

; 1113 :     mutable _Iterator_base12* _Mynextiter = nullptr;

  0008f	c7 42 04 00 00
	00 00		 mov	 DWORD PTR [edx+4], 0

; 1069 :         _Myproxy = _Right._Myproxy;

  00096	89 3a		 mov	 DWORD PTR [edx], edi
; File C:\Program Files (x86)\Microsoft Visual Studio\2019\Community\VC\Tools\MSVC\14.29.30133\include\deque

; 1277 :         return erase(_Where, _Next_iter(_Where));

  00098	e8 00 00 00 00	 call	 ?erase@?$deque@PAVCRowSet@@V?$allocator@PAVCRowSet@@@std@@@std@@QAE?AV?$_Deque_iterator@V?$_Deque_val@U?$_Deque_simple_types@PAVCRowSet@@@std@@@std@@@2@V?$_Deque_const_iterator@V?$_Deque_val@U?$_Deque_simple_types@PAVCRowSet@@@std@@@std@@@2@0@Z ; std::deque<CRowSet *,std::allocator<CRowSet *> >::erase
$LN113@DeleteRowS:
; File D:\git\src\IBK\IBK_DRFN\ProjSrc\SrcChartEx\ChartAddIn\ChartAnalysisToolAddIn\AnalysisTool\ColumnSet.cpp

; 343  : }

  0009d	5f		 pop	 edi
  0009e	5e		 pop	 esi
  0009f	5b		 pop	 ebx
  000a0	8b e5		 mov	 esp, ebp
  000a2	5d		 pop	 ebp
  000a3	c2 04 00	 ret	 4
?DeleteRowSet@CColumnSet@@AAEXPAVCRowSet@@@Z ENDP	; CColumnSet::DeleteRowSet
_TEXT	ENDS
; Function compile flags: /Ogtp
; File D:\git\src\IBK\IBK_DRFN\ProjSrc\SrcChartEx\ChartAddIn\ChartAnalysisToolAddIn\AnalysisTool\ColumnSet.cpp
;	COMDAT ?AddElement@CColumnSet@@AAEXPAVCRowSet@@PAVCElement@@@Z
_TEXT	SEGMENT
_pRowSet$ = 8						; size = 4
_pElement$ = 12						; size = 4
?AddElement@CColumnSet@@AAEXPAVCRowSet@@PAVCElement@@@Z PROC ; CColumnSet::AddElement, COMDAT
; _this$ = ecx

; 331  : {

  00000	55		 push	 ebp
  00001	8b ec		 mov	 ebp, esp

; 332  : 	assert(pRowSet != NULL);
; 333  : 	pRowSet->AddElement(pElement);

  00003	ff 75 0c	 push	 DWORD PTR _pElement$[ebp]
  00006	8b 4d 08	 mov	 ecx, DWORD PTR _pRowSet$[ebp]
  00009	e8 00 00 00 00	 call	 ?AddElement@CRowSet@@QAEXPAVCElement@@@Z ; CRowSet::AddElement

; 334  : }

  0000e	5d		 pop	 ebp
  0000f	c2 08 00	 ret	 8
?AddElement@CColumnSet@@AAEXPAVCRowSet@@PAVCElement@@@Z ENDP ; CColumnSet::AddElement
_TEXT	ENDS
; Function compile flags: /Ogtp
; File D:\git\src\IBK\IBK_DRFN\ProjSrc\SrcChartEx\ChartAddIn\ChartAnalysisToolAddIn\AnalysisTool\ColumnSet.cpp
; File D:\git\src\IBK\IBK_DRFN\ProjSrc\SrcChartEx\ChartAddIn\ChartAnalysisToolAddIn\Include_Chart\DequeList.h
; File D:\git\src\IBK\IBK_DRFN\ProjSrc\SrcChartEx\ChartAddIn\ChartAnalysisToolAddIn\AnalysisTool\ColumnSet.cpp
; File C:\Program Files (x86)\Microsoft Visual Studio\2019\Community\VC\Tools\MSVC\14.29.30133\include\deque
; File D:\git\src\IBK\IBK_DRFN\ProjSrc\SrcChartEx\ChartAddIn\ChartAnalysisToolAddIn\Include_Chart\DequeList.h
; File D:\git\src\IBK\IBK_DRFN\ProjSrc\SrcChartEx\ChartAddIn\ChartAnalysisToolAddIn\AnalysisTool\ColumnSet.cpp
; File C:\Program Files (x86)\Microsoft Visual Studio\2019\Community\VC\Tools\MSVC\14.29.30133\include\deque
; File D:\git\src\IBK\IBK_DRFN\ProjSrc\SrcChartEx\ChartAddIn\ChartAnalysisToolAddIn\AnalysisTool\ColumnSet.cpp
; File C:\Program Files (x86)\Microsoft Visual Studio\2019\Community\VC\Tools\MSVC\14.29.30133\include\deque
; File D:\git\src\IBK\IBK_DRFN\ProjSrc\SrcChartEx\ChartAddIn\ChartAnalysisToolAddIn\Include_Chart\DequeList.h
; File D:\git\src\IBK\IBK_DRFN\ProjSrc\SrcChartEx\ChartAddIn\ChartAnalysisToolAddIn\AnalysisTool\ColumnSet.cpp
;	COMDAT ?AddElementInNewMakedRowSet@CColumnSet@@AAEXHPAVCElement@@@Z
_TEXT	SEGMENT
_pItem$ = 8						; size = 4
_rowIndex$ = 8						; size = 4
_pElement$ = 12						; size = 4
?AddElementInNewMakedRowSet@CColumnSet@@AAEXHPAVCElement@@@Z PROC ; CColumnSet::AddElementInNewMakedRowSet, COMDAT
; _this$ = ecx

; 322  : {

  00000	55		 push	 ebp
  00001	8b ec		 mov	 ebp, esp
  00003	83 ec 08	 sub	 esp, 8
  00006	56		 push	 esi

; 323  : 	AddRowSet(rowIndex - m_RowSetList.GetCount() +1);

  00007	8b 75 08	 mov	 esi, DWORD PTR _rowIndex$[ebp]
  0000a	57		 push	 edi
  0000b	8b f9		 mov	 edi, ecx
  0000d	2b 77 14	 sub	 esi, DWORD PTR [edi+20]
  00010	46		 inc	 esi

; 314  : 	for(int i = 0; i < count; i++){

  00011	85 f6		 test	 esi, esi
  00013	7e 1b		 jle	 SHORT $LN5@AddElement
  00015	53		 push	 ebx
$LL6@AddElement:

; 315  : 		CRowSet* pRowSet = CRowSet::Make();

  00016	e8 00 00 00 00	 call	 ?Make@CRowSet@@SAPAV1@XZ ; CRowSet::Make

; 316  : 		m_RowSetList.AddTail(pRowSet);

  0001b	89 45 08	 mov	 DWORD PTR _pItem$[ebp], eax
; File D:\git\src\IBK\IBK_DRFN\ProjSrc\SrcChartEx\ChartAddIn\ChartAnalysisToolAddIn\Include_Chart\DequeList.h

; 229  : 		m_deque.push_back(pItem);

  0001e	8d 4f 04	 lea	 ecx, DWORD PTR [edi+4]
  00021	8d 45 08	 lea	 eax, DWORD PTR _pItem$[ebp]
  00024	50		 push	 eax
  00025	e8 00 00 00 00	 call	 ?push_back@?$deque@PAVCRowSet@@V?$allocator@PAVCRowSet@@@std@@@std@@QAEXABQAVCRowSet@@@Z ; std::deque<CRowSet *,std::allocator<CRowSet *> >::push_back
; File D:\git\src\IBK\IBK_DRFN\ProjSrc\SrcChartEx\ChartAddIn\ChartAnalysisToolAddIn\AnalysisTool\ColumnSet.cpp

; 314  : 	for(int i = 0; i < count; i++){

  0002a	83 ee 01	 sub	 esi, 1
  0002d	75 e7		 jne	 SHORT $LL6@AddElement
  0002f	5b		 pop	 ebx
$LN5@AddElement:
; File C:\Program Files (x86)\Microsoft Visual Studio\2019\Community\VC\Tools\MSVC\14.29.30133\include\deque

; 1002 :         return _Mysize() == 0;

  00030	8b 4f 14	 mov	 ecx, DWORD PTR [edi+20]
  00033	85 c9		 test	 ecx, ecx
; File D:\git\src\IBK\IBK_DRFN\ProjSrc\SrcChartEx\ChartAddIn\ChartAnalysisToolAddIn\Include_Chart\DequeList.h

; 191  : 		if(m_deque.empty())

  00035	75 10		 jne	 SHORT $LN11@AddElement
; File D:\git\src\IBK\IBK_DRFN\ProjSrc\SrcChartEx\ChartAddIn\ChartAnalysisToolAddIn\AnalysisTool\ColumnSet.cpp

; 333  : 	pRowSet->AddElement(pElement);

  00037	ff 75 0c	 push	 DWORD PTR _pElement$[ebp]
  0003a	e8 00 00 00 00	 call	 ?AddElement@CRowSet@@QAEXPAVCElement@@@Z ; CRowSet::AddElement
  0003f	5f		 pop	 edi
  00040	5e		 pop	 esi

; 324  : 	CRowSet* pRowSet = m_RowSetList.GetTail();
; 325  : 	assert(pRowSet != NULL);
; 326  : 	AddElement(pRowSet, pElement);
; 327  : }

  00041	8b e5		 mov	 esp, ebp
  00043	5d		 pop	 ebp
  00044	c2 08 00	 ret	 8
$LN11@AddElement:
; File C:\Program Files (x86)\Microsoft Visual Studio\2019\Community\VC\Tools\MSVC\14.29.30133\include\deque

; 917  :         return _Unchecked_const_iterator(_Myoff() + _Mysize(), _STD addressof(_Get_data()));

  00047	8b 47 10	 mov	 eax, DWORD PTR [edi+16]
; File D:\git\src\IBK\IBK_DRFN\ProjSrc\SrcChartEx\ChartAddIn\ChartAnalysisToolAddIn\AnalysisTool\ColumnSet.cpp

; 333  : 	pRowSet->AddElement(pElement);

  0004a	ff 75 0c	 push	 DWORD PTR _pElement$[ebp]
; File C:\Program Files (x86)\Microsoft Visual Studio\2019\Community\VC\Tools\MSVC\14.29.30133\include\deque

; 917  :         return _Unchecked_const_iterator(_Myoff() + _Mysize(), _STD addressof(_Get_data()));

  0004d	03 c1		 add	 eax, ecx

; 67   :         --_Myoff;

  0004f	8d 50 ff	 lea	 edx, DWORD PTR [eax-1]

; 559  :         return (_Off / _Block_size) & (_Mapsize - 1);

  00052	8b 47 0c	 mov	 eax, DWORD PTR [edi+12]
  00055	8b ca		 mov	 ecx, edx
  00057	48		 dec	 eax
  00058	c1 e9 02	 shr	 ecx, 2

; 48   :         return _Mycont->_Map[_Block][_Off];

  0005b	83 e2 03	 and	 edx, 3

; 559  :         return (_Off / _Block_size) & (_Mapsize - 1);

  0005e	23 c8		 and	 ecx, eax
; File D:\git\src\IBK\IBK_DRFN\ProjSrc\SrcChartEx\ChartAddIn\ChartAnalysisToolAddIn\Include_Chart\DequeList.h

; 193  : 		return m_deque.back();

  00060	8b 47 08	 mov	 eax, DWORD PTR [edi+8]
  00063	8b 04 88	 mov	 eax, DWORD PTR [eax+ecx*4]
  00066	8b 0c 90	 mov	 ecx, DWORD PTR [eax+edx*4]
; File D:\git\src\IBK\IBK_DRFN\ProjSrc\SrcChartEx\ChartAddIn\ChartAnalysisToolAddIn\AnalysisTool\ColumnSet.cpp

; 333  : 	pRowSet->AddElement(pElement);

  00069	e8 00 00 00 00	 call	 ?AddElement@CRowSet@@QAEXPAVCElement@@@Z ; CRowSet::AddElement
  0006e	5f		 pop	 edi
  0006f	5e		 pop	 esi

; 324  : 	CRowSet* pRowSet = m_RowSetList.GetTail();
; 325  : 	assert(pRowSet != NULL);
; 326  : 	AddElement(pRowSet, pElement);
; 327  : }

  00070	8b e5		 mov	 esp, ebp
  00072	5d		 pop	 ebp
  00073	c2 08 00	 ret	 8
?AddElementInNewMakedRowSet@CColumnSet@@AAEXHPAVCElement@@@Z ENDP ; CColumnSet::AddElementInNewMakedRowSet
_TEXT	ENDS
; Function compile flags: /Ogtp
; File D:\git\src\IBK\IBK_DRFN\ProjSrc\SrcChartEx\ChartAddIn\ChartAnalysisToolAddIn\AnalysisTool\ColumnSet.cpp
; File D:\git\src\IBK\IBK_DRFN\ProjSrc\SrcChartEx\ChartAddIn\ChartAnalysisToolAddIn\Include_Chart\DequeList.h
; File D:\git\src\IBK\IBK_DRFN\ProjSrc\SrcChartEx\ChartAddIn\ChartAnalysisToolAddIn\AnalysisTool\ColumnSet.cpp
;	COMDAT ?AddRowSet@CColumnSet@@AAEXH@Z
_TEXT	SEGMENT
_pItem$ = 8						; size = 4
_count$ = 8						; size = 4
?AddRowSet@CColumnSet@@AAEXH@Z PROC			; CColumnSet::AddRowSet, COMDAT
; _this$ = ecx

; 313  : {

  00000	55		 push	 ebp
  00001	8b ec		 mov	 ebp, esp
  00003	56		 push	 esi

; 314  : 	for(int i = 0; i < count; i++){

  00004	8b 75 08	 mov	 esi, DWORD PTR _count$[ebp]
  00007	85 f6		 test	 esi, esi
  00009	7e 1e		 jle	 SHORT $LN3@AddRowSet
  0000b	57		 push	 edi
  0000c	8d 79 04	 lea	 edi, DWORD PTR [ecx+4]
  0000f	90		 npad	 1
$LL4@AddRowSet:

; 315  : 		CRowSet* pRowSet = CRowSet::Make();

  00010	e8 00 00 00 00	 call	 ?Make@CRowSet@@SAPAV1@XZ ; CRowSet::Make

; 316  : 		m_RowSetList.AddTail(pRowSet);

  00015	89 45 08	 mov	 DWORD PTR _pItem$[ebp], eax
; File D:\git\src\IBK\IBK_DRFN\ProjSrc\SrcChartEx\ChartAddIn\ChartAnalysisToolAddIn\Include_Chart\DequeList.h

; 229  : 		m_deque.push_back(pItem);

  00018	8b cf		 mov	 ecx, edi
  0001a	8d 45 08	 lea	 eax, DWORD PTR _pItem$[ebp]
  0001d	50		 push	 eax
  0001e	e8 00 00 00 00	 call	 ?push_back@?$deque@PAVCRowSet@@V?$allocator@PAVCRowSet@@@std@@@std@@QAEXABQAVCRowSet@@@Z ; std::deque<CRowSet *,std::allocator<CRowSet *> >::push_back
; File D:\git\src\IBK\IBK_DRFN\ProjSrc\SrcChartEx\ChartAddIn\ChartAnalysisToolAddIn\AnalysisTool\ColumnSet.cpp

; 314  : 	for(int i = 0; i < count; i++){

  00023	83 ee 01	 sub	 esi, 1
  00026	75 e8		 jne	 SHORT $LL4@AddRowSet
  00028	5f		 pop	 edi
$LN3@AddRowSet:
  00029	5e		 pop	 esi

; 317  : 	}
; 318  : }

  0002a	5d		 pop	 ebp
  0002b	c2 04 00	 ret	 4
?AddRowSet@CColumnSet@@AAEXH@Z ENDP			; CColumnSet::AddRowSet
_TEXT	ENDS
; Function compile flags: /Ogtp
; File C:\Program Files (x86)\Microsoft Visual Studio\2019\Community\VC\Tools\MSVC\14.29.30133\include\deque
; File C:\Program Files (x86)\Microsoft Visual Studio\2019\Community\VC\Tools\MSVC\14.29.30133\include\xmemory
; File C:\Program Files (x86)\Microsoft Visual Studio\2019\Community\VC\Tools\MSVC\14.29.30133\include\deque
; File C:\Program Files (x86)\Microsoft Visual Studio\2019\Community\VC\Tools\MSVC\14.29.30133\include\xmemory
; File C:\Program Files (x86)\Microsoft Visual Studio\2019\Community\VC\Tools\MSVC\14.29.30133\include\deque
; File C:\Program Files (x86)\Microsoft Visual Studio\2019\Community\VC\Tools\MSVC\14.29.30133\include\xmemory
; File C:\Program Files (x86)\Microsoft Visual Studio\2019\Community\VC\Tools\MSVC\14.29.30133\include\deque
;	COMDAT ?_Tidy@?$deque@PAVCRowSet@@V?$allocator@PAVCRowSet@@@std@@@std@@AAEXXZ
_TEXT	SEGMENT
?_Tidy@?$deque@PAVCRowSet@@V?$allocator@PAVCRowSet@@@std@@@std@@AAEXXZ PROC ; std::deque<CRowSet *,std::allocator<CRowSet *> >::_Tidy, COMDAT
; _this$ = ecx

; 1471 :     void _Tidy() noexcept { // free all storage

  00000	57		 push	 edi
  00001	8b f9		 mov	 edi, ecx

; 1002 :         return _Mysize() == 0;

  00003	8b 4f 10	 mov	 ecx, DWORD PTR [edi+16]
  00006	85 c9		 test	 ecx, ecx

; 1472 :         _Orphan_all();
; 1473 : 
; 1474 :         _Alpty _Almap(_Getal());
; 1475 :         while (!empty()) {

  00008	74 15		 je	 SHORT $LN60@Tidy
  0000a	66 0f 1f 44 00
	00		 npad	 6
$LL2@Tidy:

; 1146 :         if (--_Mysize() == 0) {

  00010	8d 41 ff	 lea	 eax, DWORD PTR [ecx-1]
  00013	89 47 10	 mov	 DWORD PTR [edi+16], eax
  00016	8b c8		 mov	 ecx, eax
  00018	85 c0		 test	 eax, eax
  0001a	75 f4		 jne	 SHORT $LL2@Tidy

; 1147 :             _Myoff() = 0;

  0001c	89 47 0c	 mov	 DWORD PTR [edi+12], eax
$LN60@Tidy:
  0001f	56		 push	 esi

; 1479 :         for (size_type _Block = _Mapsize(); 0 < _Block;) { // free storage for a block and destroy pointer

  00020	8b 77 08	 mov	 esi, DWORD PTR [edi+8]
  00023	85 f6		 test	 esi, esi
  00025	74 1a		 je	 SHORT $LN5@Tidy
$LL4@Tidy:

; 1480 :             if (_Map()[--_Block]) { // free block and destroy its pointer

  00027	8b 47 04	 mov	 eax, DWORD PTR [edi+4]
  0002a	4e		 dec	 esi
  0002b	8b 04 b0	 mov	 eax, DWORD PTR [eax+esi*4]
  0002e	85 c0		 test	 eax, eax
  00030	74 0b		 je	 SHORT $LN23@Tidy
; File C:\Program Files (x86)\Microsoft Visual Studio\2019\Community\VC\Tools\MSVC\14.29.30133\include\xmemory

; 255  :         ::operator delete(_Ptr, _Bytes);

  00032	6a 10		 push	 16			; 00000010H
  00034	50		 push	 eax
  00035	e8 00 00 00 00	 call	 ??3@YAXPAXI@Z		; operator delete
  0003a	83 c4 08	 add	 esp, 8
$LN23@Tidy:
; File C:\Program Files (x86)\Microsoft Visual Studio\2019\Community\VC\Tools\MSVC\14.29.30133\include\deque

; 1479 :         for (size_type _Block = _Mapsize(); 0 < _Block;) { // free storage for a block and destroy pointer

  0003d	85 f6		 test	 esi, esi
  0003f	75 e6		 jne	 SHORT $LL4@Tidy
$LN5@Tidy:

; 1481 :                 _Getal().deallocate(_Map()[_Block], _Block_size);
; 1482 :                 _Destroy_in_place(_Map()[_Block]);
; 1483 :             }
; 1484 :         }
; 1485 : 
; 1486 :         if (_Map() != _Mapptr()) {

  00041	8b 47 04	 mov	 eax, DWORD PTR [edi+4]
  00044	5e		 pop	 esi
  00045	85 c0		 test	 eax, eax
  00047	74 2a		 je	 SHORT $LN41@Tidy
; File C:\Program Files (x86)\Microsoft Visual Studio\2019\Community\VC\Tools\MSVC\14.29.30133\include\xmemory

; 797  :         _Deallocate<_New_alignof<_Ty>>(_Ptr, sizeof(_Ty) * _Count);

  00049	8b 4f 08	 mov	 ecx, DWORD PTR [edi+8]
  0004c	c1 e1 02	 shl	 ecx, 2

; 251  :         if (_Bytes >= _Big_allocation_threshold) { // boost the alignment of big allocations to help autovectorization

  0004f	81 f9 00 10 00
	00		 cmp	 ecx, 4096		; 00001000H
  00055	72 12		 jb	 SHORT $LN51@Tidy

; 150  :     const uintptr_t _Ptr_container   = _Ptr_user[-1];

  00057	8b 50 fc	 mov	 edx, DWORD PTR [eax-4]
  0005a	83 c1 23	 add	 ecx, 35			; 00000023H

; 151  : 
; 152  :     // If the following asserts, it likely means that we are performing
; 153  :     // an aligned delete on memory coming from an unaligned allocation.
; 154  :     _STL_ASSERT(_Ptr_user[-2] == _Big_allocation_sentinel, "invalid argument");
; 155  : 
; 156  :     // Extra paranoia on aligned allocation/deallocation; ensure _Ptr_container is
; 157  :     // in range [_Min_back_shift, _Non_user_size]
; 158  : #ifdef _DEBUG
; 159  :     constexpr uintptr_t _Min_back_shift = 2 * sizeof(void*);
; 160  : #else // ^^^ _DEBUG ^^^ // vvv !_DEBUG vvv
; 161  :     constexpr uintptr_t _Min_back_shift = sizeof(void*);
; 162  : #endif // _DEBUG
; 163  :     const uintptr_t _Back_shift = reinterpret_cast<uintptr_t>(_Ptr) - _Ptr_container;

  0005d	2b c2		 sub	 eax, edx

; 164  :     _STL_VERIFY(_Back_shift >= _Min_back_shift && _Back_shift <= _Non_user_size, "invalid argument");

  0005f	83 c0 fc	 add	 eax, -4			; fffffffcH
  00062	83 f8 1f	 cmp	 eax, 31			; 0000001fH
  00065	77 1c		 ja	 SHORT $LN48@Tidy

; 165  :     _Ptr = reinterpret_cast<void*>(_Ptr_container);

  00067	8b c2		 mov	 eax, edx
$LN51@Tidy:

; 255  :         ::operator delete(_Ptr, _Bytes);

  00069	51		 push	 ecx
  0006a	50		 push	 eax
  0006b	e8 00 00 00 00	 call	 ??3@YAXPAXI@Z		; operator delete
  00070	83 c4 08	 add	 esp, 8
$LN41@Tidy:
; File C:\Program Files (x86)\Microsoft Visual Studio\2019\Community\VC\Tools\MSVC\14.29.30133\include\deque

; 1490 :         _Mapsize() = 0;

  00073	c7 47 08 00 00
	00 00		 mov	 DWORD PTR [edi+8], 0

; 1491 :         _Map()     = _Mapptr();

  0007a	c7 47 04 00 00
	00 00		 mov	 DWORD PTR [edi+4], 0
  00081	5f		 pop	 edi

; 1492 :     }

  00082	c3		 ret	 0
$LN48@Tidy:
; File C:\Program Files (x86)\Microsoft Visual Studio\2019\Community\VC\Tools\MSVC\14.29.30133\include\xmemory

; 164  :     _STL_VERIFY(_Back_shift >= _Min_back_shift && _Back_shift <= _Non_user_size, "invalid argument");

  00083	ff 15 00 00 00
	00		 call	 DWORD PTR __imp___invalid_parameter_noinfo_noreturn
$LN62@Tidy:
  00089	cc		 int	 3
?_Tidy@?$deque@PAVCRowSet@@V?$allocator@PAVCRowSet@@@std@@@std@@AAEXXZ ENDP ; std::deque<CRowSet *,std::allocator<CRowSet *> >::_Tidy
_TEXT	ENDS
; Function compile flags: /Ogtp
; File C:\Program Files (x86)\Microsoft Visual Studio\2019\Community\VC\Tools\MSVC\14.29.30133\include\deque
; File C:\Program Files (x86)\Microsoft Visual Studio\2019\Community\VC\Tools\MSVC\14.29.30133\include\xmemory
; File C:\Program Files (x86)\Microsoft Visual Studio\2019\Community\VC\Tools\MSVC\14.29.30133\include\deque
; File C:\Program Files (x86)\Microsoft Visual Studio\2019\Community\VC\Tools\MSVC\14.29.30133\include\xutility
; File C:\Program Files (x86)\Microsoft Visual Studio\2019\Community\VC\Tools\MSVC\14.29.30133\include\deque
; File C:\Program Files (x86)\Microsoft Visual Studio\2019\Community\VC\Tools\MSVC\14.29.30133\include\xutility
; File C:\Program Files (x86)\Microsoft Visual Studio\2019\Community\VC\Tools\MSVC\14.29.30133\include\deque
; File C:\Program Files (x86)\Microsoft Visual Studio\2019\Community\VC\Tools\MSVC\14.29.30133\include\xutility
; File C:\Program Files (x86)\Microsoft Visual Studio\2019\Community\VC\Tools\MSVC\14.29.30133\include\deque
; File C:\Program Files (x86)\Microsoft Visual Studio\2019\Community\VC\Tools\MSVC\14.29.30133\include\xutility
; File C:\Program Files (x86)\Microsoft Visual Studio\2019\Community\VC\Tools\MSVC\14.29.30133\include\xmemory
; File C:\Program Files (x86)\Microsoft Visual Studio\2019\Community\VC\Tools\MSVC\14.29.30133\include\xutility
; File C:\Program Files (x86)\Microsoft Visual Studio\2019\Community\VC\Tools\MSVC\14.29.30133\include\xmemory
; File C:\Program Files (x86)\Microsoft Visual Studio\2019\Community\VC\Tools\MSVC\14.29.30133\include\xutility
; File C:\Program Files (x86)\Microsoft Visual Studio\2019\Community\VC\Tools\MSVC\14.29.30133\include\xmemory
; File C:\Program Files (x86)\Microsoft Visual Studio\2019\Community\VC\Tools\MSVC\14.29.30133\include\deque
; File C:\Program Files (x86)\Microsoft Visual Studio\2019\Community\VC\Tools\MSVC\14.29.30133\include\xutility
; File C:\Program Files (x86)\Microsoft Visual Studio\2019\Community\VC\Tools\MSVC\14.29.30133\include\deque
; File C:\Program Files (x86)\Microsoft Visual Studio\2019\Community\VC\Tools\MSVC\14.29.30133\include\xutility
; File C:\Program Files (x86)\Microsoft Visual Studio\2019\Community\VC\Tools\MSVC\14.29.30133\include\deque
; File C:\Program Files (x86)\Microsoft Visual Studio\2019\Community\VC\Tools\MSVC\14.29.30133\include\xutility
; File C:\Program Files (x86)\Microsoft Visual Studio\2019\Community\VC\Tools\MSVC\14.29.30133\include\xmemory
; File C:\Program Files (x86)\Microsoft Visual Studio\2019\Community\VC\Tools\MSVC\14.29.30133\include\xutility
; File C:\Program Files (x86)\Microsoft Visual Studio\2019\Community\VC\Tools\MSVC\14.29.30133\include\xmemory
; File C:\Program Files (x86)\Microsoft Visual Studio\2019\Community\VC\Tools\MSVC\14.29.30133\include\xutility
; File C:\Program Files (x86)\Microsoft Visual Studio\2019\Community\VC\Tools\MSVC\14.29.30133\include\xmemory
; File C:\Program Files (x86)\Microsoft Visual Studio\2019\Community\VC\Tools\MSVC\14.29.30133\include\deque
; File C:\Program Files (x86)\Microsoft Visual Studio\2019\Community\VC\Tools\MSVC\14.29.30133\include\xmemory
; File C:\Program Files (x86)\Microsoft Visual Studio\2019\Community\VC\Tools\MSVC\14.29.30133\include\deque
; File C:\Program Files (x86)\Microsoft Visual Studio\2019\Community\VC\Tools\MSVC\14.29.30133\include\xmemory
; File C:\Program Files (x86)\Microsoft Visual Studio\2019\Community\VC\Tools\MSVC\14.29.30133\include\deque
; File C:\Program Files (x86)\Microsoft Visual Studio\2019\Community\VC\Tools\MSVC\14.29.30133\include\xmemory
; File C:\Program Files (x86)\Microsoft Visual Studio\2019\Community\VC\Tools\MSVC\14.29.30133\include\deque
;	COMDAT ?_Growmap@?$deque@PAVCRowSet@@V?$allocator@PAVCRowSet@@@std@@@std@@AAEXI@Z
_TEXT	SEGMENT
__Myptr$1$ = -16					; size = 4
__Myboff$1$ = -12					; size = 4
_this$1$ = -8						; size = 4
__Count$1$ = -4						; size = 4
$T1 = 8							; size = 4
__Count$ = 8						; size = 4
?_Growmap@?$deque@PAVCRowSet@@V?$allocator@PAVCRowSet@@@std@@@std@@AAEXI@Z PROC ; std::deque<CRowSet *,std::allocator<CRowSet *> >::_Growmap, COMDAT
; _this$ = ecx

; 1432 :     void _Growmap(size_type _Count) { // grow map by at least _Count pointers, _Mapsize() a power of 2

  00000	55		 push	 ebp
  00001	8b ec		 mov	 ebp, esp
  00003	83 ec 10	 sub	 esp, 16			; 00000010H
  00006	53		 push	 ebx
  00007	56		 push	 esi
  00008	8b f1		 mov	 esi, ecx

; 1433 :         static_assert(1 < _Minimum_map_size, "The _Xlen() test should always be performed.");
; 1434 : 
; 1435 :         _Alpty _Almap(_Getal());
; 1436 :         size_type _Newsize = 0 < _Mapsize() ? _Mapsize() : 1;

  0000a	b8 01 00 00 00	 mov	 eax, 1
  0000f	57		 push	 edi
  00010	8b 7d 08	 mov	 edi, DWORD PTR __Count$[ebp]
  00013	89 75 f8	 mov	 DWORD PTR _this$1$[ebp], esi
  00016	8b 56 08	 mov	 edx, DWORD PTR [esi+8]
  00019	85 d2		 test	 edx, edx
  0001b	0f 45 c2	 cmovne	 eax, edx
  0001e	66 90		 npad	 2
$LL2@Growmap:

; 1437 :         while (_Newsize - _Mapsize() < _Count || _Newsize < _Minimum_map_size) {

  00020	8b d8		 mov	 ebx, eax
  00022	2b da		 sub	 ebx, edx
  00024	3b df		 cmp	 ebx, edi
  00026	72 05		 jb	 SHORT $LN4@Growmap
  00028	83 f8 08	 cmp	 eax, 8
  0002b	73 13		 jae	 SHORT $LN3@Growmap
$LN4@Growmap:

; 1438 :             // scale _Newsize to 2^N >= _Mapsize() + _Count
; 1439 :             if (max_size() / _Block_size - _Newsize < _Newsize) {

  0002d	b9 ff ff ff 0f	 mov	 ecx, 268435455		; 0fffffffH
  00032	2b c8		 sub	 ecx, eax
  00034	3b c8		 cmp	 ecx, eax
  00036	0f 82 49 01 00
	00		 jb	 $LN138@Growmap

; 1441 :             }
; 1442 : 
; 1443 :             _Newsize *= 2;

  0003c	03 c0		 add	 eax, eax

; 1444 :         }

  0003e	eb e0		 jmp	 SHORT $LL2@Growmap
$LN3@Growmap:

; 1445 :         _Count = _Newsize - _Mapsize();
; 1446 : 
; 1447 :         size_type _Myboff = _Myoff() / _Block_size;

  00040	8b 7e 0c	 mov	 edi, DWORD PTR [esi+12]
  00043	c1 ef 02	 shr	 edi, 2
  00046	89 7d f4	 mov	 DWORD PTR __Myboff$1$[ebp], edi
; File C:\Program Files (x86)\Microsoft Visual Studio\2019\Community\VC\Tools\MSVC\14.29.30133\include\xmemory

; 60   :         if (_Count > _Max_possible) {

  00049	3d ff ff ff 3f	 cmp	 eax, 1073741823		; 3fffffffH
  0004e	0f 87 38 01 00
	00		 ja	 $LN142@Growmap

; 61   :             _Throw_bad_array_new_length(); // multiply overflow
; 62   :         }
; 63   :     }
; 64   : 
; 65   :     return _Count * _Ty_size;

  00054	c1 e0 02	 shl	 eax, 2

; 228  :         if (_Bytes >= _Big_allocation_threshold) { // boost the alignment of big allocations to help autovectorization

  00057	3d 00 10 00 00	 cmp	 eax, 4096		; 00001000H
  0005c	72 27		 jb	 SHORT $LN19@Growmap

; 129  :     const size_t _Block_size = _Non_user_size + _Bytes;

  0005e	8d 48 23	 lea	 ecx, DWORD PTR [eax+35]

; 130  :     if (_Block_size <= _Bytes) {

  00061	3b c8		 cmp	 ecx, eax
  00063	0f 86 23 01 00
	00		 jbe	 $LN142@Growmap

; 79   :         return ::operator new(_Bytes);

  00069	51		 push	 ecx
  0006a	e8 00 00 00 00	 call	 ??2@YAPAXI@Z		; operator new
  0006f	83 c4 04	 add	 esp, 4

; 135  :     _STL_VERIFY(_Ptr_container != 0, "invalid argument"); // validate even in release since we're doing p[-1]

  00072	85 c0		 test	 eax, eax
  00074	0f 84 05 01 00
	00		 je	 $LN130@Growmap

; 136  :     void* const _Ptr = reinterpret_cast<void*>((_Ptr_container + _Non_user_size) & ~(_Big_allocation_alignment - 1));

  0007a	8d 50 23	 lea	 edx, DWORD PTR [eax+35]
  0007d	83 e2 e0	 and	 edx, -32		; ffffffe0H

; 137  :     static_cast<uintptr_t*>(_Ptr)[-1] = _Ptr_container;

  00080	89 42 fc	 mov	 DWORD PTR [edx-4], eax

; 229  :             return _Allocate_manually_vector_aligned<_Traits>(_Bytes);

  00083	eb 13		 jmp	 SHORT $LN145@Growmap
$LN19@Growmap:

; 230  :         }
; 231  :     }
; 232  : #endif // defined(_M_IX86) || defined(_M_X64)
; 233  : 
; 234  :     if (_Bytes != 0) {

  00085	85 c0		 test	 eax, eax
  00087	74 0d		 je	 SHORT $LN20@Growmap

; 79   :         return ::operator new(_Bytes);

  00089	50		 push	 eax
  0008a	e8 00 00 00 00	 call	 ??2@YAPAXI@Z		; operator new
  0008f	83 c4 04	 add	 esp, 4

; 235  :         return _Traits::_Allocate(_Bytes);

  00092	8b d0		 mov	 edx, eax
  00094	eb 02		 jmp	 SHORT $LN145@Growmap
$LN20@Growmap:

; 236  :     }
; 237  : 
; 238  :     return nullptr;

  00096	33 d2		 xor	 edx, edx
$LN145@Growmap:
; File C:\Program Files (x86)\Microsoft Visual Studio\2019\Community\VC\Tools\MSVC\14.29.30133\include\deque

; 1451 :         _Myptr = _STD uninitialized_copy(_Map() + _Myboff, _Map() + _Mapsize(), _Myptr); // copy initial to end

  00098	8b 46 04	 mov	 eax, DWORD PTR [esi+4]
  0009b	8b 76 08	 mov	 esi, DWORD PTR [esi+8]
  0009e	c1 e7 02	 shl	 edi, 2
  000a1	c1 e6 02	 shl	 esi, 2
  000a4	89 7d fc	 mov	 DWORD PTR __Count$1$[ebp], edi
  000a7	89 55 08	 mov	 DWORD PTR $T1[ebp], edx
  000aa	8d 0c 38	 lea	 ecx, DWORD PTR [eax+edi]
  000ad	03 fa		 add	 edi, edx
; File C:\Program Files (x86)\Microsoft Visual Studio\2019\Community\VC\Tools\MSVC\14.29.30133\include\xutility

; 4065 :     const auto _Count           = static_cast<size_t>(_Last_ch - _First_ch);

  000af	2b f1		 sub	 esi, ecx
; File C:\Program Files (x86)\Microsoft Visual Studio\2019\Community\VC\Tools\MSVC\14.29.30133\include\deque

; 1451 :         _Myptr = _STD uninitialized_copy(_Map() + _Myboff, _Map() + _Mapsize(), _Myptr); // copy initial to end

  000b1	03 f0		 add	 esi, eax
; File C:\Program Files (x86)\Microsoft Visual Studio\2019\Community\VC\Tools\MSVC\14.29.30133\include\xutility

; 4066 :     _CSTD memmove(_Dest_ch, _First_ch, _Count);

  000b3	56		 push	 esi
  000b4	51		 push	 ecx
  000b5	57		 push	 edi
  000b6	e8 00 00 00 00	 call	 _memmove

; 4068 :         return reinterpret_cast<_OutCtgIt>(_Dest_ch + _Count);

  000bb	8d 04 3e	 lea	 eax, DWORD PTR [esi+edi]
  000be	83 c4 0c	 add	 esp, 12			; 0000000cH
; File C:\Program Files (x86)\Microsoft Visual Studio\2019\Community\VC\Tools\MSVC\14.29.30133\include\deque

; 1451 :         _Myptr = _STD uninitialized_copy(_Map() + _Myboff, _Map() + _Mapsize(), _Myptr); // copy initial to end

  000c1	8b 75 f8	 mov	 esi, DWORD PTR _this$1$[ebp]

; 1452 :         if (_Myboff <= _Count) { // increment greater than offset of initial block

  000c4	8b 7d f4	 mov	 edi, DWORD PTR __Myboff$1$[ebp]
; File C:\Program Files (x86)\Microsoft Visual Studio\2019\Community\VC\Tools\MSVC\14.29.30133\include\xutility

; 4068 :         return reinterpret_cast<_OutCtgIt>(_Dest_ch + _Count);

  000c7	89 45 f0	 mov	 DWORD PTR __Myptr$1$[ebp], eax
; File C:\Program Files (x86)\Microsoft Visual Studio\2019\Community\VC\Tools\MSVC\14.29.30133\include\deque

; 1451 :         _Myptr = _STD uninitialized_copy(_Map() + _Myboff, _Map() + _Mapsize(), _Myptr); // copy initial to end

  000ca	8b 56 04	 mov	 edx, DWORD PTR [esi+4]

; 1452 :         if (_Myboff <= _Count) { // increment greater than offset of initial block

  000cd	3b fb		 cmp	 edi, ebx
  000cf	77 35		 ja	 SHORT $LN6@Growmap
; File C:\Program Files (x86)\Microsoft Visual Studio\2019\Community\VC\Tools\MSVC\14.29.30133\include\xutility

; 4066 :     _CSTD memmove(_Dest_ch, _First_ch, _Count);

  000d1	8d 0c bd 00 00
	00 00		 lea	 ecx, DWORD PTR [edi*4]
  000d8	51		 push	 ecx
  000d9	52		 push	 edx
  000da	50		 push	 eax
  000db	e8 00 00 00 00	 call	 _memmove
; File C:\Program Files (x86)\Microsoft Visual Studio\2019\Community\VC\Tools\MSVC\14.29.30133\include\xmemory

; 1792 :     _CSTD memset(_First_ch, 0, static_cast<size_t>(_Last_ch - _First_ch));

  000e0	8b c3		 mov	 eax, ebx
  000e2	2b c7		 sub	 eax, edi
; File C:\Program Files (x86)\Microsoft Visual Studio\2019\Community\VC\Tools\MSVC\14.29.30133\include\xutility

; 4068 :         return reinterpret_cast<_OutCtgIt>(_Dest_ch + _Count);

  000e4	8b 7d fc	 mov	 edi, DWORD PTR __Count$1$[ebp]
; File C:\Program Files (x86)\Microsoft Visual Studio\2019\Community\VC\Tools\MSVC\14.29.30133\include\xmemory

; 1792 :     _CSTD memset(_First_ch, 0, static_cast<size_t>(_Last_ch - _First_ch));

  000e7	c1 e0 02	 shl	 eax, 2
  000ea	50		 push	 eax
; File C:\Program Files (x86)\Microsoft Visual Studio\2019\Community\VC\Tools\MSVC\14.29.30133\include\xutility

; 4068 :         return reinterpret_cast<_OutCtgIt>(_Dest_ch + _Count);

  000eb	8b 45 f0	 mov	 eax, DWORD PTR __Myptr$1$[ebp]
  000ee	03 c7		 add	 eax, edi
; File C:\Program Files (x86)\Microsoft Visual Studio\2019\Community\VC\Tools\MSVC\14.29.30133\include\xmemory

; 1792 :     _CSTD memset(_First_ch, 0, static_cast<size_t>(_Last_ch - _First_ch));

  000f0	6a 00		 push	 0
  000f2	50		 push	 eax
  000f3	e8 00 00 00 00	 call	 _memset
  000f8	57		 push	 edi
  000f9	8b 7d 08	 mov	 edi, DWORD PTR $T1[ebp]
  000fc	6a 00		 push	 0
  000fe	57		 push	 edi
  000ff	e8 00 00 00 00	 call	 _memset
; File C:\Program Files (x86)\Microsoft Visual Studio\2019\Community\VC\Tools\MSVC\14.29.30133\include\deque

; 1456 :         } else { // increment not greater than offset of initial block

  00104	eb 36		 jmp	 SHORT $LN146@Growmap
$LN6@Growmap:

; 1457 :             _STD uninitialized_copy(_Map(), _Map() + _Count, _Myptr); // copy more old

  00106	8d 3c 9d 00 00
	00 00		 lea	 edi, DWORD PTR [ebx*4]
; File C:\Program Files (x86)\Microsoft Visual Studio\2019\Community\VC\Tools\MSVC\14.29.30133\include\xutility

; 4066 :     _CSTD memmove(_Dest_ch, _First_ch, _Count);

  0010d	57		 push	 edi
  0010e	52		 push	 edx
  0010f	50		 push	 eax
  00110	e8 00 00 00 00	 call	 _memmove
; File C:\Program Files (x86)\Microsoft Visual Studio\2019\Community\VC\Tools\MSVC\14.29.30133\include\deque

; 1458 :             _Myptr = _STD uninitialized_copy(_Map() + _Count, _Map() + _Myboff, _Newmap); // copy rest of old

  00115	8b 76 04	 mov	 esi, DWORD PTR [esi+4]
  00118	8d 04 37	 lea	 eax, DWORD PTR [edi+esi]
; File C:\Program Files (x86)\Microsoft Visual Studio\2019\Community\VC\Tools\MSVC\14.29.30133\include\xutility

; 4065 :     const auto _Count           = static_cast<size_t>(_Last_ch - _First_ch);

  0011b	2b f0		 sub	 esi, eax
; File C:\Program Files (x86)\Microsoft Visual Studio\2019\Community\VC\Tools\MSVC\14.29.30133\include\deque

; 1458 :             _Myptr = _STD uninitialized_copy(_Map() + _Count, _Map() + _Myboff, _Newmap); // copy rest of old

  0011d	03 75 fc	 add	 esi, DWORD PTR __Count$1$[ebp]
; File C:\Program Files (x86)\Microsoft Visual Studio\2019\Community\VC\Tools\MSVC\14.29.30133\include\xutility

; 4066 :     _CSTD memmove(_Dest_ch, _First_ch, _Count);

  00120	56		 push	 esi
  00121	50		 push	 eax
  00122	ff 75 08	 push	 DWORD PTR $T1[ebp]
  00125	e8 00 00 00 00	 call	 _memmove
; File C:\Program Files (x86)\Microsoft Visual Studio\2019\Community\VC\Tools\MSVC\14.29.30133\include\xmemory

; 1792 :     _CSTD memset(_First_ch, 0, static_cast<size_t>(_Last_ch - _First_ch));

  0012a	57		 push	 edi
; File C:\Program Files (x86)\Microsoft Visual Studio\2019\Community\VC\Tools\MSVC\14.29.30133\include\xutility

; 4068 :         return reinterpret_cast<_OutCtgIt>(_Dest_ch + _Count);

  0012b	8b 7d 08	 mov	 edi, DWORD PTR $T1[ebp]
; File C:\Program Files (x86)\Microsoft Visual Studio\2019\Community\VC\Tools\MSVC\14.29.30133\include\xmemory

; 1792 :     _CSTD memset(_First_ch, 0, static_cast<size_t>(_Last_ch - _First_ch));

  0012e	6a 00		 push	 0
; File C:\Program Files (x86)\Microsoft Visual Studio\2019\Community\VC\Tools\MSVC\14.29.30133\include\xutility

; 4068 :         return reinterpret_cast<_OutCtgIt>(_Dest_ch + _Count);

  00130	8d 04 3e	 lea	 eax, DWORD PTR [esi+edi]
; File C:\Program Files (x86)\Microsoft Visual Studio\2019\Community\VC\Tools\MSVC\14.29.30133\include\xmemory

; 1792 :     _CSTD memset(_First_ch, 0, static_cast<size_t>(_Last_ch - _First_ch));

  00133	50		 push	 eax
  00134	e8 00 00 00 00	 call	 _memset
  00139	8b 75 f8	 mov	 esi, DWORD PTR _this$1$[ebp]
$LN146@Growmap:
; File C:\Program Files (x86)\Microsoft Visual Studio\2019\Community\VC\Tools\MSVC\14.29.30133\include\deque

; 1463 :         if (_Map() != _Mapptr()) {

  0013c	8b 46 04	 mov	 eax, DWORD PTR [esi+4]
  0013f	83 c4 24	 add	 esp, 36			; 00000024H
  00142	85 c0		 test	 eax, eax
  00144	74 2a		 je	 SHORT $LN123@Growmap
; File C:\Program Files (x86)\Microsoft Visual Studio\2019\Community\VC\Tools\MSVC\14.29.30133\include\xmemory

; 797  :         _Deallocate<_New_alignof<_Ty>>(_Ptr, sizeof(_Ty) * _Count);

  00146	8b 4e 08	 mov	 ecx, DWORD PTR [esi+8]
  00149	c1 e1 02	 shl	 ecx, 2

; 251  :         if (_Bytes >= _Big_allocation_threshold) { // boost the alignment of big allocations to help autovectorization

  0014c	81 f9 00 10 00
	00		 cmp	 ecx, 4096		; 00001000H
  00152	72 12		 jb	 SHORT $LN133@Growmap

; 150  :     const uintptr_t _Ptr_container   = _Ptr_user[-1];

  00154	8b 50 fc	 mov	 edx, DWORD PTR [eax-4]
  00157	83 c1 23	 add	 ecx, 35			; 00000023H

; 151  : 
; 152  :     // If the following asserts, it likely means that we are performing
; 153  :     // an aligned delete on memory coming from an unaligned allocation.
; 154  :     _STL_ASSERT(_Ptr_user[-2] == _Big_allocation_sentinel, "invalid argument");
; 155  : 
; 156  :     // Extra paranoia on aligned allocation/deallocation; ensure _Ptr_container is
; 157  :     // in range [_Min_back_shift, _Non_user_size]
; 158  : #ifdef _DEBUG
; 159  :     constexpr uintptr_t _Min_back_shift = 2 * sizeof(void*);
; 160  : #else // ^^^ _DEBUG ^^^ // vvv !_DEBUG vvv
; 161  :     constexpr uintptr_t _Min_back_shift = sizeof(void*);
; 162  : #endif // _DEBUG
; 163  :     const uintptr_t _Back_shift = reinterpret_cast<uintptr_t>(_Ptr) - _Ptr_container;

  0015a	2b c2		 sub	 eax, edx

; 164  :     _STL_VERIFY(_Back_shift >= _Min_back_shift && _Back_shift <= _Non_user_size, "invalid argument");

  0015c	83 c0 fc	 add	 eax, -4			; fffffffcH
  0015f	83 f8 1f	 cmp	 eax, 31			; 0000001fH
  00162	77 1b		 ja	 SHORT $LN130@Growmap

; 165  :     _Ptr = reinterpret_cast<void*>(_Ptr_container);

  00164	8b c2		 mov	 eax, edx
$LN133@Growmap:

; 255  :         ::operator delete(_Ptr, _Bytes);

  00166	51		 push	 ecx
  00167	50		 push	 eax
  00168	e8 00 00 00 00	 call	 ??3@YAXPAXI@Z		; operator delete
  0016d	83 c4 08	 add	 esp, 8
$LN123@Growmap:
; File C:\Program Files (x86)\Microsoft Visual Studio\2019\Community\VC\Tools\MSVC\14.29.30133\include\deque

; 1468 :         _Mapsize() += _Count;

  00170	01 5e 08	 add	 DWORD PTR [esi+8], ebx
  00173	89 7e 04	 mov	 DWORD PTR [esi+4], edi
  00176	5f		 pop	 edi
  00177	5e		 pop	 esi
  00178	5b		 pop	 ebx

; 1469 :     }

  00179	8b e5		 mov	 esp, ebp
  0017b	5d		 pop	 ebp
  0017c	c2 04 00	 ret	 4
$LN130@Growmap:
; File C:\Program Files (x86)\Microsoft Visual Studio\2019\Community\VC\Tools\MSVC\14.29.30133\include\xmemory

; 164  :     _STL_VERIFY(_Back_shift >= _Min_back_shift && _Back_shift <= _Non_user_size, "invalid argument");

  0017f	ff 15 00 00 00
	00		 call	 DWORD PTR __imp___invalid_parameter_noinfo_noreturn
$LN138@Growmap:
; File C:\Program Files (x86)\Microsoft Visual Studio\2019\Community\VC\Tools\MSVC\14.29.30133\include\deque

; 1440 :                 _Xlen(); // result too long

  00185	8b ce		 mov	 ecx, esi
  00187	e8 00 00 00 00	 call	 ?_Xlen@?$deque@PAVCRowSet@@V?$allocator@PAVCRowSet@@@std@@@std@@ABEXXZ ; std::deque<CRowSet *,std::allocator<CRowSet *> >::_Xlen
$LN142@Growmap:
; File C:\Program Files (x86)\Microsoft Visual Studio\2019\Community\VC\Tools\MSVC\14.29.30133\include\xmemory

; 131  :         _Throw_bad_array_new_length(); // add overflow

  0018c	e8 00 00 00 00	 call	 ?_Throw_bad_array_new_length@std@@YAXXZ ; std::_Throw_bad_array_new_length
$LN144@Growmap:
  00191	cc		 int	 3
?_Growmap@?$deque@PAVCRowSet@@V?$allocator@PAVCRowSet@@@std@@@std@@AAEXI@Z ENDP ; std::deque<CRowSet *,std::allocator<CRowSet *> >::_Growmap
_TEXT	ENDS
; Function compile flags: /Ogtp
; File C:\Program Files (x86)\Microsoft Visual Studio\2019\Community\VC\Tools\MSVC\14.29.30133\include\deque
;	COMDAT ?_Xlen@?$deque@PAVCRowSet@@V?$allocator@PAVCRowSet@@@std@@@std@@ABEXXZ
_TEXT	SEGMENT
?_Xlen@?$deque@PAVCRowSet@@V?$allocator@PAVCRowSet@@@std@@@std@@ABEXXZ PROC ; std::deque<CRowSet *,std::allocator<CRowSet *> >::_Xlen, COMDAT
; _this$ = ecx

; 1425 :         _Xlength_error("deque<T> too long");

  00000	68 00 00 00 00	 push	 OFFSET ??_C@_0BC@KBDMBKEH@deque?$DMT?$DO?5too?5long@
  00005	e8 00 00 00 00	 call	 ?_Xlength_error@std@@YAXPBD@Z ; std::_Xlength_error
$LN3@Xlen:
  0000a	cc		 int	 3
?_Xlen@?$deque@PAVCRowSet@@V?$allocator@PAVCRowSet@@@std@@@std@@ABEXXZ ENDP ; std::deque<CRowSet *,std::allocator<CRowSet *> >::_Xlen
_TEXT	ENDS
; Function compile flags: /Ogtp
; File C:\Program Files (x86)\Microsoft Visual Studio\2019\Community\VC\Tools\MSVC\14.29.30133\include\deque
; File C:\Program Files (x86)\Microsoft Visual Studio\2019\Community\VC\Tools\MSVC\14.29.30133\include\xmemory
; File C:\Program Files (x86)\Microsoft Visual Studio\2019\Community\VC\Tools\MSVC\14.29.30133\include\deque
; File C:\Program Files (x86)\Microsoft Visual Studio\2019\Community\VC\Tools\MSVC\14.29.30133\include\xmemory
; File C:\Program Files (x86)\Microsoft Visual Studio\2019\Community\VC\Tools\MSVC\14.29.30133\include\deque
; File C:\Program Files (x86)\Microsoft Visual Studio\2019\Community\VC\Tools\MSVC\14.29.30133\include\xmemory
; File C:\Program Files (x86)\Microsoft Visual Studio\2019\Community\VC\Tools\MSVC\14.29.30133\include\xutility
; File C:\Program Files (x86)\Microsoft Visual Studio\2019\Community\VC\Tools\MSVC\14.29.30133\include\deque
; File C:\Program Files (x86)\Microsoft Visual Studio\2019\Community\VC\Tools\MSVC\14.29.30133\include\xutility
; File C:\Program Files (x86)\Microsoft Visual Studio\2019\Community\VC\Tools\MSVC\14.29.30133\include\deque
; File C:\Program Files (x86)\Microsoft Visual Studio\2019\Community\VC\Tools\MSVC\14.29.30133\include\xutility
; File C:\Program Files (x86)\Microsoft Visual Studio\2019\Community\VC\Tools\MSVC\14.29.30133\include\deque
; File C:\Program Files (x86)\Microsoft Visual Studio\2019\Community\VC\Tools\MSVC\14.29.30133\include\xutility
; File C:\Program Files (x86)\Microsoft Visual Studio\2019\Community\VC\Tools\MSVC\14.29.30133\include\deque
; File C:\Program Files (x86)\Microsoft Visual Studio\2019\Community\VC\Tools\MSVC\14.29.30133\include\xutility
; File C:\Program Files (x86)\Microsoft Visual Studio\2019\Community\VC\Tools\MSVC\14.29.30133\include\deque
; File C:\Program Files (x86)\Microsoft Visual Studio\2019\Community\VC\Tools\MSVC\14.29.30133\include\xutility
; File C:\Program Files (x86)\Microsoft Visual Studio\2019\Community\VC\Tools\MSVC\14.29.30133\include\deque
; File C:\Program Files (x86)\Microsoft Visual Studio\2019\Community\VC\Tools\MSVC\14.29.30133\include\xmemory
; File C:\Program Files (x86)\Microsoft Visual Studio\2019\Community\VC\Tools\MSVC\14.29.30133\include\xutility
; File C:\Program Files (x86)\Microsoft Visual Studio\2019\Community\VC\Tools\MSVC\14.29.30133\include\deque
; File C:\Program Files (x86)\Microsoft Visual Studio\2019\Community\VC\Tools\MSVC\14.29.30133\include\xutility
; File C:\Program Files (x86)\Microsoft Visual Studio\2019\Community\VC\Tools\MSVC\14.29.30133\include\deque
; File C:\Program Files (x86)\Microsoft Visual Studio\2019\Community\VC\Tools\MSVC\14.29.30133\include\xutility
; File C:\Program Files (x86)\Microsoft Visual Studio\2019\Community\VC\Tools\MSVC\14.29.30133\include\deque
; File C:\Program Files (x86)\Microsoft Visual Studio\2019\Community\VC\Tools\MSVC\14.29.30133\include\xutility
; File C:\Program Files (x86)\Microsoft Visual Studio\2019\Community\VC\Tools\MSVC\14.29.30133\include\deque
; File C:\Program Files (x86)\Microsoft Visual Studio\2019\Community\VC\Tools\MSVC\14.29.30133\include\xutility
; File C:\Program Files (x86)\Microsoft Visual Studio\2019\Community\VC\Tools\MSVC\14.29.30133\include\deque
; File C:\Program Files (x86)\Microsoft Visual Studio\2019\Community\VC\Tools\MSVC\14.29.30133\include\xutility
; File C:\Program Files (x86)\Microsoft Visual Studio\2019\Community\VC\Tools\MSVC\14.29.30133\include\deque
; File C:\Program Files (x86)\Microsoft Visual Studio\2019\Community\VC\Tools\MSVC\14.29.30133\include\xutility
; File C:\Program Files (x86)\Microsoft Visual Studio\2019\Community\VC\Tools\MSVC\14.29.30133\include\deque
; File C:\Program Files (x86)\Microsoft Visual Studio\2019\Community\VC\Tools\MSVC\14.29.30133\include\xutility
; File C:\Program Files (x86)\Microsoft Visual Studio\2019\Community\VC\Tools\MSVC\14.29.30133\include\deque
; File C:\Program Files (x86)\Microsoft Visual Studio\2019\Community\VC\Tools\MSVC\14.29.30133\include\xutility
; File C:\Program Files (x86)\Microsoft Visual Studio\2019\Community\VC\Tools\MSVC\14.29.30133\include\deque
; File C:\Program Files (x86)\Microsoft Visual Studio\2019\Community\VC\Tools\MSVC\14.29.30133\include\xmemory
; File C:\Program Files (x86)\Microsoft Visual Studio\2019\Community\VC\Tools\MSVC\14.29.30133\include\deque
; File C:\Program Files (x86)\Microsoft Visual Studio\2019\Community\VC\Tools\MSVC\14.29.30133\include\xmemory
; File C:\Program Files (x86)\Microsoft Visual Studio\2019\Community\VC\Tools\MSVC\14.29.30133\include\deque
;	COMDAT ?erase@?$deque@PAVCRowSet@@V?$allocator@PAVCRowSet@@@std@@@std@@QAE?AV?$_Deque_iterator@V?$_Deque_val@U?$_Deque_simple_types@PAVCRowSet@@@std@@@std@@@2@V?$_Deque_const_iterator@V?$_Deque_val@U?$_Deque_simple_types@PAVCRowSet@@@std@@@std@@@2@0@Z
_TEXT	SEGMENT
__Off$1$ = -32						; size = 4
_this$1$ = -28						; size = 4
tv1930 = -24						; size = 4
tv1918 = -24						; size = 4
__Dest$$sroa$1005$1$ = -24				; size = 4
tv1951 = -20						; size = 4
__ULast$9$sroa$1009$1$ = -20				; size = 4
$T11 = -20						; size = 4
$T12 = -16						; size = 4
$T13 = -16						; size = 4
__Count$1$ = -12					; size = 4
__UFirst$3$sroa$1028$1$ = -8				; size = 4
$T14 = -8						; size = 4
__First$$sroa$1002$1$ = -4				; size = 4
___$ReturnUdt$ = 8					; size = 4
__First_arg$ = 12					; size = 12
__Last_arg$ = 24					; size = 12
?erase@?$deque@PAVCRowSet@@V?$allocator@PAVCRowSet@@@std@@@std@@QAE?AV?$_Deque_iterator@V?$_Deque_val@U?$_Deque_simple_types@PAVCRowSet@@@std@@@std@@@2@V?$_Deque_const_iterator@V?$_Deque_val@U?$_Deque_simple_types@PAVCRowSet@@@std@@@std@@@2@0@Z PROC ; std::deque<CRowSet *,std::allocator<CRowSet *> >::erase, COMDAT
; _this$ = ecx

; 1281 :         is_nothrow_move_assignable_v<value_type>) /* strengthened */ {

  00000	55		 push	 ebp
  00001	8b ec		 mov	 ebp, esp
  00003	83 ec 20	 sub	 esp, 32			; 00000020H
  00006	89 4d e4	 mov	 DWORD PTR _this$1$[ebp], ecx
  00009	53		 push	 ebx
  0000a	56		 push	 esi
  0000b	57		 push	 edi
; File C:\Program Files (x86)\Microsoft Visual Studio\2019\Community\VC\Tools\MSVC\14.29.30133\include\xmemory

; 1098 :         if (_Parent) { // have a parent, do adoption

  0000c	85 c9		 test	 ecx, ecx
  0000e	74 04		 je	 SHORT $LN29@erase

; 1099 :             _Myproxy = _Parent->_Myproxy;

  00010	8b 19		 mov	 ebx, DWORD PTR [ecx]

; 1100 :         } else { // no future parent, just disown current parent

  00012	eb 02		 jmp	 SHORT $LN49@erase
$LN29@erase:

; 1101 :             _Myproxy = nullptr;

  00014	33 db		 xor	 ebx, ebx
$LN49@erase:
; File C:\Program Files (x86)\Microsoft Visual Studio\2019\Community\VC\Tools\MSVC\14.29.30133\include\deque

; 339  :         return static_cast<difference_type>(this->_Myoff - _Right._Myoff);

  00016	8b 75 14	 mov	 esi, DWORD PTR __First_arg$[ebp+8]
  00019	8b d6		 mov	 edx, esi

; 253  :     _Deque_const_iterator(_Size_type _Off, const _Container_base12* _Pdeque) noexcept : _Myoff(_Off) {

  0001b	8b 41 0c	 mov	 eax, DWORD PTR [ecx+12]

; 339  :         return static_cast<difference_type>(this->_Myoff - _Right._Myoff);

  0001e	2b d0		 sub	 edx, eax

; 1282 :         iterator _First = _Make_iter(_First_arg);
; 1283 :         iterator _Last  = _Make_iter(_Last_arg);
; 1284 : 
; 1285 : #if _ITERATOR_DEBUG_LEVEL == 2
; 1286 :         _STL_VERIFY(_First <= _Last && begin() <= _First && _Last <= end(), "deque erase iterator outside range");
; 1287 :         _Adl_verify_range(_First, _Last);
; 1288 : 
; 1289 :         auto _Off   = static_cast<size_type>(_First - begin());
; 1290 :         auto _Count = static_cast<size_type>(_Last - _First);
; 1291 :         bool _Moved = 0 < _Off && _Off + _Count < _Mysize();
; 1292 : 
; 1293 : #else // _ITERATOR_DEBUG_LEVEL == 2
; 1294 :         auto _Off   = static_cast<size_type>(_First - begin());

  00020	8b 7d 20	 mov	 edi, DWORD PTR __Last_arg$[ebp+8]

; 339  :         return static_cast<difference_type>(this->_Myoff - _Right._Myoff);

  00023	89 55 e0	 mov	 DWORD PTR __Off$1$[ebp], edx

; 1282 :         iterator _First = _Make_iter(_First_arg);
; 1283 :         iterator _Last  = _Make_iter(_Last_arg);
; 1284 : 
; 1285 : #if _ITERATOR_DEBUG_LEVEL == 2
; 1286 :         _STL_VERIFY(_First <= _Last && begin() <= _First && _Last <= end(), "deque erase iterator outside range");
; 1287 :         _Adl_verify_range(_First, _Last);
; 1288 : 
; 1289 :         auto _Off   = static_cast<size_type>(_First - begin());
; 1290 :         auto _Count = static_cast<size_type>(_Last - _First);
; 1291 :         bool _Moved = 0 < _Off && _Off + _Count < _Mysize();
; 1292 : 
; 1293 : #else // _ITERATOR_DEBUG_LEVEL == 2
; 1294 :         auto _Off   = static_cast<size_type>(_First - begin());

  00026	8b d7		 mov	 edx, edi
  00028	2b d6		 sub	 edx, esi

; 253  :     _Deque_const_iterator(_Size_type _Off, const _Container_base12* _Pdeque) noexcept : _Myoff(_Off) {

  0002a	89 45 f8	 mov	 DWORD PTR __UFirst$3$sroa$1028$1$[ebp], eax

; 339  :         return static_cast<difference_type>(this->_Myoff - _Right._Myoff);

  0002d	89 75 e8	 mov	 DWORD PTR __Dest$$sroa$1005$1$[ebp], esi

; 1282 :         iterator _First = _Make_iter(_First_arg);
; 1283 :         iterator _Last  = _Make_iter(_Last_arg);
; 1284 : 
; 1285 : #if _ITERATOR_DEBUG_LEVEL == 2
; 1286 :         _STL_VERIFY(_First <= _Last && begin() <= _First && _Last <= end(), "deque erase iterator outside range");
; 1287 :         _Adl_verify_range(_First, _Last);
; 1288 : 
; 1289 :         auto _Off   = static_cast<size_type>(_First - begin());
; 1290 :         auto _Count = static_cast<size_type>(_Last - _First);
; 1291 :         bool _Moved = 0 < _Off && _Off + _Count < _Mysize();
; 1292 : 
; 1293 : #else // _ITERATOR_DEBUG_LEVEL == 2
; 1294 :         auto _Off   = static_cast<size_type>(_First - begin());

  00030	89 7d fc	 mov	 DWORD PTR __First$$sroa$1002$1$[ebp], edi
  00033	89 55 f4	 mov	 DWORD PTR __Count$1$[ebp], edx

; 1295 :         auto _Count = static_cast<size_type>(_Last - _First);
; 1296 : #endif // _ITERATOR_DEBUG_LEVEL == 2
; 1297 : 
; 1298 :         if (_Count == 0) {

  00036	75 18		 jne	 SHORT $LN8@erase
; File C:\Program Files (x86)\Microsoft Visual Studio\2019\Community\VC\Tools\MSVC\14.29.30133\include\xmemory

; 1113 :     mutable _Iterator_base12* _Mynextiter = nullptr;

  00038	8b 45 08	 mov	 eax, DWORD PTR ___$ReturnUdt$[ebp]

; 1069 :         _Myproxy = _Right._Myproxy;

  0003b	89 18		 mov	 DWORD PTR [eax], ebx
  0003d	89 70 08	 mov	 DWORD PTR [eax+8], esi
; File C:\Program Files (x86)\Microsoft Visual Studio\2019\Community\VC\Tools\MSVC\14.29.30133\include\deque

; 1321 :     }

  00040	c7 40 04 00 00
	00 00		 mov	 DWORD PTR [eax+4], 0
  00047	5f		 pop	 edi
  00048	5e		 pop	 esi
  00049	5b		 pop	 ebx
  0004a	8b e5		 mov	 esp, ebp
  0004c	5d		 pop	 ebp
  0004d	c2 1c 00	 ret	 28			; 0000001cH
$LN8@erase:

; 897  :         return iterator(_Myoff() + _Mysize(), _STD addressof(_Get_data()));

  00050	8b 41 10	 mov	 eax, DWORD PTR [ecx+16]
  00053	03 45 f8	 add	 eax, DWORD PTR __UFirst$3$sroa$1028$1$[ebp]
  00056	89 45 ec	 mov	 DWORD PTR tv1951[ebp], eax

; 339  :         return static_cast<difference_type>(this->_Myoff - _Right._Myoff);

  00059	2b c7		 sub	 eax, edi

; 1299 :             return _First;
; 1300 :         }
; 1301 : 
; 1302 :         if (_Off < static_cast<size_type>(end() - _Last)) { // closer to front

  0005b	39 45 e0	 cmp	 DWORD PTR __Off$1$[ebp], eax
  0005e	0f 83 8a 00 00
	00		 jae	 $LN9@erase

; 507  :         return {this->_Myoff, this->_Getcont()};

  00064	85 db		 test	 ebx, ebx
; File C:\Program Files (x86)\Microsoft Visual Studio\2019\Community\VC\Tools\MSVC\14.29.30133\include\xmemory

; 1107 :         return _Myproxy ? _Myproxy->_Mycont : nullptr;

  00066	74 09		 je	 SHORT $LN144@erase
  00068	8b 03		 mov	 eax, DWORD PTR [ebx]
  0006a	8b d8		 mov	 ebx, eax
  0006c	89 45 ec	 mov	 DWORD PTR $T11[ebp], eax
  0006f	eb 07		 jmp	 SHORT $LN403@erase
$LN144@erase:
  00071	33 c0		 xor	 eax, eax
  00073	33 db		 xor	 ebx, ebx
  00075	89 5d ec	 mov	 DWORD PTR $T11[ebp], ebx
$LN403@erase:
; File C:\Program Files (x86)\Microsoft Visual Studio\2019\Community\VC\Tools\MSVC\14.29.30133\include\xutility

; 4376 :     _Seek_wrapped(_Dest, _Move_backward_unchecked(_UFirst, _ULast, _UDest));

  00078	89 45 f0	 mov	 DWORD PTR $T13[ebp], eax
  0007b	39 75 f8	 cmp	 DWORD PTR __UFirst$3$sroa$1028$1$[ebp], esi

; 4362 :     while (_First != _Last) {

  0007e	74 52		 je	 SHORT $LL396@erase
  00080	8b ce		 mov	 ecx, esi
$LL169@erase:
; File C:\Program Files (x86)\Microsoft Visual Studio\2019\Community\VC\Tools\MSVC\14.29.30133\include\deque

; 559  :         return (_Off / _Block_size) & (_Mapsize - 1);

  00082	8b 43 08	 mov	 eax, DWORD PTR [ebx+8]

; 67   :         --_Myoff;

  00085	49		 dec	 ecx

; 559  :         return (_Off / _Block_size) & (_Mapsize - 1);

  00086	48		 dec	 eax
  00087	8b d1		 mov	 edx, ecx
  00089	c1 ea 02	 shr	 edx, 2

; 67   :         --_Myoff;

  0008c	4f		 dec	 edi

; 559  :         return (_Off / _Block_size) & (_Mapsize - 1);

  0008d	23 d0		 and	 edx, eax

; 67   :         --_Myoff;

  0008f	89 7d fc	 mov	 DWORD PTR __First$$sroa$1002$1$[ebp], edi
; File C:\Program Files (x86)\Microsoft Visual Studio\2019\Community\VC\Tools\MSVC\14.29.30133\include\xutility

; 4363 :         *--_Dest = _STD move(*--_Last);

  00092	8b 43 04	 mov	 eax, DWORD PTR [ebx+4]
; File C:\Program Files (x86)\Microsoft Visual Studio\2019\Community\VC\Tools\MSVC\14.29.30133\include\deque

; 48   :         return _Mycont->_Map[_Block][_Off];

  00095	8b d9		 mov	 ebx, ecx
  00097	8b 75 fc	 mov	 esi, DWORD PTR __First$$sroa$1002$1$[ebp]
  0009a	83 e3 03	 and	 ebx, 3
  0009d	89 5d e8	 mov	 DWORD PTR tv1918[ebp], ebx
  000a0	83 e6 03	 and	 esi, 3

; 559  :         return (_Off / _Block_size) & (_Mapsize - 1);

  000a3	c1 ef 02	 shr	 edi, 2
; File C:\Program Files (x86)\Microsoft Visual Studio\2019\Community\VC\Tools\MSVC\14.29.30133\include\xutility

; 4363 :         *--_Dest = _STD move(*--_Last);

  000a6	8b 1c 90	 mov	 ebx, DWORD PTR [eax+edx*4]
; File C:\Program Files (x86)\Microsoft Visual Studio\2019\Community\VC\Tools\MSVC\14.29.30133\include\deque

; 559  :         return (_Off / _Block_size) & (_Mapsize - 1);

  000a9	8b 55 f0	 mov	 edx, DWORD PTR $T13[ebp]
  000ac	8b 42 08	 mov	 eax, DWORD PTR [edx+8]
; File C:\Program Files (x86)\Microsoft Visual Studio\2019\Community\VC\Tools\MSVC\14.29.30133\include\xutility

; 4363 :         *--_Dest = _STD move(*--_Last);

  000af	8b 52 04	 mov	 edx, DWORD PTR [edx+4]
; File C:\Program Files (x86)\Microsoft Visual Studio\2019\Community\VC\Tools\MSVC\14.29.30133\include\deque

; 559  :         return (_Off / _Block_size) & (_Mapsize - 1);

  000b2	48		 dec	 eax
  000b3	23 f8		 and	 edi, eax
; File C:\Program Files (x86)\Microsoft Visual Studio\2019\Community\VC\Tools\MSVC\14.29.30133\include\xutility

; 4363 :         *--_Dest = _STD move(*--_Last);

  000b5	8b 45 e8	 mov	 eax, DWORD PTR tv1918[ebp]
  000b8	8b 14 ba	 mov	 edx, DWORD PTR [edx+edi*4]
  000bb	8b 04 83	 mov	 eax, DWORD PTR [ebx+eax*4]
  000be	8b 7d fc	 mov	 edi, DWORD PTR __First$$sroa$1002$1$[ebp]
  000c1	8b 5d ec	 mov	 ebx, DWORD PTR $T11[ebp]
  000c4	89 04 b2	 mov	 DWORD PTR [edx+esi*4], eax
; File C:\Program Files (x86)\Microsoft Visual Studio\2019\Community\VC\Tools\MSVC\14.29.30133\include\deque

; 106  :         return _Myoff == _Right._Myoff;

  000c7	39 4d f8	 cmp	 DWORD PTR __UFirst$3$sroa$1028$1$[ebp], ecx
; File C:\Program Files (x86)\Microsoft Visual Studio\2019\Community\VC\Tools\MSVC\14.29.30133\include\xutility

; 4362 :     while (_First != _Last) {

  000ca	75 b6		 jne	 SHORT $LL169@erase
  000cc	8b 4d e4	 mov	 ecx, DWORD PTR _this$1$[ebp]
  000cf	8b 55 f4	 mov	 edx, DWORD PTR __Count$1$[ebp]
$LL396@erase:
; File C:\Program Files (x86)\Microsoft Visual Studio\2019\Community\VC\Tools\MSVC\14.29.30133\include\deque

; 1095 :         if (--_Mysize() == 0) {

  000d2	83 41 10 ff	 add	 DWORD PTR [ecx+16], -1
  000d6	75 09		 jne	 SHORT $LN205@erase

; 1096 :             _Myoff() = 0;

  000d8	c7 41 0c 00 00
	00 00		 mov	 DWORD PTR [ecx+12], 0

; 1097 :         } else {

  000df	eb 03		 jmp	 SHORT $LN2@erase
$LN205@erase:

; 1098 :             ++_Myoff();

  000e1	ff 41 0c	 inc	 DWORD PTR [ecx+12]
$LN2@erase:

; 1303 :             _STD move_backward(begin(), _First, _Last); // copy over hole
; 1304 :             for (; 0 < _Count; --_Count) {

  000e4	83 ea 01	 sub	 edx, 1
  000e7	75 e9		 jne	 SHORT $LL396@erase

; 1305 :                 pop_front(); // pop copied elements
; 1306 :             }
; 1307 :         } else { // closer to back

  000e9	e9 94 00 00 00	 jmp	 $LN6@erase
$LN9@erase:

; 507  :         return {this->_Myoff, this->_Getcont()};

  000ee	85 db		 test	 ebx, ebx
; File C:\Program Files (x86)\Microsoft Visual Studio\2019\Community\VC\Tools\MSVC\14.29.30133\include\xmemory

; 1107 :         return _Myproxy ? _Myproxy->_Mycont : nullptr;

  000f0	74 0f		 je	 SHORT $LN250@erase
  000f2	8b 33		 mov	 esi, DWORD PTR [ebx]
  000f4	8b de		 mov	 ebx, esi
  000f6	8b 45 ec	 mov	 eax, DWORD PTR tv1951[ebp]
  000f9	89 75 f8	 mov	 DWORD PTR $T14[ebp], esi
  000fc	89 45 ec	 mov	 DWORD PTR __ULast$9$sroa$1009$1$[ebp], eax
  000ff	eb 0f		 jmp	 SHORT $LN404@erase
$LN250@erase:
  00101	8b 5d ec	 mov	 ebx, DWORD PTR tv1951[ebp]
  00104	33 f6		 xor	 esi, esi
  00106	89 5d ec	 mov	 DWORD PTR __ULast$9$sroa$1009$1$[ebp], ebx
  00109	8b c3		 mov	 eax, ebx
  0010b	33 db		 xor	 ebx, ebx
  0010d	89 5d f8	 mov	 DWORD PTR $T14[ebp], ebx
$LN404@erase:
; File C:\Program Files (x86)\Microsoft Visual Studio\2019\Community\VC\Tools\MSVC\14.29.30133\include\xutility

; 4334 :     _Seek_wrapped(_Dest, _Move_unchecked(_UFirst, _ULast, _UDest));

  00110	89 75 f0	 mov	 DWORD PTR $T12[ebp], esi
  00113	3b f8		 cmp	 edi, eax

; 4320 :     for (; _First != _Last; ++_Dest, (void) ++_First) {

  00115	74 59		 je	 SHORT $LL398@erase
  00117	8b 4d e8	 mov	 ecx, DWORD PTR __Dest$$sroa$1005$1$[ebp]
  0011a	66 0f 1f 44 00
	00		 npad	 6
$LL298@erase:
; File C:\Program Files (x86)\Microsoft Visual Studio\2019\Community\VC\Tools\MSVC\14.29.30133\include\deque

; 559  :         return (_Off / _Block_size) & (_Mapsize - 1);

  00120	8b 43 08	 mov	 eax, DWORD PTR [ebx+8]
  00123	8b d7		 mov	 edx, edi
  00125	48		 dec	 eax
  00126	c1 ea 02	 shr	 edx, 2
  00129	23 d0		 and	 edx, eax

; 47   :         _Size_type _Off   = _Myoff % _Block_size;

  0012b	83 e7 03	 and	 edi, 3
; File C:\Program Files (x86)\Microsoft Visual Studio\2019\Community\VC\Tools\MSVC\14.29.30133\include\xutility

; 4321 :         *_Dest = _STD move(*_First);

  0012e	8b 43 04	 mov	 eax, DWORD PTR [ebx+4]
; File C:\Program Files (x86)\Microsoft Visual Studio\2019\Community\VC\Tools\MSVC\14.29.30133\include\deque

; 47   :         _Size_type _Off   = _Myoff % _Block_size;

  00131	89 7d e8	 mov	 DWORD PTR tv1930[ebp], edi

; 559  :         return (_Off / _Block_size) & (_Mapsize - 1);

  00134	8b f9		 mov	 edi, ecx
  00136	c1 ef 02	 shr	 edi, 2
; File C:\Program Files (x86)\Microsoft Visual Studio\2019\Community\VC\Tools\MSVC\14.29.30133\include\xutility

; 4321 :         *_Dest = _STD move(*_First);

  00139	8b 1c 90	 mov	 ebx, DWORD PTR [eax+edx*4]
; File C:\Program Files (x86)\Microsoft Visual Studio\2019\Community\VC\Tools\MSVC\14.29.30133\include\deque

; 559  :         return (_Off / _Block_size) & (_Mapsize - 1);

  0013c	8b 46 08	 mov	 eax, DWORD PTR [esi+8]
; File C:\Program Files (x86)\Microsoft Visual Studio\2019\Community\VC\Tools\MSVC\14.29.30133\include\xutility

; 4321 :         *_Dest = _STD move(*_First);

  0013f	8b 56 04	 mov	 edx, DWORD PTR [esi+4]
; File C:\Program Files (x86)\Microsoft Visual Studio\2019\Community\VC\Tools\MSVC\14.29.30133\include\deque

; 559  :         return (_Off / _Block_size) & (_Mapsize - 1);

  00142	48		 dec	 eax
  00143	23 f8		 and	 edi, eax

; 47   :         _Size_type _Off   = _Myoff % _Block_size;

  00145	8b f1		 mov	 esi, ecx
; File C:\Program Files (x86)\Microsoft Visual Studio\2019\Community\VC\Tools\MSVC\14.29.30133\include\xutility

; 4321 :         *_Dest = _STD move(*_First);

  00147	8b 45 e8	 mov	 eax, DWORD PTR tv1930[ebp]
; File C:\Program Files (x86)\Microsoft Visual Studio\2019\Community\VC\Tools\MSVC\14.29.30133\include\deque

; 47   :         _Size_type _Off   = _Myoff % _Block_size;

  0014a	83 e6 03	 and	 esi, 3

; 56   :         ++_Myoff;

  0014d	41		 inc	 ecx
; File C:\Program Files (x86)\Microsoft Visual Studio\2019\Community\VC\Tools\MSVC\14.29.30133\include\xutility

; 4321 :         *_Dest = _STD move(*_First);

  0014e	8b 14 ba	 mov	 edx, DWORD PTR [edx+edi*4]
; File C:\Program Files (x86)\Microsoft Visual Studio\2019\Community\VC\Tools\MSVC\14.29.30133\include\deque

; 56   :         ++_Myoff;

  00151	8b 7d fc	 mov	 edi, DWORD PTR __First$$sroa$1002$1$[ebp]
; File C:\Program Files (x86)\Microsoft Visual Studio\2019\Community\VC\Tools\MSVC\14.29.30133\include\xutility

; 4321 :         *_Dest = _STD move(*_First);

  00154	8b 04 83	 mov	 eax, DWORD PTR [ebx+eax*4]
; File C:\Program Files (x86)\Microsoft Visual Studio\2019\Community\VC\Tools\MSVC\14.29.30133\include\deque

; 56   :         ++_Myoff;

  00157	47		 inc	 edi
; File C:\Program Files (x86)\Microsoft Visual Studio\2019\Community\VC\Tools\MSVC\14.29.30133\include\xutility

; 4320 :     for (; _First != _Last; ++_Dest, (void) ++_First) {

  00158	8b 5d f8	 mov	 ebx, DWORD PTR $T14[ebp]

; 4321 :         *_Dest = _STD move(*_First);

  0015b	89 04 b2	 mov	 DWORD PTR [edx+esi*4], eax
  0015e	8b 75 f0	 mov	 esi, DWORD PTR $T12[ebp]
; File C:\Program Files (x86)\Microsoft Visual Studio\2019\Community\VC\Tools\MSVC\14.29.30133\include\deque

; 56   :         ++_Myoff;

  00161	89 7d fc	 mov	 DWORD PTR __First$$sroa$1002$1$[ebp], edi

; 106  :         return _Myoff == _Right._Myoff;

  00164	3b 7d ec	 cmp	 edi, DWORD PTR __ULast$9$sroa$1009$1$[ebp]
; File C:\Program Files (x86)\Microsoft Visual Studio\2019\Community\VC\Tools\MSVC\14.29.30133\include\xutility

; 4320 :     for (; _First != _Last; ++_Dest, (void) ++_First) {

  00167	75 b7		 jne	 SHORT $LL298@erase
  00169	8b 4d e4	 mov	 ecx, DWORD PTR _this$1$[ebp]
  0016c	8b 55 f4	 mov	 edx, DWORD PTR __Count$1$[ebp]
  0016f	90		 npad	 1
$LL398@erase:
; File C:\Program Files (x86)\Microsoft Visual Studio\2019\Community\VC\Tools\MSVC\14.29.30133\include\deque

; 1146 :         if (--_Mysize() == 0) {

  00170	83 41 10 ff	 add	 DWORD PTR [ecx+16], -1
  00174	75 07		 jne	 SHORT $LN5@erase

; 1147 :             _Myoff() = 0;

  00176	c7 41 0c 00 00
	00 00		 mov	 DWORD PTR [ecx+12], 0
$LN5@erase:

; 1308 :             _STD move(_Last, end(), _First); // copy over hole
; 1309 :             for (; 0 < _Count; --_Count) {

  0017d	83 ea 01	 sub	 edx, 1
  00180	75 ee		 jne	 SHORT $LL398@erase
$LN6@erase:
; File C:\Program Files (x86)\Microsoft Visual Studio\2019\Community\VC\Tools\MSVC\14.29.30133\include\xmemory

; 1099 :             _Myproxy = _Parent->_Myproxy;

  00182	8b 11		 mov	 edx, DWORD PTR [ecx]

; 1113 :     mutable _Iterator_base12* _Mynextiter = nullptr;

  00184	8b 45 08	 mov	 eax, DWORD PTR ___$ReturnUdt$[ebp]
; File C:\Program Files (x86)\Microsoft Visual Studio\2019\Community\VC\Tools\MSVC\14.29.30133\include\deque

; 319  :         _Myoff += _Off;

  00187	8b 49 0c	 mov	 ecx, DWORD PTR [ecx+12]
  0018a	03 4d e0	 add	 ecx, DWORD PTR __Off$1$[ebp]

; 1321 :     }

  0018d	5f		 pop	 edi
  0018e	5e		 pop	 esi
; File C:\Program Files (x86)\Microsoft Visual Studio\2019\Community\VC\Tools\MSVC\14.29.30133\include\xmemory

; 1069 :         _Myproxy = _Right._Myproxy;

  0018f	89 10		 mov	 DWORD PTR [eax], edx
  00191	89 48 08	 mov	 DWORD PTR [eax+8], ecx
; File C:\Program Files (x86)\Microsoft Visual Studio\2019\Community\VC\Tools\MSVC\14.29.30133\include\deque

; 1321 :     }

  00194	c7 40 04 00 00
	00 00		 mov	 DWORD PTR [eax+4], 0
  0019b	5b		 pop	 ebx
  0019c	8b e5		 mov	 esp, ebp
  0019e	5d		 pop	 ebp
  0019f	c2 1c 00	 ret	 28			; 0000001cH
?erase@?$deque@PAVCRowSet@@V?$allocator@PAVCRowSet@@@std@@@std@@QAE?AV?$_Deque_iterator@V?$_Deque_val@U?$_Deque_simple_types@PAVCRowSet@@@std@@@std@@@2@V?$_Deque_const_iterator@V?$_Deque_val@U?$_Deque_simple_types@PAVCRowSet@@@std@@@std@@@2@0@Z ENDP ; std::deque<CRowSet *,std::allocator<CRowSet *> >::erase
_TEXT	ENDS
; Function compile flags: /Ogtp
; File C:\Program Files (x86)\Microsoft Visual Studio\2019\Community\VC\Tools\MSVC\14.29.30133\include\deque
; File C:\Program Files (x86)\Microsoft Visual Studio\2019\Community\VC\Tools\MSVC\14.29.30133\include\xmemory
; File C:\Program Files (x86)\Microsoft Visual Studio\2019\Community\VC\Tools\MSVC\14.29.30133\include\deque
; File C:\Program Files (x86)\Microsoft Visual Studio\2019\Community\VC\Tools\MSVC\14.29.30133\include\xmemory
; File C:\Program Files (x86)\Microsoft Visual Studio\2019\Community\VC\Tools\MSVC\14.29.30133\include\deque
; File C:\Program Files (x86)\Microsoft Visual Studio\2019\Community\VC\Tools\MSVC\14.29.30133\include\xmemory
; File C:\Program Files (x86)\Microsoft Visual Studio\2019\Community\VC\Tools\MSVC\14.29.30133\include\deque
; File C:\Program Files (x86)\Microsoft Visual Studio\2019\Community\VC\Tools\MSVC\14.29.30133\include\xmemory
; File C:\Program Files (x86)\Microsoft Visual Studio\2019\Community\VC\Tools\MSVC\14.29.30133\include\deque
; File C:\Program Files (x86)\Microsoft Visual Studio\2019\Community\VC\Tools\MSVC\14.29.30133\include\xmemory
; File C:\Program Files (x86)\Microsoft Visual Studio\2019\Community\VC\Tools\MSVC\14.29.30133\include\deque
; File C:\Program Files (x86)\Microsoft Visual Studio\2019\Community\VC\Tools\MSVC\14.29.30133\include\xmemory
; File C:\Program Files (x86)\Microsoft Visual Studio\2019\Community\VC\Tools\MSVC\14.29.30133\include\deque
; File C:\Program Files (x86)\Microsoft Visual Studio\2019\Community\VC\Tools\MSVC\14.29.30133\include\xmemory
; File C:\Program Files (x86)\Microsoft Visual Studio\2019\Community\VC\Tools\MSVC\14.29.30133\include\deque
; File C:\Program Files (x86)\Microsoft Visual Studio\2019\Community\VC\Tools\MSVC\14.29.30133\include\xmemory
; File C:\Program Files (x86)\Microsoft Visual Studio\2019\Community\VC\Tools\MSVC\14.29.30133\include\deque
; File C:\Program Files (x86)\Microsoft Visual Studio\2019\Community\VC\Tools\MSVC\14.29.30133\include\xmemory
; File C:\Program Files (x86)\Microsoft Visual Studio\2019\Community\VC\Tools\MSVC\14.29.30133\include\deque
; File C:\Program Files (x86)\Microsoft Visual Studio\2019\Community\VC\Tools\MSVC\14.29.30133\include\xmemory
; File C:\Program Files (x86)\Microsoft Visual Studio\2019\Community\VC\Tools\MSVC\14.29.30133\include\deque
; File C:\Program Files (x86)\Microsoft Visual Studio\2019\Community\VC\Tools\MSVC\14.29.30133\include\xmemory
; File C:\Program Files (x86)\Microsoft Visual Studio\2019\Community\VC\Tools\MSVC\14.29.30133\include\deque
; File C:\Program Files (x86)\Microsoft Visual Studio\2019\Community\VC\Tools\MSVC\14.29.30133\include\xmemory
; File C:\Program Files (x86)\Microsoft Visual Studio\2019\Community\VC\Tools\MSVC\14.29.30133\include\deque
;	COMDAT ?insert@?$deque@PAVCRowSet@@V?$allocator@PAVCRowSet@@@std@@@std@@QAE?AV?$_Deque_iterator@V?$_Deque_val@U?$_Deque_simple_types@PAVCRowSet@@@std@@@std@@@2@V?$_Deque_const_iterator@V?$_Deque_val@U?$_Deque_simple_types@PAVCRowSet@@@std@@@std@@@2@ABQAVCRowSet@@@Z
_TEXT	SEGMENT
$T1 = -16						; size = 12
tv1372 = -4						; size = 4
___$ReturnUdt$ = 8					; size = 4
__Where$ = 12						; size = 12
__Val$ = 24						; size = 4
?insert@?$deque@PAVCRowSet@@V?$allocator@PAVCRowSet@@@std@@@std@@QAE?AV?$_Deque_iterator@V?$_Deque_val@U?$_Deque_simple_types@PAVCRowSet@@@std@@@std@@@2@V?$_Deque_const_iterator@V?$_Deque_val@U?$_Deque_simple_types@PAVCRowSet@@@std@@@std@@@2@ABQAVCRowSet@@@Z PROC ; std::deque<CRowSet *,std::allocator<CRowSet *> >::insert, COMDAT
; _this$ = ecx

; 1194 :     iterator insert(const_iterator _Where, const _Ty& _Val) {

  00000	55		 push	 ebp
  00001	8b ec		 mov	 ebp, esp
  00003	83 ec 10	 sub	 esp, 16			; 00000010H
  00006	53		 push	 ebx

; 339  :         return static_cast<difference_type>(this->_Myoff - _Right._Myoff);

  00007	8b 5d 14	 mov	 ebx, DWORD PTR __Where$[ebp+8]

; 1194 :     iterator insert(const_iterator _Where, const _Ty& _Val) {

  0000a	56		 push	 esi
  0000b	57		 push	 edi
  0000c	8b f9		 mov	 edi, ecx

; 1195 :         size_type _Off = static_cast<size_type>(_Where - begin());
; 1196 : 
; 1197 : #if _ITERATOR_DEBUG_LEVEL == 2
; 1198 :         _STL_VERIFY(_Off <= _Mysize(), "deque insert iterator outside range");
; 1199 : #endif // _ITERATOR_DEBUG_LEVEL == 2
; 1200 : 
; 1201 :         if (_Off <= _Mysize() / 2) { // closer to front, push to front then copy

  0000e	8b 4f 10	 mov	 ecx, DWORD PTR [edi+16]
  00011	8b c1		 mov	 eax, ecx

; 889  :         return iterator(_Myoff(), _STD addressof(_Get_data()));

  00013	8b 57 0c	 mov	 edx, DWORD PTR [edi+12]

; 339  :         return static_cast<difference_type>(this->_Myoff - _Right._Myoff);

  00016	2b da		 sub	 ebx, edx

; 1195 :         size_type _Off = static_cast<size_type>(_Where - begin());
; 1196 : 
; 1197 : #if _ITERATOR_DEBUG_LEVEL == 2
; 1198 :         _STL_VERIFY(_Off <= _Mysize(), "deque insert iterator outside range");
; 1199 : #endif // _ITERATOR_DEBUG_LEVEL == 2
; 1200 : 
; 1201 :         if (_Off <= _Mysize() / 2) { // closer to front, push to front then copy

  00018	d1 e8		 shr	 eax, 1
  0001a	3b d8		 cmp	 ebx, eax
  0001c	0f 87 cc 00 00
	00		 ja	 $LN2@insert

; 790  :         if (_Myoff() % _Block_size == 0 && _Mapsize() <= (_Mysize() + _Block_size) / _Block_size) {

  00022	f6 c2 03	 test	 dl, 3
  00025	75 17		 jne	 SHORT $LN24@insert
  00027	8d 41 04	 lea	 eax, DWORD PTR [ecx+4]
  0002a	c1 e8 02	 shr	 eax, 2
  0002d	39 47 08	 cmp	 DWORD PTR [edi+8], eax
  00030	77 0c		 ja	 SHORT $LN24@insert

; 791  :             _Growmap(1);

  00032	6a 01		 push	 1
  00034	8b cf		 mov	 ecx, edi
  00036	e8 00 00 00 00	 call	 ?_Growmap@?$deque@PAVCRowSet@@V?$allocator@PAVCRowSet@@@std@@@std@@AAEXI@Z ; std::deque<CRowSet *,std::allocator<CRowSet *> >::_Growmap
  0003b	8b 57 0c	 mov	 edx, DWORD PTR [edi+12]
$LN24@insert:

; 792  :         }
; 793  :         _Myoff() &= _Mapsize() * _Block_size - 1;

  0003e	8b 4f 08	 mov	 ecx, DWORD PTR [edi+8]
  00041	8d 04 8d 00 00
	00 00		 lea	 eax, DWORD PTR [ecx*4]
  00048	8d 70 ff	 lea	 esi, DWORD PTR [eax-1]
  0004b	23 f2		 and	 esi, edx
  0004d	89 77 0c	 mov	 DWORD PTR [edi+12], esi

; 794  :         size_type _Newoff = _Myoff() != 0 ? _Myoff() : _Mapsize() * _Block_size;
; 795  :         size_type _Block  = _Getblock(--_Newoff);

  00050	0f 44 f0	 cmove	 esi, eax

; 559  :         return (_Off / _Block_size) & (_Mapsize - 1);

  00053	49		 dec	 ecx

; 795  :         size_type _Block  = _Getblock(--_Newoff);

  00054	8d 46 ff	 lea	 eax, DWORD PTR [esi-1]

; 559  :         return (_Off / _Block_size) & (_Mapsize - 1);

  00057	c1 e8 02	 shr	 eax, 2
  0005a	23 c8		 and	 ecx, eax

; 796  :         if (_Map()[_Block] == nullptr) {

  0005c	8d 04 8d 00 00
	00 00		 lea	 eax, DWORD PTR [ecx*4]
  00063	8b 4f 04	 mov	 ecx, DWORD PTR [edi+4]
  00066	89 45 fc	 mov	 DWORD PTR tv1372[ebp], eax
  00069	83 3c 01 00	 cmp	 DWORD PTR [ecx+eax], 0
  0006d	75 18		 jne	 SHORT $LN25@insert
; File C:\Program Files (x86)\Microsoft Visual Studio\2019\Community\VC\Tools\MSVC\14.29.30133\include\xmemory

; 79   :         return ::operator new(_Bytes);

  0006f	6a 10		 push	 16			; 00000010H
  00071	e8 00 00 00 00	 call	 ??2@YAPAXI@Z		; operator new
; File C:\Program Files (x86)\Microsoft Visual Studio\2019\Community\VC\Tools\MSVC\14.29.30133\include\deque

; 797  :             _Map()[_Block] = _Getal().allocate(_Block_size);

  00076	8b 4f 04	 mov	 ecx, DWORD PTR [edi+4]
; File C:\Program Files (x86)\Microsoft Visual Studio\2019\Community\VC\Tools\MSVC\14.29.30133\include\xmemory

; 79   :         return ::operator new(_Bytes);

  00079	83 c4 04	 add	 esp, 4
; File C:\Program Files (x86)\Microsoft Visual Studio\2019\Community\VC\Tools\MSVC\14.29.30133\include\deque

; 797  :             _Map()[_Block] = _Getal().allocate(_Block_size);

  0007c	8b 55 fc	 mov	 edx, DWORD PTR tv1372[ebp]
  0007f	89 04 0a	 mov	 DWORD PTR [edx+ecx], eax
  00082	8b c2		 mov	 eax, edx
  00084	8b 4f 04	 mov	 ecx, DWORD PTR [edi+4]
$LN25@insert:

; 798  :         }
; 799  : 
; 800  :         _Alty_traits::construct(

  00087	8b 0c 08	 mov	 ecx, DWORD PTR [eax+ecx]
  0008a	8d 56 ff	 lea	 edx, DWORD PTR [esi-1]
  0008d	8b 45 18	 mov	 eax, DWORD PTR __Val$[ebp]
  00090	83 e2 03	 and	 edx, 3

; 1202 :             push_front(_Val);
; 1203 :             _STD rotate(begin(), _Next_iter(begin()), begin() + static_cast<difference_type>(1 + _Off));

  00093	83 ec 0c	 sub	 esp, 12			; 0000000cH

; 800  :         _Alty_traits::construct(

  00096	8b 00		 mov	 eax, DWORD PTR [eax]
  00098	89 04 91	 mov	 DWORD PTR [ecx+edx*4], eax

; 1202 :             push_front(_Val);
; 1203 :             _STD rotate(begin(), _Next_iter(begin()), begin() + static_cast<difference_type>(1 + _Off));

  0009b	8b cc		 mov	 ecx, esp

; 803  :         _Myoff() = _Newoff;

  0009d	8d 46 ff	 lea	 eax, DWORD PTR [esi-1]

; 1202 :             push_front(_Val);
; 1203 :             _STD rotate(begin(), _Next_iter(begin()), begin() + static_cast<difference_type>(1 + _Off));

  000a0	83 ec 0c	 sub	 esp, 12			; 0000000cH

; 803  :         _Myoff() = _Newoff;

  000a3	89 47 0c	 mov	 DWORD PTR [edi+12], eax

; 1202 :             push_front(_Val);
; 1203 :             _STD rotate(begin(), _Next_iter(begin()), begin() + static_cast<difference_type>(1 + _Off));

  000a6	8b d4		 mov	 edx, esp

; 804  :         ++_Mysize();

  000a8	ff 47 10	 inc	 DWORD PTR [edi+16]

; 1202 :             push_front(_Val);
; 1203 :             _STD rotate(begin(), _Next_iter(begin()), begin() + static_cast<difference_type>(1 + _Off));

  000ab	83 ec 0c	 sub	 esp, 12			; 0000000cH
; File C:\Program Files (x86)\Microsoft Visual Studio\2019\Community\VC\Tools\MSVC\14.29.30133\include\xmemory

; 1099 :             _Myproxy = _Parent->_Myproxy;

  000ae	8b 07		 mov	 eax, DWORD PTR [edi]

; 1069 :         _Myproxy = _Right._Myproxy;

  000b0	89 01		 mov	 DWORD PTR [ecx], eax
; File C:\Program Files (x86)\Microsoft Visual Studio\2019\Community\VC\Tools\MSVC\14.29.30133\include\deque

; 319  :         _Myoff += _Off;

  000b2	8d 04 1e	 lea	 eax, DWORD PTR [esi+ebx]
  000b5	89 41 08	 mov	 DWORD PTR [ecx+8], eax
; File C:\Program Files (x86)\Microsoft Visual Studio\2019\Community\VC\Tools\MSVC\14.29.30133\include\xmemory

; 1113 :     mutable _Iterator_base12* _Mynextiter = nullptr;

  000b8	c7 41 04 00 00
	00 00		 mov	 DWORD PTR [ecx+4], 0
; File C:\Program Files (x86)\Microsoft Visual Studio\2019\Community\VC\Tools\MSVC\14.29.30133\include\deque

; 889  :         return iterator(_Myoff(), _STD addressof(_Get_data()));

  000bf	8b 4f 0c	 mov	 ecx, DWORD PTR [edi+12]
; File C:\Program Files (x86)\Microsoft Visual Studio\2019\Community\VC\Tools\MSVC\14.29.30133\include\xmemory

; 1099 :             _Myproxy = _Parent->_Myproxy;

  000c2	8b 07		 mov	 eax, DWORD PTR [edi]

; 1069 :         _Myproxy = _Right._Myproxy;

  000c4	89 02		 mov	 DWORD PTR [edx], eax

; 1113 :     mutable _Iterator_base12* _Mynextiter = nullptr;

  000c6	c7 42 04 00 00
	00 00		 mov	 DWORD PTR [edx+4], 0
; File C:\Program Files (x86)\Microsoft Visual Studio\2019\Community\VC\Tools\MSVC\14.29.30133\include\deque

; 281  :         ++_Myoff;

  000cd	8d 41 01	 lea	 eax, DWORD PTR [ecx+1]

; 1202 :             push_front(_Val);
; 1203 :             _STD rotate(begin(), _Next_iter(begin()), begin() + static_cast<difference_type>(1 + _Off));

  000d0	8b cc		 mov	 ecx, esp
  000d2	89 42 08	 mov	 DWORD PTR [edx+8], eax

; 889  :         return iterator(_Myoff(), _STD addressof(_Get_data()));

  000d5	8b 47 0c	 mov	 eax, DWORD PTR [edi+12]
; File C:\Program Files (x86)\Microsoft Visual Studio\2019\Community\VC\Tools\MSVC\14.29.30133\include\xmemory

; 1112 :     mutable _Container_proxy* _Myproxy    = nullptr;

  000d8	c7 01 00 00 00
	00		 mov	 DWORD PTR [ecx], 0

; 1113 :     mutable _Iterator_base12* _Mynextiter = nullptr;

  000de	c7 41 04 00 00
	00 00		 mov	 DWORD PTR [ecx+4], 0
; File C:\Program Files (x86)\Microsoft Visual Studio\2019\Community\VC\Tools\MSVC\14.29.30133\include\deque

; 253  :     _Deque_const_iterator(_Size_type _Off, const _Container_base12* _Pdeque) noexcept : _Myoff(_Off) {

  000e5	89 41 08	 mov	 DWORD PTR [ecx+8], eax

; 889  :         return iterator(_Myoff(), _STD addressof(_Get_data()));

  000e8	8b 07		 mov	 eax, DWORD PTR [edi]
  000ea	89 01		 mov	 DWORD PTR [ecx], eax

; 1204 :         } else { // closer to back, push to back then copy

  000ec	eb 60		 jmp	 SHORT $LN255@insert
$LN2@insert:

; 1205 :             push_back(_Val);

  000ee	ff 75 18	 push	 DWORD PTR __Val$[ebp]
  000f1	8b cf		 mov	 ecx, edi
  000f3	e8 00 00 00 00	 call	 ?push_back@?$deque@PAVCRowSet@@V?$allocator@PAVCRowSet@@@std@@@std@@QAEXABQAVCRowSet@@@Z ; std::deque<CRowSet *,std::allocator<CRowSet *> >::push_back

; 897  :         return iterator(_Myoff() + _Mysize(), _STD addressof(_Get_data()));

  000f8	8b 47 10	 mov	 eax, DWORD PTR [edi+16]

; 1206 :             _STD rotate(begin() + static_cast<difference_type>(_Off), _Prev_iter(end()), end());

  000fb	83 ec 0c	 sub	 esp, 12			; 0000000cH

; 897  :         return iterator(_Myoff() + _Mysize(), _STD addressof(_Get_data()));

  000fe	03 47 0c	 add	 eax, DWORD PTR [edi+12]

; 1206 :             _STD rotate(begin() + static_cast<difference_type>(_Off), _Prev_iter(end()), end());

  00101	8b cc		 mov	 ecx, esp
  00103	83 ec 0c	 sub	 esp, 12			; 0000000cH
  00106	8b f4		 mov	 esi, esp

; 253  :     _Deque_const_iterator(_Size_type _Off, const _Container_base12* _Pdeque) noexcept : _Myoff(_Off) {

  00108	89 41 08	 mov	 DWORD PTR [ecx+8], eax
; File C:\Program Files (x86)\Microsoft Visual Studio\2019\Community\VC\Tools\MSVC\14.29.30133\include\xmemory

; 1112 :     mutable _Container_proxy* _Myproxy    = nullptr;

  0010b	c7 01 00 00 00
	00		 mov	 DWORD PTR [ecx], 0

; 1113 :     mutable _Iterator_base12* _Mynextiter = nullptr;

  00111	c7 41 04 00 00
	00 00		 mov	 DWORD PTR [ecx+4], 0
; File C:\Program Files (x86)\Microsoft Visual Studio\2019\Community\VC\Tools\MSVC\14.29.30133\include\deque

; 897  :         return iterator(_Myoff() + _Mysize(), _STD addressof(_Get_data()));

  00118	8b 07		 mov	 eax, DWORD PTR [edi]
  0011a	89 01		 mov	 DWORD PTR [ecx], eax
  0011c	8b 57 10	 mov	 edx, DWORD PTR [edi+16]
  0011f	8b 4f 0c	 mov	 ecx, DWORD PTR [edi+12]
; File C:\Program Files (x86)\Microsoft Visual Studio\2019\Community\VC\Tools\MSVC\14.29.30133\include\xmemory

; 1099 :             _Myproxy = _Parent->_Myproxy;

  00122	8b 07		 mov	 eax, DWORD PTR [edi]

; 1069 :         _Myproxy = _Right._Myproxy;

  00124	89 06		 mov	 DWORD PTR [esi], eax
; File C:\Program Files (x86)\Microsoft Visual Studio\2019\Community\VC\Tools\MSVC\14.29.30133\include\deque

; 298  :         --_Myoff;

  00126	8d 42 ff	 lea	 eax, DWORD PTR [edx-1]
; File C:\Program Files (x86)\Microsoft Visual Studio\2019\Community\VC\Tools\MSVC\14.29.30133\include\xmemory

; 1113 :     mutable _Iterator_base12* _Mynextiter = nullptr;

  00129	c7 46 04 00 00
	00 00		 mov	 DWORD PTR [esi+4], 0
; File C:\Program Files (x86)\Microsoft Visual Studio\2019\Community\VC\Tools\MSVC\14.29.30133\include\deque

; 298  :         --_Myoff;

  00130	03 c1		 add	 eax, ecx

; 1206 :             _STD rotate(begin() + static_cast<difference_type>(_Off), _Prev_iter(end()), end());

  00132	83 ec 0c	 sub	 esp, 12			; 0000000cH
  00135	89 46 08	 mov	 DWORD PTR [esi+8], eax
  00138	8b cc		 mov	 ecx, esp

; 889  :         return iterator(_Myoff(), _STD addressof(_Get_data()));

  0013a	8b 57 0c	 mov	 edx, DWORD PTR [edi+12]
; File C:\Program Files (x86)\Microsoft Visual Studio\2019\Community\VC\Tools\MSVC\14.29.30133\include\xmemory

; 1099 :             _Myproxy = _Parent->_Myproxy;

  0013d	8b 07		 mov	 eax, DWORD PTR [edi]

; 1069 :         _Myproxy = _Right._Myproxy;

  0013f	89 01		 mov	 DWORD PTR [ecx], eax
; File C:\Program Files (x86)\Microsoft Visual Studio\2019\Community\VC\Tools\MSVC\14.29.30133\include\deque

; 319  :         _Myoff += _Off;

  00141	8d 04 1a	 lea	 eax, DWORD PTR [edx+ebx]
; File C:\Program Files (x86)\Microsoft Visual Studio\2019\Community\VC\Tools\MSVC\14.29.30133\include\xmemory

; 1113 :     mutable _Iterator_base12* _Mynextiter = nullptr;

  00144	c7 41 04 00 00
	00 00		 mov	 DWORD PTR [ecx+4], 0
  0014b	89 41 08	 mov	 DWORD PTR [ecx+8], eax
$LN255@insert:

; 1099 :             _Myproxy = _Parent->_Myproxy;

  0014e	8d 45 f0	 lea	 eax, DWORD PTR $T1[ebp]
  00151	50		 push	 eax
  00152	e8 00 00 00 00	 call	 ??$rotate@V?$_Deque_iterator@V?$_Deque_val@U?$_Deque_simple_types@PAVCRowSet@@@std@@@std@@@std@@@std@@YA?AV?$_Deque_iterator@V?$_Deque_val@U?$_Deque_simple_types@PAVCRowSet@@@std@@@std@@@0@V10@00@Z ; std::rotate<std::_Deque_iterator<std::_Deque_val<std::_Deque_simple_types<CRowSet *> > > >

; 1113 :     mutable _Iterator_base12* _Mynextiter = nullptr;

  00157	8b 45 08	 mov	 eax, DWORD PTR ___$ReturnUdt$[ebp]

; 1099 :             _Myproxy = _Parent->_Myproxy;

  0015a	83 c4 28	 add	 esp, 40			; 00000028H
  0015d	8b 0f		 mov	 ecx, DWORD PTR [edi]

; 1069 :         _Myproxy = _Right._Myproxy;

  0015f	89 08		 mov	 DWORD PTR [eax], ecx
; File C:\Program Files (x86)\Microsoft Visual Studio\2019\Community\VC\Tools\MSVC\14.29.30133\include\deque

; 319  :         _Myoff += _Off;

  00161	8b 4f 0c	 mov	 ecx, DWORD PTR [edi+12]

; 1210 :     }

  00164	5f		 pop	 edi

; 319  :         _Myoff += _Off;

  00165	03 cb		 add	 ecx, ebx
; File C:\Program Files (x86)\Microsoft Visual Studio\2019\Community\VC\Tools\MSVC\14.29.30133\include\xmemory

; 1113 :     mutable _Iterator_base12* _Mynextiter = nullptr;

  00167	c7 40 04 00 00
	00 00		 mov	 DWORD PTR [eax+4], 0
; File C:\Program Files (x86)\Microsoft Visual Studio\2019\Community\VC\Tools\MSVC\14.29.30133\include\deque

; 1210 :     }

  0016e	5e		 pop	 esi
  0016f	89 48 08	 mov	 DWORD PTR [eax+8], ecx
  00172	5b		 pop	 ebx
  00173	8b e5		 mov	 esp, ebp
  00175	5d		 pop	 ebp
  00176	c2 14 00	 ret	 20			; 00000014H
?insert@?$deque@PAVCRowSet@@V?$allocator@PAVCRowSet@@@std@@@std@@QAE?AV?$_Deque_iterator@V?$_Deque_val@U?$_Deque_simple_types@PAVCRowSet@@@std@@@std@@@2@V?$_Deque_const_iterator@V?$_Deque_val@U?$_Deque_simple_types@PAVCRowSet@@@std@@@std@@@2@ABQAVCRowSet@@@Z ENDP ; std::deque<CRowSet *,std::allocator<CRowSet *> >::insert
_TEXT	ENDS
; Function compile flags: /Ogtp
; File C:\Program Files (x86)\Microsoft Visual Studio\2019\Community\VC\Tools\MSVC\14.29.30133\include\deque
; File C:\Program Files (x86)\Microsoft Visual Studio\2019\Community\VC\Tools\MSVC\14.29.30133\include\xmemory
; File C:\Program Files (x86)\Microsoft Visual Studio\2019\Community\VC\Tools\MSVC\14.29.30133\include\deque
; File C:\Program Files (x86)\Microsoft Visual Studio\2019\Community\VC\Tools\MSVC\14.29.30133\include\xmemory
; File C:\Program Files (x86)\Microsoft Visual Studio\2019\Community\VC\Tools\MSVC\14.29.30133\include\deque
;	COMDAT ?push_back@?$deque@PAVCRowSet@@V?$allocator@PAVCRowSet@@@std@@@std@@QAEXABQAVCRowSet@@@Z
_TEXT	SEGMENT
__Val$ = 8						; size = 4
?push_back@?$deque@PAVCRowSet@@V?$allocator@PAVCRowSet@@@std@@@std@@QAEXABQAVCRowSet@@@Z PROC ; std::deque<CRowSet *,std::allocator<CRowSet *> >::push_back, COMDAT
; _this$ = ecx

; 1123 :     void push_back(const _Ty& _Val) {

  00000	55		 push	 ebp
  00001	8b ec		 mov	 ebp, esp
  00003	53		 push	 ebx
  00004	56		 push	 esi
  00005	8b f1		 mov	 esi, ecx
  00007	57		 push	 edi

; 1106 :         if ((_Myoff() + _Mysize()) % _Block_size == 0 && _Mapsize() <= (_Mysize() + _Block_size) / _Block_size) {

  00008	8b 4e 10	 mov	 ecx, DWORD PTR [esi+16]
  0000b	8b f9		 mov	 edi, ecx
  0000d	8b 56 0c	 mov	 edx, DWORD PTR [esi+12]
  00010	8d 04 0a	 lea	 eax, DWORD PTR [edx+ecx]
  00013	a8 03		 test	 al, 3
  00015	75 1a		 jne	 SHORT $LN4@push_back
  00017	8d 41 04	 lea	 eax, DWORD PTR [ecx+4]
  0001a	c1 e8 02	 shr	 eax, 2
  0001d	39 46 08	 cmp	 DWORD PTR [esi+8], eax
  00020	77 0f		 ja	 SHORT $LN4@push_back

; 1107 :             _Growmap(1);

  00022	6a 01		 push	 1
  00024	8b ce		 mov	 ecx, esi
  00026	e8 00 00 00 00	 call	 ?_Growmap@?$deque@PAVCRowSet@@V?$allocator@PAVCRowSet@@@std@@@std@@AAEXI@Z ; std::deque<CRowSet *,std::allocator<CRowSet *> >::_Growmap
  0002b	8b 56 0c	 mov	 edx, DWORD PTR [esi+12]
  0002e	8b 7e 10	 mov	 edi, DWORD PTR [esi+16]
$LN4@push_back:

; 1108 :         }
; 1109 :         _Myoff() &= _Mapsize() * _Block_size - 1;

  00031	8b 4e 08	 mov	 ecx, DWORD PTR [esi+8]
  00034	8d 04 8d ff ff
	ff ff		 lea	 eax, DWORD PTR [ecx*4-1]

; 559  :         return (_Off / _Block_size) & (_Mapsize - 1);

  0003b	49		 dec	 ecx

; 1109 :         _Myoff() &= _Mapsize() * _Block_size - 1;

  0003c	23 c2		 and	 eax, edx
  0003e	89 46 0c	 mov	 DWORD PTR [esi+12], eax

; 1110 :         size_type _Newoff = _Myoff() + _Mysize();

  00041	03 f8		 add	 edi, eax

; 559  :         return (_Off / _Block_size) & (_Mapsize - 1);

  00043	8b c7		 mov	 eax, edi
  00045	c1 e8 02	 shr	 eax, 2
  00048	23 c8		 and	 ecx, eax

; 1112 :         if (_Map()[_Block] == nullptr) {

  0004a	8d 1c 8d 00 00
	00 00		 lea	 ebx, DWORD PTR [ecx*4]
  00051	8b 4e 04	 mov	 ecx, DWORD PTR [esi+4]
  00054	83 3c 19 00	 cmp	 DWORD PTR [ecx+ebx], 0
  00058	75 13		 jne	 SHORT $LN5@push_back
; File C:\Program Files (x86)\Microsoft Visual Studio\2019\Community\VC\Tools\MSVC\14.29.30133\include\xmemory

; 79   :         return ::operator new(_Bytes);

  0005a	6a 10		 push	 16			; 00000010H
  0005c	e8 00 00 00 00	 call	 ??2@YAPAXI@Z		; operator new
; File C:\Program Files (x86)\Microsoft Visual Studio\2019\Community\VC\Tools\MSVC\14.29.30133\include\deque

; 1113 :             _Map()[_Block] = _Getal().allocate(_Block_size);

  00061	8b 4e 04	 mov	 ecx, DWORD PTR [esi+4]
; File C:\Program Files (x86)\Microsoft Visual Studio\2019\Community\VC\Tools\MSVC\14.29.30133\include\xmemory

; 79   :         return ::operator new(_Bytes);

  00064	83 c4 04	 add	 esp, 4
; File C:\Program Files (x86)\Microsoft Visual Studio\2019\Community\VC\Tools\MSVC\14.29.30133\include\deque

; 1113 :             _Map()[_Block] = _Getal().allocate(_Block_size);

  00067	89 04 0b	 mov	 DWORD PTR [ebx+ecx], eax
  0006a	8b 4e 04	 mov	 ecx, DWORD PTR [esi+4]
$LN5@push_back:

; 1114 :         }
; 1115 : 
; 1116 :         _Alty_traits::construct(

  0006d	8b 0c 0b	 mov	 ecx, DWORD PTR [ebx+ecx]
  00070	83 e7 03	 and	 edi, 3
  00073	8b 45 08	 mov	 eax, DWORD PTR __Val$[ebp]
  00076	8b 00		 mov	 eax, DWORD PTR [eax]
  00078	89 04 b9	 mov	 DWORD PTR [ecx+edi*4], eax

; 1117 :             _Getal(), _Unfancy(_Map()[_Block] + _Newoff % _Block_size), _STD forward<_Tys>(_Vals)...);
; 1118 : 
; 1119 :         ++_Mysize();

  0007b	ff 46 10	 inc	 DWORD PTR [esi+16]
  0007e	5f		 pop	 edi
  0007f	5e		 pop	 esi
  00080	5b		 pop	 ebx

; 1124 :         _Orphan_all();
; 1125 :         _Emplace_back_internal(_Val);
; 1126 :     }

  00081	5d		 pop	 ebp
  00082	c2 04 00	 ret	 4
?push_back@?$deque@PAVCRowSet@@V?$allocator@PAVCRowSet@@@std@@@std@@QAEXABQAVCRowSet@@@Z ENDP ; std::deque<CRowSet *,std::allocator<CRowSet *> >::push_back
_TEXT	ENDS
; Function compile flags: /Ogtp
; File D:\git\src\IBK\IBK_DRFN\ProjSrc\SrcChartEx\ChartAddIn\ChartAnalysisToolAddIn\AnalysisTool\ColumnSet.cpp
; File C:\Program Files (x86)\Microsoft Visual Studio\2019\Community\VC\Tools\MSVC\14.29.30133\include\deque
; File D:\git\src\IBK\IBK_DRFN\ProjSrc\SrcChartEx\ChartAddIn\ChartAnalysisToolAddIn\Include_Chart\DequeList.h
; File C:\Program Files (x86)\Microsoft Visual Studio\2019\Community\VC\Tools\MSVC\14.29.30133\include\deque
; File D:\git\src\IBK\IBK_DRFN\ProjSrc\SrcChartEx\ChartAddIn\ChartAnalysisToolAddIn\Include_Chart\DequeList.h
; File C:\Program Files (x86)\Microsoft Visual Studio\2019\Community\VC\Tools\MSVC\14.29.30133\include\deque
; File D:\git\src\IBK\IBK_DRFN\ProjSrc\SrcChartEx\ChartAddIn\ChartAnalysisToolAddIn\Include_Chart\DequeList.h
; File D:\git\src\IBK\IBK_DRFN\ProjSrc\SrcChartEx\ChartAddIn\ChartAnalysisToolAddIn\AnalysisTool\ColumnSet.cpp
; File D:\git\src\IBK\IBK_DRFN\ProjSrc\SrcChartEx\ChartAddIn\ChartAnalysisToolAddIn\Include_Chart\BlockBaseData.h
; File D:\git\src\IBK\IBK_DRFN\ProjSrc\SrcChartEx\ChartAddIn\ChartAnalysisToolAddIn\AnalysisTool\ColumnSet.cpp
; File D:\git\src\IBK\IBK_DRFN\ProjSrc\SrcChartEx\ChartAddIn\ChartAnalysisToolAddIn\Include_Chart\BlockBaseData.h
; File D:\git\src\IBK\IBK_DRFN\ProjSrc\SrcChartEx\ChartAddIn\ChartAnalysisToolAddIn\AnalysisTool\ColumnSet.cpp
; File D:\git\src\IBK\IBK_DRFN\ProjSrc\SrcChartEx\ChartAddIn\ChartAnalysisToolAddIn\Include_Chart\BlockBaseData.h
; File D:\git\src\IBK\IBK_DRFN\ProjSrc\SrcChartEx\ChartAddIn\ChartAnalysisToolAddIn\AnalysisTool\ColumnSet.cpp
; File D:\git\src\IBK\IBK_DRFN\ProjSrc\SrcChartEx\ChartAddIn\ChartAnalysisToolAddIn\Include_Chart\BlockBaseData.h
; File D:\git\src\IBK\IBK_DRFN\ProjSrc\SrcChartEx\ChartAddIn\ChartAnalysisToolAddIn\AnalysisTool\ColumnSet.cpp
;	COMDAT ?GetBlockIndexInElement@CColumnSet@@QBE?AVCBlockIndex@@PBVCElement@@H@Z
_TEXT	SEGMENT
___$ReturnUdt$ = 8					; size = 4
_pSelectedElement$ = 12					; size = 4
_columnIndex$ = 16					; size = 4
?GetBlockIndexInElement@CColumnSet@@QBE?AVCBlockIndex@@PBVCElement@@H@Z PROC ; CColumnSet::GetBlockIndexInElement, COMDAT
; _this$ = ecx

; 295  : {

  00000	55		 push	 ebp
  00001	8b ec		 mov	 ebp, esp
  00003	83 ec 08	 sub	 esp, 8
  00006	53		 push	 ebx

; 296  : 	if(pSelectedElement == NULL)

  00007	8b 5d 0c	 mov	 ebx, DWORD PTR _pSelectedElement$[ebp]
  0000a	56		 push	 esi
  0000b	57		 push	 edi
  0000c	8b f9		 mov	 edi, ecx
  0000e	85 db		 test	 ebx, ebx
  00010	74 45		 je	 SHORT $LN3@GetBlockIn

; 297  : 		return CBlockIndex();
; 298  : 
; 299  : 	CBlockIndex blockIndex;
; 300  : 	for(int rowIndex = 0; rowIndex < m_RowSetList.GetCount(); ++rowIndex)

  00012	33 f6		 xor	 esi, esi
  00014	39 77 14	 cmp	 DWORD PTR [edi+20], esi
  00017	7e 3e		 jle	 SHORT $LN3@GetBlockIn
  00019	0f 1f 80 00 00
	00 00		 npad	 7
$LL4@GetBlockIn:
; File C:\Program Files (x86)\Microsoft Visual Studio\2019\Community\VC\Tools\MSVC\14.29.30133\include\deque

; 1002 :         return _Mysize() == 0;

  00020	83 7f 14 00	 cmp	 DWORD PTR [edi+20], 0
; File D:\git\src\IBK\IBK_DRFN\ProjSrc\SrcChartEx\ChartAddIn\ChartAnalysisToolAddIn\Include_Chart\DequeList.h

; 205  : 		if(m_deque.empty())

  00024	75 04		 jne	 SHORT $LN13@GetBlockIn

; 206  : 			return NULL;

  00026	33 c9		 xor	 ecx, ecx
  00028	eb 1d		 jmp	 SHORT $LN12@GetBlockIn
$LN13@GetBlockIn:
; File C:\Program Files (x86)\Microsoft Visual Studio\2019\Community\VC\Tools\MSVC\14.29.30133\include\deque

; 43   :         : _Mycont(static_cast<const _Mydeque*>(_Pdeque)), _Myoff(_Off) {}

  0002a	8b 47 10	 mov	 eax, DWORD PTR [edi+16]

; 78   :         _Myoff += _Off;

  0002d	8d 14 30	 lea	 edx, DWORD PTR [eax+esi]

; 559  :         return (_Off / _Block_size) & (_Mapsize - 1);

  00030	8b 47 0c	 mov	 eax, DWORD PTR [edi+12]

; 78   :         _Myoff += _Off;

  00033	8b ca		 mov	 ecx, edx

; 559  :         return (_Off / _Block_size) & (_Mapsize - 1);

  00035	48		 dec	 eax

; 78   :         _Myoff += _Off;

  00036	c1 e9 02	 shr	 ecx, 2

; 559  :         return (_Off / _Block_size) & (_Mapsize - 1);

  00039	23 c8		 and	 ecx, eax
; File D:\git\src\IBK\IBK_DRFN\ProjSrc\SrcChartEx\ChartAddIn\ChartAnalysisToolAddIn\Include_Chart\DequeList.h

; 208  : 		return m_deque[nIndex];

  0003b	8b 47 08	 mov	 eax, DWORD PTR [edi+8]
; File C:\Program Files (x86)\Microsoft Visual Studio\2019\Community\VC\Tools\MSVC\14.29.30133\include\deque

; 48   :         return _Mycont->_Map[_Block][_Off];

  0003e	83 e2 03	 and	 edx, 3
; File D:\git\src\IBK\IBK_DRFN\ProjSrc\SrcChartEx\ChartAddIn\ChartAnalysisToolAddIn\Include_Chart\DequeList.h

; 208  : 		return m_deque[nIndex];

  00041	8b 04 88	 mov	 eax, DWORD PTR [eax+ecx*4]
  00044	8b 0c 90	 mov	 ecx, DWORD PTR [eax+edx*4]
$LN12@GetBlockIn:
; File D:\git\src\IBK\IBK_DRFN\ProjSrc\SrcChartEx\ChartAddIn\ChartAnalysisToolAddIn\AnalysisTool\ColumnSet.cpp

; 304  : 		if(pRowSet->IsInSameElement(pSelectedElement))

  00047	53		 push	 ebx
  00048	e8 00 00 00 00	 call	 ?IsInSameElement@CRowSet@@QBE_NPBVCElement@@@Z ; CRowSet::IsInSameElement
  0004d	84 c0		 test	 al, al
  0004f	75 1f		 jne	 SHORT $LN36@GetBlockIn

; 297  : 		return CBlockIndex();
; 298  : 
; 299  : 	CBlockIndex blockIndex;
; 300  : 	for(int rowIndex = 0; rowIndex < m_RowSetList.GetCount(); ++rowIndex)

  00051	46		 inc	 esi
  00052	3b 77 14	 cmp	 esi, DWORD PTR [edi+20]
  00055	7c c9		 jl	 SHORT $LL4@GetBlockIn
$LN3@GetBlockIn:
; File D:\git\src\IBK\IBK_DRFN\ProjSrc\SrcChartEx\ChartAddIn\ChartAnalysisToolAddIn\Include_Chart\BlockBaseData.h

; 19   : 	CBlockIndex() { m_nRow = m_nColumn = -1; };

  00057	8b 45 08	 mov	 eax, DWORD PTR ___$ReturnUdt$[ebp]
  0005a	5f		 pop	 edi
; File D:\git\src\IBK\IBK_DRFN\ProjSrc\SrcChartEx\ChartAddIn\ChartAnalysisToolAddIn\AnalysisTool\ColumnSet.cpp

; 308  : }

  0005b	5e		 pop	 esi
  0005c	5b		 pop	 ebx
; File D:\git\src\IBK\IBK_DRFN\ProjSrc\SrcChartEx\ChartAddIn\ChartAnalysisToolAddIn\Include_Chart\BlockBaseData.h

; 19   : 	CBlockIndex() { m_nRow = m_nColumn = -1; };

  0005d	c7 40 04 ff ff
	ff ff		 mov	 DWORD PTR [eax+4], -1
  00064	c7 00 ff ff ff
	ff		 mov	 DWORD PTR [eax], -1
; File D:\git\src\IBK\IBK_DRFN\ProjSrc\SrcChartEx\ChartAddIn\ChartAnalysisToolAddIn\AnalysisTool\ColumnSet.cpp

; 308  : }

  0006a	8b e5		 mov	 esp, ebp
  0006c	5d		 pop	 ebp
  0006d	c2 0c 00	 ret	 12			; 0000000cH
$LN36@GetBlockIn:
; File D:\git\src\IBK\IBK_DRFN\ProjSrc\SrcChartEx\ChartAddIn\ChartAnalysisToolAddIn\Include_Chart\BlockBaseData.h

; 20   : 	CBlockIndex(const int row, const int column) { m_nRow = row; m_nColumn = column; };

  00070	8b 45 08	 mov	 eax, DWORD PTR ___$ReturnUdt$[ebp]
  00073	8b 4d 10	 mov	 ecx, DWORD PTR _columnIndex$[ebp]
  00076	5f		 pop	 edi
  00077	89 30		 mov	 DWORD PTR [eax], esi
; File D:\git\src\IBK\IBK_DRFN\ProjSrc\SrcChartEx\ChartAddIn\ChartAnalysisToolAddIn\AnalysisTool\ColumnSet.cpp

; 308  : }

  00079	5e		 pop	 esi
; File D:\git\src\IBK\IBK_DRFN\ProjSrc\SrcChartEx\ChartAddIn\ChartAnalysisToolAddIn\Include_Chart\BlockBaseData.h

; 20   : 	CBlockIndex(const int row, const int column) { m_nRow = row; m_nColumn = column; };

  0007a	89 48 04	 mov	 DWORD PTR [eax+4], ecx
; File D:\git\src\IBK\IBK_DRFN\ProjSrc\SrcChartEx\ChartAddIn\ChartAnalysisToolAddIn\AnalysisTool\ColumnSet.cpp

; 308  : }

  0007d	5b		 pop	 ebx
  0007e	8b e5		 mov	 esp, ebp
  00080	5d		 pop	 ebp
  00081	c2 0c 00	 ret	 12			; 0000000cH
?GetBlockIndexInElement@CColumnSet@@QBE?AVCBlockIndex@@PBVCElement@@H@Z ENDP ; CColumnSet::GetBlockIndexInElement
_TEXT	ENDS
; Function compile flags: /Ogtp
; File D:\git\src\IBK\IBK_DRFN\ProjSrc\SrcChartEx\ChartAddIn\ChartAnalysisToolAddIn\AnalysisTool\ColumnSet.cpp
; File C:\Program Files (x86)\Microsoft Visual Studio\2019\Community\VC\Tools\MSVC\14.29.30133\include\deque
; File D:\git\src\IBK\IBK_DRFN\ProjSrc\SrcChartEx\ChartAddIn\ChartAnalysisToolAddIn\Include_Chart\DequeList.h
; File C:\Program Files (x86)\Microsoft Visual Studio\2019\Community\VC\Tools\MSVC\14.29.30133\include\deque
; File D:\git\src\IBK\IBK_DRFN\ProjSrc\SrcChartEx\ChartAddIn\ChartAnalysisToolAddIn\Include_Chart\DequeList.h
; File C:\Program Files (x86)\Microsoft Visual Studio\2019\Community\VC\Tools\MSVC\14.29.30133\include\deque
; File D:\git\src\IBK\IBK_DRFN\ProjSrc\SrcChartEx\ChartAddIn\ChartAnalysisToolAddIn\Include_Chart\DequeList.h
; File D:\git\src\IBK\IBK_DRFN\ProjSrc\SrcChartEx\ChartAddIn\ChartAnalysisToolAddIn\AnalysisTool\ColumnSet.cpp
;	COMDAT ?MoveElement@CColumnSet@@QAEJPAVCElement@@@Z
_TEXT	SEGMENT
_pSelectedElement$ = 8					; size = 4
?MoveElement@CColumnSet@@QAEJPAVCElement@@@Z PROC	; CColumnSet::MoveElement, COMDAT
; _this$ = ecx

; 280  : {

  00000	55		 push	 ebp
  00001	8b ec		 mov	 ebp, esp
  00003	83 ec 08	 sub	 esp, 8
  00006	56		 push	 esi
  00007	57		 push	 edi
  00008	8b f9		 mov	 edi, ecx

; 281  : 	long lAddress = 0;
; 282  : 	for(int rowIndex = 0; rowIndex < m_RowSetList.GetCount(); rowIndex++){

  0000a	33 f6		 xor	 esi, esi
  0000c	39 77 14	 cmp	 DWORD PTR [edi+20], esi
  0000f	7e 44		 jle	 SHORT $LN38@MoveElemen

; 283  : 		CRowSet* pRowSet = m_RowSetList.GetAt(rowIndex);

  00011	53		 push	 ebx
  00012	8b 5d 08	 mov	 ebx, DWORD PTR _pSelectedElement$[ebp]
$LL4@MoveElemen:
; File C:\Program Files (x86)\Microsoft Visual Studio\2019\Community\VC\Tools\MSVC\14.29.30133\include\deque

; 1002 :         return _Mysize() == 0;

  00015	83 7f 14 00	 cmp	 DWORD PTR [edi+20], 0
; File D:\git\src\IBK\IBK_DRFN\ProjSrc\SrcChartEx\ChartAddIn\ChartAnalysisToolAddIn\Include_Chart\DequeList.h

; 198  : 		if(m_deque.empty())

  00019	75 04		 jne	 SHORT $LN8@MoveElemen

; 199  : 			return NULL;

  0001b	33 c9		 xor	 ecx, ecx
  0001d	eb 1d		 jmp	 SHORT $LN7@MoveElemen
$LN8@MoveElemen:
; File C:\Program Files (x86)\Microsoft Visual Studio\2019\Community\VC\Tools\MSVC\14.29.30133\include\deque

; 43   :         : _Mycont(static_cast<const _Mydeque*>(_Pdeque)), _Myoff(_Off) {}

  0001f	8b 47 10	 mov	 eax, DWORD PTR [edi+16]

; 78   :         _Myoff += _Off;

  00022	8d 14 30	 lea	 edx, DWORD PTR [eax+esi]

; 559  :         return (_Off / _Block_size) & (_Mapsize - 1);

  00025	8b 47 0c	 mov	 eax, DWORD PTR [edi+12]

; 78   :         _Myoff += _Off;

  00028	8b ca		 mov	 ecx, edx

; 559  :         return (_Off / _Block_size) & (_Mapsize - 1);

  0002a	48		 dec	 eax

; 78   :         _Myoff += _Off;

  0002b	c1 e9 02	 shr	 ecx, 2

; 559  :         return (_Off / _Block_size) & (_Mapsize - 1);

  0002e	23 c8		 and	 ecx, eax
; File D:\git\src\IBK\IBK_DRFN\ProjSrc\SrcChartEx\ChartAddIn\ChartAnalysisToolAddIn\Include_Chart\DequeList.h

; 201  : 		return m_deque[nIndex];

  00030	8b 47 08	 mov	 eax, DWORD PTR [edi+8]
; File C:\Program Files (x86)\Microsoft Visual Studio\2019\Community\VC\Tools\MSVC\14.29.30133\include\deque

; 48   :         return _Mycont->_Map[_Block][_Off];

  00033	83 e2 03	 and	 edx, 3
; File D:\git\src\IBK\IBK_DRFN\ProjSrc\SrcChartEx\ChartAddIn\ChartAnalysisToolAddIn\Include_Chart\DequeList.h

; 201  : 		return m_deque[nIndex];

  00036	8b 04 88	 mov	 eax, DWORD PTR [eax+ecx*4]
  00039	8b 0c 90	 mov	 ecx, DWORD PTR [eax+edx*4]
$LN7@MoveElemen:
; File D:\git\src\IBK\IBK_DRFN\ProjSrc\SrcChartEx\ChartAddIn\ChartAnalysisToolAddIn\AnalysisTool\ColumnSet.cpp

; 286  : 		lAddress = pRowSet->MoveElement(pSelectedElement);

  0003c	53		 push	 ebx
  0003d	e8 00 00 00 00	 call	 ?MoveElement@CRowSet@@QAEJPAVCElement@@@Z ; CRowSet::MoveElement

; 287  : 		if(lAddress == 0)

  00042	85 c0		 test	 eax, eax
  00044	74 06		 je	 SHORT $LN39@MoveElemen

; 281  : 	long lAddress = 0;
; 282  : 	for(int rowIndex = 0; rowIndex < m_RowSetList.GetCount(); rowIndex++){

  00046	46		 inc	 esi
  00047	3b 77 14	 cmp	 esi, DWORD PTR [edi+20]
  0004a	7c c9		 jl	 SHORT $LL4@MoveElemen
$LN39@MoveElemen:
  0004c	5b		 pop	 ebx
  0004d	5f		 pop	 edi

; 292  : }

  0004e	5e		 pop	 esi
  0004f	8b e5		 mov	 esp, ebp
  00051	5d		 pop	 ebp
  00052	c2 04 00	 ret	 4
$LN38@MoveElemen:
  00055	5f		 pop	 edi

; 288  : 			break;
; 289  : 	}
; 290  : 
; 291  : 	return lAddress;

  00056	33 c0		 xor	 eax, eax

; 292  : }

  00058	5e		 pop	 esi
  00059	8b e5		 mov	 esp, ebp
  0005b	5d		 pop	 ebp
  0005c	c2 04 00	 ret	 4
?MoveElement@CColumnSet@@QAEJPAVCElement@@@Z ENDP	; CColumnSet::MoveElement
_TEXT	ENDS
; Function compile flags: /Ogtp
; File D:\git\src\IBK\IBK_DRFN\ProjSrc\SrcChartEx\ChartAddIn\ChartAnalysisToolAddIn\AnalysisTool\ColumnSet.cpp
; File C:\Program Files (x86)\Microsoft Visual Studio\2019\Community\VC\Tools\MSVC\14.29.30133\include\deque
; File D:\git\src\IBK\IBK_DRFN\ProjSrc\SrcChartEx\ChartAddIn\ChartAnalysisToolAddIn\Include_Chart\DequeList.h
; File C:\Program Files (x86)\Microsoft Visual Studio\2019\Community\VC\Tools\MSVC\14.29.30133\include\deque
; File D:\git\src\IBK\IBK_DRFN\ProjSrc\SrcChartEx\ChartAddIn\ChartAnalysisToolAddIn\Include_Chart\DequeList.h
; File C:\Program Files (x86)\Microsoft Visual Studio\2019\Community\VC\Tools\MSVC\14.29.30133\include\deque
; File D:\git\src\IBK\IBK_DRFN\ProjSrc\SrcChartEx\ChartAddIn\ChartAnalysisToolAddIn\Include_Chart\DequeList.h
; File D:\git\src\IBK\IBK_DRFN\ProjSrc\SrcChartEx\ChartAddIn\ChartAnalysisToolAddIn\AnalysisTool\ColumnSet.cpp
;	COMDAT ?CopyElement@CColumnSet@@QAEPAVCElement@@PAV2@@Z
_TEXT	SEGMENT
__Tmp$1 = -8						; size = 8
_pRowSet$1$ = -4					; size = 4
_pSelectedElement$ = 8					; size = 4
?CopyElement@CColumnSet@@QAEPAVCElement@@PAV2@@Z PROC	; CColumnSet::CopyElement, COMDAT
; _this$ = ecx

; 261  : {

  00000	55		 push	 ebp
  00001	8b ec		 mov	 ebp, esp
  00003	83 ec 08	 sub	 esp, 8
  00006	53		 push	 ebx
  00007	56		 push	 esi
  00008	8b d9		 mov	 ebx, ecx

; 262  : 	CElement *lAddress = NULL;
; 263  : 	CElement *lAddressTemp = NULL;
; 264  : 	for(int rowIndex = 0; rowIndex < m_RowSetList.GetCount(); rowIndex++){

  0000a	33 f6		 xor	 esi, esi
  0000c	57		 push	 edi
  0000d	33 ff		 xor	 edi, edi
  0000f	39 73 14	 cmp	 DWORD PTR [ebx+20], esi
  00012	7e 4e		 jle	 SHORT $LN37@CopyElemen
$LL4@CopyElemen:
; File C:\Program Files (x86)\Microsoft Visual Studio\2019\Community\VC\Tools\MSVC\14.29.30133\include\deque

; 1002 :         return _Mysize() == 0;

  00014	83 7b 14 00	 cmp	 DWORD PTR [ebx+20], 0
; File D:\git\src\IBK\IBK_DRFN\ProjSrc\SrcChartEx\ChartAddIn\ChartAnalysisToolAddIn\Include_Chart\DequeList.h

; 198  : 		if(m_deque.empty())

  00018	75 04		 jne	 SHORT $LN9@CopyElemen

; 199  : 			return NULL;

  0001a	33 c0		 xor	 eax, eax
  0001c	eb 20		 jmp	 SHORT $LN38@CopyElemen
$LN9@CopyElemen:
; File C:\Program Files (x86)\Microsoft Visual Studio\2019\Community\VC\Tools\MSVC\14.29.30133\include\deque

; 43   :         : _Mycont(static_cast<const _Mydeque*>(_Pdeque)), _Myoff(_Off) {}

  0001e	8b 43 10	 mov	 eax, DWORD PTR [ebx+16]

; 202  :         _Deque_unchecked_iterator _Tmp = *this;

  00021	89 45 fc	 mov	 DWORD PTR __Tmp$1[ebp+4], eax

; 78   :         _Myoff += _Off;

  00024	8d 14 30	 lea	 edx, DWORD PTR [eax+esi]

; 559  :         return (_Off / _Block_size) & (_Mapsize - 1);

  00027	8b 43 0c	 mov	 eax, DWORD PTR [ebx+12]
  0002a	48		 dec	 eax

; 78   :         _Myoff += _Off;

  0002b	8b ca		 mov	 ecx, edx
  0002d	c1 e9 02	 shr	 ecx, 2

; 559  :         return (_Off / _Block_size) & (_Mapsize - 1);

  00030	23 c8		 and	 ecx, eax
; File D:\git\src\IBK\IBK_DRFN\ProjSrc\SrcChartEx\ChartAddIn\ChartAnalysisToolAddIn\Include_Chart\DequeList.h

; 201  : 		return m_deque[nIndex];

  00032	8b 43 08	 mov	 eax, DWORD PTR [ebx+8]
; File C:\Program Files (x86)\Microsoft Visual Studio\2019\Community\VC\Tools\MSVC\14.29.30133\include\deque

; 48   :         return _Mycont->_Map[_Block][_Off];

  00035	83 e2 03	 and	 edx, 3
; File D:\git\src\IBK\IBK_DRFN\ProjSrc\SrcChartEx\ChartAddIn\ChartAnalysisToolAddIn\Include_Chart\DequeList.h

; 201  : 		return m_deque[nIndex];

  00038	8b 04 88	 mov	 eax, DWORD PTR [eax+ecx*4]
  0003b	8b 04 90	 mov	 eax, DWORD PTR [eax+edx*4]
$LN38@CopyElemen:
; File D:\git\src\IBK\IBK_DRFN\ProjSrc\SrcChartEx\ChartAddIn\ChartAnalysisToolAddIn\AnalysisTool\ColumnSet.cpp

; 268  : 		if(pRowSet->GetElementCount() <= 0)

  0003e	8b c8		 mov	 ecx, eax
  00040	89 45 fc	 mov	 DWORD PTR _pRowSet$1$[ebp], eax
  00043	e8 00 00 00 00	 call	 ?GetElementCount@CRowSet@@QBEHXZ ; CRowSet::GetElementCount
  00048	85 c0		 test	 eax, eax
  0004a	7e 10		 jle	 SHORT $LN2@CopyElemen

; 269  : 			continue;
; 270  : 		
; 271  : 		lAddressTemp = pRowSet->CopyElement(pSelectedElement);

  0004c	ff 75 08	 push	 DWORD PTR _pSelectedElement$[ebp]
  0004f	8b 4d fc	 mov	 ecx, DWORD PTR _pRowSet$1$[ebp]
  00052	e8 00 00 00 00	 call	 ?CopyElement@CRowSet@@QAEPAVCElement@@PAV2@@Z ; CRowSet::CopyElement

; 272  : 		if(lAddressTemp != 0)

  00057	85 c0		 test	 eax, eax
  00059	0f 45 f8	 cmovne	 edi, eax
$LN2@CopyElemen:

; 262  : 	CElement *lAddress = NULL;
; 263  : 	CElement *lAddressTemp = NULL;
; 264  : 	for(int rowIndex = 0; rowIndex < m_RowSetList.GetCount(); rowIndex++){

  0005c	46		 inc	 esi
  0005d	3b 73 14	 cmp	 esi, DWORD PTR [ebx+20]
  00060	7c b2		 jl	 SHORT $LL4@CopyElemen
$LN37@CopyElemen:

; 273  : 			lAddress = lAddressTemp;
; 274  : 	}
; 275  : 
; 276  : 	return lAddress;
; 277  : }

  00062	8b c7		 mov	 eax, edi
  00064	5f		 pop	 edi
  00065	5e		 pop	 esi
  00066	5b		 pop	 ebx
  00067	8b e5		 mov	 esp, ebp
  00069	5d		 pop	 ebp
  0006a	c2 04 00	 ret	 4
?CopyElement@CColumnSet@@QAEPAVCElement@@PAV2@@Z ENDP	; CColumnSet::CopyElement
_TEXT	ENDS
; Function compile flags: /Ogtp
; File D:\git\src\IBK\IBK_DRFN\ProjSrc\SrcChartEx\ChartAddIn\ChartAnalysisToolAddIn\AnalysisTool\ColumnSet.cpp
; File D:\git\src\IBK\IBK_DRFN\ProjSrc\SrcChartEx\ChartAddIn\ChartAnalysisToolAddIn\Include_Chart\DequeList.h
; File C:\Program Files (x86)\Microsoft Visual Studio\2019\Community\VC\Tools\MSVC\14.29.30133\include\deque
; File D:\git\src\IBK\IBK_DRFN\ProjSrc\SrcChartEx\ChartAddIn\ChartAnalysisToolAddIn\Include_Chart\DequeList.h
; File D:\git\src\IBK\IBK_DRFN\ProjSrc\SrcChartEx\ChartAddIn\ChartAnalysisToolAddIn\AnalysisTool\ColumnSet.cpp
; File D:\git\src\IBK\IBK_DRFN\ProjSrc\SrcChartEx\ChartAddIn\ChartAnalysisToolAddIn\Include_Chart\BlockBaseData.h
; File D:\git\src\IBK\IBK_DRFN\ProjSrc\SrcChartEx\ChartAddIn\ChartAnalysisToolAddIn\AnalysisTool\ColumnSet.cpp
; File D:\git\src\IBK\IBK_DRFN\ProjSrc\SrcChartEx\ChartAddIn\ChartAnalysisToolAddIn\Include_Chart\BlockBaseData.h
; File D:\git\src\IBK\IBK_DRFN\ProjSrc\SrcChartEx\ChartAddIn\ChartAnalysisToolAddIn\AnalysisTool\ColumnSet.cpp
; File D:\git\src\IBK\IBK_DRFN\ProjSrc\SrcChartEx\ChartAddIn\ChartAnalysisToolAddIn\Include_Chart\BlockBaseData.h
; File D:\git\src\IBK\IBK_DRFN\ProjSrc\SrcChartEx\ChartAddIn\ChartAnalysisToolAddIn\AnalysisTool\ColumnSet.cpp
; File C:\Program Files (x86)\Microsoft Visual Studio\2019\Community\VC\Tools\MSVC\14.29.30133\include\deque
; File C:\Program Files (x86)\Microsoft Visual Studio\2019\Community\VC\Tools\MSVC\14.29.30133\include\utility
; File C:\Program Files (x86)\Microsoft Visual Studio\2019\Community\VC\Tools\MSVC\14.29.30133\include\xmemory
; File C:\Program Files (x86)\Microsoft Visual Studio\2019\Community\VC\Tools\MSVC\14.29.30133\include\utility
; File C:\Program Files (x86)\Microsoft Visual Studio\2019\Community\VC\Tools\MSVC\14.29.30133\include\xmemory
; File D:\git\src\IBK\IBK_DRFN\ProjSrc\SrcChartEx\ChartAddIn\ChartAnalysisToolAddIn\AnalysisTool\ColumnSet.cpp
;	COMDAT ?DrawElement@CColumnSet@@QAEXPAVCDC@@PAVCElement@@PAUIChartManager133101@@H@Z
_TEXT	SEGMENT
_drawingRegions$ = -168					; size = 24
$T2 = -144						; size = 8
_pDC$GSCopy$1$ = -136					; size = 4
_pSelectedElement$GSCopy$1$ = -132			; size = 4
_columnIndex$GSCopy$1$ = -128				; size = 4
_pMainBlock$GSCopy$1$ = -124				; size = 4
tv416 = -120						; size = 8
tv409 = -120						; size = 8
__Tmp$3 = -120						; size = 8
_calData$4 = -112					; size = 96
__$ArrayPad$ = -16					; size = 4
__$EHRec$ = -12						; size = 12
_pDC$ = 8						; size = 4
_pSelectedElement$ = 12					; size = 4
_pMainBlock$ = 16					; size = 4
_columnIndex$ = 20					; size = 4
?DrawElement@CColumnSet@@QAEXPAVCDC@@PAVCElement@@PAUIChartManager133101@@H@Z PROC ; CColumnSet::DrawElement, COMDAT
; _this$ = ecx

; 239  : {

  00000	55		 push	 ebp
  00001	8b ec		 mov	 ebp, esp
  00003	6a ff		 push	 -1
  00005	68 00 00 00 00	 push	 __ehhandler$?DrawElement@CColumnSet@@QAEXPAVCDC@@PAVCElement@@PAUIChartManager133101@@H@Z
  0000a	64 a1 00 00 00
	00		 mov	 eax, DWORD PTR fs:0
  00010	50		 push	 eax
  00011	81 ec 9c 00 00
	00		 sub	 esp, 156		; 0000009cH
  00017	a1 00 00 00 00	 mov	 eax, DWORD PTR ___security_cookie
  0001c	33 c5		 xor	 eax, ebp
  0001e	89 45 f0	 mov	 DWORD PTR __$ArrayPad$[ebp], eax
  00021	53		 push	 ebx
  00022	56		 push	 esi
  00023	57		 push	 edi
  00024	50		 push	 eax
  00025	8d 45 f4	 lea	 eax, DWORD PTR __$EHRec$[ebp]
  00028	64 a3 00 00 00
	00		 mov	 DWORD PTR fs:0, eax
  0002e	8b f9		 mov	 edi, ecx
  00030	8b 45 08	 mov	 eax, DWORD PTR _pDC$[ebp]

; 240  : 	CDrawingRegions drawingRegions;

  00033	8d 8d 58 ff ff
	ff		 lea	 ecx, DWORD PTR _drawingRegions$[ebp]
  00039	8b 5d 10	 mov	 ebx, DWORD PTR _pMainBlock$[ebp]
  0003c	8b 75 14	 mov	 esi, DWORD PTR _columnIndex$[ebp]
  0003f	89 85 78 ff ff
	ff		 mov	 DWORD PTR _pDC$GSCopy$1$[ebp], eax
  00045	8b 45 0c	 mov	 eax, DWORD PTR _pSelectedElement$[ebp]
  00048	89 85 7c ff ff
	ff		 mov	 DWORD PTR _pSelectedElement$GSCopy$1$[ebp], eax
  0004e	89 5d 84	 mov	 DWORD PTR _pMainBlock$GSCopy$1$[ebp], ebx
  00051	89 75 80	 mov	 DWORD PTR _columnIndex$GSCopy$1$[ebp], esi
  00054	e8 00 00 00 00	 call	 ??0CDrawingRegions@@QAE@XZ ; CDrawingRegions::CDrawingRegions

; 241  : 	drawingRegions.SetDrawingRegions(pMainBlock, columnIndex);

  00059	56		 push	 esi
  0005a	53		 push	 ebx
  0005b	8d 8d 58 ff ff
	ff		 lea	 ecx, DWORD PTR _drawingRegions$[ebp]
  00061	c7 45 fc 00 00
	00 00		 mov	 DWORD PTR __$EHRec$[ebp+8], 0
  00068	e8 00 00 00 00	 call	 ?SetDrawingRegions@CDrawingRegions@@QAEXPAUIChartManager133101@@H@Z ; CDrawingRegions::SetDrawingRegions

; 242  : 
; 243  : 	for(int rowIndex = 0; rowIndex < m_RowSetList.GetCount(); rowIndex++){

  0006d	33 f6		 xor	 esi, esi
  0006f	39 77 14	 cmp	 DWORD PTR [edi+20], esi
  00072	0f 8e e9 00 00
	00		 jle	 $LN3@DrawElemen
$LL4@DrawElemen:
; File D:\git\src\IBK\IBK_DRFN\ProjSrc\SrcChartEx\ChartAddIn\ChartAnalysisToolAddIn\Include_Chart\DequeList.h

; 198  : 		if(m_deque.empty())

  00078	83 7f 14 00	 cmp	 DWORD PTR [edi+20], 0
  0007c	75 04		 jne	 SHORT $LN12@DrawElemen

; 199  : 			return NULL;

  0007e	33 db		 xor	 ebx, ebx
  00080	eb 20		 jmp	 SHORT $LN11@DrawElemen
$LN12@DrawElemen:
; File C:\Program Files (x86)\Microsoft Visual Studio\2019\Community\VC\Tools\MSVC\14.29.30133\include\deque

; 905  :         return _Unchecked_iterator(_Myoff(), _STD addressof(_Get_data()));

  00082	8b 47 10	 mov	 eax, DWORD PTR [edi+16]

; 559  :         return (_Off / _Block_size) & (_Mapsize - 1);

  00085	8b 4f 0c	 mov	 ecx, DWORD PTR [edi+12]

; 202  :         _Deque_unchecked_iterator _Tmp = *this;

  00088	89 45 8c	 mov	 DWORD PTR __Tmp$3[ebp+4], eax

; 559  :         return (_Off / _Block_size) & (_Mapsize - 1);

  0008b	49		 dec	 ecx

; 78   :         _Myoff += _Off;

  0008c	8d 14 30	 lea	 edx, DWORD PTR [eax+esi]

; 559  :         return (_Off / _Block_size) & (_Mapsize - 1);

  0008f	8b c2		 mov	 eax, edx
  00091	c1 e8 02	 shr	 eax, 2
  00094	23 c8		 and	 ecx, eax

; 48   :         return _Mycont->_Map[_Block][_Off];

  00096	8b 47 08	 mov	 eax, DWORD PTR [edi+8]

; 559  :         return (_Off / _Block_size) & (_Mapsize - 1);

  00099	83 e2 03	 and	 edx, 3

; 48   :         return _Mycont->_Map[_Block][_Off];

  0009c	8b 04 88	 mov	 eax, DWORD PTR [eax+ecx*4]
; File D:\git\src\IBK\IBK_DRFN\ProjSrc\SrcChartEx\ChartAddIn\ChartAnalysisToolAddIn\Include_Chart\DequeList.h

; 201  : 		return m_deque[nIndex];

  0009f	8b 1c 90	 mov	 ebx, DWORD PTR [eax+edx*4]
$LN11@DrawElemen:
; File D:\git\src\IBK\IBK_DRFN\ProjSrc\SrcChartEx\ChartAddIn\ChartAnalysisToolAddIn\AnalysisTool\ColumnSet.cpp

; 246  : 		drawingRegions.GetBlockRegionList().SetCurrentNumber(rowIndex);

  000a2	56		 push	 esi
  000a3	8d 8d 58 ff ff
	ff		 lea	 ecx, DWORD PTR _drawingRegions$[ebp]
  000a9	e8 00 00 00 00	 call	 ?GetBlockRegionList@CDrawingRegions@@QAEAAVCBlockRegionList@@XZ ; CDrawingRegions::GetBlockRegionList
  000ae	8b c8		 mov	 ecx, eax
  000b0	e8 00 00 00 00	 call	 ?SetCurrentNumber@CBlockRegionList@@QAEXH@Z ; CBlockRegionList::SetCurrentNumber

; 247  : 
; 248  : 		if(pRowSet->GetElementCount() <= 0)

  000b5	8b cb		 mov	 ecx, ebx
  000b7	e8 00 00 00 00	 call	 ?GetElementCount@CRowSet@@QBEHXZ ; CRowSet::GetElementCount
  000bc	85 c0		 test	 eax, eax
  000be	0f 8e 93 00 00
	00		 jle	 $LN2@DrawElemen

; 249  : 			continue;
; 250  : 		CCoordinateCalculatorData calData( pMainBlock);

  000c4	ff 75 84	 push	 DWORD PTR _pMainBlock$GSCopy$1$[ebp]
  000c7	8d 4d 90	 lea	 ecx, DWORD PTR _calData$4[ebp]
  000ca	e8 00 00 00 00	 call	 ??0CCoordinateCalculatorData@@QAE@PAUIChartManager133101@@@Z ; CCoordinateCalculatorData::CCoordinateCalculatorData
; File D:\git\src\IBK\IBK_DRFN\ProjSrc\SrcChartEx\ChartAddIn\ChartAnalysisToolAddIn\Include_Chart\BlockBaseData.h

; 20   : 	CBlockIndex(const int row, const int column) { m_nRow = row; m_nColumn = column; };

  000cf	8b 45 80	 mov	 eax, DWORD PTR _columnIndex$GSCopy$1$[ebp]
; File D:\git\src\IBK\IBK_DRFN\ProjSrc\SrcChartEx\ChartAddIn\ChartAnalysisToolAddIn\AnalysisTool\ColumnSet.cpp

; 251  : 		calData.GetCoordinateCalculatorData( CBlockIndex( rowIndex, columnIndex));

  000d2	8d 4d 90	 lea	 ecx, DWORD PTR _calData$4[ebp]
; File D:\git\src\IBK\IBK_DRFN\ProjSrc\SrcChartEx\ChartAddIn\ChartAnalysisToolAddIn\Include_Chart\BlockBaseData.h

; 20   : 	CBlockIndex(const int row, const int column) { m_nRow = row; m_nColumn = column; };

  000d5	89 85 74 ff ff
	ff		 mov	 DWORD PTR $T2[ebp+4], eax
; File D:\git\src\IBK\IBK_DRFN\ProjSrc\SrcChartEx\ChartAddIn\ChartAnalysisToolAddIn\AnalysisTool\ColumnSet.cpp

; 251  : 		calData.GetCoordinateCalculatorData( CBlockIndex( rowIndex, columnIndex));

  000db	8d 85 70 ff ff
	ff		 lea	 eax, DWORD PTR $T2[ebp]
  000e1	50		 push	 eax
  000e2	c6 45 fc 01	 mov	 BYTE PTR __$EHRec$[ebp+8], 1
; File D:\git\src\IBK\IBK_DRFN\ProjSrc\SrcChartEx\ChartAddIn\ChartAnalysisToolAddIn\Include_Chart\BlockBaseData.h

; 20   : 	CBlockIndex(const int row, const int column) { m_nRow = row; m_nColumn = column; };

  000e6	89 b5 70 ff ff
	ff		 mov	 DWORD PTR $T2[ebp], esi
; File D:\git\src\IBK\IBK_DRFN\ProjSrc\SrcChartEx\ChartAddIn\ChartAnalysisToolAddIn\AnalysisTool\ColumnSet.cpp

; 251  : 		calData.GetCoordinateCalculatorData( CBlockIndex( rowIndex, columnIndex));

  000ec	e8 00 00 00 00	 call	 ?GetCoordinateCalculatorData@CCoordinateCalculatorData@@QAEXABVCBlockIndex@@@Z ; CCoordinateCalculatorData::GetCoordinateCalculatorData

; 252  : 
; 253  : 		// (2007/5/10 - Seung-Won, Bae) Check No Y Scale Min/Max.
; 254  : 		if( -HUGE_VAL == calData.GetDisplayDataMax_ScaleType() || -HUGE_VAL == calData.GetDisplayDataMin_ScaleType()) continue;

  000f1	8d 4d 90	 lea	 ecx, DWORD PTR _calData$4[ebp]
  000f4	e8 00 00 00 00	 call	 ?GetDisplayDataMax_ScaleType@CCoordinateCalculatorData@@QBENXZ ; CCoordinateCalculatorData::GetDisplayDataMax_ScaleType
  000f9	f2 0f 10 05 00
	00 00 00	 movsd	 xmm0, QWORD PTR __real@fff0000000000000
  00101	dd 5d 88	 fstp	 QWORD PTR tv416[ebp]
  00104	66 0f 2e 45 88	 ucomisd xmm0, QWORD PTR tv416[ebp]
  00109	9f		 lahf
  0010a	f6 c4 44	 test	 ah, 68			; 00000044H
  0010d	7b 3c		 jnp	 SHORT $LN7@DrawElemen
  0010f	8d 4d 90	 lea	 ecx, DWORD PTR _calData$4[ebp]
  00112	e8 00 00 00 00	 call	 ?GetDisplayDataMin_ScaleType@CCoordinateCalculatorData@@QBENXZ ; CCoordinateCalculatorData::GetDisplayDataMin_ScaleType
  00117	f2 0f 10 05 00
	00 00 00	 movsd	 xmm0, QWORD PTR __real@fff0000000000000
  0011f	dd 5d 88	 fstp	 QWORD PTR tv409[ebp]
  00122	66 0f 2e 45 88	 ucomisd xmm0, QWORD PTR tv409[ebp]
  00127	9f		 lahf
  00128	f6 c4 44	 test	 ah, 68			; 00000044H
  0012b	7b 1e		 jnp	 SHORT $LN7@DrawElemen

; 255  : 
; 256  : 		pRowSet->DrawElement(pDC,pSelectedElement,drawingRegions,calData);

  0012d	8d 45 90	 lea	 eax, DWORD PTR _calData$4[ebp]
  00130	8b cb		 mov	 ecx, ebx
  00132	50		 push	 eax
  00133	8d 85 58 ff ff
	ff		 lea	 eax, DWORD PTR _drawingRegions$[ebp]
  00139	50		 push	 eax
  0013a	ff b5 7c ff ff
	ff		 push	 DWORD PTR _pSelectedElement$GSCopy$1$[ebp]
  00140	ff b5 78 ff ff
	ff		 push	 DWORD PTR _pDC$GSCopy$1$[ebp]
  00146	e8 00 00 00 00	 call	 ?DrawElement@CRowSet@@QAEXPAVCDC@@PAVCElement@@ABVCDrawingRegions@@ABVCCoordinateCalculatorData@@@Z ; CRowSet::DrawElement
$LN7@DrawElemen:

; 242  : 
; 243  : 	for(int rowIndex = 0; rowIndex < m_RowSetList.GetCount(); rowIndex++){

  0014b	8d 4d 90	 lea	 ecx, DWORD PTR _calData$4[ebp]
  0014e	c6 45 fc 00	 mov	 BYTE PTR __$EHRec$[ebp+8], 0
  00152	e8 00 00 00 00	 call	 ??1CCoordinateCalculatorData@@QAE@XZ ; CCoordinateCalculatorData::~CCoordinateCalculatorData
$LN2@DrawElemen:
  00157	46		 inc	 esi
  00158	3b 77 14	 cmp	 esi, DWORD PTR [edi+20]
  0015b	0f 8c 17 ff ff
	ff		 jl	 $LL4@DrawElemen
$LN3@DrawElemen:
; File C:\Program Files (x86)\Microsoft Visual Studio\2019\Community\VC\Tools\MSVC\14.29.30133\include\deque

; 1332 :         _Tidy();

  00161	8d 8d 5c ff ff
	ff		 lea	 ecx, DWORD PTR _drawingRegions$[ebp+4]
  00167	e8 00 00 00 00	 call	 ?_Tidy@?$deque@VCBlockRegion@@V?$allocator@VCBlockRegion@@@std@@@std@@AAEXXZ ; std::deque<CBlockRegion,std::allocator<CBlockRegion> >::_Tidy

; 861  :         _Tidy();

  0016c	8d 8d 5c ff ff
	ff		 lea	 ecx, DWORD PTR _drawingRegions$[ebp+4]
  00172	e8 00 00 00 00	 call	 ?_Tidy@?$deque@VCBlockRegion@@V?$allocator@VCBlockRegion@@@std@@@std@@AAEXXZ ; std::deque<CBlockRegion,std::allocator<CBlockRegion> >::_Tidy
; File C:\Program Files (x86)\Microsoft Visual Studio\2019\Community\VC\Tools\MSVC\14.29.30133\include\utility

; 602  :     _Ty _Old_val = static_cast<_Ty&&>(_Val);

  00177	8b 85 5c ff ff
	ff		 mov	 eax, DWORD PTR _drawingRegions$[ebp+4]
; File C:\Program Files (x86)\Microsoft Visual Studio\2019\Community\VC\Tools\MSVC\14.29.30133\include\xmemory

; 255  :         ::operator delete(_Ptr, _Bytes);

  0017d	6a 08		 push	 8
  0017f	50		 push	 eax
; File C:\Program Files (x86)\Microsoft Visual Studio\2019\Community\VC\Tools\MSVC\14.29.30133\include\utility

; 603  :     _Val         = static_cast<_Other&&>(_New_val);

  00180	c7 85 5c ff ff
	ff 00 00 00 00	 mov	 DWORD PTR _drawingRegions$[ebp+4], 0
; File C:\Program Files (x86)\Microsoft Visual Studio\2019\Community\VC\Tools\MSVC\14.29.30133\include\xmemory

; 255  :         ::operator delete(_Ptr, _Bytes);

  0018a	e8 00 00 00 00	 call	 ??3@YAXPAXI@Z		; operator delete
  0018f	83 c4 08	 add	 esp, 8
; File D:\git\src\IBK\IBK_DRFN\ProjSrc\SrcChartEx\ChartAddIn\ChartAnalysisToolAddIn\AnalysisTool\ColumnSet.cpp

; 258  : }

  00192	8b 4d f4	 mov	 ecx, DWORD PTR __$EHRec$[ebp]
  00195	64 89 0d 00 00
	00 00		 mov	 DWORD PTR fs:0, ecx
  0019c	59		 pop	 ecx
  0019d	5f		 pop	 edi
  0019e	5e		 pop	 esi
  0019f	5b		 pop	 ebx
  001a0	8b 4d f0	 mov	 ecx, DWORD PTR __$ArrayPad$[ebp]
  001a3	33 cd		 xor	 ecx, ebp
  001a5	e8 00 00 00 00	 call	 @__security_check_cookie@4
  001aa	8b e5		 mov	 esp, ebp
  001ac	5d		 pop	 ebp
  001ad	c2 10 00	 ret	 16			; 00000010H
_TEXT	ENDS
;	COMDAT text$x
text$x	SEGMENT
__unwindfunclet$?DrawElement@CColumnSet@@QAEXPAVCDC@@PAVCElement@@PAUIChartManager133101@@H@Z$0:
  00000	8d 8d 58 ff ff
	ff		 lea	 ecx, DWORD PTR _drawingRegions$[ebp]
  00006	e9 00 00 00 00	 jmp	 ??1CDrawingRegions@@QAE@XZ
__unwindfunclet$?DrawElement@CColumnSet@@QAEXPAVCDC@@PAVCElement@@PAUIChartManager133101@@H@Z$1:
  0000b	8d 4d 90	 lea	 ecx, DWORD PTR _calData$4[ebp]
  0000e	e9 00 00 00 00	 jmp	 ??1CCoordinateCalculatorData@@QAE@XZ ; CCoordinateCalculatorData::~CCoordinateCalculatorData
  00013	cc		 int	 3
  00014	cc		 int	 3
  00015	cc		 int	 3
  00016	cc		 int	 3
  00017	cc		 int	 3
__ehhandler$?DrawElement@CColumnSet@@QAEXPAVCDC@@PAVCElement@@PAUIChartManager133101@@H@Z:
  00018	90		 npad	 1
  00019	90		 npad	 1
  0001a	8b 54 24 08	 mov	 edx, DWORD PTR [esp+8]
  0001e	8d 42 0c	 lea	 eax, DWORD PTR [edx+12]
  00021	8b 8a 54 ff ff
	ff		 mov	 ecx, DWORD PTR [edx-172]
  00027	33 c8		 xor	 ecx, eax
  00029	e8 00 00 00 00	 call	 @__security_check_cookie@4
  0002e	8b 4a fc	 mov	 ecx, DWORD PTR [edx-4]
  00031	33 c8		 xor	 ecx, eax
  00033	e8 00 00 00 00	 call	 @__security_check_cookie@4
  00038	b8 00 00 00 00	 mov	 eax, OFFSET __ehfuncinfo$?DrawElement@CColumnSet@@QAEXPAVCDC@@PAVCElement@@PAUIChartManager133101@@H@Z
  0003d	e9 00 00 00 00	 jmp	 ___CxxFrameHandler3
text$x	ENDS
?DrawElement@CColumnSet@@QAEXPAVCDC@@PAVCElement@@PAUIChartManager133101@@H@Z ENDP ; CColumnSet::DrawElement
; Function compile flags: /Ogtp
; File D:\git\src\IBK\IBK_DRFN\ProjSrc\SrcChartEx\ChartAddIn\ChartAnalysisToolAddIn\AnalysisTool\ColumnSet.cpp
; File C:\Program Files (x86)\Microsoft Visual Studio\2019\Community\VC\Tools\MSVC\14.29.30133\include\deque
; File D:\git\src\IBK\IBK_DRFN\ProjSrc\SrcChartEx\ChartAddIn\ChartAnalysisToolAddIn\Include_Chart\DequeList.h
; File C:\Program Files (x86)\Microsoft Visual Studio\2019\Community\VC\Tools\MSVC\14.29.30133\include\deque
; File D:\git\src\IBK\IBK_DRFN\ProjSrc\SrcChartEx\ChartAddIn\ChartAnalysisToolAddIn\Include_Chart\DequeList.h
; File C:\Program Files (x86)\Microsoft Visual Studio\2019\Community\VC\Tools\MSVC\14.29.30133\include\deque
; File D:\git\src\IBK\IBK_DRFN\ProjSrc\SrcChartEx\ChartAddIn\ChartAnalysisToolAddIn\Include_Chart\DequeList.h
; File D:\git\src\IBK\IBK_DRFN\ProjSrc\SrcChartEx\ChartAddIn\ChartAnalysisToolAddIn\AnalysisTool\ColumnSet.cpp
; File D:\git\src\IBK\IBK_DRFN\ProjSrc\SrcChartEx\ChartAddIn\ChartAnalysisToolAddIn\Include_Chart\BlockBaseData.h
; File D:\git\src\IBK\IBK_DRFN\ProjSrc\SrcChartEx\ChartAddIn\ChartAnalysisToolAddIn\AnalysisTool\ColumnSet.cpp
; File D:\git\src\IBK\IBK_DRFN\ProjSrc\SrcChartEx\ChartAddIn\ChartAnalysisToolAddIn\Include_Chart\BlockBaseData.h
; File D:\git\src\IBK\IBK_DRFN\ProjSrc\SrcChartEx\ChartAddIn\ChartAnalysisToolAddIn\AnalysisTool\ColumnSet.cpp
; File D:\git\src\IBK\IBK_DRFN\ProjSrc\SrcChartEx\ChartAddIn\ChartAnalysisToolAddIn\Include_Chart\BlockBaseData.h
; File D:\git\src\IBK\IBK_DRFN\ProjSrc\SrcChartEx\ChartAddIn\ChartAnalysisToolAddIn\AnalysisTool\ColumnSet.cpp
;	COMDAT ?FindElement@CColumnSet@@QAEPAVCElement@@PAUIChartManager133101@@PAVCExtractingDataOfModifyType@@HAAW4ModifyType@CToolEnumData@@@Z
_TEXT	SEGMENT
$T1 = -8						; size = 8
_pMainBlock$ = 8					; size = 4
_pExtractingData$ = 12					; size = 4
_columnIndex$ = 16					; size = 4
_modifyType$ = 20					; size = 4
?FindElement@CColumnSet@@QAEPAVCElement@@PAUIChartManager133101@@PAVCExtractingDataOfModifyType@@HAAW4ModifyType@CToolEnumData@@@Z PROC ; CColumnSet::FindElement, COMDAT
; _this$ = ecx

; 220  : {

  00000	55		 push	 ebp
  00001	8b ec		 mov	 ebp, esp
  00003	83 ec 10	 sub	 esp, 16			; 00000010H
  00006	53		 push	 ebx
  00007	56		 push	 esi
  00008	57		 push	 edi
  00009	8b f9		 mov	 edi, ecx

; 221  : 	for(int rowIndex = 0; rowIndex < m_RowSetList.GetCount(); rowIndex++){

  0000b	33 f6		 xor	 esi, esi
  0000d	39 77 14	 cmp	 DWORD PTR [edi+20], esi
  00010	7e 63		 jle	 SHORT $LN3@FindElemen
$LL4@FindElemen:
; File C:\Program Files (x86)\Microsoft Visual Studio\2019\Community\VC\Tools\MSVC\14.29.30133\include\deque

; 1002 :         return _Mysize() == 0;

  00012	83 7f 14 00	 cmp	 DWORD PTR [edi+20], 0
; File D:\git\src\IBK\IBK_DRFN\ProjSrc\SrcChartEx\ChartAddIn\ChartAnalysisToolAddIn\Include_Chart\DequeList.h

; 198  : 		if(m_deque.empty())

  00016	75 04		 jne	 SHORT $LN8@FindElemen

; 199  : 			return NULL;

  00018	33 db		 xor	 ebx, ebx
  0001a	eb 1d		 jmp	 SHORT $LN7@FindElemen
$LN8@FindElemen:
; File C:\Program Files (x86)\Microsoft Visual Studio\2019\Community\VC\Tools\MSVC\14.29.30133\include\deque

; 43   :         : _Mycont(static_cast<const _Mydeque*>(_Pdeque)), _Myoff(_Off) {}

  0001c	8b 47 10	 mov	 eax, DWORD PTR [edi+16]

; 78   :         _Myoff += _Off;

  0001f	8d 14 30	 lea	 edx, DWORD PTR [eax+esi]

; 559  :         return (_Off / _Block_size) & (_Mapsize - 1);

  00022	8b 47 0c	 mov	 eax, DWORD PTR [edi+12]

; 78   :         _Myoff += _Off;

  00025	8b ca		 mov	 ecx, edx

; 559  :         return (_Off / _Block_size) & (_Mapsize - 1);

  00027	48		 dec	 eax

; 78   :         _Myoff += _Off;

  00028	c1 e9 02	 shr	 ecx, 2

; 559  :         return (_Off / _Block_size) & (_Mapsize - 1);

  0002b	23 c8		 and	 ecx, eax
; File D:\git\src\IBK\IBK_DRFN\ProjSrc\SrcChartEx\ChartAddIn\ChartAnalysisToolAddIn\Include_Chart\DequeList.h

; 201  : 		return m_deque[nIndex];

  0002d	8b 47 08	 mov	 eax, DWORD PTR [edi+8]
; File C:\Program Files (x86)\Microsoft Visual Studio\2019\Community\VC\Tools\MSVC\14.29.30133\include\deque

; 48   :         return _Mycont->_Map[_Block][_Off];

  00030	83 e2 03	 and	 edx, 3
; File D:\git\src\IBK\IBK_DRFN\ProjSrc\SrcChartEx\ChartAddIn\ChartAnalysisToolAddIn\Include_Chart\DequeList.h

; 201  : 		return m_deque[nIndex];

  00033	8b 04 88	 mov	 eax, DWORD PTR [eax+ecx*4]
  00036	8b 1c 90	 mov	 ebx, DWORD PTR [eax+edx*4]
$LN7@FindElemen:
; File D:\git\src\IBK\IBK_DRFN\ProjSrc\SrcChartEx\ChartAddIn\ChartAnalysisToolAddIn\AnalysisTool\ColumnSet.cpp

; 225  : 		pExtractingData->SetRowSetIndex(rowIndex);

  00039	8b 4d 0c	 mov	 ecx, DWORD PTR _pExtractingData$[ebp]
  0003c	56		 push	 esi
  0003d	e8 00 00 00 00	 call	 ?SetRowSetIndex@CExtractingDataOfModifyType@@QAEXH@Z ; CExtractingDataOfModifyType::SetRowSetIndex
; File D:\git\src\IBK\IBK_DRFN\ProjSrc\SrcChartEx\ChartAddIn\ChartAnalysisToolAddIn\Include_Chart\BlockBaseData.h

; 20   : 	CBlockIndex(const int row, const int column) { m_nRow = row; m_nColumn = column; };

  00042	8b 45 10	 mov	 eax, DWORD PTR _columnIndex$[ebp]
; File D:\git\src\IBK\IBK_DRFN\ProjSrc\SrcChartEx\ChartAddIn\ChartAnalysisToolAddIn\AnalysisTool\ColumnSet.cpp

; 226  : 		pExtractingData->GetCoordinateCalculatorData().GetCoordinateCalculatorData( CBlockIndex(rowIndex, columnIndex));

  00045	8b 4d 0c	 mov	 ecx, DWORD PTR _pExtractingData$[ebp]
; File D:\git\src\IBK\IBK_DRFN\ProjSrc\SrcChartEx\ChartAddIn\ChartAnalysisToolAddIn\Include_Chart\BlockBaseData.h

; 20   : 	CBlockIndex(const int row, const int column) { m_nRow = row; m_nColumn = column; };

  00048	89 45 fc	 mov	 DWORD PTR $T1[ebp+4], eax
; File D:\git\src\IBK\IBK_DRFN\ProjSrc\SrcChartEx\ChartAddIn\ChartAnalysisToolAddIn\AnalysisTool\ColumnSet.cpp

; 226  : 		pExtractingData->GetCoordinateCalculatorData().GetCoordinateCalculatorData( CBlockIndex(rowIndex, columnIndex));

  0004b	8d 45 f8	 lea	 eax, DWORD PTR $T1[ebp]
  0004e	50		 push	 eax
; File D:\git\src\IBK\IBK_DRFN\ProjSrc\SrcChartEx\ChartAddIn\ChartAnalysisToolAddIn\Include_Chart\BlockBaseData.h

; 20   : 	CBlockIndex(const int row, const int column) { m_nRow = row; m_nColumn = column; };

  0004f	89 75 f8	 mov	 DWORD PTR $T1[ebp], esi
; File D:\git\src\IBK\IBK_DRFN\ProjSrc\SrcChartEx\ChartAddIn\ChartAnalysisToolAddIn\AnalysisTool\ColumnSet.cpp

; 226  : 		pExtractingData->GetCoordinateCalculatorData().GetCoordinateCalculatorData( CBlockIndex(rowIndex, columnIndex));

  00052	e8 00 00 00 00	 call	 ?GetCoordinateCalculatorData@CExtractingDataOfModifyType@@QAEAAVCCoordinateCalculatorData@@XZ ; CExtractingDataOfModifyType::GetCoordinateCalculatorData
  00057	8b c8		 mov	 ecx, eax
  00059	e8 00 00 00 00	 call	 ?GetCoordinateCalculatorData@CCoordinateCalculatorData@@QAEXABVCBlockIndex@@@Z ; CCoordinateCalculatorData::GetCoordinateCalculatorData

; 227  : 
; 228  : 		CElement* pElement = pRowSet->FindElement(pExtractingData, modifyType);

  0005e	ff 75 14	 push	 DWORD PTR _modifyType$[ebp]
  00061	8b cb		 mov	 ecx, ebx
  00063	ff 75 0c	 push	 DWORD PTR _pExtractingData$[ebp]
  00066	e8 00 00 00 00	 call	 ?FindElement@CRowSet@@QAEPAVCElement@@PAVCExtractingDataOfModifyType@@AAW4ModifyType@CToolEnumData@@@Z ; CRowSet::FindElement

; 229  : 		if(pElement != NULL)

  0006b	85 c0		 test	 eax, eax
  0006d	75 08		 jne	 SHORT $LN1@FindElemen

; 221  : 	for(int rowIndex = 0; rowIndex < m_RowSetList.GetCount(); rowIndex++){

  0006f	46		 inc	 esi
  00070	3b 77 14	 cmp	 esi, DWORD PTR [edi+20]
  00073	7c 9d		 jl	 SHORT $LL4@FindElemen
$LN3@FindElemen:

; 230  : 			return pElement;
; 231  : 	}
; 232  : 
; 233  : 	return NULL;

  00075	33 c0		 xor	 eax, eax
$LN1@FindElemen:
  00077	5f		 pop	 edi

; 234  : }

  00078	5e		 pop	 esi
  00079	5b		 pop	 ebx
  0007a	8b e5		 mov	 esp, ebp
  0007c	5d		 pop	 ebp
  0007d	c2 10 00	 ret	 16			; 00000010H
?FindElement@CColumnSet@@QAEPAVCElement@@PAUIChartManager133101@@PAVCExtractingDataOfModifyType@@HAAW4ModifyType@CToolEnumData@@@Z ENDP ; CColumnSet::FindElement
_TEXT	ENDS
; Function compile flags: /Ogtp
; File D:\git\src\IBK\IBK_DRFN\ProjSrc\SrcChartEx\ChartAddIn\ChartAnalysisToolAddIn\AnalysisTool\ColumnSet.cpp
; File C:\Program Files (x86)\Microsoft Visual Studio\2019\Community\VC\Tools\MSVC\14.29.30133\include\xmemory
; File D:\git\src\IBK\IBK_DRFN\ProjSrc\SrcChartEx\ChartAddIn\ChartAnalysisToolAddIn\AnalysisTool\ColumnSet.cpp
; File C:\Program Files (x86)\Microsoft Visual Studio\2019\Community\VC\Tools\MSVC\14.29.30133\include\deque
; File D:\git\src\IBK\IBK_DRFN\ProjSrc\SrcChartEx\ChartAddIn\ChartAnalysisToolAddIn\AnalysisTool\ColumnSet.cpp
; File C:\Program Files (x86)\Microsoft Visual Studio\2019\Community\VC\Tools\MSVC\14.29.30133\include\deque
; File D:\git\src\IBK\IBK_DRFN\ProjSrc\SrcChartEx\ChartAddIn\ChartAnalysisToolAddIn\Include_Chart\DequeList.h
; File C:\Program Files (x86)\Microsoft Visual Studio\2019\Community\VC\Tools\MSVC\14.29.30133\include\xmemory
; File D:\git\src\IBK\IBK_DRFN\ProjSrc\SrcChartEx\ChartAddIn\ChartAnalysisToolAddIn\Include_Chart\DequeList.h
; File D:\git\src\IBK\IBK_DRFN\ProjSrc\SrcChartEx\ChartAddIn\ChartAnalysisToolAddIn\AnalysisTool\ColumnSet.cpp
;	COMDAT ?MoveRowSet@CColumnSet@@QAE_NHH@Z
_TEXT	SEGMENT
$T2 = -12						; size = 12
_pItem$ = 8						; size = 4
_sourceRowIndex$ = 8					; size = 4
_targetRowIndex$ = 12					; size = 4
?MoveRowSet@CColumnSet@@QAE_NHH@Z PROC			; CColumnSet::MoveRowSet, COMDAT
; _this$ = ecx

; 201  : {

  00000	55		 push	 ebp
  00001	8b ec		 mov	 ebp, esp

; 202  : 	if(sourceRowIndex >= m_RowSetList.GetCount() && targetRowIndex >= m_RowSetList.GetCount())

  00003	8b 55 08	 mov	 edx, DWORD PTR _sourceRowIndex$[ebp]
  00006	83 ec 0c	 sub	 esp, 12			; 0000000cH
  00009	56		 push	 esi
  0000a	8b f1		 mov	 esi, ecx
  0000c	57		 push	 edi
  0000d	8b 7d 0c	 mov	 edi, DWORD PTR _targetRowIndex$[ebp]
  00010	8b 46 14	 mov	 eax, DWORD PTR [esi+20]
  00013	3b d0		 cmp	 edx, eax
  00015	7c 0e		 jl	 SHORT $LN2@MoveRowSet
  00017	3b f8		 cmp	 edi, eax
  00019	7c 0a		 jl	 SHORT $LN2@MoveRowSet

; 203  : 		return false;

  0001b	32 c0		 xor	 al, al

; 214  : }

  0001d	5f		 pop	 edi
  0001e	5e		 pop	 esi
  0001f	8b e5		 mov	 esp, ebp
  00021	5d		 pop	 ebp
  00022	c2 08 00	 ret	 8
$LN2@MoveRowSet:

; 204  : 
; 205  : 	// sourceRowIndex m_RowSetList   
; 206  : 	// ->  RowSet insert.
; 207  : 	if(sourceRowIndex > (m_RowSetList.GetCount() -1)){

  00025	48		 dec	 eax
  00026	3b d0		 cmp	 edx, eax
  00028	7e 3b		 jle	 SHORT $LN3@MoveRowSet

; 208  : 		m_RowSetList.InsertItem(targetRowIndex, CRowSet::Make());

  0002a	e8 00 00 00 00	 call	 ?Make@CRowSet@@SAPAV1@XZ ; CRowSet::Make
; File C:\Program Files (x86)\Microsoft Visual Studio\2019\Community\VC\Tools\MSVC\14.29.30133\include\xmemory

; 1099 :             _Myproxy = _Parent->_Myproxy;

  0002f	8b 56 04	 mov	 edx, DWORD PTR [esi+4]
; File D:\git\src\IBK\IBK_DRFN\ProjSrc\SrcChartEx\ChartAddIn\ChartAnalysisToolAddIn\AnalysisTool\ColumnSet.cpp

; 208  : 		m_RowSetList.InsertItem(targetRowIndex, CRowSet::Make());

  00032	8d 4e 04	 lea	 ecx, DWORD PTR [esi+4]
; File C:\Program Files (x86)\Microsoft Visual Studio\2019\Community\VC\Tools\MSVC\14.29.30133\include\deque

; 319  :         _Myoff += _Off;

  00035	8b 71 0c	 mov	 esi, DWORD PTR [ecx+12]
; File D:\git\src\IBK\IBK_DRFN\ProjSrc\SrcChartEx\ChartAddIn\ChartAnalysisToolAddIn\AnalysisTool\ColumnSet.cpp

; 208  : 		m_RowSetList.InsertItem(targetRowIndex, CRowSet::Make());

  00038	89 45 08	 mov	 DWORD PTR _pItem$[ebp], eax
; File C:\Program Files (x86)\Microsoft Visual Studio\2019\Community\VC\Tools\MSVC\14.29.30133\include\deque

; 319  :         _Myoff += _Off;

  0003b	03 f7		 add	 esi, edi
; File D:\git\src\IBK\IBK_DRFN\ProjSrc\SrcChartEx\ChartAddIn\ChartAnalysisToolAddIn\Include_Chart\DequeList.h

; 239  : 		m_deque.insert(i, pItem);

  0003d	8d 45 08	 lea	 eax, DWORD PTR _pItem$[ebp]
  00040	50		 push	 eax
  00041	83 ec 0c	 sub	 esp, 12			; 0000000cH
  00044	8b c4		 mov	 eax, esp
; File C:\Program Files (x86)\Microsoft Visual Studio\2019\Community\VC\Tools\MSVC\14.29.30133\include\xmemory

; 1113 :     mutable _Iterator_base12* _Mynextiter = nullptr;

  00046	c7 40 04 00 00
	00 00		 mov	 DWORD PTR [eax+4], 0

; 1069 :         _Myproxy = _Right._Myproxy;

  0004d	89 10		 mov	 DWORD PTR [eax], edx
  0004f	89 70 08	 mov	 DWORD PTR [eax+8], esi
; File D:\git\src\IBK\IBK_DRFN\ProjSrc\SrcChartEx\ChartAddIn\ChartAnalysisToolAddIn\Include_Chart\DequeList.h

; 239  : 		m_deque.insert(i, pItem);

  00052	8d 45 f4	 lea	 eax, DWORD PTR $T2[ebp]
  00055	50		 push	 eax
  00056	e8 00 00 00 00	 call	 ?insert@?$deque@PAVCRowSet@@V?$allocator@PAVCRowSet@@@std@@@std@@QAE?AV?$_Deque_iterator@V?$_Deque_val@U?$_Deque_simple_types@PAVCRowSet@@@std@@@std@@@2@V?$_Deque_const_iterator@V?$_Deque_val@U?$_Deque_simple_types@PAVCRowSet@@@std@@@std@@@2@ABQAVCRowSet@@@Z ; std::deque<CRowSet *,std::allocator<CRowSet *> >::insert
; File D:\git\src\IBK\IBK_DRFN\ProjSrc\SrcChartEx\ChartAddIn\ChartAnalysisToolAddIn\AnalysisTool\ColumnSet.cpp

; 209  : 		return true;

  0005b	b0 01		 mov	 al, 1

; 214  : }

  0005d	5f		 pop	 edi
  0005e	5e		 pop	 esi
  0005f	8b e5		 mov	 esp, ebp
  00061	5d		 pop	 ebp
  00062	c2 08 00	 ret	 8
$LN3@MoveRowSet:

; 210  : 	}
; 211  : 
; 212  : 	// list  RowSet Move .
; 213  : 	return MoveRowSet_InRowSetList(sourceRowIndex, targetRowIndex);

  00065	57		 push	 edi
  00066	52		 push	 edx
  00067	e8 00 00 00 00	 call	 ?MoveRowSet_InRowSetList@CColumnSet@@AAE_NHH@Z ; CColumnSet::MoveRowSet_InRowSetList

; 214  : }

  0006c	5f		 pop	 edi
  0006d	5e		 pop	 esi
  0006e	8b e5		 mov	 esp, ebp
  00070	5d		 pop	 ebp
  00071	c2 08 00	 ret	 8
?MoveRowSet@CColumnSet@@QAE_NHH@Z ENDP			; CColumnSet::MoveRowSet
_TEXT	ENDS
; Function compile flags: /Ogtp
; File D:\git\src\IBK\IBK_DRFN\ProjSrc\SrcChartEx\ChartAddIn\ChartAnalysisToolAddIn\AnalysisTool\ColumnSet.cpp
; File C:\Program Files (x86)\Microsoft Visual Studio\2019\Community\VC\Tools\MSVC\14.29.30133\include\deque
; File D:\git\src\IBK\IBK_DRFN\ProjSrc\SrcChartEx\ChartAddIn\ChartAnalysisToolAddIn\Include_Chart\DequeList.h
; File C:\Program Files (x86)\Microsoft Visual Studio\2019\Community\VC\Tools\MSVC\14.29.30133\include\deque
; File D:\git\src\IBK\IBK_DRFN\ProjSrc\SrcChartEx\ChartAddIn\ChartAnalysisToolAddIn\Include_Chart\DequeList.h
; File C:\Program Files (x86)\Microsoft Visual Studio\2019\Community\VC\Tools\MSVC\14.29.30133\include\deque
; File D:\git\src\IBK\IBK_DRFN\ProjSrc\SrcChartEx\ChartAddIn\ChartAnalysisToolAddIn\Include_Chart\DequeList.h
; File D:\git\src\IBK\IBK_DRFN\ProjSrc\SrcChartEx\ChartAddIn\ChartAnalysisToolAddIn\AnalysisTool\ColumnSet.cpp
;	COMDAT ?DeleteElement@CColumnSet@@QAE_NJH@Z
_TEXT	SEGMENT
_lElementAddres$ = 8					; size = 4
_bListOnly$ = 12					; size = 4
?DeleteElement@CColumnSet@@QAE_NJH@Z PROC		; CColumnSet::DeleteElement, COMDAT
; _this$ = ecx

; 187  : {

  00000	55		 push	 ebp
  00001	8b ec		 mov	 ebp, esp
  00003	83 ec 08	 sub	 esp, 8
  00006	53		 push	 ebx
  00007	56		 push	 esi
  00008	57		 push	 edi
  00009	8b f9		 mov	 edi, ecx

; 188  : 	for(int nIndex = 0; nIndex < m_RowSetList.GetCount(); nIndex++)

  0000b	33 f6		 xor	 esi, esi
  0000d	39 77 14	 cmp	 DWORD PTR [edi+20], esi
  00010	7e 3d		 jle	 SHORT $LN3@DeleteElem

; 189  : 	{
; 190  : 		CRowSet* pRowSet = m_RowSetList.GetAt(nIndex);

  00012	8b 5d 0c	 mov	 ebx, DWORD PTR _bListOnly$[ebp]
$LL4@DeleteElem:
; File C:\Program Files (x86)\Microsoft Visual Studio\2019\Community\VC\Tools\MSVC\14.29.30133\include\deque

; 1002 :         return _Mysize() == 0;

  00015	83 7f 14 00	 cmp	 DWORD PTR [edi+20], 0
; File D:\git\src\IBK\IBK_DRFN\ProjSrc\SrcChartEx\ChartAddIn\ChartAnalysisToolAddIn\Include_Chart\DequeList.h

; 198  : 		if(m_deque.empty())

  00019	75 04		 jne	 SHORT $LN8@DeleteElem

; 199  : 			return NULL;

  0001b	33 c9		 xor	 ecx, ecx
  0001d	eb 1d		 jmp	 SHORT $LN7@DeleteElem
$LN8@DeleteElem:
; File C:\Program Files (x86)\Microsoft Visual Studio\2019\Community\VC\Tools\MSVC\14.29.30133\include\deque

; 43   :         : _Mycont(static_cast<const _Mydeque*>(_Pdeque)), _Myoff(_Off) {}

  0001f	8b 47 10	 mov	 eax, DWORD PTR [edi+16]

; 78   :         _Myoff += _Off;

  00022	8d 14 30	 lea	 edx, DWORD PTR [eax+esi]

; 559  :         return (_Off / _Block_size) & (_Mapsize - 1);

  00025	8b 47 0c	 mov	 eax, DWORD PTR [edi+12]

; 78   :         _Myoff += _Off;

  00028	8b ca		 mov	 ecx, edx

; 559  :         return (_Off / _Block_size) & (_Mapsize - 1);

  0002a	48		 dec	 eax

; 78   :         _Myoff += _Off;

  0002b	c1 e9 02	 shr	 ecx, 2

; 559  :         return (_Off / _Block_size) & (_Mapsize - 1);

  0002e	23 c8		 and	 ecx, eax
; File D:\git\src\IBK\IBK_DRFN\ProjSrc\SrcChartEx\ChartAddIn\ChartAnalysisToolAddIn\Include_Chart\DequeList.h

; 201  : 		return m_deque[nIndex];

  00030	8b 47 08	 mov	 eax, DWORD PTR [edi+8]
; File C:\Program Files (x86)\Microsoft Visual Studio\2019\Community\VC\Tools\MSVC\14.29.30133\include\deque

; 48   :         return _Mycont->_Map[_Block][_Off];

  00033	83 e2 03	 and	 edx, 3
; File D:\git\src\IBK\IBK_DRFN\ProjSrc\SrcChartEx\ChartAddIn\ChartAnalysisToolAddIn\Include_Chart\DequeList.h

; 201  : 		return m_deque[nIndex];

  00036	8b 04 88	 mov	 eax, DWORD PTR [eax+ecx*4]
  00039	8b 0c 90	 mov	 ecx, DWORD PTR [eax+edx*4]
$LN7@DeleteElem:
; File D:\git\src\IBK\IBK_DRFN\ProjSrc\SrcChartEx\ChartAddIn\ChartAnalysisToolAddIn\AnalysisTool\ColumnSet.cpp

; 192  : 		if(pRowSet->Delete(lElementAddres,bListOnly))

  0003c	53		 push	 ebx
  0003d	ff 75 08	 push	 DWORD PTR _lElementAddres$[ebp]
  00040	e8 00 00 00 00	 call	 ?Delete@CRowSet@@QAE_NJH@Z ; CRowSet::Delete
  00045	84 c0		 test	 al, al
  00047	75 11		 jne	 SHORT $LN33@DeleteElem

; 188  : 	for(int nIndex = 0; nIndex < m_RowSetList.GetCount(); nIndex++)

  00049	46		 inc	 esi
  0004a	3b 77 14	 cmp	 esi, DWORD PTR [edi+20]
  0004d	7c c6		 jl	 SHORT $LL4@DeleteElem
$LN3@DeleteElem:
  0004f	5f		 pop	 edi

; 193  : 			return true;
; 194  : 	}
; 195  : 	return false;
; 196  : }

  00050	5e		 pop	 esi
  00051	32 c0		 xor	 al, al
  00053	5b		 pop	 ebx
  00054	8b e5		 mov	 esp, ebp
  00056	5d		 pop	 ebp
  00057	c2 08 00	 ret	 8
$LN33@DeleteElem:
  0005a	5f		 pop	 edi
  0005b	5e		 pop	 esi
  0005c	b0 01		 mov	 al, 1
  0005e	5b		 pop	 ebx
  0005f	8b e5		 mov	 esp, ebp
  00061	5d		 pop	 ebp
  00062	c2 08 00	 ret	 8
?DeleteElement@CColumnSet@@QAE_NJH@Z ENDP		; CColumnSet::DeleteElement
_TEXT	ENDS
; Function compile flags: /Ogtp
; File D:\git\src\IBK\IBK_DRFN\ProjSrc\SrcChartEx\ChartAddIn\ChartAnalysisToolAddIn\AnalysisTool\ColumnSet.cpp
; File C:\Program Files (x86)\Microsoft Visual Studio\2019\Community\VC\Tools\MSVC\14.29.30133\include\deque
; File D:\git\src\IBK\IBK_DRFN\ProjSrc\SrcChartEx\ChartAddIn\ChartAnalysisToolAddIn\Include_Chart\DequeList.h
; File C:\Program Files (x86)\Microsoft Visual Studio\2019\Community\VC\Tools\MSVC\14.29.30133\include\deque
; File D:\git\src\IBK\IBK_DRFN\ProjSrc\SrcChartEx\ChartAddIn\ChartAnalysisToolAddIn\Include_Chart\DequeList.h
; File C:\Program Files (x86)\Microsoft Visual Studio\2019\Community\VC\Tools\MSVC\14.29.30133\include\deque
; File D:\git\src\IBK\IBK_DRFN\ProjSrc\SrcChartEx\ChartAddIn\ChartAnalysisToolAddIn\Include_Chart\DequeList.h
; File D:\git\src\IBK\IBK_DRFN\ProjSrc\SrcChartEx\ChartAddIn\ChartAnalysisToolAddIn\AnalysisTool\ColumnSet.cpp
;	COMDAT ?DeleteElement@CColumnSet@@QAE_NPAVCElement@@@Z
_TEXT	SEGMENT
_pElement$ = 8						; size = 4
?DeleteElement@CColumnSet@@QAE_NPAVCElement@@@Z PROC	; CColumnSet::DeleteElement, COMDAT
; _this$ = ecx

; 175  : {

  00000	55		 push	 ebp
  00001	8b ec		 mov	 ebp, esp
  00003	83 ec 08	 sub	 esp, 8
  00006	53		 push	 ebx
  00007	56		 push	 esi
  00008	57		 push	 edi
  00009	8b f9		 mov	 edi, ecx

; 176  : 	for(int nIndex = 0; nIndex < m_RowSetList.GetCount(); nIndex++)

  0000b	33 f6		 xor	 esi, esi
  0000d	39 77 14	 cmp	 DWORD PTR [edi+20], esi
  00010	7e 3c		 jle	 SHORT $LN3@DeleteElem

; 177  : 	{
; 178  : 		CRowSet* pRowSet = m_RowSetList.GetAt(nIndex);

  00012	8b 5d 08	 mov	 ebx, DWORD PTR _pElement$[ebp]
$LL4@DeleteElem:
; File C:\Program Files (x86)\Microsoft Visual Studio\2019\Community\VC\Tools\MSVC\14.29.30133\include\deque

; 1002 :         return _Mysize() == 0;

  00015	83 7f 14 00	 cmp	 DWORD PTR [edi+20], 0
; File D:\git\src\IBK\IBK_DRFN\ProjSrc\SrcChartEx\ChartAddIn\ChartAnalysisToolAddIn\Include_Chart\DequeList.h

; 198  : 		if(m_deque.empty())

  00019	75 04		 jne	 SHORT $LN8@DeleteElem

; 199  : 			return NULL;

  0001b	33 c9		 xor	 ecx, ecx
  0001d	eb 1d		 jmp	 SHORT $LN7@DeleteElem
$LN8@DeleteElem:
; File C:\Program Files (x86)\Microsoft Visual Studio\2019\Community\VC\Tools\MSVC\14.29.30133\include\deque

; 43   :         : _Mycont(static_cast<const _Mydeque*>(_Pdeque)), _Myoff(_Off) {}

  0001f	8b 47 10	 mov	 eax, DWORD PTR [edi+16]

; 78   :         _Myoff += _Off;

  00022	8d 14 30	 lea	 edx, DWORD PTR [eax+esi]

; 559  :         return (_Off / _Block_size) & (_Mapsize - 1);

  00025	8b 47 0c	 mov	 eax, DWORD PTR [edi+12]

; 78   :         _Myoff += _Off;

  00028	8b ca		 mov	 ecx, edx

; 559  :         return (_Off / _Block_size) & (_Mapsize - 1);

  0002a	48		 dec	 eax

; 78   :         _Myoff += _Off;

  0002b	c1 e9 02	 shr	 ecx, 2

; 559  :         return (_Off / _Block_size) & (_Mapsize - 1);

  0002e	23 c8		 and	 ecx, eax
; File D:\git\src\IBK\IBK_DRFN\ProjSrc\SrcChartEx\ChartAddIn\ChartAnalysisToolAddIn\Include_Chart\DequeList.h

; 201  : 		return m_deque[nIndex];

  00030	8b 47 08	 mov	 eax, DWORD PTR [edi+8]
; File C:\Program Files (x86)\Microsoft Visual Studio\2019\Community\VC\Tools\MSVC\14.29.30133\include\deque

; 48   :         return _Mycont->_Map[_Block][_Off];

  00033	83 e2 03	 and	 edx, 3
; File D:\git\src\IBK\IBK_DRFN\ProjSrc\SrcChartEx\ChartAddIn\ChartAnalysisToolAddIn\Include_Chart\DequeList.h

; 201  : 		return m_deque[nIndex];

  00036	8b 04 88	 mov	 eax, DWORD PTR [eax+ecx*4]
  00039	8b 0c 90	 mov	 ecx, DWORD PTR [eax+edx*4]
$LN7@DeleteElem:
; File D:\git\src\IBK\IBK_DRFN\ProjSrc\SrcChartEx\ChartAddIn\ChartAnalysisToolAddIn\AnalysisTool\ColumnSet.cpp

; 180  : 		if(pRowSet->Delete(pElement))

  0003c	6a 01		 push	 1
  0003e	53		 push	 ebx
  0003f	e8 00 00 00 00	 call	 ?Delete@CRowSet@@QAE_NPAVCElement@@_N@Z ; CRowSet::Delete
  00044	84 c0		 test	 al, al
  00046	75 11		 jne	 SHORT $LN33@DeleteElem

; 176  : 	for(int nIndex = 0; nIndex < m_RowSetList.GetCount(); nIndex++)

  00048	46		 inc	 esi
  00049	3b 77 14	 cmp	 esi, DWORD PTR [edi+20]
  0004c	7c c7		 jl	 SHORT $LL4@DeleteElem
$LN3@DeleteElem:
  0004e	5f		 pop	 edi

; 181  : 			return true;
; 182  : 	}
; 183  : 	return false;
; 184  : }

  0004f	5e		 pop	 esi
  00050	32 c0		 xor	 al, al
  00052	5b		 pop	 ebx
  00053	8b e5		 mov	 esp, ebp
  00055	5d		 pop	 ebp
  00056	c2 04 00	 ret	 4
$LN33@DeleteElem:
  00059	5f		 pop	 edi
  0005a	5e		 pop	 esi
  0005b	b0 01		 mov	 al, 1
  0005d	5b		 pop	 ebx
  0005e	8b e5		 mov	 esp, ebp
  00060	5d		 pop	 ebp
  00061	c2 04 00	 ret	 4
?DeleteElement@CColumnSet@@QAE_NPAVCElement@@@Z ENDP	; CColumnSet::DeleteElement
_TEXT	ENDS
; Function compile flags: /Ogtp
; File D:\git\src\IBK\IBK_DRFN\ProjSrc\SrcChartEx\ChartAddIn\ChartAnalysisToolAddIn\AnalysisTool\ColumnSet.cpp
; File C:\Program Files (x86)\Microsoft Visual Studio\2019\Community\VC\Tools\MSVC\14.29.30133\include\deque
; File D:\git\src\IBK\IBK_DRFN\ProjSrc\SrcChartEx\ChartAddIn\ChartAnalysisToolAddIn\Include_Chart\DequeList.h
; File C:\Program Files (x86)\Microsoft Visual Studio\2019\Community\VC\Tools\MSVC\14.29.30133\include\deque
; File D:\git\src\IBK\IBK_DRFN\ProjSrc\SrcChartEx\ChartAddIn\ChartAnalysisToolAddIn\Include_Chart\DequeList.h
; File C:\Program Files (x86)\Microsoft Visual Studio\2019\Community\VC\Tools\MSVC\14.29.30133\include\deque
; File D:\git\src\IBK\IBK_DRFN\ProjSrc\SrcChartEx\ChartAddIn\ChartAnalysisToolAddIn\Include_Chart\DequeList.h
; File D:\git\src\IBK\IBK_DRFN\ProjSrc\SrcChartEx\ChartAddIn\ChartAnalysisToolAddIn\AnalysisTool\ColumnSet.cpp
;	COMDAT ?DeleteElement@CColumnSet@@QAE_NW4ElementType@CToolEnumData@@AAV?$CDequePointerList@VCElement@@@@@Z
_TEXT	SEGMENT
_eElementTYPE$ = 8					; size = 4
_deletedElementList$ = 12				; size = 4
?DeleteElement@CColumnSet@@QAE_NW4ElementType@CToolEnumData@@AAV?$CDequePointerList@VCElement@@@@@Z PROC ; CColumnSet::DeleteElement, COMDAT
; _this$ = ecx

; 159  : {

  00000	55		 push	 ebp
  00001	8b ec		 mov	 ebp, esp
  00003	83 ec 08	 sub	 esp, 8
  00006	53		 push	 ebx
  00007	56		 push	 esi
  00008	8b f1		 mov	 esi, ecx

; 160  : 	bool bIsDeleted = false;

  0000a	32 db		 xor	 bl, bl
  0000c	57		 push	 edi

; 161  : 
; 162  : 	for(int nIndex = 0; nIndex < m_RowSetList.GetCount(); nIndex++)

  0000d	33 ff		 xor	 edi, edi
  0000f	39 7e 14	 cmp	 DWORD PTR [esi+20], edi
  00012	7e 45		 jle	 SHORT $LN36@DeleteElem
$LL4@DeleteElem:
; File C:\Program Files (x86)\Microsoft Visual Studio\2019\Community\VC\Tools\MSVC\14.29.30133\include\deque

; 1002 :         return _Mysize() == 0;

  00014	83 7e 14 00	 cmp	 DWORD PTR [esi+20], 0
; File D:\git\src\IBK\IBK_DRFN\ProjSrc\SrcChartEx\ChartAddIn\ChartAnalysisToolAddIn\Include_Chart\DequeList.h

; 198  : 		if(m_deque.empty())

  00018	75 04		 jne	 SHORT $LN8@DeleteElem

; 199  : 			return NULL;

  0001a	33 c9		 xor	 ecx, ecx
  0001c	eb 1d		 jmp	 SHORT $LN7@DeleteElem
$LN8@DeleteElem:
; File C:\Program Files (x86)\Microsoft Visual Studio\2019\Community\VC\Tools\MSVC\14.29.30133\include\deque

; 43   :         : _Mycont(static_cast<const _Mydeque*>(_Pdeque)), _Myoff(_Off) {}

  0001e	8b 46 10	 mov	 eax, DWORD PTR [esi+16]

; 78   :         _Myoff += _Off;

  00021	8d 14 38	 lea	 edx, DWORD PTR [eax+edi]

; 559  :         return (_Off / _Block_size) & (_Mapsize - 1);

  00024	8b 46 0c	 mov	 eax, DWORD PTR [esi+12]

; 78   :         _Myoff += _Off;

  00027	8b ca		 mov	 ecx, edx

; 559  :         return (_Off / _Block_size) & (_Mapsize - 1);

  00029	48		 dec	 eax

; 78   :         _Myoff += _Off;

  0002a	c1 e9 02	 shr	 ecx, 2

; 559  :         return (_Off / _Block_size) & (_Mapsize - 1);

  0002d	23 c8		 and	 ecx, eax
; File D:\git\src\IBK\IBK_DRFN\ProjSrc\SrcChartEx\ChartAddIn\ChartAnalysisToolAddIn\Include_Chart\DequeList.h

; 201  : 		return m_deque[nIndex];

  0002f	8b 46 08	 mov	 eax, DWORD PTR [esi+8]
; File C:\Program Files (x86)\Microsoft Visual Studio\2019\Community\VC\Tools\MSVC\14.29.30133\include\deque

; 48   :         return _Mycont->_Map[_Block][_Off];

  00032	83 e2 03	 and	 edx, 3
; File D:\git\src\IBK\IBK_DRFN\ProjSrc\SrcChartEx\ChartAddIn\ChartAnalysisToolAddIn\Include_Chart\DequeList.h

; 201  : 		return m_deque[nIndex];

  00035	8b 04 88	 mov	 eax, DWORD PTR [eax+ecx*4]
  00038	8b 0c 90	 mov	 ecx, DWORD PTR [eax+edx*4]
$LN7@DeleteElem:
; File D:\git\src\IBK\IBK_DRFN\ProjSrc\SrcChartEx\ChartAddIn\ChartAnalysisToolAddIn\AnalysisTool\ColumnSet.cpp

; 166  : 		if(pRowSet->Delete(eElementTYPE, deletedElementList))

  0003b	ff 75 0c	 push	 DWORD PTR _deletedElementList$[ebp]
  0003e	ff 75 08	 push	 DWORD PTR _eElementTYPE$[ebp]
  00041	e8 00 00 00 00	 call	 ?Delete@CRowSet@@QAE_NW4ElementType@CToolEnumData@@AAV?$CDequePointerList@VCElement@@@@@Z ; CRowSet::Delete
  00046	84 c0		 test	 al, al
  00048	0f b6 db	 movzx	 ebx, bl
  0004b	b8 01 00 00 00	 mov	 eax, 1
  00050	0f 45 d8	 cmovne	 ebx, eax
  00053	47		 inc	 edi
  00054	3b 7e 14	 cmp	 edi, DWORD PTR [esi+20]
  00057	7c bb		 jl	 SHORT $LL4@DeleteElem
$LN36@DeleteElem:
  00059	5f		 pop	 edi

; 167  : 			bIsDeleted = true;
; 168  : 	}
; 169  : 
; 170  : 	return bIsDeleted;
; 171  : }

  0005a	5e		 pop	 esi
  0005b	8a c3		 mov	 al, bl
  0005d	5b		 pop	 ebx
  0005e	8b e5		 mov	 esp, ebp
  00060	5d		 pop	 ebp
  00061	c2 08 00	 ret	 8
?DeleteElement@CColumnSet@@QAE_NW4ElementType@CToolEnumData@@AAV?$CDequePointerList@VCElement@@@@@Z ENDP ; CColumnSet::DeleteElement
_TEXT	ENDS
; Function compile flags: /Ogtp
; File D:\git\src\IBK\IBK_DRFN\ProjSrc\SrcChartEx\ChartAddIn\ChartAnalysisToolAddIn\AnalysisTool\ColumnSet.cpp
; File D:\git\src\IBK\IBK_DRFN\ProjSrc\SrcChartEx\ChartAddIn\ChartAnalysisToolAddIn\Include_Chart\DequeList.h
; File D:\git\src\IBK\IBK_DRFN\ProjSrc\SrcChartEx\ChartAddIn\ChartAnalysisToolAddIn\AnalysisTool\ColumnSet.cpp
; File D:\git\src\IBK\IBK_DRFN\ProjSrc\SrcChartEx\ChartAddIn\ChartAnalysisToolAddIn\Include_Chart\DequeList.h
; File C:\Program Files (x86)\Microsoft Visual Studio\2019\Community\VC\Tools\MSVC\14.29.30133\include\deque
; File D:\git\src\IBK\IBK_DRFN\ProjSrc\SrcChartEx\ChartAddIn\ChartAnalysisToolAddIn\Include_Chart\DequeList.h
; File D:\git\src\IBK\IBK_DRFN\ProjSrc\SrcChartEx\ChartAddIn\ChartAnalysisToolAddIn\AnalysisTool\ColumnSet.cpp
; File C:\Program Files (x86)\Microsoft Visual Studio\2019\Community\VC\Tools\MSVC\14.29.30133\include\deque
; File D:\git\src\IBK\IBK_DRFN\ProjSrc\SrcChartEx\ChartAddIn\ChartAnalysisToolAddIn\AnalysisTool\ColumnSet.cpp
; File C:\Program Files (x86)\Microsoft Visual Studio\2019\Community\VC\Tools\MSVC\14.29.30133\include\deque
; File C:\Program Files (x86)\Microsoft Visual Studio\2019\Community\VC\Tools\MSVC\14.29.30133\include\xmemory
; File C:\Program Files (x86)\Microsoft Visual Studio\2019\Community\VC\Tools\MSVC\14.29.30133\include\deque
; File C:\Program Files (x86)\Microsoft Visual Studio\2019\Community\VC\Tools\MSVC\14.29.30133\include\xmemory
; File C:\Program Files (x86)\Microsoft Visual Studio\2019\Community\VC\Tools\MSVC\14.29.30133\include\xutility
; File C:\Program Files (x86)\Microsoft Visual Studio\2019\Community\VC\Tools\MSVC\14.29.30133\include\deque
; File C:\Program Files (x86)\Microsoft Visual Studio\2019\Community\VC\Tools\MSVC\14.29.30133\include\xutility
; File C:\Program Files (x86)\Microsoft Visual Studio\2019\Community\VC\Tools\MSVC\14.29.30133\include\deque
; File C:\Program Files (x86)\Microsoft Visual Studio\2019\Community\VC\Tools\MSVC\14.29.30133\include\xutility
; File D:\git\src\IBK\IBK_DRFN\ProjSrc\SrcChartEx\ChartAddIn\ChartAnalysisToolAddIn\AnalysisTool\ColumnSet.cpp
; File C:\Program Files (x86)\Microsoft Visual Studio\2019\Community\VC\Tools\MSVC\14.29.30133\include\xmemory
; File C:\Program Files (x86)\Microsoft Visual Studio\2019\Community\VC\Tools\MSVC\14.29.30133\include\deque
; File C:\Program Files (x86)\Microsoft Visual Studio\2019\Community\VC\Tools\MSVC\14.29.30133\include\xmemory
; File C:\Program Files (x86)\Microsoft Visual Studio\2019\Community\VC\Tools\MSVC\14.29.30133\include\deque
; File C:\Program Files (x86)\Microsoft Visual Studio\2019\Community\VC\Tools\MSVC\14.29.30133\include\xmemory
; File C:\Program Files (x86)\Microsoft Visual Studio\2019\Community\VC\Tools\MSVC\14.29.30133\include\deque
; File C:\Program Files (x86)\Microsoft Visual Studio\2019\Community\VC\Tools\MSVC\14.29.30133\include\xmemory
; File C:\Program Files (x86)\Microsoft Visual Studio\2019\Community\VC\Tools\MSVC\14.29.30133\include\deque
; File D:\git\src\IBK\IBK_DRFN\ProjSrc\SrcChartEx\ChartAddIn\ChartAnalysisToolAddIn\AnalysisTool\ColumnSet.cpp
;	COMDAT ?DeleteRowSet@CColumnSet@@QAEXH@Z
_TEXT	SEGMENT
$T8 = -20						; size = 12
__Tmp$9 = -16						; size = 8
$T10 = -12						; size = 4
_this$1$ = -8						; size = 4
tv1006 = -4						; size = 4
tv1007 = 8						; size = 4
_rowNumber$ = 8						; size = 4
?DeleteRowSet@CColumnSet@@QAEXH@Z PROC			; CColumnSet::DeleteRowSet, COMDAT
; _this$ = ecx

; 147  : {

  00000	55		 push	 ebp
  00001	8b ec		 mov	 ebp, esp

; 148  : 	if(rowNumber < 0 || rowNumber >= m_RowSetList.GetCount())

  00003	8b 55 08	 mov	 edx, DWORD PTR _rowNumber$[ebp]
  00006	83 ec 14	 sub	 esp, 20			; 00000014H
  00009	53		 push	 ebx
  0000a	56		 push	 esi
  0000b	57		 push	 edi
  0000c	85 d2		 test	 edx, edx
  0000e	0f 88 c8 00 00
	00		 js	 $LN3@DeleteRowS
  00014	3b 51 14	 cmp	 edx, DWORD PTR [ecx+20]
  00017	0f 8d bf 00 00
	00		 jge	 $LN3@DeleteRowS
; File D:\git\src\IBK\IBK_DRFN\ProjSrc\SrcChartEx\ChartAddIn\ChartAnalysisToolAddIn\Include_Chart\DequeList.h

; 198  : 		if(m_deque.empty())

  0001d	83 79 14 00	 cmp	 DWORD PTR [ecx+20], 0
; File D:\git\src\IBK\IBK_DRFN\ProjSrc\SrcChartEx\ChartAddIn\ChartAnalysisToolAddIn\AnalysisTool\ColumnSet.cpp

; 151  : 	CRowSet* pRowSet = m_RowSetList.GetAt(rowNumber);

  00021	8d 79 04	 lea	 edi, DWORD PTR [ecx+4]
  00024	89 7d f8	 mov	 DWORD PTR _this$1$[ebp], edi
; File D:\git\src\IBK\IBK_DRFN\ProjSrc\SrcChartEx\ChartAddIn\ChartAnalysisToolAddIn\Include_Chart\DequeList.h

; 198  : 		if(m_deque.empty())

  00027	75 04		 jne	 SHORT $LN6@DeleteRowS

; 199  : 			return NULL;

  00029	33 db		 xor	 ebx, ebx
  0002b	eb 1f		 jmp	 SHORT $LN5@DeleteRowS
$LN6@DeleteRowS:
; File C:\Program Files (x86)\Microsoft Visual Studio\2019\Community\VC\Tools\MSVC\14.29.30133\include\deque

; 905  :         return _Unchecked_iterator(_Myoff(), _STD addressof(_Get_data()));

  0002d	8b 41 10	 mov	 eax, DWORD PTR [ecx+16]

; 78   :         _Myoff += _Off;

  00030	03 d0		 add	 edx, eax

; 559  :         return (_Off / _Block_size) & (_Mapsize - 1);

  00032	8b 4f 08	 mov	 ecx, DWORD PTR [edi+8]

; 202  :         _Deque_unchecked_iterator _Tmp = *this;

  00035	89 45 f4	 mov	 DWORD PTR __Tmp$9[ebp+4], eax

; 559  :         return (_Off / _Block_size) & (_Mapsize - 1);

  00038	49		 dec	 ecx
  00039	8b c2		 mov	 eax, edx
  0003b	c1 e8 02	 shr	 eax, 2
  0003e	23 c8		 and	 ecx, eax

; 48   :         return _Mycont->_Map[_Block][_Off];

  00040	8b 47 04	 mov	 eax, DWORD PTR [edi+4]

; 559  :         return (_Off / _Block_size) & (_Mapsize - 1);

  00043	83 e2 03	 and	 edx, 3

; 48   :         return _Mycont->_Map[_Block][_Off];

  00046	8b 04 88	 mov	 eax, DWORD PTR [eax+ecx*4]
; File D:\git\src\IBK\IBK_DRFN\ProjSrc\SrcChartEx\ChartAddIn\ChartAnalysisToolAddIn\Include_Chart\DequeList.h

; 201  : 		return m_deque[nIndex];

  00049	8b 1c 90	 mov	 ebx, DWORD PTR [eax+edx*4]
$LN5@DeleteRowS:
; File D:\git\src\IBK\IBK_DRFN\ProjSrc\SrcChartEx\ChartAddIn\ChartAnalysisToolAddIn\AnalysisTool\ColumnSet.cpp

; 341  : 	CRowSet::Delete(pRowSet);

  0004c	53		 push	 ebx
  0004d	e8 00 00 00 00	 call	 ?Delete@CRowSet@@SAXPAV1@@Z ; CRowSet::Delete
; File C:\Program Files (x86)\Microsoft Visual Studio\2019\Community\VC\Tools\MSVC\14.29.30133\include\deque

; 897  :         return iterator(_Myoff() + _Mysize(), _STD addressof(_Get_data()));

  00052	8b 77 10	 mov	 esi, DWORD PTR [edi+16]
; File D:\git\src\IBK\IBK_DRFN\ProjSrc\SrcChartEx\ChartAddIn\ChartAnalysisToolAddIn\AnalysisTool\ColumnSet.cpp

; 341  : 	CRowSet::Delete(pRowSet);

  00055	83 c4 04	 add	 esp, 4
; File C:\Program Files (x86)\Microsoft Visual Studio\2019\Community\VC\Tools\MSVC\14.29.30133\include\deque

; 897  :         return iterator(_Myoff() + _Mysize(), _STD addressof(_Get_data()));

  00058	8b 47 0c	 mov	 eax, DWORD PTR [edi+12]
  0005b	03 f0		 add	 esi, eax
; File C:\Program Files (x86)\Microsoft Visual Studio\2019\Community\VC\Tools\MSVC\14.29.30133\include\xmemory

; 1099 :             _Myproxy = _Parent->_Myproxy;

  0005d	8b 0f		 mov	 ecx, DWORD PTR [edi]
  0005f	89 4d f4	 mov	 DWORD PTR $T10[ebp], ecx
; File C:\Program Files (x86)\Microsoft Visual Studio\2019\Community\VC\Tools\MSVC\14.29.30133\include\deque

; 507  :         return {this->_Myoff, this->_Getcont()};

  00062	85 c9		 test	 ecx, ecx
; File C:\Program Files (x86)\Microsoft Visual Studio\2019\Community\VC\Tools\MSVC\14.29.30133\include\xmemory

; 1107 :         return _Myproxy ? _Myproxy->_Mycont : nullptr;

  00064	74 04		 je	 SHORT $LN83@DeleteRowS
  00066	8b 11		 mov	 edx, DWORD PTR [ecx]
  00068	eb 02		 jmp	 SHORT $LN84@DeleteRowS
$LN83@DeleteRowS:
  0006a	33 d2		 xor	 edx, edx
$LN84@DeleteRowS:
; File C:\Program Files (x86)\Microsoft Visual Studio\2019\Community\VC\Tools\MSVC\14.29.30133\include\xutility

; 5185 :     for (; _First != _Last; ++_First) {

  0006c	3b c6		 cmp	 eax, esi
  0006e	74 6c		 je	 SHORT $LN3@DeleteRowS
  00070	8b 4a 08	 mov	 ecx, DWORD PTR [edx+8]
  00073	49		 dec	 ecx
  00074	89 4d 08	 mov	 DWORD PTR tv1007[ebp], ecx
  00077	8b 4a 04	 mov	 ecx, DWORD PTR [edx+4]
  0007a	89 4d fc	 mov	 DWORD PTR tv1006[ebp], ecx
  0007d	0f 1f 00	 npad	 3
$LL100@DeleteRowS:
; File C:\Program Files (x86)\Microsoft Visual Studio\2019\Community\VC\Tools\MSVC\14.29.30133\include\deque

; 48   :         return _Mycont->_Map[_Block][_Off];

  00080	8b 7d fc	 mov	 edi, DWORD PTR tv1006[ebp]

; 559  :         return (_Off / _Block_size) & (_Mapsize - 1);

  00083	8b c8		 mov	 ecx, eax
  00085	c1 e9 02	 shr	 ecx, 2

; 47   :         _Size_type _Off   = _Myoff % _Block_size;

  00088	8b d0		 mov	 edx, eax

; 559  :         return (_Off / _Block_size) & (_Mapsize - 1);

  0008a	23 4d 08	 and	 ecx, DWORD PTR tv1007[ebp]

; 47   :         _Size_type _Off   = _Myoff % _Block_size;

  0008d	83 e2 03	 and	 edx, 3

; 48   :         return _Mycont->_Map[_Block][_Off];

  00090	8b 0c 8f	 mov	 ecx, DWORD PTR [edi+ecx*4]
; File C:\Program Files (x86)\Microsoft Visual Studio\2019\Community\VC\Tools\MSVC\14.29.30133\include\xutility

; 5186 :         if (*_First == _Val) {

  00093	8b 7d f8	 mov	 edi, DWORD PTR _this$1$[ebp]
  00096	39 1c 91	 cmp	 DWORD PTR [ecx+edx*4], ebx
  00099	74 0e		 je	 SHORT $LN170@DeleteRowS
; File C:\Program Files (x86)\Microsoft Visual Studio\2019\Community\VC\Tools\MSVC\14.29.30133\include\deque

; 56   :         ++_Myoff;

  0009b	40		 inc	 eax
; File C:\Program Files (x86)\Microsoft Visual Studio\2019\Community\VC\Tools\MSVC\14.29.30133\include\xutility

; 5185 :     for (; _First != _Last; ++_First) {

  0009c	3b c6		 cmp	 eax, esi
  0009e	75 e0		 jne	 SHORT $LL100@DeleteRowS
; File D:\git\src\IBK\IBK_DRFN\ProjSrc\SrcChartEx\ChartAddIn\ChartAnalysisToolAddIn\AnalysisTool\ColumnSet.cpp

; 153  : }

  000a0	5f		 pop	 edi
  000a1	5e		 pop	 esi
  000a2	5b		 pop	 ebx
  000a3	8b e5		 mov	 esp, ebp
  000a5	5d		 pop	 ebp
  000a6	c2 04 00	 ret	 4
$LN170@DeleteRowS:
; File C:\Program Files (x86)\Microsoft Visual Studio\2019\Community\VC\Tools\MSVC\14.29.30133\include\xmemory

; 1069 :         _Myproxy = _Right._Myproxy;

  000a9	8b 4d f4	 mov	 ecx, DWORD PTR $T10[ebp]
; File C:\Program Files (x86)\Microsoft Visual Studio\2019\Community\VC\Tools\MSVC\14.29.30133\include\deque

; 281  :         ++_Myoff;

  000ac	8d 50 01	 lea	 edx, DWORD PTR [eax+1]

; 1277 :         return erase(_Where, _Next_iter(_Where));

  000af	83 ec 0c	 sub	 esp, 12			; 0000000cH
  000b2	8b f4		 mov	 esi, esp
  000b4	83 ec 0c	 sub	 esp, 12			; 0000000cH
  000b7	89 56 08	 mov	 DWORD PTR [esi+8], edx
  000ba	8b d4		 mov	 edx, esp
; File C:\Program Files (x86)\Microsoft Visual Studio\2019\Community\VC\Tools\MSVC\14.29.30133\include\xmemory

; 1069 :         _Myproxy = _Right._Myproxy;

  000bc	89 0e		 mov	 DWORD PTR [esi], ecx

; 1113 :     mutable _Iterator_base12* _Mynextiter = nullptr;

  000be	c7 46 04 00 00
	00 00		 mov	 DWORD PTR [esi+4], 0
  000c5	89 42 08	 mov	 DWORD PTR [edx+8], eax
; File C:\Program Files (x86)\Microsoft Visual Studio\2019\Community\VC\Tools\MSVC\14.29.30133\include\deque

; 1277 :         return erase(_Where, _Next_iter(_Where));

  000c8	8d 45 ec	 lea	 eax, DWORD PTR $T8[ebp]
; File C:\Program Files (x86)\Microsoft Visual Studio\2019\Community\VC\Tools\MSVC\14.29.30133\include\xmemory

; 1069 :         _Myproxy = _Right._Myproxy;

  000cb	89 0a		 mov	 DWORD PTR [edx], ecx
; File C:\Program Files (x86)\Microsoft Visual Studio\2019\Community\VC\Tools\MSVC\14.29.30133\include\deque

; 1277 :         return erase(_Where, _Next_iter(_Where));

  000cd	8b cf		 mov	 ecx, edi
  000cf	50		 push	 eax
; File C:\Program Files (x86)\Microsoft Visual Studio\2019\Community\VC\Tools\MSVC\14.29.30133\include\xmemory

; 1113 :     mutable _Iterator_base12* _Mynextiter = nullptr;

  000d0	c7 42 04 00 00
	00 00		 mov	 DWORD PTR [edx+4], 0
; File C:\Program Files (x86)\Microsoft Visual Studio\2019\Community\VC\Tools\MSVC\14.29.30133\include\deque

; 1277 :         return erase(_Where, _Next_iter(_Where));

  000d7	e8 00 00 00 00	 call	 ?erase@?$deque@PAVCRowSet@@V?$allocator@PAVCRowSet@@@std@@@std@@QAE?AV?$_Deque_iterator@V?$_Deque_val@U?$_Deque_simple_types@PAVCRowSet@@@std@@@std@@@2@V?$_Deque_const_iterator@V?$_Deque_val@U?$_Deque_simple_types@PAVCRowSet@@@std@@@std@@@2@0@Z ; std::deque<CRowSet *,std::allocator<CRowSet *> >::erase
$LN3@DeleteRowS:
; File D:\git\src\IBK\IBK_DRFN\ProjSrc\SrcChartEx\ChartAddIn\ChartAnalysisToolAddIn\AnalysisTool\ColumnSet.cpp

; 153  : }

  000dc	5f		 pop	 edi
  000dd	5e		 pop	 esi
  000de	5b		 pop	 ebx
  000df	8b e5		 mov	 esp, ebp
  000e1	5d		 pop	 ebp
  000e2	c2 04 00	 ret	 4
?DeleteRowSet@CColumnSet@@QAEXH@Z ENDP			; CColumnSet::DeleteRowSet
_TEXT	ENDS
; Function compile flags: /Ogtp
; File D:\git\src\IBK\IBK_DRFN\ProjSrc\SrcChartEx\ChartAddIn\ChartAnalysisToolAddIn\AnalysisTool\ColumnSet.cpp
; File D:\git\src\IBK\IBK_DRFN\ProjSrc\SrcChartEx\ChartAddIn\ChartAnalysisToolAddIn\Include_Chart\DequeList.h
; File D:\git\src\IBK\IBK_DRFN\ProjSrc\SrcChartEx\ChartAddIn\ChartAnalysisToolAddIn\AnalysisTool\ColumnSet.cpp
; File D:\git\src\IBK\IBK_DRFN\ProjSrc\SrcChartEx\ChartAddIn\ChartAnalysisToolAddIn\Include_Chart\DequeList.h
; File C:\Program Files (x86)\Microsoft Visual Studio\2019\Community\VC\Tools\MSVC\14.29.30133\include\deque
; File D:\git\src\IBK\IBK_DRFN\ProjSrc\SrcChartEx\ChartAddIn\ChartAnalysisToolAddIn\Include_Chart\DequeList.h
; File D:\git\src\IBK\IBK_DRFN\ProjSrc\SrcChartEx\ChartAddIn\ChartAnalysisToolAddIn\AnalysisTool\ColumnSet.cpp
; File C:\Program Files (x86)\Microsoft Visual Studio\2019\Community\VC\Tools\MSVC\14.29.30133\include\deque
; File D:\git\src\IBK\IBK_DRFN\ProjSrc\SrcChartEx\ChartAddIn\ChartAnalysisToolAddIn\AnalysisTool\ColumnSet.cpp
; File C:\Program Files (x86)\Microsoft Visual Studio\2019\Community\VC\Tools\MSVC\14.29.30133\include\deque
; File C:\Program Files (x86)\Microsoft Visual Studio\2019\Community\VC\Tools\MSVC\14.29.30133\include\xmemory
; File C:\Program Files (x86)\Microsoft Visual Studio\2019\Community\VC\Tools\MSVC\14.29.30133\include\xutility
; File C:\Program Files (x86)\Microsoft Visual Studio\2019\Community\VC\Tools\MSVC\14.29.30133\include\deque
; File C:\Program Files (x86)\Microsoft Visual Studio\2019\Community\VC\Tools\MSVC\14.29.30133\include\xutility
; File C:\Program Files (x86)\Microsoft Visual Studio\2019\Community\VC\Tools\MSVC\14.29.30133\include\deque
; File C:\Program Files (x86)\Microsoft Visual Studio\2019\Community\VC\Tools\MSVC\14.29.30133\include\xutility
; File C:\Program Files (x86)\Microsoft Visual Studio\2019\Community\VC\Tools\MSVC\14.29.30133\include\xmemory
; File C:\Program Files (x86)\Microsoft Visual Studio\2019\Community\VC\Tools\MSVC\14.29.30133\include\deque
; File C:\Program Files (x86)\Microsoft Visual Studio\2019\Community\VC\Tools\MSVC\14.29.30133\include\xmemory
; File C:\Program Files (x86)\Microsoft Visual Studio\2019\Community\VC\Tools\MSVC\14.29.30133\include\deque
; File C:\Program Files (x86)\Microsoft Visual Studio\2019\Community\VC\Tools\MSVC\14.29.30133\include\xmemory
; File C:\Program Files (x86)\Microsoft Visual Studio\2019\Community\VC\Tools\MSVC\14.29.30133\include\deque
; File C:\Program Files (x86)\Microsoft Visual Studio\2019\Community\VC\Tools\MSVC\14.29.30133\include\xmemory
; File C:\Program Files (x86)\Microsoft Visual Studio\2019\Community\VC\Tools\MSVC\14.29.30133\include\deque
; File D:\git\src\IBK\IBK_DRFN\ProjSrc\SrcChartEx\ChartAddIn\ChartAnalysisToolAddIn\AnalysisTool\ColumnSet.cpp
; File D:\git\src\IBK\IBK_DRFN\ProjSrc\SrcChartEx\ChartAddIn\ChartAnalysisToolAddIn\Include_Chart\DequeList.h
; File C:\Program Files (x86)\Microsoft Visual Studio\2019\Community\VC\Tools\MSVC\14.29.30133\include\deque
; File D:\git\src\IBK\IBK_DRFN\ProjSrc\SrcChartEx\ChartAddIn\ChartAnalysisToolAddIn\AnalysisTool\ColumnSet.cpp
;	COMDAT ?DeleteAllRowSet@CColumnSet@@QAEXXZ
_TEXT	SEGMENT
$T8 = -32						; size = 12
$T2$sroa$391$1$ = -16					; size = 4
tv1067 = -12						; size = 4
tv1068 = -8						; size = 4
_pRowSet$1$ = -4					; size = 4
?DeleteAllRowSet@CColumnSet@@QAEXXZ PROC		; CColumnSet::DeleteAllRowSet, COMDAT
; _this$ = ecx

; 137  : {

  00000	55		 push	 ebp
  00001	8b ec		 mov	 ebp, esp
  00003	83 ec 20	 sub	 esp, 32			; 00000020H
  00006	53		 push	 ebx
  00007	56		 push	 esi
  00008	57		 push	 edi
  00009	8b f9		 mov	 edi, ecx

; 138  : 	while(m_RowSetList.GetCount() > 0){

  0000b	83 7f 14 00	 cmp	 DWORD PTR [edi+20], 0
  0000f	0f 8e bb 00 00
	00		 jle	 $LN3@DeleteAllR
$LL2@DeleteAllR:
; File D:\git\src\IBK\IBK_DRFN\ProjSrc\SrcChartEx\ChartAddIn\ChartAnalysisToolAddIn\Include_Chart\DequeList.h

; 198  : 		if(m_deque.empty())

  00015	83 7f 14 00	 cmp	 DWORD PTR [edi+20], 0
; File D:\git\src\IBK\IBK_DRFN\ProjSrc\SrcChartEx\ChartAddIn\ChartAnalysisToolAddIn\AnalysisTool\ColumnSet.cpp

; 151  : 	CRowSet* pRowSet = m_RowSetList.GetAt(rowNumber);

  00019	8d 5f 04	 lea	 ebx, DWORD PTR [edi+4]
; File D:\git\src\IBK\IBK_DRFN\ProjSrc\SrcChartEx\ChartAddIn\ChartAnalysisToolAddIn\Include_Chart\DequeList.h

; 198  : 		if(m_deque.empty())

  0001c	75 04		 jne	 SHORT $LN10@DeleteAllR

; 199  : 			return NULL;

  0001e	33 c0		 xor	 eax, eax
  00020	eb 1a		 jmp	 SHORT $LN182@DeleteAllR
$LN10@DeleteAllR:
; File C:\Program Files (x86)\Microsoft Visual Studio\2019\Community\VC\Tools\MSVC\14.29.30133\include\deque

; 905  :         return _Unchecked_iterator(_Myoff(), _STD addressof(_Get_data()));

  00022	8b 57 10	 mov	 edx, DWORD PTR [edi+16]

; 559  :         return (_Off / _Block_size) & (_Mapsize - 1);

  00025	8b c2		 mov	 eax, edx
  00027	8b 4f 0c	 mov	 ecx, DWORD PTR [edi+12]
  0002a	c1 e8 02	 shr	 eax, 2
  0002d	49		 dec	 ecx
  0002e	23 c8		 and	 ecx, eax

; 48   :         return _Mycont->_Map[_Block][_Off];

  00030	8b 47 08	 mov	 eax, DWORD PTR [edi+8]

; 559  :         return (_Off / _Block_size) & (_Mapsize - 1);

  00033	83 e2 03	 and	 edx, 3

; 48   :         return _Mycont->_Map[_Block][_Off];

  00036	8b 04 88	 mov	 eax, DWORD PTR [eax+ecx*4]
; File D:\git\src\IBK\IBK_DRFN\ProjSrc\SrcChartEx\ChartAddIn\ChartAnalysisToolAddIn\Include_Chart\DequeList.h

; 201  : 		return m_deque[nIndex];

  00039	8b 04 90	 mov	 eax, DWORD PTR [eax+edx*4]
$LN182@DeleteAllR:
; File D:\git\src\IBK\IBK_DRFN\ProjSrc\SrcChartEx\ChartAddIn\ChartAnalysisToolAddIn\AnalysisTool\ColumnSet.cpp

; 341  : 	CRowSet::Delete(pRowSet);

  0003c	50		 push	 eax
  0003d	89 45 fc	 mov	 DWORD PTR _pRowSet$1$[ebp], eax
  00040	e8 00 00 00 00	 call	 ?Delete@CRowSet@@SAXPAV1@@Z ; CRowSet::Delete
; File C:\Program Files (x86)\Microsoft Visual Studio\2019\Community\VC\Tools\MSVC\14.29.30133\include\deque

; 897  :         return iterator(_Myoff() + _Mysize(), _STD addressof(_Get_data()));

  00045	8b 73 10	 mov	 esi, DWORD PTR [ebx+16]
; File D:\git\src\IBK\IBK_DRFN\ProjSrc\SrcChartEx\ChartAddIn\ChartAnalysisToolAddIn\AnalysisTool\ColumnSet.cpp

; 341  : 	CRowSet::Delete(pRowSet);

  00048	83 c4 04	 add	 esp, 4
; File C:\Program Files (x86)\Microsoft Visual Studio\2019\Community\VC\Tools\MSVC\14.29.30133\include\deque

; 897  :         return iterator(_Myoff() + _Mysize(), _STD addressof(_Get_data()));

  0004b	8b 43 0c	 mov	 eax, DWORD PTR [ebx+12]
  0004e	03 f0		 add	 esi, eax
; File C:\Program Files (x86)\Microsoft Visual Studio\2019\Community\VC\Tools\MSVC\14.29.30133\include\xmemory

; 1099 :             _Myproxy = _Parent->_Myproxy;

  00050	8b 0b		 mov	 ecx, DWORD PTR [ebx]
  00052	89 4d f0	 mov	 DWORD PTR $T2$sroa$391$1$[ebp], ecx

; 1107 :         return _Myproxy ? _Myproxy->_Mycont : nullptr;

  00055	85 c9		 test	 ecx, ecx
  00057	74 04		 je	 SHORT $LN87@DeleteAllR
  00059	8b 11		 mov	 edx, DWORD PTR [ecx]
  0005b	eb 02		 jmp	 SHORT $LN88@DeleteAllR
$LN87@DeleteAllR:
  0005d	33 d2		 xor	 edx, edx
$LN88@DeleteAllR:
; File C:\Program Files (x86)\Microsoft Visual Studio\2019\Community\VC\Tools\MSVC\14.29.30133\include\xutility

; 5185 :     for (; _First != _Last; ++_First) {

  0005f	3b c6		 cmp	 eax, esi
  00061	74 63		 je	 SHORT $LN146@DeleteAllR
  00063	8b 4a 08	 mov	 ecx, DWORD PTR [edx+8]
  00066	49		 dec	 ecx
  00067	89 4d f8	 mov	 DWORD PTR tv1068[ebp], ecx
  0006a	8b 4a 04	 mov	 ecx, DWORD PTR [edx+4]
  0006d	89 4d f4	 mov	 DWORD PTR tv1067[ebp], ecx
$LL104@DeleteAllR:
; File C:\Program Files (x86)\Microsoft Visual Studio\2019\Community\VC\Tools\MSVC\14.29.30133\include\deque

; 48   :         return _Mycont->_Map[_Block][_Off];

  00070	8b 5d f4	 mov	 ebx, DWORD PTR tv1067[ebp]

; 559  :         return (_Off / _Block_size) & (_Mapsize - 1);

  00073	8b c8		 mov	 ecx, eax
  00075	c1 e9 02	 shr	 ecx, 2

; 47   :         _Size_type _Off   = _Myoff % _Block_size;

  00078	8b d0		 mov	 edx, eax

; 559  :         return (_Off / _Block_size) & (_Mapsize - 1);

  0007a	23 4d f8	 and	 ecx, DWORD PTR tv1068[ebp]

; 47   :         _Size_type _Off   = _Myoff % _Block_size;

  0007d	83 e2 03	 and	 edx, 3

; 48   :         return _Mycont->_Map[_Block][_Off];

  00080	8b 0c 8b	 mov	 ecx, DWORD PTR [ebx+ecx*4]
; File C:\Program Files (x86)\Microsoft Visual Studio\2019\Community\VC\Tools\MSVC\14.29.30133\include\xutility

; 5186 :         if (*_First == _Val) {

  00083	8b 5d fc	 mov	 ebx, DWORD PTR _pRowSet$1$[ebp]
  00086	39 1c 91	 cmp	 DWORD PTR [ecx+edx*4], ebx
  00089	74 07		 je	 SHORT $LN181@DeleteAllR
; File C:\Program Files (x86)\Microsoft Visual Studio\2019\Community\VC\Tools\MSVC\14.29.30133\include\deque

; 56   :         ++_Myoff;

  0008b	40		 inc	 eax
; File C:\Program Files (x86)\Microsoft Visual Studio\2019\Community\VC\Tools\MSVC\14.29.30133\include\xutility

; 5185 :     for (; _First != _Last; ++_First) {

  0008c	3b c6		 cmp	 eax, esi
  0008e	75 e0		 jne	 SHORT $LL104@DeleteAllR
  00090	eb 34		 jmp	 SHORT $LN146@DeleteAllR
$LN181@DeleteAllR:
; File C:\Program Files (x86)\Microsoft Visual Studio\2019\Community\VC\Tools\MSVC\14.29.30133\include\xmemory

; 1069 :         _Myproxy = _Right._Myproxy;

  00092	8b 4d f0	 mov	 ecx, DWORD PTR $T2$sroa$391$1$[ebp]
  00095	8d 50 01	 lea	 edx, DWORD PTR [eax+1]
; File C:\Program Files (x86)\Microsoft Visual Studio\2019\Community\VC\Tools\MSVC\14.29.30133\include\deque

; 1277 :         return erase(_Where, _Next_iter(_Where));

  00098	83 ec 0c	 sub	 esp, 12			; 0000000cH
  0009b	8b f4		 mov	 esi, esp
  0009d	83 ec 0c	 sub	 esp, 12			; 0000000cH
  000a0	89 56 08	 mov	 DWORD PTR [esi+8], edx
  000a3	8b d4		 mov	 edx, esp
; File C:\Program Files (x86)\Microsoft Visual Studio\2019\Community\VC\Tools\MSVC\14.29.30133\include\xmemory

; 1069 :         _Myproxy = _Right._Myproxy;

  000a5	89 0e		 mov	 DWORD PTR [esi], ecx

; 1113 :     mutable _Iterator_base12* _Mynextiter = nullptr;

  000a7	c7 46 04 00 00
	00 00		 mov	 DWORD PTR [esi+4], 0
  000ae	89 42 08	 mov	 DWORD PTR [edx+8], eax
; File C:\Program Files (x86)\Microsoft Visual Studio\2019\Community\VC\Tools\MSVC\14.29.30133\include\deque

; 1277 :         return erase(_Where, _Next_iter(_Where));

  000b1	8d 45 e0	 lea	 eax, DWORD PTR $T8[ebp]
; File C:\Program Files (x86)\Microsoft Visual Studio\2019\Community\VC\Tools\MSVC\14.29.30133\include\xmemory

; 1069 :         _Myproxy = _Right._Myproxy;

  000b4	89 0a		 mov	 DWORD PTR [edx], ecx
; File C:\Program Files (x86)\Microsoft Visual Studio\2019\Community\VC\Tools\MSVC\14.29.30133\include\deque

; 1277 :         return erase(_Where, _Next_iter(_Where));

  000b6	8d 4f 04	 lea	 ecx, DWORD PTR [edi+4]
  000b9	50		 push	 eax
; File C:\Program Files (x86)\Microsoft Visual Studio\2019\Community\VC\Tools\MSVC\14.29.30133\include\xmemory

; 1113 :     mutable _Iterator_base12* _Mynextiter = nullptr;

  000ba	c7 42 04 00 00
	00 00		 mov	 DWORD PTR [edx+4], 0
; File C:\Program Files (x86)\Microsoft Visual Studio\2019\Community\VC\Tools\MSVC\14.29.30133\include\deque

; 1277 :         return erase(_Where, _Next_iter(_Where));

  000c1	e8 00 00 00 00	 call	 ?erase@?$deque@PAVCRowSet@@V?$allocator@PAVCRowSet@@@std@@@std@@QAE?AV?$_Deque_iterator@V?$_Deque_val@U?$_Deque_simple_types@PAVCRowSet@@@std@@@std@@@2@V?$_Deque_const_iterator@V?$_Deque_val@U?$_Deque_simple_types@PAVCRowSet@@@std@@@std@@@2@0@Z ; std::deque<CRowSet *,std::allocator<CRowSet *> >::erase
$LN146@DeleteAllR:
; File D:\git\src\IBK\IBK_DRFN\ProjSrc\SrcChartEx\ChartAddIn\ChartAnalysisToolAddIn\AnalysisTool\ColumnSet.cpp

; 138  : 	while(m_RowSetList.GetCount() > 0){

  000c6	83 7f 14 00	 cmp	 DWORD PTR [edi+20], 0
  000ca	0f 8f 45 ff ff
	ff		 jg	 $LL2@DeleteAllR
$LN3@DeleteAllR:
; File D:\git\src\IBK\IBK_DRFN\ProjSrc\SrcChartEx\ChartAddIn\ChartAnalysisToolAddIn\Include_Chart\DequeList.h

; 242  : 	void RemoveAll(){ m_deque.clear(); };

  000d0	8d 4f 04	 lea	 ecx, DWORD PTR [edi+4]
; File C:\Program Files (x86)\Microsoft Visual Studio\2019\Community\VC\Tools\MSVC\14.29.30133\include\deque

; 1332 :         _Tidy();

  000d3	e8 00 00 00 00	 call	 ?_Tidy@?$deque@PAVCRowSet@@V?$allocator@PAVCRowSet@@@std@@@std@@AAEXXZ ; std::deque<CRowSet *,std::allocator<CRowSet *> >::_Tidy
; File D:\git\src\IBK\IBK_DRFN\ProjSrc\SrcChartEx\ChartAddIn\ChartAnalysisToolAddIn\AnalysisTool\ColumnSet.cpp

; 143  : }

  000d8	5f		 pop	 edi
  000d9	5e		 pop	 esi
  000da	5b		 pop	 ebx
  000db	8b e5		 mov	 esp, ebp
  000dd	5d		 pop	 ebp
  000de	c3		 ret	 0
?DeleteAllRowSet@CColumnSet@@QAEXXZ ENDP		; CColumnSet::DeleteAllRowSet
_TEXT	ENDS
; Function compile flags: /Ogtp
; File D:\git\src\IBK\IBK_DRFN\ProjSrc\SrcChartEx\ChartAddIn\ChartAnalysisToolAddIn\AnalysisTool\ColumnSet.cpp
; File C:\Program Files (x86)\Microsoft Visual Studio\2019\Community\VC\Tools\MSVC\14.29.30133\include\xmemory
; File D:\git\src\IBK\IBK_DRFN\ProjSrc\SrcChartEx\ChartAddIn\ChartAnalysisToolAddIn\AnalysisTool\ColumnSet.cpp
; File C:\Program Files (x86)\Microsoft Visual Studio\2019\Community\VC\Tools\MSVC\14.29.30133\include\deque
; File D:\git\src\IBK\IBK_DRFN\ProjSrc\SrcChartEx\ChartAddIn\ChartAnalysisToolAddIn\AnalysisTool\ColumnSet.cpp
; File D:\git\src\IBK\IBK_DRFN\ProjSrc\SrcChartEx\ChartAddIn\ChartAnalysisToolAddIn\Include_Chart\DequeList.h
; File C:\Program Files (x86)\Microsoft Visual Studio\2019\Community\VC\Tools\MSVC\14.29.30133\include\xmemory
; File D:\git\src\IBK\IBK_DRFN\ProjSrc\SrcChartEx\ChartAddIn\ChartAnalysisToolAddIn\Include_Chart\DequeList.h
; File D:\git\src\IBK\IBK_DRFN\ProjSrc\SrcChartEx\ChartAddIn\ChartAnalysisToolAddIn\AnalysisTool\ColumnSet.cpp
;	COMDAT ?InsertRowSet@CColumnSet@@QAE_NH@Z
_TEXT	SEGMENT
$T2 = -16						; size = 12
_pItem$ = -4						; size = 4
_rowIndex$ = 8						; size = 4
?InsertRowSet@CColumnSet@@QAE_NH@Z PROC			; CColumnSet::InsertRowSet, COMDAT
; _this$ = ecx

; 123  : {

  00000	55		 push	 ebp
  00001	8b ec		 mov	 ebp, esp
  00003	83 ec 10	 sub	 esp, 16			; 00000010H
  00006	56		 push	 esi
  00007	8b f1		 mov	 esi, ecx

; 124  : 	//  block columnSet  list   .
; 125  : 	if(m_RowSetList.GetCount() <= 0 || m_RowSetList.GetCount() <= rowIndex)

  00009	8b 46 14	 mov	 eax, DWORD PTR [esi+20]
  0000c	85 c0		 test	 eax, eax
  0000e	7e 40		 jle	 SHORT $LN3@InsertRowS
  00010	3b 45 08	 cmp	 eax, DWORD PTR _rowIndex$[ebp]
  00013	7e 3b		 jle	 SHORT $LN3@InsertRowS

; 127  : 
; 128  : 	CRowSet* pRowSet = CRowSet::Make();

  00015	e8 00 00 00 00	 call	 ?Make@CRowSet@@SAPAV1@XZ ; CRowSet::Make
; File C:\Program Files (x86)\Microsoft Visual Studio\2019\Community\VC\Tools\MSVC\14.29.30133\include\xmemory

; 1099 :             _Myproxy = _Parent->_Myproxy;

  0001a	8b 56 04	 mov	 edx, DWORD PTR [esi+4]
; File D:\git\src\IBK\IBK_DRFN\ProjSrc\SrcChartEx\ChartAddIn\ChartAnalysisToolAddIn\AnalysisTool\ColumnSet.cpp

; 130  : 	m_RowSetList.InsertItem(rowIndex, pRowSet);

  0001d	8d 4e 04	 lea	 ecx, DWORD PTR [esi+4]
; File C:\Program Files (x86)\Microsoft Visual Studio\2019\Community\VC\Tools\MSVC\14.29.30133\include\deque

; 319  :         _Myoff += _Off;

  00020	8b 71 0c	 mov	 esi, DWORD PTR [ecx+12]
  00023	03 75 08	 add	 esi, DWORD PTR _rowIndex$[ebp]
; File D:\git\src\IBK\IBK_DRFN\ProjSrc\SrcChartEx\ChartAddIn\ChartAnalysisToolAddIn\AnalysisTool\ColumnSet.cpp

; 130  : 	m_RowSetList.InsertItem(rowIndex, pRowSet);

  00026	89 45 fc	 mov	 DWORD PTR _pItem$[ebp], eax
; File D:\git\src\IBK\IBK_DRFN\ProjSrc\SrcChartEx\ChartAddIn\ChartAnalysisToolAddIn\Include_Chart\DequeList.h

; 239  : 		m_deque.insert(i, pItem);

  00029	8d 45 fc	 lea	 eax, DWORD PTR _pItem$[ebp]
  0002c	50		 push	 eax
  0002d	83 ec 0c	 sub	 esp, 12			; 0000000cH
  00030	8b c4		 mov	 eax, esp
; File C:\Program Files (x86)\Microsoft Visual Studio\2019\Community\VC\Tools\MSVC\14.29.30133\include\xmemory

; 1113 :     mutable _Iterator_base12* _Mynextiter = nullptr;

  00032	c7 40 04 00 00
	00 00		 mov	 DWORD PTR [eax+4], 0

; 1069 :         _Myproxy = _Right._Myproxy;

  00039	89 10		 mov	 DWORD PTR [eax], edx
  0003b	89 70 08	 mov	 DWORD PTR [eax+8], esi
; File D:\git\src\IBK\IBK_DRFN\ProjSrc\SrcChartEx\ChartAddIn\ChartAnalysisToolAddIn\Include_Chart\DequeList.h

; 239  : 		m_deque.insert(i, pItem);

  0003e	8d 45 f0	 lea	 eax, DWORD PTR $T2[ebp]
  00041	50		 push	 eax
  00042	e8 00 00 00 00	 call	 ?insert@?$deque@PAVCRowSet@@V?$allocator@PAVCRowSet@@@std@@@std@@QAE?AV?$_Deque_iterator@V?$_Deque_val@U?$_Deque_simple_types@PAVCRowSet@@@std@@@std@@@2@V?$_Deque_const_iterator@V?$_Deque_val@U?$_Deque_simple_types@PAVCRowSet@@@std@@@std@@@2@ABQAVCRowSet@@@Z ; std::deque<CRowSet *,std::allocator<CRowSet *> >::insert
; File D:\git\src\IBK\IBK_DRFN\ProjSrc\SrcChartEx\ChartAddIn\ChartAnalysisToolAddIn\AnalysisTool\ColumnSet.cpp

; 131  : 	return true;

  00047	b0 01		 mov	 al, 1

; 132  : }

  00049	5e		 pop	 esi
  0004a	8b e5		 mov	 esp, ebp
  0004c	5d		 pop	 ebp
  0004d	c2 04 00	 ret	 4
$LN3@InsertRowS:

; 126  : 		return false;

  00050	32 c0		 xor	 al, al

; 132  : }

  00052	5e		 pop	 esi
  00053	8b e5		 mov	 esp, ebp
  00055	5d		 pop	 ebp
  00056	c2 04 00	 ret	 4
?InsertRowSet@CColumnSet@@QAE_NH@Z ENDP			; CColumnSet::InsertRowSet
_TEXT	ENDS
; Function compile flags: /Ogtp
; File D:\git\src\IBK\IBK_DRFN\ProjSrc\SrcChartEx\ChartAddIn\ChartAnalysisToolAddIn\AnalysisTool\ColumnSet.cpp
; File C:\Program Files (x86)\Microsoft Visual Studio\2019\Community\VC\Tools\MSVC\14.29.30133\include\deque
; File D:\git\src\IBK\IBK_DRFN\ProjSrc\SrcChartEx\ChartAddIn\ChartAnalysisToolAddIn\Include_Chart\DequeList.h
; File C:\Program Files (x86)\Microsoft Visual Studio\2019\Community\VC\Tools\MSVC\14.29.30133\include\deque
; File D:\git\src\IBK\IBK_DRFN\ProjSrc\SrcChartEx\ChartAddIn\ChartAnalysisToolAddIn\AnalysisTool\ColumnSet.cpp
; File D:\git\src\IBK\IBK_DRFN\ProjSrc\SrcChartEx\ChartAddIn\ChartAnalysisToolAddIn\Include_Chart\DequeList.h
; File D:\git\src\IBK\IBK_DRFN\ProjSrc\SrcChartEx\ChartAddIn\ChartAnalysisToolAddIn\AnalysisTool\ColumnSet.cpp
; File C:\Program Files (x86)\Microsoft Visual Studio\2019\Community\VC\Tools\MSVC\14.29.30133\include\deque
; File D:\git\src\IBK\IBK_DRFN\ProjSrc\SrcChartEx\ChartAddIn\ChartAnalysisToolAddIn\Include_Chart\DequeList.h
; File D:\git\src\IBK\IBK_DRFN\ProjSrc\SrcChartEx\ChartAddIn\ChartAnalysisToolAddIn\AnalysisTool\ColumnSet.cpp
; File C:\Program Files (x86)\Microsoft Visual Studio\2019\Community\VC\Tools\MSVC\14.29.30133\include\deque
; File D:\git\src\IBK\IBK_DRFN\ProjSrc\SrcChartEx\ChartAddIn\ChartAnalysisToolAddIn\AnalysisTool\ColumnSet.cpp
;	COMDAT ?AddElement@CColumnSet@@QAEXHPAVCElement@@@Z
_TEXT	SEGMENT
_pItem$1 = 8						; size = 4
_rowIndex$ = 8						; size = 4
_pElement$ = 12						; size = 4
?AddElement@CColumnSet@@QAEXHPAVCElement@@@Z PROC	; CColumnSet::AddElement, COMDAT
; _this$ = ecx

; 101  : {

  00000	55		 push	 ebp
  00001	8b ec		 mov	 ebp, esp
  00003	83 ec 08	 sub	 esp, 8
  00006	56		 push	 esi

; 102  : 	assert(rowIndex >= 0);
; 103  : 
; 104  : 	if(rowIndex < m_RowSetList.GetCount()){

  00007	8b 75 08	 mov	 esi, DWORD PTR _rowIndex$[ebp]
  0000a	57		 push	 edi
  0000b	8b f9		 mov	 edi, ecx
  0000d	8b 47 14	 mov	 eax, DWORD PTR [edi+20]
  00010	3b f0		 cmp	 esi, eax
  00012	7d 0c		 jge	 SHORT $LN2@AddElement
; File C:\Program Files (x86)\Microsoft Visual Studio\2019\Community\VC\Tools\MSVC\14.29.30133\include\deque

; 1002 :         return _Mysize() == 0;

  00014	85 c0		 test	 eax, eax
; File D:\git\src\IBK\IBK_DRFN\ProjSrc\SrcChartEx\ChartAddIn\ChartAnalysisToolAddIn\Include_Chart\DequeList.h

; 198  : 		if(m_deque.empty())

  00016	74 31		 je	 SHORT $LN66@AddElement
; File C:\Program Files (x86)\Microsoft Visual Studio\2019\Community\VC\Tools\MSVC\14.29.30133\include\deque

; 43   :         : _Mycont(static_cast<const _Mydeque*>(_Pdeque)), _Myoff(_Off) {}

  00018	8b 47 10	 mov	 eax, DWORD PTR [edi+16]

; 78   :         _Myoff += _Off;

  0001b	8d 14 30	 lea	 edx, DWORD PTR [eax+esi]
; File D:\git\src\IBK\IBK_DRFN\ProjSrc\SrcChartEx\ChartAddIn\ChartAnalysisToolAddIn\AnalysisTool\ColumnSet.cpp

; 106  : 		return;

  0001e	eb 43		 jmp	 SHORT $LN65@AddElement
$LN2@AddElement:

; 323  : 	AddRowSet(rowIndex - m_RowSetList.GetCount() +1);

  00020	2b f0		 sub	 esi, eax
  00022	46		 inc	 esi

; 314  : 	for(int i = 0; i < count; i++){

  00023	85 f6		 test	 esi, esi
  00025	7e 1b		 jle	 SHORT $LN35@AddElement
  00027	53		 push	 ebx
$LL36@AddElement:

; 315  : 		CRowSet* pRowSet = CRowSet::Make();

  00028	e8 00 00 00 00	 call	 ?Make@CRowSet@@SAPAV1@XZ ; CRowSet::Make

; 316  : 		m_RowSetList.AddTail(pRowSet);

  0002d	89 45 08	 mov	 DWORD PTR _pItem$1[ebp], eax
; File D:\git\src\IBK\IBK_DRFN\ProjSrc\SrcChartEx\ChartAddIn\ChartAnalysisToolAddIn\Include_Chart\DequeList.h

; 229  : 		m_deque.push_back(pItem);

  00030	8d 4f 04	 lea	 ecx, DWORD PTR [edi+4]
  00033	8d 45 08	 lea	 eax, DWORD PTR _pItem$1[ebp]
  00036	50		 push	 eax
  00037	e8 00 00 00 00	 call	 ?push_back@?$deque@PAVCRowSet@@V?$allocator@PAVCRowSet@@@std@@@std@@QAEXABQAVCRowSet@@@Z ; std::deque<CRowSet *,std::allocator<CRowSet *> >::push_back
; File D:\git\src\IBK\IBK_DRFN\ProjSrc\SrcChartEx\ChartAddIn\ChartAnalysisToolAddIn\AnalysisTool\ColumnSet.cpp

; 314  : 	for(int i = 0; i < count; i++){

  0003c	83 ee 01	 sub	 esi, 1
  0003f	75 e7		 jne	 SHORT $LL36@AddElement
  00041	5b		 pop	 ebx
$LN35@AddElement:
; File C:\Program Files (x86)\Microsoft Visual Studio\2019\Community\VC\Tools\MSVC\14.29.30133\include\deque

; 1002 :         return _Mysize() == 0;

  00042	8b 4f 14	 mov	 ecx, DWORD PTR [edi+20]
  00045	85 c9		 test	 ecx, ecx
; File D:\git\src\IBK\IBK_DRFN\ProjSrc\SrcChartEx\ChartAddIn\ChartAnalysisToolAddIn\Include_Chart\DequeList.h

; 191  : 		if(m_deque.empty())

  00047	75 12		 jne	 SHORT $LN41@AddElement
$LN66@AddElement:
; File D:\git\src\IBK\IBK_DRFN\ProjSrc\SrcChartEx\ChartAddIn\ChartAnalysisToolAddIn\AnalysisTool\ColumnSet.cpp

; 110  : }

  00049	ff 75 0c	 push	 DWORD PTR _pElement$[ebp]
  0004c	33 c9		 xor	 ecx, ecx
  0004e	e8 00 00 00 00	 call	 ?AddElement@CRowSet@@QAEXPAVCElement@@@Z ; CRowSet::AddElement
  00053	5f		 pop	 edi
  00054	5e		 pop	 esi
  00055	8b e5		 mov	 esp, ebp
  00057	5d		 pop	 ebp
  00058	c2 08 00	 ret	 8
$LN41@AddElement:
; File C:\Program Files (x86)\Microsoft Visual Studio\2019\Community\VC\Tools\MSVC\14.29.30133\include\deque

; 917  :         return _Unchecked_const_iterator(_Myoff() + _Mysize(), _STD addressof(_Get_data()));

  0005b	8b 47 10	 mov	 eax, DWORD PTR [edi+16]
  0005e	03 c1		 add	 eax, ecx

; 67   :         --_Myoff;

  00060	8d 50 ff	 lea	 edx, DWORD PTR [eax-1]
$LN65@AddElement:
; File D:\git\src\IBK\IBK_DRFN\ProjSrc\SrcChartEx\ChartAddIn\ChartAnalysisToolAddIn\AnalysisTool\ColumnSet.cpp

; 110  : }

  00063	8b 47 0c	 mov	 eax, DWORD PTR [edi+12]
  00066	8b ca		 mov	 ecx, edx
  00068	ff 75 0c	 push	 DWORD PTR _pElement$[ebp]
  0006b	48		 dec	 eax
  0006c	c1 e9 02	 shr	 ecx, 2
  0006f	23 c8		 and	 ecx, eax
  00071	83 e2 03	 and	 edx, 3
  00074	8b 47 08	 mov	 eax, DWORD PTR [edi+8]
  00077	8b 04 88	 mov	 eax, DWORD PTR [eax+ecx*4]
  0007a	8b 0c 90	 mov	 ecx, DWORD PTR [eax+edx*4]
  0007d	e8 00 00 00 00	 call	 ?AddElement@CRowSet@@QAEXPAVCElement@@@Z ; CRowSet::AddElement
  00082	5f		 pop	 edi
  00083	5e		 pop	 esi
  00084	8b e5		 mov	 esp, ebp
  00086	5d		 pop	 ebp
  00087	c2 08 00	 ret	 8
?AddElement@CColumnSet@@QAEXHPAVCElement@@@Z ENDP	; CColumnSet::AddElement
_TEXT	ENDS
; Function compile flags: /Ogtp
; File D:\git\src\IBK\IBK_DRFN\ProjSrc\SrcChartEx\ChartAddIn\ChartAnalysisToolAddIn\AnalysisTool\ColumnSet.cpp
; File D:\git\src\IBK\IBK_DRFN\ProjSrc\SrcChartEx\ChartAddIn\ChartAnalysisToolAddIn\Include_Chart\DequeList.h
; File D:\git\src\IBK\IBK_DRFN\ProjSrc\SrcChartEx\ChartAddIn\ChartAnalysisToolAddIn\AnalysisTool\ColumnSet.cpp
;	COMDAT ?AddRowSet@CColumnSet@@QAE_NXZ
_TEXT	SEGMENT
_pItem$ = -4						; size = 4
?AddRowSet@CColumnSet@@QAE_NXZ PROC			; CColumnSet::AddRowSet, COMDAT
; _this$ = ecx

; 115  : {	

  00000	55		 push	 ebp
  00001	8b ec		 mov	 ebp, esp
  00003	51		 push	 ecx
  00004	56		 push	 esi
  00005	8b f1		 mov	 esi, ecx

; 116  : 	CRowSet* pRowSet = CRowSet::Make();

  00007	e8 00 00 00 00	 call	 ?Make@CRowSet@@SAPAV1@XZ ; CRowSet::Make

; 117  : 	assert(pRowSet != NULL);
; 118  : 	m_RowSetList.AddTail(pRowSet);

  0000c	89 45 fc	 mov	 DWORD PTR _pItem$[ebp], eax
; File D:\git\src\IBK\IBK_DRFN\ProjSrc\SrcChartEx\ChartAddIn\ChartAnalysisToolAddIn\Include_Chart\DequeList.h

; 229  : 		m_deque.push_back(pItem);

  0000f	8d 4e 04	 lea	 ecx, DWORD PTR [esi+4]
  00012	8d 45 fc	 lea	 eax, DWORD PTR _pItem$[ebp]
  00015	50		 push	 eax
  00016	e8 00 00 00 00	 call	 ?push_back@?$deque@PAVCRowSet@@V?$allocator@PAVCRowSet@@@std@@@std@@QAEXABQAVCRowSet@@@Z ; std::deque<CRowSet *,std::allocator<CRowSet *> >::push_back
; File D:\git\src\IBK\IBK_DRFN\ProjSrc\SrcChartEx\ChartAddIn\ChartAnalysisToolAddIn\AnalysisTool\ColumnSet.cpp

; 119  : 	return true;

  0001b	b0 01		 mov	 al, 1
  0001d	5e		 pop	 esi

; 120  : }

  0001e	8b e5		 mov	 esp, ebp
  00020	5d		 pop	 ebp
  00021	c3		 ret	 0
?AddRowSet@CColumnSet@@QAE_NXZ ENDP			; CColumnSet::AddRowSet
_TEXT	ENDS
; Function compile flags: /Ogtp
; File D:\git\src\IBK\IBK_DRFN\ProjSrc\SrcChartEx\ChartAddIn\ChartAnalysisToolAddIn\AnalysisTool\ColumnSet.cpp
; File C:\Program Files (x86)\Microsoft Visual Studio\2019\Community\VC\Tools\MSVC\14.29.30133\include\deque
; File D:\git\src\IBK\IBK_DRFN\ProjSrc\SrcChartEx\ChartAddIn\ChartAnalysisToolAddIn\Include_Chart\DequeList.h
; File D:\git\src\IBK\IBK_DRFN\ProjSrc\SrcChartEx\ChartAddIn\ChartAnalysisToolAddIn\AnalysisTool\ColumnSet.cpp
; File D:\git\src\IBK\IBK_DRFN\ProjSrc\SrcChartEx\ChartAddIn\ChartAnalysisToolAddIn\Include_Chart\DequeList.h
; File D:\git\src\IBK\IBK_DRFN\ProjSrc\SrcChartEx\ChartAddIn\ChartAnalysisToolAddIn\AnalysisTool\ColumnSet.cpp
; File C:\Program Files (x86)\Microsoft Visual Studio\2019\Community\VC\Tools\MSVC\14.29.30133\include\deque
; File D:\git\src\IBK\IBK_DRFN\ProjSrc\SrcChartEx\ChartAddIn\ChartAnalysisToolAddIn\AnalysisTool\ColumnSet.cpp
; File C:\Program Files (x86)\Microsoft Visual Studio\2019\Community\VC\Tools\MSVC\14.29.30133\include\deque
; File D:\git\src\IBK\IBK_DRFN\ProjSrc\SrcChartEx\ChartAddIn\ChartAnalysisToolAddIn\Include_Chart\DequeList.h
; File D:\git\src\IBK\IBK_DRFN\ProjSrc\SrcChartEx\ChartAddIn\ChartAnalysisToolAddIn\AnalysisTool\ColumnSet.cpp
;	COMDAT ?GetElementList@CColumnSet@@QAEXHAAV?$CDequePointerList@VCElement@@@@@Z
_TEXT	SEGMENT
_rowIndex$ = 8						; size = 4
_elementList$ = 12					; size = 4
?GetElementList@CColumnSet@@QAEXHAAV?$CDequePointerList@VCElement@@@@@Z PROC ; CColumnSet::GetElementList, COMDAT
; _this$ = ecx

; 89   : {

  00000	55		 push	 ebp
  00001	8b ec		 mov	 ebp, esp
  00003	83 ec 08	 sub	 esp, 8
  00006	56		 push	 esi
  00007	8b f1		 mov	 esi, ecx

; 90   : 	if(rowIndex < 0 || rowIndex >= m_RowSetList.GetCount())

  00009	8b 4d 08	 mov	 ecx, DWORD PTR _rowIndex$[ebp]
  0000c	85 c9		 test	 ecx, ecx
  0000e	78 41		 js	 SHORT $LN3@GetElement
  00010	3b 4e 14	 cmp	 ecx, DWORD PTR [esi+20]
  00013	7d 3c		 jge	 SHORT $LN3@GetElement
; File C:\Program Files (x86)\Microsoft Visual Studio\2019\Community\VC\Tools\MSVC\14.29.30133\include\deque

; 1002 :         return _Mysize() == 0;

  00015	83 7e 14 00	 cmp	 DWORD PTR [esi+20], 0
; File D:\git\src\IBK\IBK_DRFN\ProjSrc\SrcChartEx\ChartAddIn\ChartAnalysisToolAddIn\Include_Chart\DequeList.h

; 198  : 		if(m_deque.empty())

  00019	75 11		 jne	 SHORT $LN6@GetElement
; File D:\git\src\IBK\IBK_DRFN\ProjSrc\SrcChartEx\ChartAddIn\ChartAnalysisToolAddIn\AnalysisTool\ColumnSet.cpp

; 95   : 	pRowSet->GetElementList(elementList);

  0001b	ff 75 0c	 push	 DWORD PTR _elementList$[ebp]
; File D:\git\src\IBK\IBK_DRFN\ProjSrc\SrcChartEx\ChartAddIn\ChartAnalysisToolAddIn\Include_Chart\DequeList.h

; 199  : 			return NULL;

  0001e	33 c9		 xor	 ecx, ecx
; File D:\git\src\IBK\IBK_DRFN\ProjSrc\SrcChartEx\ChartAddIn\ChartAnalysisToolAddIn\AnalysisTool\ColumnSet.cpp

; 95   : 	pRowSet->GetElementList(elementList);

  00020	e8 00 00 00 00	 call	 ?GetElementList@CRowSet@@QAEXAAV?$CDequePointerList@VCElement@@@@@Z ; CRowSet::GetElementList
  00025	5e		 pop	 esi

; 96   : }

  00026	8b e5		 mov	 esp, ebp
  00028	5d		 pop	 ebp
  00029	c2 08 00	 ret	 8
$LN6@GetElement:
; File C:\Program Files (x86)\Microsoft Visual Studio\2019\Community\VC\Tools\MSVC\14.29.30133\include\deque

; 43   :         : _Mycont(static_cast<const _Mydeque*>(_Pdeque)), _Myoff(_Off) {}

  0002c	8b 46 10	 mov	 eax, DWORD PTR [esi+16]
; File D:\git\src\IBK\IBK_DRFN\ProjSrc\SrcChartEx\ChartAddIn\ChartAnalysisToolAddIn\AnalysisTool\ColumnSet.cpp

; 95   : 	pRowSet->GetElementList(elementList);

  0002f	ff 75 0c	 push	 DWORD PTR _elementList$[ebp]
; File C:\Program Files (x86)\Microsoft Visual Studio\2019\Community\VC\Tools\MSVC\14.29.30133\include\deque

; 78   :         _Myoff += _Off;

  00032	8d 14 08	 lea	 edx, DWORD PTR [eax+ecx]

; 559  :         return (_Off / _Block_size) & (_Mapsize - 1);

  00035	8b 46 0c	 mov	 eax, DWORD PTR [esi+12]

; 78   :         _Myoff += _Off;

  00038	8b ca		 mov	 ecx, edx

; 559  :         return (_Off / _Block_size) & (_Mapsize - 1);

  0003a	48		 dec	 eax

; 78   :         _Myoff += _Off;

  0003b	c1 e9 02	 shr	 ecx, 2

; 48   :         return _Mycont->_Map[_Block][_Off];

  0003e	83 e2 03	 and	 edx, 3

; 559  :         return (_Off / _Block_size) & (_Mapsize - 1);

  00041	23 c8		 and	 ecx, eax
; File D:\git\src\IBK\IBK_DRFN\ProjSrc\SrcChartEx\ChartAddIn\ChartAnalysisToolAddIn\Include_Chart\DequeList.h

; 201  : 		return m_deque[nIndex];

  00043	8b 46 08	 mov	 eax, DWORD PTR [esi+8]
  00046	8b 04 88	 mov	 eax, DWORD PTR [eax+ecx*4]
  00049	8b 0c 90	 mov	 ecx, DWORD PTR [eax+edx*4]
; File D:\git\src\IBK\IBK_DRFN\ProjSrc\SrcChartEx\ChartAddIn\ChartAnalysisToolAddIn\AnalysisTool\ColumnSet.cpp

; 95   : 	pRowSet->GetElementList(elementList);

  0004c	e8 00 00 00 00	 call	 ?GetElementList@CRowSet@@QAEXAAV?$CDequePointerList@VCElement@@@@@Z ; CRowSet::GetElementList
$LN3@GetElement:
  00051	5e		 pop	 esi

; 96   : }

  00052	8b e5		 mov	 esp, ebp
  00054	5d		 pop	 ebp
  00055	c2 08 00	 ret	 8
?GetElementList@CColumnSet@@QAEXHAAV?$CDequePointerList@VCElement@@@@@Z ENDP ; CColumnSet::GetElementList
_TEXT	ENDS
; Function compile flags: /Ogtp
; File D:\git\src\IBK\IBK_DRFN\ProjSrc\SrcChartEx\ChartAddIn\ChartAnalysisToolAddIn\AnalysisTool\ColumnSet.cpp
; File D:\git\src\IBK\IBK_DRFN\ProjSrc\SrcChartEx\ChartAddIn\ChartAnalysisToolAddIn\Include_Chart\DequeList.h
; File C:\Program Files (x86)\Microsoft Visual Studio\2019\Community\VC\Tools\MSVC\14.29.30133\include\deque
; File D:\git\src\IBK\IBK_DRFN\ProjSrc\SrcChartEx\ChartAddIn\ChartAnalysisToolAddIn\Include_Chart\DequeList.h
; File D:\git\src\IBK\IBK_DRFN\ProjSrc\SrcChartEx\ChartAddIn\ChartAnalysisToolAddIn\AnalysisTool\ColumnSet.cpp
; File C:\Program Files (x86)\Microsoft Visual Studio\2019\Community\VC\Tools\MSVC\14.29.30133\atlmfc\include\cstringt.h
; File D:\git\src\IBK\IBK_DRFN\ProjSrc\SrcChartEx\ChartAddIn\ChartAnalysisToolAddIn\AnalysisTool\ColumnSet.cpp
; File C:\Program Files (x86)\Microsoft Visual Studio\2019\Community\VC\Tools\MSVC\14.29.30133\atlmfc\include\cstringt.h
; File D:\git\src\IBK\IBK_DRFN\ProjSrc\SrcChartEx\ChartAddIn\ChartAnalysisToolAddIn\AnalysisTool\ColumnSet.cpp
;	COMDAT ?GetSavedElementsData@CColumnSet@@QBE?AV?$CStringT@DV?$StrTraitMFC_DLL@DV?$ChTraitsCRT@D@ATL@@@@@ATL@@ABVCOrder@@@Z
_TEXT	SEGMENT
$T2 = -20						; size = 4
_savedElementsData$ = -16				; size = 4
__$EHRec$ = -12						; size = 12
___$ReturnUdt$ = 8					; size = 4
$T3 = 12						; size = 4
_order$ = 12						; size = 4
?GetSavedElementsData@CColumnSet@@QBE?AV?$CStringT@DV?$StrTraitMFC_DLL@DV?$ChTraitsCRT@D@ATL@@@@@ATL@@ABVCOrder@@@Z PROC ; CColumnSet::GetSavedElementsData, COMDAT
; _this$ = ecx

; 76   : {

  00000	55		 push	 ebp
  00001	8b ec		 mov	 ebp, esp
  00003	6a ff		 push	 -1
  00005	68 00 00 00 00	 push	 __ehhandler$?GetSavedElementsData@CColumnSet@@QBE?AV?$CStringT@DV?$StrTraitMFC_DLL@DV?$ChTraitsCRT@D@ATL@@@@@ATL@@ABVCOrder@@@Z
  0000a	64 a1 00 00 00
	00		 mov	 eax, DWORD PTR fs:0
  00010	50		 push	 eax
  00011	83 ec 10	 sub	 esp, 16			; 00000010H
  00014	53		 push	 ebx
  00015	56		 push	 esi
  00016	57		 push	 edi
  00017	a1 00 00 00 00	 mov	 eax, DWORD PTR ___security_cookie
  0001c	33 c5		 xor	 eax, ebp
  0001e	50		 push	 eax
  0001f	8d 45 f4	 lea	 eax, DWORD PTR __$EHRec$[ebp]
  00022	64 a3 00 00 00
	00		 mov	 DWORD PTR fs:0, eax
  00028	8b f1		 mov	 esi, ecx

; 77   : 	CString savedElementsData("<Column>\r\n");

  0002a	68 00 00 00 00	 push	 OFFSET ??_C@_0L@JOAAOIF@?$DMColumn?$DO?$AN?6@
  0002f	8d 4d f0	 lea	 ecx, DWORD PTR _savedElementsData$[ebp]
  00032	c7 45 ec 00 00
	00 00		 mov	 DWORD PTR $T2[ebp], 0
  00039	ff 15 00 00 00
	00		 call	 DWORD PTR __imp_??0?$CStringT@DV?$StrTraitMFC_DLL@DV?$ChTraitsCRT@D@ATL@@@@@ATL@@QAE@PBD@Z

; 78   : 	for(int nIndex = 0; nIndex < m_RowSetList.GetCount(); nIndex++){

  0003f	33 ff		 xor	 edi, edi
  00041	c7 45 fc 00 00
	00 00		 mov	 DWORD PTR __$EHRec$[ebp+8], 0
  00048	39 7e 14	 cmp	 DWORD PTR [esi+20], edi
  0004b	7e 55		 jle	 SHORT $LN3@GetSavedEl

; 79   : 		CRowSet* pRowSet = m_RowSetList.GetAt(nIndex);

  0004d	8b 5d 0c	 mov	 ebx, DWORD PTR _order$[ebp]
$LL4@GetSavedEl:
; File D:\git\src\IBK\IBK_DRFN\ProjSrc\SrcChartEx\ChartAddIn\ChartAnalysisToolAddIn\Include_Chart\DequeList.h

; 205  : 		if(m_deque.empty())

  00050	83 7e 14 00	 cmp	 DWORD PTR [esi+20], 0
  00054	75 04		 jne	 SHORT $LN11@GetSavedEl

; 206  : 			return NULL;

  00056	33 c9		 xor	 ecx, ecx
  00058	eb 1d		 jmp	 SHORT $LN10@GetSavedEl
$LN11@GetSavedEl:
; File C:\Program Files (x86)\Microsoft Visual Studio\2019\Community\VC\Tools\MSVC\14.29.30133\include\deque

; 909  :         return _Unchecked_const_iterator(_Myoff(), _STD addressof(_Get_data()));

  0005a	8b 46 10	 mov	 eax, DWORD PTR [esi+16]

; 559  :         return (_Off / _Block_size) & (_Mapsize - 1);

  0005d	8b 4e 0c	 mov	 ecx, DWORD PTR [esi+12]
  00060	49		 dec	 ecx

; 78   :         _Myoff += _Off;

  00061	8d 14 38	 lea	 edx, DWORD PTR [eax+edi]

; 559  :         return (_Off / _Block_size) & (_Mapsize - 1);

  00064	8b c2		 mov	 eax, edx
  00066	c1 e8 02	 shr	 eax, 2
  00069	23 c8		 and	 ecx, eax

; 48   :         return _Mycont->_Map[_Block][_Off];

  0006b	8b 46 08	 mov	 eax, DWORD PTR [esi+8]

; 559  :         return (_Off / _Block_size) & (_Mapsize - 1);

  0006e	83 e2 03	 and	 edx, 3

; 48   :         return _Mycont->_Map[_Block][_Off];

  00071	8b 04 88	 mov	 eax, DWORD PTR [eax+ecx*4]
; File D:\git\src\IBK\IBK_DRFN\ProjSrc\SrcChartEx\ChartAddIn\ChartAnalysisToolAddIn\Include_Chart\DequeList.h

; 208  : 		return m_deque[nIndex];

  00074	8b 0c 90	 mov	 ecx, DWORD PTR [eax+edx*4]
$LN10@GetSavedEl:
; File D:\git\src\IBK\IBK_DRFN\ProjSrc\SrcChartEx\ChartAddIn\ChartAnalysisToolAddIn\AnalysisTool\ColumnSet.cpp

; 81   : 		savedElementsData += pRowSet->GetSavedElementsData(order);

  00077	53		 push	 ebx
  00078	8d 45 0c	 lea	 eax, DWORD PTR $T3[ebp]
  0007b	50		 push	 eax
  0007c	e8 00 00 00 00	 call	 ?GetSavedElementsData@CRowSet@@QBE?AV?$CStringT@DV?$StrTraitMFC_DLL@DV?$ChTraitsCRT@D@ATL@@@@@ATL@@ABVCOrder@@@Z ; CRowSet::GetSavedElementsData
  00081	50		 push	 eax
  00082	8d 4d f0	 lea	 ecx, DWORD PTR _savedElementsData$[ebp]
  00085	c6 45 fc 01	 mov	 BYTE PTR __$EHRec$[ebp+8], 1
  00089	ff 15 00 00 00
	00		 call	 DWORD PTR __imp_??Y?$CStringT@DV?$StrTraitMFC_DLL@DV?$ChTraitsCRT@D@ATL@@@@@ATL@@QAEAAV01@ABV?$CSimpleStringT@D$00@1@@Z
  0008f	8d 4d 0c	 lea	 ecx, DWORD PTR $T3[ebp]
  00092	c6 45 fc 00	 mov	 BYTE PTR __$EHRec$[ebp+8], 0
  00096	ff 15 00 00 00
	00		 call	 DWORD PTR __imp_??1?$CStringT@DV?$StrTraitMFC_DLL@DV?$ChTraitsCRT@D@ATL@@@@@ATL@@QAE@XZ
  0009c	47		 inc	 edi
  0009d	3b 7e 14	 cmp	 edi, DWORD PTR [esi+20]
  000a0	7c ae		 jl	 SHORT $LL4@GetSavedEl
$LN3@GetSavedEl:
; File C:\Program Files (x86)\Microsoft Visual Studio\2019\Community\VC\Tools\MSVC\14.29.30133\atlmfc\include\cstringt.h

; 2401 : 		CStringT strResult( str1.GetManager() );

  000a2	8d 4d f0	 lea	 ecx, DWORD PTR _savedElementsData$[ebp]
; File D:\git\src\IBK\IBK_DRFN\ProjSrc\SrcChartEx\ChartAddIn\ChartAnalysisToolAddIn\AnalysisTool\ColumnSet.cpp

; 84   : 	return savedElementsData + "<\\Column>\r\n";

  000a5	c6 45 fc 02	 mov	 BYTE PTR __$EHRec$[ebp+8], 2
; File C:\Program Files (x86)\Microsoft Visual Studio\2019\Community\VC\Tools\MSVC\14.29.30133\atlmfc\include\cstringt.h

; 2401 : 		CStringT strResult( str1.GetManager() );

  000a9	ff 15 00 00 00
	00		 call	 DWORD PTR __imp_?GetManager@?$CStringT@DV?$StrTraitMFC_DLL@DV?$ChTraitsCRT@D@ATL@@@@@ATL@@QBEPAUIAtlStringMgr@2@XZ
  000af	8b 75 08	 mov	 esi, DWORD PTR ___$ReturnUdt$[ebp]
  000b2	8b ce		 mov	 ecx, esi
  000b4	50		 push	 eax
  000b5	ff 15 00 00 00
	00		 call	 DWORD PTR __imp_??0?$CStringT@DV?$StrTraitMFC_DLL@DV?$ChTraitsCRT@D@ATL@@@@@ATL@@QAE@PAUIAtlStringMgr@1@@Z

; 2402 : 
; 2403 : 		CThisSimpleString::Concatenate( strResult, str1, str1.GetLength(), psz2, CThisSimpleString::StringLength( psz2 ) );

  000bb	8b 4d f0	 mov	 ecx, DWORD PTR _savedElementsData$[ebp]
  000be	6a 0b		 push	 11			; 0000000bH
  000c0	68 00 00 00 00	 push	 OFFSET ??_C@_0M@FIEFJELL@?$DM?2Column?$DO?$AN?6@

; 2404 : 
; 2405 : 		return( strResult );

  000c5	c7 45 ec 02 00
	00 00		 mov	 DWORD PTR $T2[ebp], 2
  000cc	ff 71 f4	 push	 DWORD PTR [ecx-12]
  000cf	51		 push	 ecx
  000d0	56		 push	 esi
  000d1	ff 15 00 00 00
	00		 call	 DWORD PTR __imp_?Concatenate@?$CSimpleStringT@D$00@ATL@@KAXAAV12@PBDH1H@Z
  000d7	83 c4 14	 add	 esp, 20			; 00000014H
; File D:\git\src\IBK\IBK_DRFN\ProjSrc\SrcChartEx\ChartAddIn\ChartAnalysisToolAddIn\AnalysisTool\ColumnSet.cpp

; 84   : 	return savedElementsData + "<\\Column>\r\n";

  000da	8d 4d f0	 lea	 ecx, DWORD PTR _savedElementsData$[ebp]
  000dd	ff 15 00 00 00
	00		 call	 DWORD PTR __imp_??1?$CStringT@DV?$StrTraitMFC_DLL@DV?$ChTraitsCRT@D@ATL@@@@@ATL@@QAE@XZ
  000e3	8b c6		 mov	 eax, esi

; 85   : }

  000e5	8b 4d f4	 mov	 ecx, DWORD PTR __$EHRec$[ebp]
  000e8	64 89 0d 00 00
	00 00		 mov	 DWORD PTR fs:0, ecx
  000ef	59		 pop	 ecx
  000f0	5f		 pop	 edi
  000f1	5e		 pop	 esi
  000f2	5b		 pop	 ebx
  000f3	8b e5		 mov	 esp, ebp
  000f5	5d		 pop	 ebp
  000f6	c2 08 00	 ret	 8
_TEXT	ENDS
;	COMDAT text$x
text$x	SEGMENT
__unwindfunclet$?GetSavedElementsData@CColumnSet@@QBE?AV?$CStringT@DV?$StrTraitMFC_DLL@DV?$ChTraitsCRT@D@ATL@@@@@ATL@@ABVCOrder@@@Z$0:
  00000	8d 4d f0	 lea	 ecx, DWORD PTR _savedElementsData$[ebp]
  00003	ff 25 00 00 00
	00		 jmp	 DWORD PTR __imp_??1?$CStringT@DV?$StrTraitMFC_DLL@DV?$ChTraitsCRT@D@ATL@@@@@ATL@@QAE@XZ
__unwindfunclet$?GetSavedElementsData@CColumnSet@@QBE?AV?$CStringT@DV?$StrTraitMFC_DLL@DV?$ChTraitsCRT@D@ATL@@@@@ATL@@ABVCOrder@@@Z$1:
  00009	8d 4d 0c	 lea	 ecx, DWORD PTR $T3[ebp]
  0000c	ff 25 00 00 00
	00		 jmp	 DWORD PTR __imp_??1?$CStringT@DV?$StrTraitMFC_DLL@DV?$ChTraitsCRT@D@ATL@@@@@ATL@@QAE@XZ
__unwindfunclet$?GetSavedElementsData@CColumnSet@@QBE?AV?$CStringT@DV?$StrTraitMFC_DLL@DV?$ChTraitsCRT@D@ATL@@@@@ATL@@ABVCOrder@@@Z$3:
  00012	8b 45 ec	 mov	 eax, DWORD PTR $T2[ebp]
  00015	83 e0 02	 and	 eax, 2
  00018	0f 84 0d 00 00
	00		 je	 $LN32@GetSavedEl
  0001e	83 65 ec fd	 and	 DWORD PTR $T2[ebp], -3	; fffffffdH
  00022	8b 4d 08	 mov	 ecx, DWORD PTR ___$ReturnUdt$[ebp]
  00025	ff 25 00 00 00
	00		 jmp	 DWORD PTR __imp_??1?$CStringT@DV?$StrTraitMFC_DLL@DV?$ChTraitsCRT@D@ATL@@@@@ATL@@QAE@XZ
$LN32@GetSavedEl:
  0002b	c3		 ret	 0
  0002c	cc		 int	 3
  0002d	cc		 int	 3
  0002e	cc		 int	 3
  0002f	cc		 int	 3
  00030	cc		 int	 3
__ehhandler$?GetSavedElementsData@CColumnSet@@QBE?AV?$CStringT@DV?$StrTraitMFC_DLL@DV?$ChTraitsCRT@D@ATL@@@@@ATL@@ABVCOrder@@@Z:
  00031	90		 npad	 1
  00032	90		 npad	 1
  00033	8b 54 24 08	 mov	 edx, DWORD PTR [esp+8]
  00037	8d 42 0c	 lea	 eax, DWORD PTR [edx+12]
  0003a	8b 4a e0	 mov	 ecx, DWORD PTR [edx-32]
  0003d	33 c8		 xor	 ecx, eax
  0003f	e8 00 00 00 00	 call	 @__security_check_cookie@4
  00044	b8 00 00 00 00	 mov	 eax, OFFSET __ehfuncinfo$?GetSavedElementsData@CColumnSet@@QBE?AV?$CStringT@DV?$StrTraitMFC_DLL@DV?$ChTraitsCRT@D@ATL@@@@@ATL@@ABVCOrder@@@Z
  00049	e9 00 00 00 00	 jmp	 ___CxxFrameHandler3
text$x	ENDS
?GetSavedElementsData@CColumnSet@@QBE?AV?$CStringT@DV?$StrTraitMFC_DLL@DV?$ChTraitsCRT@D@ATL@@@@@ATL@@ABVCOrder@@@Z ENDP ; CColumnSet::GetSavedElementsData
; Function compile flags: /Ogtp
; File D:\git\src\IBK\IBK_DRFN\ProjSrc\SrcChartEx\ChartAddIn\ChartAnalysisToolAddIn\AnalysisTool\ColumnSet.cpp
; File C:\Program Files (x86)\Microsoft Visual Studio\2019\Community\VC\Tools\MSVC\14.29.30133\include\deque
; File D:\git\src\IBK\IBK_DRFN\ProjSrc\SrcChartEx\ChartAddIn\ChartAnalysisToolAddIn\Include_Chart\DequeList.h
; File C:\Program Files (x86)\Microsoft Visual Studio\2019\Community\VC\Tools\MSVC\14.29.30133\include\deque
; File D:\git\src\IBK\IBK_DRFN\ProjSrc\SrcChartEx\ChartAddIn\ChartAnalysisToolAddIn\Include_Chart\DequeList.h
; File C:\Program Files (x86)\Microsoft Visual Studio\2019\Community\VC\Tools\MSVC\14.29.30133\include\deque
; File D:\git\src\IBK\IBK_DRFN\ProjSrc\SrcChartEx\ChartAddIn\ChartAnalysisToolAddIn\Include_Chart\DequeList.h
; File D:\git\src\IBK\IBK_DRFN\ProjSrc\SrcChartEx\ChartAddIn\ChartAnalysisToolAddIn\AnalysisTool\ColumnSet.cpp
;	COMDAT ?ChangeAllElementsThick@CColumnSet@@QAEXHH@Z
_TEXT	SEGMENT
_nElementType$ = 8					; size = 4
_nNewWidth$ = 12					; size = 4
?ChangeAllElementsThick@CColumnSet@@QAEXHH@Z PROC	; CColumnSet::ChangeAllElementsThick, COMDAT
; _this$ = ecx

; 65   : {

  00000	55		 push	 ebp
  00001	8b ec		 mov	 ebp, esp
  00003	83 ec 08	 sub	 esp, 8
  00006	56		 push	 esi
  00007	8b f1		 mov	 esi, ecx
  00009	57		 push	 edi

; 66   : 	for(int rowIndex = 0; rowIndex < m_RowSetList.GetCount(); rowIndex++)

  0000a	33 ff		 xor	 edi, edi
  0000c	39 7e 14	 cmp	 DWORD PTR [esi+20], edi
  0000f	7e 3b		 jle	 SHORT $LN3@ChangeAllE

; 67   : 	{
; 68   : 		CRowSet* pRowSet = m_RowSetList.GetAt(rowIndex);

  00011	53		 push	 ebx
  00012	8b 5d 0c	 mov	 ebx, DWORD PTR _nNewWidth$[ebp]
$LL4@ChangeAllE:
; File C:\Program Files (x86)\Microsoft Visual Studio\2019\Community\VC\Tools\MSVC\14.29.30133\include\deque

; 1002 :         return _Mysize() == 0;

  00015	83 7e 14 00	 cmp	 DWORD PTR [esi+20], 0
; File D:\git\src\IBK\IBK_DRFN\ProjSrc\SrcChartEx\ChartAddIn\ChartAnalysisToolAddIn\Include_Chart\DequeList.h

; 198  : 		if(m_deque.empty())

  00019	75 04		 jne	 SHORT $LN7@ChangeAllE

; 199  : 			return NULL;

  0001b	33 c9		 xor	 ecx, ecx
  0001d	eb 1d		 jmp	 SHORT $LN6@ChangeAllE
$LN7@ChangeAllE:
; File C:\Program Files (x86)\Microsoft Visual Studio\2019\Community\VC\Tools\MSVC\14.29.30133\include\deque

; 43   :         : _Mycont(static_cast<const _Mydeque*>(_Pdeque)), _Myoff(_Off) {}

  0001f	8b 46 10	 mov	 eax, DWORD PTR [esi+16]

; 78   :         _Myoff += _Off;

  00022	8d 14 38	 lea	 edx, DWORD PTR [eax+edi]

; 559  :         return (_Off / _Block_size) & (_Mapsize - 1);

  00025	8b 46 0c	 mov	 eax, DWORD PTR [esi+12]

; 78   :         _Myoff += _Off;

  00028	8b ca		 mov	 ecx, edx

; 559  :         return (_Off / _Block_size) & (_Mapsize - 1);

  0002a	48		 dec	 eax

; 78   :         _Myoff += _Off;

  0002b	c1 e9 02	 shr	 ecx, 2

; 559  :         return (_Off / _Block_size) & (_Mapsize - 1);

  0002e	23 c8		 and	 ecx, eax
; File D:\git\src\IBK\IBK_DRFN\ProjSrc\SrcChartEx\ChartAddIn\ChartAnalysisToolAddIn\Include_Chart\DequeList.h

; 201  : 		return m_deque[nIndex];

  00030	8b 46 08	 mov	 eax, DWORD PTR [esi+8]
; File C:\Program Files (x86)\Microsoft Visual Studio\2019\Community\VC\Tools\MSVC\14.29.30133\include\deque

; 48   :         return _Mycont->_Map[_Block][_Off];

  00033	83 e2 03	 and	 edx, 3
; File D:\git\src\IBK\IBK_DRFN\ProjSrc\SrcChartEx\ChartAddIn\ChartAnalysisToolAddIn\Include_Chart\DequeList.h

; 201  : 		return m_deque[nIndex];

  00036	8b 04 88	 mov	 eax, DWORD PTR [eax+ecx*4]
  00039	8b 0c 90	 mov	 ecx, DWORD PTR [eax+edx*4]
$LN6@ChangeAllE:
; File D:\git\src\IBK\IBK_DRFN\ProjSrc\SrcChartEx\ChartAddIn\ChartAnalysisToolAddIn\AnalysisTool\ColumnSet.cpp

; 70   : 		pRowSet->ChangeAllElementsThick(nElementType, nNewWidth);

  0003c	53		 push	 ebx
  0003d	ff 75 08	 push	 DWORD PTR _nElementType$[ebp]
  00040	e8 00 00 00 00	 call	 ?ChangeAllElementsThick@CRowSet@@QAEXHH@Z ; CRowSet::ChangeAllElementsThick
  00045	47		 inc	 edi
  00046	3b 7e 14	 cmp	 edi, DWORD PTR [esi+20]
  00049	7c ca		 jl	 SHORT $LL4@ChangeAllE
  0004b	5b		 pop	 ebx
$LN3@ChangeAllE:
  0004c	5f		 pop	 edi

; 71   : 	}
; 72   : }

  0004d	5e		 pop	 esi
  0004e	8b e5		 mov	 esp, ebp
  00050	5d		 pop	 ebp
  00051	c2 08 00	 ret	 8
?ChangeAllElementsThick@CColumnSet@@QAEXHH@Z ENDP	; CColumnSet::ChangeAllElementsThick
_TEXT	ENDS
; Function compile flags: /Ogtp
; File D:\git\src\IBK\IBK_DRFN\ProjSrc\SrcChartEx\ChartAddIn\ChartAnalysisToolAddIn\AnalysisTool\ColumnSet.cpp
; File C:\Program Files (x86)\Microsoft Visual Studio\2019\Community\VC\Tools\MSVC\14.29.30133\include\deque
; File D:\git\src\IBK\IBK_DRFN\ProjSrc\SrcChartEx\ChartAddIn\ChartAnalysisToolAddIn\Include_Chart\DequeList.h
; File C:\Program Files (x86)\Microsoft Visual Studio\2019\Community\VC\Tools\MSVC\14.29.30133\include\deque
; File D:\git\src\IBK\IBK_DRFN\ProjSrc\SrcChartEx\ChartAddIn\ChartAnalysisToolAddIn\Include_Chart\DequeList.h
; File C:\Program Files (x86)\Microsoft Visual Studio\2019\Community\VC\Tools\MSVC\14.29.30133\include\deque
; File D:\git\src\IBK\IBK_DRFN\ProjSrc\SrcChartEx\ChartAddIn\ChartAnalysisToolAddIn\Include_Chart\DequeList.h
; File D:\git\src\IBK\IBK_DRFN\ProjSrc\SrcChartEx\ChartAddIn\ChartAnalysisToolAddIn\AnalysisTool\ColumnSet.cpp
;	COMDAT ?ChangeAllElementsColor@CColumnSet@@QAEXABK0@Z
_TEXT	SEGMENT
_penColor$ = 8						; size = 4
_textColor$ = 12					; size = 4
?ChangeAllElementsColor@CColumnSet@@QAEXABK0@Z PROC	; CColumnSet::ChangeAllElementsColor, COMDAT
; _this$ = ecx

; 54   : {

  00000	55		 push	 ebp
  00001	8b ec		 mov	 ebp, esp
  00003	83 ec 08	 sub	 esp, 8
  00006	56		 push	 esi
  00007	8b f1		 mov	 esi, ecx
  00009	57		 push	 edi

; 55   : 	for(int rowIndex = 0; rowIndex < m_RowSetList.GetCount(); rowIndex++)

  0000a	33 ff		 xor	 edi, edi
  0000c	39 7e 14	 cmp	 DWORD PTR [esi+20], edi
  0000f	7e 3b		 jle	 SHORT $LN3@ChangeAllE

; 56   : 	{
; 57   : 		CRowSet* pRowSet = m_RowSetList.GetAt(rowIndex);

  00011	53		 push	 ebx
  00012	8b 5d 0c	 mov	 ebx, DWORD PTR _textColor$[ebp]
$LL4@ChangeAllE:
; File C:\Program Files (x86)\Microsoft Visual Studio\2019\Community\VC\Tools\MSVC\14.29.30133\include\deque

; 1002 :         return _Mysize() == 0;

  00015	83 7e 14 00	 cmp	 DWORD PTR [esi+20], 0
; File D:\git\src\IBK\IBK_DRFN\ProjSrc\SrcChartEx\ChartAddIn\ChartAnalysisToolAddIn\Include_Chart\DequeList.h

; 198  : 		if(m_deque.empty())

  00019	75 04		 jne	 SHORT $LN7@ChangeAllE

; 199  : 			return NULL;

  0001b	33 c9		 xor	 ecx, ecx
  0001d	eb 1d		 jmp	 SHORT $LN6@ChangeAllE
$LN7@ChangeAllE:
; File C:\Program Files (x86)\Microsoft Visual Studio\2019\Community\VC\Tools\MSVC\14.29.30133\include\deque

; 43   :         : _Mycont(static_cast<const _Mydeque*>(_Pdeque)), _Myoff(_Off) {}

  0001f	8b 46 10	 mov	 eax, DWORD PTR [esi+16]

; 78   :         _Myoff += _Off;

  00022	8d 14 38	 lea	 edx, DWORD PTR [eax+edi]

; 559  :         return (_Off / _Block_size) & (_Mapsize - 1);

  00025	8b 46 0c	 mov	 eax, DWORD PTR [esi+12]

; 78   :         _Myoff += _Off;

  00028	8b ca		 mov	 ecx, edx

; 559  :         return (_Off / _Block_size) & (_Mapsize - 1);

  0002a	48		 dec	 eax

; 78   :         _Myoff += _Off;

  0002b	c1 e9 02	 shr	 ecx, 2

; 559  :         return (_Off / _Block_size) & (_Mapsize - 1);

  0002e	23 c8		 and	 ecx, eax
; File D:\git\src\IBK\IBK_DRFN\ProjSrc\SrcChartEx\ChartAddIn\ChartAnalysisToolAddIn\Include_Chart\DequeList.h

; 201  : 		return m_deque[nIndex];

  00030	8b 46 08	 mov	 eax, DWORD PTR [esi+8]
; File C:\Program Files (x86)\Microsoft Visual Studio\2019\Community\VC\Tools\MSVC\14.29.30133\include\deque

; 48   :         return _Mycont->_Map[_Block][_Off];

  00033	83 e2 03	 and	 edx, 3
; File D:\git\src\IBK\IBK_DRFN\ProjSrc\SrcChartEx\ChartAddIn\ChartAnalysisToolAddIn\Include_Chart\DequeList.h

; 201  : 		return m_deque[nIndex];

  00036	8b 04 88	 mov	 eax, DWORD PTR [eax+ecx*4]
  00039	8b 0c 90	 mov	 ecx, DWORD PTR [eax+edx*4]
$LN6@ChangeAllE:
; File D:\git\src\IBK\IBK_DRFN\ProjSrc\SrcChartEx\ChartAddIn\ChartAnalysisToolAddIn\AnalysisTool\ColumnSet.cpp

; 59   : 		pRowSet->ChangeAllElementsColor(penColor, textColor);

  0003c	53		 push	 ebx
  0003d	ff 75 08	 push	 DWORD PTR _penColor$[ebp]
  00040	e8 00 00 00 00	 call	 ?ChangeAllElementsColor@CRowSet@@QAEXABK0@Z ; CRowSet::ChangeAllElementsColor
  00045	47		 inc	 edi
  00046	3b 7e 14	 cmp	 edi, DWORD PTR [esi+20]
  00049	7c ca		 jl	 SHORT $LL4@ChangeAllE
  0004b	5b		 pop	 ebx
$LN3@ChangeAllE:
  0004c	5f		 pop	 edi

; 60   : 	}
; 61   : }

  0004d	5e		 pop	 esi
  0004e	8b e5		 mov	 esp, ebp
  00050	5d		 pop	 ebp
  00051	c2 08 00	 ret	 8
?ChangeAllElementsColor@CColumnSet@@QAEXABK0@Z ENDP	; CColumnSet::ChangeAllElementsColor
_TEXT	ENDS
; Function compile flags: /Ogtp
; File D:\git\src\IBK\IBK_DRFN\ProjSrc\SrcChartEx\ChartAddIn\ChartAnalysisToolAddIn\AnalysisTool\ColumnSet.cpp
; File C:\Program Files (x86)\Microsoft Visual Studio\2019\Community\VC\Tools\MSVC\14.29.30133\include\deque
; File D:\git\src\IBK\IBK_DRFN\ProjSrc\SrcChartEx\ChartAddIn\ChartAnalysisToolAddIn\Include_Chart\DequeList.h
; File C:\Program Files (x86)\Microsoft Visual Studio\2019\Community\VC\Tools\MSVC\14.29.30133\include\deque
; File D:\git\src\IBK\IBK_DRFN\ProjSrc\SrcChartEx\ChartAddIn\ChartAnalysisToolAddIn\Include_Chart\DequeList.h
; File C:\Program Files (x86)\Microsoft Visual Studio\2019\Community\VC\Tools\MSVC\14.29.30133\include\deque
; File D:\git\src\IBK\IBK_DRFN\ProjSrc\SrcChartEx\ChartAddIn\ChartAnalysisToolAddIn\Include_Chart\DequeList.h
; File D:\git\src\IBK\IBK_DRFN\ProjSrc\SrcChartEx\ChartAddIn\ChartAnalysisToolAddIn\AnalysisTool\ColumnSet.cpp
;	COMDAT ?SetAutoPrice@CColumnSet@@QAEX_N@Z
_TEXT	SEGMENT
_bIsAutoPrice$ = 8					; size = 1
?SetAutoPrice@CColumnSet@@QAEX_N@Z PROC			; CColumnSet::SetAutoPrice, COMDAT
; _this$ = ecx

; 43   : {

  00000	55		 push	 ebp
  00001	8b ec		 mov	 ebp, esp
  00003	83 ec 08	 sub	 esp, 8
  00006	56		 push	 esi
  00007	8b f1		 mov	 esi, ecx
  00009	57		 push	 edi

; 44   : 	for(int nIndex = 0; nIndex < m_RowSetList.GetCount(); nIndex++){

  0000a	33 ff		 xor	 edi, edi
  0000c	39 7e 14	 cmp	 DWORD PTR [esi+20], edi
  0000f	7e 38		 jle	 SHORT $LN3@SetAutoPri

; 45   : 		CRowSet* pRowSet = m_RowSetList.GetAt(nIndex);

  00011	53		 push	 ebx
  00012	8b 5d 08	 mov	 ebx, DWORD PTR _bIsAutoPrice$[ebp]
$LL4@SetAutoPri:
; File C:\Program Files (x86)\Microsoft Visual Studio\2019\Community\VC\Tools\MSVC\14.29.30133\include\deque

; 1002 :         return _Mysize() == 0;

  00015	83 7e 14 00	 cmp	 DWORD PTR [esi+20], 0
; File D:\git\src\IBK\IBK_DRFN\ProjSrc\SrcChartEx\ChartAddIn\ChartAnalysisToolAddIn\Include_Chart\DequeList.h

; 198  : 		if(m_deque.empty())

  00019	75 04		 jne	 SHORT $LN7@SetAutoPri

; 199  : 			return NULL;

  0001b	33 c9		 xor	 ecx, ecx
  0001d	eb 1d		 jmp	 SHORT $LN6@SetAutoPri
$LN7@SetAutoPri:
; File C:\Program Files (x86)\Microsoft Visual Studio\2019\Community\VC\Tools\MSVC\14.29.30133\include\deque

; 43   :         : _Mycont(static_cast<const _Mydeque*>(_Pdeque)), _Myoff(_Off) {}

  0001f	8b 46 10	 mov	 eax, DWORD PTR [esi+16]

; 78   :         _Myoff += _Off;

  00022	8d 14 38	 lea	 edx, DWORD PTR [eax+edi]

; 559  :         return (_Off / _Block_size) & (_Mapsize - 1);

  00025	8b 46 0c	 mov	 eax, DWORD PTR [esi+12]

; 78   :         _Myoff += _Off;

  00028	8b ca		 mov	 ecx, edx

; 559  :         return (_Off / _Block_size) & (_Mapsize - 1);

  0002a	48		 dec	 eax

; 78   :         _Myoff += _Off;

  0002b	c1 e9 02	 shr	 ecx, 2

; 559  :         return (_Off / _Block_size) & (_Mapsize - 1);

  0002e	23 c8		 and	 ecx, eax
; File D:\git\src\IBK\IBK_DRFN\ProjSrc\SrcChartEx\ChartAddIn\ChartAnalysisToolAddIn\Include_Chart\DequeList.h

; 201  : 		return m_deque[nIndex];

  00030	8b 46 08	 mov	 eax, DWORD PTR [esi+8]
; File C:\Program Files (x86)\Microsoft Visual Studio\2019\Community\VC\Tools\MSVC\14.29.30133\include\deque

; 48   :         return _Mycont->_Map[_Block][_Off];

  00033	83 e2 03	 and	 edx, 3
; File D:\git\src\IBK\IBK_DRFN\ProjSrc\SrcChartEx\ChartAddIn\ChartAnalysisToolAddIn\Include_Chart\DequeList.h

; 201  : 		return m_deque[nIndex];

  00036	8b 04 88	 mov	 eax, DWORD PTR [eax+ecx*4]
  00039	8b 0c 90	 mov	 ecx, DWORD PTR [eax+edx*4]
$LN6@SetAutoPri:
; File D:\git\src\IBK\IBK_DRFN\ProjSrc\SrcChartEx\ChartAddIn\ChartAnalysisToolAddIn\AnalysisTool\ColumnSet.cpp

; 47   : 		pRowSet->SetAutoPrice(bIsAutoPrice);

  0003c	53		 push	 ebx
  0003d	e8 00 00 00 00	 call	 ?SetAutoPrice@CRowSet@@QAEX_N@Z ; CRowSet::SetAutoPrice
  00042	47		 inc	 edi
  00043	3b 7e 14	 cmp	 edi, DWORD PTR [esi+20]
  00046	7c cd		 jl	 SHORT $LL4@SetAutoPri
  00048	5b		 pop	 ebx
$LN3@SetAutoPri:
  00049	5f		 pop	 edi

; 48   : 	}
; 49   : }

  0004a	5e		 pop	 esi
  0004b	8b e5		 mov	 esp, ebp
  0004d	5d		 pop	 ebp
  0004e	c2 04 00	 ret	 4
?SetAutoPrice@CColumnSet@@QAEX_N@Z ENDP			; CColumnSet::SetAutoPrice
_TEXT	ENDS
; Function compile flags: /Ogtp
; File D:\git\src\IBK\IBK_DRFN\ProjSrc\SrcChartEx\ChartAddIn\ChartAnalysisToolAddIn\AnalysisTool\ColumnSet.cpp
; File D:\git\src\IBK\IBK_DRFN\ProjSrc\SrcChartEx\ChartAddIn\ChartAnalysisToolAddIn\Include_Chart\DequeList.h
; File D:\git\src\IBK\IBK_DRFN\ProjSrc\SrcChartEx\ChartAddIn\ChartAnalysisToolAddIn\AnalysisTool\ColumnSet.cpp
; File D:\git\src\IBK\IBK_DRFN\ProjSrc\SrcChartEx\ChartAddIn\ChartAnalysisToolAddIn\Include_Chart\DequeList.h
; File C:\Program Files (x86)\Microsoft Visual Studio\2019\Community\VC\Tools\MSVC\14.29.30133\include\deque
; File D:\git\src\IBK\IBK_DRFN\ProjSrc\SrcChartEx\ChartAddIn\ChartAnalysisToolAddIn\Include_Chart\DequeList.h
; File D:\git\src\IBK\IBK_DRFN\ProjSrc\SrcChartEx\ChartAddIn\ChartAnalysisToolAddIn\AnalysisTool\ColumnSet.cpp
; File C:\Program Files (x86)\Microsoft Visual Studio\2019\Community\VC\Tools\MSVC\14.29.30133\include\deque
; File D:\git\src\IBK\IBK_DRFN\ProjSrc\SrcChartEx\ChartAddIn\ChartAnalysisToolAddIn\AnalysisTool\ColumnSet.cpp
; File C:\Program Files (x86)\Microsoft Visual Studio\2019\Community\VC\Tools\MSVC\14.29.30133\include\deque
; File C:\Program Files (x86)\Microsoft Visual Studio\2019\Community\VC\Tools\MSVC\14.29.30133\include\xmemory
; File C:\Program Files (x86)\Microsoft Visual Studio\2019\Community\VC\Tools\MSVC\14.29.30133\include\xutility
; File C:\Program Files (x86)\Microsoft Visual Studio\2019\Community\VC\Tools\MSVC\14.29.30133\include\deque
; File C:\Program Files (x86)\Microsoft Visual Studio\2019\Community\VC\Tools\MSVC\14.29.30133\include\xutility
; File C:\Program Files (x86)\Microsoft Visual Studio\2019\Community\VC\Tools\MSVC\14.29.30133\include\deque
; File C:\Program Files (x86)\Microsoft Visual Studio\2019\Community\VC\Tools\MSVC\14.29.30133\include\xutility
; File C:\Program Files (x86)\Microsoft Visual Studio\2019\Community\VC\Tools\MSVC\14.29.30133\include\xmemory
; File C:\Program Files (x86)\Microsoft Visual Studio\2019\Community\VC\Tools\MSVC\14.29.30133\include\deque
; File C:\Program Files (x86)\Microsoft Visual Studio\2019\Community\VC\Tools\MSVC\14.29.30133\include\xmemory
; File C:\Program Files (x86)\Microsoft Visual Studio\2019\Community\VC\Tools\MSVC\14.29.30133\include\deque
; File C:\Program Files (x86)\Microsoft Visual Studio\2019\Community\VC\Tools\MSVC\14.29.30133\include\xmemory
; File C:\Program Files (x86)\Microsoft Visual Studio\2019\Community\VC\Tools\MSVC\14.29.30133\include\deque
; File C:\Program Files (x86)\Microsoft Visual Studio\2019\Community\VC\Tools\MSVC\14.29.30133\include\xmemory
; File C:\Program Files (x86)\Microsoft Visual Studio\2019\Community\VC\Tools\MSVC\14.29.30133\include\deque
; File D:\git\src\IBK\IBK_DRFN\ProjSrc\SrcChartEx\ChartAddIn\ChartAnalysisToolAddIn\AnalysisTool\ColumnSet.cpp
; File C:\Program Files (x86)\Microsoft Visual Studio\2019\Community\VC\Tools\MSVC\14.29.30133\include\deque
; File C:\Program Files (x86)\Microsoft Visual Studio\2019\Community\VC\Tools\MSVC\14.29.30133\include\utility
; File C:\Program Files (x86)\Microsoft Visual Studio\2019\Community\VC\Tools\MSVC\14.29.30133\include\xmemory
; File C:\Program Files (x86)\Microsoft Visual Studio\2019\Community\VC\Tools\MSVC\14.29.30133\include\utility
; File C:\Program Files (x86)\Microsoft Visual Studio\2019\Community\VC\Tools\MSVC\14.29.30133\include\xmemory
; File D:\git\src\IBK\IBK_DRFN\ProjSrc\SrcChartEx\ChartAddIn\ChartAnalysisToolAddIn\AnalysisTool\ColumnSet.cpp
;	COMDAT ??1CColumnSet@@UAE@XZ
_TEXT	SEGMENT
$T9 = -44						; size = 12
$T2$sroa$589$1$ = -28					; size = 4
tv1136 = -24						; size = 4
tv1137 = -20						; size = 4
_pRowSet$1$ = -16					; size = 4
__$EHRec$ = -12						; size = 12
??1CColumnSet@@UAE@XZ PROC				; CColumnSet::~CColumnSet, COMDAT
; _this$ = ecx

; 37   : {

  00000	55		 push	 ebp
  00001	8b ec		 mov	 ebp, esp
  00003	6a ff		 push	 -1
  00005	68 00 00 00 00	 push	 __ehhandler$??1CColumnSet@@UAE@XZ
  0000a	64 a1 00 00 00
	00		 mov	 eax, DWORD PTR fs:0
  00010	50		 push	 eax
  00011	83 ec 20	 sub	 esp, 32			; 00000020H
  00014	53		 push	 ebx
  00015	56		 push	 esi
  00016	57		 push	 edi
  00017	a1 00 00 00 00	 mov	 eax, DWORD PTR ___security_cookie
  0001c	33 c5		 xor	 eax, ebp
  0001e	50		 push	 eax
  0001f	8d 45 f4	 lea	 eax, DWORD PTR __$EHRec$[ebp]
  00022	64 a3 00 00 00
	00		 mov	 DWORD PTR fs:0, eax
  00028	8b f9		 mov	 edi, ecx

; 138  : 	while(m_RowSetList.GetCount() > 0){

  0002a	83 7f 14 00	 cmp	 DWORD PTR [edi+20], 0

; 37   : {

  0002e	c7 07 00 00 00
	00		 mov	 DWORD PTR [edi], OFFSET ??_7CColumnSet@@6B@

; 138  : 	while(m_RowSetList.GetCount() > 0){

  00034	0f 8e c6 00 00
	00		 jle	 $LN5@CColumnSet
  0003a	66 0f 1f 44 00
	00		 npad	 6
$LL4@CColumnSet:
; File D:\git\src\IBK\IBK_DRFN\ProjSrc\SrcChartEx\ChartAddIn\ChartAnalysisToolAddIn\Include_Chart\DequeList.h

; 198  : 		if(m_deque.empty())

  00040	83 7f 14 00	 cmp	 DWORD PTR [edi+20], 0
; File D:\git\src\IBK\IBK_DRFN\ProjSrc\SrcChartEx\ChartAddIn\ChartAnalysisToolAddIn\AnalysisTool\ColumnSet.cpp

; 151  : 	CRowSet* pRowSet = m_RowSetList.GetAt(rowNumber);

  00044	8d 5f 04	 lea	 ebx, DWORD PTR [edi+4]
; File D:\git\src\IBK\IBK_DRFN\ProjSrc\SrcChartEx\ChartAddIn\ChartAnalysisToolAddIn\Include_Chart\DequeList.h

; 198  : 		if(m_deque.empty())

  00047	75 04		 jne	 SHORT $LN12@CColumnSet

; 199  : 			return NULL;

  00049	33 c0		 xor	 eax, eax
  0004b	eb 1a		 jmp	 SHORT $LN220@CColumnSet
$LN12@CColumnSet:
; File C:\Program Files (x86)\Microsoft Visual Studio\2019\Community\VC\Tools\MSVC\14.29.30133\include\deque

; 905  :         return _Unchecked_iterator(_Myoff(), _STD addressof(_Get_data()));

  0004d	8b 57 10	 mov	 edx, DWORD PTR [edi+16]

; 559  :         return (_Off / _Block_size) & (_Mapsize - 1);

  00050	8b c2		 mov	 eax, edx
  00052	8b 4f 0c	 mov	 ecx, DWORD PTR [edi+12]
  00055	c1 e8 02	 shr	 eax, 2
  00058	49		 dec	 ecx
  00059	23 c8		 and	 ecx, eax

; 48   :         return _Mycont->_Map[_Block][_Off];

  0005b	8b 47 08	 mov	 eax, DWORD PTR [edi+8]

; 559  :         return (_Off / _Block_size) & (_Mapsize - 1);

  0005e	83 e2 03	 and	 edx, 3

; 48   :         return _Mycont->_Map[_Block][_Off];

  00061	8b 04 88	 mov	 eax, DWORD PTR [eax+ecx*4]
; File D:\git\src\IBK\IBK_DRFN\ProjSrc\SrcChartEx\ChartAddIn\ChartAnalysisToolAddIn\Include_Chart\DequeList.h

; 201  : 		return m_deque[nIndex];

  00064	8b 04 90	 mov	 eax, DWORD PTR [eax+edx*4]
$LN220@CColumnSet:
; File D:\git\src\IBK\IBK_DRFN\ProjSrc\SrcChartEx\ChartAddIn\ChartAnalysisToolAddIn\AnalysisTool\ColumnSet.cpp

; 341  : 	CRowSet::Delete(pRowSet);

  00067	50		 push	 eax
  00068	89 45 f0	 mov	 DWORD PTR _pRowSet$1$[ebp], eax
  0006b	e8 00 00 00 00	 call	 ?Delete@CRowSet@@SAXPAV1@@Z ; CRowSet::Delete
; File C:\Program Files (x86)\Microsoft Visual Studio\2019\Community\VC\Tools\MSVC\14.29.30133\include\deque

; 897  :         return iterator(_Myoff() + _Mysize(), _STD addressof(_Get_data()));

  00070	8b 73 10	 mov	 esi, DWORD PTR [ebx+16]
; File D:\git\src\IBK\IBK_DRFN\ProjSrc\SrcChartEx\ChartAddIn\ChartAnalysisToolAddIn\AnalysisTool\ColumnSet.cpp

; 341  : 	CRowSet::Delete(pRowSet);

  00073	83 c4 04	 add	 esp, 4
; File C:\Program Files (x86)\Microsoft Visual Studio\2019\Community\VC\Tools\MSVC\14.29.30133\include\deque

; 897  :         return iterator(_Myoff() + _Mysize(), _STD addressof(_Get_data()));

  00076	8b 43 0c	 mov	 eax, DWORD PTR [ebx+12]
  00079	03 f0		 add	 esi, eax
; File C:\Program Files (x86)\Microsoft Visual Studio\2019\Community\VC\Tools\MSVC\14.29.30133\include\xmemory

; 1099 :             _Myproxy = _Parent->_Myproxy;

  0007b	8b 0b		 mov	 ecx, DWORD PTR [ebx]
  0007d	89 4d e4	 mov	 DWORD PTR $T2$sroa$589$1$[ebp], ecx

; 1107 :         return _Myproxy ? _Myproxy->_Mycont : nullptr;

  00080	85 c9		 test	 ecx, ecx
  00082	74 04		 je	 SHORT $LN89@CColumnSet
  00084	8b 11		 mov	 edx, DWORD PTR [ecx]
  00086	eb 02		 jmp	 SHORT $LN90@CColumnSet
$LN89@CColumnSet:
  00088	33 d2		 xor	 edx, edx
$LN90@CColumnSet:
; File C:\Program Files (x86)\Microsoft Visual Studio\2019\Community\VC\Tools\MSVC\14.29.30133\include\xutility

; 5185 :     for (; _First != _Last; ++_First) {

  0008a	3b c6		 cmp	 eax, esi
  0008c	74 68		 je	 SHORT $LN148@CColumnSet
  0008e	8b 4a 08	 mov	 ecx, DWORD PTR [edx+8]
  00091	49		 dec	 ecx
  00092	89 4d ec	 mov	 DWORD PTR tv1137[ebp], ecx
  00095	8b 4a 04	 mov	 ecx, DWORD PTR [edx+4]
  00098	89 4d e8	 mov	 DWORD PTR tv1136[ebp], ecx
  0009b	0f 1f 44 00 00	 npad	 5
$LL106@CColumnSet:
; File C:\Program Files (x86)\Microsoft Visual Studio\2019\Community\VC\Tools\MSVC\14.29.30133\include\deque

; 48   :         return _Mycont->_Map[_Block][_Off];

  000a0	8b 5d e8	 mov	 ebx, DWORD PTR tv1136[ebp]

; 559  :         return (_Off / _Block_size) & (_Mapsize - 1);

  000a3	8b c8		 mov	 ecx, eax
  000a5	c1 e9 02	 shr	 ecx, 2

; 47   :         _Size_type _Off   = _Myoff % _Block_size;

  000a8	8b d0		 mov	 edx, eax

; 559  :         return (_Off / _Block_size) & (_Mapsize - 1);

  000aa	23 4d ec	 and	 ecx, DWORD PTR tv1137[ebp]

; 47   :         _Size_type _Off   = _Myoff % _Block_size;

  000ad	83 e2 03	 and	 edx, 3

; 48   :         return _Mycont->_Map[_Block][_Off];

  000b0	8b 0c 8b	 mov	 ecx, DWORD PTR [ebx+ecx*4]
; File C:\Program Files (x86)\Microsoft Visual Studio\2019\Community\VC\Tools\MSVC\14.29.30133\include\xutility

; 5186 :         if (*_First == _Val) {

  000b3	8b 5d f0	 mov	 ebx, DWORD PTR _pRowSet$1$[ebp]
  000b6	39 1c 91	 cmp	 DWORD PTR [ecx+edx*4], ebx
  000b9	74 07		 je	 SHORT $LN218@CColumnSet
; File C:\Program Files (x86)\Microsoft Visual Studio\2019\Community\VC\Tools\MSVC\14.29.30133\include\deque

; 56   :         ++_Myoff;

  000bb	40		 inc	 eax
; File C:\Program Files (x86)\Microsoft Visual Studio\2019\Community\VC\Tools\MSVC\14.29.30133\include\xutility

; 5185 :     for (; _First != _Last; ++_First) {

  000bc	3b c6		 cmp	 eax, esi
  000be	75 e0		 jne	 SHORT $LL106@CColumnSet
  000c0	eb 34		 jmp	 SHORT $LN148@CColumnSet
$LN218@CColumnSet:
; File C:\Program Files (x86)\Microsoft Visual Studio\2019\Community\VC\Tools\MSVC\14.29.30133\include\xmemory

; 1069 :         _Myproxy = _Right._Myproxy;

  000c2	8b 4d e4	 mov	 ecx, DWORD PTR $T2$sroa$589$1$[ebp]
  000c5	8d 50 01	 lea	 edx, DWORD PTR [eax+1]
; File C:\Program Files (x86)\Microsoft Visual Studio\2019\Community\VC\Tools\MSVC\14.29.30133\include\deque

; 1277 :         return erase(_Where, _Next_iter(_Where));

  000c8	83 ec 0c	 sub	 esp, 12			; 0000000cH
  000cb	8b f4		 mov	 esi, esp
  000cd	83 ec 0c	 sub	 esp, 12			; 0000000cH
  000d0	89 56 08	 mov	 DWORD PTR [esi+8], edx
  000d3	8b d4		 mov	 edx, esp
; File C:\Program Files (x86)\Microsoft Visual Studio\2019\Community\VC\Tools\MSVC\14.29.30133\include\xmemory

; 1069 :         _Myproxy = _Right._Myproxy;

  000d5	89 0e		 mov	 DWORD PTR [esi], ecx

; 1113 :     mutable _Iterator_base12* _Mynextiter = nullptr;

  000d7	c7 46 04 00 00
	00 00		 mov	 DWORD PTR [esi+4], 0
  000de	89 42 08	 mov	 DWORD PTR [edx+8], eax
; File C:\Program Files (x86)\Microsoft Visual Studio\2019\Community\VC\Tools\MSVC\14.29.30133\include\deque

; 1277 :         return erase(_Where, _Next_iter(_Where));

  000e1	8d 45 d4	 lea	 eax, DWORD PTR $T9[ebp]
; File C:\Program Files (x86)\Microsoft Visual Studio\2019\Community\VC\Tools\MSVC\14.29.30133\include\xmemory

; 1069 :         _Myproxy = _Right._Myproxy;

  000e4	89 0a		 mov	 DWORD PTR [edx], ecx
; File C:\Program Files (x86)\Microsoft Visual Studio\2019\Community\VC\Tools\MSVC\14.29.30133\include\deque

; 1277 :         return erase(_Where, _Next_iter(_Where));

  000e6	8d 4f 04	 lea	 ecx, DWORD PTR [edi+4]
  000e9	50		 push	 eax
; File C:\Program Files (x86)\Microsoft Visual Studio\2019\Community\VC\Tools\MSVC\14.29.30133\include\xmemory

; 1113 :     mutable _Iterator_base12* _Mynextiter = nullptr;

  000ea	c7 42 04 00 00
	00 00		 mov	 DWORD PTR [edx+4], 0
; File C:\Program Files (x86)\Microsoft Visual Studio\2019\Community\VC\Tools\MSVC\14.29.30133\include\deque

; 1277 :         return erase(_Where, _Next_iter(_Where));

  000f1	e8 00 00 00 00	 call	 ?erase@?$deque@PAVCRowSet@@V?$allocator@PAVCRowSet@@@std@@@std@@QAE?AV?$_Deque_iterator@V?$_Deque_val@U?$_Deque_simple_types@PAVCRowSet@@@std@@@std@@@2@V?$_Deque_const_iterator@V?$_Deque_val@U?$_Deque_simple_types@PAVCRowSet@@@std@@@std@@@2@0@Z ; std::deque<CRowSet *,std::allocator<CRowSet *> >::erase
$LN148@CColumnSet:
; File D:\git\src\IBK\IBK_DRFN\ProjSrc\SrcChartEx\ChartAddIn\ChartAnalysisToolAddIn\AnalysisTool\ColumnSet.cpp

; 138  : 	while(m_RowSetList.GetCount() > 0){

  000f6	83 7f 14 00	 cmp	 DWORD PTR [edi+20], 0
  000fa	0f 8f 40 ff ff
	ff		 jg	 $LL4@CColumnSet
$LN5@CColumnSet:
; File C:\Program Files (x86)\Microsoft Visual Studio\2019\Community\VC\Tools\MSVC\14.29.30133\include\deque

; 1332 :         _Tidy();

  00100	8d 4f 04	 lea	 ecx, DWORD PTR [edi+4]
  00103	e8 00 00 00 00	 call	 ?_Tidy@?$deque@PAVCRowSet@@V?$allocator@PAVCRowSet@@@std@@@std@@AAEXXZ ; std::deque<CRowSet *,std::allocator<CRowSet *> >::_Tidy
  00108	8d 4f 04	 lea	 ecx, DWORD PTR [edi+4]
  0010b	e8 00 00 00 00	 call	 ?_Tidy@?$deque@PAVCRowSet@@V?$allocator@PAVCRowSet@@@std@@@std@@AAEXXZ ; std::deque<CRowSet *,std::allocator<CRowSet *> >::_Tidy

; 861  :         _Tidy();

  00110	8d 4f 04	 lea	 ecx, DWORD PTR [edi+4]
  00113	e8 00 00 00 00	 call	 ?_Tidy@?$deque@PAVCRowSet@@V?$allocator@PAVCRowSet@@@std@@@std@@AAEXXZ ; std::deque<CRowSet *,std::allocator<CRowSet *> >::_Tidy
; File C:\Program Files (x86)\Microsoft Visual Studio\2019\Community\VC\Tools\MSVC\14.29.30133\include\utility

; 602  :     _Ty _Old_val = static_cast<_Ty&&>(_Val);

  00118	8b 47 04	 mov	 eax, DWORD PTR [edi+4]
; File C:\Program Files (x86)\Microsoft Visual Studio\2019\Community\VC\Tools\MSVC\14.29.30133\include\xmemory

; 255  :         ::operator delete(_Ptr, _Bytes);

  0011b	6a 08		 push	 8
  0011d	50		 push	 eax
; File C:\Program Files (x86)\Microsoft Visual Studio\2019\Community\VC\Tools\MSVC\14.29.30133\include\utility

; 603  :     _Val         = static_cast<_Other&&>(_New_val);

  0011e	c7 47 04 00 00
	00 00		 mov	 DWORD PTR [edi+4], 0
; File C:\Program Files (x86)\Microsoft Visual Studio\2019\Community\VC\Tools\MSVC\14.29.30133\include\xmemory

; 255  :         ::operator delete(_Ptr, _Bytes);

  00125	e8 00 00 00 00	 call	 ??3@YAXPAXI@Z		; operator delete
  0012a	83 c4 08	 add	 esp, 8
; File D:\git\src\IBK\IBK_DRFN\ProjSrc\SrcChartEx\ChartAddIn\ChartAnalysisToolAddIn\AnalysisTool\ColumnSet.cpp

; 39   : }

  0012d	8b 4d f4	 mov	 ecx, DWORD PTR __$EHRec$[ebp]
  00130	64 89 0d 00 00
	00 00		 mov	 DWORD PTR fs:0, ecx
  00137	59		 pop	 ecx
  00138	5f		 pop	 edi
  00139	5e		 pop	 esi
  0013a	5b		 pop	 ebx
  0013b	8b e5		 mov	 esp, ebp
  0013d	5d		 pop	 ebp
  0013e	c3		 ret	 0
  0013f	cc		 int	 3
  00140	cc		 int	 3
  00141	cc		 int	 3
  00142	cc		 int	 3
  00143	cc		 int	 3
_TEXT	ENDS
;	COMDAT text$x
text$x	SEGMENT
__ehhandler$??1CColumnSet@@UAE@XZ:
  00000	90		 npad	 1
  00001	90		 npad	 1
  00002	8b 54 24 08	 mov	 edx, DWORD PTR [esp+8]
  00006	8d 42 0c	 lea	 eax, DWORD PTR [edx+12]
  00009	8b 4a d0	 mov	 ecx, DWORD PTR [edx-48]
  0000c	33 c8		 xor	 ecx, eax
  0000e	e8 00 00 00 00	 call	 @__security_check_cookie@4
  00013	b8 00 00 00 00	 mov	 eax, OFFSET __ehfuncinfo$??1CColumnSet@@UAE@XZ
  00018	e9 00 00 00 00	 jmp	 ___CxxFrameHandler3
text$x	ENDS
??1CColumnSet@@UAE@XZ ENDP				; CColumnSet::~CColumnSet
; Function compile flags: /Ogtp
; File D:\git\src\IBK\IBK_DRFN\ProjSrc\SrcChartEx\ChartAddIn\ChartAnalysisToolAddIn\AnalysisTool\ColumnSet.cpp
;	COMDAT ?Delete@CColumnSet@@SAXPAV1@@Z
_TEXT	SEGMENT
_pColumnSet$ = 8					; size = 4
?Delete@CColumnSet@@SAXPAV1@@Z PROC			; CColumnSet::Delete, COMDAT

; 30   : {

  00000	55		 push	 ebp
  00001	8b ec		 mov	 ebp, esp

; 31   : 	delete pColumnSet;

  00003	8b 4d 08	 mov	 ecx, DWORD PTR _pColumnSet$[ebp]
  00006	85 c9		 test	 ecx, ecx
  00008	74 06		 je	 SHORT $LN3@Delete
  0000a	8b 01		 mov	 eax, DWORD PTR [ecx]
  0000c	6a 01		 push	 1
  0000e	ff 10		 call	 DWORD PTR [eax]
$LN3@Delete:

; 32   : }

  00010	5d		 pop	 ebp
  00011	c3		 ret	 0
?Delete@CColumnSet@@SAXPAV1@@Z ENDP			; CColumnSet::Delete
_TEXT	ENDS
; Function compile flags: /Ogtp
; File D:\git\src\IBK\IBK_DRFN\ProjSrc\SrcChartEx\ChartAddIn\ChartAnalysisToolAddIn\AnalysisTool\ColumnSet.cpp
; File C:\Program Files (x86)\Microsoft Visual Studio\2019\Community\VC\Tools\MSVC\14.29.30133\include\xmemory
; File C:\Program Files (x86)\Microsoft Visual Studio\2019\Community\VC\Tools\MSVC\14.29.30133\include\deque
; File C:\Program Files (x86)\Microsoft Visual Studio\2019\Community\VC\Tools\MSVC\14.29.30133\include\xmemory
; File D:\git\src\IBK\IBK_DRFN\ProjSrc\SrcChartEx\ChartAddIn\ChartAnalysisToolAddIn\AnalysisTool\ColumnSet.cpp
;	COMDAT ?Make@CColumnSet@@SAPAV1@XZ
_TEXT	SEGMENT
_this$ = -20						; size = 4
$T2 = -16						; size = 4
__$EHRec$ = -12						; size = 12
?Make@CColumnSet@@SAPAV1@XZ PROC			; CColumnSet::Make, COMDAT

; 25   : {

  00000	55		 push	 ebp
  00001	8b ec		 mov	 ebp, esp
  00003	6a ff		 push	 -1
  00005	68 00 00 00 00	 push	 __ehhandler$?Make@CColumnSet@@SAPAV1@XZ
  0000a	64 a1 00 00 00
	00		 mov	 eax, DWORD PTR fs:0
  00010	50		 push	 eax
  00011	83 ec 08	 sub	 esp, 8
  00014	56		 push	 esi
  00015	57		 push	 edi
  00016	a1 00 00 00 00	 mov	 eax, DWORD PTR ___security_cookie
  0001b	33 c5		 xor	 eax, ebp
  0001d	50		 push	 eax
  0001e	8d 45 f4	 lea	 eax, DWORD PTR __$EHRec$[ebp]
  00021	64 a3 00 00 00
	00		 mov	 DWORD PTR fs:0, eax

; 26   : 	return new CColumnSet;

  00027	6a 18		 push	 24			; 00000018H
  00029	e8 00 00 00 00	 call	 ??2@YAPAXI@Z		; operator new
  0002e	8b f8		 mov	 edi, eax
  00030	83 c4 04	 add	 esp, 4
  00033	89 7d f0	 mov	 DWORD PTR $T2[ebp], edi
  00036	c7 45 fc 00 00
	00 00		 mov	 DWORD PTR __$EHRec$[ebp+8], 0
  0003d	85 ff		 test	 edi, edi
  0003f	74 56		 je	 SHORT $LN3@Make
  00041	8d 77 04	 lea	 esi, DWORD PTR [edi+4]
  00044	c7 07 00 00 00
	00		 mov	 DWORD PTR [edi], OFFSET ??_7CColumnSet@@6B@
; File C:\Program Files (x86)\Microsoft Visual Studio\2019\Community\VC\Tools\MSVC\14.29.30133\include\xmemory

; 79   :         return ::operator new(_Bytes);

  0004a	6a 08		 push	 8
  0004c	89 75 ec	 mov	 DWORD PTR _this$[ebp], esi

; 1033 :     _Container_proxy* _Myproxy = nullptr;

  0004f	c7 06 00 00 00
	00		 mov	 DWORD PTR [esi], 0
; File C:\Program Files (x86)\Microsoft Visual Studio\2019\Community\VC\Tools\MSVC\14.29.30133\include\deque

; 555  :     _Deque_val() noexcept : _Map(), _Mapsize(0), _Myoff(0), _Mysize(0) {}

  00055	c7 46 04 00 00
	00 00		 mov	 DWORD PTR [esi+4], 0
  0005c	c7 46 08 00 00
	00 00		 mov	 DWORD PTR [esi+8], 0
  00063	c7 46 0c 00 00
	00 00		 mov	 DWORD PTR [esi+12], 0
  0006a	c7 46 10 00 00
	00 00		 mov	 DWORD PTR [esi+16], 0
; File C:\Program Files (x86)\Microsoft Visual Studio\2019\Community\VC\Tools\MSVC\14.29.30133\include\xmemory

; 79   :         return ::operator new(_Bytes);

  00071	e8 00 00 00 00	 call	 ??2@YAPAXI@Z		; operator new
  00076	83 c4 04	 add	 esp, 4

; 1003 :     mutable _Iterator_base12* _Myfirstiter = nullptr;

  00079	c7 40 04 00 00
	00 00		 mov	 DWORD PTR [eax+4], 0

; 1020 :         _Myproxy            = _New_proxy;

  00080	89 06		 mov	 DWORD PTR [esi], eax

; 1021 :         _New_proxy->_Mycont = this;

  00082	89 30		 mov	 DWORD PTR [eax], esi
; File D:\git\src\IBK\IBK_DRFN\ProjSrc\SrcChartEx\ChartAddIn\ChartAnalysisToolAddIn\AnalysisTool\ColumnSet.cpp

; 26   : 	return new CColumnSet;

  00084	8b c7		 mov	 eax, edi

; 27   : }

  00086	8b 4d f4	 mov	 ecx, DWORD PTR __$EHRec$[ebp]
  00089	64 89 0d 00 00
	00 00		 mov	 DWORD PTR fs:0, ecx
  00090	59		 pop	 ecx
  00091	5f		 pop	 edi
  00092	5e		 pop	 esi
  00093	8b e5		 mov	 esp, ebp
  00095	5d		 pop	 ebp
  00096	c3		 ret	 0
$LN3@Make:

; 26   : 	return new CColumnSet;

  00097	33 c0		 xor	 eax, eax

; 27   : }

  00099	8b 4d f4	 mov	 ecx, DWORD PTR __$EHRec$[ebp]
  0009c	64 89 0d 00 00
	00 00		 mov	 DWORD PTR fs:0, ecx
  000a3	59		 pop	 ecx
  000a4	5f		 pop	 edi
  000a5	5e		 pop	 esi
  000a6	8b e5		 mov	 esp, ebp
  000a8	5d		 pop	 ebp
  000a9	c3		 ret	 0
_TEXT	ENDS
;	COMDAT text$x
text$x	SEGMENT
__unwindfunclet$?Make@CColumnSet@@SAPAV1@XZ$0:
  00000	6a 18		 push	 24			; 00000018H
  00002	8b 45 f0	 mov	 eax, DWORD PTR $T2[ebp]
  00005	50		 push	 eax
  00006	e8 00 00 00 00	 call	 ??3@YAXPAXI@Z		; operator delete
  0000b	83 c4 08	 add	 esp, 8
  0000e	c3		 ret	 0
  0000f	cc		 int	 3
  00010	cc		 int	 3
  00011	cc		 int	 3
  00012	cc		 int	 3
  00013	cc		 int	 3
__ehhandler$?Make@CColumnSet@@SAPAV1@XZ:
  00014	90		 npad	 1
  00015	90		 npad	 1
  00016	8b 54 24 08	 mov	 edx, DWORD PTR [esp+8]
  0001a	8d 42 0c	 lea	 eax, DWORD PTR [edx+12]
  0001d	8b 4a ec	 mov	 ecx, DWORD PTR [edx-20]
  00020	33 c8		 xor	 ecx, eax
  00022	e8 00 00 00 00	 call	 @__security_check_cookie@4
  00027	b8 00 00 00 00	 mov	 eax, OFFSET __ehfuncinfo$?Make@CColumnSet@@SAPAV1@XZ
  0002c	e9 00 00 00 00	 jmp	 ___CxxFrameHandler3
text$x	ENDS
?Make@CColumnSet@@SAPAV1@XZ ENDP			; CColumnSet::Make
; Function compile flags: /Ogtp
; File C:\Program Files (x86)\Microsoft Visual Studio\2019\Community\VC\Tools\MSVC\14.29.30133\include\exception
;	COMDAT ?_Throw_bad_array_new_length@std@@YAXXZ
_TEXT	SEGMENT
$T1 = -12						; size = 12
?_Throw_bad_array_new_length@std@@YAXXZ PROC		; std::_Throw_bad_array_new_length, COMDAT

; 315  : [[noreturn]] inline void _Throw_bad_array_new_length() {

  00000	55		 push	 ebp
  00001	8b ec		 mov	 ebp, esp
  00003	83 ec 0c	 sub	 esp, 12			; 0000000cH

; 316  :     _THROW(bad_array_new_length{});

  00006	8d 4d f4	 lea	 ecx, DWORD PTR $T1[ebp]
  00009	e8 00 00 00 00	 call	 ??0bad_array_new_length@std@@QAE@XZ ; std::bad_array_new_length::bad_array_new_length
  0000e	68 00 00 00 00	 push	 OFFSET __TI3?AVbad_array_new_length@std@@
  00013	8d 45 f4	 lea	 eax, DWORD PTR $T1[ebp]
  00016	50		 push	 eax
  00017	e8 00 00 00 00	 call	 __CxxThrowException@8
$LN3@Throw_bad_:
  0001c	cc		 int	 3
?_Throw_bad_array_new_length@std@@YAXXZ ENDP		; std::_Throw_bad_array_new_length
_TEXT	ENDS
; Function compile flags: /Ogtp
; File C:\Program Files (x86)\Microsoft Visual Studio\2019\Community\VC\Tools\MSVC\14.29.30133\include\vcruntime_exception.h
;	COMDAT ??_Gbad_array_new_length@std@@UAEPAXI@Z
_TEXT	SEGMENT
___flags$ = 8						; size = 4
??_Gbad_array_new_length@std@@UAEPAXI@Z PROC		; std::bad_array_new_length::`scalar deleting destructor', COMDAT
; _this$ = ecx
  00000	55		 push	 ebp
  00001	8b ec		 mov	 ebp, esp

; 89   :     {

  00003	56		 push	 esi
  00004	8b f1		 mov	 esi, ecx

; 90   :         __std_exception_destroy(&_Data);

  00006	8d 46 04	 lea	 eax, DWORD PTR [esi+4]
  00009	c7 06 00 00 00
	00		 mov	 DWORD PTR [esi], OFFSET ??_7exception@std@@6B@
  0000f	50		 push	 eax
  00010	e8 00 00 00 00	 call	 ___std_exception_destroy
  00015	83 c4 04	 add	 esp, 4
  00018	f6 45 08 01	 test	 BYTE PTR ___flags$[ebp], 1
  0001c	74 0b		 je	 SHORT $LN12@scalar
  0001e	6a 0c		 push	 12			; 0000000cH
  00020	56		 push	 esi
  00021	e8 00 00 00 00	 call	 ??3@YAXPAXI@Z		; operator delete
  00026	83 c4 08	 add	 esp, 8
$LN12@scalar:
  00029	8b c6		 mov	 eax, esi
  0002b	5e		 pop	 esi
  0002c	5d		 pop	 ebp
  0002d	c2 04 00	 ret	 4
??_Gbad_array_new_length@std@@UAEPAXI@Z ENDP		; std::bad_array_new_length::`scalar deleting destructor'
_TEXT	ENDS
; Function compile flags: /Ogtp
; File C:\Program Files (x86)\Microsoft Visual Studio\2019\Community\VC\Tools\MSVC\14.29.30133\include\vcruntime_exception.h
;	COMDAT ??0bad_array_new_length@std@@QAE@ABV01@@Z
_TEXT	SEGMENT
___that$ = 8						; size = 4
??0bad_array_new_length@std@@QAE@ABV01@@Z PROC		; std::bad_array_new_length::bad_array_new_length, COMDAT
; _this$ = ecx
  00000	55		 push	 ebp
  00001	8b ec		 mov	 ebp, esp

; 72   :     {

  00003	56		 push	 esi
  00004	8b f1		 mov	 esi, ecx
  00006	0f 57 c0	 xorps	 xmm0, xmm0

; 71   :         : _Data()

  00009	8d 46 04	 lea	 eax, DWORD PTR [esi+4]

; 73   :         __std_exception_copy(&_Other._Data, &_Data);

  0000c	50		 push	 eax
  0000d	c7 06 00 00 00
	00		 mov	 DWORD PTR [esi], OFFSET ??_7exception@std@@6B@
  00013	66 0f d6 00	 movq	 QWORD PTR [eax], xmm0
  00017	8b 45 08	 mov	 eax, DWORD PTR ___that$[ebp]
  0001a	83 c0 04	 add	 eax, 4
  0001d	50		 push	 eax
  0001e	e8 00 00 00 00	 call	 ___std_exception_copy
  00023	83 c4 08	 add	 esp, 8
  00026	c7 06 00 00 00
	00		 mov	 DWORD PTR [esi], OFFSET ??_7bad_array_new_length@std@@6B@
  0002c	8b c6		 mov	 eax, esi
  0002e	5e		 pop	 esi
  0002f	5d		 pop	 ebp
  00030	c2 04 00	 ret	 4
??0bad_array_new_length@std@@QAE@ABV01@@Z ENDP		; std::bad_array_new_length::bad_array_new_length
_TEXT	ENDS
; Function compile flags: /Ogtp
; File C:\Program Files (x86)\Microsoft Visual Studio\2019\Community\VC\Tools\MSVC\14.29.30133\include\vcruntime_exception.h
;	COMDAT ??1bad_array_new_length@std@@UAE@XZ
_TEXT	SEGMENT
??1bad_array_new_length@std@@UAE@XZ PROC		; std::bad_array_new_length::~bad_array_new_length, COMDAT
; _this$ = ecx

; 90   :         __std_exception_destroy(&_Data);

  00000	8d 41 04	 lea	 eax, DWORD PTR [ecx+4]
  00003	c7 01 00 00 00
	00		 mov	 DWORD PTR [ecx], OFFSET ??_7exception@std@@6B@
  00009	50		 push	 eax
  0000a	e8 00 00 00 00	 call	 ___std_exception_destroy
  0000f	59		 pop	 ecx
  00010	c3		 ret	 0
??1bad_array_new_length@std@@UAE@XZ ENDP		; std::bad_array_new_length::~bad_array_new_length
_TEXT	ENDS
; Function compile flags: /Ogtp
; File C:\Program Files (x86)\Microsoft Visual Studio\2019\Community\VC\Tools\MSVC\14.29.30133\include\vcruntime_exception.h
;	COMDAT ??0bad_array_new_length@std@@QAE@XZ
_TEXT	SEGMENT
??0bad_array_new_length@std@@QAE@XZ PROC		; std::bad_array_new_length::bad_array_new_length, COMDAT
; _this$ = ecx

; 141  :     {

  00000	0f 57 c0	 xorps	 xmm0, xmm0

; 142  :     }

  00003	8b c1		 mov	 eax, ecx

; 65   :         : _Data()

  00005	66 0f d6 41 04	 movq	 QWORD PTR [ecx+4], xmm0

; 66   :     {
; 67   :         _Data._What = _Message;

  0000a	c7 41 04 00 00
	00 00		 mov	 DWORD PTR [ecx+4], OFFSET ??_C@_0BF@KINCDENJ@bad?5array?5new?5length@

; 141  :     {

  00011	c7 01 00 00 00
	00		 mov	 DWORD PTR [ecx], OFFSET ??_7bad_array_new_length@std@@6B@

; 142  :     }

  00017	c3		 ret	 0
??0bad_array_new_length@std@@QAE@XZ ENDP		; std::bad_array_new_length::bad_array_new_length
_TEXT	ENDS
; Function compile flags: /Ogtp
; File C:\Program Files (x86)\Microsoft Visual Studio\2019\Community\VC\Tools\MSVC\14.29.30133\include\vcruntime_exception.h
;	COMDAT ??_Gbad_alloc@std@@UAEPAXI@Z
_TEXT	SEGMENT
___flags$ = 8						; size = 4
??_Gbad_alloc@std@@UAEPAXI@Z PROC			; std::bad_alloc::`scalar deleting destructor', COMDAT
; _this$ = ecx
  00000	55		 push	 ebp
  00001	8b ec		 mov	 ebp, esp

; 89   :     {

  00003	56		 push	 esi
  00004	8b f1		 mov	 esi, ecx

; 90   :         __std_exception_destroy(&_Data);

  00006	8d 46 04	 lea	 eax, DWORD PTR [esi+4]
  00009	c7 06 00 00 00
	00		 mov	 DWORD PTR [esi], OFFSET ??_7exception@std@@6B@
  0000f	50		 push	 eax
  00010	e8 00 00 00 00	 call	 ___std_exception_destroy
  00015	83 c4 04	 add	 esp, 4
  00018	f6 45 08 01	 test	 BYTE PTR ___flags$[ebp], 1
  0001c	74 0b		 je	 SHORT $LN9@scalar
  0001e	6a 0c		 push	 12			; 0000000cH
  00020	56		 push	 esi
  00021	e8 00 00 00 00	 call	 ??3@YAXPAXI@Z		; operator delete
  00026	83 c4 08	 add	 esp, 8
$LN9@scalar:
  00029	8b c6		 mov	 eax, esi
  0002b	5e		 pop	 esi
  0002c	5d		 pop	 ebp
  0002d	c2 04 00	 ret	 4
??_Gbad_alloc@std@@UAEPAXI@Z ENDP			; std::bad_alloc::`scalar deleting destructor'
_TEXT	ENDS
; Function compile flags: /Ogtp
; File C:\Program Files (x86)\Microsoft Visual Studio\2019\Community\VC\Tools\MSVC\14.29.30133\include\vcruntime_exception.h
;	COMDAT ??0bad_alloc@std@@QAE@ABV01@@Z
_TEXT	SEGMENT
___that$ = 8						; size = 4
??0bad_alloc@std@@QAE@ABV01@@Z PROC			; std::bad_alloc::bad_alloc, COMDAT
; _this$ = ecx
  00000	55		 push	 ebp
  00001	8b ec		 mov	 ebp, esp

; 72   :     {

  00003	56		 push	 esi
  00004	8b f1		 mov	 esi, ecx
  00006	0f 57 c0	 xorps	 xmm0, xmm0

; 71   :         : _Data()

  00009	8d 46 04	 lea	 eax, DWORD PTR [esi+4]

; 73   :         __std_exception_copy(&_Other._Data, &_Data);

  0000c	50		 push	 eax
  0000d	c7 06 00 00 00
	00		 mov	 DWORD PTR [esi], OFFSET ??_7exception@std@@6B@
  00013	66 0f d6 00	 movq	 QWORD PTR [eax], xmm0
  00017	8b 45 08	 mov	 eax, DWORD PTR ___that$[ebp]
  0001a	83 c0 04	 add	 eax, 4
  0001d	50		 push	 eax
  0001e	e8 00 00 00 00	 call	 ___std_exception_copy
  00023	83 c4 08	 add	 esp, 8
  00026	c7 06 00 00 00
	00		 mov	 DWORD PTR [esi], OFFSET ??_7bad_alloc@std@@6B@
  0002c	8b c6		 mov	 eax, esi
  0002e	5e		 pop	 esi
  0002f	5d		 pop	 ebp
  00030	c2 04 00	 ret	 4
??0bad_alloc@std@@QAE@ABV01@@Z ENDP			; std::bad_alloc::bad_alloc
_TEXT	ENDS
; Function compile flags: /Ogtp
; File C:\Program Files (x86)\Microsoft Visual Studio\2019\Community\VC\Tools\MSVC\14.29.30133\include\vcruntime_exception.h
;	COMDAT ??_Gexception@std@@UAEPAXI@Z
_TEXT	SEGMENT
___flags$ = 8						; size = 4
??_Gexception@std@@UAEPAXI@Z PROC			; std::exception::`scalar deleting destructor', COMDAT
; _this$ = ecx
  00000	55		 push	 ebp
  00001	8b ec		 mov	 ebp, esp

; 89   :     {

  00003	56		 push	 esi
  00004	8b f1		 mov	 esi, ecx

; 90   :         __std_exception_destroy(&_Data);

  00006	8d 46 04	 lea	 eax, DWORD PTR [esi+4]
  00009	c7 06 00 00 00
	00		 mov	 DWORD PTR [esi], OFFSET ??_7exception@std@@6B@
  0000f	50		 push	 eax
  00010	e8 00 00 00 00	 call	 ___std_exception_destroy
  00015	83 c4 04	 add	 esp, 4
  00018	f6 45 08 01	 test	 BYTE PTR ___flags$[ebp], 1
  0001c	74 0b		 je	 SHORT $LN6@scalar
  0001e	6a 0c		 push	 12			; 0000000cH
  00020	56		 push	 esi
  00021	e8 00 00 00 00	 call	 ??3@YAXPAXI@Z		; operator delete
  00026	83 c4 08	 add	 esp, 8
$LN6@scalar:
  00029	8b c6		 mov	 eax, esi
  0002b	5e		 pop	 esi
  0002c	5d		 pop	 ebp
  0002d	c2 04 00	 ret	 4
??_Gexception@std@@UAEPAXI@Z ENDP			; std::exception::`scalar deleting destructor'
_TEXT	ENDS
; Function compile flags: /Ogtp
; File C:\Program Files (x86)\Microsoft Visual Studio\2019\Community\VC\Tools\MSVC\14.29.30133\include\vcruntime_exception.h
;	COMDAT ?what@exception@std@@UBEPBDXZ
_TEXT	SEGMENT
?what@exception@std@@UBEPBDXZ PROC			; std::exception::what, COMDAT
; _this$ = ecx

; 95   :         return _Data._What ? _Data._What : "Unknown exception";

  00000	8b 49 04	 mov	 ecx, DWORD PTR [ecx+4]
  00003	b8 00 00 00 00	 mov	 eax, OFFSET ??_C@_0BC@EOODALEL@Unknown?5exception@
  00008	85 c9		 test	 ecx, ecx
  0000a	0f 45 c1	 cmovne	 eax, ecx

; 96   :     }

  0000d	c3		 ret	 0
?what@exception@std@@UBEPBDXZ ENDP			; std::exception::what
_TEXT	ENDS
; Function compile flags: /Ogtp
; File C:\Program Files (x86)\Microsoft Visual Studio\2019\Community\VC\Tools\MSVC\14.29.30133\include\vcruntime_exception.h
;	COMDAT ??1exception@std@@UAE@XZ
_TEXT	SEGMENT
??1exception@std@@UAE@XZ PROC				; std::exception::~exception, COMDAT
; _this$ = ecx

; 90   :         __std_exception_destroy(&_Data);

  00000	8d 41 04	 lea	 eax, DWORD PTR [ecx+4]
  00003	c7 01 00 00 00
	00		 mov	 DWORD PTR [ecx], OFFSET ??_7exception@std@@6B@
  00009	50		 push	 eax
  0000a	e8 00 00 00 00	 call	 ___std_exception_destroy
  0000f	59		 pop	 ecx

; 91   :     }

  00010	c3		 ret	 0
??1exception@std@@UAE@XZ ENDP				; std::exception::~exception
_TEXT	ENDS
; Function compile flags: /Ogtp
; File C:\Program Files (x86)\Microsoft Visual Studio\2019\Community\VC\Tools\MSVC\14.29.30133\include\vcruntime_exception.h
;	COMDAT ??0exception@std@@QAE@ABV01@@Z
_TEXT	SEGMENT
__Other$ = 8						; size = 4
??0exception@std@@QAE@ABV01@@Z PROC			; std::exception::exception, COMDAT
; _this$ = ecx

; 72   :     {

  00000	55		 push	 ebp
  00001	8b ec		 mov	 ebp, esp
  00003	56		 push	 esi
  00004	8b f1		 mov	 esi, ecx
  00006	0f 57 c0	 xorps	 xmm0, xmm0
  00009	8d 46 04	 lea	 eax, DWORD PTR [esi+4]

; 73   :         __std_exception_copy(&_Other._Data, &_Data);

  0000c	50		 push	 eax
  0000d	c7 06 00 00 00
	00		 mov	 DWORD PTR [esi], OFFSET ??_7exception@std@@6B@
  00013	66 0f d6 00	 movq	 QWORD PTR [eax], xmm0
  00017	8b 45 08	 mov	 eax, DWORD PTR __Other$[ebp]
  0001a	83 c0 04	 add	 eax, 4
  0001d	50		 push	 eax
  0001e	e8 00 00 00 00	 call	 ___std_exception_copy
  00023	83 c4 08	 add	 esp, 8

; 74   :     }

  00026	8b c6		 mov	 eax, esi
  00028	5e		 pop	 esi
  00029	5d		 pop	 ebp
  0002a	c2 04 00	 ret	 4
??0exception@std@@QAE@ABV01@@Z ENDP			; std::exception::exception
_TEXT	ENDS
; Function compile flags: /Ogtp
; File D:\git\src\IBK\IBK_DRFN\ProjSrc\SrcChartEx\ChartAddIn\ChartAnalysisToolAddIn\AnalysisTool\ColumnSet.cpp
;	COMDAT ?__empty_global_delete@@YAXPAXI@Z
_TEXT	SEGMENT
___formal$ = 8						; size = 4
___formal$ = 12						; size = 4
?__empty_global_delete@@YAXPAXI@Z PROC			; __empty_global_delete, COMDAT

  00000	c2 00 00	 ret	 0
?__empty_global_delete@@YAXPAXI@Z ENDP			; __empty_global_delete
_TEXT	ENDS
; Function compile flags: /Ogtp
; File D:\git\src\IBK\IBK_DRFN\ProjSrc\SrcChartEx\ChartAddIn\ChartAnalysisToolAddIn\AnalysisTool\ColumnSet.cpp
;	COMDAT ?__empty_global_delete@@YAXPAX@Z
_TEXT	SEGMENT
___formal$ = 8						; size = 4
?__empty_global_delete@@YAXPAX@Z PROC			; __empty_global_delete, COMDAT

  00000	c2 00 00	 ret	 0
?__empty_global_delete@@YAXPAX@Z ENDP			; __empty_global_delete
_TEXT	ENDS
END
