; Listing generated by Microsoft (R) Optimizing Compiler Version 19.29.30145.0 

	TITLE	D:\git\src\IBK\IBK_DRFN\#DRfn-CS\_Obj\AnalysisTool\CoordinateCalculator.obj
	.686P
	.XMM
	include listing.inc
	.model	flat

INCLUDELIB MSVCRT
INCLUDELIB OLDNAMES

PUBLIC	?GetData_X@CCoordinateCalculator_AutoPrice@@MBENABVCCoordinateCalculatorData@@ABVCPoint@@H@Z ; CCoordinateCalculator_AutoPrice::GetData_X
PUBLIC	?GetData_Y@CCoordinateCalculator_AutoPrice@@MBENABVCCoordinateCalculatorData@@ABVCPoint@@H@Z ; CCoordinateCalculator_AutoPrice::GetData_Y
PUBLIC	?GetData_Y@CCoordinateCalculator_AutoPrice@@MBENABVCCoordinateCalculatorData@@ABNH@Z ; CCoordinateCalculator_AutoPrice::GetData_Y
PUBLIC	??_7CCoordinateCalculator_AutoPrice@@6B@	; CCoordinateCalculator_AutoPrice::`vftable'
PUBLIC	?GetData_X@CCoordinateCalculator_NoAutoPrice@@MBENABVCCoordinateCalculatorData@@ABVCPoint@@H@Z ; CCoordinateCalculator_NoAutoPrice::GetData_X
PUBLIC	?GetData_Y@CCoordinateCalculator_NoAutoPrice@@MBENABVCCoordinateCalculatorData@@ABVCPoint@@H@Z ; CCoordinateCalculator_NoAutoPrice::GetData_Y
PUBLIC	?GetData_Y@CCoordinateCalculator_NoAutoPrice@@MBENABVCCoordinateCalculatorData@@ABNH@Z ; CCoordinateCalculator_NoAutoPrice::GetData_Y
PUBLIC	??_7CCoordinateCalculator_NoAutoPrice@@6B@	; CCoordinateCalculator_NoAutoPrice::`vftable'
PUBLIC	?m_autoPriceCal@CCoordinateCalculatorFinder@@0VCCoordinateCalculator_AutoPrice@@A ; CCoordinateCalculatorFinder::m_autoPriceCal
PUBLIC	?m_noAutoPriceCal@CCoordinateCalculatorFinder@@0VCCoordinateCalculator_NoAutoPrice@@A ; CCoordinateCalculatorFinder::m_noAutoPriceCal
PUBLIC	??_R0?AVCCoordinateCalculator@@@8		; CCoordinateCalculator `RTTI Type Descriptor'
PUBLIC	??_R3CCoordinateCalculator@@8			; CCoordinateCalculator::`RTTI Class Hierarchy Descriptor'
PUBLIC	??_R2CCoordinateCalculator@@8			; CCoordinateCalculator::`RTTI Base Class Array'
PUBLIC	??_R1A@?0A@EA@CCoordinateCalculator@@8		; CCoordinateCalculator::`RTTI Base Class Descriptor at (0,-1,0,64)'
PUBLIC	??_R4CCoordinateCalculator_AutoPrice@@6B@	; CCoordinateCalculator_AutoPrice::`RTTI Complete Object Locator'
PUBLIC	??_R0?AVCCoordinateCalculator_AutoPrice@@@8	; CCoordinateCalculator_AutoPrice `RTTI Type Descriptor'
PUBLIC	??_R3CCoordinateCalculator_AutoPrice@@8		; CCoordinateCalculator_AutoPrice::`RTTI Class Hierarchy Descriptor'
PUBLIC	??_R2CCoordinateCalculator_AutoPrice@@8		; CCoordinateCalculator_AutoPrice::`RTTI Base Class Array'
PUBLIC	??_R1A@?0A@EA@CCoordinateCalculator_AutoPrice@@8 ; CCoordinateCalculator_AutoPrice::`RTTI Base Class Descriptor at (0,-1,0,64)'
PUBLIC	??_R4CCoordinateCalculator_NoAutoPrice@@6B@	; CCoordinateCalculator_NoAutoPrice::`RTTI Complete Object Locator'
PUBLIC	??_R0?AVCCoordinateCalculator_NoAutoPrice@@@8	; CCoordinateCalculator_NoAutoPrice `RTTI Type Descriptor'
PUBLIC	??_R3CCoordinateCalculator_NoAutoPrice@@8	; CCoordinateCalculator_NoAutoPrice::`RTTI Class Hierarchy Descriptor'
PUBLIC	??_R2CCoordinateCalculator_NoAutoPrice@@8	; CCoordinateCalculator_NoAutoPrice::`RTTI Base Class Array'
PUBLIC	??_R1A@?0A@EA@CCoordinateCalculator_NoAutoPrice@@8 ; CCoordinateCalculator_NoAutoPrice::`RTTI Base Class Descriptor at (0,-1,0,64)'
EXTRN	??_7type_info@@6B@:QWORD			; type_info::`vftable'
;	COMDAT ??_R1A@?0A@EA@CCoordinateCalculator_NoAutoPrice@@8
rdata$r	SEGMENT
??_R1A@?0A@EA@CCoordinateCalculator_NoAutoPrice@@8 DD FLAT:??_R0?AVCCoordinateCalculator_NoAutoPrice@@@8 ; CCoordinateCalculator_NoAutoPrice::`RTTI Base Class Descriptor at (0,-1,0,64)'
	DD	01H
	DD	00H
	DD	0ffffffffH
	DD	00H
	DD	040H
	DD	FLAT:??_R3CCoordinateCalculator_NoAutoPrice@@8
rdata$r	ENDS
;	COMDAT ??_R2CCoordinateCalculator_NoAutoPrice@@8
rdata$r	SEGMENT
??_R2CCoordinateCalculator_NoAutoPrice@@8 DD FLAT:??_R1A@?0A@EA@CCoordinateCalculator_NoAutoPrice@@8 ; CCoordinateCalculator_NoAutoPrice::`RTTI Base Class Array'
	DD	FLAT:??_R1A@?0A@EA@CCoordinateCalculator@@8
rdata$r	ENDS
;	COMDAT ??_R3CCoordinateCalculator_NoAutoPrice@@8
rdata$r	SEGMENT
??_R3CCoordinateCalculator_NoAutoPrice@@8 DD 00H	; CCoordinateCalculator_NoAutoPrice::`RTTI Class Hierarchy Descriptor'
	DD	00H
	DD	02H
	DD	FLAT:??_R2CCoordinateCalculator_NoAutoPrice@@8
rdata$r	ENDS
;	COMDAT ??_R0?AVCCoordinateCalculator_NoAutoPrice@@@8
data$rs	SEGMENT
??_R0?AVCCoordinateCalculator_NoAutoPrice@@@8 DD FLAT:??_7type_info@@6B@ ; CCoordinateCalculator_NoAutoPrice `RTTI Type Descriptor'
	DD	00H
	DB	'.?AVCCoordinateCalculator_NoAutoPrice@@', 00H
data$rs	ENDS
;	COMDAT ??_R4CCoordinateCalculator_NoAutoPrice@@6B@
rdata$r	SEGMENT
??_R4CCoordinateCalculator_NoAutoPrice@@6B@ DD 00H	; CCoordinateCalculator_NoAutoPrice::`RTTI Complete Object Locator'
	DD	00H
	DD	00H
	DD	FLAT:??_R0?AVCCoordinateCalculator_NoAutoPrice@@@8
	DD	FLAT:??_R3CCoordinateCalculator_NoAutoPrice@@8
rdata$r	ENDS
;	COMDAT ??_R1A@?0A@EA@CCoordinateCalculator_AutoPrice@@8
rdata$r	SEGMENT
??_R1A@?0A@EA@CCoordinateCalculator_AutoPrice@@8 DD FLAT:??_R0?AVCCoordinateCalculator_AutoPrice@@@8 ; CCoordinateCalculator_AutoPrice::`RTTI Base Class Descriptor at (0,-1,0,64)'
	DD	01H
	DD	00H
	DD	0ffffffffH
	DD	00H
	DD	040H
	DD	FLAT:??_R3CCoordinateCalculator_AutoPrice@@8
rdata$r	ENDS
;	COMDAT ??_R2CCoordinateCalculator_AutoPrice@@8
rdata$r	SEGMENT
??_R2CCoordinateCalculator_AutoPrice@@8 DD FLAT:??_R1A@?0A@EA@CCoordinateCalculator_AutoPrice@@8 ; CCoordinateCalculator_AutoPrice::`RTTI Base Class Array'
	DD	FLAT:??_R1A@?0A@EA@CCoordinateCalculator@@8
rdata$r	ENDS
;	COMDAT ??_R3CCoordinateCalculator_AutoPrice@@8
rdata$r	SEGMENT
??_R3CCoordinateCalculator_AutoPrice@@8 DD 00H		; CCoordinateCalculator_AutoPrice::`RTTI Class Hierarchy Descriptor'
	DD	00H
	DD	02H
	DD	FLAT:??_R2CCoordinateCalculator_AutoPrice@@8
rdata$r	ENDS
;	COMDAT ??_R0?AVCCoordinateCalculator_AutoPrice@@@8
data$rs	SEGMENT
??_R0?AVCCoordinateCalculator_AutoPrice@@@8 DD FLAT:??_7type_info@@6B@ ; CCoordinateCalculator_AutoPrice `RTTI Type Descriptor'
	DD	00H
	DB	'.?AVCCoordinateCalculator_AutoPrice@@', 00H
data$rs	ENDS
;	COMDAT ??_R4CCoordinateCalculator_AutoPrice@@6B@
rdata$r	SEGMENT
??_R4CCoordinateCalculator_AutoPrice@@6B@ DD 00H	; CCoordinateCalculator_AutoPrice::`RTTI Complete Object Locator'
	DD	00H
	DD	00H
	DD	FLAT:??_R0?AVCCoordinateCalculator_AutoPrice@@@8
	DD	FLAT:??_R3CCoordinateCalculator_AutoPrice@@8
rdata$r	ENDS
;	COMDAT ??_R1A@?0A@EA@CCoordinateCalculator@@8
rdata$r	SEGMENT
??_R1A@?0A@EA@CCoordinateCalculator@@8 DD FLAT:??_R0?AVCCoordinateCalculator@@@8 ; CCoordinateCalculator::`RTTI Base Class Descriptor at (0,-1,0,64)'
	DD	00H
	DD	00H
	DD	0ffffffffH
	DD	00H
	DD	040H
	DD	FLAT:??_R3CCoordinateCalculator@@8
rdata$r	ENDS
;	COMDAT ??_R2CCoordinateCalculator@@8
rdata$r	SEGMENT
??_R2CCoordinateCalculator@@8 DD FLAT:??_R1A@?0A@EA@CCoordinateCalculator@@8 ; CCoordinateCalculator::`RTTI Base Class Array'
rdata$r	ENDS
;	COMDAT ??_R3CCoordinateCalculator@@8
rdata$r	SEGMENT
??_R3CCoordinateCalculator@@8 DD 00H			; CCoordinateCalculator::`RTTI Class Hierarchy Descriptor'
	DD	00H
	DD	01H
	DD	FLAT:??_R2CCoordinateCalculator@@8
rdata$r	ENDS
;	COMDAT ??_R0?AVCCoordinateCalculator@@@8
data$rs	SEGMENT
??_R0?AVCCoordinateCalculator@@@8 DD FLAT:??_7type_info@@6B@ ; CCoordinateCalculator `RTTI Type Descriptor'
	DD	00H
	DB	'.?AVCCoordinateCalculator@@', 00H
data$rs	ENDS
_DATA	SEGMENT
?m_autoPriceCal@CCoordinateCalculatorFinder@@0VCCoordinateCalculator_AutoPrice@@A DD FLAT:??_7CCoordinateCalculator_AutoPrice@@6B@ ; CCoordinateCalculatorFinder::m_autoPriceCal
?m_noAutoPriceCal@CCoordinateCalculatorFinder@@0VCCoordinateCalculator_NoAutoPrice@@A DD FLAT:??_7CCoordinateCalculator_NoAutoPrice@@6B@ ; CCoordinateCalculatorFinder::m_noAutoPriceCal
_DATA	ENDS
;	COMDAT ??_7CCoordinateCalculator_NoAutoPrice@@6B@
CONST	SEGMENT
??_7CCoordinateCalculator_NoAutoPrice@@6B@ DD FLAT:??_R4CCoordinateCalculator_NoAutoPrice@@6B@ ; CCoordinateCalculator_NoAutoPrice::`vftable'
	DD	FLAT:?GetData_X@CCoordinateCalculator_NoAutoPrice@@MBENABVCCoordinateCalculatorData@@ABVCPoint@@H@Z
	DD	FLAT:?GetData_Y@CCoordinateCalculator_NoAutoPrice@@MBENABVCCoordinateCalculatorData@@ABNH@Z
	DD	FLAT:?GetData_Y@CCoordinateCalculator_NoAutoPrice@@MBENABVCCoordinateCalculatorData@@ABVCPoint@@H@Z
CONST	ENDS
;	COMDAT ??_7CCoordinateCalculator_AutoPrice@@6B@
CONST	SEGMENT
??_7CCoordinateCalculator_AutoPrice@@6B@ DD FLAT:??_R4CCoordinateCalculator_AutoPrice@@6B@ ; CCoordinateCalculator_AutoPrice::`vftable'
	DD	FLAT:?GetData_X@CCoordinateCalculator_AutoPrice@@MBENABVCCoordinateCalculatorData@@ABVCPoint@@H@Z
	DD	FLAT:?GetData_Y@CCoordinateCalculator_AutoPrice@@MBENABVCCoordinateCalculatorData@@ABNH@Z
	DD	FLAT:?GetData_Y@CCoordinateCalculator_AutoPrice@@MBENABVCCoordinateCalculatorData@@ABVCPoint@@H@Z
CONST	ENDS
PUBLIC	?__empty_global_delete@@YAXPAX@Z		; __empty_global_delete
PUBLIC	?__empty_global_delete@@YAXPAXI@Z		; __empty_global_delete
PUBLIC	??1ILPCSTR133101@@QAE@XZ			; ILPCSTR133101::~ILPCSTR133101
PUBLIC	?AbsoluteToRelative@CCoordinateCalculator@@QBE?AVCCoordinate@@ABVCCoordinateCalculatorData@@ABVCPoint@@@Z ; CCoordinateCalculator::AbsoluteToRelative
PUBLIC	?AbsoluteToRelativeAutoPrice@CCoordinateCalculator@@QBE?AVCCoordinate@@ABVCCoordinateCalculatorData@@ABVCPoint@@@Z ; CCoordinateCalculator::AbsoluteToRelativeAutoPrice
PUBLIC	?RelativeToAbsolute@CCoordinateCalculator@@QBE?AVCPoint@@ABVCCoordinateCalculatorData@@ABVCCoordinate@@@Z ; CCoordinateCalculator::RelativeToAbsolute
PUBLIC	?RelativeToAbsolute_Y@CCoordinateCalculator@@QBEHABVCCoordinateCalculatorData@@HABN@Z ; CCoordinateCalculator::RelativeToAbsolute_Y
PUBLIC	?AbsoluteToAbsolute@CCoordinateCalculator@@QBE?AVCPoint@@ABVCCoordinateCalculatorData@@ABV2@@Z ; CCoordinateCalculator::AbsoluteToAbsolute
PUBLIC	?GetGap@CCoordinateCalculator@@QBE?AVCCoordinate@@ABVCCoordinateCalculatorData@@ABVCPoint@@1@Z ; CCoordinateCalculator::GetGap
PUBLIC	?GetCurrentDataIndex@CCoordinateCalculator@@QBEHABVCRegion@@ABVCPoint@@@Z ; CCoordinateCalculator::GetCurrentDataIndex
PUBLIC	?GetDrawingPoint_X@CCoordinateCalculator@@QBEHABVCRegion@@H@Z ; CCoordinateCalculator::GetDrawingPoint_X
PUBLIC	?IsCalculator@CCoordinateCalculator@@ABE_NPAUIPacket133101@@@Z ; CCoordinateCalculator::IsCalculator
PUBLIC	?GetDisplayDataCurrentIndex@CCoordinateCalculator@@ABEHPAUIPacket133101@@NV?$CStringT@DV?$StrTraitMFC_DLL@DV?$ChTraitsCRT@D@ATL@@@@@ATL@@@Z ; CCoordinateCalculator::GetDisplayDataCurrentIndex
PUBLIC	?RelativeToAbsolute_NoAutoPrice@CCoordinateCalculator@@QBE?AVCPoint@@ABVCCoordinateCalculatorData@@ABVCCoordinate@@@Z ; CCoordinateCalculator::RelativeToAbsolute_NoAutoPrice
PUBLIC	?IsAutoPriceCalculator@CCoordinateCalculator_AutoPrice@@ABE_NPAUIPacket133101@@H@Z ; CCoordinateCalculator_AutoPrice::IsAutoPriceCalculator
PUBLIC	?FindCoordinateCalculator@CCoordinateCalculatorFinder@@SAAAVCCoordinateCalculator@@_N@Z ; CCoordinateCalculatorFinder::FindCoordinateCalculator
PUBLIC	??0CSelectableRegionCalculator@@QAE@XZ		; CSelectableRegionCalculator::CSelectableRegionCalculator
PUBLIC	?GetProximityRange@CSelectableRegionCalculator@@QBEHXZ ; CSelectableRegionCalculator::GetProximityRange
PUBLIC	?GetLineRegion@CSelectableRegionCalculator@@QBEXABVCPoint@@0AAVCRgn@@@Z ; CSelectableRegionCalculator::GetLineRegion
PUBLIC	?IsPointInCircle@CSelectableRegionCalculator@@QBE_NABVCPoint@@0@Z ; CSelectableRegionCalculator::IsPointInCircle
PUBLIC	?IsPointInCircle@CSelectableRegionCalculator@@QBE_NABVCPoint@@H0@Z ; CSelectableRegionCalculator::IsPointInCircle
PUBLIC	?GetHorzLineRegion@CSelectableRegionCalculator@@ABE?AVCRect@@ABVCPoint@@0@Z ; CSelectableRegionCalculator::GetHorzLineRegion
PUBLIC	?GetVertLineRegion@CSelectableRegionCalculator@@ABE?AVCRect@@ABVCPoint@@0@Z ; CSelectableRegionCalculator::GetVertLineRegion
PUBLIC	?GetAngleLineRegion@CSelectableRegionCalculator@@ABEXABVCPoint@@0AAVCRgn@@@Z ; CSelectableRegionCalculator::GetAngleLineRegion
PUBLIC	?GetPointOnMovedOrigin@CSelectableRegionCalculator@@ABE?AUtagPOINT@@ABVCPoint@@0@Z ; CSelectableRegionCalculator::GetPointOnMovedOrigin
PUBLIC	?GetVerticalPointsFromLength@CSelectableRegionCalculator@@ABEXABVCPoint@@0AAV2@1@Z ; CSelectableRegionCalculator::GetVerticalPointsFromLength
PUBLIC	?GetLineAngle@CSelectableRegionCalculator@@ABENABVCPoint@@0@Z ; CSelectableRegionCalculator::GetLineAngle
PUBLIC	?GetLineVerticalAngle@CSelectableRegionCalculator@@ABENABN@Z ; CSelectableRegionCalculator::GetLineVerticalAngle
PUBLIC	??1CCoordinate@@QAE@XZ				; CCoordinate::~CCoordinate
PUBLIC	??_C@_00CNPNBAHC@@				; `string'
PUBLIC	??_C@_07MGCPDNLD@DEFAULT@			; `string'
PUBLIC	__real@0000000000000000
PUBLIC	__real@3ff0000000000000
PUBLIC	__real@4000000000000000
PUBLIC	__real@bff0000000000000
PUBLIC	__real@fff0000000000000
PUBLIC	__xmm@7fffffffffffffff7fffffffffffffff
EXTRN	___std_terminate:PROC
EXTRN	__imp__CreateRectRgn@16:PROC
EXTRN	__imp__CreatePolygonRgn@12:PROC
EXTRN	__imp_??0?$CStringT@DV?$StrTraitMFC_DLL@DV?$ChTraitsCRT@D@ATL@@@@@ATL@@QAE@ABV01@@Z:PROC
EXTRN	__imp_??0?$CStringT@DV?$StrTraitMFC_DLL@DV?$ChTraitsCRT@D@ATL@@@@@ATL@@QAE@PBD@Z:PROC
EXTRN	__imp_??1?$CStringT@DV?$StrTraitMFC_DLL@DV?$ChTraitsCRT@D@ATL@@@@@ATL@@QAE@XZ:PROC
EXTRN	?Attach@CGdiObject@@QAEHPAX@Z:PROC		; CGdiObject::Attach
EXTRN	?AbsoluteToRelative_Y@CDataConversion@@SANABVCRect@@HABN1@Z:PROC ; CDataConversion::AbsoluteToRelative_Y
EXTRN	?RelativeToAbsolute_Y@CDataConversion@@SAHABVCRect@@ABN11@Z:PROC ; CDataConversion::RelativeToAbsolute_Y
EXTRN	?RelativeToAbsolute@CDataConversion@@SA?AVCPoint@@ABVCRect@@HHABN1H1@Z:PROC ; CDataConversion::RelativeToAbsolute
EXTRN	?RelativeToAbsolute_X@CDataConversion@@SAHABVCRect@@HHH_N@Z:PROC ; CDataConversion::RelativeToAbsolute_X
EXTRN	?GetPacketDataIndex_Date@CDataConversion@@SAHABVCRect@@ABVCPoint@@HH@Z:PROC ; CDataConversion::GetPacketDataIndex_Date
EXTRN	?GetRegion@CCoordinateCalculatorData@@QBE?AVCRect@@XZ:PROC ; CCoordinateCalculatorData::GetRegion
EXTRN	?GetDisplayDataStart@CCoordinateCalculatorData@@QBEHXZ:PROC ; CCoordinateCalculatorData::GetDisplayDataStart
EXTRN	?GetDisplayDataEnd@CCoordinateCalculatorData@@QBEHXZ:PROC ; CCoordinateCalculatorData::GetDisplayDataEnd
EXTRN	?GetDisplayDataMin_ScaleType@CCoordinateCalculatorData@@QBENXZ:PROC ; CCoordinateCalculatorData::GetDisplayDataMin_ScaleType
EXTRN	?GetDisplayDataMax_ScaleType@CCoordinateCalculatorData@@QBENXZ:PROC ; CCoordinateCalculatorData::GetDisplayDataMax_ScaleType
EXTRN	?GetPacket_X@CCoordinateCalculatorData@@QBEPAUIPacket133101@@XZ:PROC ; CCoordinateCalculatorData::GetPacket_X
EXTRN	?GetPacket_Y@CCoordinateCalculatorData@@QBEPAUIPacket133101@@XZ:PROC ; CCoordinateCalculatorData::GetPacket_Y
EXTRN	?ApplyLog@CCoordinateCalculatorData@@QBENABN@Z:PROC ; CCoordinateCalculatorData::ApplyLog
EXTRN	?ApplyExp@CCoordinateCalculatorData@@QBENABN@Z:PROC ; CCoordinateCalculatorData::ApplyExp
EXTRN	?GetBlockIndex@CCoordinateCalculatorData@@QBE?AVCBlockIndex@@XZ:PROC ; CCoordinateCalculatorData::GetBlockIndex
EXTRN	??4CCoordinate@@QAEAAV0@ABV0@@Z:PROC		; CCoordinate::operator=
EXTRN	??0CCoordinate@@QAE@XZ:PROC			; CCoordinate::CCoordinate
EXTRN	??0CCoordinate@@QAE@ABN0HABV?$CStringT@DV?$StrTraitMFC_DLL@DV?$ChTraitsCRT@D@ATL@@@@@ATL@@H@Z:PROC ; CCoordinate::CCoordinate
EXTRN	??0CCoordinate@@QAE@ABVCPoint@@@Z:PROC		; CCoordinate::CCoordinate
EXTRN	??0CCoordinate@@QAE@ABV0@@Z:PROC		; CCoordinate::CCoordinate
EXTRN	?GetX@CCoordinate@@QBENXZ:PROC			; CCoordinate::GetX
EXTRN	?GetY@CCoordinate@@QBENXZ:PROC			; CCoordinate::GetY
EXTRN	?GetIndex@CCoordinate@@QBEHXZ:PROC		; CCoordinate::GetIndex
EXTRN	?GetPixel@CCoordinate@@QBE?AVCPoint@@XZ:PROC	; CCoordinate::GetPixel
EXTRN	?GetDateType@CCoordinate@@QBE?AV?$CStringT@DV?$StrTraitMFC_DLL@DV?$ChTraitsCRT@D@ATL@@@@@ATL@@XZ:PROC ; CCoordinate::GetDateType
EXTRN	?SetIndex@CCoordinate@@QAEXH@Z:PROC		; CCoordinate::SetIndex
EXTRN	?SetX@CCoordinate@@QAEXABNH@Z:PROC		; CCoordinate::SetX
EXTRN	?SetY@CCoordinate@@QAEXABN@Z:PROC		; CCoordinate::SetY
EXTRN	?GetDataStartInBlock@CDisplayAttributes@@QBEHXZ:PROC ; CDisplayAttributes::GetDataStartInBlock
EXTRN	?GetDataEndInBlock@CDisplayAttributes@@QBEHXZ:PROC ; CDisplayAttributes::GetDataEndInBlock
EXTRN	?GetRect@CRegion@@QBE?AVCRect@@XZ:PROC		; CRegion::GetRect
EXTRN	?GetDisplayAttributes@CRegion@@QBE?AVCDisplayAttributes@@XZ:PROC ; CRegion::GetDisplayAttributes
EXTRN	?Round@CMath@@SAHN@Z:PROC			; CMath::Round
EXTRN	@__security_check_cookie@4:PROC
EXTRN	___CxxFrameHandler3:PROC
EXTRN	__libm_sse2_pow_precise:PROC
EXTRN	__libm_sse2_sqrt_precise:PROC
EXTRN	___security_cookie:DWORD
EXTRN	__fltused:DWORD
;	COMDAT __xmm@7fffffffffffffff7fffffffffffffff
CONST	SEGMENT
__xmm@7fffffffffffffff7fffffffffffffff DB 0ffH, 0ffH, 0ffH, 0ffH, 0ffH, 0ffH
	DB	0ffH, 07fH, 0ffH, 0ffH, 0ffH, 0ffH, 0ffH, 0ffH, 0ffH, 07fH
CONST	ENDS
;	COMDAT __real@fff0000000000000
CONST	SEGMENT
__real@fff0000000000000 DQ 0fff0000000000000r	; -inf
CONST	ENDS
;	COMDAT __real@bff0000000000000
CONST	SEGMENT
__real@bff0000000000000 DQ 0bff0000000000000r	; -1
CONST	ENDS
;	COMDAT __real@4000000000000000
CONST	SEGMENT
__real@4000000000000000 DQ 04000000000000000r	; 2
CONST	ENDS
;	COMDAT __real@3ff0000000000000
CONST	SEGMENT
__real@3ff0000000000000 DQ 03ff0000000000000r	; 1
CONST	ENDS
;	COMDAT __real@0000000000000000
CONST	SEGMENT
__real@0000000000000000 DQ 00000000000000000r	; 0
CONST	ENDS
;	COMDAT ??_C@_07MGCPDNLD@DEFAULT@
CONST	SEGMENT
??_C@_07MGCPDNLD@DEFAULT@ DB 'DEFAULT', 00H		; `string'
CONST	ENDS
;	COMDAT ??_C@_00CNPNBAHC@@
CONST	SEGMENT
??_C@_00CNPNBAHC@@ DB 00H				; `string'
CONST	ENDS
;	COMDAT xdata$x
xdata$x	SEGMENT
__unwindtable$?GetData_Y@CCoordinateCalculator_AutoPrice@@MBENABVCCoordinateCalculatorData@@ABVCPoint@@H@Z DD 0ffffffffH
	DD	FLAT:__unwindfunclet$?GetData_Y@CCoordinateCalculator_AutoPrice@@MBENABVCCoordinateCalculatorData@@ABVCPoint@@H@Z$0
__ehfuncinfo$?GetData_Y@CCoordinateCalculator_AutoPrice@@MBENABVCCoordinateCalculatorData@@ABVCPoint@@H@Z DD 019930522H
	DD	01H
	DD	FLAT:__unwindtable$?GetData_Y@CCoordinateCalculator_AutoPrice@@MBENABVCCoordinateCalculatorData@@ABVCPoint@@H@Z
	DD	2 DUP(00H)
	DD	2 DUP(00H)
	DD	00H
	DD	01H
xdata$x	ENDS
;	COMDAT xdata$x
xdata$x	SEGMENT
__unwindtable$?GetData_X@CCoordinateCalculator_AutoPrice@@MBENABVCCoordinateCalculatorData@@ABVCPoint@@H@Z DD 0ffffffffH
	DD	FLAT:__unwindfunclet$?GetData_X@CCoordinateCalculator_AutoPrice@@MBENABVCCoordinateCalculatorData@@ABVCPoint@@H@Z$0
	DD	00H
	DD	FLAT:__unwindfunclet$?GetData_X@CCoordinateCalculator_AutoPrice@@MBENABVCCoordinateCalculatorData@@ABVCPoint@@H@Z$1
	DD	00H
	DD	FLAT:___std_terminate
	DD	0ffffffffH
	DD	FLAT:___std_terminate
__ehfuncinfo$?GetData_X@CCoordinateCalculator_AutoPrice@@MBENABVCCoordinateCalculatorData@@ABVCPoint@@H@Z DD 019930522H
	DD	04H
	DD	FLAT:__unwindtable$?GetData_X@CCoordinateCalculator_AutoPrice@@MBENABVCCoordinateCalculatorData@@ABVCPoint@@H@Z
	DD	2 DUP(00H)
	DD	2 DUP(00H)
	DD	00H
	DD	01H
xdata$x	ENDS
;	COMDAT xdata$x
xdata$x	SEGMENT
__unwindtable$?RelativeToAbsolute_NoAutoPrice@CCoordinateCalculator@@QBE?AVCPoint@@ABVCCoordinateCalculatorData@@ABVCCoordinate@@@Z DD 0ffffffffH
	DD	FLAT:__unwindfunclet$?RelativeToAbsolute_NoAutoPrice@CCoordinateCalculator@@QBE?AVCPoint@@ABVCCoordinateCalculatorData@@ABVCCoordinate@@@Z$0
	DD	0ffffffffH
	DD	FLAT:__unwindfunclet$?RelativeToAbsolute_NoAutoPrice@CCoordinateCalculator@@QBE?AVCPoint@@ABVCCoordinateCalculatorData@@ABVCCoordinate@@@Z$1
__ehfuncinfo$?RelativeToAbsolute_NoAutoPrice@CCoordinateCalculator@@QBE?AVCPoint@@ABVCCoordinateCalculatorData@@ABVCCoordinate@@@Z DD 019930522H
	DD	02H
	DD	FLAT:__unwindtable$?RelativeToAbsolute_NoAutoPrice@CCoordinateCalculator@@QBE?AVCPoint@@ABVCCoordinateCalculatorData@@ABVCCoordinate@@@Z
	DD	2 DUP(00H)
	DD	2 DUP(00H)
	DD	00H
	DD	01H
xdata$x	ENDS
;	COMDAT xdata$x
xdata$x	SEGMENT
__unwindtable$?GetDisplayDataCurrentIndex@CCoordinateCalculator@@ABEHPAUIPacket133101@@NV?$CStringT@DV?$StrTraitMFC_DLL@DV?$ChTraitsCRT@D@ATL@@@@@ATL@@@Z DD 0ffffffffH
	DD	FLAT:__unwindfunclet$?GetDisplayDataCurrentIndex@CCoordinateCalculator@@ABEHPAUIPacket133101@@NV?$CStringT@DV?$StrTraitMFC_DLL@DV?$ChTraitsCRT@D@ATL@@@@@ATL@@@Z$0
__ehfuncinfo$?GetDisplayDataCurrentIndex@CCoordinateCalculator@@ABEHPAUIPacket133101@@NV?$CStringT@DV?$StrTraitMFC_DLL@DV?$ChTraitsCRT@D@ATL@@@@@ATL@@@Z DD 019930522H
	DD	01H
	DD	FLAT:__unwindtable$?GetDisplayDataCurrentIndex@CCoordinateCalculator@@ABEHPAUIPacket133101@@NV?$CStringT@DV?$StrTraitMFC_DLL@DV?$ChTraitsCRT@D@ATL@@@@@ATL@@@Z
	DD	2 DUP(00H)
	DD	2 DUP(00H)
	DD	00H
	DD	01H
xdata$x	ENDS
;	COMDAT xdata$x
xdata$x	SEGMENT
__ehfuncinfo$?GetGap@CCoordinateCalculator@@QBE?AVCCoordinate@@ABVCCoordinateCalculatorData@@ABVCPoint@@1@Z DD 019930522H
	DD	012H
	DD	FLAT:__unwindtable$?GetGap@CCoordinateCalculator@@QBE?AVCCoordinate@@ABVCCoordinateCalculatorData@@ABVCPoint@@1@Z
	DD	2 DUP(00H)
	DD	2 DUP(00H)
	DD	00H
	DD	01H
__unwindtable$?GetGap@CCoordinateCalculator@@QBE?AVCCoordinate@@ABVCCoordinateCalculatorData@@ABVCPoint@@1@Z DD 0ffffffffH
	DD	FLAT:__unwindfunclet$?GetGap@CCoordinateCalculator@@QBE?AVCCoordinate@@ABVCCoordinateCalculatorData@@ABVCPoint@@1@Z$0
	DD	00H
	DD	FLAT:__unwindfunclet$?GetGap@CCoordinateCalculator@@QBE?AVCCoordinate@@ABVCCoordinateCalculatorData@@ABVCPoint@@1@Z$2
	DD	01H
	DD	FLAT:__unwindfunclet$?GetGap@CCoordinateCalculator@@QBE?AVCCoordinate@@ABVCCoordinateCalculatorData@@ABVCPoint@@1@Z$3
	DD	02H
	DD	FLAT:__unwindfunclet$?GetGap@CCoordinateCalculator@@QBE?AVCCoordinate@@ABVCCoordinateCalculatorData@@ABVCPoint@@1@Z$4
	DD	02H
	DD	FLAT:__unwindfunclet$?GetGap@CCoordinateCalculator@@QBE?AVCCoordinate@@ABVCCoordinateCalculatorData@@ABVCPoint@@1@Z$5
	DD	04H
	DD	FLAT:__unwindfunclet$?GetGap@CCoordinateCalculator@@QBE?AVCCoordinate@@ABVCCoordinateCalculatorData@@ABVCPoint@@1@Z$6
	DD	05H
	DD	FLAT:__unwindfunclet$?GetGap@CCoordinateCalculator@@QBE?AVCCoordinate@@ABVCCoordinateCalculatorData@@ABVCPoint@@1@Z$7
	DD	05H
	DD	FLAT:__unwindfunclet$?GetGap@CCoordinateCalculator@@QBE?AVCCoordinate@@ABVCCoordinateCalculatorData@@ABVCPoint@@1@Z$18
	DD	05H
	DD	FLAT:__unwindfunclet$?GetGap@CCoordinateCalculator@@QBE?AVCCoordinate@@ABVCCoordinateCalculatorData@@ABVCPoint@@1@Z$8
	DD	05H
	DD	FLAT:__unwindfunclet$?GetGap@CCoordinateCalculator@@QBE?AVCCoordinate@@ABVCCoordinateCalculatorData@@ABVCPoint@@1@Z$19
	DD	05H
	DD	FLAT:__unwindfunclet$?GetGap@CCoordinateCalculator@@QBE?AVCCoordinate@@ABVCCoordinateCalculatorData@@ABVCPoint@@1@Z$9
	DD	02H
	DD	FLAT:__unwindfunclet$?GetGap@CCoordinateCalculator@@QBE?AVCCoordinate@@ABVCCoordinateCalculatorData@@ABVCPoint@@1@Z$10
	DD	02H
	DD	FLAT:__unwindfunclet$?GetGap@CCoordinateCalculator@@QBE?AVCCoordinate@@ABVCCoordinateCalculatorData@@ABVCPoint@@1@Z$11
	DD	0cH
	DD	FLAT:__unwindfunclet$?GetGap@CCoordinateCalculator@@QBE?AVCCoordinate@@ABVCCoordinateCalculatorData@@ABVCPoint@@1@Z$12
	DD	0dH
	DD	FLAT:__unwindfunclet$?GetGap@CCoordinateCalculator@@QBE?AVCCoordinate@@ABVCCoordinateCalculatorData@@ABVCPoint@@1@Z$13
	DD	0eH
	DD	FLAT:__unwindfunclet$?GetGap@CCoordinateCalculator@@QBE?AVCCoordinate@@ABVCCoordinateCalculatorData@@ABVCPoint@@1@Z$14
	DD	0fH
	DD	FLAT:__unwindfunclet$?GetGap@CCoordinateCalculator@@QBE?AVCCoordinate@@ABVCCoordinateCalculatorData@@ABVCPoint@@1@Z$15
	DD	00H
	DD	FLAT:___std_terminate
xdata$x	ENDS
;	COMDAT xdata$x
xdata$x	SEGMENT
__unwindtable$?AbsoluteToAbsolute@CCoordinateCalculator@@QBE?AVCPoint@@ABVCCoordinateCalculatorData@@ABV2@@Z DD 0ffffffffH
	DD	FLAT:__unwindfunclet$?AbsoluteToAbsolute@CCoordinateCalculator@@QBE?AVCPoint@@ABVCCoordinateCalculatorData@@ABV2@@Z$0
__ehfuncinfo$?AbsoluteToAbsolute@CCoordinateCalculator@@QBE?AVCPoint@@ABVCCoordinateCalculatorData@@ABV2@@Z DD 019930522H
	DD	01H
	DD	FLAT:__unwindtable$?AbsoluteToAbsolute@CCoordinateCalculator@@QBE?AVCPoint@@ABVCCoordinateCalculatorData@@ABV2@@Z
	DD	2 DUP(00H)
	DD	2 DUP(00H)
	DD	00H
	DD	01H
xdata$x	ENDS
;	COMDAT xdata$x
xdata$x	SEGMENT
__ehfuncinfo$?RelativeToAbsolute@CCoordinateCalculator@@QBE?AVCPoint@@ABVCCoordinateCalculatorData@@ABVCCoordinate@@@Z DD 019930522H
	DD	0aH
	DD	FLAT:__unwindtable$?RelativeToAbsolute@CCoordinateCalculator@@QBE?AVCPoint@@ABVCCoordinateCalculatorData@@ABVCCoordinate@@@Z
	DD	2 DUP(00H)
	DD	2 DUP(00H)
	DD	00H
	DD	01H
__unwindtable$?RelativeToAbsolute@CCoordinateCalculator@@QBE?AVCPoint@@ABVCCoordinateCalculatorData@@ABVCCoordinate@@@Z DD 0ffffffffH
	DD	FLAT:__unwindfunclet$?RelativeToAbsolute@CCoordinateCalculator@@QBE?AVCPoint@@ABVCCoordinateCalculatorData@@ABVCCoordinate@@@Z$0
	DD	0ffffffffH
	DD	FLAT:__unwindfunclet$?RelativeToAbsolute@CCoordinateCalculator@@QBE?AVCPoint@@ABVCCoordinateCalculatorData@@ABVCCoordinate@@@Z$6
	DD	0ffffffffH
	DD	FLAT:__unwindfunclet$?RelativeToAbsolute@CCoordinateCalculator@@QBE?AVCPoint@@ABVCCoordinateCalculatorData@@ABVCCoordinate@@@Z$1
	DD	02H
	DD	FLAT:__unwindfunclet$?RelativeToAbsolute@CCoordinateCalculator@@QBE?AVCPoint@@ABVCCoordinateCalculatorData@@ABVCCoordinate@@@Z$2
	DD	03H
	DD	FLAT:__unwindfunclet$?RelativeToAbsolute@CCoordinateCalculator@@QBE?AVCPoint@@ABVCCoordinateCalculatorData@@ABVCCoordinate@@@Z$3
	DD	04H
	DD	FLAT:__unwindfunclet$?RelativeToAbsolute@CCoordinateCalculator@@QBE?AVCPoint@@ABVCCoordinateCalculatorData@@ABVCCoordinate@@@Z$4
	DD	05H
	DD	FLAT:__unwindfunclet$?RelativeToAbsolute@CCoordinateCalculator@@QBE?AVCPoint@@ABVCCoordinateCalculatorData@@ABVCCoordinate@@@Z$5
	DD	04H
	DD	FLAT:___std_terminate
	DD	02H
	DD	FLAT:___std_terminate
	DD	0ffffffffH
	DD	FLAT:___std_terminate
xdata$x	ENDS
;	COMDAT xdata$x
xdata$x	SEGMENT
__ehfuncinfo$?AbsoluteToRelativeAutoPrice@CCoordinateCalculator@@QBE?AVCCoordinate@@ABVCCoordinateCalculatorData@@ABVCPoint@@@Z DD 019930522H
	DD	05H
	DD	FLAT:__unwindtable$?AbsoluteToRelativeAutoPrice@CCoordinateCalculator@@QBE?AVCCoordinate@@ABVCCoordinateCalculatorData@@ABVCPoint@@@Z
	DD	2 DUP(00H)
	DD	2 DUP(00H)
	DD	00H
	DD	01H
__unwindtable$?AbsoluteToRelativeAutoPrice@CCoordinateCalculator@@QBE?AVCCoordinate@@ABVCCoordinateCalculatorData@@ABVCPoint@@@Z DD 0ffffffffH
	DD	FLAT:__unwindfunclet$?AbsoluteToRelativeAutoPrice@CCoordinateCalculator@@QBE?AVCCoordinate@@ABVCCoordinateCalculatorData@@ABVCPoint@@@Z$0
	DD	00H
	DD	FLAT:__unwindfunclet$?AbsoluteToRelativeAutoPrice@CCoordinateCalculator@@QBE?AVCCoordinate@@ABVCCoordinateCalculatorData@@ABVCPoint@@@Z$2
	DD	00H
	DD	FLAT:__unwindfunclet$?AbsoluteToRelativeAutoPrice@CCoordinateCalculator@@QBE?AVCCoordinate@@ABVCCoordinateCalculatorData@@ABVCPoint@@@Z$3
	DD	00H
	DD	FLAT:__unwindfunclet$?AbsoluteToRelativeAutoPrice@CCoordinateCalculator@@QBE?AVCCoordinate@@ABVCCoordinateCalculatorData@@ABVCPoint@@@Z$4
	DD	00H
	DD	FLAT:__unwindfunclet$?AbsoluteToRelativeAutoPrice@CCoordinateCalculator@@QBE?AVCCoordinate@@ABVCCoordinateCalculatorData@@ABVCPoint@@@Z$5
xdata$x	ENDS
;	COMDAT xdata$x
xdata$x	SEGMENT
__ehfuncinfo$?AbsoluteToRelative@CCoordinateCalculator@@QBE?AVCCoordinate@@ABVCCoordinateCalculatorData@@ABVCPoint@@@Z DD 019930522H
	DD	0bH
	DD	FLAT:__unwindtable$?AbsoluteToRelative@CCoordinateCalculator@@QBE?AVCCoordinate@@ABVCCoordinateCalculatorData@@ABVCPoint@@@Z
	DD	2 DUP(00H)
	DD	2 DUP(00H)
	DD	00H
	DD	01H
__unwindtable$?AbsoluteToRelative@CCoordinateCalculator@@QBE?AVCCoordinate@@ABVCCoordinateCalculatorData@@ABVCPoint@@@Z DD 0ffffffffH
	DD	FLAT:__unwindfunclet$?AbsoluteToRelative@CCoordinateCalculator@@QBE?AVCCoordinate@@ABVCCoordinateCalculatorData@@ABVCPoint@@@Z$0
	DD	00H
	DD	FLAT:__unwindfunclet$?AbsoluteToRelative@CCoordinateCalculator@@QBE?AVCCoordinate@@ABVCCoordinateCalculatorData@@ABVCPoint@@@Z$2
	DD	00H
	DD	FLAT:__unwindfunclet$?AbsoluteToRelative@CCoordinateCalculator@@QBE?AVCCoordinate@@ABVCCoordinateCalculatorData@@ABVCPoint@@@Z$3
	DD	02H
	DD	FLAT:__unwindfunclet$?AbsoluteToRelative@CCoordinateCalculator@@QBE?AVCCoordinate@@ABVCCoordinateCalculatorData@@ABVCPoint@@@Z$4
	DD	03H
	DD	FLAT:__unwindfunclet$?AbsoluteToRelative@CCoordinateCalculator@@QBE?AVCCoordinate@@ABVCCoordinateCalculatorData@@ABVCPoint@@@Z$5
	DD	00H
	DD	FLAT:___std_terminate
	DD	00H
	DD	FLAT:__unwindfunclet$?AbsoluteToRelative@CCoordinateCalculator@@QBE?AVCCoordinate@@ABVCCoordinateCalculatorData@@ABVCPoint@@@Z$6
	DD	06H
	DD	FLAT:__unwindfunclet$?AbsoluteToRelative@CCoordinateCalculator@@QBE?AVCCoordinate@@ABVCCoordinateCalculatorData@@ABVCPoint@@@Z$7
	DD	07H
	DD	FLAT:__unwindfunclet$?AbsoluteToRelative@CCoordinateCalculator@@QBE?AVCCoordinate@@ABVCCoordinateCalculatorData@@ABVCPoint@@@Z$8
	DD	07H
	DD	FLAT:__unwindfunclet$?AbsoluteToRelative@CCoordinateCalculator@@QBE?AVCCoordinate@@ABVCCoordinateCalculatorData@@ABVCPoint@@@Z$9
	DD	00H
	DD	FLAT:___std_terminate
xdata$x	ENDS
;	COMDAT xdata$x
xdata$x	SEGMENT
__ehfuncinfo$??1ILPCSTR133101@@QAE@XZ DD 019930522H
	DD	00H
	DD	00H
	DD	2 DUP(00H)
	DD	2 DUP(00H)
	DD	00H
	DD	05H
xdata$x	ENDS
; Function compile flags: /Ogtp
;	COMDAT ??1CCoordinate@@QAE@XZ
_TEXT	SEGMENT
??1CCoordinate@@QAE@XZ PROC				; CCoordinate::~CCoordinate, COMDAT
; _this$ = ecx
  00000	83 c1 14	 add	 ecx, 20			; 00000014H
  00003	ff 25 00 00 00
	00		 jmp	 DWORD PTR __imp_??1?$CStringT@DV?$StrTraitMFC_DLL@DV?$ChTraitsCRT@D@ATL@@@@@ATL@@QAE@XZ
??1CCoordinate@@QAE@XZ ENDP				; CCoordinate::~CCoordinate
_TEXT	ENDS
; Function compile flags: /Ogtp
; File D:\git\src\IBK\IBK_DRFN\ProjSrc\SrcChartEx\ChartAddIn\ChartAnalysisToolAddIn\AnalysisTool\CoordinateCalculator.cpp
;	COMDAT ?GetLineVerticalAngle@CSelectableRegionCalculator@@ABENABN@Z
_TEXT	SEGMENT
_dAngle$ = 8						; size = 4
?GetLineVerticalAngle@CSelectableRegionCalculator@@ABENABN@Z PROC ; CSelectableRegionCalculator::GetLineVerticalAngle, COMDAT
; _this$ = ecx

; 691  : {

  00000	55		 push	 ebp
  00001	8b ec		 mov	 ebp, esp

; 692  : 	assert(dAngle != 0.0);
; 693  : 	return (-1.0/dAngle);

  00003	8b 45 08	 mov	 eax, DWORD PTR _dAngle$[ebp]
  00006	dd 05 00 00 00
	00		 fld	 QWORD PTR __real@bff0000000000000
  0000c	dc 30		 fdiv	 QWORD PTR [eax]

; 694  : }

  0000e	5d		 pop	 ebp
  0000f	c2 04 00	 ret	 4
?GetLineVerticalAngle@CSelectableRegionCalculator@@ABENABN@Z ENDP ; CSelectableRegionCalculator::GetLineVerticalAngle
_TEXT	ENDS
; Function compile flags: /Ogtp
; File D:\git\src\IBK\IBK_DRFN\ProjSrc\SrcChartEx\ChartAddIn\ChartAnalysisToolAddIn\AnalysisTool\CoordinateCalculator.cpp
;	COMDAT ?GetLineAngle@CSelectableRegionCalculator@@ABENABVCPoint@@0@Z
_TEXT	SEGMENT
tv172 = -8						; size = 8
_point1$ = 8						; size = 4
_point2$ = 12						; size = 4
?GetLineAngle@CSelectableRegionCalculator@@ABENABVCPoint@@0@Z PROC ; CSelectableRegionCalculator::GetLineAngle, COMDAT
; _this$ = ecx

; 684  : {

  00000	55		 push	 ebp
  00001	8b ec		 mov	 ebp, esp
  00003	83 ec 08	 sub	 esp, 8

; 685  : 	return ((double)(point2.y - point1.y) / (double)(point2.x - point1.x));

  00006	8b 55 0c	 mov	 edx, DWORD PTR _point2$[ebp]
  00009	8b 4d 08	 mov	 ecx, DWORD PTR _point1$[ebp]
  0000c	8b 42 04	 mov	 eax, DWORD PTR [edx+4]
  0000f	2b 41 04	 sub	 eax, DWORD PTR [ecx+4]
  00012	66 0f 6e c8	 movd	 xmm1, eax
  00016	8b 02		 mov	 eax, DWORD PTR [edx]
  00018	2b 01		 sub	 eax, DWORD PTR [ecx]
  0001a	f3 0f e6 c9	 cvtdq2pd xmm1, xmm1
  0001e	66 0f 6e c0	 movd	 xmm0, eax
  00022	f3 0f e6 c0	 cvtdq2pd xmm0, xmm0
  00026	f2 0f 5e c8	 divsd	 xmm1, xmm0
  0002a	f2 0f 11 4d f8	 movsd	 QWORD PTR tv172[ebp], xmm1
  0002f	dd 45 f8	 fld	 QWORD PTR tv172[ebp]

; 686  : }

  00032	8b e5		 mov	 esp, ebp
  00034	5d		 pop	 ebp
  00035	c2 08 00	 ret	 8
?GetLineAngle@CSelectableRegionCalculator@@ABENABVCPoint@@0@Z ENDP ; CSelectableRegionCalculator::GetLineAngle
_TEXT	ENDS
; Function compile flags: /Ogtp
; File D:\git\src\IBK\IBK_DRFN\ProjSrc\SrcChartEx\ChartAddIn\ChartAnalysisToolAddIn\AnalysisTool\CoordinateCalculator.cpp
;	COMDAT ?GetVerticalPointsFromLength@CSelectableRegionCalculator@@ABEXABVCPoint@@0AAV2@1@Z
_TEXT	SEGMENT
_lineAngle$1$ = -16					; size = 8
_x$1$ = -8						; size = 8
tv237 = -8						; size = 8
_pt1$ = 8						; size = 4
_pt2$ = 12						; size = 4
_selectableRegionPt1$ = 16				; size = 4
_selectableRegionPt2$ = 20				; size = 4
?GetVerticalPointsFromLength@CSelectableRegionCalculator@@ABEXABVCPoint@@0AAV2@1@Z PROC ; CSelectableRegionCalculator::GetVerticalPointsFromLength, COMDAT
; _this$ = ecx

; 669  : {

  00000	55		 push	 ebp
  00001	8b ec		 mov	 ebp, esp
  00003	83 e4 f8	 and	 esp, -8			; fffffff8H
  00006	83 ec 14	 sub	 esp, 20			; 00000014H

; 685  : 	return ((double)(point2.y - point1.y) / (double)(point2.x - point1.x));

  00009	8b 55 08	 mov	 edx, DWORD PTR _pt1$[ebp]

; 669  : {

  0000c	56		 push	 esi

; 685  : 	return ((double)(point2.y - point1.y) / (double)(point2.x - point1.x));

  0000d	8b 75 0c	 mov	 esi, DWORD PTR _pt2$[ebp]
  00010	8b 46 04	 mov	 eax, DWORD PTR [esi+4]
  00013	2b 42 04	 sub	 eax, DWORD PTR [edx+4]
  00016	66 0f 6e c8	 movd	 xmm1, eax
  0001a	8b 06		 mov	 eax, DWORD PTR [esi]
  0001c	2b 02		 sub	 eax, DWORD PTR [edx]
  0001e	f3 0f e6 c9	 cvtdq2pd xmm1, xmm1
  00022	66 0f 6e c0	 movd	 xmm0, eax
  00026	f3 0f e6 c0	 cvtdq2pd xmm0, xmm0
  0002a	f2 0f 5e c8	 divsd	 xmm1, xmm0

; 693  : 	return (-1.0/dAngle);

  0002e	f2 0f 10 05 00
	00 00 00	 movsd	 xmm0, QWORD PTR __real@bff0000000000000
  00036	f2 0f 5e c1	 divsd	 xmm0, xmm1

; 670  : 	// 두점의 수직기울기 구한다. == 현재 구할 두 좌표의 기울기
; 671  : 	double lineAngle = GetLineVerticalAngle(GetLineAngle(pt1, pt2));
; 672  : 
; 673  : 	double x = 0.0;
; 674  : 	x = sqrt(fabs(pow(m_nProximityRange, 2) / (pow(lineAngle, 2) +1)));

  0003a	f2 0f 10 0d 00
	00 00 00	 movsd	 xmm1, QWORD PTR __real@4000000000000000

; 693  : 	return (-1.0/dAngle);

  00042	f2 0f 11 44 24
	08		 movsd	 QWORD PTR _lineAngle$1$[esp+24], xmm0
  00048	66 0f 6e 01	 movd	 xmm0, DWORD PTR [ecx]

; 670  : 	// 두점의 수직기울기 구한다. == 현재 구할 두 좌표의 기울기
; 671  : 	double lineAngle = GetLineVerticalAngle(GetLineAngle(pt1, pt2));
; 672  : 
; 673  : 	double x = 0.0;
; 674  : 	x = sqrt(fabs(pow(m_nProximityRange, 2) / (pow(lineAngle, 2) +1)));

  0004c	f3 0f e6 c0	 cvtdq2pd xmm0, xmm0
  00050	e8 00 00 00 00	 call	 __libm_sse2_pow_precise
  00055	f2 0f 10 0d 00
	00 00 00	 movsd	 xmm1, QWORD PTR __real@4000000000000000
  0005d	f2 0f 11 44 24
	10		 movsd	 QWORD PTR tv237[esp+24], xmm0
  00063	f2 0f 10 44 24
	08		 movsd	 xmm0, QWORD PTR _lineAngle$1$[esp+24]
  00069	e8 00 00 00 00	 call	 __libm_sse2_pow_precise
  0006e	f2 0f 58 05 00
	00 00 00	 addsd	 xmm0, QWORD PTR __real@3ff0000000000000
  00076	f2 0f 10 54 24
	10		 movsd	 xmm2, QWORD PTR tv237[esp+24]
  0007c	0f 57 c9	 xorps	 xmm1, xmm1
  0007f	f2 0f 5e d0	 divsd	 xmm2, xmm0
  00083	0f 54 15 00 00
	00 00		 andps	 xmm2, QWORD PTR __xmm@7fffffffffffffff7fffffffffffffff
  0008a	0f 28 c2	 movaps	 xmm0, xmm2
  0008d	66 0f 2e c8	 ucomisd xmm1, xmm0
  00091	77 06		 ja	 SHORT $LN11@GetVertica
  00093	f2 0f 51 c0	 sqrtsd	 xmm0, xmm0
  00097	eb 05		 jmp	 SHORT $LN12@GetVertica
$LN11@GetVertica:
  00099	e8 00 00 00 00	 call	 __libm_sse2_sqrt_precise
$LN12@GetVertica:

; 675  : 
; 676  : 	selectableRegionPt1 = CPoint(CMath::Round(x), CMath::Round(lineAngle * x));

  0009e	0f 28 c8	 movaps	 xmm1, xmm0
  000a1	f2 0f 11 44 24
	10		 movsd	 QWORD PTR _x$1$[esp+24], xmm0
  000a7	f2 0f 59 4c 24
	08		 mulsd	 xmm1, QWORD PTR _lineAngle$1$[esp+24]
  000ad	83 ec 08	 sub	 esp, 8
  000b0	f2 0f 11 0c 24	 movsd	 QWORD PTR [esp], xmm1
  000b5	e8 00 00 00 00	 call	 ?Round@CMath@@SAHN@Z	; CMath::Round
  000ba	f2 0f 10 44 24
	18		 movsd	 xmm0, QWORD PTR _x$1$[esp+32]
  000c0	8b f0		 mov	 esi, eax
  000c2	f2 0f 11 04 24	 movsd	 QWORD PTR [esp], xmm0
  000c7	e8 00 00 00 00	 call	 ?Round@CMath@@SAHN@Z	; CMath::Round
  000cc	8b 4d 10	 mov	 ecx, DWORD PTR _selectableRegionPt1$[ebp]

; 677  : 	selectableRegionPt2 = CPoint(-selectableRegionPt1.x, -selectableRegionPt1.y);

  000cf	8b d0		 mov	 edx, eax
  000d1	83 c4 08	 add	 esp, 8
  000d4	f7 da		 neg	 edx
  000d6	89 01		 mov	 DWORD PTR [ecx], eax
  000d8	8b 45 14	 mov	 eax, DWORD PTR _selectableRegionPt2$[ebp]
  000db	89 71 04	 mov	 DWORD PTR [ecx+4], esi
  000de	f7 de		 neg	 esi
  000e0	89 70 04	 mov	 DWORD PTR [eax+4], esi
  000e3	89 10		 mov	 DWORD PTR [eax], edx

; 678  : }

  000e5	5e		 pop	 esi
  000e6	8b e5		 mov	 esp, ebp
  000e8	5d		 pop	 ebp
  000e9	c2 10 00	 ret	 16			; 00000010H
?GetVerticalPointsFromLength@CSelectableRegionCalculator@@ABEXABVCPoint@@0AAV2@1@Z ENDP ; CSelectableRegionCalculator::GetVerticalPointsFromLength
_TEXT	ENDS
; Function compile flags: /Ogtp
; File D:\git\src\IBK\IBK_DRFN\ProjSrc\SrcChartEx\ChartAddIn\ChartAnalysisToolAddIn\AnalysisTool\CoordinateCalculator.cpp
;	COMDAT ?GetPointOnMovedOrigin@CSelectableRegionCalculator@@ABE?AUtagPOINT@@ABVCPoint@@0@Z
_TEXT	SEGMENT
___$ReturnUdt$ = 8					; size = 4
_origin$ = 12						; size = 4
_point$ = 16						; size = 4
?GetPointOnMovedOrigin@CSelectableRegionCalculator@@ABE?AUtagPOINT@@ABVCPoint@@0@Z PROC ; CSelectableRegionCalculator::GetPointOnMovedOrigin, COMDAT
; _this$ = ecx

; 656  : {

  00000	55		 push	 ebp
  00001	8b ec		 mov	 ebp, esp

; 657  : 	POINT movePoint;
; 658  : 	movePoint.x = origin.x + point.x;

  00003	8b 55 10	 mov	 edx, DWORD PTR _point$[ebp]
  00006	8b 45 08	 mov	 eax, DWORD PTR ___$ReturnUdt$[ebp]
  00009	56		 push	 esi
  0000a	8b 75 0c	 mov	 esi, DWORD PTR _origin$[ebp]
  0000d	8b 0e		 mov	 ecx, DWORD PTR [esi]
  0000f	03 0a		 add	 ecx, DWORD PTR [edx]
  00011	89 08		 mov	 DWORD PTR [eax], ecx

; 659  : 	movePoint.y = origin.y + point.y;

  00013	8b 4e 04	 mov	 ecx, DWORD PTR [esi+4]
  00016	03 4a 04	 add	 ecx, DWORD PTR [edx+4]
  00019	89 48 04	 mov	 DWORD PTR [eax+4], ecx

; 660  : 
; 661  : 	return movePoint;

  0001c	5e		 pop	 esi

; 662  : }

  0001d	5d		 pop	 ebp
  0001e	c2 0c 00	 ret	 12			; 0000000cH
?GetPointOnMovedOrigin@CSelectableRegionCalculator@@ABE?AUtagPOINT@@ABVCPoint@@0@Z ENDP ; CSelectableRegionCalculator::GetPointOnMovedOrigin
_TEXT	ENDS
; Function compile flags: /Ogtp
; File D:\git\src\IBK\IBK_DRFN\ProjSrc\SrcChartEx\ChartAddIn\ChartAnalysisToolAddIn\AnalysisTool\CoordinateCalculator.cpp
; File C:\Program Files (x86)\Microsoft Visual Studio\2019\Community\VC\Tools\MSVC\14.29.30133\atlmfc\include\atltypes.h
; File D:\git\src\IBK\IBK_DRFN\ProjSrc\SrcChartEx\ChartAddIn\ChartAnalysisToolAddIn\AnalysisTool\CoordinateCalculator.cpp
; File C:\Program Files (x86)\Microsoft Visual Studio\2019\Community\VC\Tools\MSVC\14.29.30133\atlmfc\include\atltypes.h
; File D:\git\src\IBK\IBK_DRFN\ProjSrc\SrcChartEx\ChartAddIn\ChartAnalysisToolAddIn\AnalysisTool\CoordinateCalculator.cpp
; File C:\Program Files (x86)\Microsoft Visual Studio\2019\Community\VC\Tools\MSVC\14.29.30133\atlmfc\include\afxwin1.inl
; File D:\git\src\IBK\IBK_DRFN\ProjSrc\SrcChartEx\ChartAddIn\ChartAnalysisToolAddIn\AnalysisTool\CoordinateCalculator.cpp
; File C:\Program Files (x86)\Microsoft Visual Studio\2019\Community\VC\Tools\MSVC\14.29.30133\atlmfc\include\afxwin1.inl
; File D:\git\src\IBK\IBK_DRFN\ProjSrc\SrcChartEx\ChartAddIn\ChartAnalysisToolAddIn\AnalysisTool\CoordinateCalculator.cpp
; File C:\Program Files (x86)\Microsoft Visual Studio\2019\Community\VC\Tools\MSVC\14.29.30133\atlmfc\include\afxwin1.inl
; File D:\git\src\IBK\IBK_DRFN\ProjSrc\SrcChartEx\ChartAddIn\ChartAnalysisToolAddIn\AnalysisTool\CoordinateCalculator.cpp
;	COMDAT ?GetAngleLineRegion@CSelectableRegionCalculator@@ABEXABVCPoint@@0AAVCRgn@@@Z
_TEXT	SEGMENT
_x$1$ = -72						; size = 8
$T2$sroa$195$1$ = -72					; size = 4
tv454 = -64						; size = 8
_initY$1$ = -64						; size = 4
_lineAngle$1$ = -56					; size = 8
$T1$sroa$362$1$ = -56					; size = 4
_point1$GSCopy$1$ = -48					; size = 4
_point2$GSCopy$1$ = -44					; size = 4
_region$GSCopy$1$ = -40					; size = 4
_selectableRegionPoints$ = -36				; size = 32
__$ArrayPad$ = -4					; size = 4
_point1$ = 8						; size = 4
_point2$ = 12						; size = 4
_region$ = 16						; size = 4
?GetAngleLineRegion@CSelectableRegionCalculator@@ABEXABVCPoint@@0AAVCRgn@@@Z PROC ; CSelectableRegionCalculator::GetAngleLineRegion, COMDAT
; _this$ = ecx

; 637  : {

  00000	55		 push	 ebp
  00001	8b ec		 mov	 ebp, esp
  00003	83 e4 f8	 and	 esp, -8			; fffffff8H
  00006	83 ec 48	 sub	 esp, 72			; 00000048H
  00009	a1 00 00 00 00	 mov	 eax, DWORD PTR ___security_cookie
  0000e	33 c4		 xor	 eax, esp
  00010	89 44 24 44	 mov	 DWORD PTR __$ArrayPad$[esp+72], eax
  00014	8b 55 08	 mov	 edx, DWORD PTR _point1$[ebp]
  00017	8b 45 10	 mov	 eax, DWORD PTR _region$[ebp]
  0001a	56		 push	 esi
  0001b	8b 75 0c	 mov	 esi, DWORD PTR _point2$[ebp]
  0001e	89 44 24 24	 mov	 DWORD PTR _region$GSCopy$1$[esp+76], eax
  00022	57		 push	 edi
  00023	89 54 24 20	 mov	 DWORD PTR _point1$GSCopy$1$[esp+80], edx

; 685  : 	return ((double)(point2.y - point1.y) / (double)(point2.x - point1.x));

  00027	8b 46 04	 mov	 eax, DWORD PTR [esi+4]
  0002a	2b 42 04	 sub	 eax, DWORD PTR [edx+4]

; 637  : {

  0002d	89 74 24 24	 mov	 DWORD PTR _point2$GSCopy$1$[esp+80], esi
  00031	66 0f 6e c8	 movd	 xmm1, eax

; 685  : 	return ((double)(point2.y - point1.y) / (double)(point2.x - point1.x));

  00035	8b 06		 mov	 eax, DWORD PTR [esi]
  00037	2b 02		 sub	 eax, DWORD PTR [edx]
  00039	f3 0f e6 c9	 cvtdq2pd xmm1, xmm1
  0003d	66 0f 6e c0	 movd	 xmm0, eax
  00041	f3 0f e6 c0	 cvtdq2pd xmm0, xmm0
  00045	f2 0f 5e c8	 divsd	 xmm1, xmm0

; 693  : 	return (-1.0/dAngle);

  00049	f2 0f 10 05 00
	00 00 00	 movsd	 xmm0, QWORD PTR __real@bff0000000000000
  00051	f2 0f 5e c1	 divsd	 xmm0, xmm1

; 674  : 	x = sqrt(fabs(pow(m_nProximityRange, 2) / (pow(lineAngle, 2) +1)));

  00055	f2 0f 10 0d 00
	00 00 00	 movsd	 xmm1, QWORD PTR __real@4000000000000000

; 693  : 	return (-1.0/dAngle);

  0005d	f2 0f 11 44 24
	18		 movsd	 QWORD PTR _lineAngle$1$[esp+80], xmm0
  00063	66 0f 6e 01	 movd	 xmm0, DWORD PTR [ecx]

; 674  : 	x = sqrt(fabs(pow(m_nProximityRange, 2) / (pow(lineAngle, 2) +1)));

  00067	f3 0f e6 c0	 cvtdq2pd xmm0, xmm0
  0006b	e8 00 00 00 00	 call	 __libm_sse2_pow_precise
  00070	f2 0f 10 0d 00
	00 00 00	 movsd	 xmm1, QWORD PTR __real@4000000000000000
  00078	f2 0f 11 44 24
	10		 movsd	 QWORD PTR tv454[esp+80], xmm0
  0007e	f2 0f 10 44 24
	18		 movsd	 xmm0, QWORD PTR _lineAngle$1$[esp+80]
  00084	e8 00 00 00 00	 call	 __libm_sse2_pow_precise
  00089	f2 0f 58 05 00
	00 00 00	 addsd	 xmm0, QWORD PTR __real@3ff0000000000000
  00091	f2 0f 10 54 24
	10		 movsd	 xmm2, QWORD PTR tv454[esp+80]
  00097	0f 57 c9	 xorps	 xmm1, xmm1
  0009a	f2 0f 5e d0	 divsd	 xmm2, xmm0
  0009e	0f 54 15 00 00
	00 00		 andps	 xmm2, QWORD PTR __xmm@7fffffffffffffff7fffffffffffffff
  000a5	0f 28 c2	 movaps	 xmm0, xmm2
  000a8	66 0f 2e c8	 ucomisd xmm1, xmm0
  000ac	77 06		 ja	 SHORT $LN27@GetAngleLi
  000ae	f2 0f 51 c0	 sqrtsd	 xmm0, xmm0
  000b2	eb 05		 jmp	 SHORT $LN28@GetAngleLi
$LN27@GetAngleLi:
  000b4	e8 00 00 00 00	 call	 __libm_sse2_sqrt_precise
$LN28@GetAngleLi:

; 675  : 
; 676  : 	selectableRegionPt1 = CPoint(CMath::Round(x), CMath::Round(lineAngle * x));

  000b9	0f 28 c8	 movaps	 xmm1, xmm0
  000bc	f2 0f 11 44 24
	08		 movsd	 QWORD PTR _x$1$[esp+80], xmm0
  000c2	f2 0f 59 4c 24
	18		 mulsd	 xmm1, QWORD PTR _lineAngle$1$[esp+80]
  000c8	83 ec 08	 sub	 esp, 8
  000cb	f2 0f 11 0c 24	 movsd	 QWORD PTR [esp], xmm1
  000d0	e8 00 00 00 00	 call	 ?Round@CMath@@SAHN@Z	; CMath::Round
  000d5	f2 0f 10 44 24
	10		 movsd	 xmm0, QWORD PTR _x$1$[esp+88]
  000db	8b f0		 mov	 esi, eax
  000dd	89 74 24 18	 mov	 DWORD PTR _initY$1$[esp+88], esi
  000e1	f2 0f 11 04 24	 movsd	 QWORD PTR [esp], xmm0
  000e6	e8 00 00 00 00	 call	 ?Round@CMath@@SAHN@Z	; CMath::Round

; 658  : 	movePoint.x = origin.x + point.x;

  000eb	8b 54 24 28	 mov	 edx, DWORD PTR _point1$GSCopy$1$[esp+88]
; File C:\Program Files (x86)\Microsoft Visual Studio\2019\Community\VC\Tools\MSVC\14.29.30133\atlmfc\include\atltypes.h

; 408  : 	x = initX;

  000ef	8b c8		 mov	 ecx, eax
; File D:\git\src\IBK\IBK_DRFN\ProjSrc\SrcChartEx\ChartAddIn\ChartAnalysisToolAddIn\AnalysisTool\CoordinateCalculator.cpp

; 659  : 	movePoint.y = origin.y + point.y;

  000f1	8b 44 24 18	 mov	 eax, DWORD PTR _initY$1$[esp+88]

; 677  : 	selectableRegionPt2 = CPoint(-selectableRegionPt1.x, -selectableRegionPt1.y);

  000f5	8b f9		 mov	 edi, ecx
  000f7	f7 de		 neg	 esi
; File C:\Program Files (x86)\Microsoft Visual Studio\2019\Community\VC\Tools\MSVC\14.29.30133\atlmfc\include\atltypes.h

; 408  : 	x = initX;

  000f9	89 4c 24 20	 mov	 DWORD PTR $T1$sroa$362$1$[esp+88], ecx
; File D:\git\src\IBK\IBK_DRFN\ProjSrc\SrcChartEx\ChartAddIn\ChartAnalysisToolAddIn\AnalysisTool\CoordinateCalculator.cpp

; 677  : 	selectableRegionPt2 = CPoint(-selectableRegionPt1.x, -selectableRegionPt1.y);

  000fd	89 74 24 10	 mov	 DWORD PTR $T2$sroa$195$1$[esp+88], esi
  00101	f7 df		 neg	 edi

; 658  : 	movePoint.x = origin.x + point.x;

  00103	8b 32		 mov	 esi, DWORD PTR [edx]

; 676  : 	selectableRegionPt1 = CPoint(CMath::Round(x), CMath::Round(lineAngle * x));

  00105	83 c4 08	 add	 esp, 8

; 659  : 	movePoint.y = origin.y + point.y;

  00108	8b 52 04	 mov	 edx, DWORD PTR [edx+4]
  0010b	03 ce		 add	 ecx, esi
  0010d	03 c2		 add	 eax, edx

; 638  : 	assert(point1.x != point2.x && point1.y != point2.y);
; 639  : 
; 640  : 	// (0, 0)을 기준으로 한 ProximityRange 떨어진 두개의 좌표 구하기.
; 641  : 	CPoint basePt1, basePt2;
; 642  : 	GetVerticalPointsFromLength(point1, point2, basePt1, basePt2);
; 643  : 
; 644  : 	POINT selectableRegionPoints[4];
; 645  : 	selectableRegionPoints[0] = GetPointOnMovedOrigin(point1, basePt1);

  0010f	89 4c 24 2c	 mov	 DWORD PTR _selectableRegionPoints$[esp+80], ecx
  00113	89 44 24 30	 mov	 DWORD PTR _selectableRegionPoints$[esp+84], eax

; 659  : 	movePoint.y = origin.y + point.y;

  00117	8b 44 24 08	 mov	 eax, DWORD PTR $T2$sroa$195$1$[esp+80]
  0011b	8d 0c 3e	 lea	 ecx, DWORD PTR [esi+edi]

; 658  : 	movePoint.x = origin.x + point.x;

  0011e	8b 74 24 24	 mov	 esi, DWORD PTR _point2$GSCopy$1$[esp+80]

; 659  : 	movePoint.y = origin.y + point.y;

  00122	03 c2		 add	 eax, edx

; 646  : 	selectableRegionPoints[1] = GetPointOnMovedOrigin(point1, basePt2);

  00124	89 44 24 38	 mov	 DWORD PTR _selectableRegionPoints$[esp+92], eax

; 659  : 	movePoint.y = origin.y + point.y;

  00128	8b 44 24 08	 mov	 eax, DWORD PTR $T2$sroa$195$1$[esp+80]
; File C:\Program Files (x86)\Microsoft Visual Studio\2019\Community\VC\Tools\MSVC\14.29.30133\atlmfc\include\afxwin1.inl

; 276  : 	{ return Attach(::CreatePolygonRgn(lpPoints, nCount, nMode)); }

  0012c	6a 01		 push	 1
; File D:\git\src\IBK\IBK_DRFN\ProjSrc\SrcChartEx\ChartAddIn\ChartAnalysisToolAddIn\AnalysisTool\CoordinateCalculator.cpp

; 658  : 	movePoint.x = origin.x + point.x;

  0012e	8b 16		 mov	 edx, DWORD PTR [esi]

; 659  : 	movePoint.y = origin.y + point.y;

  00130	8b 76 04	 mov	 esi, DWORD PTR [esi+4]
  00133	03 c6		 add	 eax, esi

; 647  : 	selectableRegionPoints[2] = GetPointOnMovedOrigin(point2, basePt2);

  00135	89 44 24 44	 mov	 DWORD PTR _selectableRegionPoints$[esp+104], eax

; 659  : 	movePoint.y = origin.y + point.y;

  00139	8b 44 24 14	 mov	 eax, DWORD PTR _initY$1$[esp+84]
  0013d	03 c6		 add	 eax, esi

; 646  : 	selectableRegionPoints[1] = GetPointOnMovedOrigin(point1, basePt2);

  0013f	89 4c 24 38	 mov	 DWORD PTR _selectableRegionPoints$[esp+92], ecx

; 658  : 	movePoint.x = origin.x + point.x;

  00143	8d 0c 3a	 lea	 ecx, DWORD PTR [edx+edi]

; 648  : 	selectableRegionPoints[3] = GetPointOnMovedOrigin(point2, basePt1);

  00146	89 44 24 4c	 mov	 DWORD PTR _selectableRegionPoints$[esp+112], eax

; 658  : 	movePoint.x = origin.x + point.x;

  0014a	03 54 24 1c	 add	 edx, DWORD PTR $T1$sroa$362$1$[esp+84]
; File C:\Program Files (x86)\Microsoft Visual Studio\2019\Community\VC\Tools\MSVC\14.29.30133\atlmfc\include\afxwin1.inl

; 276  : 	{ return Attach(::CreatePolygonRgn(lpPoints, nCount, nMode)); }

  0014e	8d 44 24 30	 lea	 eax, DWORD PTR _selectableRegionPoints$[esp+84]
  00152	6a 04		 push	 4
  00154	50		 push	 eax
; File D:\git\src\IBK\IBK_DRFN\ProjSrc\SrcChartEx\ChartAddIn\ChartAnalysisToolAddIn\AnalysisTool\CoordinateCalculator.cpp

; 647  : 	selectableRegionPoints[2] = GetPointOnMovedOrigin(point2, basePt2);

  00155	89 4c 24 48	 mov	 DWORD PTR _selectableRegionPoints$[esp+108], ecx

; 648  : 	selectableRegionPoints[3] = GetPointOnMovedOrigin(point2, basePt1);

  00159	89 54 24 50	 mov	 DWORD PTR _selectableRegionPoints$[esp+116], edx
; File C:\Program Files (x86)\Microsoft Visual Studio\2019\Community\VC\Tools\MSVC\14.29.30133\atlmfc\include\afxwin1.inl

; 276  : 	{ return Attach(::CreatePolygonRgn(lpPoints, nCount, nMode)); }

  0015d	ff 15 00 00 00
	00		 call	 DWORD PTR __imp__CreatePolygonRgn@12
  00163	8b 4c 24 28	 mov	 ecx, DWORD PTR _region$GSCopy$1$[esp+80]
  00167	50		 push	 eax
  00168	e8 00 00 00 00	 call	 ?Attach@CGdiObject@@QAEHPAX@Z ; CGdiObject::Attach
; File D:\git\src\IBK\IBK_DRFN\ProjSrc\SrcChartEx\ChartAddIn\ChartAnalysisToolAddIn\AnalysisTool\CoordinateCalculator.cpp

; 651  : }

  0016d	8b 4c 24 4c	 mov	 ecx, DWORD PTR __$ArrayPad$[esp+80]
  00171	5f		 pop	 edi
  00172	5e		 pop	 esi
  00173	33 cc		 xor	 ecx, esp
  00175	e8 00 00 00 00	 call	 @__security_check_cookie@4
  0017a	8b e5		 mov	 esp, ebp
  0017c	5d		 pop	 ebp
  0017d	c2 0c 00	 ret	 12			; 0000000cH
?GetAngleLineRegion@CSelectableRegionCalculator@@ABEXABVCPoint@@0AAVCRgn@@@Z ENDP ; CSelectableRegionCalculator::GetAngleLineRegion
_TEXT	ENDS
; Function compile flags: /Ogtp
; File D:\git\src\IBK\IBK_DRFN\ProjSrc\SrcChartEx\ChartAddIn\ChartAnalysisToolAddIn\AnalysisTool\CoordinateCalculator.cpp
; File C:\Program Files (x86)\Microsoft Visual Studio\2019\Community\VC\Tools\MSVC\14.29.30133\atlmfc\include\atltypes.h
; File D:\git\src\IBK\IBK_DRFN\ProjSrc\SrcChartEx\ChartAddIn\ChartAnalysisToolAddIn\AnalysisTool\CoordinateCalculator.cpp
; File C:\Program Files (x86)\Microsoft Visual Studio\2019\Community\VC\Tools\MSVC\14.29.30133\atlmfc\include\atltypes.h
; File D:\git\src\IBK\IBK_DRFN\ProjSrc\SrcChartEx\ChartAddIn\ChartAnalysisToolAddIn\AnalysisTool\CoordinateCalculator.cpp
;	COMDAT ?GetVertLineRegion@CSelectableRegionCalculator@@ABE?AVCRect@@ABVCPoint@@0@Z
_TEXT	SEGMENT
___$ReturnUdt$ = 8					; size = 4
_point1$ = 12						; size = 4
_point2$ = 16						; size = 4
?GetVertLineRegion@CSelectableRegionCalculator@@ABE?AVCRect@@ABVCPoint@@0@Z PROC ; CSelectableRegionCalculator::GetVertLineRegion, COMDAT
; _this$ = ecx

; 626  : {

  00000	55		 push	 ebp
  00001	8b ec		 mov	 ebp, esp

; 629  : 	CRect selectableRegion((point1.x - m_nProximityRange), point1.y, (point1.x + m_nProximityRange +1), point2.y);

  00003	8b 45 0c	 mov	 eax, DWORD PTR _point1$[ebp]
  00006	8b 09		 mov	 ecx, DWORD PTR [ecx]
  00008	53		 push	 ebx
  00009	56		 push	 esi
  0000a	8b 18		 mov	 ebx, DWORD PTR [eax]
; File C:\Program Files (x86)\Microsoft Visual Studio\2019\Community\VC\Tools\MSVC\14.29.30133\atlmfc\include\atltypes.h

; 540  : 	left = l;

  0000c	8b 75 08	 mov	 esi, DWORD PTR ___$ReturnUdt$[ebp]
; File D:\git\src\IBK\IBK_DRFN\ProjSrc\SrcChartEx\ChartAddIn\ChartAnalysisToolAddIn\AnalysisTool\CoordinateCalculator.cpp

; 629  : 	CRect selectableRegion((point1.x - m_nProximityRange), point1.y, (point1.x + m_nProximityRange +1), point2.y);

  0000f	2b d9		 sub	 ebx, ecx
  00011	41		 inc	 ecx
  00012	03 08		 add	 ecx, DWORD PTR [eax]
  00014	57		 push	 edi
; File C:\Program Files (x86)\Microsoft Visual Studio\2019\Community\VC\Tools\MSVC\14.29.30133\atlmfc\include\atltypes.h

; 541  : 	top = t;

  00015	8b 78 04	 mov	 edi, DWORD PTR [eax+4]

; 542  : 	right = r;
; 543  : 	bottom = b;

  00018	8b 45 10	 mov	 eax, DWORD PTR _point2$[ebp]
  0001b	89 1e		 mov	 DWORD PTR [esi], ebx
  0001d	89 7e 04	 mov	 DWORD PTR [esi+4], edi
  00020	89 4e 08	 mov	 DWORD PTR [esi+8], ecx
  00023	8b 40 04	 mov	 eax, DWORD PTR [eax+4]
  00026	89 46 0c	 mov	 DWORD PTR [esi+12], eax

; 884  : 	if (left > right)

  00029	3b d9		 cmp	 ebx, ecx
  0002b	7e 05		 jle	 SHORT $LN6@GetVertLin

; 885  : 	{
; 886  : 		nTemp = left;
; 887  : 		left = right;

  0002d	89 0e		 mov	 DWORD PTR [esi], ecx

; 888  : 		right = nTemp;

  0002f	89 5e 08	 mov	 DWORD PTR [esi+8], ebx
$LN6@GetVertLin:

; 889  : 	}
; 890  : 	if (top > bottom)

  00032	3b f8		 cmp	 edi, eax
  00034	7e 06		 jle	 SHORT $LN9@GetVertLin

; 891  : 	{
; 892  : 		nTemp = top;
; 893  : 		top = bottom;

  00036	89 46 04	 mov	 DWORD PTR [esi+4], eax

; 894  : 		bottom = nTemp;

  00039	89 7e 0c	 mov	 DWORD PTR [esi+12], edi
$LN9@GetVertLin:
  0003c	5f		 pop	 edi
; File D:\git\src\IBK\IBK_DRFN\ProjSrc\SrcChartEx\ChartAddIn\ChartAnalysisToolAddIn\AnalysisTool\CoordinateCalculator.cpp

; 633  : }

  0003d	8b c6		 mov	 eax, esi
  0003f	5e		 pop	 esi
  00040	5b		 pop	 ebx
  00041	5d		 pop	 ebp
  00042	c2 0c 00	 ret	 12			; 0000000cH
?GetVertLineRegion@CSelectableRegionCalculator@@ABE?AVCRect@@ABVCPoint@@0@Z ENDP ; CSelectableRegionCalculator::GetVertLineRegion
_TEXT	ENDS
; Function compile flags: /Ogtp
; File D:\git\src\IBK\IBK_DRFN\ProjSrc\SrcChartEx\ChartAddIn\ChartAnalysisToolAddIn\AnalysisTool\CoordinateCalculator.cpp
; File C:\Program Files (x86)\Microsoft Visual Studio\2019\Community\VC\Tools\MSVC\14.29.30133\atlmfc\include\atltypes.h
; File D:\git\src\IBK\IBK_DRFN\ProjSrc\SrcChartEx\ChartAddIn\ChartAnalysisToolAddIn\AnalysisTool\CoordinateCalculator.cpp
; File C:\Program Files (x86)\Microsoft Visual Studio\2019\Community\VC\Tools\MSVC\14.29.30133\atlmfc\include\atltypes.h
; File D:\git\src\IBK\IBK_DRFN\ProjSrc\SrcChartEx\ChartAddIn\ChartAnalysisToolAddIn\AnalysisTool\CoordinateCalculator.cpp
; File C:\Program Files (x86)\Microsoft Visual Studio\2019\Community\VC\Tools\MSVC\14.29.30133\atlmfc\include\atltypes.h
; File D:\git\src\IBK\IBK_DRFN\ProjSrc\SrcChartEx\ChartAddIn\ChartAnalysisToolAddIn\AnalysisTool\CoordinateCalculator.cpp
; File C:\Program Files (x86)\Microsoft Visual Studio\2019\Community\VC\Tools\MSVC\14.29.30133\atlmfc\include\atltypes.h
; File D:\git\src\IBK\IBK_DRFN\ProjSrc\SrcChartEx\ChartAddIn\ChartAnalysisToolAddIn\AnalysisTool\CoordinateCalculator.cpp
; File C:\Program Files (x86)\Microsoft Visual Studio\2019\Community\VC\Tools\MSVC\14.29.30133\atlmfc\include\atltypes.h
; File D:\git\src\IBK\IBK_DRFN\ProjSrc\SrcChartEx\ChartAddIn\ChartAnalysisToolAddIn\AnalysisTool\CoordinateCalculator.cpp
; File C:\Program Files (x86)\Microsoft Visual Studio\2019\Community\VC\Tools\MSVC\14.29.30133\atlmfc\include\atltypes.h
; File D:\git\src\IBK\IBK_DRFN\ProjSrc\SrcChartEx\ChartAddIn\ChartAnalysisToolAddIn\AnalysisTool\CoordinateCalculator.cpp
; File C:\Program Files (x86)\Microsoft Visual Studio\2019\Community\VC\Tools\MSVC\14.29.30133\atlmfc\include\atltypes.h
; File D:\git\src\IBK\IBK_DRFN\ProjSrc\SrcChartEx\ChartAddIn\ChartAnalysisToolAddIn\AnalysisTool\CoordinateCalculator.cpp
;	COMDAT ?GetHorzLineRegion@CSelectableRegionCalculator@@ABE?AVCRect@@ABVCPoint@@0@Z
_TEXT	SEGMENT
___$ReturnUdt$ = 8					; size = 4
_nTemp$1$ = 12						; size = 4
_point1$ = 12						; size = 4
_point2$ = 16						; size = 4
?GetHorzLineRegion@CSelectableRegionCalculator@@ABE?AVCRect@@ABVCPoint@@0@Z PROC ; CSelectableRegionCalculator::GetHorzLineRegion, COMDAT
; _this$ = ecx

; 615  : {

  00000	55		 push	 ebp
  00001	8b ec		 mov	 ebp, esp
; File C:\Program Files (x86)\Microsoft Visual Studio\2019\Community\VC\Tools\MSVC\14.29.30133\atlmfc\include\atltypes.h

; 540  : 	left = l;

  00003	8b 45 0c	 mov	 eax, DWORD PTR _point1$[ebp]
; File D:\git\src\IBK\IBK_DRFN\ProjSrc\SrcChartEx\ChartAddIn\ChartAnalysisToolAddIn\AnalysisTool\CoordinateCalculator.cpp

; 618  : 	CRect selectableRegion(point1.x, (point1.y - m_nProximityRange), point2.x, (point1.y + m_nProximityRange +1));

  00006	8b 09		 mov	 ecx, DWORD PTR [ecx]
  00008	53		 push	 ebx
  00009	56		 push	 esi
; File C:\Program Files (x86)\Microsoft Visual Studio\2019\Community\VC\Tools\MSVC\14.29.30133\atlmfc\include\atltypes.h

; 540  : 	left = l;

  0000a	8b 75 08	 mov	 esi, DWORD PTR ___$ReturnUdt$[ebp]
  0000d	8b 10		 mov	 edx, DWORD PTR [eax]
  0000f	89 55 0c	 mov	 DWORD PTR _nTemp$1$[ebp], edx
; File D:\git\src\IBK\IBK_DRFN\ProjSrc\SrcChartEx\ChartAddIn\ChartAnalysisToolAddIn\AnalysisTool\CoordinateCalculator.cpp

; 615  : {

  00012	57		 push	 edi
; File C:\Program Files (x86)\Microsoft Visual Studio\2019\Community\VC\Tools\MSVC\14.29.30133\atlmfc\include\atltypes.h

; 540  : 	left = l;

  00013	89 16		 mov	 DWORD PTR [esi], edx
; File D:\git\src\IBK\IBK_DRFN\ProjSrc\SrcChartEx\ChartAddIn\ChartAnalysisToolAddIn\AnalysisTool\CoordinateCalculator.cpp

; 618  : 	CRect selectableRegion(point1.x, (point1.y - m_nProximityRange), point2.x, (point1.y + m_nProximityRange +1));

  00015	8b 50 04	 mov	 edx, DWORD PTR [eax+4]
  00018	8b fa		 mov	 edi, edx
; File C:\Program Files (x86)\Microsoft Visual Studio\2019\Community\VC\Tools\MSVC\14.29.30133\atlmfc\include\atltypes.h

; 542  : 	right = r;

  0001a	8b 45 10	 mov	 eax, DWORD PTR _point2$[ebp]
; File D:\git\src\IBK\IBK_DRFN\ProjSrc\SrcChartEx\ChartAddIn\ChartAnalysisToolAddIn\AnalysisTool\CoordinateCalculator.cpp

; 618  : 	CRect selectableRegion(point1.x, (point1.y - m_nProximityRange), point2.x, (point1.y + m_nProximityRange +1));

  0001d	2b f9		 sub	 edi, ecx
; File C:\Program Files (x86)\Microsoft Visual Studio\2019\Community\VC\Tools\MSVC\14.29.30133\atlmfc\include\atltypes.h

; 541  : 	top = t;

  0001f	89 7e 04	 mov	 DWORD PTR [esi+4], edi

; 542  : 	right = r;

  00022	8b 18		 mov	 ebx, DWORD PTR [eax]
; File D:\git\src\IBK\IBK_DRFN\ProjSrc\SrcChartEx\ChartAddIn\ChartAnalysisToolAddIn\AnalysisTool\CoordinateCalculator.cpp

; 618  : 	CRect selectableRegion(point1.x, (point1.y - m_nProximityRange), point2.x, (point1.y + m_nProximityRange +1));

  00024	8d 41 01	 lea	 eax, DWORD PTR [ecx+1]
; File C:\Program Files (x86)\Microsoft Visual Studio\2019\Community\VC\Tools\MSVC\14.29.30133\atlmfc\include\atltypes.h

; 884  : 	if (left > right)

  00027	8b 4d 0c	 mov	 ecx, DWORD PTR _nTemp$1$[ebp]
; File D:\git\src\IBK\IBK_DRFN\ProjSrc\SrcChartEx\ChartAddIn\ChartAnalysisToolAddIn\AnalysisTool\CoordinateCalculator.cpp

; 618  : 	CRect selectableRegion(point1.x, (point1.y - m_nProximityRange), point2.x, (point1.y + m_nProximityRange +1));

  0002a	03 c2		 add	 eax, edx
; File C:\Program Files (x86)\Microsoft Visual Studio\2019\Community\VC\Tools\MSVC\14.29.30133\atlmfc\include\atltypes.h

; 542  : 	right = r;

  0002c	89 5e 08	 mov	 DWORD PTR [esi+8], ebx

; 543  : 	bottom = b;

  0002f	89 46 0c	 mov	 DWORD PTR [esi+12], eax

; 884  : 	if (left > right)

  00032	3b cb		 cmp	 ecx, ebx
  00034	7e 05		 jle	 SHORT $LN6@GetHorzLin

; 885  : 	{
; 886  : 		nTemp = left;
; 887  : 		left = right;

  00036	89 1e		 mov	 DWORD PTR [esi], ebx

; 888  : 		right = nTemp;

  00038	89 4e 08	 mov	 DWORD PTR [esi+8], ecx
$LN6@GetHorzLin:

; 889  : 	}
; 890  : 	if (top > bottom)

  0003b	3b f8		 cmp	 edi, eax
  0003d	7e 06		 jle	 SHORT $LN9@GetHorzLin

; 891  : 	{
; 892  : 		nTemp = top;
; 893  : 		top = bottom;

  0003f	89 46 04	 mov	 DWORD PTR [esi+4], eax

; 894  : 		bottom = nTemp;

  00042	89 7e 0c	 mov	 DWORD PTR [esi+12], edi
$LN9@GetHorzLin:
  00045	5f		 pop	 edi
; File D:\git\src\IBK\IBK_DRFN\ProjSrc\SrcChartEx\ChartAddIn\ChartAnalysisToolAddIn\AnalysisTool\CoordinateCalculator.cpp

; 622  : }

  00046	8b c6		 mov	 eax, esi
  00048	5e		 pop	 esi
  00049	5b		 pop	 ebx
  0004a	5d		 pop	 ebp
  0004b	c2 0c 00	 ret	 12			; 0000000cH
?GetHorzLineRegion@CSelectableRegionCalculator@@ABE?AVCRect@@ABVCPoint@@0@Z ENDP ; CSelectableRegionCalculator::GetHorzLineRegion
_TEXT	ENDS
; Function compile flags: /Ogtp
; File D:\git\src\IBK\IBK_DRFN\ProjSrc\SrcChartEx\ChartAddIn\ChartAnalysisToolAddIn\AnalysisTool\CoordinateCalculator.cpp
;	COMDAT ?IsPointInCircle@CSelectableRegionCalculator@@QBE_NABVCPoint@@H0@Z
_TEXT	SEGMENT
tv172 = -16						; size = 8
tv171 = -8						; size = 8
_origin$ = 8						; size = 4
_nRadius$ = 12						; size = 4
_point$ = 16						; size = 4
?IsPointInCircle@CSelectableRegionCalculator@@QBE_NABVCPoint@@H0@Z PROC ; CSelectableRegionCalculator::IsPointInCircle, COMDAT
; _this$ = ecx

; 606  : {

  00000	55		 push	 ebp
  00001	8b ec		 mov	 ebp, esp
  00003	83 ec 10	 sub	 esp, 16			; 00000010H
  00006	66 0f 6e 45 0c	 movd	 xmm0, DWORD PTR _nRadius$[ebp]

; 607  : 	return (pow(nRadius, 2) >= (pow(origin.x - point.x, 2) + pow(origin.y - point.y, 2)));

  0000b	f2 0f 10 0d 00
	00 00 00	 movsd	 xmm1, QWORD PTR __real@4000000000000000
  00013	f3 0f e6 c0	 cvtdq2pd xmm0, xmm0
  00017	56		 push	 esi
  00018	57		 push	 edi
  00019	e8 00 00 00 00	 call	 __libm_sse2_pow_precise
  0001e	8b 7d 08	 mov	 edi, DWORD PTR _origin$[ebp]
  00021	8b 75 10	 mov	 esi, DWORD PTR _point$[ebp]
  00024	f2 0f 10 0d 00
	00 00 00	 movsd	 xmm1, QWORD PTR __real@4000000000000000
  0002c	f2 0f 11 45 f0	 movsd	 QWORD PTR tv172[ebp], xmm0
  00031	8b 47 04	 mov	 eax, DWORD PTR [edi+4]
  00034	2b 46 04	 sub	 eax, DWORD PTR [esi+4]
  00037	66 0f 6e c0	 movd	 xmm0, eax
  0003b	f3 0f e6 c0	 cvtdq2pd xmm0, xmm0
  0003f	e8 00 00 00 00	 call	 __libm_sse2_pow_precise
  00044	8b 07		 mov	 eax, DWORD PTR [edi]
  00046	2b 06		 sub	 eax, DWORD PTR [esi]
  00048	f2 0f 10 0d 00
	00 00 00	 movsd	 xmm1, QWORD PTR __real@4000000000000000
  00050	f2 0f 11 45 f8	 movsd	 QWORD PTR tv171[ebp], xmm0
  00055	66 0f 6e c0	 movd	 xmm0, eax
  00059	f3 0f e6 c0	 cvtdq2pd xmm0, xmm0
  0005d	e8 00 00 00 00	 call	 __libm_sse2_pow_precise
  00062	f2 0f 10 4d f8	 movsd	 xmm1, QWORD PTR tv171[ebp]
  00067	f2 0f 58 c8	 addsd	 xmm1, xmm0
  0006b	f2 0f 10 45 f0	 movsd	 xmm0, QWORD PTR tv172[ebp]
  00070	5f		 pop	 edi
  00071	5e		 pop	 esi
  00072	66 0f 2f c1	 comisd	 xmm0, xmm1
  00076	0f 93 c0	 setae	 al

; 608  : 	//return (pow(nRadius, 3) >= (pow(origin.x - point.x, 3) + pow(origin.y - point.y, 3)));
; 609  : }

  00079	8b e5		 mov	 esp, ebp
  0007b	5d		 pop	 ebp
  0007c	c2 0c 00	 ret	 12			; 0000000cH
?IsPointInCircle@CSelectableRegionCalculator@@QBE_NABVCPoint@@H0@Z ENDP ; CSelectableRegionCalculator::IsPointInCircle
_TEXT	ENDS
; Function compile flags: /Ogtp
; File D:\git\src\IBK\IBK_DRFN\ProjSrc\SrcChartEx\ChartAddIn\ChartAnalysisToolAddIn\AnalysisTool\CoordinateCalculator.cpp
;	COMDAT ?IsPointInCircle@CSelectableRegionCalculator@@QBE_NABVCPoint@@0@Z
_TEXT	SEGMENT
tv173 = -16						; size = 8
tv172 = -8						; size = 8
_origin$ = 8						; size = 4
_point$ = 12						; size = 4
?IsPointInCircle@CSelectableRegionCalculator@@QBE_NABVCPoint@@0@Z PROC ; CSelectableRegionCalculator::IsPointInCircle, COMDAT
; _this$ = ecx

; 600  : {

  00000	55		 push	 ebp
  00001	8b ec		 mov	 ebp, esp
  00003	83 ec 10	 sub	 esp, 16			; 00000010H

; 601  : 	return (pow(m_nProximityRange*2, 2) >= (pow(origin.x - point.x, 2) + pow(origin.y - point.y, 2)));

  00006	8b 01		 mov	 eax, DWORD PTR [ecx]
  00008	f2 0f 10 0d 00
	00 00 00	 movsd	 xmm1, QWORD PTR __real@4000000000000000
  00010	03 c0		 add	 eax, eax
  00012	56		 push	 esi
  00013	57		 push	 edi
  00014	66 0f 6e c0	 movd	 xmm0, eax
  00018	f3 0f e6 c0	 cvtdq2pd xmm0, xmm0
  0001c	e8 00 00 00 00	 call	 __libm_sse2_pow_precise
  00021	8b 7d 08	 mov	 edi, DWORD PTR _origin$[ebp]
  00024	8b 75 0c	 mov	 esi, DWORD PTR _point$[ebp]
  00027	f2 0f 10 0d 00
	00 00 00	 movsd	 xmm1, QWORD PTR __real@4000000000000000
  0002f	f2 0f 11 45 f0	 movsd	 QWORD PTR tv173[ebp], xmm0
  00034	8b 47 04	 mov	 eax, DWORD PTR [edi+4]
  00037	2b 46 04	 sub	 eax, DWORD PTR [esi+4]
  0003a	66 0f 6e c0	 movd	 xmm0, eax
  0003e	f3 0f e6 c0	 cvtdq2pd xmm0, xmm0
  00042	e8 00 00 00 00	 call	 __libm_sse2_pow_precise
  00047	8b 07		 mov	 eax, DWORD PTR [edi]
  00049	2b 06		 sub	 eax, DWORD PTR [esi]
  0004b	f2 0f 10 0d 00
	00 00 00	 movsd	 xmm1, QWORD PTR __real@4000000000000000
  00053	f2 0f 11 45 f8	 movsd	 QWORD PTR tv172[ebp], xmm0
  00058	66 0f 6e c0	 movd	 xmm0, eax
  0005c	f3 0f e6 c0	 cvtdq2pd xmm0, xmm0
  00060	e8 00 00 00 00	 call	 __libm_sse2_pow_precise
  00065	f2 0f 10 4d f8	 movsd	 xmm1, QWORD PTR tv172[ebp]
  0006a	f2 0f 58 c8	 addsd	 xmm1, xmm0
  0006e	f2 0f 10 45 f0	 movsd	 xmm0, QWORD PTR tv173[ebp]
  00073	5f		 pop	 edi
  00074	5e		 pop	 esi
  00075	66 0f 2f c1	 comisd	 xmm0, xmm1
  00079	0f 93 c0	 setae	 al

; 602  : 	//return (pow(m_nProximityRange*2, 3) >= (pow(origin.x - point.x, 3) + pow(origin.y - point.y, 3)));
; 603  : }

  0007c	8b e5		 mov	 esp, ebp
  0007e	5d		 pop	 ebp
  0007f	c2 08 00	 ret	 8
?IsPointInCircle@CSelectableRegionCalculator@@QBE_NABVCPoint@@0@Z ENDP ; CSelectableRegionCalculator::IsPointInCircle
_TEXT	ENDS
; Function compile flags: /Ogtp
; File D:\git\src\IBK\IBK_DRFN\ProjSrc\SrcChartEx\ChartAddIn\ChartAnalysisToolAddIn\AnalysisTool\CoordinateCalculator.cpp
; File C:\Program Files (x86)\Microsoft Visual Studio\2019\Community\VC\Tools\MSVC\14.29.30133\atlmfc\include\atltypes.h
; File D:\git\src\IBK\IBK_DRFN\ProjSrc\SrcChartEx\ChartAddIn\ChartAnalysisToolAddIn\AnalysisTool\CoordinateCalculator.cpp
; File C:\Program Files (x86)\Microsoft Visual Studio\2019\Community\VC\Tools\MSVC\14.29.30133\atlmfc\include\atltypes.h
; File D:\git\src\IBK\IBK_DRFN\ProjSrc\SrcChartEx\ChartAddIn\ChartAnalysisToolAddIn\AnalysisTool\CoordinateCalculator.cpp
; File C:\Program Files (x86)\Microsoft Visual Studio\2019\Community\VC\Tools\MSVC\14.29.30133\atlmfc\include\afxwin1.inl
; File C:\Program Files (x86)\Microsoft Visual Studio\2019\Community\VC\Tools\MSVC\14.29.30133\atlmfc\include\atltypes.h
; File C:\Program Files (x86)\Microsoft Visual Studio\2019\Community\VC\Tools\MSVC\14.29.30133\atlmfc\include\afxwin1.inl
; File C:\Program Files (x86)\Microsoft Visual Studio\2019\Community\VC\Tools\MSVC\14.29.30133\atlmfc\include\atltypes.h
; File C:\Program Files (x86)\Microsoft Visual Studio\2019\Community\VC\Tools\MSVC\14.29.30133\atlmfc\include\afxwin1.inl
; File C:\Program Files (x86)\Microsoft Visual Studio\2019\Community\VC\Tools\MSVC\14.29.30133\atlmfc\include\atltypes.h
; File C:\Program Files (x86)\Microsoft Visual Studio\2019\Community\VC\Tools\MSVC\14.29.30133\atlmfc\include\afxwin1.inl
; File C:\Program Files (x86)\Microsoft Visual Studio\2019\Community\VC\Tools\MSVC\14.29.30133\atlmfc\include\atltypes.h
; File C:\Program Files (x86)\Microsoft Visual Studio\2019\Community\VC\Tools\MSVC\14.29.30133\atlmfc\include\afxwin1.inl
; File D:\git\src\IBK\IBK_DRFN\ProjSrc\SrcChartEx\ChartAddIn\ChartAnalysisToolAddIn\AnalysisTool\CoordinateCalculator.cpp
; File C:\Program Files (x86)\Microsoft Visual Studio\2019\Community\VC\Tools\MSVC\14.29.30133\atlmfc\include\afxwin1.inl
; File C:\Program Files (x86)\Microsoft Visual Studio\2019\Community\VC\Tools\MSVC\14.29.30133\atlmfc\include\atltypes.h
; File C:\Program Files (x86)\Microsoft Visual Studio\2019\Community\VC\Tools\MSVC\14.29.30133\atlmfc\include\afxwin1.inl
; File C:\Program Files (x86)\Microsoft Visual Studio\2019\Community\VC\Tools\MSVC\14.29.30133\atlmfc\include\atltypes.h
; File C:\Program Files (x86)\Microsoft Visual Studio\2019\Community\VC\Tools\MSVC\14.29.30133\atlmfc\include\afxwin1.inl
; File C:\Program Files (x86)\Microsoft Visual Studio\2019\Community\VC\Tools\MSVC\14.29.30133\atlmfc\include\atltypes.h
; File C:\Program Files (x86)\Microsoft Visual Studio\2019\Community\VC\Tools\MSVC\14.29.30133\atlmfc\include\afxwin1.inl
; File C:\Program Files (x86)\Microsoft Visual Studio\2019\Community\VC\Tools\MSVC\14.29.30133\atlmfc\include\atltypes.h
; File C:\Program Files (x86)\Microsoft Visual Studio\2019\Community\VC\Tools\MSVC\14.29.30133\atlmfc\include\afxwin1.inl
; File D:\git\src\IBK\IBK_DRFN\ProjSrc\SrcChartEx\ChartAddIn\ChartAnalysisToolAddIn\AnalysisTool\CoordinateCalculator.cpp
; File C:\Program Files (x86)\Microsoft Visual Studio\2019\Community\VC\Tools\MSVC\14.29.30133\atlmfc\include\atltypes.h
; File D:\git\src\IBK\IBK_DRFN\ProjSrc\SrcChartEx\ChartAddIn\ChartAnalysisToolAddIn\AnalysisTool\CoordinateCalculator.cpp
; File C:\Program Files (x86)\Microsoft Visual Studio\2019\Community\VC\Tools\MSVC\14.29.30133\atlmfc\include\atltypes.h
; File D:\git\src\IBK\IBK_DRFN\ProjSrc\SrcChartEx\ChartAddIn\ChartAnalysisToolAddIn\AnalysisTool\CoordinateCalculator.cpp
; File C:\Program Files (x86)\Microsoft Visual Studio\2019\Community\VC\Tools\MSVC\14.29.30133\atlmfc\include\afxwin1.inl
; File D:\git\src\IBK\IBK_DRFN\ProjSrc\SrcChartEx\ChartAddIn\ChartAnalysisToolAddIn\AnalysisTool\CoordinateCalculator.cpp
; File C:\Program Files (x86)\Microsoft Visual Studio\2019\Community\VC\Tools\MSVC\14.29.30133\atlmfc\include\afxwin1.inl
; File D:\git\src\IBK\IBK_DRFN\ProjSrc\SrcChartEx\ChartAddIn\ChartAnalysisToolAddIn\AnalysisTool\CoordinateCalculator.cpp
; File C:\Program Files (x86)\Microsoft Visual Studio\2019\Community\VC\Tools\MSVC\14.29.30133\atlmfc\include\afxwin1.inl
; File D:\git\src\IBK\IBK_DRFN\ProjSrc\SrcChartEx\ChartAddIn\ChartAnalysisToolAddIn\AnalysisTool\CoordinateCalculator.cpp
;	COMDAT ?GetLineRegion@CSelectableRegionCalculator@@QBEXABVCPoint@@0AAVCRgn@@@Z
_TEXT	SEGMENT
_region$GSCopy$1$ = -76					; size = 4
_x$1$ = -72						; size = 8
$T3$sroa$493$1$ = -72					; size = 4
_this$GSCopy$1$ = -72					; size = 4
_initY$1$ = -64						; size = 4
tv893 = -64						; size = 8
tv874 = -64						; size = 4
_point1$GSCopy$1$ = -52					; size = 4
_lineAngle$1$ = -48					; size = 8
$T1$sroa$497$1$ = -48					; size = 4
_point2$GSCopy$1$ = -40					; size = 4
_selectableRegionPoints$5 = -36				; size = 32
__$ArrayPad$ = -4					; size = 4
_point1$ = 8						; size = 4
_point2$ = 12						; size = 4
_region$ = 16						; size = 4
?GetLineRegion@CSelectableRegionCalculator@@QBEXABVCPoint@@0AAVCRgn@@@Z PROC ; CSelectableRegionCalculator::GetLineRegion, COMDAT
; _this$ = ecx

; 580  : {

  00000	55		 push	 ebp
  00001	8b ec		 mov	 ebp, esp
  00003	83 e4 f8	 and	 esp, -8			; fffffff8H
  00006	83 ec 50	 sub	 esp, 80			; 00000050H
  00009	a1 00 00 00 00	 mov	 eax, DWORD PTR ___security_cookie
  0000e	33 c4		 xor	 eax, esp
  00010	89 44 24 4c	 mov	 DWORD PTR __$ArrayPad$[esp+80], eax
  00014	8b 45 08	 mov	 eax, DWORD PTR _point1$[ebp]
  00017	8b 55 0c	 mov	 edx, DWORD PTR _point2$[ebp]
  0001a	89 4c 24 08	 mov	 DWORD PTR _this$GSCopy$1$[esp+80], ecx
  0001e	8b 4d 10	 mov	 ecx, DWORD PTR _region$[ebp]
  00021	56		 push	 esi

; 581  : 	// 수평선
; 582  : 	if(point1.y == point2.y)

  00022	8b 72 04	 mov	 esi, DWORD PTR [edx+4]
  00025	57		 push	 edi
  00026	8b 78 04	 mov	 edi, DWORD PTR [eax+4]
  00029	89 44 24 24	 mov	 DWORD PTR _point1$GSCopy$1$[esp+88], eax
  0002d	89 4c 24 0c	 mov	 DWORD PTR _region$GSCopy$1$[esp+88], ecx
  00031	8b 08		 mov	 ecx, DWORD PTR [eax]
  00033	8b 44 24 10	 mov	 eax, DWORD PTR _this$GSCopy$1$[esp+88]
  00037	89 54 24 30	 mov	 DWORD PTR _point2$GSCopy$1$[esp+88], edx
  0003b	89 4c 24 18	 mov	 DWORD PTR tv874[esp+88], ecx
  0003f	8b 00		 mov	 eax, DWORD PTR [eax]
  00041	3b fe		 cmp	 edi, esi
  00043	75 3b		 jne	 SHORT $LN2@GetLineReg

; 618  : 	CRect selectableRegion(point1.x, (point1.y - m_nProximityRange), point2.x, (point1.y + m_nProximityRange +1));

  00045	8b 4c 24 24	 mov	 ecx, DWORD PTR _point1$GSCopy$1$[esp+88]
  00049	8b f7		 mov	 esi, edi
; File C:\Program Files (x86)\Microsoft Visual Studio\2019\Community\VC\Tools\MSVC\14.29.30133\atlmfc\include\atltypes.h

; 541  : 	top = t;

  0004b	8b 3a		 mov	 edi, DWORD PTR [edx]
; File D:\git\src\IBK\IBK_DRFN\ProjSrc\SrcChartEx\ChartAddIn\ChartAnalysisToolAddIn\AnalysisTool\CoordinateCalculator.cpp

; 618  : 	CRect selectableRegion(point1.x, (point1.y - m_nProximityRange), point2.x, (point1.y + m_nProximityRange +1));

  0004d	2b f0		 sub	 esi, eax
  0004f	40		 inc	 eax
  00050	8b 51 04	 mov	 edx, DWORD PTR [ecx+4]
; File C:\Program Files (x86)\Microsoft Visual Studio\2019\Community\VC\Tools\MSVC\14.29.30133\atlmfc\include\atltypes.h

; 890  : 	if (top > bottom)

  00053	8b 4c 24 18	 mov	 ecx, DWORD PTR tv874[esp+88]
; File D:\git\src\IBK\IBK_DRFN\ProjSrc\SrcChartEx\ChartAddIn\ChartAnalysisToolAddIn\AnalysisTool\CoordinateCalculator.cpp

; 618  : 	CRect selectableRegion(point1.x, (point1.y - m_nProximityRange), point2.x, (point1.y + m_nProximityRange +1));

  00057	03 d0		 add	 edx, eax
; File C:\Program Files (x86)\Microsoft Visual Studio\2019\Community\VC\Tools\MSVC\14.29.30133\atlmfc\include\afxwin1.inl

; 268  : 	{ return Attach(::CreateRectRgn(x1, y1, x2, y2)); }

  00059	3b f2		 cmp	 esi, edx
  0005b	8b c6		 mov	 eax, esi
  0005d	0f 4e c2	 cmovle	 eax, edx
; File C:\Program Files (x86)\Microsoft Visual Studio\2019\Community\VC\Tools\MSVC\14.29.30133\atlmfc\include\atltypes.h

; 890  : 	if (top > bottom)

  00060	3b cf		 cmp	 ecx, edi
; File C:\Program Files (x86)\Microsoft Visual Studio\2019\Community\VC\Tools\MSVC\14.29.30133\atlmfc\include\afxwin1.inl

; 268  : 	{ return Attach(::CreateRectRgn(x1, y1, x2, y2)); }

  00062	50		 push	 eax
; File C:\Program Files (x86)\Microsoft Visual Studio\2019\Community\VC\Tools\MSVC\14.29.30133\atlmfc\include\atltypes.h

; 890  : 	if (top > bottom)

  00063	8b c1		 mov	 eax, ecx
  00065	0f 4e c7	 cmovle	 eax, edi
; File C:\Program Files (x86)\Microsoft Visual Studio\2019\Community\VC\Tools\MSVC\14.29.30133\atlmfc\include\afxwin1.inl

; 268  : 	{ return Attach(::CreateRectRgn(x1, y1, x2, y2)); }

  00068	3b f2		 cmp	 esi, edx
  0006a	50		 push	 eax
  0006b	0f 4e d6	 cmovle	 edx, esi
; File C:\Program Files (x86)\Microsoft Visual Studio\2019\Community\VC\Tools\MSVC\14.29.30133\atlmfc\include\atltypes.h

; 890  : 	if (top > bottom)

  0006e	3b cf		 cmp	 ecx, edi
; File C:\Program Files (x86)\Microsoft Visual Studio\2019\Community\VC\Tools\MSVC\14.29.30133\atlmfc\include\afxwin1.inl

; 268  : 	{ return Attach(::CreateRectRgn(x1, y1, x2, y2)); }

  00070	52		 push	 edx
; File C:\Program Files (x86)\Microsoft Visual Studio\2019\Community\VC\Tools\MSVC\14.29.30133\atlmfc\include\atltypes.h

; 890  : 	if (top > bottom)

  00071	0f 4e f9	 cmovle	 edi, ecx
; File C:\Program Files (x86)\Microsoft Visual Studio\2019\Community\VC\Tools\MSVC\14.29.30133\atlmfc\include\afxwin1.inl

; 268  : 	{ return Attach(::CreateRectRgn(x1, y1, x2, y2)); }

  00074	57		 push	 edi
  00075	ff 15 00 00 00
	00		 call	 DWORD PTR __imp__CreateRectRgn@16
; File D:\git\src\IBK\IBK_DRFN\ProjSrc\SrcChartEx\ChartAddIn\ChartAnalysisToolAddIn\AnalysisTool\CoordinateCalculator.cpp

; 586  : 	}

  0007b	e9 65 01 00 00	 jmp	 $LN55@GetLineReg
$LN2@GetLineReg:

; 587  : 	// 수직선
; 588  : 	else if(point1.x == point2.x)

  00080	8b 12		 mov	 edx, DWORD PTR [edx]
  00082	3b ca		 cmp	 ecx, edx
  00084	75 2e		 jne	 SHORT $LN4@GetLineReg

; 629  : 	CRect selectableRegion((point1.x - m_nProximityRange), point1.y, (point1.x + m_nProximityRange +1), point2.y);

  00086	8b d1		 mov	 edx, ecx
  00088	2b d0		 sub	 edx, eax
  0008a	40		 inc	 eax
  0008b	03 c8		 add	 ecx, eax
; File C:\Program Files (x86)\Microsoft Visual Studio\2019\Community\VC\Tools\MSVC\14.29.30133\atlmfc\include\afxwin1.inl

; 268  : 	{ return Attach(::CreateRectRgn(x1, y1, x2, y2)); }

  0008d	3b fe		 cmp	 edi, esi
  0008f	8b c7		 mov	 eax, edi
  00091	0f 4e c6	 cmovle	 eax, esi
; File C:\Program Files (x86)\Microsoft Visual Studio\2019\Community\VC\Tools\MSVC\14.29.30133\atlmfc\include\atltypes.h

; 890  : 	if (top > bottom)

  00094	3b d1		 cmp	 edx, ecx
; File C:\Program Files (x86)\Microsoft Visual Studio\2019\Community\VC\Tools\MSVC\14.29.30133\atlmfc\include\afxwin1.inl

; 268  : 	{ return Attach(::CreateRectRgn(x1, y1, x2, y2)); }

  00096	50		 push	 eax
; File C:\Program Files (x86)\Microsoft Visual Studio\2019\Community\VC\Tools\MSVC\14.29.30133\atlmfc\include\atltypes.h

; 890  : 	if (top > bottom)

  00097	8b c2		 mov	 eax, edx
  00099	0f 4e c1	 cmovle	 eax, ecx
; File C:\Program Files (x86)\Microsoft Visual Studio\2019\Community\VC\Tools\MSVC\14.29.30133\atlmfc\include\afxwin1.inl

; 268  : 	{ return Attach(::CreateRectRgn(x1, y1, x2, y2)); }

  0009c	3b fe		 cmp	 edi, esi
  0009e	50		 push	 eax
  0009f	0f 4e f7	 cmovle	 esi, edi
; File C:\Program Files (x86)\Microsoft Visual Studio\2019\Community\VC\Tools\MSVC\14.29.30133\atlmfc\include\atltypes.h

; 890  : 	if (top > bottom)

  000a2	3b d1		 cmp	 edx, ecx
; File C:\Program Files (x86)\Microsoft Visual Studio\2019\Community\VC\Tools\MSVC\14.29.30133\atlmfc\include\afxwin1.inl

; 268  : 	{ return Attach(::CreateRectRgn(x1, y1, x2, y2)); }

  000a4	56		 push	 esi
; File C:\Program Files (x86)\Microsoft Visual Studio\2019\Community\VC\Tools\MSVC\14.29.30133\atlmfc\include\atltypes.h

; 890  : 	if (top > bottom)

  000a5	0f 4e ca	 cmovle	 ecx, edx
; File C:\Program Files (x86)\Microsoft Visual Studio\2019\Community\VC\Tools\MSVC\14.29.30133\atlmfc\include\afxwin1.inl

; 268  : 	{ return Attach(::CreateRectRgn(x1, y1, x2, y2)); }

  000a8	51		 push	 ecx
  000a9	ff 15 00 00 00
	00		 call	 DWORD PTR __imp__CreateRectRgn@16
; File D:\git\src\IBK\IBK_DRFN\ProjSrc\SrcChartEx\ChartAddIn\ChartAnalysisToolAddIn\AnalysisTool\CoordinateCalculator.cpp

; 592  : 	}

  000af	e9 31 01 00 00	 jmp	 $LN55@GetLineReg
$LN4@GetLineReg:
  000b4	0f 57 c0	 xorps	 xmm0, xmm0

; 685  : 	return ((double)(point2.y - point1.y) / (double)(point2.x - point1.x));

  000b7	2b d1		 sub	 edx, ecx
  000b9	2b f7		 sub	 esi, edi
  000bb	0f 57 c9	 xorps	 xmm1, xmm1
  000be	f2 0f 2a c2	 cvtsi2sd xmm0, edx
  000c2	f2 0f 2a ce	 cvtsi2sd xmm1, esi
  000c6	f2 0f 5e c8	 divsd	 xmm1, xmm0

; 693  : 	return (-1.0/dAngle);

  000ca	f2 0f 10 05 00
	00 00 00	 movsd	 xmm0, QWORD PTR __real@bff0000000000000
  000d2	f2 0f 5e c1	 divsd	 xmm0, xmm1

; 674  : 	x = sqrt(fabs(pow(m_nProximityRange, 2) / (pow(lineAngle, 2) +1)));

  000d6	f2 0f 10 0d 00
	00 00 00	 movsd	 xmm1, QWORD PTR __real@4000000000000000

; 693  : 	return (-1.0/dAngle);

  000de	f2 0f 11 44 24
	28		 movsd	 QWORD PTR _lineAngle$1$[esp+88], xmm0
  000e4	0f 57 c0	 xorps	 xmm0, xmm0

; 674  : 	x = sqrt(fabs(pow(m_nProximityRange, 2) / (pow(lineAngle, 2) +1)));

  000e7	f2 0f 2a c0	 cvtsi2sd xmm0, eax
  000eb	e8 00 00 00 00	 call	 __libm_sse2_pow_precise
  000f0	f2 0f 10 0d 00
	00 00 00	 movsd	 xmm1, QWORD PTR __real@4000000000000000
  000f8	f2 0f 11 44 24
	18		 movsd	 QWORD PTR tv893[esp+88], xmm0
  000fe	f2 0f 10 44 24
	28		 movsd	 xmm0, QWORD PTR _lineAngle$1$[esp+88]
  00104	e8 00 00 00 00	 call	 __libm_sse2_pow_precise
  00109	f2 0f 58 05 00
	00 00 00	 addsd	 xmm0, QWORD PTR __real@3ff0000000000000
  00111	f2 0f 10 54 24
	18		 movsd	 xmm2, QWORD PTR tv893[esp+88]
  00117	0f 57 c9	 xorps	 xmm1, xmm1
  0011a	f2 0f 5e d0	 divsd	 xmm2, xmm0
  0011e	0f 54 15 00 00
	00 00		 andps	 xmm2, QWORD PTR __xmm@7fffffffffffffff7fffffffffffffff
  00125	0f 28 c2	 movaps	 xmm0, xmm2
  00128	66 0f 2e c8	 ucomisd xmm1, xmm0
  0012c	77 06		 ja	 SHORT $LN53@GetLineReg
  0012e	f2 0f 51 c0	 sqrtsd	 xmm0, xmm0
  00132	eb 05		 jmp	 SHORT $LN54@GetLineReg
$LN53@GetLineReg:
  00134	e8 00 00 00 00	 call	 __libm_sse2_sqrt_precise
$LN54@GetLineReg:

; 676  : 	selectableRegionPt1 = CPoint(CMath::Round(x), CMath::Round(lineAngle * x));

  00139	0f 28 c8	 movaps	 xmm1, xmm0
  0013c	f2 0f 11 44 24
	10		 movsd	 QWORD PTR _x$1$[esp+88], xmm0
  00142	f2 0f 59 4c 24
	28		 mulsd	 xmm1, QWORD PTR _lineAngle$1$[esp+88]
  00148	83 ec 08	 sub	 esp, 8
  0014b	f2 0f 11 0c 24	 movsd	 QWORD PTR [esp], xmm1
  00150	e8 00 00 00 00	 call	 ?Round@CMath@@SAHN@Z	; CMath::Round
  00155	f2 0f 10 44 24
	18		 movsd	 xmm0, QWORD PTR _x$1$[esp+96]
  0015b	8b f0		 mov	 esi, eax
  0015d	89 74 24 20	 mov	 DWORD PTR _initY$1$[esp+96], esi
  00161	f2 0f 11 04 24	 movsd	 QWORD PTR [esp], xmm0
  00166	e8 00 00 00 00	 call	 ?Round@CMath@@SAHN@Z	; CMath::Round
; File C:\Program Files (x86)\Microsoft Visual Studio\2019\Community\VC\Tools\MSVC\14.29.30133\atlmfc\include\atltypes.h

; 408  : 	x = initX;

  0016b	8b c8		 mov	 ecx, eax
; File D:\git\src\IBK\IBK_DRFN\ProjSrc\SrcChartEx\ChartAddIn\ChartAnalysisToolAddIn\AnalysisTool\CoordinateCalculator.cpp

; 677  : 	selectableRegionPt2 = CPoint(-selectableRegionPt1.x, -selectableRegionPt1.y);

  0016d	f7 de		 neg	 esi

; 658  : 	movePoint.x = origin.x + point.x;

  0016f	8b 44 24 2c	 mov	 eax, DWORD PTR _point1$GSCopy$1$[esp+96]

; 677  : 	selectableRegionPt2 = CPoint(-selectableRegionPt1.x, -selectableRegionPt1.y);

  00173	8b f9		 mov	 edi, ecx
  00175	89 74 24 18	 mov	 DWORD PTR $T3$sroa$493$1$[esp+96], esi
  00179	f7 df		 neg	 edi
; File C:\Program Files (x86)\Microsoft Visual Studio\2019\Community\VC\Tools\MSVC\14.29.30133\atlmfc\include\atltypes.h

; 408  : 	x = initX;

  0017b	89 4c 24 30	 mov	 DWORD PTR $T1$sroa$497$1$[esp+96], ecx
; File D:\git\src\IBK\IBK_DRFN\ProjSrc\SrcChartEx\ChartAddIn\ChartAnalysisToolAddIn\AnalysisTool\CoordinateCalculator.cpp

; 676  : 	selectableRegionPt1 = CPoint(CMath::Round(x), CMath::Round(lineAngle * x));

  0017f	83 c4 08	 add	 esp, 8

; 658  : 	movePoint.x = origin.x + point.x;

  00182	8b 30		 mov	 esi, DWORD PTR [eax]
  00184	03 ce		 add	 ecx, esi

; 659  : 	movePoint.y = origin.y + point.y;

  00186	8b 50 04	 mov	 edx, DWORD PTR [eax+4]
  00189	8b 44 24 18	 mov	 eax, DWORD PTR _initY$1$[esp+88]
  0018d	03 c2		 add	 eax, edx

; 645  : 	selectableRegionPoints[0] = GetPointOnMovedOrigin(point1, basePt1);

  0018f	89 4c 24 34	 mov	 DWORD PTR _selectableRegionPoints$5[esp+88], ecx
  00193	89 44 24 38	 mov	 DWORD PTR _selectableRegionPoints$5[esp+92], eax

; 658  : 	movePoint.x = origin.x + point.x;

  00197	8d 0c 3e	 lea	 ecx, DWORD PTR [esi+edi]

; 659  : 	movePoint.y = origin.y + point.y;

  0019a	8b 44 24 10	 mov	 eax, DWORD PTR $T3$sroa$493$1$[esp+88]
  0019e	03 c2		 add	 eax, edx

; 646  : 	selectableRegionPoints[1] = GetPointOnMovedOrigin(point1, basePt2);

  001a0	89 4c 24 3c	 mov	 DWORD PTR _selectableRegionPoints$5[esp+96], ecx

; 658  : 	movePoint.x = origin.x + point.x;

  001a4	8b 54 24 30	 mov	 edx, DWORD PTR _point2$GSCopy$1$[esp+88]

; 646  : 	selectableRegionPoints[1] = GetPointOnMovedOrigin(point1, basePt2);

  001a8	89 44 24 40	 mov	 DWORD PTR _selectableRegionPoints$5[esp+100], eax

; 659  : 	movePoint.y = origin.y + point.y;

  001ac	8b 44 24 10	 mov	 eax, DWORD PTR $T3$sroa$493$1$[esp+88]
; File C:\Program Files (x86)\Microsoft Visual Studio\2019\Community\VC\Tools\MSVC\14.29.30133\atlmfc\include\afxwin1.inl

; 276  : 	{ return Attach(::CreatePolygonRgn(lpPoints, nCount, nMode)); }

  001b0	6a 01		 push	 1
; File D:\git\src\IBK\IBK_DRFN\ProjSrc\SrcChartEx\ChartAddIn\ChartAnalysisToolAddIn\AnalysisTool\CoordinateCalculator.cpp

; 658  : 	movePoint.x = origin.x + point.x;

  001b2	8b 32		 mov	 esi, DWORD PTR [edx]

; 659  : 	movePoint.y = origin.y + point.y;

  001b4	8b 52 04	 mov	 edx, DWORD PTR [edx+4]
  001b7	03 c2		 add	 eax, edx

; 647  : 	selectableRegionPoints[2] = GetPointOnMovedOrigin(point2, basePt2);

  001b9	89 44 24 4c	 mov	 DWORD PTR _selectableRegionPoints$5[esp+112], eax

; 659  : 	movePoint.y = origin.y + point.y;

  001bd	8b 44 24 1c	 mov	 eax, DWORD PTR _initY$1$[esp+92]

; 658  : 	movePoint.x = origin.x + point.x;

  001c1	8d 0c 3e	 lea	 ecx, DWORD PTR [esi+edi]

; 659  : 	movePoint.y = origin.y + point.y;

  001c4	03 c2		 add	 eax, edx

; 647  : 	selectableRegionPoints[2] = GetPointOnMovedOrigin(point2, basePt2);

  001c6	89 4c 24 48	 mov	 DWORD PTR _selectableRegionPoints$5[esp+108], ecx

; 658  : 	movePoint.x = origin.x + point.x;

  001ca	8b 4c 24 2c	 mov	 ecx, DWORD PTR $T1$sroa$497$1$[esp+92]

; 648  : 	selectableRegionPoints[3] = GetPointOnMovedOrigin(point2, basePt1);

  001ce	89 44 24 54	 mov	 DWORD PTR _selectableRegionPoints$5[esp+120], eax

; 658  : 	movePoint.x = origin.x + point.x;

  001d2	03 ce		 add	 ecx, esi
; File C:\Program Files (x86)\Microsoft Visual Studio\2019\Community\VC\Tools\MSVC\14.29.30133\atlmfc\include\afxwin1.inl

; 276  : 	{ return Attach(::CreatePolygonRgn(lpPoints, nCount, nMode)); }

  001d4	6a 04		 push	 4
  001d6	8d 44 24 3c	 lea	 eax, DWORD PTR _selectableRegionPoints$5[esp+96]
; File D:\git\src\IBK\IBK_DRFN\ProjSrc\SrcChartEx\ChartAddIn\ChartAnalysisToolAddIn\AnalysisTool\CoordinateCalculator.cpp

; 648  : 	selectableRegionPoints[3] = GetPointOnMovedOrigin(point2, basePt1);

  001da	89 4c 24 54	 mov	 DWORD PTR _selectableRegionPoints$5[esp+120], ecx
; File C:\Program Files (x86)\Microsoft Visual Studio\2019\Community\VC\Tools\MSVC\14.29.30133\atlmfc\include\afxwin1.inl

; 276  : 	{ return Attach(::CreatePolygonRgn(lpPoints, nCount, nMode)); }

  001de	50		 push	 eax
  001df	ff 15 00 00 00
	00		 call	 DWORD PTR __imp__CreatePolygonRgn@12
$LN55@GetLineReg:
; File D:\git\src\IBK\IBK_DRFN\ProjSrc\SrcChartEx\ChartAddIn\ChartAnalysisToolAddIn\AnalysisTool\CoordinateCalculator.cpp

; 596  : }

  001e5	8b 4c 24 0c	 mov	 ecx, DWORD PTR _region$GSCopy$1$[esp+88]
  001e9	50		 push	 eax
  001ea	e8 00 00 00 00	 call	 ?Attach@CGdiObject@@QAEHPAX@Z ; CGdiObject::Attach
  001ef	8b 4c 24 54	 mov	 ecx, DWORD PTR __$ArrayPad$[esp+88]
  001f3	5f		 pop	 edi
  001f4	5e		 pop	 esi
  001f5	33 cc		 xor	 ecx, esp
  001f7	e8 00 00 00 00	 call	 @__security_check_cookie@4
  001fc	8b e5		 mov	 esp, ebp
  001fe	5d		 pop	 ebp
  001ff	c2 0c 00	 ret	 12			; 0000000cH
?GetLineRegion@CSelectableRegionCalculator@@QBEXABVCPoint@@0AAVCRgn@@@Z ENDP ; CSelectableRegionCalculator::GetLineRegion
_TEXT	ENDS
; Function compile flags: /Ogtp
; File D:\git\src\IBK\IBK_DRFN\ProjSrc\SrcChartEx\ChartAddIn\ChartAnalysisToolAddIn\AnalysisTool\CoordinateCalculator.cpp
;	COMDAT ?GetProximityRange@CSelectableRegionCalculator@@QBEHXZ
_TEXT	SEGMENT
?GetProximityRange@CSelectableRegionCalculator@@QBEHXZ PROC ; CSelectableRegionCalculator::GetProximityRange, COMDAT
; _this$ = ecx

; 575  : 	return m_nProximityRange;

  00000	8b 01		 mov	 eax, DWORD PTR [ecx]

; 576  : }

  00002	c3		 ret	 0
?GetProximityRange@CSelectableRegionCalculator@@QBEHXZ ENDP ; CSelectableRegionCalculator::GetProximityRange
_TEXT	ENDS
; Function compile flags: /Ogtp
; File D:\git\src\IBK\IBK_DRFN\ProjSrc\SrcChartEx\ChartAddIn\ChartAnalysisToolAddIn\AnalysisTool\CoordinateCalculator.cpp
;	COMDAT ??0CSelectableRegionCalculator@@QAE@XZ
_TEXT	SEGMENT
??0CSelectableRegionCalculator@@QAE@XZ PROC		; CSelectableRegionCalculator::CSelectableRegionCalculator, COMDAT
; _this$ = ecx

; 568  : 	m_nProximityRange(4)

  00000	c7 01 04 00 00
	00		 mov	 DWORD PTR [ecx], 4

; 570  : }

  00006	8b c1		 mov	 eax, ecx
  00008	c3		 ret	 0
??0CSelectableRegionCalculator@@QAE@XZ ENDP		; CSelectableRegionCalculator::CSelectableRegionCalculator
_TEXT	ENDS
; Function compile flags: /Ogtp
; File D:\git\src\IBK\IBK_DRFN\ProjSrc\SrcChartEx\ChartAddIn\ChartAnalysisToolAddIn\AnalysisTool\CoordinateCalculator.cpp
;	COMDAT ?FindCoordinateCalculator@CCoordinateCalculatorFinder@@SAAAVCCoordinateCalculator@@_N@Z
_TEXT	SEGMENT
_bIsAutoPrice$ = 8					; size = 1
?FindCoordinateCalculator@CCoordinateCalculatorFinder@@SAAAVCCoordinateCalculator@@_N@Z PROC ; CCoordinateCalculatorFinder::FindCoordinateCalculator, COMDAT

; 556  : {

  00000	55		 push	 ebp
  00001	8b ec		 mov	 ebp, esp

; 557  : 	if(bIsAutoPrice)

  00003	80 7d 08 00	 cmp	 BYTE PTR _bIsAutoPrice$[ebp], 0
  00007	b8 00 00 00 00	 mov	 eax, OFFSET ?m_autoPriceCal@CCoordinateCalculatorFinder@@0VCCoordinateCalculator_AutoPrice@@A ; CCoordinateCalculatorFinder::m_autoPriceCal
  0000c	b9 00 00 00 00	 mov	 ecx, OFFSET ?m_noAutoPriceCal@CCoordinateCalculatorFinder@@0VCCoordinateCalculator_NoAutoPrice@@A ; CCoordinateCalculatorFinder::m_noAutoPriceCal
  00011	0f 44 c1	 cmove	 eax, ecx

; 558  : 		return m_autoPriceCal;
; 559  : 	return m_noAutoPriceCal;
; 560  : }

  00014	5d		 pop	 ebp
  00015	c3		 ret	 0
?FindCoordinateCalculator@CCoordinateCalculatorFinder@@SAAAVCCoordinateCalculator@@_N@Z ENDP ; CCoordinateCalculatorFinder::FindCoordinateCalculator
_TEXT	ENDS
; Function compile flags: /Ogtp
; File D:\git\src\IBK\IBK_DRFN\ProjSrc\SrcChartEx\ChartAddIn\ChartAnalysisToolAddIn\AnalysisTool\CoordinateCalculator.cpp
;	COMDAT ?GetData_Y@CCoordinateCalculator_NoAutoPrice@@MBENABVCCoordinateCalculatorData@@ABNH@Z
_TEXT	SEGMENT
_calData$ = 8						; size = 4
_dData$ = 12						; size = 4
_nIndex$ = 16						; size = 4
?GetData_Y@CCoordinateCalculator_NoAutoPrice@@MBENABVCCoordinateCalculatorData@@ABNH@Z PROC ; CCoordinateCalculator_NoAutoPrice::GetData_Y, COMDAT
; _this$ = ecx

; 545  : {

  00000	55		 push	 ebp
  00001	8b ec		 mov	 ebp, esp

; 546  : 	return calData.ApplyLog(dData);

  00003	ff 75 0c	 push	 DWORD PTR _dData$[ebp]
  00006	8b 4d 08	 mov	 ecx, DWORD PTR _calData$[ebp]
  00009	e8 00 00 00 00	 call	 ?ApplyLog@CCoordinateCalculatorData@@QBENABN@Z ; CCoordinateCalculatorData::ApplyLog

; 547  : }

  0000e	5d		 pop	 ebp
  0000f	c2 0c 00	 ret	 12			; 0000000cH
?GetData_Y@CCoordinateCalculator_NoAutoPrice@@MBENABVCCoordinateCalculatorData@@ABNH@Z ENDP ; CCoordinateCalculator_NoAutoPrice::GetData_Y
_TEXT	ENDS
; Function compile flags: /Ogtp
; File D:\git\src\IBK\IBK_DRFN\ProjSrc\SrcChartEx\ChartAddIn\ChartAnalysisToolAddIn\AnalysisTool\CoordinateCalculator.cpp
;	COMDAT ?GetData_Y@CCoordinateCalculator_NoAutoPrice@@MBENABVCCoordinateCalculatorData@@ABVCPoint@@H@Z
_TEXT	SEGMENT
$T1 = -44						; size = 8
$T2 = -36						; size = 8
_dY$ = -28						; size = 8
$T3 = -20						; size = 16
__$ArrayPad$ = -4					; size = 4
_calData$ = 8						; size = 4
_point$ = 12						; size = 4
___formal$ = 16						; size = 4
?GetData_Y@CCoordinateCalculator_NoAutoPrice@@MBENABVCCoordinateCalculatorData@@ABVCPoint@@H@Z PROC ; CCoordinateCalculator_NoAutoPrice::GetData_Y, COMDAT
; _this$ = ecx

; 534  : {

  00000	55		 push	 ebp
  00001	8b ec		 mov	 ebp, esp
  00003	83 ec 2c	 sub	 esp, 44			; 0000002cH
  00006	a1 00 00 00 00	 mov	 eax, DWORD PTR ___security_cookie
  0000b	33 c5		 xor	 eax, ebp
  0000d	89 45 fc	 mov	 DWORD PTR __$ArrayPad$[ebp], eax
  00010	56		 push	 esi
  00011	8b 75 0c	 mov	 esi, DWORD PTR _point$[ebp]
  00014	57		 push	 edi
  00015	8b 7d 08	 mov	 edi, DWORD PTR _calData$[ebp]

; 535  : 	double dY = CDataConversion::AbsoluteToRelative_Y(calData.GetRegion(), point.y, 

  00018	8b cf		 mov	 ecx, edi
  0001a	e8 00 00 00 00	 call	 ?GetDisplayDataMax_ScaleType@CCoordinateCalculatorData@@QBENXZ ; CCoordinateCalculatorData::GetDisplayDataMax_ScaleType
  0001f	dd 5d dc	 fstp	 QWORD PTR $T2[ebp]
  00022	8b cf		 mov	 ecx, edi
  00024	e8 00 00 00 00	 call	 ?GetDisplayDataMin_ScaleType@CCoordinateCalculatorData@@QBENXZ ; CCoordinateCalculatorData::GetDisplayDataMin_ScaleType
  00029	8d 45 dc	 lea	 eax, DWORD PTR $T2[ebp]
  0002c	8b cf		 mov	 ecx, edi
  0002e	50		 push	 eax
  0002f	8d 45 d4	 lea	 eax, DWORD PTR $T1[ebp]
  00032	50		 push	 eax
  00033	ff 76 04	 push	 DWORD PTR [esi+4]
  00036	8d 45 ec	 lea	 eax, DWORD PTR $T3[ebp]
  00039	50		 push	 eax
  0003a	dd 5d d4	 fstp	 QWORD PTR $T1[ebp]
  0003d	e8 00 00 00 00	 call	 ?GetRegion@CCoordinateCalculatorData@@QBE?AVCRect@@XZ ; CCoordinateCalculatorData::GetRegion
  00042	50		 push	 eax
  00043	e8 00 00 00 00	 call	 ?AbsoluteToRelative_Y@CDataConversion@@SANABVCRect@@HABN1@Z ; CDataConversion::AbsoluteToRelative_Y

; 536  : 				calData.GetDisplayDataMin_ScaleType(), calData.GetDisplayDataMax_ScaleType());
; 537  : 
; 538  : 	// (2007/5/10 - Seung-Won, Bae) Check No Y Scale Min/Max.
; 539  : 	if( -HUGE_VAL == dY) return -HUGE_VAL;

  00048	f2 0f 10 05 00
	00 00 00	 movsd	 xmm0, QWORD PTR __real@fff0000000000000
  00050	83 c4 10	 add	 esp, 16			; 00000010H
  00053	dd 5d e4	 fstp	 QWORD PTR _dY$[ebp]
  00056	66 0f 2e 45 e4	 ucomisd xmm0, QWORD PTR _dY$[ebp]
  0005b	9f		 lahf
  0005c	f6 c4 44	 test	 ah, 68			; 00000044H
  0005f	7a 18		 jp	 SHORT $LN2@GetData_Y
  00061	dd 05 00 00 00
	00		 fld	 QWORD PTR __real@fff0000000000000
  00067	5f		 pop	 edi

; 542  : }

  00068	5e		 pop	 esi
  00069	8b 4d fc	 mov	 ecx, DWORD PTR __$ArrayPad$[ebp]
  0006c	33 cd		 xor	 ecx, ebp
  0006e	e8 00 00 00 00	 call	 @__security_check_cookie@4
  00073	8b e5		 mov	 esp, ebp
  00075	5d		 pop	 ebp
  00076	c2 0c 00	 ret	 12			; 0000000cH
$LN2@GetData_Y:

; 540  : 	
; 541  : 	return calData.ApplyExp(dY);

  00079	8d 45 e4	 lea	 eax, DWORD PTR _dY$[ebp]
  0007c	8b cf		 mov	 ecx, edi
  0007e	50		 push	 eax
  0007f	e8 00 00 00 00	 call	 ?ApplyExp@CCoordinateCalculatorData@@QBENABN@Z ; CCoordinateCalculatorData::ApplyExp

; 542  : }

  00084	8b 4d fc	 mov	 ecx, DWORD PTR __$ArrayPad$[ebp]
  00087	5f		 pop	 edi
  00088	33 cd		 xor	 ecx, ebp
  0008a	5e		 pop	 esi
  0008b	e8 00 00 00 00	 call	 @__security_check_cookie@4
  00090	8b e5		 mov	 esp, ebp
  00092	5d		 pop	 ebp
  00093	c2 0c 00	 ret	 12			; 0000000cH
?GetData_Y@CCoordinateCalculator_NoAutoPrice@@MBENABVCCoordinateCalculatorData@@ABVCPoint@@H@Z ENDP ; CCoordinateCalculator_NoAutoPrice::GetData_Y
_TEXT	ENDS
; Function compile flags: /Ogtp
; File D:\git\src\IBK\IBK_DRFN\ProjSrc\SrcChartEx\ChartAddIn\ChartAnalysisToolAddIn\AnalysisTool\CoordinateCalculator.cpp
;	COMDAT ?GetData_X@CCoordinateCalculator_NoAutoPrice@@MBENABVCCoordinateCalculatorData@@ABVCPoint@@H@Z
_TEXT	SEGMENT
_nBlockColumn$ = -8					; size = 4
_nCenter_x$ = -4					; size = 4
_nRow$ = 8						; size = 4
_calData$ = 8						; size = 4
_nCol$ = 12						; size = 4
_point$ = 12						; size = 4
___formal$ = 16						; size = 4
?GetData_X@CCoordinateCalculator_NoAutoPrice@@MBENABVCCoordinateCalculatorData@@ABVCPoint@@H@Z PROC ; CCoordinateCalculator_NoAutoPrice::GetData_X, COMDAT
; _this$ = ecx

; 523  : {

  00000	55		 push	 ebp
  00001	8b ec		 mov	 ebp, esp
  00003	83 ec 08	 sub	 esp, 8
  00006	56		 push	 esi

; 524  : 	int nBlockColumn, nCenter_x;
; 525  : 	int nRow, nCol;
; 526  : 	double dResult = 0.0;
; 527  : 	calData.m_pIChartManager->GetBlockIndex(point, nRow, nCol);

  00007	8b 75 08	 mov	 esi, DWORD PTR _calData$[ebp]
  0000a	8d 55 0c	 lea	 edx, DWORD PTR _nCol$[ebp]
  0000d	57		 push	 edi
  0000e	8b 7d 0c	 mov	 edi, DWORD PTR _point$[ebp]
  00011	52		 push	 edx
  00012	8b 4e 48	 mov	 ecx, DWORD PTR [esi+72]
  00015	8d 55 08	 lea	 edx, DWORD PTR _nRow$[ebp]
  00018	52		 push	 edx
  00019	ff 77 04	 push	 DWORD PTR [edi+4]
  0001c	8b 01		 mov	 eax, DWORD PTR [ecx]
  0001e	ff 37		 push	 DWORD PTR [edi]
  00020	ff 90 8c 00 00
	00		 call	 DWORD PTR [eax+140]

; 528  : 	dResult = calData.m_pIChartManager->GetDoubleFromX(nRow, nCol, point.x, &nBlockColumn, nCenter_x);

  00026	8b 4e 48	 mov	 ecx, DWORD PTR [esi+72]
  00029	8d 55 fc	 lea	 edx, DWORD PTR _nCenter_x$[ebp]
  0002c	6a 00		 push	 0
  0002e	52		 push	 edx
  0002f	8d 55 f8	 lea	 edx, DWORD PTR _nBlockColumn$[ebp]
  00032	8b 01		 mov	 eax, DWORD PTR [ecx]
  00034	52		 push	 edx
  00035	ff 37		 push	 DWORD PTR [edi]
  00037	ff 75 0c	 push	 DWORD PTR _nCol$[ebp]
  0003a	8b 80 10 01 00
	00		 mov	 eax, DWORD PTR [eax+272]
  00040	ff 75 08	 push	 DWORD PTR _nRow$[ebp]
  00043	ff d0		 call	 eax

; 529  : 
; 530  : 	return dResult;

  00045	5f		 pop	 edi
  00046	5e		 pop	 esi

; 531  : }

  00047	8b e5		 mov	 esp, ebp
  00049	5d		 pop	 ebp
  0004a	c2 0c 00	 ret	 12			; 0000000cH
?GetData_X@CCoordinateCalculator_NoAutoPrice@@MBENABVCCoordinateCalculatorData@@ABVCPoint@@H@Z ENDP ; CCoordinateCalculator_NoAutoPrice::GetData_X
_TEXT	ENDS
; Function compile flags: /Ogtp
; File D:\git\src\IBK\IBK_DRFN\ProjSrc\SrcChartEx\ChartAddIn\ChartAnalysisToolAddIn\AnalysisTool\CoordinateCalculator.cpp
;	COMDAT ?IsAutoPriceCalculator@CCoordinateCalculator_AutoPrice@@ABE_NPAUIPacket133101@@H@Z
_TEXT	SEGMENT
_pPacket$ = 8						; size = 4
_nIndex$ = 12						; size = 4
?IsAutoPriceCalculator@CCoordinateCalculator_AutoPrice@@ABE_NPAUIPacket133101@@H@Z PROC ; CCoordinateCalculator_AutoPrice::IsAutoPriceCalculator, COMDAT
; _this$ = ecx

; 509  : {

  00000	55		 push	 ebp
  00001	8b ec		 mov	 ebp, esp

; 510  : 	if(pPacket == NULL)

  00003	8b 4d 08	 mov	 ecx, DWORD PTR _pPacket$[ebp]
  00006	85 c9		 test	 ecx, ecx
  00008	74 16		 je	 SHORT $LN4@IsAutoPric

; 511  : 		return false;
; 512  : 
; 513  : 	return (nIndex >= 0 && nIndex < pPacket->GetDataCount());

  0000a	83 7d 0c 00	 cmp	 DWORD PTR _nIndex$[ebp], 0
  0000e	7c 10		 jl	 SHORT $LN4@IsAutoPric
  00010	8b 01		 mov	 eax, DWORD PTR [ecx]
  00012	ff 50 2c	 call	 DWORD PTR [eax+44]
  00015	39 45 0c	 cmp	 DWORD PTR _nIndex$[ebp], eax
  00018	7d 06		 jge	 SHORT $LN4@IsAutoPric
  0001a	b0 01		 mov	 al, 1

; 514  : }

  0001c	5d		 pop	 ebp
  0001d	c2 08 00	 ret	 8
$LN4@IsAutoPric:
  00020	32 c0		 xor	 al, al
  00022	5d		 pop	 ebp
  00023	c2 08 00	 ret	 8
?IsAutoPriceCalculator@CCoordinateCalculator_AutoPrice@@ABE_NPAUIPacket133101@@H@Z ENDP ; CCoordinateCalculator_AutoPrice::IsAutoPriceCalculator
_TEXT	ENDS
; Function compile flags: /Ogtp
; File D:\git\src\IBK\IBK_DRFN\ProjSrc\SrcChartEx\ChartAddIn\ChartAnalysisToolAddIn\AnalysisTool\CoordinateCalculator.cpp
;	COMDAT ?GetData_Y@CCoordinateCalculator_AutoPrice@@MBENABVCCoordinateCalculatorData@@ABNH@Z
_TEXT	SEGMENT
_dY$ = -8						; size = 8
_calData$ = 8						; size = 4
_dData$ = 12						; size = 4
_nIndex$ = 16						; size = 4
?GetData_Y@CCoordinateCalculator_AutoPrice@@MBENABVCCoordinateCalculatorData@@ABNH@Z PROC ; CCoordinateCalculator_AutoPrice::GetData_Y, COMDAT
; _this$ = ecx

; 499  : {

  00000	55		 push	 ebp
  00001	8b ec		 mov	 ebp, esp
  00003	83 ec 08	 sub	 esp, 8

; 500  : 	IPacket *pIPacket = calData.GetPacket_Y();

  00006	8b 4d 08	 mov	 ecx, DWORD PTR _calData$[ebp]
  00009	56		 push	 esi
  0000a	e8 00 00 00 00	 call	 ?GetPacket_Y@CCoordinateCalculatorData@@QBEPAUIPacket133101@@XZ ; CCoordinateCalculatorData::GetPacket_Y

; 501  : 	double dY = dData;

  0000f	8b 4d 0c	 mov	 ecx, DWORD PTR _dData$[ebp]
  00012	8b f0		 mov	 esi, eax
  00014	f2 0f 10 01	 movsd	 xmm0, QWORD PTR [ecx]
  00018	f2 0f 11 45 f8	 movsd	 QWORD PTR _dY$[ebp], xmm0

; 502  : 	if( pIPacket && IsAutoPriceCalculator( pIPacket, nIndex)) pIPacket->GetData( nIndex, dY);

  0001d	85 f6		 test	 esi, esi
  0001f	74 26		 je	 SHORT $LN3@GetData_Y

; 513  : 	return (nIndex >= 0 && nIndex < pPacket->GetDataCount());

  00021	57		 push	 edi
  00022	8b 7d 10	 mov	 edi, DWORD PTR _nIndex$[ebp]
  00025	85 ff		 test	 edi, edi
  00027	78 17		 js	 SHORT $LN2@GetData_Y
  00029	8b 06		 mov	 eax, DWORD PTR [esi]
  0002b	8b ce		 mov	 ecx, esi
  0002d	ff 50 2c	 call	 DWORD PTR [eax+44]
  00030	3b f8		 cmp	 edi, eax
  00032	7d 0c		 jge	 SHORT $LN2@GetData_Y

; 502  : 	if( pIPacket && IsAutoPriceCalculator( pIPacket, nIndex)) pIPacket->GetData( nIndex, dY);

  00034	8b 06		 mov	 eax, DWORD PTR [esi]
  00036	8d 4d f8	 lea	 ecx, DWORD PTR _dY$[ebp]
  00039	51		 push	 ecx
  0003a	57		 push	 edi
  0003b	8b ce		 mov	 ecx, esi
  0003d	ff 50 40	 call	 DWORD PTR [eax+64]
$LN2@GetData_Y:

; 503  : 	if( pIPacket) pIPacket->Release();

  00040	8b 06		 mov	 eax, DWORD PTR [esi]
  00042	56		 push	 esi
  00043	ff 50 08	 call	 DWORD PTR [eax+8]
  00046	5f		 pop	 edi
$LN3@GetData_Y:

; 504  : 	return calData.ApplyLog(dY);

  00047	8b 4d 08	 mov	 ecx, DWORD PTR _calData$[ebp]
  0004a	8d 45 f8	 lea	 eax, DWORD PTR _dY$[ebp]
  0004d	50		 push	 eax
  0004e	e8 00 00 00 00	 call	 ?ApplyLog@CCoordinateCalculatorData@@QBENABN@Z ; CCoordinateCalculatorData::ApplyLog
  00053	5e		 pop	 esi

; 505  : }

  00054	8b e5		 mov	 esp, ebp
  00056	5d		 pop	 ebp
  00057	c2 0c 00	 ret	 12			; 0000000cH
?GetData_Y@CCoordinateCalculator_AutoPrice@@MBENABVCCoordinateCalculatorData@@ABNH@Z ENDP ; CCoordinateCalculator_AutoPrice::GetData_Y
_TEXT	ENDS
; Function compile flags: /Ogtp
; File D:\git\src\IBK\IBK_DRFN\ProjSrc\SrcChartEx\ChartAddIn\ChartAnalysisToolAddIn\AnalysisTool\CoordinateCalculator.cpp
; File D:\git\src\IBK\IBK_DRFN\ProjSrc\SrcChartEx\ChartAddIn\ChartAnalysisToolAddIn\Include_Analysis\CoordinateCalculatorData.h
; File D:\git\src\IBK\IBK_DRFN\ProjSrc\SrcChartEx\ChartAddIn\ChartAnalysisToolAddIn\AnalysisTool\CoordinateCalculator.cpp
; File C:\Program Files (x86)\Microsoft Visual Studio\2019\Community\VC\Tools\MSVC\14.29.30133\atlmfc\include\atlsimpstr.h
; File D:\git\src\IBK\IBK_DRFN\ProjSrc\SrcChartEx\ChartAddIn\ChartAnalysisToolAddIn\AnalysisTool\CoordinateCalculator.cpp
;	COMDAT ?GetData_Y@CCoordinateCalculator_AutoPrice@@MBENABVCCoordinateCalculatorData@@ABVCPoint@@H@Z
_TEXT	SEGMENT
$T2 = -72						; size = 8
$T3 = -64						; size = 8
$T4 = -56						; size = 8
_dY$ = -48						; size = 8
_point$GSCopy$1$ = -40					; size = 4
$T5 = -36						; size = 4
$T6 = -32						; size = 16
__$ArrayPad$ = -16					; size = 4
__$EHRec$ = -12						; size = 12
_calData$ = 8						; size = 4
_point$ = 12						; size = 4
___formal$ = 16						; size = 4
?GetData_Y@CCoordinateCalculator_AutoPrice@@MBENABVCCoordinateCalculatorData@@ABVCPoint@@H@Z PROC ; CCoordinateCalculator_AutoPrice::GetData_Y, COMDAT
; _this$ = ecx

; 478  : {

  00000	55		 push	 ebp
  00001	8b ec		 mov	 ebp, esp
  00003	6a ff		 push	 -1
  00005	68 00 00 00 00	 push	 __ehhandler$?GetData_Y@CCoordinateCalculator_AutoPrice@@MBENABVCCoordinateCalculatorData@@ABVCPoint@@H@Z
  0000a	64 a1 00 00 00
	00		 mov	 eax, DWORD PTR fs:0
  00010	50		 push	 eax
  00011	83 ec 3c	 sub	 esp, 60			; 0000003cH
  00014	a1 00 00 00 00	 mov	 eax, DWORD PTR ___security_cookie
  00019	33 c5		 xor	 eax, ebp
  0001b	89 45 f0	 mov	 DWORD PTR __$ArrayPad$[ebp], eax
  0001e	53		 push	 ebx
  0001f	56		 push	 esi
  00020	57		 push	 edi
  00021	50		 push	 eax
  00022	8d 45 f4	 lea	 eax, DWORD PTR __$EHRec$[ebp]
  00025	64 a3 00 00 00
	00		 mov	 DWORD PTR fs:0, eax
  0002b	8b 5d 08	 mov	 ebx, DWORD PTR _calData$[ebp]
  0002e	8b 45 0c	 mov	 eax, DWORD PTR _point$[ebp]
  00031	89 45 d8	 mov	 DWORD PTR _point$GSCopy$1$[ebp], eax
; File D:\git\src\IBK\IBK_DRFN\ProjSrc\SrcChartEx\ChartAddIn\ChartAnalysisToolAddIn\Include_Analysis\CoordinateCalculatorData.h

; 128  : 							{	return m_pIChartManager && m_pIChartOCX && m_pIPacketListManager && m_pIDefaultPacketManager;	}

  00034	83 7b 48 00	 cmp	 DWORD PTR [ebx+72], 0
  00038	0f 84 01 01 00
	00		 je	 $LN27@GetData_Y
  0003e	83 7b 4c 00	 cmp	 DWORD PTR [ebx+76], 0
  00042	0f 84 f7 00 00
	00		 je	 $LN27@GetData_Y
  00048	83 7b 50 00	 cmp	 DWORD PTR [ebx+80], 0
  0004c	0f 84 ed 00 00
	00		 je	 $LN27@GetData_Y
  00052	83 7b 54 00	 cmp	 DWORD PTR [ebx+84], 0
  00056	0f 84 e3 00 00
	00		 je	 $LN27@GetData_Y

; 134  : 	CString		GetRQ( void) const		{	return m_strRQ;	}

  0005c	8d 43 58	 lea	 eax, DWORD PTR [ebx+88]
  0005f	50		 push	 eax
  00060	8d 4d dc	 lea	 ecx, DWORD PTR $T5[ebp]
  00063	ff 15 00 00 00
	00		 call	 DWORD PTR __imp_??0?$CStringT@DV?$StrTraitMFC_DLL@DV?$ChTraitsCRT@D@ATL@@@@@ATL@@QAE@ABV01@@Z
; File D:\git\src\IBK\IBK_DRFN\ProjSrc\SrcChartEx\ChartAddIn\ChartAnalysisToolAddIn\AnalysisTool\CoordinateCalculator.cpp

; 481  : 	int nIndex = calData.m_pIChartManager->FindViewDataIndex_Pt( calData.GetRQ(), point.x, calData.GetBlockIndex().GetColumn(), FALSE);

  00069	8b 43 48	 mov	 eax, DWORD PTR [ebx+72]
  0006c	8b cb		 mov	 ecx, ebx
; File C:\Program Files (x86)\Microsoft Visual Studio\2019\Community\VC\Tools\MSVC\14.29.30133\atlmfc\include\atlsimpstr.h

; 377  : 		return( m_pszData );

  0006e	8b 75 dc	 mov	 esi, DWORD PTR $T5[ebp]
; File D:\git\src\IBK\IBK_DRFN\ProjSrc\SrcChartEx\ChartAddIn\ChartAnalysisToolAddIn\AnalysisTool\CoordinateCalculator.cpp

; 481  : 	int nIndex = calData.m_pIChartManager->FindViewDataIndex_Pt( calData.GetRQ(), point.x, calData.GetBlockIndex().GetColumn(), FALSE);

  00071	6a 00		 push	 0
  00073	c7 45 fc 00 00
	00 00		 mov	 DWORD PTR __$EHRec$[ebp+8], 0
  0007a	8b 38		 mov	 edi, DWORD PTR [eax]
  0007c	8d 45 b8	 lea	 eax, DWORD PTR $T2[ebp]
  0007f	50		 push	 eax
  00080	e8 00 00 00 00	 call	 ?GetBlockIndex@CCoordinateCalculatorData@@QBE?AVCBlockIndex@@XZ ; CCoordinateCalculatorData::GetBlockIndex
  00085	8b 4b 48	 mov	 ecx, DWORD PTR [ebx+72]
  00088	8b 40 04	 mov	 eax, DWORD PTR [eax+4]
  0008b	50		 push	 eax
  0008c	8b 45 d8	 mov	 eax, DWORD PTR _point$GSCopy$1$[ebp]
  0008f	ff 30		 push	 DWORD PTR [eax]
  00091	56		 push	 esi
  00092	ff 97 04 01 00
	00		 call	 DWORD PTR [edi+260]
  00098	8d 4d dc	 lea	 ecx, DWORD PTR $T5[ebp]
  0009b	c7 45 fc ff ff
	ff ff		 mov	 DWORD PTR __$EHRec$[ebp+8], -1
  000a2	8b f8		 mov	 edi, eax
  000a4	ff 15 00 00 00
	00		 call	 DWORD PTR __imp_??1?$CStringT@DV?$StrTraitMFC_DLL@DV?$ChTraitsCRT@D@ATL@@@@@ATL@@QAE@XZ

; 482  : 	IPacket *pIPacket = calData.GetPacket_Y();

  000aa	8b cb		 mov	 ecx, ebx
  000ac	e8 00 00 00 00	 call	 ?GetPacket_Y@CCoordinateCalculatorData@@QBEPAUIPacket133101@@XZ ; CCoordinateCalculatorData::GetPacket_Y
  000b1	8b f0		 mov	 esi, eax
  000b3	0f 57 c0	 xorps	 xmm0, xmm0

; 483  : 
; 484  : 	double dY = 0.0;

  000b6	f2 0f 11 45 d0	 movsd	 QWORD PTR _dY$[ebp], xmm0

; 485  : 	if( pIPacket && IsAutoPriceCalculator( pIPacket, nIndex))

  000bb	85 f6		 test	 esi, esi
  000bd	74 1d		 je	 SHORT $LN3@GetData_Y

; 513  : 	return (nIndex >= 0 && nIndex < pPacket->GetDataCount());

  000bf	85 ff		 test	 edi, edi
  000c1	78 19		 js	 SHORT $LN3@GetData_Y
  000c3	8b 16		 mov	 edx, DWORD PTR [esi]
  000c5	8b ce		 mov	 ecx, esi
  000c7	ff 52 2c	 call	 DWORD PTR [edx+44]
  000ca	3b f8		 cmp	 edi, eax
  000cc	7d 0e		 jge	 SHORT $LN3@GetData_Y

; 486  : 			pIPacket->GetData( nIndex, dY);

  000ce	8b 06		 mov	 eax, DWORD PTR [esi]
  000d0	8d 4d d0	 lea	 ecx, DWORD PTR _dY$[ebp]
  000d3	51		 push	 ecx
  000d4	57		 push	 edi
  000d5	8b ce		 mov	 ecx, esi
  000d7	ff 50 40	 call	 DWORD PTR [eax+64]
  000da	eb 3d		 jmp	 SHORT $LN26@GetData_Y
$LN3@GetData_Y:

; 487  : 	else	dY = CDataConversion::AbsoluteToRelative_Y( calData.GetRegion(), point.y, 

  000dc	8b cb		 mov	 ecx, ebx
  000de	e8 00 00 00 00	 call	 ?GetDisplayDataMax_ScaleType@CCoordinateCalculatorData@@QBENXZ ; CCoordinateCalculatorData::GetDisplayDataMax_ScaleType
  000e3	dd 5d c8	 fstp	 QWORD PTR $T4[ebp]
  000e6	8b cb		 mov	 ecx, ebx
  000e8	e8 00 00 00 00	 call	 ?GetDisplayDataMin_ScaleType@CCoordinateCalculatorData@@QBENXZ ; CCoordinateCalculatorData::GetDisplayDataMin_ScaleType
  000ed	8d 45 c8	 lea	 eax, DWORD PTR $T4[ebp]
  000f0	8b cb		 mov	 ecx, ebx
  000f2	50		 push	 eax
  000f3	8d 45 c0	 lea	 eax, DWORD PTR $T3[ebp]
  000f6	50		 push	 eax
  000f7	8b 45 d8	 mov	 eax, DWORD PTR _point$GSCopy$1$[ebp]
  000fa	dd 5d c0	 fstp	 QWORD PTR $T3[ebp]
  000fd	ff 70 04	 push	 DWORD PTR [eax+4]
  00100	8d 45 e0	 lea	 eax, DWORD PTR $T6[ebp]
  00103	50		 push	 eax
  00104	e8 00 00 00 00	 call	 ?GetRegion@CCoordinateCalculatorData@@QBE?AVCRect@@XZ ; CCoordinateCalculatorData::GetRegion
  00109	50		 push	 eax
  0010a	e8 00 00 00 00	 call	 ?AbsoluteToRelative_Y@CDataConversion@@SANABVCRect@@HABN1@Z ; CDataConversion::AbsoluteToRelative_Y
  0010f	83 c4 10	 add	 esp, 16			; 00000010H
  00112	dd 5d d0	 fstp	 QWORD PTR _dY$[ebp]

; 488  : 				calData.GetDisplayDataMin_ScaleType(), calData.GetDisplayDataMax_ScaleType());
; 489  : 	
; 490  : 	if( pIPacket) pIPacket->Release();

  00115	85 f6		 test	 esi, esi
  00117	74 06		 je	 SHORT $LN5@GetData_Y
$LN26@GetData_Y:
  00119	8b 06		 mov	 eax, DWORD PTR [esi]
  0011b	56		 push	 esi
  0011c	ff 50 08	 call	 DWORD PTR [eax+8]
$LN5@GetData_Y:

; 491  : 
; 492  : 	// (2007/5/10 - Seung-Won, Bae) Check No Y Scale Min/Max.
; 493  : 	if( -HUGE_VAL == dY) return -HUGE_VAL;

  0011f	f2 0f 10 05 00
	00 00 00	 movsd	 xmm0, QWORD PTR __real@fff0000000000000
  00127	66 0f 2e 45 d0	 ucomisd xmm0, QWORD PTR _dY$[ebp]
  0012c	9f		 lahf
  0012d	f6 c4 44	 test	 ah, 68			; 00000044H
  00130	7b 0d		 jnp	 SHORT $LN27@GetData_Y

; 494  : 
; 495  : 	return calData.ApplyExp(dY);

  00132	8d 45 d0	 lea	 eax, DWORD PTR _dY$[ebp]
  00135	8b cb		 mov	 ecx, ebx
  00137	50		 push	 eax
  00138	e8 00 00 00 00	 call	 ?ApplyExp@CCoordinateCalculatorData@@QBENABN@Z ; CCoordinateCalculatorData::ApplyExp
  0013d	eb 06		 jmp	 SHORT $LN1@GetData_Y
$LN27@GetData_Y:

; 491  : 
; 492  : 	// (2007/5/10 - Seung-Won, Bae) Check No Y Scale Min/Max.
; 493  : 	if( -HUGE_VAL == dY) return -HUGE_VAL;

  0013f	dd 05 00 00 00
	00		 fld	 QWORD PTR __real@fff0000000000000
$LN1@GetData_Y:

; 496  : }

  00145	8b 4d f4	 mov	 ecx, DWORD PTR __$EHRec$[ebp]
  00148	64 89 0d 00 00
	00 00		 mov	 DWORD PTR fs:0, ecx
  0014f	59		 pop	 ecx
  00150	5f		 pop	 edi
  00151	5e		 pop	 esi
  00152	5b		 pop	 ebx
  00153	8b 4d f0	 mov	 ecx, DWORD PTR __$ArrayPad$[ebp]
  00156	33 cd		 xor	 ecx, ebp
  00158	e8 00 00 00 00	 call	 @__security_check_cookie@4
  0015d	8b e5		 mov	 esp, ebp
  0015f	5d		 pop	 ebp
  00160	c2 0c 00	 ret	 12			; 0000000cH
_TEXT	ENDS
;	COMDAT text$x
text$x	SEGMENT
__unwindfunclet$?GetData_Y@CCoordinateCalculator_AutoPrice@@MBENABVCCoordinateCalculatorData@@ABVCPoint@@H@Z$0:
  00000	8d 4d dc	 lea	 ecx, DWORD PTR $T5[ebp]
  00003	ff 25 00 00 00
	00		 jmp	 DWORD PTR __imp_??1?$CStringT@DV?$StrTraitMFC_DLL@DV?$ChTraitsCRT@D@ATL@@@@@ATL@@QAE@XZ
  00009	cc		 int	 3
  0000a	cc		 int	 3
  0000b	cc		 int	 3
  0000c	cc		 int	 3
  0000d	cc		 int	 3
__ehhandler$?GetData_Y@CCoordinateCalculator_AutoPrice@@MBENABVCCoordinateCalculatorData@@ABVCPoint@@H@Z:
  0000e	90		 npad	 1
  0000f	90		 npad	 1
  00010	8b 54 24 08	 mov	 edx, DWORD PTR [esp+8]
  00014	8d 42 0c	 lea	 eax, DWORD PTR [edx+12]
  00017	8b 4a b4	 mov	 ecx, DWORD PTR [edx-76]
  0001a	33 c8		 xor	 ecx, eax
  0001c	e8 00 00 00 00	 call	 @__security_check_cookie@4
  00021	8b 4a fc	 mov	 ecx, DWORD PTR [edx-4]
  00024	33 c8		 xor	 ecx, eax
  00026	e8 00 00 00 00	 call	 @__security_check_cookie@4
  0002b	b8 00 00 00 00	 mov	 eax, OFFSET __ehfuncinfo$?GetData_Y@CCoordinateCalculator_AutoPrice@@MBENABVCCoordinateCalculatorData@@ABVCPoint@@H@Z
  00030	e9 00 00 00 00	 jmp	 ___CxxFrameHandler3
text$x	ENDS
?GetData_Y@CCoordinateCalculator_AutoPrice@@MBENABVCCoordinateCalculatorData@@ABVCPoint@@H@Z ENDP ; CCoordinateCalculator_AutoPrice::GetData_Y
; Function compile flags: /Ogtp
; File D:\git\src\IBK\IBK_DRFN\ProjSrc\SrcChartEx\ChartAddIn\ChartAnalysisToolAddIn\AnalysisTool\CoordinateCalculator.cpp
; File D:\git\src\IBK\IBK_DRFN\ProjSrc\SrcChartEx\ChartAddIn\ChartAnalysisToolAddIn\Include_Analysis\CoordinateCalculatorData.h
; File D:\git\src\IBK\IBK_DRFN\ProjSrc\SrcChartEx\ChartAddIn\ChartAnalysisToolAddIn\AnalysisTool\CoordinateCalculator.cpp
; File D:\git\src\IBK\IBK_DRFN\ProjSrc\SrcChartEx\ChartAddIn\ChartAnalysisToolAddIn\Include_AddIn_133101\I133101\_IString.h
; File D:\git\src\IBK\IBK_DRFN\ProjSrc\SrcChartEx\ChartAddIn\ChartAnalysisToolAddIn\AnalysisTool\CoordinateCalculator.cpp
; File D:\git\src\IBK\IBK_DRFN\ProjSrc\SrcChartEx\ChartAddIn\ChartAnalysisToolAddIn\Include_AddIn_133101\I133101\_IString.h
; File D:\git\src\IBK\IBK_DRFN\ProjSrc\SrcChartEx\ChartAddIn\ChartAnalysisToolAddIn\AnalysisTool\CoordinateCalculator.cpp
; File D:\git\src\IBK\IBK_DRFN\ProjSrc\SrcChartEx\ChartAddIn\ChartAnalysisToolAddIn\Include_AddIn_133101\I133101\_IString.h
; File D:\git\src\IBK\IBK_DRFN\ProjSrc\SrcChartEx\ChartAddIn\ChartAnalysisToolAddIn\AnalysisTool\CoordinateCalculator.cpp
; File D:\git\src\IBK\IBK_DRFN\ProjSrc\SrcChartEx\ChartAddIn\ChartAnalysisToolAddIn\Include_AddIn_133101\I133101\_IString.h
; File D:\git\src\IBK\IBK_DRFN\ProjSrc\SrcChartEx\ChartAddIn\ChartAnalysisToolAddIn\AnalysisTool\CoordinateCalculator.cpp
; File D:\git\src\IBK\IBK_DRFN\ProjSrc\SrcChartEx\ChartAddIn\ChartAnalysisToolAddIn\Include_AddIn_133101\I133101\_IString.h
; File D:\git\src\IBK\IBK_DRFN\ProjSrc\SrcChartEx\ChartAddIn\ChartAnalysisToolAddIn\AnalysisTool\CoordinateCalculator.cpp
; File D:\git\src\IBK\IBK_DRFN\ProjSrc\SrcChartEx\ChartAddIn\ChartAnalysisToolAddIn\Include_AddIn_133101\I133101\_IString.h
; File D:\git\src\IBK\IBK_DRFN\ProjSrc\SrcChartEx\ChartAddIn\ChartAnalysisToolAddIn\AnalysisTool\CoordinateCalculator.cpp
; File D:\git\src\IBK\IBK_DRFN\ProjSrc\SrcChartEx\ChartAddIn\ChartAnalysisToolAddIn\Include_AddIn_133101\I133101\_IString.h
; File D:\git\src\IBK\IBK_DRFN\ProjSrc\SrcChartEx\ChartAddIn\ChartAnalysisToolAddIn\AnalysisTool\CoordinateCalculator.cpp
;	COMDAT ?GetData_X@CCoordinateCalculator_AutoPrice@@MBENABVCCoordinateCalculatorData@@ABVCPoint@@H@Z
_TEXT	SEGMENT
$T2 = -64						; size = 8
_szGraphName$ = -56					; size = 8
_szRQ$ = -48						; size = 8
_nBlockColumn$ = -40					; size = 4
_nCenter_x$ = -36					; size = 4
_nV$ = -32						; size = 4
_nG$ = -28						; size = 4
_nC$ = -24						; size = 4
_nR$ = -20						; size = 4
_nRow$ = -16						; size = 4
__$EHRec$ = -12						; size = 12
_nCol$ = 8						; size = 4
_calData$ = 8						; size = 4
_point$ = 12						; size = 4
___formal$ = 16						; size = 4
?GetData_X@CCoordinateCalculator_AutoPrice@@MBENABVCCoordinateCalculatorData@@ABVCPoint@@H@Z PROC ; CCoordinateCalculator_AutoPrice::GetData_X, COMDAT
; _this$ = ecx

; 454  : {

  00000	55		 push	 ebp
  00001	8b ec		 mov	 ebp, esp
  00003	6a ff		 push	 -1
  00005	68 00 00 00 00	 push	 __ehhandler$?GetData_X@CCoordinateCalculator_AutoPrice@@MBENABVCCoordinateCalculatorData@@ABVCPoint@@H@Z
  0000a	64 a1 00 00 00
	00		 mov	 eax, DWORD PTR fs:0
  00010	50		 push	 eax
  00011	83 ec 34	 sub	 esp, 52			; 00000034H
  00014	53		 push	 ebx
  00015	56		 push	 esi
  00016	57		 push	 edi
  00017	a1 00 00 00 00	 mov	 eax, DWORD PTR ___security_cookie
  0001c	33 c5		 xor	 eax, ebp
  0001e	50		 push	 eax
  0001f	8d 45 f4	 lea	 eax, DWORD PTR __$EHRec$[ebp]
  00022	64 a3 00 00 00
	00		 mov	 DWORD PTR fs:0, eax
; File D:\git\src\IBK\IBK_DRFN\ProjSrc\SrcChartEx\ChartAddIn\ChartAnalysisToolAddIn\Include_Analysis\CoordinateCalculatorData.h

; 128  : 							{	return m_pIChartManager && m_pIChartOCX && m_pIPacketListManager && m_pIDefaultPacketManager;	}

  00028	8b 5d 08	 mov	 ebx, DWORD PTR _calData$[ebp]
  0002b	8b 4b 48	 mov	 ecx, DWORD PTR [ebx+72]
  0002e	85 c9		 test	 ecx, ecx
  00030	0f 84 63 01 00
	00		 je	 $LN11@GetData_X
  00036	83 7b 4c 00	 cmp	 DWORD PTR [ebx+76], 0
  0003a	0f 84 59 01 00
	00		 je	 $LN11@GetData_X
  00040	83 7b 50 00	 cmp	 DWORD PTR [ebx+80], 0
  00044	0f 84 4f 01 00
	00		 je	 $LN11@GetData_X
  0004a	83 7b 54 00	 cmp	 DWORD PTR [ebx+84], 0
  0004e	0f 84 45 01 00
	00		 je	 $LN11@GetData_X
; File D:\git\src\IBK\IBK_DRFN\ProjSrc\SrcChartEx\ChartAddIn\ChartAnalysisToolAddIn\AnalysisTool\CoordinateCalculator.cpp

; 460  : 	calData.m_pIChartManager->GetBlockIndex( point, nRow, nCol);

  00054	8b 01		 mov	 eax, DWORD PTR [ecx]
  00056	8d 55 08	 lea	 edx, DWORD PTR _nCol$[ebp]
  00059	52		 push	 edx
  0005a	8d 55 f0	 lea	 edx, DWORD PTR _nRow$[ebp]
  0005d	52		 push	 edx
  0005e	8b 55 0c	 mov	 edx, DWORD PTR _point$[ebp]
  00061	ff 72 04	 push	 DWORD PTR [edx+4]
  00064	ff 32		 push	 DWORD PTR [edx]
  00066	ff 90 8c 00 00
	00		 call	 DWORD PTR [eax+140]

; 463  : 	ILPCSTR szRQ = calData.m_pIChartOCX->GetCurrentRQ();

  0006c	8b 4b 4c	 mov	 ecx, DWORD PTR [ebx+76]
  0006f	8b 01		 mov	 eax, DWORD PTR [ecx]
  00071	ff 90 40 02 00
	00		 call	 DWORD PTR [eax+576]
; File D:\git\src\IBK\IBK_DRFN\ProjSrc\SrcChartEx\ChartAddIn\ChartAnalysisToolAddIn\Include_AddIn_133101\I133101\_IString.h

; 39   : 		m_pIStrData = p_pIString;	// Do not AddRef(). Because It must be Return Value.

  00077	8b f0		 mov	 esi, eax
  00079	89 75 d4	 mov	 DWORD PTR _szRQ$[ebp+4], esi

; 40   : 		if( m_pIStrData) m_szData = m_pIStrData->GetData();

  0007c	85 f6		 test	 esi, esi
  0007e	74 0b		 je	 SHORT $LN14@GetData_X
  00080	8b 16		 mov	 edx, DWORD PTR [esi]
  00082	8b ce		 mov	 ecx, esi
  00084	ff 52 10	 call	 DWORD PTR [edx+16]
  00087	8b f8		 mov	 edi, eax
  00089	eb 02		 jmp	 SHORT $LN42@GetData_X
$LN14@GetData_X:

; 41   : 		else m_szData = NULL;

  0008b	33 ff		 xor	 edi, edi
$LN42@GetData_X:
; File D:\git\src\IBK\IBK_DRFN\ProjSrc\SrcChartEx\ChartAddIn\ChartAnalysisToolAddIn\AnalysisTool\CoordinateCalculator.cpp

; 463  : 	ILPCSTR szRQ = calData.m_pIChartOCX->GetCurrentRQ();

  0008d	89 7d d0	 mov	 DWORD PTR _szRQ$[ebp], edi

; 464  : 	int nR = nRow;

  00090	8b 45 f0	 mov	 eax, DWORD PTR _nRow$[ebp]

; 467  : 	ILPCSTR szGraphName = calData.m_pIChartManager->FindNextIndicator( NULL, nR, nC, nV, nG, szRQ);

  00093	8d 55 e4	 lea	 edx, DWORD PTR _nG$[ebp]
  00096	8b 4b 48	 mov	 ecx, DWORD PTR [ebx+72]
  00099	57		 push	 edi
  0009a	52		 push	 edx
  0009b	8d 55 e0	 lea	 edx, DWORD PTR _nV$[ebp]
  0009e	89 45 ec	 mov	 DWORD PTR _nR$[ebp], eax
  000a1	8b 45 08	 mov	 eax, DWORD PTR _nCol$[ebp]
  000a4	52		 push	 edx
  000a5	8d 55 e8	 lea	 edx, DWORD PTR _nC$[ebp]
  000a8	89 45 e8	 mov	 DWORD PTR _nC$[ebp], eax
  000ab	52		 push	 edx
  000ac	c7 45 e0 00 00
	00 00		 mov	 DWORD PTR _nV$[ebp], 0
  000b3	8d 55 ec	 lea	 edx, DWORD PTR _nR$[ebp]
  000b6	c7 45 e4 ff ff
	ff ff		 mov	 DWORD PTR _nG$[ebp], -1
  000bd	8b 01		 mov	 eax, DWORD PTR [ecx]
  000bf	52		 push	 edx
  000c0	6a 00		 push	 0
  000c2	c7 45 fc 00 00
	00 00		 mov	 DWORD PTR __$EHRec$[ebp+8], 0
  000c9	ff 50 74	 call	 DWORD PTR [eax+116]
; File D:\git\src\IBK\IBK_DRFN\ProjSrc\SrcChartEx\ChartAddIn\ChartAnalysisToolAddIn\Include_AddIn_133101\I133101\_IString.h

; 39   : 		m_pIStrData = p_pIString;	// Do not AddRef(). Because It must be Return Value.

  000cc	89 45 cc	 mov	 DWORD PTR _szGraphName$[ebp+4], eax

; 40   : 		if( m_pIStrData) m_szData = m_pIStrData->GetData();

  000cf	85 c0		 test	 eax, eax
  000d1	74 09		 je	 SHORT $LN18@GetData_X
  000d3	8b 10		 mov	 edx, DWORD PTR [eax]
  000d5	8b c8		 mov	 ecx, eax
  000d7	ff 52 10	 call	 DWORD PTR [edx+16]
  000da	eb 02		 jmp	 SHORT $LN43@GetData_X
$LN18@GetData_X:

; 41   : 		else m_szData = NULL;

  000dc	33 c0		 xor	 eax, eax
$LN43@GetData_X:
; File D:\git\src\IBK\IBK_DRFN\ProjSrc\SrcChartEx\ChartAddIn\ChartAnalysisToolAddIn\AnalysisTool\CoordinateCalculator.cpp

; 467  : 	ILPCSTR szGraphName = calData.m_pIChartManager->FindNextIndicator( NULL, nR, nC, nV, nG, szRQ);

  000de	89 45 c8	 mov	 DWORD PTR _szGraphName$[ebp], eax
; File D:\git\src\IBK\IBK_DRFN\ProjSrc\SrcChartEx\ChartAddIn\ChartAnalysisToolAddIn\Include_AddIn_133101\I133101\_IString.h

; 57   : 		if( !m_szData) return TRUE;

  000e1	8b 55 08	 mov	 edx, DWORD PTR _nCol$[ebp]
; File D:\git\src\IBK\IBK_DRFN\ProjSrc\SrcChartEx\ChartAddIn\ChartAnalysisToolAddIn\AnalysisTool\CoordinateCalculator.cpp

; 467  : 	ILPCSTR szGraphName = calData.m_pIChartManager->FindNextIndicator( NULL, nR, nC, nV, nG, szRQ);

  000e4	c6 45 fc 01	 mov	 BYTE PTR __$EHRec$[ebp+8], 1
; File D:\git\src\IBK\IBK_DRFN\ProjSrc\SrcChartEx\ChartAddIn\ChartAnalysisToolAddIn\Include_AddIn_133101\I133101\_IString.h

; 57   : 		if( !m_szData) return TRUE;

  000e8	85 ff		 test	 edi, edi
  000ea	74 1b		 je	 SHORT $LN5@GetData_X
; File D:\git\src\IBK\IBK_DRFN\ProjSrc\SrcChartEx\ChartAddIn\ChartAnalysisToolAddIn\AnalysisTool\CoordinateCalculator.cpp

; 468  : 	if( szRQ.IsEmpty() || szGraphName.IsEmpty() || !( nR == nRow && nC == nCol))

  000ec	80 3f 00	 cmp	 BYTE PTR [edi], 0
  000ef	74 16		 je	 SHORT $LN5@GetData_X
; File D:\git\src\IBK\IBK_DRFN\ProjSrc\SrcChartEx\ChartAddIn\ChartAnalysisToolAddIn\Include_AddIn_133101\I133101\_IString.h

; 57   : 		if( !m_szData) return TRUE;

  000f1	85 c0		 test	 eax, eax
  000f3	74 12		 je	 SHORT $LN5@GetData_X
; File D:\git\src\IBK\IBK_DRFN\ProjSrc\SrcChartEx\ChartAddIn\ChartAnalysisToolAddIn\AnalysisTool\CoordinateCalculator.cpp

; 468  : 	if( szRQ.IsEmpty() || szGraphName.IsEmpty() || !( nR == nRow && nC == nCol))

  000f5	80 38 00	 cmp	 BYTE PTR [eax], 0
  000f8	74 0d		 je	 SHORT $LN5@GetData_X
  000fa	8b 45 f0	 mov	 eax, DWORD PTR _nRow$[ebp]
  000fd	39 45 ec	 cmp	 DWORD PTR _nR$[ebp], eax
  00100	75 05		 jne	 SHORT $LN5@GetData_X
  00102	39 55 e8	 cmp	 DWORD PTR _nC$[ebp], edx
  00105	74 37		 je	 SHORT $LN30@GetData_X
$LN5@GetData_X:

; 469  : 		szRQ = calData.m_pIChartManager->GetMainRQofBlock( nRow, nCol);

  00107	8b 4b 48	 mov	 ecx, DWORD PTR [ebx+72]
  0010a	52		 push	 edx
  0010b	ff 75 f0	 push	 DWORD PTR _nRow$[ebp]
  0010e	8b 01		 mov	 eax, DWORD PTR [ecx]
  00110	ff 90 30 01 00
	00		 call	 DWORD PTR [eax+304]
  00116	8b f8		 mov	 edi, eax
; File D:\git\src\IBK\IBK_DRFN\ProjSrc\SrcChartEx\ChartAddIn\ChartAnalysisToolAddIn\Include_AddIn_133101\I133101\_IString.h

; 67   : 		if( m_pIStrData) m_pIStrData->Release();

  00118	85 f6		 test	 esi, esi
  0011a	74 06		 je	 SHORT $LN28@GetData_X
  0011c	8b 0e		 mov	 ecx, DWORD PTR [esi]
  0011e	56		 push	 esi
  0011f	ff 51 08	 call	 DWORD PTR [ecx+8]
$LN28@GetData_X:

; 68   : 		m_pIStrData = stringSrc;	// Do not AddRef(). Because It must be Return Value.

  00122	8b f7		 mov	 esi, edi
  00124	89 75 d4	 mov	 DWORD PTR _szRQ$[ebp+4], esi
  00127	85 ff		 test	 edi, edi

; 69   : 		if( m_pIStrData) m_szData = m_pIStrData->GetData();

  00129	74 0b		 je	 SHORT $LN29@GetData_X
  0012b	8b 07		 mov	 eax, DWORD PTR [edi]
  0012d	8b cf		 mov	 ecx, edi
  0012f	ff 50 10	 call	 DWORD PTR [eax+16]
  00132	8b f8		 mov	 edi, eax
  00134	eb 02		 jmp	 SHORT $LN44@GetData_X
$LN29@GetData_X:

; 70   : 		else m_szData = NULL;

  00136	33 ff		 xor	 edi, edi
$LN44@GetData_X:
; File D:\git\src\IBK\IBK_DRFN\ProjSrc\SrcChartEx\ChartAddIn\ChartAnalysisToolAddIn\AnalysisTool\CoordinateCalculator.cpp

; 471  : 	dResult = calData.m_pIChartManager->GetDoubleFromX( nRow, nCol, point.x, &nBlockColumn, nCenter_x, szRQ);

  00138	8b 55 08	 mov	 edx, DWORD PTR _nCol$[ebp]
  0013b	89 7d d0	 mov	 DWORD PTR _szRQ$[ebp], edi
$LN30@GetData_X:
  0013e	8b 4b 48	 mov	 ecx, DWORD PTR [ebx+72]
  00141	57		 push	 edi
  00142	8d 7d dc	 lea	 edi, DWORD PTR _nCenter_x$[ebp]
  00145	57		 push	 edi
  00146	8b 01		 mov	 eax, DWORD PTR [ecx]
  00148	8d 7d d8	 lea	 edi, DWORD PTR _nBlockColumn$[ebp]
  0014b	57		 push	 edi
  0014c	8b 7d 0c	 mov	 edi, DWORD PTR _point$[ebp]
  0014f	8b 80 10 01 00
	00		 mov	 eax, DWORD PTR [eax+272]
  00155	ff 37		 push	 DWORD PTR [edi]
  00157	52		 push	 edx
  00158	ff 75 f0	 push	 DWORD PTR _nRow$[ebp]
  0015b	ff d0		 call	 eax
  0015d	dd 5d c0	 fstp	 QWORD PTR $T2[ebp]
; File D:\git\src\IBK\IBK_DRFN\ProjSrc\SrcChartEx\ChartAddIn\ChartAnalysisToolAddIn\Include_AddIn_133101\I133101\_IString.h

; 45   : 		if( m_pIStrData)

  00160	8b 4d cc	 mov	 ecx, DWORD PTR _szGraphName$[ebp+4]
  00163	c6 45 fc 02	 mov	 BYTE PTR __$EHRec$[ebp+8], 2
  00167	85 c9		 test	 ecx, ecx
  00169	74 06		 je	 SHORT $LN33@GetData_X

; 46   : 		{
; 47   : 			m_pIStrData->Release();

  0016b	8b 01		 mov	 eax, DWORD PTR [ecx]
  0016d	51		 push	 ecx
  0016e	ff 50 08	 call	 DWORD PTR [eax+8]
$LN33@GetData_X:

; 44   : 	{

  00171	c7 45 fc 03 00
	00 00		 mov	 DWORD PTR __$EHRec$[ebp+8], 3

; 45   : 		if( m_pIStrData)

  00178	85 f6		 test	 esi, esi
  0017a	74 06		 je	 SHORT $LN37@GetData_X

; 46   : 		{
; 47   : 			m_pIStrData->Release();

  0017c	8b 06		 mov	 eax, DWORD PTR [esi]
  0017e	56		 push	 esi
  0017f	ff 50 08	 call	 DWORD PTR [eax+8]
$LN37@GetData_X:
; File D:\git\src\IBK\IBK_DRFN\ProjSrc\SrcChartEx\ChartAddIn\ChartAnalysisToolAddIn\AnalysisTool\CoordinateCalculator.cpp

; 474  : 	return dResult;

  00182	dd 45 c0	 fld	 QWORD PTR $T2[ebp]

; 475  : }

  00185	8b 4d f4	 mov	 ecx, DWORD PTR __$EHRec$[ebp]
  00188	64 89 0d 00 00
	00 00		 mov	 DWORD PTR fs:0, ecx
  0018f	59		 pop	 ecx
  00190	5f		 pop	 edi
  00191	5e		 pop	 esi
  00192	5b		 pop	 ebx
  00193	8b e5		 mov	 esp, ebp
  00195	5d		 pop	 ebp
  00196	c2 0c 00	 ret	 12			; 0000000cH
$LN11@GetData_X:

; 455  : 	double dResult = 0.0;
; 456  : 	if( !calData.IsValidAddInInterface()) return dResult;

  00199	d9 ee		 fldz

; 475  : }

  0019b	8b 4d f4	 mov	 ecx, DWORD PTR __$EHRec$[ebp]
  0019e	64 89 0d 00 00
	00 00		 mov	 DWORD PTR fs:0, ecx
  001a5	59		 pop	 ecx
  001a6	5f		 pop	 edi
  001a7	5e		 pop	 esi
  001a8	5b		 pop	 ebx
  001a9	8b e5		 mov	 esp, ebp
  001ab	5d		 pop	 ebp
  001ac	c2 0c 00	 ret	 12			; 0000000cH
_TEXT	ENDS
;	COMDAT text$x
text$x	SEGMENT
__unwindfunclet$?GetData_X@CCoordinateCalculator_AutoPrice@@MBENABVCCoordinateCalculatorData@@ABVCPoint@@H@Z$0:
  00000	8d 4d d0	 lea	 ecx, DWORD PTR _szRQ$[ebp]
  00003	e9 00 00 00 00	 jmp	 ??1ILPCSTR133101@@QAE@XZ ; ILPCSTR133101::~ILPCSTR133101
__unwindfunclet$?GetData_X@CCoordinateCalculator_AutoPrice@@MBENABVCCoordinateCalculatorData@@ABVCPoint@@H@Z$1:
  00008	8d 4d c8	 lea	 ecx, DWORD PTR _szGraphName$[ebp]
  0000b	e9 00 00 00 00	 jmp	 ??1ILPCSTR133101@@QAE@XZ ; ILPCSTR133101::~ILPCSTR133101
  00010	cc		 int	 3
  00011	cc		 int	 3
  00012	cc		 int	 3
  00013	cc		 int	 3
  00014	cc		 int	 3
__ehhandler$?GetData_X@CCoordinateCalculator_AutoPrice@@MBENABVCCoordinateCalculatorData@@ABVCPoint@@H@Z:
  00015	90		 npad	 1
  00016	90		 npad	 1
  00017	8b 54 24 08	 mov	 edx, DWORD PTR [esp+8]
  0001b	8d 42 0c	 lea	 eax, DWORD PTR [edx+12]
  0001e	8b 4a bc	 mov	 ecx, DWORD PTR [edx-68]
  00021	33 c8		 xor	 ecx, eax
  00023	e8 00 00 00 00	 call	 @__security_check_cookie@4
  00028	b8 00 00 00 00	 mov	 eax, OFFSET __ehfuncinfo$?GetData_X@CCoordinateCalculator_AutoPrice@@MBENABVCCoordinateCalculatorData@@ABVCPoint@@H@Z
  0002d	e9 00 00 00 00	 jmp	 ___CxxFrameHandler3
text$x	ENDS
?GetData_X@CCoordinateCalculator_AutoPrice@@MBENABVCCoordinateCalculatorData@@ABVCPoint@@H@Z ENDP ; CCoordinateCalculator_AutoPrice::GetData_X
; Function compile flags: /Ogtp
; File D:\git\src\IBK\IBK_DRFN\ProjSrc\SrcChartEx\ChartAddIn\ChartAnalysisToolAddIn\AnalysisTool\CoordinateCalculator.cpp
; File C:\Program Files (x86)\Microsoft Visual Studio\2019\Community\VC\Tools\MSVC\14.29.30133\atlmfc\include\atltypes.h
; File D:\git\src\IBK\IBK_DRFN\ProjSrc\SrcChartEx\ChartAddIn\ChartAnalysisToolAddIn\AnalysisTool\CoordinateCalculator.cpp
; File C:\Program Files (x86)\Microsoft Visual Studio\2019\Community\VC\Tools\MSVC\14.29.30133\atlmfc\include\atltypes.h
; File D:\git\src\IBK\IBK_DRFN\ProjSrc\SrcChartEx\ChartAddIn\ChartAnalysisToolAddIn\AnalysisTool\CoordinateCalculator.cpp
; File D:\git\src\IBK\IBK_DRFN\ProjSrc\SrcChartEx\ChartAddIn\ChartAnalysisToolAddIn\Include_Analysis\CoordinateCalculatorData.h
; File D:\git\src\IBK\IBK_DRFN\ProjSrc\SrcChartEx\ChartAddIn\ChartAnalysisToolAddIn\AnalysisTool\CoordinateCalculator.cpp
;	COMDAT ?RelativeToAbsolute_NoAutoPrice@CCoordinateCalculator@@QBE?AVCPoint@@ABVCCoordinateCalculatorData@@ABVCCoordinate@@@Z
_TEXT	SEGMENT
$T2 = -140						; size = 8
$T3 = -132						; size = 8
$T4 = -124						; size = 8
$T5 = -116						; size = 8
$T6 = -108						; size = 8
_nCenter_x$7 = -100					; size = 4
$T8 = -96						; size = 8
$T9 = -96						; size = 8
_dX$10 = -88						; size = 8
$T11 = -88						; size = 8
$T12 = -80						; size = 8
$T13 = -80						; size = 8
$T14 = -80						; size = 8
___$ReturnUdt$GSCopy$1$ = -72				; size = 4
_dData$ = -68						; size = 8
$T15 = -68						; size = 8
_calData$GSCopy$1$ = -64				; size = 4
$T16 = -60						; size = 8
_point$GSCopy$1$ = -56					; size = 4
_ptResult$1$ = -52					; size = 4
$T17 = -52						; size = 4
$T18 = -48						; size = 16
$T19 = -32						; size = 16
__$ArrayPad$ = -16					; size = 4
__$EHRec$ = -12						; size = 12
___$ReturnUdt$ = 8					; size = 4
_calData$ = 12						; size = 4
_point$ = 16						; size = 4
?RelativeToAbsolute_NoAutoPrice@CCoordinateCalculator@@QBE?AVCPoint@@ABVCCoordinateCalculatorData@@ABVCCoordinate@@@Z PROC ; CCoordinateCalculator::RelativeToAbsolute_NoAutoPrice, COMDAT
; _this$ = ecx

; 407  : {

  00000	55		 push	 ebp
  00001	8b ec		 mov	 ebp, esp
  00003	6a ff		 push	 -1
  00005	68 00 00 00 00	 push	 __ehhandler$?RelativeToAbsolute_NoAutoPrice@CCoordinateCalculator@@QBE?AVCPoint@@ABVCCoordinateCalculatorData@@ABVCCoordinate@@@Z
  0000a	64 a1 00 00 00
	00		 mov	 eax, DWORD PTR fs:0
  00010	50		 push	 eax
  00011	81 ec 80 00 00
	00		 sub	 esp, 128		; 00000080H
  00017	a1 00 00 00 00	 mov	 eax, DWORD PTR ___security_cookie
  0001c	33 c5		 xor	 eax, ebp
  0001e	89 45 f0	 mov	 DWORD PTR __$ArrayPad$[ebp], eax
  00021	53		 push	 ebx
  00022	56		 push	 esi
  00023	57		 push	 edi
  00024	50		 push	 eax
  00025	8d 45 f4	 lea	 eax, DWORD PTR __$EHRec$[ebp]
  00028	64 a3 00 00 00
	00		 mov	 DWORD PTR fs:0, eax
  0002e	8b 7d 0c	 mov	 edi, DWORD PTR _calData$[ebp]
; File C:\Program Files (x86)\Microsoft Visual Studio\2019\Community\VC\Tools\MSVC\14.29.30133\atlmfc\include\atltypes.h

; 401  : 	y = 0;

  00031	33 f6		 xor	 esi, esi
; File D:\git\src\IBK\IBK_DRFN\ProjSrc\SrcChartEx\ChartAddIn\ChartAnalysisToolAddIn\AnalysisTool\CoordinateCalculator.cpp

; 407  : {

  00033	8b 4d 10	 mov	 ecx, DWORD PTR _point$[ebp]
  00036	8b 45 08	 mov	 eax, DWORD PTR ___$ReturnUdt$[ebp]
  00039	89 4d c8	 mov	 DWORD PTR _point$GSCopy$1$[ebp], ecx
; File C:\Program Files (x86)\Microsoft Visual Studio\2019\Community\VC\Tools\MSVC\14.29.30133\atlmfc\include\atltypes.h

; 400  : 	x = 0;

  0003c	33 c9		 xor	 ecx, ecx
; File D:\git\src\IBK\IBK_DRFN\ProjSrc\SrcChartEx\ChartAddIn\ChartAnalysisToolAddIn\AnalysisTool\CoordinateCalculator.cpp

; 407  : {

  0003e	89 45 b8	 mov	 DWORD PTR ___$ReturnUdt$GSCopy$1$[ebp], eax
  00041	89 7d c0	 mov	 DWORD PTR _calData$GSCopy$1$[ebp], edi
; File D:\git\src\IBK\IBK_DRFN\ProjSrc\SrcChartEx\ChartAddIn\ChartAnalysisToolAddIn\Include_Analysis\CoordinateCalculatorData.h

; 128  : 							{	return m_pIChartManager && m_pIChartOCX && m_pIPacketListManager && m_pIDefaultPacketManager;	}

  00044	39 4f 48	 cmp	 DWORD PTR [edi+72], ecx
  00047	0f 84 13 02 00
	00		 je	 $LN9@RelativeTo
  0004d	39 4f 4c	 cmp	 DWORD PTR [edi+76], ecx
  00050	0f 84 0a 02 00
	00		 je	 $LN9@RelativeTo
  00056	39 4f 50	 cmp	 DWORD PTR [edi+80], ecx
  00059	0f 84 01 02 00
	00		 je	 $LN9@RelativeTo
  0005f	39 4f 54	 cmp	 DWORD PTR [edi+84], ecx
  00062	0f 84 f8 01 00
	00		 je	 $LN9@RelativeTo
; File D:\git\src\IBK\IBK_DRFN\ProjSrc\SrcChartEx\ChartAddIn\ChartAnalysisToolAddIn\AnalysisTool\CoordinateCalculator.cpp

; 411  : 	IPacket *pIPacket = calData.GetPacket_X();

  00068	8b cf		 mov	 ecx, edi
  0006a	e8 00 00 00 00	 call	 ?GetPacket_X@CCoordinateCalculatorData@@QBEPAUIPacket133101@@XZ ; CCoordinateCalculatorData::GetPacket_X

; 412  : 	if( calData.m_pIPacketListManager->IsBasePacketString())

  0006f	8b 4f 50	 mov	 ecx, DWORD PTR [edi+80]
  00072	8b d8		 mov	 ebx, eax
  00074	8b 01		 mov	 eax, DWORD PTR [ecx]
  00076	ff 50 28	 call	 DWORD PTR [eax+40]
  00079	85 c0		 test	 eax, eax
  0007b	0f 84 ca 00 00
	00		 je	 $LN3@RelativeTo

; 392  : 	return (pPacket != NULL && pPacket->GetDataCount() > 0);

  00081	85 db		 test	 ebx, ebx
  00083	0f 84 b3 01 00
	00		 je	 $LN30@RelativeTo
  00089	8b 03		 mov	 eax, DWORD PTR [ebx]
  0008b	8b cb		 mov	 ecx, ebx
  0008d	ff 50 2c	 call	 DWORD PTR [eax+44]
  00090	85 c0		 test	 eax, eax
  00092	0f 8e a4 01 00
	00		 jle	 $LN30@RelativeTo

; 413  : 	{
; 414  : 		if(!IsCalculator( pIPacket)) ptResult = point.GetPixel();
; 415  : 		else
; 416  : 		{
; 417  : 			int nIndex = GetDisplayDataCurrentIndex( pIPacket, point.GetX());

  00098	68 00 00 00 00	 push	 OFFSET ??_C@_00CNPNBAHC@@
  0009d	8d 4d cc	 lea	 ecx, DWORD PTR $T17[ebp]
  000a0	ff 15 00 00 00
	00		 call	 DWORD PTR __imp_??0?$CStringT@DV?$StrTraitMFC_DLL@DV?$ChTraitsCRT@D@ATL@@@@@ATL@@QAE@PBD@Z
  000a6	8b 4d c8	 mov	 ecx, DWORD PTR _point$GSCopy$1$[ebp]
  000a9	89 75 fc	 mov	 DWORD PTR __$EHRec$[ebp+8], esi
  000ac	e8 00 00 00 00	 call	 ?GetX@CCoordinate@@QBENXZ ; CCoordinate::GetX
  000b1	dd 5d bc	 fstp	 QWORD PTR _dData$[ebp]

; 402  : 	return pPacket->GetIndexFromData(dData, strType);

  000b4	ff 75 cc	 push	 DWORD PTR $T17[ebp]
  000b7	8b 03		 mov	 eax, DWORD PTR [ebx]
  000b9	8b cb		 mov	 ecx, ebx
  000bb	f2 0f 10 45 bc	 movsd	 xmm0, QWORD PTR _dData$[ebp]
  000c0	83 ec 08	 sub	 esp, 8
  000c3	c7 45 fc 01 00
	00 00		 mov	 DWORD PTR __$EHRec$[ebp+8], 1
  000ca	f2 0f 11 04 24	 movsd	 QWORD PTR [esp], xmm0
  000cf	ff 50 30	 call	 DWORD PTR [eax+48]
  000d2	8d 4d cc	 lea	 ecx, DWORD PTR $T17[ebp]
  000d5	c7 45 fc ff ff
	ff ff		 mov	 DWORD PTR __$EHRec$[ebp+8], -1
  000dc	8b f0		 mov	 esi, eax
  000de	ff 15 00 00 00
	00		 call	 DWORD PTR __imp_??1?$CStringT@DV?$StrTraitMFC_DLL@DV?$ChTraitsCRT@D@ATL@@@@@ATL@@QAE@XZ

; 418  : 			ptResult = CDataConversion::RelativeToAbsolute(calData.GetRegion(), 

  000e4	8b 4d c8	 mov	 ecx, DWORD PTR _point$GSCopy$1$[ebp]
  000e7	e8 00 00 00 00	 call	 ?GetY@CCoordinate@@QBENXZ ; CCoordinate::GetY
  000ec	8d 45 bc	 lea	 eax, DWORD PTR $T15[ebp]
  000ef	8b cf		 mov	 ecx, edi
  000f1	dd 5d bc	 fstp	 QWORD PTR $T15[ebp]
  000f4	50		 push	 eax
  000f5	e8 00 00 00 00	 call	 ?ApplyLog@CCoordinateCalculatorData@@QBENABN@Z ; CCoordinateCalculatorData::ApplyLog
  000fa	dd 5d c4	 fstp	 QWORD PTR $T16[ebp]
  000fd	8b cf		 mov	 ecx, edi
  000ff	e8 00 00 00 00	 call	 ?GetDisplayDataMax_ScaleType@CCoordinateCalculatorData@@QBENXZ ; CCoordinateCalculatorData::GetDisplayDataMax_ScaleType
  00104	dd 5d a0	 fstp	 QWORD PTR $T9[ebp]
  00107	8b cf		 mov	 ecx, edi
  00109	e8 00 00 00 00	 call	 ?GetDisplayDataMin_ScaleType@CCoordinateCalculatorData@@QBENXZ ; CCoordinateCalculatorData::GetDisplayDataMin_ScaleType
  0010e	8d 45 c4	 lea	 eax, DWORD PTR $T16[ebp]
  00111	8b cf		 mov	 ecx, edi
  00113	50		 push	 eax
  00114	56		 push	 esi
  00115	8d 45 a0	 lea	 eax, DWORD PTR $T9[ebp]
  00118	50		 push	 eax
  00119	8d 45 a8	 lea	 eax, DWORD PTR $T11[ebp]
  0011c	50		 push	 eax
  0011d	dd 5d a8	 fstp	 QWORD PTR $T11[ebp]
  00120	e8 00 00 00 00	 call	 ?GetDisplayDataEnd@CCoordinateCalculatorData@@QBEHXZ ; CCoordinateCalculatorData::GetDisplayDataEnd
  00125	50		 push	 eax
  00126	8b cf		 mov	 ecx, edi
  00128	e8 00 00 00 00	 call	 ?GetDisplayDataStart@CCoordinateCalculatorData@@QBEHXZ ; CCoordinateCalculatorData::GetDisplayDataStart
  0012d	50		 push	 eax
  0012e	8d 45 e0	 lea	 eax, DWORD PTR $T19[ebp]
  00131	8b cf		 mov	 ecx, edi
  00133	50		 push	 eax
  00134	e8 00 00 00 00	 call	 ?GetRegion@CCoordinateCalculatorData@@QBE?AVCRect@@XZ ; CCoordinateCalculatorData::GetRegion
  00139	50		 push	 eax
  0013a	8d 45 b0	 lea	 eax, DWORD PTR $T14[ebp]
  0013d	50		 push	 eax
  0013e	e8 00 00 00 00	 call	 ?RelativeToAbsolute@CDataConversion@@SA?AVCPoint@@ABVCRect@@HHABN1H1@Z ; CDataConversion::RelativeToAbsolute
  00143	83 c4 20	 add	 esp, 32			; 00000020H

; 419  : 				calData.GetDisplayDataStart(), calData.GetDisplayDataEnd(), 
; 420  : 				calData.GetDisplayDataMin_ScaleType(), calData.GetDisplayDataMax_ScaleType(), 
; 421  : 				nIndex,	calData.ApplyLog(point.GetY()));
; 422  : 		}
; 423  : 	}

  00146	e9 fd 00 00 00	 jmp	 $LN38@RelativeTo
$LN3@RelativeTo:

; 392  : 	return (pPacket != NULL && pPacket->GetDataCount() > 0);

  0014b	85 db		 test	 ebx, ebx
  0014d	0f 84 e9 00 00
	00		 je	 $LN30@RelativeTo
  00153	8b 03		 mov	 eax, DWORD PTR [ebx]
  00155	8b cb		 mov	 ecx, ebx
  00157	ff 50 2c	 call	 DWORD PTR [eax+44]
  0015a	85 c0		 test	 eax, eax
  0015c	0f 8e da 00 00
	00		 jle	 $LN30@RelativeTo

; 424  : 	else
; 425  : 	{
; 426  : 		// XScale : 관련 Interface로 사용 - vntsorl(20070410)
; 427  : 		if(!IsCalculator( pIPacket)) ptResult = point.GetPixel();
; 428  : 		else
; 429  : 		{
; 430  : 			int nCenter_x;
; 431  : 			double dX = 0.0;
; 432  : 			dX = point.GetX();

  00162	8b 4d c8	 mov	 ecx, DWORD PTR _point$GSCopy$1$[ebp]
  00165	e8 00 00 00 00	 call	 ?GetX@CCoordinate@@QBENXZ ; CCoordinate::GetX

; 433  : 			int nXPos = calData.m_pIChartManager->GetXFromDouble( calData.GetBlockIndex().GetRow(), calData.GetBlockIndex().GetColumn(), dX, nCenter_x);

  0016a	8b 47 48	 mov	 eax, DWORD PTR [edi+72]
  0016d	8b 4d c0	 mov	 ecx, DWORD PTR _calData$GSCopy$1$[ebp]
  00170	dd 5d a8	 fstp	 QWORD PTR _dX$10[ebp]
  00173	8b 38		 mov	 edi, DWORD PTR [eax]
  00175	8d 45 b0	 lea	 eax, DWORD PTR $T12[ebp]
  00178	50		 push	 eax
  00179	e8 00 00 00 00	 call	 ?GetBlockIndex@CCoordinateCalculatorData@@QBE?AVCBlockIndex@@XZ ; CCoordinateCalculatorData::GetBlockIndex
  0017e	8b 4d c0	 mov	 ecx, DWORD PTR _calData$GSCopy$1$[ebp]
  00181	8b 70 04	 mov	 esi, DWORD PTR [eax+4]
  00184	8d 45 a0	 lea	 eax, DWORD PTR $T8[ebp]
  00187	50		 push	 eax
  00188	e8 00 00 00 00	 call	 ?GetBlockIndex@CCoordinateCalculatorData@@QBE?AVCBlockIndex@@XZ ; CCoordinateCalculatorData::GetBlockIndex
  0018d	f2 0f 10 45 a8	 movsd	 xmm0, QWORD PTR _dX$10[ebp]
  00192	8d 4d 9c	 lea	 ecx, DWORD PTR _nCenter_x$7[ebp]
  00195	51		 push	 ecx
  00196	83 ec 08	 sub	 esp, 8
  00199	f2 0f 11 04 24	 movsd	 QWORD PTR [esp], xmm0
  0019e	56		 push	 esi
  0019f	ff 30		 push	 DWORD PTR [eax]
  001a1	8b 45 c0	 mov	 eax, DWORD PTR _calData$GSCopy$1$[ebp]
  001a4	8b 48 48	 mov	 ecx, DWORD PTR [eax+72]
  001a7	ff 97 14 01 00
	00		 call	 DWORD PTR [edi+276]

; 434  : 			int nIndex = calData.m_pIChartManager->FindViewDataIndex_Pt("DEFAULT", nXPos);

  001ad	8b 7d c0	 mov	 edi, DWORD PTR _calData$GSCopy$1$[ebp]
  001b0	8b d0		 mov	 edx, eax
  001b2	6a 00		 push	 0
  001b4	6a 00		 push	 0
  001b6	52		 push	 edx
  001b7	8b 4f 48	 mov	 ecx, DWORD PTR [edi+72]
  001ba	68 00 00 00 00	 push	 OFFSET ??_C@_07MGCPDNLD@DEFAULT@
  001bf	89 55 cc	 mov	 DWORD PTR _ptResult$1$[ebp], edx
  001c2	8b 01		 mov	 eax, DWORD PTR [ecx]
  001c4	ff 90 04 01 00
	00		 call	 DWORD PTR [eax+260]

; 435  : 			ptResult = CDataConversion::RelativeToAbsolute(calData.GetRegion(), 

  001ca	8b 4d c8	 mov	 ecx, DWORD PTR _point$GSCopy$1$[ebp]
  001cd	8b f0		 mov	 esi, eax
  001cf	e8 00 00 00 00	 call	 ?GetY@CCoordinate@@QBENXZ ; CCoordinate::GetY
  001d4	8d 45 94	 lea	 eax, DWORD PTR $T6[ebp]
  001d7	8b cf		 mov	 ecx, edi
  001d9	dd 5d 94	 fstp	 QWORD PTR $T6[ebp]
  001dc	50		 push	 eax
  001dd	e8 00 00 00 00	 call	 ?ApplyLog@CCoordinateCalculatorData@@QBENABN@Z ; CCoordinateCalculatorData::ApplyLog
  001e2	dd 5d 8c	 fstp	 QWORD PTR $T5[ebp]
  001e5	8b cf		 mov	 ecx, edi
  001e7	e8 00 00 00 00	 call	 ?GetDisplayDataMax_ScaleType@CCoordinateCalculatorData@@QBENXZ ; CCoordinateCalculatorData::GetDisplayDataMax_ScaleType
  001ec	dd 5d 84	 fstp	 QWORD PTR $T4[ebp]
  001ef	8b cf		 mov	 ecx, edi
  001f1	e8 00 00 00 00	 call	 ?GetDisplayDataMin_ScaleType@CCoordinateCalculatorData@@QBENXZ ; CCoordinateCalculatorData::GetDisplayDataMin_ScaleType
  001f6	8d 45 8c	 lea	 eax, DWORD PTR $T5[ebp]
  001f9	8b cf		 mov	 ecx, edi
  001fb	50		 push	 eax
  001fc	56		 push	 esi
  001fd	8d 45 84	 lea	 eax, DWORD PTR $T4[ebp]
  00200	50		 push	 eax
  00201	8d 85 7c ff ff
	ff		 lea	 eax, DWORD PTR $T3[ebp]
  00207	50		 push	 eax
  00208	dd 9d 7c ff ff
	ff		 fstp	 QWORD PTR $T3[ebp]
  0020e	e8 00 00 00 00	 call	 ?GetDisplayDataEnd@CCoordinateCalculatorData@@QBEHXZ ; CCoordinateCalculatorData::GetDisplayDataEnd
  00213	50		 push	 eax
  00214	8b cf		 mov	 ecx, edi
  00216	e8 00 00 00 00	 call	 ?GetDisplayDataStart@CCoordinateCalculatorData@@QBEHXZ ; CCoordinateCalculatorData::GetDisplayDataStart
  0021b	50		 push	 eax
  0021c	8d 45 d0	 lea	 eax, DWORD PTR $T18[ebp]
  0021f	8b cf		 mov	 ecx, edi
  00221	50		 push	 eax
  00222	e8 00 00 00 00	 call	 ?GetRegion@CCoordinateCalculatorData@@QBE?AVCRect@@XZ ; CCoordinateCalculatorData::GetRegion
  00227	50		 push	 eax
  00228	8d 85 74 ff ff
	ff		 lea	 eax, DWORD PTR $T2[ebp]
  0022e	50		 push	 eax
  0022f	e8 00 00 00 00	 call	 ?RelativeToAbsolute@CDataConversion@@SA?AVCPoint@@ABVCRect@@HHABN1H1@Z ; CDataConversion::RelativeToAbsolute
  00234	83 c4 20	 add	 esp, 32			; 00000020H
  00237	8b 70 04	 mov	 esi, DWORD PTR [eax+4]
  0023a	eb 18		 jmp	 SHORT $LN35@RelativeTo
$LN30@RelativeTo:

; 436  : 					calData.GetDisplayDataStart(), calData.GetDisplayDataEnd(), 
; 437  : 					calData.GetDisplayDataMin_ScaleType(), calData.GetDisplayDataMax_ScaleType(), 
; 438  : 					nIndex,	calData.ApplyLog(point.GetY()));
; 439  : 			ptResult.x = nXPos;
; 440  : 		}
; 441  : 	}
; 442  : 
; 443  : 	if( pIPacket) pIPacket->Release();

  0023c	8b 4d c8	 mov	 ecx, DWORD PTR _point$GSCopy$1$[ebp]
  0023f	8d 45 b0	 lea	 eax, DWORD PTR $T13[ebp]
  00242	50		 push	 eax
  00243	e8 00 00 00 00	 call	 ?GetPixel@CCoordinate@@QBE?AVCPoint@@XZ ; CCoordinate::GetPixel
$LN38@RelativeTo:
  00248	8b 08		 mov	 ecx, DWORD PTR [eax]
  0024a	8b 70 04	 mov	 esi, DWORD PTR [eax+4]
  0024d	89 4d cc	 mov	 DWORD PTR _ptResult$1$[ebp], ecx
  00250	85 db		 test	 ebx, ebx
  00252	74 09		 je	 SHORT $LN36@RelativeTo
$LN35@RelativeTo:
  00254	8b 0b		 mov	 ecx, DWORD PTR [ebx]
  00256	53		 push	 ebx
  00257	ff 51 08	 call	 DWORD PTR [ecx+8]
  0025a	8b 4d cc	 mov	 ecx, DWORD PTR _ptResult$1$[ebp]
$LN36@RelativeTo:

; 444  : 	return ptResult;

  0025d	8b 45 b8	 mov	 eax, DWORD PTR ___$ReturnUdt$GSCopy$1$[ebp]
$LN9@RelativeTo:
  00260	89 08		 mov	 DWORD PTR [eax], ecx
  00262	89 70 04	 mov	 DWORD PTR [eax+4], esi

; 445  : }

  00265	8b 4d f4	 mov	 ecx, DWORD PTR __$EHRec$[ebp]
  00268	64 89 0d 00 00
	00 00		 mov	 DWORD PTR fs:0, ecx
  0026f	59		 pop	 ecx
  00270	5f		 pop	 edi
  00271	5e		 pop	 esi
  00272	5b		 pop	 ebx
  00273	8b 4d f0	 mov	 ecx, DWORD PTR __$ArrayPad$[ebp]
  00276	33 cd		 xor	 ecx, ebp
  00278	e8 00 00 00 00	 call	 @__security_check_cookie@4
  0027d	8b e5		 mov	 esp, ebp
  0027f	5d		 pop	 ebp
  00280	c2 0c 00	 ret	 12			; 0000000cH
_TEXT	ENDS
;	COMDAT text$x
text$x	SEGMENT
__unwindfunclet$?RelativeToAbsolute_NoAutoPrice@CCoordinateCalculator@@QBE?AVCPoint@@ABVCCoordinateCalculatorData@@ABVCCoordinate@@@Z$0:
  00000	8d 4d cc	 lea	 ecx, DWORD PTR $T17[ebp]
  00003	ff 25 00 00 00
	00		 jmp	 DWORD PTR __imp_??1?$CStringT@DV?$StrTraitMFC_DLL@DV?$ChTraitsCRT@D@ATL@@@@@ATL@@QAE@XZ
__unwindfunclet$?RelativeToAbsolute_NoAutoPrice@CCoordinateCalculator@@QBE?AVCPoint@@ABVCCoordinateCalculatorData@@ABVCCoordinate@@@Z$1:
  00009	8d 4d cc	 lea	 ecx, DWORD PTR $T17[ebp]
  0000c	ff 25 00 00 00
	00		 jmp	 DWORD PTR __imp_??1?$CStringT@DV?$StrTraitMFC_DLL@DV?$ChTraitsCRT@D@ATL@@@@@ATL@@QAE@XZ
  00012	cc		 int	 3
  00013	cc		 int	 3
  00014	cc		 int	 3
  00015	cc		 int	 3
  00016	cc		 int	 3
__ehhandler$?RelativeToAbsolute_NoAutoPrice@CCoordinateCalculator@@QBE?AVCPoint@@ABVCCoordinateCalculatorData@@ABVCCoordinate@@@Z:
  00017	90		 npad	 1
  00018	90		 npad	 1
  00019	8b 54 24 08	 mov	 edx, DWORD PTR [esp+8]
  0001d	8d 42 0c	 lea	 eax, DWORD PTR [edx+12]
  00020	8b 8a 70 ff ff
	ff		 mov	 ecx, DWORD PTR [edx-144]
  00026	33 c8		 xor	 ecx, eax
  00028	e8 00 00 00 00	 call	 @__security_check_cookie@4
  0002d	8b 4a fc	 mov	 ecx, DWORD PTR [edx-4]
  00030	33 c8		 xor	 ecx, eax
  00032	e8 00 00 00 00	 call	 @__security_check_cookie@4
  00037	b8 00 00 00 00	 mov	 eax, OFFSET __ehfuncinfo$?RelativeToAbsolute_NoAutoPrice@CCoordinateCalculator@@QBE?AVCPoint@@ABVCCoordinateCalculatorData@@ABVCCoordinate@@@Z
  0003c	e9 00 00 00 00	 jmp	 ___CxxFrameHandler3
text$x	ENDS
?RelativeToAbsolute_NoAutoPrice@CCoordinateCalculator@@QBE?AVCPoint@@ABVCCoordinateCalculatorData@@ABVCCoordinate@@@Z ENDP ; CCoordinateCalculator::RelativeToAbsolute_NoAutoPrice
; Function compile flags: /Ogtp
; File D:\git\src\IBK\IBK_DRFN\ProjSrc\SrcChartEx\ChartAddIn\ChartAnalysisToolAddIn\AnalysisTool\CoordinateCalculator.cpp
;	COMDAT ?GetDisplayDataCurrentIndex@CCoordinateCalculator@@ABEHPAUIPacket133101@@NV?$CStringT@DV?$StrTraitMFC_DLL@DV?$ChTraitsCRT@D@ATL@@@@@ATL@@@Z
_TEXT	SEGMENT
__$EHRec$ = -12						; size = 12
_pPacket$ = 8						; size = 4
_dData$ = 12						; size = 8
_strType$ = 20						; size = 4
?GetDisplayDataCurrentIndex@CCoordinateCalculator@@ABEHPAUIPacket133101@@NV?$CStringT@DV?$StrTraitMFC_DLL@DV?$ChTraitsCRT@D@ATL@@@@@ATL@@@Z PROC ; CCoordinateCalculator::GetDisplayDataCurrentIndex, COMDAT
; _this$ = ecx

; 398  : {

  00000	55		 push	 ebp
  00001	8b ec		 mov	 ebp, esp
  00003	6a ff		 push	 -1
  00005	68 00 00 00 00	 push	 __ehhandler$?GetDisplayDataCurrentIndex@CCoordinateCalculator@@ABEHPAUIPacket133101@@NV?$CStringT@DV?$StrTraitMFC_DLL@DV?$ChTraitsCRT@D@ATL@@@@@ATL@@@Z
  0000a	64 a1 00 00 00
	00		 mov	 eax, DWORD PTR fs:0
  00010	50		 push	 eax
  00011	56		 push	 esi
  00012	a1 00 00 00 00	 mov	 eax, DWORD PTR ___security_cookie
  00017	33 c5		 xor	 eax, ebp
  00019	50		 push	 eax
  0001a	8d 45 f4	 lea	 eax, DWORD PTR __$EHRec$[ebp]
  0001d	64 a3 00 00 00
	00		 mov	 DWORD PTR fs:0, eax

; 399  : 	if(pPacket == NULL)

  00023	8b 4d 08	 mov	 ecx, DWORD PTR _pPacket$[ebp]
  00026	c7 45 fc 00 00
	00 00		 mov	 DWORD PTR __$EHRec$[ebp+8], 0
  0002d	85 c9		 test	 ecx, ecx
  0002f	75 05		 jne	 SHORT $LN2@GetDisplay
  00031	83 ce ff	 or	 esi, -1
  00034	eb 17		 jmp	 SHORT $LN5@GetDisplay
$LN2@GetDisplay:

; 400  : 		return -1;
; 401  : 	
; 402  : 	return pPacket->GetIndexFromData(dData, strType);

  00036	ff 75 14	 push	 DWORD PTR _strType$[ebp]
  00039	8b 01		 mov	 eax, DWORD PTR [ecx]
  0003b	f2 0f 10 45 0c	 movsd	 xmm0, QWORD PTR _dData$[ebp]
  00040	83 ec 08	 sub	 esp, 8
  00043	f2 0f 11 04 24	 movsd	 QWORD PTR [esp], xmm0
  00048	ff 50 30	 call	 DWORD PTR [eax+48]
  0004b	8b f0		 mov	 esi, eax
$LN5@GetDisplay:
  0004d	8d 4d 14	 lea	 ecx, DWORD PTR _strType$[ebp]
  00050	ff 15 00 00 00
	00		 call	 DWORD PTR __imp_??1?$CStringT@DV?$StrTraitMFC_DLL@DV?$ChTraitsCRT@D@ATL@@@@@ATL@@QAE@XZ
  00056	8b c6		 mov	 eax, esi

; 403  : }

  00058	8b 4d f4	 mov	 ecx, DWORD PTR __$EHRec$[ebp]
  0005b	64 89 0d 00 00
	00 00		 mov	 DWORD PTR fs:0, ecx
  00062	59		 pop	 ecx
  00063	5e		 pop	 esi
  00064	8b e5		 mov	 esp, ebp
  00066	5d		 pop	 ebp
  00067	c2 10 00	 ret	 16			; 00000010H
_TEXT	ENDS
;	COMDAT text$x
text$x	SEGMENT
__unwindfunclet$?GetDisplayDataCurrentIndex@CCoordinateCalculator@@ABEHPAUIPacket133101@@NV?$CStringT@DV?$StrTraitMFC_DLL@DV?$ChTraitsCRT@D@ATL@@@@@ATL@@@Z$0:
  00000	8d 4d 14	 lea	 ecx, DWORD PTR _strType$[ebp]
  00003	ff 25 00 00 00
	00		 jmp	 DWORD PTR __imp_??1?$CStringT@DV?$StrTraitMFC_DLL@DV?$ChTraitsCRT@D@ATL@@@@@ATL@@QAE@XZ
  00009	cc		 int	 3
  0000a	cc		 int	 3
  0000b	cc		 int	 3
  0000c	cc		 int	 3
  0000d	cc		 int	 3
__ehhandler$?GetDisplayDataCurrentIndex@CCoordinateCalculator@@ABEHPAUIPacket133101@@NV?$CStringT@DV?$StrTraitMFC_DLL@DV?$ChTraitsCRT@D@ATL@@@@@ATL@@@Z:
  0000e	90		 npad	 1
  0000f	90		 npad	 1
  00010	8b 54 24 08	 mov	 edx, DWORD PTR [esp+8]
  00014	8d 42 0c	 lea	 eax, DWORD PTR [edx+12]
  00017	8b 4a f8	 mov	 ecx, DWORD PTR [edx-8]
  0001a	33 c8		 xor	 ecx, eax
  0001c	e8 00 00 00 00	 call	 @__security_check_cookie@4
  00021	b8 00 00 00 00	 mov	 eax, OFFSET __ehfuncinfo$?GetDisplayDataCurrentIndex@CCoordinateCalculator@@ABEHPAUIPacket133101@@NV?$CStringT@DV?$StrTraitMFC_DLL@DV?$ChTraitsCRT@D@ATL@@@@@ATL@@@Z
  00026	e9 00 00 00 00	 jmp	 ___CxxFrameHandler3
text$x	ENDS
?GetDisplayDataCurrentIndex@CCoordinateCalculator@@ABEHPAUIPacket133101@@NV?$CStringT@DV?$StrTraitMFC_DLL@DV?$ChTraitsCRT@D@ATL@@@@@ATL@@@Z ENDP ; CCoordinateCalculator::GetDisplayDataCurrentIndex
; Function compile flags: /Ogtp
; File D:\git\src\IBK\IBK_DRFN\ProjSrc\SrcChartEx\ChartAddIn\ChartAnalysisToolAddIn\AnalysisTool\CoordinateCalculator.cpp
;	COMDAT ?IsCalculator@CCoordinateCalculator@@ABE_NPAUIPacket133101@@@Z
_TEXT	SEGMENT
_pPacket$ = 8						; size = 4
?IsCalculator@CCoordinateCalculator@@ABE_NPAUIPacket133101@@@Z PROC ; CCoordinateCalculator::IsCalculator, COMDAT
; _this$ = ecx

; 391  : {

  00000	55		 push	 ebp
  00001	8b ec		 mov	 ebp, esp

; 392  : 	return (pPacket != NULL && pPacket->GetDataCount() > 0);

  00003	8b 4d 08	 mov	 ecx, DWORD PTR _pPacket$[ebp]
  00006	85 c9		 test	 ecx, ecx
  00008	74 0f		 je	 SHORT $LN3@IsCalculat
  0000a	8b 01		 mov	 eax, DWORD PTR [ecx]
  0000c	ff 50 2c	 call	 DWORD PTR [eax+44]
  0000f	85 c0		 test	 eax, eax
  00011	7e 06		 jle	 SHORT $LN3@IsCalculat
  00013	b0 01		 mov	 al, 1

; 393  : }

  00015	5d		 pop	 ebp
  00016	c2 04 00	 ret	 4
$LN3@IsCalculat:

; 392  : 	return (pPacket != NULL && pPacket->GetDataCount() > 0);

  00019	32 c0		 xor	 al, al

; 393  : }

  0001b	5d		 pop	 ebp
  0001c	c2 04 00	 ret	 4
?IsCalculator@CCoordinateCalculator@@ABE_NPAUIPacket133101@@@Z ENDP ; CCoordinateCalculator::IsCalculator
_TEXT	ENDS
; Function compile flags: /Ogtp
; File D:\git\src\IBK\IBK_DRFN\ProjSrc\SrcChartEx\ChartAddIn\ChartAnalysisToolAddIn\AnalysisTool\CoordinateCalculator.cpp
;	COMDAT ?GetDrawingPoint_X@CCoordinateCalculator@@QBEHABVCRegion@@H@Z
_TEXT	SEGMENT
$T1 = -36						; size = 8
$T2 = -28						; size = 8
$T3 = -20						; size = 16
__$ArrayPad$ = -4					; size = 4
_region$ = 8						; size = 4
_nCurrentIndex$ = 12					; size = 4
?GetDrawingPoint_X@CCoordinateCalculator@@QBEHABVCRegion@@H@Z PROC ; CCoordinateCalculator::GetDrawingPoint_X, COMDAT
; _this$ = ecx

; 379  : {

  00000	55		 push	 ebp
  00001	8b ec		 mov	 ebp, esp
  00003	83 ec 24	 sub	 esp, 36			; 00000024H
  00006	a1 00 00 00 00	 mov	 eax, DWORD PTR ___security_cookie
  0000b	33 c5		 xor	 eax, ebp
  0000d	89 45 fc	 mov	 DWORD PTR __$ArrayPad$[ebp], eax
  00010	56		 push	 esi
  00011	8b 75 08	 mov	 esi, DWORD PTR _region$[ebp]

; 380  : 	// XScale : 관련 Interface로 사용 - vntsorl(20070327)
; 381  : 	return CDataConversion::RelativeToAbsolute_X(region.GetRect(), 

  00014	8d 45 e4	 lea	 eax, DWORD PTR $T2[ebp]
  00017	6a 01		 push	 1
  00019	ff 75 0c	 push	 DWORD PTR _nCurrentIndex$[ebp]
  0001c	8b ce		 mov	 ecx, esi
  0001e	50		 push	 eax
  0001f	e8 00 00 00 00	 call	 ?GetDisplayAttributes@CRegion@@QBE?AVCDisplayAttributes@@XZ ; CRegion::GetDisplayAttributes
  00024	8b c8		 mov	 ecx, eax
  00026	e8 00 00 00 00	 call	 ?GetDataEndInBlock@CDisplayAttributes@@QBEHXZ ; CDisplayAttributes::GetDataEndInBlock
  0002b	50		 push	 eax
  0002c	8d 45 dc	 lea	 eax, DWORD PTR $T1[ebp]
  0002f	8b ce		 mov	 ecx, esi
  00031	50		 push	 eax
  00032	e8 00 00 00 00	 call	 ?GetDisplayAttributes@CRegion@@QBE?AVCDisplayAttributes@@XZ ; CRegion::GetDisplayAttributes
  00037	8b c8		 mov	 ecx, eax
  00039	e8 00 00 00 00	 call	 ?GetDataStartInBlock@CDisplayAttributes@@QBEHXZ ; CDisplayAttributes::GetDataStartInBlock
  0003e	50		 push	 eax
  0003f	8d 45 ec	 lea	 eax, DWORD PTR $T3[ebp]
  00042	8b ce		 mov	 ecx, esi
  00044	50		 push	 eax
  00045	e8 00 00 00 00	 call	 ?GetRect@CRegion@@QBE?AVCRect@@XZ ; CRegion::GetRect
  0004a	50		 push	 eax
  0004b	e8 00 00 00 00	 call	 ?RelativeToAbsolute_X@CDataConversion@@SAHABVCRect@@HHH_N@Z ; CDataConversion::RelativeToAbsolute_X

; 382  : 			region.GetDisplayAttributes().GetDataStartInBlock(), 
; 383  : 			region.GetDisplayAttributes().GetDataEndInBlock(), nCurrentIndex);
; 384  : //	CCoordinateCalculatorData calData;
; 385  : //	CPoints points = GetPoints(point, calData);
; 386  : //	return ->GetXPosition(nCurrentIndex, 0);
; 387  : }

  00050	8b 4d fc	 mov	 ecx, DWORD PTR __$ArrayPad$[ebp]
  00053	83 c4 14	 add	 esp, 20			; 00000014H
  00056	33 cd		 xor	 ecx, ebp
  00058	5e		 pop	 esi
  00059	e8 00 00 00 00	 call	 @__security_check_cookie@4
  0005e	8b e5		 mov	 esp, ebp
  00060	5d		 pop	 ebp
  00061	c2 08 00	 ret	 8
?GetDrawingPoint_X@CCoordinateCalculator@@QBEHABVCRegion@@H@Z ENDP ; CCoordinateCalculator::GetDrawingPoint_X
_TEXT	ENDS
; Function compile flags: /Ogtp
; File D:\git\src\IBK\IBK_DRFN\ProjSrc\SrcChartEx\ChartAddIn\ChartAnalysisToolAddIn\AnalysisTool\CoordinateCalculator.cpp
;	COMDAT ?GetCurrentDataIndex@CCoordinateCalculator@@QBEHABVCRegion@@ABVCPoint@@@Z
_TEXT	SEGMENT
$T1 = -36						; size = 8
$T2 = -28						; size = 8
$T3 = -20						; size = 16
__$ArrayPad$ = -4					; size = 4
_region$ = 8						; size = 4
_point$ = 12						; size = 4
?GetCurrentDataIndex@CCoordinateCalculator@@QBEHABVCRegion@@ABVCPoint@@@Z PROC ; CCoordinateCalculator::GetCurrentDataIndex, COMDAT
; _this$ = ecx

; 367  : {

  00000	55		 push	 ebp
  00001	8b ec		 mov	 ebp, esp
  00003	83 ec 24	 sub	 esp, 36			; 00000024H
  00006	a1 00 00 00 00	 mov	 eax, DWORD PTR ___security_cookie
  0000b	33 c5		 xor	 eax, ebp
  0000d	89 45 fc	 mov	 DWORD PTR __$ArrayPad$[ebp], eax
  00010	56		 push	 esi
  00011	8b 75 0c	 mov	 esi, DWORD PTR _point$[ebp]

; 368  : 	// XScale : 관련 Interface로 사용 - vntsorl(20070327)
; 369  : 	return CDataConversion::GetPacketDataIndex_Date(region.GetRect(), point, 

  00014	8d 45 e4	 lea	 eax, DWORD PTR $T2[ebp]
  00017	57		 push	 edi
  00018	8b 7d 08	 mov	 edi, DWORD PTR _region$[ebp]
  0001b	8b cf		 mov	 ecx, edi
  0001d	50		 push	 eax
  0001e	e8 00 00 00 00	 call	 ?GetDisplayAttributes@CRegion@@QBE?AVCDisplayAttributes@@XZ ; CRegion::GetDisplayAttributes
  00023	8b c8		 mov	 ecx, eax
  00025	e8 00 00 00 00	 call	 ?GetDataEndInBlock@CDisplayAttributes@@QBEHXZ ; CDisplayAttributes::GetDataEndInBlock
  0002a	50		 push	 eax
  0002b	8d 45 dc	 lea	 eax, DWORD PTR $T1[ebp]
  0002e	8b cf		 mov	 ecx, edi
  00030	50		 push	 eax
  00031	e8 00 00 00 00	 call	 ?GetDisplayAttributes@CRegion@@QBE?AVCDisplayAttributes@@XZ ; CRegion::GetDisplayAttributes
  00036	8b c8		 mov	 ecx, eax
  00038	e8 00 00 00 00	 call	 ?GetDataStartInBlock@CDisplayAttributes@@QBEHXZ ; CDisplayAttributes::GetDataStartInBlock
  0003d	50		 push	 eax
  0003e	56		 push	 esi
  0003f	8d 45 ec	 lea	 eax, DWORD PTR $T3[ebp]
  00042	8b cf		 mov	 ecx, edi
  00044	50		 push	 eax
  00045	e8 00 00 00 00	 call	 ?GetRect@CRegion@@QBE?AVCRect@@XZ ; CRegion::GetRect
  0004a	50		 push	 eax
  0004b	e8 00 00 00 00	 call	 ?GetPacketDataIndex_Date@CDataConversion@@SAHABVCRect@@ABVCPoint@@HH@Z ; CDataConversion::GetPacketDataIndex_Date

; 370  : 			region.GetDisplayAttributes().GetDataStartInBlock(), 
; 371  : 			region.GetDisplayAttributes().GetDataEndInBlock());
; 372  : //	CCoordinateCalculatorData calData;
; 373  : //	CPoints points = GetPoints(point, calData);
; 374  : //	return ->FindViewDataIndex_Pt(point.x);
; 375  : }

  00050	8b 4d fc	 mov	 ecx, DWORD PTR __$ArrayPad$[ebp]
  00053	83 c4 10	 add	 esp, 16			; 00000010H
  00056	33 cd		 xor	 ecx, ebp
  00058	5f		 pop	 edi
  00059	5e		 pop	 esi
  0005a	e8 00 00 00 00	 call	 @__security_check_cookie@4
  0005f	8b e5		 mov	 esp, ebp
  00061	5d		 pop	 ebp
  00062	c2 08 00	 ret	 8
?GetCurrentDataIndex@CCoordinateCalculator@@QBEHABVCRegion@@ABVCPoint@@@Z ENDP ; CCoordinateCalculator::GetCurrentDataIndex
_TEXT	ENDS
; Function compile flags: /Ogtp
; File D:\git\src\IBK\IBK_DRFN\ProjSrc\SrcChartEx\ChartAddIn\ChartAnalysisToolAddIn\AnalysisTool\CoordinateCalculator.cpp
; File D:\git\src\IBK\IBK_DRFN\ProjSrc\SrcChartEx\ChartAddIn\ChartAnalysisToolAddIn\Include_Analysis\CoordinateCalculatorData.h
; File D:\git\src\IBK\IBK_DRFN\ProjSrc\SrcChartEx\ChartAddIn\ChartAnalysisToolAddIn\AnalysisTool\CoordinateCalculator.cpp
; File D:\git\src\IBK\IBK_DRFN\ProjSrc\SrcChartEx\ChartAddIn\ChartAnalysisToolAddIn\Include_Analysis\CoordinateCalculatorData.h
; File D:\git\src\IBK\IBK_DRFN\ProjSrc\SrcChartEx\ChartAddIn\ChartAnalysisToolAddIn\AnalysisTool\CoordinateCalculator.cpp
; File D:\git\src\IBK\IBK_DRFN\ProjSrc\SrcChartEx\ChartAddIn\ChartAnalysisToolAddIn\Include_AddIn_133101\I133101\_IString.h
; File D:\git\src\IBK\IBK_DRFN\ProjSrc\SrcChartEx\ChartAddIn\ChartAnalysisToolAddIn\AnalysisTool\CoordinateCalculator.cpp
; File D:\git\src\IBK\IBK_DRFN\ProjSrc\SrcChartEx\ChartAddIn\ChartAnalysisToolAddIn\Include_AddIn_133101\I133101\_IString.h
; File D:\git\src\IBK\IBK_DRFN\ProjSrc\SrcChartEx\ChartAddIn\ChartAnalysisToolAddIn\AnalysisTool\CoordinateCalculator.cpp
;	COMDAT ?GetGap@CCoordinateCalculator@@QBE?AVCCoordinate@@ABVCCoordinateCalculatorData@@ABVCPoint@@1@Z
_TEXT	SEGMENT
$T2 = -248						; size = 32
_AbsolutePt2$3 = -216					; size = 32
_relativePt2$4 = -184					; size = 32
_relativePt1$5 = -184					; size = 32
_relativePt1$6 = -152					; size = 32
_relativePt2$7 = -152					; size = 32
_AbsolutePt1$8 = -120					; size = 32
$T9 = -120						; size = 32
$T10 = -120						; size = 32
$T11 = -120						; size = 32
_cdResult$ = -88					; size = 32
$T12 = -56						; size = 8
$T13 = -56						; size = 8
_szPacketType$ = -48					; size = 8
tv581 = -40						; size = 8
tv575 = -40						; size = 8
$T14 = -40						; size = 8
$T15 = -40						; size = 8
$T16 = -40						; size = 8
$T17 = -32						; size = 8
$T18 = -32						; size = 8
_this$1$ = -28						; size = 4
tv547 = -24						; size = 8
_dData$ = -24						; size = 8
_dData$ = -24						; size = 8
$T19 = -24						; size = 8
$T20 = -24						; size = 8
$T21 = -24						; size = 8
_strPacketType$ = -16					; size = 4
__$EHRec$ = -12						; size = 12
___$ReturnUdt$ = 8					; size = 4
_calData$ = 12						; size = 4
$T22 = 16						; size = 4
_point1$ = 16						; size = 4
$T23 = 20						; size = 4
_point2$ = 20						; size = 4
?GetGap@CCoordinateCalculator@@QBE?AVCCoordinate@@ABVCCoordinateCalculatorData@@ABVCPoint@@1@Z PROC ; CCoordinateCalculator::GetGap, COMDAT
; _this$ = ecx

; 322  : {

  00000	55		 push	 ebp
  00001	8b ec		 mov	 ebp, esp
  00003	6a ff		 push	 -1
  00005	68 00 00 00 00	 push	 __ehhandler$?GetGap@CCoordinateCalculator@@QBE?AVCCoordinate@@ABVCCoordinateCalculatorData@@ABVCPoint@@1@Z
  0000a	64 a1 00 00 00
	00		 mov	 eax, DWORD PTR fs:0
  00010	50		 push	 eax
  00011	81 ec ec 00 00
	00		 sub	 esp, 236		; 000000ecH
  00017	53		 push	 ebx
  00018	56		 push	 esi
  00019	57		 push	 edi
  0001a	a1 00 00 00 00	 mov	 eax, DWORD PTR ___security_cookie
  0001f	33 c5		 xor	 eax, ebp
  00021	50		 push	 eax
  00022	8d 45 f4	 lea	 eax, DWORD PTR __$EHRec$[ebp]
  00025	64 a3 00 00 00
	00		 mov	 DWORD PTR fs:0, eax
  0002b	89 4d e4	 mov	 DWORD PTR _this$1$[ebp], ecx

; 323  : 	CCoordinate cdResult;

  0002e	8d 4d a8	 lea	 ecx, DWORD PTR _cdResult$[ebp]
  00031	e8 00 00 00 00	 call	 ??0CCoordinate@@QAE@XZ	; CCoordinate::CCoordinate
; File D:\git\src\IBK\IBK_DRFN\ProjSrc\SrcChartEx\ChartAddIn\ChartAnalysisToolAddIn\Include_Analysis\CoordinateCalculatorData.h

; 128  : 							{	return m_pIChartManager && m_pIChartOCX && m_pIPacketListManager && m_pIDefaultPacketManager;	}

  00036	8b 75 0c	 mov	 esi, DWORD PTR _calData$[ebp]
; File D:\git\src\IBK\IBK_DRFN\ProjSrc\SrcChartEx\ChartAddIn\ChartAnalysisToolAddIn\AnalysisTool\CoordinateCalculator.cpp

; 323  : 	CCoordinate cdResult;

  00039	c7 45 fc 00 00
	00 00		 mov	 DWORD PTR __$EHRec$[ebp+8], 0
; File D:\git\src\IBK\IBK_DRFN\ProjSrc\SrcChartEx\ChartAddIn\ChartAnalysisToolAddIn\Include_Analysis\CoordinateCalculatorData.h

; 128  : 							{	return m_pIChartManager && m_pIChartOCX && m_pIPacketListManager && m_pIDefaultPacketManager;	}

  00040	83 7e 48 00	 cmp	 DWORD PTR [esi+72], 0
  00044	0f 84 cf 03 00
	00		 je	 $LN30@GetGap
  0004a	83 7e 4c 00	 cmp	 DWORD PTR [esi+76], 0
  0004e	0f 84 c5 03 00
	00		 je	 $LN30@GetGap
  00054	83 7e 50 00	 cmp	 DWORD PTR [esi+80], 0
  00058	0f 84 bb 03 00
	00		 je	 $LN30@GetGap
  0005e	83 7e 54 00	 cmp	 DWORD PTR [esi+84], 0
  00062	0f 84 b1 03 00
	00		 je	 $LN30@GetGap
; File D:\git\src\IBK\IBK_DRFN\ProjSrc\SrcChartEx\ChartAddIn\ChartAnalysisToolAddIn\AnalysisTool\CoordinateCalculator.cpp

; 326  : 	IPacket *pIPacket = calData.GetPacket_X();

  00068	8b ce		 mov	 ecx, esi
  0006a	e8 00 00 00 00	 call	 ?GetPacket_X@CCoordinateCalculatorData@@QBEPAUIPacket133101@@XZ ; CCoordinateCalculatorData::GetPacket_X
  0006f	8b d8		 mov	 ebx, eax

; 327  : 	ILPCSTR szPacketType = pIPacket->GetType();

  00071	6a 01		 push	 1
  00073	8b cb		 mov	 ecx, ebx
  00075	8b 13		 mov	 edx, DWORD PTR [ebx]
  00077	ff 52 1c	 call	 DWORD PTR [edx+28]
; File D:\git\src\IBK\IBK_DRFN\ProjSrc\SrcChartEx\ChartAddIn\ChartAnalysisToolAddIn\Include_AddIn_133101\I133101\_IString.h

; 39   : 		m_pIStrData = p_pIString;	// Do not AddRef(). Because It must be Return Value.

  0007a	8b f8		 mov	 edi, eax
  0007c	89 7d d4	 mov	 DWORD PTR _szPacketType$[ebp+4], edi

; 40   : 		if( m_pIStrData) m_szData = m_pIStrData->GetData();

  0007f	85 ff		 test	 edi, edi
  00081	74 09		 je	 SHORT $LN36@GetGap
  00083	8b 17		 mov	 edx, DWORD PTR [edi]
  00085	8b cf		 mov	 ecx, edi
  00087	ff 52 10	 call	 DWORD PTR [edx+16]
  0008a	eb 02		 jmp	 SHORT $LN100@GetGap
$LN36@GetGap:

; 41   : 		else m_szData = NULL;

  0008c	33 c0		 xor	 eax, eax
$LN100@GetGap:
; File D:\git\src\IBK\IBK_DRFN\ProjSrc\SrcChartEx\ChartAddIn\ChartAnalysisToolAddIn\AnalysisTool\CoordinateCalculator.cpp

; 327  : 	ILPCSTR szPacketType = pIPacket->GetType();

  0008e	89 45 d0	 mov	 DWORD PTR _szPacketType$[ebp], eax

; 328  : 	CString strPacketType( szPacketType);

  00091	50		 push	 eax
  00092	8d 4d f0	 lea	 ecx, DWORD PTR _strPacketType$[ebp]
  00095	c6 45 fc 01	 mov	 BYTE PTR __$EHRec$[ebp+8], 1
  00099	ff 15 00 00 00
	00		 call	 DWORD PTR __imp_??0?$CStringT@DV?$StrTraitMFC_DLL@DV?$ChTraitsCRT@D@ATL@@@@@ATL@@QAE@PBD@Z

; 329  : 	if( calData.m_pIPacketListManager->IsBasePacketString())

  0009f	8b 4e 50	 mov	 ecx, DWORD PTR [esi+80]
  000a2	c6 45 fc 02	 mov	 BYTE PTR __$EHRec$[ebp+8], 2
  000a6	8b 01		 mov	 eax, DWORD PTR [ecx]
  000a8	ff 50 28	 call	 DWORD PTR [eax+40]
  000ab	8b 13		 mov	 edx, DWORD PTR [ebx]
  000ad	8b cb		 mov	 ecx, ebx
  000af	85 c0		 test	 eax, eax
  000b1	0f 84 93 01 00
	00		 je	 $LN3@GetGap

; 392  : 	return (pPacket != NULL && pPacket->GetDataCount() > 0);

  000b7	ff 52 2c	 call	 DWORD PTR [edx+44]
  000ba	85 c0		 test	 eax, eax
  000bc	7f 51		 jg	 SHORT $LN5@GetGap

; 330  : 	{
; 331  : 		// 20081007 JS.Kim	사용자시간대 선택
; 332  : 		if( !IsCalculator( pIPacket)) cdResult = CCoordinate((double)(point2.x - point1.x), (double)(point2.y - point1.y), pIPacket->GetBaseTimeDifference(), strPacketType, 0);

  000be	8b 55 14	 mov	 edx, DWORD PTR _point2$[ebp]
  000c1	8b 4d 10	 mov	 ecx, DWORD PTR _point1$[ebp]
  000c4	6a 00		 push	 0
  000c6	8b 42 04	 mov	 eax, DWORD PTR [edx+4]
  000c9	2b 41 04	 sub	 eax, DWORD PTR [ecx+4]
  000cc	66 0f 6e c0	 movd	 xmm0, eax
  000d0	8b 02		 mov	 eax, DWORD PTR [edx]
  000d2	2b 01		 sub	 eax, DWORD PTR [ecx]
  000d4	8b cb		 mov	 ecx, ebx
  000d6	f3 0f e6 c0	 cvtdq2pd xmm0, xmm0
  000da	f2 0f 11 45 e0	 movsd	 QWORD PTR $T18[ebp], xmm0
  000df	66 0f 6e c0	 movd	 xmm0, eax
  000e3	8d 45 f0	 lea	 eax, DWORD PTR _strPacketType$[ebp]
  000e6	f3 0f e6 c0	 cvtdq2pd xmm0, xmm0
  000ea	50		 push	 eax
  000eb	8b 03		 mov	 eax, DWORD PTR [ebx]
  000ed	f2 0f 11 45 e8	 movsd	 QWORD PTR $T21[ebp], xmm0
  000f2	ff 50 60	 call	 DWORD PTR [eax+96]
  000f5	50		 push	 eax
  000f6	8d 45 e0	 lea	 eax, DWORD PTR $T18[ebp]
  000f9	50		 push	 eax
  000fa	8d 45 e8	 lea	 eax, DWORD PTR $T21[ebp]
  000fd	50		 push	 eax
  000fe	8d 4d 88	 lea	 ecx, DWORD PTR $T11[ebp]
  00101	e8 00 00 00 00	 call	 ??0CCoordinate@@QAE@ABN0HABV?$CStringT@DV?$StrTraitMFC_DLL@DV?$ChTraitsCRT@D@ATL@@@@@ATL@@H@Z ; CCoordinate::CCoordinate
  00106	c6 45 fc 03	 mov	 BYTE PTR __$EHRec$[ebp+8], 3
  0010a	e9 8e 01 00 00	 jmp	 $LN102@GetGap
$LN5@GetGap:

; 333  : 		else
; 334  : 		{
; 335  : 			CCoordinate relativePt1 = AbsoluteToRelative(calData, point1);

  0010f	ff 75 10	 push	 DWORD PTR _point1$[ebp]
  00112	8b 4d e4	 mov	 ecx, DWORD PTR _this$1$[ebp]
  00115	8d 85 48 ff ff
	ff		 lea	 eax, DWORD PTR _relativePt1$5[ebp]
  0011b	56		 push	 esi
  0011c	50		 push	 eax
  0011d	e8 00 00 00 00	 call	 ?AbsoluteToRelative@CCoordinateCalculator@@QBE?AVCCoordinate@@ABVCCoordinateCalculatorData@@ABVCPoint@@@Z ; CCoordinateCalculator::AbsoluteToRelative

; 336  : 			CCoordinate relativePt2 = AbsoluteToRelative(calData, point2);

  00122	ff 75 14	 push	 DWORD PTR _point2$[ebp]
  00125	8b 4d e4	 mov	 ecx, DWORD PTR _this$1$[ebp]
  00128	8d 85 68 ff ff
	ff		 lea	 eax, DWORD PTR _relativePt2$7[ebp]
  0012e	56		 push	 esi
  0012f	50		 push	 eax
  00130	c6 45 fc 04	 mov	 BYTE PTR __$EHRec$[ebp+8], 4
  00134	e8 00 00 00 00	 call	 ?AbsoluteToRelative@CCoordinateCalculator@@QBE?AVCCoordinate@@ABVCCoordinateCalculatorData@@ABVCPoint@@@Z ; CCoordinateCalculator::AbsoluteToRelative

; 337  : 			int nIndex = GetDisplayDataCurrentIndex( pIPacket, relativePt2.GetX())

  00139	68 00 00 00 00	 push	 OFFSET ??_C@_00CNPNBAHC@@
  0013e	8d 4d 10	 lea	 ecx, DWORD PTR $T22[ebp]
  00141	c6 45 fc 05	 mov	 BYTE PTR __$EHRec$[ebp+8], 5
  00145	ff 15 00 00 00
	00		 call	 DWORD PTR __imp_??0?$CStringT@DV?$StrTraitMFC_DLL@DV?$ChTraitsCRT@D@ATL@@@@@ATL@@QAE@PBD@Z
  0014b	8d 8d 68 ff ff
	ff		 lea	 ecx, DWORD PTR _relativePt2$7[ebp]
  00151	c6 45 fc 06	 mov	 BYTE PTR __$EHRec$[ebp+8], 6
  00155	e8 00 00 00 00	 call	 ?GetX@CCoordinate@@QBENXZ ; CCoordinate::GetX
  0015a	dd 5d e8	 fstp	 QWORD PTR _dData$[ebp]

; 402  : 	return pPacket->GetIndexFromData(dData, strType);

  0015d	ff 75 10	 push	 DWORD PTR $T22[ebp]
  00160	8b 03		 mov	 eax, DWORD PTR [ebx]
  00162	8b cb		 mov	 ecx, ebx
  00164	f2 0f 10 45 e8	 movsd	 xmm0, QWORD PTR _dData$[ebp]
  00169	83 ec 08	 sub	 esp, 8
  0016c	c6 45 fc 07	 mov	 BYTE PTR __$EHRec$[ebp+8], 7
  00170	f2 0f 11 04 24	 movsd	 QWORD PTR [esp], xmm0
  00175	ff 50 30	 call	 DWORD PTR [eax+48]
  00178	8d 4d 10	 lea	 ecx, DWORD PTR $T22[ebp]
  0017b	c6 45 fc 05	 mov	 BYTE PTR __$EHRec$[ebp+8], 5
  0017f	8b f8		 mov	 edi, eax
  00181	ff 15 00 00 00
	00		 call	 DWORD PTR __imp_??1?$CStringT@DV?$StrTraitMFC_DLL@DV?$ChTraitsCRT@D@ATL@@@@@ATL@@QAE@XZ

; 337  : 			int nIndex = GetDisplayDataCurrentIndex( pIPacket, relativePt2.GetX())

  00187	68 00 00 00 00	 push	 OFFSET ??_C@_00CNPNBAHC@@
  0018c	8d 4d 14	 lea	 ecx, DWORD PTR $T23[ebp]
  0018f	ff 15 00 00 00
	00		 call	 DWORD PTR __imp_??0?$CStringT@DV?$StrTraitMFC_DLL@DV?$ChTraitsCRT@D@ATL@@@@@ATL@@QAE@PBD@Z
  00195	8d 8d 48 ff ff
	ff		 lea	 ecx, DWORD PTR _relativePt1$5[ebp]
  0019b	c6 45 fc 08	 mov	 BYTE PTR __$EHRec$[ebp+8], 8
  0019f	e8 00 00 00 00	 call	 ?GetX@CCoordinate@@QBENXZ ; CCoordinate::GetX
  001a4	dd 5d e8	 fstp	 QWORD PTR _dData$[ebp]

; 402  : 	return pPacket->GetIndexFromData(dData, strType);

  001a7	ff 75 14	 push	 DWORD PTR $T23[ebp]
  001aa	8b 03		 mov	 eax, DWORD PTR [ebx]
  001ac	8b cb		 mov	 ecx, ebx
  001ae	f2 0f 10 45 e8	 movsd	 xmm0, QWORD PTR _dData$[ebp]
  001b3	83 ec 08	 sub	 esp, 8
  001b6	c6 45 fc 09	 mov	 BYTE PTR __$EHRec$[ebp+8], 9
  001ba	f2 0f 11 04 24	 movsd	 QWORD PTR [esp], xmm0
  001bf	ff 50 30	 call	 DWORD PTR [eax+48]
  001c2	8d 4d 14	 lea	 ecx, DWORD PTR $T23[ebp]
  001c5	c6 45 fc 05	 mov	 BYTE PTR __$EHRec$[ebp+8], 5
  001c9	8b f0		 mov	 esi, eax
  001cb	ff 15 00 00 00
	00		 call	 DWORD PTR __imp_??1?$CStringT@DV?$StrTraitMFC_DLL@DV?$ChTraitsCRT@D@ATL@@@@@ATL@@QAE@XZ

; 338  : 				- GetDisplayDataCurrentIndex(pIPacket, relativePt1.GetX());
; 339  : 			// 분차트 근접시간 적용 - ojtaso (20080811)
; 340  : 			cdResult = CCoordinate( ( double)nIndex, (relativePt2.GetY() - relativePt1.GetY()), pIPacket->GetBaseTimeDifference(), strPacketType, 0);

  001d1	8d 8d 68 ff ff
	ff		 lea	 ecx, DWORD PTR _relativePt2$7[ebp]
  001d7	2b fe		 sub	 edi, esi
  001d9	e8 00 00 00 00	 call	 ?GetY@CCoordinate@@QBENXZ ; CCoordinate::GetY
  001de	dd 5d e8	 fstp	 QWORD PTR tv547[ebp]
  001e1	8d 8d 48 ff ff
	ff		 lea	 ecx, DWORD PTR _relativePt1$5[ebp]
  001e7	e8 00 00 00 00	 call	 ?GetY@CCoordinate@@QBENXZ ; CCoordinate::GetY
  001ec	dc 6d e8	 fsubr	 QWORD PTR tv547[ebp]
  001ef	8d 45 f0	 lea	 eax, DWORD PTR _strPacketType$[ebp]
  001f2	8b cb		 mov	 ecx, ebx
  001f4	6a 00		 push	 0
  001f6	50		 push	 eax
  001f7	66 0f 6e c7	 movd	 xmm0, edi
  001fb	8b 03		 mov	 eax, DWORD PTR [ebx]
  001fd	f3 0f e6 c0	 cvtdq2pd xmm0, xmm0
  00201	dd 5d e0	 fstp	 QWORD PTR $T17[ebp]
  00204	f2 0f 11 45 d8	 movsd	 QWORD PTR $T16[ebp], xmm0
  00209	ff 50 60	 call	 DWORD PTR [eax+96]
  0020c	50		 push	 eax
  0020d	8d 45 e0	 lea	 eax, DWORD PTR $T17[ebp]
  00210	50		 push	 eax
  00211	8d 45 d8	 lea	 eax, DWORD PTR $T16[ebp]
  00214	50		 push	 eax
  00215	8d 4d 88	 lea	 ecx, DWORD PTR $T10[ebp]
  00218	e8 00 00 00 00	 call	 ??0CCoordinate@@QAE@ABN0HABV?$CStringT@DV?$StrTraitMFC_DLL@DV?$ChTraitsCRT@D@ATL@@@@@ATL@@H@Z ; CCoordinate::CCoordinate
  0021d	50		 push	 eax
  0021e	8d 4d a8	 lea	 ecx, DWORD PTR _cdResult$[ebp]
  00221	c6 45 fc 0a	 mov	 BYTE PTR __$EHRec$[ebp+8], 10 ; 0000000aH
  00225	e8 00 00 00 00	 call	 ??4CCoordinate@@QAEAAV0@ABV0@@Z ; CCoordinate::operator=
  0022a	8d 4d 9c	 lea	 ecx, DWORD PTR $T10[ebp+20]
  0022d	ff 15 00 00 00
	00		 call	 DWORD PTR __imp_??1?$CStringT@DV?$StrTraitMFC_DLL@DV?$ChTraitsCRT@D@ATL@@@@@ATL@@QAE@XZ
  00233	8d 8d 7c ff ff
	ff		 lea	 ecx, DWORD PTR _relativePt2$7[ebp+20]
  00239	ff 15 00 00 00
	00		 call	 DWORD PTR __imp_??1?$CStringT@DV?$StrTraitMFC_DLL@DV?$ChTraitsCRT@D@ATL@@@@@ATL@@QAE@XZ
  0023f	8d 8d 5c ff ff
	ff		 lea	 ecx, DWORD PTR _relativePt1$5[ebp+20]

; 341  : 		}
; 342  : 	}

  00245	e9 78 01 00 00	 jmp	 $LN101@GetGap
$LN3@GetGap:

; 392  : 	return (pPacket != NULL && pPacket->GetDataCount() > 0);

  0024a	ff 52 2c	 call	 DWORD PTR [edx+44]
  0024d	85 c0		 test	 eax, eax
  0024f	7f 67		 jg	 SHORT $LN7@GetGap

; 343  : 	else
; 344  : 	{
; 345  : 		// packet 이 없을 경우엔 그냥 좌표로 한다!!
; 346  : 		// 분차트 근접시간 적용 - ojtaso (20080811)
; 347  : 		// 20081007 JS.Kim	사용자시간대 선택
; 348  : 		if( !IsCalculator( pIPacket)) cdResult = CCoordinate((double)(point2.x - point1.x), (double)(point2.y - point1.y), pIPacket->GetBaseTimeDifference(), strPacketType, 0);

  00251	8b 55 14	 mov	 edx, DWORD PTR _point2$[ebp]
  00254	8b 4d 10	 mov	 ecx, DWORD PTR _point1$[ebp]
  00257	6a 00		 push	 0
  00259	8b 42 04	 mov	 eax, DWORD PTR [edx+4]
  0025c	2b 41 04	 sub	 eax, DWORD PTR [ecx+4]
  0025f	66 0f 6e c0	 movd	 xmm0, eax
  00263	8b 02		 mov	 eax, DWORD PTR [edx]
  00265	2b 01		 sub	 eax, DWORD PTR [ecx]
  00267	8b cb		 mov	 ecx, ebx
  00269	f3 0f e6 c0	 cvtdq2pd xmm0, xmm0
  0026d	f2 0f 11 45 d8	 movsd	 QWORD PTR $T15[ebp], xmm0
  00272	66 0f 6e c0	 movd	 xmm0, eax
  00276	8d 45 f0	 lea	 eax, DWORD PTR _strPacketType$[ebp]
  00279	f3 0f e6 c0	 cvtdq2pd xmm0, xmm0
  0027d	50		 push	 eax
  0027e	8b 03		 mov	 eax, DWORD PTR [ebx]
  00280	f2 0f 11 45 e8	 movsd	 QWORD PTR $T20[ebp], xmm0
  00285	ff 50 60	 call	 DWORD PTR [eax+96]
  00288	50		 push	 eax
  00289	8d 45 d8	 lea	 eax, DWORD PTR $T15[ebp]
  0028c	50		 push	 eax
  0028d	8d 45 e8	 lea	 eax, DWORD PTR $T20[ebp]
  00290	50		 push	 eax
  00291	8d 4d 88	 lea	 ecx, DWORD PTR $T9[ebp]
  00294	e8 00 00 00 00	 call	 ??0CCoordinate@@QAE@ABN0HABV?$CStringT@DV?$StrTraitMFC_DLL@DV?$ChTraitsCRT@D@ATL@@@@@ATL@@H@Z ; CCoordinate::CCoordinate
  00299	c6 45 fc 0b	 mov	 BYTE PTR __$EHRec$[ebp+8], 11 ; 0000000bH
$LN102@GetGap:

; 358  : 		}
; 359  : 	}
; 360  : 
; 361  : 	if( pIPacket) pIPacket->Release();

  0029d	50		 push	 eax
  0029e	8d 4d a8	 lea	 ecx, DWORD PTR _cdResult$[ebp]
  002a1	e8 00 00 00 00	 call	 ??4CCoordinate@@QAEAAV0@ABV0@@Z ; CCoordinate::operator=
  002a6	8d 4d 9c	 lea	 ecx, DWORD PTR $T9[ebp+20]
  002a9	c6 45 fc 02	 mov	 BYTE PTR __$EHRec$[ebp+8], 2
  002ad	ff 15 00 00 00
	00		 call	 DWORD PTR __imp_??1?$CStringT@DV?$StrTraitMFC_DLL@DV?$ChTraitsCRT@D@ATL@@@@@ATL@@QAE@XZ
  002b3	e9 17 01 00 00	 jmp	 $LN87@GetGap
$LN7@GetGap:

; 349  : 		else
; 350  : 		{
; 351  : 			// XScale : 관련 Interface로 사용 - vntsorl(20070327)
; 352  : 			CCoordinate AbsolutePt1 = AbsoluteToAbsolute(calData, point1);

  002b8	8b 7d 10	 mov	 edi, DWORD PTR _point1$[ebp]
  002bb	8d 45 c8	 lea	 eax, DWORD PTR $T13[ebp]
  002be	8b 4d e4	 mov	 ecx, DWORD PTR _this$1$[ebp]
  002c1	57		 push	 edi
  002c2	56		 push	 esi
  002c3	50		 push	 eax
  002c4	e8 00 00 00 00	 call	 ?AbsoluteToAbsolute@CCoordinateCalculator@@QBE?AVCPoint@@ABVCCoordinateCalculatorData@@ABV2@@Z ; CCoordinateCalculator::AbsoluteToAbsolute
  002c9	50		 push	 eax
  002ca	8d 4d 88	 lea	 ecx, DWORD PTR _AbsolutePt1$8[ebp]
  002cd	e8 00 00 00 00	 call	 ??0CCoordinate@@QAE@ABVCPoint@@@Z ; CCoordinate::CCoordinate

; 353  : 			CCoordinate AbsolutePt2 = AbsoluteToAbsolute(calData, point2);

  002d2	8b 75 14	 mov	 esi, DWORD PTR _point2$[ebp]
  002d5	8d 45 d8	 lea	 eax, DWORD PTR $T14[ebp]
  002d8	8b 4d e4	 mov	 ecx, DWORD PTR _this$1$[ebp]
  002db	56		 push	 esi
  002dc	ff 75 0c	 push	 DWORD PTR _calData$[ebp]
  002df	c6 45 fc 0c	 mov	 BYTE PTR __$EHRec$[ebp+8], 12 ; 0000000cH
  002e3	50		 push	 eax
  002e4	e8 00 00 00 00	 call	 ?AbsoluteToAbsolute@CCoordinateCalculator@@QBE?AVCPoint@@ABVCCoordinateCalculatorData@@ABV2@@Z ; CCoordinateCalculator::AbsoluteToAbsolute
  002e9	50		 push	 eax
  002ea	8d 8d 28 ff ff
	ff		 lea	 ecx, DWORD PTR _AbsolutePt2$3[ebp]
  002f0	e8 00 00 00 00	 call	 ??0CCoordinate@@QAE@ABVCPoint@@@Z ; CCoordinate::CCoordinate

; 354  : 			CCoordinate relativePt1 = AbsoluteToRelative(calData, point1);

  002f5	8b 4d e4	 mov	 ecx, DWORD PTR _this$1$[ebp]
  002f8	8d 85 68 ff ff
	ff		 lea	 eax, DWORD PTR _relativePt1$6[ebp]
  002fe	57		 push	 edi
  002ff	8b 7d 0c	 mov	 edi, DWORD PTR _calData$[ebp]
  00302	57		 push	 edi
  00303	50		 push	 eax
  00304	c6 45 fc 0d	 mov	 BYTE PTR __$EHRec$[ebp+8], 13 ; 0000000dH
  00308	e8 00 00 00 00	 call	 ?AbsoluteToRelative@CCoordinateCalculator@@QBE?AVCCoordinate@@ABVCCoordinateCalculatorData@@ABVCPoint@@@Z ; CCoordinateCalculator::AbsoluteToRelative

; 355  : 			CCoordinate relativePt2 = AbsoluteToRelative(calData, point2);

  0030d	8b 4d e4	 mov	 ecx, DWORD PTR _this$1$[ebp]
  00310	8d 85 48 ff ff
	ff		 lea	 eax, DWORD PTR _relativePt2$4[ebp]
  00316	56		 push	 esi
  00317	57		 push	 edi
  00318	50		 push	 eax
  00319	c6 45 fc 0e	 mov	 BYTE PTR __$EHRec$[ebp+8], 14 ; 0000000eH
  0031d	e8 00 00 00 00	 call	 ?AbsoluteToRelative@CCoordinateCalculator@@QBE?AVCCoordinate@@ABVCCoordinateCalculatorData@@ABVCPoint@@@Z ; CCoordinateCalculator::AbsoluteToRelative

; 356  : 			// 분차트 근접시간 적용 - ojtaso (20080811)
; 357  : 			cdResult = CCoordinate( ( AbsolutePt2.GetX() - AbsolutePt1.GetX()), (relativePt2.GetY() - relativePt1.GetY()), pIPacket->GetBaseTimeDifference(), strPacketType, 0);

  00322	8d 8d 48 ff ff
	ff		 lea	 ecx, DWORD PTR _relativePt2$4[ebp]
  00328	c6 45 fc 0f	 mov	 BYTE PTR __$EHRec$[ebp+8], 15 ; 0000000fH
  0032c	e8 00 00 00 00	 call	 ?GetY@CCoordinate@@QBENXZ ; CCoordinate::GetY
  00331	dd 5d d8	 fstp	 QWORD PTR tv575[ebp]
  00334	8d 8d 68 ff ff
	ff		 lea	 ecx, DWORD PTR _relativePt1$6[ebp]
  0033a	e8 00 00 00 00	 call	 ?GetY@CCoordinate@@QBENXZ ; CCoordinate::GetY
  0033f	dc 6d d8	 fsubr	 QWORD PTR tv575[ebp]
  00342	8d 8d 28 ff ff
	ff		 lea	 ecx, DWORD PTR _AbsolutePt2$3[ebp]
  00348	dd 5d e8	 fstp	 QWORD PTR $T19[ebp]
  0034b	e8 00 00 00 00	 call	 ?GetX@CCoordinate@@QBENXZ ; CCoordinate::GetX
  00350	dd 5d d8	 fstp	 QWORD PTR tv581[ebp]
  00353	8d 4d 88	 lea	 ecx, DWORD PTR _AbsolutePt1$8[ebp]
  00356	e8 00 00 00 00	 call	 ?GetX@CCoordinate@@QBENXZ ; CCoordinate::GetX
  0035b	dc 6d d8	 fsubr	 QWORD PTR tv581[ebp]
  0035e	6a 00		 push	 0
  00360	8d 45 f0	 lea	 eax, DWORD PTR _strPacketType$[ebp]
  00363	8b cb		 mov	 ecx, ebx
  00365	50		 push	 eax
  00366	8b 03		 mov	 eax, DWORD PTR [ebx]
  00368	dd 5d c8	 fstp	 QWORD PTR $T12[ebp]
  0036b	ff 50 60	 call	 DWORD PTR [eax+96]
  0036e	50		 push	 eax
  0036f	8d 45 e8	 lea	 eax, DWORD PTR $T19[ebp]
  00372	50		 push	 eax
  00373	8d 45 c8	 lea	 eax, DWORD PTR $T12[ebp]
  00376	50		 push	 eax
  00377	8d 8d 08 ff ff
	ff		 lea	 ecx, DWORD PTR $T2[ebp]
  0037d	e8 00 00 00 00	 call	 ??0CCoordinate@@QAE@ABN0HABV?$CStringT@DV?$StrTraitMFC_DLL@DV?$ChTraitsCRT@D@ATL@@@@@ATL@@H@Z ; CCoordinate::CCoordinate
  00382	50		 push	 eax
  00383	8d 4d a8	 lea	 ecx, DWORD PTR _cdResult$[ebp]
  00386	c6 45 fc 10	 mov	 BYTE PTR __$EHRec$[ebp+8], 16 ; 00000010H
  0038a	e8 00 00 00 00	 call	 ??4CCoordinate@@QAEAAV0@ABV0@@Z ; CCoordinate::operator=
  0038f	8d 8d 1c ff ff
	ff		 lea	 ecx, DWORD PTR $T2[ebp+20]
  00395	ff 15 00 00 00
	00		 call	 DWORD PTR __imp_??1?$CStringT@DV?$StrTraitMFC_DLL@DV?$ChTraitsCRT@D@ATL@@@@@ATL@@QAE@XZ
  0039b	8d 8d 5c ff ff
	ff		 lea	 ecx, DWORD PTR _relativePt2$4[ebp+20]
  003a1	ff 15 00 00 00
	00		 call	 DWORD PTR __imp_??1?$CStringT@DV?$StrTraitMFC_DLL@DV?$ChTraitsCRT@D@ATL@@@@@ATL@@QAE@XZ
  003a7	8d 8d 7c ff ff
	ff		 lea	 ecx, DWORD PTR _relativePt1$6[ebp+20]
  003ad	ff 15 00 00 00
	00		 call	 DWORD PTR __imp_??1?$CStringT@DV?$StrTraitMFC_DLL@DV?$ChTraitsCRT@D@ATL@@@@@ATL@@QAE@XZ
  003b3	8d 8d 3c ff ff
	ff		 lea	 ecx, DWORD PTR _AbsolutePt2$3[ebp+20]
  003b9	ff 15 00 00 00
	00		 call	 DWORD PTR __imp_??1?$CStringT@DV?$StrTraitMFC_DLL@DV?$ChTraitsCRT@D@ATL@@@@@ATL@@QAE@XZ
  003bf	8d 4d 9c	 lea	 ecx, DWORD PTR _AbsolutePt1$8[ebp+20]
$LN101@GetGap:

; 358  : 		}
; 359  : 	}
; 360  : 
; 361  : 	if( pIPacket) pIPacket->Release();

  003c2	c6 45 fc 02	 mov	 BYTE PTR __$EHRec$[ebp+8], 2
  003c6	ff 15 00 00 00
	00		 call	 DWORD PTR __imp_??1?$CStringT@DV?$StrTraitMFC_DLL@DV?$ChTraitsCRT@D@ATL@@@@@ATL@@QAE@XZ
  003cc	8b 7d d4	 mov	 edi, DWORD PTR _szPacketType$[ebp+4]
$LN87@GetGap:
  003cf	8b 03		 mov	 eax, DWORD PTR [ebx]
  003d1	53		 push	 ebx
  003d2	ff 50 08	 call	 DWORD PTR [eax+8]

; 362  : 	return cdResult;

  003d5	8b 75 08	 mov	 esi, DWORD PTR ___$ReturnUdt$[ebp]
  003d8	8d 45 a8	 lea	 eax, DWORD PTR _cdResult$[ebp]
  003db	50		 push	 eax
  003dc	8b ce		 mov	 ecx, esi
  003de	e8 00 00 00 00	 call	 ??0CCoordinate@@QAE@ABV0@@Z ; CCoordinate::CCoordinate
  003e3	8d 4d f0	 lea	 ecx, DWORD PTR _strPacketType$[ebp]
  003e6	ff 15 00 00 00
	00		 call	 DWORD PTR __imp_??1?$CStringT@DV?$StrTraitMFC_DLL@DV?$ChTraitsCRT@D@ATL@@@@@ATL@@QAE@XZ
; File D:\git\src\IBK\IBK_DRFN\ProjSrc\SrcChartEx\ChartAddIn\ChartAnalysisToolAddIn\Include_AddIn_133101\I133101\_IString.h

; 44   : 	{

  003ec	c6 45 fc 11	 mov	 BYTE PTR __$EHRec$[ebp+8], 17 ; 00000011H

; 45   : 		if( m_pIStrData)

  003f0	85 ff		 test	 edi, edi
  003f2	74 06		 je	 SHORT $LN90@GetGap

; 46   : 		{
; 47   : 			m_pIStrData->Release();

  003f4	8b 0f		 mov	 ecx, DWORD PTR [edi]
  003f6	57		 push	 edi
  003f7	ff 51 08	 call	 DWORD PTR [ecx+8]
$LN90@GetGap:
  003fa	8d 4d bc	 lea	 ecx, DWORD PTR _cdResult$[ebp+20]
  003fd	ff 15 00 00 00
	00		 call	 DWORD PTR __imp_??1?$CStringT@DV?$StrTraitMFC_DLL@DV?$ChTraitsCRT@D@ATL@@@@@ATL@@QAE@XZ
; File D:\git\src\IBK\IBK_DRFN\ProjSrc\SrcChartEx\ChartAddIn\ChartAnalysisToolAddIn\AnalysisTool\CoordinateCalculator.cpp

; 362  : 	return cdResult;

  00403	8b c6		 mov	 eax, esi

; 363  : }

  00405	8b 4d f4	 mov	 ecx, DWORD PTR __$EHRec$[ebp]
  00408	64 89 0d 00 00
	00 00		 mov	 DWORD PTR fs:0, ecx
  0040f	59		 pop	 ecx
  00410	5f		 pop	 edi
  00411	5e		 pop	 esi
  00412	5b		 pop	 ebx
  00413	8b e5		 mov	 esp, ebp
  00415	5d		 pop	 ebp
  00416	c2 10 00	 ret	 16			; 00000010H
$LN30@GetGap:

; 324  : 	if( !calData.IsValidAddInInterface()) return cdResult;

  00419	8b 4d 08	 mov	 ecx, DWORD PTR ___$ReturnUdt$[ebp]
  0041c	8d 45 a8	 lea	 eax, DWORD PTR _cdResult$[ebp]
  0041f	50		 push	 eax
  00420	e8 00 00 00 00	 call	 ??0CCoordinate@@QAE@ABV0@@Z ; CCoordinate::CCoordinate
  00425	8d 4d bc	 lea	 ecx, DWORD PTR _cdResult$[ebp+20]
  00428	ff 15 00 00 00
	00		 call	 DWORD PTR __imp_??1?$CStringT@DV?$StrTraitMFC_DLL@DV?$ChTraitsCRT@D@ATL@@@@@ATL@@QAE@XZ
  0042e	8b 45 08	 mov	 eax, DWORD PTR ___$ReturnUdt$[ebp]

; 363  : }

  00431	8b 4d f4	 mov	 ecx, DWORD PTR __$EHRec$[ebp]
  00434	64 89 0d 00 00
	00 00		 mov	 DWORD PTR fs:0, ecx
  0043b	59		 pop	 ecx
  0043c	5f		 pop	 edi
  0043d	5e		 pop	 esi
  0043e	5b		 pop	 ebx
  0043f	8b e5		 mov	 esp, ebp
  00441	5d		 pop	 ebp
  00442	c2 10 00	 ret	 16			; 00000010H
_TEXT	ENDS
;	COMDAT text$x
text$x	SEGMENT
__unwindfunclet$?GetGap@CCoordinateCalculator@@QBE?AVCCoordinate@@ABVCCoordinateCalculatorData@@ABVCPoint@@1@Z$0:
  00000	8d 4d a8	 lea	 ecx, DWORD PTR _cdResult$[ebp]
  00003	e9 00 00 00 00	 jmp	 ??1CCoordinate@@QAE@XZ
__unwindfunclet$?GetGap@CCoordinateCalculator@@QBE?AVCCoordinate@@ABVCCoordinateCalculatorData@@ABVCPoint@@1@Z$2:
  00008	8d 4d d0	 lea	 ecx, DWORD PTR _szPacketType$[ebp]
  0000b	e9 00 00 00 00	 jmp	 ??1ILPCSTR133101@@QAE@XZ ; ILPCSTR133101::~ILPCSTR133101
__unwindfunclet$?GetGap@CCoordinateCalculator@@QBE?AVCCoordinate@@ABVCCoordinateCalculatorData@@ABVCPoint@@1@Z$3:
  00010	8d 4d f0	 lea	 ecx, DWORD PTR _strPacketType$[ebp]
  00013	ff 25 00 00 00
	00		 jmp	 DWORD PTR __imp_??1?$CStringT@DV?$StrTraitMFC_DLL@DV?$ChTraitsCRT@D@ATL@@@@@ATL@@QAE@XZ
__unwindfunclet$?GetGap@CCoordinateCalculator@@QBE?AVCCoordinate@@ABVCCoordinateCalculatorData@@ABVCPoint@@1@Z$4:
  00019	8d 4d 88	 lea	 ecx, DWORD PTR $T11[ebp]
  0001c	e9 00 00 00 00	 jmp	 ??1CCoordinate@@QAE@XZ
__unwindfunclet$?GetGap@CCoordinateCalculator@@QBE?AVCCoordinate@@ABVCCoordinateCalculatorData@@ABVCPoint@@1@Z$5:
  00021	8d 8d 48 ff ff
	ff		 lea	 ecx, DWORD PTR _relativePt1$5[ebp]
  00027	e9 00 00 00 00	 jmp	 ??1CCoordinate@@QAE@XZ
__unwindfunclet$?GetGap@CCoordinateCalculator@@QBE?AVCCoordinate@@ABVCCoordinateCalculatorData@@ABVCPoint@@1@Z$6:
  0002c	8d 8d 68 ff ff
	ff		 lea	 ecx, DWORD PTR _relativePt2$7[ebp]
  00032	e9 00 00 00 00	 jmp	 ??1CCoordinate@@QAE@XZ
__unwindfunclet$?GetGap@CCoordinateCalculator@@QBE?AVCCoordinate@@ABVCCoordinateCalculatorData@@ABVCPoint@@1@Z$7:
  00037	8d 4d 10	 lea	 ecx, DWORD PTR $T22[ebp]
  0003a	ff 25 00 00 00
	00		 jmp	 DWORD PTR __imp_??1?$CStringT@DV?$StrTraitMFC_DLL@DV?$ChTraitsCRT@D@ATL@@@@@ATL@@QAE@XZ
__unwindfunclet$?GetGap@CCoordinateCalculator@@QBE?AVCCoordinate@@ABVCCoordinateCalculatorData@@ABVCPoint@@1@Z$18:
  00040	8d 4d 10	 lea	 ecx, DWORD PTR $T22[ebp]
  00043	ff 25 00 00 00
	00		 jmp	 DWORD PTR __imp_??1?$CStringT@DV?$StrTraitMFC_DLL@DV?$ChTraitsCRT@D@ATL@@@@@ATL@@QAE@XZ
__unwindfunclet$?GetGap@CCoordinateCalculator@@QBE?AVCCoordinate@@ABVCCoordinateCalculatorData@@ABVCPoint@@1@Z$8:
  00049	8d 4d 14	 lea	 ecx, DWORD PTR $T23[ebp]
  0004c	ff 25 00 00 00
	00		 jmp	 DWORD PTR __imp_??1?$CStringT@DV?$StrTraitMFC_DLL@DV?$ChTraitsCRT@D@ATL@@@@@ATL@@QAE@XZ
__unwindfunclet$?GetGap@CCoordinateCalculator@@QBE?AVCCoordinate@@ABVCCoordinateCalculatorData@@ABVCPoint@@1@Z$19:
  00052	8d 4d 14	 lea	 ecx, DWORD PTR $T23[ebp]
  00055	ff 25 00 00 00
	00		 jmp	 DWORD PTR __imp_??1?$CStringT@DV?$StrTraitMFC_DLL@DV?$ChTraitsCRT@D@ATL@@@@@ATL@@QAE@XZ
__unwindfunclet$?GetGap@CCoordinateCalculator@@QBE?AVCCoordinate@@ABVCCoordinateCalculatorData@@ABVCPoint@@1@Z$9:
  0005b	8d 4d 88	 lea	 ecx, DWORD PTR $T10[ebp]
  0005e	e9 00 00 00 00	 jmp	 ??1CCoordinate@@QAE@XZ
__unwindfunclet$?GetGap@CCoordinateCalculator@@QBE?AVCCoordinate@@ABVCCoordinateCalculatorData@@ABVCPoint@@1@Z$10:
  00063	8d 4d 88	 lea	 ecx, DWORD PTR $T9[ebp]
  00066	e9 00 00 00 00	 jmp	 ??1CCoordinate@@QAE@XZ
__unwindfunclet$?GetGap@CCoordinateCalculator@@QBE?AVCCoordinate@@ABVCCoordinateCalculatorData@@ABVCPoint@@1@Z$11:
  0006b	8d 4d 88	 lea	 ecx, DWORD PTR _AbsolutePt1$8[ebp]
  0006e	e9 00 00 00 00	 jmp	 ??1CCoordinate@@QAE@XZ
__unwindfunclet$?GetGap@CCoordinateCalculator@@QBE?AVCCoordinate@@ABVCCoordinateCalculatorData@@ABVCPoint@@1@Z$12:
  00073	8d 8d 28 ff ff
	ff		 lea	 ecx, DWORD PTR _AbsolutePt2$3[ebp]
  00079	e9 00 00 00 00	 jmp	 ??1CCoordinate@@QAE@XZ
__unwindfunclet$?GetGap@CCoordinateCalculator@@QBE?AVCCoordinate@@ABVCCoordinateCalculatorData@@ABVCPoint@@1@Z$13:
  0007e	8d 8d 68 ff ff
	ff		 lea	 ecx, DWORD PTR _relativePt1$6[ebp]
  00084	e9 00 00 00 00	 jmp	 ??1CCoordinate@@QAE@XZ
__unwindfunclet$?GetGap@CCoordinateCalculator@@QBE?AVCCoordinate@@ABVCCoordinateCalculatorData@@ABVCPoint@@1@Z$14:
  00089	8d 8d 48 ff ff
	ff		 lea	 ecx, DWORD PTR _relativePt2$4[ebp]
  0008f	e9 00 00 00 00	 jmp	 ??1CCoordinate@@QAE@XZ
__unwindfunclet$?GetGap@CCoordinateCalculator@@QBE?AVCCoordinate@@ABVCCoordinateCalculatorData@@ABVCPoint@@1@Z$15:
  00094	8d 8d 08 ff ff
	ff		 lea	 ecx, DWORD PTR $T2[ebp]
  0009a	e9 00 00 00 00	 jmp	 ??1CCoordinate@@QAE@XZ
  0009f	cc		 int	 3
  000a0	cc		 int	 3
  000a1	cc		 int	 3
  000a2	cc		 int	 3
  000a3	cc		 int	 3
__ehhandler$?GetGap@CCoordinateCalculator@@QBE?AVCCoordinate@@ABVCCoordinateCalculatorData@@ABVCPoint@@1@Z:
  000a4	90		 npad	 1
  000a5	90		 npad	 1
  000a6	8b 54 24 08	 mov	 edx, DWORD PTR [esp+8]
  000aa	8d 42 0c	 lea	 eax, DWORD PTR [edx+12]
  000ad	8b 8a 04 ff ff
	ff		 mov	 ecx, DWORD PTR [edx-252]
  000b3	33 c8		 xor	 ecx, eax
  000b5	e8 00 00 00 00	 call	 @__security_check_cookie@4
  000ba	b8 00 00 00 00	 mov	 eax, OFFSET __ehfuncinfo$?GetGap@CCoordinateCalculator@@QBE?AVCCoordinate@@ABVCCoordinateCalculatorData@@ABVCPoint@@1@Z
  000bf	e9 00 00 00 00	 jmp	 ___CxxFrameHandler3
text$x	ENDS
?GetGap@CCoordinateCalculator@@QBE?AVCCoordinate@@ABVCCoordinateCalculatorData@@ABVCPoint@@1@Z ENDP ; CCoordinateCalculator::GetGap
; Function compile flags: /Ogtp
; File D:\git\src\IBK\IBK_DRFN\ProjSrc\SrcChartEx\ChartAddIn\ChartAnalysisToolAddIn\AnalysisTool\CoordinateCalculator.cpp
;	COMDAT ?AbsoluteToAbsolute@CCoordinateCalculator@@QBE?AVCPoint@@ABVCCoordinateCalculatorData@@ABV2@@Z
_TEXT	SEGMENT
_relativePt$ = -52					; size = 32
_drawingPoint$ = -20					; size = 8
_this$1$ = -16						; size = 4
__$EHRec$ = -12						; size = 12
___$ReturnUdt$ = 8					; size = 4
_calData$ = 12						; size = 4
_point$ = 16						; size = 4
?AbsoluteToAbsolute@CCoordinateCalculator@@QBE?AVCPoint@@ABVCCoordinateCalculatorData@@ABV2@@Z PROC ; CCoordinateCalculator::AbsoluteToAbsolute, COMDAT
; _this$ = ecx

; 305  : {

  00000	55		 push	 ebp
  00001	8b ec		 mov	 ebp, esp
  00003	6a ff		 push	 -1
  00005	68 00 00 00 00	 push	 __ehhandler$?AbsoluteToAbsolute@CCoordinateCalculator@@QBE?AVCPoint@@ABVCCoordinateCalculatorData@@ABV2@@Z
  0000a	64 a1 00 00 00
	00		 mov	 eax, DWORD PTR fs:0
  00010	50		 push	 eax
  00011	83 ec 28	 sub	 esp, 40			; 00000028H
  00014	53		 push	 ebx
  00015	56		 push	 esi
  00016	57		 push	 edi
  00017	a1 00 00 00 00	 mov	 eax, DWORD PTR ___security_cookie
  0001c	33 c5		 xor	 eax, ebp
  0001e	50		 push	 eax
  0001f	8d 45 f4	 lea	 eax, DWORD PTR __$EHRec$[ebp]
  00022	64 a3 00 00 00
	00		 mov	 DWORD PTR fs:0, eax
  00028	89 4d f0	 mov	 DWORD PTR _this$1$[ebp], ecx

; 306  : 	IPacket *pIPacket = calData.GetPacket_X();

  0002b	8b 5d 0c	 mov	 ebx, DWORD PTR _calData$[ebp]
  0002e	8b cb		 mov	 ecx, ebx
  00030	e8 00 00 00 00	 call	 ?GetPacket_X@CCoordinateCalculatorData@@QBEPAUIPacket133101@@XZ ; CCoordinateCalculatorData::GetPacket_X
  00035	8b f0		 mov	 esi, eax

; 392  : 	return (pPacket != NULL && pPacket->GetDataCount() > 0);

  00037	85 f6		 test	 esi, esi
  00039	74 12		 je	 SHORT $LN8@AbsoluteTo
  0003b	8b 16		 mov	 edx, DWORD PTR [esi]
  0003d	8b ce		 mov	 ecx, esi
  0003f	ff 52 2c	 call	 DWORD PTR [edx+44]
  00042	85 c0		 test	 eax, eax
  00044	7e 07		 jle	 SHORT $LN8@AbsoluteTo
  00046	bf 01 00 00 00	 mov	 edi, 1
  0004b	eb 06		 jmp	 SHORT $LN13@AbsoluteTo
$LN8@AbsoluteTo:
  0004d	33 ff		 xor	 edi, edi

; 307  : 	BOOL bResult = IsCalculator( pIPacket);
; 308  : 	if( pIPacket)

  0004f	85 f6		 test	 esi, esi
  00051	74 5f		 je	 SHORT $LN14@AbsoluteTo
$LN13@AbsoluteTo:

; 309  : 	{
; 310  : 		pIPacket->Release();

  00053	8b 06		 mov	 eax, DWORD PTR [esi]
  00055	56		 push	 esi
  00056	ff 50 08	 call	 DWORD PTR [eax+8]

; 311  : 		pIPacket = NULL;
; 312  : 	}
; 313  : 	if( !bResult) return point;

  00059	85 ff		 test	 edi, edi
  0005b	74 55		 je	 SHORT $LN14@AbsoluteTo

; 314  : 
; 315  : 	CCoordinate relativePt = AbsoluteToRelative(calData, point);

  0005d	ff 75 10	 push	 DWORD PTR _point$[ebp]
  00060	8b 4d f0	 mov	 ecx, DWORD PTR _this$1$[ebp]
  00063	8d 45 cc	 lea	 eax, DWORD PTR _relativePt$[ebp]
  00066	53		 push	 ebx
  00067	50		 push	 eax
  00068	e8 00 00 00 00	 call	 ?AbsoluteToRelative@CCoordinateCalculator@@QBE?AVCCoordinate@@ABVCCoordinateCalculatorData@@ABVCPoint@@@Z ; CCoordinateCalculator::AbsoluteToRelative

; 316  : 	CPoint drawingPoint = RelativeToAbsolute_NoAutoPrice(calData, relativePt);

  0006d	8b 4d f0	 mov	 ecx, DWORD PTR _this$1$[ebp]
  00070	8d 45 cc	 lea	 eax, DWORD PTR _relativePt$[ebp]
  00073	50		 push	 eax
  00074	53		 push	 ebx
  00075	8d 45 ec	 lea	 eax, DWORD PTR _drawingPoint$[ebp]
  00078	c7 45 fc 00 00
	00 00		 mov	 DWORD PTR __$EHRec$[ebp+8], 0
  0007f	50		 push	 eax
  00080	e8 00 00 00 00	 call	 ?RelativeToAbsolute_NoAutoPrice@CCoordinateCalculator@@QBE?AVCPoint@@ABVCCoordinateCalculatorData@@ABVCCoordinate@@@Z ; CCoordinateCalculator::RelativeToAbsolute_NoAutoPrice

; 317  : 	return drawingPoint;

  00085	8b 75 08	 mov	 esi, DWORD PTR ___$ReturnUdt$[ebp]
  00088	8b 4d ec	 mov	 ecx, DWORD PTR _drawingPoint$[ebp]
  0008b	8b 55 f0	 mov	 edx, DWORD PTR _drawingPoint$[ebp+4]
  0008e	89 0e		 mov	 DWORD PTR [esi], ecx
  00090	8d 4d e0	 lea	 ecx, DWORD PTR _relativePt$[ebp+20]
  00093	89 56 04	 mov	 DWORD PTR [esi+4], edx
  00096	ff 15 00 00 00
	00		 call	 DWORD PTR __imp_??1?$CStringT@DV?$StrTraitMFC_DLL@DV?$ChTraitsCRT@D@ATL@@@@@ATL@@QAE@XZ
  0009c	8b c6		 mov	 eax, esi

; 318  : }

  0009e	8b 4d f4	 mov	 ecx, DWORD PTR __$EHRec$[ebp]
  000a1	64 89 0d 00 00
	00 00		 mov	 DWORD PTR fs:0, ecx
  000a8	59		 pop	 ecx
  000a9	5f		 pop	 edi
  000aa	5e		 pop	 esi
  000ab	5b		 pop	 ebx
  000ac	8b e5		 mov	 esp, ebp
  000ae	5d		 pop	 ebp
  000af	c2 0c 00	 ret	 12			; 0000000cH
$LN14@AbsoluteTo:

; 311  : 		pIPacket = NULL;
; 312  : 	}
; 313  : 	if( !bResult) return point;

  000b2	8b 45 10	 mov	 eax, DWORD PTR _point$[ebp]
  000b5	8b 08		 mov	 ecx, DWORD PTR [eax]
  000b7	8b 50 04	 mov	 edx, DWORD PTR [eax+4]
  000ba	8b 45 08	 mov	 eax, DWORD PTR ___$ReturnUdt$[ebp]
  000bd	89 08		 mov	 DWORD PTR [eax], ecx
  000bf	89 50 04	 mov	 DWORD PTR [eax+4], edx

; 318  : }

  000c2	8b 4d f4	 mov	 ecx, DWORD PTR __$EHRec$[ebp]
  000c5	64 89 0d 00 00
	00 00		 mov	 DWORD PTR fs:0, ecx
  000cc	59		 pop	 ecx
  000cd	5f		 pop	 edi
  000ce	5e		 pop	 esi
  000cf	5b		 pop	 ebx
  000d0	8b e5		 mov	 esp, ebp
  000d2	5d		 pop	 ebp
  000d3	c2 0c 00	 ret	 12			; 0000000cH
_TEXT	ENDS
;	COMDAT text$x
text$x	SEGMENT
__unwindfunclet$?AbsoluteToAbsolute@CCoordinateCalculator@@QBE?AVCPoint@@ABVCCoordinateCalculatorData@@ABV2@@Z$0:
  00000	8d 4d cc	 lea	 ecx, DWORD PTR _relativePt$[ebp]
  00003	e9 00 00 00 00	 jmp	 ??1CCoordinate@@QAE@XZ
  00008	cc		 int	 3
  00009	cc		 int	 3
  0000a	cc		 int	 3
  0000b	cc		 int	 3
  0000c	cc		 int	 3
__ehhandler$?AbsoluteToAbsolute@CCoordinateCalculator@@QBE?AVCPoint@@ABVCCoordinateCalculatorData@@ABV2@@Z:
  0000d	90		 npad	 1
  0000e	90		 npad	 1
  0000f	8b 54 24 08	 mov	 edx, DWORD PTR [esp+8]
  00013	8d 42 0c	 lea	 eax, DWORD PTR [edx+12]
  00016	8b 4a c8	 mov	 ecx, DWORD PTR [edx-56]
  00019	33 c8		 xor	 ecx, eax
  0001b	e8 00 00 00 00	 call	 @__security_check_cookie@4
  00020	b8 00 00 00 00	 mov	 eax, OFFSET __ehfuncinfo$?AbsoluteToAbsolute@CCoordinateCalculator@@QBE?AVCPoint@@ABVCCoordinateCalculatorData@@ABV2@@Z
  00025	e9 00 00 00 00	 jmp	 ___CxxFrameHandler3
text$x	ENDS
?AbsoluteToAbsolute@CCoordinateCalculator@@QBE?AVCPoint@@ABVCCoordinateCalculatorData@@ABV2@@Z ENDP ; CCoordinateCalculator::AbsoluteToAbsolute
; Function compile flags: /Ogtp
; File D:\git\src\IBK\IBK_DRFN\ProjSrc\SrcChartEx\ChartAddIn\ChartAnalysisToolAddIn\AnalysisTool\CoordinateCalculator.cpp
;	COMDAT ?RelativeToAbsolute_Y@CCoordinateCalculator@@QBEHABVCCoordinateCalculatorData@@HABN@Z
_TEXT	SEGMENT
$T1 = -48						; size = 8
$T2 = -40						; size = 8
$T3 = -32						; size = 8
_dYValue$GSCopy$1$ = -24				; size = 4
$T4 = -20						; size = 16
__$ArrayPad$ = -4					; size = 4
_calData$ = 8						; size = 4
_nIndex$ = 12						; size = 4
_dYValue$ = 16						; size = 4
?RelativeToAbsolute_Y@CCoordinateCalculator@@QBEHABVCCoordinateCalculatorData@@HABN@Z PROC ; CCoordinateCalculator::RelativeToAbsolute_Y, COMDAT
; _this$ = ecx

; 291  : {

  00000	55		 push	 ebp
  00001	8b ec		 mov	 ebp, esp
  00003	83 ec 30	 sub	 esp, 48			; 00000030H
  00006	a1 00 00 00 00	 mov	 eax, DWORD PTR ___security_cookie
  0000b	33 c5		 xor	 eax, ebp
  0000d	89 45 fc	 mov	 DWORD PTR __$ArrayPad$[ebp], eax
  00010	8b 45 10	 mov	 eax, DWORD PTR _dYValue$[ebp]
  00013	53		 push	 ebx
  00014	56		 push	 esi
  00015	57		 push	 edi
  00016	8b 7d 08	 mov	 edi, DWORD PTR _calData$[ebp]
  00019	8b d9		 mov	 ebx, ecx

; 292  : 	int nYPos = -1;
; 293  : 	IPacket *pIPacket = calData.GetPacket_X();

  0001b	8b cf		 mov	 ecx, edi
  0001d	89 45 e8	 mov	 DWORD PTR _dYValue$GSCopy$1$[ebp], eax
  00020	e8 00 00 00 00	 call	 ?GetPacket_X@CCoordinateCalculatorData@@QBEPAUIPacket133101@@XZ ; CCoordinateCalculatorData::GetPacket_X
  00025	8b f0		 mov	 esi, eax

; 392  : 	return (pPacket != NULL && pPacket->GetDataCount() > 0);

  00027	85 f6		 test	 esi, esi
  00029	74 56		 je	 SHORT $LN2@RelativeTo
  0002b	8b 16		 mov	 edx, DWORD PTR [esi]
  0002d	8b ce		 mov	 ecx, esi
  0002f	ff 52 2c	 call	 DWORD PTR [edx+44]
  00032	85 c0		 test	 eax, eax
  00034	7e 4b		 jle	 SHORT $LN2@RelativeTo

; 294  : 	if( IsCalculator( pIPacket)) 
; 295  : 	{
; 296  : 		nYPos = CDataConversion::RelativeToAbsolute_Y(calData.GetRegion(), GetData_Y(calData, dYValue, nIndex),

  00036	8b cf		 mov	 ecx, edi
  00038	e8 00 00 00 00	 call	 ?GetDisplayDataMax_ScaleType@CCoordinateCalculatorData@@QBENXZ ; CCoordinateCalculatorData::GetDisplayDataMax_ScaleType
  0003d	dd 5d e0	 fstp	 QWORD PTR $T3[ebp]
  00040	8b cf		 mov	 ecx, edi
  00042	e8 00 00 00 00	 call	 ?GetDisplayDataMin_ScaleType@CCoordinateCalculatorData@@QBENXZ ; CCoordinateCalculatorData::GetDisplayDataMin_ScaleType
  00047	ff 75 0c	 push	 DWORD PTR _nIndex$[ebp]
  0004a	8b 03		 mov	 eax, DWORD PTR [ebx]
  0004c	8b cb		 mov	 ecx, ebx
  0004e	ff 75 e8	 push	 DWORD PTR _dYValue$GSCopy$1$[ebp]
  00051	dd 5d d8	 fstp	 QWORD PTR $T2[ebp]
  00054	57		 push	 edi
  00055	8b 40 04	 mov	 eax, DWORD PTR [eax+4]
  00058	ff d0		 call	 eax
  0005a	8d 45 e0	 lea	 eax, DWORD PTR $T3[ebp]
  0005d	8b cf		 mov	 ecx, edi
  0005f	50		 push	 eax
  00060	8d 45 d8	 lea	 eax, DWORD PTR $T2[ebp]
  00063	50		 push	 eax
  00064	8d 45 d0	 lea	 eax, DWORD PTR $T1[ebp]
  00067	50		 push	 eax
  00068	8d 45 ec	 lea	 eax, DWORD PTR $T4[ebp]
  0006b	50		 push	 eax
  0006c	dd 5d d0	 fstp	 QWORD PTR $T1[ebp]
  0006f	e8 00 00 00 00	 call	 ?GetRegion@CCoordinateCalculatorData@@QBE?AVCRect@@XZ ; CCoordinateCalculatorData::GetRegion
  00074	50		 push	 eax
  00075	e8 00 00 00 00	 call	 ?RelativeToAbsolute_Y@CDataConversion@@SAHABVCRect@@ABN11@Z ; CDataConversion::RelativeToAbsolute_Y
  0007a	83 c4 10	 add	 esp, 16			; 00000010H
  0007d	8b f8		 mov	 edi, eax
  0007f	eb 07		 jmp	 SHORT $LN10@RelativeTo
$LN2@RelativeTo:

; 297  : 				calData.GetDisplayDataMin_ScaleType(), calData.GetDisplayDataMax_ScaleType());
; 298  : 	}
; 299  : 	if( pIPacket) pIPacket->Release();

  00081	83 cf ff	 or	 edi, -1
  00084	85 f6		 test	 esi, esi
  00086	74 06		 je	 SHORT $LN11@RelativeTo
$LN10@RelativeTo:
  00088	8b 06		 mov	 eax, DWORD PTR [esi]
  0008a	56		 push	 esi
  0008b	ff 50 08	 call	 DWORD PTR [eax+8]
$LN11@RelativeTo:

; 300  : 	return nYPos;
; 301  : }

  0008e	8b 4d fc	 mov	 ecx, DWORD PTR __$ArrayPad$[ebp]
  00091	8b c7		 mov	 eax, edi
  00093	5f		 pop	 edi
  00094	5e		 pop	 esi
  00095	33 cd		 xor	 ecx, ebp
  00097	5b		 pop	 ebx
  00098	e8 00 00 00 00	 call	 @__security_check_cookie@4
  0009d	8b e5		 mov	 esp, ebp
  0009f	5d		 pop	 ebp
  000a0	c2 0c 00	 ret	 12			; 0000000cH
?RelativeToAbsolute_Y@CCoordinateCalculator@@QBEHABVCCoordinateCalculatorData@@HABN@Z ENDP ; CCoordinateCalculator::RelativeToAbsolute_Y
_TEXT	ENDS
; Function compile flags: /Ogtp
; File D:\git\src\IBK\IBK_DRFN\ProjSrc\SrcChartEx\ChartAddIn\ChartAnalysisToolAddIn\AnalysisTool\CoordinateCalculator.cpp
; File C:\Program Files (x86)\Microsoft Visual Studio\2019\Community\VC\Tools\MSVC\14.29.30133\atlmfc\include\atltypes.h
; File D:\git\src\IBK\IBK_DRFN\ProjSrc\SrcChartEx\ChartAddIn\ChartAnalysisToolAddIn\AnalysisTool\CoordinateCalculator.cpp
; File C:\Program Files (x86)\Microsoft Visual Studio\2019\Community\VC\Tools\MSVC\14.29.30133\atlmfc\include\atltypes.h
; File D:\git\src\IBK\IBK_DRFN\ProjSrc\SrcChartEx\ChartAddIn\ChartAnalysisToolAddIn\AnalysisTool\CoordinateCalculator.cpp
; File D:\git\src\IBK\IBK_DRFN\ProjSrc\SrcChartEx\ChartAddIn\ChartAnalysisToolAddIn\Include_Analysis\CoordinateCalculatorData.h
; File D:\git\src\IBK\IBK_DRFN\ProjSrc\SrcChartEx\ChartAddIn\ChartAnalysisToolAddIn\AnalysisTool\CoordinateCalculator.cpp
; File D:\git\src\IBK\IBK_DRFN\ProjSrc\SrcChartEx\ChartAddIn\ChartAnalysisToolAddIn\Include_AddIn_133101\I133101\_IString.h
; File D:\git\src\IBK\IBK_DRFN\ProjSrc\SrcChartEx\ChartAddIn\ChartAnalysisToolAddIn\AnalysisTool\CoordinateCalculator.cpp
; File D:\git\src\IBK\IBK_DRFN\ProjSrc\SrcChartEx\ChartAddIn\ChartAnalysisToolAddIn\Include_AddIn_133101\I133101\_IString.h
; File D:\git\src\IBK\IBK_DRFN\ProjSrc\SrcChartEx\ChartAddIn\ChartAnalysisToolAddIn\AnalysisTool\CoordinateCalculator.cpp
; File D:\git\src\IBK\IBK_DRFN\ProjSrc\SrcChartEx\ChartAddIn\ChartAnalysisToolAddIn\Include_AddIn_133101\I133101\_IString.h
; File D:\git\src\IBK\IBK_DRFN\ProjSrc\SrcChartEx\ChartAddIn\ChartAnalysisToolAddIn\AnalysisTool\CoordinateCalculator.cpp
; File D:\git\src\IBK\IBK_DRFN\ProjSrc\SrcChartEx\ChartAddIn\ChartAnalysisToolAddIn\Include_AddIn_133101\I133101\_IString.h
; File D:\git\src\IBK\IBK_DRFN\ProjSrc\SrcChartEx\ChartAddIn\ChartAnalysisToolAddIn\AnalysisTool\CoordinateCalculator.cpp
; File D:\git\src\IBK\IBK_DRFN\ProjSrc\SrcChartEx\ChartAddIn\ChartAnalysisToolAddIn\Include_AddIn_133101\I133101\_IString.h
; File D:\git\src\IBK\IBK_DRFN\ProjSrc\SrcChartEx\ChartAddIn\ChartAnalysisToolAddIn\AnalysisTool\CoordinateCalculator.cpp
; File D:\git\src\IBK\IBK_DRFN\ProjSrc\SrcChartEx\ChartAddIn\ChartAnalysisToolAddIn\Include_AddIn_133101\I133101\_IString.h
; File D:\git\src\IBK\IBK_DRFN\ProjSrc\SrcChartEx\ChartAddIn\ChartAnalysisToolAddIn\AnalysisTool\CoordinateCalculator.cpp
; File D:\git\src\IBK\IBK_DRFN\ProjSrc\SrcChartEx\ChartAddIn\ChartAnalysisToolAddIn\Include_AddIn_133101\I133101\_IString.h
; File D:\git\src\IBK\IBK_DRFN\ProjSrc\SrcChartEx\ChartAddIn\ChartAnalysisToolAddIn\AnalysisTool\CoordinateCalculator.cpp
; File D:\git\src\IBK\IBK_DRFN\ProjSrc\SrcChartEx\ChartAddIn\ChartAnalysisToolAddIn\Include_AddIn_133101\I133101\_IString.h
; File D:\git\src\IBK\IBK_DRFN\ProjSrc\SrcChartEx\ChartAddIn\ChartAnalysisToolAddIn\AnalysisTool\CoordinateCalculator.cpp
; File D:\git\src\IBK\IBK_DRFN\ProjSrc\SrcChartEx\ChartAddIn\ChartAnalysisToolAddIn\Include_AddIn_133101\I133101\_IString.h
; File D:\git\src\IBK\IBK_DRFN\ProjSrc\SrcChartEx\ChartAddIn\ChartAnalysisToolAddIn\AnalysisTool\CoordinateCalculator.cpp
;	COMDAT ?RelativeToAbsolute@CCoordinateCalculator@@QBE?AVCPoint@@ABVCCoordinateCalculatorData@@ABVCCoordinate@@@Z
_TEXT	SEGMENT
$T2 = -176						; size = 8
$T3 = -168						; size = 8
$T4 = -160						; size = 8
_nCenter_x$5 = -152					; size = 4
$T6 = -148						; size = 8
$T7 = -148						; size = 8
_strAnalType$8 = -140					; size = 4
_strPacketType$9 = -136					; size = 4
_nV$10 = -132						; size = 4
_nG$11 = -128						; size = 4
_this$GSCopy$1$ = -120					; size = 4
_szPacketType$12 = -116					; size = 8
$T13 = -116						; size = 8
_nC$14 = -108						; size = 4
_nR$15 = -104						; size = 4
$T16 = -100						; size = 8
_pIPacket$1$ = -96					; size = 4
$T17 = -96						; size = 4
___$ReturnUdt$GSCopy$1$ = -92				; size = 4
$T18 = -88						; size = 8
$T19 = -88						; size = 8
$T20 = -88						; size = 8
$T21 = -88						; size = 8
$T22 = -88						; size = 8
$T23 = -88						; size = 8
$T24 = -88						; size = 8
$T25 = -88						; size = 8
_dX$26 = -80						; size = 8
$T27 = -80						; size = 8
tv865 = -76						; size = 4
_ptResult$2$ = -76					; size = 4
_szRQ$28 = -72						; size = 8
$T29 = -72						; size = 8
_dX$30 = -72						; size = 8
_ptResult$4$ = -64					; size = 4
_pIPacket$1$ = -64					; size = 4
tv1053 = -60						; size = 8
tv1032 = -60						; size = 8
_dData$ = -60						; size = 8
_szGraphName$31 = -60					; size = 8
$T32 = -60						; size = 8
$T33 = -60						; size = 8
_dX$34 = -60						; size = 8
_dX$35 = -60						; size = 8
_dXPos$36 = -60						; size = 8
$T37 = -60						; size = 8
_calData$GSCopy$1$ = -52				; size = 4
_nIndex$1$ = -52					; size = 4
$T38 = -48						; size = 16
$T39 = -32						; size = 16
__$ArrayPad$ = -16					; size = 4
__$EHRec$ = -12						; size = 12
___$ReturnUdt$ = 8					; size = 4
_calData$ = 12						; size = 4
_point$ = 16						; size = 4
?RelativeToAbsolute@CCoordinateCalculator@@QBE?AVCPoint@@ABVCCoordinateCalculatorData@@ABVCCoordinate@@@Z PROC ; CCoordinateCalculator::RelativeToAbsolute, COMDAT
; _this$ = ecx

; 163  : {

  00000	55		 push	 ebp
  00001	8b ec		 mov	 ebp, esp
  00003	6a ff		 push	 -1
  00005	68 00 00 00 00	 push	 __ehhandler$?RelativeToAbsolute@CCoordinateCalculator@@QBE?AVCPoint@@ABVCCoordinateCalculatorData@@ABVCCoordinate@@@Z
  0000a	64 a1 00 00 00
	00		 mov	 eax, DWORD PTR fs:0
  00010	50		 push	 eax
  00011	81 ec a4 00 00
	00		 sub	 esp, 164		; 000000a4H
  00017	a1 00 00 00 00	 mov	 eax, DWORD PTR ___security_cookie
  0001c	33 c5		 xor	 eax, ebp
  0001e	89 45 f0	 mov	 DWORD PTR __$ArrayPad$[ebp], eax
  00021	53		 push	 ebx
  00022	56		 push	 esi
  00023	57		 push	 edi
  00024	50		 push	 eax
  00025	8d 45 f4	 lea	 eax, DWORD PTR __$EHRec$[ebp]
  00028	64 a3 00 00 00
	00		 mov	 DWORD PTR fs:0, eax
  0002e	89 4d 88	 mov	 DWORD PTR _this$GSCopy$1$[ebp], ecx
  00031	8b 7d 0c	 mov	 edi, DWORD PTR _calData$[ebp]
; File C:\Program Files (x86)\Microsoft Visual Studio\2019\Community\VC\Tools\MSVC\14.29.30133\atlmfc\include\atltypes.h

; 400  : 	x = 0;

  00034	33 d2		 xor	 edx, edx
; File D:\git\src\IBK\IBK_DRFN\ProjSrc\SrcChartEx\ChartAddIn\ChartAnalysisToolAddIn\AnalysisTool\CoordinateCalculator.cpp

; 163  : {

  00036	8b 45 08	 mov	 eax, DWORD PTR ___$ReturnUdt$[ebp]
; File C:\Program Files (x86)\Microsoft Visual Studio\2019\Community\VC\Tools\MSVC\14.29.30133\atlmfc\include\atltypes.h

; 401  : 	y = 0;

  00039	33 f6		 xor	 esi, esi
; File D:\git\src\IBK\IBK_DRFN\ProjSrc\SrcChartEx\ChartAddIn\ChartAnalysisToolAddIn\AnalysisTool\CoordinateCalculator.cpp

; 163  : {

  0003b	8b 5d 10	 mov	 ebx, DWORD PTR _point$[ebp]
  0003e	89 45 a4	 mov	 DWORD PTR ___$ReturnUdt$GSCopy$1$[ebp], eax
  00041	89 7d cc	 mov	 DWORD PTR _calData$GSCopy$1$[ebp], edi
; File D:\git\src\IBK\IBK_DRFN\ProjSrc\SrcChartEx\ChartAddIn\ChartAnalysisToolAddIn\Include_Analysis\CoordinateCalculatorData.h

; 128  : 							{	return m_pIChartManager && m_pIChartOCX && m_pIPacketListManager && m_pIDefaultPacketManager;	}

  00044	39 57 48	 cmp	 DWORD PTR [edi+72], edx
  00047	0f 84 86 05 00
	00		 je	 $LN25@RelativeTo
  0004d	39 57 4c	 cmp	 DWORD PTR [edi+76], edx
  00050	0f 84 7d 05 00
	00		 je	 $LN25@RelativeTo
  00056	8b 4f 50	 mov	 ecx, DWORD PTR [edi+80]
  00059	85 c9		 test	 ecx, ecx
  0005b	0f 84 72 05 00
	00		 je	 $LN25@RelativeTo
  00061	39 57 54	 cmp	 DWORD PTR [edi+84], edx
  00064	0f 84 69 05 00
	00		 je	 $LN25@RelativeTo
; File D:\git\src\IBK\IBK_DRFN\ProjSrc\SrcChartEx\ChartAddIn\ChartAnalysisToolAddIn\AnalysisTool\CoordinateCalculator.cpp

; 167  : 	if( calData.m_pIPacketListManager->IsBasePacketString())

  0006a	8b 01		 mov	 eax, DWORD PTR [ecx]
  0006c	ff 50 28	 call	 DWORD PTR [eax+40]
  0006f	8b cf		 mov	 ecx, edi
  00071	85 c0		 test	 eax, eax
  00073	0f 84 65 02 00
	00		 je	 $LN3@RelativeTo

; 168  : 	{
; 169  : 		IPacket *pIPacket = calData.GetPacket_X();

  00079	e8 00 00 00 00	 call	 ?GetPacket_X@CCoordinateCalculatorData@@QBEPAUIPacket133101@@XZ ; CCoordinateCalculatorData::GetPacket_X
  0007e	8b f0		 mov	 esi, eax
  00080	89 75 c0	 mov	 DWORD PTR _pIPacket$1$[ebp], esi

; 392  : 	return (pPacket != NULL && pPacket->GetDataCount() > 0);

  00083	85 f6		 test	 esi, esi
  00085	0f 84 2c 02 00
	00		 je	 $LN41@RelativeTo
  0008b	8b 06		 mov	 eax, DWORD PTR [esi]
  0008d	8b ce		 mov	 ecx, esi
  0008f	ff 50 2c	 call	 DWORD PTR [eax+44]
  00092	85 c0		 test	 eax, eax
  00094	0f 8e 1d 02 00
	00		 jle	 $LN41@RelativeTo

; 171  : 		else
; 172  : 		{
; 173  : 			// X-scale 값(자료일자)으로 현재 Display되는 Data의 Index를 얻음
; 174  : 			// 리얼로 인해 Data는 계속 늘어남
; 175  : 			// 분차트 근접시간 적용 - ojtaso (20080811)
; 176  : 			int nIndex = GetDisplayDataCurrentIndex( pIPacket, point.GetX(), point.GetDateType());

  0009a	8d 45 a0	 lea	 eax, DWORD PTR $T17[ebp]
  0009d	8b cb		 mov	 ecx, ebx
  0009f	50		 push	 eax
  000a0	e8 00 00 00 00	 call	 ?GetDateType@CCoordinate@@QBE?AV?$CStringT@DV?$StrTraitMFC_DLL@DV?$ChTraitsCRT@D@ATL@@@@@ATL@@XZ ; CCoordinate::GetDateType
  000a5	8b cb		 mov	 ecx, ebx
  000a7	c7 45 fc 00 00
	00 00		 mov	 DWORD PTR __$EHRec$[ebp+8], 0
  000ae	e8 00 00 00 00	 call	 ?GetX@CCoordinate@@QBENXZ ; CCoordinate::GetX
  000b3	dd 5d c4	 fstp	 QWORD PTR _dData$[ebp]

; 402  : 	return pPacket->GetIndexFromData(dData, strType);

  000b6	ff 75 a0	 push	 DWORD PTR $T17[ebp]
  000b9	8b 06		 mov	 eax, DWORD PTR [esi]
  000bb	8b ce		 mov	 ecx, esi
  000bd	f2 0f 10 45 c4	 movsd	 xmm0, QWORD PTR _dData$[ebp]
  000c2	83 ec 08	 sub	 esp, 8
  000c5	c7 45 fc 01 00
	00 00		 mov	 DWORD PTR __$EHRec$[ebp+8], 1
  000cc	f2 0f 11 04 24	 movsd	 QWORD PTR [esp], xmm0
  000d1	ff 50 30	 call	 DWORD PTR [eax+48]
  000d4	8d 4d a0	 lea	 ecx, DWORD PTR $T17[ebp]
  000d7	89 45 cc	 mov	 DWORD PTR _nIndex$1$[ebp], eax
  000da	c7 45 fc ff ff
	ff ff		 mov	 DWORD PTR __$EHRec$[ebp+8], -1
  000e1	ff 15 00 00 00
	00		 call	 DWORD PTR __imp_??1?$CStringT@DV?$StrTraitMFC_DLL@DV?$ChTraitsCRT@D@ATL@@@@@ATL@@QAE@XZ

; 177  : 			// 미래영역에 있는 point의 경우 실제 Index가 현 point의 Index와 서로 다를 경우의 예외처리
; 178  : 			if(nIndex != point.GetIndex())

  000e7	8b cb		 mov	 ecx, ebx
  000e9	e8 00 00 00 00	 call	 ?GetIndex@CCoordinate@@QBEHXZ ; CCoordinate::GetIndex
  000ee	39 45 cc	 cmp	 DWORD PTR _nIndex$1$[ebp], eax
  000f1	0f 84 8f 00 00
	00		 je	 $LN16@RelativeTo

; 179  : 			{
; 180  : 				// 최초 리얼시 Y-scale 및 해당 Index 는 항상 값을 갖으나 X-scale 은 0값을 갖음 (미래영역에 대한 값이 없기 때문)
; 181  : 				// 미래영역에 있는 point의 Data Index을 가지고 X-scale 값을 얻음
; 182  : 				if(point.GetX() == 0. && point.GetIndex() > 0)

  000f7	8b cb		 mov	 ecx, ebx
  000f9	e8 00 00 00 00	 call	 ?GetX@CCoordinate@@QBENXZ ; CCoordinate::GetX
  000fe	dd 5d c4	 fstp	 QWORD PTR tv1053[ebp]
  00101	f2 0f 10 45 c4	 movsd	 xmm0, QWORD PTR tv1053[ebp]
  00106	66 0f 2e 05 00
	00 00 00	 ucomisd xmm0, QWORD PTR __real@0000000000000000
  0010e	9f		 lahf
  0010f	f6 c4 44	 test	 ah, 68			; 00000044H
  00112	0f 8a ef 00 00
	00		 jp	 $LN7@RelativeTo
  00118	8b cb		 mov	 ecx, ebx
  0011a	e8 00 00 00 00	 call	 ?GetIndex@CCoordinate@@QBEHXZ ; CCoordinate::GetIndex
  0011f	85 c0		 test	 eax, eax
  00121	0f 8e e0 00 00
	00		 jle	 $LN7@RelativeTo

; 183  : 				{
; 184  : 					double dX = 0.0;
; 185  : 					if( pIPacket) pIPacket->GetDataPastandFuture(point.GetIndex(), dX);	

  00127	8b 36		 mov	 esi, DWORD PTR [esi]
  00129	8d 45 b8	 lea	 eax, DWORD PTR _dX$30[ebp]
  0012c	0f 57 c0	 xorps	 xmm0, xmm0
  0012f	8b cb		 mov	 ecx, ebx
  00131	50		 push	 eax
  00132	f2 0f 11 45 b8	 movsd	 QWORD PTR _dX$30[ebp], xmm0
  00137	e8 00 00 00 00	 call	 ?GetIndex@CCoordinate@@QBEHXZ ; CCoordinate::GetIndex
  0013c	8b 4d c0	 mov	 ecx, DWORD PTR _pIPacket$1$[ebp]
  0013f	50		 push	 eax
  00140	ff 56 44	 call	 DWORD PTR [esi+68]

; 186  : 
; 187  : 					nIndex = point.GetIndex();

  00143	8b cb		 mov	 ecx, ebx
  00145	e8 00 00 00 00	 call	 ?GetIndex@CCoordinate@@QBEHXZ ; CCoordinate::GetIndex
  0014a	8b f0		 mov	 esi, eax

; 188  : 					double dXPos = point.GetX();

  0014c	8b cb		 mov	 ecx, ebx
  0014e	89 75 cc	 mov	 DWORD PTR _nIndex$1$[ebp], esi
  00151	e8 00 00 00 00	 call	 ?GetX@CCoordinate@@QBENXZ ; CCoordinate::GetX
  00156	dd 5d c4	 fstp	 QWORD PTR _dXPos$36[ebp]

; 189  : 					if(dXPos == 0. || dXPos != dX)

  00159	f2 0f 10 45 c4	 movsd	 xmm0, QWORD PTR _dXPos$36[ebp]
  0015e	66 0f 2e 05 00
	00 00 00	 ucomisd xmm0, QWORD PTR __real@0000000000000000
  00166	9f		 lahf
  00167	f6 c4 44	 test	 ah, 68			; 00000044H
  0016a	7b 0b		 jnp	 SHORT $LN11@RelativeTo
  0016c	66 0f 2e 45 b8	 ucomisd xmm0, QWORD PTR _dX$30[ebp]
  00171	9f		 lahf
  00172	f6 c4 44	 test	 ah, 68			; 00000044H
  00175	7b 0c		 jnp	 SHORT $LN93@RelativeTo
$LN11@RelativeTo:

; 190  : 					{
; 191  : 						// const로 셋팅되어 있어서 type casting하여 Data를 실시간으로 변동시킴
; 192  : 						(const_cast<CCoordinate&>(point)).SetX(dX, nIndex);

  00177	56		 push	 esi
  00178	8d 45 b8	 lea	 eax, DWORD PTR _dX$30[ebp]
  0017b	8b cb		 mov	 ecx, ebx
  0017d	50		 push	 eax
  0017e	e8 00 00 00 00	 call	 ?SetX@CCoordinate@@QAEXABNH@Z ; CCoordinate::SetX
$LN93@RelativeTo:

; 218  : 				}
; 219  : 			}
; 220  : 			// 저장된 툴의 포지션이 미래영역에 있는 경우
; 221  : 			//2008.07.24 by LYH >> Index 0은 미래영역 아님. 0번째 인덱스에서 추세선등 그리기 오류 수정
; 222  : 			/*
; 223  : 			else if(nIndex == 0 && point.GetIndex() == 0)
; 224  : 			{
; 225  : 				double dX = 0.0;
; 226  : 				if( pIPacket)
; 227  : 				{
; 228  : 					nIndex = pIPacket->GetDataCount() - 1;
; 229  : 					pIPacket->GetDataPastandFuture(nIndex, dX);
; 230  : 
; 231  : 					(const_cast<CCoordinate&>(point)).SetX(dX, nIndex);
; 232  : 				}
; 233  : 			}
; 234  : 			*/
; 235  : 			//2008.07.24 by LYH <<
; 236  : 
; 237  : 			ptResult = CDataConversion::RelativeToAbsolute(calData.GetRegion(), 

  00183	8b 75 c0	 mov	 esi, DWORD PTR _pIPacket$1$[ebp]
$LN16@RelativeTo:
  00186	8b cb		 mov	 ecx, ebx
  00188	e8 00 00 00 00	 call	 ?GetY@CCoordinate@@QBENXZ ; CCoordinate::GetY
  0018d	8b 4d 88	 mov	 ecx, DWORD PTR _this$GSCopy$1$[ebp]
  00190	8d 55 c4	 lea	 edx, DWORD PTR $T33[ebp]
  00193	8b 5d cc	 mov	 ebx, DWORD PTR _nIndex$1$[ebp]
  00196	53		 push	 ebx
  00197	52		 push	 edx
  00198	8b 01		 mov	 eax, DWORD PTR [ecx]
  0019a	dd 5d c4	 fstp	 QWORD PTR $T33[ebp]
  0019d	57		 push	 edi
  0019e	8b 40 04	 mov	 eax, DWORD PTR [eax+4]
  001a1	ff d0		 call	 eax
  001a3	dd 5d 8c	 fstp	 QWORD PTR $T13[ebp]
  001a6	8b cf		 mov	 ecx, edi
  001a8	e8 00 00 00 00	 call	 ?GetDisplayDataMax_ScaleType@CCoordinateCalculatorData@@QBENXZ ; CCoordinateCalculatorData::GetDisplayDataMax_ScaleType
  001ad	dd 5d b8	 fstp	 QWORD PTR $T29[ebp]
  001b0	8b cf		 mov	 ecx, edi
  001b2	e8 00 00 00 00	 call	 ?GetDisplayDataMin_ScaleType@CCoordinateCalculatorData@@QBENXZ ; CCoordinateCalculatorData::GetDisplayDataMin_ScaleType
  001b7	8d 45 8c	 lea	 eax, DWORD PTR $T13[ebp]
  001ba	8b cf		 mov	 ecx, edi
  001bc	50		 push	 eax
  001bd	53		 push	 ebx
  001be	8d 45 b8	 lea	 eax, DWORD PTR $T29[ebp]
  001c1	50		 push	 eax
  001c2	8d 45 b0	 lea	 eax, DWORD PTR $T27[ebp]
  001c5	50		 push	 eax
  001c6	dd 5d b0	 fstp	 QWORD PTR $T27[ebp]
  001c9	e8 00 00 00 00	 call	 ?GetDisplayDataEnd@CCoordinateCalculatorData@@QBEHXZ ; CCoordinateCalculatorData::GetDisplayDataEnd
  001ce	50		 push	 eax
  001cf	8b cf		 mov	 ecx, edi
  001d1	e8 00 00 00 00	 call	 ?GetDisplayDataStart@CCoordinateCalculatorData@@QBEHXZ ; CCoordinateCalculatorData::GetDisplayDataStart
  001d6	50		 push	 eax
  001d7	8d 45 e0	 lea	 eax, DWORD PTR $T39[ebp]
  001da	8b cf		 mov	 ecx, edi
  001dc	50		 push	 eax
  001dd	e8 00 00 00 00	 call	 ?GetRegion@CCoordinateCalculatorData@@QBE?AVCRect@@XZ ; CCoordinateCalculatorData::GetRegion
  001e2	50		 push	 eax
  001e3	8d 45 9c	 lea	 eax, DWORD PTR $T16[ebp]
  001e6	50		 push	 eax
  001e7	e8 00 00 00 00	 call	 ?RelativeToAbsolute@CDataConversion@@SA?AVCPoint@@ABVCRect@@HHABN1H1@Z ; CDataConversion::RelativeToAbsolute

; 238  : 					calData.GetDisplayDataStart(), calData.GetDisplayDataEnd(), 
; 239  : 					calData.GetDisplayDataMin_ScaleType(), calData.GetDisplayDataMax_ScaleType(), 
; 240  : 					nIndex,	GetData_Y(calData, point.GetY(), nIndex));
; 241  : 		}
; 242  : 		if( pIPacket) pIPacket->Release();

  001ec	8b 0e		 mov	 ecx, DWORD PTR [esi]
  001ee	83 c4 20	 add	 esp, 32			; 00000020H
  001f1	8b 38		 mov	 edi, DWORD PTR [eax]
  001f3	8b 58 04	 mov	 ebx, DWORD PTR [eax+4]
  001f6	56		 push	 esi
  001f7	ff 51 08	 call	 DWORD PTR [ecx+8]

; 243  : 		return ptResult;

  001fa	8b 45 a4	 mov	 eax, DWORD PTR ___$ReturnUdt$GSCopy$1$[ebp]
  001fd	89 38		 mov	 DWORD PTR [eax], edi
  001ff	89 58 04	 mov	 DWORD PTR [eax+4], ebx
  00202	e9 d1 03 00 00	 jmp	 $LN1@RelativeTo
$LN7@RelativeTo:

; 193  : 					}
; 194  : 				}
; 195  : 				// 환경설정에서 날짜 변경시 0, 1, 2값으로 셋팅되는 Index를 다시 보정
; 196  : 				else if(point.GetX() > 0. && (point.GetIndex() == 0 || point.GetIndex() == 1 || point.GetIndex() == 2))

  00207	8b cb		 mov	 ecx, ebx
  00209	e8 00 00 00 00	 call	 ?GetX@CCoordinate@@QBENXZ ; CCoordinate::GetX
  0020e	dd 5d c4	 fstp	 QWORD PTR tv1032[ebp]
  00211	f2 0f 10 45 c4	 movsd	 xmm0, QWORD PTR tv1032[ebp]
  00216	66 0f 2f 05 00
	00 00 00	 comisd	 xmm0, QWORD PTR __real@0000000000000000
  0021e	76 32		 jbe	 SHORT $LN12@RelativeTo
  00220	8b cb		 mov	 ecx, ebx
  00222	e8 00 00 00 00	 call	 ?GetIndex@CCoordinate@@QBEHXZ ; CCoordinate::GetIndex
  00227	85 c0		 test	 eax, eax
  00229	74 18		 je	 SHORT $LN14@RelativeTo
  0022b	8b cb		 mov	 ecx, ebx
  0022d	e8 00 00 00 00	 call	 ?GetIndex@CCoordinate@@QBEHXZ ; CCoordinate::GetIndex
  00232	83 f8 01	 cmp	 eax, 1
  00235	74 0c		 je	 SHORT $LN14@RelativeTo
  00237	8b cb		 mov	 ecx, ebx
  00239	e8 00 00 00 00	 call	 ?GetIndex@CCoordinate@@QBEHXZ ; CCoordinate::GetIndex
  0023e	83 f8 02	 cmp	 eax, 2
  00241	75 0f		 jne	 SHORT $LN12@RelativeTo
$LN14@RelativeTo:

; 197  : 				{
; 198  : 					(const_cast<CCoordinate&>(point)).SetIndex(nIndex);

  00243	ff 75 cc	 push	 DWORD PTR _nIndex$1$[ebp]
  00246	8b cb		 mov	 ecx, ebx
  00248	e8 00 00 00 00	 call	 ?SetIndex@CCoordinate@@QAEXH@Z ; CCoordinate::SetIndex

; 199  : 				}

  0024d	e9 34 ff ff ff	 jmp	 $LN16@RelativeTo
$LN12@RelativeTo:

; 200  : 				// 데이터추가부르기 Button을 이용한 데이터갯수 변경시에 따른
; 201  : 				// X-Scale 값 및 데이터 인덱스 보정
; 202  : 				else if(nIndex > point.GetIndex() + 1)

  00252	8b cb		 mov	 ecx, ebx
  00254	e8 00 00 00 00	 call	 ?GetIndex@CCoordinate@@QBEHXZ ; CCoordinate::GetIndex
  00259	8b 16		 mov	 edx, DWORD PTR [esi]
  0025b	40		 inc	 eax
  0025c	8b 4d cc	 mov	 ecx, DWORD PTR _nIndex$1$[ebp]
  0025f	83 c2 44	 add	 edx, 68			; 00000044H
  00262	3b c8		 cmp	 ecx, eax
  00264	89 55 b4	 mov	 DWORD PTR tv865[ebp], edx
  00267	0f 57 c0	 xorps	 xmm0, xmm0
  0026a	8d 45 c4	 lea	 eax, DWORD PTR _dX$35[ebp]
  0026d	f2 0f 11 45 c4	 movsd	 QWORD PTR _dX$35[ebp], xmm0
  00272	50		 push	 eax
  00273	7e 18		 jle	 SHORT $LN15@RelativeTo

; 203  : 				{
; 204  : 					double dX = 0.0;
; 205  : 					if( pIPacket) pIPacket->GetDataPastandFuture(nIndex, dX);	

  00275	51		 push	 ecx
  00276	8b ce		 mov	 ecx, esi
  00278	ff 12		 call	 DWORD PTR [edx]

; 206  : 
; 207  : 					(const_cast<CCoordinate&>(point)).SetX(dX, nIndex);

  0027a	ff 75 cc	 push	 DWORD PTR _nIndex$1$[ebp]
  0027d	8d 45 c4	 lea	 eax, DWORD PTR _dX$35[ebp]
  00280	8b cb		 mov	 ecx, ebx
  00282	50		 push	 eax
  00283	e8 00 00 00 00	 call	 ?SetX@CCoordinate@@QAEXABNH@Z ; CCoordinate::SetX

; 208  : 				}

  00288	e9 f9 fe ff ff	 jmp	 $LN16@RelativeTo
$LN15@RelativeTo:

; 209  : 				// 현재 진행중인 봉 위에 추세선이 놓여 있는 경우 시간 경과에 따른 
; 210  : 				// X-Scale 값 및 데이터 인덱스 보정
; 211  : 				else
; 212  : 				{
; 213  : 					double dX = 0.0;
; 214  : 					if( pIPacket) pIPacket->GetDataPastandFuture(point.GetIndex(), dX);	

  0028d	8b cb		 mov	 ecx, ebx
  0028f	e8 00 00 00 00	 call	 ?GetIndex@CCoordinate@@QBEHXZ ; CCoordinate::GetIndex
  00294	50		 push	 eax
  00295	8b 45 b4	 mov	 eax, DWORD PTR tv865[ebp]
  00298	8b ce		 mov	 ecx, esi
  0029a	ff 10		 call	 DWORD PTR [eax]

; 215  : 
; 216  : 					nIndex = point.GetIndex();

  0029c	8b cb		 mov	 ecx, ebx
  0029e	e8 00 00 00 00	 call	 ?GetIndex@CCoordinate@@QBEHXZ ; CCoordinate::GetIndex

; 217  : 					(const_cast<CCoordinate&>(point)).SetX(dX, nIndex);

  002a3	50		 push	 eax
  002a4	89 45 cc	 mov	 DWORD PTR _nIndex$1$[ebp], eax
  002a7	8b cb		 mov	 ecx, ebx
  002a9	8d 45 c4	 lea	 eax, DWORD PTR _dX$34[ebp]
  002ac	50		 push	 eax
  002ad	e8 00 00 00 00	 call	 ?SetX@CCoordinate@@QAEXABNH@Z ; CCoordinate::SetX
  002b2	e9 cf fe ff ff	 jmp	 $LN16@RelativeTo
$LN41@RelativeTo:

; 170  : 		if( !IsCalculator( pIPacket)) ptResult = point.GetPixel();

  002b7	8d 45 c4	 lea	 eax, DWORD PTR $T37[ebp]
  002ba	8b cb		 mov	 ecx, ebx
  002bc	50		 push	 eax
  002bd	e8 00 00 00 00	 call	 ?GetPixel@CCoordinate@@QBE?AVCPoint@@XZ ; CCoordinate::GetPixel
  002c2	8b 38		 mov	 edi, DWORD PTR [eax]
  002c4	8b 58 04	 mov	 ebx, DWORD PTR [eax+4]

; 238  : 					calData.GetDisplayDataStart(), calData.GetDisplayDataEnd(), 
; 239  : 					calData.GetDisplayDataMin_ScaleType(), calData.GetDisplayDataMax_ScaleType(), 
; 240  : 					nIndex,	GetData_Y(calData, point.GetY(), nIndex));
; 241  : 		}
; 242  : 		if( pIPacket) pIPacket->Release();

  002c7	85 f6		 test	 esi, esi
  002c9	74 06		 je	 SHORT $LN19@RelativeTo
  002cb	8b 0e		 mov	 ecx, DWORD PTR [esi]
  002cd	56		 push	 esi
  002ce	ff 51 08	 call	 DWORD PTR [ecx+8]
$LN19@RelativeTo:

; 243  : 		return ptResult;

  002d1	8b 45 a4	 mov	 eax, DWORD PTR ___$ReturnUdt$GSCopy$1$[ebp]
  002d4	89 38		 mov	 DWORD PTR [eax], edi
  002d6	89 58 04	 mov	 DWORD PTR [eax+4], ebx
  002d9	e9 fa 02 00 00	 jmp	 $LN1@RelativeTo
$LN3@RelativeTo:

; 244  : 	}
; 245  : 	
; 246  : 	// XScale : 관련 Interface로 사용 - vntsorl(20070410)
; 247  : 	IPacket *pIPacket = calData.GetPacket_X();

  002de	e8 00 00 00 00	 call	 ?GetPacket_X@CCoordinateCalculatorData@@QBEPAUIPacket133101@@XZ ; CCoordinateCalculatorData::GetPacket_X
  002e3	8b f0		 mov	 esi, eax
  002e5	89 75 a0	 mov	 DWORD PTR _pIPacket$1$[ebp], esi

; 392  : 	return (pPacket != NULL && pPacket->GetDataCount() > 0);

  002e8	85 f6		 test	 esi, esi
  002ea	0f 84 ba 02 00
	00		 je	 $LN51@RelativeTo
  002f0	8b 16		 mov	 edx, DWORD PTR [esi]
  002f2	8b ce		 mov	 ecx, esi
  002f4	ff 52 2c	 call	 DWORD PTR [edx+44]
  002f7	85 c0		 test	 eax, eax
  002f9	0f 8e ab 02 00
	00		 jle	 $LN51@RelativeTo

; 254  : 		ILPCSTR szRQ = calData.m_pIChartOCX->GetCurrentRQ();

  002ff	8b 4f 4c	 mov	 ecx, DWORD PTR [edi+76]
  00302	8b 01		 mov	 eax, DWORD PTR [ecx]
  00304	ff 90 40 02 00
	00		 call	 DWORD PTR [eax+576]
; File D:\git\src\IBK\IBK_DRFN\ProjSrc\SrcChartEx\ChartAddIn\ChartAnalysisToolAddIn\Include_AddIn_133101\I133101\_IString.h

; 39   : 		m_pIStrData = p_pIString;	// Do not AddRef(). Because It must be Return Value.

  0030a	8b f0		 mov	 esi, eax
  0030c	89 75 bc	 mov	 DWORD PTR _szRQ$28[ebp+4], esi

; 40   : 		if( m_pIStrData) m_szData = m_pIStrData->GetData();

  0030f	85 f6		 test	 esi, esi
  00311	74 0b		 je	 SHORT $LN54@RelativeTo
  00313	8b 16		 mov	 edx, DWORD PTR [esi]
  00315	8b ce		 mov	 ecx, esi
  00317	ff 52 10	 call	 DWORD PTR [edx+16]
  0031a	8b f0		 mov	 esi, eax
  0031c	eb 02		 jmp	 SHORT $LN96@RelativeTo
$LN54@RelativeTo:

; 41   : 		else m_szData = NULL;

  0031e	33 f6		 xor	 esi, esi
$LN96@RelativeTo:
; File D:\git\src\IBK\IBK_DRFN\ProjSrc\SrcChartEx\ChartAddIn\ChartAnalysisToolAddIn\AnalysisTool\CoordinateCalculator.cpp

; 254  : 		ILPCSTR szRQ = calData.m_pIChartOCX->GetCurrentRQ();

  00320	89 75 b8	 mov	 DWORD PTR _szRQ$28[ebp], esi

; 255  : 		int nR = calData.GetBlockIndex().GetRow();

  00323	8d 45 a8	 lea	 eax, DWORD PTR $T25[ebp]
  00326	c7 45 fc 02 00
	00 00		 mov	 DWORD PTR __$EHRec$[ebp+8], 2
  0032d	50		 push	 eax
  0032e	8b cf		 mov	 ecx, edi
  00330	e8 00 00 00 00	 call	 ?GetBlockIndex@CCoordinateCalculatorData@@QBE?AVCBlockIndex@@XZ ; CCoordinateCalculatorData::GetBlockIndex

; 256  : 		int nC = calData.GetBlockIndex().GetColumn();

  00335	8b cf		 mov	 ecx, edi
  00337	8b 00		 mov	 eax, DWORD PTR [eax]
  00339	89 45 98	 mov	 DWORD PTR _nR$15[ebp], eax
  0033c	8d 45 a8	 lea	 eax, DWORD PTR $T24[ebp]
  0033f	50		 push	 eax
  00340	e8 00 00 00 00	 call	 ?GetBlockIndex@CCoordinateCalculatorData@@QBE?AVCBlockIndex@@XZ ; CCoordinateCalculatorData::GetBlockIndex

; 258  : 		ILPCSTR szGraphName = calData.m_pIChartManager->FindNextIndicator( NULL, nR, nC, nV, nG, szRQ);

  00345	8b 4f 48	 mov	 ecx, DWORD PTR [edi+72]
  00348	8d 55 80	 lea	 edx, DWORD PTR _nG$11[ebp]
  0034b	56		 push	 esi
  0034c	52		 push	 edx
  0034d	8b 40 04	 mov	 eax, DWORD PTR [eax+4]
  00350	8d 95 7c ff ff
	ff		 lea	 edx, DWORD PTR _nV$10[ebp]
  00356	52		 push	 edx
  00357	8d 55 94	 lea	 edx, DWORD PTR _nC$14[ebp]
  0035a	89 45 94	 mov	 DWORD PTR _nC$14[ebp], eax
  0035d	52		 push	 edx
  0035e	c7 85 7c ff ff
	ff 00 00 00 00	 mov	 DWORD PTR _nV$10[ebp], 0
  00368	8d 55 98	 lea	 edx, DWORD PTR _nR$15[ebp]
  0036b	c7 45 80 ff ff
	ff ff		 mov	 DWORD PTR _nG$11[ebp], -1
  00372	8b 01		 mov	 eax, DWORD PTR [ecx]
  00374	52		 push	 edx
  00375	6a 00		 push	 0
  00377	ff 50 74	 call	 DWORD PTR [eax+116]
; File D:\git\src\IBK\IBK_DRFN\ProjSrc\SrcChartEx\ChartAddIn\ChartAnalysisToolAddIn\Include_AddIn_133101\I133101\_IString.h

; 39   : 		m_pIStrData = p_pIString;	// Do not AddRef(). Because It must be Return Value.

  0037a	89 45 c8	 mov	 DWORD PTR _szGraphName$31[ebp+4], eax

; 40   : 		if( m_pIStrData) m_szData = m_pIStrData->GetData();

  0037d	85 c0		 test	 eax, eax
  0037f	74 09		 je	 SHORT $LN58@RelativeTo
  00381	8b 10		 mov	 edx, DWORD PTR [eax]
  00383	8b c8		 mov	 ecx, eax
  00385	ff 52 10	 call	 DWORD PTR [edx+16]
  00388	eb 02		 jmp	 SHORT $LN97@RelativeTo
$LN58@RelativeTo:

; 41   : 		else m_szData = NULL;

  0038a	33 c0		 xor	 eax, eax
$LN97@RelativeTo:
; File D:\git\src\IBK\IBK_DRFN\ProjSrc\SrcChartEx\ChartAddIn\ChartAnalysisToolAddIn\AnalysisTool\CoordinateCalculator.cpp

; 258  : 		ILPCSTR szGraphName = calData.m_pIChartManager->FindNextIndicator( NULL, nR, nC, nV, nG, szRQ);

  0038c	89 45 c4	 mov	 DWORD PTR _szGraphName$31[ebp], eax
  0038f	c6 45 fc 03	 mov	 BYTE PTR __$EHRec$[ebp+8], 3
; File D:\git\src\IBK\IBK_DRFN\ProjSrc\SrcChartEx\ChartAddIn\ChartAnalysisToolAddIn\Include_AddIn_133101\I133101\_IString.h

; 57   : 		if( !m_szData) return TRUE;

  00393	85 f6		 test	 esi, esi
  00395	74 33		 je	 SHORT $LN24@RelativeTo
; File D:\git\src\IBK\IBK_DRFN\ProjSrc\SrcChartEx\ChartAddIn\ChartAnalysisToolAddIn\AnalysisTool\CoordinateCalculator.cpp

; 260  : 			|| !( nR == calData.GetBlockIndex().GetRow() && nC == calData.GetBlockIndex().GetColumn()))

  00397	80 3e 00	 cmp	 BYTE PTR [esi], 0
  0039a	74 2e		 je	 SHORT $LN24@RelativeTo
; File D:\git\src\IBK\IBK_DRFN\ProjSrc\SrcChartEx\ChartAddIn\ChartAnalysisToolAddIn\Include_AddIn_133101\I133101\_IString.h

; 57   : 		if( !m_szData) return TRUE;

  0039c	85 c0		 test	 eax, eax
  0039e	74 2a		 je	 SHORT $LN24@RelativeTo
; File D:\git\src\IBK\IBK_DRFN\ProjSrc\SrcChartEx\ChartAddIn\ChartAnalysisToolAddIn\AnalysisTool\CoordinateCalculator.cpp

; 260  : 			|| !( nR == calData.GetBlockIndex().GetRow() && nC == calData.GetBlockIndex().GetColumn()))

  003a0	80 38 00	 cmp	 BYTE PTR [eax], 0
  003a3	74 25		 je	 SHORT $LN24@RelativeTo
  003a5	8d 45 a8	 lea	 eax, DWORD PTR $T23[ebp]
  003a8	8b cf		 mov	 ecx, edi
  003aa	50		 push	 eax
  003ab	e8 00 00 00 00	 call	 ?GetBlockIndex@CCoordinateCalculatorData@@QBE?AVCBlockIndex@@XZ ; CCoordinateCalculatorData::GetBlockIndex
  003b0	8b 4d 98	 mov	 ecx, DWORD PTR _nR$15[ebp]
  003b3	3b 08		 cmp	 ecx, DWORD PTR [eax]
  003b5	75 13		 jne	 SHORT $LN24@RelativeTo
  003b7	8d 45 a8	 lea	 eax, DWORD PTR $T22[ebp]
  003ba	8b cf		 mov	 ecx, edi
  003bc	50		 push	 eax
  003bd	e8 00 00 00 00	 call	 ?GetBlockIndex@CCoordinateCalculatorData@@QBE?AVCBlockIndex@@XZ ; CCoordinateCalculatorData::GetBlockIndex
  003c2	8b 4d 94	 mov	 ecx, DWORD PTR _nC$14[ebp]
  003c5	3b 48 04	 cmp	 ecx, DWORD PTR [eax+4]
  003c8	74 5e		 je	 SHORT $LN70@RelativeTo
$LN24@RelativeTo:

; 261  : 			szRQ = calData.m_pIChartManager->GetMainRQofBlock( calData.GetBlockIndex().GetRow(), calData.GetBlockIndex().GetColumn());

  003ca	8b 47 48	 mov	 eax, DWORD PTR [edi+72]
  003cd	8b 4d cc	 mov	 ecx, DWORD PTR _calData$GSCopy$1$[ebp]
  003d0	8b 38		 mov	 edi, DWORD PTR [eax]
  003d2	8d 45 a8	 lea	 eax, DWORD PTR $T21[ebp]
  003d5	50		 push	 eax
  003d6	e8 00 00 00 00	 call	 ?GetBlockIndex@CCoordinateCalculatorData@@QBE?AVCBlockIndex@@XZ ; CCoordinateCalculatorData::GetBlockIndex
  003db	8b 4d cc	 mov	 ecx, DWORD PTR _calData$GSCopy$1$[ebp]
  003de	8b 70 04	 mov	 esi, DWORD PTR [eax+4]
  003e1	8d 85 6c ff ff
	ff		 lea	 eax, DWORD PTR $T7[ebp]
  003e7	50		 push	 eax
  003e8	e8 00 00 00 00	 call	 ?GetBlockIndex@CCoordinateCalculatorData@@QBE?AVCBlockIndex@@XZ ; CCoordinateCalculatorData::GetBlockIndex
  003ed	56		 push	 esi
  003ee	ff 30		 push	 DWORD PTR [eax]
  003f0	8b 45 cc	 mov	 eax, DWORD PTR _calData$GSCopy$1$[ebp]
  003f3	8b 48 48	 mov	 ecx, DWORD PTR [eax+72]
  003f6	ff 97 30 01 00
	00		 call	 DWORD PTR [edi+304]
; File D:\git\src\IBK\IBK_DRFN\ProjSrc\SrcChartEx\ChartAddIn\ChartAnalysisToolAddIn\Include_AddIn_133101\I133101\_IString.h

; 67   : 		if( m_pIStrData) m_pIStrData->Release();

  003fc	8b 55 bc	 mov	 edx, DWORD PTR _szRQ$28[ebp+4]
; File D:\git\src\IBK\IBK_DRFN\ProjSrc\SrcChartEx\ChartAddIn\ChartAnalysisToolAddIn\AnalysisTool\CoordinateCalculator.cpp

; 261  : 			szRQ = calData.m_pIChartManager->GetMainRQofBlock( calData.GetBlockIndex().GetRow(), calData.GetBlockIndex().GetColumn());

  003ff	8b f0		 mov	 esi, eax
; File D:\git\src\IBK\IBK_DRFN\ProjSrc\SrcChartEx\ChartAddIn\ChartAnalysisToolAddIn\Include_AddIn_133101\I133101\_IString.h

; 67   : 		if( m_pIStrData) m_pIStrData->Release();

  00401	85 d2		 test	 edx, edx
  00403	74 06		 je	 SHORT $LN68@RelativeTo
  00405	8b 0a		 mov	 ecx, DWORD PTR [edx]
  00407	52		 push	 edx
  00408	ff 51 08	 call	 DWORD PTR [ecx+8]
$LN68@RelativeTo:

; 68   : 		m_pIStrData = stringSrc;	// Do not AddRef(). Because It must be Return Value.

  0040b	89 75 bc	 mov	 DWORD PTR _szRQ$28[ebp+4], esi
  0040e	85 f6		 test	 esi, esi

; 69   : 		if( m_pIStrData) m_szData = m_pIStrData->GetData();

  00410	74 0c		 je	 SHORT $LN69@RelativeTo
  00412	8b 06		 mov	 eax, DWORD PTR [esi]
  00414	8b ce		 mov	 ecx, esi
  00416	ff 50 10	 call	 DWORD PTR [eax+16]
  00419	89 45 b8	 mov	 DWORD PTR _szRQ$28[ebp], eax
  0041c	eb 07		 jmp	 SHORT $LN98@RelativeTo
$LN69@RelativeTo:

; 70   : 		else m_szData = NULL;

  0041e	c7 45 b8 00 00
	00 00		 mov	 DWORD PTR _szRQ$28[ebp], 0
$LN98@RelativeTo:
; File D:\git\src\IBK\IBK_DRFN\ProjSrc\SrcChartEx\ChartAddIn\ChartAnalysisToolAddIn\AnalysisTool\CoordinateCalculator.cpp

; 264  : 		dX = point.GetX();

  00425	8b 7d cc	 mov	 edi, DWORD PTR _calData$GSCopy$1$[ebp]
$LN70@RelativeTo:
  00428	8b cb		 mov	 ecx, ebx
  0042a	e8 00 00 00 00	 call	 ?GetX@CCoordinate@@QBENXZ ; CCoordinate::GetX

; 265  : 		
; 266  : 		// 2011.01.20 by SYS >> 분차트 YYYY(년) 추가 : 날짜/시간 14Byte형태 변경 (YYYYMMDDhhmmss)
; 267  : 		//int nXPos = calData.m_pIChartManager->GetXFromDouble(calData.GetBlockIndex().GetRow(), calData.GetBlockIndex().GetColumn(), dX, nCenter_x);
; 268  : 
; 269  : 		CString strAnalType = point.GetDateType();

  0042f	8d 85 74 ff ff
	ff		 lea	 eax, DWORD PTR _strAnalType$8[ebp]
  00435	8b cb		 mov	 ecx, ebx
  00437	50		 push	 eax
  00438	dd 5d b0	 fstp	 QWORD PTR _dX$26[ebp]
  0043b	e8 00 00 00 00	 call	 ?GetDateType@CCoordinate@@QBE?AV?$CStringT@DV?$StrTraitMFC_DLL@DV?$ChTraitsCRT@D@ATL@@@@@ATL@@XZ ; CCoordinate::GetDateType

; 270  : 		ILPCSTR szPacketType = pIPacket->GetType();

  00440	8b 4d a0	 mov	 ecx, DWORD PTR _pIPacket$1$[ebp]
  00443	6a 01		 push	 1
  00445	c6 45 fc 04	 mov	 BYTE PTR __$EHRec$[ebp+8], 4
  00449	8b 01		 mov	 eax, DWORD PTR [ecx]
  0044b	ff 50 1c	 call	 DWORD PTR [eax+28]
; File D:\git\src\IBK\IBK_DRFN\ProjSrc\SrcChartEx\ChartAddIn\ChartAnalysisToolAddIn\Include_AddIn_133101\I133101\_IString.h

; 39   : 		m_pIStrData = p_pIString;	// Do not AddRef(). Because It must be Return Value.

  0044e	89 45 90	 mov	 DWORD PTR _szPacketType$12[ebp+4], eax

; 40   : 		if( m_pIStrData) m_szData = m_pIStrData->GetData();

  00451	85 c0		 test	 eax, eax
  00453	74 09		 je	 SHORT $LN73@RelativeTo
  00455	8b 10		 mov	 edx, DWORD PTR [eax]
  00457	8b c8		 mov	 ecx, eax
  00459	ff 52 10	 call	 DWORD PTR [edx+16]
  0045c	eb 02		 jmp	 SHORT $LN99@RelativeTo
$LN73@RelativeTo:

; 41   : 		else m_szData = NULL;

  0045e	33 c0		 xor	 eax, eax
$LN99@RelativeTo:
; File D:\git\src\IBK\IBK_DRFN\ProjSrc\SrcChartEx\ChartAddIn\ChartAnalysisToolAddIn\AnalysisTool\CoordinateCalculator.cpp

; 270  : 		ILPCSTR szPacketType = pIPacket->GetType();

  00460	89 45 8c	 mov	 DWORD PTR _szPacketType$12[ebp], eax

; 271  : 		CString strPacketType( szPacketType);

  00463	50		 push	 eax
  00464	8d 8d 78 ff ff
	ff		 lea	 ecx, DWORD PTR _strPacketType$9[ebp]
  0046a	c6 45 fc 05	 mov	 BYTE PTR __$EHRec$[ebp+8], 5
  0046e	ff 15 00 00 00
	00		 call	 DWORD PTR __imp_??0?$CStringT@DV?$StrTraitMFC_DLL@DV?$ChTraitsCRT@D@ATL@@@@@ATL@@QAE@PBD@Z

; 272  : 
; 273  : 		int nBlockRow = calData.GetBlockIndex().GetRow();

  00474	8d 45 a8	 lea	 eax, DWORD PTR $T20[ebp]
  00477	c6 45 fc 06	 mov	 BYTE PTR __$EHRec$[ebp+8], 6
  0047b	50		 push	 eax
  0047c	8b cf		 mov	 ecx, edi
  0047e	e8 00 00 00 00	 call	 ?GetBlockIndex@CCoordinateCalculatorData@@QBE?AVCBlockIndex@@XZ ; CCoordinateCalculatorData::GetBlockIndex

; 274  : 		int nBlockCol = calData.GetBlockIndex().GetColumn();

  00483	8b cf		 mov	 ecx, edi
  00485	8b 30		 mov	 esi, DWORD PTR [eax]
  00487	8d 45 a8	 lea	 eax, DWORD PTR $T19[ebp]
  0048a	50		 push	 eax
  0048b	e8 00 00 00 00	 call	 ?GetBlockIndex@CCoordinateCalculatorData@@QBE?AVCBlockIndex@@XZ ; CCoordinateCalculatorData::GetBlockIndex

; 275  : 		int nXPos = calData.m_pIChartManager->GetXFromDouble(nBlockRow, nBlockCol, dX, nCenter_x);

  00490	8b 4f 48	 mov	 ecx, DWORD PTR [edi+72]
  00493	8d bd 68 ff ff
	ff		 lea	 edi, DWORD PTR _nCenter_x$5[ebp]
  00499	f2 0f 10 45 b0	 movsd	 xmm0, QWORD PTR _dX$26[ebp]
  0049e	57		 push	 edi
  0049f	8b 40 04	 mov	 eax, DWORD PTR [eax+4]
  004a2	83 ec 08	 sub	 esp, 8
  004a5	8b 11		 mov	 edx, DWORD PTR [ecx]
  004a7	f2 0f 11 04 24	 movsd	 QWORD PTR [esp], xmm0
  004ac	50		 push	 eax
  004ad	56		 push	 esi
  004ae	ff 92 14 01 00
	00		 call	 DWORD PTR [edx+276]

; 276  : 		// 2011.01.20 by SYS <<
; 277  : 
; 278  : 		int nIndex = calData.m_pIChartManager->FindViewDataIndex_Pt( szRQ, nXPos);

  004b4	8b 7d cc	 mov	 edi, DWORD PTR _calData$GSCopy$1$[ebp]
  004b7	6a 00		 push	 0
  004b9	6a 00		 push	 0
  004bb	50		 push	 eax
  004bc	8b 4f 48	 mov	 ecx, DWORD PTR [edi+72]
  004bf	ff 75 b8	 push	 DWORD PTR _szRQ$28[ebp]
  004c2	89 45 b4	 mov	 DWORD PTR _ptResult$2$[ebp], eax
  004c5	8b 11		 mov	 edx, DWORD PTR [ecx]
  004c7	ff 92 04 01 00
	00		 call	 DWORD PTR [edx+260]

; 279  : //<< 호가차트시 분석도구 종가따라가기 버그 수정 - vntsorl(20090202)
; 280  : 		ptResult = CDataConversion::RelativeToAbsolute(calData.GetRegion(), 

  004cd	8b cb		 mov	 ecx, ebx
  004cf	8b f0		 mov	 esi, eax
  004d1	e8 00 00 00 00	 call	 ?GetY@CCoordinate@@QBENXZ ; CCoordinate::GetY
  004d6	8b 4d 88	 mov	 ecx, DWORD PTR _this$GSCopy$1$[ebp]
  004d9	8d 95 60 ff ff
	ff		 lea	 edx, DWORD PTR $T4[ebp]
  004df	56		 push	 esi
  004e0	52		 push	 edx
  004e1	dd 9d 60 ff ff
	ff		 fstp	 QWORD PTR $T4[ebp]
  004e7	8b 01		 mov	 eax, DWORD PTR [ecx]
  004e9	57		 push	 edi
  004ea	8b 40 04	 mov	 eax, DWORD PTR [eax+4]
  004ed	ff d0		 call	 eax
  004ef	dd 9d 58 ff ff
	ff		 fstp	 QWORD PTR $T3[ebp]
  004f5	8b cf		 mov	 ecx, edi
  004f7	e8 00 00 00 00	 call	 ?GetDisplayDataMax_ScaleType@CCoordinateCalculatorData@@QBENXZ ; CCoordinateCalculatorData::GetDisplayDataMax_ScaleType
  004fc	dd 9d 6c ff ff
	ff		 fstp	 QWORD PTR $T6[ebp]
  00502	8b cf		 mov	 ecx, edi
  00504	e8 00 00 00 00	 call	 ?GetDisplayDataMin_ScaleType@CCoordinateCalculatorData@@QBENXZ ; CCoordinateCalculatorData::GetDisplayDataMin_ScaleType
  00509	8d 85 58 ff ff
	ff		 lea	 eax, DWORD PTR $T3[ebp]
  0050f	8b cf		 mov	 ecx, edi
  00511	50		 push	 eax
  00512	56		 push	 esi
  00513	8d 85 6c ff ff
	ff		 lea	 eax, DWORD PTR $T6[ebp]
  00519	50		 push	 eax
  0051a	8d 45 a8	 lea	 eax, DWORD PTR $T18[ebp]
  0051d	50		 push	 eax
  0051e	dd 5d a8	 fstp	 QWORD PTR $T18[ebp]
  00521	e8 00 00 00 00	 call	 ?GetDisplayDataEnd@CCoordinateCalculatorData@@QBEHXZ ; CCoordinateCalculatorData::GetDisplayDataEnd
  00526	50		 push	 eax
  00527	8b cf		 mov	 ecx, edi
  00529	e8 00 00 00 00	 call	 ?GetDisplayDataStart@CCoordinateCalculatorData@@QBEHXZ ; CCoordinateCalculatorData::GetDisplayDataStart
  0052e	50		 push	 eax
  0052f	8d 45 d0	 lea	 eax, DWORD PTR $T38[ebp]
  00532	8b cf		 mov	 ecx, edi
  00534	50		 push	 eax
  00535	e8 00 00 00 00	 call	 ?GetRegion@CCoordinateCalculatorData@@QBE?AVCRect@@XZ ; CCoordinateCalculatorData::GetRegion
  0053a	50		 push	 eax
  0053b	8d 85 50 ff ff
	ff		 lea	 eax, DWORD PTR $T2[ebp]
  00541	50		 push	 eax
  00542	e8 00 00 00 00	 call	 ?RelativeToAbsolute@CDataConversion@@SA?AVCPoint@@ABVCRect@@HHABN1H1@Z ; CDataConversion::RelativeToAbsolute
  00547	83 c4 20	 add	 esp, 32			; 00000020H

; 285  : 	}

  0054a	8d 8d 78 ff ff
	ff		 lea	 ecx, DWORD PTR _strPacketType$9[ebp]
  00550	8b 58 04	 mov	 ebx, DWORD PTR [eax+4]
  00553	89 5d c0	 mov	 DWORD PTR _ptResult$4$[ebp], ebx
  00556	ff 15 00 00 00
	00		 call	 DWORD PTR __imp_??1?$CStringT@DV?$StrTraitMFC_DLL@DV?$ChTraitsCRT@D@ATL@@@@@ATL@@QAE@XZ
; File D:\git\src\IBK\IBK_DRFN\ProjSrc\SrcChartEx\ChartAddIn\ChartAnalysisToolAddIn\Include_AddIn_133101\I133101\_IString.h

; 45   : 		if( m_pIStrData)

  0055c	8b 4d 90	 mov	 ecx, DWORD PTR _szPacketType$12[ebp+4]
  0055f	c6 45 fc 07	 mov	 BYTE PTR __$EHRec$[ebp+8], 7
  00563	85 c9		 test	 ecx, ecx
  00565	74 06		 je	 SHORT $LN77@RelativeTo

; 46   : 		{
; 47   : 			m_pIStrData->Release();

  00567	8b 01		 mov	 eax, DWORD PTR [ecx]
  00569	51		 push	 ecx
  0056a	ff 50 08	 call	 DWORD PTR [eax+8]
$LN77@RelativeTo:
; File D:\git\src\IBK\IBK_DRFN\ProjSrc\SrcChartEx\ChartAddIn\ChartAnalysisToolAddIn\AnalysisTool\CoordinateCalculator.cpp

; 285  : 	}

  0056d	8d 8d 74 ff ff
	ff		 lea	 ecx, DWORD PTR _strAnalType$8[ebp]
  00573	ff 15 00 00 00
	00		 call	 DWORD PTR __imp_??1?$CStringT@DV?$StrTraitMFC_DLL@DV?$ChTraitsCRT@D@ATL@@@@@ATL@@QAE@XZ
; File D:\git\src\IBK\IBK_DRFN\ProjSrc\SrcChartEx\ChartAddIn\ChartAnalysisToolAddIn\Include_AddIn_133101\I133101\_IString.h

; 45   : 		if( m_pIStrData)

  00579	8b 4d c8	 mov	 ecx, DWORD PTR _szGraphName$31[ebp+4]
  0057c	c6 45 fc 08	 mov	 BYTE PTR __$EHRec$[ebp+8], 8
  00580	85 c9		 test	 ecx, ecx
  00582	74 06		 je	 SHORT $LN81@RelativeTo

; 46   : 		{
; 47   : 			m_pIStrData->Release();

  00584	8b 01		 mov	 eax, DWORD PTR [ecx]
  00586	51		 push	 ecx
  00587	ff 50 08	 call	 DWORD PTR [eax+8]
$LN81@RelativeTo:

; 45   : 		if( m_pIStrData)

  0058a	8b 55 bc	 mov	 edx, DWORD PTR _szRQ$28[ebp+4]
  0058d	c7 45 fc 09 00
	00 00		 mov	 DWORD PTR __$EHRec$[ebp+8], 9
  00594	85 d2		 test	 edx, edx
  00596	74 06		 je	 SHORT $LN85@RelativeTo

; 46   : 		{
; 47   : 			m_pIStrData->Release();

  00598	8b 02		 mov	 eax, DWORD PTR [edx]
  0059a	52		 push	 edx
  0059b	ff 50 08	 call	 DWORD PTR [eax+8]
$LN85@RelativeTo:
  0059e	8b 75 a0	 mov	 esi, DWORD PTR _pIPacket$1$[ebp]

; 48   : 			m_pIStrData = NULL;
; 49   : 			m_szData = NULL;
; 50   : 		}
; 51   : 	}

  005a1	c7 45 fc ff ff
	ff ff		 mov	 DWORD PTR __$EHRec$[ebp+8], -1
  005a8	eb 1a		 jmp	 SHORT $LN91@RelativeTo
$LN51@RelativeTo:
; File D:\git\src\IBK\IBK_DRFN\ProjSrc\SrcChartEx\ChartAddIn\ChartAnalysisToolAddIn\AnalysisTool\CoordinateCalculator.cpp

; 249  : 		ptResult = point.GetPixel();

  005aa	8d 45 c4	 lea	 eax, DWORD PTR $T32[ebp]
  005ad	8b cb		 mov	 ecx, ebx
  005af	50		 push	 eax
  005b0	e8 00 00 00 00	 call	 ?GetPixel@CCoordinate@@QBE?AVCPoint@@XZ ; CCoordinate::GetPixel
  005b5	8b 10		 mov	 edx, DWORD PTR [eax]
  005b7	8b 40 04	 mov	 eax, DWORD PTR [eax+4]
  005ba	89 55 b4	 mov	 DWORD PTR _ptResult$2$[ebp], edx
  005bd	89 45 c0	 mov	 DWORD PTR _ptResult$4$[ebp], eax

; 286  : 	if( pIPacket) pIPacket->Release();

  005c0	85 f6		 test	 esi, esi
  005c2	74 09		 je	 SHORT $LN94@RelativeTo
$LN91@RelativeTo:
  005c4	8b 06		 mov	 eax, DWORD PTR [esi]
  005c6	56		 push	 esi
  005c7	ff 50 08	 call	 DWORD PTR [eax+8]
  005ca	8b 55 b4	 mov	 edx, DWORD PTR _ptResult$2$[ebp]
$LN94@RelativeTo:

; 287  : 	return ptResult;

  005cd	8b 75 c0	 mov	 esi, DWORD PTR _ptResult$4$[ebp]
  005d0	8b 45 a4	 mov	 eax, DWORD PTR ___$ReturnUdt$GSCopy$1$[ebp]
$LN25@RelativeTo:
  005d3	89 10		 mov	 DWORD PTR [eax], edx
  005d5	89 70 04	 mov	 DWORD PTR [eax+4], esi
$LN1@RelativeTo:

; 288  : }

  005d8	8b 4d f4	 mov	 ecx, DWORD PTR __$EHRec$[ebp]
  005db	64 89 0d 00 00
	00 00		 mov	 DWORD PTR fs:0, ecx
  005e2	59		 pop	 ecx
  005e3	5f		 pop	 edi
  005e4	5e		 pop	 esi
  005e5	5b		 pop	 ebx
  005e6	8b 4d f0	 mov	 ecx, DWORD PTR __$ArrayPad$[ebp]
  005e9	33 cd		 xor	 ecx, ebp
  005eb	e8 00 00 00 00	 call	 @__security_check_cookie@4
  005f0	8b e5		 mov	 esp, ebp
  005f2	5d		 pop	 ebp
  005f3	c2 0c 00	 ret	 12			; 0000000cH
_TEXT	ENDS
;	COMDAT text$x
text$x	SEGMENT
__unwindfunclet$?RelativeToAbsolute@CCoordinateCalculator@@QBE?AVCPoint@@ABVCCoordinateCalculatorData@@ABVCCoordinate@@@Z$0:
  00000	8d 4d a0	 lea	 ecx, DWORD PTR $T17[ebp]
  00003	ff 25 00 00 00
	00		 jmp	 DWORD PTR __imp_??1?$CStringT@DV?$StrTraitMFC_DLL@DV?$ChTraitsCRT@D@ATL@@@@@ATL@@QAE@XZ
__unwindfunclet$?RelativeToAbsolute@CCoordinateCalculator@@QBE?AVCPoint@@ABVCCoordinateCalculatorData@@ABVCCoordinate@@@Z$6:
  00009	8d 4d a0	 lea	 ecx, DWORD PTR $T17[ebp]
  0000c	ff 25 00 00 00
	00		 jmp	 DWORD PTR __imp_??1?$CStringT@DV?$StrTraitMFC_DLL@DV?$ChTraitsCRT@D@ATL@@@@@ATL@@QAE@XZ
__unwindfunclet$?RelativeToAbsolute@CCoordinateCalculator@@QBE?AVCPoint@@ABVCCoordinateCalculatorData@@ABVCCoordinate@@@Z$1:
  00012	8d 4d b8	 lea	 ecx, DWORD PTR _szRQ$28[ebp]
  00015	e9 00 00 00 00	 jmp	 ??1ILPCSTR133101@@QAE@XZ ; ILPCSTR133101::~ILPCSTR133101
__unwindfunclet$?RelativeToAbsolute@CCoordinateCalculator@@QBE?AVCPoint@@ABVCCoordinateCalculatorData@@ABVCCoordinate@@@Z$2:
  0001a	8d 4d c4	 lea	 ecx, DWORD PTR _szGraphName$31[ebp]
  0001d	e9 00 00 00 00	 jmp	 ??1ILPCSTR133101@@QAE@XZ ; ILPCSTR133101::~ILPCSTR133101
__unwindfunclet$?RelativeToAbsolute@CCoordinateCalculator@@QBE?AVCPoint@@ABVCCoordinateCalculatorData@@ABVCCoordinate@@@Z$3:
  00022	8d 8d 74 ff ff
	ff		 lea	 ecx, DWORD PTR _strAnalType$8[ebp]
  00028	ff 25 00 00 00
	00		 jmp	 DWORD PTR __imp_??1?$CStringT@DV?$StrTraitMFC_DLL@DV?$ChTraitsCRT@D@ATL@@@@@ATL@@QAE@XZ
__unwindfunclet$?RelativeToAbsolute@CCoordinateCalculator@@QBE?AVCPoint@@ABVCCoordinateCalculatorData@@ABVCCoordinate@@@Z$4:
  0002e	8d 4d 8c	 lea	 ecx, DWORD PTR _szPacketType$12[ebp]
  00031	e9 00 00 00 00	 jmp	 ??1ILPCSTR133101@@QAE@XZ ; ILPCSTR133101::~ILPCSTR133101
__unwindfunclet$?RelativeToAbsolute@CCoordinateCalculator@@QBE?AVCPoint@@ABVCCoordinateCalculatorData@@ABVCCoordinate@@@Z$5:
  00036	8d 8d 78 ff ff
	ff		 lea	 ecx, DWORD PTR _strPacketType$9[ebp]
  0003c	ff 25 00 00 00
	00		 jmp	 DWORD PTR __imp_??1?$CStringT@DV?$StrTraitMFC_DLL@DV?$ChTraitsCRT@D@ATL@@@@@ATL@@QAE@XZ
  00042	cc		 int	 3
  00043	cc		 int	 3
  00044	cc		 int	 3
  00045	cc		 int	 3
  00046	cc		 int	 3
__ehhandler$?RelativeToAbsolute@CCoordinateCalculator@@QBE?AVCPoint@@ABVCCoordinateCalculatorData@@ABVCCoordinate@@@Z:
  00047	90		 npad	 1
  00048	90		 npad	 1
  00049	8b 54 24 08	 mov	 edx, DWORD PTR [esp+8]
  0004d	8d 42 0c	 lea	 eax, DWORD PTR [edx+12]
  00050	8b 8a 4c ff ff
	ff		 mov	 ecx, DWORD PTR [edx-180]
  00056	33 c8		 xor	 ecx, eax
  00058	e8 00 00 00 00	 call	 @__security_check_cookie@4
  0005d	8b 4a fc	 mov	 ecx, DWORD PTR [edx-4]
  00060	33 c8		 xor	 ecx, eax
  00062	e8 00 00 00 00	 call	 @__security_check_cookie@4
  00067	b8 00 00 00 00	 mov	 eax, OFFSET __ehfuncinfo$?RelativeToAbsolute@CCoordinateCalculator@@QBE?AVCPoint@@ABVCCoordinateCalculatorData@@ABVCCoordinate@@@Z
  0006c	e9 00 00 00 00	 jmp	 ___CxxFrameHandler3
text$x	ENDS
?RelativeToAbsolute@CCoordinateCalculator@@QBE?AVCPoint@@ABVCCoordinateCalculatorData@@ABVCCoordinate@@@Z ENDP ; CCoordinateCalculator::RelativeToAbsolute
; Function compile flags: /Ogtp
; File D:\git\src\IBK\IBK_DRFN\ProjSrc\SrcChartEx\ChartAddIn\ChartAnalysisToolAddIn\AnalysisTool\CoordinateCalculator.cpp
; File D:\git\src\IBK\IBK_DRFN\ProjSrc\SrcChartEx\ChartAddIn\ChartAnalysisToolAddIn\Include_Analysis\CoordinateCalculatorData.h
; File D:\git\src\IBK\IBK_DRFN\ProjSrc\SrcChartEx\ChartAddIn\ChartAnalysisToolAddIn\AnalysisTool\CoordinateCalculator.cpp
; File D:\git\src\IBK\IBK_DRFN\ProjSrc\SrcChartEx\ChartAddIn\ChartAnalysisToolAddIn\Include_Analysis\CoordinateCalculatorData.h
; File D:\git\src\IBK\IBK_DRFN\ProjSrc\SrcChartEx\ChartAddIn\ChartAnalysisToolAddIn\AnalysisTool\CoordinateCalculator.cpp
;	COMDAT ?AbsoluteToRelativeAutoPrice@CCoordinateCalculator@@QBE?AVCCoordinate@@ABVCCoordinateCalculatorData@@ABVCPoint@@@Z
_TEXT	SEGMENT
_dY$ = -120						; size = 8
_dY$2 = -112						; size = 8
_cdResult$ = -104					; size = 32
tv200 = -72						; size = 8
_dX$ = -72						; size = 8
_dX$3 = -64						; size = 8
_nIndex$1$ = -60					; size = 4
___$ReturnUdt$GSCopy$ = -60				; size = 4
_this$GSCopy$1$ = -56					; size = 4
_nIndex$1$ = -56					; size = 4
_point$GSCopy$1$ = -52					; size = 4
$T4 = -48						; size = 32
$T5 = -48						; size = 32
$T6 = -48						; size = 32
$T7 = -48						; size = 32
$T8 = -32						; size = 16
__$ArrayPad$ = -16					; size = 4
__$EHRec$ = -12						; size = 12
___$ReturnUdt$ = 8					; size = 4
_calData$ = 12						; size = 4
_point$ = 16						; size = 4
?AbsoluteToRelativeAutoPrice@CCoordinateCalculator@@QBE?AVCCoordinate@@ABVCCoordinateCalculatorData@@ABVCPoint@@@Z PROC ; CCoordinateCalculator::AbsoluteToRelativeAutoPrice, COMDAT
; _this$ = ecx

; 87   : {

  00000	55		 push	 ebp
  00001	8b ec		 mov	 ebp, esp
  00003	6a ff		 push	 -1
  00005	68 00 00 00 00	 push	 __ehhandler$?AbsoluteToRelativeAutoPrice@CCoordinateCalculator@@QBE?AVCCoordinate@@ABVCCoordinateCalculatorData@@ABVCPoint@@@Z
  0000a	64 a1 00 00 00
	00		 mov	 eax, DWORD PTR fs:0
  00010	50		 push	 eax
  00011	83 ec 6c	 sub	 esp, 108		; 0000006cH
  00014	a1 00 00 00 00	 mov	 eax, DWORD PTR ___security_cookie
  00019	33 c5		 xor	 eax, ebp
  0001b	89 45 f0	 mov	 DWORD PTR __$ArrayPad$[ebp], eax
  0001e	53		 push	 ebx
  0001f	56		 push	 esi
  00020	57		 push	 edi
  00021	50		 push	 eax
  00022	8d 45 f4	 lea	 eax, DWORD PTR __$EHRec$[ebp]
  00025	64 a3 00 00 00
	00		 mov	 DWORD PTR fs:0, eax
  0002b	89 4d c8	 mov	 DWORD PTR _this$GSCopy$1$[ebp], ecx
  0002e	8b 5d 08	 mov	 ebx, DWORD PTR ___$ReturnUdt$[ebp]

; 88   : 	CCoordinate cdResult;

  00031	8d 4d 98	 lea	 ecx, DWORD PTR _cdResult$[ebp]
  00034	8b 7d 10	 mov	 edi, DWORD PTR _point$[ebp]
  00037	8b 75 0c	 mov	 esi, DWORD PTR _calData$[ebp]
  0003a	89 5d c4	 mov	 DWORD PTR ___$ReturnUdt$GSCopy$[ebp], ebx
  0003d	89 7d cc	 mov	 DWORD PTR _point$GSCopy$1$[ebp], edi
  00040	e8 00 00 00 00	 call	 ??0CCoordinate@@QAE@XZ	; CCoordinate::CCoordinate
; File D:\git\src\IBK\IBK_DRFN\ProjSrc\SrcChartEx\ChartAddIn\ChartAnalysisToolAddIn\Include_Analysis\CoordinateCalculatorData.h

; 128  : 							{	return m_pIChartManager && m_pIChartOCX && m_pIPacketListManager && m_pIDefaultPacketManager;	}

  00045	83 7e 48 00	 cmp	 DWORD PTR [esi+72], 0
; File D:\git\src\IBK\IBK_DRFN\ProjSrc\SrcChartEx\ChartAddIn\ChartAnalysisToolAddIn\AnalysisTool\CoordinateCalculator.cpp

; 88   : 	CCoordinate cdResult;

  00049	c7 45 fc 00 00
	00 00		 mov	 DWORD PTR __$EHRec$[ebp+8], 0
; File D:\git\src\IBK\IBK_DRFN\ProjSrc\SrcChartEx\ChartAddIn\ChartAnalysisToolAddIn\Include_Analysis\CoordinateCalculatorData.h

; 128  : 							{	return m_pIChartManager && m_pIChartOCX && m_pIPacketListManager && m_pIDefaultPacketManager;	}

  00050	0f 84 45 02 00
	00		 je	 $LN28@AbsoluteTo
  00056	83 7e 4c 00	 cmp	 DWORD PTR [esi+76], 0
  0005a	0f 84 3b 02 00
	00		 je	 $LN28@AbsoluteTo
  00060	8b 4e 50	 mov	 ecx, DWORD PTR [esi+80]
  00063	85 c9		 test	 ecx, ecx
  00065	0f 84 30 02 00
	00		 je	 $LN28@AbsoluteTo
  0006b	83 7e 54 00	 cmp	 DWORD PTR [esi+84], 0
  0006f	0f 84 26 02 00
	00		 je	 $LN28@AbsoluteTo
; File D:\git\src\IBK\IBK_DRFN\ProjSrc\SrcChartEx\ChartAddIn\ChartAnalysisToolAddIn\AnalysisTool\CoordinateCalculator.cpp

; 91   : 	if( calData.m_pIPacketListManager->IsBasePacketString())

  00075	8b 01		 mov	 eax, DWORD PTR [ecx]
  00077	ff 50 28	 call	 DWORD PTR [eax+40]
  0007a	0f 57 c0	 xorps	 xmm0, xmm0
  0007d	85 c0		 test	 eax, eax
  0007f	0f 84 0c 01 00
	00		 je	 $LN3@AbsoluteTo

; 92   : 	{
; 93   : 		double dX = 0.0;
; 94   : 		double dY = 0.0;
; 95   : 		int nIndex = CDataConversion::GetPacketDataIndex_Date(calData.GetRegion(), point, 

  00085	8b ce		 mov	 ecx, esi
  00087	f2 0f 11 45 c0	 movsd	 QWORD PTR _dX$3[ebp], xmm0
  0008c	f2 0f 11 45 90	 movsd	 QWORD PTR _dY$2[ebp], xmm0
  00091	e8 00 00 00 00	 call	 ?GetDisplayDataEnd@CCoordinateCalculatorData@@QBEHXZ ; CCoordinateCalculatorData::GetDisplayDataEnd
  00096	50		 push	 eax
  00097	8b ce		 mov	 ecx, esi
  00099	e8 00 00 00 00	 call	 ?GetDisplayDataStart@CCoordinateCalculatorData@@QBEHXZ ; CCoordinateCalculatorData::GetDisplayDataStart
  0009e	50		 push	 eax
  0009f	57		 push	 edi
  000a0	8d 45 e0	 lea	 eax, DWORD PTR $T8[ebp]
  000a3	8b ce		 mov	 ecx, esi
  000a5	50		 push	 eax
  000a6	e8 00 00 00 00	 call	 ?GetRegion@CCoordinateCalculatorData@@QBE?AVCRect@@XZ ; CCoordinateCalculatorData::GetRegion
  000ab	50		 push	 eax
  000ac	e8 00 00 00 00	 call	 ?GetPacketDataIndex_Date@CDataConversion@@SAHABVCRect@@ABVCPoint@@HH@Z ; CDataConversion::GetPacketDataIndex_Date
  000b1	83 c4 10	 add	 esp, 16			; 00000010H
  000b4	89 45 c8	 mov	 DWORD PTR _nIndex$1$[ebp], eax

; 96   : 			calData.GetDisplayDataStart(), calData.GetDisplayDataEnd());
; 97   : 		
; 98   : 		IPacket *pIPacketX = calData.GetPacket_X();

  000b7	8b ce		 mov	 ecx, esi
  000b9	e8 00 00 00 00	 call	 ?GetPacket_X@CCoordinateCalculatorData@@QBEPAUIPacket133101@@XZ ; CCoordinateCalculatorData::GetPacket_X
  000be	8b f8		 mov	 edi, eax

; 392  : 	return (pPacket != NULL && pPacket->GetDataCount() > 0);

  000c0	85 ff		 test	 edi, edi
  000c2	74 1b		 je	 SHORT $LN35@AbsoluteTo
  000c4	8b 07		 mov	 eax, DWORD PTR [edi]
  000c6	8b cf		 mov	 ecx, edi
  000c8	ff 50 2c	 call	 DWORD PTR [eax+44]
  000cb	85 c0		 test	 eax, eax
  000cd	7e 10		 jle	 SHORT $LN35@AbsoluteTo

; 103  : 		}
; 104  : 		else
; 105  : 		{		
; 106  : 			if( pIPacketX) pIPacketX->GetDataPastandFuture(nIndex, dX);			

  000cf	8b 07		 mov	 eax, DWORD PTR [edi]
  000d1	8d 4d c0	 lea	 ecx, DWORD PTR _dX$3[ebp]
  000d4	51		 push	 ecx
  000d5	ff 75 c8	 push	 DWORD PTR _nIndex$1$[ebp]
  000d8	8b cf		 mov	 ecx, edi
  000da	ff 50 44	 call	 DWORD PTR [eax+68]
  000dd	eb 34		 jmp	 SHORT $LN75@AbsoluteTo
$LN35@AbsoluteTo:

; 99   : 		if( !IsCalculator( pIPacketX)) 
; 100  : 		{
; 101  : 			cdResult = CCoordinate(point);

  000df	ff 75 cc	 push	 DWORD PTR _point$GSCopy$1$[ebp]
  000e2	8d 4d d0	 lea	 ecx, DWORD PTR $T7[ebp]
  000e5	e8 00 00 00 00	 call	 ??0CCoordinate@@QAE@ABVCPoint@@@Z ; CCoordinate::CCoordinate
  000ea	50		 push	 eax
  000eb	8d 4d 98	 lea	 ecx, DWORD PTR _cdResult$[ebp]
  000ee	c6 45 fc 01	 mov	 BYTE PTR __$EHRec$[ebp+8], 1
  000f2	e8 00 00 00 00	 call	 ??4CCoordinate@@QAEAAV0@ABV0@@Z ; CCoordinate::operator=
  000f7	8d 4d e4	 lea	 ecx, DWORD PTR $T7[ebp+20]
  000fa	c6 45 fc 00	 mov	 BYTE PTR __$EHRec$[ebp+8], 0
  000fe	ff 15 00 00 00
	00		 call	 DWORD PTR __imp_??1?$CStringT@DV?$StrTraitMFC_DLL@DV?$ChTraitsCRT@D@ATL@@@@@ATL@@QAE@XZ

; 102  : 			dX = cdResult.GetX();

  00104	8d 4d 98	 lea	 ecx, DWORD PTR _cdResult$[ebp]
  00107	e8 00 00 00 00	 call	 ?GetX@CCoordinate@@QBENXZ ; CCoordinate::GetX
  0010c	dd 5d c0	 fstp	 QWORD PTR _dX$3[ebp]

; 107  : 		}
; 108  : 		if( pIPacketX) pIPacketX->Release();

  0010f	85 ff		 test	 edi, edi
  00111	74 06		 je	 SHORT $LN7@AbsoluteTo
$LN75@AbsoluteTo:
  00113	8b 07		 mov	 eax, DWORD PTR [edi]
  00115	57		 push	 edi
  00116	ff 50 08	 call	 DWORD PTR [eax+8]
$LN7@AbsoluteTo:

; 109  : 		
; 110  : 		IPacket *pIPacketY = calData.GetPacket_Y();

  00119	8b ce		 mov	 ecx, esi
  0011b	e8 00 00 00 00	 call	 ?GetPacket_Y@CCoordinateCalculatorData@@QBEPAUIPacket133101@@XZ ; CCoordinateCalculatorData::GetPacket_Y
  00120	8b f0		 mov	 esi, eax

; 392  : 	return (pPacket != NULL && pPacket->GetDataCount() > 0);

  00122	85 f6		 test	 esi, esi
  00124	74 1b		 je	 SHORT $LN42@AbsoluteTo
  00126	8b 06		 mov	 eax, DWORD PTR [esi]
  00128	8b ce		 mov	 ecx, esi
  0012a	ff 50 2c	 call	 DWORD PTR [eax+44]
  0012d	85 c0		 test	 eax, eax
  0012f	7e 10		 jle	 SHORT $LN42@AbsoluteTo

; 115  : 		}
; 116  : 		else
; 117  : 		{		
; 118  : 			if( pIPacketY) pIPacketY->GetDataPastandFuture(nIndex, dY);			

  00131	8b 06		 mov	 eax, DWORD PTR [esi]
  00133	8d 4d 90	 lea	 ecx, DWORD PTR _dY$2[ebp]
  00136	51		 push	 ecx
  00137	ff 75 c8	 push	 DWORD PTR _nIndex$1$[ebp]
  0013a	8b ce		 mov	 ecx, esi
  0013c	ff 50 44	 call	 DWORD PTR [eax+68]
  0013f	eb 34		 jmp	 SHORT $LN74@AbsoluteTo
$LN42@AbsoluteTo:

; 111  : 		if( !IsCalculator( pIPacketY)) 
; 112  : 		{
; 113  : 			cdResult = CCoordinate(point);

  00141	ff 75 cc	 push	 DWORD PTR _point$GSCopy$1$[ebp]
  00144	8d 4d d0	 lea	 ecx, DWORD PTR $T6[ebp]
  00147	e8 00 00 00 00	 call	 ??0CCoordinate@@QAE@ABVCPoint@@@Z ; CCoordinate::CCoordinate
  0014c	50		 push	 eax
  0014d	8d 4d 98	 lea	 ecx, DWORD PTR _cdResult$[ebp]
  00150	c6 45 fc 02	 mov	 BYTE PTR __$EHRec$[ebp+8], 2
  00154	e8 00 00 00 00	 call	 ??4CCoordinate@@QAEAAV0@ABV0@@Z ; CCoordinate::operator=
  00159	8d 4d e4	 lea	 ecx, DWORD PTR $T6[ebp+20]
  0015c	c6 45 fc 00	 mov	 BYTE PTR __$EHRec$[ebp+8], 0
  00160	ff 15 00 00 00
	00		 call	 DWORD PTR __imp_??1?$CStringT@DV?$StrTraitMFC_DLL@DV?$ChTraitsCRT@D@ATL@@@@@ATL@@QAE@XZ

; 114  : 			dY = cdResult.GetY();

  00166	8d 4d 98	 lea	 ecx, DWORD PTR _cdResult$[ebp]
  00169	e8 00 00 00 00	 call	 ?GetY@CCoordinate@@QBENXZ ; CCoordinate::GetY
  0016e	dd 5d 90	 fstp	 QWORD PTR _dY$2[ebp]

; 119  : 		}
; 120  : 		if( pIPacketY) pIPacketY->Release();

  00171	85 f6		 test	 esi, esi
  00173	74 06		 je	 SHORT $LN11@AbsoluteTo
$LN74@AbsoluteTo:
  00175	8b 06		 mov	 eax, DWORD PTR [esi]
  00177	56		 push	 esi
  00178	ff 50 08	 call	 DWORD PTR [eax+8]
$LN11@AbsoluteTo:

; 121  : 		
; 122  : 		cdResult.SetX(dX,0);

  0017b	6a 00		 push	 0
  0017d	8d 45 c0	 lea	 eax, DWORD PTR _dX$3[ebp]
  00180	50		 push	 eax
  00181	8d 4d 98	 lea	 ecx, DWORD PTR _cdResult$[ebp]
  00184	e8 00 00 00 00	 call	 ?SetX@CCoordinate@@QAEXABNH@Z ; CCoordinate::SetX

; 123  : 		cdResult.SetY(dY);

  00189	8d 45 90	 lea	 eax, DWORD PTR _dY$2[ebp]

; 124  : 		return cdResult;

  0018c	e9 01 01 00 00	 jmp	 $LN77@AbsoluteTo
$LN3@AbsoluteTo:

; 125  : 	}
; 126  : 
; 127  : 	// XScale : 관련 Interface로 사용 - vntsorl(20070410)
; 128  : 	double dX = 0.0;
; 129  : 	double dY = 0.0;
; 130  : 	int nIndex = calData.m_pIChartManager->FindViewDataIndex_Pt("DEFAULT", point.x);	// DRI로 셋팅되어야 하지 않을까 싶음

  00191	8b 4e 48	 mov	 ecx, DWORD PTR [esi+72]
  00194	6a 00		 push	 0
  00196	6a 00		 push	 0
  00198	ff 37		 push	 DWORD PTR [edi]
  0019a	f2 0f 11 45 88	 movsd	 QWORD PTR _dY$[ebp], xmm0
  0019f	8b 01		 mov	 eax, DWORD PTR [ecx]
  001a1	68 00 00 00 00	 push	 OFFSET ??_C@_07MGCPDNLD@DEFAULT@
  001a6	ff 90 04 01 00
	00		 call	 DWORD PTR [eax+260]

; 131  : 
; 132  : 	IPacket *pIPacketX = calData.GetPacket_X();

  001ac	8b ce		 mov	 ecx, esi
  001ae	89 45 c4	 mov	 DWORD PTR _nIndex$1$[ebp], eax
  001b1	e8 00 00 00 00	 call	 ?GetPacket_X@CCoordinateCalculatorData@@QBEPAUIPacket133101@@XZ ; CCoordinateCalculatorData::GetPacket_X
  001b6	8b f8		 mov	 edi, eax

; 392  : 	return (pPacket != NULL && pPacket->GetDataCount() > 0);

  001b8	85 ff		 test	 edi, edi
  001ba	74 1f		 je	 SHORT $LN52@AbsoluteTo
  001bc	8b 17		 mov	 edx, DWORD PTR [edi]
  001be	8b cf		 mov	 ecx, edi
  001c0	ff 52 2c	 call	 DWORD PTR [edx+44]
  001c3	85 c0		 test	 eax, eax
  001c5	7e 14		 jle	 SHORT $LN52@AbsoluteTo

; 137  : 	}
; 138  : 	else
; 139  : 	{		
; 140  : 		dX = GetData_X(calData, point, 0);	

  001c7	8b 4d c8	 mov	 ecx, DWORD PTR _this$GSCopy$1$[ebp]
  001ca	6a 00		 push	 0
  001cc	ff 75 cc	 push	 DWORD PTR _point$GSCopy$1$[ebp]
  001cf	8b 01		 mov	 eax, DWORD PTR [ecx]
  001d1	56		 push	 esi
  001d2	8b 00		 mov	 eax, DWORD PTR [eax]
  001d4	ff d0		 call	 eax
  001d6	dd 5d b8	 fstp	 QWORD PTR _dX$[ebp]
  001d9	eb 3e		 jmp	 SHORT $LN73@AbsoluteTo
$LN52@AbsoluteTo:

; 133  : 	if( !IsCalculator( pIPacketX)) 
; 134  : 	{
; 135  : 		cdResult = CCoordinate(point);

  001db	ff 75 cc	 push	 DWORD PTR _point$GSCopy$1$[ebp]
  001de	8d 4d d0	 lea	 ecx, DWORD PTR $T5[ebp]
  001e1	e8 00 00 00 00	 call	 ??0CCoordinate@@QAE@ABVCPoint@@@Z ; CCoordinate::CCoordinate
  001e6	50		 push	 eax
  001e7	8d 4d 98	 lea	 ecx, DWORD PTR _cdResult$[ebp]
  001ea	c6 45 fc 03	 mov	 BYTE PTR __$EHRec$[ebp+8], 3
  001ee	e8 00 00 00 00	 call	 ??4CCoordinate@@QAEAAV0@ABV0@@Z ; CCoordinate::operator=
  001f3	8d 4d e4	 lea	 ecx, DWORD PTR $T5[ebp+20]
  001f6	c6 45 fc 00	 mov	 BYTE PTR __$EHRec$[ebp+8], 0
  001fa	ff 15 00 00 00
	00		 call	 DWORD PTR __imp_??1?$CStringT@DV?$StrTraitMFC_DLL@DV?$ChTraitsCRT@D@ATL@@@@@ATL@@QAE@XZ

; 136  : 		dX = cdResult.GetX();

  00200	8d 4d 98	 lea	 ecx, DWORD PTR _cdResult$[ebp]
  00203	e8 00 00 00 00	 call	 ?GetX@CCoordinate@@QBENXZ ; CCoordinate::GetX
  00208	dd 5d b8	 fstp	 QWORD PTR tv200[ebp]

; 141  : 	}
; 142  : 	if( pIPacketX) pIPacketX->Release();

  0020b	f2 0f 10 45 b8	 movsd	 xmm0, QWORD PTR tv200[ebp]
  00210	f2 0f 11 45 b8	 movsd	 QWORD PTR _dX$[ebp], xmm0
  00215	85 ff		 test	 edi, edi
  00217	74 06		 je	 SHORT $LN14@AbsoluteTo
$LN73@AbsoluteTo:
  00219	8b 07		 mov	 eax, DWORD PTR [edi]
  0021b	57		 push	 edi
  0021c	ff 50 08	 call	 DWORD PTR [eax+8]
$LN14@AbsoluteTo:

; 143  : 
; 144  : 	IPacket *pIPacketY = calData.GetPacket_Y();

  0021f	8b ce		 mov	 ecx, esi
  00221	e8 00 00 00 00	 call	 ?GetPacket_Y@CCoordinateCalculatorData@@QBEPAUIPacket133101@@XZ ; CCoordinateCalculatorData::GetPacket_Y
  00226	8b f0		 mov	 esi, eax

; 392  : 	return (pPacket != NULL && pPacket->GetDataCount() > 0);

  00228	85 f6		 test	 esi, esi
  0022a	74 1b		 je	 SHORT $LN59@AbsoluteTo
  0022c	8b 16		 mov	 edx, DWORD PTR [esi]
  0022e	8b ce		 mov	 ecx, esi
  00230	ff 52 2c	 call	 DWORD PTR [edx+44]
  00233	85 c0		 test	 eax, eax
  00235	7e 10		 jle	 SHORT $LN59@AbsoluteTo

; 149  : 	}
; 150  : 	else
; 151  : 	{		
; 152  : 		pIPacketY->GetDataPastandFuture(nIndex, dY);			

  00237	8b 06		 mov	 eax, DWORD PTR [esi]
  00239	8d 4d 88	 lea	 ecx, DWORD PTR _dY$[ebp]
  0023c	51		 push	 ecx
  0023d	ff 75 c4	 push	 DWORD PTR _nIndex$1$[ebp]
  00240	8b ce		 mov	 ecx, esi
  00242	ff 50 44	 call	 DWORD PTR [eax+68]
  00245	eb 34		 jmp	 SHORT $LN72@AbsoluteTo
$LN59@AbsoluteTo:

; 145  : 	if( !IsCalculator( pIPacketY)) 
; 146  : 	{
; 147  : 		cdResult = CCoordinate(point);

  00247	ff 75 cc	 push	 DWORD PTR _point$GSCopy$1$[ebp]
  0024a	8d 4d d0	 lea	 ecx, DWORD PTR $T4[ebp]
  0024d	e8 00 00 00 00	 call	 ??0CCoordinate@@QAE@ABVCPoint@@@Z ; CCoordinate::CCoordinate
  00252	50		 push	 eax
  00253	8d 4d 98	 lea	 ecx, DWORD PTR _cdResult$[ebp]
  00256	c6 45 fc 04	 mov	 BYTE PTR __$EHRec$[ebp+8], 4
  0025a	e8 00 00 00 00	 call	 ??4CCoordinate@@QAEAAV0@ABV0@@Z ; CCoordinate::operator=
  0025f	8d 4d e4	 lea	 ecx, DWORD PTR $T4[ebp+20]
  00262	c6 45 fc 00	 mov	 BYTE PTR __$EHRec$[ebp+8], 0
  00266	ff 15 00 00 00
	00		 call	 DWORD PTR __imp_??1?$CStringT@DV?$StrTraitMFC_DLL@DV?$ChTraitsCRT@D@ATL@@@@@ATL@@QAE@XZ

; 148  : 		dY = cdResult.GetY();

  0026c	8d 4d 98	 lea	 ecx, DWORD PTR _cdResult$[ebp]
  0026f	e8 00 00 00 00	 call	 ?GetY@CCoordinate@@QBENXZ ; CCoordinate::GetY
  00274	dd 5d 88	 fstp	 QWORD PTR _dY$[ebp]

; 153  : 	}
; 154  : 	if( pIPacketY) pIPacketY->Release();

  00277	85 f6		 test	 esi, esi
  00279	74 06		 je	 SHORT $LN17@AbsoluteTo
$LN72@AbsoluteTo:
  0027b	8b 06		 mov	 eax, DWORD PTR [esi]
  0027d	56		 push	 esi
  0027e	ff 50 08	 call	 DWORD PTR [eax+8]
$LN17@AbsoluteTo:

; 155  : 
; 156  : 	cdResult.SetX(dX,0);

  00281	6a 00		 push	 0
  00283	8d 45 b8	 lea	 eax, DWORD PTR _dX$[ebp]
  00286	50		 push	 eax
  00287	8d 4d 98	 lea	 ecx, DWORD PTR _cdResult$[ebp]
  0028a	e8 00 00 00 00	 call	 ?SetX@CCoordinate@@QAEXABNH@Z ; CCoordinate::SetX

; 157  : 	cdResult.SetY(dY);

  0028f	8d 45 88	 lea	 eax, DWORD PTR _dY$[ebp]
$LN77@AbsoluteTo:

; 158  : 	return cdResult;
; 159  : }

  00292	50		 push	 eax
  00293	8d 4d 98	 lea	 ecx, DWORD PTR _cdResult$[ebp]
  00296	e8 00 00 00 00	 call	 ?SetY@CCoordinate@@QAEXABN@Z ; CCoordinate::SetY
$LN28@AbsoluteTo:
  0029b	8d 45 98	 lea	 eax, DWORD PTR _cdResult$[ebp]
  0029e	8b cb		 mov	 ecx, ebx
  002a0	50		 push	 eax
  002a1	e8 00 00 00 00	 call	 ??0CCoordinate@@QAE@ABV0@@Z ; CCoordinate::CCoordinate
  002a6	8d 4d ac	 lea	 ecx, DWORD PTR _cdResult$[ebp+20]
  002a9	ff 15 00 00 00
	00		 call	 DWORD PTR __imp_??1?$CStringT@DV?$StrTraitMFC_DLL@DV?$ChTraitsCRT@D@ATL@@@@@ATL@@QAE@XZ
  002af	8b c3		 mov	 eax, ebx
  002b1	8b 4d f4	 mov	 ecx, DWORD PTR __$EHRec$[ebp]
  002b4	64 89 0d 00 00
	00 00		 mov	 DWORD PTR fs:0, ecx
  002bb	59		 pop	 ecx
  002bc	5f		 pop	 edi
  002bd	5e		 pop	 esi
  002be	5b		 pop	 ebx
  002bf	8b 4d f0	 mov	 ecx, DWORD PTR __$ArrayPad$[ebp]
  002c2	33 cd		 xor	 ecx, ebp
  002c4	e8 00 00 00 00	 call	 @__security_check_cookie@4
  002c9	8b e5		 mov	 esp, ebp
  002cb	5d		 pop	 ebp
  002cc	c2 0c 00	 ret	 12			; 0000000cH
_TEXT	ENDS
;	COMDAT text$x
text$x	SEGMENT
__unwindfunclet$?AbsoluteToRelativeAutoPrice@CCoordinateCalculator@@QBE?AVCCoordinate@@ABVCCoordinateCalculatorData@@ABVCPoint@@@Z$0:
  00000	8d 4d 98	 lea	 ecx, DWORD PTR _cdResult$[ebp]
  00003	e9 00 00 00 00	 jmp	 ??1CCoordinate@@QAE@XZ
__unwindfunclet$?AbsoluteToRelativeAutoPrice@CCoordinateCalculator@@QBE?AVCCoordinate@@ABVCCoordinateCalculatorData@@ABVCPoint@@@Z$2:
  00008	8d 4d d0	 lea	 ecx, DWORD PTR $T7[ebp]
  0000b	e9 00 00 00 00	 jmp	 ??1CCoordinate@@QAE@XZ
__unwindfunclet$?AbsoluteToRelativeAutoPrice@CCoordinateCalculator@@QBE?AVCCoordinate@@ABVCCoordinateCalculatorData@@ABVCPoint@@@Z$3:
  00010	8d 4d d0	 lea	 ecx, DWORD PTR $T6[ebp]
  00013	e9 00 00 00 00	 jmp	 ??1CCoordinate@@QAE@XZ
__unwindfunclet$?AbsoluteToRelativeAutoPrice@CCoordinateCalculator@@QBE?AVCCoordinate@@ABVCCoordinateCalculatorData@@ABVCPoint@@@Z$4:
  00018	8d 4d d0	 lea	 ecx, DWORD PTR $T5[ebp]
  0001b	e9 00 00 00 00	 jmp	 ??1CCoordinate@@QAE@XZ
__unwindfunclet$?AbsoluteToRelativeAutoPrice@CCoordinateCalculator@@QBE?AVCCoordinate@@ABVCCoordinateCalculatorData@@ABVCPoint@@@Z$5:
  00020	8d 4d d0	 lea	 ecx, DWORD PTR $T4[ebp]
  00023	e9 00 00 00 00	 jmp	 ??1CCoordinate@@QAE@XZ
  00028	cc		 int	 3
  00029	cc		 int	 3
  0002a	cc		 int	 3
  0002b	cc		 int	 3
  0002c	cc		 int	 3
__ehhandler$?AbsoluteToRelativeAutoPrice@CCoordinateCalculator@@QBE?AVCCoordinate@@ABVCCoordinateCalculatorData@@ABVCPoint@@@Z:
  0002d	90		 npad	 1
  0002e	90		 npad	 1
  0002f	8b 54 24 08	 mov	 edx, DWORD PTR [esp+8]
  00033	8d 42 0c	 lea	 eax, DWORD PTR [edx+12]
  00036	8b 4a 84	 mov	 ecx, DWORD PTR [edx-124]
  00039	33 c8		 xor	 ecx, eax
  0003b	e8 00 00 00 00	 call	 @__security_check_cookie@4
  00040	8b 4a fc	 mov	 ecx, DWORD PTR [edx-4]
  00043	33 c8		 xor	 ecx, eax
  00045	e8 00 00 00 00	 call	 @__security_check_cookie@4
  0004a	b8 00 00 00 00	 mov	 eax, OFFSET __ehfuncinfo$?AbsoluteToRelativeAutoPrice@CCoordinateCalculator@@QBE?AVCCoordinate@@ABVCCoordinateCalculatorData@@ABVCPoint@@@Z
  0004f	e9 00 00 00 00	 jmp	 ___CxxFrameHandler3
text$x	ENDS
?AbsoluteToRelativeAutoPrice@CCoordinateCalculator@@QBE?AVCCoordinate@@ABVCCoordinateCalculatorData@@ABVCPoint@@@Z ENDP ; CCoordinateCalculator::AbsoluteToRelativeAutoPrice
; Function compile flags: /Ogtp
; File D:\git\src\IBK\IBK_DRFN\ProjSrc\SrcChartEx\ChartAddIn\ChartAnalysisToolAddIn\AnalysisTool\CoordinateCalculator.cpp
; File D:\git\src\IBK\IBK_DRFN\ProjSrc\SrcChartEx\ChartAddIn\ChartAnalysisToolAddIn\Include_Analysis\CoordinateCalculatorData.h
; File D:\git\src\IBK\IBK_DRFN\ProjSrc\SrcChartEx\ChartAddIn\ChartAnalysisToolAddIn\AnalysisTool\CoordinateCalculator.cpp
; File D:\git\src\IBK\IBK_DRFN\ProjSrc\SrcChartEx\ChartAddIn\ChartAnalysisToolAddIn\Include_Analysis\CoordinateCalculatorData.h
; File D:\git\src\IBK\IBK_DRFN\ProjSrc\SrcChartEx\ChartAddIn\ChartAnalysisToolAddIn\AnalysisTool\CoordinateCalculator.cpp
; File D:\git\src\IBK\IBK_DRFN\ProjSrc\SrcChartEx\ChartAddIn\ChartAnalysisToolAddIn\Include_AddIn_133101\I133101\_IString.h
; File D:\git\src\IBK\IBK_DRFN\ProjSrc\SrcChartEx\ChartAddIn\ChartAnalysisToolAddIn\AnalysisTool\CoordinateCalculator.cpp
; File D:\git\src\IBK\IBK_DRFN\ProjSrc\SrcChartEx\ChartAddIn\ChartAnalysisToolAddIn\Include_AddIn_133101\I133101\_IString.h
; File D:\git\src\IBK\IBK_DRFN\ProjSrc\SrcChartEx\ChartAddIn\ChartAnalysisToolAddIn\AnalysisTool\CoordinateCalculator.cpp
; File D:\git\src\IBK\IBK_DRFN\ProjSrc\SrcChartEx\ChartAddIn\ChartAnalysisToolAddIn\Include_AddIn_133101\I133101\_IString.h
; File D:\git\src\IBK\IBK_DRFN\ProjSrc\SrcChartEx\ChartAddIn\ChartAnalysisToolAddIn\AnalysisTool\CoordinateCalculator.cpp
; File D:\git\src\IBK\IBK_DRFN\ProjSrc\SrcChartEx\ChartAddIn\ChartAnalysisToolAddIn\Include_AddIn_133101\I133101\_IString.h
; File D:\git\src\IBK\IBK_DRFN\ProjSrc\SrcChartEx\ChartAddIn\ChartAnalysisToolAddIn\AnalysisTool\CoordinateCalculator.cpp
;	COMDAT ?AbsoluteToRelative@CCoordinateCalculator@@QBE?AVCCoordinate@@ABVCCoordinateCalculatorData@@ABVCPoint@@@Z
_TEXT	SEGMENT
$T2 = -148						; size = 32
_cdResult$ = -116					; size = 32
_dDataY$3 = -84						; size = 8
_dY$4 = -84						; size = 8
_szPacketType$ = -76					; size = 8
_dX$5 = -76						; size = 8
_szPacketType$6 = -68					; size = 8
_this$GSCopy$1$ = -64					; size = 4
___$ReturnUdt$GSCopy$ = -60				; size = 4
_strPacketType$ = -60					; size = 4
___$ReturnUdt$GSCopy$1$ = -56				; size = 4
_strPacketType$7 = -56					; size = 4
_point$GSCopy$1$ = -52					; size = 4
$T8 = -48						; size = 32
$T9 = -48						; size = 32
$T10 = -48						; size = 32
$T11 = -32						; size = 16
_dDataX$12 = -24					; size = 8
_nIndex$1$ = -20					; size = 4
__$ArrayPad$ = -16					; size = 4
__$EHRec$ = -12						; size = 12
___$ReturnUdt$ = 8					; size = 4
_calData$ = 12						; size = 4
_point$ = 16						; size = 4
?AbsoluteToRelative@CCoordinateCalculator@@QBE?AVCCoordinate@@ABVCCoordinateCalculatorData@@ABVCPoint@@@Z PROC ; CCoordinateCalculator::AbsoluteToRelative, COMDAT
; _this$ = ecx

; 31   : {

  00000	55		 push	 ebp
  00001	8b ec		 mov	 ebp, esp
  00003	6a ff		 push	 -1
  00005	68 00 00 00 00	 push	 __ehhandler$?AbsoluteToRelative@CCoordinateCalculator@@QBE?AVCCoordinate@@ABVCCoordinateCalculatorData@@ABVCPoint@@@Z
  0000a	64 a1 00 00 00
	00		 mov	 eax, DWORD PTR fs:0
  00010	50		 push	 eax
  00011	81 ec 88 00 00
	00		 sub	 esp, 136		; 00000088H
  00017	a1 00 00 00 00	 mov	 eax, DWORD PTR ___security_cookie
  0001c	33 c5		 xor	 eax, ebp
  0001e	89 45 f0	 mov	 DWORD PTR __$ArrayPad$[ebp], eax
  00021	53		 push	 ebx
  00022	56		 push	 esi
  00023	57		 push	 edi
  00024	50		 push	 eax
  00025	8d 45 f4	 lea	 eax, DWORD PTR __$EHRec$[ebp]
  00028	64 a3 00 00 00
	00		 mov	 DWORD PTR fs:0, eax
  0002e	89 4d c0	 mov	 DWORD PTR _this$GSCopy$1$[ebp], ecx
  00031	8b 5d 08	 mov	 ebx, DWORD PTR ___$ReturnUdt$[ebp]

; 32   : 	CCoordinate cdResult;

  00034	8d 4d 8c	 lea	 ecx, DWORD PTR _cdResult$[ebp]
  00037	8b 45 10	 mov	 eax, DWORD PTR _point$[ebp]
  0003a	8b 7d 0c	 mov	 edi, DWORD PTR _calData$[ebp]
  0003d	89 5d c8	 mov	 DWORD PTR ___$ReturnUdt$GSCopy$1$[ebp], ebx
  00040	89 5d c4	 mov	 DWORD PTR ___$ReturnUdt$GSCopy$[ebp], ebx
  00043	89 45 cc	 mov	 DWORD PTR _point$GSCopy$1$[ebp], eax
  00046	e8 00 00 00 00	 call	 ??0CCoordinate@@QAE@XZ	; CCoordinate::CCoordinate
; File D:\git\src\IBK\IBK_DRFN\ProjSrc\SrcChartEx\ChartAddIn\ChartAnalysisToolAddIn\Include_Analysis\CoordinateCalculatorData.h

; 128  : 							{	return m_pIChartManager && m_pIChartOCX && m_pIPacketListManager && m_pIDefaultPacketManager;	}

  0004b	83 7f 48 00	 cmp	 DWORD PTR [edi+72], 0
; File D:\git\src\IBK\IBK_DRFN\ProjSrc\SrcChartEx\ChartAddIn\ChartAnalysisToolAddIn\AnalysisTool\CoordinateCalculator.cpp

; 32   : 	CCoordinate cdResult;

  0004f	c7 45 fc 00 00
	00 00		 mov	 DWORD PTR __$EHRec$[ebp+8], 0
; File D:\git\src\IBK\IBK_DRFN\ProjSrc\SrcChartEx\ChartAddIn\ChartAnalysisToolAddIn\Include_Analysis\CoordinateCalculatorData.h

; 128  : 							{	return m_pIChartManager && m_pIChartOCX && m_pIPacketListManager && m_pIDefaultPacketManager;	}

  00056	0f 84 51 01 00
	00		 je	 $LN79@AbsoluteTo
  0005c	83 7f 4c 00	 cmp	 DWORD PTR [edi+76], 0
  00060	0f 84 47 01 00
	00		 je	 $LN79@AbsoluteTo
  00066	8b 4f 50	 mov	 ecx, DWORD PTR [edi+80]
  00069	85 c9		 test	 ecx, ecx
  0006b	0f 84 3c 01 00
	00		 je	 $LN79@AbsoluteTo
  00071	83 7f 54 00	 cmp	 DWORD PTR [edi+84], 0
  00075	0f 84 32 01 00
	00		 je	 $LN79@AbsoluteTo
; File D:\git\src\IBK\IBK_DRFN\ProjSrc\SrcChartEx\ChartAddIn\ChartAnalysisToolAddIn\AnalysisTool\CoordinateCalculator.cpp

; 35   : 	BOOL IsStringDataType = calData.m_pIPacketListManager->IsBasePacketString();

  0007b	8b 01		 mov	 eax, DWORD PTR [ecx]
  0007d	ff 50 28	 call	 DWORD PTR [eax+40]

; 36   : 	if( IsStringDataType)

  00080	8b cf		 mov	 ecx, edi
  00082	85 c0		 test	 eax, eax
  00084	0f 84 57 01 00
	00		 je	 $LN3@AbsoluteTo

; 37   : 	{
; 38   : 		IPacket *pIPacket = calData.GetPacket_X();

  0008a	e8 00 00 00 00	 call	 ?GetPacket_X@CCoordinateCalculatorData@@QBEPAUIPacket133101@@XZ ; CCoordinateCalculatorData::GetPacket_X
  0008f	8b f0		 mov	 esi, eax

; 392  : 	return (pPacket != NULL && pPacket->GetDataCount() > 0);

  00091	85 f6		 test	 esi, esi
  00093	0f 84 e5 00 00
	00		 je	 $LN32@AbsoluteTo
  00099	8b 16		 mov	 edx, DWORD PTR [esi]
  0009b	8b ce		 mov	 ecx, esi
  0009d	ff 52 2c	 call	 DWORD PTR [edx+44]
  000a0	85 c0		 test	 eax, eax
  000a2	0f 8e d6 00 00
	00		 jle	 $LN32@AbsoluteTo

; 40   : 		else
; 41   : 		{
; 42   : 			int nIndex = CDataConversion::GetPacketDataIndex_Date(calData.GetRegion(), point, 

  000a8	8b cf		 mov	 ecx, edi
  000aa	e8 00 00 00 00	 call	 ?GetDisplayDataEnd@CCoordinateCalculatorData@@QBEHXZ ; CCoordinateCalculatorData::GetDisplayDataEnd
  000af	50		 push	 eax
  000b0	8b cf		 mov	 ecx, edi
  000b2	e8 00 00 00 00	 call	 ?GetDisplayDataStart@CCoordinateCalculatorData@@QBEHXZ ; CCoordinateCalculatorData::GetDisplayDataStart
  000b7	50		 push	 eax
  000b8	ff 75 cc	 push	 DWORD PTR _point$GSCopy$1$[ebp]
  000bb	8d 45 e0	 lea	 eax, DWORD PTR $T11[ebp]
  000be	8b cf		 mov	 ecx, edi
  000c0	50		 push	 eax
  000c1	e8 00 00 00 00	 call	 ?GetRegion@CCoordinateCalculatorData@@QBE?AVCRect@@XZ ; CCoordinateCalculatorData::GetRegion
  000c6	50		 push	 eax
  000c7	e8 00 00 00 00	 call	 ?GetPacketDataIndex_Date@CDataConversion@@SAHABVCRect@@ABVCPoint@@HH@Z ; CDataConversion::GetPacketDataIndex_Date

; 43   : 						calData.GetDisplayDataStart(), calData.GetDisplayDataEnd());
; 44   : 			//nIndex = min(calData.GetDisplayDataEnd()+1,nIndex);
; 45   : 			double dX = 0.0;
; 46   : 			if( pIPacket) pIPacket->GetDataPastandFuture(nIndex, dX);

  000cc	8b 16		 mov	 edx, DWORD PTR [esi]
  000ce	8d 4d b4	 lea	 ecx, DWORD PTR _dX$5[ebp]
  000d1	83 c4 10	 add	 esp, 16			; 00000010H
  000d4	89 45 ec	 mov	 DWORD PTR _nIndex$1$[ebp], eax
  000d7	0f 57 c0	 xorps	 xmm0, xmm0
  000da	f2 0f 11 45 b4	 movsd	 QWORD PTR _dX$5[ebp], xmm0
  000df	51		 push	 ecx
  000e0	50		 push	 eax
  000e1	8b ce		 mov	 ecx, esi
  000e3	ff 52 44	 call	 DWORD PTR [edx+68]

; 47   : 			double dY = GetData_Y(calData, point, nIndex);

  000e6	8b 4d c0	 mov	 ecx, DWORD PTR _this$GSCopy$1$[ebp]
  000e9	ff 75 ec	 push	 DWORD PTR _nIndex$1$[ebp]
  000ec	ff 75 cc	 push	 DWORD PTR _point$GSCopy$1$[ebp]
  000ef	8b 01		 mov	 eax, DWORD PTR [ecx]
  000f1	57		 push	 edi
  000f2	8b 40 08	 mov	 eax, DWORD PTR [eax+8]
  000f5	ff d0		 call	 eax

; 49   : 			ILPCSTR szPacketType = pIPacket->GetType();

  000f7	8b 06		 mov	 eax, DWORD PTR [esi]
  000f9	8b ce		 mov	 ecx, esi
  000fb	6a 01		 push	 1
  000fd	dd 5d ac	 fstp	 QWORD PTR _dY$4[ebp]
  00100	ff 50 1c	 call	 DWORD PTR [eax+28]
; File D:\git\src\IBK\IBK_DRFN\ProjSrc\SrcChartEx\ChartAddIn\ChartAnalysisToolAddIn\Include_AddIn_133101\I133101\_IString.h

; 39   : 		m_pIStrData = p_pIString;	// Do not AddRef(). Because It must be Return Value.

  00103	8b f8		 mov	 edi, eax
  00105	89 7d c0	 mov	 DWORD PTR _szPacketType$6[ebp+4], edi

; 40   : 		if( m_pIStrData) m_szData = m_pIStrData->GetData();

  00108	85 ff		 test	 edi, edi
  0010a	74 09		 je	 SHORT $LN38@AbsoluteTo
  0010c	8b 17		 mov	 edx, DWORD PTR [edi]
  0010e	8b cf		 mov	 ecx, edi
  00110	ff 52 10	 call	 DWORD PTR [edx+16]
  00113	eb 02		 jmp	 SHORT $LN81@AbsoluteTo
$LN38@AbsoluteTo:

; 41   : 		else m_szData = NULL;

  00115	33 c0		 xor	 eax, eax
$LN81@AbsoluteTo:
; File D:\git\src\IBK\IBK_DRFN\ProjSrc\SrcChartEx\ChartAddIn\ChartAnalysisToolAddIn\AnalysisTool\CoordinateCalculator.cpp

; 49   : 			ILPCSTR szPacketType = pIPacket->GetType();

  00117	89 45 bc	 mov	 DWORD PTR _szPacketType$6[ebp], eax

; 50   : 			CString strPacketType( szPacketType);

  0011a	50		 push	 eax
  0011b	8d 4d c8	 lea	 ecx, DWORD PTR _strPacketType$7[ebp]
  0011e	c6 45 fc 02	 mov	 BYTE PTR __$EHRec$[ebp+8], 2
  00122	ff 15 00 00 00
	00		 call	 DWORD PTR __imp_??0?$CStringT@DV?$StrTraitMFC_DLL@DV?$ChTraitsCRT@D@ATL@@@@@ATL@@QAE@PBD@Z

; 51   : 			// 20081007 JS.Kim	사용자시간대 선택
; 52   : 			cdResult = CCoordinate(dX, dY, pIPacket->GetBaseTimeDifference(), strPacketType, nIndex); //0

  00128	ff 75 ec	 push	 DWORD PTR _nIndex$1$[ebp]
  0012b	8d 45 c8	 lea	 eax, DWORD PTR _strPacketType$7[ebp]
  0012e	c6 45 fc 03	 mov	 BYTE PTR __$EHRec$[ebp+8], 3
  00132	50		 push	 eax
  00133	8b 06		 mov	 eax, DWORD PTR [esi]
  00135	8b ce		 mov	 ecx, esi
  00137	ff 50 60	 call	 DWORD PTR [eax+96]
  0013a	50		 push	 eax
  0013b	8d 45 ac	 lea	 eax, DWORD PTR _dY$4[ebp]
  0013e	50		 push	 eax
  0013f	8d 45 b4	 lea	 eax, DWORD PTR _dX$5[ebp]
  00142	50		 push	 eax
  00143	8d 4d d0	 lea	 ecx, DWORD PTR $T9[ebp]
  00146	e8 00 00 00 00	 call	 ??0CCoordinate@@QAE@ABN0HABV?$CStringT@DV?$StrTraitMFC_DLL@DV?$ChTraitsCRT@D@ATL@@@@@ATL@@H@Z ; CCoordinate::CCoordinate
  0014b	50		 push	 eax
  0014c	8d 4d 8c	 lea	 ecx, DWORD PTR _cdResult$[ebp]
  0014f	c6 45 fc 04	 mov	 BYTE PTR __$EHRec$[ebp+8], 4
  00153	e8 00 00 00 00	 call	 ??4CCoordinate@@QAEAAV0@ABV0@@Z ; CCoordinate::operator=
  00158	8d 4d e4	 lea	 ecx, DWORD PTR $T9[ebp+20]
  0015b	ff 15 00 00 00
	00		 call	 DWORD PTR __imp_??1?$CStringT@DV?$StrTraitMFC_DLL@DV?$ChTraitsCRT@D@ATL@@@@@ATL@@QAE@XZ

; 53   : 		}

  00161	8d 4d c8	 lea	 ecx, DWORD PTR _strPacketType$7[ebp]
  00164	ff 15 00 00 00
	00		 call	 DWORD PTR __imp_??1?$CStringT@DV?$StrTraitMFC_DLL@DV?$ChTraitsCRT@D@ATL@@@@@ATL@@QAE@XZ
; File D:\git\src\IBK\IBK_DRFN\ProjSrc\SrcChartEx\ChartAddIn\ChartAnalysisToolAddIn\Include_AddIn_133101\I133101\_IString.h

; 44   : 	{

  0016a	c6 45 fc 05	 mov	 BYTE PTR __$EHRec$[ebp+8], 5

; 45   : 		if( m_pIStrData)

  0016e	85 ff		 test	 edi, edi
  00170	74 06		 je	 SHORT $LN45@AbsoluteTo

; 46   : 		{
; 47   : 			m_pIStrData->Release();

  00172	8b 07		 mov	 eax, DWORD PTR [edi]
  00174	57		 push	 edi
  00175	ff 50 08	 call	 DWORD PTR [eax+8]
$LN45@AbsoluteTo:

; 48   : 			m_pIStrData = NULL;
; 49   : 			m_szData = NULL;
; 50   : 		}
; 51   : 	}

  00178	c6 45 fc 00	 mov	 BYTE PTR __$EHRec$[ebp+8], 0
  0017c	eb 29		 jmp	 SHORT $LN78@AbsoluteTo
$LN32@AbsoluteTo:
; File D:\git\src\IBK\IBK_DRFN\ProjSrc\SrcChartEx\ChartAddIn\ChartAnalysisToolAddIn\AnalysisTool\CoordinateCalculator.cpp

; 39   : 		if( !IsCalculator( pIPacket)) cdResult = CCoordinate(point);

  0017e	ff 75 cc	 push	 DWORD PTR _point$GSCopy$1$[ebp]
  00181	8d 4d d0	 lea	 ecx, DWORD PTR $T10[ebp]
  00184	e8 00 00 00 00	 call	 ??0CCoordinate@@QAE@ABVCPoint@@@Z ; CCoordinate::CCoordinate
  00189	50		 push	 eax
  0018a	8d 4d 8c	 lea	 ecx, DWORD PTR _cdResult$[ebp]
  0018d	c6 45 fc 01	 mov	 BYTE PTR __$EHRec$[ebp+8], 1
  00191	e8 00 00 00 00	 call	 ??4CCoordinate@@QAEAAV0@ABV0@@Z ; CCoordinate::operator=
  00196	8d 4d e4	 lea	 ecx, DWORD PTR $T10[ebp+20]
  00199	c6 45 fc 00	 mov	 BYTE PTR __$EHRec$[ebp+8], 0
  0019d	ff 15 00 00 00
	00		 call	 DWORD PTR __imp_??1?$CStringT@DV?$StrTraitMFC_DLL@DV?$ChTraitsCRT@D@ATL@@@@@ATL@@QAE@XZ

; 54   : 		if( pIPacket) pIPacket->Release();

  001a3	85 f6		 test	 esi, esi
  001a5	74 06		 je	 SHORT $LN79@AbsoluteTo
$LN78@AbsoluteTo:
  001a7	8b 06		 mov	 eax, DWORD PTR [esi]
  001a9	56		 push	 esi
  001aa	ff 50 08	 call	 DWORD PTR [eax+8]
$LN79@AbsoluteTo:

; 60   : 	if( !pIPacket) return cdResult;

  001ad	8d 45 8c	 lea	 eax, DWORD PTR _cdResult$[ebp]
  001b0	8b cb		 mov	 ecx, ebx
  001b2	50		 push	 eax
  001b3	e8 00 00 00 00	 call	 ??0CCoordinate@@QAE@ABV0@@Z ; CCoordinate::CCoordinate
  001b8	8d 4d a0	 lea	 ecx, DWORD PTR _cdResult$[ebp+20]
  001bb	ff 15 00 00 00
	00		 call	 DWORD PTR __imp_??1?$CStringT@DV?$StrTraitMFC_DLL@DV?$ChTraitsCRT@D@ATL@@@@@ATL@@QAE@XZ
  001c1	8b c3		 mov	 eax, ebx
$LN1@AbsoluteTo:

; 83   : }

  001c3	8b 4d f4	 mov	 ecx, DWORD PTR __$EHRec$[ebp]
  001c6	64 89 0d 00 00
	00 00		 mov	 DWORD PTR fs:0, ecx
  001cd	59		 pop	 ecx
  001ce	5f		 pop	 edi
  001cf	5e		 pop	 esi
  001d0	5b		 pop	 ebx
  001d1	8b 4d f0	 mov	 ecx, DWORD PTR __$ArrayPad$[ebp]
  001d4	33 cd		 xor	 ecx, ebp
  001d6	e8 00 00 00 00	 call	 @__security_check_cookie@4
  001db	8b e5		 mov	 esp, ebp
  001dd	5d		 pop	 ebp
  001de	c2 0c 00	 ret	 12			; 0000000cH
$LN3@AbsoluteTo:

; 55   : 		return cdResult;
; 56   : 	}
; 57   : 
; 58   : 	// XScale : 관련 Interface로 사용 - vntsorl(20070410)
; 59   : 	IPacket *pIPacket = calData.GetPacket_X();

  001e1	e8 00 00 00 00	 call	 ?GetPacket_X@CCoordinateCalculatorData@@QBEPAUIPacket133101@@XZ ; CCoordinateCalculatorData::GetPacket_X
  001e6	8b f0		 mov	 esi, eax

; 60   : 	if( !pIPacket) return cdResult;

  001e8	85 f6		 test	 esi, esi
  001ea	74 c1		 je	 SHORT $LN79@AbsoluteTo

; 61   : 	ILPCSTR szPacketType = pIPacket->GetType();

  001ec	8b 16		 mov	 edx, DWORD PTR [esi]
  001ee	8b ce		 mov	 ecx, esi
  001f0	6a 01		 push	 1
  001f2	ff 52 1c	 call	 DWORD PTR [edx+28]
; File D:\git\src\IBK\IBK_DRFN\ProjSrc\SrcChartEx\ChartAddIn\ChartAnalysisToolAddIn\Include_AddIn_133101\I133101\_IString.h

; 39   : 		m_pIStrData = p_pIString;	// Do not AddRef(). Because It must be Return Value.

  001f5	8b d8		 mov	 ebx, eax
  001f7	89 5d b8	 mov	 DWORD PTR _szPacketType$[ebp+4], ebx

; 40   : 		if( m_pIStrData) m_szData = m_pIStrData->GetData();

  001fa	85 db		 test	 ebx, ebx
  001fc	74 09		 je	 SHORT $LN55@AbsoluteTo
  001fe	8b 13		 mov	 edx, DWORD PTR [ebx]
  00200	8b cb		 mov	 ecx, ebx
  00202	ff 52 10	 call	 DWORD PTR [edx+16]
  00205	eb 02		 jmp	 SHORT $LN82@AbsoluteTo
$LN55@AbsoluteTo:

; 41   : 		else m_szData = NULL;

  00207	33 c0		 xor	 eax, eax
$LN82@AbsoluteTo:
; File D:\git\src\IBK\IBK_DRFN\ProjSrc\SrcChartEx\ChartAddIn\ChartAnalysisToolAddIn\AnalysisTool\CoordinateCalculator.cpp

; 61   : 	ILPCSTR szPacketType = pIPacket->GetType();

  00209	89 45 b4	 mov	 DWORD PTR _szPacketType$[ebp], eax

; 62   : 	CString strPacketType( szPacketType);

  0020c	50		 push	 eax
  0020d	8d 4d c4	 lea	 ecx, DWORD PTR _strPacketType$[ebp]
  00210	c6 45 fc 06	 mov	 BYTE PTR __$EHRec$[ebp+8], 6
  00214	ff 15 00 00 00
	00		 call	 DWORD PTR __imp_??0?$CStringT@DV?$StrTraitMFC_DLL@DV?$ChTraitsCRT@D@ATL@@@@@ATL@@QAE@PBD@Z

; 392  : 	return (pPacket != NULL && pPacket->GetDataCount() > 0);

  0021a	8b 06		 mov	 eax, DWORD PTR [esi]
  0021c	8b ce		 mov	 ecx, esi

; 62   : 	CString strPacketType( szPacketType);

  0021e	c6 45 fc 07	 mov	 BYTE PTR __$EHRec$[ebp+8], 7

; 392  : 	return (pPacket != NULL && pPacket->GetDataCount() > 0);

  00222	ff 50 2c	 call	 DWORD PTR [eax+44]
  00225	85 c0		 test	 eax, eax
  00227	7f 1d		 jg	 SHORT $LN9@AbsoluteTo

; 63   : 	// 분차트 근접시간 적용 - ojtaso (20080811)
; 64   : 	// 20081007 JS.Kim	사용자시간대 선택
; 65   : 
; 66   : 	// 기존소스.
; 67   : 	//if( !IsCalculator( pIPacket))	
; 68   : 	//	cdResult = CCoordinate(point);
; 69   : 	//else				
; 70   : 	//	cdResult = CCoordinate(GetData_X(calData, point, 0), GetData_Y(calData, point, 0), pIPacket->GetBaseTimeDifference(), strPacketType, 0);
; 71   : 	
; 72   : 	if( !IsCalculator( pIPacket))	
; 73   : 		cdResult = CCoordinate(point);

  00229	ff 75 cc	 push	 DWORD PTR _point$GSCopy$1$[ebp]
  0022c	8d 4d d0	 lea	 ecx, DWORD PTR $T8[ebp]
  0022f	e8 00 00 00 00	 call	 ??0CCoordinate@@QAE@ABVCPoint@@@Z ; CCoordinate::CCoordinate
  00234	50		 push	 eax
  00235	8d 4d 8c	 lea	 ecx, DWORD PTR _cdResult$[ebp]
  00238	c6 45 fc 08	 mov	 BYTE PTR __$EHRec$[ebp+8], 8
  0023c	e8 00 00 00 00	 call	 ??4CCoordinate@@QAEAAV0@ABV0@@Z ; CCoordinate::operator=
  00241	8d 4d e4	 lea	 ecx, DWORD PTR $T8[ebp+20]
  00244	eb 56		 jmp	 SHORT $LN83@AbsoluteTo
$LN9@AbsoluteTo:

; 74   : 	else				
; 75   : 	{
; 76   : 		double dDataX = GetData_X(calData, point, 0);

  00246	8b 4d c0	 mov	 ecx, DWORD PTR _this$GSCopy$1$[ebp]
  00249	6a 00		 push	 0
  0024b	ff 75 cc	 push	 DWORD PTR _point$GSCopy$1$[ebp]
  0024e	8b 01		 mov	 eax, DWORD PTR [ecx]
  00250	57		 push	 edi
  00251	8b 00		 mov	 eax, DWORD PTR [eax]
  00253	ff d0		 call	 eax

; 77   : 		double dDataY = GetData_Y(calData, point, 0);

  00255	8b 4d c0	 mov	 ecx, DWORD PTR _this$GSCopy$1$[ebp]
  00258	6a 00		 push	 0
  0025a	ff 75 cc	 push	 DWORD PTR _point$GSCopy$1$[ebp]
  0025d	dd 5d e8	 fstp	 QWORD PTR _dDataX$12[ebp]
  00260	8b 01		 mov	 eax, DWORD PTR [ecx]
  00262	57		 push	 edi
  00263	8b 40 08	 mov	 eax, DWORD PTR [eax+8]
  00266	ff d0		 call	 eax

; 78   : 		int nTimeDiff = pIPacket->GetBaseTimeDifference();

  00268	8b 06		 mov	 eax, DWORD PTR [esi]
  0026a	8b ce		 mov	 ecx, esi
  0026c	dd 5d ac	 fstp	 QWORD PTR _dDataY$3[ebp]
  0026f	ff 50 60	 call	 DWORD PTR [eax+96]

; 79   : 		cdResult = CCoordinate(dDataX, dDataY, nTimeDiff, strPacketType, 0);

  00272	6a 00		 push	 0
  00274	8d 4d c4	 lea	 ecx, DWORD PTR _strPacketType$[ebp]
  00277	51		 push	 ecx
  00278	50		 push	 eax
  00279	8d 45 ac	 lea	 eax, DWORD PTR _dDataY$3[ebp]
  0027c	50		 push	 eax
  0027d	8d 45 e8	 lea	 eax, DWORD PTR _dDataX$12[ebp]
  00280	50		 push	 eax
  00281	8d 8d 6c ff ff
	ff		 lea	 ecx, DWORD PTR $T2[ebp]
  00287	e8 00 00 00 00	 call	 ??0CCoordinate@@QAE@ABN0HABV?$CStringT@DV?$StrTraitMFC_DLL@DV?$ChTraitsCRT@D@ATL@@@@@ATL@@H@Z ; CCoordinate::CCoordinate
  0028c	50		 push	 eax
  0028d	8d 4d 8c	 lea	 ecx, DWORD PTR _cdResult$[ebp]
  00290	c6 45 fc 09	 mov	 BYTE PTR __$EHRec$[ebp+8], 9
  00294	e8 00 00 00 00	 call	 ??4CCoordinate@@QAEAAV0@ABV0@@Z ; CCoordinate::operator=
  00299	8d 4d 80	 lea	 ecx, DWORD PTR $T2[ebp+20]
$LN83@AbsoluteTo:

; 80   : 	}
; 81   : 	pIPacket->Release();

  0029c	c6 45 fc 07	 mov	 BYTE PTR __$EHRec$[ebp+8], 7
  002a0	ff 15 00 00 00
	00		 call	 DWORD PTR __imp_??1?$CStringT@DV?$StrTraitMFC_DLL@DV?$ChTraitsCRT@D@ATL@@@@@ATL@@QAE@XZ
  002a6	8b 06		 mov	 eax, DWORD PTR [esi]
  002a8	56		 push	 esi
  002a9	ff 50 08	 call	 DWORD PTR [eax+8]

; 82   : 	return cdResult;

  002ac	8b 75 c8	 mov	 esi, DWORD PTR ___$ReturnUdt$GSCopy$1$[ebp]
  002af	8d 45 8c	 lea	 eax, DWORD PTR _cdResult$[ebp]
  002b2	50		 push	 eax
  002b3	8b ce		 mov	 ecx, esi
  002b5	e8 00 00 00 00	 call	 ??0CCoordinate@@QAE@ABV0@@Z ; CCoordinate::CCoordinate
  002ba	8d 4d c4	 lea	 ecx, DWORD PTR _strPacketType$[ebp]
  002bd	ff 15 00 00 00
	00		 call	 DWORD PTR __imp_??1?$CStringT@DV?$StrTraitMFC_DLL@DV?$ChTraitsCRT@D@ATL@@@@@ATL@@QAE@XZ
; File D:\git\src\IBK\IBK_DRFN\ProjSrc\SrcChartEx\ChartAddIn\ChartAnalysisToolAddIn\Include_AddIn_133101\I133101\_IString.h

; 44   : 	{

  002c3	c6 45 fc 0a	 mov	 BYTE PTR __$EHRec$[ebp+8], 10 ; 0000000aH

; 45   : 		if( m_pIStrData)

  002c7	85 db		 test	 ebx, ebx
  002c9	74 06		 je	 SHORT $LN69@AbsoluteTo

; 46   : 		{
; 47   : 			m_pIStrData->Release();

  002cb	8b 0b		 mov	 ecx, DWORD PTR [ebx]
  002cd	53		 push	 ebx
  002ce	ff 51 08	 call	 DWORD PTR [ecx+8]
$LN69@AbsoluteTo:
  002d1	8d 4d a0	 lea	 ecx, DWORD PTR _cdResult$[ebp+20]
  002d4	ff 15 00 00 00
	00		 call	 DWORD PTR __imp_??1?$CStringT@DV?$StrTraitMFC_DLL@DV?$ChTraitsCRT@D@ATL@@@@@ATL@@QAE@XZ
; File D:\git\src\IBK\IBK_DRFN\ProjSrc\SrcChartEx\ChartAddIn\ChartAnalysisToolAddIn\AnalysisTool\CoordinateCalculator.cpp

; 82   : 	return cdResult;

  002da	8b c6		 mov	 eax, esi
  002dc	e9 e2 fe ff ff	 jmp	 $LN1@AbsoluteTo
_TEXT	ENDS
;	COMDAT text$x
text$x	SEGMENT
__unwindfunclet$?AbsoluteToRelative@CCoordinateCalculator@@QBE?AVCCoordinate@@ABVCCoordinateCalculatorData@@ABVCPoint@@@Z$0:
  00000	8d 4d 8c	 lea	 ecx, DWORD PTR _cdResult$[ebp]
  00003	e9 00 00 00 00	 jmp	 ??1CCoordinate@@QAE@XZ
__unwindfunclet$?AbsoluteToRelative@CCoordinateCalculator@@QBE?AVCCoordinate@@ABVCCoordinateCalculatorData@@ABVCPoint@@@Z$3:
  00008	8d 4d bc	 lea	 ecx, DWORD PTR _szPacketType$6[ebp]
  0000b	e9 00 00 00 00	 jmp	 ??1ILPCSTR133101@@QAE@XZ ; ILPCSTR133101::~ILPCSTR133101
__unwindfunclet$?AbsoluteToRelative@CCoordinateCalculator@@QBE?AVCCoordinate@@ABVCCoordinateCalculatorData@@ABVCPoint@@@Z$4:
  00010	8d 4d c8	 lea	 ecx, DWORD PTR _strPacketType$7[ebp]
  00013	ff 25 00 00 00
	00		 jmp	 DWORD PTR __imp_??1?$CStringT@DV?$StrTraitMFC_DLL@DV?$ChTraitsCRT@D@ATL@@@@@ATL@@QAE@XZ
__unwindfunclet$?AbsoluteToRelative@CCoordinateCalculator@@QBE?AVCCoordinate@@ABVCCoordinateCalculatorData@@ABVCPoint@@@Z$5:
  00019	8d 4d d0	 lea	 ecx, DWORD PTR $T9[ebp]
  0001c	e9 00 00 00 00	 jmp	 ??1CCoordinate@@QAE@XZ
__unwindfunclet$?AbsoluteToRelative@CCoordinateCalculator@@QBE?AVCCoordinate@@ABVCCoordinateCalculatorData@@ABVCPoint@@@Z$2:
  00021	8d 4d d0	 lea	 ecx, DWORD PTR $T10[ebp]
  00024	e9 00 00 00 00	 jmp	 ??1CCoordinate@@QAE@XZ
__unwindfunclet$?AbsoluteToRelative@CCoordinateCalculator@@QBE?AVCCoordinate@@ABVCCoordinateCalculatorData@@ABVCPoint@@@Z$6:
  00029	8d 4d b4	 lea	 ecx, DWORD PTR _szPacketType$[ebp]
  0002c	e9 00 00 00 00	 jmp	 ??1ILPCSTR133101@@QAE@XZ ; ILPCSTR133101::~ILPCSTR133101
__unwindfunclet$?AbsoluteToRelative@CCoordinateCalculator@@QBE?AVCCoordinate@@ABVCCoordinateCalculatorData@@ABVCPoint@@@Z$7:
  00031	8d 4d c4	 lea	 ecx, DWORD PTR _strPacketType$[ebp]
  00034	ff 25 00 00 00
	00		 jmp	 DWORD PTR __imp_??1?$CStringT@DV?$StrTraitMFC_DLL@DV?$ChTraitsCRT@D@ATL@@@@@ATL@@QAE@XZ
__unwindfunclet$?AbsoluteToRelative@CCoordinateCalculator@@QBE?AVCCoordinate@@ABVCCoordinateCalculatorData@@ABVCPoint@@@Z$8:
  0003a	8d 4d d0	 lea	 ecx, DWORD PTR $T8[ebp]
  0003d	e9 00 00 00 00	 jmp	 ??1CCoordinate@@QAE@XZ
__unwindfunclet$?AbsoluteToRelative@CCoordinateCalculator@@QBE?AVCCoordinate@@ABVCCoordinateCalculatorData@@ABVCPoint@@@Z$9:
  00042	8d 8d 6c ff ff
	ff		 lea	 ecx, DWORD PTR $T2[ebp]
  00048	e9 00 00 00 00	 jmp	 ??1CCoordinate@@QAE@XZ
  0004d	cc		 int	 3
  0004e	cc		 int	 3
  0004f	cc		 int	 3
  00050	cc		 int	 3
  00051	cc		 int	 3
__ehhandler$?AbsoluteToRelative@CCoordinateCalculator@@QBE?AVCCoordinate@@ABVCCoordinateCalculatorData@@ABVCPoint@@@Z:
  00052	90		 npad	 1
  00053	90		 npad	 1
  00054	8b 54 24 08	 mov	 edx, DWORD PTR [esp+8]
  00058	8d 42 0c	 lea	 eax, DWORD PTR [edx+12]
  0005b	8b 8a 68 ff ff
	ff		 mov	 ecx, DWORD PTR [edx-152]
  00061	33 c8		 xor	 ecx, eax
  00063	e8 00 00 00 00	 call	 @__security_check_cookie@4
  00068	8b 4a fc	 mov	 ecx, DWORD PTR [edx-4]
  0006b	33 c8		 xor	 ecx, eax
  0006d	e8 00 00 00 00	 call	 @__security_check_cookie@4
  00072	b8 00 00 00 00	 mov	 eax, OFFSET __ehfuncinfo$?AbsoluteToRelative@CCoordinateCalculator@@QBE?AVCCoordinate@@ABVCCoordinateCalculatorData@@ABVCPoint@@@Z
  00077	e9 00 00 00 00	 jmp	 ___CxxFrameHandler3
text$x	ENDS
?AbsoluteToRelative@CCoordinateCalculator@@QBE?AVCCoordinate@@ABVCCoordinateCalculatorData@@ABVCPoint@@@Z ENDP ; CCoordinateCalculator::AbsoluteToRelative
; Function compile flags: /Ogtp
; File D:\git\src\IBK\IBK_DRFN\ProjSrc\SrcChartEx\ChartAddIn\ChartAnalysisToolAddIn\Include_AddIn_133101\I133101\_IString.h
;	COMDAT ??1ILPCSTR133101@@QAE@XZ
_TEXT	SEGMENT
__$EHRec$ = -12						; size = 12
??1ILPCSTR133101@@QAE@XZ PROC				; ILPCSTR133101::~ILPCSTR133101, COMDAT
; _this$ = ecx

; 44   : 	{

  00000	55		 push	 ebp
  00001	8b ec		 mov	 ebp, esp
  00003	6a ff		 push	 -1
  00005	68 00 00 00 00	 push	 __ehhandler$??1ILPCSTR133101@@QAE@XZ
  0000a	64 a1 00 00 00
	00		 mov	 eax, DWORD PTR fs:0
  00010	50		 push	 eax
  00011	56		 push	 esi
  00012	a1 00 00 00 00	 mov	 eax, DWORD PTR ___security_cookie
  00017	33 c5		 xor	 eax, ebp
  00019	50		 push	 eax
  0001a	8d 45 f4	 lea	 eax, DWORD PTR __$EHRec$[ebp]
  0001d	64 a3 00 00 00
	00		 mov	 DWORD PTR fs:0, eax
  00023	8b f1		 mov	 esi, ecx

; 45   : 		if( m_pIStrData)

  00025	8b 4e 04	 mov	 ecx, DWORD PTR [esi+4]
  00028	85 c9		 test	 ecx, ecx
  0002a	74 13		 je	 SHORT $LN2@ILPCSTR133

; 46   : 		{
; 47   : 			m_pIStrData->Release();

  0002c	8b 01		 mov	 eax, DWORD PTR [ecx]
  0002e	51		 push	 ecx
  0002f	ff 50 08	 call	 DWORD PTR [eax+8]

; 48   : 			m_pIStrData = NULL;

  00032	c7 46 04 00 00
	00 00		 mov	 DWORD PTR [esi+4], 0

; 49   : 			m_szData = NULL;

  00039	c7 06 00 00 00
	00		 mov	 DWORD PTR [esi], 0
$LN2@ILPCSTR133:

; 50   : 		}
; 51   : 	}

  0003f	8b 4d f4	 mov	 ecx, DWORD PTR __$EHRec$[ebp]
  00042	64 89 0d 00 00
	00 00		 mov	 DWORD PTR fs:0, ecx
  00049	59		 pop	 ecx
  0004a	5e		 pop	 esi
  0004b	8b e5		 mov	 esp, ebp
  0004d	5d		 pop	 ebp
  0004e	c3		 ret	 0
  0004f	cc		 int	 3
  00050	cc		 int	 3
  00051	cc		 int	 3
  00052	cc		 int	 3
  00053	cc		 int	 3
_TEXT	ENDS
;	COMDAT text$x
text$x	SEGMENT
__ehhandler$??1ILPCSTR133101@@QAE@XZ:
  00000	90		 npad	 1
  00001	90		 npad	 1
  00002	8b 54 24 08	 mov	 edx, DWORD PTR [esp+8]
  00006	8d 42 0c	 lea	 eax, DWORD PTR [edx+12]
  00009	8b 4a f8	 mov	 ecx, DWORD PTR [edx-8]
  0000c	33 c8		 xor	 ecx, eax
  0000e	e8 00 00 00 00	 call	 @__security_check_cookie@4
  00013	b8 00 00 00 00	 mov	 eax, OFFSET __ehfuncinfo$??1ILPCSTR133101@@QAE@XZ
  00018	e9 00 00 00 00	 jmp	 ___CxxFrameHandler3
text$x	ENDS
??1ILPCSTR133101@@QAE@XZ ENDP				; ILPCSTR133101::~ILPCSTR133101
; Function compile flags: /Ogtp
; File D:\git\src\IBK\IBK_DRFN\ProjSrc\SrcChartEx\ChartAddIn\ChartAnalysisToolAddIn\AnalysisTool\CoordinateCalculator.cpp
;	COMDAT ?__empty_global_delete@@YAXPAXI@Z
_TEXT	SEGMENT
___formal$ = 8						; size = 4
___formal$ = 12						; size = 4
?__empty_global_delete@@YAXPAXI@Z PROC			; __empty_global_delete, COMDAT

  00000	c2 00 00	 ret	 0
?__empty_global_delete@@YAXPAXI@Z ENDP			; __empty_global_delete
_TEXT	ENDS
; Function compile flags: /Ogtp
; File D:\git\src\IBK\IBK_DRFN\ProjSrc\SrcChartEx\ChartAddIn\ChartAnalysisToolAddIn\AnalysisTool\CoordinateCalculator.cpp
;	COMDAT ?__empty_global_delete@@YAXPAX@Z
_TEXT	SEGMENT
___formal$ = 8						; size = 4
?__empty_global_delete@@YAXPAX@Z PROC			; __empty_global_delete, COMDAT

  00000	c2 00 00	 ret	 0
?__empty_global_delete@@YAXPAX@Z ENDP			; __empty_global_delete
_TEXT	ENDS
END
