; Listing generated by Microsoft (R) Optimizing Compiler Version 19.29.30145.0 

	TITLE	D:\git\src\IBK\IBK_DRFN\#DRfn-CS\_Obj\AnalysisTool\Coordinate.obj
	.686P
	.XMM
	include listing.inc
	.model	flat

INCLUDELIB MSVCRT
INCLUDELIB OLDNAMES

PUBLIC	?__empty_global_delete@@YAXPAX@Z		; __empty_global_delete
PUBLIC	?__empty_global_delete@@YAXPAXI@Z		; __empty_global_delete
PUBLIC	??0exception@std@@QAE@ABV01@@Z			; std::exception::exception
PUBLIC	??1exception@std@@UAE@XZ			; std::exception::~exception
PUBLIC	?what@exception@std@@UBEPBDXZ			; std::exception::what
PUBLIC	??_Gexception@std@@UAEPAXI@Z			; std::exception::`scalar deleting destructor'
PUBLIC	??0bad_alloc@std@@QAE@ABV01@@Z			; std::bad_alloc::bad_alloc
PUBLIC	??_Gbad_alloc@std@@UAEPAXI@Z			; std::bad_alloc::`scalar deleting destructor'
PUBLIC	??0bad_array_new_length@std@@QAE@XZ		; std::bad_array_new_length::bad_array_new_length
PUBLIC	??1bad_array_new_length@std@@UAE@XZ		; std::bad_array_new_length::~bad_array_new_length
PUBLIC	??0bad_array_new_length@std@@QAE@ABV01@@Z	; std::bad_array_new_length::bad_array_new_length
PUBLIC	??_Gbad_array_new_length@std@@UAEPAXI@Z		; std::bad_array_new_length::`scalar deleting destructor'
PUBLIC	?_Throw_bad_array_new_length@std@@YAXXZ		; std::_Throw_bad_array_new_length
PUBLIC	??4CCoordinate@@QAEAAV0@ABV0@@Z			; CCoordinate::operator=
PUBLIC	??8CCoordinate@@QAE_NABV0@@Z			; CCoordinate::operator==
PUBLIC	??9CCoordinate@@QAE_NABV0@@Z			; CCoordinate::operator!=
PUBLIC	??0CCoordinate@@QAE@XZ				; CCoordinate::CCoordinate
PUBLIC	??0CCoordinate@@QAE@ABN0HABV?$CStringT@DV?$StrTraitMFC_DLL@DV?$ChTraitsCRT@D@ATL@@@@@ATL@@H@Z ; CCoordinate::CCoordinate
PUBLIC	??0CCoordinate@@QAE@ABVCPoint@@@Z		; CCoordinate::CCoordinate
PUBLIC	??0CCoordinate@@QAE@ABV0@@Z			; CCoordinate::CCoordinate
PUBLIC	?GetX@CCoordinate@@QBENXZ			; CCoordinate::GetX
PUBLIC	?GetY@CCoordinate@@QBENXZ			; CCoordinate::GetY
PUBLIC	?GetIndex@CCoordinate@@QBEHXZ			; CCoordinate::GetIndex
PUBLIC	?GetPixel@CCoordinate@@QBE?AVCPoint@@XZ		; CCoordinate::GetPixel
PUBLIC	?GetDateType@CCoordinate@@QBE?AV?$CStringT@DV?$StrTraitMFC_DLL@DV?$ChTraitsCRT@D@ATL@@@@@ATL@@XZ ; CCoordinate::GetDateType
PUBLIC	?GetTimeDiff@CCoordinate@@QBEHXZ		; CCoordinate::GetTimeDiff
PUBLIC	?SetIndex@CCoordinate@@QAEXH@Z			; CCoordinate::SetIndex
PUBLIC	?SetX@CCoordinate@@QAEXABNH@Z			; CCoordinate::SetX
PUBLIC	?SetY@CCoordinate@@QAEXABN@Z			; CCoordinate::SetY
PUBLIC	?SetDateType@CCoordinate@@QAEXAAV?$CStringT@DV?$StrTraitMFC_DLL@DV?$ChTraitsCRT@D@ATL@@@@@ATL@@@Z ; CCoordinate::SetDateType
PUBLIC	?SetTimeDiff@CCoordinate@@QAEXH@Z		; CCoordinate::SetTimeDiff
PUBLIC	??1CCoordinate@@QAE@XZ				; CCoordinate::~CCoordinate
PUBLIC	??4CPoints@@QAEAAV0@ABV0@@Z			; CPoints::operator=
PUBLIC	??8CPoints@@QAE_NABV0@@Z			; CPoints::operator==
PUBLIC	??9CPoints@@QAE_NABV0@@Z			; CPoints::operator!=
PUBLIC	??0CPoints@@QAE@XZ				; CPoints::CPoints
PUBLIC	??0CPoints@@QAE@ABVCCoordinate@@ABVCPoint@@@Z	; CPoints::CPoints
PUBLIC	?SetPoints@CPoints@@QAEXABVCCoordinate@@ABVCPoint@@@Z ; CPoints::SetPoints
PUBLIC	?SetDrawingPoints@CPoints@@QAEXABVCPoint@@@Z	; CPoints::SetDrawingPoints
PUBLIC	?SetPoints_Point_Y@CPoints@@QAEXABH@Z		; CPoints::SetPoints_Point_Y
PUBLIC	?SetPoints_Value_Y@CPoints@@QAEXABN@Z		; CPoints::SetPoints_Value_Y
PUBLIC	?GetSavingPoint@CPoints@@QBE?AVCCoordinate@@XZ	; CPoints::GetSavingPoint
PUBLIC	?GetDrawingPoint@CPoints@@QBE?AVCPoint@@XZ	; CPoints::GetDrawingPoint
PUBLIC	??1CPoints@@QAE@XZ				; CPoints::~CPoints
PUBLIC	??4CPointsList@@QAEAAV0@ABV0@@Z			; CPointsList::operator=
PUBLIC	??8CPointsList@@QAE_NABV0@@Z			; CPointsList::operator==
PUBLIC	??9CPointsList@@QAE_NABV0@@Z			; CPointsList::operator!=
PUBLIC	??0CPointsList@@QAE@XZ				; CPointsList::CPointsList
PUBLIC	??0CPointsList@@QAE@ABV0@@Z			; CPointsList::CPointsList
PUBLIC	?AddPoints@CPointsList@@QAEXABVCPoints@@@Z	; CPointsList::AddPoints
PUBLIC	?RemoveAll@CPointsList@@QAEXXZ			; CPointsList::RemoveAll
PUBLIC	?RemoveAt@CPointsList@@QAE_NH@Z			; CPointsList::RemoveAt
PUBLIC	?SetPointsList@CPointsList@@QAEXABV1@@Z		; CPointsList::SetPointsList
PUBLIC	?GetCount@CPointsList@@QBEHXZ			; CPointsList::GetCount
PUBLIC	?GetAt@CPointsList@@QBE?AVCPoints@@H@Z		; CPointsList::GetAt
PUBLIC	?GetAt@CPointsList@@QAEAAVCPoints@@H@Z		; CPointsList::GetAt
PUBLIC	??1?$CDequeList@VCPoints@@@@QAE@XZ		; CDequeList<CPoints>::~CDequeList<CPoints>
PUBLIC	?erase@?$deque@VCPoints@@V?$allocator@VCPoints@@@std@@@std@@QAE?AV?$_Deque_iterator@V?$_Deque_val@U?$_Deque_simple_types@VCPoints@@@std@@@std@@@2@V?$_Deque_const_iterator@V?$_Deque_val@U?$_Deque_simple_types@VCPoints@@@std@@@std@@@2@0@Z ; std::deque<CPoints,std::allocator<CPoints> >::erase
PUBLIC	?_Xlen@?$deque@VCPoints@@V?$allocator@VCPoints@@@std@@@std@@ABEXXZ ; std::deque<CPoints,std::allocator<CPoints> >::_Xlen
PUBLIC	?_Growmap@?$deque@VCPoints@@V?$allocator@VCPoints@@@std@@@std@@AAEXI@Z ; std::deque<CPoints,std::allocator<CPoints> >::_Growmap
PUBLIC	?_Tidy@?$deque@VCPoints@@V?$allocator@VCPoints@@@std@@@std@@AAEXXZ ; std::deque<CPoints,std::allocator<CPoints> >::_Tidy
PUBLIC	?AddTail@?$CDequeList@VCPoints@@@@QAEXABVCPoints@@@Z ; CDequeList<CPoints>::AddTail
PUBLIC	?HavingIndex@CPointsList@@ABE_NH@Z		; CPointsList::HavingIndex
PUBLIC	??$uninitialized_copy@PAPAVCPoints@@PAPAV1@@std@@YAPAPAVCPoints@@QAPAV1@0PAPAV1@@Z ; std::uninitialized_copy<CPoints * *,CPoints * *>
PUBLIC	??$_Uninitialized_value_construct_n_unchecked1@PAPAVCPoints@@I@std@@YAPAPAVCPoints@@PAPAV1@I@Z ; std::_Uninitialized_value_construct_n_unchecked1<CPoints * *,unsigned int>
PUBLIC	??$_Allocate_manually_vector_aligned@U_Default_allocate_traits@std@@@std@@YAPAXI@Z ; std::_Allocate_manually_vector_aligned<std::_Default_allocate_traits>
PUBLIC	??$_Zero_range@PAPAVCPoints@@@std@@YAPAPAVCPoints@@QAPAV1@0@Z ; std::_Zero_range<CPoints * *>
PUBLIC	??$_Copy_memmove@PAPAVCPoints@@PAPAV1@@std@@YAPAPAVCPoints@@PAPAV1@00@Z ; std::_Copy_memmove<CPoints * *,CPoints * *>
PUBLIC	??_7exception@std@@6B@				; std::exception::`vftable'
PUBLIC	??_C@_0BC@EOODALEL@Unknown?5exception@		; `string'
PUBLIC	??_7bad_alloc@std@@6B@				; std::bad_alloc::`vftable'
PUBLIC	??_7bad_array_new_length@std@@6B@		; std::bad_array_new_length::`vftable'
PUBLIC	??_C@_0BF@KINCDENJ@bad?5array?5new?5length@	; `string'
PUBLIC	__TI3?AVbad_array_new_length@std@@
PUBLIC	__CTA3?AVbad_array_new_length@std@@
PUBLIC	??_R0?AVbad_array_new_length@std@@@8		; std::bad_array_new_length `RTTI Type Descriptor'
PUBLIC	__CT??_R0?AVbad_array_new_length@std@@@8??0bad_array_new_length@std@@QAE@ABV01@@Z12
PUBLIC	??_R0?AVbad_alloc@std@@@8			; std::bad_alloc `RTTI Type Descriptor'
PUBLIC	__CT??_R0?AVbad_alloc@std@@@8??0bad_alloc@std@@QAE@ABV01@@Z12
PUBLIC	??_R0?AVexception@std@@@8			; std::exception `RTTI Type Descriptor'
PUBLIC	__CT??_R0?AVexception@std@@@8??0exception@std@@QAE@ABV01@@Z12
PUBLIC	??_C@_0BC@KBDMBKEH@deque?$DMT?$DO?5too?5long@	; `string'
PUBLIC	??_R4exception@std@@6B@				; std::exception::`RTTI Complete Object Locator'
PUBLIC	??_R3exception@std@@8				; std::exception::`RTTI Class Hierarchy Descriptor'
PUBLIC	??_R2exception@std@@8				; std::exception::`RTTI Base Class Array'
PUBLIC	??_R1A@?0A@EA@exception@std@@8			; std::exception::`RTTI Base Class Descriptor at (0,-1,0,64)'
PUBLIC	??_R4bad_alloc@std@@6B@				; std::bad_alloc::`RTTI Complete Object Locator'
PUBLIC	??_R3bad_alloc@std@@8				; std::bad_alloc::`RTTI Class Hierarchy Descriptor'
PUBLIC	??_R2bad_alloc@std@@8				; std::bad_alloc::`RTTI Base Class Array'
PUBLIC	??_R1A@?0A@EA@bad_alloc@std@@8			; std::bad_alloc::`RTTI Base Class Descriptor at (0,-1,0,64)'
PUBLIC	??_R4bad_array_new_length@std@@6B@		; std::bad_array_new_length::`RTTI Complete Object Locator'
PUBLIC	??_R3bad_array_new_length@std@@8		; std::bad_array_new_length::`RTTI Class Hierarchy Descriptor'
PUBLIC	??_R2bad_array_new_length@std@@8		; std::bad_array_new_length::`RTTI Base Class Array'
PUBLIC	??_R1A@?0A@EA@bad_array_new_length@std@@8	; std::bad_array_new_length::`RTTI Base Class Descriptor at (0,-1,0,64)'
EXTRN	??2@YAPAXI@Z:PROC				; operator new
EXTRN	??3@YAXPAXI@Z:PROC				; operator delete
EXTRN	__imp___invalid_parameter_noinfo_noreturn:PROC
EXTRN	__imp_?Empty@?$CSimpleStringT@D$00@ATL@@QAEXXZ:PROC
EXTRN	__imp_??0?$CStringT@DV?$StrTraitMFC_DLL@DV?$ChTraitsCRT@D@ATL@@@@@ATL@@QAE@XZ:PROC
EXTRN	__imp_??0?$CStringT@DV?$StrTraitMFC_DLL@DV?$ChTraitsCRT@D@ATL@@@@@ATL@@QAE@ABV01@@Z:PROC
EXTRN	__imp_??1?$CStringT@DV?$StrTraitMFC_DLL@DV?$ChTraitsCRT@D@ATL@@@@@ATL@@QAE@XZ:PROC
EXTRN	__imp_??4?$CStringT@DV?$StrTraitMFC_DLL@DV?$ChTraitsCRT@D@ATL@@@@@ATL@@QAEAAV01@ABV01@@Z:PROC
EXTRN	___std_exception_copy:PROC
EXTRN	___std_exception_destroy:PROC
EXTRN	??_Eexception@std@@UAEPAXI@Z:PROC		; std::exception::`vector deleting destructor'
EXTRN	??_Ebad_alloc@std@@UAEPAXI@Z:PROC		; std::bad_alloc::`vector deleting destructor'
EXTRN	??_Ebad_array_new_length@std@@UAEPAXI@Z:PROC	; std::bad_array_new_length::`vector deleting destructor'
EXTRN	?_Xlength_error@std@@YAXPBD@Z:PROC		; std::_Xlength_error
EXTRN	@__security_check_cookie@4:PROC
EXTRN	__CxxThrowException@8:PROC
EXTRN	___CxxFrameHandler3:PROC
EXTRN	_memmove:PROC
EXTRN	_memset:PROC
EXTRN	??_7type_info@@6B@:QWORD			; type_info::`vftable'
EXTRN	___security_cookie:DWORD
EXTRN	__fltused:DWORD
;	COMDAT ??_R1A@?0A@EA@bad_array_new_length@std@@8
rdata$r	SEGMENT
??_R1A@?0A@EA@bad_array_new_length@std@@8 DD FLAT:??_R0?AVbad_array_new_length@std@@@8 ; std::bad_array_new_length::`RTTI Base Class Descriptor at (0,-1,0,64)'
	DD	02H
	DD	00H
	DD	0ffffffffH
	DD	00H
	DD	040H
	DD	FLAT:??_R3bad_array_new_length@std@@8
rdata$r	ENDS
;	COMDAT ??_R2bad_array_new_length@std@@8
rdata$r	SEGMENT
??_R2bad_array_new_length@std@@8 DD FLAT:??_R1A@?0A@EA@bad_array_new_length@std@@8 ; std::bad_array_new_length::`RTTI Base Class Array'
	DD	FLAT:??_R1A@?0A@EA@bad_alloc@std@@8
	DD	FLAT:??_R1A@?0A@EA@exception@std@@8
rdata$r	ENDS
;	COMDAT ??_R3bad_array_new_length@std@@8
rdata$r	SEGMENT
??_R3bad_array_new_length@std@@8 DD 00H			; std::bad_array_new_length::`RTTI Class Hierarchy Descriptor'
	DD	00H
	DD	03H
	DD	FLAT:??_R2bad_array_new_length@std@@8
rdata$r	ENDS
;	COMDAT ??_R4bad_array_new_length@std@@6B@
rdata$r	SEGMENT
??_R4bad_array_new_length@std@@6B@ DD 00H		; std::bad_array_new_length::`RTTI Complete Object Locator'
	DD	00H
	DD	00H
	DD	FLAT:??_R0?AVbad_array_new_length@std@@@8
	DD	FLAT:??_R3bad_array_new_length@std@@8
rdata$r	ENDS
;	COMDAT ??_R1A@?0A@EA@bad_alloc@std@@8
rdata$r	SEGMENT
??_R1A@?0A@EA@bad_alloc@std@@8 DD FLAT:??_R0?AVbad_alloc@std@@@8 ; std::bad_alloc::`RTTI Base Class Descriptor at (0,-1,0,64)'
	DD	01H
	DD	00H
	DD	0ffffffffH
	DD	00H
	DD	040H
	DD	FLAT:??_R3bad_alloc@std@@8
rdata$r	ENDS
;	COMDAT ??_R2bad_alloc@std@@8
rdata$r	SEGMENT
??_R2bad_alloc@std@@8 DD FLAT:??_R1A@?0A@EA@bad_alloc@std@@8 ; std::bad_alloc::`RTTI Base Class Array'
	DD	FLAT:??_R1A@?0A@EA@exception@std@@8
rdata$r	ENDS
;	COMDAT ??_R3bad_alloc@std@@8
rdata$r	SEGMENT
??_R3bad_alloc@std@@8 DD 00H				; std::bad_alloc::`RTTI Class Hierarchy Descriptor'
	DD	00H
	DD	02H
	DD	FLAT:??_R2bad_alloc@std@@8
rdata$r	ENDS
;	COMDAT ??_R4bad_alloc@std@@6B@
rdata$r	SEGMENT
??_R4bad_alloc@std@@6B@ DD 00H				; std::bad_alloc::`RTTI Complete Object Locator'
	DD	00H
	DD	00H
	DD	FLAT:??_R0?AVbad_alloc@std@@@8
	DD	FLAT:??_R3bad_alloc@std@@8
rdata$r	ENDS
;	COMDAT ??_R1A@?0A@EA@exception@std@@8
rdata$r	SEGMENT
??_R1A@?0A@EA@exception@std@@8 DD FLAT:??_R0?AVexception@std@@@8 ; std::exception::`RTTI Base Class Descriptor at (0,-1,0,64)'
	DD	00H
	DD	00H
	DD	0ffffffffH
	DD	00H
	DD	040H
	DD	FLAT:??_R3exception@std@@8
rdata$r	ENDS
;	COMDAT ??_R2exception@std@@8
rdata$r	SEGMENT
??_R2exception@std@@8 DD FLAT:??_R1A@?0A@EA@exception@std@@8 ; std::exception::`RTTI Base Class Array'
rdata$r	ENDS
;	COMDAT ??_R3exception@std@@8
rdata$r	SEGMENT
??_R3exception@std@@8 DD 00H				; std::exception::`RTTI Class Hierarchy Descriptor'
	DD	00H
	DD	01H
	DD	FLAT:??_R2exception@std@@8
rdata$r	ENDS
;	COMDAT ??_R4exception@std@@6B@
rdata$r	SEGMENT
??_R4exception@std@@6B@ DD 00H				; std::exception::`RTTI Complete Object Locator'
	DD	00H
	DD	00H
	DD	FLAT:??_R0?AVexception@std@@@8
	DD	FLAT:??_R3exception@std@@8
rdata$r	ENDS
;	COMDAT ??_C@_0BC@KBDMBKEH@deque?$DMT?$DO?5too?5long@
CONST	SEGMENT
??_C@_0BC@KBDMBKEH@deque?$DMT?$DO?5too?5long@ DB 'deque<T> too long', 00H ; `string'
CONST	ENDS
;	COMDAT __CT??_R0?AVexception@std@@@8??0exception@std@@QAE@ABV01@@Z12
xdata$x	SEGMENT
__CT??_R0?AVexception@std@@@8??0exception@std@@QAE@ABV01@@Z12 DD 00H
	DD	FLAT:??_R0?AVexception@std@@@8
	DD	00H
	DD	0ffffffffH
	ORG $+4
	DD	0cH
	DD	FLAT:??0exception@std@@QAE@ABV01@@Z
xdata$x	ENDS
;	COMDAT ??_R0?AVexception@std@@@8
data$r	SEGMENT
??_R0?AVexception@std@@@8 DD FLAT:??_7type_info@@6B@	; std::exception `RTTI Type Descriptor'
	DD	00H
	DB	'.?AVexception@std@@', 00H
data$r	ENDS
;	COMDAT __CT??_R0?AVbad_alloc@std@@@8??0bad_alloc@std@@QAE@ABV01@@Z12
xdata$x	SEGMENT
__CT??_R0?AVbad_alloc@std@@@8??0bad_alloc@std@@QAE@ABV01@@Z12 DD 010H
	DD	FLAT:??_R0?AVbad_alloc@std@@@8
	DD	00H
	DD	0ffffffffH
	ORG $+4
	DD	0cH
	DD	FLAT:??0bad_alloc@std@@QAE@ABV01@@Z
xdata$x	ENDS
;	COMDAT ??_R0?AVbad_alloc@std@@@8
data$r	SEGMENT
??_R0?AVbad_alloc@std@@@8 DD FLAT:??_7type_info@@6B@	; std::bad_alloc `RTTI Type Descriptor'
	DD	00H
	DB	'.?AVbad_alloc@std@@', 00H
data$r	ENDS
;	COMDAT __CT??_R0?AVbad_array_new_length@std@@@8??0bad_array_new_length@std@@QAE@ABV01@@Z12
xdata$x	SEGMENT
__CT??_R0?AVbad_array_new_length@std@@@8??0bad_array_new_length@std@@QAE@ABV01@@Z12 DD 00H
	DD	FLAT:??_R0?AVbad_array_new_length@std@@@8
	DD	00H
	DD	0ffffffffH
	ORG $+4
	DD	0cH
	DD	FLAT:??0bad_array_new_length@std@@QAE@ABV01@@Z
xdata$x	ENDS
;	COMDAT ??_R0?AVbad_array_new_length@std@@@8
data$r	SEGMENT
??_R0?AVbad_array_new_length@std@@@8 DD FLAT:??_7type_info@@6B@ ; std::bad_array_new_length `RTTI Type Descriptor'
	DD	00H
	DB	'.?AVbad_array_new_length@std@@', 00H
data$r	ENDS
;	COMDAT __CTA3?AVbad_array_new_length@std@@
xdata$x	SEGMENT
__CTA3?AVbad_array_new_length@std@@ DD 03H
	DD	FLAT:__CT??_R0?AVbad_array_new_length@std@@@8??0bad_array_new_length@std@@QAE@ABV01@@Z12
	DD	FLAT:__CT??_R0?AVbad_alloc@std@@@8??0bad_alloc@std@@QAE@ABV01@@Z12
	DD	FLAT:__CT??_R0?AVexception@std@@@8??0exception@std@@QAE@ABV01@@Z12
xdata$x	ENDS
;	COMDAT __TI3?AVbad_array_new_length@std@@
xdata$x	SEGMENT
__TI3?AVbad_array_new_length@std@@ DD 00H
	DD	FLAT:??1bad_array_new_length@std@@UAE@XZ
	DD	00H
	DD	FLAT:__CTA3?AVbad_array_new_length@std@@
xdata$x	ENDS
;	COMDAT ??_C@_0BF@KINCDENJ@bad?5array?5new?5length@
CONST	SEGMENT
??_C@_0BF@KINCDENJ@bad?5array?5new?5length@ DB 'bad array new length', 00H ; `string'
CONST	ENDS
;	COMDAT ??_7bad_array_new_length@std@@6B@
CONST	SEGMENT
??_7bad_array_new_length@std@@6B@ DD FLAT:??_R4bad_array_new_length@std@@6B@ ; std::bad_array_new_length::`vftable'
	DD	FLAT:??_Ebad_array_new_length@std@@UAEPAXI@Z
	DD	FLAT:?what@exception@std@@UBEPBDXZ
CONST	ENDS
;	COMDAT ??_7bad_alloc@std@@6B@
CONST	SEGMENT
??_7bad_alloc@std@@6B@ DD FLAT:??_R4bad_alloc@std@@6B@	; std::bad_alloc::`vftable'
	DD	FLAT:??_Ebad_alloc@std@@UAEPAXI@Z
	DD	FLAT:?what@exception@std@@UBEPBDXZ
CONST	ENDS
;	COMDAT ??_C@_0BC@EOODALEL@Unknown?5exception@
CONST	SEGMENT
??_C@_0BC@EOODALEL@Unknown?5exception@ DB 'Unknown exception', 00H ; `string'
CONST	ENDS
;	COMDAT ??_7exception@std@@6B@
CONST	SEGMENT
??_7exception@std@@6B@ DD FLAT:??_R4exception@std@@6B@	; std::exception::`vftable'
	DD	FLAT:??_Eexception@std@@UAEPAXI@Z
	DD	FLAT:?what@exception@std@@UBEPBDXZ
CONST	ENDS
;	COMDAT xdata$x
xdata$x	SEGMENT
__unwindtable$?SetPointsList@CPointsList@@QAEXABV1@@Z DD 0ffffffffH
	DD	FLAT:__unwindfunclet$?SetPointsList@CPointsList@@QAEXABV1@@Z$0
__ehfuncinfo$?SetPointsList@CPointsList@@QAEXABV1@@Z DD 019930522H
	DD	01H
	DD	FLAT:__unwindtable$?SetPointsList@CPointsList@@QAEXABV1@@Z
	DD	2 DUP(00H)
	DD	2 DUP(00H)
	DD	00H
	DD	01H
xdata$x	ENDS
;	COMDAT xdata$x
xdata$x	SEGMENT
__unwindtable$??0CPointsList@@QAE@ABV0@@Z DD 0ffffffffH
	DD	FLAT:__unwindfunclet$??0CPointsList@@QAE@ABV0@@Z$0
__ehfuncinfo$??0CPointsList@@QAE@ABV0@@Z DD 019930522H
	DD	01H
	DD	FLAT:__unwindtable$??0CPointsList@@QAE@ABV0@@Z
	DD	2 DUP(00H)
	DD	2 DUP(00H)
	DD	00H
	DD	01H
xdata$x	ENDS
;	COMDAT xdata$x
xdata$x	SEGMENT
__unwindtable$??9CPointsList@@QAE_NABV0@@Z DD 0ffffffffH
	DD	FLAT:__unwindfunclet$??9CPointsList@@QAE_NABV0@@Z$0
__ehfuncinfo$??9CPointsList@@QAE_NABV0@@Z DD 019930522H
	DD	01H
	DD	FLAT:__unwindtable$??9CPointsList@@QAE_NABV0@@Z
	DD	2 DUP(00H)
	DD	2 DUP(00H)
	DD	00H
	DD	01H
xdata$x	ENDS
;	COMDAT xdata$x
xdata$x	SEGMENT
__unwindtable$??8CPointsList@@QAE_NABV0@@Z DD 0ffffffffH
	DD	FLAT:__unwindfunclet$??8CPointsList@@QAE_NABV0@@Z$0
__ehfuncinfo$??8CPointsList@@QAE_NABV0@@Z DD 019930522H
	DD	01H
	DD	FLAT:__unwindtable$??8CPointsList@@QAE_NABV0@@Z
	DD	2 DUP(00H)
	DD	2 DUP(00H)
	DD	00H
	DD	01H
xdata$x	ENDS
;	COMDAT xdata$x
xdata$x	SEGMENT
__unwindtable$?SetPoints@CPoints@@QAEXABVCCoordinate@@ABVCPoint@@@Z DD 0ffffffffH
	DD	FLAT:__unwindfunclet$?SetPoints@CPoints@@QAEXABVCCoordinate@@ABVCPoint@@@Z$0
__ehfuncinfo$?SetPoints@CPoints@@QAEXABVCCoordinate@@ABVCPoint@@@Z DD 019930522H
	DD	01H
	DD	FLAT:__unwindtable$?SetPoints@CPoints@@QAEXABVCCoordinate@@ABVCPoint@@@Z
	DD	2 DUP(00H)
	DD	2 DUP(00H)
	DD	00H
	DD	01H
xdata$x	ENDS
;	COMDAT xdata$x
xdata$x	SEGMENT
__unwindtable$??4CPoints@@QAEAAV0@ABV0@@Z DD 0ffffffffH
	DD	FLAT:__unwindfunclet$??4CPoints@@QAEAAV0@ABV0@@Z$0
	DD	00H
	DD	FLAT:__unwindfunclet$??4CPoints@@QAEAAV0@ABV0@@Z$4
__ehfuncinfo$??4CPoints@@QAEAAV0@ABV0@@Z DD 019930522H
	DD	02H
	DD	FLAT:__unwindtable$??4CPoints@@QAEAAV0@ABV0@@Z
	DD	2 DUP(00H)
	DD	2 DUP(00H)
	DD	00H
	DD	01H
xdata$x	ENDS
;	COMDAT xdata$x
xdata$x	SEGMENT
__unwindtable$??4CCoordinate@@QAEAAV0@ABV0@@Z DD 0ffffffffH
	DD	FLAT:__unwindfunclet$??4CCoordinate@@QAEAAV0@ABV0@@Z$0
__ehfuncinfo$??4CCoordinate@@QAEAAV0@ABV0@@Z DD 019930522H
	DD	01H
	DD	FLAT:__unwindtable$??4CCoordinate@@QAEAAV0@ABV0@@Z
	DD	2 DUP(00H)
	DD	2 DUP(00H)
	DD	00H
	DD	01H
xdata$x	ENDS
; Function compile flags: /Ogtp
; File C:\Program Files (x86)\Microsoft Visual Studio\2019\Community\VC\Tools\MSVC\14.29.30133\include\xutility
;	COMDAT ??$_Copy_memmove@PAPAVCPoints@@PAPAV1@@std@@YAPAPAVCPoints@@PAPAV1@00@Z
_TEXT	SEGMENT
__First$ = 8						; size = 4
__Last$ = 12						; size = 4
__Dest$ = 16						; size = 4
??$_Copy_memmove@PAPAVCPoints@@PAPAV1@@std@@YAPAPAVCPoints@@PAPAV1@00@Z PROC ; std::_Copy_memmove<CPoints * *,CPoints * *>, COMDAT

; 4058 : _OutCtgIt _Copy_memmove(_CtgIt _First, _CtgIt _Last, _OutCtgIt _Dest) {

  00000	55		 push	 ebp
  00001	8b ec		 mov	 ebp, esp

; 4059 :     auto _FirstPtr              = _To_address(_First);
; 4060 :     auto _LastPtr               = _To_address(_Last);
; 4061 :     auto _DestPtr               = _To_address(_Dest);
; 4062 :     const char* const _First_ch = const_cast<const char*>(reinterpret_cast<const volatile char*>(_FirstPtr));
; 4063 :     const char* const _Last_ch  = const_cast<const char*>(reinterpret_cast<const volatile char*>(_LastPtr));
; 4064 :     char* const _Dest_ch        = const_cast<char*>(reinterpret_cast<const volatile char*>(_DestPtr));
; 4065 :     const auto _Count           = static_cast<size_t>(_Last_ch - _First_ch);

  00003	8b 45 08	 mov	 eax, DWORD PTR __First$[ebp]
  00006	56		 push	 esi

; 4066 :     _CSTD memmove(_Dest_ch, _First_ch, _Count);

  00007	8b 75 10	 mov	 esi, DWORD PTR __Dest$[ebp]
  0000a	57		 push	 edi
  0000b	8b 7d 0c	 mov	 edi, DWORD PTR __Last$[ebp]
  0000e	2b f8		 sub	 edi, eax
  00010	57		 push	 edi
  00011	50		 push	 eax
  00012	56		 push	 esi
  00013	e8 00 00 00 00	 call	 _memmove
  00018	83 c4 0c	 add	 esp, 12			; 0000000cH

; 4067 :     if constexpr (is_pointer_v<_OutCtgIt>) {
; 4068 :         return reinterpret_cast<_OutCtgIt>(_Dest_ch + _Count);

  0001b	8d 04 37	 lea	 eax, DWORD PTR [edi+esi]
  0001e	5f		 pop	 edi
  0001f	5e		 pop	 esi

; 4069 :     } else {
; 4070 :         return _Dest + (_LastPtr - _FirstPtr);
; 4071 :     }
; 4072 : }

  00020	5d		 pop	 ebp
  00021	c3		 ret	 0
??$_Copy_memmove@PAPAVCPoints@@PAPAV1@@std@@YAPAPAVCPoints@@PAPAV1@00@Z ENDP ; std::_Copy_memmove<CPoints * *,CPoints * *>
_TEXT	ENDS
; Function compile flags: /Ogtp
; File C:\Program Files (x86)\Microsoft Visual Studio\2019\Community\VC\Tools\MSVC\14.29.30133\include\xmemory
;	COMDAT ??$_Zero_range@PAPAVCPoints@@@std@@YAPAPAVCPoints@@QAPAV1@0@Z
_TEXT	SEGMENT
__First$ = 8						; size = 4
__Last$ = 12						; size = 4
??$_Zero_range@PAPAVCPoints@@@std@@YAPAPAVCPoints@@QAPAV1@0@Z PROC ; std::_Zero_range<CPoints * *>, COMDAT

; 1789 : _Ptr _Zero_range(const _Ptr _First, const _Ptr _Last) { // fill [_First, _Last) with zeroes

  00000	55		 push	 ebp
  00001	8b ec		 mov	 ebp, esp

; 1790 :     char* const _First_ch = reinterpret_cast<char*>(_To_address(_First));
; 1791 :     char* const _Last_ch  = reinterpret_cast<char*>(_To_address(_Last));
; 1792 :     _CSTD memset(_First_ch, 0, static_cast<size_t>(_Last_ch - _First_ch));

  00003	8b 55 08	 mov	 edx, DWORD PTR __First$[ebp]
  00006	8b 4d 0c	 mov	 ecx, DWORD PTR __Last$[ebp]
  00009	2b ca		 sub	 ecx, edx
  0000b	51		 push	 ecx
  0000c	6a 00		 push	 0
  0000e	52		 push	 edx
  0000f	e8 00 00 00 00	 call	 _memset

; 1793 :     return _Last;

  00014	8b 45 0c	 mov	 eax, DWORD PTR __Last$[ebp]
  00017	83 c4 0c	 add	 esp, 12			; 0000000cH

; 1794 : }

  0001a	5d		 pop	 ebp
  0001b	c3		 ret	 0
??$_Zero_range@PAPAVCPoints@@@std@@YAPAPAVCPoints@@QAPAV1@0@Z ENDP ; std::_Zero_range<CPoints * *>
_TEXT	ENDS
; Function compile flags: /Ogtp
; File C:\Program Files (x86)\Microsoft Visual Studio\2019\Community\VC\Tools\MSVC\14.29.30133\include\xmemory
;	COMDAT ??$_Allocate_manually_vector_aligned@U_Default_allocate_traits@std@@@std@@YAPAXI@Z
_TEXT	SEGMENT
__Bytes$ = 8						; size = 4
??$_Allocate_manually_vector_aligned@U_Default_allocate_traits@std@@@std@@YAPAXI@Z PROC ; std::_Allocate_manually_vector_aligned<std::_Default_allocate_traits>, COMDAT

; 127  : __declspec(allocator) void* _Allocate_manually_vector_aligned(const size_t _Bytes) {

  00000	55		 push	 ebp
  00001	8b ec		 mov	 ebp, esp

; 128  :     // allocate _Bytes manually aligned to at least _Big_allocation_alignment
; 129  :     const size_t _Block_size = _Non_user_size + _Bytes;

  00003	8b 45 08	 mov	 eax, DWORD PTR __Bytes$[ebp]
  00006	8d 48 23	 lea	 ecx, DWORD PTR [eax+35]

; 130  :     if (_Block_size <= _Bytes) {

  00009	3b c8		 cmp	 ecx, eax
  0000b	0f 86 00 00 00
	00		 jbe	 ?_Throw_bad_array_new_length@std@@YAXXZ ; std::_Throw_bad_array_new_length

; 79   :         return ::operator new(_Bytes);

  00011	51		 push	 ecx
  00012	e8 00 00 00 00	 call	 ??2@YAPAXI@Z		; operator new

; 131  :         _Throw_bad_array_new_length(); // add overflow
; 132  :     }
; 133  : 
; 134  :     const uintptr_t _Ptr_container = reinterpret_cast<uintptr_t>(_Traits::_Allocate(_Block_size));

  00017	8b c8		 mov	 ecx, eax

; 79   :         return ::operator new(_Bytes);

  00019	83 c4 04	 add	 esp, 4

; 135  :     _STL_VERIFY(_Ptr_container != 0, "invalid argument"); // validate even in release since we're doing p[-1]

  0001c	85 c9		 test	 ecx, ecx
  0001e	74 0b		 je	 SHORT $LN7@Allocate_m

; 136  :     void* const _Ptr = reinterpret_cast<void*>((_Ptr_container + _Non_user_size) & ~(_Big_allocation_alignment - 1));

  00020	8d 41 23	 lea	 eax, DWORD PTR [ecx+35]
  00023	83 e0 e0	 and	 eax, -32		; ffffffe0H

; 137  :     static_cast<uintptr_t*>(_Ptr)[-1] = _Ptr_container;

  00026	89 48 fc	 mov	 DWORD PTR [eax-4], ecx

; 138  : 
; 139  : #ifdef _DEBUG
; 140  :     static_cast<uintptr_t*>(_Ptr)[-2] = _Big_allocation_sentinel;
; 141  : #endif // _DEBUG
; 142  :     return _Ptr;
; 143  : }

  00029	5d		 pop	 ebp
  0002a	c3		 ret	 0
$LN7@Allocate_m:

; 135  :     _STL_VERIFY(_Ptr_container != 0, "invalid argument"); // validate even in release since we're doing p[-1]

  0002b	ff 25 00 00 00
	00		 jmp	 DWORD PTR __imp___invalid_parameter_noinfo_noreturn
??$_Allocate_manually_vector_aligned@U_Default_allocate_traits@std@@@std@@YAPAXI@Z ENDP ; std::_Allocate_manually_vector_aligned<std::_Default_allocate_traits>
_TEXT	ENDS
; Function compile flags: /Ogtp
; File C:\Program Files (x86)\Microsoft Visual Studio\2019\Community\VC\Tools\MSVC\14.29.30133\include\xmemory
;	COMDAT ??$_Uninitialized_value_construct_n_unchecked1@PAPAVCPoints@@I@std@@YAPAPAVCPoints@@PAPAV1@I@Z
_TEXT	SEGMENT
__UFirst$ = 8						; size = 4
__Count$ = 12						; size = 4
??$_Uninitialized_value_construct_n_unchecked1@PAPAVCPoints@@I@std@@YAPAPAVCPoints@@PAPAV1@I@Z PROC ; std::_Uninitialized_value_construct_n_unchecked1<CPoints * *,unsigned int>, COMDAT

; 1821 : _NoThrowFwdIt _Uninitialized_value_construct_n_unchecked1(_NoThrowFwdIt _UFirst, _Diff _Count) {

  00000	55		 push	 ebp
  00001	8b ec		 mov	 ebp, esp

; 1822 :     // value-initialize all elements in [_UFirst, _UFirst + _Count_raw)
; 1823 :     _STL_INTERNAL_CHECK(_Count >= 0);
; 1824 :     if constexpr (_Use_memset_value_construct_v<_NoThrowFwdIt>) {
; 1825 :         return _Zero_range(_UFirst, _UFirst + _Count);

  00003	8b 45 0c	 mov	 eax, DWORD PTR __Count$[ebp]
  00006	56		 push	 esi

; 1792 :     _CSTD memset(_First_ch, 0, static_cast<size_t>(_Last_ch - _First_ch));

  00007	8b 75 08	 mov	 esi, DWORD PTR __UFirst$[ebp]

; 1821 : _NoThrowFwdIt _Uninitialized_value_construct_n_unchecked1(_NoThrowFwdIt _UFirst, _Diff _Count) {

  0000a	57		 push	 edi

; 1822 :     // value-initialize all elements in [_UFirst, _UFirst + _Count_raw)
; 1823 :     _STL_INTERNAL_CHECK(_Count >= 0);
; 1824 :     if constexpr (_Use_memset_value_construct_v<_NoThrowFwdIt>) {
; 1825 :         return _Zero_range(_UFirst, _UFirst + _Count);

  0000b	8d 3c 85 00 00
	00 00		 lea	 edi, DWORD PTR [eax*4]

; 1792 :     _CSTD memset(_First_ch, 0, static_cast<size_t>(_Last_ch - _First_ch));

  00012	57		 push	 edi
  00013	6a 00		 push	 0
  00015	56		 push	 esi
  00016	e8 00 00 00 00	 call	 _memset
  0001b	83 c4 0c	 add	 esp, 12			; 0000000cH

; 1822 :     // value-initialize all elements in [_UFirst, _UFirst + _Count_raw)
; 1823 :     _STL_INTERNAL_CHECK(_Count >= 0);
; 1824 :     if constexpr (_Use_memset_value_construct_v<_NoThrowFwdIt>) {
; 1825 :         return _Zero_range(_UFirst, _UFirst + _Count);

  0001e	8d 04 37	 lea	 eax, DWORD PTR [edi+esi]
  00021	5f		 pop	 edi
  00022	5e		 pop	 esi

; 1826 :     } else {
; 1827 :         _Uninitialized_backout<_NoThrowFwdIt> _Backout{_UFirst};
; 1828 :         for (; 0 < _Count; --_Count) {
; 1829 :             _Backout._Emplace_back();
; 1830 :         }
; 1831 : 
; 1832 :         return _Backout._Release();
; 1833 :     }
; 1834 : }

  00023	5d		 pop	 ebp
  00024	c3		 ret	 0
??$_Uninitialized_value_construct_n_unchecked1@PAPAVCPoints@@I@std@@YAPAPAVCPoints@@PAPAV1@I@Z ENDP ; std::_Uninitialized_value_construct_n_unchecked1<CPoints * *,unsigned int>
_TEXT	ENDS
; Function compile flags: /Ogtp
; File C:\Program Files (x86)\Microsoft Visual Studio\2019\Community\VC\Tools\MSVC\14.29.30133\include\xmemory
; File C:\Program Files (x86)\Microsoft Visual Studio\2019\Community\VC\Tools\MSVC\14.29.30133\include\xutility
; File C:\Program Files (x86)\Microsoft Visual Studio\2019\Community\VC\Tools\MSVC\14.29.30133\include\xmemory
; File C:\Program Files (x86)\Microsoft Visual Studio\2019\Community\VC\Tools\MSVC\14.29.30133\include\xutility
; File C:\Program Files (x86)\Microsoft Visual Studio\2019\Community\VC\Tools\MSVC\14.29.30133\include\xmemory
; File C:\Program Files (x86)\Microsoft Visual Studio\2019\Community\VC\Tools\MSVC\14.29.30133\include\xutility
; File C:\Program Files (x86)\Microsoft Visual Studio\2019\Community\VC\Tools\MSVC\14.29.30133\include\xmemory
;	COMDAT ??$uninitialized_copy@PAPAVCPoints@@PAPAV1@@std@@YAPAPAVCPoints@@QAPAV1@0PAPAV1@@Z
_TEXT	SEGMENT
__First$ = 8						; size = 4
__Last$ = 12						; size = 4
__Dest$ = 16						; size = 4
??$uninitialized_copy@PAPAVCPoints@@PAPAV1@@std@@YAPAPAVCPoints@@QAPAV1@0PAPAV1@@Z PROC ; std::uninitialized_copy<CPoints * *,CPoints * *>, COMDAT

; 1687 : _NoThrowFwdIt uninitialized_copy(const _InIt _First, const _InIt _Last, _NoThrowFwdIt _Dest) {

  00000	55		 push	 ebp
  00001	8b ec		 mov	 ebp, esp
; File C:\Program Files (x86)\Microsoft Visual Studio\2019\Community\VC\Tools\MSVC\14.29.30133\include\xutility

; 4065 :     const auto _Count           = static_cast<size_t>(_Last_ch - _First_ch);

  00003	8b 45 08	 mov	 eax, DWORD PTR __First$[ebp]
; File C:\Program Files (x86)\Microsoft Visual Studio\2019\Community\VC\Tools\MSVC\14.29.30133\include\xmemory

; 1687 : _NoThrowFwdIt uninitialized_copy(const _InIt _First, const _InIt _Last, _NoThrowFwdIt _Dest) {

  00006	56		 push	 esi
; File C:\Program Files (x86)\Microsoft Visual Studio\2019\Community\VC\Tools\MSVC\14.29.30133\include\xutility

; 4066 :     _CSTD memmove(_Dest_ch, _First_ch, _Count);

  00007	8b 75 10	 mov	 esi, DWORD PTR __Dest$[ebp]
; File C:\Program Files (x86)\Microsoft Visual Studio\2019\Community\VC\Tools\MSVC\14.29.30133\include\xmemory

; 1687 : _NoThrowFwdIt uninitialized_copy(const _InIt _First, const _InIt _Last, _NoThrowFwdIt _Dest) {

  0000a	57		 push	 edi
; File C:\Program Files (x86)\Microsoft Visual Studio\2019\Community\VC\Tools\MSVC\14.29.30133\include\xutility

; 4065 :     const auto _Count           = static_cast<size_t>(_Last_ch - _First_ch);

  0000b	8b 7d 0c	 mov	 edi, DWORD PTR __Last$[ebp]
  0000e	2b f8		 sub	 edi, eax

; 4066 :     _CSTD memmove(_Dest_ch, _First_ch, _Count);

  00010	57		 push	 edi
  00011	50		 push	 eax
  00012	56		 push	 esi
  00013	e8 00 00 00 00	 call	 _memmove
  00018	83 c4 0c	 add	 esp, 12			; 0000000cH

; 4067 :     if constexpr (is_pointer_v<_OutCtgIt>) {
; 4068 :         return reinterpret_cast<_OutCtgIt>(_Dest_ch + _Count);

  0001b	8d 04 37	 lea	 eax, DWORD PTR [edi+esi]
; File C:\Program Files (x86)\Microsoft Visual Studio\2019\Community\VC\Tools\MSVC\14.29.30133\include\xmemory

; 1694 :     return _Dest;

  0001e	5f		 pop	 edi
  0001f	5e		 pop	 esi

; 1695 : }

  00020	5d		 pop	 ebp
  00021	c3		 ret	 0
??$uninitialized_copy@PAPAVCPoints@@PAPAV1@@std@@YAPAPAVCPoints@@QAPAV1@0PAPAV1@@Z ENDP ; std::uninitialized_copy<CPoints * *,CPoints * *>
_TEXT	ENDS
; Function compile flags: /Ogtp
; File D:\git\src\IBK\IBK_DRFN\ProjSrc\SrcChartEx\ChartAddIn\ChartAnalysisToolAddIn\AnalysisTool\Coordinate.cpp
;	COMDAT ?HavingIndex@CPointsList@@ABE_NH@Z
_TEXT	SEGMENT
_nIndex$ = 8						; size = 4
?HavingIndex@CPointsList@@ABE_NH@Z PROC			; CPointsList::HavingIndex, COMDAT
; _this$ = ecx

; 326  : {

  00000	55		 push	 ebp
  00001	8b ec		 mov	 ebp, esp

; 327  : 	return (nIndex >= 0 && nIndex < m_PointsList.GetCount());

  00003	8b 45 08	 mov	 eax, DWORD PTR _nIndex$[ebp]
  00006	85 c0		 test	 eax, eax
  00008	78 0b		 js	 SHORT $LN3@HavingInde
  0000a	3b 41 10	 cmp	 eax, DWORD PTR [ecx+16]
  0000d	7d 06		 jge	 SHORT $LN3@HavingInde
  0000f	b0 01		 mov	 al, 1

; 328  : }

  00011	5d		 pop	 ebp
  00012	c2 04 00	 ret	 4
$LN3@HavingInde:

; 327  : 	return (nIndex >= 0 && nIndex < m_PointsList.GetCount());

  00015	32 c0		 xor	 al, al

; 328  : }

  00017	5d		 pop	 ebp
  00018	c2 04 00	 ret	 4
?HavingIndex@CPointsList@@ABE_NH@Z ENDP			; CPointsList::HavingIndex
_TEXT	ENDS
; Function compile flags: /Ogtp
; File D:\git\src\IBK\IBK_DRFN\ProjSrc\SrcChartEx\ChartAddIn\ChartAnalysisToolAddIn\Include_Chart\DequeList.h
; File C:\Program Files (x86)\Microsoft Visual Studio\2019\Community\VC\Tools\MSVC\14.29.30133\include\deque
; File C:\Program Files (x86)\Microsoft Visual Studio\2019\Community\VC\Tools\MSVC\14.29.30133\include\xmemory
; File C:\Program Files (x86)\Microsoft Visual Studio\2019\Community\VC\Tools\MSVC\14.29.30133\include\deque
; File C:\Program Files (x86)\Microsoft Visual Studio\2019\Community\VC\Tools\MSVC\14.29.30133\include\xmemory
; File C:\Program Files (x86)\Microsoft Visual Studio\2019\Community\VC\Tools\MSVC\14.29.30133\include\deque
; File C:\Program Files (x86)\Microsoft Visual Studio\2019\Community\VC\Tools\MSVC\14.29.30133\include\xmemory
; File D:\git\src\IBK\IBK_DRFN\ProjSrc\SrcChartEx\ChartAddIn\ChartAnalysisToolAddIn\AnalysisTool\Coordinate.cpp
; File C:\Program Files (x86)\Microsoft Visual Studio\2019\Community\VC\Tools\MSVC\14.29.30133\include\deque
; File D:\git\src\IBK\IBK_DRFN\ProjSrc\SrcChartEx\ChartAddIn\ChartAnalysisToolAddIn\Include_Chart\DequeList.h
;	COMDAT ?AddTail@?$CDequeList@VCPoints@@@@QAEXABVCPoints@@@Z
_TEXT	SEGMENT
___$ReturnUdt$1 = 8					; size = 4
_item$ = 8						; size = 4
?AddTail@?$CDequeList@VCPoints@@@@QAEXABVCPoints@@@Z PROC ; CDequeList<CPoints>::AddTail, COMDAT
; _this$ = ecx

; 119  : 	void AddTail(const T& item){ m_deque.push_back(item); };

  00000	55		 push	 ebp
  00001	8b ec		 mov	 ebp, esp
  00003	51		 push	 ecx
  00004	53		 push	 ebx
  00005	8b d9		 mov	 ebx, ecx
  00007	56		 push	 esi
  00008	57		 push	 edi
; File C:\Program Files (x86)\Microsoft Visual Studio\2019\Community\VC\Tools\MSVC\14.29.30133\include\deque

; 1106 :         if ((_Myoff() + _Mysize()) % _Block_size == 0 && _Mapsize() <= (_Mysize() + _Block_size) / _Block_size) {

  00009	8b 53 10	 mov	 edx, DWORD PTR [ebx+16]
  0000c	8b 4b 08	 mov	 ecx, DWORD PTR [ebx+8]
  0000f	8d 42 01	 lea	 eax, DWORD PTR [edx+1]
  00012	3b c8		 cmp	 ecx, eax
  00014	77 0f		 ja	 SHORT $LN6@AddTail

; 1107 :             _Growmap(1);

  00016	6a 01		 push	 1
  00018	8b cb		 mov	 ecx, ebx
  0001a	e8 00 00 00 00	 call	 ?_Growmap@?$deque@VCPoints@@V?$allocator@VCPoints@@@std@@@std@@AAEXI@Z ; std::deque<CPoints,std::allocator<CPoints> >::_Growmap
  0001f	8b 4b 08	 mov	 ecx, DWORD PTR [ebx+8]
  00022	8b 53 10	 mov	 edx, DWORD PTR [ebx+16]
$LN6@AddTail:

; 1108 :         }
; 1109 :         _Myoff() &= _Mapsize() * _Block_size - 1;

  00025	8d 41 ff	 lea	 eax, DWORD PTR [ecx-1]
  00028	21 43 0c	 and	 DWORD PTR [ebx+12], eax

; 559  :         return (_Off / _Block_size) & (_Mapsize - 1);

  0002b	8d 41 ff	 lea	 eax, DWORD PTR [ecx-1]

; 1109 :         _Myoff() &= _Mapsize() * _Block_size - 1;

  0002e	8b 7b 0c	 mov	 edi, DWORD PTR [ebx+12]

; 1110 :         size_type _Newoff = _Myoff() + _Mysize();

  00031	03 fa		 add	 edi, edx

; 559  :         return (_Off / _Block_size) & (_Mapsize - 1);

  00033	23 f8		 and	 edi, eax

; 1112 :         if (_Map()[_Block] == nullptr) {

  00035	8b 43 04	 mov	 eax, DWORD PTR [ebx+4]
  00038	83 3c b8 00	 cmp	 DWORD PTR [eax+edi*4], 0
  0003c	75 13		 jne	 SHORT $LN7@AddTail
; File C:\Program Files (x86)\Microsoft Visual Studio\2019\Community\VC\Tools\MSVC\14.29.30133\include\xmemory

; 79   :         return ::operator new(_Bytes);

  0003e	6a 28		 push	 40			; 00000028H
  00040	e8 00 00 00 00	 call	 ??2@YAPAXI@Z		; operator new
; File C:\Program Files (x86)\Microsoft Visual Studio\2019\Community\VC\Tools\MSVC\14.29.30133\include\deque

; 1113 :             _Map()[_Block] = _Getal().allocate(_Block_size);

  00045	8b 4b 04	 mov	 ecx, DWORD PTR [ebx+4]
; File C:\Program Files (x86)\Microsoft Visual Studio\2019\Community\VC\Tools\MSVC\14.29.30133\include\xmemory

; 79   :         return ::operator new(_Bytes);

  00048	83 c4 04	 add	 esp, 4
; File C:\Program Files (x86)\Microsoft Visual Studio\2019\Community\VC\Tools\MSVC\14.29.30133\include\deque

; 1113 :             _Map()[_Block] = _Getal().allocate(_Block_size);

  0004b	89 04 b9	 mov	 DWORD PTR [ecx+edi*4], eax
  0004e	8b 43 04	 mov	 eax, DWORD PTR [ebx+4]
$LN7@AddTail:
; File C:\Program Files (x86)\Microsoft Visual Studio\2019\Community\VC\Tools\MSVC\14.29.30133\include\xmemory

; 681  :             ::new (_Voidify_iter(_Ptr)) _Objty(_STD forward<_Types>(_Args)...);

  00051	8b 3c b8	 mov	 edi, DWORD PTR [eax+edi*4]
; File D:\git\src\IBK\IBK_DRFN\ProjSrc\SrcChartEx\ChartAddIn\ChartAnalysisToolAddIn\AnalysisTool\Coordinate.cpp

; 92   : 	m_dX(point.GetX()),

  00054	8b 75 08	 mov	 esi, DWORD PTR _item$[ebp]

; 93   : 	m_dY(point.GetY()),
; 94   : 	m_nIndex(point.GetIndex()),
; 95   : 	// 분차트 근접시간 적용 - ojtaso (20080811)
; 96   : 	m_strType(point.GetDateType()),

  00057	8d 4f 14	 lea	 ecx, DWORD PTR [edi+20]
  0005a	f2 0f 10 06	 movsd	 xmm0, QWORD PTR [esi]
  0005e	f2 0f 11 07	 movsd	 QWORD PTR [edi], xmm0
  00062	f2 0f 10 46 08	 movsd	 xmm0, QWORD PTR [esi+8]
  00067	f2 0f 11 47 08	 movsd	 QWORD PTR [edi+8], xmm0
  0006c	8b 46 10	 mov	 eax, DWORD PTR [esi+16]
  0006f	89 47 10	 mov	 DWORD PTR [edi+16], eax

; 126  : 	return m_strType;

  00072	8d 46 14	 lea	 eax, DWORD PTR [esi+20]
  00075	50		 push	 eax

; 96   : 	m_strType(point.GetDateType()),

  00076	89 4d 08	 mov	 DWORD PTR ___$ReturnUdt$1[ebp], ecx

; 126  : 	return m_strType;

  00079	ff 15 00 00 00
	00		 call	 DWORD PTR __imp_??0?$CStringT@DV?$StrTraitMFC_DLL@DV?$ChTraitsCRT@D@ATL@@@@@ATL@@QAE@ABV01@@Z

; 98   : 	m_nTimeDiff(point.GetTimeDiff())

  0007f	8b 46 18	 mov	 eax, DWORD PTR [esi+24]
  00082	89 47 18	 mov	 DWORD PTR [edi+24], eax
  00085	8b 46 20	 mov	 eax, DWORD PTR [esi+32]
  00088	8b 4e 24	 mov	 ecx, DWORD PTR [esi+36]
  0008b	89 47 20	 mov	 DWORD PTR [edi+32], eax
  0008e	89 4f 24	 mov	 DWORD PTR [edi+36], ecx
; File C:\Program Files (x86)\Microsoft Visual Studio\2019\Community\VC\Tools\MSVC\14.29.30133\include\deque

; 1119 :         ++_Mysize();

  00091	ff 43 10	 inc	 DWORD PTR [ebx+16]
  00094	5f		 pop	 edi
  00095	5e		 pop	 esi
  00096	5b		 pop	 ebx
; File D:\git\src\IBK\IBK_DRFN\ProjSrc\SrcChartEx\ChartAddIn\ChartAnalysisToolAddIn\Include_Chart\DequeList.h

; 119  : 	void AddTail(const T& item){ m_deque.push_back(item); };

  00097	8b e5		 mov	 esp, ebp
  00099	5d		 pop	 ebp
  0009a	c2 04 00	 ret	 4
?AddTail@?$CDequeList@VCPoints@@@@QAEXABVCPoints@@@Z ENDP ; CDequeList<CPoints>::AddTail
_TEXT	ENDS
; Function compile flags: /Ogtp
; File C:\Program Files (x86)\Microsoft Visual Studio\2019\Community\VC\Tools\MSVC\14.29.30133\include\deque
; File C:\Program Files (x86)\Microsoft Visual Studio\2019\Community\VC\Tools\MSVC\14.29.30133\include\xmemory
; File C:\Program Files (x86)\Microsoft Visual Studio\2019\Community\VC\Tools\MSVC\14.29.30133\include\deque
; File C:\Program Files (x86)\Microsoft Visual Studio\2019\Community\VC\Tools\MSVC\14.29.30133\include\xmemory
; File C:\Program Files (x86)\Microsoft Visual Studio\2019\Community\VC\Tools\MSVC\14.29.30133\include\deque
; File C:\Program Files (x86)\Microsoft Visual Studio\2019\Community\VC\Tools\MSVC\14.29.30133\include\xmemory
; File C:\Program Files (x86)\Microsoft Visual Studio\2019\Community\VC\Tools\MSVC\14.29.30133\include\deque
;	COMDAT ?_Tidy@?$deque@VCPoints@@V?$allocator@VCPoints@@@std@@@std@@AAEXXZ
_TEXT	SEGMENT
?_Tidy@?$deque@VCPoints@@V?$allocator@VCPoints@@@std@@@std@@AAEXXZ PROC ; std::deque<CPoints,std::allocator<CPoints> >::_Tidy, COMDAT
; _this$ = ecx

; 1471 :     void _Tidy() noexcept { // free all storage

  00000	56		 push	 esi
  00001	8b f1		 mov	 esi, ecx

; 1002 :         return _Mysize() == 0;

  00003	8b 4e 10	 mov	 ecx, DWORD PTR [esi+16]
  00006	85 c9		 test	 ecx, ecx

; 1472 :         _Orphan_all();
; 1473 : 
; 1474 :         _Alpty _Almap(_Getal());
; 1475 :         while (!empty()) {

  00008	74 37		 je	 SHORT $LN3@Tidy
  0000a	66 0f 1f 44 00
	00		 npad	 6
$LL2@Tidy:

; 559  :         return (_Off / _Block_size) & (_Mapsize - 1);

  00010	8b 46 0c	 mov	 eax, DWORD PTR [esi+12]
  00013	48		 dec	 eax
  00014	03 c8		 add	 ecx, eax
  00016	8b 46 08	 mov	 eax, DWORD PTR [esi+8]
  00019	48		 dec	 eax
  0001a	23 c8		 and	 ecx, eax

; 1145 :         _Alty_traits::destroy(_Getal(), _Unfancy(_Map()[_Block] + _Newoff % _Block_size));

  0001c	8b 46 04	 mov	 eax, DWORD PTR [esi+4]
  0001f	8b 0c 88	 mov	 ecx, DWORD PTR [eax+ecx*4]
  00022	8d 49 14	 lea	 ecx, DWORD PTR [ecx+20]
  00025	ff 15 00 00 00
	00		 call	 DWORD PTR __imp_??1?$CStringT@DV?$StrTraitMFC_DLL@DV?$ChTraitsCRT@D@ATL@@@@@ATL@@QAE@XZ

; 1146 :         if (--_Mysize() == 0) {

  0002b	8b 4e 10	 mov	 ecx, DWORD PTR [esi+16]
  0002e	83 e9 01	 sub	 ecx, 1
  00031	89 4e 10	 mov	 DWORD PTR [esi+16], ecx
  00034	75 07		 jne	 SHORT $LN72@Tidy

; 1147 :             _Myoff() = 0;

  00036	c7 46 0c 00 00
	00 00		 mov	 DWORD PTR [esi+12], 0
$LN72@Tidy:

; 1002 :         return _Mysize() == 0;

  0003d	85 c9		 test	 ecx, ecx

; 1472 :         _Orphan_all();
; 1473 : 
; 1474 :         _Alpty _Almap(_Getal());
; 1475 :         while (!empty()) {

  0003f	75 cf		 jne	 SHORT $LL2@Tidy
$LN3@Tidy:
  00041	57		 push	 edi

; 1479 :         for (size_type _Block = _Mapsize(); 0 < _Block;) { // free storage for a block and destroy pointer

  00042	8b 7e 08	 mov	 edi, DWORD PTR [esi+8]
  00045	85 ff		 test	 edi, edi
  00047	74 21		 je	 SHORT $LN5@Tidy
  00049	0f 1f 80 00 00
	00 00		 npad	 7
$LL4@Tidy:

; 1480 :             if (_Map()[--_Block]) { // free block and destroy its pointer

  00050	8b 46 04	 mov	 eax, DWORD PTR [esi+4]
  00053	4f		 dec	 edi
  00054	8b 04 b8	 mov	 eax, DWORD PTR [eax+edi*4]
  00057	85 c0		 test	 eax, eax
  00059	74 0b		 je	 SHORT $LN34@Tidy
; File C:\Program Files (x86)\Microsoft Visual Studio\2019\Community\VC\Tools\MSVC\14.29.30133\include\xmemory

; 255  :         ::operator delete(_Ptr, _Bytes);

  0005b	6a 28		 push	 40			; 00000028H
  0005d	50		 push	 eax
  0005e	e8 00 00 00 00	 call	 ??3@YAXPAXI@Z		; operator delete
  00063	83 c4 08	 add	 esp, 8
$LN34@Tidy:
; File C:\Program Files (x86)\Microsoft Visual Studio\2019\Community\VC\Tools\MSVC\14.29.30133\include\deque

; 1479 :         for (size_type _Block = _Mapsize(); 0 < _Block;) { // free storage for a block and destroy pointer

  00066	85 ff		 test	 edi, edi
  00068	75 e6		 jne	 SHORT $LL4@Tidy
$LN5@Tidy:

; 1481 :                 _Getal().deallocate(_Map()[_Block], _Block_size);
; 1482 :                 _Destroy_in_place(_Map()[_Block]);
; 1483 :             }
; 1484 :         }
; 1485 : 
; 1486 :         if (_Map() != _Mapptr()) {

  0006a	8b 46 04	 mov	 eax, DWORD PTR [esi+4]
  0006d	5f		 pop	 edi
  0006e	85 c0		 test	 eax, eax
  00070	74 2a		 je	 SHORT $LN52@Tidy
; File C:\Program Files (x86)\Microsoft Visual Studio\2019\Community\VC\Tools\MSVC\14.29.30133\include\xmemory

; 797  :         _Deallocate<_New_alignof<_Ty>>(_Ptr, sizeof(_Ty) * _Count);

  00072	8b 4e 08	 mov	 ecx, DWORD PTR [esi+8]
  00075	c1 e1 02	 shl	 ecx, 2

; 251  :         if (_Bytes >= _Big_allocation_threshold) { // boost the alignment of big allocations to help autovectorization

  00078	81 f9 00 10 00
	00		 cmp	 ecx, 4096		; 00001000H
  0007e	72 12		 jb	 SHORT $LN62@Tidy

; 150  :     const uintptr_t _Ptr_container   = _Ptr_user[-1];

  00080	8b 50 fc	 mov	 edx, DWORD PTR [eax-4]
  00083	83 c1 23	 add	 ecx, 35			; 00000023H

; 151  : 
; 152  :     // If the following asserts, it likely means that we are performing
; 153  :     // an aligned delete on memory coming from an unaligned allocation.
; 154  :     _STL_ASSERT(_Ptr_user[-2] == _Big_allocation_sentinel, "invalid argument");
; 155  : 
; 156  :     // Extra paranoia on aligned allocation/deallocation; ensure _Ptr_container is
; 157  :     // in range [_Min_back_shift, _Non_user_size]
; 158  : #ifdef _DEBUG
; 159  :     constexpr uintptr_t _Min_back_shift = 2 * sizeof(void*);
; 160  : #else // ^^^ _DEBUG ^^^ // vvv !_DEBUG vvv
; 161  :     constexpr uintptr_t _Min_back_shift = sizeof(void*);
; 162  : #endif // _DEBUG
; 163  :     const uintptr_t _Back_shift = reinterpret_cast<uintptr_t>(_Ptr) - _Ptr_container;

  00086	2b c2		 sub	 eax, edx

; 164  :     _STL_VERIFY(_Back_shift >= _Min_back_shift && _Back_shift <= _Non_user_size, "invalid argument");

  00088	83 c0 fc	 add	 eax, -4			; fffffffcH
  0008b	83 f8 1f	 cmp	 eax, 31			; 0000001fH
  0008e	77 1c		 ja	 SHORT $LN59@Tidy

; 165  :     _Ptr = reinterpret_cast<void*>(_Ptr_container);

  00090	8b c2		 mov	 eax, edx
$LN62@Tidy:

; 255  :         ::operator delete(_Ptr, _Bytes);

  00092	51		 push	 ecx
  00093	50		 push	 eax
  00094	e8 00 00 00 00	 call	 ??3@YAXPAXI@Z		; operator delete
  00099	83 c4 08	 add	 esp, 8
$LN52@Tidy:
; File C:\Program Files (x86)\Microsoft Visual Studio\2019\Community\VC\Tools\MSVC\14.29.30133\include\deque

; 1490 :         _Mapsize() = 0;

  0009c	c7 46 08 00 00
	00 00		 mov	 DWORD PTR [esi+8], 0

; 1491 :         _Map()     = _Mapptr();

  000a3	c7 46 04 00 00
	00 00		 mov	 DWORD PTR [esi+4], 0
  000aa	5e		 pop	 esi

; 1492 :     }

  000ab	c3		 ret	 0
$LN59@Tidy:
; File C:\Program Files (x86)\Microsoft Visual Studio\2019\Community\VC\Tools\MSVC\14.29.30133\include\xmemory

; 164  :     _STL_VERIFY(_Back_shift >= _Min_back_shift && _Back_shift <= _Non_user_size, "invalid argument");

  000ac	ff 15 00 00 00
	00		 call	 DWORD PTR __imp___invalid_parameter_noinfo_noreturn
$LN73@Tidy:
  000b2	cc		 int	 3
?_Tidy@?$deque@VCPoints@@V?$allocator@VCPoints@@@std@@@std@@AAEXXZ ENDP ; std::deque<CPoints,std::allocator<CPoints> >::_Tidy
_TEXT	ENDS
; Function compile flags: /Ogtp
; File C:\Program Files (x86)\Microsoft Visual Studio\2019\Community\VC\Tools\MSVC\14.29.30133\include\deque
; File C:\Program Files (x86)\Microsoft Visual Studio\2019\Community\VC\Tools\MSVC\14.29.30133\include\xmemory
; File C:\Program Files (x86)\Microsoft Visual Studio\2019\Community\VC\Tools\MSVC\14.29.30133\include\deque
; File C:\Program Files (x86)\Microsoft Visual Studio\2019\Community\VC\Tools\MSVC\14.29.30133\include\xutility
; File C:\Program Files (x86)\Microsoft Visual Studio\2019\Community\VC\Tools\MSVC\14.29.30133\include\deque
; File C:\Program Files (x86)\Microsoft Visual Studio\2019\Community\VC\Tools\MSVC\14.29.30133\include\xutility
; File C:\Program Files (x86)\Microsoft Visual Studio\2019\Community\VC\Tools\MSVC\14.29.30133\include\deque
; File C:\Program Files (x86)\Microsoft Visual Studio\2019\Community\VC\Tools\MSVC\14.29.30133\include\xutility
; File C:\Program Files (x86)\Microsoft Visual Studio\2019\Community\VC\Tools\MSVC\14.29.30133\include\deque
; File C:\Program Files (x86)\Microsoft Visual Studio\2019\Community\VC\Tools\MSVC\14.29.30133\include\xutility
; File C:\Program Files (x86)\Microsoft Visual Studio\2019\Community\VC\Tools\MSVC\14.29.30133\include\deque
; File C:\Program Files (x86)\Microsoft Visual Studio\2019\Community\VC\Tools\MSVC\14.29.30133\include\xutility
; File C:\Program Files (x86)\Microsoft Visual Studio\2019\Community\VC\Tools\MSVC\14.29.30133\include\xmemory
; File C:\Program Files (x86)\Microsoft Visual Studio\2019\Community\VC\Tools\MSVC\14.29.30133\include\xutility
; File C:\Program Files (x86)\Microsoft Visual Studio\2019\Community\VC\Tools\MSVC\14.29.30133\include\xmemory
; File C:\Program Files (x86)\Microsoft Visual Studio\2019\Community\VC\Tools\MSVC\14.29.30133\include\deque
; File C:\Program Files (x86)\Microsoft Visual Studio\2019\Community\VC\Tools\MSVC\14.29.30133\include\xutility
; File C:\Program Files (x86)\Microsoft Visual Studio\2019\Community\VC\Tools\MSVC\14.29.30133\include\deque
; File C:\Program Files (x86)\Microsoft Visual Studio\2019\Community\VC\Tools\MSVC\14.29.30133\include\xutility
; File C:\Program Files (x86)\Microsoft Visual Studio\2019\Community\VC\Tools\MSVC\14.29.30133\include\deque
; File C:\Program Files (x86)\Microsoft Visual Studio\2019\Community\VC\Tools\MSVC\14.29.30133\include\xutility
; File C:\Program Files (x86)\Microsoft Visual Studio\2019\Community\VC\Tools\MSVC\14.29.30133\include\xmemory
; File C:\Program Files (x86)\Microsoft Visual Studio\2019\Community\VC\Tools\MSVC\14.29.30133\include\xutility
; File C:\Program Files (x86)\Microsoft Visual Studio\2019\Community\VC\Tools\MSVC\14.29.30133\include\xmemory
; File C:\Program Files (x86)\Microsoft Visual Studio\2019\Community\VC\Tools\MSVC\14.29.30133\include\xutility
; File C:\Program Files (x86)\Microsoft Visual Studio\2019\Community\VC\Tools\MSVC\14.29.30133\include\xmemory
; File C:\Program Files (x86)\Microsoft Visual Studio\2019\Community\VC\Tools\MSVC\14.29.30133\include\deque
; File C:\Program Files (x86)\Microsoft Visual Studio\2019\Community\VC\Tools\MSVC\14.29.30133\include\xmemory
; File C:\Program Files (x86)\Microsoft Visual Studio\2019\Community\VC\Tools\MSVC\14.29.30133\include\deque
; File C:\Program Files (x86)\Microsoft Visual Studio\2019\Community\VC\Tools\MSVC\14.29.30133\include\xmemory
; File C:\Program Files (x86)\Microsoft Visual Studio\2019\Community\VC\Tools\MSVC\14.29.30133\include\deque
; File C:\Program Files (x86)\Microsoft Visual Studio\2019\Community\VC\Tools\MSVC\14.29.30133\include\xmemory
; File C:\Program Files (x86)\Microsoft Visual Studio\2019\Community\VC\Tools\MSVC\14.29.30133\include\deque
;	COMDAT ?_Growmap@?$deque@VCPoints@@V?$allocator@VCPoints@@@std@@@std@@AAEXI@Z
_TEXT	SEGMENT
__Myptr$1$ = -12					; size = 4
_this$1$ = -8						; size = 4
__Myboff$1$ = -4					; size = 4
$T1 = 8							; size = 4
__Count$ = 8						; size = 4
?_Growmap@?$deque@VCPoints@@V?$allocator@VCPoints@@@std@@@std@@AAEXI@Z PROC ; std::deque<CPoints,std::allocator<CPoints> >::_Growmap, COMDAT
; _this$ = ecx

; 1432 :     void _Growmap(size_type _Count) { // grow map by at least _Count pointers, _Mapsize() a power of 2

  00000	55		 push	 ebp
  00001	8b ec		 mov	 ebp, esp
  00003	83 ec 0c	 sub	 esp, 12			; 0000000cH
  00006	53		 push	 ebx
  00007	56		 push	 esi
  00008	8b f1		 mov	 esi, ecx

; 1433 :         static_assert(1 < _Minimum_map_size, "The _Xlen() test should always be performed.");
; 1434 : 
; 1435 :         _Alpty _Almap(_Getal());
; 1436 :         size_type _Newsize = 0 < _Mapsize() ? _Mapsize() : 1;

  0000a	b8 01 00 00 00	 mov	 eax, 1
  0000f	57		 push	 edi
  00010	8b 7d 08	 mov	 edi, DWORD PTR __Count$[ebp]
  00013	89 75 f8	 mov	 DWORD PTR _this$1$[ebp], esi
  00016	8b 56 08	 mov	 edx, DWORD PTR [esi+8]
  00019	85 d2		 test	 edx, edx
  0001b	0f 45 c2	 cmovne	 eax, edx
  0001e	66 90		 npad	 2
$LL2@Growmap:

; 1437 :         while (_Newsize - _Mapsize() < _Count || _Newsize < _Minimum_map_size) {

  00020	8b d8		 mov	 ebx, eax
  00022	2b da		 sub	 ebx, edx
  00024	3b df		 cmp	 ebx, edi
  00026	72 05		 jb	 SHORT $LN4@Growmap
  00028	83 f8 08	 cmp	 eax, 8
  0002b	73 13		 jae	 SHORT $LN3@Growmap
$LN4@Growmap:

; 1438 :             // scale _Newsize to 2^N >= _Mapsize() + _Count
; 1439 :             if (max_size() / _Block_size - _Newsize < _Newsize) {

  0002d	b9 66 66 66 06	 mov	 ecx, 107374182		; 06666666H
  00032	2b c8		 sub	 ecx, eax
  00034	3b c8		 cmp	 ecx, eax
  00036	0f 82 4a 01 00
	00		 jb	 $LN138@Growmap

; 1441 :             }
; 1442 : 
; 1443 :             _Newsize *= 2;

  0003c	03 c0		 add	 eax, eax

; 1444 :         }

  0003e	eb e0		 jmp	 SHORT $LL2@Growmap
$LN3@Growmap:

; 1445 :         _Count = _Newsize - _Mapsize();
; 1446 : 
; 1447 :         size_type _Myboff = _Myoff() / _Block_size;

  00040	8b 7e 0c	 mov	 edi, DWORD PTR [esi+12]
  00043	89 7d fc	 mov	 DWORD PTR __Myboff$1$[ebp], edi
; File C:\Program Files (x86)\Microsoft Visual Studio\2019\Community\VC\Tools\MSVC\14.29.30133\include\xmemory

; 60   :         if (_Count > _Max_possible) {

  00046	3d ff ff ff 3f	 cmp	 eax, 1073741823		; 3fffffffH
  0004b	0f 87 3c 01 00
	00		 ja	 $LN142@Growmap

; 61   :             _Throw_bad_array_new_length(); // multiply overflow
; 62   :         }
; 63   :     }
; 64   : 
; 65   :     return _Count * _Ty_size;

  00051	c1 e0 02	 shl	 eax, 2

; 228  :         if (_Bytes >= _Big_allocation_threshold) { // boost the alignment of big allocations to help autovectorization

  00054	3d 00 10 00 00	 cmp	 eax, 4096		; 00001000H
  00059	72 27		 jb	 SHORT $LN19@Growmap

; 129  :     const size_t _Block_size = _Non_user_size + _Bytes;

  0005b	8d 48 23	 lea	 ecx, DWORD PTR [eax+35]

; 130  :     if (_Block_size <= _Bytes) {

  0005e	3b c8		 cmp	 ecx, eax
  00060	0f 86 27 01 00
	00		 jbe	 $LN142@Growmap

; 79   :         return ::operator new(_Bytes);

  00066	51		 push	 ecx
  00067	e8 00 00 00 00	 call	 ??2@YAPAXI@Z		; operator new
  0006c	83 c4 04	 add	 esp, 4

; 135  :     _STL_VERIFY(_Ptr_container != 0, "invalid argument"); // validate even in release since we're doing p[-1]

  0006f	85 c0		 test	 eax, eax
  00071	0f 84 09 01 00
	00		 je	 $LN130@Growmap

; 136  :     void* const _Ptr = reinterpret_cast<void*>((_Ptr_container + _Non_user_size) & ~(_Big_allocation_alignment - 1));

  00077	8d 50 23	 lea	 edx, DWORD PTR [eax+35]
  0007a	83 e2 e0	 and	 edx, -32		; ffffffe0H

; 137  :     static_cast<uintptr_t*>(_Ptr)[-1] = _Ptr_container;

  0007d	89 42 fc	 mov	 DWORD PTR [edx-4], eax

; 229  :             return _Allocate_manually_vector_aligned<_Traits>(_Bytes);

  00080	eb 13		 jmp	 SHORT $LN145@Growmap
$LN19@Growmap:

; 230  :         }
; 231  :     }
; 232  : #endif // defined(_M_IX86) || defined(_M_X64)
; 233  : 
; 234  :     if (_Bytes != 0) {

  00082	85 c0		 test	 eax, eax
  00084	74 0d		 je	 SHORT $LN20@Growmap

; 79   :         return ::operator new(_Bytes);

  00086	50		 push	 eax
  00087	e8 00 00 00 00	 call	 ??2@YAPAXI@Z		; operator new
  0008c	83 c4 04	 add	 esp, 4

; 235  :         return _Traits::_Allocate(_Bytes);

  0008f	8b d0		 mov	 edx, eax
  00091	eb 02		 jmp	 SHORT $LN145@Growmap
$LN20@Growmap:

; 236  :     }
; 237  : 
; 238  :     return nullptr;

  00093	33 d2		 xor	 edx, edx
$LN145@Growmap:
; File C:\Program Files (x86)\Microsoft Visual Studio\2019\Community\VC\Tools\MSVC\14.29.30133\include\deque

; 1451 :         _Myptr = _STD uninitialized_copy(_Map() + _Myboff, _Map() + _Mapsize(), _Myptr); // copy initial to end

  00095	8b 46 04	 mov	 eax, DWORD PTR [esi+4]
  00098	8b 76 08	 mov	 esi, DWORD PTR [esi+8]
  0009b	c1 e7 02	 shl	 edi, 2
  0009e	c1 e6 02	 shl	 esi, 2
  000a1	89 55 08	 mov	 DWORD PTR $T1[ebp], edx
  000a4	8d 0c 38	 lea	 ecx, DWORD PTR [eax+edi]
  000a7	03 fa		 add	 edi, edx
; File C:\Program Files (x86)\Microsoft Visual Studio\2019\Community\VC\Tools\MSVC\14.29.30133\include\xutility

; 4065 :     const auto _Count           = static_cast<size_t>(_Last_ch - _First_ch);

  000a9	2b f1		 sub	 esi, ecx
; File C:\Program Files (x86)\Microsoft Visual Studio\2019\Community\VC\Tools\MSVC\14.29.30133\include\deque

; 1451 :         _Myptr = _STD uninitialized_copy(_Map() + _Myboff, _Map() + _Mapsize(), _Myptr); // copy initial to end

  000ab	03 f0		 add	 esi, eax
; File C:\Program Files (x86)\Microsoft Visual Studio\2019\Community\VC\Tools\MSVC\14.29.30133\include\xutility

; 4066 :     _CSTD memmove(_Dest_ch, _First_ch, _Count);

  000ad	56		 push	 esi
  000ae	51		 push	 ecx
  000af	57		 push	 edi
  000b0	e8 00 00 00 00	 call	 _memmove
; File C:\Program Files (x86)\Microsoft Visual Studio\2019\Community\VC\Tools\MSVC\14.29.30133\include\deque

; 1452 :         if (_Myboff <= _Count) { // increment greater than offset of initial block

  000b5	8b 4d fc	 mov	 ecx, DWORD PTR __Myboff$1$[ebp]
; File C:\Program Files (x86)\Microsoft Visual Studio\2019\Community\VC\Tools\MSVC\14.29.30133\include\xutility

; 4068 :         return reinterpret_cast<_OutCtgIt>(_Dest_ch + _Count);

  000b8	8d 04 3e	 lea	 eax, DWORD PTR [esi+edi]
; File C:\Program Files (x86)\Microsoft Visual Studio\2019\Community\VC\Tools\MSVC\14.29.30133\include\deque

; 1451 :         _Myptr = _STD uninitialized_copy(_Map() + _Myboff, _Map() + _Mapsize(), _Myptr); // copy initial to end

  000bb	8b 75 f8	 mov	 esi, DWORD PTR _this$1$[ebp]
; File C:\Program Files (x86)\Microsoft Visual Studio\2019\Community\VC\Tools\MSVC\14.29.30133\include\xutility

; 4066 :     _CSTD memmove(_Dest_ch, _First_ch, _Count);

  000be	83 c4 0c	 add	 esp, 12			; 0000000cH

; 4068 :         return reinterpret_cast<_OutCtgIt>(_Dest_ch + _Count);

  000c1	89 45 f4	 mov	 DWORD PTR __Myptr$1$[ebp], eax
; File C:\Program Files (x86)\Microsoft Visual Studio\2019\Community\VC\Tools\MSVC\14.29.30133\include\deque

; 1451 :         _Myptr = _STD uninitialized_copy(_Map() + _Myboff, _Map() + _Mapsize(), _Myptr); // copy initial to end

  000c4	8b 56 04	 mov	 edx, DWORD PTR [esi+4]

; 1452 :         if (_Myboff <= _Count) { // increment greater than offset of initial block

  000c7	3b cb		 cmp	 ecx, ebx
  000c9	77 33		 ja	 SHORT $LN6@Growmap
; File C:\Program Files (x86)\Microsoft Visual Studio\2019\Community\VC\Tools\MSVC\14.29.30133\include\xutility

; 4066 :     _CSTD memmove(_Dest_ch, _First_ch, _Count);

  000cb	8d 3c 8d 00 00
	00 00		 lea	 edi, DWORD PTR [ecx*4]
  000d2	57		 push	 edi
  000d3	52		 push	 edx
  000d4	50		 push	 eax
  000d5	e8 00 00 00 00	 call	 _memmove
; File C:\Program Files (x86)\Microsoft Visual Studio\2019\Community\VC\Tools\MSVC\14.29.30133\include\xmemory

; 1792 :     _CSTD memset(_First_ch, 0, static_cast<size_t>(_Last_ch - _First_ch));

  000da	8b c3		 mov	 eax, ebx
  000dc	2b 45 fc	 sub	 eax, DWORD PTR __Myboff$1$[ebp]
  000df	c1 e0 02	 shl	 eax, 2
  000e2	50		 push	 eax
; File C:\Program Files (x86)\Microsoft Visual Studio\2019\Community\VC\Tools\MSVC\14.29.30133\include\xutility

; 4068 :         return reinterpret_cast<_OutCtgIt>(_Dest_ch + _Count);

  000e3	8b 45 f4	 mov	 eax, DWORD PTR __Myptr$1$[ebp]
  000e6	03 c7		 add	 eax, edi
; File C:\Program Files (x86)\Microsoft Visual Studio\2019\Community\VC\Tools\MSVC\14.29.30133\include\xmemory

; 1792 :     _CSTD memset(_First_ch, 0, static_cast<size_t>(_Last_ch - _First_ch));

  000e8	6a 00		 push	 0
  000ea	50		 push	 eax
  000eb	e8 00 00 00 00	 call	 _memset
  000f0	57		 push	 edi
  000f1	8b 7d 08	 mov	 edi, DWORD PTR $T1[ebp]
  000f4	6a 00		 push	 0
  000f6	57		 push	 edi
  000f7	e8 00 00 00 00	 call	 _memset
; File C:\Program Files (x86)\Microsoft Visual Studio\2019\Community\VC\Tools\MSVC\14.29.30133\include\deque

; 1456 :         } else { // increment not greater than offset of initial block

  000fc	eb 3f		 jmp	 SHORT $LN146@Growmap
$LN6@Growmap:

; 1457 :             _STD uninitialized_copy(_Map(), _Map() + _Count, _Myptr); // copy more old

  000fe	8d 3c 9d 00 00
	00 00		 lea	 edi, DWORD PTR [ebx*4]
; File C:\Program Files (x86)\Microsoft Visual Studio\2019\Community\VC\Tools\MSVC\14.29.30133\include\xutility

; 4066 :     _CSTD memmove(_Dest_ch, _First_ch, _Count);

  00105	57		 push	 edi
  00106	52		 push	 edx
  00107	50		 push	 eax
  00108	e8 00 00 00 00	 call	 _memmove
; File C:\Program Files (x86)\Microsoft Visual Studio\2019\Community\VC\Tools\MSVC\14.29.30133\include\deque

; 1458 :             _Myptr = _STD uninitialized_copy(_Map() + _Count, _Map() + _Myboff, _Newmap); // copy rest of old

  0010d	8b 76 04	 mov	 esi, DWORD PTR [esi+4]
  00110	8b 55 fc	 mov	 edx, DWORD PTR __Myboff$1$[ebp]
  00113	8d 04 37	 lea	 eax, DWORD PTR [edi+esi]
; File C:\Program Files (x86)\Microsoft Visual Studio\2019\Community\VC\Tools\MSVC\14.29.30133\include\xutility

; 4065 :     const auto _Count           = static_cast<size_t>(_Last_ch - _First_ch);

  00116	2b f0		 sub	 esi, eax
; File C:\Program Files (x86)\Microsoft Visual Studio\2019\Community\VC\Tools\MSVC\14.29.30133\include\deque

; 1458 :             _Myptr = _STD uninitialized_copy(_Map() + _Count, _Map() + _Myboff, _Newmap); // copy rest of old

  00118	8d 0c 95 00 00
	00 00		 lea	 ecx, DWORD PTR [edx*4]
  0011f	03 f1		 add	 esi, ecx
; File C:\Program Files (x86)\Microsoft Visual Studio\2019\Community\VC\Tools\MSVC\14.29.30133\include\xutility

; 4066 :     _CSTD memmove(_Dest_ch, _First_ch, _Count);

  00121	56		 push	 esi
  00122	50		 push	 eax
  00123	ff 75 08	 push	 DWORD PTR $T1[ebp]
  00126	e8 00 00 00 00	 call	 _memmove
; File C:\Program Files (x86)\Microsoft Visual Studio\2019\Community\VC\Tools\MSVC\14.29.30133\include\xmemory

; 1792 :     _CSTD memset(_First_ch, 0, static_cast<size_t>(_Last_ch - _First_ch));

  0012b	57		 push	 edi
; File C:\Program Files (x86)\Microsoft Visual Studio\2019\Community\VC\Tools\MSVC\14.29.30133\include\xutility

; 4068 :         return reinterpret_cast<_OutCtgIt>(_Dest_ch + _Count);

  0012c	8b 7d 08	 mov	 edi, DWORD PTR $T1[ebp]
; File C:\Program Files (x86)\Microsoft Visual Studio\2019\Community\VC\Tools\MSVC\14.29.30133\include\xmemory

; 1792 :     _CSTD memset(_First_ch, 0, static_cast<size_t>(_Last_ch - _First_ch));

  0012f	6a 00		 push	 0
; File C:\Program Files (x86)\Microsoft Visual Studio\2019\Community\VC\Tools\MSVC\14.29.30133\include\xutility

; 4068 :         return reinterpret_cast<_OutCtgIt>(_Dest_ch + _Count);

  00131	8d 04 3e	 lea	 eax, DWORD PTR [esi+edi]
; File C:\Program Files (x86)\Microsoft Visual Studio\2019\Community\VC\Tools\MSVC\14.29.30133\include\xmemory

; 1792 :     _CSTD memset(_First_ch, 0, static_cast<size_t>(_Last_ch - _First_ch));

  00134	50		 push	 eax
  00135	e8 00 00 00 00	 call	 _memset
  0013a	8b 75 f8	 mov	 esi, DWORD PTR _this$1$[ebp]
$LN146@Growmap:
; File C:\Program Files (x86)\Microsoft Visual Studio\2019\Community\VC\Tools\MSVC\14.29.30133\include\deque

; 1463 :         if (_Map() != _Mapptr()) {

  0013d	8b 46 04	 mov	 eax, DWORD PTR [esi+4]
  00140	83 c4 24	 add	 esp, 36			; 00000024H
  00143	85 c0		 test	 eax, eax
  00145	74 2a		 je	 SHORT $LN123@Growmap
; File C:\Program Files (x86)\Microsoft Visual Studio\2019\Community\VC\Tools\MSVC\14.29.30133\include\xmemory

; 797  :         _Deallocate<_New_alignof<_Ty>>(_Ptr, sizeof(_Ty) * _Count);

  00147	8b 4e 08	 mov	 ecx, DWORD PTR [esi+8]
  0014a	c1 e1 02	 shl	 ecx, 2

; 251  :         if (_Bytes >= _Big_allocation_threshold) { // boost the alignment of big allocations to help autovectorization

  0014d	81 f9 00 10 00
	00		 cmp	 ecx, 4096		; 00001000H
  00153	72 12		 jb	 SHORT $LN133@Growmap

; 150  :     const uintptr_t _Ptr_container   = _Ptr_user[-1];

  00155	8b 50 fc	 mov	 edx, DWORD PTR [eax-4]
  00158	83 c1 23	 add	 ecx, 35			; 00000023H

; 151  : 
; 152  :     // If the following asserts, it likely means that we are performing
; 153  :     // an aligned delete on memory coming from an unaligned allocation.
; 154  :     _STL_ASSERT(_Ptr_user[-2] == _Big_allocation_sentinel, "invalid argument");
; 155  : 
; 156  :     // Extra paranoia on aligned allocation/deallocation; ensure _Ptr_container is
; 157  :     // in range [_Min_back_shift, _Non_user_size]
; 158  : #ifdef _DEBUG
; 159  :     constexpr uintptr_t _Min_back_shift = 2 * sizeof(void*);
; 160  : #else // ^^^ _DEBUG ^^^ // vvv !_DEBUG vvv
; 161  :     constexpr uintptr_t _Min_back_shift = sizeof(void*);
; 162  : #endif // _DEBUG
; 163  :     const uintptr_t _Back_shift = reinterpret_cast<uintptr_t>(_Ptr) - _Ptr_container;

  0015b	2b c2		 sub	 eax, edx

; 164  :     _STL_VERIFY(_Back_shift >= _Min_back_shift && _Back_shift <= _Non_user_size, "invalid argument");

  0015d	83 c0 fc	 add	 eax, -4			; fffffffcH
  00160	83 f8 1f	 cmp	 eax, 31			; 0000001fH
  00163	77 1b		 ja	 SHORT $LN130@Growmap

; 165  :     _Ptr = reinterpret_cast<void*>(_Ptr_container);

  00165	8b c2		 mov	 eax, edx
$LN133@Growmap:

; 255  :         ::operator delete(_Ptr, _Bytes);

  00167	51		 push	 ecx
  00168	50		 push	 eax
  00169	e8 00 00 00 00	 call	 ??3@YAXPAXI@Z		; operator delete
  0016e	83 c4 08	 add	 esp, 8
$LN123@Growmap:
; File C:\Program Files (x86)\Microsoft Visual Studio\2019\Community\VC\Tools\MSVC\14.29.30133\include\deque

; 1468 :         _Mapsize() += _Count;

  00171	01 5e 08	 add	 DWORD PTR [esi+8], ebx
  00174	89 7e 04	 mov	 DWORD PTR [esi+4], edi
  00177	5f		 pop	 edi
  00178	5e		 pop	 esi
  00179	5b		 pop	 ebx

; 1469 :     }

  0017a	8b e5		 mov	 esp, ebp
  0017c	5d		 pop	 ebp
  0017d	c2 04 00	 ret	 4
$LN130@Growmap:
; File C:\Program Files (x86)\Microsoft Visual Studio\2019\Community\VC\Tools\MSVC\14.29.30133\include\xmemory

; 164  :     _STL_VERIFY(_Back_shift >= _Min_back_shift && _Back_shift <= _Non_user_size, "invalid argument");

  00180	ff 15 00 00 00
	00		 call	 DWORD PTR __imp___invalid_parameter_noinfo_noreturn
$LN138@Growmap:
; File C:\Program Files (x86)\Microsoft Visual Studio\2019\Community\VC\Tools\MSVC\14.29.30133\include\deque

; 1440 :                 _Xlen(); // result too long

  00186	8b ce		 mov	 ecx, esi
  00188	e8 00 00 00 00	 call	 ?_Xlen@?$deque@VCPoints@@V?$allocator@VCPoints@@@std@@@std@@ABEXXZ ; std::deque<CPoints,std::allocator<CPoints> >::_Xlen
$LN142@Growmap:
; File C:\Program Files (x86)\Microsoft Visual Studio\2019\Community\VC\Tools\MSVC\14.29.30133\include\xmemory

; 131  :         _Throw_bad_array_new_length(); // add overflow

  0018d	e8 00 00 00 00	 call	 ?_Throw_bad_array_new_length@std@@YAXXZ ; std::_Throw_bad_array_new_length
$LN144@Growmap:
  00192	cc		 int	 3
?_Growmap@?$deque@VCPoints@@V?$allocator@VCPoints@@@std@@@std@@AAEXI@Z ENDP ; std::deque<CPoints,std::allocator<CPoints> >::_Growmap
_TEXT	ENDS
; Function compile flags: /Ogtp
; File C:\Program Files (x86)\Microsoft Visual Studio\2019\Community\VC\Tools\MSVC\14.29.30133\include\deque
;	COMDAT ?_Xlen@?$deque@VCPoints@@V?$allocator@VCPoints@@@std@@@std@@ABEXXZ
_TEXT	SEGMENT
?_Xlen@?$deque@VCPoints@@V?$allocator@VCPoints@@@std@@@std@@ABEXXZ PROC ; std::deque<CPoints,std::allocator<CPoints> >::_Xlen, COMDAT
; _this$ = ecx

; 1425 :         _Xlength_error("deque<T> too long");

  00000	68 00 00 00 00	 push	 OFFSET ??_C@_0BC@KBDMBKEH@deque?$DMT?$DO?5too?5long@
  00005	e8 00 00 00 00	 call	 ?_Xlength_error@std@@YAXPBD@Z ; std::_Xlength_error
$LN3@Xlen:
  0000a	cc		 int	 3
?_Xlen@?$deque@VCPoints@@V?$allocator@VCPoints@@@std@@@std@@ABEXXZ ENDP ; std::deque<CPoints,std::allocator<CPoints> >::_Xlen
_TEXT	ENDS
; Function compile flags: /Ogtp
; File C:\Program Files (x86)\Microsoft Visual Studio\2019\Community\VC\Tools\MSVC\14.29.30133\include\deque
; File C:\Program Files (x86)\Microsoft Visual Studio\2019\Community\VC\Tools\MSVC\14.29.30133\include\xmemory
; File C:\Program Files (x86)\Microsoft Visual Studio\2019\Community\VC\Tools\MSVC\14.29.30133\include\deque
; File C:\Program Files (x86)\Microsoft Visual Studio\2019\Community\VC\Tools\MSVC\14.29.30133\include\xmemory
; File C:\Program Files (x86)\Microsoft Visual Studio\2019\Community\VC\Tools\MSVC\14.29.30133\include\deque
; File C:\Program Files (x86)\Microsoft Visual Studio\2019\Community\VC\Tools\MSVC\14.29.30133\include\xmemory
; File C:\Program Files (x86)\Microsoft Visual Studio\2019\Community\VC\Tools\MSVC\14.29.30133\include\xutility
; File C:\Program Files (x86)\Microsoft Visual Studio\2019\Community\VC\Tools\MSVC\14.29.30133\include\deque
; File C:\Program Files (x86)\Microsoft Visual Studio\2019\Community\VC\Tools\MSVC\14.29.30133\include\xutility
; File C:\Program Files (x86)\Microsoft Visual Studio\2019\Community\VC\Tools\MSVC\14.29.30133\include\deque
; File C:\Program Files (x86)\Microsoft Visual Studio\2019\Community\VC\Tools\MSVC\14.29.30133\include\xutility
; File C:\Program Files (x86)\Microsoft Visual Studio\2019\Community\VC\Tools\MSVC\14.29.30133\include\deque
; File C:\Program Files (x86)\Microsoft Visual Studio\2019\Community\VC\Tools\MSVC\14.29.30133\include\xutility
; File C:\Program Files (x86)\Microsoft Visual Studio\2019\Community\VC\Tools\MSVC\14.29.30133\include\deque
; File C:\Program Files (x86)\Microsoft Visual Studio\2019\Community\VC\Tools\MSVC\14.29.30133\include\xutility
; File C:\Program Files (x86)\Microsoft Visual Studio\2019\Community\VC\Tools\MSVC\14.29.30133\include\deque
; File C:\Program Files (x86)\Microsoft Visual Studio\2019\Community\VC\Tools\MSVC\14.29.30133\include\xutility
; File C:\Program Files (x86)\Microsoft Visual Studio\2019\Community\VC\Tools\MSVC\14.29.30133\include\deque
; File C:\Program Files (x86)\Microsoft Visual Studio\2019\Community\VC\Tools\MSVC\14.29.30133\include\xmemory
; File C:\Program Files (x86)\Microsoft Visual Studio\2019\Community\VC\Tools\MSVC\14.29.30133\include\xutility
; File C:\Program Files (x86)\Microsoft Visual Studio\2019\Community\VC\Tools\MSVC\14.29.30133\include\deque
; File C:\Program Files (x86)\Microsoft Visual Studio\2019\Community\VC\Tools\MSVC\14.29.30133\include\xutility
; File C:\Program Files (x86)\Microsoft Visual Studio\2019\Community\VC\Tools\MSVC\14.29.30133\include\deque
; File C:\Program Files (x86)\Microsoft Visual Studio\2019\Community\VC\Tools\MSVC\14.29.30133\include\xutility
; File C:\Program Files (x86)\Microsoft Visual Studio\2019\Community\VC\Tools\MSVC\14.29.30133\include\deque
; File C:\Program Files (x86)\Microsoft Visual Studio\2019\Community\VC\Tools\MSVC\14.29.30133\include\xutility
; File C:\Program Files (x86)\Microsoft Visual Studio\2019\Community\VC\Tools\MSVC\14.29.30133\include\deque
; File C:\Program Files (x86)\Microsoft Visual Studio\2019\Community\VC\Tools\MSVC\14.29.30133\include\xutility
; File C:\Program Files (x86)\Microsoft Visual Studio\2019\Community\VC\Tools\MSVC\14.29.30133\include\deque
; File C:\Program Files (x86)\Microsoft Visual Studio\2019\Community\VC\Tools\MSVC\14.29.30133\include\xutility
; File C:\Program Files (x86)\Microsoft Visual Studio\2019\Community\VC\Tools\MSVC\14.29.30133\include\deque
; File C:\Program Files (x86)\Microsoft Visual Studio\2019\Community\VC\Tools\MSVC\14.29.30133\include\xmemory
; File C:\Program Files (x86)\Microsoft Visual Studio\2019\Community\VC\Tools\MSVC\14.29.30133\include\deque
; File C:\Program Files (x86)\Microsoft Visual Studio\2019\Community\VC\Tools\MSVC\14.29.30133\include\xmemory
; File C:\Program Files (x86)\Microsoft Visual Studio\2019\Community\VC\Tools\MSVC\14.29.30133\include\deque
;	COMDAT ?erase@?$deque@VCPoints@@V?$allocator@VCPoints@@@std@@@std@@QAE?AV?$_Deque_iterator@V?$_Deque_val@U?$_Deque_simple_types@VCPoints@@@std@@@std@@@2@V?$_Deque_const_iterator@V?$_Deque_val@U?$_Deque_simple_types@VCPoints@@@std@@@std@@@2@0@Z
_TEXT	SEGMENT
__Off$1$ = -28						; size = 4
_this$1$ = -24						; size = 4
tv1984 = -16						; size = 4
__ULast$9$sroa$987$1$ = -16				; size = 4
$T11 = -16						; size = 4
__Count$1$ = -12					; size = 4
$T12 = -8						; size = 4
$T13 = -8						; size = 4
__UFirst$3$sroa$1002$1$ = -4				; size = 4
$T14 = -4						; size = 4
___$ReturnUdt$ = 8					; size = 4
__First_arg$ = 12					; size = 12
__Last_arg$ = 24					; size = 12
?erase@?$deque@VCPoints@@V?$allocator@VCPoints@@@std@@@std@@QAE?AV?$_Deque_iterator@V?$_Deque_val@U?$_Deque_simple_types@VCPoints@@@std@@@std@@@2@V?$_Deque_const_iterator@V?$_Deque_val@U?$_Deque_simple_types@VCPoints@@@std@@@std@@@2@0@Z PROC ; std::deque<CPoints,std::allocator<CPoints> >::erase, COMDAT
; _this$ = ecx

; 1281 :         is_nothrow_move_assignable_v<value_type>) /* strengthened */ {

  00000	55		 push	 ebp
  00001	8b ec		 mov	 ebp, esp
  00003	83 ec 1c	 sub	 esp, 28			; 0000001cH
  00006	53		 push	 ebx
  00007	56		 push	 esi
  00008	8b f1		 mov	 esi, ecx
  0000a	89 75 e8	 mov	 DWORD PTR _this$1$[ebp], esi
  0000d	57		 push	 edi
; File C:\Program Files (x86)\Microsoft Visual Studio\2019\Community\VC\Tools\MSVC\14.29.30133\include\xmemory

; 1098 :         if (_Parent) { // have a parent, do adoption

  0000e	85 f6		 test	 esi, esi
  00010	74 04		 je	 SHORT $LN29@erase

; 1099 :             _Myproxy = _Parent->_Myproxy;

  00012	8b 16		 mov	 edx, DWORD PTR [esi]

; 1100 :         } else { // no future parent, just disown current parent

  00014	eb 02		 jmp	 SHORT $LN49@erase
$LN29@erase:

; 1101 :             _Myproxy = nullptr;

  00016	33 d2		 xor	 edx, edx
$LN49@erase:
; File C:\Program Files (x86)\Microsoft Visual Studio\2019\Community\VC\Tools\MSVC\14.29.30133\include\deque

; 339  :         return static_cast<difference_type>(this->_Myoff - _Right._Myoff);

  00018	8b 5d 14	 mov	 ebx, DWORD PTR __First_arg$[ebp+8]
  0001b	8b cb		 mov	 ecx, ebx

; 253  :     _Deque_const_iterator(_Size_type _Off, const _Container_base12* _Pdeque) noexcept : _Myoff(_Off) {

  0001d	8b 46 0c	 mov	 eax, DWORD PTR [esi+12]

; 339  :         return static_cast<difference_type>(this->_Myoff - _Right._Myoff);

  00020	2b c8		 sub	 ecx, eax
  00022	89 4d e4	 mov	 DWORD PTR __Off$1$[ebp], ecx

; 1282 :         iterator _First = _Make_iter(_First_arg);
; 1283 :         iterator _Last  = _Make_iter(_Last_arg);
; 1284 : 
; 1285 : #if _ITERATOR_DEBUG_LEVEL == 2
; 1286 :         _STL_VERIFY(_First <= _Last && begin() <= _First && _Last <= end(), "deque erase iterator outside range");
; 1287 :         _Adl_verify_range(_First, _Last);
; 1288 : 
; 1289 :         auto _Off   = static_cast<size_type>(_First - begin());
; 1290 :         auto _Count = static_cast<size_type>(_Last - _First);
; 1291 :         bool _Moved = 0 < _Off && _Off + _Count < _Mysize();
; 1292 : 
; 1293 : #else // _ITERATOR_DEBUG_LEVEL == 2
; 1294 :         auto _Off   = static_cast<size_type>(_First - begin());

  00025	8b 4d 20	 mov	 ecx, DWORD PTR __Last_arg$[ebp+8]
  00028	8b f9		 mov	 edi, ecx
  0002a	2b fb		 sub	 edi, ebx

; 253  :     _Deque_const_iterator(_Size_type _Off, const _Container_base12* _Pdeque) noexcept : _Myoff(_Off) {

  0002c	89 45 fc	 mov	 DWORD PTR __UFirst$3$sroa$1002$1$[ebp], eax

; 1282 :         iterator _First = _Make_iter(_First_arg);
; 1283 :         iterator _Last  = _Make_iter(_Last_arg);
; 1284 : 
; 1285 : #if _ITERATOR_DEBUG_LEVEL == 2
; 1286 :         _STL_VERIFY(_First <= _Last && begin() <= _First && _Last <= end(), "deque erase iterator outside range");
; 1287 :         _Adl_verify_range(_First, _Last);
; 1288 : 
; 1289 :         auto _Off   = static_cast<size_type>(_First - begin());
; 1290 :         auto _Count = static_cast<size_type>(_Last - _First);
; 1291 :         bool _Moved = 0 < _Off && _Off + _Count < _Mysize();
; 1292 : 
; 1293 : #else // _ITERATOR_DEBUG_LEVEL == 2
; 1294 :         auto _Off   = static_cast<size_type>(_First - begin());

  0002f	89 7d f4	 mov	 DWORD PTR __Count$1$[ebp], edi

; 1295 :         auto _Count = static_cast<size_type>(_Last - _First);
; 1296 : #endif // _ITERATOR_DEBUG_LEVEL == 2
; 1297 : 
; 1298 :         if (_Count == 0) {

  00032	75 18		 jne	 SHORT $LN8@erase
; File C:\Program Files (x86)\Microsoft Visual Studio\2019\Community\VC\Tools\MSVC\14.29.30133\include\xmemory

; 1113 :     mutable _Iterator_base12* _Mynextiter = nullptr;

  00034	8b 45 08	 mov	 eax, DWORD PTR ___$ReturnUdt$[ebp]

; 1069 :         _Myproxy = _Right._Myproxy;

  00037	89 10		 mov	 DWORD PTR [eax], edx
  00039	89 58 08	 mov	 DWORD PTR [eax+8], ebx
; File C:\Program Files (x86)\Microsoft Visual Studio\2019\Community\VC\Tools\MSVC\14.29.30133\include\deque

; 1321 :     }

  0003c	c7 40 04 00 00
	00 00		 mov	 DWORD PTR [eax+4], 0
  00043	5f		 pop	 edi
  00044	5e		 pop	 esi
  00045	5b		 pop	 ebx
  00046	8b e5		 mov	 esp, ebp
  00048	5d		 pop	 ebp
  00049	c2 1c 00	 ret	 28			; 0000001cH
$LN8@erase:

; 897  :         return iterator(_Myoff() + _Mysize(), _STD addressof(_Get_data()));

  0004c	8b 46 10	 mov	 eax, DWORD PTR [esi+16]
  0004f	03 45 fc	 add	 eax, DWORD PTR __UFirst$3$sroa$1002$1$[ebp]
  00052	89 45 f0	 mov	 DWORD PTR tv1984[ebp], eax

; 339  :         return static_cast<difference_type>(this->_Myoff - _Right._Myoff);

  00055	2b c1		 sub	 eax, ecx

; 1299 :             return _First;
; 1300 :         }
; 1301 : 
; 1302 :         if (_Off < static_cast<size_type>(end() - _Last)) { // closer to front

  00057	39 45 e4	 cmp	 DWORD PTR __Off$1$[ebp], eax
  0005a	0f 83 89 00 00
	00		 jae	 $LN9@erase

; 507  :         return {this->_Myoff, this->_Getcont()};

  00060	85 d2		 test	 edx, edx
; File C:\Program Files (x86)\Microsoft Visual Studio\2019\Community\VC\Tools\MSVC\14.29.30133\include\xmemory

; 1107 :         return _Myproxy ? _Myproxy->_Mycont : nullptr;

  00062	74 09		 je	 SHORT $LN144@erase
  00064	8b 02		 mov	 eax, DWORD PTR [edx]
  00066	8b d0		 mov	 edx, eax
  00068	89 45 f8	 mov	 DWORD PTR $T13[ebp], eax
  0006b	eb 07		 jmp	 SHORT $LN411@erase
$LN144@erase:
  0006d	33 d2		 xor	 edx, edx
  0006f	33 c0		 xor	 eax, eax
  00071	89 55 f8	 mov	 DWORD PTR $T13[ebp], edx
$LN411@erase:
; File C:\Program Files (x86)\Microsoft Visual Studio\2019\Community\VC\Tools\MSVC\14.29.30133\include\xutility

; 4376 :     _Seek_wrapped(_Dest, _Move_backward_unchecked(_UFirst, _ULast, _UDest));

  00074	89 45 f0	 mov	 DWORD PTR $T11[ebp], eax
  00077	39 5d fc	 cmp	 DWORD PTR __UFirst$3$sroa$1002$1$[ebp], ebx

; 4362 :     while (_First != _Last) {

  0007a	74 34		 je	 SHORT $LN409@erase
  0007c	8b 75 fc	 mov	 esi, DWORD PTR __UFirst$3$sroa$1002$1$[ebp]
  0007f	8b f9		 mov	 edi, ecx
$LL169@erase:
; File C:\Program Files (x86)\Microsoft Visual Studio\2019\Community\VC\Tools\MSVC\14.29.30133\include\deque

; 559  :         return (_Off / _Block_size) & (_Mapsize - 1);

  00081	8b 48 08	 mov	 ecx, DWORD PTR [eax+8]

; 67   :         --_Myoff;

  00084	4b		 dec	 ebx
; File C:\Program Files (x86)\Microsoft Visual Studio\2019\Community\VC\Tools\MSVC\14.29.30133\include\xutility

; 4363 :         *--_Dest = _STD move(*--_Last);

  00085	8b 40 04	 mov	 eax, DWORD PTR [eax+4]
; File C:\Program Files (x86)\Microsoft Visual Studio\2019\Community\VC\Tools\MSVC\14.29.30133\include\deque

; 559  :         return (_Off / _Block_size) & (_Mapsize - 1);

  00088	49		 dec	 ecx
  00089	23 cb		 and	 ecx, ebx

; 67   :         --_Myoff;

  0008b	4f		 dec	 edi
; File C:\Program Files (x86)\Microsoft Visual Studio\2019\Community\VC\Tools\MSVC\14.29.30133\include\xutility

; 4363 :         *--_Dest = _STD move(*--_Last);

  0008c	ff 34 88	 push	 DWORD PTR [eax+ecx*4]
; File C:\Program Files (x86)\Microsoft Visual Studio\2019\Community\VC\Tools\MSVC\14.29.30133\include\deque

; 559  :         return (_Off / _Block_size) & (_Mapsize - 1);

  0008f	8b 42 08	 mov	 eax, DWORD PTR [edx+8]
; File C:\Program Files (x86)\Microsoft Visual Studio\2019\Community\VC\Tools\MSVC\14.29.30133\include\xutility

; 4363 :         *--_Dest = _STD move(*--_Last);

  00092	8b 4a 04	 mov	 ecx, DWORD PTR [edx+4]
; File C:\Program Files (x86)\Microsoft Visual Studio\2019\Community\VC\Tools\MSVC\14.29.30133\include\deque

; 559  :         return (_Off / _Block_size) & (_Mapsize - 1);

  00095	48		 dec	 eax
  00096	23 c7		 and	 eax, edi
; File C:\Program Files (x86)\Microsoft Visual Studio\2019\Community\VC\Tools\MSVC\14.29.30133\include\xutility

; 4363 :         *--_Dest = _STD move(*--_Last);

  00098	8b 0c 81	 mov	 ecx, DWORD PTR [ecx+eax*4]
  0009b	e8 00 00 00 00	 call	 ??4CPoints@@QAEAAV0@ABV0@@Z ; CPoints::operator=
  000a0	8b 55 f8	 mov	 edx, DWORD PTR $T13[ebp]
  000a3	8b 45 f0	 mov	 eax, DWORD PTR $T11[ebp]
; File C:\Program Files (x86)\Microsoft Visual Studio\2019\Community\VC\Tools\MSVC\14.29.30133\include\deque

; 106  :         return _Myoff == _Right._Myoff;

  000a6	3b de		 cmp	 ebx, esi
; File C:\Program Files (x86)\Microsoft Visual Studio\2019\Community\VC\Tools\MSVC\14.29.30133\include\xutility

; 4362 :     while (_First != _Last) {

  000a8	75 d7		 jne	 SHORT $LL169@erase
  000aa	8b 75 e8	 mov	 esi, DWORD PTR _this$1$[ebp]
  000ad	8b 7d f4	 mov	 edi, DWORD PTR __Count$1$[ebp]
$LN409@erase:
  000b0	8b 46 0c	 mov	 eax, DWORD PTR [esi+12]
$LL4@erase:
; File C:\Program Files (x86)\Microsoft Visual Studio\2019\Community\VC\Tools\MSVC\14.29.30133\include\deque

; 559  :         return (_Off / _Block_size) & (_Mapsize - 1);

  000b3	8b 4e 08	 mov	 ecx, DWORD PTR [esi+8]
  000b6	49		 dec	 ecx
  000b7	23 c8		 and	 ecx, eax

; 1094 :         _Alty_traits::destroy(_Getal(), _Unfancy(_Map()[_Block] + _Myoff() % _Block_size));

  000b9	8b 46 04	 mov	 eax, DWORD PTR [esi+4]
  000bc	8b 0c 88	 mov	 ecx, DWORD PTR [eax+ecx*4]
  000bf	8d 49 14	 lea	 ecx, DWORD PTR [ecx+20]
  000c2	ff 15 00 00 00
	00		 call	 DWORD PTR __imp_??1?$CStringT@DV?$StrTraitMFC_DLL@DV?$ChTraitsCRT@D@ATL@@@@@ATL@@QAE@XZ

; 1095 :         if (--_Mysize() == 0) {

  000c8	83 46 10 ff	 add	 DWORD PTR [esi+16], -1
  000cc	75 0b		 jne	 SHORT $LN205@erase

; 1096 :             _Myoff() = 0;

  000ce	c7 46 0c 00 00
	00 00		 mov	 DWORD PTR [esi+12], 0
  000d5	33 c0		 xor	 eax, eax

; 1097 :         } else {

  000d7	eb 06		 jmp	 SHORT $LN2@erase
$LN205@erase:

; 1098 :             ++_Myoff();

  000d9	ff 46 0c	 inc	 DWORD PTR [esi+12]
  000dc	8b 46 0c	 mov	 eax, DWORD PTR [esi+12]
$LN2@erase:

; 1303 :             _STD move_backward(begin(), _First, _Last); // copy over hole
; 1304 :             for (; 0 < _Count; --_Count) {

  000df	83 ef 01	 sub	 edi, 1
  000e2	75 cf		 jne	 SHORT $LL4@erase

; 1305 :                 pop_front(); // pop copied elements
; 1306 :             }
; 1307 :         } else { // closer to back

  000e4	e9 87 00 00 00	 jmp	 $LN6@erase
$LN9@erase:

; 507  :         return {this->_Myoff, this->_Getcont()};

  000e9	85 d2		 test	 edx, edx
; File C:\Program Files (x86)\Microsoft Visual Studio\2019\Community\VC\Tools\MSVC\14.29.30133\include\xmemory

; 1107 :         return _Myproxy ? _Myproxy->_Mycont : nullptr;

  000eb	74 0d		 je	 SHORT $LN261@erase
  000ed	8b 02		 mov	 eax, DWORD PTR [edx]
  000ef	8b 55 f0	 mov	 edx, DWORD PTR tv1984[ebp]
  000f2	89 45 f8	 mov	 DWORD PTR $T12[ebp], eax
  000f5	89 55 f0	 mov	 DWORD PTR __ULast$9$sroa$987$1$[ebp], edx
  000f8	eb 0d		 jmp	 SHORT $LN412@erase
$LN261@erase:
  000fa	8b 45 f0	 mov	 eax, DWORD PTR tv1984[ebp]
  000fd	8b d0		 mov	 edx, eax
  000ff	89 45 f0	 mov	 DWORD PTR __ULast$9$sroa$987$1$[ebp], eax
  00102	33 c0		 xor	 eax, eax
  00104	89 45 f8	 mov	 DWORD PTR $T12[ebp], eax
$LN412@erase:
; File C:\Program Files (x86)\Microsoft Visual Studio\2019\Community\VC\Tools\MSVC\14.29.30133\include\xutility

; 4334 :     _Seek_wrapped(_Dest, _Move_unchecked(_UFirst, _ULast, _UDest));

  00107	89 45 fc	 mov	 DWORD PTR $T14[ebp], eax
  0010a	3b ca		 cmp	 ecx, edx

; 4320 :     for (; _First != _Last; ++_Dest, (void) ++_First) {

  0010c	74 32		 je	 SHORT $LL7@erase
  0010e	8b 75 f8	 mov	 esi, DWORD PTR $T12[ebp]
  00111	8b f9		 mov	 edi, ecx
$LL309@erase:
; File C:\Program Files (x86)\Microsoft Visual Studio\2019\Community\VC\Tools\MSVC\14.29.30133\include\deque

; 559  :         return (_Off / _Block_size) & (_Mapsize - 1);

  00113	8b 48 08	 mov	 ecx, DWORD PTR [eax+8]
; File C:\Program Files (x86)\Microsoft Visual Studio\2019\Community\VC\Tools\MSVC\14.29.30133\include\xutility

; 4321 :         *_Dest = _STD move(*_First);

  00116	8b 40 04	 mov	 eax, DWORD PTR [eax+4]
; File C:\Program Files (x86)\Microsoft Visual Studio\2019\Community\VC\Tools\MSVC\14.29.30133\include\deque

; 559  :         return (_Off / _Block_size) & (_Mapsize - 1);

  00119	49		 dec	 ecx
  0011a	23 cf		 and	 ecx, edi
; File C:\Program Files (x86)\Microsoft Visual Studio\2019\Community\VC\Tools\MSVC\14.29.30133\include\xutility

; 4321 :         *_Dest = _STD move(*_First);

  0011c	ff 34 88	 push	 DWORD PTR [eax+ecx*4]
; File C:\Program Files (x86)\Microsoft Visual Studio\2019\Community\VC\Tools\MSVC\14.29.30133\include\deque

; 559  :         return (_Off / _Block_size) & (_Mapsize - 1);

  0011f	8b 46 08	 mov	 eax, DWORD PTR [esi+8]
; File C:\Program Files (x86)\Microsoft Visual Studio\2019\Community\VC\Tools\MSVC\14.29.30133\include\xutility

; 4321 :         *_Dest = _STD move(*_First);

  00122	8b 4e 04	 mov	 ecx, DWORD PTR [esi+4]
; File C:\Program Files (x86)\Microsoft Visual Studio\2019\Community\VC\Tools\MSVC\14.29.30133\include\deque

; 559  :         return (_Off / _Block_size) & (_Mapsize - 1);

  00125	48		 dec	 eax
  00126	23 c3		 and	 eax, ebx
; File C:\Program Files (x86)\Microsoft Visual Studio\2019\Community\VC\Tools\MSVC\14.29.30133\include\xutility

; 4321 :         *_Dest = _STD move(*_First);

  00128	8b 0c 81	 mov	 ecx, DWORD PTR [ecx+eax*4]
  0012b	e8 00 00 00 00	 call	 ??4CPoints@@QAEAAV0@ABV0@@Z ; CPoints::operator=
  00130	8b 45 fc	 mov	 eax, DWORD PTR $T14[ebp]
; File C:\Program Files (x86)\Microsoft Visual Studio\2019\Community\VC\Tools\MSVC\14.29.30133\include\deque

; 56   :         ++_Myoff;

  00133	47		 inc	 edi
  00134	43		 inc	 ebx

; 106  :         return _Myoff == _Right._Myoff;

  00135	3b 7d f0	 cmp	 edi, DWORD PTR __ULast$9$sroa$987$1$[ebp]
; File C:\Program Files (x86)\Microsoft Visual Studio\2019\Community\VC\Tools\MSVC\14.29.30133\include\xutility

; 4320 :     for (; _First != _Last; ++_Dest, (void) ++_First) {

  00138	75 d9		 jne	 SHORT $LL309@erase
  0013a	8b 75 e8	 mov	 esi, DWORD PTR _this$1$[ebp]
  0013d	8b 7d f4	 mov	 edi, DWORD PTR __Count$1$[ebp]
$LL7@erase:
; File C:\Program Files (x86)\Microsoft Visual Studio\2019\Community\VC\Tools\MSVC\14.29.30133\include\deque

; 559  :         return (_Off / _Block_size) & (_Mapsize - 1);

  00140	8b 46 10	 mov	 eax, DWORD PTR [esi+16]
  00143	8b 4e 0c	 mov	 ecx, DWORD PTR [esi+12]
  00146	48		 dec	 eax
  00147	03 c8		 add	 ecx, eax
  00149	8b 46 08	 mov	 eax, DWORD PTR [esi+8]
  0014c	48		 dec	 eax
  0014d	23 c8		 and	 ecx, eax

; 1145 :         _Alty_traits::destroy(_Getal(), _Unfancy(_Map()[_Block] + _Newoff % _Block_size));

  0014f	8b 46 04	 mov	 eax, DWORD PTR [esi+4]
  00152	8b 0c 88	 mov	 ecx, DWORD PTR [eax+ecx*4]
  00155	8d 49 14	 lea	 ecx, DWORD PTR [ecx+20]
  00158	ff 15 00 00 00
	00		 call	 DWORD PTR __imp_??1?$CStringT@DV?$StrTraitMFC_DLL@DV?$ChTraitsCRT@D@ATL@@@@@ATL@@QAE@XZ

; 1146 :         if (--_Mysize() == 0) {

  0015e	83 46 10 ff	 add	 DWORD PTR [esi+16], -1
  00162	75 07		 jne	 SHORT $LN5@erase

; 1147 :             _Myoff() = 0;

  00164	c7 46 0c 00 00
	00 00		 mov	 DWORD PTR [esi+12], 0
$LN5@erase:

; 1308 :             _STD move(_Last, end(), _First); // copy over hole
; 1309 :             for (; 0 < _Count; --_Count) {

  0016b	83 ef 01	 sub	 edi, 1
  0016e	75 d0		 jne	 SHORT $LL7@erase
$LN6@erase:
; File C:\Program Files (x86)\Microsoft Visual Studio\2019\Community\VC\Tools\MSVC\14.29.30133\include\xmemory

; 1113 :     mutable _Iterator_base12* _Mynextiter = nullptr;

  00170	8b 45 08	 mov	 eax, DWORD PTR ___$ReturnUdt$[ebp]

; 1099 :             _Myproxy = _Parent->_Myproxy;

  00173	8b 0e		 mov	 ecx, DWORD PTR [esi]
; File C:\Program Files (x86)\Microsoft Visual Studio\2019\Community\VC\Tools\MSVC\14.29.30133\include\deque

; 1321 :     }

  00175	5f		 pop	 edi
; File C:\Program Files (x86)\Microsoft Visual Studio\2019\Community\VC\Tools\MSVC\14.29.30133\include\xmemory

; 1069 :         _Myproxy = _Right._Myproxy;

  00176	89 08		 mov	 DWORD PTR [eax], ecx
; File C:\Program Files (x86)\Microsoft Visual Studio\2019\Community\VC\Tools\MSVC\14.29.30133\include\deque

; 319  :         _Myoff += _Off;

  00178	8b 4e 0c	 mov	 ecx, DWORD PTR [esi+12]
  0017b	03 4d e4	 add	 ecx, DWORD PTR __Off$1$[ebp]

; 1321 :     }

  0017e	5e		 pop	 esi
  0017f	89 48 08	 mov	 DWORD PTR [eax+8], ecx
  00182	c7 40 04 00 00
	00 00		 mov	 DWORD PTR [eax+4], 0
  00189	5b		 pop	 ebx
  0018a	8b e5		 mov	 esp, ebp
  0018c	5d		 pop	 ebp
  0018d	c2 1c 00	 ret	 28			; 0000001cH
?erase@?$deque@VCPoints@@V?$allocator@VCPoints@@@std@@@std@@QAE?AV?$_Deque_iterator@V?$_Deque_val@U?$_Deque_simple_types@VCPoints@@@std@@@std@@@2@V?$_Deque_const_iterator@V?$_Deque_val@U?$_Deque_simple_types@VCPoints@@@std@@@std@@@2@0@Z ENDP ; std::deque<CPoints,std::allocator<CPoints> >::erase
_TEXT	ENDS
; Function compile flags: /Ogtp
; File D:\git\src\IBK\IBK_DRFN\ProjSrc\SrcChartEx\ChartAddIn\ChartAnalysisToolAddIn\Include_Chart\DequeList.h
; File C:\Program Files (x86)\Microsoft Visual Studio\2019\Community\VC\Tools\MSVC\14.29.30133\include\deque
; File C:\Program Files (x86)\Microsoft Visual Studio\2019\Community\VC\Tools\MSVC\14.29.30133\include\utility
; File C:\Program Files (x86)\Microsoft Visual Studio\2019\Community\VC\Tools\MSVC\14.29.30133\include\xmemory
; File C:\Program Files (x86)\Microsoft Visual Studio\2019\Community\VC\Tools\MSVC\14.29.30133\include\utility
; File C:\Program Files (x86)\Microsoft Visual Studio\2019\Community\VC\Tools\MSVC\14.29.30133\include\xmemory
; File D:\git\src\IBK\IBK_DRFN\ProjSrc\SrcChartEx\ChartAddIn\ChartAnalysisToolAddIn\Include_Chart\DequeList.h
;	COMDAT ??1?$CDequeList@VCPoints@@@@QAE@XZ
_TEXT	SEGMENT
??1?$CDequeList@VCPoints@@@@QAE@XZ PROC			; CDequeList<CPoints>::~CDequeList<CPoints>, COMDAT
; _this$ = ecx

; 34   : 	~CDequeList() { m_deque.clear(); };

  00000	56		 push	 esi
  00001	8b f1		 mov	 esi, ecx
; File C:\Program Files (x86)\Microsoft Visual Studio\2019\Community\VC\Tools\MSVC\14.29.30133\include\deque

; 1332 :         _Tidy();

  00003	e8 00 00 00 00	 call	 ?_Tidy@?$deque@VCPoints@@V?$allocator@VCPoints@@@std@@@std@@AAEXXZ ; std::deque<CPoints,std::allocator<CPoints> >::_Tidy

; 861  :         _Tidy();

  00008	8b ce		 mov	 ecx, esi
  0000a	e8 00 00 00 00	 call	 ?_Tidy@?$deque@VCPoints@@V?$allocator@VCPoints@@@std@@@std@@AAEXXZ ; std::deque<CPoints,std::allocator<CPoints> >::_Tidy
; File C:\Program Files (x86)\Microsoft Visual Studio\2019\Community\VC\Tools\MSVC\14.29.30133\include\utility

; 602  :     _Ty _Old_val = static_cast<_Ty&&>(_Val);

  0000f	8b 06		 mov	 eax, DWORD PTR [esi]
; File C:\Program Files (x86)\Microsoft Visual Studio\2019\Community\VC\Tools\MSVC\14.29.30133\include\xmemory

; 255  :         ::operator delete(_Ptr, _Bytes);

  00011	6a 08		 push	 8
  00013	50		 push	 eax
; File C:\Program Files (x86)\Microsoft Visual Studio\2019\Community\VC\Tools\MSVC\14.29.30133\include\utility

; 603  :     _Val         = static_cast<_Other&&>(_New_val);

  00014	c7 06 00 00 00
	00		 mov	 DWORD PTR [esi], 0
; File C:\Program Files (x86)\Microsoft Visual Studio\2019\Community\VC\Tools\MSVC\14.29.30133\include\xmemory

; 255  :         ::operator delete(_Ptr, _Bytes);

  0001a	e8 00 00 00 00	 call	 ??3@YAXPAXI@Z		; operator delete
  0001f	83 c4 08	 add	 esp, 8
  00022	5e		 pop	 esi
; File D:\git\src\IBK\IBK_DRFN\ProjSrc\SrcChartEx\ChartAddIn\ChartAnalysisToolAddIn\Include_Chart\DequeList.h

; 34   : 	~CDequeList() { m_deque.clear(); };

  00023	c3		 ret	 0
??1?$CDequeList@VCPoints@@@@QAE@XZ ENDP			; CDequeList<CPoints>::~CDequeList<CPoints>
_TEXT	ENDS
; Function compile flags: /Ogtp
; File D:\git\src\IBK\IBK_DRFN\ProjSrc\SrcChartEx\ChartAddIn\ChartAnalysisToolAddIn\AnalysisTool\Coordinate.cpp
; File C:\Program Files (x86)\Microsoft Visual Studio\2019\Community\VC\Tools\MSVC\14.29.30133\include\deque
; File D:\git\src\IBK\IBK_DRFN\ProjSrc\SrcChartEx\ChartAddIn\ChartAnalysisToolAddIn\AnalysisTool\Coordinate.cpp
; File C:\Program Files (x86)\Microsoft Visual Studio\2019\Community\VC\Tools\MSVC\14.29.30133\include\deque
; File D:\git\src\IBK\IBK_DRFN\ProjSrc\SrcChartEx\ChartAddIn\ChartAnalysisToolAddIn\AnalysisTool\Coordinate.cpp
;	COMDAT ?GetAt@CPointsList@@QAEAAVCPoints@@H@Z
_TEXT	SEGMENT
_nIndex$ = 8						; size = 4
?GetAt@CPointsList@@QAEAAVCPoints@@H@Z PROC		; CPointsList::GetAt, COMDAT
; _this$ = ecx

; 318  : {

  00000	55		 push	 ebp
  00001	8b ec		 mov	 ebp, esp
  00003	83 ec 08	 sub	 esp, 8
  00006	56		 push	 esi
  00007	8b f1		 mov	 esi, ecx
; File C:\Program Files (x86)\Microsoft Visual Studio\2019\Community\VC\Tools\MSVC\14.29.30133\include\deque

; 78   :         _Myoff += _Off;

  00009	8b 4d 08	 mov	 ecx, DWORD PTR _nIndex$[ebp]

; 43   :         : _Mycont(static_cast<const _Mydeque*>(_Pdeque)), _Myoff(_Off) {}

  0000c	8b 46 0c	 mov	 eax, DWORD PTR [esi+12]

; 78   :         _Myoff += _Off;

  0000f	03 c8		 add	 ecx, eax

; 559  :         return (_Off / _Block_size) & (_Mapsize - 1);

  00011	8b 56 08	 mov	 edx, DWORD PTR [esi+8]
; File D:\git\src\IBK\IBK_DRFN\ProjSrc\SrcChartEx\ChartAddIn\ChartAnalysisToolAddIn\AnalysisTool\Coordinate.cpp

; 320  : 	return m_PointsList.GetAt(nIndex);

  00014	8b 46 04	 mov	 eax, DWORD PTR [esi+4]
; File C:\Program Files (x86)\Microsoft Visual Studio\2019\Community\VC\Tools\MSVC\14.29.30133\include\deque

; 559  :         return (_Off / _Block_size) & (_Mapsize - 1);

  00017	4a		 dec	 edx
  00018	23 d1		 and	 edx, ecx
; File D:\git\src\IBK\IBK_DRFN\ProjSrc\SrcChartEx\ChartAddIn\ChartAnalysisToolAddIn\AnalysisTool\Coordinate.cpp

; 320  : 	return m_PointsList.GetAt(nIndex);

  0001a	5e		 pop	 esi
  0001b	8b 04 90	 mov	 eax, DWORD PTR [eax+edx*4]

; 321  : }

  0001e	8b e5		 mov	 esp, ebp
  00020	5d		 pop	 ebp
  00021	c2 04 00	 ret	 4
?GetAt@CPointsList@@QAEAAVCPoints@@H@Z ENDP		; CPointsList::GetAt
_TEXT	ENDS
; Function compile flags: /Ogtp
; File D:\git\src\IBK\IBK_DRFN\ProjSrc\SrcChartEx\ChartAddIn\ChartAnalysisToolAddIn\AnalysisTool\Coordinate.cpp
; File C:\Program Files (x86)\Microsoft Visual Studio\2019\Community\VC\Tools\MSVC\14.29.30133\include\deque
; File D:\git\src\IBK\IBK_DRFN\ProjSrc\SrcChartEx\ChartAddIn\ChartAnalysisToolAddIn\AnalysisTool\Coordinate.cpp
; File C:\Program Files (x86)\Microsoft Visual Studio\2019\Community\VC\Tools\MSVC\14.29.30133\include\deque
; File D:\git\src\IBK\IBK_DRFN\ProjSrc\SrcChartEx\ChartAddIn\ChartAnalysisToolAddIn\AnalysisTool\Coordinate.cpp
; File C:\Program Files (x86)\Microsoft Visual Studio\2019\Community\VC\Tools\MSVC\14.29.30133\include\deque
; File D:\git\src\IBK\IBK_DRFN\ProjSrc\SrcChartEx\ChartAddIn\ChartAnalysisToolAddIn\AnalysisTool\Coordinate.cpp
;	COMDAT ?GetAt@CPointsList@@QBE?AVCPoints@@H@Z
_TEXT	SEGMENT
___$ReturnUdt$ = 8					; size = 4
___$ReturnUdt$1 = 12					; size = 4
_nIndex$ = 12						; size = 4
?GetAt@CPointsList@@QBE?AVCPoints@@H@Z PROC		; CPointsList::GetAt, COMDAT
; _this$ = ecx

; 312  : {

  00000	55		 push	 ebp
  00001	8b ec		 mov	 ebp, esp
  00003	83 ec 08	 sub	 esp, 8
; File C:\Program Files (x86)\Microsoft Visual Studio\2019\Community\VC\Tools\MSVC\14.29.30133\include\deque

; 559  :         return (_Off / _Block_size) & (_Mapsize - 1);

  00006	8b 51 08	 mov	 edx, DWORD PTR [ecx+8]

; 78   :         _Myoff += _Off;

  00009	8b 45 0c	 mov	 eax, DWORD PTR _nIndex$[ebp]

; 559  :         return (_Off / _Block_size) & (_Mapsize - 1);

  0000c	4a		 dec	 edx
; File D:\git\src\IBK\IBK_DRFN\ProjSrc\SrcChartEx\ChartAddIn\ChartAnalysisToolAddIn\AnalysisTool\Coordinate.cpp

; 312  : {

  0000d	56		 push	 esi
; File C:\Program Files (x86)\Microsoft Visual Studio\2019\Community\VC\Tools\MSVC\14.29.30133\include\deque

; 43   :         : _Mycont(static_cast<const _Mydeque*>(_Pdeque)), _Myoff(_Off) {}

  0000e	8b 71 0c	 mov	 esi, DWORD PTR [ecx+12]

; 78   :         _Myoff += _Off;

  00011	03 c6		 add	 eax, esi

; 559  :         return (_Off / _Block_size) & (_Mapsize - 1);

  00013	23 d0		 and	 edx, eax

; 1030 :         return *(_Unchecked_begin() + static_cast<difference_type>(_Pos));

  00015	8b 41 04	 mov	 eax, DWORD PTR [ecx+4]
; File D:\git\src\IBK\IBK_DRFN\ProjSrc\SrcChartEx\ChartAddIn\ChartAnalysisToolAddIn\AnalysisTool\Coordinate.cpp

; 312  : {

  00018	57		 push	 edi
; File C:\Program Files (x86)\Microsoft Visual Studio\2019\Community\VC\Tools\MSVC\14.29.30133\include\deque

; 1030 :         return *(_Unchecked_begin() + static_cast<difference_type>(_Pos));

  00019	8b 7d 08	 mov	 edi, DWORD PTR ___$ReturnUdt$[ebp]
  0001c	8b 34 90	 mov	 esi, DWORD PTR [eax+edx*4]
; File D:\git\src\IBK\IBK_DRFN\ProjSrc\SrcChartEx\ChartAddIn\ChartAnalysisToolAddIn\AnalysisTool\Coordinate.cpp

; 96   : 	m_strType(point.GetDateType()),

  0001f	8d 4f 14	 lea	 ecx, DWORD PTR [edi+20]
  00022	89 4d 0c	 mov	 DWORD PTR ___$ReturnUdt$1[ebp], ecx
  00025	f2 0f 10 06	 movsd	 xmm0, QWORD PTR [esi]

; 126  : 	return m_strType;

  00029	8d 56 14	 lea	 edx, DWORD PTR [esi+20]

; 92   : 	m_dX(point.GetX()),

  0002c	f2 0f 11 07	 movsd	 QWORD PTR [edi], xmm0

; 93   : 	m_dY(point.GetY()),

  00030	f2 0f 10 46 08	 movsd	 xmm0, QWORD PTR [esi+8]
  00035	f2 0f 11 47 08	 movsd	 QWORD PTR [edi+8], xmm0

; 94   : 	m_nIndex(point.GetIndex()),

  0003a	8b 46 10	 mov	 eax, DWORD PTR [esi+16]

; 126  : 	return m_strType;

  0003d	52		 push	 edx

; 94   : 	m_nIndex(point.GetIndex()),

  0003e	89 47 10	 mov	 DWORD PTR [edi+16], eax

; 126  : 	return m_strType;

  00041	ff 15 00 00 00
	00		 call	 DWORD PTR __imp_??0?$CStringT@DV?$StrTraitMFC_DLL@DV?$ChTraitsCRT@D@ATL@@@@@ATL@@QAE@ABV01@@Z

; 98   : 	m_nTimeDiff(point.GetTimeDiff())

  00047	8b 4e 18	 mov	 ecx, DWORD PTR [esi+24]

; 313  : 	assert(HavingIndex(nIndex));
; 314  : 	return m_PointsList.GetAt(nIndex);

  0004a	8b c7		 mov	 eax, edi

; 98   : 	m_nTimeDiff(point.GetTimeDiff())

  0004c	89 4f 18	 mov	 DWORD PTR [edi+24], ecx
  0004f	8b 4e 20	 mov	 ecx, DWORD PTR [esi+32]
  00052	8b 56 24	 mov	 edx, DWORD PTR [esi+36]
  00055	89 4f 20	 mov	 DWORD PTR [edi+32], ecx
  00058	89 57 24	 mov	 DWORD PTR [edi+36], edx

; 313  : 	assert(HavingIndex(nIndex));
; 314  : 	return m_PointsList.GetAt(nIndex);

  0005b	5f		 pop	 edi
  0005c	5e		 pop	 esi

; 315  : }

  0005d	8b e5		 mov	 esp, ebp
  0005f	5d		 pop	 ebp
  00060	c2 08 00	 ret	 8
?GetAt@CPointsList@@QBE?AVCPoints@@H@Z ENDP		; CPointsList::GetAt
_TEXT	ENDS
; Function compile flags: /Ogtp
; File D:\git\src\IBK\IBK_DRFN\ProjSrc\SrcChartEx\ChartAddIn\ChartAnalysisToolAddIn\AnalysisTool\Coordinate.cpp
;	COMDAT ?GetCount@CPointsList@@QBEHXZ
_TEXT	SEGMENT
?GetCount@CPointsList@@QBEHXZ PROC			; CPointsList::GetCount, COMDAT
; _this$ = ecx

; 308  : 	return m_PointsList.GetCount();

  00000	8b 41 10	 mov	 eax, DWORD PTR [ecx+16]

; 309  : }

  00003	c3		 ret	 0
?GetCount@CPointsList@@QBEHXZ ENDP			; CPointsList::GetCount
_TEXT	ENDS
; Function compile flags: /Ogtp
; File D:\git\src\IBK\IBK_DRFN\ProjSrc\SrcChartEx\ChartAddIn\ChartAnalysisToolAddIn\AnalysisTool\Coordinate.cpp
; File C:\Program Files (x86)\Microsoft Visual Studio\2019\Community\VC\Tools\MSVC\14.29.30133\include\deque
; File D:\git\src\IBK\IBK_DRFN\ProjSrc\SrcChartEx\ChartAddIn\ChartAnalysisToolAddIn\AnalysisTool\Coordinate.cpp
; File C:\Program Files (x86)\Microsoft Visual Studio\2019\Community\VC\Tools\MSVC\14.29.30133\include\deque
; File D:\git\src\IBK\IBK_DRFN\ProjSrc\SrcChartEx\ChartAddIn\ChartAnalysisToolAddIn\AnalysisTool\Coordinate.cpp
; File C:\Program Files (x86)\Microsoft Visual Studio\2019\Community\VC\Tools\MSVC\14.29.30133\include\deque
; File C:\Program Files (x86)\Microsoft Visual Studio\2019\Community\VC\Tools\MSVC\14.29.30133\include\xmemory
; File C:\Program Files (x86)\Microsoft Visual Studio\2019\Community\VC\Tools\MSVC\14.29.30133\include\deque
; File C:\Program Files (x86)\Microsoft Visual Studio\2019\Community\VC\Tools\MSVC\14.29.30133\include\xmemory
; File C:\Program Files (x86)\Microsoft Visual Studio\2019\Community\VC\Tools\MSVC\14.29.30133\include\deque
; File C:\Program Files (x86)\Microsoft Visual Studio\2019\Community\VC\Tools\MSVC\14.29.30133\include\xmemory
; File D:\git\src\IBK\IBK_DRFN\ProjSrc\SrcChartEx\ChartAddIn\ChartAnalysisToolAddIn\AnalysisTool\Coordinate.cpp
; File C:\Program Files (x86)\Microsoft Visual Studio\2019\Community\VC\Tools\MSVC\14.29.30133\include\deque
; File D:\git\src\IBK\IBK_DRFN\ProjSrc\SrcChartEx\ChartAddIn\ChartAnalysisToolAddIn\AnalysisTool\Coordinate.cpp
;	COMDAT ?SetPointsList@CPointsList@@QAEXABV1@@Z
_TEXT	SEGMENT
$T2 = -60						; size = 40
___$ReturnUdt$3 = -16					; size = 4
__$EHRec$ = -12						; size = 12
_pointsList$ = 8					; size = 4
?SetPointsList@CPointsList@@QAEXABV1@@Z PROC		; CPointsList::SetPointsList, COMDAT
; _this$ = ecx

; 300  : {

  00000	55		 push	 ebp
  00001	8b ec		 mov	 ebp, esp
  00003	6a ff		 push	 -1
  00005	68 00 00 00 00	 push	 __ehhandler$?SetPointsList@CPointsList@@QAEXABV1@@Z
  0000a	64 a1 00 00 00
	00		 mov	 eax, DWORD PTR fs:0
  00010	50		 push	 eax
  00011	83 ec 30	 sub	 esp, 48			; 00000030H
  00014	53		 push	 ebx
  00015	56		 push	 esi
  00016	57		 push	 edi
  00017	a1 00 00 00 00	 mov	 eax, DWORD PTR ___security_cookie
  0001c	33 c5		 xor	 eax, ebp
  0001e	50		 push	 eax
  0001f	8d 45 f4	 lea	 eax, DWORD PTR __$EHRec$[ebp]
  00022	64 a3 00 00 00
	00		 mov	 DWORD PTR fs:0, eax
  00028	8b f9		 mov	 edi, ecx

; 301  : 	for(int nIndex = 0; nIndex < pointsList.GetCount(); nIndex++){		

  0002a	8b 55 08	 mov	 edx, DWORD PTR _pointsList$[ebp]
  0002d	33 db		 xor	 ebx, ebx
  0002f	39 5a 10	 cmp	 DWORD PTR [edx+16], ebx
  00032	0f 8e f4 00 00
	00		 jle	 $LN3@SetPointsL
$LL4@SetPointsL:
; File C:\Program Files (x86)\Microsoft Visual Studio\2019\Community\VC\Tools\MSVC\14.29.30133\include\deque

; 559  :         return (_Off / _Block_size) & (_Mapsize - 1);

  00038	8b 4a 08	 mov	 ecx, DWORD PTR [edx+8]

; 909  :         return _Unchecked_const_iterator(_Myoff(), _STD addressof(_Get_data()));

  0003b	8b 42 0c	 mov	 eax, DWORD PTR [edx+12]

; 559  :         return (_Off / _Block_size) & (_Mapsize - 1);

  0003e	49		 dec	 ecx

; 78   :         _Myoff += _Off;

  0003f	03 c3		 add	 eax, ebx

; 559  :         return (_Off / _Block_size) & (_Mapsize - 1);

  00041	23 c8		 and	 ecx, eax

; 1030 :         return *(_Unchecked_begin() + static_cast<difference_type>(_Pos));

  00043	8b 42 04	 mov	 eax, DWORD PTR [edx+4]
  00046	8b 34 88	 mov	 esi, DWORD PTR [eax+ecx*4]
; File D:\git\src\IBK\IBK_DRFN\ProjSrc\SrcChartEx\ChartAddIn\ChartAnalysisToolAddIn\AnalysisTool\Coordinate.cpp

; 126  : 	return m_strType;

  00049	8d 4d d8	 lea	 ecx, DWORD PTR $T2[ebp+20]

; 92   : 	m_dX(point.GetX()),

  0004c	f2 0f 10 06	 movsd	 xmm0, QWORD PTR [esi]
  00050	f2 0f 11 45 c4	 movsd	 QWORD PTR $T2[ebp], xmm0

; 93   : 	m_dY(point.GetY()),

  00055	f2 0f 10 46 08	 movsd	 xmm0, QWORD PTR [esi+8]
  0005a	f2 0f 11 45 cc	 movsd	 QWORD PTR $T2[ebp+8], xmm0

; 94   : 	m_nIndex(point.GetIndex()),

  0005f	8b 46 10	 mov	 eax, DWORD PTR [esi+16]
  00062	89 45 d4	 mov	 DWORD PTR $T2[ebp+16], eax

; 126  : 	return m_strType;

  00065	8d 46 14	 lea	 eax, DWORD PTR [esi+20]
  00068	50		 push	 eax
  00069	ff 15 00 00 00
	00		 call	 DWORD PTR __imp_??0?$CStringT@DV?$StrTraitMFC_DLL@DV?$ChTraitsCRT@D@ATL@@@@@ATL@@QAE@ABV01@@Z

; 98   : 	m_nTimeDiff(point.GetTimeDiff())

  0006f	8b 46 18	 mov	 eax, DWORD PTR [esi+24]
  00072	89 45 dc	 mov	 DWORD PTR $T2[ebp+24], eax
  00075	8b 46 20	 mov	 eax, DWORD PTR [esi+32]
  00078	8b 4e 24	 mov	 ecx, DWORD PTR [esi+36]
  0007b	89 45 e4	 mov	 DWORD PTR $T2[ebp+32], eax
  0007e	89 4d e8	 mov	 DWORD PTR $T2[ebp+36], ecx
; File C:\Program Files (x86)\Microsoft Visual Studio\2019\Community\VC\Tools\MSVC\14.29.30133\include\deque

; 1106 :         if ((_Myoff() + _Mysize()) % _Block_size == 0 && _Mapsize() <= (_Mysize() + _Block_size) / _Block_size) {

  00081	8b 4f 10	 mov	 ecx, DWORD PTR [edi+16]
  00084	8b 77 08	 mov	 esi, DWORD PTR [edi+8]
; File D:\git\src\IBK\IBK_DRFN\ProjSrc\SrcChartEx\ChartAddIn\ChartAnalysisToolAddIn\AnalysisTool\Coordinate.cpp

; 302  : 		m_PointsList.AddTail(pointsList.GetAt(nIndex));

  00087	c7 45 fc 00 00
	00 00		 mov	 DWORD PTR __$EHRec$[ebp+8], 0
; File C:\Program Files (x86)\Microsoft Visual Studio\2019\Community\VC\Tools\MSVC\14.29.30133\include\deque

; 1106 :         if ((_Myoff() + _Mysize()) % _Block_size == 0 && _Mapsize() <= (_Mysize() + _Block_size) / _Block_size) {

  0008e	8d 41 01	 lea	 eax, DWORD PTR [ecx+1]
  00091	3b f0		 cmp	 esi, eax
  00093	77 0f		 ja	 SHORT $LN46@SetPointsL

; 1107 :             _Growmap(1);

  00095	6a 01		 push	 1
  00097	8b cf		 mov	 ecx, edi
  00099	e8 00 00 00 00	 call	 ?_Growmap@?$deque@VCPoints@@V?$allocator@VCPoints@@@std@@@std@@AAEXI@Z ; std::deque<CPoints,std::allocator<CPoints> >::_Growmap
  0009e	8b 77 08	 mov	 esi, DWORD PTR [edi+8]
  000a1	8b 4f 10	 mov	 ecx, DWORD PTR [edi+16]
$LN46@SetPointsL:

; 1108 :         }
; 1109 :         _Myoff() &= _Mapsize() * _Block_size - 1;

  000a4	8d 46 ff	 lea	 eax, DWORD PTR [esi-1]

; 559  :         return (_Off / _Block_size) & (_Mapsize - 1);

  000a7	4e		 dec	 esi

; 1109 :         _Myoff() &= _Mapsize() * _Block_size - 1;

  000a8	21 47 0c	 and	 DWORD PTR [edi+12], eax
  000ab	8b 47 0c	 mov	 eax, DWORD PTR [edi+12]

; 1110 :         size_type _Newoff = _Myoff() + _Mysize();

  000ae	03 c1		 add	 eax, ecx

; 559  :         return (_Off / _Block_size) & (_Mapsize - 1);

  000b0	23 f0		 and	 esi, eax

; 1112 :         if (_Map()[_Block] == nullptr) {

  000b2	8b 47 04	 mov	 eax, DWORD PTR [edi+4]
  000b5	83 3c b0 00	 cmp	 DWORD PTR [eax+esi*4], 0
  000b9	75 13		 jne	 SHORT $LN109@SetPointsL
; File C:\Program Files (x86)\Microsoft Visual Studio\2019\Community\VC\Tools\MSVC\14.29.30133\include\xmemory

; 79   :         return ::operator new(_Bytes);

  000bb	6a 28		 push	 40			; 00000028H
  000bd	e8 00 00 00 00	 call	 ??2@YAPAXI@Z		; operator new
; File C:\Program Files (x86)\Microsoft Visual Studio\2019\Community\VC\Tools\MSVC\14.29.30133\include\deque

; 1113 :             _Map()[_Block] = _Getal().allocate(_Block_size);

  000c2	8b 4f 04	 mov	 ecx, DWORD PTR [edi+4]
; File C:\Program Files (x86)\Microsoft Visual Studio\2019\Community\VC\Tools\MSVC\14.29.30133\include\xmemory

; 79   :         return ::operator new(_Bytes);

  000c5	83 c4 04	 add	 esp, 4
; File C:\Program Files (x86)\Microsoft Visual Studio\2019\Community\VC\Tools\MSVC\14.29.30133\include\deque

; 1113 :             _Map()[_Block] = _Getal().allocate(_Block_size);

  000c8	89 04 b1	 mov	 DWORD PTR [ecx+esi*4], eax
  000cb	8b 47 04	 mov	 eax, DWORD PTR [edi+4]
$LN109@SetPointsL:
; File C:\Program Files (x86)\Microsoft Visual Studio\2019\Community\VC\Tools\MSVC\14.29.30133\include\xmemory

; 681  :             ::new (_Voidify_iter(_Ptr)) _Objty(_STD forward<_Types>(_Args)...);

  000ce	8b 34 b0	 mov	 esi, DWORD PTR [eax+esi*4]
; File D:\git\src\IBK\IBK_DRFN\ProjSrc\SrcChartEx\ChartAddIn\ChartAnalysisToolAddIn\AnalysisTool\Coordinate.cpp

; 92   : 	m_dX(point.GetX()),

  000d1	f2 0f 10 45 c4	 movsd	 xmm0, QWORD PTR $T2[ebp]
  000d6	f2 0f 11 06	 movsd	 QWORD PTR [esi], xmm0

; 95   : 	// 분차트 근접시간 적용 - ojtaso (20080811)
; 96   : 	m_strType(point.GetDateType()),

  000da	8d 4e 14	 lea	 ecx, DWORD PTR [esi+20]
  000dd	f2 0f 10 45 cc	 movsd	 xmm0, QWORD PTR $T2[ebp+8]
  000e2	f2 0f 11 46 08	 movsd	 QWORD PTR [esi+8], xmm0
  000e7	8b 45 d4	 mov	 eax, DWORD PTR $T2[ebp+16]
  000ea	89 46 10	 mov	 DWORD PTR [esi+16], eax

; 126  : 	return m_strType;

  000ed	8d 45 d8	 lea	 eax, DWORD PTR $T2[ebp+20]
  000f0	50		 push	 eax

; 96   : 	m_strType(point.GetDateType()),

  000f1	89 4d f0	 mov	 DWORD PTR ___$ReturnUdt$3[ebp], ecx

; 126  : 	return m_strType;

  000f4	ff 15 00 00 00
	00		 call	 DWORD PTR __imp_??0?$CStringT@DV?$StrTraitMFC_DLL@DV?$ChTraitsCRT@D@ATL@@@@@ATL@@QAE@ABV01@@Z

; 98   : 	m_nTimeDiff(point.GetTimeDiff())

  000fa	8b 45 dc	 mov	 eax, DWORD PTR $T2[ebp+24]
  000fd	89 46 18	 mov	 DWORD PTR [esi+24], eax
  00100	8b 4d e8	 mov	 ecx, DWORD PTR $T2[ebp+36]
  00103	8b 45 e4	 mov	 eax, DWORD PTR $T2[ebp+32]
  00106	89 4e 24	 mov	 DWORD PTR [esi+36], ecx
  00109	8d 4d d8	 lea	 ecx, DWORD PTR $T2[ebp+20]
  0010c	89 46 20	 mov	 DWORD PTR [esi+32], eax
; File C:\Program Files (x86)\Microsoft Visual Studio\2019\Community\VC\Tools\MSVC\14.29.30133\include\deque

; 1119 :         ++_Mysize();

  0010f	ff 47 10	 inc	 DWORD PTR [edi+16]
; File D:\git\src\IBK\IBK_DRFN\ProjSrc\SrcChartEx\ChartAddIn\ChartAnalysisToolAddIn\AnalysisTool\Coordinate.cpp

; 302  : 		m_PointsList.AddTail(pointsList.GetAt(nIndex));

  00112	c7 45 fc ff ff
	ff ff		 mov	 DWORD PTR __$EHRec$[ebp+8], -1
  00119	ff 15 00 00 00
	00		 call	 DWORD PTR __imp_??1?$CStringT@DV?$StrTraitMFC_DLL@DV?$ChTraitsCRT@D@ATL@@@@@ATL@@QAE@XZ
  0011f	8b 55 08	 mov	 edx, DWORD PTR _pointsList$[ebp]
  00122	43		 inc	 ebx
  00123	3b 5a 10	 cmp	 ebx, DWORD PTR [edx+16]
  00126	0f 8c 0c ff ff
	ff		 jl	 $LL4@SetPointsL
$LN3@SetPointsL:

; 303  : 	}
; 304  : }

  0012c	8b 4d f4	 mov	 ecx, DWORD PTR __$EHRec$[ebp]
  0012f	64 89 0d 00 00
	00 00		 mov	 DWORD PTR fs:0, ecx
  00136	59		 pop	 ecx
  00137	5f		 pop	 edi
  00138	5e		 pop	 esi
  00139	5b		 pop	 ebx
  0013a	8b e5		 mov	 esp, ebp
  0013c	5d		 pop	 ebp
  0013d	c2 04 00	 ret	 4
_TEXT	ENDS
;	COMDAT text$x
text$x	SEGMENT
__unwindfunclet$?SetPointsList@CPointsList@@QAEXABV1@@Z$0:
  00000	8d 4d c4	 lea	 ecx, DWORD PTR $T2[ebp]
  00003	e9 00 00 00 00	 jmp	 ??1CPoints@@QAE@XZ
  00008	cc		 int	 3
  00009	cc		 int	 3
  0000a	cc		 int	 3
  0000b	cc		 int	 3
  0000c	cc		 int	 3
__ehhandler$?SetPointsList@CPointsList@@QAEXABV1@@Z:
  0000d	90		 npad	 1
  0000e	90		 npad	 1
  0000f	8b 54 24 08	 mov	 edx, DWORD PTR [esp+8]
  00013	8d 42 0c	 lea	 eax, DWORD PTR [edx+12]
  00016	8b 4a c0	 mov	 ecx, DWORD PTR [edx-64]
  00019	33 c8		 xor	 ecx, eax
  0001b	e8 00 00 00 00	 call	 @__security_check_cookie@4
  00020	b8 00 00 00 00	 mov	 eax, OFFSET __ehfuncinfo$?SetPointsList@CPointsList@@QAEXABV1@@Z
  00025	e9 00 00 00 00	 jmp	 ___CxxFrameHandler3
text$x	ENDS
?SetPointsList@CPointsList@@QAEXABV1@@Z ENDP		; CPointsList::SetPointsList
; Function compile flags: /Ogtp
; File D:\git\src\IBK\IBK_DRFN\ProjSrc\SrcChartEx\ChartAddIn\ChartAnalysisToolAddIn\AnalysisTool\Coordinate.cpp
; File C:\Program Files (x86)\Microsoft Visual Studio\2019\Community\VC\Tools\MSVC\14.29.30133\include\deque
; File C:\Program Files (x86)\Microsoft Visual Studio\2019\Community\VC\Tools\MSVC\14.29.30133\include\xmemory
; File C:\Program Files (x86)\Microsoft Visual Studio\2019\Community\VC\Tools\MSVC\14.29.30133\include\deque
; File C:\Program Files (x86)\Microsoft Visual Studio\2019\Community\VC\Tools\MSVC\14.29.30133\include\xmemory
; File C:\Program Files (x86)\Microsoft Visual Studio\2019\Community\VC\Tools\MSVC\14.29.30133\include\deque
; File C:\Program Files (x86)\Microsoft Visual Studio\2019\Community\VC\Tools\MSVC\14.29.30133\include\xmemory
; File C:\Program Files (x86)\Microsoft Visual Studio\2019\Community\VC\Tools\MSVC\14.29.30133\include\deque
; File D:\git\src\IBK\IBK_DRFN\ProjSrc\SrcChartEx\ChartAddIn\ChartAnalysisToolAddIn\AnalysisTool\Coordinate.cpp
;	COMDAT ?RemoveAt@CPointsList@@QAE_NH@Z
_TEXT	SEGMENT
$T3 = -12						; size = 12
_nIndex$ = 8						; size = 4
?RemoveAt@CPointsList@@QAE_NH@Z PROC			; CPointsList::RemoveAt, COMDAT
; _this$ = ecx

; 290  : {

  00000	55		 push	 ebp
  00001	8b ec		 mov	 ebp, esp

; 327  : 	return (nIndex >= 0 && nIndex < m_PointsList.GetCount());

  00003	8b 45 08	 mov	 eax, DWORD PTR _nIndex$[ebp]

; 290  : {

  00006	83 ec 0c	 sub	 esp, 12			; 0000000cH
  00009	56		 push	 esi
  0000a	57		 push	 edi
  0000b	8b f9		 mov	 edi, ecx

; 327  : 	return (nIndex >= 0 && nIndex < m_PointsList.GetCount());

  0000d	85 c0		 test	 eax, eax
  0000f	78 46		 js	 SHORT $LN6@RemoveAt
  00011	3b 47 10	 cmp	 eax, DWORD PTR [edi+16]
  00014	7d 41		 jge	 SHORT $LN6@RemoveAt
; File C:\Program Files (x86)\Microsoft Visual Studio\2019\Community\VC\Tools\MSVC\14.29.30133\include\deque

; 319  :         _Myoff += _Off;

  00016	8b 77 0c	 mov	 esi, DWORD PTR [edi+12]

; 1277 :         return erase(_Where, _Next_iter(_Where));

  00019	83 ec 0c	 sub	 esp, 12			; 0000000cH
; File C:\Program Files (x86)\Microsoft Visual Studio\2019\Community\VC\Tools\MSVC\14.29.30133\include\xmemory

; 1099 :             _Myproxy = _Parent->_Myproxy;

  0001c	8b 17		 mov	 edx, DWORD PTR [edi]
; File C:\Program Files (x86)\Microsoft Visual Studio\2019\Community\VC\Tools\MSVC\14.29.30133\include\deque

; 319  :         _Myoff += _Off;

  0001e	03 f0		 add	 esi, eax

; 1277 :         return erase(_Where, _Next_iter(_Where));

  00020	8b cc		 mov	 ecx, esp
  00022	83 ec 0c	 sub	 esp, 12			; 0000000cH

; 281  :         ++_Myoff;

  00025	8d 46 01	 lea	 eax, DWORD PTR [esi+1]
  00028	89 41 08	 mov	 DWORD PTR [ecx+8], eax

; 1277 :         return erase(_Where, _Next_iter(_Where));

  0002b	8b c4		 mov	 eax, esp
; File C:\Program Files (x86)\Microsoft Visual Studio\2019\Community\VC\Tools\MSVC\14.29.30133\include\xmemory

; 1113 :     mutable _Iterator_base12* _Mynextiter = nullptr;

  0002d	c7 41 04 00 00
	00 00		 mov	 DWORD PTR [ecx+4], 0

; 1069 :         _Myproxy = _Right._Myproxy;

  00034	89 11		 mov	 DWORD PTR [ecx], edx
; File C:\Program Files (x86)\Microsoft Visual Studio\2019\Community\VC\Tools\MSVC\14.29.30133\include\deque

; 1277 :         return erase(_Where, _Next_iter(_Where));

  00036	8b cf		 mov	 ecx, edi
; File C:\Program Files (x86)\Microsoft Visual Studio\2019\Community\VC\Tools\MSVC\14.29.30133\include\xmemory

; 1113 :     mutable _Iterator_base12* _Mynextiter = nullptr;

  00038	c7 40 04 00 00
	00 00		 mov	 DWORD PTR [eax+4], 0

; 1069 :         _Myproxy = _Right._Myproxy;

  0003f	89 10		 mov	 DWORD PTR [eax], edx
  00041	89 70 08	 mov	 DWORD PTR [eax+8], esi
; File C:\Program Files (x86)\Microsoft Visual Studio\2019\Community\VC\Tools\MSVC\14.29.30133\include\deque

; 1277 :         return erase(_Where, _Next_iter(_Where));

  00044	8d 45 f4	 lea	 eax, DWORD PTR $T3[ebp]
  00047	50		 push	 eax
  00048	e8 00 00 00 00	 call	 ?erase@?$deque@VCPoints@@V?$allocator@VCPoints@@@std@@@std@@QAE?AV?$_Deque_iterator@V?$_Deque_val@U?$_Deque_simple_types@VCPoints@@@std@@@std@@@2@V?$_Deque_const_iterator@V?$_Deque_val@U?$_Deque_simple_types@VCPoints@@@std@@@std@@@2@0@Z ; std::deque<CPoints,std::allocator<CPoints> >::erase
; File D:\git\src\IBK\IBK_DRFN\ProjSrc\SrcChartEx\ChartAddIn\ChartAnalysisToolAddIn\AnalysisTool\Coordinate.cpp

; 295  : 	return true;

  0004d	b0 01		 mov	 al, 1

; 296  : }

  0004f	5f		 pop	 edi
  00050	5e		 pop	 esi
  00051	8b e5		 mov	 esp, ebp
  00053	5d		 pop	 ebp
  00054	c2 04 00	 ret	 4
$LN6@RemoveAt:
  00057	5f		 pop	 edi
  00058	32 c0		 xor	 al, al
  0005a	5e		 pop	 esi
  0005b	8b e5		 mov	 esp, ebp
  0005d	5d		 pop	 ebp
  0005e	c2 04 00	 ret	 4
?RemoveAt@CPointsList@@QAE_NH@Z ENDP			; CPointsList::RemoveAt
_TEXT	ENDS
; Function compile flags: /Ogtp
; File D:\git\src\IBK\IBK_DRFN\ProjSrc\SrcChartEx\ChartAddIn\ChartAnalysisToolAddIn\AnalysisTool\Coordinate.cpp
;	COMDAT ?RemoveAll@CPointsList@@QAEXXZ
_TEXT	SEGMENT
?RemoveAll@CPointsList@@QAEXXZ PROC			; CPointsList::RemoveAll, COMDAT
; _this$ = ecx

; 283  : 	if(m_PointsList.GetCount() <= 0)

  00000	83 79 10 00	 cmp	 DWORD PTR [ecx+16], 0
  00004	0f 8f 00 00 00
	00		 jg	 ?_Tidy@?$deque@VCPoints@@V?$allocator@VCPoints@@@std@@@std@@AAEXXZ ; std::deque<CPoints,std::allocator<CPoints> >::_Tidy

; 284  : 		return;
; 285  : 
; 286  : 	m_PointsList.RemoveAll();
; 287  : }

  0000a	c3		 ret	 0
?RemoveAll@CPointsList@@QAEXXZ ENDP			; CPointsList::RemoveAll
_TEXT	ENDS
; Function compile flags: /Ogtp
; File D:\git\src\IBK\IBK_DRFN\ProjSrc\SrcChartEx\ChartAddIn\ChartAnalysisToolAddIn\AnalysisTool\Coordinate.cpp
;	COMDAT ?AddPoints@CPointsList@@QAEXABVCPoints@@@Z
_TEXT	SEGMENT
_points$ = 8						; size = 4
?AddPoints@CPointsList@@QAEXABVCPoints@@@Z PROC		; CPointsList::AddPoints, COMDAT
; _this$ = ecx

; 277  : {

  00000	55		 push	 ebp
  00001	8b ec		 mov	 ebp, esp

; 279  : }

  00003	5d		 pop	 ebp

; 278  : 	m_PointsList.AddTail(points);

  00004	e9 00 00 00 00	 jmp	 ?AddTail@?$CDequeList@VCPoints@@@@QAEXABVCPoints@@@Z ; CDequeList<CPoints>::AddTail
?AddPoints@CPointsList@@QAEXABVCPoints@@@Z ENDP		; CPointsList::AddPoints
_TEXT	ENDS
; Function compile flags: /Ogtp
; File D:\git\src\IBK\IBK_DRFN\ProjSrc\SrcChartEx\ChartAddIn\ChartAnalysisToolAddIn\AnalysisTool\Coordinate.cpp
; File C:\Program Files (x86)\Microsoft Visual Studio\2019\Community\VC\Tools\MSVC\14.29.30133\include\xmemory
; File C:\Program Files (x86)\Microsoft Visual Studio\2019\Community\VC\Tools\MSVC\14.29.30133\include\deque
; File C:\Program Files (x86)\Microsoft Visual Studio\2019\Community\VC\Tools\MSVC\14.29.30133\include\xmemory
; File D:\git\src\IBK\IBK_DRFN\ProjSrc\SrcChartEx\ChartAddIn\ChartAnalysisToolAddIn\AnalysisTool\Coordinate.cpp
;	COMDAT ??0CPointsList@@QAE@ABV0@@Z
_TEXT	SEGMENT
_this$ = -16						; size = 4
__$EHRec$ = -12						; size = 12
_pointsList$ = 8					; size = 4
??0CPointsList@@QAE@ABV0@@Z PROC			; CPointsList::CPointsList, COMDAT
; _this$ = ecx

; 266  : {

  00000	55		 push	 ebp
  00001	8b ec		 mov	 ebp, esp
  00003	6a ff		 push	 -1
  00005	68 00 00 00 00	 push	 __ehhandler$??0CPointsList@@QAE@ABV0@@Z
  0000a	64 a1 00 00 00
	00		 mov	 eax, DWORD PTR fs:0
  00010	50		 push	 eax
  00011	83 ec 08	 sub	 esp, 8
  00014	56		 push	 esi
  00015	a1 00 00 00 00	 mov	 eax, DWORD PTR ___security_cookie
  0001a	33 c5		 xor	 eax, ebp
  0001c	50		 push	 eax
  0001d	8d 45 f4	 lea	 eax, DWORD PTR __$EHRec$[ebp]
  00020	64 a3 00 00 00
	00		 mov	 DWORD PTR fs:0, eax
  00026	8b f1		 mov	 esi, ecx
  00028	89 75 f0	 mov	 DWORD PTR _this$[ebp], esi
; File C:\Program Files (x86)\Microsoft Visual Studio\2019\Community\VC\Tools\MSVC\14.29.30133\include\xmemory

; 79   :         return ::operator new(_Bytes);

  0002b	6a 08		 push	 8

; 1033 :     _Container_proxy* _Myproxy = nullptr;

  0002d	c7 06 00 00 00
	00		 mov	 DWORD PTR [esi], 0
; File C:\Program Files (x86)\Microsoft Visual Studio\2019\Community\VC\Tools\MSVC\14.29.30133\include\deque

; 555  :     _Deque_val() noexcept : _Map(), _Mapsize(0), _Myoff(0), _Mysize(0) {}

  00033	c7 46 04 00 00
	00 00		 mov	 DWORD PTR [esi+4], 0
  0003a	c7 46 08 00 00
	00 00		 mov	 DWORD PTR [esi+8], 0
  00041	c7 46 0c 00 00
	00 00		 mov	 DWORD PTR [esi+12], 0
  00048	c7 46 10 00 00
	00 00		 mov	 DWORD PTR [esi+16], 0
; File C:\Program Files (x86)\Microsoft Visual Studio\2019\Community\VC\Tools\MSVC\14.29.30133\include\xmemory

; 79   :         return ::operator new(_Bytes);

  0004f	e8 00 00 00 00	 call	 ??2@YAPAXI@Z		; operator new
  00054	83 c4 04	 add	 esp, 4

; 1003 :     mutable _Iterator_base12* _Myfirstiter = nullptr;

  00057	c7 40 04 00 00
	00 00		 mov	 DWORD PTR [eax+4], 0

; 1020 :         _Myproxy            = _New_proxy;

  0005e	89 06		 mov	 DWORD PTR [esi], eax

; 1021 :         _New_proxy->_Mycont = this;

  00060	89 30		 mov	 DWORD PTR [eax], esi
; File D:\git\src\IBK\IBK_DRFN\ProjSrc\SrcChartEx\ChartAddIn\ChartAnalysisToolAddIn\AnalysisTool\Coordinate.cpp

; 267  : 	SetPointsList(pointsList);

  00062	ff 75 08	 push	 DWORD PTR _pointsList$[ebp]
  00065	8b ce		 mov	 ecx, esi
  00067	c7 45 fc 00 00
	00 00		 mov	 DWORD PTR __$EHRec$[ebp+8], 0
  0006e	e8 00 00 00 00	 call	 ?SetPointsList@CPointsList@@QAEXABV1@@Z ; CPointsList::SetPointsList

; 268  : }

  00073	8b c6		 mov	 eax, esi
  00075	8b 4d f4	 mov	 ecx, DWORD PTR __$EHRec$[ebp]
  00078	64 89 0d 00 00
	00 00		 mov	 DWORD PTR fs:0, ecx
  0007f	59		 pop	 ecx
  00080	5e		 pop	 esi
  00081	8b e5		 mov	 esp, ebp
  00083	5d		 pop	 ebp
  00084	c2 04 00	 ret	 4
_TEXT	ENDS
;	COMDAT text$x
text$x	SEGMENT
__unwindfunclet$??0CPointsList@@QAE@ABV0@@Z$0:
  00000	8b 4d f0	 mov	 ecx, DWORD PTR _this$[ebp]
  00003	e9 00 00 00 00	 jmp	 ??1?$CDequeList@VCPoints@@@@QAE@XZ ; CDequeList<CPoints>::~CDequeList<CPoints>
  00008	cc		 int	 3
  00009	cc		 int	 3
  0000a	cc		 int	 3
  0000b	cc		 int	 3
  0000c	cc		 int	 3
__ehhandler$??0CPointsList@@QAE@ABV0@@Z:
  0000d	90		 npad	 1
  0000e	90		 npad	 1
  0000f	8b 54 24 08	 mov	 edx, DWORD PTR [esp+8]
  00013	8d 42 0c	 lea	 eax, DWORD PTR [edx+12]
  00016	8b 4a f0	 mov	 ecx, DWORD PTR [edx-16]
  00019	33 c8		 xor	 ecx, eax
  0001b	e8 00 00 00 00	 call	 @__security_check_cookie@4
  00020	b8 00 00 00 00	 mov	 eax, OFFSET __ehfuncinfo$??0CPointsList@@QAE@ABV0@@Z
  00025	e9 00 00 00 00	 jmp	 ___CxxFrameHandler3
text$x	ENDS
??0CPointsList@@QAE@ABV0@@Z ENDP			; CPointsList::CPointsList
; Function compile flags: /Ogtp
; File D:\git\src\IBK\IBK_DRFN\ProjSrc\SrcChartEx\ChartAddIn\ChartAnalysisToolAddIn\AnalysisTool\Coordinate.cpp
; File C:\Program Files (x86)\Microsoft Visual Studio\2019\Community\VC\Tools\MSVC\14.29.30133\include\xmemory
; File D:\git\src\IBK\IBK_DRFN\ProjSrc\SrcChartEx\ChartAddIn\ChartAnalysisToolAddIn\AnalysisTool\Coordinate.cpp
; File C:\Program Files (x86)\Microsoft Visual Studio\2019\Community\VC\Tools\MSVC\14.29.30133\include\xmemory
; File C:\Program Files (x86)\Microsoft Visual Studio\2019\Community\VC\Tools\MSVC\14.29.30133\include\deque
; File C:\Program Files (x86)\Microsoft Visual Studio\2019\Community\VC\Tools\MSVC\14.29.30133\include\xmemory
; File D:\git\src\IBK\IBK_DRFN\ProjSrc\SrcChartEx\ChartAddIn\ChartAnalysisToolAddIn\AnalysisTool\Coordinate.cpp
;	COMDAT ??0CPointsList@@QAE@XZ
_TEXT	SEGMENT
_this$ = -4						; size = 4
??0CPointsList@@QAE@XZ PROC				; CPointsList::CPointsList, COMDAT
; _this$ = ecx

; 271  : {

  00000	55		 push	 ebp
  00001	8b ec		 mov	 ebp, esp
  00003	51		 push	 ecx
  00004	56		 push	 esi
  00005	8b f1		 mov	 esi, ecx
; File C:\Program Files (x86)\Microsoft Visual Studio\2019\Community\VC\Tools\MSVC\14.29.30133\include\xmemory

; 79   :         return ::operator new(_Bytes);

  00007	6a 08		 push	 8
; File D:\git\src\IBK\IBK_DRFN\ProjSrc\SrcChartEx\ChartAddIn\ChartAnalysisToolAddIn\AnalysisTool\Coordinate.cpp

; 271  : {

  00009	89 75 fc	 mov	 DWORD PTR _this$[ebp], esi
; File C:\Program Files (x86)\Microsoft Visual Studio\2019\Community\VC\Tools\MSVC\14.29.30133\include\xmemory

; 1033 :     _Container_proxy* _Myproxy = nullptr;

  0000c	c7 06 00 00 00
	00		 mov	 DWORD PTR [esi], 0
; File C:\Program Files (x86)\Microsoft Visual Studio\2019\Community\VC\Tools\MSVC\14.29.30133\include\deque

; 555  :     _Deque_val() noexcept : _Map(), _Mapsize(0), _Myoff(0), _Mysize(0) {}

  00012	c7 46 04 00 00
	00 00		 mov	 DWORD PTR [esi+4], 0
  00019	c7 46 08 00 00
	00 00		 mov	 DWORD PTR [esi+8], 0
  00020	c7 46 0c 00 00
	00 00		 mov	 DWORD PTR [esi+12], 0
  00027	c7 46 10 00 00
	00 00		 mov	 DWORD PTR [esi+16], 0
; File C:\Program Files (x86)\Microsoft Visual Studio\2019\Community\VC\Tools\MSVC\14.29.30133\include\xmemory

; 79   :         return ::operator new(_Bytes);

  0002e	e8 00 00 00 00	 call	 ??2@YAPAXI@Z		; operator new
  00033	83 c4 04	 add	 esp, 4

; 1003 :     mutable _Iterator_base12* _Myfirstiter = nullptr;

  00036	c7 40 04 00 00
	00 00		 mov	 DWORD PTR [eax+4], 0

; 1020 :         _Myproxy            = _New_proxy;

  0003d	89 06		 mov	 DWORD PTR [esi], eax

; 1021 :         _New_proxy->_Mycont = this;

  0003f	89 30		 mov	 DWORD PTR [eax], esi
; File D:\git\src\IBK\IBK_DRFN\ProjSrc\SrcChartEx\ChartAddIn\ChartAnalysisToolAddIn\AnalysisTool\Coordinate.cpp

; 272  : }

  00041	8b c6		 mov	 eax, esi
  00043	5e		 pop	 esi
  00044	8b e5		 mov	 esp, ebp
  00046	5d		 pop	 ebp
  00047	c3		 ret	 0
??0CPointsList@@QAE@XZ ENDP				; CPointsList::CPointsList
_TEXT	ENDS
; Function compile flags: /Ogtp
; File D:\git\src\IBK\IBK_DRFN\ProjSrc\SrcChartEx\ChartAddIn\ChartAnalysisToolAddIn\AnalysisTool\Coordinate.cpp
; File C:\Program Files (x86)\Microsoft Visual Studio\2019\Community\VC\Tools\MSVC\14.29.30133\include\deque
; File D:\git\src\IBK\IBK_DRFN\ProjSrc\SrcChartEx\ChartAddIn\ChartAnalysisToolAddIn\AnalysisTool\Coordinate.cpp
; File C:\Program Files (x86)\Microsoft Visual Studio\2019\Community\VC\Tools\MSVC\14.29.30133\include\deque
; File D:\git\src\IBK\IBK_DRFN\ProjSrc\SrcChartEx\ChartAddIn\ChartAnalysisToolAddIn\AnalysisTool\Coordinate.cpp
; File C:\Program Files (x86)\Microsoft Visual Studio\2019\Community\VC\Tools\MSVC\14.29.30133\include\deque
; File D:\git\src\IBK\IBK_DRFN\ProjSrc\SrcChartEx\ChartAddIn\ChartAnalysisToolAddIn\AnalysisTool\Coordinate.cpp
; File C:\Program Files (x86)\Microsoft Visual Studio\2019\Community\VC\Tools\MSVC\14.29.30133\atlmfc\include\atltypes.h
; File D:\git\src\IBK\IBK_DRFN\ProjSrc\SrcChartEx\ChartAddIn\ChartAnalysisToolAddIn\AnalysisTool\Coordinate.cpp
; File C:\Program Files (x86)\Microsoft Visual Studio\2019\Community\VC\Tools\MSVC\14.29.30133\atlmfc\include\atltypes.h
; File D:\git\src\IBK\IBK_DRFN\ProjSrc\SrcChartEx\ChartAddIn\ChartAnalysisToolAddIn\AnalysisTool\Coordinate.cpp
;	COMDAT ??9CPointsList@@QAE_NABV0@@Z
_TEXT	SEGMENT
$T2 = -100						; size = 40
$T3 = -60						; size = 32
__Tmp$1$ = -20						; size = 4
_nIndex$1$ = -16					; size = 4
$T4 = -16						; size = 4
__$EHRec$ = -12						; size = 12
_pointsList$ = 8					; size = 4
??9CPointsList@@QAE_NABV0@@Z PROC			; CPointsList::operator!=, COMDAT
; _this$ = ecx

; 260  : {

  00000	55		 push	 ebp
  00001	8b ec		 mov	 ebp, esp
  00003	6a ff		 push	 -1
  00005	68 00 00 00 00	 push	 __ehhandler$??9CPointsList@@QAE_NABV0@@Z
  0000a	64 a1 00 00 00
	00		 mov	 eax, DWORD PTR fs:0
  00010	50		 push	 eax
  00011	83 ec 58	 sub	 esp, 88			; 00000058H
  00014	53		 push	 ebx
  00015	56		 push	 esi
  00016	57		 push	 edi
  00017	a1 00 00 00 00	 mov	 eax, DWORD PTR ___security_cookie
  0001c	33 c5		 xor	 eax, ebp
  0001e	50		 push	 eax
  0001f	8d 45 f4	 lea	 eax, DWORD PTR __$EHRec$[ebp]
  00022	64 a3 00 00 00
	00		 mov	 DWORD PTR fs:0, eax
  00028	89 4d ec	 mov	 DWORD PTR __Tmp$1$[ebp], ecx

; 246  : 	if(this == &pointsList)

  0002b	8b 55 08	 mov	 edx, DWORD PTR _pointsList$[ebp]

; 260  : {

  0002e	33 ff		 xor	 edi, edi
  00030	89 7d f0	 mov	 DWORD PTR $T4[ebp], edi

; 246  : 	if(this == &pointsList)

  00033	3b ca		 cmp	 ecx, edx
  00035	0f 84 44 01 00
	00		 je	 $LN5@operator

; 247  : 		return true;
; 248  : 
; 249  : 	if(m_PointsList.GetCount() != pointsList.GetCount())

  0003b	8b 41 10	 mov	 eax, DWORD PTR [ecx+16]
  0003e	3b 42 10	 cmp	 eax, DWORD PTR [edx+16]
  00041	74 16		 je	 SHORT $LN8@operator
$LN114@operator:

; 261  : 	return !(*this == pointsList);
; 262  : }

  00043	b0 01		 mov	 al, 1
  00045	8b 4d f4	 mov	 ecx, DWORD PTR __$EHRec$[ebp]
  00048	64 89 0d 00 00
	00 00		 mov	 DWORD PTR fs:0, ecx
  0004f	59		 pop	 ecx
  00050	5f		 pop	 edi
  00051	5e		 pop	 esi
  00052	5b		 pop	 ebx
  00053	8b e5		 mov	 esp, ebp
  00055	5d		 pop	 ebp
  00056	c2 04 00	 ret	 4
$LN8@operator:

; 252  : 	for(int nIndex = 0; nIndex < m_PointsList.GetCount(); nIndex++){

  00059	33 db		 xor	 ebx, ebx
  0005b	89 5d f0	 mov	 DWORD PTR _nIndex$1$[ebp], ebx
  0005e	85 c0		 test	 eax, eax
  00060	0f 8e 19 01 00
	00		 jle	 $LN5@operator
$LL6@operator:
; File C:\Program Files (x86)\Microsoft Visual Studio\2019\Community\VC\Tools\MSVC\14.29.30133\include\deque

; 559  :         return (_Off / _Block_size) & (_Mapsize - 1);

  00066	8b 4a 08	 mov	 ecx, DWORD PTR [edx+8]

; 909  :         return _Unchecked_const_iterator(_Myoff(), _STD addressof(_Get_data()));

  00069	8b 42 0c	 mov	 eax, DWORD PTR [edx+12]

; 559  :         return (_Off / _Block_size) & (_Mapsize - 1);

  0006c	49		 dec	 ecx

; 78   :         _Myoff += _Off;

  0006d	03 c3		 add	 eax, ebx

; 559  :         return (_Off / _Block_size) & (_Mapsize - 1);

  0006f	23 c8		 and	 ecx, eax

; 1030 :         return *(_Unchecked_begin() + static_cast<difference_type>(_Pos));

  00071	8b 42 04	 mov	 eax, DWORD PTR [edx+4]
  00074	8b 34 88	 mov	 esi, DWORD PTR [eax+ecx*4]
; File D:\git\src\IBK\IBK_DRFN\ProjSrc\SrcChartEx\ChartAddIn\ChartAnalysisToolAddIn\AnalysisTool\Coordinate.cpp

; 126  : 	return m_strType;

  00077	8d 4d b0	 lea	 ecx, DWORD PTR $T2[ebp+20]

; 92   : 	m_dX(point.GetX()),

  0007a	f2 0f 10 06	 movsd	 xmm0, QWORD PTR [esi]
  0007e	f2 0f 11 45 9c	 movsd	 QWORD PTR $T2[ebp], xmm0

; 93   : 	m_dY(point.GetY()),

  00083	f2 0f 10 46 08	 movsd	 xmm0, QWORD PTR [esi+8]
  00088	f2 0f 11 45 a4	 movsd	 QWORD PTR $T2[ebp+8], xmm0

; 94   : 	m_nIndex(point.GetIndex()),

  0008d	8b 46 10	 mov	 eax, DWORD PTR [esi+16]
  00090	89 45 ac	 mov	 DWORD PTR $T2[ebp+16], eax

; 126  : 	return m_strType;

  00093	8d 46 14	 lea	 eax, DWORD PTR [esi+20]
  00096	50		 push	 eax
  00097	ff 15 00 00 00
	00		 call	 DWORD PTR __imp_??0?$CStringT@DV?$StrTraitMFC_DLL@DV?$ChTraitsCRT@D@ATL@@@@@ATL@@QAE@ABV01@@Z

; 98   : 	m_nTimeDiff(point.GetTimeDiff())

  0009d	8b 46 18	 mov	 eax, DWORD PTR [esi+24]

; 314  : 	return m_PointsList.GetAt(nIndex);

  000a0	83 cf 07	 or	 edi, 7

; 98   : 	m_nTimeDiff(point.GetTimeDiff())

  000a3	89 45 b4	 mov	 DWORD PTR $T2[ebp+24], eax
  000a6	8b 46 20	 mov	 eax, DWORD PTR [esi+32]
  000a9	8b 4e 24	 mov	 ecx, DWORD PTR [esi+36]
  000ac	89 45 bc	 mov	 DWORD PTR $T2[ebp+32], eax
  000af	89 4d c0	 mov	 DWORD PTR $T2[ebp+36], ecx
; File C:\Program Files (x86)\Microsoft Visual Studio\2019\Community\VC\Tools\MSVC\14.29.30133\include\deque

; 905  :         return _Unchecked_iterator(_Myoff(), _STD addressof(_Get_data()));

  000b2	8b 55 ec	 mov	 edx, DWORD PTR __Tmp$1$[ebp]
; File D:\git\src\IBK\IBK_DRFN\ProjSrc\SrcChartEx\ChartAddIn\ChartAnalysisToolAddIn\AnalysisTool\Coordinate.cpp

; 253  : 		if(m_PointsList.GetAt(nIndex) != pointsList.GetAt(nIndex))

  000b5	c7 45 fc 00 00
	00 00		 mov	 DWORD PTR __$EHRec$[ebp+8], 0
; File C:\Program Files (x86)\Microsoft Visual Studio\2019\Community\VC\Tools\MSVC\14.29.30133\include\deque

; 905  :         return _Unchecked_iterator(_Myoff(), _STD addressof(_Get_data()));

  000bc	8b 42 0c	 mov	 eax, DWORD PTR [edx+12]

; 559  :         return (_Off / _Block_size) & (_Mapsize - 1);

  000bf	8b 4a 08	 mov	 ecx, DWORD PTR [edx+8]

; 78   :         _Myoff += _Off;

  000c2	03 c3		 add	 eax, ebx

; 559  :         return (_Off / _Block_size) & (_Mapsize - 1);

  000c4	49		 dec	 ecx
  000c5	23 c8		 and	 ecx, eax

; 1038 :         return *(_Unchecked_begin() + static_cast<difference_type>(_Pos));

  000c7	8b 42 04	 mov	 eax, DWORD PTR [edx+4]
  000ca	8b 34 88	 mov	 esi, DWORD PTR [eax+ecx*4]
; File D:\git\src\IBK\IBK_DRFN\ProjSrc\SrcChartEx\ChartAddIn\ChartAnalysisToolAddIn\AnalysisTool\Coordinate.cpp

; 178  : 	if(this == &points)

  000cd	8d 45 9c	 lea	 eax, DWORD PTR $T2[ebp]
  000d0	3b f0		 cmp	 esi, eax
  000d2	75 04		 jne	 SHORT $LN71@operator

; 179  : 		return true;

  000d4	32 db		 xor	 bl, bl
  000d6	eb 79		 jmp	 SHORT $LN70@operator
$LN71@operator:

; 94   : 	m_nIndex(point.GetIndex()),

  000d8	8b 45 ac	 mov	 eax, DWORD PTR $T2[ebp+16]

; 126  : 	return m_strType;

  000db	8d 4d d8	 lea	 ecx, DWORD PTR $T3[ebp+20]

; 92   : 	m_dX(point.GetX()),

  000de	0f 10 45 9c	 movups	 xmm0, XMMWORD PTR $T2[ebp]

; 94   : 	m_nIndex(point.GetIndex()),

  000e2	89 45 d4	 mov	 DWORD PTR $T3[ebp+16], eax

; 126  : 	return m_strType;

  000e5	8d 45 b0	 lea	 eax, DWORD PTR $T2[ebp+20]
  000e8	50		 push	 eax

; 92   : 	m_dX(point.GetX()),

  000e9	0f 11 45 c4	 movups	 XMMWORD PTR $T3[ebp], xmm0

; 126  : 	return m_strType;

  000ed	ff 15 00 00 00
	00		 call	 DWORD PTR __imp_??0?$CStringT@DV?$StrTraitMFC_DLL@DV?$ChTraitsCRT@D@ATL@@@@@ATL@@QAE@ABV01@@Z

; 98   : 	m_nTimeDiff(point.GetTimeDiff())

  000f3	8b 4d b4	 mov	 ecx, DWORD PTR $T2[ebp+24]

; 37   : 	if(this == &point)

  000f6	8d 45 c4	 lea	 eax, DWORD PTR $T3[ebp]

; 181  : 	return (m_savingPoint == points.GetSavingPoint() && m_drawingPoint == points.GetDrawingPoint());

  000f9	83 cf 38	 or	 edi, 56			; 00000038H

; 98   : 	m_nTimeDiff(point.GetTimeDiff())

  000fc	89 4d dc	 mov	 DWORD PTR $T3[ebp+24], ecx

; 37   : 	if(this == &point)

  000ff	3b f0		 cmp	 esi, eax
  00101	74 2c		 je	 SHORT $LN118@operator

; 38   : 		return true;
; 39   : 
; 40   : 	return (m_dX == point.GetX() && m_dY == point.GetY() && m_nIndex == point.GetIndex() && m_nTimeDiff == point.GetTimeDiff());

  00103	f2 0f 10 06	 movsd	 xmm0, QWORD PTR [esi]
  00107	66 0f 2e 45 c4	 ucomisd xmm0, QWORD PTR $T3[ebp]
  0010c	9f		 lahf
  0010d	f6 c4 44	 test	 ah, 68			; 00000044H
  00110	7a 31		 jp	 SHORT $LN73@operator
  00112	f2 0f 10 46 08	 movsd	 xmm0, QWORD PTR [esi+8]
  00117	66 0f 2e 45 cc	 ucomisd xmm0, QWORD PTR $T3[ebp+8]
  0011c	9f		 lahf
  0011d	f6 c4 44	 test	 ah, 68			; 00000044H
  00120	7a 21		 jp	 SHORT $LN73@operator
  00122	8b 46 10	 mov	 eax, DWORD PTR [esi+16]
  00125	3b 45 d4	 cmp	 eax, DWORD PTR $T3[ebp+16]
  00128	75 19		 jne	 SHORT $LN73@operator
  0012a	39 4e 18	 cmp	 DWORD PTR [esi+24], ecx
  0012d	75 14		 jne	 SHORT $LN73@operator
$LN118@operator:
; File C:\Program Files (x86)\Microsoft Visual Studio\2019\Community\VC\Tools\MSVC\14.29.30133\atlmfc\include\atltypes.h

; 458  : 	return (x == point.x && y == point.y);

  0012f	8b 46 20	 mov	 eax, DWORD PTR [esi+32]
; File D:\git\src\IBK\IBK_DRFN\ProjSrc\SrcChartEx\ChartAddIn\ChartAnalysisToolAddIn\AnalysisTool\Coordinate.cpp

; 181  : 	return (m_savingPoint == points.GetSavingPoint() && m_drawingPoint == points.GetDrawingPoint());

  00132	8b 4d c0	 mov	 ecx, DWORD PTR $T2[ebp+36]
; File C:\Program Files (x86)\Microsoft Visual Studio\2019\Community\VC\Tools\MSVC\14.29.30133\atlmfc\include\atltypes.h

; 458  : 	return (x == point.x && y == point.y);

  00135	3b 45 bc	 cmp	 eax, DWORD PTR $T2[ebp+32]
  00138	75 09		 jne	 SHORT $LN73@operator
  0013a	39 4e 24	 cmp	 DWORD PTR [esi+36], ecx
  0013d	75 04		 jne	 SHORT $LN73@operator
; File D:\git\src\IBK\IBK_DRFN\ProjSrc\SrcChartEx\ChartAddIn\ChartAnalysisToolAddIn\AnalysisTool\Coordinate.cpp

; 181  : 	return (m_savingPoint == points.GetSavingPoint() && m_drawingPoint == points.GetDrawingPoint());

  0013f	32 db		 xor	 bl, bl
  00141	eb 02		 jmp	 SHORT $LN74@operator
$LN73@operator:
  00143	b3 01		 mov	 bl, 1
$LN74@operator:
  00145	8d 4d d8	 lea	 ecx, DWORD PTR $T3[ebp+20]
  00148	83 e7 f7	 and	 edi, -9			; fffffff7H
  0014b	ff 15 00 00 00
	00		 call	 DWORD PTR __imp_??1?$CStringT@DV?$StrTraitMFC_DLL@DV?$ChTraitsCRT@D@ATL@@@@@ATL@@QAE@XZ
$LN70@operator:
  00151	8d 4d b0	 lea	 ecx, DWORD PTR $T2[ebp+20]

; 253  : 		if(m_PointsList.GetAt(nIndex) != pointsList.GetAt(nIndex))

  00154	c7 45 fc ff ff
	ff ff		 mov	 DWORD PTR __$EHRec$[ebp+8], -1
  0015b	ff 15 00 00 00
	00		 call	 DWORD PTR __imp_??1?$CStringT@DV?$StrTraitMFC_DLL@DV?$ChTraitsCRT@D@ATL@@@@@ATL@@QAE@XZ
  00161	84 db		 test	 bl, bl
  00163	0f 85 da fe ff
	ff		 jne	 $LN114@operator

; 250  : 		return false;
; 251  : 
; 252  : 	for(int nIndex = 0; nIndex < m_PointsList.GetCount(); nIndex++){

  00169	8b 5d f0	 mov	 ebx, DWORD PTR _nIndex$1$[ebp]
  0016c	8b 4d ec	 mov	 ecx, DWORD PTR __Tmp$1$[ebp]
  0016f	43		 inc	 ebx
  00170	8b 55 08	 mov	 edx, DWORD PTR _pointsList$[ebp]
  00173	89 5d f0	 mov	 DWORD PTR _nIndex$1$[ebp], ebx
  00176	3b 59 10	 cmp	 ebx, DWORD PTR [ecx+16]
  00179	0f 8c e7 fe ff
	ff		 jl	 $LL6@operator
$LN5@operator:

; 261  : 	return !(*this == pointsList);
; 262  : }

  0017f	32 c0		 xor	 al, al
  00181	8b 4d f4	 mov	 ecx, DWORD PTR __$EHRec$[ebp]
  00184	64 89 0d 00 00
	00 00		 mov	 DWORD PTR fs:0, ecx
  0018b	59		 pop	 ecx
  0018c	5f		 pop	 edi
  0018d	5e		 pop	 esi
  0018e	5b		 pop	 ebx
  0018f	8b e5		 mov	 esp, ebp
  00191	5d		 pop	 ebp
  00192	c2 04 00	 ret	 4
_TEXT	ENDS
;	COMDAT text$x
text$x	SEGMENT
__unwindfunclet$??9CPointsList@@QAE_NABV0@@Z$0:
  00000	8d 4d 9c	 lea	 ecx, DWORD PTR $T2[ebp]
  00003	e9 00 00 00 00	 jmp	 ??1CPoints@@QAE@XZ
  00008	cc		 int	 3
  00009	cc		 int	 3
  0000a	cc		 int	 3
  0000b	cc		 int	 3
  0000c	cc		 int	 3
__ehhandler$??9CPointsList@@QAE_NABV0@@Z:
  0000d	90		 npad	 1
  0000e	90		 npad	 1
  0000f	8b 54 24 08	 mov	 edx, DWORD PTR [esp+8]
  00013	8d 42 0c	 lea	 eax, DWORD PTR [edx+12]
  00016	8b 4a 98	 mov	 ecx, DWORD PTR [edx-104]
  00019	33 c8		 xor	 ecx, eax
  0001b	e8 00 00 00 00	 call	 @__security_check_cookie@4
  00020	b8 00 00 00 00	 mov	 eax, OFFSET __ehfuncinfo$??9CPointsList@@QAE_NABV0@@Z
  00025	e9 00 00 00 00	 jmp	 ___CxxFrameHandler3
text$x	ENDS
??9CPointsList@@QAE_NABV0@@Z ENDP			; CPointsList::operator!=
; Function compile flags: /Ogtp
; File D:\git\src\IBK\IBK_DRFN\ProjSrc\SrcChartEx\ChartAddIn\ChartAnalysisToolAddIn\AnalysisTool\Coordinate.cpp
; File C:\Program Files (x86)\Microsoft Visual Studio\2019\Community\VC\Tools\MSVC\14.29.30133\include\deque
; File D:\git\src\IBK\IBK_DRFN\ProjSrc\SrcChartEx\ChartAddIn\ChartAnalysisToolAddIn\AnalysisTool\Coordinate.cpp
; File C:\Program Files (x86)\Microsoft Visual Studio\2019\Community\VC\Tools\MSVC\14.29.30133\include\deque
; File D:\git\src\IBK\IBK_DRFN\ProjSrc\SrcChartEx\ChartAddIn\ChartAnalysisToolAddIn\AnalysisTool\Coordinate.cpp
; File C:\Program Files (x86)\Microsoft Visual Studio\2019\Community\VC\Tools\MSVC\14.29.30133\include\deque
; File D:\git\src\IBK\IBK_DRFN\ProjSrc\SrcChartEx\ChartAddIn\ChartAnalysisToolAddIn\AnalysisTool\Coordinate.cpp
; File C:\Program Files (x86)\Microsoft Visual Studio\2019\Community\VC\Tools\MSVC\14.29.30133\atlmfc\include\atltypes.h
; File D:\git\src\IBK\IBK_DRFN\ProjSrc\SrcChartEx\ChartAddIn\ChartAnalysisToolAddIn\AnalysisTool\Coordinate.cpp
; File C:\Program Files (x86)\Microsoft Visual Studio\2019\Community\VC\Tools\MSVC\14.29.30133\atlmfc\include\atltypes.h
; File D:\git\src\IBK\IBK_DRFN\ProjSrc\SrcChartEx\ChartAddIn\ChartAnalysisToolAddIn\AnalysisTool\Coordinate.cpp
;	COMDAT ??8CPointsList@@QAE_NABV0@@Z
_TEXT	SEGMENT
$T2 = -100						; size = 40
$T3 = -60						; size = 32
__Tmp$1$ = -20						; size = 4
_nIndex$1$ = -16					; size = 4
$T4 = -16						; size = 4
__$EHRec$ = -12						; size = 12
_pointsList$ = 8					; size = 4
??8CPointsList@@QAE_NABV0@@Z PROC			; CPointsList::operator==, COMDAT
; _this$ = ecx

; 245  : {

  00000	55		 push	 ebp
  00001	8b ec		 mov	 ebp, esp
  00003	6a ff		 push	 -1
  00005	68 00 00 00 00	 push	 __ehhandler$??8CPointsList@@QAE_NABV0@@Z
  0000a	64 a1 00 00 00
	00		 mov	 eax, DWORD PTR fs:0
  00010	50		 push	 eax
  00011	83 ec 58	 sub	 esp, 88			; 00000058H
  00014	53		 push	 ebx
  00015	56		 push	 esi
  00016	57		 push	 edi
  00017	a1 00 00 00 00	 mov	 eax, DWORD PTR ___security_cookie
  0001c	33 c5		 xor	 eax, ebp
  0001e	50		 push	 eax
  0001f	8d 45 f4	 lea	 eax, DWORD PTR __$EHRec$[ebp]
  00022	64 a3 00 00 00
	00		 mov	 DWORD PTR fs:0, eax
  00028	89 4d ec	 mov	 DWORD PTR __Tmp$1$[ebp], ecx

; 246  : 	if(this == &pointsList)

  0002b	8b 55 08	 mov	 edx, DWORD PTR _pointsList$[ebp]
  0002e	33 ff		 xor	 edi, edi
  00030	89 7d f0	 mov	 DWORD PTR $T4[ebp], edi
  00033	3b ca		 cmp	 ecx, edx
  00035	0f 84 2e 01 00
	00		 je	 $LN3@operator

; 247  : 		return true;
; 248  : 
; 249  : 	if(m_PointsList.GetCount() != pointsList.GetCount())

  0003b	8b 41 10	 mov	 eax, DWORD PTR [ecx+16]
  0003e	3b 42 10	 cmp	 eax, DWORD PTR [edx+16]
  00041	0f 85 38 01 00
	00		 jne	 $LN112@operator

; 250  : 		return false;
; 251  : 
; 252  : 	for(int nIndex = 0; nIndex < m_PointsList.GetCount(); nIndex++){

  00047	33 db		 xor	 ebx, ebx
  00049	89 5d f0	 mov	 DWORD PTR _nIndex$1$[ebp], ebx
  0004c	85 c0		 test	 eax, eax
  0004e	0f 8e 15 01 00
	00		 jle	 $LN3@operator
$LL4@operator:
; File C:\Program Files (x86)\Microsoft Visual Studio\2019\Community\VC\Tools\MSVC\14.29.30133\include\deque

; 559  :         return (_Off / _Block_size) & (_Mapsize - 1);

  00054	8b 4a 08	 mov	 ecx, DWORD PTR [edx+8]

; 909  :         return _Unchecked_const_iterator(_Myoff(), _STD addressof(_Get_data()));

  00057	8b 42 0c	 mov	 eax, DWORD PTR [edx+12]

; 559  :         return (_Off / _Block_size) & (_Mapsize - 1);

  0005a	49		 dec	 ecx

; 78   :         _Myoff += _Off;

  0005b	03 c3		 add	 eax, ebx

; 559  :         return (_Off / _Block_size) & (_Mapsize - 1);

  0005d	23 c8		 and	 ecx, eax

; 1030 :         return *(_Unchecked_begin() + static_cast<difference_type>(_Pos));

  0005f	8b 42 04	 mov	 eax, DWORD PTR [edx+4]
  00062	8b 34 88	 mov	 esi, DWORD PTR [eax+ecx*4]
; File D:\git\src\IBK\IBK_DRFN\ProjSrc\SrcChartEx\ChartAddIn\ChartAnalysisToolAddIn\AnalysisTool\Coordinate.cpp

; 126  : 	return m_strType;

  00065	8d 4d b0	 lea	 ecx, DWORD PTR $T2[ebp+20]

; 92   : 	m_dX(point.GetX()),

  00068	f2 0f 10 06	 movsd	 xmm0, QWORD PTR [esi]
  0006c	f2 0f 11 45 9c	 movsd	 QWORD PTR $T2[ebp], xmm0

; 93   : 	m_dY(point.GetY()),

  00071	f2 0f 10 46 08	 movsd	 xmm0, QWORD PTR [esi+8]
  00076	f2 0f 11 45 a4	 movsd	 QWORD PTR $T2[ebp+8], xmm0

; 94   : 	m_nIndex(point.GetIndex()),

  0007b	8b 46 10	 mov	 eax, DWORD PTR [esi+16]
  0007e	89 45 ac	 mov	 DWORD PTR $T2[ebp+16], eax

; 126  : 	return m_strType;

  00081	8d 46 14	 lea	 eax, DWORD PTR [esi+20]
  00084	50		 push	 eax
  00085	ff 15 00 00 00
	00		 call	 DWORD PTR __imp_??0?$CStringT@DV?$StrTraitMFC_DLL@DV?$ChTraitsCRT@D@ATL@@@@@ATL@@QAE@ABV01@@Z

; 98   : 	m_nTimeDiff(point.GetTimeDiff())

  0008b	8b 46 18	 mov	 eax, DWORD PTR [esi+24]

; 314  : 	return m_PointsList.GetAt(nIndex);

  0008e	83 cf 07	 or	 edi, 7

; 98   : 	m_nTimeDiff(point.GetTimeDiff())

  00091	89 45 b4	 mov	 DWORD PTR $T2[ebp+24], eax
  00094	8b 46 20	 mov	 eax, DWORD PTR [esi+32]
  00097	8b 4e 24	 mov	 ecx, DWORD PTR [esi+36]
  0009a	89 45 bc	 mov	 DWORD PTR $T2[ebp+32], eax
  0009d	89 4d c0	 mov	 DWORD PTR $T2[ebp+36], ecx
; File C:\Program Files (x86)\Microsoft Visual Studio\2019\Community\VC\Tools\MSVC\14.29.30133\include\deque

; 905  :         return _Unchecked_iterator(_Myoff(), _STD addressof(_Get_data()));

  000a0	8b 55 ec	 mov	 edx, DWORD PTR __Tmp$1$[ebp]
; File D:\git\src\IBK\IBK_DRFN\ProjSrc\SrcChartEx\ChartAddIn\ChartAnalysisToolAddIn\AnalysisTool\Coordinate.cpp

; 253  : 		if(m_PointsList.GetAt(nIndex) != pointsList.GetAt(nIndex))

  000a3	c7 45 fc 00 00
	00 00		 mov	 DWORD PTR __$EHRec$[ebp+8], 0
; File C:\Program Files (x86)\Microsoft Visual Studio\2019\Community\VC\Tools\MSVC\14.29.30133\include\deque

; 905  :         return _Unchecked_iterator(_Myoff(), _STD addressof(_Get_data()));

  000aa	8b 42 0c	 mov	 eax, DWORD PTR [edx+12]

; 559  :         return (_Off / _Block_size) & (_Mapsize - 1);

  000ad	8b 4a 08	 mov	 ecx, DWORD PTR [edx+8]

; 78   :         _Myoff += _Off;

  000b0	03 c3		 add	 eax, ebx

; 559  :         return (_Off / _Block_size) & (_Mapsize - 1);

  000b2	49		 dec	 ecx
  000b3	23 c8		 and	 ecx, eax

; 1038 :         return *(_Unchecked_begin() + static_cast<difference_type>(_Pos));

  000b5	8b 42 04	 mov	 eax, DWORD PTR [edx+4]
  000b8	8b 34 88	 mov	 esi, DWORD PTR [eax+ecx*4]
; File D:\git\src\IBK\IBK_DRFN\ProjSrc\SrcChartEx\ChartAddIn\ChartAnalysisToolAddIn\AnalysisTool\Coordinate.cpp

; 178  : 	if(this == &points)

  000bb	8d 45 9c	 lea	 eax, DWORD PTR $T2[ebp]
  000be	3b f0		 cmp	 esi, eax
  000c0	75 04		 jne	 SHORT $LN69@operator

; 179  : 		return true;

  000c2	32 db		 xor	 bl, bl
  000c4	eb 79		 jmp	 SHORT $LN68@operator
$LN69@operator:

; 94   : 	m_nIndex(point.GetIndex()),

  000c6	8b 45 ac	 mov	 eax, DWORD PTR $T2[ebp+16]

; 126  : 	return m_strType;

  000c9	8d 4d d8	 lea	 ecx, DWORD PTR $T3[ebp+20]

; 92   : 	m_dX(point.GetX()),

  000cc	0f 10 45 9c	 movups	 xmm0, XMMWORD PTR $T2[ebp]

; 94   : 	m_nIndex(point.GetIndex()),

  000d0	89 45 d4	 mov	 DWORD PTR $T3[ebp+16], eax

; 126  : 	return m_strType;

  000d3	8d 45 b0	 lea	 eax, DWORD PTR $T2[ebp+20]
  000d6	50		 push	 eax

; 92   : 	m_dX(point.GetX()),

  000d7	0f 11 45 c4	 movups	 XMMWORD PTR $T3[ebp], xmm0

; 126  : 	return m_strType;

  000db	ff 15 00 00 00
	00		 call	 DWORD PTR __imp_??0?$CStringT@DV?$StrTraitMFC_DLL@DV?$ChTraitsCRT@D@ATL@@@@@ATL@@QAE@ABV01@@Z

; 98   : 	m_nTimeDiff(point.GetTimeDiff())

  000e1	8b 4d b4	 mov	 ecx, DWORD PTR $T2[ebp+24]

; 37   : 	if(this == &point)

  000e4	8d 45 c4	 lea	 eax, DWORD PTR $T3[ebp]

; 181  : 	return (m_savingPoint == points.GetSavingPoint() && m_drawingPoint == points.GetDrawingPoint());

  000e7	83 cf 38	 or	 edi, 56			; 00000038H

; 98   : 	m_nTimeDiff(point.GetTimeDiff())

  000ea	89 4d dc	 mov	 DWORD PTR $T3[ebp+24], ecx

; 37   : 	if(this == &point)

  000ed	3b f0		 cmp	 esi, eax
  000ef	74 2c		 je	 SHORT $LN116@operator

; 38   : 		return true;
; 39   : 
; 40   : 	return (m_dX == point.GetX() && m_dY == point.GetY() && m_nIndex == point.GetIndex() && m_nTimeDiff == point.GetTimeDiff());

  000f1	f2 0f 10 06	 movsd	 xmm0, QWORD PTR [esi]
  000f5	66 0f 2e 45 c4	 ucomisd xmm0, QWORD PTR $T3[ebp]
  000fa	9f		 lahf
  000fb	f6 c4 44	 test	 ah, 68			; 00000044H
  000fe	7a 31		 jp	 SHORT $LN71@operator
  00100	f2 0f 10 46 08	 movsd	 xmm0, QWORD PTR [esi+8]
  00105	66 0f 2e 45 cc	 ucomisd xmm0, QWORD PTR $T3[ebp+8]
  0010a	9f		 lahf
  0010b	f6 c4 44	 test	 ah, 68			; 00000044H
  0010e	7a 21		 jp	 SHORT $LN71@operator
  00110	8b 46 10	 mov	 eax, DWORD PTR [esi+16]
  00113	3b 45 d4	 cmp	 eax, DWORD PTR $T3[ebp+16]
  00116	75 19		 jne	 SHORT $LN71@operator
  00118	39 4e 18	 cmp	 DWORD PTR [esi+24], ecx
  0011b	75 14		 jne	 SHORT $LN71@operator
$LN116@operator:
; File C:\Program Files (x86)\Microsoft Visual Studio\2019\Community\VC\Tools\MSVC\14.29.30133\atlmfc\include\atltypes.h

; 458  : 	return (x == point.x && y == point.y);

  0011d	8b 46 20	 mov	 eax, DWORD PTR [esi+32]
; File D:\git\src\IBK\IBK_DRFN\ProjSrc\SrcChartEx\ChartAddIn\ChartAnalysisToolAddIn\AnalysisTool\Coordinate.cpp

; 181  : 	return (m_savingPoint == points.GetSavingPoint() && m_drawingPoint == points.GetDrawingPoint());

  00120	8b 4d c0	 mov	 ecx, DWORD PTR $T2[ebp+36]
; File C:\Program Files (x86)\Microsoft Visual Studio\2019\Community\VC\Tools\MSVC\14.29.30133\atlmfc\include\atltypes.h

; 458  : 	return (x == point.x && y == point.y);

  00123	3b 45 bc	 cmp	 eax, DWORD PTR $T2[ebp+32]
  00126	75 09		 jne	 SHORT $LN71@operator
  00128	39 4e 24	 cmp	 DWORD PTR [esi+36], ecx
  0012b	75 04		 jne	 SHORT $LN71@operator
; File D:\git\src\IBK\IBK_DRFN\ProjSrc\SrcChartEx\ChartAddIn\ChartAnalysisToolAddIn\AnalysisTool\Coordinate.cpp

; 181  : 	return (m_savingPoint == points.GetSavingPoint() && m_drawingPoint == points.GetDrawingPoint());

  0012d	32 db		 xor	 bl, bl
  0012f	eb 02		 jmp	 SHORT $LN72@operator
$LN71@operator:
  00131	b3 01		 mov	 bl, 1
$LN72@operator:
  00133	8d 4d d8	 lea	 ecx, DWORD PTR $T3[ebp+20]
  00136	83 e7 f7	 and	 edi, -9			; fffffff7H
  00139	ff 15 00 00 00
	00		 call	 DWORD PTR __imp_??1?$CStringT@DV?$StrTraitMFC_DLL@DV?$ChTraitsCRT@D@ATL@@@@@ATL@@QAE@XZ
$LN68@operator:
  0013f	8d 4d b0	 lea	 ecx, DWORD PTR $T2[ebp+20]

; 253  : 		if(m_PointsList.GetAt(nIndex) != pointsList.GetAt(nIndex))

  00142	c7 45 fc ff ff
	ff ff		 mov	 DWORD PTR __$EHRec$[ebp+8], -1
  00149	ff 15 00 00 00
	00		 call	 DWORD PTR __imp_??1?$CStringT@DV?$StrTraitMFC_DLL@DV?$ChTraitsCRT@D@ATL@@@@@ATL@@QAE@XZ
  0014f	84 db		 test	 bl, bl
  00151	75 2c		 jne	 SHORT $LN112@operator

; 250  : 		return false;
; 251  : 
; 252  : 	for(int nIndex = 0; nIndex < m_PointsList.GetCount(); nIndex++){

  00153	8b 5d f0	 mov	 ebx, DWORD PTR _nIndex$1$[ebp]
  00156	8b 4d ec	 mov	 ecx, DWORD PTR __Tmp$1$[ebp]
  00159	43		 inc	 ebx
  0015a	8b 55 08	 mov	 edx, DWORD PTR _pointsList$[ebp]
  0015d	89 5d f0	 mov	 DWORD PTR _nIndex$1$[ebp], ebx
  00160	3b 59 10	 cmp	 ebx, DWORD PTR [ecx+16]
  00163	0f 8c eb fe ff
	ff		 jl	 $LL4@operator
$LN3@operator:

; 255  : 	}
; 256  : 	return true;

  00169	b0 01		 mov	 al, 1

; 257  : }

  0016b	8b 4d f4	 mov	 ecx, DWORD PTR __$EHRec$[ebp]
  0016e	64 89 0d 00 00
	00 00		 mov	 DWORD PTR fs:0, ecx
  00175	59		 pop	 ecx
  00176	5f		 pop	 edi
  00177	5e		 pop	 esi
  00178	5b		 pop	 ebx
  00179	8b e5		 mov	 esp, ebp
  0017b	5d		 pop	 ebp
  0017c	c2 04 00	 ret	 4
$LN112@operator:

; 254  : 			return false;

  0017f	32 c0		 xor	 al, al

; 257  : }

  00181	8b 4d f4	 mov	 ecx, DWORD PTR __$EHRec$[ebp]
  00184	64 89 0d 00 00
	00 00		 mov	 DWORD PTR fs:0, ecx
  0018b	59		 pop	 ecx
  0018c	5f		 pop	 edi
  0018d	5e		 pop	 esi
  0018e	5b		 pop	 ebx
  0018f	8b e5		 mov	 esp, ebp
  00191	5d		 pop	 ebp
  00192	c2 04 00	 ret	 4
_TEXT	ENDS
;	COMDAT text$x
text$x	SEGMENT
__unwindfunclet$??8CPointsList@@QAE_NABV0@@Z$0:
  00000	8d 4d 9c	 lea	 ecx, DWORD PTR $T2[ebp]
  00003	e9 00 00 00 00	 jmp	 ??1CPoints@@QAE@XZ
  00008	cc		 int	 3
  00009	cc		 int	 3
  0000a	cc		 int	 3
  0000b	cc		 int	 3
  0000c	cc		 int	 3
__ehhandler$??8CPointsList@@QAE_NABV0@@Z:
  0000d	90		 npad	 1
  0000e	90		 npad	 1
  0000f	8b 54 24 08	 mov	 edx, DWORD PTR [esp+8]
  00013	8d 42 0c	 lea	 eax, DWORD PTR [edx+12]
  00016	8b 4a 98	 mov	 ecx, DWORD PTR [edx-104]
  00019	33 c8		 xor	 ecx, eax
  0001b	e8 00 00 00 00	 call	 @__security_check_cookie@4
  00020	b8 00 00 00 00	 mov	 eax, OFFSET __ehfuncinfo$??8CPointsList@@QAE_NABV0@@Z
  00025	e9 00 00 00 00	 jmp	 ___CxxFrameHandler3
text$x	ENDS
??8CPointsList@@QAE_NABV0@@Z ENDP			; CPointsList::operator==
; Function compile flags: /Ogtp
; File D:\git\src\IBK\IBK_DRFN\ProjSrc\SrcChartEx\ChartAddIn\ChartAnalysisToolAddIn\AnalysisTool\Coordinate.cpp
;	COMDAT ??4CPointsList@@QAEAAV0@ABV0@@Z
_TEXT	SEGMENT
_pointsList$ = 8					; size = 4
??4CPointsList@@QAEAAV0@ABV0@@Z PROC			; CPointsList::operator=, COMDAT
; _this$ = ecx

; 236  : {

  00000	55		 push	 ebp
  00001	8b ec		 mov	 ebp, esp

; 237  : 	if(this == &pointsList)

  00003	8b 45 08	 mov	 eax, DWORD PTR _pointsList$[ebp]
  00006	56		 push	 esi
  00007	8b f1		 mov	 esi, ecx
  00009	3b f0		 cmp	 esi, eax
  0000b	74 06		 je	 SHORT $LN4@operator

; 238  : 		return *this;
; 239  : 	
; 240  : 	SetPointsList(pointsList);

  0000d	50		 push	 eax
  0000e	e8 00 00 00 00	 call	 ?SetPointsList@CPointsList@@QAEXABV1@@Z ; CPointsList::SetPointsList
$LN4@operator:

; 241  : 	return *this;
; 242  : }

  00013	8b c6		 mov	 eax, esi
  00015	5e		 pop	 esi
  00016	5d		 pop	 ebp
  00017	c2 04 00	 ret	 4
??4CPointsList@@QAEAAV0@ABV0@@Z ENDP			; CPointsList::operator=
_TEXT	ENDS
; Function compile flags: /Ogtp
;	COMDAT ??1CPoints@@QAE@XZ
_TEXT	SEGMENT
??1CPoints@@QAE@XZ PROC					; CPoints::~CPoints, COMDAT
; _this$ = ecx
  00000	83 c1 14	 add	 ecx, 20			; 00000014H
  00003	ff 25 00 00 00
	00		 jmp	 DWORD PTR __imp_??1?$CStringT@DV?$StrTraitMFC_DLL@DV?$ChTraitsCRT@D@ATL@@@@@ATL@@QAE@XZ
??1CPoints@@QAE@XZ ENDP					; CPoints::~CPoints
_TEXT	ENDS
; Function compile flags: /Ogtp
; File D:\git\src\IBK\IBK_DRFN\ProjSrc\SrcChartEx\ChartAddIn\ChartAnalysisToolAddIn\AnalysisTool\Coordinate.cpp
;	COMDAT ?GetDrawingPoint@CPoints@@QBE?AVCPoint@@XZ
_TEXT	SEGMENT
___$ReturnUdt$ = 8					; size = 4
?GetDrawingPoint@CPoints@@QBE?AVCPoint@@XZ PROC		; CPoints::GetDrawingPoint, COMDAT
; _this$ = ecx

; 228  : {

  00000	55		 push	 ebp
  00001	8b ec		 mov	 ebp, esp

; 229  : 	return m_drawingPoint;

  00003	8b 45 08	 mov	 eax, DWORD PTR ___$ReturnUdt$[ebp]
  00006	8b 51 20	 mov	 edx, DWORD PTR [ecx+32]
  00009	8b 49 24	 mov	 ecx, DWORD PTR [ecx+36]
  0000c	89 10		 mov	 DWORD PTR [eax], edx
  0000e	89 48 04	 mov	 DWORD PTR [eax+4], ecx

; 230  : }

  00011	5d		 pop	 ebp
  00012	c2 04 00	 ret	 4
?GetDrawingPoint@CPoints@@QBE?AVCPoint@@XZ ENDP		; CPoints::GetDrawingPoint
_TEXT	ENDS
; Function compile flags: /Ogtp
; File D:\git\src\IBK\IBK_DRFN\ProjSrc\SrcChartEx\ChartAddIn\ChartAnalysisToolAddIn\AnalysisTool\Coordinate.cpp
;	COMDAT ?GetSavingPoint@CPoints@@QBE?AVCCoordinate@@XZ
_TEXT	SEGMENT
___$ReturnUdt$ = 8					; size = 4
___$ReturnUdt$ = 8					; size = 4
?GetSavingPoint@CPoints@@QBE?AVCCoordinate@@XZ PROC	; CPoints::GetSavingPoint, COMDAT
; _this$ = ecx

; 223  : {

  00000	55		 push	 ebp
  00001	8b ec		 mov	 ebp, esp
  00003	56		 push	 esi

; 92   : 	m_dX(point.GetX()),

  00004	8b 75 08	 mov	 esi, DWORD PTR ___$ReturnUdt$[ebp]

; 223  : {

  00007	57		 push	 edi
  00008	8b f9		 mov	 edi, ecx

; 96   : 	m_strType(point.GetDateType()),

  0000a	8d 4e 14	 lea	 ecx, DWORD PTR [esi+20]
  0000d	89 4d 08	 mov	 DWORD PTR ___$ReturnUdt$[ebp], ecx
  00010	f2 0f 10 07	 movsd	 xmm0, QWORD PTR [edi]

; 126  : 	return m_strType;

  00014	8d 57 14	 lea	 edx, DWORD PTR [edi+20]

; 92   : 	m_dX(point.GetX()),

  00017	f2 0f 11 06	 movsd	 QWORD PTR [esi], xmm0

; 93   : 	m_dY(point.GetY()),

  0001b	f2 0f 10 47 08	 movsd	 xmm0, QWORD PTR [edi+8]
  00020	f2 0f 11 46 08	 movsd	 QWORD PTR [esi+8], xmm0

; 94   : 	m_nIndex(point.GetIndex()),

  00025	8b 47 10	 mov	 eax, DWORD PTR [edi+16]

; 126  : 	return m_strType;

  00028	52		 push	 edx

; 94   : 	m_nIndex(point.GetIndex()),

  00029	89 46 10	 mov	 DWORD PTR [esi+16], eax

; 126  : 	return m_strType;

  0002c	ff 15 00 00 00
	00		 call	 DWORD PTR __imp_??0?$CStringT@DV?$StrTraitMFC_DLL@DV?$ChTraitsCRT@D@ATL@@@@@ATL@@QAE@ABV01@@Z

; 98   : 	m_nTimeDiff(point.GetTimeDiff())

  00032	8b 4f 18	 mov	 ecx, DWORD PTR [edi+24]

; 224  : 	return m_savingPoint;

  00035	8b c6		 mov	 eax, esi
  00037	5f		 pop	 edi

; 98   : 	m_nTimeDiff(point.GetTimeDiff())

  00038	89 4e 18	 mov	 DWORD PTR [esi+24], ecx

; 224  : 	return m_savingPoint;

  0003b	5e		 pop	 esi

; 225  : }

  0003c	5d		 pop	 ebp
  0003d	c2 04 00	 ret	 4
?GetSavingPoint@CPoints@@QBE?AVCCoordinate@@XZ ENDP	; CPoints::GetSavingPoint
_TEXT	ENDS
; Function compile flags: /Ogtp
; File D:\git\src\IBK\IBK_DRFN\ProjSrc\SrcChartEx\ChartAddIn\ChartAnalysisToolAddIn\AnalysisTool\Coordinate.cpp
;	COMDAT ?SetPoints_Value_Y@CPoints@@QAEXABN@Z
_TEXT	SEGMENT
_dSavingPointY$ = 8					; size = 4
?SetPoints_Value_Y@CPoints@@QAEXABN@Z PROC		; CPoints::SetPoints_Value_Y, COMDAT
; _this$ = ecx

; 218  : {

  00000	55		 push	 ebp
  00001	8b ec		 mov	 ebp, esp

; 148  : 	m_dY = y;

  00003	8b 45 08	 mov	 eax, DWORD PTR _dSavingPointY$[ebp]
  00006	f2 0f 10 00	 movsd	 xmm0, QWORD PTR [eax]
  0000a	f2 0f 11 41 08	 movsd	 QWORD PTR [ecx+8], xmm0

; 219  : 	m_savingPoint.SetY(dSavingPointY);
; 220  : }

  0000f	5d		 pop	 ebp
  00010	c2 04 00	 ret	 4
?SetPoints_Value_Y@CPoints@@QAEXABN@Z ENDP		; CPoints::SetPoints_Value_Y
_TEXT	ENDS
; Function compile flags: /Ogtp
; File D:\git\src\IBK\IBK_DRFN\ProjSrc\SrcChartEx\ChartAddIn\ChartAnalysisToolAddIn\AnalysisTool\Coordinate.cpp
;	COMDAT ?SetPoints_Point_Y@CPoints@@QAEXABH@Z
_TEXT	SEGMENT
_nDrawingPointY$ = 8					; size = 4
?SetPoints_Point_Y@CPoints@@QAEXABH@Z PROC		; CPoints::SetPoints_Point_Y, COMDAT
; _this$ = ecx

; 213  : {

  00000	55		 push	 ebp
  00001	8b ec		 mov	 ebp, esp

; 214  : 	m_drawingPoint.y = nDrawingPointY;

  00003	8b 45 08	 mov	 eax, DWORD PTR _nDrawingPointY$[ebp]
  00006	8b 00		 mov	 eax, DWORD PTR [eax]
  00008	89 41 24	 mov	 DWORD PTR [ecx+36], eax

; 215  : }

  0000b	5d		 pop	 ebp
  0000c	c2 04 00	 ret	 4
?SetPoints_Point_Y@CPoints@@QAEXABH@Z ENDP		; CPoints::SetPoints_Point_Y
_TEXT	ENDS
; Function compile flags: /Ogtp
; File D:\git\src\IBK\IBK_DRFN\ProjSrc\SrcChartEx\ChartAddIn\ChartAnalysisToolAddIn\AnalysisTool\Coordinate.cpp
;	COMDAT ?SetDrawingPoints@CPoints@@QAEXABVCPoint@@@Z
_TEXT	SEGMENT
_drawingPoint$ = 8					; size = 4
?SetDrawingPoints@CPoints@@QAEXABVCPoint@@@Z PROC	; CPoints::SetDrawingPoints, COMDAT
; _this$ = ecx

; 208  : {

  00000	55		 push	 ebp
  00001	8b ec		 mov	 ebp, esp

; 209  : 	m_drawingPoint = drawingPoint;

  00003	8b 45 08	 mov	 eax, DWORD PTR _drawingPoint$[ebp]
  00006	8b 10		 mov	 edx, DWORD PTR [eax]
  00008	8b 40 04	 mov	 eax, DWORD PTR [eax+4]
  0000b	89 51 20	 mov	 DWORD PTR [ecx+32], edx
  0000e	89 41 24	 mov	 DWORD PTR [ecx+36], eax

; 210  : }

  00011	5d		 pop	 ebp
  00012	c2 04 00	 ret	 4
?SetDrawingPoints@CPoints@@QAEXABVCPoint@@@Z ENDP	; CPoints::SetDrawingPoints
_TEXT	ENDS
; Function compile flags: /Ogtp
; File D:\git\src\IBK\IBK_DRFN\ProjSrc\SrcChartEx\ChartAddIn\ChartAnalysisToolAddIn\AnalysisTool\Coordinate.cpp
;	COMDAT ?SetPoints@CPoints@@QAEXABVCCoordinate@@ABVCPoint@@@Z
_TEXT	SEGMENT
__$EHRec$ = -12						; size = 12
$T2 = 8							; size = 4
_savingPoint$ = 8					; size = 4
_drawingPoint$ = 12					; size = 4
?SetPoints@CPoints@@QAEXABVCCoordinate@@ABVCPoint@@@Z PROC ; CPoints::SetPoints, COMDAT
; _this$ = ecx

; 202  : {

  00000	55		 push	 ebp
  00001	8b ec		 mov	 ebp, esp
  00003	6a ff		 push	 -1
  00005	68 00 00 00 00	 push	 __ehhandler$?SetPoints@CPoints@@QAEXABVCCoordinate@@ABVCPoint@@@Z
  0000a	64 a1 00 00 00
	00		 mov	 eax, DWORD PTR fs:0
  00010	50		 push	 eax
  00011	56		 push	 esi
  00012	57		 push	 edi
  00013	a1 00 00 00 00	 mov	 eax, DWORD PTR ___security_cookie
  00018	33 c5		 xor	 eax, ebp
  0001a	50		 push	 eax
  0001b	8d 45 f4	 lea	 eax, DWORD PTR __$EHRec$[ebp]
  0001e	64 a3 00 00 00
	00		 mov	 DWORD PTR fs:0, eax
  00024	8b f1		 mov	 esi, ecx

; 21   : 	if(this == &point)

  00026	8b 7d 08	 mov	 edi, DWORD PTR _savingPoint$[ebp]
  00029	3b f7		 cmp	 esi, edi
  0002b	74 48		 je	 SHORT $LN3@SetPoints

; 22   : 		return *this;
; 23   : 
; 24   : 	m_dX = point.GetX();

  0002d	f2 0f 10 07	 movsd	 xmm0, QWORD PTR [edi]

; 126  : 	return m_strType;

  00031	8d 4d 08	 lea	 ecx, DWORD PTR $T2[ebp]

; 24   : 	m_dX = point.GetX();

  00034	f2 0f 11 06	 movsd	 QWORD PTR [esi], xmm0

; 25   : 	m_dY = point.GetY();

  00038	f2 0f 10 47 08	 movsd	 xmm0, QWORD PTR [edi+8]
  0003d	f2 0f 11 46 08	 movsd	 QWORD PTR [esi+8], xmm0

; 26   : 	//m_nIndex = 0;
; 27   : 	m_nIndex = point.GetIndex();

  00042	8b 47 10	 mov	 eax, DWORD PTR [edi+16]
  00045	89 46 10	 mov	 DWORD PTR [esi+16], eax

; 126  : 	return m_strType;

  00048	8d 47 14	 lea	 eax, DWORD PTR [edi+20]
  0004b	50		 push	 eax
  0004c	ff 15 00 00 00
	00		 call	 DWORD PTR __imp_??0?$CStringT@DV?$StrTraitMFC_DLL@DV?$ChTraitsCRT@D@ATL@@@@@ATL@@QAE@ABV01@@Z

; 29   : 	m_strType = point.GetDateType();

  00052	8d 45 08	 lea	 eax, DWORD PTR $T2[ebp]
  00055	c7 45 fc 00 00
	00 00		 mov	 DWORD PTR __$EHRec$[ebp+8], 0
  0005c	50		 push	 eax
  0005d	8d 4e 14	 lea	 ecx, DWORD PTR [esi+20]
  00060	ff 15 00 00 00
	00		 call	 DWORD PTR __imp_??4?$CStringT@DV?$StrTraitMFC_DLL@DV?$ChTraitsCRT@D@ATL@@@@@ATL@@QAEAAV01@ABV01@@Z
  00066	8d 4d 08	 lea	 ecx, DWORD PTR $T2[ebp]
  00069	ff 15 00 00 00
	00		 call	 DWORD PTR __imp_??1?$CStringT@DV?$StrTraitMFC_DLL@DV?$ChTraitsCRT@D@ATL@@@@@ATL@@QAE@XZ

; 30   : 	// 20081007 JS.Kim	사용자시간대 선택. 
; 31   : 	m_nTimeDiff = point.GetTimeDiff();

  0006f	8b 47 18	 mov	 eax, DWORD PTR [edi+24]
  00072	89 46 18	 mov	 DWORD PTR [esi+24], eax
$LN3@SetPoints:

; 203  : 	m_savingPoint = savingPoint;
; 204  : 	m_drawingPoint = drawingPoint;

  00075	8b 45 0c	 mov	 eax, DWORD PTR _drawingPoint$[ebp]
  00078	8b 08		 mov	 ecx, DWORD PTR [eax]
  0007a	8b 40 04	 mov	 eax, DWORD PTR [eax+4]
  0007d	89 4e 20	 mov	 DWORD PTR [esi+32], ecx
  00080	89 46 24	 mov	 DWORD PTR [esi+36], eax

; 205  : }

  00083	8b 4d f4	 mov	 ecx, DWORD PTR __$EHRec$[ebp]
  00086	64 89 0d 00 00
	00 00		 mov	 DWORD PTR fs:0, ecx
  0008d	59		 pop	 ecx
  0008e	5f		 pop	 edi
  0008f	5e		 pop	 esi
  00090	8b e5		 mov	 esp, ebp
  00092	5d		 pop	 ebp
  00093	c2 08 00	 ret	 8
_TEXT	ENDS
;	COMDAT text$x
text$x	SEGMENT
__unwindfunclet$?SetPoints@CPoints@@QAEXABVCCoordinate@@ABVCPoint@@@Z$0:
  00000	8d 4d 08	 lea	 ecx, DWORD PTR $T2[ebp]
  00003	ff 25 00 00 00
	00		 jmp	 DWORD PTR __imp_??1?$CStringT@DV?$StrTraitMFC_DLL@DV?$ChTraitsCRT@D@ATL@@@@@ATL@@QAE@XZ
  00009	cc		 int	 3
  0000a	cc		 int	 3
  0000b	cc		 int	 3
  0000c	cc		 int	 3
  0000d	cc		 int	 3
__ehhandler$?SetPoints@CPoints@@QAEXABVCCoordinate@@ABVCPoint@@@Z:
  0000e	90		 npad	 1
  0000f	90		 npad	 1
  00010	8b 54 24 08	 mov	 edx, DWORD PTR [esp+8]
  00014	8d 42 0c	 lea	 eax, DWORD PTR [edx+12]
  00017	8b 4a f4	 mov	 ecx, DWORD PTR [edx-12]
  0001a	33 c8		 xor	 ecx, eax
  0001c	e8 00 00 00 00	 call	 @__security_check_cookie@4
  00021	b8 00 00 00 00	 mov	 eax, OFFSET __ehfuncinfo$?SetPoints@CPoints@@QAEXABVCCoordinate@@ABVCPoint@@@Z
  00026	e9 00 00 00 00	 jmp	 ___CxxFrameHandler3
text$x	ENDS
?SetPoints@CPoints@@QAEXABVCCoordinate@@ABVCPoint@@@Z ENDP ; CPoints::SetPoints
; Function compile flags: /Ogtp
; File D:\git\src\IBK\IBK_DRFN\ProjSrc\SrcChartEx\ChartAddIn\ChartAnalysisToolAddIn\AnalysisTool\Coordinate.cpp
;	COMDAT ??0CPoints@@QAE@ABVCCoordinate@@ABVCPoint@@@Z
_TEXT	SEGMENT
_this$ = -4						; size = 4
___$ReturnUdt$ = 8					; size = 4
_savingPoint$ = 8					; size = 4
_drawingPoint$ = 12					; size = 4
??0CPoints@@QAE@ABVCCoordinate@@ABVCPoint@@@Z PROC	; CPoints::CPoints, COMDAT
; _this$ = ecx

; 198  : {

  00000	55		 push	 ebp
  00001	8b ec		 mov	 ebp, esp
  00003	51		 push	 ecx
  00004	56		 push	 esi

; 92   : 	m_dX(point.GetX()),

  00005	8b 75 08	 mov	 esi, DWORD PTR _savingPoint$[ebp]

; 198  : {

  00008	57		 push	 edi
  00009	8b f9		 mov	 edi, ecx
  0000b	89 7d fc	 mov	 DWORD PTR _this$[ebp], edi

; 92   : 	m_dX(point.GetX()),

  0000e	f2 0f 10 06	 movsd	 xmm0, QWORD PTR [esi]
  00012	f2 0f 11 07	 movsd	 QWORD PTR [edi], xmm0

; 93   : 	m_dY(point.GetY()),
; 94   : 	m_nIndex(point.GetIndex()),
; 95   : 	// 분차트 근접시간 적용 - ojtaso (20080811)
; 96   : 	m_strType(point.GetDateType()),

  00016	8d 4f 14	 lea	 ecx, DWORD PTR [edi+20]
  00019	f2 0f 10 46 08	 movsd	 xmm0, QWORD PTR [esi+8]
  0001e	f2 0f 11 47 08	 movsd	 QWORD PTR [edi+8], xmm0
  00023	8b 46 10	 mov	 eax, DWORD PTR [esi+16]
  00026	89 47 10	 mov	 DWORD PTR [edi+16], eax

; 126  : 	return m_strType;

  00029	8d 46 14	 lea	 eax, DWORD PTR [esi+20]
  0002c	50		 push	 eax

; 96   : 	m_strType(point.GetDateType()),

  0002d	89 4d 08	 mov	 DWORD PTR ___$ReturnUdt$[ebp], ecx

; 126  : 	return m_strType;

  00030	ff 15 00 00 00
	00		 call	 DWORD PTR __imp_??0?$CStringT@DV?$StrTraitMFC_DLL@DV?$ChTraitsCRT@D@ATL@@@@@ATL@@QAE@ABV01@@Z

; 98   : 	m_nTimeDiff(point.GetTimeDiff())

  00036	8b 46 18	 mov	 eax, DWORD PTR [esi+24]
  00039	89 47 18	 mov	 DWORD PTR [edi+24], eax

; 127  : }
; 128  : 
; 129  : // 20081007 JS.Kim	사용자시간대 선택. 
; 130  : int CCoordinate::GetTimeDiff() const
; 131  : {
; 132  : 	return m_nTimeDiff;
; 133  : }
; 134  : 
; 135  : void CCoordinate::SetX(const double& x, const int nIndex)
; 136  : {
; 137  : 	m_dX = x;
; 138  : 	m_nIndex = nIndex;
; 139  : }
; 140  : 
; 141  : void CCoordinate::SetIndex(int nIndex)
; 142  : {
; 143  : 	m_nIndex = nIndex;
; 144  : }
; 145  : 
; 146  : void CCoordinate::SetY(const double& y)
; 147  : {
; 148  : 	m_dY = y;
; 149  : }
; 150  : 
; 151  : // 분차트 근접시간 적용 - ojtaso (20080811)
; 152  : void CCoordinate::SetDateType(CString& strType)
; 153  : {
; 154  : 	m_strType = strType;
; 155  : }
; 156  : 
; 157  : // 20081007 JS.Kim	사용자시간대 선택. 
; 158  : void CCoordinate::SetTimeDiff(int nTimeDiff)
; 159  : {
; 160  : 	m_nTimeDiff = nTimeDiff;
; 161  : }
; 162  : 
; 163  : ///////////////////////////////////////////////////////////////////////////////
; 164  : // class CPoints
; 165  : 
; 166  : CPoints& CPoints::operator=(const CPoints& points)
; 167  : {
; 168  : 	if(this == &points)
; 169  : 		return *this;
; 170  : 
; 171  : 	m_savingPoint = points.GetSavingPoint();
; 172  : 	m_drawingPoint = points.GetDrawingPoint();
; 173  : 	return *this;
; 174  : }
; 175  : 
; 176  : bool CPoints::operator==(const CPoints& points)
; 177  : {
; 178  : 	if(this == &points)
; 179  : 		return true;
; 180  : 
; 181  : 	return (m_savingPoint == points.GetSavingPoint() && m_drawingPoint == points.GetDrawingPoint());
; 182  : }
; 183  : 
; 184  : bool CPoints::operator!=(const CPoints& points)
; 185  : {
; 186  : 	return !(*this == points);
; 187  : }
; 188  : 
; 189  : // ----------------------------------------------------------------------------
; 190  : CPoints::CPoints():
; 191  : 	m_drawingPoint(0, 0)
; 192  : {
; 193  : }
; 194  : 
; 195  : CPoints::CPoints(const CCoordinate& savingPoint, const CPoint& drawingPoint):
; 196  : 	m_savingPoint(savingPoint),
; 197  : 	m_drawingPoint(drawingPoint)

  0003c	8b 45 0c	 mov	 eax, DWORD PTR _drawingPoint$[ebp]
  0003f	8b 08		 mov	 ecx, DWORD PTR [eax]
  00041	8b 40 04	 mov	 eax, DWORD PTR [eax+4]
  00044	89 47 24	 mov	 DWORD PTR [edi+36], eax

; 199  : }

  00047	8b c7		 mov	 eax, edi
  00049	89 4f 20	 mov	 DWORD PTR [edi+32], ecx
  0004c	5f		 pop	 edi
  0004d	5e		 pop	 esi
  0004e	8b e5		 mov	 esp, ebp
  00050	5d		 pop	 ebp
  00051	c2 08 00	 ret	 8
??0CPoints@@QAE@ABVCCoordinate@@ABVCPoint@@@Z ENDP	; CPoints::CPoints
_TEXT	ENDS
; Function compile flags: /Ogtp
; File D:\git\src\IBK\IBK_DRFN\ProjSrc\SrcChartEx\ChartAddIn\ChartAnalysisToolAddIn\AnalysisTool\Coordinate.cpp
; File C:\Program Files (x86)\Microsoft Visual Studio\2019\Community\VC\Tools\MSVC\14.29.30133\atlmfc\include\atltypes.h
; File D:\git\src\IBK\IBK_DRFN\ProjSrc\SrcChartEx\ChartAddIn\ChartAnalysisToolAddIn\AnalysisTool\Coordinate.cpp
; File C:\Program Files (x86)\Microsoft Visual Studio\2019\Community\VC\Tools\MSVC\14.29.30133\atlmfc\include\atltypes.h
; File D:\git\src\IBK\IBK_DRFN\ProjSrc\SrcChartEx\ChartAddIn\ChartAnalysisToolAddIn\AnalysisTool\Coordinate.cpp
;	COMDAT ??0CPoints@@QAE@XZ
_TEXT	SEGMENT
_this$ = -4						; size = 4
??0CPoints@@QAE@XZ PROC					; CPoints::CPoints, COMDAT
; _this$ = ecx

; 192  : {

  00000	55		 push	 ebp
  00001	8b ec		 mov	 ebp, esp
  00003	51		 push	 ecx
  00004	56		 push	 esi
  00005	57		 push	 edi
  00006	8b f9		 mov	 edi, ecx
  00008	0f 57 c0	 xorps	 xmm0, xmm0
  0000b	89 7d fc	 mov	 DWORD PTR _this$[ebp], edi

; 55   : {

  0000e	8d 4f 14	 lea	 ecx, DWORD PTR [edi+20]
  00011	c7 47 10 00 00
	00 00		 mov	 DWORD PTR [edi+16], 0
  00018	0f 11 07	 movups	 XMMWORD PTR [edi], xmm0
  0001b	ff 15 00 00 00
	00		 call	 DWORD PTR __imp_??0?$CStringT@DV?$StrTraitMFC_DLL@DV?$ChTraitsCRT@D@ATL@@@@@ATL@@QAE@XZ

; 56   : 	// 분차트 근접시간 적용 - ojtaso (20080811)
; 57   : 	m_strType.Empty();

  00021	8d 4f 14	 lea	 ecx, DWORD PTR [edi+20]
  00024	c7 47 18 00 00
	00 00		 mov	 DWORD PTR [edi+24], 0
  0002b	ff 15 00 00 00
	00		 call	 DWORD PTR __imp_?Empty@?$CSimpleStringT@D$00@ATL@@QAEXXZ
; File C:\Program Files (x86)\Microsoft Visual Studio\2019\Community\VC\Tools\MSVC\14.29.30133\atlmfc\include\atltypes.h

; 408  : 	x = initX;

  00031	c7 47 20 00 00
	00 00		 mov	 DWORD PTR [edi+32], 0
; File D:\git\src\IBK\IBK_DRFN\ProjSrc\SrcChartEx\ChartAddIn\ChartAnalysisToolAddIn\AnalysisTool\Coordinate.cpp

; 193  : }

  00038	8b c7		 mov	 eax, edi
; File C:\Program Files (x86)\Microsoft Visual Studio\2019\Community\VC\Tools\MSVC\14.29.30133\atlmfc\include\atltypes.h

; 409  : 	y = initY;

  0003a	c7 47 24 00 00
	00 00		 mov	 DWORD PTR [edi+36], 0
; File D:\git\src\IBK\IBK_DRFN\ProjSrc\SrcChartEx\ChartAddIn\ChartAnalysisToolAddIn\AnalysisTool\Coordinate.cpp

; 193  : }

  00041	5f		 pop	 edi
  00042	5e		 pop	 esi
  00043	8b e5		 mov	 esp, ebp
  00045	5d		 pop	 ebp
  00046	c3		 ret	 0
??0CPoints@@QAE@XZ ENDP					; CPoints::CPoints
_TEXT	ENDS
; Function compile flags: /Ogtp
; File D:\git\src\IBK\IBK_DRFN\ProjSrc\SrcChartEx\ChartAddIn\ChartAnalysisToolAddIn\AnalysisTool\Coordinate.cpp
; File C:\Program Files (x86)\Microsoft Visual Studio\2019\Community\VC\Tools\MSVC\14.29.30133\atlmfc\include\atltypes.h
; File D:\git\src\IBK\IBK_DRFN\ProjSrc\SrcChartEx\ChartAddIn\ChartAnalysisToolAddIn\AnalysisTool\Coordinate.cpp
;	COMDAT ??9CPoints@@QAE_NABV0@@Z
_TEXT	SEGMENT
$T1 = -32						; size = 32
_points$ = 8						; size = 4
??9CPoints@@QAE_NABV0@@Z PROC				; CPoints::operator!=, COMDAT
; _this$ = ecx

; 185  : {

  00000	55		 push	 ebp
  00001	8b ec		 mov	 ebp, esp
  00003	83 ec 20	 sub	 esp, 32			; 00000020H
  00006	56		 push	 esi
  00007	57		 push	 edi

; 178  : 	if(this == &points)

  00008	8b 7d 08	 mov	 edi, DWORD PTR _points$[ebp]

; 185  : {

  0000b	8b f1		 mov	 esi, ecx

; 178  : 	if(this == &points)

  0000d	3b f7		 cmp	 esi, edi
  0000f	75 0a		 jne	 SHORT $LN4@operator
  00011	5f		 pop	 edi

; 179  : 		return true;

  00012	32 c0		 xor	 al, al

; 187  : }

  00014	5e		 pop	 esi
  00015	8b e5		 mov	 esp, ebp
  00017	5d		 pop	 ebp
  00018	c2 04 00	 ret	 4
$LN4@operator:

; 94   : 	m_nIndex(point.GetIndex()),

  0001b	8b 47 10	 mov	 eax, DWORD PTR [edi+16]

; 126  : 	return m_strType;

  0001e	8d 4d f4	 lea	 ecx, DWORD PTR $T1[ebp+20]

; 92   : 	m_dX(point.GetX()),

  00021	0f 10 07	 movups	 xmm0, XMMWORD PTR [edi]

; 93   : 	m_dY(point.GetY()),
; 94   : 	m_nIndex(point.GetIndex()),

  00024	89 45 f0	 mov	 DWORD PTR $T1[ebp+16], eax

; 126  : 	return m_strType;

  00027	8d 47 14	 lea	 eax, DWORD PTR [edi+20]
  0002a	53		 push	 ebx
  0002b	50		 push	 eax

; 92   : 	m_dX(point.GetX()),

  0002c	0f 11 45 e0	 movups	 XMMWORD PTR $T1[ebp], xmm0

; 126  : 	return m_strType;

  00030	ff 15 00 00 00
	00		 call	 DWORD PTR __imp_??0?$CStringT@DV?$StrTraitMFC_DLL@DV?$ChTraitsCRT@D@ATL@@@@@ATL@@QAE@ABV01@@Z

; 98   : 	m_nTimeDiff(point.GetTimeDiff())

  00036	8b 4f 18	 mov	 ecx, DWORD PTR [edi+24]

; 37   : 	if(this == &point)

  00039	8d 45 e0	 lea	 eax, DWORD PTR $T1[ebp]

; 98   : 	m_nTimeDiff(point.GetTimeDiff())

  0003c	89 4d f8	 mov	 DWORD PTR $T1[ebp+24], ecx

; 37   : 	if(this == &point)

  0003f	3b f0		 cmp	 esi, eax
  00041	74 2c		 je	 SHORT $LN40@operator

; 38   : 		return true;
; 39   : 
; 40   : 	return (m_dX == point.GetX() && m_dY == point.GetY() && m_nIndex == point.GetIndex() && m_nTimeDiff == point.GetTimeDiff());

  00043	f2 0f 10 06	 movsd	 xmm0, QWORD PTR [esi]
  00047	66 0f 2e 45 e0	 ucomisd xmm0, QWORD PTR $T1[ebp]
  0004c	9f		 lahf
  0004d	f6 c4 44	 test	 ah, 68			; 00000044H
  00050	7a 43		 jp	 SHORT $LN6@operator
  00052	f2 0f 10 46 08	 movsd	 xmm0, QWORD PTR [esi+8]
  00057	66 0f 2e 45 e8	 ucomisd xmm0, QWORD PTR $T1[ebp+8]
  0005c	9f		 lahf
  0005d	f6 c4 44	 test	 ah, 68			; 00000044H
  00060	7a 33		 jp	 SHORT $LN6@operator
  00062	8b 46 10	 mov	 eax, DWORD PTR [esi+16]
  00065	3b 45 f0	 cmp	 eax, DWORD PTR $T1[ebp+16]
  00068	75 2b		 jne	 SHORT $LN6@operator
  0006a	39 4e 18	 cmp	 DWORD PTR [esi+24], ecx
  0006d	75 26		 jne	 SHORT $LN6@operator
$LN40@operator:

; 181  : 	return (m_savingPoint == points.GetSavingPoint() && m_drawingPoint == points.GetDrawingPoint());

  0006f	8b 47 20	 mov	 eax, DWORD PTR [edi+32]
  00072	8b 4f 24	 mov	 ecx, DWORD PTR [edi+36]
; File C:\Program Files (x86)\Microsoft Visual Studio\2019\Community\VC\Tools\MSVC\14.29.30133\atlmfc\include\atltypes.h

; 458  : 	return (x == point.x && y == point.y);

  00075	39 46 20	 cmp	 DWORD PTR [esi+32], eax
  00078	75 1b		 jne	 SHORT $LN6@operator
  0007a	39 4e 24	 cmp	 DWORD PTR [esi+36], ecx
  0007d	75 16		 jne	 SHORT $LN6@operator
  0007f	8d 4d f4	 lea	 ecx, DWORD PTR $T1[ebp+20]
; File D:\git\src\IBK\IBK_DRFN\ProjSrc\SrcChartEx\ChartAddIn\ChartAnalysisToolAddIn\AnalysisTool\Coordinate.cpp

; 181  : 	return (m_savingPoint == points.GetSavingPoint() && m_drawingPoint == points.GetDrawingPoint());

  00082	32 db		 xor	 bl, bl
  00084	ff 15 00 00 00
	00		 call	 DWORD PTR __imp_??1?$CStringT@DV?$StrTraitMFC_DLL@DV?$ChTraitsCRT@D@ATL@@@@@ATL@@QAE@XZ

; 186  : 	return !(*this == points);

  0008a	8a c3		 mov	 al, bl
  0008c	5b		 pop	 ebx
  0008d	5f		 pop	 edi

; 187  : }

  0008e	5e		 pop	 esi
  0008f	8b e5		 mov	 esp, ebp
  00091	5d		 pop	 ebp
  00092	c2 04 00	 ret	 4
$LN6@operator:
  00095	8d 4d f4	 lea	 ecx, DWORD PTR $T1[ebp+20]

; 181  : 	return (m_savingPoint == points.GetSavingPoint() && m_drawingPoint == points.GetDrawingPoint());

  00098	b3 01		 mov	 bl, 1
  0009a	ff 15 00 00 00
	00		 call	 DWORD PTR __imp_??1?$CStringT@DV?$StrTraitMFC_DLL@DV?$ChTraitsCRT@D@ATL@@@@@ATL@@QAE@XZ

; 186  : 	return !(*this == points);

  000a0	8a c3		 mov	 al, bl
  000a2	5b		 pop	 ebx
  000a3	5f		 pop	 edi

; 187  : }

  000a4	5e		 pop	 esi
  000a5	8b e5		 mov	 esp, ebp
  000a7	5d		 pop	 ebp
  000a8	c2 04 00	 ret	 4
??9CPoints@@QAE_NABV0@@Z ENDP				; CPoints::operator!=
_TEXT	ENDS
; Function compile flags: /Ogtp
; File D:\git\src\IBK\IBK_DRFN\ProjSrc\SrcChartEx\ChartAddIn\ChartAnalysisToolAddIn\AnalysisTool\Coordinate.cpp
; File C:\Program Files (x86)\Microsoft Visual Studio\2019\Community\VC\Tools\MSVC\14.29.30133\atlmfc\include\atltypes.h
; File D:\git\src\IBK\IBK_DRFN\ProjSrc\SrcChartEx\ChartAddIn\ChartAnalysisToolAddIn\AnalysisTool\Coordinate.cpp
;	COMDAT ??8CPoints@@QAE_NABV0@@Z
_TEXT	SEGMENT
$T1 = -32						; size = 32
_points$ = 8						; size = 4
??8CPoints@@QAE_NABV0@@Z PROC				; CPoints::operator==, COMDAT
; _this$ = ecx

; 177  : {

  00000	55		 push	 ebp
  00001	8b ec		 mov	 ebp, esp
  00003	83 ec 20	 sub	 esp, 32			; 00000020H
  00006	56		 push	 esi
  00007	57		 push	 edi

; 178  : 	if(this == &points)

  00008	8b 7d 08	 mov	 edi, DWORD PTR _points$[ebp]
  0000b	8b f1		 mov	 esi, ecx
  0000d	3b f7		 cmp	 esi, edi
  0000f	75 0a		 jne	 SHORT $LN2@operator

; 179  : 		return true;

  00011	5f		 pop	 edi
  00012	b0 01		 mov	 al, 1

; 182  : }

  00014	5e		 pop	 esi
  00015	8b e5		 mov	 esp, ebp
  00017	5d		 pop	 ebp
  00018	c2 04 00	 ret	 4
$LN2@operator:

; 94   : 	m_nIndex(point.GetIndex()),

  0001b	8b 47 10	 mov	 eax, DWORD PTR [edi+16]

; 126  : 	return m_strType;

  0001e	8d 4d f4	 lea	 ecx, DWORD PTR $T1[ebp+20]

; 92   : 	m_dX(point.GetX()),

  00021	0f 10 07	 movups	 xmm0, XMMWORD PTR [edi]

; 93   : 	m_dY(point.GetY()),
; 94   : 	m_nIndex(point.GetIndex()),

  00024	89 45 f0	 mov	 DWORD PTR $T1[ebp+16], eax

; 126  : 	return m_strType;

  00027	8d 47 14	 lea	 eax, DWORD PTR [edi+20]
  0002a	53		 push	 ebx
  0002b	50		 push	 eax

; 92   : 	m_dX(point.GetX()),

  0002c	0f 11 45 e0	 movups	 XMMWORD PTR $T1[ebp], xmm0

; 126  : 	return m_strType;

  00030	ff 15 00 00 00
	00		 call	 DWORD PTR __imp_??0?$CStringT@DV?$StrTraitMFC_DLL@DV?$ChTraitsCRT@D@ATL@@@@@ATL@@QAE@ABV01@@Z

; 98   : 	m_nTimeDiff(point.GetTimeDiff())

  00036	8b 4f 18	 mov	 ecx, DWORD PTR [edi+24]

; 37   : 	if(this == &point)

  00039	8d 45 e0	 lea	 eax, DWORD PTR $T1[ebp]

; 98   : 	m_nTimeDiff(point.GetTimeDiff())

  0003c	89 4d f8	 mov	 DWORD PTR $T1[ebp+24], ecx

; 37   : 	if(this == &point)

  0003f	3b f0		 cmp	 esi, eax
  00041	74 2c		 je	 SHORT $LN38@operator

; 38   : 		return true;
; 39   : 
; 40   : 	return (m_dX == point.GetX() && m_dY == point.GetY() && m_nIndex == point.GetIndex() && m_nTimeDiff == point.GetTimeDiff());

  00043	f2 0f 10 06	 movsd	 xmm0, QWORD PTR [esi]
  00047	66 0f 2e 45 e0	 ucomisd xmm0, QWORD PTR $T1[ebp]
  0004c	9f		 lahf
  0004d	f6 c4 44	 test	 ah, 68			; 00000044H
  00050	7a 43		 jp	 SHORT $LN4@operator
  00052	f2 0f 10 46 08	 movsd	 xmm0, QWORD PTR [esi+8]
  00057	66 0f 2e 45 e8	 ucomisd xmm0, QWORD PTR $T1[ebp+8]
  0005c	9f		 lahf
  0005d	f6 c4 44	 test	 ah, 68			; 00000044H
  00060	7a 33		 jp	 SHORT $LN4@operator
  00062	8b 46 10	 mov	 eax, DWORD PTR [esi+16]
  00065	3b 45 f0	 cmp	 eax, DWORD PTR $T1[ebp+16]
  00068	75 2b		 jne	 SHORT $LN4@operator
  0006a	39 4e 18	 cmp	 DWORD PTR [esi+24], ecx
  0006d	75 26		 jne	 SHORT $LN4@operator
$LN38@operator:

; 181  : 	return (m_savingPoint == points.GetSavingPoint() && m_drawingPoint == points.GetDrawingPoint());

  0006f	8b 47 20	 mov	 eax, DWORD PTR [edi+32]
  00072	8b 4f 24	 mov	 ecx, DWORD PTR [edi+36]
; File C:\Program Files (x86)\Microsoft Visual Studio\2019\Community\VC\Tools\MSVC\14.29.30133\atlmfc\include\atltypes.h

; 458  : 	return (x == point.x && y == point.y);

  00075	39 46 20	 cmp	 DWORD PTR [esi+32], eax
  00078	75 1b		 jne	 SHORT $LN4@operator
  0007a	39 4e 24	 cmp	 DWORD PTR [esi+36], ecx
  0007d	75 16		 jne	 SHORT $LN4@operator
; File D:\git\src\IBK\IBK_DRFN\ProjSrc\SrcChartEx\ChartAddIn\ChartAnalysisToolAddIn\AnalysisTool\Coordinate.cpp

; 181  : 	return (m_savingPoint == points.GetSavingPoint() && m_drawingPoint == points.GetDrawingPoint());

  0007f	8d 4d f4	 lea	 ecx, DWORD PTR $T1[ebp+20]
  00082	b3 01		 mov	 bl, 1
  00084	ff 15 00 00 00
	00		 call	 DWORD PTR __imp_??1?$CStringT@DV?$StrTraitMFC_DLL@DV?$ChTraitsCRT@D@ATL@@@@@ATL@@QAE@XZ
  0008a	8a c3		 mov	 al, bl
  0008c	5b		 pop	 ebx
  0008d	5f		 pop	 edi

; 182  : }

  0008e	5e		 pop	 esi
  0008f	8b e5		 mov	 esp, ebp
  00091	5d		 pop	 ebp
  00092	c2 04 00	 ret	 4
$LN4@operator:
  00095	8d 4d f4	 lea	 ecx, DWORD PTR $T1[ebp+20]

; 181  : 	return (m_savingPoint == points.GetSavingPoint() && m_drawingPoint == points.GetDrawingPoint());

  00098	32 db		 xor	 bl, bl
  0009a	ff 15 00 00 00
	00		 call	 DWORD PTR __imp_??1?$CStringT@DV?$StrTraitMFC_DLL@DV?$ChTraitsCRT@D@ATL@@@@@ATL@@QAE@XZ
  000a0	8a c3		 mov	 al, bl
  000a2	5b		 pop	 ebx
  000a3	5f		 pop	 edi

; 182  : }

  000a4	5e		 pop	 esi
  000a5	8b e5		 mov	 esp, ebp
  000a7	5d		 pop	 ebp
  000a8	c2 04 00	 ret	 4
??8CPoints@@QAE_NABV0@@Z ENDP				; CPoints::operator==
_TEXT	ENDS
; Function compile flags: /Ogtp
; File D:\git\src\IBK\IBK_DRFN\ProjSrc\SrcChartEx\ChartAddIn\ChartAnalysisToolAddIn\AnalysisTool\Coordinate.cpp
;	COMDAT ??4CPoints@@QAEAAV0@ABV0@@Z
_TEXT	SEGMENT
$T2 = -48						; size = 32
__$EHRec$ = -12						; size = 12
$T3 = 8							; size = 4
_points$ = 8						; size = 4
??4CPoints@@QAEAAV0@ABV0@@Z PROC			; CPoints::operator=, COMDAT
; _this$ = ecx

; 167  : {

  00000	55		 push	 ebp
  00001	8b ec		 mov	 ebp, esp
  00003	6a ff		 push	 -1
  00005	68 00 00 00 00	 push	 __ehhandler$??4CPoints@@QAEAAV0@ABV0@@Z
  0000a	64 a1 00 00 00
	00		 mov	 eax, DWORD PTR fs:0
  00010	50		 push	 eax
  00011	83 ec 24	 sub	 esp, 36			; 00000024H
  00014	56		 push	 esi
  00015	57		 push	 edi
  00016	a1 00 00 00 00	 mov	 eax, DWORD PTR ___security_cookie
  0001b	33 c5		 xor	 eax, ebp
  0001d	50		 push	 eax
  0001e	8d 45 f4	 lea	 eax, DWORD PTR __$EHRec$[ebp]
  00021	64 a3 00 00 00
	00		 mov	 DWORD PTR fs:0, eax
  00027	8b f1		 mov	 esi, ecx

; 168  : 	if(this == &points)

  00029	8b 7d 08	 mov	 edi, DWORD PTR _points$[ebp]
  0002c	3b f7		 cmp	 esi, edi
  0002e	74 7d		 je	 SHORT $LN34@operator

; 94   : 	m_nIndex(point.GetIndex()),

  00030	8b 47 10	 mov	 eax, DWORD PTR [edi+16]

; 126  : 	return m_strType;

  00033	8d 4d e4	 lea	 ecx, DWORD PTR $T2[ebp+20]

; 92   : 	m_dX(point.GetX()),

  00036	0f 10 07	 movups	 xmm0, XMMWORD PTR [edi]

; 93   : 	m_dY(point.GetY()),
; 94   : 	m_nIndex(point.GetIndex()),

  00039	89 45 e0	 mov	 DWORD PTR $T2[ebp+16], eax

; 126  : 	return m_strType;

  0003c	8d 47 14	 lea	 eax, DWORD PTR [edi+20]
  0003f	50		 push	 eax

; 92   : 	m_dX(point.GetX()),

  00040	0f 11 45 d0	 movups	 XMMWORD PTR $T2[ebp], xmm0

; 126  : 	return m_strType;

  00044	ff 15 00 00 00
	00		 call	 DWORD PTR __imp_??0?$CStringT@DV?$StrTraitMFC_DLL@DV?$ChTraitsCRT@D@ATL@@@@@ATL@@QAE@ABV01@@Z

; 98   : 	m_nTimeDiff(point.GetTimeDiff())

  0004a	8b 47 18	 mov	 eax, DWORD PTR [edi+24]
  0004d	89 45 e8	 mov	 DWORD PTR $T2[ebp+24], eax

; 21   : 	if(this == &point)

  00050	8d 45 d0	 lea	 eax, DWORD PTR $T2[ebp]

; 169  : 		return *this;
; 170  : 
; 171  : 	m_savingPoint = points.GetSavingPoint();

  00053	c7 45 fc 00 00
	00 00		 mov	 DWORD PTR __$EHRec$[ebp+8], 0

; 21   : 	if(this == &point)

  0005a	3b f0		 cmp	 esi, eax
  0005c	74 3a		 je	 SHORT $LN18@operator

; 25   : 	m_dY = point.GetY();
; 26   : 	//m_nIndex = 0;
; 27   : 	m_nIndex = point.GetIndex();

  0005e	8b 45 e0	 mov	 eax, DWORD PTR $T2[ebp+16]

; 126  : 	return m_strType;

  00061	8d 4d 08	 lea	 ecx, DWORD PTR $T3[ebp]

; 24   : 	m_dX = point.GetX();

  00064	0f 10 45 d0	 movups	 xmm0, XMMWORD PTR $T2[ebp]

; 25   : 	m_dY = point.GetY();
; 26   : 	//m_nIndex = 0;
; 27   : 	m_nIndex = point.GetIndex();

  00068	89 46 10	 mov	 DWORD PTR [esi+16], eax

; 126  : 	return m_strType;

  0006b	8d 45 e4	 lea	 eax, DWORD PTR $T2[ebp+20]
  0006e	50		 push	 eax

; 24   : 	m_dX = point.GetX();

  0006f	0f 11 06	 movups	 XMMWORD PTR [esi], xmm0

; 126  : 	return m_strType;

  00072	ff 15 00 00 00
	00		 call	 DWORD PTR __imp_??0?$CStringT@DV?$StrTraitMFC_DLL@DV?$ChTraitsCRT@D@ATL@@@@@ATL@@QAE@ABV01@@Z

; 29   : 	m_strType = point.GetDateType();

  00078	8d 45 08	 lea	 eax, DWORD PTR $T3[ebp]
  0007b	c6 45 fc 01	 mov	 BYTE PTR __$EHRec$[ebp+8], 1
  0007f	50		 push	 eax
  00080	8d 4e 14	 lea	 ecx, DWORD PTR [esi+20]
  00083	ff 15 00 00 00
	00		 call	 DWORD PTR __imp_??4?$CStringT@DV?$StrTraitMFC_DLL@DV?$ChTraitsCRT@D@ATL@@@@@ATL@@QAEAAV01@ABV01@@Z
  00089	8d 4d 08	 lea	 ecx, DWORD PTR $T3[ebp]
  0008c	ff 15 00 00 00
	00		 call	 DWORD PTR __imp_??1?$CStringT@DV?$StrTraitMFC_DLL@DV?$ChTraitsCRT@D@ATL@@@@@ATL@@QAE@XZ

; 30   : 	// 20081007 JS.Kim	사용자시간대 선택. 
; 31   : 	m_nTimeDiff = point.GetTimeDiff();

  00092	8b 45 e8	 mov	 eax, DWORD PTR $T2[ebp+24]
  00095	89 46 18	 mov	 DWORD PTR [esi+24], eax
$LN18@operator:
  00098	8d 4d e4	 lea	 ecx, DWORD PTR $T2[ebp+20]
  0009b	ff 15 00 00 00
	00		 call	 DWORD PTR __imp_??1?$CStringT@DV?$StrTraitMFC_DLL@DV?$ChTraitsCRT@D@ATL@@@@@ATL@@QAE@XZ

; 172  : 	m_drawingPoint = points.GetDrawingPoint();

  000a1	8b 47 20	 mov	 eax, DWORD PTR [edi+32]
  000a4	8b 4f 24	 mov	 ecx, DWORD PTR [edi+36]
  000a7	89 46 20	 mov	 DWORD PTR [esi+32], eax
  000aa	89 4e 24	 mov	 DWORD PTR [esi+36], ecx
$LN34@operator:

; 173  : 	return *this;
; 174  : }

  000ad	8b c6		 mov	 eax, esi
  000af	8b 4d f4	 mov	 ecx, DWORD PTR __$EHRec$[ebp]
  000b2	64 89 0d 00 00
	00 00		 mov	 DWORD PTR fs:0, ecx
  000b9	59		 pop	 ecx
  000ba	5f		 pop	 edi
  000bb	5e		 pop	 esi
  000bc	8b e5		 mov	 esp, ebp
  000be	5d		 pop	 ebp
  000bf	c2 04 00	 ret	 4
_TEXT	ENDS
;	COMDAT text$x
text$x	SEGMENT
__unwindfunclet$??4CPoints@@QAEAAV0@ABV0@@Z$0:
  00000	8d 4d d0	 lea	 ecx, DWORD PTR $T2[ebp]
  00003	e9 00 00 00 00	 jmp	 ??1CCoordinate@@QAE@XZ
__unwindfunclet$??4CPoints@@QAEAAV0@ABV0@@Z$4:
  00008	8d 4d 08	 lea	 ecx, DWORD PTR $T3[ebp]
  0000b	ff 25 00 00 00
	00		 jmp	 DWORD PTR __imp_??1?$CStringT@DV?$StrTraitMFC_DLL@DV?$ChTraitsCRT@D@ATL@@@@@ATL@@QAE@XZ
  00011	cc		 int	 3
  00012	cc		 int	 3
  00013	cc		 int	 3
  00014	cc		 int	 3
  00015	cc		 int	 3
__ehhandler$??4CPoints@@QAEAAV0@ABV0@@Z:
  00016	90		 npad	 1
  00017	90		 npad	 1
  00018	8b 54 24 08	 mov	 edx, DWORD PTR [esp+8]
  0001c	8d 42 0c	 lea	 eax, DWORD PTR [edx+12]
  0001f	8b 4a d0	 mov	 ecx, DWORD PTR [edx-48]
  00022	33 c8		 xor	 ecx, eax
  00024	e8 00 00 00 00	 call	 @__security_check_cookie@4
  00029	b8 00 00 00 00	 mov	 eax, OFFSET __ehfuncinfo$??4CPoints@@QAEAAV0@ABV0@@Z
  0002e	e9 00 00 00 00	 jmp	 ___CxxFrameHandler3
text$x	ENDS
??4CPoints@@QAEAAV0@ABV0@@Z ENDP			; CPoints::operator=
; Function compile flags: /Ogtp
;	COMDAT ??1CCoordinate@@QAE@XZ
_TEXT	SEGMENT
??1CCoordinate@@QAE@XZ PROC				; CCoordinate::~CCoordinate, COMDAT
; _this$ = ecx
  00000	83 c1 14	 add	 ecx, 20			; 00000014H
  00003	ff 25 00 00 00
	00		 jmp	 DWORD PTR __imp_??1?$CStringT@DV?$StrTraitMFC_DLL@DV?$ChTraitsCRT@D@ATL@@@@@ATL@@QAE@XZ
??1CCoordinate@@QAE@XZ ENDP				; CCoordinate::~CCoordinate
_TEXT	ENDS
; Function compile flags: /Ogtp
; File D:\git\src\IBK\IBK_DRFN\ProjSrc\SrcChartEx\ChartAddIn\ChartAnalysisToolAddIn\AnalysisTool\Coordinate.cpp
;	COMDAT ?SetTimeDiff@CCoordinate@@QAEXH@Z
_TEXT	SEGMENT
_nTimeDiff$ = 8						; size = 4
?SetTimeDiff@CCoordinate@@QAEXH@Z PROC			; CCoordinate::SetTimeDiff, COMDAT
; _this$ = ecx

; 159  : {

  00000	55		 push	 ebp
  00001	8b ec		 mov	 ebp, esp

; 160  : 	m_nTimeDiff = nTimeDiff;

  00003	8b 45 08	 mov	 eax, DWORD PTR _nTimeDiff$[ebp]
  00006	89 41 18	 mov	 DWORD PTR [ecx+24], eax

; 161  : }

  00009	5d		 pop	 ebp
  0000a	c2 04 00	 ret	 4
?SetTimeDiff@CCoordinate@@QAEXH@Z ENDP			; CCoordinate::SetTimeDiff
_TEXT	ENDS
; Function compile flags: /Ogtp
; File D:\git\src\IBK\IBK_DRFN\ProjSrc\SrcChartEx\ChartAddIn\ChartAnalysisToolAddIn\AnalysisTool\Coordinate.cpp
;	COMDAT ?SetDateType@CCoordinate@@QAEXAAV?$CStringT@DV?$StrTraitMFC_DLL@DV?$ChTraitsCRT@D@ATL@@@@@ATL@@@Z
_TEXT	SEGMENT
_strType$ = 8						; size = 4
?SetDateType@CCoordinate@@QAEXAAV?$CStringT@DV?$StrTraitMFC_DLL@DV?$ChTraitsCRT@D@ATL@@@@@ATL@@@Z PROC ; CCoordinate::SetDateType, COMDAT
; _this$ = ecx

; 153  : {

  00000	55		 push	 ebp
  00001	8b ec		 mov	 ebp, esp

; 154  : 	m_strType = strType;

  00003	83 c1 14	 add	 ecx, 20			; 00000014H

; 155  : }

  00006	5d		 pop	 ebp

; 154  : 	m_strType = strType;

  00007	ff 25 00 00 00
	00		 jmp	 DWORD PTR __imp_??4?$CStringT@DV?$StrTraitMFC_DLL@DV?$ChTraitsCRT@D@ATL@@@@@ATL@@QAEAAV01@ABV01@@Z
?SetDateType@CCoordinate@@QAEXAAV?$CStringT@DV?$StrTraitMFC_DLL@DV?$ChTraitsCRT@D@ATL@@@@@ATL@@@Z ENDP ; CCoordinate::SetDateType
_TEXT	ENDS
; Function compile flags: /Ogtp
; File D:\git\src\IBK\IBK_DRFN\ProjSrc\SrcChartEx\ChartAddIn\ChartAnalysisToolAddIn\AnalysisTool\Coordinate.cpp
;	COMDAT ?SetY@CCoordinate@@QAEXABN@Z
_TEXT	SEGMENT
_y$ = 8							; size = 4
?SetY@CCoordinate@@QAEXABN@Z PROC			; CCoordinate::SetY, COMDAT
; _this$ = ecx

; 147  : {

  00000	55		 push	 ebp
  00001	8b ec		 mov	 ebp, esp

; 148  : 	m_dY = y;

  00003	8b 45 08	 mov	 eax, DWORD PTR _y$[ebp]
  00006	f2 0f 10 00	 movsd	 xmm0, QWORD PTR [eax]
  0000a	f2 0f 11 41 08	 movsd	 QWORD PTR [ecx+8], xmm0

; 149  : }

  0000f	5d		 pop	 ebp
  00010	c2 04 00	 ret	 4
?SetY@CCoordinate@@QAEXABN@Z ENDP			; CCoordinate::SetY
_TEXT	ENDS
; Function compile flags: /Ogtp
; File D:\git\src\IBK\IBK_DRFN\ProjSrc\SrcChartEx\ChartAddIn\ChartAnalysisToolAddIn\AnalysisTool\Coordinate.cpp
;	COMDAT ?SetX@CCoordinate@@QAEXABNH@Z
_TEXT	SEGMENT
_x$ = 8							; size = 4
_nIndex$ = 12						; size = 4
?SetX@CCoordinate@@QAEXABNH@Z PROC			; CCoordinate::SetX, COMDAT
; _this$ = ecx

; 136  : {

  00000	55		 push	 ebp
  00001	8b ec		 mov	 ebp, esp

; 137  : 	m_dX = x;

  00003	8b 45 08	 mov	 eax, DWORD PTR _x$[ebp]
  00006	f2 0f 10 00	 movsd	 xmm0, QWORD PTR [eax]

; 138  : 	m_nIndex = nIndex;

  0000a	8b 45 0c	 mov	 eax, DWORD PTR _nIndex$[ebp]
  0000d	f2 0f 11 01	 movsd	 QWORD PTR [ecx], xmm0
  00011	89 41 10	 mov	 DWORD PTR [ecx+16], eax

; 139  : }

  00014	5d		 pop	 ebp
  00015	c2 08 00	 ret	 8
?SetX@CCoordinate@@QAEXABNH@Z ENDP			; CCoordinate::SetX
_TEXT	ENDS
; Function compile flags: /Ogtp
; File D:\git\src\IBK\IBK_DRFN\ProjSrc\SrcChartEx\ChartAddIn\ChartAnalysisToolAddIn\AnalysisTool\Coordinate.cpp
;	COMDAT ?SetIndex@CCoordinate@@QAEXH@Z
_TEXT	SEGMENT
_nIndex$ = 8						; size = 4
?SetIndex@CCoordinate@@QAEXH@Z PROC			; CCoordinate::SetIndex, COMDAT
; _this$ = ecx

; 142  : {

  00000	55		 push	 ebp
  00001	8b ec		 mov	 ebp, esp

; 143  : 	m_nIndex = nIndex;

  00003	8b 45 08	 mov	 eax, DWORD PTR _nIndex$[ebp]
  00006	89 41 10	 mov	 DWORD PTR [ecx+16], eax

; 144  : }

  00009	5d		 pop	 ebp
  0000a	c2 04 00	 ret	 4
?SetIndex@CCoordinate@@QAEXH@Z ENDP			; CCoordinate::SetIndex
_TEXT	ENDS
; Function compile flags: /Ogtp
; File D:\git\src\IBK\IBK_DRFN\ProjSrc\SrcChartEx\ChartAddIn\ChartAnalysisToolAddIn\AnalysisTool\Coordinate.cpp
;	COMDAT ?GetTimeDiff@CCoordinate@@QBEHXZ
_TEXT	SEGMENT
?GetTimeDiff@CCoordinate@@QBEHXZ PROC			; CCoordinate::GetTimeDiff, COMDAT
; _this$ = ecx

; 132  : 	return m_nTimeDiff;

  00000	8b 41 18	 mov	 eax, DWORD PTR [ecx+24]

; 133  : }

  00003	c3		 ret	 0
?GetTimeDiff@CCoordinate@@QBEHXZ ENDP			; CCoordinate::GetTimeDiff
_TEXT	ENDS
; Function compile flags: /Ogtp
; File D:\git\src\IBK\IBK_DRFN\ProjSrc\SrcChartEx\ChartAddIn\ChartAnalysisToolAddIn\AnalysisTool\Coordinate.cpp
;	COMDAT ?GetDateType@CCoordinate@@QBE?AV?$CStringT@DV?$StrTraitMFC_DLL@DV?$ChTraitsCRT@D@ATL@@@@@ATL@@XZ
_TEXT	SEGMENT
___$ReturnUdt$ = 8					; size = 4
?GetDateType@CCoordinate@@QBE?AV?$CStringT@DV?$StrTraitMFC_DLL@DV?$ChTraitsCRT@D@ATL@@@@@ATL@@XZ PROC ; CCoordinate::GetDateType, COMDAT
; _this$ = ecx

; 125  : {

  00000	55		 push	 ebp
  00001	8b ec		 mov	 ebp, esp

; 126  : 	return m_strType;

  00003	8d 41 14	 lea	 eax, DWORD PTR [ecx+20]
  00006	8b 4d 08	 mov	 ecx, DWORD PTR ___$ReturnUdt$[ebp]
  00009	50		 push	 eax
  0000a	ff 15 00 00 00
	00		 call	 DWORD PTR __imp_??0?$CStringT@DV?$StrTraitMFC_DLL@DV?$ChTraitsCRT@D@ATL@@@@@ATL@@QAE@ABV01@@Z
  00010	8b 45 08	 mov	 eax, DWORD PTR ___$ReturnUdt$[ebp]

; 127  : }

  00013	5d		 pop	 ebp
  00014	c2 04 00	 ret	 4
?GetDateType@CCoordinate@@QBE?AV?$CStringT@DV?$StrTraitMFC_DLL@DV?$ChTraitsCRT@D@ATL@@@@@ATL@@XZ ENDP ; CCoordinate::GetDateType
_TEXT	ENDS
; Function compile flags: /Ogtp
; File D:\git\src\IBK\IBK_DRFN\ProjSrc\SrcChartEx\ChartAddIn\ChartAnalysisToolAddIn\AnalysisTool\Coordinate.cpp
; File C:\Program Files (x86)\Microsoft Visual Studio\2019\Community\VC\Tools\MSVC\14.29.30133\atlmfc\include\atltypes.h
; File D:\git\src\IBK\IBK_DRFN\ProjSrc\SrcChartEx\ChartAddIn\ChartAnalysisToolAddIn\AnalysisTool\Coordinate.cpp
; File C:\Program Files (x86)\Microsoft Visual Studio\2019\Community\VC\Tools\MSVC\14.29.30133\atlmfc\include\atltypes.h
; File D:\git\src\IBK\IBK_DRFN\ProjSrc\SrcChartEx\ChartAddIn\ChartAnalysisToolAddIn\AnalysisTool\Coordinate.cpp
;	COMDAT ?GetPixel@CCoordinate@@QBE?AVCPoint@@XZ
_TEXT	SEGMENT
___$ReturnUdt$ = 8					; size = 4
?GetPixel@CCoordinate@@QBE?AVCPoint@@XZ PROC		; CCoordinate::GetPixel, COMDAT
; _this$ = ecx

; 119  : {

  00000	55		 push	 ebp
  00001	8b ec		 mov	 ebp, esp

; 120  : 	return CPoint((int)m_dX, (int)m_dY);

  00003	f2 0f 2c 11	 cvttsd2si edx, QWORD PTR [ecx]
; File C:\Program Files (x86)\Microsoft Visual Studio\2019\Community\VC\Tools\MSVC\14.29.30133\atlmfc\include\atltypes.h

; 408  : 	x = initX;

  00007	8b 45 08	 mov	 eax, DWORD PTR ___$ReturnUdt$[ebp]
; File D:\git\src\IBK\IBK_DRFN\ProjSrc\SrcChartEx\ChartAddIn\ChartAnalysisToolAddIn\AnalysisTool\Coordinate.cpp

; 120  : 	return CPoint((int)m_dX, (int)m_dY);

  0000a	f2 0f 2c 49 08	 cvttsd2si ecx, QWORD PTR [ecx+8]
; File C:\Program Files (x86)\Microsoft Visual Studio\2019\Community\VC\Tools\MSVC\14.29.30133\atlmfc\include\atltypes.h

; 408  : 	x = initX;

  0000f	89 10		 mov	 DWORD PTR [eax], edx

; 409  : 	y = initY;

  00011	89 48 04	 mov	 DWORD PTR [eax+4], ecx
; File D:\git\src\IBK\IBK_DRFN\ProjSrc\SrcChartEx\ChartAddIn\ChartAnalysisToolAddIn\AnalysisTool\Coordinate.cpp

; 121  : }

  00014	5d		 pop	 ebp
  00015	c2 04 00	 ret	 4
?GetPixel@CCoordinate@@QBE?AVCPoint@@XZ ENDP		; CCoordinate::GetPixel
_TEXT	ENDS
; Function compile flags: /Ogtp
; File D:\git\src\IBK\IBK_DRFN\ProjSrc\SrcChartEx\ChartAddIn\ChartAnalysisToolAddIn\AnalysisTool\Coordinate.cpp
;	COMDAT ?GetIndex@CCoordinate@@QBEHXZ
_TEXT	SEGMENT
?GetIndex@CCoordinate@@QBEHXZ PROC			; CCoordinate::GetIndex, COMDAT
; _this$ = ecx

; 115  : 	return m_nIndex;

  00000	8b 41 10	 mov	 eax, DWORD PTR [ecx+16]

; 116  : }

  00003	c3		 ret	 0
?GetIndex@CCoordinate@@QBEHXZ ENDP			; CCoordinate::GetIndex
_TEXT	ENDS
; Function compile flags: /Ogtp
; File D:\git\src\IBK\IBK_DRFN\ProjSrc\SrcChartEx\ChartAddIn\ChartAnalysisToolAddIn\AnalysisTool\Coordinate.cpp
;	COMDAT ?GetY@CCoordinate@@QBENXZ
_TEXT	SEGMENT
?GetY@CCoordinate@@QBENXZ PROC				; CCoordinate::GetY, COMDAT
; _this$ = ecx

; 110  : 	return m_dY;

  00000	dd 41 08	 fld	 QWORD PTR [ecx+8]

; 111  : }

  00003	c3		 ret	 0
?GetY@CCoordinate@@QBENXZ ENDP				; CCoordinate::GetY
_TEXT	ENDS
; Function compile flags: /Ogtp
; File D:\git\src\IBK\IBK_DRFN\ProjSrc\SrcChartEx\ChartAddIn\ChartAnalysisToolAddIn\AnalysisTool\Coordinate.cpp
;	COMDAT ?GetX@CCoordinate@@QBENXZ
_TEXT	SEGMENT
?GetX@CCoordinate@@QBENXZ PROC				; CCoordinate::GetX, COMDAT
; _this$ = ecx

; 105  : 	return m_dX;

  00000	dd 01		 fld	 QWORD PTR [ecx]

; 106  : }

  00002	c3		 ret	 0
?GetX@CCoordinate@@QBENXZ ENDP				; CCoordinate::GetX
_TEXT	ENDS
; Function compile flags: /Ogtp
; File D:\git\src\IBK\IBK_DRFN\ProjSrc\SrcChartEx\ChartAddIn\ChartAnalysisToolAddIn\AnalysisTool\Coordinate.cpp
;	COMDAT ??0CCoordinate@@QAE@ABV0@@Z
_TEXT	SEGMENT
_this$ = -4						; size = 4
___$ReturnUdt$ = 8					; size = 4
_point$ = 8						; size = 4
??0CCoordinate@@QAE@ABV0@@Z PROC			; CCoordinate::CCoordinate, COMDAT
; _this$ = ecx

; 99   : {

  00000	55		 push	 ebp
  00001	8b ec		 mov	 ebp, esp
  00003	51		 push	 ecx
  00004	56		 push	 esi

; 92   : 	m_dX(point.GetX()),

  00005	8b 75 08	 mov	 esi, DWORD PTR _point$[ebp]
  00008	57		 push	 edi
  00009	8b f9		 mov	 edi, ecx
  0000b	89 7d fc	 mov	 DWORD PTR _this$[ebp], edi
  0000e	f2 0f 10 06	 movsd	 xmm0, QWORD PTR [esi]
  00012	f2 0f 11 07	 movsd	 QWORD PTR [edi], xmm0

; 93   : 	m_dY(point.GetY()),
; 94   : 	m_nIndex(point.GetIndex()),
; 95   : 	// 분차트 근접시간 적용 - ojtaso (20080811)
; 96   : 	m_strType(point.GetDateType()),

  00016	8d 4f 14	 lea	 ecx, DWORD PTR [edi+20]
  00019	f2 0f 10 46 08	 movsd	 xmm0, QWORD PTR [esi+8]
  0001e	f2 0f 11 47 08	 movsd	 QWORD PTR [edi+8], xmm0
  00023	8b 46 10	 mov	 eax, DWORD PTR [esi+16]
  00026	89 47 10	 mov	 DWORD PTR [edi+16], eax

; 126  : 	return m_strType;

  00029	8d 46 14	 lea	 eax, DWORD PTR [esi+20]
  0002c	50		 push	 eax

; 93   : 	m_dY(point.GetY()),
; 94   : 	m_nIndex(point.GetIndex()),
; 95   : 	// 분차트 근접시간 적용 - ojtaso (20080811)
; 96   : 	m_strType(point.GetDateType()),

  0002d	89 4d 08	 mov	 DWORD PTR ___$ReturnUdt$[ebp], ecx

; 126  : 	return m_strType;

  00030	ff 15 00 00 00
	00		 call	 DWORD PTR __imp_??0?$CStringT@DV?$StrTraitMFC_DLL@DV?$ChTraitsCRT@D@ATL@@@@@ATL@@QAE@ABV01@@Z

; 97   : 	// 20081007 JS.Kim	사용자시간대 선택. 
; 98   : 	m_nTimeDiff(point.GetTimeDiff())

  00036	8b 46 18	 mov	 eax, DWORD PTR [esi+24]
  00039	89 47 18	 mov	 DWORD PTR [edi+24], eax

; 100  : }

  0003c	8b c7		 mov	 eax, edi
  0003e	5f		 pop	 edi
  0003f	5e		 pop	 esi
  00040	8b e5		 mov	 esp, ebp
  00042	5d		 pop	 ebp
  00043	c2 04 00	 ret	 4
??0CCoordinate@@QAE@ABV0@@Z ENDP			; CCoordinate::CCoordinate
_TEXT	ENDS
; Function compile flags: /Ogtp
; File D:\git\src\IBK\IBK_DRFN\ProjSrc\SrcChartEx\ChartAddIn\ChartAnalysisToolAddIn\AnalysisTool\Coordinate.cpp
;	COMDAT ??0CCoordinate@@QAE@ABVCPoint@@@Z
_TEXT	SEGMENT
_this$ = -4						; size = 4
_point$ = 8						; size = 4
??0CCoordinate@@QAE@ABVCPoint@@@Z PROC			; CCoordinate::CCoordinate, COMDAT
; _this$ = ecx

; 88   : {

  00000	55		 push	 ebp
  00001	8b ec		 mov	 ebp, esp
  00003	51		 push	 ecx

; 84   : 	m_dX((double)point.x),

  00004	8b 45 08	 mov	 eax, DWORD PTR _point$[ebp]
  00007	56		 push	 esi
  00008	8b f1		 mov	 esi, ecx
  0000a	89 75 fc	 mov	 DWORD PTR _this$[ebp], esi
  0000d	66 0f 6e 00	 movd	 xmm0, DWORD PTR [eax]
  00011	f3 0f e6 c0	 cvtdq2pd xmm0, xmm0

; 88   : {

  00015	8d 4e 14	 lea	 ecx, DWORD PTR [esi+20]
  00018	f2 0f 11 06	 movsd	 QWORD PTR [esi], xmm0
  0001c	66 0f 6e 40 04	 movd	 xmm0, DWORD PTR [eax+4]
  00021	f3 0f e6 c0	 cvtdq2pd xmm0, xmm0
  00025	f2 0f 11 46 08	 movsd	 QWORD PTR [esi+8], xmm0
  0002a	ff 15 00 00 00
	00		 call	 DWORD PTR __imp_??0?$CStringT@DV?$StrTraitMFC_DLL@DV?$ChTraitsCRT@D@ATL@@@@@ATL@@QAE@XZ

; 85   : 	m_dY((double)point.y),
; 86   : 	// 20081007 JS.Kim	사용자시간대 선택. 
; 87   : 	m_nTimeDiff(0)

  00030	c7 46 18 00 00
	00 00		 mov	 DWORD PTR [esi+24], 0

; 89   : }

  00037	8b c6		 mov	 eax, esi
  00039	5e		 pop	 esi
  0003a	8b e5		 mov	 esp, ebp
  0003c	5d		 pop	 ebp
  0003d	c2 04 00	 ret	 4
??0CCoordinate@@QAE@ABVCPoint@@@Z ENDP			; CCoordinate::CCoordinate
_TEXT	ENDS
; Function compile flags: /Ogtp
; File D:\git\src\IBK\IBK_DRFN\ProjSrc\SrcChartEx\ChartAddIn\ChartAnalysisToolAddIn\AnalysisTool\Coordinate.cpp
;	COMDAT ??0CCoordinate@@QAE@ABN0HABV?$CStringT@DV?$StrTraitMFC_DLL@DV?$ChTraitsCRT@D@ATL@@@@@ATL@@H@Z
_TEXT	SEGMENT
_this$ = -4						; size = 4
_x$ = 8							; size = 4
_y$ = 12						; size = 4
_nTimeDiff$ = 16					; size = 4
_strType$ = 20						; size = 4
_nIndex$ = 24						; size = 4
??0CCoordinate@@QAE@ABN0HABV?$CStringT@DV?$StrTraitMFC_DLL@DV?$ChTraitsCRT@D@ATL@@@@@ATL@@H@Z PROC ; CCoordinate::CCoordinate, COMDAT
; _this$ = ecx

; 80   : {

  00000	55		 push	 ebp
  00001	8b ec		 mov	 ebp, esp
  00003	51		 push	 ecx

; 75   : 	m_dX(x),

  00004	8b 45 08	 mov	 eax, DWORD PTR _x$[ebp]
  00007	56		 push	 esi

; 76   : 	m_dY(y),
; 77   : 	m_nIndex(nIndex),
; 78   : 	m_strType(strType),

  00008	ff 75 14	 push	 DWORD PTR _strType$[ebp]
  0000b	8b f1		 mov	 esi, ecx
  0000d	f2 0f 10 00	 movsd	 xmm0, QWORD PTR [eax]
  00011	8b 45 0c	 mov	 eax, DWORD PTR _y$[ebp]
  00014	89 75 fc	 mov	 DWORD PTR _this$[ebp], esi
  00017	f2 0f 11 06	 movsd	 QWORD PTR [esi], xmm0
  0001b	8d 4e 14	 lea	 ecx, DWORD PTR [esi+20]
  0001e	f2 0f 10 00	 movsd	 xmm0, QWORD PTR [eax]
  00022	8b 45 18	 mov	 eax, DWORD PTR _nIndex$[ebp]
  00025	f2 0f 11 46 08	 movsd	 QWORD PTR [esi+8], xmm0
  0002a	89 46 10	 mov	 DWORD PTR [esi+16], eax
  0002d	ff 15 00 00 00
	00		 call	 DWORD PTR __imp_??0?$CStringT@DV?$StrTraitMFC_DLL@DV?$ChTraitsCRT@D@ATL@@@@@ATL@@QAE@ABV01@@Z

; 79   : 	m_nTimeDiff(nTimeDiff)

  00033	8b 45 10	 mov	 eax, DWORD PTR _nTimeDiff$[ebp]
  00036	89 46 18	 mov	 DWORD PTR [esi+24], eax

; 81   : }

  00039	8b c6		 mov	 eax, esi
  0003b	5e		 pop	 esi
  0003c	8b e5		 mov	 esp, ebp
  0003e	5d		 pop	 ebp
  0003f	c2 14 00	 ret	 20			; 00000014H
??0CCoordinate@@QAE@ABN0HABV?$CStringT@DV?$StrTraitMFC_DLL@DV?$ChTraitsCRT@D@ATL@@@@@ATL@@H@Z ENDP ; CCoordinate::CCoordinate
_TEXT	ENDS
; Function compile flags: /Ogtp
; File D:\git\src\IBK\IBK_DRFN\ProjSrc\SrcChartEx\ChartAddIn\ChartAnalysisToolAddIn\AnalysisTool\Coordinate.cpp
;	COMDAT ??0CCoordinate@@QAE@XZ
_TEXT	SEGMENT
_this$ = -4						; size = 4
??0CCoordinate@@QAE@XZ PROC				; CCoordinate::CCoordinate, COMDAT
; _this$ = ecx

; 55   : {

  00000	55		 push	 ebp
  00001	8b ec		 mov	 ebp, esp
  00003	51		 push	 ecx
  00004	56		 push	 esi
  00005	57		 push	 edi
  00006	8b f9		 mov	 edi, ecx
  00008	0f 57 c0	 xorps	 xmm0, xmm0
  0000b	89 7d fc	 mov	 DWORD PTR _this$[ebp], edi
  0000e	8d 4f 14	 lea	 ecx, DWORD PTR [edi+20]
  00011	c7 47 10 00 00
	00 00		 mov	 DWORD PTR [edi+16], 0
  00018	0f 11 07	 movups	 XMMWORD PTR [edi], xmm0
  0001b	ff 15 00 00 00
	00		 call	 DWORD PTR __imp_??0?$CStringT@DV?$StrTraitMFC_DLL@DV?$ChTraitsCRT@D@ATL@@@@@ATL@@QAE@XZ

; 56   : 	// 분차트 근접시간 적용 - ojtaso (20080811)
; 57   : 	m_strType.Empty();

  00021	8d 4f 14	 lea	 ecx, DWORD PTR [edi+20]
  00024	c7 47 18 00 00
	00 00		 mov	 DWORD PTR [edi+24], 0
  0002b	ff 15 00 00 00
	00		 call	 DWORD PTR __imp_?Empty@?$CSimpleStringT@D$00@ATL@@QAEXXZ

; 58   : }

  00031	8b c7		 mov	 eax, edi
  00033	5f		 pop	 edi
  00034	5e		 pop	 esi
  00035	8b e5		 mov	 esp, ebp
  00037	5d		 pop	 ebp
  00038	c3		 ret	 0
??0CCoordinate@@QAE@XZ ENDP				; CCoordinate::CCoordinate
_TEXT	ENDS
; Function compile flags: /Ogtp
; File D:\git\src\IBK\IBK_DRFN\ProjSrc\SrcChartEx\ChartAddIn\ChartAnalysisToolAddIn\AnalysisTool\Coordinate.cpp
;	COMDAT ??9CCoordinate@@QAE_NABV0@@Z
_TEXT	SEGMENT
_point$ = 8						; size = 4
??9CCoordinate@@QAE_NABV0@@Z PROC			; CCoordinate::operator!=, COMDAT
; _this$ = ecx

; 44   : {

  00000	55		 push	 ebp
  00001	8b ec		 mov	 ebp, esp

; 37   : 	if(this == &point)

  00003	8b 55 08	 mov	 edx, DWORD PTR _point$[ebp]
  00006	3b ca		 cmp	 ecx, edx
  00008	75 06		 jne	 SHORT $LN4@operator
$LN10@operator:

; 45   : 	return !(*this == point);
; 46   : }

  0000a	32 c0		 xor	 al, al
  0000c	5d		 pop	 ebp
  0000d	c2 04 00	 ret	 4
$LN4@operator:

; 40   : 	return (m_dX == point.GetX() && m_dY == point.GetY() && m_nIndex == point.GetIndex() && m_nTimeDiff == point.GetTimeDiff());

  00010	f2 0f 10 01	 movsd	 xmm0, QWORD PTR [ecx]
  00014	66 0f 2e 02	 ucomisd xmm0, QWORD PTR [edx]
  00018	9f		 lahf
  00019	f6 c4 44	 test	 ah, 68			; 00000044H
  0001c	7a 20		 jp	 SHORT $LN6@operator
  0001e	f2 0f 10 41 08	 movsd	 xmm0, QWORD PTR [ecx+8]
  00023	66 0f 2e 42 08	 ucomisd xmm0, QWORD PTR [edx+8]
  00028	9f		 lahf
  00029	f6 c4 44	 test	 ah, 68			; 00000044H
  0002c	7a 10		 jp	 SHORT $LN6@operator
  0002e	8b 41 10	 mov	 eax, DWORD PTR [ecx+16]
  00031	3b 42 10	 cmp	 eax, DWORD PTR [edx+16]
  00034	75 08		 jne	 SHORT $LN6@operator
  00036	8b 41 18	 mov	 eax, DWORD PTR [ecx+24]
  00039	3b 42 18	 cmp	 eax, DWORD PTR [edx+24]
  0003c	74 cc		 je	 SHORT $LN10@operator
$LN6@operator:
  0003e	b0 01		 mov	 al, 1

; 45   : 	return !(*this == point);
; 46   : }

  00040	5d		 pop	 ebp
  00041	c2 04 00	 ret	 4
??9CCoordinate@@QAE_NABV0@@Z ENDP			; CCoordinate::operator!=
_TEXT	ENDS
; Function compile flags: /Ogtp
; File D:\git\src\IBK\IBK_DRFN\ProjSrc\SrcChartEx\ChartAddIn\ChartAnalysisToolAddIn\AnalysisTool\Coordinate.cpp
;	COMDAT ??8CCoordinate@@QAE_NABV0@@Z
_TEXT	SEGMENT
_point$ = 8						; size = 4
??8CCoordinate@@QAE_NABV0@@Z PROC			; CCoordinate::operator==, COMDAT
; _this$ = ecx

; 36   : {

  00000	55		 push	 ebp
  00001	8b ec		 mov	 ebp, esp

; 37   : 	if(this == &point)

  00003	8b 55 08	 mov	 edx, DWORD PTR _point$[ebp]
  00006	3b ca		 cmp	 ecx, edx
  00008	75 06		 jne	 SHORT $LN2@operator
$LN8@operator:

; 41   : }

  0000a	b0 01		 mov	 al, 1
  0000c	5d		 pop	 ebp
  0000d	c2 04 00	 ret	 4
$LN2@operator:

; 38   : 		return true;
; 39   : 
; 40   : 	return (m_dX == point.GetX() && m_dY == point.GetY() && m_nIndex == point.GetIndex() && m_nTimeDiff == point.GetTimeDiff());

  00010	f2 0f 10 01	 movsd	 xmm0, QWORD PTR [ecx]
  00014	66 0f 2e 02	 ucomisd xmm0, QWORD PTR [edx]
  00018	9f		 lahf
  00019	f6 c4 44	 test	 ah, 68			; 00000044H
  0001c	7a 20		 jp	 SHORT $LN4@operator
  0001e	f2 0f 10 41 08	 movsd	 xmm0, QWORD PTR [ecx+8]
  00023	66 0f 2e 42 08	 ucomisd xmm0, QWORD PTR [edx+8]
  00028	9f		 lahf
  00029	f6 c4 44	 test	 ah, 68			; 00000044H
  0002c	7a 10		 jp	 SHORT $LN4@operator
  0002e	8b 41 10	 mov	 eax, DWORD PTR [ecx+16]
  00031	3b 42 10	 cmp	 eax, DWORD PTR [edx+16]
  00034	75 08		 jne	 SHORT $LN4@operator
  00036	8b 41 18	 mov	 eax, DWORD PTR [ecx+24]
  00039	3b 42 18	 cmp	 eax, DWORD PTR [edx+24]
  0003c	74 cc		 je	 SHORT $LN8@operator
$LN4@operator:
  0003e	32 c0		 xor	 al, al

; 41   : }

  00040	5d		 pop	 ebp
  00041	c2 04 00	 ret	 4
??8CCoordinate@@QAE_NABV0@@Z ENDP			; CCoordinate::operator==
_TEXT	ENDS
; Function compile flags: /Ogtp
; File D:\git\src\IBK\IBK_DRFN\ProjSrc\SrcChartEx\ChartAddIn\ChartAnalysisToolAddIn\AnalysisTool\Coordinate.cpp
;	COMDAT ??4CCoordinate@@QAEAAV0@ABV0@@Z
_TEXT	SEGMENT
__$EHRec$ = -12						; size = 12
$T2 = 8							; size = 4
_point$ = 8						; size = 4
??4CCoordinate@@QAEAAV0@ABV0@@Z PROC			; CCoordinate::operator=, COMDAT
; _this$ = ecx

; 20   : {

  00000	55		 push	 ebp
  00001	8b ec		 mov	 ebp, esp
  00003	6a ff		 push	 -1
  00005	68 00 00 00 00	 push	 __ehhandler$??4CCoordinate@@QAEAAV0@ABV0@@Z
  0000a	64 a1 00 00 00
	00		 mov	 eax, DWORD PTR fs:0
  00010	50		 push	 eax
  00011	56		 push	 esi
  00012	57		 push	 edi
  00013	a1 00 00 00 00	 mov	 eax, DWORD PTR ___security_cookie
  00018	33 c5		 xor	 eax, ebp
  0001a	50		 push	 eax
  0001b	8d 45 f4	 lea	 eax, DWORD PTR __$EHRec$[ebp]
  0001e	64 a3 00 00 00
	00		 mov	 DWORD PTR fs:0, eax
  00024	8b f1		 mov	 esi, ecx

; 21   : 	if(this == &point)

  00026	8b 7d 08	 mov	 edi, DWORD PTR _point$[ebp]
  00029	3b f7		 cmp	 esi, edi
  0002b	74 48		 je	 SHORT $LN12@operator

; 22   : 		return *this;
; 23   : 
; 24   : 	m_dX = point.GetX();

  0002d	f2 0f 10 07	 movsd	 xmm0, QWORD PTR [edi]

; 126  : 	return m_strType;

  00031	8d 4d 08	 lea	 ecx, DWORD PTR $T2[ebp]

; 22   : 		return *this;
; 23   : 
; 24   : 	m_dX = point.GetX();

  00034	f2 0f 11 06	 movsd	 QWORD PTR [esi], xmm0

; 25   : 	m_dY = point.GetY();

  00038	f2 0f 10 47 08	 movsd	 xmm0, QWORD PTR [edi+8]
  0003d	f2 0f 11 46 08	 movsd	 QWORD PTR [esi+8], xmm0

; 26   : 	//m_nIndex = 0;
; 27   : 	m_nIndex = point.GetIndex();

  00042	8b 47 10	 mov	 eax, DWORD PTR [edi+16]
  00045	89 46 10	 mov	 DWORD PTR [esi+16], eax

; 126  : 	return m_strType;

  00048	8d 47 14	 lea	 eax, DWORD PTR [edi+20]
  0004b	50		 push	 eax
  0004c	ff 15 00 00 00
	00		 call	 DWORD PTR __imp_??0?$CStringT@DV?$StrTraitMFC_DLL@DV?$ChTraitsCRT@D@ATL@@@@@ATL@@QAE@ABV01@@Z

; 28   : 	// 분차트 근접시간 적용 - ojtaso (20080811)
; 29   : 	m_strType = point.GetDateType();

  00052	8d 45 08	 lea	 eax, DWORD PTR $T2[ebp]
  00055	c7 45 fc 00 00
	00 00		 mov	 DWORD PTR __$EHRec$[ebp+8], 0
  0005c	50		 push	 eax
  0005d	8d 4e 14	 lea	 ecx, DWORD PTR [esi+20]
  00060	ff 15 00 00 00
	00		 call	 DWORD PTR __imp_??4?$CStringT@DV?$StrTraitMFC_DLL@DV?$ChTraitsCRT@D@ATL@@@@@ATL@@QAEAAV01@ABV01@@Z
  00066	8d 4d 08	 lea	 ecx, DWORD PTR $T2[ebp]
  00069	ff 15 00 00 00
	00		 call	 DWORD PTR __imp_??1?$CStringT@DV?$StrTraitMFC_DLL@DV?$ChTraitsCRT@D@ATL@@@@@ATL@@QAE@XZ

; 30   : 	// 20081007 JS.Kim	사용자시간대 선택. 
; 31   : 	m_nTimeDiff = point.GetTimeDiff();

  0006f	8b 47 18	 mov	 eax, DWORD PTR [edi+24]
  00072	89 46 18	 mov	 DWORD PTR [esi+24], eax
$LN12@operator:

; 32   : 	return *this;
; 33   : }

  00075	8b c6		 mov	 eax, esi
  00077	8b 4d f4	 mov	 ecx, DWORD PTR __$EHRec$[ebp]
  0007a	64 89 0d 00 00
	00 00		 mov	 DWORD PTR fs:0, ecx
  00081	59		 pop	 ecx
  00082	5f		 pop	 edi
  00083	5e		 pop	 esi
  00084	8b e5		 mov	 esp, ebp
  00086	5d		 pop	 ebp
  00087	c2 04 00	 ret	 4
_TEXT	ENDS
;	COMDAT text$x
text$x	SEGMENT
__unwindfunclet$??4CCoordinate@@QAEAAV0@ABV0@@Z$0:
  00000	8d 4d 08	 lea	 ecx, DWORD PTR $T2[ebp]
  00003	ff 25 00 00 00
	00		 jmp	 DWORD PTR __imp_??1?$CStringT@DV?$StrTraitMFC_DLL@DV?$ChTraitsCRT@D@ATL@@@@@ATL@@QAE@XZ
  00009	cc		 int	 3
  0000a	cc		 int	 3
  0000b	cc		 int	 3
  0000c	cc		 int	 3
  0000d	cc		 int	 3
__ehhandler$??4CCoordinate@@QAEAAV0@ABV0@@Z:
  0000e	90		 npad	 1
  0000f	90		 npad	 1
  00010	8b 54 24 08	 mov	 edx, DWORD PTR [esp+8]
  00014	8d 42 0c	 lea	 eax, DWORD PTR [edx+12]
  00017	8b 4a f4	 mov	 ecx, DWORD PTR [edx-12]
  0001a	33 c8		 xor	 ecx, eax
  0001c	e8 00 00 00 00	 call	 @__security_check_cookie@4
  00021	b8 00 00 00 00	 mov	 eax, OFFSET __ehfuncinfo$??4CCoordinate@@QAEAAV0@ABV0@@Z
  00026	e9 00 00 00 00	 jmp	 ___CxxFrameHandler3
text$x	ENDS
??4CCoordinate@@QAEAAV0@ABV0@@Z ENDP			; CCoordinate::operator=
; Function compile flags: /Ogtp
; File C:\Program Files (x86)\Microsoft Visual Studio\2019\Community\VC\Tools\MSVC\14.29.30133\include\exception
;	COMDAT ?_Throw_bad_array_new_length@std@@YAXXZ
_TEXT	SEGMENT
$T1 = -12						; size = 12
?_Throw_bad_array_new_length@std@@YAXXZ PROC		; std::_Throw_bad_array_new_length, COMDAT

; 315  : [[noreturn]] inline void _Throw_bad_array_new_length() {

  00000	55		 push	 ebp
  00001	8b ec		 mov	 ebp, esp
  00003	83 ec 0c	 sub	 esp, 12			; 0000000cH

; 316  :     _THROW(bad_array_new_length{});

  00006	8d 4d f4	 lea	 ecx, DWORD PTR $T1[ebp]
  00009	e8 00 00 00 00	 call	 ??0bad_array_new_length@std@@QAE@XZ ; std::bad_array_new_length::bad_array_new_length
  0000e	68 00 00 00 00	 push	 OFFSET __TI3?AVbad_array_new_length@std@@
  00013	8d 45 f4	 lea	 eax, DWORD PTR $T1[ebp]
  00016	50		 push	 eax
  00017	e8 00 00 00 00	 call	 __CxxThrowException@8
$LN3@Throw_bad_:
  0001c	cc		 int	 3
?_Throw_bad_array_new_length@std@@YAXXZ ENDP		; std::_Throw_bad_array_new_length
_TEXT	ENDS
; Function compile flags: /Ogtp
; File C:\Program Files (x86)\Microsoft Visual Studio\2019\Community\VC\Tools\MSVC\14.29.30133\include\vcruntime_exception.h
;	COMDAT ??_Gbad_array_new_length@std@@UAEPAXI@Z
_TEXT	SEGMENT
___flags$ = 8						; size = 4
??_Gbad_array_new_length@std@@UAEPAXI@Z PROC		; std::bad_array_new_length::`scalar deleting destructor', COMDAT
; _this$ = ecx
  00000	55		 push	 ebp
  00001	8b ec		 mov	 ebp, esp

; 89   :     {

  00003	56		 push	 esi
  00004	8b f1		 mov	 esi, ecx

; 90   :         __std_exception_destroy(&_Data);

  00006	8d 46 04	 lea	 eax, DWORD PTR [esi+4]
  00009	c7 06 00 00 00
	00		 mov	 DWORD PTR [esi], OFFSET ??_7exception@std@@6B@
  0000f	50		 push	 eax
  00010	e8 00 00 00 00	 call	 ___std_exception_destroy
  00015	83 c4 04	 add	 esp, 4
  00018	f6 45 08 01	 test	 BYTE PTR ___flags$[ebp], 1
  0001c	74 0b		 je	 SHORT $LN12@scalar
  0001e	6a 0c		 push	 12			; 0000000cH
  00020	56		 push	 esi
  00021	e8 00 00 00 00	 call	 ??3@YAXPAXI@Z		; operator delete
  00026	83 c4 08	 add	 esp, 8
$LN12@scalar:
  00029	8b c6		 mov	 eax, esi
  0002b	5e		 pop	 esi
  0002c	5d		 pop	 ebp
  0002d	c2 04 00	 ret	 4
??_Gbad_array_new_length@std@@UAEPAXI@Z ENDP		; std::bad_array_new_length::`scalar deleting destructor'
_TEXT	ENDS
; Function compile flags: /Ogtp
; File C:\Program Files (x86)\Microsoft Visual Studio\2019\Community\VC\Tools\MSVC\14.29.30133\include\vcruntime_exception.h
;	COMDAT ??0bad_array_new_length@std@@QAE@ABV01@@Z
_TEXT	SEGMENT
___that$ = 8						; size = 4
??0bad_array_new_length@std@@QAE@ABV01@@Z PROC		; std::bad_array_new_length::bad_array_new_length, COMDAT
; _this$ = ecx
  00000	55		 push	 ebp
  00001	8b ec		 mov	 ebp, esp

; 72   :     {

  00003	56		 push	 esi
  00004	8b f1		 mov	 esi, ecx
  00006	0f 57 c0	 xorps	 xmm0, xmm0

; 71   :         : _Data()

  00009	8d 46 04	 lea	 eax, DWORD PTR [esi+4]

; 73   :         __std_exception_copy(&_Other._Data, &_Data);

  0000c	50		 push	 eax
  0000d	c7 06 00 00 00
	00		 mov	 DWORD PTR [esi], OFFSET ??_7exception@std@@6B@
  00013	66 0f d6 00	 movq	 QWORD PTR [eax], xmm0
  00017	8b 45 08	 mov	 eax, DWORD PTR ___that$[ebp]
  0001a	83 c0 04	 add	 eax, 4
  0001d	50		 push	 eax
  0001e	e8 00 00 00 00	 call	 ___std_exception_copy
  00023	83 c4 08	 add	 esp, 8
  00026	c7 06 00 00 00
	00		 mov	 DWORD PTR [esi], OFFSET ??_7bad_array_new_length@std@@6B@
  0002c	8b c6		 mov	 eax, esi
  0002e	5e		 pop	 esi
  0002f	5d		 pop	 ebp
  00030	c2 04 00	 ret	 4
??0bad_array_new_length@std@@QAE@ABV01@@Z ENDP		; std::bad_array_new_length::bad_array_new_length
_TEXT	ENDS
; Function compile flags: /Ogtp
; File C:\Program Files (x86)\Microsoft Visual Studio\2019\Community\VC\Tools\MSVC\14.29.30133\include\vcruntime_exception.h
;	COMDAT ??1bad_array_new_length@std@@UAE@XZ
_TEXT	SEGMENT
??1bad_array_new_length@std@@UAE@XZ PROC		; std::bad_array_new_length::~bad_array_new_length, COMDAT
; _this$ = ecx

; 90   :         __std_exception_destroy(&_Data);

  00000	8d 41 04	 lea	 eax, DWORD PTR [ecx+4]
  00003	c7 01 00 00 00
	00		 mov	 DWORD PTR [ecx], OFFSET ??_7exception@std@@6B@
  00009	50		 push	 eax
  0000a	e8 00 00 00 00	 call	 ___std_exception_destroy
  0000f	59		 pop	 ecx
  00010	c3		 ret	 0
??1bad_array_new_length@std@@UAE@XZ ENDP		; std::bad_array_new_length::~bad_array_new_length
_TEXT	ENDS
; Function compile flags: /Ogtp
; File C:\Program Files (x86)\Microsoft Visual Studio\2019\Community\VC\Tools\MSVC\14.29.30133\include\vcruntime_exception.h
;	COMDAT ??0bad_array_new_length@std@@QAE@XZ
_TEXT	SEGMENT
??0bad_array_new_length@std@@QAE@XZ PROC		; std::bad_array_new_length::bad_array_new_length, COMDAT
; _this$ = ecx

; 141  :     {

  00000	0f 57 c0	 xorps	 xmm0, xmm0

; 142  :     }

  00003	8b c1		 mov	 eax, ecx

; 65   :         : _Data()

  00005	66 0f d6 41 04	 movq	 QWORD PTR [ecx+4], xmm0

; 66   :     {
; 67   :         _Data._What = _Message;

  0000a	c7 41 04 00 00
	00 00		 mov	 DWORD PTR [ecx+4], OFFSET ??_C@_0BF@KINCDENJ@bad?5array?5new?5length@

; 141  :     {

  00011	c7 01 00 00 00
	00		 mov	 DWORD PTR [ecx], OFFSET ??_7bad_array_new_length@std@@6B@

; 142  :     }

  00017	c3		 ret	 0
??0bad_array_new_length@std@@QAE@XZ ENDP		; std::bad_array_new_length::bad_array_new_length
_TEXT	ENDS
; Function compile flags: /Ogtp
; File C:\Program Files (x86)\Microsoft Visual Studio\2019\Community\VC\Tools\MSVC\14.29.30133\include\vcruntime_exception.h
;	COMDAT ??_Gbad_alloc@std@@UAEPAXI@Z
_TEXT	SEGMENT
___flags$ = 8						; size = 4
??_Gbad_alloc@std@@UAEPAXI@Z PROC			; std::bad_alloc::`scalar deleting destructor', COMDAT
; _this$ = ecx
  00000	55		 push	 ebp
  00001	8b ec		 mov	 ebp, esp

; 89   :     {

  00003	56		 push	 esi
  00004	8b f1		 mov	 esi, ecx

; 90   :         __std_exception_destroy(&_Data);

  00006	8d 46 04	 lea	 eax, DWORD PTR [esi+4]
  00009	c7 06 00 00 00
	00		 mov	 DWORD PTR [esi], OFFSET ??_7exception@std@@6B@
  0000f	50		 push	 eax
  00010	e8 00 00 00 00	 call	 ___std_exception_destroy
  00015	83 c4 04	 add	 esp, 4
  00018	f6 45 08 01	 test	 BYTE PTR ___flags$[ebp], 1
  0001c	74 0b		 je	 SHORT $LN9@scalar
  0001e	6a 0c		 push	 12			; 0000000cH
  00020	56		 push	 esi
  00021	e8 00 00 00 00	 call	 ??3@YAXPAXI@Z		; operator delete
  00026	83 c4 08	 add	 esp, 8
$LN9@scalar:
  00029	8b c6		 mov	 eax, esi
  0002b	5e		 pop	 esi
  0002c	5d		 pop	 ebp
  0002d	c2 04 00	 ret	 4
??_Gbad_alloc@std@@UAEPAXI@Z ENDP			; std::bad_alloc::`scalar deleting destructor'
_TEXT	ENDS
; Function compile flags: /Ogtp
; File C:\Program Files (x86)\Microsoft Visual Studio\2019\Community\VC\Tools\MSVC\14.29.30133\include\vcruntime_exception.h
;	COMDAT ??0bad_alloc@std@@QAE@ABV01@@Z
_TEXT	SEGMENT
___that$ = 8						; size = 4
??0bad_alloc@std@@QAE@ABV01@@Z PROC			; std::bad_alloc::bad_alloc, COMDAT
; _this$ = ecx
  00000	55		 push	 ebp
  00001	8b ec		 mov	 ebp, esp

; 72   :     {

  00003	56		 push	 esi
  00004	8b f1		 mov	 esi, ecx
  00006	0f 57 c0	 xorps	 xmm0, xmm0

; 71   :         : _Data()

  00009	8d 46 04	 lea	 eax, DWORD PTR [esi+4]

; 73   :         __std_exception_copy(&_Other._Data, &_Data);

  0000c	50		 push	 eax
  0000d	c7 06 00 00 00
	00		 mov	 DWORD PTR [esi], OFFSET ??_7exception@std@@6B@
  00013	66 0f d6 00	 movq	 QWORD PTR [eax], xmm0
  00017	8b 45 08	 mov	 eax, DWORD PTR ___that$[ebp]
  0001a	83 c0 04	 add	 eax, 4
  0001d	50		 push	 eax
  0001e	e8 00 00 00 00	 call	 ___std_exception_copy
  00023	83 c4 08	 add	 esp, 8
  00026	c7 06 00 00 00
	00		 mov	 DWORD PTR [esi], OFFSET ??_7bad_alloc@std@@6B@
  0002c	8b c6		 mov	 eax, esi
  0002e	5e		 pop	 esi
  0002f	5d		 pop	 ebp
  00030	c2 04 00	 ret	 4
??0bad_alloc@std@@QAE@ABV01@@Z ENDP			; std::bad_alloc::bad_alloc
_TEXT	ENDS
; Function compile flags: /Ogtp
; File C:\Program Files (x86)\Microsoft Visual Studio\2019\Community\VC\Tools\MSVC\14.29.30133\include\vcruntime_exception.h
;	COMDAT ??_Gexception@std@@UAEPAXI@Z
_TEXT	SEGMENT
___flags$ = 8						; size = 4
??_Gexception@std@@UAEPAXI@Z PROC			; std::exception::`scalar deleting destructor', COMDAT
; _this$ = ecx
  00000	55		 push	 ebp
  00001	8b ec		 mov	 ebp, esp

; 89   :     {

  00003	56		 push	 esi
  00004	8b f1		 mov	 esi, ecx

; 90   :         __std_exception_destroy(&_Data);

  00006	8d 46 04	 lea	 eax, DWORD PTR [esi+4]
  00009	c7 06 00 00 00
	00		 mov	 DWORD PTR [esi], OFFSET ??_7exception@std@@6B@
  0000f	50		 push	 eax
  00010	e8 00 00 00 00	 call	 ___std_exception_destroy
  00015	83 c4 04	 add	 esp, 4
  00018	f6 45 08 01	 test	 BYTE PTR ___flags$[ebp], 1
  0001c	74 0b		 je	 SHORT $LN6@scalar
  0001e	6a 0c		 push	 12			; 0000000cH
  00020	56		 push	 esi
  00021	e8 00 00 00 00	 call	 ??3@YAXPAXI@Z		; operator delete
  00026	83 c4 08	 add	 esp, 8
$LN6@scalar:
  00029	8b c6		 mov	 eax, esi
  0002b	5e		 pop	 esi
  0002c	5d		 pop	 ebp
  0002d	c2 04 00	 ret	 4
??_Gexception@std@@UAEPAXI@Z ENDP			; std::exception::`scalar deleting destructor'
_TEXT	ENDS
; Function compile flags: /Ogtp
; File C:\Program Files (x86)\Microsoft Visual Studio\2019\Community\VC\Tools\MSVC\14.29.30133\include\vcruntime_exception.h
;	COMDAT ?what@exception@std@@UBEPBDXZ
_TEXT	SEGMENT
?what@exception@std@@UBEPBDXZ PROC			; std::exception::what, COMDAT
; _this$ = ecx

; 95   :         return _Data._What ? _Data._What : "Unknown exception";

  00000	8b 49 04	 mov	 ecx, DWORD PTR [ecx+4]
  00003	b8 00 00 00 00	 mov	 eax, OFFSET ??_C@_0BC@EOODALEL@Unknown?5exception@
  00008	85 c9		 test	 ecx, ecx
  0000a	0f 45 c1	 cmovne	 eax, ecx

; 96   :     }

  0000d	c3		 ret	 0
?what@exception@std@@UBEPBDXZ ENDP			; std::exception::what
_TEXT	ENDS
; Function compile flags: /Ogtp
; File C:\Program Files (x86)\Microsoft Visual Studio\2019\Community\VC\Tools\MSVC\14.29.30133\include\vcruntime_exception.h
;	COMDAT ??1exception@std@@UAE@XZ
_TEXT	SEGMENT
??1exception@std@@UAE@XZ PROC				; std::exception::~exception, COMDAT
; _this$ = ecx

; 90   :         __std_exception_destroy(&_Data);

  00000	8d 41 04	 lea	 eax, DWORD PTR [ecx+4]
  00003	c7 01 00 00 00
	00		 mov	 DWORD PTR [ecx], OFFSET ??_7exception@std@@6B@
  00009	50		 push	 eax
  0000a	e8 00 00 00 00	 call	 ___std_exception_destroy
  0000f	59		 pop	 ecx

; 91   :     }

  00010	c3		 ret	 0
??1exception@std@@UAE@XZ ENDP				; std::exception::~exception
_TEXT	ENDS
; Function compile flags: /Ogtp
; File C:\Program Files (x86)\Microsoft Visual Studio\2019\Community\VC\Tools\MSVC\14.29.30133\include\vcruntime_exception.h
;	COMDAT ??0exception@std@@QAE@ABV01@@Z
_TEXT	SEGMENT
__Other$ = 8						; size = 4
??0exception@std@@QAE@ABV01@@Z PROC			; std::exception::exception, COMDAT
; _this$ = ecx

; 72   :     {

  00000	55		 push	 ebp
  00001	8b ec		 mov	 ebp, esp
  00003	56		 push	 esi
  00004	8b f1		 mov	 esi, ecx
  00006	0f 57 c0	 xorps	 xmm0, xmm0
  00009	8d 46 04	 lea	 eax, DWORD PTR [esi+4]

; 73   :         __std_exception_copy(&_Other._Data, &_Data);

  0000c	50		 push	 eax
  0000d	c7 06 00 00 00
	00		 mov	 DWORD PTR [esi], OFFSET ??_7exception@std@@6B@
  00013	66 0f d6 00	 movq	 QWORD PTR [eax], xmm0
  00017	8b 45 08	 mov	 eax, DWORD PTR __Other$[ebp]
  0001a	83 c0 04	 add	 eax, 4
  0001d	50		 push	 eax
  0001e	e8 00 00 00 00	 call	 ___std_exception_copy
  00023	83 c4 08	 add	 esp, 8

; 74   :     }

  00026	8b c6		 mov	 eax, esi
  00028	5e		 pop	 esi
  00029	5d		 pop	 ebp
  0002a	c2 04 00	 ret	 4
??0exception@std@@QAE@ABV01@@Z ENDP			; std::exception::exception
_TEXT	ENDS
; Function compile flags: /Ogtp
; File D:\git\src\IBK\IBK_DRFN\ProjSrc\SrcChartEx\ChartAddIn\ChartAnalysisToolAddIn\AnalysisTool\Coordinate.cpp
;	COMDAT ?__empty_global_delete@@YAXPAXI@Z
_TEXT	SEGMENT
___formal$ = 8						; size = 4
___formal$ = 12						; size = 4
?__empty_global_delete@@YAXPAXI@Z PROC			; __empty_global_delete, COMDAT

  00000	c2 00 00	 ret	 0
?__empty_global_delete@@YAXPAXI@Z ENDP			; __empty_global_delete
_TEXT	ENDS
; Function compile flags: /Ogtp
; File D:\git\src\IBK\IBK_DRFN\ProjSrc\SrcChartEx\ChartAddIn\ChartAnalysisToolAddIn\AnalysisTool\Coordinate.cpp
;	COMDAT ?__empty_global_delete@@YAXPAX@Z
_TEXT	SEGMENT
___formal$ = 8						; size = 4
?__empty_global_delete@@YAXPAX@Z PROC			; __empty_global_delete, COMDAT

  00000	c2 00 00	 ret	 0
?__empty_global_delete@@YAXPAX@Z ENDP			; __empty_global_delete
_TEXT	ENDS
END
