; Listing generated by Microsoft (R) Optimizing Compiler Version 19.29.30145.0 

	TITLE	D:\git\src\IBK\IBK_DRFN\#DRfn-CS\_Obj\AnalysisTool\CurrentElementSet.obj
	.686P
	.XMM
	include listing.inc
	.model	flat

INCLUDELIB MSVCRT
INCLUDELIB OLDNAMES

PUBLIC	?__empty_global_delete@@YAXPAX@Z		; __empty_global_delete
PUBLIC	?__empty_global_delete@@YAXPAXI@Z		; __empty_global_delete
PUBLIC	??1CObject@@UAE@XZ				; CObject::~CObject
PUBLIC	?Serialize@CObject@@UAEXAAVCArchive@@@Z		; CObject::Serialize
PUBLIC	?AssertValid@CObject@@UBEXXZ			; CObject::AssertValid
PUBLIC	?Dump@CObject@@UBEXAAVCDumpContext@@@Z		; CObject::Dump
PUBLIC	??1CGdiObject@@UAE@XZ				; CGdiObject::~CGdiObject
PUBLIC	??_GCGdiObject@@UAEPAXI@Z			; CGdiObject::`scalar deleting destructor'
PUBLIC	??1CBitmap@@UAE@XZ				; CBitmap::~CBitmap
PUBLIC	??_GCBitmap@@UAEPAXI@Z				; CBitmap::`scalar deleting destructor'
PUBLIC	?_Tidy@?$deque@PAVCCoordinate@@V?$allocator@PAVCCoordinate@@@std@@@std@@AAEXXZ ; std::deque<CCoordinate *,std::allocator<CCoordinate *> >::_Tidy
PUBLIC	??1CElementPointList@@QAE@XZ			; CElementPointList::~CElementPointList
PUBLIC	??0CCurrentElementSet@@QAE@PAUIChartOCX133101@@ABVCBlockIndex@@ABV?$CStringT@DV?$StrTraitMFC_DLL@DV?$ChTraitsCRT@D@ATL@@@@@ATL@@2ABW4HORZSCALEDRAWERTYPE@CScaleBaseData@@PAVCWnd@@PAVCElement@@J@Z ; CCurrentElementSet::CCurrentElementSet
PUBLIC	?OnMenu@CCurrentElementSet@@QAE_NW4ELEMENTMENU@CMenuType@@I@Z ; CCurrentElementSet::OnMenu
PUBLIC	?OnMenu_Set@CCurrentElementSet@@AAE_N_N@Z	; CCurrentElementSet::OnMenu_Set
PUBLIC	?OnMenu_Pen@CCurrentElementSet@@AAE_NW4ELEMENTMENU@CMenuType@@I@Z ; CCurrentElementSet::OnMenu_Pen
PUBLIC	?OnMenu_Color@CCurrentElementSet@@AAEXABK@Z	; CCurrentElementSet::OnMenu_Color
PUBLIC	?OnMenu_Width@CCurrentElementSet@@AAEXH@Z	; CCurrentElementSet::OnMenu_Width
PUBLIC	?OnMenu_Style@CCurrentElementSet@@AAEXW4PenStyle@CToolEnumData@@@Z ; CCurrentElementSet::OnMenu_Style
PUBLIC	?AnalysisToolDialogLoad@CCurrentElementSet@@AAE_NXZ ; CCurrentElementSet::AnalysisToolDialogLoad
PUBLIC	?FiboSetDialogLoad@CCurrentElementSet@@AAE_NXZ	; CCurrentElementSet::FiboSetDialogLoad
PUBLIC	?BalanceBasicSetDialogLoad@CCurrentElementSet@@AAE_NXZ ; CCurrentElementSet::BalanceBasicSetDialogLoad
PUBLIC	?LoadResourceDLL@IMetaTable@@QAEPAUHINSTANCE__@@PAUHWND__@@PAU2@@Z ; IMetaTable::LoadResourceDLL
PUBLIC	??1CMultiLanguageResourceSetter@@QAE@XZ		; CMultiLanguageResourceSetter::~CMultiLanguageResourceSetter
PUBLIC	??1CDlgAnalysisToolSet@@UAE@XZ			; CDlgAnalysisToolSet::~CDlgAnalysisToolSet
PUBLIC	??1CDlgFiboSet@@UAE@XZ				; CDlgFiboSet::~CDlgFiboSet
PUBLIC	??1CDlgBalanceBasicSet@@UAE@XZ			; CDlgBalanceBasicSet::~CDlgBalanceBasicSet
PUBLIC	??_R0PAVCException@@@8				; CException * `RTTI Type Descriptor'
PUBLIC	??_7CGdiObject@@6B@				; CGdiObject::`vftable'
PUBLIC	??_7CBitmap@@6B@				; CBitmap::`vftable'
PUBLIC	??_C@_0HD@JJCHHHNK@C?3?2Program?5Files?5?$CIx86?$CJ?2Microsof@ ; `string'
PUBLIC	??_C@_0BP@OIEOKIDM@Exception?5thrown?5in?5destructor@ ; `string'
PUBLIC	??_C@_0BB@HBOOMJBF@?$CFTs?5?$CI?$CFTs?3?$CFd?$CJ?6?$CFTs@ ; `string'
PUBLIC	??_C@_0N@OMEMOKLE@?$CFTs?5?$CI?$CFTs?3?$CFd?$CJ@ ; `string'
PUBLIC	??_R0?AVCObject@@@8				; CObject `RTTI Type Descriptor'
PUBLIC	??_R3CObject@@8					; CObject::`RTTI Class Hierarchy Descriptor'
PUBLIC	??_R2CObject@@8					; CObject::`RTTI Base Class Array'
PUBLIC	??_R1A@?0A@EA@CObject@@8			; CObject::`RTTI Base Class Descriptor at (0,-1,0,64)'
PUBLIC	??_R4CGdiObject@@6B@				; CGdiObject::`RTTI Complete Object Locator'
PUBLIC	??_R0?AVCGdiObject@@@8				; CGdiObject `RTTI Type Descriptor'
PUBLIC	??_R3CGdiObject@@8				; CGdiObject::`RTTI Class Hierarchy Descriptor'
PUBLIC	??_R2CGdiObject@@8				; CGdiObject::`RTTI Base Class Array'
PUBLIC	??_R1A@?0A@EA@CGdiObject@@8			; CGdiObject::`RTTI Base Class Descriptor at (0,-1,0,64)'
PUBLIC	??_R4CBitmap@@6B@				; CBitmap::`RTTI Complete Object Locator'
PUBLIC	??_R0?AVCBitmap@@@8				; CBitmap `RTTI Type Descriptor'
PUBLIC	??_R3CBitmap@@8					; CBitmap::`RTTI Class Hierarchy Descriptor'
PUBLIC	??_R2CBitmap@@8					; CBitmap::`RTTI Base Class Array'
PUBLIC	??_R1A@?0A@EA@CBitmap@@8			; CBitmap::`RTTI Base Class Descriptor at (0,-1,0,64)'
PUBLIC	??_C@_0BA@ENJOCHIO@LoadResourceDLL@		; `string'
EXTRN	??3@YAXPAX@Z:PROC				; operator delete
EXTRN	??3@YAXPAXI@Z:PROC				; operator delete
EXTRN	?__global_delete@@YAXPAXI@Z:PROC		; __global_delete
EXTRN	___std_terminate:PROC
EXTRN	__imp___invalid_parameter_noinfo_noreturn:PROC
EXTRN	__imp__GetProcAddress@8:PROC
EXTRN	__imp__InvalidateRect@12:PROC
EXTRN	__imp_??0?$CStringT@DV?$StrTraitMFC_DLL@DV?$ChTraitsCRT@D@ATL@@@@@ATL@@QAE@XZ:PROC
EXTRN	__imp_??0?$CStringT@DV?$StrTraitMFC_DLL@DV?$ChTraitsCRT@D@ATL@@@@@ATL@@QAE@ABV01@@Z:PROC
EXTRN	__imp_??1?$CStringT@DV?$StrTraitMFC_DLL@DV?$ChTraitsCRT@D@ATL@@@@@ATL@@QAE@XZ:PROC
EXTRN	__imp_??4?$CStringT@DV?$StrTraitMFC_DLL@DV?$ChTraitsCRT@D@ATL@@@@@ATL@@QAEAAV01@ABV01@@Z:PROC
EXTRN	__imp_?Format@?$CStringT@DV?$StrTraitMFC_DLL@DV?$ChTraitsCRT@D@ATL@@@@@ATL@@QAAXPBDZZ:PROC
EXTRN	?AfxGetModuleState@@YGPAVAFX_MODULE_STATE@@XZ:PROC ; AfxGetModuleState
EXTRN	?AfxGetStaticModuleState@@YGPAVAFX_MODULE_STATE@@XZ:PROC ; AfxGetStaticModuleState
EXTRN	?GetRuntimeClass@CGdiObject@@UBEPAUCRuntimeClass@@XZ:PROC ; CGdiObject::GetRuntimeClass
EXTRN	?DeleteObject@CGdiObject@@QAEHXZ:PROC		; CGdiObject::DeleteObject
EXTRN	??_ECGdiObject@@UAEPAXI@Z:PROC			; CGdiObject::`vector deleting destructor'
EXTRN	?GetRuntimeClass@CBitmap@@UBEPAUCRuntimeClass@@XZ:PROC ; CBitmap::GetRuntimeClass
EXTRN	??_ECBitmap@@UAEPAXI@Z:PROC			; CBitmap::`vector deleting destructor'
EXTRN	?DoModal@CDialog@@UAEHXZ:PROC			; CDialog::DoModal
EXTRN	??1CDialog@@UAE@XZ:PROC				; CDialog::~CDialog
EXTRN	??1CButton@@UAE@XZ:PROC				; CButton::~CButton
EXTRN	??1CComboBox@@UAE@XZ:PROC			; CComboBox::~CComboBox
EXTRN	??1CEdit@@UAE@XZ:PROC				; CEdit::~CEdit
EXTRN	?AfxMessageBox@@YGHPBDII@Z:PROC			; AfxMessageBox
EXTRN	??1CDateTimeCtrl@@UAE@XZ:PROC			; CDateTimeCtrl::~CDateTimeCtrl
EXTRN	?SetColor@CPenEnvironment@@QAEXABK@Z:PROC	; CPenEnvironment::SetColor
EXTRN	?SetWidth@CPenEnvironment@@QAEXH@Z:PROC		; CPenEnvironment::SetWidth
EXTRN	?SetStyle@CPenEnvironment@@QAEXW4PenStyle@CToolEnumData@@@Z:PROC ; CPenEnvironment::SetStyle
EXTRN	?GetEquiDiv@CElementCommonEnvironment@@QAEAAHXZ:PROC ; CElementCommonEnvironment::GetEquiDiv
EXTRN	?GetPriceRangeDiv@CElementCommonEnvironment@@QAEAAHXZ:PROC ; CElementCommonEnvironment::GetPriceRangeDiv
EXTRN	?GetLineExt@CElementCommonEnvironment@@QAEAAVCLineExtEnvironment@@XZ:PROC ; CElementCommonEnvironment::GetLineExt
EXTRN	?GetPen@CElementCommonEnvironment@@QAEAAVCPenEnvironment@@XZ:PROC ; CElementCommonEnvironment::GetPen
EXTRN	?GetDataType@CElementCommonEnvironment@@QAEAAVCDataTypeEnvironment@@XZ:PROC ; CElementCommonEnvironment::GetDataType
EXTRN	?GetCommonEnvironment@CElement@@QAEAAVCElementCommonEnvironment@@XZ:PROC ; CElement::GetCommonEnvironment
EXTRN	??0CElementPointList@@QAE@XZ:PROC		; CElementPointList::CElementPointList
EXTRN	??0CDlgAnalysisToolSet@@QAE@PAVCWnd@@ABV?$CStringT@DV?$StrTraitMFC_DLL@DV?$ChTraitsCRT@D@ATL@@@@@ATL@@ABW4HORZSCALEDRAWERTYPE@CScaleBaseData@@HPAH3PAVCTextPosition@@PAVCPenEnvironment@@PAVCElementPointList@@PAVCLineExtEnvironment@@PAVCDataTypeEnvironment@@PAUIChartOCX133101@@AAVCBlockIndex@@V23@J@Z:PROC ; CDlgAnalysisToolSet::CDlgAnalysisToolSet
EXTRN	??0CDlgFiboSet@@QAE@PAVCWnd@@ABV?$CStringT@DV?$StrTraitMFC_DLL@DV?$ChTraitsCRT@D@ATL@@@@@ATL@@ABW4HORZSCALEDRAWERTYPE@CScaleBaseData@@HPAH3PAVCTextPosition@@PAVCPenEnvironment@@PAVCElementPointList@@PAVCLineExtEnvironment@@PAVCDataTypeEnvironment@@PAUIChartOCX133101@@AAVCBlockIndex@@V23@@Z:PROC ; CDlgFiboSet::CDlgFiboSet
EXTRN	??0CDlgBalanceBasicSet@@QAE@PAVCWnd@@ABV?$CStringT@DV?$StrTraitMFC_DLL@DV?$ChTraitsCRT@D@ATL@@@@@ATL@@ABW4HORZSCALEDRAWERTYPE@CScaleBaseData@@HPAVCTextPosition@@PAVCPenEnvironment@@PAVCElementPointList@@PAVCLineExtEnvironment@@PAVCDataTypeEnvironment@@@Z:PROC ; CDlgBalanceBasicSet::CDlgBalanceBasicSet
EXTRN	@__security_check_cookie@4:PROC
EXTRN	___CxxFrameHandler3:PROC
EXTRN	??_7type_info@@6B@:QWORD			; type_info::`vftable'
EXTRN	?g_iMetaTable@@3VIMetaTable@@A:BYTE		; g_iMetaTable
EXTRN	___security_cookie:DWORD
;	COMDAT ??_C@_0BA@ENJOCHIO@LoadResourceDLL@
CONST	SEGMENT
??_C@_0BA@ENJOCHIO@LoadResourceDLL@ DB 'LoadResourceDLL', 00H ; `string'
CONST	ENDS
;	COMDAT ??_R1A@?0A@EA@CBitmap@@8
rdata$r	SEGMENT
??_R1A@?0A@EA@CBitmap@@8 DD FLAT:??_R0?AVCBitmap@@@8	; CBitmap::`RTTI Base Class Descriptor at (0,-1,0,64)'
	DD	02H
	DD	00H
	DD	0ffffffffH
	DD	00H
	DD	040H
	DD	FLAT:??_R3CBitmap@@8
rdata$r	ENDS
;	COMDAT ??_R2CBitmap@@8
rdata$r	SEGMENT
??_R2CBitmap@@8 DD FLAT:??_R1A@?0A@EA@CBitmap@@8	; CBitmap::`RTTI Base Class Array'
	DD	FLAT:??_R1A@?0A@EA@CGdiObject@@8
	DD	FLAT:??_R1A@?0A@EA@CObject@@8
rdata$r	ENDS
;	COMDAT ??_R3CBitmap@@8
rdata$r	SEGMENT
??_R3CBitmap@@8 DD 00H					; CBitmap::`RTTI Class Hierarchy Descriptor'
	DD	00H
	DD	03H
	DD	FLAT:??_R2CBitmap@@8
rdata$r	ENDS
;	COMDAT ??_R0?AVCBitmap@@@8
data$rs	SEGMENT
??_R0?AVCBitmap@@@8 DD FLAT:??_7type_info@@6B@		; CBitmap `RTTI Type Descriptor'
	DD	00H
	DB	'.?AVCBitmap@@', 00H
data$rs	ENDS
;	COMDAT ??_R4CBitmap@@6B@
rdata$r	SEGMENT
??_R4CBitmap@@6B@ DD 00H				; CBitmap::`RTTI Complete Object Locator'
	DD	00H
	DD	00H
	DD	FLAT:??_R0?AVCBitmap@@@8
	DD	FLAT:??_R3CBitmap@@8
rdata$r	ENDS
;	COMDAT ??_R1A@?0A@EA@CGdiObject@@8
rdata$r	SEGMENT
??_R1A@?0A@EA@CGdiObject@@8 DD FLAT:??_R0?AVCGdiObject@@@8 ; CGdiObject::`RTTI Base Class Descriptor at (0,-1,0,64)'
	DD	01H
	DD	00H
	DD	0ffffffffH
	DD	00H
	DD	040H
	DD	FLAT:??_R3CGdiObject@@8
rdata$r	ENDS
;	COMDAT ??_R2CGdiObject@@8
rdata$r	SEGMENT
??_R2CGdiObject@@8 DD FLAT:??_R1A@?0A@EA@CGdiObject@@8	; CGdiObject::`RTTI Base Class Array'
	DD	FLAT:??_R1A@?0A@EA@CObject@@8
rdata$r	ENDS
;	COMDAT ??_R3CGdiObject@@8
rdata$r	SEGMENT
??_R3CGdiObject@@8 DD 00H				; CGdiObject::`RTTI Class Hierarchy Descriptor'
	DD	00H
	DD	02H
	DD	FLAT:??_R2CGdiObject@@8
rdata$r	ENDS
;	COMDAT ??_R0?AVCGdiObject@@@8
data$rs	SEGMENT
??_R0?AVCGdiObject@@@8 DD FLAT:??_7type_info@@6B@	; CGdiObject `RTTI Type Descriptor'
	DD	00H
	DB	'.?AVCGdiObject@@', 00H
data$rs	ENDS
;	COMDAT ??_R4CGdiObject@@6B@
rdata$r	SEGMENT
??_R4CGdiObject@@6B@ DD 00H				; CGdiObject::`RTTI Complete Object Locator'
	DD	00H
	DD	00H
	DD	FLAT:??_R0?AVCGdiObject@@@8
	DD	FLAT:??_R3CGdiObject@@8
rdata$r	ENDS
;	COMDAT ??_R1A@?0A@EA@CObject@@8
rdata$r	SEGMENT
??_R1A@?0A@EA@CObject@@8 DD FLAT:??_R0?AVCObject@@@8	; CObject::`RTTI Base Class Descriptor at (0,-1,0,64)'
	DD	00H
	DD	00H
	DD	0ffffffffH
	DD	00H
	DD	040H
	DD	FLAT:??_R3CObject@@8
rdata$r	ENDS
;	COMDAT ??_R2CObject@@8
rdata$r	SEGMENT
??_R2CObject@@8 DD FLAT:??_R1A@?0A@EA@CObject@@8	; CObject::`RTTI Base Class Array'
rdata$r	ENDS
;	COMDAT ??_R3CObject@@8
rdata$r	SEGMENT
??_R3CObject@@8 DD 00H					; CObject::`RTTI Class Hierarchy Descriptor'
	DD	00H
	DD	01H
	DD	FLAT:??_R2CObject@@8
rdata$r	ENDS
;	COMDAT ??_R0?AVCObject@@@8
data$rs	SEGMENT
??_R0?AVCObject@@@8 DD FLAT:??_7type_info@@6B@		; CObject `RTTI Type Descriptor'
	DD	00H
	DB	'.?AVCObject@@', 00H
data$rs	ENDS
;	COMDAT ??_C@_0N@OMEMOKLE@?$CFTs?5?$CI?$CFTs?3?$CFd?$CJ@
CONST	SEGMENT
??_C@_0N@OMEMOKLE@?$CFTs?5?$CI?$CFTs?3?$CFd?$CJ@ DB '%Ts (%Ts:%d)', 00H ; `string'
CONST	ENDS
;	COMDAT ??_C@_0BB@HBOOMJBF@?$CFTs?5?$CI?$CFTs?3?$CFd?$CJ?6?$CFTs@
CONST	SEGMENT
??_C@_0BB@HBOOMJBF@?$CFTs?5?$CI?$CFTs?3?$CFd?$CJ?6?$CFTs@ DB '%Ts (%Ts:%d'
	DB	')', 0aH, '%Ts', 00H				; `string'
CONST	ENDS
;	COMDAT ??_C@_0BP@OIEOKIDM@Exception?5thrown?5in?5destructor@
CONST	SEGMENT
??_C@_0BP@OIEOKIDM@Exception?5thrown?5in?5destructor@ DB 'Exception throw'
	DB	'n in destructor', 00H			; `string'
CONST	ENDS
;	COMDAT ??_C@_0HD@JJCHHHNK@C?3?2Program?5Files?5?$CIx86?$CJ?2Microsof@
CONST	SEGMENT
??_C@_0HD@JJCHHHNK@C?3?2Program?5Files?5?$CIx86?$CJ?2Microsof@ DB 'C:\Pro'
	DB	'gram Files (x86)\Microsoft Visual Studio\2019\Community\VC\To'
	DB	'ols\MSVC\14.29.30133\atlmfc\include\afxwin1.inl', 00H ; `string'
CONST	ENDS
;	COMDAT ??_7CBitmap@@6B@
CONST	SEGMENT
??_7CBitmap@@6B@ DD FLAT:??_R4CBitmap@@6B@		; CBitmap::`vftable'
	DD	FLAT:?GetRuntimeClass@CBitmap@@UBEPAUCRuntimeClass@@XZ
	DD	FLAT:??_ECBitmap@@UAEPAXI@Z
	DD	FLAT:?Serialize@CObject@@UAEXAAVCArchive@@@Z
	DD	FLAT:?AssertValid@CObject@@UBEXXZ
	DD	FLAT:?Dump@CObject@@UBEXAAVCDumpContext@@@Z
CONST	ENDS
;	COMDAT ??_7CGdiObject@@6B@
CONST	SEGMENT
??_7CGdiObject@@6B@ DD FLAT:??_R4CGdiObject@@6B@	; CGdiObject::`vftable'
	DD	FLAT:?GetRuntimeClass@CGdiObject@@UBEPAUCRuntimeClass@@XZ
	DD	FLAT:??_ECGdiObject@@UAEPAXI@Z
	DD	FLAT:?Serialize@CObject@@UAEXAAVCArchive@@@Z
	DD	FLAT:?AssertValid@CObject@@UBEXXZ
	DD	FLAT:?Dump@CObject@@UBEXAAVCDumpContext@@@Z
CONST	ENDS
;	COMDAT ??_R0PAVCException@@@8
data$r	SEGMENT
??_R0PAVCException@@@8 DD FLAT:??_7type_info@@6B@	; CException * `RTTI Type Descriptor'
	DD	00H
	DB	'.PAVCException@@', 00H
data$r	ENDS
;	COMDAT xdata$x
xdata$x	SEGMENT
__ehfuncinfo$??1CMultiLanguageResourceSetter@@QAE@XZ DD 019930522H
	DD	00H
	DD	00H
	DD	2 DUP(00H)
	DD	2 DUP(00H)
	DD	00H
	DD	05H
xdata$x	ENDS
;	COMDAT xdata$x
xdata$x	SEGMENT
__unwindtable$?BalanceBasicSetDialogLoad@CCurrentElementSet@@AAE_NXZ DD 0ffffffffH
	DD	FLAT:__unwindfunclet$?BalanceBasicSetDialogLoad@CCurrentElementSet@@AAE_NXZ$0
	DD	00H
	DD	FLAT:__unwindfunclet$?BalanceBasicSetDialogLoad@CCurrentElementSet@@AAE_NXZ$1
	DD	01H
	DD	FLAT:__unwindfunclet$?BalanceBasicSetDialogLoad@CCurrentElementSet@@AAE_NXZ$2
	DD	00H
	DD	FLAT:___std_terminate
__ehfuncinfo$?BalanceBasicSetDialogLoad@CCurrentElementSet@@AAE_NXZ DD 019930522H
	DD	04H
	DD	FLAT:__unwindtable$?BalanceBasicSetDialogLoad@CCurrentElementSet@@AAE_NXZ
	DD	2 DUP(00H)
	DD	2 DUP(00H)
	DD	00H
	DD	01H
xdata$x	ENDS
;	COMDAT xdata$x
xdata$x	SEGMENT
__ehfuncinfo$?FiboSetDialogLoad@CCurrentElementSet@@AAE_NXZ DD 019930522H
	DD	05H
	DD	FLAT:__unwindtable$?FiboSetDialogLoad@CCurrentElementSet@@AAE_NXZ
	DD	2 DUP(00H)
	DD	2 DUP(00H)
	DD	00H
	DD	01H
__unwindtable$?FiboSetDialogLoad@CCurrentElementSet@@AAE_NXZ DD 0ffffffffH
	DD	FLAT:__unwindfunclet$?FiboSetDialogLoad@CCurrentElementSet@@AAE_NXZ$0
	DD	00H
	DD	FLAT:__unwindfunclet$?FiboSetDialogLoad@CCurrentElementSet@@AAE_NXZ$1
	DD	01H
	DD	FLAT:__unwindfunclet$?FiboSetDialogLoad@CCurrentElementSet@@AAE_NXZ$2
	DD	01H
	DD	FLAT:__unwindfunclet$?FiboSetDialogLoad@CCurrentElementSet@@AAE_NXZ$3
	DD	00H
	DD	FLAT:___std_terminate
xdata$x	ENDS
;	COMDAT xdata$x
xdata$x	SEGMENT
__ehfuncinfo$?AnalysisToolDialogLoad@CCurrentElementSet@@AAE_NXZ DD 019930522H
	DD	05H
	DD	FLAT:__unwindtable$?AnalysisToolDialogLoad@CCurrentElementSet@@AAE_NXZ
	DD	2 DUP(00H)
	DD	2 DUP(00H)
	DD	00H
	DD	01H
__unwindtable$?AnalysisToolDialogLoad@CCurrentElementSet@@AAE_NXZ DD 0ffffffffH
	DD	FLAT:__unwindfunclet$?AnalysisToolDialogLoad@CCurrentElementSet@@AAE_NXZ$0
	DD	00H
	DD	FLAT:__unwindfunclet$?AnalysisToolDialogLoad@CCurrentElementSet@@AAE_NXZ$1
	DD	01H
	DD	FLAT:__unwindfunclet$?AnalysisToolDialogLoad@CCurrentElementSet@@AAE_NXZ$2
	DD	01H
	DD	FLAT:__unwindfunclet$?AnalysisToolDialogLoad@CCurrentElementSet@@AAE_NXZ$3
	DD	00H
	DD	FLAT:___std_terminate
xdata$x	ENDS
;	COMDAT xdata$x
xdata$x	SEGMENT
__unwindtable$??0CCurrentElementSet@@QAE@PAUIChartOCX133101@@ABVCBlockIndex@@ABV?$CStringT@DV?$StrTraitMFC_DLL@DV?$ChTraitsCRT@D@ATL@@@@@ATL@@2ABW4HORZSCALEDRAWERTYPE@CScaleBaseData@@PAVCWnd@@PAVCElement@@J@Z DD 0ffffffffH
	DD	FLAT:__unwindfunclet$??0CCurrentElementSet@@QAE@PAUIChartOCX133101@@ABVCBlockIndex@@ABV?$CStringT@DV?$StrTraitMFC_DLL@DV?$ChTraitsCRT@D@ATL@@@@@ATL@@2ABW4HORZSCALEDRAWERTYPE@CScaleBaseData@@PAVCWnd@@PAVCElement@@J@Z$0
	DD	00H
	DD	FLAT:__unwindfunclet$??0CCurrentElementSet@@QAE@PAUIChartOCX133101@@ABVCBlockIndex@@ABV?$CStringT@DV?$StrTraitMFC_DLL@DV?$ChTraitsCRT@D@ATL@@@@@ATL@@2ABW4HORZSCALEDRAWERTYPE@CScaleBaseData@@PAVCWnd@@PAVCElement@@J@Z$1
__ehfuncinfo$??0CCurrentElementSet@@QAE@PAUIChartOCX133101@@ABVCBlockIndex@@ABV?$CStringT@DV?$StrTraitMFC_DLL@DV?$ChTraitsCRT@D@ATL@@@@@ATL@@2ABW4HORZSCALEDRAWERTYPE@CScaleBaseData@@PAVCWnd@@PAVCElement@@J@Z DD 019930522H
	DD	02H
	DD	FLAT:__unwindtable$??0CCurrentElementSet@@QAE@PAUIChartOCX133101@@ABVCBlockIndex@@ABV?$CStringT@DV?$StrTraitMFC_DLL@DV?$ChTraitsCRT@D@ATL@@@@@ATL@@2ABW4HORZSCALEDRAWERTYPE@CScaleBaseData@@PAVCWnd@@PAVCElement@@J@Z
	DD	2 DUP(00H)
	DD	2 DUP(00H)
	DD	00H
	DD	01H
xdata$x	ENDS
;	COMDAT xdata$x
xdata$x	SEGMENT
__catchsym$??1CGdiObject@@UAE@XZ$3 DD 00H
	DD	FLAT:??_R0PAVCException@@@8
	DD	0fffffde4H
	DD	FLAT:__catch$??1CGdiObject@@UAE@XZ$0
__tryblocktable$??1CGdiObject@@UAE@XZ DD 00H
	DD	00H
	DD	02H
	DD	01H
	DD	FLAT:__catchsym$??1CGdiObject@@UAE@XZ$3
__unwindtable$??1CGdiObject@@UAE@XZ DD 0ffffffffH
	DD	00H
	DD	0ffffffffH
	DD	00H
	DD	01H
	DD	FLAT:__unwindfunclet$??1CGdiObject@@UAE@XZ$2
__ehfuncinfo$??1CGdiObject@@UAE@XZ DD 019930522H
	DD	03H
	DD	FLAT:__unwindtable$??1CGdiObject@@UAE@XZ
	DD	01H
	DD	FLAT:__tryblocktable$??1CGdiObject@@UAE@XZ
	DD	2 DUP(00H)
	DD	00H
	DD	05H
xdata$x	ENDS
; Function compile flags: /Ogtp
; File C:\Program Files (x86)\Microsoft Visual Studio\2019\Community\VC\Tools\MSVC\14.29.30133\include\deque
; File C:\Program Files (x86)\Microsoft Visual Studio\2019\Community\VC\Tools\MSVC\14.29.30133\include\utility
; File C:\Program Files (x86)\Microsoft Visual Studio\2019\Community\VC\Tools\MSVC\14.29.30133\include\xmemory
; File C:\Program Files (x86)\Microsoft Visual Studio\2019\Community\VC\Tools\MSVC\14.29.30133\include\utility
; File C:\Program Files (x86)\Microsoft Visual Studio\2019\Community\VC\Tools\MSVC\14.29.30133\include\xmemory
; File C:\Program Files (x86)\Microsoft Visual Studio\2019\Community\VC\Tools\MSVC\14.29.30133\atlmfc\include\afxwin1.inl
;	COMDAT ??1CDlgBalanceBasicSet@@UAE@XZ
_TEXT	SEGMENT
??1CDlgBalanceBasicSet@@UAE@XZ PROC			; CDlgBalanceBasicSet::~CDlgBalanceBasicSet, COMDAT
; _this$ = ecx
; File C:\Program Files (x86)\Microsoft Visual Studio\2019\Community\VC\Tools\MSVC\14.29.30133\include\deque

; 1332 :         _Tidy();

  00000	56		 push	 esi
  00001	57		 push	 edi
  00002	8b f9		 mov	 edi, ecx
  00004	8d 8f 60 05 00
	00		 lea	 ecx, DWORD PTR [edi+1376]
  0000a	e8 00 00 00 00	 call	 ?_Tidy@?$deque@PAVCCoordinate@@V?$allocator@PAVCCoordinate@@@std@@@std@@AAEXXZ ; std::deque<CCoordinate *,std::allocator<CCoordinate *> >::_Tidy

; 861  :         _Tidy();

  0000f	8d 8f 60 05 00
	00		 lea	 ecx, DWORD PTR [edi+1376]
  00015	e8 00 00 00 00	 call	 ?_Tidy@?$deque@PAVCCoordinate@@V?$allocator@PAVCCoordinate@@@std@@@std@@AAEXXZ ; std::deque<CCoordinate *,std::allocator<CCoordinate *> >::_Tidy
; File C:\Program Files (x86)\Microsoft Visual Studio\2019\Community\VC\Tools\MSVC\14.29.30133\include\utility

; 602  :     _Ty _Old_val = static_cast<_Ty&&>(_Val);

  0001a	8b 87 60 05 00
	00		 mov	 eax, DWORD PTR [edi+1376]
; File C:\Program Files (x86)\Microsoft Visual Studio\2019\Community\VC\Tools\MSVC\14.29.30133\include\xmemory

; 255  :         ::operator delete(_Ptr, _Bytes);

  00020	6a 08		 push	 8
  00022	50		 push	 eax
; File C:\Program Files (x86)\Microsoft Visual Studio\2019\Community\VC\Tools\MSVC\14.29.30133\include\utility

; 603  :     _Val         = static_cast<_Other&&>(_New_val);

  00023	c7 87 60 05 00
	00 00 00 00 00	 mov	 DWORD PTR [edi+1376], 0
; File C:\Program Files (x86)\Microsoft Visual Studio\2019\Community\VC\Tools\MSVC\14.29.30133\include\xmemory

; 255  :         ::operator delete(_Ptr, _Bytes);

  0002d	e8 00 00 00 00	 call	 ??3@YAXPAXI@Z		; operator delete
  00032	83 c4 08	 add	 esp, 8
  00035	8d 8f 50 05 00
	00		 lea	 ecx, DWORD PTR [edi+1360]
  0003b	ff 15 00 00 00
	00		 call	 DWORD PTR __imp_??1?$CStringT@DV?$StrTraitMFC_DLL@DV?$ChTraitsCRT@D@ATL@@@@@ATL@@QAE@XZ
  00041	8d 8f dc 04 00
	00		 lea	 ecx, DWORD PTR [edi+1244]
  00047	ff 15 00 00 00
	00		 call	 DWORD PTR __imp_??1?$CStringT@DV?$StrTraitMFC_DLL@DV?$ChTraitsCRT@D@ATL@@@@@ATL@@QAE@XZ
  0004d	8d 8f 50 04 00
	00		 lea	 ecx, DWORD PTR [edi+1104]
  00053	e8 00 00 00 00	 call	 ??1CButton@@UAE@XZ	; CButton::~CButton
  00058	8d 8f d0 03 00
	00		 lea	 ecx, DWORD PTR [edi+976]
  0005e	e8 00 00 00 00	 call	 ??1CButton@@UAE@XZ	; CButton::~CButton
  00063	8d 8f 50 03 00
	00		 lea	 ecx, DWORD PTR [edi+848]
  00069	e8 00 00 00 00	 call	 ??1CButton@@UAE@XZ	; CButton::~CButton
  0006e	8d 8f 44 03 00
	00		 lea	 ecx, DWORD PTR [edi+836]
; File C:\Program Files (x86)\Microsoft Visual Studio\2019\Community\VC\Tools\MSVC\14.29.30133\atlmfc\include\afxwin1.inl

; 179  : 	{ }

  00074	c7 01 00 00 00
	00		 mov	 DWORD PTR [ecx], OFFSET ??_7CBitmap@@6B@
  0007a	e8 00 00 00 00	 call	 ??1CGdiObject@@UAE@XZ	; CGdiObject::~CGdiObject
  0007f	8d 8f c0 02 00
	00		 lea	 ecx, DWORD PTR [edi+704]
  00085	e8 00 00 00 00	 call	 ??1CComboBox@@UAE@XZ	; CComboBox::~CComboBox
  0008a	8d 8f b4 02 00
	00		 lea	 ecx, DWORD PTR [edi+692]
  00090	c7 01 00 00 00
	00		 mov	 DWORD PTR [ecx], OFFSET ??_7CBitmap@@6B@
  00096	e8 00 00 00 00	 call	 ??1CGdiObject@@UAE@XZ	; CGdiObject::~CGdiObject
  0009b	8d 8f 30 02 00
	00		 lea	 ecx, DWORD PTR [edi+560]
  000a1	e8 00 00 00 00	 call	 ??1CComboBox@@UAE@XZ	; CComboBox::~CComboBox
  000a6	8d 8f a8 01 00
	00		 lea	 ecx, DWORD PTR [edi+424]
  000ac	e8 00 00 00 00	 call	 ??1CButton@@UAE@XZ	; CButton::~CButton
  000b1	8d 8f 28 01 00
	00		 lea	 ecx, DWORD PTR [edi+296]
  000b7	e8 00 00 00 00	 call	 ??1CEdit@@UAE@XZ	; CEdit::~CEdit
  000bc	8d 8f a8 00 00
	00		 lea	 ecx, DWORD PTR [edi+168]
  000c2	e8 00 00 00 00	 call	 ??1CDateTimeCtrl@@UAE@XZ ; CDateTimeCtrl::~CDateTimeCtrl
  000c7	8b cf		 mov	 ecx, edi
  000c9	5f		 pop	 edi
  000ca	5e		 pop	 esi
  000cb	e9 00 00 00 00	 jmp	 ??1CDialog@@UAE@XZ	; CDialog::~CDialog
??1CDlgBalanceBasicSet@@UAE@XZ ENDP			; CDlgBalanceBasicSet::~CDlgBalanceBasicSet
_TEXT	ENDS
; Function compile flags: /Ogtp
; File C:\Program Files (x86)\Microsoft Visual Studio\2019\Community\VC\Tools\MSVC\14.29.30133\include\deque
; File C:\Program Files (x86)\Microsoft Visual Studio\2019\Community\VC\Tools\MSVC\14.29.30133\include\utility
; File C:\Program Files (x86)\Microsoft Visual Studio\2019\Community\VC\Tools\MSVC\14.29.30133\include\xmemory
; File C:\Program Files (x86)\Microsoft Visual Studio\2019\Community\VC\Tools\MSVC\14.29.30133\include\utility
; File C:\Program Files (x86)\Microsoft Visual Studio\2019\Community\VC\Tools\MSVC\14.29.30133\include\xmemory
; File C:\Program Files (x86)\Microsoft Visual Studio\2019\Community\VC\Tools\MSVC\14.29.30133\atlmfc\include\afxwin1.inl
;	COMDAT ??1CDlgFiboSet@@UAE@XZ
_TEXT	SEGMENT
??1CDlgFiboSet@@UAE@XZ PROC				; CDlgFiboSet::~CDlgFiboSet, COMDAT
; _this$ = ecx
; File C:\Program Files (x86)\Microsoft Visual Studio\2019\Community\VC\Tools\MSVC\14.29.30133\include\deque

; 1332 :         _Tidy();

  00000	56		 push	 esi
  00001	57		 push	 edi
  00002	8b f9		 mov	 edi, ecx
  00004	8d 8f 70 0c 00
	00		 lea	 ecx, DWORD PTR [edi+3184]
  0000a	e8 00 00 00 00	 call	 ?_Tidy@?$deque@PAVCCoordinate@@V?$allocator@PAVCCoordinate@@@std@@@std@@AAEXXZ ; std::deque<CCoordinate *,std::allocator<CCoordinate *> >::_Tidy

; 861  :         _Tidy();

  0000f	8d 8f 70 0c 00
	00		 lea	 ecx, DWORD PTR [edi+3184]
  00015	e8 00 00 00 00	 call	 ?_Tidy@?$deque@PAVCCoordinate@@V?$allocator@PAVCCoordinate@@@std@@@std@@AAEXXZ ; std::deque<CCoordinate *,std::allocator<CCoordinate *> >::_Tidy
; File C:\Program Files (x86)\Microsoft Visual Studio\2019\Community\VC\Tools\MSVC\14.29.30133\include\utility

; 602  :     _Ty _Old_val = static_cast<_Ty&&>(_Val);

  0001a	8b 87 70 0c 00
	00		 mov	 eax, DWORD PTR [edi+3184]
; File C:\Program Files (x86)\Microsoft Visual Studio\2019\Community\VC\Tools\MSVC\14.29.30133\include\xmemory

; 255  :         ::operator delete(_Ptr, _Bytes);

  00020	6a 08		 push	 8
  00022	50		 push	 eax
; File C:\Program Files (x86)\Microsoft Visual Studio\2019\Community\VC\Tools\MSVC\14.29.30133\include\utility

; 603  :     _Val         = static_cast<_Other&&>(_New_val);

  00023	c7 87 70 0c 00
	00 00 00 00 00	 mov	 DWORD PTR [edi+3184], 0
; File C:\Program Files (x86)\Microsoft Visual Studio\2019\Community\VC\Tools\MSVC\14.29.30133\include\xmemory

; 255  :         ::operator delete(_Ptr, _Bytes);

  0002d	e8 00 00 00 00	 call	 ??3@YAXPAXI@Z		; operator delete
  00032	83 c4 08	 add	 esp, 8
  00035	8d 8f 60 0c 00
	00		 lea	 ecx, DWORD PTR [edi+3168]
  0003b	ff 15 00 00 00
	00		 call	 DWORD PTR __imp_??1?$CStringT@DV?$StrTraitMFC_DLL@DV?$ChTraitsCRT@D@ATL@@@@@ATL@@QAE@XZ
  00041	8d 8f ec 0b 00
	00		 lea	 ecx, DWORD PTR [edi+3052]
  00047	ff 15 00 00 00
	00		 call	 DWORD PTR __imp_??1?$CStringT@DV?$StrTraitMFC_DLL@DV?$ChTraitsCRT@D@ATL@@@@@ATL@@QAE@XZ
  0004d	8d 8f e8 0b 00
	00		 lea	 ecx, DWORD PTR [edi+3048]
  00053	ff 15 00 00 00
	00		 call	 DWORD PTR __imp_??1?$CStringT@DV?$StrTraitMFC_DLL@DV?$ChTraitsCRT@D@ATL@@@@@ATL@@QAE@XZ
  00059	8d 8f 50 0b 00
	00		 lea	 ecx, DWORD PTR [edi+2896]
  0005f	e8 00 00 00 00	 call	 ??1CDateTimeCtrl@@UAE@XZ ; CDateTimeCtrl::~CDateTimeCtrl
  00064	8d 8f d0 0a 00
	00		 lea	 ecx, DWORD PTR [edi+2768]
  0006a	e8 00 00 00 00	 call	 ??1CDateTimeCtrl@@UAE@XZ ; CDateTimeCtrl::~CDateTimeCtrl
  0006f	8d 8f 50 0a 00
	00		 lea	 ecx, DWORD PTR [edi+2640]
  00075	e8 00 00 00 00	 call	 ??1CDateTimeCtrl@@UAE@XZ ; CDateTimeCtrl::~CDateTimeCtrl
  0007a	8d 8f d0 09 00
	00		 lea	 ecx, DWORD PTR [edi+2512]
  00080	e8 00 00 00 00	 call	 ??1CEdit@@UAE@XZ	; CEdit::~CEdit
  00085	8d 8f 50 09 00
	00		 lea	 ecx, DWORD PTR [edi+2384]
  0008b	e8 00 00 00 00	 call	 ??1CEdit@@UAE@XZ	; CEdit::~CEdit
  00090	8d 8f d0 08 00
	00		 lea	 ecx, DWORD PTR [edi+2256]
  00096	e8 00 00 00 00	 call	 ??1CEdit@@UAE@XZ	; CEdit::~CEdit
  0009b	8d 8f 50 08 00
	00		 lea	 ecx, DWORD PTR [edi+2128]
  000a1	e8 00 00 00 00	 call	 ??1CEdit@@UAE@XZ	; CEdit::~CEdit
  000a6	8d 8f d0 07 00
	00		 lea	 ecx, DWORD PTR [edi+2000]
  000ac	e8 00 00 00 00	 call	 ??1CEdit@@UAE@XZ	; CEdit::~CEdit
  000b1	8d 8f 50 07 00
	00		 lea	 ecx, DWORD PTR [edi+1872]
  000b7	e8 00 00 00 00	 call	 ??1CEdit@@UAE@XZ	; CEdit::~CEdit
  000bc	8d 8f d0 06 00
	00		 lea	 ecx, DWORD PTR [edi+1744]
  000c2	e8 00 00 00 00	 call	 ??1CButton@@UAE@XZ	; CButton::~CButton
  000c7	8d 8f 50 06 00
	00		 lea	 ecx, DWORD PTR [edi+1616]
  000cd	e8 00 00 00 00	 call	 ??1CButton@@UAE@XZ	; CButton::~CButton
  000d2	8d 8f d0 05 00
	00		 lea	 ecx, DWORD PTR [edi+1488]
  000d8	e8 00 00 00 00	 call	 ??1CButton@@UAE@XZ	; CButton::~CButton
  000dd	8d 8f 50 05 00
	00		 lea	 ecx, DWORD PTR [edi+1360]
  000e3	e8 00 00 00 00	 call	 ??1CButton@@UAE@XZ	; CButton::~CButton
  000e8	8d 8f d0 04 00
	00		 lea	 ecx, DWORD PTR [edi+1232]
  000ee	e8 00 00 00 00	 call	 ??1CButton@@UAE@XZ	; CButton::~CButton
  000f3	8d 8f 50 04 00
	00		 lea	 ecx, DWORD PTR [edi+1104]
  000f9	e8 00 00 00 00	 call	 ??1CButton@@UAE@XZ	; CButton::~CButton
  000fe	8d 8f d0 03 00
	00		 lea	 ecx, DWORD PTR [edi+976]
  00104	e8 00 00 00 00	 call	 ??1CButton@@UAE@XZ	; CButton::~CButton
  00109	8d 8f 50 03 00
	00		 lea	 ecx, DWORD PTR [edi+848]
  0010f	e8 00 00 00 00	 call	 ??1CButton@@UAE@XZ	; CButton::~CButton
  00114	8d 8f d0 02 00
	00		 lea	 ecx, DWORD PTR [edi+720]
  0011a	e8 00 00 00 00	 call	 ??1CButton@@UAE@XZ	; CButton::~CButton
  0011f	8d 8f 48 02 00
	00		 lea	 ecx, DWORD PTR [edi+584]
  00125	e8 00 00 00 00	 call	 ??1CButton@@UAE@XZ	; CButton::~CButton
  0012a	8d 8f 3c 02 00
	00		 lea	 ecx, DWORD PTR [edi+572]
; File C:\Program Files (x86)\Microsoft Visual Studio\2019\Community\VC\Tools\MSVC\14.29.30133\atlmfc\include\afxwin1.inl

; 179  : 	{ }

  00130	c7 01 00 00 00
	00		 mov	 DWORD PTR [ecx], OFFSET ??_7CBitmap@@6B@
  00136	e8 00 00 00 00	 call	 ??1CGdiObject@@UAE@XZ	; CGdiObject::~CGdiObject
  0013b	8d 8f b8 01 00
	00		 lea	 ecx, DWORD PTR [edi+440]
  00141	e8 00 00 00 00	 call	 ??1CComboBox@@UAE@XZ	; CComboBox::~CComboBox
  00146	8d 8f ac 01 00
	00		 lea	 ecx, DWORD PTR [edi+428]
  0014c	c7 01 00 00 00
	00		 mov	 DWORD PTR [ecx], OFFSET ??_7CBitmap@@6B@
  00152	e8 00 00 00 00	 call	 ??1CGdiObject@@UAE@XZ	; CGdiObject::~CGdiObject
  00157	8d 8f 28 01 00
	00		 lea	 ecx, DWORD PTR [edi+296]
  0015d	e8 00 00 00 00	 call	 ??1CComboBox@@UAE@XZ	; CComboBox::~CComboBox
  00162	8d 8f a8 00 00
	00		 lea	 ecx, DWORD PTR [edi+168]
  00168	e8 00 00 00 00	 call	 ??1CButton@@UAE@XZ	; CButton::~CButton
  0016d	8b cf		 mov	 ecx, edi
  0016f	5f		 pop	 edi
  00170	5e		 pop	 esi
  00171	e9 00 00 00 00	 jmp	 ??1CDialog@@UAE@XZ	; CDialog::~CDialog
??1CDlgFiboSet@@UAE@XZ ENDP				; CDlgFiboSet::~CDlgFiboSet
_TEXT	ENDS
; Function compile flags: /Ogtp
; File C:\Program Files (x86)\Microsoft Visual Studio\2019\Community\VC\Tools\MSVC\14.29.30133\include\deque
; File C:\Program Files (x86)\Microsoft Visual Studio\2019\Community\VC\Tools\MSVC\14.29.30133\include\utility
; File C:\Program Files (x86)\Microsoft Visual Studio\2019\Community\VC\Tools\MSVC\14.29.30133\include\xmemory
; File C:\Program Files (x86)\Microsoft Visual Studio\2019\Community\VC\Tools\MSVC\14.29.30133\include\utility
; File C:\Program Files (x86)\Microsoft Visual Studio\2019\Community\VC\Tools\MSVC\14.29.30133\include\xmemory
; File C:\Program Files (x86)\Microsoft Visual Studio\2019\Community\VC\Tools\MSVC\14.29.30133\atlmfc\include\afxwin1.inl
;	COMDAT ??1CDlgAnalysisToolSet@@UAE@XZ
_TEXT	SEGMENT
??1CDlgAnalysisToolSet@@UAE@XZ PROC			; CDlgAnalysisToolSet::~CDlgAnalysisToolSet, COMDAT
; _this$ = ecx
; File C:\Program Files (x86)\Microsoft Visual Studio\2019\Community\VC\Tools\MSVC\14.29.30133\include\deque

; 1332 :         _Tidy();

  00000	56		 push	 esi
  00001	57		 push	 edi
  00002	8b f9		 mov	 edi, ecx
  00004	8d 8f e8 0c 00
	00		 lea	 ecx, DWORD PTR [edi+3304]
  0000a	e8 00 00 00 00	 call	 ?_Tidy@?$deque@PAVCCoordinate@@V?$allocator@PAVCCoordinate@@@std@@@std@@AAEXXZ ; std::deque<CCoordinate *,std::allocator<CCoordinate *> >::_Tidy

; 861  :         _Tidy();

  0000f	8d 8f e8 0c 00
	00		 lea	 ecx, DWORD PTR [edi+3304]
  00015	e8 00 00 00 00	 call	 ?_Tidy@?$deque@PAVCCoordinate@@V?$allocator@PAVCCoordinate@@@std@@@std@@AAEXXZ ; std::deque<CCoordinate *,std::allocator<CCoordinate *> >::_Tidy
; File C:\Program Files (x86)\Microsoft Visual Studio\2019\Community\VC\Tools\MSVC\14.29.30133\include\utility

; 602  :     _Ty _Old_val = static_cast<_Ty&&>(_Val);

  0001a	8b 87 e8 0c 00
	00		 mov	 eax, DWORD PTR [edi+3304]
; File C:\Program Files (x86)\Microsoft Visual Studio\2019\Community\VC\Tools\MSVC\14.29.30133\include\xmemory

; 255  :         ::operator delete(_Ptr, _Bytes);

  00020	6a 08		 push	 8
  00022	50		 push	 eax
; File C:\Program Files (x86)\Microsoft Visual Studio\2019\Community\VC\Tools\MSVC\14.29.30133\include\utility

; 603  :     _Val         = static_cast<_Other&&>(_New_val);

  00023	c7 87 e8 0c 00
	00 00 00 00 00	 mov	 DWORD PTR [edi+3304], 0
; File C:\Program Files (x86)\Microsoft Visual Studio\2019\Community\VC\Tools\MSVC\14.29.30133\include\xmemory

; 255  :         ::operator delete(_Ptr, _Bytes);

  0002d	e8 00 00 00 00	 call	 ??3@YAXPAXI@Z		; operator delete
  00032	83 c4 08	 add	 esp, 8
  00035	8d 8f d8 0c 00
	00		 lea	 ecx, DWORD PTR [edi+3288]
  0003b	ff 15 00 00 00
	00		 call	 DWORD PTR __imp_??1?$CStringT@DV?$StrTraitMFC_DLL@DV?$ChTraitsCRT@D@ATL@@@@@ATL@@QAE@XZ
  00041	8d 8f 68 0c 00
	00		 lea	 ecx, DWORD PTR [edi+3176]
  00047	ff 15 00 00 00
	00		 call	 DWORD PTR __imp_??1?$CStringT@DV?$StrTraitMFC_DLL@DV?$ChTraitsCRT@D@ATL@@@@@ATL@@QAE@XZ
  0004d	8d 8f 64 0c 00
	00		 lea	 ecx, DWORD PTR [edi+3172]
  00053	ff 15 00 00 00
	00		 call	 DWORD PTR __imp_??1?$CStringT@DV?$StrTraitMFC_DLL@DV?$ChTraitsCRT@D@ATL@@@@@ATL@@QAE@XZ
  00059	8d 8f d0 0b 00
	00		 lea	 ecx, DWORD PTR [edi+3024]
  0005f	e8 00 00 00 00	 call	 ??1CDateTimeCtrl@@UAE@XZ ; CDateTimeCtrl::~CDateTimeCtrl
  00064	8d 8f 50 0b 00
	00		 lea	 ecx, DWORD PTR [edi+2896]
  0006a	e8 00 00 00 00	 call	 ??1CDateTimeCtrl@@UAE@XZ ; CDateTimeCtrl::~CDateTimeCtrl
  0006f	8d 8f d0 0a 00
	00		 lea	 ecx, DWORD PTR [edi+2768]
  00075	e8 00 00 00 00	 call	 ??1CDateTimeCtrl@@UAE@XZ ; CDateTimeCtrl::~CDateTimeCtrl
  0007a	8d 8f 50 0a 00
	00		 lea	 ecx, DWORD PTR [edi+2640]
  00080	e8 00 00 00 00	 call	 ??1CEdit@@UAE@XZ	; CEdit::~CEdit
  00085	8d 8f d0 09 00
	00		 lea	 ecx, DWORD PTR [edi+2512]
  0008b	e8 00 00 00 00	 call	 ??1CEdit@@UAE@XZ	; CEdit::~CEdit
  00090	8d 8f 50 09 00
	00		 lea	 ecx, DWORD PTR [edi+2384]
  00096	e8 00 00 00 00	 call	 ??1CEdit@@UAE@XZ	; CEdit::~CEdit
  0009b	8d 8f d0 08 00
	00		 lea	 ecx, DWORD PTR [edi+2256]
  000a1	e8 00 00 00 00	 call	 ??1CEdit@@UAE@XZ	; CEdit::~CEdit
  000a6	8d 8f 50 08 00
	00		 lea	 ecx, DWORD PTR [edi+2128]
  000ac	e8 00 00 00 00	 call	 ??1CEdit@@UAE@XZ	; CEdit::~CEdit
  000b1	8d 8f d0 07 00
	00		 lea	 ecx, DWORD PTR [edi+2000]
  000b7	e8 00 00 00 00	 call	 ??1CEdit@@UAE@XZ	; CEdit::~CEdit
  000bc	8d 8f 50 07 00
	00		 lea	 ecx, DWORD PTR [edi+1872]
  000c2	e8 00 00 00 00	 call	 ??1CButton@@UAE@XZ	; CButton::~CButton
  000c7	8d 8f d0 06 00
	00		 lea	 ecx, DWORD PTR [edi+1744]
  000cd	e8 00 00 00 00	 call	 ??1CButton@@UAE@XZ	; CButton::~CButton
  000d2	8d 8f 50 06 00
	00		 lea	 ecx, DWORD PTR [edi+1616]
  000d8	e8 00 00 00 00	 call	 ??1CButton@@UAE@XZ	; CButton::~CButton
  000dd	8d 8f d0 05 00
	00		 lea	 ecx, DWORD PTR [edi+1488]
  000e3	e8 00 00 00 00	 call	 ??1CButton@@UAE@XZ	; CButton::~CButton
  000e8	8d 8f 50 05 00
	00		 lea	 ecx, DWORD PTR [edi+1360]
  000ee	e8 00 00 00 00	 call	 ??1CButton@@UAE@XZ	; CButton::~CButton
  000f3	8d 8f d0 04 00
	00		 lea	 ecx, DWORD PTR [edi+1232]
  000f9	e8 00 00 00 00	 call	 ??1CButton@@UAE@XZ	; CButton::~CButton
  000fe	8d 8f 50 04 00
	00		 lea	 ecx, DWORD PTR [edi+1104]
  00104	e8 00 00 00 00	 call	 ??1CButton@@UAE@XZ	; CButton::~CButton
  00109	8d 8f d0 03 00
	00		 lea	 ecx, DWORD PTR [edi+976]
  0010f	e8 00 00 00 00	 call	 ??1CButton@@UAE@XZ	; CButton::~CButton
  00114	8d 8f 50 03 00
	00		 lea	 ecx, DWORD PTR [edi+848]
  0011a	e8 00 00 00 00	 call	 ??1CButton@@UAE@XZ	; CButton::~CButton
  0011f	8d 8f d0 02 00
	00		 lea	 ecx, DWORD PTR [edi+720]
  00125	e8 00 00 00 00	 call	 ??1CButton@@UAE@XZ	; CButton::~CButton
  0012a	8d 8f 48 02 00
	00		 lea	 ecx, DWORD PTR [edi+584]
  00130	e8 00 00 00 00	 call	 ??1CButton@@UAE@XZ	; CButton::~CButton
  00135	8d 8f 3c 02 00
	00		 lea	 ecx, DWORD PTR [edi+572]
; File C:\Program Files (x86)\Microsoft Visual Studio\2019\Community\VC\Tools\MSVC\14.29.30133\atlmfc\include\afxwin1.inl

; 179  : 	{ }

  0013b	c7 01 00 00 00
	00		 mov	 DWORD PTR [ecx], OFFSET ??_7CBitmap@@6B@
  00141	e8 00 00 00 00	 call	 ??1CGdiObject@@UAE@XZ	; CGdiObject::~CGdiObject
  00146	8d 8f b8 01 00
	00		 lea	 ecx, DWORD PTR [edi+440]
  0014c	e8 00 00 00 00	 call	 ??1CComboBox@@UAE@XZ	; CComboBox::~CComboBox
  00151	8d 8f ac 01 00
	00		 lea	 ecx, DWORD PTR [edi+428]
  00157	c7 01 00 00 00
	00		 mov	 DWORD PTR [ecx], OFFSET ??_7CBitmap@@6B@
  0015d	e8 00 00 00 00	 call	 ??1CGdiObject@@UAE@XZ	; CGdiObject::~CGdiObject
  00162	8d 8f 28 01 00
	00		 lea	 ecx, DWORD PTR [edi+296]
  00168	e8 00 00 00 00	 call	 ??1CComboBox@@UAE@XZ	; CComboBox::~CComboBox
  0016d	8d 8f a8 00 00
	00		 lea	 ecx, DWORD PTR [edi+168]
  00173	e8 00 00 00 00	 call	 ??1CButton@@UAE@XZ	; CButton::~CButton
  00178	8b cf		 mov	 ecx, edi
  0017a	5f		 pop	 edi
  0017b	5e		 pop	 esi
  0017c	e9 00 00 00 00	 jmp	 ??1CDialog@@UAE@XZ	; CDialog::~CDialog
??1CDlgAnalysisToolSet@@UAE@XZ ENDP			; CDlgAnalysisToolSet::~CDlgAnalysisToolSet
_TEXT	ENDS
; Function compile flags: /Ogtp
; File D:\git\src\IBK\IBK_DRFN\ProjSrc\SrcChartEx\ChartAddIn\ChartAnalysisToolAddIn\Include_Chart\Dll_Load\IMetaTable.h
; File C:\Program Files (x86)\Microsoft Visual Studio\2019\Community\VC\Tools\MSVC\14.29.30133\atlmfc\include\afxwin1.inl
; File D:\git\src\IBK\IBK_DRFN\ProjSrc\SrcChartEx\ChartAddIn\ChartAnalysisToolAddIn\Include_Chart\Dll_Load\IMetaTable.h
;	COMDAT ??1CMultiLanguageResourceSetter@@QAE@XZ
_TEXT	SEGMENT
__$EHRec$ = -12						; size = 12
??1CMultiLanguageResourceSetter@@QAE@XZ PROC		; CMultiLanguageResourceSetter::~CMultiLanguageResourceSetter, COMDAT
; _this$ = ecx

; 1038 : 	{

  00000	55		 push	 ebp
  00001	8b ec		 mov	 ebp, esp
  00003	6a ff		 push	 -1
  00005	68 00 00 00 00	 push	 __ehhandler$??1CMultiLanguageResourceSetter@@QAE@XZ
  0000a	64 a1 00 00 00
	00		 mov	 eax, DWORD PTR fs:0
  00010	50		 push	 eax
  00011	56		 push	 esi
  00012	a1 00 00 00 00	 mov	 eax, DWORD PTR ___security_cookie
  00017	33 c5		 xor	 eax, ebp
  00019	50		 push	 eax
  0001a	8d 45 f4	 lea	 eax, DWORD PTR __$EHRec$[ebp]
  0001d	64 a3 00 00 00
	00		 mov	 DWORD PTR fs:0, eax

; 1039 : 		AfxSetResourceHandle( m_hInstance);

  00023	8b 31		 mov	 esi, DWORD PTR [ecx]
; File C:\Program Files (x86)\Microsoft Visual Studio\2019\Community\VC\Tools\MSVC\14.29.30133\atlmfc\include\afxwin1.inl

; 27   : 	{ ASSERT(hInstResource != NULL); afxCurrentResourceHandle = hInstResource; }

  00025	e8 00 00 00 00	 call	 ?AfxGetModuleState@@YGPAVAFX_MODULE_STATE@@XZ ; AfxGetModuleState
  0002a	89 70 0c	 mov	 DWORD PTR [eax+12], esi
; File D:\git\src\IBK\IBK_DRFN\ProjSrc\SrcChartEx\ChartAddIn\ChartAnalysisToolAddIn\Include_Chart\Dll_Load\IMetaTable.h

; 1040 : 	}

  0002d	8b 4d f4	 mov	 ecx, DWORD PTR __$EHRec$[ebp]
  00030	64 89 0d 00 00
	00 00		 mov	 DWORD PTR fs:0, ecx
  00037	59		 pop	 ecx
  00038	5e		 pop	 esi
  00039	8b e5		 mov	 esp, ebp
  0003b	5d		 pop	 ebp
  0003c	c3		 ret	 0
  0003d	cc		 int	 3
  0003e	cc		 int	 3
  0003f	cc		 int	 3
  00040	cc		 int	 3
  00041	cc		 int	 3
_TEXT	ENDS
;	COMDAT text$x
text$x	SEGMENT
__ehhandler$??1CMultiLanguageResourceSetter@@QAE@XZ:
  00000	90		 npad	 1
  00001	90		 npad	 1
  00002	8b 54 24 08	 mov	 edx, DWORD PTR [esp+8]
  00006	8d 42 0c	 lea	 eax, DWORD PTR [edx+12]
  00009	8b 4a f8	 mov	 ecx, DWORD PTR [edx-8]
  0000c	33 c8		 xor	 ecx, eax
  0000e	e8 00 00 00 00	 call	 @__security_check_cookie@4
  00013	b8 00 00 00 00	 mov	 eax, OFFSET __ehfuncinfo$??1CMultiLanguageResourceSetter@@QAE@XZ
  00018	e9 00 00 00 00	 jmp	 ___CxxFrameHandler3
text$x	ENDS
??1CMultiLanguageResourceSetter@@QAE@XZ ENDP		; CMultiLanguageResourceSetter::~CMultiLanguageResourceSetter
; Function compile flags: /Ogtp
; File D:\git\src\IBK\IBK_DRFN\ProjSrc\SrcChartEx\ChartAddIn\ChartAnalysisToolAddIn\Include_Chart\Dll_Load\IMetaTable.h
;	COMDAT ?LoadResourceDLL@IMetaTable@@QAEPAUHINSTANCE__@@PAUHWND__@@PAU2@@Z
_TEXT	SEGMENT
_p1$ = 8						; size = 4
_p2$ = 12						; size = 4
?LoadResourceDLL@IMetaTable@@QAEPAUHINSTANCE__@@PAUHWND__@@PAU2@@Z PROC ; IMetaTable::LoadResourceDLL, COMDAT
; _this$ = ecx

; 938  : 	DECLARE_FUNCTION2(	LoadResourceDLL,				HMODULE, AfxGetStaticModuleState()->m_hCurrentInstanceHandle, HWND, HMODULE);

  00000	55		 push	 ebp
  00001	8b ec		 mov	 ebp, esp
  00003	56		 push	 esi
  00004	8b f1		 mov	 esi, ecx
  00006	8b 46 04	 mov	 eax, DWORD PTR [esi+4]
  00009	85 c0		 test	 eax, eax
  0000b	74 4d		 je	 SHORT $LN4@LoadResour
  0000d	57		 push	 edi
  0000e	bf 80 0d 00 00	 mov	 edi, 3456		; 00000d80H
  00013	66 3b be 94 00
	00 00		 cmp	 di, WORD PTR [esi+148]
  0001a	74 23		 je	 SHORT $LN3@LoadResour
  0001c	68 00 00 00 00	 push	 OFFSET ??_C@_0BA@ENJOCHIO@LoadResourceDLL@
  00021	50		 push	 eax
  00022	c7 86 90 00 00
	00 00 00 00 00	 mov	 DWORD PTR [esi+144], 0
  0002c	ff 15 00 00 00
	00		 call	 DWORD PTR __imp__GetProcAddress@8
  00032	89 86 90 00 00
	00		 mov	 DWORD PTR [esi+144], eax
  00038	66 89 be 94 00
	00 00		 mov	 WORD PTR [esi+148], di
$LN3@LoadResour:
  0003f	8b 86 90 00 00
	00		 mov	 eax, DWORD PTR [esi+144]
  00045	5f		 pop	 edi
  00046	85 c0		 test	 eax, eax
  00048	74 10		 je	 SHORT $LN4@LoadResour
  0004a	ff 75 0c	 push	 DWORD PTR _p2$[ebp]
  0004d	ff 75 08	 push	 DWORD PTR _p1$[ebp]
  00050	ff d0		 call	 eax
  00052	83 c4 08	 add	 esp, 8
  00055	5e		 pop	 esi
  00056	5d		 pop	 ebp
  00057	c2 08 00	 ret	 8
$LN4@LoadResour:
  0005a	e8 00 00 00 00	 call	 ?AfxGetStaticModuleState@@YGPAVAFX_MODULE_STATE@@XZ ; AfxGetStaticModuleState
  0005f	5e		 pop	 esi
  00060	8b 40 08	 mov	 eax, DWORD PTR [eax+8]
  00063	5d		 pop	 ebp
  00064	c2 08 00	 ret	 8
?LoadResourceDLL@IMetaTable@@QAEPAUHINSTANCE__@@PAUHWND__@@PAU2@@Z ENDP ; IMetaTable::LoadResourceDLL
_TEXT	ENDS
; Function compile flags: /Ogtp
; File D:\git\src\IBK\IBK_DRFN\ProjSrc\SrcChartEx\ChartAddIn\ChartAnalysisToolAddIn\AnalysisTool\CurrentElementSet.cpp
; File C:\Program Files (x86)\Microsoft Visual Studio\2019\Community\VC\Tools\MSVC\14.29.30133\atlmfc\include\afxwin1.inl
; File D:\git\src\IBK\IBK_DRFN\ProjSrc\SrcChartEx\ChartAddIn\ChartAnalysisToolAddIn\Include_Chart\Dll_Load\IMetaTable.h
; File C:\Program Files (x86)\Microsoft Visual Studio\2019\Community\VC\Tools\MSVC\14.29.30133\atlmfc\include\afxwin1.inl
; File D:\git\src\IBK\IBK_DRFN\ProjSrc\SrcChartEx\ChartAddIn\ChartAnalysisToolAddIn\AnalysisTool\CurrentElementSet.cpp
; File C:\Program Files (x86)\Microsoft Visual Studio\2019\Community\VC\Tools\MSVC\14.29.30133\include\deque
; File C:\Program Files (x86)\Microsoft Visual Studio\2019\Community\VC\Tools\MSVC\14.29.30133\include\utility
; File C:\Program Files (x86)\Microsoft Visual Studio\2019\Community\VC\Tools\MSVC\14.29.30133\include\xmemory
; File C:\Program Files (x86)\Microsoft Visual Studio\2019\Community\VC\Tools\MSVC\14.29.30133\include\utility
; File C:\Program Files (x86)\Microsoft Visual Studio\2019\Community\VC\Tools\MSVC\14.29.30133\include\xmemory
; File C:\Program Files (x86)\Microsoft Visual Studio\2019\Community\VC\Tools\MSVC\14.29.30133\atlmfc\include\afxwin1.inl
; File D:\git\src\IBK\IBK_DRFN\ProjSrc\SrcChartEx\ChartAddIn\ChartAnalysisToolAddIn\Include_Chart\Dll_Load\IMetaTable.h
; File C:\Program Files (x86)\Microsoft Visual Studio\2019\Community\VC\Tools\MSVC\14.29.30133\atlmfc\include\afxwin1.inl
; File C:\Program Files (x86)\Microsoft Visual Studio\2019\Community\VC\Tools\MSVC\14.29.30133\include\deque
; File C:\Program Files (x86)\Microsoft Visual Studio\2019\Community\VC\Tools\MSVC\14.29.30133\atlmfc\include\afxwin1.inl
; File C:\Program Files (x86)\Microsoft Visual Studio\2019\Community\VC\Tools\MSVC\14.29.30133\include\deque
; File C:\Program Files (x86)\Microsoft Visual Studio\2019\Community\VC\Tools\MSVC\14.29.30133\include\utility
; File C:\Program Files (x86)\Microsoft Visual Studio\2019\Community\VC\Tools\MSVC\14.29.30133\include\xmemory
; File C:\Program Files (x86)\Microsoft Visual Studio\2019\Community\VC\Tools\MSVC\14.29.30133\include\utility
; File C:\Program Files (x86)\Microsoft Visual Studio\2019\Community\VC\Tools\MSVC\14.29.30133\include\xmemory
; File D:\git\src\IBK\IBK_DRFN\ProjSrc\SrcChartEx\ChartAddIn\ChartAnalysisToolAddIn\AnalysisTool\CurrentElementSet.cpp
;	COMDAT ?BalanceBasicSetDialogLoad@CCurrentElementSet@@AAE_NXZ
_TEXT	SEGMENT
_dlg$ = -1516						; size = 1464
_elementPointList$ = -52				; size = 32
___mlrs__$ = -20					; size = 4
_this$1$ = -16						; size = 4
__$EHRec$ = -12						; size = 12
?BalanceBasicSetDialogLoad@CCurrentElementSet@@AAE_NXZ PROC ; CCurrentElementSet::BalanceBasicSetDialogLoad, COMDAT
; _this$ = ecx

; 218  : {

  00000	55		 push	 ebp
  00001	8b ec		 mov	 ebp, esp
  00003	6a ff		 push	 -1
  00005	68 00 00 00 00	 push	 __ehhandler$?BalanceBasicSetDialogLoad@CCurrentElementSet@@AAE_NXZ
  0000a	64 a1 00 00 00
	00		 mov	 eax, DWORD PTR fs:0
  00010	50		 push	 eax
  00011	81 ec e0 05 00
	00		 sub	 esp, 1504		; 000005e0H
  00017	53		 push	 ebx
  00018	56		 push	 esi
  00019	57		 push	 edi
  0001a	a1 00 00 00 00	 mov	 eax, DWORD PTR ___security_cookie
  0001f	33 c5		 xor	 eax, ebp
  00021	50		 push	 eax
  00022	8d 45 f4	 lea	 eax, DWORD PTR __$EHRec$[ebp]
  00025	64 a3 00 00 00
	00		 mov	 DWORD PTR fs:0, eax
  0002b	8b f1		 mov	 esi, ecx
  0002d	89 75 f0	 mov	 DWORD PTR _this$1$[ebp], esi

; 219  : 	CTextPosition* pTextPosition = const_cast <CTextPosition*> (m_pElement->GetTextPosition());

  00030	8b 4e 18	 mov	 ecx, DWORD PTR [esi+24]
  00033	8b 01		 mov	 eax, DWORD PTR [ecx]
  00035	ff 50 0c	 call	 DWORD PTR [eax+12]

; 220  : 	CElementPointList elementPointList;

  00038	8d 4d cc	 lea	 ecx, DWORD PTR _elementPointList$[ebp]
  0003b	8b d8		 mov	 ebx, eax
  0003d	e8 00 00 00 00	 call	 ??0CElementPointList@@QAE@XZ ; CElementPointList::CElementPointList

; 221  : 	m_pElement->GetPoints(elementPointList);

  00042	8b 4e 18	 mov	 ecx, DWORD PTR [esi+24]
  00045	8d 45 cc	 lea	 eax, DWORD PTR _elementPointList$[ebp]
  00048	50		 push	 eax
  00049	c7 45 fc 00 00
	00 00		 mov	 DWORD PTR __$EHRec$[ebp+8], 0
  00050	8b 11		 mov	 edx, DWORD PTR [ecx]
  00052	ff 52 08	 call	 DWORD PTR [edx+8]

; 222  : 	
; 223  : 	ML_SET_LANGUAGE_RES();

  00055	e8 00 00 00 00	 call	 ?AfxGetStaticModuleState@@YGPAVAFX_MODULE_STATE@@XZ ; AfxGetStaticModuleState
  0005a	b9 00 00 00 00	 mov	 ecx, OFFSET ?g_iMetaTable@@3VIMetaTable@@A ; g_iMetaTable
  0005f	8b 40 08	 mov	 eax, DWORD PTR [eax+8]
  00062	50		 push	 eax
  00063	ff 76 24	 push	 DWORD PTR [esi+36]
  00066	e8 00 00 00 00	 call	 ?LoadResourceDLL@IMetaTable@@QAEPAUHINSTANCE__@@PAUHWND__@@PAU2@@Z ; IMetaTable::LoadResourceDLL
  0006b	8b f8		 mov	 edi, eax
; File C:\Program Files (x86)\Microsoft Visual Studio\2019\Community\VC\Tools\MSVC\14.29.30133\atlmfc\include\afxwin1.inl

; 25   : 		return afxCurrentResourceHandle; }

  0006d	e8 00 00 00 00	 call	 ?AfxGetModuleState@@YGPAVAFX_MODULE_STATE@@XZ ; AfxGetModuleState
; File D:\git\src\IBK\IBK_DRFN\ProjSrc\SrcChartEx\ChartAddIn\ChartAnalysisToolAddIn\Include_Chart\Dll_Load\IMetaTable.h

; 1034 : 		m_hInstance = AfxGetResourceHandle();

  00072	8b 70 0c	 mov	 esi, DWORD PTR [eax+12]
  00075	89 75 ec	 mov	 DWORD PTR ___mlrs__$[ebp], esi
; File C:\Program Files (x86)\Microsoft Visual Studio\2019\Community\VC\Tools\MSVC\14.29.30133\atlmfc\include\afxwin1.inl

; 27   : 	{ ASSERT(hInstResource != NULL); afxCurrentResourceHandle = hInstResource; }

  00078	e8 00 00 00 00	 call	 ?AfxGetModuleState@@YGPAVAFX_MODULE_STATE@@XZ ; AfxGetModuleState
  0007d	89 78 0c	 mov	 DWORD PTR [eax+12], edi
; File D:\git\src\IBK\IBK_DRFN\ProjSrc\SrcChartEx\ChartAddIn\ChartAnalysisToolAddIn\AnalysisTool\CurrentElementSet.cpp

; 224  : 	CDlgBalanceBasicSet dlg(m_pParent,

  00080	8b 45 f0	 mov	 eax, DWORD PTR _this$1$[ebp]
  00083	c6 45 fc 01	 mov	 BYTE PTR __$EHRec$[ebp+8], 1
  00087	8b 78 18	 mov	 edi, DWORD PTR [eax+24]
  0008a	8b cf		 mov	 ecx, edi
  0008c	e8 00 00 00 00	 call	 ?GetCommonEnvironment@CElement@@QAEAAVCElementCommonEnvironment@@XZ ; CElement::GetCommonEnvironment
  00091	8b c8		 mov	 ecx, eax
  00093	e8 00 00 00 00	 call	 ?GetDataType@CElementCommonEnvironment@@QAEAAVCDataTypeEnvironment@@XZ ; CElementCommonEnvironment::GetDataType
  00098	8b 4d f0	 mov	 ecx, DWORD PTR _this$1$[ebp]
  0009b	50		 push	 eax
  0009c	8b 49 18	 mov	 ecx, DWORD PTR [ecx+24]
  0009f	e8 00 00 00 00	 call	 ?GetCommonEnvironment@CElement@@QAEAAVCElementCommonEnvironment@@XZ ; CElement::GetCommonEnvironment
  000a4	8b c8		 mov	 ecx, eax
  000a6	e8 00 00 00 00	 call	 ?GetLineExt@CElementCommonEnvironment@@QAEAAVCLineExtEnvironment@@XZ ; CElementCommonEnvironment::GetLineExt
  000ab	50		 push	 eax
  000ac	8d 45 cc	 lea	 eax, DWORD PTR _elementPointList$[ebp]
  000af	50		 push	 eax
  000b0	8b 45 f0	 mov	 eax, DWORD PTR _this$1$[ebp]
  000b3	8b 48 18	 mov	 ecx, DWORD PTR [eax+24]
  000b6	e8 00 00 00 00	 call	 ?GetCommonEnvironment@CElement@@QAEAAVCElementCommonEnvironment@@XZ ; CElement::GetCommonEnvironment
  000bb	8b c8		 mov	 ecx, eax
  000bd	e8 00 00 00 00	 call	 ?GetPen@CElementCommonEnvironment@@QAEAAVCPenEnvironment@@XZ ; CElementCommonEnvironment::GetPen
  000c2	50		 push	 eax
  000c3	8b 07		 mov	 eax, DWORD PTR [edi]
  000c5	8b cf		 mov	 ecx, edi
  000c7	53		 push	 ebx
  000c8	ff 50 04	 call	 DWORD PTR [eax+4]
  000cb	8b 4d f0	 mov	 ecx, DWORD PTR _this$1$[ebp]
  000ce	50		 push	 eax
  000cf	8d 41 20	 lea	 eax, DWORD PTR [ecx+32]
  000d2	50		 push	 eax
  000d3	8d 41 10	 lea	 eax, DWORD PTR [ecx+16]
  000d6	50		 push	 eax
  000d7	ff 71 14	 push	 DWORD PTR [ecx+20]
  000da	8d 8d 14 fa ff
	ff		 lea	 ecx, DWORD PTR _dlg$[ebp]
  000e0	e8 00 00 00 00	 call	 ??0CDlgBalanceBasicSet@@QAE@PAVCWnd@@ABV?$CStringT@DV?$StrTraitMFC_DLL@DV?$ChTraitsCRT@D@ATL@@@@@ATL@@ABW4HORZSCALEDRAWERTYPE@CScaleBaseData@@HPAVCTextPosition@@PAVCPenEnvironment@@PAVCElementPointList@@PAVCLineExtEnvironment@@PAVCDataTypeEnvironment@@@Z ; CDlgBalanceBasicSet::CDlgBalanceBasicSet

; 225  : 		m_strUserPath,
; 226  : 		m_nDataPeriod,
; 227  : 		m_pElement->GetElementType(),
; 228  : 		pTextPosition,
; 229  : 		&m_pElement->GetCommonEnvironment().GetPen(),
; 230  : 		&elementPointList,
; 231  : 		&m_pElement->GetCommonEnvironment().GetLineExt(),
; 232  : 		&m_pElement->GetCommonEnvironment().GetDataType());
; 233  : 	
; 234  : 	dlg.DoModal();

  000e5	8d 8d 14 fa ff
	ff		 lea	 ecx, DWORD PTR _dlg$[ebp]
  000eb	c6 45 fc 02	 mov	 BYTE PTR __$EHRec$[ebp+8], 2
  000ef	e8 00 00 00 00	 call	 ?DoModal@CDialog@@UAEHXZ ; CDialog::DoModal
; File C:\Program Files (x86)\Microsoft Visual Studio\2019\Community\VC\Tools\MSVC\14.29.30133\include\deque

; 1332 :         _Tidy();

  000f4	8d 8d 74 ff ff
	ff		 lea	 ecx, DWORD PTR _dlg$[ebp+1376]
  000fa	e8 00 00 00 00	 call	 ?_Tidy@?$deque@PAVCCoordinate@@V?$allocator@PAVCCoordinate@@@std@@@std@@AAEXXZ ; std::deque<CCoordinate *,std::allocator<CCoordinate *> >::_Tidy

; 861  :         _Tidy();

  000ff	8d 8d 74 ff ff
	ff		 lea	 ecx, DWORD PTR _dlg$[ebp+1376]
  00105	e8 00 00 00 00	 call	 ?_Tidy@?$deque@PAVCCoordinate@@V?$allocator@PAVCCoordinate@@@std@@@std@@AAEXXZ ; std::deque<CCoordinate *,std::allocator<CCoordinate *> >::_Tidy
; File C:\Program Files (x86)\Microsoft Visual Studio\2019\Community\VC\Tools\MSVC\14.29.30133\include\utility

; 602  :     _Ty _Old_val = static_cast<_Ty&&>(_Val);

  0010a	8b 85 74 ff ff
	ff		 mov	 eax, DWORD PTR _dlg$[ebp+1376]
; File C:\Program Files (x86)\Microsoft Visual Studio\2019\Community\VC\Tools\MSVC\14.29.30133\include\xmemory

; 255  :         ::operator delete(_Ptr, _Bytes);

  00110	6a 08		 push	 8
  00112	50		 push	 eax
; File C:\Program Files (x86)\Microsoft Visual Studio\2019\Community\VC\Tools\MSVC\14.29.30133\include\utility

; 603  :     _Val         = static_cast<_Other&&>(_New_val);

  00113	c7 85 74 ff ff
	ff 00 00 00 00	 mov	 DWORD PTR _dlg$[ebp+1376], 0
; File C:\Program Files (x86)\Microsoft Visual Studio\2019\Community\VC\Tools\MSVC\14.29.30133\include\xmemory

; 255  :         ::operator delete(_Ptr, _Bytes);

  0011d	e8 00 00 00 00	 call	 ??3@YAXPAXI@Z		; operator delete
  00122	83 c4 08	 add	 esp, 8
  00125	8d 8d 64 ff ff
	ff		 lea	 ecx, DWORD PTR _dlg$[ebp+1360]
  0012b	ff 15 00 00 00
	00		 call	 DWORD PTR __imp_??1?$CStringT@DV?$StrTraitMFC_DLL@DV?$ChTraitsCRT@D@ATL@@@@@ATL@@QAE@XZ
  00131	8d 8d f0 fe ff
	ff		 lea	 ecx, DWORD PTR _dlg$[ebp+1244]
  00137	ff 15 00 00 00
	00		 call	 DWORD PTR __imp_??1?$CStringT@DV?$StrTraitMFC_DLL@DV?$ChTraitsCRT@D@ATL@@@@@ATL@@QAE@XZ
  0013d	8d 8d 64 fe ff
	ff		 lea	 ecx, DWORD PTR _dlg$[ebp+1104]
  00143	e8 00 00 00 00	 call	 ??1CButton@@UAE@XZ	; CButton::~CButton
  00148	8d 8d e4 fd ff
	ff		 lea	 ecx, DWORD PTR _dlg$[ebp+976]
  0014e	e8 00 00 00 00	 call	 ??1CButton@@UAE@XZ	; CButton::~CButton
  00153	8d 8d 64 fd ff
	ff		 lea	 ecx, DWORD PTR _dlg$[ebp+848]
  00159	e8 00 00 00 00	 call	 ??1CButton@@UAE@XZ	; CButton::~CButton
; File C:\Program Files (x86)\Microsoft Visual Studio\2019\Community\VC\Tools\MSVC\14.29.30133\atlmfc\include\afxwin1.inl

; 179  : 	{ }

  0015e	8d 8d 58 fd ff
	ff		 lea	 ecx, DWORD PTR _dlg$[ebp+836]
  00164	c7 85 58 fd ff
	ff 00 00 00 00	 mov	 DWORD PTR _dlg$[ebp+836], OFFSET ??_7CBitmap@@6B@
  0016e	e8 00 00 00 00	 call	 ??1CGdiObject@@UAE@XZ	; CGdiObject::~CGdiObject
  00173	8d 8d d4 fc ff
	ff		 lea	 ecx, DWORD PTR _dlg$[ebp+704]
  00179	e8 00 00 00 00	 call	 ??1CComboBox@@UAE@XZ	; CComboBox::~CComboBox
  0017e	8d 8d c8 fc ff
	ff		 lea	 ecx, DWORD PTR _dlg$[ebp+692]
  00184	c7 85 c8 fc ff
	ff 00 00 00 00	 mov	 DWORD PTR _dlg$[ebp+692], OFFSET ??_7CBitmap@@6B@
  0018e	e8 00 00 00 00	 call	 ??1CGdiObject@@UAE@XZ	; CGdiObject::~CGdiObject
  00193	8d 8d 44 fc ff
	ff		 lea	 ecx, DWORD PTR _dlg$[ebp+560]
  00199	e8 00 00 00 00	 call	 ??1CComboBox@@UAE@XZ	; CComboBox::~CComboBox
  0019e	8d 8d bc fb ff
	ff		 lea	 ecx, DWORD PTR _dlg$[ebp+424]
  001a4	e8 00 00 00 00	 call	 ??1CButton@@UAE@XZ	; CButton::~CButton
  001a9	8d 8d 3c fb ff
	ff		 lea	 ecx, DWORD PTR _dlg$[ebp+296]
  001af	e8 00 00 00 00	 call	 ??1CEdit@@UAE@XZ	; CEdit::~CEdit
  001b4	8d 8d bc fa ff
	ff		 lea	 ecx, DWORD PTR _dlg$[ebp+168]
  001ba	e8 00 00 00 00	 call	 ??1CDateTimeCtrl@@UAE@XZ ; CDateTimeCtrl::~CDateTimeCtrl
  001bf	8d 8d 14 fa ff
	ff		 lea	 ecx, DWORD PTR _dlg$[ebp]
  001c5	e8 00 00 00 00	 call	 ??1CDialog@@UAE@XZ	; CDialog::~CDialog
; File D:\git\src\IBK\IBK_DRFN\ProjSrc\SrcChartEx\ChartAddIn\ChartAnalysisToolAddIn\Include_Chart\Dll_Load\IMetaTable.h

; 1038 : 	{

  001ca	c6 45 fc 03	 mov	 BYTE PTR __$EHRec$[ebp+8], 3
; File C:\Program Files (x86)\Microsoft Visual Studio\2019\Community\VC\Tools\MSVC\14.29.30133\atlmfc\include\afxwin1.inl

; 27   : 	{ ASSERT(hInstResource != NULL); afxCurrentResourceHandle = hInstResource; }

  001ce	e8 00 00 00 00	 call	 ?AfxGetModuleState@@YGPAVAFX_MODULE_STATE@@XZ ; AfxGetModuleState
; File C:\Program Files (x86)\Microsoft Visual Studio\2019\Community\VC\Tools\MSVC\14.29.30133\include\deque

; 1332 :         _Tidy();

  001d3	8d 4d d4	 lea	 ecx, DWORD PTR _elementPointList$[ebp+8]
; File C:\Program Files (x86)\Microsoft Visual Studio\2019\Community\VC\Tools\MSVC\14.29.30133\atlmfc\include\afxwin1.inl

; 27   : 	{ ASSERT(hInstResource != NULL); afxCurrentResourceHandle = hInstResource; }

  001d6	89 70 0c	 mov	 DWORD PTR [eax+12], esi
; File C:\Program Files (x86)\Microsoft Visual Studio\2019\Community\VC\Tools\MSVC\14.29.30133\include\deque

; 1332 :         _Tidy();

  001d9	e8 00 00 00 00	 call	 ?_Tidy@?$deque@PAVCCoordinate@@V?$allocator@PAVCCoordinate@@@std@@@std@@AAEXXZ ; std::deque<CCoordinate *,std::allocator<CCoordinate *> >::_Tidy

; 861  :         _Tidy();

  001de	8d 4d d4	 lea	 ecx, DWORD PTR _elementPointList$[ebp+8]
  001e1	e8 00 00 00 00	 call	 ?_Tidy@?$deque@PAVCCoordinate@@V?$allocator@PAVCCoordinate@@@std@@@std@@AAEXXZ ; std::deque<CCoordinate *,std::allocator<CCoordinate *> >::_Tidy
; File C:\Program Files (x86)\Microsoft Visual Studio\2019\Community\VC\Tools\MSVC\14.29.30133\include\utility

; 602  :     _Ty _Old_val = static_cast<_Ty&&>(_Val);

  001e6	8b 45 d4	 mov	 eax, DWORD PTR _elementPointList$[ebp+8]
; File C:\Program Files (x86)\Microsoft Visual Studio\2019\Community\VC\Tools\MSVC\14.29.30133\include\xmemory

; 255  :         ::operator delete(_Ptr, _Bytes);

  001e9	6a 08		 push	 8
  001eb	50		 push	 eax
; File C:\Program Files (x86)\Microsoft Visual Studio\2019\Community\VC\Tools\MSVC\14.29.30133\include\utility

; 603  :     _Val         = static_cast<_Other&&>(_New_val);

  001ec	c7 45 d4 00 00
	00 00		 mov	 DWORD PTR _elementPointList$[ebp+8], 0
; File C:\Program Files (x86)\Microsoft Visual Studio\2019\Community\VC\Tools\MSVC\14.29.30133\include\xmemory

; 255  :         ::operator delete(_Ptr, _Bytes);

  001f3	e8 00 00 00 00	 call	 ??3@YAXPAXI@Z		; operator delete
  001f8	83 c4 08	 add	 esp, 8
; File D:\git\src\IBK\IBK_DRFN\ProjSrc\SrcChartEx\ChartAddIn\ChartAnalysisToolAddIn\AnalysisTool\CurrentElementSet.cpp

; 236  : 	return true;

  001fb	b0 01		 mov	 al, 1

; 237  : }

  001fd	8b 4d f4	 mov	 ecx, DWORD PTR __$EHRec$[ebp]
  00200	64 89 0d 00 00
	00 00		 mov	 DWORD PTR fs:0, ecx
  00207	59		 pop	 ecx
  00208	5f		 pop	 edi
  00209	5e		 pop	 esi
  0020a	5b		 pop	 ebx
  0020b	8b e5		 mov	 esp, ebp
  0020d	5d		 pop	 ebp
  0020e	c3		 ret	 0
_TEXT	ENDS
;	COMDAT text$x
text$x	SEGMENT
__unwindfunclet$?BalanceBasicSetDialogLoad@CCurrentElementSet@@AAE_NXZ$0:
  00000	8d 4d cc	 lea	 ecx, DWORD PTR _elementPointList$[ebp]
  00003	e9 00 00 00 00	 jmp	 ??1CElementPointList@@QAE@XZ
__unwindfunclet$?BalanceBasicSetDialogLoad@CCurrentElementSet@@AAE_NXZ$1:
  00008	8d 4d ec	 lea	 ecx, DWORD PTR ___mlrs__$[ebp]
  0000b	e9 00 00 00 00	 jmp	 ??1CMultiLanguageResourceSetter@@QAE@XZ ; CMultiLanguageResourceSetter::~CMultiLanguageResourceSetter
__unwindfunclet$?BalanceBasicSetDialogLoad@CCurrentElementSet@@AAE_NXZ$2:
  00010	8d 8d 14 fa ff
	ff		 lea	 ecx, DWORD PTR _dlg$[ebp]
  00016	e9 00 00 00 00	 jmp	 ??1CDlgBalanceBasicSet@@UAE@XZ
  0001b	cc		 int	 3
  0001c	cc		 int	 3
  0001d	cc		 int	 3
  0001e	cc		 int	 3
  0001f	cc		 int	 3
__ehhandler$?BalanceBasicSetDialogLoad@CCurrentElementSet@@AAE_NXZ:
  00020	90		 npad	 1
  00021	90		 npad	 1
  00022	8b 54 24 08	 mov	 edx, DWORD PTR [esp+8]
  00026	8d 42 0c	 lea	 eax, DWORD PTR [edx+12]
  00029	8b 8a 10 fa ff
	ff		 mov	 ecx, DWORD PTR [edx-1520]
  0002f	33 c8		 xor	 ecx, eax
  00031	e8 00 00 00 00	 call	 @__security_check_cookie@4
  00036	b8 00 00 00 00	 mov	 eax, OFFSET __ehfuncinfo$?BalanceBasicSetDialogLoad@CCurrentElementSet@@AAE_NXZ
  0003b	e9 00 00 00 00	 jmp	 ___CxxFrameHandler3
text$x	ENDS
?BalanceBasicSetDialogLoad@CCurrentElementSet@@AAE_NXZ ENDP ; CCurrentElementSet::BalanceBasicSetDialogLoad
; Function compile flags: /Ogtp
; File D:\git\src\IBK\IBK_DRFN\ProjSrc\SrcChartEx\ChartAddIn\ChartAnalysisToolAddIn\AnalysisTool\CurrentElementSet.cpp
; File C:\Program Files (x86)\Microsoft Visual Studio\2019\Community\VC\Tools\MSVC\14.29.30133\atlmfc\include\afxwin1.inl
; File D:\git\src\IBK\IBK_DRFN\ProjSrc\SrcChartEx\ChartAddIn\ChartAnalysisToolAddIn\Include_Chart\Dll_Load\IMetaTable.h
; File C:\Program Files (x86)\Microsoft Visual Studio\2019\Community\VC\Tools\MSVC\14.29.30133\atlmfc\include\afxwin1.inl
; File D:\git\src\IBK\IBK_DRFN\ProjSrc\SrcChartEx\ChartAddIn\ChartAnalysisToolAddIn\AnalysisTool\CurrentElementSet.cpp
; File C:\Program Files (x86)\Microsoft Visual Studio\2019\Community\VC\Tools\MSVC\14.29.30133\include\deque
; File C:\Program Files (x86)\Microsoft Visual Studio\2019\Community\VC\Tools\MSVC\14.29.30133\include\utility
; File C:\Program Files (x86)\Microsoft Visual Studio\2019\Community\VC\Tools\MSVC\14.29.30133\include\xmemory
; File C:\Program Files (x86)\Microsoft Visual Studio\2019\Community\VC\Tools\MSVC\14.29.30133\include\utility
; File C:\Program Files (x86)\Microsoft Visual Studio\2019\Community\VC\Tools\MSVC\14.29.30133\include\xmemory
; File C:\Program Files (x86)\Microsoft Visual Studio\2019\Community\VC\Tools\MSVC\14.29.30133\atlmfc\include\afxwin1.inl
; File D:\git\src\IBK\IBK_DRFN\ProjSrc\SrcChartEx\ChartAddIn\ChartAnalysisToolAddIn\Include_Chart\Dll_Load\IMetaTable.h
; File C:\Program Files (x86)\Microsoft Visual Studio\2019\Community\VC\Tools\MSVC\14.29.30133\atlmfc\include\afxwin1.inl
; File C:\Program Files (x86)\Microsoft Visual Studio\2019\Community\VC\Tools\MSVC\14.29.30133\include\deque
; File C:\Program Files (x86)\Microsoft Visual Studio\2019\Community\VC\Tools\MSVC\14.29.30133\atlmfc\include\afxwin1.inl
; File C:\Program Files (x86)\Microsoft Visual Studio\2019\Community\VC\Tools\MSVC\14.29.30133\include\deque
; File C:\Program Files (x86)\Microsoft Visual Studio\2019\Community\VC\Tools\MSVC\14.29.30133\include\utility
; File C:\Program Files (x86)\Microsoft Visual Studio\2019\Community\VC\Tools\MSVC\14.29.30133\include\xmemory
; File C:\Program Files (x86)\Microsoft Visual Studio\2019\Community\VC\Tools\MSVC\14.29.30133\include\utility
; File C:\Program Files (x86)\Microsoft Visual Studio\2019\Community\VC\Tools\MSVC\14.29.30133\include\xmemory
; File D:\git\src\IBK\IBK_DRFN\ProjSrc\SrcChartEx\ChartAddIn\ChartAnalysisToolAddIn\AnalysisTool\CurrentElementSet.cpp
;	COMDAT ?FiboSetDialogLoad@CCurrentElementSet@@AAE_NXZ
_TEXT	SEGMENT
_dlg$ = -3408						; size = 3352
_elementPointList$ = -56				; size = 32
$T2 = -24						; size = 4
___mlrs__$ = -20					; size = 4
_this$1$ = -16						; size = 4
__$EHRec$ = -12						; size = 12
?FiboSetDialogLoad@CCurrentElementSet@@AAE_NXZ PROC	; CCurrentElementSet::FiboSetDialogLoad, COMDAT
; _this$ = ecx

; 176  : {

  00000	55		 push	 ebp
  00001	8b ec		 mov	 ebp, esp
  00003	6a ff		 push	 -1
  00005	68 00 00 00 00	 push	 __ehhandler$?FiboSetDialogLoad@CCurrentElementSet@@AAE_NXZ
  0000a	64 a1 00 00 00
	00		 mov	 eax, DWORD PTR fs:0
  00010	50		 push	 eax
  00011	81 ec 44 0d 00
	00		 sub	 esp, 3396		; 00000d44H
  00017	53		 push	 ebx
  00018	56		 push	 esi
  00019	57		 push	 edi
  0001a	a1 00 00 00 00	 mov	 eax, DWORD PTR ___security_cookie
  0001f	33 c5		 xor	 eax, ebp
  00021	50		 push	 eax
  00022	8d 45 f4	 lea	 eax, DWORD PTR __$EHRec$[ebp]
  00025	64 a3 00 00 00
	00		 mov	 DWORD PTR fs:0, eax
  0002b	8b f1		 mov	 esi, ecx
  0002d	89 75 f0	 mov	 DWORD PTR _this$1$[ebp], esi

; 177  : 	CTextPosition* pTextPosition = const_cast <CTextPosition*> (m_pElement->GetTextPosition());

  00030	8b 4e 18	 mov	 ecx, DWORD PTR [esi+24]
  00033	8b 01		 mov	 eax, DWORD PTR [ecx]
  00035	ff 50 0c	 call	 DWORD PTR [eax+12]

; 178  : 	CElementPointList elementPointList;

  00038	8d 4d c8	 lea	 ecx, DWORD PTR _elementPointList$[ebp]
  0003b	8b d8		 mov	 ebx, eax
  0003d	e8 00 00 00 00	 call	 ??0CElementPointList@@QAE@XZ ; CElementPointList::CElementPointList

; 179  : 	m_pElement->GetPoints(elementPointList);

  00042	8b 4e 18	 mov	 ecx, DWORD PTR [esi+24]
  00045	8d 45 c8	 lea	 eax, DWORD PTR _elementPointList$[ebp]
  00048	50		 push	 eax
  00049	c7 45 fc 00 00
	00 00		 mov	 DWORD PTR __$EHRec$[ebp+8], 0
  00050	8b 11		 mov	 edx, DWORD PTR [ecx]
  00052	ff 52 08	 call	 DWORD PTR [edx+8]

; 180  : 
; 181  : 	ML_SET_LANGUAGE_RES();

  00055	e8 00 00 00 00	 call	 ?AfxGetStaticModuleState@@YGPAVAFX_MODULE_STATE@@XZ ; AfxGetStaticModuleState
  0005a	b9 00 00 00 00	 mov	 ecx, OFFSET ?g_iMetaTable@@3VIMetaTable@@A ; g_iMetaTable
  0005f	8b 40 08	 mov	 eax, DWORD PTR [eax+8]
  00062	50		 push	 eax
  00063	ff 76 24	 push	 DWORD PTR [esi+36]
  00066	e8 00 00 00 00	 call	 ?LoadResourceDLL@IMetaTable@@QAEPAUHINSTANCE__@@PAUHWND__@@PAU2@@Z ; IMetaTable::LoadResourceDLL
  0006b	8b f8		 mov	 edi, eax
; File C:\Program Files (x86)\Microsoft Visual Studio\2019\Community\VC\Tools\MSVC\14.29.30133\atlmfc\include\afxwin1.inl

; 25   : 		return afxCurrentResourceHandle; }

  0006d	e8 00 00 00 00	 call	 ?AfxGetModuleState@@YGPAVAFX_MODULE_STATE@@XZ ; AfxGetModuleState
; File D:\git\src\IBK\IBK_DRFN\ProjSrc\SrcChartEx\ChartAddIn\ChartAnalysisToolAddIn\Include_Chart\Dll_Load\IMetaTable.h

; 1034 : 		m_hInstance = AfxGetResourceHandle();

  00072	8b 70 0c	 mov	 esi, DWORD PTR [eax+12]
  00075	89 75 ec	 mov	 DWORD PTR ___mlrs__$[ebp], esi
; File C:\Program Files (x86)\Microsoft Visual Studio\2019\Community\VC\Tools\MSVC\14.29.30133\atlmfc\include\afxwin1.inl

; 27   : 	{ ASSERT(hInstResource != NULL); afxCurrentResourceHandle = hInstResource; }

  00078	e8 00 00 00 00	 call	 ?AfxGetModuleState@@YGPAVAFX_MODULE_STATE@@XZ ; AfxGetModuleState
  0007d	89 78 0c	 mov	 DWORD PTR [eax+12], edi
; File D:\git\src\IBK\IBK_DRFN\ProjSrc\SrcChartEx\ChartAddIn\ChartAnalysisToolAddIn\AnalysisTool\CurrentElementSet.cpp

; 195  : 	CDlgFiboSet dlg(m_pParent,m_strUserPath,

  00080	8b 45 f0	 mov	 eax, DWORD PTR _this$1$[ebp]
  00083	51		 push	 ecx
  00084	83 c0 0c	 add	 eax, 12			; 0000000cH
  00087	89 65 e8	 mov	 DWORD PTR $T2[ebp], esp
  0008a	8b cc		 mov	 ecx, esp
  0008c	c6 45 fc 01	 mov	 BYTE PTR __$EHRec$[ebp+8], 1
  00090	50		 push	 eax
  00091	ff 15 00 00 00
	00		 call	 DWORD PTR __imp_??0?$CStringT@DV?$StrTraitMFC_DLL@DV?$ChTraitsCRT@D@ATL@@@@@ATL@@QAE@ABV01@@Z
  00097	8b 4d f0	 mov	 ecx, DWORD PTR _this$1$[ebp]
  0009a	c6 45 fc 02	 mov	 BYTE PTR __$EHRec$[ebp+8], 2
  0009e	8b 79 18	 mov	 edi, DWORD PTR [ecx+24]
  000a1	8d 41 04	 lea	 eax, DWORD PTR [ecx+4]
  000a4	50		 push	 eax
  000a5	ff 31		 push	 DWORD PTR [ecx]
  000a7	8b cf		 mov	 ecx, edi
  000a9	e8 00 00 00 00	 call	 ?GetCommonEnvironment@CElement@@QAEAAVCElementCommonEnvironment@@XZ ; CElement::GetCommonEnvironment
  000ae	8b c8		 mov	 ecx, eax
  000b0	e8 00 00 00 00	 call	 ?GetDataType@CElementCommonEnvironment@@QAEAAVCDataTypeEnvironment@@XZ ; CElementCommonEnvironment::GetDataType
  000b5	50		 push	 eax
  000b6	8b 45 f0	 mov	 eax, DWORD PTR _this$1$[ebp]
  000b9	8b 48 18	 mov	 ecx, DWORD PTR [eax+24]
  000bc	e8 00 00 00 00	 call	 ?GetCommonEnvironment@CElement@@QAEAAVCElementCommonEnvironment@@XZ ; CElement::GetCommonEnvironment
  000c1	8b c8		 mov	 ecx, eax
  000c3	e8 00 00 00 00	 call	 ?GetLineExt@CElementCommonEnvironment@@QAEAAVCLineExtEnvironment@@XZ ; CElementCommonEnvironment::GetLineExt
  000c8	50		 push	 eax
  000c9	8d 45 c8	 lea	 eax, DWORD PTR _elementPointList$[ebp]
  000cc	50		 push	 eax
  000cd	8b 45 f0	 mov	 eax, DWORD PTR _this$1$[ebp]
  000d0	8b 48 18	 mov	 ecx, DWORD PTR [eax+24]
  000d3	e8 00 00 00 00	 call	 ?GetCommonEnvironment@CElement@@QAEAAVCElementCommonEnvironment@@XZ ; CElement::GetCommonEnvironment
  000d8	8b c8		 mov	 ecx, eax
  000da	e8 00 00 00 00	 call	 ?GetPen@CElementCommonEnvironment@@QAEAAVCPenEnvironment@@XZ ; CElementCommonEnvironment::GetPen
  000df	50		 push	 eax
  000e0	53		 push	 ebx
  000e1	8b 5d f0	 mov	 ebx, DWORD PTR _this$1$[ebp]
  000e4	8b 4b 18	 mov	 ecx, DWORD PTR [ebx+24]
  000e7	e8 00 00 00 00	 call	 ?GetCommonEnvironment@CElement@@QAEAAVCElementCommonEnvironment@@XZ ; CElement::GetCommonEnvironment
  000ec	8b c8		 mov	 ecx, eax
  000ee	e8 00 00 00 00	 call	 ?GetPriceRangeDiv@CElementCommonEnvironment@@QAEAAHXZ ; CElementCommonEnvironment::GetPriceRangeDiv
  000f3	8b 4b 18	 mov	 ecx, DWORD PTR [ebx+24]
  000f6	50		 push	 eax
  000f7	e8 00 00 00 00	 call	 ?GetCommonEnvironment@CElement@@QAEAAVCElementCommonEnvironment@@XZ ; CElement::GetCommonEnvironment
  000fc	8b c8		 mov	 ecx, eax
  000fe	e8 00 00 00 00	 call	 ?GetEquiDiv@CElementCommonEnvironment@@QAEAAHXZ ; CElementCommonEnvironment::GetEquiDiv
  00103	50		 push	 eax
  00104	8b 07		 mov	 eax, DWORD PTR [edi]
  00106	8b cf		 mov	 ecx, edi
  00108	ff 50 04	 call	 DWORD PTR [eax+4]
  0010b	50		 push	 eax
  0010c	8d 43 20	 lea	 eax, DWORD PTR [ebx+32]
  0010f	50		 push	 eax
  00110	8d 43 10	 lea	 eax, DWORD PTR [ebx+16]
  00113	50		 push	 eax
  00114	ff 73 14	 push	 DWORD PTR [ebx+20]
  00117	8d 8d b0 f2 ff
	ff		 lea	 ecx, DWORD PTR _dlg$[ebp]
  0011d	c6 45 fc 01	 mov	 BYTE PTR __$EHRec$[ebp+8], 1
  00121	e8 00 00 00 00	 call	 ??0CDlgFiboSet@@QAE@PAVCWnd@@ABV?$CStringT@DV?$StrTraitMFC_DLL@DV?$ChTraitsCRT@D@ATL@@@@@ATL@@ABW4HORZSCALEDRAWERTYPE@CScaleBaseData@@HPAH3PAVCTextPosition@@PAVCPenEnvironment@@PAVCElementPointList@@PAVCLineExtEnvironment@@PAVCDataTypeEnvironment@@PAUIChartOCX133101@@AAVCBlockIndex@@V23@@Z ; CDlgFiboSet::CDlgFiboSet

; 196  : 							m_nDataPeriod,
; 197  : 							m_pElement->GetElementType(),
; 198  : 							&m_pElement->GetCommonEnvironment().GetEquiDiv(),
; 199  : 							&m_pElement->GetCommonEnvironment().GetPriceRangeDiv(),	// (2008/8/15 - Seung-Won, Bae) Add option for using price range.
; 200  : 							pTextPosition,
; 201  : 							&m_pElement->GetCommonEnvironment().GetPen(),
; 202  : 							&elementPointList,
; 203  : 							&m_pElement->GetCommonEnvironment().GetLineExt(),
; 204  : 							&m_pElement->GetCommonEnvironment().GetDataType(),
; 205  : 							m_pIChartOCX,
; 206  : 							m_blockIndex,
; 207  : 							m_strFormatX);
; 208  : 	// 2011.02.08 by SYS <<
; 209  : 
; 210  : 	dlg.DoModal();	

  00126	8d 8d b0 f2 ff
	ff		 lea	 ecx, DWORD PTR _dlg$[ebp]
  0012c	c6 45 fc 03	 mov	 BYTE PTR __$EHRec$[ebp+8], 3
  00130	e8 00 00 00 00	 call	 ?DoModal@CDialog@@UAEHXZ ; CDialog::DoModal
; File C:\Program Files (x86)\Microsoft Visual Studio\2019\Community\VC\Tools\MSVC\14.29.30133\include\deque

; 1332 :         _Tidy();

  00135	8d 8d 20 ff ff
	ff		 lea	 ecx, DWORD PTR _dlg$[ebp+3184]
  0013b	e8 00 00 00 00	 call	 ?_Tidy@?$deque@PAVCCoordinate@@V?$allocator@PAVCCoordinate@@@std@@@std@@AAEXXZ ; std::deque<CCoordinate *,std::allocator<CCoordinate *> >::_Tidy

; 861  :         _Tidy();

  00140	8d 8d 20 ff ff
	ff		 lea	 ecx, DWORD PTR _dlg$[ebp+3184]
  00146	e8 00 00 00 00	 call	 ?_Tidy@?$deque@PAVCCoordinate@@V?$allocator@PAVCCoordinate@@@std@@@std@@AAEXXZ ; std::deque<CCoordinate *,std::allocator<CCoordinate *> >::_Tidy
; File C:\Program Files (x86)\Microsoft Visual Studio\2019\Community\VC\Tools\MSVC\14.29.30133\include\utility

; 602  :     _Ty _Old_val = static_cast<_Ty&&>(_Val);

  0014b	8b 85 20 ff ff
	ff		 mov	 eax, DWORD PTR _dlg$[ebp+3184]
; File C:\Program Files (x86)\Microsoft Visual Studio\2019\Community\VC\Tools\MSVC\14.29.30133\include\xmemory

; 255  :         ::operator delete(_Ptr, _Bytes);

  00151	6a 08		 push	 8
  00153	50		 push	 eax
; File C:\Program Files (x86)\Microsoft Visual Studio\2019\Community\VC\Tools\MSVC\14.29.30133\include\utility

; 603  :     _Val         = static_cast<_Other&&>(_New_val);

  00154	c7 85 20 ff ff
	ff 00 00 00 00	 mov	 DWORD PTR _dlg$[ebp+3184], 0
; File C:\Program Files (x86)\Microsoft Visual Studio\2019\Community\VC\Tools\MSVC\14.29.30133\include\xmemory

; 255  :         ::operator delete(_Ptr, _Bytes);

  0015e	e8 00 00 00 00	 call	 ??3@YAXPAXI@Z		; operator delete
  00163	83 c4 08	 add	 esp, 8
  00166	8d 8d 10 ff ff
	ff		 lea	 ecx, DWORD PTR _dlg$[ebp+3168]
  0016c	ff 15 00 00 00
	00		 call	 DWORD PTR __imp_??1?$CStringT@DV?$StrTraitMFC_DLL@DV?$ChTraitsCRT@D@ATL@@@@@ATL@@QAE@XZ
  00172	8d 8d 9c fe ff
	ff		 lea	 ecx, DWORD PTR _dlg$[ebp+3052]
  00178	ff 15 00 00 00
	00		 call	 DWORD PTR __imp_??1?$CStringT@DV?$StrTraitMFC_DLL@DV?$ChTraitsCRT@D@ATL@@@@@ATL@@QAE@XZ
  0017e	8d 8d 98 fe ff
	ff		 lea	 ecx, DWORD PTR _dlg$[ebp+3048]
  00184	ff 15 00 00 00
	00		 call	 DWORD PTR __imp_??1?$CStringT@DV?$StrTraitMFC_DLL@DV?$ChTraitsCRT@D@ATL@@@@@ATL@@QAE@XZ
  0018a	8d 8d 00 fe ff
	ff		 lea	 ecx, DWORD PTR _dlg$[ebp+2896]
  00190	e8 00 00 00 00	 call	 ??1CDateTimeCtrl@@UAE@XZ ; CDateTimeCtrl::~CDateTimeCtrl
  00195	8d 8d 80 fd ff
	ff		 lea	 ecx, DWORD PTR _dlg$[ebp+2768]
  0019b	e8 00 00 00 00	 call	 ??1CDateTimeCtrl@@UAE@XZ ; CDateTimeCtrl::~CDateTimeCtrl
  001a0	8d 8d 00 fd ff
	ff		 lea	 ecx, DWORD PTR _dlg$[ebp+2640]
  001a6	e8 00 00 00 00	 call	 ??1CDateTimeCtrl@@UAE@XZ ; CDateTimeCtrl::~CDateTimeCtrl
  001ab	8d 8d 80 fc ff
	ff		 lea	 ecx, DWORD PTR _dlg$[ebp+2512]
  001b1	e8 00 00 00 00	 call	 ??1CEdit@@UAE@XZ	; CEdit::~CEdit
  001b6	8d 8d 00 fc ff
	ff		 lea	 ecx, DWORD PTR _dlg$[ebp+2384]
  001bc	e8 00 00 00 00	 call	 ??1CEdit@@UAE@XZ	; CEdit::~CEdit
  001c1	8d 8d 80 fb ff
	ff		 lea	 ecx, DWORD PTR _dlg$[ebp+2256]
  001c7	e8 00 00 00 00	 call	 ??1CEdit@@UAE@XZ	; CEdit::~CEdit
  001cc	8d 8d 00 fb ff
	ff		 lea	 ecx, DWORD PTR _dlg$[ebp+2128]
  001d2	e8 00 00 00 00	 call	 ??1CEdit@@UAE@XZ	; CEdit::~CEdit
  001d7	8d 8d 80 fa ff
	ff		 lea	 ecx, DWORD PTR _dlg$[ebp+2000]
  001dd	e8 00 00 00 00	 call	 ??1CEdit@@UAE@XZ	; CEdit::~CEdit
  001e2	8d 8d 00 fa ff
	ff		 lea	 ecx, DWORD PTR _dlg$[ebp+1872]
  001e8	e8 00 00 00 00	 call	 ??1CEdit@@UAE@XZ	; CEdit::~CEdit
  001ed	8d 8d 80 f9 ff
	ff		 lea	 ecx, DWORD PTR _dlg$[ebp+1744]
  001f3	e8 00 00 00 00	 call	 ??1CButton@@UAE@XZ	; CButton::~CButton
  001f8	8d 8d 00 f9 ff
	ff		 lea	 ecx, DWORD PTR _dlg$[ebp+1616]
  001fe	e8 00 00 00 00	 call	 ??1CButton@@UAE@XZ	; CButton::~CButton
  00203	8d 8d 80 f8 ff
	ff		 lea	 ecx, DWORD PTR _dlg$[ebp+1488]
  00209	e8 00 00 00 00	 call	 ??1CButton@@UAE@XZ	; CButton::~CButton
  0020e	8d 8d 00 f8 ff
	ff		 lea	 ecx, DWORD PTR _dlg$[ebp+1360]
  00214	e8 00 00 00 00	 call	 ??1CButton@@UAE@XZ	; CButton::~CButton
  00219	8d 8d 80 f7 ff
	ff		 lea	 ecx, DWORD PTR _dlg$[ebp+1232]
  0021f	e8 00 00 00 00	 call	 ??1CButton@@UAE@XZ	; CButton::~CButton
  00224	8d 8d 00 f7 ff
	ff		 lea	 ecx, DWORD PTR _dlg$[ebp+1104]
  0022a	e8 00 00 00 00	 call	 ??1CButton@@UAE@XZ	; CButton::~CButton
  0022f	8d 8d 80 f6 ff
	ff		 lea	 ecx, DWORD PTR _dlg$[ebp+976]
  00235	e8 00 00 00 00	 call	 ??1CButton@@UAE@XZ	; CButton::~CButton
  0023a	8d 8d 00 f6 ff
	ff		 lea	 ecx, DWORD PTR _dlg$[ebp+848]
  00240	e8 00 00 00 00	 call	 ??1CButton@@UAE@XZ	; CButton::~CButton
  00245	8d 8d 80 f5 ff
	ff		 lea	 ecx, DWORD PTR _dlg$[ebp+720]
  0024b	e8 00 00 00 00	 call	 ??1CButton@@UAE@XZ	; CButton::~CButton
  00250	8d 8d f8 f4 ff
	ff		 lea	 ecx, DWORD PTR _dlg$[ebp+584]
  00256	e8 00 00 00 00	 call	 ??1CButton@@UAE@XZ	; CButton::~CButton
; File C:\Program Files (x86)\Microsoft Visual Studio\2019\Community\VC\Tools\MSVC\14.29.30133\atlmfc\include\afxwin1.inl

; 179  : 	{ }

  0025b	8d 8d ec f4 ff
	ff		 lea	 ecx, DWORD PTR _dlg$[ebp+572]
  00261	c7 85 ec f4 ff
	ff 00 00 00 00	 mov	 DWORD PTR _dlg$[ebp+572], OFFSET ??_7CBitmap@@6B@
  0026b	e8 00 00 00 00	 call	 ??1CGdiObject@@UAE@XZ	; CGdiObject::~CGdiObject
  00270	8d 8d 68 f4 ff
	ff		 lea	 ecx, DWORD PTR _dlg$[ebp+440]
  00276	e8 00 00 00 00	 call	 ??1CComboBox@@UAE@XZ	; CComboBox::~CComboBox
  0027b	8d 8d 5c f4 ff
	ff		 lea	 ecx, DWORD PTR _dlg$[ebp+428]
  00281	c7 85 5c f4 ff
	ff 00 00 00 00	 mov	 DWORD PTR _dlg$[ebp+428], OFFSET ??_7CBitmap@@6B@
  0028b	e8 00 00 00 00	 call	 ??1CGdiObject@@UAE@XZ	; CGdiObject::~CGdiObject
  00290	8d 8d d8 f3 ff
	ff		 lea	 ecx, DWORD PTR _dlg$[ebp+296]
  00296	e8 00 00 00 00	 call	 ??1CComboBox@@UAE@XZ	; CComboBox::~CComboBox
  0029b	8d 8d 58 f3 ff
	ff		 lea	 ecx, DWORD PTR _dlg$[ebp+168]
  002a1	e8 00 00 00 00	 call	 ??1CButton@@UAE@XZ	; CButton::~CButton
  002a6	8d 8d b0 f2 ff
	ff		 lea	 ecx, DWORD PTR _dlg$[ebp]
  002ac	e8 00 00 00 00	 call	 ??1CDialog@@UAE@XZ	; CDialog::~CDialog
; File D:\git\src\IBK\IBK_DRFN\ProjSrc\SrcChartEx\ChartAddIn\ChartAnalysisToolAddIn\Include_Chart\Dll_Load\IMetaTable.h

; 1038 : 	{

  002b1	c6 45 fc 04	 mov	 BYTE PTR __$EHRec$[ebp+8], 4
; File C:\Program Files (x86)\Microsoft Visual Studio\2019\Community\VC\Tools\MSVC\14.29.30133\atlmfc\include\afxwin1.inl

; 27   : 	{ ASSERT(hInstResource != NULL); afxCurrentResourceHandle = hInstResource; }

  002b5	e8 00 00 00 00	 call	 ?AfxGetModuleState@@YGPAVAFX_MODULE_STATE@@XZ ; AfxGetModuleState
; File C:\Program Files (x86)\Microsoft Visual Studio\2019\Community\VC\Tools\MSVC\14.29.30133\include\deque

; 1332 :         _Tidy();

  002ba	8d 4d d0	 lea	 ecx, DWORD PTR _elementPointList$[ebp+8]
; File C:\Program Files (x86)\Microsoft Visual Studio\2019\Community\VC\Tools\MSVC\14.29.30133\atlmfc\include\afxwin1.inl

; 27   : 	{ ASSERT(hInstResource != NULL); afxCurrentResourceHandle = hInstResource; }

  002bd	89 70 0c	 mov	 DWORD PTR [eax+12], esi
; File C:\Program Files (x86)\Microsoft Visual Studio\2019\Community\VC\Tools\MSVC\14.29.30133\include\deque

; 1332 :         _Tidy();

  002c0	e8 00 00 00 00	 call	 ?_Tidy@?$deque@PAVCCoordinate@@V?$allocator@PAVCCoordinate@@@std@@@std@@AAEXXZ ; std::deque<CCoordinate *,std::allocator<CCoordinate *> >::_Tidy

; 861  :         _Tidy();

  002c5	8d 4d d0	 lea	 ecx, DWORD PTR _elementPointList$[ebp+8]
  002c8	e8 00 00 00 00	 call	 ?_Tidy@?$deque@PAVCCoordinate@@V?$allocator@PAVCCoordinate@@@std@@@std@@AAEXXZ ; std::deque<CCoordinate *,std::allocator<CCoordinate *> >::_Tidy
; File C:\Program Files (x86)\Microsoft Visual Studio\2019\Community\VC\Tools\MSVC\14.29.30133\include\utility

; 602  :     _Ty _Old_val = static_cast<_Ty&&>(_Val);

  002cd	8b 45 d0	 mov	 eax, DWORD PTR _elementPointList$[ebp+8]
; File C:\Program Files (x86)\Microsoft Visual Studio\2019\Community\VC\Tools\MSVC\14.29.30133\include\xmemory

; 255  :         ::operator delete(_Ptr, _Bytes);

  002d0	6a 08		 push	 8
  002d2	50		 push	 eax
; File C:\Program Files (x86)\Microsoft Visual Studio\2019\Community\VC\Tools\MSVC\14.29.30133\include\utility

; 603  :     _Val         = static_cast<_Other&&>(_New_val);

  002d3	c7 45 d0 00 00
	00 00		 mov	 DWORD PTR _elementPointList$[ebp+8], 0
; File C:\Program Files (x86)\Microsoft Visual Studio\2019\Community\VC\Tools\MSVC\14.29.30133\include\xmemory

; 255  :         ::operator delete(_Ptr, _Bytes);

  002da	e8 00 00 00 00	 call	 ??3@YAXPAXI@Z		; operator delete
  002df	83 c4 08	 add	 esp, 8
; File D:\git\src\IBK\IBK_DRFN\ProjSrc\SrcChartEx\ChartAddIn\ChartAnalysisToolAddIn\AnalysisTool\CurrentElementSet.cpp

; 212  : 	return true;

  002e2	b0 01		 mov	 al, 1

; 213  : }

  002e4	8b 4d f4	 mov	 ecx, DWORD PTR __$EHRec$[ebp]
  002e7	64 89 0d 00 00
	00 00		 mov	 DWORD PTR fs:0, ecx
  002ee	59		 pop	 ecx
  002ef	5f		 pop	 edi
  002f0	5e		 pop	 esi
  002f1	5b		 pop	 ebx
  002f2	8b e5		 mov	 esp, ebp
  002f4	5d		 pop	 ebp
  002f5	c3		 ret	 0
_TEXT	ENDS
;	COMDAT text$x
text$x	SEGMENT
__unwindfunclet$?FiboSetDialogLoad@CCurrentElementSet@@AAE_NXZ$0:
  00000	8d 4d c8	 lea	 ecx, DWORD PTR _elementPointList$[ebp]
  00003	e9 00 00 00 00	 jmp	 ??1CElementPointList@@QAE@XZ
__unwindfunclet$?FiboSetDialogLoad@CCurrentElementSet@@AAE_NXZ$1:
  00008	8d 4d ec	 lea	 ecx, DWORD PTR ___mlrs__$[ebp]
  0000b	e9 00 00 00 00	 jmp	 ??1CMultiLanguageResourceSetter@@QAE@XZ ; CMultiLanguageResourceSetter::~CMultiLanguageResourceSetter
__unwindfunclet$?FiboSetDialogLoad@CCurrentElementSet@@AAE_NXZ$2:
  00010	8b 4d e8	 mov	 ecx, DWORD PTR $T2[ebp]
  00013	ff 25 00 00 00
	00		 jmp	 DWORD PTR __imp_??1?$CStringT@DV?$StrTraitMFC_DLL@DV?$ChTraitsCRT@D@ATL@@@@@ATL@@QAE@XZ
__unwindfunclet$?FiboSetDialogLoad@CCurrentElementSet@@AAE_NXZ$3:
  00019	8d 8d b0 f2 ff
	ff		 lea	 ecx, DWORD PTR _dlg$[ebp]
  0001f	e9 00 00 00 00	 jmp	 ??1CDlgFiboSet@@UAE@XZ
  00024	cc		 int	 3
  00025	cc		 int	 3
  00026	cc		 int	 3
  00027	cc		 int	 3
  00028	cc		 int	 3
__ehhandler$?FiboSetDialogLoad@CCurrentElementSet@@AAE_NXZ:
  00029	90		 npad	 1
  0002a	90		 npad	 1
  0002b	8b 54 24 08	 mov	 edx, DWORD PTR [esp+8]
  0002f	8d 42 0c	 lea	 eax, DWORD PTR [edx+12]
  00032	8b 8a ac f2 ff
	ff		 mov	 ecx, DWORD PTR [edx-3412]
  00038	33 c8		 xor	 ecx, eax
  0003a	e8 00 00 00 00	 call	 @__security_check_cookie@4
  0003f	b8 00 00 00 00	 mov	 eax, OFFSET __ehfuncinfo$?FiboSetDialogLoad@CCurrentElementSet@@AAE_NXZ
  00044	e9 00 00 00 00	 jmp	 ___CxxFrameHandler3
text$x	ENDS
?FiboSetDialogLoad@CCurrentElementSet@@AAE_NXZ ENDP	; CCurrentElementSet::FiboSetDialogLoad
; Function compile flags: /Ogtp
; File D:\git\src\IBK\IBK_DRFN\ProjSrc\SrcChartEx\ChartAddIn\ChartAnalysisToolAddIn\AnalysisTool\CurrentElementSet.cpp
; File C:\Program Files (x86)\Microsoft Visual Studio\2019\Community\VC\Tools\MSVC\14.29.30133\atlmfc\include\afxwin1.inl
; File D:\git\src\IBK\IBK_DRFN\ProjSrc\SrcChartEx\ChartAddIn\ChartAnalysisToolAddIn\Include_Chart\Dll_Load\IMetaTable.h
; File C:\Program Files (x86)\Microsoft Visual Studio\2019\Community\VC\Tools\MSVC\14.29.30133\atlmfc\include\afxwin1.inl
; File D:\git\src\IBK\IBK_DRFN\ProjSrc\SrcChartEx\ChartAddIn\ChartAnalysisToolAddIn\AnalysisTool\CurrentElementSet.cpp
; File D:\git\src\IBK\IBK_DRFN\ProjSrc\SrcChartEx\ChartAddIn\ChartAnalysisToolAddIn\Include_Chart\Dll_Load\IMetaTable.h
; File C:\Program Files (x86)\Microsoft Visual Studio\2019\Community\VC\Tools\MSVC\14.29.30133\atlmfc\include\afxwin1.inl
; File C:\Program Files (x86)\Microsoft Visual Studio\2019\Community\VC\Tools\MSVC\14.29.30133\include\deque
; File C:\Program Files (x86)\Microsoft Visual Studio\2019\Community\VC\Tools\MSVC\14.29.30133\atlmfc\include\afxwin1.inl
; File C:\Program Files (x86)\Microsoft Visual Studio\2019\Community\VC\Tools\MSVC\14.29.30133\include\deque
; File C:\Program Files (x86)\Microsoft Visual Studio\2019\Community\VC\Tools\MSVC\14.29.30133\include\utility
; File C:\Program Files (x86)\Microsoft Visual Studio\2019\Community\VC\Tools\MSVC\14.29.30133\include\xmemory
; File C:\Program Files (x86)\Microsoft Visual Studio\2019\Community\VC\Tools\MSVC\14.29.30133\include\utility
; File C:\Program Files (x86)\Microsoft Visual Studio\2019\Community\VC\Tools\MSVC\14.29.30133\include\xmemory
; File D:\git\src\IBK\IBK_DRFN\ProjSrc\SrcChartEx\ChartAddIn\ChartAnalysisToolAddIn\AnalysisTool\CurrentElementSet.cpp
;	COMDAT ?AnalysisToolDialogLoad@CCurrentElementSet@@AAE_NXZ
_TEXT	SEGMENT
_dlg$ = -3536						; size = 3480
_elementPointList$ = -56				; size = 32
$T2 = -24						; size = 4
___mlrs__$ = -20					; size = 4
_this$1$ = -16						; size = 4
__$EHRec$ = -12						; size = 12
?AnalysisToolDialogLoad@CCurrentElementSet@@AAE_NXZ PROC ; CCurrentElementSet::AnalysisToolDialogLoad, COMDAT
; _this$ = ecx

; 134  : {

  00000	55		 push	 ebp
  00001	8b ec		 mov	 ebp, esp
  00003	6a ff		 push	 -1
  00005	68 00 00 00 00	 push	 __ehhandler$?AnalysisToolDialogLoad@CCurrentElementSet@@AAE_NXZ
  0000a	64 a1 00 00 00
	00		 mov	 eax, DWORD PTR fs:0
  00010	50		 push	 eax
  00011	81 ec c4 0d 00
	00		 sub	 esp, 3524		; 00000dc4H
  00017	53		 push	 ebx
  00018	56		 push	 esi
  00019	57		 push	 edi
  0001a	a1 00 00 00 00	 mov	 eax, DWORD PTR ___security_cookie
  0001f	33 c5		 xor	 eax, ebp
  00021	50		 push	 eax
  00022	8d 45 f4	 lea	 eax, DWORD PTR __$EHRec$[ebp]
  00025	64 a3 00 00 00
	00		 mov	 DWORD PTR fs:0, eax
  0002b	8b f1		 mov	 esi, ecx
  0002d	89 75 f0	 mov	 DWORD PTR _this$1$[ebp], esi

; 135  : 	CTextPosition* pTextPosition = const_cast <CTextPosition*> (m_pElement->GetTextPosition());

  00030	8b 4e 18	 mov	 ecx, DWORD PTR [esi+24]
  00033	8b 01		 mov	 eax, DWORD PTR [ecx]
  00035	ff 50 0c	 call	 DWORD PTR [eax+12]

; 136  : 	CElementPointList elementPointList;

  00038	8d 4d c8	 lea	 ecx, DWORD PTR _elementPointList$[ebp]
  0003b	8b d8		 mov	 ebx, eax
  0003d	e8 00 00 00 00	 call	 ??0CElementPointList@@QAE@XZ ; CElementPointList::CElementPointList

; 137  : 	m_pElement->GetPoints(elementPointList);

  00042	8b 4e 18	 mov	 ecx, DWORD PTR [esi+24]
  00045	8d 45 c8	 lea	 eax, DWORD PTR _elementPointList$[ebp]
  00048	50		 push	 eax
  00049	c7 45 fc 00 00
	00 00		 mov	 DWORD PTR __$EHRec$[ebp+8], 0
  00050	8b 11		 mov	 edx, DWORD PTR [ecx]
  00052	ff 52 08	 call	 DWORD PTR [edx+8]

; 138  : 
; 139  : 	ML_SET_LANGUAGE_RES();

  00055	e8 00 00 00 00	 call	 ?AfxGetStaticModuleState@@YGPAVAFX_MODULE_STATE@@XZ ; AfxGetStaticModuleState
  0005a	b9 00 00 00 00	 mov	 ecx, OFFSET ?g_iMetaTable@@3VIMetaTable@@A ; g_iMetaTable
  0005f	8b 40 08	 mov	 eax, DWORD PTR [eax+8]
  00062	50		 push	 eax
  00063	ff 76 24	 push	 DWORD PTR [esi+36]
  00066	e8 00 00 00 00	 call	 ?LoadResourceDLL@IMetaTable@@QAEPAUHINSTANCE__@@PAUHWND__@@PAU2@@Z ; IMetaTable::LoadResourceDLL
  0006b	8b f8		 mov	 edi, eax
; File C:\Program Files (x86)\Microsoft Visual Studio\2019\Community\VC\Tools\MSVC\14.29.30133\atlmfc\include\afxwin1.inl

; 25   : 		return afxCurrentResourceHandle; }

  0006d	e8 00 00 00 00	 call	 ?AfxGetModuleState@@YGPAVAFX_MODULE_STATE@@XZ ; AfxGetModuleState
; File D:\git\src\IBK\IBK_DRFN\ProjSrc\SrcChartEx\ChartAddIn\ChartAnalysisToolAddIn\Include_Chart\Dll_Load\IMetaTable.h

; 1034 : 		m_hInstance = AfxGetResourceHandle();

  00072	8b 70 0c	 mov	 esi, DWORD PTR [eax+12]
  00075	89 75 ec	 mov	 DWORD PTR ___mlrs__$[ebp], esi
; File C:\Program Files (x86)\Microsoft Visual Studio\2019\Community\VC\Tools\MSVC\14.29.30133\atlmfc\include\afxwin1.inl

; 27   : 	{ ASSERT(hInstResource != NULL); afxCurrentResourceHandle = hInstResource; }

  00078	e8 00 00 00 00	 call	 ?AfxGetModuleState@@YGPAVAFX_MODULE_STATE@@XZ ; AfxGetModuleState
  0007d	89 78 0c	 mov	 DWORD PTR [eax+12], edi
; File D:\git\src\IBK\IBK_DRFN\ProjSrc\SrcChartEx\ChartAddIn\ChartAnalysisToolAddIn\AnalysisTool\CurrentElementSet.cpp

; 153  : 	CDlgAnalysisToolSet dlg(m_pParent,m_strUserPath,

  00080	8b 45 f0	 mov	 eax, DWORD PTR _this$1$[ebp]
  00083	c6 45 fc 01	 mov	 BYTE PTR __$EHRec$[ebp+8], 1
  00087	ff 70 1c	 push	 DWORD PTR [eax+28]
  0008a	83 c0 0c	 add	 eax, 12			; 0000000cH
  0008d	51		 push	 ecx
  0008e	8b cc		 mov	 ecx, esp
  00090	89 65 e8	 mov	 DWORD PTR $T2[ebp], esp
  00093	50		 push	 eax
  00094	ff 15 00 00 00
	00		 call	 DWORD PTR __imp_??0?$CStringT@DV?$StrTraitMFC_DLL@DV?$ChTraitsCRT@D@ATL@@@@@ATL@@QAE@ABV01@@Z
  0009a	8b 4d f0	 mov	 ecx, DWORD PTR _this$1$[ebp]
  0009d	c6 45 fc 02	 mov	 BYTE PTR __$EHRec$[ebp+8], 2
  000a1	8b 79 18	 mov	 edi, DWORD PTR [ecx+24]
  000a4	8d 41 04	 lea	 eax, DWORD PTR [ecx+4]
  000a7	50		 push	 eax
  000a8	ff 31		 push	 DWORD PTR [ecx]
  000aa	8b cf		 mov	 ecx, edi
  000ac	e8 00 00 00 00	 call	 ?GetCommonEnvironment@CElement@@QAEAAVCElementCommonEnvironment@@XZ ; CElement::GetCommonEnvironment
  000b1	8b c8		 mov	 ecx, eax
  000b3	e8 00 00 00 00	 call	 ?GetDataType@CElementCommonEnvironment@@QAEAAVCDataTypeEnvironment@@XZ ; CElementCommonEnvironment::GetDataType
  000b8	8b 4d f0	 mov	 ecx, DWORD PTR _this$1$[ebp]
  000bb	50		 push	 eax
  000bc	8b 49 18	 mov	 ecx, DWORD PTR [ecx+24]
  000bf	e8 00 00 00 00	 call	 ?GetCommonEnvironment@CElement@@QAEAAVCElementCommonEnvironment@@XZ ; CElement::GetCommonEnvironment
  000c4	8b c8		 mov	 ecx, eax
  000c6	e8 00 00 00 00	 call	 ?GetLineExt@CElementCommonEnvironment@@QAEAAVCLineExtEnvironment@@XZ ; CElementCommonEnvironment::GetLineExt
  000cb	50		 push	 eax
  000cc	8d 45 c8	 lea	 eax, DWORD PTR _elementPointList$[ebp]
  000cf	50		 push	 eax
  000d0	8b 45 f0	 mov	 eax, DWORD PTR _this$1$[ebp]
  000d3	8b 48 18	 mov	 ecx, DWORD PTR [eax+24]
  000d6	e8 00 00 00 00	 call	 ?GetCommonEnvironment@CElement@@QAEAAVCElementCommonEnvironment@@XZ ; CElement::GetCommonEnvironment
  000db	8b c8		 mov	 ecx, eax
  000dd	e8 00 00 00 00	 call	 ?GetPen@CElementCommonEnvironment@@QAEAAVCPenEnvironment@@XZ ; CElementCommonEnvironment::GetPen
  000e2	50		 push	 eax
  000e3	53		 push	 ebx
  000e4	8b 5d f0	 mov	 ebx, DWORD PTR _this$1$[ebp]
  000e7	8b 4b 18	 mov	 ecx, DWORD PTR [ebx+24]
  000ea	e8 00 00 00 00	 call	 ?GetCommonEnvironment@CElement@@QAEAAVCElementCommonEnvironment@@XZ ; CElement::GetCommonEnvironment
  000ef	8b c8		 mov	 ecx, eax
  000f1	e8 00 00 00 00	 call	 ?GetPriceRangeDiv@CElementCommonEnvironment@@QAEAAHXZ ; CElementCommonEnvironment::GetPriceRangeDiv
  000f6	8b 4b 18	 mov	 ecx, DWORD PTR [ebx+24]
  000f9	50		 push	 eax
  000fa	e8 00 00 00 00	 call	 ?GetCommonEnvironment@CElement@@QAEAAVCElementCommonEnvironment@@XZ ; CElement::GetCommonEnvironment
  000ff	8b c8		 mov	 ecx, eax
  00101	e8 00 00 00 00	 call	 ?GetEquiDiv@CElementCommonEnvironment@@QAEAAHXZ ; CElementCommonEnvironment::GetEquiDiv
  00106	50		 push	 eax
  00107	8b 07		 mov	 eax, DWORD PTR [edi]
  00109	8b cf		 mov	 ecx, edi
  0010b	ff 50 04	 call	 DWORD PTR [eax+4]
  0010e	50		 push	 eax
  0010f	8d 43 20	 lea	 eax, DWORD PTR [ebx+32]
  00112	50		 push	 eax
  00113	8d 43 10	 lea	 eax, DWORD PTR [ebx+16]
  00116	50		 push	 eax
  00117	ff 73 14	 push	 DWORD PTR [ebx+20]
  0011a	8d 8d 30 f2 ff
	ff		 lea	 ecx, DWORD PTR _dlg$[ebp]
  00120	c6 45 fc 01	 mov	 BYTE PTR __$EHRec$[ebp+8], 1
  00124	e8 00 00 00 00	 call	 ??0CDlgAnalysisToolSet@@QAE@PAVCWnd@@ABV?$CStringT@DV?$StrTraitMFC_DLL@DV?$ChTraitsCRT@D@ATL@@@@@ATL@@ABW4HORZSCALEDRAWERTYPE@CScaleBaseData@@HPAH3PAVCTextPosition@@PAVCPenEnvironment@@PAVCElementPointList@@PAVCLineExtEnvironment@@PAVCDataTypeEnvironment@@PAUIChartOCX133101@@AAVCBlockIndex@@V23@J@Z ; CDlgAnalysisToolSet::CDlgAnalysisToolSet

; 154  : 							m_nDataPeriod,
; 155  : 							m_pElement->GetElementType(),
; 156  : 							&m_pElement->GetCommonEnvironment().GetEquiDiv(),
; 157  : 							&m_pElement->GetCommonEnvironment().GetPriceRangeDiv(),	// (2008/8/15 - Seung-Won, Bae) Add option for using price range.
; 158  : 							pTextPosition,
; 159  : 							&m_pElement->GetCommonEnvironment().GetPen(),
; 160  : 							&elementPointList,
; 161  : 							&m_pElement->GetCommonEnvironment().GetLineExt(),
; 162  : 							&m_pElement->GetCommonEnvironment().GetDataType(),
; 163  : 							m_pIChartOCX,
; 164  : 							m_blockIndex,
; 165  : 							m_strFormatX,
; 166  : 							m_pInterface);
; 167  : 	// 2011.02.08 by SYS <<
; 168  : 
; 169  : 
; 170  : 	dlg.DoModal();	

  00129	8d 8d 30 f2 ff
	ff		 lea	 ecx, DWORD PTR _dlg$[ebp]
  0012f	c6 45 fc 03	 mov	 BYTE PTR __$EHRec$[ebp+8], 3
  00133	e8 00 00 00 00	 call	 ?DoModal@CDialog@@UAEHXZ ; CDialog::DoModal

; 171  : 	return true;

  00138	8d 8d 30 f2 ff
	ff		 lea	 ecx, DWORD PTR _dlg$[ebp]
  0013e	e8 00 00 00 00	 call	 ??1CDlgAnalysisToolSet@@UAE@XZ
; File D:\git\src\IBK\IBK_DRFN\ProjSrc\SrcChartEx\ChartAddIn\ChartAnalysisToolAddIn\Include_Chart\Dll_Load\IMetaTable.h

; 1038 : 	{

  00143	c6 45 fc 04	 mov	 BYTE PTR __$EHRec$[ebp+8], 4
; File C:\Program Files (x86)\Microsoft Visual Studio\2019\Community\VC\Tools\MSVC\14.29.30133\atlmfc\include\afxwin1.inl

; 27   : 	{ ASSERT(hInstResource != NULL); afxCurrentResourceHandle = hInstResource; }

  00147	e8 00 00 00 00	 call	 ?AfxGetModuleState@@YGPAVAFX_MODULE_STATE@@XZ ; AfxGetModuleState
; File C:\Program Files (x86)\Microsoft Visual Studio\2019\Community\VC\Tools\MSVC\14.29.30133\include\deque

; 1332 :         _Tidy();

  0014c	8d 4d d0	 lea	 ecx, DWORD PTR _elementPointList$[ebp+8]
; File C:\Program Files (x86)\Microsoft Visual Studio\2019\Community\VC\Tools\MSVC\14.29.30133\atlmfc\include\afxwin1.inl

; 27   : 	{ ASSERT(hInstResource != NULL); afxCurrentResourceHandle = hInstResource; }

  0014f	89 70 0c	 mov	 DWORD PTR [eax+12], esi
; File C:\Program Files (x86)\Microsoft Visual Studio\2019\Community\VC\Tools\MSVC\14.29.30133\include\deque

; 1332 :         _Tidy();

  00152	e8 00 00 00 00	 call	 ?_Tidy@?$deque@PAVCCoordinate@@V?$allocator@PAVCCoordinate@@@std@@@std@@AAEXXZ ; std::deque<CCoordinate *,std::allocator<CCoordinate *> >::_Tidy

; 861  :         _Tidy();

  00157	8d 4d d0	 lea	 ecx, DWORD PTR _elementPointList$[ebp+8]
  0015a	e8 00 00 00 00	 call	 ?_Tidy@?$deque@PAVCCoordinate@@V?$allocator@PAVCCoordinate@@@std@@@std@@AAEXXZ ; std::deque<CCoordinate *,std::allocator<CCoordinate *> >::_Tidy
; File C:\Program Files (x86)\Microsoft Visual Studio\2019\Community\VC\Tools\MSVC\14.29.30133\include\utility

; 602  :     _Ty _Old_val = static_cast<_Ty&&>(_Val);

  0015f	8b 45 d0	 mov	 eax, DWORD PTR _elementPointList$[ebp+8]
; File C:\Program Files (x86)\Microsoft Visual Studio\2019\Community\VC\Tools\MSVC\14.29.30133\include\xmemory

; 255  :         ::operator delete(_Ptr, _Bytes);

  00162	6a 08		 push	 8
  00164	50		 push	 eax
; File C:\Program Files (x86)\Microsoft Visual Studio\2019\Community\VC\Tools\MSVC\14.29.30133\include\utility

; 603  :     _Val         = static_cast<_Other&&>(_New_val);

  00165	c7 45 d0 00 00
	00 00		 mov	 DWORD PTR _elementPointList$[ebp+8], 0
; File C:\Program Files (x86)\Microsoft Visual Studio\2019\Community\VC\Tools\MSVC\14.29.30133\include\xmemory

; 255  :         ::operator delete(_Ptr, _Bytes);

  0016c	e8 00 00 00 00	 call	 ??3@YAXPAXI@Z		; operator delete
  00171	83 c4 08	 add	 esp, 8
; File D:\git\src\IBK\IBK_DRFN\ProjSrc\SrcChartEx\ChartAddIn\ChartAnalysisToolAddIn\AnalysisTool\CurrentElementSet.cpp

; 171  : 	return true;

  00174	b0 01		 mov	 al, 1

; 172  : }

  00176	8b 4d f4	 mov	 ecx, DWORD PTR __$EHRec$[ebp]
  00179	64 89 0d 00 00
	00 00		 mov	 DWORD PTR fs:0, ecx
  00180	59		 pop	 ecx
  00181	5f		 pop	 edi
  00182	5e		 pop	 esi
  00183	5b		 pop	 ebx
  00184	8b e5		 mov	 esp, ebp
  00186	5d		 pop	 ebp
  00187	c3		 ret	 0
_TEXT	ENDS
;	COMDAT text$x
text$x	SEGMENT
__unwindfunclet$?AnalysisToolDialogLoad@CCurrentElementSet@@AAE_NXZ$0:
  00000	8d 4d c8	 lea	 ecx, DWORD PTR _elementPointList$[ebp]
  00003	e9 00 00 00 00	 jmp	 ??1CElementPointList@@QAE@XZ
__unwindfunclet$?AnalysisToolDialogLoad@CCurrentElementSet@@AAE_NXZ$1:
  00008	8d 4d ec	 lea	 ecx, DWORD PTR ___mlrs__$[ebp]
  0000b	e9 00 00 00 00	 jmp	 ??1CMultiLanguageResourceSetter@@QAE@XZ ; CMultiLanguageResourceSetter::~CMultiLanguageResourceSetter
__unwindfunclet$?AnalysisToolDialogLoad@CCurrentElementSet@@AAE_NXZ$2:
  00010	8b 4d e8	 mov	 ecx, DWORD PTR $T2[ebp]
  00013	ff 25 00 00 00
	00		 jmp	 DWORD PTR __imp_??1?$CStringT@DV?$StrTraitMFC_DLL@DV?$ChTraitsCRT@D@ATL@@@@@ATL@@QAE@XZ
__unwindfunclet$?AnalysisToolDialogLoad@CCurrentElementSet@@AAE_NXZ$3:
  00019	8d 8d 30 f2 ff
	ff		 lea	 ecx, DWORD PTR _dlg$[ebp]
  0001f	e9 00 00 00 00	 jmp	 ??1CDlgAnalysisToolSet@@UAE@XZ
  00024	cc		 int	 3
  00025	cc		 int	 3
  00026	cc		 int	 3
  00027	cc		 int	 3
  00028	cc		 int	 3
__ehhandler$?AnalysisToolDialogLoad@CCurrentElementSet@@AAE_NXZ:
  00029	90		 npad	 1
  0002a	90		 npad	 1
  0002b	8b 54 24 08	 mov	 edx, DWORD PTR [esp+8]
  0002f	8d 42 0c	 lea	 eax, DWORD PTR [edx+12]
  00032	8b 8a 2c f2 ff
	ff		 mov	 ecx, DWORD PTR [edx-3540]
  00038	33 c8		 xor	 ecx, eax
  0003a	e8 00 00 00 00	 call	 @__security_check_cookie@4
  0003f	b8 00 00 00 00	 mov	 eax, OFFSET __ehfuncinfo$?AnalysisToolDialogLoad@CCurrentElementSet@@AAE_NXZ
  00044	e9 00 00 00 00	 jmp	 ___CxxFrameHandler3
text$x	ENDS
?AnalysisToolDialogLoad@CCurrentElementSet@@AAE_NXZ ENDP ; CCurrentElementSet::AnalysisToolDialogLoad
; Function compile flags: /Ogtp
; File D:\git\src\IBK\IBK_DRFN\ProjSrc\SrcChartEx\ChartAddIn\ChartAnalysisToolAddIn\AnalysisTool\CurrentElementSet.cpp
;	COMDAT ?OnMenu_Style@CCurrentElementSet@@AAEXW4PenStyle@CToolEnumData@@@Z
_TEXT	SEGMENT
_eStyle$ = 8						; size = 4
?OnMenu_Style@CCurrentElementSet@@AAEXW4PenStyle@CToolEnumData@@@Z PROC ; CCurrentElementSet::OnMenu_Style, COMDAT
; _this$ = ecx

; 128  : {

  00000	55		 push	 ebp
  00001	8b ec		 mov	 ebp, esp

; 129  : 	m_pElement->GetCommonEnvironment().GetPen().SetStyle(eStyle);

  00003	ff 75 08	 push	 DWORD PTR _eStyle$[ebp]
  00006	8b 49 18	 mov	 ecx, DWORD PTR [ecx+24]
  00009	e8 00 00 00 00	 call	 ?GetCommonEnvironment@CElement@@QAEAAVCElementCommonEnvironment@@XZ ; CElement::GetCommonEnvironment
  0000e	8b c8		 mov	 ecx, eax
  00010	e8 00 00 00 00	 call	 ?GetPen@CElementCommonEnvironment@@QAEAAVCPenEnvironment@@XZ ; CElementCommonEnvironment::GetPen
  00015	8b c8		 mov	 ecx, eax
  00017	e8 00 00 00 00	 call	 ?SetStyle@CPenEnvironment@@QAEXW4PenStyle@CToolEnumData@@@Z ; CPenEnvironment::SetStyle

; 130  : }

  0001c	5d		 pop	 ebp
  0001d	c2 04 00	 ret	 4
?OnMenu_Style@CCurrentElementSet@@AAEXW4PenStyle@CToolEnumData@@@Z ENDP ; CCurrentElementSet::OnMenu_Style
_TEXT	ENDS
; Function compile flags: /Ogtp
; File D:\git\src\IBK\IBK_DRFN\ProjSrc\SrcChartEx\ChartAddIn\ChartAnalysisToolAddIn\AnalysisTool\CurrentElementSet.cpp
;	COMDAT ?OnMenu_Width@CCurrentElementSet@@AAEXH@Z
_TEXT	SEGMENT
_nWidth$ = 8						; size = 4
?OnMenu_Width@CCurrentElementSet@@AAEXH@Z PROC		; CCurrentElementSet::OnMenu_Width, COMDAT
; _this$ = ecx

; 123  : {

  00000	55		 push	 ebp
  00001	8b ec		 mov	 ebp, esp

; 124  : 	m_pElement->GetCommonEnvironment().GetPen().SetWidth(nWidth);

  00003	ff 75 08	 push	 DWORD PTR _nWidth$[ebp]
  00006	8b 49 18	 mov	 ecx, DWORD PTR [ecx+24]
  00009	e8 00 00 00 00	 call	 ?GetCommonEnvironment@CElement@@QAEAAVCElementCommonEnvironment@@XZ ; CElement::GetCommonEnvironment
  0000e	8b c8		 mov	 ecx, eax
  00010	e8 00 00 00 00	 call	 ?GetPen@CElementCommonEnvironment@@QAEAAVCPenEnvironment@@XZ ; CElementCommonEnvironment::GetPen
  00015	8b c8		 mov	 ecx, eax
  00017	e8 00 00 00 00	 call	 ?SetWidth@CPenEnvironment@@QAEXH@Z ; CPenEnvironment::SetWidth

; 125  : }

  0001c	5d		 pop	 ebp
  0001d	c2 04 00	 ret	 4
?OnMenu_Width@CCurrentElementSet@@AAEXH@Z ENDP		; CCurrentElementSet::OnMenu_Width
_TEXT	ENDS
; Function compile flags: /Ogtp
; File D:\git\src\IBK\IBK_DRFN\ProjSrc\SrcChartEx\ChartAddIn\ChartAnalysisToolAddIn\AnalysisTool\CurrentElementSet.cpp
;	COMDAT ?OnMenu_Color@CCurrentElementSet@@AAEXABK@Z
_TEXT	SEGMENT
_color$ = 8						; size = 4
?OnMenu_Color@CCurrentElementSet@@AAEXABK@Z PROC	; CCurrentElementSet::OnMenu_Color, COMDAT
; _this$ = ecx

; 118  : {

  00000	55		 push	 ebp
  00001	8b ec		 mov	 ebp, esp

; 119  : 	m_pElement->GetCommonEnvironment().GetPen().SetColor(color);

  00003	ff 75 08	 push	 DWORD PTR _color$[ebp]
  00006	8b 49 18	 mov	 ecx, DWORD PTR [ecx+24]
  00009	e8 00 00 00 00	 call	 ?GetCommonEnvironment@CElement@@QAEAAVCElementCommonEnvironment@@XZ ; CElement::GetCommonEnvironment
  0000e	8b c8		 mov	 ecx, eax
  00010	e8 00 00 00 00	 call	 ?GetPen@CElementCommonEnvironment@@QAEAAVCPenEnvironment@@XZ ; CElementCommonEnvironment::GetPen
  00015	8b c8		 mov	 ecx, eax
  00017	e8 00 00 00 00	 call	 ?SetColor@CPenEnvironment@@QAEXABK@Z ; CPenEnvironment::SetColor

; 120  : }

  0001c	5d		 pop	 ebp
  0001d	c2 04 00	 ret	 4
?OnMenu_Color@CCurrentElementSet@@AAEXABK@Z ENDP	; CCurrentElementSet::OnMenu_Color
_TEXT	ENDS
; Function compile flags: /Ogtp
; File D:\git\src\IBK\IBK_DRFN\ProjSrc\SrcChartEx\ChartAddIn\ChartAnalysisToolAddIn\AnalysisTool\CurrentElementSet.cpp
; File C:\Program Files (x86)\Microsoft Visual Studio\2019\Community\VC\Tools\MSVC\14.29.30133\atlmfc\include\afxwin2.inl
; File D:\git\src\IBK\IBK_DRFN\ProjSrc\SrcChartEx\ChartAddIn\ChartAnalysisToolAddIn\AnalysisTool\CurrentElementSet.cpp
;	COMDAT ?OnMenu_Pen@CCurrentElementSet@@AAE_NW4ELEMENTMENU@CMenuType@@I@Z
_TEXT	SEGMENT
_menuType$ = 8						; size = 4
$T1 = 12						; size = 4
_wParam$ = 12						; size = 4
?OnMenu_Pen@CCurrentElementSet@@AAE_NW4ELEMENTMENU@CMenuType@@I@Z PROC ; CCurrentElementSet::OnMenu_Pen, COMDAT
; _this$ = ecx

; 96   : {

  00000	55		 push	 ebp
  00001	8b ec		 mov	 ebp, esp

; 97   : 	switch(menuType){

  00003	8b 45 08	 mov	 eax, DWORD PTR _menuType$[ebp]
  00006	56		 push	 esi
  00007	8b f1		 mov	 esi, ecx
  00009	83 e8 02	 sub	 eax, 2
  0000c	74 47		 je	 SHORT $LN4@OnMenu_Pen
  0000e	83 e8 01	 sub	 eax, 1
  00011	74 27		 je	 SHORT $LN5@OnMenu_Pen
  00013	83 e8 02	 sub	 eax, 2
  00016	74 07		 je	 SHORT $LN6@OnMenu_Pen

; 107  : 	default:
; 108  : 		return false;

  00018	32 c0		 xor	 al, al
  0001a	5e		 pop	 esi

; 115  : }

  0001b	5d		 pop	 ebp
  0001c	c2 08 00	 ret	 8
$LN6@OnMenu_Pen:

; 129  : 	m_pElement->GetCommonEnvironment().GetPen().SetStyle(eStyle);

  0001f	ff 75 0c	 push	 DWORD PTR _wParam$[ebp]
  00022	8b 4e 18	 mov	 ecx, DWORD PTR [esi+24]
  00025	e8 00 00 00 00	 call	 ?GetCommonEnvironment@CElement@@QAEAAVCElementCommonEnvironment@@XZ ; CElement::GetCommonEnvironment
  0002a	8b c8		 mov	 ecx, eax
  0002c	e8 00 00 00 00	 call	 ?GetPen@CElementCommonEnvironment@@QAEAAVCPenEnvironment@@XZ ; CElementCommonEnvironment::GetPen
  00031	8b c8		 mov	 ecx, eax
  00033	e8 00 00 00 00	 call	 ?SetStyle@CPenEnvironment@@QAEXW4PenStyle@CToolEnumData@@@Z ; CPenEnvironment::SetStyle

; 104  : 	case CMenuType::MENU_DRAWSTYLE: // draw style
; 105  : 		OnMenu_Style((CToolEnumData::PenStyle) wParam);
; 106  : 		break;

  00038	eb 3b		 jmp	 SHORT $LN2@OnMenu_Pen
$LN5@OnMenu_Pen:

; 124  : 	m_pElement->GetCommonEnvironment().GetPen().SetWidth(nWidth);

  0003a	ff 75 0c	 push	 DWORD PTR _wParam$[ebp]
  0003d	8b 4e 18	 mov	 ecx, DWORD PTR [esi+24]
  00040	e8 00 00 00 00	 call	 ?GetCommonEnvironment@CElement@@QAEAAVCElementCommonEnvironment@@XZ ; CElement::GetCommonEnvironment
  00045	8b c8		 mov	 ecx, eax
  00047	e8 00 00 00 00	 call	 ?GetPen@CElementCommonEnvironment@@QAEAAVCPenEnvironment@@XZ ; CElementCommonEnvironment::GetPen
  0004c	8b c8		 mov	 ecx, eax
  0004e	e8 00 00 00 00	 call	 ?SetWidth@CPenEnvironment@@QAEXH@Z ; CPenEnvironment::SetWidth

; 100  : 		break;
; 101  : 	case CMenuType::MENU_THICKNESS: // thickness
; 102  : 		OnMenu_Width((int) wParam);
; 103  : 		break;

  00053	eb 20		 jmp	 SHORT $LN2@OnMenu_Pen
$LN4@OnMenu_Pen:

; 98   : 	case CMenuType::MENU_COLOR:		// 
; 99   : 		OnMenu_Color((COLORREF) wParam);

  00055	8b 45 0c	 mov	 eax, DWORD PTR _wParam$[ebp]

; 119  : 	m_pElement->GetCommonEnvironment().GetPen().SetColor(color);

  00058	8b 4e 18	 mov	 ecx, DWORD PTR [esi+24]

; 98   : 	case CMenuType::MENU_COLOR:		// 
; 99   : 		OnMenu_Color((COLORREF) wParam);

  0005b	89 45 0c	 mov	 DWORD PTR $T1[ebp], eax

; 119  : 	m_pElement->GetCommonEnvironment().GetPen().SetColor(color);

  0005e	8d 45 0c	 lea	 eax, DWORD PTR $T1[ebp]
  00061	50		 push	 eax
  00062	e8 00 00 00 00	 call	 ?GetCommonEnvironment@CElement@@QAEAAVCElementCommonEnvironment@@XZ ; CElement::GetCommonEnvironment
  00067	8b c8		 mov	 ecx, eax
  00069	e8 00 00 00 00	 call	 ?GetPen@CElementCommonEnvironment@@QAEAAVCPenEnvironment@@XZ ; CElementCommonEnvironment::GetPen
  0006e	8b c8		 mov	 ecx, eax
  00070	e8 00 00 00 00	 call	 ?SetColor@CPenEnvironment@@QAEXABK@Z ; CPenEnvironment::SetColor
$LN2@OnMenu_Pen:

; 109  : 	}
; 110  : 
; 111  : 	if(m_pParent != NULL)

  00075	8b 46 14	 mov	 eax, DWORD PTR [esi+20]
  00078	85 c0		 test	 eax, eax
  0007a	74 0d		 je	 SHORT $LN8@OnMenu_Pen
; File C:\Program Files (x86)\Microsoft Visual Studio\2019\Community\VC\Tools\MSVC\14.29.30133\atlmfc\include\afxwin2.inl

; 114  : 	{ ASSERT(::IsWindow(m_hWnd)); ::InvalidateRect(m_hWnd, NULL, bErase); }

  0007c	6a 01		 push	 1
  0007e	6a 00		 push	 0
  00080	ff 70 20	 push	 DWORD PTR [eax+32]
  00083	ff 15 00 00 00
	00		 call	 DWORD PTR __imp__InvalidateRect@12
$LN8@OnMenu_Pen:
; File D:\git\src\IBK\IBK_DRFN\ProjSrc\SrcChartEx\ChartAddIn\ChartAnalysisToolAddIn\AnalysisTool\CurrentElementSet.cpp

; 114  : 	return true;

  00089	b0 01		 mov	 al, 1
  0008b	5e		 pop	 esi

; 115  : }

  0008c	5d		 pop	 ebp
  0008d	c2 08 00	 ret	 8
?OnMenu_Pen@CCurrentElementSet@@AAE_NW4ELEMENTMENU@CMenuType@@I@Z ENDP ; CCurrentElementSet::OnMenu_Pen
_TEXT	ENDS
; Function compile flags: /Ogtp
; File D:\git\src\IBK\IBK_DRFN\ProjSrc\SrcChartEx\ChartAddIn\ChartAnalysisToolAddIn\AnalysisTool\CurrentElementSet.cpp
;	COMDAT ?OnMenu_Set@CCurrentElementSet@@AAE_N_N@Z
_TEXT	SEGMENT
_bIsAction$ = 8						; size = 1
?OnMenu_Set@CCurrentElementSet@@AAE_N_N@Z PROC		; CCurrentElementSet::OnMenu_Set, COMDAT
; _this$ = ecx

; 74   : {

  00000	55		 push	 ebp
  00001	8b ec		 mov	 ebp, esp

; 75   : 	if(!bIsAction)

  00003	80 7d 08 00	 cmp	 BYTE PTR _bIsAction$[ebp], 0
  00007	56		 push	 esi
  00008	8b f1		 mov	 esi, ecx
  0000a	75 07		 jne	 SHORT $LN2@OnMenu_Set

; 76   : 		return false;

  0000c	32 c0		 xor	 al, al
  0000e	5e		 pop	 esi

; 93   : }

  0000f	5d		 pop	 ebp
  00010	c2 04 00	 ret	 4
$LN2@OnMenu_Set:

; 77   : 
; 78   : 	// 2008.08.20   <<
; 79   : 	CToolEnumData::ElementType nElementType = m_pElement->GetElementType();

  00013	8b 4e 18	 mov	 ecx, DWORD PTR [esi+24]
  00016	8b 01		 mov	 eax, DWORD PTR [ecx]
  00018	ff 50 04	 call	 DWORD PTR [eax+4]

; 80   : 	if( nElementType == CToolEnumData::Fibo_Semicircle ||	//  
; 81   : 			nElementType == CToolEnumData::Fibo_Circle ||		//  
; 82   : 			nElementType == CToolEnumData::Fibo_Fan_Line ||		//  
; 83   : 			nElementType == CToolEnumData::Fibo_Retrace ||		//  ()

  0001b	83 f8 08	 cmp	 eax, 8
  0001e	74 2f		 je	 SHORT $LN5@OnMenu_Set
  00020	83 f8 09	 cmp	 eax, 9
  00023	74 2a		 je	 SHORT $LN5@OnMenu_Set
  00025	83 f8 0a	 cmp	 eax, 10			; 0000000aH
  00028	74 25		 je	 SHORT $LN5@OnMenu_Set
  0002a	83 f8 0b	 cmp	 eax, 11			; 0000000bH
  0002d	74 20		 je	 SHORT $LN5@OnMenu_Set
  0002f	83 f8 0c	 cmp	 eax, 12			; 0000000cH
  00032	74 1b		 je	 SHORT $LN5@OnMenu_Set

; 86   : 	// 2014.09.24  : 0010862: [7111]    []  IBK    >>
; 87   : 	else if( nElementType == CToolEnumData::Balance_Basic )	// 

  00034	8b ce		 mov	 ecx, esi
  00036	83 f8 24	 cmp	 eax, 36			; 00000024H
  00039	75 0a		 jne	 SHORT $LN6@OnMenu_Set

; 88   : 		return BalanceBasicSetDialogLoad();

  0003b	e8 00 00 00 00	 call	 ?BalanceBasicSetDialogLoad@CCurrentElementSet@@AAE_NXZ ; CCurrentElementSet::BalanceBasicSetDialogLoad
  00040	5e		 pop	 esi

; 93   : }

  00041	5d		 pop	 ebp
  00042	c2 04 00	 ret	 4
$LN6@OnMenu_Set:

; 89   : 	// 2014.09.24  : 0010862: [7111]    []  IBK    <<
; 90   : 	else
; 91   : 	//>>
; 92   : 		return AnalysisToolDialogLoad();

  00045	e8 00 00 00 00	 call	 ?AnalysisToolDialogLoad@CCurrentElementSet@@AAE_NXZ ; CCurrentElementSet::AnalysisToolDialogLoad
  0004a	5e		 pop	 esi

; 93   : }

  0004b	5d		 pop	 ebp
  0004c	c2 04 00	 ret	 4
$LN5@OnMenu_Set:

; 84   : 			nElementType == CToolEnumData::Fibo_Time )			//  
; 85   : 		return FiboSetDialogLoad();

  0004f	8b ce		 mov	 ecx, esi
  00051	e8 00 00 00 00	 call	 ?FiboSetDialogLoad@CCurrentElementSet@@AAE_NXZ ; CCurrentElementSet::FiboSetDialogLoad
  00056	5e		 pop	 esi

; 93   : }

  00057	5d		 pop	 ebp
  00058	c2 04 00	 ret	 4
?OnMenu_Set@CCurrentElementSet@@AAE_N_N@Z ENDP		; CCurrentElementSet::OnMenu_Set
_TEXT	ENDS
; Function compile flags: /Ogtp
; File D:\git\src\IBK\IBK_DRFN\ProjSrc\SrcChartEx\ChartAddIn\ChartAnalysisToolAddIn\AnalysisTool\CurrentElementSet.cpp
; File C:\Program Files (x86)\Microsoft Visual Studio\2019\Community\VC\Tools\MSVC\14.29.30133\atlmfc\include\afxwin2.inl
; File D:\git\src\IBK\IBK_DRFN\ProjSrc\SrcChartEx\ChartAddIn\ChartAnalysisToolAddIn\AnalysisTool\CurrentElementSet.cpp
;	COMDAT ?OnMenu@CCurrentElementSet@@QAE_NW4ELEMENTMENU@CMenuType@@I@Z
_TEXT	SEGMENT
_menuType$ = 8						; size = 4
$T1 = 12						; size = 4
_wParam$ = 12						; size = 4
?OnMenu@CCurrentElementSet@@QAE_NW4ELEMENTMENU@CMenuType@@I@Z PROC ; CCurrentElementSet::OnMenu, COMDAT
; _this$ = ecx

; 58   : {

  00000	55		 push	 ebp
  00001	8b ec		 mov	 ebp, esp
  00003	56		 push	 esi
  00004	8b f1		 mov	 esi, ecx

; 59   : 	if(m_pElement == NULL)

  00006	8b 56 18	 mov	 edx, DWORD PTR [esi+24]
  00009	85 d2		 test	 edx, edx
  0000b	75 07		 jne	 SHORT $LN4@OnMenu
$LN33@OnMenu:

; 65   : 	default:	
; 66   : 		return OnMenu_Pen(menuType, wParam);
; 67   : 	};
; 68   : 
; 69   : 	return false;
; 70   : }

  0000d	32 c0		 xor	 al, al
  0000f	5e		 pop	 esi
  00010	5d		 pop	 ebp
  00011	c2 08 00	 ret	 8
$LN4@OnMenu:

; 60   : 		return false;
; 61   : 
; 62   : 	switch(menuType){

  00014	8b 4d 08	 mov	 ecx, DWORD PTR _menuType$[ebp]
  00017	8b c1		 mov	 eax, ecx
  00019	83 e8 01	 sub	 eax, 1
  0001c	74 7d		 je	 SHORT $LN5@OnMenu

; 97   : 	switch(menuType){

  0001e	83 e9 02	 sub	 ecx, 2
  00021	74 3e		 je	 SHORT $LN19@OnMenu
  00023	83 e9 01	 sub	 ecx, 1
  00026	74 1f		 je	 SHORT $LN20@OnMenu
  00028	83 e9 02	 sub	 ecx, 2
  0002b	75 e0		 jne	 SHORT $LN33@OnMenu

; 129  : 	m_pElement->GetCommonEnvironment().GetPen().SetStyle(eStyle);

  0002d	ff 75 0c	 push	 DWORD PTR _wParam$[ebp]
  00030	8b ca		 mov	 ecx, edx
  00032	e8 00 00 00 00	 call	 ?GetCommonEnvironment@CElement@@QAEAAVCElementCommonEnvironment@@XZ ; CElement::GetCommonEnvironment
  00037	8b c8		 mov	 ecx, eax
  00039	e8 00 00 00 00	 call	 ?GetPen@CElementCommonEnvironment@@QAEAAVCPenEnvironment@@XZ ; CElementCommonEnvironment::GetPen
  0003e	8b c8		 mov	 ecx, eax
  00040	e8 00 00 00 00	 call	 ?SetStyle@CPenEnvironment@@QAEXW4PenStyle@CToolEnumData@@@Z ; CPenEnvironment::SetStyle

; 106  : 		break;

  00045	eb 39		 jmp	 SHORT $LN17@OnMenu
$LN20@OnMenu:

; 124  : 	m_pElement->GetCommonEnvironment().GetPen().SetWidth(nWidth);

  00047	ff 75 0c	 push	 DWORD PTR _wParam$[ebp]
  0004a	8b ca		 mov	 ecx, edx
  0004c	e8 00 00 00 00	 call	 ?GetCommonEnvironment@CElement@@QAEAAVCElementCommonEnvironment@@XZ ; CElement::GetCommonEnvironment
  00051	8b c8		 mov	 ecx, eax
  00053	e8 00 00 00 00	 call	 ?GetPen@CElementCommonEnvironment@@QAEAAVCPenEnvironment@@XZ ; CElementCommonEnvironment::GetPen
  00058	8b c8		 mov	 ecx, eax
  0005a	e8 00 00 00 00	 call	 ?SetWidth@CPenEnvironment@@QAEXH@Z ; CPenEnvironment::SetWidth

; 103  : 		break;

  0005f	eb 1f		 jmp	 SHORT $LN17@OnMenu
$LN19@OnMenu:

; 98   : 	case CMenuType::MENU_COLOR:		// 
; 99   : 		OnMenu_Color((COLORREF) wParam);

  00061	8b 45 0c	 mov	 eax, DWORD PTR _wParam$[ebp]

; 119  : 	m_pElement->GetCommonEnvironment().GetPen().SetColor(color);

  00064	8b ca		 mov	 ecx, edx

; 99   : 		OnMenu_Color((COLORREF) wParam);

  00066	89 45 0c	 mov	 DWORD PTR $T1[ebp], eax

; 119  : 	m_pElement->GetCommonEnvironment().GetPen().SetColor(color);

  00069	8d 45 0c	 lea	 eax, DWORD PTR $T1[ebp]
  0006c	50		 push	 eax
  0006d	e8 00 00 00 00	 call	 ?GetCommonEnvironment@CElement@@QAEAAVCElementCommonEnvironment@@XZ ; CElement::GetCommonEnvironment
  00072	8b c8		 mov	 ecx, eax
  00074	e8 00 00 00 00	 call	 ?GetPen@CElementCommonEnvironment@@QAEAAVCPenEnvironment@@XZ ; CElementCommonEnvironment::GetPen
  00079	8b c8		 mov	 ecx, eax
  0007b	e8 00 00 00 00	 call	 ?SetColor@CPenEnvironment@@QAEXABK@Z ; CPenEnvironment::SetColor
$LN17@OnMenu:

; 111  : 	if(m_pParent != NULL)

  00080	8b 46 14	 mov	 eax, DWORD PTR [esi+20]
  00083	85 c0		 test	 eax, eax
  00085	74 0d		 je	 SHORT $LN23@OnMenu
; File C:\Program Files (x86)\Microsoft Visual Studio\2019\Community\VC\Tools\MSVC\14.29.30133\atlmfc\include\afxwin2.inl

; 114  : 	{ ASSERT(::IsWindow(m_hWnd)); ::InvalidateRect(m_hWnd, NULL, bErase); }

  00087	6a 01		 push	 1
  00089	6a 00		 push	 0
  0008b	ff 70 20	 push	 DWORD PTR [eax+32]
  0008e	ff 15 00 00 00
	00		 call	 DWORD PTR __imp__InvalidateRect@12
$LN23@OnMenu:
; File D:\git\src\IBK\IBK_DRFN\ProjSrc\SrcChartEx\ChartAddIn\ChartAnalysisToolAddIn\AnalysisTool\CurrentElementSet.cpp

; 114  : 	return true;

  00094	b0 01		 mov	 al, 1
  00096	5e		 pop	 esi

; 65   : 	default:	
; 66   : 		return OnMenu_Pen(menuType, wParam);
; 67   : 	};
; 68   : 
; 69   : 	return false;
; 70   : }

  00097	5d		 pop	 ebp
  00098	c2 08 00	 ret	 8
$LN5@OnMenu:

; 63   : 	case CMenuType::MENU_SET:	//  Dlg
; 64   : 		return OnMenu_Set( wParam ? true : false);

  0009b	83 7d 0c 00	 cmp	 DWORD PTR _wParam$[ebp], 0

; 75   : 	if(!bIsAction)

  0009f	0f 84 68 ff ff
	ff		 je	 $LN33@OnMenu

; 76   : 		return false;
; 77   : 
; 78   : 	// 2008.08.20   <<
; 79   : 	CToolEnumData::ElementType nElementType = m_pElement->GetElementType();

  000a5	8b 02		 mov	 eax, DWORD PTR [edx]
  000a7	8b ca		 mov	 ecx, edx
  000a9	ff 50 04	 call	 DWORD PTR [eax+4]

; 80   : 	if( nElementType == CToolEnumData::Fibo_Semicircle ||	//  
; 81   : 			nElementType == CToolEnumData::Fibo_Circle ||		//  
; 82   : 			nElementType == CToolEnumData::Fibo_Fan_Line ||		//  
; 83   : 			nElementType == CToolEnumData::Fibo_Retrace ||		//  ()

  000ac	83 f8 08	 cmp	 eax, 8
  000af	74 2f		 je	 SHORT $LN12@OnMenu
  000b1	83 f8 09	 cmp	 eax, 9
  000b4	74 2a		 je	 SHORT $LN12@OnMenu
  000b6	83 f8 0a	 cmp	 eax, 10			; 0000000aH
  000b9	74 25		 je	 SHORT $LN12@OnMenu
  000bb	83 f8 0b	 cmp	 eax, 11			; 0000000bH
  000be	74 20		 je	 SHORT $LN12@OnMenu
  000c0	83 f8 0c	 cmp	 eax, 12			; 0000000cH
  000c3	74 1b		 je	 SHORT $LN12@OnMenu

; 86   : 	// 2014.09.24  : 0010862: [7111]    []  IBK    >>
; 87   : 	else if( nElementType == CToolEnumData::Balance_Basic )	// 

  000c5	8b ce		 mov	 ecx, esi
  000c7	83 f8 24	 cmp	 eax, 36			; 00000024H
  000ca	75 0a		 jne	 SHORT $LN13@OnMenu

; 88   : 		return BalanceBasicSetDialogLoad();

  000cc	e8 00 00 00 00	 call	 ?BalanceBasicSetDialogLoad@CCurrentElementSet@@AAE_NXZ ; CCurrentElementSet::BalanceBasicSetDialogLoad
  000d1	5e		 pop	 esi

; 65   : 	default:	
; 66   : 		return OnMenu_Pen(menuType, wParam);
; 67   : 	};
; 68   : 
; 69   : 	return false;
; 70   : }

  000d2	5d		 pop	 ebp
  000d3	c2 08 00	 ret	 8
$LN13@OnMenu:

; 92   : 		return AnalysisToolDialogLoad();

  000d6	e8 00 00 00 00	 call	 ?AnalysisToolDialogLoad@CCurrentElementSet@@AAE_NXZ ; CCurrentElementSet::AnalysisToolDialogLoad
  000db	5e		 pop	 esi

; 65   : 	default:	
; 66   : 		return OnMenu_Pen(menuType, wParam);
; 67   : 	};
; 68   : 
; 69   : 	return false;
; 70   : }

  000dc	5d		 pop	 ebp
  000dd	c2 08 00	 ret	 8
$LN12@OnMenu:

; 85   : 		return FiboSetDialogLoad();

  000e0	8b ce		 mov	 ecx, esi
  000e2	e8 00 00 00 00	 call	 ?FiboSetDialogLoad@CCurrentElementSet@@AAE_NXZ ; CCurrentElementSet::FiboSetDialogLoad
  000e7	5e		 pop	 esi

; 65   : 	default:	
; 66   : 		return OnMenu_Pen(menuType, wParam);
; 67   : 	};
; 68   : 
; 69   : 	return false;
; 70   : }

  000e8	5d		 pop	 ebp
  000e9	c2 08 00	 ret	 8
?OnMenu@CCurrentElementSet@@QAE_NW4ELEMENTMENU@CMenuType@@I@Z ENDP ; CCurrentElementSet::OnMenu
_TEXT	ENDS
; Function compile flags: /Ogtp
; File D:\git\src\IBK\IBK_DRFN\ProjSrc\SrcChartEx\ChartAddIn\ChartAnalysisToolAddIn\AnalysisTool\CurrentElementSet.cpp
; File D:\git\src\IBK\IBK_DRFN\ProjSrc\SrcChartEx\ChartAddIn\ChartAnalysisToolAddIn\Include_Chart\BlockBaseData.h
; File D:\git\src\IBK\IBK_DRFN\ProjSrc\SrcChartEx\ChartAddIn\ChartAnalysisToolAddIn\AnalysisTool\CurrentElementSet.cpp
; File C:\Program Files (x86)\Microsoft Visual Studio\2019\Community\VC\Tools\MSVC\14.29.30133\atlmfc\include\afxwin2.inl
; File D:\git\src\IBK\IBK_DRFN\ProjSrc\SrcChartEx\ChartAddIn\ChartAnalysisToolAddIn\AnalysisTool\CurrentElementSet.cpp
; File D:\git\src\IBK\IBK_DRFN\ProjSrc\SrcChartEx\ChartAddIn\ChartAnalysisToolAddIn\Include_Chart\BlockBaseData.h
; File D:\git\src\IBK\IBK_DRFN\ProjSrc\SrcChartEx\ChartAddIn\ChartAnalysisToolAddIn\AnalysisTool\CurrentElementSet.cpp
;	COMDAT ??0CCurrentElementSet@@QAE@PAUIChartOCX133101@@ABVCBlockIndex@@ABV?$CStringT@DV?$StrTraitMFC_DLL@DV?$ChTraitsCRT@D@ATL@@@@@ATL@@2ABW4HORZSCALEDRAWERTYPE@CScaleBaseData@@PAVCWnd@@PAVCElement@@J@Z
_TEXT	SEGMENT
_this$ = -16						; size = 4
__$EHRec$ = -12						; size = 12
_p_pIChartOCX$ = 8					; size = 4
_blockIndex$ = 12					; size = 4
_strFormatX$ = 16					; size = 4
_strUserPath$ = 20					; size = 4
_nDataPeriod$ = 24					; size = 4
_pParent$ = 28						; size = 4
_pElement$ = 32						; size = 4
_pInterface$ = 36					; size = 4
??0CCurrentElementSet@@QAE@PAUIChartOCX133101@@ABVCBlockIndex@@ABV?$CStringT@DV?$StrTraitMFC_DLL@DV?$ChTraitsCRT@D@ATL@@@@@ATL@@2ABW4HORZSCALEDRAWERTYPE@CScaleBaseData@@PAVCWnd@@PAVCElement@@J@Z PROC ; CCurrentElementSet::CCurrentElementSet, COMDAT
; _this$ = ecx

; 42   : {

  00000	55		 push	 ebp
  00001	8b ec		 mov	 ebp, esp
  00003	6a ff		 push	 -1
  00005	68 00 00 00 00	 push	 __ehhandler$??0CCurrentElementSet@@QAE@PAUIChartOCX133101@@ABVCBlockIndex@@ABV?$CStringT@DV?$StrTraitMFC_DLL@DV?$ChTraitsCRT@D@ATL@@@@@ATL@@2ABW4HORZSCALEDRAWERTYPE@CScaleBaseData@@PAVCWnd@@PAVCElement@@J@Z
  0000a	64 a1 00 00 00
	00		 mov	 eax, DWORD PTR fs:0
  00010	50		 push	 eax
  00011	51		 push	 ecx
  00012	56		 push	 esi
  00013	57		 push	 edi
  00014	a1 00 00 00 00	 mov	 eax, DWORD PTR ___security_cookie
  00019	33 c5		 xor	 eax, ebp
  0001b	50		 push	 eax
  0001c	8d 45 f4	 lea	 eax, DWORD PTR __$EHRec$[ebp]
  0001f	64 a3 00 00 00
	00		 mov	 DWORD PTR fs:0, eax
  00025	8b f1		 mov	 esi, ecx
  00027	89 75 f0	 mov	 DWORD PTR _this$[ebp], esi
  0002a	8d 4e 0c	 lea	 ecx, DWORD PTR [esi+12]
; File D:\git\src\IBK\IBK_DRFN\ProjSrc\SrcChartEx\ChartAddIn\ChartAnalysisToolAddIn\Include_Chart\BlockBaseData.h

; 19   : 	CBlockIndex() { m_nRow = m_nColumn = -1; };

  0002d	c7 46 08 ff ff
	ff ff		 mov	 DWORD PTR [esi+8], -1
  00034	c7 46 04 ff ff
	ff ff		 mov	 DWORD PTR [esi+4], -1
; File D:\git\src\IBK\IBK_DRFN\ProjSrc\SrcChartEx\ChartAddIn\ChartAnalysisToolAddIn\AnalysisTool\CurrentElementSet.cpp

; 42   : {

  0003b	ff 15 00 00 00
	00		 call	 DWORD PTR __imp_??0?$CStringT@DV?$StrTraitMFC_DLL@DV?$ChTraitsCRT@D@ATL@@@@@ATL@@QAE@XZ

; 37   : 	m_strUserPath(strUserPath),

  00041	ff 75 14	 push	 DWORD PTR _strUserPath$[ebp]
  00044	8d 4e 10	 lea	 ecx, DWORD PTR [esi+16]
  00047	c7 45 fc 00 00
	00 00		 mov	 DWORD PTR __$EHRec$[ebp+8], 0
  0004e	ff 15 00 00 00
	00		 call	 DWORD PTR __imp_??0?$CStringT@DV?$StrTraitMFC_DLL@DV?$ChTraitsCRT@D@ATL@@@@@ATL@@QAE@ABV01@@Z

; 39   : 	m_pParent(pParent),
; 40   : 	m_pElement(pElement),

  00054	8b 45 20	 mov	 eax, DWORD PTR _pElement$[ebp]
  00057	8b 4d 1c	 mov	 ecx, DWORD PTR _pParent$[ebp]
  0005a	89 46 18	 mov	 DWORD PTR [esi+24], eax

; 41   : 	m_pInterface(pInterface)

  0005d	8b 45 24	 mov	 eax, DWORD PTR _pInterface$[ebp]
  00060	89 46 1c	 mov	 DWORD PTR [esi+28], eax

; 38   : 	m_nDataPeriod(nDataPeriod),

  00063	8b 45 18	 mov	 eax, DWORD PTR _nDataPeriod$[ebp]
  00066	89 4e 14	 mov	 DWORD PTR [esi+20], ecx
  00069	c6 45 fc 01	 mov	 BYTE PTR __$EHRec$[ebp+8], 1
  0006d	8b 00		 mov	 eax, DWORD PTR [eax]
  0006f	89 46 20	 mov	 DWORD PTR [esi+32], eax

; 43   : 	m_hOcxWnd = ( pParent ? pParent->GetSafeHwnd() : NULL);

  00072	85 c9		 test	 ecx, ecx
  00074	74 05		 je	 SHORT $LN4@CCurrentEl
; File C:\Program Files (x86)\Microsoft Visual Studio\2019\Community\VC\Tools\MSVC\14.29.30133\atlmfc\include\afxwin2.inl

; 25   : 	{ return this == NULL ? NULL : m_hWnd; }

  00076	8b 41 20	 mov	 eax, DWORD PTR [ecx+32]
; File D:\git\src\IBK\IBK_DRFN\ProjSrc\SrcChartEx\ChartAddIn\ChartAnalysisToolAddIn\AnalysisTool\CurrentElementSet.cpp

; 43   : 	m_hOcxWnd = ( pParent ? pParent->GetSafeHwnd() : NULL);

  00079	eb 02		 jmp	 SHORT $LN5@CCurrentEl
$LN4@CCurrentEl:
  0007b	33 c0		 xor	 eax, eax
$LN5@CCurrentEl:
  0007d	89 46 24	 mov	 DWORD PTR [esi+36], eax

; 44   : 
; 45   : 	// 2011.02.08 by SYS >>  YYYY()  : / 14Byte  (YYYYMMDDhhmmss)
; 46   : 	m_pIChartOCX	= p_pIChartOCX;

  00080	8b 45 08	 mov	 eax, DWORD PTR _p_pIChartOCX$[ebp]
  00083	89 06		 mov	 DWORD PTR [esi], eax
; File D:\git\src\IBK\IBK_DRFN\ProjSrc\SrcChartEx\ChartAddIn\ChartAnalysisToolAddIn\Include_Chart\BlockBaseData.h

; 32   : 	bool IsAllValueBiggerThanZero() const { return (m_nRow >= 0 && m_nColumn >= 0); };

  00085	8b 45 0c	 mov	 eax, DWORD PTR _blockIndex$[ebp]
  00088	8b 10		 mov	 edx, DWORD PTR [eax]
  0008a	85 d2		 test	 edx, edx
  0008c	78 0f		 js	 SHORT $LN2@CCurrentEl
  0008e	83 78 04 00	 cmp	 DWORD PTR [eax+4], 0
  00092	7c 09		 jl	 SHORT $LN2@CCurrentEl
; File D:\git\src\IBK\IBK_DRFN\ProjSrc\SrcChartEx\ChartAddIn\ChartAnalysisToolAddIn\AnalysisTool\CurrentElementSet.cpp

; 50   : 		m_blockIndex.SetColumn(blockIndex.GetColumn());

  00094	89 56 04	 mov	 DWORD PTR [esi+4], edx
  00097	8b 40 04	 mov	 eax, DWORD PTR [eax+4]
  0009a	89 46 08	 mov	 DWORD PTR [esi+8], eax
$LN2@CCurrentEl:

; 51   : 	}
; 52   : 	m_strFormatX	= strFormatX;

  0009d	ff 75 10	 push	 DWORD PTR _strFormatX$[ebp]
  000a0	8d 4e 0c	 lea	 ecx, DWORD PTR [esi+12]
  000a3	ff 15 00 00 00
	00		 call	 DWORD PTR __imp_??4?$CStringT@DV?$StrTraitMFC_DLL@DV?$ChTraitsCRT@D@ATL@@@@@ATL@@QAEAAV01@ABV01@@Z

; 53   : 	// 2011.02.08 by SYS <<
; 54   : }

  000a9	8b c6		 mov	 eax, esi
  000ab	8b 4d f4	 mov	 ecx, DWORD PTR __$EHRec$[ebp]
  000ae	64 89 0d 00 00
	00 00		 mov	 DWORD PTR fs:0, ecx
  000b5	59		 pop	 ecx
  000b6	5f		 pop	 edi
  000b7	5e		 pop	 esi
  000b8	8b e5		 mov	 esp, ebp
  000ba	5d		 pop	 ebp
  000bb	c2 20 00	 ret	 32			; 00000020H
_TEXT	ENDS
;	COMDAT text$x
text$x	SEGMENT
__unwindfunclet$??0CCurrentElementSet@@QAE@PAUIChartOCX133101@@ABVCBlockIndex@@ABV?$CStringT@DV?$StrTraitMFC_DLL@DV?$ChTraitsCRT@D@ATL@@@@@ATL@@2ABW4HORZSCALEDRAWERTYPE@CScaleBaseData@@PAVCWnd@@PAVCElement@@J@Z$0:
  00000	8b 4d f0	 mov	 ecx, DWORD PTR _this$[ebp]
  00003	83 c1 0c	 add	 ecx, 12			; 0000000cH
  00006	ff 25 00 00 00
	00		 jmp	 DWORD PTR __imp_??1?$CStringT@DV?$StrTraitMFC_DLL@DV?$ChTraitsCRT@D@ATL@@@@@ATL@@QAE@XZ
__unwindfunclet$??0CCurrentElementSet@@QAE@PAUIChartOCX133101@@ABVCBlockIndex@@ABV?$CStringT@DV?$StrTraitMFC_DLL@DV?$ChTraitsCRT@D@ATL@@@@@ATL@@2ABW4HORZSCALEDRAWERTYPE@CScaleBaseData@@PAVCWnd@@PAVCElement@@J@Z$1:
  0000c	8b 4d f0	 mov	 ecx, DWORD PTR _this$[ebp]
  0000f	83 c1 10	 add	 ecx, 16			; 00000010H
  00012	ff 25 00 00 00
	00		 jmp	 DWORD PTR __imp_??1?$CStringT@DV?$StrTraitMFC_DLL@DV?$ChTraitsCRT@D@ATL@@@@@ATL@@QAE@XZ
  00018	cc		 int	 3
  00019	cc		 int	 3
  0001a	cc		 int	 3
  0001b	cc		 int	 3
  0001c	cc		 int	 3
__ehhandler$??0CCurrentElementSet@@QAE@PAUIChartOCX133101@@ABVCBlockIndex@@ABV?$CStringT@DV?$StrTraitMFC_DLL@DV?$ChTraitsCRT@D@ATL@@@@@ATL@@2ABW4HORZSCALEDRAWERTYPE@CScaleBaseData@@PAVCWnd@@PAVCElement@@J@Z:
  0001d	90		 npad	 1
  0001e	90		 npad	 1
  0001f	8b 54 24 08	 mov	 edx, DWORD PTR [esp+8]
  00023	8d 42 0c	 lea	 eax, DWORD PTR [edx+12]
  00026	8b 4a f0	 mov	 ecx, DWORD PTR [edx-16]
  00029	33 c8		 xor	 ecx, eax
  0002b	e8 00 00 00 00	 call	 @__security_check_cookie@4
  00030	b8 00 00 00 00	 mov	 eax, OFFSET __ehfuncinfo$??0CCurrentElementSet@@QAE@PAUIChartOCX133101@@ABVCBlockIndex@@ABV?$CStringT@DV?$StrTraitMFC_DLL@DV?$ChTraitsCRT@D@ATL@@@@@ATL@@2ABW4HORZSCALEDRAWERTYPE@CScaleBaseData@@PAVCWnd@@PAVCElement@@J@Z
  00035	e9 00 00 00 00	 jmp	 ___CxxFrameHandler3
text$x	ENDS
??0CCurrentElementSet@@QAE@PAUIChartOCX133101@@ABVCBlockIndex@@ABV?$CStringT@DV?$StrTraitMFC_DLL@DV?$ChTraitsCRT@D@ATL@@@@@ATL@@2ABW4HORZSCALEDRAWERTYPE@CScaleBaseData@@PAVCWnd@@PAVCElement@@J@Z ENDP ; CCurrentElementSet::CCurrentElementSet
; Function compile flags: /Ogtp
; File C:\Program Files (x86)\Microsoft Visual Studio\2019\Community\VC\Tools\MSVC\14.29.30133\include\deque
; File C:\Program Files (x86)\Microsoft Visual Studio\2019\Community\VC\Tools\MSVC\14.29.30133\include\utility
; File C:\Program Files (x86)\Microsoft Visual Studio\2019\Community\VC\Tools\MSVC\14.29.30133\include\xmemory
; File C:\Program Files (x86)\Microsoft Visual Studio\2019\Community\VC\Tools\MSVC\14.29.30133\include\utility
; File C:\Program Files (x86)\Microsoft Visual Studio\2019\Community\VC\Tools\MSVC\14.29.30133\include\xmemory
;	COMDAT ??1CElementPointList@@QAE@XZ
_TEXT	SEGMENT
??1CElementPointList@@QAE@XZ PROC			; CElementPointList::~CElementPointList, COMDAT
; _this$ = ecx
; File C:\Program Files (x86)\Microsoft Visual Studio\2019\Community\VC\Tools\MSVC\14.29.30133\include\deque

; 1332 :         _Tidy();

  00000	56		 push	 esi
  00001	8d 71 08	 lea	 esi, DWORD PTR [ecx+8]
  00004	8b ce		 mov	 ecx, esi
  00006	e8 00 00 00 00	 call	 ?_Tidy@?$deque@PAVCCoordinate@@V?$allocator@PAVCCoordinate@@@std@@@std@@AAEXXZ ; std::deque<CCoordinate *,std::allocator<CCoordinate *> >::_Tidy

; 861  :         _Tidy();

  0000b	8b ce		 mov	 ecx, esi
  0000d	e8 00 00 00 00	 call	 ?_Tidy@?$deque@PAVCCoordinate@@V?$allocator@PAVCCoordinate@@@std@@@std@@AAEXXZ ; std::deque<CCoordinate *,std::allocator<CCoordinate *> >::_Tidy
; File C:\Program Files (x86)\Microsoft Visual Studio\2019\Community\VC\Tools\MSVC\14.29.30133\include\utility

; 602  :     _Ty _Old_val = static_cast<_Ty&&>(_Val);

  00012	8b 06		 mov	 eax, DWORD PTR [esi]
; File C:\Program Files (x86)\Microsoft Visual Studio\2019\Community\VC\Tools\MSVC\14.29.30133\include\xmemory

; 255  :         ::operator delete(_Ptr, _Bytes);

  00014	6a 08		 push	 8
  00016	50		 push	 eax
; File C:\Program Files (x86)\Microsoft Visual Studio\2019\Community\VC\Tools\MSVC\14.29.30133\include\utility

; 603  :     _Val         = static_cast<_Other&&>(_New_val);

  00017	c7 06 00 00 00
	00		 mov	 DWORD PTR [esi], 0
; File C:\Program Files (x86)\Microsoft Visual Studio\2019\Community\VC\Tools\MSVC\14.29.30133\include\xmemory

; 255  :         ::operator delete(_Ptr, _Bytes);

  0001d	e8 00 00 00 00	 call	 ??3@YAXPAXI@Z		; operator delete
  00022	83 c4 08	 add	 esp, 8
  00025	5e		 pop	 esi
  00026	c3		 ret	 0
??1CElementPointList@@QAE@XZ ENDP			; CElementPointList::~CElementPointList
_TEXT	ENDS
; Function compile flags: /Ogtp
; File C:\Program Files (x86)\Microsoft Visual Studio\2019\Community\VC\Tools\MSVC\14.29.30133\include\deque
; File C:\Program Files (x86)\Microsoft Visual Studio\2019\Community\VC\Tools\MSVC\14.29.30133\include\xmemory
; File C:\Program Files (x86)\Microsoft Visual Studio\2019\Community\VC\Tools\MSVC\14.29.30133\include\deque
; File C:\Program Files (x86)\Microsoft Visual Studio\2019\Community\VC\Tools\MSVC\14.29.30133\include\xmemory
; File C:\Program Files (x86)\Microsoft Visual Studio\2019\Community\VC\Tools\MSVC\14.29.30133\include\deque
; File C:\Program Files (x86)\Microsoft Visual Studio\2019\Community\VC\Tools\MSVC\14.29.30133\include\xmemory
; File C:\Program Files (x86)\Microsoft Visual Studio\2019\Community\VC\Tools\MSVC\14.29.30133\include\deque
;	COMDAT ?_Tidy@?$deque@PAVCCoordinate@@V?$allocator@PAVCCoordinate@@@std@@@std@@AAEXXZ
_TEXT	SEGMENT
?_Tidy@?$deque@PAVCCoordinate@@V?$allocator@PAVCCoordinate@@@std@@@std@@AAEXXZ PROC ; std::deque<CCoordinate *,std::allocator<CCoordinate *> >::_Tidy, COMDAT
; _this$ = ecx

; 1471 :     void _Tidy() noexcept { // free all storage

  00000	57		 push	 edi
  00001	8b f9		 mov	 edi, ecx

; 1002 :         return _Mysize() == 0;

  00003	8b 4f 10	 mov	 ecx, DWORD PTR [edi+16]
  00006	85 c9		 test	 ecx, ecx

; 1472 :         _Orphan_all();
; 1473 : 
; 1474 :         _Alpty _Almap(_Getal());
; 1475 :         while (!empty()) {

  00008	74 15		 je	 SHORT $LN60@Tidy
  0000a	66 0f 1f 44 00
	00		 npad	 6
$LL2@Tidy:

; 1146 :         if (--_Mysize() == 0) {

  00010	8d 41 ff	 lea	 eax, DWORD PTR [ecx-1]
  00013	89 47 10	 mov	 DWORD PTR [edi+16], eax
  00016	8b c8		 mov	 ecx, eax
  00018	85 c0		 test	 eax, eax
  0001a	75 f4		 jne	 SHORT $LL2@Tidy

; 1147 :             _Myoff() = 0;

  0001c	89 47 0c	 mov	 DWORD PTR [edi+12], eax
$LN60@Tidy:
  0001f	56		 push	 esi

; 1479 :         for (size_type _Block = _Mapsize(); 0 < _Block;) { // free storage for a block and destroy pointer

  00020	8b 77 08	 mov	 esi, DWORD PTR [edi+8]
  00023	85 f6		 test	 esi, esi
  00025	74 1a		 je	 SHORT $LN5@Tidy
$LL4@Tidy:

; 1480 :             if (_Map()[--_Block]) { // free block and destroy its pointer

  00027	8b 47 04	 mov	 eax, DWORD PTR [edi+4]
  0002a	4e		 dec	 esi
  0002b	8b 04 b0	 mov	 eax, DWORD PTR [eax+esi*4]
  0002e	85 c0		 test	 eax, eax
  00030	74 0b		 je	 SHORT $LN23@Tidy
; File C:\Program Files (x86)\Microsoft Visual Studio\2019\Community\VC\Tools\MSVC\14.29.30133\include\xmemory

; 255  :         ::operator delete(_Ptr, _Bytes);

  00032	6a 10		 push	 16			; 00000010H
  00034	50		 push	 eax
  00035	e8 00 00 00 00	 call	 ??3@YAXPAXI@Z		; operator delete
  0003a	83 c4 08	 add	 esp, 8
$LN23@Tidy:
; File C:\Program Files (x86)\Microsoft Visual Studio\2019\Community\VC\Tools\MSVC\14.29.30133\include\deque

; 1479 :         for (size_type _Block = _Mapsize(); 0 < _Block;) { // free storage for a block and destroy pointer

  0003d	85 f6		 test	 esi, esi
  0003f	75 e6		 jne	 SHORT $LL4@Tidy
$LN5@Tidy:

; 1481 :                 _Getal().deallocate(_Map()[_Block], _Block_size);
; 1482 :                 _Destroy_in_place(_Map()[_Block]);
; 1483 :             }
; 1484 :         }
; 1485 : 
; 1486 :         if (_Map() != _Mapptr()) {

  00041	8b 47 04	 mov	 eax, DWORD PTR [edi+4]
  00044	5e		 pop	 esi
  00045	85 c0		 test	 eax, eax
  00047	74 2a		 je	 SHORT $LN41@Tidy
; File C:\Program Files (x86)\Microsoft Visual Studio\2019\Community\VC\Tools\MSVC\14.29.30133\include\xmemory

; 797  :         _Deallocate<_New_alignof<_Ty>>(_Ptr, sizeof(_Ty) * _Count);

  00049	8b 4f 08	 mov	 ecx, DWORD PTR [edi+8]
  0004c	c1 e1 02	 shl	 ecx, 2

; 251  :         if (_Bytes >= _Big_allocation_threshold) { // boost the alignment of big allocations to help autovectorization

  0004f	81 f9 00 10 00
	00		 cmp	 ecx, 4096		; 00001000H
  00055	72 12		 jb	 SHORT $LN51@Tidy

; 150  :     const uintptr_t _Ptr_container   = _Ptr_user[-1];

  00057	8b 50 fc	 mov	 edx, DWORD PTR [eax-4]
  0005a	83 c1 23	 add	 ecx, 35			; 00000023H

; 151  : 
; 152  :     // If the following asserts, it likely means that we are performing
; 153  :     // an aligned delete on memory coming from an unaligned allocation.
; 154  :     _STL_ASSERT(_Ptr_user[-2] == _Big_allocation_sentinel, "invalid argument");
; 155  : 
; 156  :     // Extra paranoia on aligned allocation/deallocation; ensure _Ptr_container is
; 157  :     // in range [_Min_back_shift, _Non_user_size]
; 158  : #ifdef _DEBUG
; 159  :     constexpr uintptr_t _Min_back_shift = 2 * sizeof(void*);
; 160  : #else // ^^^ _DEBUG ^^^ // vvv !_DEBUG vvv
; 161  :     constexpr uintptr_t _Min_back_shift = sizeof(void*);
; 162  : #endif // _DEBUG
; 163  :     const uintptr_t _Back_shift = reinterpret_cast<uintptr_t>(_Ptr) - _Ptr_container;

  0005d	2b c2		 sub	 eax, edx

; 164  :     _STL_VERIFY(_Back_shift >= _Min_back_shift && _Back_shift <= _Non_user_size, "invalid argument");

  0005f	83 c0 fc	 add	 eax, -4			; fffffffcH
  00062	83 f8 1f	 cmp	 eax, 31			; 0000001fH
  00065	77 1c		 ja	 SHORT $LN48@Tidy

; 165  :     _Ptr = reinterpret_cast<void*>(_Ptr_container);

  00067	8b c2		 mov	 eax, edx
$LN51@Tidy:

; 255  :         ::operator delete(_Ptr, _Bytes);

  00069	51		 push	 ecx
  0006a	50		 push	 eax
  0006b	e8 00 00 00 00	 call	 ??3@YAXPAXI@Z		; operator delete
  00070	83 c4 08	 add	 esp, 8
$LN41@Tidy:
; File C:\Program Files (x86)\Microsoft Visual Studio\2019\Community\VC\Tools\MSVC\14.29.30133\include\deque

; 1490 :         _Mapsize() = 0;

  00073	c7 47 08 00 00
	00 00		 mov	 DWORD PTR [edi+8], 0

; 1491 :         _Map()     = _Mapptr();

  0007a	c7 47 04 00 00
	00 00		 mov	 DWORD PTR [edi+4], 0
  00081	5f		 pop	 edi

; 1492 :     }

  00082	c3		 ret	 0
$LN48@Tidy:
; File C:\Program Files (x86)\Microsoft Visual Studio\2019\Community\VC\Tools\MSVC\14.29.30133\include\xmemory

; 164  :     _STL_VERIFY(_Back_shift >= _Min_back_shift && _Back_shift <= _Non_user_size, "invalid argument");

  00083	ff 15 00 00 00
	00		 call	 DWORD PTR __imp___invalid_parameter_noinfo_noreturn
$LN62@Tidy:
  00089	cc		 int	 3
?_Tidy@?$deque@PAVCCoordinate@@V?$allocator@PAVCCoordinate@@@std@@@std@@AAEXXZ ENDP ; std::deque<CCoordinate *,std::allocator<CCoordinate *> >::_Tidy
_TEXT	ENDS
; Function compile flags: /Ogtp
; File C:\Program Files (x86)\Microsoft Visual Studio\2019\Community\VC\Tools\MSVC\14.29.30133\atlmfc\include\afxwin1.inl
; File C:\Program Files (x86)\Microsoft Visual Studio\2019\Community\VC\Tools\MSVC\14.29.30133\atlmfc\include\afx.inl
;	COMDAT ??_GCBitmap@@UAEPAXI@Z
_TEXT	SEGMENT
___flags$ = 8						; size = 4
??_GCBitmap@@UAEPAXI@Z PROC				; CBitmap::`scalar deleting destructor', COMDAT
; _this$ = ecx
  00000	55		 push	 ebp
  00001	8b ec		 mov	 ebp, esp
; File C:\Program Files (x86)\Microsoft Visual Studio\2019\Community\VC\Tools\MSVC\14.29.30133\atlmfc\include\afxwin1.inl

; 179  : 	{ }

  00003	56		 push	 esi
  00004	8b f1		 mov	 esi, ecx
  00006	c7 06 00 00 00
	00		 mov	 DWORD PTR [esi], OFFSET ??_7CBitmap@@6B@
  0000c	e8 00 00 00 00	 call	 ??1CGdiObject@@UAE@XZ	; CGdiObject::~CGdiObject
  00011	8b 45 08	 mov	 eax, DWORD PTR ___flags$[ebp]
  00014	a8 01		 test	 al, 1
  00016	74 1f		 je	 SHORT $LN12@scalar
  00018	a8 04		 test	 al, 4
  0001a	75 10		 jne	 SHORT $LN3@scalar
; File C:\Program Files (x86)\Microsoft Visual Studio\2019\Community\VC\Tools\MSVC\14.29.30133\atlmfc\include\afx.inl

; 112  : 	{ ::operator delete(p); }

  0001c	56		 push	 esi
  0001d	e8 00 00 00 00	 call	 ??3@YAXPAX@Z		; operator delete
  00022	83 c4 04	 add	 esp, 4
  00025	8b c6		 mov	 eax, esi
  00027	5e		 pop	 esi
  00028	5d		 pop	 ebp
  00029	c2 04 00	 ret	 4
$LN3@scalar:
  0002c	6a 08		 push	 8
  0002e	56		 push	 esi
  0002f	e8 00 00 00 00	 call	 ?__global_delete@@YAXPAXI@Z ; __global_delete
  00034	83 c4 08	 add	 esp, 8
$LN12@scalar:
  00037	8b c6		 mov	 eax, esi
  00039	5e		 pop	 esi
  0003a	5d		 pop	 ebp
  0003b	c2 04 00	 ret	 4
??_GCBitmap@@UAEPAXI@Z ENDP				; CBitmap::`scalar deleting destructor'
_TEXT	ENDS
; Function compile flags: /Ogtp
; File C:\Program Files (x86)\Microsoft Visual Studio\2019\Community\VC\Tools\MSVC\14.29.30133\atlmfc\include\afxwin1.inl
;	COMDAT ??1CBitmap@@UAE@XZ
_TEXT	SEGMENT
??1CBitmap@@UAE@XZ PROC					; CBitmap::~CBitmap, COMDAT
; _this$ = ecx

; 179  : 	{ }

  00000	c7 01 00 00 00
	00		 mov	 DWORD PTR [ecx], OFFSET ??_7CBitmap@@6B@
  00006	e9 00 00 00 00	 jmp	 ??1CGdiObject@@UAE@XZ	; CGdiObject::~CGdiObject
??1CBitmap@@UAE@XZ ENDP					; CBitmap::~CBitmap
_TEXT	ENDS
; Function compile flags: /Ogtp
; File C:\Program Files (x86)\Microsoft Visual Studio\2019\Community\VC\Tools\MSVC\14.29.30133\atlmfc\include\afx.inl
;	COMDAT ??_GCGdiObject@@UAEPAXI@Z
_TEXT	SEGMENT
___flags$ = 8						; size = 4
??_GCGdiObject@@UAEPAXI@Z PROC				; CGdiObject::`scalar deleting destructor', COMDAT
; _this$ = ecx
  00000	55		 push	 ebp
  00001	8b ec		 mov	 ebp, esp
  00003	56		 push	 esi
  00004	8b f1		 mov	 esi, ecx
  00006	e8 00 00 00 00	 call	 ??1CGdiObject@@UAE@XZ	; CGdiObject::~CGdiObject
  0000b	8b 45 08	 mov	 eax, DWORD PTR ___flags$[ebp]
  0000e	a8 01		 test	 al, 1
  00010	74 1f		 je	 SHORT $LN9@scalar
  00012	a8 04		 test	 al, 4
  00014	75 10		 jne	 SHORT $LN3@scalar

; 112  : 	{ ::operator delete(p); }

  00016	56		 push	 esi
  00017	e8 00 00 00 00	 call	 ??3@YAXPAX@Z		; operator delete
  0001c	83 c4 04	 add	 esp, 4
  0001f	8b c6		 mov	 eax, esi
  00021	5e		 pop	 esi
  00022	5d		 pop	 ebp
  00023	c2 04 00	 ret	 4
$LN3@scalar:
  00026	6a 08		 push	 8
  00028	56		 push	 esi
  00029	e8 00 00 00 00	 call	 ?__global_delete@@YAXPAXI@Z ; __global_delete
  0002e	83 c4 08	 add	 esp, 8
$LN9@scalar:
  00031	8b c6		 mov	 eax, esi
  00033	5e		 pop	 esi
  00034	5d		 pop	 ebp
  00035	c2 04 00	 ret	 4
??_GCGdiObject@@UAEPAXI@Z ENDP				; CGdiObject::`scalar deleting destructor'
_TEXT	ENDS
; Function compile flags: /Ogtp
; File C:\Program Files (x86)\Microsoft Visual Studio\2019\Community\VC\Tools\MSVC\14.29.30133\atlmfc\include\afxwin1.inl
;	COMDAT ??1CGdiObject@@UAE@XZ
_TEXT	SEGMENT
_pException$2 = -540					; size = 4
_strMsg$3 = -536					; size = 4
_szErrorMessage$4 = -532				; size = 512
__$ArrayPad$ = -20					; size = 4
__$EHRec$ = -16						; size = 16
??1CGdiObject@@UAE@XZ PROC				; CGdiObject::~CGdiObject, COMDAT
; _this$ = ecx

; 74   : {

  00000	55		 push	 ebp
  00001	8b ec		 mov	 ebp, esp
  00003	6a ff		 push	 -1
  00005	68 00 00 00 00	 push	 __ehhandler$??1CGdiObject@@UAE@XZ
  0000a	64 a1 00 00 00
	00		 mov	 eax, DWORD PTR fs:0
  00010	50		 push	 eax
  00011	81 ec 10 02 00
	00		 sub	 esp, 528		; 00000210H
  00017	a1 00 00 00 00	 mov	 eax, DWORD PTR ___security_cookie
  0001c	33 c5		 xor	 eax, ebp
  0001e	89 45 ec	 mov	 DWORD PTR __$ArrayPad$[ebp], eax
  00021	53		 push	 ebx
  00022	56		 push	 esi
  00023	57		 push	 edi
  00024	50		 push	 eax
  00025	8d 45 f4	 lea	 eax, DWORD PTR __$EHRec$[ebp+4]
  00028	64 a3 00 00 00
	00		 mov	 DWORD PTR fs:0, eax
  0002e	89 65 f0	 mov	 DWORD PTR __$EHRec$[ebp], esp
  00031	c7 01 00 00 00
	00		 mov	 DWORD PTR [ecx], OFFSET ??_7CGdiObject@@6B@

; 75   : 	AFX_BEGIN_DESTRUCTOR

  00037	c7 45 fc 00 00
	00 00		 mov	 DWORD PTR __$EHRec$[ebp+12], 0

; 76   : 	DeleteObject();

  0003e	e8 00 00 00 00	 call	 ?DeleteObject@CGdiObject@@QAEHXZ ; CGdiObject::DeleteObject
$LN18@CGdiObject:

; 78   : }

  00043	8b 4d f4	 mov	 ecx, DWORD PTR __$EHRec$[ebp+4]
  00046	64 89 0d 00 00
	00 00		 mov	 DWORD PTR fs:0, ecx
  0004d	59		 pop	 ecx
  0004e	5f		 pop	 edi
  0004f	5e		 pop	 esi
  00050	5b		 pop	 ebx
  00051	8b 4d ec	 mov	 ecx, DWORD PTR __$ArrayPad$[ebp]
  00054	33 cd		 xor	 ecx, ebp
  00056	e8 00 00 00 00	 call	 @__security_check_cookie@4
  0005b	8b e5		 mov	 esp, ebp
  0005d	5d		 pop	 ebp
  0005e	c3		 ret	 0
__catch$??1CGdiObject@@UAE@XZ$0:

; 77   : 	AFX_END_DESTRUCTOR

  0005f	8d 8d e8 fd ff
	ff		 lea	 ecx, DWORD PTR _strMsg$3[ebp]
  00065	ff 15 00 00 00
	00		 call	 DWORD PTR __imp_??0?$CStringT@DV?$StrTraitMFC_DLL@DV?$ChTraitsCRT@D@ATL@@@@@ATL@@QAE@XZ
  0006b	8b b5 e4 fd ff
	ff		 mov	 esi, DWORD PTR _pException$2[ebp]
  00071	8d 8d ec fd ff
	ff		 lea	 ecx, DWORD PTR _szErrorMessage$4[ebp]
  00077	6a 00		 push	 0
  00079	68 00 02 00 00	 push	 512			; 00000200H
  0007e	51		 push	 ecx
  0007f	8b 06		 mov	 eax, DWORD PTR [esi]
  00081	8b ce		 mov	 ecx, esi
  00083	c6 45 fc 02	 mov	 BYTE PTR __$EHRec$[ebp+12], 2
  00087	ff 50 14	 call	 DWORD PTR [eax+20]
  0008a	85 c0		 test	 eax, eax
  0008c	74 2a		 je	 SHORT $LN9@CGdiObject
  0008e	8d 85 ec fd ff
	ff		 lea	 eax, DWORD PTR _szErrorMessage$4[ebp]
  00094	50		 push	 eax
  00095	6a 4d		 push	 77			; 0000004dH
  00097	68 00 00 00 00	 push	 OFFSET ??_C@_0HD@JJCHHHNK@C?3?2Program?5Files?5?$CIx86?$CJ?2Microsof@
  0009c	68 00 00 00 00	 push	 OFFSET ??_C@_0BP@OIEOKIDM@Exception?5thrown?5in?5destructor@
  000a1	8d 85 e8 fd ff
	ff		 lea	 eax, DWORD PTR _strMsg$3[ebp]
  000a7	68 00 00 00 00	 push	 OFFSET ??_C@_0BB@HBOOMJBF@?$CFTs?5?$CI?$CFTs?3?$CFd?$CJ?6?$CFTs@
  000ac	50		 push	 eax
  000ad	ff 15 00 00 00
	00		 call	 DWORD PTR __imp_?Format@?$CStringT@DV?$StrTraitMFC_DLL@DV?$ChTraitsCRT@D@ATL@@@@@ATL@@QAAXPBDZZ
  000b3	83 c4 18	 add	 esp, 24			; 00000018H
  000b6	eb 21		 jmp	 SHORT $LN10@CGdiObject
$LN9@CGdiObject:
  000b8	6a 4d		 push	 77			; 0000004dH
  000ba	68 00 00 00 00	 push	 OFFSET ??_C@_0HD@JJCHHHNK@C?3?2Program?5Files?5?$CIx86?$CJ?2Microsof@
  000bf	68 00 00 00 00	 push	 OFFSET ??_C@_0BP@OIEOKIDM@Exception?5thrown?5in?5destructor@
  000c4	8d 85 e8 fd ff
	ff		 lea	 eax, DWORD PTR _strMsg$3[ebp]
  000ca	68 00 00 00 00	 push	 OFFSET ??_C@_0N@OMEMOKLE@?$CFTs?5?$CI?$CFTs?3?$CFd?$CJ@
  000cf	50		 push	 eax
  000d0	ff 15 00 00 00
	00		 call	 DWORD PTR __imp_?Format@?$CStringT@DV?$StrTraitMFC_DLL@DV?$ChTraitsCRT@D@ATL@@@@@ATL@@QAAXPBDZZ
  000d6	83 c4 14	 add	 esp, 20			; 00000014H
$LN10@CGdiObject:
  000d9	6a 00		 push	 0
  000db	6a 00		 push	 0
  000dd	ff b5 e8 fd ff
	ff		 push	 DWORD PTR _strMsg$3[ebp]
  000e3	e8 00 00 00 00	 call	 ?AfxMessageBox@@YGHPBDII@Z ; AfxMessageBox
  000e8	8d 8d e8 fd ff
	ff		 lea	 ecx, DWORD PTR _strMsg$3[ebp]
  000ee	ff 15 00 00 00
	00		 call	 DWORD PTR __imp_??1?$CStringT@DV?$StrTraitMFC_DLL@DV?$ChTraitsCRT@D@ATL@@@@@ATL@@QAE@XZ
  000f4	8b 06		 mov	 eax, DWORD PTR [esi]
  000f6	8b ce		 mov	 ecx, esi
  000f8	6a 01		 push	 1
  000fa	ff 50 04	 call	 DWORD PTR [eax+4]
  000fd	b8 00 00 00 00	 mov	 eax, $LN18@CGdiObject
  00102	c3		 ret	 0
_TEXT	ENDS
;	COMDAT text$x
text$x	SEGMENT
__unwindfunclet$??1CGdiObject@@UAE@XZ$2:
  00000	8d 8d e8 fd ff
	ff		 lea	 ecx, DWORD PTR _strMsg$3[ebp]
  00006	ff 25 00 00 00
	00		 jmp	 DWORD PTR __imp_??1?$CStringT@DV?$StrTraitMFC_DLL@DV?$ChTraitsCRT@D@ATL@@@@@ATL@@QAE@XZ
  0000c	cc		 int	 3
  0000d	cc		 int	 3
  0000e	cc		 int	 3
  0000f	cc		 int	 3
  00010	cc		 int	 3
__ehhandler$??1CGdiObject@@UAE@XZ:
  00011	90		 npad	 1
  00012	90		 npad	 1
  00013	8b 54 24 08	 mov	 edx, DWORD PTR [esp+8]
  00017	8d 42 0c	 lea	 eax, DWORD PTR [edx+12]
  0001a	8b 8a e0 fd ff
	ff		 mov	 ecx, DWORD PTR [edx-544]
  00020	33 c8		 xor	 ecx, eax
  00022	e8 00 00 00 00	 call	 @__security_check_cookie@4
  00027	8b 4a f8	 mov	 ecx, DWORD PTR [edx-8]
  0002a	33 c8		 xor	 ecx, eax
  0002c	e8 00 00 00 00	 call	 @__security_check_cookie@4
  00031	b8 00 00 00 00	 mov	 eax, OFFSET __ehfuncinfo$??1CGdiObject@@UAE@XZ
  00036	e9 00 00 00 00	 jmp	 ___CxxFrameHandler3
text$x	ENDS
??1CGdiObject@@UAE@XZ ENDP				; CGdiObject::~CGdiObject
; Function compile flags: /Ogtp
; File C:\Program Files (x86)\Microsoft Visual Studio\2019\Community\VC\Tools\MSVC\14.29.30133\atlmfc\include\afx.inl
;	COMDAT ?Dump@CObject@@UBEXAAVCDumpContext@@@Z
_TEXT	SEGMENT
___formal$ = 8						; size = 4
?Dump@CObject@@UBEXAAVCDumpContext@@@Z PROC		; CObject::Dump, COMDAT
; _this$ = ecx

; 122  : 	{ /* no dumping in release builds */ }

  00000	c2 04 00	 ret	 4
?Dump@CObject@@UBEXAAVCDumpContext@@@Z ENDP		; CObject::Dump
_TEXT	ENDS
; Function compile flags: /Ogtp
; File C:\Program Files (x86)\Microsoft Visual Studio\2019\Community\VC\Tools\MSVC\14.29.30133\atlmfc\include\afx.inl
;	COMDAT ?AssertValid@CObject@@UBEXXZ
_TEXT	SEGMENT
?AssertValid@CObject@@UBEXXZ PROC			; CObject::AssertValid, COMDAT
; _this$ = ecx

; 120  : 	{ /* no asserts in release builds */ }

  00000	c2 00 00	 ret	 0
?AssertValid@CObject@@UBEXXZ ENDP			; CObject::AssertValid
_TEXT	ENDS
; Function compile flags: /Ogtp
; File C:\Program Files (x86)\Microsoft Visual Studio\2019\Community\VC\Tools\MSVC\14.29.30133\atlmfc\include\afx.inl
;	COMDAT ?Serialize@CObject@@UAEXAAVCArchive@@@Z
_TEXT	SEGMENT
___formal$ = 8						; size = 4
?Serialize@CObject@@UAEXAAVCArchive@@@Z PROC		; CObject::Serialize, COMDAT
; _this$ = ecx

; 106  : 	{ /* CObject does not serialize anything by default */ }

  00000	c2 04 00	 ret	 4
?Serialize@CObject@@UAEXAAVCArchive@@@Z ENDP		; CObject::Serialize
_TEXT	ENDS
; Function compile flags: /Ogtp
; File C:\Program Files (x86)\Microsoft Visual Studio\2019\Community\VC\Tools\MSVC\14.29.30133\atlmfc\include\afx.inl
;	COMDAT ??1CObject@@UAE@XZ
_TEXT	SEGMENT
??1CObject@@UAE@XZ PROC					; CObject::~CObject, COMDAT
; _this$ = ecx

; 104  : 	{ }

  00000	c2 00 00	 ret	 0
??1CObject@@UAE@XZ ENDP					; CObject::~CObject
_TEXT	ENDS
; Function compile flags: /Ogtp
; File D:\git\src\IBK\IBK_DRFN\ProjSrc\SrcChartEx\ChartAddIn\ChartAnalysisToolAddIn\AnalysisTool\CurrentElementSet.cpp
;	COMDAT ?__empty_global_delete@@YAXPAXI@Z
_TEXT	SEGMENT
___formal$ = 8						; size = 4
___formal$ = 12						; size = 4
?__empty_global_delete@@YAXPAXI@Z PROC			; __empty_global_delete, COMDAT

  00000	c2 00 00	 ret	 0
?__empty_global_delete@@YAXPAXI@Z ENDP			; __empty_global_delete
_TEXT	ENDS
; Function compile flags: /Ogtp
; File D:\git\src\IBK\IBK_DRFN\ProjSrc\SrcChartEx\ChartAddIn\ChartAnalysisToolAddIn\AnalysisTool\CurrentElementSet.cpp
;	COMDAT ?__empty_global_delete@@YAXPAX@Z
_TEXT	SEGMENT
___formal$ = 8						; size = 4
?__empty_global_delete@@YAXPAX@Z PROC			; __empty_global_delete, COMDAT

  00000	c2 00 00	 ret	 0
?__empty_global_delete@@YAXPAX@Z ENDP			; __empty_global_delete
_TEXT	ENDS
END
