; Listing generated by Microsoft (R) Optimizing Compiler Version 19.29.30145.0 

	TITLE	D:\git\src\IBK\IBK_DRFN\#DRfn-CS\_Obj\AnalysisTool\DlgAnalysisAdjustRatio.obj
	.686P
	.XMM
	include listing.inc
	.model	flat

INCLUDELIB MSVCRT
INCLUDELIB OLDNAMES

PUBLIC	??_C@_05EHMOBEEE@?$LA?$KB?$LA?$NN1@		; `string'
PUBLIC	??_C@_05GMODEHIH@?$LA?$KB?$LA?$NN2@		; `string'
PUBLIC	??_C@_05HFPIHGMG@?$LA?$KB?$LA?$NN3@		; `string'
PUBLIC	??_C@_0M@JAIPHOGJ@?A?$LG?A?$KE?5?$LJ?i?$LK?P?$MA?$LC@ ; `string'
PUBLIC	??_C@_03PCPLPMIC@33?$CF@			; `string'
PUBLIC	??_C@_05NCHDOBAM@38?42?$CF@			; `string'
PUBLIC	??_C@_03GNGKHKGC@40?$CF@			; `string'
PUBLIC	??_C@_03NFNGBNAH@50?$CF@			; `string'
PUBLIC	??_C@_03MHGDLCOJ@60?$CF@			; `string'
PUBLIC	??_C@_05ICDJJHBI@61?48?$CF@			; `string'
PUBLIC	??_C@_03MDOOMOFL@66?$CF@			; `string'
PUBLIC	??_C@_06DCFMCGFE@Price1@			; `string'
PUBLIC	??_C@_06BJHBHFJH@Price2@			; `string'
PUBLIC	??_C@_06GKEENG@Price3@				; `string'
PUBLIC	??_C@_0BE@NLNCPJHI@Modified?5Percentage@	; `string'
;	COMDAT ??_C@_0BE@NLNCPJHI@Modified?5Percentage@
CONST	SEGMENT
??_C@_0BE@NLNCPJHI@Modified?5Percentage@ DB 'Modified Percentage', 00H ; `string'
CONST	ENDS
;	COMDAT ??_C@_06GKEENG@Price3@
CONST	SEGMENT
??_C@_06GKEENG@Price3@ DB 'Price3', 00H			; `string'
CONST	ENDS
;	COMDAT ??_C@_06BJHBHFJH@Price2@
CONST	SEGMENT
??_C@_06BJHBHFJH@Price2@ DB 'Price2', 00H		; `string'
CONST	ENDS
;	COMDAT ??_C@_06DCFMCGFE@Price1@
CONST	SEGMENT
??_C@_06DCFMCGFE@Price1@ DB 'Price1', 00H		; `string'
CONST	ENDS
;	COMDAT ??_C@_03MDOOMOFL@66?$CF@
CONST	SEGMENT
??_C@_03MDOOMOFL@66?$CF@ DB '66%', 00H			; `string'
CONST	ENDS
;	COMDAT ??_C@_05ICDJJHBI@61?48?$CF@
CONST	SEGMENT
??_C@_05ICDJJHBI@61?48?$CF@ DB '61.8%', 00H		; `string'
CONST	ENDS
;	COMDAT ??_C@_03MHGDLCOJ@60?$CF@
CONST	SEGMENT
??_C@_03MHGDLCOJ@60?$CF@ DB '60%', 00H			; `string'
CONST	ENDS
;	COMDAT ??_C@_03NFNGBNAH@50?$CF@
CONST	SEGMENT
??_C@_03NFNGBNAH@50?$CF@ DB '50%', 00H			; `string'
CONST	ENDS
;	COMDAT ??_C@_03GNGKHKGC@40?$CF@
CONST	SEGMENT
??_C@_03GNGKHKGC@40?$CF@ DB '40%', 00H			; `string'
CONST	ENDS
;	COMDAT ??_C@_05NCHDOBAM@38?42?$CF@
CONST	SEGMENT
??_C@_05NCHDOBAM@38?42?$CF@ DB '38.2%', 00H		; `string'
CONST	ENDS
;	COMDAT ??_C@_03PCPLPMIC@33?$CF@
CONST	SEGMENT
??_C@_03PCPLPMIC@33?$CF@ DB '33%', 00H			; `string'
CONST	ENDS
;	COMDAT ??_C@_0M@JAIPHOGJ@?A?$LG?A?$KE?5?$LJ?i?$LK?P?$MA?$LC@
CONST	SEGMENT
??_C@_0M@JAIPHOGJ@?A?$LG?A?$KE?5?$LJ?i?$LK?P?$MA?$LC@ DB 0c1H, 0b6H, 0c1H
	DB	0a4H, ' ', 0b9H, 0e9H, 0baH, 0d0H, 0c0H, 0b2H, 00H ; `string'
CONST	ENDS
;	COMDAT ??_C@_05HFPIHGMG@?$LA?$KB?$LA?$NN3@
CONST	SEGMENT
??_C@_05HFPIHGMG@?$LA?$KB?$LA?$NN3@ DB 0b0H, 0a1H, 0b0H, 0ddH, '3', 00H ; `string'
CONST	ENDS
;	COMDAT ??_C@_05GMODEHIH@?$LA?$KB?$LA?$NN2@
CONST	SEGMENT
??_C@_05GMODEHIH@?$LA?$KB?$LA?$NN2@ DB 0b0H, 0a1H, 0b0H, 0ddH, '2', 00H ; `string'
CONST	ENDS
;	COMDAT ??_C@_05EHMOBEEE@?$LA?$KB?$LA?$NN1@
CONST	SEGMENT
??_C@_05EHMOBEEE@?$LA?$KB?$LA?$NN1@ DB 0b0H, 0a1H, 0b0H, 0ddH, '1', 00H ; `string'
CONST	ENDS
PUBLIC	?__empty_global_delete@@YAXPAX@Z		; __empty_global_delete
PUBLIC	?__empty_global_delete@@YAXPAXI@Z		; __empty_global_delete
PUBLIC	___local_stdio_printf_options
PUBLIC	_sprintf
PUBLIC	?Serialize@CObject@@UAEXAAVCArchive@@@Z		; CObject::Serialize
PUBLIC	?AssertValid@CObject@@UBEXXZ			; CObject::AssertValid
PUBLIC	?Dump@CObject@@UBEXAAVCDumpContext@@@Z		; CObject::Dump
PUBLIC	?DoDataExchange@CWnd@@MAEXPAVCDataExchange@@@Z	; CWnd::DoDataExchange
PUBLIC	?BeginModalState@CWnd@@UAEXXZ			; CWnd::BeginModalState
PUBLIC	?EndModalState@CWnd@@UAEXXZ			; CWnd::EndModalState
PUBLIC	?Create@CDialog@@UAEHIPAVCWnd@@@Z		; CDialog::Create
PUBLIC	??_GCListCtrl@@UAEPAXI@Z			; CListCtrl::`scalar deleting destructor'
PUBLIC	??0CDlgAnalysisAdjustRatio@@QAE@PAUHWND__@@PAVCWnd@@@Z ; CDlgAnalysisAdjustRatio::CDlgAnalysisAdjustRatio
PUBLIC	?SetListItem@CDlgAnalysisAdjustRatio@@QAEXHPAD@Z ; CDlgAnalysisAdjustRatio::SetListItem
PUBLIC	?SetValue@CDlgAnalysisAdjustRatio@@QAEXHN@Z	; CDlgAnalysisAdjustRatio::SetValue
PUBLIC	?DoDataExchange@CDlgAnalysisAdjustRatio@@MAEXPAVCDataExchange@@@Z ; CDlgAnalysisAdjustRatio::DoDataExchange
PUBLIC	?OnInitDialog@CDlgAnalysisAdjustRatio@@MAEHXZ	; CDlgAnalysisAdjustRatio::OnInitDialog
PUBLIC	?GetThisMessageMap@CDlgAnalysisAdjustRatio@@KGPBUAFX_MSGMAP@@XZ ; CDlgAnalysisAdjustRatio::GetThisMessageMap
PUBLIC	?GetMessageMap@CDlgAnalysisAdjustRatio@@MBEPBUAFX_MSGMAP@@XZ ; CDlgAnalysisAdjustRatio::GetMessageMap
PUBLIC	??_GCDlgAnalysisAdjustRatio@@UAEPAXI@Z		; CDlgAnalysisAdjustRatio::`scalar deleting destructor'
PUBLIC	?_OptionsStorage@?1??__local_stdio_printf_options@@9@4_KA ; `__local_stdio_printf_options'::`2'::_OptionsStorage
PUBLIC	??_7CListCtrl@@6B@				; CListCtrl::`vftable'
PUBLIC	??_R0?AVCObject@@@8				; CObject `RTTI Type Descriptor'
PUBLIC	??_R3CObject@@8					; CObject::`RTTI Class Hierarchy Descriptor'
PUBLIC	??_R2CObject@@8					; CObject::`RTTI Base Class Array'
PUBLIC	??_R1A@?0A@EA@CObject@@8			; CObject::`RTTI Base Class Descriptor at (0,-1,0,64)'
PUBLIC	??_R1A@?0A@EA@CWnd@@8				; CWnd::`RTTI Base Class Descriptor at (0,-1,0,64)'
PUBLIC	??_R0?AVCWnd@@@8				; CWnd `RTTI Type Descriptor'
PUBLIC	??_R3CWnd@@8					; CWnd::`RTTI Class Hierarchy Descriptor'
PUBLIC	??_R2CWnd@@8					; CWnd::`RTTI Base Class Array'
PUBLIC	??_R1A@?0A@EA@CCmdTarget@@8			; CCmdTarget::`RTTI Base Class Descriptor at (0,-1,0,64)'
PUBLIC	??_R0?AVCCmdTarget@@@8				; CCmdTarget `RTTI Type Descriptor'
PUBLIC	??_R3CCmdTarget@@8				; CCmdTarget::`RTTI Class Hierarchy Descriptor'
PUBLIC	??_R2CCmdTarget@@8				; CCmdTarget::`RTTI Base Class Array'
PUBLIC	??_R1A@?0A@EA@CDialog@@8			; CDialog::`RTTI Base Class Descriptor at (0,-1,0,64)'
PUBLIC	??_R0?AVCDialog@@@8				; CDialog `RTTI Type Descriptor'
PUBLIC	??_R3CDialog@@8					; CDialog::`RTTI Class Hierarchy Descriptor'
PUBLIC	??_R2CDialog@@8					; CDialog::`RTTI Base Class Array'
PUBLIC	??_R4CListCtrl@@6B@				; CListCtrl::`RTTI Complete Object Locator'
PUBLIC	??_R0?AVCListCtrl@@@8				; CListCtrl `RTTI Type Descriptor'
PUBLIC	??_R3CListCtrl@@8				; CListCtrl::`RTTI Class Hierarchy Descriptor'
PUBLIC	??_R2CListCtrl@@8				; CListCtrl::`RTTI Base Class Array'
PUBLIC	??_R1A@?0A@EA@CListCtrl@@8			; CListCtrl::`RTTI Base Class Descriptor at (0,-1,0,64)'
PUBLIC	??_7CDlgAnalysisAdjustRatio@@6B@		; CDlgAnalysisAdjustRatio::`vftable'
PUBLIC	??_C@_0BF@EGELCGDD@GetCurrentLanguageID@	; `string'
PUBLIC	??_C@_06FFIACGFC@Column@			; `string'
PUBLIC	??_C@_05EPOFJFPD@?$CF?42lf@			; `string'
PUBLIC	??_R4CDlgAnalysisAdjustRatio@@6B@		; CDlgAnalysisAdjustRatio::`RTTI Complete Object Locator'
PUBLIC	??_R0?AVCDlgAnalysisAdjustRatio@@@8		; CDlgAnalysisAdjustRatio `RTTI Type Descriptor'
PUBLIC	??_R3CDlgAnalysisAdjustRatio@@8			; CDlgAnalysisAdjustRatio::`RTTI Class Hierarchy Descriptor'
PUBLIC	??_R2CDlgAnalysisAdjustRatio@@8			; CDlgAnalysisAdjustRatio::`RTTI Base Class Array'
PUBLIC	??_R1A@?0A@EA@CDlgAnalysisAdjustRatio@@8	; CDlgAnalysisAdjustRatio::`RTTI Base Class Descriptor at (0,-1,0,64)'
PUBLIC	__real@4059000000000000
PUBLIC	__xmm@00000000000000003fe55553ef6b5d46
PUBLIC	__xmm@3fd872b020c49ba63fd55553ef6b5d46
PUBLIC	__xmm@3fe00000000000003fd999999999999a
PUBLIC	__xmm@3fe3c6a7ef9db22d3fe3333333333333
EXTRN	??3@YAXPAX@Z:PROC				; operator delete
EXTRN	?__global_delete@@YAXPAXI@Z:PROC		; __global_delete
EXTRN	__imp__GetProcAddress@8:PROC
EXTRN	__imp__SendMessageA@16:PROC
EXTRN	__imp__EnableWindow@8:PROC
EXTRN	__imp__GetClientRect@8:PROC
EXTRN	__imp____stdio_common_vsprintf:PROC
EXTRN	?DDX_Control@@YGXPAVCDataExchange@@HAAVCWnd@@@Z:PROC ; DDX_Control
EXTRN	?OnCmdMsg@CCmdTarget@@UAEHIHPAXPAUAFX_CMDHANDLERINFO@@@Z:PROC ; CCmdTarget::OnCmdMsg
EXTRN	?IsInvokeAllowed@CCmdTarget@@UAEHJ@Z:PROC	; CCmdTarget::IsInvokeAllowed
EXTRN	?GetDispatchIID@CCmdTarget@@UAEHPAU_GUID@@@Z:PROC ; CCmdTarget::GetDispatchIID
EXTRN	?GetTypeInfoCount@CCmdTarget@@UAEIXZ:PROC	; CCmdTarget::GetTypeInfoCount
EXTRN	?GetTypeLibCache@CCmdTarget@@UAEPAVCTypeLibCache@@XZ:PROC ; CCmdTarget::GetTypeLibCache
EXTRN	?GetTypeLib@CCmdTarget@@UAEJKPAPAUITypeLib@@@Z:PROC ; CCmdTarget::GetTypeLib
EXTRN	?GetCommandMap@CCmdTarget@@MBEPBUAFX_OLECMDMAP@@XZ:PROC ; CCmdTarget::GetCommandMap
EXTRN	?GetDispatchMap@CCmdTarget@@MBEPBUAFX_DISPMAP@@XZ:PROC ; CCmdTarget::GetDispatchMap
EXTRN	?GetConnectionMap@CCmdTarget@@MBEPBUAFX_CONNECTIONMAP@@XZ:PROC ; CCmdTarget::GetConnectionMap
EXTRN	?GetEventSinkMap@CCmdTarget@@MBEPBUAFX_EVENTSINKMAP@@XZ:PROC ; CCmdTarget::GetEventSinkMap
EXTRN	?OnCreateAggregates@CCmdTarget@@UAEHXZ:PROC	; CCmdTarget::OnCreateAggregates
EXTRN	?GetInterfaceHook@CCmdTarget@@UAEPAUIUnknown@@PBX@Z:PROC ; CCmdTarget::GetInterfaceHook
EXTRN	?GetExtraConnectionPoints@CCmdTarget@@MAEHPAVCPtrArray@@@Z:PROC ; CCmdTarget::GetExtraConnectionPoints
EXTRN	?GetConnectionHook@CCmdTarget@@MAEPAUIConnectionPoint@@ABU_GUID@@@Z:PROC ; CCmdTarget::GetConnectionHook
EXTRN	??0CWnd@@QAE@XZ:PROC				; CWnd::CWnd
EXTRN	?PreSubclassWindow@CWnd@@UAEXXZ:PROC		; CWnd::PreSubclassWindow
EXTRN	?Create@CWnd@@UAEHPBD0KABUtagRECT@@PAV1@IPAUCCreateContext@@@Z:PROC ; CWnd::Create
EXTRN	?CreateEx@CWnd@@UAEHKPBD0KHHHHPAUHWND__@@PAUHMENU__@@PAX@Z:PROC ; CWnd::CreateEx
EXTRN	?CreateEx@CWnd@@UAEHKPBD0KABUtagRECT@@PAV1@IPAX@Z:PROC ; CWnd::CreateEx
EXTRN	?DestroyWindow@CWnd@@UAEHXZ:PROC		; CWnd::DestroyWindow
EXTRN	?PreCreateWindow@CWnd@@UAEHAAUtagCREATESTRUCTA@@@Z:PROC ; CWnd::PreCreateWindow
EXTRN	?CalcWindowRect@CWnd@@UAEXPAUtagRECT@@I@Z:PROC	; CWnd::CalcWindowRect
EXTRN	?GetMenu@CWnd@@UBEPAVCMenu@@XZ:PROC		; CWnd::GetMenu
EXTRN	?SetMenu@CWnd@@UAEHPAVCMenu@@@Z:PROC		; CWnd::SetMenu
EXTRN	?OnToolHitTest@CWnd@@UBEHVCPoint@@PAUtagTOOLINFOA@@@Z:PROC ; CWnd::OnToolHitTest
EXTRN	?GetScrollBarCtrl@CWnd@@UBEPAVCScrollBar@@H@Z:PROC ; CWnd::GetScrollBarCtrl
EXTRN	?WinHelpA@CWnd@@UAEXKI@Z:PROC			; CWnd::WinHelpA
EXTRN	?HtmlHelpA@CWnd@@UAEXKI@Z:PROC			; CWnd::HtmlHelpA
EXTRN	?WinHelpInternal@CWnd@@UAEXKI@Z:PROC		; CWnd::WinHelpInternal
EXTRN	?ContinueModal@CWnd@@UAEHXZ:PROC		; CWnd::ContinueModal
EXTRN	?EndModalLoop@CWnd@@UAEXH@Z:PROC		; CWnd::EndModalLoop
EXTRN	?OnDrawIconicThumbnailOrLivePreview@CWnd@@UAEXAAVCDC@@VCRect@@VCSize@@HAAH@Z:PROC ; CWnd::OnDrawIconicThumbnailOrLivePreview
EXTRN	?GetInterfaceMap@CWnd@@MBEPBUAFX_INTERFACEMAP@@XZ:PROC ; CWnd::GetInterfaceMap
EXTRN	?EnsureStdObj@CWnd@@UAEJXZ:PROC			; CWnd::EnsureStdObj
EXTRN	?get_accParent@CWnd@@UAEJPAPAUIDispatch@@@Z:PROC ; CWnd::get_accParent
EXTRN	?get_accChildCount@CWnd@@UAEJPAJ@Z:PROC		; CWnd::get_accChildCount
EXTRN	?get_accChild@CWnd@@UAEJUtagVARIANT@@PAPAUIDispatch@@@Z:PROC ; CWnd::get_accChild
EXTRN	?get_accName@CWnd@@UAEJUtagVARIANT@@PAPA_W@Z:PROC ; CWnd::get_accName
EXTRN	?get_accValue@CWnd@@UAEJUtagVARIANT@@PAPA_W@Z:PROC ; CWnd::get_accValue
EXTRN	?get_accDescription@CWnd@@UAEJUtagVARIANT@@PAPA_W@Z:PROC ; CWnd::get_accDescription
EXTRN	?get_accRole@CWnd@@UAEJUtagVARIANT@@PAU2@@Z:PROC ; CWnd::get_accRole
EXTRN	?get_accState@CWnd@@UAEJUtagVARIANT@@PAU2@@Z:PROC ; CWnd::get_accState
EXTRN	?get_accHelp@CWnd@@UAEJUtagVARIANT@@PAPA_W@Z:PROC ; CWnd::get_accHelp
EXTRN	?get_accHelpTopic@CWnd@@UAEJPAPA_WUtagVARIANT@@PAJ@Z:PROC ; CWnd::get_accHelpTopic
EXTRN	?get_accKeyboardShortcut@CWnd@@UAEJUtagVARIANT@@PAPA_W@Z:PROC ; CWnd::get_accKeyboardShortcut
EXTRN	?get_accFocus@CWnd@@UAEJPAUtagVARIANT@@@Z:PROC	; CWnd::get_accFocus
EXTRN	?get_accSelection@CWnd@@UAEJPAUtagVARIANT@@@Z:PROC ; CWnd::get_accSelection
EXTRN	?get_accDefaultAction@CWnd@@UAEJUtagVARIANT@@PAPA_W@Z:PROC ; CWnd::get_accDefaultAction
EXTRN	?accSelect@CWnd@@UAEJJUtagVARIANT@@@Z:PROC	; CWnd::accSelect
EXTRN	?accLocation@CWnd@@UAEJPAJ000UtagVARIANT@@@Z:PROC ; CWnd::accLocation
EXTRN	?accNavigate@CWnd@@UAEJJUtagVARIANT@@PAU2@@Z:PROC ; CWnd::accNavigate
EXTRN	?accHitTest@CWnd@@UAEJJJPAUtagVARIANT@@@Z:PROC	; CWnd::accHitTest
EXTRN	?accDoDefaultAction@CWnd@@UAEJUtagVARIANT@@@Z:PROC ; CWnd::accDoDefaultAction
EXTRN	?put_accName@CWnd@@UAEJUtagVARIANT@@PA_W@Z:PROC	; CWnd::put_accName
EXTRN	?put_accValue@CWnd@@UAEJUtagVARIANT@@PA_W@Z:PROC ; CWnd::put_accValue
EXTRN	?SetProxy@CWnd@@UAEJPAUIAccessibleProxy@@@Z:PROC ; CWnd::SetProxy
EXTRN	?CreateAccessibleProxy@CWnd@@UAEJIJPAJ@Z:PROC	; CWnd::CreateAccessibleProxy
EXTRN	?OnCommand@CWnd@@MAEHIJ@Z:PROC			; CWnd::OnCommand
EXTRN	?OnNotify@CWnd@@MAEHIJPAJ@Z:PROC		; CWnd::OnNotify
EXTRN	?GetSuperWndProcAddr@CWnd@@MAEPAP6GJPAUHWND__@@IIJ@ZXZ:PROC ; CWnd::GetSuperWndProcAddr
EXTRN	?PreTranslateMessage@CWnd@@UAEHPAUtagMSG@@@Z:PROC ; CWnd::PreTranslateMessage
EXTRN	?OnAmbientProperty@CWnd@@UAEHPAVCOleControlSite@@JPAUtagVARIANT@@@Z:PROC ; CWnd::OnAmbientProperty
EXTRN	?WindowProc@CWnd@@MAEJIIJ@Z:PROC		; CWnd::WindowProc
EXTRN	?OnWndMsg@CWnd@@MAEHIIJPAJ@Z:PROC		; CWnd::OnWndMsg
EXTRN	?DefWindowProcA@CWnd@@MAEJIIJ@Z:PROC		; CWnd::DefWindowProcA
EXTRN	?PostNcDestroy@CWnd@@MAEXXZ:PROC		; CWnd::PostNcDestroy
EXTRN	?OnChildNotify@CWnd@@MAEHIIJPAJ@Z:PROC		; CWnd::OnChildNotify
EXTRN	?OnTouchInputs@CWnd@@MAEHIPAUtagTOUCHINPUT@@@Z:PROC ; CWnd::OnTouchInputs
EXTRN	?OnTouchInput@CWnd@@MAEHVCPoint@@HHPAUtagTOUCHINPUT@@@Z:PROC ; CWnd::OnTouchInput
EXTRN	?GetGestureStatus@CWnd@@MAEKVCPoint@@@Z:PROC	; CWnd::GetGestureStatus
EXTRN	?OnGestureZoom@CWnd@@MAEHVCPoint@@J@Z:PROC	; CWnd::OnGestureZoom
EXTRN	?OnGesturePan@CWnd@@MAEHVCPoint@@0@Z:PROC	; CWnd::OnGesturePan
EXTRN	?OnGestureRotate@CWnd@@MAEHVCPoint@@N@Z:PROC	; CWnd::OnGestureRotate
EXTRN	?OnGestureTwoFingerTap@CWnd@@MAEHVCPoint@@@Z:PROC ; CWnd::OnGestureTwoFingerTap
EXTRN	?OnGesturePressAndTap@CWnd@@MAEHVCPoint@@J@Z:PROC ; CWnd::OnGesturePressAndTap
EXTRN	?ResizeDynamicLayout@CWnd@@MAEXXZ:PROC		; CWnd::ResizeDynamicLayout
EXTRN	?CheckAutoCenter@CWnd@@UAEHXZ:PROC		; CWnd::CheckAutoCenter
EXTRN	?IsFrameWnd@CWnd@@UBEHXZ:PROC			; CWnd::IsFrameWnd
EXTRN	?OnFinalRelease@CWnd@@UAEXXZ:PROC		; CWnd::OnFinalRelease
EXTRN	?CreateControlContainer@CWnd@@MAEHPAPAVCOleControlContainer@@@Z:PROC ; CWnd::CreateControlContainer
EXTRN	?CreateControlSite@CWnd@@MAEHPAVCOleControlContainer@@PAPAVCOleControlSite@@IABU_GUID@@@Z:PROC ; CWnd::CreateControlSite
EXTRN	?SetOccDialogInfo@CWnd@@MAEHPAU_AFX_OCC_DIALOG_INFO@@@Z:PROC ; CWnd::SetOccDialogInfo
EXTRN	?GetOccDialogInfo@CWnd@@MAEPAU_AFX_OCC_DIALOG_INFO@@XZ:PROC ; CWnd::GetOccDialogInfo
EXTRN	?GetRuntimeClass@CDialog@@UBEPAUCRuntimeClass@@XZ:PROC ; CDialog::GetRuntimeClass
EXTRN	?Create@CDialog@@UAEHPBDPAVCWnd@@@Z:PROC	; CDialog::Create
EXTRN	?CreateIndirect@CDialog@@UAEHPBUDLGTEMPLATE@@PAVCWnd@@PAX@Z:PROC ; CDialog::CreateIndirect
EXTRN	?CreateIndirect@CDialog@@UAEHPAXPAVCWnd@@@Z:PROC ; CDialog::CreateIndirect
EXTRN	??0CDialog@@QAE@IPAVCWnd@@@Z:PROC		; CDialog::CDialog
EXTRN	?DoModal@CDialog@@UAEHXZ:PROC			; CDialog::DoModal
EXTRN	?OnInitDialog@CDialog@@UAEHXZ:PROC		; CDialog::OnInitDialog
EXTRN	?OnSetFont@CDialog@@UAEXPAVCFont@@@Z:PROC	; CDialog::OnSetFont
EXTRN	?OnOK@CDialog@@MAEXXZ:PROC			; CDialog::OnOK
EXTRN	?OnCancel@CDialog@@MAEXXZ:PROC			; CDialog::OnCancel
EXTRN	??1CDialog@@UAE@XZ:PROC				; CDialog::~CDialog
EXTRN	?PreTranslateMessage@CDialog@@UAEHPAUtagMSG@@@Z:PROC ; CDialog::PreTranslateMessage
EXTRN	?OnCmdMsg@CDialog@@UAEHIHPAXPAUAFX_CMDHANDLERINFO@@@Z:PROC ; CDialog::OnCmdMsg
EXTRN	?CheckAutoCenter@CDialog@@UAEHXZ:PROC		; CDialog::CheckAutoCenter
EXTRN	?SetOccDialogInfo@CDialog@@MAEHPAU_AFX_OCC_DIALOG_INFO@@@Z:PROC ; CDialog::SetOccDialogInfo
EXTRN	?GetOccDialogInfo@CDialog@@MAEPAU_AFX_OCC_DIALOG_INFO@@XZ:PROC ; CDialog::GetOccDialogInfo
EXTRN	?PreInitDialog@CDialog@@MAEXXZ:PROC		; CDialog::PreInitDialog
EXTRN	?GetThisMessageMap@CDialog@@KGPBUAFX_MSGMAP@@XZ:PROC ; CDialog::GetThisMessageMap
EXTRN	?GetRuntimeClass@CListCtrl@@UBEPAUCRuntimeClass@@XZ:PROC ; CListCtrl::GetRuntimeClass
EXTRN	?SetItemText@CListCtrl@@QAEHHHPBD@Z:PROC	; CListCtrl::SetItemText
EXTRN	?DrawItem@CListCtrl@@UAEXPAUtagDRAWITEMSTRUCT@@@Z:PROC ; CListCtrl::DrawItem
EXTRN	??1CListCtrl@@UAE@XZ:PROC			; CListCtrl::~CListCtrl
EXTRN	?OnChildNotify@CListCtrl@@MAEHIIJPAJ@Z:PROC	; CListCtrl::OnChildNotify
EXTRN	?GetMessageMap@CListCtrl@@MBEPBUAFX_MSGMAP@@XZ:PROC ; CListCtrl::GetMessageMap
EXTRN	??_ECListCtrl@@UAEPAXI@Z:PROC			; CListCtrl::`vector deleting destructor'
EXTRN	??_ECDlgAnalysisAdjustRatio@@UAEPAXI@Z:PROC	; CDlgAnalysisAdjustRatio::`vector deleting destructor'
EXTRN	@__security_check_cookie@4:PROC
EXTRN	___CxxFrameHandler3:PROC
EXTRN	??_7type_info@@6B@:QWORD			; type_info::`vftable'
EXTRN	?g_iMetaTable@@3VIMetaTable@@A:BYTE		; g_iMetaTable
EXTRN	___security_cookie:DWORD
EXTRN	__fltused:DWORD
;	COMDAT ?_OptionsStorage@?1??__local_stdio_printf_options@@9@4_KA
_BSS	SEGMENT
?_OptionsStorage@?1??__local_stdio_printf_options@@9@4_KA DQ 01H DUP (?) ; `__local_stdio_printf_options'::`2'::_OptionsStorage
_BSS	ENDS
;	COMDAT __xmm@3fe3c6a7ef9db22d3fe3333333333333
CONST	SEGMENT
__xmm@3fe3c6a7ef9db22d3fe3333333333333 DB '333333', 0e3H, '?-', 0b2H, 09dH
	DB	0efH, 0a7H, 0c6H, 0e3H, '?'
CONST	ENDS
;	COMDAT __xmm@3fe00000000000003fd999999999999a
CONST	SEGMENT
__xmm@3fe00000000000003fd999999999999a DB 09aH, 099H, 099H, 099H, 099H, 099H
	DB	0d9H, '?', 00H, 00H, 00H, 00H, 00H, 00H, 0e0H, '?'
CONST	ENDS
;	COMDAT __xmm@3fd872b020c49ba63fd55553ef6b5d46
CONST	SEGMENT
__xmm@3fd872b020c49ba63fd55553ef6b5d46 DB 'F]k', 0efH, 'SU', 0d5H, '?', 0a6H
	DB	09bH, 0c4H, ' ', 0b0H, 'r', 0d8H, '?'
CONST	ENDS
;	COMDAT __xmm@00000000000000003fe55553ef6b5d46
CONST	SEGMENT
__xmm@00000000000000003fe55553ef6b5d46 DB 'F]k', 0efH, 'SU', 0e5H, '?', 00H
	DB	00H, 00H, 00H, 00H, 00H, 00H, 00H
CONST	ENDS
;	COMDAT __real@4059000000000000
CONST	SEGMENT
__real@4059000000000000 DQ 04059000000000000r	; 100
CONST	ENDS
;	COMDAT ??_R1A@?0A@EA@CDlgAnalysisAdjustRatio@@8
rdata$r	SEGMENT
??_R1A@?0A@EA@CDlgAnalysisAdjustRatio@@8 DD FLAT:??_R0?AVCDlgAnalysisAdjustRatio@@@8 ; CDlgAnalysisAdjustRatio::`RTTI Base Class Descriptor at (0,-1,0,64)'
	DD	04H
	DD	00H
	DD	0ffffffffH
	DD	00H
	DD	040H
	DD	FLAT:??_R3CDlgAnalysisAdjustRatio@@8
rdata$r	ENDS
;	COMDAT ??_R2CDlgAnalysisAdjustRatio@@8
rdata$r	SEGMENT
??_R2CDlgAnalysisAdjustRatio@@8 DD FLAT:??_R1A@?0A@EA@CDlgAnalysisAdjustRatio@@8 ; CDlgAnalysisAdjustRatio::`RTTI Base Class Array'
	DD	FLAT:??_R1A@?0A@EA@CDialog@@8
	DD	FLAT:??_R1A@?0A@EA@CWnd@@8
	DD	FLAT:??_R1A@?0A@EA@CCmdTarget@@8
	DD	FLAT:??_R1A@?0A@EA@CObject@@8
rdata$r	ENDS
;	COMDAT ??_R3CDlgAnalysisAdjustRatio@@8
rdata$r	SEGMENT
??_R3CDlgAnalysisAdjustRatio@@8 DD 00H			; CDlgAnalysisAdjustRatio::`RTTI Class Hierarchy Descriptor'
	DD	00H
	DD	05H
	DD	FLAT:??_R2CDlgAnalysisAdjustRatio@@8
rdata$r	ENDS
;	COMDAT ??_R0?AVCDlgAnalysisAdjustRatio@@@8
data$rs	SEGMENT
??_R0?AVCDlgAnalysisAdjustRatio@@@8 DD FLAT:??_7type_info@@6B@ ; CDlgAnalysisAdjustRatio `RTTI Type Descriptor'
	DD	00H
	DB	'.?AVCDlgAnalysisAdjustRatio@@', 00H
data$rs	ENDS
;	COMDAT ??_R4CDlgAnalysisAdjustRatio@@6B@
rdata$r	SEGMENT
??_R4CDlgAnalysisAdjustRatio@@6B@ DD 00H		; CDlgAnalysisAdjustRatio::`RTTI Complete Object Locator'
	DD	00H
	DD	00H
	DD	FLAT:??_R0?AVCDlgAnalysisAdjustRatio@@@8
	DD	FLAT:??_R3CDlgAnalysisAdjustRatio@@8
rdata$r	ENDS
;	COMDAT ??_C@_05EPOFJFPD@?$CF?42lf@
CONST	SEGMENT
??_C@_05EPOFJFPD@?$CF?42lf@ DB '%.2lf', 00H		; `string'
CONST	ENDS
;	COMDAT ??_C@_06FFIACGFC@Column@
CONST	SEGMENT
??_C@_06FFIACGFC@Column@ DB 'Column', 00H		; `string'
CONST	ENDS
;	COMDAT ?messageMap@?1??GetThisMessageMap@CDlgAnalysisAdjustRatio@@KGPBUAFX_MSGMAP@@XZ@4U3@B
CONST	SEGMENT
?messageMap@?1??GetThisMessageMap@CDlgAnalysisAdjustRatio@@KGPBUAFX_MSGMAP@@XZ@4U3@B DD FLAT:?GetThisMessageMap@CDialog@@KGPBUAFX_MSGMAP@@XZ ; `CDlgAnalysisAdjustRatio::GetThisMessageMap'::`2'::messageMap
	DD	FLAT:?_messageEntries@?1??GetThisMessageMap@CDlgAnalysisAdjustRatio@@KGPBUAFX_MSGMAP@@XZ@4QBUAFX_MSGMAP_ENTRY@@B
CONST	ENDS
;	COMDAT ?_messageEntries@?1??GetThisMessageMap@CDlgAnalysisAdjustRatio@@KGPBUAFX_MSGMAP@@XZ@4QBUAFX_MSGMAP_ENTRY@@B
CONST	SEGMENT
?_messageEntries@?1??GetThisMessageMap@CDlgAnalysisAdjustRatio@@KGPBUAFX_MSGMAP@@XZ@4QBUAFX_MSGMAP_ENTRY@@B DD 00H ; `CDlgAnalysisAdjustRatio::GetThisMessageMap'::`2'::_messageEntries
	DD	00H
	DD	00H
	DD	00H
	DD	00H
	DD	00H
CONST	ENDS
_DATA	SEGMENT
?G_ADJUST_RATIO_LIST_NAME_K@@3PAPADA DD FLAT:??_C@_05EHMOBEEE@?$LA?$KB?$LA?$NN1@ ; G_ADJUST_RATIO_LIST_NAME_K
	DD	FLAT:??_C@_05GMODEHIH@?$LA?$KB?$LA?$NN2@
	DD	FLAT:??_C@_05HFPIHGMG@?$LA?$KB?$LA?$NN3@
	DD	FLAT:??_C@_0M@JAIPHOGJ@?A?$LG?A?$KE?5?$LJ?i?$LK?P?$MA?$LC@
	DD	FLAT:??_C@_03PCPLPMIC@33?$CF@
	DD	FLAT:??_C@_05NCHDOBAM@38?42?$CF@
	DD	FLAT:??_C@_03GNGKHKGC@40?$CF@
	DD	FLAT:??_C@_03NFNGBNAH@50?$CF@
	DD	FLAT:??_C@_03MHGDLCOJ@60?$CF@
	DD	FLAT:??_C@_05ICDJJHBI@61?48?$CF@
	DD	FLAT:??_C@_03MDOOMOFL@66?$CF@
?G_ADJUST_RATIO_LIST_NAME_E@@3PAPADA DD FLAT:??_C@_06DCFMCGFE@Price1@ ; G_ADJUST_RATIO_LIST_NAME_E
	DD	FLAT:??_C@_06BJHBHFJH@Price2@
	DD	FLAT:??_C@_06GKEENG@Price3@
	DD	FLAT:??_C@_0BE@NLNCPJHI@Modified?5Percentage@
	DD	FLAT:??_C@_03PCPLPMIC@33?$CF@
	DD	FLAT:??_C@_05NCHDOBAM@38?42?$CF@
	DD	FLAT:??_C@_03GNGKHKGC@40?$CF@
	DD	FLAT:??_C@_03NFNGBNAH@50?$CF@
	DD	FLAT:??_C@_03MHGDLCOJ@60?$CF@
	DD	FLAT:??_C@_05ICDJJHBI@61?48?$CF@
	DD	FLAT:??_C@_03MDOOMOFL@66?$CF@
_DATA	ENDS
;	COMDAT ??_C@_0BF@EGELCGDD@GetCurrentLanguageID@
CONST	SEGMENT
??_C@_0BF@EGELCGDD@GetCurrentLanguageID@ DB 'GetCurrentLanguageID', 00H ; `string'
CONST	ENDS
;	COMDAT ??_7CDlgAnalysisAdjustRatio@@6B@
CONST	SEGMENT
??_7CDlgAnalysisAdjustRatio@@6B@ DD FLAT:??_R4CDlgAnalysisAdjustRatio@@6B@ ; CDlgAnalysisAdjustRatio::`vftable'
	DD	FLAT:?GetRuntimeClass@CDialog@@UBEPAUCRuntimeClass@@XZ
	DD	FLAT:??_ECDlgAnalysisAdjustRatio@@UAEPAXI@Z
	DD	FLAT:?Serialize@CObject@@UAEXAAVCArchive@@@Z
	DD	FLAT:?AssertValid@CObject@@UBEXXZ
	DD	FLAT:?Dump@CObject@@UBEXAAVCDumpContext@@@Z
	DD	FLAT:?OnCmdMsg@CDialog@@UAEHIHPAXPAUAFX_CMDHANDLERINFO@@@Z
	DD	FLAT:?OnFinalRelease@CWnd@@UAEXXZ
	DD	FLAT:?IsInvokeAllowed@CCmdTarget@@UAEHJ@Z
	DD	FLAT:?GetDispatchIID@CCmdTarget@@UAEHPAU_GUID@@@Z
	DD	FLAT:?GetTypeInfoCount@CCmdTarget@@UAEIXZ
	DD	FLAT:?GetTypeLibCache@CCmdTarget@@UAEPAVCTypeLibCache@@XZ
	DD	FLAT:?GetTypeLib@CCmdTarget@@UAEJKPAPAUITypeLib@@@Z
	DD	FLAT:?GetMessageMap@CDlgAnalysisAdjustRatio@@MBEPBUAFX_MSGMAP@@XZ
	DD	FLAT:?GetCommandMap@CCmdTarget@@MBEPBUAFX_OLECMDMAP@@XZ
	DD	FLAT:?GetDispatchMap@CCmdTarget@@MBEPBUAFX_DISPMAP@@XZ
	DD	FLAT:?GetConnectionMap@CCmdTarget@@MBEPBUAFX_CONNECTIONMAP@@XZ
	DD	FLAT:?GetInterfaceMap@CWnd@@MBEPBUAFX_INTERFACEMAP@@XZ
	DD	FLAT:?GetEventSinkMap@CCmdTarget@@MBEPBUAFX_EVENTSINKMAP@@XZ
	DD	FLAT:?OnCreateAggregates@CCmdTarget@@UAEHXZ
	DD	FLAT:?GetInterfaceHook@CCmdTarget@@UAEPAUIUnknown@@PBX@Z
	DD	FLAT:?GetExtraConnectionPoints@CCmdTarget@@MAEHPAVCPtrArray@@@Z
	DD	FLAT:?GetConnectionHook@CCmdTarget@@MAEPAUIConnectionPoint@@ABU_GUID@@@Z
	DD	FLAT:?PreSubclassWindow@CWnd@@UAEXXZ
	DD	FLAT:?Create@CWnd@@UAEHPBD0KABUtagRECT@@PAV1@IPAUCCreateContext@@@Z
	DD	FLAT:?CreateEx@CWnd@@UAEHKPBD0KABUtagRECT@@PAV1@IPAX@Z
	DD	FLAT:?CreateEx@CWnd@@UAEHKPBD0KHHHHPAUHWND__@@PAUHMENU__@@PAX@Z
	DD	FLAT:?DestroyWindow@CWnd@@UAEHXZ
	DD	FLAT:?PreCreateWindow@CWnd@@UAEHAAUtagCREATESTRUCTA@@@Z
	DD	FLAT:?CalcWindowRect@CWnd@@UAEXPAUtagRECT@@I@Z
	DD	FLAT:?GetMenu@CWnd@@UBEPAVCMenu@@XZ
	DD	FLAT:?SetMenu@CWnd@@UAEHPAVCMenu@@@Z
	DD	FLAT:?OnToolHitTest@CWnd@@UBEHVCPoint@@PAUtagTOOLINFOA@@@Z
	DD	FLAT:?GetScrollBarCtrl@CWnd@@UBEPAVCScrollBar@@H@Z
	DD	FLAT:?WinHelpA@CWnd@@UAEXKI@Z
	DD	FLAT:?HtmlHelpA@CWnd@@UAEXKI@Z
	DD	FLAT:?WinHelpInternal@CWnd@@UAEXKI@Z
	DD	FLAT:?ContinueModal@CWnd@@UAEHXZ
	DD	FLAT:?EndModalLoop@CWnd@@UAEXH@Z
	DD	FLAT:?OnDrawIconicThumbnailOrLivePreview@CWnd@@UAEXAAVCDC@@VCRect@@VCSize@@HAAH@Z
	DD	FLAT:?EnsureStdObj@CWnd@@UAEJXZ
	DD	FLAT:?get_accParent@CWnd@@UAEJPAPAUIDispatch@@@Z
	DD	FLAT:?get_accChildCount@CWnd@@UAEJPAJ@Z
	DD	FLAT:?get_accChild@CWnd@@UAEJUtagVARIANT@@PAPAUIDispatch@@@Z
	DD	FLAT:?get_accName@CWnd@@UAEJUtagVARIANT@@PAPA_W@Z
	DD	FLAT:?get_accValue@CWnd@@UAEJUtagVARIANT@@PAPA_W@Z
	DD	FLAT:?get_accDescription@CWnd@@UAEJUtagVARIANT@@PAPA_W@Z
	DD	FLAT:?get_accRole@CWnd@@UAEJUtagVARIANT@@PAU2@@Z
	DD	FLAT:?get_accState@CWnd@@UAEJUtagVARIANT@@PAU2@@Z
	DD	FLAT:?get_accHelp@CWnd@@UAEJUtagVARIANT@@PAPA_W@Z
	DD	FLAT:?get_accHelpTopic@CWnd@@UAEJPAPA_WUtagVARIANT@@PAJ@Z
	DD	FLAT:?get_accKeyboardShortcut@CWnd@@UAEJUtagVARIANT@@PAPA_W@Z
	DD	FLAT:?get_accFocus@CWnd@@UAEJPAUtagVARIANT@@@Z
	DD	FLAT:?get_accSelection@CWnd@@UAEJPAUtagVARIANT@@@Z
	DD	FLAT:?get_accDefaultAction@CWnd@@UAEJUtagVARIANT@@PAPA_W@Z
	DD	FLAT:?accSelect@CWnd@@UAEJJUtagVARIANT@@@Z
	DD	FLAT:?accLocation@CWnd@@UAEJPAJ000UtagVARIANT@@@Z
	DD	FLAT:?accNavigate@CWnd@@UAEJJUtagVARIANT@@PAU2@@Z
	DD	FLAT:?accHitTest@CWnd@@UAEJJJPAUtagVARIANT@@@Z
	DD	FLAT:?accDoDefaultAction@CWnd@@UAEJUtagVARIANT@@@Z
	DD	FLAT:?put_accName@CWnd@@UAEJUtagVARIANT@@PA_W@Z
	DD	FLAT:?put_accValue@CWnd@@UAEJUtagVARIANT@@PA_W@Z
	DD	FLAT:?SetProxy@CWnd@@UAEJPAUIAccessibleProxy@@@Z
	DD	FLAT:?CreateAccessibleProxy@CWnd@@UAEJIJPAJ@Z
	DD	FLAT:?OnCommand@CWnd@@MAEHIJ@Z
	DD	FLAT:?OnNotify@CWnd@@MAEHIJPAJ@Z
	DD	FLAT:?GetSuperWndProcAddr@CWnd@@MAEPAP6GJPAUHWND__@@IIJ@ZXZ
	DD	FLAT:?DoDataExchange@CDlgAnalysisAdjustRatio@@MAEXPAVCDataExchange@@@Z
	DD	FLAT:?BeginModalState@CWnd@@UAEXXZ
	DD	FLAT:?EndModalState@CWnd@@UAEXXZ
	DD	FLAT:?PreTranslateMessage@CDialog@@UAEHPAUtagMSG@@@Z
	DD	FLAT:?OnAmbientProperty@CWnd@@UAEHPAVCOleControlSite@@JPAUtagVARIANT@@@Z
	DD	FLAT:?WindowProc@CWnd@@MAEJIIJ@Z
	DD	FLAT:?OnWndMsg@CWnd@@MAEHIIJPAJ@Z
	DD	FLAT:?DefWindowProcA@CWnd@@MAEJIIJ@Z
	DD	FLAT:?PostNcDestroy@CWnd@@MAEXXZ
	DD	FLAT:?OnChildNotify@CWnd@@MAEHIIJPAJ@Z
	DD	FLAT:?OnTouchInputs@CWnd@@MAEHIPAUtagTOUCHINPUT@@@Z
	DD	FLAT:?OnTouchInput@CWnd@@MAEHVCPoint@@HHPAUtagTOUCHINPUT@@@Z
	DD	FLAT:?GetGestureStatus@CWnd@@MAEKVCPoint@@@Z
	DD	FLAT:?OnGestureZoom@CWnd@@MAEHVCPoint@@J@Z
	DD	FLAT:?OnGesturePan@CWnd@@MAEHVCPoint@@0@Z
	DD	FLAT:?OnGestureRotate@CWnd@@MAEHVCPoint@@N@Z
	DD	FLAT:?OnGestureTwoFingerTap@CWnd@@MAEHVCPoint@@@Z
	DD	FLAT:?OnGesturePressAndTap@CWnd@@MAEHVCPoint@@J@Z
	DD	FLAT:?ResizeDynamicLayout@CWnd@@MAEXXZ
	DD	FLAT:?CheckAutoCenter@CDialog@@UAEHXZ
	DD	FLAT:?IsFrameWnd@CWnd@@UBEHXZ
	DD	FLAT:?CreateControlContainer@CWnd@@MAEHPAPAVCOleControlContainer@@@Z
	DD	FLAT:?CreateControlSite@CWnd@@MAEHPAVCOleControlContainer@@PAPAVCOleControlSite@@IABU_GUID@@@Z
	DD	FLAT:?SetOccDialogInfo@CDialog@@MAEHPAU_AFX_OCC_DIALOG_INFO@@@Z
	DD	FLAT:?GetOccDialogInfo@CDialog@@MAEPAU_AFX_OCC_DIALOG_INFO@@XZ
	DD	FLAT:?Create@CDialog@@UAEHIPAVCWnd@@@Z
	DD	FLAT:?Create@CDialog@@UAEHPBDPAVCWnd@@@Z
	DD	FLAT:?CreateIndirect@CDialog@@UAEHPAXPAVCWnd@@@Z
	DD	FLAT:?CreateIndirect@CDialog@@UAEHPBUDLGTEMPLATE@@PAVCWnd@@PAX@Z
	DD	FLAT:?DoModal@CDialog@@UAEHXZ
	DD	FLAT:?OnInitDialog@CDlgAnalysisAdjustRatio@@MAEHXZ
	DD	FLAT:?OnSetFont@CDialog@@UAEXPAVCFont@@@Z
	DD	FLAT:?OnOK@CDialog@@MAEXXZ
	DD	FLAT:?OnCancel@CDialog@@MAEXXZ
	DD	FLAT:?PreInitDialog@CDialog@@MAEXXZ
CONST	ENDS
;	COMDAT ??_R1A@?0A@EA@CListCtrl@@8
rdata$r	SEGMENT
??_R1A@?0A@EA@CListCtrl@@8 DD FLAT:??_R0?AVCListCtrl@@@8 ; CListCtrl::`RTTI Base Class Descriptor at (0,-1,0,64)'
	DD	03H
	DD	00H
	DD	0ffffffffH
	DD	00H
	DD	040H
	DD	FLAT:??_R3CListCtrl@@8
rdata$r	ENDS
;	COMDAT ??_R2CListCtrl@@8
rdata$r	SEGMENT
??_R2CListCtrl@@8 DD FLAT:??_R1A@?0A@EA@CListCtrl@@8	; CListCtrl::`RTTI Base Class Array'
	DD	FLAT:??_R1A@?0A@EA@CWnd@@8
	DD	FLAT:??_R1A@?0A@EA@CCmdTarget@@8
	DD	FLAT:??_R1A@?0A@EA@CObject@@8
rdata$r	ENDS
;	COMDAT ??_R3CListCtrl@@8
rdata$r	SEGMENT
??_R3CListCtrl@@8 DD 00H				; CListCtrl::`RTTI Class Hierarchy Descriptor'
	DD	00H
	DD	04H
	DD	FLAT:??_R2CListCtrl@@8
rdata$r	ENDS
;	COMDAT ??_R0?AVCListCtrl@@@8
data$rs	SEGMENT
??_R0?AVCListCtrl@@@8 DD FLAT:??_7type_info@@6B@	; CListCtrl `RTTI Type Descriptor'
	DD	00H
	DB	'.?AVCListCtrl@@', 00H
data$rs	ENDS
;	COMDAT ??_R4CListCtrl@@6B@
rdata$r	SEGMENT
??_R4CListCtrl@@6B@ DD 00H				; CListCtrl::`RTTI Complete Object Locator'
	DD	00H
	DD	00H
	DD	FLAT:??_R0?AVCListCtrl@@@8
	DD	FLAT:??_R3CListCtrl@@8
rdata$r	ENDS
;	COMDAT ??_R2CDialog@@8
rdata$r	SEGMENT
??_R2CDialog@@8 DD FLAT:??_R1A@?0A@EA@CDialog@@8	; CDialog::`RTTI Base Class Array'
	DD	FLAT:??_R1A@?0A@EA@CWnd@@8
	DD	FLAT:??_R1A@?0A@EA@CCmdTarget@@8
	DD	FLAT:??_R1A@?0A@EA@CObject@@8
rdata$r	ENDS
;	COMDAT ??_R3CDialog@@8
rdata$r	SEGMENT
??_R3CDialog@@8 DD 00H					; CDialog::`RTTI Class Hierarchy Descriptor'
	DD	00H
	DD	04H
	DD	FLAT:??_R2CDialog@@8
rdata$r	ENDS
;	COMDAT ??_R0?AVCDialog@@@8
data$rs	SEGMENT
??_R0?AVCDialog@@@8 DD FLAT:??_7type_info@@6B@		; CDialog `RTTI Type Descriptor'
	DD	00H
	DB	'.?AVCDialog@@', 00H
data$rs	ENDS
;	COMDAT ??_R1A@?0A@EA@CDialog@@8
rdata$r	SEGMENT
??_R1A@?0A@EA@CDialog@@8 DD FLAT:??_R0?AVCDialog@@@8	; CDialog::`RTTI Base Class Descriptor at (0,-1,0,64)'
	DD	03H
	DD	00H
	DD	0ffffffffH
	DD	00H
	DD	040H
	DD	FLAT:??_R3CDialog@@8
rdata$r	ENDS
;	COMDAT ??_R2CCmdTarget@@8
rdata$r	SEGMENT
??_R2CCmdTarget@@8 DD FLAT:??_R1A@?0A@EA@CCmdTarget@@8	; CCmdTarget::`RTTI Base Class Array'
	DD	FLAT:??_R1A@?0A@EA@CObject@@8
rdata$r	ENDS
;	COMDAT ??_R3CCmdTarget@@8
rdata$r	SEGMENT
??_R3CCmdTarget@@8 DD 00H				; CCmdTarget::`RTTI Class Hierarchy Descriptor'
	DD	00H
	DD	02H
	DD	FLAT:??_R2CCmdTarget@@8
rdata$r	ENDS
;	COMDAT ??_R0?AVCCmdTarget@@@8
data$rs	SEGMENT
??_R0?AVCCmdTarget@@@8 DD FLAT:??_7type_info@@6B@	; CCmdTarget `RTTI Type Descriptor'
	DD	00H
	DB	'.?AVCCmdTarget@@', 00H
data$rs	ENDS
;	COMDAT ??_R1A@?0A@EA@CCmdTarget@@8
rdata$r	SEGMENT
??_R1A@?0A@EA@CCmdTarget@@8 DD FLAT:??_R0?AVCCmdTarget@@@8 ; CCmdTarget::`RTTI Base Class Descriptor at (0,-1,0,64)'
	DD	01H
	DD	00H
	DD	0ffffffffH
	DD	00H
	DD	040H
	DD	FLAT:??_R3CCmdTarget@@8
rdata$r	ENDS
;	COMDAT ??_R2CWnd@@8
rdata$r	SEGMENT
??_R2CWnd@@8 DD	FLAT:??_R1A@?0A@EA@CWnd@@8		; CWnd::`RTTI Base Class Array'
	DD	FLAT:??_R1A@?0A@EA@CCmdTarget@@8
	DD	FLAT:??_R1A@?0A@EA@CObject@@8
rdata$r	ENDS
;	COMDAT ??_R3CWnd@@8
rdata$r	SEGMENT
??_R3CWnd@@8 DD	00H					; CWnd::`RTTI Class Hierarchy Descriptor'
	DD	00H
	DD	03H
	DD	FLAT:??_R2CWnd@@8
rdata$r	ENDS
;	COMDAT ??_R0?AVCWnd@@@8
data$rs	SEGMENT
??_R0?AVCWnd@@@8 DD FLAT:??_7type_info@@6B@		; CWnd `RTTI Type Descriptor'
	DD	00H
	DB	'.?AVCWnd@@', 00H
data$rs	ENDS
;	COMDAT ??_R1A@?0A@EA@CWnd@@8
rdata$r	SEGMENT
??_R1A@?0A@EA@CWnd@@8 DD FLAT:??_R0?AVCWnd@@@8		; CWnd::`RTTI Base Class Descriptor at (0,-1,0,64)'
	DD	02H
	DD	00H
	DD	0ffffffffH
	DD	00H
	DD	040H
	DD	FLAT:??_R3CWnd@@8
rdata$r	ENDS
;	COMDAT ??_R1A@?0A@EA@CObject@@8
rdata$r	SEGMENT
??_R1A@?0A@EA@CObject@@8 DD FLAT:??_R0?AVCObject@@@8	; CObject::`RTTI Base Class Descriptor at (0,-1,0,64)'
	DD	00H
	DD	00H
	DD	0ffffffffH
	DD	00H
	DD	040H
	DD	FLAT:??_R3CObject@@8
rdata$r	ENDS
;	COMDAT ??_R2CObject@@8
rdata$r	SEGMENT
??_R2CObject@@8 DD FLAT:??_R1A@?0A@EA@CObject@@8	; CObject::`RTTI Base Class Array'
rdata$r	ENDS
;	COMDAT ??_R3CObject@@8
rdata$r	SEGMENT
??_R3CObject@@8 DD 00H					; CObject::`RTTI Class Hierarchy Descriptor'
	DD	00H
	DD	01H
	DD	FLAT:??_R2CObject@@8
rdata$r	ENDS
;	COMDAT ??_R0?AVCObject@@@8
data$rs	SEGMENT
??_R0?AVCObject@@@8 DD FLAT:??_7type_info@@6B@		; CObject `RTTI Type Descriptor'
	DD	00H
	DB	'.?AVCObject@@', 00H
data$rs	ENDS
;	COMDAT ??_7CListCtrl@@6B@
CONST	SEGMENT
??_7CListCtrl@@6B@ DD FLAT:??_R4CListCtrl@@6B@		; CListCtrl::`vftable'
	DD	FLAT:?GetRuntimeClass@CListCtrl@@UBEPAUCRuntimeClass@@XZ
	DD	FLAT:??_ECListCtrl@@UAEPAXI@Z
	DD	FLAT:?Serialize@CObject@@UAEXAAVCArchive@@@Z
	DD	FLAT:?AssertValid@CObject@@UBEXXZ
	DD	FLAT:?Dump@CObject@@UBEXAAVCDumpContext@@@Z
	DD	FLAT:?OnCmdMsg@CCmdTarget@@UAEHIHPAXPAUAFX_CMDHANDLERINFO@@@Z
	DD	FLAT:?OnFinalRelease@CWnd@@UAEXXZ
	DD	FLAT:?IsInvokeAllowed@CCmdTarget@@UAEHJ@Z
	DD	FLAT:?GetDispatchIID@CCmdTarget@@UAEHPAU_GUID@@@Z
	DD	FLAT:?GetTypeInfoCount@CCmdTarget@@UAEIXZ
	DD	FLAT:?GetTypeLibCache@CCmdTarget@@UAEPAVCTypeLibCache@@XZ
	DD	FLAT:?GetTypeLib@CCmdTarget@@UAEJKPAPAUITypeLib@@@Z
	DD	FLAT:?GetMessageMap@CListCtrl@@MBEPBUAFX_MSGMAP@@XZ
	DD	FLAT:?GetCommandMap@CCmdTarget@@MBEPBUAFX_OLECMDMAP@@XZ
	DD	FLAT:?GetDispatchMap@CCmdTarget@@MBEPBUAFX_DISPMAP@@XZ
	DD	FLAT:?GetConnectionMap@CCmdTarget@@MBEPBUAFX_CONNECTIONMAP@@XZ
	DD	FLAT:?GetInterfaceMap@CWnd@@MBEPBUAFX_INTERFACEMAP@@XZ
	DD	FLAT:?GetEventSinkMap@CCmdTarget@@MBEPBUAFX_EVENTSINKMAP@@XZ
	DD	FLAT:?OnCreateAggregates@CCmdTarget@@UAEHXZ
	DD	FLAT:?GetInterfaceHook@CCmdTarget@@UAEPAUIUnknown@@PBX@Z
	DD	FLAT:?GetExtraConnectionPoints@CCmdTarget@@MAEHPAVCPtrArray@@@Z
	DD	FLAT:?GetConnectionHook@CCmdTarget@@MAEPAUIConnectionPoint@@ABU_GUID@@@Z
	DD	FLAT:?PreSubclassWindow@CWnd@@UAEXXZ
	DD	FLAT:?Create@CWnd@@UAEHPBD0KABUtagRECT@@PAV1@IPAUCCreateContext@@@Z
	DD	FLAT:?CreateEx@CWnd@@UAEHKPBD0KABUtagRECT@@PAV1@IPAX@Z
	DD	FLAT:?CreateEx@CWnd@@UAEHKPBD0KHHHHPAUHWND__@@PAUHMENU__@@PAX@Z
	DD	FLAT:?DestroyWindow@CWnd@@UAEHXZ
	DD	FLAT:?PreCreateWindow@CWnd@@UAEHAAUtagCREATESTRUCTA@@@Z
	DD	FLAT:?CalcWindowRect@CWnd@@UAEXPAUtagRECT@@I@Z
	DD	FLAT:?GetMenu@CWnd@@UBEPAVCMenu@@XZ
	DD	FLAT:?SetMenu@CWnd@@UAEHPAVCMenu@@@Z
	DD	FLAT:?OnToolHitTest@CWnd@@UBEHVCPoint@@PAUtagTOOLINFOA@@@Z
	DD	FLAT:?GetScrollBarCtrl@CWnd@@UBEPAVCScrollBar@@H@Z
	DD	FLAT:?WinHelpA@CWnd@@UAEXKI@Z
	DD	FLAT:?HtmlHelpA@CWnd@@UAEXKI@Z
	DD	FLAT:?WinHelpInternal@CWnd@@UAEXKI@Z
	DD	FLAT:?ContinueModal@CWnd@@UAEHXZ
	DD	FLAT:?EndModalLoop@CWnd@@UAEXH@Z
	DD	FLAT:?OnDrawIconicThumbnailOrLivePreview@CWnd@@UAEXAAVCDC@@VCRect@@VCSize@@HAAH@Z
	DD	FLAT:?EnsureStdObj@CWnd@@UAEJXZ
	DD	FLAT:?get_accParent@CWnd@@UAEJPAPAUIDispatch@@@Z
	DD	FLAT:?get_accChildCount@CWnd@@UAEJPAJ@Z
	DD	FLAT:?get_accChild@CWnd@@UAEJUtagVARIANT@@PAPAUIDispatch@@@Z
	DD	FLAT:?get_accName@CWnd@@UAEJUtagVARIANT@@PAPA_W@Z
	DD	FLAT:?get_accValue@CWnd@@UAEJUtagVARIANT@@PAPA_W@Z
	DD	FLAT:?get_accDescription@CWnd@@UAEJUtagVARIANT@@PAPA_W@Z
	DD	FLAT:?get_accRole@CWnd@@UAEJUtagVARIANT@@PAU2@@Z
	DD	FLAT:?get_accState@CWnd@@UAEJUtagVARIANT@@PAU2@@Z
	DD	FLAT:?get_accHelp@CWnd@@UAEJUtagVARIANT@@PAPA_W@Z
	DD	FLAT:?get_accHelpTopic@CWnd@@UAEJPAPA_WUtagVARIANT@@PAJ@Z
	DD	FLAT:?get_accKeyboardShortcut@CWnd@@UAEJUtagVARIANT@@PAPA_W@Z
	DD	FLAT:?get_accFocus@CWnd@@UAEJPAUtagVARIANT@@@Z
	DD	FLAT:?get_accSelection@CWnd@@UAEJPAUtagVARIANT@@@Z
	DD	FLAT:?get_accDefaultAction@CWnd@@UAEJUtagVARIANT@@PAPA_W@Z
	DD	FLAT:?accSelect@CWnd@@UAEJJUtagVARIANT@@@Z
	DD	FLAT:?accLocation@CWnd@@UAEJPAJ000UtagVARIANT@@@Z
	DD	FLAT:?accNavigate@CWnd@@UAEJJUtagVARIANT@@PAU2@@Z
	DD	FLAT:?accHitTest@CWnd@@UAEJJJPAUtagVARIANT@@@Z
	DD	FLAT:?accDoDefaultAction@CWnd@@UAEJUtagVARIANT@@@Z
	DD	FLAT:?put_accName@CWnd@@UAEJUtagVARIANT@@PA_W@Z
	DD	FLAT:?put_accValue@CWnd@@UAEJUtagVARIANT@@PA_W@Z
	DD	FLAT:?SetProxy@CWnd@@UAEJPAUIAccessibleProxy@@@Z
	DD	FLAT:?CreateAccessibleProxy@CWnd@@UAEJIJPAJ@Z
	DD	FLAT:?OnCommand@CWnd@@MAEHIJ@Z
	DD	FLAT:?OnNotify@CWnd@@MAEHIJPAJ@Z
	DD	FLAT:?GetSuperWndProcAddr@CWnd@@MAEPAP6GJPAUHWND__@@IIJ@ZXZ
	DD	FLAT:?DoDataExchange@CWnd@@MAEXPAVCDataExchange@@@Z
	DD	FLAT:?BeginModalState@CWnd@@UAEXXZ
	DD	FLAT:?EndModalState@CWnd@@UAEXXZ
	DD	FLAT:?PreTranslateMessage@CWnd@@UAEHPAUtagMSG@@@Z
	DD	FLAT:?OnAmbientProperty@CWnd@@UAEHPAVCOleControlSite@@JPAUtagVARIANT@@@Z
	DD	FLAT:?WindowProc@CWnd@@MAEJIIJ@Z
	DD	FLAT:?OnWndMsg@CWnd@@MAEHIIJPAJ@Z
	DD	FLAT:?DefWindowProcA@CWnd@@MAEJIIJ@Z
	DD	FLAT:?PostNcDestroy@CWnd@@MAEXXZ
	DD	FLAT:?OnChildNotify@CListCtrl@@MAEHIIJPAJ@Z
	DD	FLAT:?OnTouchInputs@CWnd@@MAEHIPAUtagTOUCHINPUT@@@Z
	DD	FLAT:?OnTouchInput@CWnd@@MAEHVCPoint@@HHPAUtagTOUCHINPUT@@@Z
	DD	FLAT:?GetGestureStatus@CWnd@@MAEKVCPoint@@@Z
	DD	FLAT:?OnGestureZoom@CWnd@@MAEHVCPoint@@J@Z
	DD	FLAT:?OnGesturePan@CWnd@@MAEHVCPoint@@0@Z
	DD	FLAT:?OnGestureRotate@CWnd@@MAEHVCPoint@@N@Z
	DD	FLAT:?OnGestureTwoFingerTap@CWnd@@MAEHVCPoint@@@Z
	DD	FLAT:?OnGesturePressAndTap@CWnd@@MAEHVCPoint@@J@Z
	DD	FLAT:?ResizeDynamicLayout@CWnd@@MAEXXZ
	DD	FLAT:?CheckAutoCenter@CWnd@@UAEHXZ
	DD	FLAT:?IsFrameWnd@CWnd@@UBEHXZ
	DD	FLAT:?CreateControlContainer@CWnd@@MAEHPAPAVCOleControlContainer@@@Z
	DD	FLAT:?CreateControlSite@CWnd@@MAEHPAVCOleControlContainer@@PAPAVCOleControlSite@@IABU_GUID@@@Z
	DD	FLAT:?SetOccDialogInfo@CWnd@@MAEHPAU_AFX_OCC_DIALOG_INFO@@@Z
	DD	FLAT:?GetOccDialogInfo@CWnd@@MAEPAU_AFX_OCC_DIALOG_INFO@@XZ
	DD	FLAT:?DrawItem@CListCtrl@@UAEXPAUtagDRAWITEMSTRUCT@@@Z
CONST	ENDS
;	COMDAT xdata$x
xdata$x	SEGMENT
__unwindtable$??0CDlgAnalysisAdjustRatio@@QAE@PAUHWND__@@PAVCWnd@@@Z DD 0ffffffffH
	DD	FLAT:__unwindfunclet$??0CDlgAnalysisAdjustRatio@@QAE@PAUHWND__@@PAVCWnd@@@Z$0
__ehfuncinfo$??0CDlgAnalysisAdjustRatio@@QAE@PAUHWND__@@PAVCWnd@@@Z DD 019930522H
	DD	01H
	DD	FLAT:__unwindtable$??0CDlgAnalysisAdjustRatio@@QAE@PAUHWND__@@PAVCWnd@@@Z
	DD	2 DUP(00H)
	DD	2 DUP(00H)
	DD	00H
	DD	01H
xdata$x	ENDS
; Function compile flags: /Ogtp
; File C:\Program Files (x86)\Microsoft Visual Studio\2019\Community\VC\Tools\MSVC\14.29.30133\atlmfc\include\afx.inl
;	COMDAT ??_GCDlgAnalysisAdjustRatio@@UAEPAXI@Z
_TEXT	SEGMENT
___flags$ = 8						; size = 4
??_GCDlgAnalysisAdjustRatio@@UAEPAXI@Z PROC		; CDlgAnalysisAdjustRatio::`scalar deleting destructor', COMDAT
; _this$ = ecx
  00000	55		 push	 ebp
  00001	8b ec		 mov	 ebp, esp
  00003	56		 push	 esi
  00004	8b f1		 mov	 esi, ecx
  00006	8d 8e a8 00 00
	00		 lea	 ecx, DWORD PTR [esi+168]
  0000c	e8 00 00 00 00	 call	 ??1CListCtrl@@UAE@XZ	; CListCtrl::~CListCtrl
  00011	8b ce		 mov	 ecx, esi
  00013	e8 00 00 00 00	 call	 ??1CDialog@@UAE@XZ	; CDialog::~CDialog
  00018	8b 45 08	 mov	 eax, DWORD PTR ___flags$[ebp]
  0001b	a8 01		 test	 al, 1
  0001d	74 22		 je	 SHORT $LN12@scalar
  0001f	a8 04		 test	 al, 4
  00021	75 10		 jne	 SHORT $LN3@scalar

; 112  : 	{ ::operator delete(p); }

  00023	56		 push	 esi
  00024	e8 00 00 00 00	 call	 ??3@YAXPAX@Z		; operator delete
  00029	83 c4 04	 add	 esp, 4
  0002c	8b c6		 mov	 eax, esi
  0002e	5e		 pop	 esi
  0002f	5d		 pop	 ebp
  00030	c2 04 00	 ret	 4
$LN3@scalar:
  00033	68 48 01 00 00	 push	 328			; 00000148H
  00038	56		 push	 esi
  00039	e8 00 00 00 00	 call	 ?__global_delete@@YAXPAXI@Z ; __global_delete
  0003e	83 c4 08	 add	 esp, 8
$LN12@scalar:
  00041	8b c6		 mov	 eax, esi
  00043	5e		 pop	 esi
  00044	5d		 pop	 ebp
  00045	c2 04 00	 ret	 4
??_GCDlgAnalysisAdjustRatio@@UAEPAXI@Z ENDP		; CDlgAnalysisAdjustRatio::`scalar deleting destructor'
_TEXT	ENDS
; Function compile flags: /Ogtp
; File D:\git\src\IBK\IBK_DRFN\ProjSrc\SrcChartEx\ChartAddIn\ChartAnalysisToolAddIn\AnalysisTool\DlgAnalysisAdjustRatio.cpp
;	COMDAT ?GetMessageMap@CDlgAnalysisAdjustRatio@@MBEPBUAFX_MSGMAP@@XZ
_TEXT	SEGMENT
?GetMessageMap@CDlgAnalysisAdjustRatio@@MBEPBUAFX_MSGMAP@@XZ PROC ; CDlgAnalysisAdjustRatio::GetMessageMap, COMDAT
; _this$ = ecx

; 45   : BEGIN_MESSAGE_MAP(CDlgAnalysisAdjustRatio, CDialog)

  00000	b8 00 00 00 00	 mov	 eax, OFFSET ?messageMap@?1??GetThisMessageMap@CDlgAnalysisAdjustRatio@@KGPBUAFX_MSGMAP@@XZ@4U3@B
  00005	c3		 ret	 0
?GetMessageMap@CDlgAnalysisAdjustRatio@@MBEPBUAFX_MSGMAP@@XZ ENDP ; CDlgAnalysisAdjustRatio::GetMessageMap
_TEXT	ENDS
; Function compile flags: /Ogtp
; File D:\git\src\IBK\IBK_DRFN\ProjSrc\SrcChartEx\ChartAddIn\ChartAnalysisToolAddIn\AnalysisTool\DlgAnalysisAdjustRatio.cpp
;	COMDAT ?GetThisMessageMap@CDlgAnalysisAdjustRatio@@KGPBUAFX_MSGMAP@@XZ
_TEXT	SEGMENT
?GetThisMessageMap@CDlgAnalysisAdjustRatio@@KGPBUAFX_MSGMAP@@XZ PROC ; CDlgAnalysisAdjustRatio::GetThisMessageMap, COMDAT

; 46   : 	//{{AFX_MSG_MAP(CDlgAnalysisAdjustRatio)
; 47   : 	//}}AFX_MSG_MAP
; 48   : END_MESSAGE_MAP()

  00000	b8 00 00 00 00	 mov	 eax, OFFSET ?messageMap@?1??GetThisMessageMap@CDlgAnalysisAdjustRatio@@KGPBUAFX_MSGMAP@@XZ@4U3@B
  00005	c3		 ret	 0
?GetThisMessageMap@CDlgAnalysisAdjustRatio@@KGPBUAFX_MSGMAP@@XZ ENDP ; CDlgAnalysisAdjustRatio::GetThisMessageMap
_TEXT	ENDS
; Function compile flags: /Ogtp
; File D:\git\src\IBK\IBK_DRFN\ProjSrc\SrcChartEx\ChartAddIn\ChartAnalysisToolAddIn\AnalysisTool\DlgAnalysisAdjustRatio.cpp
; File C:\Program Files (x86)\Microsoft Visual Studio\2019\Community\VC\Tools\MSVC\14.29.30133\atlmfc\include\afxwin2.inl
; File C:\Program Files (x86)\Microsoft Visual Studio\2019\Community\VC\Tools\MSVC\14.29.30133\atlmfc\include\atltypes.h
; File C:\Program Files (x86)\Microsoft Visual Studio\2019\Community\VC\Tools\MSVC\14.29.30133\atlmfc\include\afxwin2.inl
; File D:\git\src\IBK\IBK_DRFN\ProjSrc\SrcChartEx\ChartAddIn\ChartAnalysisToolAddIn\AnalysisTool\DlgAnalysisAdjustRatio.cpp
; File C:\Program Files (x86)\Microsoft Visual Studio\2019\Community\VC\Tools\MSVC\14.29.30133\atlmfc\include\atltypes.h
; File D:\git\src\IBK\IBK_DRFN\ProjSrc\SrcChartEx\ChartAddIn\ChartAnalysisToolAddIn\AnalysisTool\DlgAnalysisAdjustRatio.cpp
; File C:\Program Files (x86)\Microsoft Visual Studio\2019\Community\VC\Tools\MSVC\14.29.30133\atlmfc\include\afxcmn.inl
; File D:\git\src\IBK\IBK_DRFN\ProjSrc\SrcChartEx\ChartAddIn\ChartAnalysisToolAddIn\AnalysisTool\DlgAnalysisAdjustRatio.cpp
; File C:\Program Files (x86)\Microsoft Visual Studio\2019\Community\VC\Tools\MSVC\14.29.30133\atlmfc\include\afxcmn.inl
; File D:\git\src\IBK\IBK_DRFN\ProjSrc\SrcChartEx\ChartAddIn\ChartAnalysisToolAddIn\AnalysisTool\DlgAnalysisAdjustRatio.cpp
; File C:\Program Files (x86)\Microsoft Visual Studio\2019\Community\VC\Tools\MSVC\14.29.30133\atlmfc\include\afxcmn2.inl
; File D:\git\src\IBK\IBK_DRFN\ProjSrc\SrcChartEx\ChartAddIn\ChartAnalysisToolAddIn\AnalysisTool\DlgAnalysisAdjustRatio.cpp
; File D:\git\src\IBK\IBK_DRFN\ProjSrc\SrcChartEx\ChartAddIn\ChartAnalysisToolAddIn\Include_Chart\Dll_Load\IMetaTable.h
; File D:\git\src\IBK\IBK_DRFN\ProjSrc\SrcChartEx\ChartAddIn\ChartAnalysisToolAddIn\AnalysisTool\DlgAnalysisAdjustRatio.cpp
; File D:\git\src\IBK\IBK_DRFN\ProjSrc\SrcChartEx\ChartAddIn\ChartAnalysisToolAddIn\Include_Chart\Dll_Load\IMetaTable.h
; File D:\git\src\IBK\IBK_DRFN\ProjSrc\SrcChartEx\ChartAddIn\ChartAnalysisToolAddIn\AnalysisTool\DlgAnalysisAdjustRatio.cpp
; File C:\Program Files (x86)\Microsoft Visual Studio\2019\Community\VC\Tools\MSVC\14.29.30133\atlmfc\include\afxcmn.inl
; File D:\git\src\IBK\IBK_DRFN\ProjSrc\SrcChartEx\ChartAddIn\ChartAnalysisToolAddIn\AnalysisTool\DlgAnalysisAdjustRatio.cpp
; File C:\Program Files (x86)\Microsoft Visual Studio\2019\Community\VC\Tools\MSVC\14.29.30133\atlmfc\include\afxcmn.inl
; File D:\git\src\IBK\IBK_DRFN\ProjSrc\SrcChartEx\ChartAddIn\ChartAnalysisToolAddIn\AnalysisTool\DlgAnalysisAdjustRatio.cpp
;	COMDAT ?OnInitDialog@CDlgAnalysisAdjustRatio@@MAEHXZ
_TEXT	SEGMENT
_item$1 = -228						; size = 60
_lvc$ = -168						; size = 44
_dValue$1$ = -124					; size = 8
_rect$ = -116						; size = 16
_dAdjustRatioLists$ = -100				; size = 64
_chValue$ = -36						; size = 30
__$ArrayPad$ = -4					; size = 4
?OnInitDialog@CDlgAnalysisAdjustRatio@@MAEHXZ PROC	; CDlgAnalysisAdjustRatio::OnInitDialog, COMDAT
; _this$ = ecx

; 54   : {

  00000	55		 push	 ebp
  00001	8b ec		 mov	 ebp, esp
  00003	81 ec e4 00 00
	00		 sub	 esp, 228		; 000000e4H
  00009	a1 00 00 00 00	 mov	 eax, DWORD PTR ___security_cookie
  0000e	33 c5		 xor	 eax, ebp
  00010	89 45 fc	 mov	 DWORD PTR __$ArrayPad$[ebp], eax
  00013	53		 push	 ebx
  00014	56		 push	 esi
  00015	57		 push	 edi
  00016	8b f9		 mov	 edi, ecx

; 55   : 	CDialog::OnInitDialog();

  00018	e8 00 00 00 00	 call	 ?OnInitDialog@CDialog@@UAEHXZ ; CDialog::OnInitDialog
; File C:\Program Files (x86)\Microsoft Visual Studio\2019\Community\VC\Tools\MSVC\14.29.30133\atlmfc\include\afxwin2.inl

; 86   : 	{ ASSERT(::IsWindow(m_hWnd)); ::GetClientRect(m_hWnd, lpRect); }

  0001d	8d 45 8c	 lea	 eax, DWORD PTR _rect$[ebp]
  00020	0f 57 c0	 xorps	 xmm0, xmm0
  00023	50		 push	 eax
  00024	ff b7 c8 00 00
	00		 push	 DWORD PTR [edi+200]
; File C:\Program Files (x86)\Microsoft Visual Studio\2019\Community\VC\Tools\MSVC\14.29.30133\atlmfc\include\atltypes.h

; 528  : 	left = 0;

  0002a	0f 11 45 8c	 movups	 XMMWORD PTR _rect$[ebp], xmm0
; File C:\Program Files (x86)\Microsoft Visual Studio\2019\Community\VC\Tools\MSVC\14.29.30133\atlmfc\include\afxwin2.inl

; 86   : 	{ ASSERT(::IsWindow(m_hWnd)); ::GetClientRect(m_hWnd, lpRect); }

  0002e	ff 15 00 00 00
	00		 call	 DWORD PTR __imp__GetClientRect@8
; File D:\git\src\IBK\IBK_DRFN\ProjSrc\SrcChartEx\ChartAddIn\ChartAnalysisToolAddIn\AnalysisTool\DlgAnalysisAdjustRatio.cpp

; 54   : {

  00034	8b 1d 00 00 00
	00		 mov	 ebx, DWORD PTR __imp__SendMessageA@16
  0003a	33 f6		 xor	 esi, esi

; 56   : 	int i = 0;
; 57   : 	LV_COLUMN lvc;
; 58   : 	CRect rect;
; 59   : 	m_ctrlList.GetClientRect( &rect );
; 60   : 
; 61   : 	lvc.mask = LVCF_FMT | LVCF_WIDTH | LVCF_TEXT | LVCF_SUBITEM ;

  0003c	c7 85 58 ff ff
	ff 0f 00 00 00	 mov	 DWORD PTR _lvc$[ebp], 15 ; 0000000fH

; 62   : 	lvc.fmt = LVCFMT_LEFT;

  00046	c7 85 5c ff ff
	ff 00 00 00 00	 mov	 DWORD PTR _lvc$[ebp+4], 0
$LL4@OnInitDial:
; File C:\Program Files (x86)\Microsoft Visual Studio\2019\Community\VC\Tools\MSVC\14.29.30133\atlmfc\include\atltypes.h

; 576  : 	return right - left;

  00050	8b 45 94	 mov	 eax, DWORD PTR _rect$[ebp+8]
  00053	2b 45 8c	 sub	 eax, DWORD PTR _rect$[ebp]
; File D:\git\src\IBK\IBK_DRFN\ProjSrc\SrcChartEx\ChartAddIn\ChartAnalysisToolAddIn\AnalysisTool\DlgAnalysisAdjustRatio.cpp

; 67   : 		lvc.cx = rect.Width()/2;

  00056	99		 cdq
  00057	2b c2		 sub	 eax, edx
  00059	c7 85 64 ff ff
	ff 00 00 00 00	 mov	 DWORD PTR _lvc$[ebp+12], OFFSET ??_C@_06FFIACGFC@Column@
  00063	d1 f8		 sar	 eax, 1
  00065	89 85 60 ff ff
	ff		 mov	 DWORD PTR _lvc$[ebp+8], eax
; File C:\Program Files (x86)\Microsoft Visual Studio\2019\Community\VC\Tools\MSVC\14.29.30133\atlmfc\include\afxcmn.inl

; 209  : 	{ ASSERT(::IsWindow(m_hWnd)); return (int) ::SendMessage(m_hWnd, LVM_INSERTCOLUMN, nCol, (LPARAM)pColumn); }

  0006b	8d 85 58 ff ff
	ff		 lea	 eax, DWORD PTR _lvc$[ebp]
  00071	50		 push	 eax
  00072	56		 push	 esi
  00073	68 1b 10 00 00	 push	 4123			; 0000101bH
  00078	ff b7 c8 00 00
	00		 push	 DWORD PTR [edi+200]
; File D:\git\src\IBK\IBK_DRFN\ProjSrc\SrcChartEx\ChartAddIn\ChartAnalysisToolAddIn\AnalysisTool\DlgAnalysisAdjustRatio.cpp

; 68   : 		lvc.iSubItem = 0;

  0007e	c7 85 6c ff ff
	ff 00 00 00 00	 mov	 DWORD PTR _lvc$[ebp+20], 0
; File C:\Program Files (x86)\Microsoft Visual Studio\2019\Community\VC\Tools\MSVC\14.29.30133\atlmfc\include\afxcmn.inl

; 209  : 	{ ASSERT(::IsWindow(m_hWnd)); return (int) ::SendMessage(m_hWnd, LVM_INSERTCOLUMN, nCol, (LPARAM)pColumn); }

  00088	ff d3		 call	 ebx
; File D:\git\src\IBK\IBK_DRFN\ProjSrc\SrcChartEx\ChartAddIn\ChartAnalysisToolAddIn\AnalysisTool\DlgAnalysisAdjustRatio.cpp

; 64   : 	for( i=0;i<2;i++)

  0008a	46		 inc	 esi
  0008b	83 fe 02	 cmp	 esi, 2
  0008e	7c c0		 jl	 SHORT $LL4@OnInitDial
; File C:\Program Files (x86)\Microsoft Visual Studio\2019\Community\VC\Tools\MSVC\14.29.30133\atlmfc\include\afxcmn2.inl

; 117  : 	{ ASSERT(::IsWindow(m_hWnd)); return (DWORD) ::SendMessage(m_hWnd, LVM_SETEXTENDEDLISTVIEWSTYLE, 0, (LPARAM) dwNewStyle); }

  00090	6a 21		 push	 33			; 00000021H
  00092	6a 00		 push	 0
  00094	68 36 10 00 00	 push	 4150			; 00001036H
  00099	ff b7 c8 00 00
	00		 push	 DWORD PTR [edi+200]
  0009f	ff d3		 call	 ebx
; File D:\git\src\IBK\IBK_DRFN\ProjSrc\SrcChartEx\ChartAddIn\ChartAnalysisToolAddIn\AnalysisTool\DlgAnalysisAdjustRatio.cpp

; 74   : 	double dAdjustRatioLists[8] ={0.333333,0.382,0.4,0.5,0.6,0.618,0.666666};

  000a1	0f 28 05 00 00
	00 00		 movaps	 xmm0, XMMWORD PTR __xmm@3fd872b020c49ba63fd55553ef6b5d46

; 75   : 	double dValue = m_dValue2 - (m_dValue2 - m_dValue1);
; 76   : 	char chValue[30];
; 77   : 	for(i=0;i<G_ADJUST_RATIO_LIST_COUNT;i++)

  000a8	33 f6		 xor	 esi, esi
  000aa	f2 0f 10 8f 30
	01 00 00	 movsd	 xmm1, QWORD PTR [edi+304]
  000b2	b9 80 0d 00 00	 mov	 ecx, 3456		; 00000d80H
  000b7	0f 11 45 9c	 movups	 XMMWORD PTR _dAdjustRatioLists$[ebp], xmm0
  000bb	0f 28 05 00 00
	00 00		 movaps	 xmm0, XMMWORD PTR __xmm@3fe00000000000003fd999999999999a
  000c2	0f 57 d2	 xorps	 xmm2, xmm2
  000c5	0f 11 45 ac	 movups	 XMMWORD PTR _dAdjustRatioLists$[ebp+16], xmm0
  000c9	0f 28 05 00 00
	00 00		 movaps	 xmm0, XMMWORD PTR __xmm@3fe3c6a7ef9db22d3fe3333333333333
  000d0	0f 11 45 bc	 movups	 XMMWORD PTR _dAdjustRatioLists$[ebp+32], xmm0
  000d4	0f 28 05 00 00
	00 00		 movaps	 xmm0, XMMWORD PTR __xmm@00000000000000003fe55553ef6b5d46
  000db	0f 11 45 cc	 movups	 XMMWORD PTR _dAdjustRatioLists$[ebp+48], xmm0
  000df	0f 28 c1	 movaps	 xmm0, xmm1
  000e2	f2 0f 5c 87 28
	01 00 00	 subsd	 xmm0, QWORD PTR [edi+296]
  000ea	f2 0f 5c c8	 subsd	 xmm1, xmm0
  000ee	f2 0f 11 4d 84	 movsd	 QWORD PTR _dValue$1$[ebp], xmm1
$LL7@OnInitDial:

; 78   : 	{
; 79   : 		if(i==0)

  000f3	85 f6		 test	 esi, esi
  000f5	75 15		 jne	 SHORT $LN8@OnInitDial

; 80   : 			sprintf(chValue,"%.2lf",m_dValue1);

  000f7	f2 0f 10 87 28
	01 00 00	 movsd	 xmm0, QWORD PTR [edi+296]
  000ff	83 ec 08	 sub	 esp, 8
  00102	f2 0f 11 04 24	 movsd	 QWORD PTR [esp], xmm0
  00107	e9 88 00 00 00	 jmp	 $LN54@OnInitDial
$LN8@OnInitDial:

; 81   : 		else if(i==1)

  0010c	83 fe 01	 cmp	 esi, 1
  0010f	75 12		 jne	 SHORT $LN10@OnInitDial

; 82   : 			sprintf(chValue,"%.2lf",m_dValue2);

  00111	f2 0f 10 87 30
	01 00 00	 movsd	 xmm0, QWORD PTR [edi+304]
  00119	83 ec 08	 sub	 esp, 8
  0011c	f2 0f 11 04 24	 movsd	 QWORD PTR [esp], xmm0
  00121	eb 71		 jmp	 SHORT $LN54@OnInitDial
$LN10@OnInitDial:

; 83   : 		else if(i==2)

  00123	83 fe 02	 cmp	 esi, 2
  00126	75 12		 jne	 SHORT $LN12@OnInitDial

; 84   : 			sprintf(chValue,"%.2lf",m_dValue3);

  00128	f2 0f 10 87 38
	01 00 00	 movsd	 xmm0, QWORD PTR [edi+312]
  00130	83 ec 08	 sub	 esp, 8
  00133	f2 0f 11 04 24	 movsd	 QWORD PTR [esp], xmm0
  00138	eb 5a		 jmp	 SHORT $LN54@OnInitDial
$LN12@OnInitDial:

; 85   : 		else if(i==3)

  0013a	83 fe 03	 cmp	 esi, 3
  0013d	75 44		 jne	 SHORT $LN14@OnInitDial

; 86   : 		{
; 87   : 			if(m_dValue2-m_dValue1 != 0.0)

  0013f	f2 0f 10 87 30
	01 00 00	 movsd	 xmm0, QWORD PTR [edi+304]
  00147	0f 28 c8	 movaps	 xmm1, xmm0
  0014a	f2 0f 5c 8f 28
	01 00 00	 subsd	 xmm1, QWORD PTR [edi+296]
  00152	66 0f 2e ca	 ucomisd xmm1, xmm2
  00156	9f		 lahf
  00157	f6 c4 44	 test	 ah, 68			; 00000044H
  0015a	7b 1e		 jnp	 SHORT $LN16@OnInitDial

; 88   : 				sprintf(chValue,"%.2lf",(m_dValue2-m_dValue3)/(m_dValue2-m_dValue1)*100.0);

  0015c	f2 0f 5c 87 38
	01 00 00	 subsd	 xmm0, QWORD PTR [edi+312]
  00164	83 ec 08	 sub	 esp, 8
  00167	f2 0f 5e c1	 divsd	 xmm0, xmm1
  0016b	f2 0f 59 05 00
	00 00 00	 mulsd	 xmm0, QWORD PTR __real@4059000000000000
  00173	f2 0f 11 04 24	 movsd	 QWORD PTR [esp], xmm0
  00178	eb 1a		 jmp	 SHORT $LN54@OnInitDial
$LN16@OnInitDial:

; 89   : 			else
; 90   : 				strcpy(chValue,"0.0");

  0017a	c7 45 dc 30 2e
	30 00		 mov	 DWORD PTR _chValue$[ebp], 3157552 ; 00302e30H

; 91   : 		}

  00181	eb 27		 jmp	 SHORT $LN15@OnInitDial
$LN14@OnInitDial:

; 92   : 		else
; 93   : 		{
; 94   : 			sprintf(chValue,"%.2lf",dValue*dAdjustRatioLists[i-4]);			

  00183	f2 0f 59 8c f5
	7c ff ff ff	 mulsd	 xmm1, QWORD PTR _dAdjustRatioLists$[ebp+esi*8-32]
  0018c	83 ec 08	 sub	 esp, 8
  0018f	f2 0f 11 0c 24	 movsd	 QWORD PTR [esp], xmm1
$LN54@OnInitDial:

; 105  : 	item.iItem = nPos;

  00194	8d 45 dc	 lea	 eax, DWORD PTR _chValue$[ebp]
  00197	68 00 00 00 00	 push	 OFFSET ??_C@_05EPOFJFPD@?$CF?42lf@
  0019c	50		 push	 eax
  0019d	e8 00 00 00 00	 call	 _sprintf
  001a2	83 c4 10	 add	 esp, 16			; 00000010H
  001a5	b9 80 0d 00 00	 mov	 ecx, 3456		; 00000d80H
$LN15@OnInitDial:
; File D:\git\src\IBK\IBK_DRFN\ProjSrc\SrcChartEx\ChartAddIn\ChartAnalysisToolAddIn\Include_Chart\Dll_Load\IMetaTable.h

; 937  : 	DECLARE_FUNCTION1(	GetCurrentLanguageID,			E_LANGUAGEID, ENGLISH, HWND);

  001aa	a1 04 00 00 00	 mov	 eax, DWORD PTR ?g_iMetaTable@@3VIMetaTable@@A+4
; File D:\git\src\IBK\IBK_DRFN\ProjSrc\SrcChartEx\ChartAddIn\ChartAnalysisToolAddIn\AnalysisTool\DlgAnalysisAdjustRatio.cpp

; 109  : 	IMetaTable::E_LANGUAGEID eLanguageID = g_iMetaTable.GetCurrentLanguageID( m_hOcxWnd);

  001af	8b 9f 40 01 00
	00		 mov	 ebx, DWORD PTR [edi+320]
  001b5	89 b5 20 ff ff
	ff		 mov	 DWORD PTR _item$1[ebp+4], esi
  001bb	c7 85 1c ff ff
	ff 01 00 00 00	 mov	 DWORD PTR _item$1[ebp], 1
  001c5	c7 85 24 ff ff
	ff 00 00 00 00	 mov	 DWORD PTR _item$1[ebp+8], 0
; File D:\git\src\IBK\IBK_DRFN\ProjSrc\SrcChartEx\ChartAddIn\ChartAnalysisToolAddIn\Include_Chart\Dll_Load\IMetaTable.h

; 937  : 	DECLARE_FUNCTION1(	GetCurrentLanguageID,			E_LANGUAGEID, ENGLISH, HWND);

  001cf	85 c0		 test	 eax, eax
  001d1	74 7b		 je	 SHORT $LN33@OnInitDial
  001d3	66 3b 0d 8c 00
	00 00		 cmp	 cx, WORD PTR ?g_iMetaTable@@3VIMetaTable@@A+140
  001da	74 29		 je	 SHORT $LN53@OnInitDial
  001dc	68 00 00 00 00	 push	 OFFSET ??_C@_0BF@EGELCGDD@GetCurrentLanguageID@
  001e1	50		 push	 eax
  001e2	c7 05 88 00 00
	00 00 00 00 00	 mov	 DWORD PTR ?g_iMetaTable@@3VIMetaTable@@A+136, 0
  001ec	ff 15 00 00 00
	00		 call	 DWORD PTR __imp__GetProcAddress@8
  001f2	b9 80 0d 00 00	 mov	 ecx, 3456		; 00000d80H
  001f7	a3 88 00 00 00	 mov	 DWORD PTR ?g_iMetaTable@@3VIMetaTable@@A+136, eax
  001fc	66 89 0d 8c 00
	00 00		 mov	 WORD PTR ?g_iMetaTable@@3VIMetaTable@@A+140, cx
  00203	eb 05		 jmp	 SHORT $LN38@OnInitDial
$LN53@OnInitDial:
  00205	a1 88 00 00 00	 mov	 eax, DWORD PTR ?g_iMetaTable@@3VIMetaTable@@A+136
$LN38@OnInitDial:
  0020a	85 c0		 test	 eax, eax
  0020c	74 40		 je	 SHORT $LN33@OnInitDial
  0020e	53		 push	 ebx
  0020f	ff d0		 call	 eax
  00211	83 c4 04	 add	 esp, 4
; File D:\git\src\IBK\IBK_DRFN\ProjSrc\SrcChartEx\ChartAddIn\ChartAnalysisToolAddIn\AnalysisTool\DlgAnalysisAdjustRatio.cpp

; 110  : 	switch(eLanguageID)

  00214	83 e8 00	 sub	 eax, 0
  00217	74 35		 je	 SHORT $LN33@OnInitDial
  00219	83 e8 01	 sub	 eax, 1
  0021c	75 6c		 jne	 SHORT $LN34@OnInitDial

; 111  : 	{
; 112  : 	case IMetaTable::KOREAN:
; 113  : 		{
; 114  : 			item.pszText = G_ADJUST_RATIO_LIST_NAME_K[nPos];

  0021e	8b 04 b5 00 00
	00 00		 mov	 eax, DWORD PTR ?G_ADJUST_RATIO_LIST_NAME_K@@3PAPADA[esi*4]
  00225	89 85 30 ff ff
	ff		 mov	 DWORD PTR _item$1[ebp+20], eax
; File C:\Program Files (x86)\Microsoft Visual Studio\2019\Community\VC\Tools\MSVC\14.29.30133\atlmfc\include\afxcmn.inl

; 163  : 	{ ASSERT(::IsWindow(m_hWnd)); return (int) ::SendMessage(m_hWnd, LVM_INSERTITEM, 0, (LPARAM)pItem); }

  0022b	8d 85 1c ff ff
	ff		 lea	 eax, DWORD PTR _item$1[ebp]
  00231	50		 push	 eax
  00232	6a 00		 push	 0
  00234	68 07 10 00 00	 push	 4103			; 00001007H
  00239	ff b7 c8 00 00
	00		 push	 DWORD PTR [edi+200]
  0023f	ff 15 00 00 00
	00		 call	 DWORD PTR __imp__SendMessageA@16
; File D:\git\src\IBK\IBK_DRFN\ProjSrc\SrcChartEx\ChartAddIn\ChartAnalysisToolAddIn\AnalysisTool\DlgAnalysisAdjustRatio.cpp

; 116  : 			m_ctrlList.SetItemText(nPos,0,G_ADJUST_RATIO_LIST_NAME_K[nPos]);	

  00245	ff 34 b5 00 00
	00 00		 push	 DWORD PTR ?G_ADJUST_RATIO_LIST_NAME_K@@3PAPADA[esi*4]

; 117  : 		}
; 118  : 		break;

  0024c	eb 2e		 jmp	 SHORT $LN55@OnInitDial
$LN33@OnInitDial:

; 119  : 	case IMetaTable::ENGLISH:
; 120  : 		{
; 121  : 			item.pszText = G_ADJUST_RATIO_LIST_NAME_E[nPos];

  0024e	8b 04 b5 00 00
	00 00		 mov	 eax, DWORD PTR ?G_ADJUST_RATIO_LIST_NAME_E@@3PAPADA[esi*4]
  00255	89 85 30 ff ff
	ff		 mov	 DWORD PTR _item$1[ebp+20], eax
; File C:\Program Files (x86)\Microsoft Visual Studio\2019\Community\VC\Tools\MSVC\14.29.30133\atlmfc\include\afxcmn.inl

; 163  : 	{ ASSERT(::IsWindow(m_hWnd)); return (int) ::SendMessage(m_hWnd, LVM_INSERTITEM, 0, (LPARAM)pItem); }

  0025b	8d 85 1c ff ff
	ff		 lea	 eax, DWORD PTR _item$1[ebp]
  00261	50		 push	 eax
  00262	6a 00		 push	 0
  00264	68 07 10 00 00	 push	 4103			; 00001007H
  00269	ff b7 c8 00 00
	00		 push	 DWORD PTR [edi+200]
  0026f	ff 15 00 00 00
	00		 call	 DWORD PTR __imp__SendMessageA@16
; File D:\git\src\IBK\IBK_DRFN\ProjSrc\SrcChartEx\ChartAddIn\ChartAnalysisToolAddIn\AnalysisTool\DlgAnalysisAdjustRatio.cpp

; 123  : 			m_ctrlList.SetItemText(nPos,0,G_ADJUST_RATIO_LIST_NAME_E[nPos]);

  00275	ff 34 b5 00 00
	00 00		 push	 DWORD PTR ?G_ADJUST_RATIO_LIST_NAME_E@@3PAPADA[esi*4]
$LN55@OnInitDial:

; 124  : 		}
; 125  : 		break;
; 126  : 	default:
; 127  : 		ASSERT(FALSE);
; 128  : 	};
; 129  : 
; 130  : 	m_ctrlList.SetItemText(nPos,1,chData);	

  0027c	6a 00		 push	 0
  0027e	56		 push	 esi
  0027f	8d 8f a8 00 00
	00		 lea	 ecx, DWORD PTR [edi+168]
  00285	e8 00 00 00 00	 call	 ?SetItemText@CListCtrl@@QAEHHHPBD@Z ; CListCtrl::SetItemText
$LN34@OnInitDial:
  0028a	8d 45 dc	 lea	 eax, DWORD PTR _chValue$[ebp]
  0028d	50		 push	 eax
  0028e	6a 01		 push	 1
  00290	56		 push	 esi
  00291	8d 8f a8 00 00
	00		 lea	 ecx, DWORD PTR [edi+168]
  00297	e8 00 00 00 00	 call	 ?SetItemText@CListCtrl@@QAEHHHPBD@Z ; CListCtrl::SetItemText

; 75   : 	double dValue = m_dValue2 - (m_dValue2 - m_dValue1);
; 76   : 	char chValue[30];
; 77   : 	for(i=0;i<G_ADJUST_RATIO_LIST_COUNT;i++)

  0029c	f2 0f 10 4d 84	 movsd	 xmm1, QWORD PTR _dValue$1$[ebp]
  002a1	46		 inc	 esi
  002a2	0f 57 d2	 xorps	 xmm2, xmm2
  002a5	b9 80 0d 00 00	 mov	 ecx, 3456		; 00000d80H
  002aa	83 fe 0b	 cmp	 esi, 11			; 0000000bH
  002ad	0f 8c 40 fe ff
	ff		 jl	 $LL7@OnInitDial

; 95   : 		}
; 96   : 		SetListItem(i,chValue);
; 97   : 	}
; 98   : 	return TRUE;  // return TRUE unless you set the focus to a control
; 99   : 	              // EXCEPTION: OCX Property Pages should return FALSE
; 100  : }

  002b3	8b 4d fc	 mov	 ecx, DWORD PTR __$ArrayPad$[ebp]
  002b6	b8 01 00 00 00	 mov	 eax, 1
  002bb	5f		 pop	 edi
  002bc	5e		 pop	 esi
  002bd	33 cd		 xor	 ecx, ebp
  002bf	5b		 pop	 ebx
  002c0	e8 00 00 00 00	 call	 @__security_check_cookie@4
  002c5	8b e5		 mov	 esp, ebp
  002c7	5d		 pop	 ebp
  002c8	c3		 ret	 0
?OnInitDialog@CDlgAnalysisAdjustRatio@@MAEHXZ ENDP	; CDlgAnalysisAdjustRatio::OnInitDialog
_TEXT	ENDS
; Function compile flags: /Ogtp
; File D:\git\src\IBK\IBK_DRFN\ProjSrc\SrcChartEx\ChartAddIn\ChartAnalysisToolAddIn\AnalysisTool\DlgAnalysisAdjustRatio.cpp
;	COMDAT ?DoDataExchange@CDlgAnalysisAdjustRatio@@MAEXPAVCDataExchange@@@Z
_TEXT	SEGMENT
_pDX$ = 8						; size = 4
?DoDataExchange@CDlgAnalysisAdjustRatio@@MAEXPAVCDataExchange@@@Z PROC ; CDlgAnalysisAdjustRatio::DoDataExchange, COMDAT
; _this$ = ecx

; 37   : {

  00000	55		 push	 ebp
  00001	8b ec		 mov	 ebp, esp

; 38   : 	CDialog::DoDataExchange(pDX);
; 39   : 	//{{AFX_DATA_MAP(CDlgAnalysisAdjustRatio)
; 40   : 	DDX_Control(pDX, IDC_LIST_ADJUST_RATIO, m_ctrlList);

  00003	8d 81 a8 00 00
	00		 lea	 eax, DWORD PTR [ecx+168]
  00009	50		 push	 eax
  0000a	68 b0 0f 00 00	 push	 4016			; 00000fb0H
  0000f	ff 75 08	 push	 DWORD PTR _pDX$[ebp]
  00012	e8 00 00 00 00	 call	 ?DDX_Control@@YGXPAVCDataExchange@@HAAVCWnd@@@Z ; DDX_Control

; 41   : 	//}}AFX_DATA_MAP
; 42   : }

  00017	5d		 pop	 ebp
  00018	c2 04 00	 ret	 4
?DoDataExchange@CDlgAnalysisAdjustRatio@@MAEXPAVCDataExchange@@@Z ENDP ; CDlgAnalysisAdjustRatio::DoDataExchange
_TEXT	ENDS
; Function compile flags: /Ogtp
; File D:\git\src\IBK\IBK_DRFN\ProjSrc\SrcChartEx\ChartAddIn\ChartAnalysisToolAddIn\AnalysisTool\DlgAnalysisAdjustRatio.cpp
;	COMDAT ?SetValue@CDlgAnalysisAdjustRatio@@QAEXHN@Z
_TEXT	SEGMENT
_nIndex$ = 8						; size = 4
_dValue$ = 12						; size = 8
?SetValue@CDlgAnalysisAdjustRatio@@QAEXHN@Z PROC	; CDlgAnalysisAdjustRatio::SetValue, COMDAT
; _this$ = ecx

; 134  : {

  00000	55		 push	 ebp
  00001	8b ec		 mov	 ebp, esp

; 135  : 	if(nIndex == 0)

  00003	8b 45 08	 mov	 eax, DWORD PTR _nIndex$[ebp]
  00006	85 c0		 test	 eax, eax
  00008	75 11		 jne	 SHORT $LN2@SetValue

; 136  : 	{
; 137  : 		m_dValue1 = dValue;

  0000a	f2 0f 10 45 0c	 movsd	 xmm0, QWORD PTR _dValue$[ebp]
  0000f	f2 0f 11 81 28
	01 00 00	 movsd	 QWORD PTR [ecx+296], xmm0

; 146  : 	}
; 147  : }

  00017	5d		 pop	 ebp
  00018	c2 0c 00	 ret	 12			; 0000000cH
$LN2@SetValue:

; 138  : 	}
; 139  : 	else if(nIndex == 1)

  0001b	83 f8 01	 cmp	 eax, 1
  0001e	75 11		 jne	 SHORT $LN4@SetValue

; 140  : 	{
; 141  : 		m_dValue2 = dValue;

  00020	f2 0f 10 45 0c	 movsd	 xmm0, QWORD PTR _dValue$[ebp]
  00025	f2 0f 11 81 30
	01 00 00	 movsd	 QWORD PTR [ecx+304], xmm0

; 146  : 	}
; 147  : }

  0002d	5d		 pop	 ebp
  0002e	c2 0c 00	 ret	 12			; 0000000cH
$LN4@SetValue:

; 142  : 	}
; 143  : 	else if(nIndex == 2)

  00031	83 f8 02	 cmp	 eax, 2
  00034	75 0d		 jne	 SHORT $LN6@SetValue

; 144  : 	{
; 145  : 		m_dValue3 = dValue;

  00036	f2 0f 10 45 0c	 movsd	 xmm0, QWORD PTR _dValue$[ebp]
  0003b	f2 0f 11 81 38
	01 00 00	 movsd	 QWORD PTR [ecx+312], xmm0
$LN6@SetValue:

; 146  : 	}
; 147  : }

  00043	5d		 pop	 ebp
  00044	c2 0c 00	 ret	 12			; 0000000cH
?SetValue@CDlgAnalysisAdjustRatio@@QAEXHN@Z ENDP	; CDlgAnalysisAdjustRatio::SetValue
_TEXT	ENDS
; Function compile flags: /Ogtp
; File D:\git\src\IBK\IBK_DRFN\ProjSrc\SrcChartEx\ChartAddIn\ChartAnalysisToolAddIn\AnalysisTool\DlgAnalysisAdjustRatio.cpp
; File D:\git\src\IBK\IBK_DRFN\ProjSrc\SrcChartEx\ChartAddIn\ChartAnalysisToolAddIn\Include_Chart\Dll_Load\IMetaTable.h
; File D:\git\src\IBK\IBK_DRFN\ProjSrc\SrcChartEx\ChartAddIn\ChartAnalysisToolAddIn\AnalysisTool\DlgAnalysisAdjustRatio.cpp
; File D:\git\src\IBK\IBK_DRFN\ProjSrc\SrcChartEx\ChartAddIn\ChartAnalysisToolAddIn\Include_Chart\Dll_Load\IMetaTable.h
; File D:\git\src\IBK\IBK_DRFN\ProjSrc\SrcChartEx\ChartAddIn\ChartAnalysisToolAddIn\AnalysisTool\DlgAnalysisAdjustRatio.cpp
; File C:\Program Files (x86)\Microsoft Visual Studio\2019\Community\VC\Tools\MSVC\14.29.30133\atlmfc\include\afxcmn.inl
; File D:\git\src\IBK\IBK_DRFN\ProjSrc\SrcChartEx\ChartAddIn\ChartAnalysisToolAddIn\AnalysisTool\DlgAnalysisAdjustRatio.cpp
; File C:\Program Files (x86)\Microsoft Visual Studio\2019\Community\VC\Tools\MSVC\14.29.30133\atlmfc\include\afxcmn.inl
; File D:\git\src\IBK\IBK_DRFN\ProjSrc\SrcChartEx\ChartAddIn\ChartAnalysisToolAddIn\AnalysisTool\DlgAnalysisAdjustRatio.cpp
;	COMDAT ?SetListItem@CDlgAnalysisAdjustRatio@@QAEXHPAD@Z
_TEXT	SEGMENT
_item$ = -60						; size = 60
_nPos$ = 8						; size = 4
_chData$ = 12						; size = 4
?SetListItem@CDlgAnalysisAdjustRatio@@QAEXHPAD@Z PROC	; CDlgAnalysisAdjustRatio::SetListItem, COMDAT
; _this$ = ecx

; 103  : {

  00000	55		 push	 ebp
  00001	8b ec		 mov	 ebp, esp
  00003	83 ec 3c	 sub	 esp, 60			; 0000003cH
; File D:\git\src\IBK\IBK_DRFN\ProjSrc\SrcChartEx\ChartAddIn\ChartAnalysisToolAddIn\Include_Chart\Dll_Load\IMetaTable.h

; 937  : 	DECLARE_FUNCTION1(	GetCurrentLanguageID,			E_LANGUAGEID, ENGLISH, HWND);

  00006	a1 04 00 00 00	 mov	 eax, DWORD PTR ?g_iMetaTable@@3VIMetaTable@@A+4
; File D:\git\src\IBK\IBK_DRFN\ProjSrc\SrcChartEx\ChartAddIn\ChartAnalysisToolAddIn\AnalysisTool\DlgAnalysisAdjustRatio.cpp

; 106  : 	item.mask = LVIF_TEXT; 

  0000b	c7 45 c4 01 00
	00 00		 mov	 DWORD PTR _item$[ebp], 1

; 107  : 	item.iSubItem = 0;

  00012	c7 45 cc 00 00
	00 00		 mov	 DWORD PTR _item$[ebp+8], 0
  00019	53		 push	 ebx
  0001a	56		 push	 esi
  0001b	8b 75 08	 mov	 esi, DWORD PTR _nPos$[ebp]
  0001e	89 75 c8	 mov	 DWORD PTR _item$[ebp+4], esi
  00021	57		 push	 edi
  00022	8b f9		 mov	 edi, ecx

; 108  : 
; 109  : 	IMetaTable::E_LANGUAGEID eLanguageID = g_iMetaTable.GetCurrentLanguageID( m_hOcxWnd);

  00024	8b 9f 40 01 00
	00		 mov	 ebx, DWORD PTR [edi+320]
; File D:\git\src\IBK\IBK_DRFN\ProjSrc\SrcChartEx\ChartAddIn\ChartAnalysisToolAddIn\Include_Chart\Dll_Load\IMetaTable.h

; 937  : 	DECLARE_FUNCTION1(	GetCurrentLanguageID,			E_LANGUAGEID, ENGLISH, HWND);

  0002a	85 c0		 test	 eax, eax
  0002c	74 7a		 je	 SHORT $LN5@SetListIte
  0002e	b9 80 0d 00 00	 mov	 ecx, 3456		; 00000d80H
  00033	66 3b 0d 8c 00
	00 00		 cmp	 cx, WORD PTR ?g_iMetaTable@@3VIMetaTable@@A+140
  0003a	74 29		 je	 SHORT $LN17@SetListIte
  0003c	68 00 00 00 00	 push	 OFFSET ??_C@_0BF@EGELCGDD@GetCurrentLanguageID@
  00041	50		 push	 eax
  00042	c7 05 88 00 00
	00 00 00 00 00	 mov	 DWORD PTR ?g_iMetaTable@@3VIMetaTable@@A+136, 0
  0004c	ff 15 00 00 00
	00		 call	 DWORD PTR __imp__GetProcAddress@8
  00052	b9 80 0d 00 00	 mov	 ecx, 3456		; 00000d80H
  00057	a3 88 00 00 00	 mov	 DWORD PTR ?g_iMetaTable@@3VIMetaTable@@A+136, eax
  0005c	66 89 0d 8c 00
	00 00		 mov	 WORD PTR ?g_iMetaTable@@3VIMetaTable@@A+140, cx
  00063	eb 05		 jmp	 SHORT $LN10@SetListIte
$LN17@SetListIte:
  00065	a1 88 00 00 00	 mov	 eax, DWORD PTR ?g_iMetaTable@@3VIMetaTable@@A+136
$LN10@SetListIte:
  0006a	85 c0		 test	 eax, eax
  0006c	74 3a		 je	 SHORT $LN5@SetListIte
  0006e	53		 push	 ebx
  0006f	ff d0		 call	 eax
  00071	83 c4 04	 add	 esp, 4
; File D:\git\src\IBK\IBK_DRFN\ProjSrc\SrcChartEx\ChartAddIn\ChartAnalysisToolAddIn\AnalysisTool\DlgAnalysisAdjustRatio.cpp

; 110  : 	switch(eLanguageID)

  00074	83 e8 00	 sub	 eax, 0
  00077	74 2f		 je	 SHORT $LN5@SetListIte
  00079	83 e8 01	 sub	 eax, 1
  0007c	75 60		 jne	 SHORT $LN6@SetListIte

; 111  : 	{
; 112  : 	case IMetaTable::KOREAN:
; 113  : 		{
; 114  : 			item.pszText = G_ADJUST_RATIO_LIST_NAME_K[nPos];

  0007e	8b 04 b5 00 00
	00 00		 mov	 eax, DWORD PTR ?G_ADJUST_RATIO_LIST_NAME_K@@3PAPADA[esi*4]
  00085	89 45 d8	 mov	 DWORD PTR _item$[ebp+20], eax
; File C:\Program Files (x86)\Microsoft Visual Studio\2019\Community\VC\Tools\MSVC\14.29.30133\atlmfc\include\afxcmn.inl

; 163  : 	{ ASSERT(::IsWindow(m_hWnd)); return (int) ::SendMessage(m_hWnd, LVM_INSERTITEM, 0, (LPARAM)pItem); }

  00088	8d 45 c4	 lea	 eax, DWORD PTR _item$[ebp]
  0008b	50		 push	 eax
  0008c	6a 00		 push	 0
  0008e	68 07 10 00 00	 push	 4103			; 00001007H
  00093	ff b7 c8 00 00
	00		 push	 DWORD PTR [edi+200]
  00099	ff 15 00 00 00
	00		 call	 DWORD PTR __imp__SendMessageA@16
; File D:\git\src\IBK\IBK_DRFN\ProjSrc\SrcChartEx\ChartAddIn\ChartAnalysisToolAddIn\AnalysisTool\DlgAnalysisAdjustRatio.cpp

; 116  : 			m_ctrlList.SetItemText(nPos,0,G_ADJUST_RATIO_LIST_NAME_K[nPos]);	

  0009f	ff 34 b5 00 00
	00 00		 push	 DWORD PTR ?G_ADJUST_RATIO_LIST_NAME_K@@3PAPADA[esi*4]

; 117  : 		}
; 118  : 		break;

  000a6	eb 28		 jmp	 SHORT $LN18@SetListIte
$LN5@SetListIte:

; 119  : 	case IMetaTable::ENGLISH:
; 120  : 		{
; 121  : 			item.pszText = G_ADJUST_RATIO_LIST_NAME_E[nPos];

  000a8	8b 04 b5 00 00
	00 00		 mov	 eax, DWORD PTR ?G_ADJUST_RATIO_LIST_NAME_E@@3PAPADA[esi*4]
  000af	89 45 d8	 mov	 DWORD PTR _item$[ebp+20], eax
; File C:\Program Files (x86)\Microsoft Visual Studio\2019\Community\VC\Tools\MSVC\14.29.30133\atlmfc\include\afxcmn.inl

; 163  : 	{ ASSERT(::IsWindow(m_hWnd)); return (int) ::SendMessage(m_hWnd, LVM_INSERTITEM, 0, (LPARAM)pItem); }

  000b2	8d 45 c4	 lea	 eax, DWORD PTR _item$[ebp]
  000b5	50		 push	 eax
  000b6	6a 00		 push	 0
  000b8	68 07 10 00 00	 push	 4103			; 00001007H
  000bd	ff b7 c8 00 00
	00		 push	 DWORD PTR [edi+200]
  000c3	ff 15 00 00 00
	00		 call	 DWORD PTR __imp__SendMessageA@16
; File D:\git\src\IBK\IBK_DRFN\ProjSrc\SrcChartEx\ChartAddIn\ChartAnalysisToolAddIn\AnalysisTool\DlgAnalysisAdjustRatio.cpp

; 123  : 			m_ctrlList.SetItemText(nPos,0,G_ADJUST_RATIO_LIST_NAME_E[nPos]);

  000c9	ff 34 b5 00 00
	00 00		 push	 DWORD PTR ?G_ADJUST_RATIO_LIST_NAME_E@@3PAPADA[esi*4]
$LN18@SetListIte:

; 124  : 		}
; 125  : 		break;
; 126  : 	default:
; 127  : 		ASSERT(FALSE);
; 128  : 	};
; 129  : 
; 130  : 	m_ctrlList.SetItemText(nPos,1,chData);	

  000d0	6a 00		 push	 0
  000d2	56		 push	 esi
  000d3	8d 8f a8 00 00
	00		 lea	 ecx, DWORD PTR [edi+168]
  000d9	e8 00 00 00 00	 call	 ?SetItemText@CListCtrl@@QAEHHHPBD@Z ; CListCtrl::SetItemText
$LN6@SetListIte:
  000de	ff 75 0c	 push	 DWORD PTR _chData$[ebp]
  000e1	8d 8f a8 00 00
	00		 lea	 ecx, DWORD PTR [edi+168]
  000e7	6a 01		 push	 1
  000e9	56		 push	 esi
  000ea	e8 00 00 00 00	 call	 ?SetItemText@CListCtrl@@QAEHHHPBD@Z ; CListCtrl::SetItemText
  000ef	5f		 pop	 edi
  000f0	5e		 pop	 esi
  000f1	5b		 pop	 ebx

; 131  : }

  000f2	8b e5		 mov	 esp, ebp
  000f4	5d		 pop	 ebp
  000f5	c2 08 00	 ret	 8
?SetListItem@CDlgAnalysisAdjustRatio@@QAEXHPAD@Z ENDP	; CDlgAnalysisAdjustRatio::SetListItem
_TEXT	ENDS
; Function compile flags: /Ogtp
; File D:\git\src\IBK\IBK_DRFN\ProjSrc\SrcChartEx\ChartAddIn\ChartAnalysisToolAddIn\AnalysisTool\DlgAnalysisAdjustRatio.cpp
; File C:\Program Files (x86)\Microsoft Visual Studio\2019\Community\VC\Tools\MSVC\14.29.30133\atlmfc\include\afxcmn.inl
; File D:\git\src\IBK\IBK_DRFN\ProjSrc\SrcChartEx\ChartAddIn\ChartAnalysisToolAddIn\AnalysisTool\DlgAnalysisAdjustRatio.cpp
; File C:\Program Files (x86)\Microsoft Visual Studio\2019\Community\VC\Tools\MSVC\14.29.30133\atlmfc\include\afxcmn.inl
; File D:\git\src\IBK\IBK_DRFN\ProjSrc\SrcChartEx\ChartAddIn\ChartAnalysisToolAddIn\AnalysisTool\DlgAnalysisAdjustRatio.cpp
; File C:\Program Files (x86)\Microsoft Visual Studio\2019\Community\VC\Tools\MSVC\14.29.30133\atlmfc\include\afxcmn.inl
; File D:\git\src\IBK\IBK_DRFN\ProjSrc\SrcChartEx\ChartAddIn\ChartAnalysisToolAddIn\AnalysisTool\DlgAnalysisAdjustRatio.cpp
;	COMDAT ??0CDlgAnalysisAdjustRatio@@QAE@PAUHWND__@@PAVCWnd@@@Z
_TEXT	SEGMENT
_this$ = -16						; size = 4
__$EHRec$ = -12						; size = 12
_hOcxWnd$ = 8						; size = 4
_this$ = 12						; size = 4
_pParent$ = 12						; size = 4
??0CDlgAnalysisAdjustRatio@@QAE@PAUHWND__@@PAVCWnd@@@Z PROC ; CDlgAnalysisAdjustRatio::CDlgAnalysisAdjustRatio, COMDAT
; _this$ = ecx

; 25   : {

  00000	55		 push	 ebp
  00001	8b ec		 mov	 ebp, esp
  00003	6a ff		 push	 -1
  00005	68 00 00 00 00	 push	 __ehhandler$??0CDlgAnalysisAdjustRatio@@QAE@PAUHWND__@@PAVCWnd@@@Z
  0000a	64 a1 00 00 00
	00		 mov	 eax, DWORD PTR fs:0
  00010	50		 push	 eax
  00011	51		 push	 ecx
  00012	56		 push	 esi
  00013	57		 push	 edi
  00014	a1 00 00 00 00	 mov	 eax, DWORD PTR ___security_cookie
  00019	33 c5		 xor	 eax, ebp
  0001b	50		 push	 eax
  0001c	8d 45 f4	 lea	 eax, DWORD PTR __$EHRec$[ebp]
  0001f	64 a3 00 00 00
	00		 mov	 DWORD PTR fs:0, eax
  00025	8b f9		 mov	 edi, ecx
  00027	89 7d f0	 mov	 DWORD PTR _this$[ebp], edi

; 24   : 	: CDialog(CDlgAnalysisAdjustRatio::IDD, pParent)

  0002a	ff 75 0c	 push	 DWORD PTR _pParent$[ebp]
  0002d	68 30 23 00 00	 push	 9008			; 00002330H
  00032	e8 00 00 00 00	 call	 ??0CDialog@@QAE@IPAVCWnd@@@Z ; CDialog::CDialog

; 25   : {

  00037	8d b7 a8 00 00
	00		 lea	 esi, DWORD PTR [edi+168]
  0003d	c7 45 fc 00 00
	00 00		 mov	 DWORD PTR __$EHRec$[ebp+8], 0
; File C:\Program Files (x86)\Microsoft Visual Studio\2019\Community\VC\Tools\MSVC\14.29.30133\atlmfc\include\afxcmn.inl

; 141  : 	{ }

  00044	8b ce		 mov	 ecx, esi
; File D:\git\src\IBK\IBK_DRFN\ProjSrc\SrcChartEx\ChartAddIn\ChartAnalysisToolAddIn\AnalysisTool\DlgAnalysisAdjustRatio.cpp

; 25   : {

  00046	c7 07 00 00 00
	00		 mov	 DWORD PTR [edi], OFFSET ??_7CDlgAnalysisAdjustRatio@@6B@
  0004c	89 75 0c	 mov	 DWORD PTR _this$[ebp], esi
; File C:\Program Files (x86)\Microsoft Visual Studio\2019\Community\VC\Tools\MSVC\14.29.30133\atlmfc\include\afxcmn.inl

; 141  : 	{ }

  0004f	e8 00 00 00 00	 call	 ??0CWnd@@QAE@XZ		; CWnd::CWnd
; File D:\git\src\IBK\IBK_DRFN\ProjSrc\SrcChartEx\ChartAddIn\ChartAnalysisToolAddIn\AnalysisTool\DlgAnalysisAdjustRatio.cpp

; 29   : 	SetOcxHwnd(hOcxWnd);

  00054	8b 45 08	 mov	 eax, DWORD PTR _hOcxWnd$[ebp]
  00057	0f 57 c0	 xorps	 xmm0, xmm0
; File C:\Program Files (x86)\Microsoft Visual Studio\2019\Community\VC\Tools\MSVC\14.29.30133\atlmfc\include\afxcmn.inl

; 141  : 	{ }

  0005a	c7 06 00 00 00
	00		 mov	 DWORD PTR [esi], OFFSET ??_7CListCtrl@@6B@
; File D:\git\src\IBK\IBK_DRFN\ProjSrc\SrcChartEx\ChartAddIn\ChartAnalysisToolAddIn\AnalysisTool\DlgAnalysisAdjustRatio.cpp

; 29   : 	SetOcxHwnd(hOcxWnd);

  00060	89 87 40 01 00
	00		 mov	 DWORD PTR [edi+320], eax

; 30   : 	m_dValue1 = 0.0;
; 31   : 	m_dValue2 = 0.0;
; 32   : 	m_dValue3 = 0.0;
; 33   : }

  00066	8b c7		 mov	 eax, edi
  00068	0f 11 87 28 01
	00 00		 movups	 XMMWORD PTR [edi+296], xmm0
  0006f	f2 0f 11 87 38
	01 00 00	 movsd	 QWORD PTR [edi+312], xmm0
  00077	8b 4d f4	 mov	 ecx, DWORD PTR __$EHRec$[ebp]
  0007a	64 89 0d 00 00
	00 00		 mov	 DWORD PTR fs:0, ecx
  00081	59		 pop	 ecx
  00082	5f		 pop	 edi
  00083	5e		 pop	 esi
  00084	8b e5		 mov	 esp, ebp
  00086	5d		 pop	 ebp
  00087	c2 08 00	 ret	 8
_TEXT	ENDS
;	COMDAT text$x
text$x	SEGMENT
__unwindfunclet$??0CDlgAnalysisAdjustRatio@@QAE@PAUHWND__@@PAVCWnd@@@Z$0:
  00000	8b 4d f0	 mov	 ecx, DWORD PTR _this$[ebp]
  00003	e9 00 00 00 00	 jmp	 ??1CDialog@@UAE@XZ	; CDialog::~CDialog
  00008	cc		 int	 3
  00009	cc		 int	 3
  0000a	cc		 int	 3
  0000b	cc		 int	 3
  0000c	cc		 int	 3
__ehhandler$??0CDlgAnalysisAdjustRatio@@QAE@PAUHWND__@@PAVCWnd@@@Z:
  0000d	90		 npad	 1
  0000e	90		 npad	 1
  0000f	8b 54 24 08	 mov	 edx, DWORD PTR [esp+8]
  00013	8d 42 0c	 lea	 eax, DWORD PTR [edx+12]
  00016	8b 4a f0	 mov	 ecx, DWORD PTR [edx-16]
  00019	33 c8		 xor	 ecx, eax
  0001b	e8 00 00 00 00	 call	 @__security_check_cookie@4
  00020	b8 00 00 00 00	 mov	 eax, OFFSET __ehfuncinfo$??0CDlgAnalysisAdjustRatio@@QAE@PAUHWND__@@PAVCWnd@@@Z
  00025	e9 00 00 00 00	 jmp	 ___CxxFrameHandler3
text$x	ENDS
??0CDlgAnalysisAdjustRatio@@QAE@PAUHWND__@@PAVCWnd@@@Z ENDP ; CDlgAnalysisAdjustRatio::CDlgAnalysisAdjustRatio
; Function compile flags: /Ogtp
; File C:\Program Files (x86)\Microsoft Visual Studio\2019\Community\VC\Tools\MSVC\14.29.30133\atlmfc\include\afx.inl
;	COMDAT ??_GCListCtrl@@UAEPAXI@Z
_TEXT	SEGMENT
___flags$ = 8						; size = 4
??_GCListCtrl@@UAEPAXI@Z PROC				; CListCtrl::`scalar deleting destructor', COMDAT
; _this$ = ecx
  00000	55		 push	 ebp
  00001	8b ec		 mov	 ebp, esp
  00003	56		 push	 esi
  00004	8b f1		 mov	 esi, ecx
  00006	e8 00 00 00 00	 call	 ??1CListCtrl@@UAE@XZ	; CListCtrl::~CListCtrl
  0000b	8b 45 08	 mov	 eax, DWORD PTR ___flags$[ebp]
  0000e	a8 01		 test	 al, 1
  00010	74 22		 je	 SHORT $LN9@scalar
  00012	a8 04		 test	 al, 4
  00014	75 10		 jne	 SHORT $LN3@scalar

; 112  : 	{ ::operator delete(p); }

  00016	56		 push	 esi
  00017	e8 00 00 00 00	 call	 ??3@YAXPAX@Z		; operator delete
  0001c	83 c4 04	 add	 esp, 4
  0001f	8b c6		 mov	 eax, esi
  00021	5e		 pop	 esi
  00022	5d		 pop	 ebp
  00023	c2 04 00	 ret	 4
$LN3@scalar:
  00026	68 80 00 00 00	 push	 128			; 00000080H
  0002b	56		 push	 esi
  0002c	e8 00 00 00 00	 call	 ?__global_delete@@YAXPAXI@Z ; __global_delete
  00031	83 c4 08	 add	 esp, 8
$LN9@scalar:
  00034	8b c6		 mov	 eax, esi
  00036	5e		 pop	 esi
  00037	5d		 pop	 ebp
  00038	c2 04 00	 ret	 4
??_GCListCtrl@@UAEPAXI@Z ENDP				; CListCtrl::`scalar deleting destructor'
_TEXT	ENDS
; Function compile flags: /Ogtp
; File C:\Program Files (x86)\Microsoft Visual Studio\2019\Community\VC\Tools\MSVC\14.29.30133\atlmfc\include\afxwin2.inl
;	COMDAT ?Create@CDialog@@UAEHIPAVCWnd@@@Z
_TEXT	SEGMENT
_nIDTemplate$ = 8					; size = 4
_pParentWnd$ = 12					; size = 4
?Create@CDialog@@UAEHIPAVCWnd@@@Z PROC			; CDialog::Create, COMDAT
; _this$ = ecx

; 585  : 	{ return CDialog::Create(ATL_MAKEINTRESOURCE(nIDTemplate), pParentWnd); }

  00000	55		 push	 ebp
  00001	8b ec		 mov	 ebp, esp
  00003	0f b7 45 08	 movzx	 eax, WORD PTR _nIDTemplate$[ebp]
  00007	89 45 08	 mov	 DWORD PTR _nIDTemplate$[ebp], eax
  0000a	5d		 pop	 ebp
  0000b	e9 00 00 00 00	 jmp	 ?Create@CDialog@@UAEHPBDPAVCWnd@@@Z ; CDialog::Create
?Create@CDialog@@UAEHIPAVCWnd@@@Z ENDP			; CDialog::Create
_TEXT	ENDS
; Function compile flags: /Ogtp
; File C:\Program Files (x86)\Microsoft Visual Studio\2019\Community\VC\Tools\MSVC\14.29.30133\atlmfc\include\afxwin2.inl
;	COMDAT ?EndModalState@CWnd@@UAEXXZ
_TEXT	SEGMENT
?EndModalState@CWnd@@UAEXXZ PROC			; CWnd::EndModalState, COMDAT
; _this$ = ecx

; 567  : 	{ ::EnableWindow(m_hWnd, TRUE); }

  00000	6a 01		 push	 1
  00002	ff 71 20	 push	 DWORD PTR [ecx+32]
  00005	ff 15 00 00 00
	00		 call	 DWORD PTR __imp__EnableWindow@8
  0000b	c3		 ret	 0
?EndModalState@CWnd@@UAEXXZ ENDP			; CWnd::EndModalState
_TEXT	ENDS
; Function compile flags: /Ogtp
; File C:\Program Files (x86)\Microsoft Visual Studio\2019\Community\VC\Tools\MSVC\14.29.30133\atlmfc\include\afxwin2.inl
;	COMDAT ?BeginModalState@CWnd@@UAEXXZ
_TEXT	SEGMENT
?BeginModalState@CWnd@@UAEXXZ PROC			; CWnd::BeginModalState, COMDAT
; _this$ = ecx

; 565  : 	{ ::EnableWindow(m_hWnd, FALSE); }

  00000	6a 00		 push	 0
  00002	ff 71 20	 push	 DWORD PTR [ecx+32]
  00005	ff 15 00 00 00
	00		 call	 DWORD PTR __imp__EnableWindow@8
  0000b	c3		 ret	 0
?BeginModalState@CWnd@@UAEXXZ ENDP			; CWnd::BeginModalState
_TEXT	ENDS
; Function compile flags: /Ogtp
; File C:\Program Files (x86)\Microsoft Visual Studio\2019\Community\VC\Tools\MSVC\14.29.30133\atlmfc\include\afxwin2.inl
;	COMDAT ?DoDataExchange@CWnd@@MAEXPAVCDataExchange@@@Z
_TEXT	SEGMENT
___formal$ = 8						; size = 4
?DoDataExchange@CWnd@@MAEXPAVCDataExchange@@@Z PROC	; CWnd::DoDataExchange, COMDAT
; _this$ = ecx

; 561  : 	{ } // default does nothing

  00000	c2 04 00	 ret	 4
?DoDataExchange@CWnd@@MAEXPAVCDataExchange@@@Z ENDP	; CWnd::DoDataExchange
_TEXT	ENDS
; Function compile flags: /Ogtp
; File C:\Program Files (x86)\Microsoft Visual Studio\2019\Community\VC\Tools\MSVC\14.29.30133\atlmfc\include\afx.inl
;	COMDAT ?Dump@CObject@@UBEXAAVCDumpContext@@@Z
_TEXT	SEGMENT
___formal$ = 8						; size = 4
?Dump@CObject@@UBEXAAVCDumpContext@@@Z PROC		; CObject::Dump, COMDAT
; _this$ = ecx

; 122  : 	{ /* no dumping in release builds */ }

  00000	c2 04 00	 ret	 4
?Dump@CObject@@UBEXAAVCDumpContext@@@Z ENDP		; CObject::Dump
_TEXT	ENDS
; Function compile flags: /Ogtp
; File C:\Program Files (x86)\Microsoft Visual Studio\2019\Community\VC\Tools\MSVC\14.29.30133\atlmfc\include\afx.inl
;	COMDAT ?AssertValid@CObject@@UBEXXZ
_TEXT	SEGMENT
?AssertValid@CObject@@UBEXXZ PROC			; CObject::AssertValid, COMDAT
; _this$ = ecx

; 120  : 	{ /* no asserts in release builds */ }

  00000	c2 00 00	 ret	 0
?AssertValid@CObject@@UBEXXZ ENDP			; CObject::AssertValid
_TEXT	ENDS
; Function compile flags: /Ogtp
; File C:\Program Files (x86)\Microsoft Visual Studio\2019\Community\VC\Tools\MSVC\14.29.30133\atlmfc\include\afx.inl
;	COMDAT ?Serialize@CObject@@UAEXAAVCArchive@@@Z
_TEXT	SEGMENT
___formal$ = 8						; size = 4
?Serialize@CObject@@UAEXAAVCArchive@@@Z PROC		; CObject::Serialize, COMDAT
; _this$ = ecx

; 106  : 	{ /* CObject does not serialize anything by default */ }

  00000	c2 04 00	 ret	 4
?Serialize@CObject@@UAEXAAVCArchive@@@Z ENDP		; CObject::Serialize
_TEXT	ENDS
; Function compile flags: /Ogtp
; File C:\Program Files (x86)\Windows Kits\10\Include\10.0.22000.0\ucrt\stdio.h
;	COMDAT _sprintf
_TEXT	SEGMENT
__Buffer$ = 8						; size = 4
__Format$ = 12						; size = 4
_sprintf PROC						; COMDAT

; 1771 :     {

  00000	55		 push	 ebp
  00001	8b ec		 mov	 ebp, esp

; 1392 :         int const _Result = __stdio_common_vsprintf(

  00003	8d 45 10	 lea	 eax, DWORD PTR __Format$[ebp+4]
  00006	50		 push	 eax
  00007	6a 00		 push	 0
  00009	ff 75 0c	 push	 DWORD PTR __Format$[ebp]
  0000c	6a ff		 push	 -1
  0000e	ff 75 08	 push	 DWORD PTR __Buffer$[ebp]
  00011	e8 00 00 00 00	 call	 ___local_stdio_printf_options
  00016	8b 08		 mov	 ecx, DWORD PTR [eax]
  00018	ff 70 04	 push	 DWORD PTR [eax+4]
  0001b	83 c9 01	 or	 ecx, 1
  0001e	51		 push	 ecx
  0001f	ff 15 00 00 00
	00		 call	 DWORD PTR __imp____stdio_common_vsprintf

; 1393 :             _CRT_INTERNAL_LOCAL_PRINTF_OPTIONS | _CRT_INTERNAL_PRINTF_LEGACY_VSPRINTF_NULL_TERMINATION,
; 1394 :             _Buffer, _BufferCount, _Format, _Locale, _ArgList);
; 1395 : 
; 1396 :         return _Result < 0 ? -1 : _Result;

  00025	83 c9 ff	 or	 ecx, -1
  00028	83 c4 1c	 add	 esp, 28			; 0000001cH
  0002b	85 c0		 test	 eax, eax
  0002d	0f 48 c1	 cmovs	 eax, ecx

; 1772 :         int _Result;
; 1773 :         va_list _ArgList;
; 1774 :         __crt_va_start(_ArgList, _Format);
; 1775 : 
; 1776 :         _Result = _vsprintf_l(_Buffer, _Format, NULL, _ArgList);
; 1777 : 
; 1778 :         __crt_va_end(_ArgList);
; 1779 :         return _Result;
; 1780 :     }

  00030	5d		 pop	 ebp
  00031	c3		 ret	 0
_sprintf ENDP
_TEXT	ENDS
; Function compile flags: /Ogtp
; File C:\Program Files (x86)\Windows Kits\10\Include\10.0.22000.0\ucrt\corecrt_stdio_config.h
;	COMDAT ___local_stdio_printf_options
_TEXT	SEGMENT
___local_stdio_printf_options PROC			; COMDAT

; 91   :         static unsigned __int64 _OptionsStorage;
; 92   :         return &_OptionsStorage;

  00000	b8 00 00 00 00	 mov	 eax, OFFSET ?_OptionsStorage@?1??__local_stdio_printf_options@@9@4_KA ; `__local_stdio_printf_options'::`2'::_OptionsStorage

; 93   :     }

  00005	c3		 ret	 0
___local_stdio_printf_options ENDP
_TEXT	ENDS
; Function compile flags: /Ogtp
; File D:\git\src\IBK\IBK_DRFN\ProjSrc\SrcChartEx\ChartAddIn\ChartAnalysisToolAddIn\AnalysisTool\DlgAnalysisAdjustRatio.cpp
;	COMDAT ?__empty_global_delete@@YAXPAXI@Z
_TEXT	SEGMENT
___formal$ = 8						; size = 4
___formal$ = 12						; size = 4
?__empty_global_delete@@YAXPAXI@Z PROC			; __empty_global_delete, COMDAT

  00000	c2 00 00	 ret	 0
?__empty_global_delete@@YAXPAXI@Z ENDP			; __empty_global_delete
_TEXT	ENDS
; Function compile flags: /Ogtp
; File D:\git\src\IBK\IBK_DRFN\ProjSrc\SrcChartEx\ChartAddIn\ChartAnalysisToolAddIn\AnalysisTool\DlgAnalysisAdjustRatio.cpp
;	COMDAT ?__empty_global_delete@@YAXPAX@Z
_TEXT	SEGMENT
___formal$ = 8						; size = 4
?__empty_global_delete@@YAXPAX@Z PROC			; __empty_global_delete, COMDAT

  00000	c2 00 00	 ret	 0
?__empty_global_delete@@YAXPAX@Z ENDP			; __empty_global_delete
_TEXT	ENDS
END
