; Listing generated by Microsoft (R) Optimizing Compiler Version 19.29.30145.0 

	TITLE	D:\git\src\IBK\IBK_DRFN\#DRfn-CS\_Obj\AnalysisTool\DlgAnalysisToolSet.obj
	.686P
	.XMM
	include listing.inc
	.model	flat

INCLUDELIB MSVCRT
INCLUDELIB OLDNAMES

PUBLIC	?__empty_global_delete@@YAXPAX@Z		; __empty_global_delete
PUBLIC	?__empty_global_delete@@YAXPAXI@Z		; __empty_global_delete
PUBLIC	??1CObject@@UAE@XZ				; CObject::~CObject
PUBLIC	?Serialize@CObject@@UAEXAAVCArchive@@@Z		; CObject::Serialize
PUBLIC	?AssertValid@CObject@@UBEXXZ			; CObject::AssertValid
PUBLIC	?Dump@CObject@@UBEXAAVCDumpContext@@@Z		; CObject::Dump
PUBLIC	?AtlThrowImpl@ATL@@YGXJ@Z			; ATL::AtlThrowImpl
PUBLIC	??1CGdiObject@@UAE@XZ				; CGdiObject::~CGdiObject
PUBLIC	??_GCGdiObject@@UAEPAXI@Z			; CGdiObject::`scalar deleting destructor'
PUBLIC	??1CBitmap@@UAE@XZ				; CBitmap::~CBitmap
PUBLIC	??_GCBitmap@@UAEPAXI@Z				; CBitmap::`scalar deleting destructor'
PUBLIC	?DoDataExchange@CWnd@@MAEXPAVCDataExchange@@@Z	; CWnd::DoDataExchange
PUBLIC	?BeginModalState@CWnd@@UAEXXZ			; CWnd::BeginModalState
PUBLIC	?EndModalState@CWnd@@UAEXXZ			; CWnd::EndModalState
PUBLIC	?Create@CDialog@@UAEHIPAVCWnd@@@Z		; CDialog::Create
PUBLIC	??_GCButton@@UAEPAXI@Z				; CButton::`scalar deleting destructor'
PUBLIC	??_GCEdit@@UAEPAXI@Z				; CEdit::`scalar deleting destructor'
PUBLIC	??1CCommonDialog@@UAE@XZ			; CCommonDialog::~CCommonDialog
PUBLIC	??_GCCommonDialog@@UAEPAXI@Z			; CCommonDialog::`scalar deleting destructor'
PUBLIC	??1CColorDialog@@UAE@XZ				; CColorDialog::~CColorDialog
PUBLIC	??_GCDateTimeCtrl@@UAEPAXI@Z			; CDateTimeCtrl::`scalar deleting destructor'
PUBLIC	??0exception@std@@QAE@ABV01@@Z			; std::exception::exception
PUBLIC	??1exception@std@@UAE@XZ			; std::exception::~exception
PUBLIC	?what@exception@std@@UBEPBDXZ			; std::exception::what
PUBLIC	??_Gexception@std@@UAEPAXI@Z			; std::exception::`scalar deleting destructor'
PUBLIC	??0bad_alloc@std@@QAE@ABV01@@Z			; std::bad_alloc::bad_alloc
PUBLIC	??_Gbad_alloc@std@@UAEPAXI@Z			; std::bad_alloc::`scalar deleting destructor'
PUBLIC	??0bad_array_new_length@std@@QAE@XZ		; std::bad_array_new_length::bad_array_new_length
PUBLIC	??1bad_array_new_length@std@@UAE@XZ		; std::bad_array_new_length::~bad_array_new_length
PUBLIC	??0bad_array_new_length@std@@QAE@ABV01@@Z	; std::bad_array_new_length::bad_array_new_length
PUBLIC	??_Gbad_array_new_length@std@@UAEPAXI@Z		; std::bad_array_new_length::`scalar deleting destructor'
PUBLIC	?_Throw_bad_array_new_length@std@@YAXXZ		; std::_Throw_bad_array_new_length
PUBLIC	??1CColorButton@@UAE@XZ				; CColorButton::~CColorButton
PUBLIC	?_Xlen@?$deque@PAVCCoordinate@@V?$allocator@PAVCCoordinate@@@std@@@std@@ABEXXZ ; std::deque<CCoordinate *,std::allocator<CCoordinate *> >::_Xlen
PUBLIC	?_Growmap@?$deque@PAVCCoordinate@@V?$allocator@PAVCCoordinate@@@std@@@std@@AAEXI@Z ; std::deque<CCoordinate *,std::allocator<CCoordinate *> >::_Growmap
PUBLIC	?_Tidy@?$deque@PAVCCoordinate@@V?$allocator@PAVCCoordinate@@@std@@@std@@AAEXXZ ; std::deque<CCoordinate *,std::allocator<CCoordinate *> >::_Tidy
PUBLIC	??1CElementPointList@@QAE@XZ			; CElementPointList::~CElementPointList
PUBLIC	??0CElementPointList@@QAE@ABV0@@Z		; CElementPointList::CElementPointList
PUBLIC	??1CBitmapComboBox@@UAE@XZ			; CBitmapComboBox::~CBitmapComboBox
PUBLIC	??1tagST_ANALYSIS_TOOL_INFO@@QAE@XZ		; tagST_ANALYSIS_TOOL_INFO::~tagST_ANALYSIS_TOOL_INFO
PUBLIC	??0CDlgAnalysisToolSet@@QAE@PAVCWnd@@ABV?$CStringT@DV?$StrTraitMFC_DLL@DV?$ChTraitsCRT@D@ATL@@@@@ATL@@ABW4HORZSCALEDRAWERTYPE@CScaleBaseData@@HPAH3PAVCTextPosition@@PAVCPenEnvironment@@PAVCElementPointList@@PAVCLineExtEnvironment@@PAVCDataTypeEnvironment@@PAUIChartOCX133101@@AAVCBlockIndex@@V23@J@Z ; CDlgAnalysisToolSet::CDlgAnalysisToolSet
PUBLIC	?DoDataExchange@CDlgAnalysisToolSet@@MAEXPAVCDataExchange@@@Z ; CDlgAnalysisToolSet::DoDataExchange
PUBLIC	?OnInitDialog@CDlgAnalysisToolSet@@MAEHXZ	; CDlgAnalysisToolSet::OnInitDialog
PUBLIC	?OnColor@CDlgAnalysisToolSet@@IAEXXZ		; CDlgAnalysisToolSet::OnColor
PUBLIC	?OnApplyBt@CDlgAnalysisToolSet@@IAEXXZ		; CDlgAnalysisToolSet::OnApplyBt
PUBLIC	?OnRightText@CDlgAnalysisToolSet@@IAEXXZ	; CDlgAnalysisToolSet::OnRightText
PUBLIC	?OnSelchangeWidth@CDlgAnalysisToolSet@@IAEXXZ	; CDlgAnalysisToolSet::OnSelchangeWidth
PUBLIC	?OnSelchangeStyle@CDlgAnalysisToolSet@@IAEXXZ	; CDlgAnalysisToolSet::OnSelchangeStyle
PUBLIC	?OnDatetimechangeDatetimepickerXdate1@CDlgAnalysisToolSet@@IAEXPAUtagNMHDR@@PAJ@Z ; CDlgAnalysisToolSet::OnDatetimechangeDatetimepickerXdate1
PUBLIC	?OnDatetimechangeDatetimepickerXdate2@CDlgAnalysisToolSet@@IAEXPAUtagNMHDR@@PAJ@Z ; CDlgAnalysisToolSet::OnDatetimechangeDatetimepickerXdate2
PUBLIC	?OnDatetimechangeDatetimepickerXdate3@CDlgAnalysisToolSet@@IAEXPAUtagNMHDR@@PAJ@Z ; CDlgAnalysisToolSet::OnDatetimechangeDatetimepickerXdate3
PUBLIC	?OnOkBt@CDlgAnalysisToolSet@@IAEXXZ		; CDlgAnalysisToolSet::OnOkBt
PUBLIC	?OnCancelBt@CDlgAnalysisToolSet@@IAEXXZ		; CDlgAnalysisToolSet::OnCancelBt
PUBLIC	?GetThisMessageMap@CDlgAnalysisToolSet@@KGPBUAFX_MSGMAP@@XZ ; CDlgAnalysisToolSet::GetThisMessageMap
PUBLIC	?GetMessageMap@CDlgAnalysisToolSet@@MBEPBUAFX_MSGMAP@@XZ ; CDlgAnalysisToolSet::GetMessageMap
PUBLIC	?InitializeData@CDlgAnalysisToolSet@@IAEXXZ	; CDlgAnalysisToolSet::InitializeData
PUBLIC	?ApplyData@CDlgAnalysisToolSet@@IAEXXZ		; CDlgAnalysisToolSet::ApplyData
PUBLIC	?ApplyOrgData@CDlgAnalysisToolSet@@IAEXXZ	; CDlgAnalysisToolSet::ApplyOrgData
PUBLIC	?SaveData@CDlgAnalysisToolSet@@IAEXXZ		; CDlgAnalysisToolSet::SaveData
PUBLIC	?SetInitTextPosition@CDlgAnalysisToolSet@@IAEXPAVCTextPosition@@@Z ; CDlgAnalysisToolSet::SetInitTextPosition
PUBLIC	?SetYValue@CDlgAnalysisToolSet@@IAEXNH@Z	; CDlgAnalysisToolSet::SetYValue
PUBLIC	?SetXDateTime@CDlgAnalysisToolSet@@IAEXNH@Z	; CDlgAnalysisToolSet::SetXDateTime
PUBLIC	?GetCurrentPenEnvironment@CDlgAnalysisToolSet@@IBEPAVCPenEnvironment@@XZ ; CDlgAnalysisToolSet::GetCurrentPenEnvironment
PUBLIC	?InitializeData_Width@CDlgAnalysisToolSet@@AAEXXZ ; CDlgAnalysisToolSet::InitializeData_Width
PUBLIC	?InitializeData_Style@CDlgAnalysisToolSet@@AAEXXZ ; CDlgAnalysisToolSet::InitializeData_Style
PUBLIC	?SetPenEnvironment@CDlgAnalysisToolSet@@AAEXXZ	; CDlgAnalysisToolSet::SetPenEnvironment
PUBLIC	?SetColor@CDlgAnalysisToolSet@@AAEXABK@Z	; CDlgAnalysisToolSet::SetColor
PUBLIC	?SetTextPosition@CDlgAnalysisToolSet@@AAEXXZ	; CDlgAnalysisToolSet::SetTextPosition
PUBLIC	?SetTextPosition@CDlgAnalysisToolSet@@AAEX_N@Z	; CDlgAnalysisToolSet::SetTextPosition
PUBLIC	?SetTextPosition@CDlgAnalysisToolSet@@AAEX_N0@Z	; CDlgAnalysisToolSet::SetTextPosition
PUBLIC	?SetTextPosition@CDlgAnalysisToolSet@@AAEX_N000@Z ; CDlgAnalysisToolSet::SetTextPosition
PUBLIC	?SetLineExtEnvironment@CDlgAnalysisToolSet@@AAEXXZ ; CDlgAnalysisToolSet::SetLineExtEnvironment
PUBLIC	?SetLineExtEnvironment@CDlgAnalysisToolSet@@AAEX_N0@Z ; CDlgAnalysisToolSet::SetLineExtEnvironment
PUBLIC	?SetDateValueLists@CDlgAnalysisToolSet@@AAEXXZ	; CDlgAnalysisToolSet::SetDateValueLists
PUBLIC	?GetTextPosition@CDlgAnalysisToolSet@@AAEPAVCTextPosition@@XZ ; CDlgAnalysisToolSet::GetTextPosition
PUBLIC	?GetOrgTextPosition@CDlgAnalysisToolSet@@AAEPAVCTextPosition@@XZ ; CDlgAnalysisToolSet::GetOrgTextPosition
PUBLIC	?GetLineExtEnvironment@CDlgAnalysisToolSet@@AAEPAVCLineExtEnvironment@@XZ ; CDlgAnalysisToolSet::GetLineExtEnvironment
PUBLIC	?GetOrgLineExtEnvironment@CDlgAnalysisToolSet@@AAEPAVCLineExtEnvironment@@XZ ; CDlgAnalysisToolSet::GetOrgLineExtEnvironment
PUBLIC	?_DoCheckCallInterface@CDlgAnalysisToolSet@@AAEXXZ ; CDlgAnalysisToolSet::_DoCheckCallInterface
PUBLIC	??1CDlgAnalysisToolSet@@UAE@XZ			; CDlgAnalysisToolSet::~CDlgAnalysisToolSet
PUBLIC	??_GCDlgAnalysisToolSet@@UAEPAXI@Z		; CDlgAnalysisToolSet::`scalar deleting destructor'
PUBLIC	?LoadResourceDLL@IMetaTable@@QAEPAUHINSTANCE__@@PAUHWND__@@PAU2@@Z ; IMetaTable::LoadResourceDLL
PUBLIC	??1CMultiLanguageResourceSetter@@QAE@XZ		; CMultiLanguageResourceSetter::~CMultiLanguageResourceSetter
PUBLIC	??1?$_Container_proxy_ptr12@V?$allocator@U_Container_proxy@std@@@std@@@std@@QAE@XZ ; std::_Container_proxy_ptr12<std::allocator<std::_Container_proxy> >::~_Container_proxy_ptr12<std::allocator<std::_Container_proxy> >
PUBLIC	??1?$_Tidy_guard@V?$deque@PAVCCoordinate@@V?$allocator@PAVCCoordinate@@@std@@@std@@@std@@QAE@XZ ; std::_Tidy_guard<std::deque<CCoordinate *,std::allocator<CCoordinate *> > >::~_Tidy_guard<std::deque<CCoordinate *,std::allocator<CCoordinate *> > >
PUBLIC	??$_Allocate_manually_vector_aligned@U_Default_allocate_traits@std@@@std@@YAPAXI@Z ; std::_Allocate_manually_vector_aligned<std::_Default_allocate_traits>
PUBLIC	??$uninitialized_copy@PAPAPAVCCoordinate@@PAPAPAV1@@std@@YAPAPAPAVCCoordinate@@QAPAPAV1@0PAPAPAV1@@Z ; std::uninitialized_copy<CCoordinate * * *,CCoordinate * * *>
PUBLIC	??$_Uninitialized_value_construct_n_unchecked1@PAPAPAVCCoordinate@@I@std@@YAPAPAPAVCCoordinate@@PAPAPAV1@I@Z ; std::_Uninitialized_value_construct_n_unchecked1<CCoordinate * * *,unsigned int>
PUBLIC	??$_Zero_range@PAPAPAVCCoordinate@@@std@@YAPAPAPAVCCoordinate@@QAPAPAV1@0@Z ; std::_Zero_range<CCoordinate * * *>
PUBLIC	??$_Copy_memmove@PAPAPAVCCoordinate@@PAPAPAV1@@std@@YAPAPAPAVCCoordinate@@PAPAPAV1@00@Z ; std::_Copy_memmove<CCoordinate * * *,CCoordinate * * *>
PUBLIC	??_R0PAVCException@@@8				; CException * `RTTI Type Descriptor'
PUBLIC	??_C@_02DPKJAMEF@?$CFd@				; `string'
PUBLIC	??_7CGdiObject@@6B@				; CGdiObject::`vftable'
PUBLIC	??_7CBitmap@@6B@				; CBitmap::`vftable'
PUBLIC	??_7CButton@@6B@				; CButton::`vftable'
PUBLIC	??_7CEdit@@6B@					; CEdit::`vftable'
PUBLIC	??_C@_0HD@JJCHHHNK@C?3?2Program?5Files?5?$CIx86?$CJ?2Microsof@ ; `string'
PUBLIC	??_C@_0BP@OIEOKIDM@Exception?5thrown?5in?5destructor@ ; `string'
PUBLIC	??_C@_0BB@HBOOMJBF@?$CFTs?5?$CI?$CFTs?3?$CFd?$CJ?6?$CFTs@ ; `string'
PUBLIC	??_C@_0N@OMEMOKLE@?$CFTs?5?$CI?$CFTs?3?$CFd?$CJ@ ; `string'
PUBLIC	??_7CCommonDialog@@6B@				; CCommonDialog::`vftable'
PUBLIC	??_7CDateTimeCtrl@@6B@				; CDateTimeCtrl::`vftable'
PUBLIC	??_R0?AVCObject@@@8				; CObject `RTTI Type Descriptor'
PUBLIC	??_R3CObject@@8					; CObject::`RTTI Class Hierarchy Descriptor'
PUBLIC	??_R2CObject@@8					; CObject::`RTTI Base Class Array'
PUBLIC	??_R1A@?0A@EA@CObject@@8			; CObject::`RTTI Base Class Descriptor at (0,-1,0,64)'
PUBLIC	??_R4CGdiObject@@6B@				; CGdiObject::`RTTI Complete Object Locator'
PUBLIC	??_R0?AVCGdiObject@@@8				; CGdiObject `RTTI Type Descriptor'
PUBLIC	??_R3CGdiObject@@8				; CGdiObject::`RTTI Class Hierarchy Descriptor'
PUBLIC	??_R2CGdiObject@@8				; CGdiObject::`RTTI Base Class Array'
PUBLIC	??_R1A@?0A@EA@CGdiObject@@8			; CGdiObject::`RTTI Base Class Descriptor at (0,-1,0,64)'
PUBLIC	??_R4CBitmap@@6B@				; CBitmap::`RTTI Complete Object Locator'
PUBLIC	??_R0?AVCBitmap@@@8				; CBitmap `RTTI Type Descriptor'
PUBLIC	??_R3CBitmap@@8					; CBitmap::`RTTI Class Hierarchy Descriptor'
PUBLIC	??_R2CBitmap@@8					; CBitmap::`RTTI Base Class Array'
PUBLIC	??_R1A@?0A@EA@CBitmap@@8			; CBitmap::`RTTI Base Class Descriptor at (0,-1,0,64)'
PUBLIC	??_R1A@?0A@EA@CWnd@@8				; CWnd::`RTTI Base Class Descriptor at (0,-1,0,64)'
PUBLIC	??_R0?AVCWnd@@@8				; CWnd `RTTI Type Descriptor'
PUBLIC	??_R3CWnd@@8					; CWnd::`RTTI Class Hierarchy Descriptor'
PUBLIC	??_R2CWnd@@8					; CWnd::`RTTI Base Class Array'
PUBLIC	??_R1A@?0A@EA@CCmdTarget@@8			; CCmdTarget::`RTTI Base Class Descriptor at (0,-1,0,64)'
PUBLIC	??_R0?AVCCmdTarget@@@8				; CCmdTarget `RTTI Type Descriptor'
PUBLIC	??_R3CCmdTarget@@8				; CCmdTarget::`RTTI Class Hierarchy Descriptor'
PUBLIC	??_R2CCmdTarget@@8				; CCmdTarget::`RTTI Base Class Array'
PUBLIC	??_R4CButton@@6B@				; CButton::`RTTI Complete Object Locator'
PUBLIC	??_R0?AVCButton@@@8				; CButton `RTTI Type Descriptor'
PUBLIC	??_R3CButton@@8					; CButton::`RTTI Class Hierarchy Descriptor'
PUBLIC	??_R2CButton@@8					; CButton::`RTTI Base Class Array'
PUBLIC	??_R1A@?0A@EA@CButton@@8			; CButton::`RTTI Base Class Descriptor at (0,-1,0,64)'
PUBLIC	??_R4CEdit@@6B@					; CEdit::`RTTI Complete Object Locator'
PUBLIC	??_R0?AVCEdit@@@8				; CEdit `RTTI Type Descriptor'
PUBLIC	??_R3CEdit@@8					; CEdit::`RTTI Class Hierarchy Descriptor'
PUBLIC	??_R2CEdit@@8					; CEdit::`RTTI Base Class Array'
PUBLIC	??_R1A@?0A@EA@CEdit@@8				; CEdit::`RTTI Base Class Descriptor at (0,-1,0,64)'
PUBLIC	??_R4CCommonDialog@@6B@				; CCommonDialog::`RTTI Complete Object Locator'
PUBLIC	??_R0?AVCCommonDialog@@@8			; CCommonDialog `RTTI Type Descriptor'
PUBLIC	??_R3CCommonDialog@@8				; CCommonDialog::`RTTI Class Hierarchy Descriptor'
PUBLIC	??_R2CCommonDialog@@8				; CCommonDialog::`RTTI Base Class Array'
PUBLIC	??_R1A@?0A@EA@CCommonDialog@@8			; CCommonDialog::`RTTI Base Class Descriptor at (0,-1,0,64)'
PUBLIC	??_R1A@?0A@EA@CDialog@@8			; CDialog::`RTTI Base Class Descriptor at (0,-1,0,64)'
PUBLIC	??_R0?AVCDialog@@@8				; CDialog `RTTI Type Descriptor'
PUBLIC	??_R3CDialog@@8					; CDialog::`RTTI Class Hierarchy Descriptor'
PUBLIC	??_R2CDialog@@8					; CDialog::`RTTI Base Class Array'
PUBLIC	??_R4CDateTimeCtrl@@6B@				; CDateTimeCtrl::`RTTI Complete Object Locator'
PUBLIC	??_R0?AVCDateTimeCtrl@@@8			; CDateTimeCtrl `RTTI Type Descriptor'
PUBLIC	??_R3CDateTimeCtrl@@8				; CDateTimeCtrl::`RTTI Class Hierarchy Descriptor'
PUBLIC	??_R2CDateTimeCtrl@@8				; CDateTimeCtrl::`RTTI Base Class Array'
PUBLIC	??_R1A@?0A@EA@CDateTimeCtrl@@8			; CDateTimeCtrl::`RTTI Base Class Descriptor at (0,-1,0,64)'
PUBLIC	??_7exception@std@@6B@				; std::exception::`vftable'
PUBLIC	??_C@_0BC@EOODALEL@Unknown?5exception@		; `string'
PUBLIC	??_7bad_alloc@std@@6B@				; std::bad_alloc::`vftable'
PUBLIC	??_7bad_array_new_length@std@@6B@		; std::bad_array_new_length::`vftable'
PUBLIC	??_C@_0BF@KINCDENJ@bad?5array?5new?5length@	; `string'
PUBLIC	__TI3?AVbad_array_new_length@std@@
PUBLIC	__CTA3?AVbad_array_new_length@std@@
PUBLIC	??_R0?AVbad_array_new_length@std@@@8		; std::bad_array_new_length `RTTI Type Descriptor'
PUBLIC	__CT??_R0?AVbad_array_new_length@std@@@8??0bad_array_new_length@std@@QAE@ABV01@@Z12
PUBLIC	??_R0?AVbad_alloc@std@@@8			; std::bad_alloc `RTTI Type Descriptor'
PUBLIC	__CT??_R0?AVbad_alloc@std@@@8??0bad_alloc@std@@QAE@ABV01@@Z12
PUBLIC	??_R0?AVexception@std@@@8			; std::exception `RTTI Type Descriptor'
PUBLIC	__CT??_R0?AVexception@std@@@8??0exception@std@@QAE@ABV01@@Z12
PUBLIC	??_C@_0BF@BMLEKMON@AnalysisPropInfo?4ans@	; `string'
PUBLIC	??_7CDlgAnalysisToolSet@@6B@			; CDlgAnalysisToolSet::`vftable'
PUBLIC	??_C@_0BF@EGELCGDD@GetCurrentLanguageID@	; `string'
PUBLIC	??_C@_0BA@ENJOCHIO@LoadResourceDLL@		; `string'
PUBLIC	??_C@_04HDOCAJNK@?$CFs?$CFs@			; `string'
PUBLIC	??_C@_07ONLHAHEH@TopText@			; `string'
PUBLIC	??_C@_0L@KGKLHHNL@BottomText@			; `string'
PUBLIC	??_C@_08BBFEGILF@LeftText@			; `string'
PUBLIC	??_C@_09HDEKPJNE@RightText@			; `string'
PUBLIC	??_C@_07FCOFBDCL@LeftExt@			; `string'
PUBLIC	??_C@_08JBGJKNHH@RightExt@			; `string'
PUBLIC	??_C@_07FEGHFPHL@EquiDiv@			; `string'
PUBLIC	??_C@_0O@GNLODFPJ@PriceRangeDiv@		; `string'
PUBLIC	??_C@_09LIIMEMPE@HLPercent@			; `string'
PUBLIC	??_C@_0L@IDNOMKNG@FillRegion@			; `string'
PUBLIC	??_C@_09MJAANBBP@LineColor@			; `string'
PUBLIC	??_C@_03JALODAI@?$CFld@				; `string'
PUBLIC	??_C@_09LNOEOIHF@LineStyle@			; `string'
PUBLIC	??_C@_0L@OIHNKLFE@LineWeight@			; `string'
PUBLIC	??_C@_0O@PIBJMGIC@RightRateText@		; `string'
PUBLIC	??_C@_0P@IMPIBBAB@YYYYMMDDHHMMSS@		; `string'
PUBLIC	??_C@_03EICDNICE@?$CF?4f@			; `string'
PUBLIC	??_C@_08IGKLELNK@?$CFs?1?$CFs?3?$CFs@		; `string'
PUBLIC	??_C@_01GBGANLPD@0@				; `string'
PUBLIC	??_C@_0M@NFOMEIHF@?$CFs?1?$CFs?9?$CFs?3?$CFs@	; `string'
PUBLIC	??_C@_06GEKNBBDK@000000@			; `string'
PUBLIC	??_C@_0P@NDLMDLNF@?$CF04d?$CF02d?$CF02d?$CFs@	; `string'
PUBLIC	??_C@_0BC@KBDMBKEH@deque?$DMT?$DO?5too?5long@	; `string'
PUBLIC	??_R4exception@std@@6B@				; std::exception::`RTTI Complete Object Locator'
PUBLIC	??_R3exception@std@@8				; std::exception::`RTTI Class Hierarchy Descriptor'
PUBLIC	??_R2exception@std@@8				; std::exception::`RTTI Base Class Array'
PUBLIC	??_R1A@?0A@EA@exception@std@@8			; std::exception::`RTTI Base Class Descriptor at (0,-1,0,64)'
PUBLIC	??_R4bad_alloc@std@@6B@				; std::bad_alloc::`RTTI Complete Object Locator'
PUBLIC	??_R3bad_alloc@std@@8				; std::bad_alloc::`RTTI Class Hierarchy Descriptor'
PUBLIC	??_R2bad_alloc@std@@8				; std::bad_alloc::`RTTI Base Class Array'
PUBLIC	??_R1A@?0A@EA@bad_alloc@std@@8			; std::bad_alloc::`RTTI Base Class Descriptor at (0,-1,0,64)'
PUBLIC	??_R4bad_array_new_length@std@@6B@		; std::bad_array_new_length::`RTTI Complete Object Locator'
PUBLIC	??_R3bad_array_new_length@std@@8		; std::bad_array_new_length::`RTTI Class Hierarchy Descriptor'
PUBLIC	??_R2bad_array_new_length@std@@8		; std::bad_array_new_length::`RTTI Base Class Array'
PUBLIC	??_R1A@?0A@EA@bad_array_new_length@std@@8	; std::bad_array_new_length::`RTTI Base Class Descriptor at (0,-1,0,64)'
PUBLIC	??_R4CDlgAnalysisToolSet@@6B@			; CDlgAnalysisToolSet::`RTTI Complete Object Locator'
PUBLIC	??_R0?AVCDlgAnalysisToolSet@@@8			; CDlgAnalysisToolSet `RTTI Type Descriptor'
PUBLIC	??_R3CDlgAnalysisToolSet@@8			; CDlgAnalysisToolSet::`RTTI Class Hierarchy Descriptor'
PUBLIC	??_R2CDlgAnalysisToolSet@@8			; CDlgAnalysisToolSet::`RTTI Base Class Array'
PUBLIC	??_R1A@?0A@EA@CDlgAnalysisToolSet@@8		; CDlgAnalysisToolSet::`RTTI Base Class Descriptor at (0,-1,0,64)'
PUBLIC	__real@0000000000000000
PUBLIC	__xmm@00100000000000000010000000000000
EXTRN	??2@YAPAXI@Z:PROC				; operator new
EXTRN	??3@YAXPAX@Z:PROC				; operator delete
EXTRN	??3@YAXPAXI@Z:PROC				; operator delete
EXTRN	?__global_delete@@YAXPAXI@Z:PROC		; __global_delete
EXTRN	___std_terminate:PROC
EXTRN	__imp___invalid_parameter_noinfo_noreturn:PROC
EXTRN	__imp__GetProcAddress@8:PROC
EXTRN	__imp__WritePrivateProfileStringA@16:PROC
EXTRN	__imp__SendMessageA@16:PROC
EXTRN	__imp__IsWindowVisible@4:PROC
EXTRN	__imp__mouse_event@20:PROC
EXTRN	__imp__EnableWindow@8:PROC
EXTRN	__imp__InvalidateRect@12:PROC
EXTRN	__imp__GetClientRect@8:PROC
EXTRN	__imp__GetWindowRect@8:PROC
EXTRN	__imp__atof:PROC
EXTRN	__imp__atoi:PROC
EXTRN	__imp___atoi64:PROC
EXTRN	__imp___localtime64_s:PROC
EXTRN	__imp___mktime64:PROC
EXTRN	?AfxThrowMemoryException@@YGXXZ:PROC		; AfxThrowMemoryException
EXTRN	?AfxThrowOleException@@YGXJ@Z:PROC		; AfxThrowOleException
EXTRN	__imp_?Concatenate@?$CSimpleStringT@D$00@ATL@@KAXAAV12@PBDH1H@Z:PROC
EXTRN	__imp_??0?$CStringT@DV?$StrTraitMFC_DLL@DV?$ChTraitsCRT@D@ATL@@@@@ATL@@QAE@XZ:PROC
EXTRN	__imp_??0?$CStringT@DV?$StrTraitMFC_DLL@DV?$ChTraitsCRT@D@ATL@@@@@ATL@@QAE@PAUIAtlStringMgr@1@@Z:PROC
EXTRN	__imp_??0?$CStringT@DV?$StrTraitMFC_DLL@DV?$ChTraitsCRT@D@ATL@@@@@ATL@@QAE@ABV01@@Z:PROC
EXTRN	__imp_??1?$CStringT@DV?$StrTraitMFC_DLL@DV?$ChTraitsCRT@D@ATL@@@@@ATL@@QAE@XZ:PROC
EXTRN	__imp_??4?$CStringT@DV?$StrTraitMFC_DLL@DV?$ChTraitsCRT@D@ATL@@@@@ATL@@QAEAAV01@ABV01@@Z:PROC
EXTRN	__imp_??4?$CStringT@DV?$StrTraitMFC_DLL@DV?$ChTraitsCRT@D@ATL@@@@@ATL@@QAEAAV01@PBD@Z:PROC
EXTRN	__imp_?GetManager@?$CStringT@DV?$StrTraitMFC_DLL@DV?$ChTraitsCRT@D@ATL@@@@@ATL@@QBEPAUIAtlStringMgr@2@XZ:PROC
EXTRN	__imp_?Compare@?$CStringT@DV?$StrTraitMFC_DLL@DV?$ChTraitsCRT@D@ATL@@@@@ATL@@QBEHPBD@Z:PROC
EXTRN	__imp_?Mid@?$CStringT@DV?$StrTraitMFC_DLL@DV?$ChTraitsCRT@D@ATL@@@@@ATL@@QBE?AV12@HH@Z:PROC
EXTRN	__imp_?Left@?$CStringT@DV?$StrTraitMFC_DLL@DV?$ChTraitsCRT@D@ATL@@@@@ATL@@QBE?AV12@H@Z:PROC
EXTRN	__imp_?Format@?$CStringT@DV?$StrTraitMFC_DLL@DV?$ChTraitsCRT@D@ATL@@@@@ATL@@QAAXPBDZZ:PROC
EXTRN	__imp_?LoadStringA@?$CStringT@DV?$StrTraitMFC_DLL@DV?$ChTraitsCRT@D@ATL@@@@@ATL@@QAEHI@Z:PROC
EXTRN	??0CFile@@QAE@XZ:PROC				; CFile::CFile
EXTRN	?Open@CFile@@UAEHPBDIPAVCFileException@@@Z:PROC	; CFile::Open
EXTRN	?Close@CFile@@UAEXXZ:PROC			; CFile::Close
EXTRN	??1CFile@@UAE@XZ:PROC				; CFile::~CFile
EXTRN	??0CFileFind@@QAE@XZ:PROC			; CFileFind::CFileFind
EXTRN	??1CFileFind@@UAE@XZ:PROC			; CFileFind::~CFileFind
EXTRN	?Close@CFileFind@@QAEXXZ:PROC			; CFileFind::Close
EXTRN	?FindFile@CFileFind@@UAEHPBDK@Z:PROC		; CFileFind::FindFile
EXTRN	?AfxGetModuleState@@YGPAVAFX_MODULE_STATE@@XZ:PROC ; AfxGetModuleState
EXTRN	?AfxGetStaticModuleState@@YGPAVAFX_MODULE_STATE@@XZ:PROC ; AfxGetStaticModuleState
EXTRN	?GetRuntimeClass@CGdiObject@@UBEPAUCRuntimeClass@@XZ:PROC ; CGdiObject::GetRuntimeClass
EXTRN	?DeleteObject@CGdiObject@@QAEHXZ:PROC		; CGdiObject::DeleteObject
EXTRN	??_ECGdiObject@@UAEPAXI@Z:PROC			; CGdiObject::`vector deleting destructor'
EXTRN	?GetRuntimeClass@CBitmap@@UBEPAUCRuntimeClass@@XZ:PROC ; CBitmap::GetRuntimeClass
EXTRN	??_ECBitmap@@UAEPAXI@Z:PROC			; CBitmap::`vector deleting destructor'
EXTRN	?DDX_CBIndex@@YGXPAVCDataExchange@@HAAH@Z:PROC	; DDX_CBIndex
EXTRN	?DDX_Control@@YGXPAVCDataExchange@@HAAVCWnd@@@Z:PROC ; DDX_Control
EXTRN	?OnCmdMsg@CCmdTarget@@UAEHIHPAXPAUAFX_CMDHANDLERINFO@@@Z:PROC ; CCmdTarget::OnCmdMsg
EXTRN	?IsInvokeAllowed@CCmdTarget@@UAEHJ@Z:PROC	; CCmdTarget::IsInvokeAllowed
EXTRN	?GetDispatchIID@CCmdTarget@@UAEHPAU_GUID@@@Z:PROC ; CCmdTarget::GetDispatchIID
EXTRN	?GetTypeInfoCount@CCmdTarget@@UAEIXZ:PROC	; CCmdTarget::GetTypeInfoCount
EXTRN	?GetTypeLibCache@CCmdTarget@@UAEPAVCTypeLibCache@@XZ:PROC ; CCmdTarget::GetTypeLibCache
EXTRN	?GetTypeLib@CCmdTarget@@UAEJKPAPAUITypeLib@@@Z:PROC ; CCmdTarget::GetTypeLib
EXTRN	?GetCommandMap@CCmdTarget@@MBEPBUAFX_OLECMDMAP@@XZ:PROC ; CCmdTarget::GetCommandMap
EXTRN	?GetDispatchMap@CCmdTarget@@MBEPBUAFX_DISPMAP@@XZ:PROC ; CCmdTarget::GetDispatchMap
EXTRN	?GetConnectionMap@CCmdTarget@@MBEPBUAFX_CONNECTIONMAP@@XZ:PROC ; CCmdTarget::GetConnectionMap
EXTRN	?GetEventSinkMap@CCmdTarget@@MBEPBUAFX_EVENTSINKMAP@@XZ:PROC ; CCmdTarget::GetEventSinkMap
EXTRN	?OnCreateAggregates@CCmdTarget@@UAEHXZ:PROC	; CCmdTarget::OnCreateAggregates
EXTRN	?GetInterfaceHook@CCmdTarget@@UAEPAUIUnknown@@PBX@Z:PROC ; CCmdTarget::GetInterfaceHook
EXTRN	?GetExtraConnectionPoints@CCmdTarget@@MAEHPAVCPtrArray@@@Z:PROC ; CCmdTarget::GetExtraConnectionPoints
EXTRN	?GetConnectionHook@CCmdTarget@@MAEPAUIConnectionPoint@@ABU_GUID@@@Z:PROC ; CCmdTarget::GetConnectionHook
EXTRN	??0CWnd@@QAE@XZ:PROC				; CWnd::CWnd
EXTRN	?PreSubclassWindow@CWnd@@UAEXXZ:PROC		; CWnd::PreSubclassWindow
EXTRN	?Create@CWnd@@UAEHPBD0KABUtagRECT@@PAV1@IPAUCCreateContext@@@Z:PROC ; CWnd::Create
EXTRN	?CreateEx@CWnd@@UAEHKPBD0KHHHHPAUHWND__@@PAUHMENU__@@PAX@Z:PROC ; CWnd::CreateEx
EXTRN	?CreateEx@CWnd@@UAEHKPBD0KABUtagRECT@@PAV1@IPAX@Z:PROC ; CWnd::CreateEx
EXTRN	?DestroyWindow@CWnd@@UAEHXZ:PROC		; CWnd::DestroyWindow
EXTRN	?PreCreateWindow@CWnd@@UAEHAAUtagCREATESTRUCTA@@@Z:PROC ; CWnd::PreCreateWindow
EXTRN	?CalcWindowRect@CWnd@@UAEXPAUtagRECT@@I@Z:PROC	; CWnd::CalcWindowRect
EXTRN	?GetDlgItem@CWnd@@QBEPAV1@H@Z:PROC		; CWnd::GetDlgItem
EXTRN	?SetWindowTextA@CWnd@@QAEXPBD@Z:PROC		; CWnd::SetWindowTextA
EXTRN	?GetWindowTextA@CWnd@@QBEXAAV?$CStringT@DV?$StrTraitMFC_DLL@DV?$ChTraitsCRT@D@ATL@@@@@ATL@@@Z:PROC ; CWnd::GetWindowTextA
EXTRN	?GetMenu@CWnd@@UBEPAVCMenu@@XZ:PROC		; CWnd::GetMenu
EXTRN	?SetMenu@CWnd@@UAEHPAVCMenu@@@Z:PROC		; CWnd::SetMenu
EXTRN	?MoveWindow@CWnd@@QAEXHHHHH@Z:PROC		; CWnd::MoveWindow
EXTRN	?ScreenToClient@CWnd@@QBEXPAUtagRECT@@@Z:PROC	; CWnd::ScreenToClient
EXTRN	?ShowWindow@CWnd@@QAEHH@Z:PROC			; CWnd::ShowWindow
EXTRN	?OnToolHitTest@CWnd@@UBEHVCPoint@@PAUtagTOOLINFOA@@@Z:PROC ; CWnd::OnToolHitTest
EXTRN	?EnableWindow@CWnd@@QAEHH@Z:PROC		; CWnd::EnableWindow
EXTRN	?IsDlgButtonChecked@CWnd@@QBEIH@Z:PROC		; CWnd::IsDlgButtonChecked
EXTRN	?SetDlgItemTextA@CWnd@@QAEXHPBD@Z:PROC		; CWnd::SetDlgItemTextA
EXTRN	?GetScrollBarCtrl@CWnd@@UBEPAVCScrollBar@@H@Z:PROC ; CWnd::GetScrollBarCtrl
EXTRN	?UpdateData@CWnd@@QAEHH@Z:PROC			; CWnd::UpdateData
EXTRN	?WinHelpA@CWnd@@UAEXKI@Z:PROC			; CWnd::WinHelpA
EXTRN	?HtmlHelpA@CWnd@@UAEXKI@Z:PROC			; CWnd::HtmlHelpA
EXTRN	?WinHelpInternal@CWnd@@UAEXKI@Z:PROC		; CWnd::WinHelpInternal
EXTRN	?ContinueModal@CWnd@@UAEHXZ:PROC		; CWnd::ContinueModal
EXTRN	?EndModalLoop@CWnd@@UAEXH@Z:PROC		; CWnd::EndModalLoop
EXTRN	?OnDrawIconicThumbnailOrLivePreview@CWnd@@UAEXAAVCDC@@VCRect@@VCSize@@HAAH@Z:PROC ; CWnd::OnDrawIconicThumbnailOrLivePreview
EXTRN	?GetInterfaceMap@CWnd@@MBEPBUAFX_INTERFACEMAP@@XZ:PROC ; CWnd::GetInterfaceMap
EXTRN	?EnsureStdObj@CWnd@@UAEJXZ:PROC			; CWnd::EnsureStdObj
EXTRN	?get_accParent@CWnd@@UAEJPAPAUIDispatch@@@Z:PROC ; CWnd::get_accParent
EXTRN	?get_accChildCount@CWnd@@UAEJPAJ@Z:PROC		; CWnd::get_accChildCount
EXTRN	?get_accChild@CWnd@@UAEJUtagVARIANT@@PAPAUIDispatch@@@Z:PROC ; CWnd::get_accChild
EXTRN	?get_accName@CWnd@@UAEJUtagVARIANT@@PAPA_W@Z:PROC ; CWnd::get_accName
EXTRN	?get_accValue@CWnd@@UAEJUtagVARIANT@@PAPA_W@Z:PROC ; CWnd::get_accValue
EXTRN	?get_accDescription@CWnd@@UAEJUtagVARIANT@@PAPA_W@Z:PROC ; CWnd::get_accDescription
EXTRN	?get_accRole@CWnd@@UAEJUtagVARIANT@@PAU2@@Z:PROC ; CWnd::get_accRole
EXTRN	?get_accState@CWnd@@UAEJUtagVARIANT@@PAU2@@Z:PROC ; CWnd::get_accState
EXTRN	?get_accHelp@CWnd@@UAEJUtagVARIANT@@PAPA_W@Z:PROC ; CWnd::get_accHelp
EXTRN	?get_accHelpTopic@CWnd@@UAEJPAPA_WUtagVARIANT@@PAJ@Z:PROC ; CWnd::get_accHelpTopic
EXTRN	?get_accKeyboardShortcut@CWnd@@UAEJUtagVARIANT@@PAPA_W@Z:PROC ; CWnd::get_accKeyboardShortcut
EXTRN	?get_accFocus@CWnd@@UAEJPAUtagVARIANT@@@Z:PROC	; CWnd::get_accFocus
EXTRN	?get_accSelection@CWnd@@UAEJPAUtagVARIANT@@@Z:PROC ; CWnd::get_accSelection
EXTRN	?get_accDefaultAction@CWnd@@UAEJUtagVARIANT@@PAPA_W@Z:PROC ; CWnd::get_accDefaultAction
EXTRN	?accSelect@CWnd@@UAEJJUtagVARIANT@@@Z:PROC	; CWnd::accSelect
EXTRN	?accLocation@CWnd@@UAEJPAJ000UtagVARIANT@@@Z:PROC ; CWnd::accLocation
EXTRN	?accNavigate@CWnd@@UAEJJUtagVARIANT@@PAU2@@Z:PROC ; CWnd::accNavigate
EXTRN	?accHitTest@CWnd@@UAEJJJPAUtagVARIANT@@@Z:PROC	; CWnd::accHitTest
EXTRN	?accDoDefaultAction@CWnd@@UAEJUtagVARIANT@@@Z:PROC ; CWnd::accDoDefaultAction
EXTRN	?put_accName@CWnd@@UAEJUtagVARIANT@@PA_W@Z:PROC	; CWnd::put_accName
EXTRN	?put_accValue@CWnd@@UAEJUtagVARIANT@@PA_W@Z:PROC ; CWnd::put_accValue
EXTRN	?SetProxy@CWnd@@UAEJPAUIAccessibleProxy@@@Z:PROC ; CWnd::SetProxy
EXTRN	?CreateAccessibleProxy@CWnd@@UAEJIJPAJ@Z:PROC	; CWnd::CreateAccessibleProxy
EXTRN	?OnCommand@CWnd@@MAEHIJ@Z:PROC			; CWnd::OnCommand
EXTRN	?OnNotify@CWnd@@MAEHIJPAJ@Z:PROC		; CWnd::OnNotify
EXTRN	?GetSuperWndProcAddr@CWnd@@MAEPAP6GJPAUHWND__@@IIJ@ZXZ:PROC ; CWnd::GetSuperWndProcAddr
EXTRN	?PreTranslateMessage@CWnd@@UAEHPAUtagMSG@@@Z:PROC ; CWnd::PreTranslateMessage
EXTRN	?OnAmbientProperty@CWnd@@UAEHPAVCOleControlSite@@JPAUtagVARIANT@@@Z:PROC ; CWnd::OnAmbientProperty
EXTRN	?WindowProc@CWnd@@MAEJIIJ@Z:PROC		; CWnd::WindowProc
EXTRN	?OnWndMsg@CWnd@@MAEHIIJPAJ@Z:PROC		; CWnd::OnWndMsg
EXTRN	?DefWindowProcA@CWnd@@MAEJIIJ@Z:PROC		; CWnd::DefWindowProcA
EXTRN	?PostNcDestroy@CWnd@@MAEXXZ:PROC		; CWnd::PostNcDestroy
EXTRN	?OnChildNotify@CWnd@@MAEHIIJPAJ@Z:PROC		; CWnd::OnChildNotify
EXTRN	?OnTouchInputs@CWnd@@MAEHIPAUtagTOUCHINPUT@@@Z:PROC ; CWnd::OnTouchInputs
EXTRN	?OnTouchInput@CWnd@@MAEHVCPoint@@HHPAUtagTOUCHINPUT@@@Z:PROC ; CWnd::OnTouchInput
EXTRN	?GetGestureStatus@CWnd@@MAEKVCPoint@@@Z:PROC	; CWnd::GetGestureStatus
EXTRN	?OnGestureZoom@CWnd@@MAEHVCPoint@@J@Z:PROC	; CWnd::OnGestureZoom
EXTRN	?OnGesturePan@CWnd@@MAEHVCPoint@@0@Z:PROC	; CWnd::OnGesturePan
EXTRN	?OnGestureRotate@CWnd@@MAEHVCPoint@@N@Z:PROC	; CWnd::OnGestureRotate
EXTRN	?OnGestureTwoFingerTap@CWnd@@MAEHVCPoint@@@Z:PROC ; CWnd::OnGestureTwoFingerTap
EXTRN	?OnGesturePressAndTap@CWnd@@MAEHVCPoint@@J@Z:PROC ; CWnd::OnGesturePressAndTap
EXTRN	?ResizeDynamicLayout@CWnd@@MAEXXZ:PROC		; CWnd::ResizeDynamicLayout
EXTRN	?CheckAutoCenter@CWnd@@UAEHXZ:PROC		; CWnd::CheckAutoCenter
EXTRN	?IsFrameWnd@CWnd@@UBEHXZ:PROC			; CWnd::IsFrameWnd
EXTRN	?OnFinalRelease@CWnd@@UAEXXZ:PROC		; CWnd::OnFinalRelease
EXTRN	?CreateControlContainer@CWnd@@MAEHPAPAVCOleControlContainer@@@Z:PROC ; CWnd::CreateControlContainer
EXTRN	?CreateControlSite@CWnd@@MAEHPAVCOleControlContainer@@PAPAVCOleControlSite@@IABU_GUID@@@Z:PROC ; CWnd::CreateControlSite
EXTRN	?SetOccDialogInfo@CWnd@@MAEHPAU_AFX_OCC_DIALOG_INFO@@@Z:PROC ; CWnd::SetOccDialogInfo
EXTRN	?GetOccDialogInfo@CWnd@@MAEPAU_AFX_OCC_DIALOG_INFO@@XZ:PROC ; CWnd::GetOccDialogInfo
EXTRN	?GetMessageMap@CWnd@@MBEPBUAFX_MSGMAP@@XZ:PROC	; CWnd::GetMessageMap
EXTRN	?GetRuntimeClass@CDialog@@UBEPAUCRuntimeClass@@XZ:PROC ; CDialog::GetRuntimeClass
EXTRN	?Create@CDialog@@UAEHPBDPAVCWnd@@@Z:PROC	; CDialog::Create
EXTRN	?CreateIndirect@CDialog@@UAEHPBUDLGTEMPLATE@@PAVCWnd@@PAX@Z:PROC ; CDialog::CreateIndirect
EXTRN	?CreateIndirect@CDialog@@UAEHPAXPAVCWnd@@@Z:PROC ; CDialog::CreateIndirect
EXTRN	??0CDialog@@QAE@IPAVCWnd@@@Z:PROC		; CDialog::CDialog
EXTRN	?DoModal@CDialog@@UAEHXZ:PROC			; CDialog::DoModal
EXTRN	?OnInitDialog@CDialog@@UAEHXZ:PROC		; CDialog::OnInitDialog
EXTRN	?OnSetFont@CDialog@@UAEXPAVCFont@@@Z:PROC	; CDialog::OnSetFont
EXTRN	?OnOK@CDialog@@MAEXXZ:PROC			; CDialog::OnOK
EXTRN	?OnCancel@CDialog@@MAEXXZ:PROC			; CDialog::OnCancel
EXTRN	??1CDialog@@UAE@XZ:PROC				; CDialog::~CDialog
EXTRN	?PreTranslateMessage@CDialog@@UAEHPAUtagMSG@@@Z:PROC ; CDialog::PreTranslateMessage
EXTRN	?OnCmdMsg@CDialog@@UAEHIHPAXPAUAFX_CMDHANDLERINFO@@@Z:PROC ; CDialog::OnCmdMsg
EXTRN	?CheckAutoCenter@CDialog@@UAEHXZ:PROC		; CDialog::CheckAutoCenter
EXTRN	?SetOccDialogInfo@CDialog@@MAEHPAU_AFX_OCC_DIALOG_INFO@@@Z:PROC ; CDialog::SetOccDialogInfo
EXTRN	?GetOccDialogInfo@CDialog@@MAEPAU_AFX_OCC_DIALOG_INFO@@XZ:PROC ; CDialog::GetOccDialogInfo
EXTRN	?PreInitDialog@CDialog@@MAEXXZ:PROC		; CDialog::PreInitDialog
EXTRN	?GetThisMessageMap@CDialog@@KGPBUAFX_MSGMAP@@XZ:PROC ; CDialog::GetThisMessageMap
EXTRN	?GetRuntimeClass@CButton@@UBEPAUCRuntimeClass@@XZ:PROC ; CButton::GetRuntimeClass
EXTRN	?Create@CButton@@UAEHPBDKABUtagRECT@@PAVCWnd@@I@Z:PROC ; CButton::Create
EXTRN	?DrawItem@CButton@@UAEXPAUtagDRAWITEMSTRUCT@@@Z:PROC ; CButton::DrawItem
EXTRN	??1CButton@@UAE@XZ:PROC				; CButton::~CButton
EXTRN	?OnChildNotify@CButton@@MAEHIIJPAJ@Z:PROC	; CButton::OnChildNotify
EXTRN	??_ECButton@@UAEPAXI@Z:PROC			; CButton::`vector deleting destructor'
EXTRN	??1CComboBox@@UAE@XZ:PROC			; CComboBox::~CComboBox
EXTRN	?GetRuntimeClass@CEdit@@UBEPAUCRuntimeClass@@XZ:PROC ; CEdit::GetRuntimeClass
EXTRN	??1CEdit@@UAE@XZ:PROC				; CEdit::~CEdit
EXTRN	??_ECEdit@@UAEPAXI@Z:PROC			; CEdit::`vector deleting destructor'
EXTRN	?AfxMessageBox@@YGHPBDII@Z:PROC			; AfxMessageBox
EXTRN	?GetRuntimeClass@CCommonDialog@@UBEPAUCRuntimeClass@@XZ:PROC ; CCommonDialog::GetRuntimeClass
EXTRN	?OnOK@CCommonDialog@@MAEXXZ:PROC		; CCommonDialog::OnOK
EXTRN	?OnCancel@CCommonDialog@@MAEXXZ:PROC		; CCommonDialog::OnCancel
EXTRN	?GetMessageMap@CCommonDialog@@MBEPBUAFX_MSGMAP@@XZ:PROC ; CCommonDialog::GetMessageMap
EXTRN	??_ECCommonDialog@@UAEPAXI@Z:PROC		; CCommonDialog::`vector deleting destructor'
EXTRN	??0CColorDialog@@QAE@KKPAVCWnd@@@Z:PROC		; CColorDialog::CColorDialog
EXTRN	?DoModal@CColorDialog@@UAEHXZ:PROC		; CColorDialog::DoModal
EXTRN	?GetRuntimeClass@CDateTimeCtrl@@UBEPAUCRuntimeClass@@XZ:PROC ; CDateTimeCtrl::GetRuntimeClass
EXTRN	?Create@CDateTimeCtrl@@UAEHKABUtagRECT@@PAVCWnd@@I@Z:PROC ; CDateTimeCtrl::Create
EXTRN	?SetTime@CDateTimeCtrl@@QAEHPBVCTime@ATL@@@Z:PROC ; CDateTimeCtrl::SetTime
EXTRN	?GetTime@CDateTimeCtrl@@QBEKAAVCTime@ATL@@@Z:PROC ; CDateTimeCtrl::GetTime
EXTRN	??1CDateTimeCtrl@@UAE@XZ:PROC			; CDateTimeCtrl::~CDateTimeCtrl
EXTRN	??_ECDateTimeCtrl@@UAEPAXI@Z:PROC		; CDateTimeCtrl::`vector deleting destructor'
EXTRN	?Set@CPenEnvironment@@QAEXABV1@@Z:PROC		; CPenEnvironment::Set
EXTRN	?SetColor@CPenEnvironment@@QAEXABK@Z:PROC	; CPenEnvironment::SetColor
EXTRN	?SetWidth@CPenEnvironment@@QAEXH@Z:PROC		; CPenEnvironment::SetWidth
EXTRN	?SetStyle@CPenEnvironment@@QAEXW4PenStyle@CToolEnumData@@@Z:PROC ; CPenEnvironment::SetStyle
EXTRN	?GetColor@CPenEnvironment@@QBEKXZ:PROC		; CPenEnvironment::GetColor
EXTRN	?GetWidth@CPenEnvironment@@QBEHXZ:PROC		; CPenEnvironment::GetWidth
EXTRN	?GetStyle@CPenEnvironment@@QBE?AW4PenStyle@CToolEnumData@@XZ:PROC ; CPenEnvironment::GetStyle
EXTRN	?GetStrVert@CDataTypeEnvironment@@QBE?AV?$CStringT@DV?$StrTraitMFC_DLL@DV?$ChTraitsCRT@D@ATL@@@@@ATL@@XZ:PROC ; CDataTypeEnvironment::GetStrVert
EXTRN	??0CLineExtEnvironment@@QAE@XZ:PROC		; CLineExtEnvironment::CLineExtEnvironment
EXTRN	??0CLineExtEnvironment@@QAE@PAV0@@Z:PROC	; CLineExtEnvironment::CLineExtEnvironment
EXTRN	?Set@CLineExtEnvironment@@QAEXABV1@@Z:PROC	; CLineExtEnvironment::Set
EXTRN	?SetLineExt@CLineExtEnvironment@@QAEXABH0@Z:PROC ; CLineExtEnvironment::SetLineExt
EXTRN	?GetLeftExt@CLineExtEnvironment@@QBEHXZ:PROC	; CLineExtEnvironment::GetLeftExt
EXTRN	?GetRightExt@CLineExtEnvironment@@QBEHXZ:PROC	; CLineExtEnvironment::GetRightExt
EXTRN	?SetColor@CTextEnvironment@@QAEXABK@Z:PROC	; CTextEnvironment::SetColor
EXTRN	?GetTextEnvironment@CTextPosition@@QAEAAVCTextEnvironment@@XZ:PROC ; CTextPosition::GetTextEnvironment
EXTRN	??0CTextShowPosition@@QAE@XZ:PROC		; CTextShowPosition::CTextShowPosition
EXTRN	?SetShow@CTextShowPosition@@QAEX_N@Z:PROC	; CTextShowPosition::SetShow
EXTRN	?IsShow@CTextShowPosition@@QBE_NXZ:PROC		; CTextShowPosition::IsShow
EXTRN	??0CTextHorzPosition@@QAE@XZ:PROC		; CTextHorzPosition::CTextHorzPosition
EXTRN	?SetLeft@CTextHorzPosition@@QAEX_N@Z:PROC	; CTextHorzPosition::SetLeft
EXTRN	?SetRight@CTextHorzPosition@@QAEX_N@Z:PROC	; CTextHorzPosition::SetRight
EXTRN	?SetRightRate@CTextHorzPosition@@QAEX_N@Z:PROC	; CTextHorzPosition::SetRightRate
EXTRN	?GetLeft@CTextHorzPosition@@QBE_NXZ:PROC	; CTextHorzPosition::GetLeft
EXTRN	?GetRight@CTextHorzPosition@@QBE_NXZ:PROC	; CTextHorzPosition::GetRight
EXTRN	?GetRightRate@CTextHorzPosition@@QBE_NXZ:PROC	; CTextHorzPosition::GetRightRate
EXTRN	??0CTextVertPosition@@QAE@XZ:PROC		; CTextVertPosition::CTextVertPosition
EXTRN	?SetTop@CTextVertPosition@@QAEX_N@Z:PROC	; CTextVertPosition::SetTop
EXTRN	?SetBottom@CTextVertPosition@@QAEX_N@Z:PROC	; CTextVertPosition::SetBottom
EXTRN	?GetTop@CTextVertPosition@@QBE_NXZ:PROC		; CTextVertPosition::GetTop
EXTRN	?GetBottom@CTextVertPosition@@QBE_NXZ:PROC	; CTextVertPosition::GetBottom
EXTRN	??0CTextHorzVertPosition@@QAE@XZ:PROC		; CTextHorzVertPosition::CTextHorzVertPosition
EXTRN	?SetLeft@CTextHorzVertPosition@@QAEX_N@Z:PROC	; CTextHorzVertPosition::SetLeft
EXTRN	?SetRight@CTextHorzVertPosition@@QAEX_N@Z:PROC	; CTextHorzVertPosition::SetRight
EXTRN	?SetTop@CTextHorzVertPosition@@QAEX_N@Z:PROC	; CTextHorzVertPosition::SetTop
EXTRN	?SetBottom@CTextHorzVertPosition@@QAEX_N@Z:PROC	; CTextHorzVertPosition::SetBottom
EXTRN	?GetLeft@CTextHorzVertPosition@@QBE_NXZ:PROC	; CTextHorzVertPosition::GetLeft
EXTRN	?GetRight@CTextHorzVertPosition@@QBE_NXZ:PROC	; CTextHorzVertPosition::GetRight
EXTRN	?GetTop@CTextHorzVertPosition@@QBE_NXZ:PROC	; CTextHorzVertPosition::GetTop
EXTRN	?GetBottom@CTextHorzVertPosition@@QBE_NXZ:PROC	; CTextHorzVertPosition::GetBottom
EXTRN	___std_exception_copy:PROC
EXTRN	___std_exception_destroy:PROC
EXTRN	??_Eexception@std@@UAEPAXI@Z:PROC		; std::exception::`vector deleting destructor'
EXTRN	??_Ebad_alloc@std@@UAEPAXI@Z:PROC		; std::bad_alloc::`vector deleting destructor'
EXTRN	??_Ebad_array_new_length@std@@UAEPAXI@Z:PROC	; std::bad_array_new_length::`vector deleting destructor'
EXTRN	?_Xlength_error@std@@YAXPBD@Z:PROC		; std::_Xlength_error
EXTRN	?GetX@CCoordinate@@QBENXZ:PROC			; CCoordinate::GetX
EXTRN	?GetY@CCoordinate@@QBENXZ:PROC			; CCoordinate::GetY
EXTRN	?SetX@CCoordinate@@QAEXABNH@Z:PROC		; CCoordinate::SetX
EXTRN	?SetY@CCoordinate@@QAEXABN@Z:PROC		; CCoordinate::SetY
EXTRN	??0CColorButton@@QAE@XZ:PROC			; CColorButton::CColorButton
EXTRN	?SetColor@CColorButton@@QAEXABK@Z:PROC		; CColorButton::SetColor
EXTRN	?GetColor@CColorButton@@QBEKXZ:PROC		; CColorButton::GetColor
EXTRN	?GetCount@CElementPointList@@QBEHXZ:PROC	; CElementPointList::GetCount
EXTRN	?GetAt@CElementPointList@@QAEPAVCCoordinate@@H@Z:PROC ; CElementPointList::GetAt
EXTRN	??0CBitmapComboBox@@QAE@XZ:PROC			; CBitmapComboBox::CBitmapComboBox
EXTRN	?LoadBitmapA@CBitmapComboBox@@QAEXHI@Z:PROC	; CBitmapComboBox::LoadBitmapA
EXTRN	??_ECDlgAnalysisToolSet@@UAEPAXI@Z:PROC		; CDlgAnalysisToolSet::`vector deleting destructor'
EXTRN	?DoubleToString@CDataConversion@@SA?AV?$CStringT@DV?$StrTraitMFC_DLL@DV?$ChTraitsCRT@D@ATL@@@@@ATL@@ABNABV23@@Z:PROC ; CDataConversion::DoubleToString
EXTRN	?GetDataToDec@CDataConversion@@SAHV?$CStringT@DV?$StrTraitMFC_DLL@DV?$ChTraitsCRT@D@ATL@@@@@ATL@@0AAV23@@Z:PROC ; CDataConversion::GetDataToDec
EXTRN	@__security_check_cookie@4:PROC
EXTRN	__CxxThrowException@8:PROC
EXTRN	___CxxFrameHandler3:PROC
EXTRN	__ltod3:PROC
EXTRN	_memmove:PROC
EXTRN	_memset:PROC
EXTRN	??_7type_info@@6B@:QWORD			; type_info::`vftable'
EXTRN	?g_iMetaTable@@3VIMetaTable@@A:BYTE		; g_iMetaTable
EXTRN	___security_cookie:DWORD
EXTRN	__fltused:DWORD
;	COMDAT __xmm@00100000000000000010000000000000
CONST	SEGMENT
__xmm@00100000000000000010000000000000 DB 00H, 00H, 00H, 00H, 00H, 00H, 010H
	DB	00H, 00H, 00H, 00H, 00H, 00H, 00H, 010H, 00H
CONST	ENDS
;	COMDAT __real@0000000000000000
CONST	SEGMENT
__real@0000000000000000 DQ 00000000000000000r	; 0
CONST	ENDS
;	COMDAT ??_R1A@?0A@EA@CDlgAnalysisToolSet@@8
rdata$r	SEGMENT
??_R1A@?0A@EA@CDlgAnalysisToolSet@@8 DD FLAT:??_R0?AVCDlgAnalysisToolSet@@@8 ; CDlgAnalysisToolSet::`RTTI Base Class Descriptor at (0,-1,0,64)'
	DD	04H
	DD	00H
	DD	0ffffffffH
	DD	00H
	DD	040H
	DD	FLAT:??_R3CDlgAnalysisToolSet@@8
rdata$r	ENDS
;	COMDAT ??_R2CDlgAnalysisToolSet@@8
rdata$r	SEGMENT
??_R2CDlgAnalysisToolSet@@8 DD FLAT:??_R1A@?0A@EA@CDlgAnalysisToolSet@@8 ; CDlgAnalysisToolSet::`RTTI Base Class Array'
	DD	FLAT:??_R1A@?0A@EA@CDialog@@8
	DD	FLAT:??_R1A@?0A@EA@CWnd@@8
	DD	FLAT:??_R1A@?0A@EA@CCmdTarget@@8
	DD	FLAT:??_R1A@?0A@EA@CObject@@8
rdata$r	ENDS
;	COMDAT ??_R3CDlgAnalysisToolSet@@8
rdata$r	SEGMENT
??_R3CDlgAnalysisToolSet@@8 DD 00H			; CDlgAnalysisToolSet::`RTTI Class Hierarchy Descriptor'
	DD	00H
	DD	05H
	DD	FLAT:??_R2CDlgAnalysisToolSet@@8
rdata$r	ENDS
;	COMDAT ??_R0?AVCDlgAnalysisToolSet@@@8
data$rs	SEGMENT
??_R0?AVCDlgAnalysisToolSet@@@8 DD FLAT:??_7type_info@@6B@ ; CDlgAnalysisToolSet `RTTI Type Descriptor'
	DD	00H
	DB	'.?AVCDlgAnalysisToolSet@@', 00H
data$rs	ENDS
;	COMDAT ??_R4CDlgAnalysisToolSet@@6B@
rdata$r	SEGMENT
??_R4CDlgAnalysisToolSet@@6B@ DD 00H			; CDlgAnalysisToolSet::`RTTI Complete Object Locator'
	DD	00H
	DD	00H
	DD	FLAT:??_R0?AVCDlgAnalysisToolSet@@@8
	DD	FLAT:??_R3CDlgAnalysisToolSet@@8
rdata$r	ENDS
;	COMDAT ??_R1A@?0A@EA@bad_array_new_length@std@@8
rdata$r	SEGMENT
??_R1A@?0A@EA@bad_array_new_length@std@@8 DD FLAT:??_R0?AVbad_array_new_length@std@@@8 ; std::bad_array_new_length::`RTTI Base Class Descriptor at (0,-1,0,64)'
	DD	02H
	DD	00H
	DD	0ffffffffH
	DD	00H
	DD	040H
	DD	FLAT:??_R3bad_array_new_length@std@@8
rdata$r	ENDS
;	COMDAT ??_R2bad_array_new_length@std@@8
rdata$r	SEGMENT
??_R2bad_array_new_length@std@@8 DD FLAT:??_R1A@?0A@EA@bad_array_new_length@std@@8 ; std::bad_array_new_length::`RTTI Base Class Array'
	DD	FLAT:??_R1A@?0A@EA@bad_alloc@std@@8
	DD	FLAT:??_R1A@?0A@EA@exception@std@@8
rdata$r	ENDS
;	COMDAT ??_R3bad_array_new_length@std@@8
rdata$r	SEGMENT
??_R3bad_array_new_length@std@@8 DD 00H			; std::bad_array_new_length::`RTTI Class Hierarchy Descriptor'
	DD	00H
	DD	03H
	DD	FLAT:??_R2bad_array_new_length@std@@8
rdata$r	ENDS
;	COMDAT ??_R4bad_array_new_length@std@@6B@
rdata$r	SEGMENT
??_R4bad_array_new_length@std@@6B@ DD 00H		; std::bad_array_new_length::`RTTI Complete Object Locator'
	DD	00H
	DD	00H
	DD	FLAT:??_R0?AVbad_array_new_length@std@@@8
	DD	FLAT:??_R3bad_array_new_length@std@@8
rdata$r	ENDS
;	COMDAT ??_R1A@?0A@EA@bad_alloc@std@@8
rdata$r	SEGMENT
??_R1A@?0A@EA@bad_alloc@std@@8 DD FLAT:??_R0?AVbad_alloc@std@@@8 ; std::bad_alloc::`RTTI Base Class Descriptor at (0,-1,0,64)'
	DD	01H
	DD	00H
	DD	0ffffffffH
	DD	00H
	DD	040H
	DD	FLAT:??_R3bad_alloc@std@@8
rdata$r	ENDS
;	COMDAT ??_R2bad_alloc@std@@8
rdata$r	SEGMENT
??_R2bad_alloc@std@@8 DD FLAT:??_R1A@?0A@EA@bad_alloc@std@@8 ; std::bad_alloc::`RTTI Base Class Array'
	DD	FLAT:??_R1A@?0A@EA@exception@std@@8
rdata$r	ENDS
;	COMDAT ??_R3bad_alloc@std@@8
rdata$r	SEGMENT
??_R3bad_alloc@std@@8 DD 00H				; std::bad_alloc::`RTTI Class Hierarchy Descriptor'
	DD	00H
	DD	02H
	DD	FLAT:??_R2bad_alloc@std@@8
rdata$r	ENDS
;	COMDAT ??_R4bad_alloc@std@@6B@
rdata$r	SEGMENT
??_R4bad_alloc@std@@6B@ DD 00H				; std::bad_alloc::`RTTI Complete Object Locator'
	DD	00H
	DD	00H
	DD	FLAT:??_R0?AVbad_alloc@std@@@8
	DD	FLAT:??_R3bad_alloc@std@@8
rdata$r	ENDS
;	COMDAT ??_R1A@?0A@EA@exception@std@@8
rdata$r	SEGMENT
??_R1A@?0A@EA@exception@std@@8 DD FLAT:??_R0?AVexception@std@@@8 ; std::exception::`RTTI Base Class Descriptor at (0,-1,0,64)'
	DD	00H
	DD	00H
	DD	0ffffffffH
	DD	00H
	DD	040H
	DD	FLAT:??_R3exception@std@@8
rdata$r	ENDS
;	COMDAT ??_R2exception@std@@8
rdata$r	SEGMENT
??_R2exception@std@@8 DD FLAT:??_R1A@?0A@EA@exception@std@@8 ; std::exception::`RTTI Base Class Array'
rdata$r	ENDS
;	COMDAT ??_R3exception@std@@8
rdata$r	SEGMENT
??_R3exception@std@@8 DD 00H				; std::exception::`RTTI Class Hierarchy Descriptor'
	DD	00H
	DD	01H
	DD	FLAT:??_R2exception@std@@8
rdata$r	ENDS
;	COMDAT ??_R4exception@std@@6B@
rdata$r	SEGMENT
??_R4exception@std@@6B@ DD 00H				; std::exception::`RTTI Complete Object Locator'
	DD	00H
	DD	00H
	DD	FLAT:??_R0?AVexception@std@@@8
	DD	FLAT:??_R3exception@std@@8
rdata$r	ENDS
;	COMDAT ??_C@_0BC@KBDMBKEH@deque?$DMT?$DO?5too?5long@
CONST	SEGMENT
??_C@_0BC@KBDMBKEH@deque?$DMT?$DO?5too?5long@ DB 'deque<T> too long', 00H ; `string'
CONST	ENDS
;	COMDAT ??_C@_0P@NDLMDLNF@?$CF04d?$CF02d?$CF02d?$CFs@
CONST	SEGMENT
??_C@_0P@NDLMDLNF@?$CF04d?$CF02d?$CF02d?$CFs@ DB '%04d%02d%02d%s', 00H ; `string'
CONST	ENDS
;	COMDAT ??_C@_06GEKNBBDK@000000@
CONST	SEGMENT
??_C@_06GEKNBBDK@000000@ DB '000000', 00H		; `string'
CONST	ENDS
;	COMDAT ??_C@_0M@NFOMEIHF@?$CFs?1?$CFs?9?$CFs?3?$CFs@
CONST	SEGMENT
??_C@_0M@NFOMEIHF@?$CFs?1?$CFs?9?$CFs?3?$CFs@ DB '%s/%s-%s:%s', 00H ; `string'
CONST	ENDS
;	COMDAT ??_C@_01GBGANLPD@0@
CONST	SEGMENT
??_C@_01GBGANLPD@0@ DB '0', 00H				; `string'
CONST	ENDS
;	COMDAT ??_C@_08IGKLELNK@?$CFs?1?$CFs?3?$CFs@
CONST	SEGMENT
??_C@_08IGKLELNK@?$CFs?1?$CFs?3?$CFs@ DB '%s/%s:%s', 00H ; `string'
CONST	ENDS
;	COMDAT ??_C@_03EICDNICE@?$CF?4f@
CONST	SEGMENT
??_C@_03EICDNICE@?$CF?4f@ DB '%.f', 00H			; `string'
CONST	ENDS
;	COMDAT ??_C@_0P@IMPIBBAB@YYYYMMDDHHMMSS@
CONST	SEGMENT
??_C@_0P@IMPIBBAB@YYYYMMDDHHMMSS@ DB 'YYYYMMDDHHMMSS', 00H ; `string'
CONST	ENDS
;	COMDAT ??_C@_0O@PIBJMGIC@RightRateText@
CONST	SEGMENT
??_C@_0O@PIBJMGIC@RightRateText@ DB 'RightRateText', 00H ; `string'
CONST	ENDS
;	COMDAT ??_C@_0L@OIHNKLFE@LineWeight@
CONST	SEGMENT
??_C@_0L@OIHNKLFE@LineWeight@ DB 'LineWeight', 00H	; `string'
CONST	ENDS
;	COMDAT ??_C@_09LNOEOIHF@LineStyle@
CONST	SEGMENT
??_C@_09LNOEOIHF@LineStyle@ DB 'LineStyle', 00H		; `string'
CONST	ENDS
;	COMDAT ??_C@_03JALODAI@?$CFld@
CONST	SEGMENT
??_C@_03JALODAI@?$CFld@ DB '%ld', 00H			; `string'
CONST	ENDS
;	COMDAT ??_C@_09MJAANBBP@LineColor@
CONST	SEGMENT
??_C@_09MJAANBBP@LineColor@ DB 'LineColor', 00H		; `string'
CONST	ENDS
;	COMDAT ??_C@_0L@IDNOMKNG@FillRegion@
CONST	SEGMENT
??_C@_0L@IDNOMKNG@FillRegion@ DB 'FillRegion', 00H	; `string'
CONST	ENDS
;	COMDAT ??_C@_09LIIMEMPE@HLPercent@
CONST	SEGMENT
??_C@_09LIIMEMPE@HLPercent@ DB 'HLPercent', 00H		; `string'
CONST	ENDS
;	COMDAT ??_C@_0O@GNLODFPJ@PriceRangeDiv@
CONST	SEGMENT
??_C@_0O@GNLODFPJ@PriceRangeDiv@ DB 'PriceRangeDiv', 00H ; `string'
CONST	ENDS
;	COMDAT ??_C@_07FEGHFPHL@EquiDiv@
CONST	SEGMENT
??_C@_07FEGHFPHL@EquiDiv@ DB 'EquiDiv', 00H		; `string'
CONST	ENDS
;	COMDAT ??_C@_08JBGJKNHH@RightExt@
CONST	SEGMENT
??_C@_08JBGJKNHH@RightExt@ DB 'RightExt', 00H		; `string'
CONST	ENDS
;	COMDAT ??_C@_07FCOFBDCL@LeftExt@
CONST	SEGMENT
??_C@_07FCOFBDCL@LeftExt@ DB 'LeftExt', 00H		; `string'
CONST	ENDS
;	COMDAT ??_C@_09HDEKPJNE@RightText@
CONST	SEGMENT
??_C@_09HDEKPJNE@RightText@ DB 'RightText', 00H		; `string'
CONST	ENDS
;	COMDAT ??_C@_08BBFEGILF@LeftText@
CONST	SEGMENT
??_C@_08BBFEGILF@LeftText@ DB 'LeftText', 00H		; `string'
CONST	ENDS
;	COMDAT ??_C@_0L@KGKLHHNL@BottomText@
CONST	SEGMENT
??_C@_0L@KGKLHHNL@BottomText@ DB 'BottomText', 00H	; `string'
CONST	ENDS
;	COMDAT ??_C@_07ONLHAHEH@TopText@
CONST	SEGMENT
??_C@_07ONLHAHEH@TopText@ DB 'TopText', 00H		; `string'
CONST	ENDS
;	COMDAT ??_C@_04HDOCAJNK@?$CFs?$CFs@
CONST	SEGMENT
??_C@_04HDOCAJNK@?$CFs?$CFs@ DB '%s%s', 00H		; `string'
CONST	ENDS
;	COMDAT ?messageMap@?1??GetThisMessageMap@CDlgAnalysisToolSet@@KGPBUAFX_MSGMAP@@XZ@4U3@B
CONST	SEGMENT
?messageMap@?1??GetThisMessageMap@CDlgAnalysisToolSet@@KGPBUAFX_MSGMAP@@XZ@4U3@B DD FLAT:?GetThisMessageMap@CDialog@@KGPBUAFX_MSGMAP@@XZ ; `CDlgAnalysisToolSet::GetThisMessageMap'::`2'::messageMap
	DD	FLAT:?_messageEntries@?1??GetThisMessageMap@CDlgAnalysisToolSet@@KGPBUAFX_MSGMAP@@XZ@4QBUAFX_MSGMAP_ENTRY@@B
CONST	ENDS
;	COMDAT ?_messageEntries@?1??GetThisMessageMap@CDlgAnalysisToolSet@@KGPBUAFX_MSGMAP@@XZ@4QBUAFX_MSGMAP_ENTRY@@B
CONST	SEGMENT
?_messageEntries@?1??GetThisMessageMap@CDlgAnalysisToolSet@@KGPBUAFX_MSGMAP@@XZ@4QBUAFX_MSGMAP_ENTRY@@B DD 0111H ; `CDlgAnalysisToolSet::GetThisMessageMap'::`2'::_messageEntries
	DD	00H
	DD	01f45H
	DD	01f45H
	DD	03aH
	DD	FLAT:?OnColor@CDlgAnalysisToolSet@@IAEXXZ
	DD	0111H
	DD	00H
	DD	03H
	DD	03H
	DD	03aH
	DD	FLAT:?OnApplyBt@CDlgAnalysisToolSet@@IAEXXZ
	DD	0111H
	DD	01H
	DD	02363H
	DD	02363H
	DD	03aH
	DD	FLAT:?OnSelchangeWidth@CDlgAnalysisToolSet@@IAEXXZ
	DD	0111H
	DD	01H
	DD	0272eH
	DD	0272eH
	DD	03aH
	DD	FLAT:?OnSelchangeStyle@CDlgAnalysisToolSet@@IAEXXZ
	DD	04eH
	DD	0fd09H
	DD	042ceH
	DD	042ceH
	DD	03eH
	DD	FLAT:?OnDatetimechangeDatetimepickerXdate1@CDlgAnalysisToolSet@@IAEXPAUtagNMHDR@@PAJ@Z
	DD	04eH
	DD	0fd09H
	DD	042cfH
	DD	042cfH
	DD	03eH
	DD	FLAT:?OnDatetimechangeDatetimepickerXdate2@CDlgAnalysisToolSet@@IAEXPAUtagNMHDR@@PAJ@Z
	DD	04eH
	DD	0fd09H
	DD	042d0H
	DD	042d0H
	DD	03eH
	DD	FLAT:?OnDatetimechangeDatetimepickerXdate3@CDlgAnalysisToolSet@@IAEXPAUtagNMHDR@@PAJ@Z
	DD	0111H
	DD	00H
	DD	0fbbH
	DD	0fbbH
	DD	03aH
	DD	FLAT:?OnOkBt@CDlgAnalysisToolSet@@IAEXXZ
	DD	0111H
	DD	00H
	DD	0fbcH
	DD	0fbcH
	DD	03aH
	DD	FLAT:?OnCancelBt@CDlgAnalysisToolSet@@IAEXXZ
	DD	0111H
	DD	00H
	DD	0fa1H
	DD	0fa1H
	DD	03aH
	DD	FLAT:?OnRightText@CDlgAnalysisToolSet@@IAEXXZ
	DD	00H
	DD	00H
	DD	00H
	DD	00H
	DD	00H
	DD	00H
CONST	ENDS
;	COMDAT ??_C@_0BA@ENJOCHIO@LoadResourceDLL@
CONST	SEGMENT
??_C@_0BA@ENJOCHIO@LoadResourceDLL@ DB 'LoadResourceDLL', 00H ; `string'
CONST	ENDS
;	COMDAT ??_C@_0BF@EGELCGDD@GetCurrentLanguageID@
CONST	SEGMENT
??_C@_0BF@EGELCGDD@GetCurrentLanguageID@ DB 'GetCurrentLanguageID', 00H ; `string'
CONST	ENDS
;	COMDAT ??_7CDlgAnalysisToolSet@@6B@
CONST	SEGMENT
??_7CDlgAnalysisToolSet@@6B@ DD FLAT:??_R4CDlgAnalysisToolSet@@6B@ ; CDlgAnalysisToolSet::`vftable'
	DD	FLAT:?GetRuntimeClass@CDialog@@UBEPAUCRuntimeClass@@XZ
	DD	FLAT:??_ECDlgAnalysisToolSet@@UAEPAXI@Z
	DD	FLAT:?Serialize@CObject@@UAEXAAVCArchive@@@Z
	DD	FLAT:?AssertValid@CObject@@UBEXXZ
	DD	FLAT:?Dump@CObject@@UBEXAAVCDumpContext@@@Z
	DD	FLAT:?OnCmdMsg@CDialog@@UAEHIHPAXPAUAFX_CMDHANDLERINFO@@@Z
	DD	FLAT:?OnFinalRelease@CWnd@@UAEXXZ
	DD	FLAT:?IsInvokeAllowed@CCmdTarget@@UAEHJ@Z
	DD	FLAT:?GetDispatchIID@CCmdTarget@@UAEHPAU_GUID@@@Z
	DD	FLAT:?GetTypeInfoCount@CCmdTarget@@UAEIXZ
	DD	FLAT:?GetTypeLibCache@CCmdTarget@@UAEPAVCTypeLibCache@@XZ
	DD	FLAT:?GetTypeLib@CCmdTarget@@UAEJKPAPAUITypeLib@@@Z
	DD	FLAT:?GetMessageMap@CDlgAnalysisToolSet@@MBEPBUAFX_MSGMAP@@XZ
	DD	FLAT:?GetCommandMap@CCmdTarget@@MBEPBUAFX_OLECMDMAP@@XZ
	DD	FLAT:?GetDispatchMap@CCmdTarget@@MBEPBUAFX_DISPMAP@@XZ
	DD	FLAT:?GetConnectionMap@CCmdTarget@@MBEPBUAFX_CONNECTIONMAP@@XZ
	DD	FLAT:?GetInterfaceMap@CWnd@@MBEPBUAFX_INTERFACEMAP@@XZ
	DD	FLAT:?GetEventSinkMap@CCmdTarget@@MBEPBUAFX_EVENTSINKMAP@@XZ
	DD	FLAT:?OnCreateAggregates@CCmdTarget@@UAEHXZ
	DD	FLAT:?GetInterfaceHook@CCmdTarget@@UAEPAUIUnknown@@PBX@Z
	DD	FLAT:?GetExtraConnectionPoints@CCmdTarget@@MAEHPAVCPtrArray@@@Z
	DD	FLAT:?GetConnectionHook@CCmdTarget@@MAEPAUIConnectionPoint@@ABU_GUID@@@Z
	DD	FLAT:?PreSubclassWindow@CWnd@@UAEXXZ
	DD	FLAT:?Create@CWnd@@UAEHPBD0KABUtagRECT@@PAV1@IPAUCCreateContext@@@Z
	DD	FLAT:?CreateEx@CWnd@@UAEHKPBD0KABUtagRECT@@PAV1@IPAX@Z
	DD	FLAT:?CreateEx@CWnd@@UAEHKPBD0KHHHHPAUHWND__@@PAUHMENU__@@PAX@Z
	DD	FLAT:?DestroyWindow@CWnd@@UAEHXZ
	DD	FLAT:?PreCreateWindow@CWnd@@UAEHAAUtagCREATESTRUCTA@@@Z
	DD	FLAT:?CalcWindowRect@CWnd@@UAEXPAUtagRECT@@I@Z
	DD	FLAT:?GetMenu@CWnd@@UBEPAVCMenu@@XZ
	DD	FLAT:?SetMenu@CWnd@@UAEHPAVCMenu@@@Z
	DD	FLAT:?OnToolHitTest@CWnd@@UBEHVCPoint@@PAUtagTOOLINFOA@@@Z
	DD	FLAT:?GetScrollBarCtrl@CWnd@@UBEPAVCScrollBar@@H@Z
	DD	FLAT:?WinHelpA@CWnd@@UAEXKI@Z
	DD	FLAT:?HtmlHelpA@CWnd@@UAEXKI@Z
	DD	FLAT:?WinHelpInternal@CWnd@@UAEXKI@Z
	DD	FLAT:?ContinueModal@CWnd@@UAEHXZ
	DD	FLAT:?EndModalLoop@CWnd@@UAEXH@Z
	DD	FLAT:?OnDrawIconicThumbnailOrLivePreview@CWnd@@UAEXAAVCDC@@VCRect@@VCSize@@HAAH@Z
	DD	FLAT:?EnsureStdObj@CWnd@@UAEJXZ
	DD	FLAT:?get_accParent@CWnd@@UAEJPAPAUIDispatch@@@Z
	DD	FLAT:?get_accChildCount@CWnd@@UAEJPAJ@Z
	DD	FLAT:?get_accChild@CWnd@@UAEJUtagVARIANT@@PAPAUIDispatch@@@Z
	DD	FLAT:?get_accName@CWnd@@UAEJUtagVARIANT@@PAPA_W@Z
	DD	FLAT:?get_accValue@CWnd@@UAEJUtagVARIANT@@PAPA_W@Z
	DD	FLAT:?get_accDescription@CWnd@@UAEJUtagVARIANT@@PAPA_W@Z
	DD	FLAT:?get_accRole@CWnd@@UAEJUtagVARIANT@@PAU2@@Z
	DD	FLAT:?get_accState@CWnd@@UAEJUtagVARIANT@@PAU2@@Z
	DD	FLAT:?get_accHelp@CWnd@@UAEJUtagVARIANT@@PAPA_W@Z
	DD	FLAT:?get_accHelpTopic@CWnd@@UAEJPAPA_WUtagVARIANT@@PAJ@Z
	DD	FLAT:?get_accKeyboardShortcut@CWnd@@UAEJUtagVARIANT@@PAPA_W@Z
	DD	FLAT:?get_accFocus@CWnd@@UAEJPAUtagVARIANT@@@Z
	DD	FLAT:?get_accSelection@CWnd@@UAEJPAUtagVARIANT@@@Z
	DD	FLAT:?get_accDefaultAction@CWnd@@UAEJUtagVARIANT@@PAPA_W@Z
	DD	FLAT:?accSelect@CWnd@@UAEJJUtagVARIANT@@@Z
	DD	FLAT:?accLocation@CWnd@@UAEJPAJ000UtagVARIANT@@@Z
	DD	FLAT:?accNavigate@CWnd@@UAEJJUtagVARIANT@@PAU2@@Z
	DD	FLAT:?accHitTest@CWnd@@UAEJJJPAUtagVARIANT@@@Z
	DD	FLAT:?accDoDefaultAction@CWnd@@UAEJUtagVARIANT@@@Z
	DD	FLAT:?put_accName@CWnd@@UAEJUtagVARIANT@@PA_W@Z
	DD	FLAT:?put_accValue@CWnd@@UAEJUtagVARIANT@@PA_W@Z
	DD	FLAT:?SetProxy@CWnd@@UAEJPAUIAccessibleProxy@@@Z
	DD	FLAT:?CreateAccessibleProxy@CWnd@@UAEJIJPAJ@Z
	DD	FLAT:?OnCommand@CWnd@@MAEHIJ@Z
	DD	FLAT:?OnNotify@CWnd@@MAEHIJPAJ@Z
	DD	FLAT:?GetSuperWndProcAddr@CWnd@@MAEPAP6GJPAUHWND__@@IIJ@ZXZ
	DD	FLAT:?DoDataExchange@CDlgAnalysisToolSet@@MAEXPAVCDataExchange@@@Z
	DD	FLAT:?BeginModalState@CWnd@@UAEXXZ
	DD	FLAT:?EndModalState@CWnd@@UAEXXZ
	DD	FLAT:?PreTranslateMessage@CDialog@@UAEHPAUtagMSG@@@Z
	DD	FLAT:?OnAmbientProperty@CWnd@@UAEHPAVCOleControlSite@@JPAUtagVARIANT@@@Z
	DD	FLAT:?WindowProc@CWnd@@MAEJIIJ@Z
	DD	FLAT:?OnWndMsg@CWnd@@MAEHIIJPAJ@Z
	DD	FLAT:?DefWindowProcA@CWnd@@MAEJIIJ@Z
	DD	FLAT:?PostNcDestroy@CWnd@@MAEXXZ
	DD	FLAT:?OnChildNotify@CWnd@@MAEHIIJPAJ@Z
	DD	FLAT:?OnTouchInputs@CWnd@@MAEHIPAUtagTOUCHINPUT@@@Z
	DD	FLAT:?OnTouchInput@CWnd@@MAEHVCPoint@@HHPAUtagTOUCHINPUT@@@Z
	DD	FLAT:?GetGestureStatus@CWnd@@MAEKVCPoint@@@Z
	DD	FLAT:?OnGestureZoom@CWnd@@MAEHVCPoint@@J@Z
	DD	FLAT:?OnGesturePan@CWnd@@MAEHVCPoint@@0@Z
	DD	FLAT:?OnGestureRotate@CWnd@@MAEHVCPoint@@N@Z
	DD	FLAT:?OnGestureTwoFingerTap@CWnd@@MAEHVCPoint@@@Z
	DD	FLAT:?OnGesturePressAndTap@CWnd@@MAEHVCPoint@@J@Z
	DD	FLAT:?ResizeDynamicLayout@CWnd@@MAEXXZ
	DD	FLAT:?CheckAutoCenter@CDialog@@UAEHXZ
	DD	FLAT:?IsFrameWnd@CWnd@@UBEHXZ
	DD	FLAT:?CreateControlContainer@CWnd@@MAEHPAPAVCOleControlContainer@@@Z
	DD	FLAT:?CreateControlSite@CWnd@@MAEHPAVCOleControlContainer@@PAPAVCOleControlSite@@IABU_GUID@@@Z
	DD	FLAT:?SetOccDialogInfo@CDialog@@MAEHPAU_AFX_OCC_DIALOG_INFO@@@Z
	DD	FLAT:?GetOccDialogInfo@CDialog@@MAEPAU_AFX_OCC_DIALOG_INFO@@XZ
	DD	FLAT:?Create@CDialog@@UAEHIPAVCWnd@@@Z
	DD	FLAT:?Create@CDialog@@UAEHPBDPAVCWnd@@@Z
	DD	FLAT:?CreateIndirect@CDialog@@UAEHPAXPAVCWnd@@@Z
	DD	FLAT:?CreateIndirect@CDialog@@UAEHPBUDLGTEMPLATE@@PAVCWnd@@PAX@Z
	DD	FLAT:?DoModal@CDialog@@UAEHXZ
	DD	FLAT:?OnInitDialog@CDlgAnalysisToolSet@@MAEHXZ
	DD	FLAT:?OnSetFont@CDialog@@UAEXPAVCFont@@@Z
	DD	FLAT:?OnOK@CDialog@@MAEXXZ
	DD	FLAT:?OnCancel@CDialog@@MAEXXZ
	DD	FLAT:?PreInitDialog@CDialog@@MAEXXZ
CONST	ENDS
;	COMDAT ??_C@_0BF@BMLEKMON@AnalysisPropInfo?4ans@
CONST	SEGMENT
??_C@_0BF@BMLEKMON@AnalysisPropInfo?4ans@ DB 'AnalysisPropInfo.ans', 00H ; `string'
CONST	ENDS
;	COMDAT __CT??_R0?AVexception@std@@@8??0exception@std@@QAE@ABV01@@Z12
xdata$x	SEGMENT
__CT??_R0?AVexception@std@@@8??0exception@std@@QAE@ABV01@@Z12 DD 00H
	DD	FLAT:??_R0?AVexception@std@@@8
	DD	00H
	DD	0ffffffffH
	ORG $+4
	DD	0cH
	DD	FLAT:??0exception@std@@QAE@ABV01@@Z
xdata$x	ENDS
;	COMDAT ??_R0?AVexception@std@@@8
data$r	SEGMENT
??_R0?AVexception@std@@@8 DD FLAT:??_7type_info@@6B@	; std::exception `RTTI Type Descriptor'
	DD	00H
	DB	'.?AVexception@std@@', 00H
data$r	ENDS
;	COMDAT __CT??_R0?AVbad_alloc@std@@@8??0bad_alloc@std@@QAE@ABV01@@Z12
xdata$x	SEGMENT
__CT??_R0?AVbad_alloc@std@@@8??0bad_alloc@std@@QAE@ABV01@@Z12 DD 010H
	DD	FLAT:??_R0?AVbad_alloc@std@@@8
	DD	00H
	DD	0ffffffffH
	ORG $+4
	DD	0cH
	DD	FLAT:??0bad_alloc@std@@QAE@ABV01@@Z
xdata$x	ENDS
;	COMDAT ??_R0?AVbad_alloc@std@@@8
data$r	SEGMENT
??_R0?AVbad_alloc@std@@@8 DD FLAT:??_7type_info@@6B@	; std::bad_alloc `RTTI Type Descriptor'
	DD	00H
	DB	'.?AVbad_alloc@std@@', 00H
data$r	ENDS
;	COMDAT __CT??_R0?AVbad_array_new_length@std@@@8??0bad_array_new_length@std@@QAE@ABV01@@Z12
xdata$x	SEGMENT
__CT??_R0?AVbad_array_new_length@std@@@8??0bad_array_new_length@std@@QAE@ABV01@@Z12 DD 00H
	DD	FLAT:??_R0?AVbad_array_new_length@std@@@8
	DD	00H
	DD	0ffffffffH
	ORG $+4
	DD	0cH
	DD	FLAT:??0bad_array_new_length@std@@QAE@ABV01@@Z
xdata$x	ENDS
;	COMDAT ??_R0?AVbad_array_new_length@std@@@8
data$r	SEGMENT
??_R0?AVbad_array_new_length@std@@@8 DD FLAT:??_7type_info@@6B@ ; std::bad_array_new_length `RTTI Type Descriptor'
	DD	00H
	DB	'.?AVbad_array_new_length@std@@', 00H
data$r	ENDS
;	COMDAT __CTA3?AVbad_array_new_length@std@@
xdata$x	SEGMENT
__CTA3?AVbad_array_new_length@std@@ DD 03H
	DD	FLAT:__CT??_R0?AVbad_array_new_length@std@@@8??0bad_array_new_length@std@@QAE@ABV01@@Z12
	DD	FLAT:__CT??_R0?AVbad_alloc@std@@@8??0bad_alloc@std@@QAE@ABV01@@Z12
	DD	FLAT:__CT??_R0?AVexception@std@@@8??0exception@std@@QAE@ABV01@@Z12
xdata$x	ENDS
;	COMDAT __TI3?AVbad_array_new_length@std@@
xdata$x	SEGMENT
__TI3?AVbad_array_new_length@std@@ DD 00H
	DD	FLAT:??1bad_array_new_length@std@@UAE@XZ
	DD	00H
	DD	FLAT:__CTA3?AVbad_array_new_length@std@@
xdata$x	ENDS
;	COMDAT ??_C@_0BF@KINCDENJ@bad?5array?5new?5length@
CONST	SEGMENT
??_C@_0BF@KINCDENJ@bad?5array?5new?5length@ DB 'bad array new length', 00H ; `string'
CONST	ENDS
;	COMDAT ??_7bad_array_new_length@std@@6B@
CONST	SEGMENT
??_7bad_array_new_length@std@@6B@ DD FLAT:??_R4bad_array_new_length@std@@6B@ ; std::bad_array_new_length::`vftable'
	DD	FLAT:??_Ebad_array_new_length@std@@UAEPAXI@Z
	DD	FLAT:?what@exception@std@@UBEPBDXZ
CONST	ENDS
;	COMDAT ??_7bad_alloc@std@@6B@
CONST	SEGMENT
??_7bad_alloc@std@@6B@ DD FLAT:??_R4bad_alloc@std@@6B@	; std::bad_alloc::`vftable'
	DD	FLAT:??_Ebad_alloc@std@@UAEPAXI@Z
	DD	FLAT:?what@exception@std@@UBEPBDXZ
CONST	ENDS
;	COMDAT ??_C@_0BC@EOODALEL@Unknown?5exception@
CONST	SEGMENT
??_C@_0BC@EOODALEL@Unknown?5exception@ DB 'Unknown exception', 00H ; `string'
CONST	ENDS
;	COMDAT ??_7exception@std@@6B@
CONST	SEGMENT
??_7exception@std@@6B@ DD FLAT:??_R4exception@std@@6B@	; std::exception::`vftable'
	DD	FLAT:??_Eexception@std@@UAEPAXI@Z
	DD	FLAT:?what@exception@std@@UBEPBDXZ
CONST	ENDS
;	COMDAT ??_R1A@?0A@EA@CDateTimeCtrl@@8
rdata$r	SEGMENT
??_R1A@?0A@EA@CDateTimeCtrl@@8 DD FLAT:??_R0?AVCDateTimeCtrl@@@8 ; CDateTimeCtrl::`RTTI Base Class Descriptor at (0,-1,0,64)'
	DD	03H
	DD	00H
	DD	0ffffffffH
	DD	00H
	DD	040H
	DD	FLAT:??_R3CDateTimeCtrl@@8
rdata$r	ENDS
;	COMDAT ??_R2CDateTimeCtrl@@8
rdata$r	SEGMENT
??_R2CDateTimeCtrl@@8 DD FLAT:??_R1A@?0A@EA@CDateTimeCtrl@@8 ; CDateTimeCtrl::`RTTI Base Class Array'
	DD	FLAT:??_R1A@?0A@EA@CWnd@@8
	DD	FLAT:??_R1A@?0A@EA@CCmdTarget@@8
	DD	FLAT:??_R1A@?0A@EA@CObject@@8
rdata$r	ENDS
;	COMDAT ??_R3CDateTimeCtrl@@8
rdata$r	SEGMENT
??_R3CDateTimeCtrl@@8 DD 00H				; CDateTimeCtrl::`RTTI Class Hierarchy Descriptor'
	DD	00H
	DD	04H
	DD	FLAT:??_R2CDateTimeCtrl@@8
rdata$r	ENDS
;	COMDAT ??_R0?AVCDateTimeCtrl@@@8
data$rs	SEGMENT
??_R0?AVCDateTimeCtrl@@@8 DD FLAT:??_7type_info@@6B@	; CDateTimeCtrl `RTTI Type Descriptor'
	DD	00H
	DB	'.?AVCDateTimeCtrl@@', 00H
data$rs	ENDS
;	COMDAT ??_R4CDateTimeCtrl@@6B@
rdata$r	SEGMENT
??_R4CDateTimeCtrl@@6B@ DD 00H				; CDateTimeCtrl::`RTTI Complete Object Locator'
	DD	00H
	DD	00H
	DD	FLAT:??_R0?AVCDateTimeCtrl@@@8
	DD	FLAT:??_R3CDateTimeCtrl@@8
rdata$r	ENDS
;	COMDAT ??_R2CDialog@@8
rdata$r	SEGMENT
??_R2CDialog@@8 DD FLAT:??_R1A@?0A@EA@CDialog@@8	; CDialog::`RTTI Base Class Array'
	DD	FLAT:??_R1A@?0A@EA@CWnd@@8
	DD	FLAT:??_R1A@?0A@EA@CCmdTarget@@8
	DD	FLAT:??_R1A@?0A@EA@CObject@@8
rdata$r	ENDS
;	COMDAT ??_R3CDialog@@8
rdata$r	SEGMENT
??_R3CDialog@@8 DD 00H					; CDialog::`RTTI Class Hierarchy Descriptor'
	DD	00H
	DD	04H
	DD	FLAT:??_R2CDialog@@8
rdata$r	ENDS
;	COMDAT ??_R0?AVCDialog@@@8
data$rs	SEGMENT
??_R0?AVCDialog@@@8 DD FLAT:??_7type_info@@6B@		; CDialog `RTTI Type Descriptor'
	DD	00H
	DB	'.?AVCDialog@@', 00H
data$rs	ENDS
;	COMDAT ??_R1A@?0A@EA@CDialog@@8
rdata$r	SEGMENT
??_R1A@?0A@EA@CDialog@@8 DD FLAT:??_R0?AVCDialog@@@8	; CDialog::`RTTI Base Class Descriptor at (0,-1,0,64)'
	DD	03H
	DD	00H
	DD	0ffffffffH
	DD	00H
	DD	040H
	DD	FLAT:??_R3CDialog@@8
rdata$r	ENDS
;	COMDAT ??_R1A@?0A@EA@CCommonDialog@@8
rdata$r	SEGMENT
??_R1A@?0A@EA@CCommonDialog@@8 DD FLAT:??_R0?AVCCommonDialog@@@8 ; CCommonDialog::`RTTI Base Class Descriptor at (0,-1,0,64)'
	DD	04H
	DD	00H
	DD	0ffffffffH
	DD	00H
	DD	040H
	DD	FLAT:??_R3CCommonDialog@@8
rdata$r	ENDS
;	COMDAT ??_R2CCommonDialog@@8
rdata$r	SEGMENT
??_R2CCommonDialog@@8 DD FLAT:??_R1A@?0A@EA@CCommonDialog@@8 ; CCommonDialog::`RTTI Base Class Array'
	DD	FLAT:??_R1A@?0A@EA@CDialog@@8
	DD	FLAT:??_R1A@?0A@EA@CWnd@@8
	DD	FLAT:??_R1A@?0A@EA@CCmdTarget@@8
	DD	FLAT:??_R1A@?0A@EA@CObject@@8
rdata$r	ENDS
;	COMDAT ??_R3CCommonDialog@@8
rdata$r	SEGMENT
??_R3CCommonDialog@@8 DD 00H				; CCommonDialog::`RTTI Class Hierarchy Descriptor'
	DD	00H
	DD	05H
	DD	FLAT:??_R2CCommonDialog@@8
rdata$r	ENDS
;	COMDAT ??_R0?AVCCommonDialog@@@8
data$rs	SEGMENT
??_R0?AVCCommonDialog@@@8 DD FLAT:??_7type_info@@6B@	; CCommonDialog `RTTI Type Descriptor'
	DD	00H
	DB	'.?AVCCommonDialog@@', 00H
data$rs	ENDS
;	COMDAT ??_R4CCommonDialog@@6B@
rdata$r	SEGMENT
??_R4CCommonDialog@@6B@ DD 00H				; CCommonDialog::`RTTI Complete Object Locator'
	DD	00H
	DD	00H
	DD	FLAT:??_R0?AVCCommonDialog@@@8
	DD	FLAT:??_R3CCommonDialog@@8
rdata$r	ENDS
;	COMDAT ??_R1A@?0A@EA@CEdit@@8
rdata$r	SEGMENT
??_R1A@?0A@EA@CEdit@@8 DD FLAT:??_R0?AVCEdit@@@8	; CEdit::`RTTI Base Class Descriptor at (0,-1,0,64)'
	DD	03H
	DD	00H
	DD	0ffffffffH
	DD	00H
	DD	040H
	DD	FLAT:??_R3CEdit@@8
rdata$r	ENDS
;	COMDAT ??_R2CEdit@@8
rdata$r	SEGMENT
??_R2CEdit@@8 DD FLAT:??_R1A@?0A@EA@CEdit@@8		; CEdit::`RTTI Base Class Array'
	DD	FLAT:??_R1A@?0A@EA@CWnd@@8
	DD	FLAT:??_R1A@?0A@EA@CCmdTarget@@8
	DD	FLAT:??_R1A@?0A@EA@CObject@@8
rdata$r	ENDS
;	COMDAT ??_R3CEdit@@8
rdata$r	SEGMENT
??_R3CEdit@@8 DD 00H					; CEdit::`RTTI Class Hierarchy Descriptor'
	DD	00H
	DD	04H
	DD	FLAT:??_R2CEdit@@8
rdata$r	ENDS
;	COMDAT ??_R0?AVCEdit@@@8
data$rs	SEGMENT
??_R0?AVCEdit@@@8 DD FLAT:??_7type_info@@6B@		; CEdit `RTTI Type Descriptor'
	DD	00H
	DB	'.?AVCEdit@@', 00H
data$rs	ENDS
;	COMDAT ??_R4CEdit@@6B@
rdata$r	SEGMENT
??_R4CEdit@@6B@ DD 00H					; CEdit::`RTTI Complete Object Locator'
	DD	00H
	DD	00H
	DD	FLAT:??_R0?AVCEdit@@@8
	DD	FLAT:??_R3CEdit@@8
rdata$r	ENDS
;	COMDAT ??_R1A@?0A@EA@CButton@@8
rdata$r	SEGMENT
??_R1A@?0A@EA@CButton@@8 DD FLAT:??_R0?AVCButton@@@8	; CButton::`RTTI Base Class Descriptor at (0,-1,0,64)'
	DD	03H
	DD	00H
	DD	0ffffffffH
	DD	00H
	DD	040H
	DD	FLAT:??_R3CButton@@8
rdata$r	ENDS
;	COMDAT ??_R2CButton@@8
rdata$r	SEGMENT
??_R2CButton@@8 DD FLAT:??_R1A@?0A@EA@CButton@@8	; CButton::`RTTI Base Class Array'
	DD	FLAT:??_R1A@?0A@EA@CWnd@@8
	DD	FLAT:??_R1A@?0A@EA@CCmdTarget@@8
	DD	FLAT:??_R1A@?0A@EA@CObject@@8
rdata$r	ENDS
;	COMDAT ??_R3CButton@@8
rdata$r	SEGMENT
??_R3CButton@@8 DD 00H					; CButton::`RTTI Class Hierarchy Descriptor'
	DD	00H
	DD	04H
	DD	FLAT:??_R2CButton@@8
rdata$r	ENDS
;	COMDAT ??_R0?AVCButton@@@8
data$rs	SEGMENT
??_R0?AVCButton@@@8 DD FLAT:??_7type_info@@6B@		; CButton `RTTI Type Descriptor'
	DD	00H
	DB	'.?AVCButton@@', 00H
data$rs	ENDS
;	COMDAT ??_R4CButton@@6B@
rdata$r	SEGMENT
??_R4CButton@@6B@ DD 00H				; CButton::`RTTI Complete Object Locator'
	DD	00H
	DD	00H
	DD	FLAT:??_R0?AVCButton@@@8
	DD	FLAT:??_R3CButton@@8
rdata$r	ENDS
;	COMDAT ??_R2CCmdTarget@@8
rdata$r	SEGMENT
??_R2CCmdTarget@@8 DD FLAT:??_R1A@?0A@EA@CCmdTarget@@8	; CCmdTarget::`RTTI Base Class Array'
	DD	FLAT:??_R1A@?0A@EA@CObject@@8
rdata$r	ENDS
;	COMDAT ??_R3CCmdTarget@@8
rdata$r	SEGMENT
??_R3CCmdTarget@@8 DD 00H				; CCmdTarget::`RTTI Class Hierarchy Descriptor'
	DD	00H
	DD	02H
	DD	FLAT:??_R2CCmdTarget@@8
rdata$r	ENDS
;	COMDAT ??_R0?AVCCmdTarget@@@8
data$rs	SEGMENT
??_R0?AVCCmdTarget@@@8 DD FLAT:??_7type_info@@6B@	; CCmdTarget `RTTI Type Descriptor'
	DD	00H
	DB	'.?AVCCmdTarget@@', 00H
data$rs	ENDS
;	COMDAT ??_R1A@?0A@EA@CCmdTarget@@8
rdata$r	SEGMENT
??_R1A@?0A@EA@CCmdTarget@@8 DD FLAT:??_R0?AVCCmdTarget@@@8 ; CCmdTarget::`RTTI Base Class Descriptor at (0,-1,0,64)'
	DD	01H
	DD	00H
	DD	0ffffffffH
	DD	00H
	DD	040H
	DD	FLAT:??_R3CCmdTarget@@8
rdata$r	ENDS
;	COMDAT ??_R2CWnd@@8
rdata$r	SEGMENT
??_R2CWnd@@8 DD	FLAT:??_R1A@?0A@EA@CWnd@@8		; CWnd::`RTTI Base Class Array'
	DD	FLAT:??_R1A@?0A@EA@CCmdTarget@@8
	DD	FLAT:??_R1A@?0A@EA@CObject@@8
rdata$r	ENDS
;	COMDAT ??_R3CWnd@@8
rdata$r	SEGMENT
??_R3CWnd@@8 DD	00H					; CWnd::`RTTI Class Hierarchy Descriptor'
	DD	00H
	DD	03H
	DD	FLAT:??_R2CWnd@@8
rdata$r	ENDS
;	COMDAT ??_R0?AVCWnd@@@8
data$rs	SEGMENT
??_R0?AVCWnd@@@8 DD FLAT:??_7type_info@@6B@		; CWnd `RTTI Type Descriptor'
	DD	00H
	DB	'.?AVCWnd@@', 00H
data$rs	ENDS
;	COMDAT ??_R1A@?0A@EA@CWnd@@8
rdata$r	SEGMENT
??_R1A@?0A@EA@CWnd@@8 DD FLAT:??_R0?AVCWnd@@@8		; CWnd::`RTTI Base Class Descriptor at (0,-1,0,64)'
	DD	02H
	DD	00H
	DD	0ffffffffH
	DD	00H
	DD	040H
	DD	FLAT:??_R3CWnd@@8
rdata$r	ENDS
;	COMDAT ??_R1A@?0A@EA@CBitmap@@8
rdata$r	SEGMENT
??_R1A@?0A@EA@CBitmap@@8 DD FLAT:??_R0?AVCBitmap@@@8	; CBitmap::`RTTI Base Class Descriptor at (0,-1,0,64)'
	DD	02H
	DD	00H
	DD	0ffffffffH
	DD	00H
	DD	040H
	DD	FLAT:??_R3CBitmap@@8
rdata$r	ENDS
;	COMDAT ??_R2CBitmap@@8
rdata$r	SEGMENT
??_R2CBitmap@@8 DD FLAT:??_R1A@?0A@EA@CBitmap@@8	; CBitmap::`RTTI Base Class Array'
	DD	FLAT:??_R1A@?0A@EA@CGdiObject@@8
	DD	FLAT:??_R1A@?0A@EA@CObject@@8
rdata$r	ENDS
;	COMDAT ??_R3CBitmap@@8
rdata$r	SEGMENT
??_R3CBitmap@@8 DD 00H					; CBitmap::`RTTI Class Hierarchy Descriptor'
	DD	00H
	DD	03H
	DD	FLAT:??_R2CBitmap@@8
rdata$r	ENDS
;	COMDAT ??_R0?AVCBitmap@@@8
data$rs	SEGMENT
??_R0?AVCBitmap@@@8 DD FLAT:??_7type_info@@6B@		; CBitmap `RTTI Type Descriptor'
	DD	00H
	DB	'.?AVCBitmap@@', 00H
data$rs	ENDS
;	COMDAT ??_R4CBitmap@@6B@
rdata$r	SEGMENT
??_R4CBitmap@@6B@ DD 00H				; CBitmap::`RTTI Complete Object Locator'
	DD	00H
	DD	00H
	DD	FLAT:??_R0?AVCBitmap@@@8
	DD	FLAT:??_R3CBitmap@@8
rdata$r	ENDS
;	COMDAT ??_R1A@?0A@EA@CGdiObject@@8
rdata$r	SEGMENT
??_R1A@?0A@EA@CGdiObject@@8 DD FLAT:??_R0?AVCGdiObject@@@8 ; CGdiObject::`RTTI Base Class Descriptor at (0,-1,0,64)'
	DD	01H
	DD	00H
	DD	0ffffffffH
	DD	00H
	DD	040H
	DD	FLAT:??_R3CGdiObject@@8
rdata$r	ENDS
;	COMDAT ??_R2CGdiObject@@8
rdata$r	SEGMENT
??_R2CGdiObject@@8 DD FLAT:??_R1A@?0A@EA@CGdiObject@@8	; CGdiObject::`RTTI Base Class Array'
	DD	FLAT:??_R1A@?0A@EA@CObject@@8
rdata$r	ENDS
;	COMDAT ??_R3CGdiObject@@8
rdata$r	SEGMENT
??_R3CGdiObject@@8 DD 00H				; CGdiObject::`RTTI Class Hierarchy Descriptor'
	DD	00H
	DD	02H
	DD	FLAT:??_R2CGdiObject@@8
rdata$r	ENDS
;	COMDAT ??_R0?AVCGdiObject@@@8
data$rs	SEGMENT
??_R0?AVCGdiObject@@@8 DD FLAT:??_7type_info@@6B@	; CGdiObject `RTTI Type Descriptor'
	DD	00H
	DB	'.?AVCGdiObject@@', 00H
data$rs	ENDS
;	COMDAT ??_R4CGdiObject@@6B@
rdata$r	SEGMENT
??_R4CGdiObject@@6B@ DD 00H				; CGdiObject::`RTTI Complete Object Locator'
	DD	00H
	DD	00H
	DD	FLAT:??_R0?AVCGdiObject@@@8
	DD	FLAT:??_R3CGdiObject@@8
rdata$r	ENDS
;	COMDAT ??_R1A@?0A@EA@CObject@@8
rdata$r	SEGMENT
??_R1A@?0A@EA@CObject@@8 DD FLAT:??_R0?AVCObject@@@8	; CObject::`RTTI Base Class Descriptor at (0,-1,0,64)'
	DD	00H
	DD	00H
	DD	0ffffffffH
	DD	00H
	DD	040H
	DD	FLAT:??_R3CObject@@8
rdata$r	ENDS
;	COMDAT ??_R2CObject@@8
rdata$r	SEGMENT
??_R2CObject@@8 DD FLAT:??_R1A@?0A@EA@CObject@@8	; CObject::`RTTI Base Class Array'
rdata$r	ENDS
;	COMDAT ??_R3CObject@@8
rdata$r	SEGMENT
??_R3CObject@@8 DD 00H					; CObject::`RTTI Class Hierarchy Descriptor'
	DD	00H
	DD	01H
	DD	FLAT:??_R2CObject@@8
rdata$r	ENDS
;	COMDAT ??_R0?AVCObject@@@8
data$rs	SEGMENT
??_R0?AVCObject@@@8 DD FLAT:??_7type_info@@6B@		; CObject `RTTI Type Descriptor'
	DD	00H
	DB	'.?AVCObject@@', 00H
data$rs	ENDS
;	COMDAT ??_7CDateTimeCtrl@@6B@
CONST	SEGMENT
??_7CDateTimeCtrl@@6B@ DD FLAT:??_R4CDateTimeCtrl@@6B@	; CDateTimeCtrl::`vftable'
	DD	FLAT:?GetRuntimeClass@CDateTimeCtrl@@UBEPAUCRuntimeClass@@XZ
	DD	FLAT:??_ECDateTimeCtrl@@UAEPAXI@Z
	DD	FLAT:?Serialize@CObject@@UAEXAAVCArchive@@@Z
	DD	FLAT:?AssertValid@CObject@@UBEXXZ
	DD	FLAT:?Dump@CObject@@UBEXAAVCDumpContext@@@Z
	DD	FLAT:?OnCmdMsg@CCmdTarget@@UAEHIHPAXPAUAFX_CMDHANDLERINFO@@@Z
	DD	FLAT:?OnFinalRelease@CWnd@@UAEXXZ
	DD	FLAT:?IsInvokeAllowed@CCmdTarget@@UAEHJ@Z
	DD	FLAT:?GetDispatchIID@CCmdTarget@@UAEHPAU_GUID@@@Z
	DD	FLAT:?GetTypeInfoCount@CCmdTarget@@UAEIXZ
	DD	FLAT:?GetTypeLibCache@CCmdTarget@@UAEPAVCTypeLibCache@@XZ
	DD	FLAT:?GetTypeLib@CCmdTarget@@UAEJKPAPAUITypeLib@@@Z
	DD	FLAT:?GetMessageMap@CWnd@@MBEPBUAFX_MSGMAP@@XZ
	DD	FLAT:?GetCommandMap@CCmdTarget@@MBEPBUAFX_OLECMDMAP@@XZ
	DD	FLAT:?GetDispatchMap@CCmdTarget@@MBEPBUAFX_DISPMAP@@XZ
	DD	FLAT:?GetConnectionMap@CCmdTarget@@MBEPBUAFX_CONNECTIONMAP@@XZ
	DD	FLAT:?GetInterfaceMap@CWnd@@MBEPBUAFX_INTERFACEMAP@@XZ
	DD	FLAT:?GetEventSinkMap@CCmdTarget@@MBEPBUAFX_EVENTSINKMAP@@XZ
	DD	FLAT:?OnCreateAggregates@CCmdTarget@@UAEHXZ
	DD	FLAT:?GetInterfaceHook@CCmdTarget@@UAEPAUIUnknown@@PBX@Z
	DD	FLAT:?GetExtraConnectionPoints@CCmdTarget@@MAEHPAVCPtrArray@@@Z
	DD	FLAT:?GetConnectionHook@CCmdTarget@@MAEPAUIConnectionPoint@@ABU_GUID@@@Z
	DD	FLAT:?PreSubclassWindow@CWnd@@UAEXXZ
	DD	FLAT:?Create@CWnd@@UAEHPBD0KABUtagRECT@@PAV1@IPAUCCreateContext@@@Z
	DD	FLAT:?CreateEx@CWnd@@UAEHKPBD0KABUtagRECT@@PAV1@IPAX@Z
	DD	FLAT:?CreateEx@CWnd@@UAEHKPBD0KHHHHPAUHWND__@@PAUHMENU__@@PAX@Z
	DD	FLAT:?DestroyWindow@CWnd@@UAEHXZ
	DD	FLAT:?PreCreateWindow@CWnd@@UAEHAAUtagCREATESTRUCTA@@@Z
	DD	FLAT:?CalcWindowRect@CWnd@@UAEXPAUtagRECT@@I@Z
	DD	FLAT:?GetMenu@CWnd@@UBEPAVCMenu@@XZ
	DD	FLAT:?SetMenu@CWnd@@UAEHPAVCMenu@@@Z
	DD	FLAT:?OnToolHitTest@CWnd@@UBEHVCPoint@@PAUtagTOOLINFOA@@@Z
	DD	FLAT:?GetScrollBarCtrl@CWnd@@UBEPAVCScrollBar@@H@Z
	DD	FLAT:?WinHelpA@CWnd@@UAEXKI@Z
	DD	FLAT:?HtmlHelpA@CWnd@@UAEXKI@Z
	DD	FLAT:?WinHelpInternal@CWnd@@UAEXKI@Z
	DD	FLAT:?ContinueModal@CWnd@@UAEHXZ
	DD	FLAT:?EndModalLoop@CWnd@@UAEXH@Z
	DD	FLAT:?OnDrawIconicThumbnailOrLivePreview@CWnd@@UAEXAAVCDC@@VCRect@@VCSize@@HAAH@Z
	DD	FLAT:?EnsureStdObj@CWnd@@UAEJXZ
	DD	FLAT:?get_accParent@CWnd@@UAEJPAPAUIDispatch@@@Z
	DD	FLAT:?get_accChildCount@CWnd@@UAEJPAJ@Z
	DD	FLAT:?get_accChild@CWnd@@UAEJUtagVARIANT@@PAPAUIDispatch@@@Z
	DD	FLAT:?get_accName@CWnd@@UAEJUtagVARIANT@@PAPA_W@Z
	DD	FLAT:?get_accValue@CWnd@@UAEJUtagVARIANT@@PAPA_W@Z
	DD	FLAT:?get_accDescription@CWnd@@UAEJUtagVARIANT@@PAPA_W@Z
	DD	FLAT:?get_accRole@CWnd@@UAEJUtagVARIANT@@PAU2@@Z
	DD	FLAT:?get_accState@CWnd@@UAEJUtagVARIANT@@PAU2@@Z
	DD	FLAT:?get_accHelp@CWnd@@UAEJUtagVARIANT@@PAPA_W@Z
	DD	FLAT:?get_accHelpTopic@CWnd@@UAEJPAPA_WUtagVARIANT@@PAJ@Z
	DD	FLAT:?get_accKeyboardShortcut@CWnd@@UAEJUtagVARIANT@@PAPA_W@Z
	DD	FLAT:?get_accFocus@CWnd@@UAEJPAUtagVARIANT@@@Z
	DD	FLAT:?get_accSelection@CWnd@@UAEJPAUtagVARIANT@@@Z
	DD	FLAT:?get_accDefaultAction@CWnd@@UAEJUtagVARIANT@@PAPA_W@Z
	DD	FLAT:?accSelect@CWnd@@UAEJJUtagVARIANT@@@Z
	DD	FLAT:?accLocation@CWnd@@UAEJPAJ000UtagVARIANT@@@Z
	DD	FLAT:?accNavigate@CWnd@@UAEJJUtagVARIANT@@PAU2@@Z
	DD	FLAT:?accHitTest@CWnd@@UAEJJJPAUtagVARIANT@@@Z
	DD	FLAT:?accDoDefaultAction@CWnd@@UAEJUtagVARIANT@@@Z
	DD	FLAT:?put_accName@CWnd@@UAEJUtagVARIANT@@PA_W@Z
	DD	FLAT:?put_accValue@CWnd@@UAEJUtagVARIANT@@PA_W@Z
	DD	FLAT:?SetProxy@CWnd@@UAEJPAUIAccessibleProxy@@@Z
	DD	FLAT:?CreateAccessibleProxy@CWnd@@UAEJIJPAJ@Z
	DD	FLAT:?OnCommand@CWnd@@MAEHIJ@Z
	DD	FLAT:?OnNotify@CWnd@@MAEHIJPAJ@Z
	DD	FLAT:?GetSuperWndProcAddr@CWnd@@MAEPAP6GJPAUHWND__@@IIJ@ZXZ
	DD	FLAT:?DoDataExchange@CWnd@@MAEXPAVCDataExchange@@@Z
	DD	FLAT:?BeginModalState@CWnd@@UAEXXZ
	DD	FLAT:?EndModalState@CWnd@@UAEXXZ
	DD	FLAT:?PreTranslateMessage@CWnd@@UAEHPAUtagMSG@@@Z
	DD	FLAT:?OnAmbientProperty@CWnd@@UAEHPAVCOleControlSite@@JPAUtagVARIANT@@@Z
	DD	FLAT:?WindowProc@CWnd@@MAEJIIJ@Z
	DD	FLAT:?OnWndMsg@CWnd@@MAEHIIJPAJ@Z
	DD	FLAT:?DefWindowProcA@CWnd@@MAEJIIJ@Z
	DD	FLAT:?PostNcDestroy@CWnd@@MAEXXZ
	DD	FLAT:?OnChildNotify@CWnd@@MAEHIIJPAJ@Z
	DD	FLAT:?OnTouchInputs@CWnd@@MAEHIPAUtagTOUCHINPUT@@@Z
	DD	FLAT:?OnTouchInput@CWnd@@MAEHVCPoint@@HHPAUtagTOUCHINPUT@@@Z
	DD	FLAT:?GetGestureStatus@CWnd@@MAEKVCPoint@@@Z
	DD	FLAT:?OnGestureZoom@CWnd@@MAEHVCPoint@@J@Z
	DD	FLAT:?OnGesturePan@CWnd@@MAEHVCPoint@@0@Z
	DD	FLAT:?OnGestureRotate@CWnd@@MAEHVCPoint@@N@Z
	DD	FLAT:?OnGestureTwoFingerTap@CWnd@@MAEHVCPoint@@@Z
	DD	FLAT:?OnGesturePressAndTap@CWnd@@MAEHVCPoint@@J@Z
	DD	FLAT:?ResizeDynamicLayout@CWnd@@MAEXXZ
	DD	FLAT:?CheckAutoCenter@CWnd@@UAEHXZ
	DD	FLAT:?IsFrameWnd@CWnd@@UBEHXZ
	DD	FLAT:?CreateControlContainer@CWnd@@MAEHPAPAVCOleControlContainer@@@Z
	DD	FLAT:?CreateControlSite@CWnd@@MAEHPAVCOleControlContainer@@PAPAVCOleControlSite@@IABU_GUID@@@Z
	DD	FLAT:?SetOccDialogInfo@CWnd@@MAEHPAU_AFX_OCC_DIALOG_INFO@@@Z
	DD	FLAT:?GetOccDialogInfo@CWnd@@MAEPAU_AFX_OCC_DIALOG_INFO@@XZ
	DD	FLAT:?Create@CDateTimeCtrl@@UAEHKABUtagRECT@@PAVCWnd@@I@Z
CONST	ENDS
;	COMDAT ??_7CCommonDialog@@6B@
CONST	SEGMENT
??_7CCommonDialog@@6B@ DD FLAT:??_R4CCommonDialog@@6B@	; CCommonDialog::`vftable'
	DD	FLAT:?GetRuntimeClass@CCommonDialog@@UBEPAUCRuntimeClass@@XZ
	DD	FLAT:??_ECCommonDialog@@UAEPAXI@Z
	DD	FLAT:?Serialize@CObject@@UAEXAAVCArchive@@@Z
	DD	FLAT:?AssertValid@CObject@@UBEXXZ
	DD	FLAT:?Dump@CObject@@UBEXAAVCDumpContext@@@Z
	DD	FLAT:?OnCmdMsg@CDialog@@UAEHIHPAXPAUAFX_CMDHANDLERINFO@@@Z
	DD	FLAT:?OnFinalRelease@CWnd@@UAEXXZ
	DD	FLAT:?IsInvokeAllowed@CCmdTarget@@UAEHJ@Z
	DD	FLAT:?GetDispatchIID@CCmdTarget@@UAEHPAU_GUID@@@Z
	DD	FLAT:?GetTypeInfoCount@CCmdTarget@@UAEIXZ
	DD	FLAT:?GetTypeLibCache@CCmdTarget@@UAEPAVCTypeLibCache@@XZ
	DD	FLAT:?GetTypeLib@CCmdTarget@@UAEJKPAPAUITypeLib@@@Z
	DD	FLAT:?GetMessageMap@CCommonDialog@@MBEPBUAFX_MSGMAP@@XZ
	DD	FLAT:?GetCommandMap@CCmdTarget@@MBEPBUAFX_OLECMDMAP@@XZ
	DD	FLAT:?GetDispatchMap@CCmdTarget@@MBEPBUAFX_DISPMAP@@XZ
	DD	FLAT:?GetConnectionMap@CCmdTarget@@MBEPBUAFX_CONNECTIONMAP@@XZ
	DD	FLAT:?GetInterfaceMap@CWnd@@MBEPBUAFX_INTERFACEMAP@@XZ
	DD	FLAT:?GetEventSinkMap@CCmdTarget@@MBEPBUAFX_EVENTSINKMAP@@XZ
	DD	FLAT:?OnCreateAggregates@CCmdTarget@@UAEHXZ
	DD	FLAT:?GetInterfaceHook@CCmdTarget@@UAEPAUIUnknown@@PBX@Z
	DD	FLAT:?GetExtraConnectionPoints@CCmdTarget@@MAEHPAVCPtrArray@@@Z
	DD	FLAT:?GetConnectionHook@CCmdTarget@@MAEPAUIConnectionPoint@@ABU_GUID@@@Z
	DD	FLAT:?PreSubclassWindow@CWnd@@UAEXXZ
	DD	FLAT:?Create@CWnd@@UAEHPBD0KABUtagRECT@@PAV1@IPAUCCreateContext@@@Z
	DD	FLAT:?CreateEx@CWnd@@UAEHKPBD0KABUtagRECT@@PAV1@IPAX@Z
	DD	FLAT:?CreateEx@CWnd@@UAEHKPBD0KHHHHPAUHWND__@@PAUHMENU__@@PAX@Z
	DD	FLAT:?DestroyWindow@CWnd@@UAEHXZ
	DD	FLAT:?PreCreateWindow@CWnd@@UAEHAAUtagCREATESTRUCTA@@@Z
	DD	FLAT:?CalcWindowRect@CWnd@@UAEXPAUtagRECT@@I@Z
	DD	FLAT:?GetMenu@CWnd@@UBEPAVCMenu@@XZ
	DD	FLAT:?SetMenu@CWnd@@UAEHPAVCMenu@@@Z
	DD	FLAT:?OnToolHitTest@CWnd@@UBEHVCPoint@@PAUtagTOOLINFOA@@@Z
	DD	FLAT:?GetScrollBarCtrl@CWnd@@UBEPAVCScrollBar@@H@Z
	DD	FLAT:?WinHelpA@CWnd@@UAEXKI@Z
	DD	FLAT:?HtmlHelpA@CWnd@@UAEXKI@Z
	DD	FLAT:?WinHelpInternal@CWnd@@UAEXKI@Z
	DD	FLAT:?ContinueModal@CWnd@@UAEHXZ
	DD	FLAT:?EndModalLoop@CWnd@@UAEXH@Z
	DD	FLAT:?OnDrawIconicThumbnailOrLivePreview@CWnd@@UAEXAAVCDC@@VCRect@@VCSize@@HAAH@Z
	DD	FLAT:?EnsureStdObj@CWnd@@UAEJXZ
	DD	FLAT:?get_accParent@CWnd@@UAEJPAPAUIDispatch@@@Z
	DD	FLAT:?get_accChildCount@CWnd@@UAEJPAJ@Z
	DD	FLAT:?get_accChild@CWnd@@UAEJUtagVARIANT@@PAPAUIDispatch@@@Z
	DD	FLAT:?get_accName@CWnd@@UAEJUtagVARIANT@@PAPA_W@Z
	DD	FLAT:?get_accValue@CWnd@@UAEJUtagVARIANT@@PAPA_W@Z
	DD	FLAT:?get_accDescription@CWnd@@UAEJUtagVARIANT@@PAPA_W@Z
	DD	FLAT:?get_accRole@CWnd@@UAEJUtagVARIANT@@PAU2@@Z
	DD	FLAT:?get_accState@CWnd@@UAEJUtagVARIANT@@PAU2@@Z
	DD	FLAT:?get_accHelp@CWnd@@UAEJUtagVARIANT@@PAPA_W@Z
	DD	FLAT:?get_accHelpTopic@CWnd@@UAEJPAPA_WUtagVARIANT@@PAJ@Z
	DD	FLAT:?get_accKeyboardShortcut@CWnd@@UAEJUtagVARIANT@@PAPA_W@Z
	DD	FLAT:?get_accFocus@CWnd@@UAEJPAUtagVARIANT@@@Z
	DD	FLAT:?get_accSelection@CWnd@@UAEJPAUtagVARIANT@@@Z
	DD	FLAT:?get_accDefaultAction@CWnd@@UAEJUtagVARIANT@@PAPA_W@Z
	DD	FLAT:?accSelect@CWnd@@UAEJJUtagVARIANT@@@Z
	DD	FLAT:?accLocation@CWnd@@UAEJPAJ000UtagVARIANT@@@Z
	DD	FLAT:?accNavigate@CWnd@@UAEJJUtagVARIANT@@PAU2@@Z
	DD	FLAT:?accHitTest@CWnd@@UAEJJJPAUtagVARIANT@@@Z
	DD	FLAT:?accDoDefaultAction@CWnd@@UAEJUtagVARIANT@@@Z
	DD	FLAT:?put_accName@CWnd@@UAEJUtagVARIANT@@PA_W@Z
	DD	FLAT:?put_accValue@CWnd@@UAEJUtagVARIANT@@PA_W@Z
	DD	FLAT:?SetProxy@CWnd@@UAEJPAUIAccessibleProxy@@@Z
	DD	FLAT:?CreateAccessibleProxy@CWnd@@UAEJIJPAJ@Z
	DD	FLAT:?OnCommand@CWnd@@MAEHIJ@Z
	DD	FLAT:?OnNotify@CWnd@@MAEHIJPAJ@Z
	DD	FLAT:?GetSuperWndProcAddr@CWnd@@MAEPAP6GJPAUHWND__@@IIJ@ZXZ
	DD	FLAT:?DoDataExchange@CWnd@@MAEXPAVCDataExchange@@@Z
	DD	FLAT:?BeginModalState@CWnd@@UAEXXZ
	DD	FLAT:?EndModalState@CWnd@@UAEXXZ
	DD	FLAT:?PreTranslateMessage@CDialog@@UAEHPAUtagMSG@@@Z
	DD	FLAT:?OnAmbientProperty@CWnd@@UAEHPAVCOleControlSite@@JPAUtagVARIANT@@@Z
	DD	FLAT:?WindowProc@CWnd@@MAEJIIJ@Z
	DD	FLAT:?OnWndMsg@CWnd@@MAEHIIJPAJ@Z
	DD	FLAT:?DefWindowProcA@CWnd@@MAEJIIJ@Z
	DD	FLAT:?PostNcDestroy@CWnd@@MAEXXZ
	DD	FLAT:?OnChildNotify@CWnd@@MAEHIIJPAJ@Z
	DD	FLAT:?OnTouchInputs@CWnd@@MAEHIPAUtagTOUCHINPUT@@@Z
	DD	FLAT:?OnTouchInput@CWnd@@MAEHVCPoint@@HHPAUtagTOUCHINPUT@@@Z
	DD	FLAT:?GetGestureStatus@CWnd@@MAEKVCPoint@@@Z
	DD	FLAT:?OnGestureZoom@CWnd@@MAEHVCPoint@@J@Z
	DD	FLAT:?OnGesturePan@CWnd@@MAEHVCPoint@@0@Z
	DD	FLAT:?OnGestureRotate@CWnd@@MAEHVCPoint@@N@Z
	DD	FLAT:?OnGestureTwoFingerTap@CWnd@@MAEHVCPoint@@@Z
	DD	FLAT:?OnGesturePressAndTap@CWnd@@MAEHVCPoint@@J@Z
	DD	FLAT:?ResizeDynamicLayout@CWnd@@MAEXXZ
	DD	FLAT:?CheckAutoCenter@CDialog@@UAEHXZ
	DD	FLAT:?IsFrameWnd@CWnd@@UBEHXZ
	DD	FLAT:?CreateControlContainer@CWnd@@MAEHPAPAVCOleControlContainer@@@Z
	DD	FLAT:?CreateControlSite@CWnd@@MAEHPAVCOleControlContainer@@PAPAVCOleControlSite@@IABU_GUID@@@Z
	DD	FLAT:?SetOccDialogInfo@CDialog@@MAEHPAU_AFX_OCC_DIALOG_INFO@@@Z
	DD	FLAT:?GetOccDialogInfo@CDialog@@MAEPAU_AFX_OCC_DIALOG_INFO@@XZ
	DD	FLAT:?Create@CDialog@@UAEHIPAVCWnd@@@Z
	DD	FLAT:?Create@CDialog@@UAEHPBDPAVCWnd@@@Z
	DD	FLAT:?CreateIndirect@CDialog@@UAEHPAXPAVCWnd@@@Z
	DD	FLAT:?CreateIndirect@CDialog@@UAEHPBUDLGTEMPLATE@@PAVCWnd@@PAX@Z
	DD	FLAT:?DoModal@CDialog@@UAEHXZ
	DD	FLAT:?OnInitDialog@CDialog@@UAEHXZ
	DD	FLAT:?OnSetFont@CDialog@@UAEXPAVCFont@@@Z
	DD	FLAT:?OnOK@CCommonDialog@@MAEXXZ
	DD	FLAT:?OnCancel@CCommonDialog@@MAEXXZ
	DD	FLAT:?PreInitDialog@CDialog@@MAEXXZ
CONST	ENDS
;	COMDAT ??_C@_0N@OMEMOKLE@?$CFTs?5?$CI?$CFTs?3?$CFd?$CJ@
CONST	SEGMENT
??_C@_0N@OMEMOKLE@?$CFTs?5?$CI?$CFTs?3?$CFd?$CJ@ DB '%Ts (%Ts:%d)', 00H ; `string'
CONST	ENDS
;	COMDAT ??_C@_0BB@HBOOMJBF@?$CFTs?5?$CI?$CFTs?3?$CFd?$CJ?6?$CFTs@
CONST	SEGMENT
??_C@_0BB@HBOOMJBF@?$CFTs?5?$CI?$CFTs?3?$CFd?$CJ?6?$CFTs@ DB '%Ts (%Ts:%d'
	DB	')', 0aH, '%Ts', 00H				; `string'
CONST	ENDS
;	COMDAT ??_C@_0BP@OIEOKIDM@Exception?5thrown?5in?5destructor@
CONST	SEGMENT
??_C@_0BP@OIEOKIDM@Exception?5thrown?5in?5destructor@ DB 'Exception throw'
	DB	'n in destructor', 00H			; `string'
CONST	ENDS
;	COMDAT ??_C@_0HD@JJCHHHNK@C?3?2Program?5Files?5?$CIx86?$CJ?2Microsof@
CONST	SEGMENT
??_C@_0HD@JJCHHHNK@C?3?2Program?5Files?5?$CIx86?$CJ?2Microsof@ DB 'C:\Pro'
	DB	'gram Files (x86)\Microsoft Visual Studio\2019\Community\VC\To'
	DB	'ols\MSVC\14.29.30133\atlmfc\include\afxwin1.inl', 00H ; `string'
CONST	ENDS
;	COMDAT ??_7CEdit@@6B@
CONST	SEGMENT
??_7CEdit@@6B@ DD FLAT:??_R4CEdit@@6B@			; CEdit::`vftable'
	DD	FLAT:?GetRuntimeClass@CEdit@@UBEPAUCRuntimeClass@@XZ
	DD	FLAT:??_ECEdit@@UAEPAXI@Z
	DD	FLAT:?Serialize@CObject@@UAEXAAVCArchive@@@Z
	DD	FLAT:?AssertValid@CObject@@UBEXXZ
	DD	FLAT:?Dump@CObject@@UBEXAAVCDumpContext@@@Z
	DD	FLAT:?OnCmdMsg@CCmdTarget@@UAEHIHPAXPAUAFX_CMDHANDLERINFO@@@Z
	DD	FLAT:?OnFinalRelease@CWnd@@UAEXXZ
	DD	FLAT:?IsInvokeAllowed@CCmdTarget@@UAEHJ@Z
	DD	FLAT:?GetDispatchIID@CCmdTarget@@UAEHPAU_GUID@@@Z
	DD	FLAT:?GetTypeInfoCount@CCmdTarget@@UAEIXZ
	DD	FLAT:?GetTypeLibCache@CCmdTarget@@UAEPAVCTypeLibCache@@XZ
	DD	FLAT:?GetTypeLib@CCmdTarget@@UAEJKPAPAUITypeLib@@@Z
	DD	FLAT:?GetMessageMap@CWnd@@MBEPBUAFX_MSGMAP@@XZ
	DD	FLAT:?GetCommandMap@CCmdTarget@@MBEPBUAFX_OLECMDMAP@@XZ
	DD	FLAT:?GetDispatchMap@CCmdTarget@@MBEPBUAFX_DISPMAP@@XZ
	DD	FLAT:?GetConnectionMap@CCmdTarget@@MBEPBUAFX_CONNECTIONMAP@@XZ
	DD	FLAT:?GetInterfaceMap@CWnd@@MBEPBUAFX_INTERFACEMAP@@XZ
	DD	FLAT:?GetEventSinkMap@CCmdTarget@@MBEPBUAFX_EVENTSINKMAP@@XZ
	DD	FLAT:?OnCreateAggregates@CCmdTarget@@UAEHXZ
	DD	FLAT:?GetInterfaceHook@CCmdTarget@@UAEPAUIUnknown@@PBX@Z
	DD	FLAT:?GetExtraConnectionPoints@CCmdTarget@@MAEHPAVCPtrArray@@@Z
	DD	FLAT:?GetConnectionHook@CCmdTarget@@MAEPAUIConnectionPoint@@ABU_GUID@@@Z
	DD	FLAT:?PreSubclassWindow@CWnd@@UAEXXZ
	DD	FLAT:?Create@CWnd@@UAEHPBD0KABUtagRECT@@PAV1@IPAUCCreateContext@@@Z
	DD	FLAT:?CreateEx@CWnd@@UAEHKPBD0KABUtagRECT@@PAV1@IPAX@Z
	DD	FLAT:?CreateEx@CWnd@@UAEHKPBD0KHHHHPAUHWND__@@PAUHMENU__@@PAX@Z
	DD	FLAT:?DestroyWindow@CWnd@@UAEHXZ
	DD	FLAT:?PreCreateWindow@CWnd@@UAEHAAUtagCREATESTRUCTA@@@Z
	DD	FLAT:?CalcWindowRect@CWnd@@UAEXPAUtagRECT@@I@Z
	DD	FLAT:?GetMenu@CWnd@@UBEPAVCMenu@@XZ
	DD	FLAT:?SetMenu@CWnd@@UAEHPAVCMenu@@@Z
	DD	FLAT:?OnToolHitTest@CWnd@@UBEHVCPoint@@PAUtagTOOLINFOA@@@Z
	DD	FLAT:?GetScrollBarCtrl@CWnd@@UBEPAVCScrollBar@@H@Z
	DD	FLAT:?WinHelpA@CWnd@@UAEXKI@Z
	DD	FLAT:?HtmlHelpA@CWnd@@UAEXKI@Z
	DD	FLAT:?WinHelpInternal@CWnd@@UAEXKI@Z
	DD	FLAT:?ContinueModal@CWnd@@UAEHXZ
	DD	FLAT:?EndModalLoop@CWnd@@UAEXH@Z
	DD	FLAT:?OnDrawIconicThumbnailOrLivePreview@CWnd@@UAEXAAVCDC@@VCRect@@VCSize@@HAAH@Z
	DD	FLAT:?EnsureStdObj@CWnd@@UAEJXZ
	DD	FLAT:?get_accParent@CWnd@@UAEJPAPAUIDispatch@@@Z
	DD	FLAT:?get_accChildCount@CWnd@@UAEJPAJ@Z
	DD	FLAT:?get_accChild@CWnd@@UAEJUtagVARIANT@@PAPAUIDispatch@@@Z
	DD	FLAT:?get_accName@CWnd@@UAEJUtagVARIANT@@PAPA_W@Z
	DD	FLAT:?get_accValue@CWnd@@UAEJUtagVARIANT@@PAPA_W@Z
	DD	FLAT:?get_accDescription@CWnd@@UAEJUtagVARIANT@@PAPA_W@Z
	DD	FLAT:?get_accRole@CWnd@@UAEJUtagVARIANT@@PAU2@@Z
	DD	FLAT:?get_accState@CWnd@@UAEJUtagVARIANT@@PAU2@@Z
	DD	FLAT:?get_accHelp@CWnd@@UAEJUtagVARIANT@@PAPA_W@Z
	DD	FLAT:?get_accHelpTopic@CWnd@@UAEJPAPA_WUtagVARIANT@@PAJ@Z
	DD	FLAT:?get_accKeyboardShortcut@CWnd@@UAEJUtagVARIANT@@PAPA_W@Z
	DD	FLAT:?get_accFocus@CWnd@@UAEJPAUtagVARIANT@@@Z
	DD	FLAT:?get_accSelection@CWnd@@UAEJPAUtagVARIANT@@@Z
	DD	FLAT:?get_accDefaultAction@CWnd@@UAEJUtagVARIANT@@PAPA_W@Z
	DD	FLAT:?accSelect@CWnd@@UAEJJUtagVARIANT@@@Z
	DD	FLAT:?accLocation@CWnd@@UAEJPAJ000UtagVARIANT@@@Z
	DD	FLAT:?accNavigate@CWnd@@UAEJJUtagVARIANT@@PAU2@@Z
	DD	FLAT:?accHitTest@CWnd@@UAEJJJPAUtagVARIANT@@@Z
	DD	FLAT:?accDoDefaultAction@CWnd@@UAEJUtagVARIANT@@@Z
	DD	FLAT:?put_accName@CWnd@@UAEJUtagVARIANT@@PA_W@Z
	DD	FLAT:?put_accValue@CWnd@@UAEJUtagVARIANT@@PA_W@Z
	DD	FLAT:?SetProxy@CWnd@@UAEJPAUIAccessibleProxy@@@Z
	DD	FLAT:?CreateAccessibleProxy@CWnd@@UAEJIJPAJ@Z
	DD	FLAT:?OnCommand@CWnd@@MAEHIJ@Z
	DD	FLAT:?OnNotify@CWnd@@MAEHIJPAJ@Z
	DD	FLAT:?GetSuperWndProcAddr@CWnd@@MAEPAP6GJPAUHWND__@@IIJ@ZXZ
	DD	FLAT:?DoDataExchange@CWnd@@MAEXPAVCDataExchange@@@Z
	DD	FLAT:?BeginModalState@CWnd@@UAEXXZ
	DD	FLAT:?EndModalState@CWnd@@UAEXXZ
	DD	FLAT:?PreTranslateMessage@CWnd@@UAEHPAUtagMSG@@@Z
	DD	FLAT:?OnAmbientProperty@CWnd@@UAEHPAVCOleControlSite@@JPAUtagVARIANT@@@Z
	DD	FLAT:?WindowProc@CWnd@@MAEJIIJ@Z
	DD	FLAT:?OnWndMsg@CWnd@@MAEHIIJPAJ@Z
	DD	FLAT:?DefWindowProcA@CWnd@@MAEJIIJ@Z
	DD	FLAT:?PostNcDestroy@CWnd@@MAEXXZ
	DD	FLAT:?OnChildNotify@CWnd@@MAEHIIJPAJ@Z
	DD	FLAT:?OnTouchInputs@CWnd@@MAEHIPAUtagTOUCHINPUT@@@Z
	DD	FLAT:?OnTouchInput@CWnd@@MAEHVCPoint@@HHPAUtagTOUCHINPUT@@@Z
	DD	FLAT:?GetGestureStatus@CWnd@@MAEKVCPoint@@@Z
	DD	FLAT:?OnGestureZoom@CWnd@@MAEHVCPoint@@J@Z
	DD	FLAT:?OnGesturePan@CWnd@@MAEHVCPoint@@0@Z
	DD	FLAT:?OnGestureRotate@CWnd@@MAEHVCPoint@@N@Z
	DD	FLAT:?OnGestureTwoFingerTap@CWnd@@MAEHVCPoint@@@Z
	DD	FLAT:?OnGesturePressAndTap@CWnd@@MAEHVCPoint@@J@Z
	DD	FLAT:?ResizeDynamicLayout@CWnd@@MAEXXZ
	DD	FLAT:?CheckAutoCenter@CWnd@@UAEHXZ
	DD	FLAT:?IsFrameWnd@CWnd@@UBEHXZ
	DD	FLAT:?CreateControlContainer@CWnd@@MAEHPAPAVCOleControlContainer@@@Z
	DD	FLAT:?CreateControlSite@CWnd@@MAEHPAVCOleControlContainer@@PAPAVCOleControlSite@@IABU_GUID@@@Z
	DD	FLAT:?SetOccDialogInfo@CWnd@@MAEHPAU_AFX_OCC_DIALOG_INFO@@@Z
	DD	FLAT:?GetOccDialogInfo@CWnd@@MAEPAU_AFX_OCC_DIALOG_INFO@@XZ
CONST	ENDS
;	COMDAT ??_7CButton@@6B@
CONST	SEGMENT
??_7CButton@@6B@ DD FLAT:??_R4CButton@@6B@		; CButton::`vftable'
	DD	FLAT:?GetRuntimeClass@CButton@@UBEPAUCRuntimeClass@@XZ
	DD	FLAT:??_ECButton@@UAEPAXI@Z
	DD	FLAT:?Serialize@CObject@@UAEXAAVCArchive@@@Z
	DD	FLAT:?AssertValid@CObject@@UBEXXZ
	DD	FLAT:?Dump@CObject@@UBEXAAVCDumpContext@@@Z
	DD	FLAT:?OnCmdMsg@CCmdTarget@@UAEHIHPAXPAUAFX_CMDHANDLERINFO@@@Z
	DD	FLAT:?OnFinalRelease@CWnd@@UAEXXZ
	DD	FLAT:?IsInvokeAllowed@CCmdTarget@@UAEHJ@Z
	DD	FLAT:?GetDispatchIID@CCmdTarget@@UAEHPAU_GUID@@@Z
	DD	FLAT:?GetTypeInfoCount@CCmdTarget@@UAEIXZ
	DD	FLAT:?GetTypeLibCache@CCmdTarget@@UAEPAVCTypeLibCache@@XZ
	DD	FLAT:?GetTypeLib@CCmdTarget@@UAEJKPAPAUITypeLib@@@Z
	DD	FLAT:?GetMessageMap@CWnd@@MBEPBUAFX_MSGMAP@@XZ
	DD	FLAT:?GetCommandMap@CCmdTarget@@MBEPBUAFX_OLECMDMAP@@XZ
	DD	FLAT:?GetDispatchMap@CCmdTarget@@MBEPBUAFX_DISPMAP@@XZ
	DD	FLAT:?GetConnectionMap@CCmdTarget@@MBEPBUAFX_CONNECTIONMAP@@XZ
	DD	FLAT:?GetInterfaceMap@CWnd@@MBEPBUAFX_INTERFACEMAP@@XZ
	DD	FLAT:?GetEventSinkMap@CCmdTarget@@MBEPBUAFX_EVENTSINKMAP@@XZ
	DD	FLAT:?OnCreateAggregates@CCmdTarget@@UAEHXZ
	DD	FLAT:?GetInterfaceHook@CCmdTarget@@UAEPAUIUnknown@@PBX@Z
	DD	FLAT:?GetExtraConnectionPoints@CCmdTarget@@MAEHPAVCPtrArray@@@Z
	DD	FLAT:?GetConnectionHook@CCmdTarget@@MAEPAUIConnectionPoint@@ABU_GUID@@@Z
	DD	FLAT:?PreSubclassWindow@CWnd@@UAEXXZ
	DD	FLAT:?Create@CWnd@@UAEHPBD0KABUtagRECT@@PAV1@IPAUCCreateContext@@@Z
	DD	FLAT:?CreateEx@CWnd@@UAEHKPBD0KABUtagRECT@@PAV1@IPAX@Z
	DD	FLAT:?CreateEx@CWnd@@UAEHKPBD0KHHHHPAUHWND__@@PAUHMENU__@@PAX@Z
	DD	FLAT:?DestroyWindow@CWnd@@UAEHXZ
	DD	FLAT:?PreCreateWindow@CWnd@@UAEHAAUtagCREATESTRUCTA@@@Z
	DD	FLAT:?CalcWindowRect@CWnd@@UAEXPAUtagRECT@@I@Z
	DD	FLAT:?GetMenu@CWnd@@UBEPAVCMenu@@XZ
	DD	FLAT:?SetMenu@CWnd@@UAEHPAVCMenu@@@Z
	DD	FLAT:?OnToolHitTest@CWnd@@UBEHVCPoint@@PAUtagTOOLINFOA@@@Z
	DD	FLAT:?GetScrollBarCtrl@CWnd@@UBEPAVCScrollBar@@H@Z
	DD	FLAT:?WinHelpA@CWnd@@UAEXKI@Z
	DD	FLAT:?HtmlHelpA@CWnd@@UAEXKI@Z
	DD	FLAT:?WinHelpInternal@CWnd@@UAEXKI@Z
	DD	FLAT:?ContinueModal@CWnd@@UAEHXZ
	DD	FLAT:?EndModalLoop@CWnd@@UAEXH@Z
	DD	FLAT:?OnDrawIconicThumbnailOrLivePreview@CWnd@@UAEXAAVCDC@@VCRect@@VCSize@@HAAH@Z
	DD	FLAT:?EnsureStdObj@CWnd@@UAEJXZ
	DD	FLAT:?get_accParent@CWnd@@UAEJPAPAUIDispatch@@@Z
	DD	FLAT:?get_accChildCount@CWnd@@UAEJPAJ@Z
	DD	FLAT:?get_accChild@CWnd@@UAEJUtagVARIANT@@PAPAUIDispatch@@@Z
	DD	FLAT:?get_accName@CWnd@@UAEJUtagVARIANT@@PAPA_W@Z
	DD	FLAT:?get_accValue@CWnd@@UAEJUtagVARIANT@@PAPA_W@Z
	DD	FLAT:?get_accDescription@CWnd@@UAEJUtagVARIANT@@PAPA_W@Z
	DD	FLAT:?get_accRole@CWnd@@UAEJUtagVARIANT@@PAU2@@Z
	DD	FLAT:?get_accState@CWnd@@UAEJUtagVARIANT@@PAU2@@Z
	DD	FLAT:?get_accHelp@CWnd@@UAEJUtagVARIANT@@PAPA_W@Z
	DD	FLAT:?get_accHelpTopic@CWnd@@UAEJPAPA_WUtagVARIANT@@PAJ@Z
	DD	FLAT:?get_accKeyboardShortcut@CWnd@@UAEJUtagVARIANT@@PAPA_W@Z
	DD	FLAT:?get_accFocus@CWnd@@UAEJPAUtagVARIANT@@@Z
	DD	FLAT:?get_accSelection@CWnd@@UAEJPAUtagVARIANT@@@Z
	DD	FLAT:?get_accDefaultAction@CWnd@@UAEJUtagVARIANT@@PAPA_W@Z
	DD	FLAT:?accSelect@CWnd@@UAEJJUtagVARIANT@@@Z
	DD	FLAT:?accLocation@CWnd@@UAEJPAJ000UtagVARIANT@@@Z
	DD	FLAT:?accNavigate@CWnd@@UAEJJUtagVARIANT@@PAU2@@Z
	DD	FLAT:?accHitTest@CWnd@@UAEJJJPAUtagVARIANT@@@Z
	DD	FLAT:?accDoDefaultAction@CWnd@@UAEJUtagVARIANT@@@Z
	DD	FLAT:?put_accName@CWnd@@UAEJUtagVARIANT@@PA_W@Z
	DD	FLAT:?put_accValue@CWnd@@UAEJUtagVARIANT@@PA_W@Z
	DD	FLAT:?SetProxy@CWnd@@UAEJPAUIAccessibleProxy@@@Z
	DD	FLAT:?CreateAccessibleProxy@CWnd@@UAEJIJPAJ@Z
	DD	FLAT:?OnCommand@CWnd@@MAEHIJ@Z
	DD	FLAT:?OnNotify@CWnd@@MAEHIJPAJ@Z
	DD	FLAT:?GetSuperWndProcAddr@CWnd@@MAEPAP6GJPAUHWND__@@IIJ@ZXZ
	DD	FLAT:?DoDataExchange@CWnd@@MAEXPAVCDataExchange@@@Z
	DD	FLAT:?BeginModalState@CWnd@@UAEXXZ
	DD	FLAT:?EndModalState@CWnd@@UAEXXZ
	DD	FLAT:?PreTranslateMessage@CWnd@@UAEHPAUtagMSG@@@Z
	DD	FLAT:?OnAmbientProperty@CWnd@@UAEHPAVCOleControlSite@@JPAUtagVARIANT@@@Z
	DD	FLAT:?WindowProc@CWnd@@MAEJIIJ@Z
	DD	FLAT:?OnWndMsg@CWnd@@MAEHIIJPAJ@Z
	DD	FLAT:?DefWindowProcA@CWnd@@MAEJIIJ@Z
	DD	FLAT:?PostNcDestroy@CWnd@@MAEXXZ
	DD	FLAT:?OnChildNotify@CButton@@MAEHIIJPAJ@Z
	DD	FLAT:?OnTouchInputs@CWnd@@MAEHIPAUtagTOUCHINPUT@@@Z
	DD	FLAT:?OnTouchInput@CWnd@@MAEHVCPoint@@HHPAUtagTOUCHINPUT@@@Z
	DD	FLAT:?GetGestureStatus@CWnd@@MAEKVCPoint@@@Z
	DD	FLAT:?OnGestureZoom@CWnd@@MAEHVCPoint@@J@Z
	DD	FLAT:?OnGesturePan@CWnd@@MAEHVCPoint@@0@Z
	DD	FLAT:?OnGestureRotate@CWnd@@MAEHVCPoint@@N@Z
	DD	FLAT:?OnGestureTwoFingerTap@CWnd@@MAEHVCPoint@@@Z
	DD	FLAT:?OnGesturePressAndTap@CWnd@@MAEHVCPoint@@J@Z
	DD	FLAT:?ResizeDynamicLayout@CWnd@@MAEXXZ
	DD	FLAT:?CheckAutoCenter@CWnd@@UAEHXZ
	DD	FLAT:?IsFrameWnd@CWnd@@UBEHXZ
	DD	FLAT:?CreateControlContainer@CWnd@@MAEHPAPAVCOleControlContainer@@@Z
	DD	FLAT:?CreateControlSite@CWnd@@MAEHPAVCOleControlContainer@@PAPAVCOleControlSite@@IABU_GUID@@@Z
	DD	FLAT:?SetOccDialogInfo@CWnd@@MAEHPAU_AFX_OCC_DIALOG_INFO@@@Z
	DD	FLAT:?GetOccDialogInfo@CWnd@@MAEPAU_AFX_OCC_DIALOG_INFO@@XZ
	DD	FLAT:?Create@CButton@@UAEHPBDKABUtagRECT@@PAVCWnd@@I@Z
	DD	FLAT:?DrawItem@CButton@@UAEXPAUtagDRAWITEMSTRUCT@@@Z
CONST	ENDS
;	COMDAT ??_7CBitmap@@6B@
CONST	SEGMENT
??_7CBitmap@@6B@ DD FLAT:??_R4CBitmap@@6B@		; CBitmap::`vftable'
	DD	FLAT:?GetRuntimeClass@CBitmap@@UBEPAUCRuntimeClass@@XZ
	DD	FLAT:??_ECBitmap@@UAEPAXI@Z
	DD	FLAT:?Serialize@CObject@@UAEXAAVCArchive@@@Z
	DD	FLAT:?AssertValid@CObject@@UBEXXZ
	DD	FLAT:?Dump@CObject@@UBEXAAVCDumpContext@@@Z
CONST	ENDS
;	COMDAT ??_7CGdiObject@@6B@
CONST	SEGMENT
??_7CGdiObject@@6B@ DD FLAT:??_R4CGdiObject@@6B@	; CGdiObject::`vftable'
	DD	FLAT:?GetRuntimeClass@CGdiObject@@UBEPAUCRuntimeClass@@XZ
	DD	FLAT:??_ECGdiObject@@UAEPAXI@Z
	DD	FLAT:?Serialize@CObject@@UAEXAAVCArchive@@@Z
	DD	FLAT:?AssertValid@CObject@@UBEXXZ
	DD	FLAT:?Dump@CObject@@UBEXAAVCDumpContext@@@Z
CONST	ENDS
;	COMDAT ??_C@_02DPKJAMEF@?$CFd@
CONST	SEGMENT
??_C@_02DPKJAMEF@?$CFd@ DB '%d', 00H			; `string'
CONST	ENDS
;	COMDAT ??_R0PAVCException@@@8
data$r	SEGMENT
??_R0PAVCException@@@8 DD FLAT:??_7type_info@@6B@	; CException * `RTTI Type Descriptor'
	DD	00H
	DB	'.PAVCException@@', 00H
data$r	ENDS
;	COMDAT xdata$x
xdata$x	SEGMENT
__unwindtable$??$_Construct@V?$_Deque_unchecked_const_iterator@V?$_Deque_val@U?$_Deque_simple_types@PAVCCoordinate@@@std@@@std@@@std@@@?$deque@PAVCCoordinate@@V?$allocator@PAVCCoordinate@@@std@@@std@@AAEXV?$_Deque_unchecked_const_iterator@V?$_Deque_val@U?$_Deque_simple_types@PAVCCoordinate@@@std@@@std@@@1@0@Z DD 0ffffffffH
	DD	FLAT:__unwindfunclet$??$_Construct@V?$_Deque_unchecked_const_iterator@V?$_Deque_val@U?$_Deque_simple_types@PAVCCoordinate@@@std@@@std@@@std@@@?$deque@PAVCCoordinate@@V?$allocator@PAVCCoordinate@@@std@@@std@@AAEXV?$_Deque_unchecked_const_iterator@V?$_Deque_val@U?$_Deque_simple_types@PAVCCoordinate@@@std@@@std@@@1@0@Z$0
__ehfuncinfo$??$_Construct@V?$_Deque_unchecked_const_iterator@V?$_Deque_val@U?$_Deque_simple_types@PAVCCoordinate@@@std@@@std@@@std@@@?$deque@PAVCCoordinate@@V?$allocator@PAVCCoordinate@@@std@@@std@@AAEXV?$_Deque_unchecked_const_iterator@V?$_Deque_val@U?$_Deque_simple_types@PAVCCoordinate@@@std@@@std@@@1@0@Z DD 019930522H
	DD	01H
	DD	FLAT:__unwindtable$??$_Construct@V?$_Deque_unchecked_const_iterator@V?$_Deque_val@U?$_Deque_simple_types@PAVCCoordinate@@@std@@@std@@@std@@@?$deque@PAVCCoordinate@@V?$allocator@PAVCCoordinate@@@std@@@std@@AAEXV?$_Deque_unchecked_const_iterator@V?$_Deque_val@U?$_Deque_simple_types@PAVCCoordinate@@@std@@@std@@@1@0@Z
	DD	2 DUP(00H)
	DD	2 DUP(00H)
	DD	00H
	DD	01H
xdata$x	ENDS
;	COMDAT xdata$x
xdata$x	SEGMENT
__ehfuncinfo$??1CMultiLanguageResourceSetter@@QAE@XZ DD 019930522H
	DD	00H
	DD	00H
	DD	2 DUP(00H)
	DD	2 DUP(00H)
	DD	00H
	DD	05H
xdata$x	ENDS
;	COMDAT xdata$x
xdata$x	SEGMENT
__ehfuncinfo$?SetDateValueLists@CDlgAnalysisToolSet@@AAEXXZ DD 019930522H
	DD	06H
	DD	FLAT:__unwindtable$?SetDateValueLists@CDlgAnalysisToolSet@@AAEXXZ
	DD	2 DUP(00H)
	DD	2 DUP(00H)
	DD	00H
	DD	01H
__unwindtable$?SetDateValueLists@CDlgAnalysisToolSet@@AAEXXZ DD 0ffffffffH
	DD	FLAT:__unwindfunclet$?SetDateValueLists@CDlgAnalysisToolSet@@AAEXXZ$0
	DD	00H
	DD	FLAT:__unwindfunclet$?SetDateValueLists@CDlgAnalysisToolSet@@AAEXXZ$1
	DD	01H
	DD	FLAT:__unwindfunclet$?SetDateValueLists@CDlgAnalysisToolSet@@AAEXXZ$2
	DD	02H
	DD	FLAT:__unwindfunclet$?SetDateValueLists@CDlgAnalysisToolSet@@AAEXXZ$3
	DD	02H
	DD	FLAT:__unwindfunclet$?SetDateValueLists@CDlgAnalysisToolSet@@AAEXXZ$5
	DD	02H
	DD	FLAT:__unwindfunclet$?SetDateValueLists@CDlgAnalysisToolSet@@AAEXXZ$7
xdata$x	ENDS
;	COMDAT xdata$x
xdata$x	SEGMENT
__unwindtable$?InitializeData_Style@CDlgAnalysisToolSet@@AAEXXZ DD 0ffffffffH
	DD	FLAT:__unwindfunclet$?InitializeData_Style@CDlgAnalysisToolSet@@AAEXXZ$0
	DD	0ffffffffH
	DD	FLAT:___std_terminate
__ehfuncinfo$?InitializeData_Style@CDlgAnalysisToolSet@@AAEXXZ DD 019930522H
	DD	02H
	DD	FLAT:__unwindtable$?InitializeData_Style@CDlgAnalysisToolSet@@AAEXXZ
	DD	2 DUP(00H)
	DD	2 DUP(00H)
	DD	00H
	DD	01H
xdata$x	ENDS
;	COMDAT xdata$x
xdata$x	SEGMENT
__unwindtable$?InitializeData_Width@CDlgAnalysisToolSet@@AAEXXZ DD 0ffffffffH
	DD	FLAT:__unwindfunclet$?InitializeData_Width@CDlgAnalysisToolSet@@AAEXXZ$0
	DD	0ffffffffH
	DD	FLAT:___std_terminate
__ehfuncinfo$?InitializeData_Width@CDlgAnalysisToolSet@@AAEXXZ DD 019930522H
	DD	02H
	DD	FLAT:__unwindtable$?InitializeData_Width@CDlgAnalysisToolSet@@AAEXXZ
	DD	2 DUP(00H)
	DD	2 DUP(00H)
	DD	00H
	DD	01H
xdata$x	ENDS
;	COMDAT xdata$x
xdata$x	SEGMENT
__ehfuncinfo$?SetXDateTime@CDlgAnalysisToolSet@@IAEXNH@Z DD 019930522H
	DD	011H
	DD	FLAT:__unwindtable$?SetXDateTime@CDlgAnalysisToolSet@@IAEXNH@Z
	DD	2 DUP(00H)
	DD	2 DUP(00H)
	DD	00H
	DD	01H
__unwindtable$?SetXDateTime@CDlgAnalysisToolSet@@IAEXNH@Z DD 0ffffffffH
	DD	FLAT:__unwindfunclet$?SetXDateTime@CDlgAnalysisToolSet@@IAEXNH@Z$0
	DD	00H
	DD	FLAT:__unwindfunclet$?SetXDateTime@CDlgAnalysisToolSet@@IAEXNH@Z$4
	DD	01H
	DD	FLAT:__unwindfunclet$?SetXDateTime@CDlgAnalysisToolSet@@IAEXNH@Z$5
	DD	02H
	DD	FLAT:__unwindfunclet$?SetXDateTime@CDlgAnalysisToolSet@@IAEXNH@Z$6
	DD	03H
	DD	FLAT:__unwindfunclet$?SetXDateTime@CDlgAnalysisToolSet@@IAEXNH@Z$7
	DD	01H
	DD	FLAT:__unwindfunclet$?SetXDateTime@CDlgAnalysisToolSet@@IAEXNH@Z$8
	DD	05H
	DD	FLAT:__unwindfunclet$?SetXDateTime@CDlgAnalysisToolSet@@IAEXNH@Z$9
	DD	06H
	DD	FLAT:__unwindfunclet$?SetXDateTime@CDlgAnalysisToolSet@@IAEXNH@Z$10
	DD	01H
	DD	FLAT:__unwindfunclet$?SetXDateTime@CDlgAnalysisToolSet@@IAEXNH@Z$20
	DD	01H
	DD	FLAT:__unwindfunclet$?SetXDateTime@CDlgAnalysisToolSet@@IAEXNH@Z$12
	DD	09H
	DD	FLAT:__unwindfunclet$?SetXDateTime@CDlgAnalysisToolSet@@IAEXNH@Z$13
	DD	0aH
	DD	FLAT:__unwindfunclet$?SetXDateTime@CDlgAnalysisToolSet@@IAEXNH@Z$14
	DD	0bH
	DD	FLAT:__unwindfunclet$?SetXDateTime@CDlgAnalysisToolSet@@IAEXNH@Z$15
	DD	01H
	DD	FLAT:__unwindfunclet$?SetXDateTime@CDlgAnalysisToolSet@@IAEXNH@Z$16
	DD	0dH
	DD	FLAT:__unwindfunclet$?SetXDateTime@CDlgAnalysisToolSet@@IAEXNH@Z$17
	DD	0eH
	DD	FLAT:__unwindfunclet$?SetXDateTime@CDlgAnalysisToolSet@@IAEXNH@Z$18
	DD	0fH
	DD	FLAT:__unwindfunclet$?SetXDateTime@CDlgAnalysisToolSet@@IAEXNH@Z$19
xdata$x	ENDS
;	COMDAT xdata$x
xdata$x	SEGMENT
__unwindtable$?SetYValue@CDlgAnalysisToolSet@@IAEXNH@Z DD 0ffffffffH
	DD	FLAT:__unwindfunclet$?SetYValue@CDlgAnalysisToolSet@@IAEXNH@Z$0
	DD	00H
	DD	FLAT:__unwindfunclet$?SetYValue@CDlgAnalysisToolSet@@IAEXNH@Z$1
	DD	01H
	DD	FLAT:__unwindfunclet$?SetYValue@CDlgAnalysisToolSet@@IAEXNH@Z$2
__ehfuncinfo$?SetYValue@CDlgAnalysisToolSet@@IAEXNH@Z DD 019930522H
	DD	03H
	DD	FLAT:__unwindtable$?SetYValue@CDlgAnalysisToolSet@@IAEXNH@Z
	DD	2 DUP(00H)
	DD	2 DUP(00H)
	DD	00H
	DD	01H
xdata$x	ENDS
;	COMDAT xdata$x
xdata$x	SEGMENT
__ehfuncinfo$?SaveData@CDlgAnalysisToolSet@@IAEXXZ DD 019930522H
	DD	07H
	DD	FLAT:__unwindtable$?SaveData@CDlgAnalysisToolSet@@IAEXXZ
	DD	2 DUP(00H)
	DD	2 DUP(00H)
	DD	00H
	DD	01H
__unwindtable$?SaveData@CDlgAnalysisToolSet@@IAEXXZ DD 0ffffffffH
	DD	FLAT:__unwindfunclet$?SaveData@CDlgAnalysisToolSet@@IAEXXZ$0
	DD	00H
	DD	FLAT:__unwindfunclet$?SaveData@CDlgAnalysisToolSet@@IAEXXZ$1
	DD	01H
	DD	FLAT:__unwindfunclet$?SaveData@CDlgAnalysisToolSet@@IAEXXZ$2
	DD	01H
	DD	FLAT:__unwindfunclet$?SaveData@CDlgAnalysisToolSet@@IAEXXZ$3
	DD	03H
	DD	FLAT:__unwindfunclet$?SaveData@CDlgAnalysisToolSet@@IAEXXZ$4
	DD	04H
	DD	FLAT:__unwindfunclet$?SaveData@CDlgAnalysisToolSet@@IAEXXZ$5
	DD	05H
	DD	FLAT:__unwindfunclet$?SaveData@CDlgAnalysisToolSet@@IAEXXZ$6
xdata$x	ENDS
;	COMDAT xdata$x
xdata$x	SEGMENT
__ehfuncinfo$?InitializeData@CDlgAnalysisToolSet@@IAEXXZ DD 019930522H
	DD	019H
	DD	FLAT:__unwindtable$?InitializeData@CDlgAnalysisToolSet@@IAEXXZ
	DD	2 DUP(00H)
	DD	2 DUP(00H)
	DD	00H
	DD	01H
__unwindtable$?InitializeData@CDlgAnalysisToolSet@@IAEXXZ DD 0ffffffffH
	DD	FLAT:__unwindfunclet$?InitializeData@CDlgAnalysisToolSet@@IAEXXZ$12
	DD	0ffffffffH
	DD	FLAT:___std_terminate
	DD	0ffffffffH
	DD	FLAT:__unwindfunclet$?InitializeData@CDlgAnalysisToolSet@@IAEXXZ$14
	DD	0ffffffffH
	DD	FLAT:___std_terminate
	DD	0ffffffffH
	DD	FLAT:__unwindfunclet$?InitializeData@CDlgAnalysisToolSet@@IAEXXZ$0
	DD	04H
	DD	FLAT:__unwindfunclet$?InitializeData@CDlgAnalysisToolSet@@IAEXXZ$1
	DD	0ffffffffH
	DD	FLAT:___std_terminate
	DD	0ffffffffH
	DD	FLAT:__unwindfunclet$?InitializeData@CDlgAnalysisToolSet@@IAEXXZ$2
	DD	07H
	DD	FLAT:__unwindfunclet$?InitializeData@CDlgAnalysisToolSet@@IAEXXZ$3
	DD	0ffffffffH
	DD	FLAT:___std_terminate
	DD	0ffffffffH
	DD	FLAT:__unwindfunclet$?InitializeData@CDlgAnalysisToolSet@@IAEXXZ$4
	DD	0aH
	DD	FLAT:__unwindfunclet$?InitializeData@CDlgAnalysisToolSet@@IAEXXZ$5
	DD	0ffffffffH
	DD	FLAT:___std_terminate
	DD	0ffffffffH
	DD	FLAT:__unwindfunclet$?InitializeData@CDlgAnalysisToolSet@@IAEXXZ$6
	DD	0dH
	DD	FLAT:__unwindfunclet$?InitializeData@CDlgAnalysisToolSet@@IAEXXZ$7
	DD	0ffffffffH
	DD	FLAT:___std_terminate
	DD	0ffffffffH
	DD	FLAT:__unwindfunclet$?InitializeData@CDlgAnalysisToolSet@@IAEXXZ$8
	DD	010H
	DD	FLAT:__unwindfunclet$?InitializeData@CDlgAnalysisToolSet@@IAEXXZ$9
	DD	0ffffffffH
	DD	FLAT:___std_terminate
	DD	0ffffffffH
	DD	FLAT:__unwindfunclet$?InitializeData@CDlgAnalysisToolSet@@IAEXXZ$10
	DD	013H
	DD	FLAT:__unwindfunclet$?InitializeData@CDlgAnalysisToolSet@@IAEXXZ$11
	DD	0ffffffffH
	DD	FLAT:___std_terminate
	DD	0ffffffffH
	DD	FLAT:__unwindfunclet$?InitializeData@CDlgAnalysisToolSet@@IAEXXZ$22
	DD	016H
	DD	FLAT:__unwindfunclet$?InitializeData@CDlgAnalysisToolSet@@IAEXXZ$23
	DD	017H
	DD	FLAT:__unwindfunclet$?InitializeData@CDlgAnalysisToolSet@@IAEXXZ$24
xdata$x	ENDS
;	COMDAT xdata$x
xdata$x	SEGMENT
__unwindtable$?OnDatetimechangeDatetimepickerXdate3@CDlgAnalysisToolSet@@IAEXPAUtagNMHDR@@PAJ@Z DD 0ffffffffH
	DD	FLAT:__unwindfunclet$?OnDatetimechangeDatetimepickerXdate3@CDlgAnalysisToolSet@@IAEXPAUtagNMHDR@@PAJ@Z$0
__ehfuncinfo$?OnDatetimechangeDatetimepickerXdate3@CDlgAnalysisToolSet@@IAEXPAUtagNMHDR@@PAJ@Z DD 019930522H
	DD	01H
	DD	FLAT:__unwindtable$?OnDatetimechangeDatetimepickerXdate3@CDlgAnalysisToolSet@@IAEXPAUtagNMHDR@@PAJ@Z
	DD	2 DUP(00H)
	DD	2 DUP(00H)
	DD	00H
	DD	01H
xdata$x	ENDS
;	COMDAT xdata$x
xdata$x	SEGMENT
__unwindtable$?OnDatetimechangeDatetimepickerXdate2@CDlgAnalysisToolSet@@IAEXPAUtagNMHDR@@PAJ@Z DD 0ffffffffH
	DD	FLAT:__unwindfunclet$?OnDatetimechangeDatetimepickerXdate2@CDlgAnalysisToolSet@@IAEXPAUtagNMHDR@@PAJ@Z$0
__ehfuncinfo$?OnDatetimechangeDatetimepickerXdate2@CDlgAnalysisToolSet@@IAEXPAUtagNMHDR@@PAJ@Z DD 019930522H
	DD	01H
	DD	FLAT:__unwindtable$?OnDatetimechangeDatetimepickerXdate2@CDlgAnalysisToolSet@@IAEXPAUtagNMHDR@@PAJ@Z
	DD	2 DUP(00H)
	DD	2 DUP(00H)
	DD	00H
	DD	01H
xdata$x	ENDS
;	COMDAT xdata$x
xdata$x	SEGMENT
__unwindtable$?OnDatetimechangeDatetimepickerXdate1@CDlgAnalysisToolSet@@IAEXPAUtagNMHDR@@PAJ@Z DD 0ffffffffH
	DD	FLAT:__unwindfunclet$?OnDatetimechangeDatetimepickerXdate1@CDlgAnalysisToolSet@@IAEXPAUtagNMHDR@@PAJ@Z$0
__ehfuncinfo$?OnDatetimechangeDatetimepickerXdate1@CDlgAnalysisToolSet@@IAEXPAUtagNMHDR@@PAJ@Z DD 019930522H
	DD	01H
	DD	FLAT:__unwindtable$?OnDatetimechangeDatetimepickerXdate1@CDlgAnalysisToolSet@@IAEXPAUtagNMHDR@@PAJ@Z
	DD	2 DUP(00H)
	DD	2 DUP(00H)
	DD	00H
	DD	01H
xdata$x	ENDS
;	COMDAT xdata$x
xdata$x	SEGMENT
__unwindtable$?OnSelchangeStyle@CDlgAnalysisToolSet@@IAEXXZ DD 0ffffffffH
	DD	FLAT:__unwindfunclet$?OnSelchangeStyle@CDlgAnalysisToolSet@@IAEXXZ$0
	DD	00H
	DD	FLAT:__unwindfunclet$?OnSelchangeStyle@CDlgAnalysisToolSet@@IAEXXZ$1
	DD	0ffffffffH
	DD	FLAT:___std_terminate
__ehfuncinfo$?OnSelchangeStyle@CDlgAnalysisToolSet@@IAEXXZ DD 019930522H
	DD	03H
	DD	FLAT:__unwindtable$?OnSelchangeStyle@CDlgAnalysisToolSet@@IAEXXZ
	DD	2 DUP(00H)
	DD	2 DUP(00H)
	DD	00H
	DD	01H
xdata$x	ENDS
;	COMDAT xdata$x
xdata$x	SEGMENT
__unwindtable$?OnSelchangeWidth@CDlgAnalysisToolSet@@IAEXXZ DD 0ffffffffH
	DD	FLAT:__unwindfunclet$?OnSelchangeWidth@CDlgAnalysisToolSet@@IAEXXZ$0
	DD	00H
	DD	FLAT:__unwindfunclet$?OnSelchangeWidth@CDlgAnalysisToolSet@@IAEXXZ$1
	DD	0ffffffffH
	DD	FLAT:___std_terminate
__ehfuncinfo$?OnSelchangeWidth@CDlgAnalysisToolSet@@IAEXXZ DD 019930522H
	DD	03H
	DD	FLAT:__unwindtable$?OnSelchangeWidth@CDlgAnalysisToolSet@@IAEXXZ
	DD	2 DUP(00H)
	DD	2 DUP(00H)
	DD	00H
	DD	01H
xdata$x	ENDS
;	COMDAT xdata$x
xdata$x	SEGMENT
__unwindtable$?OnColor@CDlgAnalysisToolSet@@IAEXXZ DD 0ffffffffH
	DD	FLAT:__unwindfunclet$?OnColor@CDlgAnalysisToolSet@@IAEXXZ$0
__ehfuncinfo$?OnColor@CDlgAnalysisToolSet@@IAEXXZ DD 019930522H
	DD	01H
	DD	FLAT:__unwindtable$?OnColor@CDlgAnalysisToolSet@@IAEXXZ
	DD	2 DUP(00H)
	DD	2 DUP(00H)
	DD	00H
	DD	01H
xdata$x	ENDS
;	COMDAT xdata$x
xdata$x	SEGMENT
__ehfuncinfo$??0CDlgAnalysisToolSet@@QAE@PAVCWnd@@ABV?$CStringT@DV?$StrTraitMFC_DLL@DV?$ChTraitsCRT@D@ATL@@@@@ATL@@ABW4HORZSCALEDRAWERTYPE@CScaleBaseData@@HPAH3PAVCTextPosition@@PAVCPenEnvironment@@PAVCElementPointList@@PAVCLineExtEnvironment@@PAVCDataTypeEnvironment@@PAUIChartOCX133101@@AAVCBlockIndex@@V23@J@Z DD 019930522H
	DD	01dH
	DD	FLAT:__unwindtable$??0CDlgAnalysisToolSet@@QAE@PAVCWnd@@ABV?$CStringT@DV?$StrTraitMFC_DLL@DV?$ChTraitsCRT@D@ATL@@@@@ATL@@ABW4HORZSCALEDRAWERTYPE@CScaleBaseData@@HPAH3PAVCTextPosition@@PAVCPenEnvironment@@PAVCElementPointList@@PAVCLineExtEnvironment@@PAVCDataTypeEnvironment@@PAUIChartOCX133101@@AAVCBlockIndex@@V23@J@Z
	DD	2 DUP(00H)
	DD	2 DUP(00H)
	DD	00H
	DD	01H
__unwindtable$??0CDlgAnalysisToolSet@@QAE@PAVCWnd@@ABV?$CStringT@DV?$StrTraitMFC_DLL@DV?$ChTraitsCRT@D@ATL@@@@@ATL@@ABW4HORZSCALEDRAWERTYPE@CScaleBaseData@@HPAH3PAVCTextPosition@@PAVCPenEnvironment@@PAVCElementPointList@@PAVCLineExtEnvironment@@PAVCDataTypeEnvironment@@PAUIChartOCX133101@@AAVCBlockIndex@@V23@J@Z DD 0ffffffffH
	DD	FLAT:__unwindfunclet$??0CDlgAnalysisToolSet@@QAE@PAVCWnd@@ABV?$CStringT@DV?$StrTraitMFC_DLL@DV?$ChTraitsCRT@D@ATL@@@@@ATL@@ABW4HORZSCALEDRAWERTYPE@CScaleBaseData@@HPAH3PAVCTextPosition@@PAVCPenEnvironment@@PAVCElementPointList@@PAVCLineExtEnvironment@@PAVCDataTypeEnvironment@@PAUIChartOCX133101@@AAVCBlockIndex@@V23@J@Z$0
	DD	00H
	DD	FLAT:__unwindfunclet$??0CDlgAnalysisToolSet@@QAE@PAVCWnd@@ABV?$CStringT@DV?$StrTraitMFC_DLL@DV?$ChTraitsCRT@D@ATL@@@@@ATL@@ABW4HORZSCALEDRAWERTYPE@CScaleBaseData@@HPAH3PAVCTextPosition@@PAVCPenEnvironment@@PAVCElementPointList@@PAVCLineExtEnvironment@@PAVCDataTypeEnvironment@@PAUIChartOCX133101@@AAVCBlockIndex@@V23@J@Z$1
	DD	01H
	DD	FLAT:__unwindfunclet$??0CDlgAnalysisToolSet@@QAE@PAVCWnd@@ABV?$CStringT@DV?$StrTraitMFC_DLL@DV?$ChTraitsCRT@D@ATL@@@@@ATL@@ABW4HORZSCALEDRAWERTYPE@CScaleBaseData@@HPAH3PAVCTextPosition@@PAVCPenEnvironment@@PAVCElementPointList@@PAVCLineExtEnvironment@@PAVCDataTypeEnvironment@@PAUIChartOCX133101@@AAVCBlockIndex@@V23@J@Z$2
	DD	02H
	DD	FLAT:__unwindfunclet$??0CDlgAnalysisToolSet@@QAE@PAVCWnd@@ABV?$CStringT@DV?$StrTraitMFC_DLL@DV?$ChTraitsCRT@D@ATL@@@@@ATL@@ABW4HORZSCALEDRAWERTYPE@CScaleBaseData@@HPAH3PAVCTextPosition@@PAVCPenEnvironment@@PAVCElementPointList@@PAVCLineExtEnvironment@@PAVCDataTypeEnvironment@@PAUIChartOCX133101@@AAVCBlockIndex@@V23@J@Z$3
	DD	03H
	DD	FLAT:__unwindfunclet$??0CDlgAnalysisToolSet@@QAE@PAVCWnd@@ABV?$CStringT@DV?$StrTraitMFC_DLL@DV?$ChTraitsCRT@D@ATL@@@@@ATL@@ABW4HORZSCALEDRAWERTYPE@CScaleBaseData@@HPAH3PAVCTextPosition@@PAVCPenEnvironment@@PAVCElementPointList@@PAVCLineExtEnvironment@@PAVCDataTypeEnvironment@@PAUIChartOCX133101@@AAVCBlockIndex@@V23@J@Z$4
	DD	04H
	DD	FLAT:__unwindfunclet$??0CDlgAnalysisToolSet@@QAE@PAVCWnd@@ABV?$CStringT@DV?$StrTraitMFC_DLL@DV?$ChTraitsCRT@D@ATL@@@@@ATL@@ABW4HORZSCALEDRAWERTYPE@CScaleBaseData@@HPAH3PAVCTextPosition@@PAVCPenEnvironment@@PAVCElementPointList@@PAVCLineExtEnvironment@@PAVCDataTypeEnvironment@@PAUIChartOCX133101@@AAVCBlockIndex@@V23@J@Z$5
	DD	05H
	DD	FLAT:__unwindfunclet$??0CDlgAnalysisToolSet@@QAE@PAVCWnd@@ABV?$CStringT@DV?$StrTraitMFC_DLL@DV?$ChTraitsCRT@D@ATL@@@@@ATL@@ABW4HORZSCALEDRAWERTYPE@CScaleBaseData@@HPAH3PAVCTextPosition@@PAVCPenEnvironment@@PAVCElementPointList@@PAVCLineExtEnvironment@@PAVCDataTypeEnvironment@@PAUIChartOCX133101@@AAVCBlockIndex@@V23@J@Z$6
	DD	06H
	DD	FLAT:__unwindfunclet$??0CDlgAnalysisToolSet@@QAE@PAVCWnd@@ABV?$CStringT@DV?$StrTraitMFC_DLL@DV?$ChTraitsCRT@D@ATL@@@@@ATL@@ABW4HORZSCALEDRAWERTYPE@CScaleBaseData@@HPAH3PAVCTextPosition@@PAVCPenEnvironment@@PAVCElementPointList@@PAVCLineExtEnvironment@@PAVCDataTypeEnvironment@@PAUIChartOCX133101@@AAVCBlockIndex@@V23@J@Z$7
	DD	07H
	DD	FLAT:__unwindfunclet$??0CDlgAnalysisToolSet@@QAE@PAVCWnd@@ABV?$CStringT@DV?$StrTraitMFC_DLL@DV?$ChTraitsCRT@D@ATL@@@@@ATL@@ABW4HORZSCALEDRAWERTYPE@CScaleBaseData@@HPAH3PAVCTextPosition@@PAVCPenEnvironment@@PAVCElementPointList@@PAVCLineExtEnvironment@@PAVCDataTypeEnvironment@@PAUIChartOCX133101@@AAVCBlockIndex@@V23@J@Z$8
	DD	08H
	DD	FLAT:__unwindfunclet$??0CDlgAnalysisToolSet@@QAE@PAVCWnd@@ABV?$CStringT@DV?$StrTraitMFC_DLL@DV?$ChTraitsCRT@D@ATL@@@@@ATL@@ABW4HORZSCALEDRAWERTYPE@CScaleBaseData@@HPAH3PAVCTextPosition@@PAVCPenEnvironment@@PAVCElementPointList@@PAVCLineExtEnvironment@@PAVCDataTypeEnvironment@@PAUIChartOCX133101@@AAVCBlockIndex@@V23@J@Z$9
	DD	09H
	DD	FLAT:__unwindfunclet$??0CDlgAnalysisToolSet@@QAE@PAVCWnd@@ABV?$CStringT@DV?$StrTraitMFC_DLL@DV?$ChTraitsCRT@D@ATL@@@@@ATL@@ABW4HORZSCALEDRAWERTYPE@CScaleBaseData@@HPAH3PAVCTextPosition@@PAVCPenEnvironment@@PAVCElementPointList@@PAVCLineExtEnvironment@@PAVCDataTypeEnvironment@@PAUIChartOCX133101@@AAVCBlockIndex@@V23@J@Z$10
	DD	0aH
	DD	FLAT:__unwindfunclet$??0CDlgAnalysisToolSet@@QAE@PAVCWnd@@ABV?$CStringT@DV?$StrTraitMFC_DLL@DV?$ChTraitsCRT@D@ATL@@@@@ATL@@ABW4HORZSCALEDRAWERTYPE@CScaleBaseData@@HPAH3PAVCTextPosition@@PAVCPenEnvironment@@PAVCElementPointList@@PAVCLineExtEnvironment@@PAVCDataTypeEnvironment@@PAUIChartOCX133101@@AAVCBlockIndex@@V23@J@Z$11
	DD	0bH
	DD	FLAT:__unwindfunclet$??0CDlgAnalysisToolSet@@QAE@PAVCWnd@@ABV?$CStringT@DV?$StrTraitMFC_DLL@DV?$ChTraitsCRT@D@ATL@@@@@ATL@@ABW4HORZSCALEDRAWERTYPE@CScaleBaseData@@HPAH3PAVCTextPosition@@PAVCPenEnvironment@@PAVCElementPointList@@PAVCLineExtEnvironment@@PAVCDataTypeEnvironment@@PAUIChartOCX133101@@AAVCBlockIndex@@V23@J@Z$12
	DD	0cH
	DD	FLAT:__unwindfunclet$??0CDlgAnalysisToolSet@@QAE@PAVCWnd@@ABV?$CStringT@DV?$StrTraitMFC_DLL@DV?$ChTraitsCRT@D@ATL@@@@@ATL@@ABW4HORZSCALEDRAWERTYPE@CScaleBaseData@@HPAH3PAVCTextPosition@@PAVCPenEnvironment@@PAVCElementPointList@@PAVCLineExtEnvironment@@PAVCDataTypeEnvironment@@PAUIChartOCX133101@@AAVCBlockIndex@@V23@J@Z$13
	DD	0dH
	DD	FLAT:__unwindfunclet$??0CDlgAnalysisToolSet@@QAE@PAVCWnd@@ABV?$CStringT@DV?$StrTraitMFC_DLL@DV?$ChTraitsCRT@D@ATL@@@@@ATL@@ABW4HORZSCALEDRAWERTYPE@CScaleBaseData@@HPAH3PAVCTextPosition@@PAVCPenEnvironment@@PAVCElementPointList@@PAVCLineExtEnvironment@@PAVCDataTypeEnvironment@@PAUIChartOCX133101@@AAVCBlockIndex@@V23@J@Z$14
	DD	0eH
	DD	FLAT:__unwindfunclet$??0CDlgAnalysisToolSet@@QAE@PAVCWnd@@ABV?$CStringT@DV?$StrTraitMFC_DLL@DV?$ChTraitsCRT@D@ATL@@@@@ATL@@ABW4HORZSCALEDRAWERTYPE@CScaleBaseData@@HPAH3PAVCTextPosition@@PAVCPenEnvironment@@PAVCElementPointList@@PAVCLineExtEnvironment@@PAVCDataTypeEnvironment@@PAUIChartOCX133101@@AAVCBlockIndex@@V23@J@Z$15
	DD	0fH
	DD	FLAT:__unwindfunclet$??0CDlgAnalysisToolSet@@QAE@PAVCWnd@@ABV?$CStringT@DV?$StrTraitMFC_DLL@DV?$ChTraitsCRT@D@ATL@@@@@ATL@@ABW4HORZSCALEDRAWERTYPE@CScaleBaseData@@HPAH3PAVCTextPosition@@PAVCPenEnvironment@@PAVCElementPointList@@PAVCLineExtEnvironment@@PAVCDataTypeEnvironment@@PAUIChartOCX133101@@AAVCBlockIndex@@V23@J@Z$16
	DD	010H
	DD	FLAT:__unwindfunclet$??0CDlgAnalysisToolSet@@QAE@PAVCWnd@@ABV?$CStringT@DV?$StrTraitMFC_DLL@DV?$ChTraitsCRT@D@ATL@@@@@ATL@@ABW4HORZSCALEDRAWERTYPE@CScaleBaseData@@HPAH3PAVCTextPosition@@PAVCPenEnvironment@@PAVCElementPointList@@PAVCLineExtEnvironment@@PAVCDataTypeEnvironment@@PAUIChartOCX133101@@AAVCBlockIndex@@V23@J@Z$17
	DD	011H
	DD	FLAT:__unwindfunclet$??0CDlgAnalysisToolSet@@QAE@PAVCWnd@@ABV?$CStringT@DV?$StrTraitMFC_DLL@DV?$ChTraitsCRT@D@ATL@@@@@ATL@@ABW4HORZSCALEDRAWERTYPE@CScaleBaseData@@HPAH3PAVCTextPosition@@PAVCPenEnvironment@@PAVCElementPointList@@PAVCLineExtEnvironment@@PAVCDataTypeEnvironment@@PAUIChartOCX133101@@AAVCBlockIndex@@V23@J@Z$18
	DD	012H
	DD	FLAT:__unwindfunclet$??0CDlgAnalysisToolSet@@QAE@PAVCWnd@@ABV?$CStringT@DV?$StrTraitMFC_DLL@DV?$ChTraitsCRT@D@ATL@@@@@ATL@@ABW4HORZSCALEDRAWERTYPE@CScaleBaseData@@HPAH3PAVCTextPosition@@PAVCPenEnvironment@@PAVCElementPointList@@PAVCLineExtEnvironment@@PAVCDataTypeEnvironment@@PAUIChartOCX133101@@AAVCBlockIndex@@V23@J@Z$19
	DD	013H
	DD	FLAT:__unwindfunclet$??0CDlgAnalysisToolSet@@QAE@PAVCWnd@@ABV?$CStringT@DV?$StrTraitMFC_DLL@DV?$ChTraitsCRT@D@ATL@@@@@ATL@@ABW4HORZSCALEDRAWERTYPE@CScaleBaseData@@HPAH3PAVCTextPosition@@PAVCPenEnvironment@@PAVCElementPointList@@PAVCLineExtEnvironment@@PAVCDataTypeEnvironment@@PAUIChartOCX133101@@AAVCBlockIndex@@V23@J@Z$20
	DD	014H
	DD	FLAT:__unwindfunclet$??0CDlgAnalysisToolSet@@QAE@PAVCWnd@@ABV?$CStringT@DV?$StrTraitMFC_DLL@DV?$ChTraitsCRT@D@ATL@@@@@ATL@@ABW4HORZSCALEDRAWERTYPE@CScaleBaseData@@HPAH3PAVCTextPosition@@PAVCPenEnvironment@@PAVCElementPointList@@PAVCLineExtEnvironment@@PAVCDataTypeEnvironment@@PAUIChartOCX133101@@AAVCBlockIndex@@V23@J@Z$21
	DD	015H
	DD	FLAT:__unwindfunclet$??0CDlgAnalysisToolSet@@QAE@PAVCWnd@@ABV?$CStringT@DV?$StrTraitMFC_DLL@DV?$ChTraitsCRT@D@ATL@@@@@ATL@@ABW4HORZSCALEDRAWERTYPE@CScaleBaseData@@HPAH3PAVCTextPosition@@PAVCPenEnvironment@@PAVCElementPointList@@PAVCLineExtEnvironment@@PAVCDataTypeEnvironment@@PAUIChartOCX133101@@AAVCBlockIndex@@V23@J@Z$22
	DD	016H
	DD	FLAT:__unwindfunclet$??0CDlgAnalysisToolSet@@QAE@PAVCWnd@@ABV?$CStringT@DV?$StrTraitMFC_DLL@DV?$ChTraitsCRT@D@ATL@@@@@ATL@@ABW4HORZSCALEDRAWERTYPE@CScaleBaseData@@HPAH3PAVCTextPosition@@PAVCPenEnvironment@@PAVCElementPointList@@PAVCLineExtEnvironment@@PAVCDataTypeEnvironment@@PAUIChartOCX133101@@AAVCBlockIndex@@V23@J@Z$23
	DD	017H
	DD	FLAT:__unwindfunclet$??0CDlgAnalysisToolSet@@QAE@PAVCWnd@@ABV?$CStringT@DV?$StrTraitMFC_DLL@DV?$ChTraitsCRT@D@ATL@@@@@ATL@@ABW4HORZSCALEDRAWERTYPE@CScaleBaseData@@HPAH3PAVCTextPosition@@PAVCPenEnvironment@@PAVCElementPointList@@PAVCLineExtEnvironment@@PAVCDataTypeEnvironment@@PAUIChartOCX133101@@AAVCBlockIndex@@V23@J@Z$24
	DD	018H
	DD	FLAT:__unwindfunclet$??0CDlgAnalysisToolSet@@QAE@PAVCWnd@@ABV?$CStringT@DV?$StrTraitMFC_DLL@DV?$ChTraitsCRT@D@ATL@@@@@ATL@@ABW4HORZSCALEDRAWERTYPE@CScaleBaseData@@HPAH3PAVCTextPosition@@PAVCPenEnvironment@@PAVCElementPointList@@PAVCLineExtEnvironment@@PAVCDataTypeEnvironment@@PAUIChartOCX133101@@AAVCBlockIndex@@V23@J@Z$25
	DD	019H
	DD	FLAT:__unwindfunclet$??0CDlgAnalysisToolSet@@QAE@PAVCWnd@@ABV?$CStringT@DV?$StrTraitMFC_DLL@DV?$ChTraitsCRT@D@ATL@@@@@ATL@@ABW4HORZSCALEDRAWERTYPE@CScaleBaseData@@HPAH3PAVCTextPosition@@PAVCPenEnvironment@@PAVCElementPointList@@PAVCLineExtEnvironment@@PAVCDataTypeEnvironment@@PAUIChartOCX133101@@AAVCBlockIndex@@V23@J@Z$26
	DD	01aH
	DD	FLAT:__unwindfunclet$??0CDlgAnalysisToolSet@@QAE@PAVCWnd@@ABV?$CStringT@DV?$StrTraitMFC_DLL@DV?$ChTraitsCRT@D@ATL@@@@@ATL@@ABW4HORZSCALEDRAWERTYPE@CScaleBaseData@@HPAH3PAVCTextPosition@@PAVCPenEnvironment@@PAVCElementPointList@@PAVCLineExtEnvironment@@PAVCDataTypeEnvironment@@PAUIChartOCX133101@@AAVCBlockIndex@@V23@J@Z$27
	DD	01bH
	DD	FLAT:__unwindfunclet$??0CDlgAnalysisToolSet@@QAE@PAVCWnd@@ABV?$CStringT@DV?$StrTraitMFC_DLL@DV?$ChTraitsCRT@D@ATL@@@@@ATL@@ABW4HORZSCALEDRAWERTYPE@CScaleBaseData@@HPAH3PAVCTextPosition@@PAVCPenEnvironment@@PAVCElementPointList@@PAVCLineExtEnvironment@@PAVCDataTypeEnvironment@@PAUIChartOCX133101@@AAVCBlockIndex@@V23@J@Z$28
xdata$x	ENDS
;	COMDAT xdata$x
xdata$x	SEGMENT
__unwindtable$??0CElementPointList@@QAE@ABV0@@Z DD 0ffffffffH
	DD	FLAT:__unwindfunclet$??0CElementPointList@@QAE@ABV0@@Z$2
	DD	00H
	DD	FLAT:__unwindfunclet$??0CElementPointList@@QAE@ABV0@@Z$3
__ehfuncinfo$??0CElementPointList@@QAE@ABV0@@Z DD 019930522H
	DD	02H
	DD	FLAT:__unwindtable$??0CElementPointList@@QAE@ABV0@@Z
	DD	2 DUP(00H)
	DD	2 DUP(00H)
	DD	00H
	DD	01H
xdata$x	ENDS
;	COMDAT xdata$x
xdata$x	SEGMENT
__unwindtable$??0?$CDequePointerList@VCCoordinate@@@@QAE@ABV0@@Z DD 0ffffffffH
	DD	FLAT:__unwindfunclet$??0?$CDequePointerList@VCCoordinate@@@@QAE@ABV0@@Z$1
	DD	00H
	DD	FLAT:__unwindfunclet$??0?$CDequePointerList@VCCoordinate@@@@QAE@ABV0@@Z$2
__ehfuncinfo$??0?$CDequePointerList@VCCoordinate@@@@QAE@ABV0@@Z DD 019930522H
	DD	02H
	DD	FLAT:__unwindtable$??0?$CDequePointerList@VCCoordinate@@@@QAE@ABV0@@Z
	DD	2 DUP(00H)
	DD	2 DUP(00H)
	DD	00H
	DD	01H
xdata$x	ENDS
;	COMDAT xdata$x
xdata$x	SEGMENT
__unwindtable$??0?$deque@PAVCCoordinate@@V?$allocator@PAVCCoordinate@@@std@@@std@@QAE@ABV01@@Z DD 0ffffffffH
	DD	FLAT:__unwindfunclet$??0?$deque@PAVCCoordinate@@V?$allocator@PAVCCoordinate@@@std@@@std@@QAE@ABV01@@Z$0
	DD	00H
	DD	FLAT:__unwindfunclet$??0?$deque@PAVCCoordinate@@V?$allocator@PAVCCoordinate@@@std@@@std@@QAE@ABV01@@Z$1
__ehfuncinfo$??0?$deque@PAVCCoordinate@@V?$allocator@PAVCCoordinate@@@std@@@std@@QAE@ABV01@@Z DD 019930522H
	DD	02H
	DD	FLAT:__unwindtable$??0?$deque@PAVCCoordinate@@V?$allocator@PAVCCoordinate@@@std@@@std@@QAE@ABV01@@Z
	DD	2 DUP(00H)
	DD	2 DUP(00H)
	DD	00H
	DD	01H
xdata$x	ENDS
;	COMDAT xdata$x
xdata$x	SEGMENT
__catchsym$??1CGdiObject@@UAE@XZ$3 DD 00H
	DD	FLAT:??_R0PAVCException@@@8
	DD	0fffffde4H
	DD	FLAT:__catch$??1CGdiObject@@UAE@XZ$0
__tryblocktable$??1CGdiObject@@UAE@XZ DD 00H
	DD	00H
	DD	02H
	DD	01H
	DD	FLAT:__catchsym$??1CGdiObject@@UAE@XZ$3
__unwindtable$??1CGdiObject@@UAE@XZ DD 0ffffffffH
	DD	00H
	DD	0ffffffffH
	DD	00H
	DD	01H
	DD	FLAT:__unwindfunclet$??1CGdiObject@@UAE@XZ$2
__ehfuncinfo$??1CGdiObject@@UAE@XZ DD 019930522H
	DD	03H
	DD	FLAT:__unwindtable$??1CGdiObject@@UAE@XZ
	DD	01H
	DD	FLAT:__tryblocktable$??1CGdiObject@@UAE@XZ
	DD	2 DUP(00H)
	DD	00H
	DD	05H
xdata$x	ENDS
;	COMDAT xdata$x
xdata$x	SEGMENT
__unwindtable$??HATL@@YA?AV?$CStringT@DV?$StrTraitMFC_DLL@DV?$ChTraitsCRT@D@ATL@@@@@0@PBDABV10@@Z DD 0ffffffffH
	DD	FLAT:__unwindfunclet$??HATL@@YA?AV?$CStringT@DV?$StrTraitMFC_DLL@DV?$ChTraitsCRT@D@ATL@@@@@0@PBDABV10@@Z$0
__ehfuncinfo$??HATL@@YA?AV?$CStringT@DV?$StrTraitMFC_DLL@DV?$ChTraitsCRT@D@ATL@@@@@0@PBDABV10@@Z DD 019930522H
	DD	01H
	DD	FLAT:__unwindtable$??HATL@@YA?AV?$CStringT@DV?$StrTraitMFC_DLL@DV?$ChTraitsCRT@D@ATL@@@@@0@PBDABV10@@Z
	DD	2 DUP(00H)
	DD	2 DUP(00H)
	DD	00H
	DD	01H
xdata$x	ENDS
; Function compile flags: /Ogtp
; File C:\Program Files (x86)\Microsoft Visual Studio\2019\Community\VC\Tools\MSVC\14.29.30133\include\xutility
;	COMDAT ??$_Copy_memmove@PAPAPAVCCoordinate@@PAPAPAV1@@std@@YAPAPAPAVCCoordinate@@PAPAPAV1@00@Z
_TEXT	SEGMENT
__First$ = 8						; size = 4
__Last$ = 12						; size = 4
__Dest$ = 16						; size = 4
??$_Copy_memmove@PAPAPAVCCoordinate@@PAPAPAV1@@std@@YAPAPAPAVCCoordinate@@PAPAPAV1@00@Z PROC ; std::_Copy_memmove<CCoordinate * * *,CCoordinate * * *>, COMDAT

; 4058 : _OutCtgIt _Copy_memmove(_CtgIt _First, _CtgIt _Last, _OutCtgIt _Dest) {

  00000	55		 push	 ebp
  00001	8b ec		 mov	 ebp, esp

; 4059 :     auto _FirstPtr              = _To_address(_First);
; 4060 :     auto _LastPtr               = _To_address(_Last);
; 4061 :     auto _DestPtr               = _To_address(_Dest);
; 4062 :     const char* const _First_ch = const_cast<const char*>(reinterpret_cast<const volatile char*>(_FirstPtr));
; 4063 :     const char* const _Last_ch  = const_cast<const char*>(reinterpret_cast<const volatile char*>(_LastPtr));
; 4064 :     char* const _Dest_ch        = const_cast<char*>(reinterpret_cast<const volatile char*>(_DestPtr));
; 4065 :     const auto _Count           = static_cast<size_t>(_Last_ch - _First_ch);

  00003	8b 45 08	 mov	 eax, DWORD PTR __First$[ebp]
  00006	56		 push	 esi

; 4066 :     _CSTD memmove(_Dest_ch, _First_ch, _Count);

  00007	8b 75 10	 mov	 esi, DWORD PTR __Dest$[ebp]
  0000a	57		 push	 edi
  0000b	8b 7d 0c	 mov	 edi, DWORD PTR __Last$[ebp]
  0000e	2b f8		 sub	 edi, eax
  00010	57		 push	 edi
  00011	50		 push	 eax
  00012	56		 push	 esi
  00013	e8 00 00 00 00	 call	 _memmove
  00018	83 c4 0c	 add	 esp, 12			; 0000000cH

; 4067 :     if constexpr (is_pointer_v<_OutCtgIt>) {
; 4068 :         return reinterpret_cast<_OutCtgIt>(_Dest_ch + _Count);

  0001b	8d 04 37	 lea	 eax, DWORD PTR [edi+esi]
  0001e	5f		 pop	 edi
  0001f	5e		 pop	 esi

; 4069 :     } else {
; 4070 :         return _Dest + (_LastPtr - _FirstPtr);
; 4071 :     }
; 4072 : }

  00020	5d		 pop	 ebp
  00021	c3		 ret	 0
??$_Copy_memmove@PAPAPAVCCoordinate@@PAPAPAV1@@std@@YAPAPAPAVCCoordinate@@PAPAPAV1@00@Z ENDP ; std::_Copy_memmove<CCoordinate * * *,CCoordinate * * *>
_TEXT	ENDS
; Function compile flags: /Ogtp
; File C:\Program Files (x86)\Microsoft Visual Studio\2019\Community\VC\Tools\MSVC\14.29.30133\include\xmemory
;	COMDAT ??$_Zero_range@PAPAPAVCCoordinate@@@std@@YAPAPAPAVCCoordinate@@QAPAPAV1@0@Z
_TEXT	SEGMENT
__First$ = 8						; size = 4
__Last$ = 12						; size = 4
??$_Zero_range@PAPAPAVCCoordinate@@@std@@YAPAPAPAVCCoordinate@@QAPAPAV1@0@Z PROC ; std::_Zero_range<CCoordinate * * *>, COMDAT

; 1789 : _Ptr _Zero_range(const _Ptr _First, const _Ptr _Last) { // fill [_First, _Last) with zeroes

  00000	55		 push	 ebp
  00001	8b ec		 mov	 ebp, esp

; 1790 :     char* const _First_ch = reinterpret_cast<char*>(_To_address(_First));
; 1791 :     char* const _Last_ch  = reinterpret_cast<char*>(_To_address(_Last));
; 1792 :     _CSTD memset(_First_ch, 0, static_cast<size_t>(_Last_ch - _First_ch));

  00003	8b 55 08	 mov	 edx, DWORD PTR __First$[ebp]
  00006	8b 4d 0c	 mov	 ecx, DWORD PTR __Last$[ebp]
  00009	2b ca		 sub	 ecx, edx
  0000b	51		 push	 ecx
  0000c	6a 00		 push	 0
  0000e	52		 push	 edx
  0000f	e8 00 00 00 00	 call	 _memset

; 1793 :     return _Last;

  00014	8b 45 0c	 mov	 eax, DWORD PTR __Last$[ebp]
  00017	83 c4 0c	 add	 esp, 12			; 0000000cH

; 1794 : }

  0001a	5d		 pop	 ebp
  0001b	c3		 ret	 0
??$_Zero_range@PAPAPAVCCoordinate@@@std@@YAPAPAPAVCCoordinate@@QAPAPAV1@0@Z ENDP ; std::_Zero_range<CCoordinate * * *>
_TEXT	ENDS
; Function compile flags: /Ogtp
; File C:\Program Files (x86)\Microsoft Visual Studio\2019\Community\VC\Tools\MSVC\14.29.30133\include\xmemory
;	COMDAT ??$_Uninitialized_value_construct_n_unchecked1@PAPAPAVCCoordinate@@I@std@@YAPAPAPAVCCoordinate@@PAPAPAV1@I@Z
_TEXT	SEGMENT
__UFirst$ = 8						; size = 4
__Count$ = 12						; size = 4
??$_Uninitialized_value_construct_n_unchecked1@PAPAPAVCCoordinate@@I@std@@YAPAPAPAVCCoordinate@@PAPAPAV1@I@Z PROC ; std::_Uninitialized_value_construct_n_unchecked1<CCoordinate * * *,unsigned int>, COMDAT

; 1821 : _NoThrowFwdIt _Uninitialized_value_construct_n_unchecked1(_NoThrowFwdIt _UFirst, _Diff _Count) {

  00000	55		 push	 ebp
  00001	8b ec		 mov	 ebp, esp

; 1822 :     // value-initialize all elements in [_UFirst, _UFirst + _Count_raw)
; 1823 :     _STL_INTERNAL_CHECK(_Count >= 0);
; 1824 :     if constexpr (_Use_memset_value_construct_v<_NoThrowFwdIt>) {
; 1825 :         return _Zero_range(_UFirst, _UFirst + _Count);

  00003	8b 45 0c	 mov	 eax, DWORD PTR __Count$[ebp]
  00006	56		 push	 esi

; 1792 :     _CSTD memset(_First_ch, 0, static_cast<size_t>(_Last_ch - _First_ch));

  00007	8b 75 08	 mov	 esi, DWORD PTR __UFirst$[ebp]

; 1821 : _NoThrowFwdIt _Uninitialized_value_construct_n_unchecked1(_NoThrowFwdIt _UFirst, _Diff _Count) {

  0000a	57		 push	 edi

; 1822 :     // value-initialize all elements in [_UFirst, _UFirst + _Count_raw)
; 1823 :     _STL_INTERNAL_CHECK(_Count >= 0);
; 1824 :     if constexpr (_Use_memset_value_construct_v<_NoThrowFwdIt>) {
; 1825 :         return _Zero_range(_UFirst, _UFirst + _Count);

  0000b	8d 3c 85 00 00
	00 00		 lea	 edi, DWORD PTR [eax*4]

; 1792 :     _CSTD memset(_First_ch, 0, static_cast<size_t>(_Last_ch - _First_ch));

  00012	57		 push	 edi
  00013	6a 00		 push	 0
  00015	56		 push	 esi
  00016	e8 00 00 00 00	 call	 _memset
  0001b	83 c4 0c	 add	 esp, 12			; 0000000cH

; 1822 :     // value-initialize all elements in [_UFirst, _UFirst + _Count_raw)
; 1823 :     _STL_INTERNAL_CHECK(_Count >= 0);
; 1824 :     if constexpr (_Use_memset_value_construct_v<_NoThrowFwdIt>) {
; 1825 :         return _Zero_range(_UFirst, _UFirst + _Count);

  0001e	8d 04 37	 lea	 eax, DWORD PTR [edi+esi]
  00021	5f		 pop	 edi
  00022	5e		 pop	 esi

; 1826 :     } else {
; 1827 :         _Uninitialized_backout<_NoThrowFwdIt> _Backout{_UFirst};
; 1828 :         for (; 0 < _Count; --_Count) {
; 1829 :             _Backout._Emplace_back();
; 1830 :         }
; 1831 : 
; 1832 :         return _Backout._Release();
; 1833 :     }
; 1834 : }

  00023	5d		 pop	 ebp
  00024	c3		 ret	 0
??$_Uninitialized_value_construct_n_unchecked1@PAPAPAVCCoordinate@@I@std@@YAPAPAPAVCCoordinate@@PAPAPAV1@I@Z ENDP ; std::_Uninitialized_value_construct_n_unchecked1<CCoordinate * * *,unsigned int>
_TEXT	ENDS
; Function compile flags: /Ogtp
; File C:\Program Files (x86)\Microsoft Visual Studio\2019\Community\VC\Tools\MSVC\14.29.30133\include\xmemory
; File C:\Program Files (x86)\Microsoft Visual Studio\2019\Community\VC\Tools\MSVC\14.29.30133\include\xutility
; File C:\Program Files (x86)\Microsoft Visual Studio\2019\Community\VC\Tools\MSVC\14.29.30133\include\xmemory
; File C:\Program Files (x86)\Microsoft Visual Studio\2019\Community\VC\Tools\MSVC\14.29.30133\include\xutility
; File C:\Program Files (x86)\Microsoft Visual Studio\2019\Community\VC\Tools\MSVC\14.29.30133\include\xmemory
; File C:\Program Files (x86)\Microsoft Visual Studio\2019\Community\VC\Tools\MSVC\14.29.30133\include\xutility
; File C:\Program Files (x86)\Microsoft Visual Studio\2019\Community\VC\Tools\MSVC\14.29.30133\include\xmemory
;	COMDAT ??$uninitialized_copy@PAPAPAVCCoordinate@@PAPAPAV1@@std@@YAPAPAPAVCCoordinate@@QAPAPAV1@0PAPAPAV1@@Z
_TEXT	SEGMENT
__First$ = 8						; size = 4
__Last$ = 12						; size = 4
__Dest$ = 16						; size = 4
??$uninitialized_copy@PAPAPAVCCoordinate@@PAPAPAV1@@std@@YAPAPAPAVCCoordinate@@QAPAPAV1@0PAPAPAV1@@Z PROC ; std::uninitialized_copy<CCoordinate * * *,CCoordinate * * *>, COMDAT

; 1687 : _NoThrowFwdIt uninitialized_copy(const _InIt _First, const _InIt _Last, _NoThrowFwdIt _Dest) {

  00000	55		 push	 ebp
  00001	8b ec		 mov	 ebp, esp
; File C:\Program Files (x86)\Microsoft Visual Studio\2019\Community\VC\Tools\MSVC\14.29.30133\include\xutility

; 4065 :     const auto _Count           = static_cast<size_t>(_Last_ch - _First_ch);

  00003	8b 45 08	 mov	 eax, DWORD PTR __First$[ebp]
; File C:\Program Files (x86)\Microsoft Visual Studio\2019\Community\VC\Tools\MSVC\14.29.30133\include\xmemory

; 1687 : _NoThrowFwdIt uninitialized_copy(const _InIt _First, const _InIt _Last, _NoThrowFwdIt _Dest) {

  00006	56		 push	 esi
; File C:\Program Files (x86)\Microsoft Visual Studio\2019\Community\VC\Tools\MSVC\14.29.30133\include\xutility

; 4066 :     _CSTD memmove(_Dest_ch, _First_ch, _Count);

  00007	8b 75 10	 mov	 esi, DWORD PTR __Dest$[ebp]
; File C:\Program Files (x86)\Microsoft Visual Studio\2019\Community\VC\Tools\MSVC\14.29.30133\include\xmemory

; 1687 : _NoThrowFwdIt uninitialized_copy(const _InIt _First, const _InIt _Last, _NoThrowFwdIt _Dest) {

  0000a	57		 push	 edi
; File C:\Program Files (x86)\Microsoft Visual Studio\2019\Community\VC\Tools\MSVC\14.29.30133\include\xutility

; 4065 :     const auto _Count           = static_cast<size_t>(_Last_ch - _First_ch);

  0000b	8b 7d 0c	 mov	 edi, DWORD PTR __Last$[ebp]
  0000e	2b f8		 sub	 edi, eax

; 4066 :     _CSTD memmove(_Dest_ch, _First_ch, _Count);

  00010	57		 push	 edi
  00011	50		 push	 eax
  00012	56		 push	 esi
  00013	e8 00 00 00 00	 call	 _memmove
  00018	83 c4 0c	 add	 esp, 12			; 0000000cH

; 4067 :     if constexpr (is_pointer_v<_OutCtgIt>) {
; 4068 :         return reinterpret_cast<_OutCtgIt>(_Dest_ch + _Count);

  0001b	8d 04 37	 lea	 eax, DWORD PTR [edi+esi]
; File C:\Program Files (x86)\Microsoft Visual Studio\2019\Community\VC\Tools\MSVC\14.29.30133\include\xmemory

; 1694 :     return _Dest;

  0001e	5f		 pop	 edi
  0001f	5e		 pop	 esi

; 1695 : }

  00020	5d		 pop	 ebp
  00021	c3		 ret	 0
??$uninitialized_copy@PAPAPAVCCoordinate@@PAPAPAV1@@std@@YAPAPAPAVCCoordinate@@QAPAPAV1@0PAPAPAV1@@Z ENDP ; std::uninitialized_copy<CCoordinate * * *,CCoordinate * * *>
_TEXT	ENDS
; Function compile flags: /Ogtp
; File C:\Program Files (x86)\Microsoft Visual Studio\2019\Community\VC\Tools\MSVC\14.29.30133\include\xmemory
;	COMDAT ??$_Allocate_manually_vector_aligned@U_Default_allocate_traits@std@@@std@@YAPAXI@Z
_TEXT	SEGMENT
__Bytes$ = 8						; size = 4
??$_Allocate_manually_vector_aligned@U_Default_allocate_traits@std@@@std@@YAPAXI@Z PROC ; std::_Allocate_manually_vector_aligned<std::_Default_allocate_traits>, COMDAT

; 127  : __declspec(allocator) void* _Allocate_manually_vector_aligned(const size_t _Bytes) {

  00000	55		 push	 ebp
  00001	8b ec		 mov	 ebp, esp

; 128  :     // allocate _Bytes manually aligned to at least _Big_allocation_alignment
; 129  :     const size_t _Block_size = _Non_user_size + _Bytes;

  00003	8b 45 08	 mov	 eax, DWORD PTR __Bytes$[ebp]
  00006	8d 48 23	 lea	 ecx, DWORD PTR [eax+35]

; 130  :     if (_Block_size <= _Bytes) {

  00009	3b c8		 cmp	 ecx, eax
  0000b	0f 86 00 00 00
	00		 jbe	 ?_Throw_bad_array_new_length@std@@YAXXZ ; std::_Throw_bad_array_new_length

; 79   :         return ::operator new(_Bytes);

  00011	51		 push	 ecx
  00012	e8 00 00 00 00	 call	 ??2@YAPAXI@Z		; operator new

; 131  :         _Throw_bad_array_new_length(); // add overflow
; 132  :     }
; 133  : 
; 134  :     const uintptr_t _Ptr_container = reinterpret_cast<uintptr_t>(_Traits::_Allocate(_Block_size));

  00017	8b c8		 mov	 ecx, eax

; 79   :         return ::operator new(_Bytes);

  00019	83 c4 04	 add	 esp, 4

; 135  :     _STL_VERIFY(_Ptr_container != 0, "invalid argument"); // validate even in release since we're doing p[-1]

  0001c	85 c9		 test	 ecx, ecx
  0001e	74 0b		 je	 SHORT $LN7@Allocate_m

; 136  :     void* const _Ptr = reinterpret_cast<void*>((_Ptr_container + _Non_user_size) & ~(_Big_allocation_alignment - 1));

  00020	8d 41 23	 lea	 eax, DWORD PTR [ecx+35]
  00023	83 e0 e0	 and	 eax, -32		; ffffffe0H

; 137  :     static_cast<uintptr_t*>(_Ptr)[-1] = _Ptr_container;

  00026	89 48 fc	 mov	 DWORD PTR [eax-4], ecx

; 138  : 
; 139  : #ifdef _DEBUG
; 140  :     static_cast<uintptr_t*>(_Ptr)[-2] = _Big_allocation_sentinel;
; 141  : #endif // _DEBUG
; 142  :     return _Ptr;
; 143  : }

  00029	5d		 pop	 ebp
  0002a	c3		 ret	 0
$LN7@Allocate_m:

; 135  :     _STL_VERIFY(_Ptr_container != 0, "invalid argument"); // validate even in release since we're doing p[-1]

  0002b	ff 25 00 00 00
	00		 jmp	 DWORD PTR __imp___invalid_parameter_noinfo_noreturn
??$_Allocate_manually_vector_aligned@U_Default_allocate_traits@std@@@std@@YAPAXI@Z ENDP ; std::_Allocate_manually_vector_aligned<std::_Default_allocate_traits>
_TEXT	ENDS
; Function compile flags: /Ogtp
; File C:\Program Files (x86)\Microsoft Visual Studio\2019\Community\VC\Tools\MSVC\14.29.30133\include\xmemory
;	COMDAT ??1?$_Tidy_guard@V?$deque@PAVCCoordinate@@V?$allocator@PAVCCoordinate@@@std@@@std@@@std@@QAE@XZ
_TEXT	SEGMENT
??1?$_Tidy_guard@V?$deque@PAVCCoordinate@@V?$allocator@PAVCCoordinate@@@std@@@std@@@std@@QAE@XZ PROC ; std::_Tidy_guard<std::deque<CCoordinate *,std::allocator<CCoordinate *> > >::~_Tidy_guard<std::deque<CCoordinate *,std::allocator<CCoordinate *> > >, COMDAT
; _this$ = ecx

; 34   :         if (_Target) {

  00000	8b 09		 mov	 ecx, DWORD PTR [ecx]
  00002	85 c9		 test	 ecx, ecx
  00004	0f 85 00 00 00
	00		 jne	 ?_Tidy@?$deque@PAVCCoordinate@@V?$allocator@PAVCCoordinate@@@std@@@std@@AAEXXZ ; std::deque<CCoordinate *,std::allocator<CCoordinate *> >::_Tidy

; 35   :             _Target->_Tidy();
; 36   :         }
; 37   :     }

  0000a	c3		 ret	 0
??1?$_Tidy_guard@V?$deque@PAVCCoordinate@@V?$allocator@PAVCCoordinate@@@std@@@std@@@std@@QAE@XZ ENDP ; std::_Tidy_guard<std::deque<CCoordinate *,std::allocator<CCoordinate *> > >::~_Tidy_guard<std::deque<CCoordinate *,std::allocator<CCoordinate *> > >
_TEXT	ENDS
; Function compile flags: /Ogtp
; File C:\Program Files (x86)\Microsoft Visual Studio\2019\Community\VC\Tools\MSVC\14.29.30133\include\xmemory
;	COMDAT ??1?$_Container_proxy_ptr12@V?$allocator@U_Container_proxy@std@@@std@@@std@@QAE@XZ
_TEXT	SEGMENT
??1?$_Container_proxy_ptr12@V?$allocator@U_Container_proxy@std@@@std@@@std@@QAE@XZ PROC ; std::_Container_proxy_ptr12<std::allocator<std::_Container_proxy> >::~_Container_proxy_ptr12<std::allocator<std::_Container_proxy> >, COMDAT
; _this$ = ecx

; 1296 :         if (_Ptr) {

  00000	8b 01		 mov	 eax, DWORD PTR [ecx]
  00002	85 c0		 test	 eax, eax
  00004	74 0b		 je	 SHORT $LN12@Container_

; 255  :         ::operator delete(_Ptr, _Bytes);

  00006	6a 08		 push	 8
  00008	50		 push	 eax
  00009	e8 00 00 00 00	 call	 ??3@YAXPAXI@Z		; operator delete
  0000e	83 c4 08	 add	 esp, 8
$LN12@Container_:

; 1297 :             _Delete_plain_internal(_Al, _Ptr);
; 1298 :         }
; 1299 :     }

  00011	c3		 ret	 0
??1?$_Container_proxy_ptr12@V?$allocator@U_Container_proxy@std@@@std@@@std@@QAE@XZ ENDP ; std::_Container_proxy_ptr12<std::allocator<std::_Container_proxy> >::~_Container_proxy_ptr12<std::allocator<std::_Container_proxy> >
_TEXT	ENDS
; Function compile flags: /Ogtp
; File D:\git\src\IBK\IBK_DRFN\ProjSrc\SrcChartEx\ChartAddIn\ChartAnalysisToolAddIn\Include_Chart\Dll_Load\IMetaTable.h
; File C:\Program Files (x86)\Microsoft Visual Studio\2019\Community\VC\Tools\MSVC\14.29.30133\atlmfc\include\afxwin1.inl
; File D:\git\src\IBK\IBK_DRFN\ProjSrc\SrcChartEx\ChartAddIn\ChartAnalysisToolAddIn\Include_Chart\Dll_Load\IMetaTable.h
;	COMDAT ??1CMultiLanguageResourceSetter@@QAE@XZ
_TEXT	SEGMENT
__$EHRec$ = -12						; size = 12
??1CMultiLanguageResourceSetter@@QAE@XZ PROC		; CMultiLanguageResourceSetter::~CMultiLanguageResourceSetter, COMDAT
; _this$ = ecx

; 1038 : 	{

  00000	55		 push	 ebp
  00001	8b ec		 mov	 ebp, esp
  00003	6a ff		 push	 -1
  00005	68 00 00 00 00	 push	 __ehhandler$??1CMultiLanguageResourceSetter@@QAE@XZ
  0000a	64 a1 00 00 00
	00		 mov	 eax, DWORD PTR fs:0
  00010	50		 push	 eax
  00011	56		 push	 esi
  00012	a1 00 00 00 00	 mov	 eax, DWORD PTR ___security_cookie
  00017	33 c5		 xor	 eax, ebp
  00019	50		 push	 eax
  0001a	8d 45 f4	 lea	 eax, DWORD PTR __$EHRec$[ebp]
  0001d	64 a3 00 00 00
	00		 mov	 DWORD PTR fs:0, eax

; 1039 : 		AfxSetResourceHandle( m_hInstance);

  00023	8b 31		 mov	 esi, DWORD PTR [ecx]
; File C:\Program Files (x86)\Microsoft Visual Studio\2019\Community\VC\Tools\MSVC\14.29.30133\atlmfc\include\afxwin1.inl

; 27   : 	{ ASSERT(hInstResource != NULL); afxCurrentResourceHandle = hInstResource; }

  00025	e8 00 00 00 00	 call	 ?AfxGetModuleState@@YGPAVAFX_MODULE_STATE@@XZ ; AfxGetModuleState
  0002a	89 70 0c	 mov	 DWORD PTR [eax+12], esi
; File D:\git\src\IBK\IBK_DRFN\ProjSrc\SrcChartEx\ChartAddIn\ChartAnalysisToolAddIn\Include_Chart\Dll_Load\IMetaTable.h

; 1040 : 	}

  0002d	8b 4d f4	 mov	 ecx, DWORD PTR __$EHRec$[ebp]
  00030	64 89 0d 00 00
	00 00		 mov	 DWORD PTR fs:0, ecx
  00037	59		 pop	 ecx
  00038	5e		 pop	 esi
  00039	8b e5		 mov	 esp, ebp
  0003b	5d		 pop	 ebp
  0003c	c3		 ret	 0
  0003d	cc		 int	 3
  0003e	cc		 int	 3
  0003f	cc		 int	 3
  00040	cc		 int	 3
  00041	cc		 int	 3
_TEXT	ENDS
;	COMDAT text$x
text$x	SEGMENT
__ehhandler$??1CMultiLanguageResourceSetter@@QAE@XZ:
  00000	90		 npad	 1
  00001	90		 npad	 1
  00002	8b 54 24 08	 mov	 edx, DWORD PTR [esp+8]
  00006	8d 42 0c	 lea	 eax, DWORD PTR [edx+12]
  00009	8b 4a f8	 mov	 ecx, DWORD PTR [edx-8]
  0000c	33 c8		 xor	 ecx, eax
  0000e	e8 00 00 00 00	 call	 @__security_check_cookie@4
  00013	b8 00 00 00 00	 mov	 eax, OFFSET __ehfuncinfo$??1CMultiLanguageResourceSetter@@QAE@XZ
  00018	e9 00 00 00 00	 jmp	 ___CxxFrameHandler3
text$x	ENDS
??1CMultiLanguageResourceSetter@@QAE@XZ ENDP		; CMultiLanguageResourceSetter::~CMultiLanguageResourceSetter
; Function compile flags: /Ogtp
; File D:\git\src\IBK\IBK_DRFN\ProjSrc\SrcChartEx\ChartAddIn\ChartAnalysisToolAddIn\Include_Chart\Dll_Load\IMetaTable.h
;	COMDAT ?LoadResourceDLL@IMetaTable@@QAEPAUHINSTANCE__@@PAUHWND__@@PAU2@@Z
_TEXT	SEGMENT
_p1$ = 8						; size = 4
_p2$ = 12						; size = 4
?LoadResourceDLL@IMetaTable@@QAEPAUHINSTANCE__@@PAUHWND__@@PAU2@@Z PROC ; IMetaTable::LoadResourceDLL, COMDAT
; _this$ = ecx

; 938  : 	DECLARE_FUNCTION2(	LoadResourceDLL,				HMODULE, AfxGetStaticModuleState()->m_hCurrentInstanceHandle, HWND, HMODULE);

  00000	55		 push	 ebp
  00001	8b ec		 mov	 ebp, esp
  00003	56		 push	 esi
  00004	8b f1		 mov	 esi, ecx
  00006	8b 46 04	 mov	 eax, DWORD PTR [esi+4]
  00009	85 c0		 test	 eax, eax
  0000b	74 4d		 je	 SHORT $LN4@LoadResour
  0000d	57		 push	 edi
  0000e	bf 80 0d 00 00	 mov	 edi, 3456		; 00000d80H
  00013	66 3b be 94 00
	00 00		 cmp	 di, WORD PTR [esi+148]
  0001a	74 23		 je	 SHORT $LN3@LoadResour
  0001c	68 00 00 00 00	 push	 OFFSET ??_C@_0BA@ENJOCHIO@LoadResourceDLL@
  00021	50		 push	 eax
  00022	c7 86 90 00 00
	00 00 00 00 00	 mov	 DWORD PTR [esi+144], 0
  0002c	ff 15 00 00 00
	00		 call	 DWORD PTR __imp__GetProcAddress@8
  00032	89 86 90 00 00
	00		 mov	 DWORD PTR [esi+144], eax
  00038	66 89 be 94 00
	00 00		 mov	 WORD PTR [esi+148], di
$LN3@LoadResour:
  0003f	8b 86 90 00 00
	00		 mov	 eax, DWORD PTR [esi+144]
  00045	5f		 pop	 edi
  00046	85 c0		 test	 eax, eax
  00048	74 10		 je	 SHORT $LN4@LoadResour
  0004a	ff 75 0c	 push	 DWORD PTR _p2$[ebp]
  0004d	ff 75 08	 push	 DWORD PTR _p1$[ebp]
  00050	ff d0		 call	 eax
  00052	83 c4 08	 add	 esp, 8
  00055	5e		 pop	 esi
  00056	5d		 pop	 ebp
  00057	c2 08 00	 ret	 8
$LN4@LoadResour:
  0005a	e8 00 00 00 00	 call	 ?AfxGetStaticModuleState@@YGPAVAFX_MODULE_STATE@@XZ ; AfxGetStaticModuleState
  0005f	5e		 pop	 esi
  00060	8b 40 08	 mov	 eax, DWORD PTR [eax+8]
  00063	5d		 pop	 ebp
  00064	c2 08 00	 ret	 8
?LoadResourceDLL@IMetaTable@@QAEPAUHINSTANCE__@@PAUHWND__@@PAU2@@Z ENDP ; IMetaTable::LoadResourceDLL
_TEXT	ENDS
; Function compile flags: /Ogtp
; File C:\Program Files (x86)\Microsoft Visual Studio\2019\Community\VC\Tools\MSVC\14.29.30133\atlmfc\include\afx.inl
;	COMDAT ??_GCDlgAnalysisToolSet@@UAEPAXI@Z
_TEXT	SEGMENT
___flags$ = 8						; size = 4
??_GCDlgAnalysisToolSet@@UAEPAXI@Z PROC			; CDlgAnalysisToolSet::`scalar deleting destructor', COMDAT
; _this$ = ecx
  00000	55		 push	 ebp
  00001	8b ec		 mov	 ebp, esp
  00003	56		 push	 esi
  00004	8b f1		 mov	 esi, ecx
  00006	e8 00 00 00 00	 call	 ??1CDlgAnalysisToolSet@@UAE@XZ
  0000b	8b 45 08	 mov	 eax, DWORD PTR ___flags$[ebp]
  0000e	a8 01		 test	 al, 1
  00010	74 22		 je	 SHORT $LN9@scalar
  00012	a8 04		 test	 al, 4
  00014	75 10		 jne	 SHORT $LN3@scalar

; 112  : 	{ ::operator delete(p); }

  00016	56		 push	 esi
  00017	e8 00 00 00 00	 call	 ??3@YAXPAX@Z		; operator delete
  0001c	83 c4 04	 add	 esp, 4
  0001f	8b c6		 mov	 eax, esi
  00021	5e		 pop	 esi
  00022	5d		 pop	 ebp
  00023	c2 04 00	 ret	 4
$LN3@scalar:
  00026	68 98 0d 00 00	 push	 3480			; 00000d98H
  0002b	56		 push	 esi
  0002c	e8 00 00 00 00	 call	 ?__global_delete@@YAXPAXI@Z ; __global_delete
  00031	83 c4 08	 add	 esp, 8
$LN9@scalar:
  00034	8b c6		 mov	 eax, esi
  00036	5e		 pop	 esi
  00037	5d		 pop	 ebp
  00038	c2 04 00	 ret	 4
??_GCDlgAnalysisToolSet@@UAEPAXI@Z ENDP			; CDlgAnalysisToolSet::`scalar deleting destructor'
_TEXT	ENDS
; Function compile flags: /Ogtp
; File C:\Program Files (x86)\Microsoft Visual Studio\2019\Community\VC\Tools\MSVC\14.29.30133\include\deque
; File C:\Program Files (x86)\Microsoft Visual Studio\2019\Community\VC\Tools\MSVC\14.29.30133\include\utility
; File C:\Program Files (x86)\Microsoft Visual Studio\2019\Community\VC\Tools\MSVC\14.29.30133\include\xmemory
; File C:\Program Files (x86)\Microsoft Visual Studio\2019\Community\VC\Tools\MSVC\14.29.30133\include\utility
; File C:\Program Files (x86)\Microsoft Visual Studio\2019\Community\VC\Tools\MSVC\14.29.30133\include\xmemory
; File C:\Program Files (x86)\Microsoft Visual Studio\2019\Community\VC\Tools\MSVC\14.29.30133\atlmfc\include\afxwin1.inl
;	COMDAT ??1CDlgAnalysisToolSet@@UAE@XZ
_TEXT	SEGMENT
??1CDlgAnalysisToolSet@@UAE@XZ PROC			; CDlgAnalysisToolSet::~CDlgAnalysisToolSet, COMDAT
; _this$ = ecx
; File C:\Program Files (x86)\Microsoft Visual Studio\2019\Community\VC\Tools\MSVC\14.29.30133\include\deque

; 1332 :         _Tidy();

  00000	56		 push	 esi
  00001	57		 push	 edi
  00002	8b f9		 mov	 edi, ecx
  00004	8d 8f e8 0c 00
	00		 lea	 ecx, DWORD PTR [edi+3304]
  0000a	e8 00 00 00 00	 call	 ?_Tidy@?$deque@PAVCCoordinate@@V?$allocator@PAVCCoordinate@@@std@@@std@@AAEXXZ ; std::deque<CCoordinate *,std::allocator<CCoordinate *> >::_Tidy

; 861  :         _Tidy();

  0000f	8d 8f e8 0c 00
	00		 lea	 ecx, DWORD PTR [edi+3304]
  00015	e8 00 00 00 00	 call	 ?_Tidy@?$deque@PAVCCoordinate@@V?$allocator@PAVCCoordinate@@@std@@@std@@AAEXXZ ; std::deque<CCoordinate *,std::allocator<CCoordinate *> >::_Tidy
; File C:\Program Files (x86)\Microsoft Visual Studio\2019\Community\VC\Tools\MSVC\14.29.30133\include\utility

; 602  :     _Ty _Old_val = static_cast<_Ty&&>(_Val);

  0001a	8b 87 e8 0c 00
	00		 mov	 eax, DWORD PTR [edi+3304]
; File C:\Program Files (x86)\Microsoft Visual Studio\2019\Community\VC\Tools\MSVC\14.29.30133\include\xmemory

; 255  :         ::operator delete(_Ptr, _Bytes);

  00020	6a 08		 push	 8
  00022	50		 push	 eax
; File C:\Program Files (x86)\Microsoft Visual Studio\2019\Community\VC\Tools\MSVC\14.29.30133\include\utility

; 603  :     _Val         = static_cast<_Other&&>(_New_val);

  00023	c7 87 e8 0c 00
	00 00 00 00 00	 mov	 DWORD PTR [edi+3304], 0
; File C:\Program Files (x86)\Microsoft Visual Studio\2019\Community\VC\Tools\MSVC\14.29.30133\include\xmemory

; 255  :         ::operator delete(_Ptr, _Bytes);

  0002d	e8 00 00 00 00	 call	 ??3@YAXPAXI@Z		; operator delete
  00032	83 c4 08	 add	 esp, 8
  00035	8d 8f d8 0c 00
	00		 lea	 ecx, DWORD PTR [edi+3288]
  0003b	ff 15 00 00 00
	00		 call	 DWORD PTR __imp_??1?$CStringT@DV?$StrTraitMFC_DLL@DV?$ChTraitsCRT@D@ATL@@@@@ATL@@QAE@XZ
  00041	8d 8f 68 0c 00
	00		 lea	 ecx, DWORD PTR [edi+3176]
  00047	ff 15 00 00 00
	00		 call	 DWORD PTR __imp_??1?$CStringT@DV?$StrTraitMFC_DLL@DV?$ChTraitsCRT@D@ATL@@@@@ATL@@QAE@XZ
  0004d	8d 8f 64 0c 00
	00		 lea	 ecx, DWORD PTR [edi+3172]
  00053	ff 15 00 00 00
	00		 call	 DWORD PTR __imp_??1?$CStringT@DV?$StrTraitMFC_DLL@DV?$ChTraitsCRT@D@ATL@@@@@ATL@@QAE@XZ
  00059	8d 8f d0 0b 00
	00		 lea	 ecx, DWORD PTR [edi+3024]
  0005f	e8 00 00 00 00	 call	 ??1CDateTimeCtrl@@UAE@XZ ; CDateTimeCtrl::~CDateTimeCtrl
  00064	8d 8f 50 0b 00
	00		 lea	 ecx, DWORD PTR [edi+2896]
  0006a	e8 00 00 00 00	 call	 ??1CDateTimeCtrl@@UAE@XZ ; CDateTimeCtrl::~CDateTimeCtrl
  0006f	8d 8f d0 0a 00
	00		 lea	 ecx, DWORD PTR [edi+2768]
  00075	e8 00 00 00 00	 call	 ??1CDateTimeCtrl@@UAE@XZ ; CDateTimeCtrl::~CDateTimeCtrl
  0007a	8d 8f 50 0a 00
	00		 lea	 ecx, DWORD PTR [edi+2640]
  00080	e8 00 00 00 00	 call	 ??1CEdit@@UAE@XZ	; CEdit::~CEdit
  00085	8d 8f d0 09 00
	00		 lea	 ecx, DWORD PTR [edi+2512]
  0008b	e8 00 00 00 00	 call	 ??1CEdit@@UAE@XZ	; CEdit::~CEdit
  00090	8d 8f 50 09 00
	00		 lea	 ecx, DWORD PTR [edi+2384]
  00096	e8 00 00 00 00	 call	 ??1CEdit@@UAE@XZ	; CEdit::~CEdit
  0009b	8d 8f d0 08 00
	00		 lea	 ecx, DWORD PTR [edi+2256]
  000a1	e8 00 00 00 00	 call	 ??1CEdit@@UAE@XZ	; CEdit::~CEdit
  000a6	8d 8f 50 08 00
	00		 lea	 ecx, DWORD PTR [edi+2128]
  000ac	e8 00 00 00 00	 call	 ??1CEdit@@UAE@XZ	; CEdit::~CEdit
  000b1	8d 8f d0 07 00
	00		 lea	 ecx, DWORD PTR [edi+2000]
  000b7	e8 00 00 00 00	 call	 ??1CEdit@@UAE@XZ	; CEdit::~CEdit
  000bc	8d 8f 50 07 00
	00		 lea	 ecx, DWORD PTR [edi+1872]
  000c2	e8 00 00 00 00	 call	 ??1CButton@@UAE@XZ	; CButton::~CButton
  000c7	8d 8f d0 06 00
	00		 lea	 ecx, DWORD PTR [edi+1744]
  000cd	e8 00 00 00 00	 call	 ??1CButton@@UAE@XZ	; CButton::~CButton
  000d2	8d 8f 50 06 00
	00		 lea	 ecx, DWORD PTR [edi+1616]
  000d8	e8 00 00 00 00	 call	 ??1CButton@@UAE@XZ	; CButton::~CButton
  000dd	8d 8f d0 05 00
	00		 lea	 ecx, DWORD PTR [edi+1488]
  000e3	e8 00 00 00 00	 call	 ??1CButton@@UAE@XZ	; CButton::~CButton
  000e8	8d 8f 50 05 00
	00		 lea	 ecx, DWORD PTR [edi+1360]
  000ee	e8 00 00 00 00	 call	 ??1CButton@@UAE@XZ	; CButton::~CButton
  000f3	8d 8f d0 04 00
	00		 lea	 ecx, DWORD PTR [edi+1232]
  000f9	e8 00 00 00 00	 call	 ??1CButton@@UAE@XZ	; CButton::~CButton
  000fe	8d 8f 50 04 00
	00		 lea	 ecx, DWORD PTR [edi+1104]
  00104	e8 00 00 00 00	 call	 ??1CButton@@UAE@XZ	; CButton::~CButton
  00109	8d 8f d0 03 00
	00		 lea	 ecx, DWORD PTR [edi+976]
  0010f	e8 00 00 00 00	 call	 ??1CButton@@UAE@XZ	; CButton::~CButton
  00114	8d 8f 50 03 00
	00		 lea	 ecx, DWORD PTR [edi+848]
  0011a	e8 00 00 00 00	 call	 ??1CButton@@UAE@XZ	; CButton::~CButton
  0011f	8d 8f d0 02 00
	00		 lea	 ecx, DWORD PTR [edi+720]
  00125	e8 00 00 00 00	 call	 ??1CButton@@UAE@XZ	; CButton::~CButton
  0012a	8d 8f 48 02 00
	00		 lea	 ecx, DWORD PTR [edi+584]
  00130	e8 00 00 00 00	 call	 ??1CButton@@UAE@XZ	; CButton::~CButton
  00135	8d 8f 3c 02 00
	00		 lea	 ecx, DWORD PTR [edi+572]
; File C:\Program Files (x86)\Microsoft Visual Studio\2019\Community\VC\Tools\MSVC\14.29.30133\atlmfc\include\afxwin1.inl

; 179  : 	{ }

  0013b	c7 01 00 00 00
	00		 mov	 DWORD PTR [ecx], OFFSET ??_7CBitmap@@6B@
  00141	e8 00 00 00 00	 call	 ??1CGdiObject@@UAE@XZ	; CGdiObject::~CGdiObject
  00146	8d 8f b8 01 00
	00		 lea	 ecx, DWORD PTR [edi+440]
  0014c	e8 00 00 00 00	 call	 ??1CComboBox@@UAE@XZ	; CComboBox::~CComboBox
  00151	8d 8f ac 01 00
	00		 lea	 ecx, DWORD PTR [edi+428]
  00157	c7 01 00 00 00
	00		 mov	 DWORD PTR [ecx], OFFSET ??_7CBitmap@@6B@
  0015d	e8 00 00 00 00	 call	 ??1CGdiObject@@UAE@XZ	; CGdiObject::~CGdiObject
  00162	8d 8f 28 01 00
	00		 lea	 ecx, DWORD PTR [edi+296]
  00168	e8 00 00 00 00	 call	 ??1CComboBox@@UAE@XZ	; CComboBox::~CComboBox
  0016d	8d 8f a8 00 00
	00		 lea	 ecx, DWORD PTR [edi+168]
  00173	e8 00 00 00 00	 call	 ??1CButton@@UAE@XZ	; CButton::~CButton
  00178	8b cf		 mov	 ecx, edi
  0017a	5f		 pop	 edi
  0017b	5e		 pop	 esi
  0017c	e9 00 00 00 00	 jmp	 ??1CDialog@@UAE@XZ	; CDialog::~CDialog
??1CDlgAnalysisToolSet@@UAE@XZ ENDP			; CDlgAnalysisToolSet::~CDlgAnalysisToolSet
_TEXT	ENDS
; Function compile flags: /Ogtp
; File D:\git\src\IBK\IBK_DRFN\ProjSrc\SrcChartEx\ChartAddIn\ChartAnalysisToolAddIn\AnalysisTool\DlgAnalysisToolSet.cpp
;	COMDAT ?_DoCheckCallInterface@CDlgAnalysisToolSet@@AAEXXZ
_TEXT	SEGMENT
?_DoCheckCallInterface@CDlgAnalysisToolSet@@AAEXXZ PROC	; CDlgAnalysisToolSet::_DoCheckCallInterface, COMDAT
; _this$ = ecx

; 273  : {

  00000	56		 push	 esi

; 274  : 	if(IsDlgButtonChecked(IDC_TOALLTHICK))

  00001	68 bd 0f 00 00	 push	 4029			; 00000fbdH
  00006	8b f1		 mov	 esi, ecx
  00008	e8 00 00 00 00	 call	 ?IsDlgButtonChecked@CWnd@@QBEIH@Z ; CWnd::IsDlgButtonChecked
  0000d	85 c0		 test	 eax, eax
  0000f	74 19		 je	 SHORT $LN2@DoCheckCal

; 275  : 	{
; 276  : 		if(!m_pInterface) return;

  00011	8b 96 8c 0d 00
	00		 mov	 edx, DWORD PTR [esi+3468]
  00017	85 d2		 test	 edx, edx
  00019	74 0f		 je	 SHORT $LN2@DoCheckCal

; 277  : 		ICanCallYou* pCanCall = (ICanCallYou*)m_pInterface;
; 278  : 		pCanCall->DoCallYou(ICCYT_changeThick,(m_nWidth+1));

  0001b	8b 86 50 0c 00
	00		 mov	 eax, DWORD PTR [esi+3152]
  00021	8b 0a		 mov	 ecx, DWORD PTR [edx]
  00023	40		 inc	 eax
  00024	50		 push	 eax
  00025	6a 01		 push	 1
  00027	52		 push	 edx
  00028	ff 11		 call	 DWORD PTR [ecx]
$LN2@DoCheckCal:

; 279  : 	}
; 280  : }

  0002a	5e		 pop	 esi
  0002b	c3		 ret	 0
?_DoCheckCallInterface@CDlgAnalysisToolSet@@AAEXXZ ENDP	; CDlgAnalysisToolSet::_DoCheckCallInterface
_TEXT	ENDS
; Function compile flags: /Ogtp
; File D:\git\src\IBK\IBK_DRFN\ProjSrc\SrcChartEx\ChartAddIn\ChartAnalysisToolAddIn\AnalysisTool\DlgAnalysisToolSet.cpp
;	COMDAT ?GetOrgLineExtEnvironment@CDlgAnalysisToolSet@@AAEPAVCLineExtEnvironment@@XZ
_TEXT	SEGMENT
?GetOrgLineExtEnvironment@CDlgAnalysisToolSet@@AAEPAVCLineExtEnvironment@@XZ PROC ; CDlgAnalysisToolSet::GetOrgLineExtEnvironment, COMDAT
; _this$ = ecx

; 1136 : 	return &m_baseLineExtEnvironment;

  00000	8d 81 70 0d 00
	00		 lea	 eax, DWORD PTR [ecx+3440]

; 1137 : }

  00006	c3		 ret	 0
?GetOrgLineExtEnvironment@CDlgAnalysisToolSet@@AAEPAVCLineExtEnvironment@@XZ ENDP ; CDlgAnalysisToolSet::GetOrgLineExtEnvironment
_TEXT	ENDS
; Function compile flags: /Ogtp
; File D:\git\src\IBK\IBK_DRFN\ProjSrc\SrcChartEx\ChartAddIn\ChartAnalysisToolAddIn\AnalysisTool\DlgAnalysisToolSet.cpp
;	COMDAT ?GetLineExtEnvironment@CDlgAnalysisToolSet@@AAEPAVCLineExtEnvironment@@XZ
_TEXT	SEGMENT
?GetLineExtEnvironment@CDlgAnalysisToolSet@@AAEPAVCLineExtEnvironment@@XZ PROC ; CDlgAnalysisToolSet::GetLineExtEnvironment, COMDAT
; _this$ = ecx

; 1131 : 	return m_pLineExtEnvironment;

  00000	8b 81 6c 0d 00
	00		 mov	 eax, DWORD PTR [ecx+3436]

; 1132 : }

  00006	c3		 ret	 0
?GetLineExtEnvironment@CDlgAnalysisToolSet@@AAEPAVCLineExtEnvironment@@XZ ENDP ; CDlgAnalysisToolSet::GetLineExtEnvironment
_TEXT	ENDS
; Function compile flags: /Ogtp
; File D:\git\src\IBK\IBK_DRFN\ProjSrc\SrcChartEx\ChartAddIn\ChartAnalysisToolAddIn\AnalysisTool\DlgAnalysisToolSet.cpp
;	COMDAT ?GetOrgTextPosition@CDlgAnalysisToolSet@@AAEPAVCTextPosition@@XZ
_TEXT	SEGMENT
?GetOrgTextPosition@CDlgAnalysisToolSet@@AAEPAVCTextPosition@@XZ PROC ; CDlgAnalysisToolSet::GetOrgTextPosition, COMDAT
; _this$ = ecx

; 1117 : 	if(m_nTextPosType == G_TEXT_POS_HV)

  00000	8b 81 04 0d 00
	00		 mov	 eax, DWORD PTR [ecx+3332]
  00006	83 f8 03	 cmp	 eax, 3
  00009	75 07		 jne	 SHORT $LN2@GetOrgText

; 1118 : 		return &m_baseTextHVPosition;

  0000b	8d 81 60 0d 00
	00		 lea	 eax, DWORD PTR [ecx+3424]

; 1127 : }

  00011	c3		 ret	 0
$LN2@GetOrgText:

; 1119 : 	else if(m_nTextPosType == G_TEXT_POS_VERT)

  00012	83 f8 02	 cmp	 eax, 2
  00015	75 07		 jne	 SHORT $LN4@GetOrgText

; 1120 : 		return &m_baseTextVPosition;

  00017	8d 81 54 0d 00
	00		 lea	 eax, DWORD PTR [ecx+3412]

; 1127 : }

  0001d	c3		 ret	 0
$LN4@GetOrgText:

; 1121 : 	else if(m_nTextPosType == G_TEXT_POS_HORZ)

  0001e	83 f8 01	 cmp	 eax, 1
  00021	75 07		 jne	 SHORT $LN6@GetOrgText

; 1122 : 		return &m_baseTextHPosition;

  00023	8d 81 48 0d 00
	00		 lea	 eax, DWORD PTR [ecx+3400]

; 1127 : }

  00029	c3		 ret	 0
$LN6@GetOrgText:

; 1123 : 	else if(m_nTextPosType == G_TEXT_POS_ONE)

  0002a	85 c0		 test	 eax, eax
  0002c	75 07		 jne	 SHORT $LN8@GetOrgText

; 1124 : 		return &m_baseTextPosition;

  0002e	8d 81 3c 0d 00
	00		 lea	 eax, DWORD PTR [ecx+3388]

; 1127 : }

  00034	c3		 ret	 0
$LN8@GetOrgText:

; 1125 : 
; 1126 : 	return NULL;

  00035	33 c0		 xor	 eax, eax

; 1127 : }

  00037	c3		 ret	 0
?GetOrgTextPosition@CDlgAnalysisToolSet@@AAEPAVCTextPosition@@XZ ENDP ; CDlgAnalysisToolSet::GetOrgTextPosition
_TEXT	ENDS
; Function compile flags: /Ogtp
; File D:\git\src\IBK\IBK_DRFN\ProjSrc\SrcChartEx\ChartAddIn\ChartAnalysisToolAddIn\AnalysisTool\DlgAnalysisToolSet.cpp
;	COMDAT ?GetTextPosition@CDlgAnalysisToolSet@@AAEPAVCTextPosition@@XZ
_TEXT	SEGMENT
?GetTextPosition@CDlgAnalysisToolSet@@AAEPAVCTextPosition@@XZ PROC ; CDlgAnalysisToolSet::GetTextPosition, COMDAT
; _this$ = ecx

; 1103 : 	if(m_nTextPosType == G_TEXT_POS_HV)

  00000	8b 81 04 0d 00
	00		 mov	 eax, DWORD PTR [ecx+3332]
  00006	83 f8 03	 cmp	 eax, 3
  00009	75 07		 jne	 SHORT $LN2@GetTextPos

; 1104 : 		return m_pTextHVPosition;

  0000b	8b 81 38 0d 00
	00		 mov	 eax, DWORD PTR [ecx+3384]

; 1113 : }

  00011	c3		 ret	 0
$LN2@GetTextPos:

; 1105 : 	else if(m_nTextPosType == G_TEXT_POS_VERT)

  00012	83 f8 02	 cmp	 eax, 2
  00015	75 07		 jne	 SHORT $LN4@GetTextPos

; 1106 : 		return m_pTextVPosition;

  00017	8b 81 34 0d 00
	00		 mov	 eax, DWORD PTR [ecx+3380]

; 1113 : }

  0001d	c3		 ret	 0
$LN4@GetTextPos:

; 1107 : 	else if(m_nTextPosType == G_TEXT_POS_HORZ)

  0001e	83 f8 01	 cmp	 eax, 1
  00021	75 07		 jne	 SHORT $LN6@GetTextPos

; 1108 : 		return m_pTextHPosition;

  00023	8b 81 30 0d 00
	00		 mov	 eax, DWORD PTR [ecx+3376]

; 1113 : }

  00029	c3		 ret	 0
$LN6@GetTextPos:

; 1109 : 	else if(m_nTextPosType == G_TEXT_POS_ONE)

  0002a	85 c0		 test	 eax, eax
  0002c	75 07		 jne	 SHORT $LN8@GetTextPos

; 1110 : 		return m_pTextPosition;

  0002e	8b 81 2c 0d 00
	00		 mov	 eax, DWORD PTR [ecx+3372]

; 1113 : }

  00034	c3		 ret	 0
$LN8@GetTextPos:

; 1111 : 
; 1112 : 	return NULL;

  00035	33 c0		 xor	 eax, eax

; 1113 : }

  00037	c3		 ret	 0
?GetTextPosition@CDlgAnalysisToolSet@@AAEPAVCTextPosition@@XZ ENDP ; CDlgAnalysisToolSet::GetTextPosition
_TEXT	ENDS
; Function compile flags: /Ogtp
; File D:\git\src\IBK\IBK_DRFN\ProjSrc\SrcChartEx\ChartAddIn\ChartAnalysisToolAddIn\AnalysisTool\DlgAnalysisToolSet.cpp
; File C:\Program Files (x86)\Microsoft Visual Studio\2019\Community\VC\Tools\MSVC\14.29.30133\atlmfc\include\afxwin2.inl
; File D:\git\src\IBK\IBK_DRFN\ProjSrc\SrcChartEx\ChartAddIn\ChartAnalysisToolAddIn\AnalysisTool\DlgAnalysisToolSet.cpp
; File C:\Program Files (x86)\Microsoft Visual Studio\2019\Community\VC\Tools\MSVC\14.29.30133\atlmfc\include\atltime.h
; File C:\Program Files (x86)\Microsoft Visual Studio\2019\Community\VC\Tools\MSVC\14.29.30133\atlmfc\include\afxwin2.inl
; File D:\git\src\IBK\IBK_DRFN\ProjSrc\SrcChartEx\ChartAddIn\ChartAnalysisToolAddIn\AnalysisTool\DlgAnalysisToolSet.cpp
; File C:\Program Files (x86)\Microsoft Visual Studio\2019\Community\VC\Tools\MSVC\14.29.30133\atlmfc\include\atltime.h
; File D:\git\src\IBK\IBK_DRFN\ProjSrc\SrcChartEx\ChartAddIn\ChartAnalysisToolAddIn\AnalysisTool\DlgAnalysisToolSet.cpp
; File C:\Program Files (x86)\Microsoft Visual Studio\2019\Community\VC\Tools\MSVC\14.29.30133\atlmfc\include\afxwin2.inl
; File D:\git\src\IBK\IBK_DRFN\ProjSrc\SrcChartEx\ChartAddIn\ChartAnalysisToolAddIn\AnalysisTool\DlgAnalysisToolSet.cpp
; File C:\Program Files (x86)\Microsoft Visual Studio\2019\Community\VC\Tools\MSVC\14.29.30133\atlmfc\include\atltime.h
; File D:\git\src\IBK\IBK_DRFN\ProjSrc\SrcChartEx\ChartAddIn\ChartAnalysisToolAddIn\AnalysisTool\DlgAnalysisToolSet.cpp
; File C:\Program Files (x86)\Microsoft Visual Studio\2019\Community\VC\Tools\MSVC\14.29.30133\atlmfc\include\afxwin2.inl
; File D:\git\src\IBK\IBK_DRFN\ProjSrc\SrcChartEx\ChartAddIn\ChartAnalysisToolAddIn\AnalysisTool\DlgAnalysisToolSet.cpp
; File C:\Program Files (x86)\Microsoft Visual Studio\2019\Community\VC\Tools\MSVC\14.29.30133\atlmfc\include\atltime.h
; File D:\git\src\IBK\IBK_DRFN\ProjSrc\SrcChartEx\ChartAddIn\ChartAnalysisToolAddIn\AnalysisTool\DlgAnalysisToolSet.cpp
; File C:\Program Files (x86)\Microsoft Visual Studio\2019\Community\VC\Tools\MSVC\14.29.30133\atlmfc\include\afxwin2.inl
; File D:\git\src\IBK\IBK_DRFN\ProjSrc\SrcChartEx\ChartAddIn\ChartAnalysisToolAddIn\AnalysisTool\DlgAnalysisToolSet.cpp
; File C:\Program Files (x86)\Microsoft Visual Studio\2019\Community\VC\Tools\MSVC\14.29.30133\atlmfc\include\afxwin2.inl
; File D:\git\src\IBK\IBK_DRFN\ProjSrc\SrcChartEx\ChartAddIn\ChartAnalysisToolAddIn\AnalysisTool\DlgAnalysisToolSet.cpp
; File C:\Program Files (x86)\Microsoft Visual Studio\2019\Community\VC\Tools\MSVC\14.29.30133\atlmfc\include\afxwin2.inl
; File D:\git\src\IBK\IBK_DRFN\ProjSrc\SrcChartEx\ChartAddIn\ChartAnalysisToolAddIn\AnalysisTool\DlgAnalysisToolSet.cpp
; File C:\Program Files (x86)\Microsoft Visual Studio\2019\Community\VC\Tools\MSVC\14.29.30133\atlmfc\include\afxwin2.inl
; File D:\git\src\IBK\IBK_DRFN\ProjSrc\SrcChartEx\ChartAddIn\ChartAnalysisToolAddIn\AnalysisTool\DlgAnalysisToolSet.cpp
;	COMDAT ?SetDateValueLists@CDlgAnalysisToolSet@@AAEXXZ
_TEXT	SEGMENT
_xTime$ = -164						; size = 8
_this$GSCopy$1$ = -156					; size = 4
tv861 = -152						; size = 8
tv837 = -152						; size = 8
$T2 = -152						; size = 8
$T3 = -148						; size = 4
$T4 = -148						; size = 4
$T5 = -148						; size = 4
$T6 = -148						; size = 4
$T7 = -148						; size = 4
$T8 = -148						; size = 4
_strXDate$ = -144					; size = 4
tv813 = -140						; size = 8
$T9 = -140						; size = 8
$T10 = -140						; size = 8
$T11 = -140						; size = 8
$T12 = -140						; size = 8
$T13 = -140						; size = 8
$T14 = -140						; size = 8
$T15 = -140						; size = 8
$T16 = -140						; size = 8
_strValue$ = -132					; size = 4
_strYValue$ = -128					; size = 4
_ptmTemp$17 = -124					; size = 36
_ptmTemp$18 = -124					; size = 36
_ptmTemp$19 = -124					; size = 36
_ptmTemp$20 = -88					; size = 36
_ptmTemp$21 = -88					; size = 36
_ptmTemp$22 = -88					; size = 36
_ptmTemp$23 = -52					; size = 36
_ptmTemp$24 = -52					; size = 36
_ptmTemp$25 = -52					; size = 36
__$ArrayPad$ = -16					; size = 4
__$EHRec$ = -12						; size = 12
?SetDateValueLists@CDlgAnalysisToolSet@@AAEXXZ PROC	; CDlgAnalysisToolSet::SetDateValueLists, COMDAT
; _this$ = ecx

; 1319 : {

  00000	55		 push	 ebp
  00001	8b ec		 mov	 ebp, esp
  00003	6a ff		 push	 -1
  00005	68 00 00 00 00	 push	 __ehhandler$?SetDateValueLists@CDlgAnalysisToolSet@@AAEXXZ
  0000a	64 a1 00 00 00
	00		 mov	 eax, DWORD PTR fs:0
  00010	50		 push	 eax
  00011	81 ec 98 00 00
	00		 sub	 esp, 152		; 00000098H
  00017	a1 00 00 00 00	 mov	 eax, DWORD PTR ___security_cookie
  0001c	33 c5		 xor	 eax, ebp
  0001e	89 45 f0	 mov	 DWORD PTR __$ArrayPad$[ebp], eax
  00021	53		 push	 ebx
  00022	56		 push	 esi
  00023	57		 push	 edi
  00024	50		 push	 eax
  00025	8d 45 f4	 lea	 eax, DWORD PTR __$EHRec$[ebp]
  00028	64 a3 00 00 00
	00		 mov	 DWORD PTR fs:0, eax
  0002e	8b d9		 mov	 ebx, ecx
  00030	89 9d 64 ff ff
	ff		 mov	 DWORD PTR _this$GSCopy$1$[ebp], ebx

; 1320 : 	CString strXDate;

  00036	8d 8d 70 ff ff
	ff		 lea	 ecx, DWORD PTR _strXDate$[ebp]
  0003c	ff 15 00 00 00
	00		 call	 DWORD PTR __imp_??0?$CStringT@DV?$StrTraitMFC_DLL@DV?$ChTraitsCRT@D@ATL@@@@@ATL@@QAE@XZ
; File C:\Program Files (x86)\Microsoft Visual Studio\2019\Community\VC\Tools\MSVC\14.29.30133\atlmfc\include\afxwin2.inl

; 124  : 	{ ASSERT(::IsWindow(m_hWnd)); return ::IsWindowVisible(m_hWnd); }

  00042	ff b3 f0 0a 00
	00		 push	 DWORD PTR [ebx+2800]
  00048	8b 3d 00 00 00
	00		 mov	 edi, DWORD PTR __imp__IsWindowVisible@4
  0004e	0f 57 c0	 xorps	 xmm0, xmm0
; File D:\git\src\IBK\IBK_DRFN\ProjSrc\SrcChartEx\ChartAddIn\ChartAnalysisToolAddIn\AnalysisTool\DlgAnalysisToolSet.cpp

; 1320 : 	CString strXDate;

  00051	c7 45 fc 00 00
	00 00		 mov	 DWORD PTR __$EHRec$[ebp+8], 0
; File C:\Program Files (x86)\Microsoft Visual Studio\2019\Community\VC\Tools\MSVC\14.29.30133\atlmfc\include\atltime.h

; 412  : 	m_time(0)

  00058	66 0f 13 85 5c
	ff ff ff	 movlpd	 QWORD PTR _xTime$[ebp], xmm0
; File C:\Program Files (x86)\Microsoft Visual Studio\2019\Community\VC\Tools\MSVC\14.29.30133\atlmfc\include\afxwin2.inl

; 124  : 	{ ASSERT(::IsWindow(m_hWnd)); return ::IsWindowVisible(m_hWnd); }

  00060	ff d7		 call	 edi
; File D:\git\src\IBK\IBK_DRFN\ProjSrc\SrcChartEx\ChartAddIn\ChartAnalysisToolAddIn\AnalysisTool\DlgAnalysisToolSet.cpp

; 1323 : 	if(m_ctrlXDateTime1.IsWindowVisible() == TRUE)

  00062	8b 35 00 00 00
	00		 mov	 esi, DWORD PTR __imp___localtime64_s
  00068	83 f8 01	 cmp	 eax, 1
  0006b	0f 85 f5 00 00
	00		 jne	 $LN2@SetDateVal

; 1324 : 	{
; 1325 : 		m_ctrlXDateTime1.GetTime(xTime);

  00071	8d 85 5c ff ff
	ff		 lea	 eax, DWORD PTR _xTime$[ebp]
  00077	50		 push	 eax
  00078	8d 8b d0 0a 00
	00		 lea	 ecx, DWORD PTR [ebx+2768]
  0007e	e8 00 00 00 00	 call	 ?GetTime@CDateTimeCtrl@@QBEKAAVCTime@ATL@@@Z ; CDateTimeCtrl::GetTime
; File C:\Program Files (x86)\Microsoft Visual Studio\2019\Community\VC\Tools\MSVC\14.29.30133\atlmfc\include\atltime.h

; 614  : 		errno_t err = _localtime64_s(&ptmTemp, &m_time);

  00083	8d 85 5c ff ff
	ff		 lea	 eax, DWORD PTR _xTime$[ebp]
  00089	50		 push	 eax
  0008a	8d 45 cc	 lea	 eax, DWORD PTR _ptmTemp$25[ebp]
  0008d	50		 push	 eax
  0008e	ff d6		 call	 esi

; 615  : 
; 616  : 		if (err != 0)

  00090	33 c9		 xor	 ecx, ecx
  00092	85 c0		 test	 eax, eax

; 614  : 		errno_t err = _localtime64_s(&ptmTemp, &m_time);

  00094	8d 85 5c ff ff
	ff		 lea	 eax, DWORD PTR _xTime$[ebp]

; 616  : 		if (err != 0)

  0009a	0f 44 4d d8	 cmove	 ecx, DWORD PTR _ptmTemp$25[ebp+12]

; 614  : 		errno_t err = _localtime64_s(&ptmTemp, &m_time);

  0009e	50		 push	 eax
  0009f	8d 45 a8	 lea	 eax, DWORD PTR _ptmTemp$22[ebp]

; 616  : 		if (err != 0)

  000a2	89 8d 6c ff ff
	ff		 mov	 DWORD PTR $T5[ebp], ecx

; 614  : 		errno_t err = _localtime64_s(&ptmTemp, &m_time);

  000a8	50		 push	 eax
  000a9	ff d6		 call	 esi
  000ab	83 c4 10	 add	 esp, 16			; 00000010H

; 615  : 
; 616  : 		if (err != 0)

  000ae	85 c0		 test	 eax, eax
  000b0	75 06		 jne	 SHORT $LN47@SetDateVal

; 671  : 	return ptm ? ptm->tm_mon + 1 : 0;

  000b2	8b 7d b8	 mov	 edi, DWORD PTR _ptmTemp$22[ebp+16]
  000b5	47		 inc	 edi
  000b6	eb 02		 jmp	 SHORT $LN48@SetDateVal
$LN47@SetDateVal:
  000b8	33 ff		 xor	 edi, edi
$LN48@SetDateVal:

; 614  : 		errno_t err = _localtime64_s(&ptmTemp, &m_time);

  000ba	8d 85 5c ff ff
	ff		 lea	 eax, DWORD PTR _xTime$[ebp]
  000c0	50		 push	 eax
  000c1	8d 45 84	 lea	 eax, DWORD PTR _ptmTemp$19[ebp]
  000c4	50		 push	 eax
  000c5	ff d6		 call	 esi
  000c7	83 c4 08	 add	 esp, 8

; 615  : 
; 616  : 		if (err != 0)

  000ca	85 c0		 test	 eax, eax
  000cc	75 0a		 jne	 SHORT $LN63@SetDateVal

; 662  : 	return ptm ? (ptm->tm_year) + 1900 : 0 ;

  000ce	8b 45 98	 mov	 eax, DWORD PTR _ptmTemp$19[ebp+20]
  000d1	05 6c 07 00 00	 add	 eax, 1900		; 0000076cH
  000d6	eb 02		 jmp	 SHORT $LN64@SetDateVal
$LN63@SetDateVal:
  000d8	33 c0		 xor	 eax, eax
$LN64@SetDateVal:
; File D:\git\src\IBK\IBK_DRFN\ProjSrc\SrcChartEx\ChartAddIn\ChartAnalysisToolAddIn\AnalysisTool\DlgAnalysisToolSet.cpp

; 1341 : 		strXDate.Format(_T("%04d%02d%02d%s"),xTime.GetYear(),xTime.GetMonth(),xTime.GetDay(), _T("000000"));

  000da	68 00 00 00 00	 push	 OFFSET ??_C@_06GEKNBBDK@000000@
  000df	ff b5 6c ff ff
	ff		 push	 DWORD PTR $T5[ebp]
  000e5	57		 push	 edi
  000e6	50		 push	 eax
  000e7	8d 85 70 ff ff
	ff		 lea	 eax, DWORD PTR _strXDate$[ebp]
  000ed	68 00 00 00 00	 push	 OFFSET ??_C@_0P@NDLMDLNF@?$CF04d?$CF02d?$CF02d?$CFs@
  000f2	50		 push	 eax
  000f3	ff 15 00 00 00
	00		 call	 DWORD PTR __imp_?Format@?$CStringT@DV?$StrTraitMFC_DLL@DV?$ChTraitsCRT@D@ATL@@@@@ATL@@QAAXPBDZZ

; 1342 : 		__int64 lMakeTime = _atoi64(strXDate);

  000f9	ff b5 70 ff ff
	ff		 push	 DWORD PTR _strXDate$[ebp]
  000ff	ff 15 00 00 00
	00		 call	 DWORD PTR __imp___atoi64

; 1343 : 
; 1344 : 		pCoordinate = m_pElementPointList->GetAt(0);

  00105	8b 8b 00 0d 00
	00		 mov	 ecx, DWORD PTR [ebx+3328]
  0010b	83 c4 1c	 add	 esp, 28			; 0000001cH
  0010e	8b f8		 mov	 edi, eax
  00110	8b f2		 mov	 esi, edx
  00112	6a 00		 push	 0
  00114	e8 00 00 00 00	 call	 ?GetAt@CElementPointList@@QAEPAVCCoordinate@@H@Z ; CElementPointList::GetAt

; 1345 : 		pCoordinate->SetX((double)lMakeTime,0);

  00119	8b d6		 mov	 edx, esi
  0011b	8b cf		 mov	 ecx, edi
  0011d	8b d8		 mov	 ebx, eax
  0011f	e8 00 00 00 00	 call	 __ltod3
  00124	6a 00		 push	 0
  00126	8d 85 68 ff ff
	ff		 lea	 eax, DWORD PTR $T2[ebp]
  0012c	f2 0f 11 85 74
	ff ff ff	 movsd	 QWORD PTR tv813[ebp], xmm0
  00134	50		 push	 eax
  00135	8b cb		 mov	 ecx, ebx
  00137	f2 0f 11 85 68
	ff ff ff	 movsd	 QWORD PTR $T2[ebp], xmm0
  0013f	e8 00 00 00 00	 call	 ?SetX@CCoordinate@@QAEXABNH@Z ; CCoordinate::SetX

; 1346 : 		m_stAnalysisTool.dStartXPos = (double)lMakeTime;

  00144	8b 9d 64 ff ff
	ff		 mov	 ebx, DWORD PTR _this$GSCopy$1$[ebp]
  0014a	f2 0f 10 85 74
	ff ff ff	 movsd	 xmm0, QWORD PTR tv813[ebp]
  00152	8b 35 00 00 00
	00		 mov	 esi, DWORD PTR __imp___localtime64_s
  00158	8b 3d 00 00 00
	00		 mov	 edi, DWORD PTR __imp__IsWindowVisible@4
  0015e	f2 0f 11 83 70
	0c 00 00	 movsd	 QWORD PTR [ebx+3184], xmm0
$LN2@SetDateVal:
; File C:\Program Files (x86)\Microsoft Visual Studio\2019\Community\VC\Tools\MSVC\14.29.30133\atlmfc\include\afxwin2.inl

; 124  : 	{ ASSERT(::IsWindow(m_hWnd)); return ::IsWindowVisible(m_hWnd); }

  00166	ff b3 70 0b 00
	00		 push	 DWORD PTR [ebx+2928]
  0016c	ff d7		 call	 edi
; File D:\git\src\IBK\IBK_DRFN\ProjSrc\SrcChartEx\ChartAddIn\ChartAnalysisToolAddIn\AnalysisTool\DlgAnalysisToolSet.cpp

; 1351 : 	if(m_ctrlXDateTime2.IsWindowVisible() == TRUE)

  0016e	83 f8 01	 cmp	 eax, 1
  00171	0f 85 ef 00 00
	00		 jne	 $LN3@SetDateVal

; 1352 : 	{
; 1353 : 		m_ctrlXDateTime2.GetTime(xTime);

  00177	8d 85 5c ff ff
	ff		 lea	 eax, DWORD PTR _xTime$[ebp]
  0017d	50		 push	 eax
  0017e	8d 8b 50 0b 00
	00		 lea	 ecx, DWORD PTR [ebx+2896]
  00184	e8 00 00 00 00	 call	 ?GetTime@CDateTimeCtrl@@QBEKAAVCTime@ATL@@@Z ; CDateTimeCtrl::GetTime
; File C:\Program Files (x86)\Microsoft Visual Studio\2019\Community\VC\Tools\MSVC\14.29.30133\atlmfc\include\atltime.h

; 614  : 		errno_t err = _localtime64_s(&ptmTemp, &m_time);

  00189	8d 85 5c ff ff
	ff		 lea	 eax, DWORD PTR _xTime$[ebp]
  0018f	50		 push	 eax
  00190	8d 45 84	 lea	 eax, DWORD PTR _ptmTemp$18[ebp]
  00193	50		 push	 eax
  00194	ff d6		 call	 esi

; 615  : 
; 616  : 		if (err != 0)

  00196	33 c9		 xor	 ecx, ecx
  00198	85 c0		 test	 eax, eax

; 614  : 		errno_t err = _localtime64_s(&ptmTemp, &m_time);

  0019a	8d 85 5c ff ff
	ff		 lea	 eax, DWORD PTR _xTime$[ebp]

; 616  : 		if (err != 0)

  001a0	0f 44 4d 90	 cmove	 ecx, DWORD PTR _ptmTemp$18[ebp+12]

; 614  : 		errno_t err = _localtime64_s(&ptmTemp, &m_time);

  001a4	50		 push	 eax
  001a5	8d 45 a8	 lea	 eax, DWORD PTR _ptmTemp$21[ebp]

; 616  : 		if (err != 0)

  001a8	89 8d 6c ff ff
	ff		 mov	 DWORD PTR $T4[ebp], ecx

; 614  : 		errno_t err = _localtime64_s(&ptmTemp, &m_time);

  001ae	50		 push	 eax
  001af	ff d6		 call	 esi
  001b1	83 c4 10	 add	 esp, 16			; 00000010H

; 615  : 
; 616  : 		if (err != 0)

  001b4	85 c0		 test	 eax, eax
  001b6	75 06		 jne	 SHORT $LN99@SetDateVal

; 671  : 	return ptm ? ptm->tm_mon + 1 : 0;

  001b8	8b 7d b8	 mov	 edi, DWORD PTR _ptmTemp$21[ebp+16]
  001bb	47		 inc	 edi
  001bc	eb 02		 jmp	 SHORT $LN100@SetDateVal
$LN99@SetDateVal:
  001be	33 ff		 xor	 edi, edi
$LN100@SetDateVal:

; 614  : 		errno_t err = _localtime64_s(&ptmTemp, &m_time);

  001c0	8d 85 5c ff ff
	ff		 lea	 eax, DWORD PTR _xTime$[ebp]
  001c6	50		 push	 eax
  001c7	8d 45 cc	 lea	 eax, DWORD PTR _ptmTemp$24[ebp]
  001ca	50		 push	 eax
  001cb	ff d6		 call	 esi
  001cd	83 c4 08	 add	 esp, 8

; 615  : 
; 616  : 		if (err != 0)

  001d0	85 c0		 test	 eax, eax
  001d2	75 0a		 jne	 SHORT $LN115@SetDateVal

; 662  : 	return ptm ? (ptm->tm_year) + 1900 : 0 ;

  001d4	8b 45 e0	 mov	 eax, DWORD PTR _ptmTemp$24[ebp+20]
  001d7	05 6c 07 00 00	 add	 eax, 1900		; 0000076cH
  001dc	eb 02		 jmp	 SHORT $LN116@SetDateVal
$LN115@SetDateVal:
  001de	33 c0		 xor	 eax, eax
$LN116@SetDateVal:
; File D:\git\src\IBK\IBK_DRFN\ProjSrc\SrcChartEx\ChartAddIn\ChartAnalysisToolAddIn\AnalysisTool\DlgAnalysisToolSet.cpp

; 1368 : 		strXDate.Format(_T("%04d%02d%02d%s"),xTime.GetYear(),xTime.GetMonth(),xTime.GetDay(), _T("000000"));

  001e0	68 00 00 00 00	 push	 OFFSET ??_C@_06GEKNBBDK@000000@
  001e5	ff b5 6c ff ff
	ff		 push	 DWORD PTR $T4[ebp]
  001eb	57		 push	 edi
  001ec	50		 push	 eax
  001ed	8d 85 70 ff ff
	ff		 lea	 eax, DWORD PTR _strXDate$[ebp]
  001f3	68 00 00 00 00	 push	 OFFSET ??_C@_0P@NDLMDLNF@?$CF04d?$CF02d?$CF02d?$CFs@
  001f8	50		 push	 eax
  001f9	ff 15 00 00 00
	00		 call	 DWORD PTR __imp_?Format@?$CStringT@DV?$StrTraitMFC_DLL@DV?$ChTraitsCRT@D@ATL@@@@@ATL@@QAAXPBDZZ

; 1369 : 		__int64 lMakeTime = _atoi64(strXDate);

  001ff	ff b5 70 ff ff
	ff		 push	 DWORD PTR _strXDate$[ebp]
  00205	ff 15 00 00 00
	00		 call	 DWORD PTR __imp___atoi64

; 1370 : 
; 1371 : 		pCoordinate = m_pElementPointList->GetAt(1);

  0020b	8b 8b 00 0d 00
	00		 mov	 ecx, DWORD PTR [ebx+3328]
  00211	83 c4 1c	 add	 esp, 28			; 0000001cH
  00214	8b f8		 mov	 edi, eax
  00216	8b f2		 mov	 esi, edx
  00218	6a 01		 push	 1
  0021a	e8 00 00 00 00	 call	 ?GetAt@CElementPointList@@QAEPAVCCoordinate@@H@Z ; CElementPointList::GetAt

; 1372 : 		pCoordinate->SetX((double)lMakeTime,1);

  0021f	8b d6		 mov	 edx, esi
  00221	8b cf		 mov	 ecx, edi
  00223	8b d8		 mov	 ebx, eax
  00225	e8 00 00 00 00	 call	 __ltod3
  0022a	6a 01		 push	 1
  0022c	8d 85 74 ff ff
	ff		 lea	 eax, DWORD PTR $T16[ebp]
  00232	f2 0f 11 85 68
	ff ff ff	 movsd	 QWORD PTR tv837[ebp], xmm0
  0023a	50		 push	 eax
  0023b	8b cb		 mov	 ecx, ebx
  0023d	f2 0f 11 85 74
	ff ff ff	 movsd	 QWORD PTR $T16[ebp], xmm0
  00245	e8 00 00 00 00	 call	 ?SetX@CCoordinate@@QAEXABNH@Z ; CCoordinate::SetX

; 1373 : 		m_stAnalysisTool.dEndXPos = (double)lMakeTime;

  0024a	8b 9d 64 ff ff
	ff		 mov	 ebx, DWORD PTR _this$GSCopy$1$[ebp]
  00250	f2 0f 10 85 68
	ff ff ff	 movsd	 xmm0, QWORD PTR tv837[ebp]
  00258	8b 3d 00 00 00
	00		 mov	 edi, DWORD PTR __imp__IsWindowVisible@4
  0025e	f2 0f 11 83 78
	0c 00 00	 movsd	 QWORD PTR [ebx+3192], xmm0
$LN3@SetDateVal:
; File C:\Program Files (x86)\Microsoft Visual Studio\2019\Community\VC\Tools\MSVC\14.29.30133\atlmfc\include\afxwin2.inl

; 124  : 	{ ASSERT(::IsWindow(m_hWnd)); return ::IsWindowVisible(m_hWnd); }

  00266	ff b3 f0 0b 00
	00		 push	 DWORD PTR [ebx+3056]
  0026c	ff d7		 call	 edi
; File D:\git\src\IBK\IBK_DRFN\ProjSrc\SrcChartEx\ChartAddIn\ChartAnalysisToolAddIn\AnalysisTool\DlgAnalysisToolSet.cpp

; 1377 : 	if(m_ctrlXDateTime3.IsWindowVisible() == TRUE)

  0026e	83 f8 01	 cmp	 eax, 1
  00271	0f 85 f5 00 00
	00		 jne	 $LN4@SetDateVal

; 1378 : 	{
; 1379 : 		m_ctrlXDateTime3.GetTime(xTime);

  00277	8d 85 5c ff ff
	ff		 lea	 eax, DWORD PTR _xTime$[ebp]
  0027d	50		 push	 eax
  0027e	8d 8b d0 0b 00
	00		 lea	 ecx, DWORD PTR [ebx+3024]
  00284	e8 00 00 00 00	 call	 ?GetTime@CDateTimeCtrl@@QBEKAAVCTime@ATL@@@Z ; CDateTimeCtrl::GetTime
; File C:\Program Files (x86)\Microsoft Visual Studio\2019\Community\VC\Tools\MSVC\14.29.30133\atlmfc\include\atltime.h

; 614  : 		errno_t err = _localtime64_s(&ptmTemp, &m_time);

  00289	8b 35 00 00 00
	00		 mov	 esi, DWORD PTR __imp___localtime64_s
  0028f	8d 85 5c ff ff
	ff		 lea	 eax, DWORD PTR _xTime$[ebp]
  00295	50		 push	 eax
  00296	8d 45 84	 lea	 eax, DWORD PTR _ptmTemp$17[ebp]
  00299	50		 push	 eax
  0029a	ff d6		 call	 esi

; 615  : 
; 616  : 		if (err != 0)

  0029c	33 c9		 xor	 ecx, ecx
  0029e	85 c0		 test	 eax, eax

; 614  : 		errno_t err = _localtime64_s(&ptmTemp, &m_time);

  002a0	8d 85 5c ff ff
	ff		 lea	 eax, DWORD PTR _xTime$[ebp]

; 616  : 		if (err != 0)

  002a6	0f 44 4d 90	 cmove	 ecx, DWORD PTR _ptmTemp$17[ebp+12]

; 614  : 		errno_t err = _localtime64_s(&ptmTemp, &m_time);

  002aa	50		 push	 eax
  002ab	8d 45 a8	 lea	 eax, DWORD PTR _ptmTemp$20[ebp]

; 616  : 		if (err != 0)

  002ae	89 8d 6c ff ff
	ff		 mov	 DWORD PTR $T3[ebp], ecx

; 614  : 		errno_t err = _localtime64_s(&ptmTemp, &m_time);

  002b4	50		 push	 eax
  002b5	ff d6		 call	 esi
  002b7	83 c4 10	 add	 esp, 16			; 00000010H

; 615  : 
; 616  : 		if (err != 0)

  002ba	85 c0		 test	 eax, eax
  002bc	75 06		 jne	 SHORT $LN151@SetDateVal

; 671  : 	return ptm ? ptm->tm_mon + 1 : 0;

  002be	8b 7d b8	 mov	 edi, DWORD PTR _ptmTemp$20[ebp+16]
  002c1	47		 inc	 edi
  002c2	eb 02		 jmp	 SHORT $LN152@SetDateVal
$LN151@SetDateVal:
  002c4	33 ff		 xor	 edi, edi
$LN152@SetDateVal:

; 614  : 		errno_t err = _localtime64_s(&ptmTemp, &m_time);

  002c6	8d 85 5c ff ff
	ff		 lea	 eax, DWORD PTR _xTime$[ebp]
  002cc	50		 push	 eax
  002cd	8d 45 cc	 lea	 eax, DWORD PTR _ptmTemp$23[ebp]
  002d0	50		 push	 eax
  002d1	ff d6		 call	 esi
  002d3	83 c4 08	 add	 esp, 8

; 615  : 
; 616  : 		if (err != 0)

  002d6	85 c0		 test	 eax, eax
  002d8	75 0a		 jne	 SHORT $LN167@SetDateVal

; 662  : 	return ptm ? (ptm->tm_year) + 1900 : 0 ;

  002da	8b 45 e0	 mov	 eax, DWORD PTR _ptmTemp$23[ebp+20]
  002dd	05 6c 07 00 00	 add	 eax, 1900		; 0000076cH
  002e2	eb 02		 jmp	 SHORT $LN168@SetDateVal
$LN167@SetDateVal:
  002e4	33 c0		 xor	 eax, eax
$LN168@SetDateVal:
; File D:\git\src\IBK\IBK_DRFN\ProjSrc\SrcChartEx\ChartAddIn\ChartAnalysisToolAddIn\AnalysisTool\DlgAnalysisToolSet.cpp

; 1394 : 		strXDate.Format(_T("%04d%02d%02d%s"),xTime.GetYear(),xTime.GetMonth(),xTime.GetDay(), _T("000000"));

  002e6	68 00 00 00 00	 push	 OFFSET ??_C@_06GEKNBBDK@000000@
  002eb	ff b5 6c ff ff
	ff		 push	 DWORD PTR $T3[ebp]
  002f1	57		 push	 edi
  002f2	50		 push	 eax
  002f3	8d 85 70 ff ff
	ff		 lea	 eax, DWORD PTR _strXDate$[ebp]
  002f9	68 00 00 00 00	 push	 OFFSET ??_C@_0P@NDLMDLNF@?$CF04d?$CF02d?$CF02d?$CFs@
  002fe	50		 push	 eax
  002ff	ff 15 00 00 00
	00		 call	 DWORD PTR __imp_?Format@?$CStringT@DV?$StrTraitMFC_DLL@DV?$ChTraitsCRT@D@ATL@@@@@ATL@@QAAXPBDZZ

; 1395 : 		__int64 lMakeTime = _atoi64(strXDate);

  00305	ff b5 70 ff ff
	ff		 push	 DWORD PTR _strXDate$[ebp]
  0030b	ff 15 00 00 00
	00		 call	 DWORD PTR __imp___atoi64

; 1396 : 
; 1397 : 		pCoordinate = m_pElementPointList->GetAt(2);

  00311	8b 8b 00 0d 00
	00		 mov	 ecx, DWORD PTR [ebx+3328]
  00317	83 c4 1c	 add	 esp, 28			; 0000001cH
  0031a	8b f8		 mov	 edi, eax
  0031c	8b f2		 mov	 esi, edx
  0031e	6a 02		 push	 2
  00320	e8 00 00 00 00	 call	 ?GetAt@CElementPointList@@QAEPAVCCoordinate@@H@Z ; CElementPointList::GetAt

; 1398 : 		pCoordinate->SetX((double)lMakeTime,2);

  00325	8b d6		 mov	 edx, esi
  00327	8b cf		 mov	 ecx, edi
  00329	8b d8		 mov	 ebx, eax
  0032b	e8 00 00 00 00	 call	 __ltod3
  00330	6a 02		 push	 2
  00332	8d 85 74 ff ff
	ff		 lea	 eax, DWORD PTR $T15[ebp]
  00338	f2 0f 11 85 68
	ff ff ff	 movsd	 QWORD PTR tv861[ebp], xmm0
  00340	50		 push	 eax
  00341	8b cb		 mov	 ecx, ebx
  00343	f2 0f 11 85 74
	ff ff ff	 movsd	 QWORD PTR $T15[ebp], xmm0
  0034b	e8 00 00 00 00	 call	 ?SetX@CCoordinate@@QAEXABNH@Z ; CCoordinate::SetX

; 1399 : 		m_stAnalysisTool.dThirdXPos = (double)lMakeTime;

  00350	8b 9d 64 ff ff
	ff		 mov	 ebx, DWORD PTR _this$GSCopy$1$[ebp]
  00356	f2 0f 10 85 68
	ff ff ff	 movsd	 xmm0, QWORD PTR tv861[ebp]
  0035e	8b 3d 00 00 00
	00		 mov	 edi, DWORD PTR __imp__IsWindowVisible@4
  00364	f2 0f 11 83 80
	0c 00 00	 movsd	 QWORD PTR [ebx+3200], xmm0
$LN4@SetDateVal:

; 1400 : 		// 2011.02.08 by SYS <<
; 1401 : 	}
; 1402 : 
; 1403 : // 2008.10.15 by LYH >> 8,32bit
; 1404 : 	CString strValue;

  0036c	8d 8d 7c ff ff
	ff		 lea	 ecx, DWORD PTR _strValue$[ebp]
  00372	ff 15 00 00 00
	00		 call	 DWORD PTR __imp_??0?$CStringT@DV?$StrTraitMFC_DLL@DV?$ChTraitsCRT@D@ATL@@@@@ATL@@QAE@XZ

; 1407 : 	CString strYValue;

  00378	8d 4d 80	 lea	 ecx, DWORD PTR _strYValue$[ebp]
  0037b	ff 15 00 00 00
	00		 call	 DWORD PTR __imp_??0?$CStringT@DV?$StrTraitMFC_DLL@DV?$ChTraitsCRT@D@ATL@@@@@ATL@@QAE@XZ
; File C:\Program Files (x86)\Microsoft Visual Studio\2019\Community\VC\Tools\MSVC\14.29.30133\atlmfc\include\afxwin2.inl

; 124  : 	{ ASSERT(::IsWindow(m_hWnd)); return ::IsWindowVisible(m_hWnd); }

  00381	ff b3 70 09 00
	00		 push	 DWORD PTR [ebx+2416]
; File D:\git\src\IBK\IBK_DRFN\ProjSrc\SrcChartEx\ChartAddIn\ChartAnalysisToolAddIn\AnalysisTool\DlgAnalysisToolSet.cpp

; 1407 : 	CString strYValue;

  00387	c6 45 fc 02	 mov	 BYTE PTR __$EHRec$[ebp+8], 2
; File C:\Program Files (x86)\Microsoft Visual Studio\2019\Community\VC\Tools\MSVC\14.29.30133\atlmfc\include\afxwin2.inl

; 124  : 	{ ASSERT(::IsWindow(m_hWnd)); return ::IsWindowVisible(m_hWnd); }

  0038b	ff d7		 call	 edi
; File D:\git\src\IBK\IBK_DRFN\ProjSrc\SrcChartEx\ChartAddIn\ChartAnalysisToolAddIn\AnalysisTool\DlgAnalysisToolSet.cpp

; 1408 : 	if(m_ctrlEditValue1.IsWindowVisible() == TRUE)

  0038d	83 f8 01	 cmp	 eax, 1
  00390	0f 85 b8 00 00
	00		 jne	 $LN7@SetDateVal

; 1409 : 	{
; 1410 : 		m_ctrlEditValue1.GetWindowText(strYValue);

  00396	8d 45 80	 lea	 eax, DWORD PTR _strYValue$[ebp]
  00399	50		 push	 eax
  0039a	8d 8b 50 09 00
	00		 lea	 ecx, DWORD PTR [ebx+2384]
  003a0	e8 00 00 00 00	 call	 ?GetWindowTextA@CWnd@@QBEXAAV?$CStringT@DV?$StrTraitMFC_DLL@DV?$ChTraitsCRT@D@ATL@@@@@ATL@@@Z ; CWnd::GetWindowTextA

; 1411 : 		pCoordinate = m_pElementPointList->GetAt(0);

  003a5	8b 8b 00 0d 00
	00		 mov	 ecx, DWORD PTR [ebx+3328]
  003ab	6a 00		 push	 0
  003ad	e8 00 00 00 00	 call	 ?GetAt@CElementPointList@@QAEPAVCCoordinate@@H@Z ; CElementPointList::GetAt
  003b2	8b f0		 mov	 esi, eax

; 1412 : 
; 1413 : // 2008.10.15 by LYH >> 8,32bit		
; 1414 : 		if(CDataConversion::GetDataToDec(strYValue, m_pDataEnvironment->GetStrVert(), strValue))

  003b4	8d 85 7c ff ff
	ff		 lea	 eax, DWORD PTR _strValue$[ebp]
  003ba	50		 push	 eax
  003bb	51		 push	 ecx
  003bc	8b cc		 mov	 ecx, esp
  003be	89 a5 6c ff ff
	ff		 mov	 DWORD PTR $T8[ebp], esp
  003c4	51		 push	 ecx
  003c5	8b 8b 88 0d 00
	00		 mov	 ecx, DWORD PTR [ebx+3464]
  003cb	e8 00 00 00 00	 call	 ?GetStrVert@CDataTypeEnvironment@@QBE?AV?$CStringT@DV?$StrTraitMFC_DLL@DV?$ChTraitsCRT@D@ATL@@@@@ATL@@XZ ; CDataTypeEnvironment::GetStrVert
  003d0	51		 push	 ecx
  003d1	8d 45 80	 lea	 eax, DWORD PTR _strYValue$[ebp]
  003d4	c6 45 fc 03	 mov	 BYTE PTR __$EHRec$[ebp+8], 3
  003d8	8b cc		 mov	 ecx, esp
  003da	50		 push	 eax
  003db	ff 15 00 00 00
	00		 call	 DWORD PTR __imp_??0?$CStringT@DV?$StrTraitMFC_DLL@DV?$ChTraitsCRT@D@ATL@@@@@ATL@@QAE@ABV01@@Z
  003e1	c6 45 fc 02	 mov	 BYTE PTR __$EHRec$[ebp+8], 2
  003e5	e8 00 00 00 00	 call	 ?GetDataToDec@CDataConversion@@SAHV?$CStringT@DV?$StrTraitMFC_DLL@DV?$ChTraitsCRT@D@ATL@@@@@ATL@@0AAV23@@Z ; CDataConversion::GetDataToDec
  003ea	83 c4 0c	 add	 esp, 12			; 0000000cH
  003ed	85 c0		 test	 eax, eax
  003ef	74 2b		 je	 SHORT $LN6@SetDateVal

; 1415 : 		{
; 1416 : 			pCoordinate->SetY(atof(strValue));

  003f1	ff b5 7c ff ff
	ff		 push	 DWORD PTR _strValue$[ebp]
  003f7	ff 15 00 00 00
	00		 call	 DWORD PTR __imp__atof
  003fd	83 c4 04	 add	 esp, 4
  00400	8d 85 74 ff ff
	ff		 lea	 eax, DWORD PTR $T14[ebp]
  00406	8b ce		 mov	 ecx, esi
  00408	dd 9d 74 ff ff
	ff		 fstp	 QWORD PTR $T14[ebp]
  0040e	50		 push	 eax
  0040f	e8 00 00 00 00	 call	 ?SetY@CCoordinate@@QAEXABN@Z ; CCoordinate::SetY

; 1417 : 			m_stAnalysisTool.dStartYValue = atof(strValue);

  00414	ff b5 7c ff ff
	ff		 push	 DWORD PTR _strValue$[ebp]

; 1418 : 		}

  0041a	eb 23		 jmp	 SHORT $LN223@SetDateVal
$LN6@SetDateVal:

; 1419 : 		else
; 1420 : 		{
; 1421 : 			pCoordinate->SetY(atof(strYValue));

  0041c	ff 75 80	 push	 DWORD PTR _strYValue$[ebp]
  0041f	ff 15 00 00 00
	00		 call	 DWORD PTR __imp__atof
  00425	83 c4 04	 add	 esp, 4
  00428	8d 85 74 ff ff
	ff		 lea	 eax, DWORD PTR $T13[ebp]
  0042e	8b ce		 mov	 ecx, esi
  00430	dd 9d 74 ff ff
	ff		 fstp	 QWORD PTR $T13[ebp]
  00436	50		 push	 eax
  00437	e8 00 00 00 00	 call	 ?SetY@CCoordinate@@QAEXABN@Z ; CCoordinate::SetY

; 1422 : 			m_stAnalysisTool.dStartYValue = atof(strYValue);

  0043c	ff 75 80	 push	 DWORD PTR _strYValue$[ebp]
$LN223@SetDateVal:
; File C:\Program Files (x86)\Microsoft Visual Studio\2019\Community\VC\Tools\MSVC\14.29.30133\atlmfc\include\afxwin2.inl

; 124  : 	{ ASSERT(::IsWindow(m_hWnd)); return ::IsWindowVisible(m_hWnd); }

  0043f	ff 15 00 00 00
	00		 call	 DWORD PTR __imp__atof
  00445	dd 9b 88 0c 00
	00		 fstp	 QWORD PTR [ebx+3208]
  0044b	83 c4 04	 add	 esp, 4
$LN7@SetDateVal:
  0044e	ff b3 f0 09 00
	00		 push	 DWORD PTR [ebx+2544]
  00454	ff d7		 call	 edi
; File D:\git\src\IBK\IBK_DRFN\ProjSrc\SrcChartEx\ChartAddIn\ChartAnalysisToolAddIn\AnalysisTool\DlgAnalysisToolSet.cpp

; 1427 : 	if(m_ctrlEditValue2.IsWindowVisible() == TRUE)

  00456	83 f8 01	 cmp	 eax, 1
  00459	0f 85 b8 00 00
	00		 jne	 $LN10@SetDateVal

; 1428 : 	{
; 1429 : 		m_ctrlEditValue2.GetWindowText(strYValue);

  0045f	8d 45 80	 lea	 eax, DWORD PTR _strYValue$[ebp]
  00462	50		 push	 eax
  00463	8d 8b d0 09 00
	00		 lea	 ecx, DWORD PTR [ebx+2512]
  00469	e8 00 00 00 00	 call	 ?GetWindowTextA@CWnd@@QBEXAAV?$CStringT@DV?$StrTraitMFC_DLL@DV?$ChTraitsCRT@D@ATL@@@@@ATL@@@Z ; CWnd::GetWindowTextA

; 1430 : 		pCoordinate = m_pElementPointList->GetAt(1);

  0046e	8b 8b 00 0d 00
	00		 mov	 ecx, DWORD PTR [ebx+3328]
  00474	6a 01		 push	 1
  00476	e8 00 00 00 00	 call	 ?GetAt@CElementPointList@@QAEPAVCCoordinate@@H@Z ; CElementPointList::GetAt
  0047b	8b f0		 mov	 esi, eax

; 1431 : 
; 1432 : // 2008.10.15 by LYH >> 8,32bit
; 1433 : 		if(CDataConversion::GetDataToDec(strYValue, m_pDataEnvironment->GetStrVert(), strValue))

  0047d	8d 85 7c ff ff
	ff		 lea	 eax, DWORD PTR _strValue$[ebp]
  00483	50		 push	 eax
  00484	51		 push	 ecx
  00485	8b cc		 mov	 ecx, esp
  00487	89 a5 6c ff ff
	ff		 mov	 DWORD PTR $T7[ebp], esp
  0048d	51		 push	 ecx
  0048e	8b 8b 88 0d 00
	00		 mov	 ecx, DWORD PTR [ebx+3464]
  00494	e8 00 00 00 00	 call	 ?GetStrVert@CDataTypeEnvironment@@QBE?AV?$CStringT@DV?$StrTraitMFC_DLL@DV?$ChTraitsCRT@D@ATL@@@@@ATL@@XZ ; CDataTypeEnvironment::GetStrVert
  00499	51		 push	 ecx
  0049a	8d 45 80	 lea	 eax, DWORD PTR _strYValue$[ebp]
  0049d	c6 45 fc 04	 mov	 BYTE PTR __$EHRec$[ebp+8], 4
  004a1	8b cc		 mov	 ecx, esp
  004a3	50		 push	 eax
  004a4	ff 15 00 00 00
	00		 call	 DWORD PTR __imp_??0?$CStringT@DV?$StrTraitMFC_DLL@DV?$ChTraitsCRT@D@ATL@@@@@ATL@@QAE@ABV01@@Z
  004aa	c6 45 fc 02	 mov	 BYTE PTR __$EHRec$[ebp+8], 2
  004ae	e8 00 00 00 00	 call	 ?GetDataToDec@CDataConversion@@SAHV?$CStringT@DV?$StrTraitMFC_DLL@DV?$ChTraitsCRT@D@ATL@@@@@ATL@@0AAV23@@Z ; CDataConversion::GetDataToDec
  004b3	83 c4 0c	 add	 esp, 12			; 0000000cH
  004b6	85 c0		 test	 eax, eax
  004b8	74 2b		 je	 SHORT $LN9@SetDateVal

; 1434 : 		{
; 1435 : 			pCoordinate->SetY(atof(strValue));

  004ba	ff b5 7c ff ff
	ff		 push	 DWORD PTR _strValue$[ebp]
  004c0	ff 15 00 00 00
	00		 call	 DWORD PTR __imp__atof
  004c6	83 c4 04	 add	 esp, 4
  004c9	8d 85 74 ff ff
	ff		 lea	 eax, DWORD PTR $T12[ebp]
  004cf	8b ce		 mov	 ecx, esi
  004d1	dd 9d 74 ff ff
	ff		 fstp	 QWORD PTR $T12[ebp]
  004d7	50		 push	 eax
  004d8	e8 00 00 00 00	 call	 ?SetY@CCoordinate@@QAEXABN@Z ; CCoordinate::SetY

; 1436 : 			m_stAnalysisTool.dEndYValue = atof(strValue);

  004dd	ff b5 7c ff ff
	ff		 push	 DWORD PTR _strValue$[ebp]

; 1437 : 		}

  004e3	eb 23		 jmp	 SHORT $LN224@SetDateVal
$LN9@SetDateVal:

; 1438 : 		else
; 1439 : 		{
; 1440 : 			pCoordinate->SetY(atof(strYValue));

  004e5	ff 75 80	 push	 DWORD PTR _strYValue$[ebp]
  004e8	ff 15 00 00 00
	00		 call	 DWORD PTR __imp__atof
  004ee	83 c4 04	 add	 esp, 4
  004f1	8d 85 74 ff ff
	ff		 lea	 eax, DWORD PTR $T11[ebp]
  004f7	8b ce		 mov	 ecx, esi
  004f9	dd 9d 74 ff ff
	ff		 fstp	 QWORD PTR $T11[ebp]
  004ff	50		 push	 eax
  00500	e8 00 00 00 00	 call	 ?SetY@CCoordinate@@QAEXABN@Z ; CCoordinate::SetY

; 1441 : 			m_stAnalysisTool.dEndYValue = atof(strYValue);

  00505	ff 75 80	 push	 DWORD PTR _strYValue$[ebp]
$LN224@SetDateVal:
; File C:\Program Files (x86)\Microsoft Visual Studio\2019\Community\VC\Tools\MSVC\14.29.30133\atlmfc\include\afxwin2.inl

; 124  : 	{ ASSERT(::IsWindow(m_hWnd)); return ::IsWindowVisible(m_hWnd); }

  00508	ff 15 00 00 00
	00		 call	 DWORD PTR __imp__atof
  0050e	dd 9b 90 0c 00
	00		 fstp	 QWORD PTR [ebx+3216]
  00514	83 c4 04	 add	 esp, 4
$LN10@SetDateVal:
  00517	ff b3 70 0a 00
	00		 push	 DWORD PTR [ebx+2672]
  0051d	ff d7		 call	 edi
; File D:\git\src\IBK\IBK_DRFN\ProjSrc\SrcChartEx\ChartAddIn\ChartAnalysisToolAddIn\AnalysisTool\DlgAnalysisToolSet.cpp

; 1446 : 	if(m_ctrlEditValue3.IsWindowVisible() == TRUE)

  0051f	83 f8 01	 cmp	 eax, 1
  00522	0f 85 c4 00 00
	00		 jne	 $LN13@SetDateVal

; 1447 : 	{
; 1448 : 		m_ctrlEditValue3.GetWindowText(strYValue);

  00528	8d 45 80	 lea	 eax, DWORD PTR _strYValue$[ebp]
  0052b	50		 push	 eax
  0052c	8d 8b 50 0a 00
	00		 lea	 ecx, DWORD PTR [ebx+2640]
  00532	e8 00 00 00 00	 call	 ?GetWindowTextA@CWnd@@QBEXAAV?$CStringT@DV?$StrTraitMFC_DLL@DV?$ChTraitsCRT@D@ATL@@@@@ATL@@@Z ; CWnd::GetWindowTextA

; 1449 : 		pCoordinate = m_pElementPointList->GetAt(2);

  00537	8b 8b 00 0d 00
	00		 mov	 ecx, DWORD PTR [ebx+3328]
  0053d	6a 02		 push	 2
  0053f	e8 00 00 00 00	 call	 ?GetAt@CElementPointList@@QAEPAVCCoordinate@@H@Z ; CElementPointList::GetAt
  00544	8b f0		 mov	 esi, eax

; 1450 : 
; 1451 : // 2008.10.15 by LYH >> 8,32bit
; 1452 : 		if(CDataConversion::GetDataToDec(strYValue, m_pDataEnvironment->GetStrVert(), strValue))

  00546	8d 85 7c ff ff
	ff		 lea	 eax, DWORD PTR _strValue$[ebp]
  0054c	50		 push	 eax
  0054d	51		 push	 ecx
  0054e	8b cc		 mov	 ecx, esp
  00550	89 a5 6c ff ff
	ff		 mov	 DWORD PTR $T6[ebp], esp
  00556	51		 push	 ecx
  00557	8b 8b 88 0d 00
	00		 mov	 ecx, DWORD PTR [ebx+3464]
  0055d	e8 00 00 00 00	 call	 ?GetStrVert@CDataTypeEnvironment@@QBE?AV?$CStringT@DV?$StrTraitMFC_DLL@DV?$ChTraitsCRT@D@ATL@@@@@ATL@@XZ ; CDataTypeEnvironment::GetStrVert
  00562	51		 push	 ecx
  00563	8d 45 80	 lea	 eax, DWORD PTR _strYValue$[ebp]
  00566	c6 45 fc 05	 mov	 BYTE PTR __$EHRec$[ebp+8], 5
  0056a	8b cc		 mov	 ecx, esp
  0056c	50		 push	 eax
  0056d	ff 15 00 00 00
	00		 call	 DWORD PTR __imp_??0?$CStringT@DV?$StrTraitMFC_DLL@DV?$ChTraitsCRT@D@ATL@@@@@ATL@@QAE@ABV01@@Z
  00573	c6 45 fc 02	 mov	 BYTE PTR __$EHRec$[ebp+8], 2
  00577	e8 00 00 00 00	 call	 ?GetDataToDec@CDataConversion@@SAHV?$CStringT@DV?$StrTraitMFC_DLL@DV?$ChTraitsCRT@D@ATL@@@@@ATL@@0AAV23@@Z ; CDataConversion::GetDataToDec
  0057c	83 c4 0c	 add	 esp, 12			; 0000000cH
  0057f	85 c0		 test	 eax, eax
  00581	74 37		 je	 SHORT $LN12@SetDateVal

; 1453 : 		{
; 1454 : 			pCoordinate->SetY(atof(strValue));

  00583	ff b5 7c ff ff
	ff		 push	 DWORD PTR _strValue$[ebp]
  00589	ff 15 00 00 00
	00		 call	 DWORD PTR __imp__atof
  0058f	83 c4 04	 add	 esp, 4
  00592	8d 85 74 ff ff
	ff		 lea	 eax, DWORD PTR $T10[ebp]
  00598	8b ce		 mov	 ecx, esi
  0059a	dd 9d 74 ff ff
	ff		 fstp	 QWORD PTR $T10[ebp]
  005a0	50		 push	 eax
  005a1	e8 00 00 00 00	 call	 ?SetY@CCoordinate@@QAEXABN@Z ; CCoordinate::SetY

; 1455 : 			m_stAnalysisTool.dEndYValue = atof(strValue);

  005a6	ff b5 7c ff ff
	ff		 push	 DWORD PTR _strValue$[ebp]
  005ac	ff 15 00 00 00
	00		 call	 DWORD PTR __imp__atof
  005b2	dd 9b 90 0c 00
	00		 fstp	 QWORD PTR [ebx+3216]

; 1456 : 		}

  005b8	eb 2f		 jmp	 SHORT $LN225@SetDateVal
$LN12@SetDateVal:

; 1457 : 		else
; 1458 : 		{
; 1459 : 			pCoordinate->SetY(atof(strYValue));

  005ba	ff 75 80	 push	 DWORD PTR _strYValue$[ebp]
  005bd	ff 15 00 00 00
	00		 call	 DWORD PTR __imp__atof
  005c3	83 c4 04	 add	 esp, 4
  005c6	8d 85 74 ff ff
	ff		 lea	 eax, DWORD PTR $T9[ebp]
  005cc	8b ce		 mov	 ecx, esi
  005ce	dd 9d 74 ff ff
	ff		 fstp	 QWORD PTR $T9[ebp]
  005d4	50		 push	 eax
  005d5	e8 00 00 00 00	 call	 ?SetY@CCoordinate@@QAEXABN@Z ; CCoordinate::SetY

; 1460 : 			m_stAnalysisTool.dThirdYValue = atof(strYValue);

  005da	ff 75 80	 push	 DWORD PTR _strYValue$[ebp]
  005dd	ff 15 00 00 00
	00		 call	 DWORD PTR __imp__atof
  005e3	dd 9b 98 0c 00
	00		 fstp	 QWORD PTR [ebx+3224]
$LN225@SetDateVal:

; 1461 : 		}
; 1462 : // 2008.10.15 by LYH <<
; 1463 : 	}
; 1464 : }

  005e9	83 c4 04	 add	 esp, 4
$LN13@SetDateVal:
  005ec	8d 4d 80	 lea	 ecx, DWORD PTR _strYValue$[ebp]
  005ef	ff 15 00 00 00
	00		 call	 DWORD PTR __imp_??1?$CStringT@DV?$StrTraitMFC_DLL@DV?$ChTraitsCRT@D@ATL@@@@@ATL@@QAE@XZ
  005f5	8d 8d 7c ff ff
	ff		 lea	 ecx, DWORD PTR _strValue$[ebp]
  005fb	ff 15 00 00 00
	00		 call	 DWORD PTR __imp_??1?$CStringT@DV?$StrTraitMFC_DLL@DV?$ChTraitsCRT@D@ATL@@@@@ATL@@QAE@XZ
  00601	8d 8d 70 ff ff
	ff		 lea	 ecx, DWORD PTR _strXDate$[ebp]
  00607	ff 15 00 00 00
	00		 call	 DWORD PTR __imp_??1?$CStringT@DV?$StrTraitMFC_DLL@DV?$ChTraitsCRT@D@ATL@@@@@ATL@@QAE@XZ
  0060d	8b 4d f4	 mov	 ecx, DWORD PTR __$EHRec$[ebp]
  00610	64 89 0d 00 00
	00 00		 mov	 DWORD PTR fs:0, ecx
  00617	59		 pop	 ecx
  00618	5f		 pop	 edi
  00619	5e		 pop	 esi
  0061a	5b		 pop	 ebx
  0061b	8b 4d f0	 mov	 ecx, DWORD PTR __$ArrayPad$[ebp]
  0061e	33 cd		 xor	 ecx, ebp
  00620	e8 00 00 00 00	 call	 @__security_check_cookie@4
  00625	8b e5		 mov	 esp, ebp
  00627	5d		 pop	 ebp
  00628	c3		 ret	 0
_TEXT	ENDS
;	COMDAT text$x
text$x	SEGMENT
__unwindfunclet$?SetDateValueLists@CDlgAnalysisToolSet@@AAEXXZ$0:
  00000	8d 8d 70 ff ff
	ff		 lea	 ecx, DWORD PTR _strXDate$[ebp]
  00006	ff 25 00 00 00
	00		 jmp	 DWORD PTR __imp_??1?$CStringT@DV?$StrTraitMFC_DLL@DV?$ChTraitsCRT@D@ATL@@@@@ATL@@QAE@XZ
__unwindfunclet$?SetDateValueLists@CDlgAnalysisToolSet@@AAEXXZ$1:
  0000c	8d 8d 7c ff ff
	ff		 lea	 ecx, DWORD PTR _strValue$[ebp]
  00012	ff 25 00 00 00
	00		 jmp	 DWORD PTR __imp_??1?$CStringT@DV?$StrTraitMFC_DLL@DV?$ChTraitsCRT@D@ATL@@@@@ATL@@QAE@XZ
__unwindfunclet$?SetDateValueLists@CDlgAnalysisToolSet@@AAEXXZ$2:
  00018	8d 4d 80	 lea	 ecx, DWORD PTR _strYValue$[ebp]
  0001b	ff 25 00 00 00
	00		 jmp	 DWORD PTR __imp_??1?$CStringT@DV?$StrTraitMFC_DLL@DV?$ChTraitsCRT@D@ATL@@@@@ATL@@QAE@XZ
__unwindfunclet$?SetDateValueLists@CDlgAnalysisToolSet@@AAEXXZ$3:
  00021	8b 8d 6c ff ff
	ff		 mov	 ecx, DWORD PTR $T8[ebp]
  00027	ff 25 00 00 00
	00		 jmp	 DWORD PTR __imp_??1?$CStringT@DV?$StrTraitMFC_DLL@DV?$ChTraitsCRT@D@ATL@@@@@ATL@@QAE@XZ
__unwindfunclet$?SetDateValueLists@CDlgAnalysisToolSet@@AAEXXZ$5:
  0002d	8b 8d 6c ff ff
	ff		 mov	 ecx, DWORD PTR $T7[ebp]
  00033	ff 25 00 00 00
	00		 jmp	 DWORD PTR __imp_??1?$CStringT@DV?$StrTraitMFC_DLL@DV?$ChTraitsCRT@D@ATL@@@@@ATL@@QAE@XZ
__unwindfunclet$?SetDateValueLists@CDlgAnalysisToolSet@@AAEXXZ$7:
  00039	8b 8d 6c ff ff
	ff		 mov	 ecx, DWORD PTR $T6[ebp]
  0003f	ff 25 00 00 00
	00		 jmp	 DWORD PTR __imp_??1?$CStringT@DV?$StrTraitMFC_DLL@DV?$ChTraitsCRT@D@ATL@@@@@ATL@@QAE@XZ
  00045	cc		 int	 3
  00046	cc		 int	 3
  00047	cc		 int	 3
  00048	cc		 int	 3
  00049	cc		 int	 3
__ehhandler$?SetDateValueLists@CDlgAnalysisToolSet@@AAEXXZ:
  0004a	90		 npad	 1
  0004b	90		 npad	 1
  0004c	8b 54 24 08	 mov	 edx, DWORD PTR [esp+8]
  00050	8d 42 0c	 lea	 eax, DWORD PTR [edx+12]
  00053	8b 8a 58 ff ff
	ff		 mov	 ecx, DWORD PTR [edx-168]
  00059	33 c8		 xor	 ecx, eax
  0005b	e8 00 00 00 00	 call	 @__security_check_cookie@4
  00060	8b 4a fc	 mov	 ecx, DWORD PTR [edx-4]
  00063	33 c8		 xor	 ecx, eax
  00065	e8 00 00 00 00	 call	 @__security_check_cookie@4
  0006a	b8 00 00 00 00	 mov	 eax, OFFSET __ehfuncinfo$?SetDateValueLists@CDlgAnalysisToolSet@@AAEXXZ
  0006f	e9 00 00 00 00	 jmp	 ___CxxFrameHandler3
text$x	ENDS
?SetDateValueLists@CDlgAnalysisToolSet@@AAEXXZ ENDP	; CDlgAnalysisToolSet::SetDateValueLists
; Function compile flags: /Ogtp
; File D:\git\src\IBK\IBK_DRFN\ProjSrc\SrcChartEx\ChartAddIn\ChartAnalysisToolAddIn\AnalysisTool\DlgAnalysisToolSet.cpp
;	COMDAT ?SetLineExtEnvironment@CDlgAnalysisToolSet@@AAEX_N0@Z
_TEXT	SEGMENT
$T1 = 8							; size = 4
_bLeft$ = 8						; size = 1
$T2 = 12						; size = 4
_bRight$ = 12						; size = 1
?SetLineExtEnvironment@CDlgAnalysisToolSet@@AAEX_N0@Z PROC ; CDlgAnalysisToolSet::SetLineExtEnvironment, COMDAT
; _this$ = ecx

; 1008 : {

  00000	55		 push	 ebp
  00001	8b ec		 mov	 ebp, esp

; 1009 : 	m_pLineExtEnvironment->SetLineExt(bLeft,bRight);

  00003	0f b6 45 0c	 movzx	 eax, BYTE PTR _bRight$[ebp]
  00007	8b 89 6c 0d 00
	00		 mov	 ecx, DWORD PTR [ecx+3436]
  0000d	89 45 0c	 mov	 DWORD PTR $T2[ebp], eax
  00010	0f b6 45 08	 movzx	 eax, BYTE PTR _bLeft$[ebp]
  00014	89 45 08	 mov	 DWORD PTR $T1[ebp], eax
  00017	8d 45 0c	 lea	 eax, DWORD PTR $T2[ebp]
  0001a	50		 push	 eax
  0001b	8d 45 08	 lea	 eax, DWORD PTR $T1[ebp]
  0001e	50		 push	 eax
  0001f	e8 00 00 00 00	 call	 ?SetLineExt@CLineExtEnvironment@@QAEXABH0@Z ; CLineExtEnvironment::SetLineExt

; 1010 : }

  00024	5d		 pop	 ebp
  00025	c2 08 00	 ret	 8
?SetLineExtEnvironment@CDlgAnalysisToolSet@@AAEX_N0@Z ENDP ; CDlgAnalysisToolSet::SetLineExtEnvironment
_TEXT	ENDS
; Function compile flags: /Ogtp
; File D:\git\src\IBK\IBK_DRFN\ProjSrc\SrcChartEx\ChartAddIn\ChartAnalysisToolAddIn\AnalysisTool\DlgAnalysisToolSet.cpp
; File C:\Program Files (x86)\Microsoft Visual Studio\2019\Community\VC\Tools\MSVC\14.29.30133\atlmfc\include\afxwin2.inl
; File D:\git\src\IBK\IBK_DRFN\ProjSrc\SrcChartEx\ChartAddIn\ChartAnalysisToolAddIn\AnalysisTool\DlgAnalysisToolSet.cpp
; File C:\Program Files (x86)\Microsoft Visual Studio\2019\Community\VC\Tools\MSVC\14.29.30133\atlmfc\include\afxwin2.inl
; File D:\git\src\IBK\IBK_DRFN\ProjSrc\SrcChartEx\ChartAddIn\ChartAnalysisToolAddIn\AnalysisTool\DlgAnalysisToolSet.cpp
; File C:\Program Files (x86)\Microsoft Visual Studio\2019\Community\VC\Tools\MSVC\14.29.30133\atlmfc\include\afxwin2.inl
; File D:\git\src\IBK\IBK_DRFN\ProjSrc\SrcChartEx\ChartAddIn\ChartAnalysisToolAddIn\AnalysisTool\DlgAnalysisToolSet.cpp
; File C:\Program Files (x86)\Microsoft Visual Studio\2019\Community\VC\Tools\MSVC\14.29.30133\atlmfc\include\afxwin2.inl
; File D:\git\src\IBK\IBK_DRFN\ProjSrc\SrcChartEx\ChartAddIn\ChartAnalysisToolAddIn\AnalysisTool\DlgAnalysisToolSet.cpp
;	COMDAT ?SetLineExtEnvironment@CDlgAnalysisToolSet@@AAEXXZ
_TEXT	SEGMENT
$T1 = -8						; size = 4
$T2 = -4						; size = 4
?SetLineExtEnvironment@CDlgAnalysisToolSet@@AAEXXZ PROC	; CDlgAnalysisToolSet::SetLineExtEnvironment, COMDAT
; _this$ = ecx

; 999  : {

  00000	55		 push	 ebp
  00001	8b ec		 mov	 ebp, esp
  00003	83 ec 08	 sub	 esp, 8
  00006	56		 push	 esi
  00007	57		 push	 edi

; 1000 : 	UpdateData(TRUE);

  00008	6a 01		 push	 1
  0000a	8b f9		 mov	 edi, ecx
  0000c	e8 00 00 00 00	 call	 ?UpdateData@CWnd@@QAEHH@Z ; CWnd::UpdateData
; File C:\Program Files (x86)\Microsoft Visual Studio\2019\Community\VC\Tools\MSVC\14.29.30133\atlmfc\include\afxwin2.inl

; 628  : 	{ ASSERT(::IsWindow(m_hWnd)); return (int)::SendMessage(m_hWnd, BM_GETCHECK, 0, 0); }

  00011	8b 35 00 00 00
	00		 mov	 esi, DWORD PTR __imp__SendMessageA@16
  00017	6a 00		 push	 0
  00019	6a 00		 push	 0
  0001b	68 f0 00 00 00	 push	 240			; 000000f0H
  00020	ff b7 f0 05 00
	00		 push	 DWORD PTR [edi+1520]
  00026	ff d6		 call	 esi
  00028	6a 00		 push	 0
  0002a	6a 00		 push	 0
  0002c	68 f0 00 00 00	 push	 240			; 000000f0H
  00031	ff b7 70 05 00
	00		 push	 DWORD PTR [edi+1392]
; File D:\git\src\IBK\IBK_DRFN\ProjSrc\SrcChartEx\ChartAddIn\ChartAnalysisToolAddIn\AnalysisTool\DlgAnalysisToolSet.cpp

; 1001 : 	m_pLineExtEnvironment->SetLineExt(m_ctrlLeftExt.GetCheck(),m_ctrlRightExt.GetCheck());

  00037	89 45 fc	 mov	 DWORD PTR $T2[ebp], eax
; File C:\Program Files (x86)\Microsoft Visual Studio\2019\Community\VC\Tools\MSVC\14.29.30133\atlmfc\include\afxwin2.inl

; 628  : 	{ ASSERT(::IsWindow(m_hWnd)); return (int)::SendMessage(m_hWnd, BM_GETCHECK, 0, 0); }

  0003a	ff d6		 call	 esi
; File D:\git\src\IBK\IBK_DRFN\ProjSrc\SrcChartEx\ChartAddIn\ChartAnalysisToolAddIn\AnalysisTool\DlgAnalysisToolSet.cpp

; 1001 : 	m_pLineExtEnvironment->SetLineExt(m_ctrlLeftExt.GetCheck(),m_ctrlRightExt.GetCheck());

  0003c	8b 8f 6c 0d 00
	00		 mov	 ecx, DWORD PTR [edi+3436]
  00042	89 45 f8	 mov	 DWORD PTR $T1[ebp], eax
  00045	8d 45 fc	 lea	 eax, DWORD PTR $T2[ebp]
  00048	50		 push	 eax
  00049	8d 45 f8	 lea	 eax, DWORD PTR $T1[ebp]
  0004c	50		 push	 eax
  0004d	e8 00 00 00 00	 call	 ?SetLineExt@CLineExtEnvironment@@QAEXABH0@Z ; CLineExtEnvironment::SetLineExt
; File C:\Program Files (x86)\Microsoft Visual Studio\2019\Community\VC\Tools\MSVC\14.29.30133\atlmfc\include\afxwin2.inl

; 628  : 	{ ASSERT(::IsWindow(m_hWnd)); return (int)::SendMessage(m_hWnd, BM_GETCHECK, 0, 0); }

  00052	6a 00		 push	 0
  00054	6a 00		 push	 0
  00056	68 f0 00 00 00	 push	 240			; 000000f0H
  0005b	ff b7 70 05 00
	00		 push	 DWORD PTR [edi+1392]
  00061	ff d6		 call	 esi
  00063	6a 00		 push	 0
  00065	6a 00		 push	 0
  00067	68 f0 00 00 00	 push	 240			; 000000f0H
  0006c	ff b7 f0 05 00
	00		 push	 DWORD PTR [edi+1520]
; File D:\git\src\IBK\IBK_DRFN\ProjSrc\SrcChartEx\ChartAddIn\ChartAnalysisToolAddIn\AnalysisTool\DlgAnalysisToolSet.cpp

; 1003 : 	m_stAnalysisTool.nLeftExt = m_ctrlLeftExt.GetCheck();

  00072	89 87 b4 0c 00
	00		 mov	 DWORD PTR [edi+3252], eax
; File C:\Program Files (x86)\Microsoft Visual Studio\2019\Community\VC\Tools\MSVC\14.29.30133\atlmfc\include\afxwin2.inl

; 628  : 	{ ASSERT(::IsWindow(m_hWnd)); return (int)::SendMessage(m_hWnd, BM_GETCHECK, 0, 0); }

  00078	ff d6		 call	 esi
; File D:\git\src\IBK\IBK_DRFN\ProjSrc\SrcChartEx\ChartAddIn\ChartAnalysisToolAddIn\AnalysisTool\DlgAnalysisToolSet.cpp

; 1004 : 	m_stAnalysisTool.nRightExt = m_ctrlRightExt.GetCheck();	

  0007a	89 87 b8 0c 00
	00		 mov	 DWORD PTR [edi+3256], eax
  00080	5f		 pop	 edi
  00081	5e		 pop	 esi

; 1005 : }

  00082	8b e5		 mov	 esp, ebp
  00084	5d		 pop	 ebp
  00085	c3		 ret	 0
?SetLineExtEnvironment@CDlgAnalysisToolSet@@AAEXXZ ENDP	; CDlgAnalysisToolSet::SetLineExtEnvironment
_TEXT	ENDS
; Function compile flags: /Ogtp
; File D:\git\src\IBK\IBK_DRFN\ProjSrc\SrcChartEx\ChartAddIn\ChartAnalysisToolAddIn\AnalysisTool\DlgAnalysisToolSet.cpp
;	COMDAT ?SetTextPosition@CDlgAnalysisToolSet@@AAEX_N000@Z
_TEXT	SEGMENT
_bLeft$ = 8						; size = 1
$T1 = 8							; size = 4
_bRight$ = 12						; size = 1
_bTop$ = 16						; size = 1
_bBottom$ = 20						; size = 1
?SetTextPosition@CDlgAnalysisToolSet@@AAEX_N000@Z PROC	; CDlgAnalysisToolSet::SetTextPosition, COMDAT
; _this$ = ecx

; 1090 : {

  00000	55		 push	 ebp
  00001	8b ec		 mov	 ebp, esp
  00003	56		 push	 esi
  00004	8b f1		 mov	 esi, ecx

; 1091 : 	if(m_pTextHVPosition == NULL)

  00006	8b 8e 38 0d 00
	00		 mov	 ecx, DWORD PTR [esi+3384]
  0000c	85 c9		 test	 ecx, ecx
  0000e	74 56		 je	 SHORT $LN1@SetTextPos

; 1092 : 		return;
; 1093 : 
; 1094 : 	m_pTextHVPosition->SetLeft(bLeft);

  00010	ff 75 08	 push	 DWORD PTR _bLeft$[ebp]
  00013	e8 00 00 00 00	 call	 ?SetLeft@CTextHorzVertPosition@@QAEX_N@Z ; CTextHorzVertPosition::SetLeft

; 1095 : 	m_pTextHVPosition->SetRight(bRight);

  00018	ff 75 0c	 push	 DWORD PTR _bRight$[ebp]
  0001b	8b 8e 38 0d 00
	00		 mov	 ecx, DWORD PTR [esi+3384]
  00021	e8 00 00 00 00	 call	 ?SetRight@CTextHorzVertPosition@@QAEX_N@Z ; CTextHorzVertPosition::SetRight

; 1096 : 	m_pTextHVPosition->SetTop(bTop);

  00026	ff 75 10	 push	 DWORD PTR _bTop$[ebp]
  00029	8b 8e 38 0d 00
	00		 mov	 ecx, DWORD PTR [esi+3384]
  0002f	e8 00 00 00 00	 call	 ?SetTop@CTextHorzVertPosition@@QAEX_N@Z ; CTextHorzVertPosition::SetTop

; 1097 : 	m_pTextHVPosition->SetBottom(bBottom);

  00034	ff 75 14	 push	 DWORD PTR _bBottom$[ebp]
  00037	8b 8e 38 0d 00
	00		 mov	 ecx, DWORD PTR [esi+3384]
  0003d	e8 00 00 00 00	 call	 ?SetBottom@CTextHorzVertPosition@@QAEX_N@Z ; CTextHorzVertPosition::SetBottom

; 1098 : 	m_pTextHVPosition->GetTextEnvironment().SetColor(m_ctlColor.GetColor());

  00042	8d 8e 48 02 00
	00		 lea	 ecx, DWORD PTR [esi+584]
  00048	e8 00 00 00 00	 call	 ?GetColor@CColorButton@@QBEKXZ ; CColorButton::GetColor
  0004d	8b 8e 38 0d 00
	00		 mov	 ecx, DWORD PTR [esi+3384]
  00053	89 45 08	 mov	 DWORD PTR $T1[ebp], eax
  00056	8d 45 08	 lea	 eax, DWORD PTR $T1[ebp]
  00059	50		 push	 eax
  0005a	e8 00 00 00 00	 call	 ?GetTextEnvironment@CTextPosition@@QAEAAVCTextEnvironment@@XZ ; CTextPosition::GetTextEnvironment
  0005f	8b c8		 mov	 ecx, eax
  00061	e8 00 00 00 00	 call	 ?SetColor@CTextEnvironment@@QAEXABK@Z ; CTextEnvironment::SetColor
$LN1@SetTextPos:
  00066	5e		 pop	 esi

; 1099 : }

  00067	5d		 pop	 ebp
  00068	c2 10 00	 ret	 16			; 00000010H
?SetTextPosition@CDlgAnalysisToolSet@@AAEX_N000@Z ENDP	; CDlgAnalysisToolSet::SetTextPosition
_TEXT	ENDS
; Function compile flags: /Ogtp
; File D:\git\src\IBK\IBK_DRFN\ProjSrc\SrcChartEx\ChartAddIn\ChartAnalysisToolAddIn\AnalysisTool\DlgAnalysisToolSet.cpp
; File C:\Program Files (x86)\Microsoft Visual Studio\2019\Community\VC\Tools\MSVC\14.29.30133\atlmfc\include\afxwin2.inl
; File D:\git\src\IBK\IBK_DRFN\ProjSrc\SrcChartEx\ChartAddIn\ChartAnalysisToolAddIn\AnalysisTool\DlgAnalysisToolSet.cpp
; File C:\Program Files (x86)\Microsoft Visual Studio\2019\Community\VC\Tools\MSVC\14.29.30133\atlmfc\include\afxwin2.inl
; File D:\git\src\IBK\IBK_DRFN\ProjSrc\SrcChartEx\ChartAddIn\ChartAnalysisToolAddIn\AnalysisTool\DlgAnalysisToolSet.cpp
; File C:\Program Files (x86)\Microsoft Visual Studio\2019\Community\VC\Tools\MSVC\14.29.30133\atlmfc\include\afxwin2.inl
; File D:\git\src\IBK\IBK_DRFN\ProjSrc\SrcChartEx\ChartAddIn\ChartAnalysisToolAddIn\AnalysisTool\DlgAnalysisToolSet.cpp
; File C:\Program Files (x86)\Microsoft Visual Studio\2019\Community\VC\Tools\MSVC\14.29.30133\atlmfc\include\afxwin2.inl
; File D:\git\src\IBK\IBK_DRFN\ProjSrc\SrcChartEx\ChartAddIn\ChartAnalysisToolAddIn\AnalysisTool\DlgAnalysisToolSet.cpp
;	COMDAT ?SetTextPosition@CDlgAnalysisToolSet@@AAEX_N0@Z
_TEXT	SEGMENT
_bLeft$ = 8						; size = 1
_bRight$ = 12						; size = 1
$T1 = 12						; size = 4
$T2 = 12						; size = 4
?SetTextPosition@CDlgAnalysisToolSet@@AAEX_N0@Z PROC	; CDlgAnalysisToolSet::SetTextPosition, COMDAT
; _this$ = ecx

; 1066 : {

  00000	55		 push	 ebp
  00001	8b ec		 mov	 ebp, esp
  00003	53		 push	 ebx
  00004	57		 push	 edi
  00005	8b f9		 mov	 edi, ecx

; 1067 : 	if(m_nTextPosType == G_TEXT_POS_VERT && m_pTextVPosition != NULL)

  00007	8b 87 04 0d 00
	00		 mov	 eax, DWORD PTR [edi+3332]
  0000d	83 f8 02	 cmp	 eax, 2
  00010	75 64		 jne	 SHORT $LN2@SetTextPos
  00012	8b 8f 34 0d 00
	00		 mov	 ecx, DWORD PTR [edi+3380]
  00018	85 c9		 test	 ecx, ecx
  0001a	0f 84 01 01 00
	00		 je	 $LN4@SetTextPos

; 1068 : 	{
; 1069 : 		m_pTextVPosition->SetTop(bLeft);

  00020	ff 75 08	 push	 DWORD PTR _bLeft$[ebp]
  00023	e8 00 00 00 00	 call	 ?SetTop@CTextVertPosition@@QAEX_N@Z ; CTextVertPosition::SetTop

; 1070 : 		m_pTextVPosition->SetBottom(bRight);

  00028	8b 5d 0c	 mov	 ebx, DWORD PTR _bRight$[ebp]
  0002b	8b 8f 34 0d 00
	00		 mov	 ecx, DWORD PTR [edi+3380]
  00031	53		 push	 ebx
  00032	e8 00 00 00 00	 call	 ?SetBottom@CTextVertPosition@@QAEX_N@Z ; CTextVertPosition::SetBottom

; 1071 : 		m_pTextVPosition->GetTextEnvironment().SetColor(m_ctlColor.GetColor());

  00037	8d 8f 48 02 00
	00		 lea	 ecx, DWORD PTR [edi+584]
  0003d	e8 00 00 00 00	 call	 ?GetColor@CColorButton@@QBEKXZ ; CColorButton::GetColor
  00042	8b 8f 34 0d 00
	00		 mov	 ecx, DWORD PTR [edi+3380]
  00048	89 45 0c	 mov	 DWORD PTR $T2[ebp], eax
  0004b	8d 45 0c	 lea	 eax, DWORD PTR $T2[ebp]
  0004e	50		 push	 eax
  0004f	e8 00 00 00 00	 call	 ?GetTextEnvironment@CTextPosition@@QAEAAVCTextEnvironment@@XZ ; CTextPosition::GetTextEnvironment
  00054	8b c8		 mov	 ecx, eax
  00056	e8 00 00 00 00	 call	 ?SetColor@CTextEnvironment@@QAEXABK@Z ; CTextEnvironment::SetColor

; 1072 : 
; 1073 : 		m_stAnalysisTool.nTopText = (int)bLeft;

  0005b	8b 4d 08	 mov	 ecx, DWORD PTR _bLeft$[ebp]
  0005e	0f b6 c1	 movzx	 eax, cl
  00061	89 87 ac 0c 00
	00		 mov	 DWORD PTR [edi+3244], eax

; 1074 : 		m_stAnalysisTool.nBottomText = (int)bRight;

  00067	0f b6 c3	 movzx	 eax, bl
  0006a	89 87 b0 0c 00
	00		 mov	 DWORD PTR [edi+3248], eax
  00070	5f		 pop	 edi

; 1086 : 	}	
; 1087 : }

  00071	5b		 pop	 ebx
  00072	5d		 pop	 ebp
  00073	c2 08 00	 ret	 8
$LN2@SetTextPos:

; 1075 : 	}
; 1076 : 	else if(m_nTextPosType == G_TEXT_POS_HORZ && m_pTextHPosition != NULL)

  00076	83 f8 01	 cmp	 eax, 1
  00079	0f 85 a2 00 00
	00		 jne	 $LN4@SetTextPos
  0007f	8b 8f 30 0d 00
	00		 mov	 ecx, DWORD PTR [edi+3376]
  00085	85 c9		 test	 ecx, ecx
  00087	0f 84 94 00 00
	00		 je	 $LN4@SetTextPos

; 1077 : 	{
; 1078 : 		m_pTextHPosition->SetLeft(bLeft);

  0008d	ff 75 08	 push	 DWORD PTR _bLeft$[ebp]
  00090	e8 00 00 00 00	 call	 ?SetLeft@CTextHorzPosition@@QAEX_N@Z ; CTextHorzPosition::SetLeft

; 1079 : 		m_pTextHPosition->SetRight(bRight);

  00095	8b 5d 0c	 mov	 ebx, DWORD PTR _bRight$[ebp]
  00098	8b 8f 30 0d 00
	00		 mov	 ecx, DWORD PTR [edi+3376]
  0009e	53		 push	 ebx
  0009f	e8 00 00 00 00	 call	 ?SetRight@CTextHorzPosition@@QAEX_N@Z ; CTextHorzPosition::SetRight
; File C:\Program Files (x86)\Microsoft Visual Studio\2019\Community\VC\Tools\MSVC\14.29.30133\atlmfc\include\afxwin2.inl

; 628  : 	{ ASSERT(::IsWindow(m_hWnd)); return (int)::SendMessage(m_hWnd, BM_GETCHECK, 0, 0); }

  000a4	6a 00		 push	 0
  000a6	6a 00		 push	 0
  000a8	68 f0 00 00 00	 push	 240			; 000000f0H
  000ad	ff b7 f0 03 00
	00		 push	 DWORD PTR [edi+1008]
  000b3	ff 15 00 00 00
	00		 call	 DWORD PTR __imp__SendMessageA@16
; File D:\git\src\IBK\IBK_DRFN\ProjSrc\SrcChartEx\ChartAddIn\ChartAnalysisToolAddIn\AnalysisTool\DlgAnalysisToolSet.cpp

; 1080 : 		m_pTextHPosition->SetRightRate(m_ctrlRateText.GetCheck());

  000b9	8b 8f 30 0d 00
	00		 mov	 ecx, DWORD PTR [edi+3376]
  000bf	85 c0		 test	 eax, eax
  000c1	0f 95 c0	 setne	 al
  000c4	0f b6 c0	 movzx	 eax, al
  000c7	50		 push	 eax
  000c8	e8 00 00 00 00	 call	 ?SetRightRate@CTextHorzPosition@@QAEX_N@Z ; CTextHorzPosition::SetRightRate

; 1081 : 		m_pTextHPosition->GetTextEnvironment().SetColor(m_ctlColor.GetColor());

  000cd	8d 8f 48 02 00
	00		 lea	 ecx, DWORD PTR [edi+584]
  000d3	e8 00 00 00 00	 call	 ?GetColor@CColorButton@@QBEKXZ ; CColorButton::GetColor
  000d8	8b 8f 30 0d 00
	00		 mov	 ecx, DWORD PTR [edi+3376]
  000de	89 45 0c	 mov	 DWORD PTR $T1[ebp], eax
  000e1	8d 45 0c	 lea	 eax, DWORD PTR $T1[ebp]
  000e4	50		 push	 eax
  000e5	e8 00 00 00 00	 call	 ?GetTextEnvironment@CTextPosition@@QAEAAVCTextEnvironment@@XZ ; CTextPosition::GetTextEnvironment
  000ea	8b c8		 mov	 ecx, eax
  000ec	e8 00 00 00 00	 call	 ?SetColor@CTextEnvironment@@QAEXABK@Z ; CTextEnvironment::SetColor

; 1083 : 		m_stAnalysisTool.nLeftText = (int)bLeft;

  000f1	8b 4d 08	 mov	 ecx, DWORD PTR _bLeft$[ebp]
; File C:\Program Files (x86)\Microsoft Visual Studio\2019\Community\VC\Tools\MSVC\14.29.30133\atlmfc\include\afxwin2.inl

; 628  : 	{ ASSERT(::IsWindow(m_hWnd)); return (int)::SendMessage(m_hWnd, BM_GETCHECK, 0, 0); }

  000f4	6a 00		 push	 0
  000f6	6a 00		 push	 0
; File D:\git\src\IBK\IBK_DRFN\ProjSrc\SrcChartEx\ChartAddIn\ChartAnalysisToolAddIn\AnalysisTool\DlgAnalysisToolSet.cpp

; 1083 : 		m_stAnalysisTool.nLeftText = (int)bLeft;

  000f8	0f b6 c1	 movzx	 eax, cl
; File C:\Program Files (x86)\Microsoft Visual Studio\2019\Community\VC\Tools\MSVC\14.29.30133\atlmfc\include\afxwin2.inl

; 628  : 	{ ASSERT(::IsWindow(m_hWnd)); return (int)::SendMessage(m_hWnd, BM_GETCHECK, 0, 0); }

  000fb	68 f0 00 00 00	 push	 240			; 000000f0H
  00100	ff b7 f0 03 00
	00		 push	 DWORD PTR [edi+1008]
; File D:\git\src\IBK\IBK_DRFN\ProjSrc\SrcChartEx\ChartAddIn\ChartAnalysisToolAddIn\AnalysisTool\DlgAnalysisToolSet.cpp

; 1083 : 		m_stAnalysisTool.nLeftText = (int)bLeft;

  00106	89 87 a0 0c 00
	00		 mov	 DWORD PTR [edi+3232], eax

; 1084 : 		m_stAnalysisTool.nRightText = (int)bRight;	

  0010c	0f b6 c3	 movzx	 eax, bl
  0010f	89 87 a4 0c 00
	00		 mov	 DWORD PTR [edi+3236], eax
; File C:\Program Files (x86)\Microsoft Visual Studio\2019\Community\VC\Tools\MSVC\14.29.30133\atlmfc\include\afxwin2.inl

; 628  : 	{ ASSERT(::IsWindow(m_hWnd)); return (int)::SendMessage(m_hWnd, BM_GETCHECK, 0, 0); }

  00115	ff 15 00 00 00
	00		 call	 DWORD PTR __imp__SendMessageA@16
; File D:\git\src\IBK\IBK_DRFN\ProjSrc\SrcChartEx\ChartAddIn\ChartAnalysisToolAddIn\AnalysisTool\DlgAnalysisToolSet.cpp

; 1085 : 		m_stAnalysisTool.nRateText = (int)m_ctrlRateText.GetCheck();

  0011b	89 87 a8 0c 00
	00		 mov	 DWORD PTR [edi+3240], eax
$LN4@SetTextPos:

; 1086 : 	}	
; 1087 : }

  00121	5f		 pop	 edi
  00122	5b		 pop	 ebx
  00123	5d		 pop	 ebp
  00124	c2 08 00	 ret	 8
?SetTextPosition@CDlgAnalysisToolSet@@AAEX_N0@Z ENDP	; CDlgAnalysisToolSet::SetTextPosition
_TEXT	ENDS
; Function compile flags: /Ogtp
; File D:\git\src\IBK\IBK_DRFN\ProjSrc\SrcChartEx\ChartAddIn\ChartAnalysisToolAddIn\AnalysisTool\DlgAnalysisToolSet.cpp
;	COMDAT ?SetTextPosition@CDlgAnalysisToolSet@@AAEX_N@Z
_TEXT	SEGMENT
$T1 = -4						; size = 4
_bShow$ = 8						; size = 1
?SetTextPosition@CDlgAnalysisToolSet@@AAEX_N@Z PROC	; CDlgAnalysisToolSet::SetTextPosition, COMDAT
; _this$ = ecx

; 1060 : {

  00000	55		 push	 ebp
  00001	8b ec		 mov	 ebp, esp
  00003	51		 push	 ecx
  00004	56		 push	 esi
  00005	8b f1		 mov	 esi, ecx

; 1061 : 	m_pTextPosition->GetTextEnvironment().SetColor(m_ctlColor.GetColor());

  00007	8d 8e 48 02 00
	00		 lea	 ecx, DWORD PTR [esi+584]
  0000d	e8 00 00 00 00	 call	 ?GetColor@CColorButton@@QBEKXZ ; CColorButton::GetColor
  00012	8b 8e 2c 0d 00
	00		 mov	 ecx, DWORD PTR [esi+3372]
  00018	89 45 fc	 mov	 DWORD PTR $T1[ebp], eax
  0001b	8d 45 fc	 lea	 eax, DWORD PTR $T1[ebp]
  0001e	50		 push	 eax
  0001f	e8 00 00 00 00	 call	 ?GetTextEnvironment@CTextPosition@@QAEAAVCTextEnvironment@@XZ ; CTextPosition::GetTextEnvironment
  00024	8b c8		 mov	 ecx, eax
  00026	e8 00 00 00 00	 call	 ?SetColor@CTextEnvironment@@QAEXABK@Z ; CTextEnvironment::SetColor

; 1062 : 	m_pTextPosition->SetShow(bShow);

  0002b	ff 75 08	 push	 DWORD PTR _bShow$[ebp]
  0002e	8b 8e 2c 0d 00
	00		 mov	 ecx, DWORD PTR [esi+3372]
  00034	e8 00 00 00 00	 call	 ?SetShow@CTextShowPosition@@QAEX_N@Z ; CTextShowPosition::SetShow
  00039	5e		 pop	 esi

; 1063 : }

  0003a	8b e5		 mov	 esp, ebp
  0003c	5d		 pop	 ebp
  0003d	c2 04 00	 ret	 4
?SetTextPosition@CDlgAnalysisToolSet@@AAEX_N@Z ENDP	; CDlgAnalysisToolSet::SetTextPosition
_TEXT	ENDS
; Function compile flags: /Ogtp
; File D:\git\src\IBK\IBK_DRFN\ProjSrc\SrcChartEx\ChartAddIn\ChartAnalysisToolAddIn\AnalysisTool\DlgAnalysisToolSet.cpp
; File C:\Program Files (x86)\Microsoft Visual Studio\2019\Community\VC\Tools\MSVC\14.29.30133\atlmfc\include\afxwin2.inl
; File D:\git\src\IBK\IBK_DRFN\ProjSrc\SrcChartEx\ChartAddIn\ChartAnalysisToolAddIn\AnalysisTool\DlgAnalysisToolSet.cpp
; File C:\Program Files (x86)\Microsoft Visual Studio\2019\Community\VC\Tools\MSVC\14.29.30133\atlmfc\include\afxwin2.inl
; File D:\git\src\IBK\IBK_DRFN\ProjSrc\SrcChartEx\ChartAddIn\ChartAnalysisToolAddIn\AnalysisTool\DlgAnalysisToolSet.cpp
; File C:\Program Files (x86)\Microsoft Visual Studio\2019\Community\VC\Tools\MSVC\14.29.30133\atlmfc\include\afxwin2.inl
; File D:\git\src\IBK\IBK_DRFN\ProjSrc\SrcChartEx\ChartAddIn\ChartAnalysisToolAddIn\AnalysisTool\DlgAnalysisToolSet.cpp
; File C:\Program Files (x86)\Microsoft Visual Studio\2019\Community\VC\Tools\MSVC\14.29.30133\atlmfc\include\afxwin2.inl
; File D:\git\src\IBK\IBK_DRFN\ProjSrc\SrcChartEx\ChartAddIn\ChartAnalysisToolAddIn\AnalysisTool\DlgAnalysisToolSet.cpp
; File C:\Program Files (x86)\Microsoft Visual Studio\2019\Community\VC\Tools\MSVC\14.29.30133\atlmfc\include\afxwin2.inl
; File D:\git\src\IBK\IBK_DRFN\ProjSrc\SrcChartEx\ChartAddIn\ChartAnalysisToolAddIn\AnalysisTool\DlgAnalysisToolSet.cpp
; File C:\Program Files (x86)\Microsoft Visual Studio\2019\Community\VC\Tools\MSVC\14.29.30133\atlmfc\include\afxwin2.inl
; File D:\git\src\IBK\IBK_DRFN\ProjSrc\SrcChartEx\ChartAddIn\ChartAnalysisToolAddIn\AnalysisTool\DlgAnalysisToolSet.cpp
; File C:\Program Files (x86)\Microsoft Visual Studio\2019\Community\VC\Tools\MSVC\14.29.30133\atlmfc\include\afxwin2.inl
; File D:\git\src\IBK\IBK_DRFN\ProjSrc\SrcChartEx\ChartAddIn\ChartAnalysisToolAddIn\AnalysisTool\DlgAnalysisToolSet.cpp
; File C:\Program Files (x86)\Microsoft Visual Studio\2019\Community\VC\Tools\MSVC\14.29.30133\atlmfc\include\afxwin2.inl
; File D:\git\src\IBK\IBK_DRFN\ProjSrc\SrcChartEx\ChartAddIn\ChartAnalysisToolAddIn\AnalysisTool\DlgAnalysisToolSet.cpp
; File C:\Program Files (x86)\Microsoft Visual Studio\2019\Community\VC\Tools\MSVC\14.29.30133\atlmfc\include\afxwin2.inl
; File D:\git\src\IBK\IBK_DRFN\ProjSrc\SrcChartEx\ChartAddIn\ChartAnalysisToolAddIn\AnalysisTool\DlgAnalysisToolSet.cpp
; File C:\Program Files (x86)\Microsoft Visual Studio\2019\Community\VC\Tools\MSVC\14.29.30133\atlmfc\include\afxwin2.inl
; File D:\git\src\IBK\IBK_DRFN\ProjSrc\SrcChartEx\ChartAddIn\ChartAnalysisToolAddIn\AnalysisTool\DlgAnalysisToolSet.cpp
; File C:\Program Files (x86)\Microsoft Visual Studio\2019\Community\VC\Tools\MSVC\14.29.30133\atlmfc\include\afxwin2.inl
; File D:\git\src\IBK\IBK_DRFN\ProjSrc\SrcChartEx\ChartAddIn\ChartAnalysisToolAddIn\AnalysisTool\DlgAnalysisToolSet.cpp
; File C:\Program Files (x86)\Microsoft Visual Studio\2019\Community\VC\Tools\MSVC\14.29.30133\atlmfc\include\afxwin2.inl
; File D:\git\src\IBK\IBK_DRFN\ProjSrc\SrcChartEx\ChartAddIn\ChartAnalysisToolAddIn\AnalysisTool\DlgAnalysisToolSet.cpp
; File C:\Program Files (x86)\Microsoft Visual Studio\2019\Community\VC\Tools\MSVC\14.29.30133\atlmfc\include\afxwin2.inl
; File D:\git\src\IBK\IBK_DRFN\ProjSrc\SrcChartEx\ChartAddIn\ChartAnalysisToolAddIn\AnalysisTool\DlgAnalysisToolSet.cpp
;	COMDAT ?SetTextPosition@CDlgAnalysisToolSet@@AAEXXZ
_TEXT	SEGMENT
_bShow$ = -8						; size = 1
_this$1$ = -4						; size = 4
$T1 = -4						; size = 4
?SetTextPosition@CDlgAnalysisToolSet@@AAEXXZ PROC	; CDlgAnalysisToolSet::SetTextPosition, COMDAT
; _this$ = ecx

; 1019 : {

  00000	55		 push	 ebp
  00001	8b ec		 mov	 ebp, esp
  00003	83 ec 08	 sub	 esp, 8

; 1020 : 	m_stAnalysisTool.dEndXPos = G_NOTAVAILABLE;

  00006	0f 28 05 00 00
	00 00		 movaps	 xmm0, XMMWORD PTR __xmm@00100000000000000010000000000000
  0000d	53		 push	 ebx
  0000e	8b d9		 mov	 ebx, ecx
  00010	56		 push	 esi
  00011	89 5d fc	 mov	 DWORD PTR _this$1$[ebp], ebx

; 1021 : 	m_stAnalysisTool.dEndYValue = G_NOTAVAILABLE;
; 1022 : 	m_stAnalysisTool.dStartXPos = G_NOTAVAILABLE;
; 1023 : 	m_stAnalysisTool.dStartYValue = G_NOTAVAILABLE;
; 1024 : 	m_stAnalysisTool.dThirdXPos = G_NOTAVAILABLE;
; 1025 : 	m_stAnalysisTool.dThirdYValue = G_NOTAVAILABLE;
; 1026 : 	m_stAnalysisTool.nEquiDiv = -1;
; 1027 : 	m_stAnalysisTool.nPriceRangeDiv = -1;	// (2008/8/15 - Seung-Won, Bae) Add option for using price range.
; 1028 : 	m_stAnalysisTool.nHLPercent = -1;
; 1029 : 	m_stAnalysisTool.nFillRegion = -1;	
; 1030 : 
; 1031 : 	if(m_nTextPosType == G_TEXT_POS_HV)

  00014	8b 83 04 0d 00
	00		 mov	 eax, DWORD PTR [ebx+3332]
  0001a	f2 0f 11 83 78
	0c 00 00	 movsd	 QWORD PTR [ebx+3192], xmm0
  00022	f2 0f 11 83 90
	0c 00 00	 movsd	 QWORD PTR [ebx+3216], xmm0
  0002a	f2 0f 11 83 70
	0c 00 00	 movsd	 QWORD PTR [ebx+3184], xmm0
  00032	f2 0f 11 83 98
	0c 00 00	 movsd	 QWORD PTR [ebx+3224], xmm0
  0003a	c7 83 bc 0c 00
	00 ff ff ff ff	 mov	 DWORD PTR [ebx+3260], -1
  00044	c7 83 c0 0c 00
	00 ff ff ff ff	 mov	 DWORD PTR [ebx+3264], -1
  0004e	c7 83 c4 0c 00
	00 ff ff ff ff	 mov	 DWORD PTR [ebx+3268], -1
  00058	c7 83 c8 0c 00
	00 ff ff ff ff	 mov	 DWORD PTR [ebx+3272], -1
  00062	0f 11 83 80 0c
	00 00		 movups	 XMMWORD PTR [ebx+3200], xmm0
  00069	83 f8 03	 cmp	 eax, 3
  0006c	0f 85 fd 00 00
	00		 jne	 $LN2@SetTextPos
; File C:\Program Files (x86)\Microsoft Visual Studio\2019\Community\VC\Tools\MSVC\14.29.30133\atlmfc\include\afxwin2.inl

; 628  : 	{ ASSERT(::IsWindow(m_hWnd)); return (int)::SendMessage(m_hWnd, BM_GETCHECK, 0, 0); }

  00072	57		 push	 edi
  00073	6a 00		 push	 0
  00075	6a 00		 push	 0
  00077	68 f0 00 00 00	 push	 240			; 000000f0H
  0007c	ff b3 f0 04 00
	00		 push	 DWORD PTR [ebx+1264]
  00082	8b 1d 00 00 00
	00		 mov	 ebx, DWORD PTR __imp__SendMessageA@16
  00088	ff d3		 call	 ebx
  0008a	6a 00		 push	 0
  0008c	8b f8		 mov	 edi, eax
  0008e	8b 45 fc	 mov	 eax, DWORD PTR _this$1$[ebp]
  00091	6a 00		 push	 0
  00093	68 f0 00 00 00	 push	 240			; 000000f0H
  00098	ff b0 70 04 00
	00		 push	 DWORD PTR [eax+1136]
  0009e	ff d3		 call	 ebx
  000a0	6a 00		 push	 0
  000a2	8b f0		 mov	 esi, eax
  000a4	8b 45 fc	 mov	 eax, DWORD PTR _this$1$[ebp]
  000a7	6a 00		 push	 0
  000a9	68 f0 00 00 00	 push	 240			; 000000f0H
  000ae	ff b0 70 03 00
	00		 push	 DWORD PTR [eax+880]
  000b4	ff d3		 call	 ebx
; File D:\git\src\IBK\IBK_DRFN\ProjSrc\SrcChartEx\ChartAddIn\ChartAnalysisToolAddIn\AnalysisTool\DlgAnalysisToolSet.cpp

; 1033 : 		SetTextPosition( ( m_ctrlLeftText.GetCheck() ? true : false),

  000b6	85 ff		 test	 edi, edi
  000b8	0f 95 c1	 setne	 cl
  000bb	85 f6		 test	 esi, esi
; File C:\Program Files (x86)\Microsoft Visual Studio\2019\Community\VC\Tools\MSVC\14.29.30133\atlmfc\include\afxwin2.inl

; 628  : 	{ ASSERT(::IsWindow(m_hWnd)); return (int)::SendMessage(m_hWnd, BM_GETCHECK, 0, 0); }

  000bd	8b 75 fc	 mov	 esi, DWORD PTR _this$1$[ebp]
; File D:\git\src\IBK\IBK_DRFN\ProjSrc\SrcChartEx\ChartAddIn\ChartAnalysisToolAddIn\AnalysisTool\DlgAnalysisToolSet.cpp

; 1033 : 		SetTextPosition( ( m_ctrlLeftText.GetCheck() ? true : false),

  000c0	0f b6 c9	 movzx	 ecx, cl
  000c3	51		 push	 ecx
  000c4	0f 95 c1	 setne	 cl
  000c7	85 c0		 test	 eax, eax
  000c9	0f b6 c9	 movzx	 ecx, cl
  000cc	51		 push	 ecx
  000cd	0f 95 c0	 setne	 al
  000d0	0f b6 c0	 movzx	 eax, al
  000d3	50		 push	 eax
; File C:\Program Files (x86)\Microsoft Visual Studio\2019\Community\VC\Tools\MSVC\14.29.30133\atlmfc\include\afxwin2.inl

; 628  : 	{ ASSERT(::IsWindow(m_hWnd)); return (int)::SendMessage(m_hWnd, BM_GETCHECK, 0, 0); }

  000d4	6a 00		 push	 0
  000d6	6a 00		 push	 0
  000d8	68 f0 00 00 00	 push	 240			; 000000f0H
  000dd	ff b6 f0 02 00
	00		 push	 DWORD PTR [esi+752]
  000e3	ff d3		 call	 ebx
; File D:\git\src\IBK\IBK_DRFN\ProjSrc\SrcChartEx\ChartAddIn\ChartAnalysisToolAddIn\AnalysisTool\DlgAnalysisToolSet.cpp

; 1033 : 		SetTextPosition( ( m_ctrlLeftText.GetCheck() ? true : false),

  000e5	85 c0		 test	 eax, eax
  000e7	8b ce		 mov	 ecx, esi
  000e9	0f 95 c0	 setne	 al
  000ec	0f b6 c0	 movzx	 eax, al
  000ef	50		 push	 eax
  000f0	e8 00 00 00 00	 call	 ?SetTextPosition@CDlgAnalysisToolSet@@AAEX_N000@Z ; CDlgAnalysisToolSet::SetTextPosition
; File C:\Program Files (x86)\Microsoft Visual Studio\2019\Community\VC\Tools\MSVC\14.29.30133\atlmfc\include\afxwin2.inl

; 628  : 	{ ASSERT(::IsWindow(m_hWnd)); return (int)::SendMessage(m_hWnd, BM_GETCHECK, 0, 0); }

  000f5	6a 00		 push	 0
  000f7	6a 00		 push	 0
  000f9	68 f0 00 00 00	 push	 240			; 000000f0H
  000fe	ff b6 70 04 00
	00		 push	 DWORD PTR [esi+1136]
  00104	ff d3		 call	 ebx
  00106	6a 00		 push	 0
  00108	6a 00		 push	 0
  0010a	68 f0 00 00 00	 push	 240			; 000000f0H
  0010f	ff b6 f0 04 00
	00		 push	 DWORD PTR [esi+1264]
; File D:\git\src\IBK\IBK_DRFN\ProjSrc\SrcChartEx\ChartAddIn\ChartAnalysisToolAddIn\AnalysisTool\DlgAnalysisToolSet.cpp

; 1038 : 		m_stAnalysisTool.nTopText = (int)m_ctrlTopText.GetCheck();

  00115	89 86 ac 0c 00
	00		 mov	 DWORD PTR [esi+3244], eax
; File C:\Program Files (x86)\Microsoft Visual Studio\2019\Community\VC\Tools\MSVC\14.29.30133\atlmfc\include\afxwin2.inl

; 628  : 	{ ASSERT(::IsWindow(m_hWnd)); return (int)::SendMessage(m_hWnd, BM_GETCHECK, 0, 0); }

  0011b	ff d3		 call	 ebx
  0011d	6a 00		 push	 0
  0011f	6a 00		 push	 0
  00121	68 f0 00 00 00	 push	 240			; 000000f0H
  00126	ff b6 f0 02 00
	00		 push	 DWORD PTR [esi+752]
; File D:\git\src\IBK\IBK_DRFN\ProjSrc\SrcChartEx\ChartAddIn\ChartAnalysisToolAddIn\AnalysisTool\DlgAnalysisToolSet.cpp

; 1039 : 		m_stAnalysisTool.nBottomText = (int)m_ctrlBottomText.GetCheck();

  0012c	89 86 b0 0c 00
	00		 mov	 DWORD PTR [esi+3248], eax
; File C:\Program Files (x86)\Microsoft Visual Studio\2019\Community\VC\Tools\MSVC\14.29.30133\atlmfc\include\afxwin2.inl

; 628  : 	{ ASSERT(::IsWindow(m_hWnd)); return (int)::SendMessage(m_hWnd, BM_GETCHECK, 0, 0); }

  00132	ff d3		 call	 ebx
  00134	6a 00		 push	 0
  00136	6a 00		 push	 0
  00138	68 f0 00 00 00	 push	 240			; 000000f0H
  0013d	ff b6 70 03 00
	00		 push	 DWORD PTR [esi+880]
; File D:\git\src\IBK\IBK_DRFN\ProjSrc\SrcChartEx\ChartAddIn\ChartAnalysisToolAddIn\AnalysisTool\DlgAnalysisToolSet.cpp

; 1040 : 		m_stAnalysisTool.nLeftText = (int)m_ctrlLeftText.GetCheck();

  00143	89 86 a0 0c 00
	00		 mov	 DWORD PTR [esi+3232], eax
; File C:\Program Files (x86)\Microsoft Visual Studio\2019\Community\VC\Tools\MSVC\14.29.30133\atlmfc\include\afxwin2.inl

; 628  : 	{ ASSERT(::IsWindow(m_hWnd)); return (int)::SendMessage(m_hWnd, BM_GETCHECK, 0, 0); }

  00149	ff d3		 call	 ebx
  0014b	6a 00		 push	 0
  0014d	6a 00		 push	 0
  0014f	68 f0 00 00 00	 push	 240			; 000000f0H
  00154	ff b6 f0 03 00
	00		 push	 DWORD PTR [esi+1008]
; File D:\git\src\IBK\IBK_DRFN\ProjSrc\SrcChartEx\ChartAddIn\ChartAnalysisToolAddIn\AnalysisTool\DlgAnalysisToolSet.cpp

; 1041 : 		m_stAnalysisTool.nRightText = (int)m_ctrlRightText.GetCheck();	

  0015a	89 86 a4 0c 00
	00		 mov	 DWORD PTR [esi+3236], eax
; File C:\Program Files (x86)\Microsoft Visual Studio\2019\Community\VC\Tools\MSVC\14.29.30133\atlmfc\include\afxwin2.inl

; 628  : 	{ ASSERT(::IsWindow(m_hWnd)); return (int)::SendMessage(m_hWnd, BM_GETCHECK, 0, 0); }

  00160	ff d3		 call	 ebx
; File D:\git\src\IBK\IBK_DRFN\ProjSrc\SrcChartEx\ChartAddIn\ChartAnalysisToolAddIn\AnalysisTool\DlgAnalysisToolSet.cpp

; 1042 : 		m_stAnalysisTool.nRateText = (int)m_ctrlRateText.GetCheck();

  00162	5f		 pop	 edi
  00163	89 86 a8 0c 00
	00		 mov	 DWORD PTR [esi+3240], eax
  00169	5e		 pop	 esi

; 1056 : 	}	
; 1057 : }

  0016a	5b		 pop	 ebx
  0016b	8b e5		 mov	 esp, ebp
  0016d	5d		 pop	 ebp
  0016e	c3		 ret	 0
$LN2@SetTextPos:

; 1043 : 	}
; 1044 : 	else if(m_nTextPosType == G_TEXT_POS_ONE)

  0016f	8b 35 00 00 00
	00		 mov	 esi, DWORD PTR __imp__SendMessageA@16
  00175	6a 00		 push	 0
  00177	6a 00		 push	 0
  00179	68 f0 00 00 00	 push	 240			; 000000f0H
  0017e	85 c0		 test	 eax, eax
  00180	75 5d		 jne	 SHORT $LN4@SetTextPos
; File C:\Program Files (x86)\Microsoft Visual Studio\2019\Community\VC\Tools\MSVC\14.29.30133\atlmfc\include\afxwin2.inl

; 628  : 	{ ASSERT(::IsWindow(m_hWnd)); return (int)::SendMessage(m_hWnd, BM_GETCHECK, 0, 0); }

  00182	ff b3 f0 02 00
	00		 push	 DWORD PTR [ebx+752]
  00188	ff d6		 call	 esi
; File D:\git\src\IBK\IBK_DRFN\ProjSrc\SrcChartEx\ChartAddIn\ChartAnalysisToolAddIn\AnalysisTool\DlgAnalysisToolSet.cpp

; 1046 : 		SetTextPosition( m_ctrlLeftText.GetCheck() ? true : false);

  0018a	85 c0		 test	 eax, eax

; 1061 : 	m_pTextPosition->GetTextEnvironment().SetColor(m_ctlColor.GetColor());

  0018c	8d 8b 48 02 00
	00		 lea	 ecx, DWORD PTR [ebx+584]

; 1046 : 		SetTextPosition( m_ctrlLeftText.GetCheck() ? true : false);

  00192	0f 95 45 f8	 setne	 BYTE PTR _bShow$[ebp]

; 1061 : 	m_pTextPosition->GetTextEnvironment().SetColor(m_ctlColor.GetColor());

  00196	e8 00 00 00 00	 call	 ?GetColor@CColorButton@@QBEKXZ ; CColorButton::GetColor
  0019b	8b 8b 2c 0d 00
	00		 mov	 ecx, DWORD PTR [ebx+3372]
  001a1	89 45 fc	 mov	 DWORD PTR $T1[ebp], eax
  001a4	8d 45 fc	 lea	 eax, DWORD PTR $T1[ebp]
  001a7	50		 push	 eax
  001a8	e8 00 00 00 00	 call	 ?GetTextEnvironment@CTextPosition@@QAEAAVCTextEnvironment@@XZ ; CTextPosition::GetTextEnvironment
  001ad	8b c8		 mov	 ecx, eax
  001af	e8 00 00 00 00	 call	 ?SetColor@CTextEnvironment@@QAEXABK@Z ; CTextEnvironment::SetColor

; 1062 : 	m_pTextPosition->SetShow(bShow);

  001b4	ff 75 f8	 push	 DWORD PTR _bShow$[ebp]
  001b7	8b 8b 2c 0d 00
	00		 mov	 ecx, DWORD PTR [ebx+3372]
  001bd	e8 00 00 00 00	 call	 ?SetShow@CTextShowPosition@@QAEX_N@Z ; CTextShowPosition::SetShow
; File C:\Program Files (x86)\Microsoft Visual Studio\2019\Community\VC\Tools\MSVC\14.29.30133\atlmfc\include\afxwin2.inl

; 628  : 	{ ASSERT(::IsWindow(m_hWnd)); return (int)::SendMessage(m_hWnd, BM_GETCHECK, 0, 0); }

  001c2	6a 00		 push	 0
  001c4	6a 00		 push	 0
  001c6	68 f0 00 00 00	 push	 240			; 000000f0H
  001cb	ff b3 f0 02 00
	00		 push	 DWORD PTR [ebx+752]
  001d1	ff d6		 call	 esi
  001d3	5e		 pop	 esi
; File D:\git\src\IBK\IBK_DRFN\ProjSrc\SrcChartEx\ChartAddIn\ChartAnalysisToolAddIn\AnalysisTool\DlgAnalysisToolSet.cpp

; 1048 : 		m_stAnalysisTool.nLeftText = (int)m_ctrlLeftText.GetCheck();

  001d4	89 83 a0 0c 00
	00		 mov	 DWORD PTR [ebx+3232], eax

; 1056 : 	}	
; 1057 : }

  001da	5b		 pop	 ebx
  001db	8b e5		 mov	 esp, ebp
  001dd	5d		 pop	 ebp
  001de	c3		 ret	 0
$LN4@SetTextPos:
; File C:\Program Files (x86)\Microsoft Visual Studio\2019\Community\VC\Tools\MSVC\14.29.30133\atlmfc\include\afxwin2.inl

; 628  : 	{ ASSERT(::IsWindow(m_hWnd)); return (int)::SendMessage(m_hWnd, BM_GETCHECK, 0, 0); }

  001df	ff b3 70 03 00
	00		 push	 DWORD PTR [ebx+880]
  001e5	ff d6		 call	 esi
; File D:\git\src\IBK\IBK_DRFN\ProjSrc\SrcChartEx\ChartAddIn\ChartAnalysisToolAddIn\AnalysisTool\DlgAnalysisToolSet.cpp

; 1052 : 		SetTextPosition( ( m_ctrlLeftText.GetCheck() ? true : false),

  001e7	85 c0		 test	 eax, eax
  001e9	0f 95 c0	 setne	 al
  001ec	0f b6 c0	 movzx	 eax, al
  001ef	50		 push	 eax
; File C:\Program Files (x86)\Microsoft Visual Studio\2019\Community\VC\Tools\MSVC\14.29.30133\atlmfc\include\afxwin2.inl

; 628  : 	{ ASSERT(::IsWindow(m_hWnd)); return (int)::SendMessage(m_hWnd, BM_GETCHECK, 0, 0); }

  001f0	6a 00		 push	 0
  001f2	6a 00		 push	 0
  001f4	68 f0 00 00 00	 push	 240			; 000000f0H
  001f9	ff b3 f0 02 00
	00		 push	 DWORD PTR [ebx+752]
  001ff	ff d6		 call	 esi
; File D:\git\src\IBK\IBK_DRFN\ProjSrc\SrcChartEx\ChartAddIn\ChartAnalysisToolAddIn\AnalysisTool\DlgAnalysisToolSet.cpp

; 1052 : 		SetTextPosition( ( m_ctrlLeftText.GetCheck() ? true : false),

  00201	85 c0		 test	 eax, eax
  00203	8b cb		 mov	 ecx, ebx
  00205	0f 95 c0	 setne	 al
  00208	0f b6 c0	 movzx	 eax, al
  0020b	50		 push	 eax
  0020c	e8 00 00 00 00	 call	 ?SetTextPosition@CDlgAnalysisToolSet@@AAEX_N0@Z ; CDlgAnalysisToolSet::SetTextPosition
; File C:\Program Files (x86)\Microsoft Visual Studio\2019\Community\VC\Tools\MSVC\14.29.30133\atlmfc\include\afxwin2.inl

; 628  : 	{ ASSERT(::IsWindow(m_hWnd)); return (int)::SendMessage(m_hWnd, BM_GETCHECK, 0, 0); }

  00211	6a 00		 push	 0
  00213	6a 00		 push	 0
  00215	68 f0 00 00 00	 push	 240			; 000000f0H
  0021a	ff b3 f0 03 00
	00		 push	 DWORD PTR [ebx+1008]
  00220	ff d6		 call	 esi
; File D:\git\src\IBK\IBK_DRFN\ProjSrc\SrcChartEx\ChartAddIn\ChartAnalysisToolAddIn\AnalysisTool\DlgAnalysisToolSet.cpp

; 1055 : 		m_stAnalysisTool.nRateText = (int)m_ctrlRateText.GetCheck() ? true : false;

  00222	f7 d8		 neg	 eax
  00224	5e		 pop	 esi
  00225	1b c0		 sbb	 eax, eax
  00227	f7 d8		 neg	 eax
  00229	89 83 a8 0c 00
	00		 mov	 DWORD PTR [ebx+3240], eax

; 1056 : 	}	
; 1057 : }

  0022f	5b		 pop	 ebx
  00230	8b e5		 mov	 esp, ebp
  00232	5d		 pop	 ebp
  00233	c3		 ret	 0
?SetTextPosition@CDlgAnalysisToolSet@@AAEXXZ ENDP	; CDlgAnalysisToolSet::SetTextPosition
_TEXT	ENDS
; Function compile flags: /Ogtp
; File D:\git\src\IBK\IBK_DRFN\ProjSrc\SrcChartEx\ChartAddIn\ChartAnalysisToolAddIn\AnalysisTool\DlgAnalysisToolSet.cpp
; File C:\Program Files (x86)\Microsoft Visual Studio\2019\Community\VC\Tools\MSVC\14.29.30133\atlmfc\include\afxwin2.inl
; File D:\git\src\IBK\IBK_DRFN\ProjSrc\SrcChartEx\ChartAddIn\ChartAnalysisToolAddIn\AnalysisTool\DlgAnalysisToolSet.cpp
;	COMDAT ?SetColor@CDlgAnalysisToolSet@@AAEXABK@Z
_TEXT	SEGMENT
_color$ = 8						; size = 4
?SetColor@CDlgAnalysisToolSet@@AAEXABK@Z PROC		; CDlgAnalysisToolSet::SetColor, COMDAT
; _this$ = ecx

; 1013 : {

  00000	55		 push	 ebp
  00001	8b ec		 mov	 ebp, esp
  00003	56		 push	 esi

; 1014 : 	m_ctlColor.SetColor(color);

  00004	ff 75 08	 push	 DWORD PTR _color$[ebp]
  00007	8b f1		 mov	 esi, ecx
  00009	8d 8e 48 02 00
	00		 lea	 ecx, DWORD PTR [esi+584]
  0000f	e8 00 00 00 00	 call	 ?SetColor@CColorButton@@QAEXABK@Z ; CColorButton::SetColor
; File C:\Program Files (x86)\Microsoft Visual Studio\2019\Community\VC\Tools\MSVC\14.29.30133\atlmfc\include\afxwin2.inl

; 114  : 	{ ASSERT(::IsWindow(m_hWnd)); ::InvalidateRect(m_hWnd, NULL, bErase); }

  00014	6a 01		 push	 1
  00016	6a 00		 push	 0
  00018	ff b6 68 02 00
	00		 push	 DWORD PTR [esi+616]
  0001e	ff 15 00 00 00
	00		 call	 DWORD PTR __imp__InvalidateRect@12
  00024	5e		 pop	 esi
; File D:\git\src\IBK\IBK_DRFN\ProjSrc\SrcChartEx\ChartAddIn\ChartAnalysisToolAddIn\AnalysisTool\DlgAnalysisToolSet.cpp

; 1016 : }

  00025	5d		 pop	 ebp
  00026	c2 04 00	 ret	 4
?SetColor@CDlgAnalysisToolSet@@AAEXABK@Z ENDP		; CDlgAnalysisToolSet::SetColor
_TEXT	ENDS
; Function compile flags: /Ogtp
; File D:\git\src\IBK\IBK_DRFN\ProjSrc\SrcChartEx\ChartAddIn\ChartAnalysisToolAddIn\AnalysisTool\DlgAnalysisToolSet.cpp
;	COMDAT ?SetPenEnvironment@CDlgAnalysisToolSet@@AAEXXZ
_TEXT	SEGMENT
$T1 = -4						; size = 4
?SetPenEnvironment@CDlgAnalysisToolSet@@AAEXXZ PROC	; CDlgAnalysisToolSet::SetPenEnvironment, COMDAT
; _this$ = ecx

; 987  : {

  00000	55		 push	 ebp
  00001	8b ec		 mov	 ebp, esp
  00003	51		 push	 ecx
  00004	56		 push	 esi
  00005	57		 push	 edi

; 988  : 	UpdateData(TRUE);

  00006	6a 01		 push	 1
  00008	8b f9		 mov	 edi, ecx
  0000a	e8 00 00 00 00	 call	 ?UpdateData@CWnd@@QAEHH@Z ; CWnd::UpdateData

; 989  : 	m_pPenEnvironment->SetColor(m_ctlColor.GetColor());

  0000f	8d 8f 48 02 00
	00		 lea	 ecx, DWORD PTR [edi+584]
  00015	e8 00 00 00 00	 call	 ?GetColor@CColorButton@@QBEKXZ ; CColorButton::GetColor
  0001a	8b 8f 1c 0d 00
	00		 mov	 ecx, DWORD PTR [edi+3356]
  00020	89 45 fc	 mov	 DWORD PTR $T1[ebp], eax
  00023	8d 45 fc	 lea	 eax, DWORD PTR $T1[ebp]
  00026	50		 push	 eax
  00027	e8 00 00 00 00	 call	 ?SetColor@CPenEnvironment@@QAEXABK@Z ; CPenEnvironment::SetColor

; 990  : 	m_pPenEnvironment->SetWidth(m_nWidth+1);

  0002c	8b 87 50 0c 00
	00		 mov	 eax, DWORD PTR [edi+3152]
  00032	8b 8f 1c 0d 00
	00		 mov	 ecx, DWORD PTR [edi+3356]
  00038	40		 inc	 eax
  00039	50		 push	 eax
  0003a	e8 00 00 00 00	 call	 ?SetWidth@CPenEnvironment@@QAEXH@Z ; CPenEnvironment::SetWidth

; 991  : 	m_pPenEnvironment->SetStyle((CToolEnumData::PenStyle) m_nStyle);

  0003f	ff b7 54 0c 00
	00		 push	 DWORD PTR [edi+3156]
  00045	8b 8f 1c 0d 00
	00		 mov	 ecx, DWORD PTR [edi+3356]
  0004b	e8 00 00 00 00	 call	 ?SetStyle@CPenEnvironment@@QAEXW4PenStyle@CToolEnumData@@@Z ; CPenEnvironment::SetStyle

; 992  : 	
; 993  : 	m_stAnalysisTool.crLineColor = m_ctlColor.GetColor();

  00050	8d 8f 48 02 00
	00		 lea	 ecx, DWORD PTR [edi+584]
  00056	e8 00 00 00 00	 call	 ?GetColor@CColorButton@@QBEKXZ ; CColorButton::GetColor
  0005b	89 87 d4 0c 00
	00		 mov	 DWORD PTR [edi+3284], eax

; 994  : 	m_stAnalysisTool.nLineStyle = m_nStyle;

  00061	8b 87 54 0c 00
	00		 mov	 eax, DWORD PTR [edi+3156]
  00067	89 87 cc 0c 00
	00		 mov	 DWORD PTR [edi+3276], eax

; 995  : 	m_stAnalysisTool.nLineWeight = m_nWidth+1;	

  0006d	8b 87 50 0c 00
	00		 mov	 eax, DWORD PTR [edi+3152]
  00073	40		 inc	 eax
  00074	89 87 d0 0c 00
	00		 mov	 DWORD PTR [edi+3280], eax
  0007a	5f		 pop	 edi
  0007b	5e		 pop	 esi

; 996  : }

  0007c	8b e5		 mov	 esp, ebp
  0007e	5d		 pop	 ebp
  0007f	c3		 ret	 0
?SetPenEnvironment@CDlgAnalysisToolSet@@AAEXXZ ENDP	; CDlgAnalysisToolSet::SetPenEnvironment
_TEXT	ENDS
; Function compile flags: /Ogtp
; File D:\git\src\IBK\IBK_DRFN\ProjSrc\SrcChartEx\ChartAddIn\ChartAnalysisToolAddIn\AnalysisTool\DlgAnalysisToolSet.cpp
; File C:\Program Files (x86)\Microsoft Visual Studio\2019\Community\VC\Tools\MSVC\14.29.30133\atlmfc\include\afxwin1.inl
; File D:\git\src\IBK\IBK_DRFN\ProjSrc\SrcChartEx\ChartAddIn\ChartAnalysisToolAddIn\Include_Chart\Dll_Load\IMetaTable.h
; File C:\Program Files (x86)\Microsoft Visual Studio\2019\Community\VC\Tools\MSVC\14.29.30133\atlmfc\include\afxwin1.inl
; File D:\git\src\IBK\IBK_DRFN\ProjSrc\SrcChartEx\ChartAddIn\ChartAnalysisToolAddIn\AnalysisTool\DlgAnalysisToolSet.cpp
; File D:\git\src\IBK\IBK_DRFN\ProjSrc\SrcChartEx\ChartAddIn\ChartAnalysisToolAddIn\Include_Chart\Dll_Load\IMetaTable.h
; File C:\Program Files (x86)\Microsoft Visual Studio\2019\Community\VC\Tools\MSVC\14.29.30133\atlmfc\include\afxwin1.inl
; File D:\git\src\IBK\IBK_DRFN\ProjSrc\SrcChartEx\ChartAddIn\ChartAnalysisToolAddIn\AnalysisTool\DlgAnalysisToolSet.cpp
;	COMDAT ?InitializeData_Style@CDlgAnalysisToolSet@@AAEXXZ
_TEXT	SEGMENT
___mlrs__$ = -16					; size = 4
__$EHRec$ = -12						; size = 12
?InitializeData_Style@CDlgAnalysisToolSet@@AAEXXZ PROC	; CDlgAnalysisToolSet::InitializeData_Style, COMDAT
; _this$ = ecx

; 979  : {

  00000	55		 push	 ebp
  00001	8b ec		 mov	 ebp, esp
  00003	6a ff		 push	 -1
  00005	68 00 00 00 00	 push	 __ehhandler$?InitializeData_Style@CDlgAnalysisToolSet@@AAEXXZ
  0000a	64 a1 00 00 00
	00		 mov	 eax, DWORD PTR fs:0
  00010	50		 push	 eax
  00011	51		 push	 ecx
  00012	53		 push	 ebx
  00013	56		 push	 esi
  00014	57		 push	 edi
  00015	a1 00 00 00 00	 mov	 eax, DWORD PTR ___security_cookie
  0001a	33 c5		 xor	 eax, ebp
  0001c	50		 push	 eax
  0001d	8d 45 f4	 lea	 eax, DWORD PTR __$EHRec$[ebp]
  00020	64 a3 00 00 00
	00		 mov	 DWORD PTR fs:0, eax
  00026	8b d9		 mov	 ebx, ecx

; 980  : 	ML_SET_DEFAULT_RES();

  00028	e8 00 00 00 00	 call	 ?AfxGetStaticModuleState@@YGPAVAFX_MODULE_STATE@@XZ ; AfxGetStaticModuleState
  0002d	8b 78 08	 mov	 edi, DWORD PTR [eax+8]
; File C:\Program Files (x86)\Microsoft Visual Studio\2019\Community\VC\Tools\MSVC\14.29.30133\atlmfc\include\afxwin1.inl

; 25   : 		return afxCurrentResourceHandle; }

  00030	e8 00 00 00 00	 call	 ?AfxGetModuleState@@YGPAVAFX_MODULE_STATE@@XZ ; AfxGetModuleState
; File D:\git\src\IBK\IBK_DRFN\ProjSrc\SrcChartEx\ChartAddIn\ChartAnalysisToolAddIn\Include_Chart\Dll_Load\IMetaTable.h

; 1034 : 		m_hInstance = AfxGetResourceHandle();

  00035	8b 70 0c	 mov	 esi, DWORD PTR [eax+12]
  00038	89 75 f0	 mov	 DWORD PTR ___mlrs__$[ebp], esi
; File C:\Program Files (x86)\Microsoft Visual Studio\2019\Community\VC\Tools\MSVC\14.29.30133\atlmfc\include\afxwin1.inl

; 27   : 	{ ASSERT(hInstResource != NULL); afxCurrentResourceHandle = hInstResource; }

  0003b	e8 00 00 00 00	 call	 ?AfxGetModuleState@@YGPAVAFX_MODULE_STATE@@XZ ; AfxGetModuleState
  00040	89 78 0c	 mov	 DWORD PTR [eax+12], edi
; File D:\git\src\IBK\IBK_DRFN\ProjSrc\SrcChartEx\ChartAddIn\ChartAnalysisToolAddIn\AnalysisTool\DlgAnalysisToolSet.cpp

; 982  : 	m_ctlStyle.LoadBitmap(IDB_LINESTYLE, 5);

  00043	6a 05		 push	 5
  00045	68 41 1f 00 00	 push	 8001			; 00001f41H
  0004a	8d 8b 28 01 00
	00		 lea	 ecx, DWORD PTR [ebx+296]
  00050	c7 45 fc 00 00
	00 00		 mov	 DWORD PTR __$EHRec$[ebp+8], 0
  00057	e8 00 00 00 00	 call	 ?LoadBitmapA@CBitmapComboBox@@QAEXHI@Z ; CBitmapComboBox::LoadBitmapA

; 983  : 	m_nStyle = (int) m_basePenEnvironment.GetStyle();

  0005c	8d 8b 20 0d 00
	00		 lea	 ecx, DWORD PTR [ebx+3360]
  00062	e8 00 00 00 00	 call	 ?GetStyle@CPenEnvironment@@QBE?AW4PenStyle@CToolEnumData@@XZ ; CPenEnvironment::GetStyle
  00067	89 83 54 0c 00
	00		 mov	 DWORD PTR [ebx+3156], eax
; File D:\git\src\IBK\IBK_DRFN\ProjSrc\SrcChartEx\ChartAddIn\ChartAnalysisToolAddIn\Include_Chart\Dll_Load\IMetaTable.h

; 1038 : 	{

  0006d	c7 45 fc 01 00
	00 00		 mov	 DWORD PTR __$EHRec$[ebp+8], 1
; File C:\Program Files (x86)\Microsoft Visual Studio\2019\Community\VC\Tools\MSVC\14.29.30133\atlmfc\include\afxwin1.inl

; 27   : 	{ ASSERT(hInstResource != NULL); afxCurrentResourceHandle = hInstResource; }

  00074	e8 00 00 00 00	 call	 ?AfxGetModuleState@@YGPAVAFX_MODULE_STATE@@XZ ; AfxGetModuleState
  00079	89 70 0c	 mov	 DWORD PTR [eax+12], esi
; File D:\git\src\IBK\IBK_DRFN\ProjSrc\SrcChartEx\ChartAddIn\ChartAnalysisToolAddIn\AnalysisTool\DlgAnalysisToolSet.cpp

; 984  : }

  0007c	8b 4d f4	 mov	 ecx, DWORD PTR __$EHRec$[ebp]
  0007f	64 89 0d 00 00
	00 00		 mov	 DWORD PTR fs:0, ecx
  00086	59		 pop	 ecx
  00087	5f		 pop	 edi
  00088	5e		 pop	 esi
  00089	5b		 pop	 ebx
  0008a	8b e5		 mov	 esp, ebp
  0008c	5d		 pop	 ebp
  0008d	c3		 ret	 0
_TEXT	ENDS
;	COMDAT text$x
text$x	SEGMENT
__unwindfunclet$?InitializeData_Style@CDlgAnalysisToolSet@@AAEXXZ$0:
  00000	8d 4d f0	 lea	 ecx, DWORD PTR ___mlrs__$[ebp]
  00003	e9 00 00 00 00	 jmp	 ??1CMultiLanguageResourceSetter@@QAE@XZ ; CMultiLanguageResourceSetter::~CMultiLanguageResourceSetter
  00008	cc		 int	 3
  00009	cc		 int	 3
  0000a	cc		 int	 3
  0000b	cc		 int	 3
  0000c	cc		 int	 3
__ehhandler$?InitializeData_Style@CDlgAnalysisToolSet@@AAEXXZ:
  0000d	90		 npad	 1
  0000e	90		 npad	 1
  0000f	8b 54 24 08	 mov	 edx, DWORD PTR [esp+8]
  00013	8d 42 0c	 lea	 eax, DWORD PTR [edx+12]
  00016	8b 4a ec	 mov	 ecx, DWORD PTR [edx-20]
  00019	33 c8		 xor	 ecx, eax
  0001b	e8 00 00 00 00	 call	 @__security_check_cookie@4
  00020	b8 00 00 00 00	 mov	 eax, OFFSET __ehfuncinfo$?InitializeData_Style@CDlgAnalysisToolSet@@AAEXXZ
  00025	e9 00 00 00 00	 jmp	 ___CxxFrameHandler3
text$x	ENDS
?InitializeData_Style@CDlgAnalysisToolSet@@AAEXXZ ENDP	; CDlgAnalysisToolSet::InitializeData_Style
; Function compile flags: /Ogtp
; File D:\git\src\IBK\IBK_DRFN\ProjSrc\SrcChartEx\ChartAddIn\ChartAnalysisToolAddIn\AnalysisTool\DlgAnalysisToolSet.cpp
; File C:\Program Files (x86)\Microsoft Visual Studio\2019\Community\VC\Tools\MSVC\14.29.30133\atlmfc\include\afxwin1.inl
; File D:\git\src\IBK\IBK_DRFN\ProjSrc\SrcChartEx\ChartAddIn\ChartAnalysisToolAddIn\Include_Chart\Dll_Load\IMetaTable.h
; File C:\Program Files (x86)\Microsoft Visual Studio\2019\Community\VC\Tools\MSVC\14.29.30133\atlmfc\include\afxwin1.inl
; File D:\git\src\IBK\IBK_DRFN\ProjSrc\SrcChartEx\ChartAddIn\ChartAnalysisToolAddIn\AnalysisTool\DlgAnalysisToolSet.cpp
; File D:\git\src\IBK\IBK_DRFN\ProjSrc\SrcChartEx\ChartAddIn\ChartAnalysisToolAddIn\Include_Chart\Dll_Load\IMetaTable.h
; File C:\Program Files (x86)\Microsoft Visual Studio\2019\Community\VC\Tools\MSVC\14.29.30133\atlmfc\include\afxwin1.inl
; File D:\git\src\IBK\IBK_DRFN\ProjSrc\SrcChartEx\ChartAddIn\ChartAnalysisToolAddIn\AnalysisTool\DlgAnalysisToolSet.cpp
;	COMDAT ?InitializeData_Width@CDlgAnalysisToolSet@@AAEXXZ
_TEXT	SEGMENT
___mlrs__$ = -16					; size = 4
__$EHRec$ = -12						; size = 12
?InitializeData_Width@CDlgAnalysisToolSet@@AAEXXZ PROC	; CDlgAnalysisToolSet::InitializeData_Width, COMDAT
; _this$ = ecx

; 966  : {

  00000	55		 push	 ebp
  00001	8b ec		 mov	 ebp, esp
  00003	6a ff		 push	 -1
  00005	68 00 00 00 00	 push	 __ehhandler$?InitializeData_Width@CDlgAnalysisToolSet@@AAEXXZ
  0000a	64 a1 00 00 00
	00		 mov	 eax, DWORD PTR fs:0
  00010	50		 push	 eax
  00011	51		 push	 ecx
  00012	53		 push	 ebx
  00013	56		 push	 esi
  00014	57		 push	 edi
  00015	a1 00 00 00 00	 mov	 eax, DWORD PTR ___security_cookie
  0001a	33 c5		 xor	 eax, ebp
  0001c	50		 push	 eax
  0001d	8d 45 f4	 lea	 eax, DWORD PTR __$EHRec$[ebp]
  00020	64 a3 00 00 00
	00		 mov	 DWORD PTR fs:0, eax
  00026	8b d9		 mov	 ebx, ecx

; 967  : 	ML_SET_DEFAULT_RES();

  00028	e8 00 00 00 00	 call	 ?AfxGetStaticModuleState@@YGPAVAFX_MODULE_STATE@@XZ ; AfxGetStaticModuleState
  0002d	8b 78 08	 mov	 edi, DWORD PTR [eax+8]
; File C:\Program Files (x86)\Microsoft Visual Studio\2019\Community\VC\Tools\MSVC\14.29.30133\atlmfc\include\afxwin1.inl

; 25   : 		return afxCurrentResourceHandle; }

  00030	e8 00 00 00 00	 call	 ?AfxGetModuleState@@YGPAVAFX_MODULE_STATE@@XZ ; AfxGetModuleState
; File D:\git\src\IBK\IBK_DRFN\ProjSrc\SrcChartEx\ChartAddIn\ChartAnalysisToolAddIn\Include_Chart\Dll_Load\IMetaTable.h

; 1034 : 		m_hInstance = AfxGetResourceHandle();

  00035	8b 70 0c	 mov	 esi, DWORD PTR [eax+12]
  00038	89 75 f0	 mov	 DWORD PTR ___mlrs__$[ebp], esi
; File C:\Program Files (x86)\Microsoft Visual Studio\2019\Community\VC\Tools\MSVC\14.29.30133\atlmfc\include\afxwin1.inl

; 27   : 	{ ASSERT(hInstResource != NULL); afxCurrentResourceHandle = hInstResource; }

  0003b	e8 00 00 00 00	 call	 ?AfxGetModuleState@@YGPAVAFX_MODULE_STATE@@XZ ; AfxGetModuleState
  00040	89 78 0c	 mov	 DWORD PTR [eax+12], edi
; File D:\git\src\IBK\IBK_DRFN\ProjSrc\SrcChartEx\ChartAddIn\ChartAnalysisToolAddIn\AnalysisTool\DlgAnalysisToolSet.cpp

; 969  : 	m_ctlWidth.LoadBitmap(IDB_LINEWIDTH, 5);

  00043	6a 05		 push	 5
  00045	68 3c 23 00 00	 push	 9020			; 0000233cH
  0004a	8d 8b b8 01 00
	00		 lea	 ecx, DWORD PTR [ebx+440]
  00050	c7 45 fc 00 00
	00 00		 mov	 DWORD PTR __$EHRec$[ebp+8], 0
  00057	e8 00 00 00 00	 call	 ?LoadBitmapA@CBitmapComboBox@@QAEXHI@Z ; CBitmapComboBox::LoadBitmapA

; 970  : 	if(m_basePenEnvironment.GetWidth() <= 0)

  0005c	8d 8b 20 0d 00
	00		 lea	 ecx, DWORD PTR [ebx+3360]
  00062	e8 00 00 00 00	 call	 ?GetWidth@CPenEnvironment@@QBEHXZ ; CPenEnvironment::GetWidth
  00067	85 c0		 test	 eax, eax
  00069	7f 04		 jg	 SHORT $LN2@Initialize

; 971  : 		m_nWidth = 0;

  0006b	33 c0		 xor	 eax, eax
  0006d	eb 23		 jmp	 SHORT $LN5@Initialize
$LN2@Initialize:

; 972  : 	else if(m_basePenEnvironment.GetWidth() >= 6)

  0006f	8d 8b 20 0d 00
	00		 lea	 ecx, DWORD PTR [ebx+3360]
  00075	e8 00 00 00 00	 call	 ?GetWidth@CPenEnvironment@@QBEHXZ ; CPenEnvironment::GetWidth
  0007a	83 f8 06	 cmp	 eax, 6
  0007d	7c 07		 jl	 SHORT $LN4@Initialize

; 973  : 		m_nWidth = 4;

  0007f	b8 04 00 00 00	 mov	 eax, 4
  00084	eb 0c		 jmp	 SHORT $LN5@Initialize
$LN4@Initialize:

; 974  : 	else
; 975  : 		m_nWidth = m_basePenEnvironment.GetWidth() -1;

  00086	8d 8b 20 0d 00
	00		 lea	 ecx, DWORD PTR [ebx+3360]
  0008c	e8 00 00 00 00	 call	 ?GetWidth@CPenEnvironment@@QBEHXZ ; CPenEnvironment::GetWidth
  00091	48		 dec	 eax
$LN5@Initialize:
; File D:\git\src\IBK\IBK_DRFN\ProjSrc\SrcChartEx\ChartAddIn\ChartAnalysisToolAddIn\Include_Chart\Dll_Load\IMetaTable.h

; 1038 : 	{

  00092	c7 45 fc 01 00
	00 00		 mov	 DWORD PTR __$EHRec$[ebp+8], 1
  00099	89 83 50 0c 00
	00		 mov	 DWORD PTR [ebx+3152], eax
; File C:\Program Files (x86)\Microsoft Visual Studio\2019\Community\VC\Tools\MSVC\14.29.30133\atlmfc\include\afxwin1.inl

; 27   : 	{ ASSERT(hInstResource != NULL); afxCurrentResourceHandle = hInstResource; }

  0009f	e8 00 00 00 00	 call	 ?AfxGetModuleState@@YGPAVAFX_MODULE_STATE@@XZ ; AfxGetModuleState
  000a4	89 70 0c	 mov	 DWORD PTR [eax+12], esi
; File D:\git\src\IBK\IBK_DRFN\ProjSrc\SrcChartEx\ChartAddIn\ChartAnalysisToolAddIn\AnalysisTool\DlgAnalysisToolSet.cpp

; 976  : }

  000a7	8b 4d f4	 mov	 ecx, DWORD PTR __$EHRec$[ebp]
  000aa	64 89 0d 00 00
	00 00		 mov	 DWORD PTR fs:0, ecx
  000b1	59		 pop	 ecx
  000b2	5f		 pop	 edi
  000b3	5e		 pop	 esi
  000b4	5b		 pop	 ebx
  000b5	8b e5		 mov	 esp, ebp
  000b7	5d		 pop	 ebp
  000b8	c3		 ret	 0
_TEXT	ENDS
;	COMDAT text$x
text$x	SEGMENT
__unwindfunclet$?InitializeData_Width@CDlgAnalysisToolSet@@AAEXXZ$0:
  00000	8d 4d f0	 lea	 ecx, DWORD PTR ___mlrs__$[ebp]
  00003	e9 00 00 00 00	 jmp	 ??1CMultiLanguageResourceSetter@@QAE@XZ ; CMultiLanguageResourceSetter::~CMultiLanguageResourceSetter
  00008	cc		 int	 3
  00009	cc		 int	 3
  0000a	cc		 int	 3
  0000b	cc		 int	 3
  0000c	cc		 int	 3
__ehhandler$?InitializeData_Width@CDlgAnalysisToolSet@@AAEXXZ:
  0000d	90		 npad	 1
  0000e	90		 npad	 1
  0000f	8b 54 24 08	 mov	 edx, DWORD PTR [esp+8]
  00013	8d 42 0c	 lea	 eax, DWORD PTR [edx+12]
  00016	8b 4a ec	 mov	 ecx, DWORD PTR [edx-20]
  00019	33 c8		 xor	 ecx, eax
  0001b	e8 00 00 00 00	 call	 @__security_check_cookie@4
  00020	b8 00 00 00 00	 mov	 eax, OFFSET __ehfuncinfo$?InitializeData_Width@CDlgAnalysisToolSet@@AAEXXZ
  00025	e9 00 00 00 00	 jmp	 ___CxxFrameHandler3
text$x	ENDS
?InitializeData_Width@CDlgAnalysisToolSet@@AAEXXZ ENDP	; CDlgAnalysisToolSet::InitializeData_Width
; Function compile flags: /Ogtp
; File D:\git\src\IBK\IBK_DRFN\ProjSrc\SrcChartEx\ChartAddIn\ChartAnalysisToolAddIn\AnalysisTool\DlgAnalysisToolSet.cpp
;	COMDAT ?GetCurrentPenEnvironment@CDlgAnalysisToolSet@@IBEPAVCPenEnvironment@@XZ
_TEXT	SEGMENT
?GetCurrentPenEnvironment@CDlgAnalysisToolSet@@IBEPAVCPenEnvironment@@XZ PROC ; CDlgAnalysisToolSet::GetCurrentPenEnvironment, COMDAT
; _this$ = ecx

; 1141 : 	return m_pPenEnvironment;

  00000	8b 81 1c 0d 00
	00		 mov	 eax, DWORD PTR [ecx+3356]

; 1142 : }

  00006	c3		 ret	 0
?GetCurrentPenEnvironment@CDlgAnalysisToolSet@@IBEPAVCPenEnvironment@@XZ ENDP ; CDlgAnalysisToolSet::GetCurrentPenEnvironment
_TEXT	ENDS
; Function compile flags: /Ogtp
; File D:\git\src\IBK\IBK_DRFN\ProjSrc\SrcChartEx\ChartAddIn\ChartAnalysisToolAddIn\AnalysisTool\DlgAnalysisToolSet.cpp
; File C:\Program Files (x86)\Microsoft Visual Studio\2019\Community\VC\Tools\MSVC\14.29.30133\atlmfc\include\atlsimpstr.h
; File D:\git\src\IBK\IBK_DRFN\ProjSrc\SrcChartEx\ChartAddIn\ChartAnalysisToolAddIn\AnalysisTool\DlgAnalysisToolSet.cpp
; File C:\Program Files (x86)\Microsoft Visual Studio\2019\Community\VC\Tools\MSVC\14.29.30133\atlmfc\include\atlsimpstr.h
; File D:\git\src\IBK\IBK_DRFN\ProjSrc\SrcChartEx\ChartAddIn\ChartAnalysisToolAddIn\AnalysisTool\DlgAnalysisToolSet.cpp
; File C:\Program Files (x86)\Microsoft Visual Studio\2019\Community\VC\Tools\MSVC\14.29.30133\atlmfc\include\cstringt.h
; File D:\git\src\IBK\IBK_DRFN\ProjSrc\SrcChartEx\ChartAddIn\ChartAnalysisToolAddIn\AnalysisTool\DlgAnalysisToolSet.cpp
; File C:\Program Files (x86)\Microsoft Visual Studio\2019\Community\VC\Tools\MSVC\14.29.30133\atlmfc\include\cstringt.h
; File C:\Program Files (x86)\Microsoft Visual Studio\2019\Community\VC\Tools\MSVC\14.29.30133\atlmfc\include\atlsimpstr.h
; File C:\Program Files (x86)\Microsoft Visual Studio\2019\Community\VC\Tools\MSVC\14.29.30133\atlmfc\include\cstringt.h
; File D:\git\src\IBK\IBK_DRFN\ProjSrc\SrcChartEx\ChartAddIn\ChartAnalysisToolAddIn\AnalysisTool\DlgAnalysisToolSet.cpp
; File C:\Program Files (x86)\Microsoft Visual Studio\2019\Community\VC\Tools\MSVC\14.29.30133\atlmfc\include\atltime.h
; File D:\git\src\IBK\IBK_DRFN\ProjSrc\SrcChartEx\ChartAddIn\ChartAnalysisToolAddIn\AnalysisTool\DlgAnalysisToolSet.cpp
; File C:\Program Files (x86)\Microsoft Visual Studio\2019\Community\VC\Tools\MSVC\14.29.30133\atlmfc\include\atltime.h
; File D:\git\src\IBK\IBK_DRFN\ProjSrc\SrcChartEx\ChartAddIn\ChartAnalysisToolAddIn\AnalysisTool\DlgAnalysisToolSet.cpp
; File C:\Program Files (x86)\Microsoft Visual Studio\2019\Community\VC\Tools\MSVC\14.29.30133\atlmfc\include\atltime.h
; File D:\git\src\IBK\IBK_DRFN\ProjSrc\SrcChartEx\ChartAddIn\ChartAnalysisToolAddIn\AnalysisTool\DlgAnalysisToolSet.cpp
;	COMDAT ?SetXDateTime@CDlgAnalysisToolSet@@IAEXNH@Z
_TEXT	SEGMENT
_nYear$1$ = -84						; size = 4
$T2 = -84						; size = 4
$T3 = -84						; size = 4
_stime$4 = -80						; size = 8
_this$GSCopy$1$ = -76					; size = 4
$T5 = -76						; size = 4
$T6 = -76						; size = 4
_strFormat$7 = -72					; size = 4
$T8 = -68						; size = 4
$T9 = -68						; size = 4
$T10 = -68						; size = 4
$T11 = -68						; size = 4
$T12 = -68						; size = 4
_nMonth$1$ = -64					; size = 4
$T13 = -64						; size = 4
$T14 = -64						; size = 4
$T15 = -64						; size = 4
$T16 = -64						; size = 4
$T17 = -64						; size = 4
$T18 = -60						; size = 4
$T19 = -60						; size = 4
$T20 = -60						; size = 4
$T21 = -60						; size = 4
$T22 = -60						; size = 4
_strXValue$ = -56					; size = 4
_atm$23 = -52						; size = 36
__$ArrayPad$ = -16					; size = 4
__$EHRec$ = -12						; size = 12
_dXDateTime$ = 8					; size = 8
_nIndex$ = 16						; size = 4
?SetXDateTime@CDlgAnalysisToolSet@@IAEXNH@Z PROC	; CDlgAnalysisToolSet::SetXDateTime, COMDAT
; _this$ = ecx

; 1145 : {

  00000	55		 push	 ebp
  00001	8b ec		 mov	 ebp, esp
  00003	6a ff		 push	 -1
  00005	68 00 00 00 00	 push	 __ehhandler$?SetXDateTime@CDlgAnalysisToolSet@@IAEXNH@Z
  0000a	64 a1 00 00 00
	00		 mov	 eax, DWORD PTR fs:0
  00010	50		 push	 eax
  00011	83 ec 48	 sub	 esp, 72			; 00000048H
  00014	a1 00 00 00 00	 mov	 eax, DWORD PTR ___security_cookie
  00019	33 c5		 xor	 eax, ebp
  0001b	89 45 f0	 mov	 DWORD PTR __$ArrayPad$[ebp], eax
  0001e	53		 push	 ebx
  0001f	56		 push	 esi
  00020	57		 push	 edi
  00021	50		 push	 eax
  00022	8d 45 f4	 lea	 eax, DWORD PTR __$EHRec$[ebp]
  00025	64 a3 00 00 00
	00		 mov	 DWORD PTR fs:0, eax
  0002b	8b d9		 mov	 ebx, ecx
  0002d	89 5d b4	 mov	 DWORD PTR _this$GSCopy$1$[ebp], ebx

; 1146 : 	CString strXValue;

  00030	8d 4d c8	 lea	 ecx, DWORD PTR _strXValue$[ebp]
  00033	c7 45 c0 00 00
	00 00		 mov	 DWORD PTR $T13[ebp], 0
  0003a	ff 15 00 00 00
	00		 call	 DWORD PTR __imp_??0?$CStringT@DV?$StrTraitMFC_DLL@DV?$ChTraitsCRT@D@ATL@@@@@ATL@@QAE@XZ

; 1147 : 	strXValue.Format(_T("%.f"),dXDateTime);	

  00040	f2 0f 10 45 08	 movsd	 xmm0, QWORD PTR _dXDateTime$[ebp]
  00045	8d 45 c8	 lea	 eax, DWORD PTR _strXValue$[ebp]
  00048	83 ec 08	 sub	 esp, 8
  0004b	c7 45 fc 00 00
	00 00		 mov	 DWORD PTR __$EHRec$[ebp+8], 0
  00052	f2 0f 11 04 24	 movsd	 QWORD PTR [esp], xmm0
  00057	68 00 00 00 00	 push	 OFFSET ??_C@_03EICDNICE@?$CF?4f@
  0005c	50		 push	 eax
  0005d	ff 15 00 00 00
	00		 call	 DWORD PTR __imp_?Format@?$CStringT@DV?$StrTraitMFC_DLL@DV?$ChTraitsCRT@D@ATL@@@@@ATL@@QAAXPBDZZ
; File C:\Program Files (x86)\Microsoft Visual Studio\2019\Community\VC\Tools\MSVC\14.29.30133\atlmfc\include\atlsimpstr.h

; 519  : 		return( GetData()->nDataLength );

  00063	8b 45 c8	 mov	 eax, DWORD PTR _strXValue$[ebp]
; File D:\git\src\IBK\IBK_DRFN\ProjSrc\SrcChartEx\ChartAddIn\ChartAnalysisToolAddIn\AnalysisTool\DlgAnalysisToolSet.cpp

; 1147 : 	strXValue.Format(_T("%.f"),dXDateTime);	

  00066	83 c4 10	 add	 esp, 16			; 00000010H
; File C:\Program Files (x86)\Microsoft Visual Studio\2019\Community\VC\Tools\MSVC\14.29.30133\atlmfc\include\atlsimpstr.h

; 533  : 		return( GetLength() == 0 );

  00069	83 78 f4 00	 cmp	 DWORD PTR [eax-12], 0
; File D:\git\src\IBK\IBK_DRFN\ProjSrc\SrcChartEx\ChartAddIn\ChartAnalysisToolAddIn\AnalysisTool\DlgAnalysisToolSet.cpp

; 1148 : 	if(strXValue.IsEmpty() == FALSE && dXDateTime > 0.0f)

  0006d	0f 84 c5 04 00
	00		 je	 $LN11@SetXDateTi
  00073	f2 0f 10 45 08	 movsd	 xmm0, QWORD PTR _dXDateTime$[ebp]
  00078	66 0f 2f 05 00
	00 00 00	 comisd	 xmm0, QWORD PTR __real@0000000000000000
  00080	0f 86 b2 04 00
	00		 jbe	 $LN11@SetXDateTi

; 1149 : 	{	
; 1150 : 		if( m_nDataPeriod == CScaleBaseData::HORZ_DAILY		||
; 1151 : 			m_nDataPeriod == CScaleBaseData::HORZ_WEEKLEY	||

  00086	8b 83 6c 0c 00
	00		 mov	 eax, DWORD PTR [ebx+3180]
  0008c	83 f8 01	 cmp	 eax, 1
  0008f	0f 84 7f 03 00
	00		 je	 $LN5@SetXDateTi
  00095	83 f8 02	 cmp	 eax, 2
  00098	0f 84 76 03 00
	00		 je	 $LN5@SetXDateTi
  0009e	83 f8 03	 cmp	 eax, 3
  000a1	0f 84 6d 03 00
	00		 je	 $LN5@SetXDateTi

; 1172 : 		}
; 1173 : 		else
; 1174 : 		{	
; 1175 : 			//   ..
; 1176 : 			if(nIndex == 0)

  000a7	83 7d 10 00	 cmp	 DWORD PTR _nIndex$[ebp], 0
  000ab	75 27		 jne	 SHORT $LN12@SetXDateTi

; 1177 : 			{
; 1178 : 				m_ctrlXDateTime1.ShowWindow(SW_HIDE);

  000ad	6a 00		 push	 0
  000af	8d 8b d0 0a 00
	00		 lea	 ecx, DWORD PTR [ebx+2768]
  000b5	e8 00 00 00 00	 call	 ?ShowWindow@CWnd@@QAEHH@Z ; CWnd::ShowWindow

; 1179 : 				m_ctrlXDateTime2.ShowWindow(SW_HIDE);

  000ba	6a 00		 push	 0
  000bc	8d 8b 50 0b 00
	00		 lea	 ecx, DWORD PTR [ebx+2896]
  000c2	e8 00 00 00 00	 call	 ?ShowWindow@CWnd@@QAEHH@Z ; CWnd::ShowWindow

; 1180 : 				m_ctrlXDateTime3.ShowWindow(SW_HIDE);

  000c7	6a 00		 push	 0
  000c9	8d 8b d0 0b 00
	00		 lea	 ecx, DWORD PTR [ebx+3024]
  000cf	e8 00 00 00 00	 call	 ?ShowWindow@CWnd@@QAEHH@Z ; CWnd::ShowWindow
$LN12@SetXDateTi:

; 1181 : 			}
; 1182 : 
; 1183 : 			CString strFormat;		

  000d4	8d 4d b8	 lea	 ecx, DWORD PTR _strFormat$7[ebp]
  000d7	ff 15 00 00 00
	00		 call	 DWORD PTR __imp_??0?$CStringT@DV?$StrTraitMFC_DLL@DV?$ChTraitsCRT@D@ATL@@@@@ATL@@QAE@XZ

; 1184 : 			
; 1185 : 
; 1186 : 			if(m_nDataPeriod == CScaleBaseData::HORZ_TICK)

  000dd	83 bb 6c 0c 00
	00 05		 cmp	 DWORD PTR [ebx+3180], 5
  000e4	8b 45 c8	 mov	 eax, DWORD PTR _strXValue$[ebp]
  000e7	c6 45 fc 01	 mov	 BYTE PTR __$EHRec$[ebp+8], 1
  000eb	0f 85 ff 00 00
	00		 jne	 $LN13@SetXDateTi

; 1187 : 			{
; 1188 : 				// 2011.01.17 by SYS >>  YYYY()  : / 14Byte  (YYYYMMDDhhmmss)
; 1189 : 				// DDHHMM  
; 1190 : 				if (strXValue.GetLength()==14)

  000f1	83 78 f4 0e	 cmp	 DWORD PTR [eax-12], 14	; 0000000eH
  000f5	8d 4d c8	 lea	 ecx, DWORD PTR _strXValue$[ebp]
  000f8	6a 02		 push	 2
  000fa	75 7b		 jne	 SHORT $LN15@SetXDateTi

; 1191 : 					strFormat.Format(_T("%s/%s:%s"),strXValue.Mid(6,2),strXValue.Mid(8,2),strXValue.Mid(10,2));

  000fc	6a 0a		 push	 10			; 0000000aH
  000fe	8d 45 c0	 lea	 eax, DWORD PTR $T17[ebp]
  00101	50		 push	 eax
  00102	ff 15 00 00 00
	00		 call	 DWORD PTR __imp_?Mid@?$CStringT@DV?$StrTraitMFC_DLL@DV?$ChTraitsCRT@D@ATL@@@@@ATL@@QBE?AV12@HH@Z
  00108	8b f8		 mov	 edi, eax
  0010a	6a 02		 push	 2
  0010c	6a 08		 push	 8
  0010e	8d 45 c4	 lea	 eax, DWORD PTR $T22[ebp]
  00111	c6 45 fc 02	 mov	 BYTE PTR __$EHRec$[ebp+8], 2
  00115	50		 push	 eax
  00116	8d 4d c8	 lea	 ecx, DWORD PTR _strXValue$[ebp]
  00119	ff 15 00 00 00
	00		 call	 DWORD PTR __imp_?Mid@?$CStringT@DV?$StrTraitMFC_DLL@DV?$ChTraitsCRT@D@ATL@@@@@ATL@@QBE?AV12@HH@Z
  0011f	8b f0		 mov	 esi, eax
  00121	6a 02		 push	 2
  00123	6a 06		 push	 6
  00125	8d 45 b4	 lea	 eax, DWORD PTR $T6[ebp]
  00128	c6 45 fc 03	 mov	 BYTE PTR __$EHRec$[ebp+8], 3
  0012c	50		 push	 eax
  0012d	8d 4d c8	 lea	 ecx, DWORD PTR _strXValue$[ebp]
  00130	ff 15 00 00 00
	00		 call	 DWORD PTR __imp_?Mid@?$CStringT@DV?$StrTraitMFC_DLL@DV?$ChTraitsCRT@D@ATL@@@@@ATL@@QBE?AV12@HH@Z
  00136	ff 37		 push	 DWORD PTR [edi]
  00138	c6 45 fc 04	 mov	 BYTE PTR __$EHRec$[ebp+8], 4
  0013c	ff 36		 push	 DWORD PTR [esi]
  0013e	ff 30		 push	 DWORD PTR [eax]
  00140	8d 45 b8	 lea	 eax, DWORD PTR _strFormat$7[ebp]
  00143	68 00 00 00 00	 push	 OFFSET ??_C@_08IGKLELNK@?$CFs?1?$CFs?3?$CFs@
  00148	50		 push	 eax
  00149	a1 00 00 00 00	 mov	 eax, DWORD PTR __imp_?Format@?$CStringT@DV?$StrTraitMFC_DLL@DV?$ChTraitsCRT@D@ATL@@@@@ATL@@QAAXPBDZZ
  0014e	ff d0		 call	 eax
  00150	83 c4 14	 add	 esp, 20			; 00000014H
  00153	8d 4d b4	 lea	 ecx, DWORD PTR $T6[ebp]
  00156	ff 15 00 00 00
	00		 call	 DWORD PTR __imp_??1?$CStringT@DV?$StrTraitMFC_DLL@DV?$ChTraitsCRT@D@ATL@@@@@ATL@@QAE@XZ
  0015c	8d 4d c4	 lea	 ecx, DWORD PTR $T22[ebp]
  0015f	ff 15 00 00 00
	00		 call	 DWORD PTR __imp_??1?$CStringT@DV?$StrTraitMFC_DLL@DV?$ChTraitsCRT@D@ATL@@@@@ATL@@QAE@XZ
  00165	8d 4d c0	 lea	 ecx, DWORD PTR $T17[ebp]
  00168	c6 45 fc 01	 mov	 BYTE PTR __$EHRec$[ebp+8], 1
  0016c	ff 15 00 00 00
	00		 call	 DWORD PTR __imp_??1?$CStringT@DV?$StrTraitMFC_DLL@DV?$ChTraitsCRT@D@ATL@@@@@ATL@@QAE@XZ
  00172	e9 10 02 00 00	 jmp	 $LN19@SetXDateTi
$LN15@SetXDateTi:

; 1192 : 				else							
; 1193 : 					strFormat.Format(_T("%s/%s:%s"),strXValue.Left(2),strXValue.Mid(2,2),strXValue.Mid(4,2));

  00177	6a 04		 push	 4
  00179	8d 45 c4	 lea	 eax, DWORD PTR $T21[ebp]
  0017c	50		 push	 eax
  0017d	ff 15 00 00 00
	00		 call	 DWORD PTR __imp_?Mid@?$CStringT@DV?$StrTraitMFC_DLL@DV?$ChTraitsCRT@D@ATL@@@@@ATL@@QBE?AV12@HH@Z
  00183	8b f8		 mov	 edi, eax
  00185	6a 02		 push	 2
  00187	6a 02		 push	 2
  00189	8d 45 b4	 lea	 eax, DWORD PTR $T5[ebp]
  0018c	c6 45 fc 05	 mov	 BYTE PTR __$EHRec$[ebp+8], 5
  00190	50		 push	 eax
  00191	8d 4d c8	 lea	 ecx, DWORD PTR _strXValue$[ebp]
  00194	ff 15 00 00 00
	00		 call	 DWORD PTR __imp_?Mid@?$CStringT@DV?$StrTraitMFC_DLL@DV?$ChTraitsCRT@D@ATL@@@@@ATL@@QBE?AV12@HH@Z
  0019a	8b f0		 mov	 esi, eax
  0019c	6a 02		 push	 2
  0019e	8d 45 c0	 lea	 eax, DWORD PTR $T16[ebp]
  001a1	c6 45 fc 06	 mov	 BYTE PTR __$EHRec$[ebp+8], 6
  001a5	50		 push	 eax
  001a6	8d 4d c8	 lea	 ecx, DWORD PTR _strXValue$[ebp]
  001a9	ff 15 00 00 00
	00		 call	 DWORD PTR __imp_?Left@?$CStringT@DV?$StrTraitMFC_DLL@DV?$ChTraitsCRT@D@ATL@@@@@ATL@@QBE?AV12@H@Z
  001af	ff 37		 push	 DWORD PTR [edi]
  001b1	c6 45 fc 07	 mov	 BYTE PTR __$EHRec$[ebp+8], 7
  001b5	ff 36		 push	 DWORD PTR [esi]
  001b7	ff 30		 push	 DWORD PTR [eax]
  001b9	8d 45 b8	 lea	 eax, DWORD PTR _strFormat$7[ebp]
  001bc	68 00 00 00 00	 push	 OFFSET ??_C@_08IGKLELNK@?$CFs?1?$CFs?3?$CFs@
  001c1	50		 push	 eax
  001c2	a1 00 00 00 00	 mov	 eax, DWORD PTR __imp_?Format@?$CStringT@DV?$StrTraitMFC_DLL@DV?$ChTraitsCRT@D@ATL@@@@@ATL@@QAAXPBDZZ
  001c7	ff d0		 call	 eax
  001c9	83 c4 14	 add	 esp, 20			; 00000014H
  001cc	8d 4d c0	 lea	 ecx, DWORD PTR $T16[ebp]
  001cf	ff 15 00 00 00
	00		 call	 DWORD PTR __imp_??1?$CStringT@DV?$StrTraitMFC_DLL@DV?$ChTraitsCRT@D@ATL@@@@@ATL@@QAE@XZ
  001d5	8d 4d b4	 lea	 ecx, DWORD PTR $T5[ebp]
  001d8	ff 15 00 00 00
	00		 call	 DWORD PTR __imp_??1?$CStringT@DV?$StrTraitMFC_DLL@DV?$ChTraitsCRT@D@ATL@@@@@ATL@@QAE@XZ
  001de	8d 4d c4	 lea	 ecx, DWORD PTR $T21[ebp]
  001e1	c6 45 fc 01	 mov	 BYTE PTR __$EHRec$[ebp+8], 1
  001e5	ff 15 00 00 00
	00		 call	 DWORD PTR __imp_??1?$CStringT@DV?$StrTraitMFC_DLL@DV?$ChTraitsCRT@D@ATL@@@@@ATL@@QAE@XZ

; 1194 : 				// 2011.01.17 by SYS <<
; 1195 : 			}

  001eb	e9 97 01 00 00	 jmp	 $LN19@SetXDateTi
$LN13@SetXDateTi:

; 1196 : 			// 2011.01.20 by SYS <<
; 1197 : 			else
; 1198 : 			{
; 1199 : 				if (strXValue.GetLength() < 8)

  001f0	83 78 f4 08	 cmp	 DWORD PTR [eax-12], 8
  001f4	7d 56		 jge	 SHORT $LN17@SetXDateTi
; File C:\Program Files (x86)\Microsoft Visual Studio\2019\Community\VC\Tools\MSVC\14.29.30133\atlmfc\include\cstringt.h

; 2412 : 		CStringT strResult( str2.GetManager() );

  001f6	8d 4d c8	 lea	 ecx, DWORD PTR _strXValue$[ebp]
; File D:\git\src\IBK\IBK_DRFN\ProjSrc\SrcChartEx\ChartAddIn\ChartAnalysisToolAddIn\AnalysisTool\DlgAnalysisToolSet.cpp

; 1200 : 					strXValue = "0" + strXValue;

  001f9	c6 45 fc 08	 mov	 BYTE PTR __$EHRec$[ebp+8], 8
; File C:\Program Files (x86)\Microsoft Visual Studio\2019\Community\VC\Tools\MSVC\14.29.30133\atlmfc\include\cstringt.h

; 2412 : 		CStringT strResult( str2.GetManager() );

  001fd	ff 15 00 00 00
	00		 call	 DWORD PTR __imp_?GetManager@?$CStringT@DV?$StrTraitMFC_DLL@DV?$ChTraitsCRT@D@ATL@@@@@ATL@@QBEPAUIAtlStringMgr@2@XZ
  00203	50		 push	 eax
  00204	8d 4d c4	 lea	 ecx, DWORD PTR $T20[ebp]
  00207	ff 15 00 00 00
	00		 call	 DWORD PTR __imp_??0?$CStringT@DV?$StrTraitMFC_DLL@DV?$ChTraitsCRT@D@ATL@@@@@ATL@@QAE@PAUIAtlStringMgr@1@@Z
; File C:\Program Files (x86)\Microsoft Visual Studio\2019\Community\VC\Tools\MSVC\14.29.30133\atlmfc\include\atlsimpstr.h

; 519  : 		return( GetData()->nDataLength );

  0020d	8b 45 c8	 mov	 eax, DWORD PTR _strXValue$[ebp]
; File C:\Program Files (x86)\Microsoft Visual Studio\2019\Community\VC\Tools\MSVC\14.29.30133\atlmfc\include\cstringt.h

; 2416 : 		return( strResult );

  00210	c7 45 c0 01 00
	00 00		 mov	 DWORD PTR $T13[ebp], 1
  00217	ff 70 f4	 push	 DWORD PTR [eax-12]
  0021a	50		 push	 eax
  0021b	6a 01		 push	 1
  0021d	8d 45 c4	 lea	 eax, DWORD PTR $T20[ebp]
  00220	68 00 00 00 00	 push	 OFFSET ??_C@_01GBGANLPD@0@
  00225	50		 push	 eax
  00226	ff 15 00 00 00
	00		 call	 DWORD PTR __imp_?Concatenate@?$CSimpleStringT@D$00@ATL@@KAXAAV12@PBDH1H@Z
  0022c	83 c4 14	 add	 esp, 20			; 00000014H
; File D:\git\src\IBK\IBK_DRFN\ProjSrc\SrcChartEx\ChartAddIn\ChartAnalysisToolAddIn\AnalysisTool\DlgAnalysisToolSet.cpp

; 1200 : 					strXValue = "0" + strXValue;

  0022f	8d 45 c4	 lea	 eax, DWORD PTR $T20[ebp]
  00232	8d 4d c8	 lea	 ecx, DWORD PTR _strXValue$[ebp]
  00235	50		 push	 eax
  00236	ff 15 00 00 00
	00		 call	 DWORD PTR __imp_??4?$CStringT@DV?$StrTraitMFC_DLL@DV?$ChTraitsCRT@D@ATL@@@@@ATL@@QAEAAV01@ABV01@@Z
  0023c	8d 4d c4	 lea	 ecx, DWORD PTR $T20[ebp]
  0023f	c6 45 fc 01	 mov	 BYTE PTR __$EHRec$[ebp+8], 1
  00243	ff 15 00 00 00
	00		 call	 DWORD PTR __imp_??1?$CStringT@DV?$StrTraitMFC_DLL@DV?$ChTraitsCRT@D@ATL@@@@@ATL@@QAE@XZ
  00249	8b 45 c8	 mov	 eax, DWORD PTR _strXValue$[ebp]
$LN17@SetXDateTi:

; 1201 : 
; 1202 : 				// 2011.01.06 by SYS >>  YYYY() 
; 1203 : 				// MMDDHHMM  
; 1204 : 				if (strXValue.GetLength()==14)

  0024c	83 78 f4 0e	 cmp	 DWORD PTR [eax-12], 14	; 0000000eH
  00250	8d 4d c8	 lea	 ecx, DWORD PTR _strXValue$[ebp]
  00253	6a 02		 push	 2
  00255	0f 85 93 00 00
	00		 jne	 $LN18@SetXDateTi

; 1205 : 				{
; 1206 : 					strFormat.Format(_T("%s/%s-%s:%s"), strXValue.Mid(4,2),strXValue.Mid(6,2), strXValue.Mid(8,2),strXValue.Mid(10,2));

  0025b	6a 0a		 push	 10			; 0000000aH
  0025d	8d 45 bc	 lea	 eax, DWORD PTR $T9[ebp]
  00260	50		 push	 eax
  00261	ff 15 00 00 00
	00		 call	 DWORD PTR __imp_?Mid@?$CStringT@DV?$StrTraitMFC_DLL@DV?$ChTraitsCRT@D@ATL@@@@@ATL@@QBE?AV12@HH@Z
  00267	8b d8		 mov	 ebx, eax
  00269	6a 02		 push	 2
  0026b	6a 08		 push	 8
  0026d	8d 45 ac	 lea	 eax, DWORD PTR $T3[ebp]
  00270	c6 45 fc 09	 mov	 BYTE PTR __$EHRec$[ebp+8], 9
  00274	50		 push	 eax
  00275	8d 4d c8	 lea	 ecx, DWORD PTR _strXValue$[ebp]
  00278	ff 15 00 00 00
	00		 call	 DWORD PTR __imp_?Mid@?$CStringT@DV?$StrTraitMFC_DLL@DV?$ChTraitsCRT@D@ATL@@@@@ATL@@QBE?AV12@HH@Z
  0027e	8b f8		 mov	 edi, eax
  00280	6a 02		 push	 2
  00282	6a 06		 push	 6
  00284	8d 45 c4	 lea	 eax, DWORD PTR $T19[ebp]
  00287	c6 45 fc 0a	 mov	 BYTE PTR __$EHRec$[ebp+8], 10 ; 0000000aH
  0028b	50		 push	 eax
  0028c	8d 4d c8	 lea	 ecx, DWORD PTR _strXValue$[ebp]
  0028f	ff 15 00 00 00
	00		 call	 DWORD PTR __imp_?Mid@?$CStringT@DV?$StrTraitMFC_DLL@DV?$ChTraitsCRT@D@ATL@@@@@ATL@@QBE?AV12@HH@Z
  00295	8b f0		 mov	 esi, eax
  00297	6a 02		 push	 2
  00299	6a 04		 push	 4
  0029b	8d 45 c0	 lea	 eax, DWORD PTR $T15[ebp]
  0029e	c6 45 fc 0b	 mov	 BYTE PTR __$EHRec$[ebp+8], 11 ; 0000000bH
  002a2	50		 push	 eax
  002a3	8d 4d c8	 lea	 ecx, DWORD PTR _strXValue$[ebp]
  002a6	ff 15 00 00 00
	00		 call	 DWORD PTR __imp_?Mid@?$CStringT@DV?$StrTraitMFC_DLL@DV?$ChTraitsCRT@D@ATL@@@@@ATL@@QBE?AV12@HH@Z
  002ac	ff 33		 push	 DWORD PTR [ebx]
  002ae	c6 45 fc 0c	 mov	 BYTE PTR __$EHRec$[ebp+8], 12 ; 0000000cH
  002b2	ff 37		 push	 DWORD PTR [edi]
  002b4	ff 36		 push	 DWORD PTR [esi]
  002b6	ff 30		 push	 DWORD PTR [eax]
  002b8	8d 45 b8	 lea	 eax, DWORD PTR _strFormat$7[ebp]
  002bb	68 00 00 00 00	 push	 OFFSET ??_C@_0M@NFOMEIHF@?$CFs?1?$CFs?9?$CFs?3?$CFs@
  002c0	50		 push	 eax
  002c1	a1 00 00 00 00	 mov	 eax, DWORD PTR __imp_?Format@?$CStringT@DV?$StrTraitMFC_DLL@DV?$ChTraitsCRT@D@ATL@@@@@ATL@@QAAXPBDZZ
  002c6	ff d0		 call	 eax
  002c8	83 c4 18	 add	 esp, 24			; 00000018H
  002cb	8d 4d c0	 lea	 ecx, DWORD PTR $T15[ebp]
  002ce	ff 15 00 00 00
	00		 call	 DWORD PTR __imp_??1?$CStringT@DV?$StrTraitMFC_DLL@DV?$ChTraitsCRT@D@ATL@@@@@ATL@@QAE@XZ
  002d4	8d 4d c4	 lea	 ecx, DWORD PTR $T19[ebp]
  002d7	ff 15 00 00 00
	00		 call	 DWORD PTR __imp_??1?$CStringT@DV?$StrTraitMFC_DLL@DV?$ChTraitsCRT@D@ATL@@@@@ATL@@QAE@XZ
  002dd	8d 4d ac	 lea	 ecx, DWORD PTR $T3[ebp]
  002e0	ff 15 00 00 00
	00		 call	 DWORD PTR __imp_??1?$CStringT@DV?$StrTraitMFC_DLL@DV?$ChTraitsCRT@D@ATL@@@@@ATL@@QAE@XZ
  002e6	8d 4d bc	 lea	 ecx, DWORD PTR $T9[ebp]

; 1207 : 				}

  002e9	e9 8c 00 00 00	 jmp	 $LN152@SetXDateTi
$LN18@SetXDateTi:

; 1208 : 				else 
; 1209 : 				{
; 1210 : 					strFormat.Format(_T("%s/%s-%s:%s"),strXValue.Left(2),strXValue.Mid(2,2), strXValue.Mid(4,2),strXValue.Mid(6,2));

  002ee	6a 06		 push	 6
  002f0	8d 45 c4	 lea	 eax, DWORD PTR $T18[ebp]
  002f3	50		 push	 eax
  002f4	ff 15 00 00 00
	00		 call	 DWORD PTR __imp_?Mid@?$CStringT@DV?$StrTraitMFC_DLL@DV?$ChTraitsCRT@D@ATL@@@@@ATL@@QBE?AV12@HH@Z
  002fa	8b d8		 mov	 ebx, eax
  002fc	6a 02		 push	 2
  002fe	6a 04		 push	 4
  00300	8d 45 c0	 lea	 eax, DWORD PTR $T14[ebp]
  00303	c6 45 fc 0d	 mov	 BYTE PTR __$EHRec$[ebp+8], 13 ; 0000000dH
  00307	50		 push	 eax
  00308	8d 4d c8	 lea	 ecx, DWORD PTR _strXValue$[ebp]
  0030b	ff 15 00 00 00
	00		 call	 DWORD PTR __imp_?Mid@?$CStringT@DV?$StrTraitMFC_DLL@DV?$ChTraitsCRT@D@ATL@@@@@ATL@@QBE?AV12@HH@Z
  00311	8b f8		 mov	 edi, eax
  00313	6a 02		 push	 2
  00315	6a 02		 push	 2
  00317	8d 45 ac	 lea	 eax, DWORD PTR $T2[ebp]
  0031a	c6 45 fc 0e	 mov	 BYTE PTR __$EHRec$[ebp+8], 14 ; 0000000eH
  0031e	50		 push	 eax
  0031f	8d 4d c8	 lea	 ecx, DWORD PTR _strXValue$[ebp]
  00322	ff 15 00 00 00
	00		 call	 DWORD PTR __imp_?Mid@?$CStringT@DV?$StrTraitMFC_DLL@DV?$ChTraitsCRT@D@ATL@@@@@ATL@@QBE?AV12@HH@Z
  00328	8b f0		 mov	 esi, eax
  0032a	6a 02		 push	 2
  0032c	8d 45 bc	 lea	 eax, DWORD PTR $T8[ebp]
  0032f	c6 45 fc 0f	 mov	 BYTE PTR __$EHRec$[ebp+8], 15 ; 0000000fH
  00333	50		 push	 eax
  00334	8d 4d c8	 lea	 ecx, DWORD PTR _strXValue$[ebp]
  00337	ff 15 00 00 00
	00		 call	 DWORD PTR __imp_?Left@?$CStringT@DV?$StrTraitMFC_DLL@DV?$ChTraitsCRT@D@ATL@@@@@ATL@@QBE?AV12@H@Z
  0033d	ff 33		 push	 DWORD PTR [ebx]
  0033f	c6 45 fc 10	 mov	 BYTE PTR __$EHRec$[ebp+8], 16 ; 00000010H
  00343	ff 37		 push	 DWORD PTR [edi]
  00345	ff 36		 push	 DWORD PTR [esi]
  00347	ff 30		 push	 DWORD PTR [eax]
  00349	8d 45 b8	 lea	 eax, DWORD PTR _strFormat$7[ebp]
  0034c	68 00 00 00 00	 push	 OFFSET ??_C@_0M@NFOMEIHF@?$CFs?1?$CFs?9?$CFs?3?$CFs@
  00351	50		 push	 eax
  00352	a1 00 00 00 00	 mov	 eax, DWORD PTR __imp_?Format@?$CStringT@DV?$StrTraitMFC_DLL@DV?$ChTraitsCRT@D@ATL@@@@@ATL@@QAAXPBDZZ
  00357	ff d0		 call	 eax
  00359	83 c4 18	 add	 esp, 24			; 00000018H
  0035c	8d 4d bc	 lea	 ecx, DWORD PTR $T8[ebp]
  0035f	ff 15 00 00 00
	00		 call	 DWORD PTR __imp_??1?$CStringT@DV?$StrTraitMFC_DLL@DV?$ChTraitsCRT@D@ATL@@@@@ATL@@QAE@XZ
  00365	8d 4d ac	 lea	 ecx, DWORD PTR $T2[ebp]
  00368	ff 15 00 00 00
	00		 call	 DWORD PTR __imp_??1?$CStringT@DV?$StrTraitMFC_DLL@DV?$ChTraitsCRT@D@ATL@@@@@ATL@@QAE@XZ
  0036e	8d 4d c0	 lea	 ecx, DWORD PTR $T14[ebp]
  00371	ff 15 00 00 00
	00		 call	 DWORD PTR __imp_??1?$CStringT@DV?$StrTraitMFC_DLL@DV?$ChTraitsCRT@D@ATL@@@@@ATL@@QAE@XZ
  00377	8d 4d c4	 lea	 ecx, DWORD PTR $T18[ebp]
$LN152@SetXDateTi:

; 1211 : 				}
; 1212 : 				// 2011.01.06 by SYS <<
; 1213 : 			}
; 1214 : 			//
; 1215 : 			
; 1216 : 			if(nIndex == 0)

  0037a	c6 45 fc 01	 mov	 BYTE PTR __$EHRec$[ebp+8], 1
  0037e	ff 15 00 00 00
	00		 call	 DWORD PTR __imp_??1?$CStringT@DV?$StrTraitMFC_DLL@DV?$ChTraitsCRT@D@ATL@@@@@ATL@@QAE@XZ
  00384	8b 5d b4	 mov	 ebx, DWORD PTR _this$GSCopy$1$[ebp]
$LN19@SetXDateTi:
  00387	8b 45 10	 mov	 eax, DWORD PTR _nIndex$[ebp]
  0038a	85 c0		 test	 eax, eax
  0038c	75 23		 jne	 SHORT $LN20@SetXDateTi

; 1217 : 			{
; 1218 : 				m_ctrlEditXValue1.ShowWindow(SW_SHOW);

  0038e	6a 05		 push	 5
  00390	8d 8b d0 07 00
	00		 lea	 ecx, DWORD PTR [ebx+2000]
  00396	e8 00 00 00 00	 call	 ?ShowWindow@CWnd@@QAEHH@Z ; CWnd::ShowWindow

; 1219 : 				m_ctrlEditXValue1.SetWindowText(strFormat);

  0039b	ff 75 b8	 push	 DWORD PTR _strFormat$7[ebp]
  0039e	8d 8b d0 07 00
	00		 lea	 ecx, DWORD PTR [ebx+2000]
  003a4	e8 00 00 00 00	 call	 ?SetWindowTextA@CWnd@@QAEXPBD@Z ; CWnd::SetWindowTextA

; 1220 : 				m_ctrlEditXValue1.EnableWindow(FALSE);

  003a9	8d 8b d0 07 00
	00		 lea	 ecx, DWORD PTR [ebx+2000]

; 1221 : 			}

  003af	eb 4e		 jmp	 SHORT $LN153@SetXDateTi
$LN20@SetXDateTi:

; 1222 : 			else if(nIndex == 1)

  003b1	83 f8 01	 cmp	 eax, 1
  003b4	75 23		 jne	 SHORT $LN22@SetXDateTi

; 1223 : 			{
; 1224 : 				m_ctrlEditXValue2.ShowWindow(SW_SHOW);

  003b6	6a 05		 push	 5
  003b8	8d 8b 50 08 00
	00		 lea	 ecx, DWORD PTR [ebx+2128]
  003be	e8 00 00 00 00	 call	 ?ShowWindow@CWnd@@QAEHH@Z ; CWnd::ShowWindow

; 1225 : 				m_ctrlEditXValue2.SetWindowText(strFormat);

  003c3	ff 75 b8	 push	 DWORD PTR _strFormat$7[ebp]
  003c6	8d 8b 50 08 00
	00		 lea	 ecx, DWORD PTR [ebx+2128]
  003cc	e8 00 00 00 00	 call	 ?SetWindowTextA@CWnd@@QAEXPBD@Z ; CWnd::SetWindowTextA

; 1226 : 				m_ctrlEditXValue2.EnableWindow(FALSE);

  003d1	8d 8b 50 08 00
	00		 lea	 ecx, DWORD PTR [ebx+2128]

; 1227 : 			}

  003d7	eb 26		 jmp	 SHORT $LN153@SetXDateTi
$LN22@SetXDateTi:

; 1228 : 			else if(nIndex == 2)

  003d9	83 f8 02	 cmp	 eax, 2
  003dc	75 28		 jne	 SHORT $LN24@SetXDateTi

; 1229 : 			{
; 1230 : 				m_ctrlEditXValue3.ShowWindow(SW_SHOW);

  003de	6a 05		 push	 5
  003e0	8d 8b d0 08 00
	00		 lea	 ecx, DWORD PTR [ebx+2256]
  003e6	e8 00 00 00 00	 call	 ?ShowWindow@CWnd@@QAEHH@Z ; CWnd::ShowWindow

; 1231 : 				m_ctrlEditXValue3.SetWindowText(strFormat);

  003eb	ff 75 b8	 push	 DWORD PTR _strFormat$7[ebp]
  003ee	8d 8b d0 08 00
	00		 lea	 ecx, DWORD PTR [ebx+2256]
  003f4	e8 00 00 00 00	 call	 ?SetWindowTextA@CWnd@@QAEXPBD@Z ; CWnd::SetWindowTextA

; 1232 : 				m_ctrlEditXValue3.EnableWindow(FALSE);

  003f9	8d 8b d0 08 00
	00		 lea	 ecx, DWORD PTR [ebx+2256]
$LN153@SetXDateTi:

; 1233 : 			}
; 1234 : 		}

  003ff	6a 00		 push	 0
  00401	e8 00 00 00 00	 call	 ?EnableWindow@CWnd@@QAEHH@Z ; CWnd::EnableWindow
$LN24@SetXDateTi:
  00406	8d 4d b8	 lea	 ecx, DWORD PTR _strFormat$7[ebp]
  00409	ff 15 00 00 00
	00		 call	 DWORD PTR __imp_??1?$CStringT@DV?$StrTraitMFC_DLL@DV?$ChTraitsCRT@D@ATL@@@@@ATL@@QAE@XZ
  0040f	e9 24 01 00 00	 jmp	 $LN11@SetXDateTi
$LN5@SetXDateTi:

; 1152 : 			m_nDataPeriod == CScaleBaseData::HORZ_MONTHLY)
; 1153 : 		{
; 1154 : 			if(nIndex == 0)

  00414	8b 7d 10	 mov	 edi, DWORD PTR _nIndex$[ebp]
  00417	85 ff		 test	 edi, edi
  00419	75 24		 jne	 SHORT $LN6@SetXDateTi

; 1155 : 			{
; 1156 : 				m_ctrlEditXValue1.ShowWindow(SW_HIDE);

  0041b	57		 push	 edi
  0041c	8d 8b d0 07 00
	00		 lea	 ecx, DWORD PTR [ebx+2000]
  00422	e8 00 00 00 00	 call	 ?ShowWindow@CWnd@@QAEHH@Z ; CWnd::ShowWindow

; 1157 : 				m_ctrlEditXValue2.ShowWindow(SW_HIDE);

  00427	57		 push	 edi
  00428	8d 8b 50 08 00
	00		 lea	 ecx, DWORD PTR [ebx+2128]
  0042e	e8 00 00 00 00	 call	 ?ShowWindow@CWnd@@QAEHH@Z ; CWnd::ShowWindow

; 1158 : 				m_ctrlEditXValue3.ShowWindow(SW_HIDE);

  00433	57		 push	 edi
  00434	8d 8b d0 08 00
	00		 lea	 ecx, DWORD PTR [ebx+2256]
  0043a	e8 00 00 00 00	 call	 ?ShowWindow@CWnd@@QAEHH@Z ; CWnd::ShowWindow
$LN6@SetXDateTi:

; 1159 : 			}
; 1160 : 
; 1161 : 			int nYear = atoi(strXValue.Left(4));

  0043f	6a 04		 push	 4
  00441	8d 45 bc	 lea	 eax, DWORD PTR $T12[ebp]
  00444	50		 push	 eax
  00445	8d 4d c8	 lea	 ecx, DWORD PTR _strXValue$[ebp]
  00448	ff 15 00 00 00
	00		 call	 DWORD PTR __imp_?Left@?$CStringT@DV?$StrTraitMFC_DLL@DV?$ChTraitsCRT@D@ATL@@@@@ATL@@QBE?AV12@H@Z
  0044e	8b 35 00 00 00
	00		 mov	 esi, DWORD PTR __imp__atoi
  00454	ff 30		 push	 DWORD PTR [eax]
  00456	ff d6		 call	 esi
  00458	83 c4 04	 add	 esp, 4
  0045b	89 45 ac	 mov	 DWORD PTR _nYear$1$[ebp], eax
  0045e	8d 4d bc	 lea	 ecx, DWORD PTR $T12[ebp]
  00461	ff 15 00 00 00
	00		 call	 DWORD PTR __imp_??1?$CStringT@DV?$StrTraitMFC_DLL@DV?$ChTraitsCRT@D@ATL@@@@@ATL@@QAE@XZ

; 1162 : 			int nMonth = atoi(strXValue.Mid(4,2));

  00467	6a 02		 push	 2
  00469	6a 04		 push	 4
  0046b	8d 45 bc	 lea	 eax, DWORD PTR $T11[ebp]
  0046e	50		 push	 eax
  0046f	8d 4d c8	 lea	 ecx, DWORD PTR _strXValue$[ebp]
  00472	ff 15 00 00 00
	00		 call	 DWORD PTR __imp_?Mid@?$CStringT@DV?$StrTraitMFC_DLL@DV?$ChTraitsCRT@D@ATL@@@@@ATL@@QBE?AV12@HH@Z
  00478	ff 30		 push	 DWORD PTR [eax]
  0047a	ff d6		 call	 esi
  0047c	83 c4 04	 add	 esp, 4
  0047f	89 45 c0	 mov	 DWORD PTR _nMonth$1$[ebp], eax
  00482	8d 4d bc	 lea	 ecx, DWORD PTR $T11[ebp]
  00485	ff 15 00 00 00
	00		 call	 DWORD PTR __imp_??1?$CStringT@DV?$StrTraitMFC_DLL@DV?$ChTraitsCRT@D@ATL@@@@@ATL@@QAE@XZ

; 1163 : 			int nDay = atoi(strXValue.Mid(6,2));

  0048b	6a 02		 push	 2
  0048d	6a 06		 push	 6
  0048f	8d 45 bc	 lea	 eax, DWORD PTR $T10[ebp]
  00492	50		 push	 eax
  00493	8d 4d c8	 lea	 ecx, DWORD PTR _strXValue$[ebp]
  00496	ff 15 00 00 00
	00		 call	 DWORD PTR __imp_?Mid@?$CStringT@DV?$StrTraitMFC_DLL@DV?$ChTraitsCRT@D@ATL@@@@@ATL@@QBE?AV12@HH@Z
  0049c	ff 30		 push	 DWORD PTR [eax]
  0049e	ff d6		 call	 esi
  004a0	83 c4 04	 add	 esp, 4
  004a3	8d 4d bc	 lea	 ecx, DWORD PTR $T10[ebp]
  004a6	8b f0		 mov	 esi, eax
  004a8	ff 15 00 00 00
	00		 call	 DWORD PTR __imp_??1?$CStringT@DV?$StrTraitMFC_DLL@DV?$ChTraitsCRT@D@ATL@@@@@ATL@@QAE@XZ
; File C:\Program Files (x86)\Microsoft Visual Studio\2019\Community\VC\Tools\MSVC\14.29.30133\atlmfc\include\atltime.h

; 433  : 	ATLENSURE( nYear >= 1970 );

  004ae	8b 55 ac	 mov	 edx, DWORD PTR _nYear$1$[ebp]
; File D:\git\src\IBK\IBK_DRFN\ProjSrc\SrcChartEx\ChartAddIn\ChartAnalysisToolAddIn\AnalysisTool\DlgAnalysisToolSet.cpp

; 1165 : 			CTime stime(nYear,nMonth,max(1,nDay),0,0,0);

  004b1	b8 01 00 00 00	 mov	 eax, 1
  004b6	3b f0		 cmp	 esi, eax
  004b8	0f 4c f0	 cmovl	 esi, eax
; File C:\Program Files (x86)\Microsoft Visual Studio\2019\Community\VC\Tools\MSVC\14.29.30133\atlmfc\include\atltime.h

; 433  : 	ATLENSURE( nYear >= 1970 );

  004bb	81 fa b2 07 00
	00		 cmp	 edx, 1970		; 000007b2H
  004c1	0f 8c ba 00 00
	00		 jl	 $LN108@SetXDateTi

; 434  : 	ATLENSURE( nMonth >= 1 && nMonth <= 12 );

  004c7	8b 4d c0	 mov	 ecx, DWORD PTR _nMonth$1$[ebp]
  004ca	49		 dec	 ecx
  004cb	83 f9 0b	 cmp	 ecx, 11			; 0000000bH
  004ce	0f 87 ad 00 00
	00		 ja	 $LN108@SetXDateTi

; 435  : 	ATLENSURE( nDay >= 1 && nDay <= 31 );

  004d4	8d 46 ff	 lea	 eax, DWORD PTR [esi-1]
  004d7	83 f8 1e	 cmp	 eax, 30			; 0000001eH
  004da	0f 87 a1 00 00
	00		 ja	 $LN108@SetXDateTi

; 436  : 	ATLENSURE( nHour >= 0 && nHour <= 23 );
; 437  : 	ATLENSURE( nMin >= 0 && nMin <= 59 );
; 438  : 	ATLENSURE( nSec >= 0 && nSec <= 59 );
; 439  : 
; 440  : #pragma warning (pop)
; 441  : 
; 442  : 	struct tm atm;
; 443  : 
; 444  : 	atm.tm_sec = nSec;
; 445  : 	atm.tm_min = nMin;
; 446  : 	atm.tm_hour = nHour;
; 447  : 	atm.tm_mday = nDay;
; 448  : 	atm.tm_mon = nMonth - 1;        // tm_mon is 0 based
; 449  : 	atm.tm_year = nYear - 1900;     // tm_year is 1900 based

  004e0	8d 82 94 f8 ff
	ff		 lea	 eax, DWORD PTR [edx-1900]
  004e6	c7 45 cc 00 00
	00 00		 mov	 DWORD PTR _atm$23[ebp], 0
  004ed	89 45 e0	 mov	 DWORD PTR _atm$23[ebp+20], eax

; 450  : 	atm.tm_isdst = nDST;
; 451  : 
; 452  : 	m_time = _mktime64(&atm);

  004f0	8d 45 cc	 lea	 eax, DWORD PTR _atm$23[ebp]
  004f3	50		 push	 eax
  004f4	c7 45 d0 00 00
	00 00		 mov	 DWORD PTR _atm$23[ebp+4], 0
  004fb	c7 45 d4 00 00
	00 00		 mov	 DWORD PTR _atm$23[ebp+8], 0
  00502	89 75 d8	 mov	 DWORD PTR _atm$23[ebp+12], esi
  00505	89 4d dc	 mov	 DWORD PTR _atm$23[ebp+16], ecx
  00508	c7 45 ec ff ff
	ff ff		 mov	 DWORD PTR _atm$23[ebp+32], -1
  0050f	ff 15 00 00 00
	00		 call	 DWORD PTR __imp___mktime64
  00515	89 45 b0	 mov	 DWORD PTR _stime$4[ebp], eax
  00518	83 c4 04	 add	 esp, 4

; 453  : 	ATLASSUME(m_time != -1);       // indicates an illegal input time
; 454  : 	if(m_time == -1)

  0051b	23 c2		 and	 eax, edx
  0051d	89 55 b4	 mov	 DWORD PTR _stime$4[ebp+4], edx
  00520	83 f8 ff	 cmp	 eax, -1
  00523	74 66		 je	 SHORT $LN156@SetXDateTi
; File D:\git\src\IBK\IBK_DRFN\ProjSrc\SrcChartEx\ChartAddIn\ChartAnalysisToolAddIn\AnalysisTool\DlgAnalysisToolSet.cpp

; 1166 : 			if(nIndex == 0)

  00525	85 ff		 test	 edi, edi
  00527	75 36		 jne	 SHORT $LN7@SetXDateTi

; 1167 : 				m_ctrlXDateTime1.SetTime(&stime);	

  00529	8d 45 b0	 lea	 eax, DWORD PTR _stime$4[ebp]
  0052c	50		 push	 eax
  0052d	8d 8b d0 0a 00
	00		 lea	 ecx, DWORD PTR [ebx+2768]
$LN154@SetXDateTi:

; 1236 : }

  00533	e8 00 00 00 00	 call	 ?SetTime@CDateTimeCtrl@@QAEHPBVCTime@ATL@@@Z ; CDateTimeCtrl::SetTime
$LN11@SetXDateTi:
  00538	8d 4d c8	 lea	 ecx, DWORD PTR _strXValue$[ebp]
  0053b	ff 15 00 00 00
	00		 call	 DWORD PTR __imp_??1?$CStringT@DV?$StrTraitMFC_DLL@DV?$ChTraitsCRT@D@ATL@@@@@ATL@@QAE@XZ
  00541	8b 4d f4	 mov	 ecx, DWORD PTR __$EHRec$[ebp]
  00544	64 89 0d 00 00
	00 00		 mov	 DWORD PTR fs:0, ecx
  0054b	59		 pop	 ecx
  0054c	5f		 pop	 edi
  0054d	5e		 pop	 esi
  0054e	5b		 pop	 ebx
  0054f	8b 4d f0	 mov	 ecx, DWORD PTR __$ArrayPad$[ebp]
  00552	33 cd		 xor	 ecx, ebp
  00554	e8 00 00 00 00	 call	 @__security_check_cookie@4
  00559	8b e5		 mov	 esp, ebp
  0055b	5d		 pop	 ebp
  0055c	c2 0c 00	 ret	 12			; 0000000cH
$LN7@SetXDateTi:

; 1168 : 			else if(nIndex == 1)

  0055f	83 ff 01	 cmp	 edi, 1
  00562	75 0c		 jne	 SHORT $LN9@SetXDateTi

; 1169 : 				m_ctrlXDateTime2.SetTime(&stime);	

  00564	8d 45 b0	 lea	 eax, DWORD PTR _stime$4[ebp]
  00567	50		 push	 eax
  00568	8d 8b 50 0b 00
	00		 lea	 ecx, DWORD PTR [ebx+2896]
  0056e	eb c3		 jmp	 SHORT $LN154@SetXDateTi
$LN9@SetXDateTi:

; 1170 : 			else if(nIndex == 2)

  00570	83 ff 02	 cmp	 edi, 2
  00573	75 c3		 jne	 SHORT $LN11@SetXDateTi

; 1171 : 				m_ctrlXDateTime3.SetTime(&stime);	

  00575	8d 45 b0	 lea	 eax, DWORD PTR _stime$4[ebp]
  00578	50		 push	 eax
  00579	8d 8b d0 0b 00
	00		 lea	 ecx, DWORD PTR [ebx+3024]
  0057f	eb b2		 jmp	 SHORT $LN154@SetXDateTi
$LN108@SetXDateTi:
; File C:\Program Files (x86)\Microsoft Visual Studio\2019\Community\VC\Tools\MSVC\14.29.30133\atlmfc\include\atltime.h

; 435  : 	ATLENSURE( nDay >= 1 && nDay <= 31 );

  00581	68 05 40 00 80	 push	 -2147467259		; 80004005H
  00586	e8 00 00 00 00	 call	 ?AtlThrowImpl@ATL@@YGXJ@Z ; ATL::AtlThrowImpl
$LN156@SetXDateTi:

; 455  : 	{
; 456  : 		AtlThrow(E_INVALIDARG);

  0058b	68 57 00 07 80	 push	 -2147024809		; 80070057H
  00590	e8 00 00 00 00	 call	 ?AtlThrowImpl@ATL@@YGXJ@Z ; ATL::AtlThrowImpl
$LN151@SetXDateTi:
  00595	cc		 int	 3
_TEXT	ENDS
;	COMDAT text$x
text$x	SEGMENT
__unwindfunclet$?SetXDateTime@CDlgAnalysisToolSet@@IAEXNH@Z$0:
  00000	8d 4d c8	 lea	 ecx, DWORD PTR _strXValue$[ebp]
  00003	ff 25 00 00 00
	00		 jmp	 DWORD PTR __imp_??1?$CStringT@DV?$StrTraitMFC_DLL@DV?$ChTraitsCRT@D@ATL@@@@@ATL@@QAE@XZ
__unwindfunclet$?SetXDateTime@CDlgAnalysisToolSet@@IAEXNH@Z$4:
  00009	8d 4d b8	 lea	 ecx, DWORD PTR _strFormat$7[ebp]
  0000c	ff 25 00 00 00
	00		 jmp	 DWORD PTR __imp_??1?$CStringT@DV?$StrTraitMFC_DLL@DV?$ChTraitsCRT@D@ATL@@@@@ATL@@QAE@XZ
__unwindfunclet$?SetXDateTime@CDlgAnalysisToolSet@@IAEXNH@Z$5:
  00012	8d 4d c0	 lea	 ecx, DWORD PTR $T17[ebp]
  00015	ff 25 00 00 00
	00		 jmp	 DWORD PTR __imp_??1?$CStringT@DV?$StrTraitMFC_DLL@DV?$ChTraitsCRT@D@ATL@@@@@ATL@@QAE@XZ
__unwindfunclet$?SetXDateTime@CDlgAnalysisToolSet@@IAEXNH@Z$6:
  0001b	8d 4d c4	 lea	 ecx, DWORD PTR $T22[ebp]
  0001e	ff 25 00 00 00
	00		 jmp	 DWORD PTR __imp_??1?$CStringT@DV?$StrTraitMFC_DLL@DV?$ChTraitsCRT@D@ATL@@@@@ATL@@QAE@XZ
__unwindfunclet$?SetXDateTime@CDlgAnalysisToolSet@@IAEXNH@Z$7:
  00024	8d 4d b4	 lea	 ecx, DWORD PTR $T6[ebp]
  00027	ff 25 00 00 00
	00		 jmp	 DWORD PTR __imp_??1?$CStringT@DV?$StrTraitMFC_DLL@DV?$ChTraitsCRT@D@ATL@@@@@ATL@@QAE@XZ
__unwindfunclet$?SetXDateTime@CDlgAnalysisToolSet@@IAEXNH@Z$8:
  0002d	8d 4d c4	 lea	 ecx, DWORD PTR $T21[ebp]
  00030	ff 25 00 00 00
	00		 jmp	 DWORD PTR __imp_??1?$CStringT@DV?$StrTraitMFC_DLL@DV?$ChTraitsCRT@D@ATL@@@@@ATL@@QAE@XZ
__unwindfunclet$?SetXDateTime@CDlgAnalysisToolSet@@IAEXNH@Z$9:
  00036	8d 4d b4	 lea	 ecx, DWORD PTR $T5[ebp]
  00039	ff 25 00 00 00
	00		 jmp	 DWORD PTR __imp_??1?$CStringT@DV?$StrTraitMFC_DLL@DV?$ChTraitsCRT@D@ATL@@@@@ATL@@QAE@XZ
__unwindfunclet$?SetXDateTime@CDlgAnalysisToolSet@@IAEXNH@Z$10:
  0003f	8d 4d c0	 lea	 ecx, DWORD PTR $T16[ebp]
  00042	ff 25 00 00 00
	00		 jmp	 DWORD PTR __imp_??1?$CStringT@DV?$StrTraitMFC_DLL@DV?$ChTraitsCRT@D@ATL@@@@@ATL@@QAE@XZ
__unwindfunclet$?SetXDateTime@CDlgAnalysisToolSet@@IAEXNH@Z$20:
  00048	8b 45 c0	 mov	 eax, DWORD PTR $T13[ebp]
  0004b	83 e0 01	 and	 eax, 1
  0004e	0f 84 0d 00 00
	00		 je	 $LN128@SetXDateTi
  00054	83 65 c0 fe	 and	 DWORD PTR $T13[ebp], -2	; fffffffeH
  00058	8d 4d c4	 lea	 ecx, DWORD PTR $T20[ebp]
  0005b	ff 25 00 00 00
	00		 jmp	 DWORD PTR __imp_??1?$CStringT@DV?$StrTraitMFC_DLL@DV?$ChTraitsCRT@D@ATL@@@@@ATL@@QAE@XZ
$LN128@SetXDateTi:
  00061	c3		 ret	 0
__unwindfunclet$?SetXDateTime@CDlgAnalysisToolSet@@IAEXNH@Z$12:
  00062	8d 4d bc	 lea	 ecx, DWORD PTR $T9[ebp]
  00065	ff 25 00 00 00
	00		 jmp	 DWORD PTR __imp_??1?$CStringT@DV?$StrTraitMFC_DLL@DV?$ChTraitsCRT@D@ATL@@@@@ATL@@QAE@XZ
__unwindfunclet$?SetXDateTime@CDlgAnalysisToolSet@@IAEXNH@Z$13:
  0006b	8d 4d ac	 lea	 ecx, DWORD PTR $T3[ebp]
  0006e	ff 25 00 00 00
	00		 jmp	 DWORD PTR __imp_??1?$CStringT@DV?$StrTraitMFC_DLL@DV?$ChTraitsCRT@D@ATL@@@@@ATL@@QAE@XZ
__unwindfunclet$?SetXDateTime@CDlgAnalysisToolSet@@IAEXNH@Z$14:
  00074	8d 4d c4	 lea	 ecx, DWORD PTR $T19[ebp]
  00077	ff 25 00 00 00
	00		 jmp	 DWORD PTR __imp_??1?$CStringT@DV?$StrTraitMFC_DLL@DV?$ChTraitsCRT@D@ATL@@@@@ATL@@QAE@XZ
__unwindfunclet$?SetXDateTime@CDlgAnalysisToolSet@@IAEXNH@Z$15:
  0007d	8d 4d c0	 lea	 ecx, DWORD PTR $T15[ebp]
  00080	ff 25 00 00 00
	00		 jmp	 DWORD PTR __imp_??1?$CStringT@DV?$StrTraitMFC_DLL@DV?$ChTraitsCRT@D@ATL@@@@@ATL@@QAE@XZ
__unwindfunclet$?SetXDateTime@CDlgAnalysisToolSet@@IAEXNH@Z$16:
  00086	8d 4d c4	 lea	 ecx, DWORD PTR $T18[ebp]
  00089	ff 25 00 00 00
	00		 jmp	 DWORD PTR __imp_??1?$CStringT@DV?$StrTraitMFC_DLL@DV?$ChTraitsCRT@D@ATL@@@@@ATL@@QAE@XZ
__unwindfunclet$?SetXDateTime@CDlgAnalysisToolSet@@IAEXNH@Z$17:
  0008f	8d 4d c0	 lea	 ecx, DWORD PTR $T14[ebp]
  00092	ff 25 00 00 00
	00		 jmp	 DWORD PTR __imp_??1?$CStringT@DV?$StrTraitMFC_DLL@DV?$ChTraitsCRT@D@ATL@@@@@ATL@@QAE@XZ
__unwindfunclet$?SetXDateTime@CDlgAnalysisToolSet@@IAEXNH@Z$18:
  00098	8d 4d ac	 lea	 ecx, DWORD PTR $T2[ebp]
  0009b	ff 25 00 00 00
	00		 jmp	 DWORD PTR __imp_??1?$CStringT@DV?$StrTraitMFC_DLL@DV?$ChTraitsCRT@D@ATL@@@@@ATL@@QAE@XZ
__unwindfunclet$?SetXDateTime@CDlgAnalysisToolSet@@IAEXNH@Z$19:
  000a1	8d 4d bc	 lea	 ecx, DWORD PTR $T8[ebp]
  000a4	ff 25 00 00 00
	00		 jmp	 DWORD PTR __imp_??1?$CStringT@DV?$StrTraitMFC_DLL@DV?$ChTraitsCRT@D@ATL@@@@@ATL@@QAE@XZ
  000aa	cc		 int	 3
  000ab	cc		 int	 3
  000ac	cc		 int	 3
  000ad	cc		 int	 3
  000ae	cc		 int	 3
__ehhandler$?SetXDateTime@CDlgAnalysisToolSet@@IAEXNH@Z:
  000af	90		 npad	 1
  000b0	90		 npad	 1
  000b1	8b 54 24 08	 mov	 edx, DWORD PTR [esp+8]
  000b5	8d 42 0c	 lea	 eax, DWORD PTR [edx+12]
  000b8	8b 4a a8	 mov	 ecx, DWORD PTR [edx-88]
  000bb	33 c8		 xor	 ecx, eax
  000bd	e8 00 00 00 00	 call	 @__security_check_cookie@4
  000c2	8b 4a fc	 mov	 ecx, DWORD PTR [edx-4]
  000c5	33 c8		 xor	 ecx, eax
  000c7	e8 00 00 00 00	 call	 @__security_check_cookie@4
  000cc	b8 00 00 00 00	 mov	 eax, OFFSET __ehfuncinfo$?SetXDateTime@CDlgAnalysisToolSet@@IAEXNH@Z
  000d1	e9 00 00 00 00	 jmp	 ___CxxFrameHandler3
text$x	ENDS
?SetXDateTime@CDlgAnalysisToolSet@@IAEXNH@Z ENDP	; CDlgAnalysisToolSet::SetXDateTime
; Function compile flags: /Ogtp
; File D:\git\src\IBK\IBK_DRFN\ProjSrc\SrcChartEx\ChartAddIn\ChartAnalysisToolAddIn\AnalysisTool\DlgAnalysisToolSet.cpp
; File C:\Program Files (x86)\Microsoft Visual Studio\2019\Community\VC\Tools\MSVC\14.29.30133\atlmfc\include\atlsimpstr.h
; File D:\git\src\IBK\IBK_DRFN\ProjSrc\SrcChartEx\ChartAddIn\ChartAnalysisToolAddIn\AnalysisTool\DlgAnalysisToolSet.cpp
;	COMDAT ?SetYValue@CDlgAnalysisToolSet@@IAEXNH@Z
_TEXT	SEGMENT
$T2 = -24						; size = 4
$T3 = -20						; size = 4
_strYValue$ = -16					; size = 4
__$EHRec$ = -12						; size = 12
_dYValue$ = 8						; size = 8
_nIndex$ = 16						; size = 4
?SetYValue@CDlgAnalysisToolSet@@IAEXNH@Z PROC		; CDlgAnalysisToolSet::SetYValue, COMDAT
; _this$ = ecx

; 1239 : {

  00000	55		 push	 ebp
  00001	8b ec		 mov	 ebp, esp
  00003	6a ff		 push	 -1
  00005	68 00 00 00 00	 push	 __ehhandler$?SetYValue@CDlgAnalysisToolSet@@IAEXNH@Z
  0000a	64 a1 00 00 00
	00		 mov	 eax, DWORD PTR fs:0
  00010	50		 push	 eax
  00011	83 ec 0c	 sub	 esp, 12			; 0000000cH
  00014	56		 push	 esi
  00015	a1 00 00 00 00	 mov	 eax, DWORD PTR ___security_cookie
  0001a	33 c5		 xor	 eax, ebp
  0001c	50		 push	 eax
  0001d	8d 45 f4	 lea	 eax, DWORD PTR __$EHRec$[ebp]
  00020	64 a3 00 00 00
	00		 mov	 DWORD PTR fs:0, eax
  00026	8b f1		 mov	 esi, ecx

; 1240 : 	CString strYValue;

  00028	8d 4d f0	 lea	 ecx, DWORD PTR _strYValue$[ebp]
  0002b	ff 15 00 00 00
	00		 call	 DWORD PTR __imp_??0?$CStringT@DV?$StrTraitMFC_DLL@DV?$ChTraitsCRT@D@ATL@@@@@ATL@@QAE@XZ

; 1241 : 	// 20080911 	       
; 1242 : 	//	strYValue.Format(_T("%.f"),dYValue);
; 1243 : 	// 2008.10.15 by LYH >> 8,32bit
; 1244 : 	//strYValue.Format(_T("%f"),dYValue);
; 1245 : 	strYValue = CDataConversion::DoubleToString(dYValue, m_pDataEnvironment->GetStrVert());

  00031	8b 8e 88 0d 00
	00		 mov	 ecx, DWORD PTR [esi+3464]
  00037	8d 45 e8	 lea	 eax, DWORD PTR $T2[ebp]
  0003a	50		 push	 eax
  0003b	c7 45 fc 00 00
	00 00		 mov	 DWORD PTR __$EHRec$[ebp+8], 0
  00042	e8 00 00 00 00	 call	 ?GetStrVert@CDataTypeEnvironment@@QBE?AV?$CStringT@DV?$StrTraitMFC_DLL@DV?$ChTraitsCRT@D@ATL@@@@@ATL@@XZ ; CDataTypeEnvironment::GetStrVert
  00047	50		 push	 eax
  00048	8d 45 08	 lea	 eax, DWORD PTR _dYValue$[ebp]
  0004b	c6 45 fc 01	 mov	 BYTE PTR __$EHRec$[ebp+8], 1
  0004f	50		 push	 eax
  00050	8d 45 ec	 lea	 eax, DWORD PTR $T3[ebp]
  00053	50		 push	 eax
  00054	e8 00 00 00 00	 call	 ?DoubleToString@CDataConversion@@SA?AV?$CStringT@DV?$StrTraitMFC_DLL@DV?$ChTraitsCRT@D@ATL@@@@@ATL@@ABNABV23@@Z ; CDataConversion::DoubleToString
  00059	83 c4 0c	 add	 esp, 12			; 0000000cH
  0005c	50		 push	 eax
  0005d	8d 4d f0	 lea	 ecx, DWORD PTR _strYValue$[ebp]
  00060	c6 45 fc 02	 mov	 BYTE PTR __$EHRec$[ebp+8], 2
  00064	ff 15 00 00 00
	00		 call	 DWORD PTR __imp_??4?$CStringT@DV?$StrTraitMFC_DLL@DV?$ChTraitsCRT@D@ATL@@@@@ATL@@QAEAAV01@ABV01@@Z
  0006a	8d 4d ec	 lea	 ecx, DWORD PTR $T3[ebp]
  0006d	ff 15 00 00 00
	00		 call	 DWORD PTR __imp_??1?$CStringT@DV?$StrTraitMFC_DLL@DV?$ChTraitsCRT@D@ATL@@@@@ATL@@QAE@XZ
  00073	8d 4d e8	 lea	 ecx, DWORD PTR $T2[ebp]
  00076	c6 45 fc 00	 mov	 BYTE PTR __$EHRec$[ebp+8], 0
  0007a	ff 15 00 00 00
	00		 call	 DWORD PTR __imp_??1?$CStringT@DV?$StrTraitMFC_DLL@DV?$ChTraitsCRT@D@ATL@@@@@ATL@@QAE@XZ
; File C:\Program Files (x86)\Microsoft Visual Studio\2019\Community\VC\Tools\MSVC\14.29.30133\atlmfc\include\atlsimpstr.h

; 533  : 		return( GetLength() == 0 );

  00080	8b 45 f0	 mov	 eax, DWORD PTR _strYValue$[ebp]
  00083	83 78 f4 00	 cmp	 DWORD PTR [eax-12], 0
; File D:\git\src\IBK\IBK_DRFN\ProjSrc\SrcChartEx\ChartAddIn\ChartAnalysisToolAddIn\AnalysisTool\DlgAnalysisToolSet.cpp

; 1247 : 	if(strYValue.IsEmpty() == FALSE)

  00087	74 2d		 je	 SHORT $LN7@SetYValue

; 1248 : 	{	
; 1249 : 		if(nIndex == 0)

  00089	8b 4d 10	 mov	 ecx, DWORD PTR _nIndex$[ebp]
  0008c	85 c9		 test	 ecx, ecx
  0008e	75 08		 jne	 SHORT $LN3@SetYValue

; 1250 : 			m_ctrlEditValue1.SetWindowText(strYValue);	

  00090	8d 8e 50 09 00
	00		 lea	 ecx, DWORD PTR [esi+2384]
  00096	eb 18		 jmp	 SHORT $LN25@SetYValue
$LN3@SetYValue:

; 1251 : 		else if(nIndex == 1)

  00098	83 f9 01	 cmp	 ecx, 1
  0009b	75 08		 jne	 SHORT $LN5@SetYValue

; 1252 : 			m_ctrlEditValue2.SetWindowText(strYValue);	

  0009d	8d 8e d0 09 00
	00		 lea	 ecx, DWORD PTR [esi+2512]
  000a3	eb 0b		 jmp	 SHORT $LN25@SetYValue
$LN5@SetYValue:

; 1253 : 		else if(nIndex == 2)

  000a5	83 f9 02	 cmp	 ecx, 2
  000a8	75 0c		 jne	 SHORT $LN7@SetYValue

; 1254 : 			m_ctrlEditValue3.SetWindowText(strYValue);	

  000aa	8d 8e 50 0a 00
	00		 lea	 ecx, DWORD PTR [esi+2640]
$LN25@SetYValue:

; 1255 : 	}
; 1256 : }

  000b0	50		 push	 eax
  000b1	e8 00 00 00 00	 call	 ?SetWindowTextA@CWnd@@QAEXPBD@Z ; CWnd::SetWindowTextA
$LN7@SetYValue:
  000b6	8d 4d f0	 lea	 ecx, DWORD PTR _strYValue$[ebp]
  000b9	ff 15 00 00 00
	00		 call	 DWORD PTR __imp_??1?$CStringT@DV?$StrTraitMFC_DLL@DV?$ChTraitsCRT@D@ATL@@@@@ATL@@QAE@XZ
  000bf	8b 4d f4	 mov	 ecx, DWORD PTR __$EHRec$[ebp]
  000c2	64 89 0d 00 00
	00 00		 mov	 DWORD PTR fs:0, ecx
  000c9	59		 pop	 ecx
  000ca	5e		 pop	 esi
  000cb	8b e5		 mov	 esp, ebp
  000cd	5d		 pop	 ebp
  000ce	c2 0c 00	 ret	 12			; 0000000cH
_TEXT	ENDS
;	COMDAT text$x
text$x	SEGMENT
__unwindfunclet$?SetYValue@CDlgAnalysisToolSet@@IAEXNH@Z$0:
  00000	8d 4d f0	 lea	 ecx, DWORD PTR _strYValue$[ebp]
  00003	ff 25 00 00 00
	00		 jmp	 DWORD PTR __imp_??1?$CStringT@DV?$StrTraitMFC_DLL@DV?$ChTraitsCRT@D@ATL@@@@@ATL@@QAE@XZ
__unwindfunclet$?SetYValue@CDlgAnalysisToolSet@@IAEXNH@Z$1:
  00009	8d 4d e8	 lea	 ecx, DWORD PTR $T2[ebp]
  0000c	ff 25 00 00 00
	00		 jmp	 DWORD PTR __imp_??1?$CStringT@DV?$StrTraitMFC_DLL@DV?$ChTraitsCRT@D@ATL@@@@@ATL@@QAE@XZ
__unwindfunclet$?SetYValue@CDlgAnalysisToolSet@@IAEXNH@Z$2:
  00012	8d 4d ec	 lea	 ecx, DWORD PTR $T3[ebp]
  00015	ff 25 00 00 00
	00		 jmp	 DWORD PTR __imp_??1?$CStringT@DV?$StrTraitMFC_DLL@DV?$ChTraitsCRT@D@ATL@@@@@ATL@@QAE@XZ
  0001b	cc		 int	 3
  0001c	cc		 int	 3
  0001d	cc		 int	 3
  0001e	cc		 int	 3
  0001f	cc		 int	 3
__ehhandler$?SetYValue@CDlgAnalysisToolSet@@IAEXNH@Z:
  00020	90		 npad	 1
  00021	90		 npad	 1
  00022	8b 54 24 08	 mov	 edx, DWORD PTR [esp+8]
  00026	8d 42 0c	 lea	 eax, DWORD PTR [edx+12]
  00029	8b 4a ec	 mov	 ecx, DWORD PTR [edx-20]
  0002c	33 c8		 xor	 ecx, eax
  0002e	e8 00 00 00 00	 call	 @__security_check_cookie@4
  00033	b8 00 00 00 00	 mov	 eax, OFFSET __ehfuncinfo$?SetYValue@CDlgAnalysisToolSet@@IAEXNH@Z
  00038	e9 00 00 00 00	 jmp	 ___CxxFrameHandler3
text$x	ENDS
?SetYValue@CDlgAnalysisToolSet@@IAEXNH@Z ENDP		; CDlgAnalysisToolSet::SetYValue
; Function compile flags: /Ogtp
; File D:\git\src\IBK\IBK_DRFN\ProjSrc\SrcChartEx\ChartAddIn\ChartAnalysisToolAddIn\AnalysisTool\DlgAnalysisToolSet.cpp
;	COMDAT ?SetInitTextPosition@CDlgAnalysisToolSet@@IAEXPAVCTextPosition@@@Z
_TEXT	SEGMENT
_pTextPosition$ = 8					; size = 4
?SetInitTextPosition@CDlgAnalysisToolSet@@IAEXPAVCTextPosition@@@Z PROC ; CDlgAnalysisToolSet::SetInitTextPosition, COMDAT
; _this$ = ecx

; 904  : {

  00000	55		 push	 ebp
  00001	8b ec		 mov	 ebp, esp

; 905  : 	if(m_nElementType == CToolEnumData::Cross_Line)

  00003	8b 81 18 0d 00
	00		 mov	 eax, DWORD PTR [ecx+3352]
  00009	83 f8 01	 cmp	 eax, 1
  0000c	75 39		 jne	 SHORT $LN2@SetInitTex

; 906  : 	{
; 907  : 		m_pTextPosition = NULL;
; 908  : 		m_pTextHPosition = NULL;
; 909  : 		m_pTextVPosition = NULL;
; 910  : 		
; 911  : 		m_pTextHVPosition = (CTextHorzVertPosition *)pTextPosition;

  0000e	8b 55 08	 mov	 edx, DWORD PTR _pTextPosition$[ebp]

; 912  : 		m_baseTextHVPosition.Set(pTextPosition);

  00011	8b 81 60 0d 00
	00		 mov	 eax, DWORD PTR [ecx+3424]
  00017	c7 81 2c 0d 00
	00 00 00 00 00	 mov	 DWORD PTR [ecx+3372], 0
  00021	c7 81 30 0d 00
	00 00 00 00 00	 mov	 DWORD PTR [ecx+3376], 0
  0002b	c7 81 34 0d 00
	00 00 00 00 00	 mov	 DWORD PTR [ecx+3380], 0
  00035	89 91 38 0d 00
	00		 mov	 DWORD PTR [ecx+3384], edx
  0003b	81 c1 60 0d 00
	00		 add	 ecx, 3424		; 00000d60H
  00041	89 55 08	 mov	 DWORD PTR _pTextPosition$[ebp], edx

; 961  : 	}
; 962  : }

  00044	5d		 pop	 ebp

; 912  : 		m_baseTextHVPosition.Set(pTextPosition);

  00045	ff 20		 jmp	 DWORD PTR [eax]
$LN2@SetInitTex:

; 913  : 	}
; 914  : 	else if(m_nElementType == CToolEnumData::Vert_Line)

  00047	83 f8 03	 cmp	 eax, 3
  0004a	75 39		 jne	 SHORT $LN4@SetInitTex

; 915  : 	{
; 916  : 		m_pTextPosition = NULL;
; 917  : 		m_pTextHPosition = NULL;
; 918  : 		m_pTextHVPosition = NULL;
; 919  : 		
; 920  : 		m_pTextVPosition = (CTextVertPosition *)pTextPosition;

  0004c	8b 55 08	 mov	 edx, DWORD PTR _pTextPosition$[ebp]

; 921  : 		m_baseTextVPosition.Set(pTextPosition);

  0004f	8b 81 54 0d 00
	00		 mov	 eax, DWORD PTR [ecx+3412]
  00055	c7 81 2c 0d 00
	00 00 00 00 00	 mov	 DWORD PTR [ecx+3372], 0
  0005f	c7 81 30 0d 00
	00 00 00 00 00	 mov	 DWORD PTR [ecx+3376], 0
  00069	c7 81 38 0d 00
	00 00 00 00 00	 mov	 DWORD PTR [ecx+3384], 0
  00073	89 91 34 0d 00
	00		 mov	 DWORD PTR [ecx+3380], edx
  00079	81 c1 54 0d 00
	00		 add	 ecx, 3412		; 00000d54H
  0007f	89 55 08	 mov	 DWORD PTR _pTextPosition$[ebp], edx

; 961  : 	}
; 962  : }

  00082	5d		 pop	 ebp

; 921  : 		m_baseTextVPosition.Set(pTextPosition);

  00083	ff 20		 jmp	 DWORD PTR [eax]
$LN4@SetInitTex:

; 922  : 	}
; 923  : 	else if(m_nElementType == CToolEnumData::Fibo_Retrace	||
; 924  : 			m_nElementType == CToolEnumData::Fibo_Semicircle	||
; 925  : 			m_nElementType == CToolEnumData::Fibo_Circle	||
; 926  : 			m_nElementType == CToolEnumData::Fibo_Fan_Line	||
; 927  : 			m_nElementType == CToolEnumData::Fibo_Time	||	// 2008.08.20   Text  
; 928  : 			m_nElementType == CToolEnumData::Angle_Line		||
; 929  : 			m_nElementType == CToolEnumData::Candle_Line	||
; 930  : 			m_nElementType == CToolEnumData::Gann_Fan1	||
; 931  : 			m_nElementType == CToolEnumData::Gann_Fan2	||
; 932  : 			m_nElementType == CToolEnumData::Gann_Fan3	||

  00085	83 f8 0b	 cmp	 eax, 11			; 0000000bH
  00088	0f 84 d4 00 00
	00		 je	 $LN8@SetInitTex
  0008e	83 f8 08	 cmp	 eax, 8
  00091	0f 84 cb 00 00
	00		 je	 $LN8@SetInitTex
  00097	83 f8 09	 cmp	 eax, 9
  0009a	0f 84 c2 00 00
	00		 je	 $LN8@SetInitTex
  000a0	83 f8 0a	 cmp	 eax, 10			; 0000000aH
  000a3	0f 84 b9 00 00
	00		 je	 $LN8@SetInitTex
  000a9	83 f8 0c	 cmp	 eax, 12			; 0000000cH
  000ac	0f 84 b0 00 00
	00		 je	 $LN8@SetInitTex
  000b2	83 f8 1d	 cmp	 eax, 29			; 0000001dH
  000b5	0f 84 a7 00 00
	00		 je	 $LN8@SetInitTex
  000bb	83 f8 1e	 cmp	 eax, 30			; 0000001eH
  000be	0f 84 9e 00 00
	00		 je	 $LN8@SetInitTex
  000c4	83 f8 0f	 cmp	 eax, 15			; 0000000fH
  000c7	0f 84 95 00 00
	00		 je	 $LN8@SetInitTex
  000cd	83 f8 10	 cmp	 eax, 16			; 00000010H
  000d0	0f 84 8c 00 00
	00		 je	 $LN8@SetInitTex
  000d6	83 f8 11	 cmp	 eax, 17			; 00000011H
  000d9	0f 84 83 00 00
	00		 je	 $LN8@SetInitTex
  000df	83 f8 12	 cmp	 eax, 18			; 00000012H
  000e2	74 7e		 je	 SHORT $LN8@SetInitTex

; 941  : 	}
; 942  : 	else if(m_nElementType == CToolEnumData::Line		||
; 943  : 			m_nElementType == CToolEnumData::Horz_Line	||
; 944  : 			m_nElementType == CToolEnumData::Trisection	||
; 945  : 			m_nElementType == CToolEnumData::Quadrisect	||

  000e4	83 f8 05	 cmp	 eax, 5
  000e7	74 40		 je	 SHORT $LN11@SetInitTex
  000e9	83 f8 04	 cmp	 eax, 4
  000ec	74 3b		 je	 SHORT $LN11@SetInitTex
  000ee	83 f8 06	 cmp	 eax, 6
  000f1	74 36		 je	 SHORT $LN11@SetInitTex
  000f3	83 f8 07	 cmp	 eax, 7
  000f6	74 31		 je	 SHORT $LN11@SetInitTex
  000f8	83 f8 21	 cmp	 eax, 33			; 00000021H
  000fb	74 2c		 je	 SHORT $LN11@SetInitTex

; 954  : 	}
; 955  : 	else		//NoText
; 956  : 	{
; 957  : 		m_pTextPosition = NULL;

  000fd	c7 81 2c 0d 00
	00 00 00 00 00	 mov	 DWORD PTR [ecx+3372], 0

; 958  : 		m_pTextVPosition = NULL;

  00107	c7 81 34 0d 00
	00 00 00 00 00	 mov	 DWORD PTR [ecx+3380], 0

; 959  : 		m_pTextHPosition = NULL;

  00111	c7 81 30 0d 00
	00 00 00 00 00	 mov	 DWORD PTR [ecx+3376], 0

; 960  : 		m_pTextHVPosition = NULL;

  0011b	c7 81 38 0d 00
	00 00 00 00 00	 mov	 DWORD PTR [ecx+3384], 0

; 961  : 	}
; 962  : }

  00125	5d		 pop	 ebp
  00126	c2 04 00	 ret	 4
$LN11@SetInitTex:

; 946  : 			m_nElementType == CToolEnumData::Period_Summary)
; 947  : 	{
; 948  : 		m_pTextPosition = NULL;
; 949  : 		m_pTextVPosition = NULL;
; 950  : 		m_pTextHVPosition = NULL;
; 951  : 
; 952  : 		m_pTextHPosition = (CTextHorzPosition *)pTextPosition;

  00129	8b 55 08	 mov	 edx, DWORD PTR _pTextPosition$[ebp]

; 953  : 		m_baseTextHPosition.Set(pTextPosition);

  0012c	8b 81 48 0d 00
	00		 mov	 eax, DWORD PTR [ecx+3400]
  00132	c7 81 2c 0d 00
	00 00 00 00 00	 mov	 DWORD PTR [ecx+3372], 0
  0013c	c7 81 34 0d 00
	00 00 00 00 00	 mov	 DWORD PTR [ecx+3380], 0
  00146	c7 81 38 0d 00
	00 00 00 00 00	 mov	 DWORD PTR [ecx+3384], 0
  00150	89 91 30 0d 00
	00		 mov	 DWORD PTR [ecx+3376], edx
  00156	81 c1 48 0d 00
	00		 add	 ecx, 3400		; 00000d48H
  0015c	89 55 08	 mov	 DWORD PTR _pTextPosition$[ebp], edx

; 961  : 	}
; 962  : }

  0015f	5d		 pop	 ebp

; 953  : 		m_baseTextHPosition.Set(pTextPosition);

  00160	ff 20		 jmp	 DWORD PTR [eax]
$LN8@SetInitTex:

; 933  : 			m_nElementType == CToolEnumData::Gann_Fan4)
; 934  : 	{
; 935  : 		m_pTextVPosition = NULL;
; 936  : 		m_pTextHPosition = NULL;
; 937  : 		m_pTextHVPosition = NULL;
; 938  : 		
; 939  : 		m_pTextPosition = (CTextShowPosition *)pTextPosition;

  00162	8b 55 08	 mov	 edx, DWORD PTR _pTextPosition$[ebp]

; 940  : 		m_baseTextPosition.Set(pTextPosition);

  00165	8b 81 3c 0d 00
	00		 mov	 eax, DWORD PTR [ecx+3388]
  0016b	c7 81 34 0d 00
	00 00 00 00 00	 mov	 DWORD PTR [ecx+3380], 0
  00175	c7 81 30 0d 00
	00 00 00 00 00	 mov	 DWORD PTR [ecx+3376], 0
  0017f	c7 81 38 0d 00
	00 00 00 00 00	 mov	 DWORD PTR [ecx+3384], 0
  00189	89 91 2c 0d 00
	00		 mov	 DWORD PTR [ecx+3372], edx
  0018f	81 c1 3c 0d 00
	00		 add	 ecx, 3388		; 00000d3cH
  00195	89 55 08	 mov	 DWORD PTR _pTextPosition$[ebp], edx

; 961  : 	}
; 962  : }

  00198	5d		 pop	 ebp

; 940  : 		m_baseTextPosition.Set(pTextPosition);

  00199	ff 20		 jmp	 DWORD PTR [eax]
?SetInitTextPosition@CDlgAnalysisToolSet@@IAEXPAVCTextPosition@@@Z ENDP ; CDlgAnalysisToolSet::SetInitTextPosition
_TEXT	ENDS
; Function compile flags: /Ogtp
; File D:\git\src\IBK\IBK_DRFN\ProjSrc\SrcChartEx\ChartAddIn\ChartAnalysisToolAddIn\AnalysisTool\DlgAnalysisToolSet.cpp
;	COMDAT ?SaveData@CDlgAnalysisToolSet@@IAEXXZ
_TEXT	SEGMENT
_finder$ = -80						; size = 28
_file$2 = -52						; size = 20
_strName$ = -32						; size = 4
_strSection$ = -28					; size = 4
_strFileName$ = -24					; size = 4
_strKey$ = -20						; size = 4
_strData$ = -16						; size = 4
__$EHRec$ = -12						; size = 12
?SaveData@CDlgAnalysisToolSet@@IAEXXZ PROC		; CDlgAnalysisToolSet::SaveData, COMDAT
; _this$ = ecx

; 165  : {

  00000	55		 push	 ebp
  00001	8b ec		 mov	 ebp, esp
  00003	6a ff		 push	 -1
  00005	68 00 00 00 00	 push	 __ehhandler$?SaveData@CDlgAnalysisToolSet@@IAEXXZ
  0000a	64 a1 00 00 00
	00		 mov	 eax, DWORD PTR fs:0
  00010	50		 push	 eax
  00011	83 ec 44	 sub	 esp, 68			; 00000044H
  00014	53		 push	 ebx
  00015	56		 push	 esi
  00016	57		 push	 edi
  00017	a1 00 00 00 00	 mov	 eax, DWORD PTR ___security_cookie
  0001c	33 c5		 xor	 eax, ebp
  0001e	50		 push	 eax
  0001f	8d 45 f4	 lea	 eax, DWORD PTR __$EHRec$[ebp]
  00022	64 a3 00 00 00
	00		 mov	 DWORD PTR fs:0, eax
  00028	8b f9		 mov	 edi, ecx

; 166  : 	CString strFileName;

  0002a	8d 4d e8	 lea	 ecx, DWORD PTR _strFileName$[ebp]
  0002d	ff 15 00 00 00
	00		 call	 DWORD PTR __imp_??0?$CStringT@DV?$StrTraitMFC_DLL@DV?$ChTraitsCRT@D@ATL@@@@@ATL@@QAE@XZ

; 167  : 	strFileName.Format("%s%s",m_strUserPath,G_ANALYSIS_PROPERTY_INFO);

  00033	8b 1d 00 00 00
	00		 mov	 ebx, DWORD PTR __imp_?Format@?$CStringT@DV?$StrTraitMFC_DLL@DV?$ChTraitsCRT@D@ATL@@@@@ATL@@QAAXPBDZZ
  00039	8d 45 e8	 lea	 eax, DWORD PTR _strFileName$[ebp]
  0003c	68 00 00 00 00	 push	 OFFSET ??_C@_0BF@BMLEKMON@AnalysisPropInfo?4ans@
  00041	ff b7 68 0c 00
	00		 push	 DWORD PTR [edi+3176]
  00047	c7 45 fc 00 00
	00 00		 mov	 DWORD PTR __$EHRec$[ebp+8], 0
  0004e	68 00 00 00 00	 push	 OFFSET ??_C@_04HDOCAJNK@?$CFs?$CFs@
  00053	50		 push	 eax
  00054	ff d3		 call	 ebx
  00056	83 c4 10	 add	 esp, 16			; 00000010H

; 168  : 	CFileFind finder;

  00059	8d 4d b0	 lea	 ecx, DWORD PTR _finder$[ebp]
  0005c	e8 00 00 00 00	 call	 ??0CFileFind@@QAE@XZ	; CFileFind::CFileFind

; 169  : 	BOOL bFind = finder.FindFile(strFileName);

  00061	6a 00		 push	 0
  00063	ff 75 e8	 push	 DWORD PTR _strFileName$[ebp]
  00066	8d 4d b0	 lea	 ecx, DWORD PTR _finder$[ebp]
  00069	c6 45 fc 01	 mov	 BYTE PTR __$EHRec$[ebp+8], 1
  0006d	e8 00 00 00 00	 call	 ?FindFile@CFileFind@@UAEHPBDK@Z ; CFileFind::FindFile

; 170  : 	finder.Close();

  00072	8d 4d b0	 lea	 ecx, DWORD PTR _finder$[ebp]
  00075	8b f0		 mov	 esi, eax
  00077	e8 00 00 00 00	 call	 ?Close@CFileFind@@QAEXXZ ; CFileFind::Close

; 171  : 	
; 172  : 	if(bFind != TRUE)

  0007c	83 fe 01	 cmp	 esi, 1
  0007f	74 3c		 je	 SHORT $LN2@SaveData

; 173  : 	{		
; 174  : 		CFile file;

  00081	8d 4d cc	 lea	 ecx, DWORD PTR _file$2[ebp]
  00084	e8 00 00 00 00	 call	 ??0CFile@@QAE@XZ	; CFile::CFile

; 175  : 		if(file.Open(strFileName,CFile::modeCreate|CFile::modeReadWrite) == FALSE)

  00089	6a 00		 push	 0
  0008b	68 02 10 00 00	 push	 4098			; 00001002H
  00090	ff 75 e8	 push	 DWORD PTR _strFileName$[ebp]
  00093	8d 4d cc	 lea	 ecx, DWORD PTR _file$2[ebp]
  00096	c6 45 fc 02	 mov	 BYTE PTR __$EHRec$[ebp+8], 2
  0009a	e8 00 00 00 00	 call	 ?Open@CFile@@UAEHPBDIPAVCFileException@@@Z ; CFile::Open
  0009f	8d 4d cc	 lea	 ecx, DWORD PTR _file$2[ebp]
  000a2	85 c0		 test	 eax, eax
  000a4	75 0a		 jne	 SHORT $LN3@SaveData

; 176  : 			return;	

  000a6	e8 00 00 00 00	 call	 ??1CFile@@UAE@XZ	; CFile::~CFile
  000ab	e9 13 03 00 00	 jmp	 $LN12@SaveData
$LN3@SaveData:

; 177  : 		file.Close();

  000b0	e8 00 00 00 00	 call	 ?Close@CFile@@UAEXXZ	; CFile::Close

; 178  : 	}

  000b5	8d 4d cc	 lea	 ecx, DWORD PTR _file$2[ebp]
  000b8	e8 00 00 00 00	 call	 ??1CFile@@UAE@XZ	; CFile::~CFile
$LN2@SaveData:

; 179  : 
; 180  : 	CString strSection,strKey,strData,strName;	

  000bd	8d 4d e4	 lea	 ecx, DWORD PTR _strSection$[ebp]
  000c0	ff 15 00 00 00
	00		 call	 DWORD PTR __imp_??0?$CStringT@DV?$StrTraitMFC_DLL@DV?$ChTraitsCRT@D@ATL@@@@@ATL@@QAE@XZ
  000c6	8d 4d ec	 lea	 ecx, DWORD PTR _strKey$[ebp]
  000c9	ff 15 00 00 00
	00		 call	 DWORD PTR __imp_??0?$CStringT@DV?$StrTraitMFC_DLL@DV?$ChTraitsCRT@D@ATL@@@@@ATL@@QAE@XZ
  000cf	8d 4d f0	 lea	 ecx, DWORD PTR _strData$[ebp]
  000d2	ff 15 00 00 00
	00		 call	 DWORD PTR __imp_??0?$CStringT@DV?$StrTraitMFC_DLL@DV?$ChTraitsCRT@D@ATL@@@@@ATL@@QAE@XZ
  000d8	8d 4d e0	 lea	 ecx, DWORD PTR _strName$[ebp]
  000db	ff 15 00 00 00
	00		 call	 DWORD PTR __imp_??0?$CStringT@DV?$StrTraitMFC_DLL@DV?$ChTraitsCRT@D@ATL@@@@@ATL@@QAE@XZ

; 181  : 	strSection.Format("%d",(CToolEnumData::ElementType)m_nElementType);

  000e1	ff b7 18 0d 00
	00		 push	 DWORD PTR [edi+3352]
  000e7	8d 45 e4	 lea	 eax, DWORD PTR _strSection$[ebp]
  000ea	c6 45 fc 06	 mov	 BYTE PTR __$EHRec$[ebp+8], 6
  000ee	68 00 00 00 00	 push	 OFFSET ??_C@_02DPKJAMEF@?$CFd@
  000f3	50		 push	 eax
  000f4	ff d3		 call	 ebx
  000f6	83 c4 0c	 add	 esp, 12			; 0000000cH

; 182  : 	
; 183  : 	strKey = _T("TopText");

  000f9	8d 4d ec	 lea	 ecx, DWORD PTR _strKey$[ebp]
  000fc	68 00 00 00 00	 push	 OFFSET ??_C@_07ONLHAHEH@TopText@
  00101	ff 15 00 00 00
	00		 call	 DWORD PTR __imp_??4?$CStringT@DV?$StrTraitMFC_DLL@DV?$ChTraitsCRT@D@ATL@@@@@ATL@@QAEAAV01@PBD@Z

; 184  : 	strData.Format(_T("%d"),m_stAnalysisTool.nTopText);		

  00107	ff b7 ac 0c 00
	00		 push	 DWORD PTR [edi+3244]
  0010d	8d 45 f0	 lea	 eax, DWORD PTR _strData$[ebp]
  00110	68 00 00 00 00	 push	 OFFSET ??_C@_02DPKJAMEF@?$CFd@
  00115	50		 push	 eax
  00116	ff d3		 call	 ebx

; 185  : 	WritePrivateProfileString(strSection,strKey,strData,strFileName);

  00118	8b 35 00 00 00
	00		 mov	 esi, DWORD PTR __imp__WritePrivateProfileStringA@16
  0011e	83 c4 0c	 add	 esp, 12			; 0000000cH
  00121	ff 75 e8	 push	 DWORD PTR _strFileName$[ebp]
  00124	ff 75 f0	 push	 DWORD PTR _strData$[ebp]
  00127	ff 75 ec	 push	 DWORD PTR _strKey$[ebp]
  0012a	ff 75 e4	 push	 DWORD PTR _strSection$[ebp]
  0012d	ff d6		 call	 esi

; 186  : 
; 187  : 	strKey = _T("BottomText");

  0012f	68 00 00 00 00	 push	 OFFSET ??_C@_0L@KGKLHHNL@BottomText@
  00134	8d 4d ec	 lea	 ecx, DWORD PTR _strKey$[ebp]
  00137	ff 15 00 00 00
	00		 call	 DWORD PTR __imp_??4?$CStringT@DV?$StrTraitMFC_DLL@DV?$ChTraitsCRT@D@ATL@@@@@ATL@@QAEAAV01@PBD@Z

; 188  : 	strData.Format(_T("%d"),m_stAnalysisTool.nBottomText);		

  0013d	ff b7 b0 0c 00
	00		 push	 DWORD PTR [edi+3248]
  00143	8d 45 f0	 lea	 eax, DWORD PTR _strData$[ebp]
  00146	68 00 00 00 00	 push	 OFFSET ??_C@_02DPKJAMEF@?$CFd@
  0014b	50		 push	 eax
  0014c	ff d3		 call	 ebx
  0014e	83 c4 0c	 add	 esp, 12			; 0000000cH

; 189  : 	WritePrivateProfileString(strSection,strKey,strData,strFileName);

  00151	ff 75 e8	 push	 DWORD PTR _strFileName$[ebp]
  00154	ff 75 f0	 push	 DWORD PTR _strData$[ebp]
  00157	ff 75 ec	 push	 DWORD PTR _strKey$[ebp]
  0015a	ff 75 e4	 push	 DWORD PTR _strSection$[ebp]
  0015d	ff d6		 call	 esi

; 190  : 
; 191  : 	strKey = _T("LeftText");

  0015f	68 00 00 00 00	 push	 OFFSET ??_C@_08BBFEGILF@LeftText@
  00164	8d 4d ec	 lea	 ecx, DWORD PTR _strKey$[ebp]
  00167	ff 15 00 00 00
	00		 call	 DWORD PTR __imp_??4?$CStringT@DV?$StrTraitMFC_DLL@DV?$ChTraitsCRT@D@ATL@@@@@ATL@@QAEAAV01@PBD@Z

; 192  : 	strData.Format(_T("%d"),m_stAnalysisTool.nLeftText);		

  0016d	ff b7 a0 0c 00
	00		 push	 DWORD PTR [edi+3232]
  00173	8d 45 f0	 lea	 eax, DWORD PTR _strData$[ebp]
  00176	68 00 00 00 00	 push	 OFFSET ??_C@_02DPKJAMEF@?$CFd@
  0017b	50		 push	 eax
  0017c	ff d3		 call	 ebx
  0017e	83 c4 0c	 add	 esp, 12			; 0000000cH

; 193  : 	WritePrivateProfileString(strSection,strKey,strData,strFileName);

  00181	ff 75 e8	 push	 DWORD PTR _strFileName$[ebp]
  00184	ff 75 f0	 push	 DWORD PTR _strData$[ebp]
  00187	ff 75 ec	 push	 DWORD PTR _strKey$[ebp]
  0018a	ff 75 e4	 push	 DWORD PTR _strSection$[ebp]
  0018d	ff d6		 call	 esi

; 194  : 
; 195  : 	strKey = _T("RightText");

  0018f	68 00 00 00 00	 push	 OFFSET ??_C@_09HDEKPJNE@RightText@
  00194	8d 4d ec	 lea	 ecx, DWORD PTR _strKey$[ebp]
  00197	ff 15 00 00 00
	00		 call	 DWORD PTR __imp_??4?$CStringT@DV?$StrTraitMFC_DLL@DV?$ChTraitsCRT@D@ATL@@@@@ATL@@QAEAAV01@PBD@Z

; 196  : 	strData.Format(_T("%d"),m_stAnalysisTool.nRightText);		

  0019d	ff b7 a4 0c 00
	00		 push	 DWORD PTR [edi+3236]
  001a3	8d 45 f0	 lea	 eax, DWORD PTR _strData$[ebp]
  001a6	68 00 00 00 00	 push	 OFFSET ??_C@_02DPKJAMEF@?$CFd@
  001ab	50		 push	 eax
  001ac	ff d3		 call	 ebx
  001ae	83 c4 0c	 add	 esp, 12			; 0000000cH

; 197  : 	WritePrivateProfileString(strSection,strKey,strData,strFileName);

  001b1	ff 75 e8	 push	 DWORD PTR _strFileName$[ebp]
  001b4	ff 75 f0	 push	 DWORD PTR _strData$[ebp]
  001b7	ff 75 ec	 push	 DWORD PTR _strKey$[ebp]
  001ba	ff 75 e4	 push	 DWORD PTR _strSection$[ebp]
  001bd	ff d6		 call	 esi

; 198  : 
; 199  : 	strKey = _T("LeftExt");

  001bf	68 00 00 00 00	 push	 OFFSET ??_C@_07FCOFBDCL@LeftExt@
  001c4	8d 4d ec	 lea	 ecx, DWORD PTR _strKey$[ebp]
  001c7	ff 15 00 00 00
	00		 call	 DWORD PTR __imp_??4?$CStringT@DV?$StrTraitMFC_DLL@DV?$ChTraitsCRT@D@ATL@@@@@ATL@@QAEAAV01@PBD@Z

; 200  : 	strData.Format(_T("%d"),m_stAnalysisTool.nLeftExt);		

  001cd	ff b7 b4 0c 00
	00		 push	 DWORD PTR [edi+3252]
  001d3	68 00 00 00 00	 push	 OFFSET ??_C@_02DPKJAMEF@?$CFd@
  001d8	8d 45 f0	 lea	 eax, DWORD PTR _strData$[ebp]
  001db	50		 push	 eax
  001dc	ff d3		 call	 ebx
  001de	83 c4 0c	 add	 esp, 12			; 0000000cH

; 201  : 	WritePrivateProfileString(strSection,strKey,strData,strFileName);

  001e1	ff 75 e8	 push	 DWORD PTR _strFileName$[ebp]
  001e4	ff 75 f0	 push	 DWORD PTR _strData$[ebp]
  001e7	ff 75 ec	 push	 DWORD PTR _strKey$[ebp]
  001ea	ff 75 e4	 push	 DWORD PTR _strSection$[ebp]
  001ed	ff d6		 call	 esi

; 202  : 
; 203  : 	strKey = _T("RightExt");

  001ef	68 00 00 00 00	 push	 OFFSET ??_C@_08JBGJKNHH@RightExt@
  001f4	8d 4d ec	 lea	 ecx, DWORD PTR _strKey$[ebp]
  001f7	ff 15 00 00 00
	00		 call	 DWORD PTR __imp_??4?$CStringT@DV?$StrTraitMFC_DLL@DV?$ChTraitsCRT@D@ATL@@@@@ATL@@QAEAAV01@PBD@Z

; 204  : 	strData.Format(_T("%d"),m_stAnalysisTool.nRightExt);		

  001fd	ff b7 b8 0c 00
	00		 push	 DWORD PTR [edi+3256]
  00203	8d 45 f0	 lea	 eax, DWORD PTR _strData$[ebp]
  00206	68 00 00 00 00	 push	 OFFSET ??_C@_02DPKJAMEF@?$CFd@
  0020b	50		 push	 eax
  0020c	ff d3		 call	 ebx
  0020e	83 c4 0c	 add	 esp, 12			; 0000000cH

; 205  : 	WritePrivateProfileString(strSection,strKey,strData,strFileName);

  00211	ff 75 e8	 push	 DWORD PTR _strFileName$[ebp]
  00214	ff 75 f0	 push	 DWORD PTR _strData$[ebp]
  00217	ff 75 ec	 push	 DWORD PTR _strKey$[ebp]
  0021a	ff 75 e4	 push	 DWORD PTR _strSection$[ebp]
  0021d	ff d6		 call	 esi

; 206  : 
; 207  : 	strKey = _T("EquiDiv");

  0021f	68 00 00 00 00	 push	 OFFSET ??_C@_07FEGHFPHL@EquiDiv@
  00224	8d 4d ec	 lea	 ecx, DWORD PTR _strKey$[ebp]
  00227	ff 15 00 00 00
	00		 call	 DWORD PTR __imp_??4?$CStringT@DV?$StrTraitMFC_DLL@DV?$ChTraitsCRT@D@ATL@@@@@ATL@@QAEAAV01@PBD@Z

; 208  : 	strData.Format(_T("%d"),m_stAnalysisTool.nEquiDiv);		

  0022d	ff b7 bc 0c 00
	00		 push	 DWORD PTR [edi+3260]
  00233	8d 45 f0	 lea	 eax, DWORD PTR _strData$[ebp]
  00236	68 00 00 00 00	 push	 OFFSET ??_C@_02DPKJAMEF@?$CFd@
  0023b	50		 push	 eax
  0023c	ff d3		 call	 ebx
  0023e	83 c4 0c	 add	 esp, 12			; 0000000cH

; 209  : 	WritePrivateProfileString(strSection,strKey,strData,strFileName);

  00241	ff 75 e8	 push	 DWORD PTR _strFileName$[ebp]
  00244	ff 75 f0	 push	 DWORD PTR _strData$[ebp]
  00247	ff 75 ec	 push	 DWORD PTR _strKey$[ebp]
  0024a	ff 75 e4	 push	 DWORD PTR _strSection$[ebp]
  0024d	ff d6		 call	 esi

; 210  : 
; 211  : 	// (2008/8/15 - Seung-Won, Bae) Add option for using price range.
; 212  : 	strKey = _T("PriceRangeDiv");

  0024f	68 00 00 00 00	 push	 OFFSET ??_C@_0O@GNLODFPJ@PriceRangeDiv@
  00254	8d 4d ec	 lea	 ecx, DWORD PTR _strKey$[ebp]
  00257	ff 15 00 00 00
	00		 call	 DWORD PTR __imp_??4?$CStringT@DV?$StrTraitMFC_DLL@DV?$ChTraitsCRT@D@ATL@@@@@ATL@@QAEAAV01@PBD@Z

; 213  : 	strData.Format(_T("%d"),m_stAnalysisTool.nPriceRangeDiv);		

  0025d	ff b7 c0 0c 00
	00		 push	 DWORD PTR [edi+3264]
  00263	8d 45 f0	 lea	 eax, DWORD PTR _strData$[ebp]
  00266	68 00 00 00 00	 push	 OFFSET ??_C@_02DPKJAMEF@?$CFd@
  0026b	50		 push	 eax
  0026c	ff d3		 call	 ebx
  0026e	83 c4 0c	 add	 esp, 12			; 0000000cH

; 214  : 	WritePrivateProfileString(strSection,strKey,strData,strFileName);

  00271	ff 75 e8	 push	 DWORD PTR _strFileName$[ebp]
  00274	ff 75 f0	 push	 DWORD PTR _strData$[ebp]
  00277	ff 75 ec	 push	 DWORD PTR _strKey$[ebp]
  0027a	ff 75 e4	 push	 DWORD PTR _strSection$[ebp]
  0027d	ff d6		 call	 esi

; 215  : 
; 216  : 	strKey = _T("HLPercent");

  0027f	68 00 00 00 00	 push	 OFFSET ??_C@_09LIIMEMPE@HLPercent@
  00284	8d 4d ec	 lea	 ecx, DWORD PTR _strKey$[ebp]
  00287	ff 15 00 00 00
	00		 call	 DWORD PTR __imp_??4?$CStringT@DV?$StrTraitMFC_DLL@DV?$ChTraitsCRT@D@ATL@@@@@ATL@@QAEAAV01@PBD@Z

; 217  : 	strData.Format(_T("%d"),m_stAnalysisTool.nHLPercent);		

  0028d	ff b7 c4 0c 00
	00		 push	 DWORD PTR [edi+3268]
  00293	8d 45 f0	 lea	 eax, DWORD PTR _strData$[ebp]
  00296	68 00 00 00 00	 push	 OFFSET ??_C@_02DPKJAMEF@?$CFd@
  0029b	50		 push	 eax
  0029c	ff d3		 call	 ebx
  0029e	83 c4 0c	 add	 esp, 12			; 0000000cH

; 218  : 	WritePrivateProfileString(strSection,strKey,strData,strFileName);

  002a1	ff 75 e8	 push	 DWORD PTR _strFileName$[ebp]
  002a4	ff 75 f0	 push	 DWORD PTR _strData$[ebp]
  002a7	ff 75 ec	 push	 DWORD PTR _strKey$[ebp]
  002aa	ff 75 e4	 push	 DWORD PTR _strSection$[ebp]
  002ad	ff d6		 call	 esi

; 219  : 
; 220  : 	strKey = _T("FillRegion");

  002af	68 00 00 00 00	 push	 OFFSET ??_C@_0L@IDNOMKNG@FillRegion@
  002b4	8d 4d ec	 lea	 ecx, DWORD PTR _strKey$[ebp]
  002b7	ff 15 00 00 00
	00		 call	 DWORD PTR __imp_??4?$CStringT@DV?$StrTraitMFC_DLL@DV?$ChTraitsCRT@D@ATL@@@@@ATL@@QAEAAV01@PBD@Z

; 221  : 	strData.Format(_T("%d"),m_stAnalysisTool.nFillRegion);		

  002bd	ff b7 c8 0c 00
	00		 push	 DWORD PTR [edi+3272]
  002c3	8d 45 f0	 lea	 eax, DWORD PTR _strData$[ebp]
  002c6	68 00 00 00 00	 push	 OFFSET ??_C@_02DPKJAMEF@?$CFd@
  002cb	50		 push	 eax
  002cc	ff d3		 call	 ebx
  002ce	83 c4 0c	 add	 esp, 12			; 0000000cH

; 222  : 	WritePrivateProfileString(strSection,strKey,strData,strFileName);

  002d1	ff 75 e8	 push	 DWORD PTR _strFileName$[ebp]
  002d4	ff 75 f0	 push	 DWORD PTR _strData$[ebp]
  002d7	ff 75 ec	 push	 DWORD PTR _strKey$[ebp]
  002da	ff 75 e4	 push	 DWORD PTR _strSection$[ebp]
  002dd	ff d6		 call	 esi

; 223  : 
; 224  : 	
; 225  : 	strKey = _T("LineColor");

  002df	68 00 00 00 00	 push	 OFFSET ??_C@_09MJAANBBP@LineColor@
  002e4	8d 4d ec	 lea	 ecx, DWORD PTR _strKey$[ebp]
  002e7	ff 15 00 00 00
	00		 call	 DWORD PTR __imp_??4?$CStringT@DV?$StrTraitMFC_DLL@DV?$ChTraitsCRT@D@ATL@@@@@ATL@@QAEAAV01@PBD@Z

; 226  : 	strData.Format(_T("%ld"),m_stAnalysisTool.crLineColor);		

  002ed	ff b7 d4 0c 00
	00		 push	 DWORD PTR [edi+3284]
  002f3	8d 45 f0	 lea	 eax, DWORD PTR _strData$[ebp]
  002f6	68 00 00 00 00	 push	 OFFSET ??_C@_03JALODAI@?$CFld@
  002fb	50		 push	 eax
  002fc	ff d3		 call	 ebx
  002fe	83 c4 0c	 add	 esp, 12			; 0000000cH

; 227  : 	WritePrivateProfileString(strSection,strKey,strData,strFileName);

  00301	ff 75 e8	 push	 DWORD PTR _strFileName$[ebp]
  00304	ff 75 f0	 push	 DWORD PTR _strData$[ebp]
  00307	ff 75 ec	 push	 DWORD PTR _strKey$[ebp]
  0030a	ff 75 e4	 push	 DWORD PTR _strSection$[ebp]
  0030d	ff d6		 call	 esi

; 228  : 
; 229  : 	strKey = _T("LineStyle");

  0030f	68 00 00 00 00	 push	 OFFSET ??_C@_09LNOEOIHF@LineStyle@
  00314	8d 4d ec	 lea	 ecx, DWORD PTR _strKey$[ebp]
  00317	ff 15 00 00 00
	00		 call	 DWORD PTR __imp_??4?$CStringT@DV?$StrTraitMFC_DLL@DV?$ChTraitsCRT@D@ATL@@@@@ATL@@QAEAAV01@PBD@Z

; 230  : 	strData.Format(_T("%d"),m_stAnalysisTool.nLineStyle);		

  0031d	ff b7 cc 0c 00
	00		 push	 DWORD PTR [edi+3276]
  00323	8d 45 f0	 lea	 eax, DWORD PTR _strData$[ebp]
  00326	68 00 00 00 00	 push	 OFFSET ??_C@_02DPKJAMEF@?$CFd@
  0032b	50		 push	 eax
  0032c	ff d3		 call	 ebx
  0032e	83 c4 0c	 add	 esp, 12			; 0000000cH

; 231  : 	WritePrivateProfileString(strSection,strKey,strData,strFileName);

  00331	ff 75 e8	 push	 DWORD PTR _strFileName$[ebp]
  00334	ff 75 f0	 push	 DWORD PTR _strData$[ebp]
  00337	ff 75 ec	 push	 DWORD PTR _strKey$[ebp]
  0033a	ff 75 e4	 push	 DWORD PTR _strSection$[ebp]
  0033d	ff d6		 call	 esi

; 232  : 
; 233  : 	strKey = _T("LineWeight");

  0033f	68 00 00 00 00	 push	 OFFSET ??_C@_0L@OIHNKLFE@LineWeight@
  00344	8d 4d ec	 lea	 ecx, DWORD PTR _strKey$[ebp]
  00347	ff 15 00 00 00
	00		 call	 DWORD PTR __imp_??4?$CStringT@DV?$StrTraitMFC_DLL@DV?$ChTraitsCRT@D@ATL@@@@@ATL@@QAEAAV01@PBD@Z

; 234  : 	strData.Format(_T("%d"),m_stAnalysisTool.nLineWeight);		

  0034d	ff b7 d0 0c 00
	00		 push	 DWORD PTR [edi+3280]
  00353	8d 45 f0	 lea	 eax, DWORD PTR _strData$[ebp]
  00356	68 00 00 00 00	 push	 OFFSET ??_C@_02DPKJAMEF@?$CFd@
  0035b	50		 push	 eax
  0035c	ff d3		 call	 ebx
  0035e	83 c4 0c	 add	 esp, 12			; 0000000cH

; 235  : 	WritePrivateProfileString(strSection,strKey,strData,strFileName);

  00361	ff 75 e8	 push	 DWORD PTR _strFileName$[ebp]
  00364	ff 75 f0	 push	 DWORD PTR _strData$[ebp]
  00367	ff 75 ec	 push	 DWORD PTR _strKey$[ebp]
  0036a	ff 75 e4	 push	 DWORD PTR _strSection$[ebp]
  0036d	ff d6		 call	 esi

; 236  : 
; 237  : 	strKey = _T("RightRateText");

  0036f	68 00 00 00 00	 push	 OFFSET ??_C@_0O@PIBJMGIC@RightRateText@
  00374	8d 4d ec	 lea	 ecx, DWORD PTR _strKey$[ebp]
  00377	ff 15 00 00 00
	00		 call	 DWORD PTR __imp_??4?$CStringT@DV?$StrTraitMFC_DLL@DV?$ChTraitsCRT@D@ATL@@@@@ATL@@QAEAAV01@PBD@Z

; 238  : 	strData.Format(_T("%d"),m_stAnalysisTool.nRateText);		

  0037d	ff b7 a8 0c 00
	00		 push	 DWORD PTR [edi+3240]
  00383	8d 45 f0	 lea	 eax, DWORD PTR _strData$[ebp]
  00386	68 00 00 00 00	 push	 OFFSET ??_C@_02DPKJAMEF@?$CFd@
  0038b	50		 push	 eax
  0038c	ff d3		 call	 ebx
  0038e	83 c4 0c	 add	 esp, 12			; 0000000cH

; 239  : 	WritePrivateProfileString(strSection,strKey,strData,strFileName);

  00391	ff 75 e8	 push	 DWORD PTR _strFileName$[ebp]
  00394	ff 75 f0	 push	 DWORD PTR _strData$[ebp]
  00397	ff 75 ec	 push	 DWORD PTR _strKey$[ebp]
  0039a	ff 75 e4	 push	 DWORD PTR _strSection$[ebp]
  0039d	ff d6		 call	 esi

; 240  : }

  0039f	8d 4d e0	 lea	 ecx, DWORD PTR _strName$[ebp]
  003a2	ff 15 00 00 00
	00		 call	 DWORD PTR __imp_??1?$CStringT@DV?$StrTraitMFC_DLL@DV?$ChTraitsCRT@D@ATL@@@@@ATL@@QAE@XZ
  003a8	8d 4d f0	 lea	 ecx, DWORD PTR _strData$[ebp]
  003ab	ff 15 00 00 00
	00		 call	 DWORD PTR __imp_??1?$CStringT@DV?$StrTraitMFC_DLL@DV?$ChTraitsCRT@D@ATL@@@@@ATL@@QAE@XZ
  003b1	8d 4d ec	 lea	 ecx, DWORD PTR _strKey$[ebp]
  003b4	ff 15 00 00 00
	00		 call	 DWORD PTR __imp_??1?$CStringT@DV?$StrTraitMFC_DLL@DV?$ChTraitsCRT@D@ATL@@@@@ATL@@QAE@XZ
  003ba	8d 4d e4	 lea	 ecx, DWORD PTR _strSection$[ebp]
  003bd	ff 15 00 00 00
	00		 call	 DWORD PTR __imp_??1?$CStringT@DV?$StrTraitMFC_DLL@DV?$ChTraitsCRT@D@ATL@@@@@ATL@@QAE@XZ
$LN12@SaveData:
  003c3	8d 4d b0	 lea	 ecx, DWORD PTR _finder$[ebp]
  003c6	e8 00 00 00 00	 call	 ??1CFileFind@@UAE@XZ	; CFileFind::~CFileFind
  003cb	8d 4d e8	 lea	 ecx, DWORD PTR _strFileName$[ebp]
  003ce	ff 15 00 00 00
	00		 call	 DWORD PTR __imp_??1?$CStringT@DV?$StrTraitMFC_DLL@DV?$ChTraitsCRT@D@ATL@@@@@ATL@@QAE@XZ
  003d4	8b 4d f4	 mov	 ecx, DWORD PTR __$EHRec$[ebp]
  003d7	64 89 0d 00 00
	00 00		 mov	 DWORD PTR fs:0, ecx
  003de	59		 pop	 ecx
  003df	5f		 pop	 edi
  003e0	5e		 pop	 esi
  003e1	5b		 pop	 ebx
  003e2	8b e5		 mov	 esp, ebp
  003e4	5d		 pop	 ebp
  003e5	c3		 ret	 0
_TEXT	ENDS
;	COMDAT text$x
text$x	SEGMENT
__unwindfunclet$?SaveData@CDlgAnalysisToolSet@@IAEXXZ$0:
  00000	8d 4d e8	 lea	 ecx, DWORD PTR _strFileName$[ebp]
  00003	ff 25 00 00 00
	00		 jmp	 DWORD PTR __imp_??1?$CStringT@DV?$StrTraitMFC_DLL@DV?$ChTraitsCRT@D@ATL@@@@@ATL@@QAE@XZ
__unwindfunclet$?SaveData@CDlgAnalysisToolSet@@IAEXXZ$1:
  00009	8d 4d b0	 lea	 ecx, DWORD PTR _finder$[ebp]
  0000c	e9 00 00 00 00	 jmp	 ??1CFileFind@@UAE@XZ	; CFileFind::~CFileFind
__unwindfunclet$?SaveData@CDlgAnalysisToolSet@@IAEXXZ$2:
  00011	8d 4d cc	 lea	 ecx, DWORD PTR _file$2[ebp]
  00014	e9 00 00 00 00	 jmp	 ??1CFile@@UAE@XZ	; CFile::~CFile
__unwindfunclet$?SaveData@CDlgAnalysisToolSet@@IAEXXZ$3:
  00019	8d 4d e4	 lea	 ecx, DWORD PTR _strSection$[ebp]
  0001c	ff 25 00 00 00
	00		 jmp	 DWORD PTR __imp_??1?$CStringT@DV?$StrTraitMFC_DLL@DV?$ChTraitsCRT@D@ATL@@@@@ATL@@QAE@XZ
__unwindfunclet$?SaveData@CDlgAnalysisToolSet@@IAEXXZ$4:
  00022	8d 4d ec	 lea	 ecx, DWORD PTR _strKey$[ebp]
  00025	ff 25 00 00 00
	00		 jmp	 DWORD PTR __imp_??1?$CStringT@DV?$StrTraitMFC_DLL@DV?$ChTraitsCRT@D@ATL@@@@@ATL@@QAE@XZ
__unwindfunclet$?SaveData@CDlgAnalysisToolSet@@IAEXXZ$5:
  0002b	8d 4d f0	 lea	 ecx, DWORD PTR _strData$[ebp]
  0002e	ff 25 00 00 00
	00		 jmp	 DWORD PTR __imp_??1?$CStringT@DV?$StrTraitMFC_DLL@DV?$ChTraitsCRT@D@ATL@@@@@ATL@@QAE@XZ
__unwindfunclet$?SaveData@CDlgAnalysisToolSet@@IAEXXZ$6:
  00034	8d 4d e0	 lea	 ecx, DWORD PTR _strName$[ebp]
  00037	ff 25 00 00 00
	00		 jmp	 DWORD PTR __imp_??1?$CStringT@DV?$StrTraitMFC_DLL@DV?$ChTraitsCRT@D@ATL@@@@@ATL@@QAE@XZ
  0003d	cc		 int	 3
  0003e	cc		 int	 3
  0003f	cc		 int	 3
  00040	cc		 int	 3
  00041	cc		 int	 3
__ehhandler$?SaveData@CDlgAnalysisToolSet@@IAEXXZ:
  00042	90		 npad	 1
  00043	90		 npad	 1
  00044	8b 54 24 08	 mov	 edx, DWORD PTR [esp+8]
  00048	8d 42 0c	 lea	 eax, DWORD PTR [edx+12]
  0004b	8b 4a ac	 mov	 ecx, DWORD PTR [edx-84]
  0004e	33 c8		 xor	 ecx, eax
  00050	e8 00 00 00 00	 call	 @__security_check_cookie@4
  00055	b8 00 00 00 00	 mov	 eax, OFFSET __ehfuncinfo$?SaveData@CDlgAnalysisToolSet@@IAEXXZ
  0005a	e9 00 00 00 00	 jmp	 ___CxxFrameHandler3
text$x	ENDS
?SaveData@CDlgAnalysisToolSet@@IAEXXZ ENDP		; CDlgAnalysisToolSet::SaveData
; Function compile flags: /Ogtp
; File D:\git\src\IBK\IBK_DRFN\ProjSrc\SrcChartEx\ChartAddIn\ChartAnalysisToolAddIn\AnalysisTool\DlgAnalysisToolSet.cpp
; File C:\Program Files (x86)\Microsoft Visual Studio\2019\Community\VC\Tools\MSVC\14.29.30133\atlmfc\include\afxwin2.inl
; File D:\git\src\IBK\IBK_DRFN\ProjSrc\SrcChartEx\ChartAddIn\ChartAnalysisToolAddIn\AnalysisTool\DlgAnalysisToolSet.cpp
;	COMDAT ?ApplyOrgData@CDlgAnalysisToolSet@@IAEXXZ
_TEXT	SEGMENT
$T1 = -12						; size = 8
$T2 = -8						; size = 4
$T3 = -4						; size = 4
?ApplyOrgData@CDlgAnalysisToolSet@@IAEXXZ PROC		; CDlgAnalysisToolSet::ApplyOrgData, COMDAT
; _this$ = ecx

; 283  : {

  00000	55		 push	 ebp
  00001	8b ec		 mov	 ebp, esp
  00003	83 ec 0c	 sub	 esp, 12			; 0000000cH
  00006	56		 push	 esi
  00007	57		 push	 edi
  00008	8b f9		 mov	 edi, ecx

; 284  : 	m_pPenEnvironment->Set(m_basePenEnvironment);

  0000a	8b 8f 1c 0d 00
	00		 mov	 ecx, DWORD PTR [edi+3356]
  00010	8d 87 20 0d 00
	00		 lea	 eax, DWORD PTR [edi+3360]
  00016	50		 push	 eax
  00017	e8 00 00 00 00	 call	 ?Set@CPenEnvironment@@QAEXABV1@@Z ; CPenEnvironment::Set

; 285  : 			
; 286  : 	if(m_nTextPosType != G_TEXT_POS_NONE)

  0001c	8b 87 04 0d 00
	00		 mov	 eax, DWORD PTR [edi+3332]
  00022	83 f8 ff	 cmp	 eax, -1
  00025	0f 84 0c 01 00
	00		 je	 $LN10@ApplyOrgDa

; 287  : 	{
; 288  : 		if(m_nTextPosType == G_TEXT_POS_HV)

  0002b	83 f8 03	 cmp	 eax, 3
  0002e	75 45		 jne	 SHORT $LN3@ApplyOrgDa

; 289  : 			SetTextPosition(m_baseTextHVPosition.GetLeft(),m_baseTextHVPosition.GetRight(),

  00030	8d 8f 60 0d 00
	00		 lea	 ecx, DWORD PTR [edi+3424]
  00036	e8 00 00 00 00	 call	 ?GetBottom@CTextHorzVertPosition@@QBE_NXZ ; CTextHorzVertPosition::GetBottom
  0003b	0f b6 c0	 movzx	 eax, al
  0003e	8d 8f 60 0d 00
	00		 lea	 ecx, DWORD PTR [edi+3424]
  00044	50		 push	 eax
  00045	e8 00 00 00 00	 call	 ?GetTop@CTextHorzVertPosition@@QBE_NXZ ; CTextHorzVertPosition::GetTop
  0004a	0f b6 c0	 movzx	 eax, al
  0004d	8d 8f 60 0d 00
	00		 lea	 ecx, DWORD PTR [edi+3424]
  00053	50		 push	 eax
  00054	e8 00 00 00 00	 call	 ?GetRight@CTextHorzVertPosition@@QBE_NXZ ; CTextHorzVertPosition::GetRight
  00059	0f b6 c0	 movzx	 eax, al
  0005c	8d 8f 60 0d 00
	00		 lea	 ecx, DWORD PTR [edi+3424]
  00062	50		 push	 eax
  00063	e8 00 00 00 00	 call	 ?GetLeft@CTextHorzVertPosition@@QBE_NXZ ; CTextHorzVertPosition::GetLeft
  00068	0f b6 c0	 movzx	 eax, al
  0006b	8b cf		 mov	 ecx, edi
  0006d	50		 push	 eax
  0006e	e8 00 00 00 00	 call	 ?SetTextPosition@CDlgAnalysisToolSet@@AAEX_N000@Z ; CDlgAnalysisToolSet::SetTextPosition
  00073	eb 67		 jmp	 SHORT $LN9@ApplyOrgDa
$LN3@ApplyOrgDa:

; 290  : 							m_baseTextHVPosition.GetTop(),m_baseTextHVPosition.GetBottom());		
; 291  : 		else if(m_nTextPosType == G_TEXT_POS_VERT)

  00075	83 f8 02	 cmp	 eax, 2
  00078	75 1c		 jne	 SHORT $LN5@ApplyOrgDa

; 292  : 			SetTextPosition(m_baseTextVPosition.GetTop(),m_baseTextVPosition.GetBottom());			

  0007a	8d 8f 54 0d 00
	00		 lea	 ecx, DWORD PTR [edi+3412]
  00080	e8 00 00 00 00	 call	 ?GetBottom@CTextVertPosition@@QBE_NXZ ; CTextVertPosition::GetBottom
  00085	0f b6 c0	 movzx	 eax, al
  00088	8d 8f 54 0d 00
	00		 lea	 ecx, DWORD PTR [edi+3412]
  0008e	50		 push	 eax
  0008f	e8 00 00 00 00	 call	 ?GetTop@CTextVertPosition@@QBE_NXZ ; CTextVertPosition::GetTop
  00094	eb 3b		 jmp	 SHORT $LN43@ApplyOrgDa
$LN5@ApplyOrgDa:

; 293  : 		else if(m_nTextPosType == G_TEXT_POS_ONE)

  00096	85 c0		 test	 eax, eax
  00098	75 18		 jne	 SHORT $LN7@ApplyOrgDa

; 294  : 			SetTextPosition(m_baseTextPosition.IsShow());			

  0009a	8d 8f 3c 0d 00
	00		 lea	 ecx, DWORD PTR [edi+3388]
  000a0	e8 00 00 00 00	 call	 ?IsShow@CTextShowPosition@@QBE_NXZ ; CTextShowPosition::IsShow
  000a5	0f b6 c0	 movzx	 eax, al
  000a8	8b cf		 mov	 ecx, edi
  000aa	50		 push	 eax
  000ab	e8 00 00 00 00	 call	 ?SetTextPosition@CDlgAnalysisToolSet@@AAEX_N@Z ; CDlgAnalysisToolSet::SetTextPosition
  000b0	eb 2a		 jmp	 SHORT $LN9@ApplyOrgDa
$LN7@ApplyOrgDa:

; 295  : 		else if(m_nTextPosType == G_TEXT_POS_HORZ)

  000b2	83 f8 01	 cmp	 eax, 1
  000b5	75 25		 jne	 SHORT $LN9@ApplyOrgDa

; 296  : 			SetTextPosition(m_baseTextHPosition.GetLeft(),m_baseTextHPosition.GetRight());		

  000b7	8d 8f 48 0d 00
	00		 lea	 ecx, DWORD PTR [edi+3400]
  000bd	e8 00 00 00 00	 call	 ?GetRight@CTextHorzPosition@@QBE_NXZ ; CTextHorzPosition::GetRight
  000c2	0f b6 c0	 movzx	 eax, al
  000c5	8d 8f 48 0d 00
	00		 lea	 ecx, DWORD PTR [edi+3400]
  000cb	50		 push	 eax
  000cc	e8 00 00 00 00	 call	 ?GetLeft@CTextHorzPosition@@QBE_NXZ ; CTextHorzPosition::GetLeft
$LN43@ApplyOrgDa:

; 1103 : 	if(m_nTextPosType == G_TEXT_POS_HV)

  000d1	0f b6 c0	 movzx	 eax, al
  000d4	8b cf		 mov	 ecx, edi
  000d6	50		 push	 eax
  000d7	e8 00 00 00 00	 call	 ?SetTextPosition@CDlgAnalysisToolSet@@AAEX_N0@Z ; CDlgAnalysisToolSet::SetTextPosition
$LN9@ApplyOrgDa:
  000dc	8b 87 04 0d 00
	00		 mov	 eax, DWORD PTR [edi+3332]
  000e2	83 f8 03	 cmp	 eax, 3
  000e5	75 0d		 jne	 SHORT $LN17@ApplyOrgDa

; 1104 : 		return m_pTextHVPosition;

  000e7	8b 8f 38 0d 00
	00		 mov	 ecx, DWORD PTR [edi+3384]

; 1118 : 		return &m_baseTextHVPosition;

  000ed	b8 60 0d 00 00	 mov	 eax, 3424		; 00000d60H
  000f2	eb 33		 jmp	 SHORT $LN25@ApplyOrgDa
$LN17@ApplyOrgDa:

; 1105 : 	else if(m_nTextPosType == G_TEXT_POS_VERT)

  000f4	83 f8 02	 cmp	 eax, 2
  000f7	75 0d		 jne	 SHORT $LN19@ApplyOrgDa

; 1106 : 		return m_pTextVPosition;

  000f9	8b 8f 34 0d 00
	00		 mov	 ecx, DWORD PTR [edi+3380]

; 1120 : 		return &m_baseTextVPosition;

  000ff	b8 54 0d 00 00	 mov	 eax, 3412		; 00000d54H
  00104	eb 21		 jmp	 SHORT $LN25@ApplyOrgDa
$LN19@ApplyOrgDa:

; 1107 : 	else if(m_nTextPosType == G_TEXT_POS_HORZ)

  00106	83 f8 01	 cmp	 eax, 1
  00109	75 0d		 jne	 SHORT $LN21@ApplyOrgDa

; 1108 : 		return m_pTextHPosition;

  0010b	8b 8f 30 0d 00
	00		 mov	 ecx, DWORD PTR [edi+3376]

; 1122 : 		return &m_baseTextHPosition;

  00111	b8 48 0d 00 00	 mov	 eax, 3400		; 00000d48H
  00116	eb 0f		 jmp	 SHORT $LN25@ApplyOrgDa
$LN21@ApplyOrgDa:

; 1109 : 	else if(m_nTextPosType == G_TEXT_POS_ONE)

  00118	85 c0		 test	 eax, eax
  0011a	75 1b		 jne	 SHORT $LN10@ApplyOrgDa

; 1110 : 		return m_pTextPosition;

  0011c	8b 8f 2c 0d 00
	00		 mov	 ecx, DWORD PTR [edi+3372]

; 1124 : 		return &m_baseTextPosition;

  00122	b8 3c 0d 00 00	 mov	 eax, 3388		; 00000d3cH
$LN25@ApplyOrgDa:

; 297  : 		
; 298  : 		CTextPosition* pTextPosition = GetTextPosition();
; 299  : 		CTextPosition* pOrgTextPosition = GetOrgTextPosition();
; 300  : 		if(pTextPosition != NULL && pOrgTextPosition != NULL)

  00127	8d 14 07	 lea	 edx, DWORD PTR [edi+eax]
  0012a	85 c9		 test	 ecx, ecx
  0012c	74 09		 je	 SHORT $LN10@ApplyOrgDa
  0012e	85 d2		 test	 edx, edx
  00130	74 05		 je	 SHORT $LN10@ApplyOrgDa

; 301  : 			pTextPosition->Set(pOrgTextPosition);

  00132	8b 01		 mov	 eax, DWORD PTR [ecx]
  00134	52		 push	 edx
  00135	ff 10		 call	 DWORD PTR [eax]
$LN10@ApplyOrgDa:

; 302  : 	}
; 303  : 
; 304  : 	if(m_nLineExtType != G_LINE_EXT_NONE)

  00137	83 bf 08 0d 00
	00 ff		 cmp	 DWORD PTR [edi+3336], -1
  0013e	74 5d		 je	 SHORT $LN12@ApplyOrgDa

; 305  : 	{
; 306  : 		SetLineExtEnvironment( ( m_baseLineExtEnvironment.GetLeftExt() ? true : false),

  00140	8d b7 70 0d 00
	00		 lea	 esi, DWORD PTR [edi+3440]
  00146	53		 push	 ebx
  00147	8b ce		 mov	 ecx, esi
  00149	e8 00 00 00 00	 call	 ?GetRightExt@CLineExtEnvironment@@QBEHXZ ; CLineExtEnvironment::GetRightExt

; 1009 : 	m_pLineExtEnvironment->SetLineExt(bLeft,bRight);

  0014e	f7 d8		 neg	 eax

; 305  : 	{
; 306  : 		SetLineExtEnvironment( ( m_baseLineExtEnvironment.GetLeftExt() ? true : false),

  00150	8b ce		 mov	 ecx, esi

; 1009 : 	m_pLineExtEnvironment->SetLineExt(bLeft,bRight);

  00152	1b c0		 sbb	 eax, eax
  00154	f7 d8		 neg	 eax
  00156	89 45 fc	 mov	 DWORD PTR $T3[ebp], eax

; 305  : 	{
; 306  : 		SetLineExtEnvironment( ( m_baseLineExtEnvironment.GetLeftExt() ? true : false),

  00159	e8 00 00 00 00	 call	 ?GetLeftExt@CLineExtEnvironment@@QBEHXZ ; CLineExtEnvironment::GetLeftExt

; 1009 : 	m_pLineExtEnvironment->SetLineExt(bLeft,bRight);

  0015e	8b 8f 6c 0d 00
	00		 mov	 ecx, DWORD PTR [edi+3436]

; 305  : 	{
; 306  : 		SetLineExtEnvironment( ( m_baseLineExtEnvironment.GetLeftExt() ? true : false),

  00164	f7 d8		 neg	 eax
  00166	1b c0		 sbb	 eax, eax
  00168	f7 d8		 neg	 eax

; 1009 : 	m_pLineExtEnvironment->SetLineExt(bLeft,bRight);

  0016a	89 45 f8	 mov	 DWORD PTR $T2[ebp], eax
  0016d	8d 45 fc	 lea	 eax, DWORD PTR $T3[ebp]
  00170	50		 push	 eax
  00171	8d 45 f8	 lea	 eax, DWORD PTR $T2[ebp]
  00174	50		 push	 eax
  00175	e8 00 00 00 00	 call	 ?SetLineExt@CLineExtEnvironment@@QAEXABH0@Z ; CLineExtEnvironment::SetLineExt

; 307  : 								( m_baseLineExtEnvironment.GetRightExt() ? true : false));
; 308  : 		
; 309  : 		CLineExtEnvironment* pLineExtEnvironment = GetLineExtEnvironment();

  0017a	8b 9f 6c 0d 00
	00		 mov	 ebx, DWORD PTR [edi+3436]

; 310  : 		CLineExtEnvironment* pOrgLineExtEnvironment = GetOrgLineExtEnvironment();
; 311  : 		if(pLineExtEnvironment != NULL && pOrgLineExtEnvironment != NULL)

  00180	85 db		 test	 ebx, ebx
  00182	74 18		 je	 SHORT $LN42@ApplyOrgDa
  00184	85 f6		 test	 esi, esi
  00186	74 14		 je	 SHORT $LN42@ApplyOrgDa

; 312  : 			pLineExtEnvironment->Set(pOrgLineExtEnvironment);

  00188	56		 push	 esi
  00189	8d 4d f4	 lea	 ecx, DWORD PTR $T1[ebp]
  0018c	e8 00 00 00 00	 call	 ??0CLineExtEnvironment@@QAE@PAV0@@Z ; CLineExtEnvironment::CLineExtEnvironment
  00191	8d 45 f4	 lea	 eax, DWORD PTR $T1[ebp]
  00194	8b cb		 mov	 ecx, ebx
  00196	50		 push	 eax
  00197	e8 00 00 00 00	 call	 ?Set@CLineExtEnvironment@@QAEXABV1@@Z ; CLineExtEnvironment::Set
$LN42@ApplyOrgDa:
  0019c	5b		 pop	 ebx
$LN12@ApplyOrgDa:

; 313  : 	}
; 314  : 
; 315  : 	if(m_nEquiDivLine != G_EQUI_DIV_NONE)

  0019d	83 bf 0c 0d 00
	00 ff		 cmp	 DWORD PTR [edi+3340], -1
  001a4	74 0e		 je	 SHORT $LN13@ApplyOrgDa

; 316  : 		(*m_pEquiDivEnvironment) = m_baseEquiDivEnvironment;		

  001a6	8b 8f 78 0d 00
	00		 mov	 ecx, DWORD PTR [edi+3448]
  001ac	8b 87 7c 0d 00
	00		 mov	 eax, DWORD PTR [edi+3452]
  001b2	89 01		 mov	 DWORD PTR [ecx], eax
$LN13@ApplyOrgDa:

; 317  : 	
; 318  : 	// (2008/8/15 - Seung-Won, Bae) Add option for using price range.
; 319  : 	if( m_nPriceRangeDivLine != G_PRICE_RANGE_DIV_NONE)

  001b4	83 bf 10 0d 00
	00 ff		 cmp	 DWORD PTR [edi+3344], -1
  001bb	74 0e		 je	 SHORT $LN14@ApplyOrgDa

; 320  : 		( *m_pPriceRangeDivEnvironment) = m_basePriceRangeDivEnvironment;		

  001bd	8b 8f 80 0d 00
	00		 mov	 ecx, DWORD PTR [edi+3456]
  001c3	8b 87 84 0d 00
	00		 mov	 eax, DWORD PTR [edi+3460]
  001c9	89 01		 mov	 DWORD PTR [ecx], eax
$LN14@ApplyOrgDa:
; File C:\Program Files (x86)\Microsoft Visual Studio\2019\Community\VC\Tools\MSVC\14.29.30133\atlmfc\include\afxwin2.inl

; 114  : 	{ ASSERT(::IsWindow(m_hWnd)); ::InvalidateRect(m_hWnd, NULL, bErase); }

  001cb	8b 87 14 0d 00
	00		 mov	 eax, DWORD PTR [edi+3348]
  001d1	6a 01		 push	 1
  001d3	6a 00		 push	 0
  001d5	ff 70 20	 push	 DWORD PTR [eax+32]
  001d8	ff 15 00 00 00
	00		 call	 DWORD PTR __imp__InvalidateRect@12
  001de	5f		 pop	 edi
  001df	5e		 pop	 esi
; File D:\git\src\IBK\IBK_DRFN\ProjSrc\SrcChartEx\ChartAddIn\ChartAnalysisToolAddIn\AnalysisTool\DlgAnalysisToolSet.cpp

; 323  : }

  001e0	8b e5		 mov	 esp, ebp
  001e2	5d		 pop	 ebp
  001e3	c3		 ret	 0
?ApplyOrgData@CDlgAnalysisToolSet@@IAEXXZ ENDP		; CDlgAnalysisToolSet::ApplyOrgData
_TEXT	ENDS
; Function compile flags: /Ogtp
; File D:\git\src\IBK\IBK_DRFN\ProjSrc\SrcChartEx\ChartAddIn\ChartAnalysisToolAddIn\AnalysisTool\DlgAnalysisToolSet.cpp
; File C:\Program Files (x86)\Microsoft Visual Studio\2019\Community\VC\Tools\MSVC\14.29.30133\atlmfc\include\afxwin2.inl
; File D:\git\src\IBK\IBK_DRFN\ProjSrc\SrcChartEx\ChartAddIn\ChartAnalysisToolAddIn\AnalysisTool\DlgAnalysisToolSet.cpp
; File C:\Program Files (x86)\Microsoft Visual Studio\2019\Community\VC\Tools\MSVC\14.29.30133\atlmfc\include\afxwin2.inl
; File D:\git\src\IBK\IBK_DRFN\ProjSrc\SrcChartEx\ChartAddIn\ChartAnalysisToolAddIn\AnalysisTool\DlgAnalysisToolSet.cpp
; File C:\Program Files (x86)\Microsoft Visual Studio\2019\Community\VC\Tools\MSVC\14.29.30133\atlmfc\include\afxwin2.inl
; File D:\git\src\IBK\IBK_DRFN\ProjSrc\SrcChartEx\ChartAddIn\ChartAnalysisToolAddIn\AnalysisTool\DlgAnalysisToolSet.cpp
; File C:\Program Files (x86)\Microsoft Visual Studio\2019\Community\VC\Tools\MSVC\14.29.30133\atlmfc\include\afxwin2.inl
; File D:\git\src\IBK\IBK_DRFN\ProjSrc\SrcChartEx\ChartAddIn\ChartAnalysisToolAddIn\AnalysisTool\DlgAnalysisToolSet.cpp
; File C:\Program Files (x86)\Microsoft Visual Studio\2019\Community\VC\Tools\MSVC\14.29.30133\atlmfc\include\afxwin2.inl
; File D:\git\src\IBK\IBK_DRFN\ProjSrc\SrcChartEx\ChartAddIn\ChartAnalysisToolAddIn\AnalysisTool\DlgAnalysisToolSet.cpp
; File C:\Program Files (x86)\Microsoft Visual Studio\2019\Community\VC\Tools\MSVC\14.29.30133\atlmfc\include\afxwin2.inl
; File D:\git\src\IBK\IBK_DRFN\ProjSrc\SrcChartEx\ChartAddIn\ChartAnalysisToolAddIn\AnalysisTool\DlgAnalysisToolSet.cpp
; File C:\Program Files (x86)\Microsoft Visual Studio\2019\Community\VC\Tools\MSVC\14.29.30133\atlmfc\include\afxwin2.inl
; File D:\git\src\IBK\IBK_DRFN\ProjSrc\SrcChartEx\ChartAddIn\ChartAnalysisToolAddIn\AnalysisTool\DlgAnalysisToolSet.cpp
; File C:\Program Files (x86)\Microsoft Visual Studio\2019\Community\VC\Tools\MSVC\14.29.30133\atlmfc\include\afxwin2.inl
; File D:\git\src\IBK\IBK_DRFN\ProjSrc\SrcChartEx\ChartAddIn\ChartAnalysisToolAddIn\AnalysisTool\DlgAnalysisToolSet.cpp
; File C:\Program Files (x86)\Microsoft Visual Studio\2019\Community\VC\Tools\MSVC\14.29.30133\atlmfc\include\afxwin2.inl
; File D:\git\src\IBK\IBK_DRFN\ProjSrc\SrcChartEx\ChartAddIn\ChartAnalysisToolAddIn\AnalysisTool\DlgAnalysisToolSet.cpp
; File C:\Program Files (x86)\Microsoft Visual Studio\2019\Community\VC\Tools\MSVC\14.29.30133\atlmfc\include\afxwin2.inl
; File D:\git\src\IBK\IBK_DRFN\ProjSrc\SrcChartEx\ChartAddIn\ChartAnalysisToolAddIn\AnalysisTool\DlgAnalysisToolSet.cpp
; File C:\Program Files (x86)\Microsoft Visual Studio\2019\Community\VC\Tools\MSVC\14.29.30133\atlmfc\include\afxwin2.inl
; File D:\git\src\IBK\IBK_DRFN\ProjSrc\SrcChartEx\ChartAddIn\ChartAnalysisToolAddIn\AnalysisTool\DlgAnalysisToolSet.cpp
;	COMDAT ?ApplyData@CDlgAnalysisToolSet@@IAEXXZ
_TEXT	SEGMENT
$T1 = -8						; size = 4
$T2 = -4						; size = 4
$T3 = -4						; size = 4
?ApplyData@CDlgAnalysisToolSet@@IAEXXZ PROC		; CDlgAnalysisToolSet::ApplyData, COMDAT
; _this$ = ecx

; 243  : {

  00000	55		 push	 ebp
  00001	8b ec		 mov	 ebp, esp
  00003	83 ec 08	 sub	 esp, 8
  00006	56		 push	 esi
  00007	57		 push	 edi

; 988  : 	UpdateData(TRUE);

  00008	6a 01		 push	 1

; 243  : {

  0000a	8b f9		 mov	 edi, ecx

; 988  : 	UpdateData(TRUE);

  0000c	e8 00 00 00 00	 call	 ?UpdateData@CWnd@@QAEHH@Z ; CWnd::UpdateData

; 989  : 	m_pPenEnvironment->SetColor(m_ctlColor.GetColor());

  00011	8d 8f 48 02 00
	00		 lea	 ecx, DWORD PTR [edi+584]
  00017	e8 00 00 00 00	 call	 ?GetColor@CColorButton@@QBEKXZ ; CColorButton::GetColor
  0001c	8b 8f 1c 0d 00
	00		 mov	 ecx, DWORD PTR [edi+3356]
  00022	89 45 fc	 mov	 DWORD PTR $T3[ebp], eax
  00025	8d 45 fc	 lea	 eax, DWORD PTR $T3[ebp]
  00028	50		 push	 eax
  00029	e8 00 00 00 00	 call	 ?SetColor@CPenEnvironment@@QAEXABK@Z ; CPenEnvironment::SetColor

; 990  : 	m_pPenEnvironment->SetWidth(m_nWidth+1);

  0002e	8b 87 50 0c 00
	00		 mov	 eax, DWORD PTR [edi+3152]
  00034	8b 8f 1c 0d 00
	00		 mov	 ecx, DWORD PTR [edi+3356]
  0003a	40		 inc	 eax
  0003b	50		 push	 eax
  0003c	e8 00 00 00 00	 call	 ?SetWidth@CPenEnvironment@@QAEXH@Z ; CPenEnvironment::SetWidth

; 991  : 	m_pPenEnvironment->SetStyle((CToolEnumData::PenStyle) m_nStyle);

  00041	ff b7 54 0c 00
	00		 push	 DWORD PTR [edi+3156]
  00047	8b 8f 1c 0d 00
	00		 mov	 ecx, DWORD PTR [edi+3356]
  0004d	e8 00 00 00 00	 call	 ?SetStyle@CPenEnvironment@@QAEXW4PenStyle@CToolEnumData@@@Z ; CPenEnvironment::SetStyle

; 992  : 	
; 993  : 	m_stAnalysisTool.crLineColor = m_ctlColor.GetColor();

  00052	8d 8f 48 02 00
	00		 lea	 ecx, DWORD PTR [edi+584]
  00058	e8 00 00 00 00	 call	 ?GetColor@CColorButton@@QBEKXZ ; CColorButton::GetColor
  0005d	89 87 d4 0c 00
	00		 mov	 DWORD PTR [edi+3284], eax

; 994  : 	m_stAnalysisTool.nLineStyle = m_nStyle;

  00063	8b 87 54 0c 00
	00		 mov	 eax, DWORD PTR [edi+3156]
  00069	89 87 cc 0c 00
	00		 mov	 DWORD PTR [edi+3276], eax

; 995  : 	m_stAnalysisTool.nLineWeight = m_nWidth+1;	

  0006f	8b 87 50 0c 00
	00		 mov	 eax, DWORD PTR [edi+3152]
  00075	40		 inc	 eax

; 244  : 	SetPenEnvironment();
; 245  : 
; 246  : 	if(m_nTextPosType != G_TEXT_POS_NONE)

  00076	83 bf 04 0d 00
	00 ff		 cmp	 DWORD PTR [edi+3332], -1

; 995  : 	m_stAnalysisTool.nLineWeight = m_nWidth+1;	

  0007d	89 87 d0 0c 00
	00		 mov	 DWORD PTR [edi+3280], eax

; 244  : 	SetPenEnvironment();
; 245  : 
; 246  : 	if(m_nTextPosType != G_TEXT_POS_NONE)

  00083	74 07		 je	 SHORT $LN2@ApplyData

; 247  : 		SetTextPosition();

  00085	8b cf		 mov	 ecx, edi
  00087	e8 00 00 00 00	 call	 ?SetTextPosition@CDlgAnalysisToolSet@@AAEXXZ ; CDlgAnalysisToolSet::SetTextPosition
$LN2@ApplyData:

; 248  : 
; 249  : 	if(m_nLineExtType != G_LINE_EXT_NONE)

  0008c	83 bf 08 0d 00
	00 ff		 cmp	 DWORD PTR [edi+3336], -1
  00093	8b 35 00 00 00
	00		 mov	 esi, DWORD PTR __imp__SendMessageA@16
  00099	74 72		 je	 SHORT $LN3@ApplyData

; 1000 : 	UpdateData(TRUE);

  0009b	6a 01		 push	 1
  0009d	8b cf		 mov	 ecx, edi
  0009f	e8 00 00 00 00	 call	 ?UpdateData@CWnd@@QAEHH@Z ; CWnd::UpdateData
; File C:\Program Files (x86)\Microsoft Visual Studio\2019\Community\VC\Tools\MSVC\14.29.30133\atlmfc\include\afxwin2.inl

; 628  : 	{ ASSERT(::IsWindow(m_hWnd)); return (int)::SendMessage(m_hWnd, BM_GETCHECK, 0, 0); }

  000a4	6a 00		 push	 0
  000a6	6a 00		 push	 0
  000a8	68 f0 00 00 00	 push	 240			; 000000f0H
  000ad	ff b7 f0 05 00
	00		 push	 DWORD PTR [edi+1520]
  000b3	ff d6		 call	 esi
  000b5	6a 00		 push	 0
  000b7	6a 00		 push	 0
  000b9	68 f0 00 00 00	 push	 240			; 000000f0H
  000be	ff b7 70 05 00
	00		 push	 DWORD PTR [edi+1392]
; File D:\git\src\IBK\IBK_DRFN\ProjSrc\SrcChartEx\ChartAddIn\ChartAnalysisToolAddIn\AnalysisTool\DlgAnalysisToolSet.cpp

; 1001 : 	m_pLineExtEnvironment->SetLineExt(m_ctrlLeftExt.GetCheck(),m_ctrlRightExt.GetCheck());

  000c4	89 45 fc	 mov	 DWORD PTR $T2[ebp], eax
; File C:\Program Files (x86)\Microsoft Visual Studio\2019\Community\VC\Tools\MSVC\14.29.30133\atlmfc\include\afxwin2.inl

; 628  : 	{ ASSERT(::IsWindow(m_hWnd)); return (int)::SendMessage(m_hWnd, BM_GETCHECK, 0, 0); }

  000c7	ff d6		 call	 esi
; File D:\git\src\IBK\IBK_DRFN\ProjSrc\SrcChartEx\ChartAddIn\ChartAnalysisToolAddIn\AnalysisTool\DlgAnalysisToolSet.cpp

; 1001 : 	m_pLineExtEnvironment->SetLineExt(m_ctrlLeftExt.GetCheck(),m_ctrlRightExt.GetCheck());

  000c9	8b 8f 6c 0d 00
	00		 mov	 ecx, DWORD PTR [edi+3436]
  000cf	89 45 f8	 mov	 DWORD PTR $T1[ebp], eax
  000d2	8d 45 fc	 lea	 eax, DWORD PTR $T2[ebp]
  000d5	50		 push	 eax
  000d6	8d 45 f8	 lea	 eax, DWORD PTR $T1[ebp]
  000d9	50		 push	 eax
  000da	e8 00 00 00 00	 call	 ?SetLineExt@CLineExtEnvironment@@QAEXABH0@Z ; CLineExtEnvironment::SetLineExt
; File C:\Program Files (x86)\Microsoft Visual Studio\2019\Community\VC\Tools\MSVC\14.29.30133\atlmfc\include\afxwin2.inl

; 628  : 	{ ASSERT(::IsWindow(m_hWnd)); return (int)::SendMessage(m_hWnd, BM_GETCHECK, 0, 0); }

  000df	6a 00		 push	 0
  000e1	6a 00		 push	 0
  000e3	68 f0 00 00 00	 push	 240			; 000000f0H
  000e8	ff b7 70 05 00
	00		 push	 DWORD PTR [edi+1392]
  000ee	ff d6		 call	 esi
  000f0	6a 00		 push	 0
  000f2	6a 00		 push	 0
  000f4	68 f0 00 00 00	 push	 240			; 000000f0H
  000f9	ff b7 f0 05 00
	00		 push	 DWORD PTR [edi+1520]
; File D:\git\src\IBK\IBK_DRFN\ProjSrc\SrcChartEx\ChartAddIn\ChartAnalysisToolAddIn\AnalysisTool\DlgAnalysisToolSet.cpp

; 1003 : 	m_stAnalysisTool.nLeftExt = m_ctrlLeftExt.GetCheck();

  000ff	89 87 b4 0c 00
	00		 mov	 DWORD PTR [edi+3252], eax
; File C:\Program Files (x86)\Microsoft Visual Studio\2019\Community\VC\Tools\MSVC\14.29.30133\atlmfc\include\afxwin2.inl

; 628  : 	{ ASSERT(::IsWindow(m_hWnd)); return (int)::SendMessage(m_hWnd, BM_GETCHECK, 0, 0); }

  00105	ff d6		 call	 esi
; File D:\git\src\IBK\IBK_DRFN\ProjSrc\SrcChartEx\ChartAddIn\ChartAnalysisToolAddIn\AnalysisTool\DlgAnalysisToolSet.cpp

; 1004 : 	m_stAnalysisTool.nRightExt = m_ctrlRightExt.GetCheck();	

  00107	89 87 b8 0c 00
	00		 mov	 DWORD PTR [edi+3256], eax
$LN3@ApplyData:

; 250  : 		SetLineExtEnvironment();
; 251  : 
; 252  : 	if(m_nEquiDivLine != G_EQUI_DIV_NONE)

  0010d	83 bf 0c 0d 00
	00 ff		 cmp	 DWORD PTR [edi+3340], -1
  00114	74 30		 je	 SHORT $LN4@ApplyData
; File C:\Program Files (x86)\Microsoft Visual Studio\2019\Community\VC\Tools\MSVC\14.29.30133\atlmfc\include\afxwin2.inl

; 628  : 	{ ASSERT(::IsWindow(m_hWnd)); return (int)::SendMessage(m_hWnd, BM_GETCHECK, 0, 0); }

  00116	6a 00		 push	 0
  00118	6a 00		 push	 0
  0011a	68 f0 00 00 00	 push	 240			; 000000f0H
  0011f	ff b7 70 06 00
	00		 push	 DWORD PTR [edi+1648]
  00125	ff d6		 call	 esi
; File D:\git\src\IBK\IBK_DRFN\ProjSrc\SrcChartEx\ChartAddIn\ChartAnalysisToolAddIn\AnalysisTool\DlgAnalysisToolSet.cpp

; 254  : 		(*m_pEquiDivEnvironment) = m_ctrlEquiDiv.GetCheck();

  00127	8b 8f 78 0d 00
	00		 mov	 ecx, DWORD PTR [edi+3448]
; File C:\Program Files (x86)\Microsoft Visual Studio\2019\Community\VC\Tools\MSVC\14.29.30133\atlmfc\include\afxwin2.inl

; 628  : 	{ ASSERT(::IsWindow(m_hWnd)); return (int)::SendMessage(m_hWnd, BM_GETCHECK, 0, 0); }

  0012d	6a 00		 push	 0
  0012f	6a 00		 push	 0
  00131	68 f0 00 00 00	 push	 240			; 000000f0H
; File D:\git\src\IBK\IBK_DRFN\ProjSrc\SrcChartEx\ChartAddIn\ChartAnalysisToolAddIn\AnalysisTool\DlgAnalysisToolSet.cpp

; 254  : 		(*m_pEquiDivEnvironment) = m_ctrlEquiDiv.GetCheck();

  00136	89 01		 mov	 DWORD PTR [ecx], eax
; File C:\Program Files (x86)\Microsoft Visual Studio\2019\Community\VC\Tools\MSVC\14.29.30133\atlmfc\include\afxwin2.inl

; 628  : 	{ ASSERT(::IsWindow(m_hWnd)); return (int)::SendMessage(m_hWnd, BM_GETCHECK, 0, 0); }

  00138	ff b7 70 06 00
	00		 push	 DWORD PTR [edi+1648]
  0013e	ff d6		 call	 esi
; File D:\git\src\IBK\IBK_DRFN\ProjSrc\SrcChartEx\ChartAddIn\ChartAnalysisToolAddIn\AnalysisTool\DlgAnalysisToolSet.cpp

; 255  : 		m_stAnalysisTool.nEquiDiv = m_ctrlEquiDiv.GetCheck();		

  00140	89 87 bc 0c 00
	00		 mov	 DWORD PTR [edi+3260], eax
$LN4@ApplyData:

; 256  : 	}
; 257  : 
; 258  : 	// (2008/8/15 - Seung-Won, Bae) Add option for using price range.
; 259  : 	if( m_nPriceRangeDivLine != G_PRICE_RANGE_DIV_NONE)

  00146	83 bf 10 0d 00
	00 ff		 cmp	 DWORD PTR [edi+3344], -1
  0014d	74 30		 je	 SHORT $LN5@ApplyData
; File C:\Program Files (x86)\Microsoft Visual Studio\2019\Community\VC\Tools\MSVC\14.29.30133\atlmfc\include\afxwin2.inl

; 628  : 	{ ASSERT(::IsWindow(m_hWnd)); return (int)::SendMessage(m_hWnd, BM_GETCHECK, 0, 0); }

  0014f	6a 00		 push	 0
  00151	6a 00		 push	 0
  00153	68 f0 00 00 00	 push	 240			; 000000f0H
  00158	ff b7 c8 00 00
	00		 push	 DWORD PTR [edi+200]
  0015e	ff d6		 call	 esi
; File D:\git\src\IBK\IBK_DRFN\ProjSrc\SrcChartEx\ChartAddIn\ChartAnalysisToolAddIn\AnalysisTool\DlgAnalysisToolSet.cpp

; 261  : 		( *m_pPriceRangeDivEnvironment) = m_chkPriceRangeDiv.GetCheck();

  00160	8b 8f 80 0d 00
	00		 mov	 ecx, DWORD PTR [edi+3456]
; File C:\Program Files (x86)\Microsoft Visual Studio\2019\Community\VC\Tools\MSVC\14.29.30133\atlmfc\include\afxwin2.inl

; 628  : 	{ ASSERT(::IsWindow(m_hWnd)); return (int)::SendMessage(m_hWnd, BM_GETCHECK, 0, 0); }

  00166	6a 00		 push	 0
  00168	6a 00		 push	 0
  0016a	68 f0 00 00 00	 push	 240			; 000000f0H
; File D:\git\src\IBK\IBK_DRFN\ProjSrc\SrcChartEx\ChartAddIn\ChartAnalysisToolAddIn\AnalysisTool\DlgAnalysisToolSet.cpp

; 261  : 		( *m_pPriceRangeDivEnvironment) = m_chkPriceRangeDiv.GetCheck();

  0016f	89 01		 mov	 DWORD PTR [ecx], eax
; File C:\Program Files (x86)\Microsoft Visual Studio\2019\Community\VC\Tools\MSVC\14.29.30133\atlmfc\include\afxwin2.inl

; 628  : 	{ ASSERT(::IsWindow(m_hWnd)); return (int)::SendMessage(m_hWnd, BM_GETCHECK, 0, 0); }

  00171	ff b7 c8 00 00
	00		 push	 DWORD PTR [edi+200]
  00177	ff d6		 call	 esi
; File D:\git\src\IBK\IBK_DRFN\ProjSrc\SrcChartEx\ChartAddIn\ChartAnalysisToolAddIn\AnalysisTool\DlgAnalysisToolSet.cpp

; 262  : 		m_stAnalysisTool.nPriceRangeDiv = m_chkPriceRangeDiv.GetCheck();		

  00179	89 87 c0 0c 00
	00		 mov	 DWORD PTR [edi+3264], eax
$LN5@ApplyData:

; 263  : 	}
; 264  : 	
; 265  : 	SetDateValueLists();

  0017f	8b cf		 mov	 ecx, edi
  00181	e8 00 00 00 00	 call	 ?SetDateValueLists@CDlgAnalysisToolSet@@AAEXXZ ; CDlgAnalysisToolSet::SetDateValueLists

; 274  : 	if(IsDlgButtonChecked(IDC_TOALLTHICK))

  00186	68 bd 0f 00 00	 push	 4029			; 00000fbdH
  0018b	8b cf		 mov	 ecx, edi
  0018d	e8 00 00 00 00	 call	 ?IsDlgButtonChecked@CWnd@@QBEIH@Z ; CWnd::IsDlgButtonChecked
  00192	85 c0		 test	 eax, eax
  00194	74 19		 je	 SHORT $LN28@ApplyData

; 275  : 	{
; 276  : 		if(!m_pInterface) return;

  00196	8b 97 8c 0d 00
	00		 mov	 edx, DWORD PTR [edi+3468]
  0019c	85 d2		 test	 edx, edx
  0019e	74 0f		 je	 SHORT $LN28@ApplyData

; 277  : 		ICanCallYou* pCanCall = (ICanCallYou*)m_pInterface;
; 278  : 		pCanCall->DoCallYou(ICCYT_changeThick,(m_nWidth+1));

  001a0	8b 87 50 0c 00
	00		 mov	 eax, DWORD PTR [edi+3152]
  001a6	8b 0a		 mov	 ecx, DWORD PTR [edx]
  001a8	40		 inc	 eax
  001a9	50		 push	 eax
  001aa	6a 01		 push	 1
  001ac	52		 push	 edx
  001ad	ff 11		 call	 DWORD PTR [ecx]
$LN28@ApplyData:
; File C:\Program Files (x86)\Microsoft Visual Studio\2019\Community\VC\Tools\MSVC\14.29.30133\atlmfc\include\afxwin2.inl

; 114  : 	{ ASSERT(::IsWindow(m_hWnd)); ::InvalidateRect(m_hWnd, NULL, bErase); }

  001af	8b 87 14 0d 00
	00		 mov	 eax, DWORD PTR [edi+3348]
  001b5	6a 01		 push	 1
  001b7	6a 00		 push	 0
  001b9	ff 70 20	 push	 DWORD PTR [eax+32]
  001bc	ff 15 00 00 00
	00		 call	 DWORD PTR __imp__InvalidateRect@12
  001c2	5f		 pop	 edi
  001c3	5e		 pop	 esi
; File D:\git\src\IBK\IBK_DRFN\ProjSrc\SrcChartEx\ChartAddIn\ChartAnalysisToolAddIn\AnalysisTool\DlgAnalysisToolSet.cpp

; 270  : }

  001c4	8b e5		 mov	 esp, ebp
  001c6	5d		 pop	 ebp
  001c7	c3		 ret	 0
?ApplyData@CDlgAnalysisToolSet@@IAEXXZ ENDP		; CDlgAnalysisToolSet::ApplyData
_TEXT	ENDS
; Function compile flags: /Ogtp
; File D:\git\src\IBK\IBK_DRFN\ProjSrc\SrcChartEx\ChartAddIn\ChartAnalysisToolAddIn\AnalysisTool\DlgAnalysisToolSet.cpp
; File C:\Program Files (x86)\Microsoft Visual Studio\2019\Community\VC\Tools\MSVC\14.29.30133\atlmfc\include\afxwin2.inl
; File D:\git\src\IBK\IBK_DRFN\ProjSrc\SrcChartEx\ChartAddIn\ChartAnalysisToolAddIn\AnalysisTool\DlgAnalysisToolSet.cpp
; File C:\Program Files (x86)\Microsoft Visual Studio\2019\Community\VC\Tools\MSVC\14.29.30133\atlmfc\include\afxwin1.inl
; File D:\git\src\IBK\IBK_DRFN\ProjSrc\SrcChartEx\ChartAddIn\ChartAnalysisToolAddIn\Include_Chart\Dll_Load\IMetaTable.h
; File C:\Program Files (x86)\Microsoft Visual Studio\2019\Community\VC\Tools\MSVC\14.29.30133\atlmfc\include\afxwin1.inl
; File D:\git\src\IBK\IBK_DRFN\ProjSrc\SrcChartEx\ChartAddIn\ChartAnalysisToolAddIn\AnalysisTool\DlgAnalysisToolSet.cpp
; File D:\git\src\IBK\IBK_DRFN\ProjSrc\SrcChartEx\ChartAddIn\ChartAnalysisToolAddIn\Include_Chart\Dll_Load\IMetaTable.h
; File C:\Program Files (x86)\Microsoft Visual Studio\2019\Community\VC\Tools\MSVC\14.29.30133\atlmfc\include\afxwin1.inl
; File D:\git\src\IBK\IBK_DRFN\ProjSrc\SrcChartEx\ChartAddIn\ChartAnalysisToolAddIn\Include_Chart\Dll_Load\IMetaTable.h
; File C:\Program Files (x86)\Microsoft Visual Studio\2019\Community\VC\Tools\MSVC\14.29.30133\atlmfc\include\afxwin1.inl
; File D:\git\src\IBK\IBK_DRFN\ProjSrc\SrcChartEx\ChartAddIn\ChartAnalysisToolAddIn\AnalysisTool\DlgAnalysisToolSet.cpp
; File C:\Program Files (x86)\Microsoft Visual Studio\2019\Community\VC\Tools\MSVC\14.29.30133\atlmfc\include\afxwin1.inl
; File D:\git\src\IBK\IBK_DRFN\ProjSrc\SrcChartEx\ChartAddIn\ChartAnalysisToolAddIn\Include_Chart\Dll_Load\IMetaTable.h
; File C:\Program Files (x86)\Microsoft Visual Studio\2019\Community\VC\Tools\MSVC\14.29.30133\atlmfc\include\afxwin1.inl
; File D:\git\src\IBK\IBK_DRFN\ProjSrc\SrcChartEx\ChartAddIn\ChartAnalysisToolAddIn\AnalysisTool\DlgAnalysisToolSet.cpp
; File D:\git\src\IBK\IBK_DRFN\ProjSrc\SrcChartEx\ChartAddIn\ChartAnalysisToolAddIn\Include_Chart\Dll_Load\IMetaTable.h
; File C:\Program Files (x86)\Microsoft Visual Studio\2019\Community\VC\Tools\MSVC\14.29.30133\atlmfc\include\afxwin1.inl
; File D:\git\src\IBK\IBK_DRFN\ProjSrc\SrcChartEx\ChartAddIn\ChartAnalysisToolAddIn\AnalysisTool\DlgAnalysisToolSet.cpp
; File D:\git\src\IBK\IBK_DRFN\ProjSrc\SrcChartEx\ChartAddIn\ChartAnalysisToolAddIn\Include_Chart\Dll_Load\IMetaTable.h
; File C:\Program Files (x86)\Microsoft Visual Studio\2019\Community\VC\Tools\MSVC\14.29.30133\atlmfc\include\afxwin1.inl
; File D:\git\src\IBK\IBK_DRFN\ProjSrc\SrcChartEx\ChartAddIn\ChartAnalysisToolAddIn\AnalysisTool\DlgAnalysisToolSet.cpp
; File C:\Program Files (x86)\Microsoft Visual Studio\2019\Community\VC\Tools\MSVC\14.29.30133\atlmfc\include\afxwin2.inl
; File C:\Program Files (x86)\Microsoft Visual Studio\2019\Community\VC\Tools\MSVC\14.29.30133\atlmfc\include\atltypes.h
; File C:\Program Files (x86)\Microsoft Visual Studio\2019\Community\VC\Tools\MSVC\14.29.30133\atlmfc\include\afxwin2.inl
; File D:\git\src\IBK\IBK_DRFN\ProjSrc\SrcChartEx\ChartAddIn\ChartAnalysisToolAddIn\AnalysisTool\DlgAnalysisToolSet.cpp
; File C:\Program Files (x86)\Microsoft Visual Studio\2019\Community\VC\Tools\MSVC\14.29.30133\atlmfc\include\afxwin2.inl
; File D:\git\src\IBK\IBK_DRFN\ProjSrc\SrcChartEx\ChartAddIn\ChartAnalysisToolAddIn\AnalysisTool\DlgAnalysisToolSet.cpp
; File C:\Program Files (x86)\Microsoft Visual Studio\2019\Community\VC\Tools\MSVC\14.29.30133\atlmfc\include\afxwin2.inl
; File D:\git\src\IBK\IBK_DRFN\ProjSrc\SrcChartEx\ChartAddIn\ChartAnalysisToolAddIn\AnalysisTool\DlgAnalysisToolSet.cpp
; File C:\Program Files (x86)\Microsoft Visual Studio\2019\Community\VC\Tools\MSVC\14.29.30133\atlmfc\include\afxwin2.inl
; File D:\git\src\IBK\IBK_DRFN\ProjSrc\SrcChartEx\ChartAddIn\ChartAnalysisToolAddIn\AnalysisTool\DlgAnalysisToolSet.cpp
; File C:\Program Files (x86)\Microsoft Visual Studio\2019\Community\VC\Tools\MSVC\14.29.30133\atlmfc\include\atltypes.h
; File D:\git\src\IBK\IBK_DRFN\ProjSrc\SrcChartEx\ChartAddIn\ChartAnalysisToolAddIn\AnalysisTool\DlgAnalysisToolSet.cpp
; File C:\Program Files (x86)\Microsoft Visual Studio\2019\Community\VC\Tools\MSVC\14.29.30133\atlmfc\include\afxwin2.inl
; File D:\git\src\IBK\IBK_DRFN\ProjSrc\SrcChartEx\ChartAddIn\ChartAnalysisToolAddIn\AnalysisTool\DlgAnalysisToolSet.cpp
; File C:\Program Files (x86)\Microsoft Visual Studio\2019\Community\VC\Tools\MSVC\14.29.30133\atlmfc\include\afxwin2.inl
; File D:\git\src\IBK\IBK_DRFN\ProjSrc\SrcChartEx\ChartAddIn\ChartAnalysisToolAddIn\AnalysisTool\DlgAnalysisToolSet.cpp
; File C:\Program Files (x86)\Microsoft Visual Studio\2019\Community\VC\Tools\MSVC\14.29.30133\atlmfc\include\afxwin2.inl
; File C:\Program Files (x86)\Microsoft Visual Studio\2019\Community\VC\Tools\MSVC\14.29.30133\atlmfc\include\atltypes.h
; File D:\git\src\IBK\IBK_DRFN\ProjSrc\SrcChartEx\ChartAddIn\ChartAnalysisToolAddIn\AnalysisTool\DlgAnalysisToolSet.cpp
; File D:\git\src\IBK\IBK_DRFN\ProjSrc\SrcChartEx\ChartAddIn\ChartAnalysisToolAddIn\Include_Chart\Dll_Load\IMetaTable.h
; File D:\git\src\IBK\IBK_DRFN\ProjSrc\SrcChartEx\ChartAddIn\ChartAnalysisToolAddIn\AnalysisTool\DlgAnalysisToolSet.cpp
; File D:\git\src\IBK\IBK_DRFN\ProjSrc\SrcChartEx\ChartAddIn\ChartAnalysisToolAddIn\Include_Chart\Dll_Load\IMetaTable.h
; File D:\git\src\IBK\IBK_DRFN\ProjSrc\SrcChartEx\ChartAddIn\ChartAnalysisToolAddIn\AnalysisTool\DlgAnalysisToolSet.cpp
; File C:\Program Files (x86)\Microsoft Visual Studio\2019\Community\VC\Tools\MSVC\14.29.30133\atlmfc\include\afxwin2.inl
; File C:\Program Files (x86)\Microsoft Visual Studio\2019\Community\VC\Tools\MSVC\14.29.30133\atlmfc\include\atltypes.h
; File D:\git\src\IBK\IBK_DRFN\ProjSrc\SrcChartEx\ChartAddIn\ChartAnalysisToolAddIn\AnalysisTool\DlgAnalysisToolSet.cpp
; File C:\Program Files (x86)\Microsoft Visual Studio\2019\Community\VC\Tools\MSVC\14.29.30133\atlmfc\include\afxwin2.inl
; File C:\Program Files (x86)\Microsoft Visual Studio\2019\Community\VC\Tools\MSVC\14.29.30133\atlmfc\include\atltypes.h
; File D:\git\src\IBK\IBK_DRFN\ProjSrc\SrcChartEx\ChartAddIn\ChartAnalysisToolAddIn\AnalysisTool\DlgAnalysisToolSet.cpp
; File C:\Program Files (x86)\Microsoft Visual Studio\2019\Community\VC\Tools\MSVC\14.29.30133\atlmfc\include\afxwin2.inl
; File C:\Program Files (x86)\Microsoft Visual Studio\2019\Community\VC\Tools\MSVC\14.29.30133\atlmfc\include\atltypes.h
; File D:\git\src\IBK\IBK_DRFN\ProjSrc\SrcChartEx\ChartAddIn\ChartAnalysisToolAddIn\AnalysisTool\DlgAnalysisToolSet.cpp
; File C:\Program Files (x86)\Microsoft Visual Studio\2019\Community\VC\Tools\MSVC\14.29.30133\atlmfc\include\afxwin2.inl
; File C:\Program Files (x86)\Microsoft Visual Studio\2019\Community\VC\Tools\MSVC\14.29.30133\atlmfc\include\atltypes.h
; File D:\git\src\IBK\IBK_DRFN\ProjSrc\SrcChartEx\ChartAddIn\ChartAnalysisToolAddIn\AnalysisTool\DlgAnalysisToolSet.cpp
; File C:\Program Files (x86)\Microsoft Visual Studio\2019\Community\VC\Tools\MSVC\14.29.30133\atlmfc\include\afxwin2.inl
; File C:\Program Files (x86)\Microsoft Visual Studio\2019\Community\VC\Tools\MSVC\14.29.30133\atlmfc\include\atltypes.h
; File D:\git\src\IBK\IBK_DRFN\ProjSrc\SrcChartEx\ChartAddIn\ChartAnalysisToolAddIn\AnalysisTool\DlgAnalysisToolSet.cpp
; File C:\Program Files (x86)\Microsoft Visual Studio\2019\Community\VC\Tools\MSVC\14.29.30133\atlmfc\include\afxwin2.inl
; File C:\Program Files (x86)\Microsoft Visual Studio\2019\Community\VC\Tools\MSVC\14.29.30133\atlmfc\include\atltypes.h
; File D:\git\src\IBK\IBK_DRFN\ProjSrc\SrcChartEx\ChartAddIn\ChartAnalysisToolAddIn\AnalysisTool\DlgAnalysisToolSet.cpp
; File C:\Program Files (x86)\Microsoft Visual Studio\2019\Community\VC\Tools\MSVC\14.29.30133\atlmfc\include\afxwin2.inl
; File D:\git\src\IBK\IBK_DRFN\ProjSrc\SrcChartEx\ChartAddIn\ChartAnalysisToolAddIn\AnalysisTool\DlgAnalysisToolSet.cpp
; File C:\Program Files (x86)\Microsoft Visual Studio\2019\Community\VC\Tools\MSVC\14.29.30133\atlmfc\include\afxwin2.inl
; File D:\git\src\IBK\IBK_DRFN\ProjSrc\SrcChartEx\ChartAddIn\ChartAnalysisToolAddIn\AnalysisTool\DlgAnalysisToolSet.cpp
; File C:\Program Files (x86)\Microsoft Visual Studio\2019\Community\VC\Tools\MSVC\14.29.30133\atlmfc\include\afxwin2.inl
; File D:\git\src\IBK\IBK_DRFN\ProjSrc\SrcChartEx\ChartAddIn\ChartAnalysisToolAddIn\AnalysisTool\DlgAnalysisToolSet.cpp
; File C:\Program Files (x86)\Microsoft Visual Studio\2019\Community\VC\Tools\MSVC\14.29.30133\atlmfc\include\afxwin2.inl
; File D:\git\src\IBK\IBK_DRFN\ProjSrc\SrcChartEx\ChartAddIn\ChartAnalysisToolAddIn\AnalysisTool\DlgAnalysisToolSet.cpp
; File C:\Program Files (x86)\Microsoft Visual Studio\2019\Community\VC\Tools\MSVC\14.29.30133\atlmfc\include\afxwin2.inl
; File D:\git\src\IBK\IBK_DRFN\ProjSrc\SrcChartEx\ChartAddIn\ChartAnalysisToolAddIn\AnalysisTool\DlgAnalysisToolSet.cpp
; File C:\Program Files (x86)\Microsoft Visual Studio\2019\Community\VC\Tools\MSVC\14.29.30133\atlmfc\include\afxwin2.inl
; File D:\git\src\IBK\IBK_DRFN\ProjSrc\SrcChartEx\ChartAddIn\ChartAnalysisToolAddIn\AnalysisTool\DlgAnalysisToolSet.cpp
; File C:\Program Files (x86)\Microsoft Visual Studio\2019\Community\VC\Tools\MSVC\14.29.30133\atlmfc\include\afxwin2.inl
; File D:\git\src\IBK\IBK_DRFN\ProjSrc\SrcChartEx\ChartAddIn\ChartAnalysisToolAddIn\AnalysisTool\DlgAnalysisToolSet.cpp
; File C:\Program Files (x86)\Microsoft Visual Studio\2019\Community\VC\Tools\MSVC\14.29.30133\atlmfc\include\afxwin2.inl
; File D:\git\src\IBK\IBK_DRFN\ProjSrc\SrcChartEx\ChartAddIn\ChartAnalysisToolAddIn\AnalysisTool\DlgAnalysisToolSet.cpp
; File C:\Program Files (x86)\Microsoft Visual Studio\2019\Community\VC\Tools\MSVC\14.29.30133\atlmfc\include\afxwin2.inl
; File D:\git\src\IBK\IBK_DRFN\ProjSrc\SrcChartEx\ChartAddIn\ChartAnalysisToolAddIn\AnalysisTool\DlgAnalysisToolSet.cpp
; File C:\Program Files (x86)\Microsoft Visual Studio\2019\Community\VC\Tools\MSVC\14.29.30133\atlmfc\include\afxwin2.inl
; File D:\git\src\IBK\IBK_DRFN\ProjSrc\SrcChartEx\ChartAddIn\ChartAnalysisToolAddIn\AnalysisTool\DlgAnalysisToolSet.cpp
; File C:\Program Files (x86)\Microsoft Visual Studio\2019\Community\VC\Tools\MSVC\14.29.30133\atlmfc\include\afxwin2.inl
; File D:\git\src\IBK\IBK_DRFN\ProjSrc\SrcChartEx\ChartAddIn\ChartAnalysisToolAddIn\AnalysisTool\DlgAnalysisToolSet.cpp
; File C:\Program Files (x86)\Microsoft Visual Studio\2019\Community\VC\Tools\MSVC\14.29.30133\atlmfc\include\afxwin2.inl
; File D:\git\src\IBK\IBK_DRFN\ProjSrc\SrcChartEx\ChartAddIn\ChartAnalysisToolAddIn\AnalysisTool\DlgAnalysisToolSet.cpp
; File C:\Program Files (x86)\Microsoft Visual Studio\2019\Community\VC\Tools\MSVC\14.29.30133\atlmfc\include\afxwin1.inl
; File D:\git\src\IBK\IBK_DRFN\ProjSrc\SrcChartEx\ChartAddIn\ChartAnalysisToolAddIn\Include_Chart\Dll_Load\IMetaTable.h
; File C:\Program Files (x86)\Microsoft Visual Studio\2019\Community\VC\Tools\MSVC\14.29.30133\atlmfc\include\afxwin1.inl
; File D:\git\src\IBK\IBK_DRFN\ProjSrc\SrcChartEx\ChartAddIn\ChartAnalysisToolAddIn\AnalysisTool\DlgAnalysisToolSet.cpp
; File C:\Program Files (x86)\Microsoft Visual Studio\2019\Community\VC\Tools\MSVC\14.29.30133\atlmfc\include\afxwin2.inl
; File D:\git\src\IBK\IBK_DRFN\ProjSrc\SrcChartEx\ChartAddIn\ChartAnalysisToolAddIn\AnalysisTool\DlgAnalysisToolSet.cpp
; File C:\Program Files (x86)\Microsoft Visual Studio\2019\Community\VC\Tools\MSVC\14.29.30133\atlmfc\include\afxwin2.inl
; File D:\git\src\IBK\IBK_DRFN\ProjSrc\SrcChartEx\ChartAddIn\ChartAnalysisToolAddIn\AnalysisTool\DlgAnalysisToolSet.cpp
; File C:\Program Files (x86)\Microsoft Visual Studio\2019\Community\VC\Tools\MSVC\14.29.30133\atlmfc\include\afxwin2.inl
; File D:\git\src\IBK\IBK_DRFN\ProjSrc\SrcChartEx\ChartAddIn\ChartAnalysisToolAddIn\AnalysisTool\DlgAnalysisToolSet.cpp
; File D:\git\src\IBK\IBK_DRFN\ProjSrc\SrcChartEx\ChartAddIn\ChartAnalysisToolAddIn\Include_Chart\Dll_Load\IMetaTable.h
; File C:\Program Files (x86)\Microsoft Visual Studio\2019\Community\VC\Tools\MSVC\14.29.30133\atlmfc\include\afxwin1.inl
; File D:\git\src\IBK\IBK_DRFN\ProjSrc\SrcChartEx\ChartAddIn\ChartAnalysisToolAddIn\Include_Chart\Dll_Load\IMetaTable.h
; File C:\Program Files (x86)\Microsoft Visual Studio\2019\Community\VC\Tools\MSVC\14.29.30133\atlmfc\include\afxwin1.inl
; File D:\git\src\IBK\IBK_DRFN\ProjSrc\SrcChartEx\ChartAddIn\ChartAnalysisToolAddIn\AnalysisTool\DlgAnalysisToolSet.cpp
; File C:\Program Files (x86)\Microsoft Visual Studio\2019\Community\VC\Tools\MSVC\14.29.30133\atlmfc\include\afxwin1.inl
; File D:\git\src\IBK\IBK_DRFN\ProjSrc\SrcChartEx\ChartAddIn\ChartAnalysisToolAddIn\Include_Chart\Dll_Load\IMetaTable.h
; File C:\Program Files (x86)\Microsoft Visual Studio\2019\Community\VC\Tools\MSVC\14.29.30133\atlmfc\include\afxwin1.inl
; File D:\git\src\IBK\IBK_DRFN\ProjSrc\SrcChartEx\ChartAddIn\ChartAnalysisToolAddIn\AnalysisTool\DlgAnalysisToolSet.cpp
; File C:\Program Files (x86)\Microsoft Visual Studio\2019\Community\VC\Tools\MSVC\14.29.30133\atlmfc\include\afxwin2.inl
; File D:\git\src\IBK\IBK_DRFN\ProjSrc\SrcChartEx\ChartAddIn\ChartAnalysisToolAddIn\AnalysisTool\DlgAnalysisToolSet.cpp
; File C:\Program Files (x86)\Microsoft Visual Studio\2019\Community\VC\Tools\MSVC\14.29.30133\atlmfc\include\afxwin2.inl
; File D:\git\src\IBK\IBK_DRFN\ProjSrc\SrcChartEx\ChartAddIn\ChartAnalysisToolAddIn\AnalysisTool\DlgAnalysisToolSet.cpp
; File D:\git\src\IBK\IBK_DRFN\ProjSrc\SrcChartEx\ChartAddIn\ChartAnalysisToolAddIn\Include_Chart\Dll_Load\IMetaTable.h
; File C:\Program Files (x86)\Microsoft Visual Studio\2019\Community\VC\Tools\MSVC\14.29.30133\atlmfc\include\afxwin1.inl
; File D:\git\src\IBK\IBK_DRFN\ProjSrc\SrcChartEx\ChartAddIn\ChartAnalysisToolAddIn\Include_Chart\Dll_Load\IMetaTable.h
; File C:\Program Files (x86)\Microsoft Visual Studio\2019\Community\VC\Tools\MSVC\14.29.30133\atlmfc\include\afxwin1.inl
; File D:\git\src\IBK\IBK_DRFN\ProjSrc\SrcChartEx\ChartAddIn\ChartAnalysisToolAddIn\AnalysisTool\DlgAnalysisToolSet.cpp
; File C:\Program Files (x86)\Microsoft Visual Studio\2019\Community\VC\Tools\MSVC\14.29.30133\atlmfc\include\afxwin1.inl
; File D:\git\src\IBK\IBK_DRFN\ProjSrc\SrcChartEx\ChartAddIn\ChartAnalysisToolAddIn\Include_Chart\Dll_Load\IMetaTable.h
; File C:\Program Files (x86)\Microsoft Visual Studio\2019\Community\VC\Tools\MSVC\14.29.30133\atlmfc\include\afxwin1.inl
; File D:\git\src\IBK\IBK_DRFN\ProjSrc\SrcChartEx\ChartAddIn\ChartAnalysisToolAddIn\AnalysisTool\DlgAnalysisToolSet.cpp
; File D:\git\src\IBK\IBK_DRFN\ProjSrc\SrcChartEx\ChartAddIn\ChartAnalysisToolAddIn\Include_Chart\Dll_Load\IMetaTable.h
; File C:\Program Files (x86)\Microsoft Visual Studio\2019\Community\VC\Tools\MSVC\14.29.30133\atlmfc\include\afxwin1.inl
; File D:\git\src\IBK\IBK_DRFN\ProjSrc\SrcChartEx\ChartAddIn\ChartAnalysisToolAddIn\Include_Chart\Dll_Load\IMetaTable.h
; File C:\Program Files (x86)\Microsoft Visual Studio\2019\Community\VC\Tools\MSVC\14.29.30133\atlmfc\include\afxwin1.inl
; File D:\git\src\IBK\IBK_DRFN\ProjSrc\SrcChartEx\ChartAddIn\ChartAnalysisToolAddIn\AnalysisTool\DlgAnalysisToolSet.cpp
; File C:\Program Files (x86)\Microsoft Visual Studio\2019\Community\VC\Tools\MSVC\14.29.30133\atlmfc\include\afxwin2.inl
; File D:\git\src\IBK\IBK_DRFN\ProjSrc\SrcChartEx\ChartAddIn\ChartAnalysisToolAddIn\AnalysisTool\DlgAnalysisToolSet.cpp
; File C:\Program Files (x86)\Microsoft Visual Studio\2019\Community\VC\Tools\MSVC\14.29.30133\atlmfc\include\afxwin2.inl
; File D:\git\src\IBK\IBK_DRFN\ProjSrc\SrcChartEx\ChartAddIn\ChartAnalysisToolAddIn\AnalysisTool\DlgAnalysisToolSet.cpp
; File C:\Program Files (x86)\Microsoft Visual Studio\2019\Community\VC\Tools\MSVC\14.29.30133\atlmfc\include\afxwin1.inl
; File D:\git\src\IBK\IBK_DRFN\ProjSrc\SrcChartEx\ChartAddIn\ChartAnalysisToolAddIn\Include_Chart\Dll_Load\IMetaTable.h
; File C:\Program Files (x86)\Microsoft Visual Studio\2019\Community\VC\Tools\MSVC\14.29.30133\atlmfc\include\afxwin1.inl
; File D:\git\src\IBK\IBK_DRFN\ProjSrc\SrcChartEx\ChartAddIn\ChartAnalysisToolAddIn\AnalysisTool\DlgAnalysisToolSet.cpp
; File C:\Program Files (x86)\Microsoft Visual Studio\2019\Community\VC\Tools\MSVC\14.29.30133\atlmfc\include\afxwin2.inl
; File D:\git\src\IBK\IBK_DRFN\ProjSrc\SrcChartEx\ChartAddIn\ChartAnalysisToolAddIn\AnalysisTool\DlgAnalysisToolSet.cpp
; File C:\Program Files (x86)\Microsoft Visual Studio\2019\Community\VC\Tools\MSVC\14.29.30133\atlmfc\include\afxwin2.inl
; File D:\git\src\IBK\IBK_DRFN\ProjSrc\SrcChartEx\ChartAddIn\ChartAnalysisToolAddIn\AnalysisTool\DlgAnalysisToolSet.cpp
; File C:\Program Files (x86)\Microsoft Visual Studio\2019\Community\VC\Tools\MSVC\14.29.30133\atlmfc\include\afxwin2.inl
; File D:\git\src\IBK\IBK_DRFN\ProjSrc\SrcChartEx\ChartAddIn\ChartAnalysisToolAddIn\AnalysisTool\DlgAnalysisToolSet.cpp
; File C:\Program Files (x86)\Microsoft Visual Studio\2019\Community\VC\Tools\MSVC\14.29.30133\atlmfc\include\afxwin2.inl
; File D:\git\src\IBK\IBK_DRFN\ProjSrc\SrcChartEx\ChartAddIn\ChartAnalysisToolAddIn\AnalysisTool\DlgAnalysisToolSet.cpp
; File D:\git\src\IBK\IBK_DRFN\ProjSrc\SrcChartEx\ChartAddIn\ChartAnalysisToolAddIn\Include_Chart\Dll_Load\IMetaTable.h
; File C:\Program Files (x86)\Microsoft Visual Studio\2019\Community\VC\Tools\MSVC\14.29.30133\atlmfc\include\afxwin1.inl
; File D:\git\src\IBK\IBK_DRFN\ProjSrc\SrcChartEx\ChartAddIn\ChartAnalysisToolAddIn\Include_Chart\Dll_Load\IMetaTable.h
; File C:\Program Files (x86)\Microsoft Visual Studio\2019\Community\VC\Tools\MSVC\14.29.30133\atlmfc\include\afxwin1.inl
; File D:\git\src\IBK\IBK_DRFN\ProjSrc\SrcChartEx\ChartAddIn\ChartAnalysisToolAddIn\AnalysisTool\DlgAnalysisToolSet.cpp
; File C:\Program Files (x86)\Microsoft Visual Studio\2019\Community\VC\Tools\MSVC\14.29.30133\atlmfc\include\afxwin2.inl
; File D:\git\src\IBK\IBK_DRFN\ProjSrc\SrcChartEx\ChartAddIn\ChartAnalysisToolAddIn\AnalysisTool\DlgAnalysisToolSet.cpp
; File C:\Program Files (x86)\Microsoft Visual Studio\2019\Community\VC\Tools\MSVC\14.29.30133\atlmfc\include\afxwin2.inl
; File D:\git\src\IBK\IBK_DRFN\ProjSrc\SrcChartEx\ChartAddIn\ChartAnalysisToolAddIn\AnalysisTool\DlgAnalysisToolSet.cpp
; File C:\Program Files (x86)\Microsoft Visual Studio\2019\Community\VC\Tools\MSVC\14.29.30133\atlmfc\include\afxwin2.inl
; File D:\git\src\IBK\IBK_DRFN\ProjSrc\SrcChartEx\ChartAddIn\ChartAnalysisToolAddIn\AnalysisTool\DlgAnalysisToolSet.cpp
; File C:\Program Files (x86)\Microsoft Visual Studio\2019\Community\VC\Tools\MSVC\14.29.30133\atlmfc\include\afxwin2.inl
; File D:\git\src\IBK\IBK_DRFN\ProjSrc\SrcChartEx\ChartAddIn\ChartAnalysisToolAddIn\AnalysisTool\DlgAnalysisToolSet.cpp
; File C:\Program Files (x86)\Microsoft Visual Studio\2019\Community\VC\Tools\MSVC\14.29.30133\atlmfc\include\afxwin2.inl
; File D:\git\src\IBK\IBK_DRFN\ProjSrc\SrcChartEx\ChartAddIn\ChartAnalysisToolAddIn\AnalysisTool\DlgAnalysisToolSet.cpp
; File C:\Program Files (x86)\Microsoft Visual Studio\2019\Community\VC\Tools\MSVC\14.29.30133\atlmfc\include\afxwin2.inl
; File D:\git\src\IBK\IBK_DRFN\ProjSrc\SrcChartEx\ChartAddIn\ChartAnalysisToolAddIn\AnalysisTool\DlgAnalysisToolSet.cpp
; File C:\Program Files (x86)\Microsoft Visual Studio\2019\Community\VC\Tools\MSVC\14.29.30133\atlmfc\include\afxwin2.inl
; File D:\git\src\IBK\IBK_DRFN\ProjSrc\SrcChartEx\ChartAddIn\ChartAnalysisToolAddIn\AnalysisTool\DlgAnalysisToolSet.cpp
; File C:\Program Files (x86)\Microsoft Visual Studio\2019\Community\VC\Tools\MSVC\14.29.30133\atlmfc\include\afxwin2.inl
; File D:\git\src\IBK\IBK_DRFN\ProjSrc\SrcChartEx\ChartAddIn\ChartAnalysisToolAddIn\AnalysisTool\DlgAnalysisToolSet.cpp
; File C:\Program Files (x86)\Microsoft Visual Studio\2019\Community\VC\Tools\MSVC\14.29.30133\atlmfc\include\afxwin2.inl
; File D:\git\src\IBK\IBK_DRFN\ProjSrc\SrcChartEx\ChartAddIn\ChartAnalysisToolAddIn\AnalysisTool\DlgAnalysisToolSet.cpp
; File C:\Program Files (x86)\Microsoft Visual Studio\2019\Community\VC\Tools\MSVC\14.29.30133\atlmfc\include\afxwin2.inl
; File D:\git\src\IBK\IBK_DRFN\ProjSrc\SrcChartEx\ChartAddIn\ChartAnalysisToolAddIn\AnalysisTool\DlgAnalysisToolSet.cpp
; File C:\Program Files (x86)\Microsoft Visual Studio\2019\Community\VC\Tools\MSVC\14.29.30133\atlmfc\include\afxwin2.inl
; File D:\git\src\IBK\IBK_DRFN\ProjSrc\SrcChartEx\ChartAddIn\ChartAnalysisToolAddIn\AnalysisTool\DlgAnalysisToolSet.cpp
; File C:\Program Files (x86)\Microsoft Visual Studio\2019\Community\VC\Tools\MSVC\14.29.30133\atlmfc\include\afxwin2.inl
; File D:\git\src\IBK\IBK_DRFN\ProjSrc\SrcChartEx\ChartAddIn\ChartAnalysisToolAddIn\AnalysisTool\DlgAnalysisToolSet.cpp
; File C:\Program Files (x86)\Microsoft Visual Studio\2019\Community\VC\Tools\MSVC\14.29.30133\atlmfc\include\afxwin2.inl
; File D:\git\src\IBK\IBK_DRFN\ProjSrc\SrcChartEx\ChartAddIn\ChartAnalysisToolAddIn\AnalysisTool\DlgAnalysisToolSet.cpp
; File C:\Program Files (x86)\Microsoft Visual Studio\2019\Community\VC\Tools\MSVC\14.29.30133\atlmfc\include\afxwin2.inl
; File D:\git\src\IBK\IBK_DRFN\ProjSrc\SrcChartEx\ChartAddIn\ChartAnalysisToolAddIn\AnalysisTool\DlgAnalysisToolSet.cpp
; File C:\Program Files (x86)\Microsoft Visual Studio\2019\Community\VC\Tools\MSVC\14.29.30133\atlmfc\include\afxwin2.inl
; File D:\git\src\IBK\IBK_DRFN\ProjSrc\SrcChartEx\ChartAddIn\ChartAnalysisToolAddIn\AnalysisTool\DlgAnalysisToolSet.cpp
; File C:\Program Files (x86)\Microsoft Visual Studio\2019\Community\VC\Tools\MSVC\14.29.30133\atlmfc\include\afxwin1.inl
; File D:\git\src\IBK\IBK_DRFN\ProjSrc\SrcChartEx\ChartAddIn\ChartAnalysisToolAddIn\Include_Chart\Dll_Load\IMetaTable.h
; File C:\Program Files (x86)\Microsoft Visual Studio\2019\Community\VC\Tools\MSVC\14.29.30133\atlmfc\include\afxwin1.inl
; File D:\git\src\IBK\IBK_DRFN\ProjSrc\SrcChartEx\ChartAddIn\ChartAnalysisToolAddIn\AnalysisTool\DlgAnalysisToolSet.cpp
; File C:\Program Files (x86)\Microsoft Visual Studio\2019\Community\VC\Tools\MSVC\14.29.30133\atlmfc\include\afxwin2.inl
; File D:\git\src\IBK\IBK_DRFN\ProjSrc\SrcChartEx\ChartAddIn\ChartAnalysisToolAddIn\AnalysisTool\DlgAnalysisToolSet.cpp
; File C:\Program Files (x86)\Microsoft Visual Studio\2019\Community\VC\Tools\MSVC\14.29.30133\atlmfc\include\afxwin2.inl
; File D:\git\src\IBK\IBK_DRFN\ProjSrc\SrcChartEx\ChartAddIn\ChartAnalysisToolAddIn\AnalysisTool\DlgAnalysisToolSet.cpp
; File C:\Program Files (x86)\Microsoft Visual Studio\2019\Community\VC\Tools\MSVC\14.29.30133\atlmfc\include\afxwin2.inl
; File D:\git\src\IBK\IBK_DRFN\ProjSrc\SrcChartEx\ChartAddIn\ChartAnalysisToolAddIn\AnalysisTool\DlgAnalysisToolSet.cpp
; File C:\Program Files (x86)\Microsoft Visual Studio\2019\Community\VC\Tools\MSVC\14.29.30133\atlmfc\include\afxwin2.inl
; File D:\git\src\IBK\IBK_DRFN\ProjSrc\SrcChartEx\ChartAddIn\ChartAnalysisToolAddIn\AnalysisTool\DlgAnalysisToolSet.cpp
; File D:\git\src\IBK\IBK_DRFN\ProjSrc\SrcChartEx\ChartAddIn\ChartAnalysisToolAddIn\Include_Chart\Dll_Load\IMetaTable.h
; File D:\git\src\IBK\IBK_DRFN\ProjSrc\SrcChartEx\ChartAddIn\ChartAnalysisToolAddIn\AnalysisTool\DlgAnalysisToolSet.cpp
; File C:\Program Files (x86)\Microsoft Visual Studio\2019\Community\VC\Tools\MSVC\14.29.30133\atlmfc\include\afxwin1.inl
; File D:\git\src\IBK\IBK_DRFN\ProjSrc\SrcChartEx\ChartAddIn\ChartAnalysisToolAddIn\Include_Chart\Dll_Load\IMetaTable.h
; File C:\Program Files (x86)\Microsoft Visual Studio\2019\Community\VC\Tools\MSVC\14.29.30133\atlmfc\include\afxwin1.inl
; File D:\git\src\IBK\IBK_DRFN\ProjSrc\SrcChartEx\ChartAddIn\ChartAnalysisToolAddIn\AnalysisTool\DlgAnalysisToolSet.cpp
; File C:\Program Files (x86)\Microsoft Visual Studio\2019\Community\VC\Tools\MSVC\14.29.30133\atlmfc\include\afxwin2.inl
; File D:\git\src\IBK\IBK_DRFN\ProjSrc\SrcChartEx\ChartAddIn\ChartAnalysisToolAddIn\AnalysisTool\DlgAnalysisToolSet.cpp
; File C:\Program Files (x86)\Microsoft Visual Studio\2019\Community\VC\Tools\MSVC\14.29.30133\atlmfc\include\afxwin2.inl
; File D:\git\src\IBK\IBK_DRFN\ProjSrc\SrcChartEx\ChartAddIn\ChartAnalysisToolAddIn\AnalysisTool\DlgAnalysisToolSet.cpp
; File D:\git\src\IBK\IBK_DRFN\ProjSrc\SrcChartEx\ChartAddIn\ChartAnalysisToolAddIn\Include_Chart\Dll_Load\IMetaTable.h
; File D:\git\src\IBK\IBK_DRFN\ProjSrc\SrcChartEx\ChartAddIn\ChartAnalysisToolAddIn\AnalysisTool\DlgAnalysisToolSet.cpp
; File C:\Program Files (x86)\Microsoft Visual Studio\2019\Community\VC\Tools\MSVC\14.29.30133\atlmfc\include\cstringt.h
; File D:\git\src\IBK\IBK_DRFN\ProjSrc\SrcChartEx\ChartAddIn\ChartAnalysisToolAddIn\AnalysisTool\DlgAnalysisToolSet.cpp
; File C:\Program Files (x86)\Microsoft Visual Studio\2019\Community\VC\Tools\MSVC\14.29.30133\atlmfc\include\cstringt.h
; File D:\git\src\IBK\IBK_DRFN\ProjSrc\SrcChartEx\ChartAddIn\ChartAnalysisToolAddIn\AnalysisTool\DlgAnalysisToolSet.cpp
; File C:\Program Files (x86)\Microsoft Visual Studio\2019\Community\VC\Tools\MSVC\14.29.30133\atlmfc\include\atlsimpstr.h
; File D:\git\src\IBK\IBK_DRFN\ProjSrc\SrcChartEx\ChartAddIn\ChartAnalysisToolAddIn\AnalysisTool\DlgAnalysisToolSet.cpp
;	COMDAT ?InitializeData@CDlgAnalysisToolSet@@IAEXXZ
_TEXT	SEGMENT
_dYValue$ = -88						; size = 8
_nBlockColumn$2 = -80					; size = 4
$T3 = -76						; size = 4
$T4 = -72						; size = 4
_nCenter_x$5 = -68					; size = 4
_strYValue$6 = -64					; size = 4
_i$1$ = -60						; size = 4
$T7 = -60						; size = 4
_pCoordinate$1$ = -56					; size = 4
___mlrs__$8 = -56					; size = 4
___mlrs__$9 = -56					; size = 4
___mlrs__$10 = -56					; size = 4
___mlrs__$11 = -56					; size = 4
___mlrs__$12 = -56					; size = 4
___mlrs__$13 = -56					; size = 4
___mlrs__$14 = -56					; size = 4
___mlrs__$15 = -56					; size = 4
_pIChartManager$1$ = -52				; size = 4
_nTempX$3$ = -52					; size = 4
_strTitle$16 = -52					; size = 4
_strTitle$17 = -52					; size = 4
_strTitle$18 = -52					; size = 4
_strTitle$19 = -52					; size = 4
_strTitle$20 = -52					; size = 4
_strTitle$21 = -52					; size = 4
_rectPos$22 = -48					; size = 16
_rect$23 = -32						; size = 16
_dX$24 = -24						; size = 8
__$ArrayPad$ = -16					; size = 4
__$EHRec$ = -12						; size = 12
?InitializeData@CDlgAnalysisToolSet@@IAEXXZ PROC	; CDlgAnalysisToolSet::InitializeData, COMDAT
; _this$ = ecx

; 338  : {

  00000	55		 push	 ebp
  00001	8b ec		 mov	 ebp, esp
  00003	6a ff		 push	 -1
  00005	68 00 00 00 00	 push	 __ehhandler$?InitializeData@CDlgAnalysisToolSet@@IAEXXZ
  0000a	64 a1 00 00 00
	00		 mov	 eax, DWORD PTR fs:0
  00010	50		 push	 eax
  00011	83 ec 4c	 sub	 esp, 76			; 0000004cH
  00014	a1 00 00 00 00	 mov	 eax, DWORD PTR ___security_cookie
  00019	33 c5		 xor	 eax, ebp
  0001b	89 45 f0	 mov	 DWORD PTR __$ArrayPad$[ebp], eax
  0001e	53		 push	 ebx
  0001f	56		 push	 esi
  00020	57		 push	 edi
  00021	50		 push	 eax
  00022	8d 45 f4	 lea	 eax, DWORD PTR __$EHRec$[ebp]
  00025	64 a3 00 00 00
	00		 mov	 DWORD PTR fs:0, eax
  0002b	8b d9		 mov	 ebx, ecx

; 339  : 	m_stAnalysisTool.crLineColor = m_pPenEnvironment->GetColor();

  0002d	8b 8b 1c 0d 00
	00		 mov	 ecx, DWORD PTR [ebx+3356]
  00033	e8 00 00 00 00	 call	 ?GetColor@CPenEnvironment@@QBEKXZ ; CPenEnvironment::GetColor

; 340  : 	m_stAnalysisTool.nLineStyle = m_pPenEnvironment->GetStyle();

  00038	8b 8b 1c 0d 00
	00		 mov	 ecx, DWORD PTR [ebx+3356]
  0003e	89 83 d4 0c 00
	00		 mov	 DWORD PTR [ebx+3284], eax
  00044	e8 00 00 00 00	 call	 ?GetStyle@CPenEnvironment@@QBE?AW4PenStyle@CToolEnumData@@XZ ; CPenEnvironment::GetStyle

; 341  : 	m_stAnalysisTool.nLineWeight = m_pPenEnvironment->GetWidth();

  00049	8b 8b 1c 0d 00
	00		 mov	 ecx, DWORD PTR [ebx+3356]
  0004f	89 83 cc 0c 00
	00		 mov	 DWORD PTR [ebx+3276], eax
  00055	e8 00 00 00 00	 call	 ?GetWidth@CPenEnvironment@@QBEHXZ ; CPenEnvironment::GetWidth

; 342  : 	m_stAnalysisTool.dEndXPos = G_NOTAVAILABLE;

  0005a	0f 28 05 00 00
	00 00		 movaps	 xmm0, XMMWORD PTR __xmm@00100000000000000010000000000000

; 343  : 	m_stAnalysisTool.dEndYValue = G_NOTAVAILABLE;
; 344  : 	m_stAnalysisTool.dStartXPos = G_NOTAVAILABLE;
; 345  : 	m_stAnalysisTool.dStartYValue = G_NOTAVAILABLE;
; 346  : 	m_stAnalysisTool.dThirdXPos = G_NOTAVAILABLE;
; 347  : 	m_stAnalysisTool.dThirdYValue = G_NOTAVAILABLE;
; 348  : 	m_stAnalysisTool.nEquiDiv = -1;
; 349  : 	m_stAnalysisTool.nPriceRangeDiv = -1;	// (2008/8/15 - Seung-Won, Bae) Add option for using price range.
; 350  : 	m_stAnalysisTool.nHLPercent = -1;
; 351  : 	m_stAnalysisTool.nFillRegion = -1;
; 352  : 	m_stAnalysisTool.nLeftExt = -1;
; 353  : 	m_stAnalysisTool.nRightExt = -1;
; 354  : 	m_stAnalysisTool.nTopText = -1;
; 355  : 	m_stAnalysisTool.nBottomText = -1;
; 356  : 	m_stAnalysisTool.nLeftText = -1;
; 357  : 	m_stAnalysisTool.nRightText = -1;
; 358  : 	m_stAnalysisTool.nRateText = -1;
; 359  : 	
; 360  : 	SetColor(m_basePenEnvironment.GetColor());

  00061	8d 8b 20 0d 00
	00		 lea	 ecx, DWORD PTR [ebx+3360]
  00067	89 83 d0 0c 00
	00		 mov	 DWORD PTR [ebx+3280], eax
  0006d	f2 0f 11 83 78
	0c 00 00	 movsd	 QWORD PTR [ebx+3192], xmm0
  00075	f2 0f 11 83 90
	0c 00 00	 movsd	 QWORD PTR [ebx+3216], xmm0
  0007d	f2 0f 11 83 70
	0c 00 00	 movsd	 QWORD PTR [ebx+3184], xmm0
  00085	0f 11 83 80 0c
	00 00		 movups	 XMMWORD PTR [ebx+3200], xmm0
  0008c	c7 83 bc 0c 00
	00 ff ff ff ff	 mov	 DWORD PTR [ebx+3260], -1
  00096	f2 0f 11 83 98
	0c 00 00	 movsd	 QWORD PTR [ebx+3224], xmm0
  0009e	c7 83 c0 0c 00
	00 ff ff ff ff	 mov	 DWORD PTR [ebx+3264], -1
  000a8	c7 83 c4 0c 00
	00 ff ff ff ff	 mov	 DWORD PTR [ebx+3268], -1
  000b2	c7 83 c8 0c 00
	00 ff ff ff ff	 mov	 DWORD PTR [ebx+3272], -1
  000bc	c7 83 b4 0c 00
	00 ff ff ff ff	 mov	 DWORD PTR [ebx+3252], -1
  000c6	c7 83 b8 0c 00
	00 ff ff ff ff	 mov	 DWORD PTR [ebx+3256], -1
  000d0	c7 83 ac 0c 00
	00 ff ff ff ff	 mov	 DWORD PTR [ebx+3244], -1
  000da	c7 83 b0 0c 00
	00 ff ff ff ff	 mov	 DWORD PTR [ebx+3248], -1
  000e4	c7 83 a0 0c 00
	00 ff ff ff ff	 mov	 DWORD PTR [ebx+3232], -1
  000ee	c7 83 a4 0c 00
	00 ff ff ff ff	 mov	 DWORD PTR [ebx+3236], -1
  000f8	c7 83 a8 0c 00
	00 ff ff ff ff	 mov	 DWORD PTR [ebx+3240], -1
  00102	e8 00 00 00 00	 call	 ?GetColor@CPenEnvironment@@QBEKXZ ; CPenEnvironment::GetColor
  00107	89 45 c4	 mov	 DWORD PTR $T7[ebp], eax

; 1014 : 	m_ctlColor.SetColor(color);

  0010a	8d 8b 48 02 00
	00		 lea	 ecx, DWORD PTR [ebx+584]
  00110	8d 45 c4	 lea	 eax, DWORD PTR $T7[ebp]
  00113	50		 push	 eax
  00114	e8 00 00 00 00	 call	 ?SetColor@CColorButton@@QAEXABK@Z ; CColorButton::SetColor
; File C:\Program Files (x86)\Microsoft Visual Studio\2019\Community\VC\Tools\MSVC\14.29.30133\atlmfc\include\afxwin2.inl

; 114  : 	{ ASSERT(::IsWindow(m_hWnd)); ::InvalidateRect(m_hWnd, NULL, bErase); }

  00119	6a 01		 push	 1
  0011b	6a 00		 push	 0
  0011d	ff b3 68 02 00
	00		 push	 DWORD PTR [ebx+616]
  00123	ff 15 00 00 00
	00		 call	 DWORD PTR __imp__InvalidateRect@12
; File D:\git\src\IBK\IBK_DRFN\ProjSrc\SrcChartEx\ChartAddIn\ChartAnalysisToolAddIn\AnalysisTool\DlgAnalysisToolSet.cpp

; 967  : 	ML_SET_DEFAULT_RES();

  00129	e8 00 00 00 00	 call	 ?AfxGetStaticModuleState@@YGPAVAFX_MODULE_STATE@@XZ ; AfxGetStaticModuleState
  0012e	8b 78 08	 mov	 edi, DWORD PTR [eax+8]
; File C:\Program Files (x86)\Microsoft Visual Studio\2019\Community\VC\Tools\MSVC\14.29.30133\atlmfc\include\afxwin1.inl

; 25   : 		return afxCurrentResourceHandle; }

  00131	e8 00 00 00 00	 call	 ?AfxGetModuleState@@YGPAVAFX_MODULE_STATE@@XZ ; AfxGetModuleState
; File D:\git\src\IBK\IBK_DRFN\ProjSrc\SrcChartEx\ChartAddIn\ChartAnalysisToolAddIn\Include_Chart\Dll_Load\IMetaTable.h

; 1034 : 		m_hInstance = AfxGetResourceHandle();

  00136	8b 70 0c	 mov	 esi, DWORD PTR [eax+12]
  00139	89 75 c8	 mov	 DWORD PTR ___mlrs__$9[ebp], esi
; File C:\Program Files (x86)\Microsoft Visual Studio\2019\Community\VC\Tools\MSVC\14.29.30133\atlmfc\include\afxwin1.inl

; 27   : 	{ ASSERT(hInstResource != NULL); afxCurrentResourceHandle = hInstResource; }

  0013c	e8 00 00 00 00	 call	 ?AfxGetModuleState@@YGPAVAFX_MODULE_STATE@@XZ ; AfxGetModuleState
  00141	89 78 0c	 mov	 DWORD PTR [eax+12], edi
; File D:\git\src\IBK\IBK_DRFN\ProjSrc\SrcChartEx\ChartAddIn\ChartAnalysisToolAddIn\AnalysisTool\DlgAnalysisToolSet.cpp

; 969  : 	m_ctlWidth.LoadBitmap(IDB_LINEWIDTH, 5);

  00144	6a 05		 push	 5
  00146	68 3c 23 00 00	 push	 9020			; 0000233cH
  0014b	8d 8b b8 01 00
	00		 lea	 ecx, DWORD PTR [ebx+440]
  00151	c7 45 fc 00 00
	00 00		 mov	 DWORD PTR __$EHRec$[ebp+8], 0
  00158	e8 00 00 00 00	 call	 ?LoadBitmapA@CBitmapComboBox@@QAEXHI@Z ; CBitmapComboBox::LoadBitmapA

; 970  : 	if(m_basePenEnvironment.GetWidth() <= 0)

  0015d	8d 8b 20 0d 00
	00		 lea	 ecx, DWORD PTR [ebx+3360]
  00163	e8 00 00 00 00	 call	 ?GetWidth@CPenEnvironment@@QBEHXZ ; CPenEnvironment::GetWidth
  00168	85 c0		 test	 eax, eax
  0016a	7f 04		 jg	 SHORT $LN71@Initialize

; 971  : 		m_nWidth = 0;

  0016c	33 c0		 xor	 eax, eax
  0016e	eb 23		 jmp	 SHORT $LN74@Initialize
$LN71@Initialize:

; 972  : 	else if(m_basePenEnvironment.GetWidth() >= 6)

  00170	8d 8b 20 0d 00
	00		 lea	 ecx, DWORD PTR [ebx+3360]
  00176	e8 00 00 00 00	 call	 ?GetWidth@CPenEnvironment@@QBEHXZ ; CPenEnvironment::GetWidth
  0017b	83 f8 06	 cmp	 eax, 6
  0017e	7c 07		 jl	 SHORT $LN73@Initialize

; 973  : 		m_nWidth = 4;

  00180	b8 04 00 00 00	 mov	 eax, 4
  00185	eb 0c		 jmp	 SHORT $LN74@Initialize
$LN73@Initialize:

; 974  : 	else
; 975  : 		m_nWidth = m_basePenEnvironment.GetWidth() -1;

  00187	8d 8b 20 0d 00
	00		 lea	 ecx, DWORD PTR [ebx+3360]
  0018d	e8 00 00 00 00	 call	 ?GetWidth@CPenEnvironment@@QBEHXZ ; CPenEnvironment::GetWidth
  00192	48		 dec	 eax
$LN74@Initialize:
; File D:\git\src\IBK\IBK_DRFN\ProjSrc\SrcChartEx\ChartAddIn\ChartAnalysisToolAddIn\Include_Chart\Dll_Load\IMetaTable.h

; 1038 : 	{

  00193	c7 45 fc 01 00
	00 00		 mov	 DWORD PTR __$EHRec$[ebp+8], 1
  0019a	89 83 50 0c 00
	00		 mov	 DWORD PTR [ebx+3152], eax
; File C:\Program Files (x86)\Microsoft Visual Studio\2019\Community\VC\Tools\MSVC\14.29.30133\atlmfc\include\afxwin1.inl

; 27   : 	{ ASSERT(hInstResource != NULL); afxCurrentResourceHandle = hInstResource; }

  001a0	e8 00 00 00 00	 call	 ?AfxGetModuleState@@YGPAVAFX_MODULE_STATE@@XZ ; AfxGetModuleState
; File D:\git\src\IBK\IBK_DRFN\ProjSrc\SrcChartEx\ChartAddIn\ChartAnalysisToolAddIn\Include_Chart\Dll_Load\IMetaTable.h

; 1040 : 	}

  001a5	c7 45 fc ff ff
	ff ff		 mov	 DWORD PTR __$EHRec$[ebp+8], -1
; File C:\Program Files (x86)\Microsoft Visual Studio\2019\Community\VC\Tools\MSVC\14.29.30133\atlmfc\include\afxwin1.inl

; 27   : 	{ ASSERT(hInstResource != NULL); afxCurrentResourceHandle = hInstResource; }

  001ac	89 70 0c	 mov	 DWORD PTR [eax+12], esi
; File D:\git\src\IBK\IBK_DRFN\ProjSrc\SrcChartEx\ChartAddIn\ChartAnalysisToolAddIn\AnalysisTool\DlgAnalysisToolSet.cpp

; 980  : 	ML_SET_DEFAULT_RES();

  001af	e8 00 00 00 00	 call	 ?AfxGetStaticModuleState@@YGPAVAFX_MODULE_STATE@@XZ ; AfxGetStaticModuleState
  001b4	8b 78 08	 mov	 edi, DWORD PTR [eax+8]
; File C:\Program Files (x86)\Microsoft Visual Studio\2019\Community\VC\Tools\MSVC\14.29.30133\atlmfc\include\afxwin1.inl

; 25   : 		return afxCurrentResourceHandle; }

  001b7	e8 00 00 00 00	 call	 ?AfxGetModuleState@@YGPAVAFX_MODULE_STATE@@XZ ; AfxGetModuleState
; File D:\git\src\IBK\IBK_DRFN\ProjSrc\SrcChartEx\ChartAddIn\ChartAnalysisToolAddIn\Include_Chart\Dll_Load\IMetaTable.h

; 1034 : 		m_hInstance = AfxGetResourceHandle();

  001bc	8b 70 0c	 mov	 esi, DWORD PTR [eax+12]
  001bf	89 75 c8	 mov	 DWORD PTR ___mlrs__$8[ebp], esi
; File C:\Program Files (x86)\Microsoft Visual Studio\2019\Community\VC\Tools\MSVC\14.29.30133\atlmfc\include\afxwin1.inl

; 27   : 	{ ASSERT(hInstResource != NULL); afxCurrentResourceHandle = hInstResource; }

  001c2	e8 00 00 00 00	 call	 ?AfxGetModuleState@@YGPAVAFX_MODULE_STATE@@XZ ; AfxGetModuleState
  001c7	89 78 0c	 mov	 DWORD PTR [eax+12], edi
; File D:\git\src\IBK\IBK_DRFN\ProjSrc\SrcChartEx\ChartAddIn\ChartAnalysisToolAddIn\AnalysisTool\DlgAnalysisToolSet.cpp

; 982  : 	m_ctlStyle.LoadBitmap(IDB_LINESTYLE, 5);

  001ca	6a 05		 push	 5
  001cc	68 41 1f 00 00	 push	 8001			; 00001f41H
  001d1	8d 8b 28 01 00
	00		 lea	 ecx, DWORD PTR [ebx+296]
  001d7	c7 45 fc 02 00
	00 00		 mov	 DWORD PTR __$EHRec$[ebp+8], 2
  001de	e8 00 00 00 00	 call	 ?LoadBitmapA@CBitmapComboBox@@QAEXHI@Z ; CBitmapComboBox::LoadBitmapA

; 983  : 	m_nStyle = (int) m_basePenEnvironment.GetStyle();

  001e3	8d 8b 20 0d 00
	00		 lea	 ecx, DWORD PTR [ebx+3360]
  001e9	e8 00 00 00 00	 call	 ?GetStyle@CPenEnvironment@@QBE?AW4PenStyle@CToolEnumData@@XZ ; CPenEnvironment::GetStyle
  001ee	89 83 54 0c 00
	00		 mov	 DWORD PTR [ebx+3156], eax
; File D:\git\src\IBK\IBK_DRFN\ProjSrc\SrcChartEx\ChartAddIn\ChartAnalysisToolAddIn\Include_Chart\Dll_Load\IMetaTable.h

; 1038 : 	{

  001f4	c7 45 fc 03 00
	00 00		 mov	 DWORD PTR __$EHRec$[ebp+8], 3
; File C:\Program Files (x86)\Microsoft Visual Studio\2019\Community\VC\Tools\MSVC\14.29.30133\atlmfc\include\afxwin1.inl

; 27   : 	{ ASSERT(hInstResource != NULL); afxCurrentResourceHandle = hInstResource; }

  001fb	e8 00 00 00 00	 call	 ?AfxGetModuleState@@YGPAVAFX_MODULE_STATE@@XZ ; AfxGetModuleState
; File D:\git\src\IBK\IBK_DRFN\ProjSrc\SrcChartEx\ChartAddIn\ChartAnalysisToolAddIn\AnalysisTool\DlgAnalysisToolSet.cpp

; 364  : 	UpdateData(FALSE);

  00200	6a 00		 push	 0
  00202	8b cb		 mov	 ecx, ebx
; File D:\git\src\IBK\IBK_DRFN\ProjSrc\SrcChartEx\ChartAddIn\ChartAnalysisToolAddIn\Include_Chart\Dll_Load\IMetaTable.h

; 1040 : 	}

  00204	c7 45 fc ff ff
	ff ff		 mov	 DWORD PTR __$EHRec$[ebp+8], -1
; File C:\Program Files (x86)\Microsoft Visual Studio\2019\Community\VC\Tools\MSVC\14.29.30133\atlmfc\include\afxwin1.inl

; 27   : 	{ ASSERT(hInstResource != NULL); afxCurrentResourceHandle = hInstResource; }

  0020b	89 70 0c	 mov	 DWORD PTR [eax+12], esi
; File D:\git\src\IBK\IBK_DRFN\ProjSrc\SrcChartEx\ChartAddIn\ChartAnalysisToolAddIn\AnalysisTool\DlgAnalysisToolSet.cpp

; 364  : 	UpdateData(FALSE);

  0020e	e8 00 00 00 00	 call	 ?UpdateData@CWnd@@QAEHH@Z ; CWnd::UpdateData

; 365  : 
; 366  : 	GetDlgItem(IDC_STATIC_XDATE3)->ShowWindow(SW_HIDE);

  00213	6a 00		 push	 0
  00215	68 ac 0f 00 00	 push	 4012			; 00000facH
  0021a	8b cb		 mov	 ecx, ebx
  0021c	e8 00 00 00 00	 call	 ?GetDlgItem@CWnd@@QBEPAV1@H@Z ; CWnd::GetDlgItem
  00221	8b c8		 mov	 ecx, eax
  00223	e8 00 00 00 00	 call	 ?ShowWindow@CWnd@@QAEHH@Z ; CWnd::ShowWindow

; 367  : 	GetDlgItem(IDC_STATIC_YVALUE3)->ShowWindow(SW_HIDE);

  00228	6a 00		 push	 0
  0022a	68 ad 0f 00 00	 push	 4013			; 00000fadH
  0022f	8b cb		 mov	 ecx, ebx
  00231	e8 00 00 00 00	 call	 ?GetDlgItem@CWnd@@QBEPAV1@H@Z ; CWnd::GetDlgItem
  00236	8b c8		 mov	 ecx, eax
  00238	e8 00 00 00 00	 call	 ?ShowWindow@CWnd@@QAEHH@Z ; CWnd::ShowWindow

; 368  : 	m_ctrlXDateTime3.ShowWindow(SW_HIDE);

  0023d	8d 8b d0 0b 00
	00		 lea	 ecx, DWORD PTR [ebx+3024]
  00243	6a 00		 push	 0
  00245	e8 00 00 00 00	 call	 ?ShowWindow@CWnd@@QAEHH@Z ; CWnd::ShowWindow

; 369  : 	m_ctrlEditValue3.ShowWindow(SW_HIDE);

  0024a	8d 8b 50 0a 00
	00		 lea	 ecx, DWORD PTR [ebx+2640]
  00250	6a 00		 push	 0
  00252	e8 00 00 00 00	 call	 ?ShowWindow@CWnd@@QAEHH@Z ; CWnd::ShowWindow

; 370  : 
; 371  : 	m_ctrlEditXValue1.ShowWindow(SW_HIDE);

  00257	6a 00		 push	 0
  00259	8d 8b d0 07 00
	00		 lea	 ecx, DWORD PTR [ebx+2000]
  0025f	e8 00 00 00 00	 call	 ?ShowWindow@CWnd@@QAEHH@Z ; CWnd::ShowWindow

; 372  : 	m_ctrlEditXValue2.ShowWindow(SW_HIDE);

  00264	6a 00		 push	 0
  00266	8d 8b 50 08 00
	00		 lea	 ecx, DWORD PTR [ebx+2128]
  0026c	e8 00 00 00 00	 call	 ?ShowWindow@CWnd@@QAEHH@Z ; CWnd::ShowWindow

; 373  : 	m_ctrlEditXValue3.ShowWindow(SW_HIDE);

  00271	6a 00		 push	 0
  00273	8d 8b d0 08 00
	00		 lea	 ecx, DWORD PTR [ebx+2256]
  00279	e8 00 00 00 00	 call	 ?ShowWindow@CWnd@@QAEHH@Z ; CWnd::ShowWindow

; 374  : 
; 375  : 	m_ctrlEquiDiv.ShowWindow(SW_HIDE);

  0027e	8d 8b 50 06 00
	00		 lea	 ecx, DWORD PTR [ebx+1616]
  00284	6a 00		 push	 0
  00286	e8 00 00 00 00	 call	 ?ShowWindow@CWnd@@QAEHH@Z ; CWnd::ShowWindow

; 376  : 	m_ctrlCheckFill.ShowWindow(SW_HIDE);

  0028b	6a 00		 push	 0
  0028d	8d 8b d0 06 00
	00		 lea	 ecx, DWORD PTR [ebx+1744]
  00293	e8 00 00 00 00	 call	 ?ShowWindow@CWnd@@QAEHH@Z ; CWnd::ShowWindow

; 377  : 
; 378  : 	m_ctrlLeftExt.ShowWindow(SW_HIDE);

  00298	6a 00		 push	 0
  0029a	8d 8b 50 05 00
	00		 lea	 ecx, DWORD PTR [ebx+1360]
  002a0	e8 00 00 00 00	 call	 ?ShowWindow@CWnd@@QAEHH@Z ; CWnd::ShowWindow

; 379  : 	m_ctrlRightExt.ShowWindow(SW_HIDE);

  002a5	6a 00		 push	 0
  002a7	8d 8b d0 05 00
	00		 lea	 ecx, DWORD PTR [ebx+1488]
  002ad	e8 00 00 00 00	 call	 ?ShowWindow@CWnd@@QAEHH@Z ; CWnd::ShowWindow

; 380  : 	m_ctrlTopText.ShowWindow(SW_HIDE);

  002b2	8d 8b 50 04 00
	00		 lea	 ecx, DWORD PTR [ebx+1104]
  002b8	6a 00		 push	 0
  002ba	e8 00 00 00 00	 call	 ?ShowWindow@CWnd@@QAEHH@Z ; CWnd::ShowWindow

; 381  : 	m_ctrlBottomText.ShowWindow(SW_HIDE);

  002bf	8d 8b d0 04 00
	00		 lea	 ecx, DWORD PTR [ebx+1232]
  002c5	6a 00		 push	 0
  002c7	e8 00 00 00 00	 call	 ?ShowWindow@CWnd@@QAEHH@Z ; CWnd::ShowWindow

; 382  : 
; 383  : 	///////////////////////////////////////////
; 384  : 	m_ctrlCheckHL.ShowWindow(SW_HIDE);			// 

  002cc	6a 00		 push	 0
  002ce	8d 8b 50 07 00
	00		 lea	 ecx, DWORD PTR [ebx+1872]
  002d4	e8 00 00 00 00	 call	 ?ShowWindow@CWnd@@QAEHH@Z ; CWnd::ShowWindow

; 385  : 	///////////////////////////////////////////
; 386  : 
; 387  : 	m_ctrlRateText.ShowWindow(SW_HIDE);

  002d9	8d 8b d0 03 00
	00		 lea	 ecx, DWORD PTR [ebx+976]
  002df	6a 00		 push	 0
  002e1	e8 00 00 00 00	 call	 ?ShowWindow@CWnd@@QAEHH@Z ; CWnd::ShowWindow

; 388  : 
; 389  : 	// (2008/8/15 - Seung-Won, Bae) Add option for using price range.
; 390  : 	m_chkPriceRangeDiv.ShowWindow( SW_HIDE);

  002e6	8d 8b a8 00 00
	00		 lea	 ecx, DWORD PTR [ebx+168]
  002ec	6a 00		 push	 0
  002ee	e8 00 00 00 00	 call	 ?ShowWindow@CWnd@@QAEHH@Z ; CWnd::ShowWindow

; 391  : 
; 392  : 	if((CToolEnumData::ElementType)m_nElementType == CToolEnumData::Pencil_Line)

  002f3	8b 83 18 0d 00
	00		 mov	 eax, DWORD PTR [ebx+3352]
  002f9	83 f8 23	 cmp	 eax, 35			; 00000023H
  002fc	0f 85 88 04 00
	00		 jne	 $LN7@Initialize

; 393  : 	{
; 394  : 		m_ctrlLeftText.ShowWindow(SW_HIDE);

  00302	6a 00		 push	 0
  00304	8d 8b d0 02 00
	00		 lea	 ecx, DWORD PTR [ebx+720]
  0030a	e8 00 00 00 00	 call	 ?ShowWindow@CWnd@@QAEHH@Z ; CWnd::ShowWindow

; 395  : 		m_ctrlRightText.ShowWindow(SW_HIDE);

  0030f	6a 00		 push	 0
  00311	8d 8b 50 03 00
	00		 lea	 ecx, DWORD PTR [ebx+848]
  00317	e8 00 00 00 00	 call	 ?ShowWindow@CWnd@@QAEHH@Z ; CWnd::ShowWindow

; 396  : 
; 397  : 		//  
; 398  : 		m_ctrlXDateTime1.ShowWindow(SW_HIDE);

  0031c	6a 00		 push	 0
  0031e	8d 8b d0 0a 00
	00		 lea	 ecx, DWORD PTR [ebx+2768]
  00324	e8 00 00 00 00	 call	 ?ShowWindow@CWnd@@QAEHH@Z ; CWnd::ShowWindow

; 399  : 		m_ctrlEditValue1.ShowWindow(SW_HIDE);

  00329	6a 00		 push	 0
  0032b	8d 8b 50 09 00
	00		 lea	 ecx, DWORD PTR [ebx+2384]
  00331	e8 00 00 00 00	 call	 ?ShowWindow@CWnd@@QAEHH@Z ; CWnd::ShowWindow

; 400  : 		GetDlgItem(IDC_STATIC_XDATE1)->ShowWindow(SW_HIDE);

  00336	6a 00		 push	 0
  00338	68 aa 0f 00 00	 push	 4010			; 00000faaH
  0033d	8b cb		 mov	 ecx, ebx
  0033f	e8 00 00 00 00	 call	 ?GetDlgItem@CWnd@@QBEPAV1@H@Z ; CWnd::GetDlgItem
  00344	8b c8		 mov	 ecx, eax
  00346	e8 00 00 00 00	 call	 ?ShowWindow@CWnd@@QAEHH@Z ; CWnd::ShowWindow

; 401  : 		GetDlgItem(IDC_STATIC_YVALUE1)->ShowWindow(SW_HIDE);

  0034b	6a 00		 push	 0
  0034d	68 af 0f 00 00	 push	 4015			; 00000fafH
  00352	8b cb		 mov	 ecx, ebx
  00354	e8 00 00 00 00	 call	 ?GetDlgItem@CWnd@@QBEPAV1@H@Z ; CWnd::GetDlgItem
  00359	8b c8		 mov	 ecx, eax
  0035b	e8 00 00 00 00	 call	 ?ShowWindow@CWnd@@QAEHH@Z ; CWnd::ShowWindow

; 402  : 
; 403  : 		m_ctrlXDateTime2.ShowWindow(SW_HIDE);

  00360	6a 00		 push	 0
  00362	8d 8b 50 0b 00
	00		 lea	 ecx, DWORD PTR [ebx+2896]
  00368	e8 00 00 00 00	 call	 ?ShowWindow@CWnd@@QAEHH@Z ; CWnd::ShowWindow

; 404  : 		m_ctrlEditValue2.ShowWindow(SW_HIDE);

  0036d	6a 00		 push	 0
  0036f	8d 8b d0 09 00
	00		 lea	 ecx, DWORD PTR [ebx+2512]
  00375	e8 00 00 00 00	 call	 ?ShowWindow@CWnd@@QAEHH@Z ; CWnd::ShowWindow

; 405  : 		GetDlgItem(IDC_STATIC_XDATE2)->ShowWindow(SW_HIDE);

  0037a	6a 00		 push	 0
  0037c	68 ab 0f 00 00	 push	 4011			; 00000fabH
  00381	8b cb		 mov	 ecx, ebx
  00383	e8 00 00 00 00	 call	 ?GetDlgItem@CWnd@@QBEPAV1@H@Z ; CWnd::GetDlgItem
  00388	8b c8		 mov	 ecx, eax
  0038a	e8 00 00 00 00	 call	 ?ShowWindow@CWnd@@QAEHH@Z ; CWnd::ShowWindow

; 406  : 		GetDlgItem(IDC_STATIC_YVALUE2)->ShowWindow(SW_HIDE);

  0038f	6a 00		 push	 0
  00391	68 ae 0f 00 00	 push	 4014			; 00000faeH
  00396	8b cb		 mov	 ecx, ebx
  00398	e8 00 00 00 00	 call	 ?GetDlgItem@CWnd@@QBEPAV1@H@Z ; CWnd::GetDlgItem
  0039d	8b c8		 mov	 ecx, eax
  0039f	e8 00 00 00 00	 call	 ?ShowWindow@CWnd@@QAEHH@Z ; CWnd::ShowWindow

; 407  : 
; 408  : 		GetDlgItem(IDC_TEXT_STATIC)->ShowWindow(SW_HIDE);

  003a4	6a 00		 push	 0
  003a6	68 18 27 00 00	 push	 10008			; 00002718H
  003ab	8b cb		 mov	 ecx, ebx
  003ad	e8 00 00 00 00	 call	 ?GetDlgItem@CWnd@@QBEPAV1@H@Z ; CWnd::GetDlgItem
  003b2	8b c8		 mov	 ecx, eax
  003b4	e8 00 00 00 00	 call	 ?ShowWindow@CWnd@@QAEHH@Z ; CWnd::ShowWindow

; 409  : 		GetDlgItem(IDC_DATE_N_VALUE_STATIC)->ShowWindow(SW_HIDE);

  003b9	6a 00		 push	 0
  003bb	68 19 27 00 00	 push	 10009			; 00002719H
  003c0	8b cb		 mov	 ecx, ebx
  003c2	e8 00 00 00 00	 call	 ?GetDlgItem@CWnd@@QBEPAV1@H@Z ; CWnd::GetDlgItem
  003c7	8b c8		 mov	 ecx, eax
  003c9	e8 00 00 00 00	 call	 ?ShowWindow@CWnd@@QAEHH@Z ; CWnd::ShowWindow
; File C:\Program Files (x86)\Microsoft Visual Studio\2019\Community\VC\Tools\MSVC\14.29.30133\atlmfc\include\afxwin2.inl

; 84   : 	{ ASSERT(::IsWindow(m_hWnd)); ::GetWindowRect(m_hWnd, lpRect); }

  003ce	8b 35 00 00 00
	00		 mov	 esi, DWORD PTR __imp__GetWindowRect@8
  003d4	8d 45 e0	 lea	 eax, DWORD PTR _rect$23[ebp]
  003d7	50		 push	 eax
  003d8	ff 73 20	 push	 DWORD PTR [ebx+32]
  003db	0f 57 c0	 xorps	 xmm0, xmm0
; File C:\Program Files (x86)\Microsoft Visual Studio\2019\Community\VC\Tools\MSVC\14.29.30133\atlmfc\include\atltypes.h

; 528  : 	left = 0;

  003de	0f 11 45 e0	 movups	 XMMWORD PTR _rect$23[ebp], xmm0
; File C:\Program Files (x86)\Microsoft Visual Studio\2019\Community\VC\Tools\MSVC\14.29.30133\atlmfc\include\afxwin2.inl

; 84   : 	{ ASSERT(::IsWindow(m_hWnd)); ::GetWindowRect(m_hWnd, lpRect); }

  003e2	ff d6		 call	 esi
; File D:\git\src\IBK\IBK_DRFN\ProjSrc\SrcChartEx\ChartAddIn\ChartAnalysisToolAddIn\AnalysisTool\DlgAnalysisToolSet.cpp

; 417  : 		rect.bottom -= iExpandSize;		

  003e4	8b 45 ec	 mov	 eax, DWORD PTR _rect$23[ebp+12]
; File C:\Program Files (x86)\Microsoft Visual Studio\2019\Community\VC\Tools\MSVC\14.29.30133\atlmfc\include\afxwin2.inl

; 73   : 	{ MoveWindow(lpRect->left, lpRect->top, lpRect->right - lpRect->left,

  003e7	8b 55 e4	 mov	 edx, DWORD PTR _rect$23[ebp+4]
; File D:\git\src\IBK\IBK_DRFN\ProjSrc\SrcChartEx\ChartAddIn\ChartAnalysisToolAddIn\AnalysisTool\DlgAnalysisToolSet.cpp

; 417  : 		rect.bottom -= iExpandSize;		

  003ea	2d 8c 00 00 00	 sub	 eax, 140		; 0000008cH
; File C:\Program Files (x86)\Microsoft Visual Studio\2019\Community\VC\Tools\MSVC\14.29.30133\atlmfc\include\afxwin2.inl

; 73   : 	{ MoveWindow(lpRect->left, lpRect->top, lpRect->right - lpRect->left,

  003ef	8b 4d e0	 mov	 ecx, DWORD PTR _rect$23[ebp]
; File D:\git\src\IBK\IBK_DRFN\ProjSrc\SrcChartEx\ChartAddIn\ChartAnalysisToolAddIn\AnalysisTool\DlgAnalysisToolSet.cpp

; 417  : 		rect.bottom -= iExpandSize;		

  003f2	89 45 ec	 mov	 DWORD PTR _rect$23[ebp+12], eax
; File C:\Program Files (x86)\Microsoft Visual Studio\2019\Community\VC\Tools\MSVC\14.29.30133\atlmfc\include\afxwin2.inl

; 73   : 	{ MoveWindow(lpRect->left, lpRect->top, lpRect->right - lpRect->left,

  003f5	2b c2		 sub	 eax, edx
  003f7	6a 01		 push	 1
  003f9	50		 push	 eax
  003fa	8b 45 e8	 mov	 eax, DWORD PTR _rect$23[ebp+8]
  003fd	2b c1		 sub	 eax, ecx
  003ff	50		 push	 eax
  00400	52		 push	 edx
  00401	51		 push	 ecx
  00402	8b cb		 mov	 ecx, ebx
  00404	e8 00 00 00 00	 call	 ?MoveWindow@CWnd@@QAEXHHHHH@Z ; CWnd::MoveWindow
  00409	0f 57 c0	 xorps	 xmm0, xmm0
; File D:\git\src\IBK\IBK_DRFN\ProjSrc\SrcChartEx\ChartAddIn\ChartAnalysisToolAddIn\AnalysisTool\DlgAnalysisToolSet.cpp

; 421  : 		CStatic *pStatic = (CStatic *)GetDlgItem(IDC_DATE_N_VALUE_STATIC);

  0040c	8b cb		 mov	 ecx, ebx
  0040e	68 19 27 00 00	 push	 10009			; 00002719H
; File C:\Program Files (x86)\Microsoft Visual Studio\2019\Community\VC\Tools\MSVC\14.29.30133\atlmfc\include\atltypes.h

; 528  : 	left = 0;

  00413	0f 11 45 d0	 movups	 XMMWORD PTR _rectPos$22[ebp], xmm0
; File D:\git\src\IBK\IBK_DRFN\ProjSrc\SrcChartEx\ChartAddIn\ChartAnalysisToolAddIn\AnalysisTool\DlgAnalysisToolSet.cpp

; 421  : 		CStatic *pStatic = (CStatic *)GetDlgItem(IDC_DATE_N_VALUE_STATIC);

  00417	e8 00 00 00 00	 call	 ?GetDlgItem@CWnd@@QBEPAV1@H@Z ; CWnd::GetDlgItem
; File C:\Program Files (x86)\Microsoft Visual Studio\2019\Community\VC\Tools\MSVC\14.29.30133\atlmfc\include\afxwin2.inl

; 84   : 	{ ASSERT(::IsWindow(m_hWnd)); ::GetWindowRect(m_hWnd, lpRect); }

  0041c	8d 4d d0	 lea	 ecx, DWORD PTR _rectPos$22[ebp]
  0041f	51		 push	 ecx
  00420	ff 70 20	 push	 DWORD PTR [eax+32]
  00423	ff d6		 call	 esi
; File D:\git\src\IBK\IBK_DRFN\ProjSrc\SrcChartEx\ChartAddIn\ChartAnalysisToolAddIn\AnalysisTool\DlgAnalysisToolSet.cpp

; 423  : 		ScreenToClient(&rectPos);	

  00425	8d 45 d0	 lea	 eax, DWORD PTR _rectPos$22[ebp]
  00428	8b cb		 mov	 ecx, ebx
  0042a	50		 push	 eax
  0042b	e8 00 00 00 00	 call	 ?ScreenToClient@CWnd@@QBEXPAUtagRECT@@@Z ; CWnd::ScreenToClient

; 424  : 
; 425  : 		int nTempX = rectPos.left;

  00430	8b 7d d0	 mov	 edi, DWORD PTR _rectPos$22[ebp]

; 427  : 		pStatic = (CStatic *)GetDlgItem(IDC_PEN_STATIC);

  00433	8b cb		 mov	 ecx, ebx
  00435	68 17 27 00 00	 push	 10007			; 00002717H
  0043a	89 7d cc	 mov	 DWORD PTR _nTempX$3$[ebp], edi
  0043d	e8 00 00 00 00	 call	 ?GetDlgItem@CWnd@@QBEPAV1@H@Z ; CWnd::GetDlgItem
; File C:\Program Files (x86)\Microsoft Visual Studio\2019\Community\VC\Tools\MSVC\14.29.30133\atlmfc\include\afxwin2.inl

; 86   : 	{ ASSERT(::IsWindow(m_hWnd)); ::GetClientRect(m_hWnd, lpRect); }

  00442	8b 3d 00 00 00
	00		 mov	 edi, DWORD PTR __imp__GetClientRect@8
; File D:\git\src\IBK\IBK_DRFN\ProjSrc\SrcChartEx\ChartAddIn\ChartAnalysisToolAddIn\AnalysisTool\DlgAnalysisToolSet.cpp

; 427  : 		pStatic = (CStatic *)GetDlgItem(IDC_PEN_STATIC);

  00448	8b f0		 mov	 esi, eax
; File C:\Program Files (x86)\Microsoft Visual Studio\2019\Community\VC\Tools\MSVC\14.29.30133\atlmfc\include\afxwin2.inl

; 86   : 	{ ASSERT(::IsWindow(m_hWnd)); ::GetClientRect(m_hWnd, lpRect); }

  0044a	8d 45 e0	 lea	 eax, DWORD PTR _rect$23[ebp]
  0044d	50		 push	 eax
  0044e	ff 76 20	 push	 DWORD PTR [esi+32]
  00451	ff d7		 call	 edi
; File C:\Program Files (x86)\Microsoft Visual Studio\2019\Community\VC\Tools\MSVC\14.29.30133\atlmfc\include\atltypes.h

; 581  : 	return bottom - top;

  00453	8b 4d ec	 mov	 ecx, DWORD PTR _rect$23[ebp+12]
  00456	2b 4d e4	 sub	 ecx, DWORD PTR _rect$23[ebp+4]

; 576  : 	return right - left;

  00459	8b 45 e8	 mov	 eax, DWORD PTR _rect$23[ebp+8]
  0045c	2b 45 e0	 sub	 eax, DWORD PTR _rect$23[ebp]
; File D:\git\src\IBK\IBK_DRFN\ProjSrc\SrcChartEx\ChartAddIn\ChartAnalysisToolAddIn\AnalysisTool\DlgAnalysisToolSet.cpp

; 429  : 		pStatic->MoveWindow(rectPos.left, rectPos.top, rect.Width(), rect.Height());

  0045f	6a 01		 push	 1
  00461	51		 push	 ecx
  00462	50		 push	 eax
  00463	ff 75 d4	 push	 DWORD PTR _rectPos$22[ebp+4]
  00466	8b ce		 mov	 ecx, esi
  00468	ff 75 d0	 push	 DWORD PTR _rectPos$22[ebp]
  0046b	e8 00 00 00 00	 call	 ?MoveWindow@CWnd@@QAEXHHHHH@Z ; CWnd::MoveWindow

; 430  : 
; 431  : 		GetDlgItem(IDC_STATIC_PEN_COLOR)->ShowWindow(SW_SHOW);

  00470	6a 05		 push	 5
  00472	68 b8 0f 00 00	 push	 4024			; 00000fb8H
  00477	8b cb		 mov	 ecx, ebx
  00479	e8 00 00 00 00	 call	 ?GetDlgItem@CWnd@@QBEPAV1@H@Z ; CWnd::GetDlgItem
  0047e	8b c8		 mov	 ecx, eax
  00480	e8 00 00 00 00	 call	 ?ShowWindow@CWnd@@QAEHH@Z ; CWnd::ShowWindow

; 432  : 		GetDlgItem(IDC_STATIC_PEN_STYLE)->ShowWindow(SW_SHOW);

  00485	6a 05		 push	 5
  00487	68 ba 0f 00 00	 push	 4026			; 00000fbaH
  0048c	8b cb		 mov	 ecx, ebx
  0048e	e8 00 00 00 00	 call	 ?GetDlgItem@CWnd@@QBEPAV1@H@Z ; CWnd::GetDlgItem
  00493	8b c8		 mov	 ecx, eax
  00495	e8 00 00 00 00	 call	 ?ShowWindow@CWnd@@QAEHH@Z ; CWnd::ShowWindow

; 433  : 		GetDlgItem(IDC_STATIC_PEN_WIDTH)->ShowWindow(SW_SHOW);

  0049a	6a 05		 push	 5
  0049c	68 b9 0f 00 00	 push	 4025			; 00000fb9H
  004a1	8b cb		 mov	 ecx, ebx
  004a3	e8 00 00 00 00	 call	 ?GetDlgItem@CWnd@@QBEPAV1@H@Z ; CWnd::GetDlgItem
  004a8	8b c8		 mov	 ecx, eax
  004aa	e8 00 00 00 00	 call	 ?ShowWindow@CWnd@@QAEHH@Z ; CWnd::ShowWindow
; File D:\git\src\IBK\IBK_DRFN\ProjSrc\SrcChartEx\ChartAddIn\ChartAnalysisToolAddIn\Include_Chart\Dll_Load\IMetaTable.h

; 937  : 	DECLARE_FUNCTION1(	GetCurrentLanguageID,			E_LANGUAGEID, ENGLISH, HWND);

  004af	a1 04 00 00 00	 mov	 eax, DWORD PTR ?g_iMetaTable@@3VIMetaTable@@A+4
; File D:\git\src\IBK\IBK_DRFN\ProjSrc\SrcChartEx\ChartAddIn\ChartAnalysisToolAddIn\AnalysisTool\DlgAnalysisToolSet.cpp

; 435  : 		IMetaTable::E_LANGUAGEID eLanguageID = g_iMetaTable.GetCurrentLanguageID( m_hOcxWnd); 

  004b4	8b b3 90 0d 00
	00		 mov	 esi, DWORD PTR [ebx+3472]
; File D:\git\src\IBK\IBK_DRFN\ProjSrc\SrcChartEx\ChartAddIn\ChartAnalysisToolAddIn\Include_Chart\Dll_Load\IMetaTable.h

; 937  : 	DECLARE_FUNCTION1(	GetCurrentLanguageID,			E_LANGUAGEID, ENGLISH, HWND);

  004ba	85 c0		 test	 eax, eax
  004bc	0f 84 32 01 00
	00		 je	 $LN9@Initialize
  004c2	b9 80 0d 00 00	 mov	 ecx, 3456		; 00000d80H
  004c7	66 3b 0d 8c 00
	00 00		 cmp	 cx, WORD PTR ?g_iMetaTable@@3VIMetaTable@@A+140
  004ce	74 29		 je	 SHORT $LN381@Initialize
  004d0	68 00 00 00 00	 push	 OFFSET ??_C@_0BF@EGELCGDD@GetCurrentLanguageID@
  004d5	50		 push	 eax
  004d6	c7 05 88 00 00
	00 00 00 00 00	 mov	 DWORD PTR ?g_iMetaTable@@3VIMetaTable@@A+136, 0
  004e0	ff 15 00 00 00
	00		 call	 DWORD PTR __imp__GetProcAddress@8
  004e6	b9 80 0d 00 00	 mov	 ecx, 3456		; 00000d80H
  004eb	a3 88 00 00 00	 mov	 DWORD PTR ?g_iMetaTable@@3VIMetaTable@@A+136, eax
  004f0	66 89 0d 8c 00
	00 00		 mov	 WORD PTR ?g_iMetaTable@@3VIMetaTable@@A+140, cx
  004f7	eb 05		 jmp	 SHORT $LN120@Initialize
$LN381@Initialize:
  004f9	a1 88 00 00 00	 mov	 eax, DWORD PTR ?g_iMetaTable@@3VIMetaTable@@A+136
$LN120@Initialize:
  004fe	85 c0		 test	 eax, eax
  00500	0f 84 ee 00 00
	00		 je	 $LN9@Initialize
  00506	56		 push	 esi
  00507	ff d0		 call	 eax
  00509	83 c4 04	 add	 esp, 4
; File D:\git\src\IBK\IBK_DRFN\ProjSrc\SrcChartEx\ChartAddIn\ChartAnalysisToolAddIn\AnalysisTool\DlgAnalysisToolSet.cpp

; 436  : 		switch(eLanguageID)

  0050c	83 e8 00	 sub	 eax, 0
  0050f	0f 84 df 00 00
	00		 je	 $LN9@Initialize
  00515	83 e8 01	 sub	 eax, 1
  00518	0f 85 47 0f 00
	00		 jne	 $LN43@Initialize

; 458  : 				pBtn = (CButton *)GetDlgItem(IDC_OK_BT);
; 459  : 				pBtn->GetClientRect(&rect);
; 460  : 				pBtn->MoveWindow(nTempX, rectPos.top + 45, rect.Width(), rect.Height());
; 461  : 
; 462  : 				nTempX = nTempX + rect.Width() + 2;
; 463  : 				pBtn = (CButton *)GetDlgItem(IDC_CANCEL_BT);
; 464  : 				pBtn->GetClientRect(&rect);
; 465  : 				pBtn->MoveWindow(nTempX, rectPos.top + 45, rect.Width(), rect.Height());
; 466  : 
; 467  : 				nTempX = nTempX + rect.Width() + 2;
; 468  : 				pBtn = (CButton *)GetDlgItem(IDC_APPLY_BT);
; 469  : 				pBtn->GetClientRect(&rect);
; 470  : 				pBtn->MoveWindow(nTempX, rectPos.top + 45, rect.Width(), rect.Height());
; 471  : 			}
; 472  : 			break;
; 473  : 		case IMetaTable::KOREAN:
; 474  : 			{
; 475  : 				rectPos.left += 35;

  0051e	83 45 d0 23	 add	 DWORD PTR _rectPos$22[ebp], 35 ; 00000023H

; 476  : 				rectPos.top += 20;
; 477  : 				CButton *pBtn = (CButton *)GetDlgItem(IDC_COLOR);

  00522	8b cb		 mov	 ecx, ebx
  00524	83 45 d4 14	 add	 DWORD PTR _rectPos$22[ebp+4], 20 ; 00000014H
  00528	68 45 1f 00 00	 push	 8005			; 00001f45H
  0052d	e8 00 00 00 00	 call	 ?GetDlgItem@CWnd@@QBEPAV1@H@Z ; CWnd::GetDlgItem
  00532	8b f0		 mov	 esi, eax
; File C:\Program Files (x86)\Microsoft Visual Studio\2019\Community\VC\Tools\MSVC\14.29.30133\atlmfc\include\afxwin2.inl

; 86   : 	{ ASSERT(::IsWindow(m_hWnd)); ::GetClientRect(m_hWnd, lpRect); }

  00534	8d 45 e0	 lea	 eax, DWORD PTR _rect$23[ebp]
  00537	50		 push	 eax
  00538	ff 76 20	 push	 DWORD PTR [esi+32]
  0053b	ff d7		 call	 edi
; File C:\Program Files (x86)\Microsoft Visual Studio\2019\Community\VC\Tools\MSVC\14.29.30133\atlmfc\include\atltypes.h

; 581  : 	return bottom - top;

  0053d	8b 4d ec	 mov	 ecx, DWORD PTR _rect$23[ebp+12]
  00540	2b 4d e4	 sub	 ecx, DWORD PTR _rect$23[ebp+4]

; 576  : 	return right - left;

  00543	8b 45 e8	 mov	 eax, DWORD PTR _rect$23[ebp+8]
  00546	2b 45 e0	 sub	 eax, DWORD PTR _rect$23[ebp]
; File D:\git\src\IBK\IBK_DRFN\ProjSrc\SrcChartEx\ChartAddIn\ChartAnalysisToolAddIn\AnalysisTool\DlgAnalysisToolSet.cpp

; 479  : 				pBtn->MoveWindow(rectPos.left, rectPos.top, rect.Width(), rect.Height());

  00549	6a 01		 push	 1
  0054b	51		 push	 ecx
  0054c	50		 push	 eax
  0054d	ff 75 d4	 push	 DWORD PTR _rectPos$22[ebp+4]
  00550	8b ce		 mov	 ecx, esi
  00552	ff 75 d0	 push	 DWORD PTR _rectPos$22[ebp]
  00555	e8 00 00 00 00	 call	 ?MoveWindow@CWnd@@QAEXHHHHH@Z ; CWnd::MoveWindow

; 480  :  
; 481  : 				rectPos.top -= 3;
; 482  : 				rectPos.left = rectPos.left + rect.Width() + 35;

  0055a	8b 45 d0	 mov	 eax, DWORD PTR _rectPos$22[ebp]
  0055d	8b 4d e8	 mov	 ecx, DWORD PTR _rect$23[ebp+8]
  00560	83 c0 23	 add	 eax, 35			; 00000023H
  00563	2b 4d e0	 sub	 ecx, DWORD PTR _rect$23[ebp]
  00566	83 6d d4 03	 sub	 DWORD PTR _rectPos$22[ebp+4], 3
  0056a	03 c1		 add	 eax, ecx

; 483  : 				CComboBox *pCombo = (CComboBox *)GetDlgItem(IDC_WIDTH);

  0056c	68 63 23 00 00	 push	 9059			; 00002363H
  00571	8b cb		 mov	 ecx, ebx
  00573	89 45 d0	 mov	 DWORD PTR _rectPos$22[ebp], eax
  00576	e8 00 00 00 00	 call	 ?GetDlgItem@CWnd@@QBEPAV1@H@Z ; CWnd::GetDlgItem
  0057b	8b f0		 mov	 esi, eax
; File C:\Program Files (x86)\Microsoft Visual Studio\2019\Community\VC\Tools\MSVC\14.29.30133\atlmfc\include\afxwin2.inl

; 86   : 	{ ASSERT(::IsWindow(m_hWnd)); ::GetClientRect(m_hWnd, lpRect); }

  0057d	8d 45 e0	 lea	 eax, DWORD PTR _rect$23[ebp]
  00580	50		 push	 eax
  00581	ff 76 20	 push	 DWORD PTR [esi+32]
  00584	ff d7		 call	 edi
; File C:\Program Files (x86)\Microsoft Visual Studio\2019\Community\VC\Tools\MSVC\14.29.30133\atlmfc\include\atltypes.h

; 581  : 	return bottom - top;

  00586	8b 4d ec	 mov	 ecx, DWORD PTR _rect$23[ebp+12]
  00589	2b 4d e4	 sub	 ecx, DWORD PTR _rect$23[ebp+4]

; 576  : 	return right - left;

  0058c	8b 45 e8	 mov	 eax, DWORD PTR _rect$23[ebp+8]
  0058f	2b 45 e0	 sub	 eax, DWORD PTR _rect$23[ebp]
; File D:\git\src\IBK\IBK_DRFN\ProjSrc\SrcChartEx\ChartAddIn\ChartAnalysisToolAddIn\AnalysisTool\DlgAnalysisToolSet.cpp

; 485  : 				pCombo->MoveWindow(rectPos.left, rectPos.top, rect.Width(), rect.Height());

  00592	6a 01		 push	 1
  00594	51		 push	 ecx
  00595	50		 push	 eax
  00596	ff 75 d4	 push	 DWORD PTR _rectPos$22[ebp+4]
  00599	8b ce		 mov	 ecx, esi
  0059b	ff 75 d0	 push	 DWORD PTR _rectPos$22[ebp]
  0059e	e8 00 00 00 00	 call	 ?MoveWindow@CWnd@@QAEXHHHHH@Z ; CWnd::MoveWindow

; 486  : 
; 487  : 				rectPos.left = rectPos.left + rect.Width() + 40;

  005a3	8b 45 d0	 mov	 eax, DWORD PTR _rectPos$22[ebp]
  005a6	8b 4d e8	 mov	 ecx, DWORD PTR _rect$23[ebp+8]
  005a9	83 c0 28	 add	 eax, 40			; 00000028H
  005ac	2b 4d e0	 sub	 ecx, DWORD PTR _rect$23[ebp]
  005af	03 c1		 add	 eax, ecx

; 488  : 				pCombo = (CComboBox *)GetDlgItem(IDC_STYLE);

  005b1	8b cb		 mov	 ecx, ebx
  005b3	68 2e 27 00 00	 push	 10030			; 0000272eH
  005b8	89 45 d0	 mov	 DWORD PTR _rectPos$22[ebp], eax
  005bb	e8 00 00 00 00	 call	 ?GetDlgItem@CWnd@@QBEPAV1@H@Z ; CWnd::GetDlgItem
  005c0	8b f0		 mov	 esi, eax
; File C:\Program Files (x86)\Microsoft Visual Studio\2019\Community\VC\Tools\MSVC\14.29.30133\atlmfc\include\afxwin2.inl

; 86   : 	{ ASSERT(::IsWindow(m_hWnd)); ::GetClientRect(m_hWnd, lpRect); }

  005c2	8d 45 e0	 lea	 eax, DWORD PTR _rect$23[ebp]
  005c5	50		 push	 eax
  005c6	ff 76 20	 push	 DWORD PTR [esi+32]
  005c9	ff d7		 call	 edi
; File C:\Program Files (x86)\Microsoft Visual Studio\2019\Community\VC\Tools\MSVC\14.29.30133\atlmfc\include\atltypes.h

; 581  : 	return bottom - top;

  005cb	8b 4d ec	 mov	 ecx, DWORD PTR _rect$23[ebp+12]
  005ce	2b 4d e4	 sub	 ecx, DWORD PTR _rect$23[ebp+4]

; 576  : 	return right - left;

  005d1	8b 45 e8	 mov	 eax, DWORD PTR _rect$23[ebp+8]
  005d4	2b 45 e0	 sub	 eax, DWORD PTR _rect$23[ebp]
; File D:\git\src\IBK\IBK_DRFN\ProjSrc\SrcChartEx\ChartAddIn\ChartAnalysisToolAddIn\AnalysisTool\DlgAnalysisToolSet.cpp

; 490  : 				pCombo->MoveWindow(rectPos.left, rectPos.top, rect.Width(), rect.Height());

  005d7	6a 01		 push	 1
  005d9	51		 push	 ecx
  005da	50		 push	 eax
  005db	ff 75 d4	 push	 DWORD PTR _rectPos$22[ebp+4]
  005de	8b ce		 mov	 ecx, esi
  005e0	ff 75 d0	 push	 DWORD PTR _rectPos$22[ebp]
  005e3	e8 00 00 00 00	 call	 ?MoveWindow@CWnd@@QAEXHHHHH@Z ; CWnd::MoveWindow

; 491  : 
; 492  : 				nTempX += 130;

  005e8	81 45 cc 82 00
	00 00		 add	 DWORD PTR _nTempX$3$[ebp], 130 ; 00000082H

; 493  : 				pBtn = (CButton *)GetDlgItem(IDC_OK_BT);
; 494  : 				pBtn->GetClientRect(&rect);
; 495  : 				pBtn->MoveWindow(nTempX, rectPos.top + 45, rect.Width(), rect.Height());
; 496  : 
; 497  : 				nTempX = nTempX + rect.Width() + 2;
; 498  : 				pBtn = (CButton *)GetDlgItem(IDC_CANCEL_BT);
; 499  : 				pBtn->GetClientRect(&rect);
; 500  : 				pBtn->MoveWindow(nTempX, rectPos.top + 45, rect.Width(), rect.Height());
; 501  : 
; 502  : 				nTempX = nTempX + rect.Width() + 2;
; 503  : 				pBtn = (CButton *)GetDlgItem(IDC_APPLY_BT);
; 504  : 				pBtn->GetClientRect(&rect);
; 505  : 				pBtn->MoveWindow(nTempX, rectPos.top + 45, rect.Width(), rect.Height());
; 506  : 			}
; 507  : 			break;

  005ef	e9 d1 00 00 00	 jmp	 $LN388@Initialize
$LN9@Initialize:

; 437  : 		{
; 438  : 		case IMetaTable::ENGLISH:
; 439  : 			{
; 440  : 				rectPos.left += 50;

  005f4	83 45 d0 32	 add	 DWORD PTR _rectPos$22[ebp], 50 ; 00000032H

; 441  : 				rectPos.top += 20;
; 442  : 				CButton *pBtn = (CButton *)GetDlgItem(IDC_COLOR);

  005f8	8b cb		 mov	 ecx, ebx
  005fa	83 45 d4 14	 add	 DWORD PTR _rectPos$22[ebp+4], 20 ; 00000014H
  005fe	68 45 1f 00 00	 push	 8005			; 00001f45H
  00603	e8 00 00 00 00	 call	 ?GetDlgItem@CWnd@@QBEPAV1@H@Z ; CWnd::GetDlgItem
  00608	8b f0		 mov	 esi, eax
; File C:\Program Files (x86)\Microsoft Visual Studio\2019\Community\VC\Tools\MSVC\14.29.30133\atlmfc\include\afxwin2.inl

; 86   : 	{ ASSERT(::IsWindow(m_hWnd)); ::GetClientRect(m_hWnd, lpRect); }

  0060a	8d 45 e0	 lea	 eax, DWORD PTR _rect$23[ebp]
  0060d	50		 push	 eax
  0060e	ff 76 20	 push	 DWORD PTR [esi+32]
  00611	ff d7		 call	 edi
; File C:\Program Files (x86)\Microsoft Visual Studio\2019\Community\VC\Tools\MSVC\14.29.30133\atlmfc\include\atltypes.h

; 581  : 	return bottom - top;

  00613	8b 4d ec	 mov	 ecx, DWORD PTR _rect$23[ebp+12]
  00616	2b 4d e4	 sub	 ecx, DWORD PTR _rect$23[ebp+4]

; 576  : 	return right - left;

  00619	8b 45 e8	 mov	 eax, DWORD PTR _rect$23[ebp+8]
  0061c	2b 45 e0	 sub	 eax, DWORD PTR _rect$23[ebp]
; File D:\git\src\IBK\IBK_DRFN\ProjSrc\SrcChartEx\ChartAddIn\ChartAnalysisToolAddIn\AnalysisTool\DlgAnalysisToolSet.cpp

; 444  : 				pBtn->MoveWindow(rectPos.left, rectPos.top, rect.Width(), rect.Height());

  0061f	6a 01		 push	 1
  00621	51		 push	 ecx
  00622	50		 push	 eax
  00623	ff 75 d4	 push	 DWORD PTR _rectPos$22[ebp+4]
  00626	8b ce		 mov	 ecx, esi
  00628	ff 75 d0	 push	 DWORD PTR _rectPos$22[ebp]
  0062b	e8 00 00 00 00	 call	 ?MoveWindow@CWnd@@QAEXHHHHH@Z ; CWnd::MoveWindow

; 445  : 
; 446  : 				rectPos.top -= 3;
; 447  : 				rectPos.left = rectPos.left + rect.Width() + 75;

  00630	8b 45 d0	 mov	 eax, DWORD PTR _rectPos$22[ebp]
  00633	8b 4d e8	 mov	 ecx, DWORD PTR _rect$23[ebp+8]
  00636	83 c0 4b	 add	 eax, 75			; 0000004bH
  00639	2b 4d e0	 sub	 ecx, DWORD PTR _rect$23[ebp]
  0063c	83 6d d4 03	 sub	 DWORD PTR _rectPos$22[ebp+4], 3
  00640	03 c1		 add	 eax, ecx

; 448  : 				CComboBox *pCombo = (CComboBox *)GetDlgItem(IDC_WIDTH);

  00642	68 63 23 00 00	 push	 9059			; 00002363H
  00647	8b cb		 mov	 ecx, ebx
  00649	89 45 d0	 mov	 DWORD PTR _rectPos$22[ebp], eax
  0064c	e8 00 00 00 00	 call	 ?GetDlgItem@CWnd@@QBEPAV1@H@Z ; CWnd::GetDlgItem
  00651	8b f0		 mov	 esi, eax
; File C:\Program Files (x86)\Microsoft Visual Studio\2019\Community\VC\Tools\MSVC\14.29.30133\atlmfc\include\afxwin2.inl

; 86   : 	{ ASSERT(::IsWindow(m_hWnd)); ::GetClientRect(m_hWnd, lpRect); }

  00653	8d 45 e0	 lea	 eax, DWORD PTR _rect$23[ebp]
  00656	50		 push	 eax
  00657	ff 76 20	 push	 DWORD PTR [esi+32]
  0065a	ff d7		 call	 edi
; File C:\Program Files (x86)\Microsoft Visual Studio\2019\Community\VC\Tools\MSVC\14.29.30133\atlmfc\include\atltypes.h

; 581  : 	return bottom - top;

  0065c	8b 4d ec	 mov	 ecx, DWORD PTR _rect$23[ebp+12]
  0065f	2b 4d e4	 sub	 ecx, DWORD PTR _rect$23[ebp+4]

; 576  : 	return right - left;

  00662	8b 45 e8	 mov	 eax, DWORD PTR _rect$23[ebp+8]
  00665	2b 45 e0	 sub	 eax, DWORD PTR _rect$23[ebp]
; File D:\git\src\IBK\IBK_DRFN\ProjSrc\SrcChartEx\ChartAddIn\ChartAnalysisToolAddIn\AnalysisTool\DlgAnalysisToolSet.cpp

; 450  : 				pCombo->MoveWindow(rectPos.left, rectPos.top, rect.Width(), rect.Height());

  00668	6a 01		 push	 1
  0066a	51		 push	 ecx
  0066b	50		 push	 eax
  0066c	ff 75 d4	 push	 DWORD PTR _rectPos$22[ebp+4]
  0066f	8b ce		 mov	 ecx, esi
  00671	ff 75 d0	 push	 DWORD PTR _rectPos$22[ebp]
  00674	e8 00 00 00 00	 call	 ?MoveWindow@CWnd@@QAEXHHHHH@Z ; CWnd::MoveWindow

; 451  : 
; 452  : 				rectPos.left = rectPos.left + rect.Width() + 40;

  00679	8b 45 d0	 mov	 eax, DWORD PTR _rectPos$22[ebp]
  0067c	8b 4d e8	 mov	 ecx, DWORD PTR _rect$23[ebp+8]
  0067f	83 c0 28	 add	 eax, 40			; 00000028H
  00682	2b 4d e0	 sub	 ecx, DWORD PTR _rect$23[ebp]
  00685	03 c1		 add	 eax, ecx

; 453  : 				pCombo = (CComboBox *)GetDlgItem(IDC_STYLE);

  00687	8b cb		 mov	 ecx, ebx
  00689	68 2e 27 00 00	 push	 10030			; 0000272eH
  0068e	89 45 d0	 mov	 DWORD PTR _rectPos$22[ebp], eax
  00691	e8 00 00 00 00	 call	 ?GetDlgItem@CWnd@@QBEPAV1@H@Z ; CWnd::GetDlgItem
  00696	8b f0		 mov	 esi, eax
; File C:\Program Files (x86)\Microsoft Visual Studio\2019\Community\VC\Tools\MSVC\14.29.30133\atlmfc\include\afxwin2.inl

; 86   : 	{ ASSERT(::IsWindow(m_hWnd)); ::GetClientRect(m_hWnd, lpRect); }

  00698	8d 45 e0	 lea	 eax, DWORD PTR _rect$23[ebp]
  0069b	50		 push	 eax
  0069c	ff 76 20	 push	 DWORD PTR [esi+32]
  0069f	ff d7		 call	 edi
; File C:\Program Files (x86)\Microsoft Visual Studio\2019\Community\VC\Tools\MSVC\14.29.30133\atlmfc\include\atltypes.h

; 581  : 	return bottom - top;

  006a1	8b 4d ec	 mov	 ecx, DWORD PTR _rect$23[ebp+12]
  006a4	2b 4d e4	 sub	 ecx, DWORD PTR _rect$23[ebp+4]

; 576  : 	return right - left;

  006a7	8b 45 e8	 mov	 eax, DWORD PTR _rect$23[ebp+8]
  006aa	2b 45 e0	 sub	 eax, DWORD PTR _rect$23[ebp]
; File D:\git\src\IBK\IBK_DRFN\ProjSrc\SrcChartEx\ChartAddIn\ChartAnalysisToolAddIn\AnalysisTool\DlgAnalysisToolSet.cpp

; 455  : 				pCombo->MoveWindow(rectPos.left, rectPos.top, rect.Width(), rect.Height());

  006ad	6a 01		 push	 1
  006af	51		 push	 ecx
  006b0	50		 push	 eax
  006b1	ff 75 d4	 push	 DWORD PTR _rectPos$22[ebp+4]
  006b4	8b ce		 mov	 ecx, esi
  006b6	ff 75 d0	 push	 DWORD PTR _rectPos$22[ebp]
  006b9	e8 00 00 00 00	 call	 ?MoveWindow@CWnd@@QAEXHHHHH@Z ; CWnd::MoveWindow

; 456  : 
; 457  : 				nTempX += 183;

  006be	81 45 cc b7 00
	00 00		 add	 DWORD PTR _nTempX$3$[ebp], 183 ; 000000b7H
$LN388@Initialize:

; 853  : 	}
; 854  : 
; 855  : 	if((CToolEnumData::ElementType)m_nElementType != CToolEnumData::Pencil_Line)

  006c5	68 bb 0f 00 00	 push	 4027			; 00000fbbH
  006ca	8b cb		 mov	 ecx, ebx
  006cc	e8 00 00 00 00	 call	 ?GetDlgItem@CWnd@@QBEPAV1@H@Z ; CWnd::GetDlgItem
  006d1	8b f0		 mov	 esi, eax
  006d3	8d 45 e0	 lea	 eax, DWORD PTR _rect$23[ebp]
  006d6	50		 push	 eax
  006d7	ff 76 20	 push	 DWORD PTR [esi+32]
  006da	ff d7		 call	 edi
  006dc	8b 4d ec	 mov	 ecx, DWORD PTR _rect$23[ebp+12]
  006df	2b 4d e4	 sub	 ecx, DWORD PTR _rect$23[ebp+4]
  006e2	8b 45 e8	 mov	 eax, DWORD PTR _rect$23[ebp+8]
  006e5	2b 45 e0	 sub	 eax, DWORD PTR _rect$23[ebp]
  006e8	8b 7d cc	 mov	 edi, DWORD PTR _nTempX$3$[ebp]
  006eb	6a 01		 push	 1
  006ed	51		 push	 ecx
  006ee	50		 push	 eax
  006ef	8b 45 d4	 mov	 eax, DWORD PTR _rectPos$22[ebp+4]
  006f2	8b ce		 mov	 ecx, esi
  006f4	83 c0 2d	 add	 eax, 45			; 0000002dH
  006f7	50		 push	 eax
  006f8	57		 push	 edi
  006f9	e8 00 00 00 00	 call	 ?MoveWindow@CWnd@@QAEXHHHHH@Z ; CWnd::MoveWindow
  006fe	8b 45 e8	 mov	 eax, DWORD PTR _rect$23[ebp+8]
  00701	83 c7 02	 add	 edi, 2
  00704	2b 45 e0	 sub	 eax, DWORD PTR _rect$23[ebp]
  00707	8b cb		 mov	 ecx, ebx
  00709	68 bc 0f 00 00	 push	 4028			; 00000fbcH
  0070e	03 f8		 add	 edi, eax
  00710	e8 00 00 00 00	 call	 ?GetDlgItem@CWnd@@QBEPAV1@H@Z ; CWnd::GetDlgItem
  00715	8b f0		 mov	 esi, eax
  00717	8d 45 e0	 lea	 eax, DWORD PTR _rect$23[ebp]
  0071a	50		 push	 eax
  0071b	ff 76 20	 push	 DWORD PTR [esi+32]
  0071e	ff 15 00 00 00
	00		 call	 DWORD PTR __imp__GetClientRect@8
  00724	8b 4d ec	 mov	 ecx, DWORD PTR _rect$23[ebp+12]
  00727	2b 4d e4	 sub	 ecx, DWORD PTR _rect$23[ebp+4]
  0072a	8b 45 e8	 mov	 eax, DWORD PTR _rect$23[ebp+8]
  0072d	2b 45 e0	 sub	 eax, DWORD PTR _rect$23[ebp]
  00730	6a 01		 push	 1
  00732	51		 push	 ecx
  00733	50		 push	 eax
  00734	8b 45 d4	 mov	 eax, DWORD PTR _rectPos$22[ebp+4]
  00737	8b ce		 mov	 ecx, esi
  00739	83 c0 2d	 add	 eax, 45			; 0000002dH
  0073c	50		 push	 eax
  0073d	57		 push	 edi
  0073e	e8 00 00 00 00	 call	 ?MoveWindow@CWnd@@QAEXHHHHH@Z ; CWnd::MoveWindow
  00743	8b 45 e8	 mov	 eax, DWORD PTR _rect$23[ebp+8]
  00746	8b cb		 mov	 ecx, ebx
  00748	2b 45 e0	 sub	 eax, DWORD PTR _rect$23[ebp]
  0074b	83 c0 02	 add	 eax, 2
  0074e	6a 03		 push	 3
  00750	03 f8		 add	 edi, eax
  00752	e8 00 00 00 00	 call	 ?GetDlgItem@CWnd@@QBEPAV1@H@Z ; CWnd::GetDlgItem
  00757	8b f0		 mov	 esi, eax
  00759	8d 45 e0	 lea	 eax, DWORD PTR _rect$23[ebp]
  0075c	50		 push	 eax
  0075d	ff 76 20	 push	 DWORD PTR [esi+32]
  00760	ff 15 00 00 00
	00		 call	 DWORD PTR __imp__GetClientRect@8
  00766	8b 4d ec	 mov	 ecx, DWORD PTR _rect$23[ebp+12]
  00769	2b 4d e4	 sub	 ecx, DWORD PTR _rect$23[ebp+4]
  0076c	8b 45 e8	 mov	 eax, DWORD PTR _rect$23[ebp+8]
  0076f	2b 45 e0	 sub	 eax, DWORD PTR _rect$23[ebp]
  00772	6a 01		 push	 1
  00774	51		 push	 ecx
  00775	50		 push	 eax
  00776	8b 45 d4	 mov	 eax, DWORD PTR _rectPos$22[ebp+4]
  00779	8b ce		 mov	 ecx, esi
  0077b	83 c0 2d	 add	 eax, 45			; 0000002dH
  0077e	50		 push	 eax
  0077f	57		 push	 edi
  00780	e8 00 00 00 00	 call	 ?MoveWindow@CWnd@@QAEXHHHHH@Z ; CWnd::MoveWindow
  00785	e9 db 0c 00 00	 jmp	 $LN43@Initialize
$LN7@Initialize:

; 508  : 		default:
; 509  : 			ASSERT(FALSE);
; 510  : 		};
; 511  : 		
; 512  : //		rectPos.left += 35;
; 513  : //		rectPos.top += 20;
; 514  : //		CButton *pBtn = (CButton *)GetDlgItem(IDC_COLOR);
; 515  : //		pBtn->GetClientRect(&rect);
; 516  : //		pBtn->MoveWindow(rectPos.left, rectPos.top, rect.Width(), rect.Height());
; 517  : // 
; 518  : //		rectPos.top -= 3;
; 519  : //		rectPos.left = rectPos.left + rect.Width() + 35;
; 520  : //		CComboBox *pCombo = (CComboBox *)GetDlgItem(IDC_WIDTH);
; 521  : //		pCombo->GetClientRect(&rect);
; 522  : //		pCombo->MoveWindow(rectPos.left, rectPos.top, rect.Width(), rect.Height());
; 523  : //
; 524  : //		rectPos.left = rectPos.left + rect.Width() + 40;
; 525  : //		pCombo = (CComboBox *)GetDlgItem(IDC_STYLE);
; 526  : //		pCombo->GetClientRect(&rect);
; 527  : //		pCombo->MoveWindow(rectPos.left, rectPos.top, rect.Width(), rect.Height());
; 528  : //
; 529  : //		nTempX += 130;
; 530  : //		pBtn = (CButton *)GetDlgItem(IDC_OK_BT);
; 531  : //		pBtn->GetClientRect(&rect);
; 532  : //		pBtn->MoveWindow(nTempX, rectPos.top + 45, rect.Width(), rect.Height());
; 533  : //
; 534  : //		nTempX = nTempX + rect.Width() + 2;
; 535  : //		pBtn = (CButton *)GetDlgItem(IDC_CANCEL_BT);
; 536  : //		pBtn->GetClientRect(&rect);
; 537  : //		pBtn->MoveWindow(nTempX, rectPos.top + 45, rect.Width(), rect.Height());
; 538  : //
; 539  : //		nTempX = nTempX + rect.Width() + 2;
; 540  : //		pBtn = (CButton *)GetDlgItem(IDC_APPLY_BT);
; 541  : //		pBtn->GetClientRect(&rect);
; 542  : //		pBtn->MoveWindow(nTempX, rectPos.top + 45, rect.Width(), rect.Height());
; 543  : 
; 544  : 		///////////////////////////////////////////////////////////////////////////////
; 545  : 	}
; 546  : 	else if((CToolEnumData::ElementType)m_nElementType == CToolEnumData::Cross_Line)		

  0078a	83 f8 01	 cmp	 eax, 1
  0078d	0f 85 f7 00 00
	00		 jne	 $LN12@Initialize

; 547  : 	{
; 548  : 		m_ctrlTopText.ShowWindow(SW_SHOW);

  00793	6a 05		 push	 5
  00795	8d 8b 50 04 00
	00		 lea	 ecx, DWORD PTR [ebx+1104]
  0079b	e8 00 00 00 00	 call	 ?ShowWindow@CWnd@@QAEHH@Z ; CWnd::ShowWindow

; 549  : 		m_ctrlBottomText.ShowWindow(SW_SHOW);

  007a0	6a 05		 push	 5
  007a2	8d 8b d0 04 00
	00		 lea	 ecx, DWORD PTR [ebx+1232]
  007a8	e8 00 00 00 00	 call	 ?ShowWindow@CWnd@@QAEHH@Z ; CWnd::ShowWindow

; 552  : 		m_ctrlLeftText.SetCheck(m_pTextHVPosition->GetLeft());

  007ad	8b 8b 38 0d 00
	00		 mov	 ecx, DWORD PTR [ebx+3384]
  007b3	c7 83 04 0d 00
	00 03 00 00 00	 mov	 DWORD PTR [ebx+3332], 3
  007bd	e8 00 00 00 00	 call	 ?GetLeft@CTextHorzVertPosition@@QBE_NXZ ; CTextHorzVertPosition::GetLeft
; File C:\Program Files (x86)\Microsoft Visual Studio\2019\Community\VC\Tools\MSVC\14.29.30133\atlmfc\include\afxwin2.inl

; 630  : 	{ ASSERT(::IsWindow(m_hWnd)); ::SendMessage(m_hWnd, BM_SETCHECK, nCheck, 0); }

  007c2	8b 35 00 00 00
	00		 mov	 esi, DWORD PTR __imp__SendMessageA@16
  007c8	6a 00		 push	 0
; File D:\git\src\IBK\IBK_DRFN\ProjSrc\SrcChartEx\ChartAddIn\ChartAnalysisToolAddIn\AnalysisTool\DlgAnalysisToolSet.cpp

; 552  : 		m_ctrlLeftText.SetCheck(m_pTextHVPosition->GetLeft());

  007ca	0f b6 c0	 movzx	 eax, al
; File C:\Program Files (x86)\Microsoft Visual Studio\2019\Community\VC\Tools\MSVC\14.29.30133\atlmfc\include\afxwin2.inl

; 630  : 	{ ASSERT(::IsWindow(m_hWnd)); ::SendMessage(m_hWnd, BM_SETCHECK, nCheck, 0); }

  007cd	50		 push	 eax
  007ce	68 f1 00 00 00	 push	 241			; 000000f1H
  007d3	ff b3 f0 02 00
	00		 push	 DWORD PTR [ebx+752]
  007d9	ff d6		 call	 esi
; File D:\git\src\IBK\IBK_DRFN\ProjSrc\SrcChartEx\ChartAddIn\ChartAnalysisToolAddIn\AnalysisTool\DlgAnalysisToolSet.cpp

; 553  : 		m_ctrlRightText.SetCheck(m_pTextHVPosition->GetRight());

  007db	8b 8b 38 0d 00
	00		 mov	 ecx, DWORD PTR [ebx+3384]
  007e1	e8 00 00 00 00	 call	 ?GetRight@CTextHorzVertPosition@@QBE_NXZ ; CTextHorzVertPosition::GetRight
; File C:\Program Files (x86)\Microsoft Visual Studio\2019\Community\VC\Tools\MSVC\14.29.30133\atlmfc\include\afxwin2.inl

; 630  : 	{ ASSERT(::IsWindow(m_hWnd)); ::SendMessage(m_hWnd, BM_SETCHECK, nCheck, 0); }

  007e6	6a 00		 push	 0
; File D:\git\src\IBK\IBK_DRFN\ProjSrc\SrcChartEx\ChartAddIn\ChartAnalysisToolAddIn\AnalysisTool\DlgAnalysisToolSet.cpp

; 553  : 		m_ctrlRightText.SetCheck(m_pTextHVPosition->GetRight());

  007e8	0f b6 c0	 movzx	 eax, al
; File C:\Program Files (x86)\Microsoft Visual Studio\2019\Community\VC\Tools\MSVC\14.29.30133\atlmfc\include\afxwin2.inl

; 630  : 	{ ASSERT(::IsWindow(m_hWnd)); ::SendMessage(m_hWnd, BM_SETCHECK, nCheck, 0); }

  007eb	50		 push	 eax
  007ec	68 f1 00 00 00	 push	 241			; 000000f1H
  007f1	ff b3 70 03 00
	00		 push	 DWORD PTR [ebx+880]
  007f7	ff d6		 call	 esi
; File D:\git\src\IBK\IBK_DRFN\ProjSrc\SrcChartEx\ChartAddIn\ChartAnalysisToolAddIn\AnalysisTool\DlgAnalysisToolSet.cpp

; 554  : 		m_ctrlTopText.SetCheck(m_pTextHVPosition->GetTop());

  007f9	8b 8b 38 0d 00
	00		 mov	 ecx, DWORD PTR [ebx+3384]
  007ff	e8 00 00 00 00	 call	 ?GetTop@CTextHorzVertPosition@@QBE_NXZ ; CTextHorzVertPosition::GetTop
; File C:\Program Files (x86)\Microsoft Visual Studio\2019\Community\VC\Tools\MSVC\14.29.30133\atlmfc\include\afxwin2.inl

; 630  : 	{ ASSERT(::IsWindow(m_hWnd)); ::SendMessage(m_hWnd, BM_SETCHECK, nCheck, 0); }

  00804	6a 00		 push	 0
; File D:\git\src\IBK\IBK_DRFN\ProjSrc\SrcChartEx\ChartAddIn\ChartAnalysisToolAddIn\AnalysisTool\DlgAnalysisToolSet.cpp

; 554  : 		m_ctrlTopText.SetCheck(m_pTextHVPosition->GetTop());

  00806	0f b6 c0	 movzx	 eax, al
; File C:\Program Files (x86)\Microsoft Visual Studio\2019\Community\VC\Tools\MSVC\14.29.30133\atlmfc\include\afxwin2.inl

; 630  : 	{ ASSERT(::IsWindow(m_hWnd)); ::SendMessage(m_hWnd, BM_SETCHECK, nCheck, 0); }

  00809	50		 push	 eax
  0080a	68 f1 00 00 00	 push	 241			; 000000f1H
  0080f	ff b3 70 04 00
	00		 push	 DWORD PTR [ebx+1136]
  00815	ff d6		 call	 esi
; File D:\git\src\IBK\IBK_DRFN\ProjSrc\SrcChartEx\ChartAddIn\ChartAnalysisToolAddIn\AnalysisTool\DlgAnalysisToolSet.cpp

; 555  : 		m_ctrlBottomText.SetCheck(m_pTextHVPosition->GetBottom());		

  00817	8b 8b 38 0d 00
	00		 mov	 ecx, DWORD PTR [ebx+3384]
  0081d	e8 00 00 00 00	 call	 ?GetBottom@CTextHorzVertPosition@@QBE_NXZ ; CTextHorzVertPosition::GetBottom
; File C:\Program Files (x86)\Microsoft Visual Studio\2019\Community\VC\Tools\MSVC\14.29.30133\atlmfc\include\afxwin2.inl

; 630  : 	{ ASSERT(::IsWindow(m_hWnd)); ::SendMessage(m_hWnd, BM_SETCHECK, nCheck, 0); }

  00822	6a 00		 push	 0
; File D:\git\src\IBK\IBK_DRFN\ProjSrc\SrcChartEx\ChartAddIn\ChartAnalysisToolAddIn\AnalysisTool\DlgAnalysisToolSet.cpp

; 555  : 		m_ctrlBottomText.SetCheck(m_pTextHVPosition->GetBottom());		

  00824	0f b6 c0	 movzx	 eax, al
; File C:\Program Files (x86)\Microsoft Visual Studio\2019\Community\VC\Tools\MSVC\14.29.30133\atlmfc\include\afxwin2.inl

; 630  : 	{ ASSERT(::IsWindow(m_hWnd)); ::SendMessage(m_hWnd, BM_SETCHECK, nCheck, 0); }

  00827	50		 push	 eax
  00828	68 f1 00 00 00	 push	 241			; 000000f1H
  0082d	ff b3 f0 04 00
	00		 push	 DWORD PTR [ebx+1264]
  00833	ff d6		 call	 esi
; File D:\git\src\IBK\IBK_DRFN\ProjSrc\SrcChartEx\ChartAddIn\ChartAnalysisToolAddIn\AnalysisTool\DlgAnalysisToolSet.cpp

; 557  : 		m_stAnalysisTool.nTopText = m_pTextHVPosition->GetTop();

  00835	8b 8b 38 0d 00
	00		 mov	 ecx, DWORD PTR [ebx+3384]
  0083b	e8 00 00 00 00	 call	 ?GetTop@CTextHorzVertPosition@@QBE_NXZ ; CTextHorzVertPosition::GetTop

; 558  : 		m_stAnalysisTool.nBottomText = m_pTextHVPosition->GetBottom();

  00840	8b 8b 38 0d 00
	00		 mov	 ecx, DWORD PTR [ebx+3384]
  00846	0f b6 c0	 movzx	 eax, al
  00849	89 83 ac 0c 00
	00		 mov	 DWORD PTR [ebx+3244], eax
  0084f	e8 00 00 00 00	 call	 ?GetBottom@CTextHorzVertPosition@@QBE_NXZ ; CTextHorzVertPosition::GetBottom

; 559  : 		m_stAnalysisTool.nLeftText = m_pTextHVPosition->GetLeft();

  00854	8b 8b 38 0d 00
	00		 mov	 ecx, DWORD PTR [ebx+3384]
  0085a	0f b6 c0	 movzx	 eax, al
  0085d	89 83 b0 0c 00
	00		 mov	 DWORD PTR [ebx+3248], eax
  00863	e8 00 00 00 00	 call	 ?GetLeft@CTextHorzVertPosition@@QBE_NXZ ; CTextHorzVertPosition::GetLeft

; 560  : 		m_stAnalysisTool.nRightText = m_pTextHVPosition->GetRight();

  00868	8b 8b 38 0d 00
	00		 mov	 ecx, DWORD PTR [ebx+3384]
  0086e	0f b6 c0	 movzx	 eax, al
  00871	89 83 a0 0c 00
	00		 mov	 DWORD PTR [ebx+3232], eax
  00877	e8 00 00 00 00	 call	 ?GetRight@CTextHorzVertPosition@@QBE_NXZ ; CTextHorzVertPosition::GetRight
  0087c	0f b6 c0	 movzx	 eax, al
  0087f	89 83 a4 0c 00
	00		 mov	 DWORD PTR [ebx+3236], eax

; 561  : 		
; 562  : 		//  
; 563  : 		m_ctrlXDateTime2.ShowWindow(SW_HIDE);
; 564  : 		m_ctrlEditValue2.ShowWindow(SW_HIDE);
; 565  : 		GetDlgItem(IDC_STATIC_XDATE2)->ShowWindow(SW_HIDE);
; 566  : 		GetDlgItem(IDC_STATIC_YVALUE2)->ShowWindow(SW_HIDE);
; 567  : 	}

  00885	e9 97 0b 00 00	 jmp	 $LN383@Initialize
$LN12@Initialize:

; 568  : 	else if((CToolEnumData::ElementType)m_nElementType == CToolEnumData::Horz_Line)	//

  0088a	83 f8 04	 cmp	 eax, 4
  0088d	75 79		 jne	 SHORT $LN14@Initialize

; 571  : 		m_ctrlLeftText.SetCheck(m_pTextHPosition->GetLeft());

  0088f	8b 8b 30 0d 00
	00		 mov	 ecx, DWORD PTR [ebx+3376]
  00895	c7 83 04 0d 00
	00 01 00 00 00	 mov	 DWORD PTR [ebx+3332], 1
  0089f	e8 00 00 00 00	 call	 ?GetLeft@CTextHorzPosition@@QBE_NXZ ; CTextHorzPosition::GetLeft
; File C:\Program Files (x86)\Microsoft Visual Studio\2019\Community\VC\Tools\MSVC\14.29.30133\atlmfc\include\afxwin2.inl

; 630  : 	{ ASSERT(::IsWindow(m_hWnd)); ::SendMessage(m_hWnd, BM_SETCHECK, nCheck, 0); }

  008a4	8b 35 00 00 00
	00		 mov	 esi, DWORD PTR __imp__SendMessageA@16
  008aa	6a 00		 push	 0
; File D:\git\src\IBK\IBK_DRFN\ProjSrc\SrcChartEx\ChartAddIn\ChartAnalysisToolAddIn\AnalysisTool\DlgAnalysisToolSet.cpp

; 571  : 		m_ctrlLeftText.SetCheck(m_pTextHPosition->GetLeft());

  008ac	0f b6 c0	 movzx	 eax, al
; File C:\Program Files (x86)\Microsoft Visual Studio\2019\Community\VC\Tools\MSVC\14.29.30133\atlmfc\include\afxwin2.inl

; 630  : 	{ ASSERT(::IsWindow(m_hWnd)); ::SendMessage(m_hWnd, BM_SETCHECK, nCheck, 0); }

  008af	50		 push	 eax
  008b0	68 f1 00 00 00	 push	 241			; 000000f1H
  008b5	ff b3 f0 02 00
	00		 push	 DWORD PTR [ebx+752]
  008bb	ff d6		 call	 esi
; File D:\git\src\IBK\IBK_DRFN\ProjSrc\SrcChartEx\ChartAddIn\ChartAnalysisToolAddIn\AnalysisTool\DlgAnalysisToolSet.cpp

; 572  : 		m_ctrlRightText.SetCheck(m_pTextHPosition->GetRight());

  008bd	8b 8b 30 0d 00
	00		 mov	 ecx, DWORD PTR [ebx+3376]
  008c3	e8 00 00 00 00	 call	 ?GetRight@CTextHorzPosition@@QBE_NXZ ; CTextHorzPosition::GetRight
; File C:\Program Files (x86)\Microsoft Visual Studio\2019\Community\VC\Tools\MSVC\14.29.30133\atlmfc\include\afxwin2.inl

; 630  : 	{ ASSERT(::IsWindow(m_hWnd)); ::SendMessage(m_hWnd, BM_SETCHECK, nCheck, 0); }

  008c8	6a 00		 push	 0
; File D:\git\src\IBK\IBK_DRFN\ProjSrc\SrcChartEx\ChartAddIn\ChartAnalysisToolAddIn\AnalysisTool\DlgAnalysisToolSet.cpp

; 572  : 		m_ctrlRightText.SetCheck(m_pTextHPosition->GetRight());

  008ca	0f b6 c0	 movzx	 eax, al
; File C:\Program Files (x86)\Microsoft Visual Studio\2019\Community\VC\Tools\MSVC\14.29.30133\atlmfc\include\afxwin2.inl

; 630  : 	{ ASSERT(::IsWindow(m_hWnd)); ::SendMessage(m_hWnd, BM_SETCHECK, nCheck, 0); }

  008cd	50		 push	 eax
  008ce	68 f1 00 00 00	 push	 241			; 000000f1H
  008d3	ff b3 70 03 00
	00		 push	 DWORD PTR [ebx+880]
  008d9	ff d6		 call	 esi
; File D:\git\src\IBK\IBK_DRFN\ProjSrc\SrcChartEx\ChartAddIn\ChartAnalysisToolAddIn\AnalysisTool\DlgAnalysisToolSet.cpp

; 574  : 		m_stAnalysisTool.nLeftText = m_pTextHPosition->GetLeft();

  008db	8b 8b 30 0d 00
	00		 mov	 ecx, DWORD PTR [ebx+3376]
  008e1	e8 00 00 00 00	 call	 ?GetLeft@CTextHorzPosition@@QBE_NXZ ; CTextHorzPosition::GetLeft

; 575  : 		m_stAnalysisTool.nRightText = m_pTextHPosition->GetRight();

  008e6	8b 8b 30 0d 00
	00		 mov	 ecx, DWORD PTR [ebx+3376]
  008ec	0f b6 c0	 movzx	 eax, al
  008ef	89 83 a0 0c 00
	00		 mov	 DWORD PTR [ebx+3232], eax
  008f5	e8 00 00 00 00	 call	 ?GetRight@CTextHorzPosition@@QBE_NXZ ; CTextHorzPosition::GetRight
  008fa	0f b6 c0	 movzx	 eax, al
  008fd	89 83 a4 0c 00
	00		 mov	 DWORD PTR [ebx+3236], eax

; 576  : 
; 577  : 		// 
; 578  : 		m_ctrlXDateTime2.ShowWindow(SW_HIDE);
; 579  : 		m_ctrlEditValue2.ShowWindow(SW_HIDE);
; 580  : 		GetDlgItem(IDC_STATIC_XDATE2)->ShowWindow(SW_HIDE);
; 581  : 		GetDlgItem(IDC_STATIC_YVALUE2)->ShowWindow(SW_HIDE);
; 582  : 	} 	

  00903	e9 19 0b 00 00	 jmp	 $LN383@Initialize
$LN14@Initialize:

; 583  : 	else if((CToolEnumData::ElementType)m_nElementType == CToolEnumData::Vert_Line ||

  00908	83 f8 03	 cmp	 eax, 3
  0090b	0f 84 3c 09 00
	00		 je	 $LN385@Initialize
  00911	83 f8 0c	 cmp	 eax, 12			; 0000000cH
  00914	0f 84 2a 09 00
	00		 je	 $LN18@Initialize

; 628  : 		m_ctrlXDateTime2.ShowWindow(SW_HIDE);
; 629  : 		m_ctrlEditValue2.ShowWindow(SW_HIDE);
; 630  : 		GetDlgItem(IDC_STATIC_XDATE2)->ShowWindow(SW_HIDE);
; 631  : 		GetDlgItem(IDC_STATIC_YVALUE2)->ShowWindow(SW_HIDE);
; 632  : 	}
; 633  : 	else if((CToolEnumData::ElementType)m_nElementType == CToolEnumData::Line		||	//

  0091a	83 f8 05	 cmp	 eax, 5
  0091d	0f 84 a5 07 00
	00		 je	 $LN23@Initialize
  00923	83 f8 21	 cmp	 eax, 33			; 00000021H
  00926	0f 84 9c 07 00
	00		 je	 $LN23@Initialize

; 671  : 	// (2008/8/15 - Seung-Won, Bae) Add option for using price range.
; 672  : 	else if((CToolEnumData::ElementType)m_nElementType == CToolEnumData::Trisection	||

  0092c	83 f8 06	 cmp	 eax, 6
  0092f	0f 84 13 06 00
	00		 je	 $LN28@Initialize
  00935	83 f8 07	 cmp	 eax, 7
  00938	0f 84 0a 06 00
	00		 je	 $LN28@Initialize

; 708  : 	else if((CToolEnumData::ElementType)m_nElementType == CToolEnumData::Fibo_Retrace	||
; 709  : 			(CToolEnumData::ElementType)m_nElementType == CToolEnumData::Fibo_Semicircle ||
; 710  : 			(CToolEnumData::ElementType)m_nElementType == CToolEnumData::Fibo_Circle	||
; 711  : 			(CToolEnumData::ElementType)m_nElementType == CToolEnumData::Fibo_Fan_Line	||
; 712  : 			(CToolEnumData::ElementType)m_nElementType == CToolEnumData::Gann_Fan1	||
; 713  : 			(CToolEnumData::ElementType)m_nElementType == CToolEnumData::Gann_Fan2	||
; 714  : 			(CToolEnumData::ElementType)m_nElementType == CToolEnumData::Gann_Fan3	||

  0093e	83 f8 0b	 cmp	 eax, 11			; 0000000bH
  00941	0f 84 ad 04 00
	00		 je	 $LN32@Initialize
  00947	83 f8 08	 cmp	 eax, 8
  0094a	0f 84 a4 04 00
	00		 je	 $LN32@Initialize
  00950	83 f8 09	 cmp	 eax, 9
  00953	0f 84 9b 04 00
	00		 je	 $LN32@Initialize
  00959	83 f8 0a	 cmp	 eax, 10			; 0000000aH
  0095c	0f 84 92 04 00
	00		 je	 $LN32@Initialize
  00962	83 f8 0f	 cmp	 eax, 15			; 0000000fH
  00965	0f 84 89 04 00
	00		 je	 $LN32@Initialize
  0096b	83 f8 10	 cmp	 eax, 16			; 00000010H
  0096e	0f 84 80 04 00
	00		 je	 $LN32@Initialize
  00974	83 f8 11	 cmp	 eax, 17			; 00000011H
  00977	0f 84 77 04 00
	00		 je	 $LN32@Initialize
  0097d	83 f8 12	 cmp	 eax, 18			; 00000012H
  00980	0f 84 6e 04 00
	00		 je	 $LN32@Initialize

; 743  : 	else if((CToolEnumData::ElementType)m_nElementType == CToolEnumData::Angle_Line)

  00986	83 f8 1d	 cmp	 eax, 29			; 0000001dH
  00989	0f 85 2c 01 00
	00		 jne	 $LN34@Initialize

; 744  : 	{
; 745  : 		m_nTextPosType = G_TEXT_POS_ONE;

  0098f	c7 83 04 0d 00
	00 00 00 00 00	 mov	 DWORD PTR [ebx+3332], 0

; 746  : 		
; 747  : 		ML_SET_LANGUAGE_RES();

  00999	e8 00 00 00 00	 call	 ?AfxGetStaticModuleState@@YGPAVAFX_MODULE_STATE@@XZ ; AfxGetStaticModuleState
  0099e	b9 00 00 00 00	 mov	 ecx, OFFSET ?g_iMetaTable@@3VIMetaTable@@A ; g_iMetaTable
  009a3	8b 40 08	 mov	 eax, DWORD PTR [eax+8]
  009a6	50		 push	 eax
  009a7	ff b3 90 0d 00
	00		 push	 DWORD PTR [ebx+3472]
  009ad	e8 00 00 00 00	 call	 ?LoadResourceDLL@IMetaTable@@QAEPAUHINSTANCE__@@PAUHWND__@@PAU2@@Z ; IMetaTable::LoadResourceDLL
  009b2	8b f8		 mov	 edi, eax
; File C:\Program Files (x86)\Microsoft Visual Studio\2019\Community\VC\Tools\MSVC\14.29.30133\atlmfc\include\afxwin1.inl

; 25   : 		return afxCurrentResourceHandle; }

  009b4	e8 00 00 00 00	 call	 ?AfxGetModuleState@@YGPAVAFX_MODULE_STATE@@XZ ; AfxGetModuleState
; File D:\git\src\IBK\IBK_DRFN\ProjSrc\SrcChartEx\ChartAddIn\ChartAnalysisToolAddIn\Include_Chart\Dll_Load\IMetaTable.h

; 1034 : 		m_hInstance = AfxGetResourceHandle();

  009b9	8b 70 0c	 mov	 esi, DWORD PTR [eax+12]
  009bc	89 75 c8	 mov	 DWORD PTR ___mlrs__$12[ebp], esi
; File C:\Program Files (x86)\Microsoft Visual Studio\2019\Community\VC\Tools\MSVC\14.29.30133\atlmfc\include\afxwin1.inl

; 27   : 	{ ASSERT(hInstResource != NULL); afxCurrentResourceHandle = hInstResource; }

  009bf	e8 00 00 00 00	 call	 ?AfxGetModuleState@@YGPAVAFX_MODULE_STATE@@XZ ; AfxGetModuleState
  009c4	89 78 0c	 mov	 DWORD PTR [eax+12], edi
; File D:\git\src\IBK\IBK_DRFN\ProjSrc\SrcChartEx\ChartAddIn\ChartAnalysisToolAddIn\AnalysisTool\DlgAnalysisToolSet.cpp

; 749  : 		CString strTitle;

  009c7	8d 4d cc	 lea	 ecx, DWORD PTR _strTitle$18[ebp]
  009ca	c7 45 fc 0d 00
	00 00		 mov	 DWORD PTR __$EHRec$[ebp+8], 13 ; 0000000dH
  009d1	ff 15 00 00 00
	00		 call	 DWORD PTR __imp_??0?$CStringT@DV?$StrTraitMFC_DLL@DV?$ChTraitsCRT@D@ATL@@@@@ATL@@QAE@XZ

; 750  : 		strTitle.LoadString(IDS_ANGLE);

  009d7	6a 05		 push	 5
  009d9	8d 4d cc	 lea	 ecx, DWORD PTR _strTitle$18[ebp]
  009dc	c6 45 fc 0e	 mov	 BYTE PTR __$EHRec$[ebp+8], 14 ; 0000000eH
  009e0	ff 15 00 00 00
	00		 call	 DWORD PTR __imp_?LoadStringA@?$CStringT@DV?$StrTraitMFC_DLL@DV?$ChTraitsCRT@D@ATL@@@@@ATL@@QAEHI@Z

; 751  : 		SetDlgItemText(IDC_CHECK_TEXT_LEFT,strTitle);

  009e6	ff 75 cc	 push	 DWORD PTR _strTitle$18[ebp]
  009e9	8b cb		 mov	 ecx, ebx
  009eb	68 a0 0f 00 00	 push	 4000			; 00000fa0H
  009f0	e8 00 00 00 00	 call	 ?SetDlgItemTextA@CWnd@@QAEXHPBD@Z ; CWnd::SetDlgItemTextA

; 752  : 		strTitle.LoadString(IDS_EXTENSIONLINE);

  009f5	6a 06		 push	 6
  009f7	8d 4d cc	 lea	 ecx, DWORD PTR _strTitle$18[ebp]
  009fa	ff 15 00 00 00
	00		 call	 DWORD PTR __imp_?LoadStringA@?$CStringT@DV?$StrTraitMFC_DLL@DV?$ChTraitsCRT@D@ATL@@@@@ATL@@QAEHI@Z

; 753  : 		SetDlgItemText(IDC_CHECK_EXT_LEFT,strTitle);		

  00a00	ff 75 cc	 push	 DWORD PTR _strTitle$18[ebp]
  00a03	8b cb		 mov	 ecx, ebx
  00a05	68 a2 0f 00 00	 push	 4002			; 00000fa2H
  00a0a	e8 00 00 00 00	 call	 ?SetDlgItemTextA@CWnd@@QAEXHPBD@Z ; CWnd::SetDlgItemTextA

; 754  : 
; 755  : 		m_ctrlRightText.ShowWindow(SW_HIDE);		

  00a0f	6a 00		 push	 0
  00a11	8d 8b 50 03 00
	00		 lea	 ecx, DWORD PTR [ebx+848]
  00a17	e8 00 00 00 00	 call	 ?ShowWindow@CWnd@@QAEHH@Z ; CWnd::ShowWindow

; 756  : 		m_ctrlLeftText.SetCheck(m_pTextPosition->IsShow());

  00a1c	8b 8b 2c 0d 00
	00		 mov	 ecx, DWORD PTR [ebx+3372]
  00a22	e8 00 00 00 00	 call	 ?IsShow@CTextShowPosition@@QBE_NXZ ; CTextShowPosition::IsShow
; File C:\Program Files (x86)\Microsoft Visual Studio\2019\Community\VC\Tools\MSVC\14.29.30133\atlmfc\include\afxwin2.inl

; 630  : 	{ ASSERT(::IsWindow(m_hWnd)); ::SendMessage(m_hWnd, BM_SETCHECK, nCheck, 0); }

  00a27	8b 3d 00 00 00
	00		 mov	 edi, DWORD PTR __imp__SendMessageA@16
  00a2d	6a 00		 push	 0
; File D:\git\src\IBK\IBK_DRFN\ProjSrc\SrcChartEx\ChartAddIn\ChartAnalysisToolAddIn\AnalysisTool\DlgAnalysisToolSet.cpp

; 756  : 		m_ctrlLeftText.SetCheck(m_pTextPosition->IsShow());

  00a2f	0f b6 c0	 movzx	 eax, al
; File C:\Program Files (x86)\Microsoft Visual Studio\2019\Community\VC\Tools\MSVC\14.29.30133\atlmfc\include\afxwin2.inl

; 630  : 	{ ASSERT(::IsWindow(m_hWnd)); ::SendMessage(m_hWnd, BM_SETCHECK, nCheck, 0); }

  00a32	50		 push	 eax
  00a33	68 f1 00 00 00	 push	 241			; 000000f1H
  00a38	ff b3 f0 02 00
	00		 push	 DWORD PTR [ebx+752]
  00a3e	ff d7		 call	 edi
; File D:\git\src\IBK\IBK_DRFN\ProjSrc\SrcChartEx\ChartAddIn\ChartAnalysisToolAddIn\AnalysisTool\DlgAnalysisToolSet.cpp

; 758  : 		m_stAnalysisTool.nLeftText = m_pTextPosition->IsShow();

  00a40	8b 8b 2c 0d 00
	00		 mov	 ecx, DWORD PTR [ebx+3372]
  00a46	e8 00 00 00 00	 call	 ?IsShow@CTextShowPosition@@QBE_NXZ ; CTextShowPosition::IsShow
  00a4b	0f b6 c0	 movzx	 eax, al

; 759  : 		
; 760  : 		m_nLineExtType = G_LINE_EXT_RIGHT;
; 761  : 		m_ctrlLeftExt.ShowWindow(SW_SHOW);

  00a4e	8d 8b 50 05 00
	00		 lea	 ecx, DWORD PTR [ebx+1360]
  00a54	6a 05		 push	 5
  00a56	89 83 a0 0c 00
	00		 mov	 DWORD PTR [ebx+3232], eax
  00a5c	c7 83 08 0d 00
	00 01 00 00 00	 mov	 DWORD PTR [ebx+3336], 1
  00a66	e8 00 00 00 00	 call	 ?ShowWindow@CWnd@@QAEHH@Z ; CWnd::ShowWindow

; 762  : 		m_ctrlLeftExt.SetCheck(m_pLineExtEnvironment->GetLeftExt());

  00a6b	8b 8b 6c 0d 00
	00		 mov	 ecx, DWORD PTR [ebx+3436]
  00a71	e8 00 00 00 00	 call	 ?GetLeftExt@CLineExtEnvironment@@QBEHXZ ; CLineExtEnvironment::GetLeftExt
; File C:\Program Files (x86)\Microsoft Visual Studio\2019\Community\VC\Tools\MSVC\14.29.30133\atlmfc\include\afxwin2.inl

; 630  : 	{ ASSERT(::IsWindow(m_hWnd)); ::SendMessage(m_hWnd, BM_SETCHECK, nCheck, 0); }

  00a76	6a 00		 push	 0
  00a78	50		 push	 eax
  00a79	68 f1 00 00 00	 push	 241			; 000000f1H
  00a7e	ff b3 70 05 00
	00		 push	 DWORD PTR [ebx+1392]
  00a84	ff d7		 call	 edi
; File D:\git\src\IBK\IBK_DRFN\ProjSrc\SrcChartEx\ChartAddIn\ChartAnalysisToolAddIn\AnalysisTool\DlgAnalysisToolSet.cpp

; 764  : 		m_stAnalysisTool.nLeftExt = m_pLineExtEnvironment->GetLeftExt();

  00a86	8b 8b 6c 0d 00
	00		 mov	 ecx, DWORD PTR [ebx+3436]
  00a8c	e8 00 00 00 00	 call	 ?GetLeftExt@CLineExtEnvironment@@QBEHXZ ; CLineExtEnvironment::GetLeftExt

; 765  : 	}

  00a91	8d 4d cc	 lea	 ecx, DWORD PTR _strTitle$18[ebp]
  00a94	89 83 b4 0c 00
	00		 mov	 DWORD PTR [ebx+3252], eax
  00a9a	ff 15 00 00 00
	00		 call	 DWORD PTR __imp_??1?$CStringT@DV?$StrTraitMFC_DLL@DV?$ChTraitsCRT@D@ATL@@@@@ATL@@QAE@XZ
; File D:\git\src\IBK\IBK_DRFN\ProjSrc\SrcChartEx\ChartAddIn\ChartAnalysisToolAddIn\Include_Chart\Dll_Load\IMetaTable.h

; 1038 : 	{

  00aa0	c7 45 fc 0f 00
	00 00		 mov	 DWORD PTR __$EHRec$[ebp+8], 15 ; 0000000fH
; File C:\Program Files (x86)\Microsoft Visual Studio\2019\Community\VC\Tools\MSVC\14.29.30133\atlmfc\include\afxwin1.inl

; 27   : 	{ ASSERT(hInstResource != NULL); afxCurrentResourceHandle = hInstResource; }

  00aa7	e8 00 00 00 00	 call	 ?AfxGetModuleState@@YGPAVAFX_MODULE_STATE@@XZ ; AfxGetModuleState
; File D:\git\src\IBK\IBK_DRFN\ProjSrc\SrcChartEx\ChartAddIn\ChartAnalysisToolAddIn\Include_Chart\Dll_Load\IMetaTable.h

; 1040 : 	}

  00aac	c7 45 fc ff ff
	ff ff		 mov	 DWORD PTR __$EHRec$[ebp+8], -1
; File C:\Program Files (x86)\Microsoft Visual Studio\2019\Community\VC\Tools\MSVC\14.29.30133\atlmfc\include\afxwin1.inl

; 27   : 	{ ASSERT(hInstResource != NULL); afxCurrentResourceHandle = hInstResource; }

  00ab3	89 70 0c	 mov	 DWORD PTR [eax+12], esi
; File D:\git\src\IBK\IBK_DRFN\ProjSrc\SrcChartEx\ChartAddIn\ChartAnalysisToolAddIn\AnalysisTool\DlgAnalysisToolSet.cpp

; 765  : 	}

  00ab6	e9 aa 09 00 00	 jmp	 $LN43@Initialize
$LN34@Initialize:

; 766  : 	else if((CToolEnumData::ElementType)m_nElementType == CToolEnumData::Candle_Line)	//

  00abb	83 f8 1e	 cmp	 eax, 30			; 0000001eH
  00abe	0f 85 11 01 00
	00		 jne	 $LN36@Initialize

; 767  : 	{
; 768  : 		m_nTextPosType = G_TEXT_POS_ONE;

  00ac4	c7 83 04 0d 00
	00 00 00 00 00	 mov	 DWORD PTR [ebx+3332], 0

; 769  : 
; 770  : 		ML_SET_LANGUAGE_RES();

  00ace	e8 00 00 00 00	 call	 ?AfxGetStaticModuleState@@YGPAVAFX_MODULE_STATE@@XZ ; AfxGetStaticModuleState
  00ad3	b9 00 00 00 00	 mov	 ecx, OFFSET ?g_iMetaTable@@3VIMetaTable@@A ; g_iMetaTable
  00ad8	8b 40 08	 mov	 eax, DWORD PTR [eax+8]
  00adb	50		 push	 eax
  00adc	ff b3 90 0d 00
	00		 push	 DWORD PTR [ebx+3472]
  00ae2	e8 00 00 00 00	 call	 ?LoadResourceDLL@IMetaTable@@QAEPAUHINSTANCE__@@PAUHWND__@@PAU2@@Z ; IMetaTable::LoadResourceDLL
  00ae7	8b f8		 mov	 edi, eax
; File C:\Program Files (x86)\Microsoft Visual Studio\2019\Community\VC\Tools\MSVC\14.29.30133\atlmfc\include\afxwin1.inl

; 25   : 		return afxCurrentResourceHandle; }

  00ae9	e8 00 00 00 00	 call	 ?AfxGetModuleState@@YGPAVAFX_MODULE_STATE@@XZ ; AfxGetModuleState
; File D:\git\src\IBK\IBK_DRFN\ProjSrc\SrcChartEx\ChartAddIn\ChartAnalysisToolAddIn\Include_Chart\Dll_Load\IMetaTable.h

; 1034 : 		m_hInstance = AfxGetResourceHandle();

  00aee	8b 70 0c	 mov	 esi, DWORD PTR [eax+12]
  00af1	89 75 c8	 mov	 DWORD PTR ___mlrs__$11[ebp], esi
; File C:\Program Files (x86)\Microsoft Visual Studio\2019\Community\VC\Tools\MSVC\14.29.30133\atlmfc\include\afxwin1.inl

; 27   : 	{ ASSERT(hInstResource != NULL); afxCurrentResourceHandle = hInstResource; }

  00af4	e8 00 00 00 00	 call	 ?AfxGetModuleState@@YGPAVAFX_MODULE_STATE@@XZ ; AfxGetModuleState
  00af9	89 78 0c	 mov	 DWORD PTR [eax+12], edi
; File D:\git\src\IBK\IBK_DRFN\ProjSrc\SrcChartEx\ChartAddIn\ChartAnalysisToolAddIn\AnalysisTool\DlgAnalysisToolSet.cpp

; 772  : 		CString strTitle;

  00afc	8d 4d cc	 lea	 ecx, DWORD PTR _strTitle$17[ebp]
  00aff	c7 45 fc 10 00
	00 00		 mov	 DWORD PTR __$EHRec$[ebp+8], 16 ; 00000010H
  00b06	ff 15 00 00 00
	00		 call	 DWORD PTR __imp_??0?$CStringT@DV?$StrTraitMFC_DLL@DV?$ChTraitsCRT@D@ATL@@@@@ATL@@QAE@XZ

; 773  : 		strTitle.LoadString(IDS_SHOW);

  00b0c	6a 04		 push	 4
  00b0e	8d 4d cc	 lea	 ecx, DWORD PTR _strTitle$17[ebp]
  00b11	c6 45 fc 11	 mov	 BYTE PTR __$EHRec$[ebp+8], 17 ; 00000011H
  00b15	ff 15 00 00 00
	00		 call	 DWORD PTR __imp_?LoadStringA@?$CStringT@DV?$StrTraitMFC_DLL@DV?$ChTraitsCRT@D@ATL@@@@@ATL@@QAEHI@Z

; 774  : 		SetDlgItemText(IDC_CHECK_TEXT_LEFT,strTitle);

  00b1b	ff 75 cc	 push	 DWORD PTR _strTitle$17[ebp]
  00b1e	8b cb		 mov	 ecx, ebx
  00b20	68 a0 0f 00 00	 push	 4000			; 00000fa0H
  00b25	e8 00 00 00 00	 call	 ?SetDlgItemTextA@CWnd@@QAEXHPBD@Z ; CWnd::SetDlgItemTextA

; 775  : 		m_ctrlRightText.ShowWindow(SW_HIDE);		

  00b2a	6a 00		 push	 0
  00b2c	8d 8b 50 03 00
	00		 lea	 ecx, DWORD PTR [ebx+848]
  00b32	e8 00 00 00 00	 call	 ?ShowWindow@CWnd@@QAEHH@Z ; CWnd::ShowWindow

; 776  : 		m_ctrlLeftText.SetCheck(m_pTextPosition->IsShow());

  00b37	8b 8b 2c 0d 00
	00		 mov	 ecx, DWORD PTR [ebx+3372]
  00b3d	e8 00 00 00 00	 call	 ?IsShow@CTextShowPosition@@QBE_NXZ ; CTextShowPosition::IsShow
; File C:\Program Files (x86)\Microsoft Visual Studio\2019\Community\VC\Tools\MSVC\14.29.30133\atlmfc\include\afxwin2.inl

; 630  : 	{ ASSERT(::IsWindow(m_hWnd)); ::SendMessage(m_hWnd, BM_SETCHECK, nCheck, 0); }

  00b42	6a 00		 push	 0
; File D:\git\src\IBK\IBK_DRFN\ProjSrc\SrcChartEx\ChartAddIn\ChartAnalysisToolAddIn\AnalysisTool\DlgAnalysisToolSet.cpp

; 776  : 		m_ctrlLeftText.SetCheck(m_pTextPosition->IsShow());

  00b44	0f b6 c0	 movzx	 eax, al
; File C:\Program Files (x86)\Microsoft Visual Studio\2019\Community\VC\Tools\MSVC\14.29.30133\atlmfc\include\afxwin2.inl

; 630  : 	{ ASSERT(::IsWindow(m_hWnd)); ::SendMessage(m_hWnd, BM_SETCHECK, nCheck, 0); }

  00b47	50		 push	 eax
  00b48	68 f1 00 00 00	 push	 241			; 000000f1H
  00b4d	ff b3 f0 02 00
	00		 push	 DWORD PTR [ebx+752]
  00b53	ff 15 00 00 00
	00		 call	 DWORD PTR __imp__SendMessageA@16
; File D:\git\src\IBK\IBK_DRFN\ProjSrc\SrcChartEx\ChartAddIn\ChartAnalysisToolAddIn\AnalysisTool\DlgAnalysisToolSet.cpp

; 778  : 		m_stAnalysisTool.nLeftText = m_pTextPosition->IsShow();

  00b59	8b 8b 2c 0d 00
	00		 mov	 ecx, DWORD PTR [ebx+3372]
  00b5f	e8 00 00 00 00	 call	 ?IsShow@CTextShowPosition@@QBE_NXZ ; CTextShowPosition::IsShow
  00b64	0f b6 c0	 movzx	 eax, al

; 779  : 
; 780  : 		// 
; 781  : 		m_ctrlXDateTime2.ShowWindow(SW_HIDE);

  00b67	8d 8b 50 0b 00
	00		 lea	 ecx, DWORD PTR [ebx+2896]
  00b6d	6a 00		 push	 0
  00b6f	89 83 a0 0c 00
	00		 mov	 DWORD PTR [ebx+3232], eax
  00b75	e8 00 00 00 00	 call	 ?ShowWindow@CWnd@@QAEHH@Z ; CWnd::ShowWindow

; 782  : 		m_ctrlEditValue2.ShowWindow(SW_HIDE);

  00b7a	6a 00		 push	 0
  00b7c	8d 8b d0 09 00
	00		 lea	 ecx, DWORD PTR [ebx+2512]
  00b82	e8 00 00 00 00	 call	 ?ShowWindow@CWnd@@QAEHH@Z ; CWnd::ShowWindow

; 783  : 
; 784  : 		GetDlgItem(IDC_STATIC_XDATE2)->ShowWindow(SW_HIDE);

  00b87	6a 00		 push	 0
  00b89	68 ab 0f 00 00	 push	 4011			; 00000fabH
  00b8e	8b cb		 mov	 ecx, ebx
  00b90	e8 00 00 00 00	 call	 ?GetDlgItem@CWnd@@QBEPAV1@H@Z ; CWnd::GetDlgItem
  00b95	8b c8		 mov	 ecx, eax
  00b97	e8 00 00 00 00	 call	 ?ShowWindow@CWnd@@QAEHH@Z ; CWnd::ShowWindow

; 785  : 		GetDlgItem(IDC_STATIC_YVALUE2)->ShowWindow(SW_HIDE);

  00b9c	6a 00		 push	 0
  00b9e	68 ae 0f 00 00	 push	 4014			; 00000faeH
  00ba3	8b cb		 mov	 ecx, ebx
  00ba5	e8 00 00 00 00	 call	 ?GetDlgItem@CWnd@@QBEPAV1@H@Z ; CWnd::GetDlgItem
  00baa	8b c8		 mov	 ecx, eax
  00bac	e8 00 00 00 00	 call	 ?ShowWindow@CWnd@@QAEHH@Z ; CWnd::ShowWindow

; 786  : 	} 

  00bb1	8d 4d cc	 lea	 ecx, DWORD PTR _strTitle$17[ebp]
  00bb4	ff 15 00 00 00
	00		 call	 DWORD PTR __imp_??1?$CStringT@DV?$StrTraitMFC_DLL@DV?$ChTraitsCRT@D@ATL@@@@@ATL@@QAE@XZ
; File D:\git\src\IBK\IBK_DRFN\ProjSrc\SrcChartEx\ChartAddIn\ChartAnalysisToolAddIn\Include_Chart\Dll_Load\IMetaTable.h

; 1038 : 	{

  00bba	c7 45 fc 12 00
	00 00		 mov	 DWORD PTR __$EHRec$[ebp+8], 18 ; 00000012H
; File C:\Program Files (x86)\Microsoft Visual Studio\2019\Community\VC\Tools\MSVC\14.29.30133\atlmfc\include\afxwin1.inl

; 27   : 	{ ASSERT(hInstResource != NULL); afxCurrentResourceHandle = hInstResource; }

  00bc1	e8 00 00 00 00	 call	 ?AfxGetModuleState@@YGPAVAFX_MODULE_STATE@@XZ ; AfxGetModuleState
; File D:\git\src\IBK\IBK_DRFN\ProjSrc\SrcChartEx\ChartAddIn\ChartAnalysisToolAddIn\Include_Chart\Dll_Load\IMetaTable.h

; 1040 : 	}

  00bc6	c7 45 fc ff ff
	ff ff		 mov	 DWORD PTR __$EHRec$[ebp+8], -1
; File C:\Program Files (x86)\Microsoft Visual Studio\2019\Community\VC\Tools\MSVC\14.29.30133\atlmfc\include\afxwin1.inl

; 27   : 	{ ASSERT(hInstResource != NULL); afxCurrentResourceHandle = hInstResource; }

  00bcd	89 70 0c	 mov	 DWORD PTR [eax+12], esi
; File D:\git\src\IBK\IBK_DRFN\ProjSrc\SrcChartEx\ChartAddIn\ChartAnalysisToolAddIn\AnalysisTool\DlgAnalysisToolSet.cpp

; 786  : 	} 

  00bd0	e9 90 08 00 00	 jmp	 $LN43@Initialize
$LN36@Initialize:

; 787  : 	else if((CToolEnumData::ElementType)m_nElementType == CToolEnumData::Linear_Regression  ||

  00bd5	83 f8 1b	 cmp	 eax, 27			; 0000001bH
  00bd8	0f 84 60 01 00
	00		 je	 $LN40@Initialize
  00bde	83 f8 1c	 cmp	 eax, 28			; 0000001cH
  00be1	0f 84 57 01 00
	00		 je	 $LN40@Initialize

; 806  : 	else if((CToolEnumData::ElementType)m_nElementType == CToolEnumData::AndrewsPitchfork)

  00be7	83 f8 14	 cmp	 eax, 20			; 00000014H
  00bea	0f 85 f3 00 00
	00		 jne	 $LN41@Initialize

; 807  : 	{
; 808  : 		ML_SET_LANGUAGE_RES();

  00bf0	e8 00 00 00 00	 call	 ?AfxGetStaticModuleState@@YGPAVAFX_MODULE_STATE@@XZ ; AfxGetStaticModuleState
  00bf5	b9 00 00 00 00	 mov	 ecx, OFFSET ?g_iMetaTable@@3VIMetaTable@@A ; g_iMetaTable
  00bfa	8b 40 08	 mov	 eax, DWORD PTR [eax+8]
  00bfd	50		 push	 eax
  00bfe	ff b3 90 0d 00
	00		 push	 DWORD PTR [ebx+3472]
  00c04	e8 00 00 00 00	 call	 ?LoadResourceDLL@IMetaTable@@QAEPAUHINSTANCE__@@PAUHWND__@@PAU2@@Z ; IMetaTable::LoadResourceDLL
  00c09	8b f8		 mov	 edi, eax
; File C:\Program Files (x86)\Microsoft Visual Studio\2019\Community\VC\Tools\MSVC\14.29.30133\atlmfc\include\afxwin1.inl

; 25   : 		return afxCurrentResourceHandle; }

  00c0b	e8 00 00 00 00	 call	 ?AfxGetModuleState@@YGPAVAFX_MODULE_STATE@@XZ ; AfxGetModuleState
; File D:\git\src\IBK\IBK_DRFN\ProjSrc\SrcChartEx\ChartAddIn\ChartAnalysisToolAddIn\Include_Chart\Dll_Load\IMetaTable.h

; 1034 : 		m_hInstance = AfxGetResourceHandle();

  00c10	8b 70 0c	 mov	 esi, DWORD PTR [eax+12]
  00c13	89 75 c8	 mov	 DWORD PTR ___mlrs__$10[ebp], esi
; File C:\Program Files (x86)\Microsoft Visual Studio\2019\Community\VC\Tools\MSVC\14.29.30133\atlmfc\include\afxwin1.inl

; 27   : 	{ ASSERT(hInstResource != NULL); afxCurrentResourceHandle = hInstResource; }

  00c16	e8 00 00 00 00	 call	 ?AfxGetModuleState@@YGPAVAFX_MODULE_STATE@@XZ ; AfxGetModuleState
  00c1b	89 78 0c	 mov	 DWORD PTR [eax+12], edi
; File D:\git\src\IBK\IBK_DRFN\ProjSrc\SrcChartEx\ChartAddIn\ChartAnalysisToolAddIn\AnalysisTool\DlgAnalysisToolSet.cpp

; 810  : 		CString strTitle;

  00c1e	8d 4d cc	 lea	 ecx, DWORD PTR _strTitle$16[ebp]
  00c21	c7 45 fc 13 00
	00 00		 mov	 DWORD PTR __$EHRec$[ebp+8], 19 ; 00000013H
  00c28	ff 15 00 00 00
	00		 call	 DWORD PTR __imp_??0?$CStringT@DV?$StrTraitMFC_DLL@DV?$ChTraitsCRT@D@ATL@@@@@ATL@@QAE@XZ

; 811  : 		strTitle.LoadString(IDS_MIDDATE);

  00c2e	6a 07		 push	 7
  00c30	8d 4d cc	 lea	 ecx, DWORD PTR _strTitle$16[ebp]
  00c33	c6 45 fc 14	 mov	 BYTE PTR __$EHRec$[ebp+8], 20 ; 00000014H
  00c37	ff 15 00 00 00
	00		 call	 DWORD PTR __imp_?LoadStringA@?$CStringT@DV?$StrTraitMFC_DLL@DV?$ChTraitsCRT@D@ATL@@@@@ATL@@QAEHI@Z

; 812  : 		SetDlgItemText(IDC_STATIC_XDATE2,strTitle);

  00c3d	ff 75 cc	 push	 DWORD PTR _strTitle$16[ebp]
  00c40	8b cb		 mov	 ecx, ebx
  00c42	68 ab 0f 00 00	 push	 4011			; 00000fabH
  00c47	e8 00 00 00 00	 call	 ?SetDlgItemTextA@CWnd@@QAEXHPBD@Z ; CWnd::SetDlgItemTextA

; 813  : 
; 814  : 		GetDlgItem(IDC_STATIC_XDATE3)->ShowWindow(SW_SHOW);

  00c4c	6a 05		 push	 5
  00c4e	68 ac 0f 00 00	 push	 4012			; 00000facH
  00c53	8b cb		 mov	 ecx, ebx
  00c55	e8 00 00 00 00	 call	 ?GetDlgItem@CWnd@@QBEPAV1@H@Z ; CWnd::GetDlgItem
  00c5a	8b c8		 mov	 ecx, eax
  00c5c	e8 00 00 00 00	 call	 ?ShowWindow@CWnd@@QAEHH@Z ; CWnd::ShowWindow

; 815  : 		GetDlgItem(IDC_STATIC_YVALUE3)->ShowWindow(SW_SHOW);

  00c61	6a 05		 push	 5
  00c63	68 ad 0f 00 00	 push	 4013			; 00000fadH
  00c68	8b cb		 mov	 ecx, ebx
  00c6a	e8 00 00 00 00	 call	 ?GetDlgItem@CWnd@@QBEPAV1@H@Z ; CWnd::GetDlgItem
  00c6f	8b c8		 mov	 ecx, eax
  00c71	e8 00 00 00 00	 call	 ?ShowWindow@CWnd@@QAEHH@Z ; CWnd::ShowWindow

; 816  : 		m_ctrlXDateTime3.ShowWindow(SW_SHOW);

  00c76	6a 05		 push	 5
  00c78	8d 8b d0 0b 00
	00		 lea	 ecx, DWORD PTR [ebx+3024]
  00c7e	e8 00 00 00 00	 call	 ?ShowWindow@CWnd@@QAEHH@Z ; CWnd::ShowWindow

; 817  : 		m_ctrlEditValue3.ShowWindow(SW_SHOW);

  00c83	6a 05		 push	 5
  00c85	8d 8b 50 0a 00
	00		 lea	 ecx, DWORD PTR [ebx+2640]
  00c8b	e8 00 00 00 00	 call	 ?ShowWindow@CWnd@@QAEHH@Z ; CWnd::ShowWindow

; 818  : 
; 819  : 		GetDlgItem(IDC_TEXT_STATIC)->ShowWindow(SW_HIDE);

  00c90	6a 00		 push	 0
  00c92	68 18 27 00 00	 push	 10008			; 00002718H
  00c97	8b cb		 mov	 ecx, ebx
  00c99	e8 00 00 00 00	 call	 ?GetDlgItem@CWnd@@QBEPAV1@H@Z ; CWnd::GetDlgItem
  00c9e	8b c8		 mov	 ecx, eax
  00ca0	e8 00 00 00 00	 call	 ?ShowWindow@CWnd@@QAEHH@Z ; CWnd::ShowWindow

; 820  : 		m_ctrlLeftText.ShowWindow(SW_HIDE);

  00ca5	6a 00		 push	 0
  00ca7	8d 8b d0 02 00
	00		 lea	 ecx, DWORD PTR [ebx+720]
  00cad	e8 00 00 00 00	 call	 ?ShowWindow@CWnd@@QAEHH@Z ; CWnd::ShowWindow

; 821  : 		m_ctrlRightText.ShowWindow(SW_HIDE);

  00cb2	6a 00		 push	 0
  00cb4	8d 8b 50 03 00
	00		 lea	 ecx, DWORD PTR [ebx+848]
  00cba	e8 00 00 00 00	 call	 ?ShowWindow@CWnd@@QAEHH@Z ; CWnd::ShowWindow

; 822  : 	}

  00cbf	8d 4d cc	 lea	 ecx, DWORD PTR _strTitle$16[ebp]
  00cc2	ff 15 00 00 00
	00		 call	 DWORD PTR __imp_??1?$CStringT@DV?$StrTraitMFC_DLL@DV?$ChTraitsCRT@D@ATL@@@@@ATL@@QAE@XZ
; File D:\git\src\IBK\IBK_DRFN\ProjSrc\SrcChartEx\ChartAddIn\ChartAnalysisToolAddIn\Include_Chart\Dll_Load\IMetaTable.h

; 1038 : 	{

  00cc8	c7 45 fc 15 00
	00 00		 mov	 DWORD PTR __$EHRec$[ebp+8], 21 ; 00000015H
; File C:\Program Files (x86)\Microsoft Visual Studio\2019\Community\VC\Tools\MSVC\14.29.30133\atlmfc\include\afxwin1.inl

; 27   : 	{ ASSERT(hInstResource != NULL); afxCurrentResourceHandle = hInstResource; }

  00ccf	e8 00 00 00 00	 call	 ?AfxGetModuleState@@YGPAVAFX_MODULE_STATE@@XZ ; AfxGetModuleState
; File D:\git\src\IBK\IBK_DRFN\ProjSrc\SrcChartEx\ChartAddIn\ChartAnalysisToolAddIn\Include_Chart\Dll_Load\IMetaTable.h

; 1040 : 	}

  00cd4	c7 45 fc ff ff
	ff ff		 mov	 DWORD PTR __$EHRec$[ebp+8], -1
; File C:\Program Files (x86)\Microsoft Visual Studio\2019\Community\VC\Tools\MSVC\14.29.30133\atlmfc\include\afxwin1.inl

; 27   : 	{ ASSERT(hInstResource != NULL); afxCurrentResourceHandle = hInstResource; }

  00cdb	89 70 0c	 mov	 DWORD PTR [eax+12], esi
; File D:\git\src\IBK\IBK_DRFN\ProjSrc\SrcChartEx\ChartAddIn\ChartAnalysisToolAddIn\AnalysisTool\DlgAnalysisToolSet.cpp

; 822  : 	}

  00cde	e9 82 07 00 00	 jmp	 $LN43@Initialize
$LN41@Initialize:

; 823  : 	else if(//(CToolEnumData::ElementType)m_nElementType == CToolEnumData::Fibo_Semicircle ||
; 824  : 			//(CToolEnumData::ElementType)m_nElementType == CToolEnumData::Fibo_Circle	 ||
; 825  : 			//(CToolEnumData::ElementType)m_nElementType == CToolEnumData::Fibo_Fan_Line	 ||
; 826  : 			(CToolEnumData::ElementType)m_nElementType == CToolEnumData::Gann_Line1		 ||
; 827  : 			(CToolEnumData::ElementType)m_nElementType == CToolEnumData::Gann_Line2		 ||
; 828  : 			(CToolEnumData::ElementType)m_nElementType == CToolEnumData::Gann_Fan1		 ||
; 829  : 			(CToolEnumData::ElementType)m_nElementType == CToolEnumData::Gann_Fan2		 ||
; 830  : 			(CToolEnumData::ElementType)m_nElementType == CToolEnumData::Gann_Fan3		 ||
; 831  : 			(CToolEnumData::ElementType)m_nElementType == CToolEnumData::Gann_Fan4		 ||
; 832  : 			(CToolEnumData::ElementType)m_nElementType == CToolEnumData::Gann_Grid		 ||
; 833  : 			(CToolEnumData::ElementType)m_nElementType == CToolEnumData::Speed_Line		 ||
; 834  : 			(CToolEnumData::ElementType)m_nElementType == CToolEnumData::Speed_Fan		 ||
; 835  : 			(CToolEnumData::ElementType)m_nElementType == CToolEnumData::Speed_Arc		 ||
; 836  : 			(CToolEnumData::ElementType)m_nElementType == CToolEnumData::Cycle_Line		 ||

  00ce3	83 f8 0d	 cmp	 eax, 13			; 0000000dH
  00ce6	74 27		 je	 SHORT $LN44@Initialize
  00ce8	83 f8 0e	 cmp	 eax, 14			; 0000000eH
  00ceb	74 22		 je	 SHORT $LN44@Initialize
  00ced	83 f8 13	 cmp	 eax, 19			; 00000013H
  00cf0	74 1d		 je	 SHORT $LN44@Initialize
  00cf2	83 f8 18	 cmp	 eax, 24			; 00000018H
  00cf5	74 18		 je	 SHORT $LN44@Initialize
  00cf7	83 f8 19	 cmp	 eax, 25			; 00000019H
  00cfa	74 13		 je	 SHORT $LN44@Initialize
  00cfc	83 f8 1a	 cmp	 eax, 26			; 0000001aH
  00cff	74 0e		 je	 SHORT $LN44@Initialize
  00d01	83 f8 16	 cmp	 eax, 22			; 00000016H
  00d04	74 09		 je	 SHORT $LN44@Initialize
  00d06	83 f8 15	 cmp	 eax, 21			; 00000015H
  00d09	0f 85 56 07 00
	00		 jne	 $LN43@Initialize
$LN44@Initialize:

; 837  : 			(CToolEnumData::ElementType)m_nElementType == CToolEnumData::ElliotWave_Line)
; 838  : 	{
; 839  : 		if((CToolEnumData::ElementType)m_nElementType == CToolEnumData::Gann_Fan1		 ||
; 840  : 			(CToolEnumData::ElementType)m_nElementType == CToolEnumData::Gann_Fan2		 ||
; 841  : 			(CToolEnumData::ElementType)m_nElementType == CToolEnumData::Gann_Fan3		 ||
; 842  : 			(CToolEnumData::ElementType)m_nElementType == CToolEnumData::Gann_Fan4)
; 843  : 		{
; 844  : 			m_ctrlXDateTime2.ShowWindow(SW_HIDE);
; 845  : 			m_ctrlEditValue2.ShowWindow(SW_HIDE);
; 846  : 			GetDlgItem(IDC_STATIC_XDATE2)->ShowWindow(SW_HIDE);
; 847  : 			GetDlgItem(IDC_STATIC_YVALUE2)->ShowWindow(SW_HIDE);
; 848  : 		}
; 849  : 		
; 850  : 		GetDlgItem(IDC_TEXT_STATIC)->ShowWindow(SW_HIDE);

  00d0f	6a 00		 push	 0
  00d11	68 18 27 00 00	 push	 10008			; 00002718H
  00d16	8b cb		 mov	 ecx, ebx
  00d18	e8 00 00 00 00	 call	 ?GetDlgItem@CWnd@@QBEPAV1@H@Z ; CWnd::GetDlgItem
  00d1d	8b c8		 mov	 ecx, eax
  00d1f	e8 00 00 00 00	 call	 ?ShowWindow@CWnd@@QAEHH@Z ; CWnd::ShowWindow

; 851  : 		m_ctrlLeftText.ShowWindow(SW_HIDE);

  00d24	6a 00		 push	 0
  00d26	8d 8b d0 02 00
	00		 lea	 ecx, DWORD PTR [ebx+720]
  00d2c	e8 00 00 00 00	 call	 ?ShowWindow@CWnd@@QAEHH@Z ; CWnd::ShowWindow

; 852  : 		m_ctrlRightText.ShowWindow(SW_HIDE);

  00d31	6a 00		 push	 0
  00d33	8d 8b 50 03 00
	00		 lea	 ecx, DWORD PTR [ebx+848]
  00d39	e9 22 07 00 00	 jmp	 $LN386@Initialize
$LN40@Initialize:

; 788  : 			(CToolEnumData::ElementType)m_nElementType == CToolEnumData::Raff_Regression)//	||
; 789  : 			//(CToolEnumData::ElementType)m_nElementType == CToolEnumData::Standard_Deviation	||
; 790  : 			//(CToolEnumData::ElementType)m_nElementType == CToolEnumData::Standard_Error
; 791  : 	{
; 792  : 		GetDlgItem(IDC_TEXT_STATIC)->ShowWindow(SW_HIDE);

  00d3e	6a 00		 push	 0
  00d40	68 18 27 00 00	 push	 10008			; 00002718H
  00d45	8b cb		 mov	 ecx, ebx
  00d47	e8 00 00 00 00	 call	 ?GetDlgItem@CWnd@@QBEPAV1@H@Z ; CWnd::GetDlgItem
  00d4c	8b c8		 mov	 ecx, eax
  00d4e	e8 00 00 00 00	 call	 ?ShowWindow@CWnd@@QAEHH@Z ; CWnd::ShowWindow

; 793  : 		m_ctrlLeftText.ShowWindow(SW_HIDE);

  00d53	6a 00		 push	 0
  00d55	8d 8b d0 02 00
	00		 lea	 ecx, DWORD PTR [ebx+720]
  00d5b	e8 00 00 00 00	 call	 ?ShowWindow@CWnd@@QAEHH@Z ; CWnd::ShowWindow

; 794  : 		m_ctrlRightText.ShowWindow(SW_HIDE);

  00d60	6a 00		 push	 0
  00d62	8d 8b 50 03 00
	00		 lea	 ecx, DWORD PTR [ebx+848]
  00d68	e8 00 00 00 00	 call	 ?ShowWindow@CWnd@@QAEHH@Z ; CWnd::ShowWindow

; 795  : 
; 796  : 		m_nLineExtType = G_LINE_EXT_BOTH;
; 797  : 		m_ctrlLeftExt.ShowWindow(SW_SHOW);

  00d6d	6a 05		 push	 5
  00d6f	8d 8b 50 05 00
	00		 lea	 ecx, DWORD PTR [ebx+1360]
  00d75	c7 83 08 0d 00
	00 02 00 00 00	 mov	 DWORD PTR [ebx+3336], 2
  00d7f	e8 00 00 00 00	 call	 ?ShowWindow@CWnd@@QAEHH@Z ; CWnd::ShowWindow

; 798  : 		m_ctrlRightExt.ShowWindow(SW_SHOW);

  00d84	6a 05		 push	 5
  00d86	8d 8b d0 05 00
	00		 lea	 ecx, DWORD PTR [ebx+1488]
  00d8c	e8 00 00 00 00	 call	 ?ShowWindow@CWnd@@QAEHH@Z ; CWnd::ShowWindow

; 799  : 
; 800  : 		m_ctrlLeftExt.SetCheck(m_pLineExtEnvironment->GetLeftExt());

  00d91	8b 8b 6c 0d 00
	00		 mov	 ecx, DWORD PTR [ebx+3436]
  00d97	e8 00 00 00 00	 call	 ?GetLeftExt@CLineExtEnvironment@@QBEHXZ ; CLineExtEnvironment::GetLeftExt
; File C:\Program Files (x86)\Microsoft Visual Studio\2019\Community\VC\Tools\MSVC\14.29.30133\atlmfc\include\afxwin2.inl

; 630  : 	{ ASSERT(::IsWindow(m_hWnd)); ::SendMessage(m_hWnd, BM_SETCHECK, nCheck, 0); }

  00d9c	8b 35 00 00 00
	00		 mov	 esi, DWORD PTR __imp__SendMessageA@16
  00da2	6a 00		 push	 0
  00da4	50		 push	 eax
  00da5	68 f1 00 00 00	 push	 241			; 000000f1H
  00daa	ff b3 70 05 00
	00		 push	 DWORD PTR [ebx+1392]
  00db0	ff d6		 call	 esi
; File D:\git\src\IBK\IBK_DRFN\ProjSrc\SrcChartEx\ChartAddIn\ChartAnalysisToolAddIn\AnalysisTool\DlgAnalysisToolSet.cpp

; 801  : 		m_ctrlRightExt.SetCheck(m_pLineExtEnvironment->GetRightExt());

  00db2	8b 8b 6c 0d 00
	00		 mov	 ecx, DWORD PTR [ebx+3436]
  00db8	e8 00 00 00 00	 call	 ?GetRightExt@CLineExtEnvironment@@QBEHXZ ; CLineExtEnvironment::GetRightExt
; File C:\Program Files (x86)\Microsoft Visual Studio\2019\Community\VC\Tools\MSVC\14.29.30133\atlmfc\include\afxwin2.inl

; 630  : 	{ ASSERT(::IsWindow(m_hWnd)); ::SendMessage(m_hWnd, BM_SETCHECK, nCheck, 0); }

  00dbd	6a 00		 push	 0
  00dbf	50		 push	 eax
  00dc0	68 f1 00 00 00	 push	 241			; 000000f1H
  00dc5	ff b3 f0 05 00
	00		 push	 DWORD PTR [ebx+1520]
  00dcb	ff d6		 call	 esi
; File D:\git\src\IBK\IBK_DRFN\ProjSrc\SrcChartEx\ChartAddIn\ChartAnalysisToolAddIn\AnalysisTool\DlgAnalysisToolSet.cpp

; 803  : 		m_stAnalysisTool.nLeftExt = m_pLineExtEnvironment->GetLeftExt();

  00dcd	8b 8b 6c 0d 00
	00		 mov	 ecx, DWORD PTR [ebx+3436]
  00dd3	e8 00 00 00 00	 call	 ?GetLeftExt@CLineExtEnvironment@@QBEHXZ ; CLineExtEnvironment::GetLeftExt

; 804  : 		m_stAnalysisTool.nRightExt = m_pLineExtEnvironment->GetRightExt();

  00dd8	8b 8b 6c 0d 00
	00		 mov	 ecx, DWORD PTR [ebx+3436]
  00dde	89 83 b4 0c 00
	00		 mov	 DWORD PTR [ebx+3252], eax
  00de4	e8 00 00 00 00	 call	 ?GetRightExt@CLineExtEnvironment@@QBEHXZ ; CLineExtEnvironment::GetRightExt
  00de9	89 83 b8 0c 00
	00		 mov	 DWORD PTR [ebx+3256], eax

; 805  : 	} 

  00def	e9 71 06 00 00	 jmp	 $LN43@Initialize
$LN32@Initialize:

; 715  : 			(CToolEnumData::ElementType)m_nElementType == CToolEnumData::Gann_Fan4)
; 716  : 	{
; 717  : 		m_nTextPosType = G_TEXT_POS_ONE;

  00df4	c7 83 04 0d 00
	00 00 00 00 00	 mov	 DWORD PTR [ebx+3332], 0

; 718  : 		
; 719  : 		ML_SET_LANGUAGE_RES();

  00dfe	e8 00 00 00 00	 call	 ?AfxGetStaticModuleState@@YGPAVAFX_MODULE_STATE@@XZ ; AfxGetStaticModuleState
  00e03	b9 00 00 00 00	 mov	 ecx, OFFSET ?g_iMetaTable@@3VIMetaTable@@A ; g_iMetaTable
  00e08	8b 40 08	 mov	 eax, DWORD PTR [eax+8]
  00e0b	50		 push	 eax
  00e0c	ff b3 90 0d 00
	00		 push	 DWORD PTR [ebx+3472]
  00e12	e8 00 00 00 00	 call	 ?LoadResourceDLL@IMetaTable@@QAEPAUHINSTANCE__@@PAUHWND__@@PAU2@@Z ; IMetaTable::LoadResourceDLL
  00e17	8b f8		 mov	 edi, eax
; File C:\Program Files (x86)\Microsoft Visual Studio\2019\Community\VC\Tools\MSVC\14.29.30133\atlmfc\include\afxwin1.inl

; 25   : 		return afxCurrentResourceHandle; }

  00e19	e8 00 00 00 00	 call	 ?AfxGetModuleState@@YGPAVAFX_MODULE_STATE@@XZ ; AfxGetModuleState
; File D:\git\src\IBK\IBK_DRFN\ProjSrc\SrcChartEx\ChartAddIn\ChartAnalysisToolAddIn\Include_Chart\Dll_Load\IMetaTable.h

; 1034 : 		m_hInstance = AfxGetResourceHandle();

  00e1e	8b 70 0c	 mov	 esi, DWORD PTR [eax+12]
  00e21	89 75 c8	 mov	 DWORD PTR ___mlrs__$13[ebp], esi
; File C:\Program Files (x86)\Microsoft Visual Studio\2019\Community\VC\Tools\MSVC\14.29.30133\atlmfc\include\afxwin1.inl

; 27   : 	{ ASSERT(hInstResource != NULL); afxCurrentResourceHandle = hInstResource; }

  00e24	e8 00 00 00 00	 call	 ?AfxGetModuleState@@YGPAVAFX_MODULE_STATE@@XZ ; AfxGetModuleState
  00e29	89 78 0c	 mov	 DWORD PTR [eax+12], edi
; File D:\git\src\IBK\IBK_DRFN\ProjSrc\SrcChartEx\ChartAddIn\ChartAnalysisToolAddIn\AnalysisTool\DlgAnalysisToolSet.cpp

; 721  : 		CString strTitle;

  00e2c	8d 4d cc	 lea	 ecx, DWORD PTR _strTitle$19[ebp]
  00e2f	c7 45 fc 0a 00
	00 00		 mov	 DWORD PTR __$EHRec$[ebp+8], 10 ; 0000000aH
  00e36	ff 15 00 00 00
	00		 call	 DWORD PTR __imp_??0?$CStringT@DV?$StrTraitMFC_DLL@DV?$ChTraitsCRT@D@ATL@@@@@ATL@@QAE@XZ

; 722  : 		strTitle.LoadString(IDS_SHOW);

  00e3c	6a 04		 push	 4
  00e3e	8d 4d cc	 lea	 ecx, DWORD PTR _strTitle$19[ebp]
  00e41	c6 45 fc 0b	 mov	 BYTE PTR __$EHRec$[ebp+8], 11 ; 0000000bH
  00e45	ff 15 00 00 00
	00		 call	 DWORD PTR __imp_?LoadStringA@?$CStringT@DV?$StrTraitMFC_DLL@DV?$ChTraitsCRT@D@ATL@@@@@ATL@@QAEHI@Z

; 723  : 		SetDlgItemText(IDC_CHECK_TEXT_LEFT,strTitle);

  00e4b	ff 75 cc	 push	 DWORD PTR _strTitle$19[ebp]
  00e4e	8b cb		 mov	 ecx, ebx
  00e50	68 a0 0f 00 00	 push	 4000			; 00000fa0H
  00e55	e8 00 00 00 00	 call	 ?SetDlgItemTextA@CWnd@@QAEXHPBD@Z ; CWnd::SetDlgItemTextA

; 724  : 		
; 725  : 		m_ctrlRightText.ShowWindow(SW_HIDE);		

  00e5a	6a 00		 push	 0
  00e5c	8d 8b 50 03 00
	00		 lea	 ecx, DWORD PTR [ebx+848]
  00e62	e8 00 00 00 00	 call	 ?ShowWindow@CWnd@@QAEHH@Z ; CWnd::ShowWindow

; 726  : 		m_ctrlLeftText.SetCheck(m_pTextPosition->IsShow());

  00e67	8b 8b 2c 0d 00
	00		 mov	 ecx, DWORD PTR [ebx+3372]
  00e6d	e8 00 00 00 00	 call	 ?IsShow@CTextShowPosition@@QBE_NXZ ; CTextShowPosition::IsShow
; File C:\Program Files (x86)\Microsoft Visual Studio\2019\Community\VC\Tools\MSVC\14.29.30133\atlmfc\include\afxwin2.inl

; 630  : 	{ ASSERT(::IsWindow(m_hWnd)); ::SendMessage(m_hWnd, BM_SETCHECK, nCheck, 0); }

  00e72	8b 3d 00 00 00
	00		 mov	 edi, DWORD PTR __imp__SendMessageA@16
  00e78	6a 00		 push	 0
; File D:\git\src\IBK\IBK_DRFN\ProjSrc\SrcChartEx\ChartAddIn\ChartAnalysisToolAddIn\AnalysisTool\DlgAnalysisToolSet.cpp

; 726  : 		m_ctrlLeftText.SetCheck(m_pTextPosition->IsShow());

  00e7a	0f b6 c0	 movzx	 eax, al
; File C:\Program Files (x86)\Microsoft Visual Studio\2019\Community\VC\Tools\MSVC\14.29.30133\atlmfc\include\afxwin2.inl

; 630  : 	{ ASSERT(::IsWindow(m_hWnd)); ::SendMessage(m_hWnd, BM_SETCHECK, nCheck, 0); }

  00e7d	50		 push	 eax
  00e7e	68 f1 00 00 00	 push	 241			; 000000f1H
  00e83	ff b3 f0 02 00
	00		 push	 DWORD PTR [ebx+752]
  00e89	ff d7		 call	 edi
; File D:\git\src\IBK\IBK_DRFN\ProjSrc\SrcChartEx\ChartAddIn\ChartAnalysisToolAddIn\AnalysisTool\DlgAnalysisToolSet.cpp

; 728  : 		m_stAnalysisTool.nLeftText = m_pTextPosition->IsShow();

  00e8b	8b 8b 2c 0d 00
	00		 mov	 ecx, DWORD PTR [ebx+3372]
  00e91	e8 00 00 00 00	 call	 ?IsShow@CTextShowPosition@@QBE_NXZ ; CTextShowPosition::IsShow

; 729  : 
; 730  : 		if((CToolEnumData::ElementType)m_nElementType == CToolEnumData::Fibo_Retrace)

  00e96	83 bb 18 0d 00
	00 0b		 cmp	 DWORD PTR [ebx+3352], 11 ; 0000000bH
  00e9d	0f b6 c0	 movzx	 eax, al
  00ea0	89 83 a0 0c 00
	00		 mov	 DWORD PTR [ebx+3232], eax
  00ea6	75 7c		 jne	 SHORT $LN33@Initialize

; 731  : 		{
; 732  : 			m_nLineExtType = G_LINE_EXT_BOTH;
; 733  : 			m_ctrlLeftExt.ShowWindow(SW_SHOW);

  00ea8	6a 05		 push	 5
  00eaa	8d 8b 50 05 00
	00		 lea	 ecx, DWORD PTR [ebx+1360]
  00eb0	c7 83 08 0d 00
	00 02 00 00 00	 mov	 DWORD PTR [ebx+3336], 2
  00eba	e8 00 00 00 00	 call	 ?ShowWindow@CWnd@@QAEHH@Z ; CWnd::ShowWindow

; 734  : 			m_ctrlRightExt.ShowWindow(SW_SHOW);

  00ebf	6a 05		 push	 5
  00ec1	8d 8b d0 05 00
	00		 lea	 ecx, DWORD PTR [ebx+1488]
  00ec7	e8 00 00 00 00	 call	 ?ShowWindow@CWnd@@QAEHH@Z ; CWnd::ShowWindow

; 735  : 
; 736  : 			m_ctrlLeftExt.SetCheck(m_pLineExtEnvironment->GetLeftExt());

  00ecc	8b 8b 6c 0d 00
	00		 mov	 ecx, DWORD PTR [ebx+3436]
  00ed2	e8 00 00 00 00	 call	 ?GetLeftExt@CLineExtEnvironment@@QBEHXZ ; CLineExtEnvironment::GetLeftExt
; File C:\Program Files (x86)\Microsoft Visual Studio\2019\Community\VC\Tools\MSVC\14.29.30133\atlmfc\include\afxwin2.inl

; 630  : 	{ ASSERT(::IsWindow(m_hWnd)); ::SendMessage(m_hWnd, BM_SETCHECK, nCheck, 0); }

  00ed7	6a 00		 push	 0
  00ed9	50		 push	 eax
  00eda	68 f1 00 00 00	 push	 241			; 000000f1H
  00edf	ff b3 70 05 00
	00		 push	 DWORD PTR [ebx+1392]
  00ee5	ff d7		 call	 edi
; File D:\git\src\IBK\IBK_DRFN\ProjSrc\SrcChartEx\ChartAddIn\ChartAnalysisToolAddIn\AnalysisTool\DlgAnalysisToolSet.cpp

; 737  : 			m_ctrlRightExt.SetCheck(m_pLineExtEnvironment->GetRightExt());

  00ee7	8b 8b 6c 0d 00
	00		 mov	 ecx, DWORD PTR [ebx+3436]
  00eed	e8 00 00 00 00	 call	 ?GetRightExt@CLineExtEnvironment@@QBEHXZ ; CLineExtEnvironment::GetRightExt
; File C:\Program Files (x86)\Microsoft Visual Studio\2019\Community\VC\Tools\MSVC\14.29.30133\atlmfc\include\afxwin2.inl

; 630  : 	{ ASSERT(::IsWindow(m_hWnd)); ::SendMessage(m_hWnd, BM_SETCHECK, nCheck, 0); }

  00ef2	6a 00		 push	 0
  00ef4	50		 push	 eax
  00ef5	68 f1 00 00 00	 push	 241			; 000000f1H
  00efa	ff b3 f0 05 00
	00		 push	 DWORD PTR [ebx+1520]
  00f00	ff d7		 call	 edi
; File D:\git\src\IBK\IBK_DRFN\ProjSrc\SrcChartEx\ChartAddIn\ChartAnalysisToolAddIn\AnalysisTool\DlgAnalysisToolSet.cpp

; 739  : 			m_stAnalysisTool.nLeftExt = m_pLineExtEnvironment->GetLeftExt();

  00f02	8b 8b 6c 0d 00
	00		 mov	 ecx, DWORD PTR [ebx+3436]
  00f08	e8 00 00 00 00	 call	 ?GetLeftExt@CLineExtEnvironment@@QBEHXZ ; CLineExtEnvironment::GetLeftExt

; 740  : 			m_stAnalysisTool.nRightExt = m_pLineExtEnvironment->GetRightExt();

  00f0d	8b 8b 6c 0d 00
	00		 mov	 ecx, DWORD PTR [ebx+3436]
  00f13	89 83 b4 0c 00
	00		 mov	 DWORD PTR [ebx+3252], eax
  00f19	e8 00 00 00 00	 call	 ?GetRightExt@CLineExtEnvironment@@QBEHXZ ; CLineExtEnvironment::GetRightExt
  00f1e	89 83 b8 0c 00
	00		 mov	 DWORD PTR [ebx+3256], eax
$LN33@Initialize:

; 742  : 	} 

  00f24	8d 4d cc	 lea	 ecx, DWORD PTR _strTitle$19[ebp]
  00f27	ff 15 00 00 00
	00		 call	 DWORD PTR __imp_??1?$CStringT@DV?$StrTraitMFC_DLL@DV?$ChTraitsCRT@D@ATL@@@@@ATL@@QAE@XZ
; File D:\git\src\IBK\IBK_DRFN\ProjSrc\SrcChartEx\ChartAddIn\ChartAnalysisToolAddIn\Include_Chart\Dll_Load\IMetaTable.h

; 1038 : 	{

  00f2d	c7 45 fc 0c 00
	00 00		 mov	 DWORD PTR __$EHRec$[ebp+8], 12 ; 0000000cH
; File C:\Program Files (x86)\Microsoft Visual Studio\2019\Community\VC\Tools\MSVC\14.29.30133\atlmfc\include\afxwin1.inl

; 27   : 	{ ASSERT(hInstResource != NULL); afxCurrentResourceHandle = hInstResource; }

  00f34	e8 00 00 00 00	 call	 ?AfxGetModuleState@@YGPAVAFX_MODULE_STATE@@XZ ; AfxGetModuleState
; File D:\git\src\IBK\IBK_DRFN\ProjSrc\SrcChartEx\ChartAddIn\ChartAnalysisToolAddIn\Include_Chart\Dll_Load\IMetaTable.h

; 1040 : 	}

  00f39	c7 45 fc ff ff
	ff ff		 mov	 DWORD PTR __$EHRec$[ebp+8], -1
; File C:\Program Files (x86)\Microsoft Visual Studio\2019\Community\VC\Tools\MSVC\14.29.30133\atlmfc\include\afxwin1.inl

; 27   : 	{ ASSERT(hInstResource != NULL); afxCurrentResourceHandle = hInstResource; }

  00f40	89 70 0c	 mov	 DWORD PTR [eax+12], esi
; File D:\git\src\IBK\IBK_DRFN\ProjSrc\SrcChartEx\ChartAddIn\ChartAnalysisToolAddIn\AnalysisTool\DlgAnalysisToolSet.cpp

; 742  : 	} 

  00f43	e9 1d 05 00 00	 jmp	 $LN43@Initialize
$LN28@Initialize:

; 677  : 		m_ctrlLeftText.SetCheck(m_pTextHPosition->GetLeft());

  00f48	8b 8b 30 0d 00
	00		 mov	 ecx, DWORD PTR [ebx+3376]
  00f4e	c7 83 04 0d 00
	00 01 00 00 00	 mov	 DWORD PTR [ebx+3332], 1
  00f58	c7 83 08 0d 00
	00 02 00 00 00	 mov	 DWORD PTR [ebx+3336], 2
  00f62	e8 00 00 00 00	 call	 ?GetLeft@CTextHorzPosition@@QBE_NXZ ; CTextHorzPosition::GetLeft
; File C:\Program Files (x86)\Microsoft Visual Studio\2019\Community\VC\Tools\MSVC\14.29.30133\atlmfc\include\afxwin2.inl

; 630  : 	{ ASSERT(::IsWindow(m_hWnd)); ::SendMessage(m_hWnd, BM_SETCHECK, nCheck, 0); }

  00f67	8b 35 00 00 00
	00		 mov	 esi, DWORD PTR __imp__SendMessageA@16
  00f6d	6a 00		 push	 0
; File D:\git\src\IBK\IBK_DRFN\ProjSrc\SrcChartEx\ChartAddIn\ChartAnalysisToolAddIn\AnalysisTool\DlgAnalysisToolSet.cpp

; 677  : 		m_ctrlLeftText.SetCheck(m_pTextHPosition->GetLeft());

  00f6f	0f b6 c0	 movzx	 eax, al
; File C:\Program Files (x86)\Microsoft Visual Studio\2019\Community\VC\Tools\MSVC\14.29.30133\atlmfc\include\afxwin2.inl

; 630  : 	{ ASSERT(::IsWindow(m_hWnd)); ::SendMessage(m_hWnd, BM_SETCHECK, nCheck, 0); }

  00f72	50		 push	 eax
  00f73	68 f1 00 00 00	 push	 241			; 000000f1H
  00f78	ff b3 f0 02 00
	00		 push	 DWORD PTR [ebx+752]
  00f7e	ff d6		 call	 esi
; File D:\git\src\IBK\IBK_DRFN\ProjSrc\SrcChartEx\ChartAddIn\ChartAnalysisToolAddIn\AnalysisTool\DlgAnalysisToolSet.cpp

; 678  : 		m_ctrlRightText.SetCheck(m_pTextHPosition->GetRight());

  00f80	8b 8b 30 0d 00
	00		 mov	 ecx, DWORD PTR [ebx+3376]
  00f86	e8 00 00 00 00	 call	 ?GetRight@CTextHorzPosition@@QBE_NXZ ; CTextHorzPosition::GetRight
; File C:\Program Files (x86)\Microsoft Visual Studio\2019\Community\VC\Tools\MSVC\14.29.30133\atlmfc\include\afxwin2.inl

; 630  : 	{ ASSERT(::IsWindow(m_hWnd)); ::SendMessage(m_hWnd, BM_SETCHECK, nCheck, 0); }

  00f8b	6a 00		 push	 0
; File D:\git\src\IBK\IBK_DRFN\ProjSrc\SrcChartEx\ChartAddIn\ChartAnalysisToolAddIn\AnalysisTool\DlgAnalysisToolSet.cpp

; 678  : 		m_ctrlRightText.SetCheck(m_pTextHPosition->GetRight());

  00f8d	0f b6 c0	 movzx	 eax, al
; File C:\Program Files (x86)\Microsoft Visual Studio\2019\Community\VC\Tools\MSVC\14.29.30133\atlmfc\include\afxwin2.inl

; 630  : 	{ ASSERT(::IsWindow(m_hWnd)); ::SendMessage(m_hWnd, BM_SETCHECK, nCheck, 0); }

  00f90	50		 push	 eax
  00f91	68 f1 00 00 00	 push	 241			; 000000f1H
  00f96	ff b3 70 03 00
	00		 push	 DWORD PTR [ebx+880]
  00f9c	ff d6		 call	 esi
; File D:\git\src\IBK\IBK_DRFN\ProjSrc\SrcChartEx\ChartAddIn\ChartAnalysisToolAddIn\AnalysisTool\DlgAnalysisToolSet.cpp

; 680  : 		m_stAnalysisTool.nLeftText = m_pTextHPosition->GetLeft();

  00f9e	8b 8b 30 0d 00
	00		 mov	 ecx, DWORD PTR [ebx+3376]
  00fa4	e8 00 00 00 00	 call	 ?GetLeft@CTextHorzPosition@@QBE_NXZ ; CTextHorzPosition::GetLeft

; 681  : 		m_stAnalysisTool.nRightText = m_pTextHPosition->GetRight();

  00fa9	8b 8b 30 0d 00
	00		 mov	 ecx, DWORD PTR [ebx+3376]
  00faf	0f b6 c0	 movzx	 eax, al
  00fb2	89 83 a0 0c 00
	00		 mov	 DWORD PTR [ebx+3232], eax
  00fb8	e8 00 00 00 00	 call	 ?GetRight@CTextHorzPosition@@QBE_NXZ ; CTextHorzPosition::GetRight
  00fbd	0f b6 c0	 movzx	 eax, al

; 682  : 		
; 683  : 		m_ctrlLeftExt.ShowWindow(SW_SHOW);

  00fc0	8d 8b 50 05 00
	00		 lea	 ecx, DWORD PTR [ebx+1360]
  00fc6	6a 05		 push	 5
  00fc8	89 83 a4 0c 00
	00		 mov	 DWORD PTR [ebx+3236], eax
  00fce	e8 00 00 00 00	 call	 ?ShowWindow@CWnd@@QAEHH@Z ; CWnd::ShowWindow

; 684  : 		m_ctrlRightExt.ShowWindow(SW_SHOW);

  00fd3	6a 05		 push	 5
  00fd5	8d 8b d0 05 00
	00		 lea	 ecx, DWORD PTR [ebx+1488]
  00fdb	e8 00 00 00 00	 call	 ?ShowWindow@CWnd@@QAEHH@Z ; CWnd::ShowWindow

; 685  : 
; 686  : 		m_ctrlLeftExt.SetCheck(m_pLineExtEnvironment->GetLeftExt());

  00fe0	8b 8b 6c 0d 00
	00		 mov	 ecx, DWORD PTR [ebx+3436]
  00fe6	e8 00 00 00 00	 call	 ?GetLeftExt@CLineExtEnvironment@@QBEHXZ ; CLineExtEnvironment::GetLeftExt
; File C:\Program Files (x86)\Microsoft Visual Studio\2019\Community\VC\Tools\MSVC\14.29.30133\atlmfc\include\afxwin2.inl

; 630  : 	{ ASSERT(::IsWindow(m_hWnd)); ::SendMessage(m_hWnd, BM_SETCHECK, nCheck, 0); }

  00feb	6a 00		 push	 0
  00fed	50		 push	 eax
  00fee	68 f1 00 00 00	 push	 241			; 000000f1H
  00ff3	ff b3 70 05 00
	00		 push	 DWORD PTR [ebx+1392]
  00ff9	ff d6		 call	 esi
; File D:\git\src\IBK\IBK_DRFN\ProjSrc\SrcChartEx\ChartAddIn\ChartAnalysisToolAddIn\AnalysisTool\DlgAnalysisToolSet.cpp

; 687  : 		m_ctrlRightExt.SetCheck(m_pLineExtEnvironment->GetRightExt());

  00ffb	8b 8b 6c 0d 00
	00		 mov	 ecx, DWORD PTR [ebx+3436]
  01001	e8 00 00 00 00	 call	 ?GetRightExt@CLineExtEnvironment@@QBEHXZ ; CLineExtEnvironment::GetRightExt
; File C:\Program Files (x86)\Microsoft Visual Studio\2019\Community\VC\Tools\MSVC\14.29.30133\atlmfc\include\afxwin2.inl

; 630  : 	{ ASSERT(::IsWindow(m_hWnd)); ::SendMessage(m_hWnd, BM_SETCHECK, nCheck, 0); }

  01006	6a 00		 push	 0
  01008	50		 push	 eax
  01009	68 f1 00 00 00	 push	 241			; 000000f1H
  0100e	ff b3 f0 05 00
	00		 push	 DWORD PTR [ebx+1520]
  01014	ff d6		 call	 esi
; File D:\git\src\IBK\IBK_DRFN\ProjSrc\SrcChartEx\ChartAddIn\ChartAnalysisToolAddIn\AnalysisTool\DlgAnalysisToolSet.cpp

; 689  : 		m_stAnalysisTool.nLeftExt = m_pLineExtEnvironment->GetLeftExt();

  01016	8b 8b 6c 0d 00
	00		 mov	 ecx, DWORD PTR [ebx+3436]
  0101c	e8 00 00 00 00	 call	 ?GetLeftExt@CLineExtEnvironment@@QBEHXZ ; CLineExtEnvironment::GetLeftExt

; 690  : 		m_stAnalysisTool.nRightExt = m_pLineExtEnvironment->GetRightExt();

  01021	8b 8b 6c 0d 00
	00		 mov	 ecx, DWORD PTR [ebx+3436]
  01027	89 83 b4 0c 00
	00		 mov	 DWORD PTR [ebx+3252], eax
  0102d	e8 00 00 00 00	 call	 ?GetRightExt@CLineExtEnvironment@@QBEHXZ ; CLineExtEnvironment::GetRightExt

; 691  : 
; 692  : 		m_ctrlEquiDiv.ShowWindow(SW_SHOW);

  01032	6a 05		 push	 5
  01034	8d 8b 50 06 00
	00		 lea	 ecx, DWORD PTR [ebx+1616]
  0103a	89 83 b8 0c 00
	00		 mov	 DWORD PTR [ebx+3256], eax
  01040	e8 00 00 00 00	 call	 ?ShowWindow@CWnd@@QAEHH@Z ; CWnd::ShowWindow
; File C:\Program Files (x86)\Microsoft Visual Studio\2019\Community\VC\Tools\MSVC\14.29.30133\atlmfc\include\afxwin2.inl

; 630  : 	{ ASSERT(::IsWindow(m_hWnd)); ::SendMessage(m_hWnd, BM_SETCHECK, nCheck, 0); }

  01045	6a 00		 push	 0
  01047	ff b3 7c 0d 00
	00		 push	 DWORD PTR [ebx+3452]
  0104d	68 f1 00 00 00	 push	 241			; 000000f1H
  01052	ff b3 70 06 00
	00		 push	 DWORD PTR [ebx+1648]
  01058	ff d6		 call	 esi
; File D:\git\src\IBK\IBK_DRFN\ProjSrc\SrcChartEx\ChartAddIn\ChartAnalysisToolAddIn\AnalysisTool\DlgAnalysisToolSet.cpp

; 694  : 		m_nEquiDivLine = m_baseEquiDivEnvironment;		

  0105a	8b 83 7c 0d 00
	00		 mov	 eax, DWORD PTR [ebx+3452]

; 695  : 		m_stAnalysisTool.nEquiDiv = m_nEquiDivLine;
; 696  : 
; 697  : 		// (2008/8/15 - Seung-Won, Bae) Add option for using price range.
; 698  : 		m_chkPriceRangeDiv.ShowWindow( SW_SHOW);

  01060	8d 8b a8 00 00
	00		 lea	 ecx, DWORD PTR [ebx+168]
  01066	6a 05		 push	 5
  01068	89 83 0c 0d 00
	00		 mov	 DWORD PTR [ebx+3340], eax
  0106e	89 83 bc 0c 00
	00		 mov	 DWORD PTR [ebx+3260], eax
  01074	e8 00 00 00 00	 call	 ?ShowWindow@CWnd@@QAEHH@Z ; CWnd::ShowWindow
; File C:\Program Files (x86)\Microsoft Visual Studio\2019\Community\VC\Tools\MSVC\14.29.30133\atlmfc\include\afxwin2.inl

; 630  : 	{ ASSERT(::IsWindow(m_hWnd)); ::SendMessage(m_hWnd, BM_SETCHECK, nCheck, 0); }

  01079	6a 00		 push	 0
  0107b	ff b3 84 0d 00
	00		 push	 DWORD PTR [ebx+3460]
  01081	68 f1 00 00 00	 push	 241			; 000000f1H
  01086	ff b3 c8 00 00
	00		 push	 DWORD PTR [ebx+200]
  0108c	ff d6		 call	 esi
; File D:\git\src\IBK\IBK_DRFN\ProjSrc\SrcChartEx\ChartAddIn\ChartAnalysisToolAddIn\AnalysisTool\DlgAnalysisToolSet.cpp

; 700  : 		m_nPriceRangeDivLine = m_basePriceRangeDivEnvironment;		

  0108e	8b 83 84 0d 00
	00		 mov	 eax, DWORD PTR [ebx+3460]
  01094	89 83 10 0d 00
	00		 mov	 DWORD PTR [ebx+3344], eax

; 701  : 		m_stAnalysisTool.nPriceRangeDiv = m_nPriceRangeDivLine;

  0109a	89 83 c0 0c 00
	00		 mov	 DWORD PTR [ebx+3264], eax

; 702  : 		if( G_PRICE_RANGE_DIV_CHECK == m_nPriceRangeDivLine)

  010a0	83 f8 01	 cmp	 eax, 1
  010a3	0f 85 bc 03 00
	00		 jne	 $LN43@Initialize

; 703  : 		{
; 704  : 			m_ctrlEditValue1.EnableWindow( FALSE);

  010a9	6a 00		 push	 0
  010ab	8d 8b 50 09 00
	00		 lea	 ecx, DWORD PTR [ebx+2384]
  010b1	e8 00 00 00 00	 call	 ?EnableWindow@CWnd@@QAEHH@Z ; CWnd::EnableWindow

; 705  : 			m_ctrlEditValue2.EnableWindow( FALSE);

  010b6	6a 00		 push	 0
  010b8	8d 8b d0 09 00
	00		 lea	 ecx, DWORD PTR [ebx+2512]
  010be	e8 00 00 00 00	 call	 ?EnableWindow@CWnd@@QAEHH@Z ; CWnd::EnableWindow

; 706  : 		}
; 707  : 	}

  010c3	e9 9d 03 00 00	 jmp	 $LN43@Initialize
$LN23@Initialize:

; 634  : 			(CToolEnumData::ElementType)m_nElementType == CToolEnumData::Period_Summary)	
; 635  : 	{
; 636  : 		BOOL bRight = m_pTextHPosition->GetRight();

  010c8	8b 8b 30 0d 00
	00		 mov	 ecx, DWORD PTR [ebx+3376]
  010ce	e8 00 00 00 00	 call	 ?GetRight@CTextHorzPosition@@QBE_NXZ ; CTextHorzPosition::GetRight

; 639  : 		m_ctrlLeftText.SetCheck(m_pTextHPosition->GetLeft());

  010d3	8b 8b 30 0d 00
	00		 mov	 ecx, DWORD PTR [ebx+3376]
  010d9	0f b6 f8	 movzx	 edi, al
  010dc	c7 83 04 0d 00
	00 01 00 00 00	 mov	 DWORD PTR [ebx+3332], 1
  010e6	c7 83 08 0d 00
	00 02 00 00 00	 mov	 DWORD PTR [ebx+3336], 2
  010f0	e8 00 00 00 00	 call	 ?GetLeft@CTextHorzPosition@@QBE_NXZ ; CTextHorzPosition::GetLeft
; File C:\Program Files (x86)\Microsoft Visual Studio\2019\Community\VC\Tools\MSVC\14.29.30133\atlmfc\include\afxwin2.inl

; 630  : 	{ ASSERT(::IsWindow(m_hWnd)); ::SendMessage(m_hWnd, BM_SETCHECK, nCheck, 0); }

  010f5	8b 35 00 00 00
	00		 mov	 esi, DWORD PTR __imp__SendMessageA@16
  010fb	6a 00		 push	 0
; File D:\git\src\IBK\IBK_DRFN\ProjSrc\SrcChartEx\ChartAddIn\ChartAnalysisToolAddIn\AnalysisTool\DlgAnalysisToolSet.cpp

; 639  : 		m_ctrlLeftText.SetCheck(m_pTextHPosition->GetLeft());

  010fd	0f b6 c0	 movzx	 eax, al
; File C:\Program Files (x86)\Microsoft Visual Studio\2019\Community\VC\Tools\MSVC\14.29.30133\atlmfc\include\afxwin2.inl

; 630  : 	{ ASSERT(::IsWindow(m_hWnd)); ::SendMessage(m_hWnd, BM_SETCHECK, nCheck, 0); }

  01100	50		 push	 eax
  01101	68 f1 00 00 00	 push	 241			; 000000f1H
  01106	ff b3 f0 02 00
	00		 push	 DWORD PTR [ebx+752]
  0110c	ff d6		 call	 esi
  0110e	6a 00		 push	 0
  01110	57		 push	 edi
  01111	68 f1 00 00 00	 push	 241			; 000000f1H
  01116	ff b3 70 03 00
	00		 push	 DWORD PTR [ebx+880]
  0111c	ff d6		 call	 esi
; File D:\git\src\IBK\IBK_DRFN\ProjSrc\SrcChartEx\ChartAddIn\ChartAnalysisToolAddIn\AnalysisTool\DlgAnalysisToolSet.cpp

; 641  : 		if ((CToolEnumData::ElementType)m_nElementType == CToolEnumData::Line)

  0111e	83 bb 18 0d 00
	00 05		 cmp	 DWORD PTR [ebx+3352], 5
  01125	75 37		 jne	 SHORT $LN24@Initialize

; 642  : 		{
; 643  : 			m_ctrlRateText.ShowWindow(SW_SHOW);

  01127	6a 05		 push	 5
  01129	8d 8b d0 03 00
	00		 lea	 ecx, DWORD PTR [ebx+976]
  0112f	e8 00 00 00 00	 call	 ?ShowWindow@CWnd@@QAEHH@Z ; CWnd::ShowWindow

; 644  : 			m_ctrlRateText.EnableWindow(bRight);

  01134	57		 push	 edi
  01135	8d 8b d0 03 00
	00		 lea	 ecx, DWORD PTR [ebx+976]
  0113b	e8 00 00 00 00	 call	 ?EnableWindow@CWnd@@QAEHH@Z ; CWnd::EnableWindow

; 645  : 			m_ctrlRateText.SetCheck(m_pTextHPosition->GetRightRate());

  01140	8b 8b 30 0d 00
	00		 mov	 ecx, DWORD PTR [ebx+3376]
  01146	e8 00 00 00 00	 call	 ?GetRightRate@CTextHorzPosition@@QBE_NXZ ; CTextHorzPosition::GetRightRate
; File C:\Program Files (x86)\Microsoft Visual Studio\2019\Community\VC\Tools\MSVC\14.29.30133\atlmfc\include\afxwin2.inl

; 630  : 	{ ASSERT(::IsWindow(m_hWnd)); ::SendMessage(m_hWnd, BM_SETCHECK, nCheck, 0); }

  0114b	6a 00		 push	 0
; File D:\git\src\IBK\IBK_DRFN\ProjSrc\SrcChartEx\ChartAddIn\ChartAnalysisToolAddIn\AnalysisTool\DlgAnalysisToolSet.cpp

; 645  : 			m_ctrlRateText.SetCheck(m_pTextHPosition->GetRightRate());

  0114d	0f b6 c0	 movzx	 eax, al
; File C:\Program Files (x86)\Microsoft Visual Studio\2019\Community\VC\Tools\MSVC\14.29.30133\atlmfc\include\afxwin2.inl

; 630  : 	{ ASSERT(::IsWindow(m_hWnd)); ::SendMessage(m_hWnd, BM_SETCHECK, nCheck, 0); }

  01150	50		 push	 eax
  01151	68 f1 00 00 00	 push	 241			; 000000f1H
  01156	ff b3 f0 03 00
	00		 push	 DWORD PTR [ebx+1008]
  0115c	ff d6		 call	 esi
$LN24@Initialize:
; File D:\git\src\IBK\IBK_DRFN\ProjSrc\SrcChartEx\ChartAddIn\ChartAnalysisToolAddIn\AnalysisTool\DlgAnalysisToolSet.cpp

; 649  : 		m_stAnalysisTool.nLeftText = m_pTextHPosition->GetLeft();

  0115e	8b 8b 30 0d 00
	00		 mov	 ecx, DWORD PTR [ebx+3376]
  01164	e8 00 00 00 00	 call	 ?GetLeft@CTextHorzPosition@@QBE_NXZ ; CTextHorzPosition::GetLeft

; 650  : 		m_stAnalysisTool.nRightText = bRight;
; 651  : 		m_stAnalysisTool.nRateText = m_pTextHPosition->GetRightRate();

  01169	8b 8b 30 0d 00
	00		 mov	 ecx, DWORD PTR [ebx+3376]
  0116f	0f b6 c0	 movzx	 eax, al
  01172	89 83 a0 0c 00
	00		 mov	 DWORD PTR [ebx+3232], eax
  01178	89 bb a4 0c 00
	00		 mov	 DWORD PTR [ebx+3236], edi
  0117e	e8 00 00 00 00	 call	 ?GetRightRate@CTextHorzPosition@@QBE_NXZ ; CTextHorzPosition::GetRightRate
  01183	0f b6 c0	 movzx	 eax, al

; 652  : 		
; 653  : 		m_ctrlLeftExt.ShowWindow(SW_SHOW);

  01186	8d 8b 50 05 00
	00		 lea	 ecx, DWORD PTR [ebx+1360]
  0118c	6a 05		 push	 5
  0118e	89 83 a8 0c 00
	00		 mov	 DWORD PTR [ebx+3240], eax
  01194	e8 00 00 00 00	 call	 ?ShowWindow@CWnd@@QAEHH@Z ; CWnd::ShowWindow

; 654  : 		m_ctrlRightExt.ShowWindow(SW_SHOW);

  01199	6a 05		 push	 5
  0119b	8d 8b d0 05 00
	00		 lea	 ecx, DWORD PTR [ebx+1488]
  011a1	e8 00 00 00 00	 call	 ?ShowWindow@CWnd@@QAEHH@Z ; CWnd::ShowWindow

; 655  : 
; 656  : 		m_ctrlLeftExt.SetCheck(m_pLineExtEnvironment->GetLeftExt());

  011a6	8b 8b 6c 0d 00
	00		 mov	 ecx, DWORD PTR [ebx+3436]
  011ac	e8 00 00 00 00	 call	 ?GetLeftExt@CLineExtEnvironment@@QBEHXZ ; CLineExtEnvironment::GetLeftExt
; File C:\Program Files (x86)\Microsoft Visual Studio\2019\Community\VC\Tools\MSVC\14.29.30133\atlmfc\include\afxwin2.inl

; 630  : 	{ ASSERT(::IsWindow(m_hWnd)); ::SendMessage(m_hWnd, BM_SETCHECK, nCheck, 0); }

  011b1	6a 00		 push	 0
  011b3	50		 push	 eax
  011b4	68 f1 00 00 00	 push	 241			; 000000f1H
  011b9	ff b3 70 05 00
	00		 push	 DWORD PTR [ebx+1392]
  011bf	ff d6		 call	 esi
; File D:\git\src\IBK\IBK_DRFN\ProjSrc\SrcChartEx\ChartAddIn\ChartAnalysisToolAddIn\AnalysisTool\DlgAnalysisToolSet.cpp

; 657  : 		m_ctrlRightExt.SetCheck(m_pLineExtEnvironment->GetRightExt());

  011c1	8b 8b 6c 0d 00
	00		 mov	 ecx, DWORD PTR [ebx+3436]
  011c7	e8 00 00 00 00	 call	 ?GetRightExt@CLineExtEnvironment@@QBEHXZ ; CLineExtEnvironment::GetRightExt
; File C:\Program Files (x86)\Microsoft Visual Studio\2019\Community\VC\Tools\MSVC\14.29.30133\atlmfc\include\afxwin2.inl

; 630  : 	{ ASSERT(::IsWindow(m_hWnd)); ::SendMessage(m_hWnd, BM_SETCHECK, nCheck, 0); }

  011cc	6a 00		 push	 0
  011ce	50		 push	 eax
  011cf	68 f1 00 00 00	 push	 241			; 000000f1H
  011d4	ff b3 f0 05 00
	00		 push	 DWORD PTR [ebx+1520]
  011da	ff d6		 call	 esi
; File D:\git\src\IBK\IBK_DRFN\ProjSrc\SrcChartEx\ChartAddIn\ChartAnalysisToolAddIn\AnalysisTool\DlgAnalysisToolSet.cpp

; 659  : 		m_stAnalysisTool.nLeftExt = m_pLineExtEnvironment->GetLeftExt();

  011dc	8b 8b 6c 0d 00
	00		 mov	 ecx, DWORD PTR [ebx+3436]
  011e2	e8 00 00 00 00	 call	 ?GetLeftExt@CLineExtEnvironment@@QBEHXZ ; CLineExtEnvironment::GetLeftExt

; 660  : 		m_stAnalysisTool.nRightExt = m_pLineExtEnvironment->GetRightExt();

  011e7	8b 8b 6c 0d 00
	00		 mov	 ecx, DWORD PTR [ebx+3436]
  011ed	89 83 b4 0c 00
	00		 mov	 DWORD PTR [ebx+3252], eax
  011f3	e8 00 00 00 00	 call	 ?GetRightExt@CLineExtEnvironment@@QBEHXZ ; CLineExtEnvironment::GetRightExt

; 661  : 
; 662  : 		if((CToolEnumData::ElementType)m_nElementType != CToolEnumData::Line)

  011f8	83 bb 18 0d 00
	00 05		 cmp	 DWORD PTR [ebx+3352], 5
  011ff	89 83 b8 0c 00
	00		 mov	 DWORD PTR [ebx+3256], eax
  01205	0f 84 5a 02 00
	00		 je	 $LN43@Initialize

; 663  : 		{
; 664  : 			m_ctrlEquiDiv.ShowWindow(SW_SHOW);

  0120b	6a 05		 push	 5
  0120d	8d 8b 50 06 00
	00		 lea	 ecx, DWORD PTR [ebx+1616]
  01213	e8 00 00 00 00	 call	 ?ShowWindow@CWnd@@QAEHH@Z ; CWnd::ShowWindow
; File C:\Program Files (x86)\Microsoft Visual Studio\2019\Community\VC\Tools\MSVC\14.29.30133\atlmfc\include\afxwin2.inl

; 630  : 	{ ASSERT(::IsWindow(m_hWnd)); ::SendMessage(m_hWnd, BM_SETCHECK, nCheck, 0); }

  01218	6a 00		 push	 0
  0121a	ff b3 7c 0d 00
	00		 push	 DWORD PTR [ebx+3452]
  01220	68 f1 00 00 00	 push	 241			; 000000f1H
  01225	ff b3 70 06 00
	00		 push	 DWORD PTR [ebx+1648]
  0122b	ff d6		 call	 esi
; File D:\git\src\IBK\IBK_DRFN\ProjSrc\SrcChartEx\ChartAddIn\ChartAnalysisToolAddIn\AnalysisTool\DlgAnalysisToolSet.cpp

; 666  : 			m_nEquiDivLine = m_baseEquiDivEnvironment;		

  0122d	8b 83 7c 0d 00
	00		 mov	 eax, DWORD PTR [ebx+3452]
  01233	89 83 0c 0d 00
	00		 mov	 DWORD PTR [ebx+3340], eax

; 667  : 
; 668  : 			m_stAnalysisTool.nEquiDiv = m_nEquiDivLine;

  01239	89 83 bc 0c 00
	00		 mov	 DWORD PTR [ebx+3260], eax

; 669  : 		}
; 670  : 	}

  0123f	e9 21 02 00 00	 jmp	 $LN43@Initialize
$LN18@Initialize:

; 584  : 			(CToolEnumData::ElementType)m_nElementType == CToolEnumData::Fibo_Time)	//
; 585  : 	{
; 586  : 		if((CToolEnumData::ElementType)m_nElementType == CToolEnumData::Vert_Line)

  01244	83 f8 03	 cmp	 eax, 3
  01247	0f 85 ff 00 00
	00		 jne	 $LN19@Initialize
$LN385@Initialize:

; 587  : 		{
; 588  : 			m_nTextPosType = G_TEXT_POS_VERT;

  0124d	c7 83 04 0d 00
	00 02 00 00 00	 mov	 DWORD PTR [ebx+3332], 2

; 589  : 
; 590  : 			ML_SET_LANGUAGE_RES();

  01257	e8 00 00 00 00	 call	 ?AfxGetStaticModuleState@@YGPAVAFX_MODULE_STATE@@XZ ; AfxGetStaticModuleState
  0125c	b9 00 00 00 00	 mov	 ecx, OFFSET ?g_iMetaTable@@3VIMetaTable@@A ; g_iMetaTable
  01261	8b 40 08	 mov	 eax, DWORD PTR [eax+8]
  01264	50		 push	 eax
  01265	ff b3 90 0d 00
	00		 push	 DWORD PTR [ebx+3472]
  0126b	e8 00 00 00 00	 call	 ?LoadResourceDLL@IMetaTable@@QAEPAUHINSTANCE__@@PAUHWND__@@PAU2@@Z ; IMetaTable::LoadResourceDLL
  01270	8b f8		 mov	 edi, eax
; File C:\Program Files (x86)\Microsoft Visual Studio\2019\Community\VC\Tools\MSVC\14.29.30133\atlmfc\include\afxwin1.inl

; 25   : 		return afxCurrentResourceHandle; }

  01272	e8 00 00 00 00	 call	 ?AfxGetModuleState@@YGPAVAFX_MODULE_STATE@@XZ ; AfxGetModuleState
; File D:\git\src\IBK\IBK_DRFN\ProjSrc\SrcChartEx\ChartAddIn\ChartAnalysisToolAddIn\Include_Chart\Dll_Load\IMetaTable.h

; 1034 : 		m_hInstance = AfxGetResourceHandle();

  01277	8b 70 0c	 mov	 esi, DWORD PTR [eax+12]
  0127a	89 75 c8	 mov	 DWORD PTR ___mlrs__$15[ebp], esi
; File C:\Program Files (x86)\Microsoft Visual Studio\2019\Community\VC\Tools\MSVC\14.29.30133\atlmfc\include\afxwin1.inl

; 27   : 	{ ASSERT(hInstResource != NULL); afxCurrentResourceHandle = hInstResource; }

  0127d	e8 00 00 00 00	 call	 ?AfxGetModuleState@@YGPAVAFX_MODULE_STATE@@XZ ; AfxGetModuleState
  01282	89 78 0c	 mov	 DWORD PTR [eax+12], edi
; File D:\git\src\IBK\IBK_DRFN\ProjSrc\SrcChartEx\ChartAddIn\ChartAnalysisToolAddIn\AnalysisTool\DlgAnalysisToolSet.cpp

; 592  : 			CString strTitle;

  01285	8d 4d cc	 lea	 ecx, DWORD PTR _strTitle$21[ebp]
  01288	c7 45 fc 04 00
	00 00		 mov	 DWORD PTR __$EHRec$[ebp+8], 4
  0128f	ff 15 00 00 00
	00		 call	 DWORD PTR __imp_??0?$CStringT@DV?$StrTraitMFC_DLL@DV?$ChTraitsCRT@D@ATL@@@@@ATL@@QAE@XZ

; 593  : 			strTitle.LoadString(IDS_UPPEREND);

  01295	6a 02		 push	 2
  01297	8d 4d cc	 lea	 ecx, DWORD PTR _strTitle$21[ebp]
  0129a	c6 45 fc 05	 mov	 BYTE PTR __$EHRec$[ebp+8], 5
  0129e	ff 15 00 00 00
	00		 call	 DWORD PTR __imp_?LoadStringA@?$CStringT@DV?$StrTraitMFC_DLL@DV?$ChTraitsCRT@D@ATL@@@@@ATL@@QAEHI@Z

; 594  : 			SetDlgItemText(IDC_CHECK_TEXT_LEFT,strTitle);

  012a4	ff 75 cc	 push	 DWORD PTR _strTitle$21[ebp]
  012a7	8b cb		 mov	 ecx, ebx
  012a9	68 a0 0f 00 00	 push	 4000			; 00000fa0H
  012ae	e8 00 00 00 00	 call	 ?SetDlgItemTextA@CWnd@@QAEXHPBD@Z ; CWnd::SetDlgItemTextA

; 595  : 			strTitle.LoadString(IDS_LOWEREND);

  012b3	6a 03		 push	 3
  012b5	8d 4d cc	 lea	 ecx, DWORD PTR _strTitle$21[ebp]
  012b8	ff 15 00 00 00
	00		 call	 DWORD PTR __imp_?LoadStringA@?$CStringT@DV?$StrTraitMFC_DLL@DV?$ChTraitsCRT@D@ATL@@@@@ATL@@QAEHI@Z

; 596  : 			SetDlgItemText(IDC_CHECK_TEXT_RIGHT,strTitle);

  012be	ff 75 cc	 push	 DWORD PTR _strTitle$21[ebp]
  012c1	8b cb		 mov	 ecx, ebx
  012c3	68 a1 0f 00 00	 push	 4001			; 00000fa1H
  012c8	e8 00 00 00 00	 call	 ?SetDlgItemTextA@CWnd@@QAEXHPBD@Z ; CWnd::SetDlgItemTextA

; 597  : 			m_ctrlLeftText.SetCheck(m_pTextVPosition->GetTop());

  012cd	8b 8b 34 0d 00
	00		 mov	 ecx, DWORD PTR [ebx+3380]
  012d3	e8 00 00 00 00	 call	 ?GetTop@CTextVertPosition@@QBE_NXZ ; CTextVertPosition::GetTop
; File C:\Program Files (x86)\Microsoft Visual Studio\2019\Community\VC\Tools\MSVC\14.29.30133\atlmfc\include\afxwin2.inl

; 630  : 	{ ASSERT(::IsWindow(m_hWnd)); ::SendMessage(m_hWnd, BM_SETCHECK, nCheck, 0); }

  012d8	8b 3d 00 00 00
	00		 mov	 edi, DWORD PTR __imp__SendMessageA@16
  012de	6a 00		 push	 0
; File D:\git\src\IBK\IBK_DRFN\ProjSrc\SrcChartEx\ChartAddIn\ChartAnalysisToolAddIn\AnalysisTool\DlgAnalysisToolSet.cpp

; 597  : 			m_ctrlLeftText.SetCheck(m_pTextVPosition->GetTop());

  012e0	0f b6 c0	 movzx	 eax, al
; File C:\Program Files (x86)\Microsoft Visual Studio\2019\Community\VC\Tools\MSVC\14.29.30133\atlmfc\include\afxwin2.inl

; 630  : 	{ ASSERT(::IsWindow(m_hWnd)); ::SendMessage(m_hWnd, BM_SETCHECK, nCheck, 0); }

  012e3	50		 push	 eax
  012e4	68 f1 00 00 00	 push	 241			; 000000f1H
  012e9	ff b3 f0 02 00
	00		 push	 DWORD PTR [ebx+752]
  012ef	ff d7		 call	 edi
; File D:\git\src\IBK\IBK_DRFN\ProjSrc\SrcChartEx\ChartAddIn\ChartAnalysisToolAddIn\AnalysisTool\DlgAnalysisToolSet.cpp

; 598  : 			m_ctrlRightText.SetCheck(m_pTextVPosition->GetBottom());

  012f1	8b 8b 34 0d 00
	00		 mov	 ecx, DWORD PTR [ebx+3380]
  012f7	e8 00 00 00 00	 call	 ?GetBottom@CTextVertPosition@@QBE_NXZ ; CTextVertPosition::GetBottom
; File C:\Program Files (x86)\Microsoft Visual Studio\2019\Community\VC\Tools\MSVC\14.29.30133\atlmfc\include\afxwin2.inl

; 630  : 	{ ASSERT(::IsWindow(m_hWnd)); ::SendMessage(m_hWnd, BM_SETCHECK, nCheck, 0); }

  012fc	6a 00		 push	 0
; File D:\git\src\IBK\IBK_DRFN\ProjSrc\SrcChartEx\ChartAddIn\ChartAnalysisToolAddIn\AnalysisTool\DlgAnalysisToolSet.cpp

; 598  : 			m_ctrlRightText.SetCheck(m_pTextVPosition->GetBottom());

  012fe	0f b6 c0	 movzx	 eax, al
; File C:\Program Files (x86)\Microsoft Visual Studio\2019\Community\VC\Tools\MSVC\14.29.30133\atlmfc\include\afxwin2.inl

; 630  : 	{ ASSERT(::IsWindow(m_hWnd)); ::SendMessage(m_hWnd, BM_SETCHECK, nCheck, 0); }

  01301	50		 push	 eax
  01302	68 f1 00 00 00	 push	 241			; 000000f1H
  01307	ff b3 70 03 00
	00		 push	 DWORD PTR [ebx+880]
  0130d	ff d7		 call	 edi
; File D:\git\src\IBK\IBK_DRFN\ProjSrc\SrcChartEx\ChartAddIn\ChartAnalysisToolAddIn\AnalysisTool\DlgAnalysisToolSet.cpp

; 600  : 			m_stAnalysisTool.nTopText = m_pTextVPosition->GetTop();

  0130f	8b 8b 34 0d 00
	00		 mov	 ecx, DWORD PTR [ebx+3380]
  01315	e8 00 00 00 00	 call	 ?GetTop@CTextVertPosition@@QBE_NXZ ; CTextVertPosition::GetTop

; 601  : 			m_stAnalysisTool.nBottomText = m_pTextVPosition->GetBottom();

  0131a	8b 8b 34 0d 00
	00		 mov	 ecx, DWORD PTR [ebx+3380]
  01320	0f b6 c0	 movzx	 eax, al
  01323	89 83 ac 0c 00
	00		 mov	 DWORD PTR [ebx+3244], eax
  01329	e8 00 00 00 00	 call	 ?GetBottom@CTextVertPosition@@QBE_NXZ ; CTextVertPosition::GetBottom
  0132e	0f b6 c0	 movzx	 eax, al

; 602  : 		}

  01331	8d 4d cc	 lea	 ecx, DWORD PTR _strTitle$21[ebp]
  01334	89 83 b0 0c 00
	00		 mov	 DWORD PTR [ebx+3248], eax
  0133a	ff 15 00 00 00
	00		 call	 DWORD PTR __imp_??1?$CStringT@DV?$StrTraitMFC_DLL@DV?$ChTraitsCRT@D@ATL@@@@@ATL@@QAE@XZ
; File D:\git\src\IBK\IBK_DRFN\ProjSrc\SrcChartEx\ChartAddIn\ChartAnalysisToolAddIn\Include_Chart\Dll_Load\IMetaTable.h

; 1038 : 	{

  01340	c7 45 fc 06 00
	00 00		 mov	 DWORD PTR __$EHRec$[ebp+8], 6
; File D:\git\src\IBK\IBK_DRFN\ProjSrc\SrcChartEx\ChartAddIn\ChartAnalysisToolAddIn\AnalysisTool\DlgAnalysisToolSet.cpp

; 602  : 		}

  01347	e9 b9 00 00 00	 jmp	 $LN387@Initialize
$LN19@Initialize:

; 603  : 		else
; 604  : 		{
; 605  : 			// 2008.08.20   =>	 Text  <<
; 606  : 			/*
; 607  : 			GetDlgItem(IDC_TEXT_STATIC)->ShowWindow(SW_HIDE);
; 608  : 			m_ctrlLeftText.ShowWindow(SW_HIDE);
; 609  : 			m_ctrlRightText.ShowWindow(SW_HIDE);
; 610  : 			*/
; 611  : 			m_nTextPosType = G_TEXT_POS_ONE;

  0134c	c7 83 04 0d 00
	00 00 00 00 00	 mov	 DWORD PTR [ebx+3332], 0

; 612  : 			
; 613  : 			ML_SET_LANGUAGE_RES();

  01356	e8 00 00 00 00	 call	 ?AfxGetStaticModuleState@@YGPAVAFX_MODULE_STATE@@XZ ; AfxGetStaticModuleState
  0135b	b9 00 00 00 00	 mov	 ecx, OFFSET ?g_iMetaTable@@3VIMetaTable@@A ; g_iMetaTable
  01360	8b 40 08	 mov	 eax, DWORD PTR [eax+8]
  01363	50		 push	 eax
  01364	ff b3 90 0d 00
	00		 push	 DWORD PTR [ebx+3472]
  0136a	e8 00 00 00 00	 call	 ?LoadResourceDLL@IMetaTable@@QAEPAUHINSTANCE__@@PAUHWND__@@PAU2@@Z ; IMetaTable::LoadResourceDLL
  0136f	8b f8		 mov	 edi, eax
; File C:\Program Files (x86)\Microsoft Visual Studio\2019\Community\VC\Tools\MSVC\14.29.30133\atlmfc\include\afxwin1.inl

; 25   : 		return afxCurrentResourceHandle; }

  01371	e8 00 00 00 00	 call	 ?AfxGetModuleState@@YGPAVAFX_MODULE_STATE@@XZ ; AfxGetModuleState
; File D:\git\src\IBK\IBK_DRFN\ProjSrc\SrcChartEx\ChartAddIn\ChartAnalysisToolAddIn\Include_Chart\Dll_Load\IMetaTable.h

; 1034 : 		m_hInstance = AfxGetResourceHandle();

  01376	8b 70 0c	 mov	 esi, DWORD PTR [eax+12]
  01379	89 75 c8	 mov	 DWORD PTR ___mlrs__$14[ebp], esi
; File C:\Program Files (x86)\Microsoft Visual Studio\2019\Community\VC\Tools\MSVC\14.29.30133\atlmfc\include\afxwin1.inl

; 27   : 	{ ASSERT(hInstResource != NULL); afxCurrentResourceHandle = hInstResource; }

  0137c	e8 00 00 00 00	 call	 ?AfxGetModuleState@@YGPAVAFX_MODULE_STATE@@XZ ; AfxGetModuleState
  01381	89 78 0c	 mov	 DWORD PTR [eax+12], edi
; File D:\git\src\IBK\IBK_DRFN\ProjSrc\SrcChartEx\ChartAddIn\ChartAnalysisToolAddIn\AnalysisTool\DlgAnalysisToolSet.cpp

; 615  : 			CString strTitle;

  01384	8d 4d cc	 lea	 ecx, DWORD PTR _strTitle$20[ebp]
  01387	c7 45 fc 07 00
	00 00		 mov	 DWORD PTR __$EHRec$[ebp+8], 7
  0138e	ff 15 00 00 00
	00		 call	 DWORD PTR __imp_??0?$CStringT@DV?$StrTraitMFC_DLL@DV?$ChTraitsCRT@D@ATL@@@@@ATL@@QAE@XZ

; 616  : 			strTitle.LoadString(IDS_SHOW);

  01394	6a 04		 push	 4
  01396	8d 4d cc	 lea	 ecx, DWORD PTR _strTitle$20[ebp]
  01399	c6 45 fc 08	 mov	 BYTE PTR __$EHRec$[ebp+8], 8
  0139d	ff 15 00 00 00
	00		 call	 DWORD PTR __imp_?LoadStringA@?$CStringT@DV?$StrTraitMFC_DLL@DV?$ChTraitsCRT@D@ATL@@@@@ATL@@QAEHI@Z

; 617  : 			SetDlgItemText(IDC_CHECK_TEXT_LEFT,strTitle);

  013a3	ff 75 cc	 push	 DWORD PTR _strTitle$20[ebp]
  013a6	8b cb		 mov	 ecx, ebx
  013a8	68 a0 0f 00 00	 push	 4000			; 00000fa0H
  013ad	e8 00 00 00 00	 call	 ?SetDlgItemTextA@CWnd@@QAEXHPBD@Z ; CWnd::SetDlgItemTextA

; 618  : 			
; 619  : 			m_ctrlRightText.ShowWindow(SW_HIDE);		

  013b2	6a 00		 push	 0
  013b4	8d 8b 50 03 00
	00		 lea	 ecx, DWORD PTR [ebx+848]
  013ba	e8 00 00 00 00	 call	 ?ShowWindow@CWnd@@QAEHH@Z ; CWnd::ShowWindow

; 620  : 			m_ctrlLeftText.SetCheck(m_pTextPosition->IsShow());

  013bf	8b 8b 2c 0d 00
	00		 mov	 ecx, DWORD PTR [ebx+3372]
  013c5	e8 00 00 00 00	 call	 ?IsShow@CTextShowPosition@@QBE_NXZ ; CTextShowPosition::IsShow
; File C:\Program Files (x86)\Microsoft Visual Studio\2019\Community\VC\Tools\MSVC\14.29.30133\atlmfc\include\afxwin2.inl

; 630  : 	{ ASSERT(::IsWindow(m_hWnd)); ::SendMessage(m_hWnd, BM_SETCHECK, nCheck, 0); }

  013ca	6a 00		 push	 0
; File D:\git\src\IBK\IBK_DRFN\ProjSrc\SrcChartEx\ChartAddIn\ChartAnalysisToolAddIn\AnalysisTool\DlgAnalysisToolSet.cpp

; 620  : 			m_ctrlLeftText.SetCheck(m_pTextPosition->IsShow());

  013cc	0f b6 c0	 movzx	 eax, al
; File C:\Program Files (x86)\Microsoft Visual Studio\2019\Community\VC\Tools\MSVC\14.29.30133\atlmfc\include\afxwin2.inl

; 630  : 	{ ASSERT(::IsWindow(m_hWnd)); ::SendMessage(m_hWnd, BM_SETCHECK, nCheck, 0); }

  013cf	50		 push	 eax
  013d0	68 f1 00 00 00	 push	 241			; 000000f1H
  013d5	ff b3 f0 02 00
	00		 push	 DWORD PTR [ebx+752]
  013db	ff 15 00 00 00
	00		 call	 DWORD PTR __imp__SendMessageA@16
; File D:\git\src\IBK\IBK_DRFN\ProjSrc\SrcChartEx\ChartAddIn\ChartAnalysisToolAddIn\AnalysisTool\DlgAnalysisToolSet.cpp

; 622  : 			m_stAnalysisTool.nLeftText = m_pTextPosition->IsShow();

  013e1	8b 8b 2c 0d 00
	00		 mov	 ecx, DWORD PTR [ebx+3372]
  013e7	e8 00 00 00 00	 call	 ?IsShow@CTextShowPosition@@QBE_NXZ ; CTextShowPosition::IsShow
  013ec	0f b6 c0	 movzx	 eax, al

; 623  : 			//>>
; 624  : 		}

  013ef	8d 4d cc	 lea	 ecx, DWORD PTR _strTitle$20[ebp]
  013f2	89 83 a0 0c 00
	00		 mov	 DWORD PTR [ebx+3232], eax
  013f8	ff 15 00 00 00
	00		 call	 DWORD PTR __imp_??1?$CStringT@DV?$StrTraitMFC_DLL@DV?$ChTraitsCRT@D@ATL@@@@@ATL@@QAE@XZ
; File D:\git\src\IBK\IBK_DRFN\ProjSrc\SrcChartEx\ChartAddIn\ChartAnalysisToolAddIn\Include_Chart\Dll_Load\IMetaTable.h

; 1038 : 	{

  013fe	c7 45 fc 09 00
	00 00		 mov	 DWORD PTR __$EHRec$[ebp+8], 9
$LN387@Initialize:
; File D:\git\src\IBK\IBK_DRFN\ProjSrc\SrcChartEx\ChartAddIn\ChartAnalysisToolAddIn\AnalysisTool\DlgAnalysisToolSet.cpp

; 627  : 		m_ctrlEditValue1.EnableWindow(FALSE);

  01405	e8 00 00 00 00	 call	 ?AfxGetModuleState@@YGPAVAFX_MODULE_STATE@@XZ ; AfxGetModuleState
  0140a	6a 00		 push	 0
  0140c	8d 8b 50 09 00
	00		 lea	 ecx, DWORD PTR [ebx+2384]
  01412	c7 45 fc ff ff
	ff ff		 mov	 DWORD PTR __$EHRec$[ebp+8], -1
  01419	89 70 0c	 mov	 DWORD PTR [eax+12], esi
  0141c	e8 00 00 00 00	 call	 ?EnableWindow@CWnd@@QAEHH@Z ; CWnd::EnableWindow
$LN383@Initialize:

; 853  : 	}
; 854  : 
; 855  : 	if((CToolEnumData::ElementType)m_nElementType != CToolEnumData::Pencil_Line)

  01421	6a 00		 push	 0
  01423	8d 8b 50 0b 00
	00		 lea	 ecx, DWORD PTR [ebx+2896]
  01429	e8 00 00 00 00	 call	 ?ShowWindow@CWnd@@QAEHH@Z ; CWnd::ShowWindow
  0142e	6a 00		 push	 0
  01430	8d 8b d0 09 00
	00		 lea	 ecx, DWORD PTR [ebx+2512]
  01436	e8 00 00 00 00	 call	 ?ShowWindow@CWnd@@QAEHH@Z ; CWnd::ShowWindow
  0143b	6a 00		 push	 0
  0143d	68 ab 0f 00 00	 push	 4011			; 00000fabH
  01442	8b cb		 mov	 ecx, ebx
  01444	e8 00 00 00 00	 call	 ?GetDlgItem@CWnd@@QBEPAV1@H@Z ; CWnd::GetDlgItem
  01449	8b c8		 mov	 ecx, eax
  0144b	e8 00 00 00 00	 call	 ?ShowWindow@CWnd@@QAEHH@Z ; CWnd::ShowWindow
  01450	6a 00		 push	 0
  01452	68 ae 0f 00 00	 push	 4014			; 00000faeH
  01457	8b cb		 mov	 ecx, ebx
  01459	e8 00 00 00 00	 call	 ?GetDlgItem@CWnd@@QBEPAV1@H@Z ; CWnd::GetDlgItem
  0145e	8b c8		 mov	 ecx, eax
$LN386@Initialize:
  01460	e8 00 00 00 00	 call	 ?ShowWindow@CWnd@@QAEHH@Z ; CWnd::ShowWindow
$LN43@Initialize:
  01465	83 bb 18 0d 00
	00 23		 cmp	 DWORD PTR [ebx+3352], 35 ; 00000023H
  0146c	0f 84 a6 01 00
	00		 je	 $LN5@Initialize

; 856  : 	{
; 857  : 		if(m_pElementPointList != NULL)

  01472	8b 8b 00 0d 00
	00		 mov	 ecx, DWORD PTR [ebx+3328]
  01478	85 c9		 test	 ecx, ecx
  0147a	0f 84 98 01 00
	00		 je	 $LN5@Initialize

; 858  : 		{
; 859  : 			CCoordinate *pCoordinate = NULL;
; 860  : 			for(int i=0;i<m_pElementPointList->GetCount();i++)

  01480	33 f6		 xor	 esi, esi
  01482	89 75 c4	 mov	 DWORD PTR _i$1$[ebp], esi
  01485	e8 00 00 00 00	 call	 ?GetCount@CElementPointList@@QBEHXZ ; CElementPointList::GetCount
  0148a	85 c0		 test	 eax, eax
  0148c	0f 8e 86 01 00
	00		 jle	 $LN5@Initialize
  01492	8d bb 64 0c 00
	00		 lea	 edi, DWORD PTR [ebx+3172]
  01498	0f 1f 84 00 00
	00 00 00	 npad	 8
$LL6@Initialize:

; 861  : 			{
; 862  : 				pCoordinate = m_pElementPointList->GetAt(i);

  014a0	8b 8b 00 0d 00
	00		 mov	 ecx, DWORD PTR [ebx+3328]
  014a6	56		 push	 esi
  014a7	e8 00 00 00 00	 call	 ?GetAt@CElementPointList@@QAEPAVCCoordinate@@H@Z ; CElementPointList::GetAt

; 867  : 				double dX = pCoordinate->GetX();

  014ac	8b c8		 mov	 ecx, eax
  014ae	89 45 c8	 mov	 DWORD PTR _pCoordinate$1$[ebp], eax
  014b1	e8 00 00 00 00	 call	 ?GetX@CCoordinate@@QBENXZ ; CCoordinate::GetX
; File C:\Program Files (x86)\Microsoft Visual Studio\2019\Community\VC\Tools\MSVC\14.29.30133\atlmfc\include\cstringt.h

; 2486 : 		return(str1.Compare(psz2) == 0);

  014b6	68 00 00 00 00	 push	 OFFSET ??_C@_0P@IMPIBBAB@YYYYMMDDHHMMSS@
  014bb	8b cf		 mov	 ecx, edi
; File D:\git\src\IBK\IBK_DRFN\ProjSrc\SrcChartEx\ChartAddIn\ChartAnalysisToolAddIn\AnalysisTool\DlgAnalysisToolSet.cpp

; 867  : 				double dX = pCoordinate->GetX();

  014bd	dd 5d e8	 fstp	 QWORD PTR _dX$24[ebp]
; File C:\Program Files (x86)\Microsoft Visual Studio\2019\Community\VC\Tools\MSVC\14.29.30133\atlmfc\include\cstringt.h

; 2486 : 		return(str1.Compare(psz2) == 0);

  014c0	ff 15 00 00 00
	00		 call	 DWORD PTR __imp_?Compare@?$CStringT@DV?$StrTraitMFC_DLL@DV?$ChTraitsCRT@D@ATL@@@@@ATL@@QBEHPBD@Z
  014c6	85 c0		 test	 eax, eax
; File D:\git\src\IBK\IBK_DRFN\ProjSrc\SrcChartEx\ChartAddIn\ChartAnalysisToolAddIn\AnalysisTool\DlgAnalysisToolSet.cpp

; 868  : 				if (m_strFormatX == _T("YYYYMMDDHHMMSS"))

  014c8	75 7c		 jne	 SHORT $LN52@Initialize

; 869  : 				{
; 870  : 					if( m_nDataPeriod == CScaleBaseData::HORZ_WEEKLEY	||

  014ca	8b 83 6c 0c 00
	00		 mov	 eax, DWORD PTR [ebx+3180]
  014d0	83 f8 02	 cmp	 eax, 2
  014d3	74 05		 je	 SHORT $LN379@Initialize
  014d5	83 f8 03	 cmp	 eax, 3
  014d8	75 6c		 jne	 SHORT $LN52@Initialize
$LN379@Initialize:

; 871  : 						m_nDataPeriod == CScaleBaseData::HORZ_MONTHLY)
; 872  : 					{
; 873  : 						// ,     .
; 874  : 						IChartManager *pIChartManager = m_pIChartOCX->GetIChartManager();

  014da	8b 8b 58 0c 00
	00		 mov	 ecx, DWORD PTR [ebx+3160]
  014e0	8b 01		 mov	 eax, DWORD PTR [ecx]
  014e2	ff 50 18	 call	 DWORD PTR [eax+24]
  014e5	89 45 cc	 mov	 DWORD PTR _pIChartManager$1$[ebp], eax

; 875  : 						if (pIChartManager) 

  014e8	85 c0		 test	 eax, eax
  014ea	74 5a		 je	 SHORT $LN52@Initialize

; 876  : 						{
; 877  : 							// 
; 878  : 							int nRow = m_blockIndex.GetRow();
; 879  : 							int nCol = m_blockIndex.GetColumn();
; 880  : 
; 881  : 							int nCenter_x;
; 882  : 							int nOrgXPos		= pIChartManager->GetXFromDouble(nRow, nCol, dX, nCenter_x);

  014ec	f2 0f 10 45 e8	 movsd	 xmm0, QWORD PTR _dX$24[ebp]
  014f1	8d 4d bc	 lea	 ecx, DWORD PTR _nCenter_x$5[ebp]
  014f4	8b b3 60 0c 00
	00		 mov	 esi, DWORD PTR [ebx+3168]
  014fa	8b 10		 mov	 edx, DWORD PTR [eax]
  014fc	8b bb 5c 0c 00
	00		 mov	 edi, DWORD PTR [ebx+3164]
  01502	51		 push	 ecx
  01503	83 ec 08	 sub	 esp, 8
  01506	8b c8		 mov	 ecx, eax
  01508	f2 0f 11 04 24	 movsd	 QWORD PTR [esp], xmm0
  0150d	56		 push	 esi
  0150e	57		 push	 edi
  0150f	ff 92 14 01 00
	00		 call	 DWORD PTR [edx+276]

; 883  : 
; 884  : 							int nBlockColumn;
; 885  : 							double dModifyData	= pIChartManager->GetDoubleFromX(nRow, nCol, nOrgXPos, &nBlockColumn, nCenter_x);

  01515	8b 55 cc	 mov	 edx, DWORD PTR _pIChartManager$1$[ebp]
  01518	8d 4d bc	 lea	 ecx, DWORD PTR _nCenter_x$5[ebp]
  0151b	6a 00		 push	 0
  0151d	51		 push	 ecx
  0151e	8d 4d b0	 lea	 ecx, DWORD PTR _nBlockColumn$2[ebp]
  01521	8b 12		 mov	 edx, DWORD PTR [edx]
  01523	51		 push	 ecx
  01524	50		 push	 eax
  01525	56		 push	 esi
  01526	8b 75 cc	 mov	 esi, DWORD PTR _pIChartManager$1$[ebp]
  01529	8b ce		 mov	 ecx, esi
  0152b	8b 82 10 01 00
	00		 mov	 eax, DWORD PTR [edx+272]
  01531	57		 push	 edi
  01532	ff d0		 call	 eax

; 886  : 							dX = dModifyData;
; 887  : 
; 888  : 							pIChartManager->Release();

  01534	8b 06		 mov	 eax, DWORD PTR [esi]
  01536	56		 push	 esi
  01537	dd 5d e8	 fstp	 QWORD PTR _dX$24[ebp]
  0153a	ff 50 08	 call	 DWORD PTR [eax+8]
  0153d	8b 75 c4	 mov	 esi, DWORD PTR _i$1$[ebp]
  01540	8d bb 64 0c 00
	00		 lea	 edi, DWORD PTR [ebx+3172]
$LN52@Initialize:

; 889  : 							pIChartManager = NULL;
; 890  : 						}
; 891  : 					}
; 892  : 				}
; 893  : 
; 894  : 				SetXDateTime(dX,i);

  01546	f2 0f 10 45 e8	 movsd	 xmm0, QWORD PTR _dX$24[ebp]
  0154b	8b cb		 mov	 ecx, ebx
  0154d	56		 push	 esi
  0154e	83 ec 08	 sub	 esp, 8
  01551	f2 0f 11 04 24	 movsd	 QWORD PTR [esp], xmm0
  01556	e8 00 00 00 00	 call	 ?SetXDateTime@CDlgAnalysisToolSet@@IAEXNH@Z ; CDlgAnalysisToolSet::SetXDateTime

; 895  : 				// 2011.02.08 by SYS <<
; 896  : 
; 897  : 				SetYValue(pCoordinate->GetY(),i);

  0155b	8b 4d c8	 mov	 ecx, DWORD PTR _pCoordinate$1$[ebp]
  0155e	e8 00 00 00 00	 call	 ?GetY@CCoordinate@@QBENXZ ; CCoordinate::GetY

; 1240 : 	CString strYValue;

  01563	8d 4d c0	 lea	 ecx, DWORD PTR _strYValue$6[ebp]

; 895  : 				// 2011.02.08 by SYS <<
; 896  : 
; 897  : 				SetYValue(pCoordinate->GetY(),i);

  01566	dd 5d a8	 fstp	 QWORD PTR _dYValue$[ebp]

; 1240 : 	CString strYValue;

  01569	ff 15 00 00 00
	00		 call	 DWORD PTR __imp_??0?$CStringT@DV?$StrTraitMFC_DLL@DV?$ChTraitsCRT@D@ATL@@@@@ATL@@QAE@XZ

; 1241 : 	// 20080911 	       
; 1242 : 	//	strYValue.Format(_T("%.f"),dYValue);
; 1243 : 	// 2008.10.15 by LYH >> 8,32bit
; 1244 : 	//strYValue.Format(_T("%f"),dYValue);
; 1245 : 	strYValue = CDataConversion::DoubleToString(dYValue, m_pDataEnvironment->GetStrVert());

  0156f	8b 8b 88 0d 00
	00		 mov	 ecx, DWORD PTR [ebx+3464]
  01575	8d 45 b4	 lea	 eax, DWORD PTR $T3[ebp]
  01578	50		 push	 eax
  01579	c7 45 fc 16 00
	00 00		 mov	 DWORD PTR __$EHRec$[ebp+8], 22 ; 00000016H
  01580	e8 00 00 00 00	 call	 ?GetStrVert@CDataTypeEnvironment@@QBE?AV?$CStringT@DV?$StrTraitMFC_DLL@DV?$ChTraitsCRT@D@ATL@@@@@ATL@@XZ ; CDataTypeEnvironment::GetStrVert
  01585	50		 push	 eax
  01586	8d 45 a8	 lea	 eax, DWORD PTR _dYValue$[ebp]
  01589	c6 45 fc 17	 mov	 BYTE PTR __$EHRec$[ebp+8], 23 ; 00000017H
  0158d	50		 push	 eax
  0158e	8d 45 b8	 lea	 eax, DWORD PTR $T4[ebp]
  01591	50		 push	 eax
  01592	e8 00 00 00 00	 call	 ?DoubleToString@CDataConversion@@SA?AV?$CStringT@DV?$StrTraitMFC_DLL@DV?$ChTraitsCRT@D@ATL@@@@@ATL@@ABNABV23@@Z ; CDataConversion::DoubleToString
  01597	83 c4 0c	 add	 esp, 12			; 0000000cH
  0159a	50		 push	 eax
  0159b	8d 4d c0	 lea	 ecx, DWORD PTR _strYValue$6[ebp]
  0159e	c6 45 fc 18	 mov	 BYTE PTR __$EHRec$[ebp+8], 24 ; 00000018H
  015a2	ff 15 00 00 00
	00		 call	 DWORD PTR __imp_??4?$CStringT@DV?$StrTraitMFC_DLL@DV?$ChTraitsCRT@D@ATL@@@@@ATL@@QAEAAV01@ABV01@@Z
  015a8	8d 4d b8	 lea	 ecx, DWORD PTR $T4[ebp]
  015ab	ff 15 00 00 00
	00		 call	 DWORD PTR __imp_??1?$CStringT@DV?$StrTraitMFC_DLL@DV?$ChTraitsCRT@D@ATL@@@@@ATL@@QAE@XZ
  015b1	8d 4d b4	 lea	 ecx, DWORD PTR $T3[ebp]
  015b4	c6 45 fc 16	 mov	 BYTE PTR __$EHRec$[ebp+8], 22 ; 00000016H
  015b8	ff 15 00 00 00
	00		 call	 DWORD PTR __imp_??1?$CStringT@DV?$StrTraitMFC_DLL@DV?$ChTraitsCRT@D@ATL@@@@@ATL@@QAE@XZ
; File C:\Program Files (x86)\Microsoft Visual Studio\2019\Community\VC\Tools\MSVC\14.29.30133\atlmfc\include\atlsimpstr.h

; 519  : 		return( GetData()->nDataLength );

  015be	8b 45 c0	 mov	 eax, DWORD PTR _strYValue$6[ebp]

; 533  : 		return( GetLength() == 0 );

  015c1	83 78 f4 00	 cmp	 DWORD PTR [eax-12], 0
; File D:\git\src\IBK\IBK_DRFN\ProjSrc\SrcChartEx\ChartAddIn\ChartAnalysisToolAddIn\AnalysisTool\DlgAnalysisToolSet.cpp

; 1247 : 	if(strYValue.IsEmpty() == FALSE)

  015c5	74 2a		 je	 SHORT $LN359@Initialize

; 1248 : 	{	
; 1249 : 		if(nIndex == 0)

  015c7	85 f6		 test	 esi, esi
  015c9	75 08		 jne	 SHORT $LN355@Initialize

; 1250 : 			m_ctrlEditValue1.SetWindowText(strYValue);	

  015cb	8d 8b 50 09 00
	00		 lea	 ecx, DWORD PTR [ebx+2384]
  015d1	eb 18		 jmp	 SHORT $LN389@Initialize
$LN355@Initialize:

; 1251 : 		else if(nIndex == 1)

  015d3	83 fe 01	 cmp	 esi, 1
  015d6	75 08		 jne	 SHORT $LN357@Initialize

; 1252 : 			m_ctrlEditValue2.SetWindowText(strYValue);	

  015d8	8d 8b d0 09 00
	00		 lea	 ecx, DWORD PTR [ebx+2512]
  015de	eb 0b		 jmp	 SHORT $LN389@Initialize
$LN357@Initialize:

; 1253 : 		else if(nIndex == 2)

  015e0	83 fe 02	 cmp	 esi, 2
  015e3	75 0c		 jne	 SHORT $LN359@Initialize

; 1254 : 			m_ctrlEditValue3.SetWindowText(strYValue);	

  015e5	8d 8b 50 0a 00
	00		 lea	 ecx, DWORD PTR [ebx+2640]
$LN389@Initialize:

; 1255 : 	}
; 1256 : }

  015eb	50		 push	 eax
  015ec	e8 00 00 00 00	 call	 ?SetWindowTextA@CWnd@@QAEXPBD@Z ; CWnd::SetWindowTextA
$LN359@Initialize:
  015f1	8d 4d c0	 lea	 ecx, DWORD PTR _strYValue$6[ebp]
  015f4	c7 45 fc ff ff
	ff ff		 mov	 DWORD PTR __$EHRec$[ebp+8], -1
  015fb	ff 15 00 00 00
	00		 call	 DWORD PTR __imp_??1?$CStringT@DV?$StrTraitMFC_DLL@DV?$ChTraitsCRT@D@ATL@@@@@ATL@@QAE@XZ

; 858  : 		{
; 859  : 			CCoordinate *pCoordinate = NULL;
; 860  : 			for(int i=0;i<m_pElementPointList->GetCount();i++)

  01601	8b 8b 00 0d 00
	00		 mov	 ecx, DWORD PTR [ebx+3328]
  01607	46		 inc	 esi
  01608	89 75 c4	 mov	 DWORD PTR _i$1$[ebp], esi
  0160b	e8 00 00 00 00	 call	 ?GetCount@CElementPointList@@QBEHXZ ; CElementPointList::GetCount
  01610	3b f0		 cmp	 esi, eax
  01612	0f 8c 88 fe ff
	ff		 jl	 $LL6@Initialize
$LN5@Initialize:

; 898  : 			}
; 899  : 		}
; 900  : 	}	
; 901  : }

  01618	8b 4d f4	 mov	 ecx, DWORD PTR __$EHRec$[ebp]
  0161b	64 89 0d 00 00
	00 00		 mov	 DWORD PTR fs:0, ecx
  01622	59		 pop	 ecx
  01623	5f		 pop	 edi
  01624	5e		 pop	 esi
  01625	5b		 pop	 ebx
  01626	8b 4d f0	 mov	 ecx, DWORD PTR __$ArrayPad$[ebp]
  01629	33 cd		 xor	 ecx, ebp
  0162b	e8 00 00 00 00	 call	 @__security_check_cookie@4
  01630	8b e5		 mov	 esp, ebp
  01632	5d		 pop	 ebp
  01633	c3		 ret	 0
_TEXT	ENDS
;	COMDAT text$x
text$x	SEGMENT
__unwindfunclet$?InitializeData@CDlgAnalysisToolSet@@IAEXXZ$12:
  00000	8d 4d c8	 lea	 ecx, DWORD PTR ___mlrs__$9[ebp]
  00003	e9 00 00 00 00	 jmp	 ??1CMultiLanguageResourceSetter@@QAE@XZ ; CMultiLanguageResourceSetter::~CMultiLanguageResourceSetter
__unwindfunclet$?InitializeData@CDlgAnalysisToolSet@@IAEXXZ$14:
  00008	8d 4d c8	 lea	 ecx, DWORD PTR ___mlrs__$8[ebp]
  0000b	e9 00 00 00 00	 jmp	 ??1CMultiLanguageResourceSetter@@QAE@XZ ; CMultiLanguageResourceSetter::~CMultiLanguageResourceSetter
__unwindfunclet$?InitializeData@CDlgAnalysisToolSet@@IAEXXZ$6:
  00010	8d 4d c8	 lea	 ecx, DWORD PTR ___mlrs__$12[ebp]
  00013	e9 00 00 00 00	 jmp	 ??1CMultiLanguageResourceSetter@@QAE@XZ ; CMultiLanguageResourceSetter::~CMultiLanguageResourceSetter
__unwindfunclet$?InitializeData@CDlgAnalysisToolSet@@IAEXXZ$7:
  00018	8d 4d cc	 lea	 ecx, DWORD PTR _strTitle$18[ebp]
  0001b	ff 25 00 00 00
	00		 jmp	 DWORD PTR __imp_??1?$CStringT@DV?$StrTraitMFC_DLL@DV?$ChTraitsCRT@D@ATL@@@@@ATL@@QAE@XZ
__unwindfunclet$?InitializeData@CDlgAnalysisToolSet@@IAEXXZ$8:
  00021	8d 4d c8	 lea	 ecx, DWORD PTR ___mlrs__$11[ebp]
  00024	e9 00 00 00 00	 jmp	 ??1CMultiLanguageResourceSetter@@QAE@XZ ; CMultiLanguageResourceSetter::~CMultiLanguageResourceSetter
__unwindfunclet$?InitializeData@CDlgAnalysisToolSet@@IAEXXZ$9:
  00029	8d 4d cc	 lea	 ecx, DWORD PTR _strTitle$17[ebp]
  0002c	ff 25 00 00 00
	00		 jmp	 DWORD PTR __imp_??1?$CStringT@DV?$StrTraitMFC_DLL@DV?$ChTraitsCRT@D@ATL@@@@@ATL@@QAE@XZ
__unwindfunclet$?InitializeData@CDlgAnalysisToolSet@@IAEXXZ$10:
  00032	8d 4d c8	 lea	 ecx, DWORD PTR ___mlrs__$10[ebp]
  00035	e9 00 00 00 00	 jmp	 ??1CMultiLanguageResourceSetter@@QAE@XZ ; CMultiLanguageResourceSetter::~CMultiLanguageResourceSetter
__unwindfunclet$?InitializeData@CDlgAnalysisToolSet@@IAEXXZ$11:
  0003a	8d 4d cc	 lea	 ecx, DWORD PTR _strTitle$16[ebp]
  0003d	ff 25 00 00 00
	00		 jmp	 DWORD PTR __imp_??1?$CStringT@DV?$StrTraitMFC_DLL@DV?$ChTraitsCRT@D@ATL@@@@@ATL@@QAE@XZ
__unwindfunclet$?InitializeData@CDlgAnalysisToolSet@@IAEXXZ$4:
  00043	8d 4d c8	 lea	 ecx, DWORD PTR ___mlrs__$13[ebp]
  00046	e9 00 00 00 00	 jmp	 ??1CMultiLanguageResourceSetter@@QAE@XZ ; CMultiLanguageResourceSetter::~CMultiLanguageResourceSetter
__unwindfunclet$?InitializeData@CDlgAnalysisToolSet@@IAEXXZ$5:
  0004b	8d 4d cc	 lea	 ecx, DWORD PTR _strTitle$19[ebp]
  0004e	ff 25 00 00 00
	00		 jmp	 DWORD PTR __imp_??1?$CStringT@DV?$StrTraitMFC_DLL@DV?$ChTraitsCRT@D@ATL@@@@@ATL@@QAE@XZ
__unwindfunclet$?InitializeData@CDlgAnalysisToolSet@@IAEXXZ$0:
  00054	8d 4d c8	 lea	 ecx, DWORD PTR ___mlrs__$15[ebp]
  00057	e9 00 00 00 00	 jmp	 ??1CMultiLanguageResourceSetter@@QAE@XZ ; CMultiLanguageResourceSetter::~CMultiLanguageResourceSetter
__unwindfunclet$?InitializeData@CDlgAnalysisToolSet@@IAEXXZ$1:
  0005c	8d 4d cc	 lea	 ecx, DWORD PTR _strTitle$21[ebp]
  0005f	ff 25 00 00 00
	00		 jmp	 DWORD PTR __imp_??1?$CStringT@DV?$StrTraitMFC_DLL@DV?$ChTraitsCRT@D@ATL@@@@@ATL@@QAE@XZ
__unwindfunclet$?InitializeData@CDlgAnalysisToolSet@@IAEXXZ$2:
  00065	8d 4d c8	 lea	 ecx, DWORD PTR ___mlrs__$14[ebp]
  00068	e9 00 00 00 00	 jmp	 ??1CMultiLanguageResourceSetter@@QAE@XZ ; CMultiLanguageResourceSetter::~CMultiLanguageResourceSetter
__unwindfunclet$?InitializeData@CDlgAnalysisToolSet@@IAEXXZ$3:
  0006d	8d 4d cc	 lea	 ecx, DWORD PTR _strTitle$20[ebp]
  00070	ff 25 00 00 00
	00		 jmp	 DWORD PTR __imp_??1?$CStringT@DV?$StrTraitMFC_DLL@DV?$ChTraitsCRT@D@ATL@@@@@ATL@@QAE@XZ
__unwindfunclet$?InitializeData@CDlgAnalysisToolSet@@IAEXXZ$22:
  00076	8d 4d c0	 lea	 ecx, DWORD PTR _strYValue$6[ebp]
  00079	ff 25 00 00 00
	00		 jmp	 DWORD PTR __imp_??1?$CStringT@DV?$StrTraitMFC_DLL@DV?$ChTraitsCRT@D@ATL@@@@@ATL@@QAE@XZ
__unwindfunclet$?InitializeData@CDlgAnalysisToolSet@@IAEXXZ$23:
  0007f	8d 4d b4	 lea	 ecx, DWORD PTR $T3[ebp]
  00082	ff 25 00 00 00
	00		 jmp	 DWORD PTR __imp_??1?$CStringT@DV?$StrTraitMFC_DLL@DV?$ChTraitsCRT@D@ATL@@@@@ATL@@QAE@XZ
__unwindfunclet$?InitializeData@CDlgAnalysisToolSet@@IAEXXZ$24:
  00088	8d 4d b8	 lea	 ecx, DWORD PTR $T4[ebp]
  0008b	ff 25 00 00 00
	00		 jmp	 DWORD PTR __imp_??1?$CStringT@DV?$StrTraitMFC_DLL@DV?$ChTraitsCRT@D@ATL@@@@@ATL@@QAE@XZ
  00091	cc		 int	 3
  00092	cc		 int	 3
  00093	cc		 int	 3
  00094	cc		 int	 3
  00095	cc		 int	 3
__ehhandler$?InitializeData@CDlgAnalysisToolSet@@IAEXXZ:
  00096	90		 npad	 1
  00097	90		 npad	 1
  00098	8b 54 24 08	 mov	 edx, DWORD PTR [esp+8]
  0009c	8d 42 0c	 lea	 eax, DWORD PTR [edx+12]
  0009f	8b 4a a4	 mov	 ecx, DWORD PTR [edx-92]
  000a2	33 c8		 xor	 ecx, eax
  000a4	e8 00 00 00 00	 call	 @__security_check_cookie@4
  000a9	8b 4a fc	 mov	 ecx, DWORD PTR [edx-4]
  000ac	33 c8		 xor	 ecx, eax
  000ae	e8 00 00 00 00	 call	 @__security_check_cookie@4
  000b3	b8 00 00 00 00	 mov	 eax, OFFSET __ehfuncinfo$?InitializeData@CDlgAnalysisToolSet@@IAEXXZ
  000b8	e9 00 00 00 00	 jmp	 ___CxxFrameHandler3
text$x	ENDS
?InitializeData@CDlgAnalysisToolSet@@IAEXXZ ENDP	; CDlgAnalysisToolSet::InitializeData
; Function compile flags: /Ogtp
; File D:\git\src\IBK\IBK_DRFN\ProjSrc\SrcChartEx\ChartAddIn\ChartAnalysisToolAddIn\AnalysisTool\DlgAnalysisToolSet.cpp
;	COMDAT ?GetMessageMap@CDlgAnalysisToolSet@@MBEPBUAFX_MSGMAP@@XZ
_TEXT	SEGMENT
?GetMessageMap@CDlgAnalysisToolSet@@MBEPBUAFX_MSGMAP@@XZ PROC ; CDlgAnalysisToolSet::GetMessageMap, COMDAT
; _this$ = ecx

; 132  : BEGIN_MESSAGE_MAP(CDlgAnalysisToolSet, CDialog)

  00000	b8 00 00 00 00	 mov	 eax, OFFSET ?messageMap@?1??GetThisMessageMap@CDlgAnalysisToolSet@@KGPBUAFX_MSGMAP@@XZ@4U3@B
  00005	c3		 ret	 0
?GetMessageMap@CDlgAnalysisToolSet@@MBEPBUAFX_MSGMAP@@XZ ENDP ; CDlgAnalysisToolSet::GetMessageMap
_TEXT	ENDS
; Function compile flags: /Ogtp
; File D:\git\src\IBK\IBK_DRFN\ProjSrc\SrcChartEx\ChartAddIn\ChartAnalysisToolAddIn\AnalysisTool\DlgAnalysisToolSet.cpp
;	COMDAT ?GetThisMessageMap@CDlgAnalysisToolSet@@KGPBUAFX_MSGMAP@@XZ
_TEXT	SEGMENT
?GetThisMessageMap@CDlgAnalysisToolSet@@KGPBUAFX_MSGMAP@@XZ PROC ; CDlgAnalysisToolSet::GetThisMessageMap, COMDAT

; 133  : 	//{{AFX_MSG_MAP(CDlgAnalysisToolSet)
; 134  : 	ON_BN_CLICKED(IDC_COLOR, OnColor)
; 135  : 	ON_BN_CLICKED(IDC_APPLY_BT, OnApplyBt)
; 136  : 	ON_CBN_SELCHANGE(IDC_WIDTH, OnSelchangeWidth)
; 137  : 	ON_CBN_SELCHANGE(IDC_STYLE, OnSelchangeStyle)
; 138  : 	ON_NOTIFY(DTN_DATETIMECHANGE, IDC_DATETIMEPICKER_XDATE1, OnDatetimechangeDatetimepickerXdate1)
; 139  : 	ON_NOTIFY(DTN_DATETIMECHANGE, IDC_DATETIMEPICKER_XDATE2, OnDatetimechangeDatetimepickerXdate2)
; 140  : 	ON_NOTIFY(DTN_DATETIMECHANGE, IDC_DATETIMEPICKER_XDATE3, OnDatetimechangeDatetimepickerXdate3)
; 141  : 	ON_BN_CLICKED(IDC_OK_BT, OnOkBt)
; 142  : 	ON_BN_CLICKED(IDC_CANCEL_BT, OnCancelBt)
; 143  : 	ON_BN_CLICKED(IDC_CHECK_TEXT_RIGHT, OnRightText)
; 144  : 	//}}AFX_MSG_MAP
; 145  : END_MESSAGE_MAP()

  00000	b8 00 00 00 00	 mov	 eax, OFFSET ?messageMap@?1??GetThisMessageMap@CDlgAnalysisToolSet@@KGPBUAFX_MSGMAP@@XZ@4U3@B
  00005	c3		 ret	 0
?GetThisMessageMap@CDlgAnalysisToolSet@@KGPBUAFX_MSGMAP@@XZ ENDP ; CDlgAnalysisToolSet::GetThisMessageMap
_TEXT	ENDS
; Function compile flags: /Ogtp
; File D:\git\src\IBK\IBK_DRFN\ProjSrc\SrcChartEx\ChartAddIn\ChartAnalysisToolAddIn\AnalysisTool\DlgAnalysisToolSet.cpp
;	COMDAT ?OnCancelBt@CDlgAnalysisToolSet@@IAEXXZ
_TEXT	SEGMENT
?OnCancelBt@CDlgAnalysisToolSet@@IAEXXZ PROC		; CDlgAnalysisToolSet::OnCancelBt, COMDAT
; _this$ = ecx

; 1504 : {

  00000	56		 push	 esi
  00001	8b f1		 mov	 esi, ecx

; 1505 : 	ApplyOrgData();

  00003	e8 00 00 00 00	 call	 ?ApplyOrgData@CDlgAnalysisToolSet@@IAEXXZ ; CDlgAnalysisToolSet::ApplyOrgData

; 1506 : 	CDialog::OnCancel();

  00008	8b ce		 mov	 ecx, esi
  0000a	5e		 pop	 esi
  0000b	e9 00 00 00 00	 jmp	 ?OnCancel@CDialog@@MAEXXZ ; CDialog::OnCancel
?OnCancelBt@CDlgAnalysisToolSet@@IAEXXZ ENDP		; CDlgAnalysisToolSet::OnCancelBt
_TEXT	ENDS
; Function compile flags: /Ogtp
; File D:\git\src\IBK\IBK_DRFN\ProjSrc\SrcChartEx\ChartAddIn\ChartAnalysisToolAddIn\AnalysisTool\DlgAnalysisToolSet.cpp
;	COMDAT ?OnOkBt@CDlgAnalysisToolSet@@IAEXXZ
_TEXT	SEGMENT
?OnOkBt@CDlgAnalysisToolSet@@IAEXXZ PROC		; CDlgAnalysisToolSet::OnOkBt, COMDAT
; _this$ = ecx

; 1497 : {

  00000	56		 push	 esi
  00001	8b f1		 mov	 esi, ecx

; 1498 : 	ApplyData();

  00003	e8 00 00 00 00	 call	 ?ApplyData@CDlgAnalysisToolSet@@IAEXXZ ; CDlgAnalysisToolSet::ApplyData

; 1499 : 	SaveData();

  00008	8b ce		 mov	 ecx, esi
  0000a	e8 00 00 00 00	 call	 ?SaveData@CDlgAnalysisToolSet@@IAEXXZ ; CDlgAnalysisToolSet::SaveData

; 1500 : 	CDialog::OnOK();

  0000f	8b ce		 mov	 ecx, esi
  00011	5e		 pop	 esi
  00012	e9 00 00 00 00	 jmp	 ?OnOK@CDialog@@MAEXXZ	; CDialog::OnOK
?OnOkBt@CDlgAnalysisToolSet@@IAEXXZ ENDP		; CDlgAnalysisToolSet::OnOkBt
_TEXT	ENDS
; Function compile flags: /Ogtp
; File D:\git\src\IBK\IBK_DRFN\ProjSrc\SrcChartEx\ChartAddIn\ChartAnalysisToolAddIn\AnalysisTool\DlgAnalysisToolSet.cpp
; File C:\Program Files (x86)\Microsoft Visual Studio\2019\Community\VC\Tools\MSVC\14.29.30133\atlmfc\include\atltime.h
; File D:\git\src\IBK\IBK_DRFN\ProjSrc\SrcChartEx\ChartAddIn\ChartAnalysisToolAddIn\AnalysisTool\DlgAnalysisToolSet.cpp
; File C:\Program Files (x86)\Microsoft Visual Studio\2019\Community\VC\Tools\MSVC\14.29.30133\atlmfc\include\atltime.h
; File D:\git\src\IBK\IBK_DRFN\ProjSrc\SrcChartEx\ChartAddIn\ChartAnalysisToolAddIn\AnalysisTool\DlgAnalysisToolSet.cpp
;	COMDAT ?OnDatetimechangeDatetimepickerXdate3@CDlgAnalysisToolSet@@IAEXPAUtagNMHDR@@PAJ@Z
_TEXT	SEGMENT
_pResult$GSCopy$1$ = -148				; size = 4
$T2 = -144						; size = 8
_this$GSCopy$1$ = -140					; size = 4
_xTime$ = -136						; size = 8
_strXDate$ = -128					; size = 4
_ptmTemp$3 = -124					; size = 36
_ptmTemp$4 = -88					; size = 36
_ptmTemp$5 = -52					; size = 36
__$ArrayPad$ = -16					; size = 4
__$EHRec$ = -12						; size = 12
_pNMHDR$ = 8						; size = 4
_pResult$ = 12						; size = 4
?OnDatetimechangeDatetimepickerXdate3@CDlgAnalysisToolSet@@IAEXPAUtagNMHDR@@PAJ@Z PROC ; CDlgAnalysisToolSet::OnDatetimechangeDatetimepickerXdate3, COMDAT
; _this$ = ecx

; 1299 : {

  00000	55		 push	 ebp
  00001	8b ec		 mov	 ebp, esp
  00003	6a ff		 push	 -1
  00005	68 00 00 00 00	 push	 __ehhandler$?OnDatetimechangeDatetimepickerXdate3@CDlgAnalysisToolSet@@IAEXPAUtagNMHDR@@PAJ@Z
  0000a	64 a1 00 00 00
	00		 mov	 eax, DWORD PTR fs:0
  00010	50		 push	 eax
  00011	81 ec 88 00 00
	00		 sub	 esp, 136		; 00000088H
  00017	a1 00 00 00 00	 mov	 eax, DWORD PTR ___security_cookie
  0001c	33 c5		 xor	 eax, ebp
  0001e	89 45 f0	 mov	 DWORD PTR __$ArrayPad$[ebp], eax
  00021	53		 push	 ebx
  00022	56		 push	 esi
  00023	57		 push	 edi
  00024	50		 push	 eax
  00025	8d 45 f4	 lea	 eax, DWORD PTR __$EHRec$[ebp]
  00028	64 a3 00 00 00
	00		 mov	 DWORD PTR fs:0, eax
  0002e	8b d9		 mov	 ebx, ecx
  00030	89 9d 74 ff ff
	ff		 mov	 DWORD PTR _this$GSCopy$1$[ebp], ebx
  00036	8b 45 0c	 mov	 eax, DWORD PTR _pResult$[ebp]

; 1300 : 	CString strXDate;

  00039	8d 4d 80	 lea	 ecx, DWORD PTR _strXDate$[ebp]
  0003c	89 85 6c ff ff
	ff		 mov	 DWORD PTR _pResult$GSCopy$1$[ebp], eax
  00042	ff 15 00 00 00
	00		 call	 DWORD PTR __imp_??0?$CStringT@DV?$StrTraitMFC_DLL@DV?$ChTraitsCRT@D@ATL@@@@@ATL@@QAE@XZ

; 1302 : 	m_ctrlXDateTime3.GetTime(xTime);

  00048	8d 85 78 ff ff
	ff		 lea	 eax, DWORD PTR _xTime$[ebp]
  0004e	c7 45 fc 00 00
	00 00		 mov	 DWORD PTR __$EHRec$[ebp+8], 0
  00055	0f 57 c0	 xorps	 xmm0, xmm0
  00058	8d 8b d0 0b 00
	00		 lea	 ecx, DWORD PTR [ebx+3024]
  0005e	50		 push	 eax
; File C:\Program Files (x86)\Microsoft Visual Studio\2019\Community\VC\Tools\MSVC\14.29.30133\atlmfc\include\atltime.h

; 412  : 	m_time(0)

  0005f	66 0f 13 85 78
	ff ff ff	 movlpd	 QWORD PTR _xTime$[ebp], xmm0
; File D:\git\src\IBK\IBK_DRFN\ProjSrc\SrcChartEx\ChartAddIn\ChartAnalysisToolAddIn\AnalysisTool\DlgAnalysisToolSet.cpp

; 1302 : 	m_ctrlXDateTime3.GetTime(xTime);

  00067	e8 00 00 00 00	 call	 ?GetTime@CDateTimeCtrl@@QBEKAAVCTime@ATL@@@Z ; CDateTimeCtrl::GetTime
; File C:\Program Files (x86)\Microsoft Visual Studio\2019\Community\VC\Tools\MSVC\14.29.30133\atlmfc\include\atltime.h

; 614  : 		errno_t err = _localtime64_s(&ptmTemp, &m_time);

  0006c	8b 3d 00 00 00
	00		 mov	 edi, DWORD PTR __imp___localtime64_s
  00072	8d 85 78 ff ff
	ff		 lea	 eax, DWORD PTR _xTime$[ebp]
  00078	50		 push	 eax
  00079	8d 45 cc	 lea	 eax, DWORD PTR _ptmTemp$5[ebp]
  0007c	50		 push	 eax
  0007d	ff d7		 call	 edi

; 615  : 
; 616  : 		if (err != 0)

  0007f	33 db		 xor	 ebx, ebx
  00081	85 c0		 test	 eax, eax

; 614  : 		errno_t err = _localtime64_s(&ptmTemp, &m_time);

  00083	8d 85 78 ff ff
	ff		 lea	 eax, DWORD PTR _xTime$[ebp]

; 616  : 		if (err != 0)

  00089	0f 44 5d d8	 cmove	 ebx, DWORD PTR _ptmTemp$5[ebp+12]

; 614  : 		errno_t err = _localtime64_s(&ptmTemp, &m_time);

  0008d	50		 push	 eax
  0008e	8d 45 a8	 lea	 eax, DWORD PTR _ptmTemp$4[ebp]
  00091	50		 push	 eax
  00092	ff d7		 call	 edi
  00094	83 c4 10	 add	 esp, 16			; 00000010H

; 615  : 
; 616  : 		if (err != 0)

  00097	85 c0		 test	 eax, eax
  00099	75 06		 jne	 SHORT $LN25@OnDatetime

; 671  : 	return ptm ? ptm->tm_mon + 1 : 0;

  0009b	8b 75 b8	 mov	 esi, DWORD PTR _ptmTemp$4[ebp+16]
  0009e	46		 inc	 esi
  0009f	eb 02		 jmp	 SHORT $LN26@OnDatetime
$LN25@OnDatetime:
  000a1	33 f6		 xor	 esi, esi
$LN26@OnDatetime:

; 614  : 		errno_t err = _localtime64_s(&ptmTemp, &m_time);

  000a3	8d 85 78 ff ff
	ff		 lea	 eax, DWORD PTR _xTime$[ebp]
  000a9	50		 push	 eax
  000aa	8d 45 84	 lea	 eax, DWORD PTR _ptmTemp$3[ebp]
  000ad	50		 push	 eax
  000ae	ff d7		 call	 edi
  000b0	83 c4 08	 add	 esp, 8

; 615  : 
; 616  : 		if (err != 0)

  000b3	85 c0		 test	 eax, eax
  000b5	75 0a		 jne	 SHORT $LN41@OnDatetime

; 662  : 	return ptm ? (ptm->tm_year) + 1900 : 0 ;

  000b7	8b 45 98	 mov	 eax, DWORD PTR _ptmTemp$3[ebp+20]
  000ba	05 6c 07 00 00	 add	 eax, 1900		; 0000076cH
  000bf	eb 02		 jmp	 SHORT $LN42@OnDatetime
$LN41@OnDatetime:
  000c1	33 c0		 xor	 eax, eax
$LN42@OnDatetime:
; File D:\git\src\IBK\IBK_DRFN\ProjSrc\SrcChartEx\ChartAddIn\ChartAnalysisToolAddIn\AnalysisTool\DlgAnalysisToolSet.cpp

; 1309 : 	strXDate.Format(_T("%04d%02d%02d%s"),xTime.GetYear(),xTime.GetMonth(),xTime.GetDay(), _T("000000"));

  000c3	68 00 00 00 00	 push	 OFFSET ??_C@_06GEKNBBDK@000000@
  000c8	53		 push	 ebx
  000c9	56		 push	 esi
  000ca	50		 push	 eax
  000cb	8d 45 80	 lea	 eax, DWORD PTR _strXDate$[ebp]
  000ce	68 00 00 00 00	 push	 OFFSET ??_C@_0P@NDLMDLNF@?$CF04d?$CF02d?$CF02d?$CFs@
  000d3	50		 push	 eax
  000d4	ff 15 00 00 00
	00		 call	 DWORD PTR __imp_?Format@?$CStringT@DV?$StrTraitMFC_DLL@DV?$ChTraitsCRT@D@ATL@@@@@ATL@@QAAXPBDZZ

; 1310 : 	__int64 lMakeTime = _atoi64(strXDate);

  000da	ff 75 80	 push	 DWORD PTR _strXDate$[ebp]
  000dd	ff 15 00 00 00
	00		 call	 DWORD PTR __imp___atoi64

; 1311 : 	CCoordinate *pCoordinate = m_pElementPointList->GetAt(2);

  000e3	8b 8d 74 ff ff
	ff		 mov	 ecx, DWORD PTR _this$GSCopy$1$[ebp]
  000e9	83 c4 1c	 add	 esp, 28			; 0000001cH
  000ec	8b f8		 mov	 edi, eax
  000ee	8b f2		 mov	 esi, edx
  000f0	8b 89 00 0d 00
	00		 mov	 ecx, DWORD PTR [ecx+3328]
  000f6	6a 02		 push	 2
  000f8	e8 00 00 00 00	 call	 ?GetAt@CElementPointList@@QAEPAVCCoordinate@@H@Z ; CElementPointList::GetAt

; 1312 : 	pCoordinate->SetX((double)lMakeTime,2);

  000fd	8b d6		 mov	 edx, esi
  000ff	8b cf		 mov	 ecx, edi
  00101	8b d8		 mov	 ebx, eax
  00103	e8 00 00 00 00	 call	 __ltod3
  00108	6a 02		 push	 2
  0010a	8d 85 70 ff ff
	ff		 lea	 eax, DWORD PTR $T2[ebp]
  00110	f2 0f 11 85 70
	ff ff ff	 movsd	 QWORD PTR $T2[ebp], xmm0
  00118	50		 push	 eax
  00119	8b cb		 mov	 ecx, ebx
  0011b	e8 00 00 00 00	 call	 ?SetX@CCoordinate@@QAEXABNH@Z ; CCoordinate::SetX

; 1313 : 	// 2011.02.08 by SYS <<
; 1314 : 
; 1315 : 	*pResult = 0;

  00120	8b 85 6c ff ff
	ff		 mov	 eax, DWORD PTR _pResult$GSCopy$1$[ebp]

; 1316 : }

  00126	8d 4d 80	 lea	 ecx, DWORD PTR _strXDate$[ebp]
  00129	c7 00 00 00 00
	00		 mov	 DWORD PTR [eax], 0
  0012f	ff 15 00 00 00
	00		 call	 DWORD PTR __imp_??1?$CStringT@DV?$StrTraitMFC_DLL@DV?$ChTraitsCRT@D@ATL@@@@@ATL@@QAE@XZ
  00135	8b 4d f4	 mov	 ecx, DWORD PTR __$EHRec$[ebp]
  00138	64 89 0d 00 00
	00 00		 mov	 DWORD PTR fs:0, ecx
  0013f	59		 pop	 ecx
  00140	5f		 pop	 edi
  00141	5e		 pop	 esi
  00142	5b		 pop	 ebx
  00143	8b 4d f0	 mov	 ecx, DWORD PTR __$ArrayPad$[ebp]
  00146	33 cd		 xor	 ecx, ebp
  00148	e8 00 00 00 00	 call	 @__security_check_cookie@4
  0014d	8b e5		 mov	 esp, ebp
  0014f	5d		 pop	 ebp
  00150	c2 08 00	 ret	 8
_TEXT	ENDS
;	COMDAT text$x
text$x	SEGMENT
__unwindfunclet$?OnDatetimechangeDatetimepickerXdate3@CDlgAnalysisToolSet@@IAEXPAUtagNMHDR@@PAJ@Z$0:
  00000	8d 4d 80	 lea	 ecx, DWORD PTR _strXDate$[ebp]
  00003	ff 25 00 00 00
	00		 jmp	 DWORD PTR __imp_??1?$CStringT@DV?$StrTraitMFC_DLL@DV?$ChTraitsCRT@D@ATL@@@@@ATL@@QAE@XZ
  00009	cc		 int	 3
  0000a	cc		 int	 3
  0000b	cc		 int	 3
  0000c	cc		 int	 3
  0000d	cc		 int	 3
__ehhandler$?OnDatetimechangeDatetimepickerXdate3@CDlgAnalysisToolSet@@IAEXPAUtagNMHDR@@PAJ@Z:
  0000e	90		 npad	 1
  0000f	90		 npad	 1
  00010	8b 54 24 08	 mov	 edx, DWORD PTR [esp+8]
  00014	8d 42 0c	 lea	 eax, DWORD PTR [edx+12]
  00017	8b 8a 68 ff ff
	ff		 mov	 ecx, DWORD PTR [edx-152]
  0001d	33 c8		 xor	 ecx, eax
  0001f	e8 00 00 00 00	 call	 @__security_check_cookie@4
  00024	8b 4a fc	 mov	 ecx, DWORD PTR [edx-4]
  00027	33 c8		 xor	 ecx, eax
  00029	e8 00 00 00 00	 call	 @__security_check_cookie@4
  0002e	b8 00 00 00 00	 mov	 eax, OFFSET __ehfuncinfo$?OnDatetimechangeDatetimepickerXdate3@CDlgAnalysisToolSet@@IAEXPAUtagNMHDR@@PAJ@Z
  00033	e9 00 00 00 00	 jmp	 ___CxxFrameHandler3
text$x	ENDS
?OnDatetimechangeDatetimepickerXdate3@CDlgAnalysisToolSet@@IAEXPAUtagNMHDR@@PAJ@Z ENDP ; CDlgAnalysisToolSet::OnDatetimechangeDatetimepickerXdate3
; Function compile flags: /Ogtp
; File D:\git\src\IBK\IBK_DRFN\ProjSrc\SrcChartEx\ChartAddIn\ChartAnalysisToolAddIn\AnalysisTool\DlgAnalysisToolSet.cpp
; File C:\Program Files (x86)\Microsoft Visual Studio\2019\Community\VC\Tools\MSVC\14.29.30133\atlmfc\include\atltime.h
; File D:\git\src\IBK\IBK_DRFN\ProjSrc\SrcChartEx\ChartAddIn\ChartAnalysisToolAddIn\AnalysisTool\DlgAnalysisToolSet.cpp
; File C:\Program Files (x86)\Microsoft Visual Studio\2019\Community\VC\Tools\MSVC\14.29.30133\atlmfc\include\atltime.h
; File D:\git\src\IBK\IBK_DRFN\ProjSrc\SrcChartEx\ChartAddIn\ChartAnalysisToolAddIn\AnalysisTool\DlgAnalysisToolSet.cpp
;	COMDAT ?OnDatetimechangeDatetimepickerXdate2@CDlgAnalysisToolSet@@IAEXPAUtagNMHDR@@PAJ@Z
_TEXT	SEGMENT
_pResult$GSCopy$1$ = -148				; size = 4
$T2 = -144						; size = 8
_this$GSCopy$1$ = -140					; size = 4
_xTime$ = -136						; size = 8
_strXDate$ = -128					; size = 4
_ptmTemp$3 = -124					; size = 36
_ptmTemp$4 = -88					; size = 36
_ptmTemp$5 = -52					; size = 36
__$ArrayPad$ = -16					; size = 4
__$EHRec$ = -12						; size = 12
_pNMHDR$ = 8						; size = 4
_pResult$ = 12						; size = 4
?OnDatetimechangeDatetimepickerXdate2@CDlgAnalysisToolSet@@IAEXPAUtagNMHDR@@PAJ@Z PROC ; CDlgAnalysisToolSet::OnDatetimechangeDatetimepickerXdate2, COMDAT
; _this$ = ecx

; 1279 : {

  00000	55		 push	 ebp
  00001	8b ec		 mov	 ebp, esp
  00003	6a ff		 push	 -1
  00005	68 00 00 00 00	 push	 __ehhandler$?OnDatetimechangeDatetimepickerXdate2@CDlgAnalysisToolSet@@IAEXPAUtagNMHDR@@PAJ@Z
  0000a	64 a1 00 00 00
	00		 mov	 eax, DWORD PTR fs:0
  00010	50		 push	 eax
  00011	81 ec 88 00 00
	00		 sub	 esp, 136		; 00000088H
  00017	a1 00 00 00 00	 mov	 eax, DWORD PTR ___security_cookie
  0001c	33 c5		 xor	 eax, ebp
  0001e	89 45 f0	 mov	 DWORD PTR __$ArrayPad$[ebp], eax
  00021	53		 push	 ebx
  00022	56		 push	 esi
  00023	57		 push	 edi
  00024	50		 push	 eax
  00025	8d 45 f4	 lea	 eax, DWORD PTR __$EHRec$[ebp]
  00028	64 a3 00 00 00
	00		 mov	 DWORD PTR fs:0, eax
  0002e	8b d9		 mov	 ebx, ecx
  00030	89 9d 74 ff ff
	ff		 mov	 DWORD PTR _this$GSCopy$1$[ebp], ebx
  00036	8b 45 0c	 mov	 eax, DWORD PTR _pResult$[ebp]

; 1280 : 	CString strXDate;

  00039	8d 4d 80	 lea	 ecx, DWORD PTR _strXDate$[ebp]
  0003c	89 85 6c ff ff
	ff		 mov	 DWORD PTR _pResult$GSCopy$1$[ebp], eax
  00042	ff 15 00 00 00
	00		 call	 DWORD PTR __imp_??0?$CStringT@DV?$StrTraitMFC_DLL@DV?$ChTraitsCRT@D@ATL@@@@@ATL@@QAE@XZ

; 1282 : 	m_ctrlXDateTime2.GetTime(xTime);

  00048	8d 85 78 ff ff
	ff		 lea	 eax, DWORD PTR _xTime$[ebp]
  0004e	c7 45 fc 00 00
	00 00		 mov	 DWORD PTR __$EHRec$[ebp+8], 0
  00055	0f 57 c0	 xorps	 xmm0, xmm0
  00058	8d 8b 50 0b 00
	00		 lea	 ecx, DWORD PTR [ebx+2896]
  0005e	50		 push	 eax
; File C:\Program Files (x86)\Microsoft Visual Studio\2019\Community\VC\Tools\MSVC\14.29.30133\atlmfc\include\atltime.h

; 412  : 	m_time(0)

  0005f	66 0f 13 85 78
	ff ff ff	 movlpd	 QWORD PTR _xTime$[ebp], xmm0
; File D:\git\src\IBK\IBK_DRFN\ProjSrc\SrcChartEx\ChartAddIn\ChartAnalysisToolAddIn\AnalysisTool\DlgAnalysisToolSet.cpp

; 1282 : 	m_ctrlXDateTime2.GetTime(xTime);

  00067	e8 00 00 00 00	 call	 ?GetTime@CDateTimeCtrl@@QBEKAAVCTime@ATL@@@Z ; CDateTimeCtrl::GetTime
; File C:\Program Files (x86)\Microsoft Visual Studio\2019\Community\VC\Tools\MSVC\14.29.30133\atlmfc\include\atltime.h

; 614  : 		errno_t err = _localtime64_s(&ptmTemp, &m_time);

  0006c	8b 3d 00 00 00
	00		 mov	 edi, DWORD PTR __imp___localtime64_s
  00072	8d 85 78 ff ff
	ff		 lea	 eax, DWORD PTR _xTime$[ebp]
  00078	50		 push	 eax
  00079	8d 45 cc	 lea	 eax, DWORD PTR _ptmTemp$5[ebp]
  0007c	50		 push	 eax
  0007d	ff d7		 call	 edi

; 615  : 
; 616  : 		if (err != 0)

  0007f	33 db		 xor	 ebx, ebx
  00081	85 c0		 test	 eax, eax

; 614  : 		errno_t err = _localtime64_s(&ptmTemp, &m_time);

  00083	8d 85 78 ff ff
	ff		 lea	 eax, DWORD PTR _xTime$[ebp]

; 616  : 		if (err != 0)

  00089	0f 44 5d d8	 cmove	 ebx, DWORD PTR _ptmTemp$5[ebp+12]

; 614  : 		errno_t err = _localtime64_s(&ptmTemp, &m_time);

  0008d	50		 push	 eax
  0008e	8d 45 a8	 lea	 eax, DWORD PTR _ptmTemp$4[ebp]
  00091	50		 push	 eax
  00092	ff d7		 call	 edi
  00094	83 c4 10	 add	 esp, 16			; 00000010H

; 615  : 
; 616  : 		if (err != 0)

  00097	85 c0		 test	 eax, eax
  00099	75 06		 jne	 SHORT $LN25@OnDatetime

; 671  : 	return ptm ? ptm->tm_mon + 1 : 0;

  0009b	8b 75 b8	 mov	 esi, DWORD PTR _ptmTemp$4[ebp+16]
  0009e	46		 inc	 esi
  0009f	eb 02		 jmp	 SHORT $LN26@OnDatetime
$LN25@OnDatetime:
  000a1	33 f6		 xor	 esi, esi
$LN26@OnDatetime:

; 614  : 		errno_t err = _localtime64_s(&ptmTemp, &m_time);

  000a3	8d 85 78 ff ff
	ff		 lea	 eax, DWORD PTR _xTime$[ebp]
  000a9	50		 push	 eax
  000aa	8d 45 84	 lea	 eax, DWORD PTR _ptmTemp$3[ebp]
  000ad	50		 push	 eax
  000ae	ff d7		 call	 edi
  000b0	83 c4 08	 add	 esp, 8

; 615  : 
; 616  : 		if (err != 0)

  000b3	85 c0		 test	 eax, eax
  000b5	75 0a		 jne	 SHORT $LN41@OnDatetime

; 662  : 	return ptm ? (ptm->tm_year) + 1900 : 0 ;

  000b7	8b 45 98	 mov	 eax, DWORD PTR _ptmTemp$3[ebp+20]
  000ba	05 6c 07 00 00	 add	 eax, 1900		; 0000076cH
  000bf	eb 02		 jmp	 SHORT $LN42@OnDatetime
$LN41@OnDatetime:
  000c1	33 c0		 xor	 eax, eax
$LN42@OnDatetime:
; File D:\git\src\IBK\IBK_DRFN\ProjSrc\SrcChartEx\ChartAddIn\ChartAnalysisToolAddIn\AnalysisTool\DlgAnalysisToolSet.cpp

; 1289 : 	strXDate.Format(_T("%04d%02d%02d%s"),xTime.GetYear(),xTime.GetMonth(),xTime.GetDay(), _T("000000"));

  000c3	68 00 00 00 00	 push	 OFFSET ??_C@_06GEKNBBDK@000000@
  000c8	53		 push	 ebx
  000c9	56		 push	 esi
  000ca	50		 push	 eax
  000cb	8d 45 80	 lea	 eax, DWORD PTR _strXDate$[ebp]
  000ce	68 00 00 00 00	 push	 OFFSET ??_C@_0P@NDLMDLNF@?$CF04d?$CF02d?$CF02d?$CFs@
  000d3	50		 push	 eax
  000d4	ff 15 00 00 00
	00		 call	 DWORD PTR __imp_?Format@?$CStringT@DV?$StrTraitMFC_DLL@DV?$ChTraitsCRT@D@ATL@@@@@ATL@@QAAXPBDZZ

; 1290 : 	__int64 lMakeTime = _atoi64(strXDate);

  000da	ff 75 80	 push	 DWORD PTR _strXDate$[ebp]
  000dd	ff 15 00 00 00
	00		 call	 DWORD PTR __imp___atoi64

; 1291 : 	CCoordinate *pCoordinate = m_pElementPointList->GetAt(1);

  000e3	8b 8d 74 ff ff
	ff		 mov	 ecx, DWORD PTR _this$GSCopy$1$[ebp]
  000e9	83 c4 1c	 add	 esp, 28			; 0000001cH
  000ec	8b f8		 mov	 edi, eax
  000ee	8b f2		 mov	 esi, edx
  000f0	8b 89 00 0d 00
	00		 mov	 ecx, DWORD PTR [ecx+3328]
  000f6	6a 01		 push	 1
  000f8	e8 00 00 00 00	 call	 ?GetAt@CElementPointList@@QAEPAVCCoordinate@@H@Z ; CElementPointList::GetAt

; 1292 : 	pCoordinate->SetX((double)lMakeTime,1);

  000fd	8b d6		 mov	 edx, esi
  000ff	8b cf		 mov	 ecx, edi
  00101	8b d8		 mov	 ebx, eax
  00103	e8 00 00 00 00	 call	 __ltod3
  00108	6a 01		 push	 1
  0010a	8d 85 70 ff ff
	ff		 lea	 eax, DWORD PTR $T2[ebp]
  00110	f2 0f 11 85 70
	ff ff ff	 movsd	 QWORD PTR $T2[ebp], xmm0
  00118	50		 push	 eax
  00119	8b cb		 mov	 ecx, ebx
  0011b	e8 00 00 00 00	 call	 ?SetX@CCoordinate@@QAEXABNH@Z ; CCoordinate::SetX

; 1293 : 	// 2011.02.08 by SYS <<
; 1294 : 
; 1295 : 	*pResult = 0;

  00120	8b 85 6c ff ff
	ff		 mov	 eax, DWORD PTR _pResult$GSCopy$1$[ebp]

; 1296 : }

  00126	8d 4d 80	 lea	 ecx, DWORD PTR _strXDate$[ebp]
  00129	c7 00 00 00 00
	00		 mov	 DWORD PTR [eax], 0
  0012f	ff 15 00 00 00
	00		 call	 DWORD PTR __imp_??1?$CStringT@DV?$StrTraitMFC_DLL@DV?$ChTraitsCRT@D@ATL@@@@@ATL@@QAE@XZ
  00135	8b 4d f4	 mov	 ecx, DWORD PTR __$EHRec$[ebp]
  00138	64 89 0d 00 00
	00 00		 mov	 DWORD PTR fs:0, ecx
  0013f	59		 pop	 ecx
  00140	5f		 pop	 edi
  00141	5e		 pop	 esi
  00142	5b		 pop	 ebx
  00143	8b 4d f0	 mov	 ecx, DWORD PTR __$ArrayPad$[ebp]
  00146	33 cd		 xor	 ecx, ebp
  00148	e8 00 00 00 00	 call	 @__security_check_cookie@4
  0014d	8b e5		 mov	 esp, ebp
  0014f	5d		 pop	 ebp
  00150	c2 08 00	 ret	 8
_TEXT	ENDS
;	COMDAT text$x
text$x	SEGMENT
__unwindfunclet$?OnDatetimechangeDatetimepickerXdate2@CDlgAnalysisToolSet@@IAEXPAUtagNMHDR@@PAJ@Z$0:
  00000	8d 4d 80	 lea	 ecx, DWORD PTR _strXDate$[ebp]
  00003	ff 25 00 00 00
	00		 jmp	 DWORD PTR __imp_??1?$CStringT@DV?$StrTraitMFC_DLL@DV?$ChTraitsCRT@D@ATL@@@@@ATL@@QAE@XZ
  00009	cc		 int	 3
  0000a	cc		 int	 3
  0000b	cc		 int	 3
  0000c	cc		 int	 3
  0000d	cc		 int	 3
__ehhandler$?OnDatetimechangeDatetimepickerXdate2@CDlgAnalysisToolSet@@IAEXPAUtagNMHDR@@PAJ@Z:
  0000e	90		 npad	 1
  0000f	90		 npad	 1
  00010	8b 54 24 08	 mov	 edx, DWORD PTR [esp+8]
  00014	8d 42 0c	 lea	 eax, DWORD PTR [edx+12]
  00017	8b 8a 68 ff ff
	ff		 mov	 ecx, DWORD PTR [edx-152]
  0001d	33 c8		 xor	 ecx, eax
  0001f	e8 00 00 00 00	 call	 @__security_check_cookie@4
  00024	8b 4a fc	 mov	 ecx, DWORD PTR [edx-4]
  00027	33 c8		 xor	 ecx, eax
  00029	e8 00 00 00 00	 call	 @__security_check_cookie@4
  0002e	b8 00 00 00 00	 mov	 eax, OFFSET __ehfuncinfo$?OnDatetimechangeDatetimepickerXdate2@CDlgAnalysisToolSet@@IAEXPAUtagNMHDR@@PAJ@Z
  00033	e9 00 00 00 00	 jmp	 ___CxxFrameHandler3
text$x	ENDS
?OnDatetimechangeDatetimepickerXdate2@CDlgAnalysisToolSet@@IAEXPAUtagNMHDR@@PAJ@Z ENDP ; CDlgAnalysisToolSet::OnDatetimechangeDatetimepickerXdate2
; Function compile flags: /Ogtp
; File D:\git\src\IBK\IBK_DRFN\ProjSrc\SrcChartEx\ChartAddIn\ChartAnalysisToolAddIn\AnalysisTool\DlgAnalysisToolSet.cpp
; File C:\Program Files (x86)\Microsoft Visual Studio\2019\Community\VC\Tools\MSVC\14.29.30133\atlmfc\include\atltime.h
; File D:\git\src\IBK\IBK_DRFN\ProjSrc\SrcChartEx\ChartAddIn\ChartAnalysisToolAddIn\AnalysisTool\DlgAnalysisToolSet.cpp
; File C:\Program Files (x86)\Microsoft Visual Studio\2019\Community\VC\Tools\MSVC\14.29.30133\atlmfc\include\atltime.h
; File D:\git\src\IBK\IBK_DRFN\ProjSrc\SrcChartEx\ChartAddIn\ChartAnalysisToolAddIn\AnalysisTool\DlgAnalysisToolSet.cpp
;	COMDAT ?OnDatetimechangeDatetimepickerXdate1@CDlgAnalysisToolSet@@IAEXPAUtagNMHDR@@PAJ@Z
_TEXT	SEGMENT
_pResult$GSCopy$1$ = -148				; size = 4
$T2 = -144						; size = 8
_this$GSCopy$1$ = -140					; size = 4
_xTime$ = -136						; size = 8
_strXDate$ = -128					; size = 4
_ptmTemp$3 = -124					; size = 36
_ptmTemp$4 = -88					; size = 36
_ptmTemp$5 = -52					; size = 36
__$ArrayPad$ = -16					; size = 4
__$EHRec$ = -12						; size = 12
_pNMHDR$ = 8						; size = 4
_pResult$ = 12						; size = 4
?OnDatetimechangeDatetimepickerXdate1@CDlgAnalysisToolSet@@IAEXPAUtagNMHDR@@PAJ@Z PROC ; CDlgAnalysisToolSet::OnDatetimechangeDatetimepickerXdate1, COMDAT
; _this$ = ecx

; 1259 : {

  00000	55		 push	 ebp
  00001	8b ec		 mov	 ebp, esp
  00003	6a ff		 push	 -1
  00005	68 00 00 00 00	 push	 __ehhandler$?OnDatetimechangeDatetimepickerXdate1@CDlgAnalysisToolSet@@IAEXPAUtagNMHDR@@PAJ@Z
  0000a	64 a1 00 00 00
	00		 mov	 eax, DWORD PTR fs:0
  00010	50		 push	 eax
  00011	81 ec 88 00 00
	00		 sub	 esp, 136		; 00000088H
  00017	a1 00 00 00 00	 mov	 eax, DWORD PTR ___security_cookie
  0001c	33 c5		 xor	 eax, ebp
  0001e	89 45 f0	 mov	 DWORD PTR __$ArrayPad$[ebp], eax
  00021	53		 push	 ebx
  00022	56		 push	 esi
  00023	57		 push	 edi
  00024	50		 push	 eax
  00025	8d 45 f4	 lea	 eax, DWORD PTR __$EHRec$[ebp]
  00028	64 a3 00 00 00
	00		 mov	 DWORD PTR fs:0, eax
  0002e	8b d9		 mov	 ebx, ecx
  00030	89 9d 74 ff ff
	ff		 mov	 DWORD PTR _this$GSCopy$1$[ebp], ebx
  00036	8b 45 0c	 mov	 eax, DWORD PTR _pResult$[ebp]

; 1260 : 	CString strXDate;

  00039	8d 4d 80	 lea	 ecx, DWORD PTR _strXDate$[ebp]
  0003c	89 85 6c ff ff
	ff		 mov	 DWORD PTR _pResult$GSCopy$1$[ebp], eax
  00042	ff 15 00 00 00
	00		 call	 DWORD PTR __imp_??0?$CStringT@DV?$StrTraitMFC_DLL@DV?$ChTraitsCRT@D@ATL@@@@@ATL@@QAE@XZ

; 1262 : 	m_ctrlXDateTime1.GetTime(xTime);

  00048	8d 85 78 ff ff
	ff		 lea	 eax, DWORD PTR _xTime$[ebp]
  0004e	c7 45 fc 00 00
	00 00		 mov	 DWORD PTR __$EHRec$[ebp+8], 0
  00055	0f 57 c0	 xorps	 xmm0, xmm0
  00058	8d 8b d0 0a 00
	00		 lea	 ecx, DWORD PTR [ebx+2768]
  0005e	50		 push	 eax
; File C:\Program Files (x86)\Microsoft Visual Studio\2019\Community\VC\Tools\MSVC\14.29.30133\atlmfc\include\atltime.h

; 412  : 	m_time(0)

  0005f	66 0f 13 85 78
	ff ff ff	 movlpd	 QWORD PTR _xTime$[ebp], xmm0
; File D:\git\src\IBK\IBK_DRFN\ProjSrc\SrcChartEx\ChartAddIn\ChartAnalysisToolAddIn\AnalysisTool\DlgAnalysisToolSet.cpp

; 1262 : 	m_ctrlXDateTime1.GetTime(xTime);

  00067	e8 00 00 00 00	 call	 ?GetTime@CDateTimeCtrl@@QBEKAAVCTime@ATL@@@Z ; CDateTimeCtrl::GetTime
; File C:\Program Files (x86)\Microsoft Visual Studio\2019\Community\VC\Tools\MSVC\14.29.30133\atlmfc\include\atltime.h

; 614  : 		errno_t err = _localtime64_s(&ptmTemp, &m_time);

  0006c	8b 3d 00 00 00
	00		 mov	 edi, DWORD PTR __imp___localtime64_s
  00072	8d 85 78 ff ff
	ff		 lea	 eax, DWORD PTR _xTime$[ebp]
  00078	50		 push	 eax
  00079	8d 45 cc	 lea	 eax, DWORD PTR _ptmTemp$5[ebp]
  0007c	50		 push	 eax
  0007d	ff d7		 call	 edi

; 615  : 
; 616  : 		if (err != 0)

  0007f	33 db		 xor	 ebx, ebx
  00081	85 c0		 test	 eax, eax

; 614  : 		errno_t err = _localtime64_s(&ptmTemp, &m_time);

  00083	8d 85 78 ff ff
	ff		 lea	 eax, DWORD PTR _xTime$[ebp]

; 616  : 		if (err != 0)

  00089	0f 44 5d d8	 cmove	 ebx, DWORD PTR _ptmTemp$5[ebp+12]

; 614  : 		errno_t err = _localtime64_s(&ptmTemp, &m_time);

  0008d	50		 push	 eax
  0008e	8d 45 a8	 lea	 eax, DWORD PTR _ptmTemp$4[ebp]
  00091	50		 push	 eax
  00092	ff d7		 call	 edi
  00094	83 c4 10	 add	 esp, 16			; 00000010H

; 615  : 
; 616  : 		if (err != 0)

  00097	85 c0		 test	 eax, eax
  00099	75 06		 jne	 SHORT $LN25@OnDatetime

; 671  : 	return ptm ? ptm->tm_mon + 1 : 0;

  0009b	8b 75 b8	 mov	 esi, DWORD PTR _ptmTemp$4[ebp+16]
  0009e	46		 inc	 esi
  0009f	eb 02		 jmp	 SHORT $LN26@OnDatetime
$LN25@OnDatetime:
  000a1	33 f6		 xor	 esi, esi
$LN26@OnDatetime:

; 614  : 		errno_t err = _localtime64_s(&ptmTemp, &m_time);

  000a3	8d 85 78 ff ff
	ff		 lea	 eax, DWORD PTR _xTime$[ebp]
  000a9	50		 push	 eax
  000aa	8d 45 84	 lea	 eax, DWORD PTR _ptmTemp$3[ebp]
  000ad	50		 push	 eax
  000ae	ff d7		 call	 edi
  000b0	83 c4 08	 add	 esp, 8

; 615  : 
; 616  : 		if (err != 0)

  000b3	85 c0		 test	 eax, eax
  000b5	75 0a		 jne	 SHORT $LN41@OnDatetime

; 662  : 	return ptm ? (ptm->tm_year) + 1900 : 0 ;

  000b7	8b 45 98	 mov	 eax, DWORD PTR _ptmTemp$3[ebp+20]
  000ba	05 6c 07 00 00	 add	 eax, 1900		; 0000076cH
  000bf	eb 02		 jmp	 SHORT $LN42@OnDatetime
$LN41@OnDatetime:
  000c1	33 c0		 xor	 eax, eax
$LN42@OnDatetime:
; File D:\git\src\IBK\IBK_DRFN\ProjSrc\SrcChartEx\ChartAddIn\ChartAnalysisToolAddIn\AnalysisTool\DlgAnalysisToolSet.cpp

; 1269 : 	strXDate.Format(_T("%04d%02d%02d%s"),xTime.GetYear(),xTime.GetMonth(),xTime.GetDay(), _T("000000"));

  000c3	68 00 00 00 00	 push	 OFFSET ??_C@_06GEKNBBDK@000000@
  000c8	53		 push	 ebx
  000c9	56		 push	 esi
  000ca	50		 push	 eax
  000cb	8d 45 80	 lea	 eax, DWORD PTR _strXDate$[ebp]
  000ce	68 00 00 00 00	 push	 OFFSET ??_C@_0P@NDLMDLNF@?$CF04d?$CF02d?$CF02d?$CFs@
  000d3	50		 push	 eax
  000d4	ff 15 00 00 00
	00		 call	 DWORD PTR __imp_?Format@?$CStringT@DV?$StrTraitMFC_DLL@DV?$ChTraitsCRT@D@ATL@@@@@ATL@@QAAXPBDZZ

; 1270 : 	__int64 lMakeTime = _atoi64(strXDate);

  000da	ff 75 80	 push	 DWORD PTR _strXDate$[ebp]
  000dd	ff 15 00 00 00
	00		 call	 DWORD PTR __imp___atoi64

; 1271 : 	CCoordinate *pCoordinate = m_pElementPointList->GetAt(0);

  000e3	8b 8d 74 ff ff
	ff		 mov	 ecx, DWORD PTR _this$GSCopy$1$[ebp]
  000e9	83 c4 1c	 add	 esp, 28			; 0000001cH
  000ec	8b f8		 mov	 edi, eax
  000ee	8b f2		 mov	 esi, edx
  000f0	8b 89 00 0d 00
	00		 mov	 ecx, DWORD PTR [ecx+3328]
  000f6	6a 00		 push	 0
  000f8	e8 00 00 00 00	 call	 ?GetAt@CElementPointList@@QAEPAVCCoordinate@@H@Z ; CElementPointList::GetAt

; 1272 : 	pCoordinate->SetX((double)lMakeTime,0);

  000fd	8b d6		 mov	 edx, esi
  000ff	8b cf		 mov	 ecx, edi
  00101	8b d8		 mov	 ebx, eax
  00103	e8 00 00 00 00	 call	 __ltod3
  00108	6a 00		 push	 0
  0010a	8d 85 70 ff ff
	ff		 lea	 eax, DWORD PTR $T2[ebp]
  00110	f2 0f 11 85 70
	ff ff ff	 movsd	 QWORD PTR $T2[ebp], xmm0
  00118	50		 push	 eax
  00119	8b cb		 mov	 ecx, ebx
  0011b	e8 00 00 00 00	 call	 ?SetX@CCoordinate@@QAEXABNH@Z ; CCoordinate::SetX

; 1273 : 	// 2011.02.08 by SYS <<
; 1274 : 
; 1275 : 	*pResult = 0;

  00120	8b 85 6c ff ff
	ff		 mov	 eax, DWORD PTR _pResult$GSCopy$1$[ebp]

; 1276 : }

  00126	8d 4d 80	 lea	 ecx, DWORD PTR _strXDate$[ebp]
  00129	c7 00 00 00 00
	00		 mov	 DWORD PTR [eax], 0
  0012f	ff 15 00 00 00
	00		 call	 DWORD PTR __imp_??1?$CStringT@DV?$StrTraitMFC_DLL@DV?$ChTraitsCRT@D@ATL@@@@@ATL@@QAE@XZ
  00135	8b 4d f4	 mov	 ecx, DWORD PTR __$EHRec$[ebp]
  00138	64 89 0d 00 00
	00 00		 mov	 DWORD PTR fs:0, ecx
  0013f	59		 pop	 ecx
  00140	5f		 pop	 edi
  00141	5e		 pop	 esi
  00142	5b		 pop	 ebx
  00143	8b 4d f0	 mov	 ecx, DWORD PTR __$ArrayPad$[ebp]
  00146	33 cd		 xor	 ecx, ebp
  00148	e8 00 00 00 00	 call	 @__security_check_cookie@4
  0014d	8b e5		 mov	 esp, ebp
  0014f	5d		 pop	 ebp
  00150	c2 08 00	 ret	 8
_TEXT	ENDS
;	COMDAT text$x
text$x	SEGMENT
__unwindfunclet$?OnDatetimechangeDatetimepickerXdate1@CDlgAnalysisToolSet@@IAEXPAUtagNMHDR@@PAJ@Z$0:
  00000	8d 4d 80	 lea	 ecx, DWORD PTR _strXDate$[ebp]
  00003	ff 25 00 00 00
	00		 jmp	 DWORD PTR __imp_??1?$CStringT@DV?$StrTraitMFC_DLL@DV?$ChTraitsCRT@D@ATL@@@@@ATL@@QAE@XZ
  00009	cc		 int	 3
  0000a	cc		 int	 3
  0000b	cc		 int	 3
  0000c	cc		 int	 3
  0000d	cc		 int	 3
__ehhandler$?OnDatetimechangeDatetimepickerXdate1@CDlgAnalysisToolSet@@IAEXPAUtagNMHDR@@PAJ@Z:
  0000e	90		 npad	 1
  0000f	90		 npad	 1
  00010	8b 54 24 08	 mov	 edx, DWORD PTR [esp+8]
  00014	8d 42 0c	 lea	 eax, DWORD PTR [edx+12]
  00017	8b 8a 68 ff ff
	ff		 mov	 ecx, DWORD PTR [edx-152]
  0001d	33 c8		 xor	 ecx, eax
  0001f	e8 00 00 00 00	 call	 @__security_check_cookie@4
  00024	8b 4a fc	 mov	 ecx, DWORD PTR [edx-4]
  00027	33 c8		 xor	 ecx, eax
  00029	e8 00 00 00 00	 call	 @__security_check_cookie@4
  0002e	b8 00 00 00 00	 mov	 eax, OFFSET __ehfuncinfo$?OnDatetimechangeDatetimepickerXdate1@CDlgAnalysisToolSet@@IAEXPAUtagNMHDR@@PAJ@Z
  00033	e9 00 00 00 00	 jmp	 ___CxxFrameHandler3
text$x	ENDS
?OnDatetimechangeDatetimepickerXdate1@CDlgAnalysisToolSet@@IAEXPAUtagNMHDR@@PAJ@Z ENDP ; CDlgAnalysisToolSet::OnDatetimechangeDatetimepickerXdate1
; Function compile flags: /Ogtp
; File D:\git\src\IBK\IBK_DRFN\ProjSrc\SrcChartEx\ChartAddIn\ChartAnalysisToolAddIn\AnalysisTool\DlgAnalysisToolSet.cpp
; File C:\Program Files (x86)\Microsoft Visual Studio\2019\Community\VC\Tools\MSVC\14.29.30133\atlmfc\include\afxwin2.inl
; File D:\git\src\IBK\IBK_DRFN\ProjSrc\SrcChartEx\ChartAddIn\ChartAnalysisToolAddIn\AnalysisTool\DlgAnalysisToolSet.cpp
; File C:\Program Files (x86)\Microsoft Visual Studio\2019\Community\VC\Tools\MSVC\14.29.30133\atlmfc\include\afxwin2.inl
; File D:\git\src\IBK\IBK_DRFN\ProjSrc\SrcChartEx\ChartAddIn\ChartAnalysisToolAddIn\AnalysisTool\DlgAnalysisToolSet.cpp
; File C:\Program Files (x86)\Microsoft Visual Studio\2019\Community\VC\Tools\MSVC\14.29.30133\atlmfc\include\afxwin1.inl
; File D:\git\src\IBK\IBK_DRFN\ProjSrc\SrcChartEx\ChartAddIn\ChartAnalysisToolAddIn\Include_Chart\Dll_Load\IMetaTable.h
; File C:\Program Files (x86)\Microsoft Visual Studio\2019\Community\VC\Tools\MSVC\14.29.30133\atlmfc\include\afxwin1.inl
; File D:\git\src\IBK\IBK_DRFN\ProjSrc\SrcChartEx\ChartAddIn\ChartAnalysisToolAddIn\AnalysisTool\DlgAnalysisToolSet.cpp
; File C:\Program Files (x86)\Microsoft Visual Studio\2019\Community\VC\Tools\MSVC\14.29.30133\atlmfc\include\afxwin2.inl
; File D:\git\src\IBK\IBK_DRFN\ProjSrc\SrcChartEx\ChartAddIn\ChartAnalysisToolAddIn\AnalysisTool\DlgAnalysisToolSet.cpp
; File D:\git\src\IBK\IBK_DRFN\ProjSrc\SrcChartEx\ChartAddIn\ChartAnalysisToolAddIn\Include_Chart\Dll_Load\IMetaTable.h
; File C:\Program Files (x86)\Microsoft Visual Studio\2019\Community\VC\Tools\MSVC\14.29.30133\atlmfc\include\afxwin1.inl
; File D:\git\src\IBK\IBK_DRFN\ProjSrc\SrcChartEx\ChartAddIn\ChartAnalysisToolAddIn\AnalysisTool\DlgAnalysisToolSet.cpp
;	COMDAT ?OnSelchangeStyle@CDlgAnalysisToolSet@@IAEXXZ
_TEXT	SEGMENT
___mlrs__$2 = -20					; size = 4
_strNotice$3 = -16					; size = 4
__$EHRec$ = -12						; size = 12
?OnSelchangeStyle@CDlgAnalysisToolSet@@IAEXXZ PROC	; CDlgAnalysisToolSet::OnSelchangeStyle, COMDAT
; _this$ = ecx

; 1482 : {

  00000	55		 push	 ebp
  00001	8b ec		 mov	 ebp, esp
  00003	6a ff		 push	 -1
  00005	68 00 00 00 00	 push	 __ehhandler$?OnSelchangeStyle@CDlgAnalysisToolSet@@IAEXXZ
  0000a	64 a1 00 00 00
	00		 mov	 eax, DWORD PTR fs:0
  00010	50		 push	 eax
  00011	83 ec 08	 sub	 esp, 8
  00014	53		 push	 ebx
  00015	56		 push	 esi
  00016	57		 push	 edi
  00017	a1 00 00 00 00	 mov	 eax, DWORD PTR ___security_cookie
  0001c	33 c5		 xor	 eax, ebp
  0001e	50		 push	 eax
  0001f	8d 45 f4	 lea	 eax, DWORD PTR __$EHRec$[ebp]
  00022	64 a3 00 00 00
	00		 mov	 DWORD PTR fs:0, eax
  00028	8b d9		 mov	 ebx, ecx
; File C:\Program Files (x86)\Microsoft Visual Studio\2019\Community\VC\Tools\MSVC\14.29.30133\atlmfc\include\afxwin2.inl

; 765  : 	{ ASSERT(::IsWindow(m_hWnd)); return (int)::SendMessage(m_hWnd, CB_GETCURSEL, 0, 0); }

  0002a	8b 35 00 00 00
	00		 mov	 esi, DWORD PTR __imp__SendMessageA@16
  00030	6a 00		 push	 0
  00032	6a 00		 push	 0
  00034	68 47 01 00 00	 push	 327			; 00000147H
  00039	ff b3 d8 01 00
	00		 push	 DWORD PTR [ebx+472]
  0003f	ff d6		 call	 esi
  00041	6a 00		 push	 0
  00043	6a 00		 push	 0
  00045	68 47 01 00 00	 push	 327			; 00000147H
  0004a	ff b3 48 01 00
	00		 push	 DWORD PTR [ebx+328]
; File D:\git\src\IBK\IBK_DRFN\ProjSrc\SrcChartEx\ChartAddIn\ChartAnalysisToolAddIn\AnalysisTool\DlgAnalysisToolSet.cpp

; 1483 : 	int nWidth = m_ctlWidth.GetCurSel();

  00050	8b f8		 mov	 edi, eax
; File C:\Program Files (x86)\Microsoft Visual Studio\2019\Community\VC\Tools\MSVC\14.29.30133\atlmfc\include\afxwin2.inl

; 765  : 	{ ASSERT(::IsWindow(m_hWnd)); return (int)::SendMessage(m_hWnd, CB_GETCURSEL, 0, 0); }

  00052	ff d6		 call	 esi
; File D:\git\src\IBK\IBK_DRFN\ProjSrc\SrcChartEx\ChartAddIn\ChartAnalysisToolAddIn\AnalysisTool\DlgAnalysisToolSet.cpp

; 1485 : 	if(nStyle > 0 && nWidth != 0)

  00054	85 c0		 test	 eax, eax
  00056	0f 8e 8e 00 00
	00		 jle	 $LN21@OnSelchang
  0005c	85 ff		 test	 edi, edi
  0005e	0f 84 86 00 00
	00		 je	 $LN21@OnSelchang

; 1486 : 	{
; 1487 : 		ML_SET_LANGUAGE_RES();

  00064	e8 00 00 00 00	 call	 ?AfxGetStaticModuleState@@YGPAVAFX_MODULE_STATE@@XZ ; AfxGetStaticModuleState
  00069	b9 00 00 00 00	 mov	 ecx, OFFSET ?g_iMetaTable@@3VIMetaTable@@A ; g_iMetaTable
  0006e	8b 40 08	 mov	 eax, DWORD PTR [eax+8]
  00071	50		 push	 eax
  00072	ff b3 90 0d 00
	00		 push	 DWORD PTR [ebx+3472]
  00078	e8 00 00 00 00	 call	 ?LoadResourceDLL@IMetaTable@@QAEPAUHINSTANCE__@@PAUHWND__@@PAU2@@Z ; IMetaTable::LoadResourceDLL
  0007d	8b f8		 mov	 edi, eax
; File C:\Program Files (x86)\Microsoft Visual Studio\2019\Community\VC\Tools\MSVC\14.29.30133\atlmfc\include\afxwin1.inl

; 25   : 		return afxCurrentResourceHandle; }

  0007f	e8 00 00 00 00	 call	 ?AfxGetModuleState@@YGPAVAFX_MODULE_STATE@@XZ ; AfxGetModuleState
; File D:\git\src\IBK\IBK_DRFN\ProjSrc\SrcChartEx\ChartAddIn\ChartAnalysisToolAddIn\Include_Chart\Dll_Load\IMetaTable.h

; 1034 : 		m_hInstance = AfxGetResourceHandle();

  00084	8b 70 0c	 mov	 esi, DWORD PTR [eax+12]
  00087	89 75 ec	 mov	 DWORD PTR ___mlrs__$2[ebp], esi
; File C:\Program Files (x86)\Microsoft Visual Studio\2019\Community\VC\Tools\MSVC\14.29.30133\atlmfc\include\afxwin1.inl

; 27   : 	{ ASSERT(hInstResource != NULL); afxCurrentResourceHandle = hInstResource; }

  0008a	e8 00 00 00 00	 call	 ?AfxGetModuleState@@YGPAVAFX_MODULE_STATE@@XZ ; AfxGetModuleState
  0008f	89 78 0c	 mov	 DWORD PTR [eax+12], edi
; File D:\git\src\IBK\IBK_DRFN\ProjSrc\SrcChartEx\ChartAddIn\ChartAnalysisToolAddIn\AnalysisTool\DlgAnalysisToolSet.cpp

; 1489 : 		CString strNotice;

  00092	8d 4d f0	 lea	 ecx, DWORD PTR _strNotice$3[ebp]
  00095	c7 45 fc 00 00
	00 00		 mov	 DWORD PTR __$EHRec$[ebp+8], 0
  0009c	ff 15 00 00 00
	00		 call	 DWORD PTR __imp_??0?$CStringT@DV?$StrTraitMFC_DLL@DV?$ChTraitsCRT@D@ATL@@@@@ATL@@QAE@XZ

; 1490 : 		strNotice.LoadString(IDS_CHANGE_THICKNESS);

  000a2	6a 01		 push	 1
  000a4	8d 4d f0	 lea	 ecx, DWORD PTR _strNotice$3[ebp]
  000a7	c6 45 fc 01	 mov	 BYTE PTR __$EHRec$[ebp+8], 1
  000ab	ff 15 00 00 00
	00		 call	 DWORD PTR __imp_?LoadStringA@?$CStringT@DV?$StrTraitMFC_DLL@DV?$ChTraitsCRT@D@ATL@@@@@ATL@@QAEHI@Z

; 1491 : 		AfxMessageBox(strNotice);

  000b1	6a 00		 push	 0
  000b3	6a 00		 push	 0
  000b5	ff 75 f0	 push	 DWORD PTR _strNotice$3[ebp]
  000b8	e8 00 00 00 00	 call	 ?AfxMessageBox@@YGHPBDII@Z ; AfxMessageBox
; File C:\Program Files (x86)\Microsoft Visual Studio\2019\Community\VC\Tools\MSVC\14.29.30133\atlmfc\include\afxwin2.inl

; 767  : 	{ ASSERT(::IsWindow(m_hWnd)); return (int)::SendMessage(m_hWnd, CB_SETCURSEL, nSelect, 0); }

  000bd	6a 00		 push	 0
  000bf	6a 00		 push	 0
  000c1	68 4e 01 00 00	 push	 334			; 0000014eH
  000c6	ff b3 d8 01 00
	00		 push	 DWORD PTR [ebx+472]
  000cc	ff 15 00 00 00
	00		 call	 DWORD PTR __imp__SendMessageA@16
; File D:\git\src\IBK\IBK_DRFN\ProjSrc\SrcChartEx\ChartAddIn\ChartAnalysisToolAddIn\AnalysisTool\DlgAnalysisToolSet.cpp

; 1493 : 	}

  000d2	8d 4d f0	 lea	 ecx, DWORD PTR _strNotice$3[ebp]
  000d5	ff 15 00 00 00
	00		 call	 DWORD PTR __imp_??1?$CStringT@DV?$StrTraitMFC_DLL@DV?$ChTraitsCRT@D@ATL@@@@@ATL@@QAE@XZ
; File D:\git\src\IBK\IBK_DRFN\ProjSrc\SrcChartEx\ChartAddIn\ChartAnalysisToolAddIn\Include_Chart\Dll_Load\IMetaTable.h

; 1038 : 	{

  000db	c7 45 fc 02 00
	00 00		 mov	 DWORD PTR __$EHRec$[ebp+8], 2
; File C:\Program Files (x86)\Microsoft Visual Studio\2019\Community\VC\Tools\MSVC\14.29.30133\atlmfc\include\afxwin1.inl

; 27   : 	{ ASSERT(hInstResource != NULL); afxCurrentResourceHandle = hInstResource; }

  000e2	e8 00 00 00 00	 call	 ?AfxGetModuleState@@YGPAVAFX_MODULE_STATE@@XZ ; AfxGetModuleState
  000e7	89 70 0c	 mov	 DWORD PTR [eax+12], esi
$LN21@OnSelchang:
; File D:\git\src\IBK\IBK_DRFN\ProjSrc\SrcChartEx\ChartAddIn\ChartAnalysisToolAddIn\AnalysisTool\DlgAnalysisToolSet.cpp

; 1494 : }

  000ea	8b 4d f4	 mov	 ecx, DWORD PTR __$EHRec$[ebp]
  000ed	64 89 0d 00 00
	00 00		 mov	 DWORD PTR fs:0, ecx
  000f4	59		 pop	 ecx
  000f5	5f		 pop	 edi
  000f6	5e		 pop	 esi
  000f7	5b		 pop	 ebx
  000f8	8b e5		 mov	 esp, ebp
  000fa	5d		 pop	 ebp
  000fb	c3		 ret	 0
_TEXT	ENDS
;	COMDAT text$x
text$x	SEGMENT
__unwindfunclet$?OnSelchangeStyle@CDlgAnalysisToolSet@@IAEXXZ$0:
  00000	8d 4d ec	 lea	 ecx, DWORD PTR ___mlrs__$2[ebp]
  00003	e9 00 00 00 00	 jmp	 ??1CMultiLanguageResourceSetter@@QAE@XZ ; CMultiLanguageResourceSetter::~CMultiLanguageResourceSetter
__unwindfunclet$?OnSelchangeStyle@CDlgAnalysisToolSet@@IAEXXZ$1:
  00008	8d 4d f0	 lea	 ecx, DWORD PTR _strNotice$3[ebp]
  0000b	ff 25 00 00 00
	00		 jmp	 DWORD PTR __imp_??1?$CStringT@DV?$StrTraitMFC_DLL@DV?$ChTraitsCRT@D@ATL@@@@@ATL@@QAE@XZ
  00011	cc		 int	 3
  00012	cc		 int	 3
  00013	cc		 int	 3
  00014	cc		 int	 3
  00015	cc		 int	 3
__ehhandler$?OnSelchangeStyle@CDlgAnalysisToolSet@@IAEXXZ:
  00016	90		 npad	 1
  00017	90		 npad	 1
  00018	8b 54 24 08	 mov	 edx, DWORD PTR [esp+8]
  0001c	8d 42 0c	 lea	 eax, DWORD PTR [edx+12]
  0001f	8b 4a e8	 mov	 ecx, DWORD PTR [edx-24]
  00022	33 c8		 xor	 ecx, eax
  00024	e8 00 00 00 00	 call	 @__security_check_cookie@4
  00029	b8 00 00 00 00	 mov	 eax, OFFSET __ehfuncinfo$?OnSelchangeStyle@CDlgAnalysisToolSet@@IAEXXZ
  0002e	e9 00 00 00 00	 jmp	 ___CxxFrameHandler3
text$x	ENDS
?OnSelchangeStyle@CDlgAnalysisToolSet@@IAEXXZ ENDP	; CDlgAnalysisToolSet::OnSelchangeStyle
; Function compile flags: /Ogtp
; File D:\git\src\IBK\IBK_DRFN\ProjSrc\SrcChartEx\ChartAddIn\ChartAnalysisToolAddIn\AnalysisTool\DlgAnalysisToolSet.cpp
; File C:\Program Files (x86)\Microsoft Visual Studio\2019\Community\VC\Tools\MSVC\14.29.30133\atlmfc\include\afxwin2.inl
; File D:\git\src\IBK\IBK_DRFN\ProjSrc\SrcChartEx\ChartAddIn\ChartAnalysisToolAddIn\AnalysisTool\DlgAnalysisToolSet.cpp
; File C:\Program Files (x86)\Microsoft Visual Studio\2019\Community\VC\Tools\MSVC\14.29.30133\atlmfc\include\afxwin2.inl
; File D:\git\src\IBK\IBK_DRFN\ProjSrc\SrcChartEx\ChartAddIn\ChartAnalysisToolAddIn\AnalysisTool\DlgAnalysisToolSet.cpp
; File C:\Program Files (x86)\Microsoft Visual Studio\2019\Community\VC\Tools\MSVC\14.29.30133\atlmfc\include\afxwin1.inl
; File D:\git\src\IBK\IBK_DRFN\ProjSrc\SrcChartEx\ChartAddIn\ChartAnalysisToolAddIn\Include_Chart\Dll_Load\IMetaTable.h
; File C:\Program Files (x86)\Microsoft Visual Studio\2019\Community\VC\Tools\MSVC\14.29.30133\atlmfc\include\afxwin1.inl
; File D:\git\src\IBK\IBK_DRFN\ProjSrc\SrcChartEx\ChartAddIn\ChartAnalysisToolAddIn\AnalysisTool\DlgAnalysisToolSet.cpp
; File C:\Program Files (x86)\Microsoft Visual Studio\2019\Community\VC\Tools\MSVC\14.29.30133\atlmfc\include\afxwin2.inl
; File D:\git\src\IBK\IBK_DRFN\ProjSrc\SrcChartEx\ChartAddIn\ChartAnalysisToolAddIn\AnalysisTool\DlgAnalysisToolSet.cpp
; File D:\git\src\IBK\IBK_DRFN\ProjSrc\SrcChartEx\ChartAddIn\ChartAnalysisToolAddIn\Include_Chart\Dll_Load\IMetaTable.h
; File C:\Program Files (x86)\Microsoft Visual Studio\2019\Community\VC\Tools\MSVC\14.29.30133\atlmfc\include\afxwin1.inl
; File D:\git\src\IBK\IBK_DRFN\ProjSrc\SrcChartEx\ChartAddIn\ChartAnalysisToolAddIn\AnalysisTool\DlgAnalysisToolSet.cpp
;	COMDAT ?OnSelchangeWidth@CDlgAnalysisToolSet@@IAEXXZ
_TEXT	SEGMENT
___mlrs__$2 = -20					; size = 4
_strNotice$3 = -16					; size = 4
__$EHRec$ = -12						; size = 12
?OnSelchangeWidth@CDlgAnalysisToolSet@@IAEXXZ PROC	; CDlgAnalysisToolSet::OnSelchangeWidth, COMDAT
; _this$ = ecx

; 1467 : {

  00000	55		 push	 ebp
  00001	8b ec		 mov	 ebp, esp
  00003	6a ff		 push	 -1
  00005	68 00 00 00 00	 push	 __ehhandler$?OnSelchangeWidth@CDlgAnalysisToolSet@@IAEXXZ
  0000a	64 a1 00 00 00
	00		 mov	 eax, DWORD PTR fs:0
  00010	50		 push	 eax
  00011	83 ec 08	 sub	 esp, 8
  00014	53		 push	 ebx
  00015	56		 push	 esi
  00016	57		 push	 edi
  00017	a1 00 00 00 00	 mov	 eax, DWORD PTR ___security_cookie
  0001c	33 c5		 xor	 eax, ebp
  0001e	50		 push	 eax
  0001f	8d 45 f4	 lea	 eax, DWORD PTR __$EHRec$[ebp]
  00022	64 a3 00 00 00
	00		 mov	 DWORD PTR fs:0, eax
  00028	8b d9		 mov	 ebx, ecx
; File C:\Program Files (x86)\Microsoft Visual Studio\2019\Community\VC\Tools\MSVC\14.29.30133\atlmfc\include\afxwin2.inl

; 765  : 	{ ASSERT(::IsWindow(m_hWnd)); return (int)::SendMessage(m_hWnd, CB_GETCURSEL, 0, 0); }

  0002a	8b 35 00 00 00
	00		 mov	 esi, DWORD PTR __imp__SendMessageA@16
  00030	6a 00		 push	 0
  00032	6a 00		 push	 0
  00034	68 47 01 00 00	 push	 327			; 00000147H
  00039	ff b3 d8 01 00
	00		 push	 DWORD PTR [ebx+472]
  0003f	ff d6		 call	 esi
  00041	6a 00		 push	 0
  00043	6a 00		 push	 0
  00045	68 47 01 00 00	 push	 327			; 00000147H
  0004a	ff b3 48 01 00
	00		 push	 DWORD PTR [ebx+328]
; File D:\git\src\IBK\IBK_DRFN\ProjSrc\SrcChartEx\ChartAddIn\ChartAnalysisToolAddIn\AnalysisTool\DlgAnalysisToolSet.cpp

; 1468 : 	int nWidth = m_ctlWidth.GetCurSel();

  00050	8b f8		 mov	 edi, eax
; File C:\Program Files (x86)\Microsoft Visual Studio\2019\Community\VC\Tools\MSVC\14.29.30133\atlmfc\include\afxwin2.inl

; 765  : 	{ ASSERT(::IsWindow(m_hWnd)); return (int)::SendMessage(m_hWnd, CB_GETCURSEL, 0, 0); }

  00052	ff d6		 call	 esi
; File D:\git\src\IBK\IBK_DRFN\ProjSrc\SrcChartEx\ChartAddIn\ChartAnalysisToolAddIn\AnalysisTool\DlgAnalysisToolSet.cpp

; 1470 : 	if(nStyle != 0 && nWidth > 0)

  00054	85 c0		 test	 eax, eax
  00056	0f 84 8e 00 00
	00		 je	 $LN21@OnSelchang
  0005c	85 ff		 test	 edi, edi
  0005e	0f 8e 86 00 00
	00		 jle	 $LN21@OnSelchang

; 1471 : 	{
; 1472 : 		ML_SET_LANGUAGE_RES();

  00064	e8 00 00 00 00	 call	 ?AfxGetStaticModuleState@@YGPAVAFX_MODULE_STATE@@XZ ; AfxGetStaticModuleState
  00069	b9 00 00 00 00	 mov	 ecx, OFFSET ?g_iMetaTable@@3VIMetaTable@@A ; g_iMetaTable
  0006e	8b 40 08	 mov	 eax, DWORD PTR [eax+8]
  00071	50		 push	 eax
  00072	ff b3 90 0d 00
	00		 push	 DWORD PTR [ebx+3472]
  00078	e8 00 00 00 00	 call	 ?LoadResourceDLL@IMetaTable@@QAEPAUHINSTANCE__@@PAUHWND__@@PAU2@@Z ; IMetaTable::LoadResourceDLL
  0007d	8b f8		 mov	 edi, eax
; File C:\Program Files (x86)\Microsoft Visual Studio\2019\Community\VC\Tools\MSVC\14.29.30133\atlmfc\include\afxwin1.inl

; 25   : 		return afxCurrentResourceHandle; }

  0007f	e8 00 00 00 00	 call	 ?AfxGetModuleState@@YGPAVAFX_MODULE_STATE@@XZ ; AfxGetModuleState
; File D:\git\src\IBK\IBK_DRFN\ProjSrc\SrcChartEx\ChartAddIn\ChartAnalysisToolAddIn\Include_Chart\Dll_Load\IMetaTable.h

; 1034 : 		m_hInstance = AfxGetResourceHandle();

  00084	8b 70 0c	 mov	 esi, DWORD PTR [eax+12]
  00087	89 75 ec	 mov	 DWORD PTR ___mlrs__$2[ebp], esi
; File C:\Program Files (x86)\Microsoft Visual Studio\2019\Community\VC\Tools\MSVC\14.29.30133\atlmfc\include\afxwin1.inl

; 27   : 	{ ASSERT(hInstResource != NULL); afxCurrentResourceHandle = hInstResource; }

  0008a	e8 00 00 00 00	 call	 ?AfxGetModuleState@@YGPAVAFX_MODULE_STATE@@XZ ; AfxGetModuleState
  0008f	89 78 0c	 mov	 DWORD PTR [eax+12], edi
; File D:\git\src\IBK\IBK_DRFN\ProjSrc\SrcChartEx\ChartAddIn\ChartAnalysisToolAddIn\AnalysisTool\DlgAnalysisToolSet.cpp

; 1474 : 		CString strNotice;

  00092	8d 4d f0	 lea	 ecx, DWORD PTR _strNotice$3[ebp]
  00095	c7 45 fc 00 00
	00 00		 mov	 DWORD PTR __$EHRec$[ebp+8], 0
  0009c	ff 15 00 00 00
	00		 call	 DWORD PTR __imp_??0?$CStringT@DV?$StrTraitMFC_DLL@DV?$ChTraitsCRT@D@ATL@@@@@ATL@@QAE@XZ

; 1475 : 		strNotice.LoadString(IDS_CHANGE_THICKNESS);

  000a2	6a 01		 push	 1
  000a4	8d 4d f0	 lea	 ecx, DWORD PTR _strNotice$3[ebp]
  000a7	c6 45 fc 01	 mov	 BYTE PTR __$EHRec$[ebp+8], 1
  000ab	ff 15 00 00 00
	00		 call	 DWORD PTR __imp_?LoadStringA@?$CStringT@DV?$StrTraitMFC_DLL@DV?$ChTraitsCRT@D@ATL@@@@@ATL@@QAEHI@Z

; 1476 : 		AfxMessageBox(strNotice);

  000b1	6a 00		 push	 0
  000b3	6a 00		 push	 0
  000b5	ff 75 f0	 push	 DWORD PTR _strNotice$3[ebp]
  000b8	e8 00 00 00 00	 call	 ?AfxMessageBox@@YGHPBDII@Z ; AfxMessageBox
; File C:\Program Files (x86)\Microsoft Visual Studio\2019\Community\VC\Tools\MSVC\14.29.30133\atlmfc\include\afxwin2.inl

; 767  : 	{ ASSERT(::IsWindow(m_hWnd)); return (int)::SendMessage(m_hWnd, CB_SETCURSEL, nSelect, 0); }

  000bd	6a 00		 push	 0
  000bf	6a 00		 push	 0
  000c1	68 4e 01 00 00	 push	 334			; 0000014eH
  000c6	ff b3 48 01 00
	00		 push	 DWORD PTR [ebx+328]
  000cc	ff 15 00 00 00
	00		 call	 DWORD PTR __imp__SendMessageA@16
; File D:\git\src\IBK\IBK_DRFN\ProjSrc\SrcChartEx\ChartAddIn\ChartAnalysisToolAddIn\AnalysisTool\DlgAnalysisToolSet.cpp

; 1478 : 	}

  000d2	8d 4d f0	 lea	 ecx, DWORD PTR _strNotice$3[ebp]
  000d5	ff 15 00 00 00
	00		 call	 DWORD PTR __imp_??1?$CStringT@DV?$StrTraitMFC_DLL@DV?$ChTraitsCRT@D@ATL@@@@@ATL@@QAE@XZ
; File D:\git\src\IBK\IBK_DRFN\ProjSrc\SrcChartEx\ChartAddIn\ChartAnalysisToolAddIn\Include_Chart\Dll_Load\IMetaTable.h

; 1038 : 	{

  000db	c7 45 fc 02 00
	00 00		 mov	 DWORD PTR __$EHRec$[ebp+8], 2
; File C:\Program Files (x86)\Microsoft Visual Studio\2019\Community\VC\Tools\MSVC\14.29.30133\atlmfc\include\afxwin1.inl

; 27   : 	{ ASSERT(hInstResource != NULL); afxCurrentResourceHandle = hInstResource; }

  000e2	e8 00 00 00 00	 call	 ?AfxGetModuleState@@YGPAVAFX_MODULE_STATE@@XZ ; AfxGetModuleState
  000e7	89 70 0c	 mov	 DWORD PTR [eax+12], esi
$LN21@OnSelchang:
; File D:\git\src\IBK\IBK_DRFN\ProjSrc\SrcChartEx\ChartAddIn\ChartAnalysisToolAddIn\AnalysisTool\DlgAnalysisToolSet.cpp

; 1479 : }

  000ea	8b 4d f4	 mov	 ecx, DWORD PTR __$EHRec$[ebp]
  000ed	64 89 0d 00 00
	00 00		 mov	 DWORD PTR fs:0, ecx
  000f4	59		 pop	 ecx
  000f5	5f		 pop	 edi
  000f6	5e		 pop	 esi
  000f7	5b		 pop	 ebx
  000f8	8b e5		 mov	 esp, ebp
  000fa	5d		 pop	 ebp
  000fb	c3		 ret	 0
_TEXT	ENDS
;	COMDAT text$x
text$x	SEGMENT
__unwindfunclet$?OnSelchangeWidth@CDlgAnalysisToolSet@@IAEXXZ$0:
  00000	8d 4d ec	 lea	 ecx, DWORD PTR ___mlrs__$2[ebp]
  00003	e9 00 00 00 00	 jmp	 ??1CMultiLanguageResourceSetter@@QAE@XZ ; CMultiLanguageResourceSetter::~CMultiLanguageResourceSetter
__unwindfunclet$?OnSelchangeWidth@CDlgAnalysisToolSet@@IAEXXZ$1:
  00008	8d 4d f0	 lea	 ecx, DWORD PTR _strNotice$3[ebp]
  0000b	ff 25 00 00 00
	00		 jmp	 DWORD PTR __imp_??1?$CStringT@DV?$StrTraitMFC_DLL@DV?$ChTraitsCRT@D@ATL@@@@@ATL@@QAE@XZ
  00011	cc		 int	 3
  00012	cc		 int	 3
  00013	cc		 int	 3
  00014	cc		 int	 3
  00015	cc		 int	 3
__ehhandler$?OnSelchangeWidth@CDlgAnalysisToolSet@@IAEXXZ:
  00016	90		 npad	 1
  00017	90		 npad	 1
  00018	8b 54 24 08	 mov	 edx, DWORD PTR [esp+8]
  0001c	8d 42 0c	 lea	 eax, DWORD PTR [edx+12]
  0001f	8b 4a e8	 mov	 ecx, DWORD PTR [edx-24]
  00022	33 c8		 xor	 ecx, eax
  00024	e8 00 00 00 00	 call	 @__security_check_cookie@4
  00029	b8 00 00 00 00	 mov	 eax, OFFSET __ehfuncinfo$?OnSelchangeWidth@CDlgAnalysisToolSet@@IAEXXZ
  0002e	e9 00 00 00 00	 jmp	 ___CxxFrameHandler3
text$x	ENDS
?OnSelchangeWidth@CDlgAnalysisToolSet@@IAEXXZ ENDP	; CDlgAnalysisToolSet::OnSelchangeWidth
; Function compile flags: /Ogtp
; File D:\git\src\IBK\IBK_DRFN\ProjSrc\SrcChartEx\ChartAddIn\ChartAnalysisToolAddIn\AnalysisTool\DlgAnalysisToolSet.cpp
; File C:\Program Files (x86)\Microsoft Visual Studio\2019\Community\VC\Tools\MSVC\14.29.30133\atlmfc\include\afxwin2.inl
; File D:\git\src\IBK\IBK_DRFN\ProjSrc\SrcChartEx\ChartAddIn\ChartAnalysisToolAddIn\AnalysisTool\DlgAnalysisToolSet.cpp
;	COMDAT ?OnRightText@CDlgAnalysisToolSet@@IAEXXZ
_TEXT	SEGMENT
?OnRightText@CDlgAnalysisToolSet@@IAEXXZ PROC		; CDlgAnalysisToolSet::OnRightText, COMDAT
; _this$ = ecx

; 1516 : {

  00000	56		 push	 esi
  00001	8b f1		 mov	 esi, ecx

; 1517 : 	if ((CToolEnumData::ElementType)m_nElementType == CToolEnumData::Line)

  00003	83 be 18 0d 00
	00 05		 cmp	 DWORD PTR [esi+3352], 5
  0000a	75 21		 jne	 SHORT $LN2@OnRightTex
; File C:\Program Files (x86)\Microsoft Visual Studio\2019\Community\VC\Tools\MSVC\14.29.30133\atlmfc\include\afxwin2.inl

; 628  : 	{ ASSERT(::IsWindow(m_hWnd)); return (int)::SendMessage(m_hWnd, BM_GETCHECK, 0, 0); }

  0000c	6a 00		 push	 0
  0000e	6a 00		 push	 0
  00010	68 f0 00 00 00	 push	 240			; 000000f0H
  00015	ff b6 70 03 00
	00		 push	 DWORD PTR [esi+880]
  0001b	ff 15 00 00 00
	00		 call	 DWORD PTR __imp__SendMessageA@16
; File D:\git\src\IBK\IBK_DRFN\ProjSrc\SrcChartEx\ChartAddIn\ChartAnalysisToolAddIn\AnalysisTool\DlgAnalysisToolSet.cpp

; 1518 : 		m_ctrlRateText.EnableWindow(m_ctrlRightText.GetCheck());

  00021	50		 push	 eax
  00022	8d 8e d0 03 00
	00		 lea	 ecx, DWORD PTR [esi+976]
  00028	e8 00 00 00 00	 call	 ?EnableWindow@CWnd@@QAEHH@Z ; CWnd::EnableWindow
$LN2@OnRightTex:

; 1519 : }

  0002d	5e		 pop	 esi
  0002e	c3		 ret	 0
?OnRightText@CDlgAnalysisToolSet@@IAEXXZ ENDP		; CDlgAnalysisToolSet::OnRightText
_TEXT	ENDS
; Function compile flags: /Ogtp
; File D:\git\src\IBK\IBK_DRFN\ProjSrc\SrcChartEx\ChartAddIn\ChartAnalysisToolAddIn\AnalysisTool\DlgAnalysisToolSet.cpp
;	COMDAT ?OnApplyBt@CDlgAnalysisToolSet@@IAEXXZ
_TEXT	SEGMENT
?OnApplyBt@CDlgAnalysisToolSet@@IAEXXZ PROC		; CDlgAnalysisToolSet::OnApplyBt, COMDAT
; _this$ = ecx

; 1511 : 	ApplyData();

  00000	e9 00 00 00 00	 jmp	 ?ApplyData@CDlgAnalysisToolSet@@IAEXXZ ; CDlgAnalysisToolSet::ApplyData
?OnApplyBt@CDlgAnalysisToolSet@@IAEXXZ ENDP		; CDlgAnalysisToolSet::OnApplyBt
_TEXT	ENDS
; Function compile flags: /Ogtp
; File D:\git\src\IBK\IBK_DRFN\ProjSrc\SrcChartEx\ChartAddIn\ChartAnalysisToolAddIn\AnalysisTool\DlgAnalysisToolSet.cpp
; File C:\Program Files (x86)\Microsoft Visual Studio\2019\Community\VC\Tools\MSVC\14.29.30133\atlmfc\include\afxwin2.inl
; File C:\Program Files (x86)\Microsoft Visual Studio\2019\Community\VC\Tools\MSVC\14.29.30133\atlmfc\include\afxdlgs.h
; File D:\git\src\IBK\IBK_DRFN\ProjSrc\SrcChartEx\ChartAddIn\ChartAnalysisToolAddIn\AnalysisTool\DlgAnalysisToolSet.cpp
;	COMDAT ?OnColor@CDlgAnalysisToolSet@@IAEXXZ
_TEXT	SEGMENT
_colorDlg$ = -224					; size = 208
$T2 = -16						; size = 4
__$EHRec$ = -12						; size = 12
?OnColor@CDlgAnalysisToolSet@@IAEXXZ PROC		; CDlgAnalysisToolSet::OnColor, COMDAT
; _this$ = ecx

; 326  : {

  00000	55		 push	 ebp
  00001	8b ec		 mov	 ebp, esp
  00003	6a ff		 push	 -1
  00005	68 00 00 00 00	 push	 __ehhandler$?OnColor@CDlgAnalysisToolSet@@IAEXXZ
  0000a	64 a1 00 00 00
	00		 mov	 eax, DWORD PTR fs:0
  00010	50		 push	 eax
  00011	81 ec d4 00 00
	00		 sub	 esp, 212		; 000000d4H
  00017	56		 push	 esi
  00018	a1 00 00 00 00	 mov	 eax, DWORD PTR ___security_cookie
  0001d	33 c5		 xor	 eax, ebp
  0001f	50		 push	 eax
  00020	8d 45 f4	 lea	 eax, DWORD PTR __$EHRec$[ebp]
  00023	64 a3 00 00 00
	00		 mov	 DWORD PTR fs:0, eax
  00029	8b f1		 mov	 esi, ecx

; 327  : 	CColorDialog colorDlg;

  0002b	6a 00		 push	 0
  0002d	6a 00		 push	 0
  0002f	6a 00		 push	 0
  00031	8d 8d 20 ff ff
	ff		 lea	 ecx, DWORD PTR _colorDlg$[ebp]
  00037	e8 00 00 00 00	 call	 ??0CColorDialog@@QAE@KKPAVCWnd@@@Z ; CColorDialog::CColorDialog

; 328  : 
; 329  : 	if(colorDlg.DoModal() != IDOK)

  0003c	8d 8d 20 ff ff
	ff		 lea	 ecx, DWORD PTR _colorDlg$[ebp]
  00042	c7 45 fc 00 00
	00 00		 mov	 DWORD PTR __$EHRec$[ebp+8], 0
  00049	e8 00 00 00 00	 call	 ?DoModal@CColorDialog@@UAEHXZ ; CColorDialog::DoModal
  0004e	83 f8 01	 cmp	 eax, 1
  00051	75 25		 jne	 SHORT $LN5@OnColor

; 330  : 		return;
; 331  : 
; 332  : 	SetColor(colorDlg.GetColor());

  00053	8b 45 d4	 mov	 eax, DWORD PTR _colorDlg$[ebp+180]

; 1014 : 	m_ctlColor.SetColor(color);

  00056	8d 8e 48 02 00
	00		 lea	 ecx, DWORD PTR [esi+584]

; 330  : 		return;
; 331  : 
; 332  : 	SetColor(colorDlg.GetColor());

  0005c	89 45 f0	 mov	 DWORD PTR $T2[ebp], eax

; 1014 : 	m_ctlColor.SetColor(color);

  0005f	8d 45 f0	 lea	 eax, DWORD PTR $T2[ebp]
  00062	50		 push	 eax
  00063	e8 00 00 00 00	 call	 ?SetColor@CColorButton@@QAEXABK@Z ; CColorButton::SetColor
; File C:\Program Files (x86)\Microsoft Visual Studio\2019\Community\VC\Tools\MSVC\14.29.30133\atlmfc\include\afxwin2.inl

; 114  : 	{ ASSERT(::IsWindow(m_hWnd)); ::InvalidateRect(m_hWnd, NULL, bErase); }

  00068	6a 01		 push	 1
  0006a	6a 00		 push	 0
  0006c	ff b6 68 02 00
	00		 push	 DWORD PTR [esi+616]
  00072	ff 15 00 00 00
	00		 call	 DWORD PTR __imp__InvalidateRect@12
$LN5@OnColor:
; File C:\Program Files (x86)\Microsoft Visual Studio\2019\Community\VC\Tools\MSVC\14.29.30133\atlmfc\include\afxdlgs.h

; 110  :     virtual ~CCommonDialog() {};

  00078	8d 8d 20 ff ff
	ff		 lea	 ecx, DWORD PTR _colorDlg$[ebp]
  0007e	c7 85 20 ff ff
	ff 00 00 00 00	 mov	 DWORD PTR _colorDlg$[ebp], OFFSET ??_7CCommonDialog@@6B@
  00088	e8 00 00 00 00	 call	 ??1CDialog@@UAE@XZ	; CDialog::~CDialog
; File D:\git\src\IBK\IBK_DRFN\ProjSrc\SrcChartEx\ChartAddIn\ChartAnalysisToolAddIn\AnalysisTool\DlgAnalysisToolSet.cpp

; 333  : }

  0008d	8b 4d f4	 mov	 ecx, DWORD PTR __$EHRec$[ebp]
  00090	64 89 0d 00 00
	00 00		 mov	 DWORD PTR fs:0, ecx
  00097	59		 pop	 ecx
  00098	5e		 pop	 esi
  00099	8b e5		 mov	 esp, ebp
  0009b	5d		 pop	 ebp
  0009c	c3		 ret	 0
_TEXT	ENDS
;	COMDAT text$x
text$x	SEGMENT
__unwindfunclet$?OnColor@CDlgAnalysisToolSet@@IAEXXZ$0:
  00000	8d 8d 20 ff ff
	ff		 lea	 ecx, DWORD PTR _colorDlg$[ebp]
  00006	e9 00 00 00 00	 jmp	 ??1CColorDialog@@UAE@XZ
  0000b	cc		 int	 3
  0000c	cc		 int	 3
  0000d	cc		 int	 3
  0000e	cc		 int	 3
  0000f	cc		 int	 3
__ehhandler$?OnColor@CDlgAnalysisToolSet@@IAEXXZ:
  00010	90		 npad	 1
  00011	90		 npad	 1
  00012	8b 54 24 08	 mov	 edx, DWORD PTR [esp+8]
  00016	8d 42 0c	 lea	 eax, DWORD PTR [edx+12]
  00019	8b 8a 24 ff ff
	ff		 mov	 ecx, DWORD PTR [edx-220]
  0001f	33 c8		 xor	 ecx, eax
  00021	e8 00 00 00 00	 call	 @__security_check_cookie@4
  00026	b8 00 00 00 00	 mov	 eax, OFFSET __ehfuncinfo$?OnColor@CDlgAnalysisToolSet@@IAEXXZ
  0002b	e9 00 00 00 00	 jmp	 ___CxxFrameHandler3
text$x	ENDS
?OnColor@CDlgAnalysisToolSet@@IAEXXZ ENDP		; CDlgAnalysisToolSet::OnColor
; Function compile flags: /Ogtp
; File D:\git\src\IBK\IBK_DRFN\ProjSrc\SrcChartEx\ChartAddIn\ChartAnalysisToolAddIn\AnalysisTool\DlgAnalysisToolSet.cpp
;	COMDAT ?OnInitDialog@CDlgAnalysisToolSet@@MAEHXZ
_TEXT	SEGMENT
?OnInitDialog@CDlgAnalysisToolSet@@MAEHXZ PROC		; CDlgAnalysisToolSet::OnInitDialog, COMDAT
; _this$ = ecx

; 150  : {

  00000	57		 push	 edi
  00001	8b f9		 mov	 edi, ecx

; 151  : 	CDialog::OnInitDialog();

  00003	e8 00 00 00 00	 call	 ?OnInitDialog@CDialog@@UAEHXZ ; CDialog::OnInitDialog

; 152  : 
; 153  : 	// Dialog    
; 154  : 	mouse_event(MOUSEEVENTF_LEFTDOWN, 0, 0, 0, 0);

  00008	6a 00		 push	 0
  0000a	6a 00		 push	 0
  0000c	6a 00		 push	 0
  0000e	6a 00		 push	 0
  00010	6a 02		 push	 2
  00012	ff 15 00 00 00
	00		 call	 DWORD PTR __imp__mouse_event@20

; 155  : 	mouse_event(MOUSEEVENTF_LEFTUP, 0, 0, 0, 0);

  00018	6a 00		 push	 0
  0001a	6a 00		 push	 0
  0001c	6a 00		 push	 0
  0001e	6a 00		 push	 0
  00020	6a 04		 push	 4
  00022	ff 15 00 00 00
	00		 call	 DWORD PTR __imp__mouse_event@20

; 156  : 	
; 157  : 	InitializeData();

  00028	8b cf		 mov	 ecx, edi
  0002a	e8 00 00 00 00	 call	 ?InitializeData@CDlgAnalysisToolSet@@IAEXXZ ; CDlgAnalysisToolSet::InitializeData

; 158  : 	return TRUE;  // return TRUE unless you set the focus to a control

  0002f	b8 01 00 00 00	 mov	 eax, 1
  00034	5f		 pop	 edi

; 159  : 	              // EXCEPTION: OCX Property Pages should return FALSE
; 160  : }

  00035	c3		 ret	 0
?OnInitDialog@CDlgAnalysisToolSet@@MAEHXZ ENDP		; CDlgAnalysisToolSet::OnInitDialog
_TEXT	ENDS
; Function compile flags: /Ogtp
; File D:\git\src\IBK\IBK_DRFN\ProjSrc\SrcChartEx\ChartAddIn\ChartAnalysisToolAddIn\AnalysisTool\DlgAnalysisToolSet.cpp
;	COMDAT ?DoDataExchange@CDlgAnalysisToolSet@@MAEXPAVCDataExchange@@@Z
_TEXT	SEGMENT
_pDX$ = 8						; size = 4
?DoDataExchange@CDlgAnalysisToolSet@@MAEXPAVCDataExchange@@@Z PROC ; CDlgAnalysisToolSet::DoDataExchange, COMDAT
; _this$ = ecx

; 101  : {

  00000	55		 push	 ebp
  00001	8b ec		 mov	 ebp, esp
  00003	56		 push	 esi

; 102  : 	CDialog::DoDataExchange(pDX);
; 103  : 	//{{AFX_DATA_MAP(CDlgAnalysisToolSet)
; 104  : 	DDX_Control(pDX, IDC_CHECK_PRICE_RANGE, m_chkPriceRangeDiv);

  00004	8b 75 08	 mov	 esi, DWORD PTR _pDX$[ebp]
  00007	57		 push	 edi
  00008	8b f9		 mov	 edi, ecx
  0000a	8d 87 a8 00 00
	00		 lea	 eax, DWORD PTR [edi+168]
  00010	50		 push	 eax
  00011	68 b3 0f 00 00	 push	 4019			; 00000fb3H
  00016	56		 push	 esi
  00017	e8 00 00 00 00	 call	 ?DDX_Control@@YGXPAVCDataExchange@@HAAVCWnd@@@Z ; DDX_Control

; 105  : 	DDX_Control(pDX, IDC_STYLE, m_ctlStyle);

  0001c	8d 87 28 01 00
	00		 lea	 eax, DWORD PTR [edi+296]
  00022	50		 push	 eax
  00023	68 2e 27 00 00	 push	 10030			; 0000272eH
  00028	56		 push	 esi
  00029	e8 00 00 00 00	 call	 ?DDX_Control@@YGXPAVCDataExchange@@HAAVCWnd@@@Z ; DDX_Control

; 106  : 	DDX_Control(pDX, IDC_WIDTH, m_ctlWidth);

  0002e	8d 87 b8 01 00
	00		 lea	 eax, DWORD PTR [edi+440]
  00034	50		 push	 eax
  00035	68 63 23 00 00	 push	 9059			; 00002363H
  0003a	56		 push	 esi
  0003b	e8 00 00 00 00	 call	 ?DDX_Control@@YGXPAVCDataExchange@@HAAVCWnd@@@Z ; DDX_Control

; 107  : 	DDX_Control(pDX, IDC_COLOR, m_ctlColor);

  00040	8d 87 48 02 00
	00		 lea	 eax, DWORD PTR [edi+584]
  00046	50		 push	 eax
  00047	68 45 1f 00 00	 push	 8005			; 00001f45H
  0004c	56		 push	 esi
  0004d	e8 00 00 00 00	 call	 ?DDX_Control@@YGXPAVCDataExchange@@HAAVCWnd@@@Z ; DDX_Control

; 108  : 	DDX_Control(pDX, IDC_CHECK_TEXT_LEFT, m_ctrlLeftText);

  00052	8d 87 d0 02 00
	00		 lea	 eax, DWORD PTR [edi+720]
  00058	50		 push	 eax
  00059	68 a0 0f 00 00	 push	 4000			; 00000fa0H
  0005e	56		 push	 esi
  0005f	e8 00 00 00 00	 call	 ?DDX_Control@@YGXPAVCDataExchange@@HAAVCWnd@@@Z ; DDX_Control

; 109  : 	DDX_Control(pDX, IDC_CHECK_TEXT_RIGHT, m_ctrlRightText);

  00064	8d 87 50 03 00
	00		 lea	 eax, DWORD PTR [edi+848]
  0006a	50		 push	 eax
  0006b	68 a1 0f 00 00	 push	 4001			; 00000fa1H
  00070	56		 push	 esi
  00071	e8 00 00 00 00	 call	 ?DDX_Control@@YGXPAVCDataExchange@@HAAVCWnd@@@Z ; DDX_Control

; 110  : 	DDX_Control(pDX, IDC_CHECK_TEXT_RATE, m_ctrlRateText);

  00076	8d 87 d0 03 00
	00		 lea	 eax, DWORD PTR [edi+976]
  0007c	50		 push	 eax
  0007d	68 b6 0f 00 00	 push	 4022			; 00000fb6H
  00082	56		 push	 esi
  00083	e8 00 00 00 00	 call	 ?DDX_Control@@YGXPAVCDataExchange@@HAAVCWnd@@@Z ; DDX_Control

; 111  : 	DDX_Control(pDX, IDC_CHECK_TEXT_TOP, m_ctrlTopText);

  00088	8d 87 50 04 00
	00		 lea	 eax, DWORD PTR [edi+1104]
  0008e	50		 push	 eax
  0008f	68 a4 0f 00 00	 push	 4004			; 00000fa4H
  00094	56		 push	 esi
  00095	e8 00 00 00 00	 call	 ?DDX_Control@@YGXPAVCDataExchange@@HAAVCWnd@@@Z ; DDX_Control

; 112  : 	DDX_Control(pDX, IDC_CHECK_TEXT_BOTTOM, m_ctrlBottomText);

  0009a	8d 87 d0 04 00
	00		 lea	 eax, DWORD PTR [edi+1232]
  000a0	50		 push	 eax
  000a1	68 a5 0f 00 00	 push	 4005			; 00000fa5H
  000a6	56		 push	 esi
  000a7	e8 00 00 00 00	 call	 ?DDX_Control@@YGXPAVCDataExchange@@HAAVCWnd@@@Z ; DDX_Control

; 113  : 	DDX_Control(pDX, IDC_CHECK_EXT_LEFT, m_ctrlLeftExt);

  000ac	8d 87 50 05 00
	00		 lea	 eax, DWORD PTR [edi+1360]
  000b2	50		 push	 eax
  000b3	68 a2 0f 00 00	 push	 4002			; 00000fa2H
  000b8	56		 push	 esi
  000b9	e8 00 00 00 00	 call	 ?DDX_Control@@YGXPAVCDataExchange@@HAAVCWnd@@@Z ; DDX_Control

; 114  : 	DDX_Control(pDX, IDC_CHECK_EXT_RIGHT, m_ctrlRightExt);

  000be	8d 87 d0 05 00
	00		 lea	 eax, DWORD PTR [edi+1488]
  000c4	50		 push	 eax
  000c5	68 a3 0f 00 00	 push	 4003			; 00000fa3H
  000ca	56		 push	 esi
  000cb	e8 00 00 00 00	 call	 ?DDX_Control@@YGXPAVCDataExchange@@HAAVCWnd@@@Z ; DDX_Control

; 115  : 	DDX_Control(pDX, IDC_CHECK_EQUIDIV_LINE, m_ctrlEquiDiv);

  000d0	8d 87 50 06 00
	00		 lea	 eax, DWORD PTR [edi+1616]
  000d6	50		 push	 eax
  000d7	68 b0 0f 00 00	 push	 4016			; 00000fb0H
  000dc	56		 push	 esi
  000dd	e8 00 00 00 00	 call	 ?DDX_Control@@YGXPAVCDataExchange@@HAAVCWnd@@@Z ; DDX_Control

; 116  : 	DDX_Control(pDX, IDC_CHECK_FILL, m_ctrlCheckFill);

  000e2	8d 87 d0 06 00
	00		 lea	 eax, DWORD PTR [edi+1744]
  000e8	50		 push	 eax
  000e9	68 a6 0f 00 00	 push	 4006			; 00000fa6H
  000ee	56		 push	 esi
  000ef	e8 00 00 00 00	 call	 ?DDX_Control@@YGXPAVCDataExchange@@HAAVCWnd@@@Z ; DDX_Control

; 117  : 	DDX_Control(pDX, IDC_CHECK_HIGH_LOW, m_ctrlCheckHL);

  000f4	8d 87 50 07 00
	00		 lea	 eax, DWORD PTR [edi+1872]
  000fa	50		 push	 eax
  000fb	68 b1 0f 00 00	 push	 4017			; 00000fb1H
  00100	56		 push	 esi
  00101	e8 00 00 00 00	 call	 ?DDX_Control@@YGXPAVCDataExchange@@HAAVCWnd@@@Z ; DDX_Control

; 118  : 	DDX_Control(pDX, IDC_EDIT_XDATE1, m_ctrlEditXValue1);

  00106	8d 87 d0 07 00
	00		 lea	 eax, DWORD PTR [edi+2000]
  0010c	50		 push	 eax
  0010d	68 b2 0f 00 00	 push	 4018			; 00000fb2H
  00112	56		 push	 esi
  00113	e8 00 00 00 00	 call	 ?DDX_Control@@YGXPAVCDataExchange@@HAAVCWnd@@@Z ; DDX_Control

; 119  : 	DDX_Control(pDX, IDC_EDIT_XDATE2, m_ctrlEditXValue2);

  00118	8d 87 50 08 00
	00		 lea	 eax, DWORD PTR [edi+2128]
  0011e	50		 push	 eax
  0011f	68 b4 0f 00 00	 push	 4020			; 00000fb4H
  00124	56		 push	 esi
  00125	e8 00 00 00 00	 call	 ?DDX_Control@@YGXPAVCDataExchange@@HAAVCWnd@@@Z ; DDX_Control

; 120  : 	DDX_Control(pDX, IDC_EDIT_XDATE3, m_ctrlEditXValue3);

  0012a	8d 87 d0 08 00
	00		 lea	 eax, DWORD PTR [edi+2256]
  00130	50		 push	 eax
  00131	68 b5 0f 00 00	 push	 4021			; 00000fb5H
  00136	56		 push	 esi
  00137	e8 00 00 00 00	 call	 ?DDX_Control@@YGXPAVCDataExchange@@HAAVCWnd@@@Z ; DDX_Control

; 121  : 	DDX_Control(pDX, IDC_EDIT_VALUE1, m_ctrlEditValue1);

  0013c	8d 87 50 09 00
	00		 lea	 eax, DWORD PTR [edi+2384]
  00142	50		 push	 eax
  00143	68 a7 0f 00 00	 push	 4007			; 00000fa7H
  00148	56		 push	 esi
  00149	e8 00 00 00 00	 call	 ?DDX_Control@@YGXPAVCDataExchange@@HAAVCWnd@@@Z ; DDX_Control

; 122  : 	DDX_Control(pDX, IDC_EDIT_VALUE2, m_ctrlEditValue2);

  0014e	8d 87 d0 09 00
	00		 lea	 eax, DWORD PTR [edi+2512]
  00154	50		 push	 eax
  00155	68 a8 0f 00 00	 push	 4008			; 00000fa8H
  0015a	56		 push	 esi
  0015b	e8 00 00 00 00	 call	 ?DDX_Control@@YGXPAVCDataExchange@@HAAVCWnd@@@Z ; DDX_Control

; 123  : 	DDX_Control(pDX, IDC_EDIT_VALUE3, m_ctrlEditValue3);

  00160	8d 87 50 0a 00
	00		 lea	 eax, DWORD PTR [edi+2640]
  00166	50		 push	 eax
  00167	68 a9 0f 00 00	 push	 4009			; 00000fa9H
  0016c	56		 push	 esi
  0016d	e8 00 00 00 00	 call	 ?DDX_Control@@YGXPAVCDataExchange@@HAAVCWnd@@@Z ; DDX_Control

; 124  : 	DDX_Control(pDX, IDC_DATETIMEPICKER_XDATE1, m_ctrlXDateTime1);

  00172	8d 87 d0 0a 00
	00		 lea	 eax, DWORD PTR [edi+2768]
  00178	50		 push	 eax
  00179	68 ce 42 00 00	 push	 17102			; 000042ceH
  0017e	56		 push	 esi
  0017f	e8 00 00 00 00	 call	 ?DDX_Control@@YGXPAVCDataExchange@@HAAVCWnd@@@Z ; DDX_Control

; 125  : 	DDX_Control(pDX, IDC_DATETIMEPICKER_XDATE2, m_ctrlXDateTime2);

  00184	8d 87 50 0b 00
	00		 lea	 eax, DWORD PTR [edi+2896]
  0018a	50		 push	 eax
  0018b	68 cf 42 00 00	 push	 17103			; 000042cfH
  00190	56		 push	 esi
  00191	e8 00 00 00 00	 call	 ?DDX_Control@@YGXPAVCDataExchange@@HAAVCWnd@@@Z ; DDX_Control

; 126  : 	DDX_Control(pDX, IDC_DATETIMEPICKER_XDATE3, m_ctrlXDateTime3);

  00196	8d 87 d0 0b 00
	00		 lea	 eax, DWORD PTR [edi+3024]
  0019c	50		 push	 eax
  0019d	68 d0 42 00 00	 push	 17104			; 000042d0H
  001a2	56		 push	 esi
  001a3	e8 00 00 00 00	 call	 ?DDX_Control@@YGXPAVCDataExchange@@HAAVCWnd@@@Z ; DDX_Control

; 127  : 	DDX_CBIndex(pDX, IDC_WIDTH, m_nWidth);

  001a8	8d 87 50 0c 00
	00		 lea	 eax, DWORD PTR [edi+3152]
  001ae	50		 push	 eax
  001af	68 63 23 00 00	 push	 9059			; 00002363H
  001b4	56		 push	 esi
  001b5	e8 00 00 00 00	 call	 ?DDX_CBIndex@@YGXPAVCDataExchange@@HAAH@Z ; DDX_CBIndex

; 128  : 	DDX_CBIndex(pDX, IDC_STYLE, m_nStyle);

  001ba	8d 87 54 0c 00
	00		 lea	 eax, DWORD PTR [edi+3156]
  001c0	50		 push	 eax
  001c1	68 2e 27 00 00	 push	 10030			; 0000272eH
  001c6	56		 push	 esi
  001c7	e8 00 00 00 00	 call	 ?DDX_CBIndex@@YGXPAVCDataExchange@@HAAH@Z ; DDX_CBIndex
  001cc	5f		 pop	 edi
  001cd	5e		 pop	 esi

; 129  : 	//}}AFX_DATA_MAP
; 130  : }

  001ce	5d		 pop	 ebp
  001cf	c2 04 00	 ret	 4
?DoDataExchange@CDlgAnalysisToolSet@@MAEXPAVCDataExchange@@@Z ENDP ; CDlgAnalysisToolSet::DoDataExchange
_TEXT	ENDS
; Function compile flags: /Ogtp
; File D:\git\src\IBK\IBK_DRFN\ProjSrc\SrcChartEx\ChartAddIn\ChartAnalysisToolAddIn\AnalysisTool\DlgAnalysisToolSet.cpp
; File C:\Program Files (x86)\Microsoft Visual Studio\2019\Community\VC\Tools\MSVC\14.29.30133\atlmfc\include\afxwin2.inl
; File D:\git\src\IBK\IBK_DRFN\ProjSrc\SrcChartEx\ChartAddIn\ChartAnalysisToolAddIn\AnalysisTool\DlgAnalysisToolSet.cpp
; File C:\Program Files (x86)\Microsoft Visual Studio\2019\Community\VC\Tools\MSVC\14.29.30133\atlmfc\include\afxwin2.inl
; File D:\git\src\IBK\IBK_DRFN\ProjSrc\SrcChartEx\ChartAddIn\ChartAnalysisToolAddIn\AnalysisTool\DlgAnalysisToolSet.cpp
; File C:\Program Files (x86)\Microsoft Visual Studio\2019\Community\VC\Tools\MSVC\14.29.30133\atlmfc\include\afxwin2.inl
; File D:\git\src\IBK\IBK_DRFN\ProjSrc\SrcChartEx\ChartAddIn\ChartAnalysisToolAddIn\AnalysisTool\DlgAnalysisToolSet.cpp
; File C:\Program Files (x86)\Microsoft Visual Studio\2019\Community\VC\Tools\MSVC\14.29.30133\atlmfc\include\afxwin2.inl
; File D:\git\src\IBK\IBK_DRFN\ProjSrc\SrcChartEx\ChartAddIn\ChartAnalysisToolAddIn\AnalysisTool\DlgAnalysisToolSet.cpp
; File C:\Program Files (x86)\Microsoft Visual Studio\2019\Community\VC\Tools\MSVC\14.29.30133\atlmfc\include\afxwin2.inl
; File D:\git\src\IBK\IBK_DRFN\ProjSrc\SrcChartEx\ChartAddIn\ChartAnalysisToolAddIn\AnalysisTool\DlgAnalysisToolSet.cpp
; File C:\Program Files (x86)\Microsoft Visual Studio\2019\Community\VC\Tools\MSVC\14.29.30133\atlmfc\include\afxwin2.inl
; File D:\git\src\IBK\IBK_DRFN\ProjSrc\SrcChartEx\ChartAddIn\ChartAnalysisToolAddIn\AnalysisTool\DlgAnalysisToolSet.cpp
; File C:\Program Files (x86)\Microsoft Visual Studio\2019\Community\VC\Tools\MSVC\14.29.30133\atlmfc\include\afxwin2.inl
; File D:\git\src\IBK\IBK_DRFN\ProjSrc\SrcChartEx\ChartAddIn\ChartAnalysisToolAddIn\AnalysisTool\DlgAnalysisToolSet.cpp
; File C:\Program Files (x86)\Microsoft Visual Studio\2019\Community\VC\Tools\MSVC\14.29.30133\atlmfc\include\afxwin2.inl
; File D:\git\src\IBK\IBK_DRFN\ProjSrc\SrcChartEx\ChartAddIn\ChartAnalysisToolAddIn\AnalysisTool\DlgAnalysisToolSet.cpp
; File C:\Program Files (x86)\Microsoft Visual Studio\2019\Community\VC\Tools\MSVC\14.29.30133\atlmfc\include\afxwin2.inl
; File D:\git\src\IBK\IBK_DRFN\ProjSrc\SrcChartEx\ChartAddIn\ChartAnalysisToolAddIn\AnalysisTool\DlgAnalysisToolSet.cpp
; File C:\Program Files (x86)\Microsoft Visual Studio\2019\Community\VC\Tools\MSVC\14.29.30133\atlmfc\include\afxwin2.inl
; File D:\git\src\IBK\IBK_DRFN\ProjSrc\SrcChartEx\ChartAddIn\ChartAnalysisToolAddIn\AnalysisTool\DlgAnalysisToolSet.cpp
; File C:\Program Files (x86)\Microsoft Visual Studio\2019\Community\VC\Tools\MSVC\14.29.30133\atlmfc\include\afxwin2.inl
; File D:\git\src\IBK\IBK_DRFN\ProjSrc\SrcChartEx\ChartAddIn\ChartAnalysisToolAddIn\AnalysisTool\DlgAnalysisToolSet.cpp
; File C:\Program Files (x86)\Microsoft Visual Studio\2019\Community\VC\Tools\MSVC\14.29.30133\atlmfc\include\afxwin2.inl
; File D:\git\src\IBK\IBK_DRFN\ProjSrc\SrcChartEx\ChartAddIn\ChartAnalysisToolAddIn\AnalysisTool\DlgAnalysisToolSet.cpp
; File C:\Program Files (x86)\Microsoft Visual Studio\2019\Community\VC\Tools\MSVC\14.29.30133\atlmfc\include\afxwin2.inl
; File D:\git\src\IBK\IBK_DRFN\ProjSrc\SrcChartEx\ChartAddIn\ChartAnalysisToolAddIn\AnalysisTool\DlgAnalysisToolSet.cpp
; File C:\Program Files (x86)\Microsoft Visual Studio\2019\Community\VC\Tools\MSVC\14.29.30133\atlmfc\include\afxwin2.inl
; File D:\git\src\IBK\IBK_DRFN\ProjSrc\SrcChartEx\ChartAddIn\ChartAnalysisToolAddIn\AnalysisTool\DlgAnalysisToolSet.cpp
; File C:\Program Files (x86)\Microsoft Visual Studio\2019\Community\VC\Tools\MSVC\14.29.30133\atlmfc\include\afxwin2.inl
; File D:\git\src\IBK\IBK_DRFN\ProjSrc\SrcChartEx\ChartAddIn\ChartAnalysisToolAddIn\AnalysisTool\DlgAnalysisToolSet.cpp
; File C:\Program Files (x86)\Microsoft Visual Studio\2019\Community\VC\Tools\MSVC\14.29.30133\atlmfc\include\afxwin2.inl
; File D:\git\src\IBK\IBK_DRFN\ProjSrc\SrcChartEx\ChartAddIn\ChartAnalysisToolAddIn\AnalysisTool\DlgAnalysisToolSet.cpp
; File C:\Program Files (x86)\Microsoft Visual Studio\2019\Community\VC\Tools\MSVC\14.29.30133\atlmfc\include\afxwin2.inl
; File D:\git\src\IBK\IBK_DRFN\ProjSrc\SrcChartEx\ChartAddIn\ChartAnalysisToolAddIn\AnalysisTool\DlgAnalysisToolSet.cpp
; File C:\Program Files (x86)\Microsoft Visual Studio\2019\Community\VC\Tools\MSVC\14.29.30133\atlmfc\include\afxwin2.inl
; File D:\git\src\IBK\IBK_DRFN\ProjSrc\SrcChartEx\ChartAddIn\ChartAnalysisToolAddIn\AnalysisTool\DlgAnalysisToolSet.cpp
; File C:\Program Files (x86)\Microsoft Visual Studio\2019\Community\VC\Tools\MSVC\14.29.30133\atlmfc\include\afxwin2.inl
; File D:\git\src\IBK\IBK_DRFN\ProjSrc\SrcChartEx\ChartAddIn\ChartAnalysisToolAddIn\AnalysisTool\DlgAnalysisToolSet.cpp
; File C:\Program Files (x86)\Microsoft Visual Studio\2019\Community\VC\Tools\MSVC\14.29.30133\atlmfc\include\afxwin2.inl
; File D:\git\src\IBK\IBK_DRFN\ProjSrc\SrcChartEx\ChartAddIn\ChartAnalysisToolAddIn\AnalysisTool\DlgAnalysisToolSet.cpp
; File C:\Program Files (x86)\Microsoft Visual Studio\2019\Community\VC\Tools\MSVC\14.29.30133\atlmfc\include\afxwin2.inl
; File D:\git\src\IBK\IBK_DRFN\ProjSrc\SrcChartEx\ChartAddIn\ChartAnalysisToolAddIn\AnalysisTool\DlgAnalysisToolSet.cpp
; File C:\Program Files (x86)\Microsoft Visual Studio\2019\Community\VC\Tools\MSVC\14.29.30133\atlmfc\include\afxwin2.inl
; File D:\git\src\IBK\IBK_DRFN\ProjSrc\SrcChartEx\ChartAddIn\ChartAnalysisToolAddIn\AnalysisTool\DlgAnalysisToolSet.cpp
; File C:\Program Files (x86)\Microsoft Visual Studio\2019\Community\VC\Tools\MSVC\14.29.30133\atlmfc\include\afxwin2.inl
; File D:\git\src\IBK\IBK_DRFN\ProjSrc\SrcChartEx\ChartAddIn\ChartAnalysisToolAddIn\AnalysisTool\DlgAnalysisToolSet.cpp
; File C:\Program Files (x86)\Microsoft Visual Studio\2019\Community\VC\Tools\MSVC\14.29.30133\atlmfc\include\afxwin2.inl
; File D:\git\src\IBK\IBK_DRFN\ProjSrc\SrcChartEx\ChartAddIn\ChartAnalysisToolAddIn\AnalysisTool\DlgAnalysisToolSet.cpp
; File C:\Program Files (x86)\Microsoft Visual Studio\2019\Community\VC\Tools\MSVC\14.29.30133\atlmfc\include\afxwin2.inl
; File D:\git\src\IBK\IBK_DRFN\ProjSrc\SrcChartEx\ChartAddIn\ChartAnalysisToolAddIn\AnalysisTool\DlgAnalysisToolSet.cpp
; File C:\Program Files (x86)\Microsoft Visual Studio\2019\Community\VC\Tools\MSVC\14.29.30133\atlmfc\include\afxwin2.inl
; File D:\git\src\IBK\IBK_DRFN\ProjSrc\SrcChartEx\ChartAddIn\ChartAnalysisToolAddIn\AnalysisTool\DlgAnalysisToolSet.cpp
; File C:\Program Files (x86)\Microsoft Visual Studio\2019\Community\VC\Tools\MSVC\14.29.30133\atlmfc\include\afxwin2.inl
; File D:\git\src\IBK\IBK_DRFN\ProjSrc\SrcChartEx\ChartAddIn\ChartAnalysisToolAddIn\AnalysisTool\DlgAnalysisToolSet.cpp
; File C:\Program Files (x86)\Microsoft Visual Studio\2019\Community\VC\Tools\MSVC\14.29.30133\atlmfc\include\afxwin2.inl
; File D:\git\src\IBK\IBK_DRFN\ProjSrc\SrcChartEx\ChartAddIn\ChartAnalysisToolAddIn\AnalysisTool\DlgAnalysisToolSet.cpp
; File C:\Program Files (x86)\Microsoft Visual Studio\2019\Community\VC\Tools\MSVC\14.29.30133\atlmfc\include\afxwin2.inl
; File D:\git\src\IBK\IBK_DRFN\ProjSrc\SrcChartEx\ChartAddIn\ChartAnalysisToolAddIn\AnalysisTool\DlgAnalysisToolSet.cpp
; File C:\Program Files (x86)\Microsoft Visual Studio\2019\Community\VC\Tools\MSVC\14.29.30133\atlmfc\include\afxwin2.inl
; File D:\git\src\IBK\IBK_DRFN\ProjSrc\SrcChartEx\ChartAddIn\ChartAnalysisToolAddIn\AnalysisTool\DlgAnalysisToolSet.cpp
; File C:\Program Files (x86)\Microsoft Visual Studio\2019\Community\VC\Tools\MSVC\14.29.30133\atlmfc\include\afxwin2.inl
; File D:\git\src\IBK\IBK_DRFN\ProjSrc\SrcChartEx\ChartAddIn\ChartAnalysisToolAddIn\AnalysisTool\DlgAnalysisToolSet.cpp
; File C:\Program Files (x86)\Microsoft Visual Studio\2019\Community\VC\Tools\MSVC\14.29.30133\atlmfc\include\afxwin2.inl
; File D:\git\src\IBK\IBK_DRFN\ProjSrc\SrcChartEx\ChartAddIn\ChartAnalysisToolAddIn\AnalysisTool\DlgAnalysisToolSet.cpp
; File C:\Program Files (x86)\Microsoft Visual Studio\2019\Community\VC\Tools\MSVC\14.29.30133\atlmfc\include\afxwin2.inl
; File D:\git\src\IBK\IBK_DRFN\ProjSrc\SrcChartEx\ChartAddIn\ChartAnalysisToolAddIn\AnalysisTool\DlgAnalysisToolSet.cpp
; File C:\Program Files (x86)\Microsoft Visual Studio\2019\Community\VC\Tools\MSVC\14.29.30133\atlmfc\include\afxwin2.inl
; File D:\git\src\IBK\IBK_DRFN\ProjSrc\SrcChartEx\ChartAddIn\ChartAnalysisToolAddIn\AnalysisTool\DlgAnalysisToolSet.cpp
; File C:\Program Files (x86)\Microsoft Visual Studio\2019\Community\VC\Tools\MSVC\14.29.30133\atlmfc\include\afxdtctl.inl
; File D:\git\src\IBK\IBK_DRFN\ProjSrc\SrcChartEx\ChartAddIn\ChartAnalysisToolAddIn\AnalysisTool\DlgAnalysisToolSet.cpp
; File C:\Program Files (x86)\Microsoft Visual Studio\2019\Community\VC\Tools\MSVC\14.29.30133\atlmfc\include\afxdtctl.inl
; File D:\git\src\IBK\IBK_DRFN\ProjSrc\SrcChartEx\ChartAddIn\ChartAnalysisToolAddIn\AnalysisTool\DlgAnalysisToolSet.cpp
; File C:\Program Files (x86)\Microsoft Visual Studio\2019\Community\VC\Tools\MSVC\14.29.30133\atlmfc\include\afxdtctl.inl
; File D:\git\src\IBK\IBK_DRFN\ProjSrc\SrcChartEx\ChartAddIn\ChartAnalysisToolAddIn\AnalysisTool\DlgAnalysisToolSet.cpp
; File C:\Program Files (x86)\Microsoft Visual Studio\2019\Community\VC\Tools\MSVC\14.29.30133\atlmfc\include\afxdtctl.inl
; File D:\git\src\IBK\IBK_DRFN\ProjSrc\SrcChartEx\ChartAddIn\ChartAnalysisToolAddIn\AnalysisTool\DlgAnalysisToolSet.cpp
; File C:\Program Files (x86)\Microsoft Visual Studio\2019\Community\VC\Tools\MSVC\14.29.30133\atlmfc\include\afxdtctl.inl
; File D:\git\src\IBK\IBK_DRFN\ProjSrc\SrcChartEx\ChartAddIn\ChartAnalysisToolAddIn\AnalysisTool\DlgAnalysisToolSet.cpp
; File C:\Program Files (x86)\Microsoft Visual Studio\2019\Community\VC\Tools\MSVC\14.29.30133\atlmfc\include\afxdtctl.inl
; File D:\git\src\IBK\IBK_DRFN\ProjSrc\SrcChartEx\ChartAddIn\ChartAnalysisToolAddIn\Include_Chart\BlockBaseData.h
; File D:\git\src\IBK\IBK_DRFN\ProjSrc\SrcChartEx\ChartAddIn\ChartAnalysisToolAddIn\AnalysisTool\DlgAnalysisToolSet.cpp
; File D:\git\src\IBK\IBK_DRFN\ProjSrc\SrcChartEx\ChartAddIn\ChartAnalysisToolAddIn\Include_Chart\BlockBaseData.h
; File D:\git\src\IBK\IBK_DRFN\ProjSrc\SrcChartEx\ChartAddIn\ChartAnalysisToolAddIn\AnalysisTool\DlgAnalysisToolSet.cpp
; File D:\git\src\IBK\IBK_DRFN\ProjSrc\SrcChartEx\ChartAddIn\ChartAnalysisToolAddIn\Include_Chart\BlockBaseData.h
; File D:\git\src\IBK\IBK_DRFN\ProjSrc\SrcChartEx\ChartAddIn\ChartAnalysisToolAddIn\AnalysisTool\DlgAnalysisToolSet.cpp
; File C:\Program Files (x86)\Microsoft Visual Studio\2019\Community\VC\Tools\MSVC\14.29.30133\atlmfc\include\afxwin2.inl
; File D:\git\src\IBK\IBK_DRFN\ProjSrc\SrcChartEx\ChartAddIn\ChartAnalysisToolAddIn\AnalysisTool\DlgAnalysisToolSet.cpp
;	COMDAT ??0CDlgAnalysisToolSet@@QAE@PAVCWnd@@ABV?$CStringT@DV?$StrTraitMFC_DLL@DV?$ChTraitsCRT@D@ATL@@@@@ATL@@ABW4HORZSCALEDRAWERTYPE@CScaleBaseData@@HPAH3PAVCTextPosition@@PAVCPenEnvironment@@PAVCElementPointList@@PAVCLineExtEnvironment@@PAVCDataTypeEnvironment@@PAUIChartOCX133101@@AAVCBlockIndex@@V23@J@Z
_TEXT	SEGMENT
$T2 = -24						; size = 8
_this$ = -20						; size = 4
_this$ = -20						; size = 4
_this$ = -20						; size = 4
_this$ = -20						; size = 4
_this$ = -20						; size = 4
_this$ = -20						; size = 4
_this$ = -20						; size = 4
_this$ = -20						; size = 4
_this$ = -20						; size = 4
_this$ = -20						; size = 4
_this$ = -20						; size = 4
_this$ = -20						; size = 4
_this$ = -20						; size = 4
_this$ = -20						; size = 4
_this$ = -20						; size = 4
_this$ = -20						; size = 4
_this$ = -20						; size = 4
_this$ = -20						; size = 4
_this$ = -20						; size = 4
_this$ = -20						; size = 4
_this$ = -16						; size = 4
__$EHRec$ = -12						; size = 12
_pParent$ = 8						; size = 4
_strUserPath$ = 12					; size = 4
_nDataPeriod$ = 16					; size = 4
_nElementType$ = 20					; size = 4
_pEquiDivType$ = 24					; size = 4
_pPriceRangeDivType$ = 28				; size = 4
_pTextPosition$ = 32					; size = 4
_pPenEnvironment$ = 36					; size = 4
_pElementPointList$ = 40				; size = 4
_pLineExtEnvironment$ = 44				; size = 4
_pDataEnvironment$ = 48					; size = 4
_p_pIChartOCX$ = 52					; size = 4
_blockIndex$ = 56					; size = 4
_strFormatX$ = 60					; size = 4
_pInterface$ = 64					; size = 4
??0CDlgAnalysisToolSet@@QAE@PAVCWnd@@ABV?$CStringT@DV?$StrTraitMFC_DLL@DV?$ChTraitsCRT@D@ATL@@@@@ATL@@ABW4HORZSCALEDRAWERTYPE@CScaleBaseData@@HPAH3PAVCTextPosition@@PAVCPenEnvironment@@PAVCElementPointList@@PAVCLineExtEnvironment@@PAVCDataTypeEnvironment@@PAUIChartOCX133101@@AAVCBlockIndex@@V23@J@Z PROC ; CDlgAnalysisToolSet::CDlgAnalysisToolSet, COMDAT
; _this$ = ecx

; 63   : {

  00000	55		 push	 ebp
  00001	8b ec		 mov	 ebp, esp
  00003	6a ff		 push	 -1
  00005	68 00 00 00 00	 push	 __ehhandler$??0CDlgAnalysisToolSet@@QAE@PAVCWnd@@ABV?$CStringT@DV?$StrTraitMFC_DLL@DV?$ChTraitsCRT@D@ATL@@@@@ATL@@ABW4HORZSCALEDRAWERTYPE@CScaleBaseData@@HPAH3PAVCTextPosition@@PAVCPenEnvironment@@PAVCElementPointList@@PAVCLineExtEnvironment@@PAVCDataTypeEnvironment@@PAUIChartOCX133101@@AAVCBlockIndex@@V23@J@Z
  0000a	64 a1 00 00 00
	00		 mov	 eax, DWORD PTR fs:0
  00010	50		 push	 eax
  00011	83 ec 0c	 sub	 esp, 12			; 0000000cH
  00014	53		 push	 ebx
  00015	56		 push	 esi
  00016	57		 push	 edi
  00017	a1 00 00 00 00	 mov	 eax, DWORD PTR ___security_cookie
  0001c	33 c5		 xor	 eax, ebp
  0001e	50		 push	 eax
  0001f	8d 45 f4	 lea	 eax, DWORD PTR __$EHRec$[ebp]
  00022	64 a3 00 00 00
	00		 mov	 DWORD PTR fs:0, eax
  00028	8b f9		 mov	 edi, ecx
  0002a	89 7d f0	 mov	 DWORD PTR _this$[ebp], edi
  0002d	8b 5d 08	 mov	 ebx, DWORD PTR _pParent$[ebp]
  00030	53		 push	 ebx
  00031	68 2f 23 00 00	 push	 9007			; 0000232fH
  00036	c7 45 fc 00 00
	00 00		 mov	 DWORD PTR __$EHRec$[ebp+8], 0
  0003d	e8 00 00 00 00	 call	 ??0CDialog@@QAE@IPAVCWnd@@@Z ; CDialog::CDialog
  00042	8d b7 a8 00 00
	00		 lea	 esi, DWORD PTR [edi+168]
  00048	c6 45 fc 01	 mov	 BYTE PTR __$EHRec$[ebp+8], 1
; File C:\Program Files (x86)\Microsoft Visual Studio\2019\Community\VC\Tools\MSVC\14.29.30133\atlmfc\include\afxwin2.inl

; 622  : 	{ }

  0004c	8b ce		 mov	 ecx, esi
; File D:\git\src\IBK\IBK_DRFN\ProjSrc\SrcChartEx\ChartAddIn\ChartAnalysisToolAddIn\AnalysisTool\DlgAnalysisToolSet.cpp

; 63   : {

  0004e	c7 07 00 00 00
	00		 mov	 DWORD PTR [edi], OFFSET ??_7CDlgAnalysisToolSet@@6B@
  00054	89 75 ec	 mov	 DWORD PTR _this$[ebp], esi
; File C:\Program Files (x86)\Microsoft Visual Studio\2019\Community\VC\Tools\MSVC\14.29.30133\atlmfc\include\afxwin2.inl

; 622  : 	{ }

  00057	e8 00 00 00 00	 call	 ??0CWnd@@QAE@XZ		; CWnd::CWnd
  0005c	c7 06 00 00 00
	00		 mov	 DWORD PTR [esi], OFFSET ??_7CButton@@6B@
; File D:\git\src\IBK\IBK_DRFN\ProjSrc\SrcChartEx\ChartAddIn\ChartAnalysisToolAddIn\AnalysisTool\DlgAnalysisToolSet.cpp

; 63   : {

  00062	8d 8f 28 01 00
	00		 lea	 ecx, DWORD PTR [edi+296]
  00068	c6 45 fc 02	 mov	 BYTE PTR __$EHRec$[ebp+8], 2
  0006c	e8 00 00 00 00	 call	 ??0CBitmapComboBox@@QAE@XZ ; CBitmapComboBox::CBitmapComboBox
  00071	8d 8f b8 01 00
	00		 lea	 ecx, DWORD PTR [edi+440]
  00077	c6 45 fc 03	 mov	 BYTE PTR __$EHRec$[ebp+8], 3
  0007b	e8 00 00 00 00	 call	 ??0CBitmapComboBox@@QAE@XZ ; CBitmapComboBox::CBitmapComboBox
  00080	8d 8f 48 02 00
	00		 lea	 ecx, DWORD PTR [edi+584]
  00086	c6 45 fc 04	 mov	 BYTE PTR __$EHRec$[ebp+8], 4
  0008a	e8 00 00 00 00	 call	 ??0CColorButton@@QAE@XZ	; CColorButton::CColorButton
  0008f	8d b7 d0 02 00
	00		 lea	 esi, DWORD PTR [edi+720]
  00095	c6 45 fc 05	 mov	 BYTE PTR __$EHRec$[ebp+8], 5
; File C:\Program Files (x86)\Microsoft Visual Studio\2019\Community\VC\Tools\MSVC\14.29.30133\atlmfc\include\afxwin2.inl

; 622  : 	{ }

  00099	8b ce		 mov	 ecx, esi
; File D:\git\src\IBK\IBK_DRFN\ProjSrc\SrcChartEx\ChartAddIn\ChartAnalysisToolAddIn\AnalysisTool\DlgAnalysisToolSet.cpp

; 63   : {

  0009b	89 75 ec	 mov	 DWORD PTR _this$[ebp], esi
; File C:\Program Files (x86)\Microsoft Visual Studio\2019\Community\VC\Tools\MSVC\14.29.30133\atlmfc\include\afxwin2.inl

; 622  : 	{ }

  0009e	e8 00 00 00 00	 call	 ??0CWnd@@QAE@XZ		; CWnd::CWnd
  000a3	c7 06 00 00 00
	00		 mov	 DWORD PTR [esi], OFFSET ??_7CButton@@6B@
; File D:\git\src\IBK\IBK_DRFN\ProjSrc\SrcChartEx\ChartAddIn\ChartAnalysisToolAddIn\AnalysisTool\DlgAnalysisToolSet.cpp

; 63   : {

  000a9	8d b7 50 03 00
	00		 lea	 esi, DWORD PTR [edi+848]
  000af	c6 45 fc 06	 mov	 BYTE PTR __$EHRec$[ebp+8], 6
; File C:\Program Files (x86)\Microsoft Visual Studio\2019\Community\VC\Tools\MSVC\14.29.30133\atlmfc\include\afxwin2.inl

; 622  : 	{ }

  000b3	8b ce		 mov	 ecx, esi
; File D:\git\src\IBK\IBK_DRFN\ProjSrc\SrcChartEx\ChartAddIn\ChartAnalysisToolAddIn\AnalysisTool\DlgAnalysisToolSet.cpp

; 63   : {

  000b5	89 75 ec	 mov	 DWORD PTR _this$[ebp], esi
; File C:\Program Files (x86)\Microsoft Visual Studio\2019\Community\VC\Tools\MSVC\14.29.30133\atlmfc\include\afxwin2.inl

; 622  : 	{ }

  000b8	e8 00 00 00 00	 call	 ??0CWnd@@QAE@XZ		; CWnd::CWnd
  000bd	c7 06 00 00 00
	00		 mov	 DWORD PTR [esi], OFFSET ??_7CButton@@6B@
; File D:\git\src\IBK\IBK_DRFN\ProjSrc\SrcChartEx\ChartAddIn\ChartAnalysisToolAddIn\AnalysisTool\DlgAnalysisToolSet.cpp

; 63   : {

  000c3	8d b7 d0 03 00
	00		 lea	 esi, DWORD PTR [edi+976]
  000c9	c6 45 fc 07	 mov	 BYTE PTR __$EHRec$[ebp+8], 7
; File C:\Program Files (x86)\Microsoft Visual Studio\2019\Community\VC\Tools\MSVC\14.29.30133\atlmfc\include\afxwin2.inl

; 622  : 	{ }

  000cd	8b ce		 mov	 ecx, esi
; File D:\git\src\IBK\IBK_DRFN\ProjSrc\SrcChartEx\ChartAddIn\ChartAnalysisToolAddIn\AnalysisTool\DlgAnalysisToolSet.cpp

; 63   : {

  000cf	89 75 ec	 mov	 DWORD PTR _this$[ebp], esi
; File C:\Program Files (x86)\Microsoft Visual Studio\2019\Community\VC\Tools\MSVC\14.29.30133\atlmfc\include\afxwin2.inl

; 622  : 	{ }

  000d2	e8 00 00 00 00	 call	 ??0CWnd@@QAE@XZ		; CWnd::CWnd
  000d7	c7 06 00 00 00
	00		 mov	 DWORD PTR [esi], OFFSET ??_7CButton@@6B@
; File D:\git\src\IBK\IBK_DRFN\ProjSrc\SrcChartEx\ChartAddIn\ChartAnalysisToolAddIn\AnalysisTool\DlgAnalysisToolSet.cpp

; 63   : {

  000dd	8d b7 50 04 00
	00		 lea	 esi, DWORD PTR [edi+1104]
  000e3	c6 45 fc 08	 mov	 BYTE PTR __$EHRec$[ebp+8], 8
; File C:\Program Files (x86)\Microsoft Visual Studio\2019\Community\VC\Tools\MSVC\14.29.30133\atlmfc\include\afxwin2.inl

; 622  : 	{ }

  000e7	8b ce		 mov	 ecx, esi
; File D:\git\src\IBK\IBK_DRFN\ProjSrc\SrcChartEx\ChartAddIn\ChartAnalysisToolAddIn\AnalysisTool\DlgAnalysisToolSet.cpp

; 63   : {

  000e9	89 75 ec	 mov	 DWORD PTR _this$[ebp], esi
; File C:\Program Files (x86)\Microsoft Visual Studio\2019\Community\VC\Tools\MSVC\14.29.30133\atlmfc\include\afxwin2.inl

; 622  : 	{ }

  000ec	e8 00 00 00 00	 call	 ??0CWnd@@QAE@XZ		; CWnd::CWnd
  000f1	c7 06 00 00 00
	00		 mov	 DWORD PTR [esi], OFFSET ??_7CButton@@6B@
; File D:\git\src\IBK\IBK_DRFN\ProjSrc\SrcChartEx\ChartAddIn\ChartAnalysisToolAddIn\AnalysisTool\DlgAnalysisToolSet.cpp

; 63   : {

  000f7	8d b7 d0 04 00
	00		 lea	 esi, DWORD PTR [edi+1232]
  000fd	c6 45 fc 09	 mov	 BYTE PTR __$EHRec$[ebp+8], 9
; File C:\Program Files (x86)\Microsoft Visual Studio\2019\Community\VC\Tools\MSVC\14.29.30133\atlmfc\include\afxwin2.inl

; 622  : 	{ }

  00101	8b ce		 mov	 ecx, esi
; File D:\git\src\IBK\IBK_DRFN\ProjSrc\SrcChartEx\ChartAddIn\ChartAnalysisToolAddIn\AnalysisTool\DlgAnalysisToolSet.cpp

; 63   : {

  00103	89 75 ec	 mov	 DWORD PTR _this$[ebp], esi
; File C:\Program Files (x86)\Microsoft Visual Studio\2019\Community\VC\Tools\MSVC\14.29.30133\atlmfc\include\afxwin2.inl

; 622  : 	{ }

  00106	e8 00 00 00 00	 call	 ??0CWnd@@QAE@XZ		; CWnd::CWnd
  0010b	c7 06 00 00 00
	00		 mov	 DWORD PTR [esi], OFFSET ??_7CButton@@6B@
; File D:\git\src\IBK\IBK_DRFN\ProjSrc\SrcChartEx\ChartAddIn\ChartAnalysisToolAddIn\AnalysisTool\DlgAnalysisToolSet.cpp

; 63   : {

  00111	8d b7 50 05 00
	00		 lea	 esi, DWORD PTR [edi+1360]
  00117	c6 45 fc 0a	 mov	 BYTE PTR __$EHRec$[ebp+8], 10 ; 0000000aH
; File C:\Program Files (x86)\Microsoft Visual Studio\2019\Community\VC\Tools\MSVC\14.29.30133\atlmfc\include\afxwin2.inl

; 622  : 	{ }

  0011b	8b ce		 mov	 ecx, esi
; File D:\git\src\IBK\IBK_DRFN\ProjSrc\SrcChartEx\ChartAddIn\ChartAnalysisToolAddIn\AnalysisTool\DlgAnalysisToolSet.cpp

; 63   : {

  0011d	89 75 ec	 mov	 DWORD PTR _this$[ebp], esi
; File C:\Program Files (x86)\Microsoft Visual Studio\2019\Community\VC\Tools\MSVC\14.29.30133\atlmfc\include\afxwin2.inl

; 622  : 	{ }

  00120	e8 00 00 00 00	 call	 ??0CWnd@@QAE@XZ		; CWnd::CWnd
  00125	c7 06 00 00 00
	00		 mov	 DWORD PTR [esi], OFFSET ??_7CButton@@6B@
; File D:\git\src\IBK\IBK_DRFN\ProjSrc\SrcChartEx\ChartAddIn\ChartAnalysisToolAddIn\AnalysisTool\DlgAnalysisToolSet.cpp

; 63   : {

  0012b	8d b7 d0 05 00
	00		 lea	 esi, DWORD PTR [edi+1488]
  00131	c6 45 fc 0b	 mov	 BYTE PTR __$EHRec$[ebp+8], 11 ; 0000000bH
; File C:\Program Files (x86)\Microsoft Visual Studio\2019\Community\VC\Tools\MSVC\14.29.30133\atlmfc\include\afxwin2.inl

; 622  : 	{ }

  00135	8b ce		 mov	 ecx, esi
; File D:\git\src\IBK\IBK_DRFN\ProjSrc\SrcChartEx\ChartAddIn\ChartAnalysisToolAddIn\AnalysisTool\DlgAnalysisToolSet.cpp

; 63   : {

  00137	89 75 ec	 mov	 DWORD PTR _this$[ebp], esi
; File C:\Program Files (x86)\Microsoft Visual Studio\2019\Community\VC\Tools\MSVC\14.29.30133\atlmfc\include\afxwin2.inl

; 622  : 	{ }

  0013a	e8 00 00 00 00	 call	 ??0CWnd@@QAE@XZ		; CWnd::CWnd
  0013f	c7 06 00 00 00
	00		 mov	 DWORD PTR [esi], OFFSET ??_7CButton@@6B@
; File D:\git\src\IBK\IBK_DRFN\ProjSrc\SrcChartEx\ChartAddIn\ChartAnalysisToolAddIn\AnalysisTool\DlgAnalysisToolSet.cpp

; 63   : {

  00145	8d b7 50 06 00
	00		 lea	 esi, DWORD PTR [edi+1616]
  0014b	c6 45 fc 0c	 mov	 BYTE PTR __$EHRec$[ebp+8], 12 ; 0000000cH
; File C:\Program Files (x86)\Microsoft Visual Studio\2019\Community\VC\Tools\MSVC\14.29.30133\atlmfc\include\afxwin2.inl

; 622  : 	{ }

  0014f	8b ce		 mov	 ecx, esi
; File D:\git\src\IBK\IBK_DRFN\ProjSrc\SrcChartEx\ChartAddIn\ChartAnalysisToolAddIn\AnalysisTool\DlgAnalysisToolSet.cpp

; 63   : {

  00151	89 75 ec	 mov	 DWORD PTR _this$[ebp], esi
; File C:\Program Files (x86)\Microsoft Visual Studio\2019\Community\VC\Tools\MSVC\14.29.30133\atlmfc\include\afxwin2.inl

; 622  : 	{ }

  00154	e8 00 00 00 00	 call	 ??0CWnd@@QAE@XZ		; CWnd::CWnd
  00159	c7 06 00 00 00
	00		 mov	 DWORD PTR [esi], OFFSET ??_7CButton@@6B@
; File D:\git\src\IBK\IBK_DRFN\ProjSrc\SrcChartEx\ChartAddIn\ChartAnalysisToolAddIn\AnalysisTool\DlgAnalysisToolSet.cpp

; 63   : {

  0015f	8d b7 d0 06 00
	00		 lea	 esi, DWORD PTR [edi+1744]
  00165	c6 45 fc 0d	 mov	 BYTE PTR __$EHRec$[ebp+8], 13 ; 0000000dH
; File C:\Program Files (x86)\Microsoft Visual Studio\2019\Community\VC\Tools\MSVC\14.29.30133\atlmfc\include\afxwin2.inl

; 622  : 	{ }

  00169	8b ce		 mov	 ecx, esi
; File D:\git\src\IBK\IBK_DRFN\ProjSrc\SrcChartEx\ChartAddIn\ChartAnalysisToolAddIn\AnalysisTool\DlgAnalysisToolSet.cpp

; 63   : {

  0016b	89 75 ec	 mov	 DWORD PTR _this$[ebp], esi
; File C:\Program Files (x86)\Microsoft Visual Studio\2019\Community\VC\Tools\MSVC\14.29.30133\atlmfc\include\afxwin2.inl

; 622  : 	{ }

  0016e	e8 00 00 00 00	 call	 ??0CWnd@@QAE@XZ		; CWnd::CWnd
  00173	c7 06 00 00 00
	00		 mov	 DWORD PTR [esi], OFFSET ??_7CButton@@6B@
; File D:\git\src\IBK\IBK_DRFN\ProjSrc\SrcChartEx\ChartAddIn\ChartAnalysisToolAddIn\AnalysisTool\DlgAnalysisToolSet.cpp

; 63   : {

  00179	8d b7 50 07 00
	00		 lea	 esi, DWORD PTR [edi+1872]
  0017f	c6 45 fc 0e	 mov	 BYTE PTR __$EHRec$[ebp+8], 14 ; 0000000eH
; File C:\Program Files (x86)\Microsoft Visual Studio\2019\Community\VC\Tools\MSVC\14.29.30133\atlmfc\include\afxwin2.inl

; 622  : 	{ }

  00183	8b ce		 mov	 ecx, esi
; File D:\git\src\IBK\IBK_DRFN\ProjSrc\SrcChartEx\ChartAddIn\ChartAnalysisToolAddIn\AnalysisTool\DlgAnalysisToolSet.cpp

; 63   : {

  00185	89 75 ec	 mov	 DWORD PTR _this$[ebp], esi
; File C:\Program Files (x86)\Microsoft Visual Studio\2019\Community\VC\Tools\MSVC\14.29.30133\atlmfc\include\afxwin2.inl

; 622  : 	{ }

  00188	e8 00 00 00 00	 call	 ??0CWnd@@QAE@XZ		; CWnd::CWnd
  0018d	c7 06 00 00 00
	00		 mov	 DWORD PTR [esi], OFFSET ??_7CButton@@6B@
; File D:\git\src\IBK\IBK_DRFN\ProjSrc\SrcChartEx\ChartAddIn\ChartAnalysisToolAddIn\AnalysisTool\DlgAnalysisToolSet.cpp

; 63   : {

  00193	8d b7 d0 07 00
	00		 lea	 esi, DWORD PTR [edi+2000]
  00199	c6 45 fc 0f	 mov	 BYTE PTR __$EHRec$[ebp+8], 15 ; 0000000fH
; File C:\Program Files (x86)\Microsoft Visual Studio\2019\Community\VC\Tools\MSVC\14.29.30133\atlmfc\include\afxwin2.inl

; 851  : 	{ }

  0019d	8b ce		 mov	 ecx, esi
; File D:\git\src\IBK\IBK_DRFN\ProjSrc\SrcChartEx\ChartAddIn\ChartAnalysisToolAddIn\AnalysisTool\DlgAnalysisToolSet.cpp

; 63   : {

  0019f	89 75 ec	 mov	 DWORD PTR _this$[ebp], esi
; File C:\Program Files (x86)\Microsoft Visual Studio\2019\Community\VC\Tools\MSVC\14.29.30133\atlmfc\include\afxwin2.inl

; 851  : 	{ }

  001a2	e8 00 00 00 00	 call	 ??0CWnd@@QAE@XZ		; CWnd::CWnd
  001a7	c7 06 00 00 00
	00		 mov	 DWORD PTR [esi], OFFSET ??_7CEdit@@6B@
; File D:\git\src\IBK\IBK_DRFN\ProjSrc\SrcChartEx\ChartAddIn\ChartAnalysisToolAddIn\AnalysisTool\DlgAnalysisToolSet.cpp

; 63   : {

  001ad	8d b7 50 08 00
	00		 lea	 esi, DWORD PTR [edi+2128]
  001b3	c6 45 fc 10	 mov	 BYTE PTR __$EHRec$[ebp+8], 16 ; 00000010H
; File C:\Program Files (x86)\Microsoft Visual Studio\2019\Community\VC\Tools\MSVC\14.29.30133\atlmfc\include\afxwin2.inl

; 851  : 	{ }

  001b7	8b ce		 mov	 ecx, esi
; File D:\git\src\IBK\IBK_DRFN\ProjSrc\SrcChartEx\ChartAddIn\ChartAnalysisToolAddIn\AnalysisTool\DlgAnalysisToolSet.cpp

; 63   : {

  001b9	89 75 ec	 mov	 DWORD PTR _this$[ebp], esi
; File C:\Program Files (x86)\Microsoft Visual Studio\2019\Community\VC\Tools\MSVC\14.29.30133\atlmfc\include\afxwin2.inl

; 851  : 	{ }

  001bc	e8 00 00 00 00	 call	 ??0CWnd@@QAE@XZ		; CWnd::CWnd
  001c1	c7 06 00 00 00
	00		 mov	 DWORD PTR [esi], OFFSET ??_7CEdit@@6B@
; File D:\git\src\IBK\IBK_DRFN\ProjSrc\SrcChartEx\ChartAddIn\ChartAnalysisToolAddIn\AnalysisTool\DlgAnalysisToolSet.cpp

; 63   : {

  001c7	8d b7 d0 08 00
	00		 lea	 esi, DWORD PTR [edi+2256]
  001cd	c6 45 fc 11	 mov	 BYTE PTR __$EHRec$[ebp+8], 17 ; 00000011H
; File C:\Program Files (x86)\Microsoft Visual Studio\2019\Community\VC\Tools\MSVC\14.29.30133\atlmfc\include\afxwin2.inl

; 851  : 	{ }

  001d1	8b ce		 mov	 ecx, esi
; File D:\git\src\IBK\IBK_DRFN\ProjSrc\SrcChartEx\ChartAddIn\ChartAnalysisToolAddIn\AnalysisTool\DlgAnalysisToolSet.cpp

; 63   : {

  001d3	89 75 ec	 mov	 DWORD PTR _this$[ebp], esi
; File C:\Program Files (x86)\Microsoft Visual Studio\2019\Community\VC\Tools\MSVC\14.29.30133\atlmfc\include\afxwin2.inl

; 851  : 	{ }

  001d6	e8 00 00 00 00	 call	 ??0CWnd@@QAE@XZ		; CWnd::CWnd
  001db	c7 06 00 00 00
	00		 mov	 DWORD PTR [esi], OFFSET ??_7CEdit@@6B@
; File D:\git\src\IBK\IBK_DRFN\ProjSrc\SrcChartEx\ChartAddIn\ChartAnalysisToolAddIn\AnalysisTool\DlgAnalysisToolSet.cpp

; 63   : {

  001e1	8d b7 50 09 00
	00		 lea	 esi, DWORD PTR [edi+2384]
  001e7	c6 45 fc 12	 mov	 BYTE PTR __$EHRec$[ebp+8], 18 ; 00000012H
; File C:\Program Files (x86)\Microsoft Visual Studio\2019\Community\VC\Tools\MSVC\14.29.30133\atlmfc\include\afxwin2.inl

; 851  : 	{ }

  001eb	8b ce		 mov	 ecx, esi
; File D:\git\src\IBK\IBK_DRFN\ProjSrc\SrcChartEx\ChartAddIn\ChartAnalysisToolAddIn\AnalysisTool\DlgAnalysisToolSet.cpp

; 63   : {

  001ed	89 75 ec	 mov	 DWORD PTR _this$[ebp], esi
; File C:\Program Files (x86)\Microsoft Visual Studio\2019\Community\VC\Tools\MSVC\14.29.30133\atlmfc\include\afxwin2.inl

; 851  : 	{ }

  001f0	e8 00 00 00 00	 call	 ??0CWnd@@QAE@XZ		; CWnd::CWnd
  001f5	c7 06 00 00 00
	00		 mov	 DWORD PTR [esi], OFFSET ??_7CEdit@@6B@
; File D:\git\src\IBK\IBK_DRFN\ProjSrc\SrcChartEx\ChartAddIn\ChartAnalysisToolAddIn\AnalysisTool\DlgAnalysisToolSet.cpp

; 63   : {

  001fb	8d b7 d0 09 00
	00		 lea	 esi, DWORD PTR [edi+2512]
  00201	c6 45 fc 13	 mov	 BYTE PTR __$EHRec$[ebp+8], 19 ; 00000013H
; File C:\Program Files (x86)\Microsoft Visual Studio\2019\Community\VC\Tools\MSVC\14.29.30133\atlmfc\include\afxwin2.inl

; 851  : 	{ }

  00205	8b ce		 mov	 ecx, esi
; File D:\git\src\IBK\IBK_DRFN\ProjSrc\SrcChartEx\ChartAddIn\ChartAnalysisToolAddIn\AnalysisTool\DlgAnalysisToolSet.cpp

; 63   : {

  00207	89 75 ec	 mov	 DWORD PTR _this$[ebp], esi
; File C:\Program Files (x86)\Microsoft Visual Studio\2019\Community\VC\Tools\MSVC\14.29.30133\atlmfc\include\afxwin2.inl

; 851  : 	{ }

  0020a	e8 00 00 00 00	 call	 ??0CWnd@@QAE@XZ		; CWnd::CWnd
  0020f	c7 06 00 00 00
	00		 mov	 DWORD PTR [esi], OFFSET ??_7CEdit@@6B@
; File D:\git\src\IBK\IBK_DRFN\ProjSrc\SrcChartEx\ChartAddIn\ChartAnalysisToolAddIn\AnalysisTool\DlgAnalysisToolSet.cpp

; 63   : {

  00215	8d b7 50 0a 00
	00		 lea	 esi, DWORD PTR [edi+2640]
  0021b	c6 45 fc 14	 mov	 BYTE PTR __$EHRec$[ebp+8], 20 ; 00000014H
; File C:\Program Files (x86)\Microsoft Visual Studio\2019\Community\VC\Tools\MSVC\14.29.30133\atlmfc\include\afxwin2.inl

; 851  : 	{ }

  0021f	8b ce		 mov	 ecx, esi
; File D:\git\src\IBK\IBK_DRFN\ProjSrc\SrcChartEx\ChartAddIn\ChartAnalysisToolAddIn\AnalysisTool\DlgAnalysisToolSet.cpp

; 63   : {

  00221	89 75 ec	 mov	 DWORD PTR _this$[ebp], esi
; File C:\Program Files (x86)\Microsoft Visual Studio\2019\Community\VC\Tools\MSVC\14.29.30133\atlmfc\include\afxwin2.inl

; 851  : 	{ }

  00224	e8 00 00 00 00	 call	 ??0CWnd@@QAE@XZ		; CWnd::CWnd
  00229	c7 06 00 00 00
	00		 mov	 DWORD PTR [esi], OFFSET ??_7CEdit@@6B@
; File D:\git\src\IBK\IBK_DRFN\ProjSrc\SrcChartEx\ChartAddIn\ChartAnalysisToolAddIn\AnalysisTool\DlgAnalysisToolSet.cpp

; 63   : {

  0022f	8d b7 d0 0a 00
	00		 lea	 esi, DWORD PTR [edi+2768]
  00235	c6 45 fc 15	 mov	 BYTE PTR __$EHRec$[ebp+8], 21 ; 00000015H
; File C:\Program Files (x86)\Microsoft Visual Studio\2019\Community\VC\Tools\MSVC\14.29.30133\atlmfc\include\afxdtctl.inl

; 25   : 	{ }

  00239	8b ce		 mov	 ecx, esi
; File D:\git\src\IBK\IBK_DRFN\ProjSrc\SrcChartEx\ChartAddIn\ChartAnalysisToolAddIn\AnalysisTool\DlgAnalysisToolSet.cpp

; 63   : {

  0023b	89 75 ec	 mov	 DWORD PTR _this$[ebp], esi
; File C:\Program Files (x86)\Microsoft Visual Studio\2019\Community\VC\Tools\MSVC\14.29.30133\atlmfc\include\afxdtctl.inl

; 25   : 	{ }

  0023e	e8 00 00 00 00	 call	 ??0CWnd@@QAE@XZ		; CWnd::CWnd
  00243	c7 06 00 00 00
	00		 mov	 DWORD PTR [esi], OFFSET ??_7CDateTimeCtrl@@6B@
; File D:\git\src\IBK\IBK_DRFN\ProjSrc\SrcChartEx\ChartAddIn\ChartAnalysisToolAddIn\AnalysisTool\DlgAnalysisToolSet.cpp

; 63   : {

  00249	8d b7 50 0b 00
	00		 lea	 esi, DWORD PTR [edi+2896]
  0024f	c6 45 fc 16	 mov	 BYTE PTR __$EHRec$[ebp+8], 22 ; 00000016H
; File C:\Program Files (x86)\Microsoft Visual Studio\2019\Community\VC\Tools\MSVC\14.29.30133\atlmfc\include\afxdtctl.inl

; 25   : 	{ }

  00253	8b ce		 mov	 ecx, esi
; File D:\git\src\IBK\IBK_DRFN\ProjSrc\SrcChartEx\ChartAddIn\ChartAnalysisToolAddIn\AnalysisTool\DlgAnalysisToolSet.cpp

; 63   : {

  00255	89 75 ec	 mov	 DWORD PTR _this$[ebp], esi
; File C:\Program Files (x86)\Microsoft Visual Studio\2019\Community\VC\Tools\MSVC\14.29.30133\atlmfc\include\afxdtctl.inl

; 25   : 	{ }

  00258	e8 00 00 00 00	 call	 ??0CWnd@@QAE@XZ		; CWnd::CWnd
  0025d	c7 06 00 00 00
	00		 mov	 DWORD PTR [esi], OFFSET ??_7CDateTimeCtrl@@6B@
; File D:\git\src\IBK\IBK_DRFN\ProjSrc\SrcChartEx\ChartAddIn\ChartAnalysisToolAddIn\AnalysisTool\DlgAnalysisToolSet.cpp

; 63   : {

  00263	8d b7 d0 0b 00
	00		 lea	 esi, DWORD PTR [edi+3024]
  00269	c6 45 fc 17	 mov	 BYTE PTR __$EHRec$[ebp+8], 23 ; 00000017H
; File C:\Program Files (x86)\Microsoft Visual Studio\2019\Community\VC\Tools\MSVC\14.29.30133\atlmfc\include\afxdtctl.inl

; 25   : 	{ }

  0026d	8b ce		 mov	 ecx, esi
; File D:\git\src\IBK\IBK_DRFN\ProjSrc\SrcChartEx\ChartAddIn\ChartAnalysisToolAddIn\AnalysisTool\DlgAnalysisToolSet.cpp

; 63   : {

  0026f	89 75 ec	 mov	 DWORD PTR _this$[ebp], esi
; File C:\Program Files (x86)\Microsoft Visual Studio\2019\Community\VC\Tools\MSVC\14.29.30133\atlmfc\include\afxdtctl.inl

; 25   : 	{ }

  00272	e8 00 00 00 00	 call	 ??0CWnd@@QAE@XZ		; CWnd::CWnd
  00277	c7 06 00 00 00
	00		 mov	 DWORD PTR [esi], OFFSET ??_7CDateTimeCtrl@@6B@
; File D:\git\src\IBK\IBK_DRFN\ProjSrc\SrcChartEx\ChartAddIn\ChartAnalysisToolAddIn\Include_Chart\BlockBaseData.h

; 19   : 	CBlockIndex() { m_nRow = m_nColumn = -1; };

  0027d	c7 87 60 0c 00
	00 ff ff ff ff	 mov	 DWORD PTR [edi+3168], -1
  00287	c7 87 5c 0c 00
	00 ff ff ff ff	 mov	 DWORD PTR [edi+3164], -1
; File D:\git\src\IBK\IBK_DRFN\ProjSrc\SrcChartEx\ChartAddIn\ChartAnalysisToolAddIn\AnalysisTool\DlgAnalysisToolSet.cpp

; 63   : {

  00291	8d 8f 64 0c 00
	00		 lea	 ecx, DWORD PTR [edi+3172]
  00297	ff 15 00 00 00
	00		 call	 DWORD PTR __imp_??0?$CStringT@DV?$StrTraitMFC_DLL@DV?$ChTraitsCRT@D@ATL@@@@@ATL@@QAE@XZ

; 52   : 	m_strUserPath(strUserPath),

  0029d	ff 75 0c	 push	 DWORD PTR _strUserPath$[ebp]
  002a0	8d 8f 68 0c 00
	00		 lea	 ecx, DWORD PTR [edi+3176]
  002a6	c6 45 fc 19	 mov	 BYTE PTR __$EHRec$[ebp+8], 25 ; 00000019H
  002aa	ff 15 00 00 00
	00		 call	 DWORD PTR __imp_??0?$CStringT@DV?$StrTraitMFC_DLL@DV?$ChTraitsCRT@D@ATL@@@@@ATL@@QAE@ABV01@@Z

; 53   : 	m_nDataPeriod(nDataPeriod),

  002b0	8b 45 10	 mov	 eax, DWORD PTR _nDataPeriod$[ebp]
  002b3	8d 8f d8 0c 00
	00		 lea	 ecx, DWORD PTR [edi+3288]
  002b9	8b 00		 mov	 eax, DWORD PTR [eax]
  002bb	89 87 6c 0c 00
	00		 mov	 DWORD PTR [edi+3180], eax
  002c1	ff 15 00 00 00
	00		 call	 DWORD PTR __imp_??0?$CStringT@DV?$StrTraitMFC_DLL@DV?$ChTraitsCRT@D@ATL@@@@@ATL@@QAE@XZ

; 63   : {

  002c7	8b 75 28	 mov	 esi, DWORD PTR _pElementPointList$[ebp]
  002ca	8d 8f e0 0c 00
	00		 lea	 ecx, DWORD PTR [edi+3296]
  002d0	56		 push	 esi
  002d1	c6 45 fc 1b	 mov	 BYTE PTR __$EHRec$[ebp+8], 27 ; 0000001bH
  002d5	e8 00 00 00 00	 call	 ??0CElementPointList@@QAE@ABV0@@Z

; 54   : 	m_pPenEnvironment(pPenEnvironment),

  002da	8b 45 24	 mov	 eax, DWORD PTR _pPenEnvironment$[ebp]

; 63   : {

  002dd	8d 8f 3c 0d 00
	00		 lea	 ecx, DWORD PTR [edi+3388]
  002e3	89 b7 00 0d 00
	00		 mov	 DWORD PTR [edi+3328], esi
  002e9	89 9f 14 0d 00
	00		 mov	 DWORD PTR [edi+3348], ebx
  002ef	89 87 1c 0d 00
	00		 mov	 DWORD PTR [edi+3356], eax
  002f5	f3 0f 7e 00	 movq	 xmm0, QWORD PTR [eax]
  002f9	66 0f d6 87 20
	0d 00 00	 movq	 QWORD PTR [edi+3360], xmm0
  00301	8b 40 08	 mov	 eax, DWORD PTR [eax+8]
  00304	c6 45 fc 1c	 mov	 BYTE PTR __$EHRec$[ebp+8], 28 ; 0000001cH
  00308	89 87 28 0d 00
	00		 mov	 DWORD PTR [edi+3368], eax
  0030e	e8 00 00 00 00	 call	 ??0CTextShowPosition@@QAE@XZ ; CTextShowPosition::CTextShowPosition
  00313	8d 8f 48 0d 00
	00		 lea	 ecx, DWORD PTR [edi+3400]
  00319	e8 00 00 00 00	 call	 ??0CTextHorzPosition@@QAE@XZ ; CTextHorzPosition::CTextHorzPosition
  0031e	8d 8f 54 0d 00
	00		 lea	 ecx, DWORD PTR [edi+3412]
  00324	e8 00 00 00 00	 call	 ??0CTextVertPosition@@QAE@XZ ; CTextVertPosition::CTextVertPosition
  00329	8d 8f 60 0d 00
	00		 lea	 ecx, DWORD PTR [edi+3424]
  0032f	e8 00 00 00 00	 call	 ??0CTextHorzVertPosition@@QAE@XZ ; CTextHorzVertPosition::CTextHorzVertPosition
  00334	8d 8f 70 0d 00
	00		 lea	 ecx, DWORD PTR [edi+3440]
  0033a	e8 00 00 00 00	 call	 ??0CLineExtEnvironment@@QAE@XZ ; CLineExtEnvironment::CLineExtEnvironment

; 55   : 	m_basePenEnvironment(*pPenEnvironment),
; 56   : 	m_pElementPointList(pElementPointList),
; 57   : 	m_baseElementPointList(*pElementPointList),
; 58   : 	m_pEquiDivEnvironment(pEquiDivType),

  0033f	8b 45 18	 mov	 eax, DWORD PTR _pEquiDivType$[ebp]
  00342	89 87 78 0d 00
	00		 mov	 DWORD PTR [edi+3448], eax

; 59   : 	m_baseEquiDivEnvironment(*pEquiDivType),

  00348	8b 00		 mov	 eax, DWORD PTR [eax]
  0034a	89 87 7c 0d 00
	00		 mov	 DWORD PTR [edi+3452], eax

; 60   : 	m_pPriceRangeDivEnvironment( pPriceRangeDivType),	// (2008/8/15 - Seung-Won, Bae) Add option for using price range.

  00350	8b 45 1c	 mov	 eax, DWORD PTR _pPriceRangeDivType$[ebp]
  00353	89 87 80 0d 00
	00		 mov	 DWORD PTR [edi+3456], eax

; 61   : 	m_basePriceRangeDivEnvironment(*pPriceRangeDivType),

  00359	8b 00		 mov	 eax, DWORD PTR [eax]
  0035b	89 87 84 0d 00
	00		 mov	 DWORD PTR [edi+3460], eax

; 62   : 	m_pInterface(pInterface)

  00361	8b 45 40	 mov	 eax, DWORD PTR _pInterface$[ebp]
  00364	89 87 8c 0d 00
	00		 mov	 DWORD PTR [edi+3468], eax

; 67   : 	//}}AFX_DATA_INIT
; 68   : 
; 69   : 	// 2011.02.08 by SYS >>  YYYY()  : / 14Byte  (YYYYMMDDhhmmss)
; 70   : 	m_pIChartOCX	= p_pIChartOCX;

  0036a	8b 45 34	 mov	 eax, DWORD PTR _p_pIChartOCX$[ebp]
  0036d	89 87 58 0c 00
	00		 mov	 DWORD PTR [edi+3160], eax
; File D:\git\src\IBK\IBK_DRFN\ProjSrc\SrcChartEx\ChartAddIn\ChartAnalysisToolAddIn\Include_Chart\BlockBaseData.h

; 32   : 	bool IsAllValueBiggerThanZero() const { return (m_nRow >= 0 && m_nColumn >= 0); };

  00373	8b 45 38	 mov	 eax, DWORD PTR _blockIndex$[ebp]
; File D:\git\src\IBK\IBK_DRFN\ProjSrc\SrcChartEx\ChartAddIn\ChartAnalysisToolAddIn\AnalysisTool\DlgAnalysisToolSet.cpp

; 65   : 	m_nWidth = 0;

  00376	c7 87 50 0c 00
	00 00 00 00 00	 mov	 DWORD PTR [edi+3152], 0

; 66   : 	m_nStyle = 0;

  00380	c7 87 54 0c 00
	00 00 00 00 00	 mov	 DWORD PTR [edi+3156], 0
; File D:\git\src\IBK\IBK_DRFN\ProjSrc\SrcChartEx\ChartAddIn\ChartAnalysisToolAddIn\Include_Chart\BlockBaseData.h

; 32   : 	bool IsAllValueBiggerThanZero() const { return (m_nRow >= 0 && m_nColumn >= 0); };

  0038a	8b 10		 mov	 edx, DWORD PTR [eax]
  0038c	85 d2		 test	 edx, edx
  0038e	78 15		 js	 SHORT $LN2@CDlgAnalys
  00390	83 78 04 00	 cmp	 DWORD PTR [eax+4], 0
  00394	7c 0f		 jl	 SHORT $LN2@CDlgAnalys
; File D:\git\src\IBK\IBK_DRFN\ProjSrc\SrcChartEx\ChartAddIn\ChartAnalysisToolAddIn\AnalysisTool\DlgAnalysisToolSet.cpp

; 75   :  		m_blockIndex.SetColumn(blockIndex.GetColumn());

  00396	89 97 5c 0c 00
	00		 mov	 DWORD PTR [edi+3164], edx
  0039c	8b 40 04	 mov	 eax, DWORD PTR [eax+4]
  0039f	89 87 60 0c 00
	00		 mov	 DWORD PTR [edi+3168], eax
$LN2@CDlgAnalys:

; 76   :  	}
; 77   : 
; 78   : 	m_strFormatX	= strFormatX;

  003a5	8d 45 3c	 lea	 eax, DWORD PTR _strFormatX$[ebp]
  003a8	50		 push	 eax
  003a9	8d 8f 64 0c 00
	00		 lea	 ecx, DWORD PTR [edi+3172]
  003af	ff 15 00 00 00
	00		 call	 DWORD PTR __imp_??4?$CStringT@DV?$StrTraitMFC_DLL@DV?$ChTraitsCRT@D@ATL@@@@@ATL@@QAEAAV01@ABV01@@Z

; 79   : 	// 2011.02.08 by SYS <<
; 80   : 
; 81   : 
; 82   : 	m_nTextPosType			= G_TEXT_POS_NONE;
; 83   : 	m_nLineExtType			= G_LINE_EXT_NONE;
; 84   : 	m_nEquiDivLine			= G_EQUI_DIV_NONE;
; 85   : 	m_nPriceRangeDivLine	= G_PRICE_RANGE_DIV_NONE;	// (2008/8/15 - Seung-Won, Bae) Add option for using price range.
; 86   : 	m_nElementType = nElementType;

  003b5	8b 45 14	 mov	 eax, DWORD PTR _nElementType$[ebp]
  003b8	c7 87 04 0d 00
	00 ff ff ff ff	 mov	 DWORD PTR [edi+3332], -1
  003c2	c7 87 08 0d 00
	00 ff ff ff ff	 mov	 DWORD PTR [edi+3336], -1
  003cc	c7 87 0c 0d 00
	00 ff ff ff ff	 mov	 DWORD PTR [edi+3340], -1
  003d6	c7 87 10 0d 00
	00 ff ff ff ff	 mov	 DWORD PTR [edi+3344], -1
  003e0	89 87 18 0d 00
	00		 mov	 DWORD PTR [edi+3352], eax

; 905  : 	if(m_nElementType == CToolEnumData::Cross_Line)

  003e6	83 f8 01	 cmp	 eax, 1
  003e9	75 24		 jne	 SHORT $LN105@CDlgAnalys

; 906  : 	{
; 907  : 		m_pTextPosition = NULL;
; 908  : 		m_pTextHPosition = NULL;
; 909  : 		m_pTextVPosition = NULL;
; 910  : 		
; 911  : 		m_pTextHVPosition = (CTextHorzVertPosition *)pTextPosition;

  003eb	8b 45 20	 mov	 eax, DWORD PTR _pTextPosition$[ebp]

; 912  : 		m_baseTextHVPosition.Set(pTextPosition);

  003ee	8d 8f 60 0d 00
	00		 lea	 ecx, DWORD PTR [edi+3424]
  003f4	8b 97 60 0d 00
	00		 mov	 edx, DWORD PTR [edi+3424]
  003fa	c7 87 2c 0d 00
	00 00 00 00 00	 mov	 DWORD PTR [edi+3372], 0
  00404	89 87 38 0d 00
	00		 mov	 DWORD PTR [edi+3384], eax

; 913  : 	}

  0040a	e9 19 01 00 00	 jmp	 $LN123@CDlgAnalys
$LN105@CDlgAnalys:

; 914  : 	else if(m_nElementType == CToolEnumData::Vert_Line)

  0040f	83 f8 03	 cmp	 eax, 3
  00412	75 2e		 jne	 SHORT $LN107@CDlgAnalys

; 915  : 	{
; 916  : 		m_pTextPosition = NULL;
; 917  : 		m_pTextHPosition = NULL;
; 918  : 		m_pTextHVPosition = NULL;
; 919  : 		
; 920  : 		m_pTextVPosition = (CTextVertPosition *)pTextPosition;

  00414	8b 45 20	 mov	 eax, DWORD PTR _pTextPosition$[ebp]

; 921  : 		m_baseTextVPosition.Set(pTextPosition);

  00417	8d 8f 54 0d 00
	00		 lea	 ecx, DWORD PTR [edi+3412]
  0041d	8b 97 54 0d 00
	00		 mov	 edx, DWORD PTR [edi+3412]
  00423	c7 87 2c 0d 00
	00 00 00 00 00	 mov	 DWORD PTR [edi+3372], 0
  0042d	c7 87 38 0d 00
	00 00 00 00 00	 mov	 DWORD PTR [edi+3384], 0
  00437	89 87 34 0d 00
	00		 mov	 DWORD PTR [edi+3380], eax

; 922  : 	}

  0043d	e9 f0 00 00 00	 jmp	 $LN124@CDlgAnalys
$LN107@CDlgAnalys:

; 923  : 	else if(m_nElementType == CToolEnumData::Fibo_Retrace	||
; 924  : 			m_nElementType == CToolEnumData::Fibo_Semicircle	||
; 925  : 			m_nElementType == CToolEnumData::Fibo_Circle	||
; 926  : 			m_nElementType == CToolEnumData::Fibo_Fan_Line	||
; 927  : 			m_nElementType == CToolEnumData::Fibo_Time	||	// 2008.08.20   Text  
; 928  : 			m_nElementType == CToolEnumData::Angle_Line		||
; 929  : 			m_nElementType == CToolEnumData::Candle_Line	||
; 930  : 			m_nElementType == CToolEnumData::Gann_Fan1	||
; 931  : 			m_nElementType == CToolEnumData::Gann_Fan2	||
; 932  : 			m_nElementType == CToolEnumData::Gann_Fan3	||

  00442	83 f8 0b	 cmp	 eax, 11			; 0000000bH
  00445	0f 84 c2 00 00
	00		 je	 $LN111@CDlgAnalys
  0044b	83 f8 08	 cmp	 eax, 8
  0044e	0f 84 b9 00 00
	00		 je	 $LN111@CDlgAnalys
  00454	83 f8 09	 cmp	 eax, 9
  00457	0f 84 b0 00 00
	00		 je	 $LN111@CDlgAnalys
  0045d	83 f8 0a	 cmp	 eax, 10			; 0000000aH
  00460	0f 84 a7 00 00
	00		 je	 $LN111@CDlgAnalys
  00466	83 f8 0c	 cmp	 eax, 12			; 0000000cH
  00469	0f 84 9e 00 00
	00		 je	 $LN111@CDlgAnalys
  0046f	83 f8 1d	 cmp	 eax, 29			; 0000001dH
  00472	0f 84 95 00 00
	00		 je	 $LN111@CDlgAnalys
  00478	83 f8 1e	 cmp	 eax, 30			; 0000001eH
  0047b	0f 84 8c 00 00
	00		 je	 $LN111@CDlgAnalys
  00481	83 f8 0f	 cmp	 eax, 15			; 0000000fH
  00484	0f 84 83 00 00
	00		 je	 $LN111@CDlgAnalys
  0048a	83 f8 10	 cmp	 eax, 16			; 00000010H
  0048d	74 7e		 je	 SHORT $LN111@CDlgAnalys
  0048f	83 f8 11	 cmp	 eax, 17			; 00000011H
  00492	74 79		 je	 SHORT $LN111@CDlgAnalys
  00494	83 f8 12	 cmp	 eax, 18			; 00000012H
  00497	74 74		 je	 SHORT $LN111@CDlgAnalys

; 941  : 	}
; 942  : 	else if(m_nElementType == CToolEnumData::Line		||
; 943  : 			m_nElementType == CToolEnumData::Horz_Line	||
; 944  : 			m_nElementType == CToolEnumData::Trisection	||
; 945  : 			m_nElementType == CToolEnumData::Quadrisect	||

  00499	83 f8 05	 cmp	 eax, 5
  0049c	74 3e		 je	 SHORT $LN114@CDlgAnalys
  0049e	83 f8 04	 cmp	 eax, 4
  004a1	74 39		 je	 SHORT $LN114@CDlgAnalys
  004a3	83 f8 06	 cmp	 eax, 6
  004a6	74 34		 je	 SHORT $LN114@CDlgAnalys
  004a8	83 f8 07	 cmp	 eax, 7
  004ab	74 2f		 je	 SHORT $LN114@CDlgAnalys
  004ad	83 f8 21	 cmp	 eax, 33			; 00000021H
  004b0	74 2a		 je	 SHORT $LN114@CDlgAnalys

; 955  : 	else		//NoText
; 956  : 	{
; 957  : 		m_pTextPosition = NULL;

  004b2	c7 87 2c 0d 00
	00 00 00 00 00	 mov	 DWORD PTR [edi+3372], 0

; 958  : 		m_pTextVPosition = NULL;

  004bc	c7 87 34 0d 00
	00 00 00 00 00	 mov	 DWORD PTR [edi+3380], 0

; 959  : 		m_pTextHPosition = NULL;

  004c6	c7 87 30 0d 00
	00 00 00 00 00	 mov	 DWORD PTR [edi+3376], 0

; 960  : 		m_pTextHVPosition = NULL;

  004d0	c7 87 38 0d 00
	00 00 00 00 00	 mov	 DWORD PTR [edi+3384], 0
  004da	eb 63		 jmp	 SHORT $LN113@CDlgAnalys
$LN114@CDlgAnalys:

; 946  : 			m_nElementType == CToolEnumData::Period_Summary)
; 947  : 	{
; 948  : 		m_pTextPosition = NULL;
; 949  : 		m_pTextVPosition = NULL;
; 950  : 		m_pTextHVPosition = NULL;
; 951  : 
; 952  : 		m_pTextHPosition = (CTextHorzPosition *)pTextPosition;

  004dc	8b 45 20	 mov	 eax, DWORD PTR _pTextPosition$[ebp]

; 953  : 		m_baseTextHPosition.Set(pTextPosition);

  004df	8d 8f 48 0d 00
	00		 lea	 ecx, DWORD PTR [edi+3400]
  004e5	8b 11		 mov	 edx, DWORD PTR [ecx]
  004e7	c7 87 2c 0d 00
	00 00 00 00 00	 mov	 DWORD PTR [edi+3372], 0
  004f1	c7 87 34 0d 00
	00 00 00 00 00	 mov	 DWORD PTR [edi+3380], 0
  004fb	c7 87 38 0d 00
	00 00 00 00 00	 mov	 DWORD PTR [edi+3384], 0
  00505	89 87 30 0d 00
	00		 mov	 DWORD PTR [edi+3376], eax

; 954  : 	}

  0050b	eb 2f		 jmp	 SHORT $LN125@CDlgAnalys
$LN111@CDlgAnalys:

; 933  : 			m_nElementType == CToolEnumData::Gann_Fan4)
; 934  : 	{
; 935  : 		m_pTextVPosition = NULL;
; 936  : 		m_pTextHPosition = NULL;
; 937  : 		m_pTextHVPosition = NULL;
; 938  : 		
; 939  : 		m_pTextPosition = (CTextShowPosition *)pTextPosition;

  0050d	8b 45 20	 mov	 eax, DWORD PTR _pTextPosition$[ebp]

; 940  : 		m_baseTextPosition.Set(pTextPosition);

  00510	8d 8f 3c 0d 00
	00		 lea	 ecx, DWORD PTR [edi+3388]
  00516	8b 11		 mov	 edx, DWORD PTR [ecx]
  00518	c7 87 38 0d 00
	00 00 00 00 00	 mov	 DWORD PTR [edi+3384], 0
  00522	89 87 2c 0d 00
	00		 mov	 DWORD PTR [edi+3372], eax
$LN123@CDlgAnalys:

; 87   : 
; 88   : 	SetInitTextPosition(pTextPosition);
; 89   : 	
; 90   : 	m_pLineExtEnvironment = pLineExtEnvironment;

  00528	c7 87 34 0d 00
	00 00 00 00 00	 mov	 DWORD PTR [edi+3380], 0
$LN124@CDlgAnalys:
  00532	c7 87 30 0d 00
	00 00 00 00 00	 mov	 DWORD PTR [edi+3376], 0
$LN125@CDlgAnalys:
  0053c	50		 push	 eax
  0053d	ff 12		 call	 DWORD PTR [edx]
$LN113@CDlgAnalys:
  0053f	8b 45 2c	 mov	 eax, DWORD PTR _pLineExtEnvironment$[ebp]

; 91   : 	m_baseLineExtEnvironment.Set(pLineExtEnvironment);

  00542	8d 4d e8	 lea	 ecx, DWORD PTR $T2[ebp]
  00545	50		 push	 eax
  00546	89 87 6c 0d 00
	00		 mov	 DWORD PTR [edi+3436], eax
  0054c	e8 00 00 00 00	 call	 ??0CLineExtEnvironment@@QAE@PAV0@@Z ; CLineExtEnvironment::CLineExtEnvironment
  00551	8d 45 e8	 lea	 eax, DWORD PTR $T2[ebp]
  00554	50		 push	 eax
  00555	8d 8f 70 0d 00
	00		 lea	 ecx, DWORD PTR [edi+3440]
  0055b	e8 00 00 00 00	 call	 ?Set@CLineExtEnvironment@@QAEXABV1@@Z ; CLineExtEnvironment::Set

; 93   : 	m_hOcxWnd = ( pParent ? pParent->GetSafeHwnd() : NULL);

  00560	8b 45 08	 mov	 eax, DWORD PTR _pParent$[ebp]
  00563	85 c0		 test	 eax, eax
  00565	74 05		 je	 SHORT $LN4@CDlgAnalys
; File C:\Program Files (x86)\Microsoft Visual Studio\2019\Community\VC\Tools\MSVC\14.29.30133\atlmfc\include\afxwin2.inl

; 25   : 	{ return this == NULL ? NULL : m_hWnd; }

  00567	8b 40 20	 mov	 eax, DWORD PTR [eax+32]
; File D:\git\src\IBK\IBK_DRFN\ProjSrc\SrcChartEx\ChartAddIn\ChartAnalysisToolAddIn\AnalysisTool\DlgAnalysisToolSet.cpp

; 93   : 	m_hOcxWnd = ( pParent ? pParent->GetSafeHwnd() : NULL);

  0056a	eb 02		 jmp	 SHORT $LN5@CDlgAnalys
$LN4@CDlgAnalys:
  0056c	33 c0		 xor	 eax, eax
$LN5@CDlgAnalys:
  0056e	89 87 90 0d 00
	00		 mov	 DWORD PTR [edi+3472], eax

; 94   : 
; 95   : // 2008.10.15 by LYH >> 8,32bit
; 96   : 	m_pDataEnvironment		= pDataEnvironment;
; 97   : // 2008.10.15 by LYH <<
; 98   : }

  00574	8d 4d 3c	 lea	 ecx, DWORD PTR _strFormatX$[ebp]
  00577	8b 45 30	 mov	 eax, DWORD PTR _pDataEnvironment$[ebp]
  0057a	89 87 88 0d 00
	00		 mov	 DWORD PTR [edi+3464], eax
  00580	ff 15 00 00 00
	00		 call	 DWORD PTR __imp_??1?$CStringT@DV?$StrTraitMFC_DLL@DV?$ChTraitsCRT@D@ATL@@@@@ATL@@QAE@XZ
  00586	8b c7		 mov	 eax, edi
  00588	8b 4d f4	 mov	 ecx, DWORD PTR __$EHRec$[ebp]
  0058b	64 89 0d 00 00
	00 00		 mov	 DWORD PTR fs:0, ecx
  00592	59		 pop	 ecx
  00593	5f		 pop	 edi
  00594	5e		 pop	 esi
  00595	5b		 pop	 ebx
  00596	8b e5		 mov	 esp, ebp
  00598	5d		 pop	 ebp
  00599	c2 3c 00	 ret	 60			; 0000003cH
_TEXT	ENDS
;	COMDAT text$x
text$x	SEGMENT
__unwindfunclet$??0CDlgAnalysisToolSet@@QAE@PAVCWnd@@ABV?$CStringT@DV?$StrTraitMFC_DLL@DV?$ChTraitsCRT@D@ATL@@@@@ATL@@ABW4HORZSCALEDRAWERTYPE@CScaleBaseData@@HPAH3PAVCTextPosition@@PAVCPenEnvironment@@PAVCElementPointList@@PAVCLineExtEnvironment@@PAVCDataTypeEnvironment@@PAUIChartOCX133101@@AAVCBlockIndex@@V23@J@Z$0:
  00000	8d 4d 3c	 lea	 ecx, DWORD PTR _strFormatX$[ebp]
  00003	ff 25 00 00 00
	00		 jmp	 DWORD PTR __imp_??1?$CStringT@DV?$StrTraitMFC_DLL@DV?$ChTraitsCRT@D@ATL@@@@@ATL@@QAE@XZ
__unwindfunclet$??0CDlgAnalysisToolSet@@QAE@PAVCWnd@@ABV?$CStringT@DV?$StrTraitMFC_DLL@DV?$ChTraitsCRT@D@ATL@@@@@ATL@@ABW4HORZSCALEDRAWERTYPE@CScaleBaseData@@HPAH3PAVCTextPosition@@PAVCPenEnvironment@@PAVCElementPointList@@PAVCLineExtEnvironment@@PAVCDataTypeEnvironment@@PAUIChartOCX133101@@AAVCBlockIndex@@V23@J@Z$1:
  00009	8b 4d f0	 mov	 ecx, DWORD PTR _this$[ebp]
  0000c	e9 00 00 00 00	 jmp	 ??1CDialog@@UAE@XZ	; CDialog::~CDialog
__unwindfunclet$??0CDlgAnalysisToolSet@@QAE@PAVCWnd@@ABV?$CStringT@DV?$StrTraitMFC_DLL@DV?$ChTraitsCRT@D@ATL@@@@@ATL@@ABW4HORZSCALEDRAWERTYPE@CScaleBaseData@@HPAH3PAVCTextPosition@@PAVCPenEnvironment@@PAVCElementPointList@@PAVCLineExtEnvironment@@PAVCDataTypeEnvironment@@PAUIChartOCX133101@@AAVCBlockIndex@@V23@J@Z$2:
  00011	8b 4d f0	 mov	 ecx, DWORD PTR _this$[ebp]
  00014	81 c1 a8 00 00
	00		 add	 ecx, 168		; 000000a8H
  0001a	e9 00 00 00 00	 jmp	 ??1CButton@@UAE@XZ	; CButton::~CButton
__unwindfunclet$??0CDlgAnalysisToolSet@@QAE@PAVCWnd@@ABV?$CStringT@DV?$StrTraitMFC_DLL@DV?$ChTraitsCRT@D@ATL@@@@@ATL@@ABW4HORZSCALEDRAWERTYPE@CScaleBaseData@@HPAH3PAVCTextPosition@@PAVCPenEnvironment@@PAVCElementPointList@@PAVCLineExtEnvironment@@PAVCDataTypeEnvironment@@PAUIChartOCX133101@@AAVCBlockIndex@@V23@J@Z$3:
  0001f	8b 4d f0	 mov	 ecx, DWORD PTR _this$[ebp]
  00022	81 c1 28 01 00
	00		 add	 ecx, 296		; 00000128H
  00028	e9 00 00 00 00	 jmp	 ??1CBitmapComboBox@@UAE@XZ
__unwindfunclet$??0CDlgAnalysisToolSet@@QAE@PAVCWnd@@ABV?$CStringT@DV?$StrTraitMFC_DLL@DV?$ChTraitsCRT@D@ATL@@@@@ATL@@ABW4HORZSCALEDRAWERTYPE@CScaleBaseData@@HPAH3PAVCTextPosition@@PAVCPenEnvironment@@PAVCElementPointList@@PAVCLineExtEnvironment@@PAVCDataTypeEnvironment@@PAUIChartOCX133101@@AAVCBlockIndex@@V23@J@Z$4:
  0002d	8b 4d f0	 mov	 ecx, DWORD PTR _this$[ebp]
  00030	81 c1 b8 01 00
	00		 add	 ecx, 440		; 000001b8H
  00036	e9 00 00 00 00	 jmp	 ??1CBitmapComboBox@@UAE@XZ
__unwindfunclet$??0CDlgAnalysisToolSet@@QAE@PAVCWnd@@ABV?$CStringT@DV?$StrTraitMFC_DLL@DV?$ChTraitsCRT@D@ATL@@@@@ATL@@ABW4HORZSCALEDRAWERTYPE@CScaleBaseData@@HPAH3PAVCTextPosition@@PAVCPenEnvironment@@PAVCElementPointList@@PAVCLineExtEnvironment@@PAVCDataTypeEnvironment@@PAUIChartOCX133101@@AAVCBlockIndex@@V23@J@Z$5:
  0003b	8b 4d f0	 mov	 ecx, DWORD PTR _this$[ebp]
  0003e	81 c1 48 02 00
	00		 add	 ecx, 584		; 00000248H
  00044	e9 00 00 00 00	 jmp	 ??1CColorButton@@UAE@XZ
__unwindfunclet$??0CDlgAnalysisToolSet@@QAE@PAVCWnd@@ABV?$CStringT@DV?$StrTraitMFC_DLL@DV?$ChTraitsCRT@D@ATL@@@@@ATL@@ABW4HORZSCALEDRAWERTYPE@CScaleBaseData@@HPAH3PAVCTextPosition@@PAVCPenEnvironment@@PAVCElementPointList@@PAVCLineExtEnvironment@@PAVCDataTypeEnvironment@@PAUIChartOCX133101@@AAVCBlockIndex@@V23@J@Z$6:
  00049	8b 4d f0	 mov	 ecx, DWORD PTR _this$[ebp]
  0004c	81 c1 d0 02 00
	00		 add	 ecx, 720		; 000002d0H
  00052	e9 00 00 00 00	 jmp	 ??1CButton@@UAE@XZ	; CButton::~CButton
__unwindfunclet$??0CDlgAnalysisToolSet@@QAE@PAVCWnd@@ABV?$CStringT@DV?$StrTraitMFC_DLL@DV?$ChTraitsCRT@D@ATL@@@@@ATL@@ABW4HORZSCALEDRAWERTYPE@CScaleBaseData@@HPAH3PAVCTextPosition@@PAVCPenEnvironment@@PAVCElementPointList@@PAVCLineExtEnvironment@@PAVCDataTypeEnvironment@@PAUIChartOCX133101@@AAVCBlockIndex@@V23@J@Z$7:
  00057	8b 4d f0	 mov	 ecx, DWORD PTR _this$[ebp]
  0005a	81 c1 50 03 00
	00		 add	 ecx, 848		; 00000350H
  00060	e9 00 00 00 00	 jmp	 ??1CButton@@UAE@XZ	; CButton::~CButton
__unwindfunclet$??0CDlgAnalysisToolSet@@QAE@PAVCWnd@@ABV?$CStringT@DV?$StrTraitMFC_DLL@DV?$ChTraitsCRT@D@ATL@@@@@ATL@@ABW4HORZSCALEDRAWERTYPE@CScaleBaseData@@HPAH3PAVCTextPosition@@PAVCPenEnvironment@@PAVCElementPointList@@PAVCLineExtEnvironment@@PAVCDataTypeEnvironment@@PAUIChartOCX133101@@AAVCBlockIndex@@V23@J@Z$8:
  00065	8b 4d f0	 mov	 ecx, DWORD PTR _this$[ebp]
  00068	81 c1 d0 03 00
	00		 add	 ecx, 976		; 000003d0H
  0006e	e9 00 00 00 00	 jmp	 ??1CButton@@UAE@XZ	; CButton::~CButton
__unwindfunclet$??0CDlgAnalysisToolSet@@QAE@PAVCWnd@@ABV?$CStringT@DV?$StrTraitMFC_DLL@DV?$ChTraitsCRT@D@ATL@@@@@ATL@@ABW4HORZSCALEDRAWERTYPE@CScaleBaseData@@HPAH3PAVCTextPosition@@PAVCPenEnvironment@@PAVCElementPointList@@PAVCLineExtEnvironment@@PAVCDataTypeEnvironment@@PAUIChartOCX133101@@AAVCBlockIndex@@V23@J@Z$9:
  00073	8b 4d f0	 mov	 ecx, DWORD PTR _this$[ebp]
  00076	81 c1 50 04 00
	00		 add	 ecx, 1104		; 00000450H
  0007c	e9 00 00 00 00	 jmp	 ??1CButton@@UAE@XZ	; CButton::~CButton
__unwindfunclet$??0CDlgAnalysisToolSet@@QAE@PAVCWnd@@ABV?$CStringT@DV?$StrTraitMFC_DLL@DV?$ChTraitsCRT@D@ATL@@@@@ATL@@ABW4HORZSCALEDRAWERTYPE@CScaleBaseData@@HPAH3PAVCTextPosition@@PAVCPenEnvironment@@PAVCElementPointList@@PAVCLineExtEnvironment@@PAVCDataTypeEnvironment@@PAUIChartOCX133101@@AAVCBlockIndex@@V23@J@Z$10:
  00081	8b 4d f0	 mov	 ecx, DWORD PTR _this$[ebp]
  00084	81 c1 d0 04 00
	00		 add	 ecx, 1232		; 000004d0H
  0008a	e9 00 00 00 00	 jmp	 ??1CButton@@UAE@XZ	; CButton::~CButton
__unwindfunclet$??0CDlgAnalysisToolSet@@QAE@PAVCWnd@@ABV?$CStringT@DV?$StrTraitMFC_DLL@DV?$ChTraitsCRT@D@ATL@@@@@ATL@@ABW4HORZSCALEDRAWERTYPE@CScaleBaseData@@HPAH3PAVCTextPosition@@PAVCPenEnvironment@@PAVCElementPointList@@PAVCLineExtEnvironment@@PAVCDataTypeEnvironment@@PAUIChartOCX133101@@AAVCBlockIndex@@V23@J@Z$11:
  0008f	8b 4d f0	 mov	 ecx, DWORD PTR _this$[ebp]
  00092	81 c1 50 05 00
	00		 add	 ecx, 1360		; 00000550H
  00098	e9 00 00 00 00	 jmp	 ??1CButton@@UAE@XZ	; CButton::~CButton
__unwindfunclet$??0CDlgAnalysisToolSet@@QAE@PAVCWnd@@ABV?$CStringT@DV?$StrTraitMFC_DLL@DV?$ChTraitsCRT@D@ATL@@@@@ATL@@ABW4HORZSCALEDRAWERTYPE@CScaleBaseData@@HPAH3PAVCTextPosition@@PAVCPenEnvironment@@PAVCElementPointList@@PAVCLineExtEnvironment@@PAVCDataTypeEnvironment@@PAUIChartOCX133101@@AAVCBlockIndex@@V23@J@Z$12:
  0009d	8b 4d f0	 mov	 ecx, DWORD PTR _this$[ebp]
  000a0	81 c1 d0 05 00
	00		 add	 ecx, 1488		; 000005d0H
  000a6	e9 00 00 00 00	 jmp	 ??1CButton@@UAE@XZ	; CButton::~CButton
__unwindfunclet$??0CDlgAnalysisToolSet@@QAE@PAVCWnd@@ABV?$CStringT@DV?$StrTraitMFC_DLL@DV?$ChTraitsCRT@D@ATL@@@@@ATL@@ABW4HORZSCALEDRAWERTYPE@CScaleBaseData@@HPAH3PAVCTextPosition@@PAVCPenEnvironment@@PAVCElementPointList@@PAVCLineExtEnvironment@@PAVCDataTypeEnvironment@@PAUIChartOCX133101@@AAVCBlockIndex@@V23@J@Z$13:
  000ab	8b 4d f0	 mov	 ecx, DWORD PTR _this$[ebp]
  000ae	81 c1 50 06 00
	00		 add	 ecx, 1616		; 00000650H
  000b4	e9 00 00 00 00	 jmp	 ??1CButton@@UAE@XZ	; CButton::~CButton
__unwindfunclet$??0CDlgAnalysisToolSet@@QAE@PAVCWnd@@ABV?$CStringT@DV?$StrTraitMFC_DLL@DV?$ChTraitsCRT@D@ATL@@@@@ATL@@ABW4HORZSCALEDRAWERTYPE@CScaleBaseData@@HPAH3PAVCTextPosition@@PAVCPenEnvironment@@PAVCElementPointList@@PAVCLineExtEnvironment@@PAVCDataTypeEnvironment@@PAUIChartOCX133101@@AAVCBlockIndex@@V23@J@Z$14:
  000b9	8b 4d f0	 mov	 ecx, DWORD PTR _this$[ebp]
  000bc	81 c1 d0 06 00
	00		 add	 ecx, 1744		; 000006d0H
  000c2	e9 00 00 00 00	 jmp	 ??1CButton@@UAE@XZ	; CButton::~CButton
__unwindfunclet$??0CDlgAnalysisToolSet@@QAE@PAVCWnd@@ABV?$CStringT@DV?$StrTraitMFC_DLL@DV?$ChTraitsCRT@D@ATL@@@@@ATL@@ABW4HORZSCALEDRAWERTYPE@CScaleBaseData@@HPAH3PAVCTextPosition@@PAVCPenEnvironment@@PAVCElementPointList@@PAVCLineExtEnvironment@@PAVCDataTypeEnvironment@@PAUIChartOCX133101@@AAVCBlockIndex@@V23@J@Z$15:
  000c7	8b 4d f0	 mov	 ecx, DWORD PTR _this$[ebp]
  000ca	81 c1 50 07 00
	00		 add	 ecx, 1872		; 00000750H
  000d0	e9 00 00 00 00	 jmp	 ??1CButton@@UAE@XZ	; CButton::~CButton
__unwindfunclet$??0CDlgAnalysisToolSet@@QAE@PAVCWnd@@ABV?$CStringT@DV?$StrTraitMFC_DLL@DV?$ChTraitsCRT@D@ATL@@@@@ATL@@ABW4HORZSCALEDRAWERTYPE@CScaleBaseData@@HPAH3PAVCTextPosition@@PAVCPenEnvironment@@PAVCElementPointList@@PAVCLineExtEnvironment@@PAVCDataTypeEnvironment@@PAUIChartOCX133101@@AAVCBlockIndex@@V23@J@Z$16:
  000d5	8b 4d f0	 mov	 ecx, DWORD PTR _this$[ebp]
  000d8	81 c1 d0 07 00
	00		 add	 ecx, 2000		; 000007d0H
  000de	e9 00 00 00 00	 jmp	 ??1CEdit@@UAE@XZ	; CEdit::~CEdit
__unwindfunclet$??0CDlgAnalysisToolSet@@QAE@PAVCWnd@@ABV?$CStringT@DV?$StrTraitMFC_DLL@DV?$ChTraitsCRT@D@ATL@@@@@ATL@@ABW4HORZSCALEDRAWERTYPE@CScaleBaseData@@HPAH3PAVCTextPosition@@PAVCPenEnvironment@@PAVCElementPointList@@PAVCLineExtEnvironment@@PAVCDataTypeEnvironment@@PAUIChartOCX133101@@AAVCBlockIndex@@V23@J@Z$17:
  000e3	8b 4d f0	 mov	 ecx, DWORD PTR _this$[ebp]
  000e6	81 c1 50 08 00
	00		 add	 ecx, 2128		; 00000850H
  000ec	e9 00 00 00 00	 jmp	 ??1CEdit@@UAE@XZ	; CEdit::~CEdit
__unwindfunclet$??0CDlgAnalysisToolSet@@QAE@PAVCWnd@@ABV?$CStringT@DV?$StrTraitMFC_DLL@DV?$ChTraitsCRT@D@ATL@@@@@ATL@@ABW4HORZSCALEDRAWERTYPE@CScaleBaseData@@HPAH3PAVCTextPosition@@PAVCPenEnvironment@@PAVCElementPointList@@PAVCLineExtEnvironment@@PAVCDataTypeEnvironment@@PAUIChartOCX133101@@AAVCBlockIndex@@V23@J@Z$18:
  000f1	8b 4d f0	 mov	 ecx, DWORD PTR _this$[ebp]
  000f4	81 c1 d0 08 00
	00		 add	 ecx, 2256		; 000008d0H
  000fa	e9 00 00 00 00	 jmp	 ??1CEdit@@UAE@XZ	; CEdit::~CEdit
__unwindfunclet$??0CDlgAnalysisToolSet@@QAE@PAVCWnd@@ABV?$CStringT@DV?$StrTraitMFC_DLL@DV?$ChTraitsCRT@D@ATL@@@@@ATL@@ABW4HORZSCALEDRAWERTYPE@CScaleBaseData@@HPAH3PAVCTextPosition@@PAVCPenEnvironment@@PAVCElementPointList@@PAVCLineExtEnvironment@@PAVCDataTypeEnvironment@@PAUIChartOCX133101@@AAVCBlockIndex@@V23@J@Z$19:
  000ff	8b 4d f0	 mov	 ecx, DWORD PTR _this$[ebp]
  00102	81 c1 50 09 00
	00		 add	 ecx, 2384		; 00000950H
  00108	e9 00 00 00 00	 jmp	 ??1CEdit@@UAE@XZ	; CEdit::~CEdit
__unwindfunclet$??0CDlgAnalysisToolSet@@QAE@PAVCWnd@@ABV?$CStringT@DV?$StrTraitMFC_DLL@DV?$ChTraitsCRT@D@ATL@@@@@ATL@@ABW4HORZSCALEDRAWERTYPE@CScaleBaseData@@HPAH3PAVCTextPosition@@PAVCPenEnvironment@@PAVCElementPointList@@PAVCLineExtEnvironment@@PAVCDataTypeEnvironment@@PAUIChartOCX133101@@AAVCBlockIndex@@V23@J@Z$20:
  0010d	8b 4d f0	 mov	 ecx, DWORD PTR _this$[ebp]
  00110	81 c1 d0 09 00
	00		 add	 ecx, 2512		; 000009d0H
  00116	e9 00 00 00 00	 jmp	 ??1CEdit@@UAE@XZ	; CEdit::~CEdit
__unwindfunclet$??0CDlgAnalysisToolSet@@QAE@PAVCWnd@@ABV?$CStringT@DV?$StrTraitMFC_DLL@DV?$ChTraitsCRT@D@ATL@@@@@ATL@@ABW4HORZSCALEDRAWERTYPE@CScaleBaseData@@HPAH3PAVCTextPosition@@PAVCPenEnvironment@@PAVCElementPointList@@PAVCLineExtEnvironment@@PAVCDataTypeEnvironment@@PAUIChartOCX133101@@AAVCBlockIndex@@V23@J@Z$21:
  0011b	8b 4d f0	 mov	 ecx, DWORD PTR _this$[ebp]
  0011e	81 c1 50 0a 00
	00		 add	 ecx, 2640		; 00000a50H
  00124	e9 00 00 00 00	 jmp	 ??1CEdit@@UAE@XZ	; CEdit::~CEdit
__unwindfunclet$??0CDlgAnalysisToolSet@@QAE@PAVCWnd@@ABV?$CStringT@DV?$StrTraitMFC_DLL@DV?$ChTraitsCRT@D@ATL@@@@@ATL@@ABW4HORZSCALEDRAWERTYPE@CScaleBaseData@@HPAH3PAVCTextPosition@@PAVCPenEnvironment@@PAVCElementPointList@@PAVCLineExtEnvironment@@PAVCDataTypeEnvironment@@PAUIChartOCX133101@@AAVCBlockIndex@@V23@J@Z$22:
  00129	8b 4d f0	 mov	 ecx, DWORD PTR _this$[ebp]
  0012c	81 c1 d0 0a 00
	00		 add	 ecx, 2768		; 00000ad0H
  00132	e9 00 00 00 00	 jmp	 ??1CDateTimeCtrl@@UAE@XZ ; CDateTimeCtrl::~CDateTimeCtrl
__unwindfunclet$??0CDlgAnalysisToolSet@@QAE@PAVCWnd@@ABV?$CStringT@DV?$StrTraitMFC_DLL@DV?$ChTraitsCRT@D@ATL@@@@@ATL@@ABW4HORZSCALEDRAWERTYPE@CScaleBaseData@@HPAH3PAVCTextPosition@@PAVCPenEnvironment@@PAVCElementPointList@@PAVCLineExtEnvironment@@PAVCDataTypeEnvironment@@PAUIChartOCX133101@@AAVCBlockIndex@@V23@J@Z$23:
  00137	8b 4d f0	 mov	 ecx, DWORD PTR _this$[ebp]
  0013a	81 c1 50 0b 00
	00		 add	 ecx, 2896		; 00000b50H
  00140	e9 00 00 00 00	 jmp	 ??1CDateTimeCtrl@@UAE@XZ ; CDateTimeCtrl::~CDateTimeCtrl
__unwindfunclet$??0CDlgAnalysisToolSet@@QAE@PAVCWnd@@ABV?$CStringT@DV?$StrTraitMFC_DLL@DV?$ChTraitsCRT@D@ATL@@@@@ATL@@ABW4HORZSCALEDRAWERTYPE@CScaleBaseData@@HPAH3PAVCTextPosition@@PAVCPenEnvironment@@PAVCElementPointList@@PAVCLineExtEnvironment@@PAVCDataTypeEnvironment@@PAUIChartOCX133101@@AAVCBlockIndex@@V23@J@Z$24:
  00145	8b 4d f0	 mov	 ecx, DWORD PTR _this$[ebp]
  00148	81 c1 d0 0b 00
	00		 add	 ecx, 3024		; 00000bd0H
  0014e	e9 00 00 00 00	 jmp	 ??1CDateTimeCtrl@@UAE@XZ ; CDateTimeCtrl::~CDateTimeCtrl
__unwindfunclet$??0CDlgAnalysisToolSet@@QAE@PAVCWnd@@ABV?$CStringT@DV?$StrTraitMFC_DLL@DV?$ChTraitsCRT@D@ATL@@@@@ATL@@ABW4HORZSCALEDRAWERTYPE@CScaleBaseData@@HPAH3PAVCTextPosition@@PAVCPenEnvironment@@PAVCElementPointList@@PAVCLineExtEnvironment@@PAVCDataTypeEnvironment@@PAUIChartOCX133101@@AAVCBlockIndex@@V23@J@Z$25:
  00153	8b 4d f0	 mov	 ecx, DWORD PTR _this$[ebp]
  00156	81 c1 64 0c 00
	00		 add	 ecx, 3172		; 00000c64H
  0015c	ff 25 00 00 00
	00		 jmp	 DWORD PTR __imp_??1?$CStringT@DV?$StrTraitMFC_DLL@DV?$ChTraitsCRT@D@ATL@@@@@ATL@@QAE@XZ
__unwindfunclet$??0CDlgAnalysisToolSet@@QAE@PAVCWnd@@ABV?$CStringT@DV?$StrTraitMFC_DLL@DV?$ChTraitsCRT@D@ATL@@@@@ATL@@ABW4HORZSCALEDRAWERTYPE@CScaleBaseData@@HPAH3PAVCTextPosition@@PAVCPenEnvironment@@PAVCElementPointList@@PAVCLineExtEnvironment@@PAVCDataTypeEnvironment@@PAUIChartOCX133101@@AAVCBlockIndex@@V23@J@Z$26:
  00162	8b 4d f0	 mov	 ecx, DWORD PTR _this$[ebp]
  00165	81 c1 68 0c 00
	00		 add	 ecx, 3176		; 00000c68H
  0016b	ff 25 00 00 00
	00		 jmp	 DWORD PTR __imp_??1?$CStringT@DV?$StrTraitMFC_DLL@DV?$ChTraitsCRT@D@ATL@@@@@ATL@@QAE@XZ
__unwindfunclet$??0CDlgAnalysisToolSet@@QAE@PAVCWnd@@ABV?$CStringT@DV?$StrTraitMFC_DLL@DV?$ChTraitsCRT@D@ATL@@@@@ATL@@ABW4HORZSCALEDRAWERTYPE@CScaleBaseData@@HPAH3PAVCTextPosition@@PAVCPenEnvironment@@PAVCElementPointList@@PAVCLineExtEnvironment@@PAVCDataTypeEnvironment@@PAUIChartOCX133101@@AAVCBlockIndex@@V23@J@Z$27:
  00171	8b 4d f0	 mov	 ecx, DWORD PTR _this$[ebp]
  00174	81 c1 70 0c 00
	00		 add	 ecx, 3184		; 00000c70H
  0017a	e9 00 00 00 00	 jmp	 ??1tagST_ANALYSIS_TOOL_INFO@@QAE@XZ
__unwindfunclet$??0CDlgAnalysisToolSet@@QAE@PAVCWnd@@ABV?$CStringT@DV?$StrTraitMFC_DLL@DV?$ChTraitsCRT@D@ATL@@@@@ATL@@ABW4HORZSCALEDRAWERTYPE@CScaleBaseData@@HPAH3PAVCTextPosition@@PAVCPenEnvironment@@PAVCElementPointList@@PAVCLineExtEnvironment@@PAVCDataTypeEnvironment@@PAUIChartOCX133101@@AAVCBlockIndex@@V23@J@Z$28:
  0017f	8b 4d f0	 mov	 ecx, DWORD PTR _this$[ebp]
  00182	81 c1 e0 0c 00
	00		 add	 ecx, 3296		; 00000ce0H
  00188	e9 00 00 00 00	 jmp	 ??1CElementPointList@@QAE@XZ
  0018d	cc		 int	 3
  0018e	cc		 int	 3
  0018f	cc		 int	 3
  00190	cc		 int	 3
  00191	cc		 int	 3
__ehhandler$??0CDlgAnalysisToolSet@@QAE@PAVCWnd@@ABV?$CStringT@DV?$StrTraitMFC_DLL@DV?$ChTraitsCRT@D@ATL@@@@@ATL@@ABW4HORZSCALEDRAWERTYPE@CScaleBaseData@@HPAH3PAVCTextPosition@@PAVCPenEnvironment@@PAVCElementPointList@@PAVCLineExtEnvironment@@PAVCDataTypeEnvironment@@PAUIChartOCX133101@@AAVCBlockIndex@@V23@J@Z:
  00192	90		 npad	 1
  00193	90		 npad	 1
  00194	8b 54 24 08	 mov	 edx, DWORD PTR [esp+8]
  00198	8d 42 0c	 lea	 eax, DWORD PTR [edx+12]
  0019b	8b 4a e4	 mov	 ecx, DWORD PTR [edx-28]
  0019e	33 c8		 xor	 ecx, eax
  001a0	e8 00 00 00 00	 call	 @__security_check_cookie@4
  001a5	b8 00 00 00 00	 mov	 eax, OFFSET __ehfuncinfo$??0CDlgAnalysisToolSet@@QAE@PAVCWnd@@ABV?$CStringT@DV?$StrTraitMFC_DLL@DV?$ChTraitsCRT@D@ATL@@@@@ATL@@ABW4HORZSCALEDRAWERTYPE@CScaleBaseData@@HPAH3PAVCTextPosition@@PAVCPenEnvironment@@PAVCElementPointList@@PAVCLineExtEnvironment@@PAVCDataTypeEnvironment@@PAUIChartOCX133101@@AAVCBlockIndex@@V23@J@Z
  001aa	e9 00 00 00 00	 jmp	 ___CxxFrameHandler3
text$x	ENDS
??0CDlgAnalysisToolSet@@QAE@PAVCWnd@@ABV?$CStringT@DV?$StrTraitMFC_DLL@DV?$ChTraitsCRT@D@ATL@@@@@ATL@@ABW4HORZSCALEDRAWERTYPE@CScaleBaseData@@HPAH3PAVCTextPosition@@PAVCPenEnvironment@@PAVCElementPointList@@PAVCLineExtEnvironment@@PAVCDataTypeEnvironment@@PAUIChartOCX133101@@AAVCBlockIndex@@V23@J@Z ENDP ; CDlgAnalysisToolSet::CDlgAnalysisToolSet
; Function compile flags: /Ogtp
;	COMDAT ??1tagST_ANALYSIS_TOOL_INFO@@QAE@XZ
_TEXT	SEGMENT
??1tagST_ANALYSIS_TOOL_INFO@@QAE@XZ PROC		; tagST_ANALYSIS_TOOL_INFO::~tagST_ANALYSIS_TOOL_INFO, COMDAT
; _this$ = ecx
  00000	83 c1 68	 add	 ecx, 104		; 00000068H
  00003	ff 25 00 00 00
	00		 jmp	 DWORD PTR __imp_??1?$CStringT@DV?$StrTraitMFC_DLL@DV?$ChTraitsCRT@D@ATL@@@@@ATL@@QAE@XZ
??1tagST_ANALYSIS_TOOL_INFO@@QAE@XZ ENDP		; tagST_ANALYSIS_TOOL_INFO::~tagST_ANALYSIS_TOOL_INFO
_TEXT	ENDS
; Function compile flags: /Ogtp
; File C:\Program Files (x86)\Microsoft Visual Studio\2019\Community\VC\Tools\MSVC\14.29.30133\atlmfc\include\afxwin1.inl
;	COMDAT ??1CBitmapComboBox@@UAE@XZ
_TEXT	SEGMENT
??1CBitmapComboBox@@UAE@XZ PROC				; CBitmapComboBox::~CBitmapComboBox, COMDAT
; _this$ = ecx

; 179  : 	{ }

  00000	56		 push	 esi
  00001	8b f1		 mov	 esi, ecx
  00003	8d 8e 84 00 00
	00		 lea	 ecx, DWORD PTR [esi+132]
  00009	c7 01 00 00 00
	00		 mov	 DWORD PTR [ecx], OFFSET ??_7CBitmap@@6B@
  0000f	e8 00 00 00 00	 call	 ??1CGdiObject@@UAE@XZ	; CGdiObject::~CGdiObject
  00014	8b ce		 mov	 ecx, esi
  00016	5e		 pop	 esi
  00017	e9 00 00 00 00	 jmp	 ??1CComboBox@@UAE@XZ	; CComboBox::~CComboBox
??1CBitmapComboBox@@UAE@XZ ENDP				; CBitmapComboBox::~CBitmapComboBox
_TEXT	ENDS
; Function compile flags: /Ogtp
; File C:\Program Files (x86)\Microsoft Visual Studio\2019\Community\VC\Tools\MSVC\14.29.30133\include\xmemory
; File C:\Program Files (x86)\Microsoft Visual Studio\2019\Community\VC\Tools\MSVC\14.29.30133\include\deque
; File C:\Program Files (x86)\Microsoft Visual Studio\2019\Community\VC\Tools\MSVC\14.29.30133\include\xmemory
; File C:\Program Files (x86)\Microsoft Visual Studio\2019\Community\VC\Tools\MSVC\14.29.30133\include\deque
; File C:\Program Files (x86)\Microsoft Visual Studio\2019\Community\VC\Tools\MSVC\14.29.30133\include\xmemory
; File C:\Program Files (x86)\Microsoft Visual Studio\2019\Community\VC\Tools\MSVC\14.29.30133\include\deque
; File C:\Program Files (x86)\Microsoft Visual Studio\2019\Community\VC\Tools\MSVC\14.29.30133\include\xmemory
; File C:\Program Files (x86)\Microsoft Visual Studio\2019\Community\VC\Tools\MSVC\14.29.30133\include\deque
;	COMDAT ??0CElementPointList@@QAE@ABV0@@Z
_TEXT	SEGMENT
__Proxy$6 = -48						; size = 8
__Guard$7 = -40						; size = 4
_this$ = -36						; size = 4
$T1$sroa$291$1$ = -32					; size = 4
_this$ = -32						; size = 4
tv944 = -28						; size = 4
tv943 = -24						; size = 4
$T8 = -20						; size = 4
__Newoff$1$ = -20					; size = 4
__Alproxy$9 = -13					; size = 1
__$EHRec$ = -12						; size = 12
___that$ = 8						; size = 4
??0CElementPointList@@QAE@ABV0@@Z PROC			; CElementPointList::CElementPointList, COMDAT
; _this$ = ecx
  00000	55		 push	 ebp
  00001	8b ec		 mov	 ebp, esp
  00003	6a ff		 push	 -1
  00005	68 00 00 00 00	 push	 __ehhandler$??0CElementPointList@@QAE@ABV0@@Z
  0000a	64 a1 00 00 00
	00		 mov	 eax, DWORD PTR fs:0
  00010	50		 push	 eax
  00011	83 ec 24	 sub	 esp, 36			; 00000024H
  00014	53		 push	 ebx
  00015	56		 push	 esi
  00016	57		 push	 edi
  00017	a1 00 00 00 00	 mov	 eax, DWORD PTR ___security_cookie
  0001c	33 c5		 xor	 eax, ebp
  0001e	50		 push	 eax
  0001f	8d 45 f4	 lea	 eax, DWORD PTR __$EHRec$[ebp]
  00022	64 a3 00 00 00
	00		 mov	 DWORD PTR fs:0, eax
  00028	8b f9		 mov	 edi, ecx
  0002a	89 7d dc	 mov	 DWORD PTR _this$[ebp], edi
  0002d	8b 45 08	 mov	 eax, DWORD PTR ___that$[ebp]
  00030	8d 77 08	 lea	 esi, DWORD PTR [edi+8]
; File C:\Program Files (x86)\Microsoft Visual Studio\2019\Community\VC\Tools\MSVC\14.29.30133\include\xmemory

; 79   :         return ::operator new(_Bytes);

  00033	6a 08		 push	 8
  00035	89 75 e0	 mov	 DWORD PTR _this$[ebp], esi
  00038	f2 0f 10 00	 movsd	 xmm0, QWORD PTR [eax]

; 1281 :     _CONSTEXPR20_CONTAINER _Container_proxy_ptr12(_Alloc& _Al_, _Container_base12& _Mycont) : _Al(_Al_) {

  0003c	8d 45 f3	 lea	 eax, DWORD PTR __Alproxy$9[ebp]
  0003f	f2 0f 11 07	 movsd	 QWORD PTR [edi], xmm0

; 1033 :     _Container_proxy* _Myproxy = nullptr;

  00043	c7 06 00 00 00
	00		 mov	 DWORD PTR [esi], 0
; File C:\Program Files (x86)\Microsoft Visual Studio\2019\Community\VC\Tools\MSVC\14.29.30133\include\deque

; 555  :     _Deque_val() noexcept : _Map(), _Mapsize(0), _Myoff(0), _Mysize(0) {}

  00049	c7 46 04 00 00
	00 00		 mov	 DWORD PTR [esi+4], 0
  00050	c7 46 08 00 00
	00 00		 mov	 DWORD PTR [esi+8], 0
  00057	c7 46 0c 00 00
	00 00		 mov	 DWORD PTR [esi+12], 0
  0005e	c7 46 10 00 00
	00 00		 mov	 DWORD PTR [esi+16], 0
; File C:\Program Files (x86)\Microsoft Visual Studio\2019\Community\VC\Tools\MSVC\14.29.30133\include\xmemory

; 1281 :     _CONSTEXPR20_CONTAINER _Container_proxy_ptr12(_Alloc& _Al_, _Container_base12& _Mycont) : _Al(_Al_) {

  00065	89 45 d4	 mov	 DWORD PTR __Proxy$6[ebp+4], eax

; 79   :         return ::operator new(_Bytes);

  00068	e8 00 00 00 00	 call	 ??2@YAPAXI@Z		; operator new
  0006d	83 c4 04	 add	 esp, 4

; 1283 :         _Ptr = _Unfancy(_Al_.allocate(1));

  00070	89 45 d0	 mov	 DWORD PTR __Proxy$6[ebp], eax

; 1000 :     _CONSTEXPR20_CONTAINER _Container_proxy(_Container_base12* _Mycont_) noexcept : _Mycont(_Mycont_) {}

  00073	89 30		 mov	 DWORD PTR [eax], esi

; 1001 : 
; 1002 :     const _Container_base12* _Mycont       = nullptr;
; 1003 :     mutable _Iterator_base12* _Myfirstiter = nullptr;

  00075	c7 40 04 00 00
	00 00		 mov	 DWORD PTR [eax+4], 0

; 1285 :         _Mycont._Myproxy = _Ptr;

  0007c	89 06		 mov	 DWORD PTR [esi], eax
; File C:\Program Files (x86)\Microsoft Visual Studio\2019\Community\VC\Tools\MSVC\14.29.30133\include\deque

; 917  :         return _Unchecked_const_iterator(_Myoff() + _Mysize(), _STD addressof(_Get_data()));

  0007e	8b 55 08	 mov	 edx, DWORD PTR ___that$[ebp]

; 643  :         _Container_proxy_ptr12<_Alproxy_ty> _Proxy(_Alproxy, _Get_data());

  00081	c7 45 fc 00 00
	00 00		 mov	 DWORD PTR __$EHRec$[ebp+8], 0

; 674  :         _Tidy_guard<deque> _Guard{this};

  00088	89 75 d8	 mov	 DWORD PTR __Guard$7[ebp], esi

; 917  :         return _Unchecked_const_iterator(_Myoff() + _Mysize(), _STD addressof(_Get_data()));

  0008b	8b 42 18	 mov	 eax, DWORD PTR [edx+24]
  0008e	8b 5a 14	 mov	 ebx, DWORD PTR [edx+20]
  00091	03 c3		 add	 eax, ebx
  00093	89 45 e0	 mov	 DWORD PTR $T1$sroa$291$1$[ebp], eax

; 674  :         _Tidy_guard<deque> _Guard{this};

  00096	c6 45 fc 01	 mov	 BYTE PTR __$EHRec$[ebp+8], 1

; 106  :         return _Myoff == _Right._Myoff;

  0009a	3b d8		 cmp	 ebx, eax

; 675  :         for (; _First != _Last; ++_First) {

  0009c	0f 84 c8 00 00
	00		 je	 $LN155@CElementPo
  000a2	8b 7e 10	 mov	 edi, DWORD PTR [esi+16]
$LL67@CElementPo:

; 559  :         return (_Off / _Block_size) & (_Mapsize - 1);

  000a5	8b 42 10	 mov	 eax, DWORD PTR [edx+16]
  000a8	8b cb		 mov	 ecx, ebx
  000aa	48		 dec	 eax
  000ab	c1 e9 02	 shr	 ecx, 2
  000ae	23 c8		 and	 ecx, eax

; 1106 :         if ((_Myoff() + _Mysize()) % _Block_size == 0 && _Mapsize() <= (_Mysize() + _Block_size) / _Block_size) {

  000b0	89 7d ec	 mov	 DWORD PTR $T8[ebp], edi

; 48   :         return _Mycont->_Map[_Block][_Off];

  000b3	8b 42 0c	 mov	 eax, DWORD PTR [edx+12]
  000b6	8b d3		 mov	 edx, ebx
  000b8	83 e2 03	 and	 edx, 3
  000bb	89 55 e8	 mov	 DWORD PTR tv943[ebp], edx

; 1106 :         if ((_Myoff() + _Mysize()) % _Block_size == 0 && _Mapsize() <= (_Mysize() + _Block_size) / _Block_size) {

  000be	8b 56 0c	 mov	 edx, DWORD PTR [esi+12]

; 48   :         return _Mycont->_Map[_Block][_Off];

  000c1	8b 04 88	 mov	 eax, DWORD PTR [eax+ecx*4]
  000c4	89 45 e4	 mov	 DWORD PTR tv944[ebp], eax

; 1106 :         if ((_Myoff() + _Mysize()) % _Block_size == 0 && _Mapsize() <= (_Mysize() + _Block_size) / _Block_size) {

  000c7	8d 04 3a	 lea	 eax, DWORD PTR [edx+edi]
  000ca	a8 03		 test	 al, 3
  000cc	75 20		 jne	 SHORT $LN79@CElementPo
  000ce	8d 47 04	 lea	 eax, DWORD PTR [edi+4]
  000d1	89 7d ec	 mov	 DWORD PTR $T8[ebp], edi
  000d4	c1 e8 02	 shr	 eax, 2
  000d7	39 46 08	 cmp	 DWORD PTR [esi+8], eax
  000da	77 12		 ja	 SHORT $LN79@CElementPo

; 1107 :             _Growmap(1);

  000dc	6a 01		 push	 1
  000de	8b ce		 mov	 ecx, esi
  000e0	e8 00 00 00 00	 call	 ?_Growmap@?$deque@PAVCCoordinate@@V?$allocator@PAVCCoordinate@@@std@@@std@@AAEXI@Z ; std::deque<CCoordinate *,std::allocator<CCoordinate *> >::_Growmap
  000e5	8b 46 10	 mov	 eax, DWORD PTR [esi+16]
  000e8	8b 56 0c	 mov	 edx, DWORD PTR [esi+12]
  000eb	89 45 ec	 mov	 DWORD PTR $T8[ebp], eax
$LN79@CElementPo:

; 1108 :         }
; 1109 :         _Myoff() &= _Mapsize() * _Block_size - 1;

  000ee	8b 4e 08	 mov	 ecx, DWORD PTR [esi+8]
  000f1	8d 04 8d ff ff
	ff ff		 lea	 eax, DWORD PTR [ecx*4-1]
  000f8	23 c2		 and	 eax, edx

; 559  :         return (_Off / _Block_size) & (_Mapsize - 1);

  000fa	8d 79 ff	 lea	 edi, DWORD PTR [ecx-1]

; 1110 :         size_type _Newoff = _Myoff() + _Mysize();

  000fd	8b 55 ec	 mov	 edx, DWORD PTR $T8[ebp]
  00100	03 d0		 add	 edx, eax
  00102	89 46 0c	 mov	 DWORD PTR [esi+12], eax

; 1111 :         size_type _Block  = _Getblock(_Newoff);
; 1112 :         if (_Map()[_Block] == nullptr) {

  00105	8b 4e 04	 mov	 ecx, DWORD PTR [esi+4]

; 559  :         return (_Off / _Block_size) & (_Mapsize - 1);

  00108	8b c2		 mov	 eax, edx
  0010a	c1 e8 02	 shr	 eax, 2
  0010d	23 f8		 and	 edi, eax

; 1110 :         size_type _Newoff = _Myoff() + _Mysize();

  0010f	89 55 ec	 mov	 DWORD PTR __Newoff$1$[ebp], edx

; 1111 :         size_type _Block  = _Getblock(_Newoff);
; 1112 :         if (_Map()[_Block] == nullptr) {

  00112	83 3c b9 00	 cmp	 DWORD PTR [ecx+edi*4], 0
  00116	75 16		 jne	 SHORT $LN154@CElementPo
; File C:\Program Files (x86)\Microsoft Visual Studio\2019\Community\VC\Tools\MSVC\14.29.30133\include\xmemory

; 79   :         return ::operator new(_Bytes);

  00118	6a 10		 push	 16			; 00000010H
  0011a	e8 00 00 00 00	 call	 ??2@YAPAXI@Z		; operator new
; File C:\Program Files (x86)\Microsoft Visual Studio\2019\Community\VC\Tools\MSVC\14.29.30133\include\deque

; 1113 :             _Map()[_Block] = _Getal().allocate(_Block_size);

  0011f	8b 4e 04	 mov	 ecx, DWORD PTR [esi+4]
; File C:\Program Files (x86)\Microsoft Visual Studio\2019\Community\VC\Tools\MSVC\14.29.30133\include\xmemory

; 79   :         return ::operator new(_Bytes);

  00122	83 c4 04	 add	 esp, 4
  00125	8b 55 ec	 mov	 edx, DWORD PTR __Newoff$1$[ebp]
; File C:\Program Files (x86)\Microsoft Visual Studio\2019\Community\VC\Tools\MSVC\14.29.30133\include\deque

; 1113 :             _Map()[_Block] = _Getal().allocate(_Block_size);

  00128	89 04 b9	 mov	 DWORD PTR [ecx+edi*4], eax
  0012b	8b 4e 04	 mov	 ecx, DWORD PTR [esi+4]
$LN154@CElementPo:

; 1114 :         }
; 1115 : 
; 1116 :         _Alty_traits::construct(

  0012e	8b 0c b9	 mov	 ecx, DWORD PTR [ecx+edi*4]
  00131	83 e2 03	 and	 edx, 3
  00134	8b 7d e4	 mov	 edi, DWORD PTR tv944[ebp]

; 56   :         ++_Myoff;

  00137	43		 inc	 ebx

; 1116 :         _Alty_traits::construct(

  00138	8b 45 e8	 mov	 eax, DWORD PTR tv943[ebp]
  0013b	8b 04 87	 mov	 eax, DWORD PTR [edi+eax*4]
  0013e	89 04 91	 mov	 DWORD PTR [ecx+edx*4], eax

; 1117 :             _Getal(), _Unfancy(_Map()[_Block] + _Newoff % _Block_size), _STD forward<_Tys>(_Vals)...);
; 1118 : 
; 1119 :         ++_Mysize();

  00141	ff 46 10	 inc	 DWORD PTR [esi+16]
  00144	8b 7e 10	 mov	 edi, DWORD PTR [esi+16]

; 675  :         for (; _First != _Last; ++_First) {

  00147	8b 55 08	 mov	 edx, DWORD PTR ___that$[ebp]

; 106  :         return _Myoff == _Right._Myoff;

  0014a	3b 5d e0	 cmp	 ebx, DWORD PTR $T1$sroa$291$1$[ebp]

; 675  :         for (; _First != _Last; ++_First) {

  0014d	0f 85 52 ff ff
	ff		 jne	 $LL67@CElementPo
  00153	8b 45 dc	 mov	 eax, DWORD PTR _this$[ebp]
  00156	8b 4d f4	 mov	 ecx, DWORD PTR __$EHRec$[ebp]
  00159	64 89 0d 00 00
	00 00		 mov	 DWORD PTR fs:0, ecx
  00160	59		 pop	 ecx
  00161	5f		 pop	 edi
  00162	5e		 pop	 esi
  00163	5b		 pop	 ebx
  00164	8b e5		 mov	 esp, ebp
  00166	5d		 pop	 ebp
  00167	c2 04 00	 ret	 4
$LN155@CElementPo:
  0016a	8b c7		 mov	 eax, edi
  0016c	8b 4d f4	 mov	 ecx, DWORD PTR __$EHRec$[ebp]
  0016f	64 89 0d 00 00
	00 00		 mov	 DWORD PTR fs:0, ecx
  00176	59		 pop	 ecx
  00177	5f		 pop	 edi
  00178	5e		 pop	 esi
  00179	5b		 pop	 ebx
  0017a	8b e5		 mov	 esp, ebp
  0017c	5d		 pop	 ebp
  0017d	c2 04 00	 ret	 4
_TEXT	ENDS
;	COMDAT text$x
text$x	SEGMENT
__unwindfunclet$??0CElementPointList@@QAE@ABV0@@Z$2:
  00000	8d 4d d0	 lea	 ecx, DWORD PTR __Proxy$6[ebp]
  00003	e9 00 00 00 00	 jmp	 ??1?$_Container_proxy_ptr12@V?$allocator@U_Container_proxy@std@@@std@@@std@@QAE@XZ ; std::_Container_proxy_ptr12<std::allocator<std::_Container_proxy> >::~_Container_proxy_ptr12<std::allocator<std::_Container_proxy> >
__unwindfunclet$??0CElementPointList@@QAE@ABV0@@Z$3:
  00008	8d 4d d8	 lea	 ecx, DWORD PTR __Guard$7[ebp]
  0000b	e9 00 00 00 00	 jmp	 ??1?$_Tidy_guard@V?$deque@PAVCCoordinate@@V?$allocator@PAVCCoordinate@@@std@@@std@@@std@@QAE@XZ ; std::_Tidy_guard<std::deque<CCoordinate *,std::allocator<CCoordinate *> > >::~_Tidy_guard<std::deque<CCoordinate *,std::allocator<CCoordinate *> > >
  00010	cc		 int	 3
  00011	cc		 int	 3
  00012	cc		 int	 3
  00013	cc		 int	 3
  00014	cc		 int	 3
__ehhandler$??0CElementPointList@@QAE@ABV0@@Z:
  00015	90		 npad	 1
  00016	90		 npad	 1
  00017	8b 54 24 08	 mov	 edx, DWORD PTR [esp+8]
  0001b	8d 42 0c	 lea	 eax, DWORD PTR [edx+12]
  0001e	8b 4a cc	 mov	 ecx, DWORD PTR [edx-52]
  00021	33 c8		 xor	 ecx, eax
  00023	e8 00 00 00 00	 call	 @__security_check_cookie@4
  00028	b8 00 00 00 00	 mov	 eax, OFFSET __ehfuncinfo$??0CElementPointList@@QAE@ABV0@@Z
  0002d	e9 00 00 00 00	 jmp	 ___CxxFrameHandler3
text$x	ENDS
??0CElementPointList@@QAE@ABV0@@Z ENDP			; CElementPointList::CElementPointList
; Function compile flags: /Ogtp
; File C:\Program Files (x86)\Microsoft Visual Studio\2019\Community\VC\Tools\MSVC\14.29.30133\include\deque
; File C:\Program Files (x86)\Microsoft Visual Studio\2019\Community\VC\Tools\MSVC\14.29.30133\include\utility
; File C:\Program Files (x86)\Microsoft Visual Studio\2019\Community\VC\Tools\MSVC\14.29.30133\include\xmemory
; File C:\Program Files (x86)\Microsoft Visual Studio\2019\Community\VC\Tools\MSVC\14.29.30133\include\utility
; File C:\Program Files (x86)\Microsoft Visual Studio\2019\Community\VC\Tools\MSVC\14.29.30133\include\xmemory
;	COMDAT ??1CElementPointList@@QAE@XZ
_TEXT	SEGMENT
??1CElementPointList@@QAE@XZ PROC			; CElementPointList::~CElementPointList, COMDAT
; _this$ = ecx
; File C:\Program Files (x86)\Microsoft Visual Studio\2019\Community\VC\Tools\MSVC\14.29.30133\include\deque

; 1332 :         _Tidy();

  00000	56		 push	 esi
  00001	8d 71 08	 lea	 esi, DWORD PTR [ecx+8]
  00004	8b ce		 mov	 ecx, esi
  00006	e8 00 00 00 00	 call	 ?_Tidy@?$deque@PAVCCoordinate@@V?$allocator@PAVCCoordinate@@@std@@@std@@AAEXXZ ; std::deque<CCoordinate *,std::allocator<CCoordinate *> >::_Tidy

; 861  :         _Tidy();

  0000b	8b ce		 mov	 ecx, esi
  0000d	e8 00 00 00 00	 call	 ?_Tidy@?$deque@PAVCCoordinate@@V?$allocator@PAVCCoordinate@@@std@@@std@@AAEXXZ ; std::deque<CCoordinate *,std::allocator<CCoordinate *> >::_Tidy
; File C:\Program Files (x86)\Microsoft Visual Studio\2019\Community\VC\Tools\MSVC\14.29.30133\include\utility

; 602  :     _Ty _Old_val = static_cast<_Ty&&>(_Val);

  00012	8b 06		 mov	 eax, DWORD PTR [esi]
; File C:\Program Files (x86)\Microsoft Visual Studio\2019\Community\VC\Tools\MSVC\14.29.30133\include\xmemory

; 255  :         ::operator delete(_Ptr, _Bytes);

  00014	6a 08		 push	 8
  00016	50		 push	 eax
; File C:\Program Files (x86)\Microsoft Visual Studio\2019\Community\VC\Tools\MSVC\14.29.30133\include\utility

; 603  :     _Val         = static_cast<_Other&&>(_New_val);

  00017	c7 06 00 00 00
	00		 mov	 DWORD PTR [esi], 0
; File C:\Program Files (x86)\Microsoft Visual Studio\2019\Community\VC\Tools\MSVC\14.29.30133\include\xmemory

; 255  :         ::operator delete(_Ptr, _Bytes);

  0001d	e8 00 00 00 00	 call	 ??3@YAXPAXI@Z		; operator delete
  00022	83 c4 08	 add	 esp, 8
  00025	5e		 pop	 esi
  00026	c3		 ret	 0
??1CElementPointList@@QAE@XZ ENDP			; CElementPointList::~CElementPointList
_TEXT	ENDS
; Function compile flags: /Ogtp
; File C:\Program Files (x86)\Microsoft Visual Studio\2019\Community\VC\Tools\MSVC\14.29.30133\include\deque
; File C:\Program Files (x86)\Microsoft Visual Studio\2019\Community\VC\Tools\MSVC\14.29.30133\include\xmemory
; File C:\Program Files (x86)\Microsoft Visual Studio\2019\Community\VC\Tools\MSVC\14.29.30133\include\deque
; File C:\Program Files (x86)\Microsoft Visual Studio\2019\Community\VC\Tools\MSVC\14.29.30133\include\xmemory
; File C:\Program Files (x86)\Microsoft Visual Studio\2019\Community\VC\Tools\MSVC\14.29.30133\include\deque
; File C:\Program Files (x86)\Microsoft Visual Studio\2019\Community\VC\Tools\MSVC\14.29.30133\include\xmemory
; File C:\Program Files (x86)\Microsoft Visual Studio\2019\Community\VC\Tools\MSVC\14.29.30133\include\deque
;	COMDAT ?_Tidy@?$deque@PAVCCoordinate@@V?$allocator@PAVCCoordinate@@@std@@@std@@AAEXXZ
_TEXT	SEGMENT
?_Tidy@?$deque@PAVCCoordinate@@V?$allocator@PAVCCoordinate@@@std@@@std@@AAEXXZ PROC ; std::deque<CCoordinate *,std::allocator<CCoordinate *> >::_Tidy, COMDAT
; _this$ = ecx

; 1471 :     void _Tidy() noexcept { // free all storage

  00000	57		 push	 edi
  00001	8b f9		 mov	 edi, ecx

; 1002 :         return _Mysize() == 0;

  00003	8b 4f 10	 mov	 ecx, DWORD PTR [edi+16]
  00006	85 c9		 test	 ecx, ecx

; 1472 :         _Orphan_all();
; 1473 : 
; 1474 :         _Alpty _Almap(_Getal());
; 1475 :         while (!empty()) {

  00008	74 15		 je	 SHORT $LN60@Tidy
  0000a	66 0f 1f 44 00
	00		 npad	 6
$LL2@Tidy:

; 1146 :         if (--_Mysize() == 0) {

  00010	8d 41 ff	 lea	 eax, DWORD PTR [ecx-1]
  00013	89 47 10	 mov	 DWORD PTR [edi+16], eax
  00016	8b c8		 mov	 ecx, eax
  00018	85 c0		 test	 eax, eax
  0001a	75 f4		 jne	 SHORT $LL2@Tidy

; 1147 :             _Myoff() = 0;

  0001c	89 47 0c	 mov	 DWORD PTR [edi+12], eax
$LN60@Tidy:
  0001f	56		 push	 esi

; 1479 :         for (size_type _Block = _Mapsize(); 0 < _Block;) { // free storage for a block and destroy pointer

  00020	8b 77 08	 mov	 esi, DWORD PTR [edi+8]
  00023	85 f6		 test	 esi, esi
  00025	74 1a		 je	 SHORT $LN5@Tidy
$LL4@Tidy:

; 1480 :             if (_Map()[--_Block]) { // free block and destroy its pointer

  00027	8b 47 04	 mov	 eax, DWORD PTR [edi+4]
  0002a	4e		 dec	 esi
  0002b	8b 04 b0	 mov	 eax, DWORD PTR [eax+esi*4]
  0002e	85 c0		 test	 eax, eax
  00030	74 0b		 je	 SHORT $LN23@Tidy
; File C:\Program Files (x86)\Microsoft Visual Studio\2019\Community\VC\Tools\MSVC\14.29.30133\include\xmemory

; 255  :         ::operator delete(_Ptr, _Bytes);

  00032	6a 10		 push	 16			; 00000010H
  00034	50		 push	 eax
  00035	e8 00 00 00 00	 call	 ??3@YAXPAXI@Z		; operator delete
  0003a	83 c4 08	 add	 esp, 8
$LN23@Tidy:
; File C:\Program Files (x86)\Microsoft Visual Studio\2019\Community\VC\Tools\MSVC\14.29.30133\include\deque

; 1479 :         for (size_type _Block = _Mapsize(); 0 < _Block;) { // free storage for a block and destroy pointer

  0003d	85 f6		 test	 esi, esi
  0003f	75 e6		 jne	 SHORT $LL4@Tidy
$LN5@Tidy:

; 1481 :                 _Getal().deallocate(_Map()[_Block], _Block_size);
; 1482 :                 _Destroy_in_place(_Map()[_Block]);
; 1483 :             }
; 1484 :         }
; 1485 : 
; 1486 :         if (_Map() != _Mapptr()) {

  00041	8b 47 04	 mov	 eax, DWORD PTR [edi+4]
  00044	5e		 pop	 esi
  00045	85 c0		 test	 eax, eax
  00047	74 2a		 je	 SHORT $LN41@Tidy
; File C:\Program Files (x86)\Microsoft Visual Studio\2019\Community\VC\Tools\MSVC\14.29.30133\include\xmemory

; 797  :         _Deallocate<_New_alignof<_Ty>>(_Ptr, sizeof(_Ty) * _Count);

  00049	8b 4f 08	 mov	 ecx, DWORD PTR [edi+8]
  0004c	c1 e1 02	 shl	 ecx, 2

; 251  :         if (_Bytes >= _Big_allocation_threshold) { // boost the alignment of big allocations to help autovectorization

  0004f	81 f9 00 10 00
	00		 cmp	 ecx, 4096		; 00001000H
  00055	72 12		 jb	 SHORT $LN51@Tidy

; 150  :     const uintptr_t _Ptr_container   = _Ptr_user[-1];

  00057	8b 50 fc	 mov	 edx, DWORD PTR [eax-4]
  0005a	83 c1 23	 add	 ecx, 35			; 00000023H

; 151  : 
; 152  :     // If the following asserts, it likely means that we are performing
; 153  :     // an aligned delete on memory coming from an unaligned allocation.
; 154  :     _STL_ASSERT(_Ptr_user[-2] == _Big_allocation_sentinel, "invalid argument");
; 155  : 
; 156  :     // Extra paranoia on aligned allocation/deallocation; ensure _Ptr_container is
; 157  :     // in range [_Min_back_shift, _Non_user_size]
; 158  : #ifdef _DEBUG
; 159  :     constexpr uintptr_t _Min_back_shift = 2 * sizeof(void*);
; 160  : #else // ^^^ _DEBUG ^^^ // vvv !_DEBUG vvv
; 161  :     constexpr uintptr_t _Min_back_shift = sizeof(void*);
; 162  : #endif // _DEBUG
; 163  :     const uintptr_t _Back_shift = reinterpret_cast<uintptr_t>(_Ptr) - _Ptr_container;

  0005d	2b c2		 sub	 eax, edx

; 164  :     _STL_VERIFY(_Back_shift >= _Min_back_shift && _Back_shift <= _Non_user_size, "invalid argument");

  0005f	83 c0 fc	 add	 eax, -4			; fffffffcH
  00062	83 f8 1f	 cmp	 eax, 31			; 0000001fH
  00065	77 1c		 ja	 SHORT $LN48@Tidy

; 165  :     _Ptr = reinterpret_cast<void*>(_Ptr_container);

  00067	8b c2		 mov	 eax, edx
$LN51@Tidy:

; 255  :         ::operator delete(_Ptr, _Bytes);

  00069	51		 push	 ecx
  0006a	50		 push	 eax
  0006b	e8 00 00 00 00	 call	 ??3@YAXPAXI@Z		; operator delete
  00070	83 c4 08	 add	 esp, 8
$LN41@Tidy:
; File C:\Program Files (x86)\Microsoft Visual Studio\2019\Community\VC\Tools\MSVC\14.29.30133\include\deque

; 1490 :         _Mapsize() = 0;

  00073	c7 47 08 00 00
	00 00		 mov	 DWORD PTR [edi+8], 0

; 1491 :         _Map()     = _Mapptr();

  0007a	c7 47 04 00 00
	00 00		 mov	 DWORD PTR [edi+4], 0
  00081	5f		 pop	 edi

; 1492 :     }

  00082	c3		 ret	 0
$LN48@Tidy:
; File C:\Program Files (x86)\Microsoft Visual Studio\2019\Community\VC\Tools\MSVC\14.29.30133\include\xmemory

; 164  :     _STL_VERIFY(_Back_shift >= _Min_back_shift && _Back_shift <= _Non_user_size, "invalid argument");

  00083	ff 15 00 00 00
	00		 call	 DWORD PTR __imp___invalid_parameter_noinfo_noreturn
$LN62@Tidy:
  00089	cc		 int	 3
?_Tidy@?$deque@PAVCCoordinate@@V?$allocator@PAVCCoordinate@@@std@@@std@@AAEXXZ ENDP ; std::deque<CCoordinate *,std::allocator<CCoordinate *> >::_Tidy
_TEXT	ENDS
; Function compile flags: /Ogtp
; File C:\Program Files (x86)\Microsoft Visual Studio\2019\Community\VC\Tools\MSVC\14.29.30133\include\deque
; File C:\Program Files (x86)\Microsoft Visual Studio\2019\Community\VC\Tools\MSVC\14.29.30133\include\xmemory
; File C:\Program Files (x86)\Microsoft Visual Studio\2019\Community\VC\Tools\MSVC\14.29.30133\include\deque
; File C:\Program Files (x86)\Microsoft Visual Studio\2019\Community\VC\Tools\MSVC\14.29.30133\include\xutility
; File C:\Program Files (x86)\Microsoft Visual Studio\2019\Community\VC\Tools\MSVC\14.29.30133\include\deque
; File C:\Program Files (x86)\Microsoft Visual Studio\2019\Community\VC\Tools\MSVC\14.29.30133\include\xutility
; File C:\Program Files (x86)\Microsoft Visual Studio\2019\Community\VC\Tools\MSVC\14.29.30133\include\deque
; File C:\Program Files (x86)\Microsoft Visual Studio\2019\Community\VC\Tools\MSVC\14.29.30133\include\xutility
; File C:\Program Files (x86)\Microsoft Visual Studio\2019\Community\VC\Tools\MSVC\14.29.30133\include\deque
; File C:\Program Files (x86)\Microsoft Visual Studio\2019\Community\VC\Tools\MSVC\14.29.30133\include\xutility
; File C:\Program Files (x86)\Microsoft Visual Studio\2019\Community\VC\Tools\MSVC\14.29.30133\include\xmemory
; File C:\Program Files (x86)\Microsoft Visual Studio\2019\Community\VC\Tools\MSVC\14.29.30133\include\xutility
; File C:\Program Files (x86)\Microsoft Visual Studio\2019\Community\VC\Tools\MSVC\14.29.30133\include\xmemory
; File C:\Program Files (x86)\Microsoft Visual Studio\2019\Community\VC\Tools\MSVC\14.29.30133\include\xutility
; File C:\Program Files (x86)\Microsoft Visual Studio\2019\Community\VC\Tools\MSVC\14.29.30133\include\xmemory
; File C:\Program Files (x86)\Microsoft Visual Studio\2019\Community\VC\Tools\MSVC\14.29.30133\include\deque
; File C:\Program Files (x86)\Microsoft Visual Studio\2019\Community\VC\Tools\MSVC\14.29.30133\include\xutility
; File C:\Program Files (x86)\Microsoft Visual Studio\2019\Community\VC\Tools\MSVC\14.29.30133\include\deque
; File C:\Program Files (x86)\Microsoft Visual Studio\2019\Community\VC\Tools\MSVC\14.29.30133\include\xutility
; File C:\Program Files (x86)\Microsoft Visual Studio\2019\Community\VC\Tools\MSVC\14.29.30133\include\deque
; File C:\Program Files (x86)\Microsoft Visual Studio\2019\Community\VC\Tools\MSVC\14.29.30133\include\xutility
; File C:\Program Files (x86)\Microsoft Visual Studio\2019\Community\VC\Tools\MSVC\14.29.30133\include\xmemory
; File C:\Program Files (x86)\Microsoft Visual Studio\2019\Community\VC\Tools\MSVC\14.29.30133\include\xutility
; File C:\Program Files (x86)\Microsoft Visual Studio\2019\Community\VC\Tools\MSVC\14.29.30133\include\xmemory
; File C:\Program Files (x86)\Microsoft Visual Studio\2019\Community\VC\Tools\MSVC\14.29.30133\include\xutility
; File C:\Program Files (x86)\Microsoft Visual Studio\2019\Community\VC\Tools\MSVC\14.29.30133\include\xmemory
; File C:\Program Files (x86)\Microsoft Visual Studio\2019\Community\VC\Tools\MSVC\14.29.30133\include\deque
; File C:\Program Files (x86)\Microsoft Visual Studio\2019\Community\VC\Tools\MSVC\14.29.30133\include\xmemory
; File C:\Program Files (x86)\Microsoft Visual Studio\2019\Community\VC\Tools\MSVC\14.29.30133\include\deque
; File C:\Program Files (x86)\Microsoft Visual Studio\2019\Community\VC\Tools\MSVC\14.29.30133\include\xmemory
; File C:\Program Files (x86)\Microsoft Visual Studio\2019\Community\VC\Tools\MSVC\14.29.30133\include\deque
; File C:\Program Files (x86)\Microsoft Visual Studio\2019\Community\VC\Tools\MSVC\14.29.30133\include\xmemory
; File C:\Program Files (x86)\Microsoft Visual Studio\2019\Community\VC\Tools\MSVC\14.29.30133\include\deque
;	COMDAT ?_Growmap@?$deque@PAVCCoordinate@@V?$allocator@PAVCCoordinate@@@std@@@std@@AAEXI@Z
_TEXT	SEGMENT
__Myptr$1$ = -16					; size = 4
__Myboff$1$ = -12					; size = 4
_this$1$ = -8						; size = 4
__Count$1$ = -4						; size = 4
$T1 = 8							; size = 4
__Count$ = 8						; size = 4
?_Growmap@?$deque@PAVCCoordinate@@V?$allocator@PAVCCoordinate@@@std@@@std@@AAEXI@Z PROC ; std::deque<CCoordinate *,std::allocator<CCoordinate *> >::_Growmap, COMDAT
; _this$ = ecx

; 1432 :     void _Growmap(size_type _Count) { // grow map by at least _Count pointers, _Mapsize() a power of 2

  00000	55		 push	 ebp
  00001	8b ec		 mov	 ebp, esp
  00003	83 ec 10	 sub	 esp, 16			; 00000010H
  00006	53		 push	 ebx
  00007	56		 push	 esi
  00008	8b f1		 mov	 esi, ecx

; 1433 :         static_assert(1 < _Minimum_map_size, "The _Xlen() test should always be performed.");
; 1434 : 
; 1435 :         _Alpty _Almap(_Getal());
; 1436 :         size_type _Newsize = 0 < _Mapsize() ? _Mapsize() : 1;

  0000a	b8 01 00 00 00	 mov	 eax, 1
  0000f	57		 push	 edi
  00010	8b 7d 08	 mov	 edi, DWORD PTR __Count$[ebp]
  00013	89 75 f8	 mov	 DWORD PTR _this$1$[ebp], esi
  00016	8b 56 08	 mov	 edx, DWORD PTR [esi+8]
  00019	85 d2		 test	 edx, edx
  0001b	0f 45 c2	 cmovne	 eax, edx
  0001e	66 90		 npad	 2
$LL2@Growmap:

; 1437 :         while (_Newsize - _Mapsize() < _Count || _Newsize < _Minimum_map_size) {

  00020	8b d8		 mov	 ebx, eax
  00022	2b da		 sub	 ebx, edx
  00024	3b df		 cmp	 ebx, edi
  00026	72 05		 jb	 SHORT $LN4@Growmap
  00028	83 f8 08	 cmp	 eax, 8
  0002b	73 13		 jae	 SHORT $LN3@Growmap
$LN4@Growmap:

; 1438 :             // scale _Newsize to 2^N >= _Mapsize() + _Count
; 1439 :             if (max_size() / _Block_size - _Newsize < _Newsize) {

  0002d	b9 ff ff ff 0f	 mov	 ecx, 268435455		; 0fffffffH
  00032	2b c8		 sub	 ecx, eax
  00034	3b c8		 cmp	 ecx, eax
  00036	0f 82 49 01 00
	00		 jb	 $LN138@Growmap

; 1441 :             }
; 1442 : 
; 1443 :             _Newsize *= 2;

  0003c	03 c0		 add	 eax, eax

; 1444 :         }

  0003e	eb e0		 jmp	 SHORT $LL2@Growmap
$LN3@Growmap:

; 1445 :         _Count = _Newsize - _Mapsize();
; 1446 : 
; 1447 :         size_type _Myboff = _Myoff() / _Block_size;

  00040	8b 7e 0c	 mov	 edi, DWORD PTR [esi+12]
  00043	c1 ef 02	 shr	 edi, 2
  00046	89 7d f4	 mov	 DWORD PTR __Myboff$1$[ebp], edi
; File C:\Program Files (x86)\Microsoft Visual Studio\2019\Community\VC\Tools\MSVC\14.29.30133\include\xmemory

; 60   :         if (_Count > _Max_possible) {

  00049	3d ff ff ff 3f	 cmp	 eax, 1073741823		; 3fffffffH
  0004e	0f 87 38 01 00
	00		 ja	 $LN142@Growmap

; 61   :             _Throw_bad_array_new_length(); // multiply overflow
; 62   :         }
; 63   :     }
; 64   : 
; 65   :     return _Count * _Ty_size;

  00054	c1 e0 02	 shl	 eax, 2

; 228  :         if (_Bytes >= _Big_allocation_threshold) { // boost the alignment of big allocations to help autovectorization

  00057	3d 00 10 00 00	 cmp	 eax, 4096		; 00001000H
  0005c	72 27		 jb	 SHORT $LN19@Growmap

; 129  :     const size_t _Block_size = _Non_user_size + _Bytes;

  0005e	8d 48 23	 lea	 ecx, DWORD PTR [eax+35]

; 130  :     if (_Block_size <= _Bytes) {

  00061	3b c8		 cmp	 ecx, eax
  00063	0f 86 23 01 00
	00		 jbe	 $LN142@Growmap

; 79   :         return ::operator new(_Bytes);

  00069	51		 push	 ecx
  0006a	e8 00 00 00 00	 call	 ??2@YAPAXI@Z		; operator new
  0006f	83 c4 04	 add	 esp, 4

; 135  :     _STL_VERIFY(_Ptr_container != 0, "invalid argument"); // validate even in release since we're doing p[-1]

  00072	85 c0		 test	 eax, eax
  00074	0f 84 05 01 00
	00		 je	 $LN130@Growmap

; 136  :     void* const _Ptr = reinterpret_cast<void*>((_Ptr_container + _Non_user_size) & ~(_Big_allocation_alignment - 1));

  0007a	8d 50 23	 lea	 edx, DWORD PTR [eax+35]
  0007d	83 e2 e0	 and	 edx, -32		; ffffffe0H

; 137  :     static_cast<uintptr_t*>(_Ptr)[-1] = _Ptr_container;

  00080	89 42 fc	 mov	 DWORD PTR [edx-4], eax

; 229  :             return _Allocate_manually_vector_aligned<_Traits>(_Bytes);

  00083	eb 13		 jmp	 SHORT $LN145@Growmap
$LN19@Growmap:

; 230  :         }
; 231  :     }
; 232  : #endif // defined(_M_IX86) || defined(_M_X64)
; 233  : 
; 234  :     if (_Bytes != 0) {

  00085	85 c0		 test	 eax, eax
  00087	74 0d		 je	 SHORT $LN20@Growmap

; 79   :         return ::operator new(_Bytes);

  00089	50		 push	 eax
  0008a	e8 00 00 00 00	 call	 ??2@YAPAXI@Z		; operator new
  0008f	83 c4 04	 add	 esp, 4

; 235  :         return _Traits::_Allocate(_Bytes);

  00092	8b d0		 mov	 edx, eax
  00094	eb 02		 jmp	 SHORT $LN145@Growmap
$LN20@Growmap:

; 236  :     }
; 237  : 
; 238  :     return nullptr;

  00096	33 d2		 xor	 edx, edx
$LN145@Growmap:
; File C:\Program Files (x86)\Microsoft Visual Studio\2019\Community\VC\Tools\MSVC\14.29.30133\include\deque

; 1451 :         _Myptr = _STD uninitialized_copy(_Map() + _Myboff, _Map() + _Mapsize(), _Myptr); // copy initial to end

  00098	8b 46 04	 mov	 eax, DWORD PTR [esi+4]
  0009b	8b 76 08	 mov	 esi, DWORD PTR [esi+8]
  0009e	c1 e7 02	 shl	 edi, 2
  000a1	c1 e6 02	 shl	 esi, 2
  000a4	89 7d fc	 mov	 DWORD PTR __Count$1$[ebp], edi
  000a7	89 55 08	 mov	 DWORD PTR $T1[ebp], edx
  000aa	8d 0c 38	 lea	 ecx, DWORD PTR [eax+edi]
  000ad	03 fa		 add	 edi, edx
; File C:\Program Files (x86)\Microsoft Visual Studio\2019\Community\VC\Tools\MSVC\14.29.30133\include\xutility

; 4065 :     const auto _Count           = static_cast<size_t>(_Last_ch - _First_ch);

  000af	2b f1		 sub	 esi, ecx
; File C:\Program Files (x86)\Microsoft Visual Studio\2019\Community\VC\Tools\MSVC\14.29.30133\include\deque

; 1451 :         _Myptr = _STD uninitialized_copy(_Map() + _Myboff, _Map() + _Mapsize(), _Myptr); // copy initial to end

  000b1	03 f0		 add	 esi, eax
; File C:\Program Files (x86)\Microsoft Visual Studio\2019\Community\VC\Tools\MSVC\14.29.30133\include\xutility

; 4066 :     _CSTD memmove(_Dest_ch, _First_ch, _Count);

  000b3	56		 push	 esi
  000b4	51		 push	 ecx
  000b5	57		 push	 edi
  000b6	e8 00 00 00 00	 call	 _memmove

; 4068 :         return reinterpret_cast<_OutCtgIt>(_Dest_ch + _Count);

  000bb	8d 04 3e	 lea	 eax, DWORD PTR [esi+edi]
  000be	83 c4 0c	 add	 esp, 12			; 0000000cH
; File C:\Program Files (x86)\Microsoft Visual Studio\2019\Community\VC\Tools\MSVC\14.29.30133\include\deque

; 1451 :         _Myptr = _STD uninitialized_copy(_Map() + _Myboff, _Map() + _Mapsize(), _Myptr); // copy initial to end

  000c1	8b 75 f8	 mov	 esi, DWORD PTR _this$1$[ebp]

; 1452 :         if (_Myboff <= _Count) { // increment greater than offset of initial block

  000c4	8b 7d f4	 mov	 edi, DWORD PTR __Myboff$1$[ebp]
; File C:\Program Files (x86)\Microsoft Visual Studio\2019\Community\VC\Tools\MSVC\14.29.30133\include\xutility

; 4068 :         return reinterpret_cast<_OutCtgIt>(_Dest_ch + _Count);

  000c7	89 45 f0	 mov	 DWORD PTR __Myptr$1$[ebp], eax
; File C:\Program Files (x86)\Microsoft Visual Studio\2019\Community\VC\Tools\MSVC\14.29.30133\include\deque

; 1451 :         _Myptr = _STD uninitialized_copy(_Map() + _Myboff, _Map() + _Mapsize(), _Myptr); // copy initial to end

  000ca	8b 56 04	 mov	 edx, DWORD PTR [esi+4]

; 1452 :         if (_Myboff <= _Count) { // increment greater than offset of initial block

  000cd	3b fb		 cmp	 edi, ebx
  000cf	77 35		 ja	 SHORT $LN6@Growmap
; File C:\Program Files (x86)\Microsoft Visual Studio\2019\Community\VC\Tools\MSVC\14.29.30133\include\xutility

; 4066 :     _CSTD memmove(_Dest_ch, _First_ch, _Count);

  000d1	8d 0c bd 00 00
	00 00		 lea	 ecx, DWORD PTR [edi*4]
  000d8	51		 push	 ecx
  000d9	52		 push	 edx
  000da	50		 push	 eax
  000db	e8 00 00 00 00	 call	 _memmove
; File C:\Program Files (x86)\Microsoft Visual Studio\2019\Community\VC\Tools\MSVC\14.29.30133\include\xmemory

; 1792 :     _CSTD memset(_First_ch, 0, static_cast<size_t>(_Last_ch - _First_ch));

  000e0	8b c3		 mov	 eax, ebx
  000e2	2b c7		 sub	 eax, edi
; File C:\Program Files (x86)\Microsoft Visual Studio\2019\Community\VC\Tools\MSVC\14.29.30133\include\xutility

; 4068 :         return reinterpret_cast<_OutCtgIt>(_Dest_ch + _Count);

  000e4	8b 7d fc	 mov	 edi, DWORD PTR __Count$1$[ebp]
; File C:\Program Files (x86)\Microsoft Visual Studio\2019\Community\VC\Tools\MSVC\14.29.30133\include\xmemory

; 1792 :     _CSTD memset(_First_ch, 0, static_cast<size_t>(_Last_ch - _First_ch));

  000e7	c1 e0 02	 shl	 eax, 2
  000ea	50		 push	 eax
; File C:\Program Files (x86)\Microsoft Visual Studio\2019\Community\VC\Tools\MSVC\14.29.30133\include\xutility

; 4068 :         return reinterpret_cast<_OutCtgIt>(_Dest_ch + _Count);

  000eb	8b 45 f0	 mov	 eax, DWORD PTR __Myptr$1$[ebp]
  000ee	03 c7		 add	 eax, edi
; File C:\Program Files (x86)\Microsoft Visual Studio\2019\Community\VC\Tools\MSVC\14.29.30133\include\xmemory

; 1792 :     _CSTD memset(_First_ch, 0, static_cast<size_t>(_Last_ch - _First_ch));

  000f0	6a 00		 push	 0
  000f2	50		 push	 eax
  000f3	e8 00 00 00 00	 call	 _memset
  000f8	57		 push	 edi
  000f9	8b 7d 08	 mov	 edi, DWORD PTR $T1[ebp]
  000fc	6a 00		 push	 0
  000fe	57		 push	 edi
  000ff	e8 00 00 00 00	 call	 _memset
; File C:\Program Files (x86)\Microsoft Visual Studio\2019\Community\VC\Tools\MSVC\14.29.30133\include\deque

; 1456 :         } else { // increment not greater than offset of initial block

  00104	eb 36		 jmp	 SHORT $LN146@Growmap
$LN6@Growmap:

; 1457 :             _STD uninitialized_copy(_Map(), _Map() + _Count, _Myptr); // copy more old

  00106	8d 3c 9d 00 00
	00 00		 lea	 edi, DWORD PTR [ebx*4]
; File C:\Program Files (x86)\Microsoft Visual Studio\2019\Community\VC\Tools\MSVC\14.29.30133\include\xutility

; 4066 :     _CSTD memmove(_Dest_ch, _First_ch, _Count);

  0010d	57		 push	 edi
  0010e	52		 push	 edx
  0010f	50		 push	 eax
  00110	e8 00 00 00 00	 call	 _memmove
; File C:\Program Files (x86)\Microsoft Visual Studio\2019\Community\VC\Tools\MSVC\14.29.30133\include\deque

; 1458 :             _Myptr = _STD uninitialized_copy(_Map() + _Count, _Map() + _Myboff, _Newmap); // copy rest of old

  00115	8b 76 04	 mov	 esi, DWORD PTR [esi+4]
  00118	8d 04 37	 lea	 eax, DWORD PTR [edi+esi]
; File C:\Program Files (x86)\Microsoft Visual Studio\2019\Community\VC\Tools\MSVC\14.29.30133\include\xutility

; 4065 :     const auto _Count           = static_cast<size_t>(_Last_ch - _First_ch);

  0011b	2b f0		 sub	 esi, eax
; File C:\Program Files (x86)\Microsoft Visual Studio\2019\Community\VC\Tools\MSVC\14.29.30133\include\deque

; 1458 :             _Myptr = _STD uninitialized_copy(_Map() + _Count, _Map() + _Myboff, _Newmap); // copy rest of old

  0011d	03 75 fc	 add	 esi, DWORD PTR __Count$1$[ebp]
; File C:\Program Files (x86)\Microsoft Visual Studio\2019\Community\VC\Tools\MSVC\14.29.30133\include\xutility

; 4066 :     _CSTD memmove(_Dest_ch, _First_ch, _Count);

  00120	56		 push	 esi
  00121	50		 push	 eax
  00122	ff 75 08	 push	 DWORD PTR $T1[ebp]
  00125	e8 00 00 00 00	 call	 _memmove
; File C:\Program Files (x86)\Microsoft Visual Studio\2019\Community\VC\Tools\MSVC\14.29.30133\include\xmemory

; 1792 :     _CSTD memset(_First_ch, 0, static_cast<size_t>(_Last_ch - _First_ch));

  0012a	57		 push	 edi
; File C:\Program Files (x86)\Microsoft Visual Studio\2019\Community\VC\Tools\MSVC\14.29.30133\include\xutility

; 4068 :         return reinterpret_cast<_OutCtgIt>(_Dest_ch + _Count);

  0012b	8b 7d 08	 mov	 edi, DWORD PTR $T1[ebp]
; File C:\Program Files (x86)\Microsoft Visual Studio\2019\Community\VC\Tools\MSVC\14.29.30133\include\xmemory

; 1792 :     _CSTD memset(_First_ch, 0, static_cast<size_t>(_Last_ch - _First_ch));

  0012e	6a 00		 push	 0
; File C:\Program Files (x86)\Microsoft Visual Studio\2019\Community\VC\Tools\MSVC\14.29.30133\include\xutility

; 4068 :         return reinterpret_cast<_OutCtgIt>(_Dest_ch + _Count);

  00130	8d 04 3e	 lea	 eax, DWORD PTR [esi+edi]
; File C:\Program Files (x86)\Microsoft Visual Studio\2019\Community\VC\Tools\MSVC\14.29.30133\include\xmemory

; 1792 :     _CSTD memset(_First_ch, 0, static_cast<size_t>(_Last_ch - _First_ch));

  00133	50		 push	 eax
  00134	e8 00 00 00 00	 call	 _memset
  00139	8b 75 f8	 mov	 esi, DWORD PTR _this$1$[ebp]
$LN146@Growmap:
; File C:\Program Files (x86)\Microsoft Visual Studio\2019\Community\VC\Tools\MSVC\14.29.30133\include\deque

; 1463 :         if (_Map() != _Mapptr()) {

  0013c	8b 46 04	 mov	 eax, DWORD PTR [esi+4]
  0013f	83 c4 24	 add	 esp, 36			; 00000024H
  00142	85 c0		 test	 eax, eax
  00144	74 2a		 je	 SHORT $LN123@Growmap
; File C:\Program Files (x86)\Microsoft Visual Studio\2019\Community\VC\Tools\MSVC\14.29.30133\include\xmemory

; 797  :         _Deallocate<_New_alignof<_Ty>>(_Ptr, sizeof(_Ty) * _Count);

  00146	8b 4e 08	 mov	 ecx, DWORD PTR [esi+8]
  00149	c1 e1 02	 shl	 ecx, 2

; 251  :         if (_Bytes >= _Big_allocation_threshold) { // boost the alignment of big allocations to help autovectorization

  0014c	81 f9 00 10 00
	00		 cmp	 ecx, 4096		; 00001000H
  00152	72 12		 jb	 SHORT $LN133@Growmap

; 150  :     const uintptr_t _Ptr_container   = _Ptr_user[-1];

  00154	8b 50 fc	 mov	 edx, DWORD PTR [eax-4]
  00157	83 c1 23	 add	 ecx, 35			; 00000023H

; 151  : 
; 152  :     // If the following asserts, it likely means that we are performing
; 153  :     // an aligned delete on memory coming from an unaligned allocation.
; 154  :     _STL_ASSERT(_Ptr_user[-2] == _Big_allocation_sentinel, "invalid argument");
; 155  : 
; 156  :     // Extra paranoia on aligned allocation/deallocation; ensure _Ptr_container is
; 157  :     // in range [_Min_back_shift, _Non_user_size]
; 158  : #ifdef _DEBUG
; 159  :     constexpr uintptr_t _Min_back_shift = 2 * sizeof(void*);
; 160  : #else // ^^^ _DEBUG ^^^ // vvv !_DEBUG vvv
; 161  :     constexpr uintptr_t _Min_back_shift = sizeof(void*);
; 162  : #endif // _DEBUG
; 163  :     const uintptr_t _Back_shift = reinterpret_cast<uintptr_t>(_Ptr) - _Ptr_container;

  0015a	2b c2		 sub	 eax, edx

; 164  :     _STL_VERIFY(_Back_shift >= _Min_back_shift && _Back_shift <= _Non_user_size, "invalid argument");

  0015c	83 c0 fc	 add	 eax, -4			; fffffffcH
  0015f	83 f8 1f	 cmp	 eax, 31			; 0000001fH
  00162	77 1b		 ja	 SHORT $LN130@Growmap

; 165  :     _Ptr = reinterpret_cast<void*>(_Ptr_container);

  00164	8b c2		 mov	 eax, edx
$LN133@Growmap:

; 255  :         ::operator delete(_Ptr, _Bytes);

  00166	51		 push	 ecx
  00167	50		 push	 eax
  00168	e8 00 00 00 00	 call	 ??3@YAXPAXI@Z		; operator delete
  0016d	83 c4 08	 add	 esp, 8
$LN123@Growmap:
; File C:\Program Files (x86)\Microsoft Visual Studio\2019\Community\VC\Tools\MSVC\14.29.30133\include\deque

; 1468 :         _Mapsize() += _Count;

  00170	01 5e 08	 add	 DWORD PTR [esi+8], ebx
  00173	89 7e 04	 mov	 DWORD PTR [esi+4], edi
  00176	5f		 pop	 edi
  00177	5e		 pop	 esi
  00178	5b		 pop	 ebx

; 1469 :     }

  00179	8b e5		 mov	 esp, ebp
  0017b	5d		 pop	 ebp
  0017c	c2 04 00	 ret	 4
$LN130@Growmap:
; File C:\Program Files (x86)\Microsoft Visual Studio\2019\Community\VC\Tools\MSVC\14.29.30133\include\xmemory

; 164  :     _STL_VERIFY(_Back_shift >= _Min_back_shift && _Back_shift <= _Non_user_size, "invalid argument");

  0017f	ff 15 00 00 00
	00		 call	 DWORD PTR __imp___invalid_parameter_noinfo_noreturn
$LN138@Growmap:
; File C:\Program Files (x86)\Microsoft Visual Studio\2019\Community\VC\Tools\MSVC\14.29.30133\include\deque

; 1440 :                 _Xlen(); // result too long

  00185	8b ce		 mov	 ecx, esi
  00187	e8 00 00 00 00	 call	 ?_Xlen@?$deque@PAVCCoordinate@@V?$allocator@PAVCCoordinate@@@std@@@std@@ABEXXZ ; std::deque<CCoordinate *,std::allocator<CCoordinate *> >::_Xlen
$LN142@Growmap:
; File C:\Program Files (x86)\Microsoft Visual Studio\2019\Community\VC\Tools\MSVC\14.29.30133\include\xmemory

; 131  :         _Throw_bad_array_new_length(); // add overflow

  0018c	e8 00 00 00 00	 call	 ?_Throw_bad_array_new_length@std@@YAXXZ ; std::_Throw_bad_array_new_length
$LN144@Growmap:
  00191	cc		 int	 3
?_Growmap@?$deque@PAVCCoordinate@@V?$allocator@PAVCCoordinate@@@std@@@std@@AAEXI@Z ENDP ; std::deque<CCoordinate *,std::allocator<CCoordinate *> >::_Growmap
_TEXT	ENDS
; Function compile flags: /Ogtp
; File C:\Program Files (x86)\Microsoft Visual Studio\2019\Community\VC\Tools\MSVC\14.29.30133\include\deque
;	COMDAT ?_Xlen@?$deque@PAVCCoordinate@@V?$allocator@PAVCCoordinate@@@std@@@std@@ABEXXZ
_TEXT	SEGMENT
?_Xlen@?$deque@PAVCCoordinate@@V?$allocator@PAVCCoordinate@@@std@@@std@@ABEXXZ PROC ; std::deque<CCoordinate *,std::allocator<CCoordinate *> >::_Xlen, COMDAT
; _this$ = ecx

; 1425 :         _Xlength_error("deque<T> too long");

  00000	68 00 00 00 00	 push	 OFFSET ??_C@_0BC@KBDMBKEH@deque?$DMT?$DO?5too?5long@
  00005	e8 00 00 00 00	 call	 ?_Xlength_error@std@@YAXPBD@Z ; std::_Xlength_error
$LN3@Xlen:
  0000a	cc		 int	 3
?_Xlen@?$deque@PAVCCoordinate@@V?$allocator@PAVCCoordinate@@@std@@@std@@ABEXXZ ENDP ; std::deque<CCoordinate *,std::allocator<CCoordinate *> >::_Xlen
_TEXT	ENDS
; Function compile flags: /Ogtp
;	COMDAT ??1CColorButton@@UAE@XZ
_TEXT	SEGMENT
??1CColorButton@@UAE@XZ PROC				; CColorButton::~CColorButton, COMDAT
; _this$ = ecx
  00000	e9 00 00 00 00	 jmp	 ??1CButton@@UAE@XZ	; CButton::~CButton
??1CColorButton@@UAE@XZ ENDP				; CColorButton::~CColorButton
_TEXT	ENDS
; Function compile flags: /Ogtp
; File C:\Program Files (x86)\Microsoft Visual Studio\2019\Community\VC\Tools\MSVC\14.29.30133\include\exception
;	COMDAT ?_Throw_bad_array_new_length@std@@YAXXZ
_TEXT	SEGMENT
$T1 = -12						; size = 12
?_Throw_bad_array_new_length@std@@YAXXZ PROC		; std::_Throw_bad_array_new_length, COMDAT

; 315  : [[noreturn]] inline void _Throw_bad_array_new_length() {

  00000	55		 push	 ebp
  00001	8b ec		 mov	 ebp, esp
  00003	83 ec 0c	 sub	 esp, 12			; 0000000cH

; 316  :     _THROW(bad_array_new_length{});

  00006	8d 4d f4	 lea	 ecx, DWORD PTR $T1[ebp]
  00009	e8 00 00 00 00	 call	 ??0bad_array_new_length@std@@QAE@XZ ; std::bad_array_new_length::bad_array_new_length
  0000e	68 00 00 00 00	 push	 OFFSET __TI3?AVbad_array_new_length@std@@
  00013	8d 45 f4	 lea	 eax, DWORD PTR $T1[ebp]
  00016	50		 push	 eax
  00017	e8 00 00 00 00	 call	 __CxxThrowException@8
$LN3@Throw_bad_:
  0001c	cc		 int	 3
?_Throw_bad_array_new_length@std@@YAXXZ ENDP		; std::_Throw_bad_array_new_length
_TEXT	ENDS
; Function compile flags: /Ogtp
; File C:\Program Files (x86)\Microsoft Visual Studio\2019\Community\VC\Tools\MSVC\14.29.30133\include\vcruntime_exception.h
;	COMDAT ??_Gbad_array_new_length@std@@UAEPAXI@Z
_TEXT	SEGMENT
___flags$ = 8						; size = 4
??_Gbad_array_new_length@std@@UAEPAXI@Z PROC		; std::bad_array_new_length::`scalar deleting destructor', COMDAT
; _this$ = ecx
  00000	55		 push	 ebp
  00001	8b ec		 mov	 ebp, esp

; 89   :     {

  00003	56		 push	 esi
  00004	8b f1		 mov	 esi, ecx

; 90   :         __std_exception_destroy(&_Data);

  00006	8d 46 04	 lea	 eax, DWORD PTR [esi+4]
  00009	c7 06 00 00 00
	00		 mov	 DWORD PTR [esi], OFFSET ??_7exception@std@@6B@
  0000f	50		 push	 eax
  00010	e8 00 00 00 00	 call	 ___std_exception_destroy
  00015	83 c4 04	 add	 esp, 4
  00018	f6 45 08 01	 test	 BYTE PTR ___flags$[ebp], 1
  0001c	74 0b		 je	 SHORT $LN12@scalar
  0001e	6a 0c		 push	 12			; 0000000cH
  00020	56		 push	 esi
  00021	e8 00 00 00 00	 call	 ??3@YAXPAXI@Z		; operator delete
  00026	83 c4 08	 add	 esp, 8
$LN12@scalar:
  00029	8b c6		 mov	 eax, esi
  0002b	5e		 pop	 esi
  0002c	5d		 pop	 ebp
  0002d	c2 04 00	 ret	 4
??_Gbad_array_new_length@std@@UAEPAXI@Z ENDP		; std::bad_array_new_length::`scalar deleting destructor'
_TEXT	ENDS
; Function compile flags: /Ogtp
; File C:\Program Files (x86)\Microsoft Visual Studio\2019\Community\VC\Tools\MSVC\14.29.30133\include\vcruntime_exception.h
;	COMDAT ??0bad_array_new_length@std@@QAE@ABV01@@Z
_TEXT	SEGMENT
___that$ = 8						; size = 4
??0bad_array_new_length@std@@QAE@ABV01@@Z PROC		; std::bad_array_new_length::bad_array_new_length, COMDAT
; _this$ = ecx
  00000	55		 push	 ebp
  00001	8b ec		 mov	 ebp, esp

; 72   :     {

  00003	56		 push	 esi
  00004	8b f1		 mov	 esi, ecx
  00006	0f 57 c0	 xorps	 xmm0, xmm0

; 71   :         : _Data()

  00009	8d 46 04	 lea	 eax, DWORD PTR [esi+4]

; 73   :         __std_exception_copy(&_Other._Data, &_Data);

  0000c	50		 push	 eax
  0000d	c7 06 00 00 00
	00		 mov	 DWORD PTR [esi], OFFSET ??_7exception@std@@6B@
  00013	66 0f d6 00	 movq	 QWORD PTR [eax], xmm0
  00017	8b 45 08	 mov	 eax, DWORD PTR ___that$[ebp]
  0001a	83 c0 04	 add	 eax, 4
  0001d	50		 push	 eax
  0001e	e8 00 00 00 00	 call	 ___std_exception_copy
  00023	83 c4 08	 add	 esp, 8
  00026	c7 06 00 00 00
	00		 mov	 DWORD PTR [esi], OFFSET ??_7bad_array_new_length@std@@6B@
  0002c	8b c6		 mov	 eax, esi
  0002e	5e		 pop	 esi
  0002f	5d		 pop	 ebp
  00030	c2 04 00	 ret	 4
??0bad_array_new_length@std@@QAE@ABV01@@Z ENDP		; std::bad_array_new_length::bad_array_new_length
_TEXT	ENDS
; Function compile flags: /Ogtp
; File C:\Program Files (x86)\Microsoft Visual Studio\2019\Community\VC\Tools\MSVC\14.29.30133\include\vcruntime_exception.h
;	COMDAT ??1bad_array_new_length@std@@UAE@XZ
_TEXT	SEGMENT
??1bad_array_new_length@std@@UAE@XZ PROC		; std::bad_array_new_length::~bad_array_new_length, COMDAT
; _this$ = ecx

; 90   :         __std_exception_destroy(&_Data);

  00000	8d 41 04	 lea	 eax, DWORD PTR [ecx+4]
  00003	c7 01 00 00 00
	00		 mov	 DWORD PTR [ecx], OFFSET ??_7exception@std@@6B@
  00009	50		 push	 eax
  0000a	e8 00 00 00 00	 call	 ___std_exception_destroy
  0000f	59		 pop	 ecx
  00010	c3		 ret	 0
??1bad_array_new_length@std@@UAE@XZ ENDP		; std::bad_array_new_length::~bad_array_new_length
_TEXT	ENDS
; Function compile flags: /Ogtp
; File C:\Program Files (x86)\Microsoft Visual Studio\2019\Community\VC\Tools\MSVC\14.29.30133\include\vcruntime_exception.h
;	COMDAT ??0bad_array_new_length@std@@QAE@XZ
_TEXT	SEGMENT
??0bad_array_new_length@std@@QAE@XZ PROC		; std::bad_array_new_length::bad_array_new_length, COMDAT
; _this$ = ecx

; 141  :     {

  00000	0f 57 c0	 xorps	 xmm0, xmm0

; 142  :     }

  00003	8b c1		 mov	 eax, ecx

; 65   :         : _Data()

  00005	66 0f d6 41 04	 movq	 QWORD PTR [ecx+4], xmm0

; 66   :     {
; 67   :         _Data._What = _Message;

  0000a	c7 41 04 00 00
	00 00		 mov	 DWORD PTR [ecx+4], OFFSET ??_C@_0BF@KINCDENJ@bad?5array?5new?5length@

; 141  :     {

  00011	c7 01 00 00 00
	00		 mov	 DWORD PTR [ecx], OFFSET ??_7bad_array_new_length@std@@6B@

; 142  :     }

  00017	c3		 ret	 0
??0bad_array_new_length@std@@QAE@XZ ENDP		; std::bad_array_new_length::bad_array_new_length
_TEXT	ENDS
; Function compile flags: /Ogtp
; File C:\Program Files (x86)\Microsoft Visual Studio\2019\Community\VC\Tools\MSVC\14.29.30133\include\vcruntime_exception.h
;	COMDAT ??_Gbad_alloc@std@@UAEPAXI@Z
_TEXT	SEGMENT
___flags$ = 8						; size = 4
??_Gbad_alloc@std@@UAEPAXI@Z PROC			; std::bad_alloc::`scalar deleting destructor', COMDAT
; _this$ = ecx
  00000	55		 push	 ebp
  00001	8b ec		 mov	 ebp, esp

; 89   :     {

  00003	56		 push	 esi
  00004	8b f1		 mov	 esi, ecx

; 90   :         __std_exception_destroy(&_Data);

  00006	8d 46 04	 lea	 eax, DWORD PTR [esi+4]
  00009	c7 06 00 00 00
	00		 mov	 DWORD PTR [esi], OFFSET ??_7exception@std@@6B@
  0000f	50		 push	 eax
  00010	e8 00 00 00 00	 call	 ___std_exception_destroy
  00015	83 c4 04	 add	 esp, 4
  00018	f6 45 08 01	 test	 BYTE PTR ___flags$[ebp], 1
  0001c	74 0b		 je	 SHORT $LN9@scalar
  0001e	6a 0c		 push	 12			; 0000000cH
  00020	56		 push	 esi
  00021	e8 00 00 00 00	 call	 ??3@YAXPAXI@Z		; operator delete
  00026	83 c4 08	 add	 esp, 8
$LN9@scalar:
  00029	8b c6		 mov	 eax, esi
  0002b	5e		 pop	 esi
  0002c	5d		 pop	 ebp
  0002d	c2 04 00	 ret	 4
??_Gbad_alloc@std@@UAEPAXI@Z ENDP			; std::bad_alloc::`scalar deleting destructor'
_TEXT	ENDS
; Function compile flags: /Ogtp
; File C:\Program Files (x86)\Microsoft Visual Studio\2019\Community\VC\Tools\MSVC\14.29.30133\include\vcruntime_exception.h
;	COMDAT ??0bad_alloc@std@@QAE@ABV01@@Z
_TEXT	SEGMENT
___that$ = 8						; size = 4
??0bad_alloc@std@@QAE@ABV01@@Z PROC			; std::bad_alloc::bad_alloc, COMDAT
; _this$ = ecx
  00000	55		 push	 ebp
  00001	8b ec		 mov	 ebp, esp

; 72   :     {

  00003	56		 push	 esi
  00004	8b f1		 mov	 esi, ecx
  00006	0f 57 c0	 xorps	 xmm0, xmm0

; 71   :         : _Data()

  00009	8d 46 04	 lea	 eax, DWORD PTR [esi+4]

; 73   :         __std_exception_copy(&_Other._Data, &_Data);

  0000c	50		 push	 eax
  0000d	c7 06 00 00 00
	00		 mov	 DWORD PTR [esi], OFFSET ??_7exception@std@@6B@
  00013	66 0f d6 00	 movq	 QWORD PTR [eax], xmm0
  00017	8b 45 08	 mov	 eax, DWORD PTR ___that$[ebp]
  0001a	83 c0 04	 add	 eax, 4
  0001d	50		 push	 eax
  0001e	e8 00 00 00 00	 call	 ___std_exception_copy
  00023	83 c4 08	 add	 esp, 8
  00026	c7 06 00 00 00
	00		 mov	 DWORD PTR [esi], OFFSET ??_7bad_alloc@std@@6B@
  0002c	8b c6		 mov	 eax, esi
  0002e	5e		 pop	 esi
  0002f	5d		 pop	 ebp
  00030	c2 04 00	 ret	 4
??0bad_alloc@std@@QAE@ABV01@@Z ENDP			; std::bad_alloc::bad_alloc
_TEXT	ENDS
; Function compile flags: /Ogtp
; File C:\Program Files (x86)\Microsoft Visual Studio\2019\Community\VC\Tools\MSVC\14.29.30133\include\vcruntime_exception.h
;	COMDAT ??_Gexception@std@@UAEPAXI@Z
_TEXT	SEGMENT
___flags$ = 8						; size = 4
??_Gexception@std@@UAEPAXI@Z PROC			; std::exception::`scalar deleting destructor', COMDAT
; _this$ = ecx
  00000	55		 push	 ebp
  00001	8b ec		 mov	 ebp, esp

; 89   :     {

  00003	56		 push	 esi
  00004	8b f1		 mov	 esi, ecx

; 90   :         __std_exception_destroy(&_Data);

  00006	8d 46 04	 lea	 eax, DWORD PTR [esi+4]
  00009	c7 06 00 00 00
	00		 mov	 DWORD PTR [esi], OFFSET ??_7exception@std@@6B@
  0000f	50		 push	 eax
  00010	e8 00 00 00 00	 call	 ___std_exception_destroy
  00015	83 c4 04	 add	 esp, 4
  00018	f6 45 08 01	 test	 BYTE PTR ___flags$[ebp], 1
  0001c	74 0b		 je	 SHORT $LN6@scalar
  0001e	6a 0c		 push	 12			; 0000000cH
  00020	56		 push	 esi
  00021	e8 00 00 00 00	 call	 ??3@YAXPAXI@Z		; operator delete
  00026	83 c4 08	 add	 esp, 8
$LN6@scalar:
  00029	8b c6		 mov	 eax, esi
  0002b	5e		 pop	 esi
  0002c	5d		 pop	 ebp
  0002d	c2 04 00	 ret	 4
??_Gexception@std@@UAEPAXI@Z ENDP			; std::exception::`scalar deleting destructor'
_TEXT	ENDS
; Function compile flags: /Ogtp
; File C:\Program Files (x86)\Microsoft Visual Studio\2019\Community\VC\Tools\MSVC\14.29.30133\include\vcruntime_exception.h
;	COMDAT ?what@exception@std@@UBEPBDXZ
_TEXT	SEGMENT
?what@exception@std@@UBEPBDXZ PROC			; std::exception::what, COMDAT
; _this$ = ecx

; 95   :         return _Data._What ? _Data._What : "Unknown exception";

  00000	8b 49 04	 mov	 ecx, DWORD PTR [ecx+4]
  00003	b8 00 00 00 00	 mov	 eax, OFFSET ??_C@_0BC@EOODALEL@Unknown?5exception@
  00008	85 c9		 test	 ecx, ecx
  0000a	0f 45 c1	 cmovne	 eax, ecx

; 96   :     }

  0000d	c3		 ret	 0
?what@exception@std@@UBEPBDXZ ENDP			; std::exception::what
_TEXT	ENDS
; Function compile flags: /Ogtp
; File C:\Program Files (x86)\Microsoft Visual Studio\2019\Community\VC\Tools\MSVC\14.29.30133\include\vcruntime_exception.h
;	COMDAT ??1exception@std@@UAE@XZ
_TEXT	SEGMENT
??1exception@std@@UAE@XZ PROC				; std::exception::~exception, COMDAT
; _this$ = ecx

; 90   :         __std_exception_destroy(&_Data);

  00000	8d 41 04	 lea	 eax, DWORD PTR [ecx+4]
  00003	c7 01 00 00 00
	00		 mov	 DWORD PTR [ecx], OFFSET ??_7exception@std@@6B@
  00009	50		 push	 eax
  0000a	e8 00 00 00 00	 call	 ___std_exception_destroy
  0000f	59		 pop	 ecx

; 91   :     }

  00010	c3		 ret	 0
??1exception@std@@UAE@XZ ENDP				; std::exception::~exception
_TEXT	ENDS
; Function compile flags: /Ogtp
; File C:\Program Files (x86)\Microsoft Visual Studio\2019\Community\VC\Tools\MSVC\14.29.30133\include\vcruntime_exception.h
;	COMDAT ??0exception@std@@QAE@ABV01@@Z
_TEXT	SEGMENT
__Other$ = 8						; size = 4
??0exception@std@@QAE@ABV01@@Z PROC			; std::exception::exception, COMDAT
; _this$ = ecx

; 72   :     {

  00000	55		 push	 ebp
  00001	8b ec		 mov	 ebp, esp
  00003	56		 push	 esi
  00004	8b f1		 mov	 esi, ecx
  00006	0f 57 c0	 xorps	 xmm0, xmm0
  00009	8d 46 04	 lea	 eax, DWORD PTR [esi+4]

; 73   :         __std_exception_copy(&_Other._Data, &_Data);

  0000c	50		 push	 eax
  0000d	c7 06 00 00 00
	00		 mov	 DWORD PTR [esi], OFFSET ??_7exception@std@@6B@
  00013	66 0f d6 00	 movq	 QWORD PTR [eax], xmm0
  00017	8b 45 08	 mov	 eax, DWORD PTR __Other$[ebp]
  0001a	83 c0 04	 add	 eax, 4
  0001d	50		 push	 eax
  0001e	e8 00 00 00 00	 call	 ___std_exception_copy
  00023	83 c4 08	 add	 esp, 8

; 74   :     }

  00026	8b c6		 mov	 eax, esi
  00028	5e		 pop	 esi
  00029	5d		 pop	 ebp
  0002a	c2 04 00	 ret	 4
??0exception@std@@QAE@ABV01@@Z ENDP			; std::exception::exception
_TEXT	ENDS
; Function compile flags: /Ogtp
; File C:\Program Files (x86)\Microsoft Visual Studio\2019\Community\VC\Tools\MSVC\14.29.30133\atlmfc\include\afx.inl
;	COMDAT ??_GCDateTimeCtrl@@UAEPAXI@Z
_TEXT	SEGMENT
___flags$ = 8						; size = 4
??_GCDateTimeCtrl@@UAEPAXI@Z PROC			; CDateTimeCtrl::`scalar deleting destructor', COMDAT
; _this$ = ecx
  00000	55		 push	 ebp
  00001	8b ec		 mov	 ebp, esp
  00003	56		 push	 esi
  00004	8b f1		 mov	 esi, ecx
  00006	e8 00 00 00 00	 call	 ??1CDateTimeCtrl@@UAE@XZ ; CDateTimeCtrl::~CDateTimeCtrl
  0000b	8b 45 08	 mov	 eax, DWORD PTR ___flags$[ebp]
  0000e	a8 01		 test	 al, 1
  00010	74 22		 je	 SHORT $LN9@scalar
  00012	a8 04		 test	 al, 4
  00014	75 10		 jne	 SHORT $LN3@scalar

; 112  : 	{ ::operator delete(p); }

  00016	56		 push	 esi
  00017	e8 00 00 00 00	 call	 ??3@YAXPAX@Z		; operator delete
  0001c	83 c4 04	 add	 esp, 4
  0001f	8b c6		 mov	 eax, esi
  00021	5e		 pop	 esi
  00022	5d		 pop	 ebp
  00023	c2 04 00	 ret	 4
$LN3@scalar:
  00026	68 80 00 00 00	 push	 128			; 00000080H
  0002b	56		 push	 esi
  0002c	e8 00 00 00 00	 call	 ?__global_delete@@YAXPAXI@Z ; __global_delete
  00031	83 c4 08	 add	 esp, 8
$LN9@scalar:
  00034	8b c6		 mov	 eax, esi
  00036	5e		 pop	 esi
  00037	5d		 pop	 ebp
  00038	c2 04 00	 ret	 4
??_GCDateTimeCtrl@@UAEPAXI@Z ENDP			; CDateTimeCtrl::`scalar deleting destructor'
_TEXT	ENDS
; Function compile flags: /Ogtp
; File C:\Program Files (x86)\Microsoft Visual Studio\2019\Community\VC\Tools\MSVC\14.29.30133\atlmfc\include\afxdlgs.h
;	COMDAT ??1CColorDialog@@UAE@XZ
_TEXT	SEGMENT
??1CColorDialog@@UAE@XZ PROC				; CColorDialog::~CColorDialog, COMDAT
; _this$ = ecx

; 110  :     virtual ~CCommonDialog() {};

  00000	c7 01 00 00 00
	00		 mov	 DWORD PTR [ecx], OFFSET ??_7CCommonDialog@@6B@
  00006	e9 00 00 00 00	 jmp	 ??1CDialog@@UAE@XZ	; CDialog::~CDialog
??1CColorDialog@@UAE@XZ ENDP				; CColorDialog::~CColorDialog
_TEXT	ENDS
; Function compile flags: /Ogtp
; File C:\Program Files (x86)\Microsoft Visual Studio\2019\Community\VC\Tools\MSVC\14.29.30133\atlmfc\include\afxdlgs.h
; File C:\Program Files (x86)\Microsoft Visual Studio\2019\Community\VC\Tools\MSVC\14.29.30133\atlmfc\include\afx.inl
;	COMDAT ??_GCCommonDialog@@UAEPAXI@Z
_TEXT	SEGMENT
___flags$ = 8						; size = 4
??_GCCommonDialog@@UAEPAXI@Z PROC			; CCommonDialog::`scalar deleting destructor', COMDAT
; _this$ = ecx
  00000	55		 push	 ebp
  00001	8b ec		 mov	 ebp, esp
; File C:\Program Files (x86)\Microsoft Visual Studio\2019\Community\VC\Tools\MSVC\14.29.30133\atlmfc\include\afxdlgs.h

; 110  :     virtual ~CCommonDialog() {};

  00003	56		 push	 esi
  00004	8b f1		 mov	 esi, ecx
  00006	c7 06 00 00 00
	00		 mov	 DWORD PTR [esi], OFFSET ??_7CCommonDialog@@6B@
  0000c	e8 00 00 00 00	 call	 ??1CDialog@@UAE@XZ	; CDialog::~CDialog
  00011	8b 45 08	 mov	 eax, DWORD PTR ___flags$[ebp]
  00014	a8 01		 test	 al, 1
  00016	74 22		 je	 SHORT $LN12@scalar
  00018	a8 04		 test	 al, 4
  0001a	75 10		 jne	 SHORT $LN3@scalar
; File C:\Program Files (x86)\Microsoft Visual Studio\2019\Community\VC\Tools\MSVC\14.29.30133\atlmfc\include\afx.inl

; 112  : 	{ ::operator delete(p); }

  0001c	56		 push	 esi
  0001d	e8 00 00 00 00	 call	 ??3@YAXPAX@Z		; operator delete
  00022	83 c4 04	 add	 esp, 4
  00025	8b c6		 mov	 eax, esi
  00027	5e		 pop	 esi
  00028	5d		 pop	 ebp
  00029	c2 04 00	 ret	 4
$LN3@scalar:
  0002c	68 a8 00 00 00	 push	 168			; 000000a8H
  00031	56		 push	 esi
  00032	e8 00 00 00 00	 call	 ?__global_delete@@YAXPAXI@Z ; __global_delete
  00037	83 c4 08	 add	 esp, 8
$LN12@scalar:
  0003a	8b c6		 mov	 eax, esi
  0003c	5e		 pop	 esi
  0003d	5d		 pop	 ebp
  0003e	c2 04 00	 ret	 4
??_GCCommonDialog@@UAEPAXI@Z ENDP			; CCommonDialog::`scalar deleting destructor'
_TEXT	ENDS
; Function compile flags: /Ogtp
; File C:\Program Files (x86)\Microsoft Visual Studio\2019\Community\VC\Tools\MSVC\14.29.30133\atlmfc\include\afxdlgs.h
;	COMDAT ??1CCommonDialog@@UAE@XZ
_TEXT	SEGMENT
??1CCommonDialog@@UAE@XZ PROC				; CCommonDialog::~CCommonDialog, COMDAT
; _this$ = ecx

; 110  :     virtual ~CCommonDialog() {};

  00000	c7 01 00 00 00
	00		 mov	 DWORD PTR [ecx], OFFSET ??_7CCommonDialog@@6B@
  00006	e9 00 00 00 00	 jmp	 ??1CDialog@@UAE@XZ	; CDialog::~CDialog
??1CCommonDialog@@UAE@XZ ENDP				; CCommonDialog::~CCommonDialog
_TEXT	ENDS
; Function compile flags: /Ogtp
; File C:\Program Files (x86)\Microsoft Visual Studio\2019\Community\VC\Tools\MSVC\14.29.30133\atlmfc\include\afx.inl
;	COMDAT ??_GCEdit@@UAEPAXI@Z
_TEXT	SEGMENT
___flags$ = 8						; size = 4
??_GCEdit@@UAEPAXI@Z PROC				; CEdit::`scalar deleting destructor', COMDAT
; _this$ = ecx
  00000	55		 push	 ebp
  00001	8b ec		 mov	 ebp, esp
  00003	56		 push	 esi
  00004	8b f1		 mov	 esi, ecx
  00006	e8 00 00 00 00	 call	 ??1CEdit@@UAE@XZ	; CEdit::~CEdit
  0000b	8b 45 08	 mov	 eax, DWORD PTR ___flags$[ebp]
  0000e	a8 01		 test	 al, 1
  00010	74 22		 je	 SHORT $LN9@scalar
  00012	a8 04		 test	 al, 4
  00014	75 10		 jne	 SHORT $LN3@scalar

; 112  : 	{ ::operator delete(p); }

  00016	56		 push	 esi
  00017	e8 00 00 00 00	 call	 ??3@YAXPAX@Z		; operator delete
  0001c	83 c4 04	 add	 esp, 4
  0001f	8b c6		 mov	 eax, esi
  00021	5e		 pop	 esi
  00022	5d		 pop	 ebp
  00023	c2 04 00	 ret	 4
$LN3@scalar:
  00026	68 80 00 00 00	 push	 128			; 00000080H
  0002b	56		 push	 esi
  0002c	e8 00 00 00 00	 call	 ?__global_delete@@YAXPAXI@Z ; __global_delete
  00031	83 c4 08	 add	 esp, 8
$LN9@scalar:
  00034	8b c6		 mov	 eax, esi
  00036	5e		 pop	 esi
  00037	5d		 pop	 ebp
  00038	c2 04 00	 ret	 4
??_GCEdit@@UAEPAXI@Z ENDP				; CEdit::`scalar deleting destructor'
_TEXT	ENDS
; Function compile flags: /Ogtp
; File C:\Program Files (x86)\Microsoft Visual Studio\2019\Community\VC\Tools\MSVC\14.29.30133\atlmfc\include\afx.inl
;	COMDAT ??_GCButton@@UAEPAXI@Z
_TEXT	SEGMENT
___flags$ = 8						; size = 4
??_GCButton@@UAEPAXI@Z PROC				; CButton::`scalar deleting destructor', COMDAT
; _this$ = ecx
  00000	55		 push	 ebp
  00001	8b ec		 mov	 ebp, esp
  00003	56		 push	 esi
  00004	8b f1		 mov	 esi, ecx
  00006	e8 00 00 00 00	 call	 ??1CButton@@UAE@XZ	; CButton::~CButton
  0000b	8b 45 08	 mov	 eax, DWORD PTR ___flags$[ebp]
  0000e	a8 01		 test	 al, 1
  00010	74 22		 je	 SHORT $LN9@scalar
  00012	a8 04		 test	 al, 4
  00014	75 10		 jne	 SHORT $LN3@scalar

; 112  : 	{ ::operator delete(p); }

  00016	56		 push	 esi
  00017	e8 00 00 00 00	 call	 ??3@YAXPAX@Z		; operator delete
  0001c	83 c4 04	 add	 esp, 4
  0001f	8b c6		 mov	 eax, esi
  00021	5e		 pop	 esi
  00022	5d		 pop	 ebp
  00023	c2 04 00	 ret	 4
$LN3@scalar:
  00026	68 80 00 00 00	 push	 128			; 00000080H
  0002b	56		 push	 esi
  0002c	e8 00 00 00 00	 call	 ?__global_delete@@YAXPAXI@Z ; __global_delete
  00031	83 c4 08	 add	 esp, 8
$LN9@scalar:
  00034	8b c6		 mov	 eax, esi
  00036	5e		 pop	 esi
  00037	5d		 pop	 ebp
  00038	c2 04 00	 ret	 4
??_GCButton@@UAEPAXI@Z ENDP				; CButton::`scalar deleting destructor'
_TEXT	ENDS
; Function compile flags: /Ogtp
; File C:\Program Files (x86)\Microsoft Visual Studio\2019\Community\VC\Tools\MSVC\14.29.30133\atlmfc\include\afxwin2.inl
;	COMDAT ?Create@CDialog@@UAEHIPAVCWnd@@@Z
_TEXT	SEGMENT
_nIDTemplate$ = 8					; size = 4
_pParentWnd$ = 12					; size = 4
?Create@CDialog@@UAEHIPAVCWnd@@@Z PROC			; CDialog::Create, COMDAT
; _this$ = ecx

; 585  : 	{ return CDialog::Create(ATL_MAKEINTRESOURCE(nIDTemplate), pParentWnd); }

  00000	55		 push	 ebp
  00001	8b ec		 mov	 ebp, esp
  00003	0f b7 45 08	 movzx	 eax, WORD PTR _nIDTemplate$[ebp]
  00007	89 45 08	 mov	 DWORD PTR _nIDTemplate$[ebp], eax
  0000a	5d		 pop	 ebp
  0000b	e9 00 00 00 00	 jmp	 ?Create@CDialog@@UAEHPBDPAVCWnd@@@Z ; CDialog::Create
?Create@CDialog@@UAEHIPAVCWnd@@@Z ENDP			; CDialog::Create
_TEXT	ENDS
; Function compile flags: /Ogtp
; File C:\Program Files (x86)\Microsoft Visual Studio\2019\Community\VC\Tools\MSVC\14.29.30133\atlmfc\include\afxwin2.inl
;	COMDAT ?EndModalState@CWnd@@UAEXXZ
_TEXT	SEGMENT
?EndModalState@CWnd@@UAEXXZ PROC			; CWnd::EndModalState, COMDAT
; _this$ = ecx

; 567  : 	{ ::EnableWindow(m_hWnd, TRUE); }

  00000	6a 01		 push	 1
  00002	ff 71 20	 push	 DWORD PTR [ecx+32]
  00005	ff 15 00 00 00
	00		 call	 DWORD PTR __imp__EnableWindow@8
  0000b	c3		 ret	 0
?EndModalState@CWnd@@UAEXXZ ENDP			; CWnd::EndModalState
_TEXT	ENDS
; Function compile flags: /Ogtp
; File C:\Program Files (x86)\Microsoft Visual Studio\2019\Community\VC\Tools\MSVC\14.29.30133\atlmfc\include\afxwin2.inl
;	COMDAT ?BeginModalState@CWnd@@UAEXXZ
_TEXT	SEGMENT
?BeginModalState@CWnd@@UAEXXZ PROC			; CWnd::BeginModalState, COMDAT
; _this$ = ecx

; 565  : 	{ ::EnableWindow(m_hWnd, FALSE); }

  00000	6a 00		 push	 0
  00002	ff 71 20	 push	 DWORD PTR [ecx+32]
  00005	ff 15 00 00 00
	00		 call	 DWORD PTR __imp__EnableWindow@8
  0000b	c3		 ret	 0
?BeginModalState@CWnd@@UAEXXZ ENDP			; CWnd::BeginModalState
_TEXT	ENDS
; Function compile flags: /Ogtp
; File C:\Program Files (x86)\Microsoft Visual Studio\2019\Community\VC\Tools\MSVC\14.29.30133\atlmfc\include\afxwin2.inl
;	COMDAT ?DoDataExchange@CWnd@@MAEXPAVCDataExchange@@@Z
_TEXT	SEGMENT
___formal$ = 8						; size = 4
?DoDataExchange@CWnd@@MAEXPAVCDataExchange@@@Z PROC	; CWnd::DoDataExchange, COMDAT
; _this$ = ecx

; 561  : 	{ } // default does nothing

  00000	c2 04 00	 ret	 4
?DoDataExchange@CWnd@@MAEXPAVCDataExchange@@@Z ENDP	; CWnd::DoDataExchange
_TEXT	ENDS
; Function compile flags: /Ogtp
; File C:\Program Files (x86)\Microsoft Visual Studio\2019\Community\VC\Tools\MSVC\14.29.30133\atlmfc\include\afxwin1.inl
; File C:\Program Files (x86)\Microsoft Visual Studio\2019\Community\VC\Tools\MSVC\14.29.30133\atlmfc\include\afx.inl
;	COMDAT ??_GCBitmap@@UAEPAXI@Z
_TEXT	SEGMENT
___flags$ = 8						; size = 4
??_GCBitmap@@UAEPAXI@Z PROC				; CBitmap::`scalar deleting destructor', COMDAT
; _this$ = ecx
  00000	55		 push	 ebp
  00001	8b ec		 mov	 ebp, esp
; File C:\Program Files (x86)\Microsoft Visual Studio\2019\Community\VC\Tools\MSVC\14.29.30133\atlmfc\include\afxwin1.inl

; 179  : 	{ }

  00003	56		 push	 esi
  00004	8b f1		 mov	 esi, ecx
  00006	c7 06 00 00 00
	00		 mov	 DWORD PTR [esi], OFFSET ??_7CBitmap@@6B@
  0000c	e8 00 00 00 00	 call	 ??1CGdiObject@@UAE@XZ	; CGdiObject::~CGdiObject
  00011	8b 45 08	 mov	 eax, DWORD PTR ___flags$[ebp]
  00014	a8 01		 test	 al, 1
  00016	74 1f		 je	 SHORT $LN12@scalar
  00018	a8 04		 test	 al, 4
  0001a	75 10		 jne	 SHORT $LN3@scalar
; File C:\Program Files (x86)\Microsoft Visual Studio\2019\Community\VC\Tools\MSVC\14.29.30133\atlmfc\include\afx.inl

; 112  : 	{ ::operator delete(p); }

  0001c	56		 push	 esi
  0001d	e8 00 00 00 00	 call	 ??3@YAXPAX@Z		; operator delete
  00022	83 c4 04	 add	 esp, 4
  00025	8b c6		 mov	 eax, esi
  00027	5e		 pop	 esi
  00028	5d		 pop	 ebp
  00029	c2 04 00	 ret	 4
$LN3@scalar:
  0002c	6a 08		 push	 8
  0002e	56		 push	 esi
  0002f	e8 00 00 00 00	 call	 ?__global_delete@@YAXPAXI@Z ; __global_delete
  00034	83 c4 08	 add	 esp, 8
$LN12@scalar:
  00037	8b c6		 mov	 eax, esi
  00039	5e		 pop	 esi
  0003a	5d		 pop	 ebp
  0003b	c2 04 00	 ret	 4
??_GCBitmap@@UAEPAXI@Z ENDP				; CBitmap::`scalar deleting destructor'
_TEXT	ENDS
; Function compile flags: /Ogtp
; File C:\Program Files (x86)\Microsoft Visual Studio\2019\Community\VC\Tools\MSVC\14.29.30133\atlmfc\include\afxwin1.inl
;	COMDAT ??1CBitmap@@UAE@XZ
_TEXT	SEGMENT
??1CBitmap@@UAE@XZ PROC					; CBitmap::~CBitmap, COMDAT
; _this$ = ecx

; 179  : 	{ }

  00000	c7 01 00 00 00
	00		 mov	 DWORD PTR [ecx], OFFSET ??_7CBitmap@@6B@
  00006	e9 00 00 00 00	 jmp	 ??1CGdiObject@@UAE@XZ	; CGdiObject::~CGdiObject
??1CBitmap@@UAE@XZ ENDP					; CBitmap::~CBitmap
_TEXT	ENDS
; Function compile flags: /Ogtp
; File C:\Program Files (x86)\Microsoft Visual Studio\2019\Community\VC\Tools\MSVC\14.29.30133\atlmfc\include\afx.inl
;	COMDAT ??_GCGdiObject@@UAEPAXI@Z
_TEXT	SEGMENT
___flags$ = 8						; size = 4
??_GCGdiObject@@UAEPAXI@Z PROC				; CGdiObject::`scalar deleting destructor', COMDAT
; _this$ = ecx
  00000	55		 push	 ebp
  00001	8b ec		 mov	 ebp, esp
  00003	56		 push	 esi
  00004	8b f1		 mov	 esi, ecx
  00006	e8 00 00 00 00	 call	 ??1CGdiObject@@UAE@XZ	; CGdiObject::~CGdiObject
  0000b	8b 45 08	 mov	 eax, DWORD PTR ___flags$[ebp]
  0000e	a8 01		 test	 al, 1
  00010	74 1f		 je	 SHORT $LN9@scalar
  00012	a8 04		 test	 al, 4
  00014	75 10		 jne	 SHORT $LN3@scalar

; 112  : 	{ ::operator delete(p); }

  00016	56		 push	 esi
  00017	e8 00 00 00 00	 call	 ??3@YAXPAX@Z		; operator delete
  0001c	83 c4 04	 add	 esp, 4
  0001f	8b c6		 mov	 eax, esi
  00021	5e		 pop	 esi
  00022	5d		 pop	 ebp
  00023	c2 04 00	 ret	 4
$LN3@scalar:
  00026	6a 08		 push	 8
  00028	56		 push	 esi
  00029	e8 00 00 00 00	 call	 ?__global_delete@@YAXPAXI@Z ; __global_delete
  0002e	83 c4 08	 add	 esp, 8
$LN9@scalar:
  00031	8b c6		 mov	 eax, esi
  00033	5e		 pop	 esi
  00034	5d		 pop	 ebp
  00035	c2 04 00	 ret	 4
??_GCGdiObject@@UAEPAXI@Z ENDP				; CGdiObject::`scalar deleting destructor'
_TEXT	ENDS
; Function compile flags: /Ogtp
; File C:\Program Files (x86)\Microsoft Visual Studio\2019\Community\VC\Tools\MSVC\14.29.30133\atlmfc\include\afxwin1.inl
;	COMDAT ??1CGdiObject@@UAE@XZ
_TEXT	SEGMENT
_pException$2 = -540					; size = 4
_strMsg$3 = -536					; size = 4
_szErrorMessage$4 = -532				; size = 512
__$ArrayPad$ = -20					; size = 4
__$EHRec$ = -16						; size = 16
??1CGdiObject@@UAE@XZ PROC				; CGdiObject::~CGdiObject, COMDAT
; _this$ = ecx

; 74   : {

  00000	55		 push	 ebp
  00001	8b ec		 mov	 ebp, esp
  00003	6a ff		 push	 -1
  00005	68 00 00 00 00	 push	 __ehhandler$??1CGdiObject@@UAE@XZ
  0000a	64 a1 00 00 00
	00		 mov	 eax, DWORD PTR fs:0
  00010	50		 push	 eax
  00011	81 ec 10 02 00
	00		 sub	 esp, 528		; 00000210H
  00017	a1 00 00 00 00	 mov	 eax, DWORD PTR ___security_cookie
  0001c	33 c5		 xor	 eax, ebp
  0001e	89 45 ec	 mov	 DWORD PTR __$ArrayPad$[ebp], eax
  00021	53		 push	 ebx
  00022	56		 push	 esi
  00023	57		 push	 edi
  00024	50		 push	 eax
  00025	8d 45 f4	 lea	 eax, DWORD PTR __$EHRec$[ebp+4]
  00028	64 a3 00 00 00
	00		 mov	 DWORD PTR fs:0, eax
  0002e	89 65 f0	 mov	 DWORD PTR __$EHRec$[ebp], esp
  00031	c7 01 00 00 00
	00		 mov	 DWORD PTR [ecx], OFFSET ??_7CGdiObject@@6B@

; 75   : 	AFX_BEGIN_DESTRUCTOR

  00037	c7 45 fc 00 00
	00 00		 mov	 DWORD PTR __$EHRec$[ebp+12], 0

; 76   : 	DeleteObject();

  0003e	e8 00 00 00 00	 call	 ?DeleteObject@CGdiObject@@QAEHXZ ; CGdiObject::DeleteObject
$LN18@CGdiObject:

; 78   : }

  00043	8b 4d f4	 mov	 ecx, DWORD PTR __$EHRec$[ebp+4]
  00046	64 89 0d 00 00
	00 00		 mov	 DWORD PTR fs:0, ecx
  0004d	59		 pop	 ecx
  0004e	5f		 pop	 edi
  0004f	5e		 pop	 esi
  00050	5b		 pop	 ebx
  00051	8b 4d ec	 mov	 ecx, DWORD PTR __$ArrayPad$[ebp]
  00054	33 cd		 xor	 ecx, ebp
  00056	e8 00 00 00 00	 call	 @__security_check_cookie@4
  0005b	8b e5		 mov	 esp, ebp
  0005d	5d		 pop	 ebp
  0005e	c3		 ret	 0
__catch$??1CGdiObject@@UAE@XZ$0:

; 77   : 	AFX_END_DESTRUCTOR

  0005f	8d 8d e8 fd ff
	ff		 lea	 ecx, DWORD PTR _strMsg$3[ebp]
  00065	ff 15 00 00 00
	00		 call	 DWORD PTR __imp_??0?$CStringT@DV?$StrTraitMFC_DLL@DV?$ChTraitsCRT@D@ATL@@@@@ATL@@QAE@XZ
  0006b	8b b5 e4 fd ff
	ff		 mov	 esi, DWORD PTR _pException$2[ebp]
  00071	8d 8d ec fd ff
	ff		 lea	 ecx, DWORD PTR _szErrorMessage$4[ebp]
  00077	6a 00		 push	 0
  00079	68 00 02 00 00	 push	 512			; 00000200H
  0007e	51		 push	 ecx
  0007f	8b 06		 mov	 eax, DWORD PTR [esi]
  00081	8b ce		 mov	 ecx, esi
  00083	c6 45 fc 02	 mov	 BYTE PTR __$EHRec$[ebp+12], 2
  00087	ff 50 14	 call	 DWORD PTR [eax+20]
  0008a	85 c0		 test	 eax, eax
  0008c	74 2a		 je	 SHORT $LN9@CGdiObject
  0008e	8d 85 ec fd ff
	ff		 lea	 eax, DWORD PTR _szErrorMessage$4[ebp]
  00094	50		 push	 eax
  00095	6a 4d		 push	 77			; 0000004dH
  00097	68 00 00 00 00	 push	 OFFSET ??_C@_0HD@JJCHHHNK@C?3?2Program?5Files?5?$CIx86?$CJ?2Microsof@
  0009c	68 00 00 00 00	 push	 OFFSET ??_C@_0BP@OIEOKIDM@Exception?5thrown?5in?5destructor@
  000a1	8d 85 e8 fd ff
	ff		 lea	 eax, DWORD PTR _strMsg$3[ebp]
  000a7	68 00 00 00 00	 push	 OFFSET ??_C@_0BB@HBOOMJBF@?$CFTs?5?$CI?$CFTs?3?$CFd?$CJ?6?$CFTs@
  000ac	50		 push	 eax
  000ad	ff 15 00 00 00
	00		 call	 DWORD PTR __imp_?Format@?$CStringT@DV?$StrTraitMFC_DLL@DV?$ChTraitsCRT@D@ATL@@@@@ATL@@QAAXPBDZZ
  000b3	83 c4 18	 add	 esp, 24			; 00000018H
  000b6	eb 21		 jmp	 SHORT $LN10@CGdiObject
$LN9@CGdiObject:
  000b8	6a 4d		 push	 77			; 0000004dH
  000ba	68 00 00 00 00	 push	 OFFSET ??_C@_0HD@JJCHHHNK@C?3?2Program?5Files?5?$CIx86?$CJ?2Microsof@
  000bf	68 00 00 00 00	 push	 OFFSET ??_C@_0BP@OIEOKIDM@Exception?5thrown?5in?5destructor@
  000c4	8d 85 e8 fd ff
	ff		 lea	 eax, DWORD PTR _strMsg$3[ebp]
  000ca	68 00 00 00 00	 push	 OFFSET ??_C@_0N@OMEMOKLE@?$CFTs?5?$CI?$CFTs?3?$CFd?$CJ@
  000cf	50		 push	 eax
  000d0	ff 15 00 00 00
	00		 call	 DWORD PTR __imp_?Format@?$CStringT@DV?$StrTraitMFC_DLL@DV?$ChTraitsCRT@D@ATL@@@@@ATL@@QAAXPBDZZ
  000d6	83 c4 14	 add	 esp, 20			; 00000014H
$LN10@CGdiObject:
  000d9	6a 00		 push	 0
  000db	6a 00		 push	 0
  000dd	ff b5 e8 fd ff
	ff		 push	 DWORD PTR _strMsg$3[ebp]
  000e3	e8 00 00 00 00	 call	 ?AfxMessageBox@@YGHPBDII@Z ; AfxMessageBox
  000e8	8d 8d e8 fd ff
	ff		 lea	 ecx, DWORD PTR _strMsg$3[ebp]
  000ee	ff 15 00 00 00
	00		 call	 DWORD PTR __imp_??1?$CStringT@DV?$StrTraitMFC_DLL@DV?$ChTraitsCRT@D@ATL@@@@@ATL@@QAE@XZ
  000f4	8b 06		 mov	 eax, DWORD PTR [esi]
  000f6	8b ce		 mov	 ecx, esi
  000f8	6a 01		 push	 1
  000fa	ff 50 04	 call	 DWORD PTR [eax+4]
  000fd	b8 00 00 00 00	 mov	 eax, $LN18@CGdiObject
  00102	c3		 ret	 0
_TEXT	ENDS
;	COMDAT text$x
text$x	SEGMENT
__unwindfunclet$??1CGdiObject@@UAE@XZ$2:
  00000	8d 8d e8 fd ff
	ff		 lea	 ecx, DWORD PTR _strMsg$3[ebp]
  00006	ff 25 00 00 00
	00		 jmp	 DWORD PTR __imp_??1?$CStringT@DV?$StrTraitMFC_DLL@DV?$ChTraitsCRT@D@ATL@@@@@ATL@@QAE@XZ
  0000c	cc		 int	 3
  0000d	cc		 int	 3
  0000e	cc		 int	 3
  0000f	cc		 int	 3
  00010	cc		 int	 3
__ehhandler$??1CGdiObject@@UAE@XZ:
  00011	90		 npad	 1
  00012	90		 npad	 1
  00013	8b 54 24 08	 mov	 edx, DWORD PTR [esp+8]
  00017	8d 42 0c	 lea	 eax, DWORD PTR [edx+12]
  0001a	8b 8a e0 fd ff
	ff		 mov	 ecx, DWORD PTR [edx-544]
  00020	33 c8		 xor	 ecx, eax
  00022	e8 00 00 00 00	 call	 @__security_check_cookie@4
  00027	8b 4a f8	 mov	 ecx, DWORD PTR [edx-8]
  0002a	33 c8		 xor	 ecx, eax
  0002c	e8 00 00 00 00	 call	 @__security_check_cookie@4
  00031	b8 00 00 00 00	 mov	 eax, OFFSET __ehfuncinfo$??1CGdiObject@@UAE@XZ
  00036	e9 00 00 00 00	 jmp	 ___CxxFrameHandler3
text$x	ENDS
??1CGdiObject@@UAE@XZ ENDP				; CGdiObject::~CGdiObject
; Function compile flags: /Ogtp
; File C:\Program Files (x86)\Microsoft Visual Studio\2019\Community\VC\Tools\MSVC\14.29.30133\atlmfc\include\atlexcept.h
;	COMDAT ?AtlThrowImpl@ATL@@YGXJ@Z
_TEXT	SEGMENT
_hr$ = 8						; size = 4
?AtlThrowImpl@ATL@@YGXJ@Z PROC				; ATL::AtlThrowImpl, COMDAT

; 65   : {

  00000	55		 push	 ebp
  00001	8b ec		 mov	 ebp, esp

; 66   : 	ATLTRACE(atlTraceException, 0, _T("AtlThrow: hr = 0x%x\n"), hr );
; 67   : #ifdef _AFX
; 68   : 	if( hr == E_OUTOFMEMORY )

  00003	8b 45 08	 mov	 eax, DWORD PTR _hr$[ebp]
  00006	3d 0e 00 07 80	 cmp	 eax, -2147024882	; 8007000eH
  0000b	75 05		 jne	 SHORT $LN2@AtlThrowIm

; 69   : 	{
; 70   : 		AfxThrowMemoryException();

  0000d	e8 00 00 00 00	 call	 ?AfxThrowMemoryException@@YGXXZ ; AfxThrowMemoryException
$LN2@AtlThrowIm:

; 71   : 	}
; 72   : 	else
; 73   : 	{
; 74   : 		AfxThrowOleException( hr );

  00012	50		 push	 eax
  00013	e8 00 00 00 00	 call	 ?AfxThrowOleException@@YGXJ@Z ; AfxThrowOleException
$LN5@AtlThrowIm:
  00018	cc		 int	 3
?AtlThrowImpl@ATL@@YGXJ@Z ENDP				; ATL::AtlThrowImpl
_TEXT	ENDS
; Function compile flags: /Ogtp
; File C:\Program Files (x86)\Microsoft Visual Studio\2019\Community\VC\Tools\MSVC\14.29.30133\atlmfc\include\afx.inl
;	COMDAT ?Dump@CObject@@UBEXAAVCDumpContext@@@Z
_TEXT	SEGMENT
___formal$ = 8						; size = 4
?Dump@CObject@@UBEXAAVCDumpContext@@@Z PROC		; CObject::Dump, COMDAT
; _this$ = ecx

; 122  : 	{ /* no dumping in release builds */ }

  00000	c2 04 00	 ret	 4
?Dump@CObject@@UBEXAAVCDumpContext@@@Z ENDP		; CObject::Dump
_TEXT	ENDS
; Function compile flags: /Ogtp
; File C:\Program Files (x86)\Microsoft Visual Studio\2019\Community\VC\Tools\MSVC\14.29.30133\atlmfc\include\afx.inl
;	COMDAT ?AssertValid@CObject@@UBEXXZ
_TEXT	SEGMENT
?AssertValid@CObject@@UBEXXZ PROC			; CObject::AssertValid, COMDAT
; _this$ = ecx

; 120  : 	{ /* no asserts in release builds */ }

  00000	c2 00 00	 ret	 0
?AssertValid@CObject@@UBEXXZ ENDP			; CObject::AssertValid
_TEXT	ENDS
; Function compile flags: /Ogtp
; File C:\Program Files (x86)\Microsoft Visual Studio\2019\Community\VC\Tools\MSVC\14.29.30133\atlmfc\include\afx.inl
;	COMDAT ?Serialize@CObject@@UAEXAAVCArchive@@@Z
_TEXT	SEGMENT
___formal$ = 8						; size = 4
?Serialize@CObject@@UAEXAAVCArchive@@@Z PROC		; CObject::Serialize, COMDAT
; _this$ = ecx

; 106  : 	{ /* CObject does not serialize anything by default */ }

  00000	c2 04 00	 ret	 4
?Serialize@CObject@@UAEXAAVCArchive@@@Z ENDP		; CObject::Serialize
_TEXT	ENDS
; Function compile flags: /Ogtp
; File C:\Program Files (x86)\Microsoft Visual Studio\2019\Community\VC\Tools\MSVC\14.29.30133\atlmfc\include\afx.inl
;	COMDAT ??1CObject@@UAE@XZ
_TEXT	SEGMENT
??1CObject@@UAE@XZ PROC					; CObject::~CObject, COMDAT
; _this$ = ecx

; 104  : 	{ }

  00000	c2 00 00	 ret	 0
??1CObject@@UAE@XZ ENDP					; CObject::~CObject
_TEXT	ENDS
; Function compile flags: /Ogtp
; File D:\git\src\IBK\IBK_DRFN\ProjSrc\SrcChartEx\ChartAddIn\ChartAnalysisToolAddIn\AnalysisTool\DlgAnalysisToolSet.cpp
;	COMDAT ?__empty_global_delete@@YAXPAXI@Z
_TEXT	SEGMENT
___formal$ = 8						; size = 4
___formal$ = 12						; size = 4
?__empty_global_delete@@YAXPAXI@Z PROC			; __empty_global_delete, COMDAT

  00000	c2 00 00	 ret	 0
?__empty_global_delete@@YAXPAXI@Z ENDP			; __empty_global_delete
_TEXT	ENDS
; Function compile flags: /Ogtp
; File D:\git\src\IBK\IBK_DRFN\ProjSrc\SrcChartEx\ChartAddIn\ChartAnalysisToolAddIn\AnalysisTool\DlgAnalysisToolSet.cpp
;	COMDAT ?__empty_global_delete@@YAXPAX@Z
_TEXT	SEGMENT
___formal$ = 8						; size = 4
?__empty_global_delete@@YAXPAX@Z PROC			; __empty_global_delete, COMDAT

  00000	c2 00 00	 ret	 0
?__empty_global_delete@@YAXPAX@Z ENDP			; __empty_global_delete
_TEXT	ENDS
END
