; Listing generated by Microsoft (R) Optimizing Compiler Version 19.29.30145.0 

	TITLE	D:\git\src\IBK\IBK_DRFN\#DRfn-CS\_Obj\AnalysisTool\DlgFiboSet.obj
	.686P
	.XMM
	include listing.inc
	.model	flat

INCLUDELIB MSVCRT
INCLUDELIB OLDNAMES

PUBLIC	?g_strRatio@@3PAY0CA@DA				; g_strRatio
PUBLIC	?g_strRatioTime@@3PAY0CA@DA			; g_strRatioTime
PUBLIC	?g_strRatioOther@@3PAY0CA@DA			; g_strRatioOther
_DATA	SEGMENT
?g_strRatio@@3PAY0CA@DA DB 'All', 00H			; g_strRatio
	ORG $+28
	DB	00H
	ORG $+31
	DB	00H
	ORG $+31
	DB	00H
	ORG $+31
	DB	00H
	ORG $+31
	DB	00H
	ORG $+31
	DB	00H
	ORG $+31
	DB	00H
	ORG $+31
	DB	00H
	ORG $+31
	DB	00H
	ORG $+31
	DB	00H
	ORG $+31
	DB	00H
	ORG $+31
?g_strRatioTime@@3PAY0CA@DA DB 'All', 00H		; g_strRatioTime
	ORG $+28
	DB	'0', 00H
	ORG $+30
	DB	'1', 00H
	ORG $+30
	DB	'2', 00H
	ORG $+30
	DB	'3', 00H
	ORG $+30
	DB	'5', 00H
	ORG $+30
	DB	'8', 00H
	ORG $+30
	DB	'13', 00H
	ORG $+29
	DB	'21', 00H
	ORG $+29
	DB	'34', 00H
	ORG $+29
	DB	'55', 00H
	ORG $+29
	DB	'89', 00H
	ORG $+29
?g_strRatioOther@@3PAY0CA@DA DB 'All', 00H		; g_strRatioOther
	ORG $+28
	DB	'0', 00H
	ORG $+30
	DB	'236', 00H
	ORG $+28
	DB	'382', 00H
	ORG $+28
	DB	'500', 00H
	ORG $+28
	DB	'618', 00H
	ORG $+28
	DB	'786', 00H
	ORG $+28
	DB	'1000', 00H
	ORG $+27
	DB	'1272', 00H
	ORG $+27
	DB	'1618', 00H
	ORG $+27
	DB	'2000', 00H
	ORG $+27
	DB	'2618', 00H
	ORG $+27
_DATA	ENDS
PUBLIC	?__empty_global_delete@@YAXPAX@Z		; __empty_global_delete
PUBLIC	?__empty_global_delete@@YAXPAXI@Z		; __empty_global_delete
PUBLIC	??1CObject@@UAE@XZ				; CObject::~CObject
PUBLIC	?Serialize@CObject@@UAEXAAVCArchive@@@Z		; CObject::Serialize
PUBLIC	?AssertValid@CObject@@UBEXXZ			; CObject::AssertValid
PUBLIC	?Dump@CObject@@UBEXAAVCDumpContext@@@Z		; CObject::Dump
PUBLIC	?AtlThrowImpl@ATL@@YGXJ@Z			; ATL::AtlThrowImpl
PUBLIC	??1CGdiObject@@UAE@XZ				; CGdiObject::~CGdiObject
PUBLIC	??_GCGdiObject@@UAEPAXI@Z			; CGdiObject::`scalar deleting destructor'
PUBLIC	??1CBitmap@@UAE@XZ				; CBitmap::~CBitmap
PUBLIC	??_GCBitmap@@UAEPAXI@Z				; CBitmap::`scalar deleting destructor'
PUBLIC	?DoDataExchange@CWnd@@MAEXPAVCDataExchange@@@Z	; CWnd::DoDataExchange
PUBLIC	?BeginModalState@CWnd@@UAEXXZ			; CWnd::BeginModalState
PUBLIC	?EndModalState@CWnd@@UAEXXZ			; CWnd::EndModalState
PUBLIC	?Create@CDialog@@UAEHIPAVCWnd@@@Z		; CDialog::Create
PUBLIC	??_GCButton@@UAEPAXI@Z				; CButton::`scalar deleting destructor'
PUBLIC	??_GCEdit@@UAEPAXI@Z				; CEdit::`scalar deleting destructor'
PUBLIC	??1CCommonDialog@@UAE@XZ			; CCommonDialog::~CCommonDialog
PUBLIC	??_GCCommonDialog@@UAEPAXI@Z			; CCommonDialog::`scalar deleting destructor'
PUBLIC	??1CColorDialog@@UAE@XZ				; CColorDialog::~CColorDialog
PUBLIC	??_GCDateTimeCtrl@@UAEPAXI@Z			; CDateTimeCtrl::`scalar deleting destructor'
PUBLIC	??0exception@std@@QAE@ABV01@@Z			; std::exception::exception
PUBLIC	??1exception@std@@UAE@XZ			; std::exception::~exception
PUBLIC	?what@exception@std@@UBEPBDXZ			; std::exception::what
PUBLIC	??_Gexception@std@@UAEPAXI@Z			; std::exception::`scalar deleting destructor'
PUBLIC	??0bad_alloc@std@@QAE@ABV01@@Z			; std::bad_alloc::bad_alloc
PUBLIC	??_Gbad_alloc@std@@UAEPAXI@Z			; std::bad_alloc::`scalar deleting destructor'
PUBLIC	??0bad_array_new_length@std@@QAE@XZ		; std::bad_array_new_length::bad_array_new_length
PUBLIC	??1bad_array_new_length@std@@UAE@XZ		; std::bad_array_new_length::~bad_array_new_length
PUBLIC	??0bad_array_new_length@std@@QAE@ABV01@@Z	; std::bad_array_new_length::bad_array_new_length
PUBLIC	??_Gbad_array_new_length@std@@UAEPAXI@Z		; std::bad_array_new_length::`scalar deleting destructor'
PUBLIC	?_Throw_bad_array_new_length@std@@YAXXZ		; std::_Throw_bad_array_new_length
PUBLIC	??1CColorButton@@UAE@XZ				; CColorButton::~CColorButton
PUBLIC	?_Xlen@?$deque@PAVCCoordinate@@V?$allocator@PAVCCoordinate@@@std@@@std@@ABEXXZ ; std::deque<CCoordinate *,std::allocator<CCoordinate *> >::_Xlen
PUBLIC	?_Growmap@?$deque@PAVCCoordinate@@V?$allocator@PAVCCoordinate@@@std@@@std@@AAEXI@Z ; std::deque<CCoordinate *,std::allocator<CCoordinate *> >::_Growmap
PUBLIC	?_Tidy@?$deque@PAVCCoordinate@@V?$allocator@PAVCCoordinate@@@std@@@std@@AAEXXZ ; std::deque<CCoordinate *,std::allocator<CCoordinate *> >::_Tidy
PUBLIC	??1CElementPointList@@QAE@XZ			; CElementPointList::~CElementPointList
PUBLIC	??0CElementPointList@@QAE@ABV0@@Z		; CElementPointList::CElementPointList
PUBLIC	??1CBitmapComboBox@@UAE@XZ			; CBitmapComboBox::~CBitmapComboBox
PUBLIC	??1tagST_ANALYSIS_TOOL_INFO@@QAE@XZ		; tagST_ANALYSIS_TOOL_INFO::~tagST_ANALYSIS_TOOL_INFO
PUBLIC	??0CDlgFiboSet@@QAE@PAVCWnd@@ABV?$CStringT@DV?$StrTraitMFC_DLL@DV?$ChTraitsCRT@D@ATL@@@@@ATL@@ABW4HORZSCALEDRAWERTYPE@CScaleBaseData@@HPAH3PAVCTextPosition@@PAVCPenEnvironment@@PAVCElementPointList@@PAVCLineExtEnvironment@@PAVCDataTypeEnvironment@@PAUIChartOCX133101@@AAVCBlockIndex@@V23@@Z ; CDlgFiboSet::CDlgFiboSet
PUBLIC	?DoDataExchange@CDlgFiboSet@@MAEXPAVCDataExchange@@@Z ; CDlgFiboSet::DoDataExchange
PUBLIC	?OnInitDialog@CDlgFiboSet@@MAEHXZ		; CDlgFiboSet::OnInitDialog
PUBLIC	?OnColor@CDlgFiboSet@@IAEXXZ			; CDlgFiboSet::OnColor
PUBLIC	?OnApplyBt@CDlgFiboSet@@IAEXXZ			; CDlgFiboSet::OnApplyBt
PUBLIC	?OnSelchangeWidth@CDlgFiboSet@@IAEXXZ		; CDlgFiboSet::OnSelchangeWidth
PUBLIC	?OnSelchangeStyle@CDlgFiboSet@@IAEXXZ		; CDlgFiboSet::OnSelchangeStyle
PUBLIC	?OnDatetimechangeDatetimepickerXdate1@CDlgFiboSet@@IAEXPAUtagNMHDR@@PAJ@Z ; CDlgFiboSet::OnDatetimechangeDatetimepickerXdate1
PUBLIC	?OnDatetimechangeDatetimepickerXdate2@CDlgFiboSet@@IAEXPAUtagNMHDR@@PAJ@Z ; CDlgFiboSet::OnDatetimechangeDatetimepickerXdate2
PUBLIC	?OnDatetimechangeDatetimepickerXdate3@CDlgFiboSet@@IAEXPAUtagNMHDR@@PAJ@Z ; CDlgFiboSet::OnDatetimechangeDatetimepickerXdate3
PUBLIC	?OnCancelBt@CDlgFiboSet@@IAEXXZ			; CDlgFiboSet::OnCancelBt
PUBLIC	?OnOkBt@CDlgFiboSet@@IAEXXZ			; CDlgFiboSet::OnOkBt
PUBLIC	?OnCheck@CDlgFiboSet@@IAEXI@Z			; CDlgFiboSet::OnCheck
PUBLIC	?GetThisMessageMap@CDlgFiboSet@@KGPBUAFX_MSGMAP@@XZ ; CDlgFiboSet::GetThisMessageMap
PUBLIC	?GetMessageMap@CDlgFiboSet@@MBEPBUAFX_MSGMAP@@XZ ; CDlgFiboSet::GetMessageMap
PUBLIC	?InitializeData@CDlgFiboSet@@IAEXXZ		; CDlgFiboSet::InitializeData
PUBLIC	?ApplyData@CDlgFiboSet@@IAEXXZ			; CDlgFiboSet::ApplyData
PUBLIC	?ApplyOrgData@CDlgFiboSet@@IAEXXZ		; CDlgFiboSet::ApplyOrgData
PUBLIC	?SaveData@CDlgFiboSet@@IAEXXZ			; CDlgFiboSet::SaveData
PUBLIC	?SetInitTextPosition@CDlgFiboSet@@IAEXPAVCTextPosition@@@Z ; CDlgFiboSet::SetInitTextPosition
PUBLIC	?SetYValue@CDlgFiboSet@@IAEXNH@Z		; CDlgFiboSet::SetYValue
PUBLIC	?SetXDateTime@CDlgFiboSet@@IAEXNH@Z		; CDlgFiboSet::SetXDateTime
PUBLIC	?GetCurrentPenEnvironment@CDlgFiboSet@@IBEPAVCPenEnvironment@@XZ ; CDlgFiboSet::GetCurrentPenEnvironment
PUBLIC	?InitializeData_Width@CDlgFiboSet@@AAEXXZ	; CDlgFiboSet::InitializeData_Width
PUBLIC	?InitializeData_Style@CDlgFiboSet@@AAEXXZ	; CDlgFiboSet::InitializeData_Style
PUBLIC	?SetPenEnvironment@CDlgFiboSet@@AAEXXZ		; CDlgFiboSet::SetPenEnvironment
PUBLIC	?SetColor@CDlgFiboSet@@AAEXABK@Z		; CDlgFiboSet::SetColor
PUBLIC	?SetTextPosition@CDlgFiboSet@@AAEXXZ		; CDlgFiboSet::SetTextPosition
PUBLIC	?SetTextPosition@CDlgFiboSet@@AAEX_N@Z		; CDlgFiboSet::SetTextPosition
PUBLIC	?SetTextPosition@CDlgFiboSet@@AAEX_N0@Z		; CDlgFiboSet::SetTextPosition
PUBLIC	?SetTextPosition@CDlgFiboSet@@AAEX_N000@Z	; CDlgFiboSet::SetTextPosition
PUBLIC	?SetLineExtEnvironment@CDlgFiboSet@@AAEXXZ	; CDlgFiboSet::SetLineExtEnvironment
PUBLIC	?SetLineExtEnvironment@CDlgFiboSet@@AAEX_N0@Z	; CDlgFiboSet::SetLineExtEnvironment
PUBLIC	?SetDateValueLists@CDlgFiboSet@@AAEXXZ		; CDlgFiboSet::SetDateValueLists
PUBLIC	?GetTextPosition@CDlgFiboSet@@AAEPAVCTextPosition@@XZ ; CDlgFiboSet::GetTextPosition
PUBLIC	?GetOrgTextPosition@CDlgFiboSet@@AAEPAVCTextPosition@@XZ ; CDlgFiboSet::GetOrgTextPosition
PUBLIC	?GetLineExtEnvironment@CDlgFiboSet@@AAEPAVCLineExtEnvironment@@XZ ; CDlgFiboSet::GetLineExtEnvironment
PUBLIC	?GetOrgLineExtEnvironment@CDlgFiboSet@@AAEPAVCLineExtEnvironment@@XZ ; CDlgFiboSet::GetOrgLineExtEnvironment
PUBLIC	??_GCDlgFiboSet@@UAEPAXI@Z			; CDlgFiboSet::`scalar deleting destructor'
PUBLIC	?LoadResourceDLL@IMetaTable@@QAEPAUHINSTANCE__@@PAUHWND__@@PAU2@@Z ; IMetaTable::LoadResourceDLL
PUBLIC	??1CMultiLanguageResourceSetter@@QAE@XZ		; CMultiLanguageResourceSetter::~CMultiLanguageResourceSetter
PUBLIC	??1?$_Container_proxy_ptr12@V?$allocator@U_Container_proxy@std@@@std@@@std@@QAE@XZ ; std::_Container_proxy_ptr12<std::allocator<std::_Container_proxy> >::~_Container_proxy_ptr12<std::allocator<std::_Container_proxy> >
PUBLIC	??1?$_Tidy_guard@V?$deque@PAVCCoordinate@@V?$allocator@PAVCCoordinate@@@std@@@std@@@std@@QAE@XZ ; std::_Tidy_guard<std::deque<CCoordinate *,std::allocator<CCoordinate *> > >::~_Tidy_guard<std::deque<CCoordinate *,std::allocator<CCoordinate *> > >
PUBLIC	??$_Allocate_manually_vector_aligned@U_Default_allocate_traits@std@@@std@@YAPAXI@Z ; std::_Allocate_manually_vector_aligned<std::_Default_allocate_traits>
PUBLIC	??$uninitialized_copy@PAPAPAVCCoordinate@@PAPAPAV1@@std@@YAPAPAPAVCCoordinate@@QAPAPAV1@0PAPAPAV1@@Z ; std::uninitialized_copy<CCoordinate * * *,CCoordinate * * *>
PUBLIC	??$_Uninitialized_value_construct_n_unchecked1@PAPAPAVCCoordinate@@I@std@@YAPAPAPAVCCoordinate@@PAPAPAV1@I@Z ; std::_Uninitialized_value_construct_n_unchecked1<CCoordinate * * *,unsigned int>
PUBLIC	??$_Zero_range@PAPAPAVCCoordinate@@@std@@YAPAPAPAVCCoordinate@@QAPAPAV1@0@Z ; std::_Zero_range<CCoordinate * * *>
PUBLIC	??$_Copy_memmove@PAPAPAVCCoordinate@@PAPAPAV1@@std@@YAPAPAPAVCCoordinate@@PAPAPAV1@00@Z ; std::_Copy_memmove<CCoordinate * * *,CCoordinate * * *>
PUBLIC	??_R0PAVCException@@@8				; CException * `RTTI Type Descriptor'
PUBLIC	??_C@_02DPKJAMEF@?$CFd@				; `string'
PUBLIC	??_7CGdiObject@@6B@				; CGdiObject::`vftable'
PUBLIC	??_7CBitmap@@6B@				; CBitmap::`vftable'
PUBLIC	??_7CButton@@6B@				; CButton::`vftable'
PUBLIC	??_7CEdit@@6B@					; CEdit::`vftable'
PUBLIC	??_C@_0HD@JJCHHHNK@C?3?2Program?5Files?5?$CIx86?$CJ?2Microsof@ ; `string'
PUBLIC	??_C@_0BP@OIEOKIDM@Exception?5thrown?5in?5destructor@ ; `string'
PUBLIC	??_C@_0BB@HBOOMJBF@?$CFTs?5?$CI?$CFTs?3?$CFd?$CJ?6?$CFTs@ ; `string'
PUBLIC	??_C@_0N@OMEMOKLE@?$CFTs?5?$CI?$CFTs?3?$CFd?$CJ@ ; `string'
PUBLIC	??_7CCommonDialog@@6B@				; CCommonDialog::`vftable'
PUBLIC	??_7CDateTimeCtrl@@6B@				; CDateTimeCtrl::`vftable'
PUBLIC	??_R0?AVCObject@@@8				; CObject `RTTI Type Descriptor'
PUBLIC	??_R3CObject@@8					; CObject::`RTTI Class Hierarchy Descriptor'
PUBLIC	??_R2CObject@@8					; CObject::`RTTI Base Class Array'
PUBLIC	??_R1A@?0A@EA@CObject@@8			; CObject::`RTTI Base Class Descriptor at (0,-1,0,64)'
PUBLIC	??_R4CGdiObject@@6B@				; CGdiObject::`RTTI Complete Object Locator'
PUBLIC	??_R0?AVCGdiObject@@@8				; CGdiObject `RTTI Type Descriptor'
PUBLIC	??_R3CGdiObject@@8				; CGdiObject::`RTTI Class Hierarchy Descriptor'
PUBLIC	??_R2CGdiObject@@8				; CGdiObject::`RTTI Base Class Array'
PUBLIC	??_R1A@?0A@EA@CGdiObject@@8			; CGdiObject::`RTTI Base Class Descriptor at (0,-1,0,64)'
PUBLIC	??_R4CBitmap@@6B@				; CBitmap::`RTTI Complete Object Locator'
PUBLIC	??_R0?AVCBitmap@@@8				; CBitmap `RTTI Type Descriptor'
PUBLIC	??_R3CBitmap@@8					; CBitmap::`RTTI Class Hierarchy Descriptor'
PUBLIC	??_R2CBitmap@@8					; CBitmap::`RTTI Base Class Array'
PUBLIC	??_R1A@?0A@EA@CBitmap@@8			; CBitmap::`RTTI Base Class Descriptor at (0,-1,0,64)'
PUBLIC	??_R1A@?0A@EA@CWnd@@8				; CWnd::`RTTI Base Class Descriptor at (0,-1,0,64)'
PUBLIC	??_R0?AVCWnd@@@8				; CWnd `RTTI Type Descriptor'
PUBLIC	??_R3CWnd@@8					; CWnd::`RTTI Class Hierarchy Descriptor'
PUBLIC	??_R2CWnd@@8					; CWnd::`RTTI Base Class Array'
PUBLIC	??_R1A@?0A@EA@CCmdTarget@@8			; CCmdTarget::`RTTI Base Class Descriptor at (0,-1,0,64)'
PUBLIC	??_R0?AVCCmdTarget@@@8				; CCmdTarget `RTTI Type Descriptor'
PUBLIC	??_R3CCmdTarget@@8				; CCmdTarget::`RTTI Class Hierarchy Descriptor'
PUBLIC	??_R2CCmdTarget@@8				; CCmdTarget::`RTTI Base Class Array'
PUBLIC	??_R4CButton@@6B@				; CButton::`RTTI Complete Object Locator'
PUBLIC	??_R0?AVCButton@@@8				; CButton `RTTI Type Descriptor'
PUBLIC	??_R3CButton@@8					; CButton::`RTTI Class Hierarchy Descriptor'
PUBLIC	??_R2CButton@@8					; CButton::`RTTI Base Class Array'
PUBLIC	??_R1A@?0A@EA@CButton@@8			; CButton::`RTTI Base Class Descriptor at (0,-1,0,64)'
PUBLIC	??_R4CEdit@@6B@					; CEdit::`RTTI Complete Object Locator'
PUBLIC	??_R0?AVCEdit@@@8				; CEdit `RTTI Type Descriptor'
PUBLIC	??_R3CEdit@@8					; CEdit::`RTTI Class Hierarchy Descriptor'
PUBLIC	??_R2CEdit@@8					; CEdit::`RTTI Base Class Array'
PUBLIC	??_R1A@?0A@EA@CEdit@@8				; CEdit::`RTTI Base Class Descriptor at (0,-1,0,64)'
PUBLIC	??_R4CCommonDialog@@6B@				; CCommonDialog::`RTTI Complete Object Locator'
PUBLIC	??_R0?AVCCommonDialog@@@8			; CCommonDialog `RTTI Type Descriptor'
PUBLIC	??_R3CCommonDialog@@8				; CCommonDialog::`RTTI Class Hierarchy Descriptor'
PUBLIC	??_R2CCommonDialog@@8				; CCommonDialog::`RTTI Base Class Array'
PUBLIC	??_R1A@?0A@EA@CCommonDialog@@8			; CCommonDialog::`RTTI Base Class Descriptor at (0,-1,0,64)'
PUBLIC	??_R1A@?0A@EA@CDialog@@8			; CDialog::`RTTI Base Class Descriptor at (0,-1,0,64)'
PUBLIC	??_R0?AVCDialog@@@8				; CDialog `RTTI Type Descriptor'
PUBLIC	??_R3CDialog@@8					; CDialog::`RTTI Class Hierarchy Descriptor'
PUBLIC	??_R2CDialog@@8					; CDialog::`RTTI Base Class Array'
PUBLIC	??_R4CDateTimeCtrl@@6B@				; CDateTimeCtrl::`RTTI Complete Object Locator'
PUBLIC	??_R0?AVCDateTimeCtrl@@@8			; CDateTimeCtrl `RTTI Type Descriptor'
PUBLIC	??_R3CDateTimeCtrl@@8				; CDateTimeCtrl::`RTTI Class Hierarchy Descriptor'
PUBLIC	??_R2CDateTimeCtrl@@8				; CDateTimeCtrl::`RTTI Base Class Array'
PUBLIC	??_R1A@?0A@EA@CDateTimeCtrl@@8			; CDateTimeCtrl::`RTTI Base Class Descriptor at (0,-1,0,64)'
PUBLIC	??_7exception@std@@6B@				; std::exception::`vftable'
PUBLIC	??_C@_0BC@EOODALEL@Unknown?5exception@		; `string'
PUBLIC	??_7bad_alloc@std@@6B@				; std::bad_alloc::`vftable'
PUBLIC	??_7bad_array_new_length@std@@6B@		; std::bad_array_new_length::`vftable'
PUBLIC	??_C@_0BF@KINCDENJ@bad?5array?5new?5length@	; `string'
PUBLIC	__TI3?AVbad_array_new_length@std@@
PUBLIC	__CTA3?AVbad_array_new_length@std@@
PUBLIC	??_R0?AVbad_array_new_length@std@@@8		; std::bad_array_new_length `RTTI Type Descriptor'
PUBLIC	__CT??_R0?AVbad_array_new_length@std@@@8??0bad_array_new_length@std@@QAE@ABV01@@Z12
PUBLIC	??_R0?AVbad_alloc@std@@@8			; std::bad_alloc `RTTI Type Descriptor'
PUBLIC	__CT??_R0?AVbad_alloc@std@@@8??0bad_alloc@std@@QAE@ABV01@@Z12
PUBLIC	??_R0?AVexception@std@@@8			; std::exception `RTTI Type Descriptor'
PUBLIC	__CT??_R0?AVexception@std@@@8??0exception@std@@QAE@ABV01@@Z12
PUBLIC	??_C@_0BF@BMLEKMON@AnalysisPropInfo?4ans@	; `string'
PUBLIC	??_7CDlgFiboSet@@6B@				; CDlgFiboSet::`vftable'
PUBLIC	??_C@_0BF@EGELCGDD@GetCurrentLanguageID@	; `string'
PUBLIC	??_C@_0BA@ENJOCHIO@LoadResourceDLL@		; `string'
PUBLIC	??_C@_01FGNFDNOH@?$CF@				; `string'
PUBLIC	??_C@_0L@DFLJBNFO@?$CFs?$CI?$CF?41f?$CFs?$CJ@	; `string'
PUBLIC	??_C@_0BI@PMLJCDKI@0?01?02?03?05?08?013?021?034?055@ ; `string'
PUBLIC	??_C@_0BL@NNPKLAED@0?0236?0382?0500?0618?0786?01000@ ; `string'
PUBLIC	??_C@_01IHBHIGKO@?0@				; `string'
PUBLIC	??_C@_04HDOCAJNK@?$CFs?$CFs@			; `string'
PUBLIC	??_C@_07ONLHAHEH@TopText@			; `string'
PUBLIC	??_C@_0L@KGKLHHNL@BottomText@			; `string'
PUBLIC	??_C@_08BBFEGILF@LeftText@			; `string'
PUBLIC	??_C@_09HDEKPJNE@RightText@			; `string'
PUBLIC	??_C@_07FCOFBDCL@LeftExt@			; `string'
PUBLIC	??_C@_08JBGJKNHH@RightExt@			; `string'
PUBLIC	??_C@_07FEGHFPHL@EquiDiv@			; `string'
PUBLIC	??_C@_0O@GNLODFPJ@PriceRangeDiv@		; `string'
PUBLIC	??_C@_09LIIMEMPE@HLPercent@			; `string'
PUBLIC	??_C@_0L@IDNOMKNG@FillRegion@			; `string'
PUBLIC	??_C@_09MJAANBBP@LineColor@			; `string'
PUBLIC	??_C@_03JALODAI@?$CFld@				; `string'
PUBLIC	??_C@_09LNOEOIHF@LineStyle@			; `string'
PUBLIC	??_C@_0L@OIHNKLFE@LineWeight@			; `string'
PUBLIC	??_C@_0BA@JFLLJIBI@FiboCoefficient@		; `string'
PUBLIC	??_C@_0P@IMPIBBAB@YYYYMMDDHHMMSS@		; `string'
PUBLIC	??_C@_03EICDNICE@?$CF?4f@			; `string'
PUBLIC	??_C@_08IGKLELNK@?$CFs?1?$CFs?3?$CFs@		; `string'
PUBLIC	??_C@_01GBGANLPD@0@				; `string'
PUBLIC	??_C@_0M@NFOMEIHF@?$CFs?1?$CFs?9?$CFs?3?$CFs@	; `string'
PUBLIC	??_C@_02NJPGOMH@?$CFf@				; `string'
PUBLIC	??_C@_06GEKNBBDK@000000@			; `string'
PUBLIC	??_C@_0P@NDLMDLNF@?$CF04d?$CF02d?$CF02d?$CFs@	; `string'
PUBLIC	??_C@_0BC@KBDMBKEH@deque?$DMT?$DO?5too?5long@	; `string'
PUBLIC	??_R4exception@std@@6B@				; std::exception::`RTTI Complete Object Locator'
PUBLIC	??_R3exception@std@@8				; std::exception::`RTTI Class Hierarchy Descriptor'
PUBLIC	??_R2exception@std@@8				; std::exception::`RTTI Base Class Array'
PUBLIC	??_R1A@?0A@EA@exception@std@@8			; std::exception::`RTTI Base Class Descriptor at (0,-1,0,64)'
PUBLIC	??_R4bad_alloc@std@@6B@				; std::bad_alloc::`RTTI Complete Object Locator'
PUBLIC	??_R3bad_alloc@std@@8				; std::bad_alloc::`RTTI Class Hierarchy Descriptor'
PUBLIC	??_R2bad_alloc@std@@8				; std::bad_alloc::`RTTI Base Class Array'
PUBLIC	??_R1A@?0A@EA@bad_alloc@std@@8			; std::bad_alloc::`RTTI Base Class Descriptor at (0,-1,0,64)'
PUBLIC	??_R4bad_array_new_length@std@@6B@		; std::bad_array_new_length::`RTTI Complete Object Locator'
PUBLIC	??_R3bad_array_new_length@std@@8		; std::bad_array_new_length::`RTTI Class Hierarchy Descriptor'
PUBLIC	??_R2bad_array_new_length@std@@8		; std::bad_array_new_length::`RTTI Base Class Array'
PUBLIC	??_R1A@?0A@EA@bad_array_new_length@std@@8	; std::bad_array_new_length::`RTTI Base Class Descriptor at (0,-1,0,64)'
PUBLIC	??_R4CDlgFiboSet@@6B@				; CDlgFiboSet::`RTTI Complete Object Locator'
PUBLIC	??_R0?AVCDlgFiboSet@@@8				; CDlgFiboSet `RTTI Type Descriptor'
PUBLIC	??_R3CDlgFiboSet@@8				; CDlgFiboSet::`RTTI Class Hierarchy Descriptor'
PUBLIC	??_R2CDlgFiboSet@@8				; CDlgFiboSet::`RTTI Base Class Array'
PUBLIC	??_R1A@?0A@EA@CDlgFiboSet@@8			; CDlgFiboSet::`RTTI Base Class Descriptor at (0,-1,0,64)'
PUBLIC	__real@0000000000000000
PUBLIC	__real@4024000000000000
PUBLIC	__xmm@00100000000000000010000000000000
EXTRN	??2@YAPAXI@Z:PROC				; operator new
EXTRN	??3@YAXPAX@Z:PROC				; operator delete
EXTRN	??3@YAXPAXI@Z:PROC				; operator delete
EXTRN	?__global_delete@@YAXPAXI@Z:PROC		; __global_delete
EXTRN	___std_terminate:PROC
EXTRN	__imp___invalid_parameter_noinfo_noreturn:PROC
EXTRN	__imp__GetProcAddress@8:PROC
EXTRN	__imp__WritePrivateProfileStringA@16:PROC
EXTRN	__imp__SendMessageA@16:PROC
EXTRN	__imp__IsWindowVisible@4:PROC
EXTRN	__imp__mouse_event@20:PROC
EXTRN	__imp__EnableWindow@8:PROC
EXTRN	__imp__InvalidateRect@12:PROC
EXTRN	__imp__GetClientRect@8:PROC
EXTRN	__imp__GetWindowRect@8:PROC
EXTRN	__imp__atof:PROC
EXTRN	__imp__atoi:PROC
EXTRN	__imp___atoi64:PROC
EXTRN	__imp___localtime64_s:PROC
EXTRN	__imp___mktime64:PROC
EXTRN	?AfxThrowMemoryException@@YGXXZ:PROC		; AfxThrowMemoryException
EXTRN	?AfxThrowOleException@@YGXJ@Z:PROC		; AfxThrowOleException
EXTRN	__imp_?Empty@?$CSimpleStringT@D$00@ATL@@QAEXXZ:PROC
EXTRN	__imp_?Concatenate@?$CSimpleStringT@D$00@ATL@@KAXAAV12@PBDH1H@Z:PROC
EXTRN	__imp_??0?$CStringT@DV?$StrTraitMFC_DLL@DV?$ChTraitsCRT@D@ATL@@@@@ATL@@QAE@XZ:PROC
EXTRN	__imp_??0?$CStringT@DV?$StrTraitMFC_DLL@DV?$ChTraitsCRT@D@ATL@@@@@ATL@@QAE@PAUIAtlStringMgr@1@@Z:PROC
EXTRN	__imp_??0?$CStringT@DV?$StrTraitMFC_DLL@DV?$ChTraitsCRT@D@ATL@@@@@ATL@@QAE@ABV01@@Z:PROC
EXTRN	__imp_??0?$CStringT@DV?$StrTraitMFC_DLL@DV?$ChTraitsCRT@D@ATL@@@@@ATL@@QAE@PBD@Z:PROC
EXTRN	__imp_??1?$CStringT@DV?$StrTraitMFC_DLL@DV?$ChTraitsCRT@D@ATL@@@@@ATL@@QAE@XZ:PROC
EXTRN	__imp_??4?$CStringT@DV?$StrTraitMFC_DLL@DV?$ChTraitsCRT@D@ATL@@@@@ATL@@QAEAAV01@ABV01@@Z:PROC
EXTRN	__imp_??4?$CStringT@DV?$StrTraitMFC_DLL@DV?$ChTraitsCRT@D@ATL@@@@@ATL@@QAEAAV01@PBD@Z:PROC
EXTRN	__imp_??Y?$CStringT@DV?$StrTraitMFC_DLL@DV?$ChTraitsCRT@D@ATL@@@@@ATL@@QAEAAV01@PBD@Z:PROC
EXTRN	__imp_?GetManager@?$CStringT@DV?$StrTraitMFC_DLL@DV?$ChTraitsCRT@D@ATL@@@@@ATL@@QBEPAUIAtlStringMgr@2@XZ:PROC
EXTRN	__imp_?Compare@?$CStringT@DV?$StrTraitMFC_DLL@DV?$ChTraitsCRT@D@ATL@@@@@ATL@@QBEHPBD@Z:PROC
EXTRN	__imp_?Mid@?$CStringT@DV?$StrTraitMFC_DLL@DV?$ChTraitsCRT@D@ATL@@@@@ATL@@QBE?AV12@HH@Z:PROC
EXTRN	__imp_?Left@?$CStringT@DV?$StrTraitMFC_DLL@DV?$ChTraitsCRT@D@ATL@@@@@ATL@@QBE?AV12@H@Z:PROC
EXTRN	__imp_?Format@?$CStringT@DV?$StrTraitMFC_DLL@DV?$ChTraitsCRT@D@ATL@@@@@ATL@@QAAXPBDZZ:PROC
EXTRN	__imp_?LoadStringA@?$CStringT@DV?$StrTraitMFC_DLL@DV?$ChTraitsCRT@D@ATL@@@@@ATL@@QAEHI@Z:PROC
EXTRN	??0CFile@@QAE@XZ:PROC				; CFile::CFile
EXTRN	?Open@CFile@@UAEHPBDIPAVCFileException@@@Z:PROC	; CFile::Open
EXTRN	?Close@CFile@@UAEXXZ:PROC			; CFile::Close
EXTRN	??1CFile@@UAE@XZ:PROC				; CFile::~CFile
EXTRN	??0CFileFind@@QAE@XZ:PROC			; CFileFind::CFileFind
EXTRN	??1CFileFind@@UAE@XZ:PROC			; CFileFind::~CFileFind
EXTRN	?Close@CFileFind@@QAEXXZ:PROC			; CFileFind::Close
EXTRN	?FindFile@CFileFind@@UAEHPBDK@Z:PROC		; CFileFind::FindFile
EXTRN	?AfxGetModuleState@@YGPAVAFX_MODULE_STATE@@XZ:PROC ; AfxGetModuleState
EXTRN	?AfxGetStaticModuleState@@YGPAVAFX_MODULE_STATE@@XZ:PROC ; AfxGetStaticModuleState
EXTRN	?GetRuntimeClass@CGdiObject@@UBEPAUCRuntimeClass@@XZ:PROC ; CGdiObject::GetRuntimeClass
EXTRN	?DeleteObject@CGdiObject@@QAEHXZ:PROC		; CGdiObject::DeleteObject
EXTRN	??_ECGdiObject@@UAEPAXI@Z:PROC			; CGdiObject::`vector deleting destructor'
EXTRN	?GetRuntimeClass@CBitmap@@UBEPAUCRuntimeClass@@XZ:PROC ; CBitmap::GetRuntimeClass
EXTRN	??_ECBitmap@@UAEPAXI@Z:PROC			; CBitmap::`vector deleting destructor'
EXTRN	?DDX_CBIndex@@YGXPAVCDataExchange@@HAAH@Z:PROC	; DDX_CBIndex
EXTRN	?DDX_Control@@YGXPAVCDataExchange@@HAAVCWnd@@@Z:PROC ; DDX_Control
EXTRN	?OnCmdMsg@CCmdTarget@@UAEHIHPAXPAUAFX_CMDHANDLERINFO@@@Z:PROC ; CCmdTarget::OnCmdMsg
EXTRN	?IsInvokeAllowed@CCmdTarget@@UAEHJ@Z:PROC	; CCmdTarget::IsInvokeAllowed
EXTRN	?GetDispatchIID@CCmdTarget@@UAEHPAU_GUID@@@Z:PROC ; CCmdTarget::GetDispatchIID
EXTRN	?GetTypeInfoCount@CCmdTarget@@UAEIXZ:PROC	; CCmdTarget::GetTypeInfoCount
EXTRN	?GetTypeLibCache@CCmdTarget@@UAEPAVCTypeLibCache@@XZ:PROC ; CCmdTarget::GetTypeLibCache
EXTRN	?GetTypeLib@CCmdTarget@@UAEJKPAPAUITypeLib@@@Z:PROC ; CCmdTarget::GetTypeLib
EXTRN	?GetCommandMap@CCmdTarget@@MBEPBUAFX_OLECMDMAP@@XZ:PROC ; CCmdTarget::GetCommandMap
EXTRN	?GetDispatchMap@CCmdTarget@@MBEPBUAFX_DISPMAP@@XZ:PROC ; CCmdTarget::GetDispatchMap
EXTRN	?GetConnectionMap@CCmdTarget@@MBEPBUAFX_CONNECTIONMAP@@XZ:PROC ; CCmdTarget::GetConnectionMap
EXTRN	?GetEventSinkMap@CCmdTarget@@MBEPBUAFX_EVENTSINKMAP@@XZ:PROC ; CCmdTarget::GetEventSinkMap
EXTRN	?OnCreateAggregates@CCmdTarget@@UAEHXZ:PROC	; CCmdTarget::OnCreateAggregates
EXTRN	?GetInterfaceHook@CCmdTarget@@UAEPAUIUnknown@@PBX@Z:PROC ; CCmdTarget::GetInterfaceHook
EXTRN	?GetExtraConnectionPoints@CCmdTarget@@MAEHPAVCPtrArray@@@Z:PROC ; CCmdTarget::GetExtraConnectionPoints
EXTRN	?GetConnectionHook@CCmdTarget@@MAEPAUIConnectionPoint@@ABU_GUID@@@Z:PROC ; CCmdTarget::GetConnectionHook
EXTRN	??0CWnd@@QAE@XZ:PROC				; CWnd::CWnd
EXTRN	?PreSubclassWindow@CWnd@@UAEXXZ:PROC		; CWnd::PreSubclassWindow
EXTRN	?Create@CWnd@@UAEHPBD0KABUtagRECT@@PAV1@IPAUCCreateContext@@@Z:PROC ; CWnd::Create
EXTRN	?CreateEx@CWnd@@UAEHKPBD0KHHHHPAUHWND__@@PAUHMENU__@@PAX@Z:PROC ; CWnd::CreateEx
EXTRN	?CreateEx@CWnd@@UAEHKPBD0KABUtagRECT@@PAV1@IPAX@Z:PROC ; CWnd::CreateEx
EXTRN	?DestroyWindow@CWnd@@UAEHXZ:PROC		; CWnd::DestroyWindow
EXTRN	?PreCreateWindow@CWnd@@UAEHAAUtagCREATESTRUCTA@@@Z:PROC ; CWnd::PreCreateWindow
EXTRN	?CalcWindowRect@CWnd@@UAEXPAUtagRECT@@I@Z:PROC	; CWnd::CalcWindowRect
EXTRN	?GetDlgItem@CWnd@@QBEPAV1@H@Z:PROC		; CWnd::GetDlgItem
EXTRN	?SetWindowTextA@CWnd@@QAEXPBD@Z:PROC		; CWnd::SetWindowTextA
EXTRN	?GetWindowTextA@CWnd@@QBEXAAV?$CStringT@DV?$StrTraitMFC_DLL@DV?$ChTraitsCRT@D@ATL@@@@@ATL@@@Z:PROC ; CWnd::GetWindowTextA
EXTRN	?GetMenu@CWnd@@UBEPAVCMenu@@XZ:PROC		; CWnd::GetMenu
EXTRN	?SetMenu@CWnd@@UAEHPAVCMenu@@@Z:PROC		; CWnd::SetMenu
EXTRN	?MoveWindow@CWnd@@QAEXHHHHH@Z:PROC		; CWnd::MoveWindow
EXTRN	?ScreenToClient@CWnd@@QBEXPAUtagRECT@@@Z:PROC	; CWnd::ScreenToClient
EXTRN	?ShowWindow@CWnd@@QAEHH@Z:PROC			; CWnd::ShowWindow
EXTRN	?OnToolHitTest@CWnd@@UBEHVCPoint@@PAUtagTOOLINFOA@@@Z:PROC ; CWnd::OnToolHitTest
EXTRN	?EnableWindow@CWnd@@QAEHH@Z:PROC		; CWnd::EnableWindow
EXTRN	?SetDlgItemTextA@CWnd@@QAEXHPBD@Z:PROC		; CWnd::SetDlgItemTextA
EXTRN	?GetScrollBarCtrl@CWnd@@UBEPAVCScrollBar@@H@Z:PROC ; CWnd::GetScrollBarCtrl
EXTRN	?UpdateData@CWnd@@QAEHH@Z:PROC			; CWnd::UpdateData
EXTRN	?WinHelpA@CWnd@@UAEXKI@Z:PROC			; CWnd::WinHelpA
EXTRN	?HtmlHelpA@CWnd@@UAEXKI@Z:PROC			; CWnd::HtmlHelpA
EXTRN	?WinHelpInternal@CWnd@@UAEXKI@Z:PROC		; CWnd::WinHelpInternal
EXTRN	?ContinueModal@CWnd@@UAEHXZ:PROC		; CWnd::ContinueModal
EXTRN	?EndModalLoop@CWnd@@UAEXH@Z:PROC		; CWnd::EndModalLoop
EXTRN	?OnDrawIconicThumbnailOrLivePreview@CWnd@@UAEXAAVCDC@@VCRect@@VCSize@@HAAH@Z:PROC ; CWnd::OnDrawIconicThumbnailOrLivePreview
EXTRN	?GetInterfaceMap@CWnd@@MBEPBUAFX_INTERFACEMAP@@XZ:PROC ; CWnd::GetInterfaceMap
EXTRN	?EnsureStdObj@CWnd@@UAEJXZ:PROC			; CWnd::EnsureStdObj
EXTRN	?get_accParent@CWnd@@UAEJPAPAUIDispatch@@@Z:PROC ; CWnd::get_accParent
EXTRN	?get_accChildCount@CWnd@@UAEJPAJ@Z:PROC		; CWnd::get_accChildCount
EXTRN	?get_accChild@CWnd@@UAEJUtagVARIANT@@PAPAUIDispatch@@@Z:PROC ; CWnd::get_accChild
EXTRN	?get_accName@CWnd@@UAEJUtagVARIANT@@PAPA_W@Z:PROC ; CWnd::get_accName
EXTRN	?get_accValue@CWnd@@UAEJUtagVARIANT@@PAPA_W@Z:PROC ; CWnd::get_accValue
EXTRN	?get_accDescription@CWnd@@UAEJUtagVARIANT@@PAPA_W@Z:PROC ; CWnd::get_accDescription
EXTRN	?get_accRole@CWnd@@UAEJUtagVARIANT@@PAU2@@Z:PROC ; CWnd::get_accRole
EXTRN	?get_accState@CWnd@@UAEJUtagVARIANT@@PAU2@@Z:PROC ; CWnd::get_accState
EXTRN	?get_accHelp@CWnd@@UAEJUtagVARIANT@@PAPA_W@Z:PROC ; CWnd::get_accHelp
EXTRN	?get_accHelpTopic@CWnd@@UAEJPAPA_WUtagVARIANT@@PAJ@Z:PROC ; CWnd::get_accHelpTopic
EXTRN	?get_accKeyboardShortcut@CWnd@@UAEJUtagVARIANT@@PAPA_W@Z:PROC ; CWnd::get_accKeyboardShortcut
EXTRN	?get_accFocus@CWnd@@UAEJPAUtagVARIANT@@@Z:PROC	; CWnd::get_accFocus
EXTRN	?get_accSelection@CWnd@@UAEJPAUtagVARIANT@@@Z:PROC ; CWnd::get_accSelection
EXTRN	?get_accDefaultAction@CWnd@@UAEJUtagVARIANT@@PAPA_W@Z:PROC ; CWnd::get_accDefaultAction
EXTRN	?accSelect@CWnd@@UAEJJUtagVARIANT@@@Z:PROC	; CWnd::accSelect
EXTRN	?accLocation@CWnd@@UAEJPAJ000UtagVARIANT@@@Z:PROC ; CWnd::accLocation
EXTRN	?accNavigate@CWnd@@UAEJJUtagVARIANT@@PAU2@@Z:PROC ; CWnd::accNavigate
EXTRN	?accHitTest@CWnd@@UAEJJJPAUtagVARIANT@@@Z:PROC	; CWnd::accHitTest
EXTRN	?accDoDefaultAction@CWnd@@UAEJUtagVARIANT@@@Z:PROC ; CWnd::accDoDefaultAction
EXTRN	?put_accName@CWnd@@UAEJUtagVARIANT@@PA_W@Z:PROC	; CWnd::put_accName
EXTRN	?put_accValue@CWnd@@UAEJUtagVARIANT@@PA_W@Z:PROC ; CWnd::put_accValue
EXTRN	?SetProxy@CWnd@@UAEJPAUIAccessibleProxy@@@Z:PROC ; CWnd::SetProxy
EXTRN	?CreateAccessibleProxy@CWnd@@UAEJIJPAJ@Z:PROC	; CWnd::CreateAccessibleProxy
EXTRN	?OnCommand@CWnd@@MAEHIJ@Z:PROC			; CWnd::OnCommand
EXTRN	?OnNotify@CWnd@@MAEHIJPAJ@Z:PROC		; CWnd::OnNotify
EXTRN	?GetSuperWndProcAddr@CWnd@@MAEPAP6GJPAUHWND__@@IIJ@ZXZ:PROC ; CWnd::GetSuperWndProcAddr
EXTRN	?PreTranslateMessage@CWnd@@UAEHPAUtagMSG@@@Z:PROC ; CWnd::PreTranslateMessage
EXTRN	?OnAmbientProperty@CWnd@@UAEHPAVCOleControlSite@@JPAUtagVARIANT@@@Z:PROC ; CWnd::OnAmbientProperty
EXTRN	?WindowProc@CWnd@@MAEJIIJ@Z:PROC		; CWnd::WindowProc
EXTRN	?OnWndMsg@CWnd@@MAEHIIJPAJ@Z:PROC		; CWnd::OnWndMsg
EXTRN	?DefWindowProcA@CWnd@@MAEJIIJ@Z:PROC		; CWnd::DefWindowProcA
EXTRN	?PostNcDestroy@CWnd@@MAEXXZ:PROC		; CWnd::PostNcDestroy
EXTRN	?OnChildNotify@CWnd@@MAEHIIJPAJ@Z:PROC		; CWnd::OnChildNotify
EXTRN	?OnTouchInputs@CWnd@@MAEHIPAUtagTOUCHINPUT@@@Z:PROC ; CWnd::OnTouchInputs
EXTRN	?OnTouchInput@CWnd@@MAEHVCPoint@@HHPAUtagTOUCHINPUT@@@Z:PROC ; CWnd::OnTouchInput
EXTRN	?GetGestureStatus@CWnd@@MAEKVCPoint@@@Z:PROC	; CWnd::GetGestureStatus
EXTRN	?OnGestureZoom@CWnd@@MAEHVCPoint@@J@Z:PROC	; CWnd::OnGestureZoom
EXTRN	?OnGesturePan@CWnd@@MAEHVCPoint@@0@Z:PROC	; CWnd::OnGesturePan
EXTRN	?OnGestureRotate@CWnd@@MAEHVCPoint@@N@Z:PROC	; CWnd::OnGestureRotate
EXTRN	?OnGestureTwoFingerTap@CWnd@@MAEHVCPoint@@@Z:PROC ; CWnd::OnGestureTwoFingerTap
EXTRN	?OnGesturePressAndTap@CWnd@@MAEHVCPoint@@J@Z:PROC ; CWnd::OnGesturePressAndTap
EXTRN	?ResizeDynamicLayout@CWnd@@MAEXXZ:PROC		; CWnd::ResizeDynamicLayout
EXTRN	?CheckAutoCenter@CWnd@@UAEHXZ:PROC		; CWnd::CheckAutoCenter
EXTRN	?IsFrameWnd@CWnd@@UBEHXZ:PROC			; CWnd::IsFrameWnd
EXTRN	?OnFinalRelease@CWnd@@UAEXXZ:PROC		; CWnd::OnFinalRelease
EXTRN	?CreateControlContainer@CWnd@@MAEHPAPAVCOleControlContainer@@@Z:PROC ; CWnd::CreateControlContainer
EXTRN	?CreateControlSite@CWnd@@MAEHPAVCOleControlContainer@@PAPAVCOleControlSite@@IABU_GUID@@@Z:PROC ; CWnd::CreateControlSite
EXTRN	?SetOccDialogInfo@CWnd@@MAEHPAU_AFX_OCC_DIALOG_INFO@@@Z:PROC ; CWnd::SetOccDialogInfo
EXTRN	?GetOccDialogInfo@CWnd@@MAEPAU_AFX_OCC_DIALOG_INFO@@XZ:PROC ; CWnd::GetOccDialogInfo
EXTRN	?GetMessageMap@CWnd@@MBEPBUAFX_MSGMAP@@XZ:PROC	; CWnd::GetMessageMap
EXTRN	?GetRuntimeClass@CDialog@@UBEPAUCRuntimeClass@@XZ:PROC ; CDialog::GetRuntimeClass
EXTRN	?Create@CDialog@@UAEHPBDPAVCWnd@@@Z:PROC	; CDialog::Create
EXTRN	?CreateIndirect@CDialog@@UAEHPBUDLGTEMPLATE@@PAVCWnd@@PAX@Z:PROC ; CDialog::CreateIndirect
EXTRN	?CreateIndirect@CDialog@@UAEHPAXPAVCWnd@@@Z:PROC ; CDialog::CreateIndirect
EXTRN	??0CDialog@@QAE@IPAVCWnd@@@Z:PROC		; CDialog::CDialog
EXTRN	?DoModal@CDialog@@UAEHXZ:PROC			; CDialog::DoModal
EXTRN	?OnInitDialog@CDialog@@UAEHXZ:PROC		; CDialog::OnInitDialog
EXTRN	?OnSetFont@CDialog@@UAEXPAVCFont@@@Z:PROC	; CDialog::OnSetFont
EXTRN	?OnOK@CDialog@@MAEXXZ:PROC			; CDialog::OnOK
EXTRN	?OnCancel@CDialog@@MAEXXZ:PROC			; CDialog::OnCancel
EXTRN	??1CDialog@@UAE@XZ:PROC				; CDialog::~CDialog
EXTRN	?PreTranslateMessage@CDialog@@UAEHPAUtagMSG@@@Z:PROC ; CDialog::PreTranslateMessage
EXTRN	?OnCmdMsg@CDialog@@UAEHIHPAXPAUAFX_CMDHANDLERINFO@@@Z:PROC ; CDialog::OnCmdMsg
EXTRN	?CheckAutoCenter@CDialog@@UAEHXZ:PROC		; CDialog::CheckAutoCenter
EXTRN	?SetOccDialogInfo@CDialog@@MAEHPAU_AFX_OCC_DIALOG_INFO@@@Z:PROC ; CDialog::SetOccDialogInfo
EXTRN	?GetOccDialogInfo@CDialog@@MAEPAU_AFX_OCC_DIALOG_INFO@@XZ:PROC ; CDialog::GetOccDialogInfo
EXTRN	?PreInitDialog@CDialog@@MAEXXZ:PROC		; CDialog::PreInitDialog
EXTRN	?GetThisMessageMap@CDialog@@KGPBUAFX_MSGMAP@@XZ:PROC ; CDialog::GetThisMessageMap
EXTRN	?GetRuntimeClass@CButton@@UBEPAUCRuntimeClass@@XZ:PROC ; CButton::GetRuntimeClass
EXTRN	?Create@CButton@@UAEHPBDKABUtagRECT@@PAVCWnd@@I@Z:PROC ; CButton::Create
EXTRN	?DrawItem@CButton@@UAEXPAUtagDRAWITEMSTRUCT@@@Z:PROC ; CButton::DrawItem
EXTRN	??1CButton@@UAE@XZ:PROC				; CButton::~CButton
EXTRN	?OnChildNotify@CButton@@MAEHIIJPAJ@Z:PROC	; CButton::OnChildNotify
EXTRN	??_ECButton@@UAEPAXI@Z:PROC			; CButton::`vector deleting destructor'
EXTRN	??1CComboBox@@UAE@XZ:PROC			; CComboBox::~CComboBox
EXTRN	?GetRuntimeClass@CEdit@@UBEPAUCRuntimeClass@@XZ:PROC ; CEdit::GetRuntimeClass
EXTRN	??1CEdit@@UAE@XZ:PROC				; CEdit::~CEdit
EXTRN	??_ECEdit@@UAEPAXI@Z:PROC			; CEdit::`vector deleting destructor'
EXTRN	?AfxMessageBox@@YGHPBDII@Z:PROC			; AfxMessageBox
EXTRN	?GetRuntimeClass@CCommonDialog@@UBEPAUCRuntimeClass@@XZ:PROC ; CCommonDialog::GetRuntimeClass
EXTRN	?OnOK@CCommonDialog@@MAEXXZ:PROC		; CCommonDialog::OnOK
EXTRN	?OnCancel@CCommonDialog@@MAEXXZ:PROC		; CCommonDialog::OnCancel
EXTRN	?GetMessageMap@CCommonDialog@@MBEPBUAFX_MSGMAP@@XZ:PROC ; CCommonDialog::GetMessageMap
EXTRN	??_ECCommonDialog@@UAEPAXI@Z:PROC		; CCommonDialog::`vector deleting destructor'
EXTRN	??0CColorDialog@@QAE@KKPAVCWnd@@@Z:PROC		; CColorDialog::CColorDialog
EXTRN	?DoModal@CColorDialog@@UAEHXZ:PROC		; CColorDialog::DoModal
EXTRN	?GetRuntimeClass@CDateTimeCtrl@@UBEPAUCRuntimeClass@@XZ:PROC ; CDateTimeCtrl::GetRuntimeClass
EXTRN	?Create@CDateTimeCtrl@@UAEHKABUtagRECT@@PAVCWnd@@I@Z:PROC ; CDateTimeCtrl::Create
EXTRN	?SetTime@CDateTimeCtrl@@QAEHPBVCTime@ATL@@@Z:PROC ; CDateTimeCtrl::SetTime
EXTRN	?GetTime@CDateTimeCtrl@@QBEKAAVCTime@ATL@@@Z:PROC ; CDateTimeCtrl::GetTime
EXTRN	??1CDateTimeCtrl@@UAE@XZ:PROC			; CDateTimeCtrl::~CDateTimeCtrl
EXTRN	??_ECDateTimeCtrl@@UAEPAXI@Z:PROC		; CDateTimeCtrl::`vector deleting destructor'
EXTRN	?Set@CPenEnvironment@@QAEXABV1@@Z:PROC		; CPenEnvironment::Set
EXTRN	?SetColor@CPenEnvironment@@QAEXABK@Z:PROC	; CPenEnvironment::SetColor
EXTRN	?SetWidth@CPenEnvironment@@QAEXH@Z:PROC		; CPenEnvironment::SetWidth
EXTRN	?SetStyle@CPenEnvironment@@QAEXW4PenStyle@CToolEnumData@@@Z:PROC ; CPenEnvironment::SetStyle
EXTRN	?GetColor@CPenEnvironment@@QBEKXZ:PROC		; CPenEnvironment::GetColor
EXTRN	?GetWidth@CPenEnvironment@@QBEHXZ:PROC		; CPenEnvironment::GetWidth
EXTRN	?GetStyle@CPenEnvironment@@QBE?AW4PenStyle@CToolEnumData@@XZ:PROC ; CPenEnvironment::GetStyle
EXTRN	?SetExtData@CDataTypeEnvironment@@QAEXABV?$CStringT@DV?$StrTraitMFC_DLL@DV?$ChTraitsCRT@D@ATL@@@@@ATL@@@Z:PROC ; CDataTypeEnvironment::SetExtData
EXTRN	?GetExtData@CDataTypeEnvironment@@QBE?AV?$CStringT@DV?$StrTraitMFC_DLL@DV?$ChTraitsCRT@D@ATL@@@@@ATL@@XZ:PROC ; CDataTypeEnvironment::GetExtData
EXTRN	??0CLineExtEnvironment@@QAE@XZ:PROC		; CLineExtEnvironment::CLineExtEnvironment
EXTRN	??0CLineExtEnvironment@@QAE@PAV0@@Z:PROC	; CLineExtEnvironment::CLineExtEnvironment
EXTRN	?Set@CLineExtEnvironment@@QAEXABV1@@Z:PROC	; CLineExtEnvironment::Set
EXTRN	?SetLineExt@CLineExtEnvironment@@QAEXABH0@Z:PROC ; CLineExtEnvironment::SetLineExt
EXTRN	?GetLeftExt@CLineExtEnvironment@@QBEHXZ:PROC	; CLineExtEnvironment::GetLeftExt
EXTRN	?GetRightExt@CLineExtEnvironment@@QBEHXZ:PROC	; CLineExtEnvironment::GetRightExt
EXTRN	?SetColor@CTextEnvironment@@QAEXABK@Z:PROC	; CTextEnvironment::SetColor
EXTRN	?GetTextEnvironment@CTextPosition@@QAEAAVCTextEnvironment@@XZ:PROC ; CTextPosition::GetTextEnvironment
EXTRN	??0CTextShowPosition@@QAE@XZ:PROC		; CTextShowPosition::CTextShowPosition
EXTRN	?SetShow@CTextShowPosition@@QAEX_N@Z:PROC	; CTextShowPosition::SetShow
EXTRN	?IsShow@CTextShowPosition@@QBE_NXZ:PROC		; CTextShowPosition::IsShow
EXTRN	??0CTextHorzPosition@@QAE@XZ:PROC		; CTextHorzPosition::CTextHorzPosition
EXTRN	?SetLeft@CTextHorzPosition@@QAEX_N@Z:PROC	; CTextHorzPosition::SetLeft
EXTRN	?SetRight@CTextHorzPosition@@QAEX_N@Z:PROC	; CTextHorzPosition::SetRight
EXTRN	?GetLeft@CTextHorzPosition@@QBE_NXZ:PROC	; CTextHorzPosition::GetLeft
EXTRN	?GetRight@CTextHorzPosition@@QBE_NXZ:PROC	; CTextHorzPosition::GetRight
EXTRN	??0CTextVertPosition@@QAE@XZ:PROC		; CTextVertPosition::CTextVertPosition
EXTRN	?SetTop@CTextVertPosition@@QAEX_N@Z:PROC	; CTextVertPosition::SetTop
EXTRN	?SetBottom@CTextVertPosition@@QAEX_N@Z:PROC	; CTextVertPosition::SetBottom
EXTRN	?GetTop@CTextVertPosition@@QBE_NXZ:PROC		; CTextVertPosition::GetTop
EXTRN	?GetBottom@CTextVertPosition@@QBE_NXZ:PROC	; CTextVertPosition::GetBottom
EXTRN	??0CTextHorzVertPosition@@QAE@XZ:PROC		; CTextHorzVertPosition::CTextHorzVertPosition
EXTRN	?SetLeft@CTextHorzVertPosition@@QAEX_N@Z:PROC	; CTextHorzVertPosition::SetLeft
EXTRN	?SetRight@CTextHorzVertPosition@@QAEX_N@Z:PROC	; CTextHorzVertPosition::SetRight
EXTRN	?SetTop@CTextHorzVertPosition@@QAEX_N@Z:PROC	; CTextHorzVertPosition::SetTop
EXTRN	?SetBottom@CTextHorzVertPosition@@QAEX_N@Z:PROC	; CTextHorzVertPosition::SetBottom
EXTRN	?GetLeft@CTextHorzVertPosition@@QBE_NXZ:PROC	; CTextHorzVertPosition::GetLeft
EXTRN	?GetRight@CTextHorzVertPosition@@QBE_NXZ:PROC	; CTextHorzVertPosition::GetRight
EXTRN	?GetTop@CTextHorzVertPosition@@QBE_NXZ:PROC	; CTextHorzVertPosition::GetTop
EXTRN	?GetBottom@CTextHorzVertPosition@@QBE_NXZ:PROC	; CTextHorzVertPosition::GetBottom
EXTRN	___std_exception_copy:PROC
EXTRN	___std_exception_destroy:PROC
EXTRN	??_Eexception@std@@UAEPAXI@Z:PROC		; std::exception::`vector deleting destructor'
EXTRN	??_Ebad_alloc@std@@UAEPAXI@Z:PROC		; std::bad_alloc::`vector deleting destructor'
EXTRN	??_Ebad_array_new_length@std@@UAEPAXI@Z:PROC	; std::bad_array_new_length::`vector deleting destructor'
EXTRN	?_Xlength_error@std@@YAXPBD@Z:PROC		; std::_Xlength_error
EXTRN	?GetX@CCoordinate@@QBENXZ:PROC			; CCoordinate::GetX
EXTRN	?GetY@CCoordinate@@QBENXZ:PROC			; CCoordinate::GetY
EXTRN	?SetX@CCoordinate@@QAEXABNH@Z:PROC		; CCoordinate::SetX
EXTRN	?SetY@CCoordinate@@QAEXABN@Z:PROC		; CCoordinate::SetY
EXTRN	??0CColorButton@@QAE@XZ:PROC			; CColorButton::CColorButton
EXTRN	?SetColor@CColorButton@@QAEXABK@Z:PROC		; CColorButton::SetColor
EXTRN	?GetColor@CColorButton@@QBEKXZ:PROC		; CColorButton::GetColor
EXTRN	?GetCount@CElementPointList@@QBEHXZ:PROC	; CElementPointList::GetCount
EXTRN	?GetAt@CElementPointList@@QAEPAVCCoordinate@@H@Z:PROC ; CElementPointList::GetAt
EXTRN	??0CBitmapComboBox@@QAE@XZ:PROC			; CBitmapComboBox::CBitmapComboBox
EXTRN	?LoadBitmapA@CBitmapComboBox@@QAEXHI@Z:PROC	; CBitmapComboBox::LoadBitmapA
EXTRN	??_ECDlgFiboSet@@UAEPAXI@Z:PROC			; CDlgFiboSet::`vector deleting destructor'
EXTRN	?GetStringData@CDataConversion@@SA?AV?$CStringT@DV?$StrTraitMFC_DLL@DV?$ChTraitsCRT@D@ATL@@@@@ATL@@AAV23@ABV23@_N@Z:PROC ; CDataConversion::GetStringData
EXTRN	@__security_check_cookie@4:PROC
EXTRN	__CxxThrowException@8:PROC
EXTRN	___CxxFrameHandler3:PROC
EXTRN	__ltod3:PROC
EXTRN	_memmove:PROC
EXTRN	_memset:PROC
EXTRN	??_7type_info@@6B@:QWORD			; type_info::`vftable'
EXTRN	?g_iMetaTable@@3VIMetaTable@@A:BYTE		; g_iMetaTable
EXTRN	___security_cookie:DWORD
EXTRN	__fltused:DWORD
;	COMDAT __xmm@00100000000000000010000000000000
CONST	SEGMENT
__xmm@00100000000000000010000000000000 DB 00H, 00H, 00H, 00H, 00H, 00H, 010H
	DB	00H, 00H, 00H, 00H, 00H, 00H, 00H, 010H, 00H
CONST	ENDS
;	COMDAT __real@4024000000000000
CONST	SEGMENT
__real@4024000000000000 DQ 04024000000000000r	; 10
CONST	ENDS
;	COMDAT __real@0000000000000000
CONST	SEGMENT
__real@0000000000000000 DQ 00000000000000000r	; 0
CONST	ENDS
;	COMDAT ??_R1A@?0A@EA@CDlgFiboSet@@8
rdata$r	SEGMENT
??_R1A@?0A@EA@CDlgFiboSet@@8 DD FLAT:??_R0?AVCDlgFiboSet@@@8 ; CDlgFiboSet::`RTTI Base Class Descriptor at (0,-1,0,64)'
	DD	04H
	DD	00H
	DD	0ffffffffH
	DD	00H
	DD	040H
	DD	FLAT:??_R3CDlgFiboSet@@8
rdata$r	ENDS
;	COMDAT ??_R2CDlgFiboSet@@8
rdata$r	SEGMENT
??_R2CDlgFiboSet@@8 DD FLAT:??_R1A@?0A@EA@CDlgFiboSet@@8 ; CDlgFiboSet::`RTTI Base Class Array'
	DD	FLAT:??_R1A@?0A@EA@CDialog@@8
	DD	FLAT:??_R1A@?0A@EA@CWnd@@8
	DD	FLAT:??_R1A@?0A@EA@CCmdTarget@@8
	DD	FLAT:??_R1A@?0A@EA@CObject@@8
rdata$r	ENDS
;	COMDAT ??_R3CDlgFiboSet@@8
rdata$r	SEGMENT
??_R3CDlgFiboSet@@8 DD 00H				; CDlgFiboSet::`RTTI Class Hierarchy Descriptor'
	DD	00H
	DD	05H
	DD	FLAT:??_R2CDlgFiboSet@@8
rdata$r	ENDS
;	COMDAT ??_R0?AVCDlgFiboSet@@@8
data$rs	SEGMENT
??_R0?AVCDlgFiboSet@@@8 DD FLAT:??_7type_info@@6B@	; CDlgFiboSet `RTTI Type Descriptor'
	DD	00H
	DB	'.?AVCDlgFiboSet@@', 00H
data$rs	ENDS
;	COMDAT ??_R4CDlgFiboSet@@6B@
rdata$r	SEGMENT
??_R4CDlgFiboSet@@6B@ DD 00H				; CDlgFiboSet::`RTTI Complete Object Locator'
	DD	00H
	DD	00H
	DD	FLAT:??_R0?AVCDlgFiboSet@@@8
	DD	FLAT:??_R3CDlgFiboSet@@8
rdata$r	ENDS
;	COMDAT ??_R1A@?0A@EA@bad_array_new_length@std@@8
rdata$r	SEGMENT
??_R1A@?0A@EA@bad_array_new_length@std@@8 DD FLAT:??_R0?AVbad_array_new_length@std@@@8 ; std::bad_array_new_length::`RTTI Base Class Descriptor at (0,-1,0,64)'
	DD	02H
	DD	00H
	DD	0ffffffffH
	DD	00H
	DD	040H
	DD	FLAT:??_R3bad_array_new_length@std@@8
rdata$r	ENDS
;	COMDAT ??_R2bad_array_new_length@std@@8
rdata$r	SEGMENT
??_R2bad_array_new_length@std@@8 DD FLAT:??_R1A@?0A@EA@bad_array_new_length@std@@8 ; std::bad_array_new_length::`RTTI Base Class Array'
	DD	FLAT:??_R1A@?0A@EA@bad_alloc@std@@8
	DD	FLAT:??_R1A@?0A@EA@exception@std@@8
rdata$r	ENDS
;	COMDAT ??_R3bad_array_new_length@std@@8
rdata$r	SEGMENT
??_R3bad_array_new_length@std@@8 DD 00H			; std::bad_array_new_length::`RTTI Class Hierarchy Descriptor'
	DD	00H
	DD	03H
	DD	FLAT:??_R2bad_array_new_length@std@@8
rdata$r	ENDS
;	COMDAT ??_R4bad_array_new_length@std@@6B@
rdata$r	SEGMENT
??_R4bad_array_new_length@std@@6B@ DD 00H		; std::bad_array_new_length::`RTTI Complete Object Locator'
	DD	00H
	DD	00H
	DD	FLAT:??_R0?AVbad_array_new_length@std@@@8
	DD	FLAT:??_R3bad_array_new_length@std@@8
rdata$r	ENDS
;	COMDAT ??_R1A@?0A@EA@bad_alloc@std@@8
rdata$r	SEGMENT
??_R1A@?0A@EA@bad_alloc@std@@8 DD FLAT:??_R0?AVbad_alloc@std@@@8 ; std::bad_alloc::`RTTI Base Class Descriptor at (0,-1,0,64)'
	DD	01H
	DD	00H
	DD	0ffffffffH
	DD	00H
	DD	040H
	DD	FLAT:??_R3bad_alloc@std@@8
rdata$r	ENDS
;	COMDAT ??_R2bad_alloc@std@@8
rdata$r	SEGMENT
??_R2bad_alloc@std@@8 DD FLAT:??_R1A@?0A@EA@bad_alloc@std@@8 ; std::bad_alloc::`RTTI Base Class Array'
	DD	FLAT:??_R1A@?0A@EA@exception@std@@8
rdata$r	ENDS
;	COMDAT ??_R3bad_alloc@std@@8
rdata$r	SEGMENT
??_R3bad_alloc@std@@8 DD 00H				; std::bad_alloc::`RTTI Class Hierarchy Descriptor'
	DD	00H
	DD	02H
	DD	FLAT:??_R2bad_alloc@std@@8
rdata$r	ENDS
;	COMDAT ??_R4bad_alloc@std@@6B@
rdata$r	SEGMENT
??_R4bad_alloc@std@@6B@ DD 00H				; std::bad_alloc::`RTTI Complete Object Locator'
	DD	00H
	DD	00H
	DD	FLAT:??_R0?AVbad_alloc@std@@@8
	DD	FLAT:??_R3bad_alloc@std@@8
rdata$r	ENDS
;	COMDAT ??_R1A@?0A@EA@exception@std@@8
rdata$r	SEGMENT
??_R1A@?0A@EA@exception@std@@8 DD FLAT:??_R0?AVexception@std@@@8 ; std::exception::`RTTI Base Class Descriptor at (0,-1,0,64)'
	DD	00H
	DD	00H
	DD	0ffffffffH
	DD	00H
	DD	040H
	DD	FLAT:??_R3exception@std@@8
rdata$r	ENDS
;	COMDAT ??_R2exception@std@@8
rdata$r	SEGMENT
??_R2exception@std@@8 DD FLAT:??_R1A@?0A@EA@exception@std@@8 ; std::exception::`RTTI Base Class Array'
rdata$r	ENDS
;	COMDAT ??_R3exception@std@@8
rdata$r	SEGMENT
??_R3exception@std@@8 DD 00H				; std::exception::`RTTI Class Hierarchy Descriptor'
	DD	00H
	DD	01H
	DD	FLAT:??_R2exception@std@@8
rdata$r	ENDS
;	COMDAT ??_R4exception@std@@6B@
rdata$r	SEGMENT
??_R4exception@std@@6B@ DD 00H				; std::exception::`RTTI Complete Object Locator'
	DD	00H
	DD	00H
	DD	FLAT:??_R0?AVexception@std@@@8
	DD	FLAT:??_R3exception@std@@8
rdata$r	ENDS
;	COMDAT ??_C@_0BC@KBDMBKEH@deque?$DMT?$DO?5too?5long@
CONST	SEGMENT
??_C@_0BC@KBDMBKEH@deque?$DMT?$DO?5too?5long@ DB 'deque<T> too long', 00H ; `string'
CONST	ENDS
;	COMDAT ??_C@_0P@NDLMDLNF@?$CF04d?$CF02d?$CF02d?$CFs@
CONST	SEGMENT
??_C@_0P@NDLMDLNF@?$CF04d?$CF02d?$CF02d?$CFs@ DB '%04d%02d%02d%s', 00H ; `string'
CONST	ENDS
;	COMDAT ??_C@_06GEKNBBDK@000000@
CONST	SEGMENT
??_C@_06GEKNBBDK@000000@ DB '000000', 00H		; `string'
CONST	ENDS
;	COMDAT ??_C@_02NJPGOMH@?$CFf@
CONST	SEGMENT
??_C@_02NJPGOMH@?$CFf@ DB '%f', 00H			; `string'
CONST	ENDS
;	COMDAT ??_C@_0M@NFOMEIHF@?$CFs?1?$CFs?9?$CFs?3?$CFs@
CONST	SEGMENT
??_C@_0M@NFOMEIHF@?$CFs?1?$CFs?9?$CFs?3?$CFs@ DB '%s/%s-%s:%s', 00H ; `string'
CONST	ENDS
;	COMDAT ??_C@_01GBGANLPD@0@
CONST	SEGMENT
??_C@_01GBGANLPD@0@ DB '0', 00H				; `string'
CONST	ENDS
;	COMDAT ??_C@_08IGKLELNK@?$CFs?1?$CFs?3?$CFs@
CONST	SEGMENT
??_C@_08IGKLELNK@?$CFs?1?$CFs?3?$CFs@ DB '%s/%s:%s', 00H ; `string'
CONST	ENDS
;	COMDAT ??_C@_03EICDNICE@?$CF?4f@
CONST	SEGMENT
??_C@_03EICDNICE@?$CF?4f@ DB '%.f', 00H			; `string'
CONST	ENDS
;	COMDAT ??_C@_0P@IMPIBBAB@YYYYMMDDHHMMSS@
CONST	SEGMENT
??_C@_0P@IMPIBBAB@YYYYMMDDHHMMSS@ DB 'YYYYMMDDHHMMSS', 00H ; `string'
CONST	ENDS
;	COMDAT ??_C@_0BA@JFLLJIBI@FiboCoefficient@
CONST	SEGMENT
??_C@_0BA@JFLLJIBI@FiboCoefficient@ DB 'FiboCoefficient', 00H ; `string'
CONST	ENDS
;	COMDAT ??_C@_0L@OIHNKLFE@LineWeight@
CONST	SEGMENT
??_C@_0L@OIHNKLFE@LineWeight@ DB 'LineWeight', 00H	; `string'
CONST	ENDS
;	COMDAT ??_C@_09LNOEOIHF@LineStyle@
CONST	SEGMENT
??_C@_09LNOEOIHF@LineStyle@ DB 'LineStyle', 00H		; `string'
CONST	ENDS
;	COMDAT ??_C@_03JALODAI@?$CFld@
CONST	SEGMENT
??_C@_03JALODAI@?$CFld@ DB '%ld', 00H			; `string'
CONST	ENDS
;	COMDAT ??_C@_09MJAANBBP@LineColor@
CONST	SEGMENT
??_C@_09MJAANBBP@LineColor@ DB 'LineColor', 00H		; `string'
CONST	ENDS
;	COMDAT ??_C@_0L@IDNOMKNG@FillRegion@
CONST	SEGMENT
??_C@_0L@IDNOMKNG@FillRegion@ DB 'FillRegion', 00H	; `string'
CONST	ENDS
;	COMDAT ??_C@_09LIIMEMPE@HLPercent@
CONST	SEGMENT
??_C@_09LIIMEMPE@HLPercent@ DB 'HLPercent', 00H		; `string'
CONST	ENDS
;	COMDAT ??_C@_0O@GNLODFPJ@PriceRangeDiv@
CONST	SEGMENT
??_C@_0O@GNLODFPJ@PriceRangeDiv@ DB 'PriceRangeDiv', 00H ; `string'
CONST	ENDS
;	COMDAT ??_C@_07FEGHFPHL@EquiDiv@
CONST	SEGMENT
??_C@_07FEGHFPHL@EquiDiv@ DB 'EquiDiv', 00H		; `string'
CONST	ENDS
;	COMDAT ??_C@_08JBGJKNHH@RightExt@
CONST	SEGMENT
??_C@_08JBGJKNHH@RightExt@ DB 'RightExt', 00H		; `string'
CONST	ENDS
;	COMDAT ??_C@_07FCOFBDCL@LeftExt@
CONST	SEGMENT
??_C@_07FCOFBDCL@LeftExt@ DB 'LeftExt', 00H		; `string'
CONST	ENDS
;	COMDAT ??_C@_09HDEKPJNE@RightText@
CONST	SEGMENT
??_C@_09HDEKPJNE@RightText@ DB 'RightText', 00H		; `string'
CONST	ENDS
;	COMDAT ??_C@_08BBFEGILF@LeftText@
CONST	SEGMENT
??_C@_08BBFEGILF@LeftText@ DB 'LeftText', 00H		; `string'
CONST	ENDS
;	COMDAT ??_C@_0L@KGKLHHNL@BottomText@
CONST	SEGMENT
??_C@_0L@KGKLHHNL@BottomText@ DB 'BottomText', 00H	; `string'
CONST	ENDS
;	COMDAT ??_C@_07ONLHAHEH@TopText@
CONST	SEGMENT
??_C@_07ONLHAHEH@TopText@ DB 'TopText', 00H		; `string'
CONST	ENDS
;	COMDAT ??_C@_04HDOCAJNK@?$CFs?$CFs@
CONST	SEGMENT
??_C@_04HDOCAJNK@?$CFs?$CFs@ DB '%s%s', 00H		; `string'
CONST	ENDS
;	COMDAT ??_C@_01IHBHIGKO@?0@
CONST	SEGMENT
??_C@_01IHBHIGKO@?0@ DB ',', 00H			; `string'
CONST	ENDS
;	COMDAT ??_C@_0BL@NNPKLAED@0?0236?0382?0500?0618?0786?01000@
CONST	SEGMENT
??_C@_0BL@NNPKLAED@0?0236?0382?0500?0618?0786?01000@ DB '0,236,382,500,61'
	DB	'8,786,1000', 00H				; `string'
CONST	ENDS
;	COMDAT ??_C@_0BI@PMLJCDKI@0?01?02?03?05?08?013?021?034?055@
CONST	SEGMENT
??_C@_0BI@PMLJCDKI@0?01?02?03?05?08?013?021?034?055@ DB '0,1,2,3,5,8,13,2'
	DB	'1,34,55', 00H				; `string'
CONST	ENDS
;	COMDAT ??_C@_0L@DFLJBNFO@?$CFs?$CI?$CF?41f?$CFs?$CJ@
CONST	SEGMENT
??_C@_0L@DFLJBNFO@?$CFs?$CI?$CF?41f?$CFs?$CJ@ DB '%s(%.1f%s)', 00H ; `string'
CONST	ENDS
;	COMDAT ??_C@_01FGNFDNOH@?$CF@
CONST	SEGMENT
??_C@_01FGNFDNOH@?$CF@ DB '%', 00H			; `string'
CONST	ENDS
;	COMDAT ?messageMap@?1??GetThisMessageMap@CDlgFiboSet@@KGPBUAFX_MSGMAP@@XZ@4U3@B
CONST	SEGMENT
?messageMap@?1??GetThisMessageMap@CDlgFiboSet@@KGPBUAFX_MSGMAP@@XZ@4U3@B DD FLAT:?GetThisMessageMap@CDialog@@KGPBUAFX_MSGMAP@@XZ ; `CDlgFiboSet::GetThisMessageMap'::`2'::messageMap
	DD	FLAT:?_messageEntries@?1??GetThisMessageMap@CDlgFiboSet@@KGPBUAFX_MSGMAP@@XZ@4QBUAFX_MSGMAP_ENTRY@@B
CONST	ENDS
;	COMDAT ?_messageEntries@?1??GetThisMessageMap@CDlgFiboSet@@KGPBUAFX_MSGMAP@@XZ@4QBUAFX_MSGMAP_ENTRY@@B
CONST	SEGMENT
?_messageEntries@?1??GetThisMessageMap@CDlgFiboSet@@KGPBUAFX_MSGMAP@@XZ@4QBUAFX_MSGMAP_ENTRY@@B DD 0111H ; `CDlgFiboSet::GetThisMessageMap'::`2'::_messageEntries
	DD	00H
	DD	01f45H
	DD	01f45H
	DD	03aH
	DD	FLAT:?OnColor@CDlgFiboSet@@IAEXXZ
	DD	0111H
	DD	00H
	DD	03H
	DD	03H
	DD	03aH
	DD	FLAT:?OnApplyBt@CDlgFiboSet@@IAEXXZ
	DD	0111H
	DD	01H
	DD	02363H
	DD	02363H
	DD	03aH
	DD	FLAT:?OnSelchangeWidth@CDlgFiboSet@@IAEXXZ
	DD	0111H
	DD	01H
	DD	0272eH
	DD	0272eH
	DD	03aH
	DD	FLAT:?OnSelchangeStyle@CDlgFiboSet@@IAEXXZ
	DD	04eH
	DD	0fd09H
	DD	042ceH
	DD	042ceH
	DD	03eH
	DD	FLAT:?OnDatetimechangeDatetimepickerXdate1@CDlgFiboSet@@IAEXPAUtagNMHDR@@PAJ@Z
	DD	04eH
	DD	0fd09H
	DD	042cfH
	DD	042cfH
	DD	03eH
	DD	FLAT:?OnDatetimechangeDatetimepickerXdate2@CDlgFiboSet@@IAEXPAUtagNMHDR@@PAJ@Z
	DD	04eH
	DD	0fd09H
	DD	042d0H
	DD	042d0H
	DD	03eH
	DD	FLAT:?OnDatetimechangeDatetimepickerXdate3@CDlgFiboSet@@IAEXPAUtagNMHDR@@PAJ@Z
	DD	0111H
	DD	00H
	DD	0fbcH
	DD	0fbcH
	DD	03aH
	DD	FLAT:?OnCancelBt@CDlgFiboSet@@IAEXXZ
	DD	0111H
	DD	00H
	DD	0fbbH
	DD	0fbbH
	DD	03aH
	DD	FLAT:?OnOkBt@CDlgFiboSet@@IAEXXZ
	DD	0111H
	DD	00H
	DD	0fbdH
	DD	0fc8H
	DD	03cH
	DD	FLAT:?OnCheck@CDlgFiboSet@@IAEXI@Z
	DD	00H
	DD	00H
	DD	00H
	DD	00H
	DD	00H
	DD	00H
CONST	ENDS
;	COMDAT ??_C@_0BA@ENJOCHIO@LoadResourceDLL@
CONST	SEGMENT
??_C@_0BA@ENJOCHIO@LoadResourceDLL@ DB 'LoadResourceDLL', 00H ; `string'
CONST	ENDS
;	COMDAT ??_C@_0BF@EGELCGDD@GetCurrentLanguageID@
CONST	SEGMENT
??_C@_0BF@EGELCGDD@GetCurrentLanguageID@ DB 'GetCurrentLanguageID', 00H ; `string'
CONST	ENDS
;	COMDAT ??_7CDlgFiboSet@@6B@
CONST	SEGMENT
??_7CDlgFiboSet@@6B@ DD FLAT:??_R4CDlgFiboSet@@6B@	; CDlgFiboSet::`vftable'
	DD	FLAT:?GetRuntimeClass@CDialog@@UBEPAUCRuntimeClass@@XZ
	DD	FLAT:??_ECDlgFiboSet@@UAEPAXI@Z
	DD	FLAT:?Serialize@CObject@@UAEXAAVCArchive@@@Z
	DD	FLAT:?AssertValid@CObject@@UBEXXZ
	DD	FLAT:?Dump@CObject@@UBEXAAVCDumpContext@@@Z
	DD	FLAT:?OnCmdMsg@CDialog@@UAEHIHPAXPAUAFX_CMDHANDLERINFO@@@Z
	DD	FLAT:?OnFinalRelease@CWnd@@UAEXXZ
	DD	FLAT:?IsInvokeAllowed@CCmdTarget@@UAEHJ@Z
	DD	FLAT:?GetDispatchIID@CCmdTarget@@UAEHPAU_GUID@@@Z
	DD	FLAT:?GetTypeInfoCount@CCmdTarget@@UAEIXZ
	DD	FLAT:?GetTypeLibCache@CCmdTarget@@UAEPAVCTypeLibCache@@XZ
	DD	FLAT:?GetTypeLib@CCmdTarget@@UAEJKPAPAUITypeLib@@@Z
	DD	FLAT:?GetMessageMap@CDlgFiboSet@@MBEPBUAFX_MSGMAP@@XZ
	DD	FLAT:?GetCommandMap@CCmdTarget@@MBEPBUAFX_OLECMDMAP@@XZ
	DD	FLAT:?GetDispatchMap@CCmdTarget@@MBEPBUAFX_DISPMAP@@XZ
	DD	FLAT:?GetConnectionMap@CCmdTarget@@MBEPBUAFX_CONNECTIONMAP@@XZ
	DD	FLAT:?GetInterfaceMap@CWnd@@MBEPBUAFX_INTERFACEMAP@@XZ
	DD	FLAT:?GetEventSinkMap@CCmdTarget@@MBEPBUAFX_EVENTSINKMAP@@XZ
	DD	FLAT:?OnCreateAggregates@CCmdTarget@@UAEHXZ
	DD	FLAT:?GetInterfaceHook@CCmdTarget@@UAEPAUIUnknown@@PBX@Z
	DD	FLAT:?GetExtraConnectionPoints@CCmdTarget@@MAEHPAVCPtrArray@@@Z
	DD	FLAT:?GetConnectionHook@CCmdTarget@@MAEPAUIConnectionPoint@@ABU_GUID@@@Z
	DD	FLAT:?PreSubclassWindow@CWnd@@UAEXXZ
	DD	FLAT:?Create@CWnd@@UAEHPBD0KABUtagRECT@@PAV1@IPAUCCreateContext@@@Z
	DD	FLAT:?CreateEx@CWnd@@UAEHKPBD0KABUtagRECT@@PAV1@IPAX@Z
	DD	FLAT:?CreateEx@CWnd@@UAEHKPBD0KHHHHPAUHWND__@@PAUHMENU__@@PAX@Z
	DD	FLAT:?DestroyWindow@CWnd@@UAEHXZ
	DD	FLAT:?PreCreateWindow@CWnd@@UAEHAAUtagCREATESTRUCTA@@@Z
	DD	FLAT:?CalcWindowRect@CWnd@@UAEXPAUtagRECT@@I@Z
	DD	FLAT:?GetMenu@CWnd@@UBEPAVCMenu@@XZ
	DD	FLAT:?SetMenu@CWnd@@UAEHPAVCMenu@@@Z
	DD	FLAT:?OnToolHitTest@CWnd@@UBEHVCPoint@@PAUtagTOOLINFOA@@@Z
	DD	FLAT:?GetScrollBarCtrl@CWnd@@UBEPAVCScrollBar@@H@Z
	DD	FLAT:?WinHelpA@CWnd@@UAEXKI@Z
	DD	FLAT:?HtmlHelpA@CWnd@@UAEXKI@Z
	DD	FLAT:?WinHelpInternal@CWnd@@UAEXKI@Z
	DD	FLAT:?ContinueModal@CWnd@@UAEHXZ
	DD	FLAT:?EndModalLoop@CWnd@@UAEXH@Z
	DD	FLAT:?OnDrawIconicThumbnailOrLivePreview@CWnd@@UAEXAAVCDC@@VCRect@@VCSize@@HAAH@Z
	DD	FLAT:?EnsureStdObj@CWnd@@UAEJXZ
	DD	FLAT:?get_accParent@CWnd@@UAEJPAPAUIDispatch@@@Z
	DD	FLAT:?get_accChildCount@CWnd@@UAEJPAJ@Z
	DD	FLAT:?get_accChild@CWnd@@UAEJUtagVARIANT@@PAPAUIDispatch@@@Z
	DD	FLAT:?get_accName@CWnd@@UAEJUtagVARIANT@@PAPA_W@Z
	DD	FLAT:?get_accValue@CWnd@@UAEJUtagVARIANT@@PAPA_W@Z
	DD	FLAT:?get_accDescription@CWnd@@UAEJUtagVARIANT@@PAPA_W@Z
	DD	FLAT:?get_accRole@CWnd@@UAEJUtagVARIANT@@PAU2@@Z
	DD	FLAT:?get_accState@CWnd@@UAEJUtagVARIANT@@PAU2@@Z
	DD	FLAT:?get_accHelp@CWnd@@UAEJUtagVARIANT@@PAPA_W@Z
	DD	FLAT:?get_accHelpTopic@CWnd@@UAEJPAPA_WUtagVARIANT@@PAJ@Z
	DD	FLAT:?get_accKeyboardShortcut@CWnd@@UAEJUtagVARIANT@@PAPA_W@Z
	DD	FLAT:?get_accFocus@CWnd@@UAEJPAUtagVARIANT@@@Z
	DD	FLAT:?get_accSelection@CWnd@@UAEJPAUtagVARIANT@@@Z
	DD	FLAT:?get_accDefaultAction@CWnd@@UAEJUtagVARIANT@@PAPA_W@Z
	DD	FLAT:?accSelect@CWnd@@UAEJJUtagVARIANT@@@Z
	DD	FLAT:?accLocation@CWnd@@UAEJPAJ000UtagVARIANT@@@Z
	DD	FLAT:?accNavigate@CWnd@@UAEJJUtagVARIANT@@PAU2@@Z
	DD	FLAT:?accHitTest@CWnd@@UAEJJJPAUtagVARIANT@@@Z
	DD	FLAT:?accDoDefaultAction@CWnd@@UAEJUtagVARIANT@@@Z
	DD	FLAT:?put_accName@CWnd@@UAEJUtagVARIANT@@PA_W@Z
	DD	FLAT:?put_accValue@CWnd@@UAEJUtagVARIANT@@PA_W@Z
	DD	FLAT:?SetProxy@CWnd@@UAEJPAUIAccessibleProxy@@@Z
	DD	FLAT:?CreateAccessibleProxy@CWnd@@UAEJIJPAJ@Z
	DD	FLAT:?OnCommand@CWnd@@MAEHIJ@Z
	DD	FLAT:?OnNotify@CWnd@@MAEHIJPAJ@Z
	DD	FLAT:?GetSuperWndProcAddr@CWnd@@MAEPAP6GJPAUHWND__@@IIJ@ZXZ
	DD	FLAT:?DoDataExchange@CDlgFiboSet@@MAEXPAVCDataExchange@@@Z
	DD	FLAT:?BeginModalState@CWnd@@UAEXXZ
	DD	FLAT:?EndModalState@CWnd@@UAEXXZ
	DD	FLAT:?PreTranslateMessage@CDialog@@UAEHPAUtagMSG@@@Z
	DD	FLAT:?OnAmbientProperty@CWnd@@UAEHPAVCOleControlSite@@JPAUtagVARIANT@@@Z
	DD	FLAT:?WindowProc@CWnd@@MAEJIIJ@Z
	DD	FLAT:?OnWndMsg@CWnd@@MAEHIIJPAJ@Z
	DD	FLAT:?DefWindowProcA@CWnd@@MAEJIIJ@Z
	DD	FLAT:?PostNcDestroy@CWnd@@MAEXXZ
	DD	FLAT:?OnChildNotify@CWnd@@MAEHIIJPAJ@Z
	DD	FLAT:?OnTouchInputs@CWnd@@MAEHIPAUtagTOUCHINPUT@@@Z
	DD	FLAT:?OnTouchInput@CWnd@@MAEHVCPoint@@HHPAUtagTOUCHINPUT@@@Z
	DD	FLAT:?GetGestureStatus@CWnd@@MAEKVCPoint@@@Z
	DD	FLAT:?OnGestureZoom@CWnd@@MAEHVCPoint@@J@Z
	DD	FLAT:?OnGesturePan@CWnd@@MAEHVCPoint@@0@Z
	DD	FLAT:?OnGestureRotate@CWnd@@MAEHVCPoint@@N@Z
	DD	FLAT:?OnGestureTwoFingerTap@CWnd@@MAEHVCPoint@@@Z
	DD	FLAT:?OnGesturePressAndTap@CWnd@@MAEHVCPoint@@J@Z
	DD	FLAT:?ResizeDynamicLayout@CWnd@@MAEXXZ
	DD	FLAT:?CheckAutoCenter@CDialog@@UAEHXZ
	DD	FLAT:?IsFrameWnd@CWnd@@UBEHXZ
	DD	FLAT:?CreateControlContainer@CWnd@@MAEHPAPAVCOleControlContainer@@@Z
	DD	FLAT:?CreateControlSite@CWnd@@MAEHPAVCOleControlContainer@@PAPAVCOleControlSite@@IABU_GUID@@@Z
	DD	FLAT:?SetOccDialogInfo@CDialog@@MAEHPAU_AFX_OCC_DIALOG_INFO@@@Z
	DD	FLAT:?GetOccDialogInfo@CDialog@@MAEPAU_AFX_OCC_DIALOG_INFO@@XZ
	DD	FLAT:?Create@CDialog@@UAEHIPAVCWnd@@@Z
	DD	FLAT:?Create@CDialog@@UAEHPBDPAVCWnd@@@Z
	DD	FLAT:?CreateIndirect@CDialog@@UAEHPAXPAVCWnd@@@Z
	DD	FLAT:?CreateIndirect@CDialog@@UAEHPBUDLGTEMPLATE@@PAVCWnd@@PAX@Z
	DD	FLAT:?DoModal@CDialog@@UAEHXZ
	DD	FLAT:?OnInitDialog@CDlgFiboSet@@MAEHXZ
	DD	FLAT:?OnSetFont@CDialog@@UAEXPAVCFont@@@Z
	DD	FLAT:?OnOK@CDialog@@MAEXXZ
	DD	FLAT:?OnCancel@CDialog@@MAEXXZ
	DD	FLAT:?PreInitDialog@CDialog@@MAEXXZ
CONST	ENDS
;	COMDAT ??_C@_0BF@BMLEKMON@AnalysisPropInfo?4ans@
CONST	SEGMENT
??_C@_0BF@BMLEKMON@AnalysisPropInfo?4ans@ DB 'AnalysisPropInfo.ans', 00H ; `string'
CONST	ENDS
;	COMDAT __CT??_R0?AVexception@std@@@8??0exception@std@@QAE@ABV01@@Z12
xdata$x	SEGMENT
__CT??_R0?AVexception@std@@@8??0exception@std@@QAE@ABV01@@Z12 DD 00H
	DD	FLAT:??_R0?AVexception@std@@@8
	DD	00H
	DD	0ffffffffH
	ORG $+4
	DD	0cH
	DD	FLAT:??0exception@std@@QAE@ABV01@@Z
xdata$x	ENDS
;	COMDAT ??_R0?AVexception@std@@@8
data$r	SEGMENT
??_R0?AVexception@std@@@8 DD FLAT:??_7type_info@@6B@	; std::exception `RTTI Type Descriptor'
	DD	00H
	DB	'.?AVexception@std@@', 00H
data$r	ENDS
;	COMDAT __CT??_R0?AVbad_alloc@std@@@8??0bad_alloc@std@@QAE@ABV01@@Z12
xdata$x	SEGMENT
__CT??_R0?AVbad_alloc@std@@@8??0bad_alloc@std@@QAE@ABV01@@Z12 DD 010H
	DD	FLAT:??_R0?AVbad_alloc@std@@@8
	DD	00H
	DD	0ffffffffH
	ORG $+4
	DD	0cH
	DD	FLAT:??0bad_alloc@std@@QAE@ABV01@@Z
xdata$x	ENDS
;	COMDAT ??_R0?AVbad_alloc@std@@@8
data$r	SEGMENT
??_R0?AVbad_alloc@std@@@8 DD FLAT:??_7type_info@@6B@	; std::bad_alloc `RTTI Type Descriptor'
	DD	00H
	DB	'.?AVbad_alloc@std@@', 00H
data$r	ENDS
;	COMDAT __CT??_R0?AVbad_array_new_length@std@@@8??0bad_array_new_length@std@@QAE@ABV01@@Z12
xdata$x	SEGMENT
__CT??_R0?AVbad_array_new_length@std@@@8??0bad_array_new_length@std@@QAE@ABV01@@Z12 DD 00H
	DD	FLAT:??_R0?AVbad_array_new_length@std@@@8
	DD	00H
	DD	0ffffffffH
	ORG $+4
	DD	0cH
	DD	FLAT:??0bad_array_new_length@std@@QAE@ABV01@@Z
xdata$x	ENDS
;	COMDAT ??_R0?AVbad_array_new_length@std@@@8
data$r	SEGMENT
??_R0?AVbad_array_new_length@std@@@8 DD FLAT:??_7type_info@@6B@ ; std::bad_array_new_length `RTTI Type Descriptor'
	DD	00H
	DB	'.?AVbad_array_new_length@std@@', 00H
data$r	ENDS
;	COMDAT __CTA3?AVbad_array_new_length@std@@
xdata$x	SEGMENT
__CTA3?AVbad_array_new_length@std@@ DD 03H
	DD	FLAT:__CT??_R0?AVbad_array_new_length@std@@@8??0bad_array_new_length@std@@QAE@ABV01@@Z12
	DD	FLAT:__CT??_R0?AVbad_alloc@std@@@8??0bad_alloc@std@@QAE@ABV01@@Z12
	DD	FLAT:__CT??_R0?AVexception@std@@@8??0exception@std@@QAE@ABV01@@Z12
xdata$x	ENDS
;	COMDAT __TI3?AVbad_array_new_length@std@@
xdata$x	SEGMENT
__TI3?AVbad_array_new_length@std@@ DD 00H
	DD	FLAT:??1bad_array_new_length@std@@UAE@XZ
	DD	00H
	DD	FLAT:__CTA3?AVbad_array_new_length@std@@
xdata$x	ENDS
;	COMDAT ??_C@_0BF@KINCDENJ@bad?5array?5new?5length@
CONST	SEGMENT
??_C@_0BF@KINCDENJ@bad?5array?5new?5length@ DB 'bad array new length', 00H ; `string'
CONST	ENDS
;	COMDAT ??_7bad_array_new_length@std@@6B@
CONST	SEGMENT
??_7bad_array_new_length@std@@6B@ DD FLAT:??_R4bad_array_new_length@std@@6B@ ; std::bad_array_new_length::`vftable'
	DD	FLAT:??_Ebad_array_new_length@std@@UAEPAXI@Z
	DD	FLAT:?what@exception@std@@UBEPBDXZ
CONST	ENDS
;	COMDAT ??_7bad_alloc@std@@6B@
CONST	SEGMENT
??_7bad_alloc@std@@6B@ DD FLAT:??_R4bad_alloc@std@@6B@	; std::bad_alloc::`vftable'
	DD	FLAT:??_Ebad_alloc@std@@UAEPAXI@Z
	DD	FLAT:?what@exception@std@@UBEPBDXZ
CONST	ENDS
;	COMDAT ??_C@_0BC@EOODALEL@Unknown?5exception@
CONST	SEGMENT
??_C@_0BC@EOODALEL@Unknown?5exception@ DB 'Unknown exception', 00H ; `string'
CONST	ENDS
;	COMDAT ??_7exception@std@@6B@
CONST	SEGMENT
??_7exception@std@@6B@ DD FLAT:??_R4exception@std@@6B@	; std::exception::`vftable'
	DD	FLAT:??_Eexception@std@@UAEPAXI@Z
	DD	FLAT:?what@exception@std@@UBEPBDXZ
CONST	ENDS
;	COMDAT ??_R1A@?0A@EA@CDateTimeCtrl@@8
rdata$r	SEGMENT
??_R1A@?0A@EA@CDateTimeCtrl@@8 DD FLAT:??_R0?AVCDateTimeCtrl@@@8 ; CDateTimeCtrl::`RTTI Base Class Descriptor at (0,-1,0,64)'
	DD	03H
	DD	00H
	DD	0ffffffffH
	DD	00H
	DD	040H
	DD	FLAT:??_R3CDateTimeCtrl@@8
rdata$r	ENDS
;	COMDAT ??_R2CDateTimeCtrl@@8
rdata$r	SEGMENT
??_R2CDateTimeCtrl@@8 DD FLAT:??_R1A@?0A@EA@CDateTimeCtrl@@8 ; CDateTimeCtrl::`RTTI Base Class Array'
	DD	FLAT:??_R1A@?0A@EA@CWnd@@8
	DD	FLAT:??_R1A@?0A@EA@CCmdTarget@@8
	DD	FLAT:??_R1A@?0A@EA@CObject@@8
rdata$r	ENDS
;	COMDAT ??_R3CDateTimeCtrl@@8
rdata$r	SEGMENT
??_R3CDateTimeCtrl@@8 DD 00H				; CDateTimeCtrl::`RTTI Class Hierarchy Descriptor'
	DD	00H
	DD	04H
	DD	FLAT:??_R2CDateTimeCtrl@@8
rdata$r	ENDS
;	COMDAT ??_R0?AVCDateTimeCtrl@@@8
data$rs	SEGMENT
??_R0?AVCDateTimeCtrl@@@8 DD FLAT:??_7type_info@@6B@	; CDateTimeCtrl `RTTI Type Descriptor'
	DD	00H
	DB	'.?AVCDateTimeCtrl@@', 00H
data$rs	ENDS
;	COMDAT ??_R4CDateTimeCtrl@@6B@
rdata$r	SEGMENT
??_R4CDateTimeCtrl@@6B@ DD 00H				; CDateTimeCtrl::`RTTI Complete Object Locator'
	DD	00H
	DD	00H
	DD	FLAT:??_R0?AVCDateTimeCtrl@@@8
	DD	FLAT:??_R3CDateTimeCtrl@@8
rdata$r	ENDS
;	COMDAT ??_R2CDialog@@8
rdata$r	SEGMENT
??_R2CDialog@@8 DD FLAT:??_R1A@?0A@EA@CDialog@@8	; CDialog::`RTTI Base Class Array'
	DD	FLAT:??_R1A@?0A@EA@CWnd@@8
	DD	FLAT:??_R1A@?0A@EA@CCmdTarget@@8
	DD	FLAT:??_R1A@?0A@EA@CObject@@8
rdata$r	ENDS
;	COMDAT ??_R3CDialog@@8
rdata$r	SEGMENT
??_R3CDialog@@8 DD 00H					; CDialog::`RTTI Class Hierarchy Descriptor'
	DD	00H
	DD	04H
	DD	FLAT:??_R2CDialog@@8
rdata$r	ENDS
;	COMDAT ??_R0?AVCDialog@@@8
data$rs	SEGMENT
??_R0?AVCDialog@@@8 DD FLAT:??_7type_info@@6B@		; CDialog `RTTI Type Descriptor'
	DD	00H
	DB	'.?AVCDialog@@', 00H
data$rs	ENDS
;	COMDAT ??_R1A@?0A@EA@CDialog@@8
rdata$r	SEGMENT
??_R1A@?0A@EA@CDialog@@8 DD FLAT:??_R0?AVCDialog@@@8	; CDialog::`RTTI Base Class Descriptor at (0,-1,0,64)'
	DD	03H
	DD	00H
	DD	0ffffffffH
	DD	00H
	DD	040H
	DD	FLAT:??_R3CDialog@@8
rdata$r	ENDS
;	COMDAT ??_R1A@?0A@EA@CCommonDialog@@8
rdata$r	SEGMENT
??_R1A@?0A@EA@CCommonDialog@@8 DD FLAT:??_R0?AVCCommonDialog@@@8 ; CCommonDialog::`RTTI Base Class Descriptor at (0,-1,0,64)'
	DD	04H
	DD	00H
	DD	0ffffffffH
	DD	00H
	DD	040H
	DD	FLAT:??_R3CCommonDialog@@8
rdata$r	ENDS
;	COMDAT ??_R2CCommonDialog@@8
rdata$r	SEGMENT
??_R2CCommonDialog@@8 DD FLAT:??_R1A@?0A@EA@CCommonDialog@@8 ; CCommonDialog::`RTTI Base Class Array'
	DD	FLAT:??_R1A@?0A@EA@CDialog@@8
	DD	FLAT:??_R1A@?0A@EA@CWnd@@8
	DD	FLAT:??_R1A@?0A@EA@CCmdTarget@@8
	DD	FLAT:??_R1A@?0A@EA@CObject@@8
rdata$r	ENDS
;	COMDAT ??_R3CCommonDialog@@8
rdata$r	SEGMENT
??_R3CCommonDialog@@8 DD 00H				; CCommonDialog::`RTTI Class Hierarchy Descriptor'
	DD	00H
	DD	05H
	DD	FLAT:??_R2CCommonDialog@@8
rdata$r	ENDS
;	COMDAT ??_R0?AVCCommonDialog@@@8
data$rs	SEGMENT
??_R0?AVCCommonDialog@@@8 DD FLAT:??_7type_info@@6B@	; CCommonDialog `RTTI Type Descriptor'
	DD	00H
	DB	'.?AVCCommonDialog@@', 00H
data$rs	ENDS
;	COMDAT ??_R4CCommonDialog@@6B@
rdata$r	SEGMENT
??_R4CCommonDialog@@6B@ DD 00H				; CCommonDialog::`RTTI Complete Object Locator'
	DD	00H
	DD	00H
	DD	FLAT:??_R0?AVCCommonDialog@@@8
	DD	FLAT:??_R3CCommonDialog@@8
rdata$r	ENDS
;	COMDAT ??_R1A@?0A@EA@CEdit@@8
rdata$r	SEGMENT
??_R1A@?0A@EA@CEdit@@8 DD FLAT:??_R0?AVCEdit@@@8	; CEdit::`RTTI Base Class Descriptor at (0,-1,0,64)'
	DD	03H
	DD	00H
	DD	0ffffffffH
	DD	00H
	DD	040H
	DD	FLAT:??_R3CEdit@@8
rdata$r	ENDS
;	COMDAT ??_R2CEdit@@8
rdata$r	SEGMENT
??_R2CEdit@@8 DD FLAT:??_R1A@?0A@EA@CEdit@@8		; CEdit::`RTTI Base Class Array'
	DD	FLAT:??_R1A@?0A@EA@CWnd@@8
	DD	FLAT:??_R1A@?0A@EA@CCmdTarget@@8
	DD	FLAT:??_R1A@?0A@EA@CObject@@8
rdata$r	ENDS
;	COMDAT ??_R3CEdit@@8
rdata$r	SEGMENT
??_R3CEdit@@8 DD 00H					; CEdit::`RTTI Class Hierarchy Descriptor'
	DD	00H
	DD	04H
	DD	FLAT:??_R2CEdit@@8
rdata$r	ENDS
;	COMDAT ??_R0?AVCEdit@@@8
data$rs	SEGMENT
??_R0?AVCEdit@@@8 DD FLAT:??_7type_info@@6B@		; CEdit `RTTI Type Descriptor'
	DD	00H
	DB	'.?AVCEdit@@', 00H
data$rs	ENDS
;	COMDAT ??_R4CEdit@@6B@
rdata$r	SEGMENT
??_R4CEdit@@6B@ DD 00H					; CEdit::`RTTI Complete Object Locator'
	DD	00H
	DD	00H
	DD	FLAT:??_R0?AVCEdit@@@8
	DD	FLAT:??_R3CEdit@@8
rdata$r	ENDS
;	COMDAT ??_R1A@?0A@EA@CButton@@8
rdata$r	SEGMENT
??_R1A@?0A@EA@CButton@@8 DD FLAT:??_R0?AVCButton@@@8	; CButton::`RTTI Base Class Descriptor at (0,-1,0,64)'
	DD	03H
	DD	00H
	DD	0ffffffffH
	DD	00H
	DD	040H
	DD	FLAT:??_R3CButton@@8
rdata$r	ENDS
;	COMDAT ??_R2CButton@@8
rdata$r	SEGMENT
??_R2CButton@@8 DD FLAT:??_R1A@?0A@EA@CButton@@8	; CButton::`RTTI Base Class Array'
	DD	FLAT:??_R1A@?0A@EA@CWnd@@8
	DD	FLAT:??_R1A@?0A@EA@CCmdTarget@@8
	DD	FLAT:??_R1A@?0A@EA@CObject@@8
rdata$r	ENDS
;	COMDAT ??_R3CButton@@8
rdata$r	SEGMENT
??_R3CButton@@8 DD 00H					; CButton::`RTTI Class Hierarchy Descriptor'
	DD	00H
	DD	04H
	DD	FLAT:??_R2CButton@@8
rdata$r	ENDS
;	COMDAT ??_R0?AVCButton@@@8
data$rs	SEGMENT
??_R0?AVCButton@@@8 DD FLAT:??_7type_info@@6B@		; CButton `RTTI Type Descriptor'
	DD	00H
	DB	'.?AVCButton@@', 00H
data$rs	ENDS
;	COMDAT ??_R4CButton@@6B@
rdata$r	SEGMENT
??_R4CButton@@6B@ DD 00H				; CButton::`RTTI Complete Object Locator'
	DD	00H
	DD	00H
	DD	FLAT:??_R0?AVCButton@@@8
	DD	FLAT:??_R3CButton@@8
rdata$r	ENDS
;	COMDAT ??_R2CCmdTarget@@8
rdata$r	SEGMENT
??_R2CCmdTarget@@8 DD FLAT:??_R1A@?0A@EA@CCmdTarget@@8	; CCmdTarget::`RTTI Base Class Array'
	DD	FLAT:??_R1A@?0A@EA@CObject@@8
rdata$r	ENDS
;	COMDAT ??_R3CCmdTarget@@8
rdata$r	SEGMENT
??_R3CCmdTarget@@8 DD 00H				; CCmdTarget::`RTTI Class Hierarchy Descriptor'
	DD	00H
	DD	02H
	DD	FLAT:??_R2CCmdTarget@@8
rdata$r	ENDS
;	COMDAT ??_R0?AVCCmdTarget@@@8
data$rs	SEGMENT
??_R0?AVCCmdTarget@@@8 DD FLAT:??_7type_info@@6B@	; CCmdTarget `RTTI Type Descriptor'
	DD	00H
	DB	'.?AVCCmdTarget@@', 00H
data$rs	ENDS
;	COMDAT ??_R1A@?0A@EA@CCmdTarget@@8
rdata$r	SEGMENT
??_R1A@?0A@EA@CCmdTarget@@8 DD FLAT:??_R0?AVCCmdTarget@@@8 ; CCmdTarget::`RTTI Base Class Descriptor at (0,-1,0,64)'
	DD	01H
	DD	00H
	DD	0ffffffffH
	DD	00H
	DD	040H
	DD	FLAT:??_R3CCmdTarget@@8
rdata$r	ENDS
;	COMDAT ??_R2CWnd@@8
rdata$r	SEGMENT
??_R2CWnd@@8 DD	FLAT:??_R1A@?0A@EA@CWnd@@8		; CWnd::`RTTI Base Class Array'
	DD	FLAT:??_R1A@?0A@EA@CCmdTarget@@8
	DD	FLAT:??_R1A@?0A@EA@CObject@@8
rdata$r	ENDS
;	COMDAT ??_R3CWnd@@8
rdata$r	SEGMENT
??_R3CWnd@@8 DD	00H					; CWnd::`RTTI Class Hierarchy Descriptor'
	DD	00H
	DD	03H
	DD	FLAT:??_R2CWnd@@8
rdata$r	ENDS
;	COMDAT ??_R0?AVCWnd@@@8
data$rs	SEGMENT
??_R0?AVCWnd@@@8 DD FLAT:??_7type_info@@6B@		; CWnd `RTTI Type Descriptor'
	DD	00H
	DB	'.?AVCWnd@@', 00H
data$rs	ENDS
;	COMDAT ??_R1A@?0A@EA@CWnd@@8
rdata$r	SEGMENT
??_R1A@?0A@EA@CWnd@@8 DD FLAT:??_R0?AVCWnd@@@8		; CWnd::`RTTI Base Class Descriptor at (0,-1,0,64)'
	DD	02H
	DD	00H
	DD	0ffffffffH
	DD	00H
	DD	040H
	DD	FLAT:??_R3CWnd@@8
rdata$r	ENDS
;	COMDAT ??_R1A@?0A@EA@CBitmap@@8
rdata$r	SEGMENT
??_R1A@?0A@EA@CBitmap@@8 DD FLAT:??_R0?AVCBitmap@@@8	; CBitmap::`RTTI Base Class Descriptor at (0,-1,0,64)'
	DD	02H
	DD	00H
	DD	0ffffffffH
	DD	00H
	DD	040H
	DD	FLAT:??_R3CBitmap@@8
rdata$r	ENDS
;	COMDAT ??_R2CBitmap@@8
rdata$r	SEGMENT
??_R2CBitmap@@8 DD FLAT:??_R1A@?0A@EA@CBitmap@@8	; CBitmap::`RTTI Base Class Array'
	DD	FLAT:??_R1A@?0A@EA@CGdiObject@@8
	DD	FLAT:??_R1A@?0A@EA@CObject@@8
rdata$r	ENDS
;	COMDAT ??_R3CBitmap@@8
rdata$r	SEGMENT
??_R3CBitmap@@8 DD 00H					; CBitmap::`RTTI Class Hierarchy Descriptor'
	DD	00H
	DD	03H
	DD	FLAT:??_R2CBitmap@@8
rdata$r	ENDS
;	COMDAT ??_R0?AVCBitmap@@@8
data$rs	SEGMENT
??_R0?AVCBitmap@@@8 DD FLAT:??_7type_info@@6B@		; CBitmap `RTTI Type Descriptor'
	DD	00H
	DB	'.?AVCBitmap@@', 00H
data$rs	ENDS
;	COMDAT ??_R4CBitmap@@6B@
rdata$r	SEGMENT
??_R4CBitmap@@6B@ DD 00H				; CBitmap::`RTTI Complete Object Locator'
	DD	00H
	DD	00H
	DD	FLAT:??_R0?AVCBitmap@@@8
	DD	FLAT:??_R3CBitmap@@8
rdata$r	ENDS
;	COMDAT ??_R1A@?0A@EA@CGdiObject@@8
rdata$r	SEGMENT
??_R1A@?0A@EA@CGdiObject@@8 DD FLAT:??_R0?AVCGdiObject@@@8 ; CGdiObject::`RTTI Base Class Descriptor at (0,-1,0,64)'
	DD	01H
	DD	00H
	DD	0ffffffffH
	DD	00H
	DD	040H
	DD	FLAT:??_R3CGdiObject@@8
rdata$r	ENDS
;	COMDAT ??_R2CGdiObject@@8
rdata$r	SEGMENT
??_R2CGdiObject@@8 DD FLAT:??_R1A@?0A@EA@CGdiObject@@8	; CGdiObject::`RTTI Base Class Array'
	DD	FLAT:??_R1A@?0A@EA@CObject@@8
rdata$r	ENDS
;	COMDAT ??_R3CGdiObject@@8
rdata$r	SEGMENT
??_R3CGdiObject@@8 DD 00H				; CGdiObject::`RTTI Class Hierarchy Descriptor'
	DD	00H
	DD	02H
	DD	FLAT:??_R2CGdiObject@@8
rdata$r	ENDS
;	COMDAT ??_R0?AVCGdiObject@@@8
data$rs	SEGMENT
??_R0?AVCGdiObject@@@8 DD FLAT:??_7type_info@@6B@	; CGdiObject `RTTI Type Descriptor'
	DD	00H
	DB	'.?AVCGdiObject@@', 00H
data$rs	ENDS
;	COMDAT ??_R4CGdiObject@@6B@
rdata$r	SEGMENT
??_R4CGdiObject@@6B@ DD 00H				; CGdiObject::`RTTI Complete Object Locator'
	DD	00H
	DD	00H
	DD	FLAT:??_R0?AVCGdiObject@@@8
	DD	FLAT:??_R3CGdiObject@@8
rdata$r	ENDS
;	COMDAT ??_R1A@?0A@EA@CObject@@8
rdata$r	SEGMENT
??_R1A@?0A@EA@CObject@@8 DD FLAT:??_R0?AVCObject@@@8	; CObject::`RTTI Base Class Descriptor at (0,-1,0,64)'
	DD	00H
	DD	00H
	DD	0ffffffffH
	DD	00H
	DD	040H
	DD	FLAT:??_R3CObject@@8
rdata$r	ENDS
;	COMDAT ??_R2CObject@@8
rdata$r	SEGMENT
??_R2CObject@@8 DD FLAT:??_R1A@?0A@EA@CObject@@8	; CObject::`RTTI Base Class Array'
rdata$r	ENDS
;	COMDAT ??_R3CObject@@8
rdata$r	SEGMENT
??_R3CObject@@8 DD 00H					; CObject::`RTTI Class Hierarchy Descriptor'
	DD	00H
	DD	01H
	DD	FLAT:??_R2CObject@@8
rdata$r	ENDS
;	COMDAT ??_R0?AVCObject@@@8
data$rs	SEGMENT
??_R0?AVCObject@@@8 DD FLAT:??_7type_info@@6B@		; CObject `RTTI Type Descriptor'
	DD	00H
	DB	'.?AVCObject@@', 00H
data$rs	ENDS
;	COMDAT ??_7CDateTimeCtrl@@6B@
CONST	SEGMENT
??_7CDateTimeCtrl@@6B@ DD FLAT:??_R4CDateTimeCtrl@@6B@	; CDateTimeCtrl::`vftable'
	DD	FLAT:?GetRuntimeClass@CDateTimeCtrl@@UBEPAUCRuntimeClass@@XZ
	DD	FLAT:??_ECDateTimeCtrl@@UAEPAXI@Z
	DD	FLAT:?Serialize@CObject@@UAEXAAVCArchive@@@Z
	DD	FLAT:?AssertValid@CObject@@UBEXXZ
	DD	FLAT:?Dump@CObject@@UBEXAAVCDumpContext@@@Z
	DD	FLAT:?OnCmdMsg@CCmdTarget@@UAEHIHPAXPAUAFX_CMDHANDLERINFO@@@Z
	DD	FLAT:?OnFinalRelease@CWnd@@UAEXXZ
	DD	FLAT:?IsInvokeAllowed@CCmdTarget@@UAEHJ@Z
	DD	FLAT:?GetDispatchIID@CCmdTarget@@UAEHPAU_GUID@@@Z
	DD	FLAT:?GetTypeInfoCount@CCmdTarget@@UAEIXZ
	DD	FLAT:?GetTypeLibCache@CCmdTarget@@UAEPAVCTypeLibCache@@XZ
	DD	FLAT:?GetTypeLib@CCmdTarget@@UAEJKPAPAUITypeLib@@@Z
	DD	FLAT:?GetMessageMap@CWnd@@MBEPBUAFX_MSGMAP@@XZ
	DD	FLAT:?GetCommandMap@CCmdTarget@@MBEPBUAFX_OLECMDMAP@@XZ
	DD	FLAT:?GetDispatchMap@CCmdTarget@@MBEPBUAFX_DISPMAP@@XZ
	DD	FLAT:?GetConnectionMap@CCmdTarget@@MBEPBUAFX_CONNECTIONMAP@@XZ
	DD	FLAT:?GetInterfaceMap@CWnd@@MBEPBUAFX_INTERFACEMAP@@XZ
	DD	FLAT:?GetEventSinkMap@CCmdTarget@@MBEPBUAFX_EVENTSINKMAP@@XZ
	DD	FLAT:?OnCreateAggregates@CCmdTarget@@UAEHXZ
	DD	FLAT:?GetInterfaceHook@CCmdTarget@@UAEPAUIUnknown@@PBX@Z
	DD	FLAT:?GetExtraConnectionPoints@CCmdTarget@@MAEHPAVCPtrArray@@@Z
	DD	FLAT:?GetConnectionHook@CCmdTarget@@MAEPAUIConnectionPoint@@ABU_GUID@@@Z
	DD	FLAT:?PreSubclassWindow@CWnd@@UAEXXZ
	DD	FLAT:?Create@CWnd@@UAEHPBD0KABUtagRECT@@PAV1@IPAUCCreateContext@@@Z
	DD	FLAT:?CreateEx@CWnd@@UAEHKPBD0KABUtagRECT@@PAV1@IPAX@Z
	DD	FLAT:?CreateEx@CWnd@@UAEHKPBD0KHHHHPAUHWND__@@PAUHMENU__@@PAX@Z
	DD	FLAT:?DestroyWindow@CWnd@@UAEHXZ
	DD	FLAT:?PreCreateWindow@CWnd@@UAEHAAUtagCREATESTRUCTA@@@Z
	DD	FLAT:?CalcWindowRect@CWnd@@UAEXPAUtagRECT@@I@Z
	DD	FLAT:?GetMenu@CWnd@@UBEPAVCMenu@@XZ
	DD	FLAT:?SetMenu@CWnd@@UAEHPAVCMenu@@@Z
	DD	FLAT:?OnToolHitTest@CWnd@@UBEHVCPoint@@PAUtagTOOLINFOA@@@Z
	DD	FLAT:?GetScrollBarCtrl@CWnd@@UBEPAVCScrollBar@@H@Z
	DD	FLAT:?WinHelpA@CWnd@@UAEXKI@Z
	DD	FLAT:?HtmlHelpA@CWnd@@UAEXKI@Z
	DD	FLAT:?WinHelpInternal@CWnd@@UAEXKI@Z
	DD	FLAT:?ContinueModal@CWnd@@UAEHXZ
	DD	FLAT:?EndModalLoop@CWnd@@UAEXH@Z
	DD	FLAT:?OnDrawIconicThumbnailOrLivePreview@CWnd@@UAEXAAVCDC@@VCRect@@VCSize@@HAAH@Z
	DD	FLAT:?EnsureStdObj@CWnd@@UAEJXZ
	DD	FLAT:?get_accParent@CWnd@@UAEJPAPAUIDispatch@@@Z
	DD	FLAT:?get_accChildCount@CWnd@@UAEJPAJ@Z
	DD	FLAT:?get_accChild@CWnd@@UAEJUtagVARIANT@@PAPAUIDispatch@@@Z
	DD	FLAT:?get_accName@CWnd@@UAEJUtagVARIANT@@PAPA_W@Z
	DD	FLAT:?get_accValue@CWnd@@UAEJUtagVARIANT@@PAPA_W@Z
	DD	FLAT:?get_accDescription@CWnd@@UAEJUtagVARIANT@@PAPA_W@Z
	DD	FLAT:?get_accRole@CWnd@@UAEJUtagVARIANT@@PAU2@@Z
	DD	FLAT:?get_accState@CWnd@@UAEJUtagVARIANT@@PAU2@@Z
	DD	FLAT:?get_accHelp@CWnd@@UAEJUtagVARIANT@@PAPA_W@Z
	DD	FLAT:?get_accHelpTopic@CWnd@@UAEJPAPA_WUtagVARIANT@@PAJ@Z
	DD	FLAT:?get_accKeyboardShortcut@CWnd@@UAEJUtagVARIANT@@PAPA_W@Z
	DD	FLAT:?get_accFocus@CWnd@@UAEJPAUtagVARIANT@@@Z
	DD	FLAT:?get_accSelection@CWnd@@UAEJPAUtagVARIANT@@@Z
	DD	FLAT:?get_accDefaultAction@CWnd@@UAEJUtagVARIANT@@PAPA_W@Z
	DD	FLAT:?accSelect@CWnd@@UAEJJUtagVARIANT@@@Z
	DD	FLAT:?accLocation@CWnd@@UAEJPAJ000UtagVARIANT@@@Z
	DD	FLAT:?accNavigate@CWnd@@UAEJJUtagVARIANT@@PAU2@@Z
	DD	FLAT:?accHitTest@CWnd@@UAEJJJPAUtagVARIANT@@@Z
	DD	FLAT:?accDoDefaultAction@CWnd@@UAEJUtagVARIANT@@@Z
	DD	FLAT:?put_accName@CWnd@@UAEJUtagVARIANT@@PA_W@Z
	DD	FLAT:?put_accValue@CWnd@@UAEJUtagVARIANT@@PA_W@Z
	DD	FLAT:?SetProxy@CWnd@@UAEJPAUIAccessibleProxy@@@Z
	DD	FLAT:?CreateAccessibleProxy@CWnd@@UAEJIJPAJ@Z
	DD	FLAT:?OnCommand@CWnd@@MAEHIJ@Z
	DD	FLAT:?OnNotify@CWnd@@MAEHIJPAJ@Z
	DD	FLAT:?GetSuperWndProcAddr@CWnd@@MAEPAP6GJPAUHWND__@@IIJ@ZXZ
	DD	FLAT:?DoDataExchange@CWnd@@MAEXPAVCDataExchange@@@Z
	DD	FLAT:?BeginModalState@CWnd@@UAEXXZ
	DD	FLAT:?EndModalState@CWnd@@UAEXXZ
	DD	FLAT:?PreTranslateMessage@CWnd@@UAEHPAUtagMSG@@@Z
	DD	FLAT:?OnAmbientProperty@CWnd@@UAEHPAVCOleControlSite@@JPAUtagVARIANT@@@Z
	DD	FLAT:?WindowProc@CWnd@@MAEJIIJ@Z
	DD	FLAT:?OnWndMsg@CWnd@@MAEHIIJPAJ@Z
	DD	FLAT:?DefWindowProcA@CWnd@@MAEJIIJ@Z
	DD	FLAT:?PostNcDestroy@CWnd@@MAEXXZ
	DD	FLAT:?OnChildNotify@CWnd@@MAEHIIJPAJ@Z
	DD	FLAT:?OnTouchInputs@CWnd@@MAEHIPAUtagTOUCHINPUT@@@Z
	DD	FLAT:?OnTouchInput@CWnd@@MAEHVCPoint@@HHPAUtagTOUCHINPUT@@@Z
	DD	FLAT:?GetGestureStatus@CWnd@@MAEKVCPoint@@@Z
	DD	FLAT:?OnGestureZoom@CWnd@@MAEHVCPoint@@J@Z
	DD	FLAT:?OnGesturePan@CWnd@@MAEHVCPoint@@0@Z
	DD	FLAT:?OnGestureRotate@CWnd@@MAEHVCPoint@@N@Z
	DD	FLAT:?OnGestureTwoFingerTap@CWnd@@MAEHVCPoint@@@Z
	DD	FLAT:?OnGesturePressAndTap@CWnd@@MAEHVCPoint@@J@Z
	DD	FLAT:?ResizeDynamicLayout@CWnd@@MAEXXZ
	DD	FLAT:?CheckAutoCenter@CWnd@@UAEHXZ
	DD	FLAT:?IsFrameWnd@CWnd@@UBEHXZ
	DD	FLAT:?CreateControlContainer@CWnd@@MAEHPAPAVCOleControlContainer@@@Z
	DD	FLAT:?CreateControlSite@CWnd@@MAEHPAVCOleControlContainer@@PAPAVCOleControlSite@@IABU_GUID@@@Z
	DD	FLAT:?SetOccDialogInfo@CWnd@@MAEHPAU_AFX_OCC_DIALOG_INFO@@@Z
	DD	FLAT:?GetOccDialogInfo@CWnd@@MAEPAU_AFX_OCC_DIALOG_INFO@@XZ
	DD	FLAT:?Create@CDateTimeCtrl@@UAEHKABUtagRECT@@PAVCWnd@@I@Z
CONST	ENDS
;	COMDAT ??_7CCommonDialog@@6B@
CONST	SEGMENT
??_7CCommonDialog@@6B@ DD FLAT:??_R4CCommonDialog@@6B@	; CCommonDialog::`vftable'
	DD	FLAT:?GetRuntimeClass@CCommonDialog@@UBEPAUCRuntimeClass@@XZ
	DD	FLAT:??_ECCommonDialog@@UAEPAXI@Z
	DD	FLAT:?Serialize@CObject@@UAEXAAVCArchive@@@Z
	DD	FLAT:?AssertValid@CObject@@UBEXXZ
	DD	FLAT:?Dump@CObject@@UBEXAAVCDumpContext@@@Z
	DD	FLAT:?OnCmdMsg@CDialog@@UAEHIHPAXPAUAFX_CMDHANDLERINFO@@@Z
	DD	FLAT:?OnFinalRelease@CWnd@@UAEXXZ
	DD	FLAT:?IsInvokeAllowed@CCmdTarget@@UAEHJ@Z
	DD	FLAT:?GetDispatchIID@CCmdTarget@@UAEHPAU_GUID@@@Z
	DD	FLAT:?GetTypeInfoCount@CCmdTarget@@UAEIXZ
	DD	FLAT:?GetTypeLibCache@CCmdTarget@@UAEPAVCTypeLibCache@@XZ
	DD	FLAT:?GetTypeLib@CCmdTarget@@UAEJKPAPAUITypeLib@@@Z
	DD	FLAT:?GetMessageMap@CCommonDialog@@MBEPBUAFX_MSGMAP@@XZ
	DD	FLAT:?GetCommandMap@CCmdTarget@@MBEPBUAFX_OLECMDMAP@@XZ
	DD	FLAT:?GetDispatchMap@CCmdTarget@@MBEPBUAFX_DISPMAP@@XZ
	DD	FLAT:?GetConnectionMap@CCmdTarget@@MBEPBUAFX_CONNECTIONMAP@@XZ
	DD	FLAT:?GetInterfaceMap@CWnd@@MBEPBUAFX_INTERFACEMAP@@XZ
	DD	FLAT:?GetEventSinkMap@CCmdTarget@@MBEPBUAFX_EVENTSINKMAP@@XZ
	DD	FLAT:?OnCreateAggregates@CCmdTarget@@UAEHXZ
	DD	FLAT:?GetInterfaceHook@CCmdTarget@@UAEPAUIUnknown@@PBX@Z
	DD	FLAT:?GetExtraConnectionPoints@CCmdTarget@@MAEHPAVCPtrArray@@@Z
	DD	FLAT:?GetConnectionHook@CCmdTarget@@MAEPAUIConnectionPoint@@ABU_GUID@@@Z
	DD	FLAT:?PreSubclassWindow@CWnd@@UAEXXZ
	DD	FLAT:?Create@CWnd@@UAEHPBD0KABUtagRECT@@PAV1@IPAUCCreateContext@@@Z
	DD	FLAT:?CreateEx@CWnd@@UAEHKPBD0KABUtagRECT@@PAV1@IPAX@Z
	DD	FLAT:?CreateEx@CWnd@@UAEHKPBD0KHHHHPAUHWND__@@PAUHMENU__@@PAX@Z
	DD	FLAT:?DestroyWindow@CWnd@@UAEHXZ
	DD	FLAT:?PreCreateWindow@CWnd@@UAEHAAUtagCREATESTRUCTA@@@Z
	DD	FLAT:?CalcWindowRect@CWnd@@UAEXPAUtagRECT@@I@Z
	DD	FLAT:?GetMenu@CWnd@@UBEPAVCMenu@@XZ
	DD	FLAT:?SetMenu@CWnd@@UAEHPAVCMenu@@@Z
	DD	FLAT:?OnToolHitTest@CWnd@@UBEHVCPoint@@PAUtagTOOLINFOA@@@Z
	DD	FLAT:?GetScrollBarCtrl@CWnd@@UBEPAVCScrollBar@@H@Z
	DD	FLAT:?WinHelpA@CWnd@@UAEXKI@Z
	DD	FLAT:?HtmlHelpA@CWnd@@UAEXKI@Z
	DD	FLAT:?WinHelpInternal@CWnd@@UAEXKI@Z
	DD	FLAT:?ContinueModal@CWnd@@UAEHXZ
	DD	FLAT:?EndModalLoop@CWnd@@UAEXH@Z
	DD	FLAT:?OnDrawIconicThumbnailOrLivePreview@CWnd@@UAEXAAVCDC@@VCRect@@VCSize@@HAAH@Z
	DD	FLAT:?EnsureStdObj@CWnd@@UAEJXZ
	DD	FLAT:?get_accParent@CWnd@@UAEJPAPAUIDispatch@@@Z
	DD	FLAT:?get_accChildCount@CWnd@@UAEJPAJ@Z
	DD	FLAT:?get_accChild@CWnd@@UAEJUtagVARIANT@@PAPAUIDispatch@@@Z
	DD	FLAT:?get_accName@CWnd@@UAEJUtagVARIANT@@PAPA_W@Z
	DD	FLAT:?get_accValue@CWnd@@UAEJUtagVARIANT@@PAPA_W@Z
	DD	FLAT:?get_accDescription@CWnd@@UAEJUtagVARIANT@@PAPA_W@Z
	DD	FLAT:?get_accRole@CWnd@@UAEJUtagVARIANT@@PAU2@@Z
	DD	FLAT:?get_accState@CWnd@@UAEJUtagVARIANT@@PAU2@@Z
	DD	FLAT:?get_accHelp@CWnd@@UAEJUtagVARIANT@@PAPA_W@Z
	DD	FLAT:?get_accHelpTopic@CWnd@@UAEJPAPA_WUtagVARIANT@@PAJ@Z
	DD	FLAT:?get_accKeyboardShortcut@CWnd@@UAEJUtagVARIANT@@PAPA_W@Z
	DD	FLAT:?get_accFocus@CWnd@@UAEJPAUtagVARIANT@@@Z
	DD	FLAT:?get_accSelection@CWnd@@UAEJPAUtagVARIANT@@@Z
	DD	FLAT:?get_accDefaultAction@CWnd@@UAEJUtagVARIANT@@PAPA_W@Z
	DD	FLAT:?accSelect@CWnd@@UAEJJUtagVARIANT@@@Z
	DD	FLAT:?accLocation@CWnd@@UAEJPAJ000UtagVARIANT@@@Z
	DD	FLAT:?accNavigate@CWnd@@UAEJJUtagVARIANT@@PAU2@@Z
	DD	FLAT:?accHitTest@CWnd@@UAEJJJPAUtagVARIANT@@@Z
	DD	FLAT:?accDoDefaultAction@CWnd@@UAEJUtagVARIANT@@@Z
	DD	FLAT:?put_accName@CWnd@@UAEJUtagVARIANT@@PA_W@Z
	DD	FLAT:?put_accValue@CWnd@@UAEJUtagVARIANT@@PA_W@Z
	DD	FLAT:?SetProxy@CWnd@@UAEJPAUIAccessibleProxy@@@Z
	DD	FLAT:?CreateAccessibleProxy@CWnd@@UAEJIJPAJ@Z
	DD	FLAT:?OnCommand@CWnd@@MAEHIJ@Z
	DD	FLAT:?OnNotify@CWnd@@MAEHIJPAJ@Z
	DD	FLAT:?GetSuperWndProcAddr@CWnd@@MAEPAP6GJPAUHWND__@@IIJ@ZXZ
	DD	FLAT:?DoDataExchange@CWnd@@MAEXPAVCDataExchange@@@Z
	DD	FLAT:?BeginModalState@CWnd@@UAEXXZ
	DD	FLAT:?EndModalState@CWnd@@UAEXXZ
	DD	FLAT:?PreTranslateMessage@CDialog@@UAEHPAUtagMSG@@@Z
	DD	FLAT:?OnAmbientProperty@CWnd@@UAEHPAVCOleControlSite@@JPAUtagVARIANT@@@Z
	DD	FLAT:?WindowProc@CWnd@@MAEJIIJ@Z
	DD	FLAT:?OnWndMsg@CWnd@@MAEHIIJPAJ@Z
	DD	FLAT:?DefWindowProcA@CWnd@@MAEJIIJ@Z
	DD	FLAT:?PostNcDestroy@CWnd@@MAEXXZ
	DD	FLAT:?OnChildNotify@CWnd@@MAEHIIJPAJ@Z
	DD	FLAT:?OnTouchInputs@CWnd@@MAEHIPAUtagTOUCHINPUT@@@Z
	DD	FLAT:?OnTouchInput@CWnd@@MAEHVCPoint@@HHPAUtagTOUCHINPUT@@@Z
	DD	FLAT:?GetGestureStatus@CWnd@@MAEKVCPoint@@@Z
	DD	FLAT:?OnGestureZoom@CWnd@@MAEHVCPoint@@J@Z
	DD	FLAT:?OnGesturePan@CWnd@@MAEHVCPoint@@0@Z
	DD	FLAT:?OnGestureRotate@CWnd@@MAEHVCPoint@@N@Z
	DD	FLAT:?OnGestureTwoFingerTap@CWnd@@MAEHVCPoint@@@Z
	DD	FLAT:?OnGesturePressAndTap@CWnd@@MAEHVCPoint@@J@Z
	DD	FLAT:?ResizeDynamicLayout@CWnd@@MAEXXZ
	DD	FLAT:?CheckAutoCenter@CDialog@@UAEHXZ
	DD	FLAT:?IsFrameWnd@CWnd@@UBEHXZ
	DD	FLAT:?CreateControlContainer@CWnd@@MAEHPAPAVCOleControlContainer@@@Z
	DD	FLAT:?CreateControlSite@CWnd@@MAEHPAVCOleControlContainer@@PAPAVCOleControlSite@@IABU_GUID@@@Z
	DD	FLAT:?SetOccDialogInfo@CDialog@@MAEHPAU_AFX_OCC_DIALOG_INFO@@@Z
	DD	FLAT:?GetOccDialogInfo@CDialog@@MAEPAU_AFX_OCC_DIALOG_INFO@@XZ
	DD	FLAT:?Create@CDialog@@UAEHIPAVCWnd@@@Z
	DD	FLAT:?Create@CDialog@@UAEHPBDPAVCWnd@@@Z
	DD	FLAT:?CreateIndirect@CDialog@@UAEHPAXPAVCWnd@@@Z
	DD	FLAT:?CreateIndirect@CDialog@@UAEHPBUDLGTEMPLATE@@PAVCWnd@@PAX@Z
	DD	FLAT:?DoModal@CDialog@@UAEHXZ
	DD	FLAT:?OnInitDialog@CDialog@@UAEHXZ
	DD	FLAT:?OnSetFont@CDialog@@UAEXPAVCFont@@@Z
	DD	FLAT:?OnOK@CCommonDialog@@MAEXXZ
	DD	FLAT:?OnCancel@CCommonDialog@@MAEXXZ
	DD	FLAT:?PreInitDialog@CDialog@@MAEXXZ
CONST	ENDS
;	COMDAT ??_C@_0N@OMEMOKLE@?$CFTs?5?$CI?$CFTs?3?$CFd?$CJ@
CONST	SEGMENT
??_C@_0N@OMEMOKLE@?$CFTs?5?$CI?$CFTs?3?$CFd?$CJ@ DB '%Ts (%Ts:%d)', 00H ; `string'
CONST	ENDS
;	COMDAT ??_C@_0BB@HBOOMJBF@?$CFTs?5?$CI?$CFTs?3?$CFd?$CJ?6?$CFTs@
CONST	SEGMENT
??_C@_0BB@HBOOMJBF@?$CFTs?5?$CI?$CFTs?3?$CFd?$CJ?6?$CFTs@ DB '%Ts (%Ts:%d'
	DB	')', 0aH, '%Ts', 00H				; `string'
CONST	ENDS
;	COMDAT ??_C@_0BP@OIEOKIDM@Exception?5thrown?5in?5destructor@
CONST	SEGMENT
??_C@_0BP@OIEOKIDM@Exception?5thrown?5in?5destructor@ DB 'Exception throw'
	DB	'n in destructor', 00H			; `string'
CONST	ENDS
;	COMDAT ??_C@_0HD@JJCHHHNK@C?3?2Program?5Files?5?$CIx86?$CJ?2Microsof@
CONST	SEGMENT
??_C@_0HD@JJCHHHNK@C?3?2Program?5Files?5?$CIx86?$CJ?2Microsof@ DB 'C:\Pro'
	DB	'gram Files (x86)\Microsoft Visual Studio\2019\Community\VC\To'
	DB	'ols\MSVC\14.29.30133\atlmfc\include\afxwin1.inl', 00H ; `string'
CONST	ENDS
;	COMDAT ??_7CEdit@@6B@
CONST	SEGMENT
??_7CEdit@@6B@ DD FLAT:??_R4CEdit@@6B@			; CEdit::`vftable'
	DD	FLAT:?GetRuntimeClass@CEdit@@UBEPAUCRuntimeClass@@XZ
	DD	FLAT:??_ECEdit@@UAEPAXI@Z
	DD	FLAT:?Serialize@CObject@@UAEXAAVCArchive@@@Z
	DD	FLAT:?AssertValid@CObject@@UBEXXZ
	DD	FLAT:?Dump@CObject@@UBEXAAVCDumpContext@@@Z
	DD	FLAT:?OnCmdMsg@CCmdTarget@@UAEHIHPAXPAUAFX_CMDHANDLERINFO@@@Z
	DD	FLAT:?OnFinalRelease@CWnd@@UAEXXZ
	DD	FLAT:?IsInvokeAllowed@CCmdTarget@@UAEHJ@Z
	DD	FLAT:?GetDispatchIID@CCmdTarget@@UAEHPAU_GUID@@@Z
	DD	FLAT:?GetTypeInfoCount@CCmdTarget@@UAEIXZ
	DD	FLAT:?GetTypeLibCache@CCmdTarget@@UAEPAVCTypeLibCache@@XZ
	DD	FLAT:?GetTypeLib@CCmdTarget@@UAEJKPAPAUITypeLib@@@Z
	DD	FLAT:?GetMessageMap@CWnd@@MBEPBUAFX_MSGMAP@@XZ
	DD	FLAT:?GetCommandMap@CCmdTarget@@MBEPBUAFX_OLECMDMAP@@XZ
	DD	FLAT:?GetDispatchMap@CCmdTarget@@MBEPBUAFX_DISPMAP@@XZ
	DD	FLAT:?GetConnectionMap@CCmdTarget@@MBEPBUAFX_CONNECTIONMAP@@XZ
	DD	FLAT:?GetInterfaceMap@CWnd@@MBEPBUAFX_INTERFACEMAP@@XZ
	DD	FLAT:?GetEventSinkMap@CCmdTarget@@MBEPBUAFX_EVENTSINKMAP@@XZ
	DD	FLAT:?OnCreateAggregates@CCmdTarget@@UAEHXZ
	DD	FLAT:?GetInterfaceHook@CCmdTarget@@UAEPAUIUnknown@@PBX@Z
	DD	FLAT:?GetExtraConnectionPoints@CCmdTarget@@MAEHPAVCPtrArray@@@Z
	DD	FLAT:?GetConnectionHook@CCmdTarget@@MAEPAUIConnectionPoint@@ABU_GUID@@@Z
	DD	FLAT:?PreSubclassWindow@CWnd@@UAEXXZ
	DD	FLAT:?Create@CWnd@@UAEHPBD0KABUtagRECT@@PAV1@IPAUCCreateContext@@@Z
	DD	FLAT:?CreateEx@CWnd@@UAEHKPBD0KABUtagRECT@@PAV1@IPAX@Z
	DD	FLAT:?CreateEx@CWnd@@UAEHKPBD0KHHHHPAUHWND__@@PAUHMENU__@@PAX@Z
	DD	FLAT:?DestroyWindow@CWnd@@UAEHXZ
	DD	FLAT:?PreCreateWindow@CWnd@@UAEHAAUtagCREATESTRUCTA@@@Z
	DD	FLAT:?CalcWindowRect@CWnd@@UAEXPAUtagRECT@@I@Z
	DD	FLAT:?GetMenu@CWnd@@UBEPAVCMenu@@XZ
	DD	FLAT:?SetMenu@CWnd@@UAEHPAVCMenu@@@Z
	DD	FLAT:?OnToolHitTest@CWnd@@UBEHVCPoint@@PAUtagTOOLINFOA@@@Z
	DD	FLAT:?GetScrollBarCtrl@CWnd@@UBEPAVCScrollBar@@H@Z
	DD	FLAT:?WinHelpA@CWnd@@UAEXKI@Z
	DD	FLAT:?HtmlHelpA@CWnd@@UAEXKI@Z
	DD	FLAT:?WinHelpInternal@CWnd@@UAEXKI@Z
	DD	FLAT:?ContinueModal@CWnd@@UAEHXZ
	DD	FLAT:?EndModalLoop@CWnd@@UAEXH@Z
	DD	FLAT:?OnDrawIconicThumbnailOrLivePreview@CWnd@@UAEXAAVCDC@@VCRect@@VCSize@@HAAH@Z
	DD	FLAT:?EnsureStdObj@CWnd@@UAEJXZ
	DD	FLAT:?get_accParent@CWnd@@UAEJPAPAUIDispatch@@@Z
	DD	FLAT:?get_accChildCount@CWnd@@UAEJPAJ@Z
	DD	FLAT:?get_accChild@CWnd@@UAEJUtagVARIANT@@PAPAUIDispatch@@@Z
	DD	FLAT:?get_accName@CWnd@@UAEJUtagVARIANT@@PAPA_W@Z
	DD	FLAT:?get_accValue@CWnd@@UAEJUtagVARIANT@@PAPA_W@Z
	DD	FLAT:?get_accDescription@CWnd@@UAEJUtagVARIANT@@PAPA_W@Z
	DD	FLAT:?get_accRole@CWnd@@UAEJUtagVARIANT@@PAU2@@Z
	DD	FLAT:?get_accState@CWnd@@UAEJUtagVARIANT@@PAU2@@Z
	DD	FLAT:?get_accHelp@CWnd@@UAEJUtagVARIANT@@PAPA_W@Z
	DD	FLAT:?get_accHelpTopic@CWnd@@UAEJPAPA_WUtagVARIANT@@PAJ@Z
	DD	FLAT:?get_accKeyboardShortcut@CWnd@@UAEJUtagVARIANT@@PAPA_W@Z
	DD	FLAT:?get_accFocus@CWnd@@UAEJPAUtagVARIANT@@@Z
	DD	FLAT:?get_accSelection@CWnd@@UAEJPAUtagVARIANT@@@Z
	DD	FLAT:?get_accDefaultAction@CWnd@@UAEJUtagVARIANT@@PAPA_W@Z
	DD	FLAT:?accSelect@CWnd@@UAEJJUtagVARIANT@@@Z
	DD	FLAT:?accLocation@CWnd@@UAEJPAJ000UtagVARIANT@@@Z
	DD	FLAT:?accNavigate@CWnd@@UAEJJUtagVARIANT@@PAU2@@Z
	DD	FLAT:?accHitTest@CWnd@@UAEJJJPAUtagVARIANT@@@Z
	DD	FLAT:?accDoDefaultAction@CWnd@@UAEJUtagVARIANT@@@Z
	DD	FLAT:?put_accName@CWnd@@UAEJUtagVARIANT@@PA_W@Z
	DD	FLAT:?put_accValue@CWnd@@UAEJUtagVARIANT@@PA_W@Z
	DD	FLAT:?SetProxy@CWnd@@UAEJPAUIAccessibleProxy@@@Z
	DD	FLAT:?CreateAccessibleProxy@CWnd@@UAEJIJPAJ@Z
	DD	FLAT:?OnCommand@CWnd@@MAEHIJ@Z
	DD	FLAT:?OnNotify@CWnd@@MAEHIJPAJ@Z
	DD	FLAT:?GetSuperWndProcAddr@CWnd@@MAEPAP6GJPAUHWND__@@IIJ@ZXZ
	DD	FLAT:?DoDataExchange@CWnd@@MAEXPAVCDataExchange@@@Z
	DD	FLAT:?BeginModalState@CWnd@@UAEXXZ
	DD	FLAT:?EndModalState@CWnd@@UAEXXZ
	DD	FLAT:?PreTranslateMessage@CWnd@@UAEHPAUtagMSG@@@Z
	DD	FLAT:?OnAmbientProperty@CWnd@@UAEHPAVCOleControlSite@@JPAUtagVARIANT@@@Z
	DD	FLAT:?WindowProc@CWnd@@MAEJIIJ@Z
	DD	FLAT:?OnWndMsg@CWnd@@MAEHIIJPAJ@Z
	DD	FLAT:?DefWindowProcA@CWnd@@MAEJIIJ@Z
	DD	FLAT:?PostNcDestroy@CWnd@@MAEXXZ
	DD	FLAT:?OnChildNotify@CWnd@@MAEHIIJPAJ@Z
	DD	FLAT:?OnTouchInputs@CWnd@@MAEHIPAUtagTOUCHINPUT@@@Z
	DD	FLAT:?OnTouchInput@CWnd@@MAEHVCPoint@@HHPAUtagTOUCHINPUT@@@Z
	DD	FLAT:?GetGestureStatus@CWnd@@MAEKVCPoint@@@Z
	DD	FLAT:?OnGestureZoom@CWnd@@MAEHVCPoint@@J@Z
	DD	FLAT:?OnGesturePan@CWnd@@MAEHVCPoint@@0@Z
	DD	FLAT:?OnGestureRotate@CWnd@@MAEHVCPoint@@N@Z
	DD	FLAT:?OnGestureTwoFingerTap@CWnd@@MAEHVCPoint@@@Z
	DD	FLAT:?OnGesturePressAndTap@CWnd@@MAEHVCPoint@@J@Z
	DD	FLAT:?ResizeDynamicLayout@CWnd@@MAEXXZ
	DD	FLAT:?CheckAutoCenter@CWnd@@UAEHXZ
	DD	FLAT:?IsFrameWnd@CWnd@@UBEHXZ
	DD	FLAT:?CreateControlContainer@CWnd@@MAEHPAPAVCOleControlContainer@@@Z
	DD	FLAT:?CreateControlSite@CWnd@@MAEHPAVCOleControlContainer@@PAPAVCOleControlSite@@IABU_GUID@@@Z
	DD	FLAT:?SetOccDialogInfo@CWnd@@MAEHPAU_AFX_OCC_DIALOG_INFO@@@Z
	DD	FLAT:?GetOccDialogInfo@CWnd@@MAEPAU_AFX_OCC_DIALOG_INFO@@XZ
CONST	ENDS
;	COMDAT ??_7CButton@@6B@
CONST	SEGMENT
??_7CButton@@6B@ DD FLAT:??_R4CButton@@6B@		; CButton::`vftable'
	DD	FLAT:?GetRuntimeClass@CButton@@UBEPAUCRuntimeClass@@XZ
	DD	FLAT:??_ECButton@@UAEPAXI@Z
	DD	FLAT:?Serialize@CObject@@UAEXAAVCArchive@@@Z
	DD	FLAT:?AssertValid@CObject@@UBEXXZ
	DD	FLAT:?Dump@CObject@@UBEXAAVCDumpContext@@@Z
	DD	FLAT:?OnCmdMsg@CCmdTarget@@UAEHIHPAXPAUAFX_CMDHANDLERINFO@@@Z
	DD	FLAT:?OnFinalRelease@CWnd@@UAEXXZ
	DD	FLAT:?IsInvokeAllowed@CCmdTarget@@UAEHJ@Z
	DD	FLAT:?GetDispatchIID@CCmdTarget@@UAEHPAU_GUID@@@Z
	DD	FLAT:?GetTypeInfoCount@CCmdTarget@@UAEIXZ
	DD	FLAT:?GetTypeLibCache@CCmdTarget@@UAEPAVCTypeLibCache@@XZ
	DD	FLAT:?GetTypeLib@CCmdTarget@@UAEJKPAPAUITypeLib@@@Z
	DD	FLAT:?GetMessageMap@CWnd@@MBEPBUAFX_MSGMAP@@XZ
	DD	FLAT:?GetCommandMap@CCmdTarget@@MBEPBUAFX_OLECMDMAP@@XZ
	DD	FLAT:?GetDispatchMap@CCmdTarget@@MBEPBUAFX_DISPMAP@@XZ
	DD	FLAT:?GetConnectionMap@CCmdTarget@@MBEPBUAFX_CONNECTIONMAP@@XZ
	DD	FLAT:?GetInterfaceMap@CWnd@@MBEPBUAFX_INTERFACEMAP@@XZ
	DD	FLAT:?GetEventSinkMap@CCmdTarget@@MBEPBUAFX_EVENTSINKMAP@@XZ
	DD	FLAT:?OnCreateAggregates@CCmdTarget@@UAEHXZ
	DD	FLAT:?GetInterfaceHook@CCmdTarget@@UAEPAUIUnknown@@PBX@Z
	DD	FLAT:?GetExtraConnectionPoints@CCmdTarget@@MAEHPAVCPtrArray@@@Z
	DD	FLAT:?GetConnectionHook@CCmdTarget@@MAEPAUIConnectionPoint@@ABU_GUID@@@Z
	DD	FLAT:?PreSubclassWindow@CWnd@@UAEXXZ
	DD	FLAT:?Create@CWnd@@UAEHPBD0KABUtagRECT@@PAV1@IPAUCCreateContext@@@Z
	DD	FLAT:?CreateEx@CWnd@@UAEHKPBD0KABUtagRECT@@PAV1@IPAX@Z
	DD	FLAT:?CreateEx@CWnd@@UAEHKPBD0KHHHHPAUHWND__@@PAUHMENU__@@PAX@Z
	DD	FLAT:?DestroyWindow@CWnd@@UAEHXZ
	DD	FLAT:?PreCreateWindow@CWnd@@UAEHAAUtagCREATESTRUCTA@@@Z
	DD	FLAT:?CalcWindowRect@CWnd@@UAEXPAUtagRECT@@I@Z
	DD	FLAT:?GetMenu@CWnd@@UBEPAVCMenu@@XZ
	DD	FLAT:?SetMenu@CWnd@@UAEHPAVCMenu@@@Z
	DD	FLAT:?OnToolHitTest@CWnd@@UBEHVCPoint@@PAUtagTOOLINFOA@@@Z
	DD	FLAT:?GetScrollBarCtrl@CWnd@@UBEPAVCScrollBar@@H@Z
	DD	FLAT:?WinHelpA@CWnd@@UAEXKI@Z
	DD	FLAT:?HtmlHelpA@CWnd@@UAEXKI@Z
	DD	FLAT:?WinHelpInternal@CWnd@@UAEXKI@Z
	DD	FLAT:?ContinueModal@CWnd@@UAEHXZ
	DD	FLAT:?EndModalLoop@CWnd@@UAEXH@Z
	DD	FLAT:?OnDrawIconicThumbnailOrLivePreview@CWnd@@UAEXAAVCDC@@VCRect@@VCSize@@HAAH@Z
	DD	FLAT:?EnsureStdObj@CWnd@@UAEJXZ
	DD	FLAT:?get_accParent@CWnd@@UAEJPAPAUIDispatch@@@Z
	DD	FLAT:?get_accChildCount@CWnd@@UAEJPAJ@Z
	DD	FLAT:?get_accChild@CWnd@@UAEJUtagVARIANT@@PAPAUIDispatch@@@Z
	DD	FLAT:?get_accName@CWnd@@UAEJUtagVARIANT@@PAPA_W@Z
	DD	FLAT:?get_accValue@CWnd@@UAEJUtagVARIANT@@PAPA_W@Z
	DD	FLAT:?get_accDescription@CWnd@@UAEJUtagVARIANT@@PAPA_W@Z
	DD	FLAT:?get_accRole@CWnd@@UAEJUtagVARIANT@@PAU2@@Z
	DD	FLAT:?get_accState@CWnd@@UAEJUtagVARIANT@@PAU2@@Z
	DD	FLAT:?get_accHelp@CWnd@@UAEJUtagVARIANT@@PAPA_W@Z
	DD	FLAT:?get_accHelpTopic@CWnd@@UAEJPAPA_WUtagVARIANT@@PAJ@Z
	DD	FLAT:?get_accKeyboardShortcut@CWnd@@UAEJUtagVARIANT@@PAPA_W@Z
	DD	FLAT:?get_accFocus@CWnd@@UAEJPAUtagVARIANT@@@Z
	DD	FLAT:?get_accSelection@CWnd@@UAEJPAUtagVARIANT@@@Z
	DD	FLAT:?get_accDefaultAction@CWnd@@UAEJUtagVARIANT@@PAPA_W@Z
	DD	FLAT:?accSelect@CWnd@@UAEJJUtagVARIANT@@@Z
	DD	FLAT:?accLocation@CWnd@@UAEJPAJ000UtagVARIANT@@@Z
	DD	FLAT:?accNavigate@CWnd@@UAEJJUtagVARIANT@@PAU2@@Z
	DD	FLAT:?accHitTest@CWnd@@UAEJJJPAUtagVARIANT@@@Z
	DD	FLAT:?accDoDefaultAction@CWnd@@UAEJUtagVARIANT@@@Z
	DD	FLAT:?put_accName@CWnd@@UAEJUtagVARIANT@@PA_W@Z
	DD	FLAT:?put_accValue@CWnd@@UAEJUtagVARIANT@@PA_W@Z
	DD	FLAT:?SetProxy@CWnd@@UAEJPAUIAccessibleProxy@@@Z
	DD	FLAT:?CreateAccessibleProxy@CWnd@@UAEJIJPAJ@Z
	DD	FLAT:?OnCommand@CWnd@@MAEHIJ@Z
	DD	FLAT:?OnNotify@CWnd@@MAEHIJPAJ@Z
	DD	FLAT:?GetSuperWndProcAddr@CWnd@@MAEPAP6GJPAUHWND__@@IIJ@ZXZ
	DD	FLAT:?DoDataExchange@CWnd@@MAEXPAVCDataExchange@@@Z
	DD	FLAT:?BeginModalState@CWnd@@UAEXXZ
	DD	FLAT:?EndModalState@CWnd@@UAEXXZ
	DD	FLAT:?PreTranslateMessage@CWnd@@UAEHPAUtagMSG@@@Z
	DD	FLAT:?OnAmbientProperty@CWnd@@UAEHPAVCOleControlSite@@JPAUtagVARIANT@@@Z
	DD	FLAT:?WindowProc@CWnd@@MAEJIIJ@Z
	DD	FLAT:?OnWndMsg@CWnd@@MAEHIIJPAJ@Z
	DD	FLAT:?DefWindowProcA@CWnd@@MAEJIIJ@Z
	DD	FLAT:?PostNcDestroy@CWnd@@MAEXXZ
	DD	FLAT:?OnChildNotify@CButton@@MAEHIIJPAJ@Z
	DD	FLAT:?OnTouchInputs@CWnd@@MAEHIPAUtagTOUCHINPUT@@@Z
	DD	FLAT:?OnTouchInput@CWnd@@MAEHVCPoint@@HHPAUtagTOUCHINPUT@@@Z
	DD	FLAT:?GetGestureStatus@CWnd@@MAEKVCPoint@@@Z
	DD	FLAT:?OnGestureZoom@CWnd@@MAEHVCPoint@@J@Z
	DD	FLAT:?OnGesturePan@CWnd@@MAEHVCPoint@@0@Z
	DD	FLAT:?OnGestureRotate@CWnd@@MAEHVCPoint@@N@Z
	DD	FLAT:?OnGestureTwoFingerTap@CWnd@@MAEHVCPoint@@@Z
	DD	FLAT:?OnGesturePressAndTap@CWnd@@MAEHVCPoint@@J@Z
	DD	FLAT:?ResizeDynamicLayout@CWnd@@MAEXXZ
	DD	FLAT:?CheckAutoCenter@CWnd@@UAEHXZ
	DD	FLAT:?IsFrameWnd@CWnd@@UBEHXZ
	DD	FLAT:?CreateControlContainer@CWnd@@MAEHPAPAVCOleControlContainer@@@Z
	DD	FLAT:?CreateControlSite@CWnd@@MAEHPAVCOleControlContainer@@PAPAVCOleControlSite@@IABU_GUID@@@Z
	DD	FLAT:?SetOccDialogInfo@CWnd@@MAEHPAU_AFX_OCC_DIALOG_INFO@@@Z
	DD	FLAT:?GetOccDialogInfo@CWnd@@MAEPAU_AFX_OCC_DIALOG_INFO@@XZ
	DD	FLAT:?Create@CButton@@UAEHPBDKABUtagRECT@@PAVCWnd@@I@Z
	DD	FLAT:?DrawItem@CButton@@UAEXPAUtagDRAWITEMSTRUCT@@@Z
CONST	ENDS
;	COMDAT ??_7CBitmap@@6B@
CONST	SEGMENT
??_7CBitmap@@6B@ DD FLAT:??_R4CBitmap@@6B@		; CBitmap::`vftable'
	DD	FLAT:?GetRuntimeClass@CBitmap@@UBEPAUCRuntimeClass@@XZ
	DD	FLAT:??_ECBitmap@@UAEPAXI@Z
	DD	FLAT:?Serialize@CObject@@UAEXAAVCArchive@@@Z
	DD	FLAT:?AssertValid@CObject@@UBEXXZ
	DD	FLAT:?Dump@CObject@@UBEXAAVCDumpContext@@@Z
CONST	ENDS
;	COMDAT ??_7CGdiObject@@6B@
CONST	SEGMENT
??_7CGdiObject@@6B@ DD FLAT:??_R4CGdiObject@@6B@	; CGdiObject::`vftable'
	DD	FLAT:?GetRuntimeClass@CGdiObject@@UBEPAUCRuntimeClass@@XZ
	DD	FLAT:??_ECGdiObject@@UAEPAXI@Z
	DD	FLAT:?Serialize@CObject@@UAEXAAVCArchive@@@Z
	DD	FLAT:?AssertValid@CObject@@UBEXXZ
	DD	FLAT:?Dump@CObject@@UBEXAAVCDumpContext@@@Z
CONST	ENDS
;	COMDAT ??_C@_02DPKJAMEF@?$CFd@
CONST	SEGMENT
??_C@_02DPKJAMEF@?$CFd@ DB '%d', 00H			; `string'
CONST	ENDS
;	COMDAT ??_R0PAVCException@@@8
data$r	SEGMENT
??_R0PAVCException@@@8 DD FLAT:??_7type_info@@6B@	; CException * `RTTI Type Descriptor'
	DD	00H
	DB	'.PAVCException@@', 00H
data$r	ENDS
;	COMDAT xdata$x
xdata$x	SEGMENT
__unwindtable$??$_Construct@V?$_Deque_unchecked_const_iterator@V?$_Deque_val@U?$_Deque_simple_types@PAVCCoordinate@@@std@@@std@@@std@@@?$deque@PAVCCoordinate@@V?$allocator@PAVCCoordinate@@@std@@@std@@AAEXV?$_Deque_unchecked_const_iterator@V?$_Deque_val@U?$_Deque_simple_types@PAVCCoordinate@@@std@@@std@@@1@0@Z DD 0ffffffffH
	DD	FLAT:__unwindfunclet$??$_Construct@V?$_Deque_unchecked_const_iterator@V?$_Deque_val@U?$_Deque_simple_types@PAVCCoordinate@@@std@@@std@@@std@@@?$deque@PAVCCoordinate@@V?$allocator@PAVCCoordinate@@@std@@@std@@AAEXV?$_Deque_unchecked_const_iterator@V?$_Deque_val@U?$_Deque_simple_types@PAVCCoordinate@@@std@@@std@@@1@0@Z$0
__ehfuncinfo$??$_Construct@V?$_Deque_unchecked_const_iterator@V?$_Deque_val@U?$_Deque_simple_types@PAVCCoordinate@@@std@@@std@@@std@@@?$deque@PAVCCoordinate@@V?$allocator@PAVCCoordinate@@@std@@@std@@AAEXV?$_Deque_unchecked_const_iterator@V?$_Deque_val@U?$_Deque_simple_types@PAVCCoordinate@@@std@@@std@@@1@0@Z DD 019930522H
	DD	01H
	DD	FLAT:__unwindtable$??$_Construct@V?$_Deque_unchecked_const_iterator@V?$_Deque_val@U?$_Deque_simple_types@PAVCCoordinate@@@std@@@std@@@std@@@?$deque@PAVCCoordinate@@V?$allocator@PAVCCoordinate@@@std@@@std@@AAEXV?$_Deque_unchecked_const_iterator@V?$_Deque_val@U?$_Deque_simple_types@PAVCCoordinate@@@std@@@std@@@1@0@Z
	DD	2 DUP(00H)
	DD	2 DUP(00H)
	DD	00H
	DD	01H
xdata$x	ENDS
;	COMDAT xdata$x
xdata$x	SEGMENT
__ehfuncinfo$??1CMultiLanguageResourceSetter@@QAE@XZ DD 019930522H
	DD	00H
	DD	00H
	DD	2 DUP(00H)
	DD	2 DUP(00H)
	DD	00H
	DD	05H
xdata$x	ENDS
;	COMDAT xdata$x
xdata$x	SEGMENT
__unwindtable$?SetDateValueLists@CDlgFiboSet@@AAEXXZ DD 0ffffffffH
	DD	FLAT:__unwindfunclet$?SetDateValueLists@CDlgFiboSet@@AAEXXZ$0
	DD	00H
	DD	FLAT:__unwindfunclet$?SetDateValueLists@CDlgFiboSet@@AAEXXZ$1
__ehfuncinfo$?SetDateValueLists@CDlgFiboSet@@AAEXXZ DD 019930522H
	DD	02H
	DD	FLAT:__unwindtable$?SetDateValueLists@CDlgFiboSet@@AAEXXZ
	DD	2 DUP(00H)
	DD	2 DUP(00H)
	DD	00H
	DD	01H
xdata$x	ENDS
;	COMDAT xdata$x
xdata$x	SEGMENT
__unwindtable$?InitializeData_Style@CDlgFiboSet@@AAEXXZ DD 0ffffffffH
	DD	FLAT:__unwindfunclet$?InitializeData_Style@CDlgFiboSet@@AAEXXZ$0
	DD	0ffffffffH
	DD	FLAT:___std_terminate
__ehfuncinfo$?InitializeData_Style@CDlgFiboSet@@AAEXXZ DD 019930522H
	DD	02H
	DD	FLAT:__unwindtable$?InitializeData_Style@CDlgFiboSet@@AAEXXZ
	DD	2 DUP(00H)
	DD	2 DUP(00H)
	DD	00H
	DD	01H
xdata$x	ENDS
;	COMDAT xdata$x
xdata$x	SEGMENT
__unwindtable$?InitializeData_Width@CDlgFiboSet@@AAEXXZ DD 0ffffffffH
	DD	FLAT:__unwindfunclet$?InitializeData_Width@CDlgFiboSet@@AAEXXZ$0
	DD	0ffffffffH
	DD	FLAT:___std_terminate
__ehfuncinfo$?InitializeData_Width@CDlgFiboSet@@AAEXXZ DD 019930522H
	DD	02H
	DD	FLAT:__unwindtable$?InitializeData_Width@CDlgFiboSet@@AAEXXZ
	DD	2 DUP(00H)
	DD	2 DUP(00H)
	DD	00H
	DD	01H
xdata$x	ENDS
;	COMDAT xdata$x
xdata$x	SEGMENT
__ehfuncinfo$?SetXDateTime@CDlgFiboSet@@IAEXNH@Z DD 019930522H
	DD	011H
	DD	FLAT:__unwindtable$?SetXDateTime@CDlgFiboSet@@IAEXNH@Z
	DD	2 DUP(00H)
	DD	2 DUP(00H)
	DD	00H
	DD	01H
__unwindtable$?SetXDateTime@CDlgFiboSet@@IAEXNH@Z DD 0ffffffffH
	DD	FLAT:__unwindfunclet$?SetXDateTime@CDlgFiboSet@@IAEXNH@Z$0
	DD	00H
	DD	FLAT:__unwindfunclet$?SetXDateTime@CDlgFiboSet@@IAEXNH@Z$4
	DD	01H
	DD	FLAT:__unwindfunclet$?SetXDateTime@CDlgFiboSet@@IAEXNH@Z$5
	DD	02H
	DD	FLAT:__unwindfunclet$?SetXDateTime@CDlgFiboSet@@IAEXNH@Z$6
	DD	03H
	DD	FLAT:__unwindfunclet$?SetXDateTime@CDlgFiboSet@@IAEXNH@Z$7
	DD	01H
	DD	FLAT:__unwindfunclet$?SetXDateTime@CDlgFiboSet@@IAEXNH@Z$8
	DD	05H
	DD	FLAT:__unwindfunclet$?SetXDateTime@CDlgFiboSet@@IAEXNH@Z$9
	DD	06H
	DD	FLAT:__unwindfunclet$?SetXDateTime@CDlgFiboSet@@IAEXNH@Z$10
	DD	01H
	DD	FLAT:__unwindfunclet$?SetXDateTime@CDlgFiboSet@@IAEXNH@Z$20
	DD	01H
	DD	FLAT:__unwindfunclet$?SetXDateTime@CDlgFiboSet@@IAEXNH@Z$12
	DD	09H
	DD	FLAT:__unwindfunclet$?SetXDateTime@CDlgFiboSet@@IAEXNH@Z$13
	DD	0aH
	DD	FLAT:__unwindfunclet$?SetXDateTime@CDlgFiboSet@@IAEXNH@Z$14
	DD	0bH
	DD	FLAT:__unwindfunclet$?SetXDateTime@CDlgFiboSet@@IAEXNH@Z$15
	DD	01H
	DD	FLAT:__unwindfunclet$?SetXDateTime@CDlgFiboSet@@IAEXNH@Z$16
	DD	0dH
	DD	FLAT:__unwindfunclet$?SetXDateTime@CDlgFiboSet@@IAEXNH@Z$17
	DD	0eH
	DD	FLAT:__unwindfunclet$?SetXDateTime@CDlgFiboSet@@IAEXNH@Z$18
	DD	0fH
	DD	FLAT:__unwindfunclet$?SetXDateTime@CDlgFiboSet@@IAEXNH@Z$19
xdata$x	ENDS
;	COMDAT xdata$x
xdata$x	SEGMENT
__unwindtable$?SetYValue@CDlgFiboSet@@IAEXNH@Z DD 0ffffffffH
	DD	FLAT:__unwindfunclet$?SetYValue@CDlgFiboSet@@IAEXNH@Z$0
__ehfuncinfo$?SetYValue@CDlgFiboSet@@IAEXNH@Z DD 019930522H
	DD	01H
	DD	FLAT:__unwindtable$?SetYValue@CDlgFiboSet@@IAEXNH@Z
	DD	2 DUP(00H)
	DD	2 DUP(00H)
	DD	00H
	DD	01H
xdata$x	ENDS
;	COMDAT xdata$x
xdata$x	SEGMENT
__ehfuncinfo$?SaveData@CDlgFiboSet@@IAEXXZ DD 019930522H
	DD	08H
	DD	FLAT:__unwindtable$?SaveData@CDlgFiboSet@@IAEXXZ
	DD	2 DUP(00H)
	DD	2 DUP(00H)
	DD	00H
	DD	01H
__unwindtable$?SaveData@CDlgFiboSet@@IAEXXZ DD 0ffffffffH
	DD	FLAT:__unwindfunclet$?SaveData@CDlgFiboSet@@IAEXXZ$0
	DD	00H
	DD	FLAT:__unwindfunclet$?SaveData@CDlgFiboSet@@IAEXXZ$1
	DD	01H
	DD	FLAT:__unwindfunclet$?SaveData@CDlgFiboSet@@IAEXXZ$2
	DD	01H
	DD	FLAT:__unwindfunclet$?SaveData@CDlgFiboSet@@IAEXXZ$3
	DD	03H
	DD	FLAT:__unwindfunclet$?SaveData@CDlgFiboSet@@IAEXXZ$4
	DD	04H
	DD	FLAT:__unwindfunclet$?SaveData@CDlgFiboSet@@IAEXXZ$5
	DD	05H
	DD	FLAT:__unwindfunclet$?SaveData@CDlgFiboSet@@IAEXXZ$6
	DD	06H
	DD	FLAT:__unwindfunclet$?SaveData@CDlgFiboSet@@IAEXXZ$7
xdata$x	ENDS
;	COMDAT xdata$x
xdata$x	SEGMENT
__unwindtable$?ApplyData@CDlgFiboSet@@IAEXXZ DD 0ffffffffH
	DD	FLAT:__unwindfunclet$?ApplyData@CDlgFiboSet@@IAEXXZ$0
__ehfuncinfo$?ApplyData@CDlgFiboSet@@IAEXXZ DD 019930522H
	DD	01H
	DD	FLAT:__unwindtable$?ApplyData@CDlgFiboSet@@IAEXXZ
	DD	2 DUP(00H)
	DD	2 DUP(00H)
	DD	00H
	DD	01H
xdata$x	ENDS
;	COMDAT xdata$x
xdata$x	SEGMENT
__ehfuncinfo$?InitializeData@CDlgFiboSet@@IAEXXZ DD 019930522H
	DD	017H
	DD	FLAT:__unwindtable$?InitializeData@CDlgFiboSet@@IAEXXZ
	DD	2 DUP(00H)
	DD	2 DUP(00H)
	DD	00H
	DD	01H
__unwindtable$?InitializeData@CDlgFiboSet@@IAEXXZ DD 0ffffffffH
	DD	FLAT:__unwindfunclet$?InitializeData@CDlgFiboSet@@IAEXXZ$12
	DD	0ffffffffH
	DD	FLAT:___std_terminate
	DD	0ffffffffH
	DD	FLAT:__unwindfunclet$?InitializeData@CDlgFiboSet@@IAEXXZ$14
	DD	0ffffffffH
	DD	FLAT:___std_terminate
	DD	0ffffffffH
	DD	FLAT:__unwindfunclet$?InitializeData@CDlgFiboSet@@IAEXXZ$0
	DD	04H
	DD	FLAT:__unwindfunclet$?InitializeData@CDlgFiboSet@@IAEXXZ$1
	DD	0ffffffffH
	DD	FLAT:___std_terminate
	DD	0ffffffffH
	DD	FLAT:__unwindfunclet$?InitializeData@CDlgFiboSet@@IAEXXZ$2
	DD	07H
	DD	FLAT:__unwindfunclet$?InitializeData@CDlgFiboSet@@IAEXXZ$3
	DD	0ffffffffH
	DD	FLAT:___std_terminate
	DD	0ffffffffH
	DD	FLAT:__unwindfunclet$?InitializeData@CDlgFiboSet@@IAEXXZ$4
	DD	0aH
	DD	FLAT:__unwindfunclet$?InitializeData@CDlgFiboSet@@IAEXXZ$5
	DD	0ffffffffH
	DD	FLAT:___std_terminate
	DD	0ffffffffH
	DD	FLAT:__unwindfunclet$?InitializeData@CDlgFiboSet@@IAEXXZ$6
	DD	0dH
	DD	FLAT:__unwindfunclet$?InitializeData@CDlgFiboSet@@IAEXXZ$7
	DD	0ffffffffH
	DD	FLAT:___std_terminate
	DD	0ffffffffH
	DD	FLAT:__unwindfunclet$?InitializeData@CDlgFiboSet@@IAEXXZ$8
	DD	010H
	DD	FLAT:__unwindfunclet$?InitializeData@CDlgFiboSet@@IAEXXZ$9
	DD	0ffffffffH
	DD	FLAT:___std_terminate
	DD	0ffffffffH
	DD	FLAT:__unwindfunclet$?InitializeData@CDlgFiboSet@@IAEXXZ$10
	DD	013H
	DD	FLAT:__unwindfunclet$?InitializeData@CDlgFiboSet@@IAEXXZ$11
	DD	0ffffffffH
	DD	FLAT:___std_terminate
	DD	0ffffffffH
	DD	FLAT:__unwindfunclet$?InitializeData@CDlgFiboSet@@IAEXXZ$22
xdata$x	ENDS
;	COMDAT xdata$x
xdata$x	SEGMENT
__unwindtable$?OnDatetimechangeDatetimepickerXdate3@CDlgFiboSet@@IAEXPAUtagNMHDR@@PAJ@Z DD 0ffffffffH
	DD	FLAT:__unwindfunclet$?OnDatetimechangeDatetimepickerXdate3@CDlgFiboSet@@IAEXPAUtagNMHDR@@PAJ@Z$0
__ehfuncinfo$?OnDatetimechangeDatetimepickerXdate3@CDlgFiboSet@@IAEXPAUtagNMHDR@@PAJ@Z DD 019930522H
	DD	01H
	DD	FLAT:__unwindtable$?OnDatetimechangeDatetimepickerXdate3@CDlgFiboSet@@IAEXPAUtagNMHDR@@PAJ@Z
	DD	2 DUP(00H)
	DD	2 DUP(00H)
	DD	00H
	DD	01H
xdata$x	ENDS
;	COMDAT xdata$x
xdata$x	SEGMENT
__unwindtable$?OnDatetimechangeDatetimepickerXdate2@CDlgFiboSet@@IAEXPAUtagNMHDR@@PAJ@Z DD 0ffffffffH
	DD	FLAT:__unwindfunclet$?OnDatetimechangeDatetimepickerXdate2@CDlgFiboSet@@IAEXPAUtagNMHDR@@PAJ@Z$0
__ehfuncinfo$?OnDatetimechangeDatetimepickerXdate2@CDlgFiboSet@@IAEXPAUtagNMHDR@@PAJ@Z DD 019930522H
	DD	01H
	DD	FLAT:__unwindtable$?OnDatetimechangeDatetimepickerXdate2@CDlgFiboSet@@IAEXPAUtagNMHDR@@PAJ@Z
	DD	2 DUP(00H)
	DD	2 DUP(00H)
	DD	00H
	DD	01H
xdata$x	ENDS
;	COMDAT xdata$x
xdata$x	SEGMENT
__unwindtable$?OnDatetimechangeDatetimepickerXdate1@CDlgFiboSet@@IAEXPAUtagNMHDR@@PAJ@Z DD 0ffffffffH
	DD	FLAT:__unwindfunclet$?OnDatetimechangeDatetimepickerXdate1@CDlgFiboSet@@IAEXPAUtagNMHDR@@PAJ@Z$0
__ehfuncinfo$?OnDatetimechangeDatetimepickerXdate1@CDlgFiboSet@@IAEXPAUtagNMHDR@@PAJ@Z DD 019930522H
	DD	01H
	DD	FLAT:__unwindtable$?OnDatetimechangeDatetimepickerXdate1@CDlgFiboSet@@IAEXPAUtagNMHDR@@PAJ@Z
	DD	2 DUP(00H)
	DD	2 DUP(00H)
	DD	00H
	DD	01H
xdata$x	ENDS
;	COMDAT xdata$x
xdata$x	SEGMENT
__unwindtable$?OnSelchangeStyle@CDlgFiboSet@@IAEXXZ DD 0ffffffffH
	DD	FLAT:__unwindfunclet$?OnSelchangeStyle@CDlgFiboSet@@IAEXXZ$0
	DD	00H
	DD	FLAT:__unwindfunclet$?OnSelchangeStyle@CDlgFiboSet@@IAEXXZ$1
	DD	0ffffffffH
	DD	FLAT:___std_terminate
__ehfuncinfo$?OnSelchangeStyle@CDlgFiboSet@@IAEXXZ DD 019930522H
	DD	03H
	DD	FLAT:__unwindtable$?OnSelchangeStyle@CDlgFiboSet@@IAEXXZ
	DD	2 DUP(00H)
	DD	2 DUP(00H)
	DD	00H
	DD	01H
xdata$x	ENDS
;	COMDAT xdata$x
xdata$x	SEGMENT
__unwindtable$?OnSelchangeWidth@CDlgFiboSet@@IAEXXZ DD 0ffffffffH
	DD	FLAT:__unwindfunclet$?OnSelchangeWidth@CDlgFiboSet@@IAEXXZ$0
	DD	00H
	DD	FLAT:__unwindfunclet$?OnSelchangeWidth@CDlgFiboSet@@IAEXXZ$1
	DD	0ffffffffH
	DD	FLAT:___std_terminate
__ehfuncinfo$?OnSelchangeWidth@CDlgFiboSet@@IAEXXZ DD 019930522H
	DD	03H
	DD	FLAT:__unwindtable$?OnSelchangeWidth@CDlgFiboSet@@IAEXXZ
	DD	2 DUP(00H)
	DD	2 DUP(00H)
	DD	00H
	DD	01H
xdata$x	ENDS
;	COMDAT xdata$x
xdata$x	SEGMENT
__unwindtable$?OnColor@CDlgFiboSet@@IAEXXZ DD 0ffffffffH
	DD	FLAT:__unwindfunclet$?OnColor@CDlgFiboSet@@IAEXXZ$0
__ehfuncinfo$?OnColor@CDlgFiboSet@@IAEXXZ DD 019930522H
	DD	01H
	DD	FLAT:__unwindtable$?OnColor@CDlgFiboSet@@IAEXXZ
	DD	2 DUP(00H)
	DD	2 DUP(00H)
	DD	00H
	DD	01H
xdata$x	ENDS
;	COMDAT xdata$x
xdata$x	SEGMENT
__ehfuncinfo$?OnInitDialog@CDlgFiboSet@@MAEHXZ DD 019930522H
	DD	06H
	DD	FLAT:__unwindtable$?OnInitDialog@CDlgFiboSet@@MAEHXZ
	DD	2 DUP(00H)
	DD	2 DUP(00H)
	DD	00H
	DD	01H
__unwindtable$?OnInitDialog@CDlgFiboSet@@MAEHXZ DD 0ffffffffH
	DD	FLAT:__unwindfunclet$?OnInitDialog@CDlgFiboSet@@MAEHXZ$0
	DD	0ffffffffH
	DD	FLAT:__unwindfunclet$?OnInitDialog@CDlgFiboSet@@MAEHXZ$1
	DD	01H
	DD	FLAT:__unwindfunclet$?OnInitDialog@CDlgFiboSet@@MAEHXZ$2
	DD	02H
	DD	FLAT:__unwindfunclet$?OnInitDialog@CDlgFiboSet@@MAEHXZ$3
	DD	03H
	DD	FLAT:__unwindfunclet$?OnInitDialog@CDlgFiboSet@@MAEHXZ$4
	DD	04H
	DD	FLAT:__unwindfunclet$?OnInitDialog@CDlgFiboSet@@MAEHXZ$5
xdata$x	ENDS
;	COMDAT xdata$x
xdata$x	SEGMENT
__ehfuncinfo$??0CDlgFiboSet@@QAE@PAVCWnd@@ABV?$CStringT@DV?$StrTraitMFC_DLL@DV?$ChTraitsCRT@D@ATL@@@@@ATL@@ABW4HORZSCALEDRAWERTYPE@CScaleBaseData@@HPAH3PAVCTextPosition@@PAVCPenEnvironment@@PAVCElementPointList@@PAVCLineExtEnvironment@@PAVCDataTypeEnvironment@@PAUIChartOCX133101@@AAVCBlockIndex@@V23@@Z DD 019930522H
	DD	01cH
	DD	FLAT:__unwindtable$??0CDlgFiboSet@@QAE@PAVCWnd@@ABV?$CStringT@DV?$StrTraitMFC_DLL@DV?$ChTraitsCRT@D@ATL@@@@@ATL@@ABW4HORZSCALEDRAWERTYPE@CScaleBaseData@@HPAH3PAVCTextPosition@@PAVCPenEnvironment@@PAVCElementPointList@@PAVCLineExtEnvironment@@PAVCDataTypeEnvironment@@PAUIChartOCX133101@@AAVCBlockIndex@@V23@@Z
	DD	2 DUP(00H)
	DD	2 DUP(00H)
	DD	00H
	DD	01H
__unwindtable$??0CDlgFiboSet@@QAE@PAVCWnd@@ABV?$CStringT@DV?$StrTraitMFC_DLL@DV?$ChTraitsCRT@D@ATL@@@@@ATL@@ABW4HORZSCALEDRAWERTYPE@CScaleBaseData@@HPAH3PAVCTextPosition@@PAVCPenEnvironment@@PAVCElementPointList@@PAVCLineExtEnvironment@@PAVCDataTypeEnvironment@@PAUIChartOCX133101@@AAVCBlockIndex@@V23@@Z DD 0ffffffffH
	DD	FLAT:__unwindfunclet$??0CDlgFiboSet@@QAE@PAVCWnd@@ABV?$CStringT@DV?$StrTraitMFC_DLL@DV?$ChTraitsCRT@D@ATL@@@@@ATL@@ABW4HORZSCALEDRAWERTYPE@CScaleBaseData@@HPAH3PAVCTextPosition@@PAVCPenEnvironment@@PAVCElementPointList@@PAVCLineExtEnvironment@@PAVCDataTypeEnvironment@@PAUIChartOCX133101@@AAVCBlockIndex@@V23@@Z$0
	DD	00H
	DD	FLAT:__unwindfunclet$??0CDlgFiboSet@@QAE@PAVCWnd@@ABV?$CStringT@DV?$StrTraitMFC_DLL@DV?$ChTraitsCRT@D@ATL@@@@@ATL@@ABW4HORZSCALEDRAWERTYPE@CScaleBaseData@@HPAH3PAVCTextPosition@@PAVCPenEnvironment@@PAVCElementPointList@@PAVCLineExtEnvironment@@PAVCDataTypeEnvironment@@PAUIChartOCX133101@@AAVCBlockIndex@@V23@@Z$1
	DD	01H
	DD	FLAT:__unwindfunclet$??0CDlgFiboSet@@QAE@PAVCWnd@@ABV?$CStringT@DV?$StrTraitMFC_DLL@DV?$ChTraitsCRT@D@ATL@@@@@ATL@@ABW4HORZSCALEDRAWERTYPE@CScaleBaseData@@HPAH3PAVCTextPosition@@PAVCPenEnvironment@@PAVCElementPointList@@PAVCLineExtEnvironment@@PAVCDataTypeEnvironment@@PAUIChartOCX133101@@AAVCBlockIndex@@V23@@Z$2
	DD	02H
	DD	FLAT:__unwindfunclet$??0CDlgFiboSet@@QAE@PAVCWnd@@ABV?$CStringT@DV?$StrTraitMFC_DLL@DV?$ChTraitsCRT@D@ATL@@@@@ATL@@ABW4HORZSCALEDRAWERTYPE@CScaleBaseData@@HPAH3PAVCTextPosition@@PAVCPenEnvironment@@PAVCElementPointList@@PAVCLineExtEnvironment@@PAVCDataTypeEnvironment@@PAUIChartOCX133101@@AAVCBlockIndex@@V23@@Z$3
	DD	03H
	DD	FLAT:__unwindfunclet$??0CDlgFiboSet@@QAE@PAVCWnd@@ABV?$CStringT@DV?$StrTraitMFC_DLL@DV?$ChTraitsCRT@D@ATL@@@@@ATL@@ABW4HORZSCALEDRAWERTYPE@CScaleBaseData@@HPAH3PAVCTextPosition@@PAVCPenEnvironment@@PAVCElementPointList@@PAVCLineExtEnvironment@@PAVCDataTypeEnvironment@@PAUIChartOCX133101@@AAVCBlockIndex@@V23@@Z$4
	DD	04H
	DD	FLAT:__unwindfunclet$??0CDlgFiboSet@@QAE@PAVCWnd@@ABV?$CStringT@DV?$StrTraitMFC_DLL@DV?$ChTraitsCRT@D@ATL@@@@@ATL@@ABW4HORZSCALEDRAWERTYPE@CScaleBaseData@@HPAH3PAVCTextPosition@@PAVCPenEnvironment@@PAVCElementPointList@@PAVCLineExtEnvironment@@PAVCDataTypeEnvironment@@PAUIChartOCX133101@@AAVCBlockIndex@@V23@@Z$5
	DD	05H
	DD	FLAT:__unwindfunclet$??0CDlgFiboSet@@QAE@PAVCWnd@@ABV?$CStringT@DV?$StrTraitMFC_DLL@DV?$ChTraitsCRT@D@ATL@@@@@ATL@@ABW4HORZSCALEDRAWERTYPE@CScaleBaseData@@HPAH3PAVCTextPosition@@PAVCPenEnvironment@@PAVCElementPointList@@PAVCLineExtEnvironment@@PAVCDataTypeEnvironment@@PAUIChartOCX133101@@AAVCBlockIndex@@V23@@Z$6
	DD	06H
	DD	FLAT:__unwindfunclet$??0CDlgFiboSet@@QAE@PAVCWnd@@ABV?$CStringT@DV?$StrTraitMFC_DLL@DV?$ChTraitsCRT@D@ATL@@@@@ATL@@ABW4HORZSCALEDRAWERTYPE@CScaleBaseData@@HPAH3PAVCTextPosition@@PAVCPenEnvironment@@PAVCElementPointList@@PAVCLineExtEnvironment@@PAVCDataTypeEnvironment@@PAUIChartOCX133101@@AAVCBlockIndex@@V23@@Z$7
	DD	07H
	DD	FLAT:__unwindfunclet$??0CDlgFiboSet@@QAE@PAVCWnd@@ABV?$CStringT@DV?$StrTraitMFC_DLL@DV?$ChTraitsCRT@D@ATL@@@@@ATL@@ABW4HORZSCALEDRAWERTYPE@CScaleBaseData@@HPAH3PAVCTextPosition@@PAVCPenEnvironment@@PAVCElementPointList@@PAVCLineExtEnvironment@@PAVCDataTypeEnvironment@@PAUIChartOCX133101@@AAVCBlockIndex@@V23@@Z$8
	DD	08H
	DD	FLAT:__unwindfunclet$??0CDlgFiboSet@@QAE@PAVCWnd@@ABV?$CStringT@DV?$StrTraitMFC_DLL@DV?$ChTraitsCRT@D@ATL@@@@@ATL@@ABW4HORZSCALEDRAWERTYPE@CScaleBaseData@@HPAH3PAVCTextPosition@@PAVCPenEnvironment@@PAVCElementPointList@@PAVCLineExtEnvironment@@PAVCDataTypeEnvironment@@PAUIChartOCX133101@@AAVCBlockIndex@@V23@@Z$9
	DD	09H
	DD	FLAT:__unwindfunclet$??0CDlgFiboSet@@QAE@PAVCWnd@@ABV?$CStringT@DV?$StrTraitMFC_DLL@DV?$ChTraitsCRT@D@ATL@@@@@ATL@@ABW4HORZSCALEDRAWERTYPE@CScaleBaseData@@HPAH3PAVCTextPosition@@PAVCPenEnvironment@@PAVCElementPointList@@PAVCLineExtEnvironment@@PAVCDataTypeEnvironment@@PAUIChartOCX133101@@AAVCBlockIndex@@V23@@Z$10
	DD	0aH
	DD	FLAT:__unwindfunclet$??0CDlgFiboSet@@QAE@PAVCWnd@@ABV?$CStringT@DV?$StrTraitMFC_DLL@DV?$ChTraitsCRT@D@ATL@@@@@ATL@@ABW4HORZSCALEDRAWERTYPE@CScaleBaseData@@HPAH3PAVCTextPosition@@PAVCPenEnvironment@@PAVCElementPointList@@PAVCLineExtEnvironment@@PAVCDataTypeEnvironment@@PAUIChartOCX133101@@AAVCBlockIndex@@V23@@Z$11
	DD	0bH
	DD	FLAT:__unwindfunclet$??0CDlgFiboSet@@QAE@PAVCWnd@@ABV?$CStringT@DV?$StrTraitMFC_DLL@DV?$ChTraitsCRT@D@ATL@@@@@ATL@@ABW4HORZSCALEDRAWERTYPE@CScaleBaseData@@HPAH3PAVCTextPosition@@PAVCPenEnvironment@@PAVCElementPointList@@PAVCLineExtEnvironment@@PAVCDataTypeEnvironment@@PAUIChartOCX133101@@AAVCBlockIndex@@V23@@Z$12
	DD	0cH
	DD	FLAT:__unwindfunclet$??0CDlgFiboSet@@QAE@PAVCWnd@@ABV?$CStringT@DV?$StrTraitMFC_DLL@DV?$ChTraitsCRT@D@ATL@@@@@ATL@@ABW4HORZSCALEDRAWERTYPE@CScaleBaseData@@HPAH3PAVCTextPosition@@PAVCPenEnvironment@@PAVCElementPointList@@PAVCLineExtEnvironment@@PAVCDataTypeEnvironment@@PAUIChartOCX133101@@AAVCBlockIndex@@V23@@Z$13
	DD	0dH
	DD	FLAT:__unwindfunclet$??0CDlgFiboSet@@QAE@PAVCWnd@@ABV?$CStringT@DV?$StrTraitMFC_DLL@DV?$ChTraitsCRT@D@ATL@@@@@ATL@@ABW4HORZSCALEDRAWERTYPE@CScaleBaseData@@HPAH3PAVCTextPosition@@PAVCPenEnvironment@@PAVCElementPointList@@PAVCLineExtEnvironment@@PAVCDataTypeEnvironment@@PAUIChartOCX133101@@AAVCBlockIndex@@V23@@Z$14
	DD	0eH
	DD	FLAT:__unwindfunclet$??0CDlgFiboSet@@QAE@PAVCWnd@@ABV?$CStringT@DV?$StrTraitMFC_DLL@DV?$ChTraitsCRT@D@ATL@@@@@ATL@@ABW4HORZSCALEDRAWERTYPE@CScaleBaseData@@HPAH3PAVCTextPosition@@PAVCPenEnvironment@@PAVCElementPointList@@PAVCLineExtEnvironment@@PAVCDataTypeEnvironment@@PAUIChartOCX133101@@AAVCBlockIndex@@V23@@Z$15
	DD	0fH
	DD	FLAT:__unwindfunclet$??0CDlgFiboSet@@QAE@PAVCWnd@@ABV?$CStringT@DV?$StrTraitMFC_DLL@DV?$ChTraitsCRT@D@ATL@@@@@ATL@@ABW4HORZSCALEDRAWERTYPE@CScaleBaseData@@HPAH3PAVCTextPosition@@PAVCPenEnvironment@@PAVCElementPointList@@PAVCLineExtEnvironment@@PAVCDataTypeEnvironment@@PAUIChartOCX133101@@AAVCBlockIndex@@V23@@Z$16
	DD	010H
	DD	FLAT:__unwindfunclet$??0CDlgFiboSet@@QAE@PAVCWnd@@ABV?$CStringT@DV?$StrTraitMFC_DLL@DV?$ChTraitsCRT@D@ATL@@@@@ATL@@ABW4HORZSCALEDRAWERTYPE@CScaleBaseData@@HPAH3PAVCTextPosition@@PAVCPenEnvironment@@PAVCElementPointList@@PAVCLineExtEnvironment@@PAVCDataTypeEnvironment@@PAUIChartOCX133101@@AAVCBlockIndex@@V23@@Z$17
	DD	011H
	DD	FLAT:__unwindfunclet$??0CDlgFiboSet@@QAE@PAVCWnd@@ABV?$CStringT@DV?$StrTraitMFC_DLL@DV?$ChTraitsCRT@D@ATL@@@@@ATL@@ABW4HORZSCALEDRAWERTYPE@CScaleBaseData@@HPAH3PAVCTextPosition@@PAVCPenEnvironment@@PAVCElementPointList@@PAVCLineExtEnvironment@@PAVCDataTypeEnvironment@@PAUIChartOCX133101@@AAVCBlockIndex@@V23@@Z$18
	DD	012H
	DD	FLAT:__unwindfunclet$??0CDlgFiboSet@@QAE@PAVCWnd@@ABV?$CStringT@DV?$StrTraitMFC_DLL@DV?$ChTraitsCRT@D@ATL@@@@@ATL@@ABW4HORZSCALEDRAWERTYPE@CScaleBaseData@@HPAH3PAVCTextPosition@@PAVCPenEnvironment@@PAVCElementPointList@@PAVCLineExtEnvironment@@PAVCDataTypeEnvironment@@PAUIChartOCX133101@@AAVCBlockIndex@@V23@@Z$19
	DD	013H
	DD	FLAT:__unwindfunclet$??0CDlgFiboSet@@QAE@PAVCWnd@@ABV?$CStringT@DV?$StrTraitMFC_DLL@DV?$ChTraitsCRT@D@ATL@@@@@ATL@@ABW4HORZSCALEDRAWERTYPE@CScaleBaseData@@HPAH3PAVCTextPosition@@PAVCPenEnvironment@@PAVCElementPointList@@PAVCLineExtEnvironment@@PAVCDataTypeEnvironment@@PAUIChartOCX133101@@AAVCBlockIndex@@V23@@Z$20
	DD	014H
	DD	FLAT:__unwindfunclet$??0CDlgFiboSet@@QAE@PAVCWnd@@ABV?$CStringT@DV?$StrTraitMFC_DLL@DV?$ChTraitsCRT@D@ATL@@@@@ATL@@ABW4HORZSCALEDRAWERTYPE@CScaleBaseData@@HPAH3PAVCTextPosition@@PAVCPenEnvironment@@PAVCElementPointList@@PAVCLineExtEnvironment@@PAVCDataTypeEnvironment@@PAUIChartOCX133101@@AAVCBlockIndex@@V23@@Z$21
	DD	015H
	DD	FLAT:__unwindfunclet$??0CDlgFiboSet@@QAE@PAVCWnd@@ABV?$CStringT@DV?$StrTraitMFC_DLL@DV?$ChTraitsCRT@D@ATL@@@@@ATL@@ABW4HORZSCALEDRAWERTYPE@CScaleBaseData@@HPAH3PAVCTextPosition@@PAVCPenEnvironment@@PAVCElementPointList@@PAVCLineExtEnvironment@@PAVCDataTypeEnvironment@@PAUIChartOCX133101@@AAVCBlockIndex@@V23@@Z$22
	DD	016H
	DD	FLAT:__unwindfunclet$??0CDlgFiboSet@@QAE@PAVCWnd@@ABV?$CStringT@DV?$StrTraitMFC_DLL@DV?$ChTraitsCRT@D@ATL@@@@@ATL@@ABW4HORZSCALEDRAWERTYPE@CScaleBaseData@@HPAH3PAVCTextPosition@@PAVCPenEnvironment@@PAVCElementPointList@@PAVCLineExtEnvironment@@PAVCDataTypeEnvironment@@PAUIChartOCX133101@@AAVCBlockIndex@@V23@@Z$23
	DD	017H
	DD	FLAT:__unwindfunclet$??0CDlgFiboSet@@QAE@PAVCWnd@@ABV?$CStringT@DV?$StrTraitMFC_DLL@DV?$ChTraitsCRT@D@ATL@@@@@ATL@@ABW4HORZSCALEDRAWERTYPE@CScaleBaseData@@HPAH3PAVCTextPosition@@PAVCPenEnvironment@@PAVCElementPointList@@PAVCLineExtEnvironment@@PAVCDataTypeEnvironment@@PAUIChartOCX133101@@AAVCBlockIndex@@V23@@Z$24
	DD	018H
	DD	FLAT:__unwindfunclet$??0CDlgFiboSet@@QAE@PAVCWnd@@ABV?$CStringT@DV?$StrTraitMFC_DLL@DV?$ChTraitsCRT@D@ATL@@@@@ATL@@ABW4HORZSCALEDRAWERTYPE@CScaleBaseData@@HPAH3PAVCTextPosition@@PAVCPenEnvironment@@PAVCElementPointList@@PAVCLineExtEnvironment@@PAVCDataTypeEnvironment@@PAUIChartOCX133101@@AAVCBlockIndex@@V23@@Z$25
	DD	019H
	DD	FLAT:__unwindfunclet$??0CDlgFiboSet@@QAE@PAVCWnd@@ABV?$CStringT@DV?$StrTraitMFC_DLL@DV?$ChTraitsCRT@D@ATL@@@@@ATL@@ABW4HORZSCALEDRAWERTYPE@CScaleBaseData@@HPAH3PAVCTextPosition@@PAVCPenEnvironment@@PAVCElementPointList@@PAVCLineExtEnvironment@@PAVCDataTypeEnvironment@@PAUIChartOCX133101@@AAVCBlockIndex@@V23@@Z$26
	DD	01aH
	DD	FLAT:__unwindfunclet$??0CDlgFiboSet@@QAE@PAVCWnd@@ABV?$CStringT@DV?$StrTraitMFC_DLL@DV?$ChTraitsCRT@D@ATL@@@@@ATL@@ABW4HORZSCALEDRAWERTYPE@CScaleBaseData@@HPAH3PAVCTextPosition@@PAVCPenEnvironment@@PAVCElementPointList@@PAVCLineExtEnvironment@@PAVCDataTypeEnvironment@@PAUIChartOCX133101@@AAVCBlockIndex@@V23@@Z$27
xdata$x	ENDS
;	COMDAT xdata$x
xdata$x	SEGMENT
__unwindtable$??0CElementPointList@@QAE@ABV0@@Z DD 0ffffffffH
	DD	FLAT:__unwindfunclet$??0CElementPointList@@QAE@ABV0@@Z$2
	DD	00H
	DD	FLAT:__unwindfunclet$??0CElementPointList@@QAE@ABV0@@Z$3
__ehfuncinfo$??0CElementPointList@@QAE@ABV0@@Z DD 019930522H
	DD	02H
	DD	FLAT:__unwindtable$??0CElementPointList@@QAE@ABV0@@Z
	DD	2 DUP(00H)
	DD	2 DUP(00H)
	DD	00H
	DD	01H
xdata$x	ENDS
;	COMDAT xdata$x
xdata$x	SEGMENT
__unwindtable$??0?$CDequePointerList@VCCoordinate@@@@QAE@ABV0@@Z DD 0ffffffffH
	DD	FLAT:__unwindfunclet$??0?$CDequePointerList@VCCoordinate@@@@QAE@ABV0@@Z$1
	DD	00H
	DD	FLAT:__unwindfunclet$??0?$CDequePointerList@VCCoordinate@@@@QAE@ABV0@@Z$2
__ehfuncinfo$??0?$CDequePointerList@VCCoordinate@@@@QAE@ABV0@@Z DD 019930522H
	DD	02H
	DD	FLAT:__unwindtable$??0?$CDequePointerList@VCCoordinate@@@@QAE@ABV0@@Z
	DD	2 DUP(00H)
	DD	2 DUP(00H)
	DD	00H
	DD	01H
xdata$x	ENDS
;	COMDAT xdata$x
xdata$x	SEGMENT
__unwindtable$??0?$deque@PAVCCoordinate@@V?$allocator@PAVCCoordinate@@@std@@@std@@QAE@ABV01@@Z DD 0ffffffffH
	DD	FLAT:__unwindfunclet$??0?$deque@PAVCCoordinate@@V?$allocator@PAVCCoordinate@@@std@@@std@@QAE@ABV01@@Z$0
	DD	00H
	DD	FLAT:__unwindfunclet$??0?$deque@PAVCCoordinate@@V?$allocator@PAVCCoordinate@@@std@@@std@@QAE@ABV01@@Z$1
__ehfuncinfo$??0?$deque@PAVCCoordinate@@V?$allocator@PAVCCoordinate@@@std@@@std@@QAE@ABV01@@Z DD 019930522H
	DD	02H
	DD	FLAT:__unwindtable$??0?$deque@PAVCCoordinate@@V?$allocator@PAVCCoordinate@@@std@@@std@@QAE@ABV01@@Z
	DD	2 DUP(00H)
	DD	2 DUP(00H)
	DD	00H
	DD	01H
xdata$x	ENDS
;	COMDAT xdata$x
xdata$x	SEGMENT
__catchsym$??1CGdiObject@@UAE@XZ$3 DD 00H
	DD	FLAT:??_R0PAVCException@@@8
	DD	0fffffde4H
	DD	FLAT:__catch$??1CGdiObject@@UAE@XZ$0
__tryblocktable$??1CGdiObject@@UAE@XZ DD 00H
	DD	00H
	DD	02H
	DD	01H
	DD	FLAT:__catchsym$??1CGdiObject@@UAE@XZ$3
__unwindtable$??1CGdiObject@@UAE@XZ DD 0ffffffffH
	DD	00H
	DD	0ffffffffH
	DD	00H
	DD	01H
	DD	FLAT:__unwindfunclet$??1CGdiObject@@UAE@XZ$2
__ehfuncinfo$??1CGdiObject@@UAE@XZ DD 019930522H
	DD	03H
	DD	FLAT:__unwindtable$??1CGdiObject@@UAE@XZ
	DD	01H
	DD	FLAT:__tryblocktable$??1CGdiObject@@UAE@XZ
	DD	2 DUP(00H)
	DD	00H
	DD	05H
xdata$x	ENDS
;	COMDAT xdata$x
xdata$x	SEGMENT
__unwindtable$??HATL@@YA?AV?$CStringT@DV?$StrTraitMFC_DLL@DV?$ChTraitsCRT@D@ATL@@@@@0@PBDABV10@@Z DD 0ffffffffH
	DD	FLAT:__unwindfunclet$??HATL@@YA?AV?$CStringT@DV?$StrTraitMFC_DLL@DV?$ChTraitsCRT@D@ATL@@@@@0@PBDABV10@@Z$0
__ehfuncinfo$??HATL@@YA?AV?$CStringT@DV?$StrTraitMFC_DLL@DV?$ChTraitsCRT@D@ATL@@@@@0@PBDABV10@@Z DD 019930522H
	DD	01H
	DD	FLAT:__unwindtable$??HATL@@YA?AV?$CStringT@DV?$StrTraitMFC_DLL@DV?$ChTraitsCRT@D@ATL@@@@@0@PBDABV10@@Z
	DD	2 DUP(00H)
	DD	2 DUP(00H)
	DD	00H
	DD	01H
xdata$x	ENDS
; Function compile flags: /Ogtp
; File C:\Program Files (x86)\Microsoft Visual Studio\2019\Community\VC\Tools\MSVC\14.29.30133\include\xutility
;	COMDAT ??$_Copy_memmove@PAPAPAVCCoordinate@@PAPAPAV1@@std@@YAPAPAPAVCCoordinate@@PAPAPAV1@00@Z
_TEXT	SEGMENT
__First$ = 8						; size = 4
__Last$ = 12						; size = 4
__Dest$ = 16						; size = 4
??$_Copy_memmove@PAPAPAVCCoordinate@@PAPAPAV1@@std@@YAPAPAPAVCCoordinate@@PAPAPAV1@00@Z PROC ; std::_Copy_memmove<CCoordinate * * *,CCoordinate * * *>, COMDAT

; 4058 : _OutCtgIt _Copy_memmove(_CtgIt _First, _CtgIt _Last, _OutCtgIt _Dest) {

  00000	55		 push	 ebp
  00001	8b ec		 mov	 ebp, esp

; 4059 :     auto _FirstPtr              = _To_address(_First);
; 4060 :     auto _LastPtr               = _To_address(_Last);
; 4061 :     auto _DestPtr               = _To_address(_Dest);
; 4062 :     const char* const _First_ch = const_cast<const char*>(reinterpret_cast<const volatile char*>(_FirstPtr));
; 4063 :     const char* const _Last_ch  = const_cast<const char*>(reinterpret_cast<const volatile char*>(_LastPtr));
; 4064 :     char* const _Dest_ch        = const_cast<char*>(reinterpret_cast<const volatile char*>(_DestPtr));
; 4065 :     const auto _Count           = static_cast<size_t>(_Last_ch - _First_ch);

  00003	8b 45 08	 mov	 eax, DWORD PTR __First$[ebp]
  00006	56		 push	 esi

; 4066 :     _CSTD memmove(_Dest_ch, _First_ch, _Count);

  00007	8b 75 10	 mov	 esi, DWORD PTR __Dest$[ebp]
  0000a	57		 push	 edi
  0000b	8b 7d 0c	 mov	 edi, DWORD PTR __Last$[ebp]
  0000e	2b f8		 sub	 edi, eax
  00010	57		 push	 edi
  00011	50		 push	 eax
  00012	56		 push	 esi
  00013	e8 00 00 00 00	 call	 _memmove
  00018	83 c4 0c	 add	 esp, 12			; 0000000cH

; 4067 :     if constexpr (is_pointer_v<_OutCtgIt>) {
; 4068 :         return reinterpret_cast<_OutCtgIt>(_Dest_ch + _Count);

  0001b	8d 04 37	 lea	 eax, DWORD PTR [edi+esi]
  0001e	5f		 pop	 edi
  0001f	5e		 pop	 esi

; 4069 :     } else {
; 4070 :         return _Dest + (_LastPtr - _FirstPtr);
; 4071 :     }
; 4072 : }

  00020	5d		 pop	 ebp
  00021	c3		 ret	 0
??$_Copy_memmove@PAPAPAVCCoordinate@@PAPAPAV1@@std@@YAPAPAPAVCCoordinate@@PAPAPAV1@00@Z ENDP ; std::_Copy_memmove<CCoordinate * * *,CCoordinate * * *>
_TEXT	ENDS
; Function compile flags: /Ogtp
; File C:\Program Files (x86)\Microsoft Visual Studio\2019\Community\VC\Tools\MSVC\14.29.30133\include\xmemory
;	COMDAT ??$_Zero_range@PAPAPAVCCoordinate@@@std@@YAPAPAPAVCCoordinate@@QAPAPAV1@0@Z
_TEXT	SEGMENT
__First$ = 8						; size = 4
__Last$ = 12						; size = 4
??$_Zero_range@PAPAPAVCCoordinate@@@std@@YAPAPAPAVCCoordinate@@QAPAPAV1@0@Z PROC ; std::_Zero_range<CCoordinate * * *>, COMDAT

; 1789 : _Ptr _Zero_range(const _Ptr _First, const _Ptr _Last) { // fill [_First, _Last) with zeroes

  00000	55		 push	 ebp
  00001	8b ec		 mov	 ebp, esp

; 1790 :     char* const _First_ch = reinterpret_cast<char*>(_To_address(_First));
; 1791 :     char* const _Last_ch  = reinterpret_cast<char*>(_To_address(_Last));
; 1792 :     _CSTD memset(_First_ch, 0, static_cast<size_t>(_Last_ch - _First_ch));

  00003	8b 55 08	 mov	 edx, DWORD PTR __First$[ebp]
  00006	8b 4d 0c	 mov	 ecx, DWORD PTR __Last$[ebp]
  00009	2b ca		 sub	 ecx, edx
  0000b	51		 push	 ecx
  0000c	6a 00		 push	 0
  0000e	52		 push	 edx
  0000f	e8 00 00 00 00	 call	 _memset

; 1793 :     return _Last;

  00014	8b 45 0c	 mov	 eax, DWORD PTR __Last$[ebp]
  00017	83 c4 0c	 add	 esp, 12			; 0000000cH

; 1794 : }

  0001a	5d		 pop	 ebp
  0001b	c3		 ret	 0
??$_Zero_range@PAPAPAVCCoordinate@@@std@@YAPAPAPAVCCoordinate@@QAPAPAV1@0@Z ENDP ; std::_Zero_range<CCoordinate * * *>
_TEXT	ENDS
; Function compile flags: /Ogtp
; File C:\Program Files (x86)\Microsoft Visual Studio\2019\Community\VC\Tools\MSVC\14.29.30133\include\xmemory
;	COMDAT ??$_Uninitialized_value_construct_n_unchecked1@PAPAPAVCCoordinate@@I@std@@YAPAPAPAVCCoordinate@@PAPAPAV1@I@Z
_TEXT	SEGMENT
__UFirst$ = 8						; size = 4
__Count$ = 12						; size = 4
??$_Uninitialized_value_construct_n_unchecked1@PAPAPAVCCoordinate@@I@std@@YAPAPAPAVCCoordinate@@PAPAPAV1@I@Z PROC ; std::_Uninitialized_value_construct_n_unchecked1<CCoordinate * * *,unsigned int>, COMDAT

; 1821 : _NoThrowFwdIt _Uninitialized_value_construct_n_unchecked1(_NoThrowFwdIt _UFirst, _Diff _Count) {

  00000	55		 push	 ebp
  00001	8b ec		 mov	 ebp, esp

; 1822 :     // value-initialize all elements in [_UFirst, _UFirst + _Count_raw)
; 1823 :     _STL_INTERNAL_CHECK(_Count >= 0);
; 1824 :     if constexpr (_Use_memset_value_construct_v<_NoThrowFwdIt>) {
; 1825 :         return _Zero_range(_UFirst, _UFirst + _Count);

  00003	8b 45 0c	 mov	 eax, DWORD PTR __Count$[ebp]
  00006	56		 push	 esi

; 1792 :     _CSTD memset(_First_ch, 0, static_cast<size_t>(_Last_ch - _First_ch));

  00007	8b 75 08	 mov	 esi, DWORD PTR __UFirst$[ebp]

; 1821 : _NoThrowFwdIt _Uninitialized_value_construct_n_unchecked1(_NoThrowFwdIt _UFirst, _Diff _Count) {

  0000a	57		 push	 edi

; 1822 :     // value-initialize all elements in [_UFirst, _UFirst + _Count_raw)
; 1823 :     _STL_INTERNAL_CHECK(_Count >= 0);
; 1824 :     if constexpr (_Use_memset_value_construct_v<_NoThrowFwdIt>) {
; 1825 :         return _Zero_range(_UFirst, _UFirst + _Count);

  0000b	8d 3c 85 00 00
	00 00		 lea	 edi, DWORD PTR [eax*4]

; 1792 :     _CSTD memset(_First_ch, 0, static_cast<size_t>(_Last_ch - _First_ch));

  00012	57		 push	 edi
  00013	6a 00		 push	 0
  00015	56		 push	 esi
  00016	e8 00 00 00 00	 call	 _memset
  0001b	83 c4 0c	 add	 esp, 12			; 0000000cH

; 1822 :     // value-initialize all elements in [_UFirst, _UFirst + _Count_raw)
; 1823 :     _STL_INTERNAL_CHECK(_Count >= 0);
; 1824 :     if constexpr (_Use_memset_value_construct_v<_NoThrowFwdIt>) {
; 1825 :         return _Zero_range(_UFirst, _UFirst + _Count);

  0001e	8d 04 37	 lea	 eax, DWORD PTR [edi+esi]
  00021	5f		 pop	 edi
  00022	5e		 pop	 esi

; 1826 :     } else {
; 1827 :         _Uninitialized_backout<_NoThrowFwdIt> _Backout{_UFirst};
; 1828 :         for (; 0 < _Count; --_Count) {
; 1829 :             _Backout._Emplace_back();
; 1830 :         }
; 1831 : 
; 1832 :         return _Backout._Release();
; 1833 :     }
; 1834 : }

  00023	5d		 pop	 ebp
  00024	c3		 ret	 0
??$_Uninitialized_value_construct_n_unchecked1@PAPAPAVCCoordinate@@I@std@@YAPAPAPAVCCoordinate@@PAPAPAV1@I@Z ENDP ; std::_Uninitialized_value_construct_n_unchecked1<CCoordinate * * *,unsigned int>
_TEXT	ENDS
; Function compile flags: /Ogtp
; File C:\Program Files (x86)\Microsoft Visual Studio\2019\Community\VC\Tools\MSVC\14.29.30133\include\xmemory
; File C:\Program Files (x86)\Microsoft Visual Studio\2019\Community\VC\Tools\MSVC\14.29.30133\include\xutility
; File C:\Program Files (x86)\Microsoft Visual Studio\2019\Community\VC\Tools\MSVC\14.29.30133\include\xmemory
; File C:\Program Files (x86)\Microsoft Visual Studio\2019\Community\VC\Tools\MSVC\14.29.30133\include\xutility
; File C:\Program Files (x86)\Microsoft Visual Studio\2019\Community\VC\Tools\MSVC\14.29.30133\include\xmemory
; File C:\Program Files (x86)\Microsoft Visual Studio\2019\Community\VC\Tools\MSVC\14.29.30133\include\xutility
; File C:\Program Files (x86)\Microsoft Visual Studio\2019\Community\VC\Tools\MSVC\14.29.30133\include\xmemory
;	COMDAT ??$uninitialized_copy@PAPAPAVCCoordinate@@PAPAPAV1@@std@@YAPAPAPAVCCoordinate@@QAPAPAV1@0PAPAPAV1@@Z
_TEXT	SEGMENT
__First$ = 8						; size = 4
__Last$ = 12						; size = 4
__Dest$ = 16						; size = 4
??$uninitialized_copy@PAPAPAVCCoordinate@@PAPAPAV1@@std@@YAPAPAPAVCCoordinate@@QAPAPAV1@0PAPAPAV1@@Z PROC ; std::uninitialized_copy<CCoordinate * * *,CCoordinate * * *>, COMDAT

; 1687 : _NoThrowFwdIt uninitialized_copy(const _InIt _First, const _InIt _Last, _NoThrowFwdIt _Dest) {

  00000	55		 push	 ebp
  00001	8b ec		 mov	 ebp, esp
; File C:\Program Files (x86)\Microsoft Visual Studio\2019\Community\VC\Tools\MSVC\14.29.30133\include\xutility

; 4065 :     const auto _Count           = static_cast<size_t>(_Last_ch - _First_ch);

  00003	8b 45 08	 mov	 eax, DWORD PTR __First$[ebp]
; File C:\Program Files (x86)\Microsoft Visual Studio\2019\Community\VC\Tools\MSVC\14.29.30133\include\xmemory

; 1687 : _NoThrowFwdIt uninitialized_copy(const _InIt _First, const _InIt _Last, _NoThrowFwdIt _Dest) {

  00006	56		 push	 esi
; File C:\Program Files (x86)\Microsoft Visual Studio\2019\Community\VC\Tools\MSVC\14.29.30133\include\xutility

; 4066 :     _CSTD memmove(_Dest_ch, _First_ch, _Count);

  00007	8b 75 10	 mov	 esi, DWORD PTR __Dest$[ebp]
; File C:\Program Files (x86)\Microsoft Visual Studio\2019\Community\VC\Tools\MSVC\14.29.30133\include\xmemory

; 1687 : _NoThrowFwdIt uninitialized_copy(const _InIt _First, const _InIt _Last, _NoThrowFwdIt _Dest) {

  0000a	57		 push	 edi
; File C:\Program Files (x86)\Microsoft Visual Studio\2019\Community\VC\Tools\MSVC\14.29.30133\include\xutility

; 4065 :     const auto _Count           = static_cast<size_t>(_Last_ch - _First_ch);

  0000b	8b 7d 0c	 mov	 edi, DWORD PTR __Last$[ebp]
  0000e	2b f8		 sub	 edi, eax

; 4066 :     _CSTD memmove(_Dest_ch, _First_ch, _Count);

  00010	57		 push	 edi
  00011	50		 push	 eax
  00012	56		 push	 esi
  00013	e8 00 00 00 00	 call	 _memmove
  00018	83 c4 0c	 add	 esp, 12			; 0000000cH

; 4067 :     if constexpr (is_pointer_v<_OutCtgIt>) {
; 4068 :         return reinterpret_cast<_OutCtgIt>(_Dest_ch + _Count);

  0001b	8d 04 37	 lea	 eax, DWORD PTR [edi+esi]
; File C:\Program Files (x86)\Microsoft Visual Studio\2019\Community\VC\Tools\MSVC\14.29.30133\include\xmemory

; 1694 :     return _Dest;

  0001e	5f		 pop	 edi
  0001f	5e		 pop	 esi

; 1695 : }

  00020	5d		 pop	 ebp
  00021	c3		 ret	 0
??$uninitialized_copy@PAPAPAVCCoordinate@@PAPAPAV1@@std@@YAPAPAPAVCCoordinate@@QAPAPAV1@0PAPAPAV1@@Z ENDP ; std::uninitialized_copy<CCoordinate * * *,CCoordinate * * *>
_TEXT	ENDS
; Function compile flags: /Ogtp
; File C:\Program Files (x86)\Microsoft Visual Studio\2019\Community\VC\Tools\MSVC\14.29.30133\include\xmemory
;	COMDAT ??$_Allocate_manually_vector_aligned@U_Default_allocate_traits@std@@@std@@YAPAXI@Z
_TEXT	SEGMENT
__Bytes$ = 8						; size = 4
??$_Allocate_manually_vector_aligned@U_Default_allocate_traits@std@@@std@@YAPAXI@Z PROC ; std::_Allocate_manually_vector_aligned<std::_Default_allocate_traits>, COMDAT

; 127  : __declspec(allocator) void* _Allocate_manually_vector_aligned(const size_t _Bytes) {

  00000	55		 push	 ebp
  00001	8b ec		 mov	 ebp, esp

; 128  :     // allocate _Bytes manually aligned to at least _Big_allocation_alignment
; 129  :     const size_t _Block_size = _Non_user_size + _Bytes;

  00003	8b 45 08	 mov	 eax, DWORD PTR __Bytes$[ebp]
  00006	8d 48 23	 lea	 ecx, DWORD PTR [eax+35]

; 130  :     if (_Block_size <= _Bytes) {

  00009	3b c8		 cmp	 ecx, eax
  0000b	0f 86 00 00 00
	00		 jbe	 ?_Throw_bad_array_new_length@std@@YAXXZ ; std::_Throw_bad_array_new_length

; 79   :         return ::operator new(_Bytes);

  00011	51		 push	 ecx
  00012	e8 00 00 00 00	 call	 ??2@YAPAXI@Z		; operator new

; 131  :         _Throw_bad_array_new_length(); // add overflow
; 132  :     }
; 133  : 
; 134  :     const uintptr_t _Ptr_container = reinterpret_cast<uintptr_t>(_Traits::_Allocate(_Block_size));

  00017	8b c8		 mov	 ecx, eax

; 79   :         return ::operator new(_Bytes);

  00019	83 c4 04	 add	 esp, 4

; 135  :     _STL_VERIFY(_Ptr_container != 0, "invalid argument"); // validate even in release since we're doing p[-1]

  0001c	85 c9		 test	 ecx, ecx
  0001e	74 0b		 je	 SHORT $LN7@Allocate_m

; 136  :     void* const _Ptr = reinterpret_cast<void*>((_Ptr_container + _Non_user_size) & ~(_Big_allocation_alignment - 1));

  00020	8d 41 23	 lea	 eax, DWORD PTR [ecx+35]
  00023	83 e0 e0	 and	 eax, -32		; ffffffe0H

; 137  :     static_cast<uintptr_t*>(_Ptr)[-1] = _Ptr_container;

  00026	89 48 fc	 mov	 DWORD PTR [eax-4], ecx

; 138  : 
; 139  : #ifdef _DEBUG
; 140  :     static_cast<uintptr_t*>(_Ptr)[-2] = _Big_allocation_sentinel;
; 141  : #endif // _DEBUG
; 142  :     return _Ptr;
; 143  : }

  00029	5d		 pop	 ebp
  0002a	c3		 ret	 0
$LN7@Allocate_m:

; 135  :     _STL_VERIFY(_Ptr_container != 0, "invalid argument"); // validate even in release since we're doing p[-1]

  0002b	ff 25 00 00 00
	00		 jmp	 DWORD PTR __imp___invalid_parameter_noinfo_noreturn
??$_Allocate_manually_vector_aligned@U_Default_allocate_traits@std@@@std@@YAPAXI@Z ENDP ; std::_Allocate_manually_vector_aligned<std::_Default_allocate_traits>
_TEXT	ENDS
; Function compile flags: /Ogtp
; File C:\Program Files (x86)\Microsoft Visual Studio\2019\Community\VC\Tools\MSVC\14.29.30133\include\xmemory
;	COMDAT ??1?$_Tidy_guard@V?$deque@PAVCCoordinate@@V?$allocator@PAVCCoordinate@@@std@@@std@@@std@@QAE@XZ
_TEXT	SEGMENT
??1?$_Tidy_guard@V?$deque@PAVCCoordinate@@V?$allocator@PAVCCoordinate@@@std@@@std@@@std@@QAE@XZ PROC ; std::_Tidy_guard<std::deque<CCoordinate *,std::allocator<CCoordinate *> > >::~_Tidy_guard<std::deque<CCoordinate *,std::allocator<CCoordinate *> > >, COMDAT
; _this$ = ecx

; 34   :         if (_Target) {

  00000	8b 09		 mov	 ecx, DWORD PTR [ecx]
  00002	85 c9		 test	 ecx, ecx
  00004	0f 85 00 00 00
	00		 jne	 ?_Tidy@?$deque@PAVCCoordinate@@V?$allocator@PAVCCoordinate@@@std@@@std@@AAEXXZ ; std::deque<CCoordinate *,std::allocator<CCoordinate *> >::_Tidy

; 35   :             _Target->_Tidy();
; 36   :         }
; 37   :     }

  0000a	c3		 ret	 0
??1?$_Tidy_guard@V?$deque@PAVCCoordinate@@V?$allocator@PAVCCoordinate@@@std@@@std@@@std@@QAE@XZ ENDP ; std::_Tidy_guard<std::deque<CCoordinate *,std::allocator<CCoordinate *> > >::~_Tidy_guard<std::deque<CCoordinate *,std::allocator<CCoordinate *> > >
_TEXT	ENDS
; Function compile flags: /Ogtp
; File C:\Program Files (x86)\Microsoft Visual Studio\2019\Community\VC\Tools\MSVC\14.29.30133\include\xmemory
;	COMDAT ??1?$_Container_proxy_ptr12@V?$allocator@U_Container_proxy@std@@@std@@@std@@QAE@XZ
_TEXT	SEGMENT
??1?$_Container_proxy_ptr12@V?$allocator@U_Container_proxy@std@@@std@@@std@@QAE@XZ PROC ; std::_Container_proxy_ptr12<std::allocator<std::_Container_proxy> >::~_Container_proxy_ptr12<std::allocator<std::_Container_proxy> >, COMDAT
; _this$ = ecx

; 1296 :         if (_Ptr) {

  00000	8b 01		 mov	 eax, DWORD PTR [ecx]
  00002	85 c0		 test	 eax, eax
  00004	74 0b		 je	 SHORT $LN12@Container_

; 255  :         ::operator delete(_Ptr, _Bytes);

  00006	6a 08		 push	 8
  00008	50		 push	 eax
  00009	e8 00 00 00 00	 call	 ??3@YAXPAXI@Z		; operator delete
  0000e	83 c4 08	 add	 esp, 8
$LN12@Container_:

; 1297 :             _Delete_plain_internal(_Al, _Ptr);
; 1298 :         }
; 1299 :     }

  00011	c3		 ret	 0
??1?$_Container_proxy_ptr12@V?$allocator@U_Container_proxy@std@@@std@@@std@@QAE@XZ ENDP ; std::_Container_proxy_ptr12<std::allocator<std::_Container_proxy> >::~_Container_proxy_ptr12<std::allocator<std::_Container_proxy> >
_TEXT	ENDS
; Function compile flags: /Ogtp
; File D:\git\src\IBK\IBK_DRFN\ProjSrc\SrcChartEx\ChartAddIn\ChartAnalysisToolAddIn\Include_Chart\Dll_Load\IMetaTable.h
; File C:\Program Files (x86)\Microsoft Visual Studio\2019\Community\VC\Tools\MSVC\14.29.30133\atlmfc\include\afxwin1.inl
; File D:\git\src\IBK\IBK_DRFN\ProjSrc\SrcChartEx\ChartAddIn\ChartAnalysisToolAddIn\Include_Chart\Dll_Load\IMetaTable.h
;	COMDAT ??1CMultiLanguageResourceSetter@@QAE@XZ
_TEXT	SEGMENT
__$EHRec$ = -12						; size = 12
??1CMultiLanguageResourceSetter@@QAE@XZ PROC		; CMultiLanguageResourceSetter::~CMultiLanguageResourceSetter, COMDAT
; _this$ = ecx

; 1038 : 	{

  00000	55		 push	 ebp
  00001	8b ec		 mov	 ebp, esp
  00003	6a ff		 push	 -1
  00005	68 00 00 00 00	 push	 __ehhandler$??1CMultiLanguageResourceSetter@@QAE@XZ
  0000a	64 a1 00 00 00
	00		 mov	 eax, DWORD PTR fs:0
  00010	50		 push	 eax
  00011	56		 push	 esi
  00012	a1 00 00 00 00	 mov	 eax, DWORD PTR ___security_cookie
  00017	33 c5		 xor	 eax, ebp
  00019	50		 push	 eax
  0001a	8d 45 f4	 lea	 eax, DWORD PTR __$EHRec$[ebp]
  0001d	64 a3 00 00 00
	00		 mov	 DWORD PTR fs:0, eax

; 1039 : 		AfxSetResourceHandle( m_hInstance);

  00023	8b 31		 mov	 esi, DWORD PTR [ecx]
; File C:\Program Files (x86)\Microsoft Visual Studio\2019\Community\VC\Tools\MSVC\14.29.30133\atlmfc\include\afxwin1.inl

; 27   : 	{ ASSERT(hInstResource != NULL); afxCurrentResourceHandle = hInstResource; }

  00025	e8 00 00 00 00	 call	 ?AfxGetModuleState@@YGPAVAFX_MODULE_STATE@@XZ ; AfxGetModuleState
  0002a	89 70 0c	 mov	 DWORD PTR [eax+12], esi
; File D:\git\src\IBK\IBK_DRFN\ProjSrc\SrcChartEx\ChartAddIn\ChartAnalysisToolAddIn\Include_Chart\Dll_Load\IMetaTable.h

; 1040 : 	}

  0002d	8b 4d f4	 mov	 ecx, DWORD PTR __$EHRec$[ebp]
  00030	64 89 0d 00 00
	00 00		 mov	 DWORD PTR fs:0, ecx
  00037	59		 pop	 ecx
  00038	5e		 pop	 esi
  00039	8b e5		 mov	 esp, ebp
  0003b	5d		 pop	 ebp
  0003c	c3		 ret	 0
  0003d	cc		 int	 3
  0003e	cc		 int	 3
  0003f	cc		 int	 3
  00040	cc		 int	 3
  00041	cc		 int	 3
_TEXT	ENDS
;	COMDAT text$x
text$x	SEGMENT
__ehhandler$??1CMultiLanguageResourceSetter@@QAE@XZ:
  00000	90		 npad	 1
  00001	90		 npad	 1
  00002	8b 54 24 08	 mov	 edx, DWORD PTR [esp+8]
  00006	8d 42 0c	 lea	 eax, DWORD PTR [edx+12]
  00009	8b 4a f8	 mov	 ecx, DWORD PTR [edx-8]
  0000c	33 c8		 xor	 ecx, eax
  0000e	e8 00 00 00 00	 call	 @__security_check_cookie@4
  00013	b8 00 00 00 00	 mov	 eax, OFFSET __ehfuncinfo$??1CMultiLanguageResourceSetter@@QAE@XZ
  00018	e9 00 00 00 00	 jmp	 ___CxxFrameHandler3
text$x	ENDS
??1CMultiLanguageResourceSetter@@QAE@XZ ENDP		; CMultiLanguageResourceSetter::~CMultiLanguageResourceSetter
; Function compile flags: /Ogtp
; File D:\git\src\IBK\IBK_DRFN\ProjSrc\SrcChartEx\ChartAddIn\ChartAnalysisToolAddIn\Include_Chart\Dll_Load\IMetaTable.h
;	COMDAT ?LoadResourceDLL@IMetaTable@@QAEPAUHINSTANCE__@@PAUHWND__@@PAU2@@Z
_TEXT	SEGMENT
_p1$ = 8						; size = 4
_p2$ = 12						; size = 4
?LoadResourceDLL@IMetaTable@@QAEPAUHINSTANCE__@@PAUHWND__@@PAU2@@Z PROC ; IMetaTable::LoadResourceDLL, COMDAT
; _this$ = ecx

; 938  : 	DECLARE_FUNCTION2(	LoadResourceDLL,				HMODULE, AfxGetStaticModuleState()->m_hCurrentInstanceHandle, HWND, HMODULE);

  00000	55		 push	 ebp
  00001	8b ec		 mov	 ebp, esp
  00003	56		 push	 esi
  00004	8b f1		 mov	 esi, ecx
  00006	8b 46 04	 mov	 eax, DWORD PTR [esi+4]
  00009	85 c0		 test	 eax, eax
  0000b	74 4d		 je	 SHORT $LN4@LoadResour
  0000d	57		 push	 edi
  0000e	bf 80 0d 00 00	 mov	 edi, 3456		; 00000d80H
  00013	66 3b be 94 00
	00 00		 cmp	 di, WORD PTR [esi+148]
  0001a	74 23		 je	 SHORT $LN3@LoadResour
  0001c	68 00 00 00 00	 push	 OFFSET ??_C@_0BA@ENJOCHIO@LoadResourceDLL@
  00021	50		 push	 eax
  00022	c7 86 90 00 00
	00 00 00 00 00	 mov	 DWORD PTR [esi+144], 0
  0002c	ff 15 00 00 00
	00		 call	 DWORD PTR __imp__GetProcAddress@8
  00032	89 86 90 00 00
	00		 mov	 DWORD PTR [esi+144], eax
  00038	66 89 be 94 00
	00 00		 mov	 WORD PTR [esi+148], di
$LN3@LoadResour:
  0003f	8b 86 90 00 00
	00		 mov	 eax, DWORD PTR [esi+144]
  00045	5f		 pop	 edi
  00046	85 c0		 test	 eax, eax
  00048	74 10		 je	 SHORT $LN4@LoadResour
  0004a	ff 75 0c	 push	 DWORD PTR _p2$[ebp]
  0004d	ff 75 08	 push	 DWORD PTR _p1$[ebp]
  00050	ff d0		 call	 eax
  00052	83 c4 08	 add	 esp, 8
  00055	5e		 pop	 esi
  00056	5d		 pop	 ebp
  00057	c2 08 00	 ret	 8
$LN4@LoadResour:
  0005a	e8 00 00 00 00	 call	 ?AfxGetStaticModuleState@@YGPAVAFX_MODULE_STATE@@XZ ; AfxGetStaticModuleState
  0005f	5e		 pop	 esi
  00060	8b 40 08	 mov	 eax, DWORD PTR [eax+8]
  00063	5d		 pop	 ebp
  00064	c2 08 00	 ret	 8
?LoadResourceDLL@IMetaTable@@QAEPAUHINSTANCE__@@PAUHWND__@@PAU2@@Z ENDP ; IMetaTable::LoadResourceDLL
_TEXT	ENDS
; Function compile flags: /Ogtp
; File C:\Program Files (x86)\Microsoft Visual Studio\2019\Community\VC\Tools\MSVC\14.29.30133\include\deque
; File C:\Program Files (x86)\Microsoft Visual Studio\2019\Community\VC\Tools\MSVC\14.29.30133\include\utility
; File C:\Program Files (x86)\Microsoft Visual Studio\2019\Community\VC\Tools\MSVC\14.29.30133\include\xmemory
; File C:\Program Files (x86)\Microsoft Visual Studio\2019\Community\VC\Tools\MSVC\14.29.30133\include\utility
; File C:\Program Files (x86)\Microsoft Visual Studio\2019\Community\VC\Tools\MSVC\14.29.30133\include\xmemory
; File C:\Program Files (x86)\Microsoft Visual Studio\2019\Community\VC\Tools\MSVC\14.29.30133\atlmfc\include\afxwin1.inl
; File C:\Program Files (x86)\Microsoft Visual Studio\2019\Community\VC\Tools\MSVC\14.29.30133\atlmfc\include\afx.inl
;	COMDAT ??_GCDlgFiboSet@@UAEPAXI@Z
_TEXT	SEGMENT
___flags$ = 8						; size = 4
??_GCDlgFiboSet@@UAEPAXI@Z PROC				; CDlgFiboSet::`scalar deleting destructor', COMDAT
; _this$ = ecx
  00000	55		 push	 ebp
  00001	8b ec		 mov	 ebp, esp
; File C:\Program Files (x86)\Microsoft Visual Studio\2019\Community\VC\Tools\MSVC\14.29.30133\include\deque

; 1332 :         _Tidy();

  00003	56		 push	 esi
  00004	57		 push	 edi
  00005	8b f9		 mov	 edi, ecx
  00007	8d 8f 70 0c 00
	00		 lea	 ecx, DWORD PTR [edi+3184]
  0000d	e8 00 00 00 00	 call	 ?_Tidy@?$deque@PAVCCoordinate@@V?$allocator@PAVCCoordinate@@@std@@@std@@AAEXXZ ; std::deque<CCoordinate *,std::allocator<CCoordinate *> >::_Tidy

; 861  :         _Tidy();

  00012	8d 8f 70 0c 00
	00		 lea	 ecx, DWORD PTR [edi+3184]
  00018	e8 00 00 00 00	 call	 ?_Tidy@?$deque@PAVCCoordinate@@V?$allocator@PAVCCoordinate@@@std@@@std@@AAEXXZ ; std::deque<CCoordinate *,std::allocator<CCoordinate *> >::_Tidy
; File C:\Program Files (x86)\Microsoft Visual Studio\2019\Community\VC\Tools\MSVC\14.29.30133\include\utility

; 602  :     _Ty _Old_val = static_cast<_Ty&&>(_Val);

  0001d	8b 87 70 0c 00
	00		 mov	 eax, DWORD PTR [edi+3184]
; File C:\Program Files (x86)\Microsoft Visual Studio\2019\Community\VC\Tools\MSVC\14.29.30133\include\xmemory

; 255  :         ::operator delete(_Ptr, _Bytes);

  00023	6a 08		 push	 8
  00025	50		 push	 eax
; File C:\Program Files (x86)\Microsoft Visual Studio\2019\Community\VC\Tools\MSVC\14.29.30133\include\utility

; 603  :     _Val         = static_cast<_Other&&>(_New_val);

  00026	c7 87 70 0c 00
	00 00 00 00 00	 mov	 DWORD PTR [edi+3184], 0
; File C:\Program Files (x86)\Microsoft Visual Studio\2019\Community\VC\Tools\MSVC\14.29.30133\include\xmemory

; 255  :         ::operator delete(_Ptr, _Bytes);

  00030	e8 00 00 00 00	 call	 ??3@YAXPAXI@Z		; operator delete
  00035	83 c4 08	 add	 esp, 8
  00038	8d 8f 60 0c 00
	00		 lea	 ecx, DWORD PTR [edi+3168]
  0003e	ff 15 00 00 00
	00		 call	 DWORD PTR __imp_??1?$CStringT@DV?$StrTraitMFC_DLL@DV?$ChTraitsCRT@D@ATL@@@@@ATL@@QAE@XZ
  00044	8d 8f ec 0b 00
	00		 lea	 ecx, DWORD PTR [edi+3052]
  0004a	ff 15 00 00 00
	00		 call	 DWORD PTR __imp_??1?$CStringT@DV?$StrTraitMFC_DLL@DV?$ChTraitsCRT@D@ATL@@@@@ATL@@QAE@XZ
  00050	8d 8f e8 0b 00
	00		 lea	 ecx, DWORD PTR [edi+3048]
  00056	ff 15 00 00 00
	00		 call	 DWORD PTR __imp_??1?$CStringT@DV?$StrTraitMFC_DLL@DV?$ChTraitsCRT@D@ATL@@@@@ATL@@QAE@XZ
  0005c	8d 8f 50 0b 00
	00		 lea	 ecx, DWORD PTR [edi+2896]
  00062	e8 00 00 00 00	 call	 ??1CDateTimeCtrl@@UAE@XZ ; CDateTimeCtrl::~CDateTimeCtrl
  00067	8d 8f d0 0a 00
	00		 lea	 ecx, DWORD PTR [edi+2768]
  0006d	e8 00 00 00 00	 call	 ??1CDateTimeCtrl@@UAE@XZ ; CDateTimeCtrl::~CDateTimeCtrl
  00072	8d 8f 50 0a 00
	00		 lea	 ecx, DWORD PTR [edi+2640]
  00078	e8 00 00 00 00	 call	 ??1CDateTimeCtrl@@UAE@XZ ; CDateTimeCtrl::~CDateTimeCtrl
  0007d	8d 8f d0 09 00
	00		 lea	 ecx, DWORD PTR [edi+2512]
  00083	e8 00 00 00 00	 call	 ??1CEdit@@UAE@XZ	; CEdit::~CEdit
  00088	8d 8f 50 09 00
	00		 lea	 ecx, DWORD PTR [edi+2384]
  0008e	e8 00 00 00 00	 call	 ??1CEdit@@UAE@XZ	; CEdit::~CEdit
  00093	8d 8f d0 08 00
	00		 lea	 ecx, DWORD PTR [edi+2256]
  00099	e8 00 00 00 00	 call	 ??1CEdit@@UAE@XZ	; CEdit::~CEdit
  0009e	8d 8f 50 08 00
	00		 lea	 ecx, DWORD PTR [edi+2128]
  000a4	e8 00 00 00 00	 call	 ??1CEdit@@UAE@XZ	; CEdit::~CEdit
  000a9	8d 8f d0 07 00
	00		 lea	 ecx, DWORD PTR [edi+2000]
  000af	e8 00 00 00 00	 call	 ??1CEdit@@UAE@XZ	; CEdit::~CEdit
  000b4	8d 8f 50 07 00
	00		 lea	 ecx, DWORD PTR [edi+1872]
  000ba	e8 00 00 00 00	 call	 ??1CEdit@@UAE@XZ	; CEdit::~CEdit
  000bf	8d 8f d0 06 00
	00		 lea	 ecx, DWORD PTR [edi+1744]
  000c5	e8 00 00 00 00	 call	 ??1CButton@@UAE@XZ	; CButton::~CButton
  000ca	8d 8f 50 06 00
	00		 lea	 ecx, DWORD PTR [edi+1616]
  000d0	e8 00 00 00 00	 call	 ??1CButton@@UAE@XZ	; CButton::~CButton
  000d5	8d 8f d0 05 00
	00		 lea	 ecx, DWORD PTR [edi+1488]
  000db	e8 00 00 00 00	 call	 ??1CButton@@UAE@XZ	; CButton::~CButton
  000e0	8d 8f 50 05 00
	00		 lea	 ecx, DWORD PTR [edi+1360]
  000e6	e8 00 00 00 00	 call	 ??1CButton@@UAE@XZ	; CButton::~CButton
  000eb	8d 8f d0 04 00
	00		 lea	 ecx, DWORD PTR [edi+1232]
  000f1	e8 00 00 00 00	 call	 ??1CButton@@UAE@XZ	; CButton::~CButton
  000f6	8d 8f 50 04 00
	00		 lea	 ecx, DWORD PTR [edi+1104]
  000fc	e8 00 00 00 00	 call	 ??1CButton@@UAE@XZ	; CButton::~CButton
  00101	8d 8f d0 03 00
	00		 lea	 ecx, DWORD PTR [edi+976]
  00107	e8 00 00 00 00	 call	 ??1CButton@@UAE@XZ	; CButton::~CButton
  0010c	8d 8f 50 03 00
	00		 lea	 ecx, DWORD PTR [edi+848]
  00112	e8 00 00 00 00	 call	 ??1CButton@@UAE@XZ	; CButton::~CButton
  00117	8d 8f d0 02 00
	00		 lea	 ecx, DWORD PTR [edi+720]
  0011d	e8 00 00 00 00	 call	 ??1CButton@@UAE@XZ	; CButton::~CButton
  00122	8d 8f 48 02 00
	00		 lea	 ecx, DWORD PTR [edi+584]
  00128	e8 00 00 00 00	 call	 ??1CButton@@UAE@XZ	; CButton::~CButton
  0012d	8d 8f 3c 02 00
	00		 lea	 ecx, DWORD PTR [edi+572]
; File C:\Program Files (x86)\Microsoft Visual Studio\2019\Community\VC\Tools\MSVC\14.29.30133\atlmfc\include\afxwin1.inl

; 179  : 	{ }

  00133	c7 01 00 00 00
	00		 mov	 DWORD PTR [ecx], OFFSET ??_7CBitmap@@6B@
  00139	e8 00 00 00 00	 call	 ??1CGdiObject@@UAE@XZ	; CGdiObject::~CGdiObject
  0013e	8d 8f b8 01 00
	00		 lea	 ecx, DWORD PTR [edi+440]
  00144	e8 00 00 00 00	 call	 ??1CComboBox@@UAE@XZ	; CComboBox::~CComboBox
  00149	8d 8f ac 01 00
	00		 lea	 ecx, DWORD PTR [edi+428]
  0014f	c7 01 00 00 00
	00		 mov	 DWORD PTR [ecx], OFFSET ??_7CBitmap@@6B@
  00155	e8 00 00 00 00	 call	 ??1CGdiObject@@UAE@XZ	; CGdiObject::~CGdiObject
  0015a	8d 8f 28 01 00
	00		 lea	 ecx, DWORD PTR [edi+296]
  00160	e8 00 00 00 00	 call	 ??1CComboBox@@UAE@XZ	; CComboBox::~CComboBox
  00165	8d 8f a8 00 00
	00		 lea	 ecx, DWORD PTR [edi+168]
  0016b	e8 00 00 00 00	 call	 ??1CButton@@UAE@XZ	; CButton::~CButton
  00170	8b cf		 mov	 ecx, edi
  00172	e8 00 00 00 00	 call	 ??1CDialog@@UAE@XZ	; CDialog::~CDialog
  00177	8b 45 08	 mov	 eax, DWORD PTR ___flags$[ebp]
  0017a	a8 01		 test	 al, 1
  0017c	74 23		 je	 SHORT $LN70@scalar
  0017e	a8 04		 test	 al, 4
  00180	75 11		 jne	 SHORT $LN3@scalar
; File C:\Program Files (x86)\Microsoft Visual Studio\2019\Community\VC\Tools\MSVC\14.29.30133\atlmfc\include\afx.inl

; 112  : 	{ ::operator delete(p); }

  00182	57		 push	 edi
  00183	e8 00 00 00 00	 call	 ??3@YAXPAX@Z		; operator delete
  00188	83 c4 04	 add	 esp, 4
  0018b	8b c7		 mov	 eax, edi
  0018d	5f		 pop	 edi
  0018e	5e		 pop	 esi
  0018f	5d		 pop	 ebp
  00190	c2 04 00	 ret	 4
$LN3@scalar:
  00193	68 18 0d 00 00	 push	 3352			; 00000d18H
  00198	57		 push	 edi
  00199	e8 00 00 00 00	 call	 ?__global_delete@@YAXPAXI@Z ; __global_delete
  0019e	83 c4 08	 add	 esp, 8
$LN70@scalar:
  001a1	8b c7		 mov	 eax, edi
  001a3	5f		 pop	 edi
  001a4	5e		 pop	 esi
  001a5	5d		 pop	 ebp
  001a6	c2 04 00	 ret	 4
??_GCDlgFiboSet@@UAEPAXI@Z ENDP				; CDlgFiboSet::`scalar deleting destructor'
_TEXT	ENDS
; Function compile flags: /Ogtp
; File D:\git\src\IBK\IBK_DRFN\ProjSrc\SrcChartEx\ChartAddIn\ChartAnalysisToolAddIn\AnalysisTool\DlgFiboSet.cpp
;	COMDAT ?GetOrgLineExtEnvironment@CDlgFiboSet@@AAEPAVCLineExtEnvironment@@XZ
_TEXT	SEGMENT
?GetOrgLineExtEnvironment@CDlgFiboSet@@AAEPAVCLineExtEnvironment@@XZ PROC ; CDlgFiboSet::GetOrgLineExtEnvironment, COMDAT
; _this$ = ecx

; 1209 : 	return &m_baseLineExtEnvironment;

  00000	8d 81 f8 0c 00
	00		 lea	 eax, DWORD PTR [ecx+3320]

; 1210 : }

  00006	c3		 ret	 0
?GetOrgLineExtEnvironment@CDlgFiboSet@@AAEPAVCLineExtEnvironment@@XZ ENDP ; CDlgFiboSet::GetOrgLineExtEnvironment
_TEXT	ENDS
; Function compile flags: /Ogtp
; File D:\git\src\IBK\IBK_DRFN\ProjSrc\SrcChartEx\ChartAddIn\ChartAnalysisToolAddIn\AnalysisTool\DlgFiboSet.cpp
;	COMDAT ?GetLineExtEnvironment@CDlgFiboSet@@AAEPAVCLineExtEnvironment@@XZ
_TEXT	SEGMENT
?GetLineExtEnvironment@CDlgFiboSet@@AAEPAVCLineExtEnvironment@@XZ PROC ; CDlgFiboSet::GetLineExtEnvironment, COMDAT
; _this$ = ecx

; 1204 : 	return m_pLineExtEnvironment;

  00000	8b 81 f4 0c 00
	00		 mov	 eax, DWORD PTR [ecx+3316]

; 1205 : }

  00006	c3		 ret	 0
?GetLineExtEnvironment@CDlgFiboSet@@AAEPAVCLineExtEnvironment@@XZ ENDP ; CDlgFiboSet::GetLineExtEnvironment
_TEXT	ENDS
; Function compile flags: /Ogtp
; File D:\git\src\IBK\IBK_DRFN\ProjSrc\SrcChartEx\ChartAddIn\ChartAnalysisToolAddIn\AnalysisTool\DlgFiboSet.cpp
;	COMDAT ?GetOrgTextPosition@CDlgFiboSet@@AAEPAVCTextPosition@@XZ
_TEXT	SEGMENT
?GetOrgTextPosition@CDlgFiboSet@@AAEPAVCTextPosition@@XZ PROC ; CDlgFiboSet::GetOrgTextPosition, COMDAT
; _this$ = ecx

; 1190 : 	if(m_nTextPosType == G_TEXT_POS_HV)

  00000	8b 81 8c 0c 00
	00		 mov	 eax, DWORD PTR [ecx+3212]
  00006	83 f8 03	 cmp	 eax, 3
  00009	75 07		 jne	 SHORT $LN2@GetOrgText

; 1191 : 		return &m_baseTextHVPosition;

  0000b	8d 81 e8 0c 00
	00		 lea	 eax, DWORD PTR [ecx+3304]

; 1200 : }

  00011	c3		 ret	 0
$LN2@GetOrgText:

; 1192 : 	else if(m_nTextPosType == G_TEXT_POS_VERT)

  00012	83 f8 02	 cmp	 eax, 2
  00015	75 07		 jne	 SHORT $LN4@GetOrgText

; 1193 : 		return &m_baseTextVPosition;

  00017	8d 81 dc 0c 00
	00		 lea	 eax, DWORD PTR [ecx+3292]

; 1200 : }

  0001d	c3		 ret	 0
$LN4@GetOrgText:

; 1194 : 	else if(m_nTextPosType == G_TEXT_POS_HORZ)

  0001e	83 f8 01	 cmp	 eax, 1
  00021	75 07		 jne	 SHORT $LN6@GetOrgText

; 1195 : 		return &m_baseTextHPosition;

  00023	8d 81 d0 0c 00
	00		 lea	 eax, DWORD PTR [ecx+3280]

; 1200 : }

  00029	c3		 ret	 0
$LN6@GetOrgText:

; 1196 : 	else if(m_nTextPosType == G_TEXT_POS_ONE)

  0002a	85 c0		 test	 eax, eax
  0002c	75 07		 jne	 SHORT $LN8@GetOrgText

; 1197 : 		return &m_baseTextPosition;

  0002e	8d 81 c4 0c 00
	00		 lea	 eax, DWORD PTR [ecx+3268]

; 1200 : }

  00034	c3		 ret	 0
$LN8@GetOrgText:

; 1198 : 
; 1199 : 	return NULL;

  00035	33 c0		 xor	 eax, eax

; 1200 : }

  00037	c3		 ret	 0
?GetOrgTextPosition@CDlgFiboSet@@AAEPAVCTextPosition@@XZ ENDP ; CDlgFiboSet::GetOrgTextPosition
_TEXT	ENDS
; Function compile flags: /Ogtp
; File D:\git\src\IBK\IBK_DRFN\ProjSrc\SrcChartEx\ChartAddIn\ChartAnalysisToolAddIn\AnalysisTool\DlgFiboSet.cpp
;	COMDAT ?GetTextPosition@CDlgFiboSet@@AAEPAVCTextPosition@@XZ
_TEXT	SEGMENT
?GetTextPosition@CDlgFiboSet@@AAEPAVCTextPosition@@XZ PROC ; CDlgFiboSet::GetTextPosition, COMDAT
; _this$ = ecx

; 1176 : 	if(m_nTextPosType == G_TEXT_POS_HV)

  00000	8b 81 8c 0c 00
	00		 mov	 eax, DWORD PTR [ecx+3212]
  00006	83 f8 03	 cmp	 eax, 3
  00009	75 07		 jne	 SHORT $LN2@GetTextPos

; 1177 : 		return m_pTextHVPosition;

  0000b	8b 81 c0 0c 00
	00		 mov	 eax, DWORD PTR [ecx+3264]

; 1186 : }

  00011	c3		 ret	 0
$LN2@GetTextPos:

; 1178 : 	else if(m_nTextPosType == G_TEXT_POS_VERT)

  00012	83 f8 02	 cmp	 eax, 2
  00015	75 07		 jne	 SHORT $LN4@GetTextPos

; 1179 : 		return m_pTextVPosition;

  00017	8b 81 bc 0c 00
	00		 mov	 eax, DWORD PTR [ecx+3260]

; 1186 : }

  0001d	c3		 ret	 0
$LN4@GetTextPos:

; 1180 : 	else if(m_nTextPosType == G_TEXT_POS_HORZ)

  0001e	83 f8 01	 cmp	 eax, 1
  00021	75 07		 jne	 SHORT $LN6@GetTextPos

; 1181 : 		return m_pTextHPosition;

  00023	8b 81 b8 0c 00
	00		 mov	 eax, DWORD PTR [ecx+3256]

; 1186 : }

  00029	c3		 ret	 0
$LN6@GetTextPos:

; 1182 : 	else if(m_nTextPosType == G_TEXT_POS_ONE)

  0002a	85 c0		 test	 eax, eax
  0002c	75 07		 jne	 SHORT $LN8@GetTextPos

; 1183 : 		return m_pTextPosition;

  0002e	8b 81 b4 0c 00
	00		 mov	 eax, DWORD PTR [ecx+3252]

; 1186 : }

  00034	c3		 ret	 0
$LN8@GetTextPos:

; 1184 : 
; 1185 : 	return NULL;

  00035	33 c0		 xor	 eax, eax

; 1186 : }

  00037	c3		 ret	 0
?GetTextPosition@CDlgFiboSet@@AAEPAVCTextPosition@@XZ ENDP ; CDlgFiboSet::GetTextPosition
_TEXT	ENDS
; Function compile flags: /Ogtp
; File D:\git\src\IBK\IBK_DRFN\ProjSrc\SrcChartEx\ChartAddIn\ChartAnalysisToolAddIn\AnalysisTool\DlgFiboSet.cpp
; File C:\Program Files (x86)\Microsoft Visual Studio\2019\Community\VC\Tools\MSVC\14.29.30133\atlmfc\include\afxwin2.inl
; File D:\git\src\IBK\IBK_DRFN\ProjSrc\SrcChartEx\ChartAddIn\ChartAnalysisToolAddIn\AnalysisTool\DlgFiboSet.cpp
; File C:\Program Files (x86)\Microsoft Visual Studio\2019\Community\VC\Tools\MSVC\14.29.30133\atlmfc\include\atltime.h
; File C:\Program Files (x86)\Microsoft Visual Studio\2019\Community\VC\Tools\MSVC\14.29.30133\atlmfc\include\afxwin2.inl
; File D:\git\src\IBK\IBK_DRFN\ProjSrc\SrcChartEx\ChartAddIn\ChartAnalysisToolAddIn\AnalysisTool\DlgFiboSet.cpp
; File C:\Program Files (x86)\Microsoft Visual Studio\2019\Community\VC\Tools\MSVC\14.29.30133\atlmfc\include\atltime.h
; File D:\git\src\IBK\IBK_DRFN\ProjSrc\SrcChartEx\ChartAddIn\ChartAnalysisToolAddIn\AnalysisTool\DlgFiboSet.cpp
; File C:\Program Files (x86)\Microsoft Visual Studio\2019\Community\VC\Tools\MSVC\14.29.30133\atlmfc\include\afxwin2.inl
; File D:\git\src\IBK\IBK_DRFN\ProjSrc\SrcChartEx\ChartAddIn\ChartAnalysisToolAddIn\AnalysisTool\DlgFiboSet.cpp
; File C:\Program Files (x86)\Microsoft Visual Studio\2019\Community\VC\Tools\MSVC\14.29.30133\atlmfc\include\atltime.h
; File D:\git\src\IBK\IBK_DRFN\ProjSrc\SrcChartEx\ChartAddIn\ChartAnalysisToolAddIn\AnalysisTool\DlgFiboSet.cpp
; File C:\Program Files (x86)\Microsoft Visual Studio\2019\Community\VC\Tools\MSVC\14.29.30133\atlmfc\include\afxwin2.inl
; File D:\git\src\IBK\IBK_DRFN\ProjSrc\SrcChartEx\ChartAddIn\ChartAnalysisToolAddIn\AnalysisTool\DlgFiboSet.cpp
; File C:\Program Files (x86)\Microsoft Visual Studio\2019\Community\VC\Tools\MSVC\14.29.30133\atlmfc\include\atltime.h
; File D:\git\src\IBK\IBK_DRFN\ProjSrc\SrcChartEx\ChartAddIn\ChartAnalysisToolAddIn\AnalysisTool\DlgFiboSet.cpp
; File C:\Program Files (x86)\Microsoft Visual Studio\2019\Community\VC\Tools\MSVC\14.29.30133\atlmfc\include\afxwin2.inl
; File D:\git\src\IBK\IBK_DRFN\ProjSrc\SrcChartEx\ChartAddIn\ChartAnalysisToolAddIn\AnalysisTool\DlgFiboSet.cpp
; File C:\Program Files (x86)\Microsoft Visual Studio\2019\Community\VC\Tools\MSVC\14.29.30133\atlmfc\include\afxwin2.inl
; File D:\git\src\IBK\IBK_DRFN\ProjSrc\SrcChartEx\ChartAddIn\ChartAnalysisToolAddIn\AnalysisTool\DlgFiboSet.cpp
; File C:\Program Files (x86)\Microsoft Visual Studio\2019\Community\VC\Tools\MSVC\14.29.30133\atlmfc\include\afxwin2.inl
; File D:\git\src\IBK\IBK_DRFN\ProjSrc\SrcChartEx\ChartAddIn\ChartAnalysisToolAddIn\AnalysisTool\DlgFiboSet.cpp
; File C:\Program Files (x86)\Microsoft Visual Studio\2019\Community\VC\Tools\MSVC\14.29.30133\atlmfc\include\afxwin2.inl
; File D:\git\src\IBK\IBK_DRFN\ProjSrc\SrcChartEx\ChartAddIn\ChartAnalysisToolAddIn\AnalysisTool\DlgFiboSet.cpp
;	COMDAT ?SetDateValueLists@CDlgFiboSet@@AAEXXZ
_TEXT	SEGMENT
_this$GSCopy$1$ = -160					; size = 4
tv661 = -156						; size = 8
$T2 = -156						; size = 8
$T3 = -156						; size = 8
$T4 = -156						; size = 8
$T5 = -156						; size = 8
$T6 = -156						; size = 8
tv708 = -148						; size = 8
tv684 = -148						; size = 8
$T7 = -148						; size = 8
$T8 = -144						; size = 4
$T9 = -144						; size = 4
$T10 = -144						; size = 4
_xTime$ = -140						; size = 8
_strXDate$ = -132					; size = 4
_strYValue$ = -128					; size = 4
_ptmTemp$11 = -124					; size = 36
_ptmTemp$12 = -124					; size = 36
_ptmTemp$13 = -124					; size = 36
_ptmTemp$14 = -88					; size = 36
_ptmTemp$15 = -88					; size = 36
_ptmTemp$16 = -88					; size = 36
_ptmTemp$17 = -52					; size = 36
_ptmTemp$18 = -52					; size = 36
_ptmTemp$19 = -52					; size = 36
__$ArrayPad$ = -16					; size = 4
__$EHRec$ = -12						; size = 12
?SetDateValueLists@CDlgFiboSet@@AAEXXZ PROC		; CDlgFiboSet::SetDateValueLists, COMDAT
; _this$ = ecx

; 1380 : {

  00000	55		 push	 ebp
  00001	8b ec		 mov	 ebp, esp
  00003	6a ff		 push	 -1
  00005	68 00 00 00 00	 push	 __ehhandler$?SetDateValueLists@CDlgFiboSet@@AAEXXZ
  0000a	64 a1 00 00 00
	00		 mov	 eax, DWORD PTR fs:0
  00010	50		 push	 eax
  00011	81 ec 94 00 00
	00		 sub	 esp, 148		; 00000094H
  00017	a1 00 00 00 00	 mov	 eax, DWORD PTR ___security_cookie
  0001c	33 c5		 xor	 eax, ebp
  0001e	89 45 f0	 mov	 DWORD PTR __$ArrayPad$[ebp], eax
  00021	53		 push	 ebx
  00022	56		 push	 esi
  00023	57		 push	 edi
  00024	50		 push	 eax
  00025	8d 45 f4	 lea	 eax, DWORD PTR __$EHRec$[ebp]
  00028	64 a3 00 00 00
	00		 mov	 DWORD PTR fs:0, eax
  0002e	8b d9		 mov	 ebx, ecx
  00030	89 9d 60 ff ff
	ff		 mov	 DWORD PTR _this$GSCopy$1$[ebp], ebx

; 1381 : 	CString strXDate;

  00036	8d 8d 7c ff ff
	ff		 lea	 ecx, DWORD PTR _strXDate$[ebp]
  0003c	ff 15 00 00 00
	00		 call	 DWORD PTR __imp_??0?$CStringT@DV?$StrTraitMFC_DLL@DV?$ChTraitsCRT@D@ATL@@@@@ATL@@QAE@XZ
; File C:\Program Files (x86)\Microsoft Visual Studio\2019\Community\VC\Tools\MSVC\14.29.30133\atlmfc\include\afxwin2.inl

; 124  : 	{ ASSERT(::IsWindow(m_hWnd)); return ::IsWindowVisible(m_hWnd); }

  00042	ff b3 70 0a 00
	00		 push	 DWORD PTR [ebx+2672]
  00048	8b 3d 00 00 00
	00		 mov	 edi, DWORD PTR __imp__IsWindowVisible@4
  0004e	0f 57 c0	 xorps	 xmm0, xmm0
; File D:\git\src\IBK\IBK_DRFN\ProjSrc\SrcChartEx\ChartAddIn\ChartAnalysisToolAddIn\AnalysisTool\DlgFiboSet.cpp

; 1381 : 	CString strXDate;

  00051	c7 45 fc 00 00
	00 00		 mov	 DWORD PTR __$EHRec$[ebp+8], 0
; File C:\Program Files (x86)\Microsoft Visual Studio\2019\Community\VC\Tools\MSVC\14.29.30133\atlmfc\include\atltime.h

; 412  : 	m_time(0)

  00058	66 0f 13 85 74
	ff ff ff	 movlpd	 QWORD PTR _xTime$[ebp], xmm0
; File C:\Program Files (x86)\Microsoft Visual Studio\2019\Community\VC\Tools\MSVC\14.29.30133\atlmfc\include\afxwin2.inl

; 124  : 	{ ASSERT(::IsWindow(m_hWnd)); return ::IsWindowVisible(m_hWnd); }

  00060	ff d7		 call	 edi
; File D:\git\src\IBK\IBK_DRFN\ProjSrc\SrcChartEx\ChartAddIn\ChartAnalysisToolAddIn\AnalysisTool\DlgFiboSet.cpp

; 1384 : 	if(m_ctrlXDateTime1.IsWindowVisible() == TRUE)

  00062	8b 35 00 00 00
	00		 mov	 esi, DWORD PTR __imp___localtime64_s
  00068	83 f8 01	 cmp	 eax, 1
  0006b	0f 85 f5 00 00
	00		 jne	 $LN2@SetDateVal

; 1385 : 	{
; 1386 : 		m_ctrlXDateTime1.GetTime(xTime);

  00071	8d 85 74 ff ff
	ff		 lea	 eax, DWORD PTR _xTime$[ebp]
  00077	50		 push	 eax
  00078	8d 8b 50 0a 00
	00		 lea	 ecx, DWORD PTR [ebx+2640]
  0007e	e8 00 00 00 00	 call	 ?GetTime@CDateTimeCtrl@@QBEKAAVCTime@ATL@@@Z ; CDateTimeCtrl::GetTime
; File C:\Program Files (x86)\Microsoft Visual Studio\2019\Community\VC\Tools\MSVC\14.29.30133\atlmfc\include\atltime.h

; 614  : 		errno_t err = _localtime64_s(&ptmTemp, &m_time);

  00083	8d 85 74 ff ff
	ff		 lea	 eax, DWORD PTR _xTime$[ebp]
  00089	50		 push	 eax
  0008a	8d 45 cc	 lea	 eax, DWORD PTR _ptmTemp$19[ebp]
  0008d	50		 push	 eax
  0008e	ff d6		 call	 esi

; 615  : 
; 616  : 		if (err != 0)

  00090	33 c9		 xor	 ecx, ecx
  00092	85 c0		 test	 eax, eax

; 614  : 		errno_t err = _localtime64_s(&ptmTemp, &m_time);

  00094	8d 85 74 ff ff
	ff		 lea	 eax, DWORD PTR _xTime$[ebp]

; 616  : 		if (err != 0)

  0009a	0f 44 4d d8	 cmove	 ecx, DWORD PTR _ptmTemp$19[ebp+12]

; 614  : 		errno_t err = _localtime64_s(&ptmTemp, &m_time);

  0009e	50		 push	 eax
  0009f	8d 45 a8	 lea	 eax, DWORD PTR _ptmTemp$16[ebp]

; 616  : 		if (err != 0)

  000a2	89 8d 70 ff ff
	ff		 mov	 DWORD PTR $T10[ebp], ecx

; 614  : 		errno_t err = _localtime64_s(&ptmTemp, &m_time);

  000a8	50		 push	 eax
  000a9	ff d6		 call	 esi
  000ab	83 c4 10	 add	 esp, 16			; 00000010H

; 615  : 
; 616  : 		if (err != 0)

  000ae	85 c0		 test	 eax, eax
  000b0	75 06		 jne	 SHORT $LN34@SetDateVal

; 671  : 	return ptm ? ptm->tm_mon + 1 : 0;

  000b2	8b 7d b8	 mov	 edi, DWORD PTR _ptmTemp$16[ebp+16]
  000b5	47		 inc	 edi
  000b6	eb 02		 jmp	 SHORT $LN35@SetDateVal
$LN34@SetDateVal:
  000b8	33 ff		 xor	 edi, edi
$LN35@SetDateVal:

; 614  : 		errno_t err = _localtime64_s(&ptmTemp, &m_time);

  000ba	8d 85 74 ff ff
	ff		 lea	 eax, DWORD PTR _xTime$[ebp]
  000c0	50		 push	 eax
  000c1	8d 45 84	 lea	 eax, DWORD PTR _ptmTemp$13[ebp]
  000c4	50		 push	 eax
  000c5	ff d6		 call	 esi
  000c7	83 c4 08	 add	 esp, 8

; 615  : 
; 616  : 		if (err != 0)

  000ca	85 c0		 test	 eax, eax
  000cc	75 0a		 jne	 SHORT $LN50@SetDateVal

; 662  : 	return ptm ? (ptm->tm_year) + 1900 : 0 ;

  000ce	8b 45 98	 mov	 eax, DWORD PTR _ptmTemp$13[ebp+20]
  000d1	05 6c 07 00 00	 add	 eax, 1900		; 0000076cH
  000d6	eb 02		 jmp	 SHORT $LN51@SetDateVal
$LN50@SetDateVal:
  000d8	33 c0		 xor	 eax, eax
$LN51@SetDateVal:
; File D:\git\src\IBK\IBK_DRFN\ProjSrc\SrcChartEx\ChartAddIn\ChartAnalysisToolAddIn\AnalysisTool\DlgFiboSet.cpp

; 1401 : 		strXDate.Format(_T("%04d%02d%02d%s"),xTime.GetYear(),xTime.GetMonth(),xTime.GetDay(), _T("000000"));

  000da	68 00 00 00 00	 push	 OFFSET ??_C@_06GEKNBBDK@000000@
  000df	ff b5 70 ff ff
	ff		 push	 DWORD PTR $T10[ebp]
  000e5	57		 push	 edi
  000e6	50		 push	 eax
  000e7	8d 85 7c ff ff
	ff		 lea	 eax, DWORD PTR _strXDate$[ebp]
  000ed	68 00 00 00 00	 push	 OFFSET ??_C@_0P@NDLMDLNF@?$CF04d?$CF02d?$CF02d?$CFs@
  000f2	50		 push	 eax
  000f3	ff 15 00 00 00
	00		 call	 DWORD PTR __imp_?Format@?$CStringT@DV?$StrTraitMFC_DLL@DV?$ChTraitsCRT@D@ATL@@@@@ATL@@QAAXPBDZZ

; 1402 : 		__int64 lMakeTime = _atoi64(strXDate);

  000f9	ff b5 7c ff ff
	ff		 push	 DWORD PTR _strXDate$[ebp]
  000ff	ff 15 00 00 00
	00		 call	 DWORD PTR __imp___atoi64

; 1403 : 
; 1404 : 		pCoordinate = m_pElementPointList->GetAt(0);

  00105	8b 8b 88 0c 00
	00		 mov	 ecx, DWORD PTR [ebx+3208]
  0010b	83 c4 1c	 add	 esp, 28			; 0000001cH
  0010e	8b f8		 mov	 edi, eax
  00110	8b f2		 mov	 esi, edx
  00112	6a 00		 push	 0
  00114	e8 00 00 00 00	 call	 ?GetAt@CElementPointList@@QAEPAVCCoordinate@@H@Z ; CElementPointList::GetAt

; 1405 : 		pCoordinate->SetX((double)lMakeTime,0);

  00119	8b d6		 mov	 edx, esi
  0011b	8b cf		 mov	 ecx, edi
  0011d	8b d8		 mov	 ebx, eax
  0011f	e8 00 00 00 00	 call	 __ltod3
  00124	6a 00		 push	 0
  00126	8d 85 6c ff ff
	ff		 lea	 eax, DWORD PTR $T7[ebp]
  0012c	f2 0f 11 85 64
	ff ff ff	 movsd	 QWORD PTR tv661[ebp], xmm0
  00134	50		 push	 eax
  00135	8b cb		 mov	 ecx, ebx
  00137	f2 0f 11 85 6c
	ff ff ff	 movsd	 QWORD PTR $T7[ebp], xmm0
  0013f	e8 00 00 00 00	 call	 ?SetX@CCoordinate@@QAEXABNH@Z ; CCoordinate::SetX

; 1406 : 		m_stAnalysisTool.dStartXPos = (double)lMakeTime;

  00144	8b 9d 60 ff ff
	ff		 mov	 ebx, DWORD PTR _this$GSCopy$1$[ebp]
  0014a	f2 0f 10 85 64
	ff ff ff	 movsd	 xmm0, QWORD PTR tv661[ebp]
  00152	8b 35 00 00 00
	00		 mov	 esi, DWORD PTR __imp___localtime64_s
  00158	8b 3d 00 00 00
	00		 mov	 edi, DWORD PTR __imp__IsWindowVisible@4
  0015e	f2 0f 11 83 f8
	0b 00 00	 movsd	 QWORD PTR [ebx+3064], xmm0
$LN2@SetDateVal:
; File C:\Program Files (x86)\Microsoft Visual Studio\2019\Community\VC\Tools\MSVC\14.29.30133\atlmfc\include\afxwin2.inl

; 124  : 	{ ASSERT(::IsWindow(m_hWnd)); return ::IsWindowVisible(m_hWnd); }

  00166	ff b3 f0 0a 00
	00		 push	 DWORD PTR [ebx+2800]
  0016c	ff d7		 call	 edi
; File D:\git\src\IBK\IBK_DRFN\ProjSrc\SrcChartEx\ChartAddIn\ChartAnalysisToolAddIn\AnalysisTool\DlgFiboSet.cpp

; 1410 : 	if(m_ctrlXDateTime2.IsWindowVisible() == TRUE)

  0016e	83 f8 01	 cmp	 eax, 1
  00171	0f 85 ef 00 00
	00		 jne	 $LN3@SetDateVal

; 1411 : 	{
; 1412 : 		m_ctrlXDateTime2.GetTime(xTime);

  00177	8d 85 74 ff ff
	ff		 lea	 eax, DWORD PTR _xTime$[ebp]
  0017d	50		 push	 eax
  0017e	8d 8b d0 0a 00
	00		 lea	 ecx, DWORD PTR [ebx+2768]
  00184	e8 00 00 00 00	 call	 ?GetTime@CDateTimeCtrl@@QBEKAAVCTime@ATL@@@Z ; CDateTimeCtrl::GetTime
; File C:\Program Files (x86)\Microsoft Visual Studio\2019\Community\VC\Tools\MSVC\14.29.30133\atlmfc\include\atltime.h

; 614  : 		errno_t err = _localtime64_s(&ptmTemp, &m_time);

  00189	8d 85 74 ff ff
	ff		 lea	 eax, DWORD PTR _xTime$[ebp]
  0018f	50		 push	 eax
  00190	8d 45 84	 lea	 eax, DWORD PTR _ptmTemp$12[ebp]
  00193	50		 push	 eax
  00194	ff d6		 call	 esi

; 615  : 
; 616  : 		if (err != 0)

  00196	33 c9		 xor	 ecx, ecx
  00198	85 c0		 test	 eax, eax

; 614  : 		errno_t err = _localtime64_s(&ptmTemp, &m_time);

  0019a	8d 85 74 ff ff
	ff		 lea	 eax, DWORD PTR _xTime$[ebp]

; 616  : 		if (err != 0)

  001a0	0f 44 4d 90	 cmove	 ecx, DWORD PTR _ptmTemp$12[ebp+12]

; 614  : 		errno_t err = _localtime64_s(&ptmTemp, &m_time);

  001a4	50		 push	 eax
  001a5	8d 45 a8	 lea	 eax, DWORD PTR _ptmTemp$15[ebp]

; 616  : 		if (err != 0)

  001a8	89 8d 70 ff ff
	ff		 mov	 DWORD PTR $T9[ebp], ecx

; 614  : 		errno_t err = _localtime64_s(&ptmTemp, &m_time);

  001ae	50		 push	 eax
  001af	ff d6		 call	 esi
  001b1	83 c4 10	 add	 esp, 16			; 00000010H

; 615  : 
; 616  : 		if (err != 0)

  001b4	85 c0		 test	 eax, eax
  001b6	75 06		 jne	 SHORT $LN86@SetDateVal

; 671  : 	return ptm ? ptm->tm_mon + 1 : 0;

  001b8	8b 7d b8	 mov	 edi, DWORD PTR _ptmTemp$15[ebp+16]
  001bb	47		 inc	 edi
  001bc	eb 02		 jmp	 SHORT $LN87@SetDateVal
$LN86@SetDateVal:
  001be	33 ff		 xor	 edi, edi
$LN87@SetDateVal:

; 614  : 		errno_t err = _localtime64_s(&ptmTemp, &m_time);

  001c0	8d 85 74 ff ff
	ff		 lea	 eax, DWORD PTR _xTime$[ebp]
  001c6	50		 push	 eax
  001c7	8d 45 cc	 lea	 eax, DWORD PTR _ptmTemp$18[ebp]
  001ca	50		 push	 eax
  001cb	ff d6		 call	 esi
  001cd	83 c4 08	 add	 esp, 8

; 615  : 
; 616  : 		if (err != 0)

  001d0	85 c0		 test	 eax, eax
  001d2	75 0a		 jne	 SHORT $LN102@SetDateVal

; 662  : 	return ptm ? (ptm->tm_year) + 1900 : 0 ;

  001d4	8b 45 e0	 mov	 eax, DWORD PTR _ptmTemp$18[ebp+20]
  001d7	05 6c 07 00 00	 add	 eax, 1900		; 0000076cH
  001dc	eb 02		 jmp	 SHORT $LN103@SetDateVal
$LN102@SetDateVal:
  001de	33 c0		 xor	 eax, eax
$LN103@SetDateVal:
; File D:\git\src\IBK\IBK_DRFN\ProjSrc\SrcChartEx\ChartAddIn\ChartAnalysisToolAddIn\AnalysisTool\DlgFiboSet.cpp

; 1427 : 		strXDate.Format(_T("%04d%02d%02d%s"),xTime.GetYear(),xTime.GetMonth(),xTime.GetDay(), _T("000000"));

  001e0	68 00 00 00 00	 push	 OFFSET ??_C@_06GEKNBBDK@000000@
  001e5	ff b5 70 ff ff
	ff		 push	 DWORD PTR $T9[ebp]
  001eb	57		 push	 edi
  001ec	50		 push	 eax
  001ed	8d 85 7c ff ff
	ff		 lea	 eax, DWORD PTR _strXDate$[ebp]
  001f3	68 00 00 00 00	 push	 OFFSET ??_C@_0P@NDLMDLNF@?$CF04d?$CF02d?$CF02d?$CFs@
  001f8	50		 push	 eax
  001f9	ff 15 00 00 00
	00		 call	 DWORD PTR __imp_?Format@?$CStringT@DV?$StrTraitMFC_DLL@DV?$ChTraitsCRT@D@ATL@@@@@ATL@@QAAXPBDZZ

; 1428 : 		__int64 lMakeTime = _atoi64(strXDate);

  001ff	ff b5 7c ff ff
	ff		 push	 DWORD PTR _strXDate$[ebp]
  00205	ff 15 00 00 00
	00		 call	 DWORD PTR __imp___atoi64

; 1429 : 
; 1430 : 		pCoordinate = m_pElementPointList->GetAt(1);

  0020b	8b 8b 88 0c 00
	00		 mov	 ecx, DWORD PTR [ebx+3208]
  00211	83 c4 1c	 add	 esp, 28			; 0000001cH
  00214	8b f8		 mov	 edi, eax
  00216	8b f2		 mov	 esi, edx
  00218	6a 01		 push	 1
  0021a	e8 00 00 00 00	 call	 ?GetAt@CElementPointList@@QAEPAVCCoordinate@@H@Z ; CElementPointList::GetAt

; 1431 : 		pCoordinate->SetX((double)lMakeTime,1);

  0021f	8b d6		 mov	 edx, esi
  00221	8b cf		 mov	 ecx, edi
  00223	8b d8		 mov	 ebx, eax
  00225	e8 00 00 00 00	 call	 __ltod3
  0022a	6a 01		 push	 1
  0022c	8d 85 64 ff ff
	ff		 lea	 eax, DWORD PTR $T6[ebp]
  00232	f2 0f 11 85 6c
	ff ff ff	 movsd	 QWORD PTR tv684[ebp], xmm0
  0023a	50		 push	 eax
  0023b	8b cb		 mov	 ecx, ebx
  0023d	f2 0f 11 85 64
	ff ff ff	 movsd	 QWORD PTR $T6[ebp], xmm0
  00245	e8 00 00 00 00	 call	 ?SetX@CCoordinate@@QAEXABNH@Z ; CCoordinate::SetX

; 1432 : 		m_stAnalysisTool.dEndXPos = (double)lMakeTime;

  0024a	8b 9d 60 ff ff
	ff		 mov	 ebx, DWORD PTR _this$GSCopy$1$[ebp]
  00250	f2 0f 10 85 6c
	ff ff ff	 movsd	 xmm0, QWORD PTR tv684[ebp]
  00258	8b 3d 00 00 00
	00		 mov	 edi, DWORD PTR __imp__IsWindowVisible@4
  0025e	f2 0f 11 83 00
	0c 00 00	 movsd	 QWORD PTR [ebx+3072], xmm0
$LN3@SetDateVal:
; File C:\Program Files (x86)\Microsoft Visual Studio\2019\Community\VC\Tools\MSVC\14.29.30133\atlmfc\include\afxwin2.inl

; 124  : 	{ ASSERT(::IsWindow(m_hWnd)); return ::IsWindowVisible(m_hWnd); }

  00266	ff b3 70 0b 00
	00		 push	 DWORD PTR [ebx+2928]
  0026c	ff d7		 call	 edi
; File D:\git\src\IBK\IBK_DRFN\ProjSrc\SrcChartEx\ChartAddIn\ChartAnalysisToolAddIn\AnalysisTool\DlgFiboSet.cpp

; 1436 : 	if(m_ctrlXDateTime3.IsWindowVisible() == TRUE)

  0026e	83 f8 01	 cmp	 eax, 1
  00271	0f 85 f5 00 00
	00		 jne	 $LN4@SetDateVal

; 1437 : 	{
; 1438 : 		m_ctrlXDateTime3.GetTime(xTime);

  00277	8d 85 74 ff ff
	ff		 lea	 eax, DWORD PTR _xTime$[ebp]
  0027d	50		 push	 eax
  0027e	8d 8b 50 0b 00
	00		 lea	 ecx, DWORD PTR [ebx+2896]
  00284	e8 00 00 00 00	 call	 ?GetTime@CDateTimeCtrl@@QBEKAAVCTime@ATL@@@Z ; CDateTimeCtrl::GetTime
; File C:\Program Files (x86)\Microsoft Visual Studio\2019\Community\VC\Tools\MSVC\14.29.30133\atlmfc\include\atltime.h

; 614  : 		errno_t err = _localtime64_s(&ptmTemp, &m_time);

  00289	8b 35 00 00 00
	00		 mov	 esi, DWORD PTR __imp___localtime64_s
  0028f	8d 85 74 ff ff
	ff		 lea	 eax, DWORD PTR _xTime$[ebp]
  00295	50		 push	 eax
  00296	8d 45 84	 lea	 eax, DWORD PTR _ptmTemp$11[ebp]
  00299	50		 push	 eax
  0029a	ff d6		 call	 esi

; 615  : 
; 616  : 		if (err != 0)

  0029c	33 c9		 xor	 ecx, ecx
  0029e	85 c0		 test	 eax, eax

; 614  : 		errno_t err = _localtime64_s(&ptmTemp, &m_time);

  002a0	8d 85 74 ff ff
	ff		 lea	 eax, DWORD PTR _xTime$[ebp]

; 616  : 		if (err != 0)

  002a6	0f 44 4d 90	 cmove	 ecx, DWORD PTR _ptmTemp$11[ebp+12]

; 614  : 		errno_t err = _localtime64_s(&ptmTemp, &m_time);

  002aa	50		 push	 eax
  002ab	8d 45 a8	 lea	 eax, DWORD PTR _ptmTemp$14[ebp]

; 616  : 		if (err != 0)

  002ae	89 8d 70 ff ff
	ff		 mov	 DWORD PTR $T8[ebp], ecx

; 614  : 		errno_t err = _localtime64_s(&ptmTemp, &m_time);

  002b4	50		 push	 eax
  002b5	ff d6		 call	 esi
  002b7	83 c4 10	 add	 esp, 16			; 00000010H

; 615  : 
; 616  : 		if (err != 0)

  002ba	85 c0		 test	 eax, eax
  002bc	75 06		 jne	 SHORT $LN138@SetDateVal

; 671  : 	return ptm ? ptm->tm_mon + 1 : 0;

  002be	8b 7d b8	 mov	 edi, DWORD PTR _ptmTemp$14[ebp+16]
  002c1	47		 inc	 edi
  002c2	eb 02		 jmp	 SHORT $LN139@SetDateVal
$LN138@SetDateVal:
  002c4	33 ff		 xor	 edi, edi
$LN139@SetDateVal:

; 614  : 		errno_t err = _localtime64_s(&ptmTemp, &m_time);

  002c6	8d 85 74 ff ff
	ff		 lea	 eax, DWORD PTR _xTime$[ebp]
  002cc	50		 push	 eax
  002cd	8d 45 cc	 lea	 eax, DWORD PTR _ptmTemp$17[ebp]
  002d0	50		 push	 eax
  002d1	ff d6		 call	 esi
  002d3	83 c4 08	 add	 esp, 8

; 615  : 
; 616  : 		if (err != 0)

  002d6	85 c0		 test	 eax, eax
  002d8	75 0a		 jne	 SHORT $LN154@SetDateVal

; 662  : 	return ptm ? (ptm->tm_year) + 1900 : 0 ;

  002da	8b 45 e0	 mov	 eax, DWORD PTR _ptmTemp$17[ebp+20]
  002dd	05 6c 07 00 00	 add	 eax, 1900		; 0000076cH
  002e2	eb 02		 jmp	 SHORT $LN155@SetDateVal
$LN154@SetDateVal:
  002e4	33 c0		 xor	 eax, eax
$LN155@SetDateVal:
; File D:\git\src\IBK\IBK_DRFN\ProjSrc\SrcChartEx\ChartAddIn\ChartAnalysisToolAddIn\AnalysisTool\DlgFiboSet.cpp

; 1453 : 		strXDate.Format(_T("%04d%02d%02d%s"),xTime.GetYear(),xTime.GetMonth(),xTime.GetDay(), _T("000000"));

  002e6	68 00 00 00 00	 push	 OFFSET ??_C@_06GEKNBBDK@000000@
  002eb	ff b5 70 ff ff
	ff		 push	 DWORD PTR $T8[ebp]
  002f1	57		 push	 edi
  002f2	50		 push	 eax
  002f3	8d 85 7c ff ff
	ff		 lea	 eax, DWORD PTR _strXDate$[ebp]
  002f9	68 00 00 00 00	 push	 OFFSET ??_C@_0P@NDLMDLNF@?$CF04d?$CF02d?$CF02d?$CFs@
  002fe	50		 push	 eax
  002ff	ff 15 00 00 00
	00		 call	 DWORD PTR __imp_?Format@?$CStringT@DV?$StrTraitMFC_DLL@DV?$ChTraitsCRT@D@ATL@@@@@ATL@@QAAXPBDZZ

; 1454 : 		__int64 lMakeTime = _atoi64(strXDate);

  00305	ff b5 7c ff ff
	ff		 push	 DWORD PTR _strXDate$[ebp]
  0030b	ff 15 00 00 00
	00		 call	 DWORD PTR __imp___atoi64

; 1455 : 
; 1456 : 		pCoordinate = m_pElementPointList->GetAt(2);

  00311	8b 8b 88 0c 00
	00		 mov	 ecx, DWORD PTR [ebx+3208]
  00317	83 c4 1c	 add	 esp, 28			; 0000001cH
  0031a	8b f8		 mov	 edi, eax
  0031c	8b f2		 mov	 esi, edx
  0031e	6a 02		 push	 2
  00320	e8 00 00 00 00	 call	 ?GetAt@CElementPointList@@QAEPAVCCoordinate@@H@Z ; CElementPointList::GetAt

; 1457 : 		pCoordinate->SetX((double)lMakeTime,2);

  00325	8b d6		 mov	 edx, esi
  00327	8b cf		 mov	 ecx, edi
  00329	8b d8		 mov	 ebx, eax
  0032b	e8 00 00 00 00	 call	 __ltod3
  00330	6a 02		 push	 2
  00332	8d 85 64 ff ff
	ff		 lea	 eax, DWORD PTR $T5[ebp]
  00338	f2 0f 11 85 6c
	ff ff ff	 movsd	 QWORD PTR tv708[ebp], xmm0
  00340	50		 push	 eax
  00341	8b cb		 mov	 ecx, ebx
  00343	f2 0f 11 85 64
	ff ff ff	 movsd	 QWORD PTR $T5[ebp], xmm0
  0034b	e8 00 00 00 00	 call	 ?SetX@CCoordinate@@QAEXABNH@Z ; CCoordinate::SetX

; 1458 : 		m_stAnalysisTool.dThirdXPos = (double)lMakeTime;

  00350	8b 9d 60 ff ff
	ff		 mov	 ebx, DWORD PTR _this$GSCopy$1$[ebp]
  00356	f2 0f 10 85 6c
	ff ff ff	 movsd	 xmm0, QWORD PTR tv708[ebp]
  0035e	8b 3d 00 00 00
	00		 mov	 edi, DWORD PTR __imp__IsWindowVisible@4
  00364	f2 0f 11 83 08
	0c 00 00	 movsd	 QWORD PTR [ebx+3080], xmm0
$LN4@SetDateVal:

; 1463 : 	CString strYValue;

  0036c	8d 4d 80	 lea	 ecx, DWORD PTR _strYValue$[ebp]
  0036f	ff 15 00 00 00
	00		 call	 DWORD PTR __imp_??0?$CStringT@DV?$StrTraitMFC_DLL@DV?$ChTraitsCRT@D@ATL@@@@@ATL@@QAE@XZ
; File C:\Program Files (x86)\Microsoft Visual Studio\2019\Community\VC\Tools\MSVC\14.29.30133\atlmfc\include\afxwin2.inl

; 124  : 	{ ASSERT(::IsWindow(m_hWnd)); return ::IsWindowVisible(m_hWnd); }

  00375	ff b3 f0 08 00
	00		 push	 DWORD PTR [ebx+2288]
; File D:\git\src\IBK\IBK_DRFN\ProjSrc\SrcChartEx\ChartAddIn\ChartAnalysisToolAddIn\AnalysisTool\DlgFiboSet.cpp

; 1463 : 	CString strYValue;

  0037b	c6 45 fc 01	 mov	 BYTE PTR __$EHRec$[ebp+8], 1
; File C:\Program Files (x86)\Microsoft Visual Studio\2019\Community\VC\Tools\MSVC\14.29.30133\atlmfc\include\afxwin2.inl

; 124  : 	{ ASSERT(::IsWindow(m_hWnd)); return ::IsWindowVisible(m_hWnd); }

  0037f	ff d7		 call	 edi
; File D:\git\src\IBK\IBK_DRFN\ProjSrc\SrcChartEx\ChartAddIn\ChartAnalysisToolAddIn\AnalysisTool\DlgFiboSet.cpp

; 1464 : 	if(m_ctrlEditValue1.IsWindowVisible() == TRUE)

  00381	83 f8 01	 cmp	 eax, 1
  00384	75 50		 jne	 SHORT $LN5@SetDateVal

; 1465 : 	{
; 1466 : 		m_ctrlEditValue1.GetWindowText(strYValue);

  00386	8d 45 80	 lea	 eax, DWORD PTR _strYValue$[ebp]
  00389	50		 push	 eax
  0038a	8d 8b d0 08 00
	00		 lea	 ecx, DWORD PTR [ebx+2256]
  00390	e8 00 00 00 00	 call	 ?GetWindowTextA@CWnd@@QBEXAAV?$CStringT@DV?$StrTraitMFC_DLL@DV?$ChTraitsCRT@D@ATL@@@@@ATL@@@Z ; CWnd::GetWindowTextA

; 1467 : 		pCoordinate = m_pElementPointList->GetAt(0);

  00395	8b 8b 88 0c 00
	00		 mov	 ecx, DWORD PTR [ebx+3208]
  0039b	6a 00		 push	 0
  0039d	e8 00 00 00 00	 call	 ?GetAt@CElementPointList@@QAEPAVCCoordinate@@H@Z ; CElementPointList::GetAt

; 1468 : 		pCoordinate->SetY(atof(strYValue));

  003a2	ff 75 80	 push	 DWORD PTR _strYValue$[ebp]
  003a5	8b f0		 mov	 esi, eax
  003a7	ff 15 00 00 00
	00		 call	 DWORD PTR __imp__atof
  003ad	83 c4 04	 add	 esp, 4
  003b0	8d 85 64 ff ff
	ff		 lea	 eax, DWORD PTR $T4[ebp]
  003b6	8b ce		 mov	 ecx, esi
  003b8	dd 9d 64 ff ff
	ff		 fstp	 QWORD PTR $T4[ebp]
  003be	50		 push	 eax
  003bf	e8 00 00 00 00	 call	 ?SetY@CCoordinate@@QAEXABN@Z ; CCoordinate::SetY

; 1469 : 		m_stAnalysisTool.dStartYValue = atof(strYValue);

  003c4	ff 75 80	 push	 DWORD PTR _strYValue$[ebp]
  003c7	ff 15 00 00 00
	00		 call	 DWORD PTR __imp__atof
  003cd	dd 9b 10 0c 00
	00		 fstp	 QWORD PTR [ebx+3088]
  003d3	83 c4 04	 add	 esp, 4
$LN5@SetDateVal:
; File C:\Program Files (x86)\Microsoft Visual Studio\2019\Community\VC\Tools\MSVC\14.29.30133\atlmfc\include\afxwin2.inl

; 124  : 	{ ASSERT(::IsWindow(m_hWnd)); return ::IsWindowVisible(m_hWnd); }

  003d6	ff b3 70 09 00
	00		 push	 DWORD PTR [ebx+2416]
  003dc	ff d7		 call	 edi
; File D:\git\src\IBK\IBK_DRFN\ProjSrc\SrcChartEx\ChartAddIn\ChartAnalysisToolAddIn\AnalysisTool\DlgFiboSet.cpp

; 1472 : 	if(m_ctrlEditValue2.IsWindowVisible() == TRUE)

  003de	83 f8 01	 cmp	 eax, 1
  003e1	75 50		 jne	 SHORT $LN6@SetDateVal

; 1473 : 	{
; 1474 : 		m_ctrlEditValue2.GetWindowText(strYValue);

  003e3	8d 45 80	 lea	 eax, DWORD PTR _strYValue$[ebp]
  003e6	50		 push	 eax
  003e7	8d 8b 50 09 00
	00		 lea	 ecx, DWORD PTR [ebx+2384]
  003ed	e8 00 00 00 00	 call	 ?GetWindowTextA@CWnd@@QBEXAAV?$CStringT@DV?$StrTraitMFC_DLL@DV?$ChTraitsCRT@D@ATL@@@@@ATL@@@Z ; CWnd::GetWindowTextA

; 1475 : 		pCoordinate = m_pElementPointList->GetAt(1);

  003f2	8b 8b 88 0c 00
	00		 mov	 ecx, DWORD PTR [ebx+3208]
  003f8	6a 01		 push	 1
  003fa	e8 00 00 00 00	 call	 ?GetAt@CElementPointList@@QAEPAVCCoordinate@@H@Z ; CElementPointList::GetAt

; 1476 : 		pCoordinate->SetY(atof(strYValue));

  003ff	ff 75 80	 push	 DWORD PTR _strYValue$[ebp]
  00402	8b f0		 mov	 esi, eax
  00404	ff 15 00 00 00
	00		 call	 DWORD PTR __imp__atof
  0040a	83 c4 04	 add	 esp, 4
  0040d	8d 85 64 ff ff
	ff		 lea	 eax, DWORD PTR $T3[ebp]
  00413	8b ce		 mov	 ecx, esi
  00415	dd 9d 64 ff ff
	ff		 fstp	 QWORD PTR $T3[ebp]
  0041b	50		 push	 eax
  0041c	e8 00 00 00 00	 call	 ?SetY@CCoordinate@@QAEXABN@Z ; CCoordinate::SetY

; 1477 : 		m_stAnalysisTool.dEndYValue = atof(strYValue);

  00421	ff 75 80	 push	 DWORD PTR _strYValue$[ebp]
  00424	ff 15 00 00 00
	00		 call	 DWORD PTR __imp__atof
  0042a	dd 9b 18 0c 00
	00		 fstp	 QWORD PTR [ebx+3096]
  00430	83 c4 04	 add	 esp, 4
$LN6@SetDateVal:
; File C:\Program Files (x86)\Microsoft Visual Studio\2019\Community\VC\Tools\MSVC\14.29.30133\atlmfc\include\afxwin2.inl

; 124  : 	{ ASSERT(::IsWindow(m_hWnd)); return ::IsWindowVisible(m_hWnd); }

  00433	ff b3 f0 09 00
	00		 push	 DWORD PTR [ebx+2544]
  00439	ff d7		 call	 edi
; File D:\git\src\IBK\IBK_DRFN\ProjSrc\SrcChartEx\ChartAddIn\ChartAnalysisToolAddIn\AnalysisTool\DlgFiboSet.cpp

; 1480 : 	if(m_ctrlEditValue3.IsWindowVisible() == TRUE)

  0043b	83 f8 01	 cmp	 eax, 1
  0043e	75 50		 jne	 SHORT $LN7@SetDateVal

; 1481 : 	{
; 1482 : 		m_ctrlEditValue3.GetWindowText(strYValue);

  00440	8d 45 80	 lea	 eax, DWORD PTR _strYValue$[ebp]
  00443	50		 push	 eax
  00444	8d 8b d0 09 00
	00		 lea	 ecx, DWORD PTR [ebx+2512]
  0044a	e8 00 00 00 00	 call	 ?GetWindowTextA@CWnd@@QBEXAAV?$CStringT@DV?$StrTraitMFC_DLL@DV?$ChTraitsCRT@D@ATL@@@@@ATL@@@Z ; CWnd::GetWindowTextA

; 1483 : 		pCoordinate = m_pElementPointList->GetAt(2);

  0044f	8b 8b 88 0c 00
	00		 mov	 ecx, DWORD PTR [ebx+3208]
  00455	6a 02		 push	 2
  00457	e8 00 00 00 00	 call	 ?GetAt@CElementPointList@@QAEPAVCCoordinate@@H@Z ; CElementPointList::GetAt

; 1484 : 		pCoordinate->SetY(atof(strYValue));

  0045c	ff 75 80	 push	 DWORD PTR _strYValue$[ebp]
  0045f	8b f0		 mov	 esi, eax
  00461	ff 15 00 00 00
	00		 call	 DWORD PTR __imp__atof
  00467	83 c4 04	 add	 esp, 4
  0046a	8d 85 64 ff ff
	ff		 lea	 eax, DWORD PTR $T2[ebp]
  00470	8b ce		 mov	 ecx, esi
  00472	dd 9d 64 ff ff
	ff		 fstp	 QWORD PTR $T2[ebp]
  00478	50		 push	 eax
  00479	e8 00 00 00 00	 call	 ?SetY@CCoordinate@@QAEXABN@Z ; CCoordinate::SetY

; 1485 : 		m_stAnalysisTool.dThirdYValue = atof(strYValue);

  0047e	ff 75 80	 push	 DWORD PTR _strYValue$[ebp]
  00481	ff 15 00 00 00
	00		 call	 DWORD PTR __imp__atof
  00487	dd 9b 20 0c 00
	00		 fstp	 QWORD PTR [ebx+3104]
  0048d	83 c4 04	 add	 esp, 4
$LN7@SetDateVal:

; 1486 : 	}
; 1487 : }

  00490	8d 4d 80	 lea	 ecx, DWORD PTR _strYValue$[ebp]
  00493	ff 15 00 00 00
	00		 call	 DWORD PTR __imp_??1?$CStringT@DV?$StrTraitMFC_DLL@DV?$ChTraitsCRT@D@ATL@@@@@ATL@@QAE@XZ
  00499	8d 8d 7c ff ff
	ff		 lea	 ecx, DWORD PTR _strXDate$[ebp]
  0049f	ff 15 00 00 00
	00		 call	 DWORD PTR __imp_??1?$CStringT@DV?$StrTraitMFC_DLL@DV?$ChTraitsCRT@D@ATL@@@@@ATL@@QAE@XZ
  004a5	8b 4d f4	 mov	 ecx, DWORD PTR __$EHRec$[ebp]
  004a8	64 89 0d 00 00
	00 00		 mov	 DWORD PTR fs:0, ecx
  004af	59		 pop	 ecx
  004b0	5f		 pop	 edi
  004b1	5e		 pop	 esi
  004b2	5b		 pop	 ebx
  004b3	8b 4d f0	 mov	 ecx, DWORD PTR __$ArrayPad$[ebp]
  004b6	33 cd		 xor	 ecx, ebp
  004b8	e8 00 00 00 00	 call	 @__security_check_cookie@4
  004bd	8b e5		 mov	 esp, ebp
  004bf	5d		 pop	 ebp
  004c0	c3		 ret	 0
_TEXT	ENDS
;	COMDAT text$x
text$x	SEGMENT
__unwindfunclet$?SetDateValueLists@CDlgFiboSet@@AAEXXZ$0:
  00000	8d 8d 7c ff ff
	ff		 lea	 ecx, DWORD PTR _strXDate$[ebp]
  00006	ff 25 00 00 00
	00		 jmp	 DWORD PTR __imp_??1?$CStringT@DV?$StrTraitMFC_DLL@DV?$ChTraitsCRT@D@ATL@@@@@ATL@@QAE@XZ
__unwindfunclet$?SetDateValueLists@CDlgFiboSet@@AAEXXZ$1:
  0000c	8d 4d 80	 lea	 ecx, DWORD PTR _strYValue$[ebp]
  0000f	ff 25 00 00 00
	00		 jmp	 DWORD PTR __imp_??1?$CStringT@DV?$StrTraitMFC_DLL@DV?$ChTraitsCRT@D@ATL@@@@@ATL@@QAE@XZ
  00015	cc		 int	 3
  00016	cc		 int	 3
  00017	cc		 int	 3
  00018	cc		 int	 3
  00019	cc		 int	 3
__ehhandler$?SetDateValueLists@CDlgFiboSet@@AAEXXZ:
  0001a	90		 npad	 1
  0001b	90		 npad	 1
  0001c	8b 54 24 08	 mov	 edx, DWORD PTR [esp+8]
  00020	8d 42 0c	 lea	 eax, DWORD PTR [edx+12]
  00023	8b 8a 5c ff ff
	ff		 mov	 ecx, DWORD PTR [edx-164]
  00029	33 c8		 xor	 ecx, eax
  0002b	e8 00 00 00 00	 call	 @__security_check_cookie@4
  00030	8b 4a fc	 mov	 ecx, DWORD PTR [edx-4]
  00033	33 c8		 xor	 ecx, eax
  00035	e8 00 00 00 00	 call	 @__security_check_cookie@4
  0003a	b8 00 00 00 00	 mov	 eax, OFFSET __ehfuncinfo$?SetDateValueLists@CDlgFiboSet@@AAEXXZ
  0003f	e9 00 00 00 00	 jmp	 ___CxxFrameHandler3
text$x	ENDS
?SetDateValueLists@CDlgFiboSet@@AAEXXZ ENDP		; CDlgFiboSet::SetDateValueLists
; Function compile flags: /Ogtp
; File D:\git\src\IBK\IBK_DRFN\ProjSrc\SrcChartEx\ChartAddIn\ChartAnalysisToolAddIn\AnalysisTool\DlgFiboSet.cpp
;	COMDAT ?SetLineExtEnvironment@CDlgFiboSet@@AAEX_N0@Z
_TEXT	SEGMENT
$T1 = 8							; size = 4
_bLeft$ = 8						; size = 1
$T2 = 12						; size = 4
_bRight$ = 12						; size = 1
?SetLineExtEnvironment@CDlgFiboSet@@AAEX_N0@Z PROC	; CDlgFiboSet::SetLineExtEnvironment, COMDAT
; _this$ = ecx

; 1086 : {

  00000	55		 push	 ebp
  00001	8b ec		 mov	 ebp, esp

; 1087 : 	m_pLineExtEnvironment->SetLineExt(bLeft,bRight);

  00003	0f b6 45 0c	 movzx	 eax, BYTE PTR _bRight$[ebp]
  00007	8b 89 f4 0c 00
	00		 mov	 ecx, DWORD PTR [ecx+3316]
  0000d	89 45 0c	 mov	 DWORD PTR $T2[ebp], eax
  00010	0f b6 45 08	 movzx	 eax, BYTE PTR _bLeft$[ebp]
  00014	89 45 08	 mov	 DWORD PTR $T1[ebp], eax
  00017	8d 45 0c	 lea	 eax, DWORD PTR $T2[ebp]
  0001a	50		 push	 eax
  0001b	8d 45 08	 lea	 eax, DWORD PTR $T1[ebp]
  0001e	50		 push	 eax
  0001f	e8 00 00 00 00	 call	 ?SetLineExt@CLineExtEnvironment@@QAEXABH0@Z ; CLineExtEnvironment::SetLineExt

; 1088 : }

  00024	5d		 pop	 ebp
  00025	c2 08 00	 ret	 8
?SetLineExtEnvironment@CDlgFiboSet@@AAEX_N0@Z ENDP	; CDlgFiboSet::SetLineExtEnvironment
_TEXT	ENDS
; Function compile flags: /Ogtp
; File D:\git\src\IBK\IBK_DRFN\ProjSrc\SrcChartEx\ChartAddIn\ChartAnalysisToolAddIn\AnalysisTool\DlgFiboSet.cpp
; File C:\Program Files (x86)\Microsoft Visual Studio\2019\Community\VC\Tools\MSVC\14.29.30133\atlmfc\include\afxwin2.inl
; File D:\git\src\IBK\IBK_DRFN\ProjSrc\SrcChartEx\ChartAddIn\ChartAnalysisToolAddIn\AnalysisTool\DlgFiboSet.cpp
; File C:\Program Files (x86)\Microsoft Visual Studio\2019\Community\VC\Tools\MSVC\14.29.30133\atlmfc\include\afxwin2.inl
; File D:\git\src\IBK\IBK_DRFN\ProjSrc\SrcChartEx\ChartAddIn\ChartAnalysisToolAddIn\AnalysisTool\DlgFiboSet.cpp
; File C:\Program Files (x86)\Microsoft Visual Studio\2019\Community\VC\Tools\MSVC\14.29.30133\atlmfc\include\afxwin2.inl
; File D:\git\src\IBK\IBK_DRFN\ProjSrc\SrcChartEx\ChartAddIn\ChartAnalysisToolAddIn\AnalysisTool\DlgFiboSet.cpp
; File C:\Program Files (x86)\Microsoft Visual Studio\2019\Community\VC\Tools\MSVC\14.29.30133\atlmfc\include\afxwin2.inl
; File D:\git\src\IBK\IBK_DRFN\ProjSrc\SrcChartEx\ChartAddIn\ChartAnalysisToolAddIn\AnalysisTool\DlgFiboSet.cpp
;	COMDAT ?SetLineExtEnvironment@CDlgFiboSet@@AAEXXZ
_TEXT	SEGMENT
$T1 = -8						; size = 4
$T2 = -4						; size = 4
?SetLineExtEnvironment@CDlgFiboSet@@AAEXXZ PROC		; CDlgFiboSet::SetLineExtEnvironment, COMDAT
; _this$ = ecx

; 1077 : {

  00000	55		 push	 ebp
  00001	8b ec		 mov	 ebp, esp
  00003	83 ec 08	 sub	 esp, 8
  00006	56		 push	 esi
  00007	57		 push	 edi

; 1078 : 	UpdateData(TRUE);

  00008	6a 01		 push	 1
  0000a	8b f9		 mov	 edi, ecx
  0000c	e8 00 00 00 00	 call	 ?UpdateData@CWnd@@QAEHH@Z ; CWnd::UpdateData
; File C:\Program Files (x86)\Microsoft Visual Studio\2019\Community\VC\Tools\MSVC\14.29.30133\atlmfc\include\afxwin2.inl

; 628  : 	{ ASSERT(::IsWindow(m_hWnd)); return (int)::SendMessage(m_hWnd, BM_GETCHECK, 0, 0); }

  00011	8b 35 00 00 00
	00		 mov	 esi, DWORD PTR __imp__SendMessageA@16
  00017	6a 00		 push	 0
  00019	6a 00		 push	 0
  0001b	68 f0 00 00 00	 push	 240			; 000000f0H
  00020	ff b7 70 05 00
	00		 push	 DWORD PTR [edi+1392]
  00026	ff d6		 call	 esi
  00028	6a 00		 push	 0
  0002a	6a 00		 push	 0
  0002c	68 f0 00 00 00	 push	 240			; 000000f0H
  00031	ff b7 f0 04 00
	00		 push	 DWORD PTR [edi+1264]
; File D:\git\src\IBK\IBK_DRFN\ProjSrc\SrcChartEx\ChartAddIn\ChartAnalysisToolAddIn\AnalysisTool\DlgFiboSet.cpp

; 1079 : 	m_pLineExtEnvironment->SetLineExt(m_ctrlLeftExt.GetCheck(),m_ctrlRightExt.GetCheck());

  00037	89 45 fc	 mov	 DWORD PTR $T2[ebp], eax
; File C:\Program Files (x86)\Microsoft Visual Studio\2019\Community\VC\Tools\MSVC\14.29.30133\atlmfc\include\afxwin2.inl

; 628  : 	{ ASSERT(::IsWindow(m_hWnd)); return (int)::SendMessage(m_hWnd, BM_GETCHECK, 0, 0); }

  0003a	ff d6		 call	 esi
; File D:\git\src\IBK\IBK_DRFN\ProjSrc\SrcChartEx\ChartAddIn\ChartAnalysisToolAddIn\AnalysisTool\DlgFiboSet.cpp

; 1079 : 	m_pLineExtEnvironment->SetLineExt(m_ctrlLeftExt.GetCheck(),m_ctrlRightExt.GetCheck());

  0003c	8b 8f f4 0c 00
	00		 mov	 ecx, DWORD PTR [edi+3316]
  00042	89 45 f8	 mov	 DWORD PTR $T1[ebp], eax
  00045	8d 45 fc	 lea	 eax, DWORD PTR $T2[ebp]
  00048	50		 push	 eax
  00049	8d 45 f8	 lea	 eax, DWORD PTR $T1[ebp]
  0004c	50		 push	 eax
  0004d	e8 00 00 00 00	 call	 ?SetLineExt@CLineExtEnvironment@@QAEXABH0@Z ; CLineExtEnvironment::SetLineExt
; File C:\Program Files (x86)\Microsoft Visual Studio\2019\Community\VC\Tools\MSVC\14.29.30133\atlmfc\include\afxwin2.inl

; 628  : 	{ ASSERT(::IsWindow(m_hWnd)); return (int)::SendMessage(m_hWnd, BM_GETCHECK, 0, 0); }

  00052	6a 00		 push	 0
  00054	6a 00		 push	 0
  00056	68 f0 00 00 00	 push	 240			; 000000f0H
  0005b	ff b7 f0 04 00
	00		 push	 DWORD PTR [edi+1264]
  00061	ff d6		 call	 esi
  00063	6a 00		 push	 0
  00065	6a 00		 push	 0
  00067	68 f0 00 00 00	 push	 240			; 000000f0H
  0006c	ff b7 70 05 00
	00		 push	 DWORD PTR [edi+1392]
; File D:\git\src\IBK\IBK_DRFN\ProjSrc\SrcChartEx\ChartAddIn\ChartAnalysisToolAddIn\AnalysisTool\DlgFiboSet.cpp

; 1081 : 	m_stAnalysisTool.nLeftExt = m_ctrlLeftExt.GetCheck();

  00072	89 87 3c 0c 00
	00		 mov	 DWORD PTR [edi+3132], eax
; File C:\Program Files (x86)\Microsoft Visual Studio\2019\Community\VC\Tools\MSVC\14.29.30133\atlmfc\include\afxwin2.inl

; 628  : 	{ ASSERT(::IsWindow(m_hWnd)); return (int)::SendMessage(m_hWnd, BM_GETCHECK, 0, 0); }

  00078	ff d6		 call	 esi
; File D:\git\src\IBK\IBK_DRFN\ProjSrc\SrcChartEx\ChartAddIn\ChartAnalysisToolAddIn\AnalysisTool\DlgFiboSet.cpp

; 1082 : 	m_stAnalysisTool.nRightExt = m_ctrlRightExt.GetCheck();	

  0007a	89 87 40 0c 00
	00		 mov	 DWORD PTR [edi+3136], eax
  00080	5f		 pop	 edi
  00081	5e		 pop	 esi

; 1083 : }

  00082	8b e5		 mov	 esp, ebp
  00084	5d		 pop	 ebp
  00085	c3		 ret	 0
?SetLineExtEnvironment@CDlgFiboSet@@AAEXXZ ENDP		; CDlgFiboSet::SetLineExtEnvironment
_TEXT	ENDS
; Function compile flags: /Ogtp
; File D:\git\src\IBK\IBK_DRFN\ProjSrc\SrcChartEx\ChartAddIn\ChartAnalysisToolAddIn\AnalysisTool\DlgFiboSet.cpp
;	COMDAT ?SetTextPosition@CDlgFiboSet@@AAEX_N000@Z
_TEXT	SEGMENT
_bLeft$ = 8						; size = 1
$T1 = 8							; size = 4
_bRight$ = 12						; size = 1
_bTop$ = 16						; size = 1
_bBottom$ = 20						; size = 1
?SetTextPosition@CDlgFiboSet@@AAEX_N000@Z PROC		; CDlgFiboSet::SetTextPosition, COMDAT
; _this$ = ecx

; 1163 : {

  00000	55		 push	 ebp
  00001	8b ec		 mov	 ebp, esp
  00003	56		 push	 esi
  00004	8b f1		 mov	 esi, ecx

; 1164 : 	if(m_pTextHVPosition == NULL)

  00006	8b 8e c0 0c 00
	00		 mov	 ecx, DWORD PTR [esi+3264]
  0000c	85 c9		 test	 ecx, ecx
  0000e	74 56		 je	 SHORT $LN1@SetTextPos

; 1165 : 		return;
; 1166 : 
; 1167 : 	m_pTextHVPosition->SetLeft(bLeft);

  00010	ff 75 08	 push	 DWORD PTR _bLeft$[ebp]
  00013	e8 00 00 00 00	 call	 ?SetLeft@CTextHorzVertPosition@@QAEX_N@Z ; CTextHorzVertPosition::SetLeft

; 1168 : 	m_pTextHVPosition->SetRight(bRight);

  00018	ff 75 0c	 push	 DWORD PTR _bRight$[ebp]
  0001b	8b 8e c0 0c 00
	00		 mov	 ecx, DWORD PTR [esi+3264]
  00021	e8 00 00 00 00	 call	 ?SetRight@CTextHorzVertPosition@@QAEX_N@Z ; CTextHorzVertPosition::SetRight

; 1169 : 	m_pTextHVPosition->SetTop(bTop);

  00026	ff 75 10	 push	 DWORD PTR _bTop$[ebp]
  00029	8b 8e c0 0c 00
	00		 mov	 ecx, DWORD PTR [esi+3264]
  0002f	e8 00 00 00 00	 call	 ?SetTop@CTextHorzVertPosition@@QAEX_N@Z ; CTextHorzVertPosition::SetTop

; 1170 : 	m_pTextHVPosition->SetBottom(bBottom);

  00034	ff 75 14	 push	 DWORD PTR _bBottom$[ebp]
  00037	8b 8e c0 0c 00
	00		 mov	 ecx, DWORD PTR [esi+3264]
  0003d	e8 00 00 00 00	 call	 ?SetBottom@CTextHorzVertPosition@@QAEX_N@Z ; CTextHorzVertPosition::SetBottom

; 1171 : 	m_pTextHVPosition->GetTextEnvironment().SetColor(m_ctlColor.GetColor());

  00042	8d 8e 48 02 00
	00		 lea	 ecx, DWORD PTR [esi+584]
  00048	e8 00 00 00 00	 call	 ?GetColor@CColorButton@@QBEKXZ ; CColorButton::GetColor
  0004d	8b 8e c0 0c 00
	00		 mov	 ecx, DWORD PTR [esi+3264]
  00053	89 45 08	 mov	 DWORD PTR $T1[ebp], eax
  00056	8d 45 08	 lea	 eax, DWORD PTR $T1[ebp]
  00059	50		 push	 eax
  0005a	e8 00 00 00 00	 call	 ?GetTextEnvironment@CTextPosition@@QAEAAVCTextEnvironment@@XZ ; CTextPosition::GetTextEnvironment
  0005f	8b c8		 mov	 ecx, eax
  00061	e8 00 00 00 00	 call	 ?SetColor@CTextEnvironment@@QAEXABK@Z ; CTextEnvironment::SetColor
$LN1@SetTextPos:
  00066	5e		 pop	 esi

; 1172 : }

  00067	5d		 pop	 ebp
  00068	c2 10 00	 ret	 16			; 00000010H
?SetTextPosition@CDlgFiboSet@@AAEX_N000@Z ENDP		; CDlgFiboSet::SetTextPosition
_TEXT	ENDS
; Function compile flags: /Ogtp
; File D:\git\src\IBK\IBK_DRFN\ProjSrc\SrcChartEx\ChartAddIn\ChartAnalysisToolAddIn\AnalysisTool\DlgFiboSet.cpp
;	COMDAT ?SetTextPosition@CDlgFiboSet@@AAEX_N0@Z
_TEXT	SEGMENT
_bLeft$ = 8						; size = 1
_bRight$ = 12						; size = 1
$T1 = 12						; size = 4
$T2 = 12						; size = 4
?SetTextPosition@CDlgFiboSet@@AAEX_N0@Z PROC		; CDlgFiboSet::SetTextPosition, COMDAT
; _this$ = ecx

; 1141 : {

  00000	55		 push	 ebp
  00001	8b ec		 mov	 ebp, esp
  00003	53		 push	 ebx
  00004	56		 push	 esi
  00005	8b f1		 mov	 esi, ecx

; 1142 : 	if(m_nTextPosType == G_TEXT_POS_VERT && m_pTextVPosition != NULL)

  00007	8b 86 8c 0c 00
	00		 mov	 eax, DWORD PTR [esi+3212]
  0000d	83 f8 02	 cmp	 eax, 2
  00010	75 64		 jne	 SHORT $LN2@SetTextPos
  00012	8b 8e bc 0c 00
	00		 mov	 ecx, DWORD PTR [esi+3260]
  00018	85 c9		 test	 ecx, ecx
  0001a	0f 84 b5 00 00
	00		 je	 $LN4@SetTextPos

; 1143 : 	{
; 1144 : 		m_pTextVPosition->SetTop(bLeft);

  00020	ff 75 08	 push	 DWORD PTR _bLeft$[ebp]
  00023	e8 00 00 00 00	 call	 ?SetTop@CTextVertPosition@@QAEX_N@Z ; CTextVertPosition::SetTop

; 1145 : 		m_pTextVPosition->SetBottom(bRight);

  00028	8b 5d 0c	 mov	 ebx, DWORD PTR _bRight$[ebp]
  0002b	8b 8e bc 0c 00
	00		 mov	 ecx, DWORD PTR [esi+3260]
  00031	53		 push	 ebx
  00032	e8 00 00 00 00	 call	 ?SetBottom@CTextVertPosition@@QAEX_N@Z ; CTextVertPosition::SetBottom

; 1146 : 		m_pTextVPosition->GetTextEnvironment().SetColor(m_ctlColor.GetColor());

  00037	8d 8e 48 02 00
	00		 lea	 ecx, DWORD PTR [esi+584]
  0003d	e8 00 00 00 00	 call	 ?GetColor@CColorButton@@QBEKXZ ; CColorButton::GetColor
  00042	8b 8e bc 0c 00
	00		 mov	 ecx, DWORD PTR [esi+3260]
  00048	89 45 0c	 mov	 DWORD PTR $T2[ebp], eax
  0004b	8d 45 0c	 lea	 eax, DWORD PTR $T2[ebp]
  0004e	50		 push	 eax
  0004f	e8 00 00 00 00	 call	 ?GetTextEnvironment@CTextPosition@@QAEAAVCTextEnvironment@@XZ ; CTextPosition::GetTextEnvironment
  00054	8b c8		 mov	 ecx, eax
  00056	e8 00 00 00 00	 call	 ?SetColor@CTextEnvironment@@QAEXABK@Z ; CTextEnvironment::SetColor

; 1147 : 
; 1148 : 		m_stAnalysisTool.nTopText = (int)bLeft;

  0005b	8b 4d 08	 mov	 ecx, DWORD PTR _bLeft$[ebp]
  0005e	0f b6 c1	 movzx	 eax, cl
  00061	89 86 34 0c 00
	00		 mov	 DWORD PTR [esi+3124], eax

; 1149 : 		m_stAnalysisTool.nBottomText = (int)bRight;

  00067	0f b6 c3	 movzx	 eax, bl
  0006a	89 86 38 0c 00
	00		 mov	 DWORD PTR [esi+3128], eax
  00070	5e		 pop	 esi

; 1159 : 	}	
; 1160 : }

  00071	5b		 pop	 ebx
  00072	5d		 pop	 ebp
  00073	c2 08 00	 ret	 8
$LN2@SetTextPos:

; 1150 : 	}
; 1151 : 	else if(m_nTextPosType == G_TEXT_POS_HORZ && m_pTextHPosition != NULL)

  00076	83 f8 01	 cmp	 eax, 1
  00079	75 5a		 jne	 SHORT $LN4@SetTextPos
  0007b	8b 8e b8 0c 00
	00		 mov	 ecx, DWORD PTR [esi+3256]
  00081	85 c9		 test	 ecx, ecx
  00083	74 50		 je	 SHORT $LN4@SetTextPos

; 1152 : 	{
; 1153 : 		m_pTextHPosition->SetLeft(bLeft);

  00085	ff 75 08	 push	 DWORD PTR _bLeft$[ebp]
  00088	e8 00 00 00 00	 call	 ?SetLeft@CTextHorzPosition@@QAEX_N@Z ; CTextHorzPosition::SetLeft

; 1154 : 		m_pTextHPosition->SetRight(bRight);

  0008d	8b 5d 0c	 mov	 ebx, DWORD PTR _bRight$[ebp]
  00090	8b 8e b8 0c 00
	00		 mov	 ecx, DWORD PTR [esi+3256]
  00096	53		 push	 ebx
  00097	e8 00 00 00 00	 call	 ?SetRight@CTextHorzPosition@@QAEX_N@Z ; CTextHorzPosition::SetRight

; 1155 : 		m_pTextHPosition->GetTextEnvironment().SetColor(m_ctlColor.GetColor());

  0009c	8d 8e 48 02 00
	00		 lea	 ecx, DWORD PTR [esi+584]
  000a2	e8 00 00 00 00	 call	 ?GetColor@CColorButton@@QBEKXZ ; CColorButton::GetColor
  000a7	8b 8e b8 0c 00
	00		 mov	 ecx, DWORD PTR [esi+3256]
  000ad	89 45 0c	 mov	 DWORD PTR $T1[ebp], eax
  000b0	8d 45 0c	 lea	 eax, DWORD PTR $T1[ebp]
  000b3	50		 push	 eax
  000b4	e8 00 00 00 00	 call	 ?GetTextEnvironment@CTextPosition@@QAEAAVCTextEnvironment@@XZ ; CTextPosition::GetTextEnvironment
  000b9	8b c8		 mov	 ecx, eax
  000bb	e8 00 00 00 00	 call	 ?SetColor@CTextEnvironment@@QAEXABK@Z ; CTextEnvironment::SetColor

; 1156 : 
; 1157 : 		m_stAnalysisTool.nLeftText = (int)bLeft;

  000c0	8b 4d 08	 mov	 ecx, DWORD PTR _bLeft$[ebp]
  000c3	0f b6 c1	 movzx	 eax, cl
  000c6	89 86 28 0c 00
	00		 mov	 DWORD PTR [esi+3112], eax

; 1158 : 		m_stAnalysisTool.nRightText = (int)bRight;	

  000cc	0f b6 c3	 movzx	 eax, bl
  000cf	89 86 2c 0c 00
	00		 mov	 DWORD PTR [esi+3116], eax
$LN4@SetTextPos:

; 1159 : 	}	
; 1160 : }

  000d5	5e		 pop	 esi
  000d6	5b		 pop	 ebx
  000d7	5d		 pop	 ebp
  000d8	c2 08 00	 ret	 8
?SetTextPosition@CDlgFiboSet@@AAEX_N0@Z ENDP		; CDlgFiboSet::SetTextPosition
_TEXT	ENDS
; Function compile flags: /Ogtp
; File D:\git\src\IBK\IBK_DRFN\ProjSrc\SrcChartEx\ChartAddIn\ChartAnalysisToolAddIn\AnalysisTool\DlgFiboSet.cpp
;	COMDAT ?SetTextPosition@CDlgFiboSet@@AAEX_N@Z
_TEXT	SEGMENT
$T1 = -4						; size = 4
_bShow$ = 8						; size = 1
?SetTextPosition@CDlgFiboSet@@AAEX_N@Z PROC		; CDlgFiboSet::SetTextPosition, COMDAT
; _this$ = ecx

; 1135 : {

  00000	55		 push	 ebp
  00001	8b ec		 mov	 ebp, esp
  00003	51		 push	 ecx
  00004	56		 push	 esi
  00005	8b f1		 mov	 esi, ecx

; 1136 : 	m_pTextPosition->GetTextEnvironment().SetColor(m_ctlColor.GetColor());

  00007	8d 8e 48 02 00
	00		 lea	 ecx, DWORD PTR [esi+584]
  0000d	e8 00 00 00 00	 call	 ?GetColor@CColorButton@@QBEKXZ ; CColorButton::GetColor
  00012	8b 8e b4 0c 00
	00		 mov	 ecx, DWORD PTR [esi+3252]
  00018	89 45 fc	 mov	 DWORD PTR $T1[ebp], eax
  0001b	8d 45 fc	 lea	 eax, DWORD PTR $T1[ebp]
  0001e	50		 push	 eax
  0001f	e8 00 00 00 00	 call	 ?GetTextEnvironment@CTextPosition@@QAEAAVCTextEnvironment@@XZ ; CTextPosition::GetTextEnvironment
  00024	8b c8		 mov	 ecx, eax
  00026	e8 00 00 00 00	 call	 ?SetColor@CTextEnvironment@@QAEXABK@Z ; CTextEnvironment::SetColor

; 1137 : 	m_pTextPosition->SetShow(bShow);

  0002b	ff 75 08	 push	 DWORD PTR _bShow$[ebp]
  0002e	8b 8e b4 0c 00
	00		 mov	 ecx, DWORD PTR [esi+3252]
  00034	e8 00 00 00 00	 call	 ?SetShow@CTextShowPosition@@QAEX_N@Z ; CTextShowPosition::SetShow
  00039	5e		 pop	 esi

; 1138 : }

  0003a	8b e5		 mov	 esp, ebp
  0003c	5d		 pop	 ebp
  0003d	c2 04 00	 ret	 4
?SetTextPosition@CDlgFiboSet@@AAEX_N@Z ENDP		; CDlgFiboSet::SetTextPosition
_TEXT	ENDS
; Function compile flags: /Ogtp
; File D:\git\src\IBK\IBK_DRFN\ProjSrc\SrcChartEx\ChartAddIn\ChartAnalysisToolAddIn\AnalysisTool\DlgFiboSet.cpp
; File C:\Program Files (x86)\Microsoft Visual Studio\2019\Community\VC\Tools\MSVC\14.29.30133\atlmfc\include\afxwin2.inl
; File D:\git\src\IBK\IBK_DRFN\ProjSrc\SrcChartEx\ChartAddIn\ChartAnalysisToolAddIn\AnalysisTool\DlgFiboSet.cpp
; File C:\Program Files (x86)\Microsoft Visual Studio\2019\Community\VC\Tools\MSVC\14.29.30133\atlmfc\include\afxwin2.inl
; File D:\git\src\IBK\IBK_DRFN\ProjSrc\SrcChartEx\ChartAddIn\ChartAnalysisToolAddIn\AnalysisTool\DlgFiboSet.cpp
; File C:\Program Files (x86)\Microsoft Visual Studio\2019\Community\VC\Tools\MSVC\14.29.30133\atlmfc\include\afxwin2.inl
; File D:\git\src\IBK\IBK_DRFN\ProjSrc\SrcChartEx\ChartAddIn\ChartAnalysisToolAddIn\AnalysisTool\DlgFiboSet.cpp
; File C:\Program Files (x86)\Microsoft Visual Studio\2019\Community\VC\Tools\MSVC\14.29.30133\atlmfc\include\afxwin2.inl
; File D:\git\src\IBK\IBK_DRFN\ProjSrc\SrcChartEx\ChartAddIn\ChartAnalysisToolAddIn\AnalysisTool\DlgFiboSet.cpp
; File C:\Program Files (x86)\Microsoft Visual Studio\2019\Community\VC\Tools\MSVC\14.29.30133\atlmfc\include\afxwin2.inl
; File D:\git\src\IBK\IBK_DRFN\ProjSrc\SrcChartEx\ChartAddIn\ChartAnalysisToolAddIn\AnalysisTool\DlgFiboSet.cpp
; File C:\Program Files (x86)\Microsoft Visual Studio\2019\Community\VC\Tools\MSVC\14.29.30133\atlmfc\include\afxwin2.inl
; File D:\git\src\IBK\IBK_DRFN\ProjSrc\SrcChartEx\ChartAddIn\ChartAnalysisToolAddIn\AnalysisTool\DlgFiboSet.cpp
; File C:\Program Files (x86)\Microsoft Visual Studio\2019\Community\VC\Tools\MSVC\14.29.30133\atlmfc\include\afxwin2.inl
; File D:\git\src\IBK\IBK_DRFN\ProjSrc\SrcChartEx\ChartAddIn\ChartAnalysisToolAddIn\AnalysisTool\DlgFiboSet.cpp
; File C:\Program Files (x86)\Microsoft Visual Studio\2019\Community\VC\Tools\MSVC\14.29.30133\atlmfc\include\afxwin2.inl
; File D:\git\src\IBK\IBK_DRFN\ProjSrc\SrcChartEx\ChartAddIn\ChartAnalysisToolAddIn\AnalysisTool\DlgFiboSet.cpp
; File C:\Program Files (x86)\Microsoft Visual Studio\2019\Community\VC\Tools\MSVC\14.29.30133\atlmfc\include\afxwin2.inl
; File D:\git\src\IBK\IBK_DRFN\ProjSrc\SrcChartEx\ChartAddIn\ChartAnalysisToolAddIn\AnalysisTool\DlgFiboSet.cpp
; File C:\Program Files (x86)\Microsoft Visual Studio\2019\Community\VC\Tools\MSVC\14.29.30133\atlmfc\include\afxwin2.inl
; File D:\git\src\IBK\IBK_DRFN\ProjSrc\SrcChartEx\ChartAddIn\ChartAnalysisToolAddIn\AnalysisTool\DlgFiboSet.cpp
; File C:\Program Files (x86)\Microsoft Visual Studio\2019\Community\VC\Tools\MSVC\14.29.30133\atlmfc\include\afxwin2.inl
; File D:\git\src\IBK\IBK_DRFN\ProjSrc\SrcChartEx\ChartAddIn\ChartAnalysisToolAddIn\AnalysisTool\DlgFiboSet.cpp
;	COMDAT ?SetTextPosition@CDlgFiboSet@@AAEXXZ
_TEXT	SEGMENT
_bShow$ = -8						; size = 1
_this$1$ = -4						; size = 4
$T1 = -4						; size = 4
?SetTextPosition@CDlgFiboSet@@AAEXXZ PROC		; CDlgFiboSet::SetTextPosition, COMDAT
; _this$ = ecx

; 1097 : {

  00000	55		 push	 ebp
  00001	8b ec		 mov	 ebp, esp
  00003	83 ec 08	 sub	 esp, 8

; 1098 : 	m_stAnalysisTool.dEndXPos = G_NOTAVAILABLE;

  00006	0f 28 05 00 00
	00 00		 movaps	 xmm0, XMMWORD PTR __xmm@00100000000000000010000000000000
  0000d	53		 push	 ebx
  0000e	8b d9		 mov	 ebx, ecx
  00010	56		 push	 esi
  00011	89 5d fc	 mov	 DWORD PTR _this$1$[ebp], ebx

; 1099 : 	m_stAnalysisTool.dEndYValue = G_NOTAVAILABLE;
; 1100 : 	m_stAnalysisTool.dStartXPos = G_NOTAVAILABLE;
; 1101 : 	m_stAnalysisTool.dStartYValue = G_NOTAVAILABLE;
; 1102 : 	m_stAnalysisTool.dThirdXPos = G_NOTAVAILABLE;
; 1103 : 	m_stAnalysisTool.dThirdYValue = G_NOTAVAILABLE;
; 1104 : 	m_stAnalysisTool.nEquiDiv = -1;
; 1105 : 	m_stAnalysisTool.nPriceRangeDiv = -1;	// (2008/8/15 - Seung-Won, Bae) Add option for using price range.
; 1106 : 	m_stAnalysisTool.nHLPercent = -1;
; 1107 : 	m_stAnalysisTool.nFillRegion = -1;	
; 1108 : 
; 1109 : 	if(m_nTextPosType == G_TEXT_POS_HV)

  00014	8b 83 8c 0c 00
	00		 mov	 eax, DWORD PTR [ebx+3212]
  0001a	f2 0f 11 83 00
	0c 00 00	 movsd	 QWORD PTR [ebx+3072], xmm0
  00022	f2 0f 11 83 18
	0c 00 00	 movsd	 QWORD PTR [ebx+3096], xmm0
  0002a	f2 0f 11 83 f8
	0b 00 00	 movsd	 QWORD PTR [ebx+3064], xmm0
  00032	f2 0f 11 83 20
	0c 00 00	 movsd	 QWORD PTR [ebx+3104], xmm0
  0003a	c7 83 44 0c 00
	00 ff ff ff ff	 mov	 DWORD PTR [ebx+3140], -1
  00044	c7 83 48 0c 00
	00 ff ff ff ff	 mov	 DWORD PTR [ebx+3144], -1
  0004e	c7 83 4c 0c 00
	00 ff ff ff ff	 mov	 DWORD PTR [ebx+3148], -1
  00058	c7 83 50 0c 00
	00 ff ff ff ff	 mov	 DWORD PTR [ebx+3152], -1
  00062	0f 11 83 08 0c
	00 00		 movups	 XMMWORD PTR [ebx+3080], xmm0
  00069	83 f8 03	 cmp	 eax, 3
  0006c	0f 85 e6 00 00
	00		 jne	 $LN2@SetTextPos
; File C:\Program Files (x86)\Microsoft Visual Studio\2019\Community\VC\Tools\MSVC\14.29.30133\atlmfc\include\afxwin2.inl

; 628  : 	{ ASSERT(::IsWindow(m_hWnd)); return (int)::SendMessage(m_hWnd, BM_GETCHECK, 0, 0); }

  00072	57		 push	 edi
  00073	6a 00		 push	 0
  00075	6a 00		 push	 0
  00077	68 f0 00 00 00	 push	 240			; 000000f0H
  0007c	ff b3 70 04 00
	00		 push	 DWORD PTR [ebx+1136]
  00082	8b 1d 00 00 00
	00		 mov	 ebx, DWORD PTR __imp__SendMessageA@16
  00088	ff d3		 call	 ebx
  0008a	6a 00		 push	 0
  0008c	8b f8		 mov	 edi, eax
  0008e	8b 45 fc	 mov	 eax, DWORD PTR _this$1$[ebp]
  00091	6a 00		 push	 0
  00093	68 f0 00 00 00	 push	 240			; 000000f0H
  00098	ff b0 f0 03 00
	00		 push	 DWORD PTR [eax+1008]
  0009e	ff d3		 call	 ebx
  000a0	6a 00		 push	 0
  000a2	8b f0		 mov	 esi, eax
  000a4	8b 45 fc	 mov	 eax, DWORD PTR _this$1$[ebp]
  000a7	6a 00		 push	 0
  000a9	68 f0 00 00 00	 push	 240			; 000000f0H
  000ae	ff b0 70 03 00
	00		 push	 DWORD PTR [eax+880]
  000b4	ff d3		 call	 ebx
; File D:\git\src\IBK\IBK_DRFN\ProjSrc\SrcChartEx\ChartAddIn\ChartAnalysisToolAddIn\AnalysisTool\DlgFiboSet.cpp

; 1111 : 		SetTextPosition( ( m_ctrlLeftText.GetCheck() ? true : false),

  000b6	85 ff		 test	 edi, edi
  000b8	0f 95 c1	 setne	 cl
  000bb	85 f6		 test	 esi, esi
; File C:\Program Files (x86)\Microsoft Visual Studio\2019\Community\VC\Tools\MSVC\14.29.30133\atlmfc\include\afxwin2.inl

; 628  : 	{ ASSERT(::IsWindow(m_hWnd)); return (int)::SendMessage(m_hWnd, BM_GETCHECK, 0, 0); }

  000bd	8b 75 fc	 mov	 esi, DWORD PTR _this$1$[ebp]
; File D:\git\src\IBK\IBK_DRFN\ProjSrc\SrcChartEx\ChartAddIn\ChartAnalysisToolAddIn\AnalysisTool\DlgFiboSet.cpp

; 1111 : 		SetTextPosition( ( m_ctrlLeftText.GetCheck() ? true : false),

  000c0	0f b6 c9	 movzx	 ecx, cl
  000c3	51		 push	 ecx
  000c4	0f 95 c1	 setne	 cl
  000c7	85 c0		 test	 eax, eax
  000c9	0f b6 c9	 movzx	 ecx, cl
  000cc	51		 push	 ecx
  000cd	0f 95 c0	 setne	 al
  000d0	0f b6 c0	 movzx	 eax, al
  000d3	50		 push	 eax
; File C:\Program Files (x86)\Microsoft Visual Studio\2019\Community\VC\Tools\MSVC\14.29.30133\atlmfc\include\afxwin2.inl

; 628  : 	{ ASSERT(::IsWindow(m_hWnd)); return (int)::SendMessage(m_hWnd, BM_GETCHECK, 0, 0); }

  000d4	6a 00		 push	 0
  000d6	6a 00		 push	 0
  000d8	68 f0 00 00 00	 push	 240			; 000000f0H
  000dd	ff b6 f0 02 00
	00		 push	 DWORD PTR [esi+752]
  000e3	ff d3		 call	 ebx
; File D:\git\src\IBK\IBK_DRFN\ProjSrc\SrcChartEx\ChartAddIn\ChartAnalysisToolAddIn\AnalysisTool\DlgFiboSet.cpp

; 1111 : 		SetTextPosition( ( m_ctrlLeftText.GetCheck() ? true : false),

  000e5	85 c0		 test	 eax, eax
  000e7	8b ce		 mov	 ecx, esi
  000e9	0f 95 c0	 setne	 al
  000ec	0f b6 c0	 movzx	 eax, al
  000ef	50		 push	 eax
  000f0	e8 00 00 00 00	 call	 ?SetTextPosition@CDlgFiboSet@@AAEX_N000@Z ; CDlgFiboSet::SetTextPosition
; File C:\Program Files (x86)\Microsoft Visual Studio\2019\Community\VC\Tools\MSVC\14.29.30133\atlmfc\include\afxwin2.inl

; 628  : 	{ ASSERT(::IsWindow(m_hWnd)); return (int)::SendMessage(m_hWnd, BM_GETCHECK, 0, 0); }

  000f5	6a 00		 push	 0
  000f7	6a 00		 push	 0
  000f9	68 f0 00 00 00	 push	 240			; 000000f0H
  000fe	ff b6 f0 03 00
	00		 push	 DWORD PTR [esi+1008]
  00104	ff d3		 call	 ebx
  00106	6a 00		 push	 0
  00108	6a 00		 push	 0
  0010a	68 f0 00 00 00	 push	 240			; 000000f0H
  0010f	ff b6 70 04 00
	00		 push	 DWORD PTR [esi+1136]
; File D:\git\src\IBK\IBK_DRFN\ProjSrc\SrcChartEx\ChartAddIn\ChartAnalysisToolAddIn\AnalysisTool\DlgFiboSet.cpp

; 1116 : 		m_stAnalysisTool.nTopText = (int)m_ctrlTopText.GetCheck();

  00115	89 86 34 0c 00
	00		 mov	 DWORD PTR [esi+3124], eax
; File C:\Program Files (x86)\Microsoft Visual Studio\2019\Community\VC\Tools\MSVC\14.29.30133\atlmfc\include\afxwin2.inl

; 628  : 	{ ASSERT(::IsWindow(m_hWnd)); return (int)::SendMessage(m_hWnd, BM_GETCHECK, 0, 0); }

  0011b	ff d3		 call	 ebx
  0011d	6a 00		 push	 0
  0011f	6a 00		 push	 0
  00121	68 f0 00 00 00	 push	 240			; 000000f0H
  00126	ff b6 f0 02 00
	00		 push	 DWORD PTR [esi+752]
; File D:\git\src\IBK\IBK_DRFN\ProjSrc\SrcChartEx\ChartAddIn\ChartAnalysisToolAddIn\AnalysisTool\DlgFiboSet.cpp

; 1117 : 		m_stAnalysisTool.nBottomText = (int)m_ctrlBottomText.GetCheck();

  0012c	89 86 38 0c 00
	00		 mov	 DWORD PTR [esi+3128], eax
; File C:\Program Files (x86)\Microsoft Visual Studio\2019\Community\VC\Tools\MSVC\14.29.30133\atlmfc\include\afxwin2.inl

; 628  : 	{ ASSERT(::IsWindow(m_hWnd)); return (int)::SendMessage(m_hWnd, BM_GETCHECK, 0, 0); }

  00132	ff d3		 call	 ebx
  00134	6a 00		 push	 0
  00136	6a 00		 push	 0
  00138	68 f0 00 00 00	 push	 240			; 000000f0H
  0013d	ff b6 70 03 00
	00		 push	 DWORD PTR [esi+880]
; File D:\git\src\IBK\IBK_DRFN\ProjSrc\SrcChartEx\ChartAddIn\ChartAnalysisToolAddIn\AnalysisTool\DlgFiboSet.cpp

; 1118 : 		m_stAnalysisTool.nLeftText = (int)m_ctrlLeftText.GetCheck();

  00143	89 86 28 0c 00
	00		 mov	 DWORD PTR [esi+3112], eax
; File C:\Program Files (x86)\Microsoft Visual Studio\2019\Community\VC\Tools\MSVC\14.29.30133\atlmfc\include\afxwin2.inl

; 628  : 	{ ASSERT(::IsWindow(m_hWnd)); return (int)::SendMessage(m_hWnd, BM_GETCHECK, 0, 0); }

  00149	ff d3		 call	 ebx
; File D:\git\src\IBK\IBK_DRFN\ProjSrc\SrcChartEx\ChartAddIn\ChartAnalysisToolAddIn\AnalysisTool\DlgFiboSet.cpp

; 1119 : 		m_stAnalysisTool.nRightText = (int)m_ctrlRightText.GetCheck();	

  0014b	5f		 pop	 edi
  0014c	89 86 2c 0c 00
	00		 mov	 DWORD PTR [esi+3116], eax
  00152	5e		 pop	 esi

; 1130 : 							( m_ctrlRightText.GetCheck() ? true : false));
; 1131 : 	}	
; 1132 : }

  00153	5b		 pop	 ebx
  00154	8b e5		 mov	 esp, ebp
  00156	5d		 pop	 ebp
  00157	c3		 ret	 0
$LN2@SetTextPos:

; 1120 : 	}
; 1121 : 	else if(m_nTextPosType == G_TEXT_POS_ONE)

  00158	8b 35 00 00 00
	00		 mov	 esi, DWORD PTR __imp__SendMessageA@16
  0015e	6a 00		 push	 0
  00160	6a 00		 push	 0
  00162	68 f0 00 00 00	 push	 240			; 000000f0H
  00167	85 c0		 test	 eax, eax
  00169	75 5d		 jne	 SHORT $LN4@SetTextPos
; File C:\Program Files (x86)\Microsoft Visual Studio\2019\Community\VC\Tools\MSVC\14.29.30133\atlmfc\include\afxwin2.inl

; 628  : 	{ ASSERT(::IsWindow(m_hWnd)); return (int)::SendMessage(m_hWnd, BM_GETCHECK, 0, 0); }

  0016b	ff b3 f0 02 00
	00		 push	 DWORD PTR [ebx+752]
  00171	ff d6		 call	 esi
; File D:\git\src\IBK\IBK_DRFN\ProjSrc\SrcChartEx\ChartAddIn\ChartAnalysisToolAddIn\AnalysisTool\DlgFiboSet.cpp

; 1123 : 		SetTextPosition( m_ctrlLeftText.GetCheck() ? true : false);

  00173	85 c0		 test	 eax, eax

; 1136 : 	m_pTextPosition->GetTextEnvironment().SetColor(m_ctlColor.GetColor());

  00175	8d 8b 48 02 00
	00		 lea	 ecx, DWORD PTR [ebx+584]

; 1123 : 		SetTextPosition( m_ctrlLeftText.GetCheck() ? true : false);

  0017b	0f 95 45 f8	 setne	 BYTE PTR _bShow$[ebp]

; 1136 : 	m_pTextPosition->GetTextEnvironment().SetColor(m_ctlColor.GetColor());

  0017f	e8 00 00 00 00	 call	 ?GetColor@CColorButton@@QBEKXZ ; CColorButton::GetColor
  00184	8b 8b b4 0c 00
	00		 mov	 ecx, DWORD PTR [ebx+3252]
  0018a	89 45 fc	 mov	 DWORD PTR $T1[ebp], eax
  0018d	8d 45 fc	 lea	 eax, DWORD PTR $T1[ebp]
  00190	50		 push	 eax
  00191	e8 00 00 00 00	 call	 ?GetTextEnvironment@CTextPosition@@QAEAAVCTextEnvironment@@XZ ; CTextPosition::GetTextEnvironment
  00196	8b c8		 mov	 ecx, eax
  00198	e8 00 00 00 00	 call	 ?SetColor@CTextEnvironment@@QAEXABK@Z ; CTextEnvironment::SetColor

; 1137 : 	m_pTextPosition->SetShow(bShow);

  0019d	ff 75 f8	 push	 DWORD PTR _bShow$[ebp]
  001a0	8b 8b b4 0c 00
	00		 mov	 ecx, DWORD PTR [ebx+3252]
  001a6	e8 00 00 00 00	 call	 ?SetShow@CTextShowPosition@@QAEX_N@Z ; CTextShowPosition::SetShow
; File C:\Program Files (x86)\Microsoft Visual Studio\2019\Community\VC\Tools\MSVC\14.29.30133\atlmfc\include\afxwin2.inl

; 628  : 	{ ASSERT(::IsWindow(m_hWnd)); return (int)::SendMessage(m_hWnd, BM_GETCHECK, 0, 0); }

  001ab	6a 00		 push	 0
  001ad	6a 00		 push	 0
  001af	68 f0 00 00 00	 push	 240			; 000000f0H
  001b4	ff b3 f0 02 00
	00		 push	 DWORD PTR [ebx+752]
  001ba	ff d6		 call	 esi
  001bc	5e		 pop	 esi
; File D:\git\src\IBK\IBK_DRFN\ProjSrc\SrcChartEx\ChartAddIn\ChartAnalysisToolAddIn\AnalysisTool\DlgFiboSet.cpp

; 1125 : 		m_stAnalysisTool.nLeftText = (int)m_ctrlLeftText.GetCheck();

  001bd	89 83 28 0c 00
	00		 mov	 DWORD PTR [ebx+3112], eax

; 1130 : 							( m_ctrlRightText.GetCheck() ? true : false));
; 1131 : 	}	
; 1132 : }

  001c3	5b		 pop	 ebx
  001c4	8b e5		 mov	 esp, ebp
  001c6	5d		 pop	 ebp
  001c7	c3		 ret	 0
$LN4@SetTextPos:
; File C:\Program Files (x86)\Microsoft Visual Studio\2019\Community\VC\Tools\MSVC\14.29.30133\atlmfc\include\afxwin2.inl

; 628  : 	{ ASSERT(::IsWindow(m_hWnd)); return (int)::SendMessage(m_hWnd, BM_GETCHECK, 0, 0); }

  001c8	ff b3 70 03 00
	00		 push	 DWORD PTR [ebx+880]
  001ce	ff d6		 call	 esi
; File D:\git\src\IBK\IBK_DRFN\ProjSrc\SrcChartEx\ChartAddIn\ChartAnalysisToolAddIn\AnalysisTool\DlgFiboSet.cpp

; 1129 : 		SetTextPosition( ( m_ctrlLeftText.GetCheck() ? true : false),

  001d0	85 c0		 test	 eax, eax
  001d2	0f 95 c0	 setne	 al
  001d5	0f b6 c0	 movzx	 eax, al
  001d8	50		 push	 eax
; File C:\Program Files (x86)\Microsoft Visual Studio\2019\Community\VC\Tools\MSVC\14.29.30133\atlmfc\include\afxwin2.inl

; 628  : 	{ ASSERT(::IsWindow(m_hWnd)); return (int)::SendMessage(m_hWnd, BM_GETCHECK, 0, 0); }

  001d9	6a 00		 push	 0
  001db	6a 00		 push	 0
  001dd	68 f0 00 00 00	 push	 240			; 000000f0H
  001e2	ff b3 f0 02 00
	00		 push	 DWORD PTR [ebx+752]
  001e8	ff d6		 call	 esi
; File D:\git\src\IBK\IBK_DRFN\ProjSrc\SrcChartEx\ChartAddIn\ChartAnalysisToolAddIn\AnalysisTool\DlgFiboSet.cpp

; 1129 : 		SetTextPosition( ( m_ctrlLeftText.GetCheck() ? true : false),

  001ea	85 c0		 test	 eax, eax
  001ec	8b cb		 mov	 ecx, ebx
  001ee	0f 95 c0	 setne	 al
  001f1	0f b6 c0	 movzx	 eax, al
  001f4	50		 push	 eax
  001f5	e8 00 00 00 00	 call	 ?SetTextPosition@CDlgFiboSet@@AAEX_N0@Z ; CDlgFiboSet::SetTextPosition
  001fa	5e		 pop	 esi

; 1130 : 							( m_ctrlRightText.GetCheck() ? true : false));
; 1131 : 	}	
; 1132 : }

  001fb	5b		 pop	 ebx
  001fc	8b e5		 mov	 esp, ebp
  001fe	5d		 pop	 ebp
  001ff	c3		 ret	 0
?SetTextPosition@CDlgFiboSet@@AAEXXZ ENDP		; CDlgFiboSet::SetTextPosition
_TEXT	ENDS
; Function compile flags: /Ogtp
; File D:\git\src\IBK\IBK_DRFN\ProjSrc\SrcChartEx\ChartAddIn\ChartAnalysisToolAddIn\AnalysisTool\DlgFiboSet.cpp
; File C:\Program Files (x86)\Microsoft Visual Studio\2019\Community\VC\Tools\MSVC\14.29.30133\atlmfc\include\afxwin2.inl
; File D:\git\src\IBK\IBK_DRFN\ProjSrc\SrcChartEx\ChartAddIn\ChartAnalysisToolAddIn\AnalysisTool\DlgFiboSet.cpp
;	COMDAT ?SetColor@CDlgFiboSet@@AAEXABK@Z
_TEXT	SEGMENT
_color$ = 8						; size = 4
?SetColor@CDlgFiboSet@@AAEXABK@Z PROC			; CDlgFiboSet::SetColor, COMDAT
; _this$ = ecx

; 1091 : {

  00000	55		 push	 ebp
  00001	8b ec		 mov	 ebp, esp
  00003	56		 push	 esi

; 1092 : 	m_ctlColor.SetColor(color);

  00004	ff 75 08	 push	 DWORD PTR _color$[ebp]
  00007	8b f1		 mov	 esi, ecx
  00009	8d 8e 48 02 00
	00		 lea	 ecx, DWORD PTR [esi+584]
  0000f	e8 00 00 00 00	 call	 ?SetColor@CColorButton@@QAEXABK@Z ; CColorButton::SetColor
; File C:\Program Files (x86)\Microsoft Visual Studio\2019\Community\VC\Tools\MSVC\14.29.30133\atlmfc\include\afxwin2.inl

; 114  : 	{ ASSERT(::IsWindow(m_hWnd)); ::InvalidateRect(m_hWnd, NULL, bErase); }

  00014	6a 01		 push	 1
  00016	6a 00		 push	 0
  00018	ff b6 68 02 00
	00		 push	 DWORD PTR [esi+616]
  0001e	ff 15 00 00 00
	00		 call	 DWORD PTR __imp__InvalidateRect@12
  00024	5e		 pop	 esi
; File D:\git\src\IBK\IBK_DRFN\ProjSrc\SrcChartEx\ChartAddIn\ChartAnalysisToolAddIn\AnalysisTool\DlgFiboSet.cpp

; 1094 : }

  00025	5d		 pop	 ebp
  00026	c2 04 00	 ret	 4
?SetColor@CDlgFiboSet@@AAEXABK@Z ENDP			; CDlgFiboSet::SetColor
_TEXT	ENDS
; Function compile flags: /Ogtp
; File D:\git\src\IBK\IBK_DRFN\ProjSrc\SrcChartEx\ChartAddIn\ChartAnalysisToolAddIn\AnalysisTool\DlgFiboSet.cpp
;	COMDAT ?SetPenEnvironment@CDlgFiboSet@@AAEXXZ
_TEXT	SEGMENT
$T1 = -4						; size = 4
?SetPenEnvironment@CDlgFiboSet@@AAEXXZ PROC		; CDlgFiboSet::SetPenEnvironment, COMDAT
; _this$ = ecx

; 1065 : {

  00000	55		 push	 ebp
  00001	8b ec		 mov	 ebp, esp
  00003	51		 push	 ecx
  00004	56		 push	 esi
  00005	57		 push	 edi

; 1066 : 	UpdateData(TRUE);

  00006	6a 01		 push	 1
  00008	8b f9		 mov	 edi, ecx
  0000a	e8 00 00 00 00	 call	 ?UpdateData@CWnd@@QAEHH@Z ; CWnd::UpdateData

; 1067 : 	m_pPenEnvironment->SetColor(m_ctlColor.GetColor());

  0000f	8d 8f 48 02 00
	00		 lea	 ecx, DWORD PTR [edi+584]
  00015	e8 00 00 00 00	 call	 ?GetColor@CColorButton@@QBEKXZ ; CColorButton::GetColor
  0001a	8b 8f a4 0c 00
	00		 mov	 ecx, DWORD PTR [edi+3236]
  00020	89 45 fc	 mov	 DWORD PTR $T1[ebp], eax
  00023	8d 45 fc	 lea	 eax, DWORD PTR $T1[ebp]
  00026	50		 push	 eax
  00027	e8 00 00 00 00	 call	 ?SetColor@CPenEnvironment@@QAEXABK@Z ; CPenEnvironment::SetColor

; 1068 : 	m_pPenEnvironment->SetWidth(m_nWidth+1);

  0002c	8b 87 d0 0b 00
	00		 mov	 eax, DWORD PTR [edi+3024]
  00032	8b 8f a4 0c 00
	00		 mov	 ecx, DWORD PTR [edi+3236]
  00038	40		 inc	 eax
  00039	50		 push	 eax
  0003a	e8 00 00 00 00	 call	 ?SetWidth@CPenEnvironment@@QAEXH@Z ; CPenEnvironment::SetWidth

; 1069 : 	m_pPenEnvironment->SetStyle((CToolEnumData::PenStyle) m_nStyle);

  0003f	ff b7 d4 0b 00
	00		 push	 DWORD PTR [edi+3028]
  00045	8b 8f a4 0c 00
	00		 mov	 ecx, DWORD PTR [edi+3236]
  0004b	e8 00 00 00 00	 call	 ?SetStyle@CPenEnvironment@@QAEXW4PenStyle@CToolEnumData@@@Z ; CPenEnvironment::SetStyle

; 1070 : 	
; 1071 : 	m_stAnalysisTool.crLineColor = m_ctlColor.GetColor();

  00050	8d 8f 48 02 00
	00		 lea	 ecx, DWORD PTR [edi+584]
  00056	e8 00 00 00 00	 call	 ?GetColor@CColorButton@@QBEKXZ ; CColorButton::GetColor
  0005b	89 87 5c 0c 00
	00		 mov	 DWORD PTR [edi+3164], eax

; 1072 : 	m_stAnalysisTool.nLineStyle = m_nStyle;

  00061	8b 87 d4 0b 00
	00		 mov	 eax, DWORD PTR [edi+3028]
  00067	89 87 54 0c 00
	00		 mov	 DWORD PTR [edi+3156], eax

; 1073 : 	m_stAnalysisTool.nLineWeight = m_nWidth+1;	

  0006d	8b 87 d0 0b 00
	00		 mov	 eax, DWORD PTR [edi+3024]
  00073	40		 inc	 eax
  00074	89 87 58 0c 00
	00		 mov	 DWORD PTR [edi+3160], eax
  0007a	5f		 pop	 edi
  0007b	5e		 pop	 esi

; 1074 : }

  0007c	8b e5		 mov	 esp, ebp
  0007e	5d		 pop	 ebp
  0007f	c3		 ret	 0
?SetPenEnvironment@CDlgFiboSet@@AAEXXZ ENDP		; CDlgFiboSet::SetPenEnvironment
_TEXT	ENDS
; Function compile flags: /Ogtp
; File D:\git\src\IBK\IBK_DRFN\ProjSrc\SrcChartEx\ChartAddIn\ChartAnalysisToolAddIn\AnalysisTool\DlgFiboSet.cpp
; File C:\Program Files (x86)\Microsoft Visual Studio\2019\Community\VC\Tools\MSVC\14.29.30133\atlmfc\include\afxwin1.inl
; File D:\git\src\IBK\IBK_DRFN\ProjSrc\SrcChartEx\ChartAddIn\ChartAnalysisToolAddIn\Include_Chart\Dll_Load\IMetaTable.h
; File C:\Program Files (x86)\Microsoft Visual Studio\2019\Community\VC\Tools\MSVC\14.29.30133\atlmfc\include\afxwin1.inl
; File D:\git\src\IBK\IBK_DRFN\ProjSrc\SrcChartEx\ChartAddIn\ChartAnalysisToolAddIn\AnalysisTool\DlgFiboSet.cpp
; File D:\git\src\IBK\IBK_DRFN\ProjSrc\SrcChartEx\ChartAddIn\ChartAnalysisToolAddIn\Include_Chart\Dll_Load\IMetaTable.h
; File C:\Program Files (x86)\Microsoft Visual Studio\2019\Community\VC\Tools\MSVC\14.29.30133\atlmfc\include\afxwin1.inl
; File D:\git\src\IBK\IBK_DRFN\ProjSrc\SrcChartEx\ChartAddIn\ChartAnalysisToolAddIn\AnalysisTool\DlgFiboSet.cpp
;	COMDAT ?InitializeData_Style@CDlgFiboSet@@AAEXXZ
_TEXT	SEGMENT
___mlrs__$ = -16					; size = 4
__$EHRec$ = -12						; size = 12
?InitializeData_Style@CDlgFiboSet@@AAEXXZ PROC		; CDlgFiboSet::InitializeData_Style, COMDAT
; _this$ = ecx

; 1057 : {

  00000	55		 push	 ebp
  00001	8b ec		 mov	 ebp, esp
  00003	6a ff		 push	 -1
  00005	68 00 00 00 00	 push	 __ehhandler$?InitializeData_Style@CDlgFiboSet@@AAEXXZ
  0000a	64 a1 00 00 00
	00		 mov	 eax, DWORD PTR fs:0
  00010	50		 push	 eax
  00011	51		 push	 ecx
  00012	53		 push	 ebx
  00013	56		 push	 esi
  00014	57		 push	 edi
  00015	a1 00 00 00 00	 mov	 eax, DWORD PTR ___security_cookie
  0001a	33 c5		 xor	 eax, ebp
  0001c	50		 push	 eax
  0001d	8d 45 f4	 lea	 eax, DWORD PTR __$EHRec$[ebp]
  00020	64 a3 00 00 00
	00		 mov	 DWORD PTR fs:0, eax
  00026	8b d9		 mov	 ebx, ecx

; 1058 : 	ML_SET_DEFAULT_RES();

  00028	e8 00 00 00 00	 call	 ?AfxGetStaticModuleState@@YGPAVAFX_MODULE_STATE@@XZ ; AfxGetStaticModuleState
  0002d	8b 78 08	 mov	 edi, DWORD PTR [eax+8]
; File C:\Program Files (x86)\Microsoft Visual Studio\2019\Community\VC\Tools\MSVC\14.29.30133\atlmfc\include\afxwin1.inl

; 25   : 		return afxCurrentResourceHandle; }

  00030	e8 00 00 00 00	 call	 ?AfxGetModuleState@@YGPAVAFX_MODULE_STATE@@XZ ; AfxGetModuleState
; File D:\git\src\IBK\IBK_DRFN\ProjSrc\SrcChartEx\ChartAddIn\ChartAnalysisToolAddIn\Include_Chart\Dll_Load\IMetaTable.h

; 1034 : 		m_hInstance = AfxGetResourceHandle();

  00035	8b 70 0c	 mov	 esi, DWORD PTR [eax+12]
  00038	89 75 f0	 mov	 DWORD PTR ___mlrs__$[ebp], esi
; File C:\Program Files (x86)\Microsoft Visual Studio\2019\Community\VC\Tools\MSVC\14.29.30133\atlmfc\include\afxwin1.inl

; 27   : 	{ ASSERT(hInstResource != NULL); afxCurrentResourceHandle = hInstResource; }

  0003b	e8 00 00 00 00	 call	 ?AfxGetModuleState@@YGPAVAFX_MODULE_STATE@@XZ ; AfxGetModuleState
  00040	89 78 0c	 mov	 DWORD PTR [eax+12], edi
; File D:\git\src\IBK\IBK_DRFN\ProjSrc\SrcChartEx\ChartAddIn\ChartAnalysisToolAddIn\AnalysisTool\DlgFiboSet.cpp

; 1060 : 	m_ctlStyle.LoadBitmap(IDB_LINESTYLE, 5);

  00043	6a 05		 push	 5
  00045	68 41 1f 00 00	 push	 8001			; 00001f41H
  0004a	8d 8b 28 01 00
	00		 lea	 ecx, DWORD PTR [ebx+296]
  00050	c7 45 fc 00 00
	00 00		 mov	 DWORD PTR __$EHRec$[ebp+8], 0
  00057	e8 00 00 00 00	 call	 ?LoadBitmapA@CBitmapComboBox@@QAEXHI@Z ; CBitmapComboBox::LoadBitmapA

; 1061 : 	m_nStyle = (int) m_basePenEnvironment.GetStyle();

  0005c	8d 8b a8 0c 00
	00		 lea	 ecx, DWORD PTR [ebx+3240]
  00062	e8 00 00 00 00	 call	 ?GetStyle@CPenEnvironment@@QBE?AW4PenStyle@CToolEnumData@@XZ ; CPenEnvironment::GetStyle
  00067	89 83 d4 0b 00
	00		 mov	 DWORD PTR [ebx+3028], eax
; File D:\git\src\IBK\IBK_DRFN\ProjSrc\SrcChartEx\ChartAddIn\ChartAnalysisToolAddIn\Include_Chart\Dll_Load\IMetaTable.h

; 1038 : 	{

  0006d	c7 45 fc 01 00
	00 00		 mov	 DWORD PTR __$EHRec$[ebp+8], 1
; File C:\Program Files (x86)\Microsoft Visual Studio\2019\Community\VC\Tools\MSVC\14.29.30133\atlmfc\include\afxwin1.inl

; 27   : 	{ ASSERT(hInstResource != NULL); afxCurrentResourceHandle = hInstResource; }

  00074	e8 00 00 00 00	 call	 ?AfxGetModuleState@@YGPAVAFX_MODULE_STATE@@XZ ; AfxGetModuleState
  00079	89 70 0c	 mov	 DWORD PTR [eax+12], esi
; File D:\git\src\IBK\IBK_DRFN\ProjSrc\SrcChartEx\ChartAddIn\ChartAnalysisToolAddIn\AnalysisTool\DlgFiboSet.cpp

; 1062 : }

  0007c	8b 4d f4	 mov	 ecx, DWORD PTR __$EHRec$[ebp]
  0007f	64 89 0d 00 00
	00 00		 mov	 DWORD PTR fs:0, ecx
  00086	59		 pop	 ecx
  00087	5f		 pop	 edi
  00088	5e		 pop	 esi
  00089	5b		 pop	 ebx
  0008a	8b e5		 mov	 esp, ebp
  0008c	5d		 pop	 ebp
  0008d	c3		 ret	 0
_TEXT	ENDS
;	COMDAT text$x
text$x	SEGMENT
__unwindfunclet$?InitializeData_Style@CDlgFiboSet@@AAEXXZ$0:
  00000	8d 4d f0	 lea	 ecx, DWORD PTR ___mlrs__$[ebp]
  00003	e9 00 00 00 00	 jmp	 ??1CMultiLanguageResourceSetter@@QAE@XZ ; CMultiLanguageResourceSetter::~CMultiLanguageResourceSetter
  00008	cc		 int	 3
  00009	cc		 int	 3
  0000a	cc		 int	 3
  0000b	cc		 int	 3
  0000c	cc		 int	 3
__ehhandler$?InitializeData_Style@CDlgFiboSet@@AAEXXZ:
  0000d	90		 npad	 1
  0000e	90		 npad	 1
  0000f	8b 54 24 08	 mov	 edx, DWORD PTR [esp+8]
  00013	8d 42 0c	 lea	 eax, DWORD PTR [edx+12]
  00016	8b 4a ec	 mov	 ecx, DWORD PTR [edx-20]
  00019	33 c8		 xor	 ecx, eax
  0001b	e8 00 00 00 00	 call	 @__security_check_cookie@4
  00020	b8 00 00 00 00	 mov	 eax, OFFSET __ehfuncinfo$?InitializeData_Style@CDlgFiboSet@@AAEXXZ
  00025	e9 00 00 00 00	 jmp	 ___CxxFrameHandler3
text$x	ENDS
?InitializeData_Style@CDlgFiboSet@@AAEXXZ ENDP		; CDlgFiboSet::InitializeData_Style
; Function compile flags: /Ogtp
; File D:\git\src\IBK\IBK_DRFN\ProjSrc\SrcChartEx\ChartAddIn\ChartAnalysisToolAddIn\AnalysisTool\DlgFiboSet.cpp
; File C:\Program Files (x86)\Microsoft Visual Studio\2019\Community\VC\Tools\MSVC\14.29.30133\atlmfc\include\afxwin1.inl
; File D:\git\src\IBK\IBK_DRFN\ProjSrc\SrcChartEx\ChartAddIn\ChartAnalysisToolAddIn\Include_Chart\Dll_Load\IMetaTable.h
; File C:\Program Files (x86)\Microsoft Visual Studio\2019\Community\VC\Tools\MSVC\14.29.30133\atlmfc\include\afxwin1.inl
; File D:\git\src\IBK\IBK_DRFN\ProjSrc\SrcChartEx\ChartAddIn\ChartAnalysisToolAddIn\AnalysisTool\DlgFiboSet.cpp
; File D:\git\src\IBK\IBK_DRFN\ProjSrc\SrcChartEx\ChartAddIn\ChartAnalysisToolAddIn\Include_Chart\Dll_Load\IMetaTable.h
; File C:\Program Files (x86)\Microsoft Visual Studio\2019\Community\VC\Tools\MSVC\14.29.30133\atlmfc\include\afxwin1.inl
; File D:\git\src\IBK\IBK_DRFN\ProjSrc\SrcChartEx\ChartAddIn\ChartAnalysisToolAddIn\AnalysisTool\DlgFiboSet.cpp
;	COMDAT ?InitializeData_Width@CDlgFiboSet@@AAEXXZ
_TEXT	SEGMENT
___mlrs__$ = -16					; size = 4
__$EHRec$ = -12						; size = 12
?InitializeData_Width@CDlgFiboSet@@AAEXXZ PROC		; CDlgFiboSet::InitializeData_Width, COMDAT
; _this$ = ecx

; 1044 : {

  00000	55		 push	 ebp
  00001	8b ec		 mov	 ebp, esp
  00003	6a ff		 push	 -1
  00005	68 00 00 00 00	 push	 __ehhandler$?InitializeData_Width@CDlgFiboSet@@AAEXXZ
  0000a	64 a1 00 00 00
	00		 mov	 eax, DWORD PTR fs:0
  00010	50		 push	 eax
  00011	51		 push	 ecx
  00012	53		 push	 ebx
  00013	56		 push	 esi
  00014	57		 push	 edi
  00015	a1 00 00 00 00	 mov	 eax, DWORD PTR ___security_cookie
  0001a	33 c5		 xor	 eax, ebp
  0001c	50		 push	 eax
  0001d	8d 45 f4	 lea	 eax, DWORD PTR __$EHRec$[ebp]
  00020	64 a3 00 00 00
	00		 mov	 DWORD PTR fs:0, eax
  00026	8b d9		 mov	 ebx, ecx

; 1045 : 	ML_SET_DEFAULT_RES();

  00028	e8 00 00 00 00	 call	 ?AfxGetStaticModuleState@@YGPAVAFX_MODULE_STATE@@XZ ; AfxGetStaticModuleState
  0002d	8b 78 08	 mov	 edi, DWORD PTR [eax+8]
; File C:\Program Files (x86)\Microsoft Visual Studio\2019\Community\VC\Tools\MSVC\14.29.30133\atlmfc\include\afxwin1.inl

; 25   : 		return afxCurrentResourceHandle; }

  00030	e8 00 00 00 00	 call	 ?AfxGetModuleState@@YGPAVAFX_MODULE_STATE@@XZ ; AfxGetModuleState
; File D:\git\src\IBK\IBK_DRFN\ProjSrc\SrcChartEx\ChartAddIn\ChartAnalysisToolAddIn\Include_Chart\Dll_Load\IMetaTable.h

; 1034 : 		m_hInstance = AfxGetResourceHandle();

  00035	8b 70 0c	 mov	 esi, DWORD PTR [eax+12]
  00038	89 75 f0	 mov	 DWORD PTR ___mlrs__$[ebp], esi
; File C:\Program Files (x86)\Microsoft Visual Studio\2019\Community\VC\Tools\MSVC\14.29.30133\atlmfc\include\afxwin1.inl

; 27   : 	{ ASSERT(hInstResource != NULL); afxCurrentResourceHandle = hInstResource; }

  0003b	e8 00 00 00 00	 call	 ?AfxGetModuleState@@YGPAVAFX_MODULE_STATE@@XZ ; AfxGetModuleState
  00040	89 78 0c	 mov	 DWORD PTR [eax+12], edi
; File D:\git\src\IBK\IBK_DRFN\ProjSrc\SrcChartEx\ChartAddIn\ChartAnalysisToolAddIn\AnalysisTool\DlgFiboSet.cpp

; 1047 : 	m_ctlWidth.LoadBitmap(IDB_LINEWIDTH, 5);

  00043	6a 05		 push	 5
  00045	68 3c 23 00 00	 push	 9020			; 0000233cH
  0004a	8d 8b b8 01 00
	00		 lea	 ecx, DWORD PTR [ebx+440]
  00050	c7 45 fc 00 00
	00 00		 mov	 DWORD PTR __$EHRec$[ebp+8], 0
  00057	e8 00 00 00 00	 call	 ?LoadBitmapA@CBitmapComboBox@@QAEXHI@Z ; CBitmapComboBox::LoadBitmapA

; 1048 : 	if(m_basePenEnvironment.GetWidth() <= 0)

  0005c	8d 8b a8 0c 00
	00		 lea	 ecx, DWORD PTR [ebx+3240]
  00062	e8 00 00 00 00	 call	 ?GetWidth@CPenEnvironment@@QBEHXZ ; CPenEnvironment::GetWidth
  00067	85 c0		 test	 eax, eax
  00069	7f 04		 jg	 SHORT $LN2@Initialize

; 1049 : 		m_nWidth = 0;

  0006b	33 c0		 xor	 eax, eax
  0006d	eb 23		 jmp	 SHORT $LN5@Initialize
$LN2@Initialize:

; 1050 : 	else if(m_basePenEnvironment.GetWidth() >= 6)

  0006f	8d 8b a8 0c 00
	00		 lea	 ecx, DWORD PTR [ebx+3240]
  00075	e8 00 00 00 00	 call	 ?GetWidth@CPenEnvironment@@QBEHXZ ; CPenEnvironment::GetWidth
  0007a	83 f8 06	 cmp	 eax, 6
  0007d	7c 07		 jl	 SHORT $LN4@Initialize

; 1051 : 		m_nWidth = 4;

  0007f	b8 04 00 00 00	 mov	 eax, 4
  00084	eb 0c		 jmp	 SHORT $LN5@Initialize
$LN4@Initialize:

; 1052 : 	else
; 1053 : 		m_nWidth = m_basePenEnvironment.GetWidth() -1;

  00086	8d 8b a8 0c 00
	00		 lea	 ecx, DWORD PTR [ebx+3240]
  0008c	e8 00 00 00 00	 call	 ?GetWidth@CPenEnvironment@@QBEHXZ ; CPenEnvironment::GetWidth
  00091	48		 dec	 eax
$LN5@Initialize:
; File D:\git\src\IBK\IBK_DRFN\ProjSrc\SrcChartEx\ChartAddIn\ChartAnalysisToolAddIn\Include_Chart\Dll_Load\IMetaTable.h

; 1038 : 	{

  00092	c7 45 fc 01 00
	00 00		 mov	 DWORD PTR __$EHRec$[ebp+8], 1
  00099	89 83 d0 0b 00
	00		 mov	 DWORD PTR [ebx+3024], eax
; File C:\Program Files (x86)\Microsoft Visual Studio\2019\Community\VC\Tools\MSVC\14.29.30133\atlmfc\include\afxwin1.inl

; 27   : 	{ ASSERT(hInstResource != NULL); afxCurrentResourceHandle = hInstResource; }

  0009f	e8 00 00 00 00	 call	 ?AfxGetModuleState@@YGPAVAFX_MODULE_STATE@@XZ ; AfxGetModuleState
  000a4	89 70 0c	 mov	 DWORD PTR [eax+12], esi
; File D:\git\src\IBK\IBK_DRFN\ProjSrc\SrcChartEx\ChartAddIn\ChartAnalysisToolAddIn\AnalysisTool\DlgFiboSet.cpp

; 1054 : }

  000a7	8b 4d f4	 mov	 ecx, DWORD PTR __$EHRec$[ebp]
  000aa	64 89 0d 00 00
	00 00		 mov	 DWORD PTR fs:0, ecx
  000b1	59		 pop	 ecx
  000b2	5f		 pop	 edi
  000b3	5e		 pop	 esi
  000b4	5b		 pop	 ebx
  000b5	8b e5		 mov	 esp, ebp
  000b7	5d		 pop	 ebp
  000b8	c3		 ret	 0
_TEXT	ENDS
;	COMDAT text$x
text$x	SEGMENT
__unwindfunclet$?InitializeData_Width@CDlgFiboSet@@AAEXXZ$0:
  00000	8d 4d f0	 lea	 ecx, DWORD PTR ___mlrs__$[ebp]
  00003	e9 00 00 00 00	 jmp	 ??1CMultiLanguageResourceSetter@@QAE@XZ ; CMultiLanguageResourceSetter::~CMultiLanguageResourceSetter
  00008	cc		 int	 3
  00009	cc		 int	 3
  0000a	cc		 int	 3
  0000b	cc		 int	 3
  0000c	cc		 int	 3
__ehhandler$?InitializeData_Width@CDlgFiboSet@@AAEXXZ:
  0000d	90		 npad	 1
  0000e	90		 npad	 1
  0000f	8b 54 24 08	 mov	 edx, DWORD PTR [esp+8]
  00013	8d 42 0c	 lea	 eax, DWORD PTR [edx+12]
  00016	8b 4a ec	 mov	 ecx, DWORD PTR [edx-20]
  00019	33 c8		 xor	 ecx, eax
  0001b	e8 00 00 00 00	 call	 @__security_check_cookie@4
  00020	b8 00 00 00 00	 mov	 eax, OFFSET __ehfuncinfo$?InitializeData_Width@CDlgFiboSet@@AAEXXZ
  00025	e9 00 00 00 00	 jmp	 ___CxxFrameHandler3
text$x	ENDS
?InitializeData_Width@CDlgFiboSet@@AAEXXZ ENDP		; CDlgFiboSet::InitializeData_Width
; Function compile flags: /Ogtp
; File D:\git\src\IBK\IBK_DRFN\ProjSrc\SrcChartEx\ChartAddIn\ChartAnalysisToolAddIn\AnalysisTool\DlgFiboSet.cpp
;	COMDAT ?GetCurrentPenEnvironment@CDlgFiboSet@@IBEPAVCPenEnvironment@@XZ
_TEXT	SEGMENT
?GetCurrentPenEnvironment@CDlgFiboSet@@IBEPAVCPenEnvironment@@XZ PROC ; CDlgFiboSet::GetCurrentPenEnvironment, COMDAT
; _this$ = ecx

; 1214 : 	return m_pPenEnvironment;

  00000	8b 81 a4 0c 00
	00		 mov	 eax, DWORD PTR [ecx+3236]

; 1215 : }

  00006	c3		 ret	 0
?GetCurrentPenEnvironment@CDlgFiboSet@@IBEPAVCPenEnvironment@@XZ ENDP ; CDlgFiboSet::GetCurrentPenEnvironment
_TEXT	ENDS
; Function compile flags: /Ogtp
; File D:\git\src\IBK\IBK_DRFN\ProjSrc\SrcChartEx\ChartAddIn\ChartAnalysisToolAddIn\AnalysisTool\DlgFiboSet.cpp
; File C:\Program Files (x86)\Microsoft Visual Studio\2019\Community\VC\Tools\MSVC\14.29.30133\atlmfc\include\atlsimpstr.h
; File D:\git\src\IBK\IBK_DRFN\ProjSrc\SrcChartEx\ChartAddIn\ChartAnalysisToolAddIn\AnalysisTool\DlgFiboSet.cpp
; File C:\Program Files (x86)\Microsoft Visual Studio\2019\Community\VC\Tools\MSVC\14.29.30133\atlmfc\include\atlsimpstr.h
; File D:\git\src\IBK\IBK_DRFN\ProjSrc\SrcChartEx\ChartAddIn\ChartAnalysisToolAddIn\AnalysisTool\DlgFiboSet.cpp
; File C:\Program Files (x86)\Microsoft Visual Studio\2019\Community\VC\Tools\MSVC\14.29.30133\atlmfc\include\cstringt.h
; File D:\git\src\IBK\IBK_DRFN\ProjSrc\SrcChartEx\ChartAddIn\ChartAnalysisToolAddIn\AnalysisTool\DlgFiboSet.cpp
; File C:\Program Files (x86)\Microsoft Visual Studio\2019\Community\VC\Tools\MSVC\14.29.30133\atlmfc\include\cstringt.h
; File C:\Program Files (x86)\Microsoft Visual Studio\2019\Community\VC\Tools\MSVC\14.29.30133\atlmfc\include\atlsimpstr.h
; File C:\Program Files (x86)\Microsoft Visual Studio\2019\Community\VC\Tools\MSVC\14.29.30133\atlmfc\include\cstringt.h
; File D:\git\src\IBK\IBK_DRFN\ProjSrc\SrcChartEx\ChartAddIn\ChartAnalysisToolAddIn\AnalysisTool\DlgFiboSet.cpp
; File C:\Program Files (x86)\Microsoft Visual Studio\2019\Community\VC\Tools\MSVC\14.29.30133\atlmfc\include\atltime.h
; File D:\git\src\IBK\IBK_DRFN\ProjSrc\SrcChartEx\ChartAddIn\ChartAnalysisToolAddIn\AnalysisTool\DlgFiboSet.cpp
; File C:\Program Files (x86)\Microsoft Visual Studio\2019\Community\VC\Tools\MSVC\14.29.30133\atlmfc\include\atltime.h
; File D:\git\src\IBK\IBK_DRFN\ProjSrc\SrcChartEx\ChartAddIn\ChartAnalysisToolAddIn\AnalysisTool\DlgFiboSet.cpp
; File C:\Program Files (x86)\Microsoft Visual Studio\2019\Community\VC\Tools\MSVC\14.29.30133\atlmfc\include\atltime.h
; File D:\git\src\IBK\IBK_DRFN\ProjSrc\SrcChartEx\ChartAddIn\ChartAnalysisToolAddIn\AnalysisTool\DlgFiboSet.cpp
;	COMDAT ?SetXDateTime@CDlgFiboSet@@IAEXNH@Z
_TEXT	SEGMENT
_nYear$1$ = -84						; size = 4
$T2 = -84						; size = 4
$T3 = -84						; size = 4
_stime$4 = -80						; size = 8
_this$GSCopy$1$ = -76					; size = 4
$T5 = -76						; size = 4
$T6 = -76						; size = 4
_strFormat$7 = -72					; size = 4
$T8 = -68						; size = 4
$T9 = -68						; size = 4
$T10 = -68						; size = 4
$T11 = -68						; size = 4
$T12 = -68						; size = 4
_nMonth$1$ = -64					; size = 4
$T13 = -64						; size = 4
$T14 = -64						; size = 4
$T15 = -64						; size = 4
$T16 = -64						; size = 4
$T17 = -64						; size = 4
$T18 = -60						; size = 4
$T19 = -60						; size = 4
$T20 = -60						; size = 4
$T21 = -60						; size = 4
$T22 = -60						; size = 4
_strXValue$ = -56					; size = 4
_atm$23 = -52						; size = 36
__$ArrayPad$ = -16					; size = 4
__$EHRec$ = -12						; size = 12
_dXDateTime$ = 8					; size = 8
_nIndex$ = 16						; size = 4
?SetXDateTime@CDlgFiboSet@@IAEXNH@Z PROC		; CDlgFiboSet::SetXDateTime, COMDAT
; _this$ = ecx

; 1218 : {

  00000	55		 push	 ebp
  00001	8b ec		 mov	 ebp, esp
  00003	6a ff		 push	 -1
  00005	68 00 00 00 00	 push	 __ehhandler$?SetXDateTime@CDlgFiboSet@@IAEXNH@Z
  0000a	64 a1 00 00 00
	00		 mov	 eax, DWORD PTR fs:0
  00010	50		 push	 eax
  00011	83 ec 48	 sub	 esp, 72			; 00000048H
  00014	a1 00 00 00 00	 mov	 eax, DWORD PTR ___security_cookie
  00019	33 c5		 xor	 eax, ebp
  0001b	89 45 f0	 mov	 DWORD PTR __$ArrayPad$[ebp], eax
  0001e	53		 push	 ebx
  0001f	56		 push	 esi
  00020	57		 push	 edi
  00021	50		 push	 eax
  00022	8d 45 f4	 lea	 eax, DWORD PTR __$EHRec$[ebp]
  00025	64 a3 00 00 00
	00		 mov	 DWORD PTR fs:0, eax
  0002b	8b d9		 mov	 ebx, ecx
  0002d	89 5d b4	 mov	 DWORD PTR _this$GSCopy$1$[ebp], ebx

; 1219 : 	CString strXValue;

  00030	8d 4d c8	 lea	 ecx, DWORD PTR _strXValue$[ebp]
  00033	c7 45 c0 00 00
	00 00		 mov	 DWORD PTR $T13[ebp], 0
  0003a	ff 15 00 00 00
	00		 call	 DWORD PTR __imp_??0?$CStringT@DV?$StrTraitMFC_DLL@DV?$ChTraitsCRT@D@ATL@@@@@ATL@@QAE@XZ

; 1220 : 	strXValue.Format(_T("%.f"),dXDateTime);	

  00040	f2 0f 10 45 08	 movsd	 xmm0, QWORD PTR _dXDateTime$[ebp]
  00045	8d 45 c8	 lea	 eax, DWORD PTR _strXValue$[ebp]
  00048	83 ec 08	 sub	 esp, 8
  0004b	c7 45 fc 00 00
	00 00		 mov	 DWORD PTR __$EHRec$[ebp+8], 0
  00052	f2 0f 11 04 24	 movsd	 QWORD PTR [esp], xmm0
  00057	68 00 00 00 00	 push	 OFFSET ??_C@_03EICDNICE@?$CF?4f@
  0005c	50		 push	 eax
  0005d	ff 15 00 00 00
	00		 call	 DWORD PTR __imp_?Format@?$CStringT@DV?$StrTraitMFC_DLL@DV?$ChTraitsCRT@D@ATL@@@@@ATL@@QAAXPBDZZ
; File C:\Program Files (x86)\Microsoft Visual Studio\2019\Community\VC\Tools\MSVC\14.29.30133\atlmfc\include\atlsimpstr.h

; 519  : 		return( GetData()->nDataLength );

  00063	8b 45 c8	 mov	 eax, DWORD PTR _strXValue$[ebp]
; File D:\git\src\IBK\IBK_DRFN\ProjSrc\SrcChartEx\ChartAddIn\ChartAnalysisToolAddIn\AnalysisTool\DlgFiboSet.cpp

; 1220 : 	strXValue.Format(_T("%.f"),dXDateTime);	

  00066	83 c4 10	 add	 esp, 16			; 00000010H
; File C:\Program Files (x86)\Microsoft Visual Studio\2019\Community\VC\Tools\MSVC\14.29.30133\atlmfc\include\atlsimpstr.h

; 533  : 		return( GetLength() == 0 );

  00069	83 78 f4 00	 cmp	 DWORD PTR [eax-12], 0
; File D:\git\src\IBK\IBK_DRFN\ProjSrc\SrcChartEx\ChartAddIn\ChartAnalysisToolAddIn\AnalysisTool\DlgFiboSet.cpp

; 1221 : 	if(strXValue.IsEmpty() == FALSE && dXDateTime > 0.0f)

  0006d	0f 84 c5 04 00
	00		 je	 $LN11@SetXDateTi
  00073	f2 0f 10 45 08	 movsd	 xmm0, QWORD PTR _dXDateTime$[ebp]
  00078	66 0f 2f 05 00
	00 00 00	 comisd	 xmm0, QWORD PTR __real@0000000000000000
  00080	0f 86 b2 04 00
	00		 jbe	 $LN11@SetXDateTi

; 1222 : 	{	
; 1223 : 		if( m_nDataPeriod == CScaleBaseData::HORZ_DAILY		||
; 1224 : 			m_nDataPeriod == CScaleBaseData::HORZ_WEEKLEY	||

  00086	8b 83 f0 0b 00
	00		 mov	 eax, DWORD PTR [ebx+3056]
  0008c	83 f8 01	 cmp	 eax, 1
  0008f	0f 84 7f 03 00
	00		 je	 $LN5@SetXDateTi
  00095	83 f8 02	 cmp	 eax, 2
  00098	0f 84 76 03 00
	00		 je	 $LN5@SetXDateTi
  0009e	83 f8 03	 cmp	 eax, 3
  000a1	0f 84 6d 03 00
	00		 je	 $LN5@SetXDateTi

; 1245 : 		}
; 1246 : 		else
; 1247 : 		{	
; 1248 : 			if(nIndex == 0)

  000a7	83 7d 10 00	 cmp	 DWORD PTR _nIndex$[ebp], 0
  000ab	75 27		 jne	 SHORT $LN12@SetXDateTi

; 1249 : 			{
; 1250 : 				m_ctrlXDateTime1.ShowWindow(SW_HIDE);

  000ad	6a 00		 push	 0
  000af	8d 8b 50 0a 00
	00		 lea	 ecx, DWORD PTR [ebx+2640]
  000b5	e8 00 00 00 00	 call	 ?ShowWindow@CWnd@@QAEHH@Z ; CWnd::ShowWindow

; 1251 : 				m_ctrlXDateTime2.ShowWindow(SW_HIDE);

  000ba	6a 00		 push	 0
  000bc	8d 8b d0 0a 00
	00		 lea	 ecx, DWORD PTR [ebx+2768]
  000c2	e8 00 00 00 00	 call	 ?ShowWindow@CWnd@@QAEHH@Z ; CWnd::ShowWindow

; 1252 : 				m_ctrlXDateTime3.ShowWindow(SW_HIDE);

  000c7	6a 00		 push	 0
  000c9	8d 8b 50 0b 00
	00		 lea	 ecx, DWORD PTR [ebx+2896]
  000cf	e8 00 00 00 00	 call	 ?ShowWindow@CWnd@@QAEHH@Z ; CWnd::ShowWindow
$LN12@SetXDateTi:

; 1253 : 			}
; 1254 : 
; 1255 : 			CString strFormat;		

  000d4	8d 4d b8	 lea	 ecx, DWORD PTR _strFormat$7[ebp]
  000d7	ff 15 00 00 00
	00		 call	 DWORD PTR __imp_??0?$CStringT@DV?$StrTraitMFC_DLL@DV?$ChTraitsCRT@D@ATL@@@@@ATL@@QAE@XZ

; 1256 : 			if(m_nDataPeriod == CScaleBaseData::HORZ_TICK)

  000dd	83 bb f0 0b 00
	00 05		 cmp	 DWORD PTR [ebx+3056], 5
  000e4	8b 45 c8	 mov	 eax, DWORD PTR _strXValue$[ebp]
  000e7	c6 45 fc 01	 mov	 BYTE PTR __$EHRec$[ebp+8], 1
  000eb	0f 85 ff 00 00
	00		 jne	 $LN13@SetXDateTi

; 1257 : 			{
; 1258 : 				// 2011.01.17 by SYS >>  YYYY()  : / 14Byte  (YYYYMMDDhhmmss)
; 1259 : 				// DDHHMM  
; 1260 : 				if (strXValue.GetLength()==14)

  000f1	83 78 f4 0e	 cmp	 DWORD PTR [eax-12], 14	; 0000000eH
  000f5	8d 4d c8	 lea	 ecx, DWORD PTR _strXValue$[ebp]
  000f8	6a 02		 push	 2
  000fa	75 7b		 jne	 SHORT $LN15@SetXDateTi

; 1261 : 					strFormat.Format(_T("%s/%s:%s"),strXValue.Mid(6,2),strXValue.Mid(8,2),strXValue.Mid(10,2));

  000fc	6a 0a		 push	 10			; 0000000aH
  000fe	8d 45 c0	 lea	 eax, DWORD PTR $T17[ebp]
  00101	50		 push	 eax
  00102	ff 15 00 00 00
	00		 call	 DWORD PTR __imp_?Mid@?$CStringT@DV?$StrTraitMFC_DLL@DV?$ChTraitsCRT@D@ATL@@@@@ATL@@QBE?AV12@HH@Z
  00108	8b f8		 mov	 edi, eax
  0010a	6a 02		 push	 2
  0010c	6a 08		 push	 8
  0010e	8d 45 c4	 lea	 eax, DWORD PTR $T22[ebp]
  00111	c6 45 fc 02	 mov	 BYTE PTR __$EHRec$[ebp+8], 2
  00115	50		 push	 eax
  00116	8d 4d c8	 lea	 ecx, DWORD PTR _strXValue$[ebp]
  00119	ff 15 00 00 00
	00		 call	 DWORD PTR __imp_?Mid@?$CStringT@DV?$StrTraitMFC_DLL@DV?$ChTraitsCRT@D@ATL@@@@@ATL@@QBE?AV12@HH@Z
  0011f	8b f0		 mov	 esi, eax
  00121	6a 02		 push	 2
  00123	6a 06		 push	 6
  00125	8d 45 b4	 lea	 eax, DWORD PTR $T6[ebp]
  00128	c6 45 fc 03	 mov	 BYTE PTR __$EHRec$[ebp+8], 3
  0012c	50		 push	 eax
  0012d	8d 4d c8	 lea	 ecx, DWORD PTR _strXValue$[ebp]
  00130	ff 15 00 00 00
	00		 call	 DWORD PTR __imp_?Mid@?$CStringT@DV?$StrTraitMFC_DLL@DV?$ChTraitsCRT@D@ATL@@@@@ATL@@QBE?AV12@HH@Z
  00136	ff 37		 push	 DWORD PTR [edi]
  00138	c6 45 fc 04	 mov	 BYTE PTR __$EHRec$[ebp+8], 4
  0013c	ff 36		 push	 DWORD PTR [esi]
  0013e	ff 30		 push	 DWORD PTR [eax]
  00140	8d 45 b8	 lea	 eax, DWORD PTR _strFormat$7[ebp]
  00143	68 00 00 00 00	 push	 OFFSET ??_C@_08IGKLELNK@?$CFs?1?$CFs?3?$CFs@
  00148	50		 push	 eax
  00149	a1 00 00 00 00	 mov	 eax, DWORD PTR __imp_?Format@?$CStringT@DV?$StrTraitMFC_DLL@DV?$ChTraitsCRT@D@ATL@@@@@ATL@@QAAXPBDZZ
  0014e	ff d0		 call	 eax
  00150	83 c4 14	 add	 esp, 20			; 00000014H
  00153	8d 4d b4	 lea	 ecx, DWORD PTR $T6[ebp]
  00156	ff 15 00 00 00
	00		 call	 DWORD PTR __imp_??1?$CStringT@DV?$StrTraitMFC_DLL@DV?$ChTraitsCRT@D@ATL@@@@@ATL@@QAE@XZ
  0015c	8d 4d c4	 lea	 ecx, DWORD PTR $T22[ebp]
  0015f	ff 15 00 00 00
	00		 call	 DWORD PTR __imp_??1?$CStringT@DV?$StrTraitMFC_DLL@DV?$ChTraitsCRT@D@ATL@@@@@ATL@@QAE@XZ
  00165	8d 4d c0	 lea	 ecx, DWORD PTR $T17[ebp]
  00168	c6 45 fc 01	 mov	 BYTE PTR __$EHRec$[ebp+8], 1
  0016c	ff 15 00 00 00
	00		 call	 DWORD PTR __imp_??1?$CStringT@DV?$StrTraitMFC_DLL@DV?$ChTraitsCRT@D@ATL@@@@@ATL@@QAE@XZ
  00172	e9 10 02 00 00	 jmp	 $LN19@SetXDateTi
$LN15@SetXDateTi:

; 1262 : 				else								
; 1263 : 					strFormat.Format(_T("%s/%s:%s"),strXValue.Left(2),strXValue.Mid(2,2),strXValue.Mid(4,2));

  00177	6a 04		 push	 4
  00179	8d 45 c4	 lea	 eax, DWORD PTR $T21[ebp]
  0017c	50		 push	 eax
  0017d	ff 15 00 00 00
	00		 call	 DWORD PTR __imp_?Mid@?$CStringT@DV?$StrTraitMFC_DLL@DV?$ChTraitsCRT@D@ATL@@@@@ATL@@QBE?AV12@HH@Z
  00183	8b f8		 mov	 edi, eax
  00185	6a 02		 push	 2
  00187	6a 02		 push	 2
  00189	8d 45 b4	 lea	 eax, DWORD PTR $T5[ebp]
  0018c	c6 45 fc 05	 mov	 BYTE PTR __$EHRec$[ebp+8], 5
  00190	50		 push	 eax
  00191	8d 4d c8	 lea	 ecx, DWORD PTR _strXValue$[ebp]
  00194	ff 15 00 00 00
	00		 call	 DWORD PTR __imp_?Mid@?$CStringT@DV?$StrTraitMFC_DLL@DV?$ChTraitsCRT@D@ATL@@@@@ATL@@QBE?AV12@HH@Z
  0019a	8b f0		 mov	 esi, eax
  0019c	6a 02		 push	 2
  0019e	8d 45 c0	 lea	 eax, DWORD PTR $T16[ebp]
  001a1	c6 45 fc 06	 mov	 BYTE PTR __$EHRec$[ebp+8], 6
  001a5	50		 push	 eax
  001a6	8d 4d c8	 lea	 ecx, DWORD PTR _strXValue$[ebp]
  001a9	ff 15 00 00 00
	00		 call	 DWORD PTR __imp_?Left@?$CStringT@DV?$StrTraitMFC_DLL@DV?$ChTraitsCRT@D@ATL@@@@@ATL@@QBE?AV12@H@Z
  001af	ff 37		 push	 DWORD PTR [edi]
  001b1	c6 45 fc 07	 mov	 BYTE PTR __$EHRec$[ebp+8], 7
  001b5	ff 36		 push	 DWORD PTR [esi]
  001b7	ff 30		 push	 DWORD PTR [eax]
  001b9	8d 45 b8	 lea	 eax, DWORD PTR _strFormat$7[ebp]
  001bc	68 00 00 00 00	 push	 OFFSET ??_C@_08IGKLELNK@?$CFs?1?$CFs?3?$CFs@
  001c1	50		 push	 eax
  001c2	a1 00 00 00 00	 mov	 eax, DWORD PTR __imp_?Format@?$CStringT@DV?$StrTraitMFC_DLL@DV?$ChTraitsCRT@D@ATL@@@@@ATL@@QAAXPBDZZ
  001c7	ff d0		 call	 eax
  001c9	83 c4 14	 add	 esp, 20			; 00000014H
  001cc	8d 4d c0	 lea	 ecx, DWORD PTR $T16[ebp]
  001cf	ff 15 00 00 00
	00		 call	 DWORD PTR __imp_??1?$CStringT@DV?$StrTraitMFC_DLL@DV?$ChTraitsCRT@D@ATL@@@@@ATL@@QAE@XZ
  001d5	8d 4d b4	 lea	 ecx, DWORD PTR $T5[ebp]
  001d8	ff 15 00 00 00
	00		 call	 DWORD PTR __imp_??1?$CStringT@DV?$StrTraitMFC_DLL@DV?$ChTraitsCRT@D@ATL@@@@@ATL@@QAE@XZ
  001de	8d 4d c4	 lea	 ecx, DWORD PTR $T21[ebp]
  001e1	c6 45 fc 01	 mov	 BYTE PTR __$EHRec$[ebp+8], 1
  001e5	ff 15 00 00 00
	00		 call	 DWORD PTR __imp_??1?$CStringT@DV?$StrTraitMFC_DLL@DV?$ChTraitsCRT@D@ATL@@@@@ATL@@QAE@XZ

; 1264 : 				// 2011.01.17 by SYS <<
; 1265 : 			}

  001eb	e9 97 01 00 00	 jmp	 $LN19@SetXDateTi
$LN13@SetXDateTi:

; 1266 : 			else
; 1267 : 			{
; 1268 : 				if(strXValue.GetLength() < 8)

  001f0	83 78 f4 08	 cmp	 DWORD PTR [eax-12], 8
  001f4	7d 56		 jge	 SHORT $LN17@SetXDateTi
; File C:\Program Files (x86)\Microsoft Visual Studio\2019\Community\VC\Tools\MSVC\14.29.30133\atlmfc\include\cstringt.h

; 2412 : 		CStringT strResult( str2.GetManager() );

  001f6	8d 4d c8	 lea	 ecx, DWORD PTR _strXValue$[ebp]
; File D:\git\src\IBK\IBK_DRFN\ProjSrc\SrcChartEx\ChartAddIn\ChartAnalysisToolAddIn\AnalysisTool\DlgFiboSet.cpp

; 1269 : 					strXValue = "0" + strXValue;

  001f9	c6 45 fc 08	 mov	 BYTE PTR __$EHRec$[ebp+8], 8
; File C:\Program Files (x86)\Microsoft Visual Studio\2019\Community\VC\Tools\MSVC\14.29.30133\atlmfc\include\cstringt.h

; 2412 : 		CStringT strResult( str2.GetManager() );

  001fd	ff 15 00 00 00
	00		 call	 DWORD PTR __imp_?GetManager@?$CStringT@DV?$StrTraitMFC_DLL@DV?$ChTraitsCRT@D@ATL@@@@@ATL@@QBEPAUIAtlStringMgr@2@XZ
  00203	50		 push	 eax
  00204	8d 4d c4	 lea	 ecx, DWORD PTR $T20[ebp]
  00207	ff 15 00 00 00
	00		 call	 DWORD PTR __imp_??0?$CStringT@DV?$StrTraitMFC_DLL@DV?$ChTraitsCRT@D@ATL@@@@@ATL@@QAE@PAUIAtlStringMgr@1@@Z
; File C:\Program Files (x86)\Microsoft Visual Studio\2019\Community\VC\Tools\MSVC\14.29.30133\atlmfc\include\atlsimpstr.h

; 519  : 		return( GetData()->nDataLength );

  0020d	8b 45 c8	 mov	 eax, DWORD PTR _strXValue$[ebp]
; File C:\Program Files (x86)\Microsoft Visual Studio\2019\Community\VC\Tools\MSVC\14.29.30133\atlmfc\include\cstringt.h

; 2416 : 		return( strResult );

  00210	c7 45 c0 01 00
	00 00		 mov	 DWORD PTR $T13[ebp], 1
  00217	ff 70 f4	 push	 DWORD PTR [eax-12]
  0021a	50		 push	 eax
  0021b	6a 01		 push	 1
  0021d	8d 45 c4	 lea	 eax, DWORD PTR $T20[ebp]
  00220	68 00 00 00 00	 push	 OFFSET ??_C@_01GBGANLPD@0@
  00225	50		 push	 eax
  00226	ff 15 00 00 00
	00		 call	 DWORD PTR __imp_?Concatenate@?$CSimpleStringT@D$00@ATL@@KAXAAV12@PBDH1H@Z
  0022c	83 c4 14	 add	 esp, 20			; 00000014H
; File D:\git\src\IBK\IBK_DRFN\ProjSrc\SrcChartEx\ChartAddIn\ChartAnalysisToolAddIn\AnalysisTool\DlgFiboSet.cpp

; 1269 : 					strXValue = "0" + strXValue;

  0022f	8d 45 c4	 lea	 eax, DWORD PTR $T20[ebp]
  00232	8d 4d c8	 lea	 ecx, DWORD PTR _strXValue$[ebp]
  00235	50		 push	 eax
  00236	ff 15 00 00 00
	00		 call	 DWORD PTR __imp_??4?$CStringT@DV?$StrTraitMFC_DLL@DV?$ChTraitsCRT@D@ATL@@@@@ATL@@QAEAAV01@ABV01@@Z
  0023c	8d 4d c4	 lea	 ecx, DWORD PTR $T20[ebp]
  0023f	c6 45 fc 01	 mov	 BYTE PTR __$EHRec$[ebp+8], 1
  00243	ff 15 00 00 00
	00		 call	 DWORD PTR __imp_??1?$CStringT@DV?$StrTraitMFC_DLL@DV?$ChTraitsCRT@D@ATL@@@@@ATL@@QAE@XZ
  00249	8b 45 c8	 mov	 eax, DWORD PTR _strXValue$[ebp]
$LN17@SetXDateTi:

; 1270 : 				
; 1271 : 				// 2011.01.06 by SYS >>  YYYY() 
; 1272 : 				// MMDDHHMM  
; 1273 : 				if(strXValue.GetLength() == 14)

  0024c	83 78 f4 0e	 cmp	 DWORD PTR [eax-12], 14	; 0000000eH
  00250	8d 4d c8	 lea	 ecx, DWORD PTR _strXValue$[ebp]
  00253	6a 02		 push	 2
  00255	0f 85 93 00 00
	00		 jne	 $LN18@SetXDateTi

; 1274 : 					strFormat.Format(_T("%s/%s-%s:%s"),strXValue.Mid(4,2),strXValue.Mid(6,2), strXValue.Mid(8,2),strXValue.Mid(10,2));

  0025b	6a 0a		 push	 10			; 0000000aH
  0025d	8d 45 bc	 lea	 eax, DWORD PTR $T9[ebp]
  00260	50		 push	 eax
  00261	ff 15 00 00 00
	00		 call	 DWORD PTR __imp_?Mid@?$CStringT@DV?$StrTraitMFC_DLL@DV?$ChTraitsCRT@D@ATL@@@@@ATL@@QBE?AV12@HH@Z
  00267	8b d8		 mov	 ebx, eax
  00269	6a 02		 push	 2
  0026b	6a 08		 push	 8
  0026d	8d 45 ac	 lea	 eax, DWORD PTR $T3[ebp]
  00270	c6 45 fc 09	 mov	 BYTE PTR __$EHRec$[ebp+8], 9
  00274	50		 push	 eax
  00275	8d 4d c8	 lea	 ecx, DWORD PTR _strXValue$[ebp]
  00278	ff 15 00 00 00
	00		 call	 DWORD PTR __imp_?Mid@?$CStringT@DV?$StrTraitMFC_DLL@DV?$ChTraitsCRT@D@ATL@@@@@ATL@@QBE?AV12@HH@Z
  0027e	8b f8		 mov	 edi, eax
  00280	6a 02		 push	 2
  00282	6a 06		 push	 6
  00284	8d 45 c4	 lea	 eax, DWORD PTR $T19[ebp]
  00287	c6 45 fc 0a	 mov	 BYTE PTR __$EHRec$[ebp+8], 10 ; 0000000aH
  0028b	50		 push	 eax
  0028c	8d 4d c8	 lea	 ecx, DWORD PTR _strXValue$[ebp]
  0028f	ff 15 00 00 00
	00		 call	 DWORD PTR __imp_?Mid@?$CStringT@DV?$StrTraitMFC_DLL@DV?$ChTraitsCRT@D@ATL@@@@@ATL@@QBE?AV12@HH@Z
  00295	8b f0		 mov	 esi, eax
  00297	6a 02		 push	 2
  00299	6a 04		 push	 4
  0029b	8d 45 c0	 lea	 eax, DWORD PTR $T15[ebp]
  0029e	c6 45 fc 0b	 mov	 BYTE PTR __$EHRec$[ebp+8], 11 ; 0000000bH
  002a2	50		 push	 eax
  002a3	8d 4d c8	 lea	 ecx, DWORD PTR _strXValue$[ebp]
  002a6	ff 15 00 00 00
	00		 call	 DWORD PTR __imp_?Mid@?$CStringT@DV?$StrTraitMFC_DLL@DV?$ChTraitsCRT@D@ATL@@@@@ATL@@QBE?AV12@HH@Z
  002ac	ff 33		 push	 DWORD PTR [ebx]
  002ae	c6 45 fc 0c	 mov	 BYTE PTR __$EHRec$[ebp+8], 12 ; 0000000cH
  002b2	ff 37		 push	 DWORD PTR [edi]
  002b4	ff 36		 push	 DWORD PTR [esi]
  002b6	ff 30		 push	 DWORD PTR [eax]
  002b8	8d 45 b8	 lea	 eax, DWORD PTR _strFormat$7[ebp]
  002bb	68 00 00 00 00	 push	 OFFSET ??_C@_0M@NFOMEIHF@?$CFs?1?$CFs?9?$CFs?3?$CFs@
  002c0	50		 push	 eax
  002c1	a1 00 00 00 00	 mov	 eax, DWORD PTR __imp_?Format@?$CStringT@DV?$StrTraitMFC_DLL@DV?$ChTraitsCRT@D@ATL@@@@@ATL@@QAAXPBDZZ
  002c6	ff d0		 call	 eax
  002c8	83 c4 18	 add	 esp, 24			; 00000018H
  002cb	8d 4d c0	 lea	 ecx, DWORD PTR $T15[ebp]
  002ce	ff 15 00 00 00
	00		 call	 DWORD PTR __imp_??1?$CStringT@DV?$StrTraitMFC_DLL@DV?$ChTraitsCRT@D@ATL@@@@@ATL@@QAE@XZ
  002d4	8d 4d c4	 lea	 ecx, DWORD PTR $T19[ebp]
  002d7	ff 15 00 00 00
	00		 call	 DWORD PTR __imp_??1?$CStringT@DV?$StrTraitMFC_DLL@DV?$ChTraitsCRT@D@ATL@@@@@ATL@@QAE@XZ
  002dd	8d 4d ac	 lea	 ecx, DWORD PTR $T3[ebp]
  002e0	ff 15 00 00 00
	00		 call	 DWORD PTR __imp_??1?$CStringT@DV?$StrTraitMFC_DLL@DV?$ChTraitsCRT@D@ATL@@@@@ATL@@QAE@XZ
  002e6	8d 4d bc	 lea	 ecx, DWORD PTR $T9[ebp]
  002e9	e9 8c 00 00 00	 jmp	 $LN152@SetXDateTi
$LN18@SetXDateTi:

; 1275 : 				else
; 1276 : 					strFormat.Format(_T("%s/%s-%s:%s"),strXValue.Left(2),strXValue.Mid(2,2), strXValue.Mid(4,2),strXValue.Mid(6,2));

  002ee	6a 06		 push	 6
  002f0	8d 45 c4	 lea	 eax, DWORD PTR $T18[ebp]
  002f3	50		 push	 eax
  002f4	ff 15 00 00 00
	00		 call	 DWORD PTR __imp_?Mid@?$CStringT@DV?$StrTraitMFC_DLL@DV?$ChTraitsCRT@D@ATL@@@@@ATL@@QBE?AV12@HH@Z
  002fa	8b d8		 mov	 ebx, eax
  002fc	6a 02		 push	 2
  002fe	6a 04		 push	 4
  00300	8d 45 c0	 lea	 eax, DWORD PTR $T14[ebp]
  00303	c6 45 fc 0d	 mov	 BYTE PTR __$EHRec$[ebp+8], 13 ; 0000000dH
  00307	50		 push	 eax
  00308	8d 4d c8	 lea	 ecx, DWORD PTR _strXValue$[ebp]
  0030b	ff 15 00 00 00
	00		 call	 DWORD PTR __imp_?Mid@?$CStringT@DV?$StrTraitMFC_DLL@DV?$ChTraitsCRT@D@ATL@@@@@ATL@@QBE?AV12@HH@Z
  00311	8b f8		 mov	 edi, eax
  00313	6a 02		 push	 2
  00315	6a 02		 push	 2
  00317	8d 45 ac	 lea	 eax, DWORD PTR $T2[ebp]
  0031a	c6 45 fc 0e	 mov	 BYTE PTR __$EHRec$[ebp+8], 14 ; 0000000eH
  0031e	50		 push	 eax
  0031f	8d 4d c8	 lea	 ecx, DWORD PTR _strXValue$[ebp]
  00322	ff 15 00 00 00
	00		 call	 DWORD PTR __imp_?Mid@?$CStringT@DV?$StrTraitMFC_DLL@DV?$ChTraitsCRT@D@ATL@@@@@ATL@@QBE?AV12@HH@Z
  00328	8b f0		 mov	 esi, eax
  0032a	6a 02		 push	 2
  0032c	8d 45 bc	 lea	 eax, DWORD PTR $T8[ebp]
  0032f	c6 45 fc 0f	 mov	 BYTE PTR __$EHRec$[ebp+8], 15 ; 0000000fH
  00333	50		 push	 eax
  00334	8d 4d c8	 lea	 ecx, DWORD PTR _strXValue$[ebp]
  00337	ff 15 00 00 00
	00		 call	 DWORD PTR __imp_?Left@?$CStringT@DV?$StrTraitMFC_DLL@DV?$ChTraitsCRT@D@ATL@@@@@ATL@@QBE?AV12@H@Z
  0033d	ff 33		 push	 DWORD PTR [ebx]
  0033f	c6 45 fc 10	 mov	 BYTE PTR __$EHRec$[ebp+8], 16 ; 00000010H
  00343	ff 37		 push	 DWORD PTR [edi]
  00345	ff 36		 push	 DWORD PTR [esi]
  00347	ff 30		 push	 DWORD PTR [eax]
  00349	8d 45 b8	 lea	 eax, DWORD PTR _strFormat$7[ebp]
  0034c	68 00 00 00 00	 push	 OFFSET ??_C@_0M@NFOMEIHF@?$CFs?1?$CFs?9?$CFs?3?$CFs@
  00351	50		 push	 eax
  00352	a1 00 00 00 00	 mov	 eax, DWORD PTR __imp_?Format@?$CStringT@DV?$StrTraitMFC_DLL@DV?$ChTraitsCRT@D@ATL@@@@@ATL@@QAAXPBDZZ
  00357	ff d0		 call	 eax
  00359	83 c4 18	 add	 esp, 24			; 00000018H
  0035c	8d 4d bc	 lea	 ecx, DWORD PTR $T8[ebp]
  0035f	ff 15 00 00 00
	00		 call	 DWORD PTR __imp_??1?$CStringT@DV?$StrTraitMFC_DLL@DV?$ChTraitsCRT@D@ATL@@@@@ATL@@QAE@XZ
  00365	8d 4d ac	 lea	 ecx, DWORD PTR $T2[ebp]
  00368	ff 15 00 00 00
	00		 call	 DWORD PTR __imp_??1?$CStringT@DV?$StrTraitMFC_DLL@DV?$ChTraitsCRT@D@ATL@@@@@ATL@@QAE@XZ
  0036e	8d 4d c0	 lea	 ecx, DWORD PTR $T14[ebp]
  00371	ff 15 00 00 00
	00		 call	 DWORD PTR __imp_??1?$CStringT@DV?$StrTraitMFC_DLL@DV?$ChTraitsCRT@D@ATL@@@@@ATL@@QAE@XZ
  00377	8d 4d c4	 lea	 ecx, DWORD PTR $T18[ebp]
$LN152@SetXDateTi:

; 1277 : 				// 2011.01.06 by SYS <<
; 1278 : 			}
; 1279 : 			
; 1280 : 			if(nIndex == 0)

  0037a	c6 45 fc 01	 mov	 BYTE PTR __$EHRec$[ebp+8], 1
  0037e	ff 15 00 00 00
	00		 call	 DWORD PTR __imp_??1?$CStringT@DV?$StrTraitMFC_DLL@DV?$ChTraitsCRT@D@ATL@@@@@ATL@@QAE@XZ
  00384	8b 5d b4	 mov	 ebx, DWORD PTR _this$GSCopy$1$[ebp]
$LN19@SetXDateTi:
  00387	8b 45 10	 mov	 eax, DWORD PTR _nIndex$[ebp]
  0038a	85 c0		 test	 eax, eax
  0038c	75 23		 jne	 SHORT $LN20@SetXDateTi

; 1281 : 			{
; 1282 : 				m_ctrlEditXValue1.ShowWindow(SW_SHOW);

  0038e	6a 05		 push	 5
  00390	8d 8b 50 07 00
	00		 lea	 ecx, DWORD PTR [ebx+1872]
  00396	e8 00 00 00 00	 call	 ?ShowWindow@CWnd@@QAEHH@Z ; CWnd::ShowWindow

; 1283 : 				m_ctrlEditXValue1.SetWindowText(strFormat);

  0039b	ff 75 b8	 push	 DWORD PTR _strFormat$7[ebp]
  0039e	8d 8b 50 07 00
	00		 lea	 ecx, DWORD PTR [ebx+1872]
  003a4	e8 00 00 00 00	 call	 ?SetWindowTextA@CWnd@@QAEXPBD@Z ; CWnd::SetWindowTextA

; 1284 : 				m_ctrlEditXValue1.EnableWindow(FALSE);

  003a9	8d 8b 50 07 00
	00		 lea	 ecx, DWORD PTR [ebx+1872]

; 1285 : 			}

  003af	eb 4e		 jmp	 SHORT $LN153@SetXDateTi
$LN20@SetXDateTi:

; 1286 : 			else if(nIndex == 1)

  003b1	83 f8 01	 cmp	 eax, 1
  003b4	75 23		 jne	 SHORT $LN22@SetXDateTi

; 1287 : 			{
; 1288 : 				m_ctrlEditXValue2.ShowWindow(SW_SHOW);

  003b6	6a 05		 push	 5
  003b8	8d 8b d0 07 00
	00		 lea	 ecx, DWORD PTR [ebx+2000]
  003be	e8 00 00 00 00	 call	 ?ShowWindow@CWnd@@QAEHH@Z ; CWnd::ShowWindow

; 1289 : 				m_ctrlEditXValue2.SetWindowText(strFormat);

  003c3	ff 75 b8	 push	 DWORD PTR _strFormat$7[ebp]
  003c6	8d 8b d0 07 00
	00		 lea	 ecx, DWORD PTR [ebx+2000]
  003cc	e8 00 00 00 00	 call	 ?SetWindowTextA@CWnd@@QAEXPBD@Z ; CWnd::SetWindowTextA

; 1290 : 				m_ctrlEditXValue2.EnableWindow(FALSE);

  003d1	8d 8b d0 07 00
	00		 lea	 ecx, DWORD PTR [ebx+2000]

; 1291 : 			}

  003d7	eb 26		 jmp	 SHORT $LN153@SetXDateTi
$LN22@SetXDateTi:

; 1292 : 			else if(nIndex == 2)

  003d9	83 f8 02	 cmp	 eax, 2
  003dc	75 28		 jne	 SHORT $LN24@SetXDateTi

; 1293 : 			{
; 1294 : 				m_ctrlEditXValue3.ShowWindow(SW_SHOW);

  003de	6a 05		 push	 5
  003e0	8d 8b 50 08 00
	00		 lea	 ecx, DWORD PTR [ebx+2128]
  003e6	e8 00 00 00 00	 call	 ?ShowWindow@CWnd@@QAEHH@Z ; CWnd::ShowWindow

; 1295 : 				m_ctrlEditXValue3.SetWindowText(strFormat);

  003eb	ff 75 b8	 push	 DWORD PTR _strFormat$7[ebp]
  003ee	8d 8b 50 08 00
	00		 lea	 ecx, DWORD PTR [ebx+2128]
  003f4	e8 00 00 00 00	 call	 ?SetWindowTextA@CWnd@@QAEXPBD@Z ; CWnd::SetWindowTextA

; 1296 : 				m_ctrlEditXValue3.EnableWindow(FALSE);

  003f9	8d 8b 50 08 00
	00		 lea	 ecx, DWORD PTR [ebx+2128]
$LN153@SetXDateTi:

; 1297 : 			}
; 1298 : 		}

  003ff	6a 00		 push	 0
  00401	e8 00 00 00 00	 call	 ?EnableWindow@CWnd@@QAEHH@Z ; CWnd::EnableWindow
$LN24@SetXDateTi:
  00406	8d 4d b8	 lea	 ecx, DWORD PTR _strFormat$7[ebp]
  00409	ff 15 00 00 00
	00		 call	 DWORD PTR __imp_??1?$CStringT@DV?$StrTraitMFC_DLL@DV?$ChTraitsCRT@D@ATL@@@@@ATL@@QAE@XZ
  0040f	e9 24 01 00 00	 jmp	 $LN11@SetXDateTi
$LN5@SetXDateTi:

; 1225 : 			m_nDataPeriod == CScaleBaseData::HORZ_MONTHLY)
; 1226 : 		{
; 1227 : 			if(nIndex == 0)

  00414	8b 7d 10	 mov	 edi, DWORD PTR _nIndex$[ebp]
  00417	85 ff		 test	 edi, edi
  00419	75 24		 jne	 SHORT $LN6@SetXDateTi

; 1228 : 			{
; 1229 : 				m_ctrlEditXValue1.ShowWindow(SW_HIDE);

  0041b	57		 push	 edi
  0041c	8d 8b 50 07 00
	00		 lea	 ecx, DWORD PTR [ebx+1872]
  00422	e8 00 00 00 00	 call	 ?ShowWindow@CWnd@@QAEHH@Z ; CWnd::ShowWindow

; 1230 : 				m_ctrlEditXValue2.ShowWindow(SW_HIDE);

  00427	57		 push	 edi
  00428	8d 8b d0 07 00
	00		 lea	 ecx, DWORD PTR [ebx+2000]
  0042e	e8 00 00 00 00	 call	 ?ShowWindow@CWnd@@QAEHH@Z ; CWnd::ShowWindow

; 1231 : 				m_ctrlEditXValue3.ShowWindow(SW_HIDE);

  00433	57		 push	 edi
  00434	8d 8b 50 08 00
	00		 lea	 ecx, DWORD PTR [ebx+2128]
  0043a	e8 00 00 00 00	 call	 ?ShowWindow@CWnd@@QAEHH@Z ; CWnd::ShowWindow
$LN6@SetXDateTi:

; 1232 : 			}
; 1233 : 
; 1234 : 			int nYear = atoi(strXValue.Left(4));

  0043f	6a 04		 push	 4
  00441	8d 45 bc	 lea	 eax, DWORD PTR $T12[ebp]
  00444	50		 push	 eax
  00445	8d 4d c8	 lea	 ecx, DWORD PTR _strXValue$[ebp]
  00448	ff 15 00 00 00
	00		 call	 DWORD PTR __imp_?Left@?$CStringT@DV?$StrTraitMFC_DLL@DV?$ChTraitsCRT@D@ATL@@@@@ATL@@QBE?AV12@H@Z
  0044e	8b 35 00 00 00
	00		 mov	 esi, DWORD PTR __imp__atoi
  00454	ff 30		 push	 DWORD PTR [eax]
  00456	ff d6		 call	 esi
  00458	83 c4 04	 add	 esp, 4
  0045b	89 45 ac	 mov	 DWORD PTR _nYear$1$[ebp], eax
  0045e	8d 4d bc	 lea	 ecx, DWORD PTR $T12[ebp]
  00461	ff 15 00 00 00
	00		 call	 DWORD PTR __imp_??1?$CStringT@DV?$StrTraitMFC_DLL@DV?$ChTraitsCRT@D@ATL@@@@@ATL@@QAE@XZ

; 1235 : 			int nMonth = atoi(strXValue.Mid(4,2));

  00467	6a 02		 push	 2
  00469	6a 04		 push	 4
  0046b	8d 45 bc	 lea	 eax, DWORD PTR $T11[ebp]
  0046e	50		 push	 eax
  0046f	8d 4d c8	 lea	 ecx, DWORD PTR _strXValue$[ebp]
  00472	ff 15 00 00 00
	00		 call	 DWORD PTR __imp_?Mid@?$CStringT@DV?$StrTraitMFC_DLL@DV?$ChTraitsCRT@D@ATL@@@@@ATL@@QBE?AV12@HH@Z
  00478	ff 30		 push	 DWORD PTR [eax]
  0047a	ff d6		 call	 esi
  0047c	83 c4 04	 add	 esp, 4
  0047f	89 45 c0	 mov	 DWORD PTR _nMonth$1$[ebp], eax
  00482	8d 4d bc	 lea	 ecx, DWORD PTR $T11[ebp]
  00485	ff 15 00 00 00
	00		 call	 DWORD PTR __imp_??1?$CStringT@DV?$StrTraitMFC_DLL@DV?$ChTraitsCRT@D@ATL@@@@@ATL@@QAE@XZ

; 1236 : 			int nDay = atoi(strXValue.Mid(6,2));

  0048b	6a 02		 push	 2
  0048d	6a 06		 push	 6
  0048f	8d 45 bc	 lea	 eax, DWORD PTR $T10[ebp]
  00492	50		 push	 eax
  00493	8d 4d c8	 lea	 ecx, DWORD PTR _strXValue$[ebp]
  00496	ff 15 00 00 00
	00		 call	 DWORD PTR __imp_?Mid@?$CStringT@DV?$StrTraitMFC_DLL@DV?$ChTraitsCRT@D@ATL@@@@@ATL@@QBE?AV12@HH@Z
  0049c	ff 30		 push	 DWORD PTR [eax]
  0049e	ff d6		 call	 esi
  004a0	83 c4 04	 add	 esp, 4
  004a3	8d 4d bc	 lea	 ecx, DWORD PTR $T10[ebp]
  004a6	8b f0		 mov	 esi, eax
  004a8	ff 15 00 00 00
	00		 call	 DWORD PTR __imp_??1?$CStringT@DV?$StrTraitMFC_DLL@DV?$ChTraitsCRT@D@ATL@@@@@ATL@@QAE@XZ
; File C:\Program Files (x86)\Microsoft Visual Studio\2019\Community\VC\Tools\MSVC\14.29.30133\atlmfc\include\atltime.h

; 433  : 	ATLENSURE( nYear >= 1970 );

  004ae	8b 55 ac	 mov	 edx, DWORD PTR _nYear$1$[ebp]
; File D:\git\src\IBK\IBK_DRFN\ProjSrc\SrcChartEx\ChartAddIn\ChartAnalysisToolAddIn\AnalysisTool\DlgFiboSet.cpp

; 1238 : 			CTime stime(nYear,nMonth,max(1,nDay),0,0,0);

  004b1	b8 01 00 00 00	 mov	 eax, 1
  004b6	3b f0		 cmp	 esi, eax
  004b8	0f 4c f0	 cmovl	 esi, eax
; File C:\Program Files (x86)\Microsoft Visual Studio\2019\Community\VC\Tools\MSVC\14.29.30133\atlmfc\include\atltime.h

; 433  : 	ATLENSURE( nYear >= 1970 );

  004bb	81 fa b2 07 00
	00		 cmp	 edx, 1970		; 000007b2H
  004c1	0f 8c ba 00 00
	00		 jl	 $LN108@SetXDateTi

; 434  : 	ATLENSURE( nMonth >= 1 && nMonth <= 12 );

  004c7	8b 4d c0	 mov	 ecx, DWORD PTR _nMonth$1$[ebp]
  004ca	49		 dec	 ecx
  004cb	83 f9 0b	 cmp	 ecx, 11			; 0000000bH
  004ce	0f 87 ad 00 00
	00		 ja	 $LN108@SetXDateTi

; 435  : 	ATLENSURE( nDay >= 1 && nDay <= 31 );

  004d4	8d 46 ff	 lea	 eax, DWORD PTR [esi-1]
  004d7	83 f8 1e	 cmp	 eax, 30			; 0000001eH
  004da	0f 87 a1 00 00
	00		 ja	 $LN108@SetXDateTi

; 436  : 	ATLENSURE( nHour >= 0 && nHour <= 23 );
; 437  : 	ATLENSURE( nMin >= 0 && nMin <= 59 );
; 438  : 	ATLENSURE( nSec >= 0 && nSec <= 59 );
; 439  : 
; 440  : #pragma warning (pop)
; 441  : 
; 442  : 	struct tm atm;
; 443  : 
; 444  : 	atm.tm_sec = nSec;
; 445  : 	atm.tm_min = nMin;
; 446  : 	atm.tm_hour = nHour;
; 447  : 	atm.tm_mday = nDay;
; 448  : 	atm.tm_mon = nMonth - 1;        // tm_mon is 0 based
; 449  : 	atm.tm_year = nYear - 1900;     // tm_year is 1900 based

  004e0	8d 82 94 f8 ff
	ff		 lea	 eax, DWORD PTR [edx-1900]
  004e6	c7 45 cc 00 00
	00 00		 mov	 DWORD PTR _atm$23[ebp], 0
  004ed	89 45 e0	 mov	 DWORD PTR _atm$23[ebp+20], eax

; 450  : 	atm.tm_isdst = nDST;
; 451  : 
; 452  : 	m_time = _mktime64(&atm);

  004f0	8d 45 cc	 lea	 eax, DWORD PTR _atm$23[ebp]
  004f3	50		 push	 eax
  004f4	c7 45 d0 00 00
	00 00		 mov	 DWORD PTR _atm$23[ebp+4], 0
  004fb	c7 45 d4 00 00
	00 00		 mov	 DWORD PTR _atm$23[ebp+8], 0
  00502	89 75 d8	 mov	 DWORD PTR _atm$23[ebp+12], esi
  00505	89 4d dc	 mov	 DWORD PTR _atm$23[ebp+16], ecx
  00508	c7 45 ec ff ff
	ff ff		 mov	 DWORD PTR _atm$23[ebp+32], -1
  0050f	ff 15 00 00 00
	00		 call	 DWORD PTR __imp___mktime64
  00515	89 45 b0	 mov	 DWORD PTR _stime$4[ebp], eax
  00518	83 c4 04	 add	 esp, 4

; 453  : 	ATLASSUME(m_time != -1);       // indicates an illegal input time
; 454  : 	if(m_time == -1)

  0051b	23 c2		 and	 eax, edx
  0051d	89 55 b4	 mov	 DWORD PTR _stime$4[ebp+4], edx
  00520	83 f8 ff	 cmp	 eax, -1
  00523	74 66		 je	 SHORT $LN156@SetXDateTi
; File D:\git\src\IBK\IBK_DRFN\ProjSrc\SrcChartEx\ChartAddIn\ChartAnalysisToolAddIn\AnalysisTool\DlgFiboSet.cpp

; 1239 : 			if(nIndex == 0)

  00525	85 ff		 test	 edi, edi
  00527	75 36		 jne	 SHORT $LN7@SetXDateTi

; 1240 : 				m_ctrlXDateTime1.SetTime(&stime);	

  00529	8d 45 b0	 lea	 eax, DWORD PTR _stime$4[ebp]
  0052c	50		 push	 eax
  0052d	8d 8b 50 0a 00
	00		 lea	 ecx, DWORD PTR [ebx+2640]
$LN154@SetXDateTi:

; 1300 : }

  00533	e8 00 00 00 00	 call	 ?SetTime@CDateTimeCtrl@@QAEHPBVCTime@ATL@@@Z ; CDateTimeCtrl::SetTime
$LN11@SetXDateTi:
  00538	8d 4d c8	 lea	 ecx, DWORD PTR _strXValue$[ebp]
  0053b	ff 15 00 00 00
	00		 call	 DWORD PTR __imp_??1?$CStringT@DV?$StrTraitMFC_DLL@DV?$ChTraitsCRT@D@ATL@@@@@ATL@@QAE@XZ
  00541	8b 4d f4	 mov	 ecx, DWORD PTR __$EHRec$[ebp]
  00544	64 89 0d 00 00
	00 00		 mov	 DWORD PTR fs:0, ecx
  0054b	59		 pop	 ecx
  0054c	5f		 pop	 edi
  0054d	5e		 pop	 esi
  0054e	5b		 pop	 ebx
  0054f	8b 4d f0	 mov	 ecx, DWORD PTR __$ArrayPad$[ebp]
  00552	33 cd		 xor	 ecx, ebp
  00554	e8 00 00 00 00	 call	 @__security_check_cookie@4
  00559	8b e5		 mov	 esp, ebp
  0055b	5d		 pop	 ebp
  0055c	c2 0c 00	 ret	 12			; 0000000cH
$LN7@SetXDateTi:

; 1241 : 			else if(nIndex == 1)

  0055f	83 ff 01	 cmp	 edi, 1
  00562	75 0c		 jne	 SHORT $LN9@SetXDateTi

; 1242 : 				m_ctrlXDateTime2.SetTime(&stime);	

  00564	8d 45 b0	 lea	 eax, DWORD PTR _stime$4[ebp]
  00567	50		 push	 eax
  00568	8d 8b d0 0a 00
	00		 lea	 ecx, DWORD PTR [ebx+2768]
  0056e	eb c3		 jmp	 SHORT $LN154@SetXDateTi
$LN9@SetXDateTi:

; 1243 : 			else if(nIndex == 2)

  00570	83 ff 02	 cmp	 edi, 2
  00573	75 c3		 jne	 SHORT $LN11@SetXDateTi

; 1244 : 				m_ctrlXDateTime3.SetTime(&stime);	

  00575	8d 45 b0	 lea	 eax, DWORD PTR _stime$4[ebp]
  00578	50		 push	 eax
  00579	8d 8b 50 0b 00
	00		 lea	 ecx, DWORD PTR [ebx+2896]
  0057f	eb b2		 jmp	 SHORT $LN154@SetXDateTi
$LN108@SetXDateTi:
; File C:\Program Files (x86)\Microsoft Visual Studio\2019\Community\VC\Tools\MSVC\14.29.30133\atlmfc\include\atltime.h

; 435  : 	ATLENSURE( nDay >= 1 && nDay <= 31 );

  00581	68 05 40 00 80	 push	 -2147467259		; 80004005H
  00586	e8 00 00 00 00	 call	 ?AtlThrowImpl@ATL@@YGXJ@Z ; ATL::AtlThrowImpl
$LN156@SetXDateTi:

; 455  : 	{
; 456  : 		AtlThrow(E_INVALIDARG);

  0058b	68 57 00 07 80	 push	 -2147024809		; 80070057H
  00590	e8 00 00 00 00	 call	 ?AtlThrowImpl@ATL@@YGXJ@Z ; ATL::AtlThrowImpl
$LN151@SetXDateTi:
  00595	cc		 int	 3
_TEXT	ENDS
;	COMDAT text$x
text$x	SEGMENT
__unwindfunclet$?SetXDateTime@CDlgFiboSet@@IAEXNH@Z$0:
  00000	8d 4d c8	 lea	 ecx, DWORD PTR _strXValue$[ebp]
  00003	ff 25 00 00 00
	00		 jmp	 DWORD PTR __imp_??1?$CStringT@DV?$StrTraitMFC_DLL@DV?$ChTraitsCRT@D@ATL@@@@@ATL@@QAE@XZ
__unwindfunclet$?SetXDateTime@CDlgFiboSet@@IAEXNH@Z$4:
  00009	8d 4d b8	 lea	 ecx, DWORD PTR _strFormat$7[ebp]
  0000c	ff 25 00 00 00
	00		 jmp	 DWORD PTR __imp_??1?$CStringT@DV?$StrTraitMFC_DLL@DV?$ChTraitsCRT@D@ATL@@@@@ATL@@QAE@XZ
__unwindfunclet$?SetXDateTime@CDlgFiboSet@@IAEXNH@Z$5:
  00012	8d 4d c0	 lea	 ecx, DWORD PTR $T17[ebp]
  00015	ff 25 00 00 00
	00		 jmp	 DWORD PTR __imp_??1?$CStringT@DV?$StrTraitMFC_DLL@DV?$ChTraitsCRT@D@ATL@@@@@ATL@@QAE@XZ
__unwindfunclet$?SetXDateTime@CDlgFiboSet@@IAEXNH@Z$6:
  0001b	8d 4d c4	 lea	 ecx, DWORD PTR $T22[ebp]
  0001e	ff 25 00 00 00
	00		 jmp	 DWORD PTR __imp_??1?$CStringT@DV?$StrTraitMFC_DLL@DV?$ChTraitsCRT@D@ATL@@@@@ATL@@QAE@XZ
__unwindfunclet$?SetXDateTime@CDlgFiboSet@@IAEXNH@Z$7:
  00024	8d 4d b4	 lea	 ecx, DWORD PTR $T6[ebp]
  00027	ff 25 00 00 00
	00		 jmp	 DWORD PTR __imp_??1?$CStringT@DV?$StrTraitMFC_DLL@DV?$ChTraitsCRT@D@ATL@@@@@ATL@@QAE@XZ
__unwindfunclet$?SetXDateTime@CDlgFiboSet@@IAEXNH@Z$8:
  0002d	8d 4d c4	 lea	 ecx, DWORD PTR $T21[ebp]
  00030	ff 25 00 00 00
	00		 jmp	 DWORD PTR __imp_??1?$CStringT@DV?$StrTraitMFC_DLL@DV?$ChTraitsCRT@D@ATL@@@@@ATL@@QAE@XZ
__unwindfunclet$?SetXDateTime@CDlgFiboSet@@IAEXNH@Z$9:
  00036	8d 4d b4	 lea	 ecx, DWORD PTR $T5[ebp]
  00039	ff 25 00 00 00
	00		 jmp	 DWORD PTR __imp_??1?$CStringT@DV?$StrTraitMFC_DLL@DV?$ChTraitsCRT@D@ATL@@@@@ATL@@QAE@XZ
__unwindfunclet$?SetXDateTime@CDlgFiboSet@@IAEXNH@Z$10:
  0003f	8d 4d c0	 lea	 ecx, DWORD PTR $T16[ebp]
  00042	ff 25 00 00 00
	00		 jmp	 DWORD PTR __imp_??1?$CStringT@DV?$StrTraitMFC_DLL@DV?$ChTraitsCRT@D@ATL@@@@@ATL@@QAE@XZ
__unwindfunclet$?SetXDateTime@CDlgFiboSet@@IAEXNH@Z$20:
  00048	8b 45 c0	 mov	 eax, DWORD PTR $T13[ebp]
  0004b	83 e0 01	 and	 eax, 1
  0004e	0f 84 0d 00 00
	00		 je	 $LN128@SetXDateTi
  00054	83 65 c0 fe	 and	 DWORD PTR $T13[ebp], -2	; fffffffeH
  00058	8d 4d c4	 lea	 ecx, DWORD PTR $T20[ebp]
  0005b	ff 25 00 00 00
	00		 jmp	 DWORD PTR __imp_??1?$CStringT@DV?$StrTraitMFC_DLL@DV?$ChTraitsCRT@D@ATL@@@@@ATL@@QAE@XZ
$LN128@SetXDateTi:
  00061	c3		 ret	 0
__unwindfunclet$?SetXDateTime@CDlgFiboSet@@IAEXNH@Z$12:
  00062	8d 4d bc	 lea	 ecx, DWORD PTR $T9[ebp]
  00065	ff 25 00 00 00
	00		 jmp	 DWORD PTR __imp_??1?$CStringT@DV?$StrTraitMFC_DLL@DV?$ChTraitsCRT@D@ATL@@@@@ATL@@QAE@XZ
__unwindfunclet$?SetXDateTime@CDlgFiboSet@@IAEXNH@Z$13:
  0006b	8d 4d ac	 lea	 ecx, DWORD PTR $T3[ebp]
  0006e	ff 25 00 00 00
	00		 jmp	 DWORD PTR __imp_??1?$CStringT@DV?$StrTraitMFC_DLL@DV?$ChTraitsCRT@D@ATL@@@@@ATL@@QAE@XZ
__unwindfunclet$?SetXDateTime@CDlgFiboSet@@IAEXNH@Z$14:
  00074	8d 4d c4	 lea	 ecx, DWORD PTR $T19[ebp]
  00077	ff 25 00 00 00
	00		 jmp	 DWORD PTR __imp_??1?$CStringT@DV?$StrTraitMFC_DLL@DV?$ChTraitsCRT@D@ATL@@@@@ATL@@QAE@XZ
__unwindfunclet$?SetXDateTime@CDlgFiboSet@@IAEXNH@Z$15:
  0007d	8d 4d c0	 lea	 ecx, DWORD PTR $T15[ebp]
  00080	ff 25 00 00 00
	00		 jmp	 DWORD PTR __imp_??1?$CStringT@DV?$StrTraitMFC_DLL@DV?$ChTraitsCRT@D@ATL@@@@@ATL@@QAE@XZ
__unwindfunclet$?SetXDateTime@CDlgFiboSet@@IAEXNH@Z$16:
  00086	8d 4d c4	 lea	 ecx, DWORD PTR $T18[ebp]
  00089	ff 25 00 00 00
	00		 jmp	 DWORD PTR __imp_??1?$CStringT@DV?$StrTraitMFC_DLL@DV?$ChTraitsCRT@D@ATL@@@@@ATL@@QAE@XZ
__unwindfunclet$?SetXDateTime@CDlgFiboSet@@IAEXNH@Z$17:
  0008f	8d 4d c0	 lea	 ecx, DWORD PTR $T14[ebp]
  00092	ff 25 00 00 00
	00		 jmp	 DWORD PTR __imp_??1?$CStringT@DV?$StrTraitMFC_DLL@DV?$ChTraitsCRT@D@ATL@@@@@ATL@@QAE@XZ
__unwindfunclet$?SetXDateTime@CDlgFiboSet@@IAEXNH@Z$18:
  00098	8d 4d ac	 lea	 ecx, DWORD PTR $T2[ebp]
  0009b	ff 25 00 00 00
	00		 jmp	 DWORD PTR __imp_??1?$CStringT@DV?$StrTraitMFC_DLL@DV?$ChTraitsCRT@D@ATL@@@@@ATL@@QAE@XZ
__unwindfunclet$?SetXDateTime@CDlgFiboSet@@IAEXNH@Z$19:
  000a1	8d 4d bc	 lea	 ecx, DWORD PTR $T8[ebp]
  000a4	ff 25 00 00 00
	00		 jmp	 DWORD PTR __imp_??1?$CStringT@DV?$StrTraitMFC_DLL@DV?$ChTraitsCRT@D@ATL@@@@@ATL@@QAE@XZ
  000aa	cc		 int	 3
  000ab	cc		 int	 3
  000ac	cc		 int	 3
  000ad	cc		 int	 3
  000ae	cc		 int	 3
__ehhandler$?SetXDateTime@CDlgFiboSet@@IAEXNH@Z:
  000af	90		 npad	 1
  000b0	90		 npad	 1
  000b1	8b 54 24 08	 mov	 edx, DWORD PTR [esp+8]
  000b5	8d 42 0c	 lea	 eax, DWORD PTR [edx+12]
  000b8	8b 4a a8	 mov	 ecx, DWORD PTR [edx-88]
  000bb	33 c8		 xor	 ecx, eax
  000bd	e8 00 00 00 00	 call	 @__security_check_cookie@4
  000c2	8b 4a fc	 mov	 ecx, DWORD PTR [edx-4]
  000c5	33 c8		 xor	 ecx, eax
  000c7	e8 00 00 00 00	 call	 @__security_check_cookie@4
  000cc	b8 00 00 00 00	 mov	 eax, OFFSET __ehfuncinfo$?SetXDateTime@CDlgFiboSet@@IAEXNH@Z
  000d1	e9 00 00 00 00	 jmp	 ___CxxFrameHandler3
text$x	ENDS
?SetXDateTime@CDlgFiboSet@@IAEXNH@Z ENDP		; CDlgFiboSet::SetXDateTime
; Function compile flags: /Ogtp
; File D:\git\src\IBK\IBK_DRFN\ProjSrc\SrcChartEx\ChartAddIn\ChartAnalysisToolAddIn\AnalysisTool\DlgFiboSet.cpp
; File C:\Program Files (x86)\Microsoft Visual Studio\2019\Community\VC\Tools\MSVC\14.29.30133\atlmfc\include\atlsimpstr.h
; File D:\git\src\IBK\IBK_DRFN\ProjSrc\SrcChartEx\ChartAddIn\ChartAnalysisToolAddIn\AnalysisTool\DlgFiboSet.cpp
; File C:\Program Files (x86)\Microsoft Visual Studio\2019\Community\VC\Tools\MSVC\14.29.30133\atlmfc\include\atlsimpstr.h
; File D:\git\src\IBK\IBK_DRFN\ProjSrc\SrcChartEx\ChartAddIn\ChartAnalysisToolAddIn\AnalysisTool\DlgFiboSet.cpp
;	COMDAT ?SetYValue@CDlgFiboSet@@IAEXNH@Z
_TEXT	SEGMENT
_strYValue$ = -16					; size = 4
__$EHRec$ = -12						; size = 12
_dYValue$ = 8						; size = 8
_nIndex$ = 16						; size = 4
?SetYValue@CDlgFiboSet@@IAEXNH@Z PROC			; CDlgFiboSet::SetYValue, COMDAT
; _this$ = ecx

; 1303 : {

  00000	55		 push	 ebp
  00001	8b ec		 mov	 ebp, esp
  00003	6a ff		 push	 -1
  00005	68 00 00 00 00	 push	 __ehhandler$?SetYValue@CDlgFiboSet@@IAEXNH@Z
  0000a	64 a1 00 00 00
	00		 mov	 eax, DWORD PTR fs:0
  00010	50		 push	 eax
  00011	51		 push	 ecx
  00012	56		 push	 esi
  00013	a1 00 00 00 00	 mov	 eax, DWORD PTR ___security_cookie
  00018	33 c5		 xor	 eax, ebp
  0001a	50		 push	 eax
  0001b	8d 45 f4	 lea	 eax, DWORD PTR __$EHRec$[ebp]
  0001e	64 a3 00 00 00
	00		 mov	 DWORD PTR fs:0, eax
  00024	8b f1		 mov	 esi, ecx

; 1304 : 	CString strYValue;

  00026	8d 4d f0	 lea	 ecx, DWORD PTR _strYValue$[ebp]
  00029	ff 15 00 00 00
	00		 call	 DWORD PTR __imp_??0?$CStringT@DV?$StrTraitMFC_DLL@DV?$ChTraitsCRT@D@ATL@@@@@ATL@@QAE@XZ

; 1307 : 	strYValue.Format(_T("%f"),dYValue);

  0002f	f2 0f 10 45 08	 movsd	 xmm0, QWORD PTR _dYValue$[ebp]
  00034	8d 45 f0	 lea	 eax, DWORD PTR _strYValue$[ebp]
  00037	83 ec 08	 sub	 esp, 8
  0003a	c7 45 fc 00 00
	00 00		 mov	 DWORD PTR __$EHRec$[ebp+8], 0
  00041	f2 0f 11 04 24	 movsd	 QWORD PTR [esp], xmm0
  00046	68 00 00 00 00	 push	 OFFSET ??_C@_02NJPGOMH@?$CFf@
  0004b	50		 push	 eax
  0004c	ff 15 00 00 00
	00		 call	 DWORD PTR __imp_?Format@?$CStringT@DV?$StrTraitMFC_DLL@DV?$ChTraitsCRT@D@ATL@@@@@ATL@@QAAXPBDZZ
; File C:\Program Files (x86)\Microsoft Visual Studio\2019\Community\VC\Tools\MSVC\14.29.30133\atlmfc\include\atlsimpstr.h

; 533  : 		return( GetLength() == 0 );

  00052	8b 45 f0	 mov	 eax, DWORD PTR _strYValue$[ebp]
; File D:\git\src\IBK\IBK_DRFN\ProjSrc\SrcChartEx\ChartAddIn\ChartAnalysisToolAddIn\AnalysisTool\DlgFiboSet.cpp

; 1307 : 	strYValue.Format(_T("%f"),dYValue);

  00055	83 c4 10	 add	 esp, 16			; 00000010H
; File C:\Program Files (x86)\Microsoft Visual Studio\2019\Community\VC\Tools\MSVC\14.29.30133\atlmfc\include\atlsimpstr.h

; 533  : 		return( GetLength() == 0 );

  00058	83 78 f4 00	 cmp	 DWORD PTR [eax-12], 0
; File D:\git\src\IBK\IBK_DRFN\ProjSrc\SrcChartEx\ChartAddIn\ChartAnalysisToolAddIn\AnalysisTool\DlgFiboSet.cpp

; 1308 : 	if(strYValue.IsEmpty() == FALSE)

  0005c	74 2d		 je	 SHORT $LN7@SetYValue

; 1309 : 	{	
; 1310 : 		if(nIndex == 0)

  0005e	8b 4d 10	 mov	 ecx, DWORD PTR _nIndex$[ebp]
  00061	85 c9		 test	 ecx, ecx
  00063	75 08		 jne	 SHORT $LN3@SetYValue

; 1311 : 			m_ctrlEditValue1.SetWindowText(strYValue);	

  00065	8d 8e d0 08 00
	00		 lea	 ecx, DWORD PTR [esi+2256]
  0006b	eb 18		 jmp	 SHORT $LN23@SetYValue
$LN3@SetYValue:

; 1312 : 		else if(nIndex == 1)

  0006d	83 f9 01	 cmp	 ecx, 1
  00070	75 08		 jne	 SHORT $LN5@SetYValue

; 1313 : 			m_ctrlEditValue2.SetWindowText(strYValue);	

  00072	8d 8e 50 09 00
	00		 lea	 ecx, DWORD PTR [esi+2384]
  00078	eb 0b		 jmp	 SHORT $LN23@SetYValue
$LN5@SetYValue:

; 1314 : 		else if(nIndex == 2)

  0007a	83 f9 02	 cmp	 ecx, 2
  0007d	75 0c		 jne	 SHORT $LN7@SetYValue

; 1315 : 			m_ctrlEditValue3.SetWindowText(strYValue);	

  0007f	8d 8e d0 09 00
	00		 lea	 ecx, DWORD PTR [esi+2512]
$LN23@SetYValue:

; 1316 : 	}
; 1317 : }

  00085	50		 push	 eax
  00086	e8 00 00 00 00	 call	 ?SetWindowTextA@CWnd@@QAEXPBD@Z ; CWnd::SetWindowTextA
$LN7@SetYValue:
  0008b	8d 4d f0	 lea	 ecx, DWORD PTR _strYValue$[ebp]
  0008e	ff 15 00 00 00
	00		 call	 DWORD PTR __imp_??1?$CStringT@DV?$StrTraitMFC_DLL@DV?$ChTraitsCRT@D@ATL@@@@@ATL@@QAE@XZ
  00094	8b 4d f4	 mov	 ecx, DWORD PTR __$EHRec$[ebp]
  00097	64 89 0d 00 00
	00 00		 mov	 DWORD PTR fs:0, ecx
  0009e	59		 pop	 ecx
  0009f	5e		 pop	 esi
  000a0	8b e5		 mov	 esp, ebp
  000a2	5d		 pop	 ebp
  000a3	c2 0c 00	 ret	 12			; 0000000cH
_TEXT	ENDS
;	COMDAT text$x
text$x	SEGMENT
__unwindfunclet$?SetYValue@CDlgFiboSet@@IAEXNH@Z$0:
  00000	8d 4d f0	 lea	 ecx, DWORD PTR _strYValue$[ebp]
  00003	ff 25 00 00 00
	00		 jmp	 DWORD PTR __imp_??1?$CStringT@DV?$StrTraitMFC_DLL@DV?$ChTraitsCRT@D@ATL@@@@@ATL@@QAE@XZ
  00009	cc		 int	 3
  0000a	cc		 int	 3
  0000b	cc		 int	 3
  0000c	cc		 int	 3
  0000d	cc		 int	 3
__ehhandler$?SetYValue@CDlgFiboSet@@IAEXNH@Z:
  0000e	90		 npad	 1
  0000f	90		 npad	 1
  00010	8b 54 24 08	 mov	 edx, DWORD PTR [esp+8]
  00014	8d 42 0c	 lea	 eax, DWORD PTR [edx+12]
  00017	8b 4a f4	 mov	 ecx, DWORD PTR [edx-12]
  0001a	33 c8		 xor	 ecx, eax
  0001c	e8 00 00 00 00	 call	 @__security_check_cookie@4
  00021	b8 00 00 00 00	 mov	 eax, OFFSET __ehfuncinfo$?SetYValue@CDlgFiboSet@@IAEXNH@Z
  00026	e9 00 00 00 00	 jmp	 ___CxxFrameHandler3
text$x	ENDS
?SetYValue@CDlgFiboSet@@IAEXNH@Z ENDP			; CDlgFiboSet::SetYValue
; Function compile flags: /Ogtp
; File D:\git\src\IBK\IBK_DRFN\ProjSrc\SrcChartEx\ChartAddIn\ChartAnalysisToolAddIn\AnalysisTool\DlgFiboSet.cpp
;	COMDAT ?SetInitTextPosition@CDlgFiboSet@@IAEXPAVCTextPosition@@@Z
_TEXT	SEGMENT
_pTextPosition$ = 8					; size = 4
?SetInitTextPosition@CDlgFiboSet@@IAEXPAVCTextPosition@@@Z PROC ; CDlgFiboSet::SetInitTextPosition, COMDAT
; _this$ = ecx

; 982  : {

  00000	55		 push	 ebp
  00001	8b ec		 mov	 ebp, esp

; 983  : 	if(m_nElementType == CToolEnumData::Cross_Line)

  00003	8b 81 a0 0c 00
	00		 mov	 eax, DWORD PTR [ecx+3232]
  00009	83 f8 01	 cmp	 eax, 1
  0000c	75 39		 jne	 SHORT $LN2@SetInitTex

; 984  : 	{
; 985  : 		m_pTextPosition = NULL;
; 986  : 		m_pTextHPosition = NULL;
; 987  : 		m_pTextVPosition = NULL;
; 988  : 		
; 989  : 		m_pTextHVPosition = (CTextHorzVertPosition *)pTextPosition;

  0000e	8b 55 08	 mov	 edx, DWORD PTR _pTextPosition$[ebp]

; 990  : 		m_baseTextHVPosition.Set(pTextPosition);

  00011	8b 81 e8 0c 00
	00		 mov	 eax, DWORD PTR [ecx+3304]
  00017	c7 81 b4 0c 00
	00 00 00 00 00	 mov	 DWORD PTR [ecx+3252], 0
  00021	c7 81 b8 0c 00
	00 00 00 00 00	 mov	 DWORD PTR [ecx+3256], 0
  0002b	c7 81 bc 0c 00
	00 00 00 00 00	 mov	 DWORD PTR [ecx+3260], 0
  00035	89 91 c0 0c 00
	00		 mov	 DWORD PTR [ecx+3264], edx
  0003b	81 c1 e8 0c 00
	00		 add	 ecx, 3304		; 00000ce8H
  00041	89 55 08	 mov	 DWORD PTR _pTextPosition$[ebp], edx

; 1039 : 	}
; 1040 : }

  00044	5d		 pop	 ebp

; 990  : 		m_baseTextHVPosition.Set(pTextPosition);

  00045	ff 20		 jmp	 DWORD PTR [eax]
$LN2@SetInitTex:

; 991  : 	}
; 992  : 	else if(m_nElementType == CToolEnumData::Vert_Line)

  00047	83 f8 03	 cmp	 eax, 3
  0004a	75 39		 jne	 SHORT $LN4@SetInitTex

; 993  : 	{
; 994  : 		m_pTextPosition = NULL;
; 995  : 		m_pTextHPosition = NULL;
; 996  : 		m_pTextHVPosition = NULL;
; 997  : 		
; 998  : 		m_pTextVPosition = (CTextVertPosition *)pTextPosition;

  0004c	8b 55 08	 mov	 edx, DWORD PTR _pTextPosition$[ebp]

; 999  : 		m_baseTextVPosition.Set(pTextPosition);

  0004f	8b 81 dc 0c 00
	00		 mov	 eax, DWORD PTR [ecx+3292]
  00055	c7 81 b4 0c 00
	00 00 00 00 00	 mov	 DWORD PTR [ecx+3252], 0
  0005f	c7 81 b8 0c 00
	00 00 00 00 00	 mov	 DWORD PTR [ecx+3256], 0
  00069	c7 81 c0 0c 00
	00 00 00 00 00	 mov	 DWORD PTR [ecx+3264], 0
  00073	89 91 bc 0c 00
	00		 mov	 DWORD PTR [ecx+3260], edx
  00079	81 c1 dc 0c 00
	00		 add	 ecx, 3292		; 00000cdcH
  0007f	89 55 08	 mov	 DWORD PTR _pTextPosition$[ebp], edx

; 1039 : 	}
; 1040 : }

  00082	5d		 pop	 ebp

; 999  : 		m_baseTextVPosition.Set(pTextPosition);

  00083	ff 20		 jmp	 DWORD PTR [eax]
$LN4@SetInitTex:

; 1000 : 	}
; 1001 : 	else if(m_nElementType == CToolEnumData::Fibo_Retrace	||
; 1002 : 			m_nElementType == CToolEnumData::Fibo_Semicircle	||
; 1003 : 			m_nElementType == CToolEnumData::Fibo_Circle	||
; 1004 : 			m_nElementType == CToolEnumData::Fibo_Fan_Line	||
; 1005 : 			m_nElementType == CToolEnumData::Fibo_Time	||	// 2008.08.20   Text  
; 1006 : 			m_nElementType == CToolEnumData::Angle_Line		||
; 1007 : 			m_nElementType == CToolEnumData::Candle_Line	||
; 1008 : 			m_nElementType == CToolEnumData::Gann_Fan1	||
; 1009 : 			m_nElementType == CToolEnumData::Gann_Fan2	||
; 1010 : 			m_nElementType == CToolEnumData::Gann_Fan3	||

  00085	83 f8 0b	 cmp	 eax, 11			; 0000000bH
  00088	0f 84 d4 00 00
	00		 je	 $LN8@SetInitTex
  0008e	83 f8 08	 cmp	 eax, 8
  00091	0f 84 cb 00 00
	00		 je	 $LN8@SetInitTex
  00097	83 f8 09	 cmp	 eax, 9
  0009a	0f 84 c2 00 00
	00		 je	 $LN8@SetInitTex
  000a0	83 f8 0a	 cmp	 eax, 10			; 0000000aH
  000a3	0f 84 b9 00 00
	00		 je	 $LN8@SetInitTex
  000a9	83 f8 0c	 cmp	 eax, 12			; 0000000cH
  000ac	0f 84 b0 00 00
	00		 je	 $LN8@SetInitTex
  000b2	83 f8 1d	 cmp	 eax, 29			; 0000001dH
  000b5	0f 84 a7 00 00
	00		 je	 $LN8@SetInitTex
  000bb	83 f8 1e	 cmp	 eax, 30			; 0000001eH
  000be	0f 84 9e 00 00
	00		 je	 $LN8@SetInitTex
  000c4	83 f8 0f	 cmp	 eax, 15			; 0000000fH
  000c7	0f 84 95 00 00
	00		 je	 $LN8@SetInitTex
  000cd	83 f8 10	 cmp	 eax, 16			; 00000010H
  000d0	0f 84 8c 00 00
	00		 je	 $LN8@SetInitTex
  000d6	83 f8 11	 cmp	 eax, 17			; 00000011H
  000d9	0f 84 83 00 00
	00		 je	 $LN8@SetInitTex
  000df	83 f8 12	 cmp	 eax, 18			; 00000012H
  000e2	74 7e		 je	 SHORT $LN8@SetInitTex

; 1019 : 	}
; 1020 : 	else if(m_nElementType == CToolEnumData::Line		||
; 1021 : 			m_nElementType == CToolEnumData::Horz_Line	||
; 1022 : 			m_nElementType == CToolEnumData::Trisection	||
; 1023 : 			m_nElementType == CToolEnumData::Quadrisect	||

  000e4	83 f8 05	 cmp	 eax, 5
  000e7	74 40		 je	 SHORT $LN11@SetInitTex
  000e9	83 f8 04	 cmp	 eax, 4
  000ec	74 3b		 je	 SHORT $LN11@SetInitTex
  000ee	83 f8 06	 cmp	 eax, 6
  000f1	74 36		 je	 SHORT $LN11@SetInitTex
  000f3	83 f8 07	 cmp	 eax, 7
  000f6	74 31		 je	 SHORT $LN11@SetInitTex
  000f8	83 f8 21	 cmp	 eax, 33			; 00000021H
  000fb	74 2c		 je	 SHORT $LN11@SetInitTex

; 1032 : 	}
; 1033 : 	else		//NoText
; 1034 : 	{
; 1035 : 		m_pTextPosition = NULL;

  000fd	c7 81 b4 0c 00
	00 00 00 00 00	 mov	 DWORD PTR [ecx+3252], 0

; 1036 : 		m_pTextVPosition = NULL;

  00107	c7 81 bc 0c 00
	00 00 00 00 00	 mov	 DWORD PTR [ecx+3260], 0

; 1037 : 		m_pTextHPosition = NULL;

  00111	c7 81 b8 0c 00
	00 00 00 00 00	 mov	 DWORD PTR [ecx+3256], 0

; 1038 : 		m_pTextHVPosition = NULL;

  0011b	c7 81 c0 0c 00
	00 00 00 00 00	 mov	 DWORD PTR [ecx+3264], 0

; 1039 : 	}
; 1040 : }

  00125	5d		 pop	 ebp
  00126	c2 04 00	 ret	 4
$LN11@SetInitTex:

; 1024 : 			m_nElementType == CToolEnumData::Period_Summary)
; 1025 : 	{
; 1026 : 		m_pTextPosition = NULL;
; 1027 : 		m_pTextVPosition = NULL;
; 1028 : 		m_pTextHVPosition = NULL;
; 1029 : 
; 1030 : 		m_pTextHPosition = (CTextHorzPosition *)pTextPosition;

  00129	8b 55 08	 mov	 edx, DWORD PTR _pTextPosition$[ebp]

; 1031 : 		m_baseTextHPosition.Set(pTextPosition);

  0012c	8b 81 d0 0c 00
	00		 mov	 eax, DWORD PTR [ecx+3280]
  00132	c7 81 b4 0c 00
	00 00 00 00 00	 mov	 DWORD PTR [ecx+3252], 0
  0013c	c7 81 bc 0c 00
	00 00 00 00 00	 mov	 DWORD PTR [ecx+3260], 0
  00146	c7 81 c0 0c 00
	00 00 00 00 00	 mov	 DWORD PTR [ecx+3264], 0
  00150	89 91 b8 0c 00
	00		 mov	 DWORD PTR [ecx+3256], edx
  00156	81 c1 d0 0c 00
	00		 add	 ecx, 3280		; 00000cd0H
  0015c	89 55 08	 mov	 DWORD PTR _pTextPosition$[ebp], edx

; 1039 : 	}
; 1040 : }

  0015f	5d		 pop	 ebp

; 1031 : 		m_baseTextHPosition.Set(pTextPosition);

  00160	ff 20		 jmp	 DWORD PTR [eax]
$LN8@SetInitTex:

; 1011 : 			m_nElementType == CToolEnumData::Gann_Fan4)
; 1012 : 	{
; 1013 : 		m_pTextVPosition = NULL;
; 1014 : 		m_pTextHPosition = NULL;
; 1015 : 		m_pTextHVPosition = NULL;
; 1016 : 		
; 1017 : 		m_pTextPosition = (CTextShowPosition *)pTextPosition;

  00162	8b 55 08	 mov	 edx, DWORD PTR _pTextPosition$[ebp]

; 1018 : 		m_baseTextPosition.Set(pTextPosition);

  00165	8b 81 c4 0c 00
	00		 mov	 eax, DWORD PTR [ecx+3268]
  0016b	c7 81 bc 0c 00
	00 00 00 00 00	 mov	 DWORD PTR [ecx+3260], 0
  00175	c7 81 b8 0c 00
	00 00 00 00 00	 mov	 DWORD PTR [ecx+3256], 0
  0017f	c7 81 c0 0c 00
	00 00 00 00 00	 mov	 DWORD PTR [ecx+3264], 0
  00189	89 91 b4 0c 00
	00		 mov	 DWORD PTR [ecx+3252], edx
  0018f	81 c1 c4 0c 00
	00		 add	 ecx, 3268		; 00000cc4H
  00195	89 55 08	 mov	 DWORD PTR _pTextPosition$[ebp], edx

; 1039 : 	}
; 1040 : }

  00198	5d		 pop	 ebp

; 1018 : 		m_baseTextPosition.Set(pTextPosition);

  00199	ff 20		 jmp	 DWORD PTR [eax]
?SetInitTextPosition@CDlgFiboSet@@IAEXPAVCTextPosition@@@Z ENDP ; CDlgFiboSet::SetInitTextPosition
_TEXT	ENDS
; Function compile flags: /Ogtp
; File D:\git\src\IBK\IBK_DRFN\ProjSrc\SrcChartEx\ChartAddIn\ChartAnalysisToolAddIn\AnalysisTool\DlgFiboSet.cpp
;	COMDAT ?SaveData@CDlgFiboSet@@IAEXXZ
_TEXT	SEGMENT
_finder$ = -84						; size = 28
_file$2 = -56						; size = 20
_strName$ = -36						; size = 4
$T3 = -32						; size = 4
_strSection$ = -28					; size = 4
_strFileName$ = -24					; size = 4
_strKey$ = -20						; size = 4
_strData$ = -16						; size = 4
__$EHRec$ = -12						; size = 12
?SaveData@CDlgFiboSet@@IAEXXZ PROC			; CDlgFiboSet::SaveData, COMDAT
; _this$ = ecx

; 244  : {

  00000	55		 push	 ebp
  00001	8b ec		 mov	 ebp, esp
  00003	6a ff		 push	 -1
  00005	68 00 00 00 00	 push	 __ehhandler$?SaveData@CDlgFiboSet@@IAEXXZ
  0000a	64 a1 00 00 00
	00		 mov	 eax, DWORD PTR fs:0
  00010	50		 push	 eax
  00011	83 ec 48	 sub	 esp, 72			; 00000048H
  00014	53		 push	 ebx
  00015	56		 push	 esi
  00016	57		 push	 edi
  00017	a1 00 00 00 00	 mov	 eax, DWORD PTR ___security_cookie
  0001c	33 c5		 xor	 eax, ebp
  0001e	50		 push	 eax
  0001f	8d 45 f4	 lea	 eax, DWORD PTR __$EHRec$[ebp]
  00022	64 a3 00 00 00
	00		 mov	 DWORD PTR fs:0, eax
  00028	8b f9		 mov	 edi, ecx

; 245  : 	CString strFileName;

  0002a	8d 4d e8	 lea	 ecx, DWORD PTR _strFileName$[ebp]
  0002d	ff 15 00 00 00
	00		 call	 DWORD PTR __imp_??0?$CStringT@DV?$StrTraitMFC_DLL@DV?$ChTraitsCRT@D@ATL@@@@@ATL@@QAE@XZ

; 246  : 	strFileName.Format("%s%s",m_strUserPath,G_ANALYSIS_PROPERTY_INFO);

  00033	8b 1d 00 00 00
	00		 mov	 ebx, DWORD PTR __imp_?Format@?$CStringT@DV?$StrTraitMFC_DLL@DV?$ChTraitsCRT@D@ATL@@@@@ATL@@QAAXPBDZZ
  00039	8d 45 e8	 lea	 eax, DWORD PTR _strFileName$[ebp]
  0003c	68 00 00 00 00	 push	 OFFSET ??_C@_0BF@BMLEKMON@AnalysisPropInfo?4ans@
  00041	ff b7 ec 0b 00
	00		 push	 DWORD PTR [edi+3052]
  00047	c7 45 fc 00 00
	00 00		 mov	 DWORD PTR __$EHRec$[ebp+8], 0
  0004e	68 00 00 00 00	 push	 OFFSET ??_C@_04HDOCAJNK@?$CFs?$CFs@
  00053	50		 push	 eax
  00054	ff d3		 call	 ebx
  00056	83 c4 10	 add	 esp, 16			; 00000010H

; 247  : 	CFileFind finder;

  00059	8d 4d ac	 lea	 ecx, DWORD PTR _finder$[ebp]
  0005c	e8 00 00 00 00	 call	 ??0CFileFind@@QAE@XZ	; CFileFind::CFileFind

; 248  : 	BOOL bFind = finder.FindFile(strFileName);

  00061	6a 00		 push	 0
  00063	ff 75 e8	 push	 DWORD PTR _strFileName$[ebp]
  00066	8d 4d ac	 lea	 ecx, DWORD PTR _finder$[ebp]
  00069	c6 45 fc 01	 mov	 BYTE PTR __$EHRec$[ebp+8], 1
  0006d	e8 00 00 00 00	 call	 ?FindFile@CFileFind@@UAEHPBDK@Z ; CFileFind::FindFile

; 249  : 	finder.Close();

  00072	8d 4d ac	 lea	 ecx, DWORD PTR _finder$[ebp]
  00075	8b f0		 mov	 esi, eax
  00077	e8 00 00 00 00	 call	 ?Close@CFileFind@@QAEXXZ ; CFileFind::Close

; 250  : 	
; 251  : 	if(bFind != TRUE)

  0007c	83 fe 01	 cmp	 esi, 1
  0007f	74 3c		 je	 SHORT $LN2@SaveData

; 252  : 	{		
; 253  : 		CFile file;

  00081	8d 4d c8	 lea	 ecx, DWORD PTR _file$2[ebp]
  00084	e8 00 00 00 00	 call	 ??0CFile@@QAE@XZ	; CFile::CFile

; 254  : 		if(file.Open(strFileName,CFile::modeCreate|CFile::modeReadWrite) == FALSE)

  00089	6a 00		 push	 0
  0008b	68 02 10 00 00	 push	 4098			; 00001002H
  00090	ff 75 e8	 push	 DWORD PTR _strFileName$[ebp]
  00093	8d 4d c8	 lea	 ecx, DWORD PTR _file$2[ebp]
  00096	c6 45 fc 02	 mov	 BYTE PTR __$EHRec$[ebp+8], 2
  0009a	e8 00 00 00 00	 call	 ?Open@CFile@@UAEHPBDIPAVCFileException@@@Z ; CFile::Open
  0009f	8d 4d c8	 lea	 ecx, DWORD PTR _file$2[ebp]
  000a2	85 c0		 test	 eax, eax
  000a4	75 0a		 jne	 SHORT $LN3@SaveData

; 255  : 			return;	

  000a6	e8 00 00 00 00	 call	 ??1CFile@@UAE@XZ	; CFile::~CFile
  000ab	e9 25 03 00 00	 jmp	 $LN13@SaveData
$LN3@SaveData:

; 256  : 		file.Close();

  000b0	e8 00 00 00 00	 call	 ?Close@CFile@@UAEXXZ	; CFile::Close

; 257  : 	}

  000b5	8d 4d c8	 lea	 ecx, DWORD PTR _file$2[ebp]
  000b8	e8 00 00 00 00	 call	 ??1CFile@@UAE@XZ	; CFile::~CFile
$LN2@SaveData:

; 258  : 
; 259  : 	CString strSection,strKey,strData,strName;	

  000bd	8d 4d e4	 lea	 ecx, DWORD PTR _strSection$[ebp]
  000c0	ff 15 00 00 00
	00		 call	 DWORD PTR __imp_??0?$CStringT@DV?$StrTraitMFC_DLL@DV?$ChTraitsCRT@D@ATL@@@@@ATL@@QAE@XZ
  000c6	8d 4d ec	 lea	 ecx, DWORD PTR _strKey$[ebp]
  000c9	ff 15 00 00 00
	00		 call	 DWORD PTR __imp_??0?$CStringT@DV?$StrTraitMFC_DLL@DV?$ChTraitsCRT@D@ATL@@@@@ATL@@QAE@XZ
  000cf	8d 4d f0	 lea	 ecx, DWORD PTR _strData$[ebp]
  000d2	ff 15 00 00 00
	00		 call	 DWORD PTR __imp_??0?$CStringT@DV?$StrTraitMFC_DLL@DV?$ChTraitsCRT@D@ATL@@@@@ATL@@QAE@XZ
  000d8	8d 4d dc	 lea	 ecx, DWORD PTR _strName$[ebp]
  000db	ff 15 00 00 00
	00		 call	 DWORD PTR __imp_??0?$CStringT@DV?$StrTraitMFC_DLL@DV?$ChTraitsCRT@D@ATL@@@@@ATL@@QAE@XZ

; 260  : 	strSection.Format("%d",(CToolEnumData::ElementType)m_nElementType);

  000e1	ff b7 a0 0c 00
	00		 push	 DWORD PTR [edi+3232]
  000e7	8d 45 e4	 lea	 eax, DWORD PTR _strSection$[ebp]
  000ea	c6 45 fc 06	 mov	 BYTE PTR __$EHRec$[ebp+8], 6
  000ee	68 00 00 00 00	 push	 OFFSET ??_C@_02DPKJAMEF@?$CFd@
  000f3	50		 push	 eax
  000f4	ff d3		 call	 ebx
  000f6	83 c4 0c	 add	 esp, 12			; 0000000cH

; 261  : 
; 262  : 	strKey = _T("TopText");

  000f9	8d 4d ec	 lea	 ecx, DWORD PTR _strKey$[ebp]
  000fc	68 00 00 00 00	 push	 OFFSET ??_C@_07ONLHAHEH@TopText@
  00101	ff 15 00 00 00
	00		 call	 DWORD PTR __imp_??4?$CStringT@DV?$StrTraitMFC_DLL@DV?$ChTraitsCRT@D@ATL@@@@@ATL@@QAEAAV01@PBD@Z

; 263  : 	strData.Format(_T("%d"),m_stAnalysisTool.nTopText);		

  00107	ff b7 34 0c 00
	00		 push	 DWORD PTR [edi+3124]
  0010d	8d 45 f0	 lea	 eax, DWORD PTR _strData$[ebp]
  00110	68 00 00 00 00	 push	 OFFSET ??_C@_02DPKJAMEF@?$CFd@
  00115	50		 push	 eax
  00116	ff d3		 call	 ebx

; 264  : 	WritePrivateProfileString(strSection,strKey,strData,strFileName);

  00118	8b 35 00 00 00
	00		 mov	 esi, DWORD PTR __imp__WritePrivateProfileStringA@16
  0011e	83 c4 0c	 add	 esp, 12			; 0000000cH
  00121	ff 75 e8	 push	 DWORD PTR _strFileName$[ebp]
  00124	ff 75 f0	 push	 DWORD PTR _strData$[ebp]
  00127	ff 75 ec	 push	 DWORD PTR _strKey$[ebp]
  0012a	ff 75 e4	 push	 DWORD PTR _strSection$[ebp]
  0012d	ff d6		 call	 esi

; 265  : 
; 266  : 	strKey = _T("BottomText");

  0012f	68 00 00 00 00	 push	 OFFSET ??_C@_0L@KGKLHHNL@BottomText@
  00134	8d 4d ec	 lea	 ecx, DWORD PTR _strKey$[ebp]
  00137	ff 15 00 00 00
	00		 call	 DWORD PTR __imp_??4?$CStringT@DV?$StrTraitMFC_DLL@DV?$ChTraitsCRT@D@ATL@@@@@ATL@@QAEAAV01@PBD@Z

; 267  : 	strData.Format(_T("%d"),m_stAnalysisTool.nBottomText);		

  0013d	ff b7 38 0c 00
	00		 push	 DWORD PTR [edi+3128]
  00143	8d 45 f0	 lea	 eax, DWORD PTR _strData$[ebp]
  00146	68 00 00 00 00	 push	 OFFSET ??_C@_02DPKJAMEF@?$CFd@
  0014b	50		 push	 eax
  0014c	ff d3		 call	 ebx
  0014e	83 c4 0c	 add	 esp, 12			; 0000000cH

; 268  : 	WritePrivateProfileString(strSection,strKey,strData,strFileName);

  00151	ff 75 e8	 push	 DWORD PTR _strFileName$[ebp]
  00154	ff 75 f0	 push	 DWORD PTR _strData$[ebp]
  00157	ff 75 ec	 push	 DWORD PTR _strKey$[ebp]
  0015a	ff 75 e4	 push	 DWORD PTR _strSection$[ebp]
  0015d	ff d6		 call	 esi

; 269  : 
; 270  : 	strKey = _T("LeftText");

  0015f	68 00 00 00 00	 push	 OFFSET ??_C@_08BBFEGILF@LeftText@
  00164	8d 4d ec	 lea	 ecx, DWORD PTR _strKey$[ebp]
  00167	ff 15 00 00 00
	00		 call	 DWORD PTR __imp_??4?$CStringT@DV?$StrTraitMFC_DLL@DV?$ChTraitsCRT@D@ATL@@@@@ATL@@QAEAAV01@PBD@Z

; 271  : 	strData.Format(_T("%d"),m_stAnalysisTool.nLeftText);		

  0016d	ff b7 28 0c 00
	00		 push	 DWORD PTR [edi+3112]
  00173	8d 45 f0	 lea	 eax, DWORD PTR _strData$[ebp]
  00176	68 00 00 00 00	 push	 OFFSET ??_C@_02DPKJAMEF@?$CFd@
  0017b	50		 push	 eax
  0017c	ff d3		 call	 ebx
  0017e	83 c4 0c	 add	 esp, 12			; 0000000cH

; 272  : 	WritePrivateProfileString(strSection,strKey,strData,strFileName);

  00181	ff 75 e8	 push	 DWORD PTR _strFileName$[ebp]
  00184	ff 75 f0	 push	 DWORD PTR _strData$[ebp]
  00187	ff 75 ec	 push	 DWORD PTR _strKey$[ebp]
  0018a	ff 75 e4	 push	 DWORD PTR _strSection$[ebp]
  0018d	ff d6		 call	 esi

; 273  : 
; 274  : 	strKey = _T("RightText");

  0018f	68 00 00 00 00	 push	 OFFSET ??_C@_09HDEKPJNE@RightText@
  00194	8d 4d ec	 lea	 ecx, DWORD PTR _strKey$[ebp]
  00197	ff 15 00 00 00
	00		 call	 DWORD PTR __imp_??4?$CStringT@DV?$StrTraitMFC_DLL@DV?$ChTraitsCRT@D@ATL@@@@@ATL@@QAEAAV01@PBD@Z

; 275  : 	strData.Format(_T("%d"),m_stAnalysisTool.nRightText);		

  0019d	ff b7 2c 0c 00
	00		 push	 DWORD PTR [edi+3116]
  001a3	8d 45 f0	 lea	 eax, DWORD PTR _strData$[ebp]
  001a6	68 00 00 00 00	 push	 OFFSET ??_C@_02DPKJAMEF@?$CFd@
  001ab	50		 push	 eax
  001ac	ff d3		 call	 ebx
  001ae	83 c4 0c	 add	 esp, 12			; 0000000cH

; 276  : 	WritePrivateProfileString(strSection,strKey,strData,strFileName);

  001b1	ff 75 e8	 push	 DWORD PTR _strFileName$[ebp]
  001b4	ff 75 f0	 push	 DWORD PTR _strData$[ebp]
  001b7	ff 75 ec	 push	 DWORD PTR _strKey$[ebp]
  001ba	ff 75 e4	 push	 DWORD PTR _strSection$[ebp]
  001bd	ff d6		 call	 esi

; 277  : 
; 278  : 	strKey = _T("LeftExt");

  001bf	68 00 00 00 00	 push	 OFFSET ??_C@_07FCOFBDCL@LeftExt@
  001c4	8d 4d ec	 lea	 ecx, DWORD PTR _strKey$[ebp]
  001c7	ff 15 00 00 00
	00		 call	 DWORD PTR __imp_??4?$CStringT@DV?$StrTraitMFC_DLL@DV?$ChTraitsCRT@D@ATL@@@@@ATL@@QAEAAV01@PBD@Z

; 279  : 	strData.Format(_T("%d"),m_stAnalysisTool.nLeftExt);		

  001cd	ff b7 3c 0c 00
	00		 push	 DWORD PTR [edi+3132]
  001d3	68 00 00 00 00	 push	 OFFSET ??_C@_02DPKJAMEF@?$CFd@
  001d8	8d 45 f0	 lea	 eax, DWORD PTR _strData$[ebp]
  001db	50		 push	 eax
  001dc	ff d3		 call	 ebx
  001de	83 c4 0c	 add	 esp, 12			; 0000000cH

; 280  : 	WritePrivateProfileString(strSection,strKey,strData,strFileName);

  001e1	ff 75 e8	 push	 DWORD PTR _strFileName$[ebp]
  001e4	ff 75 f0	 push	 DWORD PTR _strData$[ebp]
  001e7	ff 75 ec	 push	 DWORD PTR _strKey$[ebp]
  001ea	ff 75 e4	 push	 DWORD PTR _strSection$[ebp]
  001ed	ff d6		 call	 esi

; 281  : 
; 282  : 	strKey = _T("RightExt");

  001ef	68 00 00 00 00	 push	 OFFSET ??_C@_08JBGJKNHH@RightExt@
  001f4	8d 4d ec	 lea	 ecx, DWORD PTR _strKey$[ebp]
  001f7	ff 15 00 00 00
	00		 call	 DWORD PTR __imp_??4?$CStringT@DV?$StrTraitMFC_DLL@DV?$ChTraitsCRT@D@ATL@@@@@ATL@@QAEAAV01@PBD@Z

; 283  : 	strData.Format(_T("%d"),m_stAnalysisTool.nRightExt);		

  001fd	ff b7 40 0c 00
	00		 push	 DWORD PTR [edi+3136]
  00203	8d 45 f0	 lea	 eax, DWORD PTR _strData$[ebp]
  00206	68 00 00 00 00	 push	 OFFSET ??_C@_02DPKJAMEF@?$CFd@
  0020b	50		 push	 eax
  0020c	ff d3		 call	 ebx
  0020e	83 c4 0c	 add	 esp, 12			; 0000000cH

; 284  : 	WritePrivateProfileString(strSection,strKey,strData,strFileName);

  00211	ff 75 e8	 push	 DWORD PTR _strFileName$[ebp]
  00214	ff 75 f0	 push	 DWORD PTR _strData$[ebp]
  00217	ff 75 ec	 push	 DWORD PTR _strKey$[ebp]
  0021a	ff 75 e4	 push	 DWORD PTR _strSection$[ebp]
  0021d	ff d6		 call	 esi

; 285  : 
; 286  : 	strKey = _T("EquiDiv");

  0021f	68 00 00 00 00	 push	 OFFSET ??_C@_07FEGHFPHL@EquiDiv@
  00224	8d 4d ec	 lea	 ecx, DWORD PTR _strKey$[ebp]
  00227	ff 15 00 00 00
	00		 call	 DWORD PTR __imp_??4?$CStringT@DV?$StrTraitMFC_DLL@DV?$ChTraitsCRT@D@ATL@@@@@ATL@@QAEAAV01@PBD@Z

; 287  : 	strData.Format(_T("%d"),m_stAnalysisTool.nEquiDiv);		

  0022d	ff b7 44 0c 00
	00		 push	 DWORD PTR [edi+3140]
  00233	8d 45 f0	 lea	 eax, DWORD PTR _strData$[ebp]
  00236	68 00 00 00 00	 push	 OFFSET ??_C@_02DPKJAMEF@?$CFd@
  0023b	50		 push	 eax
  0023c	ff d3		 call	 ebx
  0023e	83 c4 0c	 add	 esp, 12			; 0000000cH

; 288  : 	WritePrivateProfileString(strSection,strKey,strData,strFileName);

  00241	ff 75 e8	 push	 DWORD PTR _strFileName$[ebp]
  00244	ff 75 f0	 push	 DWORD PTR _strData$[ebp]
  00247	ff 75 ec	 push	 DWORD PTR _strKey$[ebp]
  0024a	ff 75 e4	 push	 DWORD PTR _strSection$[ebp]
  0024d	ff d6		 call	 esi

; 289  : 
; 290  : 	// (2008/8/15 - Seung-Won, Bae) Add option for using price range.
; 291  : 	strKey = _T("PriceRangeDiv");

  0024f	68 00 00 00 00	 push	 OFFSET ??_C@_0O@GNLODFPJ@PriceRangeDiv@
  00254	8d 4d ec	 lea	 ecx, DWORD PTR _strKey$[ebp]
  00257	ff 15 00 00 00
	00		 call	 DWORD PTR __imp_??4?$CStringT@DV?$StrTraitMFC_DLL@DV?$ChTraitsCRT@D@ATL@@@@@ATL@@QAEAAV01@PBD@Z

; 292  : 	strData.Format(_T("%d"),m_stAnalysisTool.nPriceRangeDiv);		

  0025d	ff b7 48 0c 00
	00		 push	 DWORD PTR [edi+3144]
  00263	8d 45 f0	 lea	 eax, DWORD PTR _strData$[ebp]
  00266	68 00 00 00 00	 push	 OFFSET ??_C@_02DPKJAMEF@?$CFd@
  0026b	50		 push	 eax
  0026c	ff d3		 call	 ebx
  0026e	83 c4 0c	 add	 esp, 12			; 0000000cH

; 293  : 	WritePrivateProfileString(strSection,strKey,strData,strFileName);

  00271	ff 75 e8	 push	 DWORD PTR _strFileName$[ebp]
  00274	ff 75 f0	 push	 DWORD PTR _strData$[ebp]
  00277	ff 75 ec	 push	 DWORD PTR _strKey$[ebp]
  0027a	ff 75 e4	 push	 DWORD PTR _strSection$[ebp]
  0027d	ff d6		 call	 esi

; 294  : 
; 295  : 	strKey = _T("HLPercent");

  0027f	68 00 00 00 00	 push	 OFFSET ??_C@_09LIIMEMPE@HLPercent@
  00284	8d 4d ec	 lea	 ecx, DWORD PTR _strKey$[ebp]
  00287	ff 15 00 00 00
	00		 call	 DWORD PTR __imp_??4?$CStringT@DV?$StrTraitMFC_DLL@DV?$ChTraitsCRT@D@ATL@@@@@ATL@@QAEAAV01@PBD@Z

; 296  : 	strData.Format(_T("%d"),m_stAnalysisTool.nHLPercent);		

  0028d	ff b7 4c 0c 00
	00		 push	 DWORD PTR [edi+3148]
  00293	8d 45 f0	 lea	 eax, DWORD PTR _strData$[ebp]
  00296	68 00 00 00 00	 push	 OFFSET ??_C@_02DPKJAMEF@?$CFd@
  0029b	50		 push	 eax
  0029c	ff d3		 call	 ebx
  0029e	83 c4 0c	 add	 esp, 12			; 0000000cH

; 297  : 	WritePrivateProfileString(strSection,strKey,strData,strFileName);

  002a1	ff 75 e8	 push	 DWORD PTR _strFileName$[ebp]
  002a4	ff 75 f0	 push	 DWORD PTR _strData$[ebp]
  002a7	ff 75 ec	 push	 DWORD PTR _strKey$[ebp]
  002aa	ff 75 e4	 push	 DWORD PTR _strSection$[ebp]
  002ad	ff d6		 call	 esi

; 298  : 
; 299  : 	strKey = _T("FillRegion");

  002af	68 00 00 00 00	 push	 OFFSET ??_C@_0L@IDNOMKNG@FillRegion@
  002b4	8d 4d ec	 lea	 ecx, DWORD PTR _strKey$[ebp]
  002b7	ff 15 00 00 00
	00		 call	 DWORD PTR __imp_??4?$CStringT@DV?$StrTraitMFC_DLL@DV?$ChTraitsCRT@D@ATL@@@@@ATL@@QAEAAV01@PBD@Z

; 300  : 	strData.Format(_T("%d"),m_stAnalysisTool.nFillRegion);		

  002bd	ff b7 50 0c 00
	00		 push	 DWORD PTR [edi+3152]
  002c3	8d 45 f0	 lea	 eax, DWORD PTR _strData$[ebp]
  002c6	68 00 00 00 00	 push	 OFFSET ??_C@_02DPKJAMEF@?$CFd@
  002cb	50		 push	 eax
  002cc	ff d3		 call	 ebx
  002ce	83 c4 0c	 add	 esp, 12			; 0000000cH

; 301  : 	WritePrivateProfileString(strSection,strKey,strData,strFileName);

  002d1	ff 75 e8	 push	 DWORD PTR _strFileName$[ebp]
  002d4	ff 75 f0	 push	 DWORD PTR _strData$[ebp]
  002d7	ff 75 ec	 push	 DWORD PTR _strKey$[ebp]
  002da	ff 75 e4	 push	 DWORD PTR _strSection$[ebp]
  002dd	ff d6		 call	 esi

; 302  : 
; 303  : 	
; 304  : 	strKey = _T("LineColor");

  002df	68 00 00 00 00	 push	 OFFSET ??_C@_09MJAANBBP@LineColor@
  002e4	8d 4d ec	 lea	 ecx, DWORD PTR _strKey$[ebp]
  002e7	ff 15 00 00 00
	00		 call	 DWORD PTR __imp_??4?$CStringT@DV?$StrTraitMFC_DLL@DV?$ChTraitsCRT@D@ATL@@@@@ATL@@QAEAAV01@PBD@Z

; 305  : 	strData.Format(_T("%ld"),m_stAnalysisTool.crLineColor);		

  002ed	ff b7 5c 0c 00
	00		 push	 DWORD PTR [edi+3164]
  002f3	8d 45 f0	 lea	 eax, DWORD PTR _strData$[ebp]
  002f6	68 00 00 00 00	 push	 OFFSET ??_C@_03JALODAI@?$CFld@
  002fb	50		 push	 eax
  002fc	ff d3		 call	 ebx
  002fe	83 c4 0c	 add	 esp, 12			; 0000000cH

; 306  : 	WritePrivateProfileString(strSection,strKey,strData,strFileName);

  00301	ff 75 e8	 push	 DWORD PTR _strFileName$[ebp]
  00304	ff 75 f0	 push	 DWORD PTR _strData$[ebp]
  00307	ff 75 ec	 push	 DWORD PTR _strKey$[ebp]
  0030a	ff 75 e4	 push	 DWORD PTR _strSection$[ebp]
  0030d	ff d6		 call	 esi

; 307  : 
; 308  : 	strKey = _T("LineStyle");

  0030f	68 00 00 00 00	 push	 OFFSET ??_C@_09LNOEOIHF@LineStyle@
  00314	8d 4d ec	 lea	 ecx, DWORD PTR _strKey$[ebp]
  00317	ff 15 00 00 00
	00		 call	 DWORD PTR __imp_??4?$CStringT@DV?$StrTraitMFC_DLL@DV?$ChTraitsCRT@D@ATL@@@@@ATL@@QAEAAV01@PBD@Z

; 309  : 	strData.Format(_T("%d"),m_stAnalysisTool.nLineStyle);		

  0031d	ff b7 54 0c 00
	00		 push	 DWORD PTR [edi+3156]
  00323	8d 45 f0	 lea	 eax, DWORD PTR _strData$[ebp]
  00326	68 00 00 00 00	 push	 OFFSET ??_C@_02DPKJAMEF@?$CFd@
  0032b	50		 push	 eax
  0032c	ff d3		 call	 ebx
  0032e	83 c4 0c	 add	 esp, 12			; 0000000cH

; 310  : 	WritePrivateProfileString(strSection,strKey,strData,strFileName);

  00331	ff 75 e8	 push	 DWORD PTR _strFileName$[ebp]
  00334	ff 75 f0	 push	 DWORD PTR _strData$[ebp]
  00337	ff 75 ec	 push	 DWORD PTR _strKey$[ebp]
  0033a	ff 75 e4	 push	 DWORD PTR _strSection$[ebp]
  0033d	ff d6		 call	 esi

; 311  : 
; 312  : 	strKey = _T("LineWeight");

  0033f	68 00 00 00 00	 push	 OFFSET ??_C@_0L@OIHNKLFE@LineWeight@
  00344	8d 4d ec	 lea	 ecx, DWORD PTR _strKey$[ebp]
  00347	ff 15 00 00 00
	00		 call	 DWORD PTR __imp_??4?$CStringT@DV?$StrTraitMFC_DLL@DV?$ChTraitsCRT@D@ATL@@@@@ATL@@QAEAAV01@PBD@Z

; 313  : 	strData.Format(_T("%d"),m_stAnalysisTool.nLineWeight);		

  0034d	ff b7 58 0c 00
	00		 push	 DWORD PTR [edi+3160]
  00353	8d 45 f0	 lea	 eax, DWORD PTR _strData$[ebp]
  00356	68 00 00 00 00	 push	 OFFSET ??_C@_02DPKJAMEF@?$CFd@
  0035b	50		 push	 eax
  0035c	ff d3		 call	 ebx
  0035e	83 c4 0c	 add	 esp, 12			; 0000000cH

; 314  : 	WritePrivateProfileString(strSection,strKey,strData,strFileName);

  00361	ff 75 e8	 push	 DWORD PTR _strFileName$[ebp]
  00364	ff 75 f0	 push	 DWORD PTR _strData$[ebp]
  00367	ff 75 ec	 push	 DWORD PTR _strKey$[ebp]
  0036a	ff 75 e4	 push	 DWORD PTR _strSection$[ebp]
  0036d	ff d6		 call	 esi

; 315  : 	
; 316  : 	strKey = _T("FiboCoefficient");

  0036f	68 00 00 00 00	 push	 OFFSET ??_C@_0BA@JFLLJIBI@FiboCoefficient@
  00374	8d 4d ec	 lea	 ecx, DWORD PTR _strKey$[ebp]
  00377	ff 15 00 00 00
	00		 call	 DWORD PTR __imp_??4?$CStringT@DV?$StrTraitMFC_DLL@DV?$ChTraitsCRT@D@ATL@@@@@ATL@@QAEAAV01@PBD@Z

; 317  : 	strData = m_pDataEnvironment->GetExtData();

  0037d	8b 8f d8 0b 00
	00		 mov	 ecx, DWORD PTR [edi+3032]
  00383	8d 45 e0	 lea	 eax, DWORD PTR $T3[ebp]
  00386	50		 push	 eax
  00387	e8 00 00 00 00	 call	 ?GetExtData@CDataTypeEnvironment@@QBE?AV?$CStringT@DV?$StrTraitMFC_DLL@DV?$ChTraitsCRT@D@ATL@@@@@ATL@@XZ ; CDataTypeEnvironment::GetExtData
  0038c	50		 push	 eax
  0038d	8d 4d f0	 lea	 ecx, DWORD PTR _strData$[ebp]
  00390	c6 45 fc 07	 mov	 BYTE PTR __$EHRec$[ebp+8], 7
  00394	ff 15 00 00 00
	00		 call	 DWORD PTR __imp_??4?$CStringT@DV?$StrTraitMFC_DLL@DV?$ChTraitsCRT@D@ATL@@@@@ATL@@QAEAAV01@ABV01@@Z
  0039a	8d 4d e0	 lea	 ecx, DWORD PTR $T3[ebp]
  0039d	ff 15 00 00 00
	00		 call	 DWORD PTR __imp_??1?$CStringT@DV?$StrTraitMFC_DLL@DV?$ChTraitsCRT@D@ATL@@@@@ATL@@QAE@XZ

; 318  : 	WritePrivateProfileString(strSection,strKey,strData,strFileName);

  003a3	ff 75 e8	 push	 DWORD PTR _strFileName$[ebp]
  003a6	ff 75 f0	 push	 DWORD PTR _strData$[ebp]
  003a9	ff 75 ec	 push	 DWORD PTR _strKey$[ebp]
  003ac	ff 75 e4	 push	 DWORD PTR _strSection$[ebp]
  003af	ff d6		 call	 esi

; 319  : }

  003b1	8d 4d dc	 lea	 ecx, DWORD PTR _strName$[ebp]
  003b4	ff 15 00 00 00
	00		 call	 DWORD PTR __imp_??1?$CStringT@DV?$StrTraitMFC_DLL@DV?$ChTraitsCRT@D@ATL@@@@@ATL@@QAE@XZ
  003ba	8d 4d f0	 lea	 ecx, DWORD PTR _strData$[ebp]
  003bd	ff 15 00 00 00
	00		 call	 DWORD PTR __imp_??1?$CStringT@DV?$StrTraitMFC_DLL@DV?$ChTraitsCRT@D@ATL@@@@@ATL@@QAE@XZ
  003c3	8d 4d ec	 lea	 ecx, DWORD PTR _strKey$[ebp]
  003c6	ff 15 00 00 00
	00		 call	 DWORD PTR __imp_??1?$CStringT@DV?$StrTraitMFC_DLL@DV?$ChTraitsCRT@D@ATL@@@@@ATL@@QAE@XZ
  003cc	8d 4d e4	 lea	 ecx, DWORD PTR _strSection$[ebp]
  003cf	ff 15 00 00 00
	00		 call	 DWORD PTR __imp_??1?$CStringT@DV?$StrTraitMFC_DLL@DV?$ChTraitsCRT@D@ATL@@@@@ATL@@QAE@XZ
$LN13@SaveData:
  003d5	8d 4d ac	 lea	 ecx, DWORD PTR _finder$[ebp]
  003d8	e8 00 00 00 00	 call	 ??1CFileFind@@UAE@XZ	; CFileFind::~CFileFind
  003dd	8d 4d e8	 lea	 ecx, DWORD PTR _strFileName$[ebp]
  003e0	ff 15 00 00 00
	00		 call	 DWORD PTR __imp_??1?$CStringT@DV?$StrTraitMFC_DLL@DV?$ChTraitsCRT@D@ATL@@@@@ATL@@QAE@XZ
  003e6	8b 4d f4	 mov	 ecx, DWORD PTR __$EHRec$[ebp]
  003e9	64 89 0d 00 00
	00 00		 mov	 DWORD PTR fs:0, ecx
  003f0	59		 pop	 ecx
  003f1	5f		 pop	 edi
  003f2	5e		 pop	 esi
  003f3	5b		 pop	 ebx
  003f4	8b e5		 mov	 esp, ebp
  003f6	5d		 pop	 ebp
  003f7	c3		 ret	 0
_TEXT	ENDS
;	COMDAT text$x
text$x	SEGMENT
__unwindfunclet$?SaveData@CDlgFiboSet@@IAEXXZ$0:
  00000	8d 4d e8	 lea	 ecx, DWORD PTR _strFileName$[ebp]
  00003	ff 25 00 00 00
	00		 jmp	 DWORD PTR __imp_??1?$CStringT@DV?$StrTraitMFC_DLL@DV?$ChTraitsCRT@D@ATL@@@@@ATL@@QAE@XZ
__unwindfunclet$?SaveData@CDlgFiboSet@@IAEXXZ$1:
  00009	8d 4d ac	 lea	 ecx, DWORD PTR _finder$[ebp]
  0000c	e9 00 00 00 00	 jmp	 ??1CFileFind@@UAE@XZ	; CFileFind::~CFileFind
__unwindfunclet$?SaveData@CDlgFiboSet@@IAEXXZ$2:
  00011	8d 4d c8	 lea	 ecx, DWORD PTR _file$2[ebp]
  00014	e9 00 00 00 00	 jmp	 ??1CFile@@UAE@XZ	; CFile::~CFile
__unwindfunclet$?SaveData@CDlgFiboSet@@IAEXXZ$3:
  00019	8d 4d e4	 lea	 ecx, DWORD PTR _strSection$[ebp]
  0001c	ff 25 00 00 00
	00		 jmp	 DWORD PTR __imp_??1?$CStringT@DV?$StrTraitMFC_DLL@DV?$ChTraitsCRT@D@ATL@@@@@ATL@@QAE@XZ
__unwindfunclet$?SaveData@CDlgFiboSet@@IAEXXZ$4:
  00022	8d 4d ec	 lea	 ecx, DWORD PTR _strKey$[ebp]
  00025	ff 25 00 00 00
	00		 jmp	 DWORD PTR __imp_??1?$CStringT@DV?$StrTraitMFC_DLL@DV?$ChTraitsCRT@D@ATL@@@@@ATL@@QAE@XZ
__unwindfunclet$?SaveData@CDlgFiboSet@@IAEXXZ$5:
  0002b	8d 4d f0	 lea	 ecx, DWORD PTR _strData$[ebp]
  0002e	ff 25 00 00 00
	00		 jmp	 DWORD PTR __imp_??1?$CStringT@DV?$StrTraitMFC_DLL@DV?$ChTraitsCRT@D@ATL@@@@@ATL@@QAE@XZ
__unwindfunclet$?SaveData@CDlgFiboSet@@IAEXXZ$6:
  00034	8d 4d dc	 lea	 ecx, DWORD PTR _strName$[ebp]
  00037	ff 25 00 00 00
	00		 jmp	 DWORD PTR __imp_??1?$CStringT@DV?$StrTraitMFC_DLL@DV?$ChTraitsCRT@D@ATL@@@@@ATL@@QAE@XZ
__unwindfunclet$?SaveData@CDlgFiboSet@@IAEXXZ$7:
  0003d	8d 4d e0	 lea	 ecx, DWORD PTR $T3[ebp]
  00040	ff 25 00 00 00
	00		 jmp	 DWORD PTR __imp_??1?$CStringT@DV?$StrTraitMFC_DLL@DV?$ChTraitsCRT@D@ATL@@@@@ATL@@QAE@XZ
  00046	cc		 int	 3
  00047	cc		 int	 3
  00048	cc		 int	 3
  00049	cc		 int	 3
  0004a	cc		 int	 3
__ehhandler$?SaveData@CDlgFiboSet@@IAEXXZ:
  0004b	90		 npad	 1
  0004c	90		 npad	 1
  0004d	8b 54 24 08	 mov	 edx, DWORD PTR [esp+8]
  00051	8d 42 0c	 lea	 eax, DWORD PTR [edx+12]
  00054	8b 4a a8	 mov	 ecx, DWORD PTR [edx-88]
  00057	33 c8		 xor	 ecx, eax
  00059	e8 00 00 00 00	 call	 @__security_check_cookie@4
  0005e	b8 00 00 00 00	 mov	 eax, OFFSET __ehfuncinfo$?SaveData@CDlgFiboSet@@IAEXXZ
  00063	e9 00 00 00 00	 jmp	 ___CxxFrameHandler3
text$x	ENDS
?SaveData@CDlgFiboSet@@IAEXXZ ENDP			; CDlgFiboSet::SaveData
; Function compile flags: /Ogtp
; File D:\git\src\IBK\IBK_DRFN\ProjSrc\SrcChartEx\ChartAddIn\ChartAnalysisToolAddIn\AnalysisTool\DlgFiboSet.cpp
; File C:\Program Files (x86)\Microsoft Visual Studio\2019\Community\VC\Tools\MSVC\14.29.30133\atlmfc\include\afxwin2.inl
; File D:\git\src\IBK\IBK_DRFN\ProjSrc\SrcChartEx\ChartAddIn\ChartAnalysisToolAddIn\AnalysisTool\DlgFiboSet.cpp
;	COMDAT ?ApplyOrgData@CDlgFiboSet@@IAEXXZ
_TEXT	SEGMENT
$T1 = -12						; size = 8
$T2 = -8						; size = 4
$T3 = -4						; size = 4
?ApplyOrgData@CDlgFiboSet@@IAEXXZ PROC			; CDlgFiboSet::ApplyOrgData, COMDAT
; _this$ = ecx

; 373  : {

  00000	55		 push	 ebp
  00001	8b ec		 mov	 ebp, esp
  00003	83 ec 0c	 sub	 esp, 12			; 0000000cH
  00006	56		 push	 esi
  00007	57		 push	 edi
  00008	8b f9		 mov	 edi, ecx

; 374  : 	m_pPenEnvironment->Set(m_basePenEnvironment);

  0000a	8b 8f a4 0c 00
	00		 mov	 ecx, DWORD PTR [edi+3236]
  00010	8d 87 a8 0c 00
	00		 lea	 eax, DWORD PTR [edi+3240]
  00016	50		 push	 eax
  00017	e8 00 00 00 00	 call	 ?Set@CPenEnvironment@@QAEXABV1@@Z ; CPenEnvironment::Set

; 375  : 			
; 376  : 	if(m_nTextPosType != G_TEXT_POS_NONE)

  0001c	8b 87 8c 0c 00
	00		 mov	 eax, DWORD PTR [edi+3212]
  00022	83 f8 ff	 cmp	 eax, -1
  00025	0f 84 0c 01 00
	00		 je	 $LN10@ApplyOrgDa

; 377  : 	{
; 378  : 		if(m_nTextPosType == G_TEXT_POS_HV)

  0002b	83 f8 03	 cmp	 eax, 3
  0002e	75 45		 jne	 SHORT $LN3@ApplyOrgDa

; 379  : 			SetTextPosition(m_baseTextHVPosition.GetLeft(),m_baseTextHVPosition.GetRight(),

  00030	8d 8f e8 0c 00
	00		 lea	 ecx, DWORD PTR [edi+3304]
  00036	e8 00 00 00 00	 call	 ?GetBottom@CTextHorzVertPosition@@QBE_NXZ ; CTextHorzVertPosition::GetBottom
  0003b	0f b6 c0	 movzx	 eax, al
  0003e	8d 8f e8 0c 00
	00		 lea	 ecx, DWORD PTR [edi+3304]
  00044	50		 push	 eax
  00045	e8 00 00 00 00	 call	 ?GetTop@CTextHorzVertPosition@@QBE_NXZ ; CTextHorzVertPosition::GetTop
  0004a	0f b6 c0	 movzx	 eax, al
  0004d	8d 8f e8 0c 00
	00		 lea	 ecx, DWORD PTR [edi+3304]
  00053	50		 push	 eax
  00054	e8 00 00 00 00	 call	 ?GetRight@CTextHorzVertPosition@@QBE_NXZ ; CTextHorzVertPosition::GetRight
  00059	0f b6 c0	 movzx	 eax, al
  0005c	8d 8f e8 0c 00
	00		 lea	 ecx, DWORD PTR [edi+3304]
  00062	50		 push	 eax
  00063	e8 00 00 00 00	 call	 ?GetLeft@CTextHorzVertPosition@@QBE_NXZ ; CTextHorzVertPosition::GetLeft
  00068	0f b6 c0	 movzx	 eax, al
  0006b	8b cf		 mov	 ecx, edi
  0006d	50		 push	 eax
  0006e	e8 00 00 00 00	 call	 ?SetTextPosition@CDlgFiboSet@@AAEX_N000@Z ; CDlgFiboSet::SetTextPosition
  00073	eb 67		 jmp	 SHORT $LN9@ApplyOrgDa
$LN3@ApplyOrgDa:

; 380  : 							m_baseTextHVPosition.GetTop(),m_baseTextHVPosition.GetBottom());		
; 381  : 		else if(m_nTextPosType == G_TEXT_POS_VERT)

  00075	83 f8 02	 cmp	 eax, 2
  00078	75 1c		 jne	 SHORT $LN5@ApplyOrgDa

; 382  : 			SetTextPosition(m_baseTextVPosition.GetTop(),m_baseTextVPosition.GetBottom());			

  0007a	8d 8f dc 0c 00
	00		 lea	 ecx, DWORD PTR [edi+3292]
  00080	e8 00 00 00 00	 call	 ?GetBottom@CTextVertPosition@@QBE_NXZ ; CTextVertPosition::GetBottom
  00085	0f b6 c0	 movzx	 eax, al
  00088	8d 8f dc 0c 00
	00		 lea	 ecx, DWORD PTR [edi+3292]
  0008e	50		 push	 eax
  0008f	e8 00 00 00 00	 call	 ?GetTop@CTextVertPosition@@QBE_NXZ ; CTextVertPosition::GetTop
  00094	eb 3b		 jmp	 SHORT $LN43@ApplyOrgDa
$LN5@ApplyOrgDa:

; 383  : 		else if(m_nTextPosType == G_TEXT_POS_ONE)

  00096	85 c0		 test	 eax, eax
  00098	75 18		 jne	 SHORT $LN7@ApplyOrgDa

; 384  : 			SetTextPosition(m_baseTextPosition.IsShow());			

  0009a	8d 8f c4 0c 00
	00		 lea	 ecx, DWORD PTR [edi+3268]
  000a0	e8 00 00 00 00	 call	 ?IsShow@CTextShowPosition@@QBE_NXZ ; CTextShowPosition::IsShow
  000a5	0f b6 c0	 movzx	 eax, al
  000a8	8b cf		 mov	 ecx, edi
  000aa	50		 push	 eax
  000ab	e8 00 00 00 00	 call	 ?SetTextPosition@CDlgFiboSet@@AAEX_N@Z ; CDlgFiboSet::SetTextPosition
  000b0	eb 2a		 jmp	 SHORT $LN9@ApplyOrgDa
$LN7@ApplyOrgDa:

; 385  : 		else if(m_nTextPosType == G_TEXT_POS_HORZ)

  000b2	83 f8 01	 cmp	 eax, 1
  000b5	75 25		 jne	 SHORT $LN9@ApplyOrgDa

; 386  : 			SetTextPosition(m_baseTextHPosition.GetLeft(),m_baseTextHPosition.GetRight());		

  000b7	8d 8f d0 0c 00
	00		 lea	 ecx, DWORD PTR [edi+3280]
  000bd	e8 00 00 00 00	 call	 ?GetRight@CTextHorzPosition@@QBE_NXZ ; CTextHorzPosition::GetRight
  000c2	0f b6 c0	 movzx	 eax, al
  000c5	8d 8f d0 0c 00
	00		 lea	 ecx, DWORD PTR [edi+3280]
  000cb	50		 push	 eax
  000cc	e8 00 00 00 00	 call	 ?GetLeft@CTextHorzPosition@@QBE_NXZ ; CTextHorzPosition::GetLeft
$LN43@ApplyOrgDa:

; 1176 : 	if(m_nTextPosType == G_TEXT_POS_HV)

  000d1	0f b6 c0	 movzx	 eax, al
  000d4	8b cf		 mov	 ecx, edi
  000d6	50		 push	 eax
  000d7	e8 00 00 00 00	 call	 ?SetTextPosition@CDlgFiboSet@@AAEX_N0@Z ; CDlgFiboSet::SetTextPosition
$LN9@ApplyOrgDa:
  000dc	8b 87 8c 0c 00
	00		 mov	 eax, DWORD PTR [edi+3212]
  000e2	83 f8 03	 cmp	 eax, 3
  000e5	75 0d		 jne	 SHORT $LN17@ApplyOrgDa

; 1177 : 		return m_pTextHVPosition;

  000e7	8b 8f c0 0c 00
	00		 mov	 ecx, DWORD PTR [edi+3264]

; 1191 : 		return &m_baseTextHVPosition;

  000ed	b8 e8 0c 00 00	 mov	 eax, 3304		; 00000ce8H
  000f2	eb 33		 jmp	 SHORT $LN25@ApplyOrgDa
$LN17@ApplyOrgDa:

; 1178 : 	else if(m_nTextPosType == G_TEXT_POS_VERT)

  000f4	83 f8 02	 cmp	 eax, 2
  000f7	75 0d		 jne	 SHORT $LN19@ApplyOrgDa

; 1179 : 		return m_pTextVPosition;

  000f9	8b 8f bc 0c 00
	00		 mov	 ecx, DWORD PTR [edi+3260]

; 1193 : 		return &m_baseTextVPosition;

  000ff	b8 dc 0c 00 00	 mov	 eax, 3292		; 00000cdcH
  00104	eb 21		 jmp	 SHORT $LN25@ApplyOrgDa
$LN19@ApplyOrgDa:

; 1180 : 	else if(m_nTextPosType == G_TEXT_POS_HORZ)

  00106	83 f8 01	 cmp	 eax, 1
  00109	75 0d		 jne	 SHORT $LN21@ApplyOrgDa

; 1181 : 		return m_pTextHPosition;

  0010b	8b 8f b8 0c 00
	00		 mov	 ecx, DWORD PTR [edi+3256]

; 1195 : 		return &m_baseTextHPosition;

  00111	b8 d0 0c 00 00	 mov	 eax, 3280		; 00000cd0H
  00116	eb 0f		 jmp	 SHORT $LN25@ApplyOrgDa
$LN21@ApplyOrgDa:

; 1182 : 	else if(m_nTextPosType == G_TEXT_POS_ONE)

  00118	85 c0		 test	 eax, eax
  0011a	75 1b		 jne	 SHORT $LN10@ApplyOrgDa

; 1183 : 		return m_pTextPosition;

  0011c	8b 8f b4 0c 00
	00		 mov	 ecx, DWORD PTR [edi+3252]

; 1197 : 		return &m_baseTextPosition;

  00122	b8 c4 0c 00 00	 mov	 eax, 3268		; 00000cc4H
$LN25@ApplyOrgDa:

; 387  : 		
; 388  : 		CTextPosition* pTextPosition = GetTextPosition();
; 389  : 		CTextPosition* pOrgTextPosition = GetOrgTextPosition();
; 390  : 		if(pTextPosition != NULL && pOrgTextPosition != NULL)

  00127	8d 14 07	 lea	 edx, DWORD PTR [edi+eax]
  0012a	85 c9		 test	 ecx, ecx
  0012c	74 09		 je	 SHORT $LN10@ApplyOrgDa
  0012e	85 d2		 test	 edx, edx
  00130	74 05		 je	 SHORT $LN10@ApplyOrgDa

; 391  : 			pTextPosition->Set(pOrgTextPosition);

  00132	8b 01		 mov	 eax, DWORD PTR [ecx]
  00134	52		 push	 edx
  00135	ff 10		 call	 DWORD PTR [eax]
$LN10@ApplyOrgDa:

; 392  : 	}
; 393  : 
; 394  : 	if(m_nLineExtType != G_LINE_EXT_NONE)

  00137	83 bf 90 0c 00
	00 ff		 cmp	 DWORD PTR [edi+3216], -1
  0013e	74 5d		 je	 SHORT $LN12@ApplyOrgDa

; 395  : 	{
; 396  : 		SetLineExtEnvironment( ( m_baseLineExtEnvironment.GetLeftExt() ? true : false),

  00140	8d b7 f8 0c 00
	00		 lea	 esi, DWORD PTR [edi+3320]
  00146	53		 push	 ebx
  00147	8b ce		 mov	 ecx, esi
  00149	e8 00 00 00 00	 call	 ?GetRightExt@CLineExtEnvironment@@QBEHXZ ; CLineExtEnvironment::GetRightExt

; 1087 : 	m_pLineExtEnvironment->SetLineExt(bLeft,bRight);

  0014e	f7 d8		 neg	 eax

; 395  : 	{
; 396  : 		SetLineExtEnvironment( ( m_baseLineExtEnvironment.GetLeftExt() ? true : false),

  00150	8b ce		 mov	 ecx, esi

; 1087 : 	m_pLineExtEnvironment->SetLineExt(bLeft,bRight);

  00152	1b c0		 sbb	 eax, eax
  00154	f7 d8		 neg	 eax
  00156	89 45 fc	 mov	 DWORD PTR $T3[ebp], eax

; 395  : 	{
; 396  : 		SetLineExtEnvironment( ( m_baseLineExtEnvironment.GetLeftExt() ? true : false),

  00159	e8 00 00 00 00	 call	 ?GetLeftExt@CLineExtEnvironment@@QBEHXZ ; CLineExtEnvironment::GetLeftExt

; 1087 : 	m_pLineExtEnvironment->SetLineExt(bLeft,bRight);

  0015e	8b 8f f4 0c 00
	00		 mov	 ecx, DWORD PTR [edi+3316]

; 395  : 	{
; 396  : 		SetLineExtEnvironment( ( m_baseLineExtEnvironment.GetLeftExt() ? true : false),

  00164	f7 d8		 neg	 eax
  00166	1b c0		 sbb	 eax, eax
  00168	f7 d8		 neg	 eax

; 1087 : 	m_pLineExtEnvironment->SetLineExt(bLeft,bRight);

  0016a	89 45 f8	 mov	 DWORD PTR $T2[ebp], eax
  0016d	8d 45 fc	 lea	 eax, DWORD PTR $T3[ebp]
  00170	50		 push	 eax
  00171	8d 45 f8	 lea	 eax, DWORD PTR $T2[ebp]
  00174	50		 push	 eax
  00175	e8 00 00 00 00	 call	 ?SetLineExt@CLineExtEnvironment@@QAEXABH0@Z ; CLineExtEnvironment::SetLineExt

; 397  : 								( m_baseLineExtEnvironment.GetRightExt() ? true : false));
; 398  : 		
; 399  : 		CLineExtEnvironment* pLineExtEnvironment = GetLineExtEnvironment();

  0017a	8b 9f f4 0c 00
	00		 mov	 ebx, DWORD PTR [edi+3316]

; 400  : 		CLineExtEnvironment* pOrgLineExtEnvironment = GetOrgLineExtEnvironment();
; 401  : 		if(pLineExtEnvironment != NULL && pOrgLineExtEnvironment != NULL)

  00180	85 db		 test	 ebx, ebx
  00182	74 18		 je	 SHORT $LN42@ApplyOrgDa
  00184	85 f6		 test	 esi, esi
  00186	74 14		 je	 SHORT $LN42@ApplyOrgDa

; 402  : 			pLineExtEnvironment->Set(pOrgLineExtEnvironment);

  00188	56		 push	 esi
  00189	8d 4d f4	 lea	 ecx, DWORD PTR $T1[ebp]
  0018c	e8 00 00 00 00	 call	 ??0CLineExtEnvironment@@QAE@PAV0@@Z ; CLineExtEnvironment::CLineExtEnvironment
  00191	8d 45 f4	 lea	 eax, DWORD PTR $T1[ebp]
  00194	8b cb		 mov	 ecx, ebx
  00196	50		 push	 eax
  00197	e8 00 00 00 00	 call	 ?Set@CLineExtEnvironment@@QAEXABV1@@Z ; CLineExtEnvironment::Set
$LN42@ApplyOrgDa:
  0019c	5b		 pop	 ebx
$LN12@ApplyOrgDa:

; 403  : 	}
; 404  : 
; 405  : 	if(m_nEquiDivLine != G_EQUI_DIV_NONE)

  0019d	83 bf 94 0c 00
	00 ff		 cmp	 DWORD PTR [edi+3220], -1
  001a4	74 0e		 je	 SHORT $LN13@ApplyOrgDa

; 406  : 		(*m_pEquiDivEnvironment) = m_baseEquiDivEnvironment;		

  001a6	8b 8f 00 0d 00
	00		 mov	 ecx, DWORD PTR [edi+3328]
  001ac	8b 87 04 0d 00
	00		 mov	 eax, DWORD PTR [edi+3332]
  001b2	89 01		 mov	 DWORD PTR [ecx], eax
$LN13@ApplyOrgDa:

; 407  : 	
; 408  : 	// (2008/8/15 - Seung-Won, Bae) Add option for using price range.
; 409  : 	if( m_nPriceRangeDivLine != G_PRICE_RANGE_DIV_NONE)

  001b4	83 bf 98 0c 00
	00 ff		 cmp	 DWORD PTR [edi+3224], -1
  001bb	74 0e		 je	 SHORT $LN14@ApplyOrgDa

; 410  : 		( *m_pPriceRangeDivEnvironment) = m_basePriceRangeDivEnvironment;		

  001bd	8b 8f 08 0d 00
	00		 mov	 ecx, DWORD PTR [edi+3336]
  001c3	8b 87 0c 0d 00
	00		 mov	 eax, DWORD PTR [edi+3340]
  001c9	89 01		 mov	 DWORD PTR [ecx], eax
$LN14@ApplyOrgDa:
; File C:\Program Files (x86)\Microsoft Visual Studio\2019\Community\VC\Tools\MSVC\14.29.30133\atlmfc\include\afxwin2.inl

; 114  : 	{ ASSERT(::IsWindow(m_hWnd)); ::InvalidateRect(m_hWnd, NULL, bErase); }

  001cb	8b 87 9c 0c 00
	00		 mov	 eax, DWORD PTR [edi+3228]
  001d1	6a 01		 push	 1
  001d3	6a 00		 push	 0
  001d5	ff 70 20	 push	 DWORD PTR [eax+32]
  001d8	ff 15 00 00 00
	00		 call	 DWORD PTR __imp__InvalidateRect@12
  001de	5f		 pop	 edi
  001df	5e		 pop	 esi
; File D:\git\src\IBK\IBK_DRFN\ProjSrc\SrcChartEx\ChartAddIn\ChartAnalysisToolAddIn\AnalysisTool\DlgFiboSet.cpp

; 413  : }

  001e0	8b e5		 mov	 esp, ebp
  001e2	5d		 pop	 ebp
  001e3	c3		 ret	 0
?ApplyOrgData@CDlgFiboSet@@IAEXXZ ENDP			; CDlgFiboSet::ApplyOrgData
_TEXT	ENDS
; Function compile flags: /Ogtp
; File D:\git\src\IBK\IBK_DRFN\ProjSrc\SrcChartEx\ChartAddIn\ChartAnalysisToolAddIn\AnalysisTool\DlgFiboSet.cpp
; File C:\Program Files (x86)\Microsoft Visual Studio\2019\Community\VC\Tools\MSVC\14.29.30133\atlmfc\include\afxwin2.inl
; File D:\git\src\IBK\IBK_DRFN\ProjSrc\SrcChartEx\ChartAddIn\ChartAnalysisToolAddIn\AnalysisTool\DlgFiboSet.cpp
; File C:\Program Files (x86)\Microsoft Visual Studio\2019\Community\VC\Tools\MSVC\14.29.30133\atlmfc\include\afxwin2.inl
; File D:\git\src\IBK\IBK_DRFN\ProjSrc\SrcChartEx\ChartAddIn\ChartAnalysisToolAddIn\AnalysisTool\DlgFiboSet.cpp
; File C:\Program Files (x86)\Microsoft Visual Studio\2019\Community\VC\Tools\MSVC\14.29.30133\atlmfc\include\afxwin2.inl
; File D:\git\src\IBK\IBK_DRFN\ProjSrc\SrcChartEx\ChartAddIn\ChartAnalysisToolAddIn\AnalysisTool\DlgFiboSet.cpp
; File C:\Program Files (x86)\Microsoft Visual Studio\2019\Community\VC\Tools\MSVC\14.29.30133\atlmfc\include\afxwin2.inl
; File D:\git\src\IBK\IBK_DRFN\ProjSrc\SrcChartEx\ChartAddIn\ChartAnalysisToolAddIn\AnalysisTool\DlgFiboSet.cpp
; File C:\Program Files (x86)\Microsoft Visual Studio\2019\Community\VC\Tools\MSVC\14.29.30133\atlmfc\include\afxwin2.inl
; File D:\git\src\IBK\IBK_DRFN\ProjSrc\SrcChartEx\ChartAddIn\ChartAnalysisToolAddIn\AnalysisTool\DlgFiboSet.cpp
; File C:\Program Files (x86)\Microsoft Visual Studio\2019\Community\VC\Tools\MSVC\14.29.30133\atlmfc\include\afxwin2.inl
; File D:\git\src\IBK\IBK_DRFN\ProjSrc\SrcChartEx\ChartAddIn\ChartAnalysisToolAddIn\AnalysisTool\DlgFiboSet.cpp
; File C:\Program Files (x86)\Microsoft Visual Studio\2019\Community\VC\Tools\MSVC\14.29.30133\atlmfc\include\afxwin2.inl
; File D:\git\src\IBK\IBK_DRFN\ProjSrc\SrcChartEx\ChartAddIn\ChartAnalysisToolAddIn\AnalysisTool\DlgFiboSet.cpp
; File C:\Program Files (x86)\Microsoft Visual Studio\2019\Community\VC\Tools\MSVC\14.29.30133\atlmfc\include\afxwin2.inl
; File D:\git\src\IBK\IBK_DRFN\ProjSrc\SrcChartEx\ChartAddIn\ChartAnalysisToolAddIn\AnalysisTool\DlgFiboSet.cpp
; File C:\Program Files (x86)\Microsoft Visual Studio\2019\Community\VC\Tools\MSVC\14.29.30133\atlmfc\include\afxwin2.inl
; File D:\git\src\IBK\IBK_DRFN\ProjSrc\SrcChartEx\ChartAddIn\ChartAnalysisToolAddIn\AnalysisTool\DlgFiboSet.cpp
; File C:\Program Files (x86)\Microsoft Visual Studio\2019\Community\VC\Tools\MSVC\14.29.30133\atlmfc\include\afxwin2.inl
; File D:\git\src\IBK\IBK_DRFN\ProjSrc\SrcChartEx\ChartAddIn\ChartAnalysisToolAddIn\AnalysisTool\DlgFiboSet.cpp
; File C:\Program Files (x86)\Microsoft Visual Studio\2019\Community\VC\Tools\MSVC\14.29.30133\atlmfc\include\afxwin2.inl
; File D:\git\src\IBK\IBK_DRFN\ProjSrc\SrcChartEx\ChartAddIn\ChartAnalysisToolAddIn\AnalysisTool\DlgFiboSet.cpp
; File C:\Program Files (x86)\Microsoft Visual Studio\2019\Community\VC\Tools\MSVC\14.29.30133\atlmfc\include\afxwin2.inl
; File D:\git\src\IBK\IBK_DRFN\ProjSrc\SrcChartEx\ChartAddIn\ChartAnalysisToolAddIn\AnalysisTool\DlgFiboSet.cpp
;	COMDAT ?ApplyData@CDlgFiboSet@@IAEXXZ
_TEXT	SEGMENT
$T2 = -24						; size = 4
$T3 = -20						; size = 4
$T4 = -20						; size = 4
_strData$5 = -16					; size = 4
__$EHRec$ = -12						; size = 12
?ApplyData@CDlgFiboSet@@IAEXXZ PROC			; CDlgFiboSet::ApplyData, COMDAT
; _this$ = ecx

; 323  : {

  00000	55		 push	 ebp
  00001	8b ec		 mov	 ebp, esp
  00003	6a ff		 push	 -1
  00005	68 00 00 00 00	 push	 __ehhandler$?ApplyData@CDlgFiboSet@@IAEXXZ
  0000a	64 a1 00 00 00
	00		 mov	 eax, DWORD PTR fs:0
  00010	50		 push	 eax
  00011	83 ec 0c	 sub	 esp, 12			; 0000000cH
  00014	53		 push	 ebx
  00015	56		 push	 esi
  00016	57		 push	 edi
  00017	a1 00 00 00 00	 mov	 eax, DWORD PTR ___security_cookie
  0001c	33 c5		 xor	 eax, ebp
  0001e	50		 push	 eax
  0001f	8d 45 f4	 lea	 eax, DWORD PTR __$EHRec$[ebp]
  00022	64 a3 00 00 00
	00		 mov	 DWORD PTR fs:0, eax
  00028	8b f1		 mov	 esi, ecx

; 1066 : 	UpdateData(TRUE);

  0002a	6a 01		 push	 1
  0002c	e8 00 00 00 00	 call	 ?UpdateData@CWnd@@QAEHH@Z ; CWnd::UpdateData

; 1067 : 	m_pPenEnvironment->SetColor(m_ctlColor.GetColor());

  00031	8d 8e 48 02 00
	00		 lea	 ecx, DWORD PTR [esi+584]
  00037	e8 00 00 00 00	 call	 ?GetColor@CColorButton@@QBEKXZ ; CColorButton::GetColor
  0003c	8b 8e a4 0c 00
	00		 mov	 ecx, DWORD PTR [esi+3236]
  00042	89 45 ec	 mov	 DWORD PTR $T4[ebp], eax
  00045	8d 45 ec	 lea	 eax, DWORD PTR $T4[ebp]
  00048	50		 push	 eax
  00049	e8 00 00 00 00	 call	 ?SetColor@CPenEnvironment@@QAEXABK@Z ; CPenEnvironment::SetColor

; 1068 : 	m_pPenEnvironment->SetWidth(m_nWidth+1);

  0004e	8b 86 d0 0b 00
	00		 mov	 eax, DWORD PTR [esi+3024]
  00054	8b 8e a4 0c 00
	00		 mov	 ecx, DWORD PTR [esi+3236]
  0005a	40		 inc	 eax
  0005b	50		 push	 eax
  0005c	e8 00 00 00 00	 call	 ?SetWidth@CPenEnvironment@@QAEXH@Z ; CPenEnvironment::SetWidth

; 1069 : 	m_pPenEnvironment->SetStyle((CToolEnumData::PenStyle) m_nStyle);

  00061	ff b6 d4 0b 00
	00		 push	 DWORD PTR [esi+3028]
  00067	8b 8e a4 0c 00
	00		 mov	 ecx, DWORD PTR [esi+3236]
  0006d	e8 00 00 00 00	 call	 ?SetStyle@CPenEnvironment@@QAEXW4PenStyle@CToolEnumData@@@Z ; CPenEnvironment::SetStyle

; 1070 : 	
; 1071 : 	m_stAnalysisTool.crLineColor = m_ctlColor.GetColor();

  00072	8d 8e 48 02 00
	00		 lea	 ecx, DWORD PTR [esi+584]
  00078	e8 00 00 00 00	 call	 ?GetColor@CColorButton@@QBEKXZ ; CColorButton::GetColor
  0007d	89 86 5c 0c 00
	00		 mov	 DWORD PTR [esi+3164], eax

; 1072 : 	m_stAnalysisTool.nLineStyle = m_nStyle;

  00083	8b 86 d4 0b 00
	00		 mov	 eax, DWORD PTR [esi+3028]
  00089	89 86 54 0c 00
	00		 mov	 DWORD PTR [esi+3156], eax

; 1073 : 	m_stAnalysisTool.nLineWeight = m_nWidth+1;	

  0008f	8b 86 d0 0b 00
	00		 mov	 eax, DWORD PTR [esi+3024]
  00095	40		 inc	 eax

; 324  : 	SetPenEnvironment();
; 325  : 
; 326  : 	if(m_nTextPosType != G_TEXT_POS_NONE)

  00096	83 be 8c 0c 00
	00 ff		 cmp	 DWORD PTR [esi+3212], -1

; 1073 : 	m_stAnalysisTool.nLineWeight = m_nWidth+1;	

  0009d	89 86 58 0c 00
	00		 mov	 DWORD PTR [esi+3160], eax

; 324  : 	SetPenEnvironment();
; 325  : 
; 326  : 	if(m_nTextPosType != G_TEXT_POS_NONE)

  000a3	74 07		 je	 SHORT $LN5@ApplyData

; 327  : 		SetTextPosition();

  000a5	8b ce		 mov	 ecx, esi
  000a7	e8 00 00 00 00	 call	 ?SetTextPosition@CDlgFiboSet@@AAEXXZ ; CDlgFiboSet::SetTextPosition
$LN5@ApplyData:

; 328  : 
; 329  : 	if(m_nLineExtType != G_LINE_EXT_NONE)

  000ac	83 be 90 0c 00
	00 ff		 cmp	 DWORD PTR [esi+3216], -1
  000b3	8b 1d 00 00 00
	00		 mov	 ebx, DWORD PTR __imp__SendMessageA@16
  000b9	74 72		 je	 SHORT $LN6@ApplyData

; 1078 : 	UpdateData(TRUE);

  000bb	6a 01		 push	 1
  000bd	8b ce		 mov	 ecx, esi
  000bf	e8 00 00 00 00	 call	 ?UpdateData@CWnd@@QAEHH@Z ; CWnd::UpdateData
; File C:\Program Files (x86)\Microsoft Visual Studio\2019\Community\VC\Tools\MSVC\14.29.30133\atlmfc\include\afxwin2.inl

; 628  : 	{ ASSERT(::IsWindow(m_hWnd)); return (int)::SendMessage(m_hWnd, BM_GETCHECK, 0, 0); }

  000c4	6a 00		 push	 0
  000c6	6a 00		 push	 0
  000c8	68 f0 00 00 00	 push	 240			; 000000f0H
  000cd	ff b6 70 05 00
	00		 push	 DWORD PTR [esi+1392]
  000d3	ff d3		 call	 ebx
  000d5	6a 00		 push	 0
  000d7	6a 00		 push	 0
  000d9	68 f0 00 00 00	 push	 240			; 000000f0H
  000de	ff b6 f0 04 00
	00		 push	 DWORD PTR [esi+1264]
; File D:\git\src\IBK\IBK_DRFN\ProjSrc\SrcChartEx\ChartAddIn\ChartAnalysisToolAddIn\AnalysisTool\DlgFiboSet.cpp

; 1079 : 	m_pLineExtEnvironment->SetLineExt(m_ctrlLeftExt.GetCheck(),m_ctrlRightExt.GetCheck());

  000e4	89 45 ec	 mov	 DWORD PTR $T3[ebp], eax
; File C:\Program Files (x86)\Microsoft Visual Studio\2019\Community\VC\Tools\MSVC\14.29.30133\atlmfc\include\afxwin2.inl

; 628  : 	{ ASSERT(::IsWindow(m_hWnd)); return (int)::SendMessage(m_hWnd, BM_GETCHECK, 0, 0); }

  000e7	ff d3		 call	 ebx
; File D:\git\src\IBK\IBK_DRFN\ProjSrc\SrcChartEx\ChartAddIn\ChartAnalysisToolAddIn\AnalysisTool\DlgFiboSet.cpp

; 1079 : 	m_pLineExtEnvironment->SetLineExt(m_ctrlLeftExt.GetCheck(),m_ctrlRightExt.GetCheck());

  000e9	8b 8e f4 0c 00
	00		 mov	 ecx, DWORD PTR [esi+3316]
  000ef	89 45 e8	 mov	 DWORD PTR $T2[ebp], eax
  000f2	8d 45 ec	 lea	 eax, DWORD PTR $T3[ebp]
  000f5	50		 push	 eax
  000f6	8d 45 e8	 lea	 eax, DWORD PTR $T2[ebp]
  000f9	50		 push	 eax
  000fa	e8 00 00 00 00	 call	 ?SetLineExt@CLineExtEnvironment@@QAEXABH0@Z ; CLineExtEnvironment::SetLineExt
; File C:\Program Files (x86)\Microsoft Visual Studio\2019\Community\VC\Tools\MSVC\14.29.30133\atlmfc\include\afxwin2.inl

; 628  : 	{ ASSERT(::IsWindow(m_hWnd)); return (int)::SendMessage(m_hWnd, BM_GETCHECK, 0, 0); }

  000ff	6a 00		 push	 0
  00101	6a 00		 push	 0
  00103	68 f0 00 00 00	 push	 240			; 000000f0H
  00108	ff b6 f0 04 00
	00		 push	 DWORD PTR [esi+1264]
  0010e	ff d3		 call	 ebx
  00110	6a 00		 push	 0
  00112	6a 00		 push	 0
  00114	68 f0 00 00 00	 push	 240			; 000000f0H
  00119	ff b6 70 05 00
	00		 push	 DWORD PTR [esi+1392]
; File D:\git\src\IBK\IBK_DRFN\ProjSrc\SrcChartEx\ChartAddIn\ChartAnalysisToolAddIn\AnalysisTool\DlgFiboSet.cpp

; 1081 : 	m_stAnalysisTool.nLeftExt = m_ctrlLeftExt.GetCheck();

  0011f	89 86 3c 0c 00
	00		 mov	 DWORD PTR [esi+3132], eax
; File C:\Program Files (x86)\Microsoft Visual Studio\2019\Community\VC\Tools\MSVC\14.29.30133\atlmfc\include\afxwin2.inl

; 628  : 	{ ASSERT(::IsWindow(m_hWnd)); return (int)::SendMessage(m_hWnd, BM_GETCHECK, 0, 0); }

  00125	ff d3		 call	 ebx
; File D:\git\src\IBK\IBK_DRFN\ProjSrc\SrcChartEx\ChartAddIn\ChartAnalysisToolAddIn\AnalysisTool\DlgFiboSet.cpp

; 1082 : 	m_stAnalysisTool.nRightExt = m_ctrlRightExt.GetCheck();	

  00127	89 86 40 0c 00
	00		 mov	 DWORD PTR [esi+3136], eax
$LN6@ApplyData:

; 330  : 		SetLineExtEnvironment();
; 331  : 
; 332  : 	if(m_nEquiDivLine != G_EQUI_DIV_NONE)

  0012d	83 be 94 0c 00
	00 ff		 cmp	 DWORD PTR [esi+3220], -1
  00134	74 30		 je	 SHORT $LN7@ApplyData
; File C:\Program Files (x86)\Microsoft Visual Studio\2019\Community\VC\Tools\MSVC\14.29.30133\atlmfc\include\afxwin2.inl

; 628  : 	{ ASSERT(::IsWindow(m_hWnd)); return (int)::SendMessage(m_hWnd, BM_GETCHECK, 0, 0); }

  00136	6a 00		 push	 0
  00138	6a 00		 push	 0
  0013a	68 f0 00 00 00	 push	 240			; 000000f0H
  0013f	ff b6 f0 05 00
	00		 push	 DWORD PTR [esi+1520]
  00145	ff d3		 call	 ebx
; File D:\git\src\IBK\IBK_DRFN\ProjSrc\SrcChartEx\ChartAddIn\ChartAnalysisToolAddIn\AnalysisTool\DlgFiboSet.cpp

; 334  : 		(*m_pEquiDivEnvironment) = m_ctrlEquiDiv.GetCheck();

  00147	8b 8e 00 0d 00
	00		 mov	 ecx, DWORD PTR [esi+3328]
; File C:\Program Files (x86)\Microsoft Visual Studio\2019\Community\VC\Tools\MSVC\14.29.30133\atlmfc\include\afxwin2.inl

; 628  : 	{ ASSERT(::IsWindow(m_hWnd)); return (int)::SendMessage(m_hWnd, BM_GETCHECK, 0, 0); }

  0014d	6a 00		 push	 0
  0014f	6a 00		 push	 0
  00151	68 f0 00 00 00	 push	 240			; 000000f0H
; File D:\git\src\IBK\IBK_DRFN\ProjSrc\SrcChartEx\ChartAddIn\ChartAnalysisToolAddIn\AnalysisTool\DlgFiboSet.cpp

; 334  : 		(*m_pEquiDivEnvironment) = m_ctrlEquiDiv.GetCheck();

  00156	89 01		 mov	 DWORD PTR [ecx], eax
; File C:\Program Files (x86)\Microsoft Visual Studio\2019\Community\VC\Tools\MSVC\14.29.30133\atlmfc\include\afxwin2.inl

; 628  : 	{ ASSERT(::IsWindow(m_hWnd)); return (int)::SendMessage(m_hWnd, BM_GETCHECK, 0, 0); }

  00158	ff b6 f0 05 00
	00		 push	 DWORD PTR [esi+1520]
  0015e	ff d3		 call	 ebx
; File D:\git\src\IBK\IBK_DRFN\ProjSrc\SrcChartEx\ChartAddIn\ChartAnalysisToolAddIn\AnalysisTool\DlgFiboSet.cpp

; 335  : 		m_stAnalysisTool.nEquiDiv = m_ctrlEquiDiv.GetCheck();		

  00160	89 86 44 0c 00
	00		 mov	 DWORD PTR [esi+3140], eax
$LN7@ApplyData:

; 336  : 	}
; 337  : 
; 338  : 	// (2008/8/15 - Seung-Won, Bae) Add option for using price range.
; 339  : 	if( m_nPriceRangeDivLine != G_PRICE_RANGE_DIV_NONE)

  00166	83 be 98 0c 00
	00 ff		 cmp	 DWORD PTR [esi+3224], -1
  0016d	74 30		 je	 SHORT $LN8@ApplyData
; File C:\Program Files (x86)\Microsoft Visual Studio\2019\Community\VC\Tools\MSVC\14.29.30133\atlmfc\include\afxwin2.inl

; 628  : 	{ ASSERT(::IsWindow(m_hWnd)); return (int)::SendMessage(m_hWnd, BM_GETCHECK, 0, 0); }

  0016f	6a 00		 push	 0
  00171	6a 00		 push	 0
  00173	68 f0 00 00 00	 push	 240			; 000000f0H
  00178	ff b6 c8 00 00
	00		 push	 DWORD PTR [esi+200]
  0017e	ff d3		 call	 ebx
; File D:\git\src\IBK\IBK_DRFN\ProjSrc\SrcChartEx\ChartAddIn\ChartAnalysisToolAddIn\AnalysisTool\DlgFiboSet.cpp

; 341  : 		( *m_pPriceRangeDivEnvironment) = m_chkPriceRangeDiv.GetCheck();

  00180	8b 8e 08 0d 00
	00		 mov	 ecx, DWORD PTR [esi+3336]
; File C:\Program Files (x86)\Microsoft Visual Studio\2019\Community\VC\Tools\MSVC\14.29.30133\atlmfc\include\afxwin2.inl

; 628  : 	{ ASSERT(::IsWindow(m_hWnd)); return (int)::SendMessage(m_hWnd, BM_GETCHECK, 0, 0); }

  00186	6a 00		 push	 0
  00188	6a 00		 push	 0
  0018a	68 f0 00 00 00	 push	 240			; 000000f0H
; File D:\git\src\IBK\IBK_DRFN\ProjSrc\SrcChartEx\ChartAddIn\ChartAnalysisToolAddIn\AnalysisTool\DlgFiboSet.cpp

; 341  : 		( *m_pPriceRangeDivEnvironment) = m_chkPriceRangeDiv.GetCheck();

  0018f	89 01		 mov	 DWORD PTR [ecx], eax
; File C:\Program Files (x86)\Microsoft Visual Studio\2019\Community\VC\Tools\MSVC\14.29.30133\atlmfc\include\afxwin2.inl

; 628  : 	{ ASSERT(::IsWindow(m_hWnd)); return (int)::SendMessage(m_hWnd, BM_GETCHECK, 0, 0); }

  00191	ff b6 c8 00 00
	00		 push	 DWORD PTR [esi+200]
  00197	ff d3		 call	 ebx
; File D:\git\src\IBK\IBK_DRFN\ProjSrc\SrcChartEx\ChartAddIn\ChartAnalysisToolAddIn\AnalysisTool\DlgFiboSet.cpp

; 342  : 		m_stAnalysisTool.nPriceRangeDiv = m_chkPriceRangeDiv.GetCheck();		

  00199	89 86 48 0c 00
	00		 mov	 DWORD PTR [esi+3144], eax
$LN8@ApplyData:

; 343  : 	}
; 344  : 	
; 345  : 	SetDateValueLists();

  0019f	8b ce		 mov	 ecx, esi
  001a1	e8 00 00 00 00	 call	 ?SetDateValueLists@CDlgFiboSet@@AAEXXZ ; CDlgFiboSet::SetDateValueLists

; 346  : 
; 347  : 	/*	All   "All"     .
; 348  : 		=> Load       
; 349  : 	BOOL bCheck = ((CButton *)GetDlgItem(IDC_CHECK1))->GetCheck();
; 350  : 	if( bCheck )
; 351  : 	{
; 352  : 		m_pDataEnvironment->SetExtData(g_strRatio[0]);
; 353  : 	}
; 354  : 	else
; 355  : 	*/
; 356  : 	{
; 357  : 		CString strData;

  001a6	8d 4d f0	 lea	 ecx, DWORD PTR _strData$5[ebp]
  001a9	ff 15 00 00 00
	00		 call	 DWORD PTR __imp_??0?$CStringT@DV?$StrTraitMFC_DLL@DV?$ChTraitsCRT@D@ATL@@@@@ATL@@QAE@XZ
  001af	c7 45 fc 00 00
	00 00		 mov	 DWORD PTR __$EHRec$[ebp+8], 0
  001b6	33 db		 xor	 ebx, ebx
  001b8	bf 00 00 00 00	 mov	 edi, OFFSET ?g_strRatio@@3PAY0CA@DA ; g_strRatio
  001bd	0f 1f 00	 npad	 3
$LL4@ApplyData:

; 360  : 			if( ((CButton *)GetDlgItem(IDC_CHECK1 + i))->GetCheck() )

  001c0	8d 83 bd 0f 00
	00		 lea	 eax, DWORD PTR [ebx+4029]
  001c6	8b ce		 mov	 ecx, esi
  001c8	50		 push	 eax
  001c9	e8 00 00 00 00	 call	 ?GetDlgItem@CWnd@@QBEPAV1@H@Z ; CWnd::GetDlgItem
; File C:\Program Files (x86)\Microsoft Visual Studio\2019\Community\VC\Tools\MSVC\14.29.30133\atlmfc\include\afxwin2.inl

; 628  : 	{ ASSERT(::IsWindow(m_hWnd)); return (int)::SendMessage(m_hWnd, BM_GETCHECK, 0, 0); }

  001ce	6a 00		 push	 0
  001d0	6a 00		 push	 0
  001d2	68 f0 00 00 00	 push	 240			; 000000f0H
  001d7	ff 70 20	 push	 DWORD PTR [eax+32]
  001da	ff 15 00 00 00
	00		 call	 DWORD PTR __imp__SendMessageA@16
; File D:\git\src\IBK\IBK_DRFN\ProjSrc\SrcChartEx\ChartAddIn\ChartAnalysisToolAddIn\AnalysisTool\DlgFiboSet.cpp

; 360  : 			if( ((CButton *)GetDlgItem(IDC_CHECK1 + i))->GetCheck() )

  001e0	85 c0		 test	 eax, eax
  001e2	74 18		 je	 SHORT $LN2@ApplyData

; 361  : 			{
; 362  : 				strData += g_strRatio[i];

  001e4	57		 push	 edi
  001e5	8d 4d f0	 lea	 ecx, DWORD PTR _strData$5[ebp]
  001e8	ff 15 00 00 00
	00		 call	 DWORD PTR __imp_??Y?$CStringT@DV?$StrTraitMFC_DLL@DV?$ChTraitsCRT@D@ATL@@@@@ATL@@QAEAAV01@PBD@Z

; 363  : 				strData += ",";

  001ee	68 00 00 00 00	 push	 OFFSET ??_C@_01IHBHIGKO@?0@
  001f3	8d 4d f0	 lea	 ecx, DWORD PTR _strData$5[ebp]
  001f6	ff 15 00 00 00
	00		 call	 DWORD PTR __imp_??Y?$CStringT@DV?$StrTraitMFC_DLL@DV?$ChTraitsCRT@D@ATL@@@@@ATL@@QAEAAV01@PBD@Z
$LN2@ApplyData:

; 358  : 		for( int i=0; i<g_nRationCnt; i++ )

  001fc	83 c7 20	 add	 edi, 32			; 00000020H
  001ff	43		 inc	 ebx
  00200	81 ff 80 01 00
	00		 cmp	 edi, OFFSET ?g_strRatio@@3PAY0CA@DA+384
  00206	7c b8		 jl	 SHORT $LL4@ApplyData

; 364  : 			}
; 365  : 		}
; 366  : 		m_pDataEnvironment->SetExtData(strData);

  00208	8b 8e d8 0b 00
	00		 mov	 ecx, DWORD PTR [esi+3032]
  0020e	8d 45 f0	 lea	 eax, DWORD PTR _strData$5[ebp]
  00211	50		 push	 eax
  00212	e8 00 00 00 00	 call	 ?SetExtData@CDataTypeEnvironment@@QAEXABV?$CStringT@DV?$StrTraitMFC_DLL@DV?$ChTraitsCRT@D@ATL@@@@@ATL@@@Z ; CDataTypeEnvironment::SetExtData

; 367  : 	}

  00217	8d 4d f0	 lea	 ecx, DWORD PTR _strData$5[ebp]
  0021a	ff 15 00 00 00
	00		 call	 DWORD PTR __imp_??1?$CStringT@DV?$StrTraitMFC_DLL@DV?$ChTraitsCRT@D@ATL@@@@@ATL@@QAE@XZ
; File C:\Program Files (x86)\Microsoft Visual Studio\2019\Community\VC\Tools\MSVC\14.29.30133\atlmfc\include\afxwin2.inl

; 114  : 	{ ASSERT(::IsWindow(m_hWnd)); ::InvalidateRect(m_hWnd, NULL, bErase); }

  00220	8b 86 9c 0c 00
	00		 mov	 eax, DWORD PTR [esi+3228]
  00226	6a 01		 push	 1
  00228	6a 00		 push	 0
  0022a	ff 70 20	 push	 DWORD PTR [eax+32]
  0022d	ff 15 00 00 00
	00		 call	 DWORD PTR __imp__InvalidateRect@12
; File D:\git\src\IBK\IBK_DRFN\ProjSrc\SrcChartEx\ChartAddIn\ChartAnalysisToolAddIn\AnalysisTool\DlgFiboSet.cpp

; 370  : }

  00233	8b 4d f4	 mov	 ecx, DWORD PTR __$EHRec$[ebp]
  00236	64 89 0d 00 00
	00 00		 mov	 DWORD PTR fs:0, ecx
  0023d	59		 pop	 ecx
  0023e	5f		 pop	 edi
  0023f	5e		 pop	 esi
  00240	5b		 pop	 ebx
  00241	8b e5		 mov	 esp, ebp
  00243	5d		 pop	 ebp
  00244	c3		 ret	 0
_TEXT	ENDS
;	COMDAT text$x
text$x	SEGMENT
__unwindfunclet$?ApplyData@CDlgFiboSet@@IAEXXZ$0:
  00000	8d 4d f0	 lea	 ecx, DWORD PTR _strData$5[ebp]
  00003	ff 25 00 00 00
	00		 jmp	 DWORD PTR __imp_??1?$CStringT@DV?$StrTraitMFC_DLL@DV?$ChTraitsCRT@D@ATL@@@@@ATL@@QAE@XZ
  00009	cc		 int	 3
  0000a	cc		 int	 3
  0000b	cc		 int	 3
  0000c	cc		 int	 3
  0000d	cc		 int	 3
__ehhandler$?ApplyData@CDlgFiboSet@@IAEXXZ:
  0000e	90		 npad	 1
  0000f	90		 npad	 1
  00010	8b 54 24 08	 mov	 edx, DWORD PTR [esp+8]
  00014	8d 42 0c	 lea	 eax, DWORD PTR [edx+12]
  00017	8b 4a e4	 mov	 ecx, DWORD PTR [edx-28]
  0001a	33 c8		 xor	 ecx, eax
  0001c	e8 00 00 00 00	 call	 @__security_check_cookie@4
  00021	b8 00 00 00 00	 mov	 eax, OFFSET __ehfuncinfo$?ApplyData@CDlgFiboSet@@IAEXXZ
  00026	e9 00 00 00 00	 jmp	 ___CxxFrameHandler3
text$x	ENDS
?ApplyData@CDlgFiboSet@@IAEXXZ ENDP			; CDlgFiboSet::ApplyData
; Function compile flags: /Ogtp
; File D:\git\src\IBK\IBK_DRFN\ProjSrc\SrcChartEx\ChartAddIn\ChartAnalysisToolAddIn\AnalysisTool\DlgFiboSet.cpp
; File C:\Program Files (x86)\Microsoft Visual Studio\2019\Community\VC\Tools\MSVC\14.29.30133\atlmfc\include\afxwin2.inl
; File D:\git\src\IBK\IBK_DRFN\ProjSrc\SrcChartEx\ChartAddIn\ChartAnalysisToolAddIn\AnalysisTool\DlgFiboSet.cpp
; File C:\Program Files (x86)\Microsoft Visual Studio\2019\Community\VC\Tools\MSVC\14.29.30133\atlmfc\include\afxwin1.inl
; File D:\git\src\IBK\IBK_DRFN\ProjSrc\SrcChartEx\ChartAddIn\ChartAnalysisToolAddIn\Include_Chart\Dll_Load\IMetaTable.h
; File C:\Program Files (x86)\Microsoft Visual Studio\2019\Community\VC\Tools\MSVC\14.29.30133\atlmfc\include\afxwin1.inl
; File D:\git\src\IBK\IBK_DRFN\ProjSrc\SrcChartEx\ChartAddIn\ChartAnalysisToolAddIn\AnalysisTool\DlgFiboSet.cpp
; File D:\git\src\IBK\IBK_DRFN\ProjSrc\SrcChartEx\ChartAddIn\ChartAnalysisToolAddIn\Include_Chart\Dll_Load\IMetaTable.h
; File C:\Program Files (x86)\Microsoft Visual Studio\2019\Community\VC\Tools\MSVC\14.29.30133\atlmfc\include\afxwin1.inl
; File D:\git\src\IBK\IBK_DRFN\ProjSrc\SrcChartEx\ChartAddIn\ChartAnalysisToolAddIn\Include_Chart\Dll_Load\IMetaTable.h
; File C:\Program Files (x86)\Microsoft Visual Studio\2019\Community\VC\Tools\MSVC\14.29.30133\atlmfc\include\afxwin1.inl
; File D:\git\src\IBK\IBK_DRFN\ProjSrc\SrcChartEx\ChartAddIn\ChartAnalysisToolAddIn\AnalysisTool\DlgFiboSet.cpp
; File C:\Program Files (x86)\Microsoft Visual Studio\2019\Community\VC\Tools\MSVC\14.29.30133\atlmfc\include\afxwin1.inl
; File D:\git\src\IBK\IBK_DRFN\ProjSrc\SrcChartEx\ChartAddIn\ChartAnalysisToolAddIn\Include_Chart\Dll_Load\IMetaTable.h
; File C:\Program Files (x86)\Microsoft Visual Studio\2019\Community\VC\Tools\MSVC\14.29.30133\atlmfc\include\afxwin1.inl
; File D:\git\src\IBK\IBK_DRFN\ProjSrc\SrcChartEx\ChartAddIn\ChartAnalysisToolAddIn\AnalysisTool\DlgFiboSet.cpp
; File D:\git\src\IBK\IBK_DRFN\ProjSrc\SrcChartEx\ChartAddIn\ChartAnalysisToolAddIn\Include_Chart\Dll_Load\IMetaTable.h
; File C:\Program Files (x86)\Microsoft Visual Studio\2019\Community\VC\Tools\MSVC\14.29.30133\atlmfc\include\afxwin1.inl
; File D:\git\src\IBK\IBK_DRFN\ProjSrc\SrcChartEx\ChartAddIn\ChartAnalysisToolAddIn\AnalysisTool\DlgFiboSet.cpp
; File D:\git\src\IBK\IBK_DRFN\ProjSrc\SrcChartEx\ChartAddIn\ChartAnalysisToolAddIn\Include_Chart\Dll_Load\IMetaTable.h
; File C:\Program Files (x86)\Microsoft Visual Studio\2019\Community\VC\Tools\MSVC\14.29.30133\atlmfc\include\afxwin1.inl
; File D:\git\src\IBK\IBK_DRFN\ProjSrc\SrcChartEx\ChartAddIn\ChartAnalysisToolAddIn\AnalysisTool\DlgFiboSet.cpp
; File C:\Program Files (x86)\Microsoft Visual Studio\2019\Community\VC\Tools\MSVC\14.29.30133\atlmfc\include\afxwin2.inl
; File C:\Program Files (x86)\Microsoft Visual Studio\2019\Community\VC\Tools\MSVC\14.29.30133\atlmfc\include\atltypes.h
; File C:\Program Files (x86)\Microsoft Visual Studio\2019\Community\VC\Tools\MSVC\14.29.30133\atlmfc\include\afxwin2.inl
; File D:\git\src\IBK\IBK_DRFN\ProjSrc\SrcChartEx\ChartAddIn\ChartAnalysisToolAddIn\AnalysisTool\DlgFiboSet.cpp
; File C:\Program Files (x86)\Microsoft Visual Studio\2019\Community\VC\Tools\MSVC\14.29.30133\atlmfc\include\afxwin2.inl
; File D:\git\src\IBK\IBK_DRFN\ProjSrc\SrcChartEx\ChartAddIn\ChartAnalysisToolAddIn\AnalysisTool\DlgFiboSet.cpp
; File C:\Program Files (x86)\Microsoft Visual Studio\2019\Community\VC\Tools\MSVC\14.29.30133\atlmfc\include\afxwin2.inl
; File D:\git\src\IBK\IBK_DRFN\ProjSrc\SrcChartEx\ChartAddIn\ChartAnalysisToolAddIn\AnalysisTool\DlgFiboSet.cpp
; File C:\Program Files (x86)\Microsoft Visual Studio\2019\Community\VC\Tools\MSVC\14.29.30133\atlmfc\include\afxwin2.inl
; File D:\git\src\IBK\IBK_DRFN\ProjSrc\SrcChartEx\ChartAddIn\ChartAnalysisToolAddIn\AnalysisTool\DlgFiboSet.cpp
; File C:\Program Files (x86)\Microsoft Visual Studio\2019\Community\VC\Tools\MSVC\14.29.30133\atlmfc\include\atltypes.h
; File D:\git\src\IBK\IBK_DRFN\ProjSrc\SrcChartEx\ChartAddIn\ChartAnalysisToolAddIn\AnalysisTool\DlgFiboSet.cpp
; File C:\Program Files (x86)\Microsoft Visual Studio\2019\Community\VC\Tools\MSVC\14.29.30133\atlmfc\include\afxwin2.inl
; File D:\git\src\IBK\IBK_DRFN\ProjSrc\SrcChartEx\ChartAddIn\ChartAnalysisToolAddIn\AnalysisTool\DlgFiboSet.cpp
; File C:\Program Files (x86)\Microsoft Visual Studio\2019\Community\VC\Tools\MSVC\14.29.30133\atlmfc\include\afxwin2.inl
; File D:\git\src\IBK\IBK_DRFN\ProjSrc\SrcChartEx\ChartAddIn\ChartAnalysisToolAddIn\AnalysisTool\DlgFiboSet.cpp
; File C:\Program Files (x86)\Microsoft Visual Studio\2019\Community\VC\Tools\MSVC\14.29.30133\atlmfc\include\afxwin2.inl
; File C:\Program Files (x86)\Microsoft Visual Studio\2019\Community\VC\Tools\MSVC\14.29.30133\atlmfc\include\atltypes.h
; File D:\git\src\IBK\IBK_DRFN\ProjSrc\SrcChartEx\ChartAddIn\ChartAnalysisToolAddIn\AnalysisTool\DlgFiboSet.cpp
; File D:\git\src\IBK\IBK_DRFN\ProjSrc\SrcChartEx\ChartAddIn\ChartAnalysisToolAddIn\Include_Chart\Dll_Load\IMetaTable.h
; File D:\git\src\IBK\IBK_DRFN\ProjSrc\SrcChartEx\ChartAddIn\ChartAnalysisToolAddIn\AnalysisTool\DlgFiboSet.cpp
; File D:\git\src\IBK\IBK_DRFN\ProjSrc\SrcChartEx\ChartAddIn\ChartAnalysisToolAddIn\Include_Chart\Dll_Load\IMetaTable.h
; File D:\git\src\IBK\IBK_DRFN\ProjSrc\SrcChartEx\ChartAddIn\ChartAnalysisToolAddIn\AnalysisTool\DlgFiboSet.cpp
; File C:\Program Files (x86)\Microsoft Visual Studio\2019\Community\VC\Tools\MSVC\14.29.30133\atlmfc\include\afxwin2.inl
; File C:\Program Files (x86)\Microsoft Visual Studio\2019\Community\VC\Tools\MSVC\14.29.30133\atlmfc\include\atltypes.h
; File D:\git\src\IBK\IBK_DRFN\ProjSrc\SrcChartEx\ChartAddIn\ChartAnalysisToolAddIn\AnalysisTool\DlgFiboSet.cpp
; File C:\Program Files (x86)\Microsoft Visual Studio\2019\Community\VC\Tools\MSVC\14.29.30133\atlmfc\include\afxwin2.inl
; File C:\Program Files (x86)\Microsoft Visual Studio\2019\Community\VC\Tools\MSVC\14.29.30133\atlmfc\include\atltypes.h
; File D:\git\src\IBK\IBK_DRFN\ProjSrc\SrcChartEx\ChartAddIn\ChartAnalysisToolAddIn\AnalysisTool\DlgFiboSet.cpp
; File C:\Program Files (x86)\Microsoft Visual Studio\2019\Community\VC\Tools\MSVC\14.29.30133\atlmfc\include\afxwin2.inl
; File C:\Program Files (x86)\Microsoft Visual Studio\2019\Community\VC\Tools\MSVC\14.29.30133\atlmfc\include\atltypes.h
; File D:\git\src\IBK\IBK_DRFN\ProjSrc\SrcChartEx\ChartAddIn\ChartAnalysisToolAddIn\AnalysisTool\DlgFiboSet.cpp
; File C:\Program Files (x86)\Microsoft Visual Studio\2019\Community\VC\Tools\MSVC\14.29.30133\atlmfc\include\afxwin2.inl
; File C:\Program Files (x86)\Microsoft Visual Studio\2019\Community\VC\Tools\MSVC\14.29.30133\atlmfc\include\atltypes.h
; File D:\git\src\IBK\IBK_DRFN\ProjSrc\SrcChartEx\ChartAddIn\ChartAnalysisToolAddIn\AnalysisTool\DlgFiboSet.cpp
; File C:\Program Files (x86)\Microsoft Visual Studio\2019\Community\VC\Tools\MSVC\14.29.30133\atlmfc\include\afxwin2.inl
; File C:\Program Files (x86)\Microsoft Visual Studio\2019\Community\VC\Tools\MSVC\14.29.30133\atlmfc\include\atltypes.h
; File D:\git\src\IBK\IBK_DRFN\ProjSrc\SrcChartEx\ChartAddIn\ChartAnalysisToolAddIn\AnalysisTool\DlgFiboSet.cpp
; File C:\Program Files (x86)\Microsoft Visual Studio\2019\Community\VC\Tools\MSVC\14.29.30133\atlmfc\include\afxwin2.inl
; File C:\Program Files (x86)\Microsoft Visual Studio\2019\Community\VC\Tools\MSVC\14.29.30133\atlmfc\include\atltypes.h
; File D:\git\src\IBK\IBK_DRFN\ProjSrc\SrcChartEx\ChartAddIn\ChartAnalysisToolAddIn\AnalysisTool\DlgFiboSet.cpp
; File C:\Program Files (x86)\Microsoft Visual Studio\2019\Community\VC\Tools\MSVC\14.29.30133\atlmfc\include\afxwin2.inl
; File D:\git\src\IBK\IBK_DRFN\ProjSrc\SrcChartEx\ChartAddIn\ChartAnalysisToolAddIn\AnalysisTool\DlgFiboSet.cpp
; File C:\Program Files (x86)\Microsoft Visual Studio\2019\Community\VC\Tools\MSVC\14.29.30133\atlmfc\include\afxwin2.inl
; File D:\git\src\IBK\IBK_DRFN\ProjSrc\SrcChartEx\ChartAddIn\ChartAnalysisToolAddIn\AnalysisTool\DlgFiboSet.cpp
; File C:\Program Files (x86)\Microsoft Visual Studio\2019\Community\VC\Tools\MSVC\14.29.30133\atlmfc\include\afxwin2.inl
; File D:\git\src\IBK\IBK_DRFN\ProjSrc\SrcChartEx\ChartAddIn\ChartAnalysisToolAddIn\AnalysisTool\DlgFiboSet.cpp
; File C:\Program Files (x86)\Microsoft Visual Studio\2019\Community\VC\Tools\MSVC\14.29.30133\atlmfc\include\afxwin2.inl
; File D:\git\src\IBK\IBK_DRFN\ProjSrc\SrcChartEx\ChartAddIn\ChartAnalysisToolAddIn\AnalysisTool\DlgFiboSet.cpp
; File C:\Program Files (x86)\Microsoft Visual Studio\2019\Community\VC\Tools\MSVC\14.29.30133\atlmfc\include\afxwin2.inl
; File D:\git\src\IBK\IBK_DRFN\ProjSrc\SrcChartEx\ChartAddIn\ChartAnalysisToolAddIn\AnalysisTool\DlgFiboSet.cpp
; File C:\Program Files (x86)\Microsoft Visual Studio\2019\Community\VC\Tools\MSVC\14.29.30133\atlmfc\include\afxwin2.inl
; File D:\git\src\IBK\IBK_DRFN\ProjSrc\SrcChartEx\ChartAddIn\ChartAnalysisToolAddIn\AnalysisTool\DlgFiboSet.cpp
; File C:\Program Files (x86)\Microsoft Visual Studio\2019\Community\VC\Tools\MSVC\14.29.30133\atlmfc\include\afxwin2.inl
; File D:\git\src\IBK\IBK_DRFN\ProjSrc\SrcChartEx\ChartAddIn\ChartAnalysisToolAddIn\AnalysisTool\DlgFiboSet.cpp
; File C:\Program Files (x86)\Microsoft Visual Studio\2019\Community\VC\Tools\MSVC\14.29.30133\atlmfc\include\afxwin2.inl
; File D:\git\src\IBK\IBK_DRFN\ProjSrc\SrcChartEx\ChartAddIn\ChartAnalysisToolAddIn\AnalysisTool\DlgFiboSet.cpp
; File C:\Program Files (x86)\Microsoft Visual Studio\2019\Community\VC\Tools\MSVC\14.29.30133\atlmfc\include\afxwin2.inl
; File D:\git\src\IBK\IBK_DRFN\ProjSrc\SrcChartEx\ChartAddIn\ChartAnalysisToolAddIn\AnalysisTool\DlgFiboSet.cpp
; File C:\Program Files (x86)\Microsoft Visual Studio\2019\Community\VC\Tools\MSVC\14.29.30133\atlmfc\include\afxwin2.inl
; File D:\git\src\IBK\IBK_DRFN\ProjSrc\SrcChartEx\ChartAddIn\ChartAnalysisToolAddIn\AnalysisTool\DlgFiboSet.cpp
; File C:\Program Files (x86)\Microsoft Visual Studio\2019\Community\VC\Tools\MSVC\14.29.30133\atlmfc\include\afxwin2.inl
; File D:\git\src\IBK\IBK_DRFN\ProjSrc\SrcChartEx\ChartAddIn\ChartAnalysisToolAddIn\AnalysisTool\DlgFiboSet.cpp
; File C:\Program Files (x86)\Microsoft Visual Studio\2019\Community\VC\Tools\MSVC\14.29.30133\atlmfc\include\afxwin2.inl
; File D:\git\src\IBK\IBK_DRFN\ProjSrc\SrcChartEx\ChartAddIn\ChartAnalysisToolAddIn\AnalysisTool\DlgFiboSet.cpp
; File C:\Program Files (x86)\Microsoft Visual Studio\2019\Community\VC\Tools\MSVC\14.29.30133\atlmfc\include\afxwin1.inl
; File D:\git\src\IBK\IBK_DRFN\ProjSrc\SrcChartEx\ChartAddIn\ChartAnalysisToolAddIn\Include_Chart\Dll_Load\IMetaTable.h
; File C:\Program Files (x86)\Microsoft Visual Studio\2019\Community\VC\Tools\MSVC\14.29.30133\atlmfc\include\afxwin1.inl
; File D:\git\src\IBK\IBK_DRFN\ProjSrc\SrcChartEx\ChartAddIn\ChartAnalysisToolAddIn\AnalysisTool\DlgFiboSet.cpp
; File C:\Program Files (x86)\Microsoft Visual Studio\2019\Community\VC\Tools\MSVC\14.29.30133\atlmfc\include\afxwin2.inl
; File D:\git\src\IBK\IBK_DRFN\ProjSrc\SrcChartEx\ChartAddIn\ChartAnalysisToolAddIn\AnalysisTool\DlgFiboSet.cpp
; File C:\Program Files (x86)\Microsoft Visual Studio\2019\Community\VC\Tools\MSVC\14.29.30133\atlmfc\include\afxwin2.inl
; File D:\git\src\IBK\IBK_DRFN\ProjSrc\SrcChartEx\ChartAddIn\ChartAnalysisToolAddIn\AnalysisTool\DlgFiboSet.cpp
; File C:\Program Files (x86)\Microsoft Visual Studio\2019\Community\VC\Tools\MSVC\14.29.30133\atlmfc\include\afxwin2.inl
; File D:\git\src\IBK\IBK_DRFN\ProjSrc\SrcChartEx\ChartAddIn\ChartAnalysisToolAddIn\AnalysisTool\DlgFiboSet.cpp
; File D:\git\src\IBK\IBK_DRFN\ProjSrc\SrcChartEx\ChartAddIn\ChartAnalysisToolAddIn\Include_Chart\Dll_Load\IMetaTable.h
; File C:\Program Files (x86)\Microsoft Visual Studio\2019\Community\VC\Tools\MSVC\14.29.30133\atlmfc\include\afxwin1.inl
; File D:\git\src\IBK\IBK_DRFN\ProjSrc\SrcChartEx\ChartAddIn\ChartAnalysisToolAddIn\Include_Chart\Dll_Load\IMetaTable.h
; File C:\Program Files (x86)\Microsoft Visual Studio\2019\Community\VC\Tools\MSVC\14.29.30133\atlmfc\include\afxwin1.inl
; File D:\git\src\IBK\IBK_DRFN\ProjSrc\SrcChartEx\ChartAddIn\ChartAnalysisToolAddIn\AnalysisTool\DlgFiboSet.cpp
; File C:\Program Files (x86)\Microsoft Visual Studio\2019\Community\VC\Tools\MSVC\14.29.30133\atlmfc\include\afxwin1.inl
; File D:\git\src\IBK\IBK_DRFN\ProjSrc\SrcChartEx\ChartAddIn\ChartAnalysisToolAddIn\Include_Chart\Dll_Load\IMetaTable.h
; File C:\Program Files (x86)\Microsoft Visual Studio\2019\Community\VC\Tools\MSVC\14.29.30133\atlmfc\include\afxwin1.inl
; File D:\git\src\IBK\IBK_DRFN\ProjSrc\SrcChartEx\ChartAddIn\ChartAnalysisToolAddIn\AnalysisTool\DlgFiboSet.cpp
; File C:\Program Files (x86)\Microsoft Visual Studio\2019\Community\VC\Tools\MSVC\14.29.30133\atlmfc\include\afxwin2.inl
; File D:\git\src\IBK\IBK_DRFN\ProjSrc\SrcChartEx\ChartAddIn\ChartAnalysisToolAddIn\AnalysisTool\DlgFiboSet.cpp
; File C:\Program Files (x86)\Microsoft Visual Studio\2019\Community\VC\Tools\MSVC\14.29.30133\atlmfc\include\afxwin2.inl
; File D:\git\src\IBK\IBK_DRFN\ProjSrc\SrcChartEx\ChartAddIn\ChartAnalysisToolAddIn\AnalysisTool\DlgFiboSet.cpp
; File D:\git\src\IBK\IBK_DRFN\ProjSrc\SrcChartEx\ChartAddIn\ChartAnalysisToolAddIn\Include_Chart\Dll_Load\IMetaTable.h
; File C:\Program Files (x86)\Microsoft Visual Studio\2019\Community\VC\Tools\MSVC\14.29.30133\atlmfc\include\afxwin1.inl
; File D:\git\src\IBK\IBK_DRFN\ProjSrc\SrcChartEx\ChartAddIn\ChartAnalysisToolAddIn\Include_Chart\Dll_Load\IMetaTable.h
; File C:\Program Files (x86)\Microsoft Visual Studio\2019\Community\VC\Tools\MSVC\14.29.30133\atlmfc\include\afxwin1.inl
; File D:\git\src\IBK\IBK_DRFN\ProjSrc\SrcChartEx\ChartAddIn\ChartAnalysisToolAddIn\AnalysisTool\DlgFiboSet.cpp
; File C:\Program Files (x86)\Microsoft Visual Studio\2019\Community\VC\Tools\MSVC\14.29.30133\atlmfc\include\afxwin1.inl
; File D:\git\src\IBK\IBK_DRFN\ProjSrc\SrcChartEx\ChartAddIn\ChartAnalysisToolAddIn\Include_Chart\Dll_Load\IMetaTable.h
; File C:\Program Files (x86)\Microsoft Visual Studio\2019\Community\VC\Tools\MSVC\14.29.30133\atlmfc\include\afxwin1.inl
; File D:\git\src\IBK\IBK_DRFN\ProjSrc\SrcChartEx\ChartAddIn\ChartAnalysisToolAddIn\AnalysisTool\DlgFiboSet.cpp
; File D:\git\src\IBK\IBK_DRFN\ProjSrc\SrcChartEx\ChartAddIn\ChartAnalysisToolAddIn\Include_Chart\Dll_Load\IMetaTable.h
; File C:\Program Files (x86)\Microsoft Visual Studio\2019\Community\VC\Tools\MSVC\14.29.30133\atlmfc\include\afxwin1.inl
; File D:\git\src\IBK\IBK_DRFN\ProjSrc\SrcChartEx\ChartAddIn\ChartAnalysisToolAddIn\Include_Chart\Dll_Load\IMetaTable.h
; File C:\Program Files (x86)\Microsoft Visual Studio\2019\Community\VC\Tools\MSVC\14.29.30133\atlmfc\include\afxwin1.inl
; File D:\git\src\IBK\IBK_DRFN\ProjSrc\SrcChartEx\ChartAddIn\ChartAnalysisToolAddIn\AnalysisTool\DlgFiboSet.cpp
; File C:\Program Files (x86)\Microsoft Visual Studio\2019\Community\VC\Tools\MSVC\14.29.30133\atlmfc\include\afxwin2.inl
; File D:\git\src\IBK\IBK_DRFN\ProjSrc\SrcChartEx\ChartAddIn\ChartAnalysisToolAddIn\AnalysisTool\DlgFiboSet.cpp
; File C:\Program Files (x86)\Microsoft Visual Studio\2019\Community\VC\Tools\MSVC\14.29.30133\atlmfc\include\afxwin2.inl
; File D:\git\src\IBK\IBK_DRFN\ProjSrc\SrcChartEx\ChartAddIn\ChartAnalysisToolAddIn\AnalysisTool\DlgFiboSet.cpp
; File C:\Program Files (x86)\Microsoft Visual Studio\2019\Community\VC\Tools\MSVC\14.29.30133\atlmfc\include\afxwin1.inl
; File D:\git\src\IBK\IBK_DRFN\ProjSrc\SrcChartEx\ChartAddIn\ChartAnalysisToolAddIn\Include_Chart\Dll_Load\IMetaTable.h
; File C:\Program Files (x86)\Microsoft Visual Studio\2019\Community\VC\Tools\MSVC\14.29.30133\atlmfc\include\afxwin1.inl
; File D:\git\src\IBK\IBK_DRFN\ProjSrc\SrcChartEx\ChartAddIn\ChartAnalysisToolAddIn\AnalysisTool\DlgFiboSet.cpp
; File C:\Program Files (x86)\Microsoft Visual Studio\2019\Community\VC\Tools\MSVC\14.29.30133\atlmfc\include\afxwin2.inl
; File D:\git\src\IBK\IBK_DRFN\ProjSrc\SrcChartEx\ChartAddIn\ChartAnalysisToolAddIn\AnalysisTool\DlgFiboSet.cpp
; File C:\Program Files (x86)\Microsoft Visual Studio\2019\Community\VC\Tools\MSVC\14.29.30133\atlmfc\include\afxwin2.inl
; File D:\git\src\IBK\IBK_DRFN\ProjSrc\SrcChartEx\ChartAddIn\ChartAnalysisToolAddIn\AnalysisTool\DlgFiboSet.cpp
; File C:\Program Files (x86)\Microsoft Visual Studio\2019\Community\VC\Tools\MSVC\14.29.30133\atlmfc\include\afxwin2.inl
; File D:\git\src\IBK\IBK_DRFN\ProjSrc\SrcChartEx\ChartAddIn\ChartAnalysisToolAddIn\AnalysisTool\DlgFiboSet.cpp
; File C:\Program Files (x86)\Microsoft Visual Studio\2019\Community\VC\Tools\MSVC\14.29.30133\atlmfc\include\afxwin2.inl
; File D:\git\src\IBK\IBK_DRFN\ProjSrc\SrcChartEx\ChartAddIn\ChartAnalysisToolAddIn\AnalysisTool\DlgFiboSet.cpp
; File D:\git\src\IBK\IBK_DRFN\ProjSrc\SrcChartEx\ChartAddIn\ChartAnalysisToolAddIn\Include_Chart\Dll_Load\IMetaTable.h
; File C:\Program Files (x86)\Microsoft Visual Studio\2019\Community\VC\Tools\MSVC\14.29.30133\atlmfc\include\afxwin1.inl
; File D:\git\src\IBK\IBK_DRFN\ProjSrc\SrcChartEx\ChartAddIn\ChartAnalysisToolAddIn\Include_Chart\Dll_Load\IMetaTable.h
; File C:\Program Files (x86)\Microsoft Visual Studio\2019\Community\VC\Tools\MSVC\14.29.30133\atlmfc\include\afxwin1.inl
; File D:\git\src\IBK\IBK_DRFN\ProjSrc\SrcChartEx\ChartAddIn\ChartAnalysisToolAddIn\AnalysisTool\DlgFiboSet.cpp
; File C:\Program Files (x86)\Microsoft Visual Studio\2019\Community\VC\Tools\MSVC\14.29.30133\atlmfc\include\afxwin2.inl
; File D:\git\src\IBK\IBK_DRFN\ProjSrc\SrcChartEx\ChartAddIn\ChartAnalysisToolAddIn\AnalysisTool\DlgFiboSet.cpp
; File C:\Program Files (x86)\Microsoft Visual Studio\2019\Community\VC\Tools\MSVC\14.29.30133\atlmfc\include\afxwin2.inl
; File D:\git\src\IBK\IBK_DRFN\ProjSrc\SrcChartEx\ChartAddIn\ChartAnalysisToolAddIn\AnalysisTool\DlgFiboSet.cpp
; File C:\Program Files (x86)\Microsoft Visual Studio\2019\Community\VC\Tools\MSVC\14.29.30133\atlmfc\include\afxwin2.inl
; File D:\git\src\IBK\IBK_DRFN\ProjSrc\SrcChartEx\ChartAddIn\ChartAnalysisToolAddIn\AnalysisTool\DlgFiboSet.cpp
; File C:\Program Files (x86)\Microsoft Visual Studio\2019\Community\VC\Tools\MSVC\14.29.30133\atlmfc\include\afxwin2.inl
; File D:\git\src\IBK\IBK_DRFN\ProjSrc\SrcChartEx\ChartAddIn\ChartAnalysisToolAddIn\AnalysisTool\DlgFiboSet.cpp
; File C:\Program Files (x86)\Microsoft Visual Studio\2019\Community\VC\Tools\MSVC\14.29.30133\atlmfc\include\afxwin2.inl
; File D:\git\src\IBK\IBK_DRFN\ProjSrc\SrcChartEx\ChartAddIn\ChartAnalysisToolAddIn\AnalysisTool\DlgFiboSet.cpp
; File C:\Program Files (x86)\Microsoft Visual Studio\2019\Community\VC\Tools\MSVC\14.29.30133\atlmfc\include\afxwin2.inl
; File D:\git\src\IBK\IBK_DRFN\ProjSrc\SrcChartEx\ChartAddIn\ChartAnalysisToolAddIn\AnalysisTool\DlgFiboSet.cpp
; File C:\Program Files (x86)\Microsoft Visual Studio\2019\Community\VC\Tools\MSVC\14.29.30133\atlmfc\include\afxwin2.inl
; File D:\git\src\IBK\IBK_DRFN\ProjSrc\SrcChartEx\ChartAddIn\ChartAnalysisToolAddIn\AnalysisTool\DlgFiboSet.cpp
; File C:\Program Files (x86)\Microsoft Visual Studio\2019\Community\VC\Tools\MSVC\14.29.30133\atlmfc\include\afxwin2.inl
; File D:\git\src\IBK\IBK_DRFN\ProjSrc\SrcChartEx\ChartAddIn\ChartAnalysisToolAddIn\AnalysisTool\DlgFiboSet.cpp
; File C:\Program Files (x86)\Microsoft Visual Studio\2019\Community\VC\Tools\MSVC\14.29.30133\atlmfc\include\afxwin2.inl
; File D:\git\src\IBK\IBK_DRFN\ProjSrc\SrcChartEx\ChartAddIn\ChartAnalysisToolAddIn\AnalysisTool\DlgFiboSet.cpp
; File C:\Program Files (x86)\Microsoft Visual Studio\2019\Community\VC\Tools\MSVC\14.29.30133\atlmfc\include\afxwin2.inl
; File D:\git\src\IBK\IBK_DRFN\ProjSrc\SrcChartEx\ChartAddIn\ChartAnalysisToolAddIn\AnalysisTool\DlgFiboSet.cpp
; File C:\Program Files (x86)\Microsoft Visual Studio\2019\Community\VC\Tools\MSVC\14.29.30133\atlmfc\include\afxwin2.inl
; File D:\git\src\IBK\IBK_DRFN\ProjSrc\SrcChartEx\ChartAddIn\ChartAnalysisToolAddIn\AnalysisTool\DlgFiboSet.cpp
; File C:\Program Files (x86)\Microsoft Visual Studio\2019\Community\VC\Tools\MSVC\14.29.30133\atlmfc\include\afxwin2.inl
; File D:\git\src\IBK\IBK_DRFN\ProjSrc\SrcChartEx\ChartAddIn\ChartAnalysisToolAddIn\AnalysisTool\DlgFiboSet.cpp
; File C:\Program Files (x86)\Microsoft Visual Studio\2019\Community\VC\Tools\MSVC\14.29.30133\atlmfc\include\afxwin2.inl
; File D:\git\src\IBK\IBK_DRFN\ProjSrc\SrcChartEx\ChartAddIn\ChartAnalysisToolAddIn\AnalysisTool\DlgFiboSet.cpp
; File C:\Program Files (x86)\Microsoft Visual Studio\2019\Community\VC\Tools\MSVC\14.29.30133\atlmfc\include\afxwin2.inl
; File D:\git\src\IBK\IBK_DRFN\ProjSrc\SrcChartEx\ChartAddIn\ChartAnalysisToolAddIn\AnalysisTool\DlgFiboSet.cpp
; File C:\Program Files (x86)\Microsoft Visual Studio\2019\Community\VC\Tools\MSVC\14.29.30133\atlmfc\include\afxwin2.inl
; File D:\git\src\IBK\IBK_DRFN\ProjSrc\SrcChartEx\ChartAddIn\ChartAnalysisToolAddIn\AnalysisTool\DlgFiboSet.cpp
; File C:\Program Files (x86)\Microsoft Visual Studio\2019\Community\VC\Tools\MSVC\14.29.30133\atlmfc\include\afxwin1.inl
; File D:\git\src\IBK\IBK_DRFN\ProjSrc\SrcChartEx\ChartAddIn\ChartAnalysisToolAddIn\Include_Chart\Dll_Load\IMetaTable.h
; File C:\Program Files (x86)\Microsoft Visual Studio\2019\Community\VC\Tools\MSVC\14.29.30133\atlmfc\include\afxwin1.inl
; File D:\git\src\IBK\IBK_DRFN\ProjSrc\SrcChartEx\ChartAddIn\ChartAnalysisToolAddIn\AnalysisTool\DlgFiboSet.cpp
; File C:\Program Files (x86)\Microsoft Visual Studio\2019\Community\VC\Tools\MSVC\14.29.30133\atlmfc\include\afxwin2.inl
; File D:\git\src\IBK\IBK_DRFN\ProjSrc\SrcChartEx\ChartAddIn\ChartAnalysisToolAddIn\AnalysisTool\DlgFiboSet.cpp
; File C:\Program Files (x86)\Microsoft Visual Studio\2019\Community\VC\Tools\MSVC\14.29.30133\atlmfc\include\afxwin2.inl
; File D:\git\src\IBK\IBK_DRFN\ProjSrc\SrcChartEx\ChartAddIn\ChartAnalysisToolAddIn\AnalysisTool\DlgFiboSet.cpp
; File C:\Program Files (x86)\Microsoft Visual Studio\2019\Community\VC\Tools\MSVC\14.29.30133\atlmfc\include\afxwin2.inl
; File D:\git\src\IBK\IBK_DRFN\ProjSrc\SrcChartEx\ChartAddIn\ChartAnalysisToolAddIn\AnalysisTool\DlgFiboSet.cpp
; File C:\Program Files (x86)\Microsoft Visual Studio\2019\Community\VC\Tools\MSVC\14.29.30133\atlmfc\include\afxwin2.inl
; File D:\git\src\IBK\IBK_DRFN\ProjSrc\SrcChartEx\ChartAddIn\ChartAnalysisToolAddIn\AnalysisTool\DlgFiboSet.cpp
; File D:\git\src\IBK\IBK_DRFN\ProjSrc\SrcChartEx\ChartAddIn\ChartAnalysisToolAddIn\Include_Chart\Dll_Load\IMetaTable.h
; File D:\git\src\IBK\IBK_DRFN\ProjSrc\SrcChartEx\ChartAddIn\ChartAnalysisToolAddIn\AnalysisTool\DlgFiboSet.cpp
; File C:\Program Files (x86)\Microsoft Visual Studio\2019\Community\VC\Tools\MSVC\14.29.30133\atlmfc\include\afxwin1.inl
; File D:\git\src\IBK\IBK_DRFN\ProjSrc\SrcChartEx\ChartAddIn\ChartAnalysisToolAddIn\Include_Chart\Dll_Load\IMetaTable.h
; File C:\Program Files (x86)\Microsoft Visual Studio\2019\Community\VC\Tools\MSVC\14.29.30133\atlmfc\include\afxwin1.inl
; File D:\git\src\IBK\IBK_DRFN\ProjSrc\SrcChartEx\ChartAddIn\ChartAnalysisToolAddIn\AnalysisTool\DlgFiboSet.cpp
; File C:\Program Files (x86)\Microsoft Visual Studio\2019\Community\VC\Tools\MSVC\14.29.30133\atlmfc\include\afxwin2.inl
; File D:\git\src\IBK\IBK_DRFN\ProjSrc\SrcChartEx\ChartAddIn\ChartAnalysisToolAddIn\AnalysisTool\DlgFiboSet.cpp
; File C:\Program Files (x86)\Microsoft Visual Studio\2019\Community\VC\Tools\MSVC\14.29.30133\atlmfc\include\afxwin2.inl
; File D:\git\src\IBK\IBK_DRFN\ProjSrc\SrcChartEx\ChartAddIn\ChartAnalysisToolAddIn\AnalysisTool\DlgFiboSet.cpp
; File D:\git\src\IBK\IBK_DRFN\ProjSrc\SrcChartEx\ChartAddIn\ChartAnalysisToolAddIn\Include_Chart\Dll_Load\IMetaTable.h
; File D:\git\src\IBK\IBK_DRFN\ProjSrc\SrcChartEx\ChartAddIn\ChartAnalysisToolAddIn\AnalysisTool\DlgFiboSet.cpp
; File C:\Program Files (x86)\Microsoft Visual Studio\2019\Community\VC\Tools\MSVC\14.29.30133\atlmfc\include\cstringt.h
; File D:\git\src\IBK\IBK_DRFN\ProjSrc\SrcChartEx\ChartAddIn\ChartAnalysisToolAddIn\AnalysisTool\DlgFiboSet.cpp
; File C:\Program Files (x86)\Microsoft Visual Studio\2019\Community\VC\Tools\MSVC\14.29.30133\atlmfc\include\cstringt.h
; File D:\git\src\IBK\IBK_DRFN\ProjSrc\SrcChartEx\ChartAddIn\ChartAnalysisToolAddIn\AnalysisTool\DlgFiboSet.cpp
; File C:\Program Files (x86)\Microsoft Visual Studio\2019\Community\VC\Tools\MSVC\14.29.30133\atlmfc\include\atlsimpstr.h
; File D:\git\src\IBK\IBK_DRFN\ProjSrc\SrcChartEx\ChartAddIn\ChartAnalysisToolAddIn\AnalysisTool\DlgFiboSet.cpp
; File C:\Program Files (x86)\Microsoft Visual Studio\2019\Community\VC\Tools\MSVC\14.29.30133\atlmfc\include\atlsimpstr.h
; File D:\git\src\IBK\IBK_DRFN\ProjSrc\SrcChartEx\ChartAddIn\ChartAnalysisToolAddIn\AnalysisTool\DlgFiboSet.cpp
;	COMDAT ?InitializeData@CDlgFiboSet@@IAEXXZ
_TEXT	SEGMENT
_nBlockColumn$2 = -72					; size = 4
_nCenter_x$3 = -68					; size = 4
_strYValue$4 = -64					; size = 4
_i$1$ = -60						; size = 4
$T5 = -60						; size = 4
_pCoordinate$1$ = -56					; size = 4
___mlrs__$6 = -56					; size = 4
___mlrs__$7 = -56					; size = 4
___mlrs__$8 = -56					; size = 4
___mlrs__$9 = -56					; size = 4
___mlrs__$10 = -56					; size = 4
___mlrs__$11 = -56					; size = 4
___mlrs__$12 = -56					; size = 4
___mlrs__$13 = -56					; size = 4
_pIChartManager$1$ = -52				; size = 4
_nTempX$3$ = -52					; size = 4
_strTitle$14 = -52					; size = 4
_strTitle$15 = -52					; size = 4
_strTitle$16 = -52					; size = 4
_strTitle$17 = -52					; size = 4
_strTitle$18 = -52					; size = 4
_strTitle$19 = -52					; size = 4
_rectPos$20 = -48					; size = 16
_rect$21 = -32						; size = 16
_dYValue$ = -24						; size = 8
_dX$22 = -24						; size = 8
__$ArrayPad$ = -16					; size = 4
__$EHRec$ = -12						; size = 12
?InitializeData@CDlgFiboSet@@IAEXXZ PROC		; CDlgFiboSet::InitializeData, COMDAT
; _this$ = ecx

; 428  : {

  00000	55		 push	 ebp
  00001	8b ec		 mov	 ebp, esp
  00003	6a ff		 push	 -1
  00005	68 00 00 00 00	 push	 __ehhandler$?InitializeData@CDlgFiboSet@@IAEXXZ
  0000a	64 a1 00 00 00
	00		 mov	 eax, DWORD PTR fs:0
  00010	50		 push	 eax
  00011	83 ec 3c	 sub	 esp, 60			; 0000003cH
  00014	a1 00 00 00 00	 mov	 eax, DWORD PTR ___security_cookie
  00019	33 c5		 xor	 eax, ebp
  0001b	89 45 f0	 mov	 DWORD PTR __$ArrayPad$[ebp], eax
  0001e	53		 push	 ebx
  0001f	56		 push	 esi
  00020	57		 push	 edi
  00021	50		 push	 eax
  00022	8d 45 f4	 lea	 eax, DWORD PTR __$EHRec$[ebp]
  00025	64 a3 00 00 00
	00		 mov	 DWORD PTR fs:0, eax
  0002b	8b d9		 mov	 ebx, ecx

; 429  : 	m_stAnalysisTool.crLineColor = m_pPenEnvironment->GetColor();

  0002d	8b 8b a4 0c 00
	00		 mov	 ecx, DWORD PTR [ebx+3236]
  00033	e8 00 00 00 00	 call	 ?GetColor@CPenEnvironment@@QBEKXZ ; CPenEnvironment::GetColor

; 430  : 	m_stAnalysisTool.nLineStyle = m_pPenEnvironment->GetStyle();

  00038	8b 8b a4 0c 00
	00		 mov	 ecx, DWORD PTR [ebx+3236]
  0003e	89 83 5c 0c 00
	00		 mov	 DWORD PTR [ebx+3164], eax
  00044	e8 00 00 00 00	 call	 ?GetStyle@CPenEnvironment@@QBE?AW4PenStyle@CToolEnumData@@XZ ; CPenEnvironment::GetStyle

; 431  : 	m_stAnalysisTool.nLineWeight = m_pPenEnvironment->GetWidth();

  00049	8b 8b a4 0c 00
	00		 mov	 ecx, DWORD PTR [ebx+3236]
  0004f	89 83 54 0c 00
	00		 mov	 DWORD PTR [ebx+3156], eax
  00055	e8 00 00 00 00	 call	 ?GetWidth@CPenEnvironment@@QBEHXZ ; CPenEnvironment::GetWidth

; 432  : 	m_stAnalysisTool.dEndXPos = G_NOTAVAILABLE;

  0005a	0f 28 05 00 00
	00 00		 movaps	 xmm0, XMMWORD PTR __xmm@00100000000000000010000000000000

; 433  : 	m_stAnalysisTool.dEndYValue = G_NOTAVAILABLE;
; 434  : 	m_stAnalysisTool.dStartXPos = G_NOTAVAILABLE;
; 435  : 	m_stAnalysisTool.dStartYValue = G_NOTAVAILABLE;
; 436  : 	m_stAnalysisTool.dThirdXPos = G_NOTAVAILABLE;
; 437  : 	m_stAnalysisTool.dThirdYValue = G_NOTAVAILABLE;
; 438  : 	m_stAnalysisTool.nEquiDiv = -1;
; 439  : 	m_stAnalysisTool.nPriceRangeDiv = -1;	// (2008/8/15 - Seung-Won, Bae) Add option for using price range.
; 440  : 	m_stAnalysisTool.nHLPercent = -1;
; 441  : 	m_stAnalysisTool.nFillRegion = -1;
; 442  : 	m_stAnalysisTool.nLeftExt = -1;
; 443  : 	m_stAnalysisTool.nRightExt = -1;
; 444  : 	m_stAnalysisTool.nTopText = -1;
; 445  : 	m_stAnalysisTool.nBottomText = -1;
; 446  : 	m_stAnalysisTool.nLeftText = -1;
; 447  : 	m_stAnalysisTool.nRightText = -1;
; 448  : 	
; 449  : 	SetColor(m_basePenEnvironment.GetColor());

  00061	8d 8b a8 0c 00
	00		 lea	 ecx, DWORD PTR [ebx+3240]
  00067	89 83 58 0c 00
	00		 mov	 DWORD PTR [ebx+3160], eax
  0006d	f2 0f 11 83 00
	0c 00 00	 movsd	 QWORD PTR [ebx+3072], xmm0
  00075	f2 0f 11 83 18
	0c 00 00	 movsd	 QWORD PTR [ebx+3096], xmm0
  0007d	f2 0f 11 83 f8
	0b 00 00	 movsd	 QWORD PTR [ebx+3064], xmm0
  00085	0f 11 83 08 0c
	00 00		 movups	 XMMWORD PTR [ebx+3080], xmm0
  0008c	c7 83 44 0c 00
	00 ff ff ff ff	 mov	 DWORD PTR [ebx+3140], -1
  00096	f2 0f 11 83 20
	0c 00 00	 movsd	 QWORD PTR [ebx+3104], xmm0
  0009e	c7 83 48 0c 00
	00 ff ff ff ff	 mov	 DWORD PTR [ebx+3144], -1
  000a8	c7 83 4c 0c 00
	00 ff ff ff ff	 mov	 DWORD PTR [ebx+3148], -1
  000b2	c7 83 50 0c 00
	00 ff ff ff ff	 mov	 DWORD PTR [ebx+3152], -1
  000bc	c7 83 3c 0c 00
	00 ff ff ff ff	 mov	 DWORD PTR [ebx+3132], -1
  000c6	c7 83 40 0c 00
	00 ff ff ff ff	 mov	 DWORD PTR [ebx+3136], -1
  000d0	c7 83 34 0c 00
	00 ff ff ff ff	 mov	 DWORD PTR [ebx+3124], -1
  000da	c7 83 38 0c 00
	00 ff ff ff ff	 mov	 DWORD PTR [ebx+3128], -1
  000e4	c7 83 28 0c 00
	00 ff ff ff ff	 mov	 DWORD PTR [ebx+3112], -1
  000ee	c7 83 2c 0c 00
	00 ff ff ff ff	 mov	 DWORD PTR [ebx+3116], -1
  000f8	e8 00 00 00 00	 call	 ?GetColor@CPenEnvironment@@QBEKXZ ; CPenEnvironment::GetColor
  000fd	89 45 c4	 mov	 DWORD PTR $T5[ebp], eax

; 1092 : 	m_ctlColor.SetColor(color);

  00100	8d 8b 48 02 00
	00		 lea	 ecx, DWORD PTR [ebx+584]
  00106	8d 45 c4	 lea	 eax, DWORD PTR $T5[ebp]
  00109	50		 push	 eax
  0010a	e8 00 00 00 00	 call	 ?SetColor@CColorButton@@QAEXABK@Z ; CColorButton::SetColor
; File C:\Program Files (x86)\Microsoft Visual Studio\2019\Community\VC\Tools\MSVC\14.29.30133\atlmfc\include\afxwin2.inl

; 114  : 	{ ASSERT(::IsWindow(m_hWnd)); ::InvalidateRect(m_hWnd, NULL, bErase); }

  0010f	6a 01		 push	 1
  00111	6a 00		 push	 0
  00113	ff b3 68 02 00
	00		 push	 DWORD PTR [ebx+616]
  00119	ff 15 00 00 00
	00		 call	 DWORD PTR __imp__InvalidateRect@12
; File D:\git\src\IBK\IBK_DRFN\ProjSrc\SrcChartEx\ChartAddIn\ChartAnalysisToolAddIn\AnalysisTool\DlgFiboSet.cpp

; 1045 : 	ML_SET_DEFAULT_RES();

  0011f	e8 00 00 00 00	 call	 ?AfxGetStaticModuleState@@YGPAVAFX_MODULE_STATE@@XZ ; AfxGetStaticModuleState
  00124	8b 78 08	 mov	 edi, DWORD PTR [eax+8]
; File C:\Program Files (x86)\Microsoft Visual Studio\2019\Community\VC\Tools\MSVC\14.29.30133\atlmfc\include\afxwin1.inl

; 25   : 		return afxCurrentResourceHandle; }

  00127	e8 00 00 00 00	 call	 ?AfxGetModuleState@@YGPAVAFX_MODULE_STATE@@XZ ; AfxGetModuleState
; File D:\git\src\IBK\IBK_DRFN\ProjSrc\SrcChartEx\ChartAddIn\ChartAnalysisToolAddIn\Include_Chart\Dll_Load\IMetaTable.h

; 1034 : 		m_hInstance = AfxGetResourceHandle();

  0012c	8b 70 0c	 mov	 esi, DWORD PTR [eax+12]
  0012f	89 75 c8	 mov	 DWORD PTR ___mlrs__$7[ebp], esi
; File C:\Program Files (x86)\Microsoft Visual Studio\2019\Community\VC\Tools\MSVC\14.29.30133\atlmfc\include\afxwin1.inl

; 27   : 	{ ASSERT(hInstResource != NULL); afxCurrentResourceHandle = hInstResource; }

  00132	e8 00 00 00 00	 call	 ?AfxGetModuleState@@YGPAVAFX_MODULE_STATE@@XZ ; AfxGetModuleState
  00137	89 78 0c	 mov	 DWORD PTR [eax+12], edi
; File D:\git\src\IBK\IBK_DRFN\ProjSrc\SrcChartEx\ChartAddIn\ChartAnalysisToolAddIn\AnalysisTool\DlgFiboSet.cpp

; 1047 : 	m_ctlWidth.LoadBitmap(IDB_LINEWIDTH, 5);

  0013a	6a 05		 push	 5
  0013c	68 3c 23 00 00	 push	 9020			; 0000233cH
  00141	8d 8b b8 01 00
	00		 lea	 ecx, DWORD PTR [ebx+440]
  00147	c7 45 fc 00 00
	00 00		 mov	 DWORD PTR __$EHRec$[ebp+8], 0
  0014e	e8 00 00 00 00	 call	 ?LoadBitmapA@CBitmapComboBox@@QAEXHI@Z ; CBitmapComboBox::LoadBitmapA

; 1048 : 	if(m_basePenEnvironment.GetWidth() <= 0)

  00153	8d 8b a8 0c 00
	00		 lea	 ecx, DWORD PTR [ebx+3240]
  00159	e8 00 00 00 00	 call	 ?GetWidth@CPenEnvironment@@QBEHXZ ; CPenEnvironment::GetWidth
  0015e	85 c0		 test	 eax, eax
  00160	7f 04		 jg	 SHORT $LN70@Initialize

; 1049 : 		m_nWidth = 0;

  00162	33 c0		 xor	 eax, eax
  00164	eb 23		 jmp	 SHORT $LN73@Initialize
$LN70@Initialize:

; 1050 : 	else if(m_basePenEnvironment.GetWidth() >= 6)

  00166	8d 8b a8 0c 00
	00		 lea	 ecx, DWORD PTR [ebx+3240]
  0016c	e8 00 00 00 00	 call	 ?GetWidth@CPenEnvironment@@QBEHXZ ; CPenEnvironment::GetWidth
  00171	83 f8 06	 cmp	 eax, 6
  00174	7c 07		 jl	 SHORT $LN72@Initialize

; 1051 : 		m_nWidth = 4;

  00176	b8 04 00 00 00	 mov	 eax, 4
  0017b	eb 0c		 jmp	 SHORT $LN73@Initialize
$LN72@Initialize:

; 1052 : 	else
; 1053 : 		m_nWidth = m_basePenEnvironment.GetWidth() -1;

  0017d	8d 8b a8 0c 00
	00		 lea	 ecx, DWORD PTR [ebx+3240]
  00183	e8 00 00 00 00	 call	 ?GetWidth@CPenEnvironment@@QBEHXZ ; CPenEnvironment::GetWidth
  00188	48		 dec	 eax
$LN73@Initialize:
; File D:\git\src\IBK\IBK_DRFN\ProjSrc\SrcChartEx\ChartAddIn\ChartAnalysisToolAddIn\Include_Chart\Dll_Load\IMetaTable.h

; 1038 : 	{

  00189	c7 45 fc 01 00
	00 00		 mov	 DWORD PTR __$EHRec$[ebp+8], 1
  00190	89 83 d0 0b 00
	00		 mov	 DWORD PTR [ebx+3024], eax
; File C:\Program Files (x86)\Microsoft Visual Studio\2019\Community\VC\Tools\MSVC\14.29.30133\atlmfc\include\afxwin1.inl

; 27   : 	{ ASSERT(hInstResource != NULL); afxCurrentResourceHandle = hInstResource; }

  00196	e8 00 00 00 00	 call	 ?AfxGetModuleState@@YGPAVAFX_MODULE_STATE@@XZ ; AfxGetModuleState
; File D:\git\src\IBK\IBK_DRFN\ProjSrc\SrcChartEx\ChartAddIn\ChartAnalysisToolAddIn\Include_Chart\Dll_Load\IMetaTable.h

; 1040 : 	}

  0019b	c7 45 fc ff ff
	ff ff		 mov	 DWORD PTR __$EHRec$[ebp+8], -1
; File C:\Program Files (x86)\Microsoft Visual Studio\2019\Community\VC\Tools\MSVC\14.29.30133\atlmfc\include\afxwin1.inl

; 27   : 	{ ASSERT(hInstResource != NULL); afxCurrentResourceHandle = hInstResource; }

  001a2	89 70 0c	 mov	 DWORD PTR [eax+12], esi
; File D:\git\src\IBK\IBK_DRFN\ProjSrc\SrcChartEx\ChartAddIn\ChartAnalysisToolAddIn\AnalysisTool\DlgFiboSet.cpp

; 1058 : 	ML_SET_DEFAULT_RES();

  001a5	e8 00 00 00 00	 call	 ?AfxGetStaticModuleState@@YGPAVAFX_MODULE_STATE@@XZ ; AfxGetStaticModuleState
  001aa	8b 78 08	 mov	 edi, DWORD PTR [eax+8]
; File C:\Program Files (x86)\Microsoft Visual Studio\2019\Community\VC\Tools\MSVC\14.29.30133\atlmfc\include\afxwin1.inl

; 25   : 		return afxCurrentResourceHandle; }

  001ad	e8 00 00 00 00	 call	 ?AfxGetModuleState@@YGPAVAFX_MODULE_STATE@@XZ ; AfxGetModuleState
; File D:\git\src\IBK\IBK_DRFN\ProjSrc\SrcChartEx\ChartAddIn\ChartAnalysisToolAddIn\Include_Chart\Dll_Load\IMetaTable.h

; 1034 : 		m_hInstance = AfxGetResourceHandle();

  001b2	8b 70 0c	 mov	 esi, DWORD PTR [eax+12]
  001b5	89 75 c8	 mov	 DWORD PTR ___mlrs__$6[ebp], esi
; File C:\Program Files (x86)\Microsoft Visual Studio\2019\Community\VC\Tools\MSVC\14.29.30133\atlmfc\include\afxwin1.inl

; 27   : 	{ ASSERT(hInstResource != NULL); afxCurrentResourceHandle = hInstResource; }

  001b8	e8 00 00 00 00	 call	 ?AfxGetModuleState@@YGPAVAFX_MODULE_STATE@@XZ ; AfxGetModuleState
  001bd	89 78 0c	 mov	 DWORD PTR [eax+12], edi
; File D:\git\src\IBK\IBK_DRFN\ProjSrc\SrcChartEx\ChartAddIn\ChartAnalysisToolAddIn\AnalysisTool\DlgFiboSet.cpp

; 1060 : 	m_ctlStyle.LoadBitmap(IDB_LINESTYLE, 5);

  001c0	6a 05		 push	 5
  001c2	68 41 1f 00 00	 push	 8001			; 00001f41H
  001c7	8d 8b 28 01 00
	00		 lea	 ecx, DWORD PTR [ebx+296]
  001cd	c7 45 fc 02 00
	00 00		 mov	 DWORD PTR __$EHRec$[ebp+8], 2
  001d4	e8 00 00 00 00	 call	 ?LoadBitmapA@CBitmapComboBox@@QAEXHI@Z ; CBitmapComboBox::LoadBitmapA

; 1061 : 	m_nStyle = (int) m_basePenEnvironment.GetStyle();

  001d9	8d 8b a8 0c 00
	00		 lea	 ecx, DWORD PTR [ebx+3240]
  001df	e8 00 00 00 00	 call	 ?GetStyle@CPenEnvironment@@QBE?AW4PenStyle@CToolEnumData@@XZ ; CPenEnvironment::GetStyle
  001e4	89 83 d4 0b 00
	00		 mov	 DWORD PTR [ebx+3028], eax
; File D:\git\src\IBK\IBK_DRFN\ProjSrc\SrcChartEx\ChartAddIn\ChartAnalysisToolAddIn\Include_Chart\Dll_Load\IMetaTable.h

; 1038 : 	{

  001ea	c7 45 fc 03 00
	00 00		 mov	 DWORD PTR __$EHRec$[ebp+8], 3
; File C:\Program Files (x86)\Microsoft Visual Studio\2019\Community\VC\Tools\MSVC\14.29.30133\atlmfc\include\afxwin1.inl

; 27   : 	{ ASSERT(hInstResource != NULL); afxCurrentResourceHandle = hInstResource; }

  001f1	e8 00 00 00 00	 call	 ?AfxGetModuleState@@YGPAVAFX_MODULE_STATE@@XZ ; AfxGetModuleState
; File D:\git\src\IBK\IBK_DRFN\ProjSrc\SrcChartEx\ChartAddIn\ChartAnalysisToolAddIn\AnalysisTool\DlgFiboSet.cpp

; 453  : 	UpdateData(FALSE);

  001f6	6a 00		 push	 0
  001f8	8b cb		 mov	 ecx, ebx
; File D:\git\src\IBK\IBK_DRFN\ProjSrc\SrcChartEx\ChartAddIn\ChartAnalysisToolAddIn\Include_Chart\Dll_Load\IMetaTable.h

; 1040 : 	}

  001fa	c7 45 fc ff ff
	ff ff		 mov	 DWORD PTR __$EHRec$[ebp+8], -1
; File C:\Program Files (x86)\Microsoft Visual Studio\2019\Community\VC\Tools\MSVC\14.29.30133\atlmfc\include\afxwin1.inl

; 27   : 	{ ASSERT(hInstResource != NULL); afxCurrentResourceHandle = hInstResource; }

  00201	89 70 0c	 mov	 DWORD PTR [eax+12], esi
; File D:\git\src\IBK\IBK_DRFN\ProjSrc\SrcChartEx\ChartAddIn\ChartAnalysisToolAddIn\AnalysisTool\DlgFiboSet.cpp

; 453  : 	UpdateData(FALSE);

  00204	e8 00 00 00 00	 call	 ?UpdateData@CWnd@@QAEHH@Z ; CWnd::UpdateData

; 454  : 
; 455  : 	GetDlgItem(IDC_STATIC_XDATE3)->ShowWindow(SW_HIDE);

  00209	6a 00		 push	 0
  0020b	68 ac 0f 00 00	 push	 4012			; 00000facH
  00210	8b cb		 mov	 ecx, ebx
  00212	e8 00 00 00 00	 call	 ?GetDlgItem@CWnd@@QBEPAV1@H@Z ; CWnd::GetDlgItem
  00217	8b c8		 mov	 ecx, eax
  00219	e8 00 00 00 00	 call	 ?ShowWindow@CWnd@@QAEHH@Z ; CWnd::ShowWindow

; 456  : 	GetDlgItem(IDC_STATIC_YVALUE3)->ShowWindow(SW_HIDE);

  0021e	6a 00		 push	 0
  00220	68 ad 0f 00 00	 push	 4013			; 00000fadH
  00225	8b cb		 mov	 ecx, ebx
  00227	e8 00 00 00 00	 call	 ?GetDlgItem@CWnd@@QBEPAV1@H@Z ; CWnd::GetDlgItem
  0022c	8b c8		 mov	 ecx, eax
  0022e	e8 00 00 00 00	 call	 ?ShowWindow@CWnd@@QAEHH@Z ; CWnd::ShowWindow

; 457  : 	m_ctrlXDateTime3.ShowWindow(SW_HIDE);

  00233	8d 8b 50 0b 00
	00		 lea	 ecx, DWORD PTR [ebx+2896]
  00239	6a 00		 push	 0
  0023b	e8 00 00 00 00	 call	 ?ShowWindow@CWnd@@QAEHH@Z ; CWnd::ShowWindow

; 458  : 	m_ctrlEditValue3.ShowWindow(SW_HIDE);

  00240	8d 8b d0 09 00
	00		 lea	 ecx, DWORD PTR [ebx+2512]
  00246	6a 00		 push	 0
  00248	e8 00 00 00 00	 call	 ?ShowWindow@CWnd@@QAEHH@Z ; CWnd::ShowWindow

; 459  : 
; 460  : 	m_ctrlEditXValue1.ShowWindow(SW_HIDE);

  0024d	6a 00		 push	 0
  0024f	8d 8b 50 07 00
	00		 lea	 ecx, DWORD PTR [ebx+1872]
  00255	e8 00 00 00 00	 call	 ?ShowWindow@CWnd@@QAEHH@Z ; CWnd::ShowWindow

; 461  : 	m_ctrlEditXValue2.ShowWindow(SW_HIDE);

  0025a	6a 00		 push	 0
  0025c	8d 8b d0 07 00
	00		 lea	 ecx, DWORD PTR [ebx+2000]
  00262	e8 00 00 00 00	 call	 ?ShowWindow@CWnd@@QAEHH@Z ; CWnd::ShowWindow

; 462  : 	m_ctrlEditXValue3.ShowWindow(SW_HIDE);

  00267	6a 00		 push	 0
  00269	8d 8b 50 08 00
	00		 lea	 ecx, DWORD PTR [ebx+2128]
  0026f	e8 00 00 00 00	 call	 ?ShowWindow@CWnd@@QAEHH@Z ; CWnd::ShowWindow

; 463  : 
; 464  : 	m_ctrlEquiDiv.ShowWindow(SW_HIDE);

  00274	8d 8b d0 05 00
	00		 lea	 ecx, DWORD PTR [ebx+1488]
  0027a	6a 00		 push	 0
  0027c	e8 00 00 00 00	 call	 ?ShowWindow@CWnd@@QAEHH@Z ; CWnd::ShowWindow

; 465  : 	m_ctrlCheckFill.ShowWindow(SW_HIDE);

  00281	6a 00		 push	 0
  00283	8d 8b 50 06 00
	00		 lea	 ecx, DWORD PTR [ebx+1616]
  00289	e8 00 00 00 00	 call	 ?ShowWindow@CWnd@@QAEHH@Z ; CWnd::ShowWindow

; 466  : 
; 467  : 	m_ctrlLeftExt.ShowWindow(SW_HIDE);

  0028e	6a 00		 push	 0
  00290	8d 8b d0 04 00
	00		 lea	 ecx, DWORD PTR [ebx+1232]
  00296	e8 00 00 00 00	 call	 ?ShowWindow@CWnd@@QAEHH@Z ; CWnd::ShowWindow

; 468  : 	m_ctrlRightExt.ShowWindow(SW_HIDE);

  0029b	6a 00		 push	 0
  0029d	8d 8b 50 05 00
	00		 lea	 ecx, DWORD PTR [ebx+1360]
  002a3	e8 00 00 00 00	 call	 ?ShowWindow@CWnd@@QAEHH@Z ; CWnd::ShowWindow

; 469  : 	m_ctrlTopText.ShowWindow(SW_HIDE);

  002a8	8d 8b d0 03 00
	00		 lea	 ecx, DWORD PTR [ebx+976]
  002ae	6a 00		 push	 0
  002b0	e8 00 00 00 00	 call	 ?ShowWindow@CWnd@@QAEHH@Z ; CWnd::ShowWindow

; 470  : 	m_ctrlBottomText.ShowWindow(SW_HIDE);

  002b5	8d 8b 50 04 00
	00		 lea	 ecx, DWORD PTR [ebx+1104]
  002bb	6a 00		 push	 0
  002bd	e8 00 00 00 00	 call	 ?ShowWindow@CWnd@@QAEHH@Z ; CWnd::ShowWindow

; 471  : 
; 472  : 	///////////////////////////////////////////
; 473  : 	m_ctrlCheckHL.ShowWindow(SW_HIDE);			// 

  002c2	6a 00		 push	 0
  002c4	8d 8b d0 06 00
	00		 lea	 ecx, DWORD PTR [ebx+1744]
  002ca	e8 00 00 00 00	 call	 ?ShowWindow@CWnd@@QAEHH@Z ; CWnd::ShowWindow

; 474  : 	///////////////////////////////////////////
; 475  : 
; 476  : 	// (2008/8/15 - Seung-Won, Bae) Add option for using price range.
; 477  : 	m_chkPriceRangeDiv.ShowWindow( SW_HIDE);

  002cf	8d 8b a8 00 00
	00		 lea	 ecx, DWORD PTR [ebx+168]
  002d5	6a 00		 push	 0
  002d7	e8 00 00 00 00	 call	 ?ShowWindow@CWnd@@QAEHH@Z ; CWnd::ShowWindow

; 478  : 
; 479  : 	if((CToolEnumData::ElementType)m_nElementType == CToolEnumData::Pencil_Line)

  002dc	8b 83 a0 0c 00
	00		 mov	 eax, DWORD PTR [ebx+3232]
  002e2	83 f8 23	 cmp	 eax, 35			; 00000023H
  002e5	0f 85 88 04 00
	00		 jne	 $LN7@Initialize

; 480  : 	{
; 481  : 		m_ctrlLeftText.ShowWindow(SW_HIDE);

  002eb	6a 00		 push	 0
  002ed	8d 8b d0 02 00
	00		 lea	 ecx, DWORD PTR [ebx+720]
  002f3	e8 00 00 00 00	 call	 ?ShowWindow@CWnd@@QAEHH@Z ; CWnd::ShowWindow

; 482  : 		m_ctrlRightText.ShowWindow(SW_HIDE);

  002f8	6a 00		 push	 0
  002fa	8d 8b 50 03 00
	00		 lea	 ecx, DWORD PTR [ebx+848]
  00300	e8 00 00 00 00	 call	 ?ShowWindow@CWnd@@QAEHH@Z ; CWnd::ShowWindow

; 483  : 
; 484  : 		//  
; 485  : 		m_ctrlXDateTime1.ShowWindow(SW_HIDE);

  00305	6a 00		 push	 0
  00307	8d 8b 50 0a 00
	00		 lea	 ecx, DWORD PTR [ebx+2640]
  0030d	e8 00 00 00 00	 call	 ?ShowWindow@CWnd@@QAEHH@Z ; CWnd::ShowWindow

; 486  : 		m_ctrlEditValue1.ShowWindow(SW_HIDE);

  00312	6a 00		 push	 0
  00314	8d 8b d0 08 00
	00		 lea	 ecx, DWORD PTR [ebx+2256]
  0031a	e8 00 00 00 00	 call	 ?ShowWindow@CWnd@@QAEHH@Z ; CWnd::ShowWindow

; 487  : 		GetDlgItem(IDC_STATIC_XDATE1)->ShowWindow(SW_HIDE);

  0031f	6a 00		 push	 0
  00321	68 aa 0f 00 00	 push	 4010			; 00000faaH
  00326	8b cb		 mov	 ecx, ebx
  00328	e8 00 00 00 00	 call	 ?GetDlgItem@CWnd@@QBEPAV1@H@Z ; CWnd::GetDlgItem
  0032d	8b c8		 mov	 ecx, eax
  0032f	e8 00 00 00 00	 call	 ?ShowWindow@CWnd@@QAEHH@Z ; CWnd::ShowWindow

; 488  : 		GetDlgItem(IDC_STATIC_YVALUE1)->ShowWindow(SW_HIDE);

  00334	6a 00		 push	 0
  00336	68 af 0f 00 00	 push	 4015			; 00000fafH
  0033b	8b cb		 mov	 ecx, ebx
  0033d	e8 00 00 00 00	 call	 ?GetDlgItem@CWnd@@QBEPAV1@H@Z ; CWnd::GetDlgItem
  00342	8b c8		 mov	 ecx, eax
  00344	e8 00 00 00 00	 call	 ?ShowWindow@CWnd@@QAEHH@Z ; CWnd::ShowWindow

; 489  : 
; 490  : 		m_ctrlXDateTime2.ShowWindow(SW_HIDE);

  00349	6a 00		 push	 0
  0034b	8d 8b d0 0a 00
	00		 lea	 ecx, DWORD PTR [ebx+2768]
  00351	e8 00 00 00 00	 call	 ?ShowWindow@CWnd@@QAEHH@Z ; CWnd::ShowWindow

; 491  : 		m_ctrlEditValue2.ShowWindow(SW_HIDE);

  00356	6a 00		 push	 0
  00358	8d 8b 50 09 00
	00		 lea	 ecx, DWORD PTR [ebx+2384]
  0035e	e8 00 00 00 00	 call	 ?ShowWindow@CWnd@@QAEHH@Z ; CWnd::ShowWindow

; 492  : 		GetDlgItem(IDC_STATIC_XDATE2)->ShowWindow(SW_HIDE);

  00363	6a 00		 push	 0
  00365	68 ab 0f 00 00	 push	 4011			; 00000fabH
  0036a	8b cb		 mov	 ecx, ebx
  0036c	e8 00 00 00 00	 call	 ?GetDlgItem@CWnd@@QBEPAV1@H@Z ; CWnd::GetDlgItem
  00371	8b c8		 mov	 ecx, eax
  00373	e8 00 00 00 00	 call	 ?ShowWindow@CWnd@@QAEHH@Z ; CWnd::ShowWindow

; 493  : 		GetDlgItem(IDC_STATIC_YVALUE2)->ShowWindow(SW_HIDE);

  00378	6a 00		 push	 0
  0037a	68 ae 0f 00 00	 push	 4014			; 00000faeH
  0037f	8b cb		 mov	 ecx, ebx
  00381	e8 00 00 00 00	 call	 ?GetDlgItem@CWnd@@QBEPAV1@H@Z ; CWnd::GetDlgItem
  00386	8b c8		 mov	 ecx, eax
  00388	e8 00 00 00 00	 call	 ?ShowWindow@CWnd@@QAEHH@Z ; CWnd::ShowWindow

; 494  : 
; 495  : 		GetDlgItem(IDC_TEXT_STATIC)->ShowWindow(SW_HIDE);

  0038d	6a 00		 push	 0
  0038f	68 18 27 00 00	 push	 10008			; 00002718H
  00394	8b cb		 mov	 ecx, ebx
  00396	e8 00 00 00 00	 call	 ?GetDlgItem@CWnd@@QBEPAV1@H@Z ; CWnd::GetDlgItem
  0039b	8b c8		 mov	 ecx, eax
  0039d	e8 00 00 00 00	 call	 ?ShowWindow@CWnd@@QAEHH@Z ; CWnd::ShowWindow

; 496  : 		GetDlgItem(IDC_DATE_N_VALUE_STATIC)->ShowWindow(SW_HIDE);

  003a2	6a 00		 push	 0
  003a4	68 19 27 00 00	 push	 10009			; 00002719H
  003a9	8b cb		 mov	 ecx, ebx
  003ab	e8 00 00 00 00	 call	 ?GetDlgItem@CWnd@@QBEPAV1@H@Z ; CWnd::GetDlgItem
  003b0	8b c8		 mov	 ecx, eax
  003b2	e8 00 00 00 00	 call	 ?ShowWindow@CWnd@@QAEHH@Z ; CWnd::ShowWindow
; File C:\Program Files (x86)\Microsoft Visual Studio\2019\Community\VC\Tools\MSVC\14.29.30133\atlmfc\include\afxwin2.inl

; 84   : 	{ ASSERT(::IsWindow(m_hWnd)); ::GetWindowRect(m_hWnd, lpRect); }

  003b7	8b 35 00 00 00
	00		 mov	 esi, DWORD PTR __imp__GetWindowRect@8
  003bd	8d 45 e0	 lea	 eax, DWORD PTR _rect$21[ebp]
  003c0	50		 push	 eax
  003c1	ff 73 20	 push	 DWORD PTR [ebx+32]
  003c4	0f 57 c0	 xorps	 xmm0, xmm0
; File C:\Program Files (x86)\Microsoft Visual Studio\2019\Community\VC\Tools\MSVC\14.29.30133\atlmfc\include\atltypes.h

; 528  : 	left = 0;

  003c7	0f 11 45 e0	 movups	 XMMWORD PTR _rect$21[ebp], xmm0
; File C:\Program Files (x86)\Microsoft Visual Studio\2019\Community\VC\Tools\MSVC\14.29.30133\atlmfc\include\afxwin2.inl

; 84   : 	{ ASSERT(::IsWindow(m_hWnd)); ::GetWindowRect(m_hWnd, lpRect); }

  003cb	ff d6		 call	 esi
; File D:\git\src\IBK\IBK_DRFN\ProjSrc\SrcChartEx\ChartAddIn\ChartAnalysisToolAddIn\AnalysisTool\DlgFiboSet.cpp

; 504  : 		rect.bottom -= iExpandSize;		

  003cd	8b 45 ec	 mov	 eax, DWORD PTR _rect$21[ebp+12]
; File C:\Program Files (x86)\Microsoft Visual Studio\2019\Community\VC\Tools\MSVC\14.29.30133\atlmfc\include\afxwin2.inl

; 73   : 	{ MoveWindow(lpRect->left, lpRect->top, lpRect->right - lpRect->left,

  003d0	8b 55 e4	 mov	 edx, DWORD PTR _rect$21[ebp+4]
; File D:\git\src\IBK\IBK_DRFN\ProjSrc\SrcChartEx\ChartAddIn\ChartAnalysisToolAddIn\AnalysisTool\DlgFiboSet.cpp

; 504  : 		rect.bottom -= iExpandSize;		

  003d3	2d 8c 00 00 00	 sub	 eax, 140		; 0000008cH
; File C:\Program Files (x86)\Microsoft Visual Studio\2019\Community\VC\Tools\MSVC\14.29.30133\atlmfc\include\afxwin2.inl

; 73   : 	{ MoveWindow(lpRect->left, lpRect->top, lpRect->right - lpRect->left,

  003d8	8b 4d e0	 mov	 ecx, DWORD PTR _rect$21[ebp]
; File D:\git\src\IBK\IBK_DRFN\ProjSrc\SrcChartEx\ChartAddIn\ChartAnalysisToolAddIn\AnalysisTool\DlgFiboSet.cpp

; 504  : 		rect.bottom -= iExpandSize;		

  003db	89 45 ec	 mov	 DWORD PTR _rect$21[ebp+12], eax
; File C:\Program Files (x86)\Microsoft Visual Studio\2019\Community\VC\Tools\MSVC\14.29.30133\atlmfc\include\afxwin2.inl

; 73   : 	{ MoveWindow(lpRect->left, lpRect->top, lpRect->right - lpRect->left,

  003de	2b c2		 sub	 eax, edx
  003e0	6a 01		 push	 1
  003e2	50		 push	 eax
  003e3	8b 45 e8	 mov	 eax, DWORD PTR _rect$21[ebp+8]
  003e6	2b c1		 sub	 eax, ecx
  003e8	50		 push	 eax
  003e9	52		 push	 edx
  003ea	51		 push	 ecx
  003eb	8b cb		 mov	 ecx, ebx
  003ed	e8 00 00 00 00	 call	 ?MoveWindow@CWnd@@QAEXHHHHH@Z ; CWnd::MoveWindow
  003f2	0f 57 c0	 xorps	 xmm0, xmm0
; File D:\git\src\IBK\IBK_DRFN\ProjSrc\SrcChartEx\ChartAddIn\ChartAnalysisToolAddIn\AnalysisTool\DlgFiboSet.cpp

; 508  : 		CStatic *pStatic = (CStatic *)GetDlgItem(IDC_DATE_N_VALUE_STATIC);

  003f5	8b cb		 mov	 ecx, ebx
  003f7	68 19 27 00 00	 push	 10009			; 00002719H
; File C:\Program Files (x86)\Microsoft Visual Studio\2019\Community\VC\Tools\MSVC\14.29.30133\atlmfc\include\atltypes.h

; 528  : 	left = 0;

  003fc	0f 11 45 d0	 movups	 XMMWORD PTR _rectPos$20[ebp], xmm0
; File D:\git\src\IBK\IBK_DRFN\ProjSrc\SrcChartEx\ChartAddIn\ChartAnalysisToolAddIn\AnalysisTool\DlgFiboSet.cpp

; 508  : 		CStatic *pStatic = (CStatic *)GetDlgItem(IDC_DATE_N_VALUE_STATIC);

  00400	e8 00 00 00 00	 call	 ?GetDlgItem@CWnd@@QBEPAV1@H@Z ; CWnd::GetDlgItem
; File C:\Program Files (x86)\Microsoft Visual Studio\2019\Community\VC\Tools\MSVC\14.29.30133\atlmfc\include\afxwin2.inl

; 84   : 	{ ASSERT(::IsWindow(m_hWnd)); ::GetWindowRect(m_hWnd, lpRect); }

  00405	8d 4d d0	 lea	 ecx, DWORD PTR _rectPos$20[ebp]
  00408	51		 push	 ecx
  00409	ff 70 20	 push	 DWORD PTR [eax+32]
  0040c	ff d6		 call	 esi
; File D:\git\src\IBK\IBK_DRFN\ProjSrc\SrcChartEx\ChartAddIn\ChartAnalysisToolAddIn\AnalysisTool\DlgFiboSet.cpp

; 510  : 		ScreenToClient(&rectPos);	

  0040e	8d 45 d0	 lea	 eax, DWORD PTR _rectPos$20[ebp]
  00411	8b cb		 mov	 ecx, ebx
  00413	50		 push	 eax
  00414	e8 00 00 00 00	 call	 ?ScreenToClient@CWnd@@QBEXPAUtagRECT@@@Z ; CWnd::ScreenToClient

; 511  : 
; 512  : 		int nTempX = rectPos.left;

  00419	8b 7d d0	 mov	 edi, DWORD PTR _rectPos$20[ebp]

; 514  : 		pStatic = (CStatic *)GetDlgItem(IDC_PEN_STATIC);

  0041c	8b cb		 mov	 ecx, ebx
  0041e	68 17 27 00 00	 push	 10007			; 00002717H
  00423	89 7d cc	 mov	 DWORD PTR _nTempX$3$[ebp], edi
  00426	e8 00 00 00 00	 call	 ?GetDlgItem@CWnd@@QBEPAV1@H@Z ; CWnd::GetDlgItem
; File C:\Program Files (x86)\Microsoft Visual Studio\2019\Community\VC\Tools\MSVC\14.29.30133\atlmfc\include\afxwin2.inl

; 86   : 	{ ASSERT(::IsWindow(m_hWnd)); ::GetClientRect(m_hWnd, lpRect); }

  0042b	8b 3d 00 00 00
	00		 mov	 edi, DWORD PTR __imp__GetClientRect@8
; File D:\git\src\IBK\IBK_DRFN\ProjSrc\SrcChartEx\ChartAddIn\ChartAnalysisToolAddIn\AnalysisTool\DlgFiboSet.cpp

; 514  : 		pStatic = (CStatic *)GetDlgItem(IDC_PEN_STATIC);

  00431	8b f0		 mov	 esi, eax
; File C:\Program Files (x86)\Microsoft Visual Studio\2019\Community\VC\Tools\MSVC\14.29.30133\atlmfc\include\afxwin2.inl

; 86   : 	{ ASSERT(::IsWindow(m_hWnd)); ::GetClientRect(m_hWnd, lpRect); }

  00433	8d 45 e0	 lea	 eax, DWORD PTR _rect$21[ebp]
  00436	50		 push	 eax
  00437	ff 76 20	 push	 DWORD PTR [esi+32]
  0043a	ff d7		 call	 edi
; File C:\Program Files (x86)\Microsoft Visual Studio\2019\Community\VC\Tools\MSVC\14.29.30133\atlmfc\include\atltypes.h

; 581  : 	return bottom - top;

  0043c	8b 4d ec	 mov	 ecx, DWORD PTR _rect$21[ebp+12]
  0043f	2b 4d e4	 sub	 ecx, DWORD PTR _rect$21[ebp+4]

; 576  : 	return right - left;

  00442	8b 45 e8	 mov	 eax, DWORD PTR _rect$21[ebp+8]
  00445	2b 45 e0	 sub	 eax, DWORD PTR _rect$21[ebp]
; File D:\git\src\IBK\IBK_DRFN\ProjSrc\SrcChartEx\ChartAddIn\ChartAnalysisToolAddIn\AnalysisTool\DlgFiboSet.cpp

; 516  : 		pStatic->MoveWindow(rectPos.left, rectPos.top, rect.Width(), rect.Height());

  00448	6a 01		 push	 1
  0044a	51		 push	 ecx
  0044b	50		 push	 eax
  0044c	ff 75 d4	 push	 DWORD PTR _rectPos$20[ebp+4]
  0044f	8b ce		 mov	 ecx, esi
  00451	ff 75 d0	 push	 DWORD PTR _rectPos$20[ebp]
  00454	e8 00 00 00 00	 call	 ?MoveWindow@CWnd@@QAEXHHHHH@Z ; CWnd::MoveWindow

; 517  : 
; 518  : 		GetDlgItem(IDC_STATIC_PEN_COLOR)->ShowWindow(SW_SHOW);

  00459	6a 05		 push	 5
  0045b	68 b8 0f 00 00	 push	 4024			; 00000fb8H
  00460	8b cb		 mov	 ecx, ebx
  00462	e8 00 00 00 00	 call	 ?GetDlgItem@CWnd@@QBEPAV1@H@Z ; CWnd::GetDlgItem
  00467	8b c8		 mov	 ecx, eax
  00469	e8 00 00 00 00	 call	 ?ShowWindow@CWnd@@QAEHH@Z ; CWnd::ShowWindow

; 519  : 		GetDlgItem(IDC_STATIC_PEN_STYLE)->ShowWindow(SW_SHOW);

  0046e	6a 05		 push	 5
  00470	68 ba 0f 00 00	 push	 4026			; 00000fbaH
  00475	8b cb		 mov	 ecx, ebx
  00477	e8 00 00 00 00	 call	 ?GetDlgItem@CWnd@@QBEPAV1@H@Z ; CWnd::GetDlgItem
  0047c	8b c8		 mov	 ecx, eax
  0047e	e8 00 00 00 00	 call	 ?ShowWindow@CWnd@@QAEHH@Z ; CWnd::ShowWindow

; 520  : 		GetDlgItem(IDC_STATIC_PEN_WIDTH)->ShowWindow(SW_SHOW);

  00483	6a 05		 push	 5
  00485	68 b9 0f 00 00	 push	 4025			; 00000fb9H
  0048a	8b cb		 mov	 ecx, ebx
  0048c	e8 00 00 00 00	 call	 ?GetDlgItem@CWnd@@QBEPAV1@H@Z ; CWnd::GetDlgItem
  00491	8b c8		 mov	 ecx, eax
  00493	e8 00 00 00 00	 call	 ?ShowWindow@CWnd@@QAEHH@Z ; CWnd::ShowWindow
; File D:\git\src\IBK\IBK_DRFN\ProjSrc\SrcChartEx\ChartAddIn\ChartAnalysisToolAddIn\Include_Chart\Dll_Load\IMetaTable.h

; 937  : 	DECLARE_FUNCTION1(	GetCurrentLanguageID,			E_LANGUAGEID, ENGLISH, HWND);

  00498	a1 04 00 00 00	 mov	 eax, DWORD PTR ?g_iMetaTable@@3VIMetaTable@@A+4
; File D:\git\src\IBK\IBK_DRFN\ProjSrc\SrcChartEx\ChartAddIn\ChartAnalysisToolAddIn\AnalysisTool\DlgFiboSet.cpp

; 522  : 		IMetaTable::E_LANGUAGEID eLanguageID = g_iMetaTable.GetCurrentLanguageID( m_hOcxWnd); 

  0049d	8b b3 10 0d 00
	00		 mov	 esi, DWORD PTR [ebx+3344]
; File D:\git\src\IBK\IBK_DRFN\ProjSrc\SrcChartEx\ChartAddIn\ChartAnalysisToolAddIn\Include_Chart\Dll_Load\IMetaTable.h

; 937  : 	DECLARE_FUNCTION1(	GetCurrentLanguageID,			E_LANGUAGEID, ENGLISH, HWND);

  004a3	85 c0		 test	 eax, eax
  004a5	0f 84 32 01 00
	00		 je	 $LN9@Initialize
  004ab	b9 80 0d 00 00	 mov	 ecx, 3456		; 00000d80H
  004b0	66 3b 0d 8c 00
	00 00		 cmp	 cx, WORD PTR ?g_iMetaTable@@3VIMetaTable@@A+140
  004b7	74 29		 je	 SHORT $LN376@Initialize
  004b9	68 00 00 00 00	 push	 OFFSET ??_C@_0BF@EGELCGDD@GetCurrentLanguageID@
  004be	50		 push	 eax
  004bf	c7 05 88 00 00
	00 00 00 00 00	 mov	 DWORD PTR ?g_iMetaTable@@3VIMetaTable@@A+136, 0
  004c9	ff 15 00 00 00
	00		 call	 DWORD PTR __imp__GetProcAddress@8
  004cf	b9 80 0d 00 00	 mov	 ecx, 3456		; 00000d80H
  004d4	a3 88 00 00 00	 mov	 DWORD PTR ?g_iMetaTable@@3VIMetaTable@@A+136, eax
  004d9	66 89 0d 8c 00
	00 00		 mov	 WORD PTR ?g_iMetaTable@@3VIMetaTable@@A+140, cx
  004e0	eb 05		 jmp	 SHORT $LN119@Initialize
$LN376@Initialize:
  004e2	a1 88 00 00 00	 mov	 eax, DWORD PTR ?g_iMetaTable@@3VIMetaTable@@A+136
$LN119@Initialize:
  004e7	85 c0		 test	 eax, eax
  004e9	0f 84 ee 00 00
	00		 je	 $LN9@Initialize
  004ef	56		 push	 esi
  004f0	ff d0		 call	 eax
  004f2	83 c4 04	 add	 esp, 4
; File D:\git\src\IBK\IBK_DRFN\ProjSrc\SrcChartEx\ChartAddIn\ChartAnalysisToolAddIn\AnalysisTool\DlgFiboSet.cpp

; 523  : 		switch(eLanguageID)

  004f5	83 e8 00	 sub	 eax, 0
  004f8	0f 84 df 00 00
	00		 je	 $LN9@Initialize
  004fe	83 e8 01	 sub	 eax, 1
  00501	0f 85 01 0f 00
	00		 jne	 $LN42@Initialize

; 545  : 				pBtn = (CButton *)GetDlgItem(IDC_OK_BT);
; 546  : 				pBtn->GetClientRect(&rect);
; 547  : 				pBtn->MoveWindow(nTempX, rectPos.top + 45, rect.Width(), rect.Height());
; 548  : 
; 549  : 				nTempX = nTempX + rect.Width() + 2;
; 550  : 				pBtn = (CButton *)GetDlgItem(IDC_CANCEL_BT);
; 551  : 				pBtn->GetClientRect(&rect);
; 552  : 				pBtn->MoveWindow(nTempX, rectPos.top + 45, rect.Width(), rect.Height());
; 553  : 
; 554  : 				nTempX = nTempX + rect.Width() + 2;
; 555  : 				pBtn = (CButton *)GetDlgItem(IDC_APPLY_BT);
; 556  : 				pBtn->GetClientRect(&rect);
; 557  : 				pBtn->MoveWindow(nTempX, rectPos.top + 45, rect.Width(), rect.Height());
; 558  : 			}
; 559  : 			break;
; 560  : 		case IMetaTable::KOREAN:
; 561  : 			{
; 562  : 				rectPos.left += 35;

  00507	83 45 d0 23	 add	 DWORD PTR _rectPos$20[ebp], 35 ; 00000023H

; 563  : 				rectPos.top += 20;
; 564  : 				CButton *pBtn = (CButton *)GetDlgItem(IDC_COLOR);

  0050b	8b cb		 mov	 ecx, ebx
  0050d	83 45 d4 14	 add	 DWORD PTR _rectPos$20[ebp+4], 20 ; 00000014H
  00511	68 45 1f 00 00	 push	 8005			; 00001f45H
  00516	e8 00 00 00 00	 call	 ?GetDlgItem@CWnd@@QBEPAV1@H@Z ; CWnd::GetDlgItem
  0051b	8b f0		 mov	 esi, eax
; File C:\Program Files (x86)\Microsoft Visual Studio\2019\Community\VC\Tools\MSVC\14.29.30133\atlmfc\include\afxwin2.inl

; 86   : 	{ ASSERT(::IsWindow(m_hWnd)); ::GetClientRect(m_hWnd, lpRect); }

  0051d	8d 45 e0	 lea	 eax, DWORD PTR _rect$21[ebp]
  00520	50		 push	 eax
  00521	ff 76 20	 push	 DWORD PTR [esi+32]
  00524	ff d7		 call	 edi
; File C:\Program Files (x86)\Microsoft Visual Studio\2019\Community\VC\Tools\MSVC\14.29.30133\atlmfc\include\atltypes.h

; 581  : 	return bottom - top;

  00526	8b 4d ec	 mov	 ecx, DWORD PTR _rect$21[ebp+12]
  00529	2b 4d e4	 sub	 ecx, DWORD PTR _rect$21[ebp+4]

; 576  : 	return right - left;

  0052c	8b 45 e8	 mov	 eax, DWORD PTR _rect$21[ebp+8]
  0052f	2b 45 e0	 sub	 eax, DWORD PTR _rect$21[ebp]
; File D:\git\src\IBK\IBK_DRFN\ProjSrc\SrcChartEx\ChartAddIn\ChartAnalysisToolAddIn\AnalysisTool\DlgFiboSet.cpp

; 566  : 				pBtn->MoveWindow(rectPos.left, rectPos.top, rect.Width(), rect.Height());

  00532	6a 01		 push	 1
  00534	51		 push	 ecx
  00535	50		 push	 eax
  00536	ff 75 d4	 push	 DWORD PTR _rectPos$20[ebp+4]
  00539	8b ce		 mov	 ecx, esi
  0053b	ff 75 d0	 push	 DWORD PTR _rectPos$20[ebp]
  0053e	e8 00 00 00 00	 call	 ?MoveWindow@CWnd@@QAEXHHHHH@Z ; CWnd::MoveWindow

; 567  :  
; 568  : 				rectPos.top -= 3;
; 569  : 				rectPos.left = rectPos.left + rect.Width() + 35;

  00543	8b 45 d0	 mov	 eax, DWORD PTR _rectPos$20[ebp]
  00546	8b 4d e8	 mov	 ecx, DWORD PTR _rect$21[ebp+8]
  00549	83 c0 23	 add	 eax, 35			; 00000023H
  0054c	2b 4d e0	 sub	 ecx, DWORD PTR _rect$21[ebp]
  0054f	83 6d d4 03	 sub	 DWORD PTR _rectPos$20[ebp+4], 3
  00553	03 c1		 add	 eax, ecx

; 570  : 				CComboBox *pCombo = (CComboBox *)GetDlgItem(IDC_WIDTH);

  00555	68 63 23 00 00	 push	 9059			; 00002363H
  0055a	8b cb		 mov	 ecx, ebx
  0055c	89 45 d0	 mov	 DWORD PTR _rectPos$20[ebp], eax
  0055f	e8 00 00 00 00	 call	 ?GetDlgItem@CWnd@@QBEPAV1@H@Z ; CWnd::GetDlgItem
  00564	8b f0		 mov	 esi, eax
; File C:\Program Files (x86)\Microsoft Visual Studio\2019\Community\VC\Tools\MSVC\14.29.30133\atlmfc\include\afxwin2.inl

; 86   : 	{ ASSERT(::IsWindow(m_hWnd)); ::GetClientRect(m_hWnd, lpRect); }

  00566	8d 45 e0	 lea	 eax, DWORD PTR _rect$21[ebp]
  00569	50		 push	 eax
  0056a	ff 76 20	 push	 DWORD PTR [esi+32]
  0056d	ff d7		 call	 edi
; File C:\Program Files (x86)\Microsoft Visual Studio\2019\Community\VC\Tools\MSVC\14.29.30133\atlmfc\include\atltypes.h

; 581  : 	return bottom - top;

  0056f	8b 4d ec	 mov	 ecx, DWORD PTR _rect$21[ebp+12]
  00572	2b 4d e4	 sub	 ecx, DWORD PTR _rect$21[ebp+4]

; 576  : 	return right - left;

  00575	8b 45 e8	 mov	 eax, DWORD PTR _rect$21[ebp+8]
  00578	2b 45 e0	 sub	 eax, DWORD PTR _rect$21[ebp]
; File D:\git\src\IBK\IBK_DRFN\ProjSrc\SrcChartEx\ChartAddIn\ChartAnalysisToolAddIn\AnalysisTool\DlgFiboSet.cpp

; 572  : 				pCombo->MoveWindow(rectPos.left, rectPos.top, rect.Width(), rect.Height());

  0057b	6a 01		 push	 1
  0057d	51		 push	 ecx
  0057e	50		 push	 eax
  0057f	ff 75 d4	 push	 DWORD PTR _rectPos$20[ebp+4]
  00582	8b ce		 mov	 ecx, esi
  00584	ff 75 d0	 push	 DWORD PTR _rectPos$20[ebp]
  00587	e8 00 00 00 00	 call	 ?MoveWindow@CWnd@@QAEXHHHHH@Z ; CWnd::MoveWindow

; 573  : 
; 574  : 				rectPos.left = rectPos.left + rect.Width() + 40;

  0058c	8b 45 d0	 mov	 eax, DWORD PTR _rectPos$20[ebp]
  0058f	8b 4d e8	 mov	 ecx, DWORD PTR _rect$21[ebp+8]
  00592	83 c0 28	 add	 eax, 40			; 00000028H
  00595	2b 4d e0	 sub	 ecx, DWORD PTR _rect$21[ebp]
  00598	03 c1		 add	 eax, ecx

; 575  : 				pCombo = (CComboBox *)GetDlgItem(IDC_STYLE);

  0059a	8b cb		 mov	 ecx, ebx
  0059c	68 2e 27 00 00	 push	 10030			; 0000272eH
  005a1	89 45 d0	 mov	 DWORD PTR _rectPos$20[ebp], eax
  005a4	e8 00 00 00 00	 call	 ?GetDlgItem@CWnd@@QBEPAV1@H@Z ; CWnd::GetDlgItem
  005a9	8b f0		 mov	 esi, eax
; File C:\Program Files (x86)\Microsoft Visual Studio\2019\Community\VC\Tools\MSVC\14.29.30133\atlmfc\include\afxwin2.inl

; 86   : 	{ ASSERT(::IsWindow(m_hWnd)); ::GetClientRect(m_hWnd, lpRect); }

  005ab	8d 45 e0	 lea	 eax, DWORD PTR _rect$21[ebp]
  005ae	50		 push	 eax
  005af	ff 76 20	 push	 DWORD PTR [esi+32]
  005b2	ff d7		 call	 edi
; File C:\Program Files (x86)\Microsoft Visual Studio\2019\Community\VC\Tools\MSVC\14.29.30133\atlmfc\include\atltypes.h

; 581  : 	return bottom - top;

  005b4	8b 4d ec	 mov	 ecx, DWORD PTR _rect$21[ebp+12]
  005b7	2b 4d e4	 sub	 ecx, DWORD PTR _rect$21[ebp+4]

; 576  : 	return right - left;

  005ba	8b 45 e8	 mov	 eax, DWORD PTR _rect$21[ebp+8]
  005bd	2b 45 e0	 sub	 eax, DWORD PTR _rect$21[ebp]
; File D:\git\src\IBK\IBK_DRFN\ProjSrc\SrcChartEx\ChartAddIn\ChartAnalysisToolAddIn\AnalysisTool\DlgFiboSet.cpp

; 577  : 				pCombo->MoveWindow(rectPos.left, rectPos.top, rect.Width(), rect.Height());

  005c0	6a 01		 push	 1
  005c2	51		 push	 ecx
  005c3	50		 push	 eax
  005c4	ff 75 d4	 push	 DWORD PTR _rectPos$20[ebp+4]
  005c7	8b ce		 mov	 ecx, esi
  005c9	ff 75 d0	 push	 DWORD PTR _rectPos$20[ebp]
  005cc	e8 00 00 00 00	 call	 ?MoveWindow@CWnd@@QAEXHHHHH@Z ; CWnd::MoveWindow

; 578  : 
; 579  : 				nTempX += 130;

  005d1	81 45 cc 82 00
	00 00		 add	 DWORD PTR _nTempX$3$[ebp], 130 ; 00000082H

; 580  : 				pBtn = (CButton *)GetDlgItem(IDC_OK_BT);
; 581  : 				pBtn->GetClientRect(&rect);
; 582  : 				pBtn->MoveWindow(nTempX, rectPos.top + 45, rect.Width(), rect.Height());
; 583  : 
; 584  : 				nTempX = nTempX + rect.Width() + 2;
; 585  : 				pBtn = (CButton *)GetDlgItem(IDC_CANCEL_BT);
; 586  : 				pBtn->GetClientRect(&rect);
; 587  : 				pBtn->MoveWindow(nTempX, rectPos.top + 45, rect.Width(), rect.Height());
; 588  : 
; 589  : 				nTempX = nTempX + rect.Width() + 2;
; 590  : 				pBtn = (CButton *)GetDlgItem(IDC_APPLY_BT);
; 591  : 				pBtn->GetClientRect(&rect);
; 592  : 				pBtn->MoveWindow(nTempX, rectPos.top + 45, rect.Width(), rect.Height());
; 593  : 			}
; 594  : 			break;

  005d8	e9 d1 00 00 00	 jmp	 $LN383@Initialize
$LN9@Initialize:

; 524  : 		{
; 525  : 		case IMetaTable::ENGLISH:
; 526  : 			{
; 527  : 				rectPos.left += 50;

  005dd	83 45 d0 32	 add	 DWORD PTR _rectPos$20[ebp], 50 ; 00000032H

; 528  : 				rectPos.top += 20;
; 529  : 				CButton *pBtn = (CButton *)GetDlgItem(IDC_COLOR);

  005e1	8b cb		 mov	 ecx, ebx
  005e3	83 45 d4 14	 add	 DWORD PTR _rectPos$20[ebp+4], 20 ; 00000014H
  005e7	68 45 1f 00 00	 push	 8005			; 00001f45H
  005ec	e8 00 00 00 00	 call	 ?GetDlgItem@CWnd@@QBEPAV1@H@Z ; CWnd::GetDlgItem
  005f1	8b f0		 mov	 esi, eax
; File C:\Program Files (x86)\Microsoft Visual Studio\2019\Community\VC\Tools\MSVC\14.29.30133\atlmfc\include\afxwin2.inl

; 86   : 	{ ASSERT(::IsWindow(m_hWnd)); ::GetClientRect(m_hWnd, lpRect); }

  005f3	8d 45 e0	 lea	 eax, DWORD PTR _rect$21[ebp]
  005f6	50		 push	 eax
  005f7	ff 76 20	 push	 DWORD PTR [esi+32]
  005fa	ff d7		 call	 edi
; File C:\Program Files (x86)\Microsoft Visual Studio\2019\Community\VC\Tools\MSVC\14.29.30133\atlmfc\include\atltypes.h

; 581  : 	return bottom - top;

  005fc	8b 4d ec	 mov	 ecx, DWORD PTR _rect$21[ebp+12]
  005ff	2b 4d e4	 sub	 ecx, DWORD PTR _rect$21[ebp+4]

; 576  : 	return right - left;

  00602	8b 45 e8	 mov	 eax, DWORD PTR _rect$21[ebp+8]
  00605	2b 45 e0	 sub	 eax, DWORD PTR _rect$21[ebp]
; File D:\git\src\IBK\IBK_DRFN\ProjSrc\SrcChartEx\ChartAddIn\ChartAnalysisToolAddIn\AnalysisTool\DlgFiboSet.cpp

; 531  : 				pBtn->MoveWindow(rectPos.left, rectPos.top, rect.Width(), rect.Height());

  00608	6a 01		 push	 1
  0060a	51		 push	 ecx
  0060b	50		 push	 eax
  0060c	ff 75 d4	 push	 DWORD PTR _rectPos$20[ebp+4]
  0060f	8b ce		 mov	 ecx, esi
  00611	ff 75 d0	 push	 DWORD PTR _rectPos$20[ebp]
  00614	e8 00 00 00 00	 call	 ?MoveWindow@CWnd@@QAEXHHHHH@Z ; CWnd::MoveWindow

; 532  : 
; 533  : 				rectPos.top -= 3;
; 534  : 				rectPos.left = rectPos.left + rect.Width() + 75;

  00619	8b 45 d0	 mov	 eax, DWORD PTR _rectPos$20[ebp]
  0061c	8b 4d e8	 mov	 ecx, DWORD PTR _rect$21[ebp+8]
  0061f	83 c0 4b	 add	 eax, 75			; 0000004bH
  00622	2b 4d e0	 sub	 ecx, DWORD PTR _rect$21[ebp]
  00625	83 6d d4 03	 sub	 DWORD PTR _rectPos$20[ebp+4], 3
  00629	03 c1		 add	 eax, ecx

; 535  : 				CComboBox *pCombo = (CComboBox *)GetDlgItem(IDC_WIDTH);

  0062b	68 63 23 00 00	 push	 9059			; 00002363H
  00630	8b cb		 mov	 ecx, ebx
  00632	89 45 d0	 mov	 DWORD PTR _rectPos$20[ebp], eax
  00635	e8 00 00 00 00	 call	 ?GetDlgItem@CWnd@@QBEPAV1@H@Z ; CWnd::GetDlgItem
  0063a	8b f0		 mov	 esi, eax
; File C:\Program Files (x86)\Microsoft Visual Studio\2019\Community\VC\Tools\MSVC\14.29.30133\atlmfc\include\afxwin2.inl

; 86   : 	{ ASSERT(::IsWindow(m_hWnd)); ::GetClientRect(m_hWnd, lpRect); }

  0063c	8d 45 e0	 lea	 eax, DWORD PTR _rect$21[ebp]
  0063f	50		 push	 eax
  00640	ff 76 20	 push	 DWORD PTR [esi+32]
  00643	ff d7		 call	 edi
; File C:\Program Files (x86)\Microsoft Visual Studio\2019\Community\VC\Tools\MSVC\14.29.30133\atlmfc\include\atltypes.h

; 581  : 	return bottom - top;

  00645	8b 4d ec	 mov	 ecx, DWORD PTR _rect$21[ebp+12]
  00648	2b 4d e4	 sub	 ecx, DWORD PTR _rect$21[ebp+4]

; 576  : 	return right - left;

  0064b	8b 45 e8	 mov	 eax, DWORD PTR _rect$21[ebp+8]
  0064e	2b 45 e0	 sub	 eax, DWORD PTR _rect$21[ebp]
; File D:\git\src\IBK\IBK_DRFN\ProjSrc\SrcChartEx\ChartAddIn\ChartAnalysisToolAddIn\AnalysisTool\DlgFiboSet.cpp

; 537  : 				pCombo->MoveWindow(rectPos.left, rectPos.top, rect.Width(), rect.Height());

  00651	6a 01		 push	 1
  00653	51		 push	 ecx
  00654	50		 push	 eax
  00655	ff 75 d4	 push	 DWORD PTR _rectPos$20[ebp+4]
  00658	8b ce		 mov	 ecx, esi
  0065a	ff 75 d0	 push	 DWORD PTR _rectPos$20[ebp]
  0065d	e8 00 00 00 00	 call	 ?MoveWindow@CWnd@@QAEXHHHHH@Z ; CWnd::MoveWindow

; 538  : 
; 539  : 				rectPos.left = rectPos.left + rect.Width() + 40;

  00662	8b 45 d0	 mov	 eax, DWORD PTR _rectPos$20[ebp]
  00665	8b 4d e8	 mov	 ecx, DWORD PTR _rect$21[ebp+8]
  00668	83 c0 28	 add	 eax, 40			; 00000028H
  0066b	2b 4d e0	 sub	 ecx, DWORD PTR _rect$21[ebp]
  0066e	03 c1		 add	 eax, ecx

; 540  : 				pCombo = (CComboBox *)GetDlgItem(IDC_STYLE);

  00670	8b cb		 mov	 ecx, ebx
  00672	68 2e 27 00 00	 push	 10030			; 0000272eH
  00677	89 45 d0	 mov	 DWORD PTR _rectPos$20[ebp], eax
  0067a	e8 00 00 00 00	 call	 ?GetDlgItem@CWnd@@QBEPAV1@H@Z ; CWnd::GetDlgItem
  0067f	8b f0		 mov	 esi, eax
; File C:\Program Files (x86)\Microsoft Visual Studio\2019\Community\VC\Tools\MSVC\14.29.30133\atlmfc\include\afxwin2.inl

; 86   : 	{ ASSERT(::IsWindow(m_hWnd)); ::GetClientRect(m_hWnd, lpRect); }

  00681	8d 45 e0	 lea	 eax, DWORD PTR _rect$21[ebp]
  00684	50		 push	 eax
  00685	ff 76 20	 push	 DWORD PTR [esi+32]
  00688	ff d7		 call	 edi
; File C:\Program Files (x86)\Microsoft Visual Studio\2019\Community\VC\Tools\MSVC\14.29.30133\atlmfc\include\atltypes.h

; 581  : 	return bottom - top;

  0068a	8b 4d ec	 mov	 ecx, DWORD PTR _rect$21[ebp+12]
  0068d	2b 4d e4	 sub	 ecx, DWORD PTR _rect$21[ebp+4]

; 576  : 	return right - left;

  00690	8b 45 e8	 mov	 eax, DWORD PTR _rect$21[ebp+8]
  00693	2b 45 e0	 sub	 eax, DWORD PTR _rect$21[ebp]
; File D:\git\src\IBK\IBK_DRFN\ProjSrc\SrcChartEx\ChartAddIn\ChartAnalysisToolAddIn\AnalysisTool\DlgFiboSet.cpp

; 542  : 				pCombo->MoveWindow(rectPos.left, rectPos.top, rect.Width(), rect.Height());

  00696	6a 01		 push	 1
  00698	51		 push	 ecx
  00699	50		 push	 eax
  0069a	ff 75 d4	 push	 DWORD PTR _rectPos$20[ebp+4]
  0069d	8b ce		 mov	 ecx, esi
  0069f	ff 75 d0	 push	 DWORD PTR _rectPos$20[ebp]
  006a2	e8 00 00 00 00	 call	 ?MoveWindow@CWnd@@QAEXHHHHH@Z ; CWnd::MoveWindow

; 543  : 
; 544  : 				nTempX += 183;

  006a7	81 45 cc b7 00
	00 00		 add	 DWORD PTR _nTempX$3$[ebp], 183 ; 000000b7H
$LN383@Initialize:

; 931  : 	}
; 932  : 
; 933  : 	if((CToolEnumData::ElementType)m_nElementType != CToolEnumData::Pencil_Line)

  006ae	68 bb 0f 00 00	 push	 4027			; 00000fbbH
  006b3	8b cb		 mov	 ecx, ebx
  006b5	e8 00 00 00 00	 call	 ?GetDlgItem@CWnd@@QBEPAV1@H@Z ; CWnd::GetDlgItem
  006ba	8b f0		 mov	 esi, eax
  006bc	8d 45 e0	 lea	 eax, DWORD PTR _rect$21[ebp]
  006bf	50		 push	 eax
  006c0	ff 76 20	 push	 DWORD PTR [esi+32]
  006c3	ff d7		 call	 edi
  006c5	8b 4d ec	 mov	 ecx, DWORD PTR _rect$21[ebp+12]
  006c8	2b 4d e4	 sub	 ecx, DWORD PTR _rect$21[ebp+4]
  006cb	8b 45 e8	 mov	 eax, DWORD PTR _rect$21[ebp+8]
  006ce	2b 45 e0	 sub	 eax, DWORD PTR _rect$21[ebp]
  006d1	8b 7d cc	 mov	 edi, DWORD PTR _nTempX$3$[ebp]
  006d4	6a 01		 push	 1
  006d6	51		 push	 ecx
  006d7	50		 push	 eax
  006d8	8b 45 d4	 mov	 eax, DWORD PTR _rectPos$20[ebp+4]
  006db	8b ce		 mov	 ecx, esi
  006dd	83 c0 2d	 add	 eax, 45			; 0000002dH
  006e0	50		 push	 eax
  006e1	57		 push	 edi
  006e2	e8 00 00 00 00	 call	 ?MoveWindow@CWnd@@QAEXHHHHH@Z ; CWnd::MoveWindow
  006e7	8b 45 e8	 mov	 eax, DWORD PTR _rect$21[ebp+8]
  006ea	83 c7 02	 add	 edi, 2
  006ed	2b 45 e0	 sub	 eax, DWORD PTR _rect$21[ebp]
  006f0	8b cb		 mov	 ecx, ebx
  006f2	68 bc 0f 00 00	 push	 4028			; 00000fbcH
  006f7	03 f8		 add	 edi, eax
  006f9	e8 00 00 00 00	 call	 ?GetDlgItem@CWnd@@QBEPAV1@H@Z ; CWnd::GetDlgItem
  006fe	8b f0		 mov	 esi, eax
  00700	8d 45 e0	 lea	 eax, DWORD PTR _rect$21[ebp]
  00703	50		 push	 eax
  00704	ff 76 20	 push	 DWORD PTR [esi+32]
  00707	ff 15 00 00 00
	00		 call	 DWORD PTR __imp__GetClientRect@8
  0070d	8b 4d ec	 mov	 ecx, DWORD PTR _rect$21[ebp+12]
  00710	2b 4d e4	 sub	 ecx, DWORD PTR _rect$21[ebp+4]
  00713	8b 45 e8	 mov	 eax, DWORD PTR _rect$21[ebp+8]
  00716	2b 45 e0	 sub	 eax, DWORD PTR _rect$21[ebp]
  00719	6a 01		 push	 1
  0071b	51		 push	 ecx
  0071c	50		 push	 eax
  0071d	8b 45 d4	 mov	 eax, DWORD PTR _rectPos$20[ebp+4]
  00720	8b ce		 mov	 ecx, esi
  00722	83 c0 2d	 add	 eax, 45			; 0000002dH
  00725	50		 push	 eax
  00726	57		 push	 edi
  00727	e8 00 00 00 00	 call	 ?MoveWindow@CWnd@@QAEXHHHHH@Z ; CWnd::MoveWindow
  0072c	8b 45 e8	 mov	 eax, DWORD PTR _rect$21[ebp+8]
  0072f	8b cb		 mov	 ecx, ebx
  00731	2b 45 e0	 sub	 eax, DWORD PTR _rect$21[ebp]
  00734	83 c0 02	 add	 eax, 2
  00737	6a 03		 push	 3
  00739	03 f8		 add	 edi, eax
  0073b	e8 00 00 00 00	 call	 ?GetDlgItem@CWnd@@QBEPAV1@H@Z ; CWnd::GetDlgItem
  00740	8b f0		 mov	 esi, eax
  00742	8d 45 e0	 lea	 eax, DWORD PTR _rect$21[ebp]
  00745	50		 push	 eax
  00746	ff 76 20	 push	 DWORD PTR [esi+32]
  00749	ff 15 00 00 00
	00		 call	 DWORD PTR __imp__GetClientRect@8
  0074f	8b 4d ec	 mov	 ecx, DWORD PTR _rect$21[ebp+12]
  00752	2b 4d e4	 sub	 ecx, DWORD PTR _rect$21[ebp+4]
  00755	8b 45 e8	 mov	 eax, DWORD PTR _rect$21[ebp+8]
  00758	2b 45 e0	 sub	 eax, DWORD PTR _rect$21[ebp]
  0075b	6a 01		 push	 1
  0075d	51		 push	 ecx
  0075e	50		 push	 eax
  0075f	8b 45 d4	 mov	 eax, DWORD PTR _rectPos$20[ebp+4]
  00762	8b ce		 mov	 ecx, esi
  00764	83 c0 2d	 add	 eax, 45			; 0000002dH
  00767	50		 push	 eax
  00768	57		 push	 edi
  00769	e8 00 00 00 00	 call	 ?MoveWindow@CWnd@@QAEXHHHHH@Z ; CWnd::MoveWindow
  0076e	e9 95 0c 00 00	 jmp	 $LN42@Initialize
$LN7@Initialize:

; 595  : 		default:
; 596  : 			ASSERT(FALSE);
; 597  : 		};
; 598  : 		
; 599  : //		rectPos.left += 35;
; 600  : //		rectPos.top += 20;
; 601  : //		CButton *pBtn = (CButton *)GetDlgItem(IDC_COLOR);
; 602  : //		pBtn->GetClientRect(&rect);
; 603  : //		pBtn->MoveWindow(rectPos.left, rectPos.top, rect.Width(), rect.Height());
; 604  : // 
; 605  : //		rectPos.top -= 3;
; 606  : //		rectPos.left = rectPos.left + rect.Width() + 35;
; 607  : //		CComboBox *pCombo = (CComboBox *)GetDlgItem(IDC_WIDTH);
; 608  : //		pCombo->GetClientRect(&rect);
; 609  : //		pCombo->MoveWindow(rectPos.left, rectPos.top, rect.Width(), rect.Height());
; 610  : //
; 611  : //		rectPos.left = rectPos.left + rect.Width() + 40;
; 612  : //		pCombo = (CComboBox *)GetDlgItem(IDC_STYLE);
; 613  : //		pCombo->GetClientRect(&rect);
; 614  : //		pCombo->MoveWindow(rectPos.left, rectPos.top, rect.Width(), rect.Height());
; 615  : //
; 616  : //		nTempX += 130;
; 617  : //		pBtn = (CButton *)GetDlgItem(IDC_OK_BT);
; 618  : //		pBtn->GetClientRect(&rect);
; 619  : //		pBtn->MoveWindow(nTempX, rectPos.top + 45, rect.Width(), rect.Height());
; 620  : //
; 621  : //		nTempX = nTempX + rect.Width() + 2;
; 622  : //		pBtn = (CButton *)GetDlgItem(IDC_CANCEL_BT);
; 623  : //		pBtn->GetClientRect(&rect);
; 624  : //		pBtn->MoveWindow(nTempX, rectPos.top + 45, rect.Width(), rect.Height());
; 625  : //
; 626  : //		nTempX = nTempX + rect.Width() + 2;
; 627  : //		pBtn = (CButton *)GetDlgItem(IDC_APPLY_BT);
; 628  : //		pBtn->GetClientRect(&rect);
; 629  : //		pBtn->MoveWindow(nTempX, rectPos.top + 45, rect.Width(), rect.Height());
; 630  : 
; 631  : 		///////////////////////////////////////////////////////////////////////////////
; 632  : 	}
; 633  : 	else if((CToolEnumData::ElementType)m_nElementType == CToolEnumData::Cross_Line)		

  00773	83 f8 01	 cmp	 eax, 1
  00776	0f 85 f7 00 00
	00		 jne	 $LN12@Initialize

; 634  : 	{
; 635  : 		m_ctrlTopText.ShowWindow(SW_SHOW);

  0077c	6a 05		 push	 5
  0077e	8d 8b d0 03 00
	00		 lea	 ecx, DWORD PTR [ebx+976]
  00784	e8 00 00 00 00	 call	 ?ShowWindow@CWnd@@QAEHH@Z ; CWnd::ShowWindow

; 636  : 		m_ctrlBottomText.ShowWindow(SW_SHOW);

  00789	6a 05		 push	 5
  0078b	8d 8b 50 04 00
	00		 lea	 ecx, DWORD PTR [ebx+1104]
  00791	e8 00 00 00 00	 call	 ?ShowWindow@CWnd@@QAEHH@Z ; CWnd::ShowWindow

; 639  : 		m_ctrlLeftText.SetCheck(m_pTextHVPosition->GetLeft());

  00796	8b 8b c0 0c 00
	00		 mov	 ecx, DWORD PTR [ebx+3264]
  0079c	c7 83 8c 0c 00
	00 03 00 00 00	 mov	 DWORD PTR [ebx+3212], 3
  007a6	e8 00 00 00 00	 call	 ?GetLeft@CTextHorzVertPosition@@QBE_NXZ ; CTextHorzVertPosition::GetLeft
; File C:\Program Files (x86)\Microsoft Visual Studio\2019\Community\VC\Tools\MSVC\14.29.30133\atlmfc\include\afxwin2.inl

; 630  : 	{ ASSERT(::IsWindow(m_hWnd)); ::SendMessage(m_hWnd, BM_SETCHECK, nCheck, 0); }

  007ab	8b 35 00 00 00
	00		 mov	 esi, DWORD PTR __imp__SendMessageA@16
  007b1	6a 00		 push	 0
; File D:\git\src\IBK\IBK_DRFN\ProjSrc\SrcChartEx\ChartAddIn\ChartAnalysisToolAddIn\AnalysisTool\DlgFiboSet.cpp

; 639  : 		m_ctrlLeftText.SetCheck(m_pTextHVPosition->GetLeft());

  007b3	0f b6 c0	 movzx	 eax, al
; File C:\Program Files (x86)\Microsoft Visual Studio\2019\Community\VC\Tools\MSVC\14.29.30133\atlmfc\include\afxwin2.inl

; 630  : 	{ ASSERT(::IsWindow(m_hWnd)); ::SendMessage(m_hWnd, BM_SETCHECK, nCheck, 0); }

  007b6	50		 push	 eax
  007b7	68 f1 00 00 00	 push	 241			; 000000f1H
  007bc	ff b3 f0 02 00
	00		 push	 DWORD PTR [ebx+752]
  007c2	ff d6		 call	 esi
; File D:\git\src\IBK\IBK_DRFN\ProjSrc\SrcChartEx\ChartAddIn\ChartAnalysisToolAddIn\AnalysisTool\DlgFiboSet.cpp

; 640  : 		m_ctrlRightText.SetCheck(m_pTextHVPosition->GetRight());

  007c4	8b 8b c0 0c 00
	00		 mov	 ecx, DWORD PTR [ebx+3264]
  007ca	e8 00 00 00 00	 call	 ?GetRight@CTextHorzVertPosition@@QBE_NXZ ; CTextHorzVertPosition::GetRight
; File C:\Program Files (x86)\Microsoft Visual Studio\2019\Community\VC\Tools\MSVC\14.29.30133\atlmfc\include\afxwin2.inl

; 630  : 	{ ASSERT(::IsWindow(m_hWnd)); ::SendMessage(m_hWnd, BM_SETCHECK, nCheck, 0); }

  007cf	6a 00		 push	 0
; File D:\git\src\IBK\IBK_DRFN\ProjSrc\SrcChartEx\ChartAddIn\ChartAnalysisToolAddIn\AnalysisTool\DlgFiboSet.cpp

; 640  : 		m_ctrlRightText.SetCheck(m_pTextHVPosition->GetRight());

  007d1	0f b6 c0	 movzx	 eax, al
; File C:\Program Files (x86)\Microsoft Visual Studio\2019\Community\VC\Tools\MSVC\14.29.30133\atlmfc\include\afxwin2.inl

; 630  : 	{ ASSERT(::IsWindow(m_hWnd)); ::SendMessage(m_hWnd, BM_SETCHECK, nCheck, 0); }

  007d4	50		 push	 eax
  007d5	68 f1 00 00 00	 push	 241			; 000000f1H
  007da	ff b3 70 03 00
	00		 push	 DWORD PTR [ebx+880]
  007e0	ff d6		 call	 esi
; File D:\git\src\IBK\IBK_DRFN\ProjSrc\SrcChartEx\ChartAddIn\ChartAnalysisToolAddIn\AnalysisTool\DlgFiboSet.cpp

; 641  : 		m_ctrlTopText.SetCheck(m_pTextHVPosition->GetTop());

  007e2	8b 8b c0 0c 00
	00		 mov	 ecx, DWORD PTR [ebx+3264]
  007e8	e8 00 00 00 00	 call	 ?GetTop@CTextHorzVertPosition@@QBE_NXZ ; CTextHorzVertPosition::GetTop
; File C:\Program Files (x86)\Microsoft Visual Studio\2019\Community\VC\Tools\MSVC\14.29.30133\atlmfc\include\afxwin2.inl

; 630  : 	{ ASSERT(::IsWindow(m_hWnd)); ::SendMessage(m_hWnd, BM_SETCHECK, nCheck, 0); }

  007ed	6a 00		 push	 0
; File D:\git\src\IBK\IBK_DRFN\ProjSrc\SrcChartEx\ChartAddIn\ChartAnalysisToolAddIn\AnalysisTool\DlgFiboSet.cpp

; 641  : 		m_ctrlTopText.SetCheck(m_pTextHVPosition->GetTop());

  007ef	0f b6 c0	 movzx	 eax, al
; File C:\Program Files (x86)\Microsoft Visual Studio\2019\Community\VC\Tools\MSVC\14.29.30133\atlmfc\include\afxwin2.inl

; 630  : 	{ ASSERT(::IsWindow(m_hWnd)); ::SendMessage(m_hWnd, BM_SETCHECK, nCheck, 0); }

  007f2	50		 push	 eax
  007f3	68 f1 00 00 00	 push	 241			; 000000f1H
  007f8	ff b3 f0 03 00
	00		 push	 DWORD PTR [ebx+1008]
  007fe	ff d6		 call	 esi
; File D:\git\src\IBK\IBK_DRFN\ProjSrc\SrcChartEx\ChartAddIn\ChartAnalysisToolAddIn\AnalysisTool\DlgFiboSet.cpp

; 642  : 		m_ctrlBottomText.SetCheck(m_pTextHVPosition->GetBottom());		

  00800	8b 8b c0 0c 00
	00		 mov	 ecx, DWORD PTR [ebx+3264]
  00806	e8 00 00 00 00	 call	 ?GetBottom@CTextHorzVertPosition@@QBE_NXZ ; CTextHorzVertPosition::GetBottom
; File C:\Program Files (x86)\Microsoft Visual Studio\2019\Community\VC\Tools\MSVC\14.29.30133\atlmfc\include\afxwin2.inl

; 630  : 	{ ASSERT(::IsWindow(m_hWnd)); ::SendMessage(m_hWnd, BM_SETCHECK, nCheck, 0); }

  0080b	6a 00		 push	 0
; File D:\git\src\IBK\IBK_DRFN\ProjSrc\SrcChartEx\ChartAddIn\ChartAnalysisToolAddIn\AnalysisTool\DlgFiboSet.cpp

; 642  : 		m_ctrlBottomText.SetCheck(m_pTextHVPosition->GetBottom());		

  0080d	0f b6 c0	 movzx	 eax, al
; File C:\Program Files (x86)\Microsoft Visual Studio\2019\Community\VC\Tools\MSVC\14.29.30133\atlmfc\include\afxwin2.inl

; 630  : 	{ ASSERT(::IsWindow(m_hWnd)); ::SendMessage(m_hWnd, BM_SETCHECK, nCheck, 0); }

  00810	50		 push	 eax
  00811	68 f1 00 00 00	 push	 241			; 000000f1H
  00816	ff b3 70 04 00
	00		 push	 DWORD PTR [ebx+1136]
  0081c	ff d6		 call	 esi
; File D:\git\src\IBK\IBK_DRFN\ProjSrc\SrcChartEx\ChartAddIn\ChartAnalysisToolAddIn\AnalysisTool\DlgFiboSet.cpp

; 644  : 		m_stAnalysisTool.nTopText = m_pTextHVPosition->GetTop();

  0081e	8b 8b c0 0c 00
	00		 mov	 ecx, DWORD PTR [ebx+3264]
  00824	e8 00 00 00 00	 call	 ?GetTop@CTextHorzVertPosition@@QBE_NXZ ; CTextHorzVertPosition::GetTop

; 645  : 		m_stAnalysisTool.nBottomText = m_pTextHVPosition->GetBottom();

  00829	8b 8b c0 0c 00
	00		 mov	 ecx, DWORD PTR [ebx+3264]
  0082f	0f b6 c0	 movzx	 eax, al
  00832	89 83 34 0c 00
	00		 mov	 DWORD PTR [ebx+3124], eax
  00838	e8 00 00 00 00	 call	 ?GetBottom@CTextHorzVertPosition@@QBE_NXZ ; CTextHorzVertPosition::GetBottom

; 646  : 		m_stAnalysisTool.nLeftText = m_pTextHVPosition->GetLeft();

  0083d	8b 8b c0 0c 00
	00		 mov	 ecx, DWORD PTR [ebx+3264]
  00843	0f b6 c0	 movzx	 eax, al
  00846	89 83 38 0c 00
	00		 mov	 DWORD PTR [ebx+3128], eax
  0084c	e8 00 00 00 00	 call	 ?GetLeft@CTextHorzVertPosition@@QBE_NXZ ; CTextHorzVertPosition::GetLeft

; 647  : 		m_stAnalysisTool.nRightText = m_pTextHVPosition->GetRight();

  00851	8b 8b c0 0c 00
	00		 mov	 ecx, DWORD PTR [ebx+3264]
  00857	0f b6 c0	 movzx	 eax, al
  0085a	89 83 28 0c 00
	00		 mov	 DWORD PTR [ebx+3112], eax
  00860	e8 00 00 00 00	 call	 ?GetRight@CTextHorzVertPosition@@QBE_NXZ ; CTextHorzVertPosition::GetRight
  00865	0f b6 c0	 movzx	 eax, al
  00868	89 83 2c 0c 00
	00		 mov	 DWORD PTR [ebx+3116], eax

; 648  : 		
; 649  : 		//  
; 650  : 		m_ctrlXDateTime2.ShowWindow(SW_HIDE);
; 651  : 		m_ctrlEditValue2.ShowWindow(SW_HIDE);
; 652  : 		GetDlgItem(IDC_STATIC_XDATE2)->ShowWindow(SW_HIDE);
; 653  : 		GetDlgItem(IDC_STATIC_YVALUE2)->ShowWindow(SW_HIDE);
; 654  : 	}

  0086e	e9 51 0b 00 00	 jmp	 $LN378@Initialize
$LN12@Initialize:

; 655  : 	else if((CToolEnumData::ElementType)m_nElementType == CToolEnumData::Horz_Line)	//

  00873	83 f8 04	 cmp	 eax, 4
  00876	75 79		 jne	 SHORT $LN14@Initialize

; 658  : 		m_ctrlLeftText.SetCheck(m_pTextHPosition->GetLeft());

  00878	8b 8b b8 0c 00
	00		 mov	 ecx, DWORD PTR [ebx+3256]
  0087e	c7 83 8c 0c 00
	00 01 00 00 00	 mov	 DWORD PTR [ebx+3212], 1
  00888	e8 00 00 00 00	 call	 ?GetLeft@CTextHorzPosition@@QBE_NXZ ; CTextHorzPosition::GetLeft
; File C:\Program Files (x86)\Microsoft Visual Studio\2019\Community\VC\Tools\MSVC\14.29.30133\atlmfc\include\afxwin2.inl

; 630  : 	{ ASSERT(::IsWindow(m_hWnd)); ::SendMessage(m_hWnd, BM_SETCHECK, nCheck, 0); }

  0088d	8b 35 00 00 00
	00		 mov	 esi, DWORD PTR __imp__SendMessageA@16
  00893	6a 00		 push	 0
; File D:\git\src\IBK\IBK_DRFN\ProjSrc\SrcChartEx\ChartAddIn\ChartAnalysisToolAddIn\AnalysisTool\DlgFiboSet.cpp

; 658  : 		m_ctrlLeftText.SetCheck(m_pTextHPosition->GetLeft());

  00895	0f b6 c0	 movzx	 eax, al
; File C:\Program Files (x86)\Microsoft Visual Studio\2019\Community\VC\Tools\MSVC\14.29.30133\atlmfc\include\afxwin2.inl

; 630  : 	{ ASSERT(::IsWindow(m_hWnd)); ::SendMessage(m_hWnd, BM_SETCHECK, nCheck, 0); }

  00898	50		 push	 eax
  00899	68 f1 00 00 00	 push	 241			; 000000f1H
  0089e	ff b3 f0 02 00
	00		 push	 DWORD PTR [ebx+752]
  008a4	ff d6		 call	 esi
; File D:\git\src\IBK\IBK_DRFN\ProjSrc\SrcChartEx\ChartAddIn\ChartAnalysisToolAddIn\AnalysisTool\DlgFiboSet.cpp

; 659  : 		m_ctrlRightText.SetCheck(m_pTextHPosition->GetRight());

  008a6	8b 8b b8 0c 00
	00		 mov	 ecx, DWORD PTR [ebx+3256]
  008ac	e8 00 00 00 00	 call	 ?GetRight@CTextHorzPosition@@QBE_NXZ ; CTextHorzPosition::GetRight
; File C:\Program Files (x86)\Microsoft Visual Studio\2019\Community\VC\Tools\MSVC\14.29.30133\atlmfc\include\afxwin2.inl

; 630  : 	{ ASSERT(::IsWindow(m_hWnd)); ::SendMessage(m_hWnd, BM_SETCHECK, nCheck, 0); }

  008b1	6a 00		 push	 0
; File D:\git\src\IBK\IBK_DRFN\ProjSrc\SrcChartEx\ChartAddIn\ChartAnalysisToolAddIn\AnalysisTool\DlgFiboSet.cpp

; 659  : 		m_ctrlRightText.SetCheck(m_pTextHPosition->GetRight());

  008b3	0f b6 c0	 movzx	 eax, al
; File C:\Program Files (x86)\Microsoft Visual Studio\2019\Community\VC\Tools\MSVC\14.29.30133\atlmfc\include\afxwin2.inl

; 630  : 	{ ASSERT(::IsWindow(m_hWnd)); ::SendMessage(m_hWnd, BM_SETCHECK, nCheck, 0); }

  008b6	50		 push	 eax
  008b7	68 f1 00 00 00	 push	 241			; 000000f1H
  008bc	ff b3 70 03 00
	00		 push	 DWORD PTR [ebx+880]
  008c2	ff d6		 call	 esi
; File D:\git\src\IBK\IBK_DRFN\ProjSrc\SrcChartEx\ChartAddIn\ChartAnalysisToolAddIn\AnalysisTool\DlgFiboSet.cpp

; 661  : 		m_stAnalysisTool.nLeftText = m_pTextHPosition->GetLeft();

  008c4	8b 8b b8 0c 00
	00		 mov	 ecx, DWORD PTR [ebx+3256]
  008ca	e8 00 00 00 00	 call	 ?GetLeft@CTextHorzPosition@@QBE_NXZ ; CTextHorzPosition::GetLeft

; 662  : 		m_stAnalysisTool.nRightText = m_pTextHPosition->GetRight();

  008cf	8b 8b b8 0c 00
	00		 mov	 ecx, DWORD PTR [ebx+3256]
  008d5	0f b6 c0	 movzx	 eax, al
  008d8	89 83 28 0c 00
	00		 mov	 DWORD PTR [ebx+3112], eax
  008de	e8 00 00 00 00	 call	 ?GetRight@CTextHorzPosition@@QBE_NXZ ; CTextHorzPosition::GetRight
  008e3	0f b6 c0	 movzx	 eax, al
  008e6	89 83 2c 0c 00
	00		 mov	 DWORD PTR [ebx+3116], eax

; 663  : 
; 664  : 		// 
; 665  : 		m_ctrlXDateTime2.ShowWindow(SW_HIDE);
; 666  : 		m_ctrlEditValue2.ShowWindow(SW_HIDE);
; 667  : 		GetDlgItem(IDC_STATIC_XDATE2)->ShowWindow(SW_HIDE);
; 668  : 		GetDlgItem(IDC_STATIC_YVALUE2)->ShowWindow(SW_HIDE);
; 669  : 	} 	

  008ec	e9 d3 0a 00 00	 jmp	 $LN378@Initialize
$LN14@Initialize:

; 670  : 	else if((CToolEnumData::ElementType)m_nElementType == CToolEnumData::Vert_Line ||

  008f1	83 f8 03	 cmp	 eax, 3
  008f4	0f 84 f6 08 00
	00		 je	 $LN380@Initialize
  008fa	83 f8 0c	 cmp	 eax, 12			; 0000000cH
  008fd	0f 84 e4 08 00
	00		 je	 $LN18@Initialize

; 715  : 		m_ctrlXDateTime2.ShowWindow(SW_HIDE);
; 716  : 		m_ctrlEditValue2.ShowWindow(SW_HIDE);
; 717  : 		GetDlgItem(IDC_STATIC_XDATE2)->ShowWindow(SW_HIDE);
; 718  : 		GetDlgItem(IDC_STATIC_YVALUE2)->ShowWindow(SW_HIDE);
; 719  : 	}
; 720  : 	else if((CToolEnumData::ElementType)m_nElementType == CToolEnumData::Line		||	//

  00903	83 f8 05	 cmp	 eax, 5
  00906	0f 84 a5 07 00
	00		 je	 $LN23@Initialize
  0090c	83 f8 21	 cmp	 eax, 33			; 00000021H
  0090f	0f 84 9c 07 00
	00		 je	 $LN23@Initialize

; 749  : 	// (2008/8/15 - Seung-Won, Bae) Add option for using price range.
; 750  : 	else if((CToolEnumData::ElementType)m_nElementType == CToolEnumData::Trisection	||

  00915	83 f8 06	 cmp	 eax, 6
  00918	0f 84 13 06 00
	00		 je	 $LN27@Initialize
  0091e	83 f8 07	 cmp	 eax, 7
  00921	0f 84 0a 06 00
	00		 je	 $LN27@Initialize

; 786  : 	else if((CToolEnumData::ElementType)m_nElementType == CToolEnumData::Fibo_Retrace	||
; 787  : 			(CToolEnumData::ElementType)m_nElementType == CToolEnumData::Fibo_Semicircle ||
; 788  : 			(CToolEnumData::ElementType)m_nElementType == CToolEnumData::Fibo_Circle	||
; 789  : 			(CToolEnumData::ElementType)m_nElementType == CToolEnumData::Fibo_Fan_Line	||
; 790  : 			(CToolEnumData::ElementType)m_nElementType == CToolEnumData::Gann_Fan1	||
; 791  : 			(CToolEnumData::ElementType)m_nElementType == CToolEnumData::Gann_Fan2	||
; 792  : 			(CToolEnumData::ElementType)m_nElementType == CToolEnumData::Gann_Fan3	||

  00927	83 f8 0b	 cmp	 eax, 11			; 0000000bH
  0092a	0f 84 ad 04 00
	00		 je	 $LN31@Initialize
  00930	83 f8 08	 cmp	 eax, 8
  00933	0f 84 a4 04 00
	00		 je	 $LN31@Initialize
  00939	83 f8 09	 cmp	 eax, 9
  0093c	0f 84 9b 04 00
	00		 je	 $LN31@Initialize
  00942	83 f8 0a	 cmp	 eax, 10			; 0000000aH
  00945	0f 84 92 04 00
	00		 je	 $LN31@Initialize
  0094b	83 f8 0f	 cmp	 eax, 15			; 0000000fH
  0094e	0f 84 89 04 00
	00		 je	 $LN31@Initialize
  00954	83 f8 10	 cmp	 eax, 16			; 00000010H
  00957	0f 84 80 04 00
	00		 je	 $LN31@Initialize
  0095d	83 f8 11	 cmp	 eax, 17			; 00000011H
  00960	0f 84 77 04 00
	00		 je	 $LN31@Initialize
  00966	83 f8 12	 cmp	 eax, 18			; 00000012H
  00969	0f 84 6e 04 00
	00		 je	 $LN31@Initialize

; 821  : 	else if((CToolEnumData::ElementType)m_nElementType == CToolEnumData::Angle_Line)

  0096f	83 f8 1d	 cmp	 eax, 29			; 0000001dH
  00972	0f 85 2c 01 00
	00		 jne	 $LN33@Initialize

; 822  : 	{
; 823  : 		m_nTextPosType = G_TEXT_POS_ONE;

  00978	c7 83 8c 0c 00
	00 00 00 00 00	 mov	 DWORD PTR [ebx+3212], 0

; 824  : 		
; 825  : 		ML_SET_LANGUAGE_RES();

  00982	e8 00 00 00 00	 call	 ?AfxGetStaticModuleState@@YGPAVAFX_MODULE_STATE@@XZ ; AfxGetStaticModuleState
  00987	b9 00 00 00 00	 mov	 ecx, OFFSET ?g_iMetaTable@@3VIMetaTable@@A ; g_iMetaTable
  0098c	8b 40 08	 mov	 eax, DWORD PTR [eax+8]
  0098f	50		 push	 eax
  00990	ff b3 10 0d 00
	00		 push	 DWORD PTR [ebx+3344]
  00996	e8 00 00 00 00	 call	 ?LoadResourceDLL@IMetaTable@@QAEPAUHINSTANCE__@@PAUHWND__@@PAU2@@Z ; IMetaTable::LoadResourceDLL
  0099b	8b f8		 mov	 edi, eax
; File C:\Program Files (x86)\Microsoft Visual Studio\2019\Community\VC\Tools\MSVC\14.29.30133\atlmfc\include\afxwin1.inl

; 25   : 		return afxCurrentResourceHandle; }

  0099d	e8 00 00 00 00	 call	 ?AfxGetModuleState@@YGPAVAFX_MODULE_STATE@@XZ ; AfxGetModuleState
; File D:\git\src\IBK\IBK_DRFN\ProjSrc\SrcChartEx\ChartAddIn\ChartAnalysisToolAddIn\Include_Chart\Dll_Load\IMetaTable.h

; 1034 : 		m_hInstance = AfxGetResourceHandle();

  009a2	8b 70 0c	 mov	 esi, DWORD PTR [eax+12]
  009a5	89 75 c8	 mov	 DWORD PTR ___mlrs__$10[ebp], esi
; File C:\Program Files (x86)\Microsoft Visual Studio\2019\Community\VC\Tools\MSVC\14.29.30133\atlmfc\include\afxwin1.inl

; 27   : 	{ ASSERT(hInstResource != NULL); afxCurrentResourceHandle = hInstResource; }

  009a8	e8 00 00 00 00	 call	 ?AfxGetModuleState@@YGPAVAFX_MODULE_STATE@@XZ ; AfxGetModuleState
  009ad	89 78 0c	 mov	 DWORD PTR [eax+12], edi
; File D:\git\src\IBK\IBK_DRFN\ProjSrc\SrcChartEx\ChartAddIn\ChartAnalysisToolAddIn\AnalysisTool\DlgFiboSet.cpp

; 827  : 		CString strTitle;

  009b0	8d 4d cc	 lea	 ecx, DWORD PTR _strTitle$16[ebp]
  009b3	c7 45 fc 0d 00
	00 00		 mov	 DWORD PTR __$EHRec$[ebp+8], 13 ; 0000000dH
  009ba	ff 15 00 00 00
	00		 call	 DWORD PTR __imp_??0?$CStringT@DV?$StrTraitMFC_DLL@DV?$ChTraitsCRT@D@ATL@@@@@ATL@@QAE@XZ

; 828  : 		strTitle.LoadString(IDS_ANGLE);

  009c0	6a 05		 push	 5
  009c2	8d 4d cc	 lea	 ecx, DWORD PTR _strTitle$16[ebp]
  009c5	c6 45 fc 0e	 mov	 BYTE PTR __$EHRec$[ebp+8], 14 ; 0000000eH
  009c9	ff 15 00 00 00
	00		 call	 DWORD PTR __imp_?LoadStringA@?$CStringT@DV?$StrTraitMFC_DLL@DV?$ChTraitsCRT@D@ATL@@@@@ATL@@QAEHI@Z

; 829  : 		SetDlgItemText(IDC_CHECK_TEXT_LEFT,strTitle);

  009cf	ff 75 cc	 push	 DWORD PTR _strTitle$16[ebp]
  009d2	8b cb		 mov	 ecx, ebx
  009d4	68 a0 0f 00 00	 push	 4000			; 00000fa0H
  009d9	e8 00 00 00 00	 call	 ?SetDlgItemTextA@CWnd@@QAEXHPBD@Z ; CWnd::SetDlgItemTextA

; 830  : 		strTitle.LoadString(IDS_EXTENSIONLINE);

  009de	6a 06		 push	 6
  009e0	8d 4d cc	 lea	 ecx, DWORD PTR _strTitle$16[ebp]
  009e3	ff 15 00 00 00
	00		 call	 DWORD PTR __imp_?LoadStringA@?$CStringT@DV?$StrTraitMFC_DLL@DV?$ChTraitsCRT@D@ATL@@@@@ATL@@QAEHI@Z

; 831  : 		SetDlgItemText(IDC_CHECK_EXT_LEFT,strTitle);		

  009e9	ff 75 cc	 push	 DWORD PTR _strTitle$16[ebp]
  009ec	8b cb		 mov	 ecx, ebx
  009ee	68 a2 0f 00 00	 push	 4002			; 00000fa2H
  009f3	e8 00 00 00 00	 call	 ?SetDlgItemTextA@CWnd@@QAEXHPBD@Z ; CWnd::SetDlgItemTextA

; 832  : 
; 833  : 		m_ctrlRightText.ShowWindow(SW_HIDE);		

  009f8	6a 00		 push	 0
  009fa	8d 8b 50 03 00
	00		 lea	 ecx, DWORD PTR [ebx+848]
  00a00	e8 00 00 00 00	 call	 ?ShowWindow@CWnd@@QAEHH@Z ; CWnd::ShowWindow

; 834  : 		m_ctrlLeftText.SetCheck(m_pTextPosition->IsShow());

  00a05	8b 8b b4 0c 00
	00		 mov	 ecx, DWORD PTR [ebx+3252]
  00a0b	e8 00 00 00 00	 call	 ?IsShow@CTextShowPosition@@QBE_NXZ ; CTextShowPosition::IsShow
; File C:\Program Files (x86)\Microsoft Visual Studio\2019\Community\VC\Tools\MSVC\14.29.30133\atlmfc\include\afxwin2.inl

; 630  : 	{ ASSERT(::IsWindow(m_hWnd)); ::SendMessage(m_hWnd, BM_SETCHECK, nCheck, 0); }

  00a10	8b 3d 00 00 00
	00		 mov	 edi, DWORD PTR __imp__SendMessageA@16
  00a16	6a 00		 push	 0
; File D:\git\src\IBK\IBK_DRFN\ProjSrc\SrcChartEx\ChartAddIn\ChartAnalysisToolAddIn\AnalysisTool\DlgFiboSet.cpp

; 834  : 		m_ctrlLeftText.SetCheck(m_pTextPosition->IsShow());

  00a18	0f b6 c0	 movzx	 eax, al
; File C:\Program Files (x86)\Microsoft Visual Studio\2019\Community\VC\Tools\MSVC\14.29.30133\atlmfc\include\afxwin2.inl

; 630  : 	{ ASSERT(::IsWindow(m_hWnd)); ::SendMessage(m_hWnd, BM_SETCHECK, nCheck, 0); }

  00a1b	50		 push	 eax
  00a1c	68 f1 00 00 00	 push	 241			; 000000f1H
  00a21	ff b3 f0 02 00
	00		 push	 DWORD PTR [ebx+752]
  00a27	ff d7		 call	 edi
; File D:\git\src\IBK\IBK_DRFN\ProjSrc\SrcChartEx\ChartAddIn\ChartAnalysisToolAddIn\AnalysisTool\DlgFiboSet.cpp

; 836  : 		m_stAnalysisTool.nLeftText = m_pTextPosition->IsShow();

  00a29	8b 8b b4 0c 00
	00		 mov	 ecx, DWORD PTR [ebx+3252]
  00a2f	e8 00 00 00 00	 call	 ?IsShow@CTextShowPosition@@QBE_NXZ ; CTextShowPosition::IsShow
  00a34	0f b6 c0	 movzx	 eax, al

; 837  : 		
; 838  : 		m_nLineExtType = G_LINE_EXT_RIGHT;
; 839  : 		m_ctrlLeftExt.ShowWindow(SW_SHOW);

  00a37	8d 8b d0 04 00
	00		 lea	 ecx, DWORD PTR [ebx+1232]
  00a3d	6a 05		 push	 5
  00a3f	89 83 28 0c 00
	00		 mov	 DWORD PTR [ebx+3112], eax
  00a45	c7 83 90 0c 00
	00 01 00 00 00	 mov	 DWORD PTR [ebx+3216], 1
  00a4f	e8 00 00 00 00	 call	 ?ShowWindow@CWnd@@QAEHH@Z ; CWnd::ShowWindow

; 840  : 		m_ctrlLeftExt.SetCheck(m_pLineExtEnvironment->GetLeftExt());

  00a54	8b 8b f4 0c 00
	00		 mov	 ecx, DWORD PTR [ebx+3316]
  00a5a	e8 00 00 00 00	 call	 ?GetLeftExt@CLineExtEnvironment@@QBEHXZ ; CLineExtEnvironment::GetLeftExt
; File C:\Program Files (x86)\Microsoft Visual Studio\2019\Community\VC\Tools\MSVC\14.29.30133\atlmfc\include\afxwin2.inl

; 630  : 	{ ASSERT(::IsWindow(m_hWnd)); ::SendMessage(m_hWnd, BM_SETCHECK, nCheck, 0); }

  00a5f	6a 00		 push	 0
  00a61	50		 push	 eax
  00a62	68 f1 00 00 00	 push	 241			; 000000f1H
  00a67	ff b3 f0 04 00
	00		 push	 DWORD PTR [ebx+1264]
  00a6d	ff d7		 call	 edi
; File D:\git\src\IBK\IBK_DRFN\ProjSrc\SrcChartEx\ChartAddIn\ChartAnalysisToolAddIn\AnalysisTool\DlgFiboSet.cpp

; 842  : 		m_stAnalysisTool.nLeftExt = m_pLineExtEnvironment->GetLeftExt();

  00a6f	8b 8b f4 0c 00
	00		 mov	 ecx, DWORD PTR [ebx+3316]
  00a75	e8 00 00 00 00	 call	 ?GetLeftExt@CLineExtEnvironment@@QBEHXZ ; CLineExtEnvironment::GetLeftExt

; 843  : 	}

  00a7a	8d 4d cc	 lea	 ecx, DWORD PTR _strTitle$16[ebp]
  00a7d	89 83 3c 0c 00
	00		 mov	 DWORD PTR [ebx+3132], eax
  00a83	ff 15 00 00 00
	00		 call	 DWORD PTR __imp_??1?$CStringT@DV?$StrTraitMFC_DLL@DV?$ChTraitsCRT@D@ATL@@@@@ATL@@QAE@XZ
; File D:\git\src\IBK\IBK_DRFN\ProjSrc\SrcChartEx\ChartAddIn\ChartAnalysisToolAddIn\Include_Chart\Dll_Load\IMetaTable.h

; 1038 : 	{

  00a89	c7 45 fc 0f 00
	00 00		 mov	 DWORD PTR __$EHRec$[ebp+8], 15 ; 0000000fH
; File C:\Program Files (x86)\Microsoft Visual Studio\2019\Community\VC\Tools\MSVC\14.29.30133\atlmfc\include\afxwin1.inl

; 27   : 	{ ASSERT(hInstResource != NULL); afxCurrentResourceHandle = hInstResource; }

  00a90	e8 00 00 00 00	 call	 ?AfxGetModuleState@@YGPAVAFX_MODULE_STATE@@XZ ; AfxGetModuleState
; File D:\git\src\IBK\IBK_DRFN\ProjSrc\SrcChartEx\ChartAddIn\ChartAnalysisToolAddIn\Include_Chart\Dll_Load\IMetaTable.h

; 1040 : 	}

  00a95	c7 45 fc ff ff
	ff ff		 mov	 DWORD PTR __$EHRec$[ebp+8], -1
; File C:\Program Files (x86)\Microsoft Visual Studio\2019\Community\VC\Tools\MSVC\14.29.30133\atlmfc\include\afxwin1.inl

; 27   : 	{ ASSERT(hInstResource != NULL); afxCurrentResourceHandle = hInstResource; }

  00a9c	89 70 0c	 mov	 DWORD PTR [eax+12], esi
; File D:\git\src\IBK\IBK_DRFN\ProjSrc\SrcChartEx\ChartAddIn\ChartAnalysisToolAddIn\AnalysisTool\DlgFiboSet.cpp

; 843  : 	}

  00a9f	e9 64 09 00 00	 jmp	 $LN42@Initialize
$LN33@Initialize:

; 844  : 	else if((CToolEnumData::ElementType)m_nElementType == CToolEnumData::Candle_Line)	//

  00aa4	83 f8 1e	 cmp	 eax, 30			; 0000001eH
  00aa7	0f 85 11 01 00
	00		 jne	 $LN35@Initialize

; 845  : 	{
; 846  : 		m_nTextPosType = G_TEXT_POS_ONE;

  00aad	c7 83 8c 0c 00
	00 00 00 00 00	 mov	 DWORD PTR [ebx+3212], 0

; 847  : 
; 848  : 		ML_SET_LANGUAGE_RES();

  00ab7	e8 00 00 00 00	 call	 ?AfxGetStaticModuleState@@YGPAVAFX_MODULE_STATE@@XZ ; AfxGetStaticModuleState
  00abc	b9 00 00 00 00	 mov	 ecx, OFFSET ?g_iMetaTable@@3VIMetaTable@@A ; g_iMetaTable
  00ac1	8b 40 08	 mov	 eax, DWORD PTR [eax+8]
  00ac4	50		 push	 eax
  00ac5	ff b3 10 0d 00
	00		 push	 DWORD PTR [ebx+3344]
  00acb	e8 00 00 00 00	 call	 ?LoadResourceDLL@IMetaTable@@QAEPAUHINSTANCE__@@PAUHWND__@@PAU2@@Z ; IMetaTable::LoadResourceDLL
  00ad0	8b f8		 mov	 edi, eax
; File C:\Program Files (x86)\Microsoft Visual Studio\2019\Community\VC\Tools\MSVC\14.29.30133\atlmfc\include\afxwin1.inl

; 25   : 		return afxCurrentResourceHandle; }

  00ad2	e8 00 00 00 00	 call	 ?AfxGetModuleState@@YGPAVAFX_MODULE_STATE@@XZ ; AfxGetModuleState
; File D:\git\src\IBK\IBK_DRFN\ProjSrc\SrcChartEx\ChartAddIn\ChartAnalysisToolAddIn\Include_Chart\Dll_Load\IMetaTable.h

; 1034 : 		m_hInstance = AfxGetResourceHandle();

  00ad7	8b 70 0c	 mov	 esi, DWORD PTR [eax+12]
  00ada	89 75 c8	 mov	 DWORD PTR ___mlrs__$9[ebp], esi
; File C:\Program Files (x86)\Microsoft Visual Studio\2019\Community\VC\Tools\MSVC\14.29.30133\atlmfc\include\afxwin1.inl

; 27   : 	{ ASSERT(hInstResource != NULL); afxCurrentResourceHandle = hInstResource; }

  00add	e8 00 00 00 00	 call	 ?AfxGetModuleState@@YGPAVAFX_MODULE_STATE@@XZ ; AfxGetModuleState
  00ae2	89 78 0c	 mov	 DWORD PTR [eax+12], edi
; File D:\git\src\IBK\IBK_DRFN\ProjSrc\SrcChartEx\ChartAddIn\ChartAnalysisToolAddIn\AnalysisTool\DlgFiboSet.cpp

; 850  : 		CString strTitle;

  00ae5	8d 4d cc	 lea	 ecx, DWORD PTR _strTitle$15[ebp]
  00ae8	c7 45 fc 10 00
	00 00		 mov	 DWORD PTR __$EHRec$[ebp+8], 16 ; 00000010H
  00aef	ff 15 00 00 00
	00		 call	 DWORD PTR __imp_??0?$CStringT@DV?$StrTraitMFC_DLL@DV?$ChTraitsCRT@D@ATL@@@@@ATL@@QAE@XZ

; 851  : 		strTitle.LoadString(IDS_SHOW);

  00af5	6a 04		 push	 4
  00af7	8d 4d cc	 lea	 ecx, DWORD PTR _strTitle$15[ebp]
  00afa	c6 45 fc 11	 mov	 BYTE PTR __$EHRec$[ebp+8], 17 ; 00000011H
  00afe	ff 15 00 00 00
	00		 call	 DWORD PTR __imp_?LoadStringA@?$CStringT@DV?$StrTraitMFC_DLL@DV?$ChTraitsCRT@D@ATL@@@@@ATL@@QAEHI@Z

; 852  : 		SetDlgItemText(IDC_CHECK_TEXT_LEFT,strTitle);

  00b04	ff 75 cc	 push	 DWORD PTR _strTitle$15[ebp]
  00b07	8b cb		 mov	 ecx, ebx
  00b09	68 a0 0f 00 00	 push	 4000			; 00000fa0H
  00b0e	e8 00 00 00 00	 call	 ?SetDlgItemTextA@CWnd@@QAEXHPBD@Z ; CWnd::SetDlgItemTextA

; 853  : 		m_ctrlRightText.ShowWindow(SW_HIDE);		

  00b13	6a 00		 push	 0
  00b15	8d 8b 50 03 00
	00		 lea	 ecx, DWORD PTR [ebx+848]
  00b1b	e8 00 00 00 00	 call	 ?ShowWindow@CWnd@@QAEHH@Z ; CWnd::ShowWindow

; 854  : 		m_ctrlLeftText.SetCheck(m_pTextPosition->IsShow());

  00b20	8b 8b b4 0c 00
	00		 mov	 ecx, DWORD PTR [ebx+3252]
  00b26	e8 00 00 00 00	 call	 ?IsShow@CTextShowPosition@@QBE_NXZ ; CTextShowPosition::IsShow
; File C:\Program Files (x86)\Microsoft Visual Studio\2019\Community\VC\Tools\MSVC\14.29.30133\atlmfc\include\afxwin2.inl

; 630  : 	{ ASSERT(::IsWindow(m_hWnd)); ::SendMessage(m_hWnd, BM_SETCHECK, nCheck, 0); }

  00b2b	6a 00		 push	 0
; File D:\git\src\IBK\IBK_DRFN\ProjSrc\SrcChartEx\ChartAddIn\ChartAnalysisToolAddIn\AnalysisTool\DlgFiboSet.cpp

; 854  : 		m_ctrlLeftText.SetCheck(m_pTextPosition->IsShow());

  00b2d	0f b6 c0	 movzx	 eax, al
; File C:\Program Files (x86)\Microsoft Visual Studio\2019\Community\VC\Tools\MSVC\14.29.30133\atlmfc\include\afxwin2.inl

; 630  : 	{ ASSERT(::IsWindow(m_hWnd)); ::SendMessage(m_hWnd, BM_SETCHECK, nCheck, 0); }

  00b30	50		 push	 eax
  00b31	68 f1 00 00 00	 push	 241			; 000000f1H
  00b36	ff b3 f0 02 00
	00		 push	 DWORD PTR [ebx+752]
  00b3c	ff 15 00 00 00
	00		 call	 DWORD PTR __imp__SendMessageA@16
; File D:\git\src\IBK\IBK_DRFN\ProjSrc\SrcChartEx\ChartAddIn\ChartAnalysisToolAddIn\AnalysisTool\DlgFiboSet.cpp

; 856  : 		m_stAnalysisTool.nLeftText = m_pTextPosition->IsShow();

  00b42	8b 8b b4 0c 00
	00		 mov	 ecx, DWORD PTR [ebx+3252]
  00b48	e8 00 00 00 00	 call	 ?IsShow@CTextShowPosition@@QBE_NXZ ; CTextShowPosition::IsShow
  00b4d	0f b6 c0	 movzx	 eax, al

; 857  : 
; 858  : 		// 
; 859  : 		m_ctrlXDateTime2.ShowWindow(SW_HIDE);

  00b50	8d 8b d0 0a 00
	00		 lea	 ecx, DWORD PTR [ebx+2768]
  00b56	6a 00		 push	 0
  00b58	89 83 28 0c 00
	00		 mov	 DWORD PTR [ebx+3112], eax
  00b5e	e8 00 00 00 00	 call	 ?ShowWindow@CWnd@@QAEHH@Z ; CWnd::ShowWindow

; 860  : 		m_ctrlEditValue2.ShowWindow(SW_HIDE);

  00b63	6a 00		 push	 0
  00b65	8d 8b 50 09 00
	00		 lea	 ecx, DWORD PTR [ebx+2384]
  00b6b	e8 00 00 00 00	 call	 ?ShowWindow@CWnd@@QAEHH@Z ; CWnd::ShowWindow

; 861  : 
; 862  : 		GetDlgItem(IDC_STATIC_XDATE2)->ShowWindow(SW_HIDE);

  00b70	6a 00		 push	 0
  00b72	68 ab 0f 00 00	 push	 4011			; 00000fabH
  00b77	8b cb		 mov	 ecx, ebx
  00b79	e8 00 00 00 00	 call	 ?GetDlgItem@CWnd@@QBEPAV1@H@Z ; CWnd::GetDlgItem
  00b7e	8b c8		 mov	 ecx, eax
  00b80	e8 00 00 00 00	 call	 ?ShowWindow@CWnd@@QAEHH@Z ; CWnd::ShowWindow

; 863  : 		GetDlgItem(IDC_STATIC_YVALUE2)->ShowWindow(SW_HIDE);

  00b85	6a 00		 push	 0
  00b87	68 ae 0f 00 00	 push	 4014			; 00000faeH
  00b8c	8b cb		 mov	 ecx, ebx
  00b8e	e8 00 00 00 00	 call	 ?GetDlgItem@CWnd@@QBEPAV1@H@Z ; CWnd::GetDlgItem
  00b93	8b c8		 mov	 ecx, eax
  00b95	e8 00 00 00 00	 call	 ?ShowWindow@CWnd@@QAEHH@Z ; CWnd::ShowWindow

; 864  : 	} 

  00b9a	8d 4d cc	 lea	 ecx, DWORD PTR _strTitle$15[ebp]
  00b9d	ff 15 00 00 00
	00		 call	 DWORD PTR __imp_??1?$CStringT@DV?$StrTraitMFC_DLL@DV?$ChTraitsCRT@D@ATL@@@@@ATL@@QAE@XZ
; File D:\git\src\IBK\IBK_DRFN\ProjSrc\SrcChartEx\ChartAddIn\ChartAnalysisToolAddIn\Include_Chart\Dll_Load\IMetaTable.h

; 1038 : 	{

  00ba3	c7 45 fc 12 00
	00 00		 mov	 DWORD PTR __$EHRec$[ebp+8], 18 ; 00000012H
; File C:\Program Files (x86)\Microsoft Visual Studio\2019\Community\VC\Tools\MSVC\14.29.30133\atlmfc\include\afxwin1.inl

; 27   : 	{ ASSERT(hInstResource != NULL); afxCurrentResourceHandle = hInstResource; }

  00baa	e8 00 00 00 00	 call	 ?AfxGetModuleState@@YGPAVAFX_MODULE_STATE@@XZ ; AfxGetModuleState
; File D:\git\src\IBK\IBK_DRFN\ProjSrc\SrcChartEx\ChartAddIn\ChartAnalysisToolAddIn\Include_Chart\Dll_Load\IMetaTable.h

; 1040 : 	}

  00baf	c7 45 fc ff ff
	ff ff		 mov	 DWORD PTR __$EHRec$[ebp+8], -1
; File C:\Program Files (x86)\Microsoft Visual Studio\2019\Community\VC\Tools\MSVC\14.29.30133\atlmfc\include\afxwin1.inl

; 27   : 	{ ASSERT(hInstResource != NULL); afxCurrentResourceHandle = hInstResource; }

  00bb6	89 70 0c	 mov	 DWORD PTR [eax+12], esi
; File D:\git\src\IBK\IBK_DRFN\ProjSrc\SrcChartEx\ChartAddIn\ChartAnalysisToolAddIn\AnalysisTool\DlgFiboSet.cpp

; 864  : 	} 

  00bb9	e9 4a 08 00 00	 jmp	 $LN42@Initialize
$LN35@Initialize:

; 865  : 	else if((CToolEnumData::ElementType)m_nElementType == CToolEnumData::Linear_Regression  ||

  00bbe	83 f8 1b	 cmp	 eax, 27			; 0000001bH
  00bc1	0f 84 60 01 00
	00		 je	 $LN39@Initialize
  00bc7	83 f8 1c	 cmp	 eax, 28			; 0000001cH
  00bca	0f 84 57 01 00
	00		 je	 $LN39@Initialize

; 884  : 	else if((CToolEnumData::ElementType)m_nElementType == CToolEnumData::AndrewsPitchfork)

  00bd0	83 f8 14	 cmp	 eax, 20			; 00000014H
  00bd3	0f 85 f3 00 00
	00		 jne	 $LN40@Initialize

; 885  : 	{
; 886  : 		ML_SET_LANGUAGE_RES();

  00bd9	e8 00 00 00 00	 call	 ?AfxGetStaticModuleState@@YGPAVAFX_MODULE_STATE@@XZ ; AfxGetStaticModuleState
  00bde	b9 00 00 00 00	 mov	 ecx, OFFSET ?g_iMetaTable@@3VIMetaTable@@A ; g_iMetaTable
  00be3	8b 40 08	 mov	 eax, DWORD PTR [eax+8]
  00be6	50		 push	 eax
  00be7	ff b3 10 0d 00
	00		 push	 DWORD PTR [ebx+3344]
  00bed	e8 00 00 00 00	 call	 ?LoadResourceDLL@IMetaTable@@QAEPAUHINSTANCE__@@PAUHWND__@@PAU2@@Z ; IMetaTable::LoadResourceDLL
  00bf2	8b f8		 mov	 edi, eax
; File C:\Program Files (x86)\Microsoft Visual Studio\2019\Community\VC\Tools\MSVC\14.29.30133\atlmfc\include\afxwin1.inl

; 25   : 		return afxCurrentResourceHandle; }

  00bf4	e8 00 00 00 00	 call	 ?AfxGetModuleState@@YGPAVAFX_MODULE_STATE@@XZ ; AfxGetModuleState
; File D:\git\src\IBK\IBK_DRFN\ProjSrc\SrcChartEx\ChartAddIn\ChartAnalysisToolAddIn\Include_Chart\Dll_Load\IMetaTable.h

; 1034 : 		m_hInstance = AfxGetResourceHandle();

  00bf9	8b 70 0c	 mov	 esi, DWORD PTR [eax+12]
  00bfc	89 75 c8	 mov	 DWORD PTR ___mlrs__$8[ebp], esi
; File C:\Program Files (x86)\Microsoft Visual Studio\2019\Community\VC\Tools\MSVC\14.29.30133\atlmfc\include\afxwin1.inl

; 27   : 	{ ASSERT(hInstResource != NULL); afxCurrentResourceHandle = hInstResource; }

  00bff	e8 00 00 00 00	 call	 ?AfxGetModuleState@@YGPAVAFX_MODULE_STATE@@XZ ; AfxGetModuleState
  00c04	89 78 0c	 mov	 DWORD PTR [eax+12], edi
; File D:\git\src\IBK\IBK_DRFN\ProjSrc\SrcChartEx\ChartAddIn\ChartAnalysisToolAddIn\AnalysisTool\DlgFiboSet.cpp

; 888  : 		CString strTitle;

  00c07	8d 4d cc	 lea	 ecx, DWORD PTR _strTitle$14[ebp]
  00c0a	c7 45 fc 13 00
	00 00		 mov	 DWORD PTR __$EHRec$[ebp+8], 19 ; 00000013H
  00c11	ff 15 00 00 00
	00		 call	 DWORD PTR __imp_??0?$CStringT@DV?$StrTraitMFC_DLL@DV?$ChTraitsCRT@D@ATL@@@@@ATL@@QAE@XZ

; 889  : 		strTitle.LoadString(IDS_MIDDATE);

  00c17	6a 07		 push	 7
  00c19	8d 4d cc	 lea	 ecx, DWORD PTR _strTitle$14[ebp]
  00c1c	c6 45 fc 14	 mov	 BYTE PTR __$EHRec$[ebp+8], 20 ; 00000014H
  00c20	ff 15 00 00 00
	00		 call	 DWORD PTR __imp_?LoadStringA@?$CStringT@DV?$StrTraitMFC_DLL@DV?$ChTraitsCRT@D@ATL@@@@@ATL@@QAEHI@Z

; 890  : 		SetDlgItemText(IDC_STATIC_XDATE2,strTitle);

  00c26	ff 75 cc	 push	 DWORD PTR _strTitle$14[ebp]
  00c29	8b cb		 mov	 ecx, ebx
  00c2b	68 ab 0f 00 00	 push	 4011			; 00000fabH
  00c30	e8 00 00 00 00	 call	 ?SetDlgItemTextA@CWnd@@QAEXHPBD@Z ; CWnd::SetDlgItemTextA

; 891  : 
; 892  : 		GetDlgItem(IDC_STATIC_XDATE3)->ShowWindow(SW_SHOW);

  00c35	6a 05		 push	 5
  00c37	68 ac 0f 00 00	 push	 4012			; 00000facH
  00c3c	8b cb		 mov	 ecx, ebx
  00c3e	e8 00 00 00 00	 call	 ?GetDlgItem@CWnd@@QBEPAV1@H@Z ; CWnd::GetDlgItem
  00c43	8b c8		 mov	 ecx, eax
  00c45	e8 00 00 00 00	 call	 ?ShowWindow@CWnd@@QAEHH@Z ; CWnd::ShowWindow

; 893  : 		GetDlgItem(IDC_STATIC_YVALUE3)->ShowWindow(SW_SHOW);

  00c4a	6a 05		 push	 5
  00c4c	68 ad 0f 00 00	 push	 4013			; 00000fadH
  00c51	8b cb		 mov	 ecx, ebx
  00c53	e8 00 00 00 00	 call	 ?GetDlgItem@CWnd@@QBEPAV1@H@Z ; CWnd::GetDlgItem
  00c58	8b c8		 mov	 ecx, eax
  00c5a	e8 00 00 00 00	 call	 ?ShowWindow@CWnd@@QAEHH@Z ; CWnd::ShowWindow

; 894  : 		m_ctrlXDateTime3.ShowWindow(SW_SHOW);

  00c5f	6a 05		 push	 5
  00c61	8d 8b 50 0b 00
	00		 lea	 ecx, DWORD PTR [ebx+2896]
  00c67	e8 00 00 00 00	 call	 ?ShowWindow@CWnd@@QAEHH@Z ; CWnd::ShowWindow

; 895  : 		m_ctrlEditValue3.ShowWindow(SW_SHOW);

  00c6c	6a 05		 push	 5
  00c6e	8d 8b d0 09 00
	00		 lea	 ecx, DWORD PTR [ebx+2512]
  00c74	e8 00 00 00 00	 call	 ?ShowWindow@CWnd@@QAEHH@Z ; CWnd::ShowWindow

; 896  : 
; 897  : 		GetDlgItem(IDC_TEXT_STATIC)->ShowWindow(SW_HIDE);

  00c79	6a 00		 push	 0
  00c7b	68 18 27 00 00	 push	 10008			; 00002718H
  00c80	8b cb		 mov	 ecx, ebx
  00c82	e8 00 00 00 00	 call	 ?GetDlgItem@CWnd@@QBEPAV1@H@Z ; CWnd::GetDlgItem
  00c87	8b c8		 mov	 ecx, eax
  00c89	e8 00 00 00 00	 call	 ?ShowWindow@CWnd@@QAEHH@Z ; CWnd::ShowWindow

; 898  : 		m_ctrlLeftText.ShowWindow(SW_HIDE);

  00c8e	6a 00		 push	 0
  00c90	8d 8b d0 02 00
	00		 lea	 ecx, DWORD PTR [ebx+720]
  00c96	e8 00 00 00 00	 call	 ?ShowWindow@CWnd@@QAEHH@Z ; CWnd::ShowWindow

; 899  : 		m_ctrlRightText.ShowWindow(SW_HIDE);

  00c9b	6a 00		 push	 0
  00c9d	8d 8b 50 03 00
	00		 lea	 ecx, DWORD PTR [ebx+848]
  00ca3	e8 00 00 00 00	 call	 ?ShowWindow@CWnd@@QAEHH@Z ; CWnd::ShowWindow

; 900  : 	}

  00ca8	8d 4d cc	 lea	 ecx, DWORD PTR _strTitle$14[ebp]
  00cab	ff 15 00 00 00
	00		 call	 DWORD PTR __imp_??1?$CStringT@DV?$StrTraitMFC_DLL@DV?$ChTraitsCRT@D@ATL@@@@@ATL@@QAE@XZ
; File D:\git\src\IBK\IBK_DRFN\ProjSrc\SrcChartEx\ChartAddIn\ChartAnalysisToolAddIn\Include_Chart\Dll_Load\IMetaTable.h

; 1038 : 	{

  00cb1	c7 45 fc 15 00
	00 00		 mov	 DWORD PTR __$EHRec$[ebp+8], 21 ; 00000015H
; File C:\Program Files (x86)\Microsoft Visual Studio\2019\Community\VC\Tools\MSVC\14.29.30133\atlmfc\include\afxwin1.inl

; 27   : 	{ ASSERT(hInstResource != NULL); afxCurrentResourceHandle = hInstResource; }

  00cb8	e8 00 00 00 00	 call	 ?AfxGetModuleState@@YGPAVAFX_MODULE_STATE@@XZ ; AfxGetModuleState
; File D:\git\src\IBK\IBK_DRFN\ProjSrc\SrcChartEx\ChartAddIn\ChartAnalysisToolAddIn\Include_Chart\Dll_Load\IMetaTable.h

; 1040 : 	}

  00cbd	c7 45 fc ff ff
	ff ff		 mov	 DWORD PTR __$EHRec$[ebp+8], -1
; File C:\Program Files (x86)\Microsoft Visual Studio\2019\Community\VC\Tools\MSVC\14.29.30133\atlmfc\include\afxwin1.inl

; 27   : 	{ ASSERT(hInstResource != NULL); afxCurrentResourceHandle = hInstResource; }

  00cc4	89 70 0c	 mov	 DWORD PTR [eax+12], esi
; File D:\git\src\IBK\IBK_DRFN\ProjSrc\SrcChartEx\ChartAddIn\ChartAnalysisToolAddIn\AnalysisTool\DlgFiboSet.cpp

; 900  : 	}

  00cc7	e9 3c 07 00 00	 jmp	 $LN42@Initialize
$LN40@Initialize:

; 901  : 	else if(//(CToolEnumData::ElementType)m_nElementType == CToolEnumData::Fibo_Semicircle ||
; 902  : 			//(CToolEnumData::ElementType)m_nElementType == CToolEnumData::Fibo_Circle	 ||
; 903  : 			//(CToolEnumData::ElementType)m_nElementType == CToolEnumData::Fibo_Fan_Line	 ||
; 904  : 			(CToolEnumData::ElementType)m_nElementType == CToolEnumData::Gann_Line1		 ||
; 905  : 			(CToolEnumData::ElementType)m_nElementType == CToolEnumData::Gann_Line2		 ||
; 906  : 			(CToolEnumData::ElementType)m_nElementType == CToolEnumData::Gann_Fan1		 ||
; 907  : 			(CToolEnumData::ElementType)m_nElementType == CToolEnumData::Gann_Fan2		 ||
; 908  : 			(CToolEnumData::ElementType)m_nElementType == CToolEnumData::Gann_Fan3		 ||
; 909  : 			(CToolEnumData::ElementType)m_nElementType == CToolEnumData::Gann_Fan4		 ||
; 910  : 			(CToolEnumData::ElementType)m_nElementType == CToolEnumData::Gann_Grid		 ||
; 911  : 			(CToolEnumData::ElementType)m_nElementType == CToolEnumData::Speed_Line		 ||
; 912  : 			(CToolEnumData::ElementType)m_nElementType == CToolEnumData::Speed_Fan		 ||
; 913  : 			(CToolEnumData::ElementType)m_nElementType == CToolEnumData::Speed_Arc		 ||
; 914  : 			(CToolEnumData::ElementType)m_nElementType == CToolEnumData::Cycle_Line		 ||

  00ccc	83 f8 0d	 cmp	 eax, 13			; 0000000dH
  00ccf	74 27		 je	 SHORT $LN43@Initialize
  00cd1	83 f8 0e	 cmp	 eax, 14			; 0000000eH
  00cd4	74 22		 je	 SHORT $LN43@Initialize
  00cd6	83 f8 13	 cmp	 eax, 19			; 00000013H
  00cd9	74 1d		 je	 SHORT $LN43@Initialize
  00cdb	83 f8 18	 cmp	 eax, 24			; 00000018H
  00cde	74 18		 je	 SHORT $LN43@Initialize
  00ce0	83 f8 19	 cmp	 eax, 25			; 00000019H
  00ce3	74 13		 je	 SHORT $LN43@Initialize
  00ce5	83 f8 1a	 cmp	 eax, 26			; 0000001aH
  00ce8	74 0e		 je	 SHORT $LN43@Initialize
  00cea	83 f8 16	 cmp	 eax, 22			; 00000016H
  00ced	74 09		 je	 SHORT $LN43@Initialize
  00cef	83 f8 15	 cmp	 eax, 21			; 00000015H
  00cf2	0f 85 10 07 00
	00		 jne	 $LN42@Initialize
$LN43@Initialize:

; 915  : 			(CToolEnumData::ElementType)m_nElementType == CToolEnumData::ElliotWave_Line)
; 916  : 	{
; 917  : 		if((CToolEnumData::ElementType)m_nElementType == CToolEnumData::Gann_Fan1		 ||
; 918  : 			(CToolEnumData::ElementType)m_nElementType == CToolEnumData::Gann_Fan2		 ||
; 919  : 			(CToolEnumData::ElementType)m_nElementType == CToolEnumData::Gann_Fan3		 ||
; 920  : 			(CToolEnumData::ElementType)m_nElementType == CToolEnumData::Gann_Fan4)
; 921  : 		{
; 922  : 			m_ctrlXDateTime2.ShowWindow(SW_HIDE);
; 923  : 			m_ctrlEditValue2.ShowWindow(SW_HIDE);
; 924  : 			GetDlgItem(IDC_STATIC_XDATE2)->ShowWindow(SW_HIDE);
; 925  : 			GetDlgItem(IDC_STATIC_YVALUE2)->ShowWindow(SW_HIDE);
; 926  : 		}
; 927  : 		
; 928  : 		GetDlgItem(IDC_TEXT_STATIC)->ShowWindow(SW_HIDE);

  00cf8	6a 00		 push	 0
  00cfa	68 18 27 00 00	 push	 10008			; 00002718H
  00cff	8b cb		 mov	 ecx, ebx
  00d01	e8 00 00 00 00	 call	 ?GetDlgItem@CWnd@@QBEPAV1@H@Z ; CWnd::GetDlgItem
  00d06	8b c8		 mov	 ecx, eax
  00d08	e8 00 00 00 00	 call	 ?ShowWindow@CWnd@@QAEHH@Z ; CWnd::ShowWindow

; 929  : 		m_ctrlLeftText.ShowWindow(SW_HIDE);

  00d0d	6a 00		 push	 0
  00d0f	8d 8b d0 02 00
	00		 lea	 ecx, DWORD PTR [ebx+720]
  00d15	e8 00 00 00 00	 call	 ?ShowWindow@CWnd@@QAEHH@Z ; CWnd::ShowWindow

; 930  : 		m_ctrlRightText.ShowWindow(SW_HIDE);

  00d1a	6a 00		 push	 0
  00d1c	8d 8b 50 03 00
	00		 lea	 ecx, DWORD PTR [ebx+848]
  00d22	e9 dc 06 00 00	 jmp	 $LN381@Initialize
$LN39@Initialize:

; 866  : 			(CToolEnumData::ElementType)m_nElementType == CToolEnumData::Raff_Regression)//	||
; 867  : 			//(CToolEnumData::ElementType)m_nElementType == CToolEnumData::Standard_Deviation	||
; 868  : 			//(CToolEnumData::ElementType)m_nElementType == CToolEnumData::Standard_Error
; 869  : 	{
; 870  : 		GetDlgItem(IDC_TEXT_STATIC)->ShowWindow(SW_HIDE);

  00d27	6a 00		 push	 0
  00d29	68 18 27 00 00	 push	 10008			; 00002718H
  00d2e	8b cb		 mov	 ecx, ebx
  00d30	e8 00 00 00 00	 call	 ?GetDlgItem@CWnd@@QBEPAV1@H@Z ; CWnd::GetDlgItem
  00d35	8b c8		 mov	 ecx, eax
  00d37	e8 00 00 00 00	 call	 ?ShowWindow@CWnd@@QAEHH@Z ; CWnd::ShowWindow

; 871  : 		m_ctrlLeftText.ShowWindow(SW_HIDE);

  00d3c	6a 00		 push	 0
  00d3e	8d 8b d0 02 00
	00		 lea	 ecx, DWORD PTR [ebx+720]
  00d44	e8 00 00 00 00	 call	 ?ShowWindow@CWnd@@QAEHH@Z ; CWnd::ShowWindow

; 872  : 		m_ctrlRightText.ShowWindow(SW_HIDE);

  00d49	6a 00		 push	 0
  00d4b	8d 8b 50 03 00
	00		 lea	 ecx, DWORD PTR [ebx+848]
  00d51	e8 00 00 00 00	 call	 ?ShowWindow@CWnd@@QAEHH@Z ; CWnd::ShowWindow

; 873  : 
; 874  : 		m_nLineExtType = G_LINE_EXT_BOTH;
; 875  : 		m_ctrlLeftExt.ShowWindow(SW_SHOW);

  00d56	6a 05		 push	 5
  00d58	8d 8b d0 04 00
	00		 lea	 ecx, DWORD PTR [ebx+1232]
  00d5e	c7 83 90 0c 00
	00 02 00 00 00	 mov	 DWORD PTR [ebx+3216], 2
  00d68	e8 00 00 00 00	 call	 ?ShowWindow@CWnd@@QAEHH@Z ; CWnd::ShowWindow

; 876  : 		m_ctrlRightExt.ShowWindow(SW_SHOW);

  00d6d	6a 05		 push	 5
  00d6f	8d 8b 50 05 00
	00		 lea	 ecx, DWORD PTR [ebx+1360]
  00d75	e8 00 00 00 00	 call	 ?ShowWindow@CWnd@@QAEHH@Z ; CWnd::ShowWindow

; 877  : 
; 878  : 		m_ctrlLeftExt.SetCheck(m_pLineExtEnvironment->GetLeftExt());

  00d7a	8b 8b f4 0c 00
	00		 mov	 ecx, DWORD PTR [ebx+3316]
  00d80	e8 00 00 00 00	 call	 ?GetLeftExt@CLineExtEnvironment@@QBEHXZ ; CLineExtEnvironment::GetLeftExt
; File C:\Program Files (x86)\Microsoft Visual Studio\2019\Community\VC\Tools\MSVC\14.29.30133\atlmfc\include\afxwin2.inl

; 630  : 	{ ASSERT(::IsWindow(m_hWnd)); ::SendMessage(m_hWnd, BM_SETCHECK, nCheck, 0); }

  00d85	8b 35 00 00 00
	00		 mov	 esi, DWORD PTR __imp__SendMessageA@16
  00d8b	6a 00		 push	 0
  00d8d	50		 push	 eax
  00d8e	68 f1 00 00 00	 push	 241			; 000000f1H
  00d93	ff b3 f0 04 00
	00		 push	 DWORD PTR [ebx+1264]
  00d99	ff d6		 call	 esi
; File D:\git\src\IBK\IBK_DRFN\ProjSrc\SrcChartEx\ChartAddIn\ChartAnalysisToolAddIn\AnalysisTool\DlgFiboSet.cpp

; 879  : 		m_ctrlRightExt.SetCheck(m_pLineExtEnvironment->GetRightExt());

  00d9b	8b 8b f4 0c 00
	00		 mov	 ecx, DWORD PTR [ebx+3316]
  00da1	e8 00 00 00 00	 call	 ?GetRightExt@CLineExtEnvironment@@QBEHXZ ; CLineExtEnvironment::GetRightExt
; File C:\Program Files (x86)\Microsoft Visual Studio\2019\Community\VC\Tools\MSVC\14.29.30133\atlmfc\include\afxwin2.inl

; 630  : 	{ ASSERT(::IsWindow(m_hWnd)); ::SendMessage(m_hWnd, BM_SETCHECK, nCheck, 0); }

  00da6	6a 00		 push	 0
  00da8	50		 push	 eax
  00da9	68 f1 00 00 00	 push	 241			; 000000f1H
  00dae	ff b3 70 05 00
	00		 push	 DWORD PTR [ebx+1392]
  00db4	ff d6		 call	 esi
; File D:\git\src\IBK\IBK_DRFN\ProjSrc\SrcChartEx\ChartAddIn\ChartAnalysisToolAddIn\AnalysisTool\DlgFiboSet.cpp

; 881  : 		m_stAnalysisTool.nLeftExt = m_pLineExtEnvironment->GetLeftExt();

  00db6	8b 8b f4 0c 00
	00		 mov	 ecx, DWORD PTR [ebx+3316]
  00dbc	e8 00 00 00 00	 call	 ?GetLeftExt@CLineExtEnvironment@@QBEHXZ ; CLineExtEnvironment::GetLeftExt

; 882  : 		m_stAnalysisTool.nRightExt = m_pLineExtEnvironment->GetRightExt();

  00dc1	8b 8b f4 0c 00
	00		 mov	 ecx, DWORD PTR [ebx+3316]
  00dc7	89 83 3c 0c 00
	00		 mov	 DWORD PTR [ebx+3132], eax
  00dcd	e8 00 00 00 00	 call	 ?GetRightExt@CLineExtEnvironment@@QBEHXZ ; CLineExtEnvironment::GetRightExt
  00dd2	89 83 40 0c 00
	00		 mov	 DWORD PTR [ebx+3136], eax

; 883  : 	} 

  00dd8	e9 2b 06 00 00	 jmp	 $LN42@Initialize
$LN31@Initialize:

; 793  : 			(CToolEnumData::ElementType)m_nElementType == CToolEnumData::Gann_Fan4)
; 794  : 	{
; 795  : 		m_nTextPosType = G_TEXT_POS_ONE;

  00ddd	c7 83 8c 0c 00
	00 00 00 00 00	 mov	 DWORD PTR [ebx+3212], 0

; 796  : 		
; 797  : 		ML_SET_LANGUAGE_RES();

  00de7	e8 00 00 00 00	 call	 ?AfxGetStaticModuleState@@YGPAVAFX_MODULE_STATE@@XZ ; AfxGetStaticModuleState
  00dec	b9 00 00 00 00	 mov	 ecx, OFFSET ?g_iMetaTable@@3VIMetaTable@@A ; g_iMetaTable
  00df1	8b 40 08	 mov	 eax, DWORD PTR [eax+8]
  00df4	50		 push	 eax
  00df5	ff b3 10 0d 00
	00		 push	 DWORD PTR [ebx+3344]
  00dfb	e8 00 00 00 00	 call	 ?LoadResourceDLL@IMetaTable@@QAEPAUHINSTANCE__@@PAUHWND__@@PAU2@@Z ; IMetaTable::LoadResourceDLL
  00e00	8b f8		 mov	 edi, eax
; File C:\Program Files (x86)\Microsoft Visual Studio\2019\Community\VC\Tools\MSVC\14.29.30133\atlmfc\include\afxwin1.inl

; 25   : 		return afxCurrentResourceHandle; }

  00e02	e8 00 00 00 00	 call	 ?AfxGetModuleState@@YGPAVAFX_MODULE_STATE@@XZ ; AfxGetModuleState
; File D:\git\src\IBK\IBK_DRFN\ProjSrc\SrcChartEx\ChartAddIn\ChartAnalysisToolAddIn\Include_Chart\Dll_Load\IMetaTable.h

; 1034 : 		m_hInstance = AfxGetResourceHandle();

  00e07	8b 70 0c	 mov	 esi, DWORD PTR [eax+12]
  00e0a	89 75 c8	 mov	 DWORD PTR ___mlrs__$11[ebp], esi
; File C:\Program Files (x86)\Microsoft Visual Studio\2019\Community\VC\Tools\MSVC\14.29.30133\atlmfc\include\afxwin1.inl

; 27   : 	{ ASSERT(hInstResource != NULL); afxCurrentResourceHandle = hInstResource; }

  00e0d	e8 00 00 00 00	 call	 ?AfxGetModuleState@@YGPAVAFX_MODULE_STATE@@XZ ; AfxGetModuleState
  00e12	89 78 0c	 mov	 DWORD PTR [eax+12], edi
; File D:\git\src\IBK\IBK_DRFN\ProjSrc\SrcChartEx\ChartAddIn\ChartAnalysisToolAddIn\AnalysisTool\DlgFiboSet.cpp

; 799  : 		CString strTitle;

  00e15	8d 4d cc	 lea	 ecx, DWORD PTR _strTitle$17[ebp]
  00e18	c7 45 fc 0a 00
	00 00		 mov	 DWORD PTR __$EHRec$[ebp+8], 10 ; 0000000aH
  00e1f	ff 15 00 00 00
	00		 call	 DWORD PTR __imp_??0?$CStringT@DV?$StrTraitMFC_DLL@DV?$ChTraitsCRT@D@ATL@@@@@ATL@@QAE@XZ

; 800  : 		strTitle.LoadString(IDS_SHOW);

  00e25	6a 04		 push	 4
  00e27	8d 4d cc	 lea	 ecx, DWORD PTR _strTitle$17[ebp]
  00e2a	c6 45 fc 0b	 mov	 BYTE PTR __$EHRec$[ebp+8], 11 ; 0000000bH
  00e2e	ff 15 00 00 00
	00		 call	 DWORD PTR __imp_?LoadStringA@?$CStringT@DV?$StrTraitMFC_DLL@DV?$ChTraitsCRT@D@ATL@@@@@ATL@@QAEHI@Z

; 801  : 		SetDlgItemText(IDC_CHECK_TEXT_LEFT,strTitle);

  00e34	ff 75 cc	 push	 DWORD PTR _strTitle$17[ebp]
  00e37	8b cb		 mov	 ecx, ebx
  00e39	68 a0 0f 00 00	 push	 4000			; 00000fa0H
  00e3e	e8 00 00 00 00	 call	 ?SetDlgItemTextA@CWnd@@QAEXHPBD@Z ; CWnd::SetDlgItemTextA

; 802  : 		
; 803  : 		m_ctrlRightText.ShowWindow(SW_HIDE);		

  00e43	6a 00		 push	 0
  00e45	8d 8b 50 03 00
	00		 lea	 ecx, DWORD PTR [ebx+848]
  00e4b	e8 00 00 00 00	 call	 ?ShowWindow@CWnd@@QAEHH@Z ; CWnd::ShowWindow

; 804  : 		m_ctrlLeftText.SetCheck(m_pTextPosition->IsShow());

  00e50	8b 8b b4 0c 00
	00		 mov	 ecx, DWORD PTR [ebx+3252]
  00e56	e8 00 00 00 00	 call	 ?IsShow@CTextShowPosition@@QBE_NXZ ; CTextShowPosition::IsShow
; File C:\Program Files (x86)\Microsoft Visual Studio\2019\Community\VC\Tools\MSVC\14.29.30133\atlmfc\include\afxwin2.inl

; 630  : 	{ ASSERT(::IsWindow(m_hWnd)); ::SendMessage(m_hWnd, BM_SETCHECK, nCheck, 0); }

  00e5b	8b 3d 00 00 00
	00		 mov	 edi, DWORD PTR __imp__SendMessageA@16
  00e61	6a 00		 push	 0
; File D:\git\src\IBK\IBK_DRFN\ProjSrc\SrcChartEx\ChartAddIn\ChartAnalysisToolAddIn\AnalysisTool\DlgFiboSet.cpp

; 804  : 		m_ctrlLeftText.SetCheck(m_pTextPosition->IsShow());

  00e63	0f b6 c0	 movzx	 eax, al
; File C:\Program Files (x86)\Microsoft Visual Studio\2019\Community\VC\Tools\MSVC\14.29.30133\atlmfc\include\afxwin2.inl

; 630  : 	{ ASSERT(::IsWindow(m_hWnd)); ::SendMessage(m_hWnd, BM_SETCHECK, nCheck, 0); }

  00e66	50		 push	 eax
  00e67	68 f1 00 00 00	 push	 241			; 000000f1H
  00e6c	ff b3 f0 02 00
	00		 push	 DWORD PTR [ebx+752]
  00e72	ff d7		 call	 edi
; File D:\git\src\IBK\IBK_DRFN\ProjSrc\SrcChartEx\ChartAddIn\ChartAnalysisToolAddIn\AnalysisTool\DlgFiboSet.cpp

; 806  : 		m_stAnalysisTool.nLeftText = m_pTextPosition->IsShow();

  00e74	8b 8b b4 0c 00
	00		 mov	 ecx, DWORD PTR [ebx+3252]
  00e7a	e8 00 00 00 00	 call	 ?IsShow@CTextShowPosition@@QBE_NXZ ; CTextShowPosition::IsShow

; 807  : 
; 808  : 		if((CToolEnumData::ElementType)m_nElementType == CToolEnumData::Fibo_Retrace)

  00e7f	83 bb a0 0c 00
	00 0b		 cmp	 DWORD PTR [ebx+3232], 11 ; 0000000bH
  00e86	0f b6 c0	 movzx	 eax, al
  00e89	89 83 28 0c 00
	00		 mov	 DWORD PTR [ebx+3112], eax
  00e8f	75 7c		 jne	 SHORT $LN32@Initialize

; 809  : 		{
; 810  : 			m_nLineExtType = G_LINE_EXT_BOTH;
; 811  : 			m_ctrlLeftExt.ShowWindow(SW_SHOW);

  00e91	6a 05		 push	 5
  00e93	8d 8b d0 04 00
	00		 lea	 ecx, DWORD PTR [ebx+1232]
  00e99	c7 83 90 0c 00
	00 02 00 00 00	 mov	 DWORD PTR [ebx+3216], 2
  00ea3	e8 00 00 00 00	 call	 ?ShowWindow@CWnd@@QAEHH@Z ; CWnd::ShowWindow

; 812  : 			m_ctrlRightExt.ShowWindow(SW_SHOW);

  00ea8	6a 05		 push	 5
  00eaa	8d 8b 50 05 00
	00		 lea	 ecx, DWORD PTR [ebx+1360]
  00eb0	e8 00 00 00 00	 call	 ?ShowWindow@CWnd@@QAEHH@Z ; CWnd::ShowWindow

; 813  : 
; 814  : 			m_ctrlLeftExt.SetCheck(m_pLineExtEnvironment->GetLeftExt());

  00eb5	8b 8b f4 0c 00
	00		 mov	 ecx, DWORD PTR [ebx+3316]
  00ebb	e8 00 00 00 00	 call	 ?GetLeftExt@CLineExtEnvironment@@QBEHXZ ; CLineExtEnvironment::GetLeftExt
; File C:\Program Files (x86)\Microsoft Visual Studio\2019\Community\VC\Tools\MSVC\14.29.30133\atlmfc\include\afxwin2.inl

; 630  : 	{ ASSERT(::IsWindow(m_hWnd)); ::SendMessage(m_hWnd, BM_SETCHECK, nCheck, 0); }

  00ec0	6a 00		 push	 0
  00ec2	50		 push	 eax
  00ec3	68 f1 00 00 00	 push	 241			; 000000f1H
  00ec8	ff b3 f0 04 00
	00		 push	 DWORD PTR [ebx+1264]
  00ece	ff d7		 call	 edi
; File D:\git\src\IBK\IBK_DRFN\ProjSrc\SrcChartEx\ChartAddIn\ChartAnalysisToolAddIn\AnalysisTool\DlgFiboSet.cpp

; 815  : 			m_ctrlRightExt.SetCheck(m_pLineExtEnvironment->GetRightExt());

  00ed0	8b 8b f4 0c 00
	00		 mov	 ecx, DWORD PTR [ebx+3316]
  00ed6	e8 00 00 00 00	 call	 ?GetRightExt@CLineExtEnvironment@@QBEHXZ ; CLineExtEnvironment::GetRightExt
; File C:\Program Files (x86)\Microsoft Visual Studio\2019\Community\VC\Tools\MSVC\14.29.30133\atlmfc\include\afxwin2.inl

; 630  : 	{ ASSERT(::IsWindow(m_hWnd)); ::SendMessage(m_hWnd, BM_SETCHECK, nCheck, 0); }

  00edb	6a 00		 push	 0
  00edd	50		 push	 eax
  00ede	68 f1 00 00 00	 push	 241			; 000000f1H
  00ee3	ff b3 70 05 00
	00		 push	 DWORD PTR [ebx+1392]
  00ee9	ff d7		 call	 edi
; File D:\git\src\IBK\IBK_DRFN\ProjSrc\SrcChartEx\ChartAddIn\ChartAnalysisToolAddIn\AnalysisTool\DlgFiboSet.cpp

; 817  : 			m_stAnalysisTool.nLeftExt = m_pLineExtEnvironment->GetLeftExt();

  00eeb	8b 8b f4 0c 00
	00		 mov	 ecx, DWORD PTR [ebx+3316]
  00ef1	e8 00 00 00 00	 call	 ?GetLeftExt@CLineExtEnvironment@@QBEHXZ ; CLineExtEnvironment::GetLeftExt

; 818  : 			m_stAnalysisTool.nRightExt = m_pLineExtEnvironment->GetRightExt();

  00ef6	8b 8b f4 0c 00
	00		 mov	 ecx, DWORD PTR [ebx+3316]
  00efc	89 83 3c 0c 00
	00		 mov	 DWORD PTR [ebx+3132], eax
  00f02	e8 00 00 00 00	 call	 ?GetRightExt@CLineExtEnvironment@@QBEHXZ ; CLineExtEnvironment::GetRightExt
  00f07	89 83 40 0c 00
	00		 mov	 DWORD PTR [ebx+3136], eax
$LN32@Initialize:

; 820  : 	} 

  00f0d	8d 4d cc	 lea	 ecx, DWORD PTR _strTitle$17[ebp]
  00f10	ff 15 00 00 00
	00		 call	 DWORD PTR __imp_??1?$CStringT@DV?$StrTraitMFC_DLL@DV?$ChTraitsCRT@D@ATL@@@@@ATL@@QAE@XZ
; File D:\git\src\IBK\IBK_DRFN\ProjSrc\SrcChartEx\ChartAddIn\ChartAnalysisToolAddIn\Include_Chart\Dll_Load\IMetaTable.h

; 1038 : 	{

  00f16	c7 45 fc 0c 00
	00 00		 mov	 DWORD PTR __$EHRec$[ebp+8], 12 ; 0000000cH
; File C:\Program Files (x86)\Microsoft Visual Studio\2019\Community\VC\Tools\MSVC\14.29.30133\atlmfc\include\afxwin1.inl

; 27   : 	{ ASSERT(hInstResource != NULL); afxCurrentResourceHandle = hInstResource; }

  00f1d	e8 00 00 00 00	 call	 ?AfxGetModuleState@@YGPAVAFX_MODULE_STATE@@XZ ; AfxGetModuleState
; File D:\git\src\IBK\IBK_DRFN\ProjSrc\SrcChartEx\ChartAddIn\ChartAnalysisToolAddIn\Include_Chart\Dll_Load\IMetaTable.h

; 1040 : 	}

  00f22	c7 45 fc ff ff
	ff ff		 mov	 DWORD PTR __$EHRec$[ebp+8], -1
; File C:\Program Files (x86)\Microsoft Visual Studio\2019\Community\VC\Tools\MSVC\14.29.30133\atlmfc\include\afxwin1.inl

; 27   : 	{ ASSERT(hInstResource != NULL); afxCurrentResourceHandle = hInstResource; }

  00f29	89 70 0c	 mov	 DWORD PTR [eax+12], esi
; File D:\git\src\IBK\IBK_DRFN\ProjSrc\SrcChartEx\ChartAddIn\ChartAnalysisToolAddIn\AnalysisTool\DlgFiboSet.cpp

; 820  : 	} 

  00f2c	e9 d7 04 00 00	 jmp	 $LN42@Initialize
$LN27@Initialize:

; 755  : 		m_ctrlLeftText.SetCheck(m_pTextHPosition->GetLeft());

  00f31	8b 8b b8 0c 00
	00		 mov	 ecx, DWORD PTR [ebx+3256]
  00f37	c7 83 8c 0c 00
	00 01 00 00 00	 mov	 DWORD PTR [ebx+3212], 1
  00f41	c7 83 90 0c 00
	00 02 00 00 00	 mov	 DWORD PTR [ebx+3216], 2
  00f4b	e8 00 00 00 00	 call	 ?GetLeft@CTextHorzPosition@@QBE_NXZ ; CTextHorzPosition::GetLeft
; File C:\Program Files (x86)\Microsoft Visual Studio\2019\Community\VC\Tools\MSVC\14.29.30133\atlmfc\include\afxwin2.inl

; 630  : 	{ ASSERT(::IsWindow(m_hWnd)); ::SendMessage(m_hWnd, BM_SETCHECK, nCheck, 0); }

  00f50	8b 35 00 00 00
	00		 mov	 esi, DWORD PTR __imp__SendMessageA@16
  00f56	6a 00		 push	 0
; File D:\git\src\IBK\IBK_DRFN\ProjSrc\SrcChartEx\ChartAddIn\ChartAnalysisToolAddIn\AnalysisTool\DlgFiboSet.cpp

; 755  : 		m_ctrlLeftText.SetCheck(m_pTextHPosition->GetLeft());

  00f58	0f b6 c0	 movzx	 eax, al
; File C:\Program Files (x86)\Microsoft Visual Studio\2019\Community\VC\Tools\MSVC\14.29.30133\atlmfc\include\afxwin2.inl

; 630  : 	{ ASSERT(::IsWindow(m_hWnd)); ::SendMessage(m_hWnd, BM_SETCHECK, nCheck, 0); }

  00f5b	50		 push	 eax
  00f5c	68 f1 00 00 00	 push	 241			; 000000f1H
  00f61	ff b3 f0 02 00
	00		 push	 DWORD PTR [ebx+752]
  00f67	ff d6		 call	 esi
; File D:\git\src\IBK\IBK_DRFN\ProjSrc\SrcChartEx\ChartAddIn\ChartAnalysisToolAddIn\AnalysisTool\DlgFiboSet.cpp

; 756  : 		m_ctrlRightText.SetCheck(m_pTextHPosition->GetRight());

  00f69	8b 8b b8 0c 00
	00		 mov	 ecx, DWORD PTR [ebx+3256]
  00f6f	e8 00 00 00 00	 call	 ?GetRight@CTextHorzPosition@@QBE_NXZ ; CTextHorzPosition::GetRight
; File C:\Program Files (x86)\Microsoft Visual Studio\2019\Community\VC\Tools\MSVC\14.29.30133\atlmfc\include\afxwin2.inl

; 630  : 	{ ASSERT(::IsWindow(m_hWnd)); ::SendMessage(m_hWnd, BM_SETCHECK, nCheck, 0); }

  00f74	6a 00		 push	 0
; File D:\git\src\IBK\IBK_DRFN\ProjSrc\SrcChartEx\ChartAddIn\ChartAnalysisToolAddIn\AnalysisTool\DlgFiboSet.cpp

; 756  : 		m_ctrlRightText.SetCheck(m_pTextHPosition->GetRight());

  00f76	0f b6 c0	 movzx	 eax, al
; File C:\Program Files (x86)\Microsoft Visual Studio\2019\Community\VC\Tools\MSVC\14.29.30133\atlmfc\include\afxwin2.inl

; 630  : 	{ ASSERT(::IsWindow(m_hWnd)); ::SendMessage(m_hWnd, BM_SETCHECK, nCheck, 0); }

  00f79	50		 push	 eax
  00f7a	68 f1 00 00 00	 push	 241			; 000000f1H
  00f7f	ff b3 70 03 00
	00		 push	 DWORD PTR [ebx+880]
  00f85	ff d6		 call	 esi
; File D:\git\src\IBK\IBK_DRFN\ProjSrc\SrcChartEx\ChartAddIn\ChartAnalysisToolAddIn\AnalysisTool\DlgFiboSet.cpp

; 758  : 		m_stAnalysisTool.nLeftText = m_pTextHPosition->GetLeft();

  00f87	8b 8b b8 0c 00
	00		 mov	 ecx, DWORD PTR [ebx+3256]
  00f8d	e8 00 00 00 00	 call	 ?GetLeft@CTextHorzPosition@@QBE_NXZ ; CTextHorzPosition::GetLeft

; 759  : 		m_stAnalysisTool.nRightText = m_pTextHPosition->GetRight();

  00f92	8b 8b b8 0c 00
	00		 mov	 ecx, DWORD PTR [ebx+3256]
  00f98	0f b6 c0	 movzx	 eax, al
  00f9b	89 83 28 0c 00
	00		 mov	 DWORD PTR [ebx+3112], eax
  00fa1	e8 00 00 00 00	 call	 ?GetRight@CTextHorzPosition@@QBE_NXZ ; CTextHorzPosition::GetRight
  00fa6	0f b6 c0	 movzx	 eax, al

; 760  : 		
; 761  : 		m_ctrlLeftExt.ShowWindow(SW_SHOW);

  00fa9	8d 8b d0 04 00
	00		 lea	 ecx, DWORD PTR [ebx+1232]
  00faf	6a 05		 push	 5
  00fb1	89 83 2c 0c 00
	00		 mov	 DWORD PTR [ebx+3116], eax
  00fb7	e8 00 00 00 00	 call	 ?ShowWindow@CWnd@@QAEHH@Z ; CWnd::ShowWindow

; 762  : 		m_ctrlRightExt.ShowWindow(SW_SHOW);

  00fbc	6a 05		 push	 5
  00fbe	8d 8b 50 05 00
	00		 lea	 ecx, DWORD PTR [ebx+1360]
  00fc4	e8 00 00 00 00	 call	 ?ShowWindow@CWnd@@QAEHH@Z ; CWnd::ShowWindow

; 763  : 
; 764  : 		m_ctrlLeftExt.SetCheck(m_pLineExtEnvironment->GetLeftExt());

  00fc9	8b 8b f4 0c 00
	00		 mov	 ecx, DWORD PTR [ebx+3316]
  00fcf	e8 00 00 00 00	 call	 ?GetLeftExt@CLineExtEnvironment@@QBEHXZ ; CLineExtEnvironment::GetLeftExt
; File C:\Program Files (x86)\Microsoft Visual Studio\2019\Community\VC\Tools\MSVC\14.29.30133\atlmfc\include\afxwin2.inl

; 630  : 	{ ASSERT(::IsWindow(m_hWnd)); ::SendMessage(m_hWnd, BM_SETCHECK, nCheck, 0); }

  00fd4	6a 00		 push	 0
  00fd6	50		 push	 eax
  00fd7	68 f1 00 00 00	 push	 241			; 000000f1H
  00fdc	ff b3 f0 04 00
	00		 push	 DWORD PTR [ebx+1264]
  00fe2	ff d6		 call	 esi
; File D:\git\src\IBK\IBK_DRFN\ProjSrc\SrcChartEx\ChartAddIn\ChartAnalysisToolAddIn\AnalysisTool\DlgFiboSet.cpp

; 765  : 		m_ctrlRightExt.SetCheck(m_pLineExtEnvironment->GetRightExt());

  00fe4	8b 8b f4 0c 00
	00		 mov	 ecx, DWORD PTR [ebx+3316]
  00fea	e8 00 00 00 00	 call	 ?GetRightExt@CLineExtEnvironment@@QBEHXZ ; CLineExtEnvironment::GetRightExt
; File C:\Program Files (x86)\Microsoft Visual Studio\2019\Community\VC\Tools\MSVC\14.29.30133\atlmfc\include\afxwin2.inl

; 630  : 	{ ASSERT(::IsWindow(m_hWnd)); ::SendMessage(m_hWnd, BM_SETCHECK, nCheck, 0); }

  00fef	6a 00		 push	 0
  00ff1	50		 push	 eax
  00ff2	68 f1 00 00 00	 push	 241			; 000000f1H
  00ff7	ff b3 70 05 00
	00		 push	 DWORD PTR [ebx+1392]
  00ffd	ff d6		 call	 esi
; File D:\git\src\IBK\IBK_DRFN\ProjSrc\SrcChartEx\ChartAddIn\ChartAnalysisToolAddIn\AnalysisTool\DlgFiboSet.cpp

; 767  : 		m_stAnalysisTool.nLeftExt = m_pLineExtEnvironment->GetLeftExt();

  00fff	8b 8b f4 0c 00
	00		 mov	 ecx, DWORD PTR [ebx+3316]
  01005	e8 00 00 00 00	 call	 ?GetLeftExt@CLineExtEnvironment@@QBEHXZ ; CLineExtEnvironment::GetLeftExt

; 768  : 		m_stAnalysisTool.nRightExt = m_pLineExtEnvironment->GetRightExt();

  0100a	8b 8b f4 0c 00
	00		 mov	 ecx, DWORD PTR [ebx+3316]
  01010	89 83 3c 0c 00
	00		 mov	 DWORD PTR [ebx+3132], eax
  01016	e8 00 00 00 00	 call	 ?GetRightExt@CLineExtEnvironment@@QBEHXZ ; CLineExtEnvironment::GetRightExt

; 769  : 
; 770  : 		m_ctrlEquiDiv.ShowWindow(SW_SHOW);

  0101b	6a 05		 push	 5
  0101d	8d 8b d0 05 00
	00		 lea	 ecx, DWORD PTR [ebx+1488]
  01023	89 83 40 0c 00
	00		 mov	 DWORD PTR [ebx+3136], eax
  01029	e8 00 00 00 00	 call	 ?ShowWindow@CWnd@@QAEHH@Z ; CWnd::ShowWindow
; File C:\Program Files (x86)\Microsoft Visual Studio\2019\Community\VC\Tools\MSVC\14.29.30133\atlmfc\include\afxwin2.inl

; 630  : 	{ ASSERT(::IsWindow(m_hWnd)); ::SendMessage(m_hWnd, BM_SETCHECK, nCheck, 0); }

  0102e	6a 00		 push	 0
  01030	ff b3 04 0d 00
	00		 push	 DWORD PTR [ebx+3332]
  01036	68 f1 00 00 00	 push	 241			; 000000f1H
  0103b	ff b3 f0 05 00
	00		 push	 DWORD PTR [ebx+1520]
  01041	ff d6		 call	 esi
; File D:\git\src\IBK\IBK_DRFN\ProjSrc\SrcChartEx\ChartAddIn\ChartAnalysisToolAddIn\AnalysisTool\DlgFiboSet.cpp

; 772  : 		m_nEquiDivLine = m_baseEquiDivEnvironment;		

  01043	8b 83 04 0d 00
	00		 mov	 eax, DWORD PTR [ebx+3332]

; 773  : 		m_stAnalysisTool.nEquiDiv = m_nEquiDivLine;
; 774  : 
; 775  : 		// (2008/8/15 - Seung-Won, Bae) Add option for using price range.
; 776  : 		m_chkPriceRangeDiv.ShowWindow( SW_SHOW);

  01049	8d 8b a8 00 00
	00		 lea	 ecx, DWORD PTR [ebx+168]
  0104f	6a 05		 push	 5
  01051	89 83 94 0c 00
	00		 mov	 DWORD PTR [ebx+3220], eax
  01057	89 83 44 0c 00
	00		 mov	 DWORD PTR [ebx+3140], eax
  0105d	e8 00 00 00 00	 call	 ?ShowWindow@CWnd@@QAEHH@Z ; CWnd::ShowWindow
; File C:\Program Files (x86)\Microsoft Visual Studio\2019\Community\VC\Tools\MSVC\14.29.30133\atlmfc\include\afxwin2.inl

; 630  : 	{ ASSERT(::IsWindow(m_hWnd)); ::SendMessage(m_hWnd, BM_SETCHECK, nCheck, 0); }

  01062	6a 00		 push	 0
  01064	ff b3 0c 0d 00
	00		 push	 DWORD PTR [ebx+3340]
  0106a	68 f1 00 00 00	 push	 241			; 000000f1H
  0106f	ff b3 c8 00 00
	00		 push	 DWORD PTR [ebx+200]
  01075	ff d6		 call	 esi
; File D:\git\src\IBK\IBK_DRFN\ProjSrc\SrcChartEx\ChartAddIn\ChartAnalysisToolAddIn\AnalysisTool\DlgFiboSet.cpp

; 778  : 		m_nPriceRangeDivLine = m_basePriceRangeDivEnvironment;		

  01077	8b 83 0c 0d 00
	00		 mov	 eax, DWORD PTR [ebx+3340]
  0107d	89 83 98 0c 00
	00		 mov	 DWORD PTR [ebx+3224], eax

; 779  : 		m_stAnalysisTool.nPriceRangeDiv = m_nPriceRangeDivLine;

  01083	89 83 48 0c 00
	00		 mov	 DWORD PTR [ebx+3144], eax

; 780  : 		if( G_PRICE_RANGE_DIV_CHECK == m_nPriceRangeDivLine)

  01089	83 f8 01	 cmp	 eax, 1
  0108c	0f 85 76 03 00
	00		 jne	 $LN42@Initialize

; 781  : 		{
; 782  : 			m_ctrlEditValue1.EnableWindow( FALSE);

  01092	6a 00		 push	 0
  01094	8d 8b d0 08 00
	00		 lea	 ecx, DWORD PTR [ebx+2256]
  0109a	e8 00 00 00 00	 call	 ?EnableWindow@CWnd@@QAEHH@Z ; CWnd::EnableWindow

; 783  : 			m_ctrlEditValue2.EnableWindow( FALSE);

  0109f	6a 00		 push	 0
  010a1	8d 8b 50 09 00
	00		 lea	 ecx, DWORD PTR [ebx+2384]
  010a7	e8 00 00 00 00	 call	 ?EnableWindow@CWnd@@QAEHH@Z ; CWnd::EnableWindow

; 784  : 		}
; 785  : 	}

  010ac	e9 57 03 00 00	 jmp	 $LN42@Initialize
$LN23@Initialize:

; 725  : 		m_ctrlLeftText.SetCheck(m_pTextHPosition->GetLeft());

  010b1	8b 8b b8 0c 00
	00		 mov	 ecx, DWORD PTR [ebx+3256]
  010b7	c7 83 8c 0c 00
	00 01 00 00 00	 mov	 DWORD PTR [ebx+3212], 1
  010c1	c7 83 90 0c 00
	00 02 00 00 00	 mov	 DWORD PTR [ebx+3216], 2
  010cb	e8 00 00 00 00	 call	 ?GetLeft@CTextHorzPosition@@QBE_NXZ ; CTextHorzPosition::GetLeft
; File C:\Program Files (x86)\Microsoft Visual Studio\2019\Community\VC\Tools\MSVC\14.29.30133\atlmfc\include\afxwin2.inl

; 630  : 	{ ASSERT(::IsWindow(m_hWnd)); ::SendMessage(m_hWnd, BM_SETCHECK, nCheck, 0); }

  010d0	8b 35 00 00 00
	00		 mov	 esi, DWORD PTR __imp__SendMessageA@16
  010d6	6a 00		 push	 0
; File D:\git\src\IBK\IBK_DRFN\ProjSrc\SrcChartEx\ChartAddIn\ChartAnalysisToolAddIn\AnalysisTool\DlgFiboSet.cpp

; 725  : 		m_ctrlLeftText.SetCheck(m_pTextHPosition->GetLeft());

  010d8	0f b6 c0	 movzx	 eax, al
; File C:\Program Files (x86)\Microsoft Visual Studio\2019\Community\VC\Tools\MSVC\14.29.30133\atlmfc\include\afxwin2.inl

; 630  : 	{ ASSERT(::IsWindow(m_hWnd)); ::SendMessage(m_hWnd, BM_SETCHECK, nCheck, 0); }

  010db	50		 push	 eax
  010dc	68 f1 00 00 00	 push	 241			; 000000f1H
  010e1	ff b3 f0 02 00
	00		 push	 DWORD PTR [ebx+752]
  010e7	ff d6		 call	 esi
; File D:\git\src\IBK\IBK_DRFN\ProjSrc\SrcChartEx\ChartAddIn\ChartAnalysisToolAddIn\AnalysisTool\DlgFiboSet.cpp

; 726  : 		m_ctrlRightText.SetCheck(m_pTextHPosition->GetRight());

  010e9	8b 8b b8 0c 00
	00		 mov	 ecx, DWORD PTR [ebx+3256]
  010ef	e8 00 00 00 00	 call	 ?GetRight@CTextHorzPosition@@QBE_NXZ ; CTextHorzPosition::GetRight
; File C:\Program Files (x86)\Microsoft Visual Studio\2019\Community\VC\Tools\MSVC\14.29.30133\atlmfc\include\afxwin2.inl

; 630  : 	{ ASSERT(::IsWindow(m_hWnd)); ::SendMessage(m_hWnd, BM_SETCHECK, nCheck, 0); }

  010f4	6a 00		 push	 0
; File D:\git\src\IBK\IBK_DRFN\ProjSrc\SrcChartEx\ChartAddIn\ChartAnalysisToolAddIn\AnalysisTool\DlgFiboSet.cpp

; 726  : 		m_ctrlRightText.SetCheck(m_pTextHPosition->GetRight());

  010f6	0f b6 c0	 movzx	 eax, al
; File C:\Program Files (x86)\Microsoft Visual Studio\2019\Community\VC\Tools\MSVC\14.29.30133\atlmfc\include\afxwin2.inl

; 630  : 	{ ASSERT(::IsWindow(m_hWnd)); ::SendMessage(m_hWnd, BM_SETCHECK, nCheck, 0); }

  010f9	50		 push	 eax
  010fa	68 f1 00 00 00	 push	 241			; 000000f1H
  010ff	ff b3 70 03 00
	00		 push	 DWORD PTR [ebx+880]
  01105	ff d6		 call	 esi
; File D:\git\src\IBK\IBK_DRFN\ProjSrc\SrcChartEx\ChartAddIn\ChartAnalysisToolAddIn\AnalysisTool\DlgFiboSet.cpp

; 728  : 		m_stAnalysisTool.nLeftText = m_pTextHPosition->GetLeft();

  01107	8b 8b b8 0c 00
	00		 mov	 ecx, DWORD PTR [ebx+3256]
  0110d	e8 00 00 00 00	 call	 ?GetLeft@CTextHorzPosition@@QBE_NXZ ; CTextHorzPosition::GetLeft

; 729  : 		m_stAnalysisTool.nRightText = m_pTextHPosition->GetRight();

  01112	8b 8b b8 0c 00
	00		 mov	 ecx, DWORD PTR [ebx+3256]
  01118	0f b6 c0	 movzx	 eax, al
  0111b	89 83 28 0c 00
	00		 mov	 DWORD PTR [ebx+3112], eax
  01121	e8 00 00 00 00	 call	 ?GetRight@CTextHorzPosition@@QBE_NXZ ; CTextHorzPosition::GetRight
  01126	0f b6 c0	 movzx	 eax, al

; 730  : 		
; 731  : 		m_ctrlLeftExt.ShowWindow(SW_SHOW);

  01129	8d 8b d0 04 00
	00		 lea	 ecx, DWORD PTR [ebx+1232]
  0112f	6a 05		 push	 5
  01131	89 83 2c 0c 00
	00		 mov	 DWORD PTR [ebx+3116], eax
  01137	e8 00 00 00 00	 call	 ?ShowWindow@CWnd@@QAEHH@Z ; CWnd::ShowWindow

; 732  : 		m_ctrlRightExt.ShowWindow(SW_SHOW);

  0113c	6a 05		 push	 5
  0113e	8d 8b 50 05 00
	00		 lea	 ecx, DWORD PTR [ebx+1360]
  01144	e8 00 00 00 00	 call	 ?ShowWindow@CWnd@@QAEHH@Z ; CWnd::ShowWindow

; 733  : 
; 734  : 		m_ctrlLeftExt.SetCheck(m_pLineExtEnvironment->GetLeftExt());

  01149	8b 8b f4 0c 00
	00		 mov	 ecx, DWORD PTR [ebx+3316]
  0114f	e8 00 00 00 00	 call	 ?GetLeftExt@CLineExtEnvironment@@QBEHXZ ; CLineExtEnvironment::GetLeftExt
; File C:\Program Files (x86)\Microsoft Visual Studio\2019\Community\VC\Tools\MSVC\14.29.30133\atlmfc\include\afxwin2.inl

; 630  : 	{ ASSERT(::IsWindow(m_hWnd)); ::SendMessage(m_hWnd, BM_SETCHECK, nCheck, 0); }

  01154	6a 00		 push	 0
  01156	50		 push	 eax
  01157	68 f1 00 00 00	 push	 241			; 000000f1H
  0115c	ff b3 f0 04 00
	00		 push	 DWORD PTR [ebx+1264]
  01162	ff d6		 call	 esi
; File D:\git\src\IBK\IBK_DRFN\ProjSrc\SrcChartEx\ChartAddIn\ChartAnalysisToolAddIn\AnalysisTool\DlgFiboSet.cpp

; 735  : 		m_ctrlRightExt.SetCheck(m_pLineExtEnvironment->GetRightExt());

  01164	8b 8b f4 0c 00
	00		 mov	 ecx, DWORD PTR [ebx+3316]
  0116a	e8 00 00 00 00	 call	 ?GetRightExt@CLineExtEnvironment@@QBEHXZ ; CLineExtEnvironment::GetRightExt
; File C:\Program Files (x86)\Microsoft Visual Studio\2019\Community\VC\Tools\MSVC\14.29.30133\atlmfc\include\afxwin2.inl

; 630  : 	{ ASSERT(::IsWindow(m_hWnd)); ::SendMessage(m_hWnd, BM_SETCHECK, nCheck, 0); }

  0116f	6a 00		 push	 0
  01171	50		 push	 eax
  01172	68 f1 00 00 00	 push	 241			; 000000f1H
  01177	ff b3 70 05 00
	00		 push	 DWORD PTR [ebx+1392]
  0117d	ff d6		 call	 esi
; File D:\git\src\IBK\IBK_DRFN\ProjSrc\SrcChartEx\ChartAddIn\ChartAnalysisToolAddIn\AnalysisTool\DlgFiboSet.cpp

; 737  : 		m_stAnalysisTool.nLeftExt = m_pLineExtEnvironment->GetLeftExt();

  0117f	8b 8b f4 0c 00
	00		 mov	 ecx, DWORD PTR [ebx+3316]
  01185	e8 00 00 00 00	 call	 ?GetLeftExt@CLineExtEnvironment@@QBEHXZ ; CLineExtEnvironment::GetLeftExt

; 738  : 		m_stAnalysisTool.nRightExt = m_pLineExtEnvironment->GetRightExt();

  0118a	8b 8b f4 0c 00
	00		 mov	 ecx, DWORD PTR [ebx+3316]
  01190	89 83 3c 0c 00
	00		 mov	 DWORD PTR [ebx+3132], eax
  01196	e8 00 00 00 00	 call	 ?GetRightExt@CLineExtEnvironment@@QBEHXZ ; CLineExtEnvironment::GetRightExt

; 739  : 
; 740  : 		if((CToolEnumData::ElementType)m_nElementType != CToolEnumData::Line)

  0119b	83 bb a0 0c 00
	00 05		 cmp	 DWORD PTR [ebx+3232], 5
  011a2	89 83 40 0c 00
	00		 mov	 DWORD PTR [ebx+3136], eax
  011a8	0f 84 5a 02 00
	00		 je	 $LN42@Initialize

; 741  : 		{
; 742  : 			m_ctrlEquiDiv.ShowWindow(SW_SHOW);

  011ae	6a 05		 push	 5
  011b0	8d 8b d0 05 00
	00		 lea	 ecx, DWORD PTR [ebx+1488]
  011b6	e8 00 00 00 00	 call	 ?ShowWindow@CWnd@@QAEHH@Z ; CWnd::ShowWindow
; File C:\Program Files (x86)\Microsoft Visual Studio\2019\Community\VC\Tools\MSVC\14.29.30133\atlmfc\include\afxwin2.inl

; 630  : 	{ ASSERT(::IsWindow(m_hWnd)); ::SendMessage(m_hWnd, BM_SETCHECK, nCheck, 0); }

  011bb	6a 00		 push	 0
  011bd	ff b3 04 0d 00
	00		 push	 DWORD PTR [ebx+3332]
  011c3	68 f1 00 00 00	 push	 241			; 000000f1H
  011c8	ff b3 f0 05 00
	00		 push	 DWORD PTR [ebx+1520]
  011ce	ff d6		 call	 esi
; File D:\git\src\IBK\IBK_DRFN\ProjSrc\SrcChartEx\ChartAddIn\ChartAnalysisToolAddIn\AnalysisTool\DlgFiboSet.cpp

; 744  : 			m_nEquiDivLine = m_baseEquiDivEnvironment;		

  011d0	8b 83 04 0d 00
	00		 mov	 eax, DWORD PTR [ebx+3332]
  011d6	89 83 94 0c 00
	00		 mov	 DWORD PTR [ebx+3220], eax

; 745  : 
; 746  : 			m_stAnalysisTool.nEquiDiv = m_nEquiDivLine;

  011dc	89 83 44 0c 00
	00		 mov	 DWORD PTR [ebx+3140], eax

; 747  : 		}
; 748  : 	}

  011e2	e9 21 02 00 00	 jmp	 $LN42@Initialize
$LN18@Initialize:

; 671  : 			(CToolEnumData::ElementType)m_nElementType == CToolEnumData::Fibo_Time)	//
; 672  : 	{
; 673  : 		if((CToolEnumData::ElementType)m_nElementType == CToolEnumData::Vert_Line)

  011e7	83 f8 03	 cmp	 eax, 3
  011ea	0f 85 ff 00 00
	00		 jne	 $LN19@Initialize
$LN380@Initialize:

; 674  : 		{
; 675  : 			m_nTextPosType = G_TEXT_POS_VERT;

  011f0	c7 83 8c 0c 00
	00 02 00 00 00	 mov	 DWORD PTR [ebx+3212], 2

; 676  : 
; 677  : 			ML_SET_LANGUAGE_RES();

  011fa	e8 00 00 00 00	 call	 ?AfxGetStaticModuleState@@YGPAVAFX_MODULE_STATE@@XZ ; AfxGetStaticModuleState
  011ff	b9 00 00 00 00	 mov	 ecx, OFFSET ?g_iMetaTable@@3VIMetaTable@@A ; g_iMetaTable
  01204	8b 40 08	 mov	 eax, DWORD PTR [eax+8]
  01207	50		 push	 eax
  01208	ff b3 10 0d 00
	00		 push	 DWORD PTR [ebx+3344]
  0120e	e8 00 00 00 00	 call	 ?LoadResourceDLL@IMetaTable@@QAEPAUHINSTANCE__@@PAUHWND__@@PAU2@@Z ; IMetaTable::LoadResourceDLL
  01213	8b f8		 mov	 edi, eax
; File C:\Program Files (x86)\Microsoft Visual Studio\2019\Community\VC\Tools\MSVC\14.29.30133\atlmfc\include\afxwin1.inl

; 25   : 		return afxCurrentResourceHandle; }

  01215	e8 00 00 00 00	 call	 ?AfxGetModuleState@@YGPAVAFX_MODULE_STATE@@XZ ; AfxGetModuleState
; File D:\git\src\IBK\IBK_DRFN\ProjSrc\SrcChartEx\ChartAddIn\ChartAnalysisToolAddIn\Include_Chart\Dll_Load\IMetaTable.h

; 1034 : 		m_hInstance = AfxGetResourceHandle();

  0121a	8b 70 0c	 mov	 esi, DWORD PTR [eax+12]
  0121d	89 75 c8	 mov	 DWORD PTR ___mlrs__$13[ebp], esi
; File C:\Program Files (x86)\Microsoft Visual Studio\2019\Community\VC\Tools\MSVC\14.29.30133\atlmfc\include\afxwin1.inl

; 27   : 	{ ASSERT(hInstResource != NULL); afxCurrentResourceHandle = hInstResource; }

  01220	e8 00 00 00 00	 call	 ?AfxGetModuleState@@YGPAVAFX_MODULE_STATE@@XZ ; AfxGetModuleState
  01225	89 78 0c	 mov	 DWORD PTR [eax+12], edi
; File D:\git\src\IBK\IBK_DRFN\ProjSrc\SrcChartEx\ChartAddIn\ChartAnalysisToolAddIn\AnalysisTool\DlgFiboSet.cpp

; 679  : 			CString strTitle;

  01228	8d 4d cc	 lea	 ecx, DWORD PTR _strTitle$19[ebp]
  0122b	c7 45 fc 04 00
	00 00		 mov	 DWORD PTR __$EHRec$[ebp+8], 4
  01232	ff 15 00 00 00
	00		 call	 DWORD PTR __imp_??0?$CStringT@DV?$StrTraitMFC_DLL@DV?$ChTraitsCRT@D@ATL@@@@@ATL@@QAE@XZ

; 680  : 			strTitle.LoadString(IDS_UPPEREND);

  01238	6a 02		 push	 2
  0123a	8d 4d cc	 lea	 ecx, DWORD PTR _strTitle$19[ebp]
  0123d	c6 45 fc 05	 mov	 BYTE PTR __$EHRec$[ebp+8], 5
  01241	ff 15 00 00 00
	00		 call	 DWORD PTR __imp_?LoadStringA@?$CStringT@DV?$StrTraitMFC_DLL@DV?$ChTraitsCRT@D@ATL@@@@@ATL@@QAEHI@Z

; 681  : 			SetDlgItemText(IDC_CHECK_TEXT_LEFT,strTitle);

  01247	ff 75 cc	 push	 DWORD PTR _strTitle$19[ebp]
  0124a	8b cb		 mov	 ecx, ebx
  0124c	68 a0 0f 00 00	 push	 4000			; 00000fa0H
  01251	e8 00 00 00 00	 call	 ?SetDlgItemTextA@CWnd@@QAEXHPBD@Z ; CWnd::SetDlgItemTextA

; 682  : 			strTitle.LoadString(IDS_LOWEREND);

  01256	6a 03		 push	 3
  01258	8d 4d cc	 lea	 ecx, DWORD PTR _strTitle$19[ebp]
  0125b	ff 15 00 00 00
	00		 call	 DWORD PTR __imp_?LoadStringA@?$CStringT@DV?$StrTraitMFC_DLL@DV?$ChTraitsCRT@D@ATL@@@@@ATL@@QAEHI@Z

; 683  : 			SetDlgItemText(IDC_CHECK_TEXT_RIGHT,strTitle);

  01261	ff 75 cc	 push	 DWORD PTR _strTitle$19[ebp]
  01264	8b cb		 mov	 ecx, ebx
  01266	68 a1 0f 00 00	 push	 4001			; 00000fa1H
  0126b	e8 00 00 00 00	 call	 ?SetDlgItemTextA@CWnd@@QAEXHPBD@Z ; CWnd::SetDlgItemTextA

; 684  : 			m_ctrlLeftText.SetCheck(m_pTextVPosition->GetTop());

  01270	8b 8b bc 0c 00
	00		 mov	 ecx, DWORD PTR [ebx+3260]
  01276	e8 00 00 00 00	 call	 ?GetTop@CTextVertPosition@@QBE_NXZ ; CTextVertPosition::GetTop
; File C:\Program Files (x86)\Microsoft Visual Studio\2019\Community\VC\Tools\MSVC\14.29.30133\atlmfc\include\afxwin2.inl

; 630  : 	{ ASSERT(::IsWindow(m_hWnd)); ::SendMessage(m_hWnd, BM_SETCHECK, nCheck, 0); }

  0127b	8b 3d 00 00 00
	00		 mov	 edi, DWORD PTR __imp__SendMessageA@16
  01281	6a 00		 push	 0
; File D:\git\src\IBK\IBK_DRFN\ProjSrc\SrcChartEx\ChartAddIn\ChartAnalysisToolAddIn\AnalysisTool\DlgFiboSet.cpp

; 684  : 			m_ctrlLeftText.SetCheck(m_pTextVPosition->GetTop());

  01283	0f b6 c0	 movzx	 eax, al
; File C:\Program Files (x86)\Microsoft Visual Studio\2019\Community\VC\Tools\MSVC\14.29.30133\atlmfc\include\afxwin2.inl

; 630  : 	{ ASSERT(::IsWindow(m_hWnd)); ::SendMessage(m_hWnd, BM_SETCHECK, nCheck, 0); }

  01286	50		 push	 eax
  01287	68 f1 00 00 00	 push	 241			; 000000f1H
  0128c	ff b3 f0 02 00
	00		 push	 DWORD PTR [ebx+752]
  01292	ff d7		 call	 edi
; File D:\git\src\IBK\IBK_DRFN\ProjSrc\SrcChartEx\ChartAddIn\ChartAnalysisToolAddIn\AnalysisTool\DlgFiboSet.cpp

; 685  : 			m_ctrlRightText.SetCheck(m_pTextVPosition->GetBottom());

  01294	8b 8b bc 0c 00
	00		 mov	 ecx, DWORD PTR [ebx+3260]
  0129a	e8 00 00 00 00	 call	 ?GetBottom@CTextVertPosition@@QBE_NXZ ; CTextVertPosition::GetBottom
; File C:\Program Files (x86)\Microsoft Visual Studio\2019\Community\VC\Tools\MSVC\14.29.30133\atlmfc\include\afxwin2.inl

; 630  : 	{ ASSERT(::IsWindow(m_hWnd)); ::SendMessage(m_hWnd, BM_SETCHECK, nCheck, 0); }

  0129f	6a 00		 push	 0
; File D:\git\src\IBK\IBK_DRFN\ProjSrc\SrcChartEx\ChartAddIn\ChartAnalysisToolAddIn\AnalysisTool\DlgFiboSet.cpp

; 685  : 			m_ctrlRightText.SetCheck(m_pTextVPosition->GetBottom());

  012a1	0f b6 c0	 movzx	 eax, al
; File C:\Program Files (x86)\Microsoft Visual Studio\2019\Community\VC\Tools\MSVC\14.29.30133\atlmfc\include\afxwin2.inl

; 630  : 	{ ASSERT(::IsWindow(m_hWnd)); ::SendMessage(m_hWnd, BM_SETCHECK, nCheck, 0); }

  012a4	50		 push	 eax
  012a5	68 f1 00 00 00	 push	 241			; 000000f1H
  012aa	ff b3 70 03 00
	00		 push	 DWORD PTR [ebx+880]
  012b0	ff d7		 call	 edi
; File D:\git\src\IBK\IBK_DRFN\ProjSrc\SrcChartEx\ChartAddIn\ChartAnalysisToolAddIn\AnalysisTool\DlgFiboSet.cpp

; 687  : 			m_stAnalysisTool.nTopText = m_pTextVPosition->GetTop();

  012b2	8b 8b bc 0c 00
	00		 mov	 ecx, DWORD PTR [ebx+3260]
  012b8	e8 00 00 00 00	 call	 ?GetTop@CTextVertPosition@@QBE_NXZ ; CTextVertPosition::GetTop

; 688  : 			m_stAnalysisTool.nBottomText = m_pTextVPosition->GetBottom();

  012bd	8b 8b bc 0c 00
	00		 mov	 ecx, DWORD PTR [ebx+3260]
  012c3	0f b6 c0	 movzx	 eax, al
  012c6	89 83 34 0c 00
	00		 mov	 DWORD PTR [ebx+3124], eax
  012cc	e8 00 00 00 00	 call	 ?GetBottom@CTextVertPosition@@QBE_NXZ ; CTextVertPosition::GetBottom
  012d1	0f b6 c0	 movzx	 eax, al

; 689  : 		}

  012d4	8d 4d cc	 lea	 ecx, DWORD PTR _strTitle$19[ebp]
  012d7	89 83 38 0c 00
	00		 mov	 DWORD PTR [ebx+3128], eax
  012dd	ff 15 00 00 00
	00		 call	 DWORD PTR __imp_??1?$CStringT@DV?$StrTraitMFC_DLL@DV?$ChTraitsCRT@D@ATL@@@@@ATL@@QAE@XZ
; File D:\git\src\IBK\IBK_DRFN\ProjSrc\SrcChartEx\ChartAddIn\ChartAnalysisToolAddIn\Include_Chart\Dll_Load\IMetaTable.h

; 1038 : 	{

  012e3	c7 45 fc 06 00
	00 00		 mov	 DWORD PTR __$EHRec$[ebp+8], 6
; File D:\git\src\IBK\IBK_DRFN\ProjSrc\SrcChartEx\ChartAddIn\ChartAnalysisToolAddIn\AnalysisTool\DlgFiboSet.cpp

; 689  : 		}

  012ea	e9 b9 00 00 00	 jmp	 $LN382@Initialize
$LN19@Initialize:

; 690  : 		else
; 691  : 		{
; 692  : 			// 2008.08.20   =>	 Text  <<
; 693  : 			/*
; 694  : 			GetDlgItem(IDC_TEXT_STATIC)->ShowWindow(SW_HIDE);
; 695  : 			m_ctrlLeftText.ShowWindow(SW_HIDE);
; 696  : 			m_ctrlRightText.ShowWindow(SW_HIDE);
; 697  : 			*/
; 698  : 			m_nTextPosType = G_TEXT_POS_ONE;

  012ef	c7 83 8c 0c 00
	00 00 00 00 00	 mov	 DWORD PTR [ebx+3212], 0

; 699  : 			
; 700  : 			ML_SET_LANGUAGE_RES();

  012f9	e8 00 00 00 00	 call	 ?AfxGetStaticModuleState@@YGPAVAFX_MODULE_STATE@@XZ ; AfxGetStaticModuleState
  012fe	b9 00 00 00 00	 mov	 ecx, OFFSET ?g_iMetaTable@@3VIMetaTable@@A ; g_iMetaTable
  01303	8b 40 08	 mov	 eax, DWORD PTR [eax+8]
  01306	50		 push	 eax
  01307	ff b3 10 0d 00
	00		 push	 DWORD PTR [ebx+3344]
  0130d	e8 00 00 00 00	 call	 ?LoadResourceDLL@IMetaTable@@QAEPAUHINSTANCE__@@PAUHWND__@@PAU2@@Z ; IMetaTable::LoadResourceDLL
  01312	8b f8		 mov	 edi, eax
; File C:\Program Files (x86)\Microsoft Visual Studio\2019\Community\VC\Tools\MSVC\14.29.30133\atlmfc\include\afxwin1.inl

; 25   : 		return afxCurrentResourceHandle; }

  01314	e8 00 00 00 00	 call	 ?AfxGetModuleState@@YGPAVAFX_MODULE_STATE@@XZ ; AfxGetModuleState
; File D:\git\src\IBK\IBK_DRFN\ProjSrc\SrcChartEx\ChartAddIn\ChartAnalysisToolAddIn\Include_Chart\Dll_Load\IMetaTable.h

; 1034 : 		m_hInstance = AfxGetResourceHandle();

  01319	8b 70 0c	 mov	 esi, DWORD PTR [eax+12]
  0131c	89 75 c8	 mov	 DWORD PTR ___mlrs__$12[ebp], esi
; File C:\Program Files (x86)\Microsoft Visual Studio\2019\Community\VC\Tools\MSVC\14.29.30133\atlmfc\include\afxwin1.inl

; 27   : 	{ ASSERT(hInstResource != NULL); afxCurrentResourceHandle = hInstResource; }

  0131f	e8 00 00 00 00	 call	 ?AfxGetModuleState@@YGPAVAFX_MODULE_STATE@@XZ ; AfxGetModuleState
  01324	89 78 0c	 mov	 DWORD PTR [eax+12], edi
; File D:\git\src\IBK\IBK_DRFN\ProjSrc\SrcChartEx\ChartAddIn\ChartAnalysisToolAddIn\AnalysisTool\DlgFiboSet.cpp

; 702  : 			CString strTitle;

  01327	8d 4d cc	 lea	 ecx, DWORD PTR _strTitle$18[ebp]
  0132a	c7 45 fc 07 00
	00 00		 mov	 DWORD PTR __$EHRec$[ebp+8], 7
  01331	ff 15 00 00 00
	00		 call	 DWORD PTR __imp_??0?$CStringT@DV?$StrTraitMFC_DLL@DV?$ChTraitsCRT@D@ATL@@@@@ATL@@QAE@XZ

; 703  : 			strTitle.LoadString(IDS_SHOW);

  01337	6a 04		 push	 4
  01339	8d 4d cc	 lea	 ecx, DWORD PTR _strTitle$18[ebp]
  0133c	c6 45 fc 08	 mov	 BYTE PTR __$EHRec$[ebp+8], 8
  01340	ff 15 00 00 00
	00		 call	 DWORD PTR __imp_?LoadStringA@?$CStringT@DV?$StrTraitMFC_DLL@DV?$ChTraitsCRT@D@ATL@@@@@ATL@@QAEHI@Z

; 704  : 			SetDlgItemText(IDC_CHECK_TEXT_LEFT,strTitle);

  01346	ff 75 cc	 push	 DWORD PTR _strTitle$18[ebp]
  01349	8b cb		 mov	 ecx, ebx
  0134b	68 a0 0f 00 00	 push	 4000			; 00000fa0H
  01350	e8 00 00 00 00	 call	 ?SetDlgItemTextA@CWnd@@QAEXHPBD@Z ; CWnd::SetDlgItemTextA

; 705  : 			
; 706  : 			m_ctrlRightText.ShowWindow(SW_HIDE);		

  01355	6a 00		 push	 0
  01357	8d 8b 50 03 00
	00		 lea	 ecx, DWORD PTR [ebx+848]
  0135d	e8 00 00 00 00	 call	 ?ShowWindow@CWnd@@QAEHH@Z ; CWnd::ShowWindow

; 707  : 			m_ctrlLeftText.SetCheck(m_pTextPosition->IsShow());

  01362	8b 8b b4 0c 00
	00		 mov	 ecx, DWORD PTR [ebx+3252]
  01368	e8 00 00 00 00	 call	 ?IsShow@CTextShowPosition@@QBE_NXZ ; CTextShowPosition::IsShow
; File C:\Program Files (x86)\Microsoft Visual Studio\2019\Community\VC\Tools\MSVC\14.29.30133\atlmfc\include\afxwin2.inl

; 630  : 	{ ASSERT(::IsWindow(m_hWnd)); ::SendMessage(m_hWnd, BM_SETCHECK, nCheck, 0); }

  0136d	6a 00		 push	 0
; File D:\git\src\IBK\IBK_DRFN\ProjSrc\SrcChartEx\ChartAddIn\ChartAnalysisToolAddIn\AnalysisTool\DlgFiboSet.cpp

; 707  : 			m_ctrlLeftText.SetCheck(m_pTextPosition->IsShow());

  0136f	0f b6 c0	 movzx	 eax, al
; File C:\Program Files (x86)\Microsoft Visual Studio\2019\Community\VC\Tools\MSVC\14.29.30133\atlmfc\include\afxwin2.inl

; 630  : 	{ ASSERT(::IsWindow(m_hWnd)); ::SendMessage(m_hWnd, BM_SETCHECK, nCheck, 0); }

  01372	50		 push	 eax
  01373	68 f1 00 00 00	 push	 241			; 000000f1H
  01378	ff b3 f0 02 00
	00		 push	 DWORD PTR [ebx+752]
  0137e	ff 15 00 00 00
	00		 call	 DWORD PTR __imp__SendMessageA@16
; File D:\git\src\IBK\IBK_DRFN\ProjSrc\SrcChartEx\ChartAddIn\ChartAnalysisToolAddIn\AnalysisTool\DlgFiboSet.cpp

; 709  : 			m_stAnalysisTool.nLeftText = m_pTextPosition->IsShow();

  01384	8b 8b b4 0c 00
	00		 mov	 ecx, DWORD PTR [ebx+3252]
  0138a	e8 00 00 00 00	 call	 ?IsShow@CTextShowPosition@@QBE_NXZ ; CTextShowPosition::IsShow
  0138f	0f b6 c0	 movzx	 eax, al

; 710  : 			//>>
; 711  : 		}

  01392	8d 4d cc	 lea	 ecx, DWORD PTR _strTitle$18[ebp]
  01395	89 83 28 0c 00
	00		 mov	 DWORD PTR [ebx+3112], eax
  0139b	ff 15 00 00 00
	00		 call	 DWORD PTR __imp_??1?$CStringT@DV?$StrTraitMFC_DLL@DV?$ChTraitsCRT@D@ATL@@@@@ATL@@QAE@XZ
; File D:\git\src\IBK\IBK_DRFN\ProjSrc\SrcChartEx\ChartAddIn\ChartAnalysisToolAddIn\Include_Chart\Dll_Load\IMetaTable.h

; 1038 : 	{

  013a1	c7 45 fc 09 00
	00 00		 mov	 DWORD PTR __$EHRec$[ebp+8], 9
$LN382@Initialize:
; File D:\git\src\IBK\IBK_DRFN\ProjSrc\SrcChartEx\ChartAddIn\ChartAnalysisToolAddIn\AnalysisTool\DlgFiboSet.cpp

; 714  : 		m_ctrlEditValue1.EnableWindow(FALSE);

  013a8	e8 00 00 00 00	 call	 ?AfxGetModuleState@@YGPAVAFX_MODULE_STATE@@XZ ; AfxGetModuleState
  013ad	6a 00		 push	 0
  013af	8d 8b d0 08 00
	00		 lea	 ecx, DWORD PTR [ebx+2256]
  013b5	c7 45 fc ff ff
	ff ff		 mov	 DWORD PTR __$EHRec$[ebp+8], -1
  013bc	89 70 0c	 mov	 DWORD PTR [eax+12], esi
  013bf	e8 00 00 00 00	 call	 ?EnableWindow@CWnd@@QAEHH@Z ; CWnd::EnableWindow
$LN378@Initialize:

; 931  : 	}
; 932  : 
; 933  : 	if((CToolEnumData::ElementType)m_nElementType != CToolEnumData::Pencil_Line)

  013c4	6a 00		 push	 0
  013c6	8d 8b d0 0a 00
	00		 lea	 ecx, DWORD PTR [ebx+2768]
  013cc	e8 00 00 00 00	 call	 ?ShowWindow@CWnd@@QAEHH@Z ; CWnd::ShowWindow
  013d1	6a 00		 push	 0
  013d3	8d 8b 50 09 00
	00		 lea	 ecx, DWORD PTR [ebx+2384]
  013d9	e8 00 00 00 00	 call	 ?ShowWindow@CWnd@@QAEHH@Z ; CWnd::ShowWindow
  013de	6a 00		 push	 0
  013e0	68 ab 0f 00 00	 push	 4011			; 00000fabH
  013e5	8b cb		 mov	 ecx, ebx
  013e7	e8 00 00 00 00	 call	 ?GetDlgItem@CWnd@@QBEPAV1@H@Z ; CWnd::GetDlgItem
  013ec	8b c8		 mov	 ecx, eax
  013ee	e8 00 00 00 00	 call	 ?ShowWindow@CWnd@@QAEHH@Z ; CWnd::ShowWindow
  013f3	6a 00		 push	 0
  013f5	68 ae 0f 00 00	 push	 4014			; 00000faeH
  013fa	8b cb		 mov	 ecx, ebx
  013fc	e8 00 00 00 00	 call	 ?GetDlgItem@CWnd@@QBEPAV1@H@Z ; CWnd::GetDlgItem
  01401	8b c8		 mov	 ecx, eax
$LN381@Initialize:
  01403	e8 00 00 00 00	 call	 ?ShowWindow@CWnd@@QAEHH@Z ; CWnd::ShowWindow
$LN42@Initialize:
  01408	83 bb a0 0c 00
	00 23		 cmp	 DWORD PTR [ebx+3232], 35 ; 00000023H
  0140f	0f 84 7a 01 00
	00		 je	 $LN5@Initialize

; 934  : 	{
; 935  : 		if(m_pElementPointList != NULL)

  01415	8b 8b 88 0c 00
	00		 mov	 ecx, DWORD PTR [ebx+3208]
  0141b	85 c9		 test	 ecx, ecx
  0141d	0f 84 6c 01 00
	00		 je	 $LN5@Initialize

; 936  : 		{
; 937  : 			CCoordinate *pCoordinate = NULL;
; 938  : 			for(int i=0;i<m_pElementPointList->GetCount();i++)

  01423	33 f6		 xor	 esi, esi
  01425	89 75 c4	 mov	 DWORD PTR _i$1$[ebp], esi
  01428	e8 00 00 00 00	 call	 ?GetCount@CElementPointList@@QBEHXZ ; CElementPointList::GetCount
  0142d	85 c0		 test	 eax, eax
  0142f	0f 8e 5a 01 00
	00		 jle	 $LN5@Initialize
  01435	8d bb e8 0b 00
	00		 lea	 edi, DWORD PTR [ebx+3048]
  0143b	0f 1f 44 00 00	 npad	 5
$LL6@Initialize:

; 939  : 			{
; 940  : 				pCoordinate = m_pElementPointList->GetAt(i);

  01440	8b 8b 88 0c 00
	00		 mov	 ecx, DWORD PTR [ebx+3208]
  01446	56		 push	 esi
  01447	e8 00 00 00 00	 call	 ?GetAt@CElementPointList@@QAEPAVCCoordinate@@H@Z ; CElementPointList::GetAt

; 945  : 				double dX = pCoordinate->GetX();

  0144c	8b c8		 mov	 ecx, eax
  0144e	89 45 c8	 mov	 DWORD PTR _pCoordinate$1$[ebp], eax
  01451	e8 00 00 00 00	 call	 ?GetX@CCoordinate@@QBENXZ ; CCoordinate::GetX
; File C:\Program Files (x86)\Microsoft Visual Studio\2019\Community\VC\Tools\MSVC\14.29.30133\atlmfc\include\cstringt.h

; 2486 : 		return(str1.Compare(psz2) == 0);

  01456	68 00 00 00 00	 push	 OFFSET ??_C@_0P@IMPIBBAB@YYYYMMDDHHMMSS@
  0145b	8b cf		 mov	 ecx, edi
; File D:\git\src\IBK\IBK_DRFN\ProjSrc\SrcChartEx\ChartAddIn\ChartAnalysisToolAddIn\AnalysisTool\DlgFiboSet.cpp

; 945  : 				double dX = pCoordinate->GetX();

  0145d	dd 5d e8	 fstp	 QWORD PTR _dX$22[ebp]
; File C:\Program Files (x86)\Microsoft Visual Studio\2019\Community\VC\Tools\MSVC\14.29.30133\atlmfc\include\cstringt.h

; 2486 : 		return(str1.Compare(psz2) == 0);

  01460	ff 15 00 00 00
	00		 call	 DWORD PTR __imp_?Compare@?$CStringT@DV?$StrTraitMFC_DLL@DV?$ChTraitsCRT@D@ATL@@@@@ATL@@QBEHPBD@Z
  01466	85 c0		 test	 eax, eax
; File D:\git\src\IBK\IBK_DRFN\ProjSrc\SrcChartEx\ChartAddIn\ChartAnalysisToolAddIn\AnalysisTool\DlgFiboSet.cpp

; 946  : 				if (m_strFormatX == _T("YYYYMMDDHHMMSS"))

  01468	75 7c		 jne	 SHORT $LN51@Initialize

; 947  : 				{
; 948  : 					if( m_nDataPeriod == CScaleBaseData::HORZ_WEEKLEY	||

  0146a	8b 83 f0 0b 00
	00		 mov	 eax, DWORD PTR [ebx+3056]
  01470	83 f8 02	 cmp	 eax, 2
  01473	74 05		 je	 SHORT $LN374@Initialize
  01475	83 f8 03	 cmp	 eax, 3
  01478	75 6c		 jne	 SHORT $LN51@Initialize
$LN374@Initialize:

; 949  : 						m_nDataPeriod == CScaleBaseData::HORZ_MONTHLY)
; 950  : 					{
; 951  : 						// ,     .
; 952  : 						IChartManager *pIChartManager = m_pIChartOCX->GetIChartManager();

  0147a	8b 8b dc 0b 00
	00		 mov	 ecx, DWORD PTR [ebx+3036]
  01480	8b 01		 mov	 eax, DWORD PTR [ecx]
  01482	ff 50 18	 call	 DWORD PTR [eax+24]
  01485	89 45 cc	 mov	 DWORD PTR _pIChartManager$1$[ebp], eax

; 953  : 						if (pIChartManager) 

  01488	85 c0		 test	 eax, eax
  0148a	74 5a		 je	 SHORT $LN51@Initialize

; 954  : 						{
; 955  : 							// 
; 956  : 							int nRow = m_blockIndex.GetRow();
; 957  : 							int nCol = m_blockIndex.GetColumn();
; 958  : 
; 959  : 							int nCenter_x;
; 960  : 							int nOrgXPos		= pIChartManager->GetXFromDouble(nRow, nCol, dX, nCenter_x);

  0148c	f2 0f 10 45 e8	 movsd	 xmm0, QWORD PTR _dX$22[ebp]
  01491	8d 4d bc	 lea	 ecx, DWORD PTR _nCenter_x$3[ebp]
  01494	8b b3 e4 0b 00
	00		 mov	 esi, DWORD PTR [ebx+3044]
  0149a	8b 10		 mov	 edx, DWORD PTR [eax]
  0149c	8b bb e0 0b 00
	00		 mov	 edi, DWORD PTR [ebx+3040]
  014a2	51		 push	 ecx
  014a3	83 ec 08	 sub	 esp, 8
  014a6	8b c8		 mov	 ecx, eax
  014a8	f2 0f 11 04 24	 movsd	 QWORD PTR [esp], xmm0
  014ad	56		 push	 esi
  014ae	57		 push	 edi
  014af	ff 92 14 01 00
	00		 call	 DWORD PTR [edx+276]

; 961  : 
; 962  : 							int nBlockColumn;
; 963  : 							double dModifyData	= pIChartManager->GetDoubleFromX(nRow, nCol, nOrgXPos, &nBlockColumn, nCenter_x);

  014b5	8b 55 cc	 mov	 edx, DWORD PTR _pIChartManager$1$[ebp]
  014b8	8d 4d bc	 lea	 ecx, DWORD PTR _nCenter_x$3[ebp]
  014bb	6a 00		 push	 0
  014bd	51		 push	 ecx
  014be	8d 4d b8	 lea	 ecx, DWORD PTR _nBlockColumn$2[ebp]
  014c1	8b 12		 mov	 edx, DWORD PTR [edx]
  014c3	51		 push	 ecx
  014c4	50		 push	 eax
  014c5	56		 push	 esi
  014c6	8b 75 cc	 mov	 esi, DWORD PTR _pIChartManager$1$[ebp]
  014c9	8b ce		 mov	 ecx, esi
  014cb	8b 82 10 01 00
	00		 mov	 eax, DWORD PTR [edx+272]
  014d1	57		 push	 edi
  014d2	ff d0		 call	 eax

; 964  : 							dX = dModifyData;
; 965  : 
; 966  : 							pIChartManager->Release();

  014d4	8b 06		 mov	 eax, DWORD PTR [esi]
  014d6	56		 push	 esi
  014d7	dd 5d e8	 fstp	 QWORD PTR _dX$22[ebp]
  014da	ff 50 08	 call	 DWORD PTR [eax+8]
  014dd	8b 75 c4	 mov	 esi, DWORD PTR _i$1$[ebp]
  014e0	8d bb e8 0b 00
	00		 lea	 edi, DWORD PTR [ebx+3048]
$LN51@Initialize:

; 967  : 							pIChartManager = NULL;
; 968  : 						}
; 969  : 					}
; 970  : 				}
; 971  : 
; 972  : 				SetXDateTime(dX,i);

  014e6	f2 0f 10 45 e8	 movsd	 xmm0, QWORD PTR _dX$22[ebp]
  014eb	8b cb		 mov	 ecx, ebx
  014ed	56		 push	 esi
  014ee	83 ec 08	 sub	 esp, 8
  014f1	f2 0f 11 04 24	 movsd	 QWORD PTR [esp], xmm0
  014f6	e8 00 00 00 00	 call	 ?SetXDateTime@CDlgFiboSet@@IAEXNH@Z ; CDlgFiboSet::SetXDateTime

; 973  : 				// 2011.02.08 by SYS <<
; 974  : 				
; 975  : 				SetYValue(pCoordinate->GetY(),i);

  014fb	8b 4d c8	 mov	 ecx, DWORD PTR _pCoordinate$1$[ebp]
  014fe	e8 00 00 00 00	 call	 ?GetY@CCoordinate@@QBENXZ ; CCoordinate::GetY

; 1304 : 	CString strYValue;

  01503	8d 4d c0	 lea	 ecx, DWORD PTR _strYValue$4[ebp]

; 973  : 				// 2011.02.08 by SYS <<
; 974  : 				
; 975  : 				SetYValue(pCoordinate->GetY(),i);

  01506	dd 5d e8	 fstp	 QWORD PTR _dYValue$[ebp]

; 1304 : 	CString strYValue;

  01509	ff 15 00 00 00
	00		 call	 DWORD PTR __imp_??0?$CStringT@DV?$StrTraitMFC_DLL@DV?$ChTraitsCRT@D@ATL@@@@@ATL@@QAE@XZ

; 1307 : 	strYValue.Format(_T("%f"),dYValue);

  0150f	f2 0f 10 45 e8	 movsd	 xmm0, QWORD PTR _dYValue$[ebp]
  01514	8d 45 c0	 lea	 eax, DWORD PTR _strYValue$4[ebp]
  01517	83 ec 08	 sub	 esp, 8
  0151a	c7 45 fc 16 00
	00 00		 mov	 DWORD PTR __$EHRec$[ebp+8], 22 ; 00000016H
  01521	f2 0f 11 04 24	 movsd	 QWORD PTR [esp], xmm0
  01526	68 00 00 00 00	 push	 OFFSET ??_C@_02NJPGOMH@?$CFf@
  0152b	50		 push	 eax
  0152c	ff 15 00 00 00
	00		 call	 DWORD PTR __imp_?Format@?$CStringT@DV?$StrTraitMFC_DLL@DV?$ChTraitsCRT@D@ATL@@@@@ATL@@QAAXPBDZZ
; File C:\Program Files (x86)\Microsoft Visual Studio\2019\Community\VC\Tools\MSVC\14.29.30133\atlmfc\include\atlsimpstr.h

; 519  : 		return( GetData()->nDataLength );

  01532	8b 45 c0	 mov	 eax, DWORD PTR _strYValue$4[ebp]
; File D:\git\src\IBK\IBK_DRFN\ProjSrc\SrcChartEx\ChartAddIn\ChartAnalysisToolAddIn\AnalysisTool\DlgFiboSet.cpp

; 1307 : 	strYValue.Format(_T("%f"),dYValue);

  01535	83 c4 10	 add	 esp, 16			; 00000010H
; File C:\Program Files (x86)\Microsoft Visual Studio\2019\Community\VC\Tools\MSVC\14.29.30133\atlmfc\include\atlsimpstr.h

; 533  : 		return( GetLength() == 0 );

  01538	83 78 f4 00	 cmp	 DWORD PTR [eax-12], 0
; File D:\git\src\IBK\IBK_DRFN\ProjSrc\SrcChartEx\ChartAddIn\ChartAnalysisToolAddIn\AnalysisTool\DlgFiboSet.cpp

; 1308 : 	if(strYValue.IsEmpty() == FALSE)

  0153c	74 2a		 je	 SHORT $LN356@Initialize

; 1309 : 	{	
; 1310 : 		if(nIndex == 0)

  0153e	85 f6		 test	 esi, esi
  01540	75 08		 jne	 SHORT $LN352@Initialize

; 1311 : 			m_ctrlEditValue1.SetWindowText(strYValue);	

  01542	8d 8b d0 08 00
	00		 lea	 ecx, DWORD PTR [ebx+2256]
  01548	eb 18		 jmp	 SHORT $LN384@Initialize
$LN352@Initialize:

; 1312 : 		else if(nIndex == 1)

  0154a	83 fe 01	 cmp	 esi, 1
  0154d	75 08		 jne	 SHORT $LN354@Initialize

; 1313 : 			m_ctrlEditValue2.SetWindowText(strYValue);	

  0154f	8d 8b 50 09 00
	00		 lea	 ecx, DWORD PTR [ebx+2384]
  01555	eb 0b		 jmp	 SHORT $LN384@Initialize
$LN354@Initialize:

; 1314 : 		else if(nIndex == 2)

  01557	83 fe 02	 cmp	 esi, 2
  0155a	75 0c		 jne	 SHORT $LN356@Initialize

; 1315 : 			m_ctrlEditValue3.SetWindowText(strYValue);	

  0155c	8d 8b d0 09 00
	00		 lea	 ecx, DWORD PTR [ebx+2512]
$LN384@Initialize:

; 1316 : 	}
; 1317 : }

  01562	50		 push	 eax
  01563	e8 00 00 00 00	 call	 ?SetWindowTextA@CWnd@@QAEXPBD@Z ; CWnd::SetWindowTextA
$LN356@Initialize:
  01568	8d 4d c0	 lea	 ecx, DWORD PTR _strYValue$4[ebp]
  0156b	c7 45 fc ff ff
	ff ff		 mov	 DWORD PTR __$EHRec$[ebp+8], -1
  01572	ff 15 00 00 00
	00		 call	 DWORD PTR __imp_??1?$CStringT@DV?$StrTraitMFC_DLL@DV?$ChTraitsCRT@D@ATL@@@@@ATL@@QAE@XZ

; 936  : 		{
; 937  : 			CCoordinate *pCoordinate = NULL;
; 938  : 			for(int i=0;i<m_pElementPointList->GetCount();i++)

  01578	8b 8b 88 0c 00
	00		 mov	 ecx, DWORD PTR [ebx+3208]
  0157e	46		 inc	 esi
  0157f	89 75 c4	 mov	 DWORD PTR _i$1$[ebp], esi
  01582	e8 00 00 00 00	 call	 ?GetCount@CElementPointList@@QBEHXZ ; CElementPointList::GetCount
  01587	3b f0		 cmp	 esi, eax
  01589	0f 8c b1 fe ff
	ff		 jl	 $LL6@Initialize
$LN5@Initialize:

; 976  : 			}
; 977  : 		}
; 978  : 	}	
; 979  : }

  0158f	8b 4d f4	 mov	 ecx, DWORD PTR __$EHRec$[ebp]
  01592	64 89 0d 00 00
	00 00		 mov	 DWORD PTR fs:0, ecx
  01599	59		 pop	 ecx
  0159a	5f		 pop	 edi
  0159b	5e		 pop	 esi
  0159c	5b		 pop	 ebx
  0159d	8b 4d f0	 mov	 ecx, DWORD PTR __$ArrayPad$[ebp]
  015a0	33 cd		 xor	 ecx, ebp
  015a2	e8 00 00 00 00	 call	 @__security_check_cookie@4
  015a7	8b e5		 mov	 esp, ebp
  015a9	5d		 pop	 ebp
  015aa	c3		 ret	 0
_TEXT	ENDS
;	COMDAT text$x
text$x	SEGMENT
__unwindfunclet$?InitializeData@CDlgFiboSet@@IAEXXZ$12:
  00000	8d 4d c8	 lea	 ecx, DWORD PTR ___mlrs__$7[ebp]
  00003	e9 00 00 00 00	 jmp	 ??1CMultiLanguageResourceSetter@@QAE@XZ ; CMultiLanguageResourceSetter::~CMultiLanguageResourceSetter
__unwindfunclet$?InitializeData@CDlgFiboSet@@IAEXXZ$14:
  00008	8d 4d c8	 lea	 ecx, DWORD PTR ___mlrs__$6[ebp]
  0000b	e9 00 00 00 00	 jmp	 ??1CMultiLanguageResourceSetter@@QAE@XZ ; CMultiLanguageResourceSetter::~CMultiLanguageResourceSetter
__unwindfunclet$?InitializeData@CDlgFiboSet@@IAEXXZ$6:
  00010	8d 4d c8	 lea	 ecx, DWORD PTR ___mlrs__$10[ebp]
  00013	e9 00 00 00 00	 jmp	 ??1CMultiLanguageResourceSetter@@QAE@XZ ; CMultiLanguageResourceSetter::~CMultiLanguageResourceSetter
__unwindfunclet$?InitializeData@CDlgFiboSet@@IAEXXZ$7:
  00018	8d 4d cc	 lea	 ecx, DWORD PTR _strTitle$16[ebp]
  0001b	ff 25 00 00 00
	00		 jmp	 DWORD PTR __imp_??1?$CStringT@DV?$StrTraitMFC_DLL@DV?$ChTraitsCRT@D@ATL@@@@@ATL@@QAE@XZ
__unwindfunclet$?InitializeData@CDlgFiboSet@@IAEXXZ$8:
  00021	8d 4d c8	 lea	 ecx, DWORD PTR ___mlrs__$9[ebp]
  00024	e9 00 00 00 00	 jmp	 ??1CMultiLanguageResourceSetter@@QAE@XZ ; CMultiLanguageResourceSetter::~CMultiLanguageResourceSetter
__unwindfunclet$?InitializeData@CDlgFiboSet@@IAEXXZ$9:
  00029	8d 4d cc	 lea	 ecx, DWORD PTR _strTitle$15[ebp]
  0002c	ff 25 00 00 00
	00		 jmp	 DWORD PTR __imp_??1?$CStringT@DV?$StrTraitMFC_DLL@DV?$ChTraitsCRT@D@ATL@@@@@ATL@@QAE@XZ
__unwindfunclet$?InitializeData@CDlgFiboSet@@IAEXXZ$10:
  00032	8d 4d c8	 lea	 ecx, DWORD PTR ___mlrs__$8[ebp]
  00035	e9 00 00 00 00	 jmp	 ??1CMultiLanguageResourceSetter@@QAE@XZ ; CMultiLanguageResourceSetter::~CMultiLanguageResourceSetter
__unwindfunclet$?InitializeData@CDlgFiboSet@@IAEXXZ$11:
  0003a	8d 4d cc	 lea	 ecx, DWORD PTR _strTitle$14[ebp]
  0003d	ff 25 00 00 00
	00		 jmp	 DWORD PTR __imp_??1?$CStringT@DV?$StrTraitMFC_DLL@DV?$ChTraitsCRT@D@ATL@@@@@ATL@@QAE@XZ
__unwindfunclet$?InitializeData@CDlgFiboSet@@IAEXXZ$4:
  00043	8d 4d c8	 lea	 ecx, DWORD PTR ___mlrs__$11[ebp]
  00046	e9 00 00 00 00	 jmp	 ??1CMultiLanguageResourceSetter@@QAE@XZ ; CMultiLanguageResourceSetter::~CMultiLanguageResourceSetter
__unwindfunclet$?InitializeData@CDlgFiboSet@@IAEXXZ$5:
  0004b	8d 4d cc	 lea	 ecx, DWORD PTR _strTitle$17[ebp]
  0004e	ff 25 00 00 00
	00		 jmp	 DWORD PTR __imp_??1?$CStringT@DV?$StrTraitMFC_DLL@DV?$ChTraitsCRT@D@ATL@@@@@ATL@@QAE@XZ
__unwindfunclet$?InitializeData@CDlgFiboSet@@IAEXXZ$0:
  00054	8d 4d c8	 lea	 ecx, DWORD PTR ___mlrs__$13[ebp]
  00057	e9 00 00 00 00	 jmp	 ??1CMultiLanguageResourceSetter@@QAE@XZ ; CMultiLanguageResourceSetter::~CMultiLanguageResourceSetter
__unwindfunclet$?InitializeData@CDlgFiboSet@@IAEXXZ$1:
  0005c	8d 4d cc	 lea	 ecx, DWORD PTR _strTitle$19[ebp]
  0005f	ff 25 00 00 00
	00		 jmp	 DWORD PTR __imp_??1?$CStringT@DV?$StrTraitMFC_DLL@DV?$ChTraitsCRT@D@ATL@@@@@ATL@@QAE@XZ
__unwindfunclet$?InitializeData@CDlgFiboSet@@IAEXXZ$2:
  00065	8d 4d c8	 lea	 ecx, DWORD PTR ___mlrs__$12[ebp]
  00068	e9 00 00 00 00	 jmp	 ??1CMultiLanguageResourceSetter@@QAE@XZ ; CMultiLanguageResourceSetter::~CMultiLanguageResourceSetter
__unwindfunclet$?InitializeData@CDlgFiboSet@@IAEXXZ$3:
  0006d	8d 4d cc	 lea	 ecx, DWORD PTR _strTitle$18[ebp]
  00070	ff 25 00 00 00
	00		 jmp	 DWORD PTR __imp_??1?$CStringT@DV?$StrTraitMFC_DLL@DV?$ChTraitsCRT@D@ATL@@@@@ATL@@QAE@XZ
__unwindfunclet$?InitializeData@CDlgFiboSet@@IAEXXZ$22:
  00076	8d 4d c0	 lea	 ecx, DWORD PTR _strYValue$4[ebp]
  00079	ff 25 00 00 00
	00		 jmp	 DWORD PTR __imp_??1?$CStringT@DV?$StrTraitMFC_DLL@DV?$ChTraitsCRT@D@ATL@@@@@ATL@@QAE@XZ
  0007f	cc		 int	 3
  00080	cc		 int	 3
  00081	cc		 int	 3
  00082	cc		 int	 3
  00083	cc		 int	 3
__ehhandler$?InitializeData@CDlgFiboSet@@IAEXXZ:
  00084	90		 npad	 1
  00085	90		 npad	 1
  00086	8b 54 24 08	 mov	 edx, DWORD PTR [esp+8]
  0008a	8d 42 0c	 lea	 eax, DWORD PTR [edx+12]
  0008d	8b 4a b4	 mov	 ecx, DWORD PTR [edx-76]
  00090	33 c8		 xor	 ecx, eax
  00092	e8 00 00 00 00	 call	 @__security_check_cookie@4
  00097	8b 4a fc	 mov	 ecx, DWORD PTR [edx-4]
  0009a	33 c8		 xor	 ecx, eax
  0009c	e8 00 00 00 00	 call	 @__security_check_cookie@4
  000a1	b8 00 00 00 00	 mov	 eax, OFFSET __ehfuncinfo$?InitializeData@CDlgFiboSet@@IAEXXZ
  000a6	e9 00 00 00 00	 jmp	 ___CxxFrameHandler3
text$x	ENDS
?InitializeData@CDlgFiboSet@@IAEXXZ ENDP		; CDlgFiboSet::InitializeData
; Function compile flags: /Ogtp
; File D:\git\src\IBK\IBK_DRFN\ProjSrc\SrcChartEx\ChartAddIn\ChartAnalysisToolAddIn\AnalysisTool\DlgFiboSet.cpp
;	COMDAT ?GetMessageMap@CDlgFiboSet@@MBEPBUAFX_MSGMAP@@XZ
_TEXT	SEGMENT
?GetMessageMap@CDlgFiboSet@@MBEPBUAFX_MSGMAP@@XZ PROC	; CDlgFiboSet::GetMessageMap, COMDAT
; _this$ = ecx

; 138  : BEGIN_MESSAGE_MAP(CDlgFiboSet, CDialog)

  00000	b8 00 00 00 00	 mov	 eax, OFFSET ?messageMap@?1??GetThisMessageMap@CDlgFiboSet@@KGPBUAFX_MSGMAP@@XZ@4U3@B
  00005	c3		 ret	 0
?GetMessageMap@CDlgFiboSet@@MBEPBUAFX_MSGMAP@@XZ ENDP	; CDlgFiboSet::GetMessageMap
_TEXT	ENDS
; Function compile flags: /Ogtp
; File D:\git\src\IBK\IBK_DRFN\ProjSrc\SrcChartEx\ChartAddIn\ChartAnalysisToolAddIn\AnalysisTool\DlgFiboSet.cpp
;	COMDAT ?GetThisMessageMap@CDlgFiboSet@@KGPBUAFX_MSGMAP@@XZ
_TEXT	SEGMENT
?GetThisMessageMap@CDlgFiboSet@@KGPBUAFX_MSGMAP@@XZ PROC ; CDlgFiboSet::GetThisMessageMap, COMDAT

; 139  : 	//{{AFX_MSG_MAP(CDlgFiboSet)
; 140  : 	ON_BN_CLICKED(IDC_COLOR, OnColor)
; 141  : 	ON_BN_CLICKED(IDC_APPLY_BT, OnApplyBt)
; 142  : 	ON_CBN_SELCHANGE(IDC_WIDTH, OnSelchangeWidth)
; 143  : 	ON_CBN_SELCHANGE(IDC_STYLE, OnSelchangeStyle)
; 144  : 	ON_NOTIFY(DTN_DATETIMECHANGE, IDC_DATETIMEPICKER_XDATE1, OnDatetimechangeDatetimepickerXdate1)
; 145  : 	ON_NOTIFY(DTN_DATETIMECHANGE, IDC_DATETIMEPICKER_XDATE2, OnDatetimechangeDatetimepickerXdate2)
; 146  : 	ON_NOTIFY(DTN_DATETIMECHANGE, IDC_DATETIMEPICKER_XDATE3, OnDatetimechangeDatetimepickerXdate3)
; 147  : 	ON_BN_CLICKED(IDC_CANCEL_BT, OnCancelBt)
; 148  : 	ON_BN_CLICKED(IDC_OK_BT, OnOkBt)
; 149  : 	//}}AFX_MSG_MAP
; 150  : 	ON_CONTROL_RANGE(BN_CLICKED, IDC_CHECK1, IDC_CHECK12, OnCheck)
; 151  : END_MESSAGE_MAP()

  00000	b8 00 00 00 00	 mov	 eax, OFFSET ?messageMap@?1??GetThisMessageMap@CDlgFiboSet@@KGPBUAFX_MSGMAP@@XZ@4U3@B
  00005	c3		 ret	 0
?GetThisMessageMap@CDlgFiboSet@@KGPBUAFX_MSGMAP@@XZ ENDP ; CDlgFiboSet::GetThisMessageMap
_TEXT	ENDS
; Function compile flags: /Ogtp
; File D:\git\src\IBK\IBK_DRFN\ProjSrc\SrcChartEx\ChartAddIn\ChartAnalysisToolAddIn\AnalysisTool\DlgFiboSet.cpp
; File C:\Program Files (x86)\Microsoft Visual Studio\2019\Community\VC\Tools\MSVC\14.29.30133\atlmfc\include\afxwin2.inl
; File D:\git\src\IBK\IBK_DRFN\ProjSrc\SrcChartEx\ChartAddIn\ChartAnalysisToolAddIn\AnalysisTool\DlgFiboSet.cpp
; File C:\Program Files (x86)\Microsoft Visual Studio\2019\Community\VC\Tools\MSVC\14.29.30133\atlmfc\include\afxwin2.inl
; File D:\git\src\IBK\IBK_DRFN\ProjSrc\SrcChartEx\ChartAddIn\ChartAnalysisToolAddIn\AnalysisTool\DlgFiboSet.cpp
; File C:\Program Files (x86)\Microsoft Visual Studio\2019\Community\VC\Tools\MSVC\14.29.30133\atlmfc\include\afxwin2.inl
; File D:\git\src\IBK\IBK_DRFN\ProjSrc\SrcChartEx\ChartAddIn\ChartAnalysisToolAddIn\AnalysisTool\DlgFiboSet.cpp
;	COMDAT ?OnCheck@CDlgFiboSet@@IAEXI@Z
_TEXT	SEGMENT
_bCheck$1$ = 8						; size = 4
_nID$ = 8						; size = 4
?OnCheck@CDlgFiboSet@@IAEXI@Z PROC			; CDlgFiboSet::OnCheck, COMDAT
; _this$ = ecx

; 227  : {

  00000	55		 push	 ebp
  00001	8b ec		 mov	 ebp, esp

; 228  : 	// TODO: Add your control notification handler code here
; 229  : 	if( nID == IDC_CHECK1 )

  00003	81 7d 08 bd 0f
	00 00		 cmp	 DWORD PTR _nID$[ebp], 4029 ; 00000fbdH
  0000a	57		 push	 edi
  0000b	8b f9		 mov	 edi, ecx
  0000d	75 52		 jne	 SHORT $LN5@OnCheck

; 231  : 		BOOL bCheck = ((CButton *)GetDlgItem(IDC_CHECK1))->GetCheck();

  0000f	53		 push	 ebx
  00010	56		 push	 esi
  00011	68 bd 0f 00 00	 push	 4029			; 00000fbdH
  00016	e8 00 00 00 00	 call	 ?GetDlgItem@CWnd@@QBEPAV1@H@Z ; CWnd::GetDlgItem
; File C:\Program Files (x86)\Microsoft Visual Studio\2019\Community\VC\Tools\MSVC\14.29.30133\atlmfc\include\afxwin2.inl

; 628  : 	{ ASSERT(::IsWindow(m_hWnd)); return (int)::SendMessage(m_hWnd, BM_GETCHECK, 0, 0); }

  0001b	8b 1d 00 00 00
	00		 mov	 ebx, DWORD PTR __imp__SendMessageA@16
  00021	6a 00		 push	 0
  00023	6a 00		 push	 0
  00025	68 f0 00 00 00	 push	 240			; 000000f0H
  0002a	ff 70 20	 push	 DWORD PTR [eax+32]
  0002d	ff d3		 call	 ebx
; File D:\git\src\IBK\IBK_DRFN\ProjSrc\SrcChartEx\ChartAddIn\ChartAnalysisToolAddIn\AnalysisTool\DlgFiboSet.cpp

; 231  : 		BOOL bCheck = ((CButton *)GetDlgItem(IDC_CHECK1))->GetCheck();

  0002f	89 45 08	 mov	 DWORD PTR _bCheck$1$[ebp], eax
  00032	be 01 00 00 00	 mov	 esi, 1
$LL4@OnCheck:

; 234  : 			((CButton *)GetDlgItem(IDC_CHECK1 + i))->SetCheck(bCheck);

  00037	8d 8e bd 0f 00
	00		 lea	 ecx, DWORD PTR [esi+4029]
  0003d	51		 push	 ecx
  0003e	8b cf		 mov	 ecx, edi
  00040	e8 00 00 00 00	 call	 ?GetDlgItem@CWnd@@QBEPAV1@H@Z ; CWnd::GetDlgItem
; File C:\Program Files (x86)\Microsoft Visual Studio\2019\Community\VC\Tools\MSVC\14.29.30133\atlmfc\include\afxwin2.inl

; 630  : 	{ ASSERT(::IsWindow(m_hWnd)); ::SendMessage(m_hWnd, BM_SETCHECK, nCheck, 0); }

  00045	6a 00		 push	 0
  00047	ff 75 08	 push	 DWORD PTR _bCheck$1$[ebp]
  0004a	68 f1 00 00 00	 push	 241			; 000000f1H
  0004f	ff 70 20	 push	 DWORD PTR [eax+32]
  00052	ff d3		 call	 ebx
; File D:\git\src\IBK\IBK_DRFN\ProjSrc\SrcChartEx\ChartAddIn\ChartAnalysisToolAddIn\AnalysisTool\DlgFiboSet.cpp

; 233  : 		for( int i=1; i<g_nRationCnt; i++ )

  00054	46		 inc	 esi
  00055	83 fe 0c	 cmp	 esi, 12			; 0000000cH
  00058	7c dd		 jl	 SHORT $LL4@OnCheck

; 235  : 	}

  0005a	5e		 pop	 esi
  0005b	5b		 pop	 ebx
  0005c	5f		 pop	 edi

; 241  : }

  0005d	5d		 pop	 ebp
  0005e	c2 04 00	 ret	 4
$LN5@OnCheck:

; 236  : 	else
; 237  : 	{
; 238  : 		((CButton *)GetDlgItem(IDC_CHECK1))->SetCheck(FALSE);

  00061	68 bd 0f 00 00	 push	 4029			; 00000fbdH
  00066	e8 00 00 00 00	 call	 ?GetDlgItem@CWnd@@QBEPAV1@H@Z ; CWnd::GetDlgItem
; File C:\Program Files (x86)\Microsoft Visual Studio\2019\Community\VC\Tools\MSVC\14.29.30133\atlmfc\include\afxwin2.inl

; 630  : 	{ ASSERT(::IsWindow(m_hWnd)); ::SendMessage(m_hWnd, BM_SETCHECK, nCheck, 0); }

  0006b	6a 00		 push	 0
  0006d	6a 00		 push	 0
  0006f	68 f1 00 00 00	 push	 241			; 000000f1H
  00074	ff 70 20	 push	 DWORD PTR [eax+32]
  00077	ff 15 00 00 00
	00		 call	 DWORD PTR __imp__SendMessageA@16
  0007d	5f		 pop	 edi
; File D:\git\src\IBK\IBK_DRFN\ProjSrc\SrcChartEx\ChartAddIn\ChartAnalysisToolAddIn\AnalysisTool\DlgFiboSet.cpp

; 241  : }

  0007e	5d		 pop	 ebp
  0007f	c2 04 00	 ret	 4
?OnCheck@CDlgFiboSet@@IAEXI@Z ENDP			; CDlgFiboSet::OnCheck
_TEXT	ENDS
; Function compile flags: /Ogtp
; File D:\git\src\IBK\IBK_DRFN\ProjSrc\SrcChartEx\ChartAddIn\ChartAnalysisToolAddIn\AnalysisTool\DlgFiboSet.cpp
;	COMDAT ?OnOkBt@CDlgFiboSet@@IAEXXZ
_TEXT	SEGMENT
?OnOkBt@CDlgFiboSet@@IAEXXZ PROC			; CDlgFiboSet::OnOkBt, COMDAT
; _this$ = ecx

; 1528 : {

  00000	56		 push	 esi
  00001	8b f1		 mov	 esi, ecx

; 1529 : 	ApplyData();

  00003	e8 00 00 00 00	 call	 ?ApplyData@CDlgFiboSet@@IAEXXZ ; CDlgFiboSet::ApplyData

; 1530 : 	SaveData();

  00008	8b ce		 mov	 ecx, esi
  0000a	e8 00 00 00 00	 call	 ?SaveData@CDlgFiboSet@@IAEXXZ ; CDlgFiboSet::SaveData

; 1531 : 
; 1532 : 	CDialog::OnOK();	

  0000f	8b ce		 mov	 ecx, esi
  00011	5e		 pop	 esi
  00012	e9 00 00 00 00	 jmp	 ?OnOK@CDialog@@MAEXXZ	; CDialog::OnOK
?OnOkBt@CDlgFiboSet@@IAEXXZ ENDP			; CDlgFiboSet::OnOkBt
_TEXT	ENDS
; Function compile flags: /Ogtp
; File D:\git\src\IBK\IBK_DRFN\ProjSrc\SrcChartEx\ChartAddIn\ChartAnalysisToolAddIn\AnalysisTool\DlgFiboSet.cpp
;	COMDAT ?OnCancelBt@CDlgFiboSet@@IAEXXZ
_TEXT	SEGMENT
?OnCancelBt@CDlgFiboSet@@IAEXXZ PROC			; CDlgFiboSet::OnCancelBt, COMDAT
; _this$ = ecx

; 1521 : {

  00000	56		 push	 esi
  00001	8b f1		 mov	 esi, ecx

; 1522 : 	ApplyOrgData();

  00003	e8 00 00 00 00	 call	 ?ApplyOrgData@CDlgFiboSet@@IAEXXZ ; CDlgFiboSet::ApplyOrgData

; 1523 : 
; 1524 : 	CDialog::OnCancel();	

  00008	8b ce		 mov	 ecx, esi
  0000a	5e		 pop	 esi
  0000b	e9 00 00 00 00	 jmp	 ?OnCancel@CDialog@@MAEXXZ ; CDialog::OnCancel
?OnCancelBt@CDlgFiboSet@@IAEXXZ ENDP			; CDlgFiboSet::OnCancelBt
_TEXT	ENDS
; Function compile flags: /Ogtp
; File D:\git\src\IBK\IBK_DRFN\ProjSrc\SrcChartEx\ChartAddIn\ChartAnalysisToolAddIn\AnalysisTool\DlgFiboSet.cpp
; File C:\Program Files (x86)\Microsoft Visual Studio\2019\Community\VC\Tools\MSVC\14.29.30133\atlmfc\include\atltime.h
; File D:\git\src\IBK\IBK_DRFN\ProjSrc\SrcChartEx\ChartAddIn\ChartAnalysisToolAddIn\AnalysisTool\DlgFiboSet.cpp
; File C:\Program Files (x86)\Microsoft Visual Studio\2019\Community\VC\Tools\MSVC\14.29.30133\atlmfc\include\atltime.h
; File D:\git\src\IBK\IBK_DRFN\ProjSrc\SrcChartEx\ChartAddIn\ChartAnalysisToolAddIn\AnalysisTool\DlgFiboSet.cpp
;	COMDAT ?OnDatetimechangeDatetimepickerXdate3@CDlgFiboSet@@IAEXPAUtagNMHDR@@PAJ@Z
_TEXT	SEGMENT
_pResult$GSCopy$1$ = -148				; size = 4
$T2 = -144						; size = 8
_this$GSCopy$1$ = -140					; size = 4
_xTime$ = -136						; size = 8
_strXDate$ = -128					; size = 4
_ptmTemp$3 = -124					; size = 36
_ptmTemp$4 = -88					; size = 36
_ptmTemp$5 = -52					; size = 36
__$ArrayPad$ = -16					; size = 4
__$EHRec$ = -12						; size = 12
_pNMHDR$ = 8						; size = 4
_pResult$ = 12						; size = 4
?OnDatetimechangeDatetimepickerXdate3@CDlgFiboSet@@IAEXPAUtagNMHDR@@PAJ@Z PROC ; CDlgFiboSet::OnDatetimechangeDatetimepickerXdate3, COMDAT
; _this$ = ecx

; 1360 : {

  00000	55		 push	 ebp
  00001	8b ec		 mov	 ebp, esp
  00003	6a ff		 push	 -1
  00005	68 00 00 00 00	 push	 __ehhandler$?OnDatetimechangeDatetimepickerXdate3@CDlgFiboSet@@IAEXPAUtagNMHDR@@PAJ@Z
  0000a	64 a1 00 00 00
	00		 mov	 eax, DWORD PTR fs:0
  00010	50		 push	 eax
  00011	81 ec 88 00 00
	00		 sub	 esp, 136		; 00000088H
  00017	a1 00 00 00 00	 mov	 eax, DWORD PTR ___security_cookie
  0001c	33 c5		 xor	 eax, ebp
  0001e	89 45 f0	 mov	 DWORD PTR __$ArrayPad$[ebp], eax
  00021	53		 push	 ebx
  00022	56		 push	 esi
  00023	57		 push	 edi
  00024	50		 push	 eax
  00025	8d 45 f4	 lea	 eax, DWORD PTR __$EHRec$[ebp]
  00028	64 a3 00 00 00
	00		 mov	 DWORD PTR fs:0, eax
  0002e	8b d9		 mov	 ebx, ecx
  00030	89 9d 74 ff ff
	ff		 mov	 DWORD PTR _this$GSCopy$1$[ebp], ebx
  00036	8b 45 0c	 mov	 eax, DWORD PTR _pResult$[ebp]

; 1361 : 	CString strXDate;

  00039	8d 4d 80	 lea	 ecx, DWORD PTR _strXDate$[ebp]
  0003c	89 85 6c ff ff
	ff		 mov	 DWORD PTR _pResult$GSCopy$1$[ebp], eax
  00042	ff 15 00 00 00
	00		 call	 DWORD PTR __imp_??0?$CStringT@DV?$StrTraitMFC_DLL@DV?$ChTraitsCRT@D@ATL@@@@@ATL@@QAE@XZ

; 1363 : 	m_ctrlXDateTime3.GetTime(xTime);

  00048	8d 85 78 ff ff
	ff		 lea	 eax, DWORD PTR _xTime$[ebp]
  0004e	c7 45 fc 00 00
	00 00		 mov	 DWORD PTR __$EHRec$[ebp+8], 0
  00055	0f 57 c0	 xorps	 xmm0, xmm0
  00058	8d 8b 50 0b 00
	00		 lea	 ecx, DWORD PTR [ebx+2896]
  0005e	50		 push	 eax
; File C:\Program Files (x86)\Microsoft Visual Studio\2019\Community\VC\Tools\MSVC\14.29.30133\atlmfc\include\atltime.h

; 412  : 	m_time(0)

  0005f	66 0f 13 85 78
	ff ff ff	 movlpd	 QWORD PTR _xTime$[ebp], xmm0
; File D:\git\src\IBK\IBK_DRFN\ProjSrc\SrcChartEx\ChartAddIn\ChartAnalysisToolAddIn\AnalysisTool\DlgFiboSet.cpp

; 1363 : 	m_ctrlXDateTime3.GetTime(xTime);

  00067	e8 00 00 00 00	 call	 ?GetTime@CDateTimeCtrl@@QBEKAAVCTime@ATL@@@Z ; CDateTimeCtrl::GetTime
; File C:\Program Files (x86)\Microsoft Visual Studio\2019\Community\VC\Tools\MSVC\14.29.30133\atlmfc\include\atltime.h

; 614  : 		errno_t err = _localtime64_s(&ptmTemp, &m_time);

  0006c	8b 3d 00 00 00
	00		 mov	 edi, DWORD PTR __imp___localtime64_s
  00072	8d 85 78 ff ff
	ff		 lea	 eax, DWORD PTR _xTime$[ebp]
  00078	50		 push	 eax
  00079	8d 45 cc	 lea	 eax, DWORD PTR _ptmTemp$5[ebp]
  0007c	50		 push	 eax
  0007d	ff d7		 call	 edi

; 615  : 
; 616  : 		if (err != 0)

  0007f	33 db		 xor	 ebx, ebx
  00081	85 c0		 test	 eax, eax

; 614  : 		errno_t err = _localtime64_s(&ptmTemp, &m_time);

  00083	8d 85 78 ff ff
	ff		 lea	 eax, DWORD PTR _xTime$[ebp]

; 616  : 		if (err != 0)

  00089	0f 44 5d d8	 cmove	 ebx, DWORD PTR _ptmTemp$5[ebp+12]

; 614  : 		errno_t err = _localtime64_s(&ptmTemp, &m_time);

  0008d	50		 push	 eax
  0008e	8d 45 a8	 lea	 eax, DWORD PTR _ptmTemp$4[ebp]
  00091	50		 push	 eax
  00092	ff d7		 call	 edi
  00094	83 c4 10	 add	 esp, 16			; 00000010H

; 615  : 
; 616  : 		if (err != 0)

  00097	85 c0		 test	 eax, eax
  00099	75 06		 jne	 SHORT $LN25@OnDatetime

; 671  : 	return ptm ? ptm->tm_mon + 1 : 0;

  0009b	8b 75 b8	 mov	 esi, DWORD PTR _ptmTemp$4[ebp+16]
  0009e	46		 inc	 esi
  0009f	eb 02		 jmp	 SHORT $LN26@OnDatetime
$LN25@OnDatetime:
  000a1	33 f6		 xor	 esi, esi
$LN26@OnDatetime:

; 614  : 		errno_t err = _localtime64_s(&ptmTemp, &m_time);

  000a3	8d 85 78 ff ff
	ff		 lea	 eax, DWORD PTR _xTime$[ebp]
  000a9	50		 push	 eax
  000aa	8d 45 84	 lea	 eax, DWORD PTR _ptmTemp$3[ebp]
  000ad	50		 push	 eax
  000ae	ff d7		 call	 edi
  000b0	83 c4 08	 add	 esp, 8

; 615  : 
; 616  : 		if (err != 0)

  000b3	85 c0		 test	 eax, eax
  000b5	75 0a		 jne	 SHORT $LN41@OnDatetime

; 662  : 	return ptm ? (ptm->tm_year) + 1900 : 0 ;

  000b7	8b 45 98	 mov	 eax, DWORD PTR _ptmTemp$3[ebp+20]
  000ba	05 6c 07 00 00	 add	 eax, 1900		; 0000076cH
  000bf	eb 02		 jmp	 SHORT $LN42@OnDatetime
$LN41@OnDatetime:
  000c1	33 c0		 xor	 eax, eax
$LN42@OnDatetime:
; File D:\git\src\IBK\IBK_DRFN\ProjSrc\SrcChartEx\ChartAddIn\ChartAnalysisToolAddIn\AnalysisTool\DlgFiboSet.cpp

; 1370 : 	strXDate.Format(_T("%04d%02d%02d%s"),xTime.GetYear(),xTime.GetMonth(),xTime.GetDay(), _T("000000"));

  000c3	68 00 00 00 00	 push	 OFFSET ??_C@_06GEKNBBDK@000000@
  000c8	53		 push	 ebx
  000c9	56		 push	 esi
  000ca	50		 push	 eax
  000cb	8d 45 80	 lea	 eax, DWORD PTR _strXDate$[ebp]
  000ce	68 00 00 00 00	 push	 OFFSET ??_C@_0P@NDLMDLNF@?$CF04d?$CF02d?$CF02d?$CFs@
  000d3	50		 push	 eax
  000d4	ff 15 00 00 00
	00		 call	 DWORD PTR __imp_?Format@?$CStringT@DV?$StrTraitMFC_DLL@DV?$ChTraitsCRT@D@ATL@@@@@ATL@@QAAXPBDZZ

; 1371 : 	__int64 lMakeTime = _atoi64(strXDate);

  000da	ff 75 80	 push	 DWORD PTR _strXDate$[ebp]
  000dd	ff 15 00 00 00
	00		 call	 DWORD PTR __imp___atoi64

; 1372 : 	CCoordinate *pCoordinate = m_pElementPointList->GetAt(2);

  000e3	8b 8d 74 ff ff
	ff		 mov	 ecx, DWORD PTR _this$GSCopy$1$[ebp]
  000e9	83 c4 1c	 add	 esp, 28			; 0000001cH
  000ec	8b f8		 mov	 edi, eax
  000ee	8b f2		 mov	 esi, edx
  000f0	8b 89 88 0c 00
	00		 mov	 ecx, DWORD PTR [ecx+3208]
  000f6	6a 02		 push	 2
  000f8	e8 00 00 00 00	 call	 ?GetAt@CElementPointList@@QAEPAVCCoordinate@@H@Z ; CElementPointList::GetAt

; 1373 : 	pCoordinate->SetX((double)lMakeTime,2);

  000fd	8b d6		 mov	 edx, esi
  000ff	8b cf		 mov	 ecx, edi
  00101	8b d8		 mov	 ebx, eax
  00103	e8 00 00 00 00	 call	 __ltod3
  00108	6a 02		 push	 2
  0010a	8d 85 70 ff ff
	ff		 lea	 eax, DWORD PTR $T2[ebp]
  00110	f2 0f 11 85 70
	ff ff ff	 movsd	 QWORD PTR $T2[ebp], xmm0
  00118	50		 push	 eax
  00119	8b cb		 mov	 ecx, ebx
  0011b	e8 00 00 00 00	 call	 ?SetX@CCoordinate@@QAEXABNH@Z ; CCoordinate::SetX

; 1374 : 	// 2011.02.08 by SYS <<
; 1375 : 
; 1376 : 	*pResult = 0;

  00120	8b 85 6c ff ff
	ff		 mov	 eax, DWORD PTR _pResult$GSCopy$1$[ebp]

; 1377 : }

  00126	8d 4d 80	 lea	 ecx, DWORD PTR _strXDate$[ebp]
  00129	c7 00 00 00 00
	00		 mov	 DWORD PTR [eax], 0
  0012f	ff 15 00 00 00
	00		 call	 DWORD PTR __imp_??1?$CStringT@DV?$StrTraitMFC_DLL@DV?$ChTraitsCRT@D@ATL@@@@@ATL@@QAE@XZ
  00135	8b 4d f4	 mov	 ecx, DWORD PTR __$EHRec$[ebp]
  00138	64 89 0d 00 00
	00 00		 mov	 DWORD PTR fs:0, ecx
  0013f	59		 pop	 ecx
  00140	5f		 pop	 edi
  00141	5e		 pop	 esi
  00142	5b		 pop	 ebx
  00143	8b 4d f0	 mov	 ecx, DWORD PTR __$ArrayPad$[ebp]
  00146	33 cd		 xor	 ecx, ebp
  00148	e8 00 00 00 00	 call	 @__security_check_cookie@4
  0014d	8b e5		 mov	 esp, ebp
  0014f	5d		 pop	 ebp
  00150	c2 08 00	 ret	 8
_TEXT	ENDS
;	COMDAT text$x
text$x	SEGMENT
__unwindfunclet$?OnDatetimechangeDatetimepickerXdate3@CDlgFiboSet@@IAEXPAUtagNMHDR@@PAJ@Z$0:
  00000	8d 4d 80	 lea	 ecx, DWORD PTR _strXDate$[ebp]
  00003	ff 25 00 00 00
	00		 jmp	 DWORD PTR __imp_??1?$CStringT@DV?$StrTraitMFC_DLL@DV?$ChTraitsCRT@D@ATL@@@@@ATL@@QAE@XZ
  00009	cc		 int	 3
  0000a	cc		 int	 3
  0000b	cc		 int	 3
  0000c	cc		 int	 3
  0000d	cc		 int	 3
__ehhandler$?OnDatetimechangeDatetimepickerXdate3@CDlgFiboSet@@IAEXPAUtagNMHDR@@PAJ@Z:
  0000e	90		 npad	 1
  0000f	90		 npad	 1
  00010	8b 54 24 08	 mov	 edx, DWORD PTR [esp+8]
  00014	8d 42 0c	 lea	 eax, DWORD PTR [edx+12]
  00017	8b 8a 68 ff ff
	ff		 mov	 ecx, DWORD PTR [edx-152]
  0001d	33 c8		 xor	 ecx, eax
  0001f	e8 00 00 00 00	 call	 @__security_check_cookie@4
  00024	8b 4a fc	 mov	 ecx, DWORD PTR [edx-4]
  00027	33 c8		 xor	 ecx, eax
  00029	e8 00 00 00 00	 call	 @__security_check_cookie@4
  0002e	b8 00 00 00 00	 mov	 eax, OFFSET __ehfuncinfo$?OnDatetimechangeDatetimepickerXdate3@CDlgFiboSet@@IAEXPAUtagNMHDR@@PAJ@Z
  00033	e9 00 00 00 00	 jmp	 ___CxxFrameHandler3
text$x	ENDS
?OnDatetimechangeDatetimepickerXdate3@CDlgFiboSet@@IAEXPAUtagNMHDR@@PAJ@Z ENDP ; CDlgFiboSet::OnDatetimechangeDatetimepickerXdate3
; Function compile flags: /Ogtp
; File D:\git\src\IBK\IBK_DRFN\ProjSrc\SrcChartEx\ChartAddIn\ChartAnalysisToolAddIn\AnalysisTool\DlgFiboSet.cpp
; File C:\Program Files (x86)\Microsoft Visual Studio\2019\Community\VC\Tools\MSVC\14.29.30133\atlmfc\include\atltime.h
; File D:\git\src\IBK\IBK_DRFN\ProjSrc\SrcChartEx\ChartAddIn\ChartAnalysisToolAddIn\AnalysisTool\DlgFiboSet.cpp
; File C:\Program Files (x86)\Microsoft Visual Studio\2019\Community\VC\Tools\MSVC\14.29.30133\atlmfc\include\atltime.h
; File D:\git\src\IBK\IBK_DRFN\ProjSrc\SrcChartEx\ChartAddIn\ChartAnalysisToolAddIn\AnalysisTool\DlgFiboSet.cpp
;	COMDAT ?OnDatetimechangeDatetimepickerXdate2@CDlgFiboSet@@IAEXPAUtagNMHDR@@PAJ@Z
_TEXT	SEGMENT
_pResult$GSCopy$1$ = -148				; size = 4
$T2 = -144						; size = 8
_this$GSCopy$1$ = -140					; size = 4
_xTime$ = -136						; size = 8
_strXDate$ = -128					; size = 4
_ptmTemp$3 = -124					; size = 36
_ptmTemp$4 = -88					; size = 36
_ptmTemp$5 = -52					; size = 36
__$ArrayPad$ = -16					; size = 4
__$EHRec$ = -12						; size = 12
_pNMHDR$ = 8						; size = 4
_pResult$ = 12						; size = 4
?OnDatetimechangeDatetimepickerXdate2@CDlgFiboSet@@IAEXPAUtagNMHDR@@PAJ@Z PROC ; CDlgFiboSet::OnDatetimechangeDatetimepickerXdate2, COMDAT
; _this$ = ecx

; 1340 : {

  00000	55		 push	 ebp
  00001	8b ec		 mov	 ebp, esp
  00003	6a ff		 push	 -1
  00005	68 00 00 00 00	 push	 __ehhandler$?OnDatetimechangeDatetimepickerXdate2@CDlgFiboSet@@IAEXPAUtagNMHDR@@PAJ@Z
  0000a	64 a1 00 00 00
	00		 mov	 eax, DWORD PTR fs:0
  00010	50		 push	 eax
  00011	81 ec 88 00 00
	00		 sub	 esp, 136		; 00000088H
  00017	a1 00 00 00 00	 mov	 eax, DWORD PTR ___security_cookie
  0001c	33 c5		 xor	 eax, ebp
  0001e	89 45 f0	 mov	 DWORD PTR __$ArrayPad$[ebp], eax
  00021	53		 push	 ebx
  00022	56		 push	 esi
  00023	57		 push	 edi
  00024	50		 push	 eax
  00025	8d 45 f4	 lea	 eax, DWORD PTR __$EHRec$[ebp]
  00028	64 a3 00 00 00
	00		 mov	 DWORD PTR fs:0, eax
  0002e	8b d9		 mov	 ebx, ecx
  00030	89 9d 74 ff ff
	ff		 mov	 DWORD PTR _this$GSCopy$1$[ebp], ebx
  00036	8b 45 0c	 mov	 eax, DWORD PTR _pResult$[ebp]

; 1341 : 	CString strXDate;

  00039	8d 4d 80	 lea	 ecx, DWORD PTR _strXDate$[ebp]
  0003c	89 85 6c ff ff
	ff		 mov	 DWORD PTR _pResult$GSCopy$1$[ebp], eax
  00042	ff 15 00 00 00
	00		 call	 DWORD PTR __imp_??0?$CStringT@DV?$StrTraitMFC_DLL@DV?$ChTraitsCRT@D@ATL@@@@@ATL@@QAE@XZ

; 1343 : 	m_ctrlXDateTime2.GetTime(xTime);

  00048	8d 85 78 ff ff
	ff		 lea	 eax, DWORD PTR _xTime$[ebp]
  0004e	c7 45 fc 00 00
	00 00		 mov	 DWORD PTR __$EHRec$[ebp+8], 0
  00055	0f 57 c0	 xorps	 xmm0, xmm0
  00058	8d 8b d0 0a 00
	00		 lea	 ecx, DWORD PTR [ebx+2768]
  0005e	50		 push	 eax
; File C:\Program Files (x86)\Microsoft Visual Studio\2019\Community\VC\Tools\MSVC\14.29.30133\atlmfc\include\atltime.h

; 412  : 	m_time(0)

  0005f	66 0f 13 85 78
	ff ff ff	 movlpd	 QWORD PTR _xTime$[ebp], xmm0
; File D:\git\src\IBK\IBK_DRFN\ProjSrc\SrcChartEx\ChartAddIn\ChartAnalysisToolAddIn\AnalysisTool\DlgFiboSet.cpp

; 1343 : 	m_ctrlXDateTime2.GetTime(xTime);

  00067	e8 00 00 00 00	 call	 ?GetTime@CDateTimeCtrl@@QBEKAAVCTime@ATL@@@Z ; CDateTimeCtrl::GetTime
; File C:\Program Files (x86)\Microsoft Visual Studio\2019\Community\VC\Tools\MSVC\14.29.30133\atlmfc\include\atltime.h

; 614  : 		errno_t err = _localtime64_s(&ptmTemp, &m_time);

  0006c	8b 3d 00 00 00
	00		 mov	 edi, DWORD PTR __imp___localtime64_s
  00072	8d 85 78 ff ff
	ff		 lea	 eax, DWORD PTR _xTime$[ebp]
  00078	50		 push	 eax
  00079	8d 45 cc	 lea	 eax, DWORD PTR _ptmTemp$5[ebp]
  0007c	50		 push	 eax
  0007d	ff d7		 call	 edi

; 615  : 
; 616  : 		if (err != 0)

  0007f	33 db		 xor	 ebx, ebx
  00081	85 c0		 test	 eax, eax

; 614  : 		errno_t err = _localtime64_s(&ptmTemp, &m_time);

  00083	8d 85 78 ff ff
	ff		 lea	 eax, DWORD PTR _xTime$[ebp]

; 616  : 		if (err != 0)

  00089	0f 44 5d d8	 cmove	 ebx, DWORD PTR _ptmTemp$5[ebp+12]

; 614  : 		errno_t err = _localtime64_s(&ptmTemp, &m_time);

  0008d	50		 push	 eax
  0008e	8d 45 a8	 lea	 eax, DWORD PTR _ptmTemp$4[ebp]
  00091	50		 push	 eax
  00092	ff d7		 call	 edi
  00094	83 c4 10	 add	 esp, 16			; 00000010H

; 615  : 
; 616  : 		if (err != 0)

  00097	85 c0		 test	 eax, eax
  00099	75 06		 jne	 SHORT $LN25@OnDatetime

; 671  : 	return ptm ? ptm->tm_mon + 1 : 0;

  0009b	8b 75 b8	 mov	 esi, DWORD PTR _ptmTemp$4[ebp+16]
  0009e	46		 inc	 esi
  0009f	eb 02		 jmp	 SHORT $LN26@OnDatetime
$LN25@OnDatetime:
  000a1	33 f6		 xor	 esi, esi
$LN26@OnDatetime:

; 614  : 		errno_t err = _localtime64_s(&ptmTemp, &m_time);

  000a3	8d 85 78 ff ff
	ff		 lea	 eax, DWORD PTR _xTime$[ebp]
  000a9	50		 push	 eax
  000aa	8d 45 84	 lea	 eax, DWORD PTR _ptmTemp$3[ebp]
  000ad	50		 push	 eax
  000ae	ff d7		 call	 edi
  000b0	83 c4 08	 add	 esp, 8

; 615  : 
; 616  : 		if (err != 0)

  000b3	85 c0		 test	 eax, eax
  000b5	75 0a		 jne	 SHORT $LN41@OnDatetime

; 662  : 	return ptm ? (ptm->tm_year) + 1900 : 0 ;

  000b7	8b 45 98	 mov	 eax, DWORD PTR _ptmTemp$3[ebp+20]
  000ba	05 6c 07 00 00	 add	 eax, 1900		; 0000076cH
  000bf	eb 02		 jmp	 SHORT $LN42@OnDatetime
$LN41@OnDatetime:
  000c1	33 c0		 xor	 eax, eax
$LN42@OnDatetime:
; File D:\git\src\IBK\IBK_DRFN\ProjSrc\SrcChartEx\ChartAddIn\ChartAnalysisToolAddIn\AnalysisTool\DlgFiboSet.cpp

; 1350 : 	strXDate.Format(_T("%04d%02d%02d%s"),xTime.GetYear(),xTime.GetMonth(),xTime.GetDay(), _T("000000"));

  000c3	68 00 00 00 00	 push	 OFFSET ??_C@_06GEKNBBDK@000000@
  000c8	53		 push	 ebx
  000c9	56		 push	 esi
  000ca	50		 push	 eax
  000cb	8d 45 80	 lea	 eax, DWORD PTR _strXDate$[ebp]
  000ce	68 00 00 00 00	 push	 OFFSET ??_C@_0P@NDLMDLNF@?$CF04d?$CF02d?$CF02d?$CFs@
  000d3	50		 push	 eax
  000d4	ff 15 00 00 00
	00		 call	 DWORD PTR __imp_?Format@?$CStringT@DV?$StrTraitMFC_DLL@DV?$ChTraitsCRT@D@ATL@@@@@ATL@@QAAXPBDZZ

; 1351 : 	__int64 lMakeTime = _atoi64(strXDate);

  000da	ff 75 80	 push	 DWORD PTR _strXDate$[ebp]
  000dd	ff 15 00 00 00
	00		 call	 DWORD PTR __imp___atoi64

; 1352 : 	CCoordinate *pCoordinate = m_pElementPointList->GetAt(1);

  000e3	8b 8d 74 ff ff
	ff		 mov	 ecx, DWORD PTR _this$GSCopy$1$[ebp]
  000e9	83 c4 1c	 add	 esp, 28			; 0000001cH
  000ec	8b f8		 mov	 edi, eax
  000ee	8b f2		 mov	 esi, edx
  000f0	8b 89 88 0c 00
	00		 mov	 ecx, DWORD PTR [ecx+3208]
  000f6	6a 01		 push	 1
  000f8	e8 00 00 00 00	 call	 ?GetAt@CElementPointList@@QAEPAVCCoordinate@@H@Z ; CElementPointList::GetAt

; 1353 : 	pCoordinate->SetX((double)lMakeTime,1);

  000fd	8b d6		 mov	 edx, esi
  000ff	8b cf		 mov	 ecx, edi
  00101	8b d8		 mov	 ebx, eax
  00103	e8 00 00 00 00	 call	 __ltod3
  00108	6a 01		 push	 1
  0010a	8d 85 70 ff ff
	ff		 lea	 eax, DWORD PTR $T2[ebp]
  00110	f2 0f 11 85 70
	ff ff ff	 movsd	 QWORD PTR $T2[ebp], xmm0
  00118	50		 push	 eax
  00119	8b cb		 mov	 ecx, ebx
  0011b	e8 00 00 00 00	 call	 ?SetX@CCoordinate@@QAEXABNH@Z ; CCoordinate::SetX

; 1354 : 	// 2011.02.08 by SYS <<
; 1355 : 
; 1356 : 	*pResult = 0;

  00120	8b 85 6c ff ff
	ff		 mov	 eax, DWORD PTR _pResult$GSCopy$1$[ebp]

; 1357 : }

  00126	8d 4d 80	 lea	 ecx, DWORD PTR _strXDate$[ebp]
  00129	c7 00 00 00 00
	00		 mov	 DWORD PTR [eax], 0
  0012f	ff 15 00 00 00
	00		 call	 DWORD PTR __imp_??1?$CStringT@DV?$StrTraitMFC_DLL@DV?$ChTraitsCRT@D@ATL@@@@@ATL@@QAE@XZ
  00135	8b 4d f4	 mov	 ecx, DWORD PTR __$EHRec$[ebp]
  00138	64 89 0d 00 00
	00 00		 mov	 DWORD PTR fs:0, ecx
  0013f	59		 pop	 ecx
  00140	5f		 pop	 edi
  00141	5e		 pop	 esi
  00142	5b		 pop	 ebx
  00143	8b 4d f0	 mov	 ecx, DWORD PTR __$ArrayPad$[ebp]
  00146	33 cd		 xor	 ecx, ebp
  00148	e8 00 00 00 00	 call	 @__security_check_cookie@4
  0014d	8b e5		 mov	 esp, ebp
  0014f	5d		 pop	 ebp
  00150	c2 08 00	 ret	 8
_TEXT	ENDS
;	COMDAT text$x
text$x	SEGMENT
__unwindfunclet$?OnDatetimechangeDatetimepickerXdate2@CDlgFiboSet@@IAEXPAUtagNMHDR@@PAJ@Z$0:
  00000	8d 4d 80	 lea	 ecx, DWORD PTR _strXDate$[ebp]
  00003	ff 25 00 00 00
	00		 jmp	 DWORD PTR __imp_??1?$CStringT@DV?$StrTraitMFC_DLL@DV?$ChTraitsCRT@D@ATL@@@@@ATL@@QAE@XZ
  00009	cc		 int	 3
  0000a	cc		 int	 3
  0000b	cc		 int	 3
  0000c	cc		 int	 3
  0000d	cc		 int	 3
__ehhandler$?OnDatetimechangeDatetimepickerXdate2@CDlgFiboSet@@IAEXPAUtagNMHDR@@PAJ@Z:
  0000e	90		 npad	 1
  0000f	90		 npad	 1
  00010	8b 54 24 08	 mov	 edx, DWORD PTR [esp+8]
  00014	8d 42 0c	 lea	 eax, DWORD PTR [edx+12]
  00017	8b 8a 68 ff ff
	ff		 mov	 ecx, DWORD PTR [edx-152]
  0001d	33 c8		 xor	 ecx, eax
  0001f	e8 00 00 00 00	 call	 @__security_check_cookie@4
  00024	8b 4a fc	 mov	 ecx, DWORD PTR [edx-4]
  00027	33 c8		 xor	 ecx, eax
  00029	e8 00 00 00 00	 call	 @__security_check_cookie@4
  0002e	b8 00 00 00 00	 mov	 eax, OFFSET __ehfuncinfo$?OnDatetimechangeDatetimepickerXdate2@CDlgFiboSet@@IAEXPAUtagNMHDR@@PAJ@Z
  00033	e9 00 00 00 00	 jmp	 ___CxxFrameHandler3
text$x	ENDS
?OnDatetimechangeDatetimepickerXdate2@CDlgFiboSet@@IAEXPAUtagNMHDR@@PAJ@Z ENDP ; CDlgFiboSet::OnDatetimechangeDatetimepickerXdate2
; Function compile flags: /Ogtp
; File D:\git\src\IBK\IBK_DRFN\ProjSrc\SrcChartEx\ChartAddIn\ChartAnalysisToolAddIn\AnalysisTool\DlgFiboSet.cpp
; File C:\Program Files (x86)\Microsoft Visual Studio\2019\Community\VC\Tools\MSVC\14.29.30133\atlmfc\include\atltime.h
; File D:\git\src\IBK\IBK_DRFN\ProjSrc\SrcChartEx\ChartAddIn\ChartAnalysisToolAddIn\AnalysisTool\DlgFiboSet.cpp
; File C:\Program Files (x86)\Microsoft Visual Studio\2019\Community\VC\Tools\MSVC\14.29.30133\atlmfc\include\atltime.h
; File D:\git\src\IBK\IBK_DRFN\ProjSrc\SrcChartEx\ChartAddIn\ChartAnalysisToolAddIn\AnalysisTool\DlgFiboSet.cpp
;	COMDAT ?OnDatetimechangeDatetimepickerXdate1@CDlgFiboSet@@IAEXPAUtagNMHDR@@PAJ@Z
_TEXT	SEGMENT
_pResult$GSCopy$1$ = -148				; size = 4
$T2 = -144						; size = 8
_this$GSCopy$1$ = -140					; size = 4
_xTime$ = -136						; size = 8
_strXDate$ = -128					; size = 4
_ptmTemp$3 = -124					; size = 36
_ptmTemp$4 = -88					; size = 36
_ptmTemp$5 = -52					; size = 36
__$ArrayPad$ = -16					; size = 4
__$EHRec$ = -12						; size = 12
_pNMHDR$ = 8						; size = 4
_pResult$ = 12						; size = 4
?OnDatetimechangeDatetimepickerXdate1@CDlgFiboSet@@IAEXPAUtagNMHDR@@PAJ@Z PROC ; CDlgFiboSet::OnDatetimechangeDatetimepickerXdate1, COMDAT
; _this$ = ecx

; 1320 : {

  00000	55		 push	 ebp
  00001	8b ec		 mov	 ebp, esp
  00003	6a ff		 push	 -1
  00005	68 00 00 00 00	 push	 __ehhandler$?OnDatetimechangeDatetimepickerXdate1@CDlgFiboSet@@IAEXPAUtagNMHDR@@PAJ@Z
  0000a	64 a1 00 00 00
	00		 mov	 eax, DWORD PTR fs:0
  00010	50		 push	 eax
  00011	81 ec 88 00 00
	00		 sub	 esp, 136		; 00000088H
  00017	a1 00 00 00 00	 mov	 eax, DWORD PTR ___security_cookie
  0001c	33 c5		 xor	 eax, ebp
  0001e	89 45 f0	 mov	 DWORD PTR __$ArrayPad$[ebp], eax
  00021	53		 push	 ebx
  00022	56		 push	 esi
  00023	57		 push	 edi
  00024	50		 push	 eax
  00025	8d 45 f4	 lea	 eax, DWORD PTR __$EHRec$[ebp]
  00028	64 a3 00 00 00
	00		 mov	 DWORD PTR fs:0, eax
  0002e	8b d9		 mov	 ebx, ecx
  00030	89 9d 74 ff ff
	ff		 mov	 DWORD PTR _this$GSCopy$1$[ebp], ebx
  00036	8b 45 0c	 mov	 eax, DWORD PTR _pResult$[ebp]

; 1321 : 	CString strXDate;

  00039	8d 4d 80	 lea	 ecx, DWORD PTR _strXDate$[ebp]
  0003c	89 85 6c ff ff
	ff		 mov	 DWORD PTR _pResult$GSCopy$1$[ebp], eax
  00042	ff 15 00 00 00
	00		 call	 DWORD PTR __imp_??0?$CStringT@DV?$StrTraitMFC_DLL@DV?$ChTraitsCRT@D@ATL@@@@@ATL@@QAE@XZ

; 1323 : 	m_ctrlXDateTime1.GetTime(xTime);

  00048	8d 85 78 ff ff
	ff		 lea	 eax, DWORD PTR _xTime$[ebp]
  0004e	c7 45 fc 00 00
	00 00		 mov	 DWORD PTR __$EHRec$[ebp+8], 0
  00055	0f 57 c0	 xorps	 xmm0, xmm0
  00058	8d 8b 50 0a 00
	00		 lea	 ecx, DWORD PTR [ebx+2640]
  0005e	50		 push	 eax
; File C:\Program Files (x86)\Microsoft Visual Studio\2019\Community\VC\Tools\MSVC\14.29.30133\atlmfc\include\atltime.h

; 412  : 	m_time(0)

  0005f	66 0f 13 85 78
	ff ff ff	 movlpd	 QWORD PTR _xTime$[ebp], xmm0
; File D:\git\src\IBK\IBK_DRFN\ProjSrc\SrcChartEx\ChartAddIn\ChartAnalysisToolAddIn\AnalysisTool\DlgFiboSet.cpp

; 1323 : 	m_ctrlXDateTime1.GetTime(xTime);

  00067	e8 00 00 00 00	 call	 ?GetTime@CDateTimeCtrl@@QBEKAAVCTime@ATL@@@Z ; CDateTimeCtrl::GetTime
; File C:\Program Files (x86)\Microsoft Visual Studio\2019\Community\VC\Tools\MSVC\14.29.30133\atlmfc\include\atltime.h

; 614  : 		errno_t err = _localtime64_s(&ptmTemp, &m_time);

  0006c	8b 3d 00 00 00
	00		 mov	 edi, DWORD PTR __imp___localtime64_s
  00072	8d 85 78 ff ff
	ff		 lea	 eax, DWORD PTR _xTime$[ebp]
  00078	50		 push	 eax
  00079	8d 45 cc	 lea	 eax, DWORD PTR _ptmTemp$5[ebp]
  0007c	50		 push	 eax
  0007d	ff d7		 call	 edi

; 615  : 
; 616  : 		if (err != 0)

  0007f	33 db		 xor	 ebx, ebx
  00081	85 c0		 test	 eax, eax

; 614  : 		errno_t err = _localtime64_s(&ptmTemp, &m_time);

  00083	8d 85 78 ff ff
	ff		 lea	 eax, DWORD PTR _xTime$[ebp]

; 616  : 		if (err != 0)

  00089	0f 44 5d d8	 cmove	 ebx, DWORD PTR _ptmTemp$5[ebp+12]

; 614  : 		errno_t err = _localtime64_s(&ptmTemp, &m_time);

  0008d	50		 push	 eax
  0008e	8d 45 a8	 lea	 eax, DWORD PTR _ptmTemp$4[ebp]
  00091	50		 push	 eax
  00092	ff d7		 call	 edi
  00094	83 c4 10	 add	 esp, 16			; 00000010H

; 615  : 
; 616  : 		if (err != 0)

  00097	85 c0		 test	 eax, eax
  00099	75 06		 jne	 SHORT $LN25@OnDatetime

; 671  : 	return ptm ? ptm->tm_mon + 1 : 0;

  0009b	8b 75 b8	 mov	 esi, DWORD PTR _ptmTemp$4[ebp+16]
  0009e	46		 inc	 esi
  0009f	eb 02		 jmp	 SHORT $LN26@OnDatetime
$LN25@OnDatetime:
  000a1	33 f6		 xor	 esi, esi
$LN26@OnDatetime:

; 614  : 		errno_t err = _localtime64_s(&ptmTemp, &m_time);

  000a3	8d 85 78 ff ff
	ff		 lea	 eax, DWORD PTR _xTime$[ebp]
  000a9	50		 push	 eax
  000aa	8d 45 84	 lea	 eax, DWORD PTR _ptmTemp$3[ebp]
  000ad	50		 push	 eax
  000ae	ff d7		 call	 edi
  000b0	83 c4 08	 add	 esp, 8

; 615  : 
; 616  : 		if (err != 0)

  000b3	85 c0		 test	 eax, eax
  000b5	75 0a		 jne	 SHORT $LN41@OnDatetime

; 662  : 	return ptm ? (ptm->tm_year) + 1900 : 0 ;

  000b7	8b 45 98	 mov	 eax, DWORD PTR _ptmTemp$3[ebp+20]
  000ba	05 6c 07 00 00	 add	 eax, 1900		; 0000076cH
  000bf	eb 02		 jmp	 SHORT $LN42@OnDatetime
$LN41@OnDatetime:
  000c1	33 c0		 xor	 eax, eax
$LN42@OnDatetime:
; File D:\git\src\IBK\IBK_DRFN\ProjSrc\SrcChartEx\ChartAddIn\ChartAnalysisToolAddIn\AnalysisTool\DlgFiboSet.cpp

; 1330 : 	strXDate.Format(_T("%04d%02d%02d%s"),xTime.GetYear(),xTime.GetMonth(),xTime.GetDay(), _T("000000"));

  000c3	68 00 00 00 00	 push	 OFFSET ??_C@_06GEKNBBDK@000000@
  000c8	53		 push	 ebx
  000c9	56		 push	 esi
  000ca	50		 push	 eax
  000cb	8d 45 80	 lea	 eax, DWORD PTR _strXDate$[ebp]
  000ce	68 00 00 00 00	 push	 OFFSET ??_C@_0P@NDLMDLNF@?$CF04d?$CF02d?$CF02d?$CFs@
  000d3	50		 push	 eax
  000d4	ff 15 00 00 00
	00		 call	 DWORD PTR __imp_?Format@?$CStringT@DV?$StrTraitMFC_DLL@DV?$ChTraitsCRT@D@ATL@@@@@ATL@@QAAXPBDZZ

; 1331 : 	__int64 lMakeTime = _atoi64(strXDate);

  000da	ff 75 80	 push	 DWORD PTR _strXDate$[ebp]
  000dd	ff 15 00 00 00
	00		 call	 DWORD PTR __imp___atoi64

; 1332 : 	CCoordinate *pCoordinate = m_pElementPointList->GetAt(0);

  000e3	8b 8d 74 ff ff
	ff		 mov	 ecx, DWORD PTR _this$GSCopy$1$[ebp]
  000e9	83 c4 1c	 add	 esp, 28			; 0000001cH
  000ec	8b f8		 mov	 edi, eax
  000ee	8b f2		 mov	 esi, edx
  000f0	8b 89 88 0c 00
	00		 mov	 ecx, DWORD PTR [ecx+3208]
  000f6	6a 00		 push	 0
  000f8	e8 00 00 00 00	 call	 ?GetAt@CElementPointList@@QAEPAVCCoordinate@@H@Z ; CElementPointList::GetAt

; 1333 : 	pCoordinate->SetX((double)lMakeTime,0);

  000fd	8b d6		 mov	 edx, esi
  000ff	8b cf		 mov	 ecx, edi
  00101	8b d8		 mov	 ebx, eax
  00103	e8 00 00 00 00	 call	 __ltod3
  00108	6a 00		 push	 0
  0010a	8d 85 70 ff ff
	ff		 lea	 eax, DWORD PTR $T2[ebp]
  00110	f2 0f 11 85 70
	ff ff ff	 movsd	 QWORD PTR $T2[ebp], xmm0
  00118	50		 push	 eax
  00119	8b cb		 mov	 ecx, ebx
  0011b	e8 00 00 00 00	 call	 ?SetX@CCoordinate@@QAEXABNH@Z ; CCoordinate::SetX

; 1334 : 	// 2011.02.08 by SYS <<
; 1335 : 
; 1336 : 	*pResult = 0;

  00120	8b 85 6c ff ff
	ff		 mov	 eax, DWORD PTR _pResult$GSCopy$1$[ebp]

; 1337 : }

  00126	8d 4d 80	 lea	 ecx, DWORD PTR _strXDate$[ebp]
  00129	c7 00 00 00 00
	00		 mov	 DWORD PTR [eax], 0
  0012f	ff 15 00 00 00
	00		 call	 DWORD PTR __imp_??1?$CStringT@DV?$StrTraitMFC_DLL@DV?$ChTraitsCRT@D@ATL@@@@@ATL@@QAE@XZ
  00135	8b 4d f4	 mov	 ecx, DWORD PTR __$EHRec$[ebp]
  00138	64 89 0d 00 00
	00 00		 mov	 DWORD PTR fs:0, ecx
  0013f	59		 pop	 ecx
  00140	5f		 pop	 edi
  00141	5e		 pop	 esi
  00142	5b		 pop	 ebx
  00143	8b 4d f0	 mov	 ecx, DWORD PTR __$ArrayPad$[ebp]
  00146	33 cd		 xor	 ecx, ebp
  00148	e8 00 00 00 00	 call	 @__security_check_cookie@4
  0014d	8b e5		 mov	 esp, ebp
  0014f	5d		 pop	 ebp
  00150	c2 08 00	 ret	 8
_TEXT	ENDS
;	COMDAT text$x
text$x	SEGMENT
__unwindfunclet$?OnDatetimechangeDatetimepickerXdate1@CDlgFiboSet@@IAEXPAUtagNMHDR@@PAJ@Z$0:
  00000	8d 4d 80	 lea	 ecx, DWORD PTR _strXDate$[ebp]
  00003	ff 25 00 00 00
	00		 jmp	 DWORD PTR __imp_??1?$CStringT@DV?$StrTraitMFC_DLL@DV?$ChTraitsCRT@D@ATL@@@@@ATL@@QAE@XZ
  00009	cc		 int	 3
  0000a	cc		 int	 3
  0000b	cc		 int	 3
  0000c	cc		 int	 3
  0000d	cc		 int	 3
__ehhandler$?OnDatetimechangeDatetimepickerXdate1@CDlgFiboSet@@IAEXPAUtagNMHDR@@PAJ@Z:
  0000e	90		 npad	 1
  0000f	90		 npad	 1
  00010	8b 54 24 08	 mov	 edx, DWORD PTR [esp+8]
  00014	8d 42 0c	 lea	 eax, DWORD PTR [edx+12]
  00017	8b 8a 68 ff ff
	ff		 mov	 ecx, DWORD PTR [edx-152]
  0001d	33 c8		 xor	 ecx, eax
  0001f	e8 00 00 00 00	 call	 @__security_check_cookie@4
  00024	8b 4a fc	 mov	 ecx, DWORD PTR [edx-4]
  00027	33 c8		 xor	 ecx, eax
  00029	e8 00 00 00 00	 call	 @__security_check_cookie@4
  0002e	b8 00 00 00 00	 mov	 eax, OFFSET __ehfuncinfo$?OnDatetimechangeDatetimepickerXdate1@CDlgFiboSet@@IAEXPAUtagNMHDR@@PAJ@Z
  00033	e9 00 00 00 00	 jmp	 ___CxxFrameHandler3
text$x	ENDS
?OnDatetimechangeDatetimepickerXdate1@CDlgFiboSet@@IAEXPAUtagNMHDR@@PAJ@Z ENDP ; CDlgFiboSet::OnDatetimechangeDatetimepickerXdate1
; Function compile flags: /Ogtp
; File D:\git\src\IBK\IBK_DRFN\ProjSrc\SrcChartEx\ChartAddIn\ChartAnalysisToolAddIn\AnalysisTool\DlgFiboSet.cpp
; File C:\Program Files (x86)\Microsoft Visual Studio\2019\Community\VC\Tools\MSVC\14.29.30133\atlmfc\include\afxwin2.inl
; File D:\git\src\IBK\IBK_DRFN\ProjSrc\SrcChartEx\ChartAddIn\ChartAnalysisToolAddIn\AnalysisTool\DlgFiboSet.cpp
; File C:\Program Files (x86)\Microsoft Visual Studio\2019\Community\VC\Tools\MSVC\14.29.30133\atlmfc\include\afxwin2.inl
; File D:\git\src\IBK\IBK_DRFN\ProjSrc\SrcChartEx\ChartAddIn\ChartAnalysisToolAddIn\AnalysisTool\DlgFiboSet.cpp
; File C:\Program Files (x86)\Microsoft Visual Studio\2019\Community\VC\Tools\MSVC\14.29.30133\atlmfc\include\afxwin1.inl
; File D:\git\src\IBK\IBK_DRFN\ProjSrc\SrcChartEx\ChartAddIn\ChartAnalysisToolAddIn\Include_Chart\Dll_Load\IMetaTable.h
; File C:\Program Files (x86)\Microsoft Visual Studio\2019\Community\VC\Tools\MSVC\14.29.30133\atlmfc\include\afxwin1.inl
; File D:\git\src\IBK\IBK_DRFN\ProjSrc\SrcChartEx\ChartAddIn\ChartAnalysisToolAddIn\AnalysisTool\DlgFiboSet.cpp
; File C:\Program Files (x86)\Microsoft Visual Studio\2019\Community\VC\Tools\MSVC\14.29.30133\atlmfc\include\afxwin2.inl
; File D:\git\src\IBK\IBK_DRFN\ProjSrc\SrcChartEx\ChartAddIn\ChartAnalysisToolAddIn\AnalysisTool\DlgFiboSet.cpp
; File D:\git\src\IBK\IBK_DRFN\ProjSrc\SrcChartEx\ChartAddIn\ChartAnalysisToolAddIn\Include_Chart\Dll_Load\IMetaTable.h
; File C:\Program Files (x86)\Microsoft Visual Studio\2019\Community\VC\Tools\MSVC\14.29.30133\atlmfc\include\afxwin1.inl
; File D:\git\src\IBK\IBK_DRFN\ProjSrc\SrcChartEx\ChartAddIn\ChartAnalysisToolAddIn\AnalysisTool\DlgFiboSet.cpp
;	COMDAT ?OnSelchangeStyle@CDlgFiboSet@@IAEXXZ
_TEXT	SEGMENT
___mlrs__$2 = -20					; size = 4
_strNotice$3 = -16					; size = 4
__$EHRec$ = -12						; size = 12
?OnSelchangeStyle@CDlgFiboSet@@IAEXXZ PROC		; CDlgFiboSet::OnSelchangeStyle, COMDAT
; _this$ = ecx

; 1505 : {

  00000	55		 push	 ebp
  00001	8b ec		 mov	 ebp, esp
  00003	6a ff		 push	 -1
  00005	68 00 00 00 00	 push	 __ehhandler$?OnSelchangeStyle@CDlgFiboSet@@IAEXXZ
  0000a	64 a1 00 00 00
	00		 mov	 eax, DWORD PTR fs:0
  00010	50		 push	 eax
  00011	83 ec 08	 sub	 esp, 8
  00014	53		 push	 ebx
  00015	56		 push	 esi
  00016	57		 push	 edi
  00017	a1 00 00 00 00	 mov	 eax, DWORD PTR ___security_cookie
  0001c	33 c5		 xor	 eax, ebp
  0001e	50		 push	 eax
  0001f	8d 45 f4	 lea	 eax, DWORD PTR __$EHRec$[ebp]
  00022	64 a3 00 00 00
	00		 mov	 DWORD PTR fs:0, eax
  00028	8b d9		 mov	 ebx, ecx
; File C:\Program Files (x86)\Microsoft Visual Studio\2019\Community\VC\Tools\MSVC\14.29.30133\atlmfc\include\afxwin2.inl

; 765  : 	{ ASSERT(::IsWindow(m_hWnd)); return (int)::SendMessage(m_hWnd, CB_GETCURSEL, 0, 0); }

  0002a	8b 35 00 00 00
	00		 mov	 esi, DWORD PTR __imp__SendMessageA@16
  00030	6a 00		 push	 0
  00032	6a 00		 push	 0
  00034	68 47 01 00 00	 push	 327			; 00000147H
  00039	ff b3 d8 01 00
	00		 push	 DWORD PTR [ebx+472]
  0003f	ff d6		 call	 esi
  00041	6a 00		 push	 0
  00043	6a 00		 push	 0
  00045	68 47 01 00 00	 push	 327			; 00000147H
  0004a	ff b3 48 01 00
	00		 push	 DWORD PTR [ebx+328]
; File D:\git\src\IBK\IBK_DRFN\ProjSrc\SrcChartEx\ChartAddIn\ChartAnalysisToolAddIn\AnalysisTool\DlgFiboSet.cpp

; 1506 : 	int nWidth = m_ctlWidth.GetCurSel();

  00050	8b f8		 mov	 edi, eax
; File C:\Program Files (x86)\Microsoft Visual Studio\2019\Community\VC\Tools\MSVC\14.29.30133\atlmfc\include\afxwin2.inl

; 765  : 	{ ASSERT(::IsWindow(m_hWnd)); return (int)::SendMessage(m_hWnd, CB_GETCURSEL, 0, 0); }

  00052	ff d6		 call	 esi
; File D:\git\src\IBK\IBK_DRFN\ProjSrc\SrcChartEx\ChartAddIn\ChartAnalysisToolAddIn\AnalysisTool\DlgFiboSet.cpp

; 1508 : 	if(nStyle > 0 && nWidth != 0)

  00054	85 c0		 test	 eax, eax
  00056	0f 8e 8e 00 00
	00		 jle	 $LN21@OnSelchang
  0005c	85 ff		 test	 edi, edi
  0005e	0f 84 86 00 00
	00		 je	 $LN21@OnSelchang

; 1509 : 	{
; 1510 : 		ML_SET_LANGUAGE_RES();

  00064	e8 00 00 00 00	 call	 ?AfxGetStaticModuleState@@YGPAVAFX_MODULE_STATE@@XZ ; AfxGetStaticModuleState
  00069	b9 00 00 00 00	 mov	 ecx, OFFSET ?g_iMetaTable@@3VIMetaTable@@A ; g_iMetaTable
  0006e	8b 40 08	 mov	 eax, DWORD PTR [eax+8]
  00071	50		 push	 eax
  00072	ff b3 10 0d 00
	00		 push	 DWORD PTR [ebx+3344]
  00078	e8 00 00 00 00	 call	 ?LoadResourceDLL@IMetaTable@@QAEPAUHINSTANCE__@@PAUHWND__@@PAU2@@Z ; IMetaTable::LoadResourceDLL
  0007d	8b f8		 mov	 edi, eax
; File C:\Program Files (x86)\Microsoft Visual Studio\2019\Community\VC\Tools\MSVC\14.29.30133\atlmfc\include\afxwin1.inl

; 25   : 		return afxCurrentResourceHandle; }

  0007f	e8 00 00 00 00	 call	 ?AfxGetModuleState@@YGPAVAFX_MODULE_STATE@@XZ ; AfxGetModuleState
; File D:\git\src\IBK\IBK_DRFN\ProjSrc\SrcChartEx\ChartAddIn\ChartAnalysisToolAddIn\Include_Chart\Dll_Load\IMetaTable.h

; 1034 : 		m_hInstance = AfxGetResourceHandle();

  00084	8b 70 0c	 mov	 esi, DWORD PTR [eax+12]
  00087	89 75 ec	 mov	 DWORD PTR ___mlrs__$2[ebp], esi
; File C:\Program Files (x86)\Microsoft Visual Studio\2019\Community\VC\Tools\MSVC\14.29.30133\atlmfc\include\afxwin1.inl

; 27   : 	{ ASSERT(hInstResource != NULL); afxCurrentResourceHandle = hInstResource; }

  0008a	e8 00 00 00 00	 call	 ?AfxGetModuleState@@YGPAVAFX_MODULE_STATE@@XZ ; AfxGetModuleState
  0008f	89 78 0c	 mov	 DWORD PTR [eax+12], edi
; File D:\git\src\IBK\IBK_DRFN\ProjSrc\SrcChartEx\ChartAddIn\ChartAnalysisToolAddIn\AnalysisTool\DlgFiboSet.cpp

; 1512 : 		CString strNotice;

  00092	8d 4d f0	 lea	 ecx, DWORD PTR _strNotice$3[ebp]
  00095	c7 45 fc 00 00
	00 00		 mov	 DWORD PTR __$EHRec$[ebp+8], 0
  0009c	ff 15 00 00 00
	00		 call	 DWORD PTR __imp_??0?$CStringT@DV?$StrTraitMFC_DLL@DV?$ChTraitsCRT@D@ATL@@@@@ATL@@QAE@XZ

; 1513 : 		strNotice.LoadString(IDS_CHANGE_THICKNESS);

  000a2	6a 01		 push	 1
  000a4	8d 4d f0	 lea	 ecx, DWORD PTR _strNotice$3[ebp]
  000a7	c6 45 fc 01	 mov	 BYTE PTR __$EHRec$[ebp+8], 1
  000ab	ff 15 00 00 00
	00		 call	 DWORD PTR __imp_?LoadStringA@?$CStringT@DV?$StrTraitMFC_DLL@DV?$ChTraitsCRT@D@ATL@@@@@ATL@@QAEHI@Z

; 1514 : 		AfxMessageBox(strNotice);

  000b1	6a 00		 push	 0
  000b3	6a 00		 push	 0
  000b5	ff 75 f0	 push	 DWORD PTR _strNotice$3[ebp]
  000b8	e8 00 00 00 00	 call	 ?AfxMessageBox@@YGHPBDII@Z ; AfxMessageBox
; File C:\Program Files (x86)\Microsoft Visual Studio\2019\Community\VC\Tools\MSVC\14.29.30133\atlmfc\include\afxwin2.inl

; 767  : 	{ ASSERT(::IsWindow(m_hWnd)); return (int)::SendMessage(m_hWnd, CB_SETCURSEL, nSelect, 0); }

  000bd	6a 00		 push	 0
  000bf	6a 00		 push	 0
  000c1	68 4e 01 00 00	 push	 334			; 0000014eH
  000c6	ff b3 d8 01 00
	00		 push	 DWORD PTR [ebx+472]
  000cc	ff 15 00 00 00
	00		 call	 DWORD PTR __imp__SendMessageA@16
; File D:\git\src\IBK\IBK_DRFN\ProjSrc\SrcChartEx\ChartAddIn\ChartAnalysisToolAddIn\AnalysisTool\DlgFiboSet.cpp

; 1516 : 	}

  000d2	8d 4d f0	 lea	 ecx, DWORD PTR _strNotice$3[ebp]
  000d5	ff 15 00 00 00
	00		 call	 DWORD PTR __imp_??1?$CStringT@DV?$StrTraitMFC_DLL@DV?$ChTraitsCRT@D@ATL@@@@@ATL@@QAE@XZ
; File D:\git\src\IBK\IBK_DRFN\ProjSrc\SrcChartEx\ChartAddIn\ChartAnalysisToolAddIn\Include_Chart\Dll_Load\IMetaTable.h

; 1038 : 	{

  000db	c7 45 fc 02 00
	00 00		 mov	 DWORD PTR __$EHRec$[ebp+8], 2
; File C:\Program Files (x86)\Microsoft Visual Studio\2019\Community\VC\Tools\MSVC\14.29.30133\atlmfc\include\afxwin1.inl

; 27   : 	{ ASSERT(hInstResource != NULL); afxCurrentResourceHandle = hInstResource; }

  000e2	e8 00 00 00 00	 call	 ?AfxGetModuleState@@YGPAVAFX_MODULE_STATE@@XZ ; AfxGetModuleState
  000e7	89 70 0c	 mov	 DWORD PTR [eax+12], esi
$LN21@OnSelchang:
; File D:\git\src\IBK\IBK_DRFN\ProjSrc\SrcChartEx\ChartAddIn\ChartAnalysisToolAddIn\AnalysisTool\DlgFiboSet.cpp

; 1517 : }

  000ea	8b 4d f4	 mov	 ecx, DWORD PTR __$EHRec$[ebp]
  000ed	64 89 0d 00 00
	00 00		 mov	 DWORD PTR fs:0, ecx
  000f4	59		 pop	 ecx
  000f5	5f		 pop	 edi
  000f6	5e		 pop	 esi
  000f7	5b		 pop	 ebx
  000f8	8b e5		 mov	 esp, ebp
  000fa	5d		 pop	 ebp
  000fb	c3		 ret	 0
_TEXT	ENDS
;	COMDAT text$x
text$x	SEGMENT
__unwindfunclet$?OnSelchangeStyle@CDlgFiboSet@@IAEXXZ$0:
  00000	8d 4d ec	 lea	 ecx, DWORD PTR ___mlrs__$2[ebp]
  00003	e9 00 00 00 00	 jmp	 ??1CMultiLanguageResourceSetter@@QAE@XZ ; CMultiLanguageResourceSetter::~CMultiLanguageResourceSetter
__unwindfunclet$?OnSelchangeStyle@CDlgFiboSet@@IAEXXZ$1:
  00008	8d 4d f0	 lea	 ecx, DWORD PTR _strNotice$3[ebp]
  0000b	ff 25 00 00 00
	00		 jmp	 DWORD PTR __imp_??1?$CStringT@DV?$StrTraitMFC_DLL@DV?$ChTraitsCRT@D@ATL@@@@@ATL@@QAE@XZ
  00011	cc		 int	 3
  00012	cc		 int	 3
  00013	cc		 int	 3
  00014	cc		 int	 3
  00015	cc		 int	 3
__ehhandler$?OnSelchangeStyle@CDlgFiboSet@@IAEXXZ:
  00016	90		 npad	 1
  00017	90		 npad	 1
  00018	8b 54 24 08	 mov	 edx, DWORD PTR [esp+8]
  0001c	8d 42 0c	 lea	 eax, DWORD PTR [edx+12]
  0001f	8b 4a e8	 mov	 ecx, DWORD PTR [edx-24]
  00022	33 c8		 xor	 ecx, eax
  00024	e8 00 00 00 00	 call	 @__security_check_cookie@4
  00029	b8 00 00 00 00	 mov	 eax, OFFSET __ehfuncinfo$?OnSelchangeStyle@CDlgFiboSet@@IAEXXZ
  0002e	e9 00 00 00 00	 jmp	 ___CxxFrameHandler3
text$x	ENDS
?OnSelchangeStyle@CDlgFiboSet@@IAEXXZ ENDP		; CDlgFiboSet::OnSelchangeStyle
; Function compile flags: /Ogtp
; File D:\git\src\IBK\IBK_DRFN\ProjSrc\SrcChartEx\ChartAddIn\ChartAnalysisToolAddIn\AnalysisTool\DlgFiboSet.cpp
; File C:\Program Files (x86)\Microsoft Visual Studio\2019\Community\VC\Tools\MSVC\14.29.30133\atlmfc\include\afxwin2.inl
; File D:\git\src\IBK\IBK_DRFN\ProjSrc\SrcChartEx\ChartAddIn\ChartAnalysisToolAddIn\AnalysisTool\DlgFiboSet.cpp
; File C:\Program Files (x86)\Microsoft Visual Studio\2019\Community\VC\Tools\MSVC\14.29.30133\atlmfc\include\afxwin2.inl
; File D:\git\src\IBK\IBK_DRFN\ProjSrc\SrcChartEx\ChartAddIn\ChartAnalysisToolAddIn\AnalysisTool\DlgFiboSet.cpp
; File C:\Program Files (x86)\Microsoft Visual Studio\2019\Community\VC\Tools\MSVC\14.29.30133\atlmfc\include\afxwin1.inl
; File D:\git\src\IBK\IBK_DRFN\ProjSrc\SrcChartEx\ChartAddIn\ChartAnalysisToolAddIn\Include_Chart\Dll_Load\IMetaTable.h
; File C:\Program Files (x86)\Microsoft Visual Studio\2019\Community\VC\Tools\MSVC\14.29.30133\atlmfc\include\afxwin1.inl
; File D:\git\src\IBK\IBK_DRFN\ProjSrc\SrcChartEx\ChartAddIn\ChartAnalysisToolAddIn\AnalysisTool\DlgFiboSet.cpp
; File C:\Program Files (x86)\Microsoft Visual Studio\2019\Community\VC\Tools\MSVC\14.29.30133\atlmfc\include\afxwin2.inl
; File D:\git\src\IBK\IBK_DRFN\ProjSrc\SrcChartEx\ChartAddIn\ChartAnalysisToolAddIn\AnalysisTool\DlgFiboSet.cpp
; File D:\git\src\IBK\IBK_DRFN\ProjSrc\SrcChartEx\ChartAddIn\ChartAnalysisToolAddIn\Include_Chart\Dll_Load\IMetaTable.h
; File C:\Program Files (x86)\Microsoft Visual Studio\2019\Community\VC\Tools\MSVC\14.29.30133\atlmfc\include\afxwin1.inl
; File D:\git\src\IBK\IBK_DRFN\ProjSrc\SrcChartEx\ChartAddIn\ChartAnalysisToolAddIn\AnalysisTool\DlgFiboSet.cpp
;	COMDAT ?OnSelchangeWidth@CDlgFiboSet@@IAEXXZ
_TEXT	SEGMENT
___mlrs__$2 = -20					; size = 4
_strNotice$3 = -16					; size = 4
__$EHRec$ = -12						; size = 12
?OnSelchangeWidth@CDlgFiboSet@@IAEXXZ PROC		; CDlgFiboSet::OnSelchangeWidth, COMDAT
; _this$ = ecx

; 1490 : {

  00000	55		 push	 ebp
  00001	8b ec		 mov	 ebp, esp
  00003	6a ff		 push	 -1
  00005	68 00 00 00 00	 push	 __ehhandler$?OnSelchangeWidth@CDlgFiboSet@@IAEXXZ
  0000a	64 a1 00 00 00
	00		 mov	 eax, DWORD PTR fs:0
  00010	50		 push	 eax
  00011	83 ec 08	 sub	 esp, 8
  00014	53		 push	 ebx
  00015	56		 push	 esi
  00016	57		 push	 edi
  00017	a1 00 00 00 00	 mov	 eax, DWORD PTR ___security_cookie
  0001c	33 c5		 xor	 eax, ebp
  0001e	50		 push	 eax
  0001f	8d 45 f4	 lea	 eax, DWORD PTR __$EHRec$[ebp]
  00022	64 a3 00 00 00
	00		 mov	 DWORD PTR fs:0, eax
  00028	8b d9		 mov	 ebx, ecx
; File C:\Program Files (x86)\Microsoft Visual Studio\2019\Community\VC\Tools\MSVC\14.29.30133\atlmfc\include\afxwin2.inl

; 765  : 	{ ASSERT(::IsWindow(m_hWnd)); return (int)::SendMessage(m_hWnd, CB_GETCURSEL, 0, 0); }

  0002a	8b 35 00 00 00
	00		 mov	 esi, DWORD PTR __imp__SendMessageA@16
  00030	6a 00		 push	 0
  00032	6a 00		 push	 0
  00034	68 47 01 00 00	 push	 327			; 00000147H
  00039	ff b3 d8 01 00
	00		 push	 DWORD PTR [ebx+472]
  0003f	ff d6		 call	 esi
  00041	6a 00		 push	 0
  00043	6a 00		 push	 0
  00045	68 47 01 00 00	 push	 327			; 00000147H
  0004a	ff b3 48 01 00
	00		 push	 DWORD PTR [ebx+328]
; File D:\git\src\IBK\IBK_DRFN\ProjSrc\SrcChartEx\ChartAddIn\ChartAnalysisToolAddIn\AnalysisTool\DlgFiboSet.cpp

; 1491 : 	int nWidth = m_ctlWidth.GetCurSel();

  00050	8b f8		 mov	 edi, eax
; File C:\Program Files (x86)\Microsoft Visual Studio\2019\Community\VC\Tools\MSVC\14.29.30133\atlmfc\include\afxwin2.inl

; 765  : 	{ ASSERT(::IsWindow(m_hWnd)); return (int)::SendMessage(m_hWnd, CB_GETCURSEL, 0, 0); }

  00052	ff d6		 call	 esi
; File D:\git\src\IBK\IBK_DRFN\ProjSrc\SrcChartEx\ChartAddIn\ChartAnalysisToolAddIn\AnalysisTool\DlgFiboSet.cpp

; 1493 : 	if(nStyle != 0 && nWidth > 0)

  00054	85 c0		 test	 eax, eax
  00056	0f 84 8e 00 00
	00		 je	 $LN21@OnSelchang
  0005c	85 ff		 test	 edi, edi
  0005e	0f 8e 86 00 00
	00		 jle	 $LN21@OnSelchang

; 1494 : 	{
; 1495 : 		ML_SET_LANGUAGE_RES();

  00064	e8 00 00 00 00	 call	 ?AfxGetStaticModuleState@@YGPAVAFX_MODULE_STATE@@XZ ; AfxGetStaticModuleState
  00069	b9 00 00 00 00	 mov	 ecx, OFFSET ?g_iMetaTable@@3VIMetaTable@@A ; g_iMetaTable
  0006e	8b 40 08	 mov	 eax, DWORD PTR [eax+8]
  00071	50		 push	 eax
  00072	ff b3 10 0d 00
	00		 push	 DWORD PTR [ebx+3344]
  00078	e8 00 00 00 00	 call	 ?LoadResourceDLL@IMetaTable@@QAEPAUHINSTANCE__@@PAUHWND__@@PAU2@@Z ; IMetaTable::LoadResourceDLL
  0007d	8b f8		 mov	 edi, eax
; File C:\Program Files (x86)\Microsoft Visual Studio\2019\Community\VC\Tools\MSVC\14.29.30133\atlmfc\include\afxwin1.inl

; 25   : 		return afxCurrentResourceHandle; }

  0007f	e8 00 00 00 00	 call	 ?AfxGetModuleState@@YGPAVAFX_MODULE_STATE@@XZ ; AfxGetModuleState
; File D:\git\src\IBK\IBK_DRFN\ProjSrc\SrcChartEx\ChartAddIn\ChartAnalysisToolAddIn\Include_Chart\Dll_Load\IMetaTable.h

; 1034 : 		m_hInstance = AfxGetResourceHandle();

  00084	8b 70 0c	 mov	 esi, DWORD PTR [eax+12]
  00087	89 75 ec	 mov	 DWORD PTR ___mlrs__$2[ebp], esi
; File C:\Program Files (x86)\Microsoft Visual Studio\2019\Community\VC\Tools\MSVC\14.29.30133\atlmfc\include\afxwin1.inl

; 27   : 	{ ASSERT(hInstResource != NULL); afxCurrentResourceHandle = hInstResource; }

  0008a	e8 00 00 00 00	 call	 ?AfxGetModuleState@@YGPAVAFX_MODULE_STATE@@XZ ; AfxGetModuleState
  0008f	89 78 0c	 mov	 DWORD PTR [eax+12], edi
; File D:\git\src\IBK\IBK_DRFN\ProjSrc\SrcChartEx\ChartAddIn\ChartAnalysisToolAddIn\AnalysisTool\DlgFiboSet.cpp

; 1497 : 		CString strNotice;

  00092	8d 4d f0	 lea	 ecx, DWORD PTR _strNotice$3[ebp]
  00095	c7 45 fc 00 00
	00 00		 mov	 DWORD PTR __$EHRec$[ebp+8], 0
  0009c	ff 15 00 00 00
	00		 call	 DWORD PTR __imp_??0?$CStringT@DV?$StrTraitMFC_DLL@DV?$ChTraitsCRT@D@ATL@@@@@ATL@@QAE@XZ

; 1498 : 		strNotice.LoadString(IDS_CHANGE_THICKNESS);

  000a2	6a 01		 push	 1
  000a4	8d 4d f0	 lea	 ecx, DWORD PTR _strNotice$3[ebp]
  000a7	c6 45 fc 01	 mov	 BYTE PTR __$EHRec$[ebp+8], 1
  000ab	ff 15 00 00 00
	00		 call	 DWORD PTR __imp_?LoadStringA@?$CStringT@DV?$StrTraitMFC_DLL@DV?$ChTraitsCRT@D@ATL@@@@@ATL@@QAEHI@Z

; 1499 : 		AfxMessageBox(strNotice);

  000b1	6a 00		 push	 0
  000b3	6a 00		 push	 0
  000b5	ff 75 f0	 push	 DWORD PTR _strNotice$3[ebp]
  000b8	e8 00 00 00 00	 call	 ?AfxMessageBox@@YGHPBDII@Z ; AfxMessageBox
; File C:\Program Files (x86)\Microsoft Visual Studio\2019\Community\VC\Tools\MSVC\14.29.30133\atlmfc\include\afxwin2.inl

; 767  : 	{ ASSERT(::IsWindow(m_hWnd)); return (int)::SendMessage(m_hWnd, CB_SETCURSEL, nSelect, 0); }

  000bd	6a 00		 push	 0
  000bf	6a 00		 push	 0
  000c1	68 4e 01 00 00	 push	 334			; 0000014eH
  000c6	ff b3 48 01 00
	00		 push	 DWORD PTR [ebx+328]
  000cc	ff 15 00 00 00
	00		 call	 DWORD PTR __imp__SendMessageA@16
; File D:\git\src\IBK\IBK_DRFN\ProjSrc\SrcChartEx\ChartAddIn\ChartAnalysisToolAddIn\AnalysisTool\DlgFiboSet.cpp

; 1501 : 	}

  000d2	8d 4d f0	 lea	 ecx, DWORD PTR _strNotice$3[ebp]
  000d5	ff 15 00 00 00
	00		 call	 DWORD PTR __imp_??1?$CStringT@DV?$StrTraitMFC_DLL@DV?$ChTraitsCRT@D@ATL@@@@@ATL@@QAE@XZ
; File D:\git\src\IBK\IBK_DRFN\ProjSrc\SrcChartEx\ChartAddIn\ChartAnalysisToolAddIn\Include_Chart\Dll_Load\IMetaTable.h

; 1038 : 	{

  000db	c7 45 fc 02 00
	00 00		 mov	 DWORD PTR __$EHRec$[ebp+8], 2
; File C:\Program Files (x86)\Microsoft Visual Studio\2019\Community\VC\Tools\MSVC\14.29.30133\atlmfc\include\afxwin1.inl

; 27   : 	{ ASSERT(hInstResource != NULL); afxCurrentResourceHandle = hInstResource; }

  000e2	e8 00 00 00 00	 call	 ?AfxGetModuleState@@YGPAVAFX_MODULE_STATE@@XZ ; AfxGetModuleState
  000e7	89 70 0c	 mov	 DWORD PTR [eax+12], esi
$LN21@OnSelchang:
; File D:\git\src\IBK\IBK_DRFN\ProjSrc\SrcChartEx\ChartAddIn\ChartAnalysisToolAddIn\AnalysisTool\DlgFiboSet.cpp

; 1502 : }

  000ea	8b 4d f4	 mov	 ecx, DWORD PTR __$EHRec$[ebp]
  000ed	64 89 0d 00 00
	00 00		 mov	 DWORD PTR fs:0, ecx
  000f4	59		 pop	 ecx
  000f5	5f		 pop	 edi
  000f6	5e		 pop	 esi
  000f7	5b		 pop	 ebx
  000f8	8b e5		 mov	 esp, ebp
  000fa	5d		 pop	 ebp
  000fb	c3		 ret	 0
_TEXT	ENDS
;	COMDAT text$x
text$x	SEGMENT
__unwindfunclet$?OnSelchangeWidth@CDlgFiboSet@@IAEXXZ$0:
  00000	8d 4d ec	 lea	 ecx, DWORD PTR ___mlrs__$2[ebp]
  00003	e9 00 00 00 00	 jmp	 ??1CMultiLanguageResourceSetter@@QAE@XZ ; CMultiLanguageResourceSetter::~CMultiLanguageResourceSetter
__unwindfunclet$?OnSelchangeWidth@CDlgFiboSet@@IAEXXZ$1:
  00008	8d 4d f0	 lea	 ecx, DWORD PTR _strNotice$3[ebp]
  0000b	ff 25 00 00 00
	00		 jmp	 DWORD PTR __imp_??1?$CStringT@DV?$StrTraitMFC_DLL@DV?$ChTraitsCRT@D@ATL@@@@@ATL@@QAE@XZ
  00011	cc		 int	 3
  00012	cc		 int	 3
  00013	cc		 int	 3
  00014	cc		 int	 3
  00015	cc		 int	 3
__ehhandler$?OnSelchangeWidth@CDlgFiboSet@@IAEXXZ:
  00016	90		 npad	 1
  00017	90		 npad	 1
  00018	8b 54 24 08	 mov	 edx, DWORD PTR [esp+8]
  0001c	8d 42 0c	 lea	 eax, DWORD PTR [edx+12]
  0001f	8b 4a e8	 mov	 ecx, DWORD PTR [edx-24]
  00022	33 c8		 xor	 ecx, eax
  00024	e8 00 00 00 00	 call	 @__security_check_cookie@4
  00029	b8 00 00 00 00	 mov	 eax, OFFSET __ehfuncinfo$?OnSelchangeWidth@CDlgFiboSet@@IAEXXZ
  0002e	e9 00 00 00 00	 jmp	 ___CxxFrameHandler3
text$x	ENDS
?OnSelchangeWidth@CDlgFiboSet@@IAEXXZ ENDP		; CDlgFiboSet::OnSelchangeWidth
; Function compile flags: /Ogtp
; File D:\git\src\IBK\IBK_DRFN\ProjSrc\SrcChartEx\ChartAddIn\ChartAnalysisToolAddIn\AnalysisTool\DlgFiboSet.cpp
;	COMDAT ?OnApplyBt@CDlgFiboSet@@IAEXXZ
_TEXT	SEGMENT
?OnApplyBt@CDlgFiboSet@@IAEXXZ PROC			; CDlgFiboSet::OnApplyBt, COMDAT
; _this$ = ecx

; 1537 : 	ApplyData();

  00000	e9 00 00 00 00	 jmp	 ?ApplyData@CDlgFiboSet@@IAEXXZ ; CDlgFiboSet::ApplyData
?OnApplyBt@CDlgFiboSet@@IAEXXZ ENDP			; CDlgFiboSet::OnApplyBt
_TEXT	ENDS
; Function compile flags: /Ogtp
; File D:\git\src\IBK\IBK_DRFN\ProjSrc\SrcChartEx\ChartAddIn\ChartAnalysisToolAddIn\AnalysisTool\DlgFiboSet.cpp
; File C:\Program Files (x86)\Microsoft Visual Studio\2019\Community\VC\Tools\MSVC\14.29.30133\atlmfc\include\afxwin2.inl
; File C:\Program Files (x86)\Microsoft Visual Studio\2019\Community\VC\Tools\MSVC\14.29.30133\atlmfc\include\afxdlgs.h
; File D:\git\src\IBK\IBK_DRFN\ProjSrc\SrcChartEx\ChartAddIn\ChartAnalysisToolAddIn\AnalysisTool\DlgFiboSet.cpp
;	COMDAT ?OnColor@CDlgFiboSet@@IAEXXZ
_TEXT	SEGMENT
_colorDlg$ = -224					; size = 208
$T2 = -16						; size = 4
__$EHRec$ = -12						; size = 12
?OnColor@CDlgFiboSet@@IAEXXZ PROC			; CDlgFiboSet::OnColor, COMDAT
; _this$ = ecx

; 416  : {

  00000	55		 push	 ebp
  00001	8b ec		 mov	 ebp, esp
  00003	6a ff		 push	 -1
  00005	68 00 00 00 00	 push	 __ehhandler$?OnColor@CDlgFiboSet@@IAEXXZ
  0000a	64 a1 00 00 00
	00		 mov	 eax, DWORD PTR fs:0
  00010	50		 push	 eax
  00011	81 ec d4 00 00
	00		 sub	 esp, 212		; 000000d4H
  00017	56		 push	 esi
  00018	a1 00 00 00 00	 mov	 eax, DWORD PTR ___security_cookie
  0001d	33 c5		 xor	 eax, ebp
  0001f	50		 push	 eax
  00020	8d 45 f4	 lea	 eax, DWORD PTR __$EHRec$[ebp]
  00023	64 a3 00 00 00
	00		 mov	 DWORD PTR fs:0, eax
  00029	8b f1		 mov	 esi, ecx

; 417  : 	CColorDialog colorDlg;

  0002b	6a 00		 push	 0
  0002d	6a 00		 push	 0
  0002f	6a 00		 push	 0
  00031	8d 8d 20 ff ff
	ff		 lea	 ecx, DWORD PTR _colorDlg$[ebp]
  00037	e8 00 00 00 00	 call	 ??0CColorDialog@@QAE@KKPAVCWnd@@@Z ; CColorDialog::CColorDialog

; 418  : 
; 419  : 	if(colorDlg.DoModal() != IDOK)

  0003c	8d 8d 20 ff ff
	ff		 lea	 ecx, DWORD PTR _colorDlg$[ebp]
  00042	c7 45 fc 00 00
	00 00		 mov	 DWORD PTR __$EHRec$[ebp+8], 0
  00049	e8 00 00 00 00	 call	 ?DoModal@CColorDialog@@UAEHXZ ; CColorDialog::DoModal
  0004e	83 f8 01	 cmp	 eax, 1
  00051	75 25		 jne	 SHORT $LN5@OnColor

; 420  : 		return;
; 421  : 
; 422  : 	SetColor(colorDlg.GetColor());

  00053	8b 45 d4	 mov	 eax, DWORD PTR _colorDlg$[ebp+180]

; 1092 : 	m_ctlColor.SetColor(color);

  00056	8d 8e 48 02 00
	00		 lea	 ecx, DWORD PTR [esi+584]

; 420  : 		return;
; 421  : 
; 422  : 	SetColor(colorDlg.GetColor());

  0005c	89 45 f0	 mov	 DWORD PTR $T2[ebp], eax

; 1092 : 	m_ctlColor.SetColor(color);

  0005f	8d 45 f0	 lea	 eax, DWORD PTR $T2[ebp]
  00062	50		 push	 eax
  00063	e8 00 00 00 00	 call	 ?SetColor@CColorButton@@QAEXABK@Z ; CColorButton::SetColor
; File C:\Program Files (x86)\Microsoft Visual Studio\2019\Community\VC\Tools\MSVC\14.29.30133\atlmfc\include\afxwin2.inl

; 114  : 	{ ASSERT(::IsWindow(m_hWnd)); ::InvalidateRect(m_hWnd, NULL, bErase); }

  00068	6a 01		 push	 1
  0006a	6a 00		 push	 0
  0006c	ff b6 68 02 00
	00		 push	 DWORD PTR [esi+616]
  00072	ff 15 00 00 00
	00		 call	 DWORD PTR __imp__InvalidateRect@12
$LN5@OnColor:
; File C:\Program Files (x86)\Microsoft Visual Studio\2019\Community\VC\Tools\MSVC\14.29.30133\atlmfc\include\afxdlgs.h

; 110  :     virtual ~CCommonDialog() {};

  00078	8d 8d 20 ff ff
	ff		 lea	 ecx, DWORD PTR _colorDlg$[ebp]
  0007e	c7 85 20 ff ff
	ff 00 00 00 00	 mov	 DWORD PTR _colorDlg$[ebp], OFFSET ??_7CCommonDialog@@6B@
  00088	e8 00 00 00 00	 call	 ??1CDialog@@UAE@XZ	; CDialog::~CDialog
; File D:\git\src\IBK\IBK_DRFN\ProjSrc\SrcChartEx\ChartAddIn\ChartAnalysisToolAddIn\AnalysisTool\DlgFiboSet.cpp

; 423  : }

  0008d	8b 4d f4	 mov	 ecx, DWORD PTR __$EHRec$[ebp]
  00090	64 89 0d 00 00
	00 00		 mov	 DWORD PTR fs:0, ecx
  00097	59		 pop	 ecx
  00098	5e		 pop	 esi
  00099	8b e5		 mov	 esp, ebp
  0009b	5d		 pop	 ebp
  0009c	c3		 ret	 0
_TEXT	ENDS
;	COMDAT text$x
text$x	SEGMENT
__unwindfunclet$?OnColor@CDlgFiboSet@@IAEXXZ$0:
  00000	8d 8d 20 ff ff
	ff		 lea	 ecx, DWORD PTR _colorDlg$[ebp]
  00006	e9 00 00 00 00	 jmp	 ??1CColorDialog@@UAE@XZ
  0000b	cc		 int	 3
  0000c	cc		 int	 3
  0000d	cc		 int	 3
  0000e	cc		 int	 3
  0000f	cc		 int	 3
__ehhandler$?OnColor@CDlgFiboSet@@IAEXXZ:
  00010	90		 npad	 1
  00011	90		 npad	 1
  00012	8b 54 24 08	 mov	 edx, DWORD PTR [esp+8]
  00016	8d 42 0c	 lea	 eax, DWORD PTR [edx+12]
  00019	8b 8a 24 ff ff
	ff		 mov	 ecx, DWORD PTR [edx-220]
  0001f	33 c8		 xor	 ecx, eax
  00021	e8 00 00 00 00	 call	 @__security_check_cookie@4
  00026	b8 00 00 00 00	 mov	 eax, OFFSET __ehfuncinfo$?OnColor@CDlgFiboSet@@IAEXXZ
  0002b	e9 00 00 00 00	 jmp	 ___CxxFrameHandler3
text$x	ENDS
?OnColor@CDlgFiboSet@@IAEXXZ ENDP			; CDlgFiboSet::OnColor
; Function compile flags: /Ogtp
; File D:\git\src\IBK\IBK_DRFN\ProjSrc\SrcChartEx\ChartAddIn\ChartAnalysisToolAddIn\AnalysisTool\DlgFiboSet.cpp
; File C:\Program Files (x86)\Microsoft Visual Studio\2019\Community\VC\Tools\MSVC\14.29.30133\atlmfc\include\atlsimpstr.h
; File D:\git\src\IBK\IBK_DRFN\ProjSrc\SrcChartEx\ChartAddIn\ChartAnalysisToolAddIn\AnalysisTool\DlgFiboSet.cpp
; File C:\Program Files (x86)\Microsoft Visual Studio\2019\Community\VC\Tools\MSVC\14.29.30133\atlmfc\include\atlsimpstr.h
; File D:\git\src\IBK\IBK_DRFN\ProjSrc\SrcChartEx\ChartAddIn\ChartAnalysisToolAddIn\AnalysisTool\DlgFiboSet.cpp
; File C:\Program Files (x86)\Microsoft Visual Studio\2019\Community\VC\Tools\MSVC\14.29.30133\atlmfc\include\atlsimpstr.h
; File D:\git\src\IBK\IBK_DRFN\ProjSrc\SrcChartEx\ChartAddIn\ChartAnalysisToolAddIn\AnalysisTool\DlgFiboSet.cpp
; File C:\Program Files (x86)\Microsoft Visual Studio\2019\Community\VC\Tools\MSVC\14.29.30133\atlmfc\include\atlsimpstr.h
; File D:\git\src\IBK\IBK_DRFN\ProjSrc\SrcChartEx\ChartAddIn\ChartAnalysisToolAddIn\AnalysisTool\DlgFiboSet.cpp
; File C:\Program Files (x86)\Microsoft Visual Studio\2019\Community\VC\Tools\MSVC\14.29.30133\atlmfc\include\atlsimpstr.h
; File D:\git\src\IBK\IBK_DRFN\ProjSrc\SrcChartEx\ChartAddIn\ChartAnalysisToolAddIn\AnalysisTool\DlgFiboSet.cpp
; File C:\Program Files (x86)\Microsoft Visual Studio\2019\Community\VC\Tools\MSVC\14.29.30133\atlmfc\include\atlsimpstr.h
; File D:\git\src\IBK\IBK_DRFN\ProjSrc\SrcChartEx\ChartAddIn\ChartAnalysisToolAddIn\AnalysisTool\DlgFiboSet.cpp
; File C:\Program Files (x86)\Microsoft Visual Studio\2019\Community\VC\Tools\MSVC\14.29.30133\atlmfc\include\afxwin2.inl
; File D:\git\src\IBK\IBK_DRFN\ProjSrc\SrcChartEx\ChartAddIn\ChartAnalysisToolAddIn\AnalysisTool\DlgFiboSet.cpp
; File C:\Program Files (x86)\Microsoft Visual Studio\2019\Community\VC\Tools\MSVC\14.29.30133\atlmfc\include\afxwin2.inl
; File D:\git\src\IBK\IBK_DRFN\ProjSrc\SrcChartEx\ChartAddIn\ChartAnalysisToolAddIn\AnalysisTool\DlgFiboSet.cpp
; File C:\Program Files (x86)\Microsoft Visual Studio\2019\Community\VC\Tools\MSVC\14.29.30133\atlmfc\include\afxwin2.inl
; File D:\git\src\IBK\IBK_DRFN\ProjSrc\SrcChartEx\ChartAddIn\ChartAnalysisToolAddIn\AnalysisTool\DlgFiboSet.cpp
;	COMDAT ?OnInitDialog@CDlgFiboSet@@MAEHXZ
_TEXT	SEGMENT
$T2 = -36						; size = 4
_strExtData$ = -32					; size = 4
_this$1$ = -28						; size = 4
$T3 = -24						; size = 4
_strDisplay$4 = -24					; size = 4
_strR$ = -20						; size = 4
_strBuf$ = -16						; size = 4
__$EHRec$ = -12						; size = 12
?OnInitDialog@CDlgFiboSet@@MAEHXZ PROC			; CDlgFiboSet::OnInitDialog, COMDAT
; _this$ = ecx

; 157  : {

  00000	55		 push	 ebp
  00001	8b ec		 mov	 ebp, esp
  00003	6a ff		 push	 -1
  00005	68 00 00 00 00	 push	 __ehhandler$?OnInitDialog@CDlgFiboSet@@MAEHXZ
  0000a	64 a1 00 00 00
	00		 mov	 eax, DWORD PTR fs:0
  00010	50		 push	 eax
  00011	83 ec 18	 sub	 esp, 24			; 00000018H
  00014	53		 push	 ebx
  00015	56		 push	 esi
  00016	57		 push	 edi
  00017	a1 00 00 00 00	 mov	 eax, DWORD PTR ___security_cookie
  0001c	33 c5		 xor	 eax, ebp
  0001e	50		 push	 eax
  0001f	8d 45 f4	 lea	 eax, DWORD PTR __$EHRec$[ebp]
  00022	64 a3 00 00 00
	00		 mov	 DWORD PTR fs:0, eax
  00028	8b d9		 mov	 ebx, ecx
  0002a	89 5d e4	 mov	 DWORD PTR _this$1$[ebp], ebx

; 158  : 	CDialog::OnInitDialog();

  0002d	e8 00 00 00 00	 call	 ?OnInitDialog@CDialog@@UAEHXZ ; CDialog::OnInitDialog

; 159  : 	
; 160  : 	mouse_event(MOUSEEVENTF_LEFTDOWN, 0, 0, 0, 0);

  00032	8b 35 00 00 00
	00		 mov	 esi, DWORD PTR __imp__mouse_event@20
  00038	6a 00		 push	 0
  0003a	6a 00		 push	 0
  0003c	6a 00		 push	 0
  0003e	6a 00		 push	 0
  00040	6a 02		 push	 2
  00042	ff d6		 call	 esi

; 161  : 	mouse_event(MOUSEEVENTF_LEFTUP, 0, 0, 0, 0);

  00044	6a 00		 push	 0
  00046	6a 00		 push	 0
  00048	6a 00		 push	 0
  0004a	6a 00		 push	 0
  0004c	6a 04		 push	 4
  0004e	ff d6		 call	 esi

; 162  : 	
; 163  : 	InitializeData();

  00050	8b cb		 mov	 ecx, ebx
  00052	e8 00 00 00 00	 call	 ?InitializeData@CDlgFiboSet@@IAEXXZ ; CDlgFiboSet::InitializeData

; 164  : 
; 165  : 	int i;
; 166  : 	if( (CToolEnumData::ElementType)m_nElementType == CToolEnumData::Fibo_Time )

  00057	83 bb a0 0c 00
	00 0c		 cmp	 DWORD PTR [ebx+3232], 12 ; 0000000cH
  0005e	0f 85 a9 00 00
	00		 jne	 $LN16@OnInitDial

; 167  : 	{	//    .
; 168  : 		CString strDisplay;

  00064	8d 4d e8	 lea	 ecx, DWORD PTR _strDisplay$4[ebp]
  00067	ff 15 00 00 00
	00		 call	 DWORD PTR __imp_??0?$CStringT@DV?$StrTraitMFC_DLL@DV?$ChTraitsCRT@D@ATL@@@@@ATL@@QAE@XZ
  0006d	c7 45 fc 00 00
	00 00		 mov	 DWORD PTR __$EHRec$[ebp+8], 0
  00074	33 f6		 xor	 esi, esi
$LL4@OnInitDial:

; 169  : 		for( i=0; i<g_nRationCnt; i++ )
; 170  : 		{
; 171  : 			strcpy(g_strRatio[i], g_strRatioTime[i]);

  00076	8b fe		 mov	 edi, esi
  00078	c1 e7 05	 shl	 edi, 5
  0007b	8b d7		 mov	 edx, edi
  0007d	8d 9f 00 00 00
	00		 lea	 ebx, DWORD PTR ?g_strRatioTime@@3PAY0CA@DA[edi]
  00083	8b cb		 mov	 ecx, ebx
  00085	2b d3		 sub	 edx, ebx
  00087	66 0f 1f 84 00
	00 00 00 00	 npad	 9
$LL28@OnInitDial:
  00090	8a 01		 mov	 al, BYTE PTR [ecx]
  00092	88 84 0a 00 00
	00 00		 mov	 BYTE PTR ?g_strRatio@@3PAY0CA@DA[edx+ecx], al
  00099	41		 inc	 ecx
  0009a	84 c0		 test	 al, al
  0009c	75 f2		 jne	 SHORT $LL28@OnInitDial

; 172  : 			if( i == 0 )

  0009e	85 f6		 test	 esi, esi
  000a0	75 0c		 jne	 SHORT $LN18@OnInitDial

; 173  : 				strDisplay = g_strRatioTime[i];

  000a2	53		 push	 ebx
  000a3	8d 4d e8	 lea	 ecx, DWORD PTR _strDisplay$4[ebp]
  000a6	ff 15 00 00 00
	00		 call	 DWORD PTR __imp_??4?$CStringT@DV?$StrTraitMFC_DLL@DV?$ChTraitsCRT@D@ATL@@@@@ATL@@QAEAAV01@PBD@Z
  000ac	eb 2f		 jmp	 SHORT $LN19@OnInitDial
$LN18@OnInitDial:

; 174  : 			else
; 175  : 				strDisplay.Format("%s(%.1f%s)", g_strRatioTime[i], atof(g_strRatioOther[i])/10.0, "%");

  000ae	8d 87 00 00 00
	00		 lea	 eax, DWORD PTR ?g_strRatioOther@@3PAY0CA@DA[edi]
  000b4	68 00 00 00 00	 push	 OFFSET ??_C@_01FGNFDNOH@?$CF@
  000b9	50		 push	 eax
  000ba	ff 15 00 00 00
	00		 call	 DWORD PTR __imp__atof
  000c0	dc 35 00 00 00
	00		 fdiv	 QWORD PTR __real@4024000000000000
  000c6	8d 45 e8	 lea	 eax, DWORD PTR _strDisplay$4[ebp]
  000c9	51		 push	 ecx
  000ca	dd 1c 24	 fstp	 QWORD PTR [esp]
  000cd	53		 push	 ebx
  000ce	68 00 00 00 00	 push	 OFFSET ??_C@_0L@DFLJBNFO@?$CFs?$CI?$CF?41f?$CFs?$CJ@
  000d3	50		 push	 eax
  000d4	ff 15 00 00 00
	00		 call	 DWORD PTR __imp_?Format@?$CStringT@DV?$StrTraitMFC_DLL@DV?$ChTraitsCRT@D@ATL@@@@@ATL@@QAAXPBDZZ
  000da	83 c4 18	 add	 esp, 24			; 00000018H
$LN19@OnInitDial:

; 176  : 			SetDlgItemText(IDC_CHECK1+i, strDisplay);

  000dd	ff 75 e8	 push	 DWORD PTR _strDisplay$4[ebp]
  000e0	8b 5d e4	 mov	 ebx, DWORD PTR _this$1$[ebp]
  000e3	8d 86 bd 0f 00
	00		 lea	 eax, DWORD PTR [esi+4029]
  000e9	50		 push	 eax
  000ea	8b cb		 mov	 ecx, ebx
  000ec	e8 00 00 00 00	 call	 ?SetDlgItemTextA@CWnd@@QAEXHPBD@Z ; CWnd::SetDlgItemTextA
  000f1	46		 inc	 esi
  000f2	83 fe 0c	 cmp	 esi, 12			; 0000000cH
  000f5	0f 8c 7b ff ff
	ff		 jl	 $LL4@OnInitDial

; 177  : 		}
; 178  : 	}

  000fb	8d 4d e8	 lea	 ecx, DWORD PTR _strDisplay$4[ebp]
  000fe	c7 45 fc ff ff
	ff ff		 mov	 DWORD PTR __$EHRec$[ebp+8], -1
  00105	ff 15 00 00 00
	00		 call	 DWORD PTR __imp_??1?$CStringT@DV?$StrTraitMFC_DLL@DV?$ChTraitsCRT@D@ATL@@@@@ATL@@QAE@XZ
  0010b	eb 2e		 jmp	 SHORT $LN6@OnInitDial
$LN16@OnInitDial:

; 179  : 	else
; 180  : 	{
; 181  : 		for( i=0; i<g_nRationCnt; i++ )

  0010d	33 f6		 xor	 esi, esi
  0010f	90		 npad	 1
$LL7@OnInitDial:

; 182  : 		{
; 183  : 			strcpy(g_strRatio[i], g_strRatioOther[i]);

  00110	8d 8e 00 00 00
	00		 lea	 ecx, DWORD PTR ?g_strRatioOther@@3PAY0CA@DA[esi]
  00116	8b d6		 mov	 edx, esi
  00118	2b d1		 sub	 edx, ecx
  0011a	66 0f 1f 44 00
	00		 npad	 6
$LL29@OnInitDial:
  00120	8a 01		 mov	 al, BYTE PTR [ecx]
  00122	8d 49 01	 lea	 ecx, DWORD PTR [ecx+1]
  00125	88 84 0a ff ff
	ff ff		 mov	 BYTE PTR ?g_strRatio@@3PAY0CA@DA[edx+ecx-1], al
  0012c	84 c0		 test	 al, al
  0012e	75 f0		 jne	 SHORT $LL29@OnInitDial

; 179  : 	else
; 180  : 	{
; 181  : 		for( i=0; i<g_nRationCnt; i++ )

  00130	83 c6 20	 add	 esi, 32			; 00000020H
  00133	81 fe 80 01 00
	00		 cmp	 esi, 384		; 00000180H
  00139	7c d5		 jl	 SHORT $LL7@OnInitDial
$LN6@OnInitDial:

; 184  : 		}
; 185  : 	}
; 186  : 
; 187  : 	CString strExtData = m_pDataEnvironment->GetExtData();

  0013b	8b 8b d8 0b 00
	00		 mov	 ecx, DWORD PTR [ebx+3032]
  00141	8d 45 e0	 lea	 eax, DWORD PTR _strExtData$[ebp]
  00144	50		 push	 eax
  00145	e8 00 00 00 00	 call	 ?GetExtData@CDataTypeEnvironment@@QBE?AV?$CStringT@DV?$StrTraitMFC_DLL@DV?$ChTraitsCRT@D@ATL@@@@@ATL@@XZ ; CDataTypeEnvironment::GetExtData

; 188  : 	CString strBuf = strExtData;

  0014a	8d 45 e0	 lea	 eax, DWORD PTR _strExtData$[ebp]
  0014d	c7 45 fc 01 00
	00 00		 mov	 DWORD PTR __$EHRec$[ebp+8], 1
  00154	50		 push	 eax
  00155	8d 4d f0	 lea	 ecx, DWORD PTR _strBuf$[ebp]
  00158	ff 15 00 00 00
	00		 call	 DWORD PTR __imp_??0?$CStringT@DV?$StrTraitMFC_DLL@DV?$ChTraitsCRT@D@ATL@@@@@ATL@@QAE@ABV01@@Z

; 189  : 	CString strR;

  0015e	8d 4d ec	 lea	 ecx, DWORD PTR _strR$[ebp]
  00161	ff 15 00 00 00
	00		 call	 DWORD PTR __imp_??0?$CStringT@DV?$StrTraitMFC_DLL@DV?$ChTraitsCRT@D@ATL@@@@@ATL@@QAE@XZ
; File C:\Program Files (x86)\Microsoft Visual Studio\2019\Community\VC\Tools\MSVC\14.29.30133\atlmfc\include\atlsimpstr.h

; 519  : 		return( GetData()->nDataLength );

  00167	8b 45 f0	 mov	 eax, DWORD PTR _strBuf$[ebp]
; File D:\git\src\IBK\IBK_DRFN\ProjSrc\SrcChartEx\ChartAddIn\ChartAnalysisToolAddIn\AnalysisTool\DlgFiboSet.cpp

; 189  : 	CString strR;

  0016a	c6 45 fc 03	 mov	 BYTE PTR __$EHRec$[ebp+8], 3
; File C:\Program Files (x86)\Microsoft Visual Studio\2019\Community\VC\Tools\MSVC\14.29.30133\atlmfc\include\atlsimpstr.h

; 533  : 		return( GetLength() == 0 );

  0016e	83 78 f4 00	 cmp	 DWORD PTR [eax-12], 0
; File D:\git\src\IBK\IBK_DRFN\ProjSrc\SrcChartEx\ChartAddIn\ChartAnalysisToolAddIn\AnalysisTool\DlgFiboSet.cpp

; 191  : 	if( strBuf.IsEmpty() )		// Default  

  00172	75 1e		 jne	 SHORT $LN68@OnInitDial

; 192  : 	{
; 193  : 		if( (CToolEnumData::ElementType)m_nElementType == CToolEnumData::Fibo_Time )		//  

  00174	83 bb a0 0c 00
	00 0c		 cmp	 DWORD PTR [ebx+3232], 12 ; 0000000cH
  0017b	8d 4d f0	 lea	 ecx, DWORD PTR _strBuf$[ebp]
  0017e	75 07		 jne	 SHORT $LN21@OnInitDial

; 194  : 			strBuf = "0,1,2,3,5,8,13,21,34,55";

  00180	68 00 00 00 00	 push	 OFFSET ??_C@_0BI@PMLJCDKI@0?01?02?03?05?08?013?021?034?055@
  00185	eb 05		 jmp	 SHORT $LN96@OnInitDial
$LN21@OnInitDial:

; 195  : 		else
; 196  : 			strBuf = "0,236,382,500,618,786,1000";

  00187	68 00 00 00 00	 push	 OFFSET ??_C@_0BL@NNPKLAED@0?0236?0382?0500?0618?0786?01000@
$LN96@OnInitDial:
; File C:\Program Files (x86)\Microsoft Visual Studio\2019\Community\VC\Tools\MSVC\14.29.30133\atlmfc\include\atlsimpstr.h

; 519  : 		return( GetData()->nDataLength );

  0018c	ff 15 00 00 00
	00		 call	 DWORD PTR __imp_??4?$CStringT@DV?$StrTraitMFC_DLL@DV?$ChTraitsCRT@D@ATL@@@@@ATL@@QAEAAV01@PBD@Z
$LN68@OnInitDial:
  00192	8b 45 f0	 mov	 eax, DWORD PTR _strBuf$[ebp]
; File D:\git\src\IBK\IBK_DRFN\ProjSrc\SrcChartEx\ChartAddIn\ChartAnalysisToolAddIn\AnalysisTool\DlgFiboSet.cpp

; 199  : 	while( !strBuf.IsEmpty() )

  00195	8b 3d 00 00 00
	00		 mov	 edi, DWORD PTR __imp__SendMessageA@16
; File C:\Program Files (x86)\Microsoft Visual Studio\2019\Community\VC\Tools\MSVC\14.29.30133\atlmfc\include\atlsimpstr.h

; 533  : 		return( GetLength() == 0 );

  0019b	83 78 f4 00	 cmp	 DWORD PTR [eax-12], 0
; File D:\git\src\IBK\IBK_DRFN\ProjSrc\SrcChartEx\ChartAddIn\ChartAnalysisToolAddIn\AnalysisTool\DlgFiboSet.cpp

; 199  : 	while( !strBuf.IsEmpty() )

  0019f	0f 84 da 00 00
	00		 je	 $LN9@OnInitDial
  001a5	66 66 66 0f 1f
	84 00 00 00 00
	00		 npad	 11
$LL8@OnInitDial:

; 200  : 	{
; 201  : 		strR = CDataConversion::GetStringData(strBuf, ",");

  001b0	68 00 00 00 00	 push	 OFFSET ??_C@_01IHBHIGKO@?0@
  001b5	8d 4d e8	 lea	 ecx, DWORD PTR $T3[ebp]
  001b8	ff 15 00 00 00
	00		 call	 DWORD PTR __imp_??0?$CStringT@DV?$StrTraitMFC_DLL@DV?$ChTraitsCRT@D@ATL@@@@@ATL@@QAE@PBD@Z
  001be	6a 01		 push	 1
  001c0	8d 45 e8	 lea	 eax, DWORD PTR $T3[ebp]
  001c3	c6 45 fc 04	 mov	 BYTE PTR __$EHRec$[ebp+8], 4
  001c7	50		 push	 eax
  001c8	8d 45 f0	 lea	 eax, DWORD PTR _strBuf$[ebp]
  001cb	50		 push	 eax
  001cc	8d 45 dc	 lea	 eax, DWORD PTR $T2[ebp]
  001cf	50		 push	 eax
  001d0	e8 00 00 00 00	 call	 ?GetStringData@CDataConversion@@SA?AV?$CStringT@DV?$StrTraitMFC_DLL@DV?$ChTraitsCRT@D@ATL@@@@@ATL@@AAV23@ABV23@_N@Z ; CDataConversion::GetStringData
  001d5	83 c4 10	 add	 esp, 16			; 00000010H
  001d8	50		 push	 eax
  001d9	8d 4d ec	 lea	 ecx, DWORD PTR _strR$[ebp]
  001dc	c6 45 fc 05	 mov	 BYTE PTR __$EHRec$[ebp+8], 5
  001e0	ff 15 00 00 00
	00		 call	 DWORD PTR __imp_??4?$CStringT@DV?$StrTraitMFC_DLL@DV?$ChTraitsCRT@D@ATL@@@@@ATL@@QAEAAV01@ABV01@@Z
  001e6	8d 4d dc	 lea	 ecx, DWORD PTR $T2[ebp]
  001e9	ff 15 00 00 00
	00		 call	 DWORD PTR __imp_??1?$CStringT@DV?$StrTraitMFC_DLL@DV?$ChTraitsCRT@D@ATL@@@@@ATL@@QAE@XZ
  001ef	8d 4d e8	 lea	 ecx, DWORD PTR $T3[ebp]
  001f2	c6 45 fc 03	 mov	 BYTE PTR __$EHRec$[ebp+8], 3
  001f6	ff 15 00 00 00
	00		 call	 DWORD PTR __imp_??1?$CStringT@DV?$StrTraitMFC_DLL@DV?$ChTraitsCRT@D@ATL@@@@@ATL@@QAE@XZ
; File C:\Program Files (x86)\Microsoft Visual Studio\2019\Community\VC\Tools\MSVC\14.29.30133\atlmfc\include\atlsimpstr.h

; 533  : 		return( GetLength() == 0 );

  001fc	8b 45 ec	 mov	 eax, DWORD PTR _strR$[ebp]
  001ff	83 78 f4 00	 cmp	 DWORD PTR [eax-12], 0
; File D:\git\src\IBK\IBK_DRFN\ProjSrc\SrcChartEx\ChartAddIn\ChartAnalysisToolAddIn\AnalysisTool\DlgFiboSet.cpp

; 202  : 		if( strR.IsEmpty() )		

  00203	75 19		 jne	 SHORT $LN23@OnInitDial

; 203  : 		{
; 204  : 			strR = strBuf;

  00205	8d 45 f0	 lea	 eax, DWORD PTR _strBuf$[ebp]
  00208	50		 push	 eax
  00209	8d 4d ec	 lea	 ecx, DWORD PTR _strR$[ebp]
  0020c	ff 15 00 00 00
	00		 call	 DWORD PTR __imp_??4?$CStringT@DV?$StrTraitMFC_DLL@DV?$ChTraitsCRT@D@ATL@@@@@ATL@@QAEAAV01@ABV01@@Z

; 205  : 			strBuf.Empty();

  00212	8d 4d f0	 lea	 ecx, DWORD PTR _strBuf$[ebp]
  00215	ff 15 00 00 00
	00		 call	 DWORD PTR __imp_?Empty@?$CSimpleStringT@D$00@ATL@@QAEXXZ
  0021b	8b 45 ec	 mov	 eax, DWORD PTR _strR$[ebp]
$LN23@OnInitDial:

; 206  : 		}
; 207  : 
; 208  : 		for( i=0; i<g_nRationCnt; i++ )

  0021e	33 ff		 xor	 edi, edi
  00220	be 00 00 00 00	 mov	 esi, OFFSET ?g_strRatio@@3PAY0CA@DA ; g_strRatio
$LL12@OnInitDial:

; 209  : 		{
; 210  : 			if( strcmp(strR, g_strRatio[i]) == 0 )	break;

  00225	8b d6		 mov	 edx, esi
  00227	8b c8		 mov	 ecx, eax
  00229	0f 1f 80 00 00
	00 00		 npad	 7
$LL90@OnInitDial:
  00230	8a 19		 mov	 bl, BYTE PTR [ecx]
  00232	3a 1a		 cmp	 bl, BYTE PTR [edx]
  00234	75 1a		 jne	 SHORT $LN91@OnInitDial
  00236	84 db		 test	 bl, bl
  00238	74 12		 je	 SHORT $LN92@OnInitDial
  0023a	8a 59 01	 mov	 bl, BYTE PTR [ecx+1]
  0023d	3a 5a 01	 cmp	 bl, BYTE PTR [edx+1]
  00240	75 0e		 jne	 SHORT $LN91@OnInitDial
  00242	83 c1 02	 add	 ecx, 2
  00245	83 c2 02	 add	 edx, 2
  00248	84 db		 test	 bl, bl
  0024a	75 e4		 jne	 SHORT $LL90@OnInitDial
$LN92@OnInitDial:
  0024c	33 c9		 xor	 ecx, ecx
  0024e	eb 05		 jmp	 SHORT $LN93@OnInitDial
$LN91@OnInitDial:
  00250	1b c9		 sbb	 ecx, ecx
  00252	83 c9 01	 or	 ecx, 1
$LN93@OnInitDial:
  00255	85 c9		 test	 ecx, ecx
  00257	0f 84 99 00 00
	00		 je	 $LN71@OnInitDial

; 206  : 		}
; 207  : 
; 208  : 		for( i=0; i<g_nRationCnt; i++ )

  0025d	83 c6 20	 add	 esi, 32			; 00000020H
  00260	47		 inc	 edi
  00261	81 fe 80 01 00
	00		 cmp	 esi, OFFSET ?g_strRatio@@3PAY0CA@DA+384
  00267	7c bc		 jl	 SHORT $LL12@OnInitDial
$LN94@OnInitDial:
; File C:\Program Files (x86)\Microsoft Visual Studio\2019\Community\VC\Tools\MSVC\14.29.30133\atlmfc\include\atlsimpstr.h

; 533  : 		return( GetLength() == 0 );

  00269	8b 3d 00 00 00
	00		 mov	 edi, DWORD PTR __imp__SendMessageA@16
  0026f	8b 5d e4	 mov	 ebx, DWORD PTR _this$1$[ebp]
$LN25@OnInitDial:
  00272	8b 45 f0	 mov	 eax, DWORD PTR _strBuf$[ebp]
  00275	83 78 f4 00	 cmp	 DWORD PTR [eax-12], 0
; File D:\git\src\IBK\IBK_DRFN\ProjSrc\SrcChartEx\ChartAddIn\ChartAnalysisToolAddIn\AnalysisTool\DlgFiboSet.cpp

; 199  : 	while( !strBuf.IsEmpty() )

  00279	0f 85 31 ff ff
	ff		 jne	 $LL8@OnInitDial
$LN9@OnInitDial:

; 216  : 	if( ((CButton *)GetDlgItem(IDC_CHECK1))->GetCheck() )

  0027f	68 bd 0f 00 00	 push	 4029			; 00000fbdH
  00284	8b cb		 mov	 ecx, ebx
  00286	e8 00 00 00 00	 call	 ?GetDlgItem@CWnd@@QBEPAV1@H@Z ; CWnd::GetDlgItem
; File C:\Program Files (x86)\Microsoft Visual Studio\2019\Community\VC\Tools\MSVC\14.29.30133\atlmfc\include\afxwin2.inl

; 628  : 	{ ASSERT(::IsWindow(m_hWnd)); return (int)::SendMessage(m_hWnd, BM_GETCHECK, 0, 0); }

  0028b	6a 00		 push	 0
  0028d	6a 00		 push	 0
  0028f	68 f0 00 00 00	 push	 240			; 000000f0H
  00294	ff 70 20	 push	 DWORD PTR [eax+32]
  00297	ff d7		 call	 edi
; File D:\git\src\IBK\IBK_DRFN\ProjSrc\SrcChartEx\ChartAddIn\ChartAnalysisToolAddIn\AnalysisTool\DlgFiboSet.cpp

; 216  : 	if( ((CButton *)GetDlgItem(IDC_CHECK1))->GetCheck() )

  00299	85 c0		 test	 eax, eax
  0029b	74 27		 je	 SHORT $LN14@OnInitDial

; 218  : 		for( i=1; i<g_nRationCnt; i++ )

  0029d	be 01 00 00 00	 mov	 esi, 1
$LL15@OnInitDial:

; 219  : 			((CButton *)GetDlgItem(IDC_CHECK1 + i))->SetCheck(TRUE);

  002a2	8d 86 bd 0f 00
	00		 lea	 eax, DWORD PTR [esi+4029]
  002a8	8b cb		 mov	 ecx, ebx
  002aa	50		 push	 eax
  002ab	e8 00 00 00 00	 call	 ?GetDlgItem@CWnd@@QBEPAV1@H@Z ; CWnd::GetDlgItem
; File C:\Program Files (x86)\Microsoft Visual Studio\2019\Community\VC\Tools\MSVC\14.29.30133\atlmfc\include\afxwin2.inl

; 630  : 	{ ASSERT(::IsWindow(m_hWnd)); ::SendMessage(m_hWnd, BM_SETCHECK, nCheck, 0); }

  002b0	6a 00		 push	 0
  002b2	6a 01		 push	 1
  002b4	68 f1 00 00 00	 push	 241			; 000000f1H
  002b9	ff 70 20	 push	 DWORD PTR [eax+32]
  002bc	ff d7		 call	 edi
; File D:\git\src\IBK\IBK_DRFN\ProjSrc\SrcChartEx\ChartAddIn\ChartAnalysisToolAddIn\AnalysisTool\DlgFiboSet.cpp

; 218  : 		for( i=1; i<g_nRationCnt; i++ )

  002be	46		 inc	 esi
  002bf	83 fe 0c	 cmp	 esi, 12			; 0000000cH
  002c2	7c de		 jl	 SHORT $LL15@OnInitDial
$LN14@OnInitDial:

; 220  : 	}
; 221  : 
; 222  : 	return TRUE;  // return TRUE unless you set the focus to a control

  002c4	8d 4d ec	 lea	 ecx, DWORD PTR _strR$[ebp]
  002c7	ff 15 00 00 00
	00		 call	 DWORD PTR __imp_??1?$CStringT@DV?$StrTraitMFC_DLL@DV?$ChTraitsCRT@D@ATL@@@@@ATL@@QAE@XZ
  002cd	8d 4d f0	 lea	 ecx, DWORD PTR _strBuf$[ebp]
  002d0	ff 15 00 00 00
	00		 call	 DWORD PTR __imp_??1?$CStringT@DV?$StrTraitMFC_DLL@DV?$ChTraitsCRT@D@ATL@@@@@ATL@@QAE@XZ
  002d6	8d 4d e0	 lea	 ecx, DWORD PTR _strExtData$[ebp]
  002d9	ff 15 00 00 00
	00		 call	 DWORD PTR __imp_??1?$CStringT@DV?$StrTraitMFC_DLL@DV?$ChTraitsCRT@D@ATL@@@@@ATL@@QAE@XZ
  002df	b8 01 00 00 00	 mov	 eax, 1

; 223  : 	              // EXCEPTION: OCX Property Pages should return FALSE
; 224  : }

  002e4	8b 4d f4	 mov	 ecx, DWORD PTR __$EHRec$[ebp]
  002e7	64 89 0d 00 00
	00 00		 mov	 DWORD PTR fs:0, ecx
  002ee	59		 pop	 ecx
  002ef	5f		 pop	 edi
  002f0	5e		 pop	 esi
  002f1	5b		 pop	 ebx
  002f2	8b e5		 mov	 esp, ebp
  002f4	5d		 pop	 ebp
  002f5	c3		 ret	 0
$LN71@OnInitDial:

; 212  : 		if( i < g_nRationCnt )

  002f6	83 ff 0c	 cmp	 edi, 12			; 0000000cH
  002f9	0f 8d 6a ff ff
	ff		 jge	 $LN94@OnInitDial

; 213  : 			((CButton *)GetDlgItem(IDC_CHECK1 + i))->SetCheck(TRUE);

  002ff	8b 5d e4	 mov	 ebx, DWORD PTR _this$1$[ebp]
  00302	8d 87 bd 0f 00
	00		 lea	 eax, DWORD PTR [edi+4029]
  00308	50		 push	 eax
  00309	8b cb		 mov	 ecx, ebx
  0030b	e8 00 00 00 00	 call	 ?GetDlgItem@CWnd@@QBEPAV1@H@Z ; CWnd::GetDlgItem
; File C:\Program Files (x86)\Microsoft Visual Studio\2019\Community\VC\Tools\MSVC\14.29.30133\atlmfc\include\afxwin2.inl

; 630  : 	{ ASSERT(::IsWindow(m_hWnd)); ::SendMessage(m_hWnd, BM_SETCHECK, nCheck, 0); }

  00310	8b 3d 00 00 00
	00		 mov	 edi, DWORD PTR __imp__SendMessageA@16
  00316	6a 00		 push	 0
  00318	6a 01		 push	 1
  0031a	68 f1 00 00 00	 push	 241			; 000000f1H
  0031f	ff 70 20	 push	 DWORD PTR [eax+32]
  00322	ff d7		 call	 edi
; File D:\git\src\IBK\IBK_DRFN\ProjSrc\SrcChartEx\ChartAddIn\ChartAnalysisToolAddIn\AnalysisTool\DlgFiboSet.cpp

; 212  : 		if( i < g_nRationCnt )

  00324	e9 49 ff ff ff	 jmp	 $LN25@OnInitDial
_TEXT	ENDS
;	COMDAT text$x
text$x	SEGMENT
__unwindfunclet$?OnInitDialog@CDlgFiboSet@@MAEHXZ$0:
  00000	8d 4d e8	 lea	 ecx, DWORD PTR _strDisplay$4[ebp]
  00003	ff 25 00 00 00
	00		 jmp	 DWORD PTR __imp_??1?$CStringT@DV?$StrTraitMFC_DLL@DV?$ChTraitsCRT@D@ATL@@@@@ATL@@QAE@XZ
__unwindfunclet$?OnInitDialog@CDlgFiboSet@@MAEHXZ$1:
  00009	8d 4d e0	 lea	 ecx, DWORD PTR _strExtData$[ebp]
  0000c	ff 25 00 00 00
	00		 jmp	 DWORD PTR __imp_??1?$CStringT@DV?$StrTraitMFC_DLL@DV?$ChTraitsCRT@D@ATL@@@@@ATL@@QAE@XZ
__unwindfunclet$?OnInitDialog@CDlgFiboSet@@MAEHXZ$2:
  00012	8d 4d f0	 lea	 ecx, DWORD PTR _strBuf$[ebp]
  00015	ff 25 00 00 00
	00		 jmp	 DWORD PTR __imp_??1?$CStringT@DV?$StrTraitMFC_DLL@DV?$ChTraitsCRT@D@ATL@@@@@ATL@@QAE@XZ
__unwindfunclet$?OnInitDialog@CDlgFiboSet@@MAEHXZ$3:
  0001b	8d 4d ec	 lea	 ecx, DWORD PTR _strR$[ebp]
  0001e	ff 25 00 00 00
	00		 jmp	 DWORD PTR __imp_??1?$CStringT@DV?$StrTraitMFC_DLL@DV?$ChTraitsCRT@D@ATL@@@@@ATL@@QAE@XZ
__unwindfunclet$?OnInitDialog@CDlgFiboSet@@MAEHXZ$4:
  00024	8d 4d e8	 lea	 ecx, DWORD PTR $T3[ebp]
  00027	ff 25 00 00 00
	00		 jmp	 DWORD PTR __imp_??1?$CStringT@DV?$StrTraitMFC_DLL@DV?$ChTraitsCRT@D@ATL@@@@@ATL@@QAE@XZ
__unwindfunclet$?OnInitDialog@CDlgFiboSet@@MAEHXZ$5:
  0002d	8d 4d dc	 lea	 ecx, DWORD PTR $T2[ebp]
  00030	ff 25 00 00 00
	00		 jmp	 DWORD PTR __imp_??1?$CStringT@DV?$StrTraitMFC_DLL@DV?$ChTraitsCRT@D@ATL@@@@@ATL@@QAE@XZ
  00036	cc		 int	 3
  00037	cc		 int	 3
  00038	cc		 int	 3
  00039	cc		 int	 3
  0003a	cc		 int	 3
__ehhandler$?OnInitDialog@CDlgFiboSet@@MAEHXZ:
  0003b	90		 npad	 1
  0003c	90		 npad	 1
  0003d	8b 54 24 08	 mov	 edx, DWORD PTR [esp+8]
  00041	8d 42 0c	 lea	 eax, DWORD PTR [edx+12]
  00044	8b 4a d8	 mov	 ecx, DWORD PTR [edx-40]
  00047	33 c8		 xor	 ecx, eax
  00049	e8 00 00 00 00	 call	 @__security_check_cookie@4
  0004e	b8 00 00 00 00	 mov	 eax, OFFSET __ehfuncinfo$?OnInitDialog@CDlgFiboSet@@MAEHXZ
  00053	e9 00 00 00 00	 jmp	 ___CxxFrameHandler3
text$x	ENDS
?OnInitDialog@CDlgFiboSet@@MAEHXZ ENDP			; CDlgFiboSet::OnInitDialog
; Function compile flags: /Ogtp
; File D:\git\src\IBK\IBK_DRFN\ProjSrc\SrcChartEx\ChartAddIn\ChartAnalysisToolAddIn\AnalysisTool\DlgFiboSet.cpp
;	COMDAT ?DoDataExchange@CDlgFiboSet@@MAEXPAVCDataExchange@@@Z
_TEXT	SEGMENT
_pDX$ = 8						; size = 4
?DoDataExchange@CDlgFiboSet@@MAEXPAVCDataExchange@@@Z PROC ; CDlgFiboSet::DoDataExchange, COMDAT
; _this$ = ecx

; 107  : {

  00000	55		 push	 ebp
  00001	8b ec		 mov	 ebp, esp
  00003	56		 push	 esi

; 108  : 	CDialog::DoDataExchange(pDX);
; 109  : 	//{{AFX_DATA_MAP(CDlgFiboSet)
; 110  : 	DDX_Control(pDX, IDC_CHECK_PRICE_RANGE, m_chkPriceRangeDiv);

  00004	8b 75 08	 mov	 esi, DWORD PTR _pDX$[ebp]
  00007	57		 push	 edi
  00008	8b f9		 mov	 edi, ecx
  0000a	8d 87 a8 00 00
	00		 lea	 eax, DWORD PTR [edi+168]
  00010	50		 push	 eax
  00011	68 b3 0f 00 00	 push	 4019			; 00000fb3H
  00016	56		 push	 esi
  00017	e8 00 00 00 00	 call	 ?DDX_Control@@YGXPAVCDataExchange@@HAAVCWnd@@@Z ; DDX_Control

; 111  : 	DDX_Control(pDX, IDC_STYLE, m_ctlStyle);

  0001c	8d 87 28 01 00
	00		 lea	 eax, DWORD PTR [edi+296]
  00022	50		 push	 eax
  00023	68 2e 27 00 00	 push	 10030			; 0000272eH
  00028	56		 push	 esi
  00029	e8 00 00 00 00	 call	 ?DDX_Control@@YGXPAVCDataExchange@@HAAVCWnd@@@Z ; DDX_Control

; 112  : 	DDX_Control(pDX, IDC_WIDTH, m_ctlWidth);

  0002e	8d 87 b8 01 00
	00		 lea	 eax, DWORD PTR [edi+440]
  00034	50		 push	 eax
  00035	68 63 23 00 00	 push	 9059			; 00002363H
  0003a	56		 push	 esi
  0003b	e8 00 00 00 00	 call	 ?DDX_Control@@YGXPAVCDataExchange@@HAAVCWnd@@@Z ; DDX_Control

; 113  : 	DDX_Control(pDX, IDC_COLOR, m_ctlColor);

  00040	8d 87 48 02 00
	00		 lea	 eax, DWORD PTR [edi+584]
  00046	50		 push	 eax
  00047	68 45 1f 00 00	 push	 8005			; 00001f45H
  0004c	56		 push	 esi
  0004d	e8 00 00 00 00	 call	 ?DDX_Control@@YGXPAVCDataExchange@@HAAVCWnd@@@Z ; DDX_Control

; 114  : 	DDX_Control(pDX, IDC_CHECK_TEXT_LEFT, m_ctrlLeftText);

  00052	8d 87 d0 02 00
	00		 lea	 eax, DWORD PTR [edi+720]
  00058	50		 push	 eax
  00059	68 a0 0f 00 00	 push	 4000			; 00000fa0H
  0005e	56		 push	 esi
  0005f	e8 00 00 00 00	 call	 ?DDX_Control@@YGXPAVCDataExchange@@HAAVCWnd@@@Z ; DDX_Control

; 115  : 	DDX_Control(pDX, IDC_CHECK_TEXT_RIGHT, m_ctrlRightText);

  00064	8d 87 50 03 00
	00		 lea	 eax, DWORD PTR [edi+848]
  0006a	50		 push	 eax
  0006b	68 a1 0f 00 00	 push	 4001			; 00000fa1H
  00070	56		 push	 esi
  00071	e8 00 00 00 00	 call	 ?DDX_Control@@YGXPAVCDataExchange@@HAAVCWnd@@@Z ; DDX_Control

; 116  : 	DDX_Control(pDX, IDC_CHECK_TEXT_TOP, m_ctrlTopText);

  00076	8d 87 d0 03 00
	00		 lea	 eax, DWORD PTR [edi+976]
  0007c	50		 push	 eax
  0007d	68 a4 0f 00 00	 push	 4004			; 00000fa4H
  00082	56		 push	 esi
  00083	e8 00 00 00 00	 call	 ?DDX_Control@@YGXPAVCDataExchange@@HAAVCWnd@@@Z ; DDX_Control

; 117  : 	DDX_Control(pDX, IDC_CHECK_TEXT_BOTTOM, m_ctrlBottomText);

  00088	8d 87 50 04 00
	00		 lea	 eax, DWORD PTR [edi+1104]
  0008e	50		 push	 eax
  0008f	68 a5 0f 00 00	 push	 4005			; 00000fa5H
  00094	56		 push	 esi
  00095	e8 00 00 00 00	 call	 ?DDX_Control@@YGXPAVCDataExchange@@HAAVCWnd@@@Z ; DDX_Control

; 118  : 	DDX_Control(pDX, IDC_CHECK_EXT_LEFT, m_ctrlLeftExt);

  0009a	8d 87 d0 04 00
	00		 lea	 eax, DWORD PTR [edi+1232]
  000a0	50		 push	 eax
  000a1	68 a2 0f 00 00	 push	 4002			; 00000fa2H
  000a6	56		 push	 esi
  000a7	e8 00 00 00 00	 call	 ?DDX_Control@@YGXPAVCDataExchange@@HAAVCWnd@@@Z ; DDX_Control

; 119  : 	DDX_Control(pDX, IDC_CHECK_EXT_RIGHT, m_ctrlRightExt);

  000ac	8d 87 50 05 00
	00		 lea	 eax, DWORD PTR [edi+1360]
  000b2	50		 push	 eax
  000b3	68 a3 0f 00 00	 push	 4003			; 00000fa3H
  000b8	56		 push	 esi
  000b9	e8 00 00 00 00	 call	 ?DDX_Control@@YGXPAVCDataExchange@@HAAVCWnd@@@Z ; DDX_Control

; 120  : 	DDX_Control(pDX, IDC_CHECK_EQUIDIV_LINE, m_ctrlEquiDiv);

  000be	8d 87 d0 05 00
	00		 lea	 eax, DWORD PTR [edi+1488]
  000c4	50		 push	 eax
  000c5	68 b0 0f 00 00	 push	 4016			; 00000fb0H
  000ca	56		 push	 esi
  000cb	e8 00 00 00 00	 call	 ?DDX_Control@@YGXPAVCDataExchange@@HAAVCWnd@@@Z ; DDX_Control

; 121  : 	DDX_Control(pDX, IDC_CHECK_FILL, m_ctrlCheckFill);

  000d0	8d 87 50 06 00
	00		 lea	 eax, DWORD PTR [edi+1616]
  000d6	50		 push	 eax
  000d7	68 a6 0f 00 00	 push	 4006			; 00000fa6H
  000dc	56		 push	 esi
  000dd	e8 00 00 00 00	 call	 ?DDX_Control@@YGXPAVCDataExchange@@HAAVCWnd@@@Z ; DDX_Control

; 122  : 	DDX_Control(pDX, IDC_CHECK_HIGH_LOW, m_ctrlCheckHL);

  000e2	8d 87 d0 06 00
	00		 lea	 eax, DWORD PTR [edi+1744]
  000e8	50		 push	 eax
  000e9	68 b1 0f 00 00	 push	 4017			; 00000fb1H
  000ee	56		 push	 esi
  000ef	e8 00 00 00 00	 call	 ?DDX_Control@@YGXPAVCDataExchange@@HAAVCWnd@@@Z ; DDX_Control

; 123  : 	DDX_Control(pDX, IDC_EDIT_XDATE1, m_ctrlEditXValue1);

  000f4	8d 87 50 07 00
	00		 lea	 eax, DWORD PTR [edi+1872]
  000fa	50		 push	 eax
  000fb	68 b2 0f 00 00	 push	 4018			; 00000fb2H
  00100	56		 push	 esi
  00101	e8 00 00 00 00	 call	 ?DDX_Control@@YGXPAVCDataExchange@@HAAVCWnd@@@Z ; DDX_Control

; 124  : 	DDX_Control(pDX, IDC_EDIT_XDATE2, m_ctrlEditXValue2);

  00106	8d 87 d0 07 00
	00		 lea	 eax, DWORD PTR [edi+2000]
  0010c	50		 push	 eax
  0010d	68 b4 0f 00 00	 push	 4020			; 00000fb4H
  00112	56		 push	 esi
  00113	e8 00 00 00 00	 call	 ?DDX_Control@@YGXPAVCDataExchange@@HAAVCWnd@@@Z ; DDX_Control

; 125  : 	DDX_Control(pDX, IDC_EDIT_XDATE3, m_ctrlEditXValue3);

  00118	8d 87 50 08 00
	00		 lea	 eax, DWORD PTR [edi+2128]
  0011e	50		 push	 eax
  0011f	68 b5 0f 00 00	 push	 4021			; 00000fb5H
  00124	56		 push	 esi
  00125	e8 00 00 00 00	 call	 ?DDX_Control@@YGXPAVCDataExchange@@HAAVCWnd@@@Z ; DDX_Control

; 126  : 	DDX_Control(pDX, IDC_EDIT_VALUE1, m_ctrlEditValue1);

  0012a	8d 87 d0 08 00
	00		 lea	 eax, DWORD PTR [edi+2256]
  00130	50		 push	 eax
  00131	68 a7 0f 00 00	 push	 4007			; 00000fa7H
  00136	56		 push	 esi
  00137	e8 00 00 00 00	 call	 ?DDX_Control@@YGXPAVCDataExchange@@HAAVCWnd@@@Z ; DDX_Control

; 127  : 	DDX_Control(pDX, IDC_EDIT_VALUE2, m_ctrlEditValue2);

  0013c	8d 87 50 09 00
	00		 lea	 eax, DWORD PTR [edi+2384]
  00142	50		 push	 eax
  00143	68 a8 0f 00 00	 push	 4008			; 00000fa8H
  00148	56		 push	 esi
  00149	e8 00 00 00 00	 call	 ?DDX_Control@@YGXPAVCDataExchange@@HAAVCWnd@@@Z ; DDX_Control

; 128  : 	DDX_Control(pDX, IDC_EDIT_VALUE3, m_ctrlEditValue3);

  0014e	8d 87 d0 09 00
	00		 lea	 eax, DWORD PTR [edi+2512]
  00154	50		 push	 eax
  00155	68 a9 0f 00 00	 push	 4009			; 00000fa9H
  0015a	56		 push	 esi
  0015b	e8 00 00 00 00	 call	 ?DDX_Control@@YGXPAVCDataExchange@@HAAVCWnd@@@Z ; DDX_Control

; 129  : 	DDX_Control(pDX, IDC_DATETIMEPICKER_XDATE1, m_ctrlXDateTime1);

  00160	8d 87 50 0a 00
	00		 lea	 eax, DWORD PTR [edi+2640]
  00166	50		 push	 eax
  00167	68 ce 42 00 00	 push	 17102			; 000042ceH
  0016c	56		 push	 esi
  0016d	e8 00 00 00 00	 call	 ?DDX_Control@@YGXPAVCDataExchange@@HAAVCWnd@@@Z ; DDX_Control

; 130  : 	DDX_Control(pDX, IDC_DATETIMEPICKER_XDATE2, m_ctrlXDateTime2);

  00172	8d 87 d0 0a 00
	00		 lea	 eax, DWORD PTR [edi+2768]
  00178	50		 push	 eax
  00179	68 cf 42 00 00	 push	 17103			; 000042cfH
  0017e	56		 push	 esi
  0017f	e8 00 00 00 00	 call	 ?DDX_Control@@YGXPAVCDataExchange@@HAAVCWnd@@@Z ; DDX_Control

; 131  : 	DDX_Control(pDX, IDC_DATETIMEPICKER_XDATE3, m_ctrlXDateTime3);

  00184	8d 87 50 0b 00
	00		 lea	 eax, DWORD PTR [edi+2896]
  0018a	50		 push	 eax
  0018b	68 d0 42 00 00	 push	 17104			; 000042d0H
  00190	56		 push	 esi
  00191	e8 00 00 00 00	 call	 ?DDX_Control@@YGXPAVCDataExchange@@HAAVCWnd@@@Z ; DDX_Control

; 132  : 	DDX_CBIndex(pDX, IDC_WIDTH, m_nWidth);

  00196	8d 87 d0 0b 00
	00		 lea	 eax, DWORD PTR [edi+3024]
  0019c	50		 push	 eax
  0019d	68 63 23 00 00	 push	 9059			; 00002363H
  001a2	56		 push	 esi
  001a3	e8 00 00 00 00	 call	 ?DDX_CBIndex@@YGXPAVCDataExchange@@HAAH@Z ; DDX_CBIndex

; 133  : 	DDX_CBIndex(pDX, IDC_STYLE, m_nStyle);

  001a8	8d 87 d4 0b 00
	00		 lea	 eax, DWORD PTR [edi+3028]
  001ae	50		 push	 eax
  001af	68 2e 27 00 00	 push	 10030			; 0000272eH
  001b4	56		 push	 esi
  001b5	e8 00 00 00 00	 call	 ?DDX_CBIndex@@YGXPAVCDataExchange@@HAAH@Z ; DDX_CBIndex
  001ba	5f		 pop	 edi
  001bb	5e		 pop	 esi

; 134  : 	//}}AFX_DATA_MAP
; 135  : }

  001bc	5d		 pop	 ebp
  001bd	c2 04 00	 ret	 4
?DoDataExchange@CDlgFiboSet@@MAEXPAVCDataExchange@@@Z ENDP ; CDlgFiboSet::DoDataExchange
_TEXT	ENDS
; Function compile flags: /Ogtp
; File D:\git\src\IBK\IBK_DRFN\ProjSrc\SrcChartEx\ChartAddIn\ChartAnalysisToolAddIn\AnalysisTool\DlgFiboSet.cpp
; File C:\Program Files (x86)\Microsoft Visual Studio\2019\Community\VC\Tools\MSVC\14.29.30133\atlmfc\include\afxwin2.inl
; File D:\git\src\IBK\IBK_DRFN\ProjSrc\SrcChartEx\ChartAddIn\ChartAnalysisToolAddIn\AnalysisTool\DlgFiboSet.cpp
; File C:\Program Files (x86)\Microsoft Visual Studio\2019\Community\VC\Tools\MSVC\14.29.30133\atlmfc\include\afxwin2.inl
; File D:\git\src\IBK\IBK_DRFN\ProjSrc\SrcChartEx\ChartAddIn\ChartAnalysisToolAddIn\AnalysisTool\DlgFiboSet.cpp
; File C:\Program Files (x86)\Microsoft Visual Studio\2019\Community\VC\Tools\MSVC\14.29.30133\atlmfc\include\afxwin2.inl
; File D:\git\src\IBK\IBK_DRFN\ProjSrc\SrcChartEx\ChartAddIn\ChartAnalysisToolAddIn\AnalysisTool\DlgFiboSet.cpp
; File C:\Program Files (x86)\Microsoft Visual Studio\2019\Community\VC\Tools\MSVC\14.29.30133\atlmfc\include\afxwin2.inl
; File D:\git\src\IBK\IBK_DRFN\ProjSrc\SrcChartEx\ChartAddIn\ChartAnalysisToolAddIn\AnalysisTool\DlgFiboSet.cpp
; File C:\Program Files (x86)\Microsoft Visual Studio\2019\Community\VC\Tools\MSVC\14.29.30133\atlmfc\include\afxwin2.inl
; File D:\git\src\IBK\IBK_DRFN\ProjSrc\SrcChartEx\ChartAddIn\ChartAnalysisToolAddIn\AnalysisTool\DlgFiboSet.cpp
; File C:\Program Files (x86)\Microsoft Visual Studio\2019\Community\VC\Tools\MSVC\14.29.30133\atlmfc\include\afxwin2.inl
; File D:\git\src\IBK\IBK_DRFN\ProjSrc\SrcChartEx\ChartAddIn\ChartAnalysisToolAddIn\AnalysisTool\DlgFiboSet.cpp
; File C:\Program Files (x86)\Microsoft Visual Studio\2019\Community\VC\Tools\MSVC\14.29.30133\atlmfc\include\afxwin2.inl
; File D:\git\src\IBK\IBK_DRFN\ProjSrc\SrcChartEx\ChartAddIn\ChartAnalysisToolAddIn\AnalysisTool\DlgFiboSet.cpp
; File C:\Program Files (x86)\Microsoft Visual Studio\2019\Community\VC\Tools\MSVC\14.29.30133\atlmfc\include\afxwin2.inl
; File D:\git\src\IBK\IBK_DRFN\ProjSrc\SrcChartEx\ChartAddIn\ChartAnalysisToolAddIn\AnalysisTool\DlgFiboSet.cpp
; File C:\Program Files (x86)\Microsoft Visual Studio\2019\Community\VC\Tools\MSVC\14.29.30133\atlmfc\include\afxwin2.inl
; File D:\git\src\IBK\IBK_DRFN\ProjSrc\SrcChartEx\ChartAddIn\ChartAnalysisToolAddIn\AnalysisTool\DlgFiboSet.cpp
; File C:\Program Files (x86)\Microsoft Visual Studio\2019\Community\VC\Tools\MSVC\14.29.30133\atlmfc\include\afxwin2.inl
; File D:\git\src\IBK\IBK_DRFN\ProjSrc\SrcChartEx\ChartAddIn\ChartAnalysisToolAddIn\AnalysisTool\DlgFiboSet.cpp
; File C:\Program Files (x86)\Microsoft Visual Studio\2019\Community\VC\Tools\MSVC\14.29.30133\atlmfc\include\afxwin2.inl
; File D:\git\src\IBK\IBK_DRFN\ProjSrc\SrcChartEx\ChartAddIn\ChartAnalysisToolAddIn\AnalysisTool\DlgFiboSet.cpp
; File C:\Program Files (x86)\Microsoft Visual Studio\2019\Community\VC\Tools\MSVC\14.29.30133\atlmfc\include\afxwin2.inl
; File D:\git\src\IBK\IBK_DRFN\ProjSrc\SrcChartEx\ChartAddIn\ChartAnalysisToolAddIn\AnalysisTool\DlgFiboSet.cpp
; File C:\Program Files (x86)\Microsoft Visual Studio\2019\Community\VC\Tools\MSVC\14.29.30133\atlmfc\include\afxwin2.inl
; File D:\git\src\IBK\IBK_DRFN\ProjSrc\SrcChartEx\ChartAddIn\ChartAnalysisToolAddIn\AnalysisTool\DlgFiboSet.cpp
; File C:\Program Files (x86)\Microsoft Visual Studio\2019\Community\VC\Tools\MSVC\14.29.30133\atlmfc\include\afxwin2.inl
; File D:\git\src\IBK\IBK_DRFN\ProjSrc\SrcChartEx\ChartAddIn\ChartAnalysisToolAddIn\AnalysisTool\DlgFiboSet.cpp
; File C:\Program Files (x86)\Microsoft Visual Studio\2019\Community\VC\Tools\MSVC\14.29.30133\atlmfc\include\afxwin2.inl
; File D:\git\src\IBK\IBK_DRFN\ProjSrc\SrcChartEx\ChartAddIn\ChartAnalysisToolAddIn\AnalysisTool\DlgFiboSet.cpp
; File C:\Program Files (x86)\Microsoft Visual Studio\2019\Community\VC\Tools\MSVC\14.29.30133\atlmfc\include\afxwin2.inl
; File D:\git\src\IBK\IBK_DRFN\ProjSrc\SrcChartEx\ChartAddIn\ChartAnalysisToolAddIn\AnalysisTool\DlgFiboSet.cpp
; File C:\Program Files (x86)\Microsoft Visual Studio\2019\Community\VC\Tools\MSVC\14.29.30133\atlmfc\include\afxwin2.inl
; File D:\git\src\IBK\IBK_DRFN\ProjSrc\SrcChartEx\ChartAddIn\ChartAnalysisToolAddIn\AnalysisTool\DlgFiboSet.cpp
; File C:\Program Files (x86)\Microsoft Visual Studio\2019\Community\VC\Tools\MSVC\14.29.30133\atlmfc\include\afxwin2.inl
; File D:\git\src\IBK\IBK_DRFN\ProjSrc\SrcChartEx\ChartAddIn\ChartAnalysisToolAddIn\AnalysisTool\DlgFiboSet.cpp
; File C:\Program Files (x86)\Microsoft Visual Studio\2019\Community\VC\Tools\MSVC\14.29.30133\atlmfc\include\afxwin2.inl
; File D:\git\src\IBK\IBK_DRFN\ProjSrc\SrcChartEx\ChartAddIn\ChartAnalysisToolAddIn\AnalysisTool\DlgFiboSet.cpp
; File C:\Program Files (x86)\Microsoft Visual Studio\2019\Community\VC\Tools\MSVC\14.29.30133\atlmfc\include\afxwin2.inl
; File D:\git\src\IBK\IBK_DRFN\ProjSrc\SrcChartEx\ChartAddIn\ChartAnalysisToolAddIn\AnalysisTool\DlgFiboSet.cpp
; File C:\Program Files (x86)\Microsoft Visual Studio\2019\Community\VC\Tools\MSVC\14.29.30133\atlmfc\include\afxwin2.inl
; File D:\git\src\IBK\IBK_DRFN\ProjSrc\SrcChartEx\ChartAddIn\ChartAnalysisToolAddIn\AnalysisTool\DlgFiboSet.cpp
; File C:\Program Files (x86)\Microsoft Visual Studio\2019\Community\VC\Tools\MSVC\14.29.30133\atlmfc\include\afxwin2.inl
; File D:\git\src\IBK\IBK_DRFN\ProjSrc\SrcChartEx\ChartAddIn\ChartAnalysisToolAddIn\AnalysisTool\DlgFiboSet.cpp
; File C:\Program Files (x86)\Microsoft Visual Studio\2019\Community\VC\Tools\MSVC\14.29.30133\atlmfc\include\afxwin2.inl
; File D:\git\src\IBK\IBK_DRFN\ProjSrc\SrcChartEx\ChartAddIn\ChartAnalysisToolAddIn\AnalysisTool\DlgFiboSet.cpp
; File C:\Program Files (x86)\Microsoft Visual Studio\2019\Community\VC\Tools\MSVC\14.29.30133\atlmfc\include\afxwin2.inl
; File D:\git\src\IBK\IBK_DRFN\ProjSrc\SrcChartEx\ChartAddIn\ChartAnalysisToolAddIn\AnalysisTool\DlgFiboSet.cpp
; File C:\Program Files (x86)\Microsoft Visual Studio\2019\Community\VC\Tools\MSVC\14.29.30133\atlmfc\include\afxwin2.inl
; File D:\git\src\IBK\IBK_DRFN\ProjSrc\SrcChartEx\ChartAddIn\ChartAnalysisToolAddIn\AnalysisTool\DlgFiboSet.cpp
; File C:\Program Files (x86)\Microsoft Visual Studio\2019\Community\VC\Tools\MSVC\14.29.30133\atlmfc\include\afxwin2.inl
; File D:\git\src\IBK\IBK_DRFN\ProjSrc\SrcChartEx\ChartAddIn\ChartAnalysisToolAddIn\AnalysisTool\DlgFiboSet.cpp
; File C:\Program Files (x86)\Microsoft Visual Studio\2019\Community\VC\Tools\MSVC\14.29.30133\atlmfc\include\afxwin2.inl
; File D:\git\src\IBK\IBK_DRFN\ProjSrc\SrcChartEx\ChartAddIn\ChartAnalysisToolAddIn\AnalysisTool\DlgFiboSet.cpp
; File C:\Program Files (x86)\Microsoft Visual Studio\2019\Community\VC\Tools\MSVC\14.29.30133\atlmfc\include\afxwin2.inl
; File D:\git\src\IBK\IBK_DRFN\ProjSrc\SrcChartEx\ChartAddIn\ChartAnalysisToolAddIn\AnalysisTool\DlgFiboSet.cpp
; File C:\Program Files (x86)\Microsoft Visual Studio\2019\Community\VC\Tools\MSVC\14.29.30133\atlmfc\include\afxwin2.inl
; File D:\git\src\IBK\IBK_DRFN\ProjSrc\SrcChartEx\ChartAddIn\ChartAnalysisToolAddIn\AnalysisTool\DlgFiboSet.cpp
; File C:\Program Files (x86)\Microsoft Visual Studio\2019\Community\VC\Tools\MSVC\14.29.30133\atlmfc\include\afxwin2.inl
; File D:\git\src\IBK\IBK_DRFN\ProjSrc\SrcChartEx\ChartAddIn\ChartAnalysisToolAddIn\AnalysisTool\DlgFiboSet.cpp
; File C:\Program Files (x86)\Microsoft Visual Studio\2019\Community\VC\Tools\MSVC\14.29.30133\atlmfc\include\afxwin2.inl
; File D:\git\src\IBK\IBK_DRFN\ProjSrc\SrcChartEx\ChartAddIn\ChartAnalysisToolAddIn\AnalysisTool\DlgFiboSet.cpp
; File C:\Program Files (x86)\Microsoft Visual Studio\2019\Community\VC\Tools\MSVC\14.29.30133\atlmfc\include\afxwin2.inl
; File D:\git\src\IBK\IBK_DRFN\ProjSrc\SrcChartEx\ChartAddIn\ChartAnalysisToolAddIn\AnalysisTool\DlgFiboSet.cpp
; File C:\Program Files (x86)\Microsoft Visual Studio\2019\Community\VC\Tools\MSVC\14.29.30133\atlmfc\include\afxdtctl.inl
; File D:\git\src\IBK\IBK_DRFN\ProjSrc\SrcChartEx\ChartAddIn\ChartAnalysisToolAddIn\AnalysisTool\DlgFiboSet.cpp
; File C:\Program Files (x86)\Microsoft Visual Studio\2019\Community\VC\Tools\MSVC\14.29.30133\atlmfc\include\afxdtctl.inl
; File D:\git\src\IBK\IBK_DRFN\ProjSrc\SrcChartEx\ChartAddIn\ChartAnalysisToolAddIn\AnalysisTool\DlgFiboSet.cpp
; File C:\Program Files (x86)\Microsoft Visual Studio\2019\Community\VC\Tools\MSVC\14.29.30133\atlmfc\include\afxdtctl.inl
; File D:\git\src\IBK\IBK_DRFN\ProjSrc\SrcChartEx\ChartAddIn\ChartAnalysisToolAddIn\AnalysisTool\DlgFiboSet.cpp
; File C:\Program Files (x86)\Microsoft Visual Studio\2019\Community\VC\Tools\MSVC\14.29.30133\atlmfc\include\afxdtctl.inl
; File D:\git\src\IBK\IBK_DRFN\ProjSrc\SrcChartEx\ChartAddIn\ChartAnalysisToolAddIn\AnalysisTool\DlgFiboSet.cpp
; File C:\Program Files (x86)\Microsoft Visual Studio\2019\Community\VC\Tools\MSVC\14.29.30133\atlmfc\include\afxdtctl.inl
; File D:\git\src\IBK\IBK_DRFN\ProjSrc\SrcChartEx\ChartAddIn\ChartAnalysisToolAddIn\AnalysisTool\DlgFiboSet.cpp
; File C:\Program Files (x86)\Microsoft Visual Studio\2019\Community\VC\Tools\MSVC\14.29.30133\atlmfc\include\afxdtctl.inl
; File D:\git\src\IBK\IBK_DRFN\ProjSrc\SrcChartEx\ChartAddIn\ChartAnalysisToolAddIn\AnalysisTool\DlgFiboSet.cpp
; File D:\git\src\IBK\IBK_DRFN\ProjSrc\SrcChartEx\ChartAddIn\ChartAnalysisToolAddIn\Include_Chart\BlockBaseData.h
; File D:\git\src\IBK\IBK_DRFN\ProjSrc\SrcChartEx\ChartAddIn\ChartAnalysisToolAddIn\AnalysisTool\DlgFiboSet.cpp
; File D:\git\src\IBK\IBK_DRFN\ProjSrc\SrcChartEx\ChartAddIn\ChartAnalysisToolAddIn\Include_Chart\BlockBaseData.h
; File D:\git\src\IBK\IBK_DRFN\ProjSrc\SrcChartEx\ChartAddIn\ChartAnalysisToolAddIn\AnalysisTool\DlgFiboSet.cpp
; File D:\git\src\IBK\IBK_DRFN\ProjSrc\SrcChartEx\ChartAddIn\ChartAnalysisToolAddIn\Include_Chart\BlockBaseData.h
; File D:\git\src\IBK\IBK_DRFN\ProjSrc\SrcChartEx\ChartAddIn\ChartAnalysisToolAddIn\AnalysisTool\DlgFiboSet.cpp
; File C:\Program Files (x86)\Microsoft Visual Studio\2019\Community\VC\Tools\MSVC\14.29.30133\atlmfc\include\afxwin2.inl
; File D:\git\src\IBK\IBK_DRFN\ProjSrc\SrcChartEx\ChartAddIn\ChartAnalysisToolAddIn\AnalysisTool\DlgFiboSet.cpp
;	COMDAT ??0CDlgFiboSet@@QAE@PAVCWnd@@ABV?$CStringT@DV?$StrTraitMFC_DLL@DV?$ChTraitsCRT@D@ATL@@@@@ATL@@ABW4HORZSCALEDRAWERTYPE@CScaleBaseData@@HPAH3PAVCTextPosition@@PAVCPenEnvironment@@PAVCElementPointList@@PAVCLineExtEnvironment@@PAVCDataTypeEnvironment@@PAUIChartOCX133101@@AAVCBlockIndex@@V23@@Z
_TEXT	SEGMENT
$T2 = -24						; size = 8
_this$ = -20						; size = 4
_this$ = -20						; size = 4
_this$ = -20						; size = 4
_this$ = -20						; size = 4
_this$ = -20						; size = 4
_this$ = -20						; size = 4
_this$ = -20						; size = 4
_this$ = -20						; size = 4
_this$ = -20						; size = 4
_this$ = -20						; size = 4
_this$ = -20						; size = 4
_this$ = -20						; size = 4
_this$ = -20						; size = 4
_this$ = -20						; size = 4
_this$ = -20						; size = 4
_this$ = -20						; size = 4
_this$ = -20						; size = 4
_this$ = -20						; size = 4
_this$ = -20						; size = 4
_this$ = -16						; size = 4
__$EHRec$ = -12						; size = 12
_pParent$ = 8						; size = 4
_strUserPath$ = 12					; size = 4
_nDataPeriod$ = 16					; size = 4
_nElementType$ = 20					; size = 4
_pEquiDivType$ = 24					; size = 4
_pPriceRangeDivType$ = 28				; size = 4
_pTextPosition$ = 32					; size = 4
_pPenEnvironment$ = 36					; size = 4
_pElementPointList$ = 40				; size = 4
_pLineExtEnvironment$ = 44				; size = 4
_pDataEnvironment$ = 48					; size = 4
_p_pIChartOCX$ = 52					; size = 4
_blockIndex$ = 56					; size = 4
_strFormatX$ = 60					; size = 4
??0CDlgFiboSet@@QAE@PAVCWnd@@ABV?$CStringT@DV?$StrTraitMFC_DLL@DV?$ChTraitsCRT@D@ATL@@@@@ATL@@ABW4HORZSCALEDRAWERTYPE@CScaleBaseData@@HPAH3PAVCTextPosition@@PAVCPenEnvironment@@PAVCElementPointList@@PAVCLineExtEnvironment@@PAVCDataTypeEnvironment@@PAUIChartOCX133101@@AAVCBlockIndex@@V23@@Z PROC ; CDlgFiboSet::CDlgFiboSet, COMDAT
; _this$ = ecx

; 72   : {

  00000	55		 push	 ebp
  00001	8b ec		 mov	 ebp, esp
  00003	6a ff		 push	 -1
  00005	68 00 00 00 00	 push	 __ehhandler$??0CDlgFiboSet@@QAE@PAVCWnd@@ABV?$CStringT@DV?$StrTraitMFC_DLL@DV?$ChTraitsCRT@D@ATL@@@@@ATL@@ABW4HORZSCALEDRAWERTYPE@CScaleBaseData@@HPAH3PAVCTextPosition@@PAVCPenEnvironment@@PAVCElementPointList@@PAVCLineExtEnvironment@@PAVCDataTypeEnvironment@@PAUIChartOCX133101@@AAVCBlockIndex@@V23@@Z
  0000a	64 a1 00 00 00
	00		 mov	 eax, DWORD PTR fs:0
  00010	50		 push	 eax
  00011	83 ec 0c	 sub	 esp, 12			; 0000000cH
  00014	53		 push	 ebx
  00015	56		 push	 esi
  00016	57		 push	 edi
  00017	a1 00 00 00 00	 mov	 eax, DWORD PTR ___security_cookie
  0001c	33 c5		 xor	 eax, ebp
  0001e	50		 push	 eax
  0001f	8d 45 f4	 lea	 eax, DWORD PTR __$EHRec$[ebp]
  00022	64 a3 00 00 00
	00		 mov	 DWORD PTR fs:0, eax
  00028	8b f9		 mov	 edi, ecx
  0002a	89 7d f0	 mov	 DWORD PTR _this$[ebp], edi
  0002d	8b 5d 08	 mov	 ebx, DWORD PTR _pParent$[ebp]
  00030	53		 push	 ebx
  00031	68 31 23 00 00	 push	 9009			; 00002331H
  00036	c7 45 fc 00 00
	00 00		 mov	 DWORD PTR __$EHRec$[ebp+8], 0
  0003d	e8 00 00 00 00	 call	 ??0CDialog@@QAE@IPAVCWnd@@@Z ; CDialog::CDialog
  00042	8d b7 a8 00 00
	00		 lea	 esi, DWORD PTR [edi+168]
  00048	c6 45 fc 01	 mov	 BYTE PTR __$EHRec$[ebp+8], 1
; File C:\Program Files (x86)\Microsoft Visual Studio\2019\Community\VC\Tools\MSVC\14.29.30133\atlmfc\include\afxwin2.inl

; 622  : 	{ }

  0004c	8b ce		 mov	 ecx, esi
; File D:\git\src\IBK\IBK_DRFN\ProjSrc\SrcChartEx\ChartAddIn\ChartAnalysisToolAddIn\AnalysisTool\DlgFiboSet.cpp

; 72   : {

  0004e	c7 07 00 00 00
	00		 mov	 DWORD PTR [edi], OFFSET ??_7CDlgFiboSet@@6B@
  00054	89 75 ec	 mov	 DWORD PTR _this$[ebp], esi
; File C:\Program Files (x86)\Microsoft Visual Studio\2019\Community\VC\Tools\MSVC\14.29.30133\atlmfc\include\afxwin2.inl

; 622  : 	{ }

  00057	e8 00 00 00 00	 call	 ??0CWnd@@QAE@XZ		; CWnd::CWnd
  0005c	c7 06 00 00 00
	00		 mov	 DWORD PTR [esi], OFFSET ??_7CButton@@6B@
; File D:\git\src\IBK\IBK_DRFN\ProjSrc\SrcChartEx\ChartAddIn\ChartAnalysisToolAddIn\AnalysisTool\DlgFiboSet.cpp

; 72   : {

  00062	8d 8f 28 01 00
	00		 lea	 ecx, DWORD PTR [edi+296]
  00068	c6 45 fc 02	 mov	 BYTE PTR __$EHRec$[ebp+8], 2
  0006c	e8 00 00 00 00	 call	 ??0CBitmapComboBox@@QAE@XZ ; CBitmapComboBox::CBitmapComboBox
  00071	8d 8f b8 01 00
	00		 lea	 ecx, DWORD PTR [edi+440]
  00077	c6 45 fc 03	 mov	 BYTE PTR __$EHRec$[ebp+8], 3
  0007b	e8 00 00 00 00	 call	 ??0CBitmapComboBox@@QAE@XZ ; CBitmapComboBox::CBitmapComboBox
  00080	8d 8f 48 02 00
	00		 lea	 ecx, DWORD PTR [edi+584]
  00086	c6 45 fc 04	 mov	 BYTE PTR __$EHRec$[ebp+8], 4
  0008a	e8 00 00 00 00	 call	 ??0CColorButton@@QAE@XZ	; CColorButton::CColorButton
  0008f	8d b7 d0 02 00
	00		 lea	 esi, DWORD PTR [edi+720]
  00095	c6 45 fc 05	 mov	 BYTE PTR __$EHRec$[ebp+8], 5
; File C:\Program Files (x86)\Microsoft Visual Studio\2019\Community\VC\Tools\MSVC\14.29.30133\atlmfc\include\afxwin2.inl

; 622  : 	{ }

  00099	8b ce		 mov	 ecx, esi
; File D:\git\src\IBK\IBK_DRFN\ProjSrc\SrcChartEx\ChartAddIn\ChartAnalysisToolAddIn\AnalysisTool\DlgFiboSet.cpp

; 72   : {

  0009b	89 75 ec	 mov	 DWORD PTR _this$[ebp], esi
; File C:\Program Files (x86)\Microsoft Visual Studio\2019\Community\VC\Tools\MSVC\14.29.30133\atlmfc\include\afxwin2.inl

; 622  : 	{ }

  0009e	e8 00 00 00 00	 call	 ??0CWnd@@QAE@XZ		; CWnd::CWnd
  000a3	c7 06 00 00 00
	00		 mov	 DWORD PTR [esi], OFFSET ??_7CButton@@6B@
; File D:\git\src\IBK\IBK_DRFN\ProjSrc\SrcChartEx\ChartAddIn\ChartAnalysisToolAddIn\AnalysisTool\DlgFiboSet.cpp

; 72   : {

  000a9	8d b7 50 03 00
	00		 lea	 esi, DWORD PTR [edi+848]
  000af	c6 45 fc 06	 mov	 BYTE PTR __$EHRec$[ebp+8], 6
; File C:\Program Files (x86)\Microsoft Visual Studio\2019\Community\VC\Tools\MSVC\14.29.30133\atlmfc\include\afxwin2.inl

; 622  : 	{ }

  000b3	8b ce		 mov	 ecx, esi
; File D:\git\src\IBK\IBK_DRFN\ProjSrc\SrcChartEx\ChartAddIn\ChartAnalysisToolAddIn\AnalysisTool\DlgFiboSet.cpp

; 72   : {

  000b5	89 75 ec	 mov	 DWORD PTR _this$[ebp], esi
; File C:\Program Files (x86)\Microsoft Visual Studio\2019\Community\VC\Tools\MSVC\14.29.30133\atlmfc\include\afxwin2.inl

; 622  : 	{ }

  000b8	e8 00 00 00 00	 call	 ??0CWnd@@QAE@XZ		; CWnd::CWnd
  000bd	c7 06 00 00 00
	00		 mov	 DWORD PTR [esi], OFFSET ??_7CButton@@6B@
; File D:\git\src\IBK\IBK_DRFN\ProjSrc\SrcChartEx\ChartAddIn\ChartAnalysisToolAddIn\AnalysisTool\DlgFiboSet.cpp

; 72   : {

  000c3	8d b7 d0 03 00
	00		 lea	 esi, DWORD PTR [edi+976]
  000c9	c6 45 fc 07	 mov	 BYTE PTR __$EHRec$[ebp+8], 7
; File C:\Program Files (x86)\Microsoft Visual Studio\2019\Community\VC\Tools\MSVC\14.29.30133\atlmfc\include\afxwin2.inl

; 622  : 	{ }

  000cd	8b ce		 mov	 ecx, esi
; File D:\git\src\IBK\IBK_DRFN\ProjSrc\SrcChartEx\ChartAddIn\ChartAnalysisToolAddIn\AnalysisTool\DlgFiboSet.cpp

; 72   : {

  000cf	89 75 ec	 mov	 DWORD PTR _this$[ebp], esi
; File C:\Program Files (x86)\Microsoft Visual Studio\2019\Community\VC\Tools\MSVC\14.29.30133\atlmfc\include\afxwin2.inl

; 622  : 	{ }

  000d2	e8 00 00 00 00	 call	 ??0CWnd@@QAE@XZ		; CWnd::CWnd
  000d7	c7 06 00 00 00
	00		 mov	 DWORD PTR [esi], OFFSET ??_7CButton@@6B@
; File D:\git\src\IBK\IBK_DRFN\ProjSrc\SrcChartEx\ChartAddIn\ChartAnalysisToolAddIn\AnalysisTool\DlgFiboSet.cpp

; 72   : {

  000dd	8d b7 50 04 00
	00		 lea	 esi, DWORD PTR [edi+1104]
  000e3	c6 45 fc 08	 mov	 BYTE PTR __$EHRec$[ebp+8], 8
; File C:\Program Files (x86)\Microsoft Visual Studio\2019\Community\VC\Tools\MSVC\14.29.30133\atlmfc\include\afxwin2.inl

; 622  : 	{ }

  000e7	8b ce		 mov	 ecx, esi
; File D:\git\src\IBK\IBK_DRFN\ProjSrc\SrcChartEx\ChartAddIn\ChartAnalysisToolAddIn\AnalysisTool\DlgFiboSet.cpp

; 72   : {

  000e9	89 75 ec	 mov	 DWORD PTR _this$[ebp], esi
; File C:\Program Files (x86)\Microsoft Visual Studio\2019\Community\VC\Tools\MSVC\14.29.30133\atlmfc\include\afxwin2.inl

; 622  : 	{ }

  000ec	e8 00 00 00 00	 call	 ??0CWnd@@QAE@XZ		; CWnd::CWnd
  000f1	c7 06 00 00 00
	00		 mov	 DWORD PTR [esi], OFFSET ??_7CButton@@6B@
; File D:\git\src\IBK\IBK_DRFN\ProjSrc\SrcChartEx\ChartAddIn\ChartAnalysisToolAddIn\AnalysisTool\DlgFiboSet.cpp

; 72   : {

  000f7	8d b7 d0 04 00
	00		 lea	 esi, DWORD PTR [edi+1232]
  000fd	c6 45 fc 09	 mov	 BYTE PTR __$EHRec$[ebp+8], 9
; File C:\Program Files (x86)\Microsoft Visual Studio\2019\Community\VC\Tools\MSVC\14.29.30133\atlmfc\include\afxwin2.inl

; 622  : 	{ }

  00101	8b ce		 mov	 ecx, esi
; File D:\git\src\IBK\IBK_DRFN\ProjSrc\SrcChartEx\ChartAddIn\ChartAnalysisToolAddIn\AnalysisTool\DlgFiboSet.cpp

; 72   : {

  00103	89 75 ec	 mov	 DWORD PTR _this$[ebp], esi
; File C:\Program Files (x86)\Microsoft Visual Studio\2019\Community\VC\Tools\MSVC\14.29.30133\atlmfc\include\afxwin2.inl

; 622  : 	{ }

  00106	e8 00 00 00 00	 call	 ??0CWnd@@QAE@XZ		; CWnd::CWnd
  0010b	c7 06 00 00 00
	00		 mov	 DWORD PTR [esi], OFFSET ??_7CButton@@6B@
; File D:\git\src\IBK\IBK_DRFN\ProjSrc\SrcChartEx\ChartAddIn\ChartAnalysisToolAddIn\AnalysisTool\DlgFiboSet.cpp

; 72   : {

  00111	8d b7 50 05 00
	00		 lea	 esi, DWORD PTR [edi+1360]
  00117	c6 45 fc 0a	 mov	 BYTE PTR __$EHRec$[ebp+8], 10 ; 0000000aH
; File C:\Program Files (x86)\Microsoft Visual Studio\2019\Community\VC\Tools\MSVC\14.29.30133\atlmfc\include\afxwin2.inl

; 622  : 	{ }

  0011b	8b ce		 mov	 ecx, esi
; File D:\git\src\IBK\IBK_DRFN\ProjSrc\SrcChartEx\ChartAddIn\ChartAnalysisToolAddIn\AnalysisTool\DlgFiboSet.cpp

; 72   : {

  0011d	89 75 ec	 mov	 DWORD PTR _this$[ebp], esi
; File C:\Program Files (x86)\Microsoft Visual Studio\2019\Community\VC\Tools\MSVC\14.29.30133\atlmfc\include\afxwin2.inl

; 622  : 	{ }

  00120	e8 00 00 00 00	 call	 ??0CWnd@@QAE@XZ		; CWnd::CWnd
  00125	c7 06 00 00 00
	00		 mov	 DWORD PTR [esi], OFFSET ??_7CButton@@6B@
; File D:\git\src\IBK\IBK_DRFN\ProjSrc\SrcChartEx\ChartAddIn\ChartAnalysisToolAddIn\AnalysisTool\DlgFiboSet.cpp

; 72   : {

  0012b	8d b7 d0 05 00
	00		 lea	 esi, DWORD PTR [edi+1488]
  00131	c6 45 fc 0b	 mov	 BYTE PTR __$EHRec$[ebp+8], 11 ; 0000000bH
; File C:\Program Files (x86)\Microsoft Visual Studio\2019\Community\VC\Tools\MSVC\14.29.30133\atlmfc\include\afxwin2.inl

; 622  : 	{ }

  00135	8b ce		 mov	 ecx, esi
; File D:\git\src\IBK\IBK_DRFN\ProjSrc\SrcChartEx\ChartAddIn\ChartAnalysisToolAddIn\AnalysisTool\DlgFiboSet.cpp

; 72   : {

  00137	89 75 ec	 mov	 DWORD PTR _this$[ebp], esi
; File C:\Program Files (x86)\Microsoft Visual Studio\2019\Community\VC\Tools\MSVC\14.29.30133\atlmfc\include\afxwin2.inl

; 622  : 	{ }

  0013a	e8 00 00 00 00	 call	 ??0CWnd@@QAE@XZ		; CWnd::CWnd
  0013f	c7 06 00 00 00
	00		 mov	 DWORD PTR [esi], OFFSET ??_7CButton@@6B@
; File D:\git\src\IBK\IBK_DRFN\ProjSrc\SrcChartEx\ChartAddIn\ChartAnalysisToolAddIn\AnalysisTool\DlgFiboSet.cpp

; 72   : {

  00145	8d b7 50 06 00
	00		 lea	 esi, DWORD PTR [edi+1616]
  0014b	c6 45 fc 0c	 mov	 BYTE PTR __$EHRec$[ebp+8], 12 ; 0000000cH
; File C:\Program Files (x86)\Microsoft Visual Studio\2019\Community\VC\Tools\MSVC\14.29.30133\atlmfc\include\afxwin2.inl

; 622  : 	{ }

  0014f	8b ce		 mov	 ecx, esi
; File D:\git\src\IBK\IBK_DRFN\ProjSrc\SrcChartEx\ChartAddIn\ChartAnalysisToolAddIn\AnalysisTool\DlgFiboSet.cpp

; 72   : {

  00151	89 75 ec	 mov	 DWORD PTR _this$[ebp], esi
; File C:\Program Files (x86)\Microsoft Visual Studio\2019\Community\VC\Tools\MSVC\14.29.30133\atlmfc\include\afxwin2.inl

; 622  : 	{ }

  00154	e8 00 00 00 00	 call	 ??0CWnd@@QAE@XZ		; CWnd::CWnd
  00159	c7 06 00 00 00
	00		 mov	 DWORD PTR [esi], OFFSET ??_7CButton@@6B@
; File D:\git\src\IBK\IBK_DRFN\ProjSrc\SrcChartEx\ChartAddIn\ChartAnalysisToolAddIn\AnalysisTool\DlgFiboSet.cpp

; 72   : {

  0015f	8d b7 d0 06 00
	00		 lea	 esi, DWORD PTR [edi+1744]
  00165	c6 45 fc 0d	 mov	 BYTE PTR __$EHRec$[ebp+8], 13 ; 0000000dH
; File C:\Program Files (x86)\Microsoft Visual Studio\2019\Community\VC\Tools\MSVC\14.29.30133\atlmfc\include\afxwin2.inl

; 622  : 	{ }

  00169	8b ce		 mov	 ecx, esi
; File D:\git\src\IBK\IBK_DRFN\ProjSrc\SrcChartEx\ChartAddIn\ChartAnalysisToolAddIn\AnalysisTool\DlgFiboSet.cpp

; 72   : {

  0016b	89 75 ec	 mov	 DWORD PTR _this$[ebp], esi
; File C:\Program Files (x86)\Microsoft Visual Studio\2019\Community\VC\Tools\MSVC\14.29.30133\atlmfc\include\afxwin2.inl

; 622  : 	{ }

  0016e	e8 00 00 00 00	 call	 ??0CWnd@@QAE@XZ		; CWnd::CWnd
  00173	c7 06 00 00 00
	00		 mov	 DWORD PTR [esi], OFFSET ??_7CButton@@6B@
; File D:\git\src\IBK\IBK_DRFN\ProjSrc\SrcChartEx\ChartAddIn\ChartAnalysisToolAddIn\AnalysisTool\DlgFiboSet.cpp

; 72   : {

  00179	8d b7 50 07 00
	00		 lea	 esi, DWORD PTR [edi+1872]
  0017f	c6 45 fc 0e	 mov	 BYTE PTR __$EHRec$[ebp+8], 14 ; 0000000eH
; File C:\Program Files (x86)\Microsoft Visual Studio\2019\Community\VC\Tools\MSVC\14.29.30133\atlmfc\include\afxwin2.inl

; 851  : 	{ }

  00183	8b ce		 mov	 ecx, esi
; File D:\git\src\IBK\IBK_DRFN\ProjSrc\SrcChartEx\ChartAddIn\ChartAnalysisToolAddIn\AnalysisTool\DlgFiboSet.cpp

; 72   : {

  00185	89 75 ec	 mov	 DWORD PTR _this$[ebp], esi
; File C:\Program Files (x86)\Microsoft Visual Studio\2019\Community\VC\Tools\MSVC\14.29.30133\atlmfc\include\afxwin2.inl

; 851  : 	{ }

  00188	e8 00 00 00 00	 call	 ??0CWnd@@QAE@XZ		; CWnd::CWnd
  0018d	c7 06 00 00 00
	00		 mov	 DWORD PTR [esi], OFFSET ??_7CEdit@@6B@
; File D:\git\src\IBK\IBK_DRFN\ProjSrc\SrcChartEx\ChartAddIn\ChartAnalysisToolAddIn\AnalysisTool\DlgFiboSet.cpp

; 72   : {

  00193	8d b7 d0 07 00
	00		 lea	 esi, DWORD PTR [edi+2000]
  00199	c6 45 fc 0f	 mov	 BYTE PTR __$EHRec$[ebp+8], 15 ; 0000000fH
; File C:\Program Files (x86)\Microsoft Visual Studio\2019\Community\VC\Tools\MSVC\14.29.30133\atlmfc\include\afxwin2.inl

; 851  : 	{ }

  0019d	8b ce		 mov	 ecx, esi
; File D:\git\src\IBK\IBK_DRFN\ProjSrc\SrcChartEx\ChartAddIn\ChartAnalysisToolAddIn\AnalysisTool\DlgFiboSet.cpp

; 72   : {

  0019f	89 75 ec	 mov	 DWORD PTR _this$[ebp], esi
; File C:\Program Files (x86)\Microsoft Visual Studio\2019\Community\VC\Tools\MSVC\14.29.30133\atlmfc\include\afxwin2.inl

; 851  : 	{ }

  001a2	e8 00 00 00 00	 call	 ??0CWnd@@QAE@XZ		; CWnd::CWnd
  001a7	c7 06 00 00 00
	00		 mov	 DWORD PTR [esi], OFFSET ??_7CEdit@@6B@
; File D:\git\src\IBK\IBK_DRFN\ProjSrc\SrcChartEx\ChartAddIn\ChartAnalysisToolAddIn\AnalysisTool\DlgFiboSet.cpp

; 72   : {

  001ad	8d b7 50 08 00
	00		 lea	 esi, DWORD PTR [edi+2128]
  001b3	c6 45 fc 10	 mov	 BYTE PTR __$EHRec$[ebp+8], 16 ; 00000010H
; File C:\Program Files (x86)\Microsoft Visual Studio\2019\Community\VC\Tools\MSVC\14.29.30133\atlmfc\include\afxwin2.inl

; 851  : 	{ }

  001b7	8b ce		 mov	 ecx, esi
; File D:\git\src\IBK\IBK_DRFN\ProjSrc\SrcChartEx\ChartAddIn\ChartAnalysisToolAddIn\AnalysisTool\DlgFiboSet.cpp

; 72   : {

  001b9	89 75 ec	 mov	 DWORD PTR _this$[ebp], esi
; File C:\Program Files (x86)\Microsoft Visual Studio\2019\Community\VC\Tools\MSVC\14.29.30133\atlmfc\include\afxwin2.inl

; 851  : 	{ }

  001bc	e8 00 00 00 00	 call	 ??0CWnd@@QAE@XZ		; CWnd::CWnd
  001c1	c7 06 00 00 00
	00		 mov	 DWORD PTR [esi], OFFSET ??_7CEdit@@6B@
; File D:\git\src\IBK\IBK_DRFN\ProjSrc\SrcChartEx\ChartAddIn\ChartAnalysisToolAddIn\AnalysisTool\DlgFiboSet.cpp

; 72   : {

  001c7	8d b7 d0 08 00
	00		 lea	 esi, DWORD PTR [edi+2256]
  001cd	c6 45 fc 11	 mov	 BYTE PTR __$EHRec$[ebp+8], 17 ; 00000011H
; File C:\Program Files (x86)\Microsoft Visual Studio\2019\Community\VC\Tools\MSVC\14.29.30133\atlmfc\include\afxwin2.inl

; 851  : 	{ }

  001d1	8b ce		 mov	 ecx, esi
; File D:\git\src\IBK\IBK_DRFN\ProjSrc\SrcChartEx\ChartAddIn\ChartAnalysisToolAddIn\AnalysisTool\DlgFiboSet.cpp

; 72   : {

  001d3	89 75 ec	 mov	 DWORD PTR _this$[ebp], esi
; File C:\Program Files (x86)\Microsoft Visual Studio\2019\Community\VC\Tools\MSVC\14.29.30133\atlmfc\include\afxwin2.inl

; 851  : 	{ }

  001d6	e8 00 00 00 00	 call	 ??0CWnd@@QAE@XZ		; CWnd::CWnd
  001db	c7 06 00 00 00
	00		 mov	 DWORD PTR [esi], OFFSET ??_7CEdit@@6B@
; File D:\git\src\IBK\IBK_DRFN\ProjSrc\SrcChartEx\ChartAddIn\ChartAnalysisToolAddIn\AnalysisTool\DlgFiboSet.cpp

; 72   : {

  001e1	8d b7 50 09 00
	00		 lea	 esi, DWORD PTR [edi+2384]
  001e7	c6 45 fc 12	 mov	 BYTE PTR __$EHRec$[ebp+8], 18 ; 00000012H
; File C:\Program Files (x86)\Microsoft Visual Studio\2019\Community\VC\Tools\MSVC\14.29.30133\atlmfc\include\afxwin2.inl

; 851  : 	{ }

  001eb	8b ce		 mov	 ecx, esi
; File D:\git\src\IBK\IBK_DRFN\ProjSrc\SrcChartEx\ChartAddIn\ChartAnalysisToolAddIn\AnalysisTool\DlgFiboSet.cpp

; 72   : {

  001ed	89 75 ec	 mov	 DWORD PTR _this$[ebp], esi
; File C:\Program Files (x86)\Microsoft Visual Studio\2019\Community\VC\Tools\MSVC\14.29.30133\atlmfc\include\afxwin2.inl

; 851  : 	{ }

  001f0	e8 00 00 00 00	 call	 ??0CWnd@@QAE@XZ		; CWnd::CWnd
  001f5	c7 06 00 00 00
	00		 mov	 DWORD PTR [esi], OFFSET ??_7CEdit@@6B@
; File D:\git\src\IBK\IBK_DRFN\ProjSrc\SrcChartEx\ChartAddIn\ChartAnalysisToolAddIn\AnalysisTool\DlgFiboSet.cpp

; 72   : {

  001fb	8d b7 d0 09 00
	00		 lea	 esi, DWORD PTR [edi+2512]
  00201	c6 45 fc 13	 mov	 BYTE PTR __$EHRec$[ebp+8], 19 ; 00000013H
; File C:\Program Files (x86)\Microsoft Visual Studio\2019\Community\VC\Tools\MSVC\14.29.30133\atlmfc\include\afxwin2.inl

; 851  : 	{ }

  00205	8b ce		 mov	 ecx, esi
; File D:\git\src\IBK\IBK_DRFN\ProjSrc\SrcChartEx\ChartAddIn\ChartAnalysisToolAddIn\AnalysisTool\DlgFiboSet.cpp

; 72   : {

  00207	89 75 ec	 mov	 DWORD PTR _this$[ebp], esi
; File C:\Program Files (x86)\Microsoft Visual Studio\2019\Community\VC\Tools\MSVC\14.29.30133\atlmfc\include\afxwin2.inl

; 851  : 	{ }

  0020a	e8 00 00 00 00	 call	 ??0CWnd@@QAE@XZ		; CWnd::CWnd
  0020f	c7 06 00 00 00
	00		 mov	 DWORD PTR [esi], OFFSET ??_7CEdit@@6B@
; File D:\git\src\IBK\IBK_DRFN\ProjSrc\SrcChartEx\ChartAddIn\ChartAnalysisToolAddIn\AnalysisTool\DlgFiboSet.cpp

; 72   : {

  00215	8d b7 50 0a 00
	00		 lea	 esi, DWORD PTR [edi+2640]
  0021b	c6 45 fc 14	 mov	 BYTE PTR __$EHRec$[ebp+8], 20 ; 00000014H
; File C:\Program Files (x86)\Microsoft Visual Studio\2019\Community\VC\Tools\MSVC\14.29.30133\atlmfc\include\afxdtctl.inl

; 25   : 	{ }

  0021f	8b ce		 mov	 ecx, esi
; File D:\git\src\IBK\IBK_DRFN\ProjSrc\SrcChartEx\ChartAddIn\ChartAnalysisToolAddIn\AnalysisTool\DlgFiboSet.cpp

; 72   : {

  00221	89 75 ec	 mov	 DWORD PTR _this$[ebp], esi
; File C:\Program Files (x86)\Microsoft Visual Studio\2019\Community\VC\Tools\MSVC\14.29.30133\atlmfc\include\afxdtctl.inl

; 25   : 	{ }

  00224	e8 00 00 00 00	 call	 ??0CWnd@@QAE@XZ		; CWnd::CWnd
  00229	c7 06 00 00 00
	00		 mov	 DWORD PTR [esi], OFFSET ??_7CDateTimeCtrl@@6B@
; File D:\git\src\IBK\IBK_DRFN\ProjSrc\SrcChartEx\ChartAddIn\ChartAnalysisToolAddIn\AnalysisTool\DlgFiboSet.cpp

; 72   : {

  0022f	8d b7 d0 0a 00
	00		 lea	 esi, DWORD PTR [edi+2768]
  00235	c6 45 fc 15	 mov	 BYTE PTR __$EHRec$[ebp+8], 21 ; 00000015H
; File C:\Program Files (x86)\Microsoft Visual Studio\2019\Community\VC\Tools\MSVC\14.29.30133\atlmfc\include\afxdtctl.inl

; 25   : 	{ }

  00239	8b ce		 mov	 ecx, esi
; File D:\git\src\IBK\IBK_DRFN\ProjSrc\SrcChartEx\ChartAddIn\ChartAnalysisToolAddIn\AnalysisTool\DlgFiboSet.cpp

; 72   : {

  0023b	89 75 ec	 mov	 DWORD PTR _this$[ebp], esi
; File C:\Program Files (x86)\Microsoft Visual Studio\2019\Community\VC\Tools\MSVC\14.29.30133\atlmfc\include\afxdtctl.inl

; 25   : 	{ }

  0023e	e8 00 00 00 00	 call	 ??0CWnd@@QAE@XZ		; CWnd::CWnd
  00243	c7 06 00 00 00
	00		 mov	 DWORD PTR [esi], OFFSET ??_7CDateTimeCtrl@@6B@
; File D:\git\src\IBK\IBK_DRFN\ProjSrc\SrcChartEx\ChartAddIn\ChartAnalysisToolAddIn\AnalysisTool\DlgFiboSet.cpp

; 72   : {

  00249	8d b7 50 0b 00
	00		 lea	 esi, DWORD PTR [edi+2896]
  0024f	c6 45 fc 16	 mov	 BYTE PTR __$EHRec$[ebp+8], 22 ; 00000016H
; File C:\Program Files (x86)\Microsoft Visual Studio\2019\Community\VC\Tools\MSVC\14.29.30133\atlmfc\include\afxdtctl.inl

; 25   : 	{ }

  00253	8b ce		 mov	 ecx, esi
; File D:\git\src\IBK\IBK_DRFN\ProjSrc\SrcChartEx\ChartAddIn\ChartAnalysisToolAddIn\AnalysisTool\DlgFiboSet.cpp

; 72   : {

  00255	89 75 ec	 mov	 DWORD PTR _this$[ebp], esi
; File C:\Program Files (x86)\Microsoft Visual Studio\2019\Community\VC\Tools\MSVC\14.29.30133\atlmfc\include\afxdtctl.inl

; 25   : 	{ }

  00258	e8 00 00 00 00	 call	 ??0CWnd@@QAE@XZ		; CWnd::CWnd
  0025d	c7 06 00 00 00
	00		 mov	 DWORD PTR [esi], OFFSET ??_7CDateTimeCtrl@@6B@
; File D:\git\src\IBK\IBK_DRFN\ProjSrc\SrcChartEx\ChartAddIn\ChartAnalysisToolAddIn\AnalysisTool\DlgFiboSet.cpp

; 72   : {

  00263	8d 8f e8 0b 00
	00		 lea	 ecx, DWORD PTR [edi+3048]
; File D:\git\src\IBK\IBK_DRFN\ProjSrc\SrcChartEx\ChartAddIn\ChartAnalysisToolAddIn\Include_Chart\BlockBaseData.h

; 19   : 	CBlockIndex() { m_nRow = m_nColumn = -1; };

  00269	c7 87 e4 0b 00
	00 ff ff ff ff	 mov	 DWORD PTR [edi+3044], -1
  00273	c7 87 e0 0b 00
	00 ff ff ff ff	 mov	 DWORD PTR [edi+3040], -1
; File D:\git\src\IBK\IBK_DRFN\ProjSrc\SrcChartEx\ChartAddIn\ChartAnalysisToolAddIn\AnalysisTool\DlgFiboSet.cpp

; 72   : {

  0027d	ff 15 00 00 00
	00		 call	 DWORD PTR __imp_??0?$CStringT@DV?$StrTraitMFC_DLL@DV?$ChTraitsCRT@D@ATL@@@@@ATL@@QAE@XZ

; 62   : 	m_strUserPath(strUserPath),

  00283	ff 75 0c	 push	 DWORD PTR _strUserPath$[ebp]
  00286	8d 8f ec 0b 00
	00		 lea	 ecx, DWORD PTR [edi+3052]
  0028c	c6 45 fc 18	 mov	 BYTE PTR __$EHRec$[ebp+8], 24 ; 00000018H
  00290	ff 15 00 00 00
	00		 call	 DWORD PTR __imp_??0?$CStringT@DV?$StrTraitMFC_DLL@DV?$ChTraitsCRT@D@ATL@@@@@ATL@@QAE@ABV01@@Z

; 63   : 	m_nDataPeriod(nDataPeriod),

  00296	8b 45 10	 mov	 eax, DWORD PTR _nDataPeriod$[ebp]
  00299	8d 8f 60 0c 00
	00		 lea	 ecx, DWORD PTR [edi+3168]
  0029f	8b 00		 mov	 eax, DWORD PTR [eax]
  002a1	89 87 f0 0b 00
	00		 mov	 DWORD PTR [edi+3056], eax
  002a7	ff 15 00 00 00
	00		 call	 DWORD PTR __imp_??0?$CStringT@DV?$StrTraitMFC_DLL@DV?$ChTraitsCRT@D@ATL@@@@@ATL@@QAE@XZ

; 72   : {

  002ad	8b 75 28	 mov	 esi, DWORD PTR _pElementPointList$[ebp]
  002b0	8d 8f 68 0c 00
	00		 lea	 ecx, DWORD PTR [edi+3176]
  002b6	56		 push	 esi
  002b7	c6 45 fc 1a	 mov	 BYTE PTR __$EHRec$[ebp+8], 26 ; 0000001aH
  002bb	e8 00 00 00 00	 call	 ??0CElementPointList@@QAE@ABV0@@Z

; 64   : 	m_pPenEnvironment(pPenEnvironment),

  002c0	8b 45 24	 mov	 eax, DWORD PTR _pPenEnvironment$[ebp]

; 72   : {

  002c3	8d 8f c4 0c 00
	00		 lea	 ecx, DWORD PTR [edi+3268]
  002c9	89 b7 88 0c 00
	00		 mov	 DWORD PTR [edi+3208], esi
  002cf	89 9f 9c 0c 00
	00		 mov	 DWORD PTR [edi+3228], ebx
  002d5	89 87 a4 0c 00
	00		 mov	 DWORD PTR [edi+3236], eax
  002db	f3 0f 7e 00	 movq	 xmm0, QWORD PTR [eax]
  002df	66 0f d6 87 a8
	0c 00 00	 movq	 QWORD PTR [edi+3240], xmm0
  002e7	8b 40 08	 mov	 eax, DWORD PTR [eax+8]
  002ea	c6 45 fc 1b	 mov	 BYTE PTR __$EHRec$[ebp+8], 27 ; 0000001bH
  002ee	89 87 b0 0c 00
	00		 mov	 DWORD PTR [edi+3248], eax
  002f4	e8 00 00 00 00	 call	 ??0CTextShowPosition@@QAE@XZ ; CTextShowPosition::CTextShowPosition
  002f9	8d 8f d0 0c 00
	00		 lea	 ecx, DWORD PTR [edi+3280]
  002ff	e8 00 00 00 00	 call	 ??0CTextHorzPosition@@QAE@XZ ; CTextHorzPosition::CTextHorzPosition
  00304	8d 8f dc 0c 00
	00		 lea	 ecx, DWORD PTR [edi+3292]
  0030a	e8 00 00 00 00	 call	 ??0CTextVertPosition@@QAE@XZ ; CTextVertPosition::CTextVertPosition
  0030f	8d 8f e8 0c 00
	00		 lea	 ecx, DWORD PTR [edi+3304]
  00315	e8 00 00 00 00	 call	 ??0CTextHorzVertPosition@@QAE@XZ ; CTextHorzVertPosition::CTextHorzVertPosition
  0031a	8d 8f f8 0c 00
	00		 lea	 ecx, DWORD PTR [edi+3320]
  00320	e8 00 00 00 00	 call	 ??0CLineExtEnvironment@@QAE@XZ ; CLineExtEnvironment::CLineExtEnvironment

; 65   : 	m_basePenEnvironment(*pPenEnvironment),
; 66   : 	m_pElementPointList(pElementPointList),
; 67   : 	m_baseElementPointList(*pElementPointList),
; 68   : 	m_pEquiDivEnvironment(pEquiDivType),

  00325	8b 45 18	 mov	 eax, DWORD PTR _pEquiDivType$[ebp]
  00328	89 87 00 0d 00
	00		 mov	 DWORD PTR [edi+3328], eax

; 69   : 	m_baseEquiDivEnvironment(*pEquiDivType),

  0032e	8b 00		 mov	 eax, DWORD PTR [eax]
  00330	89 87 04 0d 00
	00		 mov	 DWORD PTR [edi+3332], eax

; 70   : 	m_pPriceRangeDivEnvironment( pPriceRangeDivType),	// (2008/8/15 - Seung-Won, Bae) Add option for using price range.

  00336	8b 45 1c	 mov	 eax, DWORD PTR _pPriceRangeDivType$[ebp]
  00339	89 87 08 0d 00
	00		 mov	 DWORD PTR [edi+3336], eax

; 71   : 	m_basePriceRangeDivEnvironment(*pPriceRangeDivType)

  0033f	8b 00		 mov	 eax, DWORD PTR [eax]
  00341	89 87 0c 0d 00
	00		 mov	 DWORD PTR [edi+3340], eax

; 76   : 	//}}AFX_DATA_INIT
; 77   : 
; 78   : 	// 2011.02.08 by SYS >>  YYYY()  : / 14Byte  (YYYYMMDDhhmmss)
; 79   : 	m_pIChartOCX	= p_pIChartOCX;

  00347	8b 45 34	 mov	 eax, DWORD PTR _p_pIChartOCX$[ebp]
  0034a	89 87 dc 0b 00
	00		 mov	 DWORD PTR [edi+3036], eax
; File D:\git\src\IBK\IBK_DRFN\ProjSrc\SrcChartEx\ChartAddIn\ChartAnalysisToolAddIn\Include_Chart\BlockBaseData.h

; 32   : 	bool IsAllValueBiggerThanZero() const { return (m_nRow >= 0 && m_nColumn >= 0); };

  00350	8b 45 38	 mov	 eax, DWORD PTR _blockIndex$[ebp]
; File D:\git\src\IBK\IBK_DRFN\ProjSrc\SrcChartEx\ChartAddIn\ChartAnalysisToolAddIn\AnalysisTool\DlgFiboSet.cpp

; 74   : 	m_nWidth = 0;

  00353	c7 87 d0 0b 00
	00 00 00 00 00	 mov	 DWORD PTR [edi+3024], 0

; 75   : 	m_nStyle = 0;

  0035d	c7 87 d4 0b 00
	00 00 00 00 00	 mov	 DWORD PTR [edi+3028], 0
; File D:\git\src\IBK\IBK_DRFN\ProjSrc\SrcChartEx\ChartAddIn\ChartAnalysisToolAddIn\Include_Chart\BlockBaseData.h

; 32   : 	bool IsAllValueBiggerThanZero() const { return (m_nRow >= 0 && m_nColumn >= 0); };

  00367	8b 10		 mov	 edx, DWORD PTR [eax]
  00369	85 d2		 test	 edx, edx
  0036b	78 15		 js	 SHORT $LN2@CDlgFiboSe
  0036d	83 78 04 00	 cmp	 DWORD PTR [eax+4], 0
  00371	7c 0f		 jl	 SHORT $LN2@CDlgFiboSe
; File D:\git\src\IBK\IBK_DRFN\ProjSrc\SrcChartEx\ChartAddIn\ChartAnalysisToolAddIn\AnalysisTool\DlgFiboSet.cpp

; 84   :  		m_blockIndex.SetColumn(blockIndex.GetColumn());

  00373	89 97 e0 0b 00
	00		 mov	 DWORD PTR [edi+3040], edx
  00379	8b 40 04	 mov	 eax, DWORD PTR [eax+4]
  0037c	89 87 e4 0b 00
	00		 mov	 DWORD PTR [edi+3044], eax
$LN2@CDlgFiboSe:

; 85   :  	}
; 86   : 
; 87   : 	m_strFormatX	= strFormatX;

  00382	8d 45 3c	 lea	 eax, DWORD PTR _strFormatX$[ebp]
  00385	50		 push	 eax
  00386	8d 8f e8 0b 00
	00		 lea	 ecx, DWORD PTR [edi+3048]
  0038c	ff 15 00 00 00
	00		 call	 DWORD PTR __imp_??4?$CStringT@DV?$StrTraitMFC_DLL@DV?$ChTraitsCRT@D@ATL@@@@@ATL@@QAEAAV01@ABV01@@Z

; 88   : 	// 2011.02.08 by SYS <<
; 89   : 
; 90   : 	
; 91   : 	m_nTextPosType			= G_TEXT_POS_NONE;
; 92   : 	m_nLineExtType			= G_LINE_EXT_NONE;
; 93   : 	m_nEquiDivLine			= G_EQUI_DIV_NONE;
; 94   : 	m_nPriceRangeDivLine	= G_PRICE_RANGE_DIV_NONE;	// (2008/8/15 - Seung-Won, Bae) Add option for using price range.
; 95   : 	m_nElementType			= nElementType;

  00392	8b 55 14	 mov	 edx, DWORD PTR _nElementType$[ebp]

; 96   : 	m_pDataEnvironment		= pDataEnvironment;

  00395	8b 45 30	 mov	 eax, DWORD PTR _pDataEnvironment$[ebp]
  00398	c7 87 8c 0c 00
	00 ff ff ff ff	 mov	 DWORD PTR [edi+3212], -1
  003a2	c7 87 90 0c 00
	00 ff ff ff ff	 mov	 DWORD PTR [edi+3216], -1
  003ac	c7 87 94 0c 00
	00 ff ff ff ff	 mov	 DWORD PTR [edi+3220], -1
  003b6	c7 87 98 0c 00
	00 ff ff ff ff	 mov	 DWORD PTR [edi+3224], -1
  003c0	89 97 a0 0c 00
	00		 mov	 DWORD PTR [edi+3232], edx
  003c6	89 87 d8 0b 00
	00		 mov	 DWORD PTR [edi+3032], eax

; 983  : 	if(m_nElementType == CToolEnumData::Cross_Line)

  003cc	83 fa 01	 cmp	 edx, 1
  003cf	75 24		 jne	 SHORT $LN101@CDlgFiboSe

; 984  : 	{
; 985  : 		m_pTextPosition = NULL;
; 986  : 		m_pTextHPosition = NULL;
; 987  : 		m_pTextVPosition = NULL;
; 988  : 		
; 989  : 		m_pTextHVPosition = (CTextHorzVertPosition *)pTextPosition;

  003d1	8b 45 20	 mov	 eax, DWORD PTR _pTextPosition$[ebp]

; 990  : 		m_baseTextHVPosition.Set(pTextPosition);

  003d4	8d 8f e8 0c 00
	00		 lea	 ecx, DWORD PTR [edi+3304]
  003da	8b 97 e8 0c 00
	00		 mov	 edx, DWORD PTR [edi+3304]
  003e0	c7 87 b4 0c 00
	00 00 00 00 00	 mov	 DWORD PTR [edi+3252], 0
  003ea	89 87 c0 0c 00
	00		 mov	 DWORD PTR [edi+3264], eax

; 991  : 	}

  003f0	e9 19 01 00 00	 jmp	 $LN119@CDlgFiboSe
$LN101@CDlgFiboSe:

; 992  : 	else if(m_nElementType == CToolEnumData::Vert_Line)

  003f5	83 fa 03	 cmp	 edx, 3
  003f8	75 2e		 jne	 SHORT $LN103@CDlgFiboSe

; 993  : 	{
; 994  : 		m_pTextPosition = NULL;
; 995  : 		m_pTextHPosition = NULL;
; 996  : 		m_pTextHVPosition = NULL;
; 997  : 		
; 998  : 		m_pTextVPosition = (CTextVertPosition *)pTextPosition;

  003fa	8b 45 20	 mov	 eax, DWORD PTR _pTextPosition$[ebp]

; 999  : 		m_baseTextVPosition.Set(pTextPosition);

  003fd	8d 8f dc 0c 00
	00		 lea	 ecx, DWORD PTR [edi+3292]
  00403	8b 97 dc 0c 00
	00		 mov	 edx, DWORD PTR [edi+3292]
  00409	c7 87 b4 0c 00
	00 00 00 00 00	 mov	 DWORD PTR [edi+3252], 0
  00413	c7 87 c0 0c 00
	00 00 00 00 00	 mov	 DWORD PTR [edi+3264], 0
  0041d	89 87 bc 0c 00
	00		 mov	 DWORD PTR [edi+3260], eax

; 1000 : 	}

  00423	e9 f0 00 00 00	 jmp	 $LN120@CDlgFiboSe
$LN103@CDlgFiboSe:

; 1001 : 	else if(m_nElementType == CToolEnumData::Fibo_Retrace	||
; 1002 : 			m_nElementType == CToolEnumData::Fibo_Semicircle	||
; 1003 : 			m_nElementType == CToolEnumData::Fibo_Circle	||
; 1004 : 			m_nElementType == CToolEnumData::Fibo_Fan_Line	||
; 1005 : 			m_nElementType == CToolEnumData::Fibo_Time	||	// 2008.08.20   Text  
; 1006 : 			m_nElementType == CToolEnumData::Angle_Line		||
; 1007 : 			m_nElementType == CToolEnumData::Candle_Line	||
; 1008 : 			m_nElementType == CToolEnumData::Gann_Fan1	||
; 1009 : 			m_nElementType == CToolEnumData::Gann_Fan2	||
; 1010 : 			m_nElementType == CToolEnumData::Gann_Fan3	||

  00428	83 fa 0b	 cmp	 edx, 11			; 0000000bH
  0042b	0f 84 c2 00 00
	00		 je	 $LN107@CDlgFiboSe
  00431	83 fa 08	 cmp	 edx, 8
  00434	0f 84 b9 00 00
	00		 je	 $LN107@CDlgFiboSe
  0043a	83 fa 09	 cmp	 edx, 9
  0043d	0f 84 b0 00 00
	00		 je	 $LN107@CDlgFiboSe
  00443	83 fa 0a	 cmp	 edx, 10			; 0000000aH
  00446	0f 84 a7 00 00
	00		 je	 $LN107@CDlgFiboSe
  0044c	83 fa 0c	 cmp	 edx, 12			; 0000000cH
  0044f	0f 84 9e 00 00
	00		 je	 $LN107@CDlgFiboSe
  00455	83 fa 1d	 cmp	 edx, 29			; 0000001dH
  00458	0f 84 95 00 00
	00		 je	 $LN107@CDlgFiboSe
  0045e	83 fa 1e	 cmp	 edx, 30			; 0000001eH
  00461	0f 84 8c 00 00
	00		 je	 $LN107@CDlgFiboSe
  00467	83 fa 0f	 cmp	 edx, 15			; 0000000fH
  0046a	0f 84 83 00 00
	00		 je	 $LN107@CDlgFiboSe
  00470	83 fa 10	 cmp	 edx, 16			; 00000010H
  00473	74 7e		 je	 SHORT $LN107@CDlgFiboSe
  00475	83 fa 11	 cmp	 edx, 17			; 00000011H
  00478	74 79		 je	 SHORT $LN107@CDlgFiboSe
  0047a	83 fa 12	 cmp	 edx, 18			; 00000012H
  0047d	74 74		 je	 SHORT $LN107@CDlgFiboSe

; 1019 : 	}
; 1020 : 	else if(m_nElementType == CToolEnumData::Line		||
; 1021 : 			m_nElementType == CToolEnumData::Horz_Line	||
; 1022 : 			m_nElementType == CToolEnumData::Trisection	||
; 1023 : 			m_nElementType == CToolEnumData::Quadrisect	||

  0047f	83 fa 05	 cmp	 edx, 5
  00482	74 3e		 je	 SHORT $LN110@CDlgFiboSe
  00484	83 fa 04	 cmp	 edx, 4
  00487	74 39		 je	 SHORT $LN110@CDlgFiboSe
  00489	83 fa 06	 cmp	 edx, 6
  0048c	74 34		 je	 SHORT $LN110@CDlgFiboSe
  0048e	83 fa 07	 cmp	 edx, 7
  00491	74 2f		 je	 SHORT $LN110@CDlgFiboSe
  00493	83 fa 21	 cmp	 edx, 33			; 00000021H
  00496	74 2a		 je	 SHORT $LN110@CDlgFiboSe

; 1033 : 	else		//NoText
; 1034 : 	{
; 1035 : 		m_pTextPosition = NULL;

  00498	c7 87 b4 0c 00
	00 00 00 00 00	 mov	 DWORD PTR [edi+3252], 0

; 1036 : 		m_pTextVPosition = NULL;

  004a2	c7 87 bc 0c 00
	00 00 00 00 00	 mov	 DWORD PTR [edi+3260], 0

; 1037 : 		m_pTextHPosition = NULL;

  004ac	c7 87 b8 0c 00
	00 00 00 00 00	 mov	 DWORD PTR [edi+3256], 0

; 1038 : 		m_pTextHVPosition = NULL;

  004b6	c7 87 c0 0c 00
	00 00 00 00 00	 mov	 DWORD PTR [edi+3264], 0
  004c0	eb 63		 jmp	 SHORT $LN109@CDlgFiboSe
$LN110@CDlgFiboSe:

; 1024 : 			m_nElementType == CToolEnumData::Period_Summary)
; 1025 : 	{
; 1026 : 		m_pTextPosition = NULL;
; 1027 : 		m_pTextVPosition = NULL;
; 1028 : 		m_pTextHVPosition = NULL;
; 1029 : 
; 1030 : 		m_pTextHPosition = (CTextHorzPosition *)pTextPosition;

  004c2	8b 45 20	 mov	 eax, DWORD PTR _pTextPosition$[ebp]

; 1031 : 		m_baseTextHPosition.Set(pTextPosition);

  004c5	8d 8f d0 0c 00
	00		 lea	 ecx, DWORD PTR [edi+3280]
  004cb	8b 11		 mov	 edx, DWORD PTR [ecx]
  004cd	c7 87 b4 0c 00
	00 00 00 00 00	 mov	 DWORD PTR [edi+3252], 0
  004d7	c7 87 bc 0c 00
	00 00 00 00 00	 mov	 DWORD PTR [edi+3260], 0
  004e1	c7 87 c0 0c 00
	00 00 00 00 00	 mov	 DWORD PTR [edi+3264], 0
  004eb	89 87 b8 0c 00
	00		 mov	 DWORD PTR [edi+3256], eax

; 1032 : 	}

  004f1	eb 2f		 jmp	 SHORT $LN121@CDlgFiboSe
$LN107@CDlgFiboSe:

; 1011 : 			m_nElementType == CToolEnumData::Gann_Fan4)
; 1012 : 	{
; 1013 : 		m_pTextVPosition = NULL;
; 1014 : 		m_pTextHPosition = NULL;
; 1015 : 		m_pTextHVPosition = NULL;
; 1016 : 		
; 1017 : 		m_pTextPosition = (CTextShowPosition *)pTextPosition;

  004f3	8b 45 20	 mov	 eax, DWORD PTR _pTextPosition$[ebp]

; 1018 : 		m_baseTextPosition.Set(pTextPosition);

  004f6	8d 8f c4 0c 00
	00		 lea	 ecx, DWORD PTR [edi+3268]
  004fc	8b 11		 mov	 edx, DWORD PTR [ecx]
  004fe	c7 87 c0 0c 00
	00 00 00 00 00	 mov	 DWORD PTR [edi+3264], 0
  00508	89 87 b4 0c 00
	00		 mov	 DWORD PTR [edi+3252], eax
$LN119@CDlgFiboSe:

; 97   : 
; 98   : 	SetInitTextPosition(pTextPosition);
; 99   : 	
; 100  : 	m_pLineExtEnvironment = pLineExtEnvironment;

  0050e	c7 87 bc 0c 00
	00 00 00 00 00	 mov	 DWORD PTR [edi+3260], 0
$LN120@CDlgFiboSe:
  00518	c7 87 b8 0c 00
	00 00 00 00 00	 mov	 DWORD PTR [edi+3256], 0
$LN121@CDlgFiboSe:
  00522	50		 push	 eax
  00523	ff 12		 call	 DWORD PTR [edx]
$LN109@CDlgFiboSe:
  00525	8b 45 2c	 mov	 eax, DWORD PTR _pLineExtEnvironment$[ebp]

; 101  : 	m_baseLineExtEnvironment.Set(pLineExtEnvironment);

  00528	8d 4d e8	 lea	 ecx, DWORD PTR $T2[ebp]
  0052b	50		 push	 eax
  0052c	89 87 f4 0c 00
	00		 mov	 DWORD PTR [edi+3316], eax
  00532	e8 00 00 00 00	 call	 ??0CLineExtEnvironment@@QAE@PAV0@@Z ; CLineExtEnvironment::CLineExtEnvironment
  00537	8d 45 e8	 lea	 eax, DWORD PTR $T2[ebp]
  0053a	50		 push	 eax
  0053b	8d 8f f8 0c 00
	00		 lea	 ecx, DWORD PTR [edi+3320]
  00541	e8 00 00 00 00	 call	 ?Set@CLineExtEnvironment@@QAEXABV1@@Z ; CLineExtEnvironment::Set

; 103  : 	m_hOcxWnd = ( pParent ? pParent->GetSafeHwnd() : NULL);

  00546	8b 45 08	 mov	 eax, DWORD PTR _pParent$[ebp]
  00549	85 c0		 test	 eax, eax
  0054b	74 05		 je	 SHORT $LN4@CDlgFiboSe
; File C:\Program Files (x86)\Microsoft Visual Studio\2019\Community\VC\Tools\MSVC\14.29.30133\atlmfc\include\afxwin2.inl

; 25   : 	{ return this == NULL ? NULL : m_hWnd; }

  0054d	8b 40 20	 mov	 eax, DWORD PTR [eax+32]
; File D:\git\src\IBK\IBK_DRFN\ProjSrc\SrcChartEx\ChartAddIn\ChartAnalysisToolAddIn\AnalysisTool\DlgFiboSet.cpp

; 103  : 	m_hOcxWnd = ( pParent ? pParent->GetSafeHwnd() : NULL);

  00550	eb 02		 jmp	 SHORT $LN5@CDlgFiboSe
$LN4@CDlgFiboSe:
  00552	33 c0		 xor	 eax, eax
$LN5@CDlgFiboSe:

; 104  : }

  00554	8d 4d 3c	 lea	 ecx, DWORD PTR _strFormatX$[ebp]
  00557	89 87 10 0d 00
	00		 mov	 DWORD PTR [edi+3344], eax
  0055d	ff 15 00 00 00
	00		 call	 DWORD PTR __imp_??1?$CStringT@DV?$StrTraitMFC_DLL@DV?$ChTraitsCRT@D@ATL@@@@@ATL@@QAE@XZ
  00563	8b c7		 mov	 eax, edi
  00565	8b 4d f4	 mov	 ecx, DWORD PTR __$EHRec$[ebp]
  00568	64 89 0d 00 00
	00 00		 mov	 DWORD PTR fs:0, ecx
  0056f	59		 pop	 ecx
  00570	5f		 pop	 edi
  00571	5e		 pop	 esi
  00572	5b		 pop	 ebx
  00573	8b e5		 mov	 esp, ebp
  00575	5d		 pop	 ebp
  00576	c2 38 00	 ret	 56			; 00000038H
_TEXT	ENDS
;	COMDAT text$x
text$x	SEGMENT
__unwindfunclet$??0CDlgFiboSet@@QAE@PAVCWnd@@ABV?$CStringT@DV?$StrTraitMFC_DLL@DV?$ChTraitsCRT@D@ATL@@@@@ATL@@ABW4HORZSCALEDRAWERTYPE@CScaleBaseData@@HPAH3PAVCTextPosition@@PAVCPenEnvironment@@PAVCElementPointList@@PAVCLineExtEnvironment@@PAVCDataTypeEnvironment@@PAUIChartOCX133101@@AAVCBlockIndex@@V23@@Z$0:
  00000	8d 4d 3c	 lea	 ecx, DWORD PTR _strFormatX$[ebp]
  00003	ff 25 00 00 00
	00		 jmp	 DWORD PTR __imp_??1?$CStringT@DV?$StrTraitMFC_DLL@DV?$ChTraitsCRT@D@ATL@@@@@ATL@@QAE@XZ
__unwindfunclet$??0CDlgFiboSet@@QAE@PAVCWnd@@ABV?$CStringT@DV?$StrTraitMFC_DLL@DV?$ChTraitsCRT@D@ATL@@@@@ATL@@ABW4HORZSCALEDRAWERTYPE@CScaleBaseData@@HPAH3PAVCTextPosition@@PAVCPenEnvironment@@PAVCElementPointList@@PAVCLineExtEnvironment@@PAVCDataTypeEnvironment@@PAUIChartOCX133101@@AAVCBlockIndex@@V23@@Z$1:
  00009	8b 4d f0	 mov	 ecx, DWORD PTR _this$[ebp]
  0000c	e9 00 00 00 00	 jmp	 ??1CDialog@@UAE@XZ	; CDialog::~CDialog
__unwindfunclet$??0CDlgFiboSet@@QAE@PAVCWnd@@ABV?$CStringT@DV?$StrTraitMFC_DLL@DV?$ChTraitsCRT@D@ATL@@@@@ATL@@ABW4HORZSCALEDRAWERTYPE@CScaleBaseData@@HPAH3PAVCTextPosition@@PAVCPenEnvironment@@PAVCElementPointList@@PAVCLineExtEnvironment@@PAVCDataTypeEnvironment@@PAUIChartOCX133101@@AAVCBlockIndex@@V23@@Z$2:
  00011	8b 4d f0	 mov	 ecx, DWORD PTR _this$[ebp]
  00014	81 c1 a8 00 00
	00		 add	 ecx, 168		; 000000a8H
  0001a	e9 00 00 00 00	 jmp	 ??1CButton@@UAE@XZ	; CButton::~CButton
__unwindfunclet$??0CDlgFiboSet@@QAE@PAVCWnd@@ABV?$CStringT@DV?$StrTraitMFC_DLL@DV?$ChTraitsCRT@D@ATL@@@@@ATL@@ABW4HORZSCALEDRAWERTYPE@CScaleBaseData@@HPAH3PAVCTextPosition@@PAVCPenEnvironment@@PAVCElementPointList@@PAVCLineExtEnvironment@@PAVCDataTypeEnvironment@@PAUIChartOCX133101@@AAVCBlockIndex@@V23@@Z$3:
  0001f	8b 4d f0	 mov	 ecx, DWORD PTR _this$[ebp]
  00022	81 c1 28 01 00
	00		 add	 ecx, 296		; 00000128H
  00028	e9 00 00 00 00	 jmp	 ??1CBitmapComboBox@@UAE@XZ
__unwindfunclet$??0CDlgFiboSet@@QAE@PAVCWnd@@ABV?$CStringT@DV?$StrTraitMFC_DLL@DV?$ChTraitsCRT@D@ATL@@@@@ATL@@ABW4HORZSCALEDRAWERTYPE@CScaleBaseData@@HPAH3PAVCTextPosition@@PAVCPenEnvironment@@PAVCElementPointList@@PAVCLineExtEnvironment@@PAVCDataTypeEnvironment@@PAUIChartOCX133101@@AAVCBlockIndex@@V23@@Z$4:
  0002d	8b 4d f0	 mov	 ecx, DWORD PTR _this$[ebp]
  00030	81 c1 b8 01 00
	00		 add	 ecx, 440		; 000001b8H
  00036	e9 00 00 00 00	 jmp	 ??1CBitmapComboBox@@UAE@XZ
__unwindfunclet$??0CDlgFiboSet@@QAE@PAVCWnd@@ABV?$CStringT@DV?$StrTraitMFC_DLL@DV?$ChTraitsCRT@D@ATL@@@@@ATL@@ABW4HORZSCALEDRAWERTYPE@CScaleBaseData@@HPAH3PAVCTextPosition@@PAVCPenEnvironment@@PAVCElementPointList@@PAVCLineExtEnvironment@@PAVCDataTypeEnvironment@@PAUIChartOCX133101@@AAVCBlockIndex@@V23@@Z$5:
  0003b	8b 4d f0	 mov	 ecx, DWORD PTR _this$[ebp]
  0003e	81 c1 48 02 00
	00		 add	 ecx, 584		; 00000248H
  00044	e9 00 00 00 00	 jmp	 ??1CColorButton@@UAE@XZ
__unwindfunclet$??0CDlgFiboSet@@QAE@PAVCWnd@@ABV?$CStringT@DV?$StrTraitMFC_DLL@DV?$ChTraitsCRT@D@ATL@@@@@ATL@@ABW4HORZSCALEDRAWERTYPE@CScaleBaseData@@HPAH3PAVCTextPosition@@PAVCPenEnvironment@@PAVCElementPointList@@PAVCLineExtEnvironment@@PAVCDataTypeEnvironment@@PAUIChartOCX133101@@AAVCBlockIndex@@V23@@Z$6:
  00049	8b 4d f0	 mov	 ecx, DWORD PTR _this$[ebp]
  0004c	81 c1 d0 02 00
	00		 add	 ecx, 720		; 000002d0H
  00052	e9 00 00 00 00	 jmp	 ??1CButton@@UAE@XZ	; CButton::~CButton
__unwindfunclet$??0CDlgFiboSet@@QAE@PAVCWnd@@ABV?$CStringT@DV?$StrTraitMFC_DLL@DV?$ChTraitsCRT@D@ATL@@@@@ATL@@ABW4HORZSCALEDRAWERTYPE@CScaleBaseData@@HPAH3PAVCTextPosition@@PAVCPenEnvironment@@PAVCElementPointList@@PAVCLineExtEnvironment@@PAVCDataTypeEnvironment@@PAUIChartOCX133101@@AAVCBlockIndex@@V23@@Z$7:
  00057	8b 4d f0	 mov	 ecx, DWORD PTR _this$[ebp]
  0005a	81 c1 50 03 00
	00		 add	 ecx, 848		; 00000350H
  00060	e9 00 00 00 00	 jmp	 ??1CButton@@UAE@XZ	; CButton::~CButton
__unwindfunclet$??0CDlgFiboSet@@QAE@PAVCWnd@@ABV?$CStringT@DV?$StrTraitMFC_DLL@DV?$ChTraitsCRT@D@ATL@@@@@ATL@@ABW4HORZSCALEDRAWERTYPE@CScaleBaseData@@HPAH3PAVCTextPosition@@PAVCPenEnvironment@@PAVCElementPointList@@PAVCLineExtEnvironment@@PAVCDataTypeEnvironment@@PAUIChartOCX133101@@AAVCBlockIndex@@V23@@Z$8:
  00065	8b 4d f0	 mov	 ecx, DWORD PTR _this$[ebp]
  00068	81 c1 d0 03 00
	00		 add	 ecx, 976		; 000003d0H
  0006e	e9 00 00 00 00	 jmp	 ??1CButton@@UAE@XZ	; CButton::~CButton
__unwindfunclet$??0CDlgFiboSet@@QAE@PAVCWnd@@ABV?$CStringT@DV?$StrTraitMFC_DLL@DV?$ChTraitsCRT@D@ATL@@@@@ATL@@ABW4HORZSCALEDRAWERTYPE@CScaleBaseData@@HPAH3PAVCTextPosition@@PAVCPenEnvironment@@PAVCElementPointList@@PAVCLineExtEnvironment@@PAVCDataTypeEnvironment@@PAUIChartOCX133101@@AAVCBlockIndex@@V23@@Z$9:
  00073	8b 4d f0	 mov	 ecx, DWORD PTR _this$[ebp]
  00076	81 c1 50 04 00
	00		 add	 ecx, 1104		; 00000450H
  0007c	e9 00 00 00 00	 jmp	 ??1CButton@@UAE@XZ	; CButton::~CButton
__unwindfunclet$??0CDlgFiboSet@@QAE@PAVCWnd@@ABV?$CStringT@DV?$StrTraitMFC_DLL@DV?$ChTraitsCRT@D@ATL@@@@@ATL@@ABW4HORZSCALEDRAWERTYPE@CScaleBaseData@@HPAH3PAVCTextPosition@@PAVCPenEnvironment@@PAVCElementPointList@@PAVCLineExtEnvironment@@PAVCDataTypeEnvironment@@PAUIChartOCX133101@@AAVCBlockIndex@@V23@@Z$10:
  00081	8b 4d f0	 mov	 ecx, DWORD PTR _this$[ebp]
  00084	81 c1 d0 04 00
	00		 add	 ecx, 1232		; 000004d0H
  0008a	e9 00 00 00 00	 jmp	 ??1CButton@@UAE@XZ	; CButton::~CButton
__unwindfunclet$??0CDlgFiboSet@@QAE@PAVCWnd@@ABV?$CStringT@DV?$StrTraitMFC_DLL@DV?$ChTraitsCRT@D@ATL@@@@@ATL@@ABW4HORZSCALEDRAWERTYPE@CScaleBaseData@@HPAH3PAVCTextPosition@@PAVCPenEnvironment@@PAVCElementPointList@@PAVCLineExtEnvironment@@PAVCDataTypeEnvironment@@PAUIChartOCX133101@@AAVCBlockIndex@@V23@@Z$11:
  0008f	8b 4d f0	 mov	 ecx, DWORD PTR _this$[ebp]
  00092	81 c1 50 05 00
	00		 add	 ecx, 1360		; 00000550H
  00098	e9 00 00 00 00	 jmp	 ??1CButton@@UAE@XZ	; CButton::~CButton
__unwindfunclet$??0CDlgFiboSet@@QAE@PAVCWnd@@ABV?$CStringT@DV?$StrTraitMFC_DLL@DV?$ChTraitsCRT@D@ATL@@@@@ATL@@ABW4HORZSCALEDRAWERTYPE@CScaleBaseData@@HPAH3PAVCTextPosition@@PAVCPenEnvironment@@PAVCElementPointList@@PAVCLineExtEnvironment@@PAVCDataTypeEnvironment@@PAUIChartOCX133101@@AAVCBlockIndex@@V23@@Z$12:
  0009d	8b 4d f0	 mov	 ecx, DWORD PTR _this$[ebp]
  000a0	81 c1 d0 05 00
	00		 add	 ecx, 1488		; 000005d0H
  000a6	e9 00 00 00 00	 jmp	 ??1CButton@@UAE@XZ	; CButton::~CButton
__unwindfunclet$??0CDlgFiboSet@@QAE@PAVCWnd@@ABV?$CStringT@DV?$StrTraitMFC_DLL@DV?$ChTraitsCRT@D@ATL@@@@@ATL@@ABW4HORZSCALEDRAWERTYPE@CScaleBaseData@@HPAH3PAVCTextPosition@@PAVCPenEnvironment@@PAVCElementPointList@@PAVCLineExtEnvironment@@PAVCDataTypeEnvironment@@PAUIChartOCX133101@@AAVCBlockIndex@@V23@@Z$13:
  000ab	8b 4d f0	 mov	 ecx, DWORD PTR _this$[ebp]
  000ae	81 c1 50 06 00
	00		 add	 ecx, 1616		; 00000650H
  000b4	e9 00 00 00 00	 jmp	 ??1CButton@@UAE@XZ	; CButton::~CButton
__unwindfunclet$??0CDlgFiboSet@@QAE@PAVCWnd@@ABV?$CStringT@DV?$StrTraitMFC_DLL@DV?$ChTraitsCRT@D@ATL@@@@@ATL@@ABW4HORZSCALEDRAWERTYPE@CScaleBaseData@@HPAH3PAVCTextPosition@@PAVCPenEnvironment@@PAVCElementPointList@@PAVCLineExtEnvironment@@PAVCDataTypeEnvironment@@PAUIChartOCX133101@@AAVCBlockIndex@@V23@@Z$14:
  000b9	8b 4d f0	 mov	 ecx, DWORD PTR _this$[ebp]
  000bc	81 c1 d0 06 00
	00		 add	 ecx, 1744		; 000006d0H
  000c2	e9 00 00 00 00	 jmp	 ??1CButton@@UAE@XZ	; CButton::~CButton
__unwindfunclet$??0CDlgFiboSet@@QAE@PAVCWnd@@ABV?$CStringT@DV?$StrTraitMFC_DLL@DV?$ChTraitsCRT@D@ATL@@@@@ATL@@ABW4HORZSCALEDRAWERTYPE@CScaleBaseData@@HPAH3PAVCTextPosition@@PAVCPenEnvironment@@PAVCElementPointList@@PAVCLineExtEnvironment@@PAVCDataTypeEnvironment@@PAUIChartOCX133101@@AAVCBlockIndex@@V23@@Z$15:
  000c7	8b 4d f0	 mov	 ecx, DWORD PTR _this$[ebp]
  000ca	81 c1 50 07 00
	00		 add	 ecx, 1872		; 00000750H
  000d0	e9 00 00 00 00	 jmp	 ??1CEdit@@UAE@XZ	; CEdit::~CEdit
__unwindfunclet$??0CDlgFiboSet@@QAE@PAVCWnd@@ABV?$CStringT@DV?$StrTraitMFC_DLL@DV?$ChTraitsCRT@D@ATL@@@@@ATL@@ABW4HORZSCALEDRAWERTYPE@CScaleBaseData@@HPAH3PAVCTextPosition@@PAVCPenEnvironment@@PAVCElementPointList@@PAVCLineExtEnvironment@@PAVCDataTypeEnvironment@@PAUIChartOCX133101@@AAVCBlockIndex@@V23@@Z$16:
  000d5	8b 4d f0	 mov	 ecx, DWORD PTR _this$[ebp]
  000d8	81 c1 d0 07 00
	00		 add	 ecx, 2000		; 000007d0H
  000de	e9 00 00 00 00	 jmp	 ??1CEdit@@UAE@XZ	; CEdit::~CEdit
__unwindfunclet$??0CDlgFiboSet@@QAE@PAVCWnd@@ABV?$CStringT@DV?$StrTraitMFC_DLL@DV?$ChTraitsCRT@D@ATL@@@@@ATL@@ABW4HORZSCALEDRAWERTYPE@CScaleBaseData@@HPAH3PAVCTextPosition@@PAVCPenEnvironment@@PAVCElementPointList@@PAVCLineExtEnvironment@@PAVCDataTypeEnvironment@@PAUIChartOCX133101@@AAVCBlockIndex@@V23@@Z$17:
  000e3	8b 4d f0	 mov	 ecx, DWORD PTR _this$[ebp]
  000e6	81 c1 50 08 00
	00		 add	 ecx, 2128		; 00000850H
  000ec	e9 00 00 00 00	 jmp	 ??1CEdit@@UAE@XZ	; CEdit::~CEdit
__unwindfunclet$??0CDlgFiboSet@@QAE@PAVCWnd@@ABV?$CStringT@DV?$StrTraitMFC_DLL@DV?$ChTraitsCRT@D@ATL@@@@@ATL@@ABW4HORZSCALEDRAWERTYPE@CScaleBaseData@@HPAH3PAVCTextPosition@@PAVCPenEnvironment@@PAVCElementPointList@@PAVCLineExtEnvironment@@PAVCDataTypeEnvironment@@PAUIChartOCX133101@@AAVCBlockIndex@@V23@@Z$18:
  000f1	8b 4d f0	 mov	 ecx, DWORD PTR _this$[ebp]
  000f4	81 c1 d0 08 00
	00		 add	 ecx, 2256		; 000008d0H
  000fa	e9 00 00 00 00	 jmp	 ??1CEdit@@UAE@XZ	; CEdit::~CEdit
__unwindfunclet$??0CDlgFiboSet@@QAE@PAVCWnd@@ABV?$CStringT@DV?$StrTraitMFC_DLL@DV?$ChTraitsCRT@D@ATL@@@@@ATL@@ABW4HORZSCALEDRAWERTYPE@CScaleBaseData@@HPAH3PAVCTextPosition@@PAVCPenEnvironment@@PAVCElementPointList@@PAVCLineExtEnvironment@@PAVCDataTypeEnvironment@@PAUIChartOCX133101@@AAVCBlockIndex@@V23@@Z$19:
  000ff	8b 4d f0	 mov	 ecx, DWORD PTR _this$[ebp]
  00102	81 c1 50 09 00
	00		 add	 ecx, 2384		; 00000950H
  00108	e9 00 00 00 00	 jmp	 ??1CEdit@@UAE@XZ	; CEdit::~CEdit
__unwindfunclet$??0CDlgFiboSet@@QAE@PAVCWnd@@ABV?$CStringT@DV?$StrTraitMFC_DLL@DV?$ChTraitsCRT@D@ATL@@@@@ATL@@ABW4HORZSCALEDRAWERTYPE@CScaleBaseData@@HPAH3PAVCTextPosition@@PAVCPenEnvironment@@PAVCElementPointList@@PAVCLineExtEnvironment@@PAVCDataTypeEnvironment@@PAUIChartOCX133101@@AAVCBlockIndex@@V23@@Z$20:
  0010d	8b 4d f0	 mov	 ecx, DWORD PTR _this$[ebp]
  00110	81 c1 d0 09 00
	00		 add	 ecx, 2512		; 000009d0H
  00116	e9 00 00 00 00	 jmp	 ??1CEdit@@UAE@XZ	; CEdit::~CEdit
__unwindfunclet$??0CDlgFiboSet@@QAE@PAVCWnd@@ABV?$CStringT@DV?$StrTraitMFC_DLL@DV?$ChTraitsCRT@D@ATL@@@@@ATL@@ABW4HORZSCALEDRAWERTYPE@CScaleBaseData@@HPAH3PAVCTextPosition@@PAVCPenEnvironment@@PAVCElementPointList@@PAVCLineExtEnvironment@@PAVCDataTypeEnvironment@@PAUIChartOCX133101@@AAVCBlockIndex@@V23@@Z$21:
  0011b	8b 4d f0	 mov	 ecx, DWORD PTR _this$[ebp]
  0011e	81 c1 50 0a 00
	00		 add	 ecx, 2640		; 00000a50H
  00124	e9 00 00 00 00	 jmp	 ??1CDateTimeCtrl@@UAE@XZ ; CDateTimeCtrl::~CDateTimeCtrl
__unwindfunclet$??0CDlgFiboSet@@QAE@PAVCWnd@@ABV?$CStringT@DV?$StrTraitMFC_DLL@DV?$ChTraitsCRT@D@ATL@@@@@ATL@@ABW4HORZSCALEDRAWERTYPE@CScaleBaseData@@HPAH3PAVCTextPosition@@PAVCPenEnvironment@@PAVCElementPointList@@PAVCLineExtEnvironment@@PAVCDataTypeEnvironment@@PAUIChartOCX133101@@AAVCBlockIndex@@V23@@Z$22:
  00129	8b 4d f0	 mov	 ecx, DWORD PTR _this$[ebp]
  0012c	81 c1 d0 0a 00
	00		 add	 ecx, 2768		; 00000ad0H
  00132	e9 00 00 00 00	 jmp	 ??1CDateTimeCtrl@@UAE@XZ ; CDateTimeCtrl::~CDateTimeCtrl
__unwindfunclet$??0CDlgFiboSet@@QAE@PAVCWnd@@ABV?$CStringT@DV?$StrTraitMFC_DLL@DV?$ChTraitsCRT@D@ATL@@@@@ATL@@ABW4HORZSCALEDRAWERTYPE@CScaleBaseData@@HPAH3PAVCTextPosition@@PAVCPenEnvironment@@PAVCElementPointList@@PAVCLineExtEnvironment@@PAVCDataTypeEnvironment@@PAUIChartOCX133101@@AAVCBlockIndex@@V23@@Z$23:
  00137	8b 4d f0	 mov	 ecx, DWORD PTR _this$[ebp]
  0013a	81 c1 50 0b 00
	00		 add	 ecx, 2896		; 00000b50H
  00140	e9 00 00 00 00	 jmp	 ??1CDateTimeCtrl@@UAE@XZ ; CDateTimeCtrl::~CDateTimeCtrl
__unwindfunclet$??0CDlgFiboSet@@QAE@PAVCWnd@@ABV?$CStringT@DV?$StrTraitMFC_DLL@DV?$ChTraitsCRT@D@ATL@@@@@ATL@@ABW4HORZSCALEDRAWERTYPE@CScaleBaseData@@HPAH3PAVCTextPosition@@PAVCPenEnvironment@@PAVCElementPointList@@PAVCLineExtEnvironment@@PAVCDataTypeEnvironment@@PAUIChartOCX133101@@AAVCBlockIndex@@V23@@Z$24:
  00145	8b 4d f0	 mov	 ecx, DWORD PTR _this$[ebp]
  00148	81 c1 e8 0b 00
	00		 add	 ecx, 3048		; 00000be8H
  0014e	ff 25 00 00 00
	00		 jmp	 DWORD PTR __imp_??1?$CStringT@DV?$StrTraitMFC_DLL@DV?$ChTraitsCRT@D@ATL@@@@@ATL@@QAE@XZ
__unwindfunclet$??0CDlgFiboSet@@QAE@PAVCWnd@@ABV?$CStringT@DV?$StrTraitMFC_DLL@DV?$ChTraitsCRT@D@ATL@@@@@ATL@@ABW4HORZSCALEDRAWERTYPE@CScaleBaseData@@HPAH3PAVCTextPosition@@PAVCPenEnvironment@@PAVCElementPointList@@PAVCLineExtEnvironment@@PAVCDataTypeEnvironment@@PAUIChartOCX133101@@AAVCBlockIndex@@V23@@Z$25:
  00154	8b 4d f0	 mov	 ecx, DWORD PTR _this$[ebp]
  00157	81 c1 ec 0b 00
	00		 add	 ecx, 3052		; 00000becH
  0015d	ff 25 00 00 00
	00		 jmp	 DWORD PTR __imp_??1?$CStringT@DV?$StrTraitMFC_DLL@DV?$ChTraitsCRT@D@ATL@@@@@ATL@@QAE@XZ
__unwindfunclet$??0CDlgFiboSet@@QAE@PAVCWnd@@ABV?$CStringT@DV?$StrTraitMFC_DLL@DV?$ChTraitsCRT@D@ATL@@@@@ATL@@ABW4HORZSCALEDRAWERTYPE@CScaleBaseData@@HPAH3PAVCTextPosition@@PAVCPenEnvironment@@PAVCElementPointList@@PAVCLineExtEnvironment@@PAVCDataTypeEnvironment@@PAUIChartOCX133101@@AAVCBlockIndex@@V23@@Z$26:
  00163	8b 4d f0	 mov	 ecx, DWORD PTR _this$[ebp]
  00166	81 c1 f8 0b 00
	00		 add	 ecx, 3064		; 00000bf8H
  0016c	e9 00 00 00 00	 jmp	 ??1tagST_ANALYSIS_TOOL_INFO@@QAE@XZ
__unwindfunclet$??0CDlgFiboSet@@QAE@PAVCWnd@@ABV?$CStringT@DV?$StrTraitMFC_DLL@DV?$ChTraitsCRT@D@ATL@@@@@ATL@@ABW4HORZSCALEDRAWERTYPE@CScaleBaseData@@HPAH3PAVCTextPosition@@PAVCPenEnvironment@@PAVCElementPointList@@PAVCLineExtEnvironment@@PAVCDataTypeEnvironment@@PAUIChartOCX133101@@AAVCBlockIndex@@V23@@Z$27:
  00171	8b 4d f0	 mov	 ecx, DWORD PTR _this$[ebp]
  00174	81 c1 68 0c 00
	00		 add	 ecx, 3176		; 00000c68H
  0017a	e9 00 00 00 00	 jmp	 ??1CElementPointList@@QAE@XZ
  0017f	cc		 int	 3
  00180	cc		 int	 3
  00181	cc		 int	 3
  00182	cc		 int	 3
  00183	cc		 int	 3
__ehhandler$??0CDlgFiboSet@@QAE@PAVCWnd@@ABV?$CStringT@DV?$StrTraitMFC_DLL@DV?$ChTraitsCRT@D@ATL@@@@@ATL@@ABW4HORZSCALEDRAWERTYPE@CScaleBaseData@@HPAH3PAVCTextPosition@@PAVCPenEnvironment@@PAVCElementPointList@@PAVCLineExtEnvironment@@PAVCDataTypeEnvironment@@PAUIChartOCX133101@@AAVCBlockIndex@@V23@@Z:
  00184	90		 npad	 1
  00185	90		 npad	 1
  00186	8b 54 24 08	 mov	 edx, DWORD PTR [esp+8]
  0018a	8d 42 0c	 lea	 eax, DWORD PTR [edx+12]
  0018d	8b 4a e4	 mov	 ecx, DWORD PTR [edx-28]
  00190	33 c8		 xor	 ecx, eax
  00192	e8 00 00 00 00	 call	 @__security_check_cookie@4
  00197	b8 00 00 00 00	 mov	 eax, OFFSET __ehfuncinfo$??0CDlgFiboSet@@QAE@PAVCWnd@@ABV?$CStringT@DV?$StrTraitMFC_DLL@DV?$ChTraitsCRT@D@ATL@@@@@ATL@@ABW4HORZSCALEDRAWERTYPE@CScaleBaseData@@HPAH3PAVCTextPosition@@PAVCPenEnvironment@@PAVCElementPointList@@PAVCLineExtEnvironment@@PAVCDataTypeEnvironment@@PAUIChartOCX133101@@AAVCBlockIndex@@V23@@Z
  0019c	e9 00 00 00 00	 jmp	 ___CxxFrameHandler3
text$x	ENDS
??0CDlgFiboSet@@QAE@PAVCWnd@@ABV?$CStringT@DV?$StrTraitMFC_DLL@DV?$ChTraitsCRT@D@ATL@@@@@ATL@@ABW4HORZSCALEDRAWERTYPE@CScaleBaseData@@HPAH3PAVCTextPosition@@PAVCPenEnvironment@@PAVCElementPointList@@PAVCLineExtEnvironment@@PAVCDataTypeEnvironment@@PAUIChartOCX133101@@AAVCBlockIndex@@V23@@Z ENDP ; CDlgFiboSet::CDlgFiboSet
; Function compile flags: /Ogtp
;	COMDAT ??1tagST_ANALYSIS_TOOL_INFO@@QAE@XZ
_TEXT	SEGMENT
??1tagST_ANALYSIS_TOOL_INFO@@QAE@XZ PROC		; tagST_ANALYSIS_TOOL_INFO::~tagST_ANALYSIS_TOOL_INFO, COMDAT
; _this$ = ecx
  00000	83 c1 68	 add	 ecx, 104		; 00000068H
  00003	ff 25 00 00 00
	00		 jmp	 DWORD PTR __imp_??1?$CStringT@DV?$StrTraitMFC_DLL@DV?$ChTraitsCRT@D@ATL@@@@@ATL@@QAE@XZ
??1tagST_ANALYSIS_TOOL_INFO@@QAE@XZ ENDP		; tagST_ANALYSIS_TOOL_INFO::~tagST_ANALYSIS_TOOL_INFO
_TEXT	ENDS
; Function compile flags: /Ogtp
; File C:\Program Files (x86)\Microsoft Visual Studio\2019\Community\VC\Tools\MSVC\14.29.30133\atlmfc\include\afxwin1.inl
;	COMDAT ??1CBitmapComboBox@@UAE@XZ
_TEXT	SEGMENT
??1CBitmapComboBox@@UAE@XZ PROC				; CBitmapComboBox::~CBitmapComboBox, COMDAT
; _this$ = ecx

; 179  : 	{ }

  00000	56		 push	 esi
  00001	8b f1		 mov	 esi, ecx
  00003	8d 8e 84 00 00
	00		 lea	 ecx, DWORD PTR [esi+132]
  00009	c7 01 00 00 00
	00		 mov	 DWORD PTR [ecx], OFFSET ??_7CBitmap@@6B@
  0000f	e8 00 00 00 00	 call	 ??1CGdiObject@@UAE@XZ	; CGdiObject::~CGdiObject
  00014	8b ce		 mov	 ecx, esi
  00016	5e		 pop	 esi
  00017	e9 00 00 00 00	 jmp	 ??1CComboBox@@UAE@XZ	; CComboBox::~CComboBox
??1CBitmapComboBox@@UAE@XZ ENDP				; CBitmapComboBox::~CBitmapComboBox
_TEXT	ENDS
; Function compile flags: /Ogtp
; File C:\Program Files (x86)\Microsoft Visual Studio\2019\Community\VC\Tools\MSVC\14.29.30133\include\xmemory
; File C:\Program Files (x86)\Microsoft Visual Studio\2019\Community\VC\Tools\MSVC\14.29.30133\include\deque
; File C:\Program Files (x86)\Microsoft Visual Studio\2019\Community\VC\Tools\MSVC\14.29.30133\include\xmemory
; File C:\Program Files (x86)\Microsoft Visual Studio\2019\Community\VC\Tools\MSVC\14.29.30133\include\deque
; File C:\Program Files (x86)\Microsoft Visual Studio\2019\Community\VC\Tools\MSVC\14.29.30133\include\xmemory
; File C:\Program Files (x86)\Microsoft Visual Studio\2019\Community\VC\Tools\MSVC\14.29.30133\include\deque
; File C:\Program Files (x86)\Microsoft Visual Studio\2019\Community\VC\Tools\MSVC\14.29.30133\include\xmemory
; File C:\Program Files (x86)\Microsoft Visual Studio\2019\Community\VC\Tools\MSVC\14.29.30133\include\deque
;	COMDAT ??0CElementPointList@@QAE@ABV0@@Z
_TEXT	SEGMENT
__Proxy$6 = -48						; size = 8
__Guard$7 = -40						; size = 4
_this$ = -36						; size = 4
$T1$sroa$291$1$ = -32					; size = 4
_this$ = -32						; size = 4
tv944 = -28						; size = 4
tv943 = -24						; size = 4
$T8 = -20						; size = 4
__Newoff$1$ = -20					; size = 4
__Alproxy$9 = -13					; size = 1
__$EHRec$ = -12						; size = 12
___that$ = 8						; size = 4
??0CElementPointList@@QAE@ABV0@@Z PROC			; CElementPointList::CElementPointList, COMDAT
; _this$ = ecx
  00000	55		 push	 ebp
  00001	8b ec		 mov	 ebp, esp
  00003	6a ff		 push	 -1
  00005	68 00 00 00 00	 push	 __ehhandler$??0CElementPointList@@QAE@ABV0@@Z
  0000a	64 a1 00 00 00
	00		 mov	 eax, DWORD PTR fs:0
  00010	50		 push	 eax
  00011	83 ec 24	 sub	 esp, 36			; 00000024H
  00014	53		 push	 ebx
  00015	56		 push	 esi
  00016	57		 push	 edi
  00017	a1 00 00 00 00	 mov	 eax, DWORD PTR ___security_cookie
  0001c	33 c5		 xor	 eax, ebp
  0001e	50		 push	 eax
  0001f	8d 45 f4	 lea	 eax, DWORD PTR __$EHRec$[ebp]
  00022	64 a3 00 00 00
	00		 mov	 DWORD PTR fs:0, eax
  00028	8b f9		 mov	 edi, ecx
  0002a	89 7d dc	 mov	 DWORD PTR _this$[ebp], edi
  0002d	8b 45 08	 mov	 eax, DWORD PTR ___that$[ebp]
  00030	8d 77 08	 lea	 esi, DWORD PTR [edi+8]
; File C:\Program Files (x86)\Microsoft Visual Studio\2019\Community\VC\Tools\MSVC\14.29.30133\include\xmemory

; 79   :         return ::operator new(_Bytes);

  00033	6a 08		 push	 8
  00035	89 75 e0	 mov	 DWORD PTR _this$[ebp], esi
  00038	f2 0f 10 00	 movsd	 xmm0, QWORD PTR [eax]

; 1281 :     _CONSTEXPR20_CONTAINER _Container_proxy_ptr12(_Alloc& _Al_, _Container_base12& _Mycont) : _Al(_Al_) {

  0003c	8d 45 f3	 lea	 eax, DWORD PTR __Alproxy$9[ebp]
  0003f	f2 0f 11 07	 movsd	 QWORD PTR [edi], xmm0

; 1033 :     _Container_proxy* _Myproxy = nullptr;

  00043	c7 06 00 00 00
	00		 mov	 DWORD PTR [esi], 0
; File C:\Program Files (x86)\Microsoft Visual Studio\2019\Community\VC\Tools\MSVC\14.29.30133\include\deque

; 555  :     _Deque_val() noexcept : _Map(), _Mapsize(0), _Myoff(0), _Mysize(0) {}

  00049	c7 46 04 00 00
	00 00		 mov	 DWORD PTR [esi+4], 0
  00050	c7 46 08 00 00
	00 00		 mov	 DWORD PTR [esi+8], 0
  00057	c7 46 0c 00 00
	00 00		 mov	 DWORD PTR [esi+12], 0
  0005e	c7 46 10 00 00
	00 00		 mov	 DWORD PTR [esi+16], 0
; File C:\Program Files (x86)\Microsoft Visual Studio\2019\Community\VC\Tools\MSVC\14.29.30133\include\xmemory

; 1281 :     _CONSTEXPR20_CONTAINER _Container_proxy_ptr12(_Alloc& _Al_, _Container_base12& _Mycont) : _Al(_Al_) {

  00065	89 45 d4	 mov	 DWORD PTR __Proxy$6[ebp+4], eax

; 79   :         return ::operator new(_Bytes);

  00068	e8 00 00 00 00	 call	 ??2@YAPAXI@Z		; operator new
  0006d	83 c4 04	 add	 esp, 4

; 1283 :         _Ptr = _Unfancy(_Al_.allocate(1));

  00070	89 45 d0	 mov	 DWORD PTR __Proxy$6[ebp], eax

; 1000 :     _CONSTEXPR20_CONTAINER _Container_proxy(_Container_base12* _Mycont_) noexcept : _Mycont(_Mycont_) {}

  00073	89 30		 mov	 DWORD PTR [eax], esi

; 1001 : 
; 1002 :     const _Container_base12* _Mycont       = nullptr;
; 1003 :     mutable _Iterator_base12* _Myfirstiter = nullptr;

  00075	c7 40 04 00 00
	00 00		 mov	 DWORD PTR [eax+4], 0

; 1285 :         _Mycont._Myproxy = _Ptr;

  0007c	89 06		 mov	 DWORD PTR [esi], eax
; File C:\Program Files (x86)\Microsoft Visual Studio\2019\Community\VC\Tools\MSVC\14.29.30133\include\deque

; 917  :         return _Unchecked_const_iterator(_Myoff() + _Mysize(), _STD addressof(_Get_data()));

  0007e	8b 55 08	 mov	 edx, DWORD PTR ___that$[ebp]

; 643  :         _Container_proxy_ptr12<_Alproxy_ty> _Proxy(_Alproxy, _Get_data());

  00081	c7 45 fc 00 00
	00 00		 mov	 DWORD PTR __$EHRec$[ebp+8], 0

; 674  :         _Tidy_guard<deque> _Guard{this};

  00088	89 75 d8	 mov	 DWORD PTR __Guard$7[ebp], esi

; 917  :         return _Unchecked_const_iterator(_Myoff() + _Mysize(), _STD addressof(_Get_data()));

  0008b	8b 42 18	 mov	 eax, DWORD PTR [edx+24]
  0008e	8b 5a 14	 mov	 ebx, DWORD PTR [edx+20]
  00091	03 c3		 add	 eax, ebx
  00093	89 45 e0	 mov	 DWORD PTR $T1$sroa$291$1$[ebp], eax

; 674  :         _Tidy_guard<deque> _Guard{this};

  00096	c6 45 fc 01	 mov	 BYTE PTR __$EHRec$[ebp+8], 1

; 106  :         return _Myoff == _Right._Myoff;

  0009a	3b d8		 cmp	 ebx, eax

; 675  :         for (; _First != _Last; ++_First) {

  0009c	0f 84 c8 00 00
	00		 je	 $LN155@CElementPo
  000a2	8b 7e 10	 mov	 edi, DWORD PTR [esi+16]
$LL67@CElementPo:

; 559  :         return (_Off / _Block_size) & (_Mapsize - 1);

  000a5	8b 42 10	 mov	 eax, DWORD PTR [edx+16]
  000a8	8b cb		 mov	 ecx, ebx
  000aa	48		 dec	 eax
  000ab	c1 e9 02	 shr	 ecx, 2
  000ae	23 c8		 and	 ecx, eax

; 1106 :         if ((_Myoff() + _Mysize()) % _Block_size == 0 && _Mapsize() <= (_Mysize() + _Block_size) / _Block_size) {

  000b0	89 7d ec	 mov	 DWORD PTR $T8[ebp], edi

; 48   :         return _Mycont->_Map[_Block][_Off];

  000b3	8b 42 0c	 mov	 eax, DWORD PTR [edx+12]
  000b6	8b d3		 mov	 edx, ebx
  000b8	83 e2 03	 and	 edx, 3
  000bb	89 55 e8	 mov	 DWORD PTR tv943[ebp], edx

; 1106 :         if ((_Myoff() + _Mysize()) % _Block_size == 0 && _Mapsize() <= (_Mysize() + _Block_size) / _Block_size) {

  000be	8b 56 0c	 mov	 edx, DWORD PTR [esi+12]

; 48   :         return _Mycont->_Map[_Block][_Off];

  000c1	8b 04 88	 mov	 eax, DWORD PTR [eax+ecx*4]
  000c4	89 45 e4	 mov	 DWORD PTR tv944[ebp], eax

; 1106 :         if ((_Myoff() + _Mysize()) % _Block_size == 0 && _Mapsize() <= (_Mysize() + _Block_size) / _Block_size) {

  000c7	8d 04 3a	 lea	 eax, DWORD PTR [edx+edi]
  000ca	a8 03		 test	 al, 3
  000cc	75 20		 jne	 SHORT $LN79@CElementPo
  000ce	8d 47 04	 lea	 eax, DWORD PTR [edi+4]
  000d1	89 7d ec	 mov	 DWORD PTR $T8[ebp], edi
  000d4	c1 e8 02	 shr	 eax, 2
  000d7	39 46 08	 cmp	 DWORD PTR [esi+8], eax
  000da	77 12		 ja	 SHORT $LN79@CElementPo

; 1107 :             _Growmap(1);

  000dc	6a 01		 push	 1
  000de	8b ce		 mov	 ecx, esi
  000e0	e8 00 00 00 00	 call	 ?_Growmap@?$deque@PAVCCoordinate@@V?$allocator@PAVCCoordinate@@@std@@@std@@AAEXI@Z ; std::deque<CCoordinate *,std::allocator<CCoordinate *> >::_Growmap
  000e5	8b 46 10	 mov	 eax, DWORD PTR [esi+16]
  000e8	8b 56 0c	 mov	 edx, DWORD PTR [esi+12]
  000eb	89 45 ec	 mov	 DWORD PTR $T8[ebp], eax
$LN79@CElementPo:

; 1108 :         }
; 1109 :         _Myoff() &= _Mapsize() * _Block_size - 1;

  000ee	8b 4e 08	 mov	 ecx, DWORD PTR [esi+8]
  000f1	8d 04 8d ff ff
	ff ff		 lea	 eax, DWORD PTR [ecx*4-1]
  000f8	23 c2		 and	 eax, edx

; 559  :         return (_Off / _Block_size) & (_Mapsize - 1);

  000fa	8d 79 ff	 lea	 edi, DWORD PTR [ecx-1]

; 1110 :         size_type _Newoff = _Myoff() + _Mysize();

  000fd	8b 55 ec	 mov	 edx, DWORD PTR $T8[ebp]
  00100	03 d0		 add	 edx, eax
  00102	89 46 0c	 mov	 DWORD PTR [esi+12], eax

; 1111 :         size_type _Block  = _Getblock(_Newoff);
; 1112 :         if (_Map()[_Block] == nullptr) {

  00105	8b 4e 04	 mov	 ecx, DWORD PTR [esi+4]

; 559  :         return (_Off / _Block_size) & (_Mapsize - 1);

  00108	8b c2		 mov	 eax, edx
  0010a	c1 e8 02	 shr	 eax, 2
  0010d	23 f8		 and	 edi, eax

; 1110 :         size_type _Newoff = _Myoff() + _Mysize();

  0010f	89 55 ec	 mov	 DWORD PTR __Newoff$1$[ebp], edx

; 1111 :         size_type _Block  = _Getblock(_Newoff);
; 1112 :         if (_Map()[_Block] == nullptr) {

  00112	83 3c b9 00	 cmp	 DWORD PTR [ecx+edi*4], 0
  00116	75 16		 jne	 SHORT $LN154@CElementPo
; File C:\Program Files (x86)\Microsoft Visual Studio\2019\Community\VC\Tools\MSVC\14.29.30133\include\xmemory

; 79   :         return ::operator new(_Bytes);

  00118	6a 10		 push	 16			; 00000010H
  0011a	e8 00 00 00 00	 call	 ??2@YAPAXI@Z		; operator new
; File C:\Program Files (x86)\Microsoft Visual Studio\2019\Community\VC\Tools\MSVC\14.29.30133\include\deque

; 1113 :             _Map()[_Block] = _Getal().allocate(_Block_size);

  0011f	8b 4e 04	 mov	 ecx, DWORD PTR [esi+4]
; File C:\Program Files (x86)\Microsoft Visual Studio\2019\Community\VC\Tools\MSVC\14.29.30133\include\xmemory

; 79   :         return ::operator new(_Bytes);

  00122	83 c4 04	 add	 esp, 4
  00125	8b 55 ec	 mov	 edx, DWORD PTR __Newoff$1$[ebp]
; File C:\Program Files (x86)\Microsoft Visual Studio\2019\Community\VC\Tools\MSVC\14.29.30133\include\deque

; 1113 :             _Map()[_Block] = _Getal().allocate(_Block_size);

  00128	89 04 b9	 mov	 DWORD PTR [ecx+edi*4], eax
  0012b	8b 4e 04	 mov	 ecx, DWORD PTR [esi+4]
$LN154@CElementPo:

; 1114 :         }
; 1115 : 
; 1116 :         _Alty_traits::construct(

  0012e	8b 0c b9	 mov	 ecx, DWORD PTR [ecx+edi*4]
  00131	83 e2 03	 and	 edx, 3
  00134	8b 7d e4	 mov	 edi, DWORD PTR tv944[ebp]

; 56   :         ++_Myoff;

  00137	43		 inc	 ebx

; 1116 :         _Alty_traits::construct(

  00138	8b 45 e8	 mov	 eax, DWORD PTR tv943[ebp]
  0013b	8b 04 87	 mov	 eax, DWORD PTR [edi+eax*4]
  0013e	89 04 91	 mov	 DWORD PTR [ecx+edx*4], eax

; 1117 :             _Getal(), _Unfancy(_Map()[_Block] + _Newoff % _Block_size), _STD forward<_Tys>(_Vals)...);
; 1118 : 
; 1119 :         ++_Mysize();

  00141	ff 46 10	 inc	 DWORD PTR [esi+16]
  00144	8b 7e 10	 mov	 edi, DWORD PTR [esi+16]

; 675  :         for (; _First != _Last; ++_First) {

  00147	8b 55 08	 mov	 edx, DWORD PTR ___that$[ebp]

; 106  :         return _Myoff == _Right._Myoff;

  0014a	3b 5d e0	 cmp	 ebx, DWORD PTR $T1$sroa$291$1$[ebp]

; 675  :         for (; _First != _Last; ++_First) {

  0014d	0f 85 52 ff ff
	ff		 jne	 $LL67@CElementPo
  00153	8b 45 dc	 mov	 eax, DWORD PTR _this$[ebp]
  00156	8b 4d f4	 mov	 ecx, DWORD PTR __$EHRec$[ebp]
  00159	64 89 0d 00 00
	00 00		 mov	 DWORD PTR fs:0, ecx
  00160	59		 pop	 ecx
  00161	5f		 pop	 edi
  00162	5e		 pop	 esi
  00163	5b		 pop	 ebx
  00164	8b e5		 mov	 esp, ebp
  00166	5d		 pop	 ebp
  00167	c2 04 00	 ret	 4
$LN155@CElementPo:
  0016a	8b c7		 mov	 eax, edi
  0016c	8b 4d f4	 mov	 ecx, DWORD PTR __$EHRec$[ebp]
  0016f	64 89 0d 00 00
	00 00		 mov	 DWORD PTR fs:0, ecx
  00176	59		 pop	 ecx
  00177	5f		 pop	 edi
  00178	5e		 pop	 esi
  00179	5b		 pop	 ebx
  0017a	8b e5		 mov	 esp, ebp
  0017c	5d		 pop	 ebp
  0017d	c2 04 00	 ret	 4
_TEXT	ENDS
;	COMDAT text$x
text$x	SEGMENT
__unwindfunclet$??0CElementPointList@@QAE@ABV0@@Z$2:
  00000	8d 4d d0	 lea	 ecx, DWORD PTR __Proxy$6[ebp]
  00003	e9 00 00 00 00	 jmp	 ??1?$_Container_proxy_ptr12@V?$allocator@U_Container_proxy@std@@@std@@@std@@QAE@XZ ; std::_Container_proxy_ptr12<std::allocator<std::_Container_proxy> >::~_Container_proxy_ptr12<std::allocator<std::_Container_proxy> >
__unwindfunclet$??0CElementPointList@@QAE@ABV0@@Z$3:
  00008	8d 4d d8	 lea	 ecx, DWORD PTR __Guard$7[ebp]
  0000b	e9 00 00 00 00	 jmp	 ??1?$_Tidy_guard@V?$deque@PAVCCoordinate@@V?$allocator@PAVCCoordinate@@@std@@@std@@@std@@QAE@XZ ; std::_Tidy_guard<std::deque<CCoordinate *,std::allocator<CCoordinate *> > >::~_Tidy_guard<std::deque<CCoordinate *,std::allocator<CCoordinate *> > >
  00010	cc		 int	 3
  00011	cc		 int	 3
  00012	cc		 int	 3
  00013	cc		 int	 3
  00014	cc		 int	 3
__ehhandler$??0CElementPointList@@QAE@ABV0@@Z:
  00015	90		 npad	 1
  00016	90		 npad	 1
  00017	8b 54 24 08	 mov	 edx, DWORD PTR [esp+8]
  0001b	8d 42 0c	 lea	 eax, DWORD PTR [edx+12]
  0001e	8b 4a cc	 mov	 ecx, DWORD PTR [edx-52]
  00021	33 c8		 xor	 ecx, eax
  00023	e8 00 00 00 00	 call	 @__security_check_cookie@4
  00028	b8 00 00 00 00	 mov	 eax, OFFSET __ehfuncinfo$??0CElementPointList@@QAE@ABV0@@Z
  0002d	e9 00 00 00 00	 jmp	 ___CxxFrameHandler3
text$x	ENDS
??0CElementPointList@@QAE@ABV0@@Z ENDP			; CElementPointList::CElementPointList
; Function compile flags: /Ogtp
; File C:\Program Files (x86)\Microsoft Visual Studio\2019\Community\VC\Tools\MSVC\14.29.30133\include\deque
; File C:\Program Files (x86)\Microsoft Visual Studio\2019\Community\VC\Tools\MSVC\14.29.30133\include\utility
; File C:\Program Files (x86)\Microsoft Visual Studio\2019\Community\VC\Tools\MSVC\14.29.30133\include\xmemory
; File C:\Program Files (x86)\Microsoft Visual Studio\2019\Community\VC\Tools\MSVC\14.29.30133\include\utility
; File C:\Program Files (x86)\Microsoft Visual Studio\2019\Community\VC\Tools\MSVC\14.29.30133\include\xmemory
;	COMDAT ??1CElementPointList@@QAE@XZ
_TEXT	SEGMENT
??1CElementPointList@@QAE@XZ PROC			; CElementPointList::~CElementPointList, COMDAT
; _this$ = ecx
; File C:\Program Files (x86)\Microsoft Visual Studio\2019\Community\VC\Tools\MSVC\14.29.30133\include\deque

; 1332 :         _Tidy();

  00000	56		 push	 esi
  00001	8d 71 08	 lea	 esi, DWORD PTR [ecx+8]
  00004	8b ce		 mov	 ecx, esi
  00006	e8 00 00 00 00	 call	 ?_Tidy@?$deque@PAVCCoordinate@@V?$allocator@PAVCCoordinate@@@std@@@std@@AAEXXZ ; std::deque<CCoordinate *,std::allocator<CCoordinate *> >::_Tidy

; 861  :         _Tidy();

  0000b	8b ce		 mov	 ecx, esi
  0000d	e8 00 00 00 00	 call	 ?_Tidy@?$deque@PAVCCoordinate@@V?$allocator@PAVCCoordinate@@@std@@@std@@AAEXXZ ; std::deque<CCoordinate *,std::allocator<CCoordinate *> >::_Tidy
; File C:\Program Files (x86)\Microsoft Visual Studio\2019\Community\VC\Tools\MSVC\14.29.30133\include\utility

; 602  :     _Ty _Old_val = static_cast<_Ty&&>(_Val);

  00012	8b 06		 mov	 eax, DWORD PTR [esi]
; File C:\Program Files (x86)\Microsoft Visual Studio\2019\Community\VC\Tools\MSVC\14.29.30133\include\xmemory

; 255  :         ::operator delete(_Ptr, _Bytes);

  00014	6a 08		 push	 8
  00016	50		 push	 eax
; File C:\Program Files (x86)\Microsoft Visual Studio\2019\Community\VC\Tools\MSVC\14.29.30133\include\utility

; 603  :     _Val         = static_cast<_Other&&>(_New_val);

  00017	c7 06 00 00 00
	00		 mov	 DWORD PTR [esi], 0
; File C:\Program Files (x86)\Microsoft Visual Studio\2019\Community\VC\Tools\MSVC\14.29.30133\include\xmemory

; 255  :         ::operator delete(_Ptr, _Bytes);

  0001d	e8 00 00 00 00	 call	 ??3@YAXPAXI@Z		; operator delete
  00022	83 c4 08	 add	 esp, 8
  00025	5e		 pop	 esi
  00026	c3		 ret	 0
??1CElementPointList@@QAE@XZ ENDP			; CElementPointList::~CElementPointList
_TEXT	ENDS
; Function compile flags: /Ogtp
; File C:\Program Files (x86)\Microsoft Visual Studio\2019\Community\VC\Tools\MSVC\14.29.30133\include\deque
; File C:\Program Files (x86)\Microsoft Visual Studio\2019\Community\VC\Tools\MSVC\14.29.30133\include\xmemory
; File C:\Program Files (x86)\Microsoft Visual Studio\2019\Community\VC\Tools\MSVC\14.29.30133\include\deque
; File C:\Program Files (x86)\Microsoft Visual Studio\2019\Community\VC\Tools\MSVC\14.29.30133\include\xmemory
; File C:\Program Files (x86)\Microsoft Visual Studio\2019\Community\VC\Tools\MSVC\14.29.30133\include\deque
; File C:\Program Files (x86)\Microsoft Visual Studio\2019\Community\VC\Tools\MSVC\14.29.30133\include\xmemory
; File C:\Program Files (x86)\Microsoft Visual Studio\2019\Community\VC\Tools\MSVC\14.29.30133\include\deque
;	COMDAT ?_Tidy@?$deque@PAVCCoordinate@@V?$allocator@PAVCCoordinate@@@std@@@std@@AAEXXZ
_TEXT	SEGMENT
?_Tidy@?$deque@PAVCCoordinate@@V?$allocator@PAVCCoordinate@@@std@@@std@@AAEXXZ PROC ; std::deque<CCoordinate *,std::allocator<CCoordinate *> >::_Tidy, COMDAT
; _this$ = ecx

; 1471 :     void _Tidy() noexcept { // free all storage

  00000	57		 push	 edi
  00001	8b f9		 mov	 edi, ecx

; 1002 :         return _Mysize() == 0;

  00003	8b 4f 10	 mov	 ecx, DWORD PTR [edi+16]
  00006	85 c9		 test	 ecx, ecx

; 1472 :         _Orphan_all();
; 1473 : 
; 1474 :         _Alpty _Almap(_Getal());
; 1475 :         while (!empty()) {

  00008	74 15		 je	 SHORT $LN60@Tidy
  0000a	66 0f 1f 44 00
	00		 npad	 6
$LL2@Tidy:

; 1146 :         if (--_Mysize() == 0) {

  00010	8d 41 ff	 lea	 eax, DWORD PTR [ecx-1]
  00013	89 47 10	 mov	 DWORD PTR [edi+16], eax
  00016	8b c8		 mov	 ecx, eax
  00018	85 c0		 test	 eax, eax
  0001a	75 f4		 jne	 SHORT $LL2@Tidy

; 1147 :             _Myoff() = 0;

  0001c	89 47 0c	 mov	 DWORD PTR [edi+12], eax
$LN60@Tidy:
  0001f	56		 push	 esi

; 1479 :         for (size_type _Block = _Mapsize(); 0 < _Block;) { // free storage for a block and destroy pointer

  00020	8b 77 08	 mov	 esi, DWORD PTR [edi+8]
  00023	85 f6		 test	 esi, esi
  00025	74 1a		 je	 SHORT $LN5@Tidy
$LL4@Tidy:

; 1480 :             if (_Map()[--_Block]) { // free block and destroy its pointer

  00027	8b 47 04	 mov	 eax, DWORD PTR [edi+4]
  0002a	4e		 dec	 esi
  0002b	8b 04 b0	 mov	 eax, DWORD PTR [eax+esi*4]
  0002e	85 c0		 test	 eax, eax
  00030	74 0b		 je	 SHORT $LN23@Tidy
; File C:\Program Files (x86)\Microsoft Visual Studio\2019\Community\VC\Tools\MSVC\14.29.30133\include\xmemory

; 255  :         ::operator delete(_Ptr, _Bytes);

  00032	6a 10		 push	 16			; 00000010H
  00034	50		 push	 eax
  00035	e8 00 00 00 00	 call	 ??3@YAXPAXI@Z		; operator delete
  0003a	83 c4 08	 add	 esp, 8
$LN23@Tidy:
; File C:\Program Files (x86)\Microsoft Visual Studio\2019\Community\VC\Tools\MSVC\14.29.30133\include\deque

; 1479 :         for (size_type _Block = _Mapsize(); 0 < _Block;) { // free storage for a block and destroy pointer

  0003d	85 f6		 test	 esi, esi
  0003f	75 e6		 jne	 SHORT $LL4@Tidy
$LN5@Tidy:

; 1481 :                 _Getal().deallocate(_Map()[_Block], _Block_size);
; 1482 :                 _Destroy_in_place(_Map()[_Block]);
; 1483 :             }
; 1484 :         }
; 1485 : 
; 1486 :         if (_Map() != _Mapptr()) {

  00041	8b 47 04	 mov	 eax, DWORD PTR [edi+4]
  00044	5e		 pop	 esi
  00045	85 c0		 test	 eax, eax
  00047	74 2a		 je	 SHORT $LN41@Tidy
; File C:\Program Files (x86)\Microsoft Visual Studio\2019\Community\VC\Tools\MSVC\14.29.30133\include\xmemory

; 797  :         _Deallocate<_New_alignof<_Ty>>(_Ptr, sizeof(_Ty) * _Count);

  00049	8b 4f 08	 mov	 ecx, DWORD PTR [edi+8]
  0004c	c1 e1 02	 shl	 ecx, 2

; 251  :         if (_Bytes >= _Big_allocation_threshold) { // boost the alignment of big allocations to help autovectorization

  0004f	81 f9 00 10 00
	00		 cmp	 ecx, 4096		; 00001000H
  00055	72 12		 jb	 SHORT $LN51@Tidy

; 150  :     const uintptr_t _Ptr_container   = _Ptr_user[-1];

  00057	8b 50 fc	 mov	 edx, DWORD PTR [eax-4]
  0005a	83 c1 23	 add	 ecx, 35			; 00000023H

; 151  : 
; 152  :     // If the following asserts, it likely means that we are performing
; 153  :     // an aligned delete on memory coming from an unaligned allocation.
; 154  :     _STL_ASSERT(_Ptr_user[-2] == _Big_allocation_sentinel, "invalid argument");
; 155  : 
; 156  :     // Extra paranoia on aligned allocation/deallocation; ensure _Ptr_container is
; 157  :     // in range [_Min_back_shift, _Non_user_size]
; 158  : #ifdef _DEBUG
; 159  :     constexpr uintptr_t _Min_back_shift = 2 * sizeof(void*);
; 160  : #else // ^^^ _DEBUG ^^^ // vvv !_DEBUG vvv
; 161  :     constexpr uintptr_t _Min_back_shift = sizeof(void*);
; 162  : #endif // _DEBUG
; 163  :     const uintptr_t _Back_shift = reinterpret_cast<uintptr_t>(_Ptr) - _Ptr_container;

  0005d	2b c2		 sub	 eax, edx

; 164  :     _STL_VERIFY(_Back_shift >= _Min_back_shift && _Back_shift <= _Non_user_size, "invalid argument");

  0005f	83 c0 fc	 add	 eax, -4			; fffffffcH
  00062	83 f8 1f	 cmp	 eax, 31			; 0000001fH
  00065	77 1c		 ja	 SHORT $LN48@Tidy

; 165  :     _Ptr = reinterpret_cast<void*>(_Ptr_container);

  00067	8b c2		 mov	 eax, edx
$LN51@Tidy:

; 255  :         ::operator delete(_Ptr, _Bytes);

  00069	51		 push	 ecx
  0006a	50		 push	 eax
  0006b	e8 00 00 00 00	 call	 ??3@YAXPAXI@Z		; operator delete
  00070	83 c4 08	 add	 esp, 8
$LN41@Tidy:
; File C:\Program Files (x86)\Microsoft Visual Studio\2019\Community\VC\Tools\MSVC\14.29.30133\include\deque

; 1490 :         _Mapsize() = 0;

  00073	c7 47 08 00 00
	00 00		 mov	 DWORD PTR [edi+8], 0

; 1491 :         _Map()     = _Mapptr();

  0007a	c7 47 04 00 00
	00 00		 mov	 DWORD PTR [edi+4], 0
  00081	5f		 pop	 edi

; 1492 :     }

  00082	c3		 ret	 0
$LN48@Tidy:
; File C:\Program Files (x86)\Microsoft Visual Studio\2019\Community\VC\Tools\MSVC\14.29.30133\include\xmemory

; 164  :     _STL_VERIFY(_Back_shift >= _Min_back_shift && _Back_shift <= _Non_user_size, "invalid argument");

  00083	ff 15 00 00 00
	00		 call	 DWORD PTR __imp___invalid_parameter_noinfo_noreturn
$LN62@Tidy:
  00089	cc		 int	 3
?_Tidy@?$deque@PAVCCoordinate@@V?$allocator@PAVCCoordinate@@@std@@@std@@AAEXXZ ENDP ; std::deque<CCoordinate *,std::allocator<CCoordinate *> >::_Tidy
_TEXT	ENDS
; Function compile flags: /Ogtp
; File C:\Program Files (x86)\Microsoft Visual Studio\2019\Community\VC\Tools\MSVC\14.29.30133\include\deque
; File C:\Program Files (x86)\Microsoft Visual Studio\2019\Community\VC\Tools\MSVC\14.29.30133\include\xmemory
; File C:\Program Files (x86)\Microsoft Visual Studio\2019\Community\VC\Tools\MSVC\14.29.30133\include\deque
; File C:\Program Files (x86)\Microsoft Visual Studio\2019\Community\VC\Tools\MSVC\14.29.30133\include\xutility
; File C:\Program Files (x86)\Microsoft Visual Studio\2019\Community\VC\Tools\MSVC\14.29.30133\include\deque
; File C:\Program Files (x86)\Microsoft Visual Studio\2019\Community\VC\Tools\MSVC\14.29.30133\include\xutility
; File C:\Program Files (x86)\Microsoft Visual Studio\2019\Community\VC\Tools\MSVC\14.29.30133\include\deque
; File C:\Program Files (x86)\Microsoft Visual Studio\2019\Community\VC\Tools\MSVC\14.29.30133\include\xutility
; File C:\Program Files (x86)\Microsoft Visual Studio\2019\Community\VC\Tools\MSVC\14.29.30133\include\deque
; File C:\Program Files (x86)\Microsoft Visual Studio\2019\Community\VC\Tools\MSVC\14.29.30133\include\xutility
; File C:\Program Files (x86)\Microsoft Visual Studio\2019\Community\VC\Tools\MSVC\14.29.30133\include\xmemory
; File C:\Program Files (x86)\Microsoft Visual Studio\2019\Community\VC\Tools\MSVC\14.29.30133\include\xutility
; File C:\Program Files (x86)\Microsoft Visual Studio\2019\Community\VC\Tools\MSVC\14.29.30133\include\xmemory
; File C:\Program Files (x86)\Microsoft Visual Studio\2019\Community\VC\Tools\MSVC\14.29.30133\include\xutility
; File C:\Program Files (x86)\Microsoft Visual Studio\2019\Community\VC\Tools\MSVC\14.29.30133\include\xmemory
; File C:\Program Files (x86)\Microsoft Visual Studio\2019\Community\VC\Tools\MSVC\14.29.30133\include\deque
; File C:\Program Files (x86)\Microsoft Visual Studio\2019\Community\VC\Tools\MSVC\14.29.30133\include\xutility
; File C:\Program Files (x86)\Microsoft Visual Studio\2019\Community\VC\Tools\MSVC\14.29.30133\include\deque
; File C:\Program Files (x86)\Microsoft Visual Studio\2019\Community\VC\Tools\MSVC\14.29.30133\include\xutility
; File C:\Program Files (x86)\Microsoft Visual Studio\2019\Community\VC\Tools\MSVC\14.29.30133\include\deque
; File C:\Program Files (x86)\Microsoft Visual Studio\2019\Community\VC\Tools\MSVC\14.29.30133\include\xutility
; File C:\Program Files (x86)\Microsoft Visual Studio\2019\Community\VC\Tools\MSVC\14.29.30133\include\xmemory
; File C:\Program Files (x86)\Microsoft Visual Studio\2019\Community\VC\Tools\MSVC\14.29.30133\include\xutility
; File C:\Program Files (x86)\Microsoft Visual Studio\2019\Community\VC\Tools\MSVC\14.29.30133\include\xmemory
; File C:\Program Files (x86)\Microsoft Visual Studio\2019\Community\VC\Tools\MSVC\14.29.30133\include\xutility
; File C:\Program Files (x86)\Microsoft Visual Studio\2019\Community\VC\Tools\MSVC\14.29.30133\include\xmemory
; File C:\Program Files (x86)\Microsoft Visual Studio\2019\Community\VC\Tools\MSVC\14.29.30133\include\deque
; File C:\Program Files (x86)\Microsoft Visual Studio\2019\Community\VC\Tools\MSVC\14.29.30133\include\xmemory
; File C:\Program Files (x86)\Microsoft Visual Studio\2019\Community\VC\Tools\MSVC\14.29.30133\include\deque
; File C:\Program Files (x86)\Microsoft Visual Studio\2019\Community\VC\Tools\MSVC\14.29.30133\include\xmemory
; File C:\Program Files (x86)\Microsoft Visual Studio\2019\Community\VC\Tools\MSVC\14.29.30133\include\deque
; File C:\Program Files (x86)\Microsoft Visual Studio\2019\Community\VC\Tools\MSVC\14.29.30133\include\xmemory
; File C:\Program Files (x86)\Microsoft Visual Studio\2019\Community\VC\Tools\MSVC\14.29.30133\include\deque
;	COMDAT ?_Growmap@?$deque@PAVCCoordinate@@V?$allocator@PAVCCoordinate@@@std@@@std@@AAEXI@Z
_TEXT	SEGMENT
__Myptr$1$ = -16					; size = 4
__Myboff$1$ = -12					; size = 4
_this$1$ = -8						; size = 4
__Count$1$ = -4						; size = 4
$T1 = 8							; size = 4
__Count$ = 8						; size = 4
?_Growmap@?$deque@PAVCCoordinate@@V?$allocator@PAVCCoordinate@@@std@@@std@@AAEXI@Z PROC ; std::deque<CCoordinate *,std::allocator<CCoordinate *> >::_Growmap, COMDAT
; _this$ = ecx

; 1432 :     void _Growmap(size_type _Count) { // grow map by at least _Count pointers, _Mapsize() a power of 2

  00000	55		 push	 ebp
  00001	8b ec		 mov	 ebp, esp
  00003	83 ec 10	 sub	 esp, 16			; 00000010H
  00006	53		 push	 ebx
  00007	56		 push	 esi
  00008	8b f1		 mov	 esi, ecx

; 1433 :         static_assert(1 < _Minimum_map_size, "The _Xlen() test should always be performed.");
; 1434 : 
; 1435 :         _Alpty _Almap(_Getal());
; 1436 :         size_type _Newsize = 0 < _Mapsize() ? _Mapsize() : 1;

  0000a	b8 01 00 00 00	 mov	 eax, 1
  0000f	57		 push	 edi
  00010	8b 7d 08	 mov	 edi, DWORD PTR __Count$[ebp]
  00013	89 75 f8	 mov	 DWORD PTR _this$1$[ebp], esi
  00016	8b 56 08	 mov	 edx, DWORD PTR [esi+8]
  00019	85 d2		 test	 edx, edx
  0001b	0f 45 c2	 cmovne	 eax, edx
  0001e	66 90		 npad	 2
$LL2@Growmap:

; 1437 :         while (_Newsize - _Mapsize() < _Count || _Newsize < _Minimum_map_size) {

  00020	8b d8		 mov	 ebx, eax
  00022	2b da		 sub	 ebx, edx
  00024	3b df		 cmp	 ebx, edi
  00026	72 05		 jb	 SHORT $LN4@Growmap
  00028	83 f8 08	 cmp	 eax, 8
  0002b	73 13		 jae	 SHORT $LN3@Growmap
$LN4@Growmap:

; 1438 :             // scale _Newsize to 2^N >= _Mapsize() + _Count
; 1439 :             if (max_size() / _Block_size - _Newsize < _Newsize) {

  0002d	b9 ff ff ff 0f	 mov	 ecx, 268435455		; 0fffffffH
  00032	2b c8		 sub	 ecx, eax
  00034	3b c8		 cmp	 ecx, eax
  00036	0f 82 49 01 00
	00		 jb	 $LN138@Growmap

; 1441 :             }
; 1442 : 
; 1443 :             _Newsize *= 2;

  0003c	03 c0		 add	 eax, eax

; 1444 :         }

  0003e	eb e0		 jmp	 SHORT $LL2@Growmap
$LN3@Growmap:

; 1445 :         _Count = _Newsize - _Mapsize();
; 1446 : 
; 1447 :         size_type _Myboff = _Myoff() / _Block_size;

  00040	8b 7e 0c	 mov	 edi, DWORD PTR [esi+12]
  00043	c1 ef 02	 shr	 edi, 2
  00046	89 7d f4	 mov	 DWORD PTR __Myboff$1$[ebp], edi
; File C:\Program Files (x86)\Microsoft Visual Studio\2019\Community\VC\Tools\MSVC\14.29.30133\include\xmemory

; 60   :         if (_Count > _Max_possible) {

  00049	3d ff ff ff 3f	 cmp	 eax, 1073741823		; 3fffffffH
  0004e	0f 87 38 01 00
	00		 ja	 $LN142@Growmap

; 61   :             _Throw_bad_array_new_length(); // multiply overflow
; 62   :         }
; 63   :     }
; 64   : 
; 65   :     return _Count * _Ty_size;

  00054	c1 e0 02	 shl	 eax, 2

; 228  :         if (_Bytes >= _Big_allocation_threshold) { // boost the alignment of big allocations to help autovectorization

  00057	3d 00 10 00 00	 cmp	 eax, 4096		; 00001000H
  0005c	72 27		 jb	 SHORT $LN19@Growmap

; 129  :     const size_t _Block_size = _Non_user_size + _Bytes;

  0005e	8d 48 23	 lea	 ecx, DWORD PTR [eax+35]

; 130  :     if (_Block_size <= _Bytes) {

  00061	3b c8		 cmp	 ecx, eax
  00063	0f 86 23 01 00
	00		 jbe	 $LN142@Growmap

; 79   :         return ::operator new(_Bytes);

  00069	51		 push	 ecx
  0006a	e8 00 00 00 00	 call	 ??2@YAPAXI@Z		; operator new
  0006f	83 c4 04	 add	 esp, 4

; 135  :     _STL_VERIFY(_Ptr_container != 0, "invalid argument"); // validate even in release since we're doing p[-1]

  00072	85 c0		 test	 eax, eax
  00074	0f 84 05 01 00
	00		 je	 $LN130@Growmap

; 136  :     void* const _Ptr = reinterpret_cast<void*>((_Ptr_container + _Non_user_size) & ~(_Big_allocation_alignment - 1));

  0007a	8d 50 23	 lea	 edx, DWORD PTR [eax+35]
  0007d	83 e2 e0	 and	 edx, -32		; ffffffe0H

; 137  :     static_cast<uintptr_t*>(_Ptr)[-1] = _Ptr_container;

  00080	89 42 fc	 mov	 DWORD PTR [edx-4], eax

; 229  :             return _Allocate_manually_vector_aligned<_Traits>(_Bytes);

  00083	eb 13		 jmp	 SHORT $LN145@Growmap
$LN19@Growmap:

; 230  :         }
; 231  :     }
; 232  : #endif // defined(_M_IX86) || defined(_M_X64)
; 233  : 
; 234  :     if (_Bytes != 0) {

  00085	85 c0		 test	 eax, eax
  00087	74 0d		 je	 SHORT $LN20@Growmap

; 79   :         return ::operator new(_Bytes);

  00089	50		 push	 eax
  0008a	e8 00 00 00 00	 call	 ??2@YAPAXI@Z		; operator new
  0008f	83 c4 04	 add	 esp, 4

; 235  :         return _Traits::_Allocate(_Bytes);

  00092	8b d0		 mov	 edx, eax
  00094	eb 02		 jmp	 SHORT $LN145@Growmap
$LN20@Growmap:

; 236  :     }
; 237  : 
; 238  :     return nullptr;

  00096	33 d2		 xor	 edx, edx
$LN145@Growmap:
; File C:\Program Files (x86)\Microsoft Visual Studio\2019\Community\VC\Tools\MSVC\14.29.30133\include\deque

; 1451 :         _Myptr = _STD uninitialized_copy(_Map() + _Myboff, _Map() + _Mapsize(), _Myptr); // copy initial to end

  00098	8b 46 04	 mov	 eax, DWORD PTR [esi+4]
  0009b	8b 76 08	 mov	 esi, DWORD PTR [esi+8]
  0009e	c1 e7 02	 shl	 edi, 2
  000a1	c1 e6 02	 shl	 esi, 2
  000a4	89 7d fc	 mov	 DWORD PTR __Count$1$[ebp], edi
  000a7	89 55 08	 mov	 DWORD PTR $T1[ebp], edx
  000aa	8d 0c 38	 lea	 ecx, DWORD PTR [eax+edi]
  000ad	03 fa		 add	 edi, edx
; File C:\Program Files (x86)\Microsoft Visual Studio\2019\Community\VC\Tools\MSVC\14.29.30133\include\xutility

; 4065 :     const auto _Count           = static_cast<size_t>(_Last_ch - _First_ch);

  000af	2b f1		 sub	 esi, ecx
; File C:\Program Files (x86)\Microsoft Visual Studio\2019\Community\VC\Tools\MSVC\14.29.30133\include\deque

; 1451 :         _Myptr = _STD uninitialized_copy(_Map() + _Myboff, _Map() + _Mapsize(), _Myptr); // copy initial to end

  000b1	03 f0		 add	 esi, eax
; File C:\Program Files (x86)\Microsoft Visual Studio\2019\Community\VC\Tools\MSVC\14.29.30133\include\xutility

; 4066 :     _CSTD memmove(_Dest_ch, _First_ch, _Count);

  000b3	56		 push	 esi
  000b4	51		 push	 ecx
  000b5	57		 push	 edi
  000b6	e8 00 00 00 00	 call	 _memmove

; 4068 :         return reinterpret_cast<_OutCtgIt>(_Dest_ch + _Count);

  000bb	8d 04 3e	 lea	 eax, DWORD PTR [esi+edi]
  000be	83 c4 0c	 add	 esp, 12			; 0000000cH
; File C:\Program Files (x86)\Microsoft Visual Studio\2019\Community\VC\Tools\MSVC\14.29.30133\include\deque

; 1451 :         _Myptr = _STD uninitialized_copy(_Map() + _Myboff, _Map() + _Mapsize(), _Myptr); // copy initial to end

  000c1	8b 75 f8	 mov	 esi, DWORD PTR _this$1$[ebp]

; 1452 :         if (_Myboff <= _Count) { // increment greater than offset of initial block

  000c4	8b 7d f4	 mov	 edi, DWORD PTR __Myboff$1$[ebp]
; File C:\Program Files (x86)\Microsoft Visual Studio\2019\Community\VC\Tools\MSVC\14.29.30133\include\xutility

; 4068 :         return reinterpret_cast<_OutCtgIt>(_Dest_ch + _Count);

  000c7	89 45 f0	 mov	 DWORD PTR __Myptr$1$[ebp], eax
; File C:\Program Files (x86)\Microsoft Visual Studio\2019\Community\VC\Tools\MSVC\14.29.30133\include\deque

; 1451 :         _Myptr = _STD uninitialized_copy(_Map() + _Myboff, _Map() + _Mapsize(), _Myptr); // copy initial to end

  000ca	8b 56 04	 mov	 edx, DWORD PTR [esi+4]

; 1452 :         if (_Myboff <= _Count) { // increment greater than offset of initial block

  000cd	3b fb		 cmp	 edi, ebx
  000cf	77 35		 ja	 SHORT $LN6@Growmap
; File C:\Program Files (x86)\Microsoft Visual Studio\2019\Community\VC\Tools\MSVC\14.29.30133\include\xutility

; 4066 :     _CSTD memmove(_Dest_ch, _First_ch, _Count);

  000d1	8d 0c bd 00 00
	00 00		 lea	 ecx, DWORD PTR [edi*4]
  000d8	51		 push	 ecx
  000d9	52		 push	 edx
  000da	50		 push	 eax
  000db	e8 00 00 00 00	 call	 _memmove
; File C:\Program Files (x86)\Microsoft Visual Studio\2019\Community\VC\Tools\MSVC\14.29.30133\include\xmemory

; 1792 :     _CSTD memset(_First_ch, 0, static_cast<size_t>(_Last_ch - _First_ch));

  000e0	8b c3		 mov	 eax, ebx
  000e2	2b c7		 sub	 eax, edi
; File C:\Program Files (x86)\Microsoft Visual Studio\2019\Community\VC\Tools\MSVC\14.29.30133\include\xutility

; 4068 :         return reinterpret_cast<_OutCtgIt>(_Dest_ch + _Count);

  000e4	8b 7d fc	 mov	 edi, DWORD PTR __Count$1$[ebp]
; File C:\Program Files (x86)\Microsoft Visual Studio\2019\Community\VC\Tools\MSVC\14.29.30133\include\xmemory

; 1792 :     _CSTD memset(_First_ch, 0, static_cast<size_t>(_Last_ch - _First_ch));

  000e7	c1 e0 02	 shl	 eax, 2
  000ea	50		 push	 eax
; File C:\Program Files (x86)\Microsoft Visual Studio\2019\Community\VC\Tools\MSVC\14.29.30133\include\xutility

; 4068 :         return reinterpret_cast<_OutCtgIt>(_Dest_ch + _Count);

  000eb	8b 45 f0	 mov	 eax, DWORD PTR __Myptr$1$[ebp]
  000ee	03 c7		 add	 eax, edi
; File C:\Program Files (x86)\Microsoft Visual Studio\2019\Community\VC\Tools\MSVC\14.29.30133\include\xmemory

; 1792 :     _CSTD memset(_First_ch, 0, static_cast<size_t>(_Last_ch - _First_ch));

  000f0	6a 00		 push	 0
  000f2	50		 push	 eax
  000f3	e8 00 00 00 00	 call	 _memset
  000f8	57		 push	 edi
  000f9	8b 7d 08	 mov	 edi, DWORD PTR $T1[ebp]
  000fc	6a 00		 push	 0
  000fe	57		 push	 edi
  000ff	e8 00 00 00 00	 call	 _memset
; File C:\Program Files (x86)\Microsoft Visual Studio\2019\Community\VC\Tools\MSVC\14.29.30133\include\deque

; 1456 :         } else { // increment not greater than offset of initial block

  00104	eb 36		 jmp	 SHORT $LN146@Growmap
$LN6@Growmap:

; 1457 :             _STD uninitialized_copy(_Map(), _Map() + _Count, _Myptr); // copy more old

  00106	8d 3c 9d 00 00
	00 00		 lea	 edi, DWORD PTR [ebx*4]
; File C:\Program Files (x86)\Microsoft Visual Studio\2019\Community\VC\Tools\MSVC\14.29.30133\include\xutility

; 4066 :     _CSTD memmove(_Dest_ch, _First_ch, _Count);

  0010d	57		 push	 edi
  0010e	52		 push	 edx
  0010f	50		 push	 eax
  00110	e8 00 00 00 00	 call	 _memmove
; File C:\Program Files (x86)\Microsoft Visual Studio\2019\Community\VC\Tools\MSVC\14.29.30133\include\deque

; 1458 :             _Myptr = _STD uninitialized_copy(_Map() + _Count, _Map() + _Myboff, _Newmap); // copy rest of old

  00115	8b 76 04	 mov	 esi, DWORD PTR [esi+4]
  00118	8d 04 37	 lea	 eax, DWORD PTR [edi+esi]
; File C:\Program Files (x86)\Microsoft Visual Studio\2019\Community\VC\Tools\MSVC\14.29.30133\include\xutility

; 4065 :     const auto _Count           = static_cast<size_t>(_Last_ch - _First_ch);

  0011b	2b f0		 sub	 esi, eax
; File C:\Program Files (x86)\Microsoft Visual Studio\2019\Community\VC\Tools\MSVC\14.29.30133\include\deque

; 1458 :             _Myptr = _STD uninitialized_copy(_Map() + _Count, _Map() + _Myboff, _Newmap); // copy rest of old

  0011d	03 75 fc	 add	 esi, DWORD PTR __Count$1$[ebp]
; File C:\Program Files (x86)\Microsoft Visual Studio\2019\Community\VC\Tools\MSVC\14.29.30133\include\xutility

; 4066 :     _CSTD memmove(_Dest_ch, _First_ch, _Count);

  00120	56		 push	 esi
  00121	50		 push	 eax
  00122	ff 75 08	 push	 DWORD PTR $T1[ebp]
  00125	e8 00 00 00 00	 call	 _memmove
; File C:\Program Files (x86)\Microsoft Visual Studio\2019\Community\VC\Tools\MSVC\14.29.30133\include\xmemory

; 1792 :     _CSTD memset(_First_ch, 0, static_cast<size_t>(_Last_ch - _First_ch));

  0012a	57		 push	 edi
; File C:\Program Files (x86)\Microsoft Visual Studio\2019\Community\VC\Tools\MSVC\14.29.30133\include\xutility

; 4068 :         return reinterpret_cast<_OutCtgIt>(_Dest_ch + _Count);

  0012b	8b 7d 08	 mov	 edi, DWORD PTR $T1[ebp]
; File C:\Program Files (x86)\Microsoft Visual Studio\2019\Community\VC\Tools\MSVC\14.29.30133\include\xmemory

; 1792 :     _CSTD memset(_First_ch, 0, static_cast<size_t>(_Last_ch - _First_ch));

  0012e	6a 00		 push	 0
; File C:\Program Files (x86)\Microsoft Visual Studio\2019\Community\VC\Tools\MSVC\14.29.30133\include\xutility

; 4068 :         return reinterpret_cast<_OutCtgIt>(_Dest_ch + _Count);

  00130	8d 04 3e	 lea	 eax, DWORD PTR [esi+edi]
; File C:\Program Files (x86)\Microsoft Visual Studio\2019\Community\VC\Tools\MSVC\14.29.30133\include\xmemory

; 1792 :     _CSTD memset(_First_ch, 0, static_cast<size_t>(_Last_ch - _First_ch));

  00133	50		 push	 eax
  00134	e8 00 00 00 00	 call	 _memset
  00139	8b 75 f8	 mov	 esi, DWORD PTR _this$1$[ebp]
$LN146@Growmap:
; File C:\Program Files (x86)\Microsoft Visual Studio\2019\Community\VC\Tools\MSVC\14.29.30133\include\deque

; 1463 :         if (_Map() != _Mapptr()) {

  0013c	8b 46 04	 mov	 eax, DWORD PTR [esi+4]
  0013f	83 c4 24	 add	 esp, 36			; 00000024H
  00142	85 c0		 test	 eax, eax
  00144	74 2a		 je	 SHORT $LN123@Growmap
; File C:\Program Files (x86)\Microsoft Visual Studio\2019\Community\VC\Tools\MSVC\14.29.30133\include\xmemory

; 797  :         _Deallocate<_New_alignof<_Ty>>(_Ptr, sizeof(_Ty) * _Count);

  00146	8b 4e 08	 mov	 ecx, DWORD PTR [esi+8]
  00149	c1 e1 02	 shl	 ecx, 2

; 251  :         if (_Bytes >= _Big_allocation_threshold) { // boost the alignment of big allocations to help autovectorization

  0014c	81 f9 00 10 00
	00		 cmp	 ecx, 4096		; 00001000H
  00152	72 12		 jb	 SHORT $LN133@Growmap

; 150  :     const uintptr_t _Ptr_container   = _Ptr_user[-1];

  00154	8b 50 fc	 mov	 edx, DWORD PTR [eax-4]
  00157	83 c1 23	 add	 ecx, 35			; 00000023H

; 151  : 
; 152  :     // If the following asserts, it likely means that we are performing
; 153  :     // an aligned delete on memory coming from an unaligned allocation.
; 154  :     _STL_ASSERT(_Ptr_user[-2] == _Big_allocation_sentinel, "invalid argument");
; 155  : 
; 156  :     // Extra paranoia on aligned allocation/deallocation; ensure _Ptr_container is
; 157  :     // in range [_Min_back_shift, _Non_user_size]
; 158  : #ifdef _DEBUG
; 159  :     constexpr uintptr_t _Min_back_shift = 2 * sizeof(void*);
; 160  : #else // ^^^ _DEBUG ^^^ // vvv !_DEBUG vvv
; 161  :     constexpr uintptr_t _Min_back_shift = sizeof(void*);
; 162  : #endif // _DEBUG
; 163  :     const uintptr_t _Back_shift = reinterpret_cast<uintptr_t>(_Ptr) - _Ptr_container;

  0015a	2b c2		 sub	 eax, edx

; 164  :     _STL_VERIFY(_Back_shift >= _Min_back_shift && _Back_shift <= _Non_user_size, "invalid argument");

  0015c	83 c0 fc	 add	 eax, -4			; fffffffcH
  0015f	83 f8 1f	 cmp	 eax, 31			; 0000001fH
  00162	77 1b		 ja	 SHORT $LN130@Growmap

; 165  :     _Ptr = reinterpret_cast<void*>(_Ptr_container);

  00164	8b c2		 mov	 eax, edx
$LN133@Growmap:

; 255  :         ::operator delete(_Ptr, _Bytes);

  00166	51		 push	 ecx
  00167	50		 push	 eax
  00168	e8 00 00 00 00	 call	 ??3@YAXPAXI@Z		; operator delete
  0016d	83 c4 08	 add	 esp, 8
$LN123@Growmap:
; File C:\Program Files (x86)\Microsoft Visual Studio\2019\Community\VC\Tools\MSVC\14.29.30133\include\deque

; 1468 :         _Mapsize() += _Count;

  00170	01 5e 08	 add	 DWORD PTR [esi+8], ebx
  00173	89 7e 04	 mov	 DWORD PTR [esi+4], edi
  00176	5f		 pop	 edi
  00177	5e		 pop	 esi
  00178	5b		 pop	 ebx

; 1469 :     }

  00179	8b e5		 mov	 esp, ebp
  0017b	5d		 pop	 ebp
  0017c	c2 04 00	 ret	 4
$LN130@Growmap:
; File C:\Program Files (x86)\Microsoft Visual Studio\2019\Community\VC\Tools\MSVC\14.29.30133\include\xmemory

; 164  :     _STL_VERIFY(_Back_shift >= _Min_back_shift && _Back_shift <= _Non_user_size, "invalid argument");

  0017f	ff 15 00 00 00
	00		 call	 DWORD PTR __imp___invalid_parameter_noinfo_noreturn
$LN138@Growmap:
; File C:\Program Files (x86)\Microsoft Visual Studio\2019\Community\VC\Tools\MSVC\14.29.30133\include\deque

; 1440 :                 _Xlen(); // result too long

  00185	8b ce		 mov	 ecx, esi
  00187	e8 00 00 00 00	 call	 ?_Xlen@?$deque@PAVCCoordinate@@V?$allocator@PAVCCoordinate@@@std@@@std@@ABEXXZ ; std::deque<CCoordinate *,std::allocator<CCoordinate *> >::_Xlen
$LN142@Growmap:
; File C:\Program Files (x86)\Microsoft Visual Studio\2019\Community\VC\Tools\MSVC\14.29.30133\include\xmemory

; 131  :         _Throw_bad_array_new_length(); // add overflow

  0018c	e8 00 00 00 00	 call	 ?_Throw_bad_array_new_length@std@@YAXXZ ; std::_Throw_bad_array_new_length
$LN144@Growmap:
  00191	cc		 int	 3
?_Growmap@?$deque@PAVCCoordinate@@V?$allocator@PAVCCoordinate@@@std@@@std@@AAEXI@Z ENDP ; std::deque<CCoordinate *,std::allocator<CCoordinate *> >::_Growmap
_TEXT	ENDS
; Function compile flags: /Ogtp
; File C:\Program Files (x86)\Microsoft Visual Studio\2019\Community\VC\Tools\MSVC\14.29.30133\include\deque
;	COMDAT ?_Xlen@?$deque@PAVCCoordinate@@V?$allocator@PAVCCoordinate@@@std@@@std@@ABEXXZ
_TEXT	SEGMENT
?_Xlen@?$deque@PAVCCoordinate@@V?$allocator@PAVCCoordinate@@@std@@@std@@ABEXXZ PROC ; std::deque<CCoordinate *,std::allocator<CCoordinate *> >::_Xlen, COMDAT
; _this$ = ecx

; 1425 :         _Xlength_error("deque<T> too long");

  00000	68 00 00 00 00	 push	 OFFSET ??_C@_0BC@KBDMBKEH@deque?$DMT?$DO?5too?5long@
  00005	e8 00 00 00 00	 call	 ?_Xlength_error@std@@YAXPBD@Z ; std::_Xlength_error
$LN3@Xlen:
  0000a	cc		 int	 3
?_Xlen@?$deque@PAVCCoordinate@@V?$allocator@PAVCCoordinate@@@std@@@std@@ABEXXZ ENDP ; std::deque<CCoordinate *,std::allocator<CCoordinate *> >::_Xlen
_TEXT	ENDS
; Function compile flags: /Ogtp
;	COMDAT ??1CColorButton@@UAE@XZ
_TEXT	SEGMENT
??1CColorButton@@UAE@XZ PROC				; CColorButton::~CColorButton, COMDAT
; _this$ = ecx
  00000	e9 00 00 00 00	 jmp	 ??1CButton@@UAE@XZ	; CButton::~CButton
??1CColorButton@@UAE@XZ ENDP				; CColorButton::~CColorButton
_TEXT	ENDS
; Function compile flags: /Ogtp
; File C:\Program Files (x86)\Microsoft Visual Studio\2019\Community\VC\Tools\MSVC\14.29.30133\include\exception
;	COMDAT ?_Throw_bad_array_new_length@std@@YAXXZ
_TEXT	SEGMENT
$T1 = -12						; size = 12
?_Throw_bad_array_new_length@std@@YAXXZ PROC		; std::_Throw_bad_array_new_length, COMDAT

; 315  : [[noreturn]] inline void _Throw_bad_array_new_length() {

  00000	55		 push	 ebp
  00001	8b ec		 mov	 ebp, esp
  00003	83 ec 0c	 sub	 esp, 12			; 0000000cH

; 316  :     _THROW(bad_array_new_length{});

  00006	8d 4d f4	 lea	 ecx, DWORD PTR $T1[ebp]
  00009	e8 00 00 00 00	 call	 ??0bad_array_new_length@std@@QAE@XZ ; std::bad_array_new_length::bad_array_new_length
  0000e	68 00 00 00 00	 push	 OFFSET __TI3?AVbad_array_new_length@std@@
  00013	8d 45 f4	 lea	 eax, DWORD PTR $T1[ebp]
  00016	50		 push	 eax
  00017	e8 00 00 00 00	 call	 __CxxThrowException@8
$LN3@Throw_bad_:
  0001c	cc		 int	 3
?_Throw_bad_array_new_length@std@@YAXXZ ENDP		; std::_Throw_bad_array_new_length
_TEXT	ENDS
; Function compile flags: /Ogtp
; File C:\Program Files (x86)\Microsoft Visual Studio\2019\Community\VC\Tools\MSVC\14.29.30133\include\vcruntime_exception.h
;	COMDAT ??_Gbad_array_new_length@std@@UAEPAXI@Z
_TEXT	SEGMENT
___flags$ = 8						; size = 4
??_Gbad_array_new_length@std@@UAEPAXI@Z PROC		; std::bad_array_new_length::`scalar deleting destructor', COMDAT
; _this$ = ecx
  00000	55		 push	 ebp
  00001	8b ec		 mov	 ebp, esp

; 89   :     {

  00003	56		 push	 esi
  00004	8b f1		 mov	 esi, ecx

; 90   :         __std_exception_destroy(&_Data);

  00006	8d 46 04	 lea	 eax, DWORD PTR [esi+4]
  00009	c7 06 00 00 00
	00		 mov	 DWORD PTR [esi], OFFSET ??_7exception@std@@6B@
  0000f	50		 push	 eax
  00010	e8 00 00 00 00	 call	 ___std_exception_destroy
  00015	83 c4 04	 add	 esp, 4
  00018	f6 45 08 01	 test	 BYTE PTR ___flags$[ebp], 1
  0001c	74 0b		 je	 SHORT $LN12@scalar
  0001e	6a 0c		 push	 12			; 0000000cH
  00020	56		 push	 esi
  00021	e8 00 00 00 00	 call	 ??3@YAXPAXI@Z		; operator delete
  00026	83 c4 08	 add	 esp, 8
$LN12@scalar:
  00029	8b c6		 mov	 eax, esi
  0002b	5e		 pop	 esi
  0002c	5d		 pop	 ebp
  0002d	c2 04 00	 ret	 4
??_Gbad_array_new_length@std@@UAEPAXI@Z ENDP		; std::bad_array_new_length::`scalar deleting destructor'
_TEXT	ENDS
; Function compile flags: /Ogtp
; File C:\Program Files (x86)\Microsoft Visual Studio\2019\Community\VC\Tools\MSVC\14.29.30133\include\vcruntime_exception.h
;	COMDAT ??0bad_array_new_length@std@@QAE@ABV01@@Z
_TEXT	SEGMENT
___that$ = 8						; size = 4
??0bad_array_new_length@std@@QAE@ABV01@@Z PROC		; std::bad_array_new_length::bad_array_new_length, COMDAT
; _this$ = ecx
  00000	55		 push	 ebp
  00001	8b ec		 mov	 ebp, esp

; 72   :     {

  00003	56		 push	 esi
  00004	8b f1		 mov	 esi, ecx
  00006	0f 57 c0	 xorps	 xmm0, xmm0

; 71   :         : _Data()

  00009	8d 46 04	 lea	 eax, DWORD PTR [esi+4]

; 73   :         __std_exception_copy(&_Other._Data, &_Data);

  0000c	50		 push	 eax
  0000d	c7 06 00 00 00
	00		 mov	 DWORD PTR [esi], OFFSET ??_7exception@std@@6B@
  00013	66 0f d6 00	 movq	 QWORD PTR [eax], xmm0
  00017	8b 45 08	 mov	 eax, DWORD PTR ___that$[ebp]
  0001a	83 c0 04	 add	 eax, 4
  0001d	50		 push	 eax
  0001e	e8 00 00 00 00	 call	 ___std_exception_copy
  00023	83 c4 08	 add	 esp, 8
  00026	c7 06 00 00 00
	00		 mov	 DWORD PTR [esi], OFFSET ??_7bad_array_new_length@std@@6B@
  0002c	8b c6		 mov	 eax, esi
  0002e	5e		 pop	 esi
  0002f	5d		 pop	 ebp
  00030	c2 04 00	 ret	 4
??0bad_array_new_length@std@@QAE@ABV01@@Z ENDP		; std::bad_array_new_length::bad_array_new_length
_TEXT	ENDS
; Function compile flags: /Ogtp
; File C:\Program Files (x86)\Microsoft Visual Studio\2019\Community\VC\Tools\MSVC\14.29.30133\include\vcruntime_exception.h
;	COMDAT ??1bad_array_new_length@std@@UAE@XZ
_TEXT	SEGMENT
??1bad_array_new_length@std@@UAE@XZ PROC		; std::bad_array_new_length::~bad_array_new_length, COMDAT
; _this$ = ecx

; 90   :         __std_exception_destroy(&_Data);

  00000	8d 41 04	 lea	 eax, DWORD PTR [ecx+4]
  00003	c7 01 00 00 00
	00		 mov	 DWORD PTR [ecx], OFFSET ??_7exception@std@@6B@
  00009	50		 push	 eax
  0000a	e8 00 00 00 00	 call	 ___std_exception_destroy
  0000f	59		 pop	 ecx
  00010	c3		 ret	 0
??1bad_array_new_length@std@@UAE@XZ ENDP		; std::bad_array_new_length::~bad_array_new_length
_TEXT	ENDS
; Function compile flags: /Ogtp
; File C:\Program Files (x86)\Microsoft Visual Studio\2019\Community\VC\Tools\MSVC\14.29.30133\include\vcruntime_exception.h
;	COMDAT ??0bad_array_new_length@std@@QAE@XZ
_TEXT	SEGMENT
??0bad_array_new_length@std@@QAE@XZ PROC		; std::bad_array_new_length::bad_array_new_length, COMDAT
; _this$ = ecx

; 141  :     {

  00000	0f 57 c0	 xorps	 xmm0, xmm0

; 142  :     }

  00003	8b c1		 mov	 eax, ecx

; 65   :         : _Data()

  00005	66 0f d6 41 04	 movq	 QWORD PTR [ecx+4], xmm0

; 66   :     {
; 67   :         _Data._What = _Message;

  0000a	c7 41 04 00 00
	00 00		 mov	 DWORD PTR [ecx+4], OFFSET ??_C@_0BF@KINCDENJ@bad?5array?5new?5length@

; 141  :     {

  00011	c7 01 00 00 00
	00		 mov	 DWORD PTR [ecx], OFFSET ??_7bad_array_new_length@std@@6B@

; 142  :     }

  00017	c3		 ret	 0
??0bad_array_new_length@std@@QAE@XZ ENDP		; std::bad_array_new_length::bad_array_new_length
_TEXT	ENDS
; Function compile flags: /Ogtp
; File C:\Program Files (x86)\Microsoft Visual Studio\2019\Community\VC\Tools\MSVC\14.29.30133\include\vcruntime_exception.h
;	COMDAT ??_Gbad_alloc@std@@UAEPAXI@Z
_TEXT	SEGMENT
___flags$ = 8						; size = 4
??_Gbad_alloc@std@@UAEPAXI@Z PROC			; std::bad_alloc::`scalar deleting destructor', COMDAT
; _this$ = ecx
  00000	55		 push	 ebp
  00001	8b ec		 mov	 ebp, esp

; 89   :     {

  00003	56		 push	 esi
  00004	8b f1		 mov	 esi, ecx

; 90   :         __std_exception_destroy(&_Data);

  00006	8d 46 04	 lea	 eax, DWORD PTR [esi+4]
  00009	c7 06 00 00 00
	00		 mov	 DWORD PTR [esi], OFFSET ??_7exception@std@@6B@
  0000f	50		 push	 eax
  00010	e8 00 00 00 00	 call	 ___std_exception_destroy
  00015	83 c4 04	 add	 esp, 4
  00018	f6 45 08 01	 test	 BYTE PTR ___flags$[ebp], 1
  0001c	74 0b		 je	 SHORT $LN9@scalar
  0001e	6a 0c		 push	 12			; 0000000cH
  00020	56		 push	 esi
  00021	e8 00 00 00 00	 call	 ??3@YAXPAXI@Z		; operator delete
  00026	83 c4 08	 add	 esp, 8
$LN9@scalar:
  00029	8b c6		 mov	 eax, esi
  0002b	5e		 pop	 esi
  0002c	5d		 pop	 ebp
  0002d	c2 04 00	 ret	 4
??_Gbad_alloc@std@@UAEPAXI@Z ENDP			; std::bad_alloc::`scalar deleting destructor'
_TEXT	ENDS
; Function compile flags: /Ogtp
; File C:\Program Files (x86)\Microsoft Visual Studio\2019\Community\VC\Tools\MSVC\14.29.30133\include\vcruntime_exception.h
;	COMDAT ??0bad_alloc@std@@QAE@ABV01@@Z
_TEXT	SEGMENT
___that$ = 8						; size = 4
??0bad_alloc@std@@QAE@ABV01@@Z PROC			; std::bad_alloc::bad_alloc, COMDAT
; _this$ = ecx
  00000	55		 push	 ebp
  00001	8b ec		 mov	 ebp, esp

; 72   :     {

  00003	56		 push	 esi
  00004	8b f1		 mov	 esi, ecx
  00006	0f 57 c0	 xorps	 xmm0, xmm0

; 71   :         : _Data()

  00009	8d 46 04	 lea	 eax, DWORD PTR [esi+4]

; 73   :         __std_exception_copy(&_Other._Data, &_Data);

  0000c	50		 push	 eax
  0000d	c7 06 00 00 00
	00		 mov	 DWORD PTR [esi], OFFSET ??_7exception@std@@6B@
  00013	66 0f d6 00	 movq	 QWORD PTR [eax], xmm0
  00017	8b 45 08	 mov	 eax, DWORD PTR ___that$[ebp]
  0001a	83 c0 04	 add	 eax, 4
  0001d	50		 push	 eax
  0001e	e8 00 00 00 00	 call	 ___std_exception_copy
  00023	83 c4 08	 add	 esp, 8
  00026	c7 06 00 00 00
	00		 mov	 DWORD PTR [esi], OFFSET ??_7bad_alloc@std@@6B@
  0002c	8b c6		 mov	 eax, esi
  0002e	5e		 pop	 esi
  0002f	5d		 pop	 ebp
  00030	c2 04 00	 ret	 4
??0bad_alloc@std@@QAE@ABV01@@Z ENDP			; std::bad_alloc::bad_alloc
_TEXT	ENDS
; Function compile flags: /Ogtp
; File C:\Program Files (x86)\Microsoft Visual Studio\2019\Community\VC\Tools\MSVC\14.29.30133\include\vcruntime_exception.h
;	COMDAT ??_Gexception@std@@UAEPAXI@Z
_TEXT	SEGMENT
___flags$ = 8						; size = 4
??_Gexception@std@@UAEPAXI@Z PROC			; std::exception::`scalar deleting destructor', COMDAT
; _this$ = ecx
  00000	55		 push	 ebp
  00001	8b ec		 mov	 ebp, esp

; 89   :     {

  00003	56		 push	 esi
  00004	8b f1		 mov	 esi, ecx

; 90   :         __std_exception_destroy(&_Data);

  00006	8d 46 04	 lea	 eax, DWORD PTR [esi+4]
  00009	c7 06 00 00 00
	00		 mov	 DWORD PTR [esi], OFFSET ??_7exception@std@@6B@
  0000f	50		 push	 eax
  00010	e8 00 00 00 00	 call	 ___std_exception_destroy
  00015	83 c4 04	 add	 esp, 4
  00018	f6 45 08 01	 test	 BYTE PTR ___flags$[ebp], 1
  0001c	74 0b		 je	 SHORT $LN6@scalar
  0001e	6a 0c		 push	 12			; 0000000cH
  00020	56		 push	 esi
  00021	e8 00 00 00 00	 call	 ??3@YAXPAXI@Z		; operator delete
  00026	83 c4 08	 add	 esp, 8
$LN6@scalar:
  00029	8b c6		 mov	 eax, esi
  0002b	5e		 pop	 esi
  0002c	5d		 pop	 ebp
  0002d	c2 04 00	 ret	 4
??_Gexception@std@@UAEPAXI@Z ENDP			; std::exception::`scalar deleting destructor'
_TEXT	ENDS
; Function compile flags: /Ogtp
; File C:\Program Files (x86)\Microsoft Visual Studio\2019\Community\VC\Tools\MSVC\14.29.30133\include\vcruntime_exception.h
;	COMDAT ?what@exception@std@@UBEPBDXZ
_TEXT	SEGMENT
?what@exception@std@@UBEPBDXZ PROC			; std::exception::what, COMDAT
; _this$ = ecx

; 95   :         return _Data._What ? _Data._What : "Unknown exception";

  00000	8b 49 04	 mov	 ecx, DWORD PTR [ecx+4]
  00003	b8 00 00 00 00	 mov	 eax, OFFSET ??_C@_0BC@EOODALEL@Unknown?5exception@
  00008	85 c9		 test	 ecx, ecx
  0000a	0f 45 c1	 cmovne	 eax, ecx

; 96   :     }

  0000d	c3		 ret	 0
?what@exception@std@@UBEPBDXZ ENDP			; std::exception::what
_TEXT	ENDS
; Function compile flags: /Ogtp
; File C:\Program Files (x86)\Microsoft Visual Studio\2019\Community\VC\Tools\MSVC\14.29.30133\include\vcruntime_exception.h
;	COMDAT ??1exception@std@@UAE@XZ
_TEXT	SEGMENT
??1exception@std@@UAE@XZ PROC				; std::exception::~exception, COMDAT
; _this$ = ecx

; 90   :         __std_exception_destroy(&_Data);

  00000	8d 41 04	 lea	 eax, DWORD PTR [ecx+4]
  00003	c7 01 00 00 00
	00		 mov	 DWORD PTR [ecx], OFFSET ??_7exception@std@@6B@
  00009	50		 push	 eax
  0000a	e8 00 00 00 00	 call	 ___std_exception_destroy
  0000f	59		 pop	 ecx

; 91   :     }

  00010	c3		 ret	 0
??1exception@std@@UAE@XZ ENDP				; std::exception::~exception
_TEXT	ENDS
; Function compile flags: /Ogtp
; File C:\Program Files (x86)\Microsoft Visual Studio\2019\Community\VC\Tools\MSVC\14.29.30133\include\vcruntime_exception.h
;	COMDAT ??0exception@std@@QAE@ABV01@@Z
_TEXT	SEGMENT
__Other$ = 8						; size = 4
??0exception@std@@QAE@ABV01@@Z PROC			; std::exception::exception, COMDAT
; _this$ = ecx

; 72   :     {

  00000	55		 push	 ebp
  00001	8b ec		 mov	 ebp, esp
  00003	56		 push	 esi
  00004	8b f1		 mov	 esi, ecx
  00006	0f 57 c0	 xorps	 xmm0, xmm0
  00009	8d 46 04	 lea	 eax, DWORD PTR [esi+4]

; 73   :         __std_exception_copy(&_Other._Data, &_Data);

  0000c	50		 push	 eax
  0000d	c7 06 00 00 00
	00		 mov	 DWORD PTR [esi], OFFSET ??_7exception@std@@6B@
  00013	66 0f d6 00	 movq	 QWORD PTR [eax], xmm0
  00017	8b 45 08	 mov	 eax, DWORD PTR __Other$[ebp]
  0001a	83 c0 04	 add	 eax, 4
  0001d	50		 push	 eax
  0001e	e8 00 00 00 00	 call	 ___std_exception_copy
  00023	83 c4 08	 add	 esp, 8

; 74   :     }

  00026	8b c6		 mov	 eax, esi
  00028	5e		 pop	 esi
  00029	5d		 pop	 ebp
  0002a	c2 04 00	 ret	 4
??0exception@std@@QAE@ABV01@@Z ENDP			; std::exception::exception
_TEXT	ENDS
; Function compile flags: /Ogtp
; File C:\Program Files (x86)\Microsoft Visual Studio\2019\Community\VC\Tools\MSVC\14.29.30133\atlmfc\include\afx.inl
;	COMDAT ??_GCDateTimeCtrl@@UAEPAXI@Z
_TEXT	SEGMENT
___flags$ = 8						; size = 4
??_GCDateTimeCtrl@@UAEPAXI@Z PROC			; CDateTimeCtrl::`scalar deleting destructor', COMDAT
; _this$ = ecx
  00000	55		 push	 ebp
  00001	8b ec		 mov	 ebp, esp
  00003	56		 push	 esi
  00004	8b f1		 mov	 esi, ecx
  00006	e8 00 00 00 00	 call	 ??1CDateTimeCtrl@@UAE@XZ ; CDateTimeCtrl::~CDateTimeCtrl
  0000b	8b 45 08	 mov	 eax, DWORD PTR ___flags$[ebp]
  0000e	a8 01		 test	 al, 1
  00010	74 22		 je	 SHORT $LN9@scalar
  00012	a8 04		 test	 al, 4
  00014	75 10		 jne	 SHORT $LN3@scalar

; 112  : 	{ ::operator delete(p); }

  00016	56		 push	 esi
  00017	e8 00 00 00 00	 call	 ??3@YAXPAX@Z		; operator delete
  0001c	83 c4 04	 add	 esp, 4
  0001f	8b c6		 mov	 eax, esi
  00021	5e		 pop	 esi
  00022	5d		 pop	 ebp
  00023	c2 04 00	 ret	 4
$LN3@scalar:
  00026	68 80 00 00 00	 push	 128			; 00000080H
  0002b	56		 push	 esi
  0002c	e8 00 00 00 00	 call	 ?__global_delete@@YAXPAXI@Z ; __global_delete
  00031	83 c4 08	 add	 esp, 8
$LN9@scalar:
  00034	8b c6		 mov	 eax, esi
  00036	5e		 pop	 esi
  00037	5d		 pop	 ebp
  00038	c2 04 00	 ret	 4
??_GCDateTimeCtrl@@UAEPAXI@Z ENDP			; CDateTimeCtrl::`scalar deleting destructor'
_TEXT	ENDS
; Function compile flags: /Ogtp
; File C:\Program Files (x86)\Microsoft Visual Studio\2019\Community\VC\Tools\MSVC\14.29.30133\atlmfc\include\afxdlgs.h
;	COMDAT ??1CColorDialog@@UAE@XZ
_TEXT	SEGMENT
??1CColorDialog@@UAE@XZ PROC				; CColorDialog::~CColorDialog, COMDAT
; _this$ = ecx

; 110  :     virtual ~CCommonDialog() {};

  00000	c7 01 00 00 00
	00		 mov	 DWORD PTR [ecx], OFFSET ??_7CCommonDialog@@6B@
  00006	e9 00 00 00 00	 jmp	 ??1CDialog@@UAE@XZ	; CDialog::~CDialog
??1CColorDialog@@UAE@XZ ENDP				; CColorDialog::~CColorDialog
_TEXT	ENDS
; Function compile flags: /Ogtp
; File C:\Program Files (x86)\Microsoft Visual Studio\2019\Community\VC\Tools\MSVC\14.29.30133\atlmfc\include\afxdlgs.h
; File C:\Program Files (x86)\Microsoft Visual Studio\2019\Community\VC\Tools\MSVC\14.29.30133\atlmfc\include\afx.inl
;	COMDAT ??_GCCommonDialog@@UAEPAXI@Z
_TEXT	SEGMENT
___flags$ = 8						; size = 4
??_GCCommonDialog@@UAEPAXI@Z PROC			; CCommonDialog::`scalar deleting destructor', COMDAT
; _this$ = ecx
  00000	55		 push	 ebp
  00001	8b ec		 mov	 ebp, esp
; File C:\Program Files (x86)\Microsoft Visual Studio\2019\Community\VC\Tools\MSVC\14.29.30133\atlmfc\include\afxdlgs.h

; 110  :     virtual ~CCommonDialog() {};

  00003	56		 push	 esi
  00004	8b f1		 mov	 esi, ecx
  00006	c7 06 00 00 00
	00		 mov	 DWORD PTR [esi], OFFSET ??_7CCommonDialog@@6B@
  0000c	e8 00 00 00 00	 call	 ??1CDialog@@UAE@XZ	; CDialog::~CDialog
  00011	8b 45 08	 mov	 eax, DWORD PTR ___flags$[ebp]
  00014	a8 01		 test	 al, 1
  00016	74 22		 je	 SHORT $LN12@scalar
  00018	a8 04		 test	 al, 4
  0001a	75 10		 jne	 SHORT $LN3@scalar
; File C:\Program Files (x86)\Microsoft Visual Studio\2019\Community\VC\Tools\MSVC\14.29.30133\atlmfc\include\afx.inl

; 112  : 	{ ::operator delete(p); }

  0001c	56		 push	 esi
  0001d	e8 00 00 00 00	 call	 ??3@YAXPAX@Z		; operator delete
  00022	83 c4 04	 add	 esp, 4
  00025	8b c6		 mov	 eax, esi
  00027	5e		 pop	 esi
  00028	5d		 pop	 ebp
  00029	c2 04 00	 ret	 4
$LN3@scalar:
  0002c	68 a8 00 00 00	 push	 168			; 000000a8H
  00031	56		 push	 esi
  00032	e8 00 00 00 00	 call	 ?__global_delete@@YAXPAXI@Z ; __global_delete
  00037	83 c4 08	 add	 esp, 8
$LN12@scalar:
  0003a	8b c6		 mov	 eax, esi
  0003c	5e		 pop	 esi
  0003d	5d		 pop	 ebp
  0003e	c2 04 00	 ret	 4
??_GCCommonDialog@@UAEPAXI@Z ENDP			; CCommonDialog::`scalar deleting destructor'
_TEXT	ENDS
; Function compile flags: /Ogtp
; File C:\Program Files (x86)\Microsoft Visual Studio\2019\Community\VC\Tools\MSVC\14.29.30133\atlmfc\include\afxdlgs.h
;	COMDAT ??1CCommonDialog@@UAE@XZ
_TEXT	SEGMENT
??1CCommonDialog@@UAE@XZ PROC				; CCommonDialog::~CCommonDialog, COMDAT
; _this$ = ecx

; 110  :     virtual ~CCommonDialog() {};

  00000	c7 01 00 00 00
	00		 mov	 DWORD PTR [ecx], OFFSET ??_7CCommonDialog@@6B@
  00006	e9 00 00 00 00	 jmp	 ??1CDialog@@UAE@XZ	; CDialog::~CDialog
??1CCommonDialog@@UAE@XZ ENDP				; CCommonDialog::~CCommonDialog
_TEXT	ENDS
; Function compile flags: /Ogtp
; File C:\Program Files (x86)\Microsoft Visual Studio\2019\Community\VC\Tools\MSVC\14.29.30133\atlmfc\include\afx.inl
;	COMDAT ??_GCEdit@@UAEPAXI@Z
_TEXT	SEGMENT
___flags$ = 8						; size = 4
??_GCEdit@@UAEPAXI@Z PROC				; CEdit::`scalar deleting destructor', COMDAT
; _this$ = ecx
  00000	55		 push	 ebp
  00001	8b ec		 mov	 ebp, esp
  00003	56		 push	 esi
  00004	8b f1		 mov	 esi, ecx
  00006	e8 00 00 00 00	 call	 ??1CEdit@@UAE@XZ	; CEdit::~CEdit
  0000b	8b 45 08	 mov	 eax, DWORD PTR ___flags$[ebp]
  0000e	a8 01		 test	 al, 1
  00010	74 22		 je	 SHORT $LN9@scalar
  00012	a8 04		 test	 al, 4
  00014	75 10		 jne	 SHORT $LN3@scalar

; 112  : 	{ ::operator delete(p); }

  00016	56		 push	 esi
  00017	e8 00 00 00 00	 call	 ??3@YAXPAX@Z		; operator delete
  0001c	83 c4 04	 add	 esp, 4
  0001f	8b c6		 mov	 eax, esi
  00021	5e		 pop	 esi
  00022	5d		 pop	 ebp
  00023	c2 04 00	 ret	 4
$LN3@scalar:
  00026	68 80 00 00 00	 push	 128			; 00000080H
  0002b	56		 push	 esi
  0002c	e8 00 00 00 00	 call	 ?__global_delete@@YAXPAXI@Z ; __global_delete
  00031	83 c4 08	 add	 esp, 8
$LN9@scalar:
  00034	8b c6		 mov	 eax, esi
  00036	5e		 pop	 esi
  00037	5d		 pop	 ebp
  00038	c2 04 00	 ret	 4
??_GCEdit@@UAEPAXI@Z ENDP				; CEdit::`scalar deleting destructor'
_TEXT	ENDS
; Function compile flags: /Ogtp
; File C:\Program Files (x86)\Microsoft Visual Studio\2019\Community\VC\Tools\MSVC\14.29.30133\atlmfc\include\afx.inl
;	COMDAT ??_GCButton@@UAEPAXI@Z
_TEXT	SEGMENT
___flags$ = 8						; size = 4
??_GCButton@@UAEPAXI@Z PROC				; CButton::`scalar deleting destructor', COMDAT
; _this$ = ecx
  00000	55		 push	 ebp
  00001	8b ec		 mov	 ebp, esp
  00003	56		 push	 esi
  00004	8b f1		 mov	 esi, ecx
  00006	e8 00 00 00 00	 call	 ??1CButton@@UAE@XZ	; CButton::~CButton
  0000b	8b 45 08	 mov	 eax, DWORD PTR ___flags$[ebp]
  0000e	a8 01		 test	 al, 1
  00010	74 22		 je	 SHORT $LN9@scalar
  00012	a8 04		 test	 al, 4
  00014	75 10		 jne	 SHORT $LN3@scalar

; 112  : 	{ ::operator delete(p); }

  00016	56		 push	 esi
  00017	e8 00 00 00 00	 call	 ??3@YAXPAX@Z		; operator delete
  0001c	83 c4 04	 add	 esp, 4
  0001f	8b c6		 mov	 eax, esi
  00021	5e		 pop	 esi
  00022	5d		 pop	 ebp
  00023	c2 04 00	 ret	 4
$LN3@scalar:
  00026	68 80 00 00 00	 push	 128			; 00000080H
  0002b	56		 push	 esi
  0002c	e8 00 00 00 00	 call	 ?__global_delete@@YAXPAXI@Z ; __global_delete
  00031	83 c4 08	 add	 esp, 8
$LN9@scalar:
  00034	8b c6		 mov	 eax, esi
  00036	5e		 pop	 esi
  00037	5d		 pop	 ebp
  00038	c2 04 00	 ret	 4
??_GCButton@@UAEPAXI@Z ENDP				; CButton::`scalar deleting destructor'
_TEXT	ENDS
; Function compile flags: /Ogtp
; File C:\Program Files (x86)\Microsoft Visual Studio\2019\Community\VC\Tools\MSVC\14.29.30133\atlmfc\include\afxwin2.inl
;	COMDAT ?Create@CDialog@@UAEHIPAVCWnd@@@Z
_TEXT	SEGMENT
_nIDTemplate$ = 8					; size = 4
_pParentWnd$ = 12					; size = 4
?Create@CDialog@@UAEHIPAVCWnd@@@Z PROC			; CDialog::Create, COMDAT
; _this$ = ecx

; 585  : 	{ return CDialog::Create(ATL_MAKEINTRESOURCE(nIDTemplate), pParentWnd); }

  00000	55		 push	 ebp
  00001	8b ec		 mov	 ebp, esp
  00003	0f b7 45 08	 movzx	 eax, WORD PTR _nIDTemplate$[ebp]
  00007	89 45 08	 mov	 DWORD PTR _nIDTemplate$[ebp], eax
  0000a	5d		 pop	 ebp
  0000b	e9 00 00 00 00	 jmp	 ?Create@CDialog@@UAEHPBDPAVCWnd@@@Z ; CDialog::Create
?Create@CDialog@@UAEHIPAVCWnd@@@Z ENDP			; CDialog::Create
_TEXT	ENDS
; Function compile flags: /Ogtp
; File C:\Program Files (x86)\Microsoft Visual Studio\2019\Community\VC\Tools\MSVC\14.29.30133\atlmfc\include\afxwin2.inl
;	COMDAT ?EndModalState@CWnd@@UAEXXZ
_TEXT	SEGMENT
?EndModalState@CWnd@@UAEXXZ PROC			; CWnd::EndModalState, COMDAT
; _this$ = ecx

; 567  : 	{ ::EnableWindow(m_hWnd, TRUE); }

  00000	6a 01		 push	 1
  00002	ff 71 20	 push	 DWORD PTR [ecx+32]
  00005	ff 15 00 00 00
	00		 call	 DWORD PTR __imp__EnableWindow@8
  0000b	c3		 ret	 0
?EndModalState@CWnd@@UAEXXZ ENDP			; CWnd::EndModalState
_TEXT	ENDS
; Function compile flags: /Ogtp
; File C:\Program Files (x86)\Microsoft Visual Studio\2019\Community\VC\Tools\MSVC\14.29.30133\atlmfc\include\afxwin2.inl
;	COMDAT ?BeginModalState@CWnd@@UAEXXZ
_TEXT	SEGMENT
?BeginModalState@CWnd@@UAEXXZ PROC			; CWnd::BeginModalState, COMDAT
; _this$ = ecx

; 565  : 	{ ::EnableWindow(m_hWnd, FALSE); }

  00000	6a 00		 push	 0
  00002	ff 71 20	 push	 DWORD PTR [ecx+32]
  00005	ff 15 00 00 00
	00		 call	 DWORD PTR __imp__EnableWindow@8
  0000b	c3		 ret	 0
?BeginModalState@CWnd@@UAEXXZ ENDP			; CWnd::BeginModalState
_TEXT	ENDS
; Function compile flags: /Ogtp
; File C:\Program Files (x86)\Microsoft Visual Studio\2019\Community\VC\Tools\MSVC\14.29.30133\atlmfc\include\afxwin2.inl
;	COMDAT ?DoDataExchange@CWnd@@MAEXPAVCDataExchange@@@Z
_TEXT	SEGMENT
___formal$ = 8						; size = 4
?DoDataExchange@CWnd@@MAEXPAVCDataExchange@@@Z PROC	; CWnd::DoDataExchange, COMDAT
; _this$ = ecx

; 561  : 	{ } // default does nothing

  00000	c2 04 00	 ret	 4
?DoDataExchange@CWnd@@MAEXPAVCDataExchange@@@Z ENDP	; CWnd::DoDataExchange
_TEXT	ENDS
; Function compile flags: /Ogtp
; File C:\Program Files (x86)\Microsoft Visual Studio\2019\Community\VC\Tools\MSVC\14.29.30133\atlmfc\include\afxwin1.inl
; File C:\Program Files (x86)\Microsoft Visual Studio\2019\Community\VC\Tools\MSVC\14.29.30133\atlmfc\include\afx.inl
;	COMDAT ??_GCBitmap@@UAEPAXI@Z
_TEXT	SEGMENT
___flags$ = 8						; size = 4
??_GCBitmap@@UAEPAXI@Z PROC				; CBitmap::`scalar deleting destructor', COMDAT
; _this$ = ecx
  00000	55		 push	 ebp
  00001	8b ec		 mov	 ebp, esp
; File C:\Program Files (x86)\Microsoft Visual Studio\2019\Community\VC\Tools\MSVC\14.29.30133\atlmfc\include\afxwin1.inl

; 179  : 	{ }

  00003	56		 push	 esi
  00004	8b f1		 mov	 esi, ecx
  00006	c7 06 00 00 00
	00		 mov	 DWORD PTR [esi], OFFSET ??_7CBitmap@@6B@
  0000c	e8 00 00 00 00	 call	 ??1CGdiObject@@UAE@XZ	; CGdiObject::~CGdiObject
  00011	8b 45 08	 mov	 eax, DWORD PTR ___flags$[ebp]
  00014	a8 01		 test	 al, 1
  00016	74 1f		 je	 SHORT $LN12@scalar
  00018	a8 04		 test	 al, 4
  0001a	75 10		 jne	 SHORT $LN3@scalar
; File C:\Program Files (x86)\Microsoft Visual Studio\2019\Community\VC\Tools\MSVC\14.29.30133\atlmfc\include\afx.inl

; 112  : 	{ ::operator delete(p); }

  0001c	56		 push	 esi
  0001d	e8 00 00 00 00	 call	 ??3@YAXPAX@Z		; operator delete
  00022	83 c4 04	 add	 esp, 4
  00025	8b c6		 mov	 eax, esi
  00027	5e		 pop	 esi
  00028	5d		 pop	 ebp
  00029	c2 04 00	 ret	 4
$LN3@scalar:
  0002c	6a 08		 push	 8
  0002e	56		 push	 esi
  0002f	e8 00 00 00 00	 call	 ?__global_delete@@YAXPAXI@Z ; __global_delete
  00034	83 c4 08	 add	 esp, 8
$LN12@scalar:
  00037	8b c6		 mov	 eax, esi
  00039	5e		 pop	 esi
  0003a	5d		 pop	 ebp
  0003b	c2 04 00	 ret	 4
??_GCBitmap@@UAEPAXI@Z ENDP				; CBitmap::`scalar deleting destructor'
_TEXT	ENDS
; Function compile flags: /Ogtp
; File C:\Program Files (x86)\Microsoft Visual Studio\2019\Community\VC\Tools\MSVC\14.29.30133\atlmfc\include\afxwin1.inl
;	COMDAT ??1CBitmap@@UAE@XZ
_TEXT	SEGMENT
??1CBitmap@@UAE@XZ PROC					; CBitmap::~CBitmap, COMDAT
; _this$ = ecx

; 179  : 	{ }

  00000	c7 01 00 00 00
	00		 mov	 DWORD PTR [ecx], OFFSET ??_7CBitmap@@6B@
  00006	e9 00 00 00 00	 jmp	 ??1CGdiObject@@UAE@XZ	; CGdiObject::~CGdiObject
??1CBitmap@@UAE@XZ ENDP					; CBitmap::~CBitmap
_TEXT	ENDS
; Function compile flags: /Ogtp
; File C:\Program Files (x86)\Microsoft Visual Studio\2019\Community\VC\Tools\MSVC\14.29.30133\atlmfc\include\afx.inl
;	COMDAT ??_GCGdiObject@@UAEPAXI@Z
_TEXT	SEGMENT
___flags$ = 8						; size = 4
??_GCGdiObject@@UAEPAXI@Z PROC				; CGdiObject::`scalar deleting destructor', COMDAT
; _this$ = ecx
  00000	55		 push	 ebp
  00001	8b ec		 mov	 ebp, esp
  00003	56		 push	 esi
  00004	8b f1		 mov	 esi, ecx
  00006	e8 00 00 00 00	 call	 ??1CGdiObject@@UAE@XZ	; CGdiObject::~CGdiObject
  0000b	8b 45 08	 mov	 eax, DWORD PTR ___flags$[ebp]
  0000e	a8 01		 test	 al, 1
  00010	74 1f		 je	 SHORT $LN9@scalar
  00012	a8 04		 test	 al, 4
  00014	75 10		 jne	 SHORT $LN3@scalar

; 112  : 	{ ::operator delete(p); }

  00016	56		 push	 esi
  00017	e8 00 00 00 00	 call	 ??3@YAXPAX@Z		; operator delete
  0001c	83 c4 04	 add	 esp, 4
  0001f	8b c6		 mov	 eax, esi
  00021	5e		 pop	 esi
  00022	5d		 pop	 ebp
  00023	c2 04 00	 ret	 4
$LN3@scalar:
  00026	6a 08		 push	 8
  00028	56		 push	 esi
  00029	e8 00 00 00 00	 call	 ?__global_delete@@YAXPAXI@Z ; __global_delete
  0002e	83 c4 08	 add	 esp, 8
$LN9@scalar:
  00031	8b c6		 mov	 eax, esi
  00033	5e		 pop	 esi
  00034	5d		 pop	 ebp
  00035	c2 04 00	 ret	 4
??_GCGdiObject@@UAEPAXI@Z ENDP				; CGdiObject::`scalar deleting destructor'
_TEXT	ENDS
; Function compile flags: /Ogtp
; File C:\Program Files (x86)\Microsoft Visual Studio\2019\Community\VC\Tools\MSVC\14.29.30133\atlmfc\include\afxwin1.inl
;	COMDAT ??1CGdiObject@@UAE@XZ
_TEXT	SEGMENT
_pException$2 = -540					; size = 4
_strMsg$3 = -536					; size = 4
_szErrorMessage$4 = -532				; size = 512
__$ArrayPad$ = -20					; size = 4
__$EHRec$ = -16						; size = 16
??1CGdiObject@@UAE@XZ PROC				; CGdiObject::~CGdiObject, COMDAT
; _this$ = ecx

; 74   : {

  00000	55		 push	 ebp
  00001	8b ec		 mov	 ebp, esp
  00003	6a ff		 push	 -1
  00005	68 00 00 00 00	 push	 __ehhandler$??1CGdiObject@@UAE@XZ
  0000a	64 a1 00 00 00
	00		 mov	 eax, DWORD PTR fs:0
  00010	50		 push	 eax
  00011	81 ec 10 02 00
	00		 sub	 esp, 528		; 00000210H
  00017	a1 00 00 00 00	 mov	 eax, DWORD PTR ___security_cookie
  0001c	33 c5		 xor	 eax, ebp
  0001e	89 45 ec	 mov	 DWORD PTR __$ArrayPad$[ebp], eax
  00021	53		 push	 ebx
  00022	56		 push	 esi
  00023	57		 push	 edi
  00024	50		 push	 eax
  00025	8d 45 f4	 lea	 eax, DWORD PTR __$EHRec$[ebp+4]
  00028	64 a3 00 00 00
	00		 mov	 DWORD PTR fs:0, eax
  0002e	89 65 f0	 mov	 DWORD PTR __$EHRec$[ebp], esp
  00031	c7 01 00 00 00
	00		 mov	 DWORD PTR [ecx], OFFSET ??_7CGdiObject@@6B@

; 75   : 	AFX_BEGIN_DESTRUCTOR

  00037	c7 45 fc 00 00
	00 00		 mov	 DWORD PTR __$EHRec$[ebp+12], 0

; 76   : 	DeleteObject();

  0003e	e8 00 00 00 00	 call	 ?DeleteObject@CGdiObject@@QAEHXZ ; CGdiObject::DeleteObject
$LN18@CGdiObject:

; 78   : }

  00043	8b 4d f4	 mov	 ecx, DWORD PTR __$EHRec$[ebp+4]
  00046	64 89 0d 00 00
	00 00		 mov	 DWORD PTR fs:0, ecx
  0004d	59		 pop	 ecx
  0004e	5f		 pop	 edi
  0004f	5e		 pop	 esi
  00050	5b		 pop	 ebx
  00051	8b 4d ec	 mov	 ecx, DWORD PTR __$ArrayPad$[ebp]
  00054	33 cd		 xor	 ecx, ebp
  00056	e8 00 00 00 00	 call	 @__security_check_cookie@4
  0005b	8b e5		 mov	 esp, ebp
  0005d	5d		 pop	 ebp
  0005e	c3		 ret	 0
__catch$??1CGdiObject@@UAE@XZ$0:

; 77   : 	AFX_END_DESTRUCTOR

  0005f	8d 8d e8 fd ff
	ff		 lea	 ecx, DWORD PTR _strMsg$3[ebp]
  00065	ff 15 00 00 00
	00		 call	 DWORD PTR __imp_??0?$CStringT@DV?$StrTraitMFC_DLL@DV?$ChTraitsCRT@D@ATL@@@@@ATL@@QAE@XZ
  0006b	8b b5 e4 fd ff
	ff		 mov	 esi, DWORD PTR _pException$2[ebp]
  00071	8d 8d ec fd ff
	ff		 lea	 ecx, DWORD PTR _szErrorMessage$4[ebp]
  00077	6a 00		 push	 0
  00079	68 00 02 00 00	 push	 512			; 00000200H
  0007e	51		 push	 ecx
  0007f	8b 06		 mov	 eax, DWORD PTR [esi]
  00081	8b ce		 mov	 ecx, esi
  00083	c6 45 fc 02	 mov	 BYTE PTR __$EHRec$[ebp+12], 2
  00087	ff 50 14	 call	 DWORD PTR [eax+20]
  0008a	85 c0		 test	 eax, eax
  0008c	74 2a		 je	 SHORT $LN9@CGdiObject
  0008e	8d 85 ec fd ff
	ff		 lea	 eax, DWORD PTR _szErrorMessage$4[ebp]
  00094	50		 push	 eax
  00095	6a 4d		 push	 77			; 0000004dH
  00097	68 00 00 00 00	 push	 OFFSET ??_C@_0HD@JJCHHHNK@C?3?2Program?5Files?5?$CIx86?$CJ?2Microsof@
  0009c	68 00 00 00 00	 push	 OFFSET ??_C@_0BP@OIEOKIDM@Exception?5thrown?5in?5destructor@
  000a1	8d 85 e8 fd ff
	ff		 lea	 eax, DWORD PTR _strMsg$3[ebp]
  000a7	68 00 00 00 00	 push	 OFFSET ??_C@_0BB@HBOOMJBF@?$CFTs?5?$CI?$CFTs?3?$CFd?$CJ?6?$CFTs@
  000ac	50		 push	 eax
  000ad	ff 15 00 00 00
	00		 call	 DWORD PTR __imp_?Format@?$CStringT@DV?$StrTraitMFC_DLL@DV?$ChTraitsCRT@D@ATL@@@@@ATL@@QAAXPBDZZ
  000b3	83 c4 18	 add	 esp, 24			; 00000018H
  000b6	eb 21		 jmp	 SHORT $LN10@CGdiObject
$LN9@CGdiObject:
  000b8	6a 4d		 push	 77			; 0000004dH
  000ba	68 00 00 00 00	 push	 OFFSET ??_C@_0HD@JJCHHHNK@C?3?2Program?5Files?5?$CIx86?$CJ?2Microsof@
  000bf	68 00 00 00 00	 push	 OFFSET ??_C@_0BP@OIEOKIDM@Exception?5thrown?5in?5destructor@
  000c4	8d 85 e8 fd ff
	ff		 lea	 eax, DWORD PTR _strMsg$3[ebp]
  000ca	68 00 00 00 00	 push	 OFFSET ??_C@_0N@OMEMOKLE@?$CFTs?5?$CI?$CFTs?3?$CFd?$CJ@
  000cf	50		 push	 eax
  000d0	ff 15 00 00 00
	00		 call	 DWORD PTR __imp_?Format@?$CStringT@DV?$StrTraitMFC_DLL@DV?$ChTraitsCRT@D@ATL@@@@@ATL@@QAAXPBDZZ
  000d6	83 c4 14	 add	 esp, 20			; 00000014H
$LN10@CGdiObject:
  000d9	6a 00		 push	 0
  000db	6a 00		 push	 0
  000dd	ff b5 e8 fd ff
	ff		 push	 DWORD PTR _strMsg$3[ebp]
  000e3	e8 00 00 00 00	 call	 ?AfxMessageBox@@YGHPBDII@Z ; AfxMessageBox
  000e8	8d 8d e8 fd ff
	ff		 lea	 ecx, DWORD PTR _strMsg$3[ebp]
  000ee	ff 15 00 00 00
	00		 call	 DWORD PTR __imp_??1?$CStringT@DV?$StrTraitMFC_DLL@DV?$ChTraitsCRT@D@ATL@@@@@ATL@@QAE@XZ
  000f4	8b 06		 mov	 eax, DWORD PTR [esi]
  000f6	8b ce		 mov	 ecx, esi
  000f8	6a 01		 push	 1
  000fa	ff 50 04	 call	 DWORD PTR [eax+4]
  000fd	b8 00 00 00 00	 mov	 eax, $LN18@CGdiObject
  00102	c3		 ret	 0
_TEXT	ENDS
;	COMDAT text$x
text$x	SEGMENT
__unwindfunclet$??1CGdiObject@@UAE@XZ$2:
  00000	8d 8d e8 fd ff
	ff		 lea	 ecx, DWORD PTR _strMsg$3[ebp]
  00006	ff 25 00 00 00
	00		 jmp	 DWORD PTR __imp_??1?$CStringT@DV?$StrTraitMFC_DLL@DV?$ChTraitsCRT@D@ATL@@@@@ATL@@QAE@XZ
  0000c	cc		 int	 3
  0000d	cc		 int	 3
  0000e	cc		 int	 3
  0000f	cc		 int	 3
  00010	cc		 int	 3
__ehhandler$??1CGdiObject@@UAE@XZ:
  00011	90		 npad	 1
  00012	90		 npad	 1
  00013	8b 54 24 08	 mov	 edx, DWORD PTR [esp+8]
  00017	8d 42 0c	 lea	 eax, DWORD PTR [edx+12]
  0001a	8b 8a e0 fd ff
	ff		 mov	 ecx, DWORD PTR [edx-544]
  00020	33 c8		 xor	 ecx, eax
  00022	e8 00 00 00 00	 call	 @__security_check_cookie@4
  00027	8b 4a f8	 mov	 ecx, DWORD PTR [edx-8]
  0002a	33 c8		 xor	 ecx, eax
  0002c	e8 00 00 00 00	 call	 @__security_check_cookie@4
  00031	b8 00 00 00 00	 mov	 eax, OFFSET __ehfuncinfo$??1CGdiObject@@UAE@XZ
  00036	e9 00 00 00 00	 jmp	 ___CxxFrameHandler3
text$x	ENDS
??1CGdiObject@@UAE@XZ ENDP				; CGdiObject::~CGdiObject
; Function compile flags: /Ogtp
; File C:\Program Files (x86)\Microsoft Visual Studio\2019\Community\VC\Tools\MSVC\14.29.30133\atlmfc\include\atlexcept.h
;	COMDAT ?AtlThrowImpl@ATL@@YGXJ@Z
_TEXT	SEGMENT
_hr$ = 8						; size = 4
?AtlThrowImpl@ATL@@YGXJ@Z PROC				; ATL::AtlThrowImpl, COMDAT

; 65   : {

  00000	55		 push	 ebp
  00001	8b ec		 mov	 ebp, esp

; 66   : 	ATLTRACE(atlTraceException, 0, _T("AtlThrow: hr = 0x%x\n"), hr );
; 67   : #ifdef _AFX
; 68   : 	if( hr == E_OUTOFMEMORY )

  00003	8b 45 08	 mov	 eax, DWORD PTR _hr$[ebp]
  00006	3d 0e 00 07 80	 cmp	 eax, -2147024882	; 8007000eH
  0000b	75 05		 jne	 SHORT $LN2@AtlThrowIm

; 69   : 	{
; 70   : 		AfxThrowMemoryException();

  0000d	e8 00 00 00 00	 call	 ?AfxThrowMemoryException@@YGXXZ ; AfxThrowMemoryException
$LN2@AtlThrowIm:

; 71   : 	}
; 72   : 	else
; 73   : 	{
; 74   : 		AfxThrowOleException( hr );

  00012	50		 push	 eax
  00013	e8 00 00 00 00	 call	 ?AfxThrowOleException@@YGXJ@Z ; AfxThrowOleException
$LN5@AtlThrowIm:
  00018	cc		 int	 3
?AtlThrowImpl@ATL@@YGXJ@Z ENDP				; ATL::AtlThrowImpl
_TEXT	ENDS
; Function compile flags: /Ogtp
; File C:\Program Files (x86)\Microsoft Visual Studio\2019\Community\VC\Tools\MSVC\14.29.30133\atlmfc\include\afx.inl
;	COMDAT ?Dump@CObject@@UBEXAAVCDumpContext@@@Z
_TEXT	SEGMENT
___formal$ = 8						; size = 4
?Dump@CObject@@UBEXAAVCDumpContext@@@Z PROC		; CObject::Dump, COMDAT
; _this$ = ecx

; 122  : 	{ /* no dumping in release builds */ }

  00000	c2 04 00	 ret	 4
?Dump@CObject@@UBEXAAVCDumpContext@@@Z ENDP		; CObject::Dump
_TEXT	ENDS
; Function compile flags: /Ogtp
; File C:\Program Files (x86)\Microsoft Visual Studio\2019\Community\VC\Tools\MSVC\14.29.30133\atlmfc\include\afx.inl
;	COMDAT ?AssertValid@CObject@@UBEXXZ
_TEXT	SEGMENT
?AssertValid@CObject@@UBEXXZ PROC			; CObject::AssertValid, COMDAT
; _this$ = ecx

; 120  : 	{ /* no asserts in release builds */ }

  00000	c2 00 00	 ret	 0
?AssertValid@CObject@@UBEXXZ ENDP			; CObject::AssertValid
_TEXT	ENDS
; Function compile flags: /Ogtp
; File C:\Program Files (x86)\Microsoft Visual Studio\2019\Community\VC\Tools\MSVC\14.29.30133\atlmfc\include\afx.inl
;	COMDAT ?Serialize@CObject@@UAEXAAVCArchive@@@Z
_TEXT	SEGMENT
___formal$ = 8						; size = 4
?Serialize@CObject@@UAEXAAVCArchive@@@Z PROC		; CObject::Serialize, COMDAT
; _this$ = ecx

; 106  : 	{ /* CObject does not serialize anything by default */ }

  00000	c2 04 00	 ret	 4
?Serialize@CObject@@UAEXAAVCArchive@@@Z ENDP		; CObject::Serialize
_TEXT	ENDS
; Function compile flags: /Ogtp
; File C:\Program Files (x86)\Microsoft Visual Studio\2019\Community\VC\Tools\MSVC\14.29.30133\atlmfc\include\afx.inl
;	COMDAT ??1CObject@@UAE@XZ
_TEXT	SEGMENT
??1CObject@@UAE@XZ PROC					; CObject::~CObject, COMDAT
; _this$ = ecx

; 104  : 	{ }

  00000	c2 00 00	 ret	 0
??1CObject@@UAE@XZ ENDP					; CObject::~CObject
_TEXT	ENDS
; Function compile flags: /Ogtp
; File D:\git\src\IBK\IBK_DRFN\ProjSrc\SrcChartEx\ChartAddIn\ChartAnalysisToolAddIn\AnalysisTool\DlgFiboSet.cpp
;	COMDAT ?__empty_global_delete@@YAXPAXI@Z
_TEXT	SEGMENT
___formal$ = 8						; size = 4
___formal$ = 12						; size = 4
?__empty_global_delete@@YAXPAXI@Z PROC			; __empty_global_delete, COMDAT

  00000	c2 00 00	 ret	 0
?__empty_global_delete@@YAXPAXI@Z ENDP			; __empty_global_delete
_TEXT	ENDS
; Function compile flags: /Ogtp
; File D:\git\src\IBK\IBK_DRFN\ProjSrc\SrcChartEx\ChartAddIn\ChartAnalysisToolAddIn\AnalysisTool\DlgFiboSet.cpp
;	COMDAT ?__empty_global_delete@@YAXPAX@Z
_TEXT	SEGMENT
___formal$ = 8						; size = 4
?__empty_global_delete@@YAXPAX@Z PROC			; __empty_global_delete, COMDAT

  00000	c2 00 00	 ret	 0
?__empty_global_delete@@YAXPAX@Z ENDP			; __empty_global_delete
_TEXT	ENDS
END
